; Listing generated by Microsoft (R) Optimizing Compiler Version 16.00.30319.01 

	TITLE	D:\Lost Saga For Developer\Youtube\Tutorial\Source\src\LSClient\ioTargetBuffSkill.cpp
	.686P
	.XMM
	include listing.inc
	.model	flat

INCLUDELIB MSVCRT
INCLUDELIB OLDNAMES

PUBLIC	?_EEM_DS@?$deque@UD3DXVECTOR3@@V?$allocator@UD3DXVECTOR3@@@std@@@std@@2HB ; std::deque<D3DXVECTOR3,std::allocator<D3DXVECTOR3> >::_EEM_DS
;	COMDAT ?_EEM_DS@?$deque@UD3DXVECTOR3@@V?$allocator@UD3DXVECTOR3@@@std@@@std@@2HB
CONST	SEGMENT
?_EEM_DS@?$deque@UD3DXVECTOR3@@V?$allocator@UD3DXVECTOR3@@@std@@@std@@2HB DD 01H ; std::deque<D3DXVECTOR3,std::allocator<D3DXVECTOR3> >::_EEM_DS
CONST	ENDS
PUBLIC	?GetBaseCharList@ioPlayStage@@QBEABV?$vector@PAVioBaseChar@@V?$allocator@PAVioBaseChar@@@std@@@std@@XZ ; ioPlayStage::GetBaseCharList
; Function compile flags: /Ogsp
; File d:\lost saga for developer\youtube\tutorial\source\src\lsclient\ioplaystage.h
;	COMDAT ?GetBaseCharList@ioPlayStage@@QBEABV?$vector@PAVioBaseChar@@V?$allocator@PAVioBaseChar@@@std@@@std@@XZ
_TEXT	SEGMENT
?GetBaseCharList@ioPlayStage@@QBEABV?$vector@PAVioBaseChar@@V?$allocator@PAVioBaseChar@@@std@@@std@@XZ PROC ; ioPlayStage::GetBaseCharList, COMDAT
; _this$ = ecx

; 755  : 	const BaseCharList& GetBaseCharList() const { return m_BaseCharList; }

  00000	8d 41 2c	 lea	 eax, DWORD PTR [ecx+44]
  00003	c3		 ret	 0
?GetBaseCharList@ioPlayStage@@QBEABV?$vector@PAVioBaseChar@@V?$allocator@PAVioBaseChar@@@std@@@std@@XZ ENDP ; ioPlayStage::GetBaseCharList
_TEXT	ENDS
PUBLIC	?return1@@YAIXZ					; return1
; Function compile flags: /Ogsp
; File d:\lost saga for developer\youtube\tutorial\source\src\lsclient\stdafx.h
;	COMDAT ?return1@@YAIXZ
_TEXT	SEGMENT
?return1@@YAIXZ PROC					; return1, COMDAT

; 17   : 	__forceinline unsigned int return1() { __asm mov eax, 1 };

  00000	b8 01 00 00 00	 mov	 eax, 1
  00005	c3		 ret	 0
?return1@@YAIXZ ENDP					; return1
_TEXT	ENDS
PUBLIC	?return5@@YAIXZ					; return5
; Function compile flags: /Ogsp
;	COMDAT ?return5@@YAIXZ
_TEXT	SEGMENT
?return5@@YAIXZ PROC					; return5, COMDAT

; 18   : 	__forceinline unsigned int return5() { __asm mov eax, 5 };

  00000	b8 05 00 00 00	 mov	 eax, 5
  00005	c3		 ret	 0
?return5@@YAIXZ ENDP					; return5
_TEXT	ENDS
PUBLIC	?return10@@YAIXZ				; return10
; Function compile flags: /Ogsp
;	COMDAT ?return10@@YAIXZ
_TEXT	SEGMENT
?return10@@YAIXZ PROC					; return10, COMDAT

; 21   : 	__forceinline unsigned int return10() { __asm mov eax, 10 };

  00000	b8 0a 00 00 00	 mov	 eax, 10			; 0000000aH
  00005	c3		 ret	 0
?return10@@YAIXZ ENDP					; return10
_TEXT	ENDS
PUBLIC	?return100@@YAIXZ				; return100
; Function compile flags: /Ogsp
;	COMDAT ?return100@@YAIXZ
_TEXT	SEGMENT
?return100@@YAIXZ PROC					; return100, COMDAT

; 25   : 	__forceinline unsigned int return100() { __asm mov eax, 100 };

  00000	b8 64 00 00 00	 mov	 eax, 100		; 00000064H
  00005	c3		 ret	 0
?return100@@YAIXZ ENDP					; return100
_TEXT	ENDS
PUBLIC	_cosf
EXTRN	__fltused:DWORD
EXTRN	__CIcos:PROC
; Function compile flags: /Ogsp
; File c:\program files (x86)\microsoft visual studio 10.0\vc\include\math.h
;	COMDAT _cosf
_TEXT	SEGMENT
tv69 = 8						; size = 4
__X$ = 8						; size = 4
_cosf	PROC						; COMDAT

; 410  :         {return ((float)cos((double)_X)); }

  00000	55		 push	 ebp
  00001	8b ec		 mov	 ebp, esp
  00003	d9 45 08	 fld	 DWORD PTR __X$[ebp]
  00006	e8 00 00 00 00	 call	 __CIcos
  0000b	d9 5d 08	 fstp	 DWORD PTR tv69[ebp]
  0000e	d9 45 08	 fld	 DWORD PTR tv69[ebp]
  00011	5d		 pop	 ebp
  00012	c3		 ret	 0
_cosf	ENDP
_TEXT	ENDS
PUBLIC	?GetCharName@ioBaseChar@@QBEABVioHashString@@XZ	; ioBaseChar::GetCharName
; Function compile flags: /Ogsp
; File d:\lost saga for developer\youtube\tutorial\source\src\lsclient\iobasechar.h
;	COMDAT ?GetCharName@ioBaseChar@@QBEABVioHashString@@XZ
_TEXT	SEGMENT
?GetCharName@ioBaseChar@@QBEABVioHashString@@XZ PROC	; ioBaseChar::GetCharName, COMDAT
; _this$ = ecx

; 2594 : 	inline const ioHashString& GetCharName() const { return m_Name; }

  00000	8d 81 d4 02 00
	00		 lea	 eax, DWORD PTR [ecx+724]
  00006	c3		 ret	 0
?GetCharName@ioBaseChar@@QBEABVioHashString@@XZ ENDP	; ioBaseChar::GetCharName
_TEXT	ENDS
PUBLIC	?GetTargetRot@ioBaseChar@@QBEABUD3DXQUATERNION@@XZ ; ioBaseChar::GetTargetRot
; Function compile flags: /Ogsp
;	COMDAT ?GetTargetRot@ioBaseChar@@QBEABUD3DXQUATERNION@@XZ
_TEXT	SEGMENT
?GetTargetRot@ioBaseChar@@QBEABUD3DXQUATERNION@@XZ PROC	; ioBaseChar::GetTargetRot, COMDAT
; _this$ = ecx

; 2599 : 	inline const D3DXQUATERNION& GetTargetRot() const { return m_qtTargetRot; }

  00000	8d 81 a4 06 00
	00		 lea	 eax, DWORD PTR [ecx+1700]
  00006	c3		 ret	 0
?GetTargetRot@ioBaseChar@@QBEABUD3DXQUATERNION@@XZ ENDP	; ioBaseChar::GetTargetRot
_TEXT	ENDS
PUBLIC	??_7bad_alloc@std@@6B@				; std::bad_alloc::`vftable'
PUBLIC	??0bad_alloc@std@@QAE@PBD@Z			; std::bad_alloc::bad_alloc
PUBLIC	??_R4bad_alloc@std@@6B@				; std::bad_alloc::`RTTI Complete Object Locator'
PUBLIC	??_R0?AVbad_alloc@std@@@8			; std::bad_alloc `RTTI Type Descriptor'
PUBLIC	??_R3bad_alloc@std@@8				; std::bad_alloc::`RTTI Class Hierarchy Descriptor'
PUBLIC	??_R2bad_alloc@std@@8				; std::bad_alloc::`RTTI Base Class Array'
PUBLIC	??_R1A@?0A@EA@bad_alloc@std@@8			; std::bad_alloc::`RTTI Base Class Descriptor at (0,-1,0,64)'
PUBLIC	??_R1A@?0A@EA@exception@std@@8			; std::exception::`RTTI Base Class Descriptor at (0,-1,0,64)'
PUBLIC	??_R0?AVexception@std@@@8			; std::exception `RTTI Type Descriptor'
PUBLIC	??_R3exception@std@@8				; std::exception::`RTTI Class Hierarchy Descriptor'
PUBLIC	??_R2exception@std@@8				; std::exception::`RTTI Base Class Array'
EXTRN	__imp_??0exception@std@@QAE@ABQBD@Z:PROC
EXTRN	??_7type_info@@6B@:QWORD			; type_info::`vftable'
EXTRN	??_Ebad_alloc@std@@UAEPAXI@Z:PROC		; std::bad_alloc::`vector deleting destructor'
EXTRN	?what@exception@std@@UBEPBDXZ:PROC		; std::exception::what
;	COMDAT ??_R2exception@std@@8
; File c:\program files (x86)\microsoft visual studio 10.0\vc\include\exception
rdata$r	SEGMENT
??_R2exception@std@@8 DD FLAT:??_R1A@?0A@EA@exception@std@@8 ; std::exception::`RTTI Base Class Array'
rdata$r	ENDS
;	COMDAT ??_R3exception@std@@8
rdata$r	SEGMENT
??_R3exception@std@@8 DD 00H				; std::exception::`RTTI Class Hierarchy Descriptor'
	DD	00H
	DD	01H
	DD	FLAT:??_R2exception@std@@8
rdata$r	ENDS
;	COMDAT ??_R0?AVexception@std@@@8
_DATA	SEGMENT
??_R0?AVexception@std@@@8 DD FLAT:??_7type_info@@6B@	; std::exception `RTTI Type Descriptor'
	DD	00H
	DB	'.?AVexception@std@@', 00H
_DATA	ENDS
;	COMDAT ??_R1A@?0A@EA@exception@std@@8
rdata$r	SEGMENT
??_R1A@?0A@EA@exception@std@@8 DD FLAT:??_R0?AVexception@std@@@8 ; std::exception::`RTTI Base Class Descriptor at (0,-1,0,64)'
	DD	00H
	DD	00H
	DD	0ffffffffH
	DD	00H
	DD	040H
	DD	FLAT:??_R3exception@std@@8
rdata$r	ENDS
;	COMDAT ??_R1A@?0A@EA@bad_alloc@std@@8
rdata$r	SEGMENT
??_R1A@?0A@EA@bad_alloc@std@@8 DD FLAT:??_R0?AVbad_alloc@std@@@8 ; std::bad_alloc::`RTTI Base Class Descriptor at (0,-1,0,64)'
	DD	01H
	DD	00H
	DD	0ffffffffH
	DD	00H
	DD	040H
	DD	FLAT:??_R3bad_alloc@std@@8
rdata$r	ENDS
;	COMDAT ??_R2bad_alloc@std@@8
rdata$r	SEGMENT
??_R2bad_alloc@std@@8 DD FLAT:??_R1A@?0A@EA@bad_alloc@std@@8 ; std::bad_alloc::`RTTI Base Class Array'
	DD	FLAT:??_R1A@?0A@EA@exception@std@@8
rdata$r	ENDS
;	COMDAT ??_R3bad_alloc@std@@8
rdata$r	SEGMENT
??_R3bad_alloc@std@@8 DD 00H				; std::bad_alloc::`RTTI Class Hierarchy Descriptor'
	DD	00H
	DD	02H
	DD	FLAT:??_R2bad_alloc@std@@8
rdata$r	ENDS
;	COMDAT ??_R0?AVbad_alloc@std@@@8
_DATA	SEGMENT
??_R0?AVbad_alloc@std@@@8 DD FLAT:??_7type_info@@6B@	; std::bad_alloc `RTTI Type Descriptor'
	DD	00H
	DB	'.?AVbad_alloc@std@@', 00H
_DATA	ENDS
;	COMDAT ??_R4bad_alloc@std@@6B@
rdata$r	SEGMENT
??_R4bad_alloc@std@@6B@ DD 00H				; std::bad_alloc::`RTTI Complete Object Locator'
	DD	00H
	DD	00H
	DD	FLAT:??_R0?AVbad_alloc@std@@@8
	DD	FLAT:??_R3bad_alloc@std@@8
rdata$r	ENDS
;	COMDAT ??_7bad_alloc@std@@6B@
CONST	SEGMENT
??_7bad_alloc@std@@6B@ DD FLAT:??_R4bad_alloc@std@@6B@	; std::bad_alloc::`vftable'
	DD	FLAT:??_Ebad_alloc@std@@UAEPAXI@Z
	DD	FLAT:?what@exception@std@@UBEPBDXZ
; Function compile flags: /Ogsp
CONST	ENDS
;	COMDAT ??0bad_alloc@std@@QAE@PBD@Z
_TEXT	SEGMENT
__Message$ = 8						; size = 4
??0bad_alloc@std@@QAE@PBD@Z PROC			; std::bad_alloc::bad_alloc, COMDAT
; _this$ = ecx

; 345  : 		{	// construct from message string

  00000	55		 push	 ebp
  00001	8b ec		 mov	 ebp, esp
  00003	56		 push	 esi
  00004	8d 45 08	 lea	 eax, DWORD PTR __Message$[ebp]
  00007	50		 push	 eax
  00008	8b f1		 mov	 esi, ecx
  0000a	ff 15 00 00 00
	00		 call	 DWORD PTR __imp_??0exception@std@@QAE@ABQBD@Z
  00010	c7 06 00 00 00
	00		 mov	 DWORD PTR [esi], OFFSET ??_7bad_alloc@std@@6B@

; 346  : 		}

  00016	8b c6		 mov	 eax, esi
  00018	5e		 pop	 esi
  00019	5d		 pop	 ebp
  0001a	c2 04 00	 ret	 4
??0bad_alloc@std@@QAE@PBD@Z ENDP			; std::bad_alloc::bad_alloc
_TEXT	ENDS
PUBLIC	??1bad_alloc@std@@UAE@XZ			; std::bad_alloc::~bad_alloc
EXTRN	__imp_??1exception@std@@UAE@XZ:PROC
; Function compile flags: /Ogsp
;	COMDAT ??1bad_alloc@std@@UAE@XZ
_TEXT	SEGMENT
??1bad_alloc@std@@UAE@XZ PROC				; std::bad_alloc::~bad_alloc, COMDAT
; _this$ = ecx

; 354  : 		{	// destroy the object

  00000	c7 01 00 00 00
	00		 mov	 DWORD PTR [ecx], OFFSET ??_7bad_alloc@std@@6B@

; 355  : 		}

  00006	ff 25 00 00 00
	00		 jmp	 DWORD PTR __imp_??1exception@std@@UAE@XZ
??1bad_alloc@std@@UAE@XZ ENDP				; std::bad_alloc::~bad_alloc
_TEXT	ENDS
EXTRN	??3@YAXPAX@Z:PROC				; operator delete
; Function compile flags: /Ogsp
;	COMDAT ??_Gbad_alloc@std@@UAEPAXI@Z
_TEXT	SEGMENT
___flags$ = 8						; size = 4
??_Gbad_alloc@std@@UAEPAXI@Z PROC			; std::bad_alloc::`scalar deleting destructor', COMDAT
; _this$ = ecx
  00000	55		 push	 ebp
  00001	8b ec		 mov	 ebp, esp
  00003	56		 push	 esi
  00004	8b f1		 mov	 esi, ecx
  00006	c7 06 00 00 00
	00		 mov	 DWORD PTR [esi], OFFSET ??_7bad_alloc@std@@6B@
  0000c	ff 15 00 00 00
	00		 call	 DWORD PTR __imp_??1exception@std@@UAE@XZ
  00012	f6 45 08 01	 test	 BYTE PTR ___flags$[ebp], 1
  00016	74 07		 je	 SHORT $LN1@scalar
  00018	56		 push	 esi
  00019	e8 00 00 00 00	 call	 ??3@YAXPAX@Z		; operator delete
  0001e	59		 pop	 ecx
$LN1@scalar:
  0001f	8b c6		 mov	 eax, esi
  00021	5e		 pop	 esi
  00022	5d		 pop	 ebp
  00023	c2 04 00	 ret	 4
??_Gbad_alloc@std@@UAEPAXI@Z ENDP			; std::bad_alloc::`scalar deleting destructor'
_TEXT	ENDS
PUBLIC	??2@YAPAXIPAX@Z					; operator new
; Function compile flags: /Ogsp
; File c:\program files (x86)\microsoft visual studio 10.0\vc\include\new
;	COMDAT ??2@YAPAXIPAX@Z
_TEXT	SEGMENT
___formal$ = 8						; size = 4
__Where$ = 12						; size = 4
??2@YAPAXIPAX@Z PROC					; operator new, COMDAT

; 56   : 	{	// construct array with placement at _Where

  00000	55		 push	 ebp
  00001	8b ec		 mov	 ebp, esp

; 57   : 	return (_Where);

  00003	8b 45 0c	 mov	 eax, DWORD PTR __Where$[ebp]

; 58   : 	}

  00006	5d		 pop	 ebp
  00007	c3		 ret	 0
??2@YAPAXIPAX@Z ENDP					; operator new
_TEXT	ENDS
PUBLIC	??3@YAXPAX0@Z					; operator delete
; Function compile flags: /Ogsp
;	COMDAT ??3@YAXPAX0@Z
_TEXT	SEGMENT
___formal$ = 8						; size = 4
___formal$ = 12						; size = 4
??3@YAXPAX0@Z PROC					; operator delete, COMDAT

; 62   : 	}

  00000	c3		 ret	 0
??3@YAXPAX0@Z ENDP					; operator delete
_TEXT	ENDS
PUBLIC	?_Adopt@_Iterator_base0@std@@QAEXPBX@Z		; std::_Iterator_base0::_Adopt
; Function compile flags: /Ogsp
; File c:\program files (x86)\microsoft visual studio 10.0\vc\include\xutility
;	COMDAT ?_Adopt@_Iterator_base0@std@@QAEXPBX@Z
_TEXT	SEGMENT
___formal$ = 8						; size = 4
?_Adopt@_Iterator_base0@std@@QAEXPBX@Z PROC		; std::_Iterator_base0::_Adopt, COMDAT
; _this$ = ecx

; 49   : 		}

  00000	c2 04 00	 ret	 4
?_Adopt@_Iterator_base0@std@@QAEXPBX@Z ENDP		; std::_Iterator_base0::_Adopt
_TEXT	ENDS
PUBLIC	?ClearData@ioTargetBuffSkill@@IAEXXZ		; ioTargetBuffSkill::ClearData
EXTRN	__imp_?Clear@ioHashString@@QAEXXZ:PROC
; Function compile flags: /Ogsp
; File d:\lost saga for developer\youtube\tutorial\source\src\lsclient\iotargetbuffskill.cpp
;	COMDAT ?ClearData@ioTargetBuffSkill@@IAEXXZ
_TEXT	SEGMENT
?ClearData@ioTargetBuffSkill@@IAEXXZ PROC		; ioTargetBuffSkill::ClearData, COMDAT
; _this$ = ecx

; 35   : {

  00000	53		 push	 ebx
  00001	56		 push	 esi
  00002	8b f1		 mov	 esi, ecx

; 36   : 	m_bSetHandMesh = false;
; 37   : 
; 38   : 	m_SkillState = SS_NONE;
; 39   : 	m_dwLoopStartTime	= 0;
; 40   : 
; 41   : 	m_dwAimMarkID	= -1;

  00004	83 8e c8 10 00
	00 ff		 or	 DWORD PTR [esi+4296], -1
  0000b	33 db		 xor	 ebx, ebx

; 42   : 
; 43   : 	m_dwPreDelayStartTime = 0;
; 44   : 	m_szTargetName.Clear();

  0000d	8d 8e cc 10 00
	00		 lea	 ecx, DWORD PTR [esi+4300]
  00013	88 9e 0a 0f 00
	00		 mov	 BYTE PTR [esi+3850], bl
  00019	89 9e 08 10 00
	00		 mov	 DWORD PTR [esi+4104], ebx
  0001f	89 9e 4c 10 00
	00		 mov	 DWORD PTR [esi+4172], ebx
  00025	89 9e 20 02 00
	00		 mov	 DWORD PTR [esi+544], ebx
  0002b	ff 15 00 00 00
	00		 call	 DWORD PTR __imp_?Clear@ioHashString@@QAEXXZ

; 45   : 
; 46   : 	m_dwFireStartTime = 0;

  00031	89 9e e0 10 00
	00		 mov	 DWORD PTR [esi+4320], ebx
  00037	5e		 pop	 esi
  00038	5b		 pop	 ebx

; 47   : }

  00039	c3		 ret	 0
?ClearData@ioTargetBuffSkill@@IAEXXZ ENDP		; ioTargetBuffSkill::ClearData
_TEXT	ENDS
PUBLIC	?IsSkillMotionEnd@ioTargetBuffSkill@@UBE_NKPAVioBaseChar@@@Z ; ioTargetBuffSkill::IsSkillMotionEnd
EXTRN	__imp_?GetLoopSec@ioFrameTimer@@QBEKXZ:PROC
EXTRN	__imp_?GetSingleton@ioFrameTimer@@SAAAV1@XZ:PROC
; Function compile flags: /Ogsp
;	COMDAT ?IsSkillMotionEnd@ioTargetBuffSkill@@UBE_NKPAVioBaseChar@@@Z
_TEXT	SEGMENT
_dwActionStop$ = 8					; size = 4
_pOwner$ = 12						; size = 4
?IsSkillMotionEnd@ioTargetBuffSkill@@UBE_NKPAVioBaseChar@@@Z PROC ; ioTargetBuffSkill::IsSkillMotionEnd, COMDAT
; _this$ = ecx

; 198  : {

  00000	55		 push	 ebp
  00001	8b ec		 mov	 ebp, esp
  00003	56		 push	 esi
  00004	8b f1		 mov	 esi, ecx

; 199  : 	if( m_dwPreDelayStartTime > 0 )

  00006	83 be 20 02 00
	00 00		 cmp	 DWORD PTR [esi+544], 0

; 200  : 		return false;

  0000d	77 2f		 ja	 SHORT $LN3@IsSkillMot

; 201  : 
; 202  : 	switch( m_SkillState )

  0000f	8b 86 08 10 00
	00		 mov	 eax, DWORD PTR [esi+4104]
  00015	48		 dec	 eax
  00016	74 26		 je	 SHORT $LN3@IsSkillMot
  00018	48		 dec	 eax
  00019	74 04		 je	 SHORT $LN2@IsSkillMot

; 211  : 	}
; 212  : 
; 213  : 	return true;

  0001b	b0 01		 mov	 al, 1
  0001d	eb 21		 jmp	 SHORT $LN7@IsSkillMot
$LN2@IsSkillMot:

; 206  : 	case SS_FIRE:
; 207  : 		if( m_dwMotionEndTime + dwActionStop > FRAMEGETTIME() )

  0001f	ff 15 00 00 00
	00		 call	 DWORD PTR __imp_?GetSingleton@ioFrameTimer@@SAAAV1@XZ
  00025	8b c8		 mov	 ecx, eax
  00027	ff 15 00 00 00
	00		 call	 DWORD PTR __imp_?GetLoopSec@ioFrameTimer@@QBEKXZ
  0002d	8b 8e d8 02 00
	00		 mov	 ecx, DWORD PTR [esi+728]
  00033	03 4d 08	 add	 ecx, DWORD PTR _dwActionStop$[ebp]
  00036	3b c1		 cmp	 eax, ecx
  00038	1a c0		 sbb	 al, al
  0003a	fe c0		 inc	 al

; 208  : 			return false;
; 209  : 
; 210  : 		return true;

  0003c	eb 02		 jmp	 SHORT $LN7@IsSkillMot
$LN3@IsSkillMot:

; 203  : 	{
; 204  : 	case SS_LOOP:
; 205  : 		return false;

  0003e	32 c0		 xor	 al, al
$LN7@IsSkillMot:
  00040	5e		 pop	 esi

; 214  : }

  00041	5d		 pop	 ebp
  00042	c2 08 00	 ret	 8
?IsSkillMotionEnd@ioTargetBuffSkill@@UBE_NKPAVioBaseChar@@@Z ENDP ; ioTargetBuffSkill::IsSkillMotionEnd
_TEXT	ENDS
PUBLIC	?IsEnableReserve@ioTargetBuffSkill@@UBE_NXZ	; ioTargetBuffSkill::IsEnableReserve
; Function compile flags: /Ogsp
;	COMDAT ?IsEnableReserve@ioTargetBuffSkill@@UBE_NXZ
_TEXT	SEGMENT
?IsEnableReserve@ioTargetBuffSkill@@UBE_NXZ PROC	; ioTargetBuffSkill::IsEnableReserve, COMDAT
; _this$ = ecx

; 218  : 	if( m_dwPreDelayStartTime != 0 )

  00000	83 b9 20 02 00
	00 00		 cmp	 DWORD PTR [ecx+544], 0
  00007	56		 push	 esi

; 219  : 		return false;

  00008	75 2c		 jne	 SHORT $LN3@IsEnableRe

; 220  : 
; 221  : 	switch( m_SkillState )

  0000a	8b 81 08 10 00
	00		 mov	 eax, DWORD PTR [ecx+4104]
  00010	48		 dec	 eax
  00011	74 23		 je	 SHORT $LN3@IsEnableRe
  00013	48		 dec	 eax
  00014	75 20		 jne	 SHORT $LN3@IsEnableRe

; 225  : 	case SS_FIRE:
; 226  : 		if( m_dwEnableReserveTime > 0 && m_dwEnableReserveTime < FRAMEGETTIME() )

  00016	8d b1 dc 02 00
	00		 lea	 esi, DWORD PTR [ecx+732]
  0001c	39 06		 cmp	 DWORD PTR [esi], eax
  0001e	76 16		 jbe	 SHORT $LN3@IsEnableRe
  00020	ff 15 00 00 00
	00		 call	 DWORD PTR __imp_?GetSingleton@ioFrameTimer@@SAAAV1@XZ
  00026	8b c8		 mov	 ecx, eax
  00028	ff 15 00 00 00
	00		 call	 DWORD PTR __imp_?GetLoopSec@ioFrameTimer@@QBEKXZ
  0002e	39 06		 cmp	 DWORD PTR [esi], eax
  00030	73 04		 jae	 SHORT $LN3@IsEnableRe

; 227  : 			return true;

  00032	b0 01		 mov	 al, 1
  00034	5e		 pop	 esi

; 228  : 
; 229  : 		break;
; 230  : 	}
; 231  : 
; 232  : 	return false;
; 233  : }

  00035	c3		 ret	 0
$LN3@IsEnableRe:

; 222  : 	{
; 223  : 	case SS_LOOP:
; 224  : 		return false;

  00036	32 c0		 xor	 al, al
  00038	5e		 pop	 esi

; 228  : 
; 229  : 		break;
; 230  : 	}
; 231  : 
; 232  : 	return false;
; 233  : }

  00039	c3		 ret	 0
?IsEnableReserve@ioTargetBuffSkill@@UBE_NXZ ENDP	; ioTargetBuffSkill::IsEnableReserve
_TEXT	ENDS
PUBLIC	?CheckUseItemMesh@ioTargetBuffSkill@@UAE_NXZ	; ioTargetBuffSkill::CheckUseItemMesh
; Function compile flags: /Ogsp
;	COMDAT ?CheckUseItemMesh@ioTargetBuffSkill@@UAE_NXZ
_TEXT	SEGMENT
?CheckUseItemMesh@ioTargetBuffSkill@@UAE_NXZ PROC	; ioTargetBuffSkill::CheckUseItemMesh, COMDAT
; _this$ = ecx

; 297  : 	return m_bUseItemMesh;

  00000	8a 81 08 0f 00
	00		 mov	 al, BYTE PTR [ecx+3848]

; 298  : }

  00006	c3		 ret	 0
?CheckUseItemMesh@ioTargetBuffSkill@@UAE_NXZ ENDP	; ioTargetBuffSkill::CheckUseItemMesh
_TEXT	ENDS
PUBLIC	?CheckExceptionCamera@ioTargetBuffSkill@@UAE_NXZ ; ioTargetBuffSkill::CheckExceptionCamera
EXTRN	__imp_?IsEmpty@ioHashString@@QBE_NXZ:PROC
; Function compile flags: /Ogsp
;	COMDAT ?CheckExceptionCamera@ioTargetBuffSkill@@UAE_NXZ
_TEXT	SEGMENT
?CheckExceptionCamera@ioTargetBuffSkill@@UAE_NXZ PROC	; ioTargetBuffSkill::CheckExceptionCamera, COMDAT
; _this$ = ecx

; 328  : 	if( !m_szTargetName.IsEmpty() )

  00000	81 c1 cc 10 00
	00		 add	 ecx, 4300		; 000010ccH
  00006	ff 15 00 00 00
	00		 call	 DWORD PTR __imp_?IsEmpty@ioHashString@@QBE_NXZ
  0000c	f6 d8		 neg	 al
  0000e	1a c0		 sbb	 al, al
  00010	fe c0		 inc	 al

; 329  : 		return true;
; 330  : 
; 331  : 	return false;
; 332  : }

  00012	c3		 ret	 0
?CheckExceptionCamera@ioTargetBuffSkill@@UAE_NXZ ENDP	; ioTargetBuffSkill::CheckExceptionCamera
_TEXT	ENDS
PUBLIC	?GetExceptionCameraPos@ioTargetBuffSkill@@UAE?AUD3DXVECTOR3@@PAVioBaseChar@@@Z ; ioTargetBuffSkill::GetExceptionCameraPos
EXTRN	?GetBaseChar@ioBaseChar@@QAEPAV1@ABVioHashString@@@Z:PROC ; ioBaseChar::GetBaseChar
EXTRN	__imp_?VEC3_ZERO@ioMath@@2UD3DXVECTOR3@@A:BYTE
; Function compile flags: /Ogsp
;	COMDAT ?GetExceptionCameraPos@ioTargetBuffSkill@@UAE?AUD3DXVECTOR3@@PAVioBaseChar@@@Z
_TEXT	SEGMENT
___$ReturnUdt$ = 8					; size = 4
_pChar$ = 12						; size = 4
?GetExceptionCameraPos@ioTargetBuffSkill@@UAE?AUD3DXVECTOR3@@PAVioBaseChar@@@Z PROC ; ioTargetBuffSkill::GetExceptionCameraPos, COMDAT
; _this$ = ecx

; 335  : {

  00000	55		 push	 ebp
  00001	8b ec		 mov	 ebp, esp
  00003	56		 push	 esi

; 336  : 	if( !pChar )

  00004	8b 75 0c	 mov	 esi, DWORD PTR _pChar$[ebp]
  00007	57		 push	 edi
  00008	85 f6		 test	 esi, esi
  0000a	75 08		 jne	 SHORT $LN2@GetExcepti

; 337  : 		return ioMath::VEC3_ZERO;

  0000c	8b 35 00 00 00
	00		 mov	 esi, DWORD PTR __imp_?VEC3_ZERO@ioMath@@2UD3DXVECTOR3@@A
  00012	eb 24		 jmp	 SHORT $LN5@GetExcepti
$LN2@GetExcepti:

; 338  : 
; 339  : 	ioBaseChar *pTarget = pChar->GetBaseChar( m_szTargetName );

  00014	81 c1 cc 10 00
	00		 add	 ecx, 4300		; 000010ccH
  0001a	51		 push	 ecx
  0001b	8b ce		 mov	 ecx, esi
  0001d	e8 00 00 00 00	 call	 ?GetBaseChar@ioBaseChar@@QAEPAV1@ABVioHashString@@@Z ; ioBaseChar::GetBaseChar

; 340  : 	if( pTarget )

  00022	85 c0		 test	 eax, eax
  00024	74 09		 je	 SHORT $LN1@GetExcepti

; 341  : 	{
; 342  : 		return pTarget->GetWorldPosition();

  00026	8b 10		 mov	 edx, DWORD PTR [eax]
  00028	8b c8		 mov	 ecx, eax
  0002a	ff 52 70	 call	 DWORD PTR [edx+112]
  0002d	eb 07		 jmp	 SHORT $LN6@GetExcepti
$LN1@GetExcepti:

; 343  : 	}
; 344  : 
; 345  : 	return pChar->GetWorldPosition();

  0002f	8b 06		 mov	 eax, DWORD PTR [esi]
  00031	8b ce		 mov	 ecx, esi
  00033	ff 50 70	 call	 DWORD PTR [eax+112]
$LN6@GetExcepti:
  00036	8b f0		 mov	 esi, eax
$LN5@GetExcepti:
  00038	8b 45 08	 mov	 eax, DWORD PTR ___$ReturnUdt$[ebp]
  0003b	8b f8		 mov	 edi, eax
  0003d	a5		 movsd
  0003e	a5		 movsd
  0003f	a5		 movsd
  00040	5f		 pop	 edi
  00041	5e		 pop	 esi

; 346  : }

  00042	5d		 pop	 ebp
  00043	c2 08 00	 ret	 8
?GetExceptionCameraPos@ioTargetBuffSkill@@UAE?AUD3DXVECTOR3@@PAVioBaseChar@@@Z ENDP ; ioTargetBuffSkill::GetExceptionCameraPos
_TEXT	ENDS
PUBLIC	?CheckKeyInput@ioTargetBuffSkill@@IAEXPAVioBaseChar@@@Z ; ioTargetBuffSkill::CheckKeyInput
EXTRN	?IsDefenseKey@ioBaseChar@@QBE_NXZ:PROC		; ioBaseChar::IsDefenseKey
EXTRN	?IsJumpKey@ioBaseChar@@QBE_NXZ:PROC		; ioBaseChar::IsJumpKey
; Function compile flags: /Ogsp
;	COMDAT ?CheckKeyInput@ioTargetBuffSkill@@IAEXPAVioBaseChar@@@Z
_TEXT	SEGMENT
_pOwner$ = 8						; size = 4
?CheckKeyInput@ioTargetBuffSkill@@IAEXPAVioBaseChar@@@Z PROC ; ioTargetBuffSkill::CheckKeyInput, COMDAT
; _this$ = ecx

; 349  : {

  00000	55		 push	 ebp
  00001	8b ec		 mov	 ebp, esp
  00003	53		 push	 ebx

; 350  : 	if( !pOwner ) return;

  00004	33 db		 xor	 ebx, ebx
  00006	56		 push	 esi
  00007	8b f1		 mov	 esi, ecx
  00009	39 5d 08	 cmp	 DWORD PTR _pOwner$[ebp], ebx
  0000c	74 35		 je	 SHORT $LN1@CheckKeyIn

; 351  : 
; 352  : 	if( pOwner->IsJumpKey() )

  0000e	8b 4d 08	 mov	 ecx, DWORD PTR _pOwner$[ebp]
  00011	e8 00 00 00 00	 call	 ?IsJumpKey@ioBaseChar@@QBE_NXZ ; ioBaseChar::IsJumpKey
  00016	84 c0		 test	 al, al
  00018	74 0b		 je	 SHORT $LN4@CheckKeyIn

; 353  : 	{
; 354  : 		m_bJumpKey = true;

  0001a	66 c7 86 dc 10
	00 00 01 00	 mov	 WORD PTR [esi+4316], 1

; 355  : 		m_bDefenseKey = false;

  00023	eb 1e		 jmp	 SHORT $LN1@CheckKeyIn
$LN4@CheckKeyIn:

; 356  : 	}
; 357  : 	else if( pOwner->IsDefenseKey() )

  00025	8b 4d 08	 mov	 ecx, DWORD PTR _pOwner$[ebp]
  00028	e8 00 00 00 00	 call	 ?IsDefenseKey@ioBaseChar@@QBE_NXZ ; ioBaseChar::IsDefenseKey
  0002d	84 c0		 test	 al, al
  0002f	74 0b		 je	 SHORT $LN2@CheckKeyIn

; 358  : 	{
; 359  : 		m_bJumpKey = false;

  00031	66 c7 86 dc 10
	00 00 00 01	 mov	 WORD PTR [esi+4316], 256 ; 00000100H

; 360  : 		m_bDefenseKey = true;
; 361  : 	}
; 362  : 	else

  0003a	eb 07		 jmp	 SHORT $LN1@CheckKeyIn
$LN2@CheckKeyIn:

; 363  : 	{
; 364  : 		m_bJumpKey = false;

  0003c	66 89 9e dc 10
	00 00		 mov	 WORD PTR [esi+4316], bx
$LN1@CheckKeyIn:
  00043	5e		 pop	 esi
  00044	5b		 pop	 ebx

; 365  : 		m_bDefenseKey = false;
; 366  : 	}
; 367  : }

  00045	5d		 pop	 ebp
  00046	c2 04 00	 ret	 4
?CheckKeyInput@ioTargetBuffSkill@@IAEXPAVioBaseChar@@@Z ENDP ; ioTargetBuffSkill::CheckKeyInput
_TEXT	ENDS
PUBLIC	??1tagBaseCharDistanceSq@@QAE@XZ		; tagBaseCharDistanceSq::~tagBaseCharDistanceSq
EXTRN	__imp_??1ioHashString@@QAE@XZ:PROC
; Function compile flags: /Ogsp
;	COMDAT ??1tagBaseCharDistanceSq@@QAE@XZ
_TEXT	SEGMENT
??1tagBaseCharDistanceSq@@QAE@XZ PROC			; tagBaseCharDistanceSq::~tagBaseCharDistanceSq, COMDAT
; _this$ = ecx
  00000	ff 25 00 00 00
	00		 jmp	 DWORD PTR __imp_??1ioHashString@@QAE@XZ
??1tagBaseCharDistanceSq@@QAE@XZ ENDP			; tagBaseCharDistanceSq::~tagBaseCharDistanceSq
_TEXT	ENDS
PUBLIC	?DestroyAimMark@ioTargetBuffSkill@@IAEXPAVioBaseChar@@@Z ; ioTargetBuffSkill::DestroyAimMark
EXTRN	?DestroyMapEffect@ioBaseChar@@QAEXK@Z:PROC	; ioBaseChar::DestroyMapEffect
; Function compile flags: /Ogsp
;	COMDAT ?DestroyAimMark@ioTargetBuffSkill@@IAEXPAVioBaseChar@@@Z
_TEXT	SEGMENT
_pChar$ = 8						; size = 4
?DestroyAimMark@ioTargetBuffSkill@@IAEXPAVioBaseChar@@@Z PROC ; ioTargetBuffSkill::DestroyAimMark, COMDAT
; _this$ = ecx

; 529  : {

  00000	55		 push	 ebp
  00001	8b ec		 mov	 ebp, esp
  00003	56		 push	 esi
  00004	57		 push	 edi

; 530  : 	if( !pChar )	return;

  00005	8b 7d 08	 mov	 edi, DWORD PTR _pChar$[ebp]
  00008	8b f1		 mov	 esi, ecx
  0000a	85 ff		 test	 edi, edi
  0000c	74 28		 je	 SHORT $LN1@DestroyAim

; 531  : 
; 532  : 	if( !pChar->IsNeedProcess() )

  0000e	8b 07		 mov	 eax, DWORD PTR [edi]
  00010	8b cf		 mov	 ecx, edi
  00012	ff 90 00 01 00
	00		 call	 DWORD PTR [eax+256]
  00018	84 c0		 test	 al, al
  0001a	74 1a		 je	 SHORT $LN1@DestroyAim

; 533  : 		return;
; 534  : 
; 535  : 	if( m_dwAimMarkID != -1 )

  0001c	8b 86 c8 10 00
	00		 mov	 eax, DWORD PTR [esi+4296]
  00022	83 f8 ff	 cmp	 eax, -1
  00025	74 0f		 je	 SHORT $LN1@DestroyAim

; 536  : 	{
; 537  : 		pChar->DestroyMapEffect( m_dwAimMarkID );

  00027	50		 push	 eax
  00028	8b cf		 mov	 ecx, edi
  0002a	e8 00 00 00 00	 call	 ?DestroyMapEffect@ioBaseChar@@QAEXK@Z ; ioBaseChar::DestroyMapEffect

; 538  : 		m_dwAimMarkID = -1;

  0002f	83 8e c8 10 00
	00 ff		 or	 DWORD PTR [esi+4296], -1
$LN1@DestroyAim:
  00036	5f		 pop	 edi
  00037	5e		 pop	 esi

; 539  : 	}
; 540  : }

  00038	5d		 pop	 ebp
  00039	c2 04 00	 ret	 4
?DestroyAimMark@ioTargetBuffSkill@@IAEXPAVioBaseChar@@@Z ENDP ; ioTargetBuffSkill::DestroyAimMark
_TEXT	ENDS
PUBLIC	??A?$vector@UBuffInfoStruct@@V?$allocator@UBuffInfoStruct@@@std@@@std@@QAEAAUBuffInfoStruct@@I@Z ; std::vector<BuffInfoStruct,std::allocator<BuffInfoStruct> >::operator[]
; Function compile flags: /Ogsp
; File c:\program files (x86)\microsoft visual studio 10.0\vc\include\vector
;	COMDAT ??A?$vector@UBuffInfoStruct@@V?$allocator@UBuffInfoStruct@@@std@@@std@@QAEAAUBuffInfoStruct@@I@Z
_TEXT	SEGMENT
__Pos$ = 8						; size = 4
??A?$vector@UBuffInfoStruct@@V?$allocator@UBuffInfoStruct@@@std@@@std@@QAEAAUBuffInfoStruct@@I@Z PROC ; std::vector<BuffInfoStruct,std::allocator<BuffInfoStruct> >::operator[], COMDAT
; _this$ = ecx

; 928  : 		{	// subscript mutable sequence

  00000	55		 push	 ebp
  00001	8b ec		 mov	 ebp, esp

; 929  :  #if _ITERATOR_DEBUG_LEVEL == 2
; 930  : 		if (size() <= _Pos)
; 931  : 			{	// report error
; 932  : 			_DEBUG_ERROR("vector subscript out of range");
; 933  : 			_SCL_SECURE_OUT_OF_RANGE;
; 934  : 			}
; 935  : 
; 936  :  #elif _ITERATOR_DEBUG_LEVEL == 1
; 937  : 		_SCL_SECURE_VALIDATE_RANGE(_Pos < size());
; 938  :  #endif /* _ITERATOR_DEBUG_LEVEL */
; 939  : 
; 940  : 		return (*(this->_Myfirst + _Pos));

  00003	8b 45 08	 mov	 eax, DWORD PTR __Pos$[ebp]
  00006	6b c0 14	 imul	 eax, 20			; 00000014H
  00009	03 01		 add	 eax, DWORD PTR [ecx]

; 941  : 		}

  0000b	5d		 pop	 ebp
  0000c	c2 04 00	 ret	 4
??A?$vector@UBuffInfoStruct@@V?$allocator@UBuffInfoStruct@@@std@@@std@@QAEAAUBuffInfoStruct@@I@Z ENDP ; std::vector<BuffInfoStruct,std::allocator<BuffInfoStruct> >::operator[]
_TEXT	ENDS
PUBLIC	?size@?$vector@UtagBaseCharDistanceSq@@V?$allocator@UtagBaseCharDistanceSq@@@std@@@std@@QBEIXZ ; std::vector<tagBaseCharDistanceSq,std::allocator<tagBaseCharDistanceSq> >::size
; Function compile flags: /Ogsp
;	COMDAT ?size@?$vector@UtagBaseCharDistanceSq@@V?$allocator@UtagBaseCharDistanceSq@@@std@@@std@@QBEIXZ
_TEXT	SEGMENT
?size@?$vector@UtagBaseCharDistanceSq@@V?$allocator@UtagBaseCharDistanceSq@@@std@@@std@@QBEIXZ PROC ; std::vector<tagBaseCharDistanceSq,std::allocator<tagBaseCharDistanceSq> >::size, COMDAT
; _this$ = ecx

; 879  : 		return (this->_Mylast - this->_Myfirst);

  00000	8b 41 04	 mov	 eax, DWORD PTR [ecx+4]
  00003	2b 01		 sub	 eax, DWORD PTR [ecx]
  00005	c1 f8 05	 sar	 eax, 5

; 880  : 		}

  00008	c3		 ret	 0
?size@?$vector@UtagBaseCharDistanceSq@@V?$allocator@UtagBaseCharDistanceSq@@@std@@@std@@QBEIXZ ENDP ; std::vector<tagBaseCharDistanceSq,std::allocator<tagBaseCharDistanceSq> >::size
_TEXT	ENDS
PUBLIC	?empty@?$vector@UtagBaseCharDistanceSq@@V?$allocator@UtagBaseCharDistanceSq@@@std@@@std@@QBE_NXZ ; std::vector<tagBaseCharDistanceSq,std::allocator<tagBaseCharDistanceSq> >::empty
; Function compile flags: /Ogsp
;	COMDAT ?empty@?$vector@UtagBaseCharDistanceSq@@V?$allocator@UtagBaseCharDistanceSq@@@std@@@std@@QBE_NXZ
_TEXT	SEGMENT
?empty@?$vector@UtagBaseCharDistanceSq@@V?$allocator@UtagBaseCharDistanceSq@@@std@@@std@@QBE_NXZ PROC ; std::vector<tagBaseCharDistanceSq,std::allocator<tagBaseCharDistanceSq> >::empty, COMDAT
; _this$ = ecx

; 889  : 		return (this->_Myfirst == this->_Mylast);

  00000	8b 01		 mov	 eax, DWORD PTR [ecx]
  00002	2b 41 04	 sub	 eax, DWORD PTR [ecx+4]
  00005	f7 d8		 neg	 eax
  00007	1b c0		 sbb	 eax, eax
  00009	40		 inc	 eax

; 890  : 		}

  0000a	c3		 ret	 0
?empty@?$vector@UtagBaseCharDistanceSq@@V?$allocator@UtagBaseCharDistanceSq@@@std@@@std@@QBE_NXZ ENDP ; std::vector<tagBaseCharDistanceSq,std::allocator<tagBaseCharDistanceSq> >::empty
_TEXT	ENDS
PUBLIC	??A?$vector@UtagBaseCharDistanceSq@@V?$allocator@UtagBaseCharDistanceSq@@@std@@@std@@QAEAAUtagBaseCharDistanceSq@@I@Z ; std::vector<tagBaseCharDistanceSq,std::allocator<tagBaseCharDistanceSq> >::operator[]
; Function compile flags: /Ogsp
;	COMDAT ??A?$vector@UtagBaseCharDistanceSq@@V?$allocator@UtagBaseCharDistanceSq@@@std@@@std@@QAEAAUtagBaseCharDistanceSq@@I@Z
_TEXT	SEGMENT
__Pos$ = 8						; size = 4
??A?$vector@UtagBaseCharDistanceSq@@V?$allocator@UtagBaseCharDistanceSq@@@std@@@std@@QAEAAUtagBaseCharDistanceSq@@I@Z PROC ; std::vector<tagBaseCharDistanceSq,std::allocator<tagBaseCharDistanceSq> >::operator[], COMDAT
; _this$ = ecx

; 928  : 		{	// subscript mutable sequence

  00000	55		 push	 ebp
  00001	8b ec		 mov	 ebp, esp

; 929  :  #if _ITERATOR_DEBUG_LEVEL == 2
; 930  : 		if (size() <= _Pos)
; 931  : 			{	// report error
; 932  : 			_DEBUG_ERROR("vector subscript out of range");
; 933  : 			_SCL_SECURE_OUT_OF_RANGE;
; 934  : 			}
; 935  : 
; 936  :  #elif _ITERATOR_DEBUG_LEVEL == 1
; 937  : 		_SCL_SECURE_VALIDATE_RANGE(_Pos < size());
; 938  :  #endif /* _ITERATOR_DEBUG_LEVEL */
; 939  : 
; 940  : 		return (*(this->_Myfirst + _Pos));

  00003	8b 45 08	 mov	 eax, DWORD PTR __Pos$[ebp]
  00006	c1 e0 05	 shl	 eax, 5
  00009	03 01		 add	 eax, DWORD PTR [ecx]

; 941  : 		}

  0000b	5d		 pop	 ebp
  0000c	c2 04 00	 ret	 4
??A?$vector@UtagBaseCharDistanceSq@@V?$allocator@UtagBaseCharDistanceSq@@@std@@@std@@QAEAAUtagBaseCharDistanceSq@@I@Z ENDP ; std::vector<tagBaseCharDistanceSq,std::allocator<tagBaseCharDistanceSq> >::operator[]
_TEXT	ENDS
PUBLIC	??0?$_Vector_const_iterator@V?$_Vector_val@PAVioBaseChar@@V?$allocator@PAVioBaseChar@@@std@@@std@@@std@@QAE@XZ ; std::_Vector_const_iterator<std::_Vector_val<ioBaseChar *,std::allocator<ioBaseChar *> > >::_Vector_const_iterator<std::_Vector_val<ioBaseChar *,std::allocator<ioBaseChar *> > >
; Function compile flags: /Ogsp
;	COMDAT ??0?$_Vector_const_iterator@V?$_Vector_val@PAVioBaseChar@@V?$allocator@PAVioBaseChar@@@std@@@std@@@std@@QAE@XZ
_TEXT	SEGMENT
??0?$_Vector_const_iterator@V?$_Vector_val@PAVioBaseChar@@V?$allocator@PAVioBaseChar@@@std@@@std@@@std@@QAE@XZ PROC ; std::_Vector_const_iterator<std::_Vector_val<ioBaseChar *,std::allocator<ioBaseChar *> > >::_Vector_const_iterator<std::_Vector_val<ioBaseChar *,std::allocator<ioBaseChar *> > >, COMDAT
; _this$ = ecx

; 40   : 		{	// construct with null pointer

  00000	8b c1		 mov	 eax, ecx
  00002	83 20 00	 and	 DWORD PTR [eax], 0

; 41   : 		}

  00005	c3		 ret	 0
??0?$_Vector_const_iterator@V?$_Vector_val@PAVioBaseChar@@V?$allocator@PAVioBaseChar@@@std@@@std@@@std@@QAE@XZ ENDP ; std::_Vector_const_iterator<std::_Vector_val<ioBaseChar *,std::allocator<ioBaseChar *> > >::_Vector_const_iterator<std::_Vector_val<ioBaseChar *,std::allocator<ioBaseChar *> > >
_TEXT	ENDS
PUBLIC	??D?$_Vector_const_iterator@V?$_Vector_val@PAVioBaseChar@@V?$allocator@PAVioBaseChar@@@std@@@std@@@std@@QBEABQAVioBaseChar@@XZ ; std::_Vector_const_iterator<std::_Vector_val<ioBaseChar *,std::allocator<ioBaseChar *> > >::operator*
; Function compile flags: /Ogsp
;	COMDAT ??D?$_Vector_const_iterator@V?$_Vector_val@PAVioBaseChar@@V?$allocator@PAVioBaseChar@@@std@@@std@@@std@@QBEABQAVioBaseChar@@XZ
_TEXT	SEGMENT
??D?$_Vector_const_iterator@V?$_Vector_val@PAVioBaseChar@@V?$allocator@PAVioBaseChar@@@std@@@std@@@std@@QBEABQAVioBaseChar@@XZ PROC ; std::_Vector_const_iterator<std::_Vector_val<ioBaseChar *,std::allocator<ioBaseChar *> > >::operator*, COMDAT
; _this$ = ecx

; 64   :  #if _ITERATOR_DEBUG_LEVEL == 2
; 65   : 		if (this->_Getcont() == 0
; 66   : 			|| this->_Ptr == 0
; 67   : 			|| this->_Ptr < ((_Myvec *)this->_Getcont())->_Myfirst
; 68   : 			|| ((_Myvec *)this->_Getcont())->_Mylast <= this->_Ptr)
; 69   : 			{	// report error
; 70   : 			_DEBUG_ERROR("vector iterator not dereferencable");
; 71   : 			_SCL_SECURE_OUT_OF_RANGE;
; 72   : 			}
; 73   : 
; 74   :  #elif _ITERATOR_DEBUG_LEVEL == 1
; 75   : 		_SCL_SECURE_VALIDATE(this->_Getcont() != 0);
; 76   : 		_SCL_SECURE_VALIDATE_RANGE(
; 77   : 			this->_Ptr != 0
; 78   : 			&& ((_Myvec *)this->_Getcont())->_Myfirst <= this->_Ptr
; 79   : 			&& this->_Ptr < ((_Myvec *)this->_Getcont())->_Mylast);
; 80   :  #endif /* _ITERATOR_DEBUG_LEVEL */
; 81   : 
; 82   : 		__analysis_assume(this->_Ptr != 0);
; 83   : 
; 84   : 		return (*this->_Ptr);

  00000	8b 01		 mov	 eax, DWORD PTR [ecx]

; 85   : 		}

  00002	c3		 ret	 0
??D?$_Vector_const_iterator@V?$_Vector_val@PAVioBaseChar@@V?$allocator@PAVioBaseChar@@@std@@@std@@@std@@QBEABQAVioBaseChar@@XZ ENDP ; std::_Vector_const_iterator<std::_Vector_val<ioBaseChar *,std::allocator<ioBaseChar *> > >::operator*
_TEXT	ENDS
PUBLIC	??E?$_Vector_const_iterator@V?$_Vector_val@PAVioBaseChar@@V?$allocator@PAVioBaseChar@@@std@@@std@@@std@@QAEAAV01@XZ ; std::_Vector_const_iterator<std::_Vector_val<ioBaseChar *,std::allocator<ioBaseChar *> > >::operator++
; Function compile flags: /Ogsp
;	COMDAT ??E?$_Vector_const_iterator@V?$_Vector_val@PAVioBaseChar@@V?$allocator@PAVioBaseChar@@@std@@@std@@@std@@QAEAAV01@XZ
_TEXT	SEGMENT
??E?$_Vector_const_iterator@V?$_Vector_val@PAVioBaseChar@@V?$allocator@PAVioBaseChar@@@std@@@std@@@std@@QAEAAV01@XZ PROC ; std::_Vector_const_iterator<std::_Vector_val<ioBaseChar *,std::allocator<ioBaseChar *> > >::operator++, COMDAT
; _this$ = ecx

; 93   : 		{	// preincrement

  00000	8b c1		 mov	 eax, ecx

; 94   :  #if _ITERATOR_DEBUG_LEVEL == 2
; 95   : 		if (this->_Getcont() == 0
; 96   : 			|| this->_Ptr == 0
; 97   : 			|| ((_Myvec *)this->_Getcont())->_Mylast <= this->_Ptr)
; 98   : 			{	// report error
; 99   : 			_DEBUG_ERROR("vector iterator not incrementable");
; 100  : 			_SCL_SECURE_OUT_OF_RANGE;
; 101  : 			}
; 102  : 
; 103  :  #elif _ITERATOR_DEBUG_LEVEL == 1
; 104  : 		_SCL_SECURE_VALIDATE(this->_Getcont() != 0);
; 105  : 		_SCL_SECURE_VALIDATE_RANGE(
; 106  : 			this->_Ptr != 0
; 107  : 			&& this->_Ptr < ((_Myvec *)this->_Getcont())->_Mylast);
; 108  :  #endif /* _ITERATOR_DEBUG_LEVEL */
; 109  : 
; 110  : 		++this->_Ptr;

  00002	83 00 04	 add	 DWORD PTR [eax], 4

; 111  : 		return (*this);
; 112  : 		}

  00005	c3		 ret	 0
??E?$_Vector_const_iterator@V?$_Vector_val@PAVioBaseChar@@V?$allocator@PAVioBaseChar@@@std@@@std@@@std@@QAEAAV01@XZ ENDP ; std::_Vector_const_iterator<std::_Vector_val<ioBaseChar *,std::allocator<ioBaseChar *> > >::operator++
_TEXT	ENDS
PUBLIC	?_Inside@?$vector@UtagBaseCharDistanceSq@@V?$allocator@UtagBaseCharDistanceSq@@@std@@@std@@IBE_NPBUtagBaseCharDistanceSq@@@Z ; std::vector<tagBaseCharDistanceSq,std::allocator<tagBaseCharDistanceSq> >::_Inside
; Function compile flags: /Ogsp
;	COMDAT ?_Inside@?$vector@UtagBaseCharDistanceSq@@V?$allocator@UtagBaseCharDistanceSq@@@std@@@std@@IBE_NPBUtagBaseCharDistanceSq@@@Z
_TEXT	SEGMENT
__Ptr$ = 8						; size = 4
?_Inside@?$vector@UtagBaseCharDistanceSq@@V?$allocator@UtagBaseCharDistanceSq@@@std@@@std@@IBE_NPBUtagBaseCharDistanceSq@@@Z PROC ; std::vector<tagBaseCharDistanceSq,std::allocator<tagBaseCharDistanceSq> >::_Inside, COMDAT
; _this$ = ecx

; 1285 : 		{	// test if _Ptr points inside vector

  00000	55		 push	 ebp
  00001	8b ec		 mov	 ebp, esp

; 1286 : 		return (_Ptr < this->_Mylast && this->_Myfirst <= _Ptr);

  00003	8b 45 08	 mov	 eax, DWORD PTR __Ptr$[ebp]
  00006	3b 41 04	 cmp	 eax, DWORD PTR [ecx+4]
  00009	73 09		 jae	 SHORT $LN3@Inside
  0000b	39 01		 cmp	 DWORD PTR [ecx], eax
  0000d	77 05		 ja	 SHORT $LN3@Inside
  0000f	33 c0		 xor	 eax, eax
  00011	40		 inc	 eax
  00012	eb 02		 jmp	 SHORT $LN4@Inside
$LN3@Inside:
  00014	33 c0		 xor	 eax, eax
$LN4@Inside:

; 1287 : 		}

  00016	5d		 pop	 ebp
  00017	c2 04 00	 ret	 4
?_Inside@?$vector@UtagBaseCharDistanceSq@@V?$allocator@UtagBaseCharDistanceSq@@@std@@@std@@IBE_NPBUtagBaseCharDistanceSq@@@Z ENDP ; std::vector<tagBaseCharDistanceSq,std::allocator<tagBaseCharDistanceSq> >::_Inside
_TEXT	ENDS
PUBLIC	?_Orphan_range@?$vector@UtagBaseCharDistanceSq@@V?$allocator@UtagBaseCharDistanceSq@@@std@@@std@@IBEXPAUtagBaseCharDistanceSq@@0@Z ; std::vector<tagBaseCharDistanceSq,std::allocator<tagBaseCharDistanceSq> >::_Orphan_range
; Function compile flags: /Ogsp
;	COMDAT ?_Orphan_range@?$vector@UtagBaseCharDistanceSq@@V?$allocator@UtagBaseCharDistanceSq@@@std@@@std@@IBEXPAUtagBaseCharDistanceSq@@0@Z
_TEXT	SEGMENT
___formal$ = 8						; size = 4
___formal$ = 12						; size = 4
?_Orphan_range@?$vector@UtagBaseCharDistanceSq@@V?$allocator@UtagBaseCharDistanceSq@@@std@@@std@@IBEXPAUtagBaseCharDistanceSq@@0@Z PROC ; std::vector<tagBaseCharDistanceSq,std::allocator<tagBaseCharDistanceSq> >::_Orphan_range, COMDAT
; _this$ = ecx

; 1454 : 		}

  00000	c2 08 00	 ret	 8
?_Orphan_range@?$vector@UtagBaseCharDistanceSq@@V?$allocator@UtagBaseCharDistanceSq@@@std@@@std@@IBEXPAUtagBaseCharDistanceSq@@0@Z ENDP ; std::vector<tagBaseCharDistanceSq,std::allocator<tagBaseCharDistanceSq> >::_Orphan_range
_TEXT	ENDS
PUBLIC	??1?$_Vector_val@UtagBaseCharDistanceSq@@V?$allocator@UtagBaseCharDistanceSq@@@std@@@std@@QAE@XZ ; std::_Vector_val<tagBaseCharDistanceSq,std::allocator<tagBaseCharDistanceSq> >::~_Vector_val<tagBaseCharDistanceSq,std::allocator<tagBaseCharDistanceSq> >
; Function compile flags: /Ogsp
;	COMDAT ??1?$_Vector_val@UtagBaseCharDistanceSq@@V?$allocator@UtagBaseCharDistanceSq@@@std@@@std@@QAE@XZ
_TEXT	SEGMENT
??1?$_Vector_val@UtagBaseCharDistanceSq@@V?$allocator@UtagBaseCharDistanceSq@@@std@@@std@@QAE@XZ PROC ; std::_Vector_val<tagBaseCharDistanceSq,std::allocator<tagBaseCharDistanceSq> >::~_Vector_val<tagBaseCharDistanceSq,std::allocator<tagBaseCharDistanceSq> >, COMDAT
; _this$ = ecx

; 434  : 		}

  00000	c3		 ret	 0
??1?$_Vector_val@UtagBaseCharDistanceSq@@V?$allocator@UtagBaseCharDistanceSq@@@std@@@std@@QAE@XZ ENDP ; std::_Vector_val<tagBaseCharDistanceSq,std::allocator<tagBaseCharDistanceSq> >::~_Vector_val<tagBaseCharDistanceSq,std::allocator<tagBaseCharDistanceSq> >
_TEXT	ENDS
PUBLIC	??0?$allocator@UtagBaseCharDistanceSq@@@std@@QAE@XZ ; std::allocator<tagBaseCharDistanceSq>::allocator<tagBaseCharDistanceSq>
; Function compile flags: /Ogsp
; File c:\program files (x86)\microsoft visual studio 10.0\vc\include\xmemory
;	COMDAT ??0?$allocator@UtagBaseCharDistanceSq@@@std@@QAE@XZ
_TEXT	SEGMENT
??0?$allocator@UtagBaseCharDistanceSq@@@std@@QAE@XZ PROC ; std::allocator<tagBaseCharDistanceSq>::allocator<tagBaseCharDistanceSq>, COMDAT
; _this$ = ecx

; 161  : 	_ALLOCATOR() _THROW0()

  00000	8b c1		 mov	 eax, ecx

; 162  : 		{	// construct default allocator (do nothing)
; 163  : 		}

  00002	c3		 ret	 0
??0?$allocator@UtagBaseCharDistanceSq@@@std@@QAE@XZ ENDP ; std::allocator<tagBaseCharDistanceSq>::allocator<tagBaseCharDistanceSq>
_TEXT	ENDS
PUBLIC	??0?$_Vector_const_iterator@V?$_Vector_val@PAVioBaseChar@@V?$allocator@PAVioBaseChar@@@std@@@std@@@std@@QAE@PAPAVioBaseChar@@PBU_Container_base0@1@@Z ; std::_Vector_const_iterator<std::_Vector_val<ioBaseChar *,std::allocator<ioBaseChar *> > >::_Vector_const_iterator<std::_Vector_val<ioBaseChar *,std::allocator<ioBaseChar *> > >
; Function compile flags: /Ogsp
; File c:\program files (x86)\microsoft visual studio 10.0\vc\include\vector
;	COMDAT ??0?$_Vector_const_iterator@V?$_Vector_val@PAVioBaseChar@@V?$allocator@PAVioBaseChar@@@std@@@std@@@std@@QAE@PAPAVioBaseChar@@PBU_Container_base0@1@@Z
_TEXT	SEGMENT
__Parg$ = 8						; size = 4
__Pvector$ = 12						; size = 4
??0?$_Vector_const_iterator@V?$_Vector_val@PAVioBaseChar@@V?$allocator@PAVioBaseChar@@@std@@@std@@@std@@QAE@PAPAVioBaseChar@@PBU_Container_base0@1@@Z PROC ; std::_Vector_const_iterator<std::_Vector_val<ioBaseChar *,std::allocator<ioBaseChar *> > >::_Vector_const_iterator<std::_Vector_val<ioBaseChar *,std::allocator<ioBaseChar *> > >, COMDAT
; _this$ = ecx

; 45   : 		{	// construct with pointer _Parg

  00000	55		 push	 ebp
  00001	8b ec		 mov	 ebp, esp
  00003	8b c1		 mov	 eax, ecx
  00005	8b 4d 08	 mov	 ecx, DWORD PTR __Parg$[ebp]
  00008	89 08		 mov	 DWORD PTR [eax], ecx

; 46   : 		this->_Adopt(_Pvector);
; 47   : 		}

  0000a	5d		 pop	 ebp
  0000b	c2 08 00	 ret	 8
??0?$_Vector_const_iterator@V?$_Vector_val@PAVioBaseChar@@V?$allocator@PAVioBaseChar@@@std@@@std@@@std@@QAE@PAPAVioBaseChar@@PBU_Container_base0@1@@Z ENDP ; std::_Vector_const_iterator<std::_Vector_val<ioBaseChar *,std::allocator<ioBaseChar *> > >::_Vector_const_iterator<std::_Vector_val<ioBaseChar *,std::allocator<ioBaseChar *> > >
_TEXT	ENDS
PUBLIC	?capacity@?$vector@UtagBaseCharDistanceSq@@V?$allocator@UtagBaseCharDistanceSq@@@std@@@std@@QBEIXZ ; std::vector<tagBaseCharDistanceSq,std::allocator<tagBaseCharDistanceSq> >::capacity
; Function compile flags: /Ogsp
;	COMDAT ?capacity@?$vector@UtagBaseCharDistanceSq@@V?$allocator@UtagBaseCharDistanceSq@@@std@@@std@@QBEIXZ
_TEXT	SEGMENT
?capacity@?$vector@UtagBaseCharDistanceSq@@V?$allocator@UtagBaseCharDistanceSq@@@std@@@std@@QBEIXZ PROC ; std::vector<tagBaseCharDistanceSq,std::allocator<tagBaseCharDistanceSq> >::capacity, COMDAT
; _this$ = ecx

; 777  : 		return (this->_Myend - this->_Myfirst);

  00000	8b 41 08	 mov	 eax, DWORD PTR [ecx+8]
  00003	2b 01		 sub	 eax, DWORD PTR [ecx]
  00005	c1 f8 05	 sar	 eax, 5

; 778  : 		}

  00008	c3		 ret	 0
?capacity@?$vector@UtagBaseCharDistanceSq@@V?$allocator@UtagBaseCharDistanceSq@@@std@@@std@@QBEIXZ ENDP ; std::vector<tagBaseCharDistanceSq,std::allocator<tagBaseCharDistanceSq> >::capacity
_TEXT	ENDS
PUBLIC	??_C@_0BD@OLBABOEK@vector?$DMT?$DO?5too?5long?$AA@ ; `string'
PUBLIC	?_Xlen@?$vector@UtagBaseCharDistanceSq@@V?$allocator@UtagBaseCharDistanceSq@@@std@@@std@@IBEXXZ ; std::vector<tagBaseCharDistanceSq,std::allocator<tagBaseCharDistanceSq> >::_Xlen
EXTRN	__imp_?_Xlength_error@std@@YAXPBD@Z:PROC
;	COMDAT ??_C@_0BD@OLBABOEK@vector?$DMT?$DO?5too?5long?$AA@
CONST	SEGMENT
??_C@_0BD@OLBABOEK@vector?$DMT?$DO?5too?5long?$AA@ DB 'vector<T> too long'
	DB	00H						; `string'
; Function compile flags: /Ogsp
CONST	ENDS
;	COMDAT ?_Xlen@?$vector@UtagBaseCharDistanceSq@@V?$allocator@UtagBaseCharDistanceSq@@@std@@@std@@IBEXXZ
_TEXT	SEGMENT
?_Xlen@?$vector@UtagBaseCharDistanceSq@@V?$allocator@UtagBaseCharDistanceSq@@@std@@@std@@IBEXXZ PROC ; std::vector<tagBaseCharDistanceSq,std::allocator<tagBaseCharDistanceSq> >::_Xlen, COMDAT
; _this$ = ecx

; 1427 : 		_Xlength_error("vector<T> too long");

  00000	68 00 00 00 00	 push	 OFFSET ??_C@_0BD@OLBABOEK@vector?$DMT?$DO?5too?5long?$AA@
  00005	ff 15 00 00 00
	00		 call	 DWORD PTR __imp_?_Xlength_error@std@@YAXPBD@Z
$LN4@Xlen:
$LN3@Xlen:
  0000b	cc		 int	 3
?_Xlen@?$vector@UtagBaseCharDistanceSq@@V?$allocator@UtagBaseCharDistanceSq@@@std@@@std@@IBEXXZ ENDP ; std::vector<tagBaseCharDistanceSq,std::allocator<tagBaseCharDistanceSq> >::_Xlen
_TEXT	ENDS
PUBLIC	??0?$allocator@UtagBaseCharDistanceSq@@@std@@QAE@ABV01@@Z ; std::allocator<tagBaseCharDistanceSq>::allocator<tagBaseCharDistanceSq>
; Function compile flags: /Ogsp
; File c:\program files (x86)\microsoft visual studio 10.0\vc\include\xmemory
;	COMDAT ??0?$allocator@UtagBaseCharDistanceSq@@@std@@QAE@ABV01@@Z
_TEXT	SEGMENT
___formal$ = 8						; size = 4
??0?$allocator@UtagBaseCharDistanceSq@@@std@@QAE@ABV01@@Z PROC ; std::allocator<tagBaseCharDistanceSq>::allocator<tagBaseCharDistanceSq>, COMDAT
; _this$ = ecx

; 165  : 	_ALLOCATOR(const _ALLOCATOR<_Ty>&) _THROW0()

  00000	8b c1		 mov	 eax, ecx

; 166  : 		{	// construct by copying (do nothing)
; 167  : 		}

  00002	c2 04 00	 ret	 4
??0?$allocator@UtagBaseCharDistanceSq@@@std@@QAE@ABV01@@Z ENDP ; std::allocator<tagBaseCharDistanceSq>::allocator<tagBaseCharDistanceSq>
_TEXT	ENDS
PUBLIC	?deallocate@?$allocator@UtagBaseCharDistanceSq@@@std@@QAEXPAUtagBaseCharDistanceSq@@I@Z ; std::allocator<tagBaseCharDistanceSq>::deallocate
; Function compile flags: /Ogsp
;	COMDAT ?deallocate@?$allocator@UtagBaseCharDistanceSq@@@std@@QAEXPAUtagBaseCharDistanceSq@@I@Z
_TEXT	SEGMENT
__Ptr$ = 8						; size = 4
___formal$ = 12						; size = 4
?deallocate@?$allocator@UtagBaseCharDistanceSq@@@std@@QAEXPAUtagBaseCharDistanceSq@@I@Z PROC ; std::allocator<tagBaseCharDistanceSq>::deallocate, COMDAT
; _this$ = ecx

; 181  : 		{	// deallocate object at _Ptr, ignore size

  00000	55		 push	 ebp
  00001	8b ec		 mov	 ebp, esp

; 182  : 		::operator delete(_Ptr);

  00003	ff 75 08	 push	 DWORD PTR __Ptr$[ebp]
  00006	e8 00 00 00 00	 call	 ??3@YAXPAX@Z		; operator delete
  0000b	59		 pop	 ecx

; 183  : 		}

  0000c	5d		 pop	 ebp
  0000d	c2 08 00	 ret	 8
?deallocate@?$allocator@UtagBaseCharDistanceSq@@@std@@QAEXPAUtagBaseCharDistanceSq@@I@Z ENDP ; std::allocator<tagBaseCharDistanceSq>::deallocate
_TEXT	ENDS
PUBLIC	?_Compat@?$_Vector_const_iterator@V?$_Vector_val@PAVioBaseChar@@V?$allocator@PAVioBaseChar@@@std@@@std@@@std@@QBEXABV12@@Z ; std::_Vector_const_iterator<std::_Vector_val<ioBaseChar *,std::allocator<ioBaseChar *> > >::_Compat
; Function compile flags: /Ogsp
; File c:\program files (x86)\microsoft visual studio 10.0\vc\include\vector
;	COMDAT ?_Compat@?$_Vector_const_iterator@V?$_Vector_val@PAVioBaseChar@@V?$allocator@PAVioBaseChar@@@std@@@std@@@std@@QBEXABV12@@Z
_TEXT	SEGMENT
___formal$ = 8						; size = 4
?_Compat@?$_Vector_const_iterator@V?$_Vector_val@PAVioBaseChar@@V?$allocator@PAVioBaseChar@@@std@@@std@@@std@@QBEXABV12@@Z PROC ; std::_Vector_const_iterator<std::_Vector_val<ioBaseChar *,std::allocator<ioBaseChar *> > >::_Compat, COMDAT
; _this$ = ecx

; 253  : 		}

  00000	c2 04 00	 ret	 4
?_Compat@?$_Vector_const_iterator@V?$_Vector_val@PAVioBaseChar@@V?$allocator@PAVioBaseChar@@@std@@@std@@@std@@QBEXABV12@@Z ENDP ; std::_Vector_const_iterator<std::_Vector_val<ioBaseChar *,std::allocator<ioBaseChar *> > >::_Compat
_TEXT	ENDS
PUBLIC	??0?$_Vector_const_iterator@V?$_Vector_val@UtagBaseCharDistanceSq@@V?$allocator@UtagBaseCharDistanceSq@@@std@@@std@@@std@@QAE@PAUtagBaseCharDistanceSq@@PBU_Container_base0@1@@Z ; std::_Vector_const_iterator<std::_Vector_val<tagBaseCharDistanceSq,std::allocator<tagBaseCharDistanceSq> > >::_Vector_const_iterator<std::_Vector_val<tagBaseCharDistanceSq,std::allocator<tagBaseCharDistanceSq> > >
; Function compile flags: /Ogsp
;	COMDAT ??0?$_Vector_const_iterator@V?$_Vector_val@UtagBaseCharDistanceSq@@V?$allocator@UtagBaseCharDistanceSq@@@std@@@std@@@std@@QAE@PAUtagBaseCharDistanceSq@@PBU_Container_base0@1@@Z
_TEXT	SEGMENT
__Parg$ = 8						; size = 4
__Pvector$ = 12						; size = 4
??0?$_Vector_const_iterator@V?$_Vector_val@UtagBaseCharDistanceSq@@V?$allocator@UtagBaseCharDistanceSq@@@std@@@std@@@std@@QAE@PAUtagBaseCharDistanceSq@@PBU_Container_base0@1@@Z PROC ; std::_Vector_const_iterator<std::_Vector_val<tagBaseCharDistanceSq,std::allocator<tagBaseCharDistanceSq> > >::_Vector_const_iterator<std::_Vector_val<tagBaseCharDistanceSq,std::allocator<tagBaseCharDistanceSq> > >, COMDAT
; _this$ = ecx

; 45   : 		{	// construct with pointer _Parg

  00000	55		 push	 ebp
  00001	8b ec		 mov	 ebp, esp
  00003	8b c1		 mov	 eax, ecx
  00005	8b 4d 08	 mov	 ecx, DWORD PTR __Parg$[ebp]
  00008	89 08		 mov	 DWORD PTR [eax], ecx

; 46   : 		this->_Adopt(_Pvector);
; 47   : 		}

  0000a	5d		 pop	 ebp
  0000b	c2 08 00	 ret	 8
??0?$_Vector_const_iterator@V?$_Vector_val@UtagBaseCharDistanceSq@@V?$allocator@UtagBaseCharDistanceSq@@@std@@@std@@@std@@QAE@PAUtagBaseCharDistanceSq@@PBU_Container_base0@1@@Z ENDP ; std::_Vector_const_iterator<std::_Vector_val<tagBaseCharDistanceSq,std::allocator<tagBaseCharDistanceSq> > >::_Vector_const_iterator<std::_Vector_val<tagBaseCharDistanceSq,std::allocator<tagBaseCharDistanceSq> > >
_TEXT	ENDS
PUBLIC	?max_size@?$allocator@UtagBaseCharDistanceSq@@@std@@QBEIXZ ; std::allocator<tagBaseCharDistanceSq>::max_size
; Function compile flags: /Ogsp
; File c:\program files (x86)\microsoft visual studio 10.0\vc\include\xmemory
;	COMDAT ?max_size@?$allocator@UtagBaseCharDistanceSq@@@std@@QBEIXZ
_TEXT	SEGMENT
?max_size@?$allocator@UtagBaseCharDistanceSq@@@std@@QBEIXZ PROC ; std::allocator<tagBaseCharDistanceSq>::max_size, COMDAT
; _this$ = ecx

; 218  : 		_SIZT _Count = (_SIZT)(-1) / sizeof (_Ty);
; 219  : 		return (0 < _Count ? _Count : 1);

  00000	b8 ff ff ff 07	 mov	 eax, 134217727		; 07ffffffH

; 220  : 		}

  00005	c3		 ret	 0
?max_size@?$allocator@UtagBaseCharDistanceSq@@@std@@QBEIXZ ENDP ; std::allocator<tagBaseCharDistanceSq>::max_size
_TEXT	ENDS
PUBLIC	?_Compat@?$_Vector_const_iterator@V?$_Vector_val@UtagBaseCharDistanceSq@@V?$allocator@UtagBaseCharDistanceSq@@@std@@@std@@@std@@QBEXABV12@@Z ; std::_Vector_const_iterator<std::_Vector_val<tagBaseCharDistanceSq,std::allocator<tagBaseCharDistanceSq> > >::_Compat
; Function compile flags: /Ogsp
; File c:\program files (x86)\microsoft visual studio 10.0\vc\include\vector
;	COMDAT ?_Compat@?$_Vector_const_iterator@V?$_Vector_val@UtagBaseCharDistanceSq@@V?$allocator@UtagBaseCharDistanceSq@@@std@@@std@@@std@@QBEXABV12@@Z
_TEXT	SEGMENT
___formal$ = 8						; size = 4
?_Compat@?$_Vector_const_iterator@V?$_Vector_val@UtagBaseCharDistanceSq@@V?$allocator@UtagBaseCharDistanceSq@@@std@@@std@@@std@@QBEXABV12@@Z PROC ; std::_Vector_const_iterator<std::_Vector_val<tagBaseCharDistanceSq,std::allocator<tagBaseCharDistanceSq> > >::_Compat, COMDAT
; _this$ = ecx

; 253  : 		}

  00000	c2 04 00	 ret	 4
?_Compat@?$_Vector_const_iterator@V?$_Vector_val@UtagBaseCharDistanceSq@@V?$allocator@UtagBaseCharDistanceSq@@@std@@@std@@@std@@QBEXABV12@@Z ENDP ; std::_Vector_const_iterator<std::_Vector_val<tagBaseCharDistanceSq,std::allocator<tagBaseCharDistanceSq> > >::_Compat
_TEXT	ENDS
PUBLIC	??0D3DXVECTOR3@@QAE@XZ				; D3DXVECTOR3::D3DXVECTOR3
; Function compile flags: /Ogsp
; File c:\program files (x86)\microsoft directx sdk (june 2010)\include\d3dx9math.h
;	COMDAT ??0D3DXVECTOR3@@QAE@XZ
_TEXT	SEGMENT
??0D3DXVECTOR3@@QAE@XZ PROC				; D3DXVECTOR3::D3DXVECTOR3, COMDAT
; _this$ = ecx

; 165  :     D3DXVECTOR3() {};

  00000	8b c1		 mov	 eax, ecx
  00002	c3		 ret	 0
??0D3DXVECTOR3@@QAE@XZ ENDP				; D3DXVECTOR3::D3DXVECTOR3
_TEXT	ENDS
PUBLIC	??$addressof@$$CBUtagBaseCharDistanceSq@@@std@@YAPBUtagBaseCharDistanceSq@@ABU1@@Z ; std::addressof<tagBaseCharDistanceSq const >
; Function compile flags: /Ogsp
; File c:\program files (x86)\microsoft visual studio 10.0\vc\include\xmemory
;	COMDAT ??$addressof@$$CBUtagBaseCharDistanceSq@@@std@@YAPBUtagBaseCharDistanceSq@@ABU1@@Z
_TEXT	SEGMENT
__Val$ = 8						; size = 4
??$addressof@$$CBUtagBaseCharDistanceSq@@@std@@YAPBUtagBaseCharDistanceSq@@ABU1@@Z PROC ; std::addressof<tagBaseCharDistanceSq const >, COMDAT

; 110  : 	{	// return address of _Val

  00000	55		 push	 ebp
  00001	8b ec		 mov	 ebp, esp

; 111  : 	return ((_Ty *) &(char&)_Val);

  00003	8b 45 08	 mov	 eax, DWORD PTR __Val$[ebp]

; 112  : 	}

  00006	5d		 pop	 ebp
  00007	c3		 ret	 0
??$addressof@$$CBUtagBaseCharDistanceSq@@@std@@YAPBUtagBaseCharDistanceSq@@ABU1@@Z ENDP ; std::addressof<tagBaseCharDistanceSq const >
_TEXT	ENDS
PUBLIC	__TI2?AVbad_alloc@std@@
PUBLIC	??$_Allocate@UtagBaseCharDistanceSq@@@std@@YAPAUtagBaseCharDistanceSq@@IPAU1@@Z ; std::_Allocate<tagBaseCharDistanceSq>
PUBLIC	__CTA2?AVbad_alloc@std@@
PUBLIC	__CT??_R0?AVbad_alloc@std@@@8??0bad_alloc@std@@QAE@ABV01@@Z12
PUBLIC	??0bad_alloc@std@@QAE@ABV01@@Z			; std::bad_alloc::bad_alloc
PUBLIC	__CT??_R0?AVexception@std@@@8??0exception@std@@QAE@ABV01@@Z12
EXTRN	??2@YAPAXI@Z:PROC				; operator new
EXTRN	__CxxThrowException@8:PROC
EXTRN	??0exception@std@@QAE@ABV01@@Z:PROC		; std::exception::exception
;	COMDAT __CT??_R0?AVexception@std@@@8??0exception@std@@QAE@ABV01@@Z12
; File c:\program files (x86)\microsoft visual studio 10.0\vc\include\exception
xdata$x	SEGMENT
__CT??_R0?AVexception@std@@@8??0exception@std@@QAE@ABV01@@Z12 DD 00H
	DD	FLAT:??_R0?AVexception@std@@@8
	DD	00H
	DD	0ffffffffH
	ORG $+4
	DD	0cH
	DD	FLAT:??0exception@std@@QAE@ABV01@@Z
xdata$x	ENDS
;	COMDAT __CT??_R0?AVbad_alloc@std@@@8??0bad_alloc@std@@QAE@ABV01@@Z12
xdata$x	SEGMENT
__CT??_R0?AVbad_alloc@std@@@8??0bad_alloc@std@@QAE@ABV01@@Z12 DD 00H
	DD	FLAT:??_R0?AVbad_alloc@std@@@8
	DD	00H
	DD	0ffffffffH
	ORG $+4
	DD	0cH
	DD	FLAT:??0bad_alloc@std@@QAE@ABV01@@Z
xdata$x	ENDS
;	COMDAT __CTA2?AVbad_alloc@std@@
xdata$x	SEGMENT
__CTA2?AVbad_alloc@std@@ DD 02H
	DD	FLAT:__CT??_R0?AVbad_alloc@std@@@8??0bad_alloc@std@@QAE@ABV01@@Z12
	DD	FLAT:__CT??_R0?AVexception@std@@@8??0exception@std@@QAE@ABV01@@Z12
xdata$x	ENDS
;	COMDAT __TI2?AVbad_alloc@std@@
xdata$x	SEGMENT
__TI2?AVbad_alloc@std@@ DD 00H
	DD	FLAT:??1bad_alloc@std@@UAE@XZ
	DD	00H
	DD	FLAT:__CTA2?AVbad_alloc@std@@
; Function compile flags: /Ogsp
; File c:\program files (x86)\microsoft visual studio 10.0\vc\include\xmemory
xdata$x	ENDS
;	COMDAT ??$_Allocate@UtagBaseCharDistanceSq@@@std@@YAPAUtagBaseCharDistanceSq@@IPAU1@@Z
_TEXT	SEGMENT
$T554147 = -12						; size = 12
$T554152 = 8						; size = 4
__Count$ = 8						; size = 4
___formal$ = 12						; size = 4
??$_Allocate@UtagBaseCharDistanceSq@@@std@@YAPAUtagBaseCharDistanceSq@@IPAU1@@Z PROC ; std::_Allocate<tagBaseCharDistanceSq>, COMDAT

; 30   : 	{	// allocate storage for _Count elements of type _Ty

  00000	55		 push	 ebp
  00001	8b ec		 mov	 ebp, esp

; 31   : 	void *_Ptr = 0;
; 32   : 
; 33   : 	if (_Count <= 0)

  00003	8b 4d 08	 mov	 ecx, DWORD PTR __Count$[ebp]
  00006	83 ec 0c	 sub	 esp, 12			; 0000000cH
  00009	33 c0		 xor	 eax, eax
  0000b	85 c9		 test	 ecx, ecx

; 34   : 		_Count = 0;
; 35   : 	else if (((_SIZT)(-1) / sizeof (_Ty) < _Count)

  0000d	74 3c		 je	 SHORT $LN5@Allocate

; 36   : 		|| (_Ptr = ::operator new(_Count * sizeof (_Ty))) == 0)

  0000f	81 f9 ff ff ff
	07		 cmp	 ecx, 134217727		; 07ffffffH
  00015	77 0e		 ja	 SHORT $LN1@Allocate
  00017	c1 e1 05	 shl	 ecx, 5
  0001a	51		 push	 ecx
  0001b	e8 00 00 00 00	 call	 ??2@YAPAXI@Z		; operator new
  00020	59		 pop	 ecx
  00021	85 c0		 test	 eax, eax

; 38   : 
; 39   : 	return ((_Ty _FARQ *)_Ptr);

  00023	75 26		 jne	 SHORT $LN5@Allocate
$LN1@Allocate:

; 37   : 		_THROW_NCEE(bad_alloc, 0);

  00025	83 65 08 00	 and	 DWORD PTR $T554152[ebp], 0
  00029	8d 45 08	 lea	 eax, DWORD PTR $T554152[ebp]
  0002c	50		 push	 eax
  0002d	8d 4d f4	 lea	 ecx, DWORD PTR $T554147[ebp]
  00030	ff 15 00 00 00
	00		 call	 DWORD PTR __imp_??0exception@std@@QAE@ABQBD@Z
  00036	68 00 00 00 00	 push	 OFFSET __TI2?AVbad_alloc@std@@
  0003b	8d 45 f4	 lea	 eax, DWORD PTR $T554147[ebp]
  0003e	50		 push	 eax
  0003f	c7 45 f4 00 00
	00 00		 mov	 DWORD PTR $T554147[ebp], OFFSET ??_7bad_alloc@std@@6B@
  00046	e8 00 00 00 00	 call	 __CxxThrowException@8
$LN10@Allocate:
$LN5@Allocate:

; 40   : 	}

  0004b	c9		 leave
  0004c	c3		 ret	 0
$LN9@Allocate:
??$_Allocate@UtagBaseCharDistanceSq@@@std@@YAPAUtagBaseCharDistanceSq@@IPAU1@@Z ENDP ; std::_Allocate<tagBaseCharDistanceSq>
_TEXT	ENDS
PUBLIC	??G?$_Vector_const_iterator@V?$_Vector_val@UtagBaseCharDistanceSq@@V?$allocator@UtagBaseCharDistanceSq@@@std@@@std@@@std@@QBEHABV01@@Z ; std::_Vector_const_iterator<std::_Vector_val<tagBaseCharDistanceSq,std::allocator<tagBaseCharDistanceSq> > >::operator-
; Function compile flags: /Ogsp
; File c:\program files (x86)\microsoft visual studio 10.0\vc\include\vector
;	COMDAT ??G?$_Vector_const_iterator@V?$_Vector_val@UtagBaseCharDistanceSq@@V?$allocator@UtagBaseCharDistanceSq@@@std@@@std@@@std@@QBEHABV01@@Z
_TEXT	SEGMENT
__Right$ = 8						; size = 4
??G?$_Vector_const_iterator@V?$_Vector_val@UtagBaseCharDistanceSq@@V?$allocator@UtagBaseCharDistanceSq@@@std@@@std@@@std@@QBEHABV01@@Z PROC ; std::_Vector_const_iterator<std::_Vector_val<tagBaseCharDistanceSq,std::allocator<tagBaseCharDistanceSq> > >::operator-, COMDAT
; _this$ = ecx

; 190  : 		{	// return difference of iterators

  00000	55		 push	 ebp
  00001	8b ec		 mov	 ebp, esp

; 191  : 		_Compat(_Right);
; 192  : 		return (this->_Ptr - _Right._Ptr);

  00003	8b 01		 mov	 eax, DWORD PTR [ecx]
  00005	8b 4d 08	 mov	 ecx, DWORD PTR __Right$[ebp]
  00008	2b 01		 sub	 eax, DWORD PTR [ecx]
  0000a	c1 f8 05	 sar	 eax, 5

; 193  : 		}

  0000d	5d		 pop	 ebp
  0000e	c2 04 00	 ret	 4
??G?$_Vector_const_iterator@V?$_Vector_val@UtagBaseCharDistanceSq@@V?$allocator@UtagBaseCharDistanceSq@@@std@@@std@@@std@@QBEHABV01@@Z ENDP ; std::_Vector_const_iterator<std::_Vector_val<tagBaseCharDistanceSq,std::allocator<tagBaseCharDistanceSq> > >::operator-
_TEXT	ENDS
PUBLIC	??$forward@AAUtagBaseCharDistanceSq@@@std@@YAAAUtagBaseCharDistanceSq@@AAU1@@Z ; std::forward<tagBaseCharDistanceSq &>
; Function compile flags: /Ogsp
; File c:\program files (x86)\microsoft visual studio 10.0\vc\include\utility
;	COMDAT ??$forward@AAUtagBaseCharDistanceSq@@@std@@YAAAUtagBaseCharDistanceSq@@AAU1@@Z
_TEXT	SEGMENT
__Arg$ = 8						; size = 4
??$forward@AAUtagBaseCharDistanceSq@@@std@@YAAAUtagBaseCharDistanceSq@@AAU1@@Z PROC ; std::forward<tagBaseCharDistanceSq &>, COMDAT

; 78   : 	{	// forward _Arg, given explicitly specified type parameter

  00000	55		 push	 ebp
  00001	8b ec		 mov	 ebp, esp

; 79   : 	return ((_Ty&&)_Arg);

  00003	8b 45 08	 mov	 eax, DWORD PTR __Arg$[ebp]

; 80   : 	}

  00006	5d		 pop	 ebp
  00007	c3		 ret	 0
??$forward@AAUtagBaseCharDistanceSq@@@std@@YAAAUtagBaseCharDistanceSq@@AAU1@@Z ENDP ; std::forward<tagBaseCharDistanceSq &>
_TEXT	ENDS
PUBLIC	??0D3DXVECTOR3@@QAE@MMM@Z			; D3DXVECTOR3::D3DXVECTOR3
; Function compile flags: /Ogsp
; File c:\program files (x86)\microsoft directx sdk (june 2010)\include\d3dx9math.inl
;	COMDAT ??0D3DXVECTOR3@@QAE@MMM@Z
_TEXT	SEGMENT
_fx$ = 8						; size = 4
_fy$ = 12						; size = 4
_fz$ = 16						; size = 4
??0D3DXVECTOR3@@QAE@MMM@Z PROC				; D3DXVECTOR3::D3DXVECTOR3, COMDAT
; _this$ = ecx

; 303  : {

  00000	55		 push	 ebp
  00001	8b ec		 mov	 ebp, esp

; 304  :     x = fx;

  00003	f3 0f 10 45 08	 movss	 xmm0, DWORD PTR _fx$[ebp]
  00008	8b c1		 mov	 eax, ecx
  0000a	f3 0f 11 00	 movss	 DWORD PTR [eax], xmm0

; 305  :     y = fy;

  0000e	f3 0f 10 45 0c	 movss	 xmm0, DWORD PTR _fy$[ebp]
  00013	f3 0f 11 40 04	 movss	 DWORD PTR [eax+4], xmm0

; 306  :     z = fz;

  00018	f3 0f 10 45 10	 movss	 xmm0, DWORD PTR _fz$[ebp]
  0001d	f3 0f 11 40 08	 movss	 DWORD PTR [eax+8], xmm0

; 307  : }

  00022	5d		 pop	 ebp
  00023	c2 0c 00	 ret	 12			; 0000000cH
??0D3DXVECTOR3@@QAE@MMM@Z ENDP				; D3DXVECTOR3::D3DXVECTOR3
_TEXT	ENDS
PUBLIC	??$forward@ABUtagBaseCharDistanceSq@@@std@@YAABUtagBaseCharDistanceSq@@ABU1@@Z ; std::forward<tagBaseCharDistanceSq const &>
; Function compile flags: /Ogsp
; File c:\program files (x86)\microsoft visual studio 10.0\vc\include\utility
;	COMDAT ??$forward@ABUtagBaseCharDistanceSq@@@std@@YAABUtagBaseCharDistanceSq@@ABU1@@Z
_TEXT	SEGMENT
__Arg$ = 8						; size = 4
??$forward@ABUtagBaseCharDistanceSq@@@std@@YAABUtagBaseCharDistanceSq@@ABU1@@Z PROC ; std::forward<tagBaseCharDistanceSq const &>, COMDAT

; 78   : 	{	// forward _Arg, given explicitly specified type parameter

  00000	55		 push	 ebp
  00001	8b ec		 mov	 ebp, esp

; 79   : 	return ((_Ty&&)_Arg);

  00003	8b 45 08	 mov	 eax, DWORD PTR __Arg$[ebp]

; 80   : 	}

  00006	5d		 pop	 ebp
  00007	c3		 ret	 0
??$forward@ABUtagBaseCharDistanceSq@@@std@@YAABUtagBaseCharDistanceSq@@ABU1@@Z ENDP ; std::forward<tagBaseCharDistanceSq const &>
_TEXT	ENDS
PUBLIC	??$_Ptr_cat@UtagBaseCharDistanceSq@@U1@@std@@YA?AU_Nonscalar_ptr_iterator_tag@0@PAUtagBaseCharDistanceSq@@0@Z ; std::_Ptr_cat<tagBaseCharDistanceSq,tagBaseCharDistanceSq>
; Function compile flags: /Ogsp
; File c:\program files (x86)\microsoft visual studio 10.0\vc\include\xutility
;	COMDAT ??$_Ptr_cat@UtagBaseCharDistanceSq@@U1@@std@@YA?AU_Nonscalar_ptr_iterator_tag@0@PAUtagBaseCharDistanceSq@@0@Z
_TEXT	SEGMENT
__Cat$ = -1						; size = 1
___formal$ = 8						; size = 4
___formal$ = 12						; size = 4
??$_Ptr_cat@UtagBaseCharDistanceSq@@U1@@std@@YA?AU_Nonscalar_ptr_iterator_tag@0@PAUtagBaseCharDistanceSq@@0@Z PROC ; std::_Ptr_cat<tagBaseCharDistanceSq,tagBaseCharDistanceSq>, COMDAT

; 516  : 	{	// return pointer category from pointers

  00000	55		 push	 ebp
  00001	8b ec		 mov	 ebp, esp
  00003	51		 push	 ecx

; 517  : 	typename _Ptr_cat_helper<_Elem1, _Elem2>::_Type _Cat;
; 518  : 	return (_Cat);

  00004	8a 45 ff	 mov	 al, BYTE PTR __Cat$[ebp]

; 519  : 	}

  00007	c9		 leave
  00008	c3		 ret	 0
??$_Ptr_cat@UtagBaseCharDistanceSq@@U1@@std@@YA?AU_Nonscalar_ptr_iterator_tag@0@PAUtagBaseCharDistanceSq@@0@Z ENDP ; std::_Ptr_cat<tagBaseCharDistanceSq,tagBaseCharDistanceSq>
_TEXT	ENDS
PUBLIC	??0tagBaseCharDistanceSq@@QAE@ABU0@@Z		; tagBaseCharDistanceSq::tagBaseCharDistanceSq
EXTRN	__imp_??0ioHashString@@QAE@ABV0@@Z:PROC
; Function compile flags: /Ogsp
;	COMDAT ??0tagBaseCharDistanceSq@@QAE@ABU0@@Z
_TEXT	SEGMENT
___that$ = 8						; size = 4
??0tagBaseCharDistanceSq@@QAE@ABU0@@Z PROC		; tagBaseCharDistanceSq::tagBaseCharDistanceSq, COMDAT
; _this$ = ecx
  00000	55		 push	 ebp
  00001	8b ec		 mov	 ebp, esp
  00003	53		 push	 ebx
  00004	56		 push	 esi
  00005	8b 75 08	 mov	 esi, DWORD PTR ___that$[ebp]
  00008	57		 push	 edi
  00009	56		 push	 esi
  0000a	8b d9		 mov	 ebx, ecx
  0000c	ff 15 00 00 00
	00		 call	 DWORD PTR __imp_??0ioHashString@@QAE@ABV0@@Z
  00012	d9 46 10	 fld	 DWORD PTR [esi+16]
  00015	83 c6 14	 add	 esi, 20			; 00000014H
  00018	d9 5b 10	 fstp	 DWORD PTR [ebx+16]
  0001b	8d 7b 14	 lea	 edi, DWORD PTR [ebx+20]
  0001e	a5		 movsd
  0001f	a5		 movsd
  00020	a5		 movsd
  00021	5f		 pop	 edi
  00022	5e		 pop	 esi
  00023	8b c3		 mov	 eax, ebx
  00025	5b		 pop	 ebx
  00026	5d		 pop	 ebp
  00027	c2 04 00	 ret	 4
??0tagBaseCharDistanceSq@@QAE@ABU0@@Z ENDP		; tagBaseCharDistanceSq::tagBaseCharDistanceSq
_TEXT	ENDS
PUBLIC	??4tagBaseCharDistanceSq@@QAEAAU0@ABU0@@Z	; tagBaseCharDistanceSq::operator=
EXTRN	__imp_??4ioHashString@@QAEAAV0@ABV0@@Z:PROC
; Function compile flags: /Ogsp
;	COMDAT ??4tagBaseCharDistanceSq@@QAEAAU0@ABU0@@Z
_TEXT	SEGMENT
___that$ = 8						; size = 4
??4tagBaseCharDistanceSq@@QAEAAU0@ABU0@@Z PROC		; tagBaseCharDistanceSq::operator=, COMDAT
; _this$ = ecx
  00000	55		 push	 ebp
  00001	8b ec		 mov	 ebp, esp
  00003	53		 push	 ebx
  00004	56		 push	 esi
  00005	8b 75 08	 mov	 esi, DWORD PTR ___that$[ebp]
  00008	57		 push	 edi
  00009	56		 push	 esi
  0000a	8b d9		 mov	 ebx, ecx
  0000c	ff 15 00 00 00
	00		 call	 DWORD PTR __imp_??4ioHashString@@QAEAAV0@ABV0@@Z
  00012	d9 46 10	 fld	 DWORD PTR [esi+16]
  00015	83 c6 14	 add	 esi, 20			; 00000014H
  00018	d9 5b 10	 fstp	 DWORD PTR [ebx+16]
  0001b	8d 7b 14	 lea	 edi, DWORD PTR [ebx+20]
  0001e	a5		 movsd
  0001f	a5		 movsd
  00020	a5		 movsd
  00021	5f		 pop	 edi
  00022	5e		 pop	 esi
  00023	8b c3		 mov	 eax, ebx
  00025	5b		 pop	 ebx
  00026	5d		 pop	 ebp
  00027	c2 04 00	 ret	 4
??4tagBaseCharDistanceSq@@QAEAAU0@ABU0@@Z ENDP		; tagBaseCharDistanceSq::operator=
_TEXT	ENDS
PUBLIC	?_Unchecked@?$_Vector_iterator@V?$_Vector_val@UtagBaseCharDistanceSq@@V?$allocator@UtagBaseCharDistanceSq@@@std@@@std@@@std@@QBEPAUtagBaseCharDistanceSq@@XZ ; std::_Vector_iterator<std::_Vector_val<tagBaseCharDistanceSq,std::allocator<tagBaseCharDistanceSq> > >::_Unchecked
; Function compile flags: /Ogsp
; File c:\program files (x86)\microsoft visual studio 10.0\vc\include\vector
;	COMDAT ?_Unchecked@?$_Vector_iterator@V?$_Vector_val@UtagBaseCharDistanceSq@@V?$allocator@UtagBaseCharDistanceSq@@@std@@@std@@@std@@QBEPAUtagBaseCharDistanceSq@@XZ
_TEXT	SEGMENT
?_Unchecked@?$_Vector_iterator@V?$_Vector_val@UtagBaseCharDistanceSq@@V?$allocator@UtagBaseCharDistanceSq@@@std@@@std@@@std@@QBEPAUtagBaseCharDistanceSq@@XZ PROC ; std::_Vector_iterator<std::_Vector_val<tagBaseCharDistanceSq,std::allocator<tagBaseCharDistanceSq> > >::_Unchecked, COMDAT
; _this$ = ecx

; 317  : 		return (_Unchecked_type(this->_Ptr));

  00000	8b 01		 mov	 eax, DWORD PTR [ecx]

; 318  : 		}

  00002	c3		 ret	 0
?_Unchecked@?$_Vector_iterator@V?$_Vector_val@UtagBaseCharDistanceSq@@V?$allocator@UtagBaseCharDistanceSq@@@std@@@std@@@std@@QBEPAUtagBaseCharDistanceSq@@XZ ENDP ; std::_Vector_iterator<std::_Vector_val<tagBaseCharDistanceSq,std::allocator<tagBaseCharDistanceSq> > >::_Unchecked
_TEXT	ENDS
PUBLIC	??GD3DXVECTOR3@@QBE?AU0@ABU0@@Z			; D3DXVECTOR3::operator-
; Function compile flags: /Ogsp
; File c:\program files (x86)\microsoft directx sdk (june 2010)\include\d3dx9math.inl
;	COMDAT ??GD3DXVECTOR3@@QBE?AU0@ABU0@@Z
_TEXT	SEGMENT
___$ReturnUdt$ = 8					; size = 4
_v$ = 12						; size = 4
??GD3DXVECTOR3@@QBE?AU0@ABU0@@Z PROC			; D3DXVECTOR3::operator-, COMDAT
; _this$ = ecx

; 386  : {

  00000	55		 push	 ebp
  00001	8b ec		 mov	 ebp, esp

; 387  :     return D3DXVECTOR3(x - v.x, y - v.y, z - v.z);

  00003	8b 55 0c	 mov	 edx, DWORD PTR _v$[ebp]
  00006	f3 0f 10 01	 movss	 xmm0, DWORD PTR [ecx]
  0000a	f3 0f 10 0a	 movss	 xmm1, DWORD PTR [edx]
  0000e	8b 45 08	 mov	 eax, DWORD PTR ___$ReturnUdt$[ebp]
  00011	0f 5a c0	 cvtps2pd xmm0, xmm0
  00014	0f 5a c9	 cvtps2pd xmm1, xmm1
  00017	f2 0f 5c c1	 subsd	 xmm0, xmm1
  0001b	f3 0f 10 4a 04	 movss	 xmm1, DWORD PTR [edx+4]
  00020	66 0f 5a c0	 cvtpd2ps xmm0, xmm0
  00024	f3 0f 11 00	 movss	 DWORD PTR [eax], xmm0
  00028	f3 0f 10 41 04	 movss	 xmm0, DWORD PTR [ecx+4]
  0002d	0f 5a c0	 cvtps2pd xmm0, xmm0
  00030	0f 5a c9	 cvtps2pd xmm1, xmm1
  00033	f2 0f 5c c1	 subsd	 xmm0, xmm1
  00037	f3 0f 10 4a 08	 movss	 xmm1, DWORD PTR [edx+8]
  0003c	66 0f 5a c0	 cvtpd2ps xmm0, xmm0
  00040	f3 0f 11 40 04	 movss	 DWORD PTR [eax+4], xmm0
  00045	f3 0f 10 41 08	 movss	 xmm0, DWORD PTR [ecx+8]
  0004a	0f 5a c0	 cvtps2pd xmm0, xmm0
  0004d	0f 5a c9	 cvtps2pd xmm1, xmm1
  00050	f2 0f 5c c1	 subsd	 xmm0, xmm1
  00054	66 0f 5a c0	 cvtpd2ps xmm0, xmm0
  00058	f3 0f 11 40 08	 movss	 DWORD PTR [eax+8], xmm0

; 388  : }

  0005d	5d		 pop	 ebp
  0005e	c2 08 00	 ret	 8
??GD3DXVECTOR3@@QBE?AU0@ABU0@@Z ENDP			; D3DXVECTOR3::operator-
_TEXT	ENDS
PUBLIC	??$move@AAUtagBaseCharDistanceSq@@@std@@YA$$QAUtagBaseCharDistanceSq@@AAU1@@Z ; std::move<tagBaseCharDistanceSq &>
; Function compile flags: /Ogsp
; File c:\program files (x86)\microsoft visual studio 10.0\vc\include\utility
;	COMDAT ??$move@AAUtagBaseCharDistanceSq@@@std@@YA$$QAUtagBaseCharDistanceSq@@AAU1@@Z
_TEXT	SEGMENT
__Arg$ = 8						; size = 4
??$move@AAUtagBaseCharDistanceSq@@@std@@YA$$QAUtagBaseCharDistanceSq@@AAU1@@Z PROC ; std::move<tagBaseCharDistanceSq &>, COMDAT

; 86   : 	{	// forward _Arg as movable

  00000	55		 push	 ebp
  00001	8b ec		 mov	 ebp, esp

; 87   : 	return ((typename tr1::_Remove_reference<_Ty>::_Type&&)_Arg);

  00003	8b 45 08	 mov	 eax, DWORD PTR __Arg$[ebp]

; 88   : 	}

  00006	5d		 pop	 ebp
  00007	c3		 ret	 0
??$move@AAUtagBaseCharDistanceSq@@@std@@YA$$QAUtagBaseCharDistanceSq@@AAU1@@Z ENDP ; std::move<tagBaseCharDistanceSq &>
_TEXT	ENDS
PUBLIC	??$_Val_type@PAUtagBaseCharDistanceSq@@@std@@YAPAUtagBaseCharDistanceSq@@PAU1@@Z ; std::_Val_type<tagBaseCharDistanceSq *>
; Function compile flags: /Ogsp
; File c:\program files (x86)\microsoft visual studio 10.0\vc\include\xutility
;	COMDAT ??$_Val_type@PAUtagBaseCharDistanceSq@@@std@@YAPAUtagBaseCharDistanceSq@@PAU1@@Z
_TEXT	SEGMENT
___formal$ = 8						; size = 4
??$_Val_type@PAUtagBaseCharDistanceSq@@@std@@YAPAUtagBaseCharDistanceSq@@PAU1@@Z PROC ; std::_Val_type<tagBaseCharDistanceSq *>, COMDAT

; 790  : 	return (0);

  00000	33 c0		 xor	 eax, eax

; 791  : 	}

  00002	c3		 ret	 0
??$_Val_type@PAUtagBaseCharDistanceSq@@@std@@YAPAUtagBaseCharDistanceSq@@PAU1@@Z ENDP ; std::_Val_type<tagBaseCharDistanceSq *>
_TEXT	ENDS
PUBLIC	??$_Unchecked@PAUtagBaseCharDistanceSq@@@std@@YAPAUtagBaseCharDistanceSq@@PAU1@@Z ; std::_Unchecked<tagBaseCharDistanceSq *>
; Function compile flags: /Ogsp
;	COMDAT ??$_Unchecked@PAUtagBaseCharDistanceSq@@@std@@YAPAUtagBaseCharDistanceSq@@PAU1@@Z
_TEXT	SEGMENT
__Src$ = 8						; size = 4
??$_Unchecked@PAUtagBaseCharDistanceSq@@@std@@YAPAUtagBaseCharDistanceSq@@PAU1@@Z PROC ; std::_Unchecked<tagBaseCharDistanceSq *>, COMDAT

; 266  : 	{	// construct unchecked from checked, generic

  00000	55		 push	 ebp
  00001	8b ec		 mov	 ebp, esp

; 267  : 	return (_Src);

  00003	8b 45 08	 mov	 eax, DWORD PTR __Src$[ebp]

; 268  : 	}

  00006	5d		 pop	 ebp
  00007	c3		 ret	 0
??$_Unchecked@PAUtagBaseCharDistanceSq@@@std@@YAPAUtagBaseCharDistanceSq@@PAU1@@Z ENDP ; std::_Unchecked<tagBaseCharDistanceSq *>
_TEXT	ENDS
PUBLIC	??$_Dist_type@PAUtagBaseCharDistanceSq@@@std@@YAPAHPAUtagBaseCharDistanceSq@@@Z ; std::_Dist_type<tagBaseCharDistanceSq *>
; Function compile flags: /Ogsp
;	COMDAT ??$_Dist_type@PAUtagBaseCharDistanceSq@@@std@@YAPAHPAUtagBaseCharDistanceSq@@@Z
_TEXT	SEGMENT
___formal$ = 8						; size = 4
??$_Dist_type@PAUtagBaseCharDistanceSq@@@std@@YAPAHPAUtagBaseCharDistanceSq@@@Z PROC ; std::_Dist_type<tagBaseCharDistanceSq *>, COMDAT

; 850  : 	return (0);

  00000	33 c0		 xor	 eax, eax

; 851  : 	}

  00002	c3		 ret	 0
??$_Dist_type@PAUtagBaseCharDistanceSq@@@std@@YAPAHPAUtagBaseCharDistanceSq@@@Z ENDP ; std::_Dist_type<tagBaseCharDistanceSq *>
_TEXT	ENDS
PUBLIC	??_GtagBaseCharDistanceSq@@QAEPAXI@Z		; tagBaseCharDistanceSq::`scalar deleting destructor'
; Function compile flags: /Ogsp
;	COMDAT ??_GtagBaseCharDistanceSq@@QAEPAXI@Z
_TEXT	SEGMENT
___flags$ = 8						; size = 4
??_GtagBaseCharDistanceSq@@QAEPAXI@Z PROC		; tagBaseCharDistanceSq::`scalar deleting destructor', COMDAT
; _this$ = ecx
  00000	55		 push	 ebp
  00001	8b ec		 mov	 ebp, esp
  00003	56		 push	 esi
  00004	8b f1		 mov	 esi, ecx
  00006	ff 15 00 00 00
	00		 call	 DWORD PTR __imp_??1ioHashString@@QAE@XZ
  0000c	f6 45 08 01	 test	 BYTE PTR ___flags$[ebp], 1
  00010	74 07		 je	 SHORT $LN1@scalar@2
  00012	56		 push	 esi
  00013	e8 00 00 00 00	 call	 ??3@YAXPAX@Z		; operator delete
  00018	59		 pop	 ecx
$LN1@scalar@2:
  00019	8b c6		 mov	 eax, esi
  0001b	5e		 pop	 esi
  0001c	5d		 pop	 ebp
  0001d	c2 04 00	 ret	 4
??_GtagBaseCharDistanceSq@@QAEPAXI@Z ENDP		; tagBaseCharDistanceSq::`scalar deleting destructor'
_TEXT	ENDS
PUBLIC	??$forward@AAPAUtagBaseCharDistanceSq@@@std@@YAAAPAUtagBaseCharDistanceSq@@AAPAU1@@Z ; std::forward<tagBaseCharDistanceSq * &>
; Function compile flags: /Ogsp
; File c:\program files (x86)\microsoft visual studio 10.0\vc\include\utility
;	COMDAT ??$forward@AAPAUtagBaseCharDistanceSq@@@std@@YAAAPAUtagBaseCharDistanceSq@@AAPAU1@@Z
_TEXT	SEGMENT
__Arg$ = 8						; size = 4
??$forward@AAPAUtagBaseCharDistanceSq@@@std@@YAAAPAUtagBaseCharDistanceSq@@AAPAU1@@Z PROC ; std::forward<tagBaseCharDistanceSq * &>, COMDAT

; 78   : 	{	// forward _Arg, given explicitly specified type parameter

  00000	55		 push	 ebp
  00001	8b ec		 mov	 ebp, esp

; 79   : 	return ((_Ty&&)_Arg);

  00003	8b 45 08	 mov	 eax, DWORD PTR __Arg$[ebp]

; 80   : 	}

  00006	5d		 pop	 ebp
  00007	c3		 ret	 0
??$forward@AAPAUtagBaseCharDistanceSq@@@std@@YAAAPAUtagBaseCharDistanceSq@@AAPAU1@@Z ENDP ; std::forward<tagBaseCharDistanceSq * &>
_TEXT	ENDS
PUBLIC	??$?0AAPAUtagBaseCharDistanceSq@@AAPAU0@@?$_Pair_base@PAUtagBaseCharDistanceSq@@PAU1@@std@@QAE@AAPAUtagBaseCharDistanceSq@@0@Z ; std::_Pair_base<tagBaseCharDistanceSq *,tagBaseCharDistanceSq *>::_Pair_base<tagBaseCharDistanceSq *,tagBaseCharDistanceSq *><tagBaseCharDistanceSq * &,tagBaseCharDistanceSq * &>
; Function compile flags: /Ogsp
;	COMDAT ??$?0AAPAUtagBaseCharDistanceSq@@AAPAU0@@?$_Pair_base@PAUtagBaseCharDistanceSq@@PAU1@@std@@QAE@AAPAUtagBaseCharDistanceSq@@0@Z
_TEXT	SEGMENT
__Val1$ = 8						; size = 4
__Val2$ = 12						; size = 4
??$?0AAPAUtagBaseCharDistanceSq@@AAPAU0@@?$_Pair_base@PAUtagBaseCharDistanceSq@@PAU1@@std@@QAE@AAPAUtagBaseCharDistanceSq@@0@Z PROC ; std::_Pair_base<tagBaseCharDistanceSq *,tagBaseCharDistanceSq *>::_Pair_base<tagBaseCharDistanceSq *,tagBaseCharDistanceSq *><tagBaseCharDistanceSq * &,tagBaseCharDistanceSq * &>, COMDAT
; _this$ = ecx

; 163  : 		{	// construct from moved values

  00000	55		 push	 ebp
  00001	8b ec		 mov	 ebp, esp
  00003	8b c1		 mov	 eax, ecx
  00005	8b 4d 08	 mov	 ecx, DWORD PTR __Val1$[ebp]
  00008	8b 09		 mov	 ecx, DWORD PTR [ecx]
  0000a	89 08		 mov	 DWORD PTR [eax], ecx
  0000c	8b 4d 0c	 mov	 ecx, DWORD PTR __Val2$[ebp]
  0000f	8b 09		 mov	 ecx, DWORD PTR [ecx]
  00011	89 48 04	 mov	 DWORD PTR [eax+4], ecx

; 164  : 		}

  00014	5d		 pop	 ebp
  00015	c2 08 00	 ret	 8
??$?0AAPAUtagBaseCharDistanceSq@@AAPAU0@@?$_Pair_base@PAUtagBaseCharDistanceSq@@PAU1@@std@@QAE@AAPAUtagBaseCharDistanceSq@@0@Z ENDP ; std::_Pair_base<tagBaseCharDistanceSq *,tagBaseCharDistanceSq *>::_Pair_base<tagBaseCharDistanceSq *,tagBaseCharDistanceSq *><tagBaseCharDistanceSq * &,tagBaseCharDistanceSq * &>
_TEXT	ENDS
PUBLIC	??$_Move@AAUtagBaseCharDistanceSq@@@std@@YA$$QAUtagBaseCharDistanceSq@@AAU1@@Z ; std::_Move<tagBaseCharDistanceSq &>
; Function compile flags: /Ogsp
;	COMDAT ??$_Move@AAUtagBaseCharDistanceSq@@@std@@YA$$QAUtagBaseCharDistanceSq@@AAU1@@Z
_TEXT	SEGMENT
__Arg$ = 8						; size = 4
??$_Move@AAUtagBaseCharDistanceSq@@@std@@YA$$QAUtagBaseCharDistanceSq@@AAU1@@Z PROC ; std::_Move<tagBaseCharDistanceSq &>, COMDAT

; 94   : 	{	// forward _Arg as movable

  00000	55		 push	 ebp
  00001	8b ec		 mov	 ebp, esp

; 95   : 	return ((typename tr1::_Remove_reference<_Ty>::_Type&&)_Arg);

  00003	8b 45 08	 mov	 eax, DWORD PTR __Arg$[ebp]

; 96   : 	}

  00006	5d		 pop	 ebp
  00007	c3		 ret	 0
??$_Move@AAUtagBaseCharDistanceSq@@@std@@YA$$QAUtagBaseCharDistanceSq@@AAU1@@Z ENDP ; std::_Move<tagBaseCharDistanceSq &>
_TEXT	ENDS
PUBLIC	??$forward@UtagBaseCharDistanceSq@@@std@@YA$$QAUtagBaseCharDistanceSq@@AAU1@@Z ; std::forward<tagBaseCharDistanceSq>
; Function compile flags: /Ogsp
;	COMDAT ??$forward@UtagBaseCharDistanceSq@@@std@@YA$$QAUtagBaseCharDistanceSq@@AAU1@@Z
_TEXT	SEGMENT
__Arg$ = 8						; size = 4
??$forward@UtagBaseCharDistanceSq@@@std@@YA$$QAUtagBaseCharDistanceSq@@AAU1@@Z PROC ; std::forward<tagBaseCharDistanceSq>, COMDAT

; 78   : 	{	// forward _Arg, given explicitly specified type parameter

  00000	55		 push	 ebp
  00001	8b ec		 mov	 ebp, esp

; 79   : 	return ((_Ty&&)_Arg);

  00003	8b 45 08	 mov	 eax, DWORD PTR __Arg$[ebp]

; 80   : 	}

  00006	5d		 pop	 ebp
  00007	c3		 ret	 0
??$forward@UtagBaseCharDistanceSq@@@std@@YA$$QAUtagBaseCharDistanceSq@@AAU1@@Z ENDP ; std::forward<tagBaseCharDistanceSq>
_TEXT	ENDS
PUBLIC	??$_Move_backward@PAUtagBaseCharDistanceSq@@PAU1@@std@@YAPAUtagBaseCharDistanceSq@@PAU1@00U_Nonscalar_ptr_iterator_tag@0@@Z ; std::_Move_backward<tagBaseCharDistanceSq *,tagBaseCharDistanceSq *>
; Function compile flags: /Ogsp
; File c:\program files (x86)\microsoft visual studio 10.0\vc\include\xutility
;	COMDAT ??$_Move_backward@PAUtagBaseCharDistanceSq@@PAU1@@std@@YAPAUtagBaseCharDistanceSq@@PAU1@00U_Nonscalar_ptr_iterator_tag@0@@Z
_TEXT	SEGMENT
__First$ = 8						; size = 4
__Last$ = 12						; size = 4
__Dest$ = 16						; size = 4
___formal$ = 20						; size = 1
??$_Move_backward@PAUtagBaseCharDistanceSq@@PAU1@@std@@YAPAUtagBaseCharDistanceSq@@PAU1@00U_Nonscalar_ptr_iterator_tag@0@@Z PROC ; std::_Move_backward<tagBaseCharDistanceSq *,tagBaseCharDistanceSq *>, COMDAT

; 2617 : 	{	// move [_First, _Last) backwards to [..., _Dest), arbitrary iterators

  00000	55		 push	 ebp
  00001	8b ec		 mov	 ebp, esp
  00003	56		 push	 esi

; 2618 : 	while (_First != _Last)

  00004	8b 75 0c	 mov	 esi, DWORD PTR __Last$[ebp]
  00007	39 75 08	 cmp	 DWORD PTR __First$[ebp], esi
  0000a	74 15		 je	 SHORT $LN9@Move_backw
$LL2@Move_backw:

; 2619 : 		*--_Dest = _STD move(*--_Last);

  0000c	83 6d 10 20	 sub	 DWORD PTR __Dest$[ebp], 32 ; 00000020H
  00010	8b 4d 10	 mov	 ecx, DWORD PTR __Dest$[ebp]
  00013	83 ee 20	 sub	 esi, 32			; 00000020H
  00016	56		 push	 esi
  00017	e8 00 00 00 00	 call	 ??4tagBaseCharDistanceSq@@QAEAAU0@ABU0@@Z
  0001c	3b 75 08	 cmp	 esi, DWORD PTR __First$[ebp]
  0001f	75 eb		 jne	 SHORT $LL2@Move_backw
$LN9@Move_backw:

; 2620 : 	return (_Dest);

  00021	8b 45 10	 mov	 eax, DWORD PTR __Dest$[ebp]
  00024	5e		 pop	 esi

; 2621 : 	}

  00025	5d		 pop	 ebp
  00026	c3		 ret	 0
??$_Move_backward@PAUtagBaseCharDistanceSq@@PAU1@@std@@YAPAUtagBaseCharDistanceSq@@PAU1@00U_Nonscalar_ptr_iterator_tag@0@@Z ENDP ; std::_Move_backward<tagBaseCharDistanceSq *,tagBaseCharDistanceSq *>
_TEXT	ENDS
PUBLIC	?D3DXVec3LengthSq@@YAMPBUD3DXVECTOR3@@@Z	; D3DXVec3LengthSq
; Function compile flags: /Ogsp
; File c:\program files (x86)\microsoft directx sdk (june 2010)\include\d3dx9math.inl
;	COMDAT ?D3DXVec3LengthSq@@YAMPBUD3DXVECTOR3@@@Z
_TEXT	SEGMENT
tv165 = 8						; size = 4
_pV$ = 8						; size = 4
?D3DXVec3LengthSq@@YAMPBUD3DXVECTOR3@@@Z PROC		; D3DXVec3LengthSq, COMDAT

; 1725 : {

  00000	55		 push	 ebp
  00001	8b ec		 mov	 ebp, esp

; 1726 : #ifdef D3DX_DEBUG
; 1727 :     if(!pV)
; 1728 :         return 0.0f;
; 1729 : #endif
; 1730 : 
; 1731 :     return pV->x * pV->x + pV->y * pV->y + pV->z * pV->z;

  00003	8b 45 08	 mov	 eax, DWORD PTR _pV$[ebp]
  00006	d9 40 04	 fld	 DWORD PTR [eax+4]
  00009	d9 00		 fld	 DWORD PTR [eax]
  0000b	d9 40 08	 fld	 DWORD PTR [eax+8]
  0000e	d9 c1		 fld	 ST(1)
  00010	de ca		 fmulp	 ST(2), ST(0)
  00012	d9 c2		 fld	 ST(2)
  00014	de cb		 fmulp	 ST(3), ST(0)
  00016	d9 c9		 fxch	 ST(1)
  00018	de c2		 faddp	 ST(2), ST(0)
  0001a	d9 c0		 fld	 ST(0)
  0001c	de c9		 fmulp	 ST(1), ST(0)
  0001e	de c1		 faddp	 ST(1), ST(0)
  00020	d9 5d 08	 fstp	 DWORD PTR tv165[ebp]
  00023	d9 45 08	 fld	 DWORD PTR tv165[ebp]

; 1732 : }

  00026	5d		 pop	 ebp
  00027	c3		 ret	 0
?D3DXVec3LengthSq@@YAMPBUD3DXVECTOR3@@@Z ENDP		; D3DXVec3LengthSq
_TEXT	ENDS
PUBLIC	?D3DXVec3Dot@@YAMPBUD3DXVECTOR3@@0@Z		; D3DXVec3Dot
; Function compile flags: /Ogsp
;	COMDAT ?D3DXVec3Dot@@YAMPBUD3DXVECTOR3@@0@Z
_TEXT	SEGMENT
tv188 = 8						; size = 4
_pV1$ = 8						; size = 4
_pV2$ = 12						; size = 4
?D3DXVec3Dot@@YAMPBUD3DXVECTOR3@@0@Z PROC		; D3DXVec3Dot, COMDAT

; 1736 : {

  00000	55		 push	 ebp
  00001	8b ec		 mov	 ebp, esp

; 1737 : #ifdef D3DX_DEBUG
; 1738 :     if(!pV1 || !pV2)
; 1739 :         return 0.0f;
; 1740 : #endif
; 1741 : 
; 1742 :     return pV1->x * pV2->x + pV1->y * pV2->y + pV1->z * pV2->z;

  00003	8b 45 08	 mov	 eax, DWORD PTR _pV1$[ebp]
  00006	8b 4d 0c	 mov	 ecx, DWORD PTR _pV2$[ebp]
  00009	d9 40 04	 fld	 DWORD PTR [eax+4]
  0000c	d8 49 04	 fmul	 DWORD PTR [ecx+4]
  0000f	d9 00		 fld	 DWORD PTR [eax]
  00011	d8 09		 fmul	 DWORD PTR [ecx]
  00013	de c1		 faddp	 ST(1), ST(0)
  00015	d9 40 08	 fld	 DWORD PTR [eax+8]
  00018	d8 49 08	 fmul	 DWORD PTR [ecx+8]
  0001b	de c1		 faddp	 ST(1), ST(0)
  0001d	d9 5d 08	 fstp	 DWORD PTR tv188[ebp]
  00020	d9 45 08	 fld	 DWORD PTR tv188[ebp]

; 1743 : }

  00023	5d		 pop	 ebp
  00024	c3		 ret	 0
?D3DXVec3Dot@@YAMPBUD3DXVECTOR3@@0@Z ENDP		; D3DXVec3Dot
_TEXT	ENDS
PUBLIC	?_DECSTR@@YAXPADH@Z				; _DECSTR
; Function compile flags: /Ogsp
; File d:\lost saga for developer\youtube\tutorial\source\src\lsclient\stringprotect.h
;	COMDAT ?_DECSTR@@YAXPADH@Z
_TEXT	SEGMENT
_s$ = 8							; size = 4
_l$ = 12						; size = 4
?_DECSTR@@YAXPADH@Z PROC				; _DECSTR, COMDAT

; 40   : __forceinline void _DECSTR(char* s, int l){int i=0,l4=(l-1)/4,*p=(int*)s;s[l-1]=0;for(;i<l4;++i)*(p++)^=0xEAEBECED;for(i=l4*4;i<l-1;++i)s[i]^=0xED-i%4;}

  00000	55		 push	 ebp
  00001	8b ec		 mov	 ebp, esp
  00003	8b 4d 0c	 mov	 ecx, DWORD PTR _l$[ebp]
  00006	56		 push	 esi
  00007	8b 75 08	 mov	 esi, DWORD PTR _s$[ebp]
  0000a	57		 push	 edi
  0000b	8d 79 ff	 lea	 edi, DWORD PTR [ecx-1]
  0000e	8b c7		 mov	 eax, edi
  00010	99		 cdq
  00011	83 e2 03	 and	 edx, 3
  00014	03 c2		 add	 eax, edx
  00016	c1 f8 02	 sar	 eax, 2
  00019	8b d6		 mov	 edx, esi
  0001b	c6 44 0e ff 00	 mov	 BYTE PTR [esi+ecx-1], 0
  00020	85 c0		 test	 eax, eax
  00022	7e 0e		 jle	 SHORT $LN4@DECSTR
  00024	8b c8		 mov	 ecx, eax
$LL6@DECSTR:
  00026	81 32 ed ec eb
	ea		 xor	 DWORD PTR [edx], -353637139 ; eaebecedH
  0002c	83 c2 04	 add	 edx, 4
  0002f	49		 dec	 ecx
  00030	75 f4		 jne	 SHORT $LL6@DECSTR
$LN4@DECSTR:
  00032	c1 e0 02	 shl	 eax, 2
  00035	eb 17		 jmp	 SHORT $LN14@DECSTR
$LL3@DECSTR:
  00037	8b c8		 mov	 ecx, eax
  00039	81 e1 03 00 00
	80		 and	 ecx, -2147483645	; 80000003H
  0003f	79 05		 jns	 SHORT $LN13@DECSTR
  00041	49		 dec	 ecx
  00042	83 c9 fc	 or	 ecx, -4			; fffffffcH
  00045	41		 inc	 ecx
$LN13@DECSTR:
  00046	b2 ed		 mov	 dl, -19			; ffffffedH
  00048	2a d1		 sub	 dl, cl
  0004a	30 14 30	 xor	 BYTE PTR [eax+esi], dl
  0004d	40		 inc	 eax
$LN14@DECSTR:
  0004e	3b c7		 cmp	 eax, edi
  00050	7c e5		 jl	 SHORT $LL3@DECSTR
  00052	5f		 pop	 edi
  00053	5e		 pop	 esi
  00054	5d		 pop	 ebp
  00055	c3		 ret	 0
?_DECSTR@@YAXPADH@Z ENDP				; _DECSTR
_TEXT	ENDS
PUBLIC	?GetGroup@ioGameEntity@@QBEPAVioEntityGroup@@XZ	; ioGameEntity::GetGroup
; Function compile flags: /Ogsp
; File d:\lost saga for developer\youtube\tutorial\source\src\lsclient\iogameentity.h
;	COMDAT ?GetGroup@ioGameEntity@@QBEPAVioEntityGroup@@XZ
_TEXT	SEGMENT
?GetGroup@ioGameEntity@@QBEPAVioEntityGroup@@XZ PROC	; ioGameEntity::GetGroup, COMDAT
; _this$ = ecx

; 166  : 	inline ioEntityGroup* GetGroup() const { return m_pGroup; }

  00000	8b 41 04	 mov	 eax, DWORD PTR [ecx+4]
  00003	c3		 ret	 0
?GetGroup@ioGameEntity@@QBEPAVioEntityGroup@@XZ ENDP	; ioGameEntity::GetGroup
_TEXT	ENDS
PUBLIC	??0tagBaseCharDistanceSq@@QAE@XZ		; tagBaseCharDistanceSq::tagBaseCharDistanceSq
EXTRN	__imp_??0ioHashString@@QAE@XZ:PROC
; Function compile flags: /Ogsp
; File d:\lost saga for developer\youtube\tutorial\source\src\lsclient\playentityhelpstruct.h
;	COMDAT ??0tagBaseCharDistanceSq@@QAE@XZ
_TEXT	SEGMENT
??0tagBaseCharDistanceSq@@QAE@XZ PROC			; tagBaseCharDistanceSq::tagBaseCharDistanceSq, COMDAT
; _this$ = ecx

; 3001 : 	tagBaseCharDistanceSq()

  00000	53		 push	 ebx
  00001	56		 push	 esi
  00002	57		 push	 edi
  00003	8b d9		 mov	 ebx, ecx
  00005	ff 15 00 00 00
	00		 call	 DWORD PTR __imp_??0ioHashString@@QAE@XZ

; 3002 : 	{
; 3003 : 		m_fDistanceSq = 0.0f;

  0000b	0f 57 c0	 xorps	 xmm0, xmm0
  0000e	f3 0f 11 43 10	 movss	 DWORD PTR [ebx+16], xmm0

; 3004 : 		m_vPos = ioMath::VEC3_ZERO;

  00013	8b 35 00 00 00
	00		 mov	 esi, DWORD PTR __imp_?VEC3_ZERO@ioMath@@2UD3DXVECTOR3@@A
  00019	8d 7b 14	 lea	 edi, DWORD PTR [ebx+20]
  0001c	a5		 movsd
  0001d	a5		 movsd
  0001e	a5		 movsd
  0001f	5f		 pop	 edi
  00020	5e		 pop	 esi

; 3005 : 	}

  00021	8b c3		 mov	 eax, ebx
  00023	5b		 pop	 ebx
  00024	c3		 ret	 0
??0tagBaseCharDistanceSq@@QAE@XZ ENDP			; tagBaseCharDistanceSq::tagBaseCharDistanceSq
_TEXT	ENDS
PUBLIC	??RBaseCharDistanceSqSort2@@QBE_NABUtagBaseCharDistanceSq@@0@Z ; BaseCharDistanceSqSort2::operator()
; Function compile flags: /Ogsp
;	COMDAT ??RBaseCharDistanceSqSort2@@QBE_NABUtagBaseCharDistanceSq@@0@Z
_TEXT	SEGMENT
_lhs$ = 8						; size = 4
_rhs$ = 12						; size = 4
??RBaseCharDistanceSqSort2@@QBE_NABUtagBaseCharDistanceSq@@0@Z PROC ; BaseCharDistanceSqSort2::operator(), COMDAT
; _this$ = ecx

; 3029 : 	{

  00000	55		 push	 ebp
  00001	8b ec		 mov	 ebp, esp

; 3030 : 		if( lhs.m_fDistanceSq < rhs.m_fDistanceSq )

  00003	8b 45 08	 mov	 eax, DWORD PTR _lhs$[ebp]
  00006	f3 0f 10 40 10	 movss	 xmm0, DWORD PTR [eax+16]
  0000b	8b 45 0c	 mov	 eax, DWORD PTR _rhs$[ebp]
  0000e	f3 0f 10 48 10	 movss	 xmm1, DWORD PTR [eax+16]
  00013	0f 5a c0	 cvtps2pd xmm0, xmm0
  00016	0f 5a c9	 cvtps2pd xmm1, xmm1
  00019	66 0f 2f c8	 comisd	 xmm1, xmm0
  0001d	76 04		 jbe	 SHORT $LN1@operator

; 3031 : 		{
; 3032 : 			return true;

  0001f	b0 01		 mov	 al, 1
  00021	eb 02		 jmp	 SHORT $LN2@operator
$LN1@operator:

; 3033 : 		}
; 3034 : 
; 3035 : 		return false;

  00023	32 c0		 xor	 al, al
$LN2@operator:

; 3036 : 	}

  00025	5d		 pop	 ebp
  00026	c2 08 00	 ret	 8
??RBaseCharDistanceSqSort2@@QBE_NABUtagBaseCharDistanceSq@@0@Z ENDP ; BaseCharDistanceSqSort2::operator()
_TEXT	ENDS
PUBLIC	?GetName@ioItem@@QBEABVioHashString@@XZ		; ioItem::GetName
; Function compile flags: /Ogsp
; File d:\lost saga for developer\youtube\tutorial\source\src\lsclient\ioitem.h
;	COMDAT ?GetName@ioItem@@QBEABVioHashString@@XZ
_TEXT	SEGMENT
?GetName@ioItem@@QBEABVioHashString@@XZ PROC		; ioItem::GetName, COMDAT
; _this$ = ecx

; 269  : 	inline const ioHashString& GetName() const { return m_Name; }

  00000	8d 81 34 01 00
	00		 lea	 eax, DWORD PTR [ecx+308]
  00006	c3		 ret	 0
?GetName@ioItem@@QBEABVioHashString@@XZ ENDP		; ioItem::GetName
_TEXT	ENDS
PUBLIC	??1BuffInfoStruct@@QAE@XZ			; BuffInfoStruct::~BuffInfoStruct
; Function compile flags: /Ogsp
;	COMDAT ??1BuffInfoStruct@@QAE@XZ
_TEXT	SEGMENT
??1BuffInfoStruct@@QAE@XZ PROC				; BuffInfoStruct::~BuffInfoStruct, COMDAT
; _this$ = ecx
  00000	ff 25 00 00 00
	00		 jmp	 DWORD PTR __imp_??1ioHashString@@QAE@XZ
??1BuffInfoStruct@@QAE@XZ ENDP				; BuffInfoStruct::~BuffInfoStruct
_TEXT	ENDS
PUBLIC	?GetOwnerItem@ioSkill@@QBEPAVioItem@@XZ		; ioSkill::GetOwnerItem
; Function compile flags: /Ogsp
; File d:\lost saga for developer\youtube\tutorial\source\src\lsclient\ioskill.h
;	COMDAT ?GetOwnerItem@ioSkill@@QBEPAVioItem@@XZ
_TEXT	SEGMENT
?GetOwnerItem@ioSkill@@QBEPAVioItem@@XZ PROC		; ioSkill::GetOwnerItem, COMDAT
; _this$ = ecx

; 397  : 	inline ioItem *GetOwnerItem() const { return m_pOwnerItem; }

  00000	8b 81 a4 02 00
	00		 mov	 eax, DWORD PTR [ecx+676]
  00006	c3		 ret	 0
?GetOwnerItem@ioSkill@@QBEPAVioItem@@XZ ENDP		; ioSkill::GetOwnerItem
_TEXT	ENDS
PUBLIC	?GetName@ioSkill@@QBEABVioHashString@@XZ	; ioSkill::GetName
; Function compile flags: /Ogsp
;	COMDAT ?GetName@ioSkill@@QBEABVioHashString@@XZ
_TEXT	SEGMENT
?GetName@ioSkill@@QBEABVioHashString@@XZ PROC		; ioSkill::GetName, COMDAT
; _this$ = ecx

; 414  : 	inline const ioHashString& GetName() const { return m_Name; }

  00000	8d 41 24	 lea	 eax, DWORD PTR [ecx+36]
  00003	c3		 ret	 0
?GetName@ioSkill@@QBEABVioHashString@@XZ ENDP		; ioSkill::GetName
_TEXT	ENDS
PUBLIC	?GetTypeID@ioBuff@@QBEHXZ			; ioBuff::GetTypeID
; Function compile flags: /Ogsp
; File d:\lost saga for developer\youtube\tutorial\source\src\lsclient\iobuff.h
;	COMDAT ?GetTypeID@ioBuff@@QBEHXZ
_TEXT	SEGMENT
?GetTypeID@ioBuff@@QBEHXZ PROC				; ioBuff::GetTypeID, COMDAT
; _this$ = ecx

; 424  : 	inline int GetTypeID() const { return m_iBuffType; }

  00000	8b 81 cc 03 00
	00		 mov	 eax, DWORD PTR [ecx+972]
  00006	c3		 ret	 0
?GetTypeID@ioBuff@@QBEHXZ ENDP				; ioBuff::GetTypeID
_TEXT	ENDS
PUBLIC	??_7?$CEncrypt@M@@6B@				; CEncrypt<float>::`vftable'
PUBLIC	??1?$CEncrypt@M@@UAE@XZ				; CEncrypt<float>::~CEncrypt<float>
PUBLIC	??_R4?$CEncrypt@M@@6B@				; CEncrypt<float>::`RTTI Complete Object Locator'
PUBLIC	??_R0?AV?$CEncrypt@M@@@8			; CEncrypt<float> `RTTI Type Descriptor'
PUBLIC	??_R3?$CEncrypt@M@@8				; CEncrypt<float>::`RTTI Class Hierarchy Descriptor'
PUBLIC	??_R2?$CEncrypt@M@@8				; CEncrypt<float>::`RTTI Base Class Array'
PUBLIC	??_R1A@?0A@EA@?$CEncrypt@M@@8			; CEncrypt<float>::`RTTI Base Class Descriptor at (0,-1,0,64)'
EXTRN	??1ccddaabb@@UAE@XZ:PROC			; ccddaabb::~ccddaabb
EXTRN	??_E?$CEncrypt@M@@UAEPAXI@Z:PROC		; CEncrypt<float>::`vector deleting destructor'
;	COMDAT ??_R1A@?0A@EA@?$CEncrypt@M@@8
; File d:\lost saga for developer\youtube\tutorial\source\src\lsclient\encryptvalue.h
rdata$r	SEGMENT
??_R1A@?0A@EA@?$CEncrypt@M@@8 DD FLAT:??_R0?AV?$CEncrypt@M@@@8 ; CEncrypt<float>::`RTTI Base Class Descriptor at (0,-1,0,64)'
	DD	00H
	DD	00H
	DD	0ffffffffH
	DD	00H
	DD	040H
	DD	FLAT:??_R3?$CEncrypt@M@@8
rdata$r	ENDS
;	COMDAT ??_R2?$CEncrypt@M@@8
rdata$r	SEGMENT
??_R2?$CEncrypt@M@@8 DD FLAT:??_R1A@?0A@EA@?$CEncrypt@M@@8 ; CEncrypt<float>::`RTTI Base Class Array'
rdata$r	ENDS
;	COMDAT ??_R3?$CEncrypt@M@@8
rdata$r	SEGMENT
??_R3?$CEncrypt@M@@8 DD 00H				; CEncrypt<float>::`RTTI Class Hierarchy Descriptor'
	DD	00H
	DD	01H
	DD	FLAT:??_R2?$CEncrypt@M@@8
rdata$r	ENDS
;	COMDAT ??_R0?AV?$CEncrypt@M@@@8
_DATA	SEGMENT
??_R0?AV?$CEncrypt@M@@@8 DD FLAT:??_7type_info@@6B@	; CEncrypt<float> `RTTI Type Descriptor'
	DD	00H
	DB	'.?AV?$CEncrypt@M@@', 00H
_DATA	ENDS
;	COMDAT ??_R4?$CEncrypt@M@@6B@
rdata$r	SEGMENT
??_R4?$CEncrypt@M@@6B@ DD 00H				; CEncrypt<float>::`RTTI Complete Object Locator'
	DD	00H
	DD	00H
	DD	FLAT:??_R0?AV?$CEncrypt@M@@@8
	DD	FLAT:??_R3?$CEncrypt@M@@8
rdata$r	ENDS
;	COMDAT ??_7?$CEncrypt@M@@6B@
CONST	SEGMENT
??_7?$CEncrypt@M@@6B@ DD FLAT:??_R4?$CEncrypt@M@@6B@	; CEncrypt<float>::`vftable'
	DD	FLAT:??_E?$CEncrypt@M@@UAEPAXI@Z
; Function compile flags: /Ogsp
CONST	ENDS
;	COMDAT ??1?$CEncrypt@M@@UAE@XZ
_TEXT	SEGMENT
??1?$CEncrypt@M@@UAE@XZ PROC				; CEncrypt<float>::~CEncrypt<float>, COMDAT
; _this$ = ecx

; 127  : 	{

  00000	c7 01 00 00 00
	00		 mov	 DWORD PTR [ecx], OFFSET ??_7?$CEncrypt@M@@6B@

; 128  : 	}

  00006	83 c1 0c	 add	 ecx, 12			; 0000000cH
  00009	e9 00 00 00 00	 jmp	 ??1ccddaabb@@UAE@XZ	; ccddaabb::~ccddaabb
??1?$CEncrypt@M@@UAE@XZ ENDP				; CEncrypt<float>::~CEncrypt<float>
; Function compile flags: /Ogsp
_TEXT	ENDS
;	COMDAT ??_G?$CEncrypt@M@@UAEPAXI@Z
_TEXT	SEGMENT
___flags$ = 8						; size = 4
??_G?$CEncrypt@M@@UAEPAXI@Z PROC			; CEncrypt<float>::`scalar deleting destructor', COMDAT
; _this$ = ecx
  00000	55		 push	 ebp
  00001	8b ec		 mov	 ebp, esp
  00003	56		 push	 esi
  00004	8b f1		 mov	 esi, ecx
  00006	8d 4e 0c	 lea	 ecx, DWORD PTR [esi+12]
  00009	c7 06 00 00 00
	00		 mov	 DWORD PTR [esi], OFFSET ??_7?$CEncrypt@M@@6B@
  0000f	e8 00 00 00 00	 call	 ??1ccddaabb@@UAE@XZ	; ccddaabb::~ccddaabb
  00014	f6 45 08 01	 test	 BYTE PTR ___flags$[ebp], 1
  00018	74 07		 je	 SHORT $LN1@scalar@3
  0001a	56		 push	 esi
  0001b	e8 00 00 00 00	 call	 ??3@YAXPAX@Z		; operator delete
  00020	59		 pop	 ecx
$LN1@scalar@3:
  00021	8b c6		 mov	 eax, esi
  00023	5e		 pop	 esi
  00024	5d		 pop	 ebp
  00025	c2 04 00	 ret	 4
??_G?$CEncrypt@M@@UAEPAXI@Z ENDP			; CEncrypt<float>::`scalar deleting destructor'
_TEXT	ENDS
PUBLIC	?EncryptValueToPool@?$CEncrypt@M@@AAEXPBD@Z	; CEncrypt<float>::EncryptValueToPool
EXTRN	?EncryptByte@ccddaabb@@QAEXPBDPADH@Z:PROC	; ccddaabb::EncryptByte
; Function compile flags: /Ogsp
;	COMDAT ?EncryptValueToPool@?$CEncrypt@M@@AAEXPBD@Z
_TEXT	SEGMENT
_value$ = 8						; size = 4
?EncryptValueToPool@?$CEncrypt@M@@AAEXPBD@Z PROC	; CEncrypt<float>::EncryptValueToPool, COMDAT
; _this$ = ecx

; 67   : 	{

  00000	55		 push	 ebp
  00001	8b ec		 mov	 ebp, esp

; 68   : 		m_RC5.EncryptByte( value, m_MemPool, max(m_ValueSize, DEFAULT_ENCRYPT) );

  00003	0f b7 41 06	 movzx	 eax, WORD PTR [ecx+6]
  00007	83 f8 04	 cmp	 eax, 4
  0000a	77 03		 ja	 SHORT $LN4@EncryptVal
  0000c	6a 04		 push	 4
  0000e	58		 pop	 eax
$LN4@EncryptVal:
  0000f	50		 push	 eax
  00010	8d 41 1c	 lea	 eax, DWORD PTR [ecx+28]
  00013	50		 push	 eax
  00014	ff 75 08	 push	 DWORD PTR _value$[ebp]
  00017	83 c1 0c	 add	 ecx, 12			; 0000000cH
  0001a	e8 00 00 00 00	 call	 ?EncryptByte@ccddaabb@@QAEXPBDPADH@Z ; ccddaabb::EncryptByte

; 69   : 		
; 70   : 	}

  0001f	5d		 pop	 ebp
  00020	c2 04 00	 ret	 4
?EncryptValueToPool@?$CEncrypt@M@@AAEXPBD@Z ENDP	; CEncrypt<float>::EncryptValueToPool
_TEXT	ENDS
PUBLIC	?Init@?$CEncrypt@M@@AAEXXZ			; CEncrypt<float>::Init
EXTRN	?Setup@ccddaabb@@QAEXPBDHH@Z:PROC		; ccddaabb::Setup
EXTRN	__imp__rand:PROC
EXTRN	__imp__timeGetTime@0:PROC
EXTRN	__imp__GetCurrentProcessId@0:PROC
; Function compile flags: /Ogsp
;	COMDAT ?Init@?$CEncrypt@M@@AAEXXZ
_TEXT	SEGMENT
_pid$ = -8						; size = 4
_tick$ = -4						; size = 4
?Init@?$CEncrypt@M@@AAEXXZ PROC				; CEncrypt<float>::Init, COMDAT
; _this$ = ecx

; 73   : 	{

  00000	55		 push	 ebp
  00001	8b ec		 mov	 ebp, esp
  00003	51		 push	 ecx
  00004	51		 push	 ecx
  00005	53		 push	 ebx
  00006	56		 push	 esi
  00007	57		 push	 edi
  00008	8b f1		 mov	 esi, ecx

; 74   : 		DWORD pid = GetCurrentProcessId();

  0000a	ff 15 00 00 00
	00		 call	 DWORD PTR __imp__GetCurrentProcessId@0
  00010	89 45 f8	 mov	 DWORD PTR _pid$[ebp], eax

; 75   : 		DWORD tick = timeGetTime();

  00013	ff 15 00 00 00
	00		 call	 DWORD PTR __imp__timeGetTime@0

; 76   : 		m_ValueSize    = sizeof(type);
; 77   : 		m_MemPoolPos   = (unsigned short)( rand()+pid+tick )%(MAX_MEM_POOL-m_ValueSize);

  00019	8b 3d 00 00 00
	00		 mov	 edi, DWORD PTR __imp__rand
  0001f	89 45 fc	 mov	 DWORD PTR _tick$[ebp], eax
  00022	6a 04		 push	 4
  00024	58		 pop	 eax
  00025	66 89 46 06	 mov	 WORD PTR [esi+6], ax
  00029	ff d7		 call	 edi
  0002b	03 45 f8	 add	 eax, DWORD PTR _pid$[ebp]
  0002e	0f b7 4e 06	 movzx	 ecx, WORD PTR [esi+6]
  00032	03 45 fc	 add	 eax, DWORD PTR _tick$[ebp]
  00035	6a 0c		 push	 12			; 0000000cH
  00037	0f b7 c0	 movzx	 eax, ax
  0003a	5b		 pop	 ebx
  0003b	99		 cdq
  0003c	2b d9		 sub	 ebx, ecx
  0003e	f7 fb		 idiv	 ebx
  00040	66 89 56 04	 mov	 WORD PTR [esi+4], dx

; 78   : 		m_EncryptSeed  = (char)( rand()+pid+tick )%256;

  00044	ff d7		 call	 edi
  00046	02 45 f8	 add	 al, BYTE PTR _pid$[ebp]
  00049	02 45 fc	 add	 al, BYTE PTR _tick$[ebp]
  0004c	0f be c0	 movsx	 eax, al
  0004f	25 ff 00 00 80	 and	 eax, -2147483393	; 800000ffH
  00054	79 07		 jns	 SHORT $LN8@Init
  00056	48		 dec	 eax
  00057	0d 00 ff ff ff	 or	 eax, -256		; ffffff00H
  0005c	40		 inc	 eax
$LN8@Init:
  0005d	88 46 08	 mov	 BYTE PTR [esi+8], al

; 79   : 
; 80   : 		for (int i = 0; i < MAX_MEM_POOL ; i++)

  00060	33 db		 xor	 ebx, ebx
$LL3@Init:

; 81   : 			m_MemPool[i] = (char)( rand()+pid+tick )%256; // 

  00062	ff d7		 call	 edi
  00064	02 45 f8	 add	 al, BYTE PTR _pid$[ebp]
  00067	02 45 fc	 add	 al, BYTE PTR _tick$[ebp]
  0006a	0f be c0	 movsx	 eax, al
  0006d	25 ff 00 00 80	 and	 eax, -2147483393	; 800000ffH
  00072	79 07		 jns	 SHORT $LN9@Init
  00074	48		 dec	 eax
  00075	0d 00 ff ff ff	 or	 eax, -256		; ffffff00H
  0007a	40		 inc	 eax
$LN9@Init:
  0007b	88 44 1e 1c	 mov	 BYTE PTR [esi+ebx+28], al
  0007f	43		 inc	 ebx
  00080	83 fb 0c	 cmp	 ebx, 12			; 0000000cH
  00083	7c dd		 jl	 SHORT $LL3@Init

; 82   : 
; 83   : 		//UJ 130913, : szKey  
; 84   : 		//char szKey[ccddaabb::KEY_SIZE];//="";
; 85   : 		//for (int i = 0; i < ccddaabb::KEY_SIZE  ; i++)
; 86   : 		//	szKey[i] = (char)( rand()+pid+tick )%256; // 
; 87   : 		m_RC5.Setup( NULL, pid, tick );

  00085	ff 75 fc	 push	 DWORD PTR _tick$[ebp]
  00088	8d 4e 0c	 lea	 ecx, DWORD PTR [esi+12]
  0008b	ff 75 f8	 push	 DWORD PTR _pid$[ebp]
  0008e	6a 00		 push	 0
  00090	e8 00 00 00 00	 call	 ?Setup@ccddaabb@@QAEXPBDHH@Z ; ccddaabb::Setup
  00095	5f		 pop	 edi
  00096	5e		 pop	 esi
  00097	5b		 pop	 ebx

; 88   : 
; 89   : #ifdef _NOTUSE
; 90   : 		m_value        = 0;
; 91   : 		EncryptValueToPool((char*)&m_value);
; 92   : 		Debug();
; 93   : #endif
; 94   : 	}

  00098	c9		 leave
  00099	c3		 ret	 0
?Init@?$CEncrypt@M@@AAEXXZ ENDP				; CEncrypt<float>::Init
_TEXT	ENDS
PUBLIC	?DecryptValueToPool@?$CEncrypt@M@@QAEXPAM@Z	; CEncrypt<float>::DecryptValueToPool
EXTRN	?DecryptByte@ccddaabb@@QBEXPBDPADH@Z:PROC	; ccddaabb::DecryptByte
; Function compile flags: /Ogsp
;	COMDAT ?DecryptValueToPool@?$CEncrypt@M@@QAEXPAM@Z
_TEXT	SEGMENT
_value$ = 8						; size = 4
?DecryptValueToPool@?$CEncrypt@M@@QAEXPAM@Z PROC	; CEncrypt<float>::DecryptValueToPool, COMDAT
; _this$ = ecx

; 1648 : 	{

  00000	55		 push	 ebp
  00001	8b ec		 mov	 ebp, esp
  00003	56		 push	 esi

; 1649 : 		m_RC5.DecryptByte( m_MemPool, m_TempMem, 4 );

  00004	8d 71 28	 lea	 esi, DWORD PTR [ecx+40]
  00007	6a 04		 push	 4
  00009	8d 41 1c	 lea	 eax, DWORD PTR [ecx+28]
  0000c	56		 push	 esi
  0000d	50		 push	 eax
  0000e	83 c1 0c	 add	 ecx, 12			; 0000000cH
  00011	e8 00 00 00 00	 call	 ?DecryptByte@ccddaabb@@QBEXPBDPADH@Z ; ccddaabb::DecryptByte

; 1650 : 		*value = *((float*)m_TempMem);

  00016	d9 06		 fld	 DWORD PTR [esi]
  00018	8b 45 08	 mov	 eax, DWORD PTR _value$[ebp]
  0001b	d9 18		 fstp	 DWORD PTR [eax]
  0001d	5e		 pop	 esi

; 1651 : 	}

  0001e	5d		 pop	 ebp
  0001f	c2 04 00	 ret	 4
?DecryptValueToPool@?$CEncrypt@M@@QAEXPAM@Z ENDP	; CEncrypt<float>::DecryptValueToPool
_TEXT	ENDS
PUBLIC	?DecryptValueToPool@?$CEncrypt@_N@@QAEXPA_N@Z	; CEncrypt<bool>::DecryptValueToPool
; Function compile flags: /Ogsp
;	COMDAT ?DecryptValueToPool@?$CEncrypt@_N@@QAEXPA_N@Z
_TEXT	SEGMENT
_value$ = 8						; size = 4
?DecryptValueToPool@?$CEncrypt@_N@@QAEXPA_N@Z PROC	; CEncrypt<bool>::DecryptValueToPool, COMDAT
; _this$ = ecx

; 219  : 	{

  00000	55		 push	 ebp
  00001	8b ec		 mov	 ebp, esp
  00003	56		 push	 esi

; 220  : 		m_RC5.DecryptByte( m_MemPool, m_TempMem, 4 );

  00004	8d 71 28	 lea	 esi, DWORD PTR [ecx+40]
  00007	6a 04		 push	 4
  00009	8d 41 1c	 lea	 eax, DWORD PTR [ecx+28]
  0000c	56		 push	 esi
  0000d	50		 push	 eax
  0000e	83 c1 0c	 add	 ecx, 12			; 0000000cH
  00011	e8 00 00 00 00	 call	 ?DecryptByte@ccddaabb@@QBEXPBDPADH@Z ; ccddaabb::DecryptByte

; 221  : 		*value = *((bool*)m_TempMem);

  00016	8a 06		 mov	 al, BYTE PTR [esi]
  00018	8b 4d 08	 mov	 ecx, DWORD PTR _value$[ebp]
  0001b	88 01		 mov	 BYTE PTR [ecx], al
  0001d	5e		 pop	 esi

; 222  : 	}

  0001e	5d		 pop	 ebp
  0001f	c2 04 00	 ret	 4
?DecryptValueToPool@?$CEncrypt@_N@@QAEXPA_N@Z ENDP	; CEncrypt<bool>::DecryptValueToPool
_TEXT	ENDS
PUBLIC	?DecryptValueToPool@?$CEncrypt@W4TeamType@@@@QAEXPAW4TeamType@@@Z ; CEncrypt<enum TeamType>::DecryptValueToPool
; Function compile flags: /Ogsp
;	COMDAT ?DecryptValueToPool@?$CEncrypt@W4TeamType@@@@QAEXPAW4TeamType@@@Z
_TEXT	SEGMENT
_value$ = 8						; size = 4
?DecryptValueToPool@?$CEncrypt@W4TeamType@@@@QAEXPAW4TeamType@@@Z PROC ; CEncrypt<enum TeamType>::DecryptValueToPool, COMDAT
; _this$ = ecx

; 2959 : 	{

  00000	55		 push	 ebp
  00001	8b ec		 mov	 ebp, esp
  00003	56		 push	 esi

; 2960 : 		m_RC5.DecryptByte( m_MemPool, m_TempMem, sizeof(TeamType) );

  00004	8d 71 28	 lea	 esi, DWORD PTR [ecx+40]
  00007	6a 04		 push	 4
  00009	8d 41 1c	 lea	 eax, DWORD PTR [ecx+28]
  0000c	56		 push	 esi
  0000d	50		 push	 eax
  0000e	83 c1 0c	 add	 ecx, 12			; 0000000cH
  00011	e8 00 00 00 00	 call	 ?DecryptByte@ccddaabb@@QBEXPBDPADH@Z ; ccddaabb::DecryptByte

; 2961 : 		*value = *((TeamType*)m_TempMem);

  00016	8b 06		 mov	 eax, DWORD PTR [esi]
  00018	8b 4d 08	 mov	 ecx, DWORD PTR _value$[ebp]
  0001b	89 01		 mov	 DWORD PTR [ecx], eax
  0001d	5e		 pop	 esi

; 2962 : 	}

  0001e	5d		 pop	 ebp
  0001f	c2 04 00	 ret	 4
?DecryptValueToPool@?$CEncrypt@W4TeamType@@@@QAEXPAW4TeamType@@@Z ENDP ; CEncrypt<enum TeamType>::DecryptValueToPool
_TEXT	ENDS
PUBLIC	?size@?$vector@UBuffInfoStruct@@V?$allocator@UBuffInfoStruct@@@std@@@std@@QBEIXZ ; std::vector<BuffInfoStruct,std::allocator<BuffInfoStruct> >::size
; Function compile flags: /Ogsp
; File c:\program files (x86)\microsoft visual studio 10.0\vc\include\vector
;	COMDAT ?size@?$vector@UBuffInfoStruct@@V?$allocator@UBuffInfoStruct@@@std@@@std@@QBEIXZ
_TEXT	SEGMENT
?size@?$vector@UBuffInfoStruct@@V?$allocator@UBuffInfoStruct@@@std@@@std@@QBEIXZ PROC ; std::vector<BuffInfoStruct,std::allocator<BuffInfoStruct> >::size, COMDAT
; _this$ = ecx

; 879  : 		return (this->_Mylast - this->_Myfirst);

  00000	8b 41 04	 mov	 eax, DWORD PTR [ecx+4]
  00003	2b 01		 sub	 eax, DWORD PTR [ecx]
  00005	6a 14		 push	 20			; 00000014H
  00007	99		 cdq
  00008	59		 pop	 ecx
  00009	f7 f9		 idiv	 ecx

; 880  : 		}

  0000b	c3		 ret	 0
?size@?$vector@UBuffInfoStruct@@V?$allocator@UBuffInfoStruct@@@std@@@std@@QBEIXZ ENDP ; std::vector<BuffInfoStruct,std::allocator<BuffInfoStruct> >::size
_TEXT	ENDS
EXTRN	__imp_??0exception@std@@QAE@ABV01@@Z:PROC
; Function compile flags: /Ogsp
;	COMDAT ??0bad_alloc@std@@QAE@ABV01@@Z
_TEXT	SEGMENT
___that$ = 8						; size = 4
??0bad_alloc@std@@QAE@ABV01@@Z PROC			; std::bad_alloc::bad_alloc, COMDAT
; _this$ = ecx
  00000	55		 push	 ebp
  00001	8b ec		 mov	 ebp, esp
  00003	56		 push	 esi
  00004	ff 75 08	 push	 DWORD PTR ___that$[ebp]
  00007	8b f1		 mov	 esi, ecx
  00009	ff 15 00 00 00
	00		 call	 DWORD PTR __imp_??0exception@std@@QAE@ABV01@@Z
  0000f	c7 06 00 00 00
	00		 mov	 DWORD PTR [esi], OFFSET ??_7bad_alloc@std@@6B@
  00015	8b c6		 mov	 eax, esi
  00017	5e		 pop	 esi
  00018	5d		 pop	 ebp
  00019	c2 04 00	 ret	 4
??0bad_alloc@std@@QAE@ABV01@@Z ENDP			; std::bad_alloc::bad_alloc
_TEXT	ENDS
PUBLIC	??0BuffInfoStruct@@QAE@ABU0@@Z			; BuffInfoStruct::BuffInfoStruct
; Function compile flags: /Ogsp
;	COMDAT ??0BuffInfoStruct@@QAE@ABU0@@Z
_TEXT	SEGMENT
___that$ = 8						; size = 4
??0BuffInfoStruct@@QAE@ABU0@@Z PROC			; BuffInfoStruct::BuffInfoStruct, COMDAT
; _this$ = ecx
  00000	55		 push	 ebp
  00001	8b ec		 mov	 ebp, esp
  00003	56		 push	 esi
  00004	57		 push	 edi
  00005	8b 7d 08	 mov	 edi, DWORD PTR ___that$[ebp]
  00008	57		 push	 edi
  00009	8b f1		 mov	 esi, ecx
  0000b	ff 15 00 00 00
	00		 call	 DWORD PTR __imp_??0ioHashString@@QAE@ABV0@@Z
  00011	8b 47 10	 mov	 eax, DWORD PTR [edi+16]
  00014	89 46 10	 mov	 DWORD PTR [esi+16], eax
  00017	5f		 pop	 edi
  00018	8b c6		 mov	 eax, esi
  0001a	5e		 pop	 esi
  0001b	5d		 pop	 ebp
  0001c	c2 04 00	 ret	 4
??0BuffInfoStruct@@QAE@ABU0@@Z ENDP			; BuffInfoStruct::BuffInfoStruct
_TEXT	ENDS
PUBLIC	??_R0?AVioBuff@@@8				; ioBuff `RTTI Type Descriptor'
PUBLIC	??_R0?AVioConcentrateTargetBuff@@@8		; ioConcentrateTargetBuff `RTTI Type Descriptor'
PUBLIC	?ToConcentrateTargetBuff@@YAPAVioConcentrateTargetBuff@@PAVioBuff@@@Z ; ToConcentrateTargetBuff
EXTRN	___RTDynamicCast:PROC
;	COMDAT ??_R0?AVioBuff@@@8
; File d:\lost saga for developer\youtube\tutorial\source\src\lsclient\iobuff.h
_DATA	SEGMENT
??_R0?AVioBuff@@@8 DD FLAT:??_7type_info@@6B@		; ioBuff `RTTI Type Descriptor'
	DD	00H
	DB	'.?AVioBuff@@', 00H
_DATA	ENDS
;	COMDAT ??_R0?AVioConcentrateTargetBuff@@@8
_DATA	SEGMENT
??_R0?AVioConcentrateTargetBuff@@@8 DD FLAT:??_7type_info@@6B@ ; ioConcentrateTargetBuff `RTTI Type Descriptor'
	DD	00H
	DB	'.?AVioConcentrateTargetBuff@@', 00H
; Function compile flags: /Ogsp
; File d:\lost saga for developer\youtube\tutorial\source\src\lsclient\ioconcentratetargetbuff.h
_DATA	ENDS
;	COMDAT ?ToConcentrateTargetBuff@@YAPAVioConcentrateTargetBuff@@PAVioBuff@@@Z
_TEXT	SEGMENT
_pBuff$ = 8						; size = 4
?ToConcentrateTargetBuff@@YAPAVioConcentrateTargetBuff@@PAVioBuff@@@Z PROC ; ToConcentrateTargetBuff, COMDAT

; 80   : {

  00000	55		 push	 ebp
  00001	8b ec		 mov	 ebp, esp

; 81   : 	if( !pBuff || pBuff->GetTypeID() != BT_CONCENTRATE_TARGET )

  00003	8b 45 08	 mov	 eax, DWORD PTR _pBuff$[ebp]
  00006	85 c0		 test	 eax, eax
  00008	74 25		 je	 SHORT $LN1@ToConcentr
  0000a	81 b8 cc 03 00
	00 89 00 00 00	 cmp	 DWORD PTR [eax+972], 137 ; 00000089H
  00014	75 19		 jne	 SHORT $LN1@ToConcentr

; 83   : 
; 84   : 	return dynamic_cast< ioConcentrateTargetBuff* >( pBuff );

  00016	6a 00		 push	 0
  00018	68 00 00 00 00	 push	 OFFSET ??_R0?AVioConcentrateTargetBuff@@@8
  0001d	68 00 00 00 00	 push	 OFFSET ??_R0?AVioBuff@@@8
  00022	6a 00		 push	 0
  00024	50		 push	 eax
  00025	e8 00 00 00 00	 call	 ___RTDynamicCast
  0002a	83 c4 14	 add	 esp, 20			; 00000014H

; 85   : }

  0002d	5d		 pop	 ebp
  0002e	c3		 ret	 0
$LN1@ToConcentr:

; 82   : 		return NULL;

  0002f	33 c0		 xor	 eax, eax

; 85   : }

  00031	5d		 pop	 ebp
  00032	c3		 ret	 0
?ToConcentrateTargetBuff@@YAPAVioConcentrateTargetBuff@@PAVioBuff@@@Z ENDP ; ToConcentrateTargetBuff
_TEXT	ENDS
PUBLIC	??_7ioTargetBuffSkill@@6B@			; ioTargetBuffSkill::`vftable'
PUBLIC	??1ioTargetBuffSkill@@UAE@XZ			; ioTargetBuffSkill::~ioTargetBuffSkill
PUBLIC	??_R4ioTargetBuffSkill@@6B@			; ioTargetBuffSkill::`RTTI Complete Object Locator'
PUBLIC	??_R0?AVioTargetBuffSkill@@@8			; ioTargetBuffSkill `RTTI Type Descriptor'
PUBLIC	??_R3ioTargetBuffSkill@@8			; ioTargetBuffSkill::`RTTI Class Hierarchy Descriptor'
PUBLIC	??_R2ioTargetBuffSkill@@8			; ioTargetBuffSkill::`RTTI Base Class Array'
PUBLIC	??_R1A@?0A@EA@ioTargetBuffSkill@@8		; ioTargetBuffSkill::`RTTI Base Class Descriptor at (0,-1,0,64)'
PUBLIC	??_R1A@?0A@EA@ioBuffSkill@@8			; ioBuffSkill::`RTTI Base Class Descriptor at (0,-1,0,64)'
PUBLIC	??_R0?AVioBuffSkill@@@8				; ioBuffSkill `RTTI Type Descriptor'
PUBLIC	??_R3ioBuffSkill@@8				; ioBuffSkill::`RTTI Class Hierarchy Descriptor'
PUBLIC	??_R2ioBuffSkill@@8				; ioBuffSkill::`RTTI Base Class Array'
PUBLIC	??_R1A@?0A@EA@ioSkill@@8			; ioSkill::`RTTI Base Class Descriptor at (0,-1,0,64)'
PUBLIC	??_R0?AVioSkill@@@8				; ioSkill `RTTI Type Descriptor'
PUBLIC	??_R3ioSkill@@8					; ioSkill::`RTTI Class Hierarchy Descriptor'
PUBLIC	??_R2ioSkill@@8					; ioSkill::`RTTI Base Class Array'
PUBLIC	?LoadProperty@ioTargetBuffSkill@@UAEXAAVioINILoader@@@Z ; ioTargetBuffSkill::LoadProperty
PUBLIC	?Clone@ioTargetBuffSkill@@UAEPAVioSkill@@XZ	; ioTargetBuffSkill::Clone
PUBLIC	?IsProtected@ioTargetBuffSkill@@UBE_NH@Z	; ioTargetBuffSkill::IsProtected
PUBLIC	?GetDefenseSkillBreakeType@ioSkill@@UBE?AW4DefenseBreakType@@XZ ; ioSkill::GetDefenseSkillBreakeType
PUBLIC	?GetSkillEndNextJumpAmt@ioSkill@@UBEMXZ		; ioSkill::GetSkillEndNextJumpAmt
PUBLIC	?GetSkillEndNextLandRate@ioSkill@@UBEMXZ	; ioSkill::GetSkillEndNextLandRate
PUBLIC	?GetSkillEndNextJumpMustEnable@ioSkill@@UAE?AW4SkillEndJumpType@@XZ ; ioSkill::GetSkillEndNextJumpMustEnable
PUBLIC	?EnableChangeGrapplingTargetPos@ioSkill@@UBE_NXZ ; ioSkill::EnableChangeGrapplingTargetPos
PUBLIC	?OnSkillStart@ioTargetBuffSkill@@UAE_NPAVioBaseChar@@@Z ; ioTargetBuffSkill::OnSkillStart
PUBLIC	?OnProcessState@ioTargetBuffSkill@@UAEXPAVioBaseChar@@PAVioPlayStage@@@Z ; ioTargetBuffSkill::OnProcessState
PUBLIC	?OnSkillEnd@ioTargetBuffSkill@@UAEXPAVioBaseChar@@@Z ; ioTargetBuffSkill::OnSkillEnd
PUBLIC	?ApplyExtraSkillInfo@ioTargetBuffSkill@@UAEXPAVioBaseChar@@PAVioPlayStage@@AAVSP2Packet@@@Z ; ioTargetBuffSkill::ApplyExtraSkillInfo
PUBLIC	?IsInvisibleBottomCircle@ioSkill@@UAE_NPAVioBaseChar@@@Z ; ioSkill::IsInvisibleBottomCircle
PUBLIC	?IsCanJumpingSkill@ioSkill@@UBE_NXZ		; ioSkill::IsCanJumpingSkill
PUBLIC	?IsCanJumpingSkillOnBlowWound@ioSkill@@UBE_NXZ	; ioSkill::IsCanJumpingSkillOnBlowWound
PUBLIC	?IsCanDownSkill@ioSkill@@UBE_NXZ		; ioSkill::IsCanDownSkill
PUBLIC	?IsCanBlowWoundSkill@ioSkill@@UBE_NXZ		; ioSkill::IsCanBlowWoundSkill
PUBLIC	?IsCanWoundSkill@ioSkill@@UBE_NXZ		; ioSkill::IsCanWoundSkill
PUBLIC	?IsUseActiveCnt@ioSkill@@UBE_NXZ		; ioSkill::IsUseActiveCnt
PUBLIC	?GetMaxActiveCnt@ioSkill@@UBEHPAVioBaseChar@@@Z	; ioSkill::GetMaxActiveCnt
PUBLIC	?GetCurActiveCnt@ioSkill@@UBEHPAVioBaseChar@@@Z	; ioSkill::GetCurActiveCnt
EXTRN	??1ioBuffSkill@@UAE@XZ:PROC			; ioBuffSkill::~ioBuffSkill
EXTRN	___CxxFrameHandler3:PROC
EXTRN	@__security_check_cookie@4:PROC
EXTRN	__EH_epilog3:PROC
EXTRN	__EH_prolog3:PROC
EXTRN	?GetTypeID@ioBuffSkill@@UBEHXZ:PROC		; ioBuffSkill::GetTypeID
EXTRN	?IsCanSwitchSkill@ioSkill@@UBE_NXZ:PROC		; ioSkill::IsCanSwitchSkill
EXTRN	?IsCanSemiSwitchSkill@ioSkill@@UBE_NXZ:PROC	; ioSkill::IsCanSemiSwitchSkill
EXTRN	?IsCanCancelBySkill@ioSkill@@UBE_NPAVioBaseChar@@AAH@Z:PROC ; ioSkill::IsCanCancelBySkill
EXTRN	?IsCanUseZeroHP@ioSkill@@UBE_NPAVioBaseChar@@@Z:PROC ; ioSkill::IsCanUseZeroHP
EXTRN	?IsCanUseSkillWithCrown@ioSkill@@UAE_NPAVioBaseChar@@@Z:PROC ; ioSkill::IsCanUseSkillWithCrown
EXTRN	?IsCanUseBoss@ioSkill@@UBE_NPAVioBaseChar@@@Z:PROC ; ioSkill::IsCanUseBoss
EXTRN	?IsCanUseFootball@ioSkill@@UBE_NXZ:PROC		; ioSkill::IsCanUseFootball
EXTRN	?IsCanUseGangSiMode@ioSkill@@UBE_NXZ:PROC	; ioSkill::IsCanUseGangSiMode
EXTRN	?IsCanUseByWeaponType@ioSkill@@UBE_NPAVioBaseChar@@@Z:PROC ; ioSkill::IsCanUseByWeaponType
EXTRN	?IsCanUseThunderBirdHold@ioSkill@@UBE_NPAVioBaseChar@@@Z:PROC ; ioSkill::IsCanUseThunderBirdHold
EXTRN	?IsCanUseLimitHP@ioSkill@@UBE_NPAVioBaseChar@@@Z:PROC ; ioSkill::IsCanUseLimitHP
EXTRN	?IsCanUseSkill@ioBuffSkill@@UAE_NPAVioBaseChar@@_N@Z:PROC ; ioBuffSkill::IsCanUseSkill
EXTRN	?IsOnOffEnable@ioBuffSkill@@UAE_NXZ:PROC	; ioBuffSkill::IsOnOffEnable
EXTRN	?IsCanDefenseStateSkill@ioSkill@@UAE_NXZ:PROC	; ioSkill::IsCanDefenseStateSkill
EXTRN	?SetDefenseStateSkill@ioSkill@@UAEXPAVioBaseChar@@@Z:PROC ; ioSkill::SetDefenseStateSkill
EXTRN	?HasBuff@ioBuffSkill@@UBE_NH@Z:PROC		; ioBuffSkill::HasBuff
EXTRN	?GetBuffType@ioBuffSkill@@UAEHH@Z:PROC		; ioBuffSkill::GetBuffType
EXTRN	?IsCharSkipState@ioSkill@@UBE?AW4SkillCharColType@@XZ:PROC ; ioSkill::IsCharSkipState
EXTRN	?IsEntityCollisionSkipState@ioSkill@@UBE_NXZ:PROC ; ioSkill::IsEntityCollisionSkipState
EXTRN	?IsEndState@ioBuffSkill@@UBE_NXZ:PROC		; ioBuffSkill::IsEndState
EXTRN	?IsAttackEndState@ioSkill@@UBE_NXZ:PROC		; ioSkill::IsAttackEndState
EXTRN	?IsJumpState@ioSkill@@UBE_NXZ:PROC		; ioSkill::IsJumpState
EXTRN	?IsDownState@ioSkill@@UBE_NXZ:PROC		; ioSkill::IsDownState
EXTRN	?IsNoDropState@ioSkill@@UBE_NXZ:PROC		; ioSkill::IsNoDropState
EXTRN	?IsCanSendControl@ioSkill@@UBE_NXZ:PROC		; ioSkill::IsCanSendControl
EXTRN	?IsSkipState@ioSkill@@UBE_NXZ:PROC		; ioSkill::IsSkipState
EXTRN	?GetSkillMoveRate@ioSkill@@UBEMXZ:PROC		; ioSkill::GetSkillMoveRate
EXTRN	?SetSkillGrapplingState@ioSkill@@UAE_NPAVioBaseChar@@ABVioHashString@@@Z:PROC ; ioSkill::SetSkillGrapplingState
EXTRN	?GetGrapplingTargetPos@ioSkill@@UAE?AUD3DXVECTOR3@@PAVioBaseChar@@0@Z:PROC ; ioSkill::GetGrapplingTargetPos
EXTRN	?GetGrapplingTargetPos@ioSkill@@UAE?AUD3DXVECTOR3@@PAVioBaseChar@@@Z:PROC ; ioSkill::GetGrapplingTargetPos
EXTRN	?GetSkillWoundGrapplingInfo@ioSkill@@UAE?AUGrapplingSkillWoundedInfo@@XZ:PROC ; ioSkill::GetSkillWoundGrapplingInfo
EXTRN	?SetCreateWeaponDependency@ioSkill@@UAEXPAVioBaseChar@@PAVioPlayStage@@@Z:PROC ; ioSkill::SetCreateWeaponDependency
EXTRN	?SetNextSkillState@ioSkill@@UAEXPAVioBaseChar@@PAVioWeapon@@@Z:PROC ; ioSkill::SetNextSkillState
EXTRN	?OnSkillEndByWounded@ioSkill@@UAEXPAVioBaseChar@@@Z:PROC ; ioSkill::OnSkillEndByWounded
EXTRN	?OnProcessNotUseSkill@ioBuffSkill@@UAEXPAVioBaseChar@@PAVioPlayStage@@@Z:PROC ; ioBuffSkill::OnProcessNotUseSkill
EXTRN	?OnSkillItemRelease@ioBuffSkill@@UAEXPAVioBaseChar@@@Z:PROC ; ioBuffSkill::OnSkillItemRelease
EXTRN	?ApplyAttributeToWeapon@ioSkill@@UAEXPAVioWeapon@@PAVioPlayStage@@@Z:PROC ; ioSkill::ApplyAttributeToWeapon
EXTRN	?ApplyEquipSlotSkillExtraInfo@ioSkill@@UAEXPAVioBaseChar@@PAVioPlayStage@@AAVSP2Packet@@@Z:PROC ; ioSkill::ApplyEquipSlotSkillExtraInfo
EXTRN	?ApplyExtraPassiveSkillInfo@ioSkill@@UAEXPAVioBaseChar@@PAVioPlayStage@@AAVSP2Packet@@@Z:PROC ; ioSkill::ApplyExtraPassiveSkillInfo
EXTRN	?StartPreDelayEffect@ioSkill@@UAEXPAVioBaseChar@@@Z:PROC ; ioSkill::StartPreDelayEffect
EXTRN	?EndPreDelayEffect@ioSkill@@UAEXPAVioBaseChar@@@Z:PROC ; ioSkill::EndPreDelayEffect
EXTRN	?IsUseAutoTargetValue@ioSkill@@UAE_NXZ:PROC	; ioSkill::IsUseAutoTargetValue
EXTRN	?IsAutoTargetDownState@ioSkill@@UAE_NXZ:PROC	; ioSkill::IsAutoTargetDownState
EXTRN	?CheckUseBuff@ioBuffSkill@@UAE_NPAVioBaseChar@@@Z:PROC ; ioBuffSkill::CheckUseBuff
EXTRN	?CheckUseActiveCount@ioSkill@@UAE_NXZ:PROC	; ioSkill::CheckUseActiveCount
EXTRN	?CheckAniRotate@ioSkill@@UAEXPAVioBaseChar@@@Z:PROC ; ioSkill::CheckAniRotate
EXTRN	?IsEnableDashCheck@ioSkill@@UAE_NPAVioBaseChar@@@Z:PROC ; ioSkill::IsEnableDashCheck
EXTRN	?IsEnableMultiActive@ioSkill@@UAE_NPAVioBaseChar@@@Z:PROC ; ioSkill::IsEnableMultiActive
EXTRN	?GetAutoTargetValue@ioSkill@@UAEXAAM00@Z:PROC	; ioSkill::GetAutoTargetValue
EXTRN	?GetSkillGravityRate@ioSkill@@UAEMXZ:PROC	; ioSkill::GetSkillGravityRate
EXTRN	?GetSkillMotionName@ioSkill@@UBEABVioHashString@@XZ:PROC ; ioSkill::GetSkillMotionName
EXTRN	?HasSkillMotion@ioSkill@@UBE_NXZ:PROC		; ioSkill::HasSkillMotion
EXTRN	?GetSkillMotionRate@ioSkill@@UBEMXZ:PROC	; ioSkill::GetSkillMotionRate
EXTRN	?IsPreDelayProtect@ioSkill@@UBE_NXZ:PROC	; ioSkill::IsPreDelayProtect
EXTRN	?GetPreDelayAniName@ioSkill@@UBEABVioHashString@@XZ:PROC ; ioSkill::GetPreDelayAniName
EXTRN	?GetPreDelayTime@ioSkill@@UBEKXZ:PROC		; ioSkill::GetPreDelayTime
EXTRN	?GetPreDelayOwnerEffect@ioSkill@@UBEABVioHashString@@XZ:PROC ; ioSkill::GetPreDelayOwnerEffect
EXTRN	?GetPreDelayOtherEffect@ioSkill@@UBEABVioHashString@@XZ:PROC ; ioSkill::GetPreDelayOtherEffect
EXTRN	?SetCancelSkill@ioSkill@@UAEXPAVioBaseChar@@@Z:PROC ; ioSkill::SetCancelSkill
EXTRN	?ClearAirJump@ioSkill@@MAEXXZ:PROC		; ioSkill::ClearAirJump
EXTRN	?SetAirJump@ioSkill@@MAEXPAVioBaseChar@@HM@Z:PROC ; ioSkill::SetAirJump
EXTRN	?CheckAirJump@ioSkill@@MAEXPAVioBaseChar@@@Z:PROC ; ioSkill::CheckAirJump
EXTRN	?UseActiveCount@ioSkill@@UAE_NPAVioBaseChar@@@Z:PROC ; ioSkill::UseActiveCount
EXTRN	?GetMaxActiveCount@ioSkill@@UAEHPAVioBaseChar@@@Z:PROC ; ioSkill::GetMaxActiveCount
EXTRN	?GetCurActiveCount@ioSkill@@UAEHPAVioBaseChar@@@Z:PROC ; ioSkill::GetCurActiveCount
EXTRN	?HideHPGauge@ioSkill@@UAE_NXZ:PROC		; ioSkill::HideHPGauge
EXTRN	?SetInfoByApplyWeapon@ioSkill@@UAEXPAVioBaseChar@@0K_N@Z:PROC ; ioSkill::SetInfoByApplyWeapon
EXTRN	?SetCollisionByApplySkill@ioSkill@@UAEXXZ:PROC	; ioSkill::SetCollisionByApplySkill
EXTRN	?SetChargingRateForWeapon@ioSkill@@UAEXPAVioWeapon@@@Z:PROC ; ioSkill::SetChargingRateForWeapon
EXTRN	?IsFixedExceptionCamera@ioSkill@@UAE_NXZ:PROC	; ioSkill::IsFixedExceptionCamera
EXTRN	??_EioTargetBuffSkill@@UAEPAXI@Z:PROC		; ioTargetBuffSkill::`vector deleting destructor'
EXTRN	?StartPreDelayAnimation@ioBuffSkill@@UAE_NPAVioBaseChar@@@Z:PROC ; ioBuffSkill::StartPreDelayAnimation
EXTRN	?BuffSkillSet@ioBuffSkill@@UAEXPAVioBaseChar@@@Z:PROC ; ioBuffSkill::BuffSkillSet
EXTRN	?RemoveSkillBuff@ioBuffSkill@@UAEXPAVioBaseChar@@ABVioHashString@@@Z:PROC ; ioBuffSkill::RemoveSkillBuff
EXTRN	?RemoveSkillBuff@ioBuffSkill@@UAEXPAVioBaseChar@@@Z:PROC ; ioBuffSkill::RemoveSkillBuff
EXTRN	?RemoveAreaWeapon@ioBuffSkill@@UAEXPAVioBaseChar@@@Z:PROC ; ioBuffSkill::RemoveAreaWeapon
EXTRN	?GetCreateItemCode@ioBuffSkill@@UAEKPAVioBaseChar@@@Z:PROC ; ioBuffSkill::GetCreateItemCode
;	COMDAT ??_R2ioSkill@@8
; File d:\lost saga for developer\youtube\tutorial\source\src\lsclient\encryptvalue.h
rdata$r	SEGMENT
??_R2ioSkill@@8 DD FLAT:??_R1A@?0A@EA@ioSkill@@8	; ioSkill::`RTTI Base Class Array'
rdata$r	ENDS
;	COMDAT ??_R3ioSkill@@8
rdata$r	SEGMENT
??_R3ioSkill@@8 DD 00H					; ioSkill::`RTTI Class Hierarchy Descriptor'
	DD	00H
	DD	01H
	DD	FLAT:??_R2ioSkill@@8
rdata$r	ENDS
;	COMDAT ??_R0?AVioSkill@@@8
_DATA	SEGMENT
??_R0?AVioSkill@@@8 DD FLAT:??_7type_info@@6B@		; ioSkill `RTTI Type Descriptor'
	DD	00H
	DB	'.?AVioSkill@@', 00H
_DATA	ENDS
;	COMDAT ??_R1A@?0A@EA@ioSkill@@8
rdata$r	SEGMENT
??_R1A@?0A@EA@ioSkill@@8 DD FLAT:??_R0?AVioSkill@@@8	; ioSkill::`RTTI Base Class Descriptor at (0,-1,0,64)'
	DD	00H
	DD	00H
	DD	0ffffffffH
	DD	00H
	DD	040H
	DD	FLAT:??_R3ioSkill@@8
rdata$r	ENDS
;	COMDAT ??_R2ioBuffSkill@@8
rdata$r	SEGMENT
??_R2ioBuffSkill@@8 DD FLAT:??_R1A@?0A@EA@ioBuffSkill@@8 ; ioBuffSkill::`RTTI Base Class Array'
	DD	FLAT:??_R1A@?0A@EA@ioSkill@@8
rdata$r	ENDS
;	COMDAT ??_R3ioBuffSkill@@8
rdata$r	SEGMENT
??_R3ioBuffSkill@@8 DD 00H				; ioBuffSkill::`RTTI Class Hierarchy Descriptor'
	DD	00H
	DD	02H
	DD	FLAT:??_R2ioBuffSkill@@8
rdata$r	ENDS
;	COMDAT ??_R0?AVioBuffSkill@@@8
_DATA	SEGMENT
??_R0?AVioBuffSkill@@@8 DD FLAT:??_7type_info@@6B@	; ioBuffSkill `RTTI Type Descriptor'
	DD	00H
	DB	'.?AVioBuffSkill@@', 00H
_DATA	ENDS
;	COMDAT ??_R1A@?0A@EA@ioBuffSkill@@8
rdata$r	SEGMENT
??_R1A@?0A@EA@ioBuffSkill@@8 DD FLAT:??_R0?AVioBuffSkill@@@8 ; ioBuffSkill::`RTTI Base Class Descriptor at (0,-1,0,64)'
	DD	01H
	DD	00H
	DD	0ffffffffH
	DD	00H
	DD	040H
	DD	FLAT:??_R3ioBuffSkill@@8
rdata$r	ENDS
;	COMDAT ??_R1A@?0A@EA@ioTargetBuffSkill@@8
rdata$r	SEGMENT
??_R1A@?0A@EA@ioTargetBuffSkill@@8 DD FLAT:??_R0?AVioTargetBuffSkill@@@8 ; ioTargetBuffSkill::`RTTI Base Class Descriptor at (0,-1,0,64)'
	DD	02H
	DD	00H
	DD	0ffffffffH
	DD	00H
	DD	040H
	DD	FLAT:??_R3ioTargetBuffSkill@@8
rdata$r	ENDS
;	COMDAT ??_R2ioTargetBuffSkill@@8
rdata$r	SEGMENT
??_R2ioTargetBuffSkill@@8 DD FLAT:??_R1A@?0A@EA@ioTargetBuffSkill@@8 ; ioTargetBuffSkill::`RTTI Base Class Array'
	DD	FLAT:??_R1A@?0A@EA@ioBuffSkill@@8
	DD	FLAT:??_R1A@?0A@EA@ioSkill@@8
rdata$r	ENDS
;	COMDAT ??_R3ioTargetBuffSkill@@8
rdata$r	SEGMENT
??_R3ioTargetBuffSkill@@8 DD 00H			; ioTargetBuffSkill::`RTTI Class Hierarchy Descriptor'
	DD	00H
	DD	03H
	DD	FLAT:??_R2ioTargetBuffSkill@@8
rdata$r	ENDS
;	COMDAT ??_R0?AVioTargetBuffSkill@@@8
_DATA	SEGMENT
??_R0?AVioTargetBuffSkill@@@8 DD FLAT:??_7type_info@@6B@ ; ioTargetBuffSkill `RTTI Type Descriptor'
	DD	00H
	DB	'.?AVioTargetBuffSkill@@', 00H
_DATA	ENDS
;	COMDAT ??_R4ioTargetBuffSkill@@6B@
rdata$r	SEGMENT
??_R4ioTargetBuffSkill@@6B@ DD 00H			; ioTargetBuffSkill::`RTTI Complete Object Locator'
	DD	00H
	DD	00H
	DD	FLAT:??_R0?AVioTargetBuffSkill@@@8
	DD	FLAT:??_R3ioTargetBuffSkill@@8
rdata$r	ENDS
;	COMDAT ??_7ioTargetBuffSkill@@6B@
CONST	SEGMENT
??_7ioTargetBuffSkill@@6B@ DD FLAT:??_R4ioTargetBuffSkill@@6B@ ; ioTargetBuffSkill::`vftable'
	DD	FLAT:?LoadProperty@ioTargetBuffSkill@@UAEXAAVioINILoader@@@Z
	DD	FLAT:?Clone@ioTargetBuffSkill@@UAEPAVioSkill@@XZ
	DD	FLAT:?GetTypeID@ioBuffSkill@@UBEHXZ
	DD	FLAT:?IsProtected@ioTargetBuffSkill@@UBE_NH@Z
	DD	FLAT:?IsCanSwitchSkill@ioSkill@@UBE_NXZ
	DD	FLAT:?IsCanSemiSwitchSkill@ioSkill@@UBE_NXZ
	DD	FLAT:?IsCanCancelBySkill@ioSkill@@UBE_NPAVioBaseChar@@AAH@Z
	DD	FLAT:?IsCanUseZeroHP@ioSkill@@UBE_NPAVioBaseChar@@@Z
	DD	FLAT:?IsCanUseSkillWithCrown@ioSkill@@UAE_NPAVioBaseChar@@@Z
	DD	FLAT:?IsCanUseBoss@ioSkill@@UBE_NPAVioBaseChar@@@Z
	DD	FLAT:?IsCanUseFootball@ioSkill@@UBE_NXZ
	DD	FLAT:?IsCanUseGangSiMode@ioSkill@@UBE_NXZ
	DD	FLAT:?IsCanUseByWeaponType@ioSkill@@UBE_NPAVioBaseChar@@@Z
	DD	FLAT:?IsCanUseThunderBirdHold@ioSkill@@UBE_NPAVioBaseChar@@@Z
	DD	FLAT:?IsCanUseLimitHP@ioSkill@@UBE_NPAVioBaseChar@@@Z
	DD	FLAT:?IsCanUseSkill@ioBuffSkill@@UAE_NPAVioBaseChar@@_N@Z
	DD	FLAT:?IsOnOffEnable@ioBuffSkill@@UAE_NXZ
	DD	FLAT:?IsCanDefenseStateSkill@ioSkill@@UAE_NXZ
	DD	FLAT:?SetDefenseStateSkill@ioSkill@@UAEXPAVioBaseChar@@@Z
	DD	FLAT:?GetDefenseSkillBreakeType@ioSkill@@UBE?AW4DefenseBreakType@@XZ
	DD	FLAT:?HasBuff@ioBuffSkill@@UBE_NH@Z
	DD	FLAT:?GetBuffType@ioBuffSkill@@UAEHH@Z
	DD	FLAT:?IsEnableReserve@ioTargetBuffSkill@@UBE_NXZ
	DD	FLAT:?IsSkillMotionEnd@ioTargetBuffSkill@@UBE_NKPAVioBaseChar@@@Z
	DD	FLAT:?IsCharSkipState@ioSkill@@UBE?AW4SkillCharColType@@XZ
	DD	FLAT:?IsEntityCollisionSkipState@ioSkill@@UBE_NXZ
	DD	FLAT:?GetSkillEndNextJumpAmt@ioSkill@@UBEMXZ
	DD	FLAT:?GetSkillEndNextLandRate@ioSkill@@UBEMXZ
	DD	FLAT:?GetSkillEndNextJumpMustEnable@ioSkill@@UAE?AW4SkillEndJumpType@@XZ
	DD	FLAT:?IsEndState@ioBuffSkill@@UBE_NXZ
	DD	FLAT:?IsAttackEndState@ioSkill@@UBE_NXZ
	DD	FLAT:?IsJumpState@ioSkill@@UBE_NXZ
	DD	FLAT:?IsDownState@ioSkill@@UBE_NXZ
	DD	FLAT:?IsNoDropState@ioSkill@@UBE_NXZ
	DD	FLAT:?IsCanSendControl@ioSkill@@UBE_NXZ
	DD	FLAT:?IsSkipState@ioSkill@@UBE_NXZ
	DD	FLAT:?GetSkillMoveRate@ioSkill@@UBEMXZ
	DD	FLAT:?SetSkillGrapplingState@ioSkill@@UAE_NPAVioBaseChar@@ABVioHashString@@@Z
	DD	FLAT:?GetGrapplingTargetPos@ioSkill@@UAE?AUD3DXVECTOR3@@PAVioBaseChar@@0@Z
	DD	FLAT:?GetGrapplingTargetPos@ioSkill@@UAE?AUD3DXVECTOR3@@PAVioBaseChar@@@Z
	DD	FLAT:?EnableChangeGrapplingTargetPos@ioSkill@@UBE_NXZ
	DD	FLAT:?GetSkillWoundGrapplingInfo@ioSkill@@UAE?AUGrapplingSkillWoundedInfo@@XZ
	DD	FLAT:?SetCreateWeaponDependency@ioSkill@@UAEXPAVioBaseChar@@PAVioPlayStage@@@Z
	DD	FLAT:?SetNextSkillState@ioSkill@@UAEXPAVioBaseChar@@PAVioWeapon@@@Z
	DD	FLAT:?OnSkillStart@ioTargetBuffSkill@@UAE_NPAVioBaseChar@@@Z
	DD	FLAT:?OnProcessState@ioTargetBuffSkill@@UAEXPAVioBaseChar@@PAVioPlayStage@@@Z
	DD	FLAT:?OnSkillEndByWounded@ioSkill@@UAEXPAVioBaseChar@@@Z
	DD	FLAT:?OnSkillEnd@ioTargetBuffSkill@@UAEXPAVioBaseChar@@@Z
	DD	FLAT:?OnProcessNotUseSkill@ioBuffSkill@@UAEXPAVioBaseChar@@PAVioPlayStage@@@Z
	DD	FLAT:?OnSkillItemRelease@ioBuffSkill@@UAEXPAVioBaseChar@@@Z
	DD	FLAT:?ApplyAttributeToWeapon@ioSkill@@UAEXPAVioWeapon@@PAVioPlayStage@@@Z
	DD	FLAT:?ApplyExtraSkillInfo@ioTargetBuffSkill@@UAEXPAVioBaseChar@@PAVioPlayStage@@AAVSP2Packet@@@Z
	DD	FLAT:?ApplyEquipSlotSkillExtraInfo@ioSkill@@UAEXPAVioBaseChar@@PAVioPlayStage@@AAVSP2Packet@@@Z
	DD	FLAT:?ApplyExtraPassiveSkillInfo@ioSkill@@UAEXPAVioBaseChar@@PAVioPlayStage@@AAVSP2Packet@@@Z
	DD	FLAT:?StartPreDelayEffect@ioSkill@@UAEXPAVioBaseChar@@@Z
	DD	FLAT:?EndPreDelayEffect@ioSkill@@UAEXPAVioBaseChar@@@Z
	DD	FLAT:?IsUseAutoTargetValue@ioSkill@@UAE_NXZ
	DD	FLAT:?IsAutoTargetDownState@ioSkill@@UAE_NXZ
	DD	FLAT:?CheckUseBuff@ioBuffSkill@@UAE_NPAVioBaseChar@@@Z
	DD	FLAT:?CheckUseItemMesh@ioTargetBuffSkill@@UAE_NXZ
	DD	FLAT:?CheckUseActiveCount@ioSkill@@UAE_NXZ
	DD	FLAT:?CheckAniRotate@ioSkill@@UAEXPAVioBaseChar@@@Z
	DD	FLAT:?IsEnableDashCheck@ioSkill@@UAE_NPAVioBaseChar@@@Z
	DD	FLAT:?IsEnableMultiActive@ioSkill@@UAE_NPAVioBaseChar@@@Z
	DD	FLAT:?IsInvisibleBottomCircle@ioSkill@@UAE_NPAVioBaseChar@@@Z
	DD	FLAT:?GetAutoTargetValue@ioSkill@@UAEXAAM00@Z
	DD	FLAT:?IsCanJumpingSkill@ioSkill@@UBE_NXZ
	DD	FLAT:?IsCanJumpingSkillOnBlowWound@ioSkill@@UBE_NXZ
	DD	FLAT:?IsCanDownSkill@ioSkill@@UBE_NXZ
	DD	FLAT:?IsCanBlowWoundSkill@ioSkill@@UBE_NXZ
	DD	FLAT:?IsCanWoundSkill@ioSkill@@UBE_NXZ
	DD	FLAT:?GetSkillGravityRate@ioSkill@@UAEMXZ
	DD	FLAT:?GetSkillMotionName@ioSkill@@UBEABVioHashString@@XZ
	DD	FLAT:?HasSkillMotion@ioSkill@@UBE_NXZ
	DD	FLAT:?GetSkillMotionRate@ioSkill@@UBEMXZ
	DD	FLAT:?IsPreDelayProtect@ioSkill@@UBE_NXZ
	DD	FLAT:?GetPreDelayAniName@ioSkill@@UBEABVioHashString@@XZ
	DD	FLAT:?GetPreDelayTime@ioSkill@@UBEKXZ
	DD	FLAT:?GetPreDelayOwnerEffect@ioSkill@@UBEABVioHashString@@XZ
	DD	FLAT:?GetPreDelayOtherEffect@ioSkill@@UBEABVioHashString@@XZ
	DD	FLAT:?SetCancelSkill@ioSkill@@UAEXPAVioBaseChar@@@Z
	DD	FLAT:?ClearAirJump@ioSkill@@MAEXXZ
	DD	FLAT:?SetAirJump@ioSkill@@MAEXPAVioBaseChar@@HM@Z
	DD	FLAT:?CheckAirJump@ioSkill@@MAEXPAVioBaseChar@@@Z
	DD	FLAT:?UseActiveCount@ioSkill@@UAE_NPAVioBaseChar@@@Z
	DD	FLAT:?GetMaxActiveCount@ioSkill@@UAEHPAVioBaseChar@@@Z
	DD	FLAT:?GetCurActiveCount@ioSkill@@UAEHPAVioBaseChar@@@Z
	DD	FLAT:?HideHPGauge@ioSkill@@UAE_NXZ
	DD	FLAT:?SetInfoByApplyWeapon@ioSkill@@UAEXPAVioBaseChar@@0K_N@Z
	DD	FLAT:?SetCollisionByApplySkill@ioSkill@@UAEXXZ
	DD	FLAT:?SetChargingRateForWeapon@ioSkill@@UAEXPAVioWeapon@@@Z
	DD	FLAT:?CheckExceptionCamera@ioTargetBuffSkill@@UAE_NXZ
	DD	FLAT:?GetExceptionCameraPos@ioTargetBuffSkill@@UAE?AUD3DXVECTOR3@@PAVioBaseChar@@@Z
	DD	FLAT:?IsFixedExceptionCamera@ioSkill@@UAE_NXZ
	DD	FLAT:?IsUseActiveCnt@ioSkill@@UBE_NXZ
	DD	FLAT:?GetMaxActiveCnt@ioSkill@@UBEHPAVioBaseChar@@@Z
	DD	FLAT:?GetCurActiveCnt@ioSkill@@UBEHPAVioBaseChar@@@Z
	DD	FLAT:??_EioTargetBuffSkill@@UAEPAXI@Z
	DD	FLAT:?StartPreDelayAnimation@ioBuffSkill@@UAE_NPAVioBaseChar@@@Z
	DD	FLAT:?BuffSkillSet@ioBuffSkill@@UAEXPAVioBaseChar@@@Z
	DD	FLAT:?RemoveSkillBuff@ioBuffSkill@@UAEXPAVioBaseChar@@ABVioHashString@@@Z
	DD	FLAT:?RemoveSkillBuff@ioBuffSkill@@UAEXPAVioBaseChar@@@Z
	DD	FLAT:?RemoveAreaWeapon@ioBuffSkill@@UAEXPAVioBaseChar@@@Z
	DD	FLAT:?GetCreateItemCode@ioBuffSkill@@UAEKPAVioBaseChar@@@Z
CONST	ENDS
;	COMDAT xdata$x
xdata$x	SEGMENT
__ehfuncinfo$??1ioTargetBuffSkill@@UAE@XZ DD 019930522H
	DD	07H
	DD	FLAT:__unwindtable$??1ioTargetBuffSkill@@UAE@XZ
	DD	2 DUP(00H)
	DD	2 DUP(00H)
	DD	00H
	DD	01H
__unwindtable$??1ioTargetBuffSkill@@UAE@XZ DD 0ffffffffH
	DD	FLAT:__unwindfunclet$??1ioTargetBuffSkill@@UAE@XZ$0
	DD	00H
	DD	FLAT:__unwindfunclet$??1ioTargetBuffSkill@@UAE@XZ$1
	DD	01H
	DD	FLAT:__unwindfunclet$??1ioTargetBuffSkill@@UAE@XZ$2
	DD	02H
	DD	FLAT:__unwindfunclet$??1ioTargetBuffSkill@@UAE@XZ$3
	DD	03H
	DD	FLAT:__unwindfunclet$??1ioTargetBuffSkill@@UAE@XZ$4
	DD	04H
	DD	FLAT:__unwindfunclet$??1ioTargetBuffSkill@@UAE@XZ$5
	DD	05H
	DD	FLAT:__unwindfunclet$??1ioTargetBuffSkill@@UAE@XZ$6
; Function compile flags: /Ogsp
; File d:\lost saga for developer\youtube\tutorial\source\src\lsclient\iotargetbuffskill.cpp
xdata$x	ENDS
;	COMDAT ??1ioTargetBuffSkill@@UAE@XZ
_TEXT	SEGMENT
_this$ = -16						; size = 4
__$EHRec$ = -12						; size = 12
??1ioTargetBuffSkill@@UAE@XZ PROC			; ioTargetBuffSkill::~ioTargetBuffSkill, COMDAT
; _this$ = ecx

; 30   : {

  00000	6a 04		 push	 4
  00002	b8 00 00 00 00	 mov	 eax, __ehhandler$??1ioTargetBuffSkill@@UAE@XZ
  00007	e8 00 00 00 00	 call	 __EH_prolog3
  0000c	8b f1		 mov	 esi, ecx
  0000e	89 75 f0	 mov	 DWORD PTR _this$[ebp], esi
  00011	c7 06 00 00 00
	00		 mov	 DWORD PTR [esi], OFFSET ??_7ioTargetBuffSkill@@6B@
  00017	c7 45 fc 06 00
	00 00		 mov	 DWORD PTR __$EHRec$[ebp+8], 6

; 31   : 	ClearData();

  0001e	e8 00 00 00 00	 call	 ?ClearData@ioTargetBuffSkill@@IAEXXZ ; ioTargetBuffSkill::ClearData

; 32   : }

  00023	8b 3d 00 00 00
	00		 mov	 edi, DWORD PTR __imp_??1ioHashString@@QAE@XZ
  00029	8d 8e cc 10 00
	00		 lea	 ecx, DWORD PTR [esi+4300]
  0002f	c6 45 fc 05	 mov	 BYTE PTR __$EHRec$[ebp+8], 5
  00033	ff d7		 call	 edi
  00035	8d 8e b8 10 00
	00		 lea	 ecx, DWORD PTR [esi+4280]
  0003b	c6 45 fc 04	 mov	 BYTE PTR __$EHRec$[ebp+8], 4
  0003f	ff d7		 call	 edi
  00041	bb 00 00 00 00	 mov	 ebx, OFFSET ??_7?$CEncrypt@M@@6B@
  00046	8d 8e 90 10 00
	00		 lea	 ecx, DWORD PTR [esi+4240]
  0004c	c6 45 fc 03	 mov	 BYTE PTR __$EHRec$[ebp+8], 3
  00050	89 9e 84 10 00
	00		 mov	 DWORD PTR [esi+4228], ebx
  00056	e8 00 00 00 00	 call	 ??1ccddaabb@@UAE@XZ	; ccddaabb::~ccddaabb
  0005b	8d 8e 60 10 00
	00		 lea	 ecx, DWORD PTR [esi+4192]
  00061	c6 45 fc 02	 mov	 BYTE PTR __$EHRec$[ebp+8], 2
  00065	89 9e 54 10 00
	00		 mov	 DWORD PTR [esi+4180], ebx
  0006b	e8 00 00 00 00	 call	 ??1ccddaabb@@UAE@XZ	; ccddaabb::~ccddaabb
  00070	8d 8e 28 10 00
	00		 lea	 ecx, DWORD PTR [esi+4136]
  00076	c6 45 fc 01	 mov	 BYTE PTR __$EHRec$[ebp+8], 1
  0007a	89 9e 1c 10 00
	00		 mov	 DWORD PTR [esi+4124], ebx
  00080	e8 00 00 00 00	 call	 ??1ccddaabb@@UAE@XZ	; ccddaabb::~ccddaabb
  00085	8d 8e 0c 10 00
	00		 lea	 ecx, DWORD PTR [esi+4108]
  0008b	c6 45 fc 00	 mov	 BYTE PTR __$EHRec$[ebp+8], 0
  0008f	ff d7		 call	 edi
  00091	83 4d fc ff	 or	 DWORD PTR __$EHRec$[ebp+8], -1
  00095	8b ce		 mov	 ecx, esi
  00097	e8 00 00 00 00	 call	 ??1ioBuffSkill@@UAE@XZ	; ioBuffSkill::~ioBuffSkill
  0009c	e8 00 00 00 00	 call	 __EH_epilog3
  000a1	c3		 ret	 0
_TEXT	ENDS
;	COMDAT text$x
text$x	SEGMENT
__unwindfunclet$??1ioTargetBuffSkill@@UAE@XZ$0:
  00000	8b 4d f0	 mov	 ecx, DWORD PTR _this$[ebp]
  00003	e9 00 00 00 00	 jmp	 ??1ioBuffSkill@@UAE@XZ	; ioBuffSkill::~ioBuffSkill
__unwindfunclet$??1ioTargetBuffSkill@@UAE@XZ$1:
  00008	8b 4d f0	 mov	 ecx, DWORD PTR _this$[ebp]
  0000b	81 c1 0c 10 00
	00		 add	 ecx, 4108		; 0000100cH
  00011	ff 25 00 00 00
	00		 jmp	 DWORD PTR __imp_??1ioHashString@@QAE@XZ
__unwindfunclet$??1ioTargetBuffSkill@@UAE@XZ$2:
  00017	8b 4d f0	 mov	 ecx, DWORD PTR _this$[ebp]
  0001a	81 c1 1c 10 00
	00		 add	 ecx, 4124		; 0000101cH
  00020	e9 00 00 00 00	 jmp	 ??1?$CEncrypt@M@@UAE@XZ	; CEncrypt<float>::~CEncrypt<float>
__unwindfunclet$??1ioTargetBuffSkill@@UAE@XZ$3:
  00025	8b 4d f0	 mov	 ecx, DWORD PTR _this$[ebp]
  00028	81 c1 54 10 00
	00		 add	 ecx, 4180		; 00001054H
  0002e	e9 00 00 00 00	 jmp	 ??1?$CEncrypt@M@@UAE@XZ	; CEncrypt<float>::~CEncrypt<float>
__unwindfunclet$??1ioTargetBuffSkill@@UAE@XZ$4:
  00033	8b 4d f0	 mov	 ecx, DWORD PTR _this$[ebp]
  00036	81 c1 84 10 00
	00		 add	 ecx, 4228		; 00001084H
  0003c	e9 00 00 00 00	 jmp	 ??1?$CEncrypt@M@@UAE@XZ	; CEncrypt<float>::~CEncrypt<float>
__unwindfunclet$??1ioTargetBuffSkill@@UAE@XZ$5:
  00041	8b 4d f0	 mov	 ecx, DWORD PTR _this$[ebp]
  00044	81 c1 b8 10 00
	00		 add	 ecx, 4280		; 000010b8H
  0004a	ff 25 00 00 00
	00		 jmp	 DWORD PTR __imp_??1ioHashString@@QAE@XZ
__unwindfunclet$??1ioTargetBuffSkill@@UAE@XZ$6:
  00050	8b 4d f0	 mov	 ecx, DWORD PTR _this$[ebp]
  00053	81 c1 cc 10 00
	00		 add	 ecx, 4300		; 000010ccH
  00059	ff 25 00 00 00
	00		 jmp	 DWORD PTR __imp_??1ioHashString@@QAE@XZ
__ehhandler$??1ioTargetBuffSkill@@UAE@XZ:
  0005f	8b 54 24 08	 mov	 edx, DWORD PTR [esp+8]
  00063	8d 42 0c	 lea	 eax, DWORD PTR [edx+12]
  00066	8b 4a ec	 mov	 ecx, DWORD PTR [edx-20]
  00069	33 c8		 xor	 ecx, eax
  0006b	e8 00 00 00 00	 call	 @__security_check_cookie@4
  00070	b8 00 00 00 00	 mov	 eax, OFFSET __ehfuncinfo$??1ioTargetBuffSkill@@UAE@XZ
  00075	e9 00 00 00 00	 jmp	 ___CxxFrameHandler3
text$x	ENDS
??1ioTargetBuffSkill@@UAE@XZ ENDP			; ioTargetBuffSkill::~ioTargetBuffSkill
; Function compile flags: /Ogsp
; File d:\lost saga for developer\youtube\tutorial\source\src\lsclient\ioskill.h
;	COMDAT ?GetDefenseSkillBreakeType@ioSkill@@UBE?AW4DefenseBreakType@@XZ
_TEXT	SEGMENT
?GetDefenseSkillBreakeType@ioSkill@@UBE?AW4DefenseBreakType@@XZ PROC ; ioSkill::GetDefenseSkillBreakeType, COMDAT
; _this$ = ecx

; 327  : 	virtual DefenseBreakType GetDefenseSkillBreakeType() const { return m_eDefenseSkillBreakType; }

  00000	8b 81 30 0e 00
	00		 mov	 eax, DWORD PTR [ecx+3632]
  00006	c3		 ret	 0
?GetDefenseSkillBreakeType@ioSkill@@UBE?AW4DefenseBreakType@@XZ ENDP ; ioSkill::GetDefenseSkillBreakeType
; Function compile flags: /Ogsp
_TEXT	ENDS
;	COMDAT ?GetSkillEndNextJumpAmt@ioSkill@@UBEMXZ
_TEXT	SEGMENT
?GetSkillEndNextJumpAmt@ioSkill@@UBEMXZ PROC		; ioSkill::GetSkillEndNextJumpAmt, COMDAT
; _this$ = ecx

; 335  : 	virtual float GetSkillEndNextJumpAmt() const { return m_fSkillEndNextJumpAmt; }

  00000	d9 81 4c 05 00
	00		 fld	 DWORD PTR [ecx+1356]
  00006	c3		 ret	 0
?GetSkillEndNextJumpAmt@ioSkill@@UBEMXZ ENDP		; ioSkill::GetSkillEndNextJumpAmt
; Function compile flags: /Ogsp
_TEXT	ENDS
;	COMDAT ?GetSkillEndNextLandRate@ioSkill@@UBEMXZ
_TEXT	SEGMENT
?GetSkillEndNextLandRate@ioSkill@@UBEMXZ PROC		; ioSkill::GetSkillEndNextLandRate, COMDAT
; _this$ = ecx

; 336  : 	virtual float GetSkillEndNextLandRate() const { return m_fSkillEndNextLandRate; }

  00000	d9 81 50 05 00
	00		 fld	 DWORD PTR [ecx+1360]
  00006	c3		 ret	 0
?GetSkillEndNextLandRate@ioSkill@@UBEMXZ ENDP		; ioSkill::GetSkillEndNextLandRate
; Function compile flags: /Ogsp
_TEXT	ENDS
;	COMDAT ?GetSkillEndNextJumpMustEnable@ioSkill@@UAE?AW4SkillEndJumpType@@XZ
_TEXT	SEGMENT
?GetSkillEndNextJumpMustEnable@ioSkill@@UAE?AW4SkillEndJumpType@@XZ PROC ; ioSkill::GetSkillEndNextJumpMustEnable, COMDAT
; _this$ = ecx

; 337  : 	virtual SkillEndJumpType GetSkillEndNextJumpMustEnable(){ return SEJT_DEFAULT; }

  00000	33 c0		 xor	 eax, eax
  00002	c3		 ret	 0
?GetSkillEndNextJumpMustEnable@ioSkill@@UAE?AW4SkillEndJumpType@@XZ ENDP ; ioSkill::GetSkillEndNextJumpMustEnable
; Function compile flags: /Ogsp
_TEXT	ENDS
;	COMDAT ?EnableChangeGrapplingTargetPos@ioSkill@@UBE_NXZ
_TEXT	SEGMENT
?EnableChangeGrapplingTargetPos@ioSkill@@UBE_NXZ PROC	; ioSkill::EnableChangeGrapplingTargetPos, COMDAT
; _this$ = ecx

; 355  : 	virtual bool EnableChangeGrapplingTargetPos() const { return m_bChangeGrapplingTargetPos; }

  00000	8a 81 40 09 00
	00		 mov	 al, BYTE PTR [ecx+2368]
  00006	c3		 ret	 0
?EnableChangeGrapplingTargetPos@ioSkill@@UBE_NXZ ENDP	; ioSkill::EnableChangeGrapplingTargetPos
; Function compile flags: /Ogsp
_TEXT	ENDS
;	COMDAT ?IsInvisibleBottomCircle@ioSkill@@UAE_NPAVioBaseChar@@@Z
_TEXT	SEGMENT
_pChar$ = 8						; size = 4
?IsInvisibleBottomCircle@ioSkill@@UAE_NPAVioBaseChar@@@Z PROC ; ioSkill::IsInvisibleBottomCircle, COMDAT
; _this$ = ecx

; 393  : 	virtual bool IsInvisibleBottomCircle( ioBaseChar *pChar ) { return false; }

  00000	32 c0		 xor	 al, al
  00002	c2 04 00	 ret	 4
?IsInvisibleBottomCircle@ioSkill@@UAE_NPAVioBaseChar@@@Z ENDP ; ioSkill::IsInvisibleBottomCircle
; Function compile flags: /Ogsp
_TEXT	ENDS
;	COMDAT ?IsUseActiveCnt@ioSkill@@UBE_NXZ
_TEXT	SEGMENT
?IsUseActiveCnt@ioSkill@@UBE_NXZ PROC			; ioSkill::IsUseActiveCnt, COMDAT
; _this$ = ecx

; 544  : 	virtual bool IsUseActiveCnt() const { return false; }

  00000	32 c0		 xor	 al, al
  00002	c3		 ret	 0
?IsUseActiveCnt@ioSkill@@UBE_NXZ ENDP			; ioSkill::IsUseActiveCnt
; Function compile flags: /Ogsp
_TEXT	ENDS
;	COMDAT ?GetMaxActiveCnt@ioSkill@@UBEHPAVioBaseChar@@@Z
_TEXT	SEGMENT
_pChar$ = 8						; size = 4
?GetMaxActiveCnt@ioSkill@@UBEHPAVioBaseChar@@@Z PROC	; ioSkill::GetMaxActiveCnt, COMDAT
; _this$ = ecx

; 545  : 	virtual int GetMaxActiveCnt( ioBaseChar *pChar ) const { return 0; }

  00000	33 c0		 xor	 eax, eax
  00002	c2 04 00	 ret	 4
?GetMaxActiveCnt@ioSkill@@UBEHPAVioBaseChar@@@Z ENDP	; ioSkill::GetMaxActiveCnt
; Function compile flags: /Ogsp
_TEXT	ENDS
;	COMDAT ?GetCurActiveCnt@ioSkill@@UBEHPAVioBaseChar@@@Z
_TEXT	SEGMENT
_pChar$ = 8						; size = 4
?GetCurActiveCnt@ioSkill@@UBEHPAVioBaseChar@@@Z PROC	; ioSkill::GetCurActiveCnt, COMDAT
; _this$ = ecx

; 546  : 	virtual int GetCurActiveCnt( ioBaseChar *pChar ) const { return 0; }

  00000	33 c0		 xor	 eax, eax
  00002	c2 04 00	 ret	 4
?GetCurActiveCnt@ioSkill@@UBEHPAVioBaseChar@@@Z ENDP	; ioSkill::GetCurActiveCnt
_TEXT	ENDS
EXTRN	?EndCameraBuff@ioSkill@@IAEXPAVioBaseChar@@@Z:PROC ; ioSkill::EndCameraBuff
EXTRN	?EndEffect@ioBaseChar@@QAEXABVioHashString@@_N1@Z:PROC ; ioBaseChar::EndEffect
EXTRN	?RestoreSkillWeaponMesh@ioBaseChar@@QAE_NPAVioSkill@@ABVioHashString@@_N2@Z:PROC ; ioBaseChar::RestoreSkillWeaponMesh
EXTRN	?ShowWeaponItemMesh@ioBaseChar@@QAEX_N0@Z:PROC	; ioBaseChar::ShowWeaponItemMesh
EXTRN	?OnSkillEnd@ioSkill@@UAEXPAVioBaseChar@@@Z:PROC	; ioSkill::OnSkillEnd
; Function compile flags: /Ogsp
; File d:\lost saga for developer\youtube\tutorial\source\src\lsclient\iotargetbuffskill.cpp
;	COMDAT ?OnSkillEnd@ioTargetBuffSkill@@UAEXPAVioBaseChar@@@Z
_TEXT	SEGMENT
_pChar$ = 8						; size = 4
?OnSkillEnd@ioTargetBuffSkill@@UAEXPAVioBaseChar@@@Z PROC ; ioTargetBuffSkill::OnSkillEnd, COMDAT
; _this$ = ecx

; 177  : {

  00000	55		 push	 ebp
  00001	8b ec		 mov	 ebp, esp
  00003	53		 push	 ebx
  00004	56		 push	 esi
  00005	57		 push	 edi

; 178  : 	ioSkill::OnSkillEnd( pChar );

  00006	8b 7d 08	 mov	 edi, DWORD PTR _pChar$[ebp]
  00009	57		 push	 edi
  0000a	8b f1		 mov	 esi, ecx
  0000c	e8 00 00 00 00	 call	 ?OnSkillEnd@ioSkill@@UAEXPAVioBaseChar@@@Z ; ioSkill::OnSkillEnd

; 179  : 	//  
; 180  : 	if( m_bUseItemMesh )

  00011	33 db		 xor	 ebx, ebx
  00013	38 9e 08 0f 00
	00		 cmp	 BYTE PTR [esi+3848], bl
  00019	74 0a		 je	 SHORT $LN2@OnSkillEnd

; 181  : 		pChar->ShowWeaponItemMesh( true );

  0001b	53		 push	 ebx
  0001c	6a 01		 push	 1
  0001e	8b cf		 mov	 ecx, edi
  00020	e8 00 00 00 00	 call	 ?ShowWeaponItemMesh@ioBaseChar@@QAEX_N0@Z ; ioBaseChar::ShowWeaponItemMesh
$LN2@OnSkillEnd:

; 182  : 
; 183  : 	if( m_bSetHandMesh && !m_HandMesh.IsEmpty() )

  00025	38 9e 0a 0f 00
	00		 cmp	 BYTE PTR [esi+3850], bl
  0002b	74 2e		 je	 SHORT $LN1@OnSkillEnd
  0002d	8d 8e f8 0e 00
	00		 lea	 ecx, DWORD PTR [esi+3832]
  00033	ff 15 00 00 00
	00		 call	 DWORD PTR __imp_?IsEmpty@ioHashString@@QBE_NXZ
  00039	84 c0		 test	 al, al
  0003b	75 1e		 jne	 SHORT $LN1@OnSkillEnd

; 184  : 	{
; 185  : 		pChar->RestoreSkillWeaponMesh( this, m_HandMesh, m_bVisibleEquipMesh );

  0003d	0f b6 86 09 0f
	00 00		 movzx	 eax, BYTE PTR [esi+3849]
  00044	53		 push	 ebx
  00045	50		 push	 eax
  00046	8d 86 f8 0e 00
	00		 lea	 eax, DWORD PTR [esi+3832]
  0004c	50		 push	 eax
  0004d	56		 push	 esi
  0004e	8b cf		 mov	 ecx, edi
  00050	e8 00 00 00 00	 call	 ?RestoreSkillWeaponMesh@ioBaseChar@@QAE_NPAVioSkill@@ABVioHashString@@_N2@Z ; ioBaseChar::RestoreSkillWeaponMesh

; 186  : 		m_bSetHandMesh = false;

  00055	88 9e 0a 0f 00
	00		 mov	 BYTE PTR [esi+3850], bl
$LN1@OnSkillEnd:

; 187  : 	}
; 188  : 
; 189  : 	pChar->EndEffect( m_SkillEffectName, false );

  0005b	6a 01		 push	 1
  0005d	53		 push	 ebx
  0005e	8d 86 b8 01 00
	00		 lea	 eax, DWORD PTR [esi+440]
  00064	50		 push	 eax
  00065	8b cf		 mov	 ecx, edi
  00067	e8 00 00 00 00	 call	 ?EndEffect@ioBaseChar@@QAEXABVioHashString@@_N1@Z ; ioBaseChar::EndEffect

; 190  : 
; 191  : 	EndCameraBuff( pChar );

  0006c	57		 push	 edi
  0006d	8b ce		 mov	 ecx, esi
  0006f	e8 00 00 00 00	 call	 ?EndCameraBuff@ioSkill@@IAEXPAVioBaseChar@@@Z ; ioSkill::EndCameraBuff

; 192  : 	DestroyAimMark( pChar );

  00074	57		 push	 edi
  00075	8b ce		 mov	 ecx, esi
  00077	e8 00 00 00 00	 call	 ?DestroyAimMark@ioTargetBuffSkill@@IAEXPAVioBaseChar@@@Z ; ioTargetBuffSkill::DestroyAimMark

; 193  : 
; 194  : 	ClearData();

  0007c	8b ce		 mov	 ecx, esi
  0007e	e8 00 00 00 00	 call	 ?ClearData@ioTargetBuffSkill@@IAEXXZ ; ioTargetBuffSkill::ClearData
  00083	5f		 pop	 edi
  00084	5e		 pop	 esi
  00085	5b		 pop	 ebx

; 195  : }

  00086	5d		 pop	 ebp
  00087	c2 04 00	 ret	 4
?OnSkillEnd@ioTargetBuffSkill@@UAEXPAVioBaseChar@@@Z ENDP ; ioTargetBuffSkill::OnSkillEnd
_TEXT	ENDS
PUBLIC	__real@4f800000
PUBLIC	__$ArrayPad$
PUBLIC	?UpdateAimMark@ioTargetBuffSkill@@IAEXPAVioBaseChar@@PAVioPlayStage@@@Z ; ioTargetBuffSkill::UpdateAimMark
EXTRN	?SetWorldPosition@ioMapEffect@@QAEXABUD3DXVECTOR3@@@Z:PROC ; ioMapEffect::SetWorldPosition
EXTRN	?FindMapEffect@ioPlayStage@@QAEPAVioMapEffect@@K@Z:PROC ; ioPlayStage::FindMapEffect
EXTRN	?GetUniqueID@ioMapEffect@@QBEKXZ:PROC		; ioMapEffect::GetUniqueID
EXTRN	?CreateMapEffect@ioPlayStage@@QAEPAVioMapEffect@@ABVioHashString@@ABUD3DXVECTOR3@@1@Z:PROC ; ioPlayStage::CreateMapEffect
EXTRN	?GetMidPositionByRate@ioGameEntity@@QBE?AUD3DXVECTOR3@@M@Z:PROC ; ioGameEntity::GetMidPositionByRate
EXTRN	?GetBaseChar@ioPlayStage@@QAEPAVioBaseChar@@ABVioHashString@@@Z:PROC ; ioPlayStage::GetBaseChar
EXTRN	___security_cookie:DWORD
;	COMDAT __real@4f800000
; File c:\program files (x86)\microsoft directx sdk (june 2010)\include\d3dx9math.inl
CONST	SEGMENT
__real@4f800000 DD 04f800000r			; 4.29497e+009
; Function compile flags: /Ogsp
; File d:\lost saga for developer\youtube\tutorial\source\src\lsclient\iotargetbuffskill.cpp
CONST	ENDS
;	COMDAT ?UpdateAimMark@ioTargetBuffSkill@@IAEXPAVioBaseChar@@PAVioPlayStage@@@Z
_TEXT	SEGMENT
tv224 = -32						; size = 4
tv220 = -32						; size = 4
tv216 = -32						; size = 4
tv206 = -32						; size = 4
tv203 = -32						; size = 4
tv200 = -32						; size = 4
_vPos$ = -28						; size = 12
_vScale$ = -16						; size = 12
__$ArrayPad$ = -4					; size = 4
_pChar$ = 8						; size = 4
_pStage$ = 12						; size = 4
?UpdateAimMark@ioTargetBuffSkill@@IAEXPAVioBaseChar@@PAVioPlayStage@@@Z PROC ; ioTargetBuffSkill::UpdateAimMark, COMDAT
; _this$ = ecx

; 494  : {

  00000	55		 push	 ebp
  00001	8b ec		 mov	 ebp, esp
  00003	83 ec 20	 sub	 esp, 32			; 00000020H
  00006	a1 00 00 00 00	 mov	 eax, DWORD PTR ___security_cookie
  0000b	33 c5		 xor	 eax, ebp
  0000d	89 45 fc	 mov	 DWORD PTR __$ArrayPad$[ebp], eax
  00010	53		 push	 ebx
  00011	8b 5d 08	 mov	 ebx, DWORD PTR _pChar$[ebp]
  00014	56		 push	 esi
  00015	57		 push	 edi
  00016	8b 7d 0c	 mov	 edi, DWORD PTR _pStage$[ebp]
  00019	8b f1		 mov	 esi, ecx

; 495  : 	if( !pChar )

  0001b	85 db		 test	 ebx, ebx
  0001d	0f 84 ff 00 00
	00		 je	 $LN1@UpdateAimM

; 496  : 		return;
; 497  : 	
; 498  : 	if( !pStage )

  00023	85 ff		 test	 edi, edi
  00025	0f 84 f7 00 00
	00		 je	 $LN1@UpdateAimM

; 499  : 		return;
; 500  : 
; 501  : 	ioBaseChar *pTarget = pStage->GetBaseChar( m_szTargetName );

  0002b	8d 86 cc 10 00
	00		 lea	 eax, DWORD PTR [esi+4300]
  00031	50		 push	 eax
  00032	8b cf		 mov	 ecx, edi
  00034	e8 00 00 00 00	 call	 ?GetBaseChar@ioPlayStage@@QAEPAVioBaseChar@@ABVioHashString@@@Z ; ioPlayStage::GetBaseChar
  00039	8b c8		 mov	 ecx, eax

; 502  : 	if( !pTarget )

  0003b	85 c9		 test	 ecx, ecx
  0003d	75 0d		 jne	 SHORT $LN6@UpdateAimM

; 503  : 	{
; 504  : 		DestroyAimMark( pChar );

  0003f	53		 push	 ebx
  00040	8b ce		 mov	 ecx, esi
  00042	e8 00 00 00 00	 call	 ?DestroyAimMark@ioTargetBuffSkill@@IAEXPAVioBaseChar@@@Z ; ioTargetBuffSkill::DestroyAimMark

; 505  : 		return;

  00047	e9 d6 00 00 00	 jmp	 $LN1@UpdateAimM
$LN6@UpdateAimM:

; 506  : 	}
; 507  : 	
; 508  : 	D3DXVECTOR3 vPos = pTarget->GetMidPositionByRate();

  0004c	b8 05 00 00 00	 mov	 eax, 5
  00051	8b d0		 mov	 edx, eax
  00053	b8 0a 00 00 00	 mov	 eax, 10			; 0000000aH
  00058	89 55 e0	 mov	 DWORD PTR tv224[ebp], edx
  0005b	db 45 e0	 fild	 DWORD PTR tv224[ebp]
  0005e	85 d2		 test	 edx, edx
  00060	79 06		 jns	 SHORT $LN23@UpdateAimM
  00062	d8 05 00 00 00
	00		 fadd	 DWORD PTR __real@4f800000
$LN23@UpdateAimM:
  00068	89 45 e0	 mov	 DWORD PTR tv220[ebp], eax
  0006b	db 45 e0	 fild	 DWORD PTR tv220[ebp]
  0006e	85 c0		 test	 eax, eax
  00070	79 06		 jns	 SHORT $LN24@UpdateAimM
  00072	d8 05 00 00 00
	00		 fadd	 DWORD PTR __real@4f800000
$LN24@UpdateAimM:
  00078	de f9		 fdivp	 ST(1), ST(0)
  0007a	51		 push	 ecx
  0007b	8d 45 e4	 lea	 eax, DWORD PTR _vPos$[ebp]
  0007e	d9 5d e0	 fstp	 DWORD PTR tv216[ebp]
  00081	d9 45 e0	 fld	 DWORD PTR tv216[ebp]
  00084	d9 1c 24	 fstp	 DWORD PTR [esp]
  00087	50		 push	 eax
  00088	e8 00 00 00 00	 call	 ?GetMidPositionByRate@ioGameEntity@@QBE?AUD3DXVECTOR3@@M@Z ; ioGameEntity::GetMidPositionByRate

; 509  : 	D3DXVECTOR3 vScale = D3DXVECTOR3( FLOAT1, FLOAT1, FLOAT1 );

  0008d	b8 01 00 00 00	 mov	 eax, 1
  00092	8b c8		 mov	 ecx, eax
  00094	b8 01 00 00 00	 mov	 eax, 1
  00099	8b d0		 mov	 edx, eax
  0009b	b8 01 00 00 00	 mov	 eax, 1
  000a0	89 45 e0	 mov	 DWORD PTR tv206[ebp], eax
  000a3	db 45 e0	 fild	 DWORD PTR tv206[ebp]
  000a6	85 c0		 test	 eax, eax
  000a8	79 06		 jns	 SHORT $LN25@UpdateAimM
  000aa	d8 05 00 00 00
	00		 fadd	 DWORD PTR __real@4f800000
$LN25@UpdateAimM:
  000b0	89 55 e0	 mov	 DWORD PTR tv203[ebp], edx
  000b3	d9 5d f0	 fstp	 DWORD PTR _vScale$[ebp]
  000b6	db 45 e0	 fild	 DWORD PTR tv203[ebp]
  000b9	85 d2		 test	 edx, edx
  000bb	79 06		 jns	 SHORT $LN26@UpdateAimM
  000bd	d8 05 00 00 00
	00		 fadd	 DWORD PTR __real@4f800000
$LN26@UpdateAimM:
  000c3	89 4d e0	 mov	 DWORD PTR tv200[ebp], ecx
  000c6	d9 5d f4	 fstp	 DWORD PTR _vScale$[ebp+4]
  000c9	db 45 e0	 fild	 DWORD PTR tv200[ebp]
  000cc	85 c9		 test	 ecx, ecx
  000ce	79 06		 jns	 SHORT $LN27@UpdateAimM
  000d0	d8 05 00 00 00
	00		 fadd	 DWORD PTR __real@4f800000
$LN27@UpdateAimM:

; 510  : 
; 511  : 	if( m_dwAimMarkID == -1 )

  000d6	8b 86 c8 10 00
	00		 mov	 eax, DWORD PTR [esi+4296]
  000dc	d9 5d f8	 fstp	 DWORD PTR _vScale$[ebp+8]

; 512  : 	{			
; 513  : 		ioMapEffect *pMapEffect = pStage->CreateMapEffect( m_szAimMark, vPos, vScale );

  000df	8b cf		 mov	 ecx, edi
  000e1	83 f8 ff	 cmp	 eax, -1
  000e4	75 27		 jne	 SHORT $LN5@UpdateAimM
  000e6	8d 45 f0	 lea	 eax, DWORD PTR _vScale$[ebp]
  000e9	50		 push	 eax
  000ea	8d 45 e4	 lea	 eax, DWORD PTR _vPos$[ebp]
  000ed	50		 push	 eax
  000ee	8d 86 b8 10 00
	00		 lea	 eax, DWORD PTR [esi+4280]
  000f4	50		 push	 eax
  000f5	e8 00 00 00 00	 call	 ?CreateMapEffect@ioPlayStage@@QAEPAVioMapEffect@@ABVioHashString@@ABUD3DXVECTOR3@@1@Z ; ioPlayStage::CreateMapEffect

; 514  : 		if( pMapEffect )

  000fa	85 c0		 test	 eax, eax
  000fc	74 24		 je	 SHORT $LN1@UpdateAimM

; 515  : 		{
; 516  : 			m_dwAimMarkID = pMapEffect->GetUniqueID();

  000fe	8b c8		 mov	 ecx, eax
  00100	e8 00 00 00 00	 call	 ?GetUniqueID@ioMapEffect@@QBEKXZ ; ioMapEffect::GetUniqueID
  00105	89 86 c8 10 00
	00		 mov	 DWORD PTR [esi+4296], eax

; 517  : 		}
; 518  : 	}

  0010b	eb 15		 jmp	 SHORT $LN1@UpdateAimM
$LN5@UpdateAimM:

; 519  : 	else if( m_dwAimMarkID != -1 )
; 520  : 	{
; 521  : 		ioMapEffect *pMapEffect = pStage->FindMapEffect( m_dwAimMarkID );

  0010d	50		 push	 eax
  0010e	e8 00 00 00 00	 call	 ?FindMapEffect@ioPlayStage@@QAEPAVioMapEffect@@K@Z ; ioPlayStage::FindMapEffect

; 522  : 		if( pMapEffect )

  00113	85 c0		 test	 eax, eax
  00115	74 0b		 je	 SHORT $LN1@UpdateAimM

; 523  : 			pMapEffect->SetWorldPosition( vPos );	

  00117	8d 4d e4	 lea	 ecx, DWORD PTR _vPos$[ebp]
  0011a	51		 push	 ecx
  0011b	8b c8		 mov	 ecx, eax
  0011d	e8 00 00 00 00	 call	 ?SetWorldPosition@ioMapEffect@@QAEXABUD3DXVECTOR3@@@Z ; ioMapEffect::SetWorldPosition
$LN1@UpdateAimM:

; 524  : 
; 525  : 	}
; 526  : }

  00122	8b 4d fc	 mov	 ecx, DWORD PTR __$ArrayPad$[ebp]
  00125	5f		 pop	 edi
  00126	5e		 pop	 esi
  00127	33 cd		 xor	 ecx, ebp
  00129	5b		 pop	 ebx
  0012a	e8 00 00 00 00	 call	 @__security_check_cookie@4
  0012f	c9		 leave
  00130	c2 08 00	 ret	 8
?UpdateAimMark@ioTargetBuffSkill@@IAEXPAVioBaseChar@@PAVioPlayStage@@@Z ENDP ; ioTargetBuffSkill::UpdateAimMark
_TEXT	ENDS
PUBLIC	?SetOwnerBuff@ioTargetBuffSkill@@IAEXPAVioBaseChar@@@Z ; ioTargetBuffSkill::SetOwnerBuff
EXTRN	?SetConcentrateCharName@ioConcentrateTargetBuff@@QAEXABVioHashString@@0@Z:PROC ; ioConcentrateTargetBuff::SetConcentrateCharName
EXTRN	?AddNewBuff@ioBaseChar@@QAEPAVioBuff@@ABVioHashString@@00PAVioSkill@@_N@Z:PROC ; ioBaseChar::AddNewBuff
;	COMDAT xdata$x
; File d:\lost saga for developer\youtube\tutorial\source\src\lsclient\weaponattribute.h
xdata$x	SEGMENT
__unwindtable$?SetOwnerBuff@ioTargetBuffSkill@@IAEXPAVioBaseChar@@@Z DD 0ffffffffH
	DD	FLAT:__unwindfunclet$?SetOwnerBuff@ioTargetBuffSkill@@IAEXPAVioBaseChar@@@Z$0
__ehfuncinfo$?SetOwnerBuff@ioTargetBuffSkill@@IAEXPAVioBaseChar@@@Z DD 019930522H
	DD	01H
	DD	FLAT:__unwindtable$?SetOwnerBuff@ioTargetBuffSkill@@IAEXPAVioBaseChar@@@Z
	DD	2 DUP(00H)
	DD	2 DUP(00H)
	DD	00H
	DD	01H
; Function compile flags: /Ogsp
; File d:\lost saga for developer\youtube\tutorial\source\src\lsclient\iotargetbuffskill.cpp
xdata$x	ENDS
;	COMDAT ?SetOwnerBuff@ioTargetBuffSkill@@IAEXPAVioBaseChar@@@Z
_TEXT	SEGMENT
_kInfo$550826 = -36					; size = 20
tv156 = -16						; size = 4
__$EHRec$ = -12						; size = 12
tv253 = 8						; size = 4
_pChar$ = 8						; size = 4
?SetOwnerBuff@ioTargetBuffSkill@@IAEXPAVioBaseChar@@@Z PROC ; ioTargetBuffSkill::SetOwnerBuff, COMDAT
; _this$ = ecx

; 543  : {

  00000	6a 18		 push	 24			; 00000018H
  00002	b8 00 00 00 00	 mov	 eax, __ehhandler$?SetOwnerBuff@ioTargetBuffSkill@@IAEXPAVioBaseChar@@@Z
  00007	e8 00 00 00 00	 call	 __EH_prolog3
  0000c	8b f9		 mov	 edi, ecx

; 544  : 	if( !pChar )

  0000e	8b 5d 08	 mov	 ebx, DWORD PTR _pChar$[ebp]
  00011	85 db		 test	 ebx, ebx
  00013	0f 84 8f 00 00
	00		 je	 $LN3@SetOwnerBu

; 545  : 		return;
; 546  : 
; 547  : 	int iCnt = m_OwnerBuffList.size();

  00019	8b 87 6c 0f 00
	00		 mov	 eax, DWORD PTR [edi+3948]
  0001f	2b 87 68 0f 00
	00		 sub	 eax, DWORD PTR [edi+3944]
  00025	6a 14		 push	 20			; 00000014H
  00027	99		 cdq
  00028	59		 pop	 ecx
  00029	f7 f9		 idiv	 ecx

; 548  : 	for( int i=0; i<iCnt; ++i )

  0002b	85 c0		 test	 eax, eax
  0002d	7e 79		 jle	 SHORT $LN3@SetOwnerBu

; 545  : 		return;
; 546  : 
; 547  : 	int iCnt = m_OwnerBuffList.size();

  0002f	83 65 08 00	 and	 DWORD PTR tv253[ebp], 0
  00033	89 45 f0	 mov	 DWORD PTR tv156[ebp], eax
$LN5@SetOwnerBu:

; 549  : 	{
; 550  : 		ioBuffInfo kInfo = m_OwnerBuffList[i];

  00036	8b b7 68 0f 00
	00		 mov	 esi, DWORD PTR [edi+3944]
  0003c	03 75 08	 add	 esi, DWORD PTR tv253[ebp]
  0003f	8d 4d dc	 lea	 ecx, DWORD PTR _kInfo$550826[ebp]
  00042	56		 push	 esi
  00043	ff 15 00 00 00
	00		 call	 DWORD PTR __imp_??0ioHashString@@QAE@ABV0@@Z
  00049	8b 46 10	 mov	 eax, DWORD PTR [esi+16]
  0004c	89 45 ec	 mov	 DWORD PTR _kInfo$550826[ebp+16], eax

; 551  : 
; 552  : 		if( GetOwnerItem() )

  0004f	8b 87 a4 02 00
	00		 mov	 eax, DWORD PTR [edi+676]
  00055	83 65 fc 00	 and	 DWORD PTR __$EHRec$[ebp+8], 0
  00059	85 c0		 test	 eax, eax
  0005b	74 35		 je	 SHORT $LN1@SetOwnerBu

; 553  : 		{
; 554  : 			ioBuff *pBuff = pChar->AddNewBuff( kInfo.m_BuffName, pChar->GetCharName(), GetOwnerItem()->GetName(), this );

  0005d	6a 00		 push	 0
  0005f	57		 push	 edi
  00060	05 34 01 00 00	 add	 eax, 308		; 00000134H
  00065	50		 push	 eax
  00066	8d b3 d4 02 00
	00		 lea	 esi, DWORD PTR [ebx+724]
  0006c	56		 push	 esi
  0006d	8d 45 dc	 lea	 eax, DWORD PTR _kInfo$550826[ebp]
  00070	50		 push	 eax
  00071	8b cb		 mov	 ecx, ebx
  00073	e8 00 00 00 00	 call	 ?AddNewBuff@ioBaseChar@@QAEPAVioBuff@@ABVioHashString@@00PAVioSkill@@_N@Z ; ioBaseChar::AddNewBuff

; 555  : 			ioConcentrateTargetBuff *pConcentrateTargetBuff = ToConcentrateTargetBuff(pBuff);

  00078	50		 push	 eax
  00079	e8 00 00 00 00	 call	 ?ToConcentrateTargetBuff@@YAPAVioConcentrateTargetBuff@@PAVioBuff@@@Z ; ToConcentrateTargetBuff
  0007e	59		 pop	 ecx

; 556  : 			if( pConcentrateTargetBuff )

  0007f	85 c0		 test	 eax, eax
  00081	74 0f		 je	 SHORT $LN1@SetOwnerBu

; 557  : 			{
; 558  : 				pConcentrateTargetBuff->SetConcentrateCharName( pChar->GetCharName(), m_szTargetName );

  00083	8d 8f cc 10 00
	00		 lea	 ecx, DWORD PTR [edi+4300]
  00089	51		 push	 ecx
  0008a	56		 push	 esi
  0008b	8b c8		 mov	 ecx, eax
  0008d	e8 00 00 00 00	 call	 ?SetConcentrateCharName@ioConcentrateTargetBuff@@QAEXABVioHashString@@0@Z ; ioConcentrateTargetBuff::SetConcentrateCharName
$LN1@SetOwnerBu:

; 559  : 			}
; 560  : 		}
; 561  : 	}

  00092	83 4d fc ff	 or	 DWORD PTR __$EHRec$[ebp+8], -1
  00096	8d 4d dc	 lea	 ecx, DWORD PTR _kInfo$550826[ebp]
  00099	ff 15 00 00 00
	00		 call	 DWORD PTR __imp_??1ioHashString@@QAE@XZ
  0009f	83 45 08 14	 add	 DWORD PTR tv253[ebp], 20 ; 00000014H
  000a3	ff 4d f0	 dec	 DWORD PTR tv156[ebp]
  000a6	75 8e		 jne	 SHORT $LN5@SetOwnerBu
$LN3@SetOwnerBu:

; 562  : }

  000a8	e8 00 00 00 00	 call	 __EH_epilog3
  000ad	c2 04 00	 ret	 4
_TEXT	ENDS
;	COMDAT text$x
text$x	SEGMENT
__unwindfunclet$?SetOwnerBuff@ioTargetBuffSkill@@IAEXPAVioBaseChar@@@Z$0:
  00000	8d 4d dc	 lea	 ecx, DWORD PTR _kInfo$550826[ebp]
  00003	e9 00 00 00 00	 jmp	 ??1BuffInfoStruct@@QAE@XZ
__ehhandler$?SetOwnerBuff@ioTargetBuffSkill@@IAEXPAVioBaseChar@@@Z:
  00008	8b 54 24 08	 mov	 edx, DWORD PTR [esp+8]
  0000c	8d 42 0c	 lea	 eax, DWORD PTR [edx+12]
  0000f	8b 4a d8	 mov	 ecx, DWORD PTR [edx-40]
  00012	33 c8		 xor	 ecx, eax
  00014	e8 00 00 00 00	 call	 @__security_check_cookie@4
  00019	b8 00 00 00 00	 mov	 eax, OFFSET __ehfuncinfo$?SetOwnerBuff@ioTargetBuffSkill@@IAEXPAVioBaseChar@@@Z
  0001e	e9 00 00 00 00	 jmp	 ___CxxFrameHandler3
text$x	ENDS
?SetOwnerBuff@ioTargetBuffSkill@@IAEXPAVioBaseChar@@@Z ENDP ; ioTargetBuffSkill::SetOwnerBuff
PUBLIC	??D?$CEncrypt@M@@QAEMABM@Z			; CEncrypt<float>::operator*
; Function compile flags: /Ogsp
; File d:\lost saga for developer\youtube\tutorial\source\src\lsclient\encryptvalue.h
;	COMDAT ??D?$CEncrypt@M@@QAEMABM@Z
_TEXT	SEGMENT
_value$ = -4						; size = 4
tv130 = 8						; size = 4
_inValue$ = 8						; size = 4
??D?$CEncrypt@M@@QAEMABM@Z PROC				; CEncrypt<float>::operator*, COMDAT
; _this$ = ecx

; 1685 : 	{	

  00000	55		 push	 ebp
  00001	8b ec		 mov	 ebp, esp
  00003	51		 push	 ecx

; 1686 : 		type value;
; 1687 : 		DecryptValueToPool(&value);

  00004	8d 45 fc	 lea	 eax, DWORD PTR _value$[ebp]
  00007	50		 push	 eax
  00008	e8 00 00 00 00	 call	 ?DecryptValueToPool@?$CEncrypt@M@@QAEXPAM@Z ; CEncrypt<float>::DecryptValueToPool

; 1688 : #ifdef _NOTUSE
; 1689 : 		Debug();
; 1690 : #endif
; 1691 : 		return value * inValue;

  0000d	8b 45 08	 mov	 eax, DWORD PTR _inValue$[ebp]
  00010	d9 00		 fld	 DWORD PTR [eax]
  00012	d8 4d fc	 fmul	 DWORD PTR _value$[ebp]
  00015	d9 5d 08	 fstp	 DWORD PTR tv130[ebp]
  00018	d9 45 08	 fld	 DWORD PTR tv130[ebp]

; 1692 : 	}

  0001b	c9		 leave
  0001c	c2 04 00	 ret	 4
??D?$CEncrypt@M@@QAEMABM@Z ENDP				; CEncrypt<float>::operator*
_TEXT	ENDS
PUBLIC	?begin@?$vector@PAVioBaseChar@@V?$allocator@PAVioBaseChar@@@std@@@std@@QBE?AV?$_Vector_const_iterator@V?$_Vector_val@PAVioBaseChar@@V?$allocator@PAVioBaseChar@@@std@@@std@@@2@XZ ; std::vector<ioBaseChar *,std::allocator<ioBaseChar *> >::begin
; Function compile flags: /Ogsp
; File c:\program files (x86)\microsoft visual studio 10.0\vc\include\vector
;	COMDAT ?begin@?$vector@PAVioBaseChar@@V?$allocator@PAVioBaseChar@@@std@@@std@@QBE?AV?$_Vector_const_iterator@V?$_Vector_val@PAVioBaseChar@@V?$allocator@PAVioBaseChar@@@std@@@std@@@2@XZ
_TEXT	SEGMENT
___$ReturnUdt$ = 8					; size = 4
?begin@?$vector@PAVioBaseChar@@V?$allocator@PAVioBaseChar@@@std@@@std@@QBE?AV?$_Vector_const_iterator@V?$_Vector_val@PAVioBaseChar@@V?$allocator@PAVioBaseChar@@@std@@@std@@@2@XZ PROC ; std::vector<ioBaseChar *,std::allocator<ioBaseChar *> >::begin, COMDAT
; _this$ = ecx

; 786  : 		{	// return iterator for beginning of nonmutable sequence

  00000	55		 push	 ebp
  00001	8b ec		 mov	 ebp, esp

; 787  : 		return (const_iterator(this->_Myfirst, this));

  00003	8b 09		 mov	 ecx, DWORD PTR [ecx]
  00005	8b 45 08	 mov	 eax, DWORD PTR ___$ReturnUdt$[ebp]
  00008	89 08		 mov	 DWORD PTR [eax], ecx

; 788  : 		}

  0000a	5d		 pop	 ebp
  0000b	c2 04 00	 ret	 4
?begin@?$vector@PAVioBaseChar@@V?$allocator@PAVioBaseChar@@@std@@@std@@QBE?AV?$_Vector_const_iterator@V?$_Vector_val@PAVioBaseChar@@V?$allocator@PAVioBaseChar@@@std@@@std@@@2@XZ ENDP ; std::vector<ioBaseChar *,std::allocator<ioBaseChar *> >::begin
_TEXT	ENDS
PUBLIC	?end@?$vector@PAVioBaseChar@@V?$allocator@PAVioBaseChar@@@std@@@std@@QBE?AV?$_Vector_const_iterator@V?$_Vector_val@PAVioBaseChar@@V?$allocator@PAVioBaseChar@@@std@@@std@@@2@XZ ; std::vector<ioBaseChar *,std::allocator<ioBaseChar *> >::end
; Function compile flags: /Ogsp
;	COMDAT ?end@?$vector@PAVioBaseChar@@V?$allocator@PAVioBaseChar@@@std@@@std@@QBE?AV?$_Vector_const_iterator@V?$_Vector_val@PAVioBaseChar@@V?$allocator@PAVioBaseChar@@@std@@@std@@@2@XZ
_TEXT	SEGMENT
___$ReturnUdt$ = 8					; size = 4
?end@?$vector@PAVioBaseChar@@V?$allocator@PAVioBaseChar@@@std@@@std@@QBE?AV?$_Vector_const_iterator@V?$_Vector_val@PAVioBaseChar@@V?$allocator@PAVioBaseChar@@@std@@@std@@@2@XZ PROC ; std::vector<ioBaseChar *,std::allocator<ioBaseChar *> >::end, COMDAT
; _this$ = ecx

; 796  : 		{	// return iterator for end of nonmutable sequence

  00000	55		 push	 ebp
  00001	8b ec		 mov	 ebp, esp

; 797  : 		return (const_iterator(this->_Mylast, this));

  00003	8b 49 04	 mov	 ecx, DWORD PTR [ecx+4]
  00006	8b 45 08	 mov	 eax, DWORD PTR ___$ReturnUdt$[ebp]
  00009	89 08		 mov	 DWORD PTR [eax], ecx

; 798  : 		}

  0000b	5d		 pop	 ebp
  0000c	c2 04 00	 ret	 4
?end@?$vector@PAVioBaseChar@@V?$allocator@PAVioBaseChar@@@std@@@std@@QBE?AV?$_Vector_const_iterator@V?$_Vector_val@PAVioBaseChar@@V?$allocator@PAVioBaseChar@@@std@@@std@@@2@XZ ENDP ; std::vector<ioBaseChar *,std::allocator<ioBaseChar *> >::end
_TEXT	ENDS
PUBLIC	??0?$_Vector_val@UtagBaseCharDistanceSq@@V?$allocator@UtagBaseCharDistanceSq@@@std@@@std@@QAE@V?$allocator@UtagBaseCharDistanceSq@@@1@@Z ; std::_Vector_val<tagBaseCharDistanceSq,std::allocator<tagBaseCharDistanceSq> >::_Vector_val<tagBaseCharDistanceSq,std::allocator<tagBaseCharDistanceSq> >
; Function compile flags: /Ogsp
;	COMDAT ??0?$_Vector_val@UtagBaseCharDistanceSq@@V?$allocator@UtagBaseCharDistanceSq@@@std@@@std@@QAE@V?$allocator@UtagBaseCharDistanceSq@@@1@@Z
_TEXT	SEGMENT
__Al$ = 8						; size = 1
??0?$_Vector_val@UtagBaseCharDistanceSq@@V?$allocator@UtagBaseCharDistanceSq@@@std@@@std@@QAE@V?$allocator@UtagBaseCharDistanceSq@@@1@@Z PROC ; std::_Vector_val<tagBaseCharDistanceSq,std::allocator<tagBaseCharDistanceSq> >::_Vector_val<tagBaseCharDistanceSq,std::allocator<tagBaseCharDistanceSq> >, COMDAT
; _this$ = ecx

; 426  : 		{	// construct allocator from _Al

  00000	8b c1		 mov	 eax, ecx

; 427  : 		_Myfirst = 0;

  00002	33 c9		 xor	 ecx, ecx
  00004	89 08		 mov	 DWORD PTR [eax], ecx

; 428  : 		_Mylast = 0;

  00006	89 48 04	 mov	 DWORD PTR [eax+4], ecx

; 429  : 		_Myend = 0;

  00009	89 48 08	 mov	 DWORD PTR [eax+8], ecx

; 430  : 		}

  0000c	c2 04 00	 ret	 4
??0?$_Vector_val@UtagBaseCharDistanceSq@@V?$allocator@UtagBaseCharDistanceSq@@@std@@@std@@QAE@V?$allocator@UtagBaseCharDistanceSq@@@1@@Z ENDP ; std::_Vector_val<tagBaseCharDistanceSq,std::allocator<tagBaseCharDistanceSq> >::_Vector_val<tagBaseCharDistanceSq,std::allocator<tagBaseCharDistanceSq> >
_TEXT	ENDS
PUBLIC	??8?$_Vector_const_iterator@V?$_Vector_val@PAVioBaseChar@@V?$allocator@PAVioBaseChar@@@std@@@std@@@std@@QBE_NABV01@@Z ; std::_Vector_const_iterator<std::_Vector_val<ioBaseChar *,std::allocator<ioBaseChar *> > >::operator==
; Function compile flags: /Ogsp
;	COMDAT ??8?$_Vector_const_iterator@V?$_Vector_val@PAVioBaseChar@@V?$allocator@PAVioBaseChar@@@std@@@std@@@std@@QBE_NABV01@@Z
_TEXT	SEGMENT
__Right$ = 8						; size = 4
??8?$_Vector_const_iterator@V?$_Vector_val@PAVioBaseChar@@V?$allocator@PAVioBaseChar@@@std@@@std@@@std@@QBE_NABV01@@Z PROC ; std::_Vector_const_iterator<std::_Vector_val<ioBaseChar *,std::allocator<ioBaseChar *> > >::operator==, COMDAT
; _this$ = ecx

; 201  : 		{	// test for iterator equality

  00000	55		 push	 ebp
  00001	8b ec		 mov	 ebp, esp

; 202  : 		_Compat(_Right);
; 203  : 		return (this->_Ptr == _Right._Ptr);

  00003	8b 01		 mov	 eax, DWORD PTR [ecx]
  00005	8b 4d 08	 mov	 ecx, DWORD PTR __Right$[ebp]
  00008	2b 01		 sub	 eax, DWORD PTR [ecx]
  0000a	f7 d8		 neg	 eax
  0000c	1b c0		 sbb	 eax, eax
  0000e	40		 inc	 eax

; 204  : 		}

  0000f	5d		 pop	 ebp
  00010	c2 04 00	 ret	 4
??8?$_Vector_const_iterator@V?$_Vector_val@PAVioBaseChar@@V?$allocator@PAVioBaseChar@@@std@@@std@@@std@@QBE_NABV01@@Z ENDP ; std::_Vector_const_iterator<std::_Vector_val<ioBaseChar *,std::allocator<ioBaseChar *> > >::operator==
_TEXT	ENDS
PUBLIC	??0?$_Vector_iterator@V?$_Vector_val@UtagBaseCharDistanceSq@@V?$allocator@UtagBaseCharDistanceSq@@@std@@@std@@@std@@QAE@PAUtagBaseCharDistanceSq@@PBU_Container_base0@1@@Z ; std::_Vector_iterator<std::_Vector_val<tagBaseCharDistanceSq,std::allocator<tagBaseCharDistanceSq> > >::_Vector_iterator<std::_Vector_val<tagBaseCharDistanceSq,std::allocator<tagBaseCharDistanceSq> > >
; Function compile flags: /Ogsp
;	COMDAT ??0?$_Vector_iterator@V?$_Vector_val@UtagBaseCharDistanceSq@@V?$allocator@UtagBaseCharDistanceSq@@@std@@@std@@@std@@QAE@PAUtagBaseCharDistanceSq@@PBU_Container_base0@1@@Z
_TEXT	SEGMENT
__Parg$ = 8						; size = 4
__Pvector$ = 12						; size = 4
??0?$_Vector_iterator@V?$_Vector_val@UtagBaseCharDistanceSq@@V?$allocator@UtagBaseCharDistanceSq@@@std@@@std@@@std@@QAE@PAUtagBaseCharDistanceSq@@PBU_Container_base0@1@@Z PROC ; std::_Vector_iterator<std::_Vector_val<tagBaseCharDistanceSq,std::allocator<tagBaseCharDistanceSq> > >::_Vector_iterator<std::_Vector_val<tagBaseCharDistanceSq,std::allocator<tagBaseCharDistanceSq> > >, COMDAT
; _this$ = ecx

; 304  : 		{	// construct with pointer _Parg

  00000	55		 push	 ebp
  00001	8b ec		 mov	 ebp, esp
  00003	8b c1		 mov	 eax, ecx
  00005	8b 4d 08	 mov	 ecx, DWORD PTR __Parg$[ebp]
  00008	89 08		 mov	 DWORD PTR [eax], ecx

; 305  : 		}

  0000a	5d		 pop	 ebp
  0000b	c2 08 00	 ret	 8
??0?$_Vector_iterator@V?$_Vector_val@UtagBaseCharDistanceSq@@V?$allocator@UtagBaseCharDistanceSq@@@std@@@std@@@std@@QAE@PAUtagBaseCharDistanceSq@@PBU_Container_base0@1@@Z ENDP ; std::_Vector_iterator<std::_Vector_val<tagBaseCharDistanceSq,std::allocator<tagBaseCharDistanceSq> > >::_Vector_iterator<std::_Vector_val<tagBaseCharDistanceSq,std::allocator<tagBaseCharDistanceSq> > >
_TEXT	ENDS
PUBLIC	?_Make_iter@?$vector@UtagBaseCharDistanceSq@@V?$allocator@UtagBaseCharDistanceSq@@@std@@@std@@QBE?AV?$_Vector_iterator@V?$_Vector_val@UtagBaseCharDistanceSq@@V?$allocator@UtagBaseCharDistanceSq@@@std@@@std@@@2@V?$_Vector_const_iterator@V?$_Vector_val@UtagBaseCharDistanceSq@@V?$allocator@UtagBaseCharDistanceSq@@@std@@@std@@@2@@Z ; std::vector<tagBaseCharDistanceSq,std::allocator<tagBaseCharDistanceSq> >::_Make_iter
; Function compile flags: /Ogsp
;	COMDAT ?_Make_iter@?$vector@UtagBaseCharDistanceSq@@V?$allocator@UtagBaseCharDistanceSq@@@std@@@std@@QBE?AV?$_Vector_iterator@V?$_Vector_val@UtagBaseCharDistanceSq@@V?$allocator@UtagBaseCharDistanceSq@@@std@@@std@@@2@V?$_Vector_const_iterator@V?$_Vector_val@UtagBaseCharDistanceSq@@V?$allocator@UtagBaseCharDistanceSq@@@std@@@std@@@2@@Z
_TEXT	SEGMENT
___$ReturnUdt$ = 8					; size = 4
__Where$ = 12						; size = 4
?_Make_iter@?$vector@UtagBaseCharDistanceSq@@V?$allocator@UtagBaseCharDistanceSq@@@std@@@std@@QBE?AV?$_Vector_iterator@V?$_Vector_val@UtagBaseCharDistanceSq@@V?$allocator@UtagBaseCharDistanceSq@@@std@@@std@@@2@V?$_Vector_const_iterator@V?$_Vector_val@UtagBaseCharDistanceSq@@V?$allocator@UtagBaseCharDistanceSq@@@std@@@std@@@2@@Z PROC ; std::vector<tagBaseCharDistanceSq,std::allocator<tagBaseCharDistanceSq> >::_Make_iter, COMDAT
; _this$ = ecx

; 801  : 		{	// make iterator from const_iterator

  00000	55		 push	 ebp
  00001	8b ec		 mov	 ebp, esp

; 802  : 		return (iterator(_Where._Ptr, this));

  00003	8b 45 08	 mov	 eax, DWORD PTR ___$ReturnUdt$[ebp]
  00006	8b 4d 0c	 mov	 ecx, DWORD PTR __Where$[ebp]
  00009	89 08		 mov	 DWORD PTR [eax], ecx

; 803  : 		}

  0000b	5d		 pop	 ebp
  0000c	c2 08 00	 ret	 8
?_Make_iter@?$vector@UtagBaseCharDistanceSq@@V?$allocator@UtagBaseCharDistanceSq@@@std@@@std@@QBE?AV?$_Vector_iterator@V?$_Vector_val@UtagBaseCharDistanceSq@@V?$allocator@UtagBaseCharDistanceSq@@@std@@@std@@@2@V?$_Vector_const_iterator@V?$_Vector_val@UtagBaseCharDistanceSq@@V?$allocator@UtagBaseCharDistanceSq@@@std@@@std@@@2@@Z ENDP ; std::vector<tagBaseCharDistanceSq,std::allocator<tagBaseCharDistanceSq> >::_Make_iter
_TEXT	ENDS
PUBLIC	?max_size@?$vector@UtagBaseCharDistanceSq@@V?$allocator@UtagBaseCharDistanceSq@@@std@@@std@@QBEIXZ ; std::vector<tagBaseCharDistanceSq,std::allocator<tagBaseCharDistanceSq> >::max_size
; Function compile flags: /Ogsp
;	COMDAT ?max_size@?$vector@UtagBaseCharDistanceSq@@V?$allocator@UtagBaseCharDistanceSq@@@std@@@std@@QBEIXZ
_TEXT	SEGMENT
?max_size@?$vector@UtagBaseCharDistanceSq@@V?$allocator@UtagBaseCharDistanceSq@@@std@@@std@@QBEIXZ PROC ; std::vector<tagBaseCharDistanceSq,std::allocator<tagBaseCharDistanceSq> >::max_size, COMDAT
; _this$ = ecx

; 884  : 		return (this->_Alval.max_size());

  00000	b8 ff ff ff 07	 mov	 eax, 134217727		; 07ffffffH

; 885  : 		}

  00005	c3		 ret	 0
?max_size@?$vector@UtagBaseCharDistanceSq@@V?$allocator@UtagBaseCharDistanceSq@@@std@@@std@@QBEIXZ ENDP ; std::vector<tagBaseCharDistanceSq,std::allocator<tagBaseCharDistanceSq> >::max_size
_TEXT	ENDS
PUBLIC	?_Grow_to@?$vector@UtagBaseCharDistanceSq@@V?$allocator@UtagBaseCharDistanceSq@@@std@@@std@@IBEII@Z ; std::vector<tagBaseCharDistanceSq,std::allocator<tagBaseCharDistanceSq> >::_Grow_to
; Function compile flags: /Ogsp
;	COMDAT ?_Grow_to@?$vector@UtagBaseCharDistanceSq@@V?$allocator@UtagBaseCharDistanceSq@@@std@@@std@@IBEII@Z
_TEXT	SEGMENT
__Count$ = 8						; size = 4
?_Grow_to@?$vector@UtagBaseCharDistanceSq@@V?$allocator@UtagBaseCharDistanceSq@@@std@@@std@@IBEII@Z PROC ; std::vector<tagBaseCharDistanceSq,std::allocator<tagBaseCharDistanceSq> >::_Grow_to, COMDAT
; _this$ = ecx

; 1274 : 		{	// grow by 50% or at least to _Count

  00000	55		 push	 ebp
  00001	8b ec		 mov	 ebp, esp

; 1275 : 		size_type _Capacity = capacity();

  00003	8b 41 08	 mov	 eax, DWORD PTR [ecx+8]
  00006	2b 01		 sub	 eax, DWORD PTR [ecx]

; 1276 : 
; 1277 : 		_Capacity = max_size() - _Capacity / 2 < _Capacity
; 1278 : 			? 0 : _Capacity + _Capacity / 2;	// try to grow by 50%

  00008	ba ff ff ff 07	 mov	 edx, 134217727		; 07ffffffH
  0000d	c1 f8 05	 sar	 eax, 5
  00010	8b c8		 mov	 ecx, eax
  00012	d1 e9		 shr	 ecx, 1
  00014	2b d1		 sub	 edx, ecx
  00016	3b d0		 cmp	 edx, eax
  00018	73 04		 jae	 SHORT $LN4@Grow_to
  0001a	33 c0		 xor	 eax, eax
  0001c	eb 02		 jmp	 SHORT $LN5@Grow_to
$LN4@Grow_to:
  0001e	03 c1		 add	 eax, ecx
$LN5@Grow_to:

; 1279 : 		if (_Capacity < _Count)

  00020	3b 45 08	 cmp	 eax, DWORD PTR __Count$[ebp]

; 1280 : 			_Capacity = _Count;

  00023	0f 42 45 08	 cmovb	 eax, DWORD PTR __Count$[ebp]

; 1281 : 		return (_Capacity);
; 1282 : 		}

  00027	5d		 pop	 ebp
  00028	c2 04 00	 ret	 4
?_Grow_to@?$vector@UtagBaseCharDistanceSq@@V?$allocator@UtagBaseCharDistanceSq@@@std@@@std@@IBEII@Z ENDP ; std::vector<tagBaseCharDistanceSq,std::allocator<tagBaseCharDistanceSq> >::_Grow_to
_TEXT	ENDS
PUBLIC	?allocate@?$allocator@UtagBaseCharDistanceSq@@@std@@QAEPAUtagBaseCharDistanceSq@@I@Z ; std::allocator<tagBaseCharDistanceSq>::allocate
; Function compile flags: /Ogsp
; File c:\program files (x86)\microsoft visual studio 10.0\vc\include\xmemory
;	COMDAT ?allocate@?$allocator@UtagBaseCharDistanceSq@@@std@@QAEPAUtagBaseCharDistanceSq@@I@Z
_TEXT	SEGMENT
__Count$ = 8						; size = 4
?allocate@?$allocator@UtagBaseCharDistanceSq@@@std@@QAEPAUtagBaseCharDistanceSq@@I@Z PROC ; std::allocator<tagBaseCharDistanceSq>::allocate, COMDAT
; _this$ = ecx

; 186  : 		{	// allocate array of _Count elements

  00000	55		 push	 ebp
  00001	8b ec		 mov	 ebp, esp

; 187  : 		return (_Allocate(_Count, (pointer)0));

  00003	6a 00		 push	 0
  00005	ff 75 08	 push	 DWORD PTR __Count$[ebp]
  00008	e8 00 00 00 00	 call	 ??$_Allocate@UtagBaseCharDistanceSq@@@std@@YAPAUtagBaseCharDistanceSq@@IPAU1@@Z ; std::_Allocate<tagBaseCharDistanceSq>
  0000d	59		 pop	 ecx
  0000e	59		 pop	 ecx

; 188  : 		}

  0000f	5d		 pop	 ebp
  00010	c2 04 00	 ret	 4
?allocate@?$allocator@UtagBaseCharDistanceSq@@@std@@QAEPAUtagBaseCharDistanceSq@@I@Z ENDP ; std::allocator<tagBaseCharDistanceSq>::allocate
_TEXT	ENDS
PUBLIC	??8?$_Vector_const_iterator@V?$_Vector_val@UtagBaseCharDistanceSq@@V?$allocator@UtagBaseCharDistanceSq@@@std@@@std@@@std@@QBE_NABV01@@Z ; std::_Vector_const_iterator<std::_Vector_val<tagBaseCharDistanceSq,std::allocator<tagBaseCharDistanceSq> > >::operator==
; Function compile flags: /Ogsp
; File c:\program files (x86)\microsoft visual studio 10.0\vc\include\vector
;	COMDAT ??8?$_Vector_const_iterator@V?$_Vector_val@UtagBaseCharDistanceSq@@V?$allocator@UtagBaseCharDistanceSq@@@std@@@std@@@std@@QBE_NABV01@@Z
_TEXT	SEGMENT
__Right$ = 8						; size = 4
??8?$_Vector_const_iterator@V?$_Vector_val@UtagBaseCharDistanceSq@@V?$allocator@UtagBaseCharDistanceSq@@@std@@@std@@@std@@QBE_NABV01@@Z PROC ; std::_Vector_const_iterator<std::_Vector_val<tagBaseCharDistanceSq,std::allocator<tagBaseCharDistanceSq> > >::operator==, COMDAT
; _this$ = ecx

; 201  : 		{	// test for iterator equality

  00000	55		 push	 ebp
  00001	8b ec		 mov	 ebp, esp

; 202  : 		_Compat(_Right);
; 203  : 		return (this->_Ptr == _Right._Ptr);

  00003	8b 01		 mov	 eax, DWORD PTR [ecx]
  00005	8b 4d 08	 mov	 ecx, DWORD PTR __Right$[ebp]
  00008	2b 01		 sub	 eax, DWORD PTR [ecx]
  0000a	f7 d8		 neg	 eax
  0000c	1b c0		 sbb	 eax, eax
  0000e	40		 inc	 eax

; 204  : 		}

  0000f	5d		 pop	 ebp
  00010	c2 04 00	 ret	 4
??8?$_Vector_const_iterator@V?$_Vector_val@UtagBaseCharDistanceSq@@V?$allocator@UtagBaseCharDistanceSq@@@std@@@std@@@std@@QBE_NABV01@@Z ENDP ; std::_Vector_const_iterator<std::_Vector_val<tagBaseCharDistanceSq,std::allocator<tagBaseCharDistanceSq> > >::operator==
_TEXT	ENDS
PUBLIC	_this$GSCopy$
PUBLIC	__$ArrayPad$
PUBLIC	??$LoadString_e@$0BC@@ioINILoader@@QAEXAAY0BC@$$CBDAAY00$$CBDPADH@Z ; ioINILoader::LoadString_e<18>
EXTRN	__imp_?LoadStringA@ioINILoader@@QAEXPBD0PADH@Z:PROC
; Function compile flags: /Ogsp
; File d:\lost saga for developer\youtube\tutorial\source\src\io3dengine\ioiniloader.h
;	COMDAT ??$LoadString_e@$0BC@@ioINILoader@@QAEXAAY0BC@$$CBDAAY00$$CBDPADH@Z
_TEXT	SEGMENT
_this$GSCopy$ = -32					; size = 4
__k$ = -28						; size = 18
__$ArrayPad$ = -4					; size = 4
_k$ = 8							; size = 4
_d$ = 12						; size = 4
_b$ = 16						; size = 4
_i$ = 20						; size = 4
??$LoadString_e@$0BC@@ioINILoader@@QAEXAAY0BC@$$CBDAAY00$$CBDPADH@Z PROC ; ioINILoader::LoadString_e<18>, COMDAT
; _this$ = ecx

; 161  : 	{

  00000	55		 push	 ebp
  00001	8b ec		 mov	 ebp, esp
  00003	83 ec 20	 sub	 esp, 32			; 00000020H
  00006	a1 00 00 00 00	 mov	 eax, DWORD PTR ___security_cookie
  0000b	33 c5		 xor	 eax, ebp
  0000d	89 45 fc	 mov	 DWORD PTR __$ArrayPad$[ebp], eax
  00010	8b 45 08	 mov	 eax, DWORD PTR _k$[ebp]

; 162  : 		_ENCSTR(k, _k);

  00013	8a 10		 mov	 dl, BYTE PTR [eax]
  00015	56		 push	 esi
  00016	8b 75 0c	 mov	 esi, DWORD PTR _d$[ebp]
  00019	57		 push	 edi
  0001a	8b 7d 10	 mov	 edi, DWORD PTR _b$[ebp]
  0001d	89 4d e0	 mov	 DWORD PTR _this$GSCopy$[ebp], ecx
  00020	84 d2		 test	 dl, dl
  00022	0f 84 be 01 00
	00		 je	 $LN96@LoadString
  00028	80 f2 ed	 xor	 dl, -19			; ffffffedH
  0002b	88 55 e4	 mov	 BYTE PTR __k$[ebp], dl
  0002e	8a 50 01	 mov	 dl, BYTE PTR [eax+1]
  00031	84 d2		 test	 dl, dl
  00033	0f 84 a7 01 00
	00		 je	 $LN95@LoadString
  00039	80 f2 ec	 xor	 dl, -20			; ffffffecH
  0003c	88 55 e5	 mov	 BYTE PTR __k$[ebp+1], dl
  0003f	8a 50 02	 mov	 dl, BYTE PTR [eax+2]
  00042	84 d2		 test	 dl, dl
  00044	0f 84 90 01 00
	00		 je	 $LN94@LoadString
  0004a	b1 eb		 mov	 cl, -21			; ffffffebH
  0004c	32 d1		 xor	 dl, cl
  0004e	88 55 e6	 mov	 BYTE PTR __k$[ebp+2], dl
  00051	8a 50 03	 mov	 dl, BYTE PTR [eax+3]
  00054	84 d2		 test	 dl, dl
  00056	0f 84 78 01 00
	00		 je	 $LN93@LoadString
  0005c	80 f2 ea	 xor	 dl, -22			; ffffffeaH
  0005f	88 55 e7	 mov	 BYTE PTR __k$[ebp+3], dl
  00062	8a 50 04	 mov	 dl, BYTE PTR [eax+4]
  00065	84 d2		 test	 dl, dl
  00067	0f 84 61 01 00
	00		 je	 $LN92@LoadString
  0006d	80 f2 ed	 xor	 dl, -19			; ffffffedH
  00070	88 55 e8	 mov	 BYTE PTR __k$[ebp+4], dl
  00073	8a 50 05	 mov	 dl, BYTE PTR [eax+5]
  00076	84 d2		 test	 dl, dl
  00078	0f 84 4a 01 00
	00		 je	 $LN91@LoadString
  0007e	80 f2 ec	 xor	 dl, -20			; ffffffecH
  00081	88 55 e9	 mov	 BYTE PTR __k$[ebp+5], dl
  00084	8a 50 06	 mov	 dl, BYTE PTR [eax+6]
  00087	84 d2		 test	 dl, dl
  00089	0f 84 34 01 00
	00		 je	 $LN90@LoadString
  0008f	32 d1		 xor	 dl, cl
  00091	88 55 ea	 mov	 BYTE PTR __k$[ebp+6], dl
  00094	8a 50 07	 mov	 dl, BYTE PTR [eax+7]
  00097	84 d2		 test	 dl, dl
  00099	0f 84 1e 01 00
	00		 je	 $LN89@LoadString
  0009f	80 f2 ea	 xor	 dl, -22			; ffffffeaH
  000a2	88 55 eb	 mov	 BYTE PTR __k$[ebp+7], dl
  000a5	8a 50 08	 mov	 dl, BYTE PTR [eax+8]
  000a8	84 d2		 test	 dl, dl
  000aa	0f 84 07 01 00
	00		 je	 $LN88@LoadString
  000b0	80 f2 ed	 xor	 dl, -19			; ffffffedH
  000b3	88 55 ec	 mov	 BYTE PTR __k$[ebp+8], dl
  000b6	8a 50 09	 mov	 dl, BYTE PTR [eax+9]
  000b9	84 d2		 test	 dl, dl
  000bb	0f 84 f0 00 00
	00		 je	 $LN87@LoadString
  000c1	80 f2 ec	 xor	 dl, -20			; ffffffecH
  000c4	88 55 ed	 mov	 BYTE PTR __k$[ebp+9], dl
  000c7	8a 50 0a	 mov	 dl, BYTE PTR [eax+10]
  000ca	84 d2		 test	 dl, dl
  000cc	0f 84 da 00 00
	00		 je	 $LN86@LoadString
  000d2	32 d1		 xor	 dl, cl
  000d4	88 55 ee	 mov	 BYTE PTR __k$[ebp+10], dl
  000d7	8a 50 0b	 mov	 dl, BYTE PTR [eax+11]
  000da	84 d2		 test	 dl, dl
  000dc	0f 84 c4 00 00
	00		 je	 $LN85@LoadString
  000e2	80 f2 ea	 xor	 dl, -22			; ffffffeaH
  000e5	88 55 ef	 mov	 BYTE PTR __k$[ebp+11], dl
  000e8	8a 50 0c	 mov	 dl, BYTE PTR [eax+12]
  000eb	84 d2		 test	 dl, dl
  000ed	0f 84 ad 00 00
	00		 je	 $LN84@LoadString
  000f3	80 f2 ed	 xor	 dl, -19			; ffffffedH
  000f6	88 55 f0	 mov	 BYTE PTR __k$[ebp+12], dl
  000f9	8a 50 0d	 mov	 dl, BYTE PTR [eax+13]
  000fc	84 d2		 test	 dl, dl
  000fe	0f 84 96 00 00
	00		 je	 $LN83@LoadString
  00104	80 f2 ec	 xor	 dl, -20			; ffffffecH
  00107	88 55 f1	 mov	 BYTE PTR __k$[ebp+13], dl
  0010a	8a 50 0e	 mov	 dl, BYTE PTR [eax+14]
  0010d	84 d2		 test	 dl, dl
  0010f	0f 84 80 00 00
	00		 je	 $LN82@LoadString
  00115	32 d1		 xor	 dl, cl
  00117	88 55 f2	 mov	 BYTE PTR __k$[ebp+14], dl
  0011a	8a 50 0f	 mov	 dl, BYTE PTR [eax+15]
  0011d	84 d2		 test	 dl, dl
  0011f	74 6e		 je	 SHORT $LN81@LoadString
  00121	80 f2 ea	 xor	 dl, -22			; ffffffeaH
  00124	88 55 f3	 mov	 BYTE PTR __k$[ebp+15], dl
  00127	8a 50 10	 mov	 dl, BYTE PTR [eax+16]
  0012a	84 d2		 test	 dl, dl
  0012c	74 5b		 je	 SHORT $LN80@LoadString
  0012e	80 f2 ed	 xor	 dl, -19			; ffffffedH
  00131	80 78 11 00	 cmp	 BYTE PTR [eax+17], 0
  00135	88 55 f4	 mov	 BYTE PTR __k$[ebp+16], dl
  00138	0f 84 ac 00 00
	00		 je	 $LN111@LoadString
  0013e	8a 50 12	 mov	 dl, BYTE PTR [eax+18]
  00141	84 d2		 test	 dl, dl
  00143	74 3f		 je	 SHORT $LN78@LoadString
  00145	32 d1		 xor	 dl, cl
  00147	88 55 f6	 mov	 BYTE PTR __k$[ebp+18], dl
  0014a	8a 50 13	 mov	 dl, BYTE PTR [eax+19]
  0014d	84 d2		 test	 dl, dl
  0014f	74 2d		 je	 SHORT $LN77@LoadString
  00151	80 f2 ea	 xor	 dl, -22			; ffffffeaH
  00154	88 55 f7	 mov	 BYTE PTR __k$[ebp+19], dl
  00157	8a 50 14	 mov	 dl, BYTE PTR [eax+20]
  0015a	84 d2		 test	 dl, dl
  0015c	74 1a		 je	 SHORT $LN76@LoadString
  0015e	8a 40 15	 mov	 al, BYTE PTR [eax+21]
  00161	80 f2 ed	 xor	 dl, -19			; ffffffedH
  00164	88 55 f8	 mov	 BYTE PTR __k$[ebp+20], dl
  00167	84 c0		 test	 al, al
  00169	74 07		 je	 SHORT $LN75@LoadString
  0016b	34 ec		 xor	 al, -20			; ffffffecH
  0016d	88 45 f9	 mov	 BYTE PTR __k$[ebp+21], al
  00170	eb 78		 jmp	 SHORT $LN111@LoadString
$LN75@LoadString:
  00172	c6 45 f9 ec	 mov	 BYTE PTR __k$[ebp+21], -20 ; ffffffecH
  00176	eb 72		 jmp	 SHORT $LN111@LoadString
$LN76@LoadString:
  00178	c6 45 f8 ed	 mov	 BYTE PTR __k$[ebp+20], -19 ; ffffffedH
  0017c	eb 6c		 jmp	 SHORT $LN111@LoadString
$LN77@LoadString:
  0017e	c6 45 f7 ea	 mov	 BYTE PTR __k$[ebp+19], -22 ; ffffffeaH
  00182	eb 66		 jmp	 SHORT $LN111@LoadString
$LN78@LoadString:
  00184	88 4d f6	 mov	 BYTE PTR __k$[ebp+18], cl
  00187	eb 61		 jmp	 SHORT $LN111@LoadString
$LN80@LoadString:
  00189	c6 45 f4 ed	 mov	 BYTE PTR __k$[ebp+16], -19 ; ffffffedH
  0018d	eb 5b		 jmp	 SHORT $LN111@LoadString
$LN81@LoadString:
  0018f	c6 45 f3 ea	 mov	 BYTE PTR __k$[ebp+15], -22 ; ffffffeaH
  00193	eb 55		 jmp	 SHORT $LN111@LoadString
$LN82@LoadString:
  00195	88 4d f2	 mov	 BYTE PTR __k$[ebp+14], cl
  00198	eb 50		 jmp	 SHORT $LN111@LoadString
$LN83@LoadString:
  0019a	c6 45 f1 ec	 mov	 BYTE PTR __k$[ebp+13], -20 ; ffffffecH
  0019e	eb 4a		 jmp	 SHORT $LN111@LoadString
$LN84@LoadString:
  001a0	c6 45 f0 ed	 mov	 BYTE PTR __k$[ebp+12], -19 ; ffffffedH
  001a4	eb 44		 jmp	 SHORT $LN111@LoadString
$LN85@LoadString:
  001a6	c6 45 ef ea	 mov	 BYTE PTR __k$[ebp+11], -22 ; ffffffeaH
  001aa	eb 3e		 jmp	 SHORT $LN111@LoadString
$LN86@LoadString:
  001ac	88 4d ee	 mov	 BYTE PTR __k$[ebp+10], cl
  001af	eb 39		 jmp	 SHORT $LN111@LoadString
$LN87@LoadString:
  001b1	c6 45 ed ec	 mov	 BYTE PTR __k$[ebp+9], -20 ; ffffffecH
  001b5	eb 33		 jmp	 SHORT $LN111@LoadString
$LN88@LoadString:
  001b7	c6 45 ec ed	 mov	 BYTE PTR __k$[ebp+8], -19 ; ffffffedH
  001bb	eb 2d		 jmp	 SHORT $LN111@LoadString
$LN89@LoadString:
  001bd	c6 45 eb ea	 mov	 BYTE PTR __k$[ebp+7], -22 ; ffffffeaH
  001c1	eb 27		 jmp	 SHORT $LN111@LoadString
$LN90@LoadString:
  001c3	88 4d ea	 mov	 BYTE PTR __k$[ebp+6], cl
  001c6	eb 22		 jmp	 SHORT $LN111@LoadString
$LN91@LoadString:
  001c8	c6 45 e9 ec	 mov	 BYTE PTR __k$[ebp+5], -20 ; ffffffecH
  001cc	eb 1c		 jmp	 SHORT $LN111@LoadString
$LN92@LoadString:
  001ce	c6 45 e8 ed	 mov	 BYTE PTR __k$[ebp+4], -19 ; ffffffedH
  001d2	eb 16		 jmp	 SHORT $LN111@LoadString
$LN93@LoadString:
  001d4	c6 45 e7 ea	 mov	 BYTE PTR __k$[ebp+3], -22 ; ffffffeaH
  001d8	eb 10		 jmp	 SHORT $LN111@LoadString
$LN94@LoadString:
  001da	c6 45 e6 eb	 mov	 BYTE PTR __k$[ebp+2], -21 ; ffffffebH
  001de	eb 0a		 jmp	 SHORT $LN111@LoadString
$LN95@LoadString:
  001e0	c6 45 e5 ec	 mov	 BYTE PTR __k$[ebp+1], -20 ; ffffffecH
  001e4	eb 04		 jmp	 SHORT $LN111@LoadString
$LN96@LoadString:
  001e6	c6 45 e4 ed	 mov	 BYTE PTR __k$[ebp], -19	; ffffffedH
$LN111@LoadString:
  001ea	6a 04		 push	 4
  001ec	8d 45 e4	 lea	 eax, DWORD PTR __k$[ebp]
  001ef	c6 45 f5 00	 mov	 BYTE PTR __k$[ebp+17], 0
  001f3	5a		 pop	 edx
$LL104@LoadString:
  001f4	81 30 ed ec eb
	ea		 xor	 DWORD PTR [eax], -353637139 ; eaebecedH
  001fa	83 c0 04	 add	 eax, 4
  001fd	4a		 dec	 edx
  001fe	75 f4		 jne	 SHORT $LL104@LoadString

; 163  : 		LoadString(_k, d, b, i);

  00200	ff 75 14	 push	 DWORD PTR _i$[ebp]
  00203	8b 4d e0	 mov	 ecx, DWORD PTR _this$GSCopy$[ebp]
  00206	80 75 f4 ed	 xor	 BYTE PTR __k$[ebp+16], -19 ; ffffffedH
  0020a	57		 push	 edi
  0020b	56		 push	 esi
  0020c	8d 45 e4	 lea	 eax, DWORD PTR __k$[ebp]
  0020f	50		 push	 eax
  00210	ff 15 00 00 00
	00		 call	 DWORD PTR __imp_?LoadStringA@ioINILoader@@QAEXPBD0PADH@Z

; 164  : 	}

  00216	8b 4d fc	 mov	 ecx, DWORD PTR __$ArrayPad$[ebp]
  00219	5f		 pop	 edi
  0021a	33 cd		 xor	 ecx, ebp
  0021c	5e		 pop	 esi
  0021d	e8 00 00 00 00	 call	 @__security_check_cookie@4
  00222	c9		 leave
  00223	c2 10 00	 ret	 16			; 00000010H
??$LoadString_e@$0BC@@ioINILoader@@QAEXAAY0BC@$$CBDAAY00$$CBDPADH@Z ENDP ; ioINILoader::LoadString_e<18>
_TEXT	ENDS
PUBLIC	__$ArrayPad$
PUBLIC	??$LoadFloat_e@$0BE@@ioINILoader@@QAEMAAY0BE@$$CBDM@Z ; ioINILoader::LoadFloat_e<20>
EXTRN	__imp_?LoadFloat@ioINILoader@@QAEMPBDM@Z:PROC
; Function compile flags: /Ogsp
;	COMDAT ??$LoadFloat_e@$0BE@@ioINILoader@@QAEMAAY0BE@$$CBDM@Z
_TEXT	SEGMENT
__k$ = -28						; size = 20
__$ArrayPad$ = -4					; size = 4
_k$ = 8							; size = 4
_f$ = 12						; size = 4
??$LoadFloat_e@$0BE@@ioINILoader@@QAEMAAY0BE@$$CBDM@Z PROC ; ioINILoader::LoadFloat_e<20>, COMDAT
; _this$ = ecx

; 135  : 	{

  00000	55		 push	 ebp
  00001	8b ec		 mov	 ebp, esp
  00003	83 ec 1c	 sub	 esp, 28			; 0000001cH
  00006	a1 00 00 00 00	 mov	 eax, DWORD PTR ___security_cookie
  0000b	33 c5		 xor	 eax, ebp
  0000d	89 45 fc	 mov	 DWORD PTR __$ArrayPad$[ebp], eax
  00010	8b 45 08	 mov	 eax, DWORD PTR _k$[ebp]

; 136  : 		_ENCSTR(k, _k);

  00013	8a 10		 mov	 dl, BYTE PTR [eax]
  00015	53		 push	 ebx
  00016	56		 push	 esi
  00017	8b f1		 mov	 esi, ecx
  00019	84 d2		 test	 dl, dl
  0001b	0f 84 dd 01 00
	00		 je	 $LN96@LoadFloat_
  00021	80 f2 ed	 xor	 dl, -19			; ffffffedH
  00024	88 55 e4	 mov	 BYTE PTR __k$[ebp], dl
  00027	8a 50 01	 mov	 dl, BYTE PTR [eax+1]
  0002a	84 d2		 test	 dl, dl
  0002c	0f 84 c6 01 00
	00		 je	 $LN95@LoadFloat_
  00032	b3 ec		 mov	 bl, -20			; ffffffecH
  00034	32 d3		 xor	 dl, bl
  00036	88 55 e5	 mov	 BYTE PTR __k$[ebp+1], dl
  00039	8a 50 02	 mov	 dl, BYTE PTR [eax+2]
  0003c	84 d2		 test	 dl, dl
  0003e	0f 84 ae 01 00
	00		 je	 $LN94@LoadFloat_
  00044	b1 eb		 mov	 cl, -21			; ffffffebH
  00046	32 d1		 xor	 dl, cl
  00048	88 55 e6	 mov	 BYTE PTR __k$[ebp+2], dl
  0004b	8a 50 03	 mov	 dl, BYTE PTR [eax+3]
  0004e	84 d2		 test	 dl, dl
  00050	0f 84 96 01 00
	00		 je	 $LN93@LoadFloat_
  00056	80 f2 ea	 xor	 dl, -22			; ffffffeaH
  00059	88 55 e7	 mov	 BYTE PTR __k$[ebp+3], dl
  0005c	8a 50 04	 mov	 dl, BYTE PTR [eax+4]
  0005f	84 d2		 test	 dl, dl
  00061	0f 84 7f 01 00
	00		 je	 $LN92@LoadFloat_
  00067	80 f2 ed	 xor	 dl, -19			; ffffffedH
  0006a	88 55 e8	 mov	 BYTE PTR __k$[ebp+4], dl
  0006d	8a 50 05	 mov	 dl, BYTE PTR [eax+5]
  00070	84 d2		 test	 dl, dl
  00072	0f 84 69 01 00
	00		 je	 $LN91@LoadFloat_
  00078	32 d3		 xor	 dl, bl
  0007a	88 55 e9	 mov	 BYTE PTR __k$[ebp+5], dl
  0007d	8a 50 06	 mov	 dl, BYTE PTR [eax+6]
  00080	84 d2		 test	 dl, dl
  00082	0f 84 54 01 00
	00		 je	 $LN90@LoadFloat_
  00088	32 d1		 xor	 dl, cl
  0008a	88 55 ea	 mov	 BYTE PTR __k$[ebp+6], dl
  0008d	8a 50 07	 mov	 dl, BYTE PTR [eax+7]
  00090	84 d2		 test	 dl, dl
  00092	0f 84 3e 01 00
	00		 je	 $LN89@LoadFloat_
  00098	80 f2 ea	 xor	 dl, -22			; ffffffeaH
  0009b	88 55 eb	 mov	 BYTE PTR __k$[ebp+7], dl
  0009e	8a 50 08	 mov	 dl, BYTE PTR [eax+8]
  000a1	84 d2		 test	 dl, dl
  000a3	0f 84 27 01 00
	00		 je	 $LN88@LoadFloat_
  000a9	80 f2 ed	 xor	 dl, -19			; ffffffedH
  000ac	88 55 ec	 mov	 BYTE PTR __k$[ebp+8], dl
  000af	8a 50 09	 mov	 dl, BYTE PTR [eax+9]
  000b2	84 d2		 test	 dl, dl
  000b4	0f 84 11 01 00
	00		 je	 $LN87@LoadFloat_
  000ba	32 d3		 xor	 dl, bl
  000bc	88 55 ed	 mov	 BYTE PTR __k$[ebp+9], dl
  000bf	8a 50 0a	 mov	 dl, BYTE PTR [eax+10]
  000c2	84 d2		 test	 dl, dl
  000c4	0f 84 fc 00 00
	00		 je	 $LN86@LoadFloat_
  000ca	32 d1		 xor	 dl, cl
  000cc	88 55 ee	 mov	 BYTE PTR __k$[ebp+10], dl
  000cf	8a 50 0b	 mov	 dl, BYTE PTR [eax+11]
  000d2	84 d2		 test	 dl, dl
  000d4	0f 84 e6 00 00
	00		 je	 $LN85@LoadFloat_
  000da	80 f2 ea	 xor	 dl, -22			; ffffffeaH
  000dd	88 55 ef	 mov	 BYTE PTR __k$[ebp+11], dl
  000e0	8a 50 0c	 mov	 dl, BYTE PTR [eax+12]
  000e3	84 d2		 test	 dl, dl
  000e5	0f 84 cf 00 00
	00		 je	 $LN84@LoadFloat_
  000eb	80 f2 ed	 xor	 dl, -19			; ffffffedH
  000ee	88 55 f0	 mov	 BYTE PTR __k$[ebp+12], dl
  000f1	8a 50 0d	 mov	 dl, BYTE PTR [eax+13]
  000f4	84 d2		 test	 dl, dl
  000f6	0f 84 b9 00 00
	00		 je	 $LN83@LoadFloat_
  000fc	32 d3		 xor	 dl, bl
  000fe	88 55 f1	 mov	 BYTE PTR __k$[ebp+13], dl
  00101	8a 50 0e	 mov	 dl, BYTE PTR [eax+14]
  00104	84 d2		 test	 dl, dl
  00106	0f 84 a4 00 00
	00		 je	 $LN82@LoadFloat_
  0010c	32 d1		 xor	 dl, cl
  0010e	88 55 f2	 mov	 BYTE PTR __k$[ebp+14], dl
  00111	8a 50 0f	 mov	 dl, BYTE PTR [eax+15]
  00114	84 d2		 test	 dl, dl
  00116	0f 84 8e 00 00
	00		 je	 $LN81@LoadFloat_
  0011c	80 f2 ea	 xor	 dl, -22			; ffffffeaH
  0011f	88 55 f3	 mov	 BYTE PTR __k$[ebp+15], dl
  00122	8a 50 10	 mov	 dl, BYTE PTR [eax+16]
  00125	84 d2		 test	 dl, dl
  00127	74 7b		 je	 SHORT $LN80@LoadFloat_
  00129	80 f2 ed	 xor	 dl, -19			; ffffffedH
  0012c	88 55 f4	 mov	 BYTE PTR __k$[ebp+16], dl
  0012f	8a 50 11	 mov	 dl, BYTE PTR [eax+17]
  00132	84 d2		 test	 dl, dl
  00134	74 69		 je	 SHORT $LN79@LoadFloat_
  00136	32 d3		 xor	 dl, bl
  00138	88 55 f5	 mov	 BYTE PTR __k$[ebp+17], dl
  0013b	8a 50 12	 mov	 dl, BYTE PTR [eax+18]
  0013e	84 d2		 test	 dl, dl
  00140	74 58		 je	 SHORT $LN78@LoadFloat_
  00142	32 d1		 xor	 dl, cl
  00144	80 78 13 00	 cmp	 BYTE PTR [eax+19], 0
  00148	88 55 f6	 mov	 BYTE PTR __k$[ebp+18], dl
  0014b	0f 84 b1 00 00
	00		 je	 $LN1@LoadFloat_
  00151	8a 50 14	 mov	 dl, BYTE PTR [eax+20]
  00154	84 d2		 test	 dl, dl
  00156	74 3c		 je	 SHORT $LN76@LoadFloat_
  00158	80 f2 ed	 xor	 dl, -19			; ffffffedH
  0015b	88 55 f8	 mov	 BYTE PTR __k$[ebp+20], dl
  0015e	8a 50 15	 mov	 dl, BYTE PTR [eax+21]
  00161	84 d2		 test	 dl, dl
  00163	74 2a		 je	 SHORT $LN75@LoadFloat_
  00165	32 d3		 xor	 dl, bl
  00167	88 55 f9	 mov	 BYTE PTR __k$[ebp+21], dl
  0016a	8a 50 16	 mov	 dl, BYTE PTR [eax+22]
  0016d	84 d2		 test	 dl, dl
  0016f	74 19		 je	 SHORT $LN74@LoadFloat_
  00171	8a 40 17	 mov	 al, BYTE PTR [eax+23]
  00174	32 d1		 xor	 dl, cl
  00176	88 55 fa	 mov	 BYTE PTR __k$[ebp+22], dl
  00179	84 c0		 test	 al, al
  0017b	74 07		 je	 SHORT $LN73@LoadFloat_
  0017d	34 ea		 xor	 al, -22			; ffffffeaH
  0017f	88 45 fb	 mov	 BYTE PTR __k$[ebp+23], al
  00182	eb 7e		 jmp	 SHORT $LN1@LoadFloat_
$LN73@LoadFloat_:
  00184	c6 45 fb ea	 mov	 BYTE PTR __k$[ebp+23], -22 ; ffffffeaH
  00188	eb 78		 jmp	 SHORT $LN1@LoadFloat_
$LN74@LoadFloat_:
  0018a	88 4d fa	 mov	 BYTE PTR __k$[ebp+22], cl
  0018d	eb 73		 jmp	 SHORT $LN1@LoadFloat_
$LN75@LoadFloat_:
  0018f	88 5d f9	 mov	 BYTE PTR __k$[ebp+21], bl
  00192	eb 6e		 jmp	 SHORT $LN1@LoadFloat_
$LN76@LoadFloat_:
  00194	c6 45 f8 ed	 mov	 BYTE PTR __k$[ebp+20], -19 ; ffffffedH
  00198	eb 68		 jmp	 SHORT $LN1@LoadFloat_
$LN78@LoadFloat_:
  0019a	88 4d f6	 mov	 BYTE PTR __k$[ebp+18], cl
  0019d	eb 63		 jmp	 SHORT $LN1@LoadFloat_
$LN79@LoadFloat_:
  0019f	88 5d f5	 mov	 BYTE PTR __k$[ebp+17], bl
  001a2	eb 5e		 jmp	 SHORT $LN1@LoadFloat_
$LN80@LoadFloat_:
  001a4	c6 45 f4 ed	 mov	 BYTE PTR __k$[ebp+16], -19 ; ffffffedH
  001a8	eb 58		 jmp	 SHORT $LN1@LoadFloat_
$LN81@LoadFloat_:
  001aa	c6 45 f3 ea	 mov	 BYTE PTR __k$[ebp+15], -22 ; ffffffeaH
  001ae	eb 52		 jmp	 SHORT $LN1@LoadFloat_
$LN82@LoadFloat_:
  001b0	88 4d f2	 mov	 BYTE PTR __k$[ebp+14], cl
  001b3	eb 4d		 jmp	 SHORT $LN1@LoadFloat_
$LN83@LoadFloat_:
  001b5	88 5d f1	 mov	 BYTE PTR __k$[ebp+13], bl
  001b8	eb 48		 jmp	 SHORT $LN1@LoadFloat_
$LN84@LoadFloat_:
  001ba	c6 45 f0 ed	 mov	 BYTE PTR __k$[ebp+12], -19 ; ffffffedH
  001be	eb 42		 jmp	 SHORT $LN1@LoadFloat_
$LN85@LoadFloat_:
  001c0	c6 45 ef ea	 mov	 BYTE PTR __k$[ebp+11], -22 ; ffffffeaH
  001c4	eb 3c		 jmp	 SHORT $LN1@LoadFloat_
$LN86@LoadFloat_:
  001c6	88 4d ee	 mov	 BYTE PTR __k$[ebp+10], cl
  001c9	eb 37		 jmp	 SHORT $LN1@LoadFloat_
$LN87@LoadFloat_:
  001cb	88 5d ed	 mov	 BYTE PTR __k$[ebp+9], bl
  001ce	eb 32		 jmp	 SHORT $LN1@LoadFloat_
$LN88@LoadFloat_:
  001d0	c6 45 ec ed	 mov	 BYTE PTR __k$[ebp+8], -19 ; ffffffedH
  001d4	eb 2c		 jmp	 SHORT $LN1@LoadFloat_
$LN89@LoadFloat_:
  001d6	c6 45 eb ea	 mov	 BYTE PTR __k$[ebp+7], -22 ; ffffffeaH
  001da	eb 26		 jmp	 SHORT $LN1@LoadFloat_
$LN90@LoadFloat_:
  001dc	88 4d ea	 mov	 BYTE PTR __k$[ebp+6], cl
  001df	eb 21		 jmp	 SHORT $LN1@LoadFloat_
$LN91@LoadFloat_:
  001e1	88 5d e9	 mov	 BYTE PTR __k$[ebp+5], bl
  001e4	eb 1c		 jmp	 SHORT $LN1@LoadFloat_
$LN92@LoadFloat_:
  001e6	c6 45 e8 ed	 mov	 BYTE PTR __k$[ebp+4], -19 ; ffffffedH
  001ea	eb 16		 jmp	 SHORT $LN1@LoadFloat_
$LN93@LoadFloat_:
  001ec	c6 45 e7 ea	 mov	 BYTE PTR __k$[ebp+3], -22 ; ffffffeaH
  001f0	eb 10		 jmp	 SHORT $LN1@LoadFloat_
$LN94@LoadFloat_:
  001f2	c6 45 e6 eb	 mov	 BYTE PTR __k$[ebp+2], -21 ; ffffffebH
  001f6	eb 0a		 jmp	 SHORT $LN1@LoadFloat_
$LN95@LoadFloat_:
  001f8	c6 45 e5 ec	 mov	 BYTE PTR __k$[ebp+1], -20 ; ffffffecH
  001fc	eb 04		 jmp	 SHORT $LN1@LoadFloat_
$LN96@LoadFloat_:
  001fe	c6 45 e4 ed	 mov	 BYTE PTR __k$[ebp], -19	; ffffffedH
$LN1@LoadFloat_:
  00202	6a 04		 push	 4
  00204	8d 45 e4	 lea	 eax, DWORD PTR __k$[ebp]
  00207	c6 45 f7 00	 mov	 BYTE PTR __k$[ebp+19], 0
  0020b	5a		 pop	 edx
$LL104@LoadFloat_:
  0020c	81 30 ed ec eb
	ea		 xor	 DWORD PTR [eax], -353637139 ; eaebecedH
  00212	83 c0 04	 add	 eax, 4
  00215	4a		 dec	 edx
  00216	75 f4		 jne	 SHORT $LL104@LoadFloat_
  00218	6a 10		 push	 16			; 00000010H
  0021a	58		 pop	 eax
$LL101@LoadFloat_:
  0021b	8b c8		 mov	 ecx, eax
  0021d	81 e1 03 00 00
	80		 and	 ecx, -2147483645	; 80000003H
  00223	79 05		 jns	 SHORT $LN111@LoadFloat_
  00225	49		 dec	 ecx
  00226	83 c9 fc	 or	 ecx, -4			; fffffffcH
  00229	41		 inc	 ecx
$LN111@LoadFloat_:
  0022a	b2 ed		 mov	 dl, -19			; ffffffedH
  0022c	2a d1		 sub	 dl, cl
  0022e	30 54 05 e4	 xor	 BYTE PTR __k$[ebp+eax], dl
  00232	40		 inc	 eax
  00233	83 f8 13	 cmp	 eax, 19			; 00000013H
  00236	7c e3		 jl	 SHORT $LL101@LoadFloat_

; 137  : 		return LoadFloat(_k, f);

  00238	f3 0f 10 45 0c	 movss	 xmm0, DWORD PTR _f$[ebp]
  0023d	51		 push	 ecx
  0023e	8d 45 e4	 lea	 eax, DWORD PTR __k$[ebp]
  00241	f3 0f 11 04 24	 movss	 DWORD PTR [esp], xmm0
  00246	50		 push	 eax
  00247	8b ce		 mov	 ecx, esi
  00249	ff 15 00 00 00
	00		 call	 DWORD PTR __imp_?LoadFloat@ioINILoader@@QAEMPBDM@Z

; 138  : 	}

  0024f	8b 4d fc	 mov	 ecx, DWORD PTR __$ArrayPad$[ebp]
  00252	5e		 pop	 esi
  00253	33 cd		 xor	 ecx, ebp
  00255	5b		 pop	 ebx
  00256	e8 00 00 00 00	 call	 @__security_check_cookie@4
  0025b	c9		 leave
  0025c	c2 08 00	 ret	 8
??$LoadFloat_e@$0BE@@ioINILoader@@QAEMAAY0BE@$$CBDM@Z ENDP ; ioINILoader::LoadFloat_e<20>
_TEXT	ENDS
PUBLIC	__$ArrayPad$
PUBLIC	??$LoadInt_e@$0BE@@ioINILoader@@QAEHAAY0BE@$$CBDH@Z ; ioINILoader::LoadInt_e<20>
EXTRN	__imp_?LoadInt@ioINILoader@@QAEHPBDH@Z:PROC
; Function compile flags: /Ogsp
;	COMDAT ??$LoadInt_e@$0BE@@ioINILoader@@QAEHAAY0BE@$$CBDH@Z
_TEXT	SEGMENT
__k$ = -28						; size = 20
__$ArrayPad$ = -4					; size = 4
_k$ = 8							; size = 4
_i$ = 12						; size = 4
??$LoadInt_e@$0BE@@ioINILoader@@QAEHAAY0BE@$$CBDH@Z PROC ; ioINILoader::LoadInt_e<20>, COMDAT
; _this$ = ecx

; 118  : 	{

  00000	55		 push	 ebp
  00001	8b ec		 mov	 ebp, esp
  00003	83 ec 1c	 sub	 esp, 28			; 0000001cH
  00006	a1 00 00 00 00	 mov	 eax, DWORD PTR ___security_cookie
  0000b	33 c5		 xor	 eax, ebp
  0000d	89 45 fc	 mov	 DWORD PTR __$ArrayPad$[ebp], eax
  00010	8b 45 08	 mov	 eax, DWORD PTR _k$[ebp]

; 119  : 		_ENCSTR(k, _k);

  00013	8a 10		 mov	 dl, BYTE PTR [eax]
  00015	53		 push	 ebx
  00016	56		 push	 esi
  00017	8b f1		 mov	 esi, ecx
  00019	84 d2		 test	 dl, dl
  0001b	0f 84 dd 01 00
	00		 je	 $LN96@LoadInt_e
  00021	80 f2 ed	 xor	 dl, -19			; ffffffedH
  00024	88 55 e4	 mov	 BYTE PTR __k$[ebp], dl
  00027	8a 50 01	 mov	 dl, BYTE PTR [eax+1]
  0002a	84 d2		 test	 dl, dl
  0002c	0f 84 c6 01 00
	00		 je	 $LN95@LoadInt_e
  00032	b3 ec		 mov	 bl, -20			; ffffffecH
  00034	32 d3		 xor	 dl, bl
  00036	88 55 e5	 mov	 BYTE PTR __k$[ebp+1], dl
  00039	8a 50 02	 mov	 dl, BYTE PTR [eax+2]
  0003c	84 d2		 test	 dl, dl
  0003e	0f 84 ae 01 00
	00		 je	 $LN94@LoadInt_e
  00044	b1 eb		 mov	 cl, -21			; ffffffebH
  00046	32 d1		 xor	 dl, cl
  00048	88 55 e6	 mov	 BYTE PTR __k$[ebp+2], dl
  0004b	8a 50 03	 mov	 dl, BYTE PTR [eax+3]
  0004e	84 d2		 test	 dl, dl
  00050	0f 84 96 01 00
	00		 je	 $LN93@LoadInt_e
  00056	80 f2 ea	 xor	 dl, -22			; ffffffeaH
  00059	88 55 e7	 mov	 BYTE PTR __k$[ebp+3], dl
  0005c	8a 50 04	 mov	 dl, BYTE PTR [eax+4]
  0005f	84 d2		 test	 dl, dl
  00061	0f 84 7f 01 00
	00		 je	 $LN92@LoadInt_e
  00067	80 f2 ed	 xor	 dl, -19			; ffffffedH
  0006a	88 55 e8	 mov	 BYTE PTR __k$[ebp+4], dl
  0006d	8a 50 05	 mov	 dl, BYTE PTR [eax+5]
  00070	84 d2		 test	 dl, dl
  00072	0f 84 69 01 00
	00		 je	 $LN91@LoadInt_e
  00078	32 d3		 xor	 dl, bl
  0007a	88 55 e9	 mov	 BYTE PTR __k$[ebp+5], dl
  0007d	8a 50 06	 mov	 dl, BYTE PTR [eax+6]
  00080	84 d2		 test	 dl, dl
  00082	0f 84 54 01 00
	00		 je	 $LN90@LoadInt_e
  00088	32 d1		 xor	 dl, cl
  0008a	88 55 ea	 mov	 BYTE PTR __k$[ebp+6], dl
  0008d	8a 50 07	 mov	 dl, BYTE PTR [eax+7]
  00090	84 d2		 test	 dl, dl
  00092	0f 84 3e 01 00
	00		 je	 $LN89@LoadInt_e
  00098	80 f2 ea	 xor	 dl, -22			; ffffffeaH
  0009b	88 55 eb	 mov	 BYTE PTR __k$[ebp+7], dl
  0009e	8a 50 08	 mov	 dl, BYTE PTR [eax+8]
  000a1	84 d2		 test	 dl, dl
  000a3	0f 84 27 01 00
	00		 je	 $LN88@LoadInt_e
  000a9	80 f2 ed	 xor	 dl, -19			; ffffffedH
  000ac	88 55 ec	 mov	 BYTE PTR __k$[ebp+8], dl
  000af	8a 50 09	 mov	 dl, BYTE PTR [eax+9]
  000b2	84 d2		 test	 dl, dl
  000b4	0f 84 11 01 00
	00		 je	 $LN87@LoadInt_e
  000ba	32 d3		 xor	 dl, bl
  000bc	88 55 ed	 mov	 BYTE PTR __k$[ebp+9], dl
  000bf	8a 50 0a	 mov	 dl, BYTE PTR [eax+10]
  000c2	84 d2		 test	 dl, dl
  000c4	0f 84 fc 00 00
	00		 je	 $LN86@LoadInt_e
  000ca	32 d1		 xor	 dl, cl
  000cc	88 55 ee	 mov	 BYTE PTR __k$[ebp+10], dl
  000cf	8a 50 0b	 mov	 dl, BYTE PTR [eax+11]
  000d2	84 d2		 test	 dl, dl
  000d4	0f 84 e6 00 00
	00		 je	 $LN85@LoadInt_e
  000da	80 f2 ea	 xor	 dl, -22			; ffffffeaH
  000dd	88 55 ef	 mov	 BYTE PTR __k$[ebp+11], dl
  000e0	8a 50 0c	 mov	 dl, BYTE PTR [eax+12]
  000e3	84 d2		 test	 dl, dl
  000e5	0f 84 cf 00 00
	00		 je	 $LN84@LoadInt_e
  000eb	80 f2 ed	 xor	 dl, -19			; ffffffedH
  000ee	88 55 f0	 mov	 BYTE PTR __k$[ebp+12], dl
  000f1	8a 50 0d	 mov	 dl, BYTE PTR [eax+13]
  000f4	84 d2		 test	 dl, dl
  000f6	0f 84 b9 00 00
	00		 je	 $LN83@LoadInt_e
  000fc	32 d3		 xor	 dl, bl
  000fe	88 55 f1	 mov	 BYTE PTR __k$[ebp+13], dl
  00101	8a 50 0e	 mov	 dl, BYTE PTR [eax+14]
  00104	84 d2		 test	 dl, dl
  00106	0f 84 a4 00 00
	00		 je	 $LN82@LoadInt_e
  0010c	32 d1		 xor	 dl, cl
  0010e	88 55 f2	 mov	 BYTE PTR __k$[ebp+14], dl
  00111	8a 50 0f	 mov	 dl, BYTE PTR [eax+15]
  00114	84 d2		 test	 dl, dl
  00116	0f 84 8e 00 00
	00		 je	 $LN81@LoadInt_e
  0011c	80 f2 ea	 xor	 dl, -22			; ffffffeaH
  0011f	88 55 f3	 mov	 BYTE PTR __k$[ebp+15], dl
  00122	8a 50 10	 mov	 dl, BYTE PTR [eax+16]
  00125	84 d2		 test	 dl, dl
  00127	74 7b		 je	 SHORT $LN80@LoadInt_e
  00129	80 f2 ed	 xor	 dl, -19			; ffffffedH
  0012c	88 55 f4	 mov	 BYTE PTR __k$[ebp+16], dl
  0012f	8a 50 11	 mov	 dl, BYTE PTR [eax+17]
  00132	84 d2		 test	 dl, dl
  00134	74 69		 je	 SHORT $LN79@LoadInt_e
  00136	32 d3		 xor	 dl, bl
  00138	88 55 f5	 mov	 BYTE PTR __k$[ebp+17], dl
  0013b	8a 50 12	 mov	 dl, BYTE PTR [eax+18]
  0013e	84 d2		 test	 dl, dl
  00140	74 58		 je	 SHORT $LN78@LoadInt_e
  00142	32 d1		 xor	 dl, cl
  00144	80 78 13 00	 cmp	 BYTE PTR [eax+19], 0
  00148	88 55 f6	 mov	 BYTE PTR __k$[ebp+18], dl
  0014b	0f 84 b1 00 00
	00		 je	 $LN1@LoadInt_e
  00151	8a 50 14	 mov	 dl, BYTE PTR [eax+20]
  00154	84 d2		 test	 dl, dl
  00156	74 3c		 je	 SHORT $LN76@LoadInt_e
  00158	80 f2 ed	 xor	 dl, -19			; ffffffedH
  0015b	88 55 f8	 mov	 BYTE PTR __k$[ebp+20], dl
  0015e	8a 50 15	 mov	 dl, BYTE PTR [eax+21]
  00161	84 d2		 test	 dl, dl
  00163	74 2a		 je	 SHORT $LN75@LoadInt_e
  00165	32 d3		 xor	 dl, bl
  00167	88 55 f9	 mov	 BYTE PTR __k$[ebp+21], dl
  0016a	8a 50 16	 mov	 dl, BYTE PTR [eax+22]
  0016d	84 d2		 test	 dl, dl
  0016f	74 19		 je	 SHORT $LN74@LoadInt_e
  00171	8a 40 17	 mov	 al, BYTE PTR [eax+23]
  00174	32 d1		 xor	 dl, cl
  00176	88 55 fa	 mov	 BYTE PTR __k$[ebp+22], dl
  00179	84 c0		 test	 al, al
  0017b	74 07		 je	 SHORT $LN73@LoadInt_e
  0017d	34 ea		 xor	 al, -22			; ffffffeaH
  0017f	88 45 fb	 mov	 BYTE PTR __k$[ebp+23], al
  00182	eb 7e		 jmp	 SHORT $LN1@LoadInt_e
$LN73@LoadInt_e:
  00184	c6 45 fb ea	 mov	 BYTE PTR __k$[ebp+23], -22 ; ffffffeaH
  00188	eb 78		 jmp	 SHORT $LN1@LoadInt_e
$LN74@LoadInt_e:
  0018a	88 4d fa	 mov	 BYTE PTR __k$[ebp+22], cl
  0018d	eb 73		 jmp	 SHORT $LN1@LoadInt_e
$LN75@LoadInt_e:
  0018f	88 5d f9	 mov	 BYTE PTR __k$[ebp+21], bl
  00192	eb 6e		 jmp	 SHORT $LN1@LoadInt_e
$LN76@LoadInt_e:
  00194	c6 45 f8 ed	 mov	 BYTE PTR __k$[ebp+20], -19 ; ffffffedH
  00198	eb 68		 jmp	 SHORT $LN1@LoadInt_e
$LN78@LoadInt_e:
  0019a	88 4d f6	 mov	 BYTE PTR __k$[ebp+18], cl
  0019d	eb 63		 jmp	 SHORT $LN1@LoadInt_e
$LN79@LoadInt_e:
  0019f	88 5d f5	 mov	 BYTE PTR __k$[ebp+17], bl
  001a2	eb 5e		 jmp	 SHORT $LN1@LoadInt_e
$LN80@LoadInt_e:
  001a4	c6 45 f4 ed	 mov	 BYTE PTR __k$[ebp+16], -19 ; ffffffedH
  001a8	eb 58		 jmp	 SHORT $LN1@LoadInt_e
$LN81@LoadInt_e:
  001aa	c6 45 f3 ea	 mov	 BYTE PTR __k$[ebp+15], -22 ; ffffffeaH
  001ae	eb 52		 jmp	 SHORT $LN1@LoadInt_e
$LN82@LoadInt_e:
  001b0	88 4d f2	 mov	 BYTE PTR __k$[ebp+14], cl
  001b3	eb 4d		 jmp	 SHORT $LN1@LoadInt_e
$LN83@LoadInt_e:
  001b5	88 5d f1	 mov	 BYTE PTR __k$[ebp+13], bl
  001b8	eb 48		 jmp	 SHORT $LN1@LoadInt_e
$LN84@LoadInt_e:
  001ba	c6 45 f0 ed	 mov	 BYTE PTR __k$[ebp+12], -19 ; ffffffedH
  001be	eb 42		 jmp	 SHORT $LN1@LoadInt_e
$LN85@LoadInt_e:
  001c0	c6 45 ef ea	 mov	 BYTE PTR __k$[ebp+11], -22 ; ffffffeaH
  001c4	eb 3c		 jmp	 SHORT $LN1@LoadInt_e
$LN86@LoadInt_e:
  001c6	88 4d ee	 mov	 BYTE PTR __k$[ebp+10], cl
  001c9	eb 37		 jmp	 SHORT $LN1@LoadInt_e
$LN87@LoadInt_e:
  001cb	88 5d ed	 mov	 BYTE PTR __k$[ebp+9], bl
  001ce	eb 32		 jmp	 SHORT $LN1@LoadInt_e
$LN88@LoadInt_e:
  001d0	c6 45 ec ed	 mov	 BYTE PTR __k$[ebp+8], -19 ; ffffffedH
  001d4	eb 2c		 jmp	 SHORT $LN1@LoadInt_e
$LN89@LoadInt_e:
  001d6	c6 45 eb ea	 mov	 BYTE PTR __k$[ebp+7], -22 ; ffffffeaH
  001da	eb 26		 jmp	 SHORT $LN1@LoadInt_e
$LN90@LoadInt_e:
  001dc	88 4d ea	 mov	 BYTE PTR __k$[ebp+6], cl
  001df	eb 21		 jmp	 SHORT $LN1@LoadInt_e
$LN91@LoadInt_e:
  001e1	88 5d e9	 mov	 BYTE PTR __k$[ebp+5], bl
  001e4	eb 1c		 jmp	 SHORT $LN1@LoadInt_e
$LN92@LoadInt_e:
  001e6	c6 45 e8 ed	 mov	 BYTE PTR __k$[ebp+4], -19 ; ffffffedH
  001ea	eb 16		 jmp	 SHORT $LN1@LoadInt_e
$LN93@LoadInt_e:
  001ec	c6 45 e7 ea	 mov	 BYTE PTR __k$[ebp+3], -22 ; ffffffeaH
  001f0	eb 10		 jmp	 SHORT $LN1@LoadInt_e
$LN94@LoadInt_e:
  001f2	c6 45 e6 eb	 mov	 BYTE PTR __k$[ebp+2], -21 ; ffffffebH
  001f6	eb 0a		 jmp	 SHORT $LN1@LoadInt_e
$LN95@LoadInt_e:
  001f8	c6 45 e5 ec	 mov	 BYTE PTR __k$[ebp+1], -20 ; ffffffecH
  001fc	eb 04		 jmp	 SHORT $LN1@LoadInt_e
$LN96@LoadInt_e:
  001fe	c6 45 e4 ed	 mov	 BYTE PTR __k$[ebp], -19	; ffffffedH
$LN1@LoadInt_e:
  00202	6a 04		 push	 4
  00204	8d 45 e4	 lea	 eax, DWORD PTR __k$[ebp]
  00207	c6 45 f7 00	 mov	 BYTE PTR __k$[ebp+19], 0
  0020b	5a		 pop	 edx
$LL104@LoadInt_e:
  0020c	81 30 ed ec eb
	ea		 xor	 DWORD PTR [eax], -353637139 ; eaebecedH
  00212	83 c0 04	 add	 eax, 4
  00215	4a		 dec	 edx
  00216	75 f4		 jne	 SHORT $LL104@LoadInt_e
  00218	6a 10		 push	 16			; 00000010H
  0021a	58		 pop	 eax
$LL101@LoadInt_e:
  0021b	8b c8		 mov	 ecx, eax
  0021d	81 e1 03 00 00
	80		 and	 ecx, -2147483645	; 80000003H
  00223	79 05		 jns	 SHORT $LN111@LoadInt_e
  00225	49		 dec	 ecx
  00226	83 c9 fc	 or	 ecx, -4			; fffffffcH
  00229	41		 inc	 ecx
$LN111@LoadInt_e:
  0022a	b2 ed		 mov	 dl, -19			; ffffffedH
  0022c	2a d1		 sub	 dl, cl
  0022e	30 54 05 e4	 xor	 BYTE PTR __k$[ebp+eax], dl
  00232	40		 inc	 eax
  00233	83 f8 13	 cmp	 eax, 19			; 00000013H
  00236	7c e3		 jl	 SHORT $LL101@LoadInt_e

; 120  : 		return LoadInt(_k, i);

  00238	ff 75 0c	 push	 DWORD PTR _i$[ebp]
  0023b	8d 45 e4	 lea	 eax, DWORD PTR __k$[ebp]
  0023e	50		 push	 eax
  0023f	8b ce		 mov	 ecx, esi
  00241	ff 15 00 00 00
	00		 call	 DWORD PTR __imp_?LoadInt@ioINILoader@@QAEHPBDH@Z

; 121  : 	}

  00247	8b 4d fc	 mov	 ecx, DWORD PTR __$ArrayPad$[ebp]
  0024a	5e		 pop	 esi
  0024b	33 cd		 xor	 ecx, ebp
  0024d	5b		 pop	 ebx
  0024e	e8 00 00 00 00	 call	 @__security_check_cookie@4
  00253	c9		 leave
  00254	c2 08 00	 ret	 8
??$LoadInt_e@$0BE@@ioINILoader@@QAEHAAY0BE@$$CBDH@Z ENDP ; ioINILoader::LoadInt_e<20>
_TEXT	ENDS
PUBLIC	__$ArrayPad$
PUBLIC	??$LoadFloat_e@$0N@@ioINILoader@@QAEMAAY0N@$$CBDM@Z ; ioINILoader::LoadFloat_e<13>
; Function compile flags: /Ogsp
;	COMDAT ??$LoadFloat_e@$0N@@ioINILoader@@QAEMAAY0N@$$CBDM@Z
_TEXT	SEGMENT
__k$ = -24						; size = 13
__$ArrayPad$ = -4					; size = 4
_k$ = 8							; size = 4
_f$ = 12						; size = 4
??$LoadFloat_e@$0N@@ioINILoader@@QAEMAAY0N@$$CBDM@Z PROC ; ioINILoader::LoadFloat_e<13>, COMDAT
; _this$ = ecx

; 135  : 	{

  00000	55		 push	 ebp
  00001	8b ec		 mov	 ebp, esp
  00003	83 ec 18	 sub	 esp, 24			; 00000018H
  00006	a1 00 00 00 00	 mov	 eax, DWORD PTR ___security_cookie
  0000b	33 c5		 xor	 eax, ebp
  0000d	89 45 fc	 mov	 DWORD PTR __$ArrayPad$[ebp], eax
  00010	8b 45 08	 mov	 eax, DWORD PTR _k$[ebp]

; 136  : 		_ENCSTR(k, _k);

  00013	8a 10		 mov	 dl, BYTE PTR [eax]
  00015	56		 push	 esi
  00016	8b f1		 mov	 esi, ecx
  00018	84 d2		 test	 dl, dl
  0001a	0f 84 4d 01 00
	00		 je	 $LN96@LoadFloat_@2
  00020	80 f2 ed	 xor	 dl, -19			; ffffffedH
  00023	88 55 e8	 mov	 BYTE PTR __k$[ebp], dl
  00026	8a 50 01	 mov	 dl, BYTE PTR [eax+1]
  00029	84 d2		 test	 dl, dl
  0002b	0f 84 36 01 00
	00		 je	 $LN95@LoadFloat_@2
  00031	b1 ec		 mov	 cl, -20			; ffffffecH
  00033	32 d1		 xor	 dl, cl
  00035	88 55 e9	 mov	 BYTE PTR __k$[ebp+1], dl
  00038	8a 50 02	 mov	 dl, BYTE PTR [eax+2]
  0003b	84 d2		 test	 dl, dl
  0003d	0f 84 1e 01 00
	00		 je	 $LN94@LoadFloat_@2
  00043	80 f2 eb	 xor	 dl, -21			; ffffffebH
  00046	88 55 ea	 mov	 BYTE PTR __k$[ebp+2], dl
  00049	8a 50 03	 mov	 dl, BYTE PTR [eax+3]
  0004c	84 d2		 test	 dl, dl
  0004e	0f 84 07 01 00
	00		 je	 $LN93@LoadFloat_@2
  00054	80 f2 ea	 xor	 dl, -22			; ffffffeaH
  00057	88 55 eb	 mov	 BYTE PTR __k$[ebp+3], dl
  0005a	8a 50 04	 mov	 dl, BYTE PTR [eax+4]
  0005d	84 d2		 test	 dl, dl
  0005f	0f 84 f0 00 00
	00		 je	 $LN92@LoadFloat_@2
  00065	80 f2 ed	 xor	 dl, -19			; ffffffedH
  00068	88 55 ec	 mov	 BYTE PTR __k$[ebp+4], dl
  0006b	8a 50 05	 mov	 dl, BYTE PTR [eax+5]
  0006e	84 d2		 test	 dl, dl
  00070	0f 84 da 00 00
	00		 je	 $LN91@LoadFloat_@2
  00076	32 d1		 xor	 dl, cl
  00078	88 55 ed	 mov	 BYTE PTR __k$[ebp+5], dl
  0007b	8a 50 06	 mov	 dl, BYTE PTR [eax+6]
  0007e	84 d2		 test	 dl, dl
  00080	0f 84 c4 00 00
	00		 je	 $LN90@LoadFloat_@2
  00086	80 f2 eb	 xor	 dl, -21			; ffffffebH
  00089	88 55 ee	 mov	 BYTE PTR __k$[ebp+6], dl
  0008c	8a 50 07	 mov	 dl, BYTE PTR [eax+7]
  0008f	84 d2		 test	 dl, dl
  00091	0f 84 ad 00 00
	00		 je	 $LN89@LoadFloat_@2
  00097	80 f2 ea	 xor	 dl, -22			; ffffffeaH
  0009a	88 55 ef	 mov	 BYTE PTR __k$[ebp+7], dl
  0009d	8a 50 08	 mov	 dl, BYTE PTR [eax+8]
  000a0	84 d2		 test	 dl, dl
  000a2	0f 84 96 00 00
	00		 je	 $LN88@LoadFloat_@2
  000a8	80 f2 ed	 xor	 dl, -19			; ffffffedH
  000ab	88 55 f0	 mov	 BYTE PTR __k$[ebp+8], dl
  000ae	8a 50 09	 mov	 dl, BYTE PTR [eax+9]
  000b1	84 d2		 test	 dl, dl
  000b3	0f 84 80 00 00
	00		 je	 $LN87@LoadFloat_@2
  000b9	32 d1		 xor	 dl, cl
  000bb	88 55 f1	 mov	 BYTE PTR __k$[ebp+9], dl
  000be	8a 50 0a	 mov	 dl, BYTE PTR [eax+10]
  000c1	84 d2		 test	 dl, dl
  000c3	74 6e		 je	 SHORT $LN86@LoadFloat_@2
  000c5	80 f2 eb	 xor	 dl, -21			; ffffffebH
  000c8	88 55 f2	 mov	 BYTE PTR __k$[ebp+10], dl
  000cb	8a 50 0b	 mov	 dl, BYTE PTR [eax+11]
  000ce	84 d2		 test	 dl, dl
  000d0	74 5b		 je	 SHORT $LN85@LoadFloat_@2
  000d2	80 f2 ea	 xor	 dl, -22			; ffffffeaH
  000d5	80 78 0c 00	 cmp	 BYTE PTR [eax+12], 0
  000d9	88 55 f3	 mov	 BYTE PTR __k$[ebp+11], dl
  000dc	0f 84 8f 00 00
	00		 je	 $LN1@LoadFloat_@2
  000e2	8a 50 0d	 mov	 dl, BYTE PTR [eax+13]
  000e5	84 d2		 test	 dl, dl
  000e7	74 3f		 je	 SHORT $LN83@LoadFloat_@2
  000e9	32 d1		 xor	 dl, cl
  000eb	88 55 f5	 mov	 BYTE PTR __k$[ebp+13], dl
  000ee	8a 50 0e	 mov	 dl, BYTE PTR [eax+14]
  000f1	84 d2		 test	 dl, dl
  000f3	74 2d		 je	 SHORT $LN82@LoadFloat_@2
  000f5	80 f2 eb	 xor	 dl, -21			; ffffffebH
  000f8	88 55 f6	 mov	 BYTE PTR __k$[ebp+14], dl
  000fb	8a 50 0f	 mov	 dl, BYTE PTR [eax+15]
  000fe	84 d2		 test	 dl, dl
  00100	74 1a		 je	 SHORT $LN81@LoadFloat_@2
  00102	8a 40 10	 mov	 al, BYTE PTR [eax+16]
  00105	80 f2 ea	 xor	 dl, -22			; ffffffeaH
  00108	88 55 f7	 mov	 BYTE PTR __k$[ebp+15], dl
  0010b	84 c0		 test	 al, al
  0010d	74 07		 je	 SHORT $LN80@LoadFloat_@2
  0010f	34 ed		 xor	 al, -19			; ffffffedH
  00111	88 45 f8	 mov	 BYTE PTR __k$[ebp+16], al
  00114	eb 5b		 jmp	 SHORT $LN1@LoadFloat_@2
$LN80@LoadFloat_@2:
  00116	c6 45 f8 ed	 mov	 BYTE PTR __k$[ebp+16], -19 ; ffffffedH
  0011a	eb 55		 jmp	 SHORT $LN1@LoadFloat_@2
$LN81@LoadFloat_@2:
  0011c	c6 45 f7 ea	 mov	 BYTE PTR __k$[ebp+15], -22 ; ffffffeaH
  00120	eb 4f		 jmp	 SHORT $LN1@LoadFloat_@2
$LN82@LoadFloat_@2:
  00122	c6 45 f6 eb	 mov	 BYTE PTR __k$[ebp+14], -21 ; ffffffebH
  00126	eb 49		 jmp	 SHORT $LN1@LoadFloat_@2
$LN83@LoadFloat_@2:
  00128	88 4d f5	 mov	 BYTE PTR __k$[ebp+13], cl
  0012b	eb 44		 jmp	 SHORT $LN1@LoadFloat_@2
$LN85@LoadFloat_@2:
  0012d	c6 45 f3 ea	 mov	 BYTE PTR __k$[ebp+11], -22 ; ffffffeaH
  00131	eb 3e		 jmp	 SHORT $LN1@LoadFloat_@2
$LN86@LoadFloat_@2:
  00133	c6 45 f2 eb	 mov	 BYTE PTR __k$[ebp+10], -21 ; ffffffebH
  00137	eb 38		 jmp	 SHORT $LN1@LoadFloat_@2
$LN87@LoadFloat_@2:
  00139	88 4d f1	 mov	 BYTE PTR __k$[ebp+9], cl
  0013c	eb 33		 jmp	 SHORT $LN1@LoadFloat_@2
$LN88@LoadFloat_@2:
  0013e	c6 45 f0 ed	 mov	 BYTE PTR __k$[ebp+8], -19 ; ffffffedH
  00142	eb 2d		 jmp	 SHORT $LN1@LoadFloat_@2
$LN89@LoadFloat_@2:
  00144	c6 45 ef ea	 mov	 BYTE PTR __k$[ebp+7], -22 ; ffffffeaH
  00148	eb 27		 jmp	 SHORT $LN1@LoadFloat_@2
$LN90@LoadFloat_@2:
  0014a	c6 45 ee eb	 mov	 BYTE PTR __k$[ebp+6], -21 ; ffffffebH
  0014e	eb 21		 jmp	 SHORT $LN1@LoadFloat_@2
$LN91@LoadFloat_@2:
  00150	88 4d ed	 mov	 BYTE PTR __k$[ebp+5], cl
  00153	eb 1c		 jmp	 SHORT $LN1@LoadFloat_@2
$LN92@LoadFloat_@2:
  00155	c6 45 ec ed	 mov	 BYTE PTR __k$[ebp+4], -19 ; ffffffedH
  00159	eb 16		 jmp	 SHORT $LN1@LoadFloat_@2
$LN93@LoadFloat_@2:
  0015b	c6 45 eb ea	 mov	 BYTE PTR __k$[ebp+3], -22 ; ffffffeaH
  0015f	eb 10		 jmp	 SHORT $LN1@LoadFloat_@2
$LN94@LoadFloat_@2:
  00161	c6 45 ea eb	 mov	 BYTE PTR __k$[ebp+2], -21 ; ffffffebH
  00165	eb 0a		 jmp	 SHORT $LN1@LoadFloat_@2
$LN95@LoadFloat_@2:
  00167	c6 45 e9 ec	 mov	 BYTE PTR __k$[ebp+1], -20 ; ffffffecH
  0016b	eb 04		 jmp	 SHORT $LN1@LoadFloat_@2
$LN96@LoadFloat_@2:
  0016d	c6 45 e8 ed	 mov	 BYTE PTR __k$[ebp], -19	; ffffffedH
$LN1@LoadFloat_@2:
  00171	6a 03		 push	 3
  00173	8d 45 e8	 lea	 eax, DWORD PTR __k$[ebp]
  00176	c6 45 f4 00	 mov	 BYTE PTR __k$[ebp+12], 0
  0017a	5a		 pop	 edx
$LL104@LoadFloat_@2:
  0017b	81 30 ed ec eb
	ea		 xor	 DWORD PTR [eax], -353637139 ; eaebecedH
  00181	83 c0 04	 add	 eax, 4
  00184	4a		 dec	 edx
  00185	75 f4		 jne	 SHORT $LL104@LoadFloat_@2

; 137  : 		return LoadFloat(_k, f);

  00187	f3 0f 10 45 0c	 movss	 xmm0, DWORD PTR _f$[ebp]
  0018c	51		 push	 ecx
  0018d	8d 45 e8	 lea	 eax, DWORD PTR __k$[ebp]
  00190	f3 0f 11 04 24	 movss	 DWORD PTR [esp], xmm0
  00195	50		 push	 eax
  00196	8b ce		 mov	 ecx, esi
  00198	ff 15 00 00 00
	00		 call	 DWORD PTR __imp_?LoadFloat@ioINILoader@@QAEMPBDM@Z

; 138  : 	}

  0019e	8b 4d fc	 mov	 ecx, DWORD PTR __$ArrayPad$[ebp]
  001a1	33 cd		 xor	 ecx, ebp
  001a3	5e		 pop	 esi
  001a4	e8 00 00 00 00	 call	 @__security_check_cookie@4
  001a9	c9		 leave
  001aa	c2 08 00	 ret	 8
??$LoadFloat_e@$0N@@ioINILoader@@QAEMAAY0N@$$CBDM@Z ENDP ; ioINILoader::LoadFloat_e<13>
_TEXT	ENDS
PUBLIC	__$ArrayPad$
PUBLIC	??$LoadInt_e@$0BC@@ioINILoader@@QAEHAAY0BC@$$CBDH@Z ; ioINILoader::LoadInt_e<18>
; Function compile flags: /Ogsp
;	COMDAT ??$LoadInt_e@$0BC@@ioINILoader@@QAEHAAY0BC@$$CBDH@Z
_TEXT	SEGMENT
__k$ = -28						; size = 18
__$ArrayPad$ = -4					; size = 4
_k$ = 8							; size = 4
_i$ = 12						; size = 4
??$LoadInt_e@$0BC@@ioINILoader@@QAEHAAY0BC@$$CBDH@Z PROC ; ioINILoader::LoadInt_e<18>, COMDAT
; _this$ = ecx

; 118  : 	{

  00000	55		 push	 ebp
  00001	8b ec		 mov	 ebp, esp
  00003	83 ec 1c	 sub	 esp, 28			; 0000001cH
  00006	a1 00 00 00 00	 mov	 eax, DWORD PTR ___security_cookie
  0000b	33 c5		 xor	 eax, ebp
  0000d	89 45 fc	 mov	 DWORD PTR __$ArrayPad$[ebp], eax
  00010	8b 45 08	 mov	 eax, DWORD PTR _k$[ebp]

; 119  : 		_ENCSTR(k, _k);

  00013	8a 10		 mov	 dl, BYTE PTR [eax]
  00015	56		 push	 esi
  00016	8b f1		 mov	 esi, ecx
  00018	84 d2		 test	 dl, dl
  0001a	0f 84 be 01 00
	00		 je	 $LN96@LoadInt_e@2
  00020	80 f2 ed	 xor	 dl, -19			; ffffffedH
  00023	88 55 e4	 mov	 BYTE PTR __k$[ebp], dl
  00026	8a 50 01	 mov	 dl, BYTE PTR [eax+1]
  00029	84 d2		 test	 dl, dl
  0002b	0f 84 a7 01 00
	00		 je	 $LN95@LoadInt_e@2
  00031	80 f2 ec	 xor	 dl, -20			; ffffffecH
  00034	88 55 e5	 mov	 BYTE PTR __k$[ebp+1], dl
  00037	8a 50 02	 mov	 dl, BYTE PTR [eax+2]
  0003a	84 d2		 test	 dl, dl
  0003c	0f 84 90 01 00
	00		 je	 $LN94@LoadInt_e@2
  00042	b1 eb		 mov	 cl, -21			; ffffffebH
  00044	32 d1		 xor	 dl, cl
  00046	88 55 e6	 mov	 BYTE PTR __k$[ebp+2], dl
  00049	8a 50 03	 mov	 dl, BYTE PTR [eax+3]
  0004c	84 d2		 test	 dl, dl
  0004e	0f 84 78 01 00
	00		 je	 $LN93@LoadInt_e@2
  00054	80 f2 ea	 xor	 dl, -22			; ffffffeaH
  00057	88 55 e7	 mov	 BYTE PTR __k$[ebp+3], dl
  0005a	8a 50 04	 mov	 dl, BYTE PTR [eax+4]
  0005d	84 d2		 test	 dl, dl
  0005f	0f 84 61 01 00
	00		 je	 $LN92@LoadInt_e@2
  00065	80 f2 ed	 xor	 dl, -19			; ffffffedH
  00068	88 55 e8	 mov	 BYTE PTR __k$[ebp+4], dl
  0006b	8a 50 05	 mov	 dl, BYTE PTR [eax+5]
  0006e	84 d2		 test	 dl, dl
  00070	0f 84 4a 01 00
	00		 je	 $LN91@LoadInt_e@2
  00076	80 f2 ec	 xor	 dl, -20			; ffffffecH
  00079	88 55 e9	 mov	 BYTE PTR __k$[ebp+5], dl
  0007c	8a 50 06	 mov	 dl, BYTE PTR [eax+6]
  0007f	84 d2		 test	 dl, dl
  00081	0f 84 34 01 00
	00		 je	 $LN90@LoadInt_e@2
  00087	32 d1		 xor	 dl, cl
  00089	88 55 ea	 mov	 BYTE PTR __k$[ebp+6], dl
  0008c	8a 50 07	 mov	 dl, BYTE PTR [eax+7]
  0008f	84 d2		 test	 dl, dl
  00091	0f 84 1e 01 00
	00		 je	 $LN89@LoadInt_e@2
  00097	80 f2 ea	 xor	 dl, -22			; ffffffeaH
  0009a	88 55 eb	 mov	 BYTE PTR __k$[ebp+7], dl
  0009d	8a 50 08	 mov	 dl, BYTE PTR [eax+8]
  000a0	84 d2		 test	 dl, dl
  000a2	0f 84 07 01 00
	00		 je	 $LN88@LoadInt_e@2
  000a8	80 f2 ed	 xor	 dl, -19			; ffffffedH
  000ab	88 55 ec	 mov	 BYTE PTR __k$[ebp+8], dl
  000ae	8a 50 09	 mov	 dl, BYTE PTR [eax+9]
  000b1	84 d2		 test	 dl, dl
  000b3	0f 84 f0 00 00
	00		 je	 $LN87@LoadInt_e@2
  000b9	80 f2 ec	 xor	 dl, -20			; ffffffecH
  000bc	88 55 ed	 mov	 BYTE PTR __k$[ebp+9], dl
  000bf	8a 50 0a	 mov	 dl, BYTE PTR [eax+10]
  000c2	84 d2		 test	 dl, dl
  000c4	0f 84 da 00 00
	00		 je	 $LN86@LoadInt_e@2
  000ca	32 d1		 xor	 dl, cl
  000cc	88 55 ee	 mov	 BYTE PTR __k$[ebp+10], dl
  000cf	8a 50 0b	 mov	 dl, BYTE PTR [eax+11]
  000d2	84 d2		 test	 dl, dl
  000d4	0f 84 c4 00 00
	00		 je	 $LN85@LoadInt_e@2
  000da	80 f2 ea	 xor	 dl, -22			; ffffffeaH
  000dd	88 55 ef	 mov	 BYTE PTR __k$[ebp+11], dl
  000e0	8a 50 0c	 mov	 dl, BYTE PTR [eax+12]
  000e3	84 d2		 test	 dl, dl
  000e5	0f 84 ad 00 00
	00		 je	 $LN84@LoadInt_e@2
  000eb	80 f2 ed	 xor	 dl, -19			; ffffffedH
  000ee	88 55 f0	 mov	 BYTE PTR __k$[ebp+12], dl
  000f1	8a 50 0d	 mov	 dl, BYTE PTR [eax+13]
  000f4	84 d2		 test	 dl, dl
  000f6	0f 84 96 00 00
	00		 je	 $LN83@LoadInt_e@2
  000fc	80 f2 ec	 xor	 dl, -20			; ffffffecH
  000ff	88 55 f1	 mov	 BYTE PTR __k$[ebp+13], dl
  00102	8a 50 0e	 mov	 dl, BYTE PTR [eax+14]
  00105	84 d2		 test	 dl, dl
  00107	0f 84 80 00 00
	00		 je	 $LN82@LoadInt_e@2
  0010d	32 d1		 xor	 dl, cl
  0010f	88 55 f2	 mov	 BYTE PTR __k$[ebp+14], dl
  00112	8a 50 0f	 mov	 dl, BYTE PTR [eax+15]
  00115	84 d2		 test	 dl, dl
  00117	74 6e		 je	 SHORT $LN81@LoadInt_e@2
  00119	80 f2 ea	 xor	 dl, -22			; ffffffeaH
  0011c	88 55 f3	 mov	 BYTE PTR __k$[ebp+15], dl
  0011f	8a 50 10	 mov	 dl, BYTE PTR [eax+16]
  00122	84 d2		 test	 dl, dl
  00124	74 5b		 je	 SHORT $LN80@LoadInt_e@2
  00126	80 f2 ed	 xor	 dl, -19			; ffffffedH
  00129	80 78 11 00	 cmp	 BYTE PTR [eax+17], 0
  0012d	88 55 f4	 mov	 BYTE PTR __k$[ebp+16], dl
  00130	0f 84 ac 00 00
	00		 je	 $LN1@LoadInt_e@2
  00136	8a 50 12	 mov	 dl, BYTE PTR [eax+18]
  00139	84 d2		 test	 dl, dl
  0013b	74 3f		 je	 SHORT $LN78@LoadInt_e@2
  0013d	32 d1		 xor	 dl, cl
  0013f	88 55 f6	 mov	 BYTE PTR __k$[ebp+18], dl
  00142	8a 50 13	 mov	 dl, BYTE PTR [eax+19]
  00145	84 d2		 test	 dl, dl
  00147	74 2d		 je	 SHORT $LN77@LoadInt_e@2
  00149	80 f2 ea	 xor	 dl, -22			; ffffffeaH
  0014c	88 55 f7	 mov	 BYTE PTR __k$[ebp+19], dl
  0014f	8a 50 14	 mov	 dl, BYTE PTR [eax+20]
  00152	84 d2		 test	 dl, dl
  00154	74 1a		 je	 SHORT $LN76@LoadInt_e@2
  00156	8a 40 15	 mov	 al, BYTE PTR [eax+21]
  00159	80 f2 ed	 xor	 dl, -19			; ffffffedH
  0015c	88 55 f8	 mov	 BYTE PTR __k$[ebp+20], dl
  0015f	84 c0		 test	 al, al
  00161	74 07		 je	 SHORT $LN75@LoadInt_e@2
  00163	34 ec		 xor	 al, -20			; ffffffecH
  00165	88 45 f9	 mov	 BYTE PTR __k$[ebp+21], al
  00168	eb 78		 jmp	 SHORT $LN1@LoadInt_e@2
$LN75@LoadInt_e@2:
  0016a	c6 45 f9 ec	 mov	 BYTE PTR __k$[ebp+21], -20 ; ffffffecH
  0016e	eb 72		 jmp	 SHORT $LN1@LoadInt_e@2
$LN76@LoadInt_e@2:
  00170	c6 45 f8 ed	 mov	 BYTE PTR __k$[ebp+20], -19 ; ffffffedH
  00174	eb 6c		 jmp	 SHORT $LN1@LoadInt_e@2
$LN77@LoadInt_e@2:
  00176	c6 45 f7 ea	 mov	 BYTE PTR __k$[ebp+19], -22 ; ffffffeaH
  0017a	eb 66		 jmp	 SHORT $LN1@LoadInt_e@2
$LN78@LoadInt_e@2:
  0017c	88 4d f6	 mov	 BYTE PTR __k$[ebp+18], cl
  0017f	eb 61		 jmp	 SHORT $LN1@LoadInt_e@2
$LN80@LoadInt_e@2:
  00181	c6 45 f4 ed	 mov	 BYTE PTR __k$[ebp+16], -19 ; ffffffedH
  00185	eb 5b		 jmp	 SHORT $LN1@LoadInt_e@2
$LN81@LoadInt_e@2:
  00187	c6 45 f3 ea	 mov	 BYTE PTR __k$[ebp+15], -22 ; ffffffeaH
  0018b	eb 55		 jmp	 SHORT $LN1@LoadInt_e@2
$LN82@LoadInt_e@2:
  0018d	88 4d f2	 mov	 BYTE PTR __k$[ebp+14], cl
  00190	eb 50		 jmp	 SHORT $LN1@LoadInt_e@2
$LN83@LoadInt_e@2:
  00192	c6 45 f1 ec	 mov	 BYTE PTR __k$[ebp+13], -20 ; ffffffecH
  00196	eb 4a		 jmp	 SHORT $LN1@LoadInt_e@2
$LN84@LoadInt_e@2:
  00198	c6 45 f0 ed	 mov	 BYTE PTR __k$[ebp+12], -19 ; ffffffedH
  0019c	eb 44		 jmp	 SHORT $LN1@LoadInt_e@2
$LN85@LoadInt_e@2:
  0019e	c6 45 ef ea	 mov	 BYTE PTR __k$[ebp+11], -22 ; ffffffeaH
  001a2	eb 3e		 jmp	 SHORT $LN1@LoadInt_e@2
$LN86@LoadInt_e@2:
  001a4	88 4d ee	 mov	 BYTE PTR __k$[ebp+10], cl
  001a7	eb 39		 jmp	 SHORT $LN1@LoadInt_e@2
$LN87@LoadInt_e@2:
  001a9	c6 45 ed ec	 mov	 BYTE PTR __k$[ebp+9], -20 ; ffffffecH
  001ad	eb 33		 jmp	 SHORT $LN1@LoadInt_e@2
$LN88@LoadInt_e@2:
  001af	c6 45 ec ed	 mov	 BYTE PTR __k$[ebp+8], -19 ; ffffffedH
  001b3	eb 2d		 jmp	 SHORT $LN1@LoadInt_e@2
$LN89@LoadInt_e@2:
  001b5	c6 45 eb ea	 mov	 BYTE PTR __k$[ebp+7], -22 ; ffffffeaH
  001b9	eb 27		 jmp	 SHORT $LN1@LoadInt_e@2
$LN90@LoadInt_e@2:
  001bb	88 4d ea	 mov	 BYTE PTR __k$[ebp+6], cl
  001be	eb 22		 jmp	 SHORT $LN1@LoadInt_e@2
$LN91@LoadInt_e@2:
  001c0	c6 45 e9 ec	 mov	 BYTE PTR __k$[ebp+5], -20 ; ffffffecH
  001c4	eb 1c		 jmp	 SHORT $LN1@LoadInt_e@2
$LN92@LoadInt_e@2:
  001c6	c6 45 e8 ed	 mov	 BYTE PTR __k$[ebp+4], -19 ; ffffffedH
  001ca	eb 16		 jmp	 SHORT $LN1@LoadInt_e@2
$LN93@LoadInt_e@2:
  001cc	c6 45 e7 ea	 mov	 BYTE PTR __k$[ebp+3], -22 ; ffffffeaH
  001d0	eb 10		 jmp	 SHORT $LN1@LoadInt_e@2
$LN94@LoadInt_e@2:
  001d2	c6 45 e6 eb	 mov	 BYTE PTR __k$[ebp+2], -21 ; ffffffebH
  001d6	eb 0a		 jmp	 SHORT $LN1@LoadInt_e@2
$LN95@LoadInt_e@2:
  001d8	c6 45 e5 ec	 mov	 BYTE PTR __k$[ebp+1], -20 ; ffffffecH
  001dc	eb 04		 jmp	 SHORT $LN1@LoadInt_e@2
$LN96@LoadInt_e@2:
  001de	c6 45 e4 ed	 mov	 BYTE PTR __k$[ebp], -19	; ffffffedH
$LN1@LoadInt_e@2:
  001e2	6a 04		 push	 4
  001e4	8d 45 e4	 lea	 eax, DWORD PTR __k$[ebp]
  001e7	c6 45 f5 00	 mov	 BYTE PTR __k$[ebp+17], 0
  001eb	5a		 pop	 edx
$LL104@LoadInt_e@2:
  001ec	81 30 ed ec eb
	ea		 xor	 DWORD PTR [eax], -353637139 ; eaebecedH
  001f2	83 c0 04	 add	 eax, 4
  001f5	4a		 dec	 edx
  001f6	75 f4		 jne	 SHORT $LL104@LoadInt_e@2

; 120  : 		return LoadInt(_k, i);

  001f8	ff 75 0c	 push	 DWORD PTR _i$[ebp]
  001fb	80 75 f4 ed	 xor	 BYTE PTR __k$[ebp+16], -19 ; ffffffedH
  001ff	8d 45 e4	 lea	 eax, DWORD PTR __k$[ebp]
  00202	50		 push	 eax
  00203	8b ce		 mov	 ecx, esi
  00205	ff 15 00 00 00
	00		 call	 DWORD PTR __imp_?LoadInt@ioINILoader@@QAEHPBDH@Z

; 121  : 	}

  0020b	8b 4d fc	 mov	 ecx, DWORD PTR __$ArrayPad$[ebp]
  0020e	33 cd		 xor	 ecx, ebp
  00210	5e		 pop	 esi
  00211	e8 00 00 00 00	 call	 @__security_check_cookie@4
  00216	c9		 leave
  00217	c2 08 00	 ret	 8
??$LoadInt_e@$0BC@@ioINILoader@@QAEHAAY0BC@$$CBDH@Z ENDP ; ioINILoader::LoadInt_e<18>
_TEXT	ENDS
PUBLIC	_this$GSCopy$
PUBLIC	__$ArrayPad$
PUBLIC	??$LoadString_e@$0BA@@ioINILoader@@QAEXAAY0BA@$$CBDAAY00$$CBDPADH@Z ; ioINILoader::LoadString_e<16>
; Function compile flags: /Ogsp
;	COMDAT ??$LoadString_e@$0BA@@ioINILoader@@QAEXAAY0BA@$$CBDAAY00$$CBDPADH@Z
_TEXT	SEGMENT
_this$GSCopy$ = -28					; size = 4
__k$ = -24						; size = 16
__$ArrayPad$ = -4					; size = 4
_k$ = 8							; size = 4
_d$ = 12						; size = 4
_b$ = 16						; size = 4
_i$ = 20						; size = 4
??$LoadString_e@$0BA@@ioINILoader@@QAEXAAY0BA@$$CBDAAY00$$CBDPADH@Z PROC ; ioINILoader::LoadString_e<16>, COMDAT
; _this$ = ecx

; 161  : 	{

  00000	55		 push	 ebp
  00001	8b ec		 mov	 ebp, esp
  00003	83 ec 1c	 sub	 esp, 28			; 0000001cH
  00006	a1 00 00 00 00	 mov	 eax, DWORD PTR ___security_cookie
  0000b	33 c5		 xor	 eax, ebp
  0000d	89 45 fc	 mov	 DWORD PTR __$ArrayPad$[ebp], eax
  00010	8b 45 08	 mov	 eax, DWORD PTR _k$[ebp]

; 162  : 		_ENCSTR(k, _k);

  00013	8a 10		 mov	 dl, BYTE PTR [eax]
  00015	56		 push	 esi
  00016	8b 75 0c	 mov	 esi, DWORD PTR _d$[ebp]
  00019	57		 push	 edi
  0001a	8b 7d 10	 mov	 edi, DWORD PTR _b$[ebp]
  0001d	89 4d e4	 mov	 DWORD PTR _this$GSCopy$[ebp], ecx
  00020	84 d2		 test	 dl, dl
  00022	0f 84 8c 01 00
	00		 je	 $LN96@LoadString@2
  00028	80 f2 ed	 xor	 dl, -19			; ffffffedH
  0002b	88 55 e8	 mov	 BYTE PTR __k$[ebp], dl
  0002e	8a 50 01	 mov	 dl, BYTE PTR [eax+1]
  00031	84 d2		 test	 dl, dl
  00033	0f 84 75 01 00
	00		 je	 $LN95@LoadString@2
  00039	80 f2 ec	 xor	 dl, -20			; ffffffecH
  0003c	88 55 e9	 mov	 BYTE PTR __k$[ebp+1], dl
  0003f	8a 50 02	 mov	 dl, BYTE PTR [eax+2]
  00042	84 d2		 test	 dl, dl
  00044	0f 84 5e 01 00
	00		 je	 $LN94@LoadString@2
  0004a	b1 eb		 mov	 cl, -21			; ffffffebH
  0004c	32 d1		 xor	 dl, cl
  0004e	88 55 ea	 mov	 BYTE PTR __k$[ebp+2], dl
  00051	8a 50 03	 mov	 dl, BYTE PTR [eax+3]
  00054	84 d2		 test	 dl, dl
  00056	0f 84 46 01 00
	00		 je	 $LN93@LoadString@2
  0005c	80 f2 ea	 xor	 dl, -22			; ffffffeaH
  0005f	88 55 eb	 mov	 BYTE PTR __k$[ebp+3], dl
  00062	8a 50 04	 mov	 dl, BYTE PTR [eax+4]
  00065	84 d2		 test	 dl, dl
  00067	0f 84 2f 01 00
	00		 je	 $LN92@LoadString@2
  0006d	80 f2 ed	 xor	 dl, -19			; ffffffedH
  00070	88 55 ec	 mov	 BYTE PTR __k$[ebp+4], dl
  00073	8a 50 05	 mov	 dl, BYTE PTR [eax+5]
  00076	84 d2		 test	 dl, dl
  00078	0f 84 18 01 00
	00		 je	 $LN91@LoadString@2
  0007e	80 f2 ec	 xor	 dl, -20			; ffffffecH
  00081	88 55 ed	 mov	 BYTE PTR __k$[ebp+5], dl
  00084	8a 50 06	 mov	 dl, BYTE PTR [eax+6]
  00087	84 d2		 test	 dl, dl
  00089	0f 84 02 01 00
	00		 je	 $LN90@LoadString@2
  0008f	32 d1		 xor	 dl, cl
  00091	88 55 ee	 mov	 BYTE PTR __k$[ebp+6], dl
  00094	8a 50 07	 mov	 dl, BYTE PTR [eax+7]
  00097	84 d2		 test	 dl, dl
  00099	0f 84 ec 00 00
	00		 je	 $LN89@LoadString@2
  0009f	80 f2 ea	 xor	 dl, -22			; ffffffeaH
  000a2	88 55 ef	 mov	 BYTE PTR __k$[ebp+7], dl
  000a5	8a 50 08	 mov	 dl, BYTE PTR [eax+8]
  000a8	84 d2		 test	 dl, dl
  000aa	0f 84 d5 00 00
	00		 je	 $LN88@LoadString@2
  000b0	80 f2 ed	 xor	 dl, -19			; ffffffedH
  000b3	88 55 f0	 mov	 BYTE PTR __k$[ebp+8], dl
  000b6	8a 50 09	 mov	 dl, BYTE PTR [eax+9]
  000b9	84 d2		 test	 dl, dl
  000bb	0f 84 be 00 00
	00		 je	 $LN87@LoadString@2
  000c1	80 f2 ec	 xor	 dl, -20			; ffffffecH
  000c4	88 55 f1	 mov	 BYTE PTR __k$[ebp+9], dl
  000c7	8a 50 0a	 mov	 dl, BYTE PTR [eax+10]
  000ca	84 d2		 test	 dl, dl
  000cc	0f 84 a8 00 00
	00		 je	 $LN86@LoadString@2
  000d2	32 d1		 xor	 dl, cl
  000d4	88 55 f2	 mov	 BYTE PTR __k$[ebp+10], dl
  000d7	8a 50 0b	 mov	 dl, BYTE PTR [eax+11]
  000da	84 d2		 test	 dl, dl
  000dc	0f 84 92 00 00
	00		 je	 $LN85@LoadString@2
  000e2	80 f2 ea	 xor	 dl, -22			; ffffffeaH
  000e5	88 55 f3	 mov	 BYTE PTR __k$[ebp+11], dl
  000e8	8a 50 0c	 mov	 dl, BYTE PTR [eax+12]
  000eb	84 d2		 test	 dl, dl
  000ed	74 7f		 je	 SHORT $LN84@LoadString@2
  000ef	80 f2 ed	 xor	 dl, -19			; ffffffedH
  000f2	88 55 f4	 mov	 BYTE PTR __k$[ebp+12], dl
  000f5	8a 50 0d	 mov	 dl, BYTE PTR [eax+13]
  000f8	84 d2		 test	 dl, dl
  000fa	74 6c		 je	 SHORT $LN83@LoadString@2
  000fc	80 f2 ec	 xor	 dl, -20			; ffffffecH
  000ff	88 55 f5	 mov	 BYTE PTR __k$[ebp+13], dl
  00102	8a 50 0e	 mov	 dl, BYTE PTR [eax+14]
  00105	84 d2		 test	 dl, dl
  00107	74 5a		 je	 SHORT $LN82@LoadString@2
  00109	32 d1		 xor	 dl, cl
  0010b	80 78 0f 00	 cmp	 BYTE PTR [eax+15], 0
  0010f	88 55 f6	 mov	 BYTE PTR __k$[ebp+14], dl
  00112	0f 84 a0 00 00
	00		 je	 $LN111@LoadString@2
  00118	8a 50 10	 mov	 dl, BYTE PTR [eax+16]
  0011b	84 d2		 test	 dl, dl
  0011d	74 3e		 je	 SHORT $LN80@LoadString@2
  0011f	80 f2 ed	 xor	 dl, -19			; ffffffedH
  00122	88 55 f8	 mov	 BYTE PTR __k$[ebp+16], dl
  00125	8a 50 11	 mov	 dl, BYTE PTR [eax+17]
  00128	84 d2		 test	 dl, dl
  0012a	74 2b		 je	 SHORT $LN79@LoadString@2
  0012c	80 f2 ec	 xor	 dl, -20			; ffffffecH
  0012f	88 55 f9	 mov	 BYTE PTR __k$[ebp+17], dl
  00132	8a 50 12	 mov	 dl, BYTE PTR [eax+18]
  00135	84 d2		 test	 dl, dl
  00137	74 19		 je	 SHORT $LN78@LoadString@2
  00139	8a 40 13	 mov	 al, BYTE PTR [eax+19]
  0013c	32 d1		 xor	 dl, cl
  0013e	88 55 fa	 mov	 BYTE PTR __k$[ebp+18], dl
  00141	84 c0		 test	 al, al
  00143	74 07		 je	 SHORT $LN77@LoadString@2
  00145	34 ea		 xor	 al, -22			; ffffffeaH
  00147	88 45 fb	 mov	 BYTE PTR __k$[ebp+19], al
  0014a	eb 6c		 jmp	 SHORT $LN111@LoadString@2
$LN77@LoadString@2:
  0014c	c6 45 fb ea	 mov	 BYTE PTR __k$[ebp+19], -22 ; ffffffeaH
  00150	eb 66		 jmp	 SHORT $LN111@LoadString@2
$LN78@LoadString@2:
  00152	88 4d fa	 mov	 BYTE PTR __k$[ebp+18], cl
  00155	eb 61		 jmp	 SHORT $LN111@LoadString@2
$LN79@LoadString@2:
  00157	c6 45 f9 ec	 mov	 BYTE PTR __k$[ebp+17], -20 ; ffffffecH
  0015b	eb 5b		 jmp	 SHORT $LN111@LoadString@2
$LN80@LoadString@2:
  0015d	c6 45 f8 ed	 mov	 BYTE PTR __k$[ebp+16], -19 ; ffffffedH
  00161	eb 55		 jmp	 SHORT $LN111@LoadString@2
$LN82@LoadString@2:
  00163	88 4d f6	 mov	 BYTE PTR __k$[ebp+14], cl
  00166	eb 50		 jmp	 SHORT $LN111@LoadString@2
$LN83@LoadString@2:
  00168	c6 45 f5 ec	 mov	 BYTE PTR __k$[ebp+13], -20 ; ffffffecH
  0016c	eb 4a		 jmp	 SHORT $LN111@LoadString@2
$LN84@LoadString@2:
  0016e	c6 45 f4 ed	 mov	 BYTE PTR __k$[ebp+12], -19 ; ffffffedH
  00172	eb 44		 jmp	 SHORT $LN111@LoadString@2
$LN85@LoadString@2:
  00174	c6 45 f3 ea	 mov	 BYTE PTR __k$[ebp+11], -22 ; ffffffeaH
  00178	eb 3e		 jmp	 SHORT $LN111@LoadString@2
$LN86@LoadString@2:
  0017a	88 4d f2	 mov	 BYTE PTR __k$[ebp+10], cl
  0017d	eb 39		 jmp	 SHORT $LN111@LoadString@2
$LN87@LoadString@2:
  0017f	c6 45 f1 ec	 mov	 BYTE PTR __k$[ebp+9], -20 ; ffffffecH
  00183	eb 33		 jmp	 SHORT $LN111@LoadString@2
$LN88@LoadString@2:
  00185	c6 45 f0 ed	 mov	 BYTE PTR __k$[ebp+8], -19 ; ffffffedH
  00189	eb 2d		 jmp	 SHORT $LN111@LoadString@2
$LN89@LoadString@2:
  0018b	c6 45 ef ea	 mov	 BYTE PTR __k$[ebp+7], -22 ; ffffffeaH
  0018f	eb 27		 jmp	 SHORT $LN111@LoadString@2
$LN90@LoadString@2:
  00191	88 4d ee	 mov	 BYTE PTR __k$[ebp+6], cl
  00194	eb 22		 jmp	 SHORT $LN111@LoadString@2
$LN91@LoadString@2:
  00196	c6 45 ed ec	 mov	 BYTE PTR __k$[ebp+5], -20 ; ffffffecH
  0019a	eb 1c		 jmp	 SHORT $LN111@LoadString@2
$LN92@LoadString@2:
  0019c	c6 45 ec ed	 mov	 BYTE PTR __k$[ebp+4], -19 ; ffffffedH
  001a0	eb 16		 jmp	 SHORT $LN111@LoadString@2
$LN93@LoadString@2:
  001a2	c6 45 eb ea	 mov	 BYTE PTR __k$[ebp+3], -22 ; ffffffeaH
  001a6	eb 10		 jmp	 SHORT $LN111@LoadString@2
$LN94@LoadString@2:
  001a8	c6 45 ea eb	 mov	 BYTE PTR __k$[ebp+2], -21 ; ffffffebH
  001ac	eb 0a		 jmp	 SHORT $LN111@LoadString@2
$LN95@LoadString@2:
  001ae	c6 45 e9 ec	 mov	 BYTE PTR __k$[ebp+1], -20 ; ffffffecH
  001b2	eb 04		 jmp	 SHORT $LN111@LoadString@2
$LN96@LoadString@2:
  001b4	c6 45 e8 ed	 mov	 BYTE PTR __k$[ebp], -19	; ffffffedH
$LN111@LoadString@2:
  001b8	6a 03		 push	 3
  001ba	8d 45 e8	 lea	 eax, DWORD PTR __k$[ebp]
  001bd	c6 45 f7 00	 mov	 BYTE PTR __k$[ebp+15], 0
  001c1	5a		 pop	 edx
$LL104@LoadString@2:
  001c2	81 30 ed ec eb
	ea		 xor	 DWORD PTR [eax], -353637139 ; eaebecedH
  001c8	83 c0 04	 add	 eax, 4
  001cb	4a		 dec	 edx
  001cc	75 f4		 jne	 SHORT $LL104@LoadString@2
  001ce	6a 0c		 push	 12			; 0000000cH
  001d0	58		 pop	 eax
$LL101@LoadString@2:
  001d1	8b c8		 mov	 ecx, eax
  001d3	81 e1 03 00 00
	80		 and	 ecx, -2147483645	; 80000003H
  001d9	79 05		 jns	 SHORT $LN112@LoadString@2
  001db	49		 dec	 ecx
  001dc	83 c9 fc	 or	 ecx, -4			; fffffffcH
  001df	41		 inc	 ecx
$LN112@LoadString@2:
  001e0	b2 ed		 mov	 dl, -19			; ffffffedH
  001e2	2a d1		 sub	 dl, cl
  001e4	30 54 05 e8	 xor	 BYTE PTR __k$[ebp+eax], dl
  001e8	40		 inc	 eax
  001e9	83 f8 0f	 cmp	 eax, 15			; 0000000fH
  001ec	7c e3		 jl	 SHORT $LL101@LoadString@2

; 163  : 		LoadString(_k, d, b, i);

  001ee	ff 75 14	 push	 DWORD PTR _i$[ebp]
  001f1	8b 4d e4	 mov	 ecx, DWORD PTR _this$GSCopy$[ebp]
  001f4	57		 push	 edi
  001f5	56		 push	 esi
  001f6	8d 45 e8	 lea	 eax, DWORD PTR __k$[ebp]
  001f9	50		 push	 eax
  001fa	ff 15 00 00 00
	00		 call	 DWORD PTR __imp_?LoadStringA@ioINILoader@@QAEXPBD0PADH@Z

; 164  : 	}

  00200	8b 4d fc	 mov	 ecx, DWORD PTR __$ArrayPad$[ebp]
  00203	5f		 pop	 edi
  00204	33 cd		 xor	 ecx, ebp
  00206	5e		 pop	 esi
  00207	e8 00 00 00 00	 call	 @__security_check_cookie@4
  0020c	c9		 leave
  0020d	c2 10 00	 ret	 16			; 00000010H
??$LoadString_e@$0BA@@ioINILoader@@QAEXAAY0BA@$$CBDAAY00$$CBDPADH@Z ENDP ; ioINILoader::LoadString_e<16>
_TEXT	ENDS
PUBLIC	??$GetAnimationEventTime_e@$06@ioEntityGroup@@QAEMHAAY06$$CBD@Z ; ioEntityGroup::GetAnimationEventTime_e<7>
EXTRN	__imp_?GetAnimationEventTime@ioEntityGroup@@QAEMHABVioHashString@@@Z:PROC
EXTRN	__imp_??0ioHashString@@QAE@PBD@Z:PROC
EXTRN	__EH_epilog3_GS:PROC
EXTRN	__EH_prolog3_GS:PROC
;	COMDAT xdata$x
; File d:\lost saga for developer\youtube\tutorial\source\src\lsclient\stringprotect.h
xdata$x	SEGMENT
__unwindtable$??$GetAnimationEventTime_e@$06@ioEntityGroup@@QAEMHAAY06$$CBD@Z DD 0ffffffffH
	DD	FLAT:__unwindfunclet$??$GetAnimationEventTime_e@$06@ioEntityGroup@@QAEMHAAY06$$CBD@Z$0
__ehfuncinfo$??$GetAnimationEventTime_e@$06@ioEntityGroup@@QAEMHAAY06$$CBD@Z DD 019930522H
	DD	01H
	DD	FLAT:__unwindtable$??$GetAnimationEventTime_e@$06@ioEntityGroup@@QAEMHAAY06$$CBD@Z
	DD	2 DUP(00H)
	DD	2 DUP(00H)
	DD	00H
	DD	01H
; Function compile flags: /Ogsp
; File d:\lost saga for developer\youtube\tutorial\source\src\io3dengine\ioentitygroup.h
xdata$x	ENDS
;	COMDAT ??$GetAnimationEventTime_e@$06@ioEntityGroup@@QAEMHAAY06$$CBD@Z
_TEXT	SEGMENT
$T554696 = -48						; size = 16
$T554695 = -32						; size = 4
_szEncEventType$ = -28					; size = 7
__$EHRec$ = -12						; size = 12
_id$ = 8						; size = 4
_szEventType$ = 12					; size = 4
??$GetAnimationEventTime_e@$06@ioEntityGroup@@QAEMHAAY06$$CBD@Z PROC ; ioEntityGroup::GetAnimationEventTime_e<7>, COMDAT
; _this$ = ecx

; 414  : 	{

  00000	6a 24		 push	 36			; 00000024H
  00002	b8 00 00 00 00	 mov	 eax, __ehhandler$??$GetAnimationEventTime_e@$06@ioEntityGroup@@QAEMHAAY06$$CBD@Z
  00007	e8 00 00 00 00	 call	 __EH_prolog3_GS
  0000c	8b 45 0c	 mov	 eax, DWORD PTR _szEventType$[ebp]
  0000f	8b f1		 mov	 esi, ecx

; 415  : 		_ENCSTR(szEventType, szEncEventType);

  00011	8a 08		 mov	 cl, BYTE PTR [eax]
  00013	84 c9		 test	 cl, cl
  00015	0f 84 c0 00 00
	00		 je	 $LN96@GetAnimati
  0001b	80 f1 ed	 xor	 cl, -19			; ffffffedH
  0001e	88 4d e4	 mov	 BYTE PTR _szEncEventType$[ebp], cl
  00021	8a 48 01	 mov	 cl, BYTE PTR [eax+1]
  00024	84 c9		 test	 cl, cl
  00026	0f 84 a9 00 00
	00		 je	 $LN95@GetAnimati
  0002c	80 f1 ec	 xor	 cl, -20			; ffffffecH
  0002f	88 4d e5	 mov	 BYTE PTR _szEncEventType$[ebp+1], cl
  00032	8a 48 02	 mov	 cl, BYTE PTR [eax+2]
  00035	84 c9		 test	 cl, cl
  00037	0f 84 92 00 00
	00		 je	 $LN94@GetAnimati
  0003d	80 f1 eb	 xor	 cl, -21			; ffffffebH
  00040	88 4d e6	 mov	 BYTE PTR _szEncEventType$[ebp+2], cl
  00043	8a 48 03	 mov	 cl, BYTE PTR [eax+3]
  00046	84 c9		 test	 cl, cl
  00048	74 7f		 je	 SHORT $LN93@GetAnimati
  0004a	80 f1 ea	 xor	 cl, -22			; ffffffeaH
  0004d	88 4d e7	 mov	 BYTE PTR _szEncEventType$[ebp+3], cl
  00050	8a 48 04	 mov	 cl, BYTE PTR [eax+4]
  00053	84 c9		 test	 cl, cl
  00055	74 6c		 je	 SHORT $LN92@GetAnimati
  00057	80 f1 ed	 xor	 cl, -19			; ffffffedH
  0005a	88 4d e8	 mov	 BYTE PTR _szEncEventType$[ebp+4], cl
  0005d	8a 48 05	 mov	 cl, BYTE PTR [eax+5]
  00060	84 c9		 test	 cl, cl
  00062	74 59		 je	 SHORT $LN91@GetAnimati
  00064	80 f1 ec	 xor	 cl, -20			; ffffffecH
  00067	80 78 06 00	 cmp	 BYTE PTR [eax+6], 0
  0006b	88 4d e9	 mov	 BYTE PTR _szEncEventType$[ebp+5], cl
  0006e	74 6f		 je	 SHORT $LN1@GetAnimati
  00070	8a 48 07	 mov	 cl, BYTE PTR [eax+7]
  00073	84 c9		 test	 cl, cl
  00075	74 40		 je	 SHORT $LN89@GetAnimati
  00077	80 f1 ea	 xor	 cl, -22			; ffffffeaH
  0007a	88 4d eb	 mov	 BYTE PTR _szEncEventType$[ebp+7], cl
  0007d	8a 48 08	 mov	 cl, BYTE PTR [eax+8]
  00080	84 c9		 test	 cl, cl
  00082	74 2d		 je	 SHORT $LN88@GetAnimati
  00084	80 f1 ed	 xor	 cl, -19			; ffffffedH
  00087	88 4d ec	 mov	 BYTE PTR _szEncEventType$[ebp+8], cl
  0008a	8a 48 09	 mov	 cl, BYTE PTR [eax+9]
  0008d	84 c9		 test	 cl, cl
  0008f	74 1a		 je	 SHORT $LN87@GetAnimati
  00091	8a 40 0a	 mov	 al, BYTE PTR [eax+10]
  00094	80 f1 ec	 xor	 cl, -20			; ffffffecH
  00097	88 4d ed	 mov	 BYTE PTR _szEncEventType$[ebp+9], cl
  0009a	84 c0		 test	 al, al
  0009c	74 07		 je	 SHORT $LN86@GetAnimati
  0009e	34 eb		 xor	 al, -21			; ffffffebH
  000a0	88 45 ee	 mov	 BYTE PTR _szEncEventType$[ebp+10], al
  000a3	eb 3a		 jmp	 SHORT $LN1@GetAnimati
$LN86@GetAnimati:
  000a5	c6 45 ee eb	 mov	 BYTE PTR _szEncEventType$[ebp+10], -21 ; ffffffebH
  000a9	eb 34		 jmp	 SHORT $LN1@GetAnimati
$LN87@GetAnimati:
  000ab	c6 45 ed ec	 mov	 BYTE PTR _szEncEventType$[ebp+9], -20 ; ffffffecH
  000af	eb 2e		 jmp	 SHORT $LN1@GetAnimati
$LN88@GetAnimati:
  000b1	c6 45 ec ed	 mov	 BYTE PTR _szEncEventType$[ebp+8], -19 ; ffffffedH
  000b5	eb 28		 jmp	 SHORT $LN1@GetAnimati
$LN89@GetAnimati:
  000b7	c6 45 eb ea	 mov	 BYTE PTR _szEncEventType$[ebp+7], -22 ; ffffffeaH
  000bb	eb 22		 jmp	 SHORT $LN1@GetAnimati
$LN91@GetAnimati:
  000bd	c6 45 e9 ec	 mov	 BYTE PTR _szEncEventType$[ebp+5], -20 ; ffffffecH
  000c1	eb 1c		 jmp	 SHORT $LN1@GetAnimati
$LN92@GetAnimati:
  000c3	c6 45 e8 ed	 mov	 BYTE PTR _szEncEventType$[ebp+4], -19 ; ffffffedH
  000c7	eb 16		 jmp	 SHORT $LN1@GetAnimati
$LN93@GetAnimati:
  000c9	c6 45 e7 ea	 mov	 BYTE PTR _szEncEventType$[ebp+3], -22 ; ffffffeaH
  000cd	eb 10		 jmp	 SHORT $LN1@GetAnimati
$LN94@GetAnimati:
  000cf	c6 45 e6 eb	 mov	 BYTE PTR _szEncEventType$[ebp+2], -21 ; ffffffebH
  000d3	eb 0a		 jmp	 SHORT $LN1@GetAnimati
$LN95@GetAnimati:
  000d5	c6 45 e5 ec	 mov	 BYTE PTR _szEncEventType$[ebp+1], -20 ; ffffffecH
  000d9	eb 04		 jmp	 SHORT $LN1@GetAnimati
$LN96@GetAnimati:
  000db	c6 45 e4 ed	 mov	 BYTE PTR _szEncEventType$[ebp], -19 ; ffffffedH
$LN1@GetAnimati:
  000df	81 75 e4 ed ec
	eb ea		 xor	 DWORD PTR _szEncEventType$[ebp], -353637139 ; eaebecedH
  000e6	6a 04		 push	 4
  000e8	c6 45 ea 00	 mov	 BYTE PTR _szEncEventType$[ebp+6], 0
  000ec	58		 pop	 eax
$LL102@GetAnimati:
  000ed	8b c8		 mov	 ecx, eax
  000ef	81 e1 03 00 00
	80		 and	 ecx, -2147483645	; 80000003H
  000f5	79 05		 jns	 SHORT $LN113@GetAnimati
  000f7	49		 dec	 ecx
  000f8	83 c9 fc	 or	 ecx, -4			; fffffffcH
  000fb	41		 inc	 ecx
$LN113@GetAnimati:
  000fc	b2 ed		 mov	 dl, -19			; ffffffedH
  000fe	2a d1		 sub	 dl, cl
  00100	30 54 05 e4	 xor	 BYTE PTR _szEncEventType$[ebp+eax], dl
  00104	40		 inc	 eax
  00105	83 f8 06	 cmp	 eax, 6
  00108	7c e3		 jl	 SHORT $LL102@GetAnimati

; 416  : 		return GetAnimationEventTime(id, szEncEventType);

  0010a	8d 45 e4	 lea	 eax, DWORD PTR _szEncEventType$[ebp]
  0010d	50		 push	 eax
  0010e	8d 4d d0	 lea	 ecx, DWORD PTR $T554696[ebp]
  00111	ff 15 00 00 00
	00		 call	 DWORD PTR __imp_??0ioHashString@@QAE@PBD@Z
  00117	83 65 fc 00	 and	 DWORD PTR __$EHRec$[ebp+8], 0
  0011b	8d 45 d0	 lea	 eax, DWORD PTR $T554696[ebp]
  0011e	50		 push	 eax
  0011f	ff 75 08	 push	 DWORD PTR _id$[ebp]
  00122	8b ce		 mov	 ecx, esi
  00124	ff 15 00 00 00
	00		 call	 DWORD PTR __imp_?GetAnimationEventTime@ioEntityGroup@@QAEMHABVioHashString@@@Z
  0012a	d9 5d e0	 fstp	 DWORD PTR $T554695[ebp]
  0012d	83 4d fc ff	 or	 DWORD PTR __$EHRec$[ebp+8], -1
  00131	8d 4d d0	 lea	 ecx, DWORD PTR $T554696[ebp]
  00134	ff 15 00 00 00
	00		 call	 DWORD PTR __imp_??1ioHashString@@QAE@XZ
  0013a	d9 45 e0	 fld	 DWORD PTR $T554695[ebp]

; 417  : 	}

  0013d	e8 00 00 00 00	 call	 __EH_epilog3_GS
  00142	c2 08 00	 ret	 8
_TEXT	ENDS
;	COMDAT text$x
text$x	SEGMENT
__unwindfunclet$??$GetAnimationEventTime_e@$06@ioEntityGroup@@QAEMHAAY06$$CBD@Z$0:
  00000	8d 4d d0	 lea	 ecx, DWORD PTR $T554696[ebp]
  00003	ff 25 00 00 00
	00		 jmp	 DWORD PTR __imp_??1ioHashString@@QAE@XZ
__ehhandler$??$GetAnimationEventTime_e@$06@ioEntityGroup@@QAEMHAAY06$$CBD@Z:
  00009	8b 54 24 08	 mov	 edx, DWORD PTR [esp+8]
  0000d	8d 42 0c	 lea	 eax, DWORD PTR [edx+12]
  00010	8b 4a cc	 mov	 ecx, DWORD PTR [edx-52]
  00013	33 c8		 xor	 ecx, eax
  00015	e8 00 00 00 00	 call	 @__security_check_cookie@4
  0001a	8b 4a fc	 mov	 ecx, DWORD PTR [edx-4]
  0001d	33 c8		 xor	 ecx, eax
  0001f	e8 00 00 00 00	 call	 @__security_check_cookie@4
  00024	b8 00 00 00 00	 mov	 eax, OFFSET __ehfuncinfo$??$GetAnimationEventTime_e@$06@ioEntityGroup@@QAEMHAAY06$$CBD@Z
  00029	e9 00 00 00 00	 jmp	 ___CxxFrameHandler3
text$x	ENDS
??$GetAnimationEventTime_e@$06@ioEntityGroup@@QAEMHAAY06$$CBD@Z ENDP ; ioEntityGroup::GetAnimationEventTime_e<7>
PUBLIC	??$GetAnimationEventTime_e@$0N@@ioEntityGroup@@QAEMHAAY0N@$$CBD@Z ; ioEntityGroup::GetAnimationEventTime_e<13>
;	COMDAT xdata$x
; File d:\lost saga for developer\youtube\tutorial\source\src\lsclient\stringprotect.h
xdata$x	SEGMENT
__unwindtable$??$GetAnimationEventTime_e@$0N@@ioEntityGroup@@QAEMHAAY0N@$$CBD@Z DD 0ffffffffH
	DD	FLAT:__unwindfunclet$??$GetAnimationEventTime_e@$0N@@ioEntityGroup@@QAEMHAAY0N@$$CBD@Z$0
__ehfuncinfo$??$GetAnimationEventTime_e@$0N@@ioEntityGroup@@QAEMHAAY0N@$$CBD@Z DD 019930522H
	DD	01H
	DD	FLAT:__unwindtable$??$GetAnimationEventTime_e@$0N@@ioEntityGroup@@QAEMHAAY0N@$$CBD@Z
	DD	2 DUP(00H)
	DD	2 DUP(00H)
	DD	00H
	DD	01H
; Function compile flags: /Ogsp
; File d:\lost saga for developer\youtube\tutorial\source\src\io3dengine\ioentitygroup.h
xdata$x	ENDS
;	COMDAT ??$GetAnimationEventTime_e@$0N@@ioEntityGroup@@QAEMHAAY0N@$$CBD@Z
_TEXT	SEGMENT
$T554729 = -56						; size = 16
$T554728 = -40						; size = 4
_szEncEventType$ = -36					; size = 13
__$EHRec$ = -12						; size = 12
_id$ = 8						; size = 4
_szEventType$ = 12					; size = 4
??$GetAnimationEventTime_e@$0N@@ioEntityGroup@@QAEMHAAY0N@$$CBD@Z PROC ; ioEntityGroup::GetAnimationEventTime_e<13>, COMDAT
; _this$ = ecx

; 414  : 	{

  00000	6a 2c		 push	 44			; 0000002cH
  00002	b8 00 00 00 00	 mov	 eax, __ehhandler$??$GetAnimationEventTime_e@$0N@@ioEntityGroup@@QAEMHAAY0N@$$CBD@Z
  00007	e8 00 00 00 00	 call	 __EH_prolog3_GS
  0000c	8b 45 0c	 mov	 eax, DWORD PTR _szEventType$[ebp]
  0000f	8b f1		 mov	 esi, ecx

; 415  : 		_ENCSTR(szEventType, szEncEventType);

  00011	8a 08		 mov	 cl, BYTE PTR [eax]
  00013	84 c9		 test	 cl, cl
  00015	0f 84 49 01 00
	00		 je	 $LN96@GetAnimati@2
  0001b	80 f1 ed	 xor	 cl, -19			; ffffffedH
  0001e	88 4d dc	 mov	 BYTE PTR _szEncEventType$[ebp], cl
  00021	8a 48 01	 mov	 cl, BYTE PTR [eax+1]
  00024	84 c9		 test	 cl, cl
  00026	0f 84 32 01 00
	00		 je	 $LN95@GetAnimati@2
  0002c	80 f1 ec	 xor	 cl, -20			; ffffffecH
  0002f	88 4d dd	 mov	 BYTE PTR _szEncEventType$[ebp+1], cl
  00032	8a 48 02	 mov	 cl, BYTE PTR [eax+2]
  00035	84 c9		 test	 cl, cl
  00037	0f 84 1b 01 00
	00		 je	 $LN94@GetAnimati@2
  0003d	b2 eb		 mov	 dl, -21			; ffffffebH
  0003f	32 ca		 xor	 cl, dl
  00041	88 4d de	 mov	 BYTE PTR _szEncEventType$[ebp+2], cl
  00044	8a 48 03	 mov	 cl, BYTE PTR [eax+3]
  00047	84 c9		 test	 cl, cl
  00049	0f 84 03 01 00
	00		 je	 $LN93@GetAnimati@2
  0004f	80 f1 ea	 xor	 cl, -22			; ffffffeaH
  00052	88 4d df	 mov	 BYTE PTR _szEncEventType$[ebp+3], cl
  00055	8a 48 04	 mov	 cl, BYTE PTR [eax+4]
  00058	84 c9		 test	 cl, cl
  0005a	0f 84 ec 00 00
	00		 je	 $LN92@GetAnimati@2
  00060	80 f1 ed	 xor	 cl, -19			; ffffffedH
  00063	88 4d e0	 mov	 BYTE PTR _szEncEventType$[ebp+4], cl
  00066	8a 48 05	 mov	 cl, BYTE PTR [eax+5]
  00069	84 c9		 test	 cl, cl
  0006b	0f 84 d5 00 00
	00		 je	 $LN91@GetAnimati@2
  00071	80 f1 ec	 xor	 cl, -20			; ffffffecH
  00074	88 4d e1	 mov	 BYTE PTR _szEncEventType$[ebp+5], cl
  00077	8a 48 06	 mov	 cl, BYTE PTR [eax+6]
  0007a	84 c9		 test	 cl, cl
  0007c	0f 84 bf 00 00
	00		 je	 $LN90@GetAnimati@2
  00082	32 ca		 xor	 cl, dl
  00084	88 4d e2	 mov	 BYTE PTR _szEncEventType$[ebp+6], cl
  00087	8a 48 07	 mov	 cl, BYTE PTR [eax+7]
  0008a	84 c9		 test	 cl, cl
  0008c	0f 84 a9 00 00
	00		 je	 $LN89@GetAnimati@2
  00092	80 f1 ea	 xor	 cl, -22			; ffffffeaH
  00095	88 4d e3	 mov	 BYTE PTR _szEncEventType$[ebp+7], cl
  00098	8a 48 08	 mov	 cl, BYTE PTR [eax+8]
  0009b	84 c9		 test	 cl, cl
  0009d	0f 84 92 00 00
	00		 je	 $LN88@GetAnimati@2
  000a3	80 f1 ed	 xor	 cl, -19			; ffffffedH
  000a6	88 4d e4	 mov	 BYTE PTR _szEncEventType$[ebp+8], cl
  000a9	8a 48 09	 mov	 cl, BYTE PTR [eax+9]
  000ac	84 c9		 test	 cl, cl
  000ae	74 7f		 je	 SHORT $LN87@GetAnimati@2
  000b0	80 f1 ec	 xor	 cl, -20			; ffffffecH
  000b3	88 4d e5	 mov	 BYTE PTR _szEncEventType$[ebp+9], cl
  000b6	8a 48 0a	 mov	 cl, BYTE PTR [eax+10]
  000b9	84 c9		 test	 cl, cl
  000bb	74 6d		 je	 SHORT $LN86@GetAnimati@2
  000bd	32 ca		 xor	 cl, dl
  000bf	88 4d e6	 mov	 BYTE PTR _szEncEventType$[ebp+10], cl
  000c2	8a 48 0b	 mov	 cl, BYTE PTR [eax+11]
  000c5	84 c9		 test	 cl, cl
  000c7	74 5b		 je	 SHORT $LN85@GetAnimati@2
  000c9	80 f1 ea	 xor	 cl, -22			; ffffffeaH
  000cc	80 78 0c 00	 cmp	 BYTE PTR [eax+12], 0
  000d0	88 4d e7	 mov	 BYTE PTR _szEncEventType$[ebp+11], cl
  000d3	0f 84 8f 00 00
	00		 je	 $LN1@GetAnimati@2
  000d9	8a 48 0d	 mov	 cl, BYTE PTR [eax+13]
  000dc	84 c9		 test	 cl, cl
  000de	74 3e		 je	 SHORT $LN83@GetAnimati@2
  000e0	80 f1 ec	 xor	 cl, -20			; ffffffecH
  000e3	88 4d e9	 mov	 BYTE PTR _szEncEventType$[ebp+13], cl
  000e6	8a 48 0e	 mov	 cl, BYTE PTR [eax+14]
  000e9	84 c9		 test	 cl, cl
  000eb	74 2c		 je	 SHORT $LN82@GetAnimati@2
  000ed	32 ca		 xor	 cl, dl
  000ef	88 4d ea	 mov	 BYTE PTR _szEncEventType$[ebp+14], cl
  000f2	8a 48 0f	 mov	 cl, BYTE PTR [eax+15]
  000f5	84 c9		 test	 cl, cl
  000f7	74 1a		 je	 SHORT $LN81@GetAnimati@2
  000f9	8a 40 10	 mov	 al, BYTE PTR [eax+16]
  000fc	80 f1 ea	 xor	 cl, -22			; ffffffeaH
  000ff	88 4d eb	 mov	 BYTE PTR _szEncEventType$[ebp+15], cl
  00102	84 c0		 test	 al, al
  00104	74 07		 je	 SHORT $LN80@GetAnimati@2
  00106	34 ed		 xor	 al, -19			; ffffffedH
  00108	88 45 ec	 mov	 BYTE PTR _szEncEventType$[ebp+16], al
  0010b	eb 5b		 jmp	 SHORT $LN1@GetAnimati@2
$LN80@GetAnimati@2:
  0010d	c6 45 ec ed	 mov	 BYTE PTR _szEncEventType$[ebp+16], -19 ; ffffffedH
  00111	eb 55		 jmp	 SHORT $LN1@GetAnimati@2
$LN81@GetAnimati@2:
  00113	c6 45 eb ea	 mov	 BYTE PTR _szEncEventType$[ebp+15], -22 ; ffffffeaH
  00117	eb 4f		 jmp	 SHORT $LN1@GetAnimati@2
$LN82@GetAnimati@2:
  00119	88 55 ea	 mov	 BYTE PTR _szEncEventType$[ebp+14], dl
  0011c	eb 4a		 jmp	 SHORT $LN1@GetAnimati@2
$LN83@GetAnimati@2:
  0011e	c6 45 e9 ec	 mov	 BYTE PTR _szEncEventType$[ebp+13], -20 ; ffffffecH
  00122	eb 44		 jmp	 SHORT $LN1@GetAnimati@2
$LN85@GetAnimati@2:
  00124	c6 45 e7 ea	 mov	 BYTE PTR _szEncEventType$[ebp+11], -22 ; ffffffeaH
  00128	eb 3e		 jmp	 SHORT $LN1@GetAnimati@2
$LN86@GetAnimati@2:
  0012a	88 55 e6	 mov	 BYTE PTR _szEncEventType$[ebp+10], dl
  0012d	eb 39		 jmp	 SHORT $LN1@GetAnimati@2
$LN87@GetAnimati@2:
  0012f	c6 45 e5 ec	 mov	 BYTE PTR _szEncEventType$[ebp+9], -20 ; ffffffecH
  00133	eb 33		 jmp	 SHORT $LN1@GetAnimati@2
$LN88@GetAnimati@2:
  00135	c6 45 e4 ed	 mov	 BYTE PTR _szEncEventType$[ebp+8], -19 ; ffffffedH
  00139	eb 2d		 jmp	 SHORT $LN1@GetAnimati@2
$LN89@GetAnimati@2:
  0013b	c6 45 e3 ea	 mov	 BYTE PTR _szEncEventType$[ebp+7], -22 ; ffffffeaH
  0013f	eb 27		 jmp	 SHORT $LN1@GetAnimati@2
$LN90@GetAnimati@2:
  00141	88 55 e2	 mov	 BYTE PTR _szEncEventType$[ebp+6], dl
  00144	eb 22		 jmp	 SHORT $LN1@GetAnimati@2
$LN91@GetAnimati@2:
  00146	c6 45 e1 ec	 mov	 BYTE PTR _szEncEventType$[ebp+5], -20 ; ffffffecH
  0014a	eb 1c		 jmp	 SHORT $LN1@GetAnimati@2
$LN92@GetAnimati@2:
  0014c	c6 45 e0 ed	 mov	 BYTE PTR _szEncEventType$[ebp+4], -19 ; ffffffedH
  00150	eb 16		 jmp	 SHORT $LN1@GetAnimati@2
$LN93@GetAnimati@2:
  00152	c6 45 df ea	 mov	 BYTE PTR _szEncEventType$[ebp+3], -22 ; ffffffeaH
  00156	eb 10		 jmp	 SHORT $LN1@GetAnimati@2
$LN94@GetAnimati@2:
  00158	c6 45 de eb	 mov	 BYTE PTR _szEncEventType$[ebp+2], -21 ; ffffffebH
  0015c	eb 0a		 jmp	 SHORT $LN1@GetAnimati@2
$LN95@GetAnimati@2:
  0015e	c6 45 dd ec	 mov	 BYTE PTR _szEncEventType$[ebp+1], -20 ; ffffffecH
  00162	eb 04		 jmp	 SHORT $LN1@GetAnimati@2
$LN96@GetAnimati@2:
  00164	c6 45 dc ed	 mov	 BYTE PTR _szEncEventType$[ebp], -19 ; ffffffedH
$LN1@GetAnimati@2:
  00168	6a 03		 push	 3
  0016a	8d 45 dc	 lea	 eax, DWORD PTR _szEncEventType$[ebp]
  0016d	c6 45 e8 00	 mov	 BYTE PTR _szEncEventType$[ebp+12], 0
  00171	59		 pop	 ecx
$LL105@GetAnimati@2:
  00172	81 30 ed ec eb
	ea		 xor	 DWORD PTR [eax], -353637139 ; eaebecedH
  00178	83 c0 04	 add	 eax, 4
  0017b	49		 dec	 ecx
  0017c	75 f4		 jne	 SHORT $LL105@GetAnimati@2

; 416  : 		return GetAnimationEventTime(id, szEncEventType);

  0017e	8d 45 dc	 lea	 eax, DWORD PTR _szEncEventType$[ebp]
  00181	50		 push	 eax
  00182	8d 4d c8	 lea	 ecx, DWORD PTR $T554729[ebp]
  00185	ff 15 00 00 00
	00		 call	 DWORD PTR __imp_??0ioHashString@@QAE@PBD@Z
  0018b	83 65 fc 00	 and	 DWORD PTR __$EHRec$[ebp+8], 0
  0018f	8d 45 c8	 lea	 eax, DWORD PTR $T554729[ebp]
  00192	50		 push	 eax
  00193	ff 75 08	 push	 DWORD PTR _id$[ebp]
  00196	8b ce		 mov	 ecx, esi
  00198	ff 15 00 00 00
	00		 call	 DWORD PTR __imp_?GetAnimationEventTime@ioEntityGroup@@QAEMHABVioHashString@@@Z
  0019e	d9 5d d8	 fstp	 DWORD PTR $T554728[ebp]
  001a1	83 4d fc ff	 or	 DWORD PTR __$EHRec$[ebp+8], -1
  001a5	8d 4d c8	 lea	 ecx, DWORD PTR $T554729[ebp]
  001a8	ff 15 00 00 00
	00		 call	 DWORD PTR __imp_??1ioHashString@@QAE@XZ
  001ae	d9 45 d8	 fld	 DWORD PTR $T554728[ebp]

; 417  : 	}

  001b1	e8 00 00 00 00	 call	 __EH_epilog3_GS
  001b6	c2 08 00	 ret	 8
_TEXT	ENDS
;	COMDAT text$x
text$x	SEGMENT
__unwindfunclet$??$GetAnimationEventTime_e@$0N@@ioEntityGroup@@QAEMHAAY0N@$$CBD@Z$0:
  00000	8d 4d c8	 lea	 ecx, DWORD PTR $T554729[ebp]
  00003	ff 25 00 00 00
	00		 jmp	 DWORD PTR __imp_??1ioHashString@@QAE@XZ
__ehhandler$??$GetAnimationEventTime_e@$0N@@ioEntityGroup@@QAEMHAAY0N@$$CBD@Z:
  00009	8b 54 24 08	 mov	 edx, DWORD PTR [esp+8]
  0000d	8d 42 0c	 lea	 eax, DWORD PTR [edx+12]
  00010	8b 4a c4	 mov	 ecx, DWORD PTR [edx-60]
  00013	33 c8		 xor	 ecx, eax
  00015	e8 00 00 00 00	 call	 @__security_check_cookie@4
  0001a	8b 4a fc	 mov	 ecx, DWORD PTR [edx-4]
  0001d	33 c8		 xor	 ecx, eax
  0001f	e8 00 00 00 00	 call	 @__security_check_cookie@4
  00024	b8 00 00 00 00	 mov	 eax, OFFSET __ehfuncinfo$??$GetAnimationEventTime_e@$0N@@ioEntityGroup@@QAEMHAAY0N@$$CBD@Z
  00029	e9 00 00 00 00	 jmp	 ___CxxFrameHandler3
text$x	ENDS
??$GetAnimationEventTime_e@$0N@@ioEntityGroup@@QAEMHAAY0N@$$CBD@Z ENDP ; ioEntityGroup::GetAnimationEventTime_e<13>
PUBLIC	??D?$CEncrypt@M@@QAEMABN@Z			; CEncrypt<float>::operator*
; Function compile flags: /Ogsp
; File d:\lost saga for developer\youtube\tutorial\source\src\lsclient\encryptvalue.h
;	COMDAT ??D?$CEncrypt@M@@QAEMABN@Z
_TEXT	SEGMENT
_value$ = -4						; size = 4
tv130 = 8						; size = 4
_inValue$ = 8						; size = 4
??D?$CEncrypt@M@@QAEMABN@Z PROC				; CEncrypt<float>::operator*, COMDAT
; _this$ = ecx

; 1881 : 	{

  00000	55		 push	 ebp
  00001	8b ec		 mov	 ebp, esp
  00003	51		 push	 ecx

; 1882 : 		type value;
; 1883 : 		DecryptValueToPool(&value);

  00004	8d 45 fc	 lea	 eax, DWORD PTR _value$[ebp]
  00007	50		 push	 eax
  00008	e8 00 00 00 00	 call	 ?DecryptValueToPool@?$CEncrypt@M@@QAEXPAM@Z ; CEncrypt<float>::DecryptValueToPool

; 1884 : #ifdef _NOTUSE
; 1885 : 		Debug();
; 1886 : #endif
; 1887 : 		return value * inValue;

  0000d	d9 45 fc	 fld	 DWORD PTR _value$[ebp]
  00010	8b 45 08	 mov	 eax, DWORD PTR _inValue$[ebp]
  00013	dc 08		 fmul	 QWORD PTR [eax]
  00015	d9 5d 08	 fstp	 DWORD PTR tv130[ebp]
  00018	d9 45 08	 fld	 DWORD PTR tv130[ebp]

; 1888 : 	}

  0001b	c9		 leave
  0001c	c2 04 00	 ret	 4
??D?$CEncrypt@M@@QAEMABN@Z ENDP				; CEncrypt<float>::operator*
_TEXT	ENDS
PUBLIC	??G?$_Vector_iterator@V?$_Vector_val@UtagBaseCharDistanceSq@@V?$allocator@UtagBaseCharDistanceSq@@@std@@@std@@@std@@QBEHABV?$_Vector_const_iterator@V?$_Vector_val@UtagBaseCharDistanceSq@@V?$allocator@UtagBaseCharDistanceSq@@@std@@@std@@@1@@Z ; std::_Vector_iterator<std::_Vector_val<tagBaseCharDistanceSq,std::allocator<tagBaseCharDistanceSq> > >::operator-
; Function compile flags: /Ogsp
; File c:\program files (x86)\microsoft visual studio 10.0\vc\include\vector
;	COMDAT ??G?$_Vector_iterator@V?$_Vector_val@UtagBaseCharDistanceSq@@V?$allocator@UtagBaseCharDistanceSq@@@std@@@std@@@std@@QBEHABV?$_Vector_const_iterator@V?$_Vector_val@UtagBaseCharDistanceSq@@V?$allocator@UtagBaseCharDistanceSq@@@std@@@std@@@1@@Z
_TEXT	SEGMENT
__Right$ = 8						; size = 4
??G?$_Vector_iterator@V?$_Vector_val@UtagBaseCharDistanceSq@@V?$allocator@UtagBaseCharDistanceSq@@@std@@@std@@@std@@QBEHABV?$_Vector_const_iterator@V?$_Vector_val@UtagBaseCharDistanceSq@@V?$allocator@UtagBaseCharDistanceSq@@@std@@@std@@@1@@Z PROC ; std::_Vector_iterator<std::_Vector_val<tagBaseCharDistanceSq,std::allocator<tagBaseCharDistanceSq> > >::operator-, COMDAT
; _this$ = ecx

; 380  : 		{	// return difference of iterators

  00000	55		 push	 ebp
  00001	8b ec		 mov	 ebp, esp

; 381  : 		return (*(_Mybase *)this - _Right);

  00003	8b 01		 mov	 eax, DWORD PTR [ecx]
  00005	8b 4d 08	 mov	 ecx, DWORD PTR __Right$[ebp]
  00008	2b 01		 sub	 eax, DWORD PTR [ecx]
  0000a	c1 f8 05	 sar	 eax, 5

; 382  : 		}

  0000d	5d		 pop	 ebp
  0000e	c2 04 00	 ret	 4
??G?$_Vector_iterator@V?$_Vector_val@UtagBaseCharDistanceSq@@V?$allocator@UtagBaseCharDistanceSq@@@std@@@std@@@std@@QBEHABV?$_Vector_const_iterator@V?$_Vector_val@UtagBaseCharDistanceSq@@V?$allocator@UtagBaseCharDistanceSq@@@std@@@std@@@1@@Z ENDP ; std::_Vector_iterator<std::_Vector_val<tagBaseCharDistanceSq,std::allocator<tagBaseCharDistanceSq> > >::operator-
_TEXT	ENDS
PUBLIC	??$_Unchecked@V?$_Vector_val@UtagBaseCharDistanceSq@@V?$allocator@UtagBaseCharDistanceSq@@@std@@@std@@@std@@YAPAUtagBaseCharDistanceSq@@V?$_Vector_iterator@V?$_Vector_val@UtagBaseCharDistanceSq@@V?$allocator@UtagBaseCharDistanceSq@@@std@@@std@@@0@@Z ; std::_Unchecked<std::_Vector_val<tagBaseCharDistanceSq,std::allocator<tagBaseCharDistanceSq> > >
; Function compile flags: /Ogsp
;	COMDAT ??$_Unchecked@V?$_Vector_val@UtagBaseCharDistanceSq@@V?$allocator@UtagBaseCharDistanceSq@@@std@@@std@@@std@@YAPAUtagBaseCharDistanceSq@@V?$_Vector_iterator@V?$_Vector_val@UtagBaseCharDistanceSq@@V?$allocator@UtagBaseCharDistanceSq@@@std@@@std@@@0@@Z
_TEXT	SEGMENT
__Iter$ = 8						; size = 4
??$_Unchecked@V?$_Vector_val@UtagBaseCharDistanceSq@@V?$allocator@UtagBaseCharDistanceSq@@@std@@@std@@@std@@YAPAUtagBaseCharDistanceSq@@V?$_Vector_iterator@V?$_Vector_val@UtagBaseCharDistanceSq@@V?$allocator@UtagBaseCharDistanceSq@@@std@@@std@@@0@@Z PROC ; std::_Unchecked<std::_Vector_val<tagBaseCharDistanceSq,std::allocator<tagBaseCharDistanceSq> > >, COMDAT

; 393  : 	{	// convert to unchecked

  00000	55		 push	 ebp
  00001	8b ec		 mov	 ebp, esp

; 394  : 	return (_Iter._Unchecked());

  00003	8b 45 08	 mov	 eax, DWORD PTR __Iter$[ebp]

; 395  : 	}

  00006	5d		 pop	 ebp
  00007	c3		 ret	 0
??$_Unchecked@V?$_Vector_val@UtagBaseCharDistanceSq@@V?$allocator@UtagBaseCharDistanceSq@@@std@@@std@@@std@@YAPAUtagBaseCharDistanceSq@@V?$_Vector_iterator@V?$_Vector_val@UtagBaseCharDistanceSq@@V?$allocator@UtagBaseCharDistanceSq@@@std@@@std@@@0@@Z ENDP ; std::_Unchecked<std::_Vector_val<tagBaseCharDistanceSq,std::allocator<tagBaseCharDistanceSq> > >
_TEXT	ENDS
PUBLIC	??$construct@AAUtagBaseCharDistanceSq@@@?$allocator@UtagBaseCharDistanceSq@@@std@@QAEXPAUtagBaseCharDistanceSq@@AAU2@@Z ; std::allocator<tagBaseCharDistanceSq>::construct<tagBaseCharDistanceSq &>
;	COMDAT xdata$x
; File c:\program files (x86)\microsoft visual studio 10.0\vc\include\utility
xdata$x	SEGMENT
__unwindtable$??$construct@AAUtagBaseCharDistanceSq@@@?$allocator@UtagBaseCharDistanceSq@@@std@@QAEXPAUtagBaseCharDistanceSq@@AAU2@@Z DD 0ffffffffH
	DD	FLAT:__unwindfunclet$??$construct@AAUtagBaseCharDistanceSq@@@?$allocator@UtagBaseCharDistanceSq@@@std@@QAEXPAUtagBaseCharDistanceSq@@AAU2@@Z$0
__ehfuncinfo$??$construct@AAUtagBaseCharDistanceSq@@@?$allocator@UtagBaseCharDistanceSq@@@std@@QAEXPAUtagBaseCharDistanceSq@@AAU2@@Z DD 019930522H
	DD	01H
	DD	FLAT:__unwindtable$??$construct@AAUtagBaseCharDistanceSq@@@?$allocator@UtagBaseCharDistanceSq@@@std@@QAEXPAUtagBaseCharDistanceSq@@AAU2@@Z
	DD	2 DUP(00H)
	DD	2 DUP(00H)
	DD	00H
	DD	01H
; Function compile flags: /Ogsp
; File c:\program files (x86)\microsoft visual studio 10.0\vc\include\xmemory
xdata$x	ENDS
;	COMDAT ??$construct@AAUtagBaseCharDistanceSq@@@?$allocator@UtagBaseCharDistanceSq@@@std@@QAEXPAUtagBaseCharDistanceSq@@AAU2@@Z
_TEXT	SEGMENT
$T554775 = -16						; size = 4
__$EHRec$ = -12						; size = 12
__Ptr$ = 8						; size = 4
__Val$ = 12						; size = 4
??$construct@AAUtagBaseCharDistanceSq@@@?$allocator@UtagBaseCharDistanceSq@@@std@@QAEXPAUtagBaseCharDistanceSq@@AAU2@@Z PROC ; std::allocator<tagBaseCharDistanceSq>::construct<tagBaseCharDistanceSq &>, COMDAT
; _this$ = ecx

; 206  : 		void construct(pointer _Ptr, _Other&& _Val)

  00000	6a 04		 push	 4
  00002	b8 00 00 00 00	 mov	 eax, __ehhandler$??$construct@AAUtagBaseCharDistanceSq@@@?$allocator@UtagBaseCharDistanceSq@@@std@@QAEXPAUtagBaseCharDistanceSq@@AAU2@@Z
  00007	e8 00 00 00 00	 call	 __EH_prolog3

; 207  : 		{	// construct object at _Ptr with value _Val
; 208  : 		::new ((void _FARQ *)_Ptr) _Ty(_STD forward<_Other>(_Val));

  0000c	8b 4d 08	 mov	 ecx, DWORD PTR __Ptr$[ebp]
  0000f	89 4d f0	 mov	 DWORD PTR $T554775[ebp], ecx
  00012	83 65 fc 00	 and	 DWORD PTR __$EHRec$[ebp+8], 0
  00016	85 c9		 test	 ecx, ecx
  00018	74 08		 je	 SHORT $LN3@construct
  0001a	ff 75 0c	 push	 DWORD PTR __Val$[ebp]
  0001d	e8 00 00 00 00	 call	 ??0tagBaseCharDistanceSq@@QAE@ABU0@@Z
$LN3@construct:

; 209  : 		}

  00022	e8 00 00 00 00	 call	 __EH_epilog3
  00027	c2 08 00	 ret	 8
_TEXT	ENDS
;	COMDAT text$x
text$x	SEGMENT
__unwindfunclet$??$construct@AAUtagBaseCharDistanceSq@@@?$allocator@UtagBaseCharDistanceSq@@@std@@QAEXPAUtagBaseCharDistanceSq@@AAU2@@Z$0:
  00000	ff 75 08	 push	 DWORD PTR __Ptr$[ebp]
  00003	ff 75 f0	 push	 DWORD PTR $T554775[ebp]
  00006	e8 00 00 00 00	 call	 ??3@YAXPAX0@Z		; operator delete
  0000b	59		 pop	 ecx
  0000c	59		 pop	 ecx
  0000d	c3		 ret	 0
__ehhandler$??$construct@AAUtagBaseCharDistanceSq@@@?$allocator@UtagBaseCharDistanceSq@@@std@@QAEXPAUtagBaseCharDistanceSq@@AAU2@@Z:
  0000e	8b 54 24 08	 mov	 edx, DWORD PTR [esp+8]
  00012	8d 42 0c	 lea	 eax, DWORD PTR [edx+12]
  00015	8b 4a ec	 mov	 ecx, DWORD PTR [edx-20]
  00018	33 c8		 xor	 ecx, eax
  0001a	e8 00 00 00 00	 call	 @__security_check_cookie@4
  0001f	b8 00 00 00 00	 mov	 eax, OFFSET __ehfuncinfo$??$construct@AAUtagBaseCharDistanceSq@@@?$allocator@UtagBaseCharDistanceSq@@@std@@QAEXPAUtagBaseCharDistanceSq@@AAU2@@Z
  00024	e9 00 00 00 00	 jmp	 ___CxxFrameHandler3
text$x	ENDS
??$construct@AAUtagBaseCharDistanceSq@@@?$allocator@UtagBaseCharDistanceSq@@@std@@QAEXPAUtagBaseCharDistanceSq@@AAU2@@Z ENDP ; std::allocator<tagBaseCharDistanceSq>::construct<tagBaseCharDistanceSq &>
PUBLIC	??$_Move@PAUtagBaseCharDistanceSq@@PAU1@@std@@YAPAUtagBaseCharDistanceSq@@PAU1@00U_Nonscalar_ptr_iterator_tag@0@@Z ; std::_Move<tagBaseCharDistanceSq *,tagBaseCharDistanceSq *>
; Function compile flags: /Ogsp
; File c:\program files (x86)\microsoft visual studio 10.0\vc\include\xutility
;	COMDAT ??$_Move@PAUtagBaseCharDistanceSq@@PAU1@@std@@YAPAUtagBaseCharDistanceSq@@PAU1@00U_Nonscalar_ptr_iterator_tag@0@@Z
_TEXT	SEGMENT
__First$ = 8						; size = 4
__Last$ = 12						; size = 4
__Dest$ = 16						; size = 4
___formal$ = 20						; size = 1
??$_Move@PAUtagBaseCharDistanceSq@@PAU1@@std@@YAPAUtagBaseCharDistanceSq@@PAU1@00U_Nonscalar_ptr_iterator_tag@0@@Z PROC ; std::_Move<tagBaseCharDistanceSq *,tagBaseCharDistanceSq *>, COMDAT

; 2512 : 	{	// move [_First, _Last) to [_Dest, ...), arbitrary iterators

  00000	55		 push	 ebp
  00001	8b ec		 mov	 ebp, esp
  00003	56		 push	 esi

; 2513 : 	for (; _First != _Last; ++_Dest, ++_First)

  00004	8b 75 08	 mov	 esi, DWORD PTR __First$[ebp]
  00007	eb 10		 jmp	 SHORT $LN11@Move
$LL3@Move:

; 2514 : 		*_Dest = _STD move(*_First);

  00009	8b 4d 10	 mov	 ecx, DWORD PTR __Dest$[ebp]
  0000c	56		 push	 esi
  0000d	e8 00 00 00 00	 call	 ??4tagBaseCharDistanceSq@@QAEAAU0@ABU0@@Z
  00012	83 45 10 20	 add	 DWORD PTR __Dest$[ebp], 32 ; 00000020H
  00016	83 c6 20	 add	 esi, 32			; 00000020H
$LN11@Move:

; 2513 : 	for (; _First != _Last; ++_Dest, ++_First)

  00019	3b 75 0c	 cmp	 esi, DWORD PTR __Last$[ebp]
  0001c	75 eb		 jne	 SHORT $LL3@Move

; 2515 : 	return (_Dest);

  0001e	8b 45 10	 mov	 eax, DWORD PTR __Dest$[ebp]
  00021	5e		 pop	 esi

; 2516 : 	}

  00022	5d		 pop	 ebp
  00023	c3		 ret	 0
??$_Move@PAUtagBaseCharDistanceSq@@PAU1@@std@@YAPAUtagBaseCharDistanceSq@@PAU1@00U_Nonscalar_ptr_iterator_tag@0@@Z ENDP ; std::_Move<tagBaseCharDistanceSq *,tagBaseCharDistanceSq *>
_TEXT	ENDS
PUBLIC	??$_Construct@UtagBaseCharDistanceSq@@ABU1@@std@@YAXPAUtagBaseCharDistanceSq@@ABU1@@Z ; std::_Construct<tagBaseCharDistanceSq,tagBaseCharDistanceSq const &>
;	COMDAT xdata$x
; File c:\program files (x86)\microsoft visual studio 10.0\vc\include\utility
xdata$x	SEGMENT
__unwindtable$??$_Construct@UtagBaseCharDistanceSq@@ABU1@@std@@YAXPAUtagBaseCharDistanceSq@@ABU1@@Z DD 0ffffffffH
	DD	FLAT:__unwindfunclet$??$_Construct@UtagBaseCharDistanceSq@@ABU1@@std@@YAXPAUtagBaseCharDistanceSq@@ABU1@@Z$0
__ehfuncinfo$??$_Construct@UtagBaseCharDistanceSq@@ABU1@@std@@YAXPAUtagBaseCharDistanceSq@@ABU1@@Z DD 019930522H
	DD	01H
	DD	FLAT:__unwindtable$??$_Construct@UtagBaseCharDistanceSq@@ABU1@@std@@YAXPAUtagBaseCharDistanceSq@@ABU1@@Z
	DD	2 DUP(00H)
	DD	2 DUP(00H)
	DD	00H
	DD	01H
; Function compile flags: /Ogsp
; File c:\program files (x86)\microsoft visual studio 10.0\vc\include\xmemory
xdata$x	ENDS
;	COMDAT ??$_Construct@UtagBaseCharDistanceSq@@ABU1@@std@@YAXPAUtagBaseCharDistanceSq@@ABU1@@Z
_TEXT	SEGMENT
$T554803 = -16						; size = 4
__$EHRec$ = -12						; size = 12
__Vptr$ = 8						; size = 4
__Ptr$ = 8						; size = 4
__Val$ = 12						; size = 4
??$_Construct@UtagBaseCharDistanceSq@@ABU1@@std@@YAXPAUtagBaseCharDistanceSq@@ABU1@@Z PROC ; std::_Construct<tagBaseCharDistanceSq,tagBaseCharDistanceSq const &>, COMDAT

; 46   : 	{	// construct object at _Ptr with value _Val

  00000	6a 04		 push	 4
  00002	b8 00 00 00 00	 mov	 eax, __ehhandler$??$_Construct@UtagBaseCharDistanceSq@@ABU1@@std@@YAXPAUtagBaseCharDistanceSq@@ABU1@@Z
  00007	e8 00 00 00 00	 call	 __EH_prolog3

; 47   : 	void _FARQ *_Vptr = _Ptr;

  0000c	8b 4d 08	 mov	 ecx, DWORD PTR __Ptr$[ebp]
  0000f	89 4d 08	 mov	 DWORD PTR __Vptr$[ebp], ecx

; 48   : 	::new (_Vptr) _Ty1(_STD forward<_Ty2>(_Val));

  00012	89 4d f0	 mov	 DWORD PTR $T554803[ebp], ecx
  00015	83 65 fc 00	 and	 DWORD PTR __$EHRec$[ebp+8], 0
  00019	85 c9		 test	 ecx, ecx
  0001b	74 08		 je	 SHORT $LN3@Construct
  0001d	ff 75 0c	 push	 DWORD PTR __Val$[ebp]
  00020	e8 00 00 00 00	 call	 ??0tagBaseCharDistanceSq@@QAE@ABU0@@Z
$LN3@Construct:

; 49   : 	}

  00025	e8 00 00 00 00	 call	 __EH_epilog3
  0002a	c3		 ret	 0
_TEXT	ENDS
;	COMDAT text$x
text$x	SEGMENT
__unwindfunclet$??$_Construct@UtagBaseCharDistanceSq@@ABU1@@std@@YAXPAUtagBaseCharDistanceSq@@ABU1@@Z$0:
  00000	ff 75 08	 push	 DWORD PTR __Vptr$[ebp]
  00003	ff 75 f0	 push	 DWORD PTR $T554803[ebp]
  00006	e8 00 00 00 00	 call	 ??3@YAXPAX0@Z		; operator delete
  0000b	59		 pop	 ecx
  0000c	59		 pop	 ecx
  0000d	c3		 ret	 0
__ehhandler$??$_Construct@UtagBaseCharDistanceSq@@ABU1@@std@@YAXPAUtagBaseCharDistanceSq@@ABU1@@Z:
  0000e	8b 54 24 08	 mov	 edx, DWORD PTR [esp+8]
  00012	8d 42 0c	 lea	 eax, DWORD PTR [edx+12]
  00015	8b 4a ec	 mov	 ecx, DWORD PTR [edx-20]
  00018	33 c8		 xor	 ecx, eax
  0001a	e8 00 00 00 00	 call	 @__security_check_cookie@4
  0001f	b8 00 00 00 00	 mov	 eax, OFFSET __ehfuncinfo$??$_Construct@UtagBaseCharDistanceSq@@ABU1@@std@@YAXPAUtagBaseCharDistanceSq@@ABU1@@Z
  00024	e9 00 00 00 00	 jmp	 ___CxxFrameHandler3
text$x	ENDS
??$_Construct@UtagBaseCharDistanceSq@@ABU1@@std@@YAXPAUtagBaseCharDistanceSq@@ABU1@@Z ENDP ; std::_Construct<tagBaseCharDistanceSq,tagBaseCharDistanceSq const &>
PUBLIC	??$?0AAPAUtagBaseCharDistanceSq@@AAPAU0@@?$pair@PAUtagBaseCharDistanceSq@@PAU1@@std@@QAE@AAPAUtagBaseCharDistanceSq@@0@Z ; std::pair<tagBaseCharDistanceSq *,tagBaseCharDistanceSq *>::pair<tagBaseCharDistanceSq *,tagBaseCharDistanceSq *><tagBaseCharDistanceSq * &,tagBaseCharDistanceSq * &>
; Function compile flags: /Ogsp
; File c:\program files (x86)\microsoft visual studio 10.0\vc\include\utility
;	COMDAT ??$?0AAPAUtagBaseCharDistanceSq@@AAPAU0@@?$pair@PAUtagBaseCharDistanceSq@@PAU1@@std@@QAE@AAPAUtagBaseCharDistanceSq@@0@Z
_TEXT	SEGMENT
__Val1$ = 8						; size = 4
__Val2$ = 12						; size = 4
??$?0AAPAUtagBaseCharDistanceSq@@AAPAU0@@?$pair@PAUtagBaseCharDistanceSq@@PAU1@@std@@QAE@AAPAUtagBaseCharDistanceSq@@0@Z PROC ; std::pair<tagBaseCharDistanceSq *,tagBaseCharDistanceSq *>::pair<tagBaseCharDistanceSq *,tagBaseCharDistanceSq *><tagBaseCharDistanceSq * &,tagBaseCharDistanceSq * &>, COMDAT
; _this$ = ecx

; 247  : 		{	// construct from moved values

  00000	55		 push	 ebp
  00001	8b ec		 mov	 ebp, esp
  00003	8b c1		 mov	 eax, ecx
  00005	8b 4d 08	 mov	 ecx, DWORD PTR __Val1$[ebp]
  00008	8b 09		 mov	 ecx, DWORD PTR [ecx]
  0000a	89 08		 mov	 DWORD PTR [eax], ecx
  0000c	8b 4d 0c	 mov	 ecx, DWORD PTR __Val2$[ebp]
  0000f	8b 09		 mov	 ecx, DWORD PTR [ecx]
  00011	89 48 04	 mov	 DWORD PTR [eax+4], ecx

; 248  : 		}

  00014	5d		 pop	 ebp
  00015	c2 08 00	 ret	 8
??$?0AAPAUtagBaseCharDistanceSq@@AAPAU0@@?$pair@PAUtagBaseCharDistanceSq@@PAU1@@std@@QAE@AAPAUtagBaseCharDistanceSq@@0@Z ENDP ; std::pair<tagBaseCharDistanceSq *,tagBaseCharDistanceSq *>::pair<tagBaseCharDistanceSq *,tagBaseCharDistanceSq *><tagBaseCharDistanceSq * &,tagBaseCharDistanceSq * &>
_TEXT	ENDS
PUBLIC	??$_Destroy@UtagBaseCharDistanceSq@@@std@@YAXPAUtagBaseCharDistanceSq@@@Z ; std::_Destroy<tagBaseCharDistanceSq>
; Function compile flags: /Ogsp
; File c:\program files (x86)\microsoft visual studio 10.0\vc\include\xmemory
;	COMDAT ??$_Destroy@UtagBaseCharDistanceSq@@@std@@YAXPAUtagBaseCharDistanceSq@@@Z
_TEXT	SEGMENT
__Ptr$ = 8						; size = 4
??$_Destroy@UtagBaseCharDistanceSq@@@std@@YAXPAUtagBaseCharDistanceSq@@@Z PROC ; std::_Destroy<tagBaseCharDistanceSq>, COMDAT

; 62   : 	{	// destroy object at _Ptr

  00000	55		 push	 ebp
  00001	8b ec		 mov	 ebp, esp

; 63   : 	_Ptr->~_Ty();

  00003	8b 4d 08	 mov	 ecx, DWORD PTR __Ptr$[ebp]

; 64   : 	}

  00006	5d		 pop	 ebp

; 63   : 	_Ptr->~_Ty();

  00007	ff 25 00 00 00
	00		 jmp	 DWORD PTR __imp_??1ioHashString@@QAE@XZ
??$_Destroy@UtagBaseCharDistanceSq@@@std@@YAXPAUtagBaseCharDistanceSq@@@Z ENDP ; std::_Destroy<tagBaseCharDistanceSq>
_TEXT	ENDS
PUBLIC	?construct@?$allocator@UtagBaseCharDistanceSq@@@std@@QAEXPAUtagBaseCharDistanceSq@@$$QAU3@@Z ; std::allocator<tagBaseCharDistanceSq>::construct
;	COMDAT xdata$x
; File c:\program files (x86)\microsoft visual studio 10.0\vc\include\utility
xdata$x	SEGMENT
__unwindtable$?construct@?$allocator@UtagBaseCharDistanceSq@@@std@@QAEXPAUtagBaseCharDistanceSq@@$$QAU3@@Z DD 0ffffffffH
	DD	FLAT:__unwindfunclet$?construct@?$allocator@UtagBaseCharDistanceSq@@@std@@QAEXPAUtagBaseCharDistanceSq@@$$QAU3@@Z$0
__ehfuncinfo$?construct@?$allocator@UtagBaseCharDistanceSq@@@std@@QAEXPAUtagBaseCharDistanceSq@@$$QAU3@@Z DD 019930522H
	DD	01H
	DD	FLAT:__unwindtable$?construct@?$allocator@UtagBaseCharDistanceSq@@@std@@QAEXPAUtagBaseCharDistanceSq@@$$QAU3@@Z
	DD	2 DUP(00H)
	DD	2 DUP(00H)
	DD	00H
	DD	01H
; Function compile flags: /Ogsp
; File c:\program files (x86)\microsoft visual studio 10.0\vc\include\xmemory
xdata$x	ENDS
;	COMDAT ?construct@?$allocator@UtagBaseCharDistanceSq@@@std@@QAEXPAUtagBaseCharDistanceSq@@$$QAU3@@Z
_TEXT	SEGMENT
$T554856 = -16						; size = 4
__$EHRec$ = -12						; size = 12
__Ptr$ = 8						; size = 4
__Val$ = 12						; size = 4
?construct@?$allocator@UtagBaseCharDistanceSq@@@std@@QAEXPAUtagBaseCharDistanceSq@@$$QAU3@@Z PROC ; std::allocator<tagBaseCharDistanceSq>::construct, COMDAT
; _this$ = ecx

; 201  : 		{	// construct object at _Ptr with value _Val

  00000	6a 04		 push	 4
  00002	b8 00 00 00 00	 mov	 eax, __ehhandler$?construct@?$allocator@UtagBaseCharDistanceSq@@@std@@QAEXPAUtagBaseCharDistanceSq@@$$QAU3@@Z
  00007	e8 00 00 00 00	 call	 __EH_prolog3

; 202  : 		::new ((void _FARQ *)_Ptr) _Ty(_STD forward<_Ty>(_Val));

  0000c	8b 4d 08	 mov	 ecx, DWORD PTR __Ptr$[ebp]
  0000f	89 4d f0	 mov	 DWORD PTR $T554856[ebp], ecx
  00012	83 65 fc 00	 and	 DWORD PTR __$EHRec$[ebp+8], 0
  00016	85 c9		 test	 ecx, ecx
  00018	74 08		 je	 SHORT $LN3@construct@2
  0001a	ff 75 0c	 push	 DWORD PTR __Val$[ebp]
  0001d	e8 00 00 00 00	 call	 ??0tagBaseCharDistanceSq@@QAE@ABU0@@Z
$LN3@construct@2:

; 203  : 		}

  00022	e8 00 00 00 00	 call	 __EH_epilog3
  00027	c2 08 00	 ret	 8
_TEXT	ENDS
;	COMDAT text$x
text$x	SEGMENT
__unwindfunclet$?construct@?$allocator@UtagBaseCharDistanceSq@@@std@@QAEXPAUtagBaseCharDistanceSq@@$$QAU3@@Z$0:
  00000	ff 75 08	 push	 DWORD PTR __Ptr$[ebp]
  00003	ff 75 f0	 push	 DWORD PTR $T554856[ebp]
  00006	e8 00 00 00 00	 call	 ??3@YAXPAX0@Z		; operator delete
  0000b	59		 pop	 ecx
  0000c	59		 pop	 ecx
  0000d	c3		 ret	 0
__ehhandler$?construct@?$allocator@UtagBaseCharDistanceSq@@@std@@QAEXPAUtagBaseCharDistanceSq@@$$QAU3@@Z:
  0000e	8b 54 24 08	 mov	 edx, DWORD PTR [esp+8]
  00012	8d 42 0c	 lea	 eax, DWORD PTR [edx+12]
  00015	8b 4a ec	 mov	 ecx, DWORD PTR [edx-20]
  00018	33 c8		 xor	 ecx, eax
  0001a	e8 00 00 00 00	 call	 @__security_check_cookie@4
  0001f	b8 00 00 00 00	 mov	 eax, OFFSET __ehfuncinfo$?construct@?$allocator@UtagBaseCharDistanceSq@@@std@@QAEXPAUtagBaseCharDistanceSq@@$$QAU3@@Z
  00024	e9 00 00 00 00	 jmp	 ___CxxFrameHandler3
text$x	ENDS
?construct@?$allocator@UtagBaseCharDistanceSq@@@std@@QAEXPAUtagBaseCharDistanceSq@@$$QAU3@@Z ENDP ; std::allocator<tagBaseCharDistanceSq>::construct
PUBLIC	??$swap@UtagBaseCharDistanceSq@@@std@@YAXAAUtagBaseCharDistanceSq@@0@Z ; std::swap<tagBaseCharDistanceSq>
;	COMDAT xdata$x
; File d:\lost saga for developer\youtube\tutorial\source\src\lsclient\iotargetbuffskill.cpp
xdata$x	SEGMENT
__unwindtable$??$swap@UtagBaseCharDistanceSq@@@std@@YAXAAUtagBaseCharDistanceSq@@0@Z DD 0ffffffffH
	DD	FLAT:__unwindfunclet$??$swap@UtagBaseCharDistanceSq@@@std@@YAXAAUtagBaseCharDistanceSq@@0@Z$0
__ehfuncinfo$??$swap@UtagBaseCharDistanceSq@@@std@@YAXAAUtagBaseCharDistanceSq@@0@Z DD 019930522H
	DD	01H
	DD	FLAT:__unwindtable$??$swap@UtagBaseCharDistanceSq@@@std@@YAXAAUtagBaseCharDistanceSq@@0@Z
	DD	2 DUP(00H)
	DD	2 DUP(00H)
	DD	00H
	DD	01H
; Function compile flags: /Ogsp
; File c:\program files (x86)\microsoft visual studio 10.0\vc\include\utility
xdata$x	ENDS
;	COMDAT ??$swap@UtagBaseCharDistanceSq@@@std@@YAXAAUtagBaseCharDistanceSq@@0@Z
_TEXT	SEGMENT
__Tmp$ = -48						; size = 32
__$EHRec$ = -12						; size = 12
__Left$ = 8						; size = 4
__Right$ = 12						; size = 4
??$swap@UtagBaseCharDistanceSq@@@std@@YAXAAUtagBaseCharDistanceSq@@0@Z PROC ; std::swap<tagBaseCharDistanceSq>, COMDAT

; 101  : 	{	// exchange values stored at _Left and _Right

  00000	6a 24		 push	 36			; 00000024H
  00002	b8 00 00 00 00	 mov	 eax, __ehhandler$??$swap@UtagBaseCharDistanceSq@@@std@@YAXAAUtagBaseCharDistanceSq@@0@Z
  00007	e8 00 00 00 00	 call	 __EH_prolog3_GS
  0000c	8b 75 08	 mov	 esi, DWORD PTR __Left$[ebp]
  0000f	8b 7d 0c	 mov	 edi, DWORD PTR __Right$[ebp]

; 102  : 	_Ty _Tmp = _Move(_Left);

  00012	56		 push	 esi
  00013	8d 4d d0	 lea	 ecx, DWORD PTR __Tmp$[ebp]
  00016	e8 00 00 00 00	 call	 ??0tagBaseCharDistanceSq@@QAE@ABU0@@Z
  0001b	83 65 fc 00	 and	 DWORD PTR __$EHRec$[ebp+8], 0

; 103  : 	_Left = _Move(_Right);

  0001f	57		 push	 edi
  00020	8b ce		 mov	 ecx, esi
  00022	e8 00 00 00 00	 call	 ??4tagBaseCharDistanceSq@@QAEAAU0@ABU0@@Z

; 104  : 	_Right = _Move(_Tmp);

  00027	8d 45 d0	 lea	 eax, DWORD PTR __Tmp$[ebp]
  0002a	50		 push	 eax
  0002b	8b cf		 mov	 ecx, edi
  0002d	e8 00 00 00 00	 call	 ??4tagBaseCharDistanceSq@@QAEAAU0@ABU0@@Z

; 105  : 	}

  00032	83 4d fc ff	 or	 DWORD PTR __$EHRec$[ebp+8], -1
  00036	8d 4d d0	 lea	 ecx, DWORD PTR __Tmp$[ebp]
  00039	ff 15 00 00 00
	00		 call	 DWORD PTR __imp_??1ioHashString@@QAE@XZ
  0003f	e8 00 00 00 00	 call	 __EH_epilog3_GS
  00044	c3		 ret	 0
_TEXT	ENDS
;	COMDAT text$x
text$x	SEGMENT
__unwindfunclet$??$swap@UtagBaseCharDistanceSq@@@std@@YAXAAUtagBaseCharDistanceSq@@0@Z$0:
  00000	8d 4d d0	 lea	 ecx, DWORD PTR __Tmp$[ebp]
  00003	e9 00 00 00 00	 jmp	 ??1tagBaseCharDistanceSq@@QAE@XZ
__ehhandler$??$swap@UtagBaseCharDistanceSq@@@std@@YAXAAUtagBaseCharDistanceSq@@0@Z:
  00008	8b 54 24 08	 mov	 edx, DWORD PTR [esp+8]
  0000c	8d 42 0c	 lea	 eax, DWORD PTR [edx+12]
  0000f	8b 4a cc	 mov	 ecx, DWORD PTR [edx-52]
  00012	33 c8		 xor	 ecx, eax
  00014	e8 00 00 00 00	 call	 @__security_check_cookie@4
  00019	8b 4a fc	 mov	 ecx, DWORD PTR [edx-4]
  0001c	33 c8		 xor	 ecx, eax
  0001e	e8 00 00 00 00	 call	 @__security_check_cookie@4
  00023	b8 00 00 00 00	 mov	 eax, OFFSET __ehfuncinfo$??$swap@UtagBaseCharDistanceSq@@@std@@YAXAAUtagBaseCharDistanceSq@@0@Z
  00028	e9 00 00 00 00	 jmp	 ___CxxFrameHandler3
text$x	ENDS
??$swap@UtagBaseCharDistanceSq@@@std@@YAXAAUtagBaseCharDistanceSq@@0@Z ENDP ; std::swap<tagBaseCharDistanceSq>
PUBLIC	??$_Move_backward@PAUtagBaseCharDistanceSq@@PAU1@@std@@YAPAUtagBaseCharDistanceSq@@PAU1@00@Z ; std::_Move_backward<tagBaseCharDistanceSq *,tagBaseCharDistanceSq *>
; Function compile flags: /Ogsp
; File c:\program files (x86)\microsoft visual studio 10.0\vc\include\xutility
;	COMDAT ??$_Move_backward@PAUtagBaseCharDistanceSq@@PAU1@@std@@YAPAUtagBaseCharDistanceSq@@PAU1@00@Z
_TEXT	SEGMENT
__Cat$554903 = -4					; size = 1
__First$ = 8						; size = 4
__Last$ = 12						; size = 4
__Dest$ = 16						; size = 4
??$_Move_backward@PAUtagBaseCharDistanceSq@@PAU1@@std@@YAPAUtagBaseCharDistanceSq@@PAU1@00@Z PROC ; std::_Move_backward<tagBaseCharDistanceSq *,tagBaseCharDistanceSq *>, COMDAT

; 2638 : 	{	// move [_First, _Last) backwards to [..., _Dest), unchecked

  00000	55		 push	 ebp
  00001	8b ec		 mov	 ebp, esp
  00003	51		 push	 ecx

; 2639 : 	return (_Move_backward(_First, _Last,
; 2640 : 		_Dest, _Ptr_cat(_First, _Dest)));

  00004	ff 75 fc	 push	 DWORD PTR __Cat$554903[ebp]
  00007	ff 75 10	 push	 DWORD PTR __Dest$[ebp]
  0000a	ff 75 0c	 push	 DWORD PTR __Last$[ebp]
  0000d	ff 75 08	 push	 DWORD PTR __First$[ebp]
  00010	e8 00 00 00 00	 call	 ??$_Move_backward@PAUtagBaseCharDistanceSq@@PAU1@@std@@YAPAUtagBaseCharDistanceSq@@PAU1@00U_Nonscalar_ptr_iterator_tag@0@@Z ; std::_Move_backward<tagBaseCharDistanceSq *,tagBaseCharDistanceSq *>
  00015	83 c4 10	 add	 esp, 16			; 00000010H

; 2641 : 	}

  00018	c9		 leave
  00019	c3		 ret	 0
??$_Move_backward@PAUtagBaseCharDistanceSq@@PAU1@@std@@YAPAUtagBaseCharDistanceSq@@PAU1@00@Z ENDP ; std::_Move_backward<tagBaseCharDistanceSq *,tagBaseCharDistanceSq *>
_TEXT	ENDS
PUBLIC	??$_Push_heap@PAUtagBaseCharDistanceSq@@HU1@VBaseCharDistanceSqSort2@@@std@@YAXPAUtagBaseCharDistanceSq@@HH$$QAU1@VBaseCharDistanceSqSort2@@@Z ; std::_Push_heap<tagBaseCharDistanceSq *,int,tagBaseCharDistanceSq,BaseCharDistanceSqSort2>
; Function compile flags: /Ogsp
; File c:\program files (x86)\microsoft visual studio 10.0\vc\include\algorithm
;	COMDAT ??$_Push_heap@PAUtagBaseCharDistanceSq@@HU1@VBaseCharDistanceSqSort2@@@std@@YAXPAUtagBaseCharDistanceSq@@HH$$QAU1@VBaseCharDistanceSqSort2@@@Z
_TEXT	SEGMENT
__First$ = 8						; size = 4
__Hole$ = 12						; size = 4
__Top$ = 16						; size = 4
__Val$ = 20						; size = 4
__Pred$ = 24						; size = 1
??$_Push_heap@PAUtagBaseCharDistanceSq@@HU1@VBaseCharDistanceSqSort2@@@std@@YAXPAUtagBaseCharDistanceSq@@HH$$QAU1@VBaseCharDistanceSqSort2@@@Z PROC ; std::_Push_heap<tagBaseCharDistanceSq *,int,tagBaseCharDistanceSq,BaseCharDistanceSqSort2>, COMDAT

; 2455 : 	{	// percolate _Hole to _Top or where _Val belongs, using operator<

  00000	55		 push	 ebp
  00001	8b ec		 mov	 ebp, esp

; 2456 : 	for (_Diff _Idx = (_Hole - 1) / 2;

  00003	8b 4d 0c	 mov	 ecx, DWORD PTR __Hole$[ebp]
  00006	8d 41 ff	 lea	 eax, DWORD PTR [ecx-1]
  00009	53		 push	 ebx

; 2457 : 		_Top < _Hole && _DEBUG_LT_PRED(_Pred, *(_First + _Idx), _Val);
; 2458 : 		_Idx = (_Hole - 1) / 2)

  0000a	8b 5d 14	 mov	 ebx, DWORD PTR __Val$[ebp]
  0000d	99		 cdq
  0000e	56		 push	 esi
  0000f	2b c2		 sub	 eax, edx
  00011	8b f0		 mov	 esi, eax
  00013	57		 push	 edi
  00014	8b 7d 08	 mov	 edi, DWORD PTR __First$[ebp]
  00017	d1 fe		 sar	 esi, 1
  00019	eb 34		 jmp	 SHORT $LN16@Push_heap
$LL3@Push_heap:
  0001b	f3 0f 10 4b 10	 movss	 xmm1, DWORD PTR [ebx+16]
  00020	8b c6		 mov	 eax, esi
  00022	c1 e0 05	 shl	 eax, 5
  00025	03 c7		 add	 eax, edi
  00027	f3 0f 10 40 10	 movss	 xmm0, DWORD PTR [eax+16]
  0002c	0f 5a c0	 cvtps2pd xmm0, xmm0
  0002f	0f 5a c9	 cvtps2pd xmm1, xmm1
  00032	66 0f 2f c8	 comisd	 xmm1, xmm0
  00036	76 1c		 jbe	 SHORT $LN6@Push_heap

; 2459 : 		{	// move _Hole up to parent
; 2460 : 		*(_First + _Hole) = _Move(*(_First + _Idx));

  00038	c1 e1 05	 shl	 ecx, 5
  0003b	50		 push	 eax
  0003c	03 cf		 add	 ecx, edi
  0003e	e8 00 00 00 00	 call	 ??4tagBaseCharDistanceSq@@QAEAAU0@ABU0@@Z
  00043	8d 46 ff	 lea	 eax, DWORD PTR [esi-1]
  00046	99		 cdq
  00047	2b c2		 sub	 eax, edx
  00049	d1 f8		 sar	 eax, 1

; 2461 : 		_Hole = _Idx;

  0004b	8b ce		 mov	 ecx, esi
  0004d	8b f0		 mov	 esi, eax
$LN16@Push_heap:

; 2457 : 		_Top < _Hole && _DEBUG_LT_PRED(_Pred, *(_First + _Idx), _Val);
; 2458 : 		_Idx = (_Hole - 1) / 2)

  0004f	39 4d 10	 cmp	 DWORD PTR __Top$[ebp], ecx
  00052	7c c7		 jl	 SHORT $LL3@Push_heap
$LN6@Push_heap:

; 2462 : 		}
; 2463 : 
; 2464 : 	*(_First + _Hole) = _Move(_Val);	// drop _Val into final hole

  00054	c1 e1 05	 shl	 ecx, 5
  00057	53		 push	 ebx
  00058	03 cf		 add	 ecx, edi
  0005a	e8 00 00 00 00	 call	 ??4tagBaseCharDistanceSq@@QAEAAU0@ABU0@@Z
  0005f	5f		 pop	 edi
  00060	5e		 pop	 esi
  00061	5b		 pop	 ebx

; 2465 : 	}

  00062	5d		 pop	 ebp
  00063	c3		 ret	 0
??$_Push_heap@PAUtagBaseCharDistanceSq@@HU1@VBaseCharDistanceSqSort2@@@std@@YAXPAUtagBaseCharDistanceSq@@HH$$QAU1@VBaseCharDistanceSqSort2@@@Z ENDP ; std::_Push_heap<tagBaseCharDistanceSq *,int,tagBaseCharDistanceSq,BaseCharDistanceSqSort2>
_TEXT	ENDS
PUBLIC	??0?$CEncrypt@M@@QAE@XZ				; CEncrypt<float>::CEncrypt<float>
EXTRN	??0ccddaabb@@QAE@XZ:PROC			; ccddaabb::ccddaabb
;	COMDAT xdata$x
; File d:\lost saga for developer\youtube\tutorial\source\src\lsclient\encryptvalue.h
xdata$x	SEGMENT
__unwindtable$??0?$CEncrypt@M@@QAE@XZ DD 0ffffffffH
	DD	FLAT:__unwindfunclet$??0?$CEncrypt@M@@QAE@XZ$0
__ehfuncinfo$??0?$CEncrypt@M@@QAE@XZ DD 019930522H
	DD	01H
	DD	FLAT:__unwindtable$??0?$CEncrypt@M@@QAE@XZ
	DD	2 DUP(00H)
	DD	2 DUP(00H)
	DD	00H
	DD	01H
; Function compile flags: /Ogsp
xdata$x	ENDS
;	COMDAT ??0?$CEncrypt@M@@QAE@XZ
_TEXT	SEGMENT
_this$ = -16						; size = 4
__$EHRec$ = -12						; size = 12
??0?$CEncrypt@M@@QAE@XZ PROC				; CEncrypt<float>::CEncrypt<float>, COMDAT
; _this$ = ecx

; 109  : 	CEncrypt()

  00000	6a 04		 push	 4
  00002	b8 00 00 00 00	 mov	 eax, __ehhandler$??0?$CEncrypt@M@@QAE@XZ
  00007	e8 00 00 00 00	 call	 __EH_prolog3
  0000c	8b f1		 mov	 esi, ecx
  0000e	89 75 f0	 mov	 DWORD PTR _this$[ebp], esi
  00011	8d 4e 0c	 lea	 ecx, DWORD PTR [esi+12]
  00014	c7 06 00 00 00
	00		 mov	 DWORD PTR [esi], OFFSET ??_7?$CEncrypt@M@@6B@
  0001a	e8 00 00 00 00	 call	 ??0ccddaabb@@QAE@XZ	; ccddaabb::ccddaabb
  0001f	83 65 fc 00	 and	 DWORD PTR __$EHRec$[ebp+8], 0

; 110  : 	{
; 111  : 		Init();

  00023	8b ce		 mov	 ecx, esi
  00025	e8 00 00 00 00	 call	 ?Init@?$CEncrypt@M@@AAEXXZ ; CEncrypt<float>::Init

; 112  : 	}

  0002a	8b c6		 mov	 eax, esi
  0002c	e8 00 00 00 00	 call	 __EH_epilog3
  00031	c3		 ret	 0
_TEXT	ENDS
;	COMDAT text$x
text$x	SEGMENT
__unwindfunclet$??0?$CEncrypt@M@@QAE@XZ$0:
  00000	8b 4d f0	 mov	 ecx, DWORD PTR _this$[ebp]
  00003	83 c1 0c	 add	 ecx, 12			; 0000000cH
  00006	e9 00 00 00 00	 jmp	 ??1ccddaabb@@UAE@XZ	; ccddaabb::~ccddaabb
__ehhandler$??0?$CEncrypt@M@@QAE@XZ:
  0000b	8b 54 24 08	 mov	 edx, DWORD PTR [esp+8]
  0000f	8d 42 0c	 lea	 eax, DWORD PTR [edx+12]
  00012	8b 4a ec	 mov	 ecx, DWORD PTR [edx-20]
  00015	33 c8		 xor	 ecx, eax
  00017	e8 00 00 00 00	 call	 @__security_check_cookie@4
  0001c	b8 00 00 00 00	 mov	 eax, OFFSET __ehfuncinfo$??0?$CEncrypt@M@@QAE@XZ
  00021	e9 00 00 00 00	 jmp	 ___CxxFrameHandler3
text$x	ENDS
??0?$CEncrypt@M@@QAE@XZ ENDP				; CEncrypt<float>::CEncrypt<float>
PUBLIC	??B?$CEncrypt@M@@QAEMXZ				; CEncrypt<float>::operator float
; Function compile flags: /Ogsp
;	COMDAT ??B?$CEncrypt@M@@QAEMXZ
_TEXT	SEGMENT
_value$ = -4						; size = 4
??B?$CEncrypt@M@@QAEMXZ PROC				; CEncrypt<float>::operator float, COMDAT
; _this$ = ecx

; 134  : 	{

  00000	55		 push	 ebp
  00001	8b ec		 mov	 ebp, esp
  00003	51		 push	 ecx

; 135  : 		type value;
; 136  : 		DecryptValueToPool(&value);

  00004	8d 45 fc	 lea	 eax, DWORD PTR _value$[ebp]
  00007	50		 push	 eax
  00008	e8 00 00 00 00	 call	 ?DecryptValueToPool@?$CEncrypt@M@@QAEXPAM@Z ; CEncrypt<float>::DecryptValueToPool

; 137  : 
; 138  : #ifdef _NOTUSE
; 139  : 		Debug();
; 140  : #endif
; 141  : 		return value;

  0000d	d9 45 fc	 fld	 DWORD PTR _value$[ebp]

; 142  : 	}

  00010	c9		 leave
  00011	c3		 ret	 0
??B?$CEncrypt@M@@QAEMXZ ENDP				; CEncrypt<float>::operator float
_TEXT	ENDS
PUBLIC	??B?$CEncrypt@M@@QBEMXZ				; CEncrypt<float>::operator float
; Function compile flags: /Ogsp
;	COMDAT ??B?$CEncrypt@M@@QBEMXZ
_TEXT	SEGMENT
_value$ = -4						; size = 4
??B?$CEncrypt@M@@QBEMXZ PROC				; CEncrypt<float>::operator float, COMDAT
; _this$ = ecx

; 145  : 	{

  00000	55		 push	 ebp
  00001	8b ec		 mov	 ebp, esp
  00003	51		 push	 ecx

; 146  : 		//UJ 130829, const    --start
; 147  : 		type value;
; 148  : 		CEncrypt<type>* pThis = const_cast<CEncrypt<type>*>(this);
; 149  : 		pThis->DecryptValueToPool(&value);

  00004	8d 45 fc	 lea	 eax, DWORD PTR _value$[ebp]
  00007	50		 push	 eax
  00008	e8 00 00 00 00	 call	 ?DecryptValueToPool@?$CEncrypt@M@@QAEXPAM@Z ; CEncrypt<float>::DecryptValueToPool

; 150  : 		//// const DecryptValueToPool     .
; 151  :  		//type value;
; 152  : 		//char szTempMem[MAX_ENCRYPT];
; 153  : 		//m_RC5.DecryptByte( m_MemPool, szTempMem, max(m_ValueSize, DEFAULT_ENCRYPT) );
; 154  : 		//memcpy( &value, szTempMem, m_ValueSize );
; 155  : 		//UJ --end
; 156  : 
; 157  : #ifdef _NOTUSE
; 158  : 		Debug();
; 159  : #endif
; 160  : 		return value;

  0000d	d9 45 fc	 fld	 DWORD PTR _value$[ebp]

; 161  : 	}

  00010	c9		 leave
  00011	c3		 ret	 0
??B?$CEncrypt@M@@QBEMXZ ENDP				; CEncrypt<float>::operator float
_TEXT	ENDS
PUBLIC	??4?$CEncrypt@M@@QAEMM@Z			; CEncrypt<float>::operator=
; Function compile flags: /Ogsp
;	COMDAT ??4?$CEncrypt@M@@QAEMM@Z
_TEXT	SEGMENT
_value$ = 8						; size = 4
_inValue$ = 8						; size = 4
??4?$CEncrypt@M@@QAEMM@Z PROC				; CEncrypt<float>::operator=, COMDAT
; _this$ = ecx

; 1654 : 	{	

  00000	55		 push	 ebp
  00001	8b ec		 mov	 ebp, esp

; 1655 : 		type value = inValue;

  00003	d9 45 08	 fld	 DWORD PTR _inValue$[ebp]

; 1656 : 		EncryptValueToPool((char*)&value);

  00006	8d 45 08	 lea	 eax, DWORD PTR _value$[ebp]
  00009	50		 push	 eax
  0000a	d9 5d 08	 fstp	 DWORD PTR _value$[ebp]
  0000d	e8 00 00 00 00	 call	 ?EncryptValueToPool@?$CEncrypt@M@@AAEXPBD@Z ; CEncrypt<float>::EncryptValueToPool

; 1657 : #ifdef _NOTUSE
; 1658 : 		m_value = inValue;
; 1659 : 		Debug();
; 1660 : #endif
; 1661 : 		return value;

  00012	d9 45 08	 fld	 DWORD PTR _value$[ebp]

; 1662 : 	}

  00015	5d		 pop	 ebp
  00016	c2 04 00	 ret	 4
??4?$CEncrypt@M@@QAEMM@Z ENDP				; CEncrypt<float>::operator=
_TEXT	ENDS
PUBLIC	??B?$CEncrypt@_N@@QBE_NXZ			; CEncrypt<bool>::operator bool
; Function compile flags: /Ogsp
;	COMDAT ??B?$CEncrypt@_N@@QBE_NXZ
_TEXT	SEGMENT
_value$ = -1						; size = 1
??B?$CEncrypt@_N@@QBE_NXZ PROC				; CEncrypt<bool>::operator bool, COMDAT
; _this$ = ecx

; 145  : 	{

  00000	55		 push	 ebp
  00001	8b ec		 mov	 ebp, esp
  00003	51		 push	 ecx

; 146  : 		//UJ 130829, const    --start
; 147  : 		type value;
; 148  : 		CEncrypt<type>* pThis = const_cast<CEncrypt<type>*>(this);
; 149  : 		pThis->DecryptValueToPool(&value);

  00004	8d 45 ff	 lea	 eax, DWORD PTR _value$[ebp]
  00007	50		 push	 eax
  00008	e8 00 00 00 00	 call	 ?DecryptValueToPool@?$CEncrypt@_N@@QAEXPA_N@Z ; CEncrypt<bool>::DecryptValueToPool

; 150  : 		//// const DecryptValueToPool     .
; 151  :  		//type value;
; 152  : 		//char szTempMem[MAX_ENCRYPT];
; 153  : 		//m_RC5.DecryptByte( m_MemPool, szTempMem, max(m_ValueSize, DEFAULT_ENCRYPT) );
; 154  : 		//memcpy( &value, szTempMem, m_ValueSize );
; 155  : 		//UJ --end
; 156  : 
; 157  : #ifdef _NOTUSE
; 158  : 		Debug();
; 159  : #endif
; 160  : 		return value;

  0000d	8a 45 ff	 mov	 al, BYTE PTR _value$[ebp]

; 161  : 	}

  00010	c9		 leave
  00011	c3		 ret	 0
??B?$CEncrypt@_N@@QBE_NXZ ENDP				; CEncrypt<bool>::operator bool
_TEXT	ENDS
PUBLIC	??B?$CEncrypt@W4TeamType@@@@QBE?AW4TeamType@@XZ	; CEncrypt<enum TeamType>::operator enum TeamType
; Function compile flags: /Ogsp
;	COMDAT ??B?$CEncrypt@W4TeamType@@@@QBE?AW4TeamType@@XZ
_TEXT	SEGMENT
_value$ = -4						; size = 4
??B?$CEncrypt@W4TeamType@@@@QBE?AW4TeamType@@XZ PROC	; CEncrypt<enum TeamType>::operator enum TeamType, COMDAT
; _this$ = ecx

; 145  : 	{

  00000	55		 push	 ebp
  00001	8b ec		 mov	 ebp, esp
  00003	51		 push	 ecx

; 146  : 		//UJ 130829, const    --start
; 147  : 		type value;
; 148  : 		CEncrypt<type>* pThis = const_cast<CEncrypt<type>*>(this);
; 149  : 		pThis->DecryptValueToPool(&value);

  00004	8d 45 fc	 lea	 eax, DWORD PTR _value$[ebp]
  00007	50		 push	 eax
  00008	e8 00 00 00 00	 call	 ?DecryptValueToPool@?$CEncrypt@W4TeamType@@@@QAEXPAW4TeamType@@@Z ; CEncrypt<enum TeamType>::DecryptValueToPool

; 150  : 		//// const DecryptValueToPool     .
; 151  :  		//type value;
; 152  : 		//char szTempMem[MAX_ENCRYPT];
; 153  : 		//m_RC5.DecryptByte( m_MemPool, szTempMem, max(m_ValueSize, DEFAULT_ENCRYPT) );
; 154  : 		//memcpy( &value, szTempMem, m_ValueSize );
; 155  : 		//UJ --end
; 156  : 
; 157  : #ifdef _NOTUSE
; 158  : 		Debug();
; 159  : #endif
; 160  : 		return value;

  0000d	8b 45 fc	 mov	 eax, DWORD PTR _value$[ebp]

; 161  : 	}

  00010	c9		 leave
  00011	c3		 ret	 0
??B?$CEncrypt@W4TeamType@@@@QBE?AW4TeamType@@XZ ENDP	; CEncrypt<enum TeamType>::operator enum TeamType
_TEXT	ENDS
PUBLIC	??0ioTargetBuffSkill@@QAE@XZ			; ioTargetBuffSkill::ioTargetBuffSkill
EXTRN	??0ioBuffSkill@@QAE@XZ:PROC			; ioBuffSkill::ioBuffSkill
;	COMDAT xdata$x
; File d:\lost saga for developer\youtube\tutorial\source\src\lsclient\iotargetbuffskill.cpp
xdata$x	SEGMENT
__ehfuncinfo$??0ioTargetBuffSkill@@QAE@XZ DD 019930522H
	DD	07H
	DD	FLAT:__unwindtable$??0ioTargetBuffSkill@@QAE@XZ
	DD	2 DUP(00H)
	DD	2 DUP(00H)
	DD	00H
	DD	01H
__unwindtable$??0ioTargetBuffSkill@@QAE@XZ DD 0ffffffffH
	DD	FLAT:__unwindfunclet$??0ioTargetBuffSkill@@QAE@XZ$0
	DD	00H
	DD	FLAT:__unwindfunclet$??0ioTargetBuffSkill@@QAE@XZ$1
	DD	01H
	DD	FLAT:__unwindfunclet$??0ioTargetBuffSkill@@QAE@XZ$2
	DD	02H
	DD	FLAT:__unwindfunclet$??0ioTargetBuffSkill@@QAE@XZ$3
	DD	03H
	DD	FLAT:__unwindfunclet$??0ioTargetBuffSkill@@QAE@XZ$4
	DD	04H
	DD	FLAT:__unwindfunclet$??0ioTargetBuffSkill@@QAE@XZ$5
	DD	05H
	DD	FLAT:__unwindfunclet$??0ioTargetBuffSkill@@QAE@XZ$6
; Function compile flags: /Ogsp
xdata$x	ENDS
;	COMDAT ??0ioTargetBuffSkill@@QAE@XZ
_TEXT	SEGMENT
_this$ = -16						; size = 4
__$EHRec$ = -12						; size = 12
??0ioTargetBuffSkill@@QAE@XZ PROC			; ioTargetBuffSkill::ioTargetBuffSkill, COMDAT
; _this$ = ecx

; 12   : {

  00000	6a 04		 push	 4
  00002	b8 00 00 00 00	 mov	 eax, __ehhandler$??0ioTargetBuffSkill@@QAE@XZ
  00007	e8 00 00 00 00	 call	 __EH_prolog3
  0000c	8b f1		 mov	 esi, ecx
  0000e	89 75 f0	 mov	 DWORD PTR _this$[ebp], esi
  00011	e8 00 00 00 00	 call	 ??0ioBuffSkill@@QAE@XZ	; ioBuffSkill::ioBuffSkill
  00016	8b 3d 00 00 00
	00		 mov	 edi, DWORD PTR __imp_??0ioHashString@@QAE@XZ
  0001c	83 65 fc 00	 and	 DWORD PTR __$EHRec$[ebp+8], 0
  00020	8d 8e 0c 10 00
	00		 lea	 ecx, DWORD PTR [esi+4108]
  00026	c7 06 00 00 00
	00		 mov	 DWORD PTR [esi], OFFSET ??_7ioTargetBuffSkill@@6B@
  0002c	ff d7		 call	 edi
  0002e	8d 8e 1c 10 00
	00		 lea	 ecx, DWORD PTR [esi+4124]
  00034	c6 45 fc 01	 mov	 BYTE PTR __$EHRec$[ebp+8], 1
  00038	e8 00 00 00 00	 call	 ??0?$CEncrypt@M@@QAE@XZ	; CEncrypt<float>::CEncrypt<float>
  0003d	8d 8e 54 10 00
	00		 lea	 ecx, DWORD PTR [esi+4180]
  00043	c6 45 fc 02	 mov	 BYTE PTR __$EHRec$[ebp+8], 2
  00047	e8 00 00 00 00	 call	 ??0?$CEncrypt@M@@QAE@XZ	; CEncrypt<float>::CEncrypt<float>
  0004c	8d 8e 84 10 00
	00		 lea	 ecx, DWORD PTR [esi+4228]
  00052	c6 45 fc 03	 mov	 BYTE PTR __$EHRec$[ebp+8], 3
  00056	e8 00 00 00 00	 call	 ??0?$CEncrypt@M@@QAE@XZ	; CEncrypt<float>::CEncrypt<float>
  0005b	8d 8e b8 10 00
	00		 lea	 ecx, DWORD PTR [esi+4280]
  00061	c6 45 fc 04	 mov	 BYTE PTR __$EHRec$[ebp+8], 4
  00065	ff d7		 call	 edi
  00067	8d 8e cc 10 00
	00		 lea	 ecx, DWORD PTR [esi+4300]
  0006d	c6 45 fc 05	 mov	 BYTE PTR __$EHRec$[ebp+8], 5
  00071	ff d7		 call	 edi

; 13   : 	ClearData();

  00073	8b ce		 mov	 ecx, esi
  00075	c6 45 fc 06	 mov	 BYTE PTR __$EHRec$[ebp+8], 6
  00079	e8 00 00 00 00	 call	 ?ClearData@ioTargetBuffSkill@@IAEXXZ ; ioTargetBuffSkill::ClearData

; 14   : }

  0007e	8b c6		 mov	 eax, esi
  00080	e8 00 00 00 00	 call	 __EH_epilog3
  00085	c3		 ret	 0
_TEXT	ENDS
;	COMDAT text$x
text$x	SEGMENT
__unwindfunclet$??0ioTargetBuffSkill@@QAE@XZ$0:
  00000	8b 4d f0	 mov	 ecx, DWORD PTR _this$[ebp]
  00003	e9 00 00 00 00	 jmp	 ??1ioBuffSkill@@UAE@XZ	; ioBuffSkill::~ioBuffSkill
__unwindfunclet$??0ioTargetBuffSkill@@QAE@XZ$1:
  00008	8b 4d f0	 mov	 ecx, DWORD PTR _this$[ebp]
  0000b	81 c1 0c 10 00
	00		 add	 ecx, 4108		; 0000100cH
  00011	ff 25 00 00 00
	00		 jmp	 DWORD PTR __imp_??1ioHashString@@QAE@XZ
__unwindfunclet$??0ioTargetBuffSkill@@QAE@XZ$2:
  00017	8b 4d f0	 mov	 ecx, DWORD PTR _this$[ebp]
  0001a	81 c1 1c 10 00
	00		 add	 ecx, 4124		; 0000101cH
  00020	e9 00 00 00 00	 jmp	 ??1?$CEncrypt@M@@UAE@XZ	; CEncrypt<float>::~CEncrypt<float>
__unwindfunclet$??0ioTargetBuffSkill@@QAE@XZ$3:
  00025	8b 4d f0	 mov	 ecx, DWORD PTR _this$[ebp]
  00028	81 c1 54 10 00
	00		 add	 ecx, 4180		; 00001054H
  0002e	e9 00 00 00 00	 jmp	 ??1?$CEncrypt@M@@UAE@XZ	; CEncrypt<float>::~CEncrypt<float>
__unwindfunclet$??0ioTargetBuffSkill@@QAE@XZ$4:
  00033	8b 4d f0	 mov	 ecx, DWORD PTR _this$[ebp]
  00036	81 c1 84 10 00
	00		 add	 ecx, 4228		; 00001084H
  0003c	e9 00 00 00 00	 jmp	 ??1?$CEncrypt@M@@UAE@XZ	; CEncrypt<float>::~CEncrypt<float>
__unwindfunclet$??0ioTargetBuffSkill@@QAE@XZ$5:
  00041	8b 4d f0	 mov	 ecx, DWORD PTR _this$[ebp]
  00044	81 c1 b8 10 00
	00		 add	 ecx, 4280		; 000010b8H
  0004a	ff 25 00 00 00
	00		 jmp	 DWORD PTR __imp_??1ioHashString@@QAE@XZ
__unwindfunclet$??0ioTargetBuffSkill@@QAE@XZ$6:
  00050	8b 4d f0	 mov	 ecx, DWORD PTR _this$[ebp]
  00053	81 c1 cc 10 00
	00		 add	 ecx, 4300		; 000010ccH
  00059	ff 25 00 00 00
	00		 jmp	 DWORD PTR __imp_??1ioHashString@@QAE@XZ
__ehhandler$??0ioTargetBuffSkill@@QAE@XZ:
  0005f	8b 54 24 08	 mov	 edx, DWORD PTR [esp+8]
  00063	8d 42 0c	 lea	 eax, DWORD PTR [edx+12]
  00066	8b 4a ec	 mov	 ecx, DWORD PTR [edx-20]
  00069	33 c8		 xor	 ecx, eax
  0006b	e8 00 00 00 00	 call	 @__security_check_cookie@4
  00070	b8 00 00 00 00	 mov	 eax, OFFSET __ehfuncinfo$??0ioTargetBuffSkill@@QAE@XZ
  00075	e9 00 00 00 00	 jmp	 ___CxxFrameHandler3
text$x	ENDS
??0ioTargetBuffSkill@@QAE@XZ ENDP			; ioTargetBuffSkill::ioTargetBuffSkill
; Function compile flags: /Ogsp
;	COMDAT ??_GioTargetBuffSkill@@UAEPAXI@Z
_TEXT	SEGMENT
___flags$ = 8						; size = 4
??_GioTargetBuffSkill@@UAEPAXI@Z PROC			; ioTargetBuffSkill::`scalar deleting destructor', COMDAT
; _this$ = ecx
  00000	55		 push	 ebp
  00001	8b ec		 mov	 ebp, esp
  00003	56		 push	 esi
  00004	8b f1		 mov	 esi, ecx
  00006	e8 00 00 00 00	 call	 ??1ioTargetBuffSkill@@UAE@XZ ; ioTargetBuffSkill::~ioTargetBuffSkill
  0000b	f6 45 08 01	 test	 BYTE PTR ___flags$[ebp], 1
  0000f	74 07		 je	 SHORT $LN1@scalar@4
  00011	56		 push	 esi
  00012	e8 00 00 00 00	 call	 ??3@YAXPAX@Z		; operator delete
  00017	59		 pop	 ecx
$LN1@scalar@4:
  00018	8b c6		 mov	 eax, esi
  0001a	5e		 pop	 esi
  0001b	5d		 pop	 ebp
  0001c	c2 04 00	 ret	 4
??_GioTargetBuffSkill@@UAEPAXI@Z ENDP			; ioTargetBuffSkill::`scalar deleting destructor'
_TEXT	ENDS
PUBLIC	??_C@_00CNPNBAHC@?$AA@				; `string'
PUBLIC	__$ArrayPad$
EXTRN	__imp_??4ioHashString@@QAEAAV0@PBD@Z:PROC
EXTRN	?LoadProperty@ioBuffSkill@@UAEXAAVioINILoader@@@Z:PROC ; ioBuffSkill::LoadProperty
EXTRN	_memset:PROC
;	COMDAT ??_C@_00CNPNBAHC@?$AA@
; File d:\lost saga for developer\youtube\tutorial\source\src\lsclient\stringprotect.h
CONST	SEGMENT
??_C@_00CNPNBAHC@?$AA@ DB 00H				; `string'
; Function compile flags: /Ogsp
; File d:\lost saga for developer\youtube\tutorial\source\src\lsclient\iotargetbuffskill.cpp
CONST	ENDS
;	COMDAT ?LoadProperty@ioTargetBuffSkill@@UAEXAAVioINILoader@@@Z
_TEXT	SEGMENT
tv6522 = -292						; size = 4
_value$555602 = -292					; size = 4
_value$555472 = -292					; size = 4
_i$555107 = -292					; size = 4
_value$555217 = -292					; size = 4
_szBuf$ = -288						; size = 260
__k$555632 = -28					; size = 18
__k$555247 = -28					; size = 20
__k$555117 = -28					; size = 20
__k$554975 = -28					; size = 18
__k$555837 = -24					; size = 16
__k$555502 = -24					; size = 13
__k$555372 = -24					; size = 13
__$ArrayPad$ = -4					; size = 4
_rkLoader$ = 8						; size = 4
?LoadProperty@ioTargetBuffSkill@@UAEXAAVioINILoader@@@Z PROC ; ioTargetBuffSkill::LoadProperty, COMDAT
; _this$ = ecx

; 50   : {

  00000	55		 push	 ebp
  00001	8b ec		 mov	 ebp, esp
  00003	81 ec 24 01 00
	00		 sub	 esp, 292		; 00000124H
  00009	a1 00 00 00 00	 mov	 eax, DWORD PTR ___security_cookie
  0000e	33 c5		 xor	 eax, ebp
  00010	89 45 fc	 mov	 DWORD PTR __$ArrayPad$[ebp], eax
  00013	53		 push	 ebx
  00014	56		 push	 esi
  00015	57		 push	 edi
  00016	8b 7d 08	 mov	 edi, DWORD PTR _rkLoader$[ebp]

; 51   : 	ioBuffSkill::LoadProperty( rkLoader );

  00019	57		 push	 edi
  0001a	8b f1		 mov	 esi, ecx
  0001c	e8 00 00 00 00	 call	 ?LoadProperty@ioBuffSkill@@UAEXAAVioINILoader@@@Z ; ioBuffSkill::LoadProperty

; 52   : 
; 53   : 	char szBuf[MAX_PATH] = "";

  00021	33 db		 xor	 ebx, ebx
  00023	68 03 01 00 00	 push	 259			; 00000103H
  00028	8d 85 e1 fe ff
	ff		 lea	 eax, DWORD PTR _szBuf$[ebp+1]
  0002e	53		 push	 ebx
  0002f	50		 push	 eax
  00030	88 9d e0 fe ff
	ff		 mov	 BYTE PTR _szBuf$[ebp], bl
  00036	e8 00 00 00 00	 call	 _memset
  0003b	83 c4 0c	 add	 esp, 12			; 0000000cH

; 54   : 
; 55   : 	rkLoader.LoadString_e( "skill_loop_motion", "", szBuf, MAX_PATH );

  0003e	6a 04		 push	 4
  00040	c7 45 e4 9e 87
	82 86		 mov	 DWORD PTR __k$554975[ebp], -2038265954 ; 8682879eH
  00047	c7 45 e8 81 b3
	87 85		 mov	 DWORD PTR __k$554975[ebp+4], -2054704255 ; 8587b381H
  0004e	c7 45 ec 82 9c
	b4 87		 mov	 DWORD PTR __k$554975[ebp+8], -2018206590 ; 87b49c82H
  00055	c7 45 f0 82 98
	82 85		 mov	 DWORD PTR __k$554975[ebp+12], -2055038846 ; 85829882H
  0005c	8d 45 e4	 lea	 eax, DWORD PTR __k$554975[ebp]
  0005f	66 c7 45 f4 83
	00		 mov	 WORD PTR __k$554975[ebp+16], 131 ; 00000083H
  00065	59		 pop	 ecx
$LL106@LoadProper:
  00066	81 30 ed ec eb
	ea		 xor	 DWORD PTR [eax], -353637139 ; eaebecedH
  0006c	83 c0 04	 add	 eax, 4
  0006f	49		 dec	 ecx
  00070	75 f4		 jne	 SHORT $LL106@LoadProper
  00072	80 75 f4 ed	 xor	 BYTE PTR __k$554975[ebp+16], -19 ; ffffffedH
  00076	68 04 01 00 00	 push	 260			; 00000104H
  0007b	8d 85 e0 fe ff
	ff		 lea	 eax, DWORD PTR _szBuf$[ebp]
  00081	50		 push	 eax
  00082	68 00 00 00 00	 push	 OFFSET ??_C@_00CNPNBAHC@?$AA@
  00087	8d 45 e4	 lea	 eax, DWORD PTR __k$554975[ebp]
  0008a	50		 push	 eax
  0008b	8b cf		 mov	 ecx, edi
  0008d	ff 15 00 00 00
	00		 call	 DWORD PTR __imp_?LoadStringA@ioINILoader@@QAEXPBD0PADH@Z

; 56   : 	m_SkillLoopMotion = szBuf;

  00093	8d 85 e0 fe ff
	ff		 lea	 eax, DWORD PTR _szBuf$[ebp]
  00099	50		 push	 eax
  0009a	8d 8e 0c 10 00
	00		 lea	 ecx, DWORD PTR [esi+4108]
  000a0	ff 15 00 00 00
	00		 call	 DWORD PTR __imp_??4ioHashString@@QAEAAV0@PBD@Z

; 57   : 	m_fSkillLoopAniRate = rkLoader.LoadFloat_e( "skill_loop_ani_rate", FLOAT1 );

  000a6	b8 01 00 00 00	 mov	 eax, 1
  000ab	6a 04		 push	 4
  000ad	c7 45 e4 9e 87
	82 86		 mov	 DWORD PTR __k$555117[ebp], -2038265954 ; 8682879eH
  000b4	c7 45 e8 81 b3
	87 85		 mov	 DWORD PTR __k$555117[ebp+4], -2054704255 ; 8587b381H
  000bb	c7 45 ec 82 9c
	b4 8b		 mov	 DWORD PTR __k$555117[ebp+8], -1951097726 ; 8bb49c82H
  000c2	c7 45 f0 83 85
	b4 98		 mov	 DWORD PTR __k$555117[ebp+12], -1732999805 ; 98b48583H
  000c9	8d 4d e4	 lea	 ecx, DWORD PTR __k$555117[ebp]
  000cc	c7 45 f4 8c 98
	8e 00		 mov	 DWORD PTR __k$555117[ebp+16], 9345164 ; 008e988cH
  000d3	5a		 pop	 edx
$LL214@LoadProper:
  000d4	81 31 ed ec eb
	ea		 xor	 DWORD PTR [ecx], -353637139 ; eaebecedH
  000da	83 c1 04	 add	 ecx, 4
  000dd	4a		 dec	 edx
  000de	75 f4		 jne	 SHORT $LL214@LoadProper
  000e0	c7 85 dc fe ff
	ff 10 00 00 00	 mov	 DWORD PTR _i$555107[ebp], 16 ; 00000010H
$LL211@LoadProper:
  000ea	8b 8d dc fe ff
	ff		 mov	 ecx, DWORD PTR _i$555107[ebp]
  000f0	81 e1 03 00 00
	80		 and	 ecx, -2147483645	; 80000003H
  000f6	79 05		 jns	 SHORT $LN781@LoadProper
  000f8	49		 dec	 ecx
  000f9	83 c9 fc	 or	 ecx, -4			; fffffffcH
  000fc	41		 inc	 ecx
$LN781@LoadProper:
  000fd	b2 ed		 mov	 dl, -19			; ffffffedH
  000ff	2a d1		 sub	 dl, cl
  00101	8b 8d dc fe ff
	ff		 mov	 ecx, DWORD PTR _i$555107[ebp]
  00107	30 54 0d e4	 xor	 BYTE PTR __k$555117[ebp+ecx], dl
  0010b	ff 85 dc fe ff
	ff		 inc	 DWORD PTR _i$555107[ebp]
  00111	83 bd dc fe ff
	ff 13		 cmp	 DWORD PTR _i$555107[ebp], 19 ; 00000013H
  00118	7c d0		 jl	 SHORT $LL211@LoadProper
  0011a	89 85 dc fe ff
	ff		 mov	 DWORD PTR tv6522[ebp], eax
  00120	db 85 dc fe ff
	ff		 fild	 DWORD PTR tv6522[ebp]
  00126	85 c0		 test	 eax, eax
  00128	79 06		 jns	 SHORT $LN782@LoadProper
  0012a	d8 05 00 00 00
	00		 fadd	 DWORD PTR __real@4f800000
$LN782@LoadProper:
  00130	51		 push	 ecx
  00131	8d 45 e4	 lea	 eax, DWORD PTR __k$555117[ebp]
  00134	d9 1c 24	 fstp	 DWORD PTR [esp]
  00137	50		 push	 eax
  00138	8b cf		 mov	 ecx, edi
  0013a	ff 15 00 00 00
	00		 call	 DWORD PTR __imp_?LoadFloat@ioINILoader@@QAEMPBDM@Z
  00140	d9 9d dc fe ff
	ff		 fstp	 DWORD PTR _value$555217[ebp]
  00146	8d 85 dc fe ff
	ff		 lea	 eax, DWORD PTR _value$555217[ebp]
  0014c	50		 push	 eax
  0014d	8d 8e 1c 10 00
	00		 lea	 ecx, DWORD PTR [esi+4124]
  00153	e8 00 00 00 00	 call	 ?EncryptValueToPool@?$CEncrypt@M@@AAEXPBD@Z ; CEncrypt<float>::EncryptValueToPool
  00158	6a 04		 push	 4

; 58   : 	m_dwLoopDuration = rkLoader.LoadInt_e( "skill_loop_duration", 0 );

  0015a	c7 45 e4 9e 87
	82 86		 mov	 DWORD PTR __k$555247[ebp], -2038265954 ; 8682879eH
  00161	c7 45 e8 81 b3
	87 85		 mov	 DWORD PTR __k$555247[ebp+4], -2054704255 ; 8587b381H
  00168	c7 45 ec 82 9c
	b4 8e		 mov	 DWORD PTR __k$555247[ebp+8], -1900766078 ; 8eb49c82H
  0016f	c7 45 f0 98 9e
	8a 9e		 mov	 DWORD PTR __k$555247[ebp+12], -1635082600 ; 9e8a9e98H
  00176	8d 45 e4	 lea	 eax, DWORD PTR __k$555247[ebp]
  00179	c7 45 f4 84 83
	85 00		 mov	 DWORD PTR __k$555247[ebp+16], 8749956 ; 00858384H
  00180	59		 pop	 ecx
$LL322@LoadProper:
  00181	81 30 ed ec eb
	ea		 xor	 DWORD PTR [eax], -353637139 ; eaebecedH
  00187	83 c0 04	 add	 eax, 4
  0018a	49		 dec	 ecx
  0018b	75 f4		 jne	 SHORT $LL322@LoadProper
  0018d	6a 10		 push	 16			; 00000010H
  0018f	58		 pop	 eax
$LL319@LoadProper:
  00190	8b c8		 mov	 ecx, eax
  00192	81 e1 03 00 00
	80		 and	 ecx, -2147483645	; 80000003H
  00198	79 05		 jns	 SHORT $LN783@LoadProper
  0019a	49		 dec	 ecx
  0019b	83 c9 fc	 or	 ecx, -4			; fffffffcH
  0019e	41		 inc	 ecx
$LN783@LoadProper:
  0019f	b2 ed		 mov	 dl, -19			; ffffffedH
  001a1	2a d1		 sub	 dl, cl
  001a3	30 54 05 e4	 xor	 BYTE PTR __k$555247[ebp+eax], dl
  001a7	40		 inc	 eax
  001a8	83 f8 13	 cmp	 eax, 19			; 00000013H
  001ab	7c e3		 jl	 SHORT $LL319@LoadProper
  001ad	53		 push	 ebx
  001ae	8d 45 e4	 lea	 eax, DWORD PTR __k$555247[ebp]
  001b1	50		 push	 eax
  001b2	8b cf		 mov	 ecx, edi
  001b4	ff 15 00 00 00
	00		 call	 DWORD PTR __imp_?LoadInt@ioINILoader@@QAEHPBDH@Z
  001ba	6a 03		 push	 3
  001bc	89 86 50 10 00
	00		 mov	 DWORD PTR [esi+4176], eax

; 59   : 
; 60   : 	// Limit Angle
; 61   : 	m_fTargetAngle = rkLoader.LoadFloat_e( "target_angle", 0.0f );

  001c2	c7 45 e8 99 8d
	99 8d		 mov	 DWORD PTR __k$555372[ebp], -1919316583 ; 8d998d99H
  001c9	c7 45 ec 88 98
	b4 8b		 mov	 DWORD PTR __k$555372[ebp+4], -1951098744 ; 8bb49888H
  001d0	c7 45 f0 83 8b
	87 8f		 mov	 DWORD PTR __k$555372[ebp+8], -1886942333 ; 8f878b83H
  001d7	8d 45 e8	 lea	 eax, DWORD PTR __k$555372[ebp]
  001da	88 5d f4	 mov	 BYTE PTR __k$555372[ebp+12], bl
  001dd	59		 pop	 ecx
$LL428@LoadProper:
  001de	81 30 ed ec eb
	ea		 xor	 DWORD PTR [eax], -353637139 ; eaebecedH
  001e4	83 c0 04	 add	 eax, 4
  001e7	49		 dec	 ecx
  001e8	75 f4		 jne	 SHORT $LL428@LoadProper
  001ea	0f 57 c0	 xorps	 xmm0, xmm0
  001ed	51		 push	 ecx
  001ee	8d 45 e8	 lea	 eax, DWORD PTR __k$555372[ebp]
  001f1	f3 0f 11 04 24	 movss	 DWORD PTR [esp], xmm0
  001f6	50		 push	 eax
  001f7	8b cf		 mov	 ecx, edi
  001f9	ff 15 00 00 00
	00		 call	 DWORD PTR __imp_?LoadFloat@ioINILoader@@QAEMPBDM@Z
  001ff	d9 9d dc fe ff
	ff		 fstp	 DWORD PTR _value$555472[ebp]
  00205	8d 85 dc fe ff
	ff		 lea	 eax, DWORD PTR _value$555472[ebp]
  0020b	50		 push	 eax
  0020c	8d 8e 54 10 00
	00		 lea	 ecx, DWORD PTR [esi+4180]
  00212	e8 00 00 00 00	 call	 ?EncryptValueToPool@?$CEncrypt@M@@AAEXPBD@Z ; CEncrypt<float>::EncryptValueToPool
  00217	6a 03		 push	 3

; 62   : 	m_fTargetRange = rkLoader.LoadFloat_e( "target_range", 0.0f );

  00219	c7 45 e8 99 8d
	99 8d		 mov	 DWORD PTR __k$555502[ebp], -1919316583 ; 8d998d99H
  00220	c7 45 ec 88 98
	b4 98		 mov	 DWORD PTR __k$555502[ebp+4], -1732994936 ; 98b49888H
  00227	c7 45 f0 8c 82
	8c 8f		 mov	 DWORD PTR __k$555502[ebp+8], -1886616948 ; 8f8c828cH
  0022e	8d 45 e8	 lea	 eax, DWORD PTR __k$555502[ebp]
  00231	88 5d f4	 mov	 BYTE PTR __k$555502[ebp+12], bl
  00234	59		 pop	 ecx
$LL536@LoadProper:
  00235	81 30 ed ec eb
	ea		 xor	 DWORD PTR [eax], -353637139 ; eaebecedH
  0023b	83 c0 04	 add	 eax, 4
  0023e	49		 dec	 ecx
  0023f	75 f4		 jne	 SHORT $LL536@LoadProper
  00241	0f 57 c0	 xorps	 xmm0, xmm0
  00244	51		 push	 ecx
  00245	8d 45 e8	 lea	 eax, DWORD PTR __k$555502[ebp]
  00248	f3 0f 11 04 24	 movss	 DWORD PTR [esp], xmm0
  0024d	50		 push	 eax
  0024e	8b cf		 mov	 ecx, edi
  00250	ff 15 00 00 00
	00		 call	 DWORD PTR __imp_?LoadFloat@ioINILoader@@QAEMPBDM@Z
  00256	d9 9d dc fe ff
	ff		 fstp	 DWORD PTR _value$555602[ebp]
  0025c	8d 85 dc fe ff
	ff		 lea	 eax, DWORD PTR _value$555602[ebp]
  00262	50		 push	 eax
  00263	8d 8e 84 10 00
	00		 lea	 ecx, DWORD PTR [esi+4228]
  00269	e8 00 00 00 00	 call	 ?EncryptValueToPool@?$CEncrypt@M@@AAEXPBD@Z ; CEncrypt<float>::EncryptValueToPool
  0026e	6a 04		 push	 4

; 63   : 	
; 64   : 	m_TargetWoundType = (TargetWoundType)rkLoader.LoadInt_e( "target_wound_type", TWT_ALL );

  00270	c7 45 e4 99 8d
	99 8d		 mov	 DWORD PTR __k$555632[ebp], -1919316583 ; 8d998d99H
  00277	c7 45 e8 88 98
	b4 9d		 mov	 DWORD PTR __k$555632[ebp+4], -1649108856 ; 9db49888H
  0027e	c7 45 ec 82 99
	85 8e		 mov	 DWORD PTR __k$555632[ebp+8], -1903847038 ; 8e859982H
  00285	c7 45 f0 b2 98
	92 9a		 mov	 DWORD PTR __k$555632[ebp+12], -1701668686 ; 9a9298b2H
  0028c	8d 45 e4	 lea	 eax, DWORD PTR __k$555632[ebp]
  0028f	66 c7 45 f4 88
	00		 mov	 WORD PTR __k$555632[ebp+16], 136 ; 00000088H
  00295	59		 pop	 ecx
$LL644@LoadProper:
  00296	81 30 ed ec eb
	ea		 xor	 DWORD PTR [eax], -353637139 ; eaebecedH
  0029c	83 c0 04	 add	 eax, 4
  0029f	49		 dec	 ecx
  002a0	75 f4		 jne	 SHORT $LL644@LoadProper
  002a2	80 75 f4 ed	 xor	 BYTE PTR __k$555632[ebp+16], -19 ; ffffffedH
  002a6	6a 01		 push	 1
  002a8	8d 45 e4	 lea	 eax, DWORD PTR __k$555632[ebp]
  002ab	50		 push	 eax
  002ac	8b cf		 mov	 ecx, edi
  002ae	ff 15 00 00 00
	00		 call	 DWORD PTR __imp_?LoadInt@ioINILoader@@QAEHPBDH@Z
  002b4	6a 03		 push	 3
  002b6	89 86 b4 10 00
	00		 mov	 DWORD PTR [esi+4276], eax

; 65   : 
; 66   : 	rkLoader.LoadString_e( "aim_mark_effect","", szBuf, MAX_PATH );

  002bc	c7 45 e8 8c 85
	86 b5		 mov	 DWORD PTR __k$555837[ebp], -1249475188 ; b586858cH
  002c3	c7 45 ec 80 8d
	99 81		 mov	 DWORD PTR __k$555837[ebp+4], -2120643200 ; 81998d80H
  002ca	c7 45 f0 b2 89
	8d 8c		 mov	 DWORD PTR __k$555837[ebp+8], -1936881230 ; 8c8d89b2H
  002d1	8d 45 e8	 lea	 eax, DWORD PTR __k$555837[ebp]
  002d4	c7 45 f4 88 8f
	9f 00		 mov	 DWORD PTR __k$555837[ebp+12], 10456968 ; 009f8f88H
  002db	59		 pop	 ecx
$LL750@LoadProper:
  002dc	81 30 ed ec eb
	ea		 xor	 DWORD PTR [eax], -353637139 ; eaebecedH
  002e2	83 c0 04	 add	 eax, 4
  002e5	49		 dec	 ecx
  002e6	75 f4		 jne	 SHORT $LL750@LoadProper
  002e8	6a 0c		 push	 12			; 0000000cH
  002ea	58		 pop	 eax
$LL747@LoadProper:
  002eb	8b c8		 mov	 ecx, eax
  002ed	81 e1 03 00 00
	80		 and	 ecx, -2147483645	; 80000003H
  002f3	79 05		 jns	 SHORT $LN784@LoadProper
  002f5	49		 dec	 ecx
  002f6	83 c9 fc	 or	 ecx, -4			; fffffffcH
  002f9	41		 inc	 ecx
$LN784@LoadProper:
  002fa	b2 ed		 mov	 dl, -19			; ffffffedH
  002fc	2a d1		 sub	 dl, cl
  002fe	30 54 05 e8	 xor	 BYTE PTR __k$555837[ebp+eax], dl
  00302	40		 inc	 eax
  00303	83 f8 0f	 cmp	 eax, 15			; 0000000fH
  00306	7c e3		 jl	 SHORT $LL747@LoadProper
  00308	68 04 01 00 00	 push	 260			; 00000104H
  0030d	8d 85 e0 fe ff
	ff		 lea	 eax, DWORD PTR _szBuf$[ebp]
  00313	50		 push	 eax
  00314	68 00 00 00 00	 push	 OFFSET ??_C@_00CNPNBAHC@?$AA@
  00319	8d 45 e8	 lea	 eax, DWORD PTR __k$555837[ebp]
  0031c	50		 push	 eax
  0031d	8b cf		 mov	 ecx, edi
  0031f	ff 15 00 00 00
	00		 call	 DWORD PTR __imp_?LoadStringA@ioINILoader@@QAEXPBD0PADH@Z

; 67   : 	m_szAimMark = szBuf;

  00325	8d 85 e0 fe ff
	ff		 lea	 eax, DWORD PTR _szBuf$[ebp]
  0032b	50		 push	 eax
  0032c	8d 8e b8 10 00
	00		 lea	 ecx, DWORD PTR [esi+4280]
  00332	ff 15 00 00 00
	00		 call	 DWORD PTR __imp_??4ioHashString@@QAEAAV0@PBD@Z

; 68   : }

  00338	8b 4d fc	 mov	 ecx, DWORD PTR __$ArrayPad$[ebp]
  0033b	5f		 pop	 edi
  0033c	5e		 pop	 esi
  0033d	33 cd		 xor	 ecx, ebp
  0033f	5b		 pop	 ebx
  00340	e8 00 00 00 00	 call	 @__security_check_cookie@4
  00345	c9		 leave
  00346	c2 04 00	 ret	 4
?LoadProperty@ioTargetBuffSkill@@UAEXAAVioINILoader@@@Z ENDP ; ioTargetBuffSkill::LoadProperty
_TEXT	ENDS
PUBLIC	?SetLoopState@ioTargetBuffSkill@@IAEXPAVioBaseChar@@PAVioPlayStage@@@Z ; ioTargetBuffSkill::SetLoopState
EXTRN	__imp_?SetLoopAni@ioEntityGroup@@QAE_NABVioHashString@@MMMM@Z:PROC
EXTRN	__imp_?ClearAllLoopAni@ioEntityGroup@@QAEXM_N@Z:PROC
EXTRN	__imp_?ClearAllActionAni@ioEntityGroup@@QAEXM_N@Z:PROC
; Function compile flags: /Ogsp
;	COMDAT ?SetLoopState@ioTargetBuffSkill@@IAEXPAVioBaseChar@@PAVioPlayStage@@@Z
_TEXT	SEGMENT
tv162 = -4						; size = 4
tv175 = 8						; size = 4
tv170 = 8						; size = 4
tv149 = 8						; size = 4
tv147 = 8						; size = 4
tv145 = 8						; size = 4
_value$555908 = 8					; size = 4
_pChar$ = 8						; size = 4
_pStage$ = 12						; size = 4
?SetLoopState@ioTargetBuffSkill@@IAEXPAVioBaseChar@@PAVioPlayStage@@@Z PROC ; ioTargetBuffSkill::SetLoopState, COMDAT
; _this$ = ecx

; 242  : {

  00000	55		 push	 ebp
  00001	8b ec		 mov	 ebp, esp
  00003	51		 push	 ecx

; 243  : 	if( !pChar ) return;

  00004	8b 45 08	 mov	 eax, DWORD PTR _pChar$[ebp]
  00007	56		 push	 esi
  00008	8b f1		 mov	 esi, ecx
  0000a	85 c0		 test	 eax, eax
  0000c	0f 84 f4 00 00
	00		 je	 $LN3@SetLoopSta

; 244  : 	ioEntityGroup *pGrp = pChar->GetGroup();

  00012	57		 push	 edi
  00013	8b 78 04	 mov	 edi, DWORD PTR [eax+4]

; 245  : 	if( !pGrp ) return;

  00016	85 ff		 test	 edi, edi
  00018	0f 84 e7 00 00
	00		 je	 $LN19@SetLoopSta

; 246  : 
; 247  : 	DWORD dwCurTime = FRAMEGETTIME();

  0001e	53		 push	 ebx
  0001f	ff 15 00 00 00
	00		 call	 DWORD PTR __imp_?GetSingleton@ioFrameTimer@@SAAAV1@XZ
  00025	8b c8		 mov	 ecx, eax
  00027	ff 15 00 00 00
	00		 call	 DWORD PTR __imp_?GetLoopSec@ioFrameTimer@@QBEKXZ

; 248  : 	m_dwLoopStartTime = dwCurTime;

  0002d	89 86 4c 10 00
	00		 mov	 DWORD PTR [esi+4172], eax

; 249  : 
; 250  : 	m_SkillState = SS_LOOP;

  00033	c7 86 08 10 00
	00 01 00 00 00	 mov	 DWORD PTR [esi+4104], 1

; 251  : 
; 252  : 	pGrp->ClearAllActionAni( FLOAT100 );

  0003d	b8 64 00 00 00	 mov	 eax, 100		; 00000064H
  00042	89 45 08	 mov	 DWORD PTR tv175[ebp], eax
  00045	db 45 08	 fild	 DWORD PTR tv175[ebp]
  00048	6a 00		 push	 0
  0004a	85 c0		 test	 eax, eax
  0004c	79 06		 jns	 SHORT $LN20@SetLoopSta
  0004e	d8 05 00 00 00
	00		 fadd	 DWORD PTR __real@4f800000
$LN20@SetLoopSta:
  00054	51		 push	 ecx
  00055	8b cf		 mov	 ecx, edi
  00057	d9 1c 24	 fstp	 DWORD PTR [esp]
  0005a	ff 15 00 00 00
	00		 call	 DWORD PTR __imp_?ClearAllActionAni@ioEntityGroup@@QAEXM_N@Z

; 253  : 	pGrp->ClearAllLoopAni( FLOAT100 );

  00060	b8 64 00 00 00	 mov	 eax, 100		; 00000064H
  00065	89 45 08	 mov	 DWORD PTR tv170[ebp], eax
  00068	db 45 08	 fild	 DWORD PTR tv170[ebp]
  0006b	6a 00		 push	 0
  0006d	85 c0		 test	 eax, eax
  0006f	79 06		 jns	 SHORT $LN21@SetLoopSta
  00071	d8 05 00 00 00
	00		 fadd	 DWORD PTR __real@4f800000
$LN21@SetLoopSta:
  00077	51		 push	 ecx
  00078	8b cf		 mov	 ecx, edi
  0007a	d9 1c 24	 fstp	 DWORD PTR [esp]
  0007d	ff 15 00 00 00
	00		 call	 DWORD PTR __imp_?ClearAllLoopAni@ioEntityGroup@@QAEXM_N@Z

; 254  : 
; 255  : 	pGrp->SetLoopAni( m_SkillLoopMotion, FLOAT100, FLOAT1, FLOAT1/m_fSkillLoopAniRate );

  00083	b8 01 00 00 00	 mov	 eax, 1
  00088	8b d8		 mov	 ebx, eax
  0008a	8d 45 08	 lea	 eax, DWORD PTR _value$555908[ebp]
  0008d	50		 push	 eax
  0008e	8d 8e 1c 10 00
	00		 lea	 ecx, DWORD PTR [esi+4124]
  00094	e8 00 00 00 00	 call	 ?DecryptValueToPool@?$CEncrypt@M@@QAEXPAM@Z ; CEncrypt<float>::DecryptValueToPool
  00099	b8 01 00 00 00	 mov	 eax, 1
  0009e	8b c8		 mov	 ecx, eax
  000a0	b8 64 00 00 00	 mov	 eax, 100		; 00000064H
  000a5	0f 57 c0	 xorps	 xmm0, xmm0
  000a8	83 ec 10	 sub	 esp, 16			; 00000010H
  000ab	89 5d fc	 mov	 DWORD PTR tv162[ebp], ebx
  000ae	db 45 fc	 fild	 DWORD PTR tv162[ebp]
  000b1	f3 0f 11 44 24
	0c		 movss	 DWORD PTR [esp+12], xmm0
  000b7	85 db		 test	 ebx, ebx
  000b9	79 06		 jns	 SHORT $LN22@SetLoopSta
  000bb	d8 05 00 00 00
	00		 fadd	 DWORD PTR __real@4f800000
$LN22@SetLoopSta:
  000c1	d8 75 08	 fdiv	 DWORD PTR _value$555908[ebp]
  000c4	d9 5d 08	 fstp	 DWORD PTR tv149[ebp]
  000c7	d9 45 08	 fld	 DWORD PTR tv149[ebp]
  000ca	d9 5c 24 08	 fstp	 DWORD PTR [esp+8]
  000ce	89 4d 08	 mov	 DWORD PTR tv147[ebp], ecx
  000d1	db 45 08	 fild	 DWORD PTR tv147[ebp]
  000d4	85 c9		 test	 ecx, ecx
  000d6	79 06		 jns	 SHORT $LN23@SetLoopSta
  000d8	d8 05 00 00 00
	00		 fadd	 DWORD PTR __real@4f800000
$LN23@SetLoopSta:
  000de	d9 5c 24 04	 fstp	 DWORD PTR [esp+4]
  000e2	89 45 08	 mov	 DWORD PTR tv145[ebp], eax
  000e5	db 45 08	 fild	 DWORD PTR tv145[ebp]
  000e8	85 c0		 test	 eax, eax
  000ea	79 06		 jns	 SHORT $LN24@SetLoopSta
  000ec	d8 05 00 00 00
	00		 fadd	 DWORD PTR __real@4f800000
$LN24@SetLoopSta:
  000f2	81 c6 0c 10 00
	00		 add	 esi, 4108		; 0000100cH
  000f8	d9 1c 24	 fstp	 DWORD PTR [esp]
  000fb	56		 push	 esi
  000fc	8b cf		 mov	 ecx, edi
  000fe	ff 15 00 00 00
	00		 call	 DWORD PTR __imp_?SetLoopAni@ioEntityGroup@@QAE_NABVioHashString@@MMMM@Z
  00104	5b		 pop	 ebx
$LN19@SetLoopSta:
  00105	5f		 pop	 edi
$LN3@SetLoopSta:
  00106	5e		 pop	 esi

; 256  : }

  00107	c9		 leave
  00108	c2 08 00	 ret	 8
?SetLoopState@ioTargetBuffSkill@@IAEXPAVioBaseChar@@PAVioPlayStage@@@Z ENDP ; ioTargetBuffSkill::SetLoopState
_TEXT	ENDS
PUBLIC	_pChar$GSCopy$
PUBLIC	__$ArrayPad$
PUBLIC	?SetFireState@ioTargetBuffSkill@@IAEXPAVioBaseChar@@@Z ; ioTargetBuffSkill::SetFireState
EXTRN	??1SP2Packet@@UAE@XZ:PROC			; SP2Packet::~SP2Packet
EXTRN	?SendToAllPlayingUser@P2PNetwork@@YAXAAVSP2Packet@@PAVioBaseChar@@@Z:PROC ; P2PNetwork::SendToAllPlayingUser
EXTRN	??6SP2Packet@@QAEAAV0@ABVioHashString@@@Z:PROC	; SP2Packet::operator<<
EXTRN	??0SP2Packet@@QAE@K@Z:PROC			; SP2Packet::SP2Packet
EXTRN	__imp_?GetAnimationFullTime@ioEntityGroup@@QAEMH@Z:PROC
EXTRN	__imp_?SetActionAni@ioEntityGroup@@QAE_NHMMMMMM_N0@Z:PROC
EXTRN	__imp_?GetAnimationIdx@ioEntityGroup@@QAEHABVioHashString@@@Z:PROC
EXTRN	__chkstk:PROC
EXTRN	__ftol2:PROC
;	COMDAT xdata$x
; File d:\lost saga for developer\youtube\tutorial\source\src\lsclient\ioskill.h
xdata$x	SEGMENT
__unwindtable$?SetFireState@ioTargetBuffSkill@@IAEXPAVioBaseChar@@@Z DD 0ffffffffH
	DD	FLAT:__unwindfunclet$?SetFireState@ioTargetBuffSkill@@IAEXPAVioBaseChar@@@Z$1
	DD	0ffffffffH
	DD	FLAT:__unwindfunclet$?SetFireState@ioTargetBuffSkill@@IAEXPAVioBaseChar@@@Z$2
	DD	0ffffffffH
	DD	FLAT:__unwindfunclet$?SetFireState@ioTargetBuffSkill@@IAEXPAVioBaseChar@@@Z$0
__ehfuncinfo$?SetFireState@ioTargetBuffSkill@@IAEXPAVioBaseChar@@@Z DD 019930522H
	DD	03H
	DD	FLAT:__unwindtable$?SetFireState@ioTargetBuffSkill@@IAEXPAVioBaseChar@@@Z
	DD	2 DUP(00H)
	DD	2 DUP(00H)
	DD	00H
	DD	01H
; Function compile flags: /Ogsp
; File d:\lost saga for developer\youtube\tutorial\source\src\lsclient\iotargetbuffskill.cpp
xdata$x	ENDS
;	COMDAT ?SetFireState@ioTargetBuffSkill@@IAEXPAVioBaseChar@@@Z
_TEXT	SEGMENT
$T556106 = -32868					; size = 16
$T556074 = -32868					; size = 16
_pChar$GSCopy$ = -32852					; size = 4
tv2044 = -32848						; size = 4
$T555951 = -32848					; size = 4
tv2046 = -32844						; size = 4
$T555947 = -32844					; size = 4
_iAniId$ = -32840					; size = 4
tv2026 = -32836						; size = 4
$T556105 = -32836					; size = 4
$T556073 = -32836					; size = 4
_dwCurTime$ = -32836					; size = 4
tv2054 = -32832						; size = 4
tv2048 = -32832						; size = 4
tv1992 = -32832						; size = 4
tv1758 = -32832						; size = 4
_kPacket$550438 = -32828				; size = 32792
_szEncEventType$556119 = -36				; size = 13
_szEncEventType$555974 = -32				; size = 7
tv182 = -28						; size = 8
tv2067 = -24						; size = 4
tv2062 = -24						; size = 4
tv2042 = -24						; size = 4
$T555955 = -24						; size = 4
__$ArrayPad$ = -16					; size = 4
__$EHRec$ = -12						; size = 12
_pChar$ = 8						; size = 4
?SetFireState@ioTargetBuffSkill@@IAEXPAVioBaseChar@@@Z PROC ; ioTargetBuffSkill::SetFireState, COMDAT
; _this$ = ecx

; 259  : {

  00000	55		 push	 ebp
  00001	8b ec		 mov	 ebp, esp
  00003	6a ff		 push	 -1
  00005	68 00 00 00 00	 push	 __ehhandler$?SetFireState@ioTargetBuffSkill@@IAEXPAVioBaseChar@@@Z
  0000a	64 a1 00 00 00
	00		 mov	 eax, DWORD PTR fs:0
  00010	50		 push	 eax
  00011	b8 58 80 00 00	 mov	 eax, 32856		; 00008058H
  00016	e8 00 00 00 00	 call	 __chkstk
  0001b	a1 00 00 00 00	 mov	 eax, DWORD PTR ___security_cookie
  00020	33 c5		 xor	 eax, ebp
  00022	89 45 f0	 mov	 DWORD PTR __$ArrayPad$[ebp], eax
  00025	53		 push	 ebx
  00026	56		 push	 esi
  00027	57		 push	 edi
  00028	50		 push	 eax
  00029	8d 45 f4	 lea	 eax, DWORD PTR __$EHRec$[ebp]
  0002c	64 a3 00 00 00
	00		 mov	 DWORD PTR fs:0, eax
  00032	8b 7d 08	 mov	 edi, DWORD PTR _pChar$[ebp]

; 260  : 	//    
; 261  : 	if( !pChar ) return;

  00035	33 db		 xor	 ebx, ebx
  00037	8b f1		 mov	 esi, ecx

; 286  : 	{
; 287  : 		SP2Packet kPacket( CUPK_SKILL_EXTRA_INFO );

  00039	89 bd ac 7f ff
	ff		 mov	 DWORD PTR _pChar$GSCopy$[ebp], edi
  0003f	3b fb		 cmp	 edi, ebx
  00041	0f 84 4b 03 00
	00		 je	 $LN1@SetFireSta

; 262  : 
; 263  : 	DestroyAimMark( pChar );

  00047	57		 push	 edi
  00048	e8 00 00 00 00	 call	 ?DestroyAimMark@ioTargetBuffSkill@@IAEXPAVioBaseChar@@@Z ; ioTargetBuffSkill::DestroyAimMark

; 264  : 
; 265  : 	m_SkillState = SS_FIRE;

  0004d	c7 86 08 10 00
	00 02 00 00 00	 mov	 DWORD PTR [esi+4104], 2

; 266  : 		
; 267  : 	ioEntityGroup *pGrp = pChar->GetGroup();

  00057	8b 7f 04	 mov	 edi, DWORD PTR [edi+4]

; 268  : 	if( !pGrp ) return;

  0005a	3b fb		 cmp	 edi, ebx
  0005c	0f 84 30 03 00
	00		 je	 $LN1@SetFireSta

; 269  : 
; 270  : 	int iAniId = pGrp->GetAnimationIdx( GetSkillMotionName() );

  00062	8b 06		 mov	 eax, DWORD PTR [esi]
  00064	8b ce		 mov	 ecx, esi
  00066	ff 90 20 01 00
	00		 call	 DWORD PTR [eax+288]
  0006c	50		 push	 eax
  0006d	8b cf		 mov	 ecx, edi
  0006f	ff 15 00 00 00
	00		 call	 DWORD PTR __imp_?GetAnimationIdx@ioEntityGroup@@QAEHABVioHashString@@@Z
  00075	89 85 b8 7f ff
	ff		 mov	 DWORD PTR _iAniId$[ebp], eax

; 271  : 	if( iAniId == -1 )

  0007b	83 f8 ff	 cmp	 eax, -1
  0007e	0f 84 0e 03 00
	00		 je	 $LN1@SetFireSta

; 272  : 		return;
; 273  : 
; 274  : 	DWORD dwCurTime = FRAMEGETTIME();

  00084	ff 15 00 00 00
	00		 call	 DWORD PTR __imp_?GetSingleton@ioFrameTimer@@SAAAV1@XZ
  0008a	8b c8		 mov	 ecx, eax
  0008c	ff 15 00 00 00
	00		 call	 DWORD PTR __imp_?GetLoopSec@ioFrameTimer@@QBEKXZ
  00092	89 85 bc 7f ff
	ff		 mov	 DWORD PTR _dwCurTime$[ebp], eax

; 275  : 
; 276  : 	pGrp->ClearAllActionAni( FLOAT100 );

  00098	b8 64 00 00 00	 mov	 eax, 100		; 00000064H
  0009d	89 45 e8	 mov	 DWORD PTR tv2067[ebp], eax
  000a0	db 45 e8	 fild	 DWORD PTR tv2067[ebp]
  000a3	53		 push	 ebx
  000a4	85 c0		 test	 eax, eax
  000a6	79 06		 jns	 SHORT $LN249@SetFireSta
  000a8	d8 05 00 00 00
	00		 fadd	 DWORD PTR __real@4f800000
$LN249@SetFireSta:
  000ae	51		 push	 ecx
  000af	8b cf		 mov	 ecx, edi
  000b1	d9 1c 24	 fstp	 DWORD PTR [esp]
  000b4	ff 15 00 00 00
	00		 call	 DWORD PTR __imp_?ClearAllActionAni@ioEntityGroup@@QAEXM_N@Z

; 277  : 	pGrp->ClearAllLoopAni( FLOAT100 );

  000ba	b8 64 00 00 00	 mov	 eax, 100		; 00000064H
  000bf	89 45 e8	 mov	 DWORD PTR tv2062[ebp], eax
  000c2	db 45 e8	 fild	 DWORD PTR tv2062[ebp]
  000c5	53		 push	 ebx
  000c6	85 c0		 test	 eax, eax
  000c8	79 06		 jns	 SHORT $LN250@SetFireSta
  000ca	d8 05 00 00 00
	00		 fadd	 DWORD PTR __real@4f800000
$LN250@SetFireSta:
  000d0	51		 push	 ecx
  000d1	8b cf		 mov	 ecx, edi
  000d3	d9 1c 24	 fstp	 DWORD PTR [esp]
  000d6	ff 15 00 00 00
	00		 call	 DWORD PTR __imp_?ClearAllLoopAni@ioEntityGroup@@QAEXM_N@Z

; 278  : 
; 279  : 	pGrp->SetActionAni( iAniId, FLOAT100, FLOAT100, FLOAT1, FLOAT1 / GetSkillMotionRate() );

  000dc	b8 01 00 00 00	 mov	 eax, 1
  000e1	8b c8		 mov	 ecx, eax
  000e3	b8 01 00 00 00	 mov	 eax, 1
  000e8	89 85 b4 7f ff
	ff		 mov	 DWORD PTR $T555947[ebp], eax
  000ee	b8 64 00 00 00	 mov	 eax, 100		; 00000064H
  000f3	89 85 b0 7f ff
	ff		 mov	 DWORD PTR $T555951[ebp], eax
  000f9	b8 64 00 00 00	 mov	 eax, 100		; 00000064H
  000fe	0f 57 c0	 xorps	 xmm0, xmm0
  00101	6a 01		 push	 1
  00103	53		 push	 ebx
  00104	51		 push	 ecx
  00105	51		 push	 ecx
  00106	89 8d c0 7f ff
	ff		 mov	 DWORD PTR tv2054[ebp], ecx
  0010c	db 85 c0 7f ff
	ff		 fild	 DWORD PTR tv2054[ebp]
  00112	f3 0f 11 44 24
	04		 movss	 DWORD PTR [esp+4], xmm0
  00118	89 45 e8	 mov	 DWORD PTR $T555955[ebp], eax
  0011b	f3 0f 11 04 24	 movss	 DWORD PTR [esp], xmm0
  00120	85 c9		 test	 ecx, ecx
  00122	79 06		 jns	 SHORT $LN251@SetFireSta
  00124	d8 05 00 00 00
	00		 fadd	 DWORD PTR __real@4f800000
$LN251@SetFireSta:
  0012a	8b 06		 mov	 eax, DWORD PTR [esi]
  0012c	d9 9d c0 7f ff
	ff		 fstp	 DWORD PTR tv1992[ebp]
  00132	8b ce		 mov	 ecx, esi
  00134	ff 90 28 01 00
	00		 call	 DWORD PTR [eax+296]
  0013a	d8 bd c0 7f ff
	ff		 fdivr	 DWORD PTR tv1992[ebp]
  00140	8b 85 b4 7f ff
	ff		 mov	 eax, DWORD PTR $T555947[ebp]
  00146	83 ec 10	 sub	 esp, 16			; 00000010H
  00149	d9 9d c0 7f ff
	ff		 fstp	 DWORD PTR tv2048[ebp]
  0014f	d9 85 c0 7f ff
	ff		 fld	 DWORD PTR tv2048[ebp]
  00155	d9 5c 24 0c	 fstp	 DWORD PTR [esp+12]
  00159	db 85 b4 7f ff
	ff		 fild	 DWORD PTR $T555947[ebp]
  0015f	85 c0		 test	 eax, eax
  00161	79 06		 jns	 SHORT $LN252@SetFireSta
  00163	d8 05 00 00 00
	00		 fadd	 DWORD PTR __real@4f800000
$LN252@SetFireSta:
  00169	8b 85 b0 7f ff
	ff		 mov	 eax, DWORD PTR $T555951[ebp]
  0016f	d9 5c 24 08	 fstp	 DWORD PTR [esp+8]
  00173	db 85 b0 7f ff
	ff		 fild	 DWORD PTR $T555951[ebp]
  00179	85 c0		 test	 eax, eax
  0017b	79 06		 jns	 SHORT $LN253@SetFireSta
  0017d	d8 05 00 00 00
	00		 fadd	 DWORD PTR __real@4f800000
$LN253@SetFireSta:
  00183	8b 45 e8	 mov	 eax, DWORD PTR $T555955[ebp]
  00186	d9 5c 24 04	 fstp	 DWORD PTR [esp+4]
  0018a	db 45 e8	 fild	 DWORD PTR $T555955[ebp]
  0018d	85 c0		 test	 eax, eax
  0018f	79 06		 jns	 SHORT $LN254@SetFireSta
  00191	d8 05 00 00 00
	00		 fadd	 DWORD PTR __real@4f800000
$LN254@SetFireSta:
  00197	d9 1c 24	 fstp	 DWORD PTR [esp]
  0019a	ff b5 b8 7f ff
	ff		 push	 DWORD PTR _iAniId$[ebp]
  001a0	8b cf		 mov	 ecx, edi
  001a2	ff 15 00 00 00
	00		 call	 DWORD PTR __imp_?SetActionAni@ioEntityGroup@@QAE_NHMMMMMM_N0@Z

; 280  : 
; 281  : 	m_dwMotionEndTime = dwCurTime + pGrp->GetAnimationFullTime( iAniId ) * GetSkillMotionRate();

  001a8	ff b5 b8 7f ff
	ff		 push	 DWORD PTR _iAniId$[ebp]
  001ae	8b cf		 mov	 ecx, edi
  001b0	ff 15 00 00 00
	00		 call	 DWORD PTR __imp_?GetAnimationFullTime@ioEntityGroup@@QAEMH@Z
  001b6	dd 5d e4	 fstp	 QWORD PTR tv182[ebp]
  001b9	8b 85 bc 7f ff
	ff		 mov	 eax, DWORD PTR _dwCurTime$[ebp]
  001bf	db 85 bc 7f ff
	ff		 fild	 DWORD PTR _dwCurTime$[ebp]
  001c5	85 c0		 test	 eax, eax
  001c7	79 06		 jns	 SHORT $LN255@SetFireSta
  001c9	d8 05 00 00 00
	00		 fadd	 DWORD PTR __real@4f800000
$LN255@SetFireSta:
  001cf	8b 06		 mov	 eax, DWORD PTR [esi]
  001d1	d9 9d c0 7f ff
	ff		 fstp	 DWORD PTR tv1758[ebp]
  001d7	8b ce		 mov	 ecx, esi
  001d9	ff 90 28 01 00
	00		 call	 DWORD PTR [eax+296]
  001df	dc 4d e4	 fmul	 QWORD PTR tv182[ebp]
  001e2	d8 85 c0 7f ff
	ff		 fadd	 DWORD PTR tv1758[ebp]
  001e8	e8 00 00 00 00	 call	 __ftol2

; 282  : 	m_dwFireStartTime = dwCurTime + pGrp->GetAnimationEventTime_e( iAniId, "fire_s" ) * GetSkillMotionRate();

  001ed	6a 04		 push	 4
  001ef	89 86 d8 02 00
	00		 mov	 DWORD PTR [esi+728], eax
  001f5	c7 45 e0 8b 85
	99 8f		 mov	 DWORD PTR _szEncEventType$555974[ebp], -1885764213 ; 8f99858bH
  001fc	81 75 e0 ed ec
	eb ea		 xor	 DWORD PTR _szEncEventType$555974[ebp], -353637139 ; eaebecedH
  00203	66 c7 45 e4 b2
	9f		 mov	 WORD PTR _szEncEventType$555974[ebp+4], 40882 ; 00009fb2H
  00209	88 5d e6	 mov	 BYTE PTR _szEncEventType$555974[ebp+6], bl
  0020c	58		 pop	 eax
$LL123@SetFireSta:
  0020d	8b c8		 mov	 ecx, eax
  0020f	81 e1 03 00 00
	80		 and	 ecx, -2147483645	; 80000003H
  00215	79 05		 jns	 SHORT $LN256@SetFireSta
  00217	49		 dec	 ecx
  00218	83 c9 fc	 or	 ecx, -4			; fffffffcH
  0021b	41		 inc	 ecx
$LN256@SetFireSta:
  0021c	b2 ed		 mov	 dl, -19			; ffffffedH
  0021e	2a d1		 sub	 dl, cl
  00220	30 54 05 e0	 xor	 BYTE PTR _szEncEventType$555974[ebp+eax], dl
  00224	40		 inc	 eax
  00225	83 f8 06	 cmp	 eax, 6
  00228	7c e3		 jl	 SHORT $LL123@SetFireSta
  0022a	8d 45 e0	 lea	 eax, DWORD PTR _szEncEventType$555974[ebp]
  0022d	50		 push	 eax
  0022e	8d 8d 9c 7f ff
	ff		 lea	 ecx, DWORD PTR $T556074[ebp]
  00234	ff 15 00 00 00
	00		 call	 DWORD PTR __imp_??0ioHashString@@QAE@PBD@Z
  0023a	8d 85 9c 7f ff
	ff		 lea	 eax, DWORD PTR $T556074[ebp]
  00240	50		 push	 eax
  00241	ff b5 b8 7f ff
	ff		 push	 DWORD PTR _iAniId$[ebp]
  00247	8b cf		 mov	 ecx, edi
  00249	89 5d fc	 mov	 DWORD PTR __$EHRec$[ebp+8], ebx
  0024c	ff 15 00 00 00
	00		 call	 DWORD PTR __imp_?GetAnimationEventTime@ioEntityGroup@@QAEMHABVioHashString@@@Z
  00252	d9 9d bc 7f ff
	ff		 fstp	 DWORD PTR $T556073[ebp]
  00258	83 4d fc ff	 or	 DWORD PTR __$EHRec$[ebp+8], -1
  0025c	8d 8d 9c 7f ff
	ff		 lea	 ecx, DWORD PTR $T556074[ebp]
  00262	ff 15 00 00 00
	00		 call	 DWORD PTR __imp_??1ioHashString@@QAE@XZ
  00268	8b 06		 mov	 eax, DWORD PTR [esi]
  0026a	8b ce		 mov	 ecx, esi
  0026c	ff 90 28 01 00
	00		 call	 DWORD PTR [eax+296]
  00272	d8 8d bc 7f ff
	ff		 fmul	 DWORD PTR $T556073[ebp]
  00278	d8 85 c0 7f ff
	ff		 fadd	 DWORD PTR tv1758[ebp]
  0027e	e8 00 00 00 00	 call	 __ftol2
  00283	6a 03		 push	 3
  00285	89 86 e0 10 00
	00		 mov	 DWORD PTR [esi+4320], eax

; 283  : 	m_dwFireMotionEndTime = dwCurTime + pGrp->GetAnimationEventTime_e( iAniId, "firemotion_e" ) * GetSkillMotionRate();

  0028b	c7 45 dc 8b 85
	99 8f		 mov	 DWORD PTR _szEncEventType$556119[ebp], -1885764213 ; 8f99858bH
  00292	c7 45 e0 80 83
	9f 83		 mov	 DWORD PTR _szEncEventType$556119[ebp+4], -2086698112 ; 839f8380H
  00299	c7 45 e4 82 82
	b4 8f		 mov	 DWORD PTR _szEncEventType$556119[ebp+8], -1883995518 ; 8fb48282H
  002a0	8d 45 dc	 lea	 eax, DWORD PTR _szEncEventType$556119[ebp]
  002a3	88 5d e8	 mov	 BYTE PTR _szEncEventType$556119[ebp+12], bl
  002a6	59		 pop	 ecx
$LL233@SetFireSta:
  002a7	81 30 ed ec eb
	ea		 xor	 DWORD PTR [eax], -353637139 ; eaebecedH
  002ad	83 c0 04	 add	 eax, 4
  002b0	49		 dec	 ecx
  002b1	75 f4		 jne	 SHORT $LL233@SetFireSta
  002b3	8d 45 dc	 lea	 eax, DWORD PTR _szEncEventType$556119[ebp]
  002b6	50		 push	 eax
  002b7	8d 8d 9c 7f ff
	ff		 lea	 ecx, DWORD PTR $T556106[ebp]
  002bd	ff 15 00 00 00
	00		 call	 DWORD PTR __imp_??0ioHashString@@QAE@PBD@Z
  002c3	8d 85 9c 7f ff
	ff		 lea	 eax, DWORD PTR $T556106[ebp]
  002c9	50		 push	 eax
  002ca	ff b5 b8 7f ff
	ff		 push	 DWORD PTR _iAniId$[ebp]
  002d0	8b cf		 mov	 ecx, edi
  002d2	c7 45 fc 01 00
	00 00		 mov	 DWORD PTR __$EHRec$[ebp+8], 1
  002d9	ff 15 00 00 00
	00		 call	 DWORD PTR __imp_?GetAnimationEventTime@ioEntityGroup@@QAEMHABVioHashString@@@Z
  002df	d9 9d bc 7f ff
	ff		 fstp	 DWORD PTR $T556105[ebp]
  002e5	83 4d fc ff	 or	 DWORD PTR __$EHRec$[ebp+8], -1
  002e9	8d 8d 9c 7f ff
	ff		 lea	 ecx, DWORD PTR $T556106[ebp]
  002ef	ff 15 00 00 00
	00		 call	 DWORD PTR __imp_??1ioHashString@@QAE@XZ
  002f5	8b 06		 mov	 eax, DWORD PTR [esi]
  002f7	8b ce		 mov	 ecx, esi
  002f9	ff 90 28 01 00
	00		 call	 DWORD PTR [eax+296]
  002ff	d8 8d bc 7f ff
	ff		 fmul	 DWORD PTR $T556105[ebp]
  00305	d8 85 c0 7f ff
	ff		 fadd	 DWORD PTR tv1758[ebp]
  0030b	e8 00 00 00 00	 call	 __ftol2

; 284  : 
; 285  : 	if( pChar->IsNeedSendNetwork() )

  00310	8b bd ac 7f ff
	ff		 mov	 edi, DWORD PTR _pChar$GSCopy$[ebp]
  00316	89 86 24 02 00
	00		 mov	 DWORD PTR [esi+548], eax
  0031c	8b 07		 mov	 eax, DWORD PTR [edi]
  0031e	8b cf		 mov	 ecx, edi
  00320	ff 90 04 01 00
	00		 call	 DWORD PTR [eax+260]
  00326	84 c0		 test	 al, al
  00328	74 68		 je	 SHORT $LN1@SetFireSta

; 286  : 	{
; 287  : 		SP2Packet kPacket( CUPK_SKILL_EXTRA_INFO );

  0032a	68 39 41 00 00	 push	 16697			; 00004139H
  0032f	8d 8d c4 7f ff
	ff		 lea	 ecx, DWORD PTR _kPacket$550438[ebp]
  00335	e8 00 00 00 00	 call	 ??0SP2Packet@@QAE@K@Z	; SP2Packet::SP2Packet

; 288  : 		kPacket << pChar->GetCharName();

  0033a	81 c7 d4 02 00
	00		 add	 edi, 724		; 000002d4H
  00340	57		 push	 edi
  00341	8d 8d c4 7f ff
	ff		 lea	 ecx, DWORD PTR _kPacket$550438[ebp]
  00347	c7 45 fc 02 00
	00 00		 mov	 DWORD PTR __$EHRec$[ebp+8], 2
  0034e	e8 00 00 00 00	 call	 ??6SP2Packet@@QAEAAV0@ABVioHashString@@@Z ; SP2Packet::operator<<

; 289  : 		kPacket << GetName();

  00353	8d 46 24	 lea	 eax, DWORD PTR [esi+36]
  00356	50		 push	 eax
  00357	8d 8d c4 7f ff
	ff		 lea	 ecx, DWORD PTR _kPacket$550438[ebp]
  0035d	e8 00 00 00 00	 call	 ??6SP2Packet@@QAEAAV0@ABVioHashString@@@Z ; SP2Packet::operator<<

; 290  : 		kPacket << m_szTargetName;

  00362	81 c6 cc 10 00
	00		 add	 esi, 4300		; 000010ccH
  00368	56		 push	 esi
  00369	8d 8d c4 7f ff
	ff		 lea	 ecx, DWORD PTR _kPacket$550438[ebp]
  0036f	e8 00 00 00 00	 call	 ??6SP2Packet@@QAEAAV0@ABVioHashString@@@Z ; SP2Packet::operator<<

; 291  : 		P2PNetwork::SendToAllPlayingUser( kPacket );

  00374	8d 85 c4 7f ff
	ff		 lea	 eax, DWORD PTR _kPacket$550438[ebp]
  0037a	53		 push	 ebx
  0037b	50		 push	 eax
  0037c	e8 00 00 00 00	 call	 ?SendToAllPlayingUser@P2PNetwork@@YAXAAVSP2Packet@@PAVioBaseChar@@@Z ; P2PNetwork::SendToAllPlayingUser

; 292  : 	}

  00381	83 4d fc ff	 or	 DWORD PTR __$EHRec$[ebp+8], -1
  00385	59		 pop	 ecx
  00386	59		 pop	 ecx
  00387	8d 8d c4 7f ff
	ff		 lea	 ecx, DWORD PTR _kPacket$550438[ebp]
  0038d	e8 00 00 00 00	 call	 ??1SP2Packet@@UAE@XZ	; SP2Packet::~SP2Packet
$LN1@SetFireSta:

; 293  : }

  00392	8b 4d f4	 mov	 ecx, DWORD PTR __$EHRec$[ebp]
  00395	64 89 0d 00 00
	00 00		 mov	 DWORD PTR fs:0, ecx
  0039c	59		 pop	 ecx
  0039d	5f		 pop	 edi
  0039e	5e		 pop	 esi
  0039f	5b		 pop	 ebx
  003a0	8b 4d f0	 mov	 ecx, DWORD PTR __$ArrayPad$[ebp]
  003a3	33 cd		 xor	 ecx, ebp
  003a5	e8 00 00 00 00	 call	 @__security_check_cookie@4
  003aa	c9		 leave
  003ab	c2 04 00	 ret	 4
_TEXT	ENDS
;	COMDAT text$x
text$x	SEGMENT
__unwindfunclet$?SetFireState@ioTargetBuffSkill@@IAEXPAVioBaseChar@@@Z$1:
  00000	8d 8d 9c 7f ff
	ff		 lea	 ecx, DWORD PTR $T556074[ebp]
  00006	ff 25 00 00 00
	00		 jmp	 DWORD PTR __imp_??1ioHashString@@QAE@XZ
__unwindfunclet$?SetFireState@ioTargetBuffSkill@@IAEXPAVioBaseChar@@@Z$2:
  0000c	8d 8d 9c 7f ff
	ff		 lea	 ecx, DWORD PTR $T556106[ebp]
  00012	ff 25 00 00 00
	00		 jmp	 DWORD PTR __imp_??1ioHashString@@QAE@XZ
__unwindfunclet$?SetFireState@ioTargetBuffSkill@@IAEXPAVioBaseChar@@@Z$0:
  00018	8d 8d c4 7f ff
	ff		 lea	 ecx, DWORD PTR _kPacket$550438[ebp]
  0001e	e9 00 00 00 00	 jmp	 ??1SP2Packet@@UAE@XZ	; SP2Packet::~SP2Packet
__ehhandler$?SetFireState@ioTargetBuffSkill@@IAEXPAVioBaseChar@@@Z:
  00023	8b 54 24 08	 mov	 edx, DWORD PTR [esp+8]
  00027	8d 42 0c	 lea	 eax, DWORD PTR [edx+12]
  0002a	8b 8a 98 7f ff
	ff		 mov	 ecx, DWORD PTR [edx-32872]
  00030	33 c8		 xor	 ecx, eax
  00032	e8 00 00 00 00	 call	 @__security_check_cookie@4
  00037	8b 4a fc	 mov	 ecx, DWORD PTR [edx-4]
  0003a	33 c8		 xor	 ecx, eax
  0003c	e8 00 00 00 00	 call	 @__security_check_cookie@4
  00041	b8 00 00 00 00	 mov	 eax, OFFSET __ehfuncinfo$?SetFireState@ioTargetBuffSkill@@IAEXPAVioBaseChar@@@Z
  00046	e9 00 00 00 00	 jmp	 ___CxxFrameHandler3
text$x	ENDS
?SetFireState@ioTargetBuffSkill@@IAEXPAVioBaseChar@@@Z ENDP ; ioTargetBuffSkill::SetFireState
; Function compile flags: /Ogsp
;	COMDAT ?IsProtected@ioTargetBuffSkill@@UBE_NH@Z
_TEXT	SEGMENT
_value$556253 = -1					; size = 1
_iDefenseBreakType$ = 8					; size = 4
?IsProtected@ioTargetBuffSkill@@UBE_NH@Z PROC		; ioTargetBuffSkill::IsProtected, COMDAT
; _this$ = ecx

; 301  : {

  00000	55		 push	 ebp
  00001	8b ec		 mov	 ebp, esp
  00003	51		 push	 ecx
  00004	56		 push	 esi
  00005	8b f1		 mov	 esi, ecx

; 302  : 	if( m_bDisableSkillProtect )

  00007	8d 45 ff	 lea	 eax, DWORD PTR _value$556253[ebp]
  0000a	50		 push	 eax
  0000b	8d 8e a8 00 00
	00		 lea	 ecx, DWORD PTR [esi+168]
  00011	e8 00 00 00 00	 call	 ?DecryptValueToPool@?$CEncrypt@_N@@QAEXPA_N@Z ; CEncrypt<bool>::DecryptValueToPool
  00016	80 7d ff 00	 cmp	 BYTE PTR _value$556253[ebp], 0

; 303  : 		return false;

  0001a	75 49		 jne	 SHORT $LN1@IsProtecte

; 304  : 
; 305  : 	if( DBT_NONE != (DefenseBreakType)m_ProtectCancelType )

  0001c	8b 86 a4 00 00
	00		 mov	 eax, DWORD PTR [esi+164]
  00022	85 c0		 test	 eax, eax
  00024	74 05		 je	 SHORT $LN5@IsProtecte

; 306  : 	{
; 307  : 		if( iDefenseBreakType == m_ProtectCancelType )   //   

  00026	39 45 08	 cmp	 DWORD PTR _iDefenseBreakType$[ebp], eax

; 308  : 			return false;

  00029	74 3a		 je	 SHORT $LN1@IsProtecte
$LN5@IsProtecte:

; 309  : 	}
; 310  : 
; 311  : 	if( IsPreDelayProtect() )

  0002b	8b 06		 mov	 eax, DWORD PTR [esi]
  0002d	8b ce		 mov	 ecx, esi
  0002f	ff 90 2c 01 00
	00		 call	 DWORD PTR [eax+300]
  00035	84 c0		 test	 al, al
  00037	74 0d		 je	 SHORT $LN3@IsProtecte

; 312  : 	{
; 313  : 		if( m_dwPreDelayStartTime != 0 )

  00039	83 be 20 02 00
	00 00		 cmp	 DWORD PTR [esi+544], 0
  00040	74 0d		 je	 SHORT $LN13@IsProtecte
$LN14@IsProtecte:

; 314  : 			return true;

  00042	b0 01		 mov	 al, 1
  00044	eb 21		 jmp	 SHORT $LN8@IsProtecte
$LN3@IsProtecte:

; 315  : 	}
; 316  : 
; 317  : 	if( m_dwPreDelayStartTime == 0 )

  00046	83 be 20 02 00
	00 00		 cmp	 DWORD PTR [esi+544], 0
  0004d	75 16		 jne	 SHORT $LN1@IsProtecte
$LN13@IsProtecte:

; 318  : 	{
; 319  : 		if( m_dwFireMotionEndTime > FRAMEGETTIME() )

  0004f	ff 15 00 00 00
	00		 call	 DWORD PTR __imp_?GetSingleton@ioFrameTimer@@SAAAV1@XZ
  00055	8b c8		 mov	 ecx, eax
  00057	ff 15 00 00 00
	00		 call	 DWORD PTR __imp_?GetLoopSec@ioFrameTimer@@QBEKXZ
  0005d	39 86 24 02 00
	00		 cmp	 DWORD PTR [esi+548], eax

; 320  : 			return true;

  00063	77 dd		 ja	 SHORT $LN14@IsProtecte
$LN1@IsProtecte:

; 321  : 	}
; 322  : 
; 323  : 	return false;

  00065	32 c0		 xor	 al, al
$LN8@IsProtecte:
  00067	5e		 pop	 esi

; 324  : }

  00068	c9		 leave
  00069	c2 04 00	 ret	 4
?IsProtected@ioTargetBuffSkill@@UBE_NH@Z ENDP		; ioTargetBuffSkill::IsProtected
_TEXT	ENDS
PUBLIC	??0?$vector@UtagBaseCharDistanceSq@@V?$allocator@UtagBaseCharDistanceSq@@@std@@@std@@QAE@XZ ; std::vector<tagBaseCharDistanceSq,std::allocator<tagBaseCharDistanceSq> >::vector<tagBaseCharDistanceSq,std::allocator<tagBaseCharDistanceSq> >
; Function compile flags: /Ogsp
; File c:\program files (x86)\microsoft visual studio 10.0\vc\include\vector
;	COMDAT ??0?$vector@UtagBaseCharDistanceSq@@V?$allocator@UtagBaseCharDistanceSq@@@std@@@std@@QAE@XZ
_TEXT	SEGMENT
??0?$vector@UtagBaseCharDistanceSq@@V?$allocator@UtagBaseCharDistanceSq@@@std@@@std@@QAE@XZ PROC ; std::vector<tagBaseCharDistanceSq,std::allocator<tagBaseCharDistanceSq> >::vector<tagBaseCharDistanceSq,std::allocator<tagBaseCharDistanceSq> >, COMDAT
; _this$ = ecx

; 507  : 		{	// construct empty vector

  00000	8b c1		 mov	 eax, ecx
  00002	33 c9		 xor	 ecx, ecx
  00004	89 08		 mov	 DWORD PTR [eax], ecx
  00006	89 48 04	 mov	 DWORD PTR [eax+4], ecx
  00009	89 48 08	 mov	 DWORD PTR [eax+8], ecx

; 508  : 		}

  0000c	c3		 ret	 0
??0?$vector@UtagBaseCharDistanceSq@@V?$allocator@UtagBaseCharDistanceSq@@@std@@@std@@QAE@XZ ENDP ; std::vector<tagBaseCharDistanceSq,std::allocator<tagBaseCharDistanceSq> >::vector<tagBaseCharDistanceSq,std::allocator<tagBaseCharDistanceSq> >
_TEXT	ENDS
PUBLIC	?begin@?$vector@UtagBaseCharDistanceSq@@V?$allocator@UtagBaseCharDistanceSq@@@std@@@std@@QAE?AV?$_Vector_iterator@V?$_Vector_val@UtagBaseCharDistanceSq@@V?$allocator@UtagBaseCharDistanceSq@@@std@@@std@@@2@XZ ; std::vector<tagBaseCharDistanceSq,std::allocator<tagBaseCharDistanceSq> >::begin
; Function compile flags: /Ogsp
;	COMDAT ?begin@?$vector@UtagBaseCharDistanceSq@@V?$allocator@UtagBaseCharDistanceSq@@@std@@@std@@QAE?AV?$_Vector_iterator@V?$_Vector_val@UtagBaseCharDistanceSq@@V?$allocator@UtagBaseCharDistanceSq@@@std@@@std@@@2@XZ
_TEXT	SEGMENT
___$ReturnUdt$ = 8					; size = 4
?begin@?$vector@UtagBaseCharDistanceSq@@V?$allocator@UtagBaseCharDistanceSq@@@std@@@std@@QAE?AV?$_Vector_iterator@V?$_Vector_val@UtagBaseCharDistanceSq@@V?$allocator@UtagBaseCharDistanceSq@@@std@@@std@@@2@XZ PROC ; std::vector<tagBaseCharDistanceSq,std::allocator<tagBaseCharDistanceSq> >::begin, COMDAT
; _this$ = ecx

; 781  : 		{	// return iterator for beginning of mutable sequence

  00000	55		 push	 ebp
  00001	8b ec		 mov	 ebp, esp

; 782  : 		return (iterator(this->_Myfirst, this));

  00003	8b 09		 mov	 ecx, DWORD PTR [ecx]
  00005	8b 45 08	 mov	 eax, DWORD PTR ___$ReturnUdt$[ebp]
  00008	89 08		 mov	 DWORD PTR [eax], ecx

; 783  : 		}

  0000a	5d		 pop	 ebp
  0000b	c2 04 00	 ret	 4
?begin@?$vector@UtagBaseCharDistanceSq@@V?$allocator@UtagBaseCharDistanceSq@@@std@@@std@@QAE?AV?$_Vector_iterator@V?$_Vector_val@UtagBaseCharDistanceSq@@V?$allocator@UtagBaseCharDistanceSq@@@std@@@std@@@2@XZ ENDP ; std::vector<tagBaseCharDistanceSq,std::allocator<tagBaseCharDistanceSq> >::begin
_TEXT	ENDS
PUBLIC	?end@?$vector@UtagBaseCharDistanceSq@@V?$allocator@UtagBaseCharDistanceSq@@@std@@@std@@QAE?AV?$_Vector_iterator@V?$_Vector_val@UtagBaseCharDistanceSq@@V?$allocator@UtagBaseCharDistanceSq@@@std@@@std@@@2@XZ ; std::vector<tagBaseCharDistanceSq,std::allocator<tagBaseCharDistanceSq> >::end
; Function compile flags: /Ogsp
;	COMDAT ?end@?$vector@UtagBaseCharDistanceSq@@V?$allocator@UtagBaseCharDistanceSq@@@std@@@std@@QAE?AV?$_Vector_iterator@V?$_Vector_val@UtagBaseCharDistanceSq@@V?$allocator@UtagBaseCharDistanceSq@@@std@@@std@@@2@XZ
_TEXT	SEGMENT
___$ReturnUdt$ = 8					; size = 4
?end@?$vector@UtagBaseCharDistanceSq@@V?$allocator@UtagBaseCharDistanceSq@@@std@@@std@@QAE?AV?$_Vector_iterator@V?$_Vector_val@UtagBaseCharDistanceSq@@V?$allocator@UtagBaseCharDistanceSq@@@std@@@std@@@2@XZ PROC ; std::vector<tagBaseCharDistanceSq,std::allocator<tagBaseCharDistanceSq> >::end, COMDAT
; _this$ = ecx

; 791  : 		{	// return iterator for end of mutable sequence

  00000	55		 push	 ebp
  00001	8b ec		 mov	 ebp, esp

; 792  : 		return (iterator(this->_Mylast, this));

  00003	8b 49 04	 mov	 ecx, DWORD PTR [ecx+4]
  00006	8b 45 08	 mov	 eax, DWORD PTR ___$ReturnUdt$[ebp]
  00009	89 08		 mov	 DWORD PTR [eax], ecx

; 793  : 		}

  0000b	5d		 pop	 ebp
  0000c	c2 04 00	 ret	 4
?end@?$vector@UtagBaseCharDistanceSq@@V?$allocator@UtagBaseCharDistanceSq@@@std@@@std@@QAE?AV?$_Vector_iterator@V?$_Vector_val@UtagBaseCharDistanceSq@@V?$allocator@UtagBaseCharDistanceSq@@@std@@@std@@@2@XZ ENDP ; std::vector<tagBaseCharDistanceSq,std::allocator<tagBaseCharDistanceSq> >::end
_TEXT	ENDS
PUBLIC	??9?$_Vector_const_iterator@V?$_Vector_val@PAVioBaseChar@@V?$allocator@PAVioBaseChar@@@std@@@std@@@std@@QBE_NABV01@@Z ; std::_Vector_const_iterator<std::_Vector_val<ioBaseChar *,std::allocator<ioBaseChar *> > >::operator!=
; Function compile flags: /Ogsp
;	COMDAT ??9?$_Vector_const_iterator@V?$_Vector_val@PAVioBaseChar@@V?$allocator@PAVioBaseChar@@@std@@@std@@@std@@QBE_NABV01@@Z
_TEXT	SEGMENT
__Right$ = 8						; size = 4
??9?$_Vector_const_iterator@V?$_Vector_val@PAVioBaseChar@@V?$allocator@PAVioBaseChar@@@std@@@std@@@std@@QBE_NABV01@@Z PROC ; std::_Vector_const_iterator<std::_Vector_val<ioBaseChar *,std::allocator<ioBaseChar *> > >::operator!=, COMDAT
; _this$ = ecx

; 207  : 		{	// test for iterator inequality

  00000	55		 push	 ebp
  00001	8b ec		 mov	 ebp, esp

; 208  : 		return (!(*this == _Right));

  00003	8b 01		 mov	 eax, DWORD PTR [ecx]
  00005	8b 55 08	 mov	 edx, DWORD PTR __Right$[ebp]
  00008	33 c9		 xor	 ecx, ecx
  0000a	3b 02		 cmp	 eax, DWORD PTR [edx]
  0000c	0f 95 c0	 setne	 al

; 209  : 		}

  0000f	5d		 pop	 ebp
  00010	c2 04 00	 ret	 4
??9?$_Vector_const_iterator@V?$_Vector_val@PAVioBaseChar@@V?$allocator@PAVioBaseChar@@@std@@@std@@@std@@QBE_NABV01@@Z ENDP ; std::_Vector_const_iterator<std::_Vector_val<ioBaseChar *,std::allocator<ioBaseChar *> > >::operator!=
_TEXT	ENDS
PUBLIC	??9?$_Vector_const_iterator@V?$_Vector_val@UtagBaseCharDistanceSq@@V?$allocator@UtagBaseCharDistanceSq@@@std@@@std@@@std@@QBE_NABV01@@Z ; std::_Vector_const_iterator<std::_Vector_val<tagBaseCharDistanceSq,std::allocator<tagBaseCharDistanceSq> > >::operator!=
; Function compile flags: /Ogsp
;	COMDAT ??9?$_Vector_const_iterator@V?$_Vector_val@UtagBaseCharDistanceSq@@V?$allocator@UtagBaseCharDistanceSq@@@std@@@std@@@std@@QBE_NABV01@@Z
_TEXT	SEGMENT
__Right$ = 8						; size = 4
??9?$_Vector_const_iterator@V?$_Vector_val@UtagBaseCharDistanceSq@@V?$allocator@UtagBaseCharDistanceSq@@@std@@@std@@@std@@QBE_NABV01@@Z PROC ; std::_Vector_const_iterator<std::_Vector_val<tagBaseCharDistanceSq,std::allocator<tagBaseCharDistanceSq> > >::operator!=, COMDAT
; _this$ = ecx

; 207  : 		{	// test for iterator inequality

  00000	55		 push	 ebp
  00001	8b ec		 mov	 ebp, esp

; 208  : 		return (!(*this == _Right));

  00003	8b 01		 mov	 eax, DWORD PTR [ecx]
  00005	8b 55 08	 mov	 edx, DWORD PTR __Right$[ebp]
  00008	33 c9		 xor	 ecx, ecx
  0000a	3b 02		 cmp	 eax, DWORD PTR [edx]
  0000c	0f 95 c0	 setne	 al

; 209  : 		}

  0000f	5d		 pop	 ebp
  00010	c2 04 00	 ret	 4
??9?$_Vector_const_iterator@V?$_Vector_val@UtagBaseCharDistanceSq@@V?$allocator@UtagBaseCharDistanceSq@@@std@@@std@@@std@@QBE_NABV01@@Z ENDP ; std::_Vector_const_iterator<std::_Vector_val<tagBaseCharDistanceSq,std::allocator<tagBaseCharDistanceSq> > >::operator!=
_TEXT	ENDS
PUBLIC	??$_Cons_val@V?$allocator@UtagBaseCharDistanceSq@@@std@@UtagBaseCharDistanceSq@@AAU3@@std@@YAXAAV?$allocator@UtagBaseCharDistanceSq@@@0@PAUtagBaseCharDistanceSq@@AAU2@@Z ; std::_Cons_val<std::allocator<tagBaseCharDistanceSq>,tagBaseCharDistanceSq,tagBaseCharDistanceSq &>
;	COMDAT xdata$x
; File c:\program files (x86)\microsoft visual studio 10.0\vc\include\utility
xdata$x	SEGMENT
__unwindtable$??$_Cons_val@V?$allocator@UtagBaseCharDistanceSq@@@std@@UtagBaseCharDistanceSq@@AAU3@@std@@YAXAAV?$allocator@UtagBaseCharDistanceSq@@@0@PAUtagBaseCharDistanceSq@@AAU2@@Z DD 0ffffffffH
	DD	FLAT:__unwindfunclet$??$_Cons_val@V?$allocator@UtagBaseCharDistanceSq@@@std@@UtagBaseCharDistanceSq@@AAU3@@std@@YAXAAV?$allocator@UtagBaseCharDistanceSq@@@0@PAUtagBaseCharDistanceSq@@AAU2@@Z$0
__ehfuncinfo$??$_Cons_val@V?$allocator@UtagBaseCharDistanceSq@@@std@@UtagBaseCharDistanceSq@@AAU3@@std@@YAXAAV?$allocator@UtagBaseCharDistanceSq@@@0@PAUtagBaseCharDistanceSq@@AAU2@@Z DD 019930522H
	DD	01H
	DD	FLAT:__unwindtable$??$_Cons_val@V?$allocator@UtagBaseCharDistanceSq@@@std@@UtagBaseCharDistanceSq@@AAU3@@std@@YAXAAV?$allocator@UtagBaseCharDistanceSq@@@0@PAUtagBaseCharDistanceSq@@AAU2@@Z
	DD	2 DUP(00H)
	DD	2 DUP(00H)
	DD	00H
	DD	01H
; Function compile flags: /Ogsp
; File c:\program files (x86)\microsoft visual studio 10.0\vc\include\xmemory
xdata$x	ENDS
;	COMDAT ??$_Cons_val@V?$allocator@UtagBaseCharDistanceSq@@@std@@UtagBaseCharDistanceSq@@AAU3@@std@@YAXAAV?$allocator@UtagBaseCharDistanceSq@@@0@PAUtagBaseCharDistanceSq@@AAU2@@Z
_TEXT	SEGMENT
$T556350 = -16						; size = 4
__$EHRec$ = -12						; size = 12
__Alval$ = 8						; size = 4
__Pdest$ = 12						; size = 4
__Src$ = 16						; size = 4
??$_Cons_val@V?$allocator@UtagBaseCharDistanceSq@@@std@@UtagBaseCharDistanceSq@@AAU3@@std@@YAXAAV?$allocator@UtagBaseCharDistanceSq@@@0@PAUtagBaseCharDistanceSq@@AAU2@@Z PROC ; std::_Cons_val<std::allocator<tagBaseCharDistanceSq>,tagBaseCharDistanceSq,tagBaseCharDistanceSq &>, COMDAT

; 279  : 	{	// construct using allocator

  00000	6a 04		 push	 4
  00002	b8 00 00 00 00	 mov	 eax, __ehhandler$??$_Cons_val@V?$allocator@UtagBaseCharDistanceSq@@@std@@UtagBaseCharDistanceSq@@AAU3@@std@@YAXAAV?$allocator@UtagBaseCharDistanceSq@@@0@PAUtagBaseCharDistanceSq@@AAU2@@Z
  00007	e8 00 00 00 00	 call	 __EH_prolog3

; 280  : 	_Alval.construct(_Pdest, _STD forward<_Ty2>(_Src));

  0000c	8b 4d 0c	 mov	 ecx, DWORD PTR __Pdest$[ebp]
  0000f	89 4d f0	 mov	 DWORD PTR $T556350[ebp], ecx
  00012	83 65 fc 00	 and	 DWORD PTR __$EHRec$[ebp+8], 0
  00016	85 c9		 test	 ecx, ecx
  00018	74 08		 je	 SHORT $LN7@Cons_val
  0001a	ff 75 10	 push	 DWORD PTR __Src$[ebp]
  0001d	e8 00 00 00 00	 call	 ??0tagBaseCharDistanceSq@@QAE@ABU0@@Z
$LN7@Cons_val:

; 281  : 	}

  00022	e8 00 00 00 00	 call	 __EH_epilog3
  00027	c3		 ret	 0
_TEXT	ENDS
;	COMDAT text$x
text$x	SEGMENT
__unwindfunclet$??$_Cons_val@V?$allocator@UtagBaseCharDistanceSq@@@std@@UtagBaseCharDistanceSq@@AAU3@@std@@YAXAAV?$allocator@UtagBaseCharDistanceSq@@@0@PAUtagBaseCharDistanceSq@@AAU2@@Z$0:
  00000	ff 75 0c	 push	 DWORD PTR __Pdest$[ebp]
  00003	ff 75 f0	 push	 DWORD PTR $T556350[ebp]
  00006	e8 00 00 00 00	 call	 ??3@YAXPAX0@Z		; operator delete
  0000b	59		 pop	 ecx
  0000c	59		 pop	 ecx
  0000d	c3		 ret	 0
__ehhandler$??$_Cons_val@V?$allocator@UtagBaseCharDistanceSq@@@std@@UtagBaseCharDistanceSq@@AAU3@@std@@YAXAAV?$allocator@UtagBaseCharDistanceSq@@@0@PAUtagBaseCharDistanceSq@@AAU2@@Z:
  0000e	8b 54 24 08	 mov	 edx, DWORD PTR [esp+8]
  00012	8d 42 0c	 lea	 eax, DWORD PTR [edx+12]
  00015	8b 4a ec	 mov	 ecx, DWORD PTR [edx-20]
  00018	33 c8		 xor	 ecx, eax
  0001a	e8 00 00 00 00	 call	 @__security_check_cookie@4
  0001f	b8 00 00 00 00	 mov	 eax, OFFSET __ehfuncinfo$??$_Cons_val@V?$allocator@UtagBaseCharDistanceSq@@@std@@UtagBaseCharDistanceSq@@AAU3@@std@@YAXAAV?$allocator@UtagBaseCharDistanceSq@@@0@PAUtagBaseCharDistanceSq@@AAU2@@Z
  00024	e9 00 00 00 00	 jmp	 ___CxxFrameHandler3
text$x	ENDS
??$_Cons_val@V?$allocator@UtagBaseCharDistanceSq@@@std@@UtagBaseCharDistanceSq@@AAU3@@std@@YAXAAV?$allocator@UtagBaseCharDistanceSq@@@0@PAUtagBaseCharDistanceSq@@AAU2@@Z ENDP ; std::_Cons_val<std::allocator<tagBaseCharDistanceSq>,tagBaseCharDistanceSq,tagBaseCharDistanceSq &>
PUBLIC	??$_Move@PAUtagBaseCharDistanceSq@@PAU1@@std@@YAPAUtagBaseCharDistanceSq@@PAU1@00@Z ; std::_Move<tagBaseCharDistanceSq *,tagBaseCharDistanceSq *>
; Function compile flags: /Ogsp
; File c:\program files (x86)\microsoft visual studio 10.0\vc\include\xutility
;	COMDAT ??$_Move@PAUtagBaseCharDistanceSq@@PAU1@@std@@YAPAUtagBaseCharDistanceSq@@PAU1@00@Z
_TEXT	SEGMENT
__Cat$556370 = -4					; size = 1
__First$ = 8						; size = 4
__Last$ = 12						; size = 4
__Dest$ = 16						; size = 4
??$_Move@PAUtagBaseCharDistanceSq@@PAU1@@std@@YAPAUtagBaseCharDistanceSq@@PAU1@00@Z PROC ; std::_Move<tagBaseCharDistanceSq *,tagBaseCharDistanceSq *>, COMDAT

; 2533 : 	{	// move [_First, _Last) to [_Dest, ...), unchecked

  00000	55		 push	 ebp
  00001	8b ec		 mov	 ebp, esp
  00003	51		 push	 ecx

; 2534 : 	return (_Move(_First, _Last,
; 2535 : 		_Dest, _Ptr_cat(_First, _Dest)));

  00004	ff 75 fc	 push	 DWORD PTR __Cat$556370[ebp]
  00007	ff 75 10	 push	 DWORD PTR __Dest$[ebp]
  0000a	ff 75 0c	 push	 DWORD PTR __Last$[ebp]
  0000d	ff 75 08	 push	 DWORD PTR __First$[ebp]
  00010	e8 00 00 00 00	 call	 ??$_Move@PAUtagBaseCharDistanceSq@@PAU1@@std@@YAPAUtagBaseCharDistanceSq@@PAU1@00U_Nonscalar_ptr_iterator_tag@0@@Z ; std::_Move<tagBaseCharDistanceSq *,tagBaseCharDistanceSq *>
  00015	83 c4 10	 add	 esp, 16			; 00000010H

; 2536 : 	}

  00018	c9		 leave
  00019	c3		 ret	 0
??$_Move@PAUtagBaseCharDistanceSq@@PAU1@@std@@YAPAUtagBaseCharDistanceSq@@PAU1@00@Z ENDP ; std::_Move<tagBaseCharDistanceSq *,tagBaseCharDistanceSq *>
_TEXT	ENDS
PUBLIC	?construct@?$allocator@UtagBaseCharDistanceSq@@@std@@QAEXPAUtagBaseCharDistanceSq@@ABU3@@Z ; std::allocator<tagBaseCharDistanceSq>::construct
; Function compile flags: /Ogsp
; File c:\program files (x86)\microsoft visual studio 10.0\vc\include\xmemory
;	COMDAT ?construct@?$allocator@UtagBaseCharDistanceSq@@@std@@QAEXPAUtagBaseCharDistanceSq@@ABU3@@Z
_TEXT	SEGMENT
__Ptr$ = 8						; size = 4
__Val$ = 12						; size = 4
?construct@?$allocator@UtagBaseCharDistanceSq@@@std@@QAEXPAUtagBaseCharDistanceSq@@ABU3@@Z PROC ; std::allocator<tagBaseCharDistanceSq>::construct, COMDAT
; _this$ = ecx

; 196  : 		{	// construct object at _Ptr with value _Val

  00000	55		 push	 ebp
  00001	8b ec		 mov	 ebp, esp

; 197  : 		_Construct(_Ptr, _Val);

  00003	ff 75 0c	 push	 DWORD PTR __Val$[ebp]
  00006	ff 75 08	 push	 DWORD PTR __Ptr$[ebp]
  00009	e8 00 00 00 00	 call	 ??$_Construct@UtagBaseCharDistanceSq@@ABU1@@std@@YAXPAUtagBaseCharDistanceSq@@ABU1@@Z ; std::_Construct<tagBaseCharDistanceSq,tagBaseCharDistanceSq const &>
  0000e	59		 pop	 ecx
  0000f	59		 pop	 ecx

; 198  : 		}

  00010	5d		 pop	 ebp
  00011	c2 08 00	 ret	 8
?construct@?$allocator@UtagBaseCharDistanceSq@@@std@@QAEXPAUtagBaseCharDistanceSq@@ABU3@@Z ENDP ; std::allocator<tagBaseCharDistanceSq>::construct
_TEXT	ENDS
PUBLIC	?destroy@?$allocator@UtagBaseCharDistanceSq@@@std@@QAEXPAUtagBaseCharDistanceSq@@@Z ; std::allocator<tagBaseCharDistanceSq>::destroy
; Function compile flags: /Ogsp
;	COMDAT ?destroy@?$allocator@UtagBaseCharDistanceSq@@@std@@QAEXPAUtagBaseCharDistanceSq@@@Z
_TEXT	SEGMENT
__Ptr$ = 8						; size = 4
?destroy@?$allocator@UtagBaseCharDistanceSq@@@std@@QAEXPAUtagBaseCharDistanceSq@@@Z PROC ; std::allocator<tagBaseCharDistanceSq>::destroy, COMDAT
; _this$ = ecx

; 212  : 		{	// destroy object at _Ptr

  00000	55		 push	 ebp
  00001	8b ec		 mov	 ebp, esp

; 213  : 		_Destroy(_Ptr);

  00003	8b 4d 08	 mov	 ecx, DWORD PTR __Ptr$[ebp]
  00006	ff 15 00 00 00
	00		 call	 DWORD PTR __imp_??1ioHashString@@QAE@XZ

; 214  : 		}

  0000c	5d		 pop	 ebp
  0000d	c2 04 00	 ret	 4
?destroy@?$allocator@UtagBaseCharDistanceSq@@@std@@QAEXPAUtagBaseCharDistanceSq@@@Z ENDP ; std::allocator<tagBaseCharDistanceSq>::destroy
_TEXT	ENDS
PUBLIC	??$iter_swap@PAUtagBaseCharDistanceSq@@PAU1@@std@@YAXPAUtagBaseCharDistanceSq@@0@Z ; std::iter_swap<tagBaseCharDistanceSq *,tagBaseCharDistanceSq *>
; Function compile flags: /Ogsp
; File c:\program files (x86)\microsoft visual studio 10.0\vc\include\xutility
;	COMDAT ??$iter_swap@PAUtagBaseCharDistanceSq@@PAU1@@std@@YAXPAUtagBaseCharDistanceSq@@0@Z
_TEXT	SEGMENT
__Left$ = 8						; size = 4
__Right$ = 12						; size = 4
??$iter_swap@PAUtagBaseCharDistanceSq@@PAU1@@std@@YAXPAUtagBaseCharDistanceSq@@0@Z PROC ; std::iter_swap<tagBaseCharDistanceSq *,tagBaseCharDistanceSq *>, COMDAT

; 2133 : 	{	// swap *_Left and *_Right

  00000	55		 push	 ebp
  00001	8b ec		 mov	 ebp, esp

; 2135 : 	}

  00003	5d		 pop	 ebp

; 2134 : 	swap(*_Left, *_Right);

  00004	e9 00 00 00 00	 jmp	 ??$swap@UtagBaseCharDistanceSq@@@std@@YAXAAUtagBaseCharDistanceSq@@0@Z ; std::swap<tagBaseCharDistanceSq>
??$iter_swap@PAUtagBaseCharDistanceSq@@PAU1@@std@@YAXPAUtagBaseCharDistanceSq@@0@Z ENDP ; std::iter_swap<tagBaseCharDistanceSq *,tagBaseCharDistanceSq *>
_TEXT	ENDS
PUBLIC	??$_Insertion_sort1@PAUtagBaseCharDistanceSq@@VBaseCharDistanceSqSort2@@U1@@std@@YAXPAUtagBaseCharDistanceSq@@0VBaseCharDistanceSqSort2@@0@Z ; std::_Insertion_sort1<tagBaseCharDistanceSq *,BaseCharDistanceSqSort2,tagBaseCharDistanceSq>
;	COMDAT xdata$x
; File d:\lost saga for developer\youtube\tutorial\source\src\lsclient\iotargetbuffskill.cpp
xdata$x	SEGMENT
__unwindtable$??$_Insertion_sort1@PAUtagBaseCharDistanceSq@@VBaseCharDistanceSqSort2@@U1@@std@@YAXPAUtagBaseCharDistanceSq@@0VBaseCharDistanceSqSort2@@0@Z DD 0ffffffffH
	DD	FLAT:__unwindfunclet$??$_Insertion_sort1@PAUtagBaseCharDistanceSq@@VBaseCharDistanceSqSort2@@U1@@std@@YAXPAUtagBaseCharDistanceSq@@0VBaseCharDistanceSqSort2@@0@Z$0
__ehfuncinfo$??$_Insertion_sort1@PAUtagBaseCharDistanceSq@@VBaseCharDistanceSqSort2@@U1@@std@@YAXPAUtagBaseCharDistanceSq@@0VBaseCharDistanceSqSort2@@0@Z DD 019930522H
	DD	01H
	DD	FLAT:__unwindtable$??$_Insertion_sort1@PAUtagBaseCharDistanceSq@@VBaseCharDistanceSqSort2@@U1@@std@@YAXPAUtagBaseCharDistanceSq@@0VBaseCharDistanceSqSort2@@0@Z
	DD	2 DUP(00H)
	DD	2 DUP(00H)
	DD	00H
	DD	01H
; Function compile flags: /Ogsp
; File c:\program files (x86)\microsoft visual studio 10.0\vc\include\algorithm
xdata$x	ENDS
;	COMDAT ??$_Insertion_sort1@PAUtagBaseCharDistanceSq@@VBaseCharDistanceSqSort2@@U1@@std@@YAXPAUtagBaseCharDistanceSq@@0VBaseCharDistanceSqSort2@@0@Z
_TEXT	SEGMENT
__Cat$556420 = -52					; size = 1
__Next1$553236 = -52					; size = 4
__Val$553237 = -48					; size = 32
__$EHRec$ = -12						; size = 12
__First$ = 8						; size = 4
__Last$ = 12						; size = 4
__Pred$ = 16						; size = 1
___formal$ = 20						; size = 4
??$_Insertion_sort1@PAUtagBaseCharDistanceSq@@VBaseCharDistanceSqSort2@@U1@@std@@YAXPAUtagBaseCharDistanceSq@@0VBaseCharDistanceSqSort2@@0@Z PROC ; std::_Insertion_sort1<tagBaseCharDistanceSq *,BaseCharDistanceSqSort2,tagBaseCharDistanceSq>, COMDAT

; 3650 : 	{	// insertion sort [_First, _Last), using _Pred

  00000	6a 28		 push	 40			; 00000028H
  00002	b8 00 00 00 00	 mov	 eax, __ehhandler$??$_Insertion_sort1@PAUtagBaseCharDistanceSq@@VBaseCharDistanceSqSort2@@U1@@std@@YAXPAUtagBaseCharDistanceSq@@0VBaseCharDistanceSqSort2@@0@Z
  00007	e8 00 00 00 00	 call	 __EH_prolog3_GS
  0000c	8b 7d 08	 mov	 edi, DWORD PTR __First$[ebp]

; 3651 : 	if (_First != _Last)

  0000f	3b 7d 0c	 cmp	 edi, DWORD PTR __Last$[ebp]
  00012	74 5c		 je	 SHORT $LN6@Insertion_

; 3652 : 		for (_BidIt _Next = _First; ++_Next != _Last; )

  00014	8d 77 20	 lea	 esi, DWORD PTR [edi+32]
  00017	eb 52		 jmp	 SHORT $LN39@Insertion_
$LL7@Insertion_:

; 3653 : 			{	// order next element
; 3654 : 			_BidIt _Next1 = _Next;
; 3655 : 			_Ty _Val = _Move(*_Next);

  00019	56		 push	 esi
  0001a	8d 4d d0	 lea	 ecx, DWORD PTR __Val$553237[ebp]
  0001d	89 75 cc	 mov	 DWORD PTR __Next1$553236[ebp], esi
  00020	e8 00 00 00 00	 call	 ??0tagBaseCharDistanceSq@@QAE@ABU0@@Z

; 3656 : 
; 3657 : 			if (_DEBUG_LT_PRED(_Pred, _Val, *_First))

  00025	f3 0f 10 45 e0	 movss	 xmm0, DWORD PTR __Val$553237[ebp+16]
  0002a	f3 0f 10 4f 10	 movss	 xmm1, DWORD PTR [edi+16]
  0002f	83 65 fc 00	 and	 DWORD PTR __$EHRec$[ebp+8], 0
  00033	0f 5a c0	 cvtps2pd xmm0, xmm0
  00036	0f 5a c9	 cvtps2pd xmm1, xmm1
  00039	66 0f 2f c8	 comisd	 xmm1, xmm0
  0003d	76 37		 jbe	 SHORT $LN5@Insertion_

; 3658 : 				{	// found new earliest element, move to front
; 3659 : 				_Move_backward(_First, _Next, ++_Next1);

  0003f	ff 75 cc	 push	 DWORD PTR __Cat$556420[ebp]
  00042	8d 46 20	 lea	 eax, DWORD PTR [esi+32]
  00045	50		 push	 eax
  00046	56		 push	 esi
  00047	57		 push	 edi
  00048	e8 00 00 00 00	 call	 ??$_Move_backward@PAUtagBaseCharDistanceSq@@PAU1@@std@@YAPAUtagBaseCharDistanceSq@@PAU1@00U_Nonscalar_ptr_iterator_tag@0@@Z ; std::_Move_backward<tagBaseCharDistanceSq *,tagBaseCharDistanceSq *>
  0004d	83 c4 10	 add	 esp, 16			; 00000010H

; 3660 : 				*_First = _Move(_Val);

  00050	8b cf		 mov	 ecx, edi
$LN40@Insertion_:

; 3668 : 				*_Next1 = _Move(_Val);	// insert element in hole

  00052	8d 45 d0	 lea	 eax, DWORD PTR __Val$553237[ebp]
  00055	50		 push	 eax
  00056	e8 00 00 00 00	 call	 ??4tagBaseCharDistanceSq@@QAEAAU0@ABU0@@Z

; 3669 : 				}
; 3670 : 			}

  0005b	83 4d fc ff	 or	 DWORD PTR __$EHRec$[ebp+8], -1
  0005f	8d 4d d0	 lea	 ecx, DWORD PTR __Val$553237[ebp]
  00062	ff 15 00 00 00
	00		 call	 DWORD PTR __imp_??1ioHashString@@QAE@XZ
  00068	83 c6 20	 add	 esi, 32			; 00000020H
$LN39@Insertion_:

; 3652 : 		for (_BidIt _Next = _First; ++_Next != _Last; )

  0006b	3b 75 0c	 cmp	 esi, DWORD PTR __Last$[ebp]
  0006e	75 a9		 jne	 SHORT $LL7@Insertion_
$LN6@Insertion_:

; 3671 : 	}

  00070	e8 00 00 00 00	 call	 __EH_epilog3_GS
  00075	c3		 ret	 0
$LN5@Insertion_:

; 3661 : 				}
; 3662 : 			else
; 3663 : 				{	// look for insertion point after first
; 3664 : 				for (_BidIt _First1 = _Next1;

  00076	8b de		 mov	 ebx, esi
$LL3@Insertion_:

; 3665 : 					_DEBUG_LT_PRED(_Pred, _Val, *--_First1);
; 3666 : 					_Next1 = _First1)

  00078	f3 0f 10 45 e0	 movss	 xmm0, DWORD PTR __Val$553237[ebp+16]
  0007d	f3 0f 10 4b f0	 movss	 xmm1, DWORD PTR [ebx-16]

; 3667 : 					*_Next1 = _Move(*_First1);	// move hole down

  00082	8b 4d cc	 mov	 ecx, DWORD PTR __Next1$553236[ebp]
  00085	83 eb 20	 sub	 ebx, 32			; 00000020H
  00088	0f 5a c0	 cvtps2pd xmm0, xmm0
  0008b	0f 5a c9	 cvtps2pd xmm1, xmm1
  0008e	66 0f 2f c8	 comisd	 xmm1, xmm0
  00092	76 be		 jbe	 SHORT $LN40@Insertion_
  00094	53		 push	 ebx
  00095	e8 00 00 00 00	 call	 ??4tagBaseCharDistanceSq@@QAEAAU0@ABU0@@Z
  0009a	89 5d cc	 mov	 DWORD PTR __Next1$553236[ebp], ebx
  0009d	eb d9		 jmp	 SHORT $LL3@Insertion_
_TEXT	ENDS
;	COMDAT text$x
text$x	SEGMENT
__unwindfunclet$??$_Insertion_sort1@PAUtagBaseCharDistanceSq@@VBaseCharDistanceSqSort2@@U1@@std@@YAXPAUtagBaseCharDistanceSq@@0VBaseCharDistanceSqSort2@@0@Z$0:
  00000	8d 4d d0	 lea	 ecx, DWORD PTR __Val$553237[ebp]
  00003	e9 00 00 00 00	 jmp	 ??1tagBaseCharDistanceSq@@QAE@XZ
__ehhandler$??$_Insertion_sort1@PAUtagBaseCharDistanceSq@@VBaseCharDistanceSqSort2@@U1@@std@@YAXPAUtagBaseCharDistanceSq@@0VBaseCharDistanceSqSort2@@0@Z:
  00008	8b 54 24 08	 mov	 edx, DWORD PTR [esp+8]
  0000c	8d 42 0c	 lea	 eax, DWORD PTR [edx+12]
  0000f	8b 4a c8	 mov	 ecx, DWORD PTR [edx-56]
  00012	33 c8		 xor	 ecx, eax
  00014	e8 00 00 00 00	 call	 @__security_check_cookie@4
  00019	8b 4a fc	 mov	 ecx, DWORD PTR [edx-4]
  0001c	33 c8		 xor	 ecx, eax
  0001e	e8 00 00 00 00	 call	 @__security_check_cookie@4
  00023	b8 00 00 00 00	 mov	 eax, OFFSET __ehfuncinfo$??$_Insertion_sort1@PAUtagBaseCharDistanceSq@@VBaseCharDistanceSqSort2@@U1@@std@@YAXPAUtagBaseCharDistanceSq@@0VBaseCharDistanceSqSort2@@0@Z
  00028	e9 00 00 00 00	 jmp	 ___CxxFrameHandler3
text$x	ENDS
??$_Insertion_sort1@PAUtagBaseCharDistanceSq@@VBaseCharDistanceSqSort2@@U1@@std@@YAXPAUtagBaseCharDistanceSq@@0VBaseCharDistanceSqSort2@@0@Z ENDP ; std::_Insertion_sort1<tagBaseCharDistanceSq *,BaseCharDistanceSqSort2,tagBaseCharDistanceSq>
PUBLIC	??$_Cons_val@V?$allocator@UtagBaseCharDistanceSq@@@std@@UtagBaseCharDistanceSq@@U3@@std@@YAXAAV?$allocator@UtagBaseCharDistanceSq@@@0@PAUtagBaseCharDistanceSq@@$$QAU2@@Z ; std::_Cons_val<std::allocator<tagBaseCharDistanceSq>,tagBaseCharDistanceSq,tagBaseCharDistanceSq>
;	COMDAT xdata$x
; File c:\program files (x86)\microsoft visual studio 10.0\vc\include\utility
xdata$x	SEGMENT
__unwindtable$??$_Cons_val@V?$allocator@UtagBaseCharDistanceSq@@@std@@UtagBaseCharDistanceSq@@U3@@std@@YAXAAV?$allocator@UtagBaseCharDistanceSq@@@0@PAUtagBaseCharDistanceSq@@$$QAU2@@Z DD 0ffffffffH
	DD	FLAT:__unwindfunclet$??$_Cons_val@V?$allocator@UtagBaseCharDistanceSq@@@std@@UtagBaseCharDistanceSq@@U3@@std@@YAXAAV?$allocator@UtagBaseCharDistanceSq@@@0@PAUtagBaseCharDistanceSq@@$$QAU2@@Z$0
__ehfuncinfo$??$_Cons_val@V?$allocator@UtagBaseCharDistanceSq@@@std@@UtagBaseCharDistanceSq@@U3@@std@@YAXAAV?$allocator@UtagBaseCharDistanceSq@@@0@PAUtagBaseCharDistanceSq@@$$QAU2@@Z DD 019930522H
	DD	01H
	DD	FLAT:__unwindtable$??$_Cons_val@V?$allocator@UtagBaseCharDistanceSq@@@std@@UtagBaseCharDistanceSq@@U3@@std@@YAXAAV?$allocator@UtagBaseCharDistanceSq@@@0@PAUtagBaseCharDistanceSq@@$$QAU2@@Z
	DD	2 DUP(00H)
	DD	2 DUP(00H)
	DD	00H
	DD	01H
; Function compile flags: /Ogsp
; File c:\program files (x86)\microsoft visual studio 10.0\vc\include\xmemory
xdata$x	ENDS
;	COMDAT ??$_Cons_val@V?$allocator@UtagBaseCharDistanceSq@@@std@@UtagBaseCharDistanceSq@@U3@@std@@YAXAAV?$allocator@UtagBaseCharDistanceSq@@@0@PAUtagBaseCharDistanceSq@@$$QAU2@@Z
_TEXT	SEGMENT
$T556473 = -16						; size = 4
__$EHRec$ = -12						; size = 12
__Alval$ = 8						; size = 4
__Pdest$ = 12						; size = 4
__Src$ = 16						; size = 4
??$_Cons_val@V?$allocator@UtagBaseCharDistanceSq@@@std@@UtagBaseCharDistanceSq@@U3@@std@@YAXAAV?$allocator@UtagBaseCharDistanceSq@@@0@PAUtagBaseCharDistanceSq@@$$QAU2@@Z PROC ; std::_Cons_val<std::allocator<tagBaseCharDistanceSq>,tagBaseCharDistanceSq,tagBaseCharDistanceSq>, COMDAT

; 279  : 	{	// construct using allocator

  00000	6a 04		 push	 4
  00002	b8 00 00 00 00	 mov	 eax, __ehhandler$??$_Cons_val@V?$allocator@UtagBaseCharDistanceSq@@@std@@UtagBaseCharDistanceSq@@U3@@std@@YAXAAV?$allocator@UtagBaseCharDistanceSq@@@0@PAUtagBaseCharDistanceSq@@$$QAU2@@Z
  00007	e8 00 00 00 00	 call	 __EH_prolog3

; 280  : 	_Alval.construct(_Pdest, _STD forward<_Ty2>(_Src));

  0000c	8b 4d 0c	 mov	 ecx, DWORD PTR __Pdest$[ebp]
  0000f	89 4d f0	 mov	 DWORD PTR $T556473[ebp], ecx
  00012	83 65 fc 00	 and	 DWORD PTR __$EHRec$[ebp+8], 0
  00016	85 c9		 test	 ecx, ecx
  00018	74 08		 je	 SHORT $LN7@Cons_val@2
  0001a	ff 75 10	 push	 DWORD PTR __Src$[ebp]
  0001d	e8 00 00 00 00	 call	 ??0tagBaseCharDistanceSq@@QAE@ABU0@@Z
$LN7@Cons_val@2:

; 281  : 	}

  00022	e8 00 00 00 00	 call	 __EH_epilog3
  00027	c3		 ret	 0
_TEXT	ENDS
;	COMDAT text$x
text$x	SEGMENT
__unwindfunclet$??$_Cons_val@V?$allocator@UtagBaseCharDistanceSq@@@std@@UtagBaseCharDistanceSq@@U3@@std@@YAXAAV?$allocator@UtagBaseCharDistanceSq@@@0@PAUtagBaseCharDistanceSq@@$$QAU2@@Z$0:
  00000	ff 75 0c	 push	 DWORD PTR __Pdest$[ebp]
  00003	ff 75 f0	 push	 DWORD PTR $T556473[ebp]
  00006	e8 00 00 00 00	 call	 ??3@YAXPAX0@Z		; operator delete
  0000b	59		 pop	 ecx
  0000c	59		 pop	 ecx
  0000d	c3		 ret	 0
__ehhandler$??$_Cons_val@V?$allocator@UtagBaseCharDistanceSq@@@std@@UtagBaseCharDistanceSq@@U3@@std@@YAXAAV?$allocator@UtagBaseCharDistanceSq@@@0@PAUtagBaseCharDistanceSq@@$$QAU2@@Z:
  0000e	8b 54 24 08	 mov	 edx, DWORD PTR [esp+8]
  00012	8d 42 0c	 lea	 eax, DWORD PTR [edx+12]
  00015	8b 4a ec	 mov	 ecx, DWORD PTR [edx-20]
  00018	33 c8		 xor	 ecx, eax
  0001a	e8 00 00 00 00	 call	 @__security_check_cookie@4
  0001f	b8 00 00 00 00	 mov	 eax, OFFSET __ehfuncinfo$??$_Cons_val@V?$allocator@UtagBaseCharDistanceSq@@@std@@UtagBaseCharDistanceSq@@U3@@std@@YAXAAV?$allocator@UtagBaseCharDistanceSq@@@0@PAUtagBaseCharDistanceSq@@$$QAU2@@Z
  00024	e9 00 00 00 00	 jmp	 ___CxxFrameHandler3
text$x	ENDS
??$_Cons_val@V?$allocator@UtagBaseCharDistanceSq@@@std@@UtagBaseCharDistanceSq@@U3@@std@@YAXAAV?$allocator@UtagBaseCharDistanceSq@@@0@PAUtagBaseCharDistanceSq@@$$QAU2@@Z ENDP ; std::_Cons_val<std::allocator<tagBaseCharDistanceSq>,tagBaseCharDistanceSq,tagBaseCharDistanceSq>
PUBLIC	??$_Med3@PAUtagBaseCharDistanceSq@@VBaseCharDistanceSqSort2@@@std@@YAXPAUtagBaseCharDistanceSq@@00VBaseCharDistanceSqSort2@@@Z ; std::_Med3<tagBaseCharDistanceSq *,BaseCharDistanceSqSort2>
; Function compile flags: /Ogsp
; File c:\program files (x86)\microsoft visual studio 10.0\vc\include\algorithm
;	COMDAT ??$_Med3@PAUtagBaseCharDistanceSq@@VBaseCharDistanceSqSort2@@@std@@YAXPAUtagBaseCharDistanceSq@@00VBaseCharDistanceSqSort2@@@Z
_TEXT	SEGMENT
__First$ = 8						; size = 4
__Mid$ = 12						; size = 4
__Last$ = 16						; size = 4
__Pred$ = 20						; size = 1
??$_Med3@PAUtagBaseCharDistanceSq@@VBaseCharDistanceSqSort2@@@std@@YAXPAUtagBaseCharDistanceSq@@00VBaseCharDistanceSqSort2@@@Z PROC ; std::_Med3<tagBaseCharDistanceSq *,BaseCharDistanceSqSort2>, COMDAT

; 3683 : 	{	// sort median of three elements to middle

  00000	55		 push	 ebp
  00001	8b ec		 mov	 ebp, esp
  00003	56		 push	 esi

; 3684 : 	if (_DEBUG_LT_PRED(_Pred, *_Mid, *_First))

  00004	8b 75 0c	 mov	 esi, DWORD PTR __Mid$[ebp]
  00007	f3 0f 10 46 10	 movss	 xmm0, DWORD PTR [esi+16]
  0000c	57		 push	 edi
  0000d	8b 7d 08	 mov	 edi, DWORD PTR __First$[ebp]
  00010	f3 0f 10 4f 10	 movss	 xmm1, DWORD PTR [edi+16]
  00015	0f 5a c0	 cvtps2pd xmm0, xmm0
  00018	0f 5a c9	 cvtps2pd xmm1, xmm1
  0001b	66 0f 2f c8	 comisd	 xmm1, xmm0
  0001f	76 09		 jbe	 SHORT $LN9@Med3

; 3685 : 		_STD iter_swap(_Mid, _First);

  00021	57		 push	 edi
  00022	56		 push	 esi
  00023	e8 00 00 00 00	 call	 ??$swap@UtagBaseCharDistanceSq@@@std@@YAXAAUtagBaseCharDistanceSq@@0@Z ; std::swap<tagBaseCharDistanceSq>
  00028	59		 pop	 ecx
  00029	59		 pop	 ecx
$LN9@Med3:

; 3686 : 	if (_DEBUG_LT_PRED(_Pred, *_Last, *_Mid))

  0002a	8b 45 10	 mov	 eax, DWORD PTR __Last$[ebp]
  0002d	f3 0f 10 40 10	 movss	 xmm0, DWORD PTR [eax+16]
  00032	f3 0f 10 4e 10	 movss	 xmm1, DWORD PTR [esi+16]
  00037	0f 5a c0	 cvtps2pd xmm0, xmm0
  0003a	0f 5a c9	 cvtps2pd xmm1, xmm1
  0003d	66 0f 2f c8	 comisd	 xmm1, xmm0
  00041	76 09		 jbe	 SHORT $LN14@Med3

; 3687 : 		_STD iter_swap(_Last, _Mid);

  00043	56		 push	 esi
  00044	50		 push	 eax
  00045	e8 00 00 00 00	 call	 ??$swap@UtagBaseCharDistanceSq@@@std@@YAXAAUtagBaseCharDistanceSq@@0@Z ; std::swap<tagBaseCharDistanceSq>
  0004a	59		 pop	 ecx
  0004b	59		 pop	 ecx
$LN14@Med3:

; 3688 : 	if (_DEBUG_LT_PRED(_Pred, *_Mid, *_First))

  0004c	f3 0f 10 46 10	 movss	 xmm0, DWORD PTR [esi+16]
  00051	f3 0f 10 4f 10	 movss	 xmm1, DWORD PTR [edi+16]
  00056	0f 5a c0	 cvtps2pd xmm0, xmm0
  00059	0f 5a c9	 cvtps2pd xmm1, xmm1
  0005c	66 0f 2f c8	 comisd	 xmm1, xmm0
  00060	76 09		 jbe	 SHORT $LN19@Med3

; 3689 : 		_STD iter_swap(_Mid, _First);

  00062	57		 push	 edi
  00063	56		 push	 esi
  00064	e8 00 00 00 00	 call	 ??$swap@UtagBaseCharDistanceSq@@@std@@YAXAAUtagBaseCharDistanceSq@@0@Z ; std::swap<tagBaseCharDistanceSq>
  00069	59		 pop	 ecx
  0006a	59		 pop	 ecx
$LN19@Med3:
  0006b	5f		 pop	 edi
  0006c	5e		 pop	 esi

; 3690 : 	}

  0006d	5d		 pop	 ebp
  0006e	c3		 ret	 0
??$_Med3@PAUtagBaseCharDistanceSq@@VBaseCharDistanceSqSort2@@@std@@YAXPAUtagBaseCharDistanceSq@@00VBaseCharDistanceSqSort2@@@Z ENDP ; std::_Med3<tagBaseCharDistanceSq *,BaseCharDistanceSqSort2>
_TEXT	ENDS
PUBLIC	??$_Adjust_heap@PAUtagBaseCharDistanceSq@@HU1@VBaseCharDistanceSqSort2@@@std@@YAXPAUtagBaseCharDistanceSq@@HH$$QAU1@VBaseCharDistanceSqSort2@@@Z ; std::_Adjust_heap<tagBaseCharDistanceSq *,int,tagBaseCharDistanceSq,BaseCharDistanceSqSort2>
; Function compile flags: /Ogsp
;	COMDAT ??$_Adjust_heap@PAUtagBaseCharDistanceSq@@HU1@VBaseCharDistanceSqSort2@@@std@@YAXPAUtagBaseCharDistanceSq@@HH$$QAU1@VBaseCharDistanceSqSort2@@@Z
_TEXT	SEGMENT
__First$ = 8						; size = 4
__Top$ = 12						; size = 4
__Hole$ = 12						; size = 4
__Bottom$ = 16						; size = 4
__Val$ = 20						; size = 4
__Pred$ = 24						; size = 1
??$_Adjust_heap@PAUtagBaseCharDistanceSq@@HU1@VBaseCharDistanceSqSort2@@@std@@YAXPAUtagBaseCharDistanceSq@@HH$$QAU1@VBaseCharDistanceSqSort2@@@Z PROC ; std::_Adjust_heap<tagBaseCharDistanceSq *,int,tagBaseCharDistanceSq,BaseCharDistanceSqSort2>, COMDAT

; 2565 : 	{	// percolate _Hole to _Bottom, then push _Val, using _Pred

  00000	55		 push	 ebp
  00001	8b ec		 mov	 ebp, esp

; 2566 : 	_Diff _Top = _Hole;

  00003	8b 4d 0c	 mov	 ecx, DWORD PTR __Hole$[ebp]
  00006	53		 push	 ebx

; 2567 : 	_Diff _Idx = 2 * _Hole + 2;
; 2568 : 
; 2569 : 	for (; _Idx < _Bottom; _Idx = 2 * _Idx + 2)

  00007	8b 5d 10	 mov	 ebx, DWORD PTR __Bottom$[ebp]
  0000a	56		 push	 esi
  0000b	57		 push	 edi
  0000c	8b 7d 08	 mov	 edi, DWORD PTR __First$[ebp]
  0000f	89 4d 0c	 mov	 DWORD PTR __Top$[ebp], ecx
  00012	8d 74 09 02	 lea	 esi, DWORD PTR [ecx+ecx+2]
  00016	eb 36		 jmp	 SHORT $LN20@Adjust_hea
$LL5@Adjust_hea:

; 2570 : 		{	// move _Hole down to larger child
; 2571 : 		if (_DEBUG_LT_PRED(_Pred, *(_First + _Idx), *(_First + (_Idx - 1))))

  00018	8b c6		 mov	 eax, esi
  0001a	c1 e0 05	 shl	 eax, 5
  0001d	f3 0f 10 44 38
	10		 movss	 xmm0, DWORD PTR [eax+edi+16]
  00023	f3 0f 10 4c 38
	f0		 movss	 xmm1, DWORD PTR [eax+edi-16]
  00029	0f 5a c0	 cvtps2pd xmm0, xmm0
  0002c	0f 5a c9	 cvtps2pd xmm1, xmm1
  0002f	66 0f 2f c8	 comisd	 xmm1, xmm0
  00033	76 01		 jbe	 SHORT $LN2@Adjust_hea

; 2572 : 			--_Idx;

  00035	4e		 dec	 esi
$LN2@Adjust_hea:

; 2573 : 		*(_First + _Hole) = _Move(*(_First + _Idx));

  00036	8b c6		 mov	 eax, esi
  00038	c1 e0 05	 shl	 eax, 5
  0003b	03 c7		 add	 eax, edi
  0003d	c1 e1 05	 shl	 ecx, 5
  00040	50		 push	 eax
  00041	03 cf		 add	 ecx, edi
  00043	e8 00 00 00 00	 call	 ??4tagBaseCharDistanceSq@@QAEAAU0@ABU0@@Z

; 2574 : 		_Hole = _Idx;

  00048	8b ce		 mov	 ecx, esi
  0004a	8d 74 36 02	 lea	 esi, DWORD PTR [esi+esi+2]
$LN20@Adjust_hea:

; 2567 : 	_Diff _Idx = 2 * _Hole + 2;
; 2568 : 
; 2569 : 	for (; _Idx < _Bottom; _Idx = 2 * _Idx + 2)

  0004e	3b f3		 cmp	 esi, ebx
  00050	7c c6		 jl	 SHORT $LL5@Adjust_hea

; 2575 : 		}
; 2576 : 
; 2577 : 	if (_Idx == _Bottom)

  00052	75 17		 jne	 SHORT $LN1@Adjust_hea

; 2578 : 		{	// only child at bottom, move _Hole down to it
; 2579 : 		*(_First + _Hole) = _Move(*(_First + (_Bottom - 1)));

  00054	8b c3		 mov	 eax, ebx
  00056	c1 e0 05	 shl	 eax, 5
  00059	8d 44 38 e0	 lea	 eax, DWORD PTR [eax+edi-32]
  0005d	c1 e1 05	 shl	 ecx, 5
  00060	50		 push	 eax
  00061	03 cf		 add	 ecx, edi
  00063	e8 00 00 00 00	 call	 ??4tagBaseCharDistanceSq@@QAEAAU0@ABU0@@Z

; 2580 : 		_Hole = _Bottom - 1;

  00068	8d 4b ff	 lea	 ecx, DWORD PTR [ebx-1]
$LN1@Adjust_hea:

; 2581 : 		}
; 2582 : 	_Push_heap(_First, _Hole, _Top, _Move(_Val), _Pred);

  0006b	ff 75 18	 push	 DWORD PTR __Pred$[ebp]
  0006e	ff 75 14	 push	 DWORD PTR __Val$[ebp]
  00071	ff 75 0c	 push	 DWORD PTR __Top$[ebp]
  00074	51		 push	 ecx
  00075	57		 push	 edi
  00076	e8 00 00 00 00	 call	 ??$_Push_heap@PAUtagBaseCharDistanceSq@@HU1@VBaseCharDistanceSqSort2@@@std@@YAXPAUtagBaseCharDistanceSq@@HH$$QAU1@VBaseCharDistanceSqSort2@@@Z ; std::_Push_heap<tagBaseCharDistanceSq *,int,tagBaseCharDistanceSq,BaseCharDistanceSqSort2>
  0007b	83 c4 14	 add	 esp, 20			; 00000014H
  0007e	5f		 pop	 edi
  0007f	5e		 pop	 esi
  00080	5b		 pop	 ebx

; 2583 : 	}

  00081	5d		 pop	 ebp
  00082	c3		 ret	 0
??$_Adjust_heap@PAUtagBaseCharDistanceSq@@HU1@VBaseCharDistanceSqSort2@@@std@@YAXPAUtagBaseCharDistanceSq@@HH$$QAU1@VBaseCharDistanceSqSort2@@@Z ENDP ; std::_Adjust_heap<tagBaseCharDistanceSq *,int,tagBaseCharDistanceSq,BaseCharDistanceSqSort2>
_TEXT	ENDS
PUBLIC	??$_Pop_heap@PAUtagBaseCharDistanceSq@@HU1@VBaseCharDistanceSqSort2@@@std@@YAXPAUtagBaseCharDistanceSq@@00$$QAU1@VBaseCharDistanceSqSort2@@PAH@Z ; std::_Pop_heap<tagBaseCharDistanceSq *,int,tagBaseCharDistanceSq,BaseCharDistanceSqSort2>
; Function compile flags: /Ogsp
;	COMDAT ??$_Pop_heap@PAUtagBaseCharDistanceSq@@HU1@VBaseCharDistanceSqSort2@@@std@@YAXPAUtagBaseCharDistanceSq@@00$$QAU1@VBaseCharDistanceSqSort2@@PAH@Z
_TEXT	SEGMENT
__First$ = 8						; size = 4
__Last$ = 12						; size = 4
__Dest$ = 16						; size = 4
__Val$ = 20						; size = 4
__Pred$ = 24						; size = 1
___formal$ = 28						; size = 4
??$_Pop_heap@PAUtagBaseCharDistanceSq@@HU1@VBaseCharDistanceSqSort2@@@std@@YAXPAUtagBaseCharDistanceSq@@00$$QAU1@VBaseCharDistanceSqSort2@@PAH@Z PROC ; std::_Pop_heap<tagBaseCharDistanceSq *,int,tagBaseCharDistanceSq,BaseCharDistanceSqSort2>, COMDAT

; 2591 : 	{	// pop *_First to *_Dest and reheap, using _Pred

  00000	55		 push	 ebp
  00001	8b ec		 mov	 ebp, esp

; 2592 : 	*_Dest = _Move(*_First);

  00003	ff 75 08	 push	 DWORD PTR __First$[ebp]
  00006	8b 4d 10	 mov	 ecx, DWORD PTR __Dest$[ebp]
  00009	e8 00 00 00 00	 call	 ??4tagBaseCharDistanceSq@@QAEAAU0@ABU0@@Z

; 2593 : 	_Adjust_heap(_First, _Diff(0), _Diff(_Last - _First),
; 2594 : 		_Move(_Val), _Pred);

  0000e	ff 75 18	 push	 DWORD PTR __Pred$[ebp]
  00011	8b 45 0c	 mov	 eax, DWORD PTR __Last$[ebp]
  00014	2b 45 08	 sub	 eax, DWORD PTR __First$[ebp]
  00017	ff 75 14	 push	 DWORD PTR __Val$[ebp]
  0001a	c1 f8 05	 sar	 eax, 5
  0001d	50		 push	 eax
  0001e	6a 00		 push	 0
  00020	ff 75 08	 push	 DWORD PTR __First$[ebp]
  00023	e8 00 00 00 00	 call	 ??$_Adjust_heap@PAUtagBaseCharDistanceSq@@HU1@VBaseCharDistanceSqSort2@@@std@@YAXPAUtagBaseCharDistanceSq@@HH$$QAU1@VBaseCharDistanceSqSort2@@@Z ; std::_Adjust_heap<tagBaseCharDistanceSq *,int,tagBaseCharDistanceSq,BaseCharDistanceSqSort2>
  00028	83 c4 14	 add	 esp, 20			; 00000014H

; 2595 : 	}

  0002b	5d		 pop	 ebp
  0002c	c3		 ret	 0
??$_Pop_heap@PAUtagBaseCharDistanceSq@@HU1@VBaseCharDistanceSqSort2@@@std@@YAXPAUtagBaseCharDistanceSq@@00$$QAU1@VBaseCharDistanceSqSort2@@PAH@Z ENDP ; std::_Pop_heap<tagBaseCharDistanceSq *,int,tagBaseCharDistanceSq,BaseCharDistanceSqSort2>
_TEXT	ENDS
PUBLIC	?GetTeam@ioPlayEntity@@QBE?AW4TeamType@@XZ	; ioPlayEntity::GetTeam
; Function compile flags: /Ogsp
; File d:\lost saga for developer\youtube\tutorial\source\src\lsclient\ioplayentity.h
;	COMDAT ?GetTeam@ioPlayEntity@@QBE?AW4TeamType@@XZ
_TEXT	SEGMENT
_value$556548 = -4					; size = 4
?GetTeam@ioPlayEntity@@QBE?AW4TeamType@@XZ PROC		; ioPlayEntity::GetTeam, COMDAT
; _this$ = ecx

; 107  : 	inline TeamType GetTeam() const { return m_TeamType; }

  00000	55		 push	 ebp
  00001	8b ec		 mov	 ebp, esp
  00003	51		 push	 ecx
  00004	8d 45 fc	 lea	 eax, DWORD PTR _value$556548[ebp]
  00007	50		 push	 eax
  00008	81 c1 90 00 00
	00		 add	 ecx, 144		; 00000090H
  0000e	e8 00 00 00 00	 call	 ?DecryptValueToPool@?$CEncrypt@W4TeamType@@@@QAEXPAW4TeamType@@@Z ; CEncrypt<enum TeamType>::DecryptValueToPool
  00013	8b 45 fc	 mov	 eax, DWORD PTR _value$556548[ebp]
  00016	c9		 leave
  00017	c3		 ret	 0
?GetTeam@ioPlayEntity@@QBE?AW4TeamType@@XZ ENDP		; ioPlayEntity::GetTeam
; Function compile flags: /Ogsp
; File d:\lost saga for developer\youtube\tutorial\source\src\lsclient\ioskill.h
_TEXT	ENDS
;	COMDAT ?IsCanJumpingSkill@ioSkill@@UBE_NXZ
_TEXT	SEGMENT
_value$556555 = -1					; size = 1
?IsCanJumpingSkill@ioSkill@@UBE_NXZ PROC		; ioSkill::IsCanJumpingSkill, COMDAT
; _this$ = ecx

; 431  : 	virtual bool IsCanJumpingSkill() const { return m_bEnableJumpingSkill; }

  00000	55		 push	 ebp
  00001	8b ec		 mov	 ebp, esp
  00003	51		 push	 ecx
  00004	8d 45 ff	 lea	 eax, DWORD PTR _value$556555[ebp]
  00007	50		 push	 eax
  00008	81 c1 9c 03 00
	00		 add	 ecx, 924		; 0000039cH
  0000e	e8 00 00 00 00	 call	 ?DecryptValueToPool@?$CEncrypt@_N@@QAEXPA_N@Z ; CEncrypt<bool>::DecryptValueToPool
  00013	8a 45 ff	 mov	 al, BYTE PTR _value$556555[ebp]
  00016	c9		 leave
  00017	c3		 ret	 0
?IsCanJumpingSkill@ioSkill@@UBE_NXZ ENDP		; ioSkill::IsCanJumpingSkill
; Function compile flags: /Ogsp
_TEXT	ENDS
;	COMDAT ?IsCanJumpingSkillOnBlowWound@ioSkill@@UBE_NXZ
_TEXT	SEGMENT
_value$556562 = -1					; size = 1
?IsCanJumpingSkillOnBlowWound@ioSkill@@UBE_NXZ PROC	; ioSkill::IsCanJumpingSkillOnBlowWound, COMDAT
; _this$ = ecx

; 432  : 	virtual bool IsCanJumpingSkillOnBlowWound() const { return m_bEnableJumpingSkillOnBlowWound; }

  00000	55		 push	 ebp
  00001	8b ec		 mov	 ebp, esp
  00003	51		 push	 ecx
  00004	8d 45 ff	 lea	 eax, DWORD PTR _value$556562[ebp]
  00007	50		 push	 eax
  00008	81 c1 cc 03 00
	00		 add	 ecx, 972		; 000003ccH
  0000e	e8 00 00 00 00	 call	 ?DecryptValueToPool@?$CEncrypt@_N@@QAEXPA_N@Z ; CEncrypt<bool>::DecryptValueToPool
  00013	8a 45 ff	 mov	 al, BYTE PTR _value$556562[ebp]
  00016	c9		 leave
  00017	c3		 ret	 0
?IsCanJumpingSkillOnBlowWound@ioSkill@@UBE_NXZ ENDP	; ioSkill::IsCanJumpingSkillOnBlowWound
; Function compile flags: /Ogsp
_TEXT	ENDS
;	COMDAT ?IsCanDownSkill@ioSkill@@UBE_NXZ
_TEXT	SEGMENT
_value$556569 = -1					; size = 1
?IsCanDownSkill@ioSkill@@UBE_NXZ PROC			; ioSkill::IsCanDownSkill, COMDAT
; _this$ = ecx

; 437  : 	virtual bool IsCanDownSkill() const { return m_bEnableDownSkill; }

  00000	55		 push	 ebp
  00001	8b ec		 mov	 ebp, esp
  00003	51		 push	 ecx
  00004	8d 45 ff	 lea	 eax, DWORD PTR _value$556569[ebp]
  00007	50		 push	 eax
  00008	81 c1 5c 04 00
	00		 add	 ecx, 1116		; 0000045cH
  0000e	e8 00 00 00 00	 call	 ?DecryptValueToPool@?$CEncrypt@_N@@QAEXPA_N@Z ; CEncrypt<bool>::DecryptValueToPool
  00013	8a 45 ff	 mov	 al, BYTE PTR _value$556569[ebp]
  00016	c9		 leave
  00017	c3		 ret	 0
?IsCanDownSkill@ioSkill@@UBE_NXZ ENDP			; ioSkill::IsCanDownSkill
; Function compile flags: /Ogsp
_TEXT	ENDS
;	COMDAT ?IsCanBlowWoundSkill@ioSkill@@UBE_NXZ
_TEXT	SEGMENT
_value$556576 = -1					; size = 1
?IsCanBlowWoundSkill@ioSkill@@UBE_NXZ PROC		; ioSkill::IsCanBlowWoundSkill, COMDAT
; _this$ = ecx

; 440  : 	virtual bool IsCanBlowWoundSkill() const { return m_bEnableBlowWoundSkill; }

  00000	55		 push	 ebp
  00001	8b ec		 mov	 ebp, esp
  00003	51		 push	 ecx
  00004	8d 45 ff	 lea	 eax, DWORD PTR _value$556576[ebp]
  00007	50		 push	 eax
  00008	81 c1 8c 04 00
	00		 add	 ecx, 1164		; 0000048cH
  0000e	e8 00 00 00 00	 call	 ?DecryptValueToPool@?$CEncrypt@_N@@QAEXPA_N@Z ; CEncrypt<bool>::DecryptValueToPool
  00013	8a 45 ff	 mov	 al, BYTE PTR _value$556576[ebp]
  00016	c9		 leave
  00017	c3		 ret	 0
?IsCanBlowWoundSkill@ioSkill@@UBE_NXZ ENDP		; ioSkill::IsCanBlowWoundSkill
; Function compile flags: /Ogsp
_TEXT	ENDS
;	COMDAT ?IsCanWoundSkill@ioSkill@@UBE_NXZ
_TEXT	SEGMENT
_value$556583 = -1					; size = 1
?IsCanWoundSkill@ioSkill@@UBE_NXZ PROC			; ioSkill::IsCanWoundSkill, COMDAT
; _this$ = ecx

; 446  : 	virtual bool IsCanWoundSkill() const { return m_bEnableWoundSkill; }

  00000	55		 push	 ebp
  00001	8b ec		 mov	 ebp, esp
  00003	51		 push	 ecx
  00004	8d 45 ff	 lea	 eax, DWORD PTR _value$556583[ebp]
  00007	50		 push	 eax
  00008	81 c1 54 05 00
	00		 add	 ecx, 1364		; 00000554H
  0000e	e8 00 00 00 00	 call	 ?DecryptValueToPool@?$CEncrypt@_N@@QAEXPA_N@Z ; CEncrypt<bool>::DecryptValueToPool
  00013	8a 45 ff	 mov	 al, BYTE PTR _value$556583[ebp]
  00016	c9		 leave
  00017	c3		 ret	 0
?IsCanWoundSkill@ioSkill@@UBE_NXZ ENDP			; ioSkill::IsCanWoundSkill
_TEXT	ENDS
PUBLIC	??0?$CEncrypt@M@@QAE@ABM@Z			; CEncrypt<float>::CEncrypt<float>
;	COMDAT xdata$x
; File d:\lost saga for developer\youtube\tutorial\source\src\lsclient\encryptvalue.h
xdata$x	SEGMENT
__unwindtable$??0?$CEncrypt@M@@QAE@ABM@Z DD 0ffffffffH
	DD	FLAT:__unwindfunclet$??0?$CEncrypt@M@@QAE@ABM@Z$0
__ehfuncinfo$??0?$CEncrypt@M@@QAE@ABM@Z DD 019930522H
	DD	01H
	DD	FLAT:__unwindtable$??0?$CEncrypt@M@@QAE@ABM@Z
	DD	2 DUP(00H)
	DD	2 DUP(00H)
	DD	00H
	DD	01H
; Function compile flags: /Ogsp
xdata$x	ENDS
;	COMDAT ??0?$CEncrypt@M@@QAE@ABM@Z
_TEXT	SEGMENT
_this$ = -16						; size = 4
__$EHRec$ = -12						; size = 12
_value$556591 = 8					; size = 4
_inValue$ = 8						; size = 4
??0?$CEncrypt@M@@QAE@ABM@Z PROC				; CEncrypt<float>::CEncrypt<float>, COMDAT
; _this$ = ecx

; 114  : 	CEncrypt( const type &inValue )        //     

  00000	6a 04		 push	 4
  00002	b8 00 00 00 00	 mov	 eax, __ehhandler$??0?$CEncrypt@M@@QAE@ABM@Z
  00007	e8 00 00 00 00	 call	 __EH_prolog3
  0000c	8b f1		 mov	 esi, ecx
  0000e	89 75 f0	 mov	 DWORD PTR _this$[ebp], esi
  00011	8d 4e 0c	 lea	 ecx, DWORD PTR [esi+12]
  00014	c7 06 00 00 00
	00		 mov	 DWORD PTR [esi], OFFSET ??_7?$CEncrypt@M@@6B@
  0001a	e8 00 00 00 00	 call	 ??0ccddaabb@@QAE@XZ	; ccddaabb::ccddaabb
  0001f	83 65 fc 00	 and	 DWORD PTR __$EHRec$[ebp+8], 0

; 115  : 	{
; 116  : 		Init();

  00023	8b ce		 mov	 ecx, esi
  00025	e8 00 00 00 00	 call	 ?Init@?$CEncrypt@M@@AAEXXZ ; CEncrypt<float>::Init

; 117  : 		*this = inValue;

  0002a	8b 45 08	 mov	 eax, DWORD PTR _inValue$[ebp]
  0002d	f3 0f 10 00	 movss	 xmm0, DWORD PTR [eax]
  00031	8d 45 08	 lea	 eax, DWORD PTR _value$556591[ebp]
  00034	50		 push	 eax
  00035	8b ce		 mov	 ecx, esi
  00037	f3 0f 11 45 08	 movss	 DWORD PTR _value$556591[ebp], xmm0
  0003c	e8 00 00 00 00	 call	 ?EncryptValueToPool@?$CEncrypt@M@@AAEXPBD@Z ; CEncrypt<float>::EncryptValueToPool

; 118  : 	}

  00041	8b c6		 mov	 eax, esi
  00043	e8 00 00 00 00	 call	 __EH_epilog3
  00048	c2 04 00	 ret	 4
_TEXT	ENDS
;	COMDAT text$x
text$x	SEGMENT
__unwindfunclet$??0?$CEncrypt@M@@QAE@ABM@Z$0:
  00000	8b 4d f0	 mov	 ecx, DWORD PTR _this$[ebp]
  00003	83 c1 0c	 add	 ecx, 12			; 0000000cH
  00006	e9 00 00 00 00	 jmp	 ??1ccddaabb@@UAE@XZ	; ccddaabb::~ccddaabb
__ehhandler$??0?$CEncrypt@M@@QAE@ABM@Z:
  0000b	8b 54 24 08	 mov	 edx, DWORD PTR [esp+8]
  0000f	8d 42 0c	 lea	 eax, DWORD PTR [edx+12]
  00012	8b 4a ec	 mov	 ecx, DWORD PTR [edx-20]
  00015	33 c8		 xor	 ecx, eax
  00017	e8 00 00 00 00	 call	 @__security_check_cookie@4
  0001c	b8 00 00 00 00	 mov	 eax, OFFSET __ehfuncinfo$??0?$CEncrypt@M@@QAE@ABM@Z
  00021	e9 00 00 00 00	 jmp	 ___CxxFrameHandler3
text$x	ENDS
??0?$CEncrypt@M@@QAE@ABM@Z ENDP				; CEncrypt<float>::CEncrypt<float>
PUBLIC	??0?$CEncrypt@M@@QAE@ABV0@@Z			; CEncrypt<float>::CEncrypt<float>
;	COMDAT xdata$x
xdata$x	SEGMENT
__unwindtable$??0?$CEncrypt@M@@QAE@ABV0@@Z DD 0ffffffffH
	DD	FLAT:__unwindfunclet$??0?$CEncrypt@M@@QAE@ABV0@@Z$0
__ehfuncinfo$??0?$CEncrypt@M@@QAE@ABV0@@Z DD 019930522H
	DD	01H
	DD	FLAT:__unwindtable$??0?$CEncrypt@M@@QAE@ABV0@@Z
	DD	2 DUP(00H)
	DD	2 DUP(00H)
	DD	00H
	DD	01H
; Function compile flags: /Ogsp
xdata$x	ENDS
;	COMDAT ??0?$CEncrypt@M@@QAE@ABV0@@Z
_TEXT	SEGMENT
_this$ = -16						; size = 4
__$EHRec$ = -12						; size = 12
_value$556610 = 8					; size = 4
_value$556605 = 8					; size = 4
_inValue$ = 8						; size = 4
??0?$CEncrypt@M@@QAE@ABV0@@Z PROC			; CEncrypt<float>::CEncrypt<float>, COMDAT
; _this$ = ecx

; 120  : 	CEncrypt( const CEncrypt<type> &inValue )   //     

  00000	6a 04		 push	 4
  00002	b8 00 00 00 00	 mov	 eax, __ehhandler$??0?$CEncrypt@M@@QAE@ABV0@@Z
  00007	e8 00 00 00 00	 call	 __EH_prolog3
  0000c	8b f1		 mov	 esi, ecx
  0000e	89 75 f0	 mov	 DWORD PTR _this$[ebp], esi
  00011	8d 4e 0c	 lea	 ecx, DWORD PTR [esi+12]
  00014	c7 06 00 00 00
	00		 mov	 DWORD PTR [esi], OFFSET ??_7?$CEncrypt@M@@6B@
  0001a	e8 00 00 00 00	 call	 ??0ccddaabb@@QAE@XZ	; ccddaabb::ccddaabb
  0001f	83 65 fc 00	 and	 DWORD PTR __$EHRec$[ebp+8], 0

; 121  : 	{
; 122  : 		Init();

  00023	8b ce		 mov	 ecx, esi
  00025	e8 00 00 00 00	 call	 ?Init@?$CEncrypt@M@@AAEXXZ ; CEncrypt<float>::Init

; 123  : 		*this = inValue;

  0002a	8b 4d 08	 mov	 ecx, DWORD PTR _inValue$[ebp]
  0002d	8d 45 08	 lea	 eax, DWORD PTR _value$556605[ebp]
  00030	50		 push	 eax
  00031	e8 00 00 00 00	 call	 ?DecryptValueToPool@?$CEncrypt@M@@QAEXPAM@Z ; CEncrypt<float>::DecryptValueToPool
  00036	f3 0f 10 45 08	 movss	 xmm0, DWORD PTR _value$556605[ebp]
  0003b	8d 45 08	 lea	 eax, DWORD PTR _value$556610[ebp]
  0003e	50		 push	 eax
  0003f	8b ce		 mov	 ecx, esi
  00041	f3 0f 11 45 08	 movss	 DWORD PTR _value$556610[ebp], xmm0
  00046	e8 00 00 00 00	 call	 ?EncryptValueToPool@?$CEncrypt@M@@AAEXPBD@Z ; CEncrypt<float>::EncryptValueToPool

; 124  : 	}

  0004b	8b c6		 mov	 eax, esi
  0004d	e8 00 00 00 00	 call	 __EH_epilog3
  00052	c2 04 00	 ret	 4
_TEXT	ENDS
;	COMDAT text$x
text$x	SEGMENT
__unwindfunclet$??0?$CEncrypt@M@@QAE@ABV0@@Z$0:
  00000	8b 4d f0	 mov	 ecx, DWORD PTR _this$[ebp]
  00003	83 c1 0c	 add	 ecx, 12			; 0000000cH
  00006	e9 00 00 00 00	 jmp	 ??1ccddaabb@@UAE@XZ	; ccddaabb::~ccddaabb
__ehhandler$??0?$CEncrypt@M@@QAE@ABV0@@Z:
  0000b	8b 54 24 08	 mov	 edx, DWORD PTR [esp+8]
  0000f	8d 42 0c	 lea	 eax, DWORD PTR [edx+12]
  00012	8b 4a ec	 mov	 ecx, DWORD PTR [edx-20]
  00015	33 c8		 xor	 ecx, eax
  00017	e8 00 00 00 00	 call	 @__security_check_cookie@4
  0001c	b8 00 00 00 00	 mov	 eax, OFFSET __ehfuncinfo$??0?$CEncrypt@M@@QAE@ABV0@@Z
  00021	e9 00 00 00 00	 jmp	 ___CxxFrameHandler3
text$x	ENDS
??0?$CEncrypt@M@@QAE@ABV0@@Z ENDP			; CEncrypt<float>::CEncrypt<float>
PUBLIC	??0ioTargetBuffSkill@@QAE@ABV0@@Z		; ioTargetBuffSkill::ioTargetBuffSkill
EXTRN	??0ioBuffSkill@@QAE@ABV0@@Z:PROC		; ioBuffSkill::ioBuffSkill
;	COMDAT xdata$x
; File d:\lost saga for developer\youtube\tutorial\source\src\lsclient\iotargetbuffskill.cpp
xdata$x	SEGMENT
__ehfuncinfo$??0ioTargetBuffSkill@@QAE@ABV0@@Z DD 019930522H
	DD	07H
	DD	FLAT:__unwindtable$??0ioTargetBuffSkill@@QAE@ABV0@@Z
	DD	2 DUP(00H)
	DD	2 DUP(00H)
	DD	00H
	DD	01H
__unwindtable$??0ioTargetBuffSkill@@QAE@ABV0@@Z DD 0ffffffffH
	DD	FLAT:__unwindfunclet$??0ioTargetBuffSkill@@QAE@ABV0@@Z$0
	DD	00H
	DD	FLAT:__unwindfunclet$??0ioTargetBuffSkill@@QAE@ABV0@@Z$1
	DD	01H
	DD	FLAT:__unwindfunclet$??0ioTargetBuffSkill@@QAE@ABV0@@Z$2
	DD	02H
	DD	FLAT:__unwindfunclet$??0ioTargetBuffSkill@@QAE@ABV0@@Z$3
	DD	03H
	DD	FLAT:__unwindfunclet$??0ioTargetBuffSkill@@QAE@ABV0@@Z$4
	DD	04H
	DD	FLAT:__unwindfunclet$??0ioTargetBuffSkill@@QAE@ABV0@@Z$5
	DD	05H
	DD	FLAT:__unwindfunclet$??0ioTargetBuffSkill@@QAE@ABV0@@Z$6
; Function compile flags: /Ogsp
xdata$x	ENDS
;	COMDAT ??0ioTargetBuffSkill@@QAE@ABV0@@Z
_TEXT	SEGMENT
_this$ = -16						; size = 4
__$EHRec$ = -12						; size = 12
_rhs$ = 8						; size = 4
??0ioTargetBuffSkill@@QAE@ABV0@@Z PROC			; ioTargetBuffSkill::ioTargetBuffSkill, COMDAT
; _this$ = ecx

; 25   : {

  00000	6a 04		 push	 4
  00002	b8 00 00 00 00	 mov	 eax, __ehhandler$??0ioTargetBuffSkill@@QAE@ABV0@@Z
  00007	e8 00 00 00 00	 call	 __EH_prolog3
  0000c	8b f1		 mov	 esi, ecx
  0000e	89 75 f0	 mov	 DWORD PTR _this$[ebp], esi
  00011	8b 7d 08	 mov	 edi, DWORD PTR _rhs$[ebp]
  00014	57		 push	 edi
  00015	e8 00 00 00 00	 call	 ??0ioBuffSkill@@QAE@ABV0@@Z ; ioBuffSkill::ioBuffSkill
  0001a	8b 1d 00 00 00
	00		 mov	 ebx, DWORD PTR __imp_??0ioHashString@@QAE@ABV0@@Z
  00020	83 65 fc 00	 and	 DWORD PTR __$EHRec$[ebp+8], 0
  00024	8d 87 0c 10 00
	00		 lea	 eax, DWORD PTR [edi+4108]
  0002a	50		 push	 eax
  0002b	8d 8e 0c 10 00
	00		 lea	 ecx, DWORD PTR [esi+4108]
  00031	c7 06 00 00 00
	00		 mov	 DWORD PTR [esi], OFFSET ??_7ioTargetBuffSkill@@6B@
  00037	ff d3		 call	 ebx
  00039	8d 87 1c 10 00
	00		 lea	 eax, DWORD PTR [edi+4124]
  0003f	50		 push	 eax
  00040	8d 8e 1c 10 00
	00		 lea	 ecx, DWORD PTR [esi+4124]
  00046	c6 45 fc 01	 mov	 BYTE PTR __$EHRec$[ebp+8], 1
  0004a	e8 00 00 00 00	 call	 ??0?$CEncrypt@M@@QAE@ABV0@@Z ; CEncrypt<float>::CEncrypt<float>
  0004f	8b 87 50 10 00
	00		 mov	 eax, DWORD PTR [edi+4176]
  00055	89 86 50 10 00
	00		 mov	 DWORD PTR [esi+4176], eax
  0005b	8d 87 54 10 00
	00		 lea	 eax, DWORD PTR [edi+4180]
  00061	50		 push	 eax
  00062	8d 8e 54 10 00
	00		 lea	 ecx, DWORD PTR [esi+4180]
  00068	c6 45 fc 02	 mov	 BYTE PTR __$EHRec$[ebp+8], 2
  0006c	e8 00 00 00 00	 call	 ??0?$CEncrypt@M@@QAE@ABV0@@Z ; CEncrypt<float>::CEncrypt<float>
  00071	8d 87 84 10 00
	00		 lea	 eax, DWORD PTR [edi+4228]
  00077	50		 push	 eax
  00078	8d 8e 84 10 00
	00		 lea	 ecx, DWORD PTR [esi+4228]
  0007e	c6 45 fc 03	 mov	 BYTE PTR __$EHRec$[ebp+8], 3
  00082	e8 00 00 00 00	 call	 ??0?$CEncrypt@M@@QAE@ABV0@@Z ; CEncrypt<float>::CEncrypt<float>
  00087	8b 87 b4 10 00
	00		 mov	 eax, DWORD PTR [edi+4276]
  0008d	81 c7 b8 10 00
	00		 add	 edi, 4280		; 000010b8H
  00093	57		 push	 edi
  00094	8d 8e b8 10 00
	00		 lea	 ecx, DWORD PTR [esi+4280]
  0009a	c6 45 fc 04	 mov	 BYTE PTR __$EHRec$[ebp+8], 4
  0009e	89 86 b4 10 00
	00		 mov	 DWORD PTR [esi+4276], eax
  000a4	ff d3		 call	 ebx
  000a6	8d 8e cc 10 00
	00		 lea	 ecx, DWORD PTR [esi+4300]
  000ac	c6 45 fc 05	 mov	 BYTE PTR __$EHRec$[ebp+8], 5
  000b0	ff 15 00 00 00
	00		 call	 DWORD PTR __imp_??0ioHashString@@QAE@XZ

; 26   : 	ClearData();

  000b6	8b ce		 mov	 ecx, esi
  000b8	c6 45 fc 06	 mov	 BYTE PTR __$EHRec$[ebp+8], 6
  000bc	e8 00 00 00 00	 call	 ?ClearData@ioTargetBuffSkill@@IAEXXZ ; ioTargetBuffSkill::ClearData

; 27   : }

  000c1	8b c6		 mov	 eax, esi
  000c3	e8 00 00 00 00	 call	 __EH_epilog3
  000c8	c2 04 00	 ret	 4
_TEXT	ENDS
;	COMDAT text$x
text$x	SEGMENT
__unwindfunclet$??0ioTargetBuffSkill@@QAE@ABV0@@Z$0:
  00000	8b 4d f0	 mov	 ecx, DWORD PTR _this$[ebp]
  00003	e9 00 00 00 00	 jmp	 ??1ioBuffSkill@@UAE@XZ	; ioBuffSkill::~ioBuffSkill
__unwindfunclet$??0ioTargetBuffSkill@@QAE@ABV0@@Z$1:
  00008	8b 4d f0	 mov	 ecx, DWORD PTR _this$[ebp]
  0000b	81 c1 0c 10 00
	00		 add	 ecx, 4108		; 0000100cH
  00011	ff 25 00 00 00
	00		 jmp	 DWORD PTR __imp_??1ioHashString@@QAE@XZ
__unwindfunclet$??0ioTargetBuffSkill@@QAE@ABV0@@Z$2:
  00017	8b 4d f0	 mov	 ecx, DWORD PTR _this$[ebp]
  0001a	81 c1 1c 10 00
	00		 add	 ecx, 4124		; 0000101cH
  00020	e9 00 00 00 00	 jmp	 ??1?$CEncrypt@M@@UAE@XZ	; CEncrypt<float>::~CEncrypt<float>
__unwindfunclet$??0ioTargetBuffSkill@@QAE@ABV0@@Z$3:
  00025	8b 4d f0	 mov	 ecx, DWORD PTR _this$[ebp]
  00028	81 c1 54 10 00
	00		 add	 ecx, 4180		; 00001054H
  0002e	e9 00 00 00 00	 jmp	 ??1?$CEncrypt@M@@UAE@XZ	; CEncrypt<float>::~CEncrypt<float>
__unwindfunclet$??0ioTargetBuffSkill@@QAE@ABV0@@Z$4:
  00033	8b 4d f0	 mov	 ecx, DWORD PTR _this$[ebp]
  00036	81 c1 84 10 00
	00		 add	 ecx, 4228		; 00001084H
  0003c	e9 00 00 00 00	 jmp	 ??1?$CEncrypt@M@@UAE@XZ	; CEncrypt<float>::~CEncrypt<float>
__unwindfunclet$??0ioTargetBuffSkill@@QAE@ABV0@@Z$5:
  00041	8b 4d f0	 mov	 ecx, DWORD PTR _this$[ebp]
  00044	81 c1 b8 10 00
	00		 add	 ecx, 4280		; 000010b8H
  0004a	ff 25 00 00 00
	00		 jmp	 DWORD PTR __imp_??1ioHashString@@QAE@XZ
__unwindfunclet$??0ioTargetBuffSkill@@QAE@ABV0@@Z$6:
  00050	8b 4d f0	 mov	 ecx, DWORD PTR _this$[ebp]
  00053	81 c1 cc 10 00
	00		 add	 ecx, 4300		; 000010ccH
  00059	ff 25 00 00 00
	00		 jmp	 DWORD PTR __imp_??1ioHashString@@QAE@XZ
__ehhandler$??0ioTargetBuffSkill@@QAE@ABV0@@Z:
  0005f	8b 54 24 08	 mov	 edx, DWORD PTR [esp+8]
  00063	8d 42 0c	 lea	 eax, DWORD PTR [edx+12]
  00066	8b 4a ec	 mov	 ecx, DWORD PTR [edx-20]
  00069	33 c8		 xor	 ecx, eax
  0006b	e8 00 00 00 00	 call	 @__security_check_cookie@4
  00070	b8 00 00 00 00	 mov	 eax, OFFSET __ehfuncinfo$??0ioTargetBuffSkill@@QAE@ABV0@@Z
  00075	e9 00 00 00 00	 jmp	 ___CxxFrameHandler3
text$x	ENDS
??0ioTargetBuffSkill@@QAE@ABV0@@Z ENDP			; ioTargetBuffSkill::ioTargetBuffSkill
;	COMDAT xdata$x
xdata$x	SEGMENT
__unwindtable$?Clone@ioTargetBuffSkill@@UAEPAVioSkill@@XZ DD 0ffffffffH
	DD	FLAT:__unwindfunclet$?Clone@ioTargetBuffSkill@@UAEPAVioSkill@@XZ$0
__ehfuncinfo$?Clone@ioTargetBuffSkill@@UAEPAVioSkill@@XZ DD 019930522H
	DD	01H
	DD	FLAT:__unwindtable$?Clone@ioTargetBuffSkill@@UAEPAVioSkill@@XZ
	DD	2 DUP(00H)
	DD	2 DUP(00H)
	DD	00H
	DD	01H
; Function compile flags: /Ogsp
xdata$x	ENDS
;	COMDAT ?Clone@ioTargetBuffSkill@@UAEPAVioSkill@@XZ
_TEXT	SEGMENT
$T556636 = -16						; size = 4
__$EHRec$ = -12						; size = 12
?Clone@ioTargetBuffSkill@@UAEPAVioSkill@@XZ PROC	; ioTargetBuffSkill::Clone, COMDAT
; _this$ = ecx

; 71   : {

  00000	6a 04		 push	 4
  00002	b8 00 00 00 00	 mov	 eax, __ehhandler$?Clone@ioTargetBuffSkill@@UAEPAVioSkill@@XZ
  00007	e8 00 00 00 00	 call	 __EH_prolog3
  0000c	8b f1		 mov	 esi, ecx

; 72   : 	return new ioTargetBuffSkill( *this );

  0000e	68 e4 10 00 00	 push	 4324			; 000010e4H
  00013	e8 00 00 00 00	 call	 ??2@YAPAXI@Z		; operator new
  00018	59		 pop	 ecx
  00019	8b c8		 mov	 ecx, eax
  0001b	89 4d f0	 mov	 DWORD PTR $T556636[ebp], ecx
  0001e	33 c0		 xor	 eax, eax
  00020	89 45 fc	 mov	 DWORD PTR __$EHRec$[ebp+8], eax
  00023	3b c8		 cmp	 ecx, eax
  00025	74 06		 je	 SHORT $LN3@Clone
  00027	56		 push	 esi
  00028	e8 00 00 00 00	 call	 ??0ioTargetBuffSkill@@QAE@ABV0@@Z ; ioTargetBuffSkill::ioTargetBuffSkill
$LN3@Clone:

; 73   : }

  0002d	e8 00 00 00 00	 call	 __EH_epilog3
  00032	c3		 ret	 0
_TEXT	ENDS
;	COMDAT text$x
text$x	SEGMENT
__unwindfunclet$?Clone@ioTargetBuffSkill@@UAEPAVioSkill@@XZ$0:
  00000	ff 75 f0	 push	 DWORD PTR $T556636[ebp]
  00003	e8 00 00 00 00	 call	 ??3@YAXPAX@Z		; operator delete
  00008	59		 pop	 ecx
  00009	c3		 ret	 0
__ehhandler$?Clone@ioTargetBuffSkill@@UAEPAVioSkill@@XZ:
  0000a	8b 54 24 08	 mov	 edx, DWORD PTR [esp+8]
  0000e	8d 42 0c	 lea	 eax, DWORD PTR [edx+12]
  00011	8b 4a ec	 mov	 ecx, DWORD PTR [edx-20]
  00014	33 c8		 xor	 ecx, eax
  00016	e8 00 00 00 00	 call	 @__security_check_cookie@4
  0001b	b8 00 00 00 00	 mov	 eax, OFFSET __ehfuncinfo$?Clone@ioTargetBuffSkill@@UAEPAVioSkill@@XZ
  00020	e9 00 00 00 00	 jmp	 ___CxxFrameHandler3
text$x	ENDS
?Clone@ioTargetBuffSkill@@UAEPAVioSkill@@XZ ENDP	; ioTargetBuffSkill::Clone
EXTRN	?ReduceNeedGaugeBySkill@ioBaseChar@@QAEMPAVioSkill@@M@Z:PROC ; ioBaseChar::ReduceNeedGaugeBySkill
EXTRN	?GetNeedGauge@ioSkill@@QAEMABVioHashString@@@Z:PROC ; ioSkill::GetNeedGauge
EXTRN	?CheckSkillDesc@ioSkill@@IAEXPAVioBaseChar@@@Z:PROC ; ioSkill::CheckSkillDesc
EXTRN	?AttachEffect@ioBaseChar@@QAEPAVioEffect@@ABVioHashString@@PAVioEntityEvent@@_N@Z:PROC ; ioBaseChar::AttachEffect
EXTRN	?GetPlayStage@ioSkillMaker@@QAEPAVioPlayStage@@XZ:PROC ; ioSkillMaker::GetPlayStage
EXTRN	?GetSingleton@ioSkillMaker@@SAAAV1@XZ:PROC	; ioSkillMaker::GetSingleton
EXTRN	?IncreaseWeaponIndexBase@ioBaseChar@@QAEKXZ:PROC ; ioBaseChar::IncreaseWeaponIndexBase
EXTRN	?ChangeSkillWeaponMesh@ioBaseChar@@QAE_NPAVioSkill@@ABVioHashString@@_N@Z:PROC ; ioBaseChar::ChangeSkillWeaponMesh
EXTRN	?SetCameraBuff@ioSkill@@IAEXPAVioBaseChar@@@Z:PROC ; ioSkill::SetCameraBuff
EXTRN	?InitExtraAniJump@ioSkill@@IAEXXZ:PROC		; ioSkill::InitExtraAniJump
EXTRN	?SetSkillProtection@ioBaseChar@@QAEXXZ:PROC	; ioBaseChar::SetSkillProtection
EXTRN	?CheckEnableStart@ioBuffSkill@@IAE_NPAVioBaseChar@@@Z:PROC ; ioBuffSkill::CheckEnableStart
; Function compile flags: /Ogsp
;	COMDAT ?OnSkillStart@ioTargetBuffSkill@@UAE_NPAVioBaseChar@@@Z
_TEXT	SEGMENT
_pChar$ = 8						; size = 4
?OnSkillStart@ioTargetBuffSkill@@UAE_NPAVioBaseChar@@@Z PROC ; ioTargetBuffSkill::OnSkillStart, COMDAT
; _this$ = ecx

; 76   : {

  00000	55		 push	 ebp
  00001	8b ec		 mov	 ebp, esp
  00003	56		 push	 esi
  00004	57		 push	 edi

; 77   : 	if( !CheckEnableStart( pChar ) )

  00005	8b 7d 08	 mov	 edi, DWORD PTR _pChar$[ebp]
  00008	57		 push	 edi
  00009	8b f1		 mov	 esi, ecx
  0000b	e8 00 00 00 00	 call	 ?CheckEnableStart@ioBuffSkill@@IAE_NPAVioBaseChar@@@Z ; ioBuffSkill::CheckEnableStart
  00010	84 c0		 test	 al, al
  00012	75 07		 jne	 SHORT $LN6@OnSkillSta
$LN11@OnSkillSta:

; 78   : 		return false;

  00014	32 c0		 xor	 al, al
  00016	e9 f8 00 00 00	 jmp	 $LN7@OnSkillSta
$LN6@OnSkillSta:

; 79   : 
; 80   : 	if( !HasSkillMotion() )

  0001b	8b 06		 mov	 eax, DWORD PTR [esi]
  0001d	8b ce		 mov	 ecx, esi
  0001f	ff 90 24 01 00
	00		 call	 DWORD PTR [eax+292]
  00025	84 c0		 test	 al, al

; 81   : 		return false;

  00027	74 eb		 je	 SHORT $LN11@OnSkillSta

; 82   : 
; 83   : 	ClearData();

  00029	53		 push	 ebx
  0002a	8b ce		 mov	 ecx, esi
  0002c	e8 00 00 00 00	 call	 ?ClearData@ioTargetBuffSkill@@IAEXXZ ; ioTargetBuffSkill::ClearData

; 84   : 
; 85   : 	pChar->SetSkillProtection();

  00031	8b cf		 mov	 ecx, edi
  00033	e8 00 00 00 00	 call	 ?SetSkillProtection@ioBaseChar@@QAEXXZ ; ioBaseChar::SetSkillProtection

; 86   : 
; 87   : 	m_bReduceGauge = false;

  00038	33 db		 xor	 ebx, ebx

; 88   : 
; 89   : 	InitExtraAniJump();

  0003a	8b ce		 mov	 ecx, esi
  0003c	88 9e 50 03 00
	00		 mov	 BYTE PTR [esi+848], bl
  00042	e8 00 00 00 00	 call	 ?InitExtraAniJump@ioSkill@@IAEXXZ ; ioSkill::InitExtraAniJump

; 90   : 	
; 91   : 	SetCameraBuff( pChar );

  00047	57		 push	 edi
  00048	8b ce		 mov	 ecx, esi
  0004a	e8 00 00 00 00	 call	 ?SetCameraBuff@ioSkill@@IAEXPAVioBaseChar@@@Z ; ioSkill::SetCameraBuff

; 92   : 
; 93   : 	//    
; 94   : 	if( m_bUseItemMesh )

  0004f	38 9e 08 0f 00
	00		 cmp	 BYTE PTR [esi+3848], bl
  00055	74 09		 je	 SHORT $LN4@OnSkillSta

; 95   : 	{
; 96   : 		pChar->ShowWeaponItemMesh( false );

  00057	53		 push	 ebx
  00058	53		 push	 ebx
  00059	8b cf		 mov	 ecx, edi
  0005b	e8 00 00 00 00	 call	 ?ShowWeaponItemMesh@ioBaseChar@@QAEX_N0@Z ; ioBaseChar::ShowWeaponItemMesh
$LN4@OnSkillSta:

; 97   : 	}
; 98   : 
; 99   : 	if( !m_bSetHandMesh && m_bUseItemMesh && !m_HandMesh.IsEmpty() )

  00060	38 9e 0a 0f 00
	00		 cmp	 BYTE PTR [esi+3850], bl
  00066	75 36		 jne	 SHORT $LN3@OnSkillSta
  00068	38 9e 08 0f 00
	00		 cmp	 BYTE PTR [esi+3848], bl
  0006e	74 2e		 je	 SHORT $LN3@OnSkillSta
  00070	8d 8e f8 0e 00
	00		 lea	 ecx, DWORD PTR [esi+3832]
  00076	ff 15 00 00 00
	00		 call	 DWORD PTR __imp_?IsEmpty@ioHashString@@QBE_NXZ
  0007c	84 c0		 test	 al, al
  0007e	75 1e		 jne	 SHORT $LN3@OnSkillSta

; 100  : 	{
; 101  : 		pChar->ChangeSkillWeaponMesh( this, m_HandMesh, m_bVisibleEquipMesh );

  00080	0f b6 86 09 0f
	00 00		 movzx	 eax, BYTE PTR [esi+3849]
  00087	50		 push	 eax
  00088	8d 86 f8 0e 00
	00		 lea	 eax, DWORD PTR [esi+3832]
  0008e	50		 push	 eax
  0008f	56		 push	 esi
  00090	8b cf		 mov	 ecx, edi
  00092	e8 00 00 00 00	 call	 ?ChangeSkillWeaponMesh@ioBaseChar@@QAE_NPAVioSkill@@ABVioHashString@@_N@Z ; ioBaseChar::ChangeSkillWeaponMesh

; 102  : 		m_bSetHandMesh = true;

  00097	c6 86 0a 0f 00
	00 01		 mov	 BYTE PTR [esi+3850], 1
$LN3@OnSkillSta:

; 103  : 	}
; 104  : 
; 105  : 	m_dwWeaponBaseIndex = pChar->IncreaseWeaponIndexBase();

  0009e	8b cf		 mov	 ecx, edi
  000a0	e8 00 00 00 00	 call	 ?IncreaseWeaponIndexBase@ioBaseChar@@QAEKXZ ; ioBaseChar::IncreaseWeaponIndexBase
  000a5	89 46 78	 mov	 DWORD PTR [esi+120], eax

; 106  : 	if( !StartPreDelayAnimation( pChar ) )	// Delay Animation 

  000a8	8b 06		 mov	 eax, DWORD PTR [esi]
  000aa	57		 push	 edi
  000ab	8b ce		 mov	 ecx, esi
  000ad	ff 90 88 01 00
	00		 call	 DWORD PTR [eax+392]
  000b3	84 c0		 test	 al, al
  000b5	75 15		 jne	 SHORT $LN2@OnSkillSta

; 107  : 	{
; 108  : 		SetLoopState( pChar, g_SkillMaker.GetPlayStage() );

  000b7	e8 00 00 00 00	 call	 ?GetSingleton@ioSkillMaker@@SAAAV1@XZ ; ioSkillMaker::GetSingleton
  000bc	8b c8		 mov	 ecx, eax
  000be	e8 00 00 00 00	 call	 ?GetPlayStage@ioSkillMaker@@QAEPAVioPlayStage@@XZ ; ioSkillMaker::GetPlayStage
  000c3	50		 push	 eax
  000c4	57		 push	 edi
  000c5	8b ce		 mov	 ecx, esi
  000c7	e8 00 00 00 00	 call	 ?SetLoopState@ioTargetBuffSkill@@IAEXPAVioBaseChar@@PAVioPlayStage@@@Z ; ioTargetBuffSkill::SetLoopState
$LN2@OnSkillSta:

; 109  : 	}
; 110  : 	
; 111  : 	pChar->AttachEffect( m_SkillEffectName );

  000cc	6a 01		 push	 1
  000ce	53		 push	 ebx
  000cf	8d 86 b8 01 00
	00		 lea	 eax, DWORD PTR [esi+440]
  000d5	50		 push	 eax
  000d6	8b cf		 mov	 ecx, edi
  000d8	e8 00 00 00 00	 call	 ?AttachEffect@ioBaseChar@@QAEPAVioEffect@@ABVioHashString@@PAVioEntityEvent@@_N@Z ; ioBaseChar::AttachEffect

; 112  : 
; 113  : 	CheckSkillDesc( pChar );

  000dd	57		 push	 edi
  000de	8b ce		 mov	 ecx, esi
  000e0	e8 00 00 00 00	 call	 ?CheckSkillDesc@ioSkill@@IAEXPAVioBaseChar@@@Z ; ioSkill::CheckSkillDesc

; 114  : 
; 115  : 	if( !m_bReduceGauge )

  000e5	38 9e 50 03 00
	00		 cmp	 BYTE PTR [esi+848], bl
  000eb	5b		 pop	 ebx
  000ec	75 23		 jne	 SHORT $LN1@OnSkillSta

; 116  : 	{
; 117  : 		pChar->ReduceNeedGaugeBySkill( this, GetNeedGauge(pChar->GetCharName()) );

  000ee	8d 87 d4 02 00
	00		 lea	 eax, DWORD PTR [edi+724]
  000f4	50		 push	 eax
  000f5	8b ce		 mov	 ecx, esi
  000f7	e8 00 00 00 00	 call	 ?GetNeedGauge@ioSkill@@QAEMABVioHashString@@@Z ; ioSkill::GetNeedGauge
  000fc	51		 push	 ecx
  000fd	d9 1c 24	 fstp	 DWORD PTR [esp]
  00100	56		 push	 esi
  00101	8b cf		 mov	 ecx, edi
  00103	e8 00 00 00 00	 call	 ?ReduceNeedGaugeBySkill@ioBaseChar@@QAEMPAVioSkill@@M@Z ; ioBaseChar::ReduceNeedGaugeBySkill
  00108	dd d8		 fstp	 ST(0)

; 118  : 		m_bReduceGauge = true;

  0010a	c6 86 50 03 00
	00 01		 mov	 BYTE PTR [esi+848], 1
$LN1@OnSkillSta:

; 119  : 	}
; 120  : 
; 121  : 	return true;

  00111	b0 01		 mov	 al, 1
$LN7@OnSkillSta:
  00113	5f		 pop	 edi
  00114	5e		 pop	 esi

; 122  : }

  00115	5d		 pop	 ebp
  00116	c2 04 00	 ret	 4
?OnSkillStart@ioTargetBuffSkill@@UAE_NPAVioBaseChar@@@Z ENDP ; ioTargetBuffSkill::OnSkillStart
_TEXT	ENDS
EXTRN	??5SP2Packet@@QAEAAV0@AAVioHashString@@@Z:PROC	; SP2Packet::operator>>
; Function compile flags: /Ogsp
;	COMDAT ?ApplyExtraSkillInfo@ioTargetBuffSkill@@UAEXPAVioBaseChar@@PAVioPlayStage@@AAVSP2Packet@@@Z
_TEXT	SEGMENT
_pChar$ = 8						; size = 4
_pStage$ = 12						; size = 4
_rkPacket$ = 16						; size = 4
?ApplyExtraSkillInfo@ioTargetBuffSkill@@UAEXPAVioBaseChar@@PAVioPlayStage@@AAVSP2Packet@@@Z PROC ; ioTargetBuffSkill::ApplyExtraSkillInfo, COMDAT
; _this$ = ecx

; 236  : {

  00000	55		 push	 ebp
  00001	8b ec		 mov	 ebp, esp
  00003	56		 push	 esi
  00004	8b f1		 mov	 esi, ecx

; 237  : 	rkPacket >> m_szTargetName;

  00006	8b 4d 10	 mov	 ecx, DWORD PTR _rkPacket$[ebp]
  00009	8d 86 cc 10 00
	00		 lea	 eax, DWORD PTR [esi+4300]
  0000f	50		 push	 eax
  00010	e8 00 00 00 00	 call	 ??5SP2Packet@@QAEAAV0@AAVioHashString@@@Z ; SP2Packet::operator>>

; 238  : 	SetFireState( pChar );

  00015	ff 75 08	 push	 DWORD PTR _pChar$[ebp]
  00018	8b ce		 mov	 ecx, esi
  0001a	e8 00 00 00 00	 call	 ?SetFireState@ioTargetBuffSkill@@IAEXPAVioBaseChar@@@Z ; ioTargetBuffSkill::SetFireState
  0001f	5e		 pop	 esi

; 239  : }

  00020	5d		 pop	 ebp
  00021	c2 0c 00	 ret	 12			; 0000000cH
?ApplyExtraSkillInfo@ioTargetBuffSkill@@UAEXPAVioBaseChar@@PAVioPlayStage@@AAVSP2Packet@@@Z ENDP ; ioTargetBuffSkill::ApplyExtraSkillInfo
_TEXT	ENDS
PUBLIC	__real@3f91df46a2526c7a
PUBLIC	___$ReturnUdt$GSCopy$
PUBLIC	??$DEGtoRAD@V?$CEncrypt@M@@@@YA?AV?$CEncrypt@M@@V0@@Z ; DEGtoRAD<CEncrypt<float> >
;	COMDAT __real@3f91df46a2526c7a
; File d:\lost saga for developer\youtube\tutorial\source\src\lsclient\encryptvalue.h
CONST	SEGMENT
__real@3f91df46a2526c7a DQ 03f91df46a2526c7ar	; 0.0174533
CONST	ENDS
;	COMDAT xdata$x
xdata$x	SEGMENT
__unwindtable$??$DEGtoRAD@V?$CEncrypt@M@@@@YA?AV?$CEncrypt@M@@V0@@Z DD 0ffffffffH
	DD	FLAT:__unwindfunclet$??$DEGtoRAD@V?$CEncrypt@M@@@@YA?AV?$CEncrypt@M@@V0@@Z$1
	DD	00H
	DD	FLAT:__unwindfunclet$??$DEGtoRAD@V?$CEncrypt@M@@@@YA?AV?$CEncrypt@M@@V0@@Z$0
__ehfuncinfo$??$DEGtoRAD@V?$CEncrypt@M@@@@YA?AV?$CEncrypt@M@@V0@@Z DD 019930522H
	DD	02H
	DD	FLAT:__unwindtable$??$DEGtoRAD@V?$CEncrypt@M@@@@YA?AV?$CEncrypt@M@@V0@@Z
	DD	2 DUP(00H)
	DD	2 DUP(00H)
	DD	00H
	DD	01H
; Function compile flags: /Ogsp
; File d:\lost saga for developer\youtube\tutorial\source\src\lsclient\veryoftenusedefine.h
xdata$x	ENDS
;	COMDAT ??$DEGtoRAD@V?$CEncrypt@M@@@@YA?AV?$CEncrypt@M@@V0@@Z
_TEXT	SEGMENT
___$ReturnUdt$GSCopy$ = -24				; size = 4
$T556657 = -20						; size = 4
$T556661 = -16						; size = 4
__$EHRec$ = -12						; size = 12
___$ReturnUdt$ = 8					; size = 4
_val$ = 12						; size = 48
??$DEGtoRAD@V?$CEncrypt@M@@@@YA?AV?$CEncrypt@M@@V0@@Z PROC ; DEGtoRAD<CEncrypt<float> >, COMDAT

; 20   : type  DEGtoRAD (type val) {return (type) (val * 0.0174532925199);}

  00000	6a 0c		 push	 12			; 0000000cH
  00002	b8 00 00 00 00	 mov	 eax, __ehhandler$??$DEGtoRAD@V?$CEncrypt@M@@@@YA?AV?$CEncrypt@M@@V0@@Z
  00007	e8 00 00 00 00	 call	 __EH_prolog3
  0000c	8b 7d 08	 mov	 edi, DWORD PTR ___$ReturnUdt$[ebp]
  0000f	83 65 f0 00	 and	 DWORD PTR $T556661[ebp], 0
  00013	89 7d e8	 mov	 DWORD PTR ___$ReturnUdt$GSCopy$[ebp], edi
  00016	6a 04		 push	 4
  00018	8d 45 34	 lea	 eax, DWORD PTR _val$[ebp+40]
  0001b	50		 push	 eax
  0001c	33 f6		 xor	 esi, esi
  0001e	8d 45 28	 lea	 eax, DWORD PTR _val$[ebp+28]
  00021	46		 inc	 esi
  00022	50		 push	 eax
  00023	8d 4d 18	 lea	 ecx, DWORD PTR _val$[ebp+12]
  00026	89 75 fc	 mov	 DWORD PTR __$EHRec$[ebp+8], esi
  00029	e8 00 00 00 00	 call	 ?DecryptByte@ccddaabb@@QBEXPBDPADH@Z ; ccddaabb::DecryptByte
  0002e	f3 0f 10 45 34	 movss	 xmm0, DWORD PTR _val$[ebp+40]
  00033	0f 5a c0	 cvtps2pd xmm0, xmm0
  00036	f2 0f 59 05 00
	00 00 00	 mulsd	 xmm0, QWORD PTR __real@3f91df46a2526c7a
  0003e	8d 45 ec	 lea	 eax, DWORD PTR $T556657[ebp]
  00041	66 0f 5a c0	 cvtpd2ps xmm0, xmm0
  00045	50		 push	 eax
  00046	8b cf		 mov	 ecx, edi
  00048	f3 0f 11 45 ec	 movss	 DWORD PTR $T556657[ebp], xmm0
  0004d	e8 00 00 00 00	 call	 ??0?$CEncrypt@M@@QAE@ABM@Z ; CEncrypt<float>::CEncrypt<float>
  00052	8d 4d 18	 lea	 ecx, DWORD PTR _val$[ebp+12]
  00055	89 75 f0	 mov	 DWORD PTR $T556661[ebp], esi
  00058	c6 45 fc 00	 mov	 BYTE PTR __$EHRec$[ebp+8], 0
  0005c	c7 45 0c 00 00
	00 00		 mov	 DWORD PTR _val$[ebp], OFFSET ??_7?$CEncrypt@M@@6B@
  00063	e8 00 00 00 00	 call	 ??1ccddaabb@@UAE@XZ	; ccddaabb::~ccddaabb
  00068	8b c7		 mov	 eax, edi
  0006a	e8 00 00 00 00	 call	 __EH_epilog3
  0006f	c3		 ret	 0
_TEXT	ENDS
;	COMDAT text$x
text$x	SEGMENT
__unwindfunclet$??$DEGtoRAD@V?$CEncrypt@M@@@@YA?AV?$CEncrypt@M@@V0@@Z$0:
  00000	8d 4d 0c	 lea	 ecx, DWORD PTR _val$[ebp]
  00003	e9 00 00 00 00	 jmp	 ??1?$CEncrypt@M@@UAE@XZ	; CEncrypt<float>::~CEncrypt<float>
__unwindfunclet$??$DEGtoRAD@V?$CEncrypt@M@@@@YA?AV?$CEncrypt@M@@V0@@Z$1:
  00008	8b 45 f0	 mov	 eax, DWORD PTR $T556661[ebp]
  0000b	83 e0 01	 and	 eax, 1
  0000e	0f 84 0c 00 00
	00		 je	 $LN5@DEGtoRAD
  00014	83 65 f0 fe	 and	 DWORD PTR $T556661[ebp], -2 ; fffffffeH
  00018	8b 4d e8	 mov	 ecx, DWORD PTR ___$ReturnUdt$GSCopy$[ebp]
  0001b	e9 00 00 00 00	 jmp	 ??1?$CEncrypt@M@@UAE@XZ	; CEncrypt<float>::~CEncrypt<float>
$LN5@DEGtoRAD:
  00020	c3		 ret	 0
__ehhandler$??$DEGtoRAD@V?$CEncrypt@M@@@@YA?AV?$CEncrypt@M@@V0@@Z:
  00021	8b 54 24 08	 mov	 edx, DWORD PTR [esp+8]
  00025	8d 42 0c	 lea	 eax, DWORD PTR [edx+12]
  00028	8b 4a e4	 mov	 ecx, DWORD PTR [edx-28]
  0002b	33 c8		 xor	 ecx, eax
  0002d	e8 00 00 00 00	 call	 @__security_check_cookie@4
  00032	b8 00 00 00 00	 mov	 eax, OFFSET __ehfuncinfo$??$DEGtoRAD@V?$CEncrypt@M@@@@YA?AV?$CEncrypt@M@@V0@@Z
  00037	e9 00 00 00 00	 jmp	 ___CxxFrameHandler3
text$x	ENDS
??$DEGtoRAD@V?$CEncrypt@M@@@@YA?AV?$CEncrypt@M@@V0@@Z ENDP ; DEGtoRAD<CEncrypt<float> >
PUBLIC	??$_Cons_val@V?$allocator@UtagBaseCharDistanceSq@@@std@@UtagBaseCharDistanceSq@@ABU3@@std@@YAXAAV?$allocator@UtagBaseCharDistanceSq@@@0@PAUtagBaseCharDistanceSq@@ABU2@@Z ; std::_Cons_val<std::allocator<tagBaseCharDistanceSq>,tagBaseCharDistanceSq,tagBaseCharDistanceSq const &>
; Function compile flags: /Ogsp
; File c:\program files (x86)\microsoft visual studio 10.0\vc\include\xmemory
;	COMDAT ??$_Cons_val@V?$allocator@UtagBaseCharDistanceSq@@@std@@UtagBaseCharDistanceSq@@ABU3@@std@@YAXAAV?$allocator@UtagBaseCharDistanceSq@@@0@PAUtagBaseCharDistanceSq@@ABU2@@Z
_TEXT	SEGMENT
__Alval$ = 8						; size = 4
__Pdest$ = 12						; size = 4
__Src$ = 16						; size = 4
??$_Cons_val@V?$allocator@UtagBaseCharDistanceSq@@@std@@UtagBaseCharDistanceSq@@ABU3@@std@@YAXAAV?$allocator@UtagBaseCharDistanceSq@@@0@PAUtagBaseCharDistanceSq@@ABU2@@Z PROC ; std::_Cons_val<std::allocator<tagBaseCharDistanceSq>,tagBaseCharDistanceSq,tagBaseCharDistanceSq const &>, COMDAT

; 279  : 	{	// construct using allocator

  00000	55		 push	 ebp
  00001	8b ec		 mov	 ebp, esp

; 280  : 	_Alval.construct(_Pdest, _STD forward<_Ty2>(_Src));

  00003	ff 75 10	 push	 DWORD PTR __Src$[ebp]
  00006	ff 75 0c	 push	 DWORD PTR __Pdest$[ebp]
  00009	e8 00 00 00 00	 call	 ??$_Construct@UtagBaseCharDistanceSq@@ABU1@@std@@YAXPAUtagBaseCharDistanceSq@@ABU1@@Z ; std::_Construct<tagBaseCharDistanceSq,tagBaseCharDistanceSq const &>
  0000e	59		 pop	 ecx
  0000f	59		 pop	 ecx

; 281  : 	}

  00010	5d		 pop	 ebp
  00011	c3		 ret	 0
??$_Cons_val@V?$allocator@UtagBaseCharDistanceSq@@@std@@UtagBaseCharDistanceSq@@ABU3@@std@@YAXAAV?$allocator@UtagBaseCharDistanceSq@@@0@PAUtagBaseCharDistanceSq@@ABU2@@Z ENDP ; std::_Cons_val<std::allocator<tagBaseCharDistanceSq>,tagBaseCharDistanceSq,tagBaseCharDistanceSq const &>
_TEXT	ENDS
PUBLIC	??$_Insertion_sort@PAUtagBaseCharDistanceSq@@VBaseCharDistanceSqSort2@@@std@@YAXPAUtagBaseCharDistanceSq@@0VBaseCharDistanceSqSort2@@@Z ; std::_Insertion_sort<tagBaseCharDistanceSq *,BaseCharDistanceSqSort2>
; Function compile flags: /Ogsp
; File c:\program files (x86)\microsoft visual studio 10.0\vc\include\algorithm
;	COMDAT ??$_Insertion_sort@PAUtagBaseCharDistanceSq@@VBaseCharDistanceSqSort2@@@std@@YAXPAUtagBaseCharDistanceSq@@0VBaseCharDistanceSqSort2@@@Z
_TEXT	SEGMENT
__First$ = 8						; size = 4
__Last$ = 12						; size = 4
__Pred$ = 16						; size = 1
??$_Insertion_sort@PAUtagBaseCharDistanceSq@@VBaseCharDistanceSqSort2@@@std@@YAXPAUtagBaseCharDistanceSq@@0VBaseCharDistanceSqSort2@@@Z PROC ; std::_Insertion_sort<tagBaseCharDistanceSq *,BaseCharDistanceSqSort2>, COMDAT

; 3676 : 	{	// insertion sort [_First, _Last), using _Pred

  00000	55		 push	 ebp
  00001	8b ec		 mov	 ebp, esp

; 3677 : 	_Insertion_sort1(_First, _Last, _Pred, _Val_type(_First));

  00003	6a 00		 push	 0
  00005	ff 75 10	 push	 DWORD PTR __Pred$[ebp]
  00008	ff 75 0c	 push	 DWORD PTR __Last$[ebp]
  0000b	ff 75 08	 push	 DWORD PTR __First$[ebp]
  0000e	e8 00 00 00 00	 call	 ??$_Insertion_sort1@PAUtagBaseCharDistanceSq@@VBaseCharDistanceSqSort2@@U1@@std@@YAXPAUtagBaseCharDistanceSq@@0VBaseCharDistanceSqSort2@@0@Z ; std::_Insertion_sort1<tagBaseCharDistanceSq *,BaseCharDistanceSqSort2,tagBaseCharDistanceSq>
  00013	83 c4 10	 add	 esp, 16			; 00000010H

; 3678 : 	}

  00016	5d		 pop	 ebp
  00017	c3		 ret	 0
??$_Insertion_sort@PAUtagBaseCharDistanceSq@@VBaseCharDistanceSqSort2@@@std@@YAXPAUtagBaseCharDistanceSq@@0VBaseCharDistanceSqSort2@@@Z ENDP ; std::_Insertion_sort<tagBaseCharDistanceSq *,BaseCharDistanceSqSort2>
_TEXT	ENDS
PUBLIC	??$_Dest_val@V?$allocator@UtagBaseCharDistanceSq@@@std@@UtagBaseCharDistanceSq@@@std@@YAXAAV?$allocator@UtagBaseCharDistanceSq@@@0@PAUtagBaseCharDistanceSq@@@Z ; std::_Dest_val<std::allocator<tagBaseCharDistanceSq>,tagBaseCharDistanceSq>
; Function compile flags: /Ogsp
; File c:\program files (x86)\microsoft visual studio 10.0\vc\include\xmemory
;	COMDAT ??$_Dest_val@V?$allocator@UtagBaseCharDistanceSq@@@std@@UtagBaseCharDistanceSq@@@std@@YAXAAV?$allocator@UtagBaseCharDistanceSq@@@0@PAUtagBaseCharDistanceSq@@@Z
_TEXT	SEGMENT
__Alval$ = 8						; size = 4
__Pdest$ = 12						; size = 4
??$_Dest_val@V?$allocator@UtagBaseCharDistanceSq@@@std@@UtagBaseCharDistanceSq@@@std@@YAXAAV?$allocator@UtagBaseCharDistanceSq@@@0@PAUtagBaseCharDistanceSq@@@Z PROC ; std::_Dest_val<std::allocator<tagBaseCharDistanceSq>,tagBaseCharDistanceSq>, COMDAT

; 286  : 	{	// destroy using allocator

  00000	55		 push	 ebp
  00001	8b ec		 mov	 ebp, esp

; 287  : 	_Alval.destroy(_Pdest);

  00003	8b 4d 0c	 mov	 ecx, DWORD PTR __Pdest$[ebp]

; 288  : 	}

  00006	5d		 pop	 ebp

; 287  : 	_Alval.destroy(_Pdest);

  00007	ff 25 00 00 00
	00		 jmp	 DWORD PTR __imp_??1ioHashString@@QAE@XZ
??$_Dest_val@V?$allocator@UtagBaseCharDistanceSq@@@std@@UtagBaseCharDistanceSq@@@std@@YAXAAV?$allocator@UtagBaseCharDistanceSq@@@0@PAUtagBaseCharDistanceSq@@@Z ENDP ; std::_Dest_val<std::allocator<tagBaseCharDistanceSq>,tagBaseCharDistanceSq>
_TEXT	ENDS
PUBLIC	??$_Median@PAUtagBaseCharDistanceSq@@VBaseCharDistanceSqSort2@@@std@@YAXPAUtagBaseCharDistanceSq@@00VBaseCharDistanceSqSort2@@@Z ; std::_Median<tagBaseCharDistanceSq *,BaseCharDistanceSqSort2>
; Function compile flags: /Ogsp
; File c:\program files (x86)\microsoft visual studio 10.0\vc\include\algorithm
;	COMDAT ??$_Median@PAUtagBaseCharDistanceSq@@VBaseCharDistanceSqSort2@@@std@@YAXPAUtagBaseCharDistanceSq@@00VBaseCharDistanceSqSort2@@@Z
_TEXT	SEGMENT
tv200 = 8						; size = 4
__First$ = 8						; size = 4
__Mid$ = 12						; size = 4
tv203 = 16						; size = 4
__Last$ = 16						; size = 4
__Pred$ = 20						; size = 1
??$_Median@PAUtagBaseCharDistanceSq@@VBaseCharDistanceSqSort2@@@std@@YAXPAUtagBaseCharDistanceSq@@00VBaseCharDistanceSqSort2@@@Z PROC ; std::_Median<tagBaseCharDistanceSq *,BaseCharDistanceSqSort2>, COMDAT

; 3695 : 	{	// sort median element to middle

  00000	55		 push	 ebp
  00001	8b ec		 mov	 ebp, esp

; 3696 : 	if (40 < _Last - _First)

  00003	8b 4d 08	 mov	 ecx, DWORD PTR __First$[ebp]
  00006	57		 push	 edi
  00007	8b 7d 10	 mov	 edi, DWORD PTR __Last$[ebp]
  0000a	8b c7		 mov	 eax, edi
  0000c	2b c1		 sub	 eax, ecx
  0000e	c1 f8 05	 sar	 eax, 5
  00011	83 f8 28	 cmp	 eax, 40			; 00000028H
  00014	7e 6a		 jle	 SHORT $LN2@Median

; 3697 : 		{	// median of nine
; 3698 : 		size_t _Step = (_Last - _First + 1) / 8;

  00016	40		 inc	 eax
  00017	99		 cdq
  00018	83 e2 07	 and	 edx, 7
  0001b	53		 push	 ebx
  0001c	03 c2		 add	 eax, edx
  0001e	c1 f8 03	 sar	 eax, 3
  00021	56		 push	 esi

; 3699 : 		_Med3(_First, _First + _Step, _First + 2 * _Step, _Pred);

  00022	ff 75 14	 push	 DWORD PTR __Pred$[ebp]
  00025	8b d8		 mov	 ebx, eax
  00027	8b f0		 mov	 esi, eax
  00029	c1 e3 06	 shl	 ebx, 6
  0002c	8d 14 0b	 lea	 edx, DWORD PTR [ebx+ecx]
  0002f	c1 e6 05	 shl	 esi, 5
  00032	8d 04 0e	 lea	 eax, DWORD PTR [esi+ecx]
  00035	52		 push	 edx
  00036	50		 push	 eax
  00037	51		 push	 ecx
  00038	89 45 08	 mov	 DWORD PTR tv200[ebp], eax
  0003b	e8 00 00 00 00	 call	 ??$_Med3@PAUtagBaseCharDistanceSq@@VBaseCharDistanceSqSort2@@@std@@YAXPAUtagBaseCharDistanceSq@@00VBaseCharDistanceSqSort2@@@Z ; std::_Med3<tagBaseCharDistanceSq *,BaseCharDistanceSqSort2>

; 3700 : 		_Med3(_Mid - _Step, _Mid, _Mid + _Step, _Pred);

  00040	ff 75 14	 push	 DWORD PTR __Pred$[ebp]
  00043	8b 45 0c	 mov	 eax, DWORD PTR __Mid$[ebp]
  00046	8d 0c 06	 lea	 ecx, DWORD PTR [esi+eax]
  00049	51		 push	 ecx
  0004a	50		 push	 eax
  0004b	2b c6		 sub	 eax, esi
  0004d	50		 push	 eax
  0004e	e8 00 00 00 00	 call	 ??$_Med3@PAUtagBaseCharDistanceSq@@VBaseCharDistanceSqSort2@@@std@@YAXPAUtagBaseCharDistanceSq@@00VBaseCharDistanceSqSort2@@@Z ; std::_Med3<tagBaseCharDistanceSq *,BaseCharDistanceSqSort2>

; 3701 : 		_Med3(_Last - 2 * _Step, _Last - _Step, _Last, _Pred);

  00053	ff 75 14	 push	 DWORD PTR __Pred$[ebp]
  00056	89 7d 10	 mov	 DWORD PTR tv203[ebp], edi
  00059	29 75 10	 sub	 DWORD PTR tv203[ebp], esi
  0005c	57		 push	 edi
  0005d	ff 75 10	 push	 DWORD PTR tv203[ebp]
  00060	2b fb		 sub	 edi, ebx
  00062	57		 push	 edi
  00063	e8 00 00 00 00	 call	 ??$_Med3@PAUtagBaseCharDistanceSq@@VBaseCharDistanceSqSort2@@@std@@YAXPAUtagBaseCharDistanceSq@@00VBaseCharDistanceSqSort2@@@Z ; std::_Med3<tagBaseCharDistanceSq *,BaseCharDistanceSqSort2>

; 3702 : 		_Med3(_First + _Step, _Mid, _Last - _Step, _Pred);

  00068	ff 75 14	 push	 DWORD PTR __Pred$[ebp]
  0006b	ff 75 10	 push	 DWORD PTR tv203[ebp]
  0006e	ff 75 0c	 push	 DWORD PTR __Mid$[ebp]
  00071	ff 75 08	 push	 DWORD PTR tv200[ebp]
  00074	e8 00 00 00 00	 call	 ??$_Med3@PAUtagBaseCharDistanceSq@@VBaseCharDistanceSqSort2@@@std@@YAXPAUtagBaseCharDistanceSq@@00VBaseCharDistanceSqSort2@@@Z ; std::_Med3<tagBaseCharDistanceSq *,BaseCharDistanceSqSort2>
  00079	83 c4 40	 add	 esp, 64			; 00000040H
  0007c	5e		 pop	 esi
  0007d	5b		 pop	 ebx

; 3703 : 		}
; 3704 : 	else

  0007e	eb 10		 jmp	 SHORT $LN1@Median
$LN2@Median:

; 3705 : 		_Med3(_First, _Mid, _Last, _Pred);

  00080	ff 75 14	 push	 DWORD PTR __Pred$[ebp]
  00083	57		 push	 edi
  00084	ff 75 0c	 push	 DWORD PTR __Mid$[ebp]
  00087	51		 push	 ecx
  00088	e8 00 00 00 00	 call	 ??$_Med3@PAUtagBaseCharDistanceSq@@VBaseCharDistanceSqSort2@@@std@@YAXPAUtagBaseCharDistanceSq@@00VBaseCharDistanceSqSort2@@@Z ; std::_Med3<tagBaseCharDistanceSq *,BaseCharDistanceSqSort2>
  0008d	83 c4 10	 add	 esp, 16			; 00000010H
$LN1@Median:
  00090	5f		 pop	 edi

; 3706 : 	}

  00091	5d		 pop	 ebp
  00092	c3		 ret	 0
??$_Median@PAUtagBaseCharDistanceSq@@VBaseCharDistanceSqSort2@@@std@@YAXPAUtagBaseCharDistanceSq@@00VBaseCharDistanceSqSort2@@@Z ENDP ; std::_Median<tagBaseCharDistanceSq *,BaseCharDistanceSqSort2>
_TEXT	ENDS
PUBLIC	??$_Make_heap@PAUtagBaseCharDistanceSq@@HU1@VBaseCharDistanceSqSort2@@@std@@YAXPAUtagBaseCharDistanceSq@@0VBaseCharDistanceSqSort2@@PAH0@Z ; std::_Make_heap<tagBaseCharDistanceSq *,int,tagBaseCharDistanceSq,BaseCharDistanceSqSort2>
;	COMDAT xdata$x
; File d:\lost saga for developer\youtube\tutorial\source\src\lsclient\iotargetbuffskill.cpp
xdata$x	SEGMENT
__unwindtable$??$_Make_heap@PAUtagBaseCharDistanceSq@@HU1@VBaseCharDistanceSqSort2@@@std@@YAXPAUtagBaseCharDistanceSq@@0VBaseCharDistanceSqSort2@@PAH0@Z DD 0ffffffffH
	DD	FLAT:__unwindfunclet$??$_Make_heap@PAUtagBaseCharDistanceSq@@HU1@VBaseCharDistanceSqSort2@@@std@@YAXPAUtagBaseCharDistanceSq@@0VBaseCharDistanceSqSort2@@PAH0@Z$0
__ehfuncinfo$??$_Make_heap@PAUtagBaseCharDistanceSq@@HU1@VBaseCharDistanceSqSort2@@@std@@YAXPAUtagBaseCharDistanceSq@@0VBaseCharDistanceSqSort2@@PAH0@Z DD 019930522H
	DD	01H
	DD	FLAT:__unwindtable$??$_Make_heap@PAUtagBaseCharDistanceSq@@HU1@VBaseCharDistanceSqSort2@@@std@@YAXPAUtagBaseCharDistanceSq@@0VBaseCharDistanceSqSort2@@PAH0@Z
	DD	2 DUP(00H)
	DD	2 DUP(00H)
	DD	00H
	DD	01H
; Function compile flags: /Ogsp
; File c:\program files (x86)\microsoft visual studio 10.0\vc\include\algorithm
xdata$x	ENDS
;	COMDAT ??$_Make_heap@PAUtagBaseCharDistanceSq@@HU1@VBaseCharDistanceSqSort2@@@std@@YAXPAUtagBaseCharDistanceSq@@0VBaseCharDistanceSqSort2@@PAH0@Z
_TEXT	SEGMENT
__Bottom$ = -52						; size = 4
__Val$553202 = -48					; size = 32
__$EHRec$ = -12						; size = 12
__First$ = 8						; size = 4
__Last$ = 12						; size = 4
__Pred$ = 16						; size = 1
___formal$ = 20						; size = 4
___formal$ = 24						; size = 4
??$_Make_heap@PAUtagBaseCharDistanceSq@@HU1@VBaseCharDistanceSqSort2@@@std@@YAXPAUtagBaseCharDistanceSq@@0VBaseCharDistanceSqSort2@@PAH0@Z PROC ; std::_Make_heap<tagBaseCharDistanceSq *,int,tagBaseCharDistanceSq,BaseCharDistanceSqSort2>, COMDAT

; 2658 : 	{	// make nontrivial [_First, _Last) into a heap, using _Pred

  00000	6a 28		 push	 40			; 00000028H
  00002	b8 00 00 00 00	 mov	 eax, __ehhandler$??$_Make_heap@PAUtagBaseCharDistanceSq@@HU1@VBaseCharDistanceSqSort2@@@std@@YAXPAUtagBaseCharDistanceSq@@0VBaseCharDistanceSqSort2@@PAH0@Z
  00007	e8 00 00 00 00	 call	 __EH_prolog3_GS
  0000c	8b 5d 08	 mov	 ebx, DWORD PTR __First$[ebp]
  0000f	8b 45 0c	 mov	 eax, DWORD PTR __Last$[ebp]

; 2659 : 	_Diff _Bottom = _Last - _First;

  00012	2b c3		 sub	 eax, ebx
  00014	c1 f8 05	 sar	 eax, 5
  00017	89 45 cc	 mov	 DWORD PTR __Bottom$[ebp], eax

; 2660 : 	for (_Diff _Hole = _Bottom / 2; 0 < _Hole; )

  0001a	99		 cdq
  0001b	2b c2		 sub	 eax, edx
  0001d	8b f0		 mov	 esi, eax
  0001f	d1 fe		 sar	 esi, 1
  00021	85 f6		 test	 esi, esi
  00023	7e 3d		 jle	 SHORT $LN1@Make_heap

; 2661 : 		{	// reheap top half, bottom to top
; 2662 : 		--_Hole;
; 2663 : 		_Ty _Val = _Move(*(_First + _Hole));

  00025	8b fe		 mov	 edi, esi
  00027	c1 e7 05	 shl	 edi, 5
  0002a	03 fb		 add	 edi, ebx
$LL2@Make_heap:
  0002c	83 ef 20	 sub	 edi, 32			; 00000020H
  0002f	57		 push	 edi
  00030	8d 4d d0	 lea	 ecx, DWORD PTR __Val$553202[ebp]
  00033	4e		 dec	 esi
  00034	e8 00 00 00 00	 call	 ??0tagBaseCharDistanceSq@@QAE@ABU0@@Z

; 2664 : 		_Adjust_heap(_First, _Hole, _Bottom,
; 2665 : 			_Move(_Val), _Pred);

  00039	ff 75 10	 push	 DWORD PTR __Pred$[ebp]
  0003c	83 65 fc 00	 and	 DWORD PTR __$EHRec$[ebp+8], 0
  00040	8d 45 d0	 lea	 eax, DWORD PTR __Val$553202[ebp]
  00043	50		 push	 eax
  00044	ff 75 cc	 push	 DWORD PTR __Bottom$[ebp]
  00047	56		 push	 esi
  00048	53		 push	 ebx
  00049	e8 00 00 00 00	 call	 ??$_Adjust_heap@PAUtagBaseCharDistanceSq@@HU1@VBaseCharDistanceSqSort2@@@std@@YAXPAUtagBaseCharDistanceSq@@HH$$QAU1@VBaseCharDistanceSqSort2@@@Z ; std::_Adjust_heap<tagBaseCharDistanceSq *,int,tagBaseCharDistanceSq,BaseCharDistanceSqSort2>

; 2666 : 		}

  0004e	83 4d fc ff	 or	 DWORD PTR __$EHRec$[ebp+8], -1
  00052	83 c4 14	 add	 esp, 20			; 00000014H
  00055	8d 4d d0	 lea	 ecx, DWORD PTR __Val$553202[ebp]
  00058	ff 15 00 00 00
	00		 call	 DWORD PTR __imp_??1ioHashString@@QAE@XZ
  0005e	85 f6		 test	 esi, esi
  00060	7f ca		 jg	 SHORT $LL2@Make_heap
$LN1@Make_heap:

; 2667 : 	}

  00062	e8 00 00 00 00	 call	 __EH_epilog3_GS
  00067	c3		 ret	 0
_TEXT	ENDS
;	COMDAT text$x
text$x	SEGMENT
__unwindfunclet$??$_Make_heap@PAUtagBaseCharDistanceSq@@HU1@VBaseCharDistanceSqSort2@@@std@@YAXPAUtagBaseCharDistanceSq@@0VBaseCharDistanceSqSort2@@PAH0@Z$0:
  00000	8d 4d d0	 lea	 ecx, DWORD PTR __Val$553202[ebp]
  00003	e9 00 00 00 00	 jmp	 ??1tagBaseCharDistanceSq@@QAE@XZ
__ehhandler$??$_Make_heap@PAUtagBaseCharDistanceSq@@HU1@VBaseCharDistanceSqSort2@@@std@@YAXPAUtagBaseCharDistanceSq@@0VBaseCharDistanceSqSort2@@PAH0@Z:
  00008	8b 54 24 08	 mov	 edx, DWORD PTR [esp+8]
  0000c	8d 42 0c	 lea	 eax, DWORD PTR [edx+12]
  0000f	8b 4a c8	 mov	 ecx, DWORD PTR [edx-56]
  00012	33 c8		 xor	 ecx, eax
  00014	e8 00 00 00 00	 call	 @__security_check_cookie@4
  00019	8b 4a fc	 mov	 ecx, DWORD PTR [edx-4]
  0001c	33 c8		 xor	 ecx, eax
  0001e	e8 00 00 00 00	 call	 @__security_check_cookie@4
  00023	b8 00 00 00 00	 mov	 eax, OFFSET __ehfuncinfo$??$_Make_heap@PAUtagBaseCharDistanceSq@@HU1@VBaseCharDistanceSqSort2@@@std@@YAXPAUtagBaseCharDistanceSq@@0VBaseCharDistanceSqSort2@@PAH0@Z
  00028	e9 00 00 00 00	 jmp	 ___CxxFrameHandler3
text$x	ENDS
??$_Make_heap@PAUtagBaseCharDistanceSq@@HU1@VBaseCharDistanceSqSort2@@@std@@YAXPAUtagBaseCharDistanceSq@@0VBaseCharDistanceSqSort2@@PAH0@Z ENDP ; std::_Make_heap<tagBaseCharDistanceSq *,int,tagBaseCharDistanceSq,BaseCharDistanceSqSort2>
PUBLIC	??$_Pop_heap_0@PAUtagBaseCharDistanceSq@@U1@VBaseCharDistanceSqSort2@@@std@@YAXPAUtagBaseCharDistanceSq@@0VBaseCharDistanceSqSort2@@0@Z ; std::_Pop_heap_0<tagBaseCharDistanceSq *,tagBaseCharDistanceSq,BaseCharDistanceSqSort2>
;	COMDAT xdata$x
; File d:\lost saga for developer\youtube\tutorial\source\src\lsclient\iotargetbuffskill.cpp
xdata$x	SEGMENT
__unwindtable$??$_Pop_heap_0@PAUtagBaseCharDistanceSq@@U1@VBaseCharDistanceSqSort2@@@std@@YAXPAUtagBaseCharDistanceSq@@0VBaseCharDistanceSqSort2@@0@Z DD 0ffffffffH
	DD	FLAT:__unwindfunclet$??$_Pop_heap_0@PAUtagBaseCharDistanceSq@@U1@VBaseCharDistanceSqSort2@@@std@@YAXPAUtagBaseCharDistanceSq@@0VBaseCharDistanceSqSort2@@0@Z$0
__ehfuncinfo$??$_Pop_heap_0@PAUtagBaseCharDistanceSq@@U1@VBaseCharDistanceSqSort2@@@std@@YAXPAUtagBaseCharDistanceSq@@0VBaseCharDistanceSqSort2@@0@Z DD 019930522H
	DD	01H
	DD	FLAT:__unwindtable$??$_Pop_heap_0@PAUtagBaseCharDistanceSq@@U1@VBaseCharDistanceSqSort2@@@std@@YAXPAUtagBaseCharDistanceSq@@0VBaseCharDistanceSqSort2@@0@Z
	DD	2 DUP(00H)
	DD	2 DUP(00H)
	DD	00H
	DD	01H
; Function compile flags: /Ogsp
; File c:\program files (x86)\microsoft visual studio 10.0\vc\include\algorithm
xdata$x	ENDS
;	COMDAT ??$_Pop_heap_0@PAUtagBaseCharDistanceSq@@U1@VBaseCharDistanceSqSort2@@@std@@YAXPAUtagBaseCharDistanceSq@@0VBaseCharDistanceSqSort2@@0@Z
_TEXT	SEGMENT
__Val$ = -48						; size = 32
__$EHRec$ = -12						; size = 12
__First$ = 8						; size = 4
__Last$ = 12						; size = 4
__Pred$ = 16						; size = 1
___formal$ = 20						; size = 4
??$_Pop_heap_0@PAUtagBaseCharDistanceSq@@U1@VBaseCharDistanceSqSort2@@@std@@YAXPAUtagBaseCharDistanceSq@@0VBaseCharDistanceSqSort2@@0@Z PROC ; std::_Pop_heap_0<tagBaseCharDistanceSq *,tagBaseCharDistanceSq,BaseCharDistanceSqSort2>, COMDAT

; 2601 : 	{	// pop *_First to *(_Last - 1) and reheap, using _Pred

  00000	6a 24		 push	 36			; 00000024H
  00002	b8 00 00 00 00	 mov	 eax, __ehhandler$??$_Pop_heap_0@PAUtagBaseCharDistanceSq@@U1@VBaseCharDistanceSqSort2@@@std@@YAXPAUtagBaseCharDistanceSq@@0VBaseCharDistanceSqSort2@@0@Z
  00007	e8 00 00 00 00	 call	 __EH_prolog3_GS
  0000c	8b 75 0c	 mov	 esi, DWORD PTR __Last$[ebp]
  0000f	8b 7d 08	 mov	 edi, DWORD PTR __First$[ebp]

; 2602 : 	_Ty _Val = _Move(*(_Last - 1));

  00012	83 c6 e0	 add	 esi, -32		; ffffffe0H
  00015	56		 push	 esi
  00016	8d 4d d0	 lea	 ecx, DWORD PTR __Val$[ebp]
  00019	e8 00 00 00 00	 call	 ??0tagBaseCharDistanceSq@@QAE@ABU0@@Z
  0001e	83 65 fc 00	 and	 DWORD PTR __$EHRec$[ebp+8], 0

; 2603 : 	_Pop_heap(_First, _Last - 1, _Last - 1,
; 2604 : 		_Move(_Val), _Pred, _Dist_type(_First));

  00022	6a 00		 push	 0
  00024	ff 75 10	 push	 DWORD PTR __Pred$[ebp]
  00027	8d 45 d0	 lea	 eax, DWORD PTR __Val$[ebp]
  0002a	50		 push	 eax
  0002b	56		 push	 esi
  0002c	56		 push	 esi
  0002d	57		 push	 edi
  0002e	e8 00 00 00 00	 call	 ??$_Pop_heap@PAUtagBaseCharDistanceSq@@HU1@VBaseCharDistanceSqSort2@@@std@@YAXPAUtagBaseCharDistanceSq@@00$$QAU1@VBaseCharDistanceSqSort2@@PAH@Z ; std::_Pop_heap<tagBaseCharDistanceSq *,int,tagBaseCharDistanceSq,BaseCharDistanceSqSort2>

; 2605 : 	}

  00033	83 4d fc ff	 or	 DWORD PTR __$EHRec$[ebp+8], -1
  00037	83 c4 18	 add	 esp, 24			; 00000018H
  0003a	8d 4d d0	 lea	 ecx, DWORD PTR __Val$[ebp]
  0003d	ff 15 00 00 00
	00		 call	 DWORD PTR __imp_??1ioHashString@@QAE@XZ
  00043	e8 00 00 00 00	 call	 __EH_epilog3_GS
  00048	c3		 ret	 0
_TEXT	ENDS
;	COMDAT text$x
text$x	SEGMENT
__unwindfunclet$??$_Pop_heap_0@PAUtagBaseCharDistanceSq@@U1@VBaseCharDistanceSqSort2@@@std@@YAXPAUtagBaseCharDistanceSq@@0VBaseCharDistanceSqSort2@@0@Z$0:
  00000	8d 4d d0	 lea	 ecx, DWORD PTR __Val$[ebp]
  00003	e9 00 00 00 00	 jmp	 ??1tagBaseCharDistanceSq@@QAE@XZ
__ehhandler$??$_Pop_heap_0@PAUtagBaseCharDistanceSq@@U1@VBaseCharDistanceSqSort2@@@std@@YAXPAUtagBaseCharDistanceSq@@0VBaseCharDistanceSqSort2@@0@Z:
  00008	8b 54 24 08	 mov	 edx, DWORD PTR [esp+8]
  0000c	8d 42 0c	 lea	 eax, DWORD PTR [edx+12]
  0000f	8b 4a cc	 mov	 ecx, DWORD PTR [edx-52]
  00012	33 c8		 xor	 ecx, eax
  00014	e8 00 00 00 00	 call	 @__security_check_cookie@4
  00019	8b 4a fc	 mov	 ecx, DWORD PTR [edx-4]
  0001c	33 c8		 xor	 ecx, eax
  0001e	e8 00 00 00 00	 call	 @__security_check_cookie@4
  00023	b8 00 00 00 00	 mov	 eax, OFFSET __ehfuncinfo$??$_Pop_heap_0@PAUtagBaseCharDistanceSq@@U1@VBaseCharDistanceSqSort2@@@std@@YAXPAUtagBaseCharDistanceSq@@0VBaseCharDistanceSqSort2@@0@Z
  00028	e9 00 00 00 00	 jmp	 ___CxxFrameHandler3
text$x	ENDS
??$_Pop_heap_0@PAUtagBaseCharDistanceSq@@U1@VBaseCharDistanceSqSort2@@@std@@YAXPAUtagBaseCharDistanceSq@@0VBaseCharDistanceSqSort2@@0@Z ENDP ; std::_Pop_heap_0<tagBaseCharDistanceSq *,tagBaseCharDistanceSq,BaseCharDistanceSqSort2>
PUBLIC	??$_Destroy_range@V?$allocator@UtagBaseCharDistanceSq@@@std@@@std@@YAXPAUtagBaseCharDistanceSq@@0AAV?$allocator@UtagBaseCharDistanceSq@@@0@U_Nonscalar_ptr_iterator_tag@0@@Z ; std::_Destroy_range<std::allocator<tagBaseCharDistanceSq> >
; Function compile flags: /Ogsp
; File c:\program files (x86)\microsoft visual studio 10.0\vc\include\xmemory
;	COMDAT ??$_Destroy_range@V?$allocator@UtagBaseCharDistanceSq@@@std@@@std@@YAXPAUtagBaseCharDistanceSq@@0AAV?$allocator@UtagBaseCharDistanceSq@@@0@U_Nonscalar_ptr_iterator_tag@0@@Z
_TEXT	SEGMENT
__First$ = 8						; size = 4
__Last$ = 12						; size = 4
__Al$ = 16						; size = 4
___formal$ = 20						; size = 1
??$_Destroy_range@V?$allocator@UtagBaseCharDistanceSq@@@std@@@std@@YAXPAUtagBaseCharDistanceSq@@0AAV?$allocator@UtagBaseCharDistanceSq@@@0@U_Nonscalar_ptr_iterator_tag@0@@Z PROC ; std::_Destroy_range<std::allocator<tagBaseCharDistanceSq> >, COMDAT

; 95   : 	{	// destroy [_First, _Last), arbitrary type

  00000	55		 push	 ebp
  00001	8b ec		 mov	 ebp, esp
  00003	56		 push	 esi

; 96   : 	for (; _First != _Last; ++_First)

  00004	8b 75 08	 mov	 esi, DWORD PTR __First$[ebp]
  00007	eb 0b		 jmp	 SHORT $LN20@Destroy_ra
$LL3@Destroy_ra:

; 97   : 		_Dest_val(_Al, _First);

  00009	8b ce		 mov	 ecx, esi
  0000b	ff 15 00 00 00
	00		 call	 DWORD PTR __imp_??1ioHashString@@QAE@XZ
  00011	83 c6 20	 add	 esi, 32			; 00000020H
$LN20@Destroy_ra:

; 96   : 	for (; _First != _Last; ++_First)

  00014	3b 75 0c	 cmp	 esi, DWORD PTR __Last$[ebp]
  00017	75 f0		 jne	 SHORT $LL3@Destroy_ra
  00019	5e		 pop	 esi

; 98   : 	}

  0001a	5d		 pop	 ebp
  0001b	c3		 ret	 0
??$_Destroy_range@V?$allocator@UtagBaseCharDistanceSq@@@std@@@std@@YAXPAUtagBaseCharDistanceSq@@0AAV?$allocator@UtagBaseCharDistanceSq@@@0@U_Nonscalar_ptr_iterator_tag@0@@Z ENDP ; std::_Destroy_range<std::allocator<tagBaseCharDistanceSq> >
_TEXT	ENDS
PUBLIC	??$_Unguarded_partition@PAUtagBaseCharDistanceSq@@VBaseCharDistanceSqSort2@@@std@@YA?AU?$pair@PAUtagBaseCharDistanceSq@@PAU1@@0@PAUtagBaseCharDistanceSq@@0VBaseCharDistanceSqSort2@@@Z ; std::_Unguarded_partition<tagBaseCharDistanceSq *,BaseCharDistanceSqSort2>
; Function compile flags: /Ogsp
; File c:\program files (x86)\microsoft visual studio 10.0\vc\include\algorithm
;	COMDAT ??$_Unguarded_partition@PAUtagBaseCharDistanceSq@@VBaseCharDistanceSqSort2@@@std@@YA?AU?$pair@PAUtagBaseCharDistanceSq@@PAU1@@0@PAUtagBaseCharDistanceSq@@0VBaseCharDistanceSqSort2@@@Z
_TEXT	SEGMENT
__Glast$ = -4						; size = 4
___$ReturnUdt$ = 8					; size = 4
__First$ = 12						; size = 4
__Last$ = 16						; size = 4
__Pred$ = 20						; size = 1
??$_Unguarded_partition@PAUtagBaseCharDistanceSq@@VBaseCharDistanceSqSort2@@@std@@YA?AU?$pair@PAUtagBaseCharDistanceSq@@PAU1@@0@PAUtagBaseCharDistanceSq@@0VBaseCharDistanceSqSort2@@@Z PROC ; std::_Unguarded_partition<tagBaseCharDistanceSq *,BaseCharDistanceSqSort2>, COMDAT

; 3712 : 	{	// partition [_First, _Last), using _Pred

  00000	55		 push	 ebp
  00001	8b ec		 mov	 ebp, esp
  00003	51		 push	 ecx

; 3713 : 	_RanIt _Mid = _First + (_Last - _First) / 2;

  00004	8b 4d 10	 mov	 ecx, DWORD PTR __Last$[ebp]
  00007	53		 push	 ebx
  00008	8b 5d 0c	 mov	 ebx, DWORD PTR __First$[ebp]
  0000b	8b c1		 mov	 eax, ecx
  0000d	2b c3		 sub	 eax, ebx
  0000f	56		 push	 esi
  00010	c1 f8 05	 sar	 eax, 5
  00013	99		 cdq
  00014	2b c2		 sub	 eax, edx
  00016	57		 push	 edi

; 3714 : 	_Median(_First, _Mid, _Last - 1, _Pred);

  00017	ff 75 14	 push	 DWORD PTR __Pred$[ebp]
  0001a	8b f0		 mov	 esi, eax
  0001c	d1 fe		 sar	 esi, 1
  0001e	83 c1 e0	 add	 ecx, -32		; ffffffe0H
  00021	c1 e6 05	 shl	 esi, 5
  00024	51		 push	 ecx
  00025	03 f3		 add	 esi, ebx
  00027	56		 push	 esi
  00028	53		 push	 ebx
  00029	e8 00 00 00 00	 call	 ??$_Median@PAUtagBaseCharDistanceSq@@VBaseCharDistanceSqSort2@@@std@@YAXPAUtagBaseCharDistanceSq@@00VBaseCharDistanceSqSort2@@@Z ; std::_Median<tagBaseCharDistanceSq *,BaseCharDistanceSqSort2>
  0002e	83 c4 10	 add	 esp, 16			; 00000010H

; 3715 : 	_RanIt _Pfirst = _Mid;
; 3716 : 	_RanIt _Plast = _Pfirst + 1;

  00031	8d 7e 20	 lea	 edi, DWORD PTR [esi+32]
  00034	eb 25		 jmp	 SHORT $LN100@Unguarded_
$LL27@Unguarded_:

; 3717 : 
; 3718 : 	while (_First < _Pfirst
; 3719 : 		&& !_DEBUG_LT_PRED(_Pred, *(_Pfirst - 1), *_Pfirst)
; 3720 : 		&& !_Pred(*_Pfirst, *(_Pfirst - 1)))

  00036	f3 0f 10 46 f0	 movss	 xmm0, DWORD PTR [esi-16]
  0003b	f3 0f 10 4e 10	 movss	 xmm1, DWORD PTR [esi+16]
  00040	0f 5a d0	 cvtps2pd xmm2, xmm0
  00043	0f 5a d9	 cvtps2pd xmm3, xmm1
  00046	66 0f 2f da	 comisd	 xmm3, xmm2
  0004a	77 13		 ja	 SHORT $LN94@Unguarded_
  0004c	0f 5a c9	 cvtps2pd xmm1, xmm1
  0004f	0f 5a c0	 cvtps2pd xmm0, xmm0
  00052	66 0f 2f c1	 comisd	 xmm0, xmm1
  00056	77 07		 ja	 SHORT $LN94@Unguarded_

; 3721 : 		--_Pfirst;

  00058	83 ee 20	 sub	 esi, 32			; 00000020H
$LN100@Unguarded_:

; 3717 : 
; 3718 : 	while (_First < _Pfirst
; 3719 : 		&& !_DEBUG_LT_PRED(_Pred, *(_Pfirst - 1), *_Pfirst)
; 3720 : 		&& !_Pred(*_Pfirst, *(_Pfirst - 1)))

  0005b	3b de		 cmp	 ebx, esi
  0005d	72 d7		 jb	 SHORT $LL27@Unguarded_
$LN94@Unguarded_:

; 3722 : 	while (_Plast < _Last
; 3723 : 		&& !_DEBUG_LT_PRED(_Pred, *_Plast, *_Pfirst)
; 3724 : 		&& !_Pred(*_Pfirst, *_Plast))

  0005f	3b 7d 10	 cmp	 edi, DWORD PTR __Last$[ebp]
  00062	73 32		 jae	 SHORT $LN96@Unguarded_
  00064	f3 0f 10 4e 10	 movss	 xmm1, DWORD PTR [esi+16]
$LL25@Unguarded_:
  00069	f3 0f 10 47 10	 movss	 xmm0, DWORD PTR [edi+16]
  0006e	0f 57 db	 xorps	 xmm3, xmm3
  00071	0f 5a d0	 cvtps2pd xmm2, xmm0
  00074	f3 0f 5a d9	 cvtss2sd xmm3, xmm1
  00078	66 0f 2f da	 comisd	 xmm3, xmm2
  0007c	77 18		 ja	 SHORT $LN96@Unguarded_
  0007e	0f 57 d2	 xorps	 xmm2, xmm2
  00081	f3 0f 5a d1	 cvtss2sd xmm2, xmm1
  00085	0f 5a c0	 cvtps2pd xmm0, xmm0
  00088	66 0f 2f c2	 comisd	 xmm0, xmm2
  0008c	77 08		 ja	 SHORT $LN96@Unguarded_

; 3725 : 		++_Plast;

  0008e	83 c7 20	 add	 edi, 32			; 00000020H
  00091	3b 7d 10	 cmp	 edi, DWORD PTR __Last$[ebp]
  00094	72 d3		 jb	 SHORT $LL25@Unguarded_
$LN96@Unguarded_:

; 3726 : 
; 3727 : 	_RanIt _Gfirst = _Plast;

  00096	8b df		 mov	 ebx, edi

; 3728 : 	_RanIt _Glast = _Pfirst;

  00098	89 75 fc	 mov	 DWORD PTR __Glast$[ebp], esi

; 3729 : 
; 3730 : 	for (; ; )
; 3731 : 		{	// partition
; 3732 : 		for (; _Gfirst < _Last; ++_Gfirst)

  0009b	eb 33		 jmp	 SHORT $LN102@Unguarded_
$LL21@Unguarded_:

; 3733 : 			if (_DEBUG_LT_PRED(_Pred, *_Pfirst, *_Gfirst))

  0009d	f3 0f 10 46 10	 movss	 xmm0, DWORD PTR [esi+16]
  000a2	f3 0f 10 4b 10	 movss	 xmm1, DWORD PTR [ebx+16]
  000a7	0f 5a d0	 cvtps2pd xmm2, xmm0
  000aa	0f 5a d9	 cvtps2pd xmm3, xmm1
  000ad	66 0f 2f da	 comisd	 xmm3, xmm2
  000b1	77 1a		 ja	 SHORT $LN20@Unguarded_

; 3734 : 				;
; 3735 : 			else if (_Pred(*_Gfirst, *_Pfirst))

  000b3	0f 5a c9	 cvtps2pd xmm1, xmm1
  000b6	0f 5a c0	 cvtps2pd xmm0, xmm0
  000b9	66 0f 2f c1	 comisd	 xmm0, xmm1
  000bd	77 52		 ja	 SHORT $LN97@Unguarded_

; 3736 : 				break;
; 3737 : 			else
; 3738 : 				_STD iter_swap(_Plast++, _Gfirst);

  000bf	8b c7		 mov	 eax, edi
  000c1	53		 push	 ebx
  000c2	83 c7 20	 add	 edi, 32			; 00000020H
  000c5	50		 push	 eax
$LN104@Unguarded_:
  000c6	e8 00 00 00 00	 call	 ??$swap@UtagBaseCharDistanceSq@@@std@@YAXAAUtagBaseCharDistanceSq@@0@Z ; std::swap<tagBaseCharDistanceSq>
  000cb	59		 pop	 ecx
  000cc	59		 pop	 ecx
$LN20@Unguarded_:

; 3729 : 
; 3730 : 	for (; ; )
; 3731 : 		{	// partition
; 3732 : 		for (; _Gfirst < _Last; ++_Gfirst)

  000cd	83 c3 20	 add	 ebx, 32			; 00000020H
$LN102@Unguarded_:
  000d0	3b 5d 10	 cmp	 ebx, DWORD PTR __Last$[ebp]
  000d3	72 c8		 jb	 SHORT $LL21@Unguarded_

; 3739 : 		for (; _First < _Glast; --_Glast)

  000d5	eb 3a		 jmp	 SHORT $LN97@Unguarded_
$LL99@Unguarded_:

; 3740 : 			if (_DEBUG_LT_PRED(_Pred, *(_Glast - 1), *_Pfirst))

  000d7	8b 4d fc	 mov	 ecx, DWORD PTR __Glast$[ebp]
  000da	f3 0f 10 41 f0	 movss	 xmm0, DWORD PTR [ecx-16]
  000df	f3 0f 10 4e 10	 movss	 xmm1, DWORD PTR [esi+16]
  000e4	0f 5a d0	 cvtps2pd xmm2, xmm0
  000e7	0f 5a d9	 cvtps2pd xmm3, xmm1
  000ea	66 0f 2f da	 comisd	 xmm3, xmm2
  000ee	77 1d		 ja	 SHORT $LN13@Unguarded_

; 3741 : 				;
; 3742 : 			else if (_Pred(*_Pfirst, *(_Glast - 1)))

  000f0	0f 5a c9	 cvtps2pd xmm1, xmm1
  000f3	0f 5a c0	 cvtps2pd xmm0, xmm0
  000f6	66 0f 2f c1	 comisd	 xmm0, xmm1
  000fa	77 1d		 ja	 SHORT $LN98@Unguarded_

; 3739 : 		for (; _First < _Glast; --_Glast)

  000fc	8b c1		 mov	 eax, ecx
  000fe	83 c0 e0	 add	 eax, -32		; ffffffe0H

; 3743 : 				break;
; 3744 : 			else
; 3745 : 				_STD iter_swap(--_Pfirst, _Glast - 1);

  00101	83 ee 20	 sub	 esi, 32			; 00000020H
  00104	50		 push	 eax
  00105	56		 push	 esi
  00106	e8 00 00 00 00	 call	 ??$swap@UtagBaseCharDistanceSq@@@std@@YAXAAUtagBaseCharDistanceSq@@0@Z ; std::swap<tagBaseCharDistanceSq>
  0010b	59		 pop	 ecx
  0010c	59		 pop	 ecx
$LN13@Unguarded_:

; 3739 : 		for (; _First < _Glast; --_Glast)

  0010d	83 6d fc 20	 sub	 DWORD PTR __Glast$[ebp], 32 ; 00000020H
$LN97@Unguarded_:
  00111	8b 45 0c	 mov	 eax, DWORD PTR __First$[ebp]
  00114	3b 45 fc	 cmp	 eax, DWORD PTR __Glast$[ebp]
  00117	72 be		 jb	 SHORT $LL99@Unguarded_
$LN98@Unguarded_:

; 3746 : 		if (_Glast == _First && _Gfirst == _Last)

  00119	39 45 fc	 cmp	 DWORD PTR __Glast$[ebp], eax
  0011c	75 1f		 jne	 SHORT $LN6@Unguarded_
  0011e	3b 5d 10	 cmp	 ebx, DWORD PTR __Last$[ebp]
  00121	74 50		 je	 SHORT $LN88@Unguarded_

; 3748 : 
; 3749 : 		if (_Glast == _First)
; 3750 : 			{	// no room at bottom, rotate pivot upward
; 3751 : 			if (_Plast != _Gfirst)

  00123	3b fb		 cmp	 edi, ebx
  00125	74 09		 je	 SHORT $LN70@Unguarded_

; 3752 : 				_STD iter_swap(_Pfirst, _Plast);

  00127	57		 push	 edi
  00128	56		 push	 esi
  00129	e8 00 00 00 00	 call	 ??$swap@UtagBaseCharDistanceSq@@@std@@YAXAAUtagBaseCharDistanceSq@@0@Z ; std::swap<tagBaseCharDistanceSq>
  0012e	59		 pop	 ecx
  0012f	59		 pop	 ecx
$LN70@Unguarded_:

; 3753 : 			++_Plast;
; 3754 : 			_STD iter_swap(_Pfirst++, _Gfirst++);

  00130	53		 push	 ebx
  00131	56		 push	 esi
  00132	83 c7 20	 add	 edi, 32			; 00000020H
  00135	83 c6 20	 add	 esi, 32			; 00000020H
  00138	83 c3 20	 add	 ebx, 32			; 00000020H
  0013b	eb 21		 jmp	 SHORT $LN101@Unguarded_
$LN6@Unguarded_:

; 3755 : 			}
; 3756 : 		else if (_Gfirst == _Last)
; 3757 : 			{	// no room at top, rotate pivot downward
; 3758 : 			if (--_Glast != --_Pfirst)

  0013d	83 6d fc 20	 sub	 DWORD PTR __Glast$[ebp], 32 ; 00000020H
  00141	3b 5d 10	 cmp	 ebx, DWORD PTR __Last$[ebp]
  00144	75 24		 jne	 SHORT $LN3@Unguarded_
  00146	83 ee 20	 sub	 esi, 32			; 00000020H
  00149	39 75 fc	 cmp	 DWORD PTR __Glast$[ebp], esi
  0014c	74 0b		 je	 SHORT $LN74@Unguarded_

; 3759 : 				_STD iter_swap(_Glast, _Pfirst);

  0014e	56		 push	 esi
  0014f	ff 75 fc	 push	 DWORD PTR __Glast$[ebp]
  00152	e8 00 00 00 00	 call	 ??$swap@UtagBaseCharDistanceSq@@@std@@YAXAAUtagBaseCharDistanceSq@@0@Z ; std::swap<tagBaseCharDistanceSq>
  00157	59		 pop	 ecx
  00158	59		 pop	 ecx
$LN74@Unguarded_:

; 3760 : 			_STD iter_swap(_Pfirst, --_Plast);

  00159	83 ef 20	 sub	 edi, 32			; 00000020H
  0015c	57		 push	 edi
  0015d	56		 push	 esi
$LN101@Unguarded_:
  0015e	e8 00 00 00 00	 call	 ??$swap@UtagBaseCharDistanceSq@@@std@@YAXAAUtagBaseCharDistanceSq@@0@Z ; std::swap<tagBaseCharDistanceSq>
  00163	59		 pop	 ecx
  00164	59		 pop	 ecx

; 3761 : 			}
; 3762 : 		else

  00165	e9 66 ff ff ff	 jmp	 $LN102@Unguarded_
$LN3@Unguarded_:

; 3763 : 			_STD iter_swap(_Gfirst++, --_Glast);

  0016a	ff 75 fc	 push	 DWORD PTR __Glast$[ebp]
  0016d	53		 push	 ebx

; 3764 : 		}

  0016e	e9 53 ff ff ff	 jmp	 $LN104@Unguarded_
$LN88@Unguarded_:

; 3747 : 			return (_STD pair<_RanIt, _RanIt>(_Pfirst, _Plast));

  00173	8b 45 08	 mov	 eax, DWORD PTR ___$ReturnUdt$[ebp]
  00176	89 78 04	 mov	 DWORD PTR [eax+4], edi
  00179	5f		 pop	 edi
  0017a	89 30		 mov	 DWORD PTR [eax], esi
  0017c	5e		 pop	 esi
  0017d	5b		 pop	 ebx

; 3765 : 	}

  0017e	c9		 leave
  0017f	c3		 ret	 0
??$_Unguarded_partition@PAUtagBaseCharDistanceSq@@VBaseCharDistanceSqSort2@@@std@@YA?AU?$pair@PAUtagBaseCharDistanceSq@@PAU1@@0@PAUtagBaseCharDistanceSq@@0VBaseCharDistanceSqSort2@@@Z ENDP ; std::_Unguarded_partition<tagBaseCharDistanceSq *,BaseCharDistanceSqSort2>
_TEXT	ENDS
PUBLIC	??$make_heap@PAUtagBaseCharDistanceSq@@VBaseCharDistanceSqSort2@@@std@@YAXPAUtagBaseCharDistanceSq@@0VBaseCharDistanceSqSort2@@@Z ; std::make_heap<tagBaseCharDistanceSq *,BaseCharDistanceSqSort2>
; Function compile flags: /Ogsp
;	COMDAT ??$make_heap@PAUtagBaseCharDistanceSq@@VBaseCharDistanceSqSort2@@@std@@YAXPAUtagBaseCharDistanceSq@@0VBaseCharDistanceSqSort2@@@Z
_TEXT	SEGMENT
__First$ = 8						; size = 4
__Last$ = 12						; size = 4
__Pred$ = 16						; size = 1
??$make_heap@PAUtagBaseCharDistanceSq@@VBaseCharDistanceSqSort2@@@std@@YAXPAUtagBaseCharDistanceSq@@0VBaseCharDistanceSqSort2@@@Z PROC ; std::make_heap<tagBaseCharDistanceSq *,BaseCharDistanceSqSort2>, COMDAT

; 2672 : 	{	// make [_First, _Last) into a heap, using _Pred

  00000	55		 push	 ebp
  00001	8b ec		 mov	 ebp, esp

; 2673 : 	_DEBUG_RANGE(_First, _Last);
; 2674 : 	_DEBUG_POINTER(_Pred);
; 2675 : 	if (1 < _Last - _First)

  00003	8b 45 0c	 mov	 eax, DWORD PTR __Last$[ebp]
  00006	2b 45 08	 sub	 eax, DWORD PTR __First$[ebp]
  00009	83 e0 e0	 and	 eax, -32		; ffffffe0H
  0000c	83 f8 20	 cmp	 eax, 32			; 00000020H
  0000f	7e 15		 jle	 SHORT $LN1@make_heap

; 2676 : 		_Make_heap(_Unchecked(_First), _Unchecked(_Last), _Pred,
; 2677 : 			_Dist_type(_First), _Val_type(_First));

  00011	6a 00		 push	 0
  00013	6a 00		 push	 0
  00015	ff 75 10	 push	 DWORD PTR __Pred$[ebp]
  00018	ff 75 0c	 push	 DWORD PTR __Last$[ebp]
  0001b	ff 75 08	 push	 DWORD PTR __First$[ebp]
  0001e	e8 00 00 00 00	 call	 ??$_Make_heap@PAUtagBaseCharDistanceSq@@HU1@VBaseCharDistanceSqSort2@@@std@@YAXPAUtagBaseCharDistanceSq@@0VBaseCharDistanceSqSort2@@PAH0@Z ; std::_Make_heap<tagBaseCharDistanceSq *,int,tagBaseCharDistanceSq,BaseCharDistanceSqSort2>
  00023	83 c4 14	 add	 esp, 20			; 00000014H
$LN1@make_heap:

; 2678 : 	}

  00026	5d		 pop	 ebp
  00027	c3		 ret	 0
??$make_heap@PAUtagBaseCharDistanceSq@@VBaseCharDistanceSqSort2@@@std@@YAXPAUtagBaseCharDistanceSq@@0VBaseCharDistanceSqSort2@@@Z ENDP ; std::make_heap<tagBaseCharDistanceSq *,BaseCharDistanceSqSort2>
_TEXT	ENDS
PUBLIC	??$_Uninit_move@PAUtagBaseCharDistanceSq@@PAU1@V?$allocator@UtagBaseCharDistanceSq@@@std@@U1@@std@@YAPAUtagBaseCharDistanceSq@@PAU1@00AAV?$allocator@UtagBaseCharDistanceSq@@@0@0U_Nonscalar_ptr_iterator_tag@0@@Z ; std::_Uninit_move<tagBaseCharDistanceSq *,tagBaseCharDistanceSq *,std::allocator<tagBaseCharDistanceSq>,tagBaseCharDistanceSq>
EXTRN	__EH_prolog3_catch:PROC
;	COMDAT xdata$x
; File d:\lost saga for developer\youtube\tutorial\source\src\lsclient\iotargetbuffskill.cpp
xdata$x	SEGMENT
__catchsym$??$_Uninit_move@PAUtagBaseCharDistanceSq@@PAU1@V?$allocator@UtagBaseCharDistanceSq@@@std@@U1@@std@@YAPAUtagBaseCharDistanceSq@@PAU1@00AAV?$allocator@UtagBaseCharDistanceSq@@@0@0U_Nonscalar_ptr_iterator_tag@0@@Z$3 DD 040H
	DD	00H
	DD	00H
	DD	FLAT:__catch$??$_Uninit_move@PAUtagBaseCharDistanceSq@@PAU1@V?$allocator@UtagBaseCharDistanceSq@@@std@@U1@@std@@YAPAUtagBaseCharDistanceSq@@PAU1@00AAV?$allocator@UtagBaseCharDistanceSq@@@0@0U_Nonscalar_ptr_iterator_tag@0@@Z$0
__unwindtable$??$_Uninit_move@PAUtagBaseCharDistanceSq@@PAU1@V?$allocator@UtagBaseCharDistanceSq@@@std@@U1@@std@@YAPAUtagBaseCharDistanceSq@@PAU1@00AAV?$allocator@UtagBaseCharDistanceSq@@@0@0U_Nonscalar_ptr_iterator_tag@0@@Z DD 0ffffffffH
	DD	00H
	DD	0ffffffffH
	DD	00H
__tryblocktable$??$_Uninit_move@PAUtagBaseCharDistanceSq@@PAU1@V?$allocator@UtagBaseCharDistanceSq@@@std@@U1@@std@@YAPAUtagBaseCharDistanceSq@@PAU1@00AAV?$allocator@UtagBaseCharDistanceSq@@@0@0U_Nonscalar_ptr_iterator_tag@0@@Z DD 00H
	DD	00H
	DD	01H
	DD	01H
	DD	FLAT:__catchsym$??$_Uninit_move@PAUtagBaseCharDistanceSq@@PAU1@V?$allocator@UtagBaseCharDistanceSq@@@std@@U1@@std@@YAPAUtagBaseCharDistanceSq@@PAU1@00AAV?$allocator@UtagBaseCharDistanceSq@@@0@0U_Nonscalar_ptr_iterator_tag@0@@Z$3
__ehfuncinfo$??$_Uninit_move@PAUtagBaseCharDistanceSq@@PAU1@V?$allocator@UtagBaseCharDistanceSq@@@std@@U1@@std@@YAPAUtagBaseCharDistanceSq@@PAU1@00AAV?$allocator@UtagBaseCharDistanceSq@@@0@0U_Nonscalar_ptr_iterator_tag@0@@Z DD 019930522H
	DD	02H
	DD	FLAT:__unwindtable$??$_Uninit_move@PAUtagBaseCharDistanceSq@@PAU1@V?$allocator@UtagBaseCharDistanceSq@@@std@@U1@@std@@YAPAUtagBaseCharDistanceSq@@PAU1@00AAV?$allocator@UtagBaseCharDistanceSq@@@0@0U_Nonscalar_ptr_iterator_tag@0@@Z
	DD	01H
	DD	FLAT:__tryblocktable$??$_Uninit_move@PAUtagBaseCharDistanceSq@@PAU1@V?$allocator@UtagBaseCharDistanceSq@@@std@@U1@@std@@YAPAUtagBaseCharDistanceSq@@PAU1@00AAV?$allocator@UtagBaseCharDistanceSq@@@0@0U_Nonscalar_ptr_iterator_tag@0@@Z
	DD	2 DUP(00H)
	DD	00H
	DD	01H
; Function compile flags: /Ogsp
; File c:\program files (x86)\microsoft visual studio 10.0\vc\include\memory
xdata$x	ENDS
;	COMDAT ??$_Uninit_move@PAUtagBaseCharDistanceSq@@PAU1@V?$allocator@UtagBaseCharDistanceSq@@@std@@U1@@std@@YAPAUtagBaseCharDistanceSq@@PAU1@00AAV?$allocator@UtagBaseCharDistanceSq@@@0@0U_Nonscalar_ptr_iterator_tag@0@@Z
_TEXT	SEGMENT
__Next$ = -20						; size = 4
__$EHRec$ = -16						; size = 16
__First$ = 8						; size = 4
__Last$ = 12						; size = 4
__Dest$ = 16						; size = 4
__Al$ = 20						; size = 4
___formal$ = 24						; size = 4
___formal$ = 28						; size = 1
??$_Uninit_move@PAUtagBaseCharDistanceSq@@PAU1@V?$allocator@UtagBaseCharDistanceSq@@@std@@U1@@std@@YAPAUtagBaseCharDistanceSq@@PAU1@00AAV?$allocator@UtagBaseCharDistanceSq@@@0@0U_Nonscalar_ptr_iterator_tag@0@@Z PROC ; std::_Uninit_move<tagBaseCharDistanceSq *,tagBaseCharDistanceSq *,std::allocator<tagBaseCharDistanceSq>,tagBaseCharDistanceSq>, COMDAT

; 424  : 	{	// move [_First, _Last) to raw _Dest, using _Al, arbitrary type

  00000	6a 08		 push	 8
  00002	b8 00 00 00 00	 mov	 eax, __ehhandler$??$_Uninit_move@PAUtagBaseCharDistanceSq@@PAU1@V?$allocator@UtagBaseCharDistanceSq@@@std@@U1@@std@@YAPAUtagBaseCharDistanceSq@@PAU1@00AAV?$allocator@UtagBaseCharDistanceSq@@@0@0U_Nonscalar_ptr_iterator_tag@0@@Z
  00007	e8 00 00 00 00	 call	 __EH_prolog3_catch

; 425  : 	_DEBUG_RANGE(_First, _Last);
; 426  : 	_DEBUG_POINTER(_Dest);
; 427  : 	_FwdIt _Next = _Dest;

  0000c	8b 45 10	 mov	 eax, DWORD PTR __Dest$[ebp]

; 428  : 
; 429  : 	_TRY_BEGIN

  0000f	83 65 fc 00	 and	 DWORD PTR __$EHRec$[ebp+12], 0
  00013	8b 75 08	 mov	 esi, DWORD PTR __First$[ebp]
  00016	89 45 ec	 mov	 DWORD PTR __Next$[ebp], eax
$LL6@Uninit_mov:

; 430  : 	for (; _First != _Last; ++_Dest, ++_First)

  00019	3b 75 0c	 cmp	 esi, DWORD PTR __Last$[ebp]
  0001c	74 36		 je	 SHORT $LN4@Uninit_mov

; 431  : 		_Cons_val(_Al, _Dest, (_Valty &&)*_First);

  0001e	56		 push	 esi
  0001f	ff 75 10	 push	 DWORD PTR __Dest$[ebp]
  00022	ff 75 14	 push	 DWORD PTR __Al$[ebp]
  00025	e8 00 00 00 00	 call	 ??$_Cons_val@V?$allocator@UtagBaseCharDistanceSq@@@std@@UtagBaseCharDistanceSq@@U3@@std@@YAXAAV?$allocator@UtagBaseCharDistanceSq@@@0@PAUtagBaseCharDistanceSq@@$$QAU2@@Z ; std::_Cons_val<std::allocator<tagBaseCharDistanceSq>,tagBaseCharDistanceSq,tagBaseCharDistanceSq>
  0002a	83 45 10 20	 add	 DWORD PTR __Dest$[ebp], 32 ; 00000020H
  0002e	83 c4 0c	 add	 esp, 12			; 0000000cH
  00031	83 c6 20	 add	 esi, 32			; 00000020H
  00034	eb e3		 jmp	 SHORT $LL6@Uninit_mov
__catch$??$_Uninit_move@PAUtagBaseCharDistanceSq@@PAU1@V?$allocator@UtagBaseCharDistanceSq@@@std@@U1@@std@@YAPAUtagBaseCharDistanceSq@@PAU1@00AAV?$allocator@UtagBaseCharDistanceSq@@@0@0U_Nonscalar_ptr_iterator_tag@0@@Z$0:

; 432  : 	_CATCH_ALL
; 433  : 	for (; _Next != _Dest; ++_Next)

  00036	8b 75 ec	 mov	 esi, DWORD PTR __Next$[ebp]
  00039	eb 0b		 jmp	 SHORT $LN32@Uninit_mov
$LL3@Uninit_mov:

; 434  : 		_Dest_val(_Al, _Next);

  0003b	8b ce		 mov	 ecx, esi
  0003d	ff 15 00 00 00
	00		 call	 DWORD PTR __imp_??1ioHashString@@QAE@XZ
  00043	83 c6 20	 add	 esi, 32			; 00000020H
$LN32@Uninit_mov:

; 432  : 	_CATCH_ALL
; 433  : 	for (; _Next != _Dest; ++_Next)

  00046	3b 75 10	 cmp	 esi, DWORD PTR __Dest$[ebp]
  00049	75 f0		 jne	 SHORT $LL3@Uninit_mov

; 435  : 	_RERAISE;

  0004b	6a 00		 push	 0
  0004d	6a 00		 push	 0
  0004f	e8 00 00 00 00	 call	 __CxxThrowException@8
$LN33@Uninit_mov:
$LN4@Uninit_mov:

; 436  : 	_CATCH_END
; 437  : 	return (_Dest);

  00054	8b 45 10	 mov	 eax, DWORD PTR __Dest$[ebp]

; 438  : 	}

  00057	e8 00 00 00 00	 call	 __EH_epilog3
  0005c	c3		 ret	 0
$LN31@Uninit_mov:
_TEXT	ENDS
;	COMDAT text$x
text$x	SEGMENT
__ehhandler$??$_Uninit_move@PAUtagBaseCharDistanceSq@@PAU1@V?$allocator@UtagBaseCharDistanceSq@@@std@@U1@@std@@YAPAUtagBaseCharDistanceSq@@PAU1@00AAV?$allocator@UtagBaseCharDistanceSq@@@0@0U_Nonscalar_ptr_iterator_tag@0@@Z:
  00000	8b 54 24 08	 mov	 edx, DWORD PTR [esp+8]
  00004	8d 42 0c	 lea	 eax, DWORD PTR [edx+12]
  00007	8b 4a e8	 mov	 ecx, DWORD PTR [edx-24]
  0000a	33 c8		 xor	 ecx, eax
  0000c	e8 00 00 00 00	 call	 @__security_check_cookie@4
  00011	b8 00 00 00 00	 mov	 eax, OFFSET __ehfuncinfo$??$_Uninit_move@PAUtagBaseCharDistanceSq@@PAU1@V?$allocator@UtagBaseCharDistanceSq@@@std@@U1@@std@@YAPAUtagBaseCharDistanceSq@@PAU1@00AAV?$allocator@UtagBaseCharDistanceSq@@@0@0U_Nonscalar_ptr_iterator_tag@0@@Z
  00016	e9 00 00 00 00	 jmp	 ___CxxFrameHandler3
text$x	ENDS
??$_Uninit_move@PAUtagBaseCharDistanceSq@@PAU1@V?$allocator@UtagBaseCharDistanceSq@@@std@@U1@@std@@YAPAUtagBaseCharDistanceSq@@PAU1@00AAV?$allocator@UtagBaseCharDistanceSq@@@0@0U_Nonscalar_ptr_iterator_tag@0@@Z ENDP ; std::_Uninit_move<tagBaseCharDistanceSq *,tagBaseCharDistanceSq *,std::allocator<tagBaseCharDistanceSq>,tagBaseCharDistanceSq>
PUBLIC	??$_Pop_heap@PAUtagBaseCharDistanceSq@@VBaseCharDistanceSqSort2@@@std@@YAXPAUtagBaseCharDistanceSq@@0VBaseCharDistanceSqSort2@@@Z ; std::_Pop_heap<tagBaseCharDistanceSq *,BaseCharDistanceSqSort2>
; Function compile flags: /Ogsp
; File c:\program files (x86)\microsoft visual studio 10.0\vc\include\algorithm
;	COMDAT ??$_Pop_heap@PAUtagBaseCharDistanceSq@@VBaseCharDistanceSqSort2@@@std@@YAXPAUtagBaseCharDistanceSq@@0VBaseCharDistanceSqSort2@@@Z
_TEXT	SEGMENT
__First$ = 8						; size = 4
__Last$ = 12						; size = 4
__Pred$ = 16						; size = 1
??$_Pop_heap@PAUtagBaseCharDistanceSq@@VBaseCharDistanceSqSort2@@@std@@YAXPAUtagBaseCharDistanceSq@@0VBaseCharDistanceSqSort2@@@Z PROC ; std::_Pop_heap<tagBaseCharDistanceSq *,BaseCharDistanceSqSort2>, COMDAT

; 2610 : 	{	// pop *_First to *(_Last - 1) and reheap, using _Pred

  00000	55		 push	 ebp
  00001	8b ec		 mov	 ebp, esp

; 2611 : 	_Pop_heap_0(_Unchecked(_First), _Unchecked(_Last), _Pred,
; 2612 : 		_Val_type(_First));

  00003	6a 00		 push	 0
  00005	ff 75 10	 push	 DWORD PTR __Pred$[ebp]
  00008	ff 75 0c	 push	 DWORD PTR __Last$[ebp]
  0000b	ff 75 08	 push	 DWORD PTR __First$[ebp]
  0000e	e8 00 00 00 00	 call	 ??$_Pop_heap_0@PAUtagBaseCharDistanceSq@@U1@VBaseCharDistanceSqSort2@@@std@@YAXPAUtagBaseCharDistanceSq@@0VBaseCharDistanceSqSort2@@0@Z ; std::_Pop_heap_0<tagBaseCharDistanceSq *,tagBaseCharDistanceSq,BaseCharDistanceSqSort2>
  00013	83 c4 10	 add	 esp, 16			; 00000010H

; 2613 : 	}

  00016	5d		 pop	 ebp
  00017	c3		 ret	 0
??$_Pop_heap@PAUtagBaseCharDistanceSq@@VBaseCharDistanceSqSort2@@@std@@YAXPAUtagBaseCharDistanceSq@@0VBaseCharDistanceSqSort2@@@Z ENDP ; std::_Pop_heap<tagBaseCharDistanceSq *,BaseCharDistanceSqSort2>
_TEXT	ENDS
PUBLIC	??$_Destroy_range@V?$allocator@UtagBaseCharDistanceSq@@@std@@@std@@YAXPAUtagBaseCharDistanceSq@@0AAV?$allocator@UtagBaseCharDistanceSq@@@0@@Z ; std::_Destroy_range<std::allocator<tagBaseCharDistanceSq> >
; Function compile flags: /Ogsp
; File c:\program files (x86)\microsoft visual studio 10.0\vc\include\xmemory
;	COMDAT ??$_Destroy_range@V?$allocator@UtagBaseCharDistanceSq@@@std@@@std@@YAXPAUtagBaseCharDistanceSq@@0AAV?$allocator@UtagBaseCharDistanceSq@@@0@@Z
_TEXT	SEGMENT
__First$ = 8						; size = 4
__Last$ = 12						; size = 4
__Al$ = 16						; size = 4
??$_Destroy_range@V?$allocator@UtagBaseCharDistanceSq@@@std@@@std@@YAXPAUtagBaseCharDistanceSq@@0AAV?$allocator@UtagBaseCharDistanceSq@@@0@@Z PROC ; std::_Destroy_range<std::allocator<tagBaseCharDistanceSq> >, COMDAT

; 87   : 	{	// destroy [_First, _Last)

  00000	55		 push	 ebp
  00001	8b ec		 mov	 ebp, esp
  00003	56		 push	 esi

; 88   : 	_Destroy_range(_First, _Last, _Al, _Ptr_cat(_First, _Last));

  00004	8b 75 08	 mov	 esi, DWORD PTR __First$[ebp]
  00007	eb 0b		 jmp	 SHORT $LN24@Destroy_ra@2
$LL7@Destroy_ra@2:
  00009	8b ce		 mov	 ecx, esi
  0000b	ff 15 00 00 00
	00		 call	 DWORD PTR __imp_??1ioHashString@@QAE@XZ
  00011	83 c6 20	 add	 esi, 32			; 00000020H
$LN24@Destroy_ra@2:
  00014	3b 75 0c	 cmp	 esi, DWORD PTR __Last$[ebp]
  00017	75 f0		 jne	 SHORT $LL7@Destroy_ra@2
  00019	5e		 pop	 esi

; 89   : 	}

  0001a	5d		 pop	 ebp
  0001b	c3		 ret	 0
??$_Destroy_range@V?$allocator@UtagBaseCharDistanceSq@@@std@@@std@@YAXPAUtagBaseCharDistanceSq@@0AAV?$allocator@UtagBaseCharDistanceSq@@@0@@Z ENDP ; std::_Destroy_range<std::allocator<tagBaseCharDistanceSq> >
_TEXT	ENDS
PUBLIC	??$_Uninitialized_move@PAUtagBaseCharDistanceSq@@PAU1@V?$allocator@UtagBaseCharDistanceSq@@@std@@@std@@YAPAUtagBaseCharDistanceSq@@PAU1@00AAV?$allocator@UtagBaseCharDistanceSq@@@0@@Z ; std::_Uninitialized_move<tagBaseCharDistanceSq *,tagBaseCharDistanceSq *,std::allocator<tagBaseCharDistanceSq> >
; Function compile flags: /Ogsp
; File c:\program files (x86)\microsoft visual studio 10.0\vc\include\memory
;	COMDAT ??$_Uninitialized_move@PAUtagBaseCharDistanceSq@@PAU1@V?$allocator@UtagBaseCharDistanceSq@@@std@@@std@@YAPAUtagBaseCharDistanceSq@@PAU1@00AAV?$allocator@UtagBaseCharDistanceSq@@@0@@Z
_TEXT	SEGMENT
__Cat$557116 = -4					; size = 1
__First$ = 8						; size = 4
__Last$ = 12						; size = 4
__Dest$ = 16						; size = 4
__Al$ = 20						; size = 4
??$_Uninitialized_move@PAUtagBaseCharDistanceSq@@PAU1@V?$allocator@UtagBaseCharDistanceSq@@@std@@@std@@YAPAUtagBaseCharDistanceSq@@PAU1@00AAV?$allocator@UtagBaseCharDistanceSq@@@0@@Z PROC ; std::_Uninitialized_move<tagBaseCharDistanceSq *,tagBaseCharDistanceSq *,std::allocator<tagBaseCharDistanceSq> >, COMDAT

; 469  : 	{	// move [_First, _Last) to raw _Dest, using _Al

  00000	55		 push	 ebp
  00001	8b ec		 mov	 ebp, esp
  00003	51		 push	 ecx

; 470  : 	return (_Uninit_move(_First, _Last, _Dest, _Al,
; 471  : 		_Val_type(_First), _Ptr_cat(_First, _Dest)));

  00004	ff 75 fc	 push	 DWORD PTR __Cat$557116[ebp]
  00007	6a 00		 push	 0
  00009	ff 75 14	 push	 DWORD PTR __Al$[ebp]
  0000c	ff 75 10	 push	 DWORD PTR __Dest$[ebp]
  0000f	ff 75 0c	 push	 DWORD PTR __Last$[ebp]
  00012	ff 75 08	 push	 DWORD PTR __First$[ebp]
  00015	e8 00 00 00 00	 call	 ??$_Uninit_move@PAUtagBaseCharDistanceSq@@PAU1@V?$allocator@UtagBaseCharDistanceSq@@@std@@U1@@std@@YAPAUtagBaseCharDistanceSq@@PAU1@00AAV?$allocator@UtagBaseCharDistanceSq@@@0@0U_Nonscalar_ptr_iterator_tag@0@@Z ; std::_Uninit_move<tagBaseCharDistanceSq *,tagBaseCharDistanceSq *,std::allocator<tagBaseCharDistanceSq>,tagBaseCharDistanceSq>
  0001a	83 c4 18	 add	 esp, 24			; 00000018H

; 472  : 	}

  0001d	c9		 leave
  0001e	c3		 ret	 0
??$_Uninitialized_move@PAUtagBaseCharDistanceSq@@PAU1@V?$allocator@UtagBaseCharDistanceSq@@@std@@@std@@YAPAUtagBaseCharDistanceSq@@PAU1@00AAV?$allocator@UtagBaseCharDistanceSq@@@0@@Z ENDP ; std::_Uninitialized_move<tagBaseCharDistanceSq *,tagBaseCharDistanceSq *,std::allocator<tagBaseCharDistanceSq> >
_TEXT	ENDS
PUBLIC	??$_Sort_heap@PAUtagBaseCharDistanceSq@@VBaseCharDistanceSqSort2@@@std@@YAXPAUtagBaseCharDistanceSq@@0VBaseCharDistanceSqSort2@@@Z ; std::_Sort_heap<tagBaseCharDistanceSq *,BaseCharDistanceSqSort2>
; Function compile flags: /Ogsp
; File c:\program files (x86)\microsoft visual studio 10.0\vc\include\algorithm
;	COMDAT ??$_Sort_heap@PAUtagBaseCharDistanceSq@@VBaseCharDistanceSqSort2@@@std@@YAXPAUtagBaseCharDistanceSq@@0VBaseCharDistanceSqSort2@@@Z
_TEXT	SEGMENT
__First$ = 8						; size = 4
__Last$ = 12						; size = 4
__Pred$ = 16						; size = 1
??$_Sort_heap@PAUtagBaseCharDistanceSq@@VBaseCharDistanceSqSort2@@@std@@YAXPAUtagBaseCharDistanceSq@@0VBaseCharDistanceSqSort2@@@Z PROC ; std::_Sort_heap<tagBaseCharDistanceSq *,BaseCharDistanceSqSort2>, COMDAT

; 2700 : 	{	// order heap by repeatedly popping, using _Pred

  00000	55		 push	 ebp
  00001	8b ec		 mov	 ebp, esp

; 2701 : 	for (; 1 < _Last - _First; --_Last)

  00003	8b 45 0c	 mov	 eax, DWORD PTR __Last$[ebp]
  00006	2b 45 08	 sub	 eax, DWORD PTR __First$[ebp]
  00009	8b c8		 mov	 ecx, eax
  0000b	83 e1 e0	 and	 ecx, -32		; ffffffe0H
  0000e	83 f9 20	 cmp	 ecx, 32			; 00000020H
  00011	7e 28		 jle	 SHORT $LN1@Sort_heap
  00013	57		 push	 edi
  00014	8b f8		 mov	 edi, eax
$LL3@Sort_heap:

; 2702 : 		_Pop_heap(_First, _Last, _Pred);

  00016	6a 00		 push	 0
  00018	ff 75 10	 push	 DWORD PTR __Pred$[ebp]
  0001b	ff 75 0c	 push	 DWORD PTR __Last$[ebp]
  0001e	ff 75 08	 push	 DWORD PTR __First$[ebp]
  00021	e8 00 00 00 00	 call	 ??$_Pop_heap_0@PAUtagBaseCharDistanceSq@@U1@VBaseCharDistanceSqSort2@@@std@@YAXPAUtagBaseCharDistanceSq@@0VBaseCharDistanceSqSort2@@0@Z ; std::_Pop_heap_0<tagBaseCharDistanceSq *,tagBaseCharDistanceSq,BaseCharDistanceSqSort2>
  00026	83 6d 0c 20	 sub	 DWORD PTR __Last$[ebp], 32 ; 00000020H
  0002a	83 ef 20	 sub	 edi, 32			; 00000020H
  0002d	8b c7		 mov	 eax, edi
  0002f	83 e0 e0	 and	 eax, -32		; ffffffe0H
  00032	83 c4 10	 add	 esp, 16			; 00000010H
  00035	83 f8 20	 cmp	 eax, 32			; 00000020H
  00038	7f dc		 jg	 SHORT $LL3@Sort_heap
  0003a	5f		 pop	 edi
$LN1@Sort_heap:

; 2703 : 	}

  0003b	5d		 pop	 ebp
  0003c	c3		 ret	 0
??$_Sort_heap@PAUtagBaseCharDistanceSq@@VBaseCharDistanceSqSort2@@@std@@YAXPAUtagBaseCharDistanceSq@@0VBaseCharDistanceSqSort2@@@Z ENDP ; std::_Sort_heap<tagBaseCharDistanceSq *,BaseCharDistanceSqSort2>
_TEXT	ENDS
PUBLIC	?_Destroy@?$vector@UtagBaseCharDistanceSq@@V?$allocator@UtagBaseCharDistanceSq@@@std@@@std@@IAEXPAUtagBaseCharDistanceSq@@0@Z ; std::vector<tagBaseCharDistanceSq,std::allocator<tagBaseCharDistanceSq> >::_Destroy
; Function compile flags: /Ogsp
; File c:\program files (x86)\microsoft visual studio 10.0\vc\include\vector
;	COMDAT ?_Destroy@?$vector@UtagBaseCharDistanceSq@@V?$allocator@UtagBaseCharDistanceSq@@@std@@@std@@IAEXPAUtagBaseCharDistanceSq@@0@Z
_TEXT	SEGMENT
__First$ = 8						; size = 4
__Last$ = 12						; size = 4
?_Destroy@?$vector@UtagBaseCharDistanceSq@@V?$allocator@UtagBaseCharDistanceSq@@@std@@@std@@IAEXPAUtagBaseCharDistanceSq@@0@Z PROC ; std::vector<tagBaseCharDistanceSq,std::allocator<tagBaseCharDistanceSq> >::_Destroy, COMDAT
; _this$ = ecx

; 1269 : 		{	// destroy [_First, _Last) using allocator

  00000	55		 push	 ebp
  00001	8b ec		 mov	 ebp, esp
  00003	56		 push	 esi

; 1270 : 		_Destroy_range(_First, _Last, this->_Alval);

  00004	8b 75 08	 mov	 esi, DWORD PTR __First$[ebp]
  00007	eb 0b		 jmp	 SHORT $LN26@Destroy
$LL9@Destroy:
  00009	8b ce		 mov	 ecx, esi
  0000b	ff 15 00 00 00
	00		 call	 DWORD PTR __imp_??1ioHashString@@QAE@XZ
  00011	83 c6 20	 add	 esi, 32			; 00000020H
$LN26@Destroy:
  00014	3b 75 0c	 cmp	 esi, DWORD PTR __Last$[ebp]
  00017	75 f0		 jne	 SHORT $LL9@Destroy
  00019	5e		 pop	 esi

; 1271 : 		}

  0001a	5d		 pop	 ebp
  0001b	c2 08 00	 ret	 8
?_Destroy@?$vector@UtagBaseCharDistanceSq@@V?$allocator@UtagBaseCharDistanceSq@@@std@@@std@@IAEXPAUtagBaseCharDistanceSq@@0@Z ENDP ; std::vector<tagBaseCharDistanceSq,std::allocator<tagBaseCharDistanceSq> >::_Destroy
_TEXT	ENDS
PUBLIC	??$_Umove@PAUtagBaseCharDistanceSq@@@?$vector@UtagBaseCharDistanceSq@@V?$allocator@UtagBaseCharDistanceSq@@@std@@@std@@IAEPAUtagBaseCharDistanceSq@@PAU2@00@Z ; std::vector<tagBaseCharDistanceSq,std::allocator<tagBaseCharDistanceSq> >::_Umove<tagBaseCharDistanceSq *>
; Function compile flags: /Ogsp
;	COMDAT ??$_Umove@PAUtagBaseCharDistanceSq@@@?$vector@UtagBaseCharDistanceSq@@V?$allocator@UtagBaseCharDistanceSq@@@std@@@std@@IAEPAUtagBaseCharDistanceSq@@PAU2@00@Z
_TEXT	SEGMENT
__First$ = 8						; size = 4
__Last$ = 12						; size = 4
__Ptr$ = 16						; size = 4
??$_Umove@PAUtagBaseCharDistanceSq@@@?$vector@UtagBaseCharDistanceSq@@V?$allocator@UtagBaseCharDistanceSq@@@std@@@std@@IAEPAUtagBaseCharDistanceSq@@PAU2@00@Z PROC ; std::vector<tagBaseCharDistanceSq,std::allocator<tagBaseCharDistanceSq> >::_Umove<tagBaseCharDistanceSq *>, COMDAT
; _this$ = ecx

; 1322 : 		pointer _Umove(_Iter _First, _Iter _Last, pointer _Ptr)

  00000	55		 push	 ebp
  00001	8b ec		 mov	 ebp, esp

; 1323 : 		{	// move initializing [_First, _Last), using allocator
; 1324 : 		return (_Uninitialized_move(_First, _Last,
; 1325 : 			_Ptr, this->_Alval));

  00003	83 c1 0c	 add	 ecx, 12			; 0000000cH
  00006	51		 push	 ecx
  00007	ff 75 10	 push	 DWORD PTR __Ptr$[ebp]
  0000a	ff 75 0c	 push	 DWORD PTR __Last$[ebp]
  0000d	ff 75 08	 push	 DWORD PTR __First$[ebp]
  00010	e8 00 00 00 00	 call	 ??$_Uninitialized_move@PAUtagBaseCharDistanceSq@@PAU1@V?$allocator@UtagBaseCharDistanceSq@@@std@@@std@@YAPAUtagBaseCharDistanceSq@@PAU1@00AAV?$allocator@UtagBaseCharDistanceSq@@@0@@Z ; std::_Uninitialized_move<tagBaseCharDistanceSq *,tagBaseCharDistanceSq *,std::allocator<tagBaseCharDistanceSq> >
  00015	83 c4 10	 add	 esp, 16			; 00000010H

; 1326 : 		}

  00018	5d		 pop	 ebp
  00019	c2 0c 00	 ret	 12			; 0000000cH
??$_Umove@PAUtagBaseCharDistanceSq@@@?$vector@UtagBaseCharDistanceSq@@V?$allocator@UtagBaseCharDistanceSq@@@std@@@std@@IAEPAUtagBaseCharDistanceSq@@PAU2@00@Z ENDP ; std::vector<tagBaseCharDistanceSq,std::allocator<tagBaseCharDistanceSq> >::_Umove<tagBaseCharDistanceSq *>
_TEXT	ENDS
PUBLIC	??$sort_heap@PAUtagBaseCharDistanceSq@@VBaseCharDistanceSqSort2@@@std@@YAXPAUtagBaseCharDistanceSq@@0VBaseCharDistanceSqSort2@@@Z ; std::sort_heap<tagBaseCharDistanceSq *,BaseCharDistanceSqSort2>
; Function compile flags: /Ogsp
; File c:\program files (x86)\microsoft visual studio 10.0\vc\include\algorithm
;	COMDAT ??$sort_heap@PAUtagBaseCharDistanceSq@@VBaseCharDistanceSqSort2@@@std@@YAXPAUtagBaseCharDistanceSq@@0VBaseCharDistanceSqSort2@@@Z
_TEXT	SEGMENT
__First$ = 8						; size = 4
__Last$ = 12						; size = 4
__Pred$ = 16						; size = 1
??$sort_heap@PAUtagBaseCharDistanceSq@@VBaseCharDistanceSqSort2@@@std@@YAXPAUtagBaseCharDistanceSq@@0VBaseCharDistanceSqSort2@@@Z PROC ; std::sort_heap<tagBaseCharDistanceSq *,BaseCharDistanceSqSort2>, COMDAT

; 2708 : 	{	// order heap by repeatedly popping, using _Pred

  00000	55		 push	 ebp
  00001	8b ec		 mov	 ebp, esp

; 2709 : 	_DEBUG_RANGE(_First, _Last);
; 2710 : 	_DEBUG_POINTER(_Pred);
; 2711 : 	_DEBUG_HEAP_PRED(_First, _Last, _Pred);
; 2712 : 	_Sort_heap(_Unchecked(_First), _Unchecked(_Last), _Pred);

  00003	ff 75 10	 push	 DWORD PTR __Pred$[ebp]
  00006	ff 75 0c	 push	 DWORD PTR __Last$[ebp]
  00009	ff 75 08	 push	 DWORD PTR __First$[ebp]
  0000c	e8 00 00 00 00	 call	 ??$_Sort_heap@PAUtagBaseCharDistanceSq@@VBaseCharDistanceSqSort2@@@std@@YAXPAUtagBaseCharDistanceSq@@0VBaseCharDistanceSqSort2@@@Z ; std::_Sort_heap<tagBaseCharDistanceSq *,BaseCharDistanceSqSort2>
  00011	83 c4 0c	 add	 esp, 12			; 0000000cH

; 2713 : 	}

  00014	5d		 pop	 ebp
  00015	c3		 ret	 0
??$sort_heap@PAUtagBaseCharDistanceSq@@VBaseCharDistanceSqSort2@@@std@@YAXPAUtagBaseCharDistanceSq@@0VBaseCharDistanceSqSort2@@@Z ENDP ; std::sort_heap<tagBaseCharDistanceSq *,BaseCharDistanceSqSort2>
_TEXT	ENDS
PUBLIC	?erase@?$vector@UtagBaseCharDistanceSq@@V?$allocator@UtagBaseCharDistanceSq@@@std@@@std@@QAE?AV?$_Vector_iterator@V?$_Vector_val@UtagBaseCharDistanceSq@@V?$allocator@UtagBaseCharDistanceSq@@@std@@@std@@@2@V?$_Vector_const_iterator@V?$_Vector_val@UtagBaseCharDistanceSq@@V?$allocator@UtagBaseCharDistanceSq@@@std@@@std@@@2@0@Z ; std::vector<tagBaseCharDistanceSq,std::allocator<tagBaseCharDistanceSq> >::erase
; Function compile flags: /Ogsp
; File c:\program files (x86)\microsoft visual studio 10.0\vc\include\vector
;	COMDAT ?erase@?$vector@UtagBaseCharDistanceSq@@V?$allocator@UtagBaseCharDistanceSq@@@std@@@std@@QAE?AV?$_Vector_iterator@V?$_Vector_val@UtagBaseCharDistanceSq@@V?$allocator@UtagBaseCharDistanceSq@@@std@@@std@@@2@V?$_Vector_const_iterator@V?$_Vector_val@UtagBaseCharDistanceSq@@V?$allocator@UtagBaseCharDistanceSq@@@std@@@std@@@2@0@Z
_TEXT	SEGMENT
$T557387 = -4						; size = 4
___$ReturnUdt$ = 8					; size = 4
__First_arg$ = 12					; size = 4
__Cat$557318 = 16					; size = 1
__Last_arg$ = 16					; size = 4
?erase@?$vector@UtagBaseCharDistanceSq@@V?$allocator@UtagBaseCharDistanceSq@@@std@@@std@@QAE?AV?$_Vector_iterator@V?$_Vector_val@UtagBaseCharDistanceSq@@V?$allocator@UtagBaseCharDistanceSq@@@std@@@std@@@2@V?$_Vector_const_iterator@V?$_Vector_val@UtagBaseCharDistanceSq@@V?$allocator@UtagBaseCharDistanceSq@@@std@@@std@@@2@0@Z PROC ; std::vector<tagBaseCharDistanceSq,std::allocator<tagBaseCharDistanceSq> >::erase, COMDAT
; _this$ = ecx

; 1190 : 		{	// erase [_First, _Last)

  00000	55		 push	 ebp
  00001	8b ec		 mov	 ebp, esp
  00003	51		 push	 ecx

; 1191 : 		iterator _First = _Make_iter(_First_arg);

  00004	8b 45 08	 mov	 eax, DWORD PTR ___$ReturnUdt$[ebp]
  00007	56		 push	 esi
  00008	8b f1		 mov	 esi, ecx
  0000a	8b 4d 0c	 mov	 ecx, DWORD PTR __First_arg$[ebp]
  0000d	89 08		 mov	 DWORD PTR [eax], ecx

; 1192 : 		iterator _Last = _Make_iter(_Last_arg);
; 1193 : 
; 1194 : 		if (_First != _Last)

  0000f	3b 4d 10	 cmp	 ecx, DWORD PTR __Last_arg$[ebp]
  00012	74 38		 je	 SHORT $LN1@erase

; 1195 : 			{	// worth doing, copy down over hole
; 1196 :  #if _ITERATOR_DEBUG_LEVEL == 2
; 1197 : 			if (_Last < _First || _VICONT(_First) != this
; 1198 : 				|| _VIPTR(_First) < this->_Myfirst
; 1199 : 				|| this->_Mylast < _VIPTR(_Last))
; 1200 : 				_DEBUG_ERROR("vector erase iterator outside range");
; 1201 : 			pointer _Ptr = _Move(_VIPTR(_Last), this->_Mylast,
; 1202 : 				_VIPTR(_First));
; 1203 : 			_Orphan_range(_VIPTR(_First), this->_Mylast);
; 1204 : 
; 1205 :  #else /* _ITERATOR_DEBUG_LEVEL == 2 */
; 1206 : 			pointer _Ptr = _Move(_VIPTR(_Last), this->_Mylast,
; 1207 : 				_VIPTR(_First));

  00014	8b 46 04	 mov	 eax, DWORD PTR [esi+4]
  00017	53		 push	 ebx
  00018	57		 push	 edi
  00019	ff 75 10	 push	 DWORD PTR __Cat$557318[ebp]
  0001c	51		 push	 ecx
  0001d	50		 push	 eax
  0001e	ff 75 10	 push	 DWORD PTR __Last_arg$[ebp]
  00021	e8 00 00 00 00	 call	 ??$_Move@PAUtagBaseCharDistanceSq@@PAU1@@std@@YAPAUtagBaseCharDistanceSq@@PAU1@00U_Nonscalar_ptr_iterator_tag@0@@Z ; std::_Move<tagBaseCharDistanceSq *,tagBaseCharDistanceSq *>

; 1208 :  #endif /* _ITERATOR_DEBUG_LEVEL == 2 */
; 1209 : 
; 1210 : 			_Destroy(_Ptr, this->_Mylast);

  00026	8b 7e 04	 mov	 edi, DWORD PTR [esi+4]
  00029	8b d8		 mov	 ebx, eax
  0002b	83 c4 10	 add	 esp, 16			; 00000010H
  0002e	89 5d fc	 mov	 DWORD PTR $T557387[ebp], ebx
  00031	3b df		 cmp	 ebx, edi
  00033	74 12		 je	 SHORT $LN36@erase
$LL55@erase:
  00035	8b 4d fc	 mov	 ecx, DWORD PTR $T557387[ebp]
  00038	ff 15 00 00 00
	00		 call	 DWORD PTR __imp_??1ioHashString@@QAE@XZ
  0003e	83 45 fc 20	 add	 DWORD PTR $T557387[ebp], 32 ; 00000020H
  00042	39 7d fc	 cmp	 DWORD PTR $T557387[ebp], edi
  00045	75 ee		 jne	 SHORT $LL55@erase
$LN36@erase:

; 1211 : 			this->_Mylast = _Ptr;

  00047	5f		 pop	 edi
  00048	89 5e 04	 mov	 DWORD PTR [esi+4], ebx
  0004b	5b		 pop	 ebx
$LN1@erase:

; 1212 : 			}
; 1213 : 		return (_First);

  0004c	8b 45 08	 mov	 eax, DWORD PTR ___$ReturnUdt$[ebp]
  0004f	5e		 pop	 esi

; 1214 : 		}

  00050	c9		 leave
  00051	c2 0c 00	 ret	 12			; 0000000cH
?erase@?$vector@UtagBaseCharDistanceSq@@V?$allocator@UtagBaseCharDistanceSq@@@std@@@std@@QAE?AV?$_Vector_iterator@V?$_Vector_val@UtagBaseCharDistanceSq@@V?$allocator@UtagBaseCharDistanceSq@@@std@@@std@@@2@V?$_Vector_const_iterator@V?$_Vector_val@UtagBaseCharDistanceSq@@V?$allocator@UtagBaseCharDistanceSq@@@std@@@std@@@2@0@Z ENDP ; std::vector<tagBaseCharDistanceSq,std::allocator<tagBaseCharDistanceSq> >::erase
_TEXT	ENDS
PUBLIC	?_Tidy@?$vector@UtagBaseCharDistanceSq@@V?$allocator@UtagBaseCharDistanceSq@@@std@@@std@@IAEXXZ ; std::vector<tagBaseCharDistanceSq,std::allocator<tagBaseCharDistanceSq> >::_Tidy
EXTRN	__imp_?_Orphan_all@_Container_base0@std@@QAEXXZ:PROC
; Function compile flags: /Ogsp
;	COMDAT ?_Tidy@?$vector@UtagBaseCharDistanceSq@@V?$allocator@UtagBaseCharDistanceSq@@@std@@@std@@IAEXXZ
_TEXT	SEGMENT
?_Tidy@?$vector@UtagBaseCharDistanceSq@@V?$allocator@UtagBaseCharDistanceSq@@@std@@@std@@IAEXXZ PROC ; std::vector<tagBaseCharDistanceSq,std::allocator<tagBaseCharDistanceSq> >::_Tidy, COMDAT
; _this$ = ecx

; 1301 : 		{	// free all storage

  00000	56		 push	 esi
  00001	8b f1		 mov	 esi, ecx

; 1302 : 		if (this->_Myfirst != 0)

  00003	83 3e 00	 cmp	 DWORD PTR [esi], 0
  00006	74 28		 je	 SHORT $LN27@Tidy

; 1303 : 			{	// something to free, destroy and deallocate it
; 1304 : 			this->_Orphan_all();

  00008	53		 push	 ebx
  00009	57		 push	 edi
  0000a	ff 15 00 00 00
	00		 call	 DWORD PTR __imp_?_Orphan_all@_Container_base0@std@@QAEXXZ

; 1305 : 			_Destroy(this->_Myfirst, this->_Mylast);

  00010	8b 5e 04	 mov	 ebx, DWORD PTR [esi+4]
  00013	8b 3e		 mov	 edi, DWORD PTR [esi]
  00015	eb 0b		 jmp	 SHORT $LN31@Tidy
$LL12@Tidy:
  00017	8b cf		 mov	 ecx, edi
  00019	ff 15 00 00 00
	00		 call	 DWORD PTR __imp_??1ioHashString@@QAE@XZ
  0001f	83 c7 20	 add	 edi, 32			; 00000020H
$LN31@Tidy:
  00022	3b fb		 cmp	 edi, ebx
  00024	75 f1		 jne	 SHORT $LL12@Tidy

; 1306 : 			this->_Alval.deallocate(this->_Myfirst,
; 1307 : 				this->_Myend - this->_Myfirst);

  00026	ff 36		 push	 DWORD PTR [esi]
  00028	e8 00 00 00 00	 call	 ??3@YAXPAX@Z		; operator delete
  0002d	59		 pop	 ecx
  0002e	5f		 pop	 edi
  0002f	5b		 pop	 ebx
$LN27@Tidy:

; 1308 : 			}
; 1309 : 		this->_Myfirst = 0;

  00030	33 c0		 xor	 eax, eax
  00032	89 06		 mov	 DWORD PTR [esi], eax

; 1310 : 		this->_Mylast = 0;

  00034	89 46 04	 mov	 DWORD PTR [esi+4], eax

; 1311 : 		this->_Myend = 0;

  00037	89 46 08	 mov	 DWORD PTR [esi+8], eax
  0003a	5e		 pop	 esi

; 1312 : 		}

  0003b	c3		 ret	 0
?_Tidy@?$vector@UtagBaseCharDistanceSq@@V?$allocator@UtagBaseCharDistanceSq@@@std@@@std@@IAEXXZ ENDP ; std::vector<tagBaseCharDistanceSq,std::allocator<tagBaseCharDistanceSq> >::_Tidy
_TEXT	ENDS
PUBLIC	?reserve@?$vector@UtagBaseCharDistanceSq@@V?$allocator@UtagBaseCharDistanceSq@@@std@@@std@@QAEXI@Z ; std::vector<tagBaseCharDistanceSq,std::allocator<tagBaseCharDistanceSq> >::reserve
;	COMDAT xdata$x
; File c:\program files (x86)\microsoft visual studio 10.0\vc\include\xmemory
xdata$x	SEGMENT
__catchsym$?reserve@?$vector@UtagBaseCharDistanceSq@@V?$allocator@UtagBaseCharDistanceSq@@@std@@@std@@QAEXI@Z$3 DD 040H
	DD	00H
	DD	00H
	DD	FLAT:__catch$?reserve@?$vector@UtagBaseCharDistanceSq@@V?$allocator@UtagBaseCharDistanceSq@@@std@@@std@@QAEXI@Z$0
__unwindtable$?reserve@?$vector@UtagBaseCharDistanceSq@@V?$allocator@UtagBaseCharDistanceSq@@@std@@@std@@QAEXI@Z DD 0ffffffffH
	DD	00H
	DD	0ffffffffH
	DD	00H
__tryblocktable$?reserve@?$vector@UtagBaseCharDistanceSq@@V?$allocator@UtagBaseCharDistanceSq@@@std@@@std@@QAEXI@Z DD 00H
	DD	00H
	DD	01H
	DD	01H
	DD	FLAT:__catchsym$?reserve@?$vector@UtagBaseCharDistanceSq@@V?$allocator@UtagBaseCharDistanceSq@@@std@@@std@@QAEXI@Z$3
__ehfuncinfo$?reserve@?$vector@UtagBaseCharDistanceSq@@V?$allocator@UtagBaseCharDistanceSq@@@std@@@std@@QAEXI@Z DD 019930522H
	DD	02H
	DD	FLAT:__unwindtable$?reserve@?$vector@UtagBaseCharDistanceSq@@V?$allocator@UtagBaseCharDistanceSq@@@std@@@std@@QAEXI@Z
	DD	01H
	DD	FLAT:__tryblocktable$?reserve@?$vector@UtagBaseCharDistanceSq@@V?$allocator@UtagBaseCharDistanceSq@@@std@@@std@@QAEXI@Z
	DD	2 DUP(00H)
	DD	00H
	DD	01H
; Function compile flags: /Ogsp
; File c:\program files (x86)\microsoft visual studio 10.0\vc\include\vector
xdata$x	ENDS
;	COMDAT ?reserve@?$vector@UtagBaseCharDistanceSq@@V?$allocator@UtagBaseCharDistanceSq@@@std@@@std@@QAEXI@Z
_TEXT	SEGMENT
tv300 = -24						; size = 4
__Ptr$551089 = -20					; size = 4
__$EHRec$ = -16						; size = 16
$T557669 = 8						; size = 4
__Count$ = 8						; size = 4
?reserve@?$vector@UtagBaseCharDistanceSq@@V?$allocator@UtagBaseCharDistanceSq@@@std@@@std@@QAEXI@Z PROC ; std::vector<tagBaseCharDistanceSq,std::allocator<tagBaseCharDistanceSq> >::reserve, COMDAT
; _this$ = ecx

; 746  : 		{	// determine new minimum length of allocated storage

  00000	6a 0c		 push	 12			; 0000000cH
  00002	b8 00 00 00 00	 mov	 eax, __ehhandler$?reserve@?$vector@UtagBaseCharDistanceSq@@V?$allocator@UtagBaseCharDistanceSq@@@std@@@std@@QAEXI@Z
  00007	e8 00 00 00 00	 call	 __EH_prolog3_catch
  0000c	8b f1		 mov	 esi, ecx

; 747  : 		if (max_size() < _Count)

  0000e	8b 5d 08	 mov	 ebx, DWORD PTR __Count$[ebp]
  00011	81 fb ff ff ff
	07		 cmp	 ebx, 134217727		; 07ffffffH
  00017	76 0b		 jbe	 SHORT $LN5@reserve

; 748  : 			_Xlen();	// result too long

  00019	68 00 00 00 00	 push	 OFFSET ??_C@_0BD@OLBABOEK@vector?$DMT?$DO?5too?5long?$AA@
  0001e	ff 15 00 00 00
	00		 call	 DWORD PTR __imp_?_Xlength_error@std@@YAXPBD@Z
$LN62@reserve:
$LN5@reserve:

; 749  : 		else if (capacity() < _Count)

  00024	8b 46 08	 mov	 eax, DWORD PTR [esi+8]
  00027	2b 06		 sub	 eax, DWORD PTR [esi]
  00029	c1 f8 05	 sar	 eax, 5
  0002c	3b c3		 cmp	 eax, ebx
  0002e	73 7a		 jae	 SHORT $LN3@reserve

; 750  : 			{	// not enough room, reallocate
; 751  : 			pointer _Ptr = this->_Alval.allocate(_Count);

  00030	6a 00		 push	 0
  00032	53		 push	 ebx
  00033	e8 00 00 00 00	 call	 ??$_Allocate@UtagBaseCharDistanceSq@@@std@@YAPAUtagBaseCharDistanceSq@@IPAU1@@Z ; std::_Allocate<tagBaseCharDistanceSq>

; 752  : 
; 753  : 			_TRY_BEGIN
; 754  : 			_Umove(this->_Myfirst, this->_Mylast, _Ptr);

  00038	8b 0e		 mov	 ecx, DWORD PTR [esi]
  0003a	83 65 fc 00	 and	 DWORD PTR __$EHRec$[ebp+12], 0
  0003e	8d 56 0c	 lea	 edx, DWORD PTR [esi+12]
  00041	52		 push	 edx
  00042	89 45 ec	 mov	 DWORD PTR __Ptr$551089[ebp], eax
  00045	ff 75 ec	 push	 DWORD PTR __Ptr$551089[ebp]
  00048	8b 46 04	 mov	 eax, DWORD PTR [esi+4]
  0004b	50		 push	 eax
  0004c	51		 push	 ecx
  0004d	e8 00 00 00 00	 call	 ??$_Uninitialized_move@PAUtagBaseCharDistanceSq@@PAU1@V?$allocator@UtagBaseCharDistanceSq@@@std@@@std@@YAPAUtagBaseCharDistanceSq@@PAU1@00AAV?$allocator@UtagBaseCharDistanceSq@@@0@@Z ; std::_Uninitialized_move<tagBaseCharDistanceSq *,tagBaseCharDistanceSq *,std::allocator<tagBaseCharDistanceSq> >

; 758  : 			_CATCH_END
; 759  : 
; 760  : 			size_type _Size = size();

  00052	8b 4e 04	 mov	 ecx, DWORD PTR [esi+4]
  00055	8b 06		 mov	 eax, DWORD PTR [esi]
  00057	83 4d fc ff	 or	 DWORD PTR __$EHRec$[ebp+12], -1
  0005b	8b f9		 mov	 edi, ecx
  0005d	83 c4 18	 add	 esp, 24			; 00000018H
  00060	2b f8		 sub	 edi, eax
  00062	89 4d e8	 mov	 DWORD PTR tv300[ebp], ecx
  00065	85 c0		 test	 eax, eax
  00067	74 24		 je	 SHORT $LN54@reserve

; 761  : 			if (this->_Myfirst != 0)
; 762  : 				{	// destroy and deallocate old array
; 763  : 				_Destroy(this->_Myfirst, this->_Mylast);

  00069	89 45 08	 mov	 DWORD PTR $T557669[ebp], eax
  0006c	3b c1		 cmp	 eax, ecx
  0006e	74 15		 je	 SHORT $LN37@reserve
$LN39@reserve:
  00070	8b 4d 08	 mov	 ecx, DWORD PTR $T557669[ebp]
  00073	ff 15 00 00 00
	00		 call	 DWORD PTR __imp_??1ioHashString@@QAE@XZ
  00079	83 45 08 20	 add	 DWORD PTR $T557669[ebp], 32 ; 00000020H
  0007d	8b 45 08	 mov	 eax, DWORD PTR $T557669[ebp]
  00080	3b 45 e8	 cmp	 eax, DWORD PTR tv300[ebp]
  00083	75 eb		 jne	 SHORT $LN39@reserve
$LN37@reserve:

; 764  : 				this->_Alval.deallocate(this->_Myfirst,
; 765  : 					this->_Myend - this->_Myfirst);

  00085	ff 36		 push	 DWORD PTR [esi]
  00087	e8 00 00 00 00	 call	 ??3@YAXPAX@Z		; operator delete
  0008c	59		 pop	 ecx
$LN54@reserve:

; 766  : 				}
; 767  : 
; 768  : 			this->_Orphan_all();

  0008d	8b ce		 mov	 ecx, esi
  0008f	ff 15 00 00 00
	00		 call	 DWORD PTR __imp_?_Orphan_all@_Container_base0@std@@QAEXXZ

; 769  : 			this->_Myend = _Ptr + _Count;

  00095	8b 45 ec	 mov	 eax, DWORD PTR __Ptr$551089[ebp]
  00098	c1 e3 05	 shl	 ebx, 5
  0009b	03 d8		 add	 ebx, eax

; 770  : 			this->_Mylast = _Ptr + _Size;

  0009d	83 e7 e0	 and	 edi, -32		; ffffffe0H
  000a0	03 f8		 add	 edi, eax
  000a2	89 5e 08	 mov	 DWORD PTR [esi+8], ebx
  000a5	89 7e 04	 mov	 DWORD PTR [esi+4], edi

; 771  : 			this->_Myfirst = _Ptr;

  000a8	89 06		 mov	 DWORD PTR [esi], eax
$LN3@reserve:

; 772  : 			}
; 773  : 		}

  000aa	e8 00 00 00 00	 call	 __EH_epilog3
  000af	c2 04 00	 ret	 4
__catch$?reserve@?$vector@UtagBaseCharDistanceSq@@V?$allocator@UtagBaseCharDistanceSq@@@std@@@std@@QAEXI@Z$0:

; 755  : 			_CATCH_ALL
; 756  : 			this->_Alval.deallocate(_Ptr, _Count);

  000b2	ff 75 ec	 push	 DWORD PTR __Ptr$551089[ebp]
  000b5	e8 00 00 00 00	 call	 ??3@YAXPAX@Z		; operator delete
  000ba	59		 pop	 ecx

; 757  : 			_RERAISE;

  000bb	6a 00		 push	 0
  000bd	6a 00		 push	 0
  000bf	e8 00 00 00 00	 call	 __CxxThrowException@8
$LN63@reserve:
$LN61@reserve:
  000c4	cc		 int	 3
_TEXT	ENDS
;	COMDAT text$x
text$x	SEGMENT
__ehhandler$?reserve@?$vector@UtagBaseCharDistanceSq@@V?$allocator@UtagBaseCharDistanceSq@@@std@@@std@@QAEXI@Z:
  00000	8b 54 24 08	 mov	 edx, DWORD PTR [esp+8]
  00004	8d 42 0c	 lea	 eax, DWORD PTR [edx+12]
  00007	8b 4a e4	 mov	 ecx, DWORD PTR [edx-28]
  0000a	33 c8		 xor	 ecx, eax
  0000c	e8 00 00 00 00	 call	 @__security_check_cookie@4
  00011	b8 00 00 00 00	 mov	 eax, OFFSET __ehfuncinfo$?reserve@?$vector@UtagBaseCharDistanceSq@@V?$allocator@UtagBaseCharDistanceSq@@@std@@@std@@QAEXI@Z
  00016	e9 00 00 00 00	 jmp	 ___CxxFrameHandler3
text$x	ENDS
?reserve@?$vector@UtagBaseCharDistanceSq@@V?$allocator@UtagBaseCharDistanceSq@@@std@@@std@@QAEXI@Z ENDP ; std::vector<tagBaseCharDistanceSq,std::allocator<tagBaseCharDistanceSq> >::reserve
PUBLIC	??$_Sort@PAUtagBaseCharDistanceSq@@HVBaseCharDistanceSqSort2@@@std@@YAXPAUtagBaseCharDistanceSq@@0HVBaseCharDistanceSqSort2@@@Z ; std::_Sort<tagBaseCharDistanceSq *,int,BaseCharDistanceSqSort2>
; Function compile flags: /Ogsp
; File c:\program files (x86)\microsoft visual studio 10.0\vc\include\algorithm
;	COMDAT ??$_Sort@PAUtagBaseCharDistanceSq@@HVBaseCharDistanceSqSort2@@@std@@YAXPAUtagBaseCharDistanceSq@@0HVBaseCharDistanceSqSort2@@@Z
_TEXT	SEGMENT
__Mid$552844 = -8					; size = 8
__First$ = 8						; size = 4
__Last$ = 12						; size = 4
__Ideal$ = 16						; size = 4
__Pred$ = 20						; size = 1
??$_Sort@PAUtagBaseCharDistanceSq@@HVBaseCharDistanceSqSort2@@@std@@YAXPAUtagBaseCharDistanceSq@@0HVBaseCharDistanceSqSort2@@@Z PROC ; std::_Sort<tagBaseCharDistanceSq *,int,BaseCharDistanceSqSort2>, COMDAT

; 3771 : 	{	// order [_First, _Last), using _Pred

  00000	55		 push	 ebp
  00001	8b ec		 mov	 ebp, esp
  00003	51		 push	 ecx
  00004	51		 push	 ecx
  00005	53		 push	 ebx

; 3772 : 	_Diff _Count;
; 3773 : 	for (; _ISORT_MAX < (_Count = _Last - _First) && 0 < _Ideal; )

  00006	8b 5d 08	 mov	 ebx, DWORD PTR __First$[ebp]
  00009	57		 push	 edi
  0000a	8b 7d 0c	 mov	 edi, DWORD PTR __Last$[ebp]
  0000d	8b c7		 mov	 eax, edi
  0000f	2b c3		 sub	 eax, ebx
  00011	c1 f8 05	 sar	 eax, 5
  00014	83 f8 20	 cmp	 eax, 32			; 00000020H
  00017	0f 8e 89 00 00
	00		 jle	 $LN22@Sort
  0001d	56		 push	 esi
  0001e	8b 75 10	 mov	 esi, DWORD PTR __Ideal$[ebp]
$LL7@Sort:
  00021	85 f6		 test	 esi, esi
  00023	7e 62		 jle	 SHORT $LN6@Sort

; 3774 : 		{	// divide and conquer by quicksort
; 3775 : 		_STD pair<_RanIt, _RanIt> _Mid =
; 3776 : 			_Unguarded_partition(_First, _Last, _Pred);

  00025	ff 75 14	 push	 DWORD PTR __Pred$[ebp]
  00028	8d 45 f8	 lea	 eax, DWORD PTR __Mid$552844[ebp]
  0002b	57		 push	 edi
  0002c	53		 push	 ebx
  0002d	50		 push	 eax
  0002e	e8 00 00 00 00	 call	 ??$_Unguarded_partition@PAUtagBaseCharDistanceSq@@VBaseCharDistanceSqSort2@@@std@@YA?AU?$pair@PAUtagBaseCharDistanceSq@@PAU1@@0@PAUtagBaseCharDistanceSq@@0VBaseCharDistanceSqSort2@@@Z ; std::_Unguarded_partition<tagBaseCharDistanceSq *,BaseCharDistanceSqSort2>

; 3777 : 		_Ideal /= 2, _Ideal += _Ideal / 2;	// allow 1.5 log2(N) divisions
; 3778 : 
; 3779 : 		if (_Mid.first - _First < _Last - _Mid.second)

  00033	8b 4d f8	 mov	 ecx, DWORD PTR __Mid$552844[ebp]
  00036	8b c6		 mov	 eax, esi
  00038	99		 cdq
  00039	2b c2		 sub	 eax, edx
  0003b	d1 f8		 sar	 eax, 1
  0003d	8b f0		 mov	 esi, eax
  0003f	99		 cdq
  00040	2b c2		 sub	 eax, edx
  00042	d1 f8		 sar	 eax, 1
  00044	03 f0		 add	 esi, eax
  00046	8b c7		 mov	 eax, edi
  00048	2b 45 fc	 sub	 eax, DWORD PTR __Mid$552844[ebp+4]
  0004b	83 c4 10	 add	 esp, 16			; 00000010H

; 3780 : 			{	// loop on second half
; 3781 : 			_Sort(_First, _Mid.first, _Ideal, _Pred);

  0004e	ff 75 14	 push	 DWORD PTR __Pred$[ebp]
  00051	2b cb		 sub	 ecx, ebx
  00053	83 e0 e0	 and	 eax, -32		; ffffffe0H
  00056	83 e1 e0	 and	 ecx, -32		; ffffffe0H
  00059	56		 push	 esi
  0005a	3b c8		 cmp	 ecx, eax
  0005c	7d 0e		 jge	 SHORT $LN5@Sort
  0005e	ff 75 f8	 push	 DWORD PTR __Mid$552844[ebp]
  00061	53		 push	 ebx
  00062	e8 00 00 00 00	 call	 ??$_Sort@PAUtagBaseCharDistanceSq@@HVBaseCharDistanceSqSort2@@@std@@YAXPAUtagBaseCharDistanceSq@@0HVBaseCharDistanceSqSort2@@@Z ; std::_Sort<tagBaseCharDistanceSq *,int,BaseCharDistanceSqSort2>

; 3782 : 			_First = _Mid.second;

  00067	8b 5d fc	 mov	 ebx, DWORD PTR __Mid$552844[ebp+4]

; 3783 : 			}
; 3784 : 		else

  0006a	eb 0c		 jmp	 SHORT $LN23@Sort
$LN5@Sort:

; 3785 : 			{	// loop on first half
; 3786 : 			_Sort(_Mid.second, _Last, _Ideal, _Pred);

  0006c	57		 push	 edi
  0006d	ff 75 fc	 push	 DWORD PTR __Mid$552844[ebp+4]
  00070	e8 00 00 00 00	 call	 ??$_Sort@PAUtagBaseCharDistanceSq@@HVBaseCharDistanceSqSort2@@@std@@YAXPAUtagBaseCharDistanceSq@@0HVBaseCharDistanceSqSort2@@@Z ; std::_Sort<tagBaseCharDistanceSq *,int,BaseCharDistanceSqSort2>

; 3787 : 			_Last = _Mid.first;

  00075	8b 7d f8	 mov	 edi, DWORD PTR __Mid$552844[ebp]
$LN23@Sort:

; 3772 : 	_Diff _Count;
; 3773 : 	for (; _ISORT_MAX < (_Count = _Last - _First) && 0 < _Ideal; )

  00078	8b c7		 mov	 eax, edi
  0007a	2b c3		 sub	 eax, ebx
  0007c	c1 f8 05	 sar	 eax, 5

; 3785 : 			{	// loop on first half
; 3786 : 			_Sort(_Mid.second, _Last, _Ideal, _Pred);

  0007f	83 c4 10	 add	 esp, 16			; 00000010H
  00082	83 f8 20	 cmp	 eax, 32			; 00000020H
  00085	7f 9a		 jg	 SHORT $LL7@Sort
$LN6@Sort:
  00087	5e		 pop	 esi

; 3788 : 			}
; 3789 : 		}
; 3790 : 
; 3791 : 	if (_ISORT_MAX < _Count)

  00088	83 f8 20	 cmp	 eax, 32			; 00000020H
  0008b	7e 19		 jle	 SHORT $LN22@Sort

; 3792 : 		{	// heap sort if too many divisions
; 3793 : 		_STD make_heap(_First, _Last, _Pred);

  0008d	ff 75 14	 push	 DWORD PTR __Pred$[ebp]
  00090	57		 push	 edi
  00091	53		 push	 ebx
  00092	e8 00 00 00 00	 call	 ??$make_heap@PAUtagBaseCharDistanceSq@@VBaseCharDistanceSqSort2@@@std@@YAXPAUtagBaseCharDistanceSq@@0VBaseCharDistanceSqSort2@@@Z ; std::make_heap<tagBaseCharDistanceSq *,BaseCharDistanceSqSort2>

; 3794 : 		_STD sort_heap(_First, _Last, _Pred);

  00097	ff 75 14	 push	 DWORD PTR __Pred$[ebp]
  0009a	57		 push	 edi
  0009b	53		 push	 ebx
  0009c	e8 00 00 00 00	 call	 ??$_Sort_heap@PAUtagBaseCharDistanceSq@@VBaseCharDistanceSqSort2@@@std@@YAXPAUtagBaseCharDistanceSq@@0VBaseCharDistanceSqSort2@@@Z ; std::_Sort_heap<tagBaseCharDistanceSq *,BaseCharDistanceSqSort2>
  000a1	83 c4 18	 add	 esp, 24			; 00000018H
  000a4	eb 14		 jmp	 SHORT $LN16@Sort
$LN22@Sort:

; 3795 : 		}
; 3796 : 	else if (1 < _Count)

  000a6	83 f8 01	 cmp	 eax, 1
  000a9	7e 0f		 jle	 SHORT $LN16@Sort

; 3797 : 		_Insertion_sort(_First, _Last, _Pred);	// small

  000ab	6a 00		 push	 0
  000ad	ff 75 14	 push	 DWORD PTR __Pred$[ebp]
  000b0	57		 push	 edi
  000b1	53		 push	 ebx
  000b2	e8 00 00 00 00	 call	 ??$_Insertion_sort1@PAUtagBaseCharDistanceSq@@VBaseCharDistanceSqSort2@@U1@@std@@YAXPAUtagBaseCharDistanceSq@@0VBaseCharDistanceSqSort2@@0@Z ; std::_Insertion_sort1<tagBaseCharDistanceSq *,BaseCharDistanceSqSort2,tagBaseCharDistanceSq>
  000b7	83 c4 10	 add	 esp, 16			; 00000010H
$LN16@Sort:
  000ba	5f		 pop	 edi
  000bb	5b		 pop	 ebx

; 3798 : 	}

  000bc	c9		 leave
  000bd	c3		 ret	 0
??$_Sort@PAUtagBaseCharDistanceSq@@HVBaseCharDistanceSqSort2@@@std@@YAXPAUtagBaseCharDistanceSq@@0HVBaseCharDistanceSqSort2@@@Z ENDP ; std::_Sort<tagBaseCharDistanceSq *,int,BaseCharDistanceSqSort2>
_TEXT	ENDS
PUBLIC	??1?$vector@UtagBaseCharDistanceSq@@V?$allocator@UtagBaseCharDistanceSq@@@std@@@std@@QAE@XZ ; std::vector<tagBaseCharDistanceSq,std::allocator<tagBaseCharDistanceSq> >::~vector<tagBaseCharDistanceSq,std::allocator<tagBaseCharDistanceSq> >
; Function compile flags: /Ogsp
; File c:\program files (x86)\microsoft visual studio 10.0\vc\include\vector
;	COMDAT ??1?$vector@UtagBaseCharDistanceSq@@V?$allocator@UtagBaseCharDistanceSq@@@std@@@std@@QAE@XZ
_TEXT	SEGMENT
??1?$vector@UtagBaseCharDistanceSq@@V?$allocator@UtagBaseCharDistanceSq@@@std@@@std@@QAE@XZ PROC ; std::vector<tagBaseCharDistanceSq,std::allocator<tagBaseCharDistanceSq> >::~vector<tagBaseCharDistanceSq,std::allocator<tagBaseCharDistanceSq> >, COMDAT
; _this$ = ecx

; 705  : 		_Tidy();

  00000	e9 00 00 00 00	 jmp	 ?_Tidy@?$vector@UtagBaseCharDistanceSq@@V?$allocator@UtagBaseCharDistanceSq@@@std@@@std@@IAEXXZ ; std::vector<tagBaseCharDistanceSq,std::allocator<tagBaseCharDistanceSq> >::_Tidy
??1?$vector@UtagBaseCharDistanceSq@@V?$allocator@UtagBaseCharDistanceSq@@@std@@@std@@QAE@XZ ENDP ; std::vector<tagBaseCharDistanceSq,std::allocator<tagBaseCharDistanceSq> >::~vector<tagBaseCharDistanceSq,std::allocator<tagBaseCharDistanceSq> >
_TEXT	ENDS
PUBLIC	?clear@?$vector@UtagBaseCharDistanceSq@@V?$allocator@UtagBaseCharDistanceSq@@@std@@@std@@QAEXXZ ; std::vector<tagBaseCharDistanceSq,std::allocator<tagBaseCharDistanceSq> >::clear
; Function compile flags: /Ogsp
;	COMDAT ?clear@?$vector@UtagBaseCharDistanceSq@@V?$allocator@UtagBaseCharDistanceSq@@@std@@@std@@QAEXXZ
_TEXT	SEGMENT
$T557778 = -4						; size = 4
?clear@?$vector@UtagBaseCharDistanceSq@@V?$allocator@UtagBaseCharDistanceSq@@@std@@@std@@QAEXXZ PROC ; std::vector<tagBaseCharDistanceSq,std::allocator<tagBaseCharDistanceSq> >::clear, COMDAT
; _this$ = ecx

; 1217 : 		{	// erase all

  00000	55		 push	 ebp
  00001	8b ec		 mov	 ebp, esp
  00003	51		 push	 ecx

; 1218 : 		erase(begin(), end());

  00004	8b 41 04	 mov	 eax, DWORD PTR [ecx+4]
  00007	8b 11		 mov	 edx, DWORD PTR [ecx]
  00009	50		 push	 eax
  0000a	52		 push	 edx
  0000b	8d 45 fc	 lea	 eax, DWORD PTR $T557778[ebp]
  0000e	50		 push	 eax
  0000f	e8 00 00 00 00	 call	 ?erase@?$vector@UtagBaseCharDistanceSq@@V?$allocator@UtagBaseCharDistanceSq@@@std@@@std@@QAE?AV?$_Vector_iterator@V?$_Vector_val@UtagBaseCharDistanceSq@@V?$allocator@UtagBaseCharDistanceSq@@@std@@@std@@@2@V?$_Vector_const_iterator@V?$_Vector_val@UtagBaseCharDistanceSq@@V?$allocator@UtagBaseCharDistanceSq@@@std@@@std@@@2@0@Z ; std::vector<tagBaseCharDistanceSq,std::allocator<tagBaseCharDistanceSq> >::erase

; 1219 : 		}

  00014	c9		 leave
  00015	c3		 ret	 0
?clear@?$vector@UtagBaseCharDistanceSq@@V?$allocator@UtagBaseCharDistanceSq@@@std@@@std@@QAEXXZ ENDP ; std::vector<tagBaseCharDistanceSq,std::allocator<tagBaseCharDistanceSq> >::clear
_TEXT	ENDS
PUBLIC	?_Reserve@?$vector@UtagBaseCharDistanceSq@@V?$allocator@UtagBaseCharDistanceSq@@@std@@@std@@IAEXI@Z ; std::vector<tagBaseCharDistanceSq,std::allocator<tagBaseCharDistanceSq> >::_Reserve
; Function compile flags: /Ogsp
;	COMDAT ?_Reserve@?$vector@UtagBaseCharDistanceSq@@V?$allocator@UtagBaseCharDistanceSq@@@std@@@std@@IAEXI@Z
_TEXT	SEGMENT
__Count$ = 8						; size = 4
?_Reserve@?$vector@UtagBaseCharDistanceSq@@V?$allocator@UtagBaseCharDistanceSq@@@std@@@std@@IAEXI@Z PROC ; std::vector<tagBaseCharDistanceSq,std::allocator<tagBaseCharDistanceSq> >::_Reserve, COMDAT
; _this$ = ecx

; 1290 : 		{	// ensure room for _Count new elements, grow exponentially

  00000	55		 push	 ebp
  00001	8b ec		 mov	 ebp, esp
  00003	56		 push	 esi
  00004	8b f1		 mov	 esi, ecx

; 1291 : 		size_type _Size = size();

  00006	8b 0e		 mov	 ecx, DWORD PTR [esi]
  00008	8b 46 04	 mov	 eax, DWORD PTR [esi+4]
  0000b	2b c1		 sub	 eax, ecx

; 1292 : 		if (max_size() - _Count < _Size)

  0000d	ba ff ff ff 07	 mov	 edx, 134217727		; 07ffffffH
  00012	2b 55 08	 sub	 edx, DWORD PTR __Count$[ebp]
  00015	c1 f8 05	 sar	 eax, 5
  00018	3b d0		 cmp	 edx, eax
  0001a	73 0b		 jae	 SHORT $LN4@Reserve

; 1293 : 			_Xlen();

  0001c	68 00 00 00 00	 push	 OFFSET ??_C@_0BD@OLBABOEK@vector?$DMT?$DO?5too?5long?$AA@
  00021	ff 15 00 00 00
	00		 call	 DWORD PTR __imp_?_Xlength_error@std@@YAXPBD@Z
$LN21@Reserve:
$LN4@Reserve:

; 1294 : 		else if ((_Size += _Count) <= capacity())

  00027	8b 56 08	 mov	 edx, DWORD PTR [esi+8]
  0002a	03 45 08	 add	 eax, DWORD PTR __Count$[ebp]
  0002d	2b d1		 sub	 edx, ecx
  0002f	c1 fa 05	 sar	 edx, 5
  00032	3b c2		 cmp	 eax, edx
  00034	76 10		 jbe	 SHORT $LN1@Reserve

; 1295 : 			;
; 1296 : 		else
; 1297 : 			reserve(_Grow_to(_Size));

  00036	50		 push	 eax
  00037	8b ce		 mov	 ecx, esi
  00039	e8 00 00 00 00	 call	 ?_Grow_to@?$vector@UtagBaseCharDistanceSq@@V?$allocator@UtagBaseCharDistanceSq@@@std@@@std@@IBEII@Z ; std::vector<tagBaseCharDistanceSq,std::allocator<tagBaseCharDistanceSq> >::_Grow_to
  0003e	50		 push	 eax
  0003f	8b ce		 mov	 ecx, esi
  00041	e8 00 00 00 00	 call	 ?reserve@?$vector@UtagBaseCharDistanceSq@@V?$allocator@UtagBaseCharDistanceSq@@@std@@@std@@QAEXI@Z ; std::vector<tagBaseCharDistanceSq,std::allocator<tagBaseCharDistanceSq> >::reserve
$LN1@Reserve:
  00046	5e		 pop	 esi

; 1298 : 		}

  00047	5d		 pop	 ebp
  00048	c2 04 00	 ret	 4
$LN20@Reserve:
?_Reserve@?$vector@UtagBaseCharDistanceSq@@V?$allocator@UtagBaseCharDistanceSq@@@std@@@std@@IAEXI@Z ENDP ; std::vector<tagBaseCharDistanceSq,std::allocator<tagBaseCharDistanceSq> >::_Reserve
_TEXT	ENDS
PUBLIC	??$sort@V?$_Vector_iterator@V?$_Vector_val@UtagBaseCharDistanceSq@@V?$allocator@UtagBaseCharDistanceSq@@@std@@@std@@@std@@VBaseCharDistanceSqSort2@@@std@@YAXV?$_Vector_iterator@V?$_Vector_val@UtagBaseCharDistanceSq@@V?$allocator@UtagBaseCharDistanceSq@@@std@@@std@@@0@0VBaseCharDistanceSqSort2@@@Z ; std::sort<std::_Vector_iterator<std::_Vector_val<tagBaseCharDistanceSq,std::allocator<tagBaseCharDistanceSq> > >,BaseCharDistanceSqSort2>
; Function compile flags: /Ogsp
; File c:\program files (x86)\microsoft visual studio 10.0\vc\include\algorithm
;	COMDAT ??$sort@V?$_Vector_iterator@V?$_Vector_val@UtagBaseCharDistanceSq@@V?$allocator@UtagBaseCharDistanceSq@@@std@@@std@@@std@@VBaseCharDistanceSqSort2@@@std@@YAXV?$_Vector_iterator@V?$_Vector_val@UtagBaseCharDistanceSq@@V?$allocator@UtagBaseCharDistanceSq@@@std@@@std@@@0@0VBaseCharDistanceSqSort2@@@Z
_TEXT	SEGMENT
__First$ = 8						; size = 4
__Last$ = 12						; size = 4
__Pred$ = 16						; size = 1
??$sort@V?$_Vector_iterator@V?$_Vector_val@UtagBaseCharDistanceSq@@V?$allocator@UtagBaseCharDistanceSq@@@std@@@std@@@std@@VBaseCharDistanceSqSort2@@@std@@YAXV?$_Vector_iterator@V?$_Vector_val@UtagBaseCharDistanceSq@@V?$allocator@UtagBaseCharDistanceSq@@@std@@@std@@@0@0VBaseCharDistanceSqSort2@@@Z PROC ; std::sort<std::_Vector_iterator<std::_Vector_val<tagBaseCharDistanceSq,std::allocator<tagBaseCharDistanceSq> > >,BaseCharDistanceSqSort2>, COMDAT

; 3803 : 	{	// order [_First, _Last), using _Pred

  00000	55		 push	 ebp
  00001	8b ec		 mov	 ebp, esp

; 3804 : 	_DEBUG_RANGE(_First, _Last);
; 3805 : 	_DEBUG_POINTER(_Pred);
; 3806 : 	_Sort(_Unchecked(_First), _Unchecked(_Last), _Last - _First, _Pred);

  00003	8b 45 0c	 mov	 eax, DWORD PTR __Last$[ebp]
  00006	ff 75 10	 push	 DWORD PTR __Pred$[ebp]
  00009	2b 45 08	 sub	 eax, DWORD PTR __First$[ebp]
  0000c	c1 f8 05	 sar	 eax, 5
  0000f	50		 push	 eax
  00010	ff 75 0c	 push	 DWORD PTR __Last$[ebp]
  00013	ff 75 08	 push	 DWORD PTR __First$[ebp]
  00016	e8 00 00 00 00	 call	 ??$_Sort@PAUtagBaseCharDistanceSq@@HVBaseCharDistanceSqSort2@@@std@@YAXPAUtagBaseCharDistanceSq@@0HVBaseCharDistanceSqSort2@@@Z ; std::_Sort<tagBaseCharDistanceSq *,int,BaseCharDistanceSqSort2>
  0001b	83 c4 10	 add	 esp, 16			; 00000010H

; 3807 : 	}

  0001e	5d		 pop	 ebp
  0001f	c3		 ret	 0
??$sort@V?$_Vector_iterator@V?$_Vector_val@UtagBaseCharDistanceSq@@V?$allocator@UtagBaseCharDistanceSq@@@std@@@std@@@std@@VBaseCharDistanceSqSort2@@@std@@YAXV?$_Vector_iterator@V?$_Vector_val@UtagBaseCharDistanceSq@@V?$allocator@UtagBaseCharDistanceSq@@@std@@@std@@@0@0VBaseCharDistanceSqSort2@@@Z ENDP ; std::sort<std::_Vector_iterator<std::_Vector_val<tagBaseCharDistanceSq,std::allocator<tagBaseCharDistanceSq> > >,BaseCharDistanceSqSort2>
_TEXT	ENDS
PUBLIC	?push_back@?$vector@UtagBaseCharDistanceSq@@V?$allocator@UtagBaseCharDistanceSq@@@std@@@std@@QAEXABUtagBaseCharDistanceSq@@@Z ; std::vector<tagBaseCharDistanceSq,std::allocator<tagBaseCharDistanceSq> >::push_back
; Function compile flags: /Ogsp
; File c:\program files (x86)\microsoft visual studio 10.0\vc\include\vector
;	COMDAT ?push_back@?$vector@UtagBaseCharDistanceSq@@V?$allocator@UtagBaseCharDistanceSq@@@std@@@std@@QAEXABUtagBaseCharDistanceSq@@@Z
_TEXT	SEGMENT
__Val$ = 8						; size = 4
?push_back@?$vector@UtagBaseCharDistanceSq@@V?$allocator@UtagBaseCharDistanceSq@@@std@@@std@@QAEXABUtagBaseCharDistanceSq@@@Z PROC ; std::vector<tagBaseCharDistanceSq,std::allocator<tagBaseCharDistanceSq> >::push_back, COMDAT
; _this$ = ecx

; 976  : 		{	// insert element at end

  00000	55		 push	 ebp
  00001	8b ec		 mov	 ebp, esp
  00003	56		 push	 esi
  00004	8b f1		 mov	 esi, ecx

; 977  : 		if (_Inside(_STD addressof(_Val)))

  00006	8b 46 04	 mov	 eax, DWORD PTR [esi+4]
  00009	57		 push	 edi
  0000a	8b 7d 08	 mov	 edi, DWORD PTR __Val$[ebp]
  0000d	3b f8		 cmp	 edi, eax
  0000f	73 2d		 jae	 SHORT $LN4@push_back
  00011	8b 0e		 mov	 ecx, DWORD PTR [esi]
  00013	3b cf		 cmp	 ecx, edi
  00015	77 27		 ja	 SHORT $LN4@push_back

; 978  : 			{	// push back an element
; 979  : 			size_type _Idx = _STD addressof(_Val) - this->_Myfirst;

  00017	2b f9		 sub	 edi, ecx

; 980  : 			if (this->_Mylast == this->_Myend)

  00019	3b 46 08	 cmp	 eax, DWORD PTR [esi+8]
  0001c	75 09		 jne	 SHORT $LN3@push_back

; 981  : 				_Reserve(1);

  0001e	6a 01		 push	 1
  00020	8b ce		 mov	 ecx, esi
  00022	e8 00 00 00 00	 call	 ?_Reserve@?$vector@UtagBaseCharDistanceSq@@V?$allocator@UtagBaseCharDistanceSq@@@std@@@std@@IAEXI@Z ; std::vector<tagBaseCharDistanceSq,std::allocator<tagBaseCharDistanceSq> >::_Reserve
$LN3@push_back:

; 982  : 			_Orphan_range(this->_Mylast, this->_Mylast);
; 983  : 			_Cons_val(this->_Alval,
; 984  : 				this->_Mylast,
; 985  : 				this->_Myfirst[_Idx]);

  00027	83 e7 e0	 and	 edi, -32		; ffffffe0H
  0002a	03 3e		 add	 edi, DWORD PTR [esi]
  0002c	8d 46 0c	 lea	 eax, DWORD PTR [esi+12]
  0002f	57		 push	 edi
  00030	ff 76 04	 push	 DWORD PTR [esi+4]
  00033	50		 push	 eax
  00034	e8 00 00 00 00	 call	 ??$_Cons_val@V?$allocator@UtagBaseCharDistanceSq@@@std@@UtagBaseCharDistanceSq@@AAU3@@std@@YAXAAV?$allocator@UtagBaseCharDistanceSq@@@0@PAUtagBaseCharDistanceSq@@AAU2@@Z ; std::_Cons_val<std::allocator<tagBaseCharDistanceSq>,tagBaseCharDistanceSq,tagBaseCharDistanceSq &>
  00039	83 c4 0c	 add	 esp, 12			; 0000000cH

; 986  : 			++this->_Mylast;
; 987  : 			}
; 988  : 		else

  0003c	eb 19		 jmp	 SHORT $LN26@push_back
$LN4@push_back:

; 989  : 			{	// push back a non-element
; 990  : 			if (this->_Mylast == this->_Myend)

  0003e	3b 46 08	 cmp	 eax, DWORD PTR [esi+8]
  00041	75 09		 jne	 SHORT $LN1@push_back

; 991  : 				_Reserve(1);

  00043	6a 01		 push	 1
  00045	8b ce		 mov	 ecx, esi
  00047	e8 00 00 00 00	 call	 ?_Reserve@?$vector@UtagBaseCharDistanceSq@@V?$allocator@UtagBaseCharDistanceSq@@@std@@@std@@IAEXI@Z ; std::vector<tagBaseCharDistanceSq,std::allocator<tagBaseCharDistanceSq> >::_Reserve
$LN1@push_back:

; 992  : 			_Orphan_range(this->_Mylast, this->_Mylast);
; 993  : 			_Cons_val(this->_Alval,
; 994  : 				this->_Mylast,
; 995  : 				_Val);

  0004c	57		 push	 edi
  0004d	ff 76 04	 push	 DWORD PTR [esi+4]
  00050	e8 00 00 00 00	 call	 ??$_Construct@UtagBaseCharDistanceSq@@ABU1@@std@@YAXPAUtagBaseCharDistanceSq@@ABU1@@Z ; std::_Construct<tagBaseCharDistanceSq,tagBaseCharDistanceSq const &>
  00055	59		 pop	 ecx
  00056	59		 pop	 ecx
$LN26@push_back:

; 996  : 			++this->_Mylast;

  00057	83 46 04 20	 add	 DWORD PTR [esi+4], 32	; 00000020H
  0005b	5f		 pop	 edi
  0005c	5e		 pop	 esi

; 997  : 			}
; 998  : 		}

  0005d	5d		 pop	 ebp
  0005e	c2 04 00	 ret	 4
?push_back@?$vector@UtagBaseCharDistanceSq@@V?$allocator@UtagBaseCharDistanceSq@@@std@@@std@@QAEXABUtagBaseCharDistanceSq@@@Z ENDP ; std::vector<tagBaseCharDistanceSq,std::allocator<tagBaseCharDistanceSq> >::push_back
_TEXT	ENDS
PUBLIC	_pChar$GSCopy$
PUBLIC	_this$GSCopy$
PUBLIC	?CheckTarget@ioTargetBuffSkill@@IAEXPAVioBaseChar@@PAVioPlayStage@@@Z ; ioTargetBuffSkill::CheckTarget
EXTRN	__imp_??D@YA?AUD3DXVECTOR3@@ABUD3DXQUATERNION@@ABU0@@Z:PROC
EXTRN	_D3DXVec3Normalize@8:PROC
EXTRN	?CheckTargetWoundType@ioBaseChar@@QAE_NW4TargetWoundType@@@Z:PROC ; ioBaseChar::CheckTargetWoundType
EXTRN	?IsEnableTarget@ioBaseChar@@QAE_N_N0@Z:PROC	; ioBaseChar::IsEnableTarget
EXTRN	?IsSystemState@ioBaseChar@@QAE_NXZ:PROC		; ioBaseChar::IsSystemState
EXTRN	__imp_??8ioHashString@@QBE_NABV0@@Z:PROC
;	COMDAT xdata$x
xdata$x	SEGMENT
__unwindtable$?CheckTarget@ioTargetBuffSkill@@IAEXPAVioBaseChar@@PAVioPlayStage@@@Z DD 0ffffffffH
	DD	FLAT:__unwindfunclet$?CheckTarget@ioTargetBuffSkill@@IAEXPAVioBaseChar@@PAVioPlayStage@@@Z$0
	DD	00H
	DD	FLAT:__unwindfunclet$?CheckTarget@ioTargetBuffSkill@@IAEXPAVioBaseChar@@PAVioPlayStage@@@Z$2
	DD	00H
	DD	FLAT:__unwindfunclet$?CheckTarget@ioTargetBuffSkill@@IAEXPAVioBaseChar@@PAVioPlayStage@@@Z$3
__ehfuncinfo$?CheckTarget@ioTargetBuffSkill@@IAEXPAVioBaseChar@@PAVioPlayStage@@@Z DD 019930522H
	DD	03H
	DD	FLAT:__unwindtable$?CheckTarget@ioTargetBuffSkill@@IAEXPAVioBaseChar@@PAVioPlayStage@@@Z
	DD	2 DUP(00H)
	DD	2 DUP(00H)
	DD	00H
	DD	01H
; Function compile flags: /Ogsp
; File d:\lost saga for developer\youtube\tutorial\source\src\lsclient\iotargetbuffskill.cpp
xdata$x	ENDS
;	COMDAT ?CheckTarget@ioTargetBuffSkill@@IAEXPAVioBaseChar@@PAVioPlayStage@@@Z
_TEXT	SEGMENT
_vDiff$550597 = -200					; size = 12
_value$558143 = -188					; size = 4
_value$558130 = -184					; size = 4
tv883 = -180						; size = 4
$T557939 = -176						; size = 1
$T558042 = -176						; size = 4
_fDistSq$550599 = -176					; size = 4
_vTargetInfoList$ = -172				; size = 16
tv1059 = -156						; size = 4
tv1050 = -156						; size = 4
tv1046 = -156						; size = 4
$T557937 = -156						; size = 4
_fHalfCosine$550606 = -156				; size = 4
_pChar$GSCopy$ = -152					; size = 4
_this$GSCopy$ = -148					; size = 4
_value$557953 = -144					; size = 4
_iCnt$550768 = -144					; size = 4
_fPrevDistSq$ = -144					; size = 4
tv1042 = -140						; size = 4
tv1029 = -140						; size = 4
tv1027 = -140						; size = 4
$T558183 = -140						; size = 4
$T557938 = -140						; size = 4
tv982 = -136						; size = 4
_value$557948 = -136					; size = 4
_iter$ = -136						; size = 4
$T550612 = -132						; size = 48
_kInfo$550618 = -84					; size = 32
$T550604 = -52						; size = 12
_vDir$550601 = -40					; size = 12
_vSearchDir$550602 = -28				; size = 12
__$EHRec$ = -12						; size = 12
_pChar$ = 8						; size = 4
_pStage$ = 12						; size = 4
?CheckTarget@ioTargetBuffSkill@@IAEXPAVioBaseChar@@PAVioPlayStage@@@Z PROC ; ioTargetBuffSkill::CheckTarget, COMDAT
; _this$ = ecx

; 370  : {

  00000	68 bc 00 00 00	 push	 188			; 000000bcH
  00005	b8 00 00 00 00	 mov	 eax, __ehhandler$?CheckTarget@ioTargetBuffSkill@@IAEXPAVioBaseChar@@PAVioPlayStage@@@Z
  0000a	e8 00 00 00 00	 call	 __EH_prolog3_GS
  0000f	8b 5d 0c	 mov	 ebx, DWORD PTR _pStage$[ebp]
  00012	8b 7d 08	 mov	 edi, DWORD PTR _pChar$[ebp]

; 379  : 
; 380  : 	BaseCharList::const_iterator iter;
; 381  : 	for( iter = rkTargetList.begin(); iter != rkTargetList.end(); ++iter )

  00015	89 8d 6c ff ff
	ff		 mov	 DWORD PTR _this$GSCopy$[ebp], ecx
  0001b	89 bd 68 ff ff
	ff		 mov	 DWORD PTR _pChar$GSCopy$[ebp], edi
  00021	85 db		 test	 ebx, ebx
  00023	0f 84 1a 05 00
	00		 je	 $LN170@CheckTarge

; 371  : 	if( !pStage )	return;
; 372  : 	if( !pChar )	return;

  00029	85 ff		 test	 edi, edi
  0002b	0f 84 12 05 00
	00		 je	 $LN170@CheckTarge

; 373  : 
; 374  : 	float fPrevDistSq = m_fTargetRange * m_fTargetRange;

  00031	8d b1 84 10 00
	00		 lea	 esi, DWORD PTR [ecx+4228]
  00037	8d 85 78 ff ff
	ff		 lea	 eax, DWORD PTR _value$557948[ebp]
  0003d	50		 push	 eax
  0003e	8b ce		 mov	 ecx, esi
  00040	e8 00 00 00 00	 call	 ?DecryptValueToPool@?$CEncrypt@M@@QAEXPAM@Z ; CEncrypt<float>::DecryptValueToPool
  00045	8d 85 70 ff ff
	ff		 lea	 eax, DWORD PTR _value$557953[ebp]
  0004b	50		 push	 eax
  0004c	8b ce		 mov	 ecx, esi
  0004e	e8 00 00 00 00	 call	 ?DecryptValueToPool@?$CEncrypt@M@@QAEXPAM@Z ; CEncrypt<float>::DecryptValueToPool
  00053	f3 0f 10 85 70
	ff ff ff	 movss	 xmm0, DWORD PTR _value$557953[ebp]
  0005b	f3 0f 10 8d 78
	ff ff ff	 movss	 xmm1, DWORD PTR _value$557948[ebp]
  00063	0f 5a c0	 cvtps2pd xmm0, xmm0

; 375  : 	
; 376  : 	const BaseCharList &rkTargetList = pStage->GetBaseCharList();
; 377  : 	BaseCharDistanceSqList	vTargetInfoList;

  00066	33 c0		 xor	 eax, eax
  00068	0f 5a c9	 cvtps2pd xmm1, xmm1
  0006b	f2 0f 59 c1	 mulsd	 xmm0, xmm1
  0006f	66 0f 5a c0	 cvtpd2ps xmm0, xmm0
  00073	f3 0f 11 85 70
	ff ff ff	 movss	 DWORD PTR _fPrevDistSq$[ebp], xmm0
  0007b	89 85 54 ff ff
	ff		 mov	 DWORD PTR _vTargetInfoList$[ebp], eax
  00081	89 85 58 ff ff
	ff		 mov	 DWORD PTR _vTargetInfoList$[ebp+4], eax
  00087	89 85 5c ff ff
	ff		 mov	 DWORD PTR _vTargetInfoList$[ebp+8], eax

; 378  : 	vTargetInfoList.clear();

  0008d	50		 push	 eax
  0008e	33 c9		 xor	 ecx, ecx
  00090	89 45 fc	 mov	 DWORD PTR __$EHRec$[ebp+8], eax
  00093	51		 push	 ecx
  00094	8d 85 50 ff ff
	ff		 lea	 eax, DWORD PTR $T558042[ebp]
  0009a	50		 push	 eax
  0009b	8d 8d 54 ff ff
	ff		 lea	 ecx, DWORD PTR _vTargetInfoList$[ebp]
  000a1	e8 00 00 00 00	 call	 ?erase@?$vector@UtagBaseCharDistanceSq@@V?$allocator@UtagBaseCharDistanceSq@@@std@@@std@@QAE?AV?$_Vector_iterator@V?$_Vector_val@UtagBaseCharDistanceSq@@V?$allocator@UtagBaseCharDistanceSq@@@std@@@std@@@2@V?$_Vector_const_iterator@V?$_Vector_val@UtagBaseCharDistanceSq@@V?$allocator@UtagBaseCharDistanceSq@@@std@@@std@@@2@0@Z ; std::vector<tagBaseCharDistanceSq,std::allocator<tagBaseCharDistanceSq> >::erase

; 379  : 
; 380  : 	BaseCharList::const_iterator iter;
; 381  : 	for( iter = rkTargetList.begin(); iter != rkTargetList.end(); ++iter )

  000a6	8b 4b 2c	 mov	 ecx, DWORD PTR [ebx+44]
  000a9	e9 fe 02 00 00	 jmp	 $LN190@CheckTarge
$LL82@CheckTarge:

; 382  : 	{
; 383  : 		ioBaseChar *pTarget = (*iter);

  000ae	8b 31		 mov	 esi, DWORD PTR [ecx]

; 384  : 
; 385  : 		if( !pTarget )

  000b0	85 f6		 test	 esi, esi
  000b2	0f 84 eb 02 00
	00		 je	 $LN32@CheckTarge

; 386  : 			continue;
; 387  : 
; 388  : 		if( pChar->GetCharName() == pTarget->GetCharName() )

  000b8	8d 86 d4 02 00
	00		 lea	 eax, DWORD PTR [esi+724]
  000be	50		 push	 eax
  000bf	8d 8f d4 02 00
	00		 lea	 ecx, DWORD PTR [edi+724]
  000c5	89 85 4c ff ff
	ff		 mov	 DWORD PTR tv883[ebp], eax
  000cb	ff 15 00 00 00
	00		 call	 DWORD PTR __imp_??8ioHashString@@QBE_NABV0@@Z
  000d1	84 c0		 test	 al, al
  000d3	0f 85 ca 02 00
	00		 jne	 $LN32@CheckTarge

; 389  : 			continue;
; 390  : 
; 391  : 		if( pChar->GetTeam() == pTarget->GetTeam() )

  000d9	8d 85 48 ff ff
	ff		 lea	 eax, DWORD PTR _value$558130[ebp]
  000df	8d 8f 90 00 00
	00		 lea	 ecx, DWORD PTR [edi+144]
  000e5	50		 push	 eax
  000e6	e8 00 00 00 00	 call	 ?DecryptValueToPool@?$CEncrypt@W4TeamType@@@@QAEXPAW4TeamType@@@Z ; CEncrypt<enum TeamType>::DecryptValueToPool
  000eb	8d 85 44 ff ff
	ff		 lea	 eax, DWORD PTR _value$558143[ebp]
  000f1	8d 8e 90 00 00
	00		 lea	 ecx, DWORD PTR [esi+144]
  000f7	50		 push	 eax
  000f8	e8 00 00 00 00	 call	 ?DecryptValueToPool@?$CEncrypt@W4TeamType@@@@QAEXPAW4TeamType@@@Z ; CEncrypt<enum TeamType>::DecryptValueToPool
  000fd	8b 85 48 ff ff
	ff		 mov	 eax, DWORD PTR _value$558130[ebp]
  00103	3b 85 44 ff ff
	ff		 cmp	 eax, DWORD PTR _value$558143[ebp]
  00109	0f 84 94 02 00
	00		 je	 $LN32@CheckTarge

; 392  : 			continue;
; 393  : 
; 394  : 		if( pTarget->IsSystemState() )

  0010f	8b ce		 mov	 ecx, esi
  00111	e8 00 00 00 00	 call	 ?IsSystemState@ioBaseChar@@QAE_NXZ ; ioBaseChar::IsSystemState
  00116	84 c0		 test	 al, al
  00118	0f 85 85 02 00
	00		 jne	 $LN32@CheckTarge

; 395  : 			continue;
; 396  : 			
; 397  : 		if( !pTarget->IsEnableTarget() )

  0011e	6a 01		 push	 1
  00120	6a 01		 push	 1
  00122	8b ce		 mov	 ecx, esi
  00124	e8 00 00 00 00	 call	 ?IsEnableTarget@ioBaseChar@@QAE_N_N0@Z ; ioBaseChar::IsEnableTarget
  00129	84 c0		 test	 al, al
  0012b	0f 84 72 02 00
	00		 je	 $LN32@CheckTarge

; 398  : 			continue;
; 399  : 
; 400  : 		if( !pTarget->CheckTargetWoundType( m_TargetWoundType ) )

  00131	8b 85 6c ff ff
	ff		 mov	 eax, DWORD PTR _this$GSCopy$[ebp]
  00137	ff b0 b4 10 00
	00		 push	 DWORD PTR [eax+4276]
  0013d	8b ce		 mov	 ecx, esi
  0013f	e8 00 00 00 00	 call	 ?CheckTargetWoundType@ioBaseChar@@QAE_NW4TargetWoundType@@@Z ; ioBaseChar::CheckTargetWoundType
  00144	84 c0		 test	 al, al
  00146	0f 84 57 02 00
	00		 je	 $LN32@CheckTarge

; 401  : 			continue;
; 402  : 
; 403  : 		D3DXVECTOR3 vDiff = pTarget->GetWorldPosition() - pChar->GetWorldPosition();

  0014c	8b 07		 mov	 eax, DWORD PTR [edi]
  0014e	8b cf		 mov	 ecx, edi
  00150	ff 50 70	 call	 DWORD PTR [eax+112]
  00153	8b f8		 mov	 edi, eax
  00155	8b 06		 mov	 eax, DWORD PTR [esi]
  00157	8b ce		 mov	 ecx, esi
  00159	ff 50 70	 call	 DWORD PTR [eax+112]
  0015c	f3 0f 10 0f	 movss	 xmm1, DWORD PTR [edi]
  00160	f3 0f 10 00	 movss	 xmm0, DWORD PTR [eax]
  00164	f3 0f 10 57 04	 movss	 xmm2, DWORD PTR [edi+4]
  00169	f3 0f 10 5f 08	 movss	 xmm3, DWORD PTR [edi+8]
  0016e	0f 5a c9	 cvtps2pd xmm1, xmm1
  00171	0f 5a c0	 cvtps2pd xmm0, xmm0
  00174	f2 0f 5c c1	 subsd	 xmm0, xmm1
  00178	f3 0f 10 48 04	 movss	 xmm1, DWORD PTR [eax+4]
  0017d	0f 5a d2	 cvtps2pd xmm2, xmm2
  00180	0f 5a c9	 cvtps2pd xmm1, xmm1
  00183	f2 0f 5c ca	 subsd	 xmm1, xmm2
  00187	f3 0f 10 50 08	 movss	 xmm2, DWORD PTR [eax+8]
  0018c	66 0f 5a c0	 cvtpd2ps xmm0, xmm0
  00190	66 0f 5a c9	 cvtpd2ps xmm1, xmm1
  00194	0f 5a d2	 cvtps2pd xmm2, xmm2
  00197	f3 0f 11 85 38
	ff ff ff	 movss	 DWORD PTR _vDiff$550597[ebp], xmm0
  0019f	f3 0f 11 8d 3c
	ff ff ff	 movss	 DWORD PTR _vDiff$550597[ebp+4], xmm1

; 404  : 		float fDistSq = D3DXVec3LengthSq( &vDiff );

  001a7	f3 0f 5a c0	 cvtss2sd xmm0, xmm0
  001ab	0f 5a db	 cvtps2pd xmm3, xmm3
  001ae	f2 0f 5c d3	 subsd	 xmm2, xmm3
  001b2	66 0f 5a d2	 cvtpd2ps xmm2, xmm2
  001b6	f3 0f 5a c9	 cvtss2sd xmm1, xmm1
  001ba	f2 0f 59 c0	 mulsd	 xmm0, xmm0
  001be	f3 0f 11 95 40
	ff ff ff	 movss	 DWORD PTR _vDiff$550597[ebp+8], xmm2
  001c6	f2 0f 59 c9	 mulsd	 xmm1, xmm1
  001ca	f2 0f 58 c1	 addsd	 xmm0, xmm1

; 405  : 
; 406  : 		if( fDistSq < fPrevDistSq )

  001ce	f3 0f 10 8d 70
	ff ff ff	 movss	 xmm1, DWORD PTR _fPrevDistSq$[ebp]
  001d6	f3 0f 5a d2	 cvtss2sd xmm2, xmm2
  001da	f2 0f 59 d2	 mulsd	 xmm2, xmm2
  001de	f2 0f 58 c2	 addsd	 xmm0, xmm2
  001e2	66 0f 5a c0	 cvtpd2ps xmm0, xmm0
  001e6	f3 0f 11 85 50
	ff ff ff	 movss	 DWORD PTR _fDistSq$550599[ebp], xmm0
  001ee	f3 0f 5a c0	 cvtss2sd xmm0, xmm0
  001f2	0f 5a c9	 cvtps2pd xmm1, xmm1
  001f5	66 0f 2f c8	 comisd	 xmm1, xmm0
  001f9	0f 86 9e 01 00
	00		 jbe	 $LN182@CheckTarge

; 407  : 		{
; 408  : 			D3DXVECTOR3 vDir = vDiff;

  001ff	8d b5 38 ff ff
	ff		 lea	 esi, DWORD PTR _vDiff$550597[ebp]
  00205	8d 7d d8	 lea	 edi, DWORD PTR _vDir$550601[ebp]
  00208	a5		 movsd

; 409  : 			D3DXVec3Normalize( &vDir, &vDir );

  00209	8d 45 d8	 lea	 eax, DWORD PTR _vDir$550601[ebp]
  0020c	a5		 movsd
  0020d	50		 push	 eax
  0020e	50		 push	 eax
  0020f	a5		 movsd
  00210	e8 00 00 00 00	 call	 _D3DXVec3Normalize@8

; 410  : 
; 411  : 			D3DXVECTOR3 vSearchDir = pChar->GetTargetRot() * D3DXVECTOR3( 0.0f, 0.0f, -FLOAT1 );

  00215	b8 01 00 00 00	 mov	 eax, 1
  0021a	0f 57 c0	 xorps	 xmm0, xmm0
  0021d	89 85 64 ff ff
	ff		 mov	 DWORD PTR tv1059[ebp], eax
  00223	db 85 64 ff ff
	ff		 fild	 DWORD PTR tv1059[ebp]
  00229	f3 0f 11 45 cc	 movss	 DWORD PTR $T550604[ebp], xmm0
  0022e	f3 0f 11 45 d0	 movss	 DWORD PTR $T550604[ebp+4], xmm0
  00233	85 c0		 test	 eax, eax
  00235	79 06		 jns	 SHORT $LN187@CheckTarge
  00237	d8 05 00 00 00
	00		 fadd	 DWORD PTR __real@4f800000
$LN187@CheckTarge:
  0023d	8d 45 cc	 lea	 eax, DWORD PTR $T550604[ebp]
  00240	d9 e0		 fchs
  00242	50		 push	 eax
  00243	d9 5d d4	 fstp	 DWORD PTR $T550604[ebp+8]
  00246	8b 85 68 ff ff
	ff		 mov	 eax, DWORD PTR _pChar$GSCopy$[ebp]
  0024c	05 a4 06 00 00	 add	 eax, 1700		; 000006a4H
  00251	50		 push	 eax
  00252	8d 45 e4	 lea	 eax, DWORD PTR _vSearchDir$550602[ebp]
  00255	50		 push	 eax
  00256	ff 15 00 00 00
	00		 call	 DWORD PTR __imp_??D@YA?AUD3DXVECTOR3@@ABUD3DXQUATERNION@@ABU0@@Z
  0025c	83 c4 0c	 add	 esp, 12			; 0000000cH

; 412  : 			D3DXVec3Normalize( &vSearchDir, &vSearchDir );

  0025f	8d 45 e4	 lea	 eax, DWORD PTR _vSearchDir$550602[ebp]
  00262	50		 push	 eax
  00263	50		 push	 eax
  00264	e8 00 00 00 00	 call	 _D3DXVec3Normalize@8

; 413  : 			
; 414  : 			float fHalfCosine = 0.0f;
; 415  : 
; 416  : 			fHalfCosine = cosf( DEGtoRAD( m_fTargetAngle ) * FLOAT05 );

  00269	b8 05 00 00 00	 mov	 eax, 5
  0026e	8b c8		 mov	 ecx, eax
  00270	b8 0a 00 00 00	 mov	 eax, 10			; 0000000aH
  00275	89 8d 64 ff ff
	ff		 mov	 DWORD PTR tv1050[ebp], ecx
  0027b	db 85 64 ff ff
	ff		 fild	 DWORD PTR tv1050[ebp]
  00281	85 c9		 test	 ecx, ecx
  00283	79 06		 jns	 SHORT $LN188@CheckTarge
  00285	d8 05 00 00 00
	00		 fadd	 DWORD PTR __real@4f800000
$LN188@CheckTarge:
  0028b	89 85 64 ff ff
	ff		 mov	 DWORD PTR tv1046[ebp], eax
  00291	db 85 64 ff ff
	ff		 fild	 DWORD PTR tv1046[ebp]
  00297	85 c0		 test	 eax, eax
  00299	79 06		 jns	 SHORT $LN189@CheckTarge
  0029b	d8 05 00 00 00
	00		 fadd	 DWORD PTR __real@4f800000
$LN189@CheckTarge:
  002a1	de f9		 fdivp	 ST(1), ST(0)
  002a3	8d 85 74 ff ff
	ff		 lea	 eax, DWORD PTR $T557938[ebp]
  002a9	50		 push	 eax
  002aa	8b 85 6c ff ff
	ff		 mov	 eax, DWORD PTR _this$GSCopy$[ebp]
  002b0	83 ec 30	 sub	 esp, 48			; 00000030H
  002b3	05 54 10 00 00	 add	 eax, 4180		; 00001054H
  002b8	8b cc		 mov	 ecx, esp
  002ba	89 a5 64 ff ff
	ff		 mov	 DWORD PTR $T557937[ebp], esp
  002c0	50		 push	 eax
  002c1	d9 9d 74 ff ff
	ff		 fstp	 DWORD PTR tv1042[ebp]
  002c7	d9 85 74 ff ff
	ff		 fld	 DWORD PTR tv1042[ebp]
  002cd	d9 9d 74 ff ff
	ff		 fstp	 DWORD PTR $T557938[ebp]
  002d3	e8 00 00 00 00	 call	 ??0?$CEncrypt@M@@QAE@ABV0@@Z ; CEncrypt<float>::CEncrypt<float>
  002d8	8d 85 7c ff ff
	ff		 lea	 eax, DWORD PTR $T550612[ebp]
  002de	50		 push	 eax
  002df	e8 00 00 00 00	 call	 ??$DEGtoRAD@V?$CEncrypt@M@@@@YA?AV?$CEncrypt@M@@V0@@Z ; DEGtoRAD<CEncrypt<float> >
  002e4	83 c4 34	 add	 esp, 52			; 00000034H
  002e7	8b c8		 mov	 ecx, eax
  002e9	c6 45 fc 01	 mov	 BYTE PTR __$EHRec$[ebp+8], 1
  002ed	e8 00 00 00 00	 call	 ??D?$CEncrypt@M@@QAEMABM@Z ; CEncrypt<float>::operator*
  002f2	d9 9d 74 ff ff
	ff		 fstp	 DWORD PTR $T558183[ebp]
  002f8	d9 85 74 ff ff
	ff		 fld	 DWORD PTR $T558183[ebp]
  002fe	e8 00 00 00 00	 call	 __CIcos
  00303	d9 9d 74 ff ff
	ff		 fstp	 DWORD PTR tv1029[ebp]
  00309	d9 85 74 ff ff
	ff		 fld	 DWORD PTR tv1029[ebp]
  0030f	8d 4d 88	 lea	 ecx, DWORD PTR $T550612[ebp+12]
  00312	d9 9d 64 ff ff
	ff		 fstp	 DWORD PTR _fHalfCosine$550606[ebp]
  00318	c6 45 fc 00	 mov	 BYTE PTR __$EHRec$[ebp+8], 0
  0031c	c7 85 7c ff ff
	ff 00 00 00 00	 mov	 DWORD PTR $T550612[ebp], OFFSET ??_7?$CEncrypt@M@@6B@
  00326	e8 00 00 00 00	 call	 ??1ccddaabb@@UAE@XZ	; ccddaabb::~ccddaabb

; 417  : 
; 418  : 			if( D3DXVec3Dot( &vSearchDir, &vDir ) >= fHalfCosine )

  0032b	d9 45 e8	 fld	 DWORD PTR _vSearchDir$550602[ebp+4]
  0032e	d8 4d dc	 fmul	 DWORD PTR _vDir$550601[ebp+4]
  00331	d9 45 d8	 fld	 DWORD PTR _vDir$550601[ebp]
  00334	d8 4d e4	 fmul	 DWORD PTR _vSearchDir$550602[ebp]
  00337	de c1		 faddp	 ST(1), ST(0)
  00339	d9 45 ec	 fld	 DWORD PTR _vSearchDir$550602[ebp+8]
  0033c	d8 4d e0	 fmul	 DWORD PTR _vDir$550601[ebp+8]
  0033f	de c1		 faddp	 ST(1), ST(0)
  00341	d9 9d 74 ff ff
	ff		 fstp	 DWORD PTR tv1027[ebp]
  00347	d9 85 64 ff ff
	ff		 fld	 DWORD PTR _fHalfCosine$550606[ebp]
  0034d	d9 85 74 ff ff
	ff		 fld	 DWORD PTR tv1027[ebp]
  00353	df f1		 fcomip	 ST(1)
  00355	dd d8		 fstp	 ST(0)
  00357	72 44		 jb	 SHORT $LN182@CheckTarge

; 419  : 			{
; 420  : 				BaseCharDistanceSq kInfo;

  00359	8d 4d ac	 lea	 ecx, DWORD PTR _kInfo$550618[ebp]
  0035c	e8 00 00 00 00	 call	 ??0tagBaseCharDistanceSq@@QAE@XZ ; tagBaseCharDistanceSq::tagBaseCharDistanceSq

; 421  : 				kInfo.m_Name = pTarget->GetCharName();

  00361	ff b5 4c ff ff
	ff		 push	 DWORD PTR tv883[ebp]
  00367	8d 4d ac	 lea	 ecx, DWORD PTR _kInfo$550618[ebp]
  0036a	c6 45 fc 02	 mov	 BYTE PTR __$EHRec$[ebp+8], 2
  0036e	ff 15 00 00 00
	00		 call	 DWORD PTR __imp_??4ioHashString@@QAEAAV0@ABV0@@Z

; 422  : 				kInfo.m_fDistanceSq = fDistSq;

  00374	f3 0f 10 85 50
	ff ff ff	 movss	 xmm0, DWORD PTR _fDistSq$550599[ebp]

; 423  : 				vTargetInfoList.push_back( kInfo );

  0037c	8d 45 ac	 lea	 eax, DWORD PTR _kInfo$550618[ebp]
  0037f	50		 push	 eax
  00380	8d 8d 54 ff ff
	ff		 lea	 ecx, DWORD PTR _vTargetInfoList$[ebp]
  00386	f3 0f 11 45 bc	 movss	 DWORD PTR _kInfo$550618[ebp+16], xmm0
  0038b	e8 00 00 00 00	 call	 ?push_back@?$vector@UtagBaseCharDistanceSq@@V?$allocator@UtagBaseCharDistanceSq@@@std@@@std@@QAEXABUtagBaseCharDistanceSq@@@Z ; std::vector<tagBaseCharDistanceSq,std::allocator<tagBaseCharDistanceSq> >::push_back

; 424  : 			}

  00390	8d 4d ac	 lea	 ecx, DWORD PTR _kInfo$550618[ebp]
  00393	c6 45 fc 00	 mov	 BYTE PTR __$EHRec$[ebp+8], 0
  00397	ff 15 00 00 00
	00		 call	 DWORD PTR __imp_??1ioHashString@@QAE@XZ
$LN182@CheckTarge:
  0039d	8b bd 68 ff ff
	ff		 mov	 edi, DWORD PTR _pChar$GSCopy$[ebp]
$LN32@CheckTarge:

; 379  : 
; 380  : 	BaseCharList::const_iterator iter;
; 381  : 	for( iter = rkTargetList.begin(); iter != rkTargetList.end(); ++iter )

  003a3	8b 8d 78 ff ff
	ff		 mov	 ecx, DWORD PTR _iter$[ebp]
  003a9	83 c1 04	 add	 ecx, 4
$LN190@CheckTarge:
  003ac	89 8d 78 ff ff
	ff		 mov	 DWORD PTR _iter$[ebp], ecx
  003b2	3b 4b 30	 cmp	 ecx, DWORD PTR [ebx+48]
  003b5	0f 85 f3 fc ff
	ff		 jne	 $LL82@CheckTarge

; 425  : 		}
; 426  : 	}
; 427  : 	if( !vTargetInfoList.empty() )

  003bb	8b 85 54 ff ff
	ff		 mov	 eax, DWORD PTR _vTargetInfoList$[ebp]
  003c1	3b 85 58 ff ff
	ff		 cmp	 eax, DWORD PTR _vTargetInfoList$[ebp+4]
  003c7	74 15		 je	 SHORT $LN22@CheckTarge

; 428  : 	{
; 429  : 		std::sort( vTargetInfoList.begin(), vTargetInfoList.end(), BaseCharDistanceSqSort2() );

  003c9	ff b5 50 ff ff
	ff		 push	 DWORD PTR $T557939[ebp]
  003cf	ff b5 58 ff ff
	ff		 push	 DWORD PTR _vTargetInfoList$[ebp+4]
  003d5	50		 push	 eax
  003d6	e8 00 00 00 00	 call	 ??$sort@V?$_Vector_iterator@V?$_Vector_val@UtagBaseCharDistanceSq@@V?$allocator@UtagBaseCharDistanceSq@@@std@@@std@@@std@@VBaseCharDistanceSqSort2@@@std@@YAXV?$_Vector_iterator@V?$_Vector_val@UtagBaseCharDistanceSq@@V?$allocator@UtagBaseCharDistanceSq@@@std@@@std@@@0@0VBaseCharDistanceSqSort2@@@Z ; std::sort<std::_Vector_iterator<std::_Vector_val<tagBaseCharDistanceSq,std::allocator<tagBaseCharDistanceSq> > >,BaseCharDistanceSqSort2>
  003db	83 c4 0c	 add	 esp, 12			; 0000000cH
$LN22@CheckTarge:

; 430  : 	}
; 431  : 	if( m_szTargetName.IsEmpty() )

  003de	8b b5 6c ff ff
	ff		 mov	 esi, DWORD PTR _this$GSCopy$[ebp]
  003e4	81 c6 cc 10 00
	00		 add	 esi, 4300		; 000010ccH
  003ea	8b ce		 mov	 ecx, esi
  003ec	89 b5 78 ff ff
	ff		 mov	 DWORD PTR tv982[ebp], esi
  003f2	ff 15 00 00 00
	00		 call	 DWORD PTR __imp_?IsEmpty@ioHashString@@QBE_NXZ
  003f8	84 c0		 test	 al, al

; 432  : 	{
; 433  : 		int iCnt = vTargetInfoList.size();

  003fa	8b 85 58 ff ff
	ff		 mov	 eax, DWORD PTR _vTargetInfoList$[ebp+4]
  00400	74 72		 je	 SHORT $LN21@CheckTarge
  00402	2b 85 54 ff ff
	ff		 sub	 eax, DWORD PTR _vTargetInfoList$[ebp]
  00408	c1 f8 05	 sar	 eax, 5

; 434  : 		for( int i=0; i<iCnt; ++i )

  0040b	85 c0		 test	 eax, eax
  0040d	7e 40		 jle	 SHORT $LN18@CheckTarge

; 432  : 	{
; 433  : 		int iCnt = vTargetInfoList.size();

  0040f	33 f6		 xor	 esi, esi
  00411	8b d8		 mov	 ebx, eax
$LN20@CheckTarge:

; 435  : 		{
; 436  : 			float fDistSq = vTargetInfoList[i].m_fDistanceSq;

  00413	8b 85 54 ff ff
	ff		 mov	 eax, DWORD PTR _vTargetInfoList$[ebp]

; 437  : 			if( fDistSq < fPrevDistSq )	// Enemy

  00419	f3 0f 10 95 70
	ff ff ff	 movss	 xmm2, DWORD PTR _fPrevDistSq$[ebp]
  00421	03 c6		 add	 eax, esi
  00423	f3 0f 10 40 10	 movss	 xmm0, DWORD PTR [eax+16]
  00428	0f 5a c8	 cvtps2pd xmm1, xmm0
  0042b	0f 5a d2	 cvtps2pd xmm2, xmm2
  0042e	66 0f 2f d1	 comisd	 xmm2, xmm1
  00432	76 15		 jbe	 SHORT $LN19@CheckTarge

; 438  : 			{
; 439  : 				fPrevDistSq = fDistSq;
; 440  : 				m_szTargetName = vTargetInfoList[i].m_Name;

  00434	8b 8d 78 ff ff
	ff		 mov	 ecx, DWORD PTR tv982[ebp]
  0043a	50		 push	 eax
  0043b	f3 0f 11 85 70
	ff ff ff	 movss	 DWORD PTR _fPrevDistSq$[ebp], xmm0
  00443	ff 15 00 00 00
	00		 call	 DWORD PTR __imp_??4ioHashString@@QAEAAV0@ABV0@@Z
$LN19@CheckTarge:

; 434  : 		for( int i=0; i<iCnt; ++i )

  00449	83 c6 20	 add	 esi, 32			; 00000020H
  0044c	4b		 dec	 ebx
  0044d	75 c4		 jne	 SHORT $LN20@CheckTarge
$LN18@CheckTarge:

; 441  : 			}
; 442  : 		}
; 443  : 
; 444  : 		if( !m_szTargetName.IsEmpty() )

  0044f	8b 8d 78 ff ff
	ff		 mov	 ecx, DWORD PTR tv982[ebp]
  00455	ff 15 00 00 00
	00		 call	 DWORD PTR __imp_?IsEmpty@ioHashString@@QBE_NXZ
  0045b	84 c0		 test	 al, al
  0045d	0f 85 d1 00 00
	00		 jne	 $LN1@CheckTarge

; 445  : 		{
; 446  : 			DestroyAimMark( pChar );

  00463	8b 8d 6c ff ff
	ff		 mov	 ecx, DWORD PTR _this$GSCopy$[ebp]
  00469	57		 push	 edi
$LN192@CheckTarge:
  0046a	e8 00 00 00 00	 call	 ?DestroyAimMark@ioTargetBuffSkill@@IAEXPAVioBaseChar@@@Z ; ioTargetBuffSkill::DestroyAimMark

; 447  : 		}
; 448  : 	}
; 449  : 	else if( !vTargetInfoList.empty() )

  0046f	e9 c0 00 00 00	 jmp	 $LN1@CheckTarge
$LN21@CheckTarge:
  00474	39 85 54 ff ff
	ff		 cmp	 DWORD PTR _vTargetInfoList$[ebp], eax
  0047a	0f 84 ac 00 00
	00		 je	 $LN14@CheckTarge

; 452  : 
; 453  : 		int iCnt = vTargetInfoList.size();

  00480	2b 85 54 ff ff
	ff		 sub	 eax, DWORD PTR _vTargetInfoList$[ebp]
  00486	83 ce ff	 or	 esi, -1
  00489	c1 f8 05	 sar	 eax, 5

; 454  : 		for( int i=0; i<iCnt; ++i )

  0048c	33 ff		 xor	 edi, edi
  0048e	89 85 70 ff ff
	ff		 mov	 DWORD PTR _iCnt$550768[ebp], eax
  00494	85 c0		 test	 eax, eax
  00496	0f 8e 88 00 00
	00		 jle	 $LN9@CheckTarge

; 450  : 	{
; 451  : 		int iCurTarget = -1;

  0049c	33 db		 xor	 ebx, ebx
$LN13@CheckTarge:

; 454  : 		for( int i=0; i<iCnt; ++i )

  0049e	8b 85 54 ff ff
	ff		 mov	 eax, DWORD PTR _vTargetInfoList$[ebp]

; 455  : 		{
; 456  : 			if( m_szTargetName == vTargetInfoList[i].m_Name )

  004a4	8b 8d 78 ff ff
	ff		 mov	 ecx, DWORD PTR tv982[ebp]
  004aa	03 c3		 add	 eax, ebx
  004ac	50		 push	 eax
  004ad	ff 15 00 00 00
	00		 call	 DWORD PTR __imp_??8ioHashString@@QBE_NABV0@@Z
  004b3	84 c0		 test	 al, al

; 457  : 				iCurTarget = i;

  004b5	0f 45 f7	 cmovne	 esi, edi
  004b8	47		 inc	 edi
  004b9	83 c3 20	 add	 ebx, 32			; 00000020H
  004bc	3b bd 70 ff ff
	ff		 cmp	 edi, DWORD PTR _iCnt$550768[ebp]
  004c2	7c da		 jl	 SHORT $LN13@CheckTarge

; 458  : 		}
; 459  : 
; 460  : 		if( iCurTarget != -1 )

  004c4	83 fe ff	 cmp	 esi, -1
  004c7	74 5b		 je	 SHORT $LN9@CheckTarge

; 461  : 		{
; 462  : 			bool bTargetChange = false;
; 463  : 			if( m_bJumpKey )

  004c9	8b bd 6c ff ff
	ff		 mov	 edi, DWORD PTR _this$GSCopy$[ebp]
  004cf	32 db		 xor	 bl, bl
  004d1	38 9f dc 10 00
	00		 cmp	 BYTE PTR [edi+4316], bl
  004d7	74 0f		 je	 SHORT $LN8@CheckTarge

; 464  : 			{
; 465  : 				iCurTarget++;

  004d9	46		 inc	 esi

; 466  : 				bTargetChange = true;

  004da	fe c3		 inc	 bl

; 467  : 				if( iCurTarget >= iCnt )

  004dc	3b b5 70 ff ff
	ff		 cmp	 esi, DWORD PTR _iCnt$550768[ebp]
  004e2	7c 19		 jl	 SHORT $LN4@CheckTarge

; 468  : 					iCurTarget = 0;

  004e4	33 f6		 xor	 esi, esi

; 469  : 			}

  004e6	eb 15		 jmp	 SHORT $LN4@CheckTarge
$LN8@CheckTarge:

; 470  : 			else if( m_bDefenseKey )

  004e8	80 bf dd 10 00
	00 00		 cmp	 BYTE PTR [edi+4317], 0
  004ef	74 0c		 je	 SHORT $LN4@CheckTarge

; 471  : 			{
; 472  : 				bTargetChange = true;
; 473  : 				iCurTarget--;

  004f1	4e		 dec	 esi
  004f2	b3 01		 mov	 bl, 1

; 474  : 				if( iCurTarget < 0 )

  004f4	79 07		 jns	 SHORT $LN4@CheckTarge

; 475  : 					iCurTarget = iCnt-1;

  004f6	8b b5 70 ff ff
	ff		 mov	 esi, DWORD PTR _iCnt$550768[ebp]
  004fc	4e		 dec	 esi
$LN4@CheckTarge:

; 476  : 			}
; 477  : 
; 478  : 			m_szTargetName = vTargetInfoList[iCurTarget].m_Name;

  004fd	8b 8d 78 ff ff
	ff		 mov	 ecx, DWORD PTR tv982[ebp]
  00503	c1 e6 05	 shl	 esi, 5
  00506	03 b5 54 ff ff
	ff		 add	 esi, DWORD PTR _vTargetInfoList$[ebp]
  0050c	56		 push	 esi
  0050d	ff 15 00 00 00
	00		 call	 DWORD PTR __imp_??4ioHashString@@QAEAAV0@ABV0@@Z

; 479  : 
; 480  : 			if( bTargetChange )

  00513	84 db		 test	 bl, bl
  00515	74 1d		 je	 SHORT $LN1@CheckTarge

; 481  : 			{
; 482  : 				DestroyAimMark( pChar );

  00517	ff b5 68 ff ff
	ff		 push	 DWORD PTR _pChar$GSCopy$[ebp]
  0051d	8b cf		 mov	 ecx, edi

; 483  : 			}
; 484  : 		}
; 485  : 		else

  0051f	e9 46 ff ff ff	 jmp	 $LN192@CheckTarge
$LN9@CheckTarge:

; 486  : 			m_szTargetName.Clear();

  00524	8b 8d 78 ff ff
	ff		 mov	 ecx, DWORD PTR tv982[ebp]

; 487  : 	}
; 488  : 	else

  0052a	eb 02		 jmp	 SHORT $LN191@CheckTarge
$LN14@CheckTarge:

; 489  : 		m_szTargetName.Clear();

  0052c	8b ce		 mov	 ecx, esi
$LN191@CheckTarge:
  0052e	ff 15 00 00 00
	00		 call	 DWORD PTR __imp_?Clear@ioHashString@@QAEXXZ
$LN1@CheckTarge:

; 490  : 
; 491  : }

  00534	83 4d fc ff	 or	 DWORD PTR __$EHRec$[ebp+8], -1
  00538	8d 8d 54 ff ff
	ff		 lea	 ecx, DWORD PTR _vTargetInfoList$[ebp]
  0053e	e8 00 00 00 00	 call	 ?_Tidy@?$vector@UtagBaseCharDistanceSq@@V?$allocator@UtagBaseCharDistanceSq@@@std@@@std@@IAEXXZ ; std::vector<tagBaseCharDistanceSq,std::allocator<tagBaseCharDistanceSq> >::_Tidy
$LN170@CheckTarge:
  00543	e8 00 00 00 00	 call	 __EH_epilog3_GS
  00548	c2 08 00	 ret	 8
_TEXT	ENDS
;	COMDAT text$x
text$x	SEGMENT
__unwindfunclet$?CheckTarget@ioTargetBuffSkill@@IAEXPAVioBaseChar@@PAVioPlayStage@@@Z$0:
  00000	8d 8d 54 ff ff
	ff		 lea	 ecx, DWORD PTR _vTargetInfoList$[ebp]
  00006	e9 00 00 00 00	 jmp	 ??1?$vector@UtagBaseCharDistanceSq@@V?$allocator@UtagBaseCharDistanceSq@@@std@@@std@@QAE@XZ ; std::vector<tagBaseCharDistanceSq,std::allocator<tagBaseCharDistanceSq> >::~vector<tagBaseCharDistanceSq,std::allocator<tagBaseCharDistanceSq> >
__unwindfunclet$?CheckTarget@ioTargetBuffSkill@@IAEXPAVioBaseChar@@PAVioPlayStage@@@Z$2:
  0000b	8d 8d 7c ff ff
	ff		 lea	 ecx, DWORD PTR $T550612[ebp]
  00011	e9 00 00 00 00	 jmp	 ??1?$CEncrypt@M@@UAE@XZ	; CEncrypt<float>::~CEncrypt<float>
__unwindfunclet$?CheckTarget@ioTargetBuffSkill@@IAEXPAVioBaseChar@@PAVioPlayStage@@@Z$3:
  00016	8d 4d ac	 lea	 ecx, DWORD PTR _kInfo$550618[ebp]
  00019	e9 00 00 00 00	 jmp	 ??1tagBaseCharDistanceSq@@QAE@XZ
__ehhandler$?CheckTarget@ioTargetBuffSkill@@IAEXPAVioBaseChar@@PAVioPlayStage@@@Z:
  0001e	8b 54 24 08	 mov	 edx, DWORD PTR [esp+8]
  00022	8d 42 0c	 lea	 eax, DWORD PTR [edx+12]
  00025	8b 8a 34 ff ff
	ff		 mov	 ecx, DWORD PTR [edx-204]
  0002b	33 c8		 xor	 ecx, eax
  0002d	e8 00 00 00 00	 call	 @__security_check_cookie@4
  00032	8b 4a fc	 mov	 ecx, DWORD PTR [edx-4]
  00035	33 c8		 xor	 ecx, eax
  00037	e8 00 00 00 00	 call	 @__security_check_cookie@4
  0003c	b8 00 00 00 00	 mov	 eax, OFFSET __ehfuncinfo$?CheckTarget@ioTargetBuffSkill@@IAEXPAVioBaseChar@@PAVioPlayStage@@@Z
  00041	e9 00 00 00 00	 jmp	 ___CxxFrameHandler3
text$x	ENDS
?CheckTarget@ioTargetBuffSkill@@IAEXPAVioBaseChar@@PAVioPlayStage@@@Z ENDP ; ioTargetBuffSkill::CheckTarget
EXTRN	?IsAttackKey@ioBaseChar@@QBE_NXZ:PROC		; ioBaseChar::IsAttackKey
; Function compile flags: /Ogsp
;	COMDAT ?OnProcessState@ioTargetBuffSkill@@UAEXPAVioBaseChar@@PAVioPlayStage@@@Z
_TEXT	SEGMENT
_pChar$ = 8						; size = 4
_pStage$ = 12						; size = 4
?OnProcessState@ioTargetBuffSkill@@UAEXPAVioBaseChar@@PAVioPlayStage@@@Z PROC ; ioTargetBuffSkill::OnProcessState, COMDAT
; _this$ = ecx

; 125  : {

  00000	55		 push	 ebp
  00001	8b ec		 mov	 ebp, esp
  00003	53		 push	 ebx

; 126  : 	DWORD dwCurTime = FRAMEGETTIME();

  00004	8b 1d 00 00 00
	00		 mov	 ebx, DWORD PTR __imp_?GetSingleton@ioFrameTimer@@SAAAV1@XZ
  0000a	56		 push	 esi
  0000b	57		 push	 edi
  0000c	8b f1		 mov	 esi, ecx
  0000e	ff d3		 call	 ebx
  00010	8b c8		 mov	 ecx, eax
  00012	ff 15 00 00 00
	00		 call	 DWORD PTR __imp_?GetLoopSec@ioFrameTimer@@QBEKXZ
  00018	8b f8		 mov	 edi, eax

; 127  : 
; 128  : 	switch( m_SkillState )

  0001a	8b 86 08 10 00
	00		 mov	 eax, DWORD PTR [esi+4104]
  00020	83 e8 00	 sub	 eax, 0
  00023	0f 84 a2 00 00
	00		 je	 $LN9@OnProcessS
  00029	48		 dec	 eax
  0002a	74 3f		 je	 SHORT $LN7@OnProcessS
  0002c	48		 dec	 eax
  0002d	0f 85 d3 00 00
	00		 jne	 $LN8@OnProcessS

; 159  : 				}
; 160  : 			}
; 161  : 		}
; 162  : 		break;
; 163  : 	case SS_FIRE:
; 164  : 		{
; 165  : 			if( m_dwFireStartTime > 0 && m_dwFireStartTime < FRAMEGETTIME() )

  00033	39 86 e0 10 00
	00		 cmp	 DWORD PTR [esi+4320], eax
  00039	0f 86 c7 00 00
	00		 jbe	 $LN8@OnProcessS
  0003f	ff d3		 call	 ebx
  00041	8b c8		 mov	 ecx, eax
  00043	ff 15 00 00 00
	00		 call	 DWORD PTR __imp_?GetLoopSec@ioFrameTimer@@QBEKXZ
  00049	39 86 e0 10 00
	00		 cmp	 DWORD PTR [esi+4320], eax
  0004f	0f 83 b1 00 00
	00		 jae	 $LN8@OnProcessS

; 166  : 			{
; 167  : 				m_dwFireStartTime = 0;
; 168  : 
; 169  : 				SetOwnerBuff( pChar );

  00055	ff 75 08	 push	 DWORD PTR _pChar$[ebp]
  00058	83 a6 e0 10 00
	00 00		 and	 DWORD PTR [esi+4320], 0
  0005f	8b ce		 mov	 ecx, esi
  00061	e8 00 00 00 00	 call	 ?SetOwnerBuff@ioTargetBuffSkill@@IAEXPAVioBaseChar@@@Z ; ioTargetBuffSkill::SetOwnerBuff

; 170  : 			}
; 171  : 		}
; 172  : 		break;

  00066	e9 9b 00 00 00	 jmp	 $LN8@OnProcessS
$LN7@OnProcessS:

; 139  : 			}
; 140  : 		}
; 141  : 		break;
; 142  : 	case SS_LOOP:
; 143  : 		{
; 144  : 			if( pChar->IsNeedProcess() )

  0006b	8b 5d 08	 mov	 ebx, DWORD PTR _pChar$[ebp]
  0006e	8b 03		 mov	 eax, DWORD PTR [ebx]
  00070	8b cb		 mov	 ecx, ebx
  00072	ff 90 00 01 00
	00		 call	 DWORD PTR [eax+256]
  00078	84 c0		 test	 al, al
  0007a	0f 84 86 00 00
	00		 je	 $LN8@OnProcessS

; 145  : 			{
; 146  : 				CheckKeyInput( pChar );

  00080	53		 push	 ebx
  00081	8b ce		 mov	 ecx, esi
  00083	e8 00 00 00 00	 call	 ?CheckKeyInput@ioTargetBuffSkill@@IAEXPAVioBaseChar@@@Z ; ioTargetBuffSkill::CheckKeyInput

; 147  : 				CheckTarget( pChar, pStage );

  00088	ff 75 0c	 push	 DWORD PTR _pStage$[ebp]
  0008b	8b ce		 mov	 ecx, esi
  0008d	53		 push	 ebx
  0008e	e8 00 00 00 00	 call	 ?CheckTarget@ioTargetBuffSkill@@IAEXPAVioBaseChar@@PAVioPlayStage@@@Z ; ioTargetBuffSkill::CheckTarget

; 148  : 				UpdateAimMark( pChar, pStage );

  00093	ff 75 0c	 push	 DWORD PTR _pStage$[ebp]
  00096	8b ce		 mov	 ecx, esi
  00098	53		 push	 ebx
  00099	e8 00 00 00 00	 call	 ?UpdateAimMark@ioTargetBuffSkill@@IAEXPAVioBaseChar@@PAVioPlayStage@@@Z ; ioTargetBuffSkill::UpdateAimMark

; 149  : 
; 150  : 				if( m_dwLoopStartTime > 0 && m_dwLoopStartTime+m_dwLoopDuration < dwCurTime )

  0009e	8b 86 4c 10 00
	00		 mov	 eax, DWORD PTR [esi+4172]
  000a4	85 c0		 test	 eax, eax
  000a6	74 16		 je	 SHORT $LN5@OnProcessS
  000a8	8b 8e 50 10 00
	00		 mov	 ecx, DWORD PTR [esi+4176]
  000ae	03 c8		 add	 ecx, eax
  000b0	3b cf		 cmp	 ecx, edi
  000b2	73 0a		 jae	 SHORT $LN5@OnProcessS
$LN14@OnProcessS:

; 151  : 				{
; 152  : 					SetFireState( pChar );

  000b4	53		 push	 ebx
  000b5	8b ce		 mov	 ecx, esi
  000b7	e8 00 00 00 00	 call	 ?SetFireState@ioTargetBuffSkill@@IAEXPAVioBaseChar@@@Z ; ioTargetBuffSkill::SetFireState

; 153  : 					return;

  000bc	eb 48		 jmp	 SHORT $LN8@OnProcessS
$LN5@OnProcessS:

; 154  : 				}
; 155  : 				else if( pChar->IsAttackKey() )

  000be	8b cb		 mov	 ecx, ebx
  000c0	e8 00 00 00 00	 call	 ?IsAttackKey@ioBaseChar@@QBE_NXZ ; ioBaseChar::IsAttackKey
  000c5	84 c0		 test	 al, al
  000c7	74 3d		 je	 SHORT $LN8@OnProcessS

; 156  : 				{
; 157  : 					SetFireState( pChar );
; 158  : 					return;

  000c9	eb e9		 jmp	 SHORT $LN14@OnProcessS
$LN9@OnProcessS:

; 129  : 	{
; 130  : 	case SS_NONE:
; 131  : 		{
; 132  : 			DWORD dwPreDelay = GetPreDelayTime();

  000cb	8b 06		 mov	 eax, DWORD PTR [esi]
  000cd	8b ce		 mov	 ecx, esi
  000cf	ff 90 34 01 00
	00		 call	 DWORD PTR [eax+308]

; 133  : 			if( m_dwPreDelayStartTime != 0 && m_dwPreDelayStartTime + dwPreDelay < dwCurTime )

  000d5	8b 8e 20 02 00
	00		 mov	 ecx, DWORD PTR [esi+544]
  000db	85 c9		 test	 ecx, ecx
  000dd	74 27		 je	 SHORT $LN8@OnProcessS
  000df	03 c8		 add	 ecx, eax
  000e1	3b cf		 cmp	 ecx, edi
  000e3	73 21		 jae	 SHORT $LN8@OnProcessS

; 134  : 			{
; 135  : 				EndPreDelayEffect( pChar );

  000e5	ff 75 08	 push	 DWORD PTR _pChar$[ebp]
  000e8	8b 06		 mov	 eax, DWORD PTR [esi]
  000ea	8b ce		 mov	 ecx, esi
  000ec	ff 90 dc 00 00
	00		 call	 DWORD PTR [eax+220]

; 136  : 				SetLoopState( pChar, pStage );

  000f2	ff 75 0c	 push	 DWORD PTR _pStage$[ebp]
  000f5	8b ce		 mov	 ecx, esi
  000f7	ff 75 08	 push	 DWORD PTR _pChar$[ebp]
  000fa	e8 00 00 00 00	 call	 ?SetLoopState@ioTargetBuffSkill@@IAEXPAVioBaseChar@@PAVioPlayStage@@@Z ; ioTargetBuffSkill::SetLoopState

; 137  : 
; 138  : 				m_dwPreDelayStartTime = 0;

  000ff	83 a6 20 02 00
	00 00		 and	 DWORD PTR [esi+544], 0
$LN8@OnProcessS:
  00106	5f		 pop	 edi
  00107	5e		 pop	 esi
  00108	5b		 pop	 ebx

; 173  : 	}
; 174  : }

  00109	5d		 pop	 ebp
  0010a	c2 08 00	 ret	 8
?OnProcessState@ioTargetBuffSkill@@UAEXPAVioBaseChar@@PAVioPlayStage@@@Z ENDP ; ioTargetBuffSkill::OnProcessState
_TEXT	ENDS
END
