; Listing generated by Microsoft (R) Optimizing Compiler Version 16.00.30319.01 

	TITLE	D:\Lost Saga For Developer\Youtube\Tutorial\Source\src\LSClient\ioTargetTeleportSkill.cpp
	.686P
	.XMM
	include listing.inc
	.model	flat

INCLUDELIB MSVCRT
INCLUDELIB OLDNAMES

PUBLIC	?_EEM_DS@?$deque@UD3DXVECTOR3@@V?$allocator@UD3DXVECTOR3@@@std@@@std@@2HB ; std::deque<D3DXVECTOR3,std::allocator<D3DXVECTOR3> >::_EEM_DS
;	COMDAT ?_EEM_DS@?$deque@UD3DXVECTOR3@@V?$allocator@UD3DXVECTOR3@@@std@@@std@@2HB
CONST	SEGMENT
?_EEM_DS@?$deque@UD3DXVECTOR3@@V?$allocator@UD3DXVECTOR3@@@std@@@std@@2HB DD 01H ; std::deque<D3DXVECTOR3,std::allocator<D3DXVECTOR3> >::_EEM_DS
CONST	ENDS
PUBLIC	?GetBaseCharList@ioPlayStage@@QBEABV?$vector@PAVioBaseChar@@V?$allocator@PAVioBaseChar@@@std@@@std@@XZ ; ioPlayStage::GetBaseCharList
; Function compile flags: /Ogsp
; File d:\lost saga for developer\youtube\tutorial\source\src\lsclient\ioplaystage.h
;	COMDAT ?GetBaseCharList@ioPlayStage@@QBEABV?$vector@PAVioBaseChar@@V?$allocator@PAVioBaseChar@@@std@@@std@@XZ
_TEXT	SEGMENT
?GetBaseCharList@ioPlayStage@@QBEABV?$vector@PAVioBaseChar@@V?$allocator@PAVioBaseChar@@@std@@@std@@XZ PROC ; ioPlayStage::GetBaseCharList, COMDAT
; _this$ = ecx

; 755  : 	const BaseCharList& GetBaseCharList() const { return m_BaseCharList; }

  00000	8d 41 2c	 lea	 eax, DWORD PTR [ecx+44]
  00003	c3		 ret	 0
?GetBaseCharList@ioPlayStage@@QBEABV?$vector@PAVioBaseChar@@V?$allocator@PAVioBaseChar@@@std@@@std@@XZ ENDP ; ioPlayStage::GetBaseCharList
_TEXT	ENDS
PUBLIC	?GetPlayMode@ioPlayStage@@QBEPAVioPlayMode@@XZ	; ioPlayStage::GetPlayMode
; Function compile flags: /Ogsp
;	COMDAT ?GetPlayMode@ioPlayStage@@QBEPAVioPlayMode@@XZ
_TEXT	SEGMENT
?GetPlayMode@ioPlayStage@@QBEPAVioPlayMode@@XZ PROC	; ioPlayStage::GetPlayMode, COMDAT
; _this$ = ecx

; 780  : 	inline ioPlayMode* GetPlayMode() const { return m_pPlayMode; }

  00000	8b 81 10 01 00
	00		 mov	 eax, DWORD PTR [ecx+272]
  00006	c3		 ret	 0
?GetPlayMode@ioPlayStage@@QBEPAVioPlayMode@@XZ ENDP	; ioPlayStage::GetPlayMode
_TEXT	ENDS
PUBLIC	?return1@@YAIXZ					; return1
; Function compile flags: /Ogsp
; File d:\lost saga for developer\youtube\tutorial\source\src\lsclient\stdafx.h
;	COMDAT ?return1@@YAIXZ
_TEXT	SEGMENT
?return1@@YAIXZ PROC					; return1, COMDAT

; 17   : 	__forceinline unsigned int return1() { __asm mov eax, 1 };

  00000	b8 01 00 00 00	 mov	 eax, 1
  00005	c3		 ret	 0
?return1@@YAIXZ ENDP					; return1
_TEXT	ENDS
PUBLIC	?return100@@YAIXZ				; return100
; Function compile flags: /Ogsp
;	COMDAT ?return100@@YAIXZ
_TEXT	SEGMENT
?return100@@YAIXZ PROC					; return100, COMDAT

; 25   : 	__forceinline unsigned int return100() { __asm mov eax, 100 };

  00000	b8 64 00 00 00	 mov	 eax, 100		; 00000064H
  00005	c3		 ret	 0
?return100@@YAIXZ ENDP					; return100
_TEXT	ENDS
PUBLIC	?GetCharName@ioBaseChar@@QBEABVioHashString@@XZ	; ioBaseChar::GetCharName
; Function compile flags: /Ogsp
; File d:\lost saga for developer\youtube\tutorial\source\src\lsclient\iobasechar.h
;	COMDAT ?GetCharName@ioBaseChar@@QBEABVioHashString@@XZ
_TEXT	SEGMENT
?GetCharName@ioBaseChar@@QBEABVioHashString@@XZ PROC	; ioBaseChar::GetCharName, COMDAT
; _this$ = ecx

; 2594 : 	inline const ioHashString& GetCharName() const { return m_Name; }

  00000	8d 81 d4 02 00
	00		 lea	 eax, DWORD PTR [ecx+724]
  00006	c3		 ret	 0
?GetCharName@ioBaseChar@@QBEABVioHashString@@XZ ENDP	; ioBaseChar::GetCharName
_TEXT	ENDS
PUBLIC	?SetCurJumpPowerAmt@ioBaseChar@@QAEXM@Z		; ioBaseChar::SetCurJumpPowerAmt
EXTRN	__fltused:DWORD
; Function compile flags: /Ogsp
;	COMDAT ?SetCurJumpPowerAmt@ioBaseChar@@QAEXM@Z
_TEXT	SEGMENT
_fAmt$ = 8						; size = 4
?SetCurJumpPowerAmt@ioBaseChar@@QAEXM@Z PROC		; ioBaseChar::SetCurJumpPowerAmt, COMDAT
; _this$ = ecx

; 2628 : 	inline void SetCurJumpPowerAmt( float fAmt ) { m_fCurJumpPowerAmt = fAmt; }

  00000	55		 push	 ebp
  00001	8b ec		 mov	 ebp, esp
  00003	f3 0f 10 45 08	 movss	 xmm0, DWORD PTR _fAmt$[ebp]
  00008	f3 0f 11 81 90
	0e 00 00	 movss	 DWORD PTR [ecx+3728], xmm0
  00010	5d		 pop	 ebp
  00011	c2 04 00	 ret	 4
?SetCurJumpPowerAmt@ioBaseChar@@QAEXM@Z ENDP		; ioBaseChar::SetCurJumpPowerAmt
_TEXT	ENDS
PUBLIC	??_7bad_alloc@std@@6B@				; std::bad_alloc::`vftable'
PUBLIC	??0bad_alloc@std@@QAE@PBD@Z			; std::bad_alloc::bad_alloc
PUBLIC	??_R4bad_alloc@std@@6B@				; std::bad_alloc::`RTTI Complete Object Locator'
PUBLIC	??_R0?AVbad_alloc@std@@@8			; std::bad_alloc `RTTI Type Descriptor'
PUBLIC	??_R3bad_alloc@std@@8				; std::bad_alloc::`RTTI Class Hierarchy Descriptor'
PUBLIC	??_R2bad_alloc@std@@8				; std::bad_alloc::`RTTI Base Class Array'
PUBLIC	??_R1A@?0A@EA@bad_alloc@std@@8			; std::bad_alloc::`RTTI Base Class Descriptor at (0,-1,0,64)'
PUBLIC	??_R1A@?0A@EA@exception@std@@8			; std::exception::`RTTI Base Class Descriptor at (0,-1,0,64)'
PUBLIC	??_R0?AVexception@std@@@8			; std::exception `RTTI Type Descriptor'
PUBLIC	??_R3exception@std@@8				; std::exception::`RTTI Class Hierarchy Descriptor'
PUBLIC	??_R2exception@std@@8				; std::exception::`RTTI Base Class Array'
EXTRN	__imp_??0exception@std@@QAE@ABQBD@Z:PROC
EXTRN	??_7type_info@@6B@:QWORD			; type_info::`vftable'
EXTRN	??_Ebad_alloc@std@@UAEPAXI@Z:PROC		; std::bad_alloc::`vector deleting destructor'
EXTRN	?what@exception@std@@UBEPBDXZ:PROC		; std::exception::what
;	COMDAT ??_R2exception@std@@8
; File c:\program files (x86)\microsoft visual studio 10.0\vc\include\exception
rdata$r	SEGMENT
??_R2exception@std@@8 DD FLAT:??_R1A@?0A@EA@exception@std@@8 ; std::exception::`RTTI Base Class Array'
rdata$r	ENDS
;	COMDAT ??_R3exception@std@@8
rdata$r	SEGMENT
??_R3exception@std@@8 DD 00H				; std::exception::`RTTI Class Hierarchy Descriptor'
	DD	00H
	DD	01H
	DD	FLAT:??_R2exception@std@@8
rdata$r	ENDS
;	COMDAT ??_R0?AVexception@std@@@8
_DATA	SEGMENT
??_R0?AVexception@std@@@8 DD FLAT:??_7type_info@@6B@	; std::exception `RTTI Type Descriptor'
	DD	00H
	DB	'.?AVexception@std@@', 00H
_DATA	ENDS
;	COMDAT ??_R1A@?0A@EA@exception@std@@8
rdata$r	SEGMENT
??_R1A@?0A@EA@exception@std@@8 DD FLAT:??_R0?AVexception@std@@@8 ; std::exception::`RTTI Base Class Descriptor at (0,-1,0,64)'
	DD	00H
	DD	00H
	DD	0ffffffffH
	DD	00H
	DD	040H
	DD	FLAT:??_R3exception@std@@8
rdata$r	ENDS
;	COMDAT ??_R1A@?0A@EA@bad_alloc@std@@8
rdata$r	SEGMENT
??_R1A@?0A@EA@bad_alloc@std@@8 DD FLAT:??_R0?AVbad_alloc@std@@@8 ; std::bad_alloc::`RTTI Base Class Descriptor at (0,-1,0,64)'
	DD	01H
	DD	00H
	DD	0ffffffffH
	DD	00H
	DD	040H
	DD	FLAT:??_R3bad_alloc@std@@8
rdata$r	ENDS
;	COMDAT ??_R2bad_alloc@std@@8
rdata$r	SEGMENT
??_R2bad_alloc@std@@8 DD FLAT:??_R1A@?0A@EA@bad_alloc@std@@8 ; std::bad_alloc::`RTTI Base Class Array'
	DD	FLAT:??_R1A@?0A@EA@exception@std@@8
rdata$r	ENDS
;	COMDAT ??_R3bad_alloc@std@@8
rdata$r	SEGMENT
??_R3bad_alloc@std@@8 DD 00H				; std::bad_alloc::`RTTI Class Hierarchy Descriptor'
	DD	00H
	DD	02H
	DD	FLAT:??_R2bad_alloc@std@@8
rdata$r	ENDS
;	COMDAT ??_R0?AVbad_alloc@std@@@8
_DATA	SEGMENT
??_R0?AVbad_alloc@std@@@8 DD FLAT:??_7type_info@@6B@	; std::bad_alloc `RTTI Type Descriptor'
	DD	00H
	DB	'.?AVbad_alloc@std@@', 00H
_DATA	ENDS
;	COMDAT ??_R4bad_alloc@std@@6B@
rdata$r	SEGMENT
??_R4bad_alloc@std@@6B@ DD 00H				; std::bad_alloc::`RTTI Complete Object Locator'
	DD	00H
	DD	00H
	DD	FLAT:??_R0?AVbad_alloc@std@@@8
	DD	FLAT:??_R3bad_alloc@std@@8
rdata$r	ENDS
;	COMDAT ??_7bad_alloc@std@@6B@
CONST	SEGMENT
??_7bad_alloc@std@@6B@ DD FLAT:??_R4bad_alloc@std@@6B@	; std::bad_alloc::`vftable'
	DD	FLAT:??_Ebad_alloc@std@@UAEPAXI@Z
	DD	FLAT:?what@exception@std@@UBEPBDXZ
; Function compile flags: /Ogsp
CONST	ENDS
;	COMDAT ??0bad_alloc@std@@QAE@PBD@Z
_TEXT	SEGMENT
__Message$ = 8						; size = 4
??0bad_alloc@std@@QAE@PBD@Z PROC			; std::bad_alloc::bad_alloc, COMDAT
; _this$ = ecx

; 345  : 		{	// construct from message string

  00000	55		 push	 ebp
  00001	8b ec		 mov	 ebp, esp
  00003	56		 push	 esi
  00004	8d 45 08	 lea	 eax, DWORD PTR __Message$[ebp]
  00007	50		 push	 eax
  00008	8b f1		 mov	 esi, ecx
  0000a	ff 15 00 00 00
	00		 call	 DWORD PTR __imp_??0exception@std@@QAE@ABQBD@Z
  00010	c7 06 00 00 00
	00		 mov	 DWORD PTR [esi], OFFSET ??_7bad_alloc@std@@6B@

; 346  : 		}

  00016	8b c6		 mov	 eax, esi
  00018	5e		 pop	 esi
  00019	5d		 pop	 ebp
  0001a	c2 04 00	 ret	 4
??0bad_alloc@std@@QAE@PBD@Z ENDP			; std::bad_alloc::bad_alloc
_TEXT	ENDS
PUBLIC	??1bad_alloc@std@@UAE@XZ			; std::bad_alloc::~bad_alloc
EXTRN	__imp_??1exception@std@@UAE@XZ:PROC
; Function compile flags: /Ogsp
;	COMDAT ??1bad_alloc@std@@UAE@XZ
_TEXT	SEGMENT
??1bad_alloc@std@@UAE@XZ PROC				; std::bad_alloc::~bad_alloc, COMDAT
; _this$ = ecx

; 354  : 		{	// destroy the object

  00000	c7 01 00 00 00
	00		 mov	 DWORD PTR [ecx], OFFSET ??_7bad_alloc@std@@6B@

; 355  : 		}

  00006	ff 25 00 00 00
	00		 jmp	 DWORD PTR __imp_??1exception@std@@UAE@XZ
??1bad_alloc@std@@UAE@XZ ENDP				; std::bad_alloc::~bad_alloc
_TEXT	ENDS
EXTRN	??3@YAXPAX@Z:PROC				; operator delete
; Function compile flags: /Ogsp
;	COMDAT ??_Gbad_alloc@std@@UAEPAXI@Z
_TEXT	SEGMENT
___flags$ = 8						; size = 4
??_Gbad_alloc@std@@UAEPAXI@Z PROC			; std::bad_alloc::`scalar deleting destructor', COMDAT
; _this$ = ecx
  00000	55		 push	 ebp
  00001	8b ec		 mov	 ebp, esp
  00003	56		 push	 esi
  00004	8b f1		 mov	 esi, ecx
  00006	c7 06 00 00 00
	00		 mov	 DWORD PTR [esi], OFFSET ??_7bad_alloc@std@@6B@
  0000c	ff 15 00 00 00
	00		 call	 DWORD PTR __imp_??1exception@std@@UAE@XZ
  00012	f6 45 08 01	 test	 BYTE PTR ___flags$[ebp], 1
  00016	74 07		 je	 SHORT $LN1@scalar
  00018	56		 push	 esi
  00019	e8 00 00 00 00	 call	 ??3@YAXPAX@Z		; operator delete
  0001e	59		 pop	 ecx
$LN1@scalar:
  0001f	8b c6		 mov	 eax, esi
  00021	5e		 pop	 esi
  00022	5d		 pop	 ebp
  00023	c2 04 00	 ret	 4
??_Gbad_alloc@std@@UAEPAXI@Z ENDP			; std::bad_alloc::`scalar deleting destructor'
_TEXT	ENDS
PUBLIC	??2@YAPAXIPAX@Z					; operator new
; Function compile flags: /Ogsp
; File c:\program files (x86)\microsoft visual studio 10.0\vc\include\new
;	COMDAT ??2@YAPAXIPAX@Z
_TEXT	SEGMENT
___formal$ = 8						; size = 4
__Where$ = 12						; size = 4
??2@YAPAXIPAX@Z PROC					; operator new, COMDAT

; 56   : 	{	// construct array with placement at _Where

  00000	55		 push	 ebp
  00001	8b ec		 mov	 ebp, esp

; 57   : 	return (_Where);

  00003	8b 45 0c	 mov	 eax, DWORD PTR __Where$[ebp]

; 58   : 	}

  00006	5d		 pop	 ebp
  00007	c3		 ret	 0
??2@YAPAXIPAX@Z ENDP					; operator new
_TEXT	ENDS
PUBLIC	??3@YAXPAX0@Z					; operator delete
; Function compile flags: /Ogsp
;	COMDAT ??3@YAXPAX0@Z
_TEXT	SEGMENT
___formal$ = 8						; size = 4
___formal$ = 12						; size = 4
??3@YAXPAX0@Z PROC					; operator delete, COMDAT

; 62   : 	}

  00000	c3		 ret	 0
??3@YAXPAX0@Z ENDP					; operator delete
_TEXT	ENDS
PUBLIC	?StartPreDelayAnimation@ioTargetTeleportSkill@@MAE_NPAVioBaseChar@@@Z ; ioTargetTeleportSkill::StartPreDelayAnimation
EXTRN	?StartPreDelayAnimation@ioNormalSkill@@MAE_NPAVioBaseChar@@@Z:PROC ; ioNormalSkill::StartPreDelayAnimation
; Function compile flags: /Ogsp
; File d:\lost saga for developer\youtube\tutorial\source\src\lsclient\iotargetteleportskill.cpp
;	COMDAT ?StartPreDelayAnimation@ioTargetTeleportSkill@@MAE_NPAVioBaseChar@@@Z
_TEXT	SEGMENT
_pChar$ = 8						; size = 4
?StartPreDelayAnimation@ioTargetTeleportSkill@@MAE_NPAVioBaseChar@@@Z PROC ; ioTargetTeleportSkill::StartPreDelayAnimation, COMDAT
; _this$ = ecx

; 200  : {

  00000	55		 push	 ebp
  00001	8b ec		 mov	 ebp, esp

; 201  : 	if( !ioNormalSkill::StartPreDelayAnimation( pChar ) )

  00003	ff 75 08	 push	 DWORD PTR _pChar$[ebp]
  00006	e8 00 00 00 00	 call	 ?StartPreDelayAnimation@ioNormalSkill@@MAE_NPAVioBaseChar@@@Z ; ioNormalSkill::StartPreDelayAnimation
  0000b	84 c0		 test	 al, al
  0000d	0f 95 c0	 setne	 al

; 202  : 		return false;
; 203  : 
; 204  : 	return true;
; 205  : }

  00010	5d		 pop	 ebp
  00011	c2 04 00	 ret	 4
?StartPreDelayAnimation@ioTargetTeleportSkill@@MAE_NPAVioBaseChar@@@Z ENDP ; ioTargetTeleportSkill::StartPreDelayAnimation
_TEXT	ENDS
PUBLIC	?_Adopt@_Iterator_base0@std@@QAEXPBX@Z		; std::_Iterator_base0::_Adopt
; Function compile flags: /Ogsp
; File c:\program files (x86)\microsoft visual studio 10.0\vc\include\xutility
;	COMDAT ?_Adopt@_Iterator_base0@std@@QAEXPBX@Z
_TEXT	SEGMENT
___formal$ = 8						; size = 4
?_Adopt@_Iterator_base0@std@@QAEXPBX@Z PROC		; std::_Iterator_base0::_Adopt, COMDAT
; _this$ = ecx

; 49   : 		}

  00000	c2 04 00	 ret	 4
?_Adopt@_Iterator_base0@std@@QAEXPBX@Z ENDP		; std::_Iterator_base0::_Adopt
_TEXT	ENDS
PUBLIC	?IsAttackEndState@ioTargetTeleportSkill@@UBE_NXZ ; ioTargetTeleportSkill::IsAttackEndState
EXTRN	__imp_?GetLoopSec@ioFrameTimer@@QBEKXZ:PROC
EXTRN	__imp_?GetSingleton@ioFrameTimer@@SAAAV1@XZ:PROC
; Function compile flags: /Ogsp
; File d:\lost saga for developer\youtube\tutorial\source\src\lsclient\iotargetteleportskill.cpp
;	COMDAT ?IsAttackEndState@ioTargetTeleportSkill@@UBE_NXZ
_TEXT	SEGMENT
?IsAttackEndState@ioTargetTeleportSkill@@UBE_NXZ PROC	; ioTargetTeleportSkill::IsAttackEndState, COMDAT
; _this$ = ecx

; 287  : 	if( m_SkillState == SS_END && m_dwAttackEndTime > 0 && m_dwAttackEndTime < FRAMEGETTIME() )

  00000	83 b9 58 0f 00
	00 03		 cmp	 DWORD PTR [ecx+3928], 3
  00007	56		 push	 esi
  00008	75 21		 jne	 SHORT $LN1@IsAttackEn
  0000a	8d b1 bc 0f 00
	00		 lea	 esi, DWORD PTR [ecx+4028]
  00010	83 3e 00	 cmp	 DWORD PTR [esi], 0
  00013	76 16		 jbe	 SHORT $LN1@IsAttackEn
  00015	ff 15 00 00 00
	00		 call	 DWORD PTR __imp_?GetSingleton@ioFrameTimer@@SAAAV1@XZ
  0001b	8b c8		 mov	 ecx, eax
  0001d	ff 15 00 00 00
	00		 call	 DWORD PTR __imp_?GetLoopSec@ioFrameTimer@@QBEKXZ
  00023	39 06		 cmp	 DWORD PTR [esi], eax
  00025	73 04		 jae	 SHORT $LN1@IsAttackEn

; 288  : 		return true;

  00027	b0 01		 mov	 al, 1
  00029	5e		 pop	 esi

; 291  : }

  0002a	c3		 ret	 0
$LN1@IsAttackEn:

; 289  : 
; 290  : 	return false;

  0002b	32 c0		 xor	 al, al
  0002d	5e		 pop	 esi

; 291  : }

  0002e	c3		 ret	 0
?IsAttackEndState@ioTargetTeleportSkill@@UBE_NXZ ENDP	; ioTargetTeleportSkill::IsAttackEndState
_TEXT	ENDS
PUBLIC	?IsSkillMotionEnd@ioTargetTeleportSkill@@UBE_NKPAVioBaseChar@@@Z ; ioTargetTeleportSkill::IsSkillMotionEnd
; Function compile flags: /Ogsp
;	COMDAT ?IsSkillMotionEnd@ioTargetTeleportSkill@@UBE_NKPAVioBaseChar@@@Z
_TEXT	SEGMENT
_dwActionStop$ = 8					; size = 4
_pOwner$ = 12						; size = 4
?IsSkillMotionEnd@ioTargetTeleportSkill@@UBE_NKPAVioBaseChar@@@Z PROC ; ioTargetTeleportSkill::IsSkillMotionEnd, COMDAT
; _this$ = ecx

; 358  : {

  00000	55		 push	 ebp
  00001	8b ec		 mov	 ebp, esp
  00003	56		 push	 esi
  00004	8b f1		 mov	 esi, ecx

; 359  : 	if( m_SkillState == SS_END && m_dwMotionEndTime + dwActionStop < FRAMEGETTIME() )

  00006	83 be 58 0f 00
	00 03		 cmp	 DWORD PTR [esi+3928], 3
  0000d	75 1f		 jne	 SHORT $LN1@IsSkillMot
  0000f	ff 15 00 00 00
	00		 call	 DWORD PTR __imp_?GetSingleton@ioFrameTimer@@SAAAV1@XZ
  00015	8b c8		 mov	 ecx, eax
  00017	ff 15 00 00 00
	00		 call	 DWORD PTR __imp_?GetLoopSec@ioFrameTimer@@QBEKXZ
  0001d	8b 8e d8 02 00
	00		 mov	 ecx, DWORD PTR [esi+728]
  00023	03 4d 08	 add	 ecx, DWORD PTR _dwActionStop$[ebp]
  00026	3b c8		 cmp	 ecx, eax
  00028	73 04		 jae	 SHORT $LN1@IsSkillMot

; 360  : 		return true;

  0002a	b0 01		 mov	 al, 1
  0002c	eb 02		 jmp	 SHORT $LN2@IsSkillMot
$LN1@IsSkillMot:

; 361  : 	
; 362  : 	return false;

  0002e	32 c0		 xor	 al, al
$LN2@IsSkillMot:
  00030	5e		 pop	 esi

; 363  : }

  00031	5d		 pop	 ebp
  00032	c2 08 00	 ret	 8
?IsSkillMotionEnd@ioTargetTeleportSkill@@UBE_NKPAVioBaseChar@@@Z ENDP ; ioTargetTeleportSkill::IsSkillMotionEnd
_TEXT	ENDS
PUBLIC	??1tagBaseCharDistanceSq@@QAE@XZ		; tagBaseCharDistanceSq::~tagBaseCharDistanceSq
EXTRN	__imp_??1ioHashString@@QAE@XZ:PROC
; Function compile flags: /Ogsp
;	COMDAT ??1tagBaseCharDistanceSq@@QAE@XZ
_TEXT	SEGMENT
??1tagBaseCharDistanceSq@@QAE@XZ PROC			; tagBaseCharDistanceSq::~tagBaseCharDistanceSq, COMDAT
; _this$ = ecx
  00000	ff 25 00 00 00
	00		 jmp	 DWORD PTR __imp_??1ioHashString@@QAE@XZ
??1tagBaseCharDistanceSq@@QAE@XZ ENDP			; tagBaseCharDistanceSq::~tagBaseCharDistanceSq
_TEXT	ENDS
PUBLIC	?IsViewPositionState@ioTargetTeleportSkill@@QAE_NXZ ; ioTargetTeleportSkill::IsViewPositionState
; Function compile flags: /Ogsp
;	COMDAT ?IsViewPositionState@ioTargetTeleportSkill@@QAE_NXZ
_TEXT	SEGMENT
?IsViewPositionState@ioTargetTeleportSkill@@QAE_NXZ PROC ; ioTargetTeleportSkill::IsViewPositionState, COMDAT
; _this$ = ecx

; 511  : 	switch( m_SkillState )

  00000	8b 81 58 0f 00
	00		 mov	 eax, DWORD PTR [ecx+3928]
  00006	48		 dec	 eax
  00007	6a 02		 push	 2
  00009	59		 pop	 ecx
  0000a	3b c8		 cmp	 ecx, eax
  0000c	1a c0		 sbb	 al, al
  0000e	fe c0		 inc	 al

; 512  : 	{
; 513  : 	case SS_WAIT:
; 514  : 	case SS_TELEPORT:
; 515  : 	case SS_END:
; 516  : 		return true;
; 517  : 	}
; 518  : 
; 519  : 	return false;
; 520  : }

  00010	c3		 ret	 0
?IsViewPositionState@ioTargetTeleportSkill@@QAE_NXZ ENDP ; ioTargetTeleportSkill::IsViewPositionState
_TEXT	ENDS
PUBLIC	?GetViewPosition@ioTargetTeleportSkill@@QAEABUD3DXVECTOR3@@XZ ; ioTargetTeleportSkill::GetViewPosition
; Function compile flags: /Ogsp
;	COMDAT ?GetViewPosition@ioTargetTeleportSkill@@QAEABUD3DXVECTOR3@@XZ
_TEXT	SEGMENT
?GetViewPosition@ioTargetTeleportSkill@@QAEABUD3DXVECTOR3@@XZ PROC ; ioTargetTeleportSkill::GetViewPosition, COMDAT
; _this$ = ecx

; 524  : 	return m_vTargetPos;

  00000	8d 81 e0 0f 00
	00		 lea	 eax, DWORD PTR [ecx+4064]

; 525  : }

  00006	c3		 ret	 0
?GetViewPosition@ioTargetTeleportSkill@@QAEABUD3DXVECTOR3@@XZ ENDP ; ioTargetTeleportSkill::GetViewPosition
_TEXT	ENDS
PUBLIC	?DestroyTargetMapEffect@ioTargetTeleportSkill@@IAEXPAVioBaseChar@@@Z ; ioTargetTeleportSkill::DestroyTargetMapEffect
EXTRN	?DestroyMapEffect@ioBaseChar@@QAEXK@Z:PROC	; ioBaseChar::DestroyMapEffect
; Function compile flags: /Ogsp
;	COMDAT ?DestroyTargetMapEffect@ioTargetTeleportSkill@@IAEXPAVioBaseChar@@@Z
_TEXT	SEGMENT
_pChar$ = 8						; size = 4
?DestroyTargetMapEffect@ioTargetTeleportSkill@@IAEXPAVioBaseChar@@@Z PROC ; ioTargetTeleportSkill::DestroyTargetMapEffect, COMDAT
; _this$ = ecx

; 556  : {

  00000	55		 push	 ebp
  00001	8b ec		 mov	 ebp, esp

; 557  : 	if( pChar && m_dwTargetMapEffect != 0 )

  00003	83 7d 08 00	 cmp	 DWORD PTR _pChar$[ebp], 0
  00007	74 1a		 je	 SHORT $LN1@DestroyTar
  00009	56		 push	 esi
  0000a	8d b1 8c 10 00
	00		 lea	 esi, DWORD PTR [ecx+4236]
  00010	8b 06		 mov	 eax, DWORD PTR [esi]
  00012	85 c0		 test	 eax, eax
  00014	74 0c		 je	 SHORT $LN4@DestroyTar

; 558  : 	{
; 559  : 		pChar->DestroyMapEffect( m_dwTargetMapEffect );

  00016	8b 4d 08	 mov	 ecx, DWORD PTR _pChar$[ebp]
  00019	50		 push	 eax
  0001a	e8 00 00 00 00	 call	 ?DestroyMapEffect@ioBaseChar@@QAEXK@Z ; ioBaseChar::DestroyMapEffect

; 560  : 		m_dwTargetMapEffect = 0;

  0001f	83 26 00	 and	 DWORD PTR [esi], 0
$LN4@DestroyTar:
  00022	5e		 pop	 esi
$LN1@DestroyTar:

; 561  : 	}
; 562  : }

  00023	5d		 pop	 ebp
  00024	c2 04 00	 ret	 4
?DestroyTargetMapEffect@ioTargetTeleportSkill@@IAEXPAVioBaseChar@@@Z ENDP ; ioTargetTeleportSkill::DestroyTargetMapEffect
_TEXT	ENDS
PUBLIC	?empty@?$vector@VioHashString@@V?$allocator@VioHashString@@@std@@@std@@QBE_NXZ ; std::vector<ioHashString,std::allocator<ioHashString> >::empty
; Function compile flags: /Ogsp
; File c:\program files (x86)\microsoft visual studio 10.0\vc\include\vector
;	COMDAT ?empty@?$vector@VioHashString@@V?$allocator@VioHashString@@@std@@@std@@QBE_NXZ
_TEXT	SEGMENT
?empty@?$vector@VioHashString@@V?$allocator@VioHashString@@@std@@@std@@QBE_NXZ PROC ; std::vector<ioHashString,std::allocator<ioHashString> >::empty, COMDAT
; _this$ = ecx

; 889  : 		return (this->_Myfirst == this->_Mylast);

  00000	8b 01		 mov	 eax, DWORD PTR [ecx]
  00002	2b 41 04	 sub	 eax, DWORD PTR [ecx+4]
  00005	f7 d8		 neg	 eax
  00007	1b c0		 sbb	 eax, eax
  00009	40		 inc	 eax

; 890  : 		}

  0000a	c3		 ret	 0
?empty@?$vector@VioHashString@@V?$allocator@VioHashString@@@std@@@std@@QBE_NXZ ENDP ; std::vector<ioHashString,std::allocator<ioHashString> >::empty
_TEXT	ENDS
PUBLIC	??A?$vector@VioHashString@@V?$allocator@VioHashString@@@std@@@std@@QAEAAVioHashString@@I@Z ; std::vector<ioHashString,std::allocator<ioHashString> >::operator[]
; Function compile flags: /Ogsp
;	COMDAT ??A?$vector@VioHashString@@V?$allocator@VioHashString@@@std@@@std@@QAEAAVioHashString@@I@Z
_TEXT	SEGMENT
__Pos$ = 8						; size = 4
??A?$vector@VioHashString@@V?$allocator@VioHashString@@@std@@@std@@QAEAAVioHashString@@I@Z PROC ; std::vector<ioHashString,std::allocator<ioHashString> >::operator[], COMDAT
; _this$ = ecx

; 928  : 		{	// subscript mutable sequence

  00000	55		 push	 ebp
  00001	8b ec		 mov	 ebp, esp

; 929  :  #if _ITERATOR_DEBUG_LEVEL == 2
; 930  : 		if (size() <= _Pos)
; 931  : 			{	// report error
; 932  : 			_DEBUG_ERROR("vector subscript out of range");
; 933  : 			_SCL_SECURE_OUT_OF_RANGE;
; 934  : 			}
; 935  : 
; 936  :  #elif _ITERATOR_DEBUG_LEVEL == 1
; 937  : 		_SCL_SECURE_VALIDATE_RANGE(_Pos < size());
; 938  :  #endif /* _ITERATOR_DEBUG_LEVEL */
; 939  : 
; 940  : 		return (*(this->_Myfirst + _Pos));

  00003	8b 45 08	 mov	 eax, DWORD PTR __Pos$[ebp]
  00006	c1 e0 04	 shl	 eax, 4
  00009	03 01		 add	 eax, DWORD PTR [ecx]

; 941  : 		}

  0000b	5d		 pop	 ebp
  0000c	c2 04 00	 ret	 4
??A?$vector@VioHashString@@V?$allocator@VioHashString@@@std@@@std@@QAEAAVioHashString@@I@Z ENDP ; std::vector<ioHashString,std::allocator<ioHashString> >::operator[]
_TEXT	ENDS
PUBLIC	?size@?$vector@UtagBaseCharDistanceSq@@V?$allocator@UtagBaseCharDistanceSq@@@std@@@std@@QBEIXZ ; std::vector<tagBaseCharDistanceSq,std::allocator<tagBaseCharDistanceSq> >::size
; Function compile flags: /Ogsp
;	COMDAT ?size@?$vector@UtagBaseCharDistanceSq@@V?$allocator@UtagBaseCharDistanceSq@@@std@@@std@@QBEIXZ
_TEXT	SEGMENT
?size@?$vector@UtagBaseCharDistanceSq@@V?$allocator@UtagBaseCharDistanceSq@@@std@@@std@@QBEIXZ PROC ; std::vector<tagBaseCharDistanceSq,std::allocator<tagBaseCharDistanceSq> >::size, COMDAT
; _this$ = ecx

; 879  : 		return (this->_Mylast - this->_Myfirst);

  00000	8b 41 04	 mov	 eax, DWORD PTR [ecx+4]
  00003	2b 01		 sub	 eax, DWORD PTR [ecx]
  00005	c1 f8 05	 sar	 eax, 5

; 880  : 		}

  00008	c3		 ret	 0
?size@?$vector@UtagBaseCharDistanceSq@@V?$allocator@UtagBaseCharDistanceSq@@@std@@@std@@QBEIXZ ENDP ; std::vector<tagBaseCharDistanceSq,std::allocator<tagBaseCharDistanceSq> >::size
_TEXT	ENDS
PUBLIC	?empty@?$vector@UtagBaseCharDistanceSq@@V?$allocator@UtagBaseCharDistanceSq@@@std@@@std@@QBE_NXZ ; std::vector<tagBaseCharDistanceSq,std::allocator<tagBaseCharDistanceSq> >::empty
; Function compile flags: /Ogsp
;	COMDAT ?empty@?$vector@UtagBaseCharDistanceSq@@V?$allocator@UtagBaseCharDistanceSq@@@std@@@std@@QBE_NXZ
_TEXT	SEGMENT
?empty@?$vector@UtagBaseCharDistanceSq@@V?$allocator@UtagBaseCharDistanceSq@@@std@@@std@@QBE_NXZ PROC ; std::vector<tagBaseCharDistanceSq,std::allocator<tagBaseCharDistanceSq> >::empty, COMDAT
; _this$ = ecx

; 889  : 		return (this->_Myfirst == this->_Mylast);

  00000	8b 01		 mov	 eax, DWORD PTR [ecx]
  00002	2b 41 04	 sub	 eax, DWORD PTR [ecx+4]
  00005	f7 d8		 neg	 eax
  00007	1b c0		 sbb	 eax, eax
  00009	40		 inc	 eax

; 890  : 		}

  0000a	c3		 ret	 0
?empty@?$vector@UtagBaseCharDistanceSq@@V?$allocator@UtagBaseCharDistanceSq@@@std@@@std@@QBE_NXZ ENDP ; std::vector<tagBaseCharDistanceSq,std::allocator<tagBaseCharDistanceSq> >::empty
_TEXT	ENDS
PUBLIC	??A?$vector@UtagBaseCharDistanceSq@@V?$allocator@UtagBaseCharDistanceSq@@@std@@@std@@QAEAAUtagBaseCharDistanceSq@@I@Z ; std::vector<tagBaseCharDistanceSq,std::allocator<tagBaseCharDistanceSq> >::operator[]
; Function compile flags: /Ogsp
;	COMDAT ??A?$vector@UtagBaseCharDistanceSq@@V?$allocator@UtagBaseCharDistanceSq@@@std@@@std@@QAEAAUtagBaseCharDistanceSq@@I@Z
_TEXT	SEGMENT
__Pos$ = 8						; size = 4
??A?$vector@UtagBaseCharDistanceSq@@V?$allocator@UtagBaseCharDistanceSq@@@std@@@std@@QAEAAUtagBaseCharDistanceSq@@I@Z PROC ; std::vector<tagBaseCharDistanceSq,std::allocator<tagBaseCharDistanceSq> >::operator[], COMDAT
; _this$ = ecx

; 928  : 		{	// subscript mutable sequence

  00000	55		 push	 ebp
  00001	8b ec		 mov	 ebp, esp

; 929  :  #if _ITERATOR_DEBUG_LEVEL == 2
; 930  : 		if (size() <= _Pos)
; 931  : 			{	// report error
; 932  : 			_DEBUG_ERROR("vector subscript out of range");
; 933  : 			_SCL_SECURE_OUT_OF_RANGE;
; 934  : 			}
; 935  : 
; 936  :  #elif _ITERATOR_DEBUG_LEVEL == 1
; 937  : 		_SCL_SECURE_VALIDATE_RANGE(_Pos < size());
; 938  :  #endif /* _ITERATOR_DEBUG_LEVEL */
; 939  : 
; 940  : 		return (*(this->_Myfirst + _Pos));

  00003	8b 45 08	 mov	 eax, DWORD PTR __Pos$[ebp]
  00006	c1 e0 05	 shl	 eax, 5
  00009	03 01		 add	 eax, DWORD PTR [ecx]

; 941  : 		}

  0000b	5d		 pop	 ebp
  0000c	c2 04 00	 ret	 4
??A?$vector@UtagBaseCharDistanceSq@@V?$allocator@UtagBaseCharDistanceSq@@@std@@@std@@QAEAAUtagBaseCharDistanceSq@@I@Z ENDP ; std::vector<tagBaseCharDistanceSq,std::allocator<tagBaseCharDistanceSq> >::operator[]
_TEXT	ENDS
PUBLIC	??0?$_Vector_const_iterator@V?$_Vector_val@PAVioBaseChar@@V?$allocator@PAVioBaseChar@@@std@@@std@@@std@@QAE@XZ ; std::_Vector_const_iterator<std::_Vector_val<ioBaseChar *,std::allocator<ioBaseChar *> > >::_Vector_const_iterator<std::_Vector_val<ioBaseChar *,std::allocator<ioBaseChar *> > >
; Function compile flags: /Ogsp
;	COMDAT ??0?$_Vector_const_iterator@V?$_Vector_val@PAVioBaseChar@@V?$allocator@PAVioBaseChar@@@std@@@std@@@std@@QAE@XZ
_TEXT	SEGMENT
??0?$_Vector_const_iterator@V?$_Vector_val@PAVioBaseChar@@V?$allocator@PAVioBaseChar@@@std@@@std@@@std@@QAE@XZ PROC ; std::_Vector_const_iterator<std::_Vector_val<ioBaseChar *,std::allocator<ioBaseChar *> > >::_Vector_const_iterator<std::_Vector_val<ioBaseChar *,std::allocator<ioBaseChar *> > >, COMDAT
; _this$ = ecx

; 40   : 		{	// construct with null pointer

  00000	8b c1		 mov	 eax, ecx
  00002	83 20 00	 and	 DWORD PTR [eax], 0

; 41   : 		}

  00005	c3		 ret	 0
??0?$_Vector_const_iterator@V?$_Vector_val@PAVioBaseChar@@V?$allocator@PAVioBaseChar@@@std@@@std@@@std@@QAE@XZ ENDP ; std::_Vector_const_iterator<std::_Vector_val<ioBaseChar *,std::allocator<ioBaseChar *> > >::_Vector_const_iterator<std::_Vector_val<ioBaseChar *,std::allocator<ioBaseChar *> > >
_TEXT	ENDS
PUBLIC	??D?$_Vector_const_iterator@V?$_Vector_val@PAVioBaseChar@@V?$allocator@PAVioBaseChar@@@std@@@std@@@std@@QBEABQAVioBaseChar@@XZ ; std::_Vector_const_iterator<std::_Vector_val<ioBaseChar *,std::allocator<ioBaseChar *> > >::operator*
; Function compile flags: /Ogsp
;	COMDAT ??D?$_Vector_const_iterator@V?$_Vector_val@PAVioBaseChar@@V?$allocator@PAVioBaseChar@@@std@@@std@@@std@@QBEABQAVioBaseChar@@XZ
_TEXT	SEGMENT
??D?$_Vector_const_iterator@V?$_Vector_val@PAVioBaseChar@@V?$allocator@PAVioBaseChar@@@std@@@std@@@std@@QBEABQAVioBaseChar@@XZ PROC ; std::_Vector_const_iterator<std::_Vector_val<ioBaseChar *,std::allocator<ioBaseChar *> > >::operator*, COMDAT
; _this$ = ecx

; 64   :  #if _ITERATOR_DEBUG_LEVEL == 2
; 65   : 		if (this->_Getcont() == 0
; 66   : 			|| this->_Ptr == 0
; 67   : 			|| this->_Ptr < ((_Myvec *)this->_Getcont())->_Myfirst
; 68   : 			|| ((_Myvec *)this->_Getcont())->_Mylast <= this->_Ptr)
; 69   : 			{	// report error
; 70   : 			_DEBUG_ERROR("vector iterator not dereferencable");
; 71   : 			_SCL_SECURE_OUT_OF_RANGE;
; 72   : 			}
; 73   : 
; 74   :  #elif _ITERATOR_DEBUG_LEVEL == 1
; 75   : 		_SCL_SECURE_VALIDATE(this->_Getcont() != 0);
; 76   : 		_SCL_SECURE_VALIDATE_RANGE(
; 77   : 			this->_Ptr != 0
; 78   : 			&& ((_Myvec *)this->_Getcont())->_Myfirst <= this->_Ptr
; 79   : 			&& this->_Ptr < ((_Myvec *)this->_Getcont())->_Mylast);
; 80   :  #endif /* _ITERATOR_DEBUG_LEVEL */
; 81   : 
; 82   : 		__analysis_assume(this->_Ptr != 0);
; 83   : 
; 84   : 		return (*this->_Ptr);

  00000	8b 01		 mov	 eax, DWORD PTR [ecx]

; 85   : 		}

  00002	c3		 ret	 0
??D?$_Vector_const_iterator@V?$_Vector_val@PAVioBaseChar@@V?$allocator@PAVioBaseChar@@@std@@@std@@@std@@QBEABQAVioBaseChar@@XZ ENDP ; std::_Vector_const_iterator<std::_Vector_val<ioBaseChar *,std::allocator<ioBaseChar *> > >::operator*
_TEXT	ENDS
PUBLIC	??E?$_Vector_const_iterator@V?$_Vector_val@PAVioBaseChar@@V?$allocator@PAVioBaseChar@@@std@@@std@@@std@@QAEAAV01@XZ ; std::_Vector_const_iterator<std::_Vector_val<ioBaseChar *,std::allocator<ioBaseChar *> > >::operator++
; Function compile flags: /Ogsp
;	COMDAT ??E?$_Vector_const_iterator@V?$_Vector_val@PAVioBaseChar@@V?$allocator@PAVioBaseChar@@@std@@@std@@@std@@QAEAAV01@XZ
_TEXT	SEGMENT
??E?$_Vector_const_iterator@V?$_Vector_val@PAVioBaseChar@@V?$allocator@PAVioBaseChar@@@std@@@std@@@std@@QAEAAV01@XZ PROC ; std::_Vector_const_iterator<std::_Vector_val<ioBaseChar *,std::allocator<ioBaseChar *> > >::operator++, COMDAT
; _this$ = ecx

; 93   : 		{	// preincrement

  00000	8b c1		 mov	 eax, ecx

; 94   :  #if _ITERATOR_DEBUG_LEVEL == 2
; 95   : 		if (this->_Getcont() == 0
; 96   : 			|| this->_Ptr == 0
; 97   : 			|| ((_Myvec *)this->_Getcont())->_Mylast <= this->_Ptr)
; 98   : 			{	// report error
; 99   : 			_DEBUG_ERROR("vector iterator not incrementable");
; 100  : 			_SCL_SECURE_OUT_OF_RANGE;
; 101  : 			}
; 102  : 
; 103  :  #elif _ITERATOR_DEBUG_LEVEL == 1
; 104  : 		_SCL_SECURE_VALIDATE(this->_Getcont() != 0);
; 105  : 		_SCL_SECURE_VALIDATE_RANGE(
; 106  : 			this->_Ptr != 0
; 107  : 			&& this->_Ptr < ((_Myvec *)this->_Getcont())->_Mylast);
; 108  :  #endif /* _ITERATOR_DEBUG_LEVEL */
; 109  : 
; 110  : 		++this->_Ptr;

  00002	83 00 04	 add	 DWORD PTR [eax], 4

; 111  : 		return (*this);
; 112  : 		}

  00005	c3		 ret	 0
??E?$_Vector_const_iterator@V?$_Vector_val@PAVioBaseChar@@V?$allocator@PAVioBaseChar@@@std@@@std@@@std@@QAEAAV01@XZ ENDP ; std::_Vector_const_iterator<std::_Vector_val<ioBaseChar *,std::allocator<ioBaseChar *> > >::operator++
_TEXT	ENDS
PUBLIC	?_Inside@?$vector@VioHashString@@V?$allocator@VioHashString@@@std@@@std@@IBE_NPBVioHashString@@@Z ; std::vector<ioHashString,std::allocator<ioHashString> >::_Inside
; Function compile flags: /Ogsp
;	COMDAT ?_Inside@?$vector@VioHashString@@V?$allocator@VioHashString@@@std@@@std@@IBE_NPBVioHashString@@@Z
_TEXT	SEGMENT
__Ptr$ = 8						; size = 4
?_Inside@?$vector@VioHashString@@V?$allocator@VioHashString@@@std@@@std@@IBE_NPBVioHashString@@@Z PROC ; std::vector<ioHashString,std::allocator<ioHashString> >::_Inside, COMDAT
; _this$ = ecx

; 1285 : 		{	// test if _Ptr points inside vector

  00000	55		 push	 ebp
  00001	8b ec		 mov	 ebp, esp

; 1286 : 		return (_Ptr < this->_Mylast && this->_Myfirst <= _Ptr);

  00003	8b 45 08	 mov	 eax, DWORD PTR __Ptr$[ebp]
  00006	3b 41 04	 cmp	 eax, DWORD PTR [ecx+4]
  00009	73 09		 jae	 SHORT $LN3@Inside
  0000b	39 01		 cmp	 DWORD PTR [ecx], eax
  0000d	77 05		 ja	 SHORT $LN3@Inside
  0000f	33 c0		 xor	 eax, eax
  00011	40		 inc	 eax
  00012	eb 02		 jmp	 SHORT $LN4@Inside
$LN3@Inside:
  00014	33 c0		 xor	 eax, eax
$LN4@Inside:

; 1287 : 		}

  00016	5d		 pop	 ebp
  00017	c2 04 00	 ret	 4
?_Inside@?$vector@VioHashString@@V?$allocator@VioHashString@@@std@@@std@@IBE_NPBVioHashString@@@Z ENDP ; std::vector<ioHashString,std::allocator<ioHashString> >::_Inside
_TEXT	ENDS
PUBLIC	?_Orphan_range@?$vector@VioHashString@@V?$allocator@VioHashString@@@std@@@std@@IBEXPAVioHashString@@0@Z ; std::vector<ioHashString,std::allocator<ioHashString> >::_Orphan_range
; Function compile flags: /Ogsp
;	COMDAT ?_Orphan_range@?$vector@VioHashString@@V?$allocator@VioHashString@@@std@@@std@@IBEXPAVioHashString@@0@Z
_TEXT	SEGMENT
___formal$ = 8						; size = 4
___formal$ = 12						; size = 4
?_Orphan_range@?$vector@VioHashString@@V?$allocator@VioHashString@@@std@@@std@@IBEXPAVioHashString@@0@Z PROC ; std::vector<ioHashString,std::allocator<ioHashString> >::_Orphan_range, COMDAT
; _this$ = ecx

; 1454 : 		}

  00000	c2 08 00	 ret	 8
?_Orphan_range@?$vector@VioHashString@@V?$allocator@VioHashString@@@std@@@std@@IBEXPAVioHashString@@0@Z ENDP ; std::vector<ioHashString,std::allocator<ioHashString> >::_Orphan_range
_TEXT	ENDS
PUBLIC	?_Inside@?$vector@UtagBaseCharDistanceSq@@V?$allocator@UtagBaseCharDistanceSq@@@std@@@std@@IBE_NPBUtagBaseCharDistanceSq@@@Z ; std::vector<tagBaseCharDistanceSq,std::allocator<tagBaseCharDistanceSq> >::_Inside
; Function compile flags: /Ogsp
;	COMDAT ?_Inside@?$vector@UtagBaseCharDistanceSq@@V?$allocator@UtagBaseCharDistanceSq@@@std@@@std@@IBE_NPBUtagBaseCharDistanceSq@@@Z
_TEXT	SEGMENT
__Ptr$ = 8						; size = 4
?_Inside@?$vector@UtagBaseCharDistanceSq@@V?$allocator@UtagBaseCharDistanceSq@@@std@@@std@@IBE_NPBUtagBaseCharDistanceSq@@@Z PROC ; std::vector<tagBaseCharDistanceSq,std::allocator<tagBaseCharDistanceSq> >::_Inside, COMDAT
; _this$ = ecx

; 1285 : 		{	// test if _Ptr points inside vector

  00000	55		 push	 ebp
  00001	8b ec		 mov	 ebp, esp

; 1286 : 		return (_Ptr < this->_Mylast && this->_Myfirst <= _Ptr);

  00003	8b 45 08	 mov	 eax, DWORD PTR __Ptr$[ebp]
  00006	3b 41 04	 cmp	 eax, DWORD PTR [ecx+4]
  00009	73 09		 jae	 SHORT $LN3@Inside@2
  0000b	39 01		 cmp	 DWORD PTR [ecx], eax
  0000d	77 05		 ja	 SHORT $LN3@Inside@2
  0000f	33 c0		 xor	 eax, eax
  00011	40		 inc	 eax
  00012	eb 02		 jmp	 SHORT $LN4@Inside@2
$LN3@Inside@2:
  00014	33 c0		 xor	 eax, eax
$LN4@Inside@2:

; 1287 : 		}

  00016	5d		 pop	 ebp
  00017	c2 04 00	 ret	 4
?_Inside@?$vector@UtagBaseCharDistanceSq@@V?$allocator@UtagBaseCharDistanceSq@@@std@@@std@@IBE_NPBUtagBaseCharDistanceSq@@@Z ENDP ; std::vector<tagBaseCharDistanceSq,std::allocator<tagBaseCharDistanceSq> >::_Inside
_TEXT	ENDS
PUBLIC	?_Orphan_range@?$vector@UtagBaseCharDistanceSq@@V?$allocator@UtagBaseCharDistanceSq@@@std@@@std@@IBEXPAUtagBaseCharDistanceSq@@0@Z ; std::vector<tagBaseCharDistanceSq,std::allocator<tagBaseCharDistanceSq> >::_Orphan_range
; Function compile flags: /Ogsp
;	COMDAT ?_Orphan_range@?$vector@UtagBaseCharDistanceSq@@V?$allocator@UtagBaseCharDistanceSq@@@std@@@std@@IBEXPAUtagBaseCharDistanceSq@@0@Z
_TEXT	SEGMENT
___formal$ = 8						; size = 4
___formal$ = 12						; size = 4
?_Orphan_range@?$vector@UtagBaseCharDistanceSq@@V?$allocator@UtagBaseCharDistanceSq@@@std@@@std@@IBEXPAUtagBaseCharDistanceSq@@0@Z PROC ; std::vector<tagBaseCharDistanceSq,std::allocator<tagBaseCharDistanceSq> >::_Orphan_range, COMDAT
; _this$ = ecx

; 1454 : 		}

  00000	c2 08 00	 ret	 8
?_Orphan_range@?$vector@UtagBaseCharDistanceSq@@V?$allocator@UtagBaseCharDistanceSq@@@std@@@std@@IBEXPAUtagBaseCharDistanceSq@@0@Z ENDP ; std::vector<tagBaseCharDistanceSq,std::allocator<tagBaseCharDistanceSq> >::_Orphan_range
_TEXT	ENDS
PUBLIC	??1?$_Vector_val@UtagBaseCharDistanceSq@@V?$allocator@UtagBaseCharDistanceSq@@@std@@@std@@QAE@XZ ; std::_Vector_val<tagBaseCharDistanceSq,std::allocator<tagBaseCharDistanceSq> >::~_Vector_val<tagBaseCharDistanceSq,std::allocator<tagBaseCharDistanceSq> >
; Function compile flags: /Ogsp
;	COMDAT ??1?$_Vector_val@UtagBaseCharDistanceSq@@V?$allocator@UtagBaseCharDistanceSq@@@std@@@std@@QAE@XZ
_TEXT	SEGMENT
??1?$_Vector_val@UtagBaseCharDistanceSq@@V?$allocator@UtagBaseCharDistanceSq@@@std@@@std@@QAE@XZ PROC ; std::_Vector_val<tagBaseCharDistanceSq,std::allocator<tagBaseCharDistanceSq> >::~_Vector_val<tagBaseCharDistanceSq,std::allocator<tagBaseCharDistanceSq> >, COMDAT
; _this$ = ecx

; 434  : 		}

  00000	c3		 ret	 0
??1?$_Vector_val@UtagBaseCharDistanceSq@@V?$allocator@UtagBaseCharDistanceSq@@@std@@@std@@QAE@XZ ENDP ; std::_Vector_val<tagBaseCharDistanceSq,std::allocator<tagBaseCharDistanceSq> >::~_Vector_val<tagBaseCharDistanceSq,std::allocator<tagBaseCharDistanceSq> >
_TEXT	ENDS
PUBLIC	??0?$allocator@UtagBaseCharDistanceSq@@@std@@QAE@XZ ; std::allocator<tagBaseCharDistanceSq>::allocator<tagBaseCharDistanceSq>
; Function compile flags: /Ogsp
; File c:\program files (x86)\microsoft visual studio 10.0\vc\include\xmemory
;	COMDAT ??0?$allocator@UtagBaseCharDistanceSq@@@std@@QAE@XZ
_TEXT	SEGMENT
??0?$allocator@UtagBaseCharDistanceSq@@@std@@QAE@XZ PROC ; std::allocator<tagBaseCharDistanceSq>::allocator<tagBaseCharDistanceSq>, COMDAT
; _this$ = ecx

; 161  : 	_ALLOCATOR() _THROW0()

  00000	8b c1		 mov	 eax, ecx

; 162  : 		{	// construct default allocator (do nothing)
; 163  : 		}

  00002	c3		 ret	 0
??0?$allocator@UtagBaseCharDistanceSq@@@std@@QAE@XZ ENDP ; std::allocator<tagBaseCharDistanceSq>::allocator<tagBaseCharDistanceSq>
_TEXT	ENDS
PUBLIC	??0?$_Vector_const_iterator@V?$_Vector_val@PAVioBaseChar@@V?$allocator@PAVioBaseChar@@@std@@@std@@@std@@QAE@PAPAVioBaseChar@@PBU_Container_base0@1@@Z ; std::_Vector_const_iterator<std::_Vector_val<ioBaseChar *,std::allocator<ioBaseChar *> > >::_Vector_const_iterator<std::_Vector_val<ioBaseChar *,std::allocator<ioBaseChar *> > >
; Function compile flags: /Ogsp
; File c:\program files (x86)\microsoft visual studio 10.0\vc\include\vector
;	COMDAT ??0?$_Vector_const_iterator@V?$_Vector_val@PAVioBaseChar@@V?$allocator@PAVioBaseChar@@@std@@@std@@@std@@QAE@PAPAVioBaseChar@@PBU_Container_base0@1@@Z
_TEXT	SEGMENT
__Parg$ = 8						; size = 4
__Pvector$ = 12						; size = 4
??0?$_Vector_const_iterator@V?$_Vector_val@PAVioBaseChar@@V?$allocator@PAVioBaseChar@@@std@@@std@@@std@@QAE@PAPAVioBaseChar@@PBU_Container_base0@1@@Z PROC ; std::_Vector_const_iterator<std::_Vector_val<ioBaseChar *,std::allocator<ioBaseChar *> > >::_Vector_const_iterator<std::_Vector_val<ioBaseChar *,std::allocator<ioBaseChar *> > >, COMDAT
; _this$ = ecx

; 45   : 		{	// construct with pointer _Parg

  00000	55		 push	 ebp
  00001	8b ec		 mov	 ebp, esp
  00003	8b c1		 mov	 eax, ecx
  00005	8b 4d 08	 mov	 ecx, DWORD PTR __Parg$[ebp]
  00008	89 08		 mov	 DWORD PTR [eax], ecx

; 46   : 		this->_Adopt(_Pvector);
; 47   : 		}

  0000a	5d		 pop	 ebp
  0000b	c2 08 00	 ret	 8
??0?$_Vector_const_iterator@V?$_Vector_val@PAVioBaseChar@@V?$allocator@PAVioBaseChar@@@std@@@std@@@std@@QAE@PAPAVioBaseChar@@PBU_Container_base0@1@@Z ENDP ; std::_Vector_const_iterator<std::_Vector_val<ioBaseChar *,std::allocator<ioBaseChar *> > >::_Vector_const_iterator<std::_Vector_val<ioBaseChar *,std::allocator<ioBaseChar *> > >
_TEXT	ENDS
PUBLIC	?capacity@?$vector@VioHashString@@V?$allocator@VioHashString@@@std@@@std@@QBEIXZ ; std::vector<ioHashString,std::allocator<ioHashString> >::capacity
; Function compile flags: /Ogsp
;	COMDAT ?capacity@?$vector@VioHashString@@V?$allocator@VioHashString@@@std@@@std@@QBEIXZ
_TEXT	SEGMENT
?capacity@?$vector@VioHashString@@V?$allocator@VioHashString@@@std@@@std@@QBEIXZ PROC ; std::vector<ioHashString,std::allocator<ioHashString> >::capacity, COMDAT
; _this$ = ecx

; 777  : 		return (this->_Myend - this->_Myfirst);

  00000	8b 41 08	 mov	 eax, DWORD PTR [ecx+8]
  00003	2b 01		 sub	 eax, DWORD PTR [ecx]
  00005	c1 f8 04	 sar	 eax, 4

; 778  : 		}

  00008	c3		 ret	 0
?capacity@?$vector@VioHashString@@V?$allocator@VioHashString@@@std@@@std@@QBEIXZ ENDP ; std::vector<ioHashString,std::allocator<ioHashString> >::capacity
_TEXT	ENDS
PUBLIC	?capacity@?$vector@UtagBaseCharDistanceSq@@V?$allocator@UtagBaseCharDistanceSq@@@std@@@std@@QBEIXZ ; std::vector<tagBaseCharDistanceSq,std::allocator<tagBaseCharDistanceSq> >::capacity
; Function compile flags: /Ogsp
;	COMDAT ?capacity@?$vector@UtagBaseCharDistanceSq@@V?$allocator@UtagBaseCharDistanceSq@@@std@@@std@@QBEIXZ
_TEXT	SEGMENT
?capacity@?$vector@UtagBaseCharDistanceSq@@V?$allocator@UtagBaseCharDistanceSq@@@std@@@std@@QBEIXZ PROC ; std::vector<tagBaseCharDistanceSq,std::allocator<tagBaseCharDistanceSq> >::capacity, COMDAT
; _this$ = ecx

; 777  : 		return (this->_Myend - this->_Myfirst);

  00000	8b 41 08	 mov	 eax, DWORD PTR [ecx+8]
  00003	2b 01		 sub	 eax, DWORD PTR [ecx]
  00005	c1 f8 05	 sar	 eax, 5

; 778  : 		}

  00008	c3		 ret	 0
?capacity@?$vector@UtagBaseCharDistanceSq@@V?$allocator@UtagBaseCharDistanceSq@@@std@@@std@@QBEIXZ ENDP ; std::vector<tagBaseCharDistanceSq,std::allocator<tagBaseCharDistanceSq> >::capacity
_TEXT	ENDS
PUBLIC	??_C@_0BD@OLBABOEK@vector?$DMT?$DO?5too?5long?$AA@ ; `string'
PUBLIC	?_Xlen@?$vector@UtagBaseCharDistanceSq@@V?$allocator@UtagBaseCharDistanceSq@@@std@@@std@@IBEXXZ ; std::vector<tagBaseCharDistanceSq,std::allocator<tagBaseCharDistanceSq> >::_Xlen
EXTRN	__imp_?_Xlength_error@std@@YAXPBD@Z:PROC
;	COMDAT ??_C@_0BD@OLBABOEK@vector?$DMT?$DO?5too?5long?$AA@
CONST	SEGMENT
??_C@_0BD@OLBABOEK@vector?$DMT?$DO?5too?5long?$AA@ DB 'vector<T> too long'
	DB	00H						; `string'
; Function compile flags: /Ogsp
CONST	ENDS
;	COMDAT ?_Xlen@?$vector@UtagBaseCharDistanceSq@@V?$allocator@UtagBaseCharDistanceSq@@@std@@@std@@IBEXXZ
_TEXT	SEGMENT
?_Xlen@?$vector@UtagBaseCharDistanceSq@@V?$allocator@UtagBaseCharDistanceSq@@@std@@@std@@IBEXXZ PROC ; std::vector<tagBaseCharDistanceSq,std::allocator<tagBaseCharDistanceSq> >::_Xlen, COMDAT
; _this$ = ecx

; 1427 : 		_Xlength_error("vector<T> too long");

  00000	68 00 00 00 00	 push	 OFFSET ??_C@_0BD@OLBABOEK@vector?$DMT?$DO?5too?5long?$AA@
  00005	ff 15 00 00 00
	00		 call	 DWORD PTR __imp_?_Xlength_error@std@@YAXPBD@Z
$LN4@Xlen:
$LN3@Xlen:
  0000b	cc		 int	 3
?_Xlen@?$vector@UtagBaseCharDistanceSq@@V?$allocator@UtagBaseCharDistanceSq@@@std@@@std@@IBEXXZ ENDP ; std::vector<tagBaseCharDistanceSq,std::allocator<tagBaseCharDistanceSq> >::_Xlen
_TEXT	ENDS
PUBLIC	??0?$allocator@UtagBaseCharDistanceSq@@@std@@QAE@ABV01@@Z ; std::allocator<tagBaseCharDistanceSq>::allocator<tagBaseCharDistanceSq>
; Function compile flags: /Ogsp
; File c:\program files (x86)\microsoft visual studio 10.0\vc\include\xmemory
;	COMDAT ??0?$allocator@UtagBaseCharDistanceSq@@@std@@QAE@ABV01@@Z
_TEXT	SEGMENT
___formal$ = 8						; size = 4
??0?$allocator@UtagBaseCharDistanceSq@@@std@@QAE@ABV01@@Z PROC ; std::allocator<tagBaseCharDistanceSq>::allocator<tagBaseCharDistanceSq>, COMDAT
; _this$ = ecx

; 165  : 	_ALLOCATOR(const _ALLOCATOR<_Ty>&) _THROW0()

  00000	8b c1		 mov	 eax, ecx

; 166  : 		{	// construct by copying (do nothing)
; 167  : 		}

  00002	c2 04 00	 ret	 4
??0?$allocator@UtagBaseCharDistanceSq@@@std@@QAE@ABV01@@Z ENDP ; std::allocator<tagBaseCharDistanceSq>::allocator<tagBaseCharDistanceSq>
_TEXT	ENDS
PUBLIC	?deallocate@?$allocator@UtagBaseCharDistanceSq@@@std@@QAEXPAUtagBaseCharDistanceSq@@I@Z ; std::allocator<tagBaseCharDistanceSq>::deallocate
; Function compile flags: /Ogsp
;	COMDAT ?deallocate@?$allocator@UtagBaseCharDistanceSq@@@std@@QAEXPAUtagBaseCharDistanceSq@@I@Z
_TEXT	SEGMENT
__Ptr$ = 8						; size = 4
___formal$ = 12						; size = 4
?deallocate@?$allocator@UtagBaseCharDistanceSq@@@std@@QAEXPAUtagBaseCharDistanceSq@@I@Z PROC ; std::allocator<tagBaseCharDistanceSq>::deallocate, COMDAT
; _this$ = ecx

; 181  : 		{	// deallocate object at _Ptr, ignore size

  00000	55		 push	 ebp
  00001	8b ec		 mov	 ebp, esp

; 182  : 		::operator delete(_Ptr);

  00003	ff 75 08	 push	 DWORD PTR __Ptr$[ebp]
  00006	e8 00 00 00 00	 call	 ??3@YAXPAX@Z		; operator delete
  0000b	59		 pop	 ecx

; 183  : 		}

  0000c	5d		 pop	 ebp
  0000d	c2 08 00	 ret	 8
?deallocate@?$allocator@UtagBaseCharDistanceSq@@@std@@QAEXPAUtagBaseCharDistanceSq@@I@Z ENDP ; std::allocator<tagBaseCharDistanceSq>::deallocate
_TEXT	ENDS
PUBLIC	?_Compat@?$_Vector_const_iterator@V?$_Vector_val@PAVioBaseChar@@V?$allocator@PAVioBaseChar@@@std@@@std@@@std@@QBEXABV12@@Z ; std::_Vector_const_iterator<std::_Vector_val<ioBaseChar *,std::allocator<ioBaseChar *> > >::_Compat
; Function compile flags: /Ogsp
; File c:\program files (x86)\microsoft visual studio 10.0\vc\include\vector
;	COMDAT ?_Compat@?$_Vector_const_iterator@V?$_Vector_val@PAVioBaseChar@@V?$allocator@PAVioBaseChar@@@std@@@std@@@std@@QBEXABV12@@Z
_TEXT	SEGMENT
___formal$ = 8						; size = 4
?_Compat@?$_Vector_const_iterator@V?$_Vector_val@PAVioBaseChar@@V?$allocator@PAVioBaseChar@@@std@@@std@@@std@@QBEXABV12@@Z PROC ; std::_Vector_const_iterator<std::_Vector_val<ioBaseChar *,std::allocator<ioBaseChar *> > >::_Compat, COMDAT
; _this$ = ecx

; 253  : 		}

  00000	c2 04 00	 ret	 4
?_Compat@?$_Vector_const_iterator@V?$_Vector_val@PAVioBaseChar@@V?$allocator@PAVioBaseChar@@@std@@@std@@@std@@QBEXABV12@@Z ENDP ; std::_Vector_const_iterator<std::_Vector_val<ioBaseChar *,std::allocator<ioBaseChar *> > >::_Compat
_TEXT	ENDS
PUBLIC	??0?$_Vector_const_iterator@V?$_Vector_val@UtagBaseCharDistanceSq@@V?$allocator@UtagBaseCharDistanceSq@@@std@@@std@@@std@@QAE@PAUtagBaseCharDistanceSq@@PBU_Container_base0@1@@Z ; std::_Vector_const_iterator<std::_Vector_val<tagBaseCharDistanceSq,std::allocator<tagBaseCharDistanceSq> > >::_Vector_const_iterator<std::_Vector_val<tagBaseCharDistanceSq,std::allocator<tagBaseCharDistanceSq> > >
; Function compile flags: /Ogsp
;	COMDAT ??0?$_Vector_const_iterator@V?$_Vector_val@UtagBaseCharDistanceSq@@V?$allocator@UtagBaseCharDistanceSq@@@std@@@std@@@std@@QAE@PAUtagBaseCharDistanceSq@@PBU_Container_base0@1@@Z
_TEXT	SEGMENT
__Parg$ = 8						; size = 4
__Pvector$ = 12						; size = 4
??0?$_Vector_const_iterator@V?$_Vector_val@UtagBaseCharDistanceSq@@V?$allocator@UtagBaseCharDistanceSq@@@std@@@std@@@std@@QAE@PAUtagBaseCharDistanceSq@@PBU_Container_base0@1@@Z PROC ; std::_Vector_const_iterator<std::_Vector_val<tagBaseCharDistanceSq,std::allocator<tagBaseCharDistanceSq> > >::_Vector_const_iterator<std::_Vector_val<tagBaseCharDistanceSq,std::allocator<tagBaseCharDistanceSq> > >, COMDAT
; _this$ = ecx

; 45   : 		{	// construct with pointer _Parg

  00000	55		 push	 ebp
  00001	8b ec		 mov	 ebp, esp
  00003	8b c1		 mov	 eax, ecx
  00005	8b 4d 08	 mov	 ecx, DWORD PTR __Parg$[ebp]
  00008	89 08		 mov	 DWORD PTR [eax], ecx

; 46   : 		this->_Adopt(_Pvector);
; 47   : 		}

  0000a	5d		 pop	 ebp
  0000b	c2 08 00	 ret	 8
??0?$_Vector_const_iterator@V?$_Vector_val@UtagBaseCharDistanceSq@@V?$allocator@UtagBaseCharDistanceSq@@@std@@@std@@@std@@QAE@PAUtagBaseCharDistanceSq@@PBU_Container_base0@1@@Z ENDP ; std::_Vector_const_iterator<std::_Vector_val<tagBaseCharDistanceSq,std::allocator<tagBaseCharDistanceSq> > >::_Vector_const_iterator<std::_Vector_val<tagBaseCharDistanceSq,std::allocator<tagBaseCharDistanceSq> > >
_TEXT	ENDS
PUBLIC	?max_size@?$allocator@UtagBaseCharDistanceSq@@@std@@QBEIXZ ; std::allocator<tagBaseCharDistanceSq>::max_size
; Function compile flags: /Ogsp
; File c:\program files (x86)\microsoft visual studio 10.0\vc\include\xmemory
;	COMDAT ?max_size@?$allocator@UtagBaseCharDistanceSq@@@std@@QBEIXZ
_TEXT	SEGMENT
?max_size@?$allocator@UtagBaseCharDistanceSq@@@std@@QBEIXZ PROC ; std::allocator<tagBaseCharDistanceSq>::max_size, COMDAT
; _this$ = ecx

; 218  : 		_SIZT _Count = (_SIZT)(-1) / sizeof (_Ty);
; 219  : 		return (0 < _Count ? _Count : 1);

  00000	b8 ff ff ff 07	 mov	 eax, 134217727		; 07ffffffH

; 220  : 		}

  00005	c3		 ret	 0
?max_size@?$allocator@UtagBaseCharDistanceSq@@@std@@QBEIXZ ENDP ; std::allocator<tagBaseCharDistanceSq>::max_size
_TEXT	ENDS
PUBLIC	??$addressof@$$CBVioHashString@@@std@@YAPBVioHashString@@ABV1@@Z ; std::addressof<ioHashString const >
; Function compile flags: /Ogsp
;	COMDAT ??$addressof@$$CBVioHashString@@@std@@YAPBVioHashString@@ABV1@@Z
_TEXT	SEGMENT
__Val$ = 8						; size = 4
??$addressof@$$CBVioHashString@@@std@@YAPBVioHashString@@ABV1@@Z PROC ; std::addressof<ioHashString const >, COMDAT

; 110  : 	{	// return address of _Val

  00000	55		 push	 ebp
  00001	8b ec		 mov	 ebp, esp

; 111  : 	return ((_Ty *) &(char&)_Val);

  00003	8b 45 08	 mov	 eax, DWORD PTR __Val$[ebp]

; 112  : 	}

  00006	5d		 pop	 ebp
  00007	c3		 ret	 0
??$addressof@$$CBVioHashString@@@std@@YAPBVioHashString@@ABV1@@Z ENDP ; std::addressof<ioHashString const >
_TEXT	ENDS
PUBLIC	??$addressof@$$CBUtagBaseCharDistanceSq@@@std@@YAPBUtagBaseCharDistanceSq@@ABU1@@Z ; std::addressof<tagBaseCharDistanceSq const >
; Function compile flags: /Ogsp
;	COMDAT ??$addressof@$$CBUtagBaseCharDistanceSq@@@std@@YAPBUtagBaseCharDistanceSq@@ABU1@@Z
_TEXT	SEGMENT
__Val$ = 8						; size = 4
??$addressof@$$CBUtagBaseCharDistanceSq@@@std@@YAPBUtagBaseCharDistanceSq@@ABU1@@Z PROC ; std::addressof<tagBaseCharDistanceSq const >, COMDAT

; 110  : 	{	// return address of _Val

  00000	55		 push	 ebp
  00001	8b ec		 mov	 ebp, esp

; 111  : 	return ((_Ty *) &(char&)_Val);

  00003	8b 45 08	 mov	 eax, DWORD PTR __Val$[ebp]

; 112  : 	}

  00006	5d		 pop	 ebp
  00007	c3		 ret	 0
??$addressof@$$CBUtagBaseCharDistanceSq@@@std@@YAPBUtagBaseCharDistanceSq@@ABU1@@Z ENDP ; std::addressof<tagBaseCharDistanceSq const >
_TEXT	ENDS
PUBLIC	__TI2?AVbad_alloc@std@@
PUBLIC	??$_Allocate@UtagBaseCharDistanceSq@@@std@@YAPAUtagBaseCharDistanceSq@@IPAU1@@Z ; std::_Allocate<tagBaseCharDistanceSq>
PUBLIC	__CTA2?AVbad_alloc@std@@
PUBLIC	__CT??_R0?AVbad_alloc@std@@@8??0bad_alloc@std@@QAE@ABV01@@Z12
PUBLIC	??0bad_alloc@std@@QAE@ABV01@@Z			; std::bad_alloc::bad_alloc
PUBLIC	__CT??_R0?AVexception@std@@@8??0exception@std@@QAE@ABV01@@Z12
EXTRN	??2@YAPAXI@Z:PROC				; operator new
EXTRN	__CxxThrowException@8:PROC
EXTRN	??0exception@std@@QAE@ABV01@@Z:PROC		; std::exception::exception
;	COMDAT __CT??_R0?AVexception@std@@@8??0exception@std@@QAE@ABV01@@Z12
; File c:\program files (x86)\microsoft visual studio 10.0\vc\include\exception
xdata$x	SEGMENT
__CT??_R0?AVexception@std@@@8??0exception@std@@QAE@ABV01@@Z12 DD 00H
	DD	FLAT:??_R0?AVexception@std@@@8
	DD	00H
	DD	0ffffffffH
	ORG $+4
	DD	0cH
	DD	FLAT:??0exception@std@@QAE@ABV01@@Z
xdata$x	ENDS
;	COMDAT __CT??_R0?AVbad_alloc@std@@@8??0bad_alloc@std@@QAE@ABV01@@Z12
xdata$x	SEGMENT
__CT??_R0?AVbad_alloc@std@@@8??0bad_alloc@std@@QAE@ABV01@@Z12 DD 00H
	DD	FLAT:??_R0?AVbad_alloc@std@@@8
	DD	00H
	DD	0ffffffffH
	ORG $+4
	DD	0cH
	DD	FLAT:??0bad_alloc@std@@QAE@ABV01@@Z
xdata$x	ENDS
;	COMDAT __CTA2?AVbad_alloc@std@@
xdata$x	SEGMENT
__CTA2?AVbad_alloc@std@@ DD 02H
	DD	FLAT:__CT??_R0?AVbad_alloc@std@@@8??0bad_alloc@std@@QAE@ABV01@@Z12
	DD	FLAT:__CT??_R0?AVexception@std@@@8??0exception@std@@QAE@ABV01@@Z12
xdata$x	ENDS
;	COMDAT __TI2?AVbad_alloc@std@@
xdata$x	SEGMENT
__TI2?AVbad_alloc@std@@ DD 00H
	DD	FLAT:??1bad_alloc@std@@UAE@XZ
	DD	00H
	DD	FLAT:__CTA2?AVbad_alloc@std@@
; Function compile flags: /Ogsp
; File c:\program files (x86)\microsoft visual studio 10.0\vc\include\xmemory
xdata$x	ENDS
;	COMDAT ??$_Allocate@UtagBaseCharDistanceSq@@@std@@YAPAUtagBaseCharDistanceSq@@IPAU1@@Z
_TEXT	SEGMENT
$T534601 = -12						; size = 12
$T534606 = 8						; size = 4
__Count$ = 8						; size = 4
___formal$ = 12						; size = 4
??$_Allocate@UtagBaseCharDistanceSq@@@std@@YAPAUtagBaseCharDistanceSq@@IPAU1@@Z PROC ; std::_Allocate<tagBaseCharDistanceSq>, COMDAT

; 30   : 	{	// allocate storage for _Count elements of type _Ty

  00000	55		 push	 ebp
  00001	8b ec		 mov	 ebp, esp

; 31   : 	void *_Ptr = 0;
; 32   : 
; 33   : 	if (_Count <= 0)

  00003	8b 4d 08	 mov	 ecx, DWORD PTR __Count$[ebp]
  00006	83 ec 0c	 sub	 esp, 12			; 0000000cH
  00009	33 c0		 xor	 eax, eax
  0000b	85 c9		 test	 ecx, ecx

; 34   : 		_Count = 0;
; 35   : 	else if (((_SIZT)(-1) / sizeof (_Ty) < _Count)

  0000d	74 3c		 je	 SHORT $LN5@Allocate

; 36   : 		|| (_Ptr = ::operator new(_Count * sizeof (_Ty))) == 0)

  0000f	81 f9 ff ff ff
	07		 cmp	 ecx, 134217727		; 07ffffffH
  00015	77 0e		 ja	 SHORT $LN1@Allocate
  00017	c1 e1 05	 shl	 ecx, 5
  0001a	51		 push	 ecx
  0001b	e8 00 00 00 00	 call	 ??2@YAPAXI@Z		; operator new
  00020	59		 pop	 ecx
  00021	85 c0		 test	 eax, eax

; 38   : 
; 39   : 	return ((_Ty _FARQ *)_Ptr);

  00023	75 26		 jne	 SHORT $LN5@Allocate
$LN1@Allocate:

; 37   : 		_THROW_NCEE(bad_alloc, 0);

  00025	83 65 08 00	 and	 DWORD PTR $T534606[ebp], 0
  00029	8d 45 08	 lea	 eax, DWORD PTR $T534606[ebp]
  0002c	50		 push	 eax
  0002d	8d 4d f4	 lea	 ecx, DWORD PTR $T534601[ebp]
  00030	ff 15 00 00 00
	00		 call	 DWORD PTR __imp_??0exception@std@@QAE@ABQBD@Z
  00036	68 00 00 00 00	 push	 OFFSET __TI2?AVbad_alloc@std@@
  0003b	8d 45 f4	 lea	 eax, DWORD PTR $T534601[ebp]
  0003e	50		 push	 eax
  0003f	c7 45 f4 00 00
	00 00		 mov	 DWORD PTR $T534601[ebp], OFFSET ??_7bad_alloc@std@@6B@
  00046	e8 00 00 00 00	 call	 __CxxThrowException@8
$LN10@Allocate:
$LN5@Allocate:

; 40   : 	}

  0004b	c9		 leave
  0004c	c3		 ret	 0
$LN9@Allocate:
??$_Allocate@UtagBaseCharDistanceSq@@@std@@YAPAUtagBaseCharDistanceSq@@IPAU1@@Z ENDP ; std::_Allocate<tagBaseCharDistanceSq>
_TEXT	ENDS
PUBLIC	?_Compat@?$_Vector_const_iterator@V?$_Vector_val@UtagBaseCharDistanceSq@@V?$allocator@UtagBaseCharDistanceSq@@@std@@@std@@@std@@QBEXABV12@@Z ; std::_Vector_const_iterator<std::_Vector_val<tagBaseCharDistanceSq,std::allocator<tagBaseCharDistanceSq> > >::_Compat
; Function compile flags: /Ogsp
; File c:\program files (x86)\microsoft visual studio 10.0\vc\include\vector
;	COMDAT ?_Compat@?$_Vector_const_iterator@V?$_Vector_val@UtagBaseCharDistanceSq@@V?$allocator@UtagBaseCharDistanceSq@@@std@@@std@@@std@@QBEXABV12@@Z
_TEXT	SEGMENT
___formal$ = 8						; size = 4
?_Compat@?$_Vector_const_iterator@V?$_Vector_val@UtagBaseCharDistanceSq@@V?$allocator@UtagBaseCharDistanceSq@@@std@@@std@@@std@@QBEXABV12@@Z PROC ; std::_Vector_const_iterator<std::_Vector_val<tagBaseCharDistanceSq,std::allocator<tagBaseCharDistanceSq> > >::_Compat, COMDAT
; _this$ = ecx

; 253  : 		}

  00000	c2 04 00	 ret	 4
?_Compat@?$_Vector_const_iterator@V?$_Vector_val@UtagBaseCharDistanceSq@@V?$allocator@UtagBaseCharDistanceSq@@@std@@@std@@@std@@QBEXABV12@@Z ENDP ; std::_Vector_const_iterator<std::_Vector_val<tagBaseCharDistanceSq,std::allocator<tagBaseCharDistanceSq> > >::_Compat
_TEXT	ENDS
PUBLIC	??$forward@AAUtagBaseCharDistanceSq@@@std@@YAAAUtagBaseCharDistanceSq@@AAU1@@Z ; std::forward<tagBaseCharDistanceSq &>
; Function compile flags: /Ogsp
; File c:\program files (x86)\microsoft visual studio 10.0\vc\include\utility
;	COMDAT ??$forward@AAUtagBaseCharDistanceSq@@@std@@YAAAUtagBaseCharDistanceSq@@AAU1@@Z
_TEXT	SEGMENT
__Arg$ = 8						; size = 4
??$forward@AAUtagBaseCharDistanceSq@@@std@@YAAAUtagBaseCharDistanceSq@@AAU1@@Z PROC ; std::forward<tagBaseCharDistanceSq &>, COMDAT

; 78   : 	{	// forward _Arg, given explicitly specified type parameter

  00000	55		 push	 ebp
  00001	8b ec		 mov	 ebp, esp

; 79   : 	return ((_Ty&&)_Arg);

  00003	8b 45 08	 mov	 eax, DWORD PTR __Arg$[ebp]

; 80   : 	}

  00006	5d		 pop	 ebp
  00007	c3		 ret	 0
??$forward@AAUtagBaseCharDistanceSq@@@std@@YAAAUtagBaseCharDistanceSq@@AAU1@@Z ENDP ; std::forward<tagBaseCharDistanceSq &>
_TEXT	ENDS
PUBLIC	??$forward@ABUtagBaseCharDistanceSq@@@std@@YAABUtagBaseCharDistanceSq@@ABU1@@Z ; std::forward<tagBaseCharDistanceSq const &>
; Function compile flags: /Ogsp
;	COMDAT ??$forward@ABUtagBaseCharDistanceSq@@@std@@YAABUtagBaseCharDistanceSq@@ABU1@@Z
_TEXT	SEGMENT
__Arg$ = 8						; size = 4
??$forward@ABUtagBaseCharDistanceSq@@@std@@YAABUtagBaseCharDistanceSq@@ABU1@@Z PROC ; std::forward<tagBaseCharDistanceSq const &>, COMDAT

; 78   : 	{	// forward _Arg, given explicitly specified type parameter

  00000	55		 push	 ebp
  00001	8b ec		 mov	 ebp, esp

; 79   : 	return ((_Ty&&)_Arg);

  00003	8b 45 08	 mov	 eax, DWORD PTR __Arg$[ebp]

; 80   : 	}

  00006	5d		 pop	 ebp
  00007	c3		 ret	 0
??$forward@ABUtagBaseCharDistanceSq@@@std@@YAABUtagBaseCharDistanceSq@@ABU1@@Z ENDP ; std::forward<tagBaseCharDistanceSq const &>
_TEXT	ENDS
PUBLIC	??$_Ptr_cat@UtagBaseCharDistanceSq@@U1@@std@@YA?AU_Nonscalar_ptr_iterator_tag@0@PAUtagBaseCharDistanceSq@@0@Z ; std::_Ptr_cat<tagBaseCharDistanceSq,tagBaseCharDistanceSq>
; Function compile flags: /Ogsp
; File c:\program files (x86)\microsoft visual studio 10.0\vc\include\xutility
;	COMDAT ??$_Ptr_cat@UtagBaseCharDistanceSq@@U1@@std@@YA?AU_Nonscalar_ptr_iterator_tag@0@PAUtagBaseCharDistanceSq@@0@Z
_TEXT	SEGMENT
__Cat$ = -1						; size = 1
___formal$ = 8						; size = 4
___formal$ = 12						; size = 4
??$_Ptr_cat@UtagBaseCharDistanceSq@@U1@@std@@YA?AU_Nonscalar_ptr_iterator_tag@0@PAUtagBaseCharDistanceSq@@0@Z PROC ; std::_Ptr_cat<tagBaseCharDistanceSq,tagBaseCharDistanceSq>, COMDAT

; 516  : 	{	// return pointer category from pointers

  00000	55		 push	 ebp
  00001	8b ec		 mov	 ebp, esp
  00003	51		 push	 ecx

; 517  : 	typename _Ptr_cat_helper<_Elem1, _Elem2>::_Type _Cat;
; 518  : 	return (_Cat);

  00004	8a 45 ff	 mov	 al, BYTE PTR __Cat$[ebp]

; 519  : 	}

  00007	c9		 leave
  00008	c3		 ret	 0
??$_Ptr_cat@UtagBaseCharDistanceSq@@U1@@std@@YA?AU_Nonscalar_ptr_iterator_tag@0@PAUtagBaseCharDistanceSq@@0@Z ENDP ; std::_Ptr_cat<tagBaseCharDistanceSq,tagBaseCharDistanceSq>
_TEXT	ENDS
PUBLIC	??0tagBaseCharDistanceSq@@QAE@ABU0@@Z		; tagBaseCharDistanceSq::tagBaseCharDistanceSq
EXTRN	__imp_??0ioHashString@@QAE@ABV0@@Z:PROC
; Function compile flags: /Ogsp
;	COMDAT ??0tagBaseCharDistanceSq@@QAE@ABU0@@Z
_TEXT	SEGMENT
___that$ = 8						; size = 4
??0tagBaseCharDistanceSq@@QAE@ABU0@@Z PROC		; tagBaseCharDistanceSq::tagBaseCharDistanceSq, COMDAT
; _this$ = ecx
  00000	55		 push	 ebp
  00001	8b ec		 mov	 ebp, esp
  00003	53		 push	 ebx
  00004	56		 push	 esi
  00005	8b 75 08	 mov	 esi, DWORD PTR ___that$[ebp]
  00008	57		 push	 edi
  00009	56		 push	 esi
  0000a	8b d9		 mov	 ebx, ecx
  0000c	ff 15 00 00 00
	00		 call	 DWORD PTR __imp_??0ioHashString@@QAE@ABV0@@Z
  00012	d9 46 10	 fld	 DWORD PTR [esi+16]
  00015	83 c6 14	 add	 esi, 20			; 00000014H
  00018	d9 5b 10	 fstp	 DWORD PTR [ebx+16]
  0001b	8d 7b 14	 lea	 edi, DWORD PTR [ebx+20]
  0001e	a5		 movsd
  0001f	a5		 movsd
  00020	a5		 movsd
  00021	5f		 pop	 edi
  00022	5e		 pop	 esi
  00023	8b c3		 mov	 eax, ebx
  00025	5b		 pop	 ebx
  00026	5d		 pop	 ebp
  00027	c2 04 00	 ret	 4
??0tagBaseCharDistanceSq@@QAE@ABU0@@Z ENDP		; tagBaseCharDistanceSq::tagBaseCharDistanceSq
_TEXT	ENDS
PUBLIC	?_Unchecked@?$_Vector_iterator@V?$_Vector_val@UtagBaseCharDistanceSq@@V?$allocator@UtagBaseCharDistanceSq@@@std@@@std@@@std@@QBEPAUtagBaseCharDistanceSq@@XZ ; std::_Vector_iterator<std::_Vector_val<tagBaseCharDistanceSq,std::allocator<tagBaseCharDistanceSq> > >::_Unchecked
; Function compile flags: /Ogsp
; File c:\program files (x86)\microsoft visual studio 10.0\vc\include\vector
;	COMDAT ?_Unchecked@?$_Vector_iterator@V?$_Vector_val@UtagBaseCharDistanceSq@@V?$allocator@UtagBaseCharDistanceSq@@@std@@@std@@@std@@QBEPAUtagBaseCharDistanceSq@@XZ
_TEXT	SEGMENT
?_Unchecked@?$_Vector_iterator@V?$_Vector_val@UtagBaseCharDistanceSq@@V?$allocator@UtagBaseCharDistanceSq@@@std@@@std@@@std@@QBEPAUtagBaseCharDistanceSq@@XZ PROC ; std::_Vector_iterator<std::_Vector_val<tagBaseCharDistanceSq,std::allocator<tagBaseCharDistanceSq> > >::_Unchecked, COMDAT
; _this$ = ecx

; 317  : 		return (_Unchecked_type(this->_Ptr));

  00000	8b 01		 mov	 eax, DWORD PTR [ecx]

; 318  : 		}

  00002	c3		 ret	 0
?_Unchecked@?$_Vector_iterator@V?$_Vector_val@UtagBaseCharDistanceSq@@V?$allocator@UtagBaseCharDistanceSq@@@std@@@std@@@std@@QBEPAUtagBaseCharDistanceSq@@XZ ENDP ; std::_Vector_iterator<std::_Vector_val<tagBaseCharDistanceSq,std::allocator<tagBaseCharDistanceSq> > >::_Unchecked
_TEXT	ENDS
PUBLIC	??$_Val_type@PAVioHashString@@@std@@YAPAVioHashString@@PAV1@@Z ; std::_Val_type<ioHashString *>
; Function compile flags: /Ogsp
; File c:\program files (x86)\microsoft visual studio 10.0\vc\include\xutility
;	COMDAT ??$_Val_type@PAVioHashString@@@std@@YAPAVioHashString@@PAV1@@Z
_TEXT	SEGMENT
___formal$ = 8						; size = 4
??$_Val_type@PAVioHashString@@@std@@YAPAVioHashString@@PAV1@@Z PROC ; std::_Val_type<ioHashString *>, COMDAT

; 790  : 	return (0);

  00000	33 c0		 xor	 eax, eax

; 791  : 	}

  00002	c3		 ret	 0
??$_Val_type@PAVioHashString@@@std@@YAPAVioHashString@@PAV1@@Z ENDP ; std::_Val_type<ioHashString *>
_TEXT	ENDS
PUBLIC	??$_Val_type@PAUtagBaseCharDistanceSq@@@std@@YAPAUtagBaseCharDistanceSq@@PAU1@@Z ; std::_Val_type<tagBaseCharDistanceSq *>
; Function compile flags: /Ogsp
;	COMDAT ??$_Val_type@PAUtagBaseCharDistanceSq@@@std@@YAPAUtagBaseCharDistanceSq@@PAU1@@Z
_TEXT	SEGMENT
___formal$ = 8						; size = 4
??$_Val_type@PAUtagBaseCharDistanceSq@@@std@@YAPAUtagBaseCharDistanceSq@@PAU1@@Z PROC ; std::_Val_type<tagBaseCharDistanceSq *>, COMDAT

; 790  : 	return (0);

  00000	33 c0		 xor	 eax, eax

; 791  : 	}

  00002	c3		 ret	 0
??$_Val_type@PAUtagBaseCharDistanceSq@@@std@@YAPAUtagBaseCharDistanceSq@@PAU1@@Z ENDP ; std::_Val_type<tagBaseCharDistanceSq *>
_TEXT	ENDS
PUBLIC	??$_Unchecked@PAUtagBaseCharDistanceSq@@@std@@YAPAUtagBaseCharDistanceSq@@PAU1@@Z ; std::_Unchecked<tagBaseCharDistanceSq *>
; Function compile flags: /Ogsp
;	COMDAT ??$_Unchecked@PAUtagBaseCharDistanceSq@@@std@@YAPAUtagBaseCharDistanceSq@@PAU1@@Z
_TEXT	SEGMENT
__Src$ = 8						; size = 4
??$_Unchecked@PAUtagBaseCharDistanceSq@@@std@@YAPAUtagBaseCharDistanceSq@@PAU1@@Z PROC ; std::_Unchecked<tagBaseCharDistanceSq *>, COMDAT

; 266  : 	{	// construct unchecked from checked, generic

  00000	55		 push	 ebp
  00001	8b ec		 mov	 ebp, esp

; 267  : 	return (_Src);

  00003	8b 45 08	 mov	 eax, DWORD PTR __Src$[ebp]

; 268  : 	}

  00006	5d		 pop	 ebp
  00007	c3		 ret	 0
??$_Unchecked@PAUtagBaseCharDistanceSq@@@std@@YAPAUtagBaseCharDistanceSq@@PAU1@@Z ENDP ; std::_Unchecked<tagBaseCharDistanceSq *>
_TEXT	ENDS
PUBLIC	??$_Dist_type@PAUtagBaseCharDistanceSq@@@std@@YAPAHPAUtagBaseCharDistanceSq@@@Z ; std::_Dist_type<tagBaseCharDistanceSq *>
; Function compile flags: /Ogsp
;	COMDAT ??$_Dist_type@PAUtagBaseCharDistanceSq@@@std@@YAPAHPAUtagBaseCharDistanceSq@@@Z
_TEXT	SEGMENT
___formal$ = 8						; size = 4
??$_Dist_type@PAUtagBaseCharDistanceSq@@@std@@YAPAHPAUtagBaseCharDistanceSq@@@Z PROC ; std::_Dist_type<tagBaseCharDistanceSq *>, COMDAT

; 850  : 	return (0);

  00000	33 c0		 xor	 eax, eax

; 851  : 	}

  00002	c3		 ret	 0
??$_Dist_type@PAUtagBaseCharDistanceSq@@@std@@YAPAHPAUtagBaseCharDistanceSq@@@Z ENDP ; std::_Dist_type<tagBaseCharDistanceSq *>
_TEXT	ENDS
PUBLIC	??4tagBaseCharDistanceSq@@QAEAAU0@ABU0@@Z	; tagBaseCharDistanceSq::operator=
EXTRN	__imp_??4ioHashString@@QAEAAV0@ABV0@@Z:PROC
; Function compile flags: /Ogsp
;	COMDAT ??4tagBaseCharDistanceSq@@QAEAAU0@ABU0@@Z
_TEXT	SEGMENT
___that$ = 8						; size = 4
??4tagBaseCharDistanceSq@@QAEAAU0@ABU0@@Z PROC		; tagBaseCharDistanceSq::operator=, COMDAT
; _this$ = ecx
  00000	55		 push	 ebp
  00001	8b ec		 mov	 ebp, esp
  00003	53		 push	 ebx
  00004	56		 push	 esi
  00005	8b 75 08	 mov	 esi, DWORD PTR ___that$[ebp]
  00008	57		 push	 edi
  00009	56		 push	 esi
  0000a	8b d9		 mov	 ebx, ecx
  0000c	ff 15 00 00 00
	00		 call	 DWORD PTR __imp_??4ioHashString@@QAEAAV0@ABV0@@Z
  00012	d9 46 10	 fld	 DWORD PTR [esi+16]
  00015	83 c6 14	 add	 esi, 20			; 00000014H
  00018	d9 5b 10	 fstp	 DWORD PTR [ebx+16]
  0001b	8d 7b 14	 lea	 edi, DWORD PTR [ebx+20]
  0001e	a5		 movsd
  0001f	a5		 movsd
  00020	a5		 movsd
  00021	5f		 pop	 edi
  00022	5e		 pop	 esi
  00023	8b c3		 mov	 eax, ebx
  00025	5b		 pop	 ebx
  00026	5d		 pop	 ebp
  00027	c2 04 00	 ret	 4
??4tagBaseCharDistanceSq@@QAEAAU0@ABU0@@Z ENDP		; tagBaseCharDistanceSq::operator=
_TEXT	ENDS
PUBLIC	??_GtagBaseCharDistanceSq@@QAEPAXI@Z		; tagBaseCharDistanceSq::`scalar deleting destructor'
; Function compile flags: /Ogsp
;	COMDAT ??_GtagBaseCharDistanceSq@@QAEPAXI@Z
_TEXT	SEGMENT
___flags$ = 8						; size = 4
??_GtagBaseCharDistanceSq@@QAEPAXI@Z PROC		; tagBaseCharDistanceSq::`scalar deleting destructor', COMDAT
; _this$ = ecx
  00000	55		 push	 ebp
  00001	8b ec		 mov	 ebp, esp
  00003	56		 push	 esi
  00004	8b f1		 mov	 esi, ecx
  00006	ff 15 00 00 00
	00		 call	 DWORD PTR __imp_??1ioHashString@@QAE@XZ
  0000c	f6 45 08 01	 test	 BYTE PTR ___flags$[ebp], 1
  00010	74 07		 je	 SHORT $LN1@scalar@2
  00012	56		 push	 esi
  00013	e8 00 00 00 00	 call	 ??3@YAXPAX@Z		; operator delete
  00018	59		 pop	 ecx
$LN1@scalar@2:
  00019	8b c6		 mov	 eax, esi
  0001b	5e		 pop	 esi
  0001c	5d		 pop	 ebp
  0001d	c2 04 00	 ret	 4
??_GtagBaseCharDistanceSq@@QAEPAXI@Z ENDP		; tagBaseCharDistanceSq::`scalar deleting destructor'
_TEXT	ENDS
PUBLIC	??$forward@AAPAUtagBaseCharDistanceSq@@@std@@YAAAPAUtagBaseCharDistanceSq@@AAPAU1@@Z ; std::forward<tagBaseCharDistanceSq * &>
; Function compile flags: /Ogsp
; File c:\program files (x86)\microsoft visual studio 10.0\vc\include\utility
;	COMDAT ??$forward@AAPAUtagBaseCharDistanceSq@@@std@@YAAAPAUtagBaseCharDistanceSq@@AAPAU1@@Z
_TEXT	SEGMENT
__Arg$ = 8						; size = 4
??$forward@AAPAUtagBaseCharDistanceSq@@@std@@YAAAPAUtagBaseCharDistanceSq@@AAPAU1@@Z PROC ; std::forward<tagBaseCharDistanceSq * &>, COMDAT

; 78   : 	{	// forward _Arg, given explicitly specified type parameter

  00000	55		 push	 ebp
  00001	8b ec		 mov	 ebp, esp

; 79   : 	return ((_Ty&&)_Arg);

  00003	8b 45 08	 mov	 eax, DWORD PTR __Arg$[ebp]

; 80   : 	}

  00006	5d		 pop	 ebp
  00007	c3		 ret	 0
??$forward@AAPAUtagBaseCharDistanceSq@@@std@@YAAAPAUtagBaseCharDistanceSq@@AAPAU1@@Z ENDP ; std::forward<tagBaseCharDistanceSq * &>
_TEXT	ENDS
PUBLIC	??$?0AAPAUtagBaseCharDistanceSq@@AAPAU0@@?$_Pair_base@PAUtagBaseCharDistanceSq@@PAU1@@std@@QAE@AAPAUtagBaseCharDistanceSq@@0@Z ; std::_Pair_base<tagBaseCharDistanceSq *,tagBaseCharDistanceSq *>::_Pair_base<tagBaseCharDistanceSq *,tagBaseCharDistanceSq *><tagBaseCharDistanceSq * &,tagBaseCharDistanceSq * &>
; Function compile flags: /Ogsp
;	COMDAT ??$?0AAPAUtagBaseCharDistanceSq@@AAPAU0@@?$_Pair_base@PAUtagBaseCharDistanceSq@@PAU1@@std@@QAE@AAPAUtagBaseCharDistanceSq@@0@Z
_TEXT	SEGMENT
__Val1$ = 8						; size = 4
__Val2$ = 12						; size = 4
??$?0AAPAUtagBaseCharDistanceSq@@AAPAU0@@?$_Pair_base@PAUtagBaseCharDistanceSq@@PAU1@@std@@QAE@AAPAUtagBaseCharDistanceSq@@0@Z PROC ; std::_Pair_base<tagBaseCharDistanceSq *,tagBaseCharDistanceSq *>::_Pair_base<tagBaseCharDistanceSq *,tagBaseCharDistanceSq *><tagBaseCharDistanceSq * &,tagBaseCharDistanceSq * &>, COMDAT
; _this$ = ecx

; 163  : 		{	// construct from moved values

  00000	55		 push	 ebp
  00001	8b ec		 mov	 ebp, esp
  00003	8b c1		 mov	 eax, ecx
  00005	8b 4d 08	 mov	 ecx, DWORD PTR __Val1$[ebp]
  00008	8b 09		 mov	 ecx, DWORD PTR [ecx]
  0000a	89 08		 mov	 DWORD PTR [eax], ecx
  0000c	8b 4d 0c	 mov	 ecx, DWORD PTR __Val2$[ebp]
  0000f	8b 09		 mov	 ecx, DWORD PTR [ecx]
  00011	89 48 04	 mov	 DWORD PTR [eax+4], ecx

; 164  : 		}

  00014	5d		 pop	 ebp
  00015	c2 08 00	 ret	 8
??$?0AAPAUtagBaseCharDistanceSq@@AAPAU0@@?$_Pair_base@PAUtagBaseCharDistanceSq@@PAU1@@std@@QAE@AAPAUtagBaseCharDistanceSq@@0@Z ENDP ; std::_Pair_base<tagBaseCharDistanceSq *,tagBaseCharDistanceSq *>::_Pair_base<tagBaseCharDistanceSq *,tagBaseCharDistanceSq *><tagBaseCharDistanceSq * &,tagBaseCharDistanceSq * &>
_TEXT	ENDS
PUBLIC	??$_Move@AAUtagBaseCharDistanceSq@@@std@@YA$$QAUtagBaseCharDistanceSq@@AAU1@@Z ; std::_Move<tagBaseCharDistanceSq &>
; Function compile flags: /Ogsp
;	COMDAT ??$_Move@AAUtagBaseCharDistanceSq@@@std@@YA$$QAUtagBaseCharDistanceSq@@AAU1@@Z
_TEXT	SEGMENT
__Arg$ = 8						; size = 4
??$_Move@AAUtagBaseCharDistanceSq@@@std@@YA$$QAUtagBaseCharDistanceSq@@AAU1@@Z PROC ; std::_Move<tagBaseCharDistanceSq &>, COMDAT

; 94   : 	{	// forward _Arg as movable

  00000	55		 push	 ebp
  00001	8b ec		 mov	 ebp, esp

; 95   : 	return ((typename tr1::_Remove_reference<_Ty>::_Type&&)_Arg);

  00003	8b 45 08	 mov	 eax, DWORD PTR __Arg$[ebp]

; 96   : 	}

  00006	5d		 pop	 ebp
  00007	c3		 ret	 0
??$_Move@AAUtagBaseCharDistanceSq@@@std@@YA$$QAUtagBaseCharDistanceSq@@AAU1@@Z ENDP ; std::_Move<tagBaseCharDistanceSq &>
_TEXT	ENDS
PUBLIC	??$forward@VioHashString@@@std@@YA$$QAVioHashString@@AAV1@@Z ; std::forward<ioHashString>
; Function compile flags: /Ogsp
;	COMDAT ??$forward@VioHashString@@@std@@YA$$QAVioHashString@@AAV1@@Z
_TEXT	SEGMENT
__Arg$ = 8						; size = 4
??$forward@VioHashString@@@std@@YA$$QAVioHashString@@AAV1@@Z PROC ; std::forward<ioHashString>, COMDAT

; 78   : 	{	// forward _Arg, given explicitly specified type parameter

  00000	55		 push	 ebp
  00001	8b ec		 mov	 ebp, esp

; 79   : 	return ((_Ty&&)_Arg);

  00003	8b 45 08	 mov	 eax, DWORD PTR __Arg$[ebp]

; 80   : 	}

  00006	5d		 pop	 ebp
  00007	c3		 ret	 0
??$forward@VioHashString@@@std@@YA$$QAVioHashString@@AAV1@@Z ENDP ; std::forward<ioHashString>
_TEXT	ENDS
PUBLIC	??$forward@UtagBaseCharDistanceSq@@@std@@YA$$QAUtagBaseCharDistanceSq@@AAU1@@Z ; std::forward<tagBaseCharDistanceSq>
; Function compile flags: /Ogsp
;	COMDAT ??$forward@UtagBaseCharDistanceSq@@@std@@YA$$QAUtagBaseCharDistanceSq@@AAU1@@Z
_TEXT	SEGMENT
__Arg$ = 8						; size = 4
??$forward@UtagBaseCharDistanceSq@@@std@@YA$$QAUtagBaseCharDistanceSq@@AAU1@@Z PROC ; std::forward<tagBaseCharDistanceSq>, COMDAT

; 78   : 	{	// forward _Arg, given explicitly specified type parameter

  00000	55		 push	 ebp
  00001	8b ec		 mov	 ebp, esp

; 79   : 	return ((_Ty&&)_Arg);

  00003	8b 45 08	 mov	 eax, DWORD PTR __Arg$[ebp]

; 80   : 	}

  00006	5d		 pop	 ebp
  00007	c3		 ret	 0
??$forward@UtagBaseCharDistanceSq@@@std@@YA$$QAUtagBaseCharDistanceSq@@AAU1@@Z ENDP ; std::forward<tagBaseCharDistanceSq>
_TEXT	ENDS
PUBLIC	??$move@AAUtagBaseCharDistanceSq@@@std@@YA$$QAUtagBaseCharDistanceSq@@AAU1@@Z ; std::move<tagBaseCharDistanceSq &>
; Function compile flags: /Ogsp
;	COMDAT ??$move@AAUtagBaseCharDistanceSq@@@std@@YA$$QAUtagBaseCharDistanceSq@@AAU1@@Z
_TEXT	SEGMENT
__Arg$ = 8						; size = 4
??$move@AAUtagBaseCharDistanceSq@@@std@@YA$$QAUtagBaseCharDistanceSq@@AAU1@@Z PROC ; std::move<tagBaseCharDistanceSq &>, COMDAT

; 86   : 	{	// forward _Arg as movable

  00000	55		 push	 ebp
  00001	8b ec		 mov	 ebp, esp

; 87   : 	return ((typename tr1::_Remove_reference<_Ty>::_Type&&)_Arg);

  00003	8b 45 08	 mov	 eax, DWORD PTR __Arg$[ebp]

; 88   : 	}

  00006	5d		 pop	 ebp
  00007	c3		 ret	 0
??$move@AAUtagBaseCharDistanceSq@@@std@@YA$$QAUtagBaseCharDistanceSq@@AAU1@@Z ENDP ; std::move<tagBaseCharDistanceSq &>
_TEXT	ENDS
PUBLIC	??0D3DXVECTOR3@@QAE@XZ				; D3DXVECTOR3::D3DXVECTOR3
; Function compile flags: /Ogsp
; File c:\program files (x86)\microsoft directx sdk (june 2010)\include\d3dx9math.h
;	COMDAT ??0D3DXVECTOR3@@QAE@XZ
_TEXT	SEGMENT
??0D3DXVECTOR3@@QAE@XZ PROC				; D3DXVECTOR3::D3DXVECTOR3, COMDAT
; _this$ = ecx

; 165  :     D3DXVECTOR3() {};

  00000	8b c1		 mov	 eax, ecx
  00002	c3		 ret	 0
??0D3DXVECTOR3@@QAE@XZ ENDP				; D3DXVECTOR3::D3DXVECTOR3
_TEXT	ENDS
PUBLIC	??0D3DXVECTOR3@@QAE@MMM@Z			; D3DXVECTOR3::D3DXVECTOR3
; Function compile flags: /Ogsp
; File c:\program files (x86)\microsoft directx sdk (june 2010)\include\d3dx9math.inl
;	COMDAT ??0D3DXVECTOR3@@QAE@MMM@Z
_TEXT	SEGMENT
_fx$ = 8						; size = 4
_fy$ = 12						; size = 4
_fz$ = 16						; size = 4
??0D3DXVECTOR3@@QAE@MMM@Z PROC				; D3DXVECTOR3::D3DXVECTOR3, COMDAT
; _this$ = ecx

; 303  : {

  00000	55		 push	 ebp
  00001	8b ec		 mov	 ebp, esp

; 304  :     x = fx;

  00003	f3 0f 10 45 08	 movss	 xmm0, DWORD PTR _fx$[ebp]
  00008	8b c1		 mov	 eax, ecx
  0000a	f3 0f 11 00	 movss	 DWORD PTR [eax], xmm0

; 305  :     y = fy;

  0000e	f3 0f 10 45 0c	 movss	 xmm0, DWORD PTR _fy$[ebp]
  00013	f3 0f 11 40 04	 movss	 DWORD PTR [eax+4], xmm0

; 306  :     z = fz;

  00018	f3 0f 10 45 10	 movss	 xmm0, DWORD PTR _fz$[ebp]
  0001d	f3 0f 11 40 08	 movss	 DWORD PTR [eax+8], xmm0

; 307  : }

  00022	5d		 pop	 ebp
  00023	c2 0c 00	 ret	 12			; 0000000cH
??0D3DXVECTOR3@@QAE@MMM@Z ENDP				; D3DXVECTOR3::D3DXVECTOR3
_TEXT	ENDS
PUBLIC	??GD3DXVECTOR3@@QBE?AU0@ABU0@@Z			; D3DXVECTOR3::operator-
; Function compile flags: /Ogsp
;	COMDAT ??GD3DXVECTOR3@@QBE?AU0@ABU0@@Z
_TEXT	SEGMENT
___$ReturnUdt$ = 8					; size = 4
_v$ = 12						; size = 4
??GD3DXVECTOR3@@QBE?AU0@ABU0@@Z PROC			; D3DXVECTOR3::operator-, COMDAT
; _this$ = ecx

; 386  : {

  00000	55		 push	 ebp
  00001	8b ec		 mov	 ebp, esp

; 387  :     return D3DXVECTOR3(x - v.x, y - v.y, z - v.z);

  00003	8b 55 0c	 mov	 edx, DWORD PTR _v$[ebp]
  00006	f3 0f 10 01	 movss	 xmm0, DWORD PTR [ecx]
  0000a	f3 0f 10 0a	 movss	 xmm1, DWORD PTR [edx]
  0000e	8b 45 08	 mov	 eax, DWORD PTR ___$ReturnUdt$[ebp]
  00011	0f 5a c0	 cvtps2pd xmm0, xmm0
  00014	0f 5a c9	 cvtps2pd xmm1, xmm1
  00017	f2 0f 5c c1	 subsd	 xmm0, xmm1
  0001b	f3 0f 10 4a 04	 movss	 xmm1, DWORD PTR [edx+4]
  00020	66 0f 5a c0	 cvtpd2ps xmm0, xmm0
  00024	f3 0f 11 00	 movss	 DWORD PTR [eax], xmm0
  00028	f3 0f 10 41 04	 movss	 xmm0, DWORD PTR [ecx+4]
  0002d	0f 5a c0	 cvtps2pd xmm0, xmm0
  00030	0f 5a c9	 cvtps2pd xmm1, xmm1
  00033	f2 0f 5c c1	 subsd	 xmm0, xmm1
  00037	f3 0f 10 4a 08	 movss	 xmm1, DWORD PTR [edx+8]
  0003c	66 0f 5a c0	 cvtpd2ps xmm0, xmm0
  00040	f3 0f 11 40 04	 movss	 DWORD PTR [eax+4], xmm0
  00045	f3 0f 10 41 08	 movss	 xmm0, DWORD PTR [ecx+8]
  0004a	0f 5a c0	 cvtps2pd xmm0, xmm0
  0004d	0f 5a c9	 cvtps2pd xmm1, xmm1
  00050	f2 0f 5c c1	 subsd	 xmm0, xmm1
  00054	66 0f 5a c0	 cvtpd2ps xmm0, xmm0
  00058	f3 0f 11 40 08	 movss	 DWORD PTR [eax+8], xmm0

; 388  : }

  0005d	5d		 pop	 ebp
  0005e	c2 08 00	 ret	 8
??GD3DXVECTOR3@@QBE?AU0@ABU0@@Z ENDP			; D3DXVECTOR3::operator-
_TEXT	ENDS
PUBLIC	?D3DXVec3LengthSq@@YAMPBUD3DXVECTOR3@@@Z	; D3DXVec3LengthSq
; Function compile flags: /Ogsp
;	COMDAT ?D3DXVec3LengthSq@@YAMPBUD3DXVECTOR3@@@Z
_TEXT	SEGMENT
tv165 = 8						; size = 4
_pV$ = 8						; size = 4
?D3DXVec3LengthSq@@YAMPBUD3DXVECTOR3@@@Z PROC		; D3DXVec3LengthSq, COMDAT

; 1725 : {

  00000	55		 push	 ebp
  00001	8b ec		 mov	 ebp, esp

; 1726 : #ifdef D3DX_DEBUG
; 1727 :     if(!pV)
; 1728 :         return 0.0f;
; 1729 : #endif
; 1730 : 
; 1731 :     return pV->x * pV->x + pV->y * pV->y + pV->z * pV->z;

  00003	8b 45 08	 mov	 eax, DWORD PTR _pV$[ebp]
  00006	d9 40 04	 fld	 DWORD PTR [eax+4]
  00009	d9 00		 fld	 DWORD PTR [eax]
  0000b	d9 40 08	 fld	 DWORD PTR [eax+8]
  0000e	d9 c1		 fld	 ST(1)
  00010	de ca		 fmulp	 ST(2), ST(0)
  00012	d9 c2		 fld	 ST(2)
  00014	de cb		 fmulp	 ST(3), ST(0)
  00016	d9 c9		 fxch	 ST(1)
  00018	de c2		 faddp	 ST(2), ST(0)
  0001a	d9 c0		 fld	 ST(0)
  0001c	de c9		 fmulp	 ST(1), ST(0)
  0001e	de c1		 faddp	 ST(1), ST(0)
  00020	d9 5d 08	 fstp	 DWORD PTR tv165[ebp]
  00023	d9 45 08	 fld	 DWORD PTR tv165[ebp]

; 1732 : }

  00026	5d		 pop	 ebp
  00027	c3		 ret	 0
?D3DXVec3LengthSq@@YAMPBUD3DXVECTOR3@@@Z ENDP		; D3DXVec3LengthSq
_TEXT	ENDS
PUBLIC	?_DECSTR@@YAXPADH@Z				; _DECSTR
; Function compile flags: /Ogsp
; File d:\lost saga for developer\youtube\tutorial\source\src\lsclient\stringprotect.h
;	COMDAT ?_DECSTR@@YAXPADH@Z
_TEXT	SEGMENT
_s$ = 8							; size = 4
_l$ = 12						; size = 4
?_DECSTR@@YAXPADH@Z PROC				; _DECSTR, COMDAT

; 40   : __forceinline void _DECSTR(char* s, int l){int i=0,l4=(l-1)/4,*p=(int*)s;s[l-1]=0;for(;i<l4;++i)*(p++)^=0xEAEBECED;for(i=l4*4;i<l-1;++i)s[i]^=0xED-i%4;}

  00000	55		 push	 ebp
  00001	8b ec		 mov	 ebp, esp
  00003	8b 4d 0c	 mov	 ecx, DWORD PTR _l$[ebp]
  00006	56		 push	 esi
  00007	8b 75 08	 mov	 esi, DWORD PTR _s$[ebp]
  0000a	57		 push	 edi
  0000b	8d 79 ff	 lea	 edi, DWORD PTR [ecx-1]
  0000e	8b c7		 mov	 eax, edi
  00010	99		 cdq
  00011	83 e2 03	 and	 edx, 3
  00014	03 c2		 add	 eax, edx
  00016	c1 f8 02	 sar	 eax, 2
  00019	8b d6		 mov	 edx, esi
  0001b	c6 44 0e ff 00	 mov	 BYTE PTR [esi+ecx-1], 0
  00020	85 c0		 test	 eax, eax
  00022	7e 0e		 jle	 SHORT $LN4@DECSTR
  00024	8b c8		 mov	 ecx, eax
$LL6@DECSTR:
  00026	81 32 ed ec eb
	ea		 xor	 DWORD PTR [edx], -353637139 ; eaebecedH
  0002c	83 c2 04	 add	 edx, 4
  0002f	49		 dec	 ecx
  00030	75 f4		 jne	 SHORT $LL6@DECSTR
$LN4@DECSTR:
  00032	c1 e0 02	 shl	 eax, 2
  00035	eb 17		 jmp	 SHORT $LN14@DECSTR
$LL3@DECSTR:
  00037	8b c8		 mov	 ecx, eax
  00039	81 e1 03 00 00
	80		 and	 ecx, -2147483645	; 80000003H
  0003f	79 05		 jns	 SHORT $LN13@DECSTR
  00041	49		 dec	 ecx
  00042	83 c9 fc	 or	 ecx, -4			; fffffffcH
  00045	41		 inc	 ecx
$LN13@DECSTR:
  00046	b2 ed		 mov	 dl, -19			; ffffffedH
  00048	2a d1		 sub	 dl, cl
  0004a	30 14 30	 xor	 BYTE PTR [eax+esi], dl
  0004d	40		 inc	 eax
$LN14@DECSTR:
  0004e	3b c7		 cmp	 eax, edi
  00050	7c e5		 jl	 SHORT $LL3@DECSTR
  00052	5f		 pop	 edi
  00053	5e		 pop	 esi
  00054	5d		 pop	 ebp
  00055	c3		 ret	 0
?_DECSTR@@YAXPADH@Z ENDP				; _DECSTR
_TEXT	ENDS
PUBLIC	?GetGroup@ioGameEntity@@QBEPAVioEntityGroup@@XZ	; ioGameEntity::GetGroup
; Function compile flags: /Ogsp
; File d:\lost saga for developer\youtube\tutorial\source\src\lsclient\iogameentity.h
;	COMDAT ?GetGroup@ioGameEntity@@QBEPAVioEntityGroup@@XZ
_TEXT	SEGMENT
?GetGroup@ioGameEntity@@QBEPAVioEntityGroup@@XZ PROC	; ioGameEntity::GetGroup, COMDAT
; _this$ = ecx

; 166  : 	inline ioEntityGroup* GetGroup() const { return m_pGroup; }

  00000	8b 41 04	 mov	 eax, DWORD PTR [ecx+4]
  00003	c3		 ret	 0
?GetGroup@ioGameEntity@@QBEPAVioEntityGroup@@XZ ENDP	; ioGameEntity::GetGroup
_TEXT	ENDS
PUBLIC	??0tagBaseCharDistanceSq@@QAE@XZ		; tagBaseCharDistanceSq::tagBaseCharDistanceSq
EXTRN	__imp_?VEC3_ZERO@ioMath@@2UD3DXVECTOR3@@A:BYTE
EXTRN	__imp_??0ioHashString@@QAE@XZ:PROC
; Function compile flags: /Ogsp
; File d:\lost saga for developer\youtube\tutorial\source\src\lsclient\playentityhelpstruct.h
;	COMDAT ??0tagBaseCharDistanceSq@@QAE@XZ
_TEXT	SEGMENT
??0tagBaseCharDistanceSq@@QAE@XZ PROC			; tagBaseCharDistanceSq::tagBaseCharDistanceSq, COMDAT
; _this$ = ecx

; 3001 : 	tagBaseCharDistanceSq()

  00000	53		 push	 ebx
  00001	56		 push	 esi
  00002	57		 push	 edi
  00003	8b d9		 mov	 ebx, ecx
  00005	ff 15 00 00 00
	00		 call	 DWORD PTR __imp_??0ioHashString@@QAE@XZ

; 3002 : 	{
; 3003 : 		m_fDistanceSq = 0.0f;

  0000b	0f 57 c0	 xorps	 xmm0, xmm0
  0000e	f3 0f 11 43 10	 movss	 DWORD PTR [ebx+16], xmm0

; 3004 : 		m_vPos = ioMath::VEC3_ZERO;

  00013	8b 35 00 00 00
	00		 mov	 esi, DWORD PTR __imp_?VEC3_ZERO@ioMath@@2UD3DXVECTOR3@@A
  00019	8d 7b 14	 lea	 edi, DWORD PTR [ebx+20]
  0001c	a5		 movsd
  0001d	a5		 movsd
  0001e	a5		 movsd
  0001f	5f		 pop	 edi
  00020	5e		 pop	 esi

; 3005 : 	}

  00021	8b c3		 mov	 eax, ebx
  00023	5b		 pop	 ebx
  00024	c3		 ret	 0
??0tagBaseCharDistanceSq@@QAE@XZ ENDP			; tagBaseCharDistanceSq::tagBaseCharDistanceSq
_TEXT	ENDS
PUBLIC	??RBaseCharDistanceSqSort@@QBE_NABUtagBaseCharDistanceSq@@0@Z ; BaseCharDistanceSqSort::operator()
; Function compile flags: /Ogsp
;	COMDAT ??RBaseCharDistanceSqSort@@QBE_NABUtagBaseCharDistanceSq@@0@Z
_TEXT	SEGMENT
_lhs$ = 8						; size = 4
_rhs$ = 12						; size = 4
??RBaseCharDistanceSqSort@@QBE_NABUtagBaseCharDistanceSq@@0@Z PROC ; BaseCharDistanceSqSort::operator(), COMDAT
; _this$ = ecx

; 3015 : 	{

  00000	55		 push	 ebp
  00001	8b ec		 mov	 ebp, esp

; 3016 : 		if( lhs.m_fDistanceSq > rhs.m_fDistanceSq )

  00003	8b 45 08	 mov	 eax, DWORD PTR _lhs$[ebp]
  00006	f3 0f 10 40 10	 movss	 xmm0, DWORD PTR [eax+16]
  0000b	8b 45 0c	 mov	 eax, DWORD PTR _rhs$[ebp]
  0000e	f3 0f 10 48 10	 movss	 xmm1, DWORD PTR [eax+16]
  00013	0f 5a c0	 cvtps2pd xmm0, xmm0
  00016	0f 5a c9	 cvtps2pd xmm1, xmm1
  00019	66 0f 2f c1	 comisd	 xmm0, xmm1
  0001d	76 04		 jbe	 SHORT $LN1@operator

; 3017 : 		{
; 3018 : 			return true;

  0001f	b0 01		 mov	 al, 1
  00021	eb 02		 jmp	 SHORT $LN2@operator
$LN1@operator:

; 3019 : 		}
; 3020 : 
; 3021 : 		return false;

  00023	32 c0		 xor	 al, al
$LN2@operator:

; 3022 : 	}

  00025	5d		 pop	 ebp
  00026	c2 08 00	 ret	 8
??RBaseCharDistanceSqSort@@QBE_NABUtagBaseCharDistanceSq@@0@Z ENDP ; BaseCharDistanceSqSort::operator()
_TEXT	ENDS
PUBLIC	?GetOwnerItem@ioSkill@@QBEPAVioItem@@XZ		; ioSkill::GetOwnerItem
; Function compile flags: /Ogsp
; File d:\lost saga for developer\youtube\tutorial\source\src\lsclient\ioskill.h
;	COMDAT ?GetOwnerItem@ioSkill@@QBEPAVioItem@@XZ
_TEXT	SEGMENT
?GetOwnerItem@ioSkill@@QBEPAVioItem@@XZ PROC		; ioSkill::GetOwnerItem, COMDAT
; _this$ = ecx

; 397  : 	inline ioItem *GetOwnerItem() const { return m_pOwnerItem; }

  00000	8b 81 a4 02 00
	00		 mov	 eax, DWORD PTR [ecx+676]
  00006	c3		 ret	 0
?GetOwnerItem@ioSkill@@QBEPAVioItem@@XZ ENDP		; ioSkill::GetOwnerItem
_TEXT	ENDS
PUBLIC	?GetName@ioSkill@@QBEABVioHashString@@XZ	; ioSkill::GetName
; Function compile flags: /Ogsp
;	COMDAT ?GetName@ioSkill@@QBEABVioHashString@@XZ
_TEXT	SEGMENT
?GetName@ioSkill@@QBEABVioHashString@@XZ PROC		; ioSkill::GetName, COMDAT
; _this$ = ecx

; 414  : 	inline const ioHashString& GetName() const { return m_Name; }

  00000	8d 41 24	 lea	 eax, DWORD PTR [ecx+36]
  00003	c3		 ret	 0
?GetName@ioSkill@@QBEABVioHashString@@XZ ENDP		; ioSkill::GetName
_TEXT	ENDS
PUBLIC	?size@?$vector@VioHashString@@V?$allocator@VioHashString@@@std@@@std@@QBEIXZ ; std::vector<ioHashString,std::allocator<ioHashString> >::size
; Function compile flags: /Ogsp
; File c:\program files (x86)\microsoft visual studio 10.0\vc\include\vector
;	COMDAT ?size@?$vector@VioHashString@@V?$allocator@VioHashString@@@std@@@std@@QBEIXZ
_TEXT	SEGMENT
?size@?$vector@VioHashString@@V?$allocator@VioHashString@@@std@@@std@@QBEIXZ PROC ; std::vector<ioHashString,std::allocator<ioHashString> >::size, COMDAT
; _this$ = ecx

; 879  : 		return (this->_Mylast - this->_Myfirst);

  00000	8b 41 04	 mov	 eax, DWORD PTR [ecx+4]
  00003	2b 01		 sub	 eax, DWORD PTR [ecx]
  00005	c1 f8 04	 sar	 eax, 4

; 880  : 		}

  00008	c3		 ret	 0
?size@?$vector@VioHashString@@V?$allocator@VioHashString@@@std@@@std@@QBEIXZ ENDP ; std::vector<ioHashString,std::allocator<ioHashString> >::size
_TEXT	ENDS
PUBLIC	??_7?$CEncrypt@M@@6B@				; CEncrypt<float>::`vftable'
PUBLIC	??1?$CEncrypt@M@@UAE@XZ				; CEncrypt<float>::~CEncrypt<float>
PUBLIC	??_R4?$CEncrypt@M@@6B@				; CEncrypt<float>::`RTTI Complete Object Locator'
PUBLIC	??_R0?AV?$CEncrypt@M@@@8			; CEncrypt<float> `RTTI Type Descriptor'
PUBLIC	??_R3?$CEncrypt@M@@8				; CEncrypt<float>::`RTTI Class Hierarchy Descriptor'
PUBLIC	??_R2?$CEncrypt@M@@8				; CEncrypt<float>::`RTTI Base Class Array'
PUBLIC	??_R1A@?0A@EA@?$CEncrypt@M@@8			; CEncrypt<float>::`RTTI Base Class Descriptor at (0,-1,0,64)'
EXTRN	??1ccddaabb@@UAE@XZ:PROC			; ccddaabb::~ccddaabb
EXTRN	??_E?$CEncrypt@M@@UAEPAXI@Z:PROC		; CEncrypt<float>::`vector deleting destructor'
;	COMDAT ??_R1A@?0A@EA@?$CEncrypt@M@@8
; File d:\lost saga for developer\youtube\tutorial\source\src\lsclient\encryptvalue.h
rdata$r	SEGMENT
??_R1A@?0A@EA@?$CEncrypt@M@@8 DD FLAT:??_R0?AV?$CEncrypt@M@@@8 ; CEncrypt<float>::`RTTI Base Class Descriptor at (0,-1,0,64)'
	DD	00H
	DD	00H
	DD	0ffffffffH
	DD	00H
	DD	040H
	DD	FLAT:??_R3?$CEncrypt@M@@8
rdata$r	ENDS
;	COMDAT ??_R2?$CEncrypt@M@@8
rdata$r	SEGMENT
??_R2?$CEncrypt@M@@8 DD FLAT:??_R1A@?0A@EA@?$CEncrypt@M@@8 ; CEncrypt<float>::`RTTI Base Class Array'
rdata$r	ENDS
;	COMDAT ??_R3?$CEncrypt@M@@8
rdata$r	SEGMENT
??_R3?$CEncrypt@M@@8 DD 00H				; CEncrypt<float>::`RTTI Class Hierarchy Descriptor'
	DD	00H
	DD	01H
	DD	FLAT:??_R2?$CEncrypt@M@@8
rdata$r	ENDS
;	COMDAT ??_R0?AV?$CEncrypt@M@@@8
_DATA	SEGMENT
??_R0?AV?$CEncrypt@M@@@8 DD FLAT:??_7type_info@@6B@	; CEncrypt<float> `RTTI Type Descriptor'
	DD	00H
	DB	'.?AV?$CEncrypt@M@@', 00H
_DATA	ENDS
;	COMDAT ??_R4?$CEncrypt@M@@6B@
rdata$r	SEGMENT
??_R4?$CEncrypt@M@@6B@ DD 00H				; CEncrypt<float>::`RTTI Complete Object Locator'
	DD	00H
	DD	00H
	DD	FLAT:??_R0?AV?$CEncrypt@M@@@8
	DD	FLAT:??_R3?$CEncrypt@M@@8
rdata$r	ENDS
;	COMDAT ??_7?$CEncrypt@M@@6B@
CONST	SEGMENT
??_7?$CEncrypt@M@@6B@ DD FLAT:??_R4?$CEncrypt@M@@6B@	; CEncrypt<float>::`vftable'
	DD	FLAT:??_E?$CEncrypt@M@@UAEPAXI@Z
; Function compile flags: /Ogsp
CONST	ENDS
;	COMDAT ??1?$CEncrypt@M@@UAE@XZ
_TEXT	SEGMENT
??1?$CEncrypt@M@@UAE@XZ PROC				; CEncrypt<float>::~CEncrypt<float>, COMDAT
; _this$ = ecx

; 127  : 	{

  00000	c7 01 00 00 00
	00		 mov	 DWORD PTR [ecx], OFFSET ??_7?$CEncrypt@M@@6B@

; 128  : 	}

  00006	83 c1 0c	 add	 ecx, 12			; 0000000cH
  00009	e9 00 00 00 00	 jmp	 ??1ccddaabb@@UAE@XZ	; ccddaabb::~ccddaabb
??1?$CEncrypt@M@@UAE@XZ ENDP				; CEncrypt<float>::~CEncrypt<float>
_TEXT	ENDS
PUBLIC	??_7?$CEncrypt@K@@6B@				; CEncrypt<unsigned long>::`vftable'
PUBLIC	??1?$CEncrypt@K@@UAE@XZ				; CEncrypt<unsigned long>::~CEncrypt<unsigned long>
PUBLIC	??_R4?$CEncrypt@K@@6B@				; CEncrypt<unsigned long>::`RTTI Complete Object Locator'
PUBLIC	??_R0?AV?$CEncrypt@K@@@8			; CEncrypt<unsigned long> `RTTI Type Descriptor'
PUBLIC	??_R3?$CEncrypt@K@@8				; CEncrypt<unsigned long>::`RTTI Class Hierarchy Descriptor'
PUBLIC	??_R2?$CEncrypt@K@@8				; CEncrypt<unsigned long>::`RTTI Base Class Array'
PUBLIC	??_R1A@?0A@EA@?$CEncrypt@K@@8			; CEncrypt<unsigned long>::`RTTI Base Class Descriptor at (0,-1,0,64)'
EXTRN	??_E?$CEncrypt@K@@UAEPAXI@Z:PROC		; CEncrypt<unsigned long>::`vector deleting destructor'
;	COMDAT ??_R1A@?0A@EA@?$CEncrypt@K@@8
rdata$r	SEGMENT
??_R1A@?0A@EA@?$CEncrypt@K@@8 DD FLAT:??_R0?AV?$CEncrypt@K@@@8 ; CEncrypt<unsigned long>::`RTTI Base Class Descriptor at (0,-1,0,64)'
	DD	00H
	DD	00H
	DD	0ffffffffH
	DD	00H
	DD	040H
	DD	FLAT:??_R3?$CEncrypt@K@@8
rdata$r	ENDS
;	COMDAT ??_R2?$CEncrypt@K@@8
rdata$r	SEGMENT
??_R2?$CEncrypt@K@@8 DD FLAT:??_R1A@?0A@EA@?$CEncrypt@K@@8 ; CEncrypt<unsigned long>::`RTTI Base Class Array'
rdata$r	ENDS
;	COMDAT ??_R3?$CEncrypt@K@@8
rdata$r	SEGMENT
??_R3?$CEncrypt@K@@8 DD 00H				; CEncrypt<unsigned long>::`RTTI Class Hierarchy Descriptor'
	DD	00H
	DD	01H
	DD	FLAT:??_R2?$CEncrypt@K@@8
rdata$r	ENDS
;	COMDAT ??_R0?AV?$CEncrypt@K@@@8
_DATA	SEGMENT
??_R0?AV?$CEncrypt@K@@@8 DD FLAT:??_7type_info@@6B@	; CEncrypt<unsigned long> `RTTI Type Descriptor'
	DD	00H
	DB	'.?AV?$CEncrypt@K@@', 00H
_DATA	ENDS
;	COMDAT ??_R4?$CEncrypt@K@@6B@
rdata$r	SEGMENT
??_R4?$CEncrypt@K@@6B@ DD 00H				; CEncrypt<unsigned long>::`RTTI Complete Object Locator'
	DD	00H
	DD	00H
	DD	FLAT:??_R0?AV?$CEncrypt@K@@@8
	DD	FLAT:??_R3?$CEncrypt@K@@8
rdata$r	ENDS
;	COMDAT ??_7?$CEncrypt@K@@6B@
CONST	SEGMENT
??_7?$CEncrypt@K@@6B@ DD FLAT:??_R4?$CEncrypt@K@@6B@	; CEncrypt<unsigned long>::`vftable'
	DD	FLAT:??_E?$CEncrypt@K@@UAEPAXI@Z
; Function compile flags: /Ogsp
CONST	ENDS
;	COMDAT ??1?$CEncrypt@K@@UAE@XZ
_TEXT	SEGMENT
??1?$CEncrypt@K@@UAE@XZ PROC				; CEncrypt<unsigned long>::~CEncrypt<unsigned long>, COMDAT
; _this$ = ecx

; 127  : 	{

  00000	c7 01 00 00 00
	00		 mov	 DWORD PTR [ecx], OFFSET ??_7?$CEncrypt@K@@6B@

; 128  : 	}

  00006	83 c1 0c	 add	 ecx, 12			; 0000000cH
  00009	e9 00 00 00 00	 jmp	 ??1ccddaabb@@UAE@XZ	; ccddaabb::~ccddaabb
??1?$CEncrypt@K@@UAE@XZ ENDP				; CEncrypt<unsigned long>::~CEncrypt<unsigned long>
_TEXT	ENDS
PUBLIC	??_7?$CEncrypt@H@@6B@				; CEncrypt<int>::`vftable'
PUBLIC	??1?$CEncrypt@H@@UAE@XZ				; CEncrypt<int>::~CEncrypt<int>
PUBLIC	??_R4?$CEncrypt@H@@6B@				; CEncrypt<int>::`RTTI Complete Object Locator'
PUBLIC	??_R0?AV?$CEncrypt@H@@@8			; CEncrypt<int> `RTTI Type Descriptor'
PUBLIC	??_R3?$CEncrypt@H@@8				; CEncrypt<int>::`RTTI Class Hierarchy Descriptor'
PUBLIC	??_R2?$CEncrypt@H@@8				; CEncrypt<int>::`RTTI Base Class Array'
PUBLIC	??_R1A@?0A@EA@?$CEncrypt@H@@8			; CEncrypt<int>::`RTTI Base Class Descriptor at (0,-1,0,64)'
EXTRN	??_E?$CEncrypt@H@@UAEPAXI@Z:PROC		; CEncrypt<int>::`vector deleting destructor'
;	COMDAT ??_R1A@?0A@EA@?$CEncrypt@H@@8
rdata$r	SEGMENT
??_R1A@?0A@EA@?$CEncrypt@H@@8 DD FLAT:??_R0?AV?$CEncrypt@H@@@8 ; CEncrypt<int>::`RTTI Base Class Descriptor at (0,-1,0,64)'
	DD	00H
	DD	00H
	DD	0ffffffffH
	DD	00H
	DD	040H
	DD	FLAT:??_R3?$CEncrypt@H@@8
rdata$r	ENDS
;	COMDAT ??_R2?$CEncrypt@H@@8
rdata$r	SEGMENT
??_R2?$CEncrypt@H@@8 DD FLAT:??_R1A@?0A@EA@?$CEncrypt@H@@8 ; CEncrypt<int>::`RTTI Base Class Array'
rdata$r	ENDS
;	COMDAT ??_R3?$CEncrypt@H@@8
rdata$r	SEGMENT
??_R3?$CEncrypt@H@@8 DD 00H				; CEncrypt<int>::`RTTI Class Hierarchy Descriptor'
	DD	00H
	DD	01H
	DD	FLAT:??_R2?$CEncrypt@H@@8
rdata$r	ENDS
;	COMDAT ??_R0?AV?$CEncrypt@H@@@8
_DATA	SEGMENT
??_R0?AV?$CEncrypt@H@@@8 DD FLAT:??_7type_info@@6B@	; CEncrypt<int> `RTTI Type Descriptor'
	DD	00H
	DB	'.?AV?$CEncrypt@H@@', 00H
_DATA	ENDS
;	COMDAT ??_R4?$CEncrypt@H@@6B@
rdata$r	SEGMENT
??_R4?$CEncrypt@H@@6B@ DD 00H				; CEncrypt<int>::`RTTI Complete Object Locator'
	DD	00H
	DD	00H
	DD	FLAT:??_R0?AV?$CEncrypt@H@@@8
	DD	FLAT:??_R3?$CEncrypt@H@@8
rdata$r	ENDS
;	COMDAT ??_7?$CEncrypt@H@@6B@
CONST	SEGMENT
??_7?$CEncrypt@H@@6B@ DD FLAT:??_R4?$CEncrypt@H@@6B@	; CEncrypt<int>::`vftable'
	DD	FLAT:??_E?$CEncrypt@H@@UAEPAXI@Z
; Function compile flags: /Ogsp
CONST	ENDS
;	COMDAT ??1?$CEncrypt@H@@UAE@XZ
_TEXT	SEGMENT
??1?$CEncrypt@H@@UAE@XZ PROC				; CEncrypt<int>::~CEncrypt<int>, COMDAT
; _this$ = ecx

; 127  : 	{

  00000	c7 01 00 00 00
	00		 mov	 DWORD PTR [ecx], OFFSET ??_7?$CEncrypt@H@@6B@

; 128  : 	}

  00006	83 c1 0c	 add	 ecx, 12			; 0000000cH
  00009	e9 00 00 00 00	 jmp	 ??1ccddaabb@@UAE@XZ	; ccddaabb::~ccddaabb
??1?$CEncrypt@H@@UAE@XZ ENDP				; CEncrypt<int>::~CEncrypt<int>
; Function compile flags: /Ogsp
_TEXT	ENDS
;	COMDAT ??_G?$CEncrypt@M@@UAEPAXI@Z
_TEXT	SEGMENT
___flags$ = 8						; size = 4
??_G?$CEncrypt@M@@UAEPAXI@Z PROC			; CEncrypt<float>::`scalar deleting destructor', COMDAT
; _this$ = ecx
  00000	55		 push	 ebp
  00001	8b ec		 mov	 ebp, esp
  00003	56		 push	 esi
  00004	8b f1		 mov	 esi, ecx
  00006	8d 4e 0c	 lea	 ecx, DWORD PTR [esi+12]
  00009	c7 06 00 00 00
	00		 mov	 DWORD PTR [esi], OFFSET ??_7?$CEncrypt@M@@6B@
  0000f	e8 00 00 00 00	 call	 ??1ccddaabb@@UAE@XZ	; ccddaabb::~ccddaabb
  00014	f6 45 08 01	 test	 BYTE PTR ___flags$[ebp], 1
  00018	74 07		 je	 SHORT $LN1@scalar@3
  0001a	56		 push	 esi
  0001b	e8 00 00 00 00	 call	 ??3@YAXPAX@Z		; operator delete
  00020	59		 pop	 ecx
$LN1@scalar@3:
  00021	8b c6		 mov	 eax, esi
  00023	5e		 pop	 esi
  00024	5d		 pop	 ebp
  00025	c2 04 00	 ret	 4
??_G?$CEncrypt@M@@UAEPAXI@Z ENDP			; CEncrypt<float>::`scalar deleting destructor'
; Function compile flags: /Ogsp
_TEXT	ENDS
;	COMDAT ??_G?$CEncrypt@K@@UAEPAXI@Z
_TEXT	SEGMENT
___flags$ = 8						; size = 4
??_G?$CEncrypt@K@@UAEPAXI@Z PROC			; CEncrypt<unsigned long>::`scalar deleting destructor', COMDAT
; _this$ = ecx
  00000	55		 push	 ebp
  00001	8b ec		 mov	 ebp, esp
  00003	56		 push	 esi
  00004	8b f1		 mov	 esi, ecx
  00006	8d 4e 0c	 lea	 ecx, DWORD PTR [esi+12]
  00009	c7 06 00 00 00
	00		 mov	 DWORD PTR [esi], OFFSET ??_7?$CEncrypt@K@@6B@
  0000f	e8 00 00 00 00	 call	 ??1ccddaabb@@UAE@XZ	; ccddaabb::~ccddaabb
  00014	f6 45 08 01	 test	 BYTE PTR ___flags$[ebp], 1
  00018	74 07		 je	 SHORT $LN1@scalar@4
  0001a	56		 push	 esi
  0001b	e8 00 00 00 00	 call	 ??3@YAXPAX@Z		; operator delete
  00020	59		 pop	 ecx
$LN1@scalar@4:
  00021	8b c6		 mov	 eax, esi
  00023	5e		 pop	 esi
  00024	5d		 pop	 ebp
  00025	c2 04 00	 ret	 4
??_G?$CEncrypt@K@@UAEPAXI@Z ENDP			; CEncrypt<unsigned long>::`scalar deleting destructor'
; Function compile flags: /Ogsp
_TEXT	ENDS
;	COMDAT ??_G?$CEncrypt@H@@UAEPAXI@Z
_TEXT	SEGMENT
___flags$ = 8						; size = 4
??_G?$CEncrypt@H@@UAEPAXI@Z PROC			; CEncrypt<int>::`scalar deleting destructor', COMDAT
; _this$ = ecx
  00000	55		 push	 ebp
  00001	8b ec		 mov	 ebp, esp
  00003	56		 push	 esi
  00004	8b f1		 mov	 esi, ecx
  00006	8d 4e 0c	 lea	 ecx, DWORD PTR [esi+12]
  00009	c7 06 00 00 00
	00		 mov	 DWORD PTR [esi], OFFSET ??_7?$CEncrypt@H@@6B@
  0000f	e8 00 00 00 00	 call	 ??1ccddaabb@@UAE@XZ	; ccddaabb::~ccddaabb
  00014	f6 45 08 01	 test	 BYTE PTR ___flags$[ebp], 1
  00018	74 07		 je	 SHORT $LN1@scalar@5
  0001a	56		 push	 esi
  0001b	e8 00 00 00 00	 call	 ??3@YAXPAX@Z		; operator delete
  00020	59		 pop	 ecx
$LN1@scalar@5:
  00021	8b c6		 mov	 eax, esi
  00023	5e		 pop	 esi
  00024	5d		 pop	 ebp
  00025	c2 04 00	 ret	 4
??_G?$CEncrypt@H@@UAEPAXI@Z ENDP			; CEncrypt<int>::`scalar deleting destructor'
_TEXT	ENDS
PUBLIC	??1?$_Vector_val@VioHashString@@V?$allocator@VioHashString@@@std@@@std@@QAE@XZ ; std::_Vector_val<ioHashString,std::allocator<ioHashString> >::~_Vector_val<ioHashString,std::allocator<ioHashString> >
; Function compile flags: /Ogsp
; File c:\program files (x86)\microsoft visual studio 10.0\vc\include\vector
;	COMDAT ??1?$_Vector_val@VioHashString@@V?$allocator@VioHashString@@@std@@@std@@QAE@XZ
_TEXT	SEGMENT
??1?$_Vector_val@VioHashString@@V?$allocator@VioHashString@@@std@@@std@@QAE@XZ PROC ; std::_Vector_val<ioHashString,std::allocator<ioHashString> >::~_Vector_val<ioHashString,std::allocator<ioHashString> >, COMDAT
; _this$ = ecx

; 434  : 		}

  00000	c3		 ret	 0
??1?$_Vector_val@VioHashString@@V?$allocator@VioHashString@@@std@@@std@@QAE@XZ ENDP ; std::_Vector_val<ioHashString,std::allocator<ioHashString> >::~_Vector_val<ioHashString,std::allocator<ioHashString> >
_TEXT	ENDS
PUBLIC	??0?$allocator@VioHashString@@@std@@QAE@XZ	; std::allocator<ioHashString>::allocator<ioHashString>
; Function compile flags: /Ogsp
; File c:\program files (x86)\microsoft visual studio 10.0\vc\include\xmemory
;	COMDAT ??0?$allocator@VioHashString@@@std@@QAE@XZ
_TEXT	SEGMENT
??0?$allocator@VioHashString@@@std@@QAE@XZ PROC		; std::allocator<ioHashString>::allocator<ioHashString>, COMDAT
; _this$ = ecx

; 161  : 	_ALLOCATOR() _THROW0()

  00000	8b c1		 mov	 eax, ecx

; 162  : 		{	// construct default allocator (do nothing)
; 163  : 		}

  00002	c3		 ret	 0
??0?$allocator@VioHashString@@@std@@QAE@XZ ENDP		; std::allocator<ioHashString>::allocator<ioHashString>
_TEXT	ENDS
PUBLIC	??0?$allocator@VioHashString@@@std@@QAE@ABV01@@Z ; std::allocator<ioHashString>::allocator<ioHashString>
; Function compile flags: /Ogsp
;	COMDAT ??0?$allocator@VioHashString@@@std@@QAE@ABV01@@Z
_TEXT	SEGMENT
___formal$ = 8						; size = 4
??0?$allocator@VioHashString@@@std@@QAE@ABV01@@Z PROC	; std::allocator<ioHashString>::allocator<ioHashString>, COMDAT
; _this$ = ecx

; 165  : 	_ALLOCATOR(const _ALLOCATOR<_Ty>&) _THROW0()

  00000	8b c1		 mov	 eax, ecx

; 166  : 		{	// construct by copying (do nothing)
; 167  : 		}

  00002	c2 04 00	 ret	 4
??0?$allocator@VioHashString@@@std@@QAE@ABV01@@Z ENDP	; std::allocator<ioHashString>::allocator<ioHashString>
_TEXT	ENDS
PUBLIC	?EncryptValueToPool@?$CEncrypt@M@@AAEXPBD@Z	; CEncrypt<float>::EncryptValueToPool
EXTRN	?EncryptByte@ccddaabb@@QAEXPBDPADH@Z:PROC	; ccddaabb::EncryptByte
; Function compile flags: /Ogsp
; File d:\lost saga for developer\youtube\tutorial\source\src\lsclient\encryptvalue.h
;	COMDAT ?EncryptValueToPool@?$CEncrypt@M@@AAEXPBD@Z
_TEXT	SEGMENT
_value$ = 8						; size = 4
?EncryptValueToPool@?$CEncrypt@M@@AAEXPBD@Z PROC	; CEncrypt<float>::EncryptValueToPool, COMDAT
; _this$ = ecx

; 67   : 	{

  00000	55		 push	 ebp
  00001	8b ec		 mov	 ebp, esp

; 68   : 		m_RC5.EncryptByte( value, m_MemPool, max(m_ValueSize, DEFAULT_ENCRYPT) );

  00003	0f b7 41 06	 movzx	 eax, WORD PTR [ecx+6]
  00007	83 f8 04	 cmp	 eax, 4
  0000a	77 03		 ja	 SHORT $LN4@EncryptVal
  0000c	6a 04		 push	 4
  0000e	58		 pop	 eax
$LN4@EncryptVal:
  0000f	50		 push	 eax
  00010	8d 41 1c	 lea	 eax, DWORD PTR [ecx+28]
  00013	50		 push	 eax
  00014	ff 75 08	 push	 DWORD PTR _value$[ebp]
  00017	83 c1 0c	 add	 ecx, 12			; 0000000cH
  0001a	e8 00 00 00 00	 call	 ?EncryptByte@ccddaabb@@QAEXPBDPADH@Z ; ccddaabb::EncryptByte

; 69   : 		
; 70   : 	}

  0001f	5d		 pop	 ebp
  00020	c2 04 00	 ret	 4
?EncryptValueToPool@?$CEncrypt@M@@AAEXPBD@Z ENDP	; CEncrypt<float>::EncryptValueToPool
_TEXT	ENDS
PUBLIC	?Init@?$CEncrypt@M@@AAEXXZ			; CEncrypt<float>::Init
EXTRN	?Setup@ccddaabb@@QAEXPBDHH@Z:PROC		; ccddaabb::Setup
EXTRN	__imp__rand:PROC
EXTRN	__imp__timeGetTime@0:PROC
EXTRN	__imp__GetCurrentProcessId@0:PROC
; Function compile flags: /Ogsp
;	COMDAT ?Init@?$CEncrypt@M@@AAEXXZ
_TEXT	SEGMENT
_pid$ = -8						; size = 4
_tick$ = -4						; size = 4
?Init@?$CEncrypt@M@@AAEXXZ PROC				; CEncrypt<float>::Init, COMDAT
; _this$ = ecx

; 73   : 	{

  00000	55		 push	 ebp
  00001	8b ec		 mov	 ebp, esp
  00003	51		 push	 ecx
  00004	51		 push	 ecx
  00005	53		 push	 ebx
  00006	56		 push	 esi
  00007	57		 push	 edi
  00008	8b f1		 mov	 esi, ecx

; 74   : 		DWORD pid = GetCurrentProcessId();

  0000a	ff 15 00 00 00
	00		 call	 DWORD PTR __imp__GetCurrentProcessId@0
  00010	89 45 f8	 mov	 DWORD PTR _pid$[ebp], eax

; 75   : 		DWORD tick = timeGetTime();

  00013	ff 15 00 00 00
	00		 call	 DWORD PTR __imp__timeGetTime@0

; 76   : 		m_ValueSize    = sizeof(type);
; 77   : 		m_MemPoolPos   = (unsigned short)( rand()+pid+tick )%(MAX_MEM_POOL-m_ValueSize);

  00019	8b 3d 00 00 00
	00		 mov	 edi, DWORD PTR __imp__rand
  0001f	89 45 fc	 mov	 DWORD PTR _tick$[ebp], eax
  00022	6a 04		 push	 4
  00024	58		 pop	 eax
  00025	66 89 46 06	 mov	 WORD PTR [esi+6], ax
  00029	ff d7		 call	 edi
  0002b	03 45 f8	 add	 eax, DWORD PTR _pid$[ebp]
  0002e	0f b7 4e 06	 movzx	 ecx, WORD PTR [esi+6]
  00032	03 45 fc	 add	 eax, DWORD PTR _tick$[ebp]
  00035	6a 0c		 push	 12			; 0000000cH
  00037	0f b7 c0	 movzx	 eax, ax
  0003a	5b		 pop	 ebx
  0003b	99		 cdq
  0003c	2b d9		 sub	 ebx, ecx
  0003e	f7 fb		 idiv	 ebx
  00040	66 89 56 04	 mov	 WORD PTR [esi+4], dx

; 78   : 		m_EncryptSeed  = (char)( rand()+pid+tick )%256;

  00044	ff d7		 call	 edi
  00046	02 45 f8	 add	 al, BYTE PTR _pid$[ebp]
  00049	02 45 fc	 add	 al, BYTE PTR _tick$[ebp]
  0004c	0f be c0	 movsx	 eax, al
  0004f	25 ff 00 00 80	 and	 eax, -2147483393	; 800000ffH
  00054	79 07		 jns	 SHORT $LN8@Init
  00056	48		 dec	 eax
  00057	0d 00 ff ff ff	 or	 eax, -256		; ffffff00H
  0005c	40		 inc	 eax
$LN8@Init:
  0005d	88 46 08	 mov	 BYTE PTR [esi+8], al

; 79   : 
; 80   : 		for (int i = 0; i < MAX_MEM_POOL ; i++)

  00060	33 db		 xor	 ebx, ebx
$LL3@Init:

; 81   : 			m_MemPool[i] = (char)( rand()+pid+tick )%256; // 

  00062	ff d7		 call	 edi
  00064	02 45 f8	 add	 al, BYTE PTR _pid$[ebp]
  00067	02 45 fc	 add	 al, BYTE PTR _tick$[ebp]
  0006a	0f be c0	 movsx	 eax, al
  0006d	25 ff 00 00 80	 and	 eax, -2147483393	; 800000ffH
  00072	79 07		 jns	 SHORT $LN9@Init
  00074	48		 dec	 eax
  00075	0d 00 ff ff ff	 or	 eax, -256		; ffffff00H
  0007a	40		 inc	 eax
$LN9@Init:
  0007b	88 44 1e 1c	 mov	 BYTE PTR [esi+ebx+28], al
  0007f	43		 inc	 ebx
  00080	83 fb 0c	 cmp	 ebx, 12			; 0000000cH
  00083	7c dd		 jl	 SHORT $LL3@Init

; 82   : 
; 83   : 		//UJ 130913, : szKey  
; 84   : 		//char szKey[ccddaabb::KEY_SIZE];//="";
; 85   : 		//for (int i = 0; i < ccddaabb::KEY_SIZE  ; i++)
; 86   : 		//	szKey[i] = (char)( rand()+pid+tick )%256; // 
; 87   : 		m_RC5.Setup( NULL, pid, tick );

  00085	ff 75 fc	 push	 DWORD PTR _tick$[ebp]
  00088	8d 4e 0c	 lea	 ecx, DWORD PTR [esi+12]
  0008b	ff 75 f8	 push	 DWORD PTR _pid$[ebp]
  0008e	6a 00		 push	 0
  00090	e8 00 00 00 00	 call	 ?Setup@ccddaabb@@QAEXPBDHH@Z ; ccddaabb::Setup
  00095	5f		 pop	 edi
  00096	5e		 pop	 esi
  00097	5b		 pop	 ebx

; 88   : 
; 89   : #ifdef _NOTUSE
; 90   : 		m_value        = 0;
; 91   : 		EncryptValueToPool((char*)&m_value);
; 92   : 		Debug();
; 93   : #endif
; 94   : 	}

  00098	c9		 leave
  00099	c3		 ret	 0
?Init@?$CEncrypt@M@@AAEXXZ ENDP				; CEncrypt<float>::Init
_TEXT	ENDS
PUBLIC	?DecryptValueToPool@?$CEncrypt@M@@QAEXPAM@Z	; CEncrypt<float>::DecryptValueToPool
EXTRN	?DecryptByte@ccddaabb@@QBEXPBDPADH@Z:PROC	; ccddaabb::DecryptByte
; Function compile flags: /Ogsp
;	COMDAT ?DecryptValueToPool@?$CEncrypt@M@@QAEXPAM@Z
_TEXT	SEGMENT
_value$ = 8						; size = 4
?DecryptValueToPool@?$CEncrypt@M@@QAEXPAM@Z PROC	; CEncrypt<float>::DecryptValueToPool, COMDAT
; _this$ = ecx

; 1648 : 	{

  00000	55		 push	 ebp
  00001	8b ec		 mov	 ebp, esp
  00003	56		 push	 esi

; 1649 : 		m_RC5.DecryptByte( m_MemPool, m_TempMem, 4 );

  00004	8d 71 28	 lea	 esi, DWORD PTR [ecx+40]
  00007	6a 04		 push	 4
  00009	8d 41 1c	 lea	 eax, DWORD PTR [ecx+28]
  0000c	56		 push	 esi
  0000d	50		 push	 eax
  0000e	83 c1 0c	 add	 ecx, 12			; 0000000cH
  00011	e8 00 00 00 00	 call	 ?DecryptByte@ccddaabb@@QBEXPBDPADH@Z ; ccddaabb::DecryptByte

; 1650 : 		*value = *((float*)m_TempMem);

  00016	d9 06		 fld	 DWORD PTR [esi]
  00018	8b 45 08	 mov	 eax, DWORD PTR _value$[ebp]
  0001b	d9 18		 fstp	 DWORD PTR [eax]
  0001d	5e		 pop	 esi

; 1651 : 	}

  0001e	5d		 pop	 ebp
  0001f	c2 04 00	 ret	 4
?DecryptValueToPool@?$CEncrypt@M@@QAEXPAM@Z ENDP	; CEncrypt<float>::DecryptValueToPool
_TEXT	ENDS
PUBLIC	?EncryptValueToPool@?$CEncrypt@K@@AAEXPBD@Z	; CEncrypt<unsigned long>::EncryptValueToPool
; Function compile flags: /Ogsp
;	COMDAT ?EncryptValueToPool@?$CEncrypt@K@@AAEXPBD@Z
_TEXT	SEGMENT
_value$ = 8						; size = 4
?EncryptValueToPool@?$CEncrypt@K@@AAEXPBD@Z PROC	; CEncrypt<unsigned long>::EncryptValueToPool, COMDAT
; _this$ = ecx

; 67   : 	{

  00000	55		 push	 ebp
  00001	8b ec		 mov	 ebp, esp

; 68   : 		m_RC5.EncryptByte( value, m_MemPool, max(m_ValueSize, DEFAULT_ENCRYPT) );

  00003	0f b7 41 06	 movzx	 eax, WORD PTR [ecx+6]
  00007	83 f8 04	 cmp	 eax, 4
  0000a	77 03		 ja	 SHORT $LN4@EncryptVal@2
  0000c	6a 04		 push	 4
  0000e	58		 pop	 eax
$LN4@EncryptVal@2:
  0000f	50		 push	 eax
  00010	8d 41 1c	 lea	 eax, DWORD PTR [ecx+28]
  00013	50		 push	 eax
  00014	ff 75 08	 push	 DWORD PTR _value$[ebp]
  00017	83 c1 0c	 add	 ecx, 12			; 0000000cH
  0001a	e8 00 00 00 00	 call	 ?EncryptByte@ccddaabb@@QAEXPBDPADH@Z ; ccddaabb::EncryptByte

; 69   : 		
; 70   : 	}

  0001f	5d		 pop	 ebp
  00020	c2 04 00	 ret	 4
?EncryptValueToPool@?$CEncrypt@K@@AAEXPBD@Z ENDP	; CEncrypt<unsigned long>::EncryptValueToPool
_TEXT	ENDS
PUBLIC	?Init@?$CEncrypt@K@@AAEXXZ			; CEncrypt<unsigned long>::Init
; Function compile flags: /Ogsp
;	COMDAT ?Init@?$CEncrypt@K@@AAEXXZ
_TEXT	SEGMENT
_pid$ = -8						; size = 4
_tick$ = -4						; size = 4
?Init@?$CEncrypt@K@@AAEXXZ PROC				; CEncrypt<unsigned long>::Init, COMDAT
; _this$ = ecx

; 73   : 	{

  00000	55		 push	 ebp
  00001	8b ec		 mov	 ebp, esp
  00003	51		 push	 ecx
  00004	51		 push	 ecx
  00005	53		 push	 ebx
  00006	56		 push	 esi
  00007	57		 push	 edi
  00008	8b f1		 mov	 esi, ecx

; 74   : 		DWORD pid = GetCurrentProcessId();

  0000a	ff 15 00 00 00
	00		 call	 DWORD PTR __imp__GetCurrentProcessId@0
  00010	89 45 f8	 mov	 DWORD PTR _pid$[ebp], eax

; 75   : 		DWORD tick = timeGetTime();

  00013	ff 15 00 00 00
	00		 call	 DWORD PTR __imp__timeGetTime@0

; 76   : 		m_ValueSize    = sizeof(type);
; 77   : 		m_MemPoolPos   = (unsigned short)( rand()+pid+tick )%(MAX_MEM_POOL-m_ValueSize);

  00019	8b 3d 00 00 00
	00		 mov	 edi, DWORD PTR __imp__rand
  0001f	89 45 fc	 mov	 DWORD PTR _tick$[ebp], eax
  00022	6a 04		 push	 4
  00024	58		 pop	 eax
  00025	66 89 46 06	 mov	 WORD PTR [esi+6], ax
  00029	ff d7		 call	 edi
  0002b	03 45 f8	 add	 eax, DWORD PTR _pid$[ebp]
  0002e	0f b7 4e 06	 movzx	 ecx, WORD PTR [esi+6]
  00032	03 45 fc	 add	 eax, DWORD PTR _tick$[ebp]
  00035	6a 0c		 push	 12			; 0000000cH
  00037	0f b7 c0	 movzx	 eax, ax
  0003a	5b		 pop	 ebx
  0003b	99		 cdq
  0003c	2b d9		 sub	 ebx, ecx
  0003e	f7 fb		 idiv	 ebx
  00040	66 89 56 04	 mov	 WORD PTR [esi+4], dx

; 78   : 		m_EncryptSeed  = (char)( rand()+pid+tick )%256;

  00044	ff d7		 call	 edi
  00046	02 45 f8	 add	 al, BYTE PTR _pid$[ebp]
  00049	02 45 fc	 add	 al, BYTE PTR _tick$[ebp]
  0004c	0f be c0	 movsx	 eax, al
  0004f	25 ff 00 00 80	 and	 eax, -2147483393	; 800000ffH
  00054	79 07		 jns	 SHORT $LN8@Init@2
  00056	48		 dec	 eax
  00057	0d 00 ff ff ff	 or	 eax, -256		; ffffff00H
  0005c	40		 inc	 eax
$LN8@Init@2:
  0005d	88 46 08	 mov	 BYTE PTR [esi+8], al

; 79   : 
; 80   : 		for (int i = 0; i < MAX_MEM_POOL ; i++)

  00060	33 db		 xor	 ebx, ebx
$LL3@Init@2:

; 81   : 			m_MemPool[i] = (char)( rand()+pid+tick )%256; // 

  00062	ff d7		 call	 edi
  00064	02 45 f8	 add	 al, BYTE PTR _pid$[ebp]
  00067	02 45 fc	 add	 al, BYTE PTR _tick$[ebp]
  0006a	0f be c0	 movsx	 eax, al
  0006d	25 ff 00 00 80	 and	 eax, -2147483393	; 800000ffH
  00072	79 07		 jns	 SHORT $LN9@Init@2
  00074	48		 dec	 eax
  00075	0d 00 ff ff ff	 or	 eax, -256		; ffffff00H
  0007a	40		 inc	 eax
$LN9@Init@2:
  0007b	88 44 1e 1c	 mov	 BYTE PTR [esi+ebx+28], al
  0007f	43		 inc	 ebx
  00080	83 fb 0c	 cmp	 ebx, 12			; 0000000cH
  00083	7c dd		 jl	 SHORT $LL3@Init@2

; 82   : 
; 83   : 		//UJ 130913, : szKey  
; 84   : 		//char szKey[ccddaabb::KEY_SIZE];//="";
; 85   : 		//for (int i = 0; i < ccddaabb::KEY_SIZE  ; i++)
; 86   : 		//	szKey[i] = (char)( rand()+pid+tick )%256; // 
; 87   : 		m_RC5.Setup( NULL, pid, tick );

  00085	ff 75 fc	 push	 DWORD PTR _tick$[ebp]
  00088	8d 4e 0c	 lea	 ecx, DWORD PTR [esi+12]
  0008b	ff 75 f8	 push	 DWORD PTR _pid$[ebp]
  0008e	6a 00		 push	 0
  00090	e8 00 00 00 00	 call	 ?Setup@ccddaabb@@QAEXPBDHH@Z ; ccddaabb::Setup
  00095	5f		 pop	 edi
  00096	5e		 pop	 esi
  00097	5b		 pop	 ebx

; 88   : 
; 89   : #ifdef _NOTUSE
; 90   : 		m_value        = 0;
; 91   : 		EncryptValueToPool((char*)&m_value);
; 92   : 		Debug();
; 93   : #endif
; 94   : 	}

  00098	c9		 leave
  00099	c3		 ret	 0
?Init@?$CEncrypt@K@@AAEXXZ ENDP				; CEncrypt<unsigned long>::Init
_TEXT	ENDS
PUBLIC	?DecryptValueToPool@?$CEncrypt@K@@QAEXPAK@Z	; CEncrypt<unsigned long>::DecryptValueToPool
; Function compile flags: /Ogsp
;	COMDAT ?DecryptValueToPool@?$CEncrypt@K@@QAEXPAK@Z
_TEXT	SEGMENT
_value$ = 8						; size = 4
?DecryptValueToPool@?$CEncrypt@K@@QAEXPAK@Z PROC	; CEncrypt<unsigned long>::DecryptValueToPool, COMDAT
; _this$ = ecx

; 1256 : 	{

  00000	55		 push	 ebp
  00001	8b ec		 mov	 ebp, esp
  00003	56		 push	 esi

; 1257 : 		m_RC5.DecryptByte( m_MemPool, m_TempMem, 4 );

  00004	8d 71 28	 lea	 esi, DWORD PTR [ecx+40]
  00007	6a 04		 push	 4
  00009	8d 41 1c	 lea	 eax, DWORD PTR [ecx+28]
  0000c	56		 push	 esi
  0000d	50		 push	 eax
  0000e	83 c1 0c	 add	 ecx, 12			; 0000000cH
  00011	e8 00 00 00 00	 call	 ?DecryptByte@ccddaabb@@QBEXPBDPADH@Z ; ccddaabb::DecryptByte

; 1258 : 		*value = *((DWORD*)m_TempMem);

  00016	8b 06		 mov	 eax, DWORD PTR [esi]
  00018	8b 4d 08	 mov	 ecx, DWORD PTR _value$[ebp]
  0001b	89 01		 mov	 DWORD PTR [ecx], eax
  0001d	5e		 pop	 esi

; 1259 : 	}

  0001e	5d		 pop	 ebp
  0001f	c2 04 00	 ret	 4
?DecryptValueToPool@?$CEncrypt@K@@QAEXPAK@Z ENDP	; CEncrypt<unsigned long>::DecryptValueToPool
_TEXT	ENDS
PUBLIC	?DecryptValueToPool@?$CEncrypt@_N@@QAEXPA_N@Z	; CEncrypt<bool>::DecryptValueToPool
; Function compile flags: /Ogsp
;	COMDAT ?DecryptValueToPool@?$CEncrypt@_N@@QAEXPA_N@Z
_TEXT	SEGMENT
_value$ = 8						; size = 4
?DecryptValueToPool@?$CEncrypt@_N@@QAEXPA_N@Z PROC	; CEncrypt<bool>::DecryptValueToPool, COMDAT
; _this$ = ecx

; 219  : 	{

  00000	55		 push	 ebp
  00001	8b ec		 mov	 ebp, esp
  00003	56		 push	 esi

; 220  : 		m_RC5.DecryptByte( m_MemPool, m_TempMem, 4 );

  00004	8d 71 28	 lea	 esi, DWORD PTR [ecx+40]
  00007	6a 04		 push	 4
  00009	8d 41 1c	 lea	 eax, DWORD PTR [ecx+28]
  0000c	56		 push	 esi
  0000d	50		 push	 eax
  0000e	83 c1 0c	 add	 ecx, 12			; 0000000cH
  00011	e8 00 00 00 00	 call	 ?DecryptByte@ccddaabb@@QBEXPBDPADH@Z ; ccddaabb::DecryptByte

; 221  : 		*value = *((bool*)m_TempMem);

  00016	8a 06		 mov	 al, BYTE PTR [esi]
  00018	8b 4d 08	 mov	 ecx, DWORD PTR _value$[ebp]
  0001b	88 01		 mov	 BYTE PTR [ecx], al
  0001d	5e		 pop	 esi

; 222  : 	}

  0001e	5d		 pop	 ebp
  0001f	c2 04 00	 ret	 4
?DecryptValueToPool@?$CEncrypt@_N@@QAEXPA_N@Z ENDP	; CEncrypt<bool>::DecryptValueToPool
_TEXT	ENDS
PUBLIC	?EncryptValueToPool@?$CEncrypt@H@@AAEXPBD@Z	; CEncrypt<int>::EncryptValueToPool
; Function compile flags: /Ogsp
;	COMDAT ?EncryptValueToPool@?$CEncrypt@H@@AAEXPBD@Z
_TEXT	SEGMENT
_value$ = 8						; size = 4
?EncryptValueToPool@?$CEncrypt@H@@AAEXPBD@Z PROC	; CEncrypt<int>::EncryptValueToPool, COMDAT
; _this$ = ecx

; 67   : 	{

  00000	55		 push	 ebp
  00001	8b ec		 mov	 ebp, esp

; 68   : 		m_RC5.EncryptByte( value, m_MemPool, max(m_ValueSize, DEFAULT_ENCRYPT) );

  00003	0f b7 41 06	 movzx	 eax, WORD PTR [ecx+6]
  00007	83 f8 04	 cmp	 eax, 4
  0000a	77 03		 ja	 SHORT $LN4@EncryptVal@3
  0000c	6a 04		 push	 4
  0000e	58		 pop	 eax
$LN4@EncryptVal@3:
  0000f	50		 push	 eax
  00010	8d 41 1c	 lea	 eax, DWORD PTR [ecx+28]
  00013	50		 push	 eax
  00014	ff 75 08	 push	 DWORD PTR _value$[ebp]
  00017	83 c1 0c	 add	 ecx, 12			; 0000000cH
  0001a	e8 00 00 00 00	 call	 ?EncryptByte@ccddaabb@@QAEXPBDPADH@Z ; ccddaabb::EncryptByte

; 69   : 		
; 70   : 	}

  0001f	5d		 pop	 ebp
  00020	c2 04 00	 ret	 4
?EncryptValueToPool@?$CEncrypt@H@@AAEXPBD@Z ENDP	; CEncrypt<int>::EncryptValueToPool
_TEXT	ENDS
PUBLIC	?Init@?$CEncrypt@H@@AAEXXZ			; CEncrypt<int>::Init
; Function compile flags: /Ogsp
;	COMDAT ?Init@?$CEncrypt@H@@AAEXXZ
_TEXT	SEGMENT
_pid$ = -8						; size = 4
_tick$ = -4						; size = 4
?Init@?$CEncrypt@H@@AAEXXZ PROC				; CEncrypt<int>::Init, COMDAT
; _this$ = ecx

; 73   : 	{

  00000	55		 push	 ebp
  00001	8b ec		 mov	 ebp, esp
  00003	51		 push	 ecx
  00004	51		 push	 ecx
  00005	53		 push	 ebx
  00006	56		 push	 esi
  00007	57		 push	 edi
  00008	8b f1		 mov	 esi, ecx

; 74   : 		DWORD pid = GetCurrentProcessId();

  0000a	ff 15 00 00 00
	00		 call	 DWORD PTR __imp__GetCurrentProcessId@0
  00010	89 45 f8	 mov	 DWORD PTR _pid$[ebp], eax

; 75   : 		DWORD tick = timeGetTime();

  00013	ff 15 00 00 00
	00		 call	 DWORD PTR __imp__timeGetTime@0

; 76   : 		m_ValueSize    = sizeof(type);
; 77   : 		m_MemPoolPos   = (unsigned short)( rand()+pid+tick )%(MAX_MEM_POOL-m_ValueSize);

  00019	8b 3d 00 00 00
	00		 mov	 edi, DWORD PTR __imp__rand
  0001f	89 45 fc	 mov	 DWORD PTR _tick$[ebp], eax
  00022	6a 04		 push	 4
  00024	58		 pop	 eax
  00025	66 89 46 06	 mov	 WORD PTR [esi+6], ax
  00029	ff d7		 call	 edi
  0002b	03 45 f8	 add	 eax, DWORD PTR _pid$[ebp]
  0002e	0f b7 4e 06	 movzx	 ecx, WORD PTR [esi+6]
  00032	03 45 fc	 add	 eax, DWORD PTR _tick$[ebp]
  00035	6a 0c		 push	 12			; 0000000cH
  00037	0f b7 c0	 movzx	 eax, ax
  0003a	5b		 pop	 ebx
  0003b	99		 cdq
  0003c	2b d9		 sub	 ebx, ecx
  0003e	f7 fb		 idiv	 ebx
  00040	66 89 56 04	 mov	 WORD PTR [esi+4], dx

; 78   : 		m_EncryptSeed  = (char)( rand()+pid+tick )%256;

  00044	ff d7		 call	 edi
  00046	02 45 f8	 add	 al, BYTE PTR _pid$[ebp]
  00049	02 45 fc	 add	 al, BYTE PTR _tick$[ebp]
  0004c	0f be c0	 movsx	 eax, al
  0004f	25 ff 00 00 80	 and	 eax, -2147483393	; 800000ffH
  00054	79 07		 jns	 SHORT $LN8@Init@3
  00056	48		 dec	 eax
  00057	0d 00 ff ff ff	 or	 eax, -256		; ffffff00H
  0005c	40		 inc	 eax
$LN8@Init@3:
  0005d	88 46 08	 mov	 BYTE PTR [esi+8], al

; 79   : 
; 80   : 		for (int i = 0; i < MAX_MEM_POOL ; i++)

  00060	33 db		 xor	 ebx, ebx
$LL3@Init@3:

; 81   : 			m_MemPool[i] = (char)( rand()+pid+tick )%256; // 

  00062	ff d7		 call	 edi
  00064	02 45 f8	 add	 al, BYTE PTR _pid$[ebp]
  00067	02 45 fc	 add	 al, BYTE PTR _tick$[ebp]
  0006a	0f be c0	 movsx	 eax, al
  0006d	25 ff 00 00 80	 and	 eax, -2147483393	; 800000ffH
  00072	79 07		 jns	 SHORT $LN9@Init@3
  00074	48		 dec	 eax
  00075	0d 00 ff ff ff	 or	 eax, -256		; ffffff00H
  0007a	40		 inc	 eax
$LN9@Init@3:
  0007b	88 44 1e 1c	 mov	 BYTE PTR [esi+ebx+28], al
  0007f	43		 inc	 ebx
  00080	83 fb 0c	 cmp	 ebx, 12			; 0000000cH
  00083	7c dd		 jl	 SHORT $LL3@Init@3

; 82   : 
; 83   : 		//UJ 130913, : szKey  
; 84   : 		//char szKey[ccddaabb::KEY_SIZE];//="";
; 85   : 		//for (int i = 0; i < ccddaabb::KEY_SIZE  ; i++)
; 86   : 		//	szKey[i] = (char)( rand()+pid+tick )%256; // 
; 87   : 		m_RC5.Setup( NULL, pid, tick );

  00085	ff 75 fc	 push	 DWORD PTR _tick$[ebp]
  00088	8d 4e 0c	 lea	 ecx, DWORD PTR [esi+12]
  0008b	ff 75 f8	 push	 DWORD PTR _pid$[ebp]
  0008e	6a 00		 push	 0
  00090	e8 00 00 00 00	 call	 ?Setup@ccddaabb@@QAEXPBDHH@Z ; ccddaabb::Setup
  00095	5f		 pop	 edi
  00096	5e		 pop	 esi
  00097	5b		 pop	 ebx

; 88   : 
; 89   : #ifdef _NOTUSE
; 90   : 		m_value        = 0;
; 91   : 		EncryptValueToPool((char*)&m_value);
; 92   : 		Debug();
; 93   : #endif
; 94   : 	}

  00098	c9		 leave
  00099	c3		 ret	 0
?Init@?$CEncrypt@H@@AAEXXZ ENDP				; CEncrypt<int>::Init
_TEXT	ENDS
PUBLIC	?DecryptValueToPool@?$CEncrypt@H@@QAEXPAH@Z	; CEncrypt<int>::DecryptValueToPool
; Function compile flags: /Ogsp
;	COMDAT ?DecryptValueToPool@?$CEncrypt@H@@QAEXPAH@Z
_TEXT	SEGMENT
_value$ = 8						; size = 4
?DecryptValueToPool@?$CEncrypt@H@@QAEXPAH@Z PROC	; CEncrypt<int>::DecryptValueToPool, COMDAT
; _this$ = ecx

; 837  : 	{

  00000	55		 push	 ebp
  00001	8b ec		 mov	 ebp, esp
  00003	56		 push	 esi

; 838  : 		m_RC5.DecryptByte( m_MemPool, m_TempMem, 4 );

  00004	8d 71 28	 lea	 esi, DWORD PTR [ecx+40]
  00007	6a 04		 push	 4
  00009	8d 41 1c	 lea	 eax, DWORD PTR [ecx+28]
  0000c	56		 push	 esi
  0000d	50		 push	 eax
  0000e	83 c1 0c	 add	 ecx, 12			; 0000000cH
  00011	e8 00 00 00 00	 call	 ?DecryptByte@ccddaabb@@QBEXPBDPADH@Z ; ccddaabb::DecryptByte

; 839  : 		*value = *((int*)m_TempMem);

  00016	8b 06		 mov	 eax, DWORD PTR [esi]
  00018	8b 4d 08	 mov	 ecx, DWORD PTR _value$[ebp]
  0001b	89 01		 mov	 DWORD PTR [ecx], eax
  0001d	5e		 pop	 esi

; 840  : 	}

  0001e	5d		 pop	 ebp
  0001f	c2 04 00	 ret	 4
?DecryptValueToPool@?$CEncrypt@H@@QAEXPAH@Z ENDP	; CEncrypt<int>::DecryptValueToPool
_TEXT	ENDS
PUBLIC	?DecryptValueToPool@?$CEncrypt@W4TeamType@@@@QAEXPAW4TeamType@@@Z ; CEncrypt<enum TeamType>::DecryptValueToPool
; Function compile flags: /Ogsp
;	COMDAT ?DecryptValueToPool@?$CEncrypt@W4TeamType@@@@QAEXPAW4TeamType@@@Z
_TEXT	SEGMENT
_value$ = 8						; size = 4
?DecryptValueToPool@?$CEncrypt@W4TeamType@@@@QAEXPAW4TeamType@@@Z PROC ; CEncrypt<enum TeamType>::DecryptValueToPool, COMDAT
; _this$ = ecx

; 2959 : 	{

  00000	55		 push	 ebp
  00001	8b ec		 mov	 ebp, esp
  00003	56		 push	 esi

; 2960 : 		m_RC5.DecryptByte( m_MemPool, m_TempMem, sizeof(TeamType) );

  00004	8d 71 28	 lea	 esi, DWORD PTR [ecx+40]
  00007	6a 04		 push	 4
  00009	8d 41 1c	 lea	 eax, DWORD PTR [ecx+28]
  0000c	56		 push	 esi
  0000d	50		 push	 eax
  0000e	83 c1 0c	 add	 ecx, 12			; 0000000cH
  00011	e8 00 00 00 00	 call	 ?DecryptByte@ccddaabb@@QBEXPBDPADH@Z ; ccddaabb::DecryptByte

; 2961 : 		*value = *((TeamType*)m_TempMem);

  00016	8b 06		 mov	 eax, DWORD PTR [esi]
  00018	8b 4d 08	 mov	 ecx, DWORD PTR _value$[ebp]
  0001b	89 01		 mov	 DWORD PTR [ecx], eax
  0001d	5e		 pop	 esi

; 2962 : 	}

  0001e	5d		 pop	 ebp
  0001f	c2 04 00	 ret	 4
?DecryptValueToPool@?$CEncrypt@W4TeamType@@@@QAEXPAW4TeamType@@@Z ENDP ; CEncrypt<enum TeamType>::DecryptValueToPool
_TEXT	ENDS
PUBLIC	?_Xlen@?$vector@VioHashString@@V?$allocator@VioHashString@@@std@@@std@@IBEXXZ ; std::vector<ioHashString,std::allocator<ioHashString> >::_Xlen
; Function compile flags: /Ogsp
; File c:\program files (x86)\microsoft visual studio 10.0\vc\include\vector
;	COMDAT ?_Xlen@?$vector@VioHashString@@V?$allocator@VioHashString@@@std@@@std@@IBEXXZ
_TEXT	SEGMENT
?_Xlen@?$vector@VioHashString@@V?$allocator@VioHashString@@@std@@@std@@IBEXXZ PROC ; std::vector<ioHashString,std::allocator<ioHashString> >::_Xlen, COMDAT
; _this$ = ecx

; 1427 : 		_Xlength_error("vector<T> too long");

  00000	68 00 00 00 00	 push	 OFFSET ??_C@_0BD@OLBABOEK@vector?$DMT?$DO?5too?5long?$AA@
  00005	ff 15 00 00 00
	00		 call	 DWORD PTR __imp_?_Xlength_error@std@@YAXPBD@Z
$LN4@Xlen@2:
$LN3@Xlen@2:
  0000b	cc		 int	 3
?_Xlen@?$vector@VioHashString@@V?$allocator@VioHashString@@@std@@@std@@IBEXXZ ENDP ; std::vector<ioHashString,std::allocator<ioHashString> >::_Xlen
_TEXT	ENDS
PUBLIC	?deallocate@?$allocator@VioHashString@@@std@@QAEXPAVioHashString@@I@Z ; std::allocator<ioHashString>::deallocate
; Function compile flags: /Ogsp
; File c:\program files (x86)\microsoft visual studio 10.0\vc\include\xmemory
;	COMDAT ?deallocate@?$allocator@VioHashString@@@std@@QAEXPAVioHashString@@I@Z
_TEXT	SEGMENT
__Ptr$ = 8						; size = 4
___formal$ = 12						; size = 4
?deallocate@?$allocator@VioHashString@@@std@@QAEXPAVioHashString@@I@Z PROC ; std::allocator<ioHashString>::deallocate, COMDAT
; _this$ = ecx

; 181  : 		{	// deallocate object at _Ptr, ignore size

  00000	55		 push	 ebp
  00001	8b ec		 mov	 ebp, esp

; 182  : 		::operator delete(_Ptr);

  00003	ff 75 08	 push	 DWORD PTR __Ptr$[ebp]
  00006	e8 00 00 00 00	 call	 ??3@YAXPAX@Z		; operator delete
  0000b	59		 pop	 ecx

; 183  : 		}

  0000c	5d		 pop	 ebp
  0000d	c2 08 00	 ret	 8
?deallocate@?$allocator@VioHashString@@@std@@QAEXPAVioHashString@@I@Z ENDP ; std::allocator<ioHashString>::deallocate
_TEXT	ENDS
PUBLIC	??0?$_Vector_const_iterator@V?$_Vector_val@VioHashString@@V?$allocator@VioHashString@@@std@@@std@@@std@@QAE@PAVioHashString@@PBU_Container_base0@1@@Z ; std::_Vector_const_iterator<std::_Vector_val<ioHashString,std::allocator<ioHashString> > >::_Vector_const_iterator<std::_Vector_val<ioHashString,std::allocator<ioHashString> > >
; Function compile flags: /Ogsp
; File c:\program files (x86)\microsoft visual studio 10.0\vc\include\vector
;	COMDAT ??0?$_Vector_const_iterator@V?$_Vector_val@VioHashString@@V?$allocator@VioHashString@@@std@@@std@@@std@@QAE@PAVioHashString@@PBU_Container_base0@1@@Z
_TEXT	SEGMENT
__Parg$ = 8						; size = 4
__Pvector$ = 12						; size = 4
??0?$_Vector_const_iterator@V?$_Vector_val@VioHashString@@V?$allocator@VioHashString@@@std@@@std@@@std@@QAE@PAVioHashString@@PBU_Container_base0@1@@Z PROC ; std::_Vector_const_iterator<std::_Vector_val<ioHashString,std::allocator<ioHashString> > >::_Vector_const_iterator<std::_Vector_val<ioHashString,std::allocator<ioHashString> > >, COMDAT
; _this$ = ecx

; 45   : 		{	// construct with pointer _Parg

  00000	55		 push	 ebp
  00001	8b ec		 mov	 ebp, esp
  00003	8b c1		 mov	 eax, ecx
  00005	8b 4d 08	 mov	 ecx, DWORD PTR __Parg$[ebp]
  00008	89 08		 mov	 DWORD PTR [eax], ecx

; 46   : 		this->_Adopt(_Pvector);
; 47   : 		}

  0000a	5d		 pop	 ebp
  0000b	c2 08 00	 ret	 8
??0?$_Vector_const_iterator@V?$_Vector_val@VioHashString@@V?$allocator@VioHashString@@@std@@@std@@@std@@QAE@PAVioHashString@@PBU_Container_base0@1@@Z ENDP ; std::_Vector_const_iterator<std::_Vector_val<ioHashString,std::allocator<ioHashString> > >::_Vector_const_iterator<std::_Vector_val<ioHashString,std::allocator<ioHashString> > >
_TEXT	ENDS
PUBLIC	??0?$_Vector_iterator@V?$_Vector_val@VioHashString@@V?$allocator@VioHashString@@@std@@@std@@@std@@QAE@PAVioHashString@@PBU_Container_base0@1@@Z ; std::_Vector_iterator<std::_Vector_val<ioHashString,std::allocator<ioHashString> > >::_Vector_iterator<std::_Vector_val<ioHashString,std::allocator<ioHashString> > >
; Function compile flags: /Ogsp
;	COMDAT ??0?$_Vector_iterator@V?$_Vector_val@VioHashString@@V?$allocator@VioHashString@@@std@@@std@@@std@@QAE@PAVioHashString@@PBU_Container_base0@1@@Z
_TEXT	SEGMENT
__Parg$ = 8						; size = 4
__Pvector$ = 12						; size = 4
??0?$_Vector_iterator@V?$_Vector_val@VioHashString@@V?$allocator@VioHashString@@@std@@@std@@@std@@QAE@PAVioHashString@@PBU_Container_base0@1@@Z PROC ; std::_Vector_iterator<std::_Vector_val<ioHashString,std::allocator<ioHashString> > >::_Vector_iterator<std::_Vector_val<ioHashString,std::allocator<ioHashString> > >, COMDAT
; _this$ = ecx

; 304  : 		{	// construct with pointer _Parg

  00000	55		 push	 ebp
  00001	8b ec		 mov	 ebp, esp
  00003	8b c1		 mov	 eax, ecx
  00005	8b 4d 08	 mov	 ecx, DWORD PTR __Parg$[ebp]
  00008	89 08		 mov	 DWORD PTR [eax], ecx

; 305  : 		}

  0000a	5d		 pop	 ebp
  0000b	c2 08 00	 ret	 8
??0?$_Vector_iterator@V?$_Vector_val@VioHashString@@V?$allocator@VioHashString@@@std@@@std@@@std@@QAE@PAVioHashString@@PBU_Container_base0@1@@Z ENDP ; std::_Vector_iterator<std::_Vector_val<ioHashString,std::allocator<ioHashString> > >::_Vector_iterator<std::_Vector_val<ioHashString,std::allocator<ioHashString> > >
_TEXT	ENDS
PUBLIC	?max_size@?$allocator@VioHashString@@@std@@QBEIXZ ; std::allocator<ioHashString>::max_size
; Function compile flags: /Ogsp
; File c:\program files (x86)\microsoft visual studio 10.0\vc\include\xmemory
;	COMDAT ?max_size@?$allocator@VioHashString@@@std@@QBEIXZ
_TEXT	SEGMENT
?max_size@?$allocator@VioHashString@@@std@@QBEIXZ PROC	; std::allocator<ioHashString>::max_size, COMDAT
; _this$ = ecx

; 218  : 		_SIZT _Count = (_SIZT)(-1) / sizeof (_Ty);
; 219  : 		return (0 < _Count ? _Count : 1);

  00000	b8 ff ff ff 0f	 mov	 eax, 268435455		; 0fffffffH

; 220  : 		}

  00005	c3		 ret	 0
?max_size@?$allocator@VioHashString@@@std@@QBEIXZ ENDP	; std::allocator<ioHashString>::max_size
_TEXT	ENDS
PUBLIC	?_Compat@?$_Vector_const_iterator@V?$_Vector_val@VioHashString@@V?$allocator@VioHashString@@@std@@@std@@@std@@QBEXABV12@@Z ; std::_Vector_const_iterator<std::_Vector_val<ioHashString,std::allocator<ioHashString> > >::_Compat
; Function compile flags: /Ogsp
; File c:\program files (x86)\microsoft visual studio 10.0\vc\include\vector
;	COMDAT ?_Compat@?$_Vector_const_iterator@V?$_Vector_val@VioHashString@@V?$allocator@VioHashString@@@std@@@std@@@std@@QBEXABV12@@Z
_TEXT	SEGMENT
___formal$ = 8						; size = 4
?_Compat@?$_Vector_const_iterator@V?$_Vector_val@VioHashString@@V?$allocator@VioHashString@@@std@@@std@@@std@@QBEXABV12@@Z PROC ; std::_Vector_const_iterator<std::_Vector_val<ioHashString,std::allocator<ioHashString> > >::_Compat, COMDAT
; _this$ = ecx

; 253  : 		}

  00000	c2 04 00	 ret	 4
?_Compat@?$_Vector_const_iterator@V?$_Vector_val@VioHashString@@V?$allocator@VioHashString@@@std@@@std@@@std@@QBEXABV12@@Z ENDP ; std::_Vector_const_iterator<std::_Vector_val<ioHashString,std::allocator<ioHashString> > >::_Compat
_TEXT	ENDS
PUBLIC	??$_Allocate@VioHashString@@@std@@YAPAVioHashString@@IPAV1@@Z ; std::_Allocate<ioHashString>
; Function compile flags: /Ogsp
; File c:\program files (x86)\microsoft visual studio 10.0\vc\include\xmemory
;	COMDAT ??$_Allocate@VioHashString@@@std@@YAPAVioHashString@@IPAV1@@Z
_TEXT	SEGMENT
$T534821 = -12						; size = 12
$T534825 = 8						; size = 4
__Count$ = 8						; size = 4
___formal$ = 12						; size = 4
??$_Allocate@VioHashString@@@std@@YAPAVioHashString@@IPAV1@@Z PROC ; std::_Allocate<ioHashString>, COMDAT

; 30   : 	{	// allocate storage for _Count elements of type _Ty

  00000	55		 push	 ebp
  00001	8b ec		 mov	 ebp, esp

; 31   : 	void *_Ptr = 0;
; 32   : 
; 33   : 	if (_Count <= 0)

  00003	8b 4d 08	 mov	 ecx, DWORD PTR __Count$[ebp]
  00006	83 ec 0c	 sub	 esp, 12			; 0000000cH
  00009	33 c0		 xor	 eax, eax
  0000b	85 c9		 test	 ecx, ecx

; 34   : 		_Count = 0;
; 35   : 	else if (((_SIZT)(-1) / sizeof (_Ty) < _Count)

  0000d	74 3c		 je	 SHORT $LN5@Allocate@2

; 36   : 		|| (_Ptr = ::operator new(_Count * sizeof (_Ty))) == 0)

  0000f	81 f9 ff ff ff
	0f		 cmp	 ecx, 268435455		; 0fffffffH
  00015	77 0e		 ja	 SHORT $LN1@Allocate@2
  00017	c1 e1 04	 shl	 ecx, 4
  0001a	51		 push	 ecx
  0001b	e8 00 00 00 00	 call	 ??2@YAPAXI@Z		; operator new
  00020	59		 pop	 ecx
  00021	85 c0		 test	 eax, eax

; 38   : 
; 39   : 	return ((_Ty _FARQ *)_Ptr);

  00023	75 26		 jne	 SHORT $LN5@Allocate@2
$LN1@Allocate@2:

; 37   : 		_THROW_NCEE(bad_alloc, 0);

  00025	83 65 08 00	 and	 DWORD PTR $T534825[ebp], 0
  00029	8d 45 08	 lea	 eax, DWORD PTR $T534825[ebp]
  0002c	50		 push	 eax
  0002d	8d 4d f4	 lea	 ecx, DWORD PTR $T534821[ebp]
  00030	ff 15 00 00 00
	00		 call	 DWORD PTR __imp_??0exception@std@@QAE@ABQBD@Z
  00036	68 00 00 00 00	 push	 OFFSET __TI2?AVbad_alloc@std@@
  0003b	8d 45 f4	 lea	 eax, DWORD PTR $T534821[ebp]
  0003e	50		 push	 eax
  0003f	c7 45 f4 00 00
	00 00		 mov	 DWORD PTR $T534821[ebp], OFFSET ??_7bad_alloc@std@@6B@
  00046	e8 00 00 00 00	 call	 __CxxThrowException@8
$LN10@Allocate@2:
$LN5@Allocate@2:

; 40   : 	}

  0004b	c9		 leave
  0004c	c3		 ret	 0
$LN9@Allocate@2:
??$_Allocate@VioHashString@@@std@@YAPAVioHashString@@IPAV1@@Z ENDP ; std::_Allocate<ioHashString>
_TEXT	ENDS
EXTRN	__imp_??0exception@std@@QAE@ABV01@@Z:PROC
; Function compile flags: /Ogsp
;	COMDAT ??0bad_alloc@std@@QAE@ABV01@@Z
_TEXT	SEGMENT
___that$ = 8						; size = 4
??0bad_alloc@std@@QAE@ABV01@@Z PROC			; std::bad_alloc::bad_alloc, COMDAT
; _this$ = ecx
  00000	55		 push	 ebp
  00001	8b ec		 mov	 ebp, esp
  00003	56		 push	 esi
  00004	ff 75 08	 push	 DWORD PTR ___that$[ebp]
  00007	8b f1		 mov	 esi, ecx
  00009	ff 15 00 00 00
	00		 call	 DWORD PTR __imp_??0exception@std@@QAE@ABV01@@Z
  0000f	c7 06 00 00 00
	00		 mov	 DWORD PTR [esi], OFFSET ??_7bad_alloc@std@@6B@
  00015	8b c6		 mov	 eax, esi
  00017	5e		 pop	 esi
  00018	5d		 pop	 ebp
  00019	c2 04 00	 ret	 4
??0bad_alloc@std@@QAE@ABV01@@Z ENDP			; std::bad_alloc::bad_alloc
_TEXT	ENDS
PUBLIC	??$forward@ABVioHashString@@@std@@YAABVioHashString@@ABV1@@Z ; std::forward<ioHashString const &>
; Function compile flags: /Ogsp
; File c:\program files (x86)\microsoft visual studio 10.0\vc\include\utility
;	COMDAT ??$forward@ABVioHashString@@@std@@YAABVioHashString@@ABV1@@Z
_TEXT	SEGMENT
__Arg$ = 8						; size = 4
??$forward@ABVioHashString@@@std@@YAABVioHashString@@ABV1@@Z PROC ; std::forward<ioHashString const &>, COMDAT

; 78   : 	{	// forward _Arg, given explicitly specified type parameter

  00000	55		 push	 ebp
  00001	8b ec		 mov	 ebp, esp

; 79   : 	return ((_Ty&&)_Arg);

  00003	8b 45 08	 mov	 eax, DWORD PTR __Arg$[ebp]

; 80   : 	}

  00006	5d		 pop	 ebp
  00007	c3		 ret	 0
??$forward@ABVioHashString@@@std@@YAABVioHashString@@ABV1@@Z ENDP ; std::forward<ioHashString const &>
_TEXT	ENDS
PUBLIC	??$forward@AAVioHashString@@@std@@YAAAVioHashString@@AAV1@@Z ; std::forward<ioHashString &>
; Function compile flags: /Ogsp
;	COMDAT ??$forward@AAVioHashString@@@std@@YAAAVioHashString@@AAV1@@Z
_TEXT	SEGMENT
__Arg$ = 8						; size = 4
??$forward@AAVioHashString@@@std@@YAAAVioHashString@@AAV1@@Z PROC ; std::forward<ioHashString &>, COMDAT

; 78   : 	{	// forward _Arg, given explicitly specified type parameter

  00000	55		 push	 ebp
  00001	8b ec		 mov	 ebp, esp

; 79   : 	return ((_Ty&&)_Arg);

  00003	8b 45 08	 mov	 eax, DWORD PTR __Arg$[ebp]

; 80   : 	}

  00006	5d		 pop	 ebp
  00007	c3		 ret	 0
??$forward@AAVioHashString@@@std@@YAAAVioHashString@@AAV1@@Z ENDP ; std::forward<ioHashString &>
_TEXT	ENDS
PUBLIC	??$_Ptr_cat@VioHashString@@V1@@std@@YA?AU_Nonscalar_ptr_iterator_tag@0@PAVioHashString@@0@Z ; std::_Ptr_cat<ioHashString,ioHashString>
; Function compile flags: /Ogsp
; File c:\program files (x86)\microsoft visual studio 10.0\vc\include\xutility
;	COMDAT ??$_Ptr_cat@VioHashString@@V1@@std@@YA?AU_Nonscalar_ptr_iterator_tag@0@PAVioHashString@@0@Z
_TEXT	SEGMENT
__Cat$ = -1						; size = 1
___formal$ = 8						; size = 4
___formal$ = 12						; size = 4
??$_Ptr_cat@VioHashString@@V1@@std@@YA?AU_Nonscalar_ptr_iterator_tag@0@PAVioHashString@@0@Z PROC ; std::_Ptr_cat<ioHashString,ioHashString>, COMDAT

; 516  : 	{	// return pointer category from pointers

  00000	55		 push	 ebp
  00001	8b ec		 mov	 ebp, esp
  00003	51		 push	 ecx

; 517  : 	typename _Ptr_cat_helper<_Elem1, _Elem2>::_Type _Cat;
; 518  : 	return (_Cat);

  00004	8a 45 ff	 mov	 al, BYTE PTR __Cat$[ebp]

; 519  : 	}

  00007	c9		 leave
  00008	c3		 ret	 0
??$_Ptr_cat@VioHashString@@V1@@std@@YA?AU_Nonscalar_ptr_iterator_tag@0@PAVioHashString@@0@Z ENDP ; std::_Ptr_cat<ioHashString,ioHashString>
_TEXT	ENDS
PUBLIC	??$move@AAVioHashString@@@std@@YA$$QAVioHashString@@AAV1@@Z ; std::move<ioHashString &>
; Function compile flags: /Ogsp
; File c:\program files (x86)\microsoft visual studio 10.0\vc\include\utility
;	COMDAT ??$move@AAVioHashString@@@std@@YA$$QAVioHashString@@AAV1@@Z
_TEXT	SEGMENT
__Arg$ = 8						; size = 4
??$move@AAVioHashString@@@std@@YA$$QAVioHashString@@AAV1@@Z PROC ; std::move<ioHashString &>, COMDAT

; 86   : 	{	// forward _Arg as movable

  00000	55		 push	 ebp
  00001	8b ec		 mov	 ebp, esp

; 87   : 	return ((typename tr1::_Remove_reference<_Ty>::_Type&&)_Arg);

  00003	8b 45 08	 mov	 eax, DWORD PTR __Arg$[ebp]

; 88   : 	}

  00006	5d		 pop	 ebp
  00007	c3		 ret	 0
??$move@AAVioHashString@@@std@@YA$$QAVioHashString@@AAV1@@Z ENDP ; std::move<ioHashString &>
_TEXT	ENDS
PUBLIC	??_GioHashString@@QAEPAXI@Z			; ioHashString::`scalar deleting destructor'
; Function compile flags: /Ogsp
;	COMDAT ??_GioHashString@@QAEPAXI@Z
_TEXT	SEGMENT
___flags$ = 8						; size = 4
??_GioHashString@@QAEPAXI@Z PROC			; ioHashString::`scalar deleting destructor', COMDAT
; _this$ = ecx
  00000	55		 push	 ebp
  00001	8b ec		 mov	 ebp, esp
  00003	56		 push	 esi
  00004	8b f1		 mov	 esi, ecx
  00006	ff 15 00 00 00
	00		 call	 DWORD PTR __imp_??1ioHashString@@QAE@XZ
  0000c	f6 45 08 01	 test	 BYTE PTR ___flags$[ebp], 1
  00010	74 07		 je	 SHORT $LN1@scalar@6
  00012	56		 push	 esi
  00013	e8 00 00 00 00	 call	 ??3@YAXPAX@Z		; operator delete
  00018	59		 pop	 ecx
$LN1@scalar@6:
  00019	8b c6		 mov	 eax, esi
  0001b	5e		 pop	 esi
  0001c	5d		 pop	 ebp
  0001d	c2 04 00	 ret	 4
??_GioHashString@@QAEPAXI@Z ENDP			; ioHashString::`scalar deleting destructor'
_TEXT	ENDS
PUBLIC	??$_Construct@VioHashString@@ABV1@@std@@YAXPAVioHashString@@ABV1@@Z ; std::_Construct<ioHashString,ioHashString const &>
EXTRN	___CxxFrameHandler3:PROC
EXTRN	@__security_check_cookie@4:PROC
EXTRN	__EH_epilog3:PROC
EXTRN	__EH_prolog3:PROC
;	COMDAT xdata$x
xdata$x	SEGMENT
__unwindtable$??$_Construct@VioHashString@@ABV1@@std@@YAXPAVioHashString@@ABV1@@Z DD 0ffffffffH
	DD	FLAT:__unwindfunclet$??$_Construct@VioHashString@@ABV1@@std@@YAXPAVioHashString@@ABV1@@Z$0
__ehfuncinfo$??$_Construct@VioHashString@@ABV1@@std@@YAXPAVioHashString@@ABV1@@Z DD 019930522H
	DD	01H
	DD	FLAT:__unwindtable$??$_Construct@VioHashString@@ABV1@@std@@YAXPAVioHashString@@ABV1@@Z
	DD	2 DUP(00H)
	DD	2 DUP(00H)
	DD	00H
	DD	01H
; Function compile flags: /Ogsp
; File c:\program files (x86)\microsoft visual studio 10.0\vc\include\xmemory
xdata$x	ENDS
;	COMDAT ??$_Construct@VioHashString@@ABV1@@std@@YAXPAVioHashString@@ABV1@@Z
_TEXT	SEGMENT
$T534844 = -16						; size = 4
__$EHRec$ = -12						; size = 12
__Vptr$ = 8						; size = 4
__Ptr$ = 8						; size = 4
__Val$ = 12						; size = 4
??$_Construct@VioHashString@@ABV1@@std@@YAXPAVioHashString@@ABV1@@Z PROC ; std::_Construct<ioHashString,ioHashString const &>, COMDAT

; 46   : 	{	// construct object at _Ptr with value _Val

  00000	6a 04		 push	 4
  00002	b8 00 00 00 00	 mov	 eax, __ehhandler$??$_Construct@VioHashString@@ABV1@@std@@YAXPAVioHashString@@ABV1@@Z
  00007	e8 00 00 00 00	 call	 __EH_prolog3

; 47   : 	void _FARQ *_Vptr = _Ptr;

  0000c	8b 4d 08	 mov	 ecx, DWORD PTR __Ptr$[ebp]
  0000f	89 4d 08	 mov	 DWORD PTR __Vptr$[ebp], ecx

; 48   : 	::new (_Vptr) _Ty1(_STD forward<_Ty2>(_Val));

  00012	89 4d f0	 mov	 DWORD PTR $T534844[ebp], ecx
  00015	83 65 fc 00	 and	 DWORD PTR __$EHRec$[ebp+8], 0
  00019	85 c9		 test	 ecx, ecx
  0001b	74 09		 je	 SHORT $LN3@Construct
  0001d	ff 75 0c	 push	 DWORD PTR __Val$[ebp]
  00020	ff 15 00 00 00
	00		 call	 DWORD PTR __imp_??0ioHashString@@QAE@ABV0@@Z
$LN3@Construct:

; 49   : 	}

  00026	e8 00 00 00 00	 call	 __EH_epilog3
  0002b	c3		 ret	 0
_TEXT	ENDS
;	COMDAT text$x
text$x	SEGMENT
__unwindfunclet$??$_Construct@VioHashString@@ABV1@@std@@YAXPAVioHashString@@ABV1@@Z$0:
  00000	ff 75 08	 push	 DWORD PTR __Vptr$[ebp]
  00003	ff 75 f0	 push	 DWORD PTR $T534844[ebp]
  00006	e8 00 00 00 00	 call	 ??3@YAXPAX0@Z		; operator delete
  0000b	59		 pop	 ecx
  0000c	59		 pop	 ecx
  0000d	c3		 ret	 0
__ehhandler$??$_Construct@VioHashString@@ABV1@@std@@YAXPAVioHashString@@ABV1@@Z:
  0000e	8b 54 24 08	 mov	 edx, DWORD PTR [esp+8]
  00012	8d 42 0c	 lea	 eax, DWORD PTR [edx+12]
  00015	8b 4a ec	 mov	 ecx, DWORD PTR [edx-20]
  00018	33 c8		 xor	 ecx, eax
  0001a	e8 00 00 00 00	 call	 @__security_check_cookie@4
  0001f	b8 00 00 00 00	 mov	 eax, OFFSET __ehfuncinfo$??$_Construct@VioHashString@@ABV1@@std@@YAXPAVioHashString@@ABV1@@Z
  00024	e9 00 00 00 00	 jmp	 ___CxxFrameHandler3
text$x	ENDS
??$_Construct@VioHashString@@ABV1@@std@@YAXPAVioHashString@@ABV1@@Z ENDP ; std::_Construct<ioHashString,ioHashString const &>
PUBLIC	__real@3f800000
PUBLIC	_pChar$GSCopy$
PUBLIC	__$ArrayPad$
PUBLIC	?SetTargetMapEffect@ioTargetTeleportSkill@@IAEXPAVioBaseChar@@@Z ; ioTargetTeleportSkill::SetTargetMapEffect
EXTRN	?GetUniqueID@ioMapEffect@@QBEKXZ:PROC		; ioMapEffect::GetUniqueID
EXTRN	?CreateMapEffectBySkill@ioBaseChar@@QAEPAVioMapEffect@@ABVioHashString@@ABUD3DXVECTOR3@@AAU4@@Z:PROC ; ioBaseChar::CreateMapEffectBySkill
EXTRN	__imp_?IsEmpty@ioHashString@@QBE_NXZ:PROC
EXTRN	___security_cookie:DWORD
;	COMDAT __real@3f800000
; File c:\program files (x86)\microsoft directx sdk (june 2010)\include\d3dx9math.inl
CONST	SEGMENT
__real@3f800000 DD 03f800000r			; 1
; Function compile flags: /Ogsp
; File d:\lost saga for developer\youtube\tutorial\source\src\lsclient\iotargetteleportskill.cpp
CONST	ENDS
;	COMDAT ?SetTargetMapEffect@ioTargetTeleportSkill@@IAEXPAVioBaseChar@@@Z
_TEXT	SEGMENT
$T534869 = -32						; size = 12
_pChar$GSCopy$ = -20					; size = 4
_vPos$531425 = -16					; size = 12
__$ArrayPad$ = -4					; size = 4
_pChar$ = 8						; size = 4
?SetTargetMapEffect@ioTargetTeleportSkill@@IAEXPAVioBaseChar@@@Z PROC ; ioTargetTeleportSkill::SetTargetMapEffect, COMDAT
; _this$ = ecx

; 528  : {

  00000	55		 push	 ebp
  00001	8b ec		 mov	 ebp, esp
  00003	83 ec 20	 sub	 esp, 32			; 00000020H
  00006	a1 00 00 00 00	 mov	 eax, DWORD PTR ___security_cookie
  0000b	33 c5		 xor	 eax, ebp
  0000d	89 45 fc	 mov	 DWORD PTR __$ArrayPad$[ebp], eax
  00010	53		 push	 ebx
  00011	56		 push	 esi
  00012	8b 75 08	 mov	 esi, DWORD PTR _pChar$[ebp]

; 529  : 	DestroyTargetMapEffect( pChar );

  00015	56		 push	 esi
  00016	8b d9		 mov	 ebx, ecx

; 536  : 			m_dwTargetMapEffect = pMapEffect->GetUniqueID();

  00018	89 75 ec	 mov	 DWORD PTR _pChar$GSCopy$[ebp], esi
  0001b	e8 00 00 00 00	 call	 ?DestroyTargetMapEffect@ioTargetTeleportSkill@@IAEXPAVioBaseChar@@@Z ; ioTargetTeleportSkill::DestroyTargetMapEffect
  00020	85 f6		 test	 esi, esi
  00022	74 5d		 je	 SHORT $LN1@SetTargetM

; 530  : 
; 531  : 	if( pChar && !m_TargetMapEffect.IsEmpty() )

  00024	8d 8b 7c 10 00
	00		 lea	 ecx, DWORD PTR [ebx+4220]
  0002a	ff 15 00 00 00
	00		 call	 DWORD PTR __imp_?IsEmpty@ioHashString@@QBE_NXZ
  00030	84 c0		 test	 al, al
  00032	75 4d		 jne	 SHORT $LN1@SetTargetM

; 532  : 	{
; 533  : 		D3DXVECTOR3 vPos = m_vTargetPos;
; 534  : 		ioMapEffect *pMapEffect = pChar->CreateMapEffectBySkill( m_TargetMapEffect, vPos );

  00034	f3 0f 10 05 00
	00 00 00	 movss	 xmm0, DWORD PTR __real@3f800000
  0003c	8b 4d ec	 mov	 ecx, DWORD PTR _pChar$GSCopy$[ebp]
  0003f	57		 push	 edi
  00040	8d b3 e0 0f 00
	00		 lea	 esi, DWORD PTR [ebx+4064]
  00046	8d 7d f0	 lea	 edi, DWORD PTR _vPos$531425[ebp]
  00049	a5		 movsd
  0004a	8d 45 e0	 lea	 eax, DWORD PTR $T534869[ebp]
  0004d	50		 push	 eax
  0004e	8d 45 f0	 lea	 eax, DWORD PTR _vPos$531425[ebp]
  00051	a5		 movsd
  00052	50		 push	 eax
  00053	8d 83 7c 10 00
	00		 lea	 eax, DWORD PTR [ebx+4220]
  00059	50		 push	 eax
  0005a	a5		 movsd
  0005b	f3 0f 11 45 e0	 movss	 DWORD PTR $T534869[ebp], xmm0
  00060	f3 0f 11 45 e4	 movss	 DWORD PTR $T534869[ebp+4], xmm0
  00065	f3 0f 11 45 e8	 movss	 DWORD PTR $T534869[ebp+8], xmm0
  0006a	e8 00 00 00 00	 call	 ?CreateMapEffectBySkill@ioBaseChar@@QAEPAVioMapEffect@@ABVioHashString@@ABUD3DXVECTOR3@@AAU4@@Z ; ioBaseChar::CreateMapEffectBySkill
  0006f	5f		 pop	 edi

; 535  : 		if( pMapEffect )

  00070	85 c0		 test	 eax, eax
  00072	74 0d		 je	 SHORT $LN1@SetTargetM

; 536  : 			m_dwTargetMapEffect = pMapEffect->GetUniqueID();

  00074	8b c8		 mov	 ecx, eax
  00076	e8 00 00 00 00	 call	 ?GetUniqueID@ioMapEffect@@QBEKXZ ; ioMapEffect::GetUniqueID
  0007b	89 83 8c 10 00
	00		 mov	 DWORD PTR [ebx+4236], eax
$LN1@SetTargetM:

; 537  : 	}
; 538  : }

  00081	8b 4d fc	 mov	 ecx, DWORD PTR __$ArrayPad$[ebp]
  00084	5e		 pop	 esi
  00085	33 cd		 xor	 ecx, ebp
  00087	5b		 pop	 ebx
  00088	e8 00 00 00 00	 call	 @__security_check_cookie@4
  0008d	c9		 leave
  0008e	c2 04 00	 ret	 4
?SetTargetMapEffect@ioTargetTeleportSkill@@IAEXPAVioBaseChar@@@Z ENDP ; ioTargetTeleportSkill::SetTargetMapEffect
_TEXT	ENDS
PUBLIC	??H?$CEncrypt@K@@QAEKABK@Z			; CEncrypt<unsigned long>::operator+
; Function compile flags: /Ogsp
; File d:\lost saga for developer\youtube\tutorial\source\src\lsclient\encryptvalue.h
;	COMDAT ??H?$CEncrypt@K@@QAEKABK@Z
_TEXT	SEGMENT
_value$ = -4						; size = 4
_inValue$ = 8						; size = 4
??H?$CEncrypt@K@@QAEKABK@Z PROC				; CEncrypt<unsigned long>::operator+, COMDAT
; _this$ = ecx

; 1285 : 	{

  00000	55		 push	 ebp
  00001	8b ec		 mov	 ebp, esp
  00003	51		 push	 ecx

; 1286 : 		type value;
; 1287 : 		DecryptValueToPool(&value);

  00004	8d 45 fc	 lea	 eax, DWORD PTR _value$[ebp]
  00007	50		 push	 eax
  00008	e8 00 00 00 00	 call	 ?DecryptValueToPool@?$CEncrypt@K@@QAEXPAK@Z ; CEncrypt<unsigned long>::DecryptValueToPool

; 1288 : #ifdef _NOTUSE
; 1289 : 		Debug();
; 1290 : #endif
; 1291 : 		return value + inValue;

  0000d	8b 45 08	 mov	 eax, DWORD PTR _inValue$[ebp]
  00010	8b 00		 mov	 eax, DWORD PTR [eax]
  00012	03 45 fc	 add	 eax, DWORD PTR _value$[ebp]

; 1292 : 	}

  00015	c9		 leave
  00016	c2 04 00	 ret	 4
??H?$CEncrypt@K@@QAEKABK@Z ENDP				; CEncrypt<unsigned long>::operator+
_TEXT	ENDS
PUBLIC	__real@4f800000
PUBLIC	??H?$CEncrypt@K@@QAEKABM@Z			; CEncrypt<unsigned long>::operator+
EXTRN	__ftol2:PROC
;	COMDAT __real@4f800000
CONST	SEGMENT
__real@4f800000 DD 04f800000r			; 4.29497e+009
; Function compile flags: /Ogsp
CONST	ENDS
;	COMDAT ??H?$CEncrypt@K@@QAEKABM@Z
_TEXT	SEGMENT
tv129 = -4						; size = 4
_value$ = -4						; size = 4
_inValue$ = 8						; size = 4
??H?$CEncrypt@K@@QAEKABM@Z PROC				; CEncrypt<unsigned long>::operator+, COMDAT
; _this$ = ecx

; 1675 : 	{	

  00000	55		 push	 ebp
  00001	8b ec		 mov	 ebp, esp
  00003	51		 push	 ecx

; 1676 : 		type value;
; 1677 : 		DecryptValueToPool(&value);

  00004	8d 45 fc	 lea	 eax, DWORD PTR _value$[ebp]
  00007	50		 push	 eax
  00008	e8 00 00 00 00	 call	 ?DecryptValueToPool@?$CEncrypt@K@@QAEXPAK@Z ; CEncrypt<unsigned long>::DecryptValueToPool

; 1678 : #ifdef _NOTUSE
; 1679 : 		Debug();
; 1680 : #endif
; 1681 : 		return value + inValue;

  0000d	db 45 fc	 fild	 DWORD PTR _value$[ebp]
  00010	8b 45 fc	 mov	 eax, DWORD PTR _value$[ebp]
  00013	85 c0		 test	 eax, eax
  00015	79 06		 jns	 SHORT $LN3@operator@2
  00017	d8 05 00 00 00
	00		 fadd	 DWORD PTR __real@4f800000
$LN3@operator@2:
  0001d	8b 45 08	 mov	 eax, DWORD PTR _inValue$[ebp]
  00020	d8 00		 fadd	 DWORD PTR [eax]
  00022	e8 00 00 00 00	 call	 __ftol2

; 1682 : 	}

  00027	c9		 leave
  00028	c2 04 00	 ret	 4
??H?$CEncrypt@K@@QAEKABM@Z ENDP				; CEncrypt<unsigned long>::operator+
_TEXT	ENDS
PUBLIC	??H?$CEncrypt@H@@QAEHABH@Z			; CEncrypt<int>::operator+
; Function compile flags: /Ogsp
;	COMDAT ??H?$CEncrypt@H@@QAEHABH@Z
_TEXT	SEGMENT
_value$ = -4						; size = 4
_inValue$ = 8						; size = 4
??H?$CEncrypt@H@@QAEHABH@Z PROC				; CEncrypt<int>::operator+, COMDAT
; _this$ = ecx

; 864  : 	{

  00000	55		 push	 ebp
  00001	8b ec		 mov	 ebp, esp
  00003	51		 push	 ecx

; 865  : 		type value;
; 866  : 		DecryptValueToPool(&value);

  00004	8d 45 fc	 lea	 eax, DWORD PTR _value$[ebp]
  00007	50		 push	 eax
  00008	e8 00 00 00 00	 call	 ?DecryptValueToPool@?$CEncrypt@H@@QAEXPAH@Z ; CEncrypt<int>::DecryptValueToPool

; 867  : #ifdef _NOTUSE
; 868  : 		Debug();
; 869  : #endif
; 870  : 		return value + inValue;

  0000d	8b 45 08	 mov	 eax, DWORD PTR _inValue$[ebp]
  00010	8b 00		 mov	 eax, DWORD PTR [eax]
  00012	03 45 fc	 add	 eax, DWORD PTR _value$[ebp]

; 871  : 	}

  00015	c9		 leave
  00016	c2 04 00	 ret	 4
??H?$CEncrypt@H@@QAEHABH@Z ENDP				; CEncrypt<int>::operator+
_TEXT	ENDS
PUBLIC	??8?$CEncrypt@H@@QAE_NABH@Z			; CEncrypt<int>::operator==
; Function compile flags: /Ogsp
;	COMDAT ??8?$CEncrypt@H@@QAE_NABH@Z
_TEXT	SEGMENT
_value$ = -4						; size = 4
_inValue$ = 8						; size = 4
??8?$CEncrypt@H@@QAE_NABH@Z PROC			; CEncrypt<int>::operator==, COMDAT
; _this$ = ecx

; 976  : 	{

  00000	55		 push	 ebp
  00001	8b ec		 mov	 ebp, esp
  00003	51		 push	 ecx

; 977  : 		
; 978  : 		type value;
; 979  : 		DecryptValueToPool(&value);

  00004	8d 45 fc	 lea	 eax, DWORD PTR _value$[ebp]
  00007	50		 push	 eax
  00008	e8 00 00 00 00	 call	 ?DecryptValueToPool@?$CEncrypt@H@@QAEXPAH@Z ; CEncrypt<int>::DecryptValueToPool

; 980  : #ifdef _NOTUSE
; 981  : 		Debug();
; 982  : #endif
; 983  : 		return (value == inValue);

  0000d	8b 4d 08	 mov	 ecx, DWORD PTR _inValue$[ebp]
  00010	8b 55 fc	 mov	 edx, DWORD PTR _value$[ebp]
  00013	33 c0		 xor	 eax, eax
  00015	3b 11		 cmp	 edx, DWORD PTR [ecx]
  00017	0f 94 c0	 sete	 al

; 984  : 	} 

  0001a	c9		 leave
  0001b	c2 04 00	 ret	 4
??8?$CEncrypt@H@@QAE_NABH@Z ENDP			; CEncrypt<int>::operator==
_TEXT	ENDS
PUBLIC	?begin@?$vector@PAVioBaseChar@@V?$allocator@PAVioBaseChar@@@std@@@std@@QBE?AV?$_Vector_const_iterator@V?$_Vector_val@PAVioBaseChar@@V?$allocator@PAVioBaseChar@@@std@@@std@@@2@XZ ; std::vector<ioBaseChar *,std::allocator<ioBaseChar *> >::begin
; Function compile flags: /Ogsp
; File c:\program files (x86)\microsoft visual studio 10.0\vc\include\vector
;	COMDAT ?begin@?$vector@PAVioBaseChar@@V?$allocator@PAVioBaseChar@@@std@@@std@@QBE?AV?$_Vector_const_iterator@V?$_Vector_val@PAVioBaseChar@@V?$allocator@PAVioBaseChar@@@std@@@std@@@2@XZ
_TEXT	SEGMENT
___$ReturnUdt$ = 8					; size = 4
?begin@?$vector@PAVioBaseChar@@V?$allocator@PAVioBaseChar@@@std@@@std@@QBE?AV?$_Vector_const_iterator@V?$_Vector_val@PAVioBaseChar@@V?$allocator@PAVioBaseChar@@@std@@@std@@@2@XZ PROC ; std::vector<ioBaseChar *,std::allocator<ioBaseChar *> >::begin, COMDAT
; _this$ = ecx

; 786  : 		{	// return iterator for beginning of nonmutable sequence

  00000	55		 push	 ebp
  00001	8b ec		 mov	 ebp, esp

; 787  : 		return (const_iterator(this->_Myfirst, this));

  00003	8b 09		 mov	 ecx, DWORD PTR [ecx]
  00005	8b 45 08	 mov	 eax, DWORD PTR ___$ReturnUdt$[ebp]
  00008	89 08		 mov	 DWORD PTR [eax], ecx

; 788  : 		}

  0000a	5d		 pop	 ebp
  0000b	c2 04 00	 ret	 4
?begin@?$vector@PAVioBaseChar@@V?$allocator@PAVioBaseChar@@@std@@@std@@QBE?AV?$_Vector_const_iterator@V?$_Vector_val@PAVioBaseChar@@V?$allocator@PAVioBaseChar@@@std@@@std@@@2@XZ ENDP ; std::vector<ioBaseChar *,std::allocator<ioBaseChar *> >::begin
_TEXT	ENDS
PUBLIC	?end@?$vector@PAVioBaseChar@@V?$allocator@PAVioBaseChar@@@std@@@std@@QBE?AV?$_Vector_const_iterator@V?$_Vector_val@PAVioBaseChar@@V?$allocator@PAVioBaseChar@@@std@@@std@@@2@XZ ; std::vector<ioBaseChar *,std::allocator<ioBaseChar *> >::end
; Function compile flags: /Ogsp
;	COMDAT ?end@?$vector@PAVioBaseChar@@V?$allocator@PAVioBaseChar@@@std@@@std@@QBE?AV?$_Vector_const_iterator@V?$_Vector_val@PAVioBaseChar@@V?$allocator@PAVioBaseChar@@@std@@@std@@@2@XZ
_TEXT	SEGMENT
___$ReturnUdt$ = 8					; size = 4
?end@?$vector@PAVioBaseChar@@V?$allocator@PAVioBaseChar@@@std@@@std@@QBE?AV?$_Vector_const_iterator@V?$_Vector_val@PAVioBaseChar@@V?$allocator@PAVioBaseChar@@@std@@@std@@@2@XZ PROC ; std::vector<ioBaseChar *,std::allocator<ioBaseChar *> >::end, COMDAT
; _this$ = ecx

; 796  : 		{	// return iterator for end of nonmutable sequence

  00000	55		 push	 ebp
  00001	8b ec		 mov	 ebp, esp

; 797  : 		return (const_iterator(this->_Mylast, this));

  00003	8b 49 04	 mov	 ecx, DWORD PTR [ecx+4]
  00006	8b 45 08	 mov	 eax, DWORD PTR ___$ReturnUdt$[ebp]
  00009	89 08		 mov	 DWORD PTR [eax], ecx

; 798  : 		}

  0000b	5d		 pop	 ebp
  0000c	c2 04 00	 ret	 4
?end@?$vector@PAVioBaseChar@@V?$allocator@PAVioBaseChar@@@std@@@std@@QBE?AV?$_Vector_const_iterator@V?$_Vector_val@PAVioBaseChar@@V?$allocator@PAVioBaseChar@@@std@@@std@@@2@XZ ENDP ; std::vector<ioBaseChar *,std::allocator<ioBaseChar *> >::end
_TEXT	ENDS
PUBLIC	??0?$_Vector_val@UtagBaseCharDistanceSq@@V?$allocator@UtagBaseCharDistanceSq@@@std@@@std@@QAE@V?$allocator@UtagBaseCharDistanceSq@@@1@@Z ; std::_Vector_val<tagBaseCharDistanceSq,std::allocator<tagBaseCharDistanceSq> >::_Vector_val<tagBaseCharDistanceSq,std::allocator<tagBaseCharDistanceSq> >
; Function compile flags: /Ogsp
;	COMDAT ??0?$_Vector_val@UtagBaseCharDistanceSq@@V?$allocator@UtagBaseCharDistanceSq@@@std@@@std@@QAE@V?$allocator@UtagBaseCharDistanceSq@@@1@@Z
_TEXT	SEGMENT
__Al$ = 8						; size = 1
??0?$_Vector_val@UtagBaseCharDistanceSq@@V?$allocator@UtagBaseCharDistanceSq@@@std@@@std@@QAE@V?$allocator@UtagBaseCharDistanceSq@@@1@@Z PROC ; std::_Vector_val<tagBaseCharDistanceSq,std::allocator<tagBaseCharDistanceSq> >::_Vector_val<tagBaseCharDistanceSq,std::allocator<tagBaseCharDistanceSq> >, COMDAT
; _this$ = ecx

; 426  : 		{	// construct allocator from _Al

  00000	8b c1		 mov	 eax, ecx

; 427  : 		_Myfirst = 0;

  00002	33 c9		 xor	 ecx, ecx
  00004	89 08		 mov	 DWORD PTR [eax], ecx

; 428  : 		_Mylast = 0;

  00006	89 48 04	 mov	 DWORD PTR [eax+4], ecx

; 429  : 		_Myend = 0;

  00009	89 48 08	 mov	 DWORD PTR [eax+8], ecx

; 430  : 		}

  0000c	c2 04 00	 ret	 4
??0?$_Vector_val@UtagBaseCharDistanceSq@@V?$allocator@UtagBaseCharDistanceSq@@@std@@@std@@QAE@V?$allocator@UtagBaseCharDistanceSq@@@1@@Z ENDP ; std::_Vector_val<tagBaseCharDistanceSq,std::allocator<tagBaseCharDistanceSq> >::_Vector_val<tagBaseCharDistanceSq,std::allocator<tagBaseCharDistanceSq> >
_TEXT	ENDS
PUBLIC	??8?$_Vector_const_iterator@V?$_Vector_val@PAVioBaseChar@@V?$allocator@PAVioBaseChar@@@std@@@std@@@std@@QBE_NABV01@@Z ; std::_Vector_const_iterator<std::_Vector_val<ioBaseChar *,std::allocator<ioBaseChar *> > >::operator==
; Function compile flags: /Ogsp
;	COMDAT ??8?$_Vector_const_iterator@V?$_Vector_val@PAVioBaseChar@@V?$allocator@PAVioBaseChar@@@std@@@std@@@std@@QBE_NABV01@@Z
_TEXT	SEGMENT
__Right$ = 8						; size = 4
??8?$_Vector_const_iterator@V?$_Vector_val@PAVioBaseChar@@V?$allocator@PAVioBaseChar@@@std@@@std@@@std@@QBE_NABV01@@Z PROC ; std::_Vector_const_iterator<std::_Vector_val<ioBaseChar *,std::allocator<ioBaseChar *> > >::operator==, COMDAT
; _this$ = ecx

; 201  : 		{	// test for iterator equality

  00000	55		 push	 ebp
  00001	8b ec		 mov	 ebp, esp

; 202  : 		_Compat(_Right);
; 203  : 		return (this->_Ptr == _Right._Ptr);

  00003	8b 01		 mov	 eax, DWORD PTR [ecx]
  00005	8b 4d 08	 mov	 ecx, DWORD PTR __Right$[ebp]
  00008	2b 01		 sub	 eax, DWORD PTR [ecx]
  0000a	f7 d8		 neg	 eax
  0000c	1b c0		 sbb	 eax, eax
  0000e	40		 inc	 eax

; 204  : 		}

  0000f	5d		 pop	 ebp
  00010	c2 04 00	 ret	 4
??8?$_Vector_const_iterator@V?$_Vector_val@PAVioBaseChar@@V?$allocator@PAVioBaseChar@@@std@@@std@@@std@@QBE_NABV01@@Z ENDP ; std::_Vector_const_iterator<std::_Vector_val<ioBaseChar *,std::allocator<ioBaseChar *> > >::operator==
_TEXT	ENDS
PUBLIC	??0?$_Vector_iterator@V?$_Vector_val@UtagBaseCharDistanceSq@@V?$allocator@UtagBaseCharDistanceSq@@@std@@@std@@@std@@QAE@PAUtagBaseCharDistanceSq@@PBU_Container_base0@1@@Z ; std::_Vector_iterator<std::_Vector_val<tagBaseCharDistanceSq,std::allocator<tagBaseCharDistanceSq> > >::_Vector_iterator<std::_Vector_val<tagBaseCharDistanceSq,std::allocator<tagBaseCharDistanceSq> > >
; Function compile flags: /Ogsp
;	COMDAT ??0?$_Vector_iterator@V?$_Vector_val@UtagBaseCharDistanceSq@@V?$allocator@UtagBaseCharDistanceSq@@@std@@@std@@@std@@QAE@PAUtagBaseCharDistanceSq@@PBU_Container_base0@1@@Z
_TEXT	SEGMENT
__Parg$ = 8						; size = 4
__Pvector$ = 12						; size = 4
??0?$_Vector_iterator@V?$_Vector_val@UtagBaseCharDistanceSq@@V?$allocator@UtagBaseCharDistanceSq@@@std@@@std@@@std@@QAE@PAUtagBaseCharDistanceSq@@PBU_Container_base0@1@@Z PROC ; std::_Vector_iterator<std::_Vector_val<tagBaseCharDistanceSq,std::allocator<tagBaseCharDistanceSq> > >::_Vector_iterator<std::_Vector_val<tagBaseCharDistanceSq,std::allocator<tagBaseCharDistanceSq> > >, COMDAT
; _this$ = ecx

; 304  : 		{	// construct with pointer _Parg

  00000	55		 push	 ebp
  00001	8b ec		 mov	 ebp, esp
  00003	8b c1		 mov	 eax, ecx
  00005	8b 4d 08	 mov	 ecx, DWORD PTR __Parg$[ebp]
  00008	89 08		 mov	 DWORD PTR [eax], ecx

; 305  : 		}

  0000a	5d		 pop	 ebp
  0000b	c2 08 00	 ret	 8
??0?$_Vector_iterator@V?$_Vector_val@UtagBaseCharDistanceSq@@V?$allocator@UtagBaseCharDistanceSq@@@std@@@std@@@std@@QAE@PAUtagBaseCharDistanceSq@@PBU_Container_base0@1@@Z ENDP ; std::_Vector_iterator<std::_Vector_val<tagBaseCharDistanceSq,std::allocator<tagBaseCharDistanceSq> > >::_Vector_iterator<std::_Vector_val<tagBaseCharDistanceSq,std::allocator<tagBaseCharDistanceSq> > >
_TEXT	ENDS
PUBLIC	?max_size@?$vector@UtagBaseCharDistanceSq@@V?$allocator@UtagBaseCharDistanceSq@@@std@@@std@@QBEIXZ ; std::vector<tagBaseCharDistanceSq,std::allocator<tagBaseCharDistanceSq> >::max_size
; Function compile flags: /Ogsp
;	COMDAT ?max_size@?$vector@UtagBaseCharDistanceSq@@V?$allocator@UtagBaseCharDistanceSq@@@std@@@std@@QBEIXZ
_TEXT	SEGMENT
?max_size@?$vector@UtagBaseCharDistanceSq@@V?$allocator@UtagBaseCharDistanceSq@@@std@@@std@@QBEIXZ PROC ; std::vector<tagBaseCharDistanceSq,std::allocator<tagBaseCharDistanceSq> >::max_size, COMDAT
; _this$ = ecx

; 884  : 		return (this->_Alval.max_size());

  00000	b8 ff ff ff 07	 mov	 eax, 134217727		; 07ffffffH

; 885  : 		}

  00005	c3		 ret	 0
?max_size@?$vector@UtagBaseCharDistanceSq@@V?$allocator@UtagBaseCharDistanceSq@@@std@@@std@@QBEIXZ ENDP ; std::vector<tagBaseCharDistanceSq,std::allocator<tagBaseCharDistanceSq> >::max_size
_TEXT	ENDS
PUBLIC	?_Grow_to@?$vector@UtagBaseCharDistanceSq@@V?$allocator@UtagBaseCharDistanceSq@@@std@@@std@@IBEII@Z ; std::vector<tagBaseCharDistanceSq,std::allocator<tagBaseCharDistanceSq> >::_Grow_to
; Function compile flags: /Ogsp
;	COMDAT ?_Grow_to@?$vector@UtagBaseCharDistanceSq@@V?$allocator@UtagBaseCharDistanceSq@@@std@@@std@@IBEII@Z
_TEXT	SEGMENT
__Count$ = 8						; size = 4
?_Grow_to@?$vector@UtagBaseCharDistanceSq@@V?$allocator@UtagBaseCharDistanceSq@@@std@@@std@@IBEII@Z PROC ; std::vector<tagBaseCharDistanceSq,std::allocator<tagBaseCharDistanceSq> >::_Grow_to, COMDAT
; _this$ = ecx

; 1274 : 		{	// grow by 50% or at least to _Count

  00000	55		 push	 ebp
  00001	8b ec		 mov	 ebp, esp

; 1275 : 		size_type _Capacity = capacity();

  00003	8b 41 08	 mov	 eax, DWORD PTR [ecx+8]
  00006	2b 01		 sub	 eax, DWORD PTR [ecx]

; 1276 : 
; 1277 : 		_Capacity = max_size() - _Capacity / 2 < _Capacity
; 1278 : 			? 0 : _Capacity + _Capacity / 2;	// try to grow by 50%

  00008	ba ff ff ff 07	 mov	 edx, 134217727		; 07ffffffH
  0000d	c1 f8 05	 sar	 eax, 5
  00010	8b c8		 mov	 ecx, eax
  00012	d1 e9		 shr	 ecx, 1
  00014	2b d1		 sub	 edx, ecx
  00016	3b d0		 cmp	 edx, eax
  00018	73 04		 jae	 SHORT $LN4@Grow_to
  0001a	33 c0		 xor	 eax, eax
  0001c	eb 02		 jmp	 SHORT $LN5@Grow_to
$LN4@Grow_to:
  0001e	03 c1		 add	 eax, ecx
$LN5@Grow_to:

; 1279 : 		if (_Capacity < _Count)

  00020	3b 45 08	 cmp	 eax, DWORD PTR __Count$[ebp]

; 1280 : 			_Capacity = _Count;

  00023	0f 42 45 08	 cmovb	 eax, DWORD PTR __Count$[ebp]

; 1281 : 		return (_Capacity);
; 1282 : 		}

  00027	5d		 pop	 ebp
  00028	c2 04 00	 ret	 4
?_Grow_to@?$vector@UtagBaseCharDistanceSq@@V?$allocator@UtagBaseCharDistanceSq@@@std@@@std@@IBEII@Z ENDP ; std::vector<tagBaseCharDistanceSq,std::allocator<tagBaseCharDistanceSq> >::_Grow_to
_TEXT	ENDS
PUBLIC	?allocate@?$allocator@UtagBaseCharDistanceSq@@@std@@QAEPAUtagBaseCharDistanceSq@@I@Z ; std::allocator<tagBaseCharDistanceSq>::allocate
; Function compile flags: /Ogsp
; File c:\program files (x86)\microsoft visual studio 10.0\vc\include\xmemory
;	COMDAT ?allocate@?$allocator@UtagBaseCharDistanceSq@@@std@@QAEPAUtagBaseCharDistanceSq@@I@Z
_TEXT	SEGMENT
__Count$ = 8						; size = 4
?allocate@?$allocator@UtagBaseCharDistanceSq@@@std@@QAEPAUtagBaseCharDistanceSq@@I@Z PROC ; std::allocator<tagBaseCharDistanceSq>::allocate, COMDAT
; _this$ = ecx

; 186  : 		{	// allocate array of _Count elements

  00000	55		 push	 ebp
  00001	8b ec		 mov	 ebp, esp

; 187  : 		return (_Allocate(_Count, (pointer)0));

  00003	6a 00		 push	 0
  00005	ff 75 08	 push	 DWORD PTR __Count$[ebp]
  00008	e8 00 00 00 00	 call	 ??$_Allocate@UtagBaseCharDistanceSq@@@std@@YAPAUtagBaseCharDistanceSq@@IPAU1@@Z ; std::_Allocate<tagBaseCharDistanceSq>
  0000d	59		 pop	 ecx
  0000e	59		 pop	 ecx

; 188  : 		}

  0000f	5d		 pop	 ebp
  00010	c2 04 00	 ret	 4
?allocate@?$allocator@UtagBaseCharDistanceSq@@@std@@QAEPAUtagBaseCharDistanceSq@@I@Z ENDP ; std::allocator<tagBaseCharDistanceSq>::allocate
_TEXT	ENDS
PUBLIC	__$ArrayPad$
PUBLIC	??$LoadInt_e@$0O@@ioINILoader@@QAEHAAY0O@$$CBDH@Z ; ioINILoader::LoadInt_e<14>
EXTRN	__imp_?LoadInt@ioINILoader@@QAEHPBDH@Z:PROC
; Function compile flags: /Ogsp
; File d:\lost saga for developer\youtube\tutorial\source\src\io3dengine\ioiniloader.h
;	COMDAT ??$LoadInt_e@$0O@@ioINILoader@@QAEHAAY0O@$$CBDH@Z
_TEXT	SEGMENT
__k$ = -24						; size = 14
__$ArrayPad$ = -4					; size = 4
_k$ = 8							; size = 4
_i$ = 12						; size = 4
??$LoadInt_e@$0O@@ioINILoader@@QAEHAAY0O@$$CBDH@Z PROC	; ioINILoader::LoadInt_e<14>, COMDAT
; _this$ = ecx

; 118  : 	{

  00000	55		 push	 ebp
  00001	8b ec		 mov	 ebp, esp
  00003	83 ec 18	 sub	 esp, 24			; 00000018H
  00006	a1 00 00 00 00	 mov	 eax, DWORD PTR ___security_cookie
  0000b	33 c5		 xor	 eax, ebp
  0000d	89 45 fc	 mov	 DWORD PTR __$ArrayPad$[ebp], eax
  00010	8b 45 08	 mov	 eax, DWORD PTR _k$[ebp]

; 119  : 		_ENCSTR(k, _k);

  00013	8a 10		 mov	 dl, BYTE PTR [eax]
  00015	56		 push	 esi
  00016	8b f1		 mov	 esi, ecx
  00018	84 d2		 test	 dl, dl
  0001a	0f 84 64 01 00
	00		 je	 $LN96@LoadInt_e
  00020	80 f2 ed	 xor	 dl, -19			; ffffffedH
  00023	88 55 e8	 mov	 BYTE PTR __k$[ebp], dl
  00026	8a 50 01	 mov	 dl, BYTE PTR [eax+1]
  00029	84 d2		 test	 dl, dl
  0002b	0f 84 4d 01 00
	00		 je	 $LN95@LoadInt_e
  00031	80 f2 ec	 xor	 dl, -20			; ffffffecH
  00034	88 55 e9	 mov	 BYTE PTR __k$[ebp+1], dl
  00037	8a 50 02	 mov	 dl, BYTE PTR [eax+2]
  0003a	84 d2		 test	 dl, dl
  0003c	0f 84 36 01 00
	00		 je	 $LN94@LoadInt_e
  00042	b1 eb		 mov	 cl, -21			; ffffffebH
  00044	32 d1		 xor	 dl, cl
  00046	88 55 ea	 mov	 BYTE PTR __k$[ebp+2], dl
  00049	8a 50 03	 mov	 dl, BYTE PTR [eax+3]
  0004c	84 d2		 test	 dl, dl
  0004e	0f 84 1e 01 00
	00		 je	 $LN93@LoadInt_e
  00054	80 f2 ea	 xor	 dl, -22			; ffffffeaH
  00057	88 55 eb	 mov	 BYTE PTR __k$[ebp+3], dl
  0005a	8a 50 04	 mov	 dl, BYTE PTR [eax+4]
  0005d	84 d2		 test	 dl, dl
  0005f	0f 84 07 01 00
	00		 je	 $LN92@LoadInt_e
  00065	80 f2 ed	 xor	 dl, -19			; ffffffedH
  00068	88 55 ec	 mov	 BYTE PTR __k$[ebp+4], dl
  0006b	8a 50 05	 mov	 dl, BYTE PTR [eax+5]
  0006e	84 d2		 test	 dl, dl
  00070	0f 84 f0 00 00
	00		 je	 $LN91@LoadInt_e
  00076	80 f2 ec	 xor	 dl, -20			; ffffffecH
  00079	88 55 ed	 mov	 BYTE PTR __k$[ebp+5], dl
  0007c	8a 50 06	 mov	 dl, BYTE PTR [eax+6]
  0007f	84 d2		 test	 dl, dl
  00081	0f 84 da 00 00
	00		 je	 $LN90@LoadInt_e
  00087	32 d1		 xor	 dl, cl
  00089	88 55 ee	 mov	 BYTE PTR __k$[ebp+6], dl
  0008c	8a 50 07	 mov	 dl, BYTE PTR [eax+7]
  0008f	84 d2		 test	 dl, dl
  00091	0f 84 c4 00 00
	00		 je	 $LN89@LoadInt_e
  00097	80 f2 ea	 xor	 dl, -22			; ffffffeaH
  0009a	88 55 ef	 mov	 BYTE PTR __k$[ebp+7], dl
  0009d	8a 50 08	 mov	 dl, BYTE PTR [eax+8]
  000a0	84 d2		 test	 dl, dl
  000a2	0f 84 ad 00 00
	00		 je	 $LN88@LoadInt_e
  000a8	80 f2 ed	 xor	 dl, -19			; ffffffedH
  000ab	88 55 f0	 mov	 BYTE PTR __k$[ebp+8], dl
  000ae	8a 50 09	 mov	 dl, BYTE PTR [eax+9]
  000b1	84 d2		 test	 dl, dl
  000b3	0f 84 96 00 00
	00		 je	 $LN87@LoadInt_e
  000b9	80 f2 ec	 xor	 dl, -20			; ffffffecH
  000bc	88 55 f1	 mov	 BYTE PTR __k$[ebp+9], dl
  000bf	8a 50 0a	 mov	 dl, BYTE PTR [eax+10]
  000c2	84 d2		 test	 dl, dl
  000c4	0f 84 80 00 00
	00		 je	 $LN86@LoadInt_e
  000ca	32 d1		 xor	 dl, cl
  000cc	88 55 f2	 mov	 BYTE PTR __k$[ebp+10], dl
  000cf	8a 50 0b	 mov	 dl, BYTE PTR [eax+11]
  000d2	84 d2		 test	 dl, dl
  000d4	74 6e		 je	 SHORT $LN85@LoadInt_e
  000d6	80 f2 ea	 xor	 dl, -22			; ffffffeaH
  000d9	88 55 f3	 mov	 BYTE PTR __k$[ebp+11], dl
  000dc	8a 50 0c	 mov	 dl, BYTE PTR [eax+12]
  000df	84 d2		 test	 dl, dl
  000e1	74 5b		 je	 SHORT $LN84@LoadInt_e
  000e3	80 f2 ed	 xor	 dl, -19			; ffffffedH
  000e6	80 78 0d 00	 cmp	 BYTE PTR [eax+13], 0
  000ea	88 55 f4	 mov	 BYTE PTR __k$[ebp+12], dl
  000ed	0f 84 95 00 00
	00		 je	 $LN1@LoadInt_e
  000f3	8a 50 0e	 mov	 dl, BYTE PTR [eax+14]
  000f6	84 d2		 test	 dl, dl
  000f8	74 3f		 je	 SHORT $LN82@LoadInt_e
  000fa	32 d1		 xor	 dl, cl
  000fc	88 55 f6	 mov	 BYTE PTR __k$[ebp+14], dl
  000ff	8a 50 0f	 mov	 dl, BYTE PTR [eax+15]
  00102	84 d2		 test	 dl, dl
  00104	74 2d		 je	 SHORT $LN81@LoadInt_e
  00106	80 f2 ea	 xor	 dl, -22			; ffffffeaH
  00109	88 55 f7	 mov	 BYTE PTR __k$[ebp+15], dl
  0010c	8a 50 10	 mov	 dl, BYTE PTR [eax+16]
  0010f	84 d2		 test	 dl, dl
  00111	74 1a		 je	 SHORT $LN80@LoadInt_e
  00113	8a 40 11	 mov	 al, BYTE PTR [eax+17]
  00116	80 f2 ed	 xor	 dl, -19			; ffffffedH
  00119	88 55 f8	 mov	 BYTE PTR __k$[ebp+16], dl
  0011c	84 c0		 test	 al, al
  0011e	74 07		 je	 SHORT $LN79@LoadInt_e
  00120	34 ec		 xor	 al, -20			; ffffffecH
  00122	88 45 f9	 mov	 BYTE PTR __k$[ebp+17], al
  00125	eb 61		 jmp	 SHORT $LN1@LoadInt_e
$LN79@LoadInt_e:
  00127	c6 45 f9 ec	 mov	 BYTE PTR __k$[ebp+17], -20 ; ffffffecH
  0012b	eb 5b		 jmp	 SHORT $LN1@LoadInt_e
$LN80@LoadInt_e:
  0012d	c6 45 f8 ed	 mov	 BYTE PTR __k$[ebp+16], -19 ; ffffffedH
  00131	eb 55		 jmp	 SHORT $LN1@LoadInt_e
$LN81@LoadInt_e:
  00133	c6 45 f7 ea	 mov	 BYTE PTR __k$[ebp+15], -22 ; ffffffeaH
  00137	eb 4f		 jmp	 SHORT $LN1@LoadInt_e
$LN82@LoadInt_e:
  00139	88 4d f6	 mov	 BYTE PTR __k$[ebp+14], cl
  0013c	eb 4a		 jmp	 SHORT $LN1@LoadInt_e
$LN84@LoadInt_e:
  0013e	c6 45 f4 ed	 mov	 BYTE PTR __k$[ebp+12], -19 ; ffffffedH
  00142	eb 44		 jmp	 SHORT $LN1@LoadInt_e
$LN85@LoadInt_e:
  00144	c6 45 f3 ea	 mov	 BYTE PTR __k$[ebp+11], -22 ; ffffffeaH
  00148	eb 3e		 jmp	 SHORT $LN1@LoadInt_e
$LN86@LoadInt_e:
  0014a	88 4d f2	 mov	 BYTE PTR __k$[ebp+10], cl
  0014d	eb 39		 jmp	 SHORT $LN1@LoadInt_e
$LN87@LoadInt_e:
  0014f	c6 45 f1 ec	 mov	 BYTE PTR __k$[ebp+9], -20 ; ffffffecH
  00153	eb 33		 jmp	 SHORT $LN1@LoadInt_e
$LN88@LoadInt_e:
  00155	c6 45 f0 ed	 mov	 BYTE PTR __k$[ebp+8], -19 ; ffffffedH
  00159	eb 2d		 jmp	 SHORT $LN1@LoadInt_e
$LN89@LoadInt_e:
  0015b	c6 45 ef ea	 mov	 BYTE PTR __k$[ebp+7], -22 ; ffffffeaH
  0015f	eb 27		 jmp	 SHORT $LN1@LoadInt_e
$LN90@LoadInt_e:
  00161	88 4d ee	 mov	 BYTE PTR __k$[ebp+6], cl
  00164	eb 22		 jmp	 SHORT $LN1@LoadInt_e
$LN91@LoadInt_e:
  00166	c6 45 ed ec	 mov	 BYTE PTR __k$[ebp+5], -20 ; ffffffecH
  0016a	eb 1c		 jmp	 SHORT $LN1@LoadInt_e
$LN92@LoadInt_e:
  0016c	c6 45 ec ed	 mov	 BYTE PTR __k$[ebp+4], -19 ; ffffffedH
  00170	eb 16		 jmp	 SHORT $LN1@LoadInt_e
$LN93@LoadInt_e:
  00172	c6 45 eb ea	 mov	 BYTE PTR __k$[ebp+3], -22 ; ffffffeaH
  00176	eb 10		 jmp	 SHORT $LN1@LoadInt_e
$LN94@LoadInt_e:
  00178	c6 45 ea eb	 mov	 BYTE PTR __k$[ebp+2], -21 ; ffffffebH
  0017c	eb 0a		 jmp	 SHORT $LN1@LoadInt_e
$LN95@LoadInt_e:
  0017e	c6 45 e9 ec	 mov	 BYTE PTR __k$[ebp+1], -20 ; ffffffecH
  00182	eb 04		 jmp	 SHORT $LN1@LoadInt_e
$LN96@LoadInt_e:
  00184	c6 45 e8 ed	 mov	 BYTE PTR __k$[ebp], -19	; ffffffedH
$LN1@LoadInt_e:
  00188	6a 03		 push	 3
  0018a	8d 45 e8	 lea	 eax, DWORD PTR __k$[ebp]
  0018d	c6 45 f5 00	 mov	 BYTE PTR __k$[ebp+13], 0
  00191	5a		 pop	 edx
$LL104@LoadInt_e:
  00192	81 30 ed ec eb
	ea		 xor	 DWORD PTR [eax], -353637139 ; eaebecedH
  00198	83 c0 04	 add	 eax, 4
  0019b	4a		 dec	 edx
  0019c	75 f4		 jne	 SHORT $LL104@LoadInt_e

; 120  : 		return LoadInt(_k, i);

  0019e	ff 75 0c	 push	 DWORD PTR _i$[ebp]
  001a1	80 75 f4 ed	 xor	 BYTE PTR __k$[ebp+12], -19 ; ffffffedH
  001a5	8d 45 e8	 lea	 eax, DWORD PTR __k$[ebp]
  001a8	50		 push	 eax
  001a9	8b ce		 mov	 ecx, esi
  001ab	ff 15 00 00 00
	00		 call	 DWORD PTR __imp_?LoadInt@ioINILoader@@QAEHPBDH@Z

; 121  : 	}

  001b1	8b 4d fc	 mov	 ecx, DWORD PTR __$ArrayPad$[ebp]
  001b4	33 cd		 xor	 ecx, ebp
  001b6	5e		 pop	 esi
  001b7	e8 00 00 00 00	 call	 @__security_check_cookie@4
  001bc	c9		 leave
  001bd	c2 08 00	 ret	 8
??$LoadInt_e@$0O@@ioINILoader@@QAEHAAY0O@$$CBDH@Z ENDP	; ioINILoader::LoadInt_e<14>
_TEXT	ENDS
PUBLIC	_this$GSCopy$
PUBLIC	__$ArrayPad$
PUBLIC	??$LoadString_e@$0BB@@ioINILoader@@QAEXAAY0BB@$$CBDAAY00$$CBDPADH@Z ; ioINILoader::LoadString_e<17>
EXTRN	__imp_?LoadStringA@ioINILoader@@QAEXPBD0PADH@Z:PROC
; Function compile flags: /Ogsp
;	COMDAT ??$LoadString_e@$0BB@@ioINILoader@@QAEXAAY0BB@$$CBDAAY00$$CBDPADH@Z
_TEXT	SEGMENT
_this$GSCopy$ = -32					; size = 4
__k$ = -28						; size = 17
__$ArrayPad$ = -4					; size = 4
_k$ = 8							; size = 4
_d$ = 12						; size = 4
_b$ = 16						; size = 4
_i$ = 20						; size = 4
??$LoadString_e@$0BB@@ioINILoader@@QAEXAAY0BB@$$CBDAAY00$$CBDPADH@Z PROC ; ioINILoader::LoadString_e<17>, COMDAT
; _this$ = ecx

; 161  : 	{

  00000	55		 push	 ebp
  00001	8b ec		 mov	 ebp, esp
  00003	83 ec 20	 sub	 esp, 32			; 00000020H
  00006	a1 00 00 00 00	 mov	 eax, DWORD PTR ___security_cookie
  0000b	33 c5		 xor	 eax, ebp
  0000d	89 45 fc	 mov	 DWORD PTR __$ArrayPad$[ebp], eax
  00010	8b 45 08	 mov	 eax, DWORD PTR _k$[ebp]

; 162  : 		_ENCSTR(k, _k);

  00013	8a 10		 mov	 dl, BYTE PTR [eax]
  00015	56		 push	 esi
  00016	8b 75 0c	 mov	 esi, DWORD PTR _d$[ebp]
  00019	57		 push	 edi
  0001a	8b 7d 10	 mov	 edi, DWORD PTR _b$[ebp]
  0001d	89 4d e0	 mov	 DWORD PTR _this$GSCopy$[ebp], ecx
  00020	84 d2		 test	 dl, dl
  00022	0f 84 a7 01 00
	00		 je	 $LN96@LoadString
  00028	80 f2 ed	 xor	 dl, -19			; ffffffedH
  0002b	88 55 e4	 mov	 BYTE PTR __k$[ebp], dl
  0002e	8a 50 01	 mov	 dl, BYTE PTR [eax+1]
  00031	84 d2		 test	 dl, dl
  00033	0f 84 90 01 00
	00		 je	 $LN95@LoadString
  00039	b1 ec		 mov	 cl, -20			; ffffffecH
  0003b	32 d1		 xor	 dl, cl
  0003d	88 55 e5	 mov	 BYTE PTR __k$[ebp+1], dl
  00040	8a 50 02	 mov	 dl, BYTE PTR [eax+2]
  00043	84 d2		 test	 dl, dl
  00045	0f 84 78 01 00
	00		 je	 $LN94@LoadString
  0004b	80 f2 eb	 xor	 dl, -21			; ffffffebH
  0004e	88 55 e6	 mov	 BYTE PTR __k$[ebp+2], dl
  00051	8a 50 03	 mov	 dl, BYTE PTR [eax+3]
  00054	84 d2		 test	 dl, dl
  00056	0f 84 61 01 00
	00		 je	 $LN93@LoadString
  0005c	80 f2 ea	 xor	 dl, -22			; ffffffeaH
  0005f	88 55 e7	 mov	 BYTE PTR __k$[ebp+3], dl
  00062	8a 50 04	 mov	 dl, BYTE PTR [eax+4]
  00065	84 d2		 test	 dl, dl
  00067	0f 84 4a 01 00
	00		 je	 $LN92@LoadString
  0006d	80 f2 ed	 xor	 dl, -19			; ffffffedH
  00070	88 55 e8	 mov	 BYTE PTR __k$[ebp+4], dl
  00073	8a 50 05	 mov	 dl, BYTE PTR [eax+5]
  00076	84 d2		 test	 dl, dl
  00078	0f 84 34 01 00
	00		 je	 $LN91@LoadString
  0007e	32 d1		 xor	 dl, cl
  00080	88 55 e9	 mov	 BYTE PTR __k$[ebp+5], dl
  00083	8a 50 06	 mov	 dl, BYTE PTR [eax+6]
  00086	84 d2		 test	 dl, dl
  00088	0f 84 1e 01 00
	00		 je	 $LN90@LoadString
  0008e	80 f2 eb	 xor	 dl, -21			; ffffffebH
  00091	88 55 ea	 mov	 BYTE PTR __k$[ebp+6], dl
  00094	8a 50 07	 mov	 dl, BYTE PTR [eax+7]
  00097	84 d2		 test	 dl, dl
  00099	0f 84 07 01 00
	00		 je	 $LN89@LoadString
  0009f	80 f2 ea	 xor	 dl, -22			; ffffffeaH
  000a2	88 55 eb	 mov	 BYTE PTR __k$[ebp+7], dl
  000a5	8a 50 08	 mov	 dl, BYTE PTR [eax+8]
  000a8	84 d2		 test	 dl, dl
  000aa	0f 84 f0 00 00
	00		 je	 $LN88@LoadString
  000b0	80 f2 ed	 xor	 dl, -19			; ffffffedH
  000b3	88 55 ec	 mov	 BYTE PTR __k$[ebp+8], dl
  000b6	8a 50 09	 mov	 dl, BYTE PTR [eax+9]
  000b9	84 d2		 test	 dl, dl
  000bb	0f 84 da 00 00
	00		 je	 $LN87@LoadString
  000c1	32 d1		 xor	 dl, cl
  000c3	88 55 ed	 mov	 BYTE PTR __k$[ebp+9], dl
  000c6	8a 50 0a	 mov	 dl, BYTE PTR [eax+10]
  000c9	84 d2		 test	 dl, dl
  000cb	0f 84 c4 00 00
	00		 je	 $LN86@LoadString
  000d1	80 f2 eb	 xor	 dl, -21			; ffffffebH
  000d4	88 55 ee	 mov	 BYTE PTR __k$[ebp+10], dl
  000d7	8a 50 0b	 mov	 dl, BYTE PTR [eax+11]
  000da	84 d2		 test	 dl, dl
  000dc	0f 84 ad 00 00
	00		 je	 $LN85@LoadString
  000e2	80 f2 ea	 xor	 dl, -22			; ffffffeaH
  000e5	88 55 ef	 mov	 BYTE PTR __k$[ebp+11], dl
  000e8	8a 50 0c	 mov	 dl, BYTE PTR [eax+12]
  000eb	84 d2		 test	 dl, dl
  000ed	0f 84 96 00 00
	00		 je	 $LN84@LoadString
  000f3	80 f2 ed	 xor	 dl, -19			; ffffffedH
  000f6	88 55 f0	 mov	 BYTE PTR __k$[ebp+12], dl
  000f9	8a 50 0d	 mov	 dl, BYTE PTR [eax+13]
  000fc	84 d2		 test	 dl, dl
  000fe	0f 84 80 00 00
	00		 je	 $LN83@LoadString
  00104	32 d1		 xor	 dl, cl
  00106	88 55 f1	 mov	 BYTE PTR __k$[ebp+13], dl
  00109	8a 50 0e	 mov	 dl, BYTE PTR [eax+14]
  0010c	84 d2		 test	 dl, dl
  0010e	74 6e		 je	 SHORT $LN82@LoadString
  00110	80 f2 eb	 xor	 dl, -21			; ffffffebH
  00113	88 55 f2	 mov	 BYTE PTR __k$[ebp+14], dl
  00116	8a 50 0f	 mov	 dl, BYTE PTR [eax+15]
  00119	84 d2		 test	 dl, dl
  0011b	74 5b		 je	 SHORT $LN81@LoadString
  0011d	80 f2 ea	 xor	 dl, -22			; ffffffeaH
  00120	80 78 10 00	 cmp	 BYTE PTR [eax+16], 0
  00124	88 55 f3	 mov	 BYTE PTR __k$[ebp+15], dl
  00127	0f 84 a6 00 00
	00		 je	 $LN111@LoadString
  0012d	8a 50 11	 mov	 dl, BYTE PTR [eax+17]
  00130	84 d2		 test	 dl, dl
  00132	74 3f		 je	 SHORT $LN79@LoadString
  00134	32 d1		 xor	 dl, cl
  00136	88 55 f5	 mov	 BYTE PTR __k$[ebp+17], dl
  00139	8a 50 12	 mov	 dl, BYTE PTR [eax+18]
  0013c	84 d2		 test	 dl, dl
  0013e	74 2d		 je	 SHORT $LN78@LoadString
  00140	80 f2 eb	 xor	 dl, -21			; ffffffebH
  00143	88 55 f6	 mov	 BYTE PTR __k$[ebp+18], dl
  00146	8a 50 13	 mov	 dl, BYTE PTR [eax+19]
  00149	84 d2		 test	 dl, dl
  0014b	74 1a		 je	 SHORT $LN77@LoadString
  0014d	8a 40 14	 mov	 al, BYTE PTR [eax+20]
  00150	80 f2 ea	 xor	 dl, -22			; ffffffeaH
  00153	88 55 f7	 mov	 BYTE PTR __k$[ebp+19], dl
  00156	84 c0		 test	 al, al
  00158	74 07		 je	 SHORT $LN76@LoadString
  0015a	34 ed		 xor	 al, -19			; ffffffedH
  0015c	88 45 f8	 mov	 BYTE PTR __k$[ebp+20], al
  0015f	eb 72		 jmp	 SHORT $LN111@LoadString
$LN76@LoadString:
  00161	c6 45 f8 ed	 mov	 BYTE PTR __k$[ebp+20], -19 ; ffffffedH
  00165	eb 6c		 jmp	 SHORT $LN111@LoadString
$LN77@LoadString:
  00167	c6 45 f7 ea	 mov	 BYTE PTR __k$[ebp+19], -22 ; ffffffeaH
  0016b	eb 66		 jmp	 SHORT $LN111@LoadString
$LN78@LoadString:
  0016d	c6 45 f6 eb	 mov	 BYTE PTR __k$[ebp+18], -21 ; ffffffebH
  00171	eb 60		 jmp	 SHORT $LN111@LoadString
$LN79@LoadString:
  00173	88 4d f5	 mov	 BYTE PTR __k$[ebp+17], cl
  00176	eb 5b		 jmp	 SHORT $LN111@LoadString
$LN81@LoadString:
  00178	c6 45 f3 ea	 mov	 BYTE PTR __k$[ebp+15], -22 ; ffffffeaH
  0017c	eb 55		 jmp	 SHORT $LN111@LoadString
$LN82@LoadString:
  0017e	c6 45 f2 eb	 mov	 BYTE PTR __k$[ebp+14], -21 ; ffffffebH
  00182	eb 4f		 jmp	 SHORT $LN111@LoadString
$LN83@LoadString:
  00184	88 4d f1	 mov	 BYTE PTR __k$[ebp+13], cl
  00187	eb 4a		 jmp	 SHORT $LN111@LoadString
$LN84@LoadString:
  00189	c6 45 f0 ed	 mov	 BYTE PTR __k$[ebp+12], -19 ; ffffffedH
  0018d	eb 44		 jmp	 SHORT $LN111@LoadString
$LN85@LoadString:
  0018f	c6 45 ef ea	 mov	 BYTE PTR __k$[ebp+11], -22 ; ffffffeaH
  00193	eb 3e		 jmp	 SHORT $LN111@LoadString
$LN86@LoadString:
  00195	c6 45 ee eb	 mov	 BYTE PTR __k$[ebp+10], -21 ; ffffffebH
  00199	eb 38		 jmp	 SHORT $LN111@LoadString
$LN87@LoadString:
  0019b	88 4d ed	 mov	 BYTE PTR __k$[ebp+9], cl
  0019e	eb 33		 jmp	 SHORT $LN111@LoadString
$LN88@LoadString:
  001a0	c6 45 ec ed	 mov	 BYTE PTR __k$[ebp+8], -19 ; ffffffedH
  001a4	eb 2d		 jmp	 SHORT $LN111@LoadString
$LN89@LoadString:
  001a6	c6 45 eb ea	 mov	 BYTE PTR __k$[ebp+7], -22 ; ffffffeaH
  001aa	eb 27		 jmp	 SHORT $LN111@LoadString
$LN90@LoadString:
  001ac	c6 45 ea eb	 mov	 BYTE PTR __k$[ebp+6], -21 ; ffffffebH
  001b0	eb 21		 jmp	 SHORT $LN111@LoadString
$LN91@LoadString:
  001b2	88 4d e9	 mov	 BYTE PTR __k$[ebp+5], cl
  001b5	eb 1c		 jmp	 SHORT $LN111@LoadString
$LN92@LoadString:
  001b7	c6 45 e8 ed	 mov	 BYTE PTR __k$[ebp+4], -19 ; ffffffedH
  001bb	eb 16		 jmp	 SHORT $LN111@LoadString
$LN93@LoadString:
  001bd	c6 45 e7 ea	 mov	 BYTE PTR __k$[ebp+3], -22 ; ffffffeaH
  001c1	eb 10		 jmp	 SHORT $LN111@LoadString
$LN94@LoadString:
  001c3	c6 45 e6 eb	 mov	 BYTE PTR __k$[ebp+2], -21 ; ffffffebH
  001c7	eb 0a		 jmp	 SHORT $LN111@LoadString
$LN95@LoadString:
  001c9	c6 45 e5 ec	 mov	 BYTE PTR __k$[ebp+1], -20 ; ffffffecH
  001cd	eb 04		 jmp	 SHORT $LN111@LoadString
$LN96@LoadString:
  001cf	c6 45 e4 ed	 mov	 BYTE PTR __k$[ebp], -19	; ffffffedH
$LN111@LoadString:
  001d3	6a 04		 push	 4
  001d5	8d 45 e4	 lea	 eax, DWORD PTR __k$[ebp]
  001d8	c6 45 f4 00	 mov	 BYTE PTR __k$[ebp+16], 0
  001dc	5a		 pop	 edx
$LL104@LoadString:
  001dd	81 30 ed ec eb
	ea		 xor	 DWORD PTR [eax], -353637139 ; eaebecedH
  001e3	83 c0 04	 add	 eax, 4
  001e6	4a		 dec	 edx
  001e7	75 f4		 jne	 SHORT $LL104@LoadString

; 163  : 		LoadString(_k, d, b, i);

  001e9	ff 75 14	 push	 DWORD PTR _i$[ebp]
  001ec	8b 4d e0	 mov	 ecx, DWORD PTR _this$GSCopy$[ebp]
  001ef	57		 push	 edi
  001f0	56		 push	 esi
  001f1	8d 45 e4	 lea	 eax, DWORD PTR __k$[ebp]
  001f4	50		 push	 eax
  001f5	ff 15 00 00 00
	00		 call	 DWORD PTR __imp_?LoadStringA@ioINILoader@@QAEXPBD0PADH@Z

; 164  : 	}

  001fb	8b 4d fc	 mov	 ecx, DWORD PTR __$ArrayPad$[ebp]
  001fe	5f		 pop	 edi
  001ff	33 cd		 xor	 ecx, ebp
  00201	5e		 pop	 esi
  00202	e8 00 00 00 00	 call	 @__security_check_cookie@4
  00207	c9		 leave
  00208	c2 10 00	 ret	 16			; 00000010H
??$LoadString_e@$0BB@@ioINILoader@@QAEXAAY0BB@$$CBDAAY00$$CBDPADH@Z ENDP ; ioINILoader::LoadString_e<17>
_TEXT	ENDS
PUBLIC	__$ArrayPad$
PUBLIC	??$LoadFloat_e@$0BA@@ioINILoader@@QAEMAAY0BA@$$CBDM@Z ; ioINILoader::LoadFloat_e<16>
EXTRN	__imp_?LoadFloat@ioINILoader@@QAEMPBDM@Z:PROC
; Function compile flags: /Ogsp
;	COMDAT ??$LoadFloat_e@$0BA@@ioINILoader@@QAEMAAY0BA@$$CBDM@Z
_TEXT	SEGMENT
__k$ = -24						; size = 16
__$ArrayPad$ = -4					; size = 4
_k$ = 8							; size = 4
_f$ = 12						; size = 4
??$LoadFloat_e@$0BA@@ioINILoader@@QAEMAAY0BA@$$CBDM@Z PROC ; ioINILoader::LoadFloat_e<16>, COMDAT
; _this$ = ecx

; 135  : 	{

  00000	55		 push	 ebp
  00001	8b ec		 mov	 ebp, esp
  00003	83 ec 18	 sub	 esp, 24			; 00000018H
  00006	a1 00 00 00 00	 mov	 eax, DWORD PTR ___security_cookie
  0000b	33 c5		 xor	 eax, ebp
  0000d	89 45 fc	 mov	 DWORD PTR __$ArrayPad$[ebp], eax
  00010	8b 45 08	 mov	 eax, DWORD PTR _k$[ebp]

; 136  : 		_ENCSTR(k, _k);

  00013	8a 10		 mov	 dl, BYTE PTR [eax]
  00015	56		 push	 esi
  00016	8b f1		 mov	 esi, ecx
  00018	84 d2		 test	 dl, dl
  0001a	0f 84 8c 01 00
	00		 je	 $LN96@LoadFloat_
  00020	80 f2 ed	 xor	 dl, -19			; ffffffedH
  00023	88 55 e8	 mov	 BYTE PTR __k$[ebp], dl
  00026	8a 50 01	 mov	 dl, BYTE PTR [eax+1]
  00029	84 d2		 test	 dl, dl
  0002b	0f 84 75 01 00
	00		 je	 $LN95@LoadFloat_
  00031	80 f2 ec	 xor	 dl, -20			; ffffffecH
  00034	88 55 e9	 mov	 BYTE PTR __k$[ebp+1], dl
  00037	8a 50 02	 mov	 dl, BYTE PTR [eax+2]
  0003a	84 d2		 test	 dl, dl
  0003c	0f 84 5e 01 00
	00		 je	 $LN94@LoadFloat_
  00042	b1 eb		 mov	 cl, -21			; ffffffebH
  00044	32 d1		 xor	 dl, cl
  00046	88 55 ea	 mov	 BYTE PTR __k$[ebp+2], dl
  00049	8a 50 03	 mov	 dl, BYTE PTR [eax+3]
  0004c	84 d2		 test	 dl, dl
  0004e	0f 84 46 01 00
	00		 je	 $LN93@LoadFloat_
  00054	80 f2 ea	 xor	 dl, -22			; ffffffeaH
  00057	88 55 eb	 mov	 BYTE PTR __k$[ebp+3], dl
  0005a	8a 50 04	 mov	 dl, BYTE PTR [eax+4]
  0005d	84 d2		 test	 dl, dl
  0005f	0f 84 2f 01 00
	00		 je	 $LN92@LoadFloat_
  00065	80 f2 ed	 xor	 dl, -19			; ffffffedH
  00068	88 55 ec	 mov	 BYTE PTR __k$[ebp+4], dl
  0006b	8a 50 05	 mov	 dl, BYTE PTR [eax+5]
  0006e	84 d2		 test	 dl, dl
  00070	0f 84 18 01 00
	00		 je	 $LN91@LoadFloat_
  00076	80 f2 ec	 xor	 dl, -20			; ffffffecH
  00079	88 55 ed	 mov	 BYTE PTR __k$[ebp+5], dl
  0007c	8a 50 06	 mov	 dl, BYTE PTR [eax+6]
  0007f	84 d2		 test	 dl, dl
  00081	0f 84 02 01 00
	00		 je	 $LN90@LoadFloat_
  00087	32 d1		 xor	 dl, cl
  00089	88 55 ee	 mov	 BYTE PTR __k$[ebp+6], dl
  0008c	8a 50 07	 mov	 dl, BYTE PTR [eax+7]
  0008f	84 d2		 test	 dl, dl
  00091	0f 84 ec 00 00
	00		 je	 $LN89@LoadFloat_
  00097	80 f2 ea	 xor	 dl, -22			; ffffffeaH
  0009a	88 55 ef	 mov	 BYTE PTR __k$[ebp+7], dl
  0009d	8a 50 08	 mov	 dl, BYTE PTR [eax+8]
  000a0	84 d2		 test	 dl, dl
  000a2	0f 84 d5 00 00
	00		 je	 $LN88@LoadFloat_
  000a8	80 f2 ed	 xor	 dl, -19			; ffffffedH
  000ab	88 55 f0	 mov	 BYTE PTR __k$[ebp+8], dl
  000ae	8a 50 09	 mov	 dl, BYTE PTR [eax+9]
  000b1	84 d2		 test	 dl, dl
  000b3	0f 84 be 00 00
	00		 je	 $LN87@LoadFloat_
  000b9	80 f2 ec	 xor	 dl, -20			; ffffffecH
  000bc	88 55 f1	 mov	 BYTE PTR __k$[ebp+9], dl
  000bf	8a 50 0a	 mov	 dl, BYTE PTR [eax+10]
  000c2	84 d2		 test	 dl, dl
  000c4	0f 84 a8 00 00
	00		 je	 $LN86@LoadFloat_
  000ca	32 d1		 xor	 dl, cl
  000cc	88 55 f2	 mov	 BYTE PTR __k$[ebp+10], dl
  000cf	8a 50 0b	 mov	 dl, BYTE PTR [eax+11]
  000d2	84 d2		 test	 dl, dl
  000d4	0f 84 92 00 00
	00		 je	 $LN85@LoadFloat_
  000da	80 f2 ea	 xor	 dl, -22			; ffffffeaH
  000dd	88 55 f3	 mov	 BYTE PTR __k$[ebp+11], dl
  000e0	8a 50 0c	 mov	 dl, BYTE PTR [eax+12]
  000e3	84 d2		 test	 dl, dl
  000e5	74 7f		 je	 SHORT $LN84@LoadFloat_
  000e7	80 f2 ed	 xor	 dl, -19			; ffffffedH
  000ea	88 55 f4	 mov	 BYTE PTR __k$[ebp+12], dl
  000ed	8a 50 0d	 mov	 dl, BYTE PTR [eax+13]
  000f0	84 d2		 test	 dl, dl
  000f2	74 6c		 je	 SHORT $LN83@LoadFloat_
  000f4	80 f2 ec	 xor	 dl, -20			; ffffffecH
  000f7	88 55 f5	 mov	 BYTE PTR __k$[ebp+13], dl
  000fa	8a 50 0e	 mov	 dl, BYTE PTR [eax+14]
  000fd	84 d2		 test	 dl, dl
  000ff	74 5a		 je	 SHORT $LN82@LoadFloat_
  00101	32 d1		 xor	 dl, cl
  00103	80 78 0f 00	 cmp	 BYTE PTR [eax+15], 0
  00107	88 55 f6	 mov	 BYTE PTR __k$[ebp+14], dl
  0010a	0f 84 a0 00 00
	00		 je	 $LN1@LoadFloat_
  00110	8a 50 10	 mov	 dl, BYTE PTR [eax+16]
  00113	84 d2		 test	 dl, dl
  00115	74 3e		 je	 SHORT $LN80@LoadFloat_
  00117	80 f2 ed	 xor	 dl, -19			; ffffffedH
  0011a	88 55 f8	 mov	 BYTE PTR __k$[ebp+16], dl
  0011d	8a 50 11	 mov	 dl, BYTE PTR [eax+17]
  00120	84 d2		 test	 dl, dl
  00122	74 2b		 je	 SHORT $LN79@LoadFloat_
  00124	80 f2 ec	 xor	 dl, -20			; ffffffecH
  00127	88 55 f9	 mov	 BYTE PTR __k$[ebp+17], dl
  0012a	8a 50 12	 mov	 dl, BYTE PTR [eax+18]
  0012d	84 d2		 test	 dl, dl
  0012f	74 19		 je	 SHORT $LN78@LoadFloat_
  00131	8a 40 13	 mov	 al, BYTE PTR [eax+19]
  00134	32 d1		 xor	 dl, cl
  00136	88 55 fa	 mov	 BYTE PTR __k$[ebp+18], dl
  00139	84 c0		 test	 al, al
  0013b	74 07		 je	 SHORT $LN77@LoadFloat_
  0013d	34 ea		 xor	 al, -22			; ffffffeaH
  0013f	88 45 fb	 mov	 BYTE PTR __k$[ebp+19], al
  00142	eb 6c		 jmp	 SHORT $LN1@LoadFloat_
$LN77@LoadFloat_:
  00144	c6 45 fb ea	 mov	 BYTE PTR __k$[ebp+19], -22 ; ffffffeaH
  00148	eb 66		 jmp	 SHORT $LN1@LoadFloat_
$LN78@LoadFloat_:
  0014a	88 4d fa	 mov	 BYTE PTR __k$[ebp+18], cl
  0014d	eb 61		 jmp	 SHORT $LN1@LoadFloat_
$LN79@LoadFloat_:
  0014f	c6 45 f9 ec	 mov	 BYTE PTR __k$[ebp+17], -20 ; ffffffecH
  00153	eb 5b		 jmp	 SHORT $LN1@LoadFloat_
$LN80@LoadFloat_:
  00155	c6 45 f8 ed	 mov	 BYTE PTR __k$[ebp+16], -19 ; ffffffedH
  00159	eb 55		 jmp	 SHORT $LN1@LoadFloat_
$LN82@LoadFloat_:
  0015b	88 4d f6	 mov	 BYTE PTR __k$[ebp+14], cl
  0015e	eb 50		 jmp	 SHORT $LN1@LoadFloat_
$LN83@LoadFloat_:
  00160	c6 45 f5 ec	 mov	 BYTE PTR __k$[ebp+13], -20 ; ffffffecH
  00164	eb 4a		 jmp	 SHORT $LN1@LoadFloat_
$LN84@LoadFloat_:
  00166	c6 45 f4 ed	 mov	 BYTE PTR __k$[ebp+12], -19 ; ffffffedH
  0016a	eb 44		 jmp	 SHORT $LN1@LoadFloat_
$LN85@LoadFloat_:
  0016c	c6 45 f3 ea	 mov	 BYTE PTR __k$[ebp+11], -22 ; ffffffeaH
  00170	eb 3e		 jmp	 SHORT $LN1@LoadFloat_
$LN86@LoadFloat_:
  00172	88 4d f2	 mov	 BYTE PTR __k$[ebp+10], cl
  00175	eb 39		 jmp	 SHORT $LN1@LoadFloat_
$LN87@LoadFloat_:
  00177	c6 45 f1 ec	 mov	 BYTE PTR __k$[ebp+9], -20 ; ffffffecH
  0017b	eb 33		 jmp	 SHORT $LN1@LoadFloat_
$LN88@LoadFloat_:
  0017d	c6 45 f0 ed	 mov	 BYTE PTR __k$[ebp+8], -19 ; ffffffedH
  00181	eb 2d		 jmp	 SHORT $LN1@LoadFloat_
$LN89@LoadFloat_:
  00183	c6 45 ef ea	 mov	 BYTE PTR __k$[ebp+7], -22 ; ffffffeaH
  00187	eb 27		 jmp	 SHORT $LN1@LoadFloat_
$LN90@LoadFloat_:
  00189	88 4d ee	 mov	 BYTE PTR __k$[ebp+6], cl
  0018c	eb 22		 jmp	 SHORT $LN1@LoadFloat_
$LN91@LoadFloat_:
  0018e	c6 45 ed ec	 mov	 BYTE PTR __k$[ebp+5], -20 ; ffffffecH
  00192	eb 1c		 jmp	 SHORT $LN1@LoadFloat_
$LN92@LoadFloat_:
  00194	c6 45 ec ed	 mov	 BYTE PTR __k$[ebp+4], -19 ; ffffffedH
  00198	eb 16		 jmp	 SHORT $LN1@LoadFloat_
$LN93@LoadFloat_:
  0019a	c6 45 eb ea	 mov	 BYTE PTR __k$[ebp+3], -22 ; ffffffeaH
  0019e	eb 10		 jmp	 SHORT $LN1@LoadFloat_
$LN94@LoadFloat_:
  001a0	c6 45 ea eb	 mov	 BYTE PTR __k$[ebp+2], -21 ; ffffffebH
  001a4	eb 0a		 jmp	 SHORT $LN1@LoadFloat_
$LN95@LoadFloat_:
  001a6	c6 45 e9 ec	 mov	 BYTE PTR __k$[ebp+1], -20 ; ffffffecH
  001aa	eb 04		 jmp	 SHORT $LN1@LoadFloat_
$LN96@LoadFloat_:
  001ac	c6 45 e8 ed	 mov	 BYTE PTR __k$[ebp], -19	; ffffffedH
$LN1@LoadFloat_:
  001b0	6a 03		 push	 3
  001b2	8d 45 e8	 lea	 eax, DWORD PTR __k$[ebp]
  001b5	c6 45 f7 00	 mov	 BYTE PTR __k$[ebp+15], 0
  001b9	5a		 pop	 edx
$LL104@LoadFloat_:
  001ba	81 30 ed ec eb
	ea		 xor	 DWORD PTR [eax], -353637139 ; eaebecedH
  001c0	83 c0 04	 add	 eax, 4
  001c3	4a		 dec	 edx
  001c4	75 f4		 jne	 SHORT $LL104@LoadFloat_
  001c6	6a 0c		 push	 12			; 0000000cH
  001c8	58		 pop	 eax
$LL101@LoadFloat_:
  001c9	8b c8		 mov	 ecx, eax
  001cb	81 e1 03 00 00
	80		 and	 ecx, -2147483645	; 80000003H
  001d1	79 05		 jns	 SHORT $LN111@LoadFloat_
  001d3	49		 dec	 ecx
  001d4	83 c9 fc	 or	 ecx, -4			; fffffffcH
  001d7	41		 inc	 ecx
$LN111@LoadFloat_:
  001d8	b2 ed		 mov	 dl, -19			; ffffffedH
  001da	2a d1		 sub	 dl, cl
  001dc	30 54 05 e8	 xor	 BYTE PTR __k$[ebp+eax], dl
  001e0	40		 inc	 eax
  001e1	83 f8 0f	 cmp	 eax, 15			; 0000000fH
  001e4	7c e3		 jl	 SHORT $LL101@LoadFloat_

; 137  : 		return LoadFloat(_k, f);

  001e6	f3 0f 10 45 0c	 movss	 xmm0, DWORD PTR _f$[ebp]
  001eb	51		 push	 ecx
  001ec	8d 45 e8	 lea	 eax, DWORD PTR __k$[ebp]
  001ef	f3 0f 11 04 24	 movss	 DWORD PTR [esp], xmm0
  001f4	50		 push	 eax
  001f5	8b ce		 mov	 ecx, esi
  001f7	ff 15 00 00 00
	00		 call	 DWORD PTR __imp_?LoadFloat@ioINILoader@@QAEMPBDM@Z

; 138  : 	}

  001fd	8b 4d fc	 mov	 ecx, DWORD PTR __$ArrayPad$[ebp]
  00200	33 cd		 xor	 ecx, ebp
  00202	5e		 pop	 esi
  00203	e8 00 00 00 00	 call	 @__security_check_cookie@4
  00208	c9		 leave
  00209	c2 08 00	 ret	 8
??$LoadFloat_e@$0BA@@ioINILoader@@QAEMAAY0BA@$$CBDM@Z ENDP ; ioINILoader::LoadFloat_e<16>
_TEXT	ENDS
PUBLIC	_this$GSCopy$
PUBLIC	__$ArrayPad$
PUBLIC	??$LoadString_e@$0BF@@ioINILoader@@QAEXAAY0BF@$$CBDAAY00$$CBDPADH@Z ; ioINILoader::LoadString_e<21>
; Function compile flags: /Ogsp
;	COMDAT ??$LoadString_e@$0BF@@ioINILoader@@QAEXAAY0BF@$$CBDAAY00$$CBDPADH@Z
_TEXT	SEGMENT
_this$GSCopy$ = -36					; size = 4
__k$ = -32						; size = 21
__$ArrayPad$ = -4					; size = 4
_k$ = 8							; size = 4
_d$ = 12						; size = 4
_b$ = 16						; size = 4
_i$ = 20						; size = 4
??$LoadString_e@$0BF@@ioINILoader@@QAEXAAY0BF@$$CBDAAY00$$CBDPADH@Z PROC ; ioINILoader::LoadString_e<21>, COMDAT
; _this$ = ecx

; 161  : 	{

  00000	55		 push	 ebp
  00001	8b ec		 mov	 ebp, esp
  00003	83 ec 24	 sub	 esp, 36			; 00000024H
  00006	a1 00 00 00 00	 mov	 eax, DWORD PTR ___security_cookie
  0000b	33 c5		 xor	 eax, ebp
  0000d	89 45 fc	 mov	 DWORD PTR __$ArrayPad$[ebp], eax
  00010	8b 45 08	 mov	 eax, DWORD PTR _k$[ebp]

; 162  : 		_ENCSTR(k, _k);

  00013	8a 10		 mov	 dl, BYTE PTR [eax]
  00015	53		 push	 ebx
  00016	56		 push	 esi
  00017	8b 75 0c	 mov	 esi, DWORD PTR _d$[ebp]
  0001a	57		 push	 edi
  0001b	8b 7d 10	 mov	 edi, DWORD PTR _b$[ebp]
  0001e	89 4d dc	 mov	 DWORD PTR _this$GSCopy$[ebp], ecx
  00021	84 d2		 test	 dl, dl
  00023	0f 84 f7 01 00
	00		 je	 $LN96@LoadString@2
  00029	80 f2 ed	 xor	 dl, -19			; ffffffedH
  0002c	88 55 e0	 mov	 BYTE PTR __k$[ebp], dl
  0002f	8a 50 01	 mov	 dl, BYTE PTR [eax+1]
  00032	84 d2		 test	 dl, dl
  00034	0f 84 e0 01 00
	00		 je	 $LN95@LoadString@2
  0003a	b1 ec		 mov	 cl, -20			; ffffffecH
  0003c	32 d1		 xor	 dl, cl
  0003e	88 55 e1	 mov	 BYTE PTR __k$[ebp+1], dl
  00041	8a 50 02	 mov	 dl, BYTE PTR [eax+2]
  00044	84 d2		 test	 dl, dl
  00046	0f 84 c8 01 00
	00		 je	 $LN94@LoadString@2
  0004c	b3 eb		 mov	 bl, -21			; ffffffebH
  0004e	32 d3		 xor	 dl, bl
  00050	88 55 e2	 mov	 BYTE PTR __k$[ebp+2], dl
  00053	8a 50 03	 mov	 dl, BYTE PTR [eax+3]
  00056	84 d2		 test	 dl, dl
  00058	0f 84 b0 01 00
	00		 je	 $LN93@LoadString@2
  0005e	80 f2 ea	 xor	 dl, -22			; ffffffeaH
  00061	88 55 e3	 mov	 BYTE PTR __k$[ebp+3], dl
  00064	8a 50 04	 mov	 dl, BYTE PTR [eax+4]
  00067	84 d2		 test	 dl, dl
  00069	0f 84 99 01 00
	00		 je	 $LN92@LoadString@2
  0006f	80 f2 ed	 xor	 dl, -19			; ffffffedH
  00072	88 55 e4	 mov	 BYTE PTR __k$[ebp+4], dl
  00075	8a 50 05	 mov	 dl, BYTE PTR [eax+5]
  00078	84 d2		 test	 dl, dl
  0007a	0f 84 83 01 00
	00		 je	 $LN91@LoadString@2
  00080	32 d1		 xor	 dl, cl
  00082	88 55 e5	 mov	 BYTE PTR __k$[ebp+5], dl
  00085	8a 50 06	 mov	 dl, BYTE PTR [eax+6]
  00088	84 d2		 test	 dl, dl
  0008a	0f 84 6e 01 00
	00		 je	 $LN90@LoadString@2
  00090	32 d3		 xor	 dl, bl
  00092	88 55 e6	 mov	 BYTE PTR __k$[ebp+6], dl
  00095	8a 50 07	 mov	 dl, BYTE PTR [eax+7]
  00098	84 d2		 test	 dl, dl
  0009a	0f 84 58 01 00
	00		 je	 $LN89@LoadString@2
  000a0	80 f2 ea	 xor	 dl, -22			; ffffffeaH
  000a3	88 55 e7	 mov	 BYTE PTR __k$[ebp+7], dl
  000a6	8a 50 08	 mov	 dl, BYTE PTR [eax+8]
  000a9	84 d2		 test	 dl, dl
  000ab	0f 84 41 01 00
	00		 je	 $LN88@LoadString@2
  000b1	80 f2 ed	 xor	 dl, -19			; ffffffedH
  000b4	88 55 e8	 mov	 BYTE PTR __k$[ebp+8], dl
  000b7	8a 50 09	 mov	 dl, BYTE PTR [eax+9]
  000ba	84 d2		 test	 dl, dl
  000bc	0f 84 2b 01 00
	00		 je	 $LN87@LoadString@2
  000c2	32 d1		 xor	 dl, cl
  000c4	88 55 e9	 mov	 BYTE PTR __k$[ebp+9], dl
  000c7	8a 50 0a	 mov	 dl, BYTE PTR [eax+10]
  000ca	84 d2		 test	 dl, dl
  000cc	0f 84 16 01 00
	00		 je	 $LN86@LoadString@2
  000d2	32 d3		 xor	 dl, bl
  000d4	88 55 ea	 mov	 BYTE PTR __k$[ebp+10], dl
  000d7	8a 50 0b	 mov	 dl, BYTE PTR [eax+11]
  000da	84 d2		 test	 dl, dl
  000dc	0f 84 00 01 00
	00		 je	 $LN85@LoadString@2
  000e2	80 f2 ea	 xor	 dl, -22			; ffffffeaH
  000e5	88 55 eb	 mov	 BYTE PTR __k$[ebp+11], dl
  000e8	8a 50 0c	 mov	 dl, BYTE PTR [eax+12]
  000eb	84 d2		 test	 dl, dl
  000ed	0f 84 e9 00 00
	00		 je	 $LN84@LoadString@2
  000f3	80 f2 ed	 xor	 dl, -19			; ffffffedH
  000f6	88 55 ec	 mov	 BYTE PTR __k$[ebp+12], dl
  000f9	8a 50 0d	 mov	 dl, BYTE PTR [eax+13]
  000fc	84 d2		 test	 dl, dl
  000fe	0f 84 d3 00 00
	00		 je	 $LN83@LoadString@2
  00104	32 d1		 xor	 dl, cl
  00106	88 55 ed	 mov	 BYTE PTR __k$[ebp+13], dl
  00109	8a 50 0e	 mov	 dl, BYTE PTR [eax+14]
  0010c	84 d2		 test	 dl, dl
  0010e	0f 84 be 00 00
	00		 je	 $LN82@LoadString@2
  00114	32 d3		 xor	 dl, bl
  00116	88 55 ee	 mov	 BYTE PTR __k$[ebp+14], dl
  00119	8a 50 0f	 mov	 dl, BYTE PTR [eax+15]
  0011c	84 d2		 test	 dl, dl
  0011e	0f 84 a8 00 00
	00		 je	 $LN81@LoadString@2
  00124	80 f2 ea	 xor	 dl, -22			; ffffffeaH
  00127	88 55 ef	 mov	 BYTE PTR __k$[ebp+15], dl
  0012a	8a 50 10	 mov	 dl, BYTE PTR [eax+16]
  0012d	84 d2		 test	 dl, dl
  0012f	0f 84 91 00 00
	00		 je	 $LN80@LoadString@2
  00135	80 f2 ed	 xor	 dl, -19			; ffffffedH
  00138	88 55 f0	 mov	 BYTE PTR __k$[ebp+16], dl
  0013b	8a 50 11	 mov	 dl, BYTE PTR [eax+17]
  0013e	84 d2		 test	 dl, dl
  00140	74 7f		 je	 SHORT $LN79@LoadString@2
  00142	32 d1		 xor	 dl, cl
  00144	88 55 f1	 mov	 BYTE PTR __k$[ebp+17], dl
  00147	8a 50 12	 mov	 dl, BYTE PTR [eax+18]
  0014a	84 d2		 test	 dl, dl
  0014c	74 6e		 je	 SHORT $LN78@LoadString@2
  0014e	32 d3		 xor	 dl, bl
  00150	88 55 f2	 mov	 BYTE PTR __k$[ebp+18], dl
  00153	8a 50 13	 mov	 dl, BYTE PTR [eax+19]
  00156	84 d2		 test	 dl, dl
  00158	74 5c		 je	 SHORT $LN77@LoadString@2
  0015a	80 f2 ea	 xor	 dl, -22			; ffffffeaH
  0015d	80 78 14 00	 cmp	 BYTE PTR [eax+20], 0
  00161	88 55 f3	 mov	 BYTE PTR __k$[ebp+19], dl
  00164	0f 84 ba 00 00
	00		 je	 $LN111@LoadString@2
  0016a	8a 50 15	 mov	 dl, BYTE PTR [eax+21]
  0016d	84 d2		 test	 dl, dl
  0016f	74 40		 je	 SHORT $LN75@LoadString@2
  00171	32 d1		 xor	 dl, cl
  00173	88 55 f5	 mov	 BYTE PTR __k$[ebp+21], dl
  00176	8a 50 16	 mov	 dl, BYTE PTR [eax+22]
  00179	84 d2		 test	 dl, dl
  0017b	74 2f		 je	 SHORT $LN74@LoadString@2
  0017d	32 d3		 xor	 dl, bl
  0017f	88 55 f6	 mov	 BYTE PTR __k$[ebp+22], dl
  00182	8a 50 17	 mov	 dl, BYTE PTR [eax+23]
  00185	84 d2		 test	 dl, dl
  00187	74 1d		 je	 SHORT $LN73@LoadString@2
  00189	8a 40 18	 mov	 al, BYTE PTR [eax+24]
  0018c	80 f2 ea	 xor	 dl, -22			; ffffffeaH
  0018f	88 55 f7	 mov	 BYTE PTR __k$[ebp+23], dl
  00192	84 c0		 test	 al, al
  00194	74 0a		 je	 SHORT $LN72@LoadString@2
  00196	34 ed		 xor	 al, -19			; ffffffedH
  00198	88 45 f8	 mov	 BYTE PTR __k$[ebp+24], al
  0019b	e9 84 00 00 00	 jmp	 $LN111@LoadString@2
$LN72@LoadString@2:
  001a0	c6 45 f8 ed	 mov	 BYTE PTR __k$[ebp+24], -19 ; ffffffedH
  001a4	eb 7e		 jmp	 SHORT $LN111@LoadString@2
$LN73@LoadString@2:
  001a6	c6 45 f7 ea	 mov	 BYTE PTR __k$[ebp+23], -22 ; ffffffeaH
  001aa	eb 78		 jmp	 SHORT $LN111@LoadString@2
$LN74@LoadString@2:
  001ac	88 5d f6	 mov	 BYTE PTR __k$[ebp+22], bl
  001af	eb 73		 jmp	 SHORT $LN111@LoadString@2
$LN75@LoadString@2:
  001b1	88 4d f5	 mov	 BYTE PTR __k$[ebp+21], cl
  001b4	eb 6e		 jmp	 SHORT $LN111@LoadString@2
$LN77@LoadString@2:
  001b6	c6 45 f3 ea	 mov	 BYTE PTR __k$[ebp+19], -22 ; ffffffeaH
  001ba	eb 68		 jmp	 SHORT $LN111@LoadString@2
$LN78@LoadString@2:
  001bc	88 5d f2	 mov	 BYTE PTR __k$[ebp+18], bl
  001bf	eb 63		 jmp	 SHORT $LN111@LoadString@2
$LN79@LoadString@2:
  001c1	88 4d f1	 mov	 BYTE PTR __k$[ebp+17], cl
  001c4	eb 5e		 jmp	 SHORT $LN111@LoadString@2
$LN80@LoadString@2:
  001c6	c6 45 f0 ed	 mov	 BYTE PTR __k$[ebp+16], -19 ; ffffffedH
  001ca	eb 58		 jmp	 SHORT $LN111@LoadString@2
$LN81@LoadString@2:
  001cc	c6 45 ef ea	 mov	 BYTE PTR __k$[ebp+15], -22 ; ffffffeaH
  001d0	eb 52		 jmp	 SHORT $LN111@LoadString@2
$LN82@LoadString@2:
  001d2	88 5d ee	 mov	 BYTE PTR __k$[ebp+14], bl
  001d5	eb 4d		 jmp	 SHORT $LN111@LoadString@2
$LN83@LoadString@2:
  001d7	88 4d ed	 mov	 BYTE PTR __k$[ebp+13], cl
  001da	eb 48		 jmp	 SHORT $LN111@LoadString@2
$LN84@LoadString@2:
  001dc	c6 45 ec ed	 mov	 BYTE PTR __k$[ebp+12], -19 ; ffffffedH
  001e0	eb 42		 jmp	 SHORT $LN111@LoadString@2
$LN85@LoadString@2:
  001e2	c6 45 eb ea	 mov	 BYTE PTR __k$[ebp+11], -22 ; ffffffeaH
  001e6	eb 3c		 jmp	 SHORT $LN111@LoadString@2
$LN86@LoadString@2:
  001e8	88 5d ea	 mov	 BYTE PTR __k$[ebp+10], bl
  001eb	eb 37		 jmp	 SHORT $LN111@LoadString@2
$LN87@LoadString@2:
  001ed	88 4d e9	 mov	 BYTE PTR __k$[ebp+9], cl
  001f0	eb 32		 jmp	 SHORT $LN111@LoadString@2
$LN88@LoadString@2:
  001f2	c6 45 e8 ed	 mov	 BYTE PTR __k$[ebp+8], -19 ; ffffffedH
  001f6	eb 2c		 jmp	 SHORT $LN111@LoadString@2
$LN89@LoadString@2:
  001f8	c6 45 e7 ea	 mov	 BYTE PTR __k$[ebp+7], -22 ; ffffffeaH
  001fc	eb 26		 jmp	 SHORT $LN111@LoadString@2
$LN90@LoadString@2:
  001fe	88 5d e6	 mov	 BYTE PTR __k$[ebp+6], bl
  00201	eb 21		 jmp	 SHORT $LN111@LoadString@2
$LN91@LoadString@2:
  00203	88 4d e5	 mov	 BYTE PTR __k$[ebp+5], cl
  00206	eb 1c		 jmp	 SHORT $LN111@LoadString@2
$LN92@LoadString@2:
  00208	c6 45 e4 ed	 mov	 BYTE PTR __k$[ebp+4], -19 ; ffffffedH
  0020c	eb 16		 jmp	 SHORT $LN111@LoadString@2
$LN93@LoadString@2:
  0020e	c6 45 e3 ea	 mov	 BYTE PTR __k$[ebp+3], -22 ; ffffffeaH
  00212	eb 10		 jmp	 SHORT $LN111@LoadString@2
$LN94@LoadString@2:
  00214	c6 45 e2 eb	 mov	 BYTE PTR __k$[ebp+2], -21 ; ffffffebH
  00218	eb 0a		 jmp	 SHORT $LN111@LoadString@2
$LN95@LoadString@2:
  0021a	c6 45 e1 ec	 mov	 BYTE PTR __k$[ebp+1], -20 ; ffffffecH
  0021e	eb 04		 jmp	 SHORT $LN111@LoadString@2
$LN96@LoadString@2:
  00220	c6 45 e0 ed	 mov	 BYTE PTR __k$[ebp], -19	; ffffffedH
$LN111@LoadString@2:
  00224	6a 05		 push	 5
  00226	8d 45 e0	 lea	 eax, DWORD PTR __k$[ebp]
  00229	c6 45 f4 00	 mov	 BYTE PTR __k$[ebp+20], 0
  0022d	5a		 pop	 edx
$LL104@LoadString@2:
  0022e	81 30 ed ec eb
	ea		 xor	 DWORD PTR [eax], -353637139 ; eaebecedH
  00234	83 c0 04	 add	 eax, 4
  00237	4a		 dec	 edx
  00238	75 f4		 jne	 SHORT $LL104@LoadString@2

; 163  : 		LoadString(_k, d, b, i);

  0023a	ff 75 14	 push	 DWORD PTR _i$[ebp]
  0023d	8b 4d dc	 mov	 ecx, DWORD PTR _this$GSCopy$[ebp]
  00240	57		 push	 edi
  00241	56		 push	 esi
  00242	8d 45 e0	 lea	 eax, DWORD PTR __k$[ebp]
  00245	50		 push	 eax
  00246	ff 15 00 00 00
	00		 call	 DWORD PTR __imp_?LoadStringA@ioINILoader@@QAEXPBD0PADH@Z

; 164  : 	}

  0024c	8b 4d fc	 mov	 ecx, DWORD PTR __$ArrayPad$[ebp]
  0024f	5f		 pop	 edi
  00250	5e		 pop	 esi
  00251	33 cd		 xor	 ecx, ebp
  00253	5b		 pop	 ebx
  00254	e8 00 00 00 00	 call	 @__security_check_cookie@4
  00259	c9		 leave
  0025a	c2 10 00	 ret	 16			; 00000010H
??$LoadString_e@$0BF@@ioINILoader@@QAEXAAY0BF@$$CBDAAY00$$CBDPADH@Z ENDP ; ioINILoader::LoadString_e<21>
_TEXT	ENDS
PUBLIC	__$ArrayPad$
PUBLIC	??$LoadFloat_e@$0BH@@ioINILoader@@QAEMAAY0BH@$$CBDM@Z ; ioINILoader::LoadFloat_e<23>
; Function compile flags: /Ogsp
;	COMDAT ??$LoadFloat_e@$0BH@@ioINILoader@@QAEMAAY0BH@$$CBDM@Z
_TEXT	SEGMENT
__k$ = -32						; size = 23
__$ArrayPad$ = -4					; size = 4
_k$ = 8							; size = 4
_f$ = 12						; size = 4
??$LoadFloat_e@$0BH@@ioINILoader@@QAEMAAY0BH@$$CBDM@Z PROC ; ioINILoader::LoadFloat_e<23>, COMDAT
; _this$ = ecx

; 135  : 	{

  00000	55		 push	 ebp
  00001	8b ec		 mov	 ebp, esp
  00003	83 ec 20	 sub	 esp, 32			; 00000020H
  00006	a1 00 00 00 00	 mov	 eax, DWORD PTR ___security_cookie
  0000b	33 c5		 xor	 eax, ebp
  0000d	89 45 fc	 mov	 DWORD PTR __$ArrayPad$[ebp], eax
  00010	8b 45 08	 mov	 eax, DWORD PTR _k$[ebp]

; 136  : 		_ENCSTR(k, _k);

  00013	8a 10		 mov	 dl, BYTE PTR [eax]
  00015	53		 push	 ebx
  00016	56		 push	 esi
  00017	8b f1		 mov	 esi, ecx
  00019	84 d2		 test	 dl, dl
  0001b	0f 84 2d 02 00
	00		 je	 $LN96@LoadFloat_@2
  00021	80 f2 ed	 xor	 dl, -19			; ffffffedH
  00024	88 55 e0	 mov	 BYTE PTR __k$[ebp], dl
  00027	8a 50 01	 mov	 dl, BYTE PTR [eax+1]
  0002a	84 d2		 test	 dl, dl
  0002c	0f 84 16 02 00
	00		 je	 $LN95@LoadFloat_@2
  00032	b1 ec		 mov	 cl, -20			; ffffffecH
  00034	32 d1		 xor	 dl, cl
  00036	88 55 e1	 mov	 BYTE PTR __k$[ebp+1], dl
  00039	8a 50 02	 mov	 dl, BYTE PTR [eax+2]
  0003c	84 d2		 test	 dl, dl
  0003e	0f 84 fe 01 00
	00		 je	 $LN94@LoadFloat_@2
  00044	80 f2 eb	 xor	 dl, -21			; ffffffebH
  00047	88 55 e2	 mov	 BYTE PTR __k$[ebp+2], dl
  0004a	8a 50 03	 mov	 dl, BYTE PTR [eax+3]
  0004d	84 d2		 test	 dl, dl
  0004f	0f 84 e7 01 00
	00		 je	 $LN93@LoadFloat_@2
  00055	b3 ea		 mov	 bl, -22			; ffffffeaH
  00057	32 d3		 xor	 dl, bl
  00059	88 55 e3	 mov	 BYTE PTR __k$[ebp+3], dl
  0005c	8a 50 04	 mov	 dl, BYTE PTR [eax+4]
  0005f	84 d2		 test	 dl, dl
  00061	0f 84 cf 01 00
	00		 je	 $LN92@LoadFloat_@2
  00067	80 f2 ed	 xor	 dl, -19			; ffffffedH
  0006a	88 55 e4	 mov	 BYTE PTR __k$[ebp+4], dl
  0006d	8a 50 05	 mov	 dl, BYTE PTR [eax+5]
  00070	84 d2		 test	 dl, dl
  00072	0f 84 b9 01 00
	00		 je	 $LN91@LoadFloat_@2
  00078	32 d1		 xor	 dl, cl
  0007a	88 55 e5	 mov	 BYTE PTR __k$[ebp+5], dl
  0007d	8a 50 06	 mov	 dl, BYTE PTR [eax+6]
  00080	84 d2		 test	 dl, dl
  00082	0f 84 a3 01 00
	00		 je	 $LN90@LoadFloat_@2
  00088	80 f2 eb	 xor	 dl, -21			; ffffffebH
  0008b	88 55 e6	 mov	 BYTE PTR __k$[ebp+6], dl
  0008e	8a 50 07	 mov	 dl, BYTE PTR [eax+7]
  00091	84 d2		 test	 dl, dl
  00093	0f 84 8d 01 00
	00		 je	 $LN89@LoadFloat_@2
  00099	32 d3		 xor	 dl, bl
  0009b	88 55 e7	 mov	 BYTE PTR __k$[ebp+7], dl
  0009e	8a 50 08	 mov	 dl, BYTE PTR [eax+8]
  000a1	84 d2		 test	 dl, dl
  000a3	0f 84 77 01 00
	00		 je	 $LN88@LoadFloat_@2
  000a9	80 f2 ed	 xor	 dl, -19			; ffffffedH
  000ac	88 55 e8	 mov	 BYTE PTR __k$[ebp+8], dl
  000af	8a 50 09	 mov	 dl, BYTE PTR [eax+9]
  000b2	84 d2		 test	 dl, dl
  000b4	0f 84 61 01 00
	00		 je	 $LN87@LoadFloat_@2
  000ba	32 d1		 xor	 dl, cl
  000bc	88 55 e9	 mov	 BYTE PTR __k$[ebp+9], dl
  000bf	8a 50 0a	 mov	 dl, BYTE PTR [eax+10]
  000c2	84 d2		 test	 dl, dl
  000c4	0f 84 4b 01 00
	00		 je	 $LN86@LoadFloat_@2
  000ca	80 f2 eb	 xor	 dl, -21			; ffffffebH
  000cd	88 55 ea	 mov	 BYTE PTR __k$[ebp+10], dl
  000d0	8a 50 0b	 mov	 dl, BYTE PTR [eax+11]
  000d3	84 d2		 test	 dl, dl
  000d5	0f 84 35 01 00
	00		 je	 $LN85@LoadFloat_@2
  000db	32 d3		 xor	 dl, bl
  000dd	88 55 eb	 mov	 BYTE PTR __k$[ebp+11], dl
  000e0	8a 50 0c	 mov	 dl, BYTE PTR [eax+12]
  000e3	84 d2		 test	 dl, dl
  000e5	0f 84 1f 01 00
	00		 je	 $LN84@LoadFloat_@2
  000eb	80 f2 ed	 xor	 dl, -19			; ffffffedH
  000ee	88 55 ec	 mov	 BYTE PTR __k$[ebp+12], dl
  000f1	8a 50 0d	 mov	 dl, BYTE PTR [eax+13]
  000f4	84 d2		 test	 dl, dl
  000f6	0f 84 09 01 00
	00		 je	 $LN83@LoadFloat_@2
  000fc	32 d1		 xor	 dl, cl
  000fe	88 55 ed	 mov	 BYTE PTR __k$[ebp+13], dl
  00101	8a 50 0e	 mov	 dl, BYTE PTR [eax+14]
  00104	84 d2		 test	 dl, dl
  00106	0f 84 f3 00 00
	00		 je	 $LN82@LoadFloat_@2
  0010c	80 f2 eb	 xor	 dl, -21			; ffffffebH
  0010f	88 55 ee	 mov	 BYTE PTR __k$[ebp+14], dl
  00112	8a 50 0f	 mov	 dl, BYTE PTR [eax+15]
  00115	84 d2		 test	 dl, dl
  00117	0f 84 dd 00 00
	00		 je	 $LN81@LoadFloat_@2
  0011d	32 d3		 xor	 dl, bl
  0011f	88 55 ef	 mov	 BYTE PTR __k$[ebp+15], dl
  00122	8a 50 10	 mov	 dl, BYTE PTR [eax+16]
  00125	84 d2		 test	 dl, dl
  00127	0f 84 c7 00 00
	00		 je	 $LN80@LoadFloat_@2
  0012d	80 f2 ed	 xor	 dl, -19			; ffffffedH
  00130	88 55 f0	 mov	 BYTE PTR __k$[ebp+16], dl
  00133	8a 50 11	 mov	 dl, BYTE PTR [eax+17]
  00136	84 d2		 test	 dl, dl
  00138	0f 84 b1 00 00
	00		 je	 $LN79@LoadFloat_@2
  0013e	32 d1		 xor	 dl, cl
  00140	88 55 f1	 mov	 BYTE PTR __k$[ebp+17], dl
  00143	8a 50 12	 mov	 dl, BYTE PTR [eax+18]
  00146	84 d2		 test	 dl, dl
  00148	0f 84 9b 00 00
	00		 je	 $LN78@LoadFloat_@2
  0014e	80 f2 eb	 xor	 dl, -21			; ffffffebH
  00151	88 55 f2	 mov	 BYTE PTR __k$[ebp+18], dl
  00154	8a 50 13	 mov	 dl, BYTE PTR [eax+19]
  00157	84 d2		 test	 dl, dl
  00159	0f 84 85 00 00
	00		 je	 $LN77@LoadFloat_@2
  0015f	32 d3		 xor	 dl, bl
  00161	88 55 f3	 mov	 BYTE PTR __k$[ebp+19], dl
  00164	8a 50 14	 mov	 dl, BYTE PTR [eax+20]
  00167	84 d2		 test	 dl, dl
  00169	74 73		 je	 SHORT $LN76@LoadFloat_@2
  0016b	80 f2 ed	 xor	 dl, -19			; ffffffedH
  0016e	88 55 f4	 mov	 BYTE PTR __k$[ebp+20], dl
  00171	8a 50 15	 mov	 dl, BYTE PTR [eax+21]
  00174	84 d2		 test	 dl, dl
  00176	74 61		 je	 SHORT $LN75@LoadFloat_@2
  00178	32 d1		 xor	 dl, cl
  0017a	80 78 16 00	 cmp	 BYTE PTR [eax+22], 0
  0017e	88 55 f5	 mov	 BYTE PTR __k$[ebp+21], dl
  00181	0f 84 cb 00 00
	00		 je	 $LN1@LoadFloat_@2
  00187	8a 50 17	 mov	 dl, BYTE PTR [eax+23]
  0018a	84 d2		 test	 dl, dl
  0018c	74 46		 je	 SHORT $LN73@LoadFloat_@2
  0018e	32 d3		 xor	 dl, bl
  00190	88 55 f7	 mov	 BYTE PTR __k$[ebp+23], dl
  00193	8a 50 18	 mov	 dl, BYTE PTR [eax+24]
  00196	84 d2		 test	 dl, dl
  00198	74 34		 je	 SHORT $LN72@LoadFloat_@2
  0019a	80 f2 ed	 xor	 dl, -19			; ffffffedH
  0019d	88 55 f8	 mov	 BYTE PTR __k$[ebp+24], dl
  001a0	8a 50 19	 mov	 dl, BYTE PTR [eax+25]
  001a3	84 d2		 test	 dl, dl
  001a5	74 1f		 je	 SHORT $LN71@LoadFloat_@2
  001a7	8a 40 1a	 mov	 al, BYTE PTR [eax+26]
  001aa	32 d1		 xor	 dl, cl
  001ac	88 55 f9	 mov	 BYTE PTR __k$[ebp+25], dl
  001af	84 c0		 test	 al, al
  001b1	74 0a		 je	 SHORT $LN70@LoadFloat_@2
  001b3	34 eb		 xor	 al, -21			; ffffffebH
  001b5	88 45 fa	 mov	 BYTE PTR __k$[ebp+26], al
  001b8	e9 95 00 00 00	 jmp	 $LN1@LoadFloat_@2
$LN70@LoadFloat_@2:
  001bd	c6 45 fa eb	 mov	 BYTE PTR __k$[ebp+26], -21 ; ffffffebH
  001c1	e9 8c 00 00 00	 jmp	 $LN1@LoadFloat_@2
$LN71@LoadFloat_@2:
  001c6	88 4d f9	 mov	 BYTE PTR __k$[ebp+25], cl
  001c9	e9 84 00 00 00	 jmp	 $LN1@LoadFloat_@2
$LN72@LoadFloat_@2:
  001ce	c6 45 f8 ed	 mov	 BYTE PTR __k$[ebp+24], -19 ; ffffffedH
  001d2	eb 7e		 jmp	 SHORT $LN1@LoadFloat_@2
$LN73@LoadFloat_@2:
  001d4	88 5d f7	 mov	 BYTE PTR __k$[ebp+23], bl
  001d7	eb 79		 jmp	 SHORT $LN1@LoadFloat_@2
$LN75@LoadFloat_@2:
  001d9	88 4d f5	 mov	 BYTE PTR __k$[ebp+21], cl
  001dc	eb 74		 jmp	 SHORT $LN1@LoadFloat_@2
$LN76@LoadFloat_@2:
  001de	c6 45 f4 ed	 mov	 BYTE PTR __k$[ebp+20], -19 ; ffffffedH
  001e2	eb 6e		 jmp	 SHORT $LN1@LoadFloat_@2
$LN77@LoadFloat_@2:
  001e4	88 5d f3	 mov	 BYTE PTR __k$[ebp+19], bl
  001e7	eb 69		 jmp	 SHORT $LN1@LoadFloat_@2
$LN78@LoadFloat_@2:
  001e9	c6 45 f2 eb	 mov	 BYTE PTR __k$[ebp+18], -21 ; ffffffebH
  001ed	eb 63		 jmp	 SHORT $LN1@LoadFloat_@2
$LN79@LoadFloat_@2:
  001ef	88 4d f1	 mov	 BYTE PTR __k$[ebp+17], cl
  001f2	eb 5e		 jmp	 SHORT $LN1@LoadFloat_@2
$LN80@LoadFloat_@2:
  001f4	c6 45 f0 ed	 mov	 BYTE PTR __k$[ebp+16], -19 ; ffffffedH
  001f8	eb 58		 jmp	 SHORT $LN1@LoadFloat_@2
$LN81@LoadFloat_@2:
  001fa	88 5d ef	 mov	 BYTE PTR __k$[ebp+15], bl
  001fd	eb 53		 jmp	 SHORT $LN1@LoadFloat_@2
$LN82@LoadFloat_@2:
  001ff	c6 45 ee eb	 mov	 BYTE PTR __k$[ebp+14], -21 ; ffffffebH
  00203	eb 4d		 jmp	 SHORT $LN1@LoadFloat_@2
$LN83@LoadFloat_@2:
  00205	88 4d ed	 mov	 BYTE PTR __k$[ebp+13], cl
  00208	eb 48		 jmp	 SHORT $LN1@LoadFloat_@2
$LN84@LoadFloat_@2:
  0020a	c6 45 ec ed	 mov	 BYTE PTR __k$[ebp+12], -19 ; ffffffedH
  0020e	eb 42		 jmp	 SHORT $LN1@LoadFloat_@2
$LN85@LoadFloat_@2:
  00210	88 5d eb	 mov	 BYTE PTR __k$[ebp+11], bl
  00213	eb 3d		 jmp	 SHORT $LN1@LoadFloat_@2
$LN86@LoadFloat_@2:
  00215	c6 45 ea eb	 mov	 BYTE PTR __k$[ebp+10], -21 ; ffffffebH
  00219	eb 37		 jmp	 SHORT $LN1@LoadFloat_@2
$LN87@LoadFloat_@2:
  0021b	88 4d e9	 mov	 BYTE PTR __k$[ebp+9], cl
  0021e	eb 32		 jmp	 SHORT $LN1@LoadFloat_@2
$LN88@LoadFloat_@2:
  00220	c6 45 e8 ed	 mov	 BYTE PTR __k$[ebp+8], -19 ; ffffffedH
  00224	eb 2c		 jmp	 SHORT $LN1@LoadFloat_@2
$LN89@LoadFloat_@2:
  00226	88 5d e7	 mov	 BYTE PTR __k$[ebp+7], bl
  00229	eb 27		 jmp	 SHORT $LN1@LoadFloat_@2
$LN90@LoadFloat_@2:
  0022b	c6 45 e6 eb	 mov	 BYTE PTR __k$[ebp+6], -21 ; ffffffebH
  0022f	eb 21		 jmp	 SHORT $LN1@LoadFloat_@2
$LN91@LoadFloat_@2:
  00231	88 4d e5	 mov	 BYTE PTR __k$[ebp+5], cl
  00234	eb 1c		 jmp	 SHORT $LN1@LoadFloat_@2
$LN92@LoadFloat_@2:
  00236	c6 45 e4 ed	 mov	 BYTE PTR __k$[ebp+4], -19 ; ffffffedH
  0023a	eb 16		 jmp	 SHORT $LN1@LoadFloat_@2
$LN93@LoadFloat_@2:
  0023c	c6 45 e3 ea	 mov	 BYTE PTR __k$[ebp+3], -22 ; ffffffeaH
  00240	eb 10		 jmp	 SHORT $LN1@LoadFloat_@2
$LN94@LoadFloat_@2:
  00242	c6 45 e2 eb	 mov	 BYTE PTR __k$[ebp+2], -21 ; ffffffebH
  00246	eb 0a		 jmp	 SHORT $LN1@LoadFloat_@2
$LN95@LoadFloat_@2:
  00248	c6 45 e1 ec	 mov	 BYTE PTR __k$[ebp+1], -20 ; ffffffecH
  0024c	eb 04		 jmp	 SHORT $LN1@LoadFloat_@2
$LN96@LoadFloat_@2:
  0024e	c6 45 e0 ed	 mov	 BYTE PTR __k$[ebp], -19	; ffffffedH
$LN1@LoadFloat_@2:
  00252	6a 05		 push	 5
  00254	8d 45 e0	 lea	 eax, DWORD PTR __k$[ebp]
  00257	c6 45 f6 00	 mov	 BYTE PTR __k$[ebp+22], 0
  0025b	5a		 pop	 edx
$LL104@LoadFloat_@2:
  0025c	81 30 ed ec eb
	ea		 xor	 DWORD PTR [eax], -353637139 ; eaebecedH
  00262	83 c0 04	 add	 eax, 4
  00265	4a		 dec	 edx
  00266	75 f4		 jne	 SHORT $LL104@LoadFloat_@2
  00268	6a 14		 push	 20			; 00000014H
  0026a	58		 pop	 eax
$LL101@LoadFloat_@2:
  0026b	8b c8		 mov	 ecx, eax
  0026d	81 e1 03 00 00
	80		 and	 ecx, -2147483645	; 80000003H
  00273	79 05		 jns	 SHORT $LN111@LoadFloat_@2
  00275	49		 dec	 ecx
  00276	83 c9 fc	 or	 ecx, -4			; fffffffcH
  00279	41		 inc	 ecx
$LN111@LoadFloat_@2:
  0027a	b2 ed		 mov	 dl, -19			; ffffffedH
  0027c	2a d1		 sub	 dl, cl
  0027e	30 54 05 e0	 xor	 BYTE PTR __k$[ebp+eax], dl
  00282	40		 inc	 eax
  00283	83 f8 16	 cmp	 eax, 22			; 00000016H
  00286	7c e3		 jl	 SHORT $LL101@LoadFloat_@2

; 137  : 		return LoadFloat(_k, f);

  00288	f3 0f 10 45 0c	 movss	 xmm0, DWORD PTR _f$[ebp]
  0028d	51		 push	 ecx
  0028e	8d 45 e0	 lea	 eax, DWORD PTR __k$[ebp]
  00291	f3 0f 11 04 24	 movss	 DWORD PTR [esp], xmm0
  00296	50		 push	 eax
  00297	8b ce		 mov	 ecx, esi
  00299	ff 15 00 00 00
	00		 call	 DWORD PTR __imp_?LoadFloat@ioINILoader@@QAEMPBDM@Z

; 138  : 	}

  0029f	8b 4d fc	 mov	 ecx, DWORD PTR __$ArrayPad$[ebp]
  002a2	5e		 pop	 esi
  002a3	33 cd		 xor	 ecx, ebp
  002a5	5b		 pop	 ebx
  002a6	e8 00 00 00 00	 call	 @__security_check_cookie@4
  002ab	c9		 leave
  002ac	c2 08 00	 ret	 8
??$LoadFloat_e@$0BH@@ioINILoader@@QAEMAAY0BH@$$CBDM@Z ENDP ; ioINILoader::LoadFloat_e<23>
_TEXT	ENDS
PUBLIC	_this$GSCopy$
PUBLIC	__$ArrayPad$
PUBLIC	??$LoadString_e@$0BC@@ioINILoader@@QAEXAAY0BC@$$CBDAAY00$$CBDPADH@Z ; ioINILoader::LoadString_e<18>
; Function compile flags: /Ogsp
;	COMDAT ??$LoadString_e@$0BC@@ioINILoader@@QAEXAAY0BC@$$CBDAAY00$$CBDPADH@Z
_TEXT	SEGMENT
_this$GSCopy$ = -32					; size = 4
__k$ = -28						; size = 18
__$ArrayPad$ = -4					; size = 4
_k$ = 8							; size = 4
_d$ = 12						; size = 4
_b$ = 16						; size = 4
_i$ = 20						; size = 4
??$LoadString_e@$0BC@@ioINILoader@@QAEXAAY0BC@$$CBDAAY00$$CBDPADH@Z PROC ; ioINILoader::LoadString_e<18>, COMDAT
; _this$ = ecx

; 161  : 	{

  00000	55		 push	 ebp
  00001	8b ec		 mov	 ebp, esp
  00003	83 ec 20	 sub	 esp, 32			; 00000020H
  00006	a1 00 00 00 00	 mov	 eax, DWORD PTR ___security_cookie
  0000b	33 c5		 xor	 eax, ebp
  0000d	89 45 fc	 mov	 DWORD PTR __$ArrayPad$[ebp], eax
  00010	8b 45 08	 mov	 eax, DWORD PTR _k$[ebp]

; 162  : 		_ENCSTR(k, _k);

  00013	8a 10		 mov	 dl, BYTE PTR [eax]
  00015	56		 push	 esi
  00016	8b 75 0c	 mov	 esi, DWORD PTR _d$[ebp]
  00019	57		 push	 edi
  0001a	8b 7d 10	 mov	 edi, DWORD PTR _b$[ebp]
  0001d	89 4d e0	 mov	 DWORD PTR _this$GSCopy$[ebp], ecx
  00020	84 d2		 test	 dl, dl
  00022	0f 84 be 01 00
	00		 je	 $LN96@LoadString@3
  00028	80 f2 ed	 xor	 dl, -19			; ffffffedH
  0002b	88 55 e4	 mov	 BYTE PTR __k$[ebp], dl
  0002e	8a 50 01	 mov	 dl, BYTE PTR [eax+1]
  00031	84 d2		 test	 dl, dl
  00033	0f 84 a7 01 00
	00		 je	 $LN95@LoadString@3
  00039	80 f2 ec	 xor	 dl, -20			; ffffffecH
  0003c	88 55 e5	 mov	 BYTE PTR __k$[ebp+1], dl
  0003f	8a 50 02	 mov	 dl, BYTE PTR [eax+2]
  00042	84 d2		 test	 dl, dl
  00044	0f 84 90 01 00
	00		 je	 $LN94@LoadString@3
  0004a	b1 eb		 mov	 cl, -21			; ffffffebH
  0004c	32 d1		 xor	 dl, cl
  0004e	88 55 e6	 mov	 BYTE PTR __k$[ebp+2], dl
  00051	8a 50 03	 mov	 dl, BYTE PTR [eax+3]
  00054	84 d2		 test	 dl, dl
  00056	0f 84 78 01 00
	00		 je	 $LN93@LoadString@3
  0005c	80 f2 ea	 xor	 dl, -22			; ffffffeaH
  0005f	88 55 e7	 mov	 BYTE PTR __k$[ebp+3], dl
  00062	8a 50 04	 mov	 dl, BYTE PTR [eax+4]
  00065	84 d2		 test	 dl, dl
  00067	0f 84 61 01 00
	00		 je	 $LN92@LoadString@3
  0006d	80 f2 ed	 xor	 dl, -19			; ffffffedH
  00070	88 55 e8	 mov	 BYTE PTR __k$[ebp+4], dl
  00073	8a 50 05	 mov	 dl, BYTE PTR [eax+5]
  00076	84 d2		 test	 dl, dl
  00078	0f 84 4a 01 00
	00		 je	 $LN91@LoadString@3
  0007e	80 f2 ec	 xor	 dl, -20			; ffffffecH
  00081	88 55 e9	 mov	 BYTE PTR __k$[ebp+5], dl
  00084	8a 50 06	 mov	 dl, BYTE PTR [eax+6]
  00087	84 d2		 test	 dl, dl
  00089	0f 84 34 01 00
	00		 je	 $LN90@LoadString@3
  0008f	32 d1		 xor	 dl, cl
  00091	88 55 ea	 mov	 BYTE PTR __k$[ebp+6], dl
  00094	8a 50 07	 mov	 dl, BYTE PTR [eax+7]
  00097	84 d2		 test	 dl, dl
  00099	0f 84 1e 01 00
	00		 je	 $LN89@LoadString@3
  0009f	80 f2 ea	 xor	 dl, -22			; ffffffeaH
  000a2	88 55 eb	 mov	 BYTE PTR __k$[ebp+7], dl
  000a5	8a 50 08	 mov	 dl, BYTE PTR [eax+8]
  000a8	84 d2		 test	 dl, dl
  000aa	0f 84 07 01 00
	00		 je	 $LN88@LoadString@3
  000b0	80 f2 ed	 xor	 dl, -19			; ffffffedH
  000b3	88 55 ec	 mov	 BYTE PTR __k$[ebp+8], dl
  000b6	8a 50 09	 mov	 dl, BYTE PTR [eax+9]
  000b9	84 d2		 test	 dl, dl
  000bb	0f 84 f0 00 00
	00		 je	 $LN87@LoadString@3
  000c1	80 f2 ec	 xor	 dl, -20			; ffffffecH
  000c4	88 55 ed	 mov	 BYTE PTR __k$[ebp+9], dl
  000c7	8a 50 0a	 mov	 dl, BYTE PTR [eax+10]
  000ca	84 d2		 test	 dl, dl
  000cc	0f 84 da 00 00
	00		 je	 $LN86@LoadString@3
  000d2	32 d1		 xor	 dl, cl
  000d4	88 55 ee	 mov	 BYTE PTR __k$[ebp+10], dl
  000d7	8a 50 0b	 mov	 dl, BYTE PTR [eax+11]
  000da	84 d2		 test	 dl, dl
  000dc	0f 84 c4 00 00
	00		 je	 $LN85@LoadString@3
  000e2	80 f2 ea	 xor	 dl, -22			; ffffffeaH
  000e5	88 55 ef	 mov	 BYTE PTR __k$[ebp+11], dl
  000e8	8a 50 0c	 mov	 dl, BYTE PTR [eax+12]
  000eb	84 d2		 test	 dl, dl
  000ed	0f 84 ad 00 00
	00		 je	 $LN84@LoadString@3
  000f3	80 f2 ed	 xor	 dl, -19			; ffffffedH
  000f6	88 55 f0	 mov	 BYTE PTR __k$[ebp+12], dl
  000f9	8a 50 0d	 mov	 dl, BYTE PTR [eax+13]
  000fc	84 d2		 test	 dl, dl
  000fe	0f 84 96 00 00
	00		 je	 $LN83@LoadString@3
  00104	80 f2 ec	 xor	 dl, -20			; ffffffecH
  00107	88 55 f1	 mov	 BYTE PTR __k$[ebp+13], dl
  0010a	8a 50 0e	 mov	 dl, BYTE PTR [eax+14]
  0010d	84 d2		 test	 dl, dl
  0010f	0f 84 80 00 00
	00		 je	 $LN82@LoadString@3
  00115	32 d1		 xor	 dl, cl
  00117	88 55 f2	 mov	 BYTE PTR __k$[ebp+14], dl
  0011a	8a 50 0f	 mov	 dl, BYTE PTR [eax+15]
  0011d	84 d2		 test	 dl, dl
  0011f	74 6e		 je	 SHORT $LN81@LoadString@3
  00121	80 f2 ea	 xor	 dl, -22			; ffffffeaH
  00124	88 55 f3	 mov	 BYTE PTR __k$[ebp+15], dl
  00127	8a 50 10	 mov	 dl, BYTE PTR [eax+16]
  0012a	84 d2		 test	 dl, dl
  0012c	74 5b		 je	 SHORT $LN80@LoadString@3
  0012e	80 f2 ed	 xor	 dl, -19			; ffffffedH
  00131	80 78 11 00	 cmp	 BYTE PTR [eax+17], 0
  00135	88 55 f4	 mov	 BYTE PTR __k$[ebp+16], dl
  00138	0f 84 ac 00 00
	00		 je	 $LN111@LoadString@3
  0013e	8a 50 12	 mov	 dl, BYTE PTR [eax+18]
  00141	84 d2		 test	 dl, dl
  00143	74 3f		 je	 SHORT $LN78@LoadString@3
  00145	32 d1		 xor	 dl, cl
  00147	88 55 f6	 mov	 BYTE PTR __k$[ebp+18], dl
  0014a	8a 50 13	 mov	 dl, BYTE PTR [eax+19]
  0014d	84 d2		 test	 dl, dl
  0014f	74 2d		 je	 SHORT $LN77@LoadString@3
  00151	80 f2 ea	 xor	 dl, -22			; ffffffeaH
  00154	88 55 f7	 mov	 BYTE PTR __k$[ebp+19], dl
  00157	8a 50 14	 mov	 dl, BYTE PTR [eax+20]
  0015a	84 d2		 test	 dl, dl
  0015c	74 1a		 je	 SHORT $LN76@LoadString@3
  0015e	8a 40 15	 mov	 al, BYTE PTR [eax+21]
  00161	80 f2 ed	 xor	 dl, -19			; ffffffedH
  00164	88 55 f8	 mov	 BYTE PTR __k$[ebp+20], dl
  00167	84 c0		 test	 al, al
  00169	74 07		 je	 SHORT $LN75@LoadString@3
  0016b	34 ec		 xor	 al, -20			; ffffffecH
  0016d	88 45 f9	 mov	 BYTE PTR __k$[ebp+21], al
  00170	eb 78		 jmp	 SHORT $LN111@LoadString@3
$LN75@LoadString@3:
  00172	c6 45 f9 ec	 mov	 BYTE PTR __k$[ebp+21], -20 ; ffffffecH
  00176	eb 72		 jmp	 SHORT $LN111@LoadString@3
$LN76@LoadString@3:
  00178	c6 45 f8 ed	 mov	 BYTE PTR __k$[ebp+20], -19 ; ffffffedH
  0017c	eb 6c		 jmp	 SHORT $LN111@LoadString@3
$LN77@LoadString@3:
  0017e	c6 45 f7 ea	 mov	 BYTE PTR __k$[ebp+19], -22 ; ffffffeaH
  00182	eb 66		 jmp	 SHORT $LN111@LoadString@3
$LN78@LoadString@3:
  00184	88 4d f6	 mov	 BYTE PTR __k$[ebp+18], cl
  00187	eb 61		 jmp	 SHORT $LN111@LoadString@3
$LN80@LoadString@3:
  00189	c6 45 f4 ed	 mov	 BYTE PTR __k$[ebp+16], -19 ; ffffffedH
  0018d	eb 5b		 jmp	 SHORT $LN111@LoadString@3
$LN81@LoadString@3:
  0018f	c6 45 f3 ea	 mov	 BYTE PTR __k$[ebp+15], -22 ; ffffffeaH
  00193	eb 55		 jmp	 SHORT $LN111@LoadString@3
$LN82@LoadString@3:
  00195	88 4d f2	 mov	 BYTE PTR __k$[ebp+14], cl
  00198	eb 50		 jmp	 SHORT $LN111@LoadString@3
$LN83@LoadString@3:
  0019a	c6 45 f1 ec	 mov	 BYTE PTR __k$[ebp+13], -20 ; ffffffecH
  0019e	eb 4a		 jmp	 SHORT $LN111@LoadString@3
$LN84@LoadString@3:
  001a0	c6 45 f0 ed	 mov	 BYTE PTR __k$[ebp+12], -19 ; ffffffedH
  001a4	eb 44		 jmp	 SHORT $LN111@LoadString@3
$LN85@LoadString@3:
  001a6	c6 45 ef ea	 mov	 BYTE PTR __k$[ebp+11], -22 ; ffffffeaH
  001aa	eb 3e		 jmp	 SHORT $LN111@LoadString@3
$LN86@LoadString@3:
  001ac	88 4d ee	 mov	 BYTE PTR __k$[ebp+10], cl
  001af	eb 39		 jmp	 SHORT $LN111@LoadString@3
$LN87@LoadString@3:
  001b1	c6 45 ed ec	 mov	 BYTE PTR __k$[ebp+9], -20 ; ffffffecH
  001b5	eb 33		 jmp	 SHORT $LN111@LoadString@3
$LN88@LoadString@3:
  001b7	c6 45 ec ed	 mov	 BYTE PTR __k$[ebp+8], -19 ; ffffffedH
  001bb	eb 2d		 jmp	 SHORT $LN111@LoadString@3
$LN89@LoadString@3:
  001bd	c6 45 eb ea	 mov	 BYTE PTR __k$[ebp+7], -22 ; ffffffeaH
  001c1	eb 27		 jmp	 SHORT $LN111@LoadString@3
$LN90@LoadString@3:
  001c3	88 4d ea	 mov	 BYTE PTR __k$[ebp+6], cl
  001c6	eb 22		 jmp	 SHORT $LN111@LoadString@3
$LN91@LoadString@3:
  001c8	c6 45 e9 ec	 mov	 BYTE PTR __k$[ebp+5], -20 ; ffffffecH
  001cc	eb 1c		 jmp	 SHORT $LN111@LoadString@3
$LN92@LoadString@3:
  001ce	c6 45 e8 ed	 mov	 BYTE PTR __k$[ebp+4], -19 ; ffffffedH
  001d2	eb 16		 jmp	 SHORT $LN111@LoadString@3
$LN93@LoadString@3:
  001d4	c6 45 e7 ea	 mov	 BYTE PTR __k$[ebp+3], -22 ; ffffffeaH
  001d8	eb 10		 jmp	 SHORT $LN111@LoadString@3
$LN94@LoadString@3:
  001da	c6 45 e6 eb	 mov	 BYTE PTR __k$[ebp+2], -21 ; ffffffebH
  001de	eb 0a		 jmp	 SHORT $LN111@LoadString@3
$LN95@LoadString@3:
  001e0	c6 45 e5 ec	 mov	 BYTE PTR __k$[ebp+1], -20 ; ffffffecH
  001e4	eb 04		 jmp	 SHORT $LN111@LoadString@3
$LN96@LoadString@3:
  001e6	c6 45 e4 ed	 mov	 BYTE PTR __k$[ebp], -19	; ffffffedH
$LN111@LoadString@3:
  001ea	6a 04		 push	 4
  001ec	8d 45 e4	 lea	 eax, DWORD PTR __k$[ebp]
  001ef	c6 45 f5 00	 mov	 BYTE PTR __k$[ebp+17], 0
  001f3	5a		 pop	 edx
$LL104@LoadString@3:
  001f4	81 30 ed ec eb
	ea		 xor	 DWORD PTR [eax], -353637139 ; eaebecedH
  001fa	83 c0 04	 add	 eax, 4
  001fd	4a		 dec	 edx
  001fe	75 f4		 jne	 SHORT $LL104@LoadString@3

; 163  : 		LoadString(_k, d, b, i);

  00200	ff 75 14	 push	 DWORD PTR _i$[ebp]
  00203	8b 4d e0	 mov	 ecx, DWORD PTR _this$GSCopy$[ebp]
  00206	80 75 f4 ed	 xor	 BYTE PTR __k$[ebp+16], -19 ; ffffffedH
  0020a	57		 push	 edi
  0020b	56		 push	 esi
  0020c	8d 45 e4	 lea	 eax, DWORD PTR __k$[ebp]
  0020f	50		 push	 eax
  00210	ff 15 00 00 00
	00		 call	 DWORD PTR __imp_?LoadStringA@ioINILoader@@QAEXPBD0PADH@Z

; 164  : 	}

  00216	8b 4d fc	 mov	 ecx, DWORD PTR __$ArrayPad$[ebp]
  00219	5f		 pop	 edi
  0021a	33 cd		 xor	 ecx, ebp
  0021c	5e		 pop	 esi
  0021d	e8 00 00 00 00	 call	 @__security_check_cookie@4
  00222	c9		 leave
  00223	c2 10 00	 ret	 16			; 00000010H
??$LoadString_e@$0BC@@ioINILoader@@QAEXAAY0BC@$$CBDAAY00$$CBDPADH@Z ENDP ; ioINILoader::LoadString_e<18>
_TEXT	ENDS
PUBLIC	??$GetAnimationEventTime_e@$0L@@ioEntityGroup@@QAEMHAAY0L@$$CBD@Z ; ioEntityGroup::GetAnimationEventTime_e<11>
EXTRN	__imp_?GetAnimationEventTime@ioEntityGroup@@QAEMHABVioHashString@@@Z:PROC
EXTRN	__imp_??0ioHashString@@QAE@PBD@Z:PROC
EXTRN	__EH_epilog3_GS:PROC
EXTRN	__EH_prolog3_GS:PROC
;	COMDAT xdata$x
; File d:\lost saga for developer\youtube\tutorial\source\src\lsclient\stringprotect.h
xdata$x	SEGMENT
__unwindtable$??$GetAnimationEventTime_e@$0L@@ioEntityGroup@@QAEMHAAY0L@$$CBD@Z DD 0ffffffffH
	DD	FLAT:__unwindfunclet$??$GetAnimationEventTime_e@$0L@@ioEntityGroup@@QAEMHAAY0L@$$CBD@Z$0
__ehfuncinfo$??$GetAnimationEventTime_e@$0L@@ioEntityGroup@@QAEMHAAY0L@$$CBD@Z DD 019930522H
	DD	01H
	DD	FLAT:__unwindtable$??$GetAnimationEventTime_e@$0L@@ioEntityGroup@@QAEMHAAY0L@$$CBD@Z
	DD	2 DUP(00H)
	DD	2 DUP(00H)
	DD	00H
	DD	01H
; Function compile flags: /Ogsp
; File d:\lost saga for developer\youtube\tutorial\source\src\io3dengine\ioentitygroup.h
xdata$x	ENDS
;	COMDAT ??$GetAnimationEventTime_e@$0L@@ioEntityGroup@@QAEMHAAY0L@$$CBD@Z
_TEXT	SEGMENT
$T535110 = -52						; size = 16
$T535109 = -36						; size = 4
_szEncEventType$ = -32					; size = 11
__$EHRec$ = -12						; size = 12
_id$ = 8						; size = 4
_szEventType$ = 12					; size = 4
??$GetAnimationEventTime_e@$0L@@ioEntityGroup@@QAEMHAAY0L@$$CBD@Z PROC ; ioEntityGroup::GetAnimationEventTime_e<11>, COMDAT
; _this$ = ecx

; 414  : 	{

  00000	6a 28		 push	 40			; 00000028H
  00002	b8 00 00 00 00	 mov	 eax, __ehhandler$??$GetAnimationEventTime_e@$0L@@ioEntityGroup@@QAEMHAAY0L@$$CBD@Z
  00007	e8 00 00 00 00	 call	 __EH_prolog3_GS
  0000c	8b 45 0c	 mov	 eax, DWORD PTR _szEventType$[ebp]
  0000f	8b f1		 mov	 esi, ecx

; 415  : 		_ENCSTR(szEventType, szEncEventType);

  00011	8a 08		 mov	 cl, BYTE PTR [eax]
  00013	84 c9		 test	 cl, cl
  00015	0f 84 1b 01 00
	00		 je	 $LN96@GetAnimati
  0001b	b2 ed		 mov	 dl, -19			; ffffffedH
  0001d	32 ca		 xor	 cl, dl
  0001f	88 4d e0	 mov	 BYTE PTR _szEncEventType$[ebp], cl
  00022	8a 48 01	 mov	 cl, BYTE PTR [eax+1]
  00025	84 c9		 test	 cl, cl
  00027	0f 84 03 01 00
	00		 je	 $LN95@GetAnimati
  0002d	80 f1 ec	 xor	 cl, -20			; ffffffecH
  00030	88 4d e1	 mov	 BYTE PTR _szEncEventType$[ebp+1], cl
  00033	8a 48 02	 mov	 cl, BYTE PTR [eax+2]
  00036	84 c9		 test	 cl, cl
  00038	0f 84 ec 00 00
	00		 je	 $LN94@GetAnimati
  0003e	80 f1 eb	 xor	 cl, -21			; ffffffebH
  00041	88 4d e2	 mov	 BYTE PTR _szEncEventType$[ebp+2], cl
  00044	8a 48 03	 mov	 cl, BYTE PTR [eax+3]
  00047	84 c9		 test	 cl, cl
  00049	0f 84 d5 00 00
	00		 je	 $LN93@GetAnimati
  0004f	80 f1 ea	 xor	 cl, -22			; ffffffeaH
  00052	88 4d e3	 mov	 BYTE PTR _szEncEventType$[ebp+3], cl
  00055	8a 48 04	 mov	 cl, BYTE PTR [eax+4]
  00058	84 c9		 test	 cl, cl
  0005a	0f 84 bf 00 00
	00		 je	 $LN92@GetAnimati
  00060	32 ca		 xor	 cl, dl
  00062	88 4d e4	 mov	 BYTE PTR _szEncEventType$[ebp+4], cl
  00065	8a 48 05	 mov	 cl, BYTE PTR [eax+5]
  00068	84 c9		 test	 cl, cl
  0006a	0f 84 a9 00 00
	00		 je	 $LN91@GetAnimati
  00070	80 f1 ec	 xor	 cl, -20			; ffffffecH
  00073	88 4d e5	 mov	 BYTE PTR _szEncEventType$[ebp+5], cl
  00076	8a 48 06	 mov	 cl, BYTE PTR [eax+6]
  00079	84 c9		 test	 cl, cl
  0007b	0f 84 92 00 00
	00		 je	 $LN90@GetAnimati
  00081	80 f1 eb	 xor	 cl, -21			; ffffffebH
  00084	88 4d e6	 mov	 BYTE PTR _szEncEventType$[ebp+6], cl
  00087	8a 48 07	 mov	 cl, BYTE PTR [eax+7]
  0008a	84 c9		 test	 cl, cl
  0008c	74 7f		 je	 SHORT $LN89@GetAnimati
  0008e	80 f1 ea	 xor	 cl, -22			; ffffffeaH
  00091	88 4d e7	 mov	 BYTE PTR _szEncEventType$[ebp+7], cl
  00094	8a 48 08	 mov	 cl, BYTE PTR [eax+8]
  00097	84 c9		 test	 cl, cl
  00099	74 6d		 je	 SHORT $LN88@GetAnimati
  0009b	32 ca		 xor	 cl, dl
  0009d	88 4d e8	 mov	 BYTE PTR _szEncEventType$[ebp+8], cl
  000a0	8a 48 09	 mov	 cl, BYTE PTR [eax+9]
  000a3	84 c9		 test	 cl, cl
  000a5	74 5b		 je	 SHORT $LN87@GetAnimati
  000a7	80 f1 ec	 xor	 cl, -20			; ffffffecH
  000aa	80 78 0a 00	 cmp	 BYTE PTR [eax+10], 0
  000ae	88 4d e9	 mov	 BYTE PTR _szEncEventType$[ebp+9], cl
  000b1	0f 84 83 00 00
	00		 je	 $LN1@GetAnimati
  000b7	8a 48 0b	 mov	 cl, BYTE PTR [eax+11]
  000ba	84 c9		 test	 cl, cl
  000bc	74 3e		 je	 SHORT $LN85@GetAnimati
  000be	80 f1 ea	 xor	 cl, -22			; ffffffeaH
  000c1	88 4d eb	 mov	 BYTE PTR _szEncEventType$[ebp+11], cl
  000c4	8a 48 0c	 mov	 cl, BYTE PTR [eax+12]
  000c7	84 c9		 test	 cl, cl
  000c9	74 2c		 je	 SHORT $LN84@GetAnimati
  000cb	32 ca		 xor	 cl, dl
  000cd	88 4d ec	 mov	 BYTE PTR _szEncEventType$[ebp+12], cl
  000d0	8a 48 0d	 mov	 cl, BYTE PTR [eax+13]
  000d3	84 c9		 test	 cl, cl
  000d5	74 1a		 je	 SHORT $LN83@GetAnimati
  000d7	8a 40 0e	 mov	 al, BYTE PTR [eax+14]
  000da	80 f1 ec	 xor	 cl, -20			; ffffffecH
  000dd	88 4d ed	 mov	 BYTE PTR _szEncEventType$[ebp+13], cl
  000e0	84 c0		 test	 al, al
  000e2	74 07		 je	 SHORT $LN82@GetAnimati
  000e4	34 eb		 xor	 al, -21			; ffffffebH
  000e6	88 45 ee	 mov	 BYTE PTR _szEncEventType$[ebp+14], al
  000e9	eb 4f		 jmp	 SHORT $LN1@GetAnimati
$LN82@GetAnimati:
  000eb	c6 45 ee eb	 mov	 BYTE PTR _szEncEventType$[ebp+14], -21 ; ffffffebH
  000ef	eb 49		 jmp	 SHORT $LN1@GetAnimati
$LN83@GetAnimati:
  000f1	c6 45 ed ec	 mov	 BYTE PTR _szEncEventType$[ebp+13], -20 ; ffffffecH
  000f5	eb 43		 jmp	 SHORT $LN1@GetAnimati
$LN84@GetAnimati:
  000f7	88 55 ec	 mov	 BYTE PTR _szEncEventType$[ebp+12], dl
  000fa	eb 3e		 jmp	 SHORT $LN1@GetAnimati
$LN85@GetAnimati:
  000fc	c6 45 eb ea	 mov	 BYTE PTR _szEncEventType$[ebp+11], -22 ; ffffffeaH
  00100	eb 38		 jmp	 SHORT $LN1@GetAnimati
$LN87@GetAnimati:
  00102	c6 45 e9 ec	 mov	 BYTE PTR _szEncEventType$[ebp+9], -20 ; ffffffecH
  00106	eb 32		 jmp	 SHORT $LN1@GetAnimati
$LN88@GetAnimati:
  00108	88 55 e8	 mov	 BYTE PTR _szEncEventType$[ebp+8], dl
  0010b	eb 2d		 jmp	 SHORT $LN1@GetAnimati
$LN89@GetAnimati:
  0010d	c6 45 e7 ea	 mov	 BYTE PTR _szEncEventType$[ebp+7], -22 ; ffffffeaH
  00111	eb 27		 jmp	 SHORT $LN1@GetAnimati
$LN90@GetAnimati:
  00113	c6 45 e6 eb	 mov	 BYTE PTR _szEncEventType$[ebp+6], -21 ; ffffffebH
  00117	eb 21		 jmp	 SHORT $LN1@GetAnimati
$LN91@GetAnimati:
  00119	c6 45 e5 ec	 mov	 BYTE PTR _szEncEventType$[ebp+5], -20 ; ffffffecH
  0011d	eb 1b		 jmp	 SHORT $LN1@GetAnimati
$LN92@GetAnimati:
  0011f	88 55 e4	 mov	 BYTE PTR _szEncEventType$[ebp+4], dl
  00122	eb 16		 jmp	 SHORT $LN1@GetAnimati
$LN93@GetAnimati:
  00124	c6 45 e3 ea	 mov	 BYTE PTR _szEncEventType$[ebp+3], -22 ; ffffffeaH
  00128	eb 10		 jmp	 SHORT $LN1@GetAnimati
$LN94@GetAnimati:
  0012a	c6 45 e2 eb	 mov	 BYTE PTR _szEncEventType$[ebp+2], -21 ; ffffffebH
  0012e	eb 0a		 jmp	 SHORT $LN1@GetAnimati
$LN95@GetAnimati:
  00130	c6 45 e1 ec	 mov	 BYTE PTR _szEncEventType$[ebp+1], -20 ; ffffffecH
  00134	eb 04		 jmp	 SHORT $LN1@GetAnimati
$LN96@GetAnimati:
  00136	c6 45 e0 ed	 mov	 BYTE PTR _szEncEventType$[ebp], -19 ; ffffffedH
$LN1@GetAnimati:
  0013a	6a 02		 push	 2
  0013c	8d 45 e0	 lea	 eax, DWORD PTR _szEncEventType$[ebp]
  0013f	c6 45 ea 00	 mov	 BYTE PTR _szEncEventType$[ebp+10], 0
  00143	59		 pop	 ecx
$LL105@GetAnimati:
  00144	81 30 ed ec eb
	ea		 xor	 DWORD PTR [eax], -353637139 ; eaebecedH
  0014a	83 c0 04	 add	 eax, 4
  0014d	49		 dec	 ecx
  0014e	75 f4		 jne	 SHORT $LL105@GetAnimati
  00150	6a 08		 push	 8
  00152	58		 pop	 eax
$LL102@GetAnimati:
  00153	8b c8		 mov	 ecx, eax
  00155	81 e1 03 00 00
	80		 and	 ecx, -2147483645	; 80000003H
  0015b	79 05		 jns	 SHORT $LN113@GetAnimati
  0015d	49		 dec	 ecx
  0015e	83 c9 fc	 or	 ecx, -4			; fffffffcH
  00161	41		 inc	 ecx
$LN113@GetAnimati:
  00162	b2 ed		 mov	 dl, -19			; ffffffedH
  00164	2a d1		 sub	 dl, cl
  00166	30 54 05 e0	 xor	 BYTE PTR _szEncEventType$[ebp+eax], dl
  0016a	40		 inc	 eax
  0016b	83 f8 0a	 cmp	 eax, 10			; 0000000aH
  0016e	7c e3		 jl	 SHORT $LL102@GetAnimati

; 416  : 		return GetAnimationEventTime(id, szEncEventType);

  00170	8d 45 e0	 lea	 eax, DWORD PTR _szEncEventType$[ebp]
  00173	50		 push	 eax
  00174	8d 4d cc	 lea	 ecx, DWORD PTR $T535110[ebp]
  00177	ff 15 00 00 00
	00		 call	 DWORD PTR __imp_??0ioHashString@@QAE@PBD@Z
  0017d	83 65 fc 00	 and	 DWORD PTR __$EHRec$[ebp+8], 0
  00181	8d 45 cc	 lea	 eax, DWORD PTR $T535110[ebp]
  00184	50		 push	 eax
  00185	ff 75 08	 push	 DWORD PTR _id$[ebp]
  00188	8b ce		 mov	 ecx, esi
  0018a	ff 15 00 00 00
	00		 call	 DWORD PTR __imp_?GetAnimationEventTime@ioEntityGroup@@QAEMHABVioHashString@@@Z
  00190	d9 5d dc	 fstp	 DWORD PTR $T535109[ebp]
  00193	83 4d fc ff	 or	 DWORD PTR __$EHRec$[ebp+8], -1
  00197	8d 4d cc	 lea	 ecx, DWORD PTR $T535110[ebp]
  0019a	ff 15 00 00 00
	00		 call	 DWORD PTR __imp_??1ioHashString@@QAE@XZ
  001a0	d9 45 dc	 fld	 DWORD PTR $T535109[ebp]

; 417  : 	}

  001a3	e8 00 00 00 00	 call	 __EH_epilog3_GS
  001a8	c2 08 00	 ret	 8
_TEXT	ENDS
;	COMDAT text$x
text$x	SEGMENT
__unwindfunclet$??$GetAnimationEventTime_e@$0L@@ioEntityGroup@@QAEMHAAY0L@$$CBD@Z$0:
  00000	8d 4d cc	 lea	 ecx, DWORD PTR $T535110[ebp]
  00003	ff 25 00 00 00
	00		 jmp	 DWORD PTR __imp_??1ioHashString@@QAE@XZ
__ehhandler$??$GetAnimationEventTime_e@$0L@@ioEntityGroup@@QAEMHAAY0L@$$CBD@Z:
  00009	8b 54 24 08	 mov	 edx, DWORD PTR [esp+8]
  0000d	8d 42 0c	 lea	 eax, DWORD PTR [edx+12]
  00010	8b 4a c8	 mov	 ecx, DWORD PTR [edx-56]
  00013	33 c8		 xor	 ecx, eax
  00015	e8 00 00 00 00	 call	 @__security_check_cookie@4
  0001a	8b 4a fc	 mov	 ecx, DWORD PTR [edx-4]
  0001d	33 c8		 xor	 ecx, eax
  0001f	e8 00 00 00 00	 call	 @__security_check_cookie@4
  00024	b8 00 00 00 00	 mov	 eax, OFFSET __ehfuncinfo$??$GetAnimationEventTime_e@$0L@@ioEntityGroup@@QAEMHAAY0L@$$CBD@Z
  00029	e9 00 00 00 00	 jmp	 ___CxxFrameHandler3
text$x	ENDS
??$GetAnimationEventTime_e@$0L@@ioEntityGroup@@QAEMHAAY0L@$$CBD@Z ENDP ; ioEntityGroup::GetAnimationEventTime_e<11>
PUBLIC	??G?$_Vector_const_iterator@V?$_Vector_val@UtagBaseCharDistanceSq@@V?$allocator@UtagBaseCharDistanceSq@@@std@@@std@@@std@@QBEHABV01@@Z ; std::_Vector_const_iterator<std::_Vector_val<tagBaseCharDistanceSq,std::allocator<tagBaseCharDistanceSq> > >::operator-
; Function compile flags: /Ogsp
; File c:\program files (x86)\microsoft visual studio 10.0\vc\include\vector
;	COMDAT ??G?$_Vector_const_iterator@V?$_Vector_val@UtagBaseCharDistanceSq@@V?$allocator@UtagBaseCharDistanceSq@@@std@@@std@@@std@@QBEHABV01@@Z
_TEXT	SEGMENT
__Right$ = 8						; size = 4
??G?$_Vector_const_iterator@V?$_Vector_val@UtagBaseCharDistanceSq@@V?$allocator@UtagBaseCharDistanceSq@@@std@@@std@@@std@@QBEHABV01@@Z PROC ; std::_Vector_const_iterator<std::_Vector_val<tagBaseCharDistanceSq,std::allocator<tagBaseCharDistanceSq> > >::operator-, COMDAT
; _this$ = ecx

; 190  : 		{	// return difference of iterators

  00000	55		 push	 ebp
  00001	8b ec		 mov	 ebp, esp

; 191  : 		_Compat(_Right);
; 192  : 		return (this->_Ptr - _Right._Ptr);

  00003	8b 01		 mov	 eax, DWORD PTR [ecx]
  00005	8b 4d 08	 mov	 ecx, DWORD PTR __Right$[ebp]
  00008	2b 01		 sub	 eax, DWORD PTR [ecx]
  0000a	c1 f8 05	 sar	 eax, 5

; 193  : 		}

  0000d	5d		 pop	 ebp
  0000e	c2 04 00	 ret	 4
??G?$_Vector_const_iterator@V?$_Vector_val@UtagBaseCharDistanceSq@@V?$allocator@UtagBaseCharDistanceSq@@@std@@@std@@@std@@QBEHABV01@@Z ENDP ; std::_Vector_const_iterator<std::_Vector_val<tagBaseCharDistanceSq,std::allocator<tagBaseCharDistanceSq> > >::operator-
_TEXT	ENDS
PUBLIC	??$_Unchecked@V?$_Vector_val@UtagBaseCharDistanceSq@@V?$allocator@UtagBaseCharDistanceSq@@@std@@@std@@@std@@YAPAUtagBaseCharDistanceSq@@V?$_Vector_iterator@V?$_Vector_val@UtagBaseCharDistanceSq@@V?$allocator@UtagBaseCharDistanceSq@@@std@@@std@@@0@@Z ; std::_Unchecked<std::_Vector_val<tagBaseCharDistanceSq,std::allocator<tagBaseCharDistanceSq> > >
; Function compile flags: /Ogsp
;	COMDAT ??$_Unchecked@V?$_Vector_val@UtagBaseCharDistanceSq@@V?$allocator@UtagBaseCharDistanceSq@@@std@@@std@@@std@@YAPAUtagBaseCharDistanceSq@@V?$_Vector_iterator@V?$_Vector_val@UtagBaseCharDistanceSq@@V?$allocator@UtagBaseCharDistanceSq@@@std@@@std@@@0@@Z
_TEXT	SEGMENT
__Iter$ = 8						; size = 4
??$_Unchecked@V?$_Vector_val@UtagBaseCharDistanceSq@@V?$allocator@UtagBaseCharDistanceSq@@@std@@@std@@@std@@YAPAUtagBaseCharDistanceSq@@V?$_Vector_iterator@V?$_Vector_val@UtagBaseCharDistanceSq@@V?$allocator@UtagBaseCharDistanceSq@@@std@@@std@@@0@@Z PROC ; std::_Unchecked<std::_Vector_val<tagBaseCharDistanceSq,std::allocator<tagBaseCharDistanceSq> > >, COMDAT

; 393  : 	{	// convert to unchecked

  00000	55		 push	 ebp
  00001	8b ec		 mov	 ebp, esp

; 394  : 	return (_Iter._Unchecked());

  00003	8b 45 08	 mov	 eax, DWORD PTR __Iter$[ebp]

; 395  : 	}

  00006	5d		 pop	 ebp
  00007	c3		 ret	 0
??$_Unchecked@V?$_Vector_val@UtagBaseCharDistanceSq@@V?$allocator@UtagBaseCharDistanceSq@@@std@@@std@@@std@@YAPAUtagBaseCharDistanceSq@@V?$_Vector_iterator@V?$_Vector_val@UtagBaseCharDistanceSq@@V?$allocator@UtagBaseCharDistanceSq@@@std@@@std@@@0@@Z ENDP ; std::_Unchecked<std::_Vector_val<tagBaseCharDistanceSq,std::allocator<tagBaseCharDistanceSq> > >
_TEXT	ENDS
PUBLIC	??$construct@AAVioHashString@@@?$allocator@VioHashString@@@std@@QAEXPAVioHashString@@AAV2@@Z ; std::allocator<ioHashString>::construct<ioHashString &>
;	COMDAT xdata$x
; File c:\program files (x86)\microsoft visual studio 10.0\vc\include\utility
xdata$x	SEGMENT
__unwindtable$??$construct@AAVioHashString@@@?$allocator@VioHashString@@@std@@QAEXPAVioHashString@@AAV2@@Z DD 0ffffffffH
	DD	FLAT:__unwindfunclet$??$construct@AAVioHashString@@@?$allocator@VioHashString@@@std@@QAEXPAVioHashString@@AAV2@@Z$0
__ehfuncinfo$??$construct@AAVioHashString@@@?$allocator@VioHashString@@@std@@QAEXPAVioHashString@@AAV2@@Z DD 019930522H
	DD	01H
	DD	FLAT:__unwindtable$??$construct@AAVioHashString@@@?$allocator@VioHashString@@@std@@QAEXPAVioHashString@@AAV2@@Z
	DD	2 DUP(00H)
	DD	2 DUP(00H)
	DD	00H
	DD	01H
; Function compile flags: /Ogsp
; File c:\program files (x86)\microsoft visual studio 10.0\vc\include\xmemory
xdata$x	ENDS
;	COMDAT ??$construct@AAVioHashString@@@?$allocator@VioHashString@@@std@@QAEXPAVioHashString@@AAV2@@Z
_TEXT	SEGMENT
$T535152 = -16						; size = 4
__$EHRec$ = -12						; size = 12
__Ptr$ = 8						; size = 4
__Val$ = 12						; size = 4
??$construct@AAVioHashString@@@?$allocator@VioHashString@@@std@@QAEXPAVioHashString@@AAV2@@Z PROC ; std::allocator<ioHashString>::construct<ioHashString &>, COMDAT
; _this$ = ecx

; 206  : 		void construct(pointer _Ptr, _Other&& _Val)

  00000	6a 04		 push	 4
  00002	b8 00 00 00 00	 mov	 eax, __ehhandler$??$construct@AAVioHashString@@@?$allocator@VioHashString@@@std@@QAEXPAVioHashString@@AAV2@@Z
  00007	e8 00 00 00 00	 call	 __EH_prolog3

; 207  : 		{	// construct object at _Ptr with value _Val
; 208  : 		::new ((void _FARQ *)_Ptr) _Ty(_STD forward<_Other>(_Val));

  0000c	8b 4d 08	 mov	 ecx, DWORD PTR __Ptr$[ebp]
  0000f	89 4d f0	 mov	 DWORD PTR $T535152[ebp], ecx
  00012	83 65 fc 00	 and	 DWORD PTR __$EHRec$[ebp+8], 0
  00016	85 c9		 test	 ecx, ecx
  00018	74 09		 je	 SHORT $LN3@construct
  0001a	ff 75 0c	 push	 DWORD PTR __Val$[ebp]
  0001d	ff 15 00 00 00
	00		 call	 DWORD PTR __imp_??0ioHashString@@QAE@ABV0@@Z
$LN3@construct:

; 209  : 		}

  00023	e8 00 00 00 00	 call	 __EH_epilog3
  00028	c2 08 00	 ret	 8
_TEXT	ENDS
;	COMDAT text$x
text$x	SEGMENT
__unwindfunclet$??$construct@AAVioHashString@@@?$allocator@VioHashString@@@std@@QAEXPAVioHashString@@AAV2@@Z$0:
  00000	ff 75 08	 push	 DWORD PTR __Ptr$[ebp]
  00003	ff 75 f0	 push	 DWORD PTR $T535152[ebp]
  00006	e8 00 00 00 00	 call	 ??3@YAXPAX0@Z		; operator delete
  0000b	59		 pop	 ecx
  0000c	59		 pop	 ecx
  0000d	c3		 ret	 0
__ehhandler$??$construct@AAVioHashString@@@?$allocator@VioHashString@@@std@@QAEXPAVioHashString@@AAV2@@Z:
  0000e	8b 54 24 08	 mov	 edx, DWORD PTR [esp+8]
  00012	8d 42 0c	 lea	 eax, DWORD PTR [edx+12]
  00015	8b 4a ec	 mov	 ecx, DWORD PTR [edx-20]
  00018	33 c8		 xor	 ecx, eax
  0001a	e8 00 00 00 00	 call	 @__security_check_cookie@4
  0001f	b8 00 00 00 00	 mov	 eax, OFFSET __ehfuncinfo$??$construct@AAVioHashString@@@?$allocator@VioHashString@@@std@@QAEXPAVioHashString@@AAV2@@Z
  00024	e9 00 00 00 00	 jmp	 ___CxxFrameHandler3
text$x	ENDS
??$construct@AAVioHashString@@@?$allocator@VioHashString@@@std@@QAEXPAVioHashString@@AAV2@@Z ENDP ; std::allocator<ioHashString>::construct<ioHashString &>
PUBLIC	??$construct@AAUtagBaseCharDistanceSq@@@?$allocator@UtagBaseCharDistanceSq@@@std@@QAEXPAUtagBaseCharDistanceSq@@AAU2@@Z ; std::allocator<tagBaseCharDistanceSq>::construct<tagBaseCharDistanceSq &>
;	COMDAT xdata$x
; File c:\program files (x86)\microsoft visual studio 10.0\vc\include\utility
xdata$x	SEGMENT
__unwindtable$??$construct@AAUtagBaseCharDistanceSq@@@?$allocator@UtagBaseCharDistanceSq@@@std@@QAEXPAUtagBaseCharDistanceSq@@AAU2@@Z DD 0ffffffffH
	DD	FLAT:__unwindfunclet$??$construct@AAUtagBaseCharDistanceSq@@@?$allocator@UtagBaseCharDistanceSq@@@std@@QAEXPAUtagBaseCharDistanceSq@@AAU2@@Z$0
__ehfuncinfo$??$construct@AAUtagBaseCharDistanceSq@@@?$allocator@UtagBaseCharDistanceSq@@@std@@QAEXPAUtagBaseCharDistanceSq@@AAU2@@Z DD 019930522H
	DD	01H
	DD	FLAT:__unwindtable$??$construct@AAUtagBaseCharDistanceSq@@@?$allocator@UtagBaseCharDistanceSq@@@std@@QAEXPAUtagBaseCharDistanceSq@@AAU2@@Z
	DD	2 DUP(00H)
	DD	2 DUP(00H)
	DD	00H
	DD	01H
; Function compile flags: /Ogsp
; File c:\program files (x86)\microsoft visual studio 10.0\vc\include\xmemory
xdata$x	ENDS
;	COMDAT ??$construct@AAUtagBaseCharDistanceSq@@@?$allocator@UtagBaseCharDistanceSq@@@std@@QAEXPAUtagBaseCharDistanceSq@@AAU2@@Z
_TEXT	SEGMENT
$T535171 = -16						; size = 4
__$EHRec$ = -12						; size = 12
__Ptr$ = 8						; size = 4
__Val$ = 12						; size = 4
??$construct@AAUtagBaseCharDistanceSq@@@?$allocator@UtagBaseCharDistanceSq@@@std@@QAEXPAUtagBaseCharDistanceSq@@AAU2@@Z PROC ; std::allocator<tagBaseCharDistanceSq>::construct<tagBaseCharDistanceSq &>, COMDAT
; _this$ = ecx

; 206  : 		void construct(pointer _Ptr, _Other&& _Val)

  00000	6a 04		 push	 4
  00002	b8 00 00 00 00	 mov	 eax, __ehhandler$??$construct@AAUtagBaseCharDistanceSq@@@?$allocator@UtagBaseCharDistanceSq@@@std@@QAEXPAUtagBaseCharDistanceSq@@AAU2@@Z
  00007	e8 00 00 00 00	 call	 __EH_prolog3

; 207  : 		{	// construct object at _Ptr with value _Val
; 208  : 		::new ((void _FARQ *)_Ptr) _Ty(_STD forward<_Other>(_Val));

  0000c	8b 4d 08	 mov	 ecx, DWORD PTR __Ptr$[ebp]
  0000f	89 4d f0	 mov	 DWORD PTR $T535171[ebp], ecx
  00012	83 65 fc 00	 and	 DWORD PTR __$EHRec$[ebp+8], 0
  00016	85 c9		 test	 ecx, ecx
  00018	74 08		 je	 SHORT $LN3@construct@2
  0001a	ff 75 0c	 push	 DWORD PTR __Val$[ebp]
  0001d	e8 00 00 00 00	 call	 ??0tagBaseCharDistanceSq@@QAE@ABU0@@Z
$LN3@construct@2:

; 209  : 		}

  00022	e8 00 00 00 00	 call	 __EH_epilog3
  00027	c2 08 00	 ret	 8
_TEXT	ENDS
;	COMDAT text$x
text$x	SEGMENT
__unwindfunclet$??$construct@AAUtagBaseCharDistanceSq@@@?$allocator@UtagBaseCharDistanceSq@@@std@@QAEXPAUtagBaseCharDistanceSq@@AAU2@@Z$0:
  00000	ff 75 08	 push	 DWORD PTR __Ptr$[ebp]
  00003	ff 75 f0	 push	 DWORD PTR $T535171[ebp]
  00006	e8 00 00 00 00	 call	 ??3@YAXPAX0@Z		; operator delete
  0000b	59		 pop	 ecx
  0000c	59		 pop	 ecx
  0000d	c3		 ret	 0
__ehhandler$??$construct@AAUtagBaseCharDistanceSq@@@?$allocator@UtagBaseCharDistanceSq@@@std@@QAEXPAUtagBaseCharDistanceSq@@AAU2@@Z:
  0000e	8b 54 24 08	 mov	 edx, DWORD PTR [esp+8]
  00012	8d 42 0c	 lea	 eax, DWORD PTR [edx+12]
  00015	8b 4a ec	 mov	 ecx, DWORD PTR [edx-20]
  00018	33 c8		 xor	 ecx, eax
  0001a	e8 00 00 00 00	 call	 @__security_check_cookie@4
  0001f	b8 00 00 00 00	 mov	 eax, OFFSET __ehfuncinfo$??$construct@AAUtagBaseCharDistanceSq@@@?$allocator@UtagBaseCharDistanceSq@@@std@@QAEXPAUtagBaseCharDistanceSq@@AAU2@@Z
  00024	e9 00 00 00 00	 jmp	 ___CxxFrameHandler3
text$x	ENDS
??$construct@AAUtagBaseCharDistanceSq@@@?$allocator@UtagBaseCharDistanceSq@@@std@@QAEXPAUtagBaseCharDistanceSq@@AAU2@@Z ENDP ; std::allocator<tagBaseCharDistanceSq>::construct<tagBaseCharDistanceSq &>
PUBLIC	??$_Construct@UtagBaseCharDistanceSq@@ABU1@@std@@YAXPAUtagBaseCharDistanceSq@@ABU1@@Z ; std::_Construct<tagBaseCharDistanceSq,tagBaseCharDistanceSq const &>
;	COMDAT xdata$x
; File c:\program files (x86)\microsoft visual studio 10.0\vc\include\utility
xdata$x	SEGMENT
__unwindtable$??$_Construct@UtagBaseCharDistanceSq@@ABU1@@std@@YAXPAUtagBaseCharDistanceSq@@ABU1@@Z DD 0ffffffffH
	DD	FLAT:__unwindfunclet$??$_Construct@UtagBaseCharDistanceSq@@ABU1@@std@@YAXPAUtagBaseCharDistanceSq@@ABU1@@Z$0
__ehfuncinfo$??$_Construct@UtagBaseCharDistanceSq@@ABU1@@std@@YAXPAUtagBaseCharDistanceSq@@ABU1@@Z DD 019930522H
	DD	01H
	DD	FLAT:__unwindtable$??$_Construct@UtagBaseCharDistanceSq@@ABU1@@std@@YAXPAUtagBaseCharDistanceSq@@ABU1@@Z
	DD	2 DUP(00H)
	DD	2 DUP(00H)
	DD	00H
	DD	01H
; Function compile flags: /Ogsp
; File c:\program files (x86)\microsoft visual studio 10.0\vc\include\xmemory
xdata$x	ENDS
;	COMDAT ??$_Construct@UtagBaseCharDistanceSq@@ABU1@@std@@YAXPAUtagBaseCharDistanceSq@@ABU1@@Z
_TEXT	SEGMENT
$T535190 = -16						; size = 4
__$EHRec$ = -12						; size = 12
__Vptr$ = 8						; size = 4
__Ptr$ = 8						; size = 4
__Val$ = 12						; size = 4
??$_Construct@UtagBaseCharDistanceSq@@ABU1@@std@@YAXPAUtagBaseCharDistanceSq@@ABU1@@Z PROC ; std::_Construct<tagBaseCharDistanceSq,tagBaseCharDistanceSq const &>, COMDAT

; 46   : 	{	// construct object at _Ptr with value _Val

  00000	6a 04		 push	 4
  00002	b8 00 00 00 00	 mov	 eax, __ehhandler$??$_Construct@UtagBaseCharDistanceSq@@ABU1@@std@@YAXPAUtagBaseCharDistanceSq@@ABU1@@Z
  00007	e8 00 00 00 00	 call	 __EH_prolog3

; 47   : 	void _FARQ *_Vptr = _Ptr;

  0000c	8b 4d 08	 mov	 ecx, DWORD PTR __Ptr$[ebp]
  0000f	89 4d 08	 mov	 DWORD PTR __Vptr$[ebp], ecx

; 48   : 	::new (_Vptr) _Ty1(_STD forward<_Ty2>(_Val));

  00012	89 4d f0	 mov	 DWORD PTR $T535190[ebp], ecx
  00015	83 65 fc 00	 and	 DWORD PTR __$EHRec$[ebp+8], 0
  00019	85 c9		 test	 ecx, ecx
  0001b	74 08		 je	 SHORT $LN3@Construct@2
  0001d	ff 75 0c	 push	 DWORD PTR __Val$[ebp]
  00020	e8 00 00 00 00	 call	 ??0tagBaseCharDistanceSq@@QAE@ABU0@@Z
$LN3@Construct@2:

; 49   : 	}

  00025	e8 00 00 00 00	 call	 __EH_epilog3
  0002a	c3		 ret	 0
_TEXT	ENDS
;	COMDAT text$x
text$x	SEGMENT
__unwindfunclet$??$_Construct@UtagBaseCharDistanceSq@@ABU1@@std@@YAXPAUtagBaseCharDistanceSq@@ABU1@@Z$0:
  00000	ff 75 08	 push	 DWORD PTR __Vptr$[ebp]
  00003	ff 75 f0	 push	 DWORD PTR $T535190[ebp]
  00006	e8 00 00 00 00	 call	 ??3@YAXPAX0@Z		; operator delete
  0000b	59		 pop	 ecx
  0000c	59		 pop	 ecx
  0000d	c3		 ret	 0
__ehhandler$??$_Construct@UtagBaseCharDistanceSq@@ABU1@@std@@YAXPAUtagBaseCharDistanceSq@@ABU1@@Z:
  0000e	8b 54 24 08	 mov	 edx, DWORD PTR [esp+8]
  00012	8d 42 0c	 lea	 eax, DWORD PTR [edx+12]
  00015	8b 4a ec	 mov	 ecx, DWORD PTR [edx-20]
  00018	33 c8		 xor	 ecx, eax
  0001a	e8 00 00 00 00	 call	 @__security_check_cookie@4
  0001f	b8 00 00 00 00	 mov	 eax, OFFSET __ehfuncinfo$??$_Construct@UtagBaseCharDistanceSq@@ABU1@@std@@YAXPAUtagBaseCharDistanceSq@@ABU1@@Z
  00024	e9 00 00 00 00	 jmp	 ___CxxFrameHandler3
text$x	ENDS
??$_Construct@UtagBaseCharDistanceSq@@ABU1@@std@@YAXPAUtagBaseCharDistanceSq@@ABU1@@Z ENDP ; std::_Construct<tagBaseCharDistanceSq,tagBaseCharDistanceSq const &>
PUBLIC	??$?0AAPAUtagBaseCharDistanceSq@@AAPAU0@@?$pair@PAUtagBaseCharDistanceSq@@PAU1@@std@@QAE@AAPAUtagBaseCharDistanceSq@@0@Z ; std::pair<tagBaseCharDistanceSq *,tagBaseCharDistanceSq *>::pair<tagBaseCharDistanceSq *,tagBaseCharDistanceSq *><tagBaseCharDistanceSq * &,tagBaseCharDistanceSq * &>
; Function compile flags: /Ogsp
; File c:\program files (x86)\microsoft visual studio 10.0\vc\include\utility
;	COMDAT ??$?0AAPAUtagBaseCharDistanceSq@@AAPAU0@@?$pair@PAUtagBaseCharDistanceSq@@PAU1@@std@@QAE@AAPAUtagBaseCharDistanceSq@@0@Z
_TEXT	SEGMENT
__Val1$ = 8						; size = 4
__Val2$ = 12						; size = 4
??$?0AAPAUtagBaseCharDistanceSq@@AAPAU0@@?$pair@PAUtagBaseCharDistanceSq@@PAU1@@std@@QAE@AAPAUtagBaseCharDistanceSq@@0@Z PROC ; std::pair<tagBaseCharDistanceSq *,tagBaseCharDistanceSq *>::pair<tagBaseCharDistanceSq *,tagBaseCharDistanceSq *><tagBaseCharDistanceSq * &,tagBaseCharDistanceSq * &>, COMDAT
; _this$ = ecx

; 247  : 		{	// construct from moved values

  00000	55		 push	 ebp
  00001	8b ec		 mov	 ebp, esp
  00003	8b c1		 mov	 eax, ecx
  00005	8b 4d 08	 mov	 ecx, DWORD PTR __Val1$[ebp]
  00008	8b 09		 mov	 ecx, DWORD PTR [ecx]
  0000a	89 08		 mov	 DWORD PTR [eax], ecx
  0000c	8b 4d 0c	 mov	 ecx, DWORD PTR __Val2$[ebp]
  0000f	8b 09		 mov	 ecx, DWORD PTR [ecx]
  00011	89 48 04	 mov	 DWORD PTR [eax+4], ecx

; 248  : 		}

  00014	5d		 pop	 ebp
  00015	c2 08 00	 ret	 8
??$?0AAPAUtagBaseCharDistanceSq@@AAPAU0@@?$pair@PAUtagBaseCharDistanceSq@@PAU1@@std@@QAE@AAPAUtagBaseCharDistanceSq@@0@Z ENDP ; std::pair<tagBaseCharDistanceSq *,tagBaseCharDistanceSq *>::pair<tagBaseCharDistanceSq *,tagBaseCharDistanceSq *><tagBaseCharDistanceSq * &,tagBaseCharDistanceSq * &>
_TEXT	ENDS
PUBLIC	??$_Destroy@UtagBaseCharDistanceSq@@@std@@YAXPAUtagBaseCharDistanceSq@@@Z ; std::_Destroy<tagBaseCharDistanceSq>
; Function compile flags: /Ogsp
; File c:\program files (x86)\microsoft visual studio 10.0\vc\include\xmemory
;	COMDAT ??$_Destroy@UtagBaseCharDistanceSq@@@std@@YAXPAUtagBaseCharDistanceSq@@@Z
_TEXT	SEGMENT
__Ptr$ = 8						; size = 4
??$_Destroy@UtagBaseCharDistanceSq@@@std@@YAXPAUtagBaseCharDistanceSq@@@Z PROC ; std::_Destroy<tagBaseCharDistanceSq>, COMDAT

; 62   : 	{	// destroy object at _Ptr

  00000	55		 push	 ebp
  00001	8b ec		 mov	 ebp, esp

; 63   : 	_Ptr->~_Ty();

  00003	8b 4d 08	 mov	 ecx, DWORD PTR __Ptr$[ebp]

; 64   : 	}

  00006	5d		 pop	 ebp

; 63   : 	_Ptr->~_Ty();

  00007	ff 25 00 00 00
	00		 jmp	 DWORD PTR __imp_??1ioHashString@@QAE@XZ
??$_Destroy@UtagBaseCharDistanceSq@@@std@@YAXPAUtagBaseCharDistanceSq@@@Z ENDP ; std::_Destroy<tagBaseCharDistanceSq>
_TEXT	ENDS
PUBLIC	?construct@?$allocator@VioHashString@@@std@@QAEXPAVioHashString@@$$QAV3@@Z ; std::allocator<ioHashString>::construct
;	COMDAT xdata$x
; File c:\program files (x86)\microsoft visual studio 10.0\vc\include\utility
xdata$x	SEGMENT
__unwindtable$?construct@?$allocator@VioHashString@@@std@@QAEXPAVioHashString@@$$QAV3@@Z DD 0ffffffffH
	DD	FLAT:__unwindfunclet$?construct@?$allocator@VioHashString@@@std@@QAEXPAVioHashString@@$$QAV3@@Z$0
__ehfuncinfo$?construct@?$allocator@VioHashString@@@std@@QAEXPAVioHashString@@$$QAV3@@Z DD 019930522H
	DD	01H
	DD	FLAT:__unwindtable$?construct@?$allocator@VioHashString@@@std@@QAEXPAVioHashString@@$$QAV3@@Z
	DD	2 DUP(00H)
	DD	2 DUP(00H)
	DD	00H
	DD	01H
; Function compile flags: /Ogsp
; File c:\program files (x86)\microsoft visual studio 10.0\vc\include\xmemory
xdata$x	ENDS
;	COMDAT ?construct@?$allocator@VioHashString@@@std@@QAEXPAVioHashString@@$$QAV3@@Z
_TEXT	SEGMENT
$T535243 = -16						; size = 4
__$EHRec$ = -12						; size = 12
__Ptr$ = 8						; size = 4
__Val$ = 12						; size = 4
?construct@?$allocator@VioHashString@@@std@@QAEXPAVioHashString@@$$QAV3@@Z PROC ; std::allocator<ioHashString>::construct, COMDAT
; _this$ = ecx

; 201  : 		{	// construct object at _Ptr with value _Val

  00000	6a 04		 push	 4
  00002	b8 00 00 00 00	 mov	 eax, __ehhandler$?construct@?$allocator@VioHashString@@@std@@QAEXPAVioHashString@@$$QAV3@@Z
  00007	e8 00 00 00 00	 call	 __EH_prolog3

; 202  : 		::new ((void _FARQ *)_Ptr) _Ty(_STD forward<_Ty>(_Val));

  0000c	8b 4d 08	 mov	 ecx, DWORD PTR __Ptr$[ebp]
  0000f	89 4d f0	 mov	 DWORD PTR $T535243[ebp], ecx
  00012	83 65 fc 00	 and	 DWORD PTR __$EHRec$[ebp+8], 0
  00016	85 c9		 test	 ecx, ecx
  00018	74 09		 je	 SHORT $LN3@construct@3
  0001a	ff 75 0c	 push	 DWORD PTR __Val$[ebp]
  0001d	ff 15 00 00 00
	00		 call	 DWORD PTR __imp_??0ioHashString@@QAE@ABV0@@Z
$LN3@construct@3:

; 203  : 		}

  00023	e8 00 00 00 00	 call	 __EH_epilog3
  00028	c2 08 00	 ret	 8
_TEXT	ENDS
;	COMDAT text$x
text$x	SEGMENT
__unwindfunclet$?construct@?$allocator@VioHashString@@@std@@QAEXPAVioHashString@@$$QAV3@@Z$0:
  00000	ff 75 08	 push	 DWORD PTR __Ptr$[ebp]
  00003	ff 75 f0	 push	 DWORD PTR $T535243[ebp]
  00006	e8 00 00 00 00	 call	 ??3@YAXPAX0@Z		; operator delete
  0000b	59		 pop	 ecx
  0000c	59		 pop	 ecx
  0000d	c3		 ret	 0
__ehhandler$?construct@?$allocator@VioHashString@@@std@@QAEXPAVioHashString@@$$QAV3@@Z:
  0000e	8b 54 24 08	 mov	 edx, DWORD PTR [esp+8]
  00012	8d 42 0c	 lea	 eax, DWORD PTR [edx+12]
  00015	8b 4a ec	 mov	 ecx, DWORD PTR [edx-20]
  00018	33 c8		 xor	 ecx, eax
  0001a	e8 00 00 00 00	 call	 @__security_check_cookie@4
  0001f	b8 00 00 00 00	 mov	 eax, OFFSET __ehfuncinfo$?construct@?$allocator@VioHashString@@@std@@QAEXPAVioHashString@@$$QAV3@@Z
  00024	e9 00 00 00 00	 jmp	 ___CxxFrameHandler3
text$x	ENDS
?construct@?$allocator@VioHashString@@@std@@QAEXPAVioHashString@@$$QAV3@@Z ENDP ; std::allocator<ioHashString>::construct
PUBLIC	?construct@?$allocator@UtagBaseCharDistanceSq@@@std@@QAEXPAUtagBaseCharDistanceSq@@$$QAU3@@Z ; std::allocator<tagBaseCharDistanceSq>::construct
;	COMDAT xdata$x
; File c:\program files (x86)\microsoft visual studio 10.0\vc\include\utility
xdata$x	SEGMENT
__unwindtable$?construct@?$allocator@UtagBaseCharDistanceSq@@@std@@QAEXPAUtagBaseCharDistanceSq@@$$QAU3@@Z DD 0ffffffffH
	DD	FLAT:__unwindfunclet$?construct@?$allocator@UtagBaseCharDistanceSq@@@std@@QAEXPAUtagBaseCharDistanceSq@@$$QAU3@@Z$0
__ehfuncinfo$?construct@?$allocator@UtagBaseCharDistanceSq@@@std@@QAEXPAUtagBaseCharDistanceSq@@$$QAU3@@Z DD 019930522H
	DD	01H
	DD	FLAT:__unwindtable$?construct@?$allocator@UtagBaseCharDistanceSq@@@std@@QAEXPAUtagBaseCharDistanceSq@@$$QAU3@@Z
	DD	2 DUP(00H)
	DD	2 DUP(00H)
	DD	00H
	DD	01H
; Function compile flags: /Ogsp
; File c:\program files (x86)\microsoft visual studio 10.0\vc\include\xmemory
xdata$x	ENDS
;	COMDAT ?construct@?$allocator@UtagBaseCharDistanceSq@@@std@@QAEXPAUtagBaseCharDistanceSq@@$$QAU3@@Z
_TEXT	SEGMENT
$T535262 = -16						; size = 4
__$EHRec$ = -12						; size = 12
__Ptr$ = 8						; size = 4
__Val$ = 12						; size = 4
?construct@?$allocator@UtagBaseCharDistanceSq@@@std@@QAEXPAUtagBaseCharDistanceSq@@$$QAU3@@Z PROC ; std::allocator<tagBaseCharDistanceSq>::construct, COMDAT
; _this$ = ecx

; 201  : 		{	// construct object at _Ptr with value _Val

  00000	6a 04		 push	 4
  00002	b8 00 00 00 00	 mov	 eax, __ehhandler$?construct@?$allocator@UtagBaseCharDistanceSq@@@std@@QAEXPAUtagBaseCharDistanceSq@@$$QAU3@@Z
  00007	e8 00 00 00 00	 call	 __EH_prolog3

; 202  : 		::new ((void _FARQ *)_Ptr) _Ty(_STD forward<_Ty>(_Val));

  0000c	8b 4d 08	 mov	 ecx, DWORD PTR __Ptr$[ebp]
  0000f	89 4d f0	 mov	 DWORD PTR $T535262[ebp], ecx
  00012	83 65 fc 00	 and	 DWORD PTR __$EHRec$[ebp+8], 0
  00016	85 c9		 test	 ecx, ecx
  00018	74 08		 je	 SHORT $LN3@construct@4
  0001a	ff 75 0c	 push	 DWORD PTR __Val$[ebp]
  0001d	e8 00 00 00 00	 call	 ??0tagBaseCharDistanceSq@@QAE@ABU0@@Z
$LN3@construct@4:

; 203  : 		}

  00022	e8 00 00 00 00	 call	 __EH_epilog3
  00027	c2 08 00	 ret	 8
_TEXT	ENDS
;	COMDAT text$x
text$x	SEGMENT
__unwindfunclet$?construct@?$allocator@UtagBaseCharDistanceSq@@@std@@QAEXPAUtagBaseCharDistanceSq@@$$QAU3@@Z$0:
  00000	ff 75 08	 push	 DWORD PTR __Ptr$[ebp]
  00003	ff 75 f0	 push	 DWORD PTR $T535262[ebp]
  00006	e8 00 00 00 00	 call	 ??3@YAXPAX0@Z		; operator delete
  0000b	59		 pop	 ecx
  0000c	59		 pop	 ecx
  0000d	c3		 ret	 0
__ehhandler$?construct@?$allocator@UtagBaseCharDistanceSq@@@std@@QAEXPAUtagBaseCharDistanceSq@@$$QAU3@@Z:
  0000e	8b 54 24 08	 mov	 edx, DWORD PTR [esp+8]
  00012	8d 42 0c	 lea	 eax, DWORD PTR [edx+12]
  00015	8b 4a ec	 mov	 ecx, DWORD PTR [edx-20]
  00018	33 c8		 xor	 ecx, eax
  0001a	e8 00 00 00 00	 call	 @__security_check_cookie@4
  0001f	b8 00 00 00 00	 mov	 eax, OFFSET __ehfuncinfo$?construct@?$allocator@UtagBaseCharDistanceSq@@@std@@QAEXPAUtagBaseCharDistanceSq@@$$QAU3@@Z
  00024	e9 00 00 00 00	 jmp	 ___CxxFrameHandler3
text$x	ENDS
?construct@?$allocator@UtagBaseCharDistanceSq@@@std@@QAEXPAUtagBaseCharDistanceSq@@$$QAU3@@Z ENDP ; std::allocator<tagBaseCharDistanceSq>::construct
PUBLIC	??$swap@UtagBaseCharDistanceSq@@@std@@YAXAAUtagBaseCharDistanceSq@@0@Z ; std::swap<tagBaseCharDistanceSq>
;	COMDAT xdata$x
; File d:\lost saga for developer\youtube\tutorial\source\src\lsclient\iotargetteleportskill.cpp
xdata$x	SEGMENT
__unwindtable$??$swap@UtagBaseCharDistanceSq@@@std@@YAXAAUtagBaseCharDistanceSq@@0@Z DD 0ffffffffH
	DD	FLAT:__unwindfunclet$??$swap@UtagBaseCharDistanceSq@@@std@@YAXAAUtagBaseCharDistanceSq@@0@Z$0
__ehfuncinfo$??$swap@UtagBaseCharDistanceSq@@@std@@YAXAAUtagBaseCharDistanceSq@@0@Z DD 019930522H
	DD	01H
	DD	FLAT:__unwindtable$??$swap@UtagBaseCharDistanceSq@@@std@@YAXAAUtagBaseCharDistanceSq@@0@Z
	DD	2 DUP(00H)
	DD	2 DUP(00H)
	DD	00H
	DD	01H
; Function compile flags: /Ogsp
; File c:\program files (x86)\microsoft visual studio 10.0\vc\include\utility
xdata$x	ENDS
;	COMDAT ??$swap@UtagBaseCharDistanceSq@@@std@@YAXAAUtagBaseCharDistanceSq@@0@Z
_TEXT	SEGMENT
__Tmp$ = -48						; size = 32
__$EHRec$ = -12						; size = 12
__Left$ = 8						; size = 4
__Right$ = 12						; size = 4
??$swap@UtagBaseCharDistanceSq@@@std@@YAXAAUtagBaseCharDistanceSq@@0@Z PROC ; std::swap<tagBaseCharDistanceSq>, COMDAT

; 101  : 	{	// exchange values stored at _Left and _Right

  00000	6a 24		 push	 36			; 00000024H
  00002	b8 00 00 00 00	 mov	 eax, __ehhandler$??$swap@UtagBaseCharDistanceSq@@@std@@YAXAAUtagBaseCharDistanceSq@@0@Z
  00007	e8 00 00 00 00	 call	 __EH_prolog3_GS
  0000c	8b 75 08	 mov	 esi, DWORD PTR __Left$[ebp]
  0000f	8b 7d 0c	 mov	 edi, DWORD PTR __Right$[ebp]

; 102  : 	_Ty _Tmp = _Move(_Left);

  00012	56		 push	 esi
  00013	8d 4d d0	 lea	 ecx, DWORD PTR __Tmp$[ebp]
  00016	e8 00 00 00 00	 call	 ??0tagBaseCharDistanceSq@@QAE@ABU0@@Z
  0001b	83 65 fc 00	 and	 DWORD PTR __$EHRec$[ebp+8], 0

; 103  : 	_Left = _Move(_Right);

  0001f	57		 push	 edi
  00020	8b ce		 mov	 ecx, esi
  00022	e8 00 00 00 00	 call	 ??4tagBaseCharDistanceSq@@QAEAAU0@ABU0@@Z

; 104  : 	_Right = _Move(_Tmp);

  00027	8d 45 d0	 lea	 eax, DWORD PTR __Tmp$[ebp]
  0002a	50		 push	 eax
  0002b	8b cf		 mov	 ecx, edi
  0002d	e8 00 00 00 00	 call	 ??4tagBaseCharDistanceSq@@QAEAAU0@ABU0@@Z

; 105  : 	}

  00032	83 4d fc ff	 or	 DWORD PTR __$EHRec$[ebp+8], -1
  00036	8d 4d d0	 lea	 ecx, DWORD PTR __Tmp$[ebp]
  00039	ff 15 00 00 00
	00		 call	 DWORD PTR __imp_??1ioHashString@@QAE@XZ
  0003f	e8 00 00 00 00	 call	 __EH_epilog3_GS
  00044	c3		 ret	 0
_TEXT	ENDS
;	COMDAT text$x
text$x	SEGMENT
__unwindfunclet$??$swap@UtagBaseCharDistanceSq@@@std@@YAXAAUtagBaseCharDistanceSq@@0@Z$0:
  00000	8d 4d d0	 lea	 ecx, DWORD PTR __Tmp$[ebp]
  00003	e9 00 00 00 00	 jmp	 ??1tagBaseCharDistanceSq@@QAE@XZ
__ehhandler$??$swap@UtagBaseCharDistanceSq@@@std@@YAXAAUtagBaseCharDistanceSq@@0@Z:
  00008	8b 54 24 08	 mov	 edx, DWORD PTR [esp+8]
  0000c	8d 42 0c	 lea	 eax, DWORD PTR [edx+12]
  0000f	8b 4a cc	 mov	 ecx, DWORD PTR [edx-52]
  00012	33 c8		 xor	 ecx, eax
  00014	e8 00 00 00 00	 call	 @__security_check_cookie@4
  00019	8b 4a fc	 mov	 ecx, DWORD PTR [edx-4]
  0001c	33 c8		 xor	 ecx, eax
  0001e	e8 00 00 00 00	 call	 @__security_check_cookie@4
  00023	b8 00 00 00 00	 mov	 eax, OFFSET __ehfuncinfo$??$swap@UtagBaseCharDistanceSq@@@std@@YAXAAUtagBaseCharDistanceSq@@0@Z
  00028	e9 00 00 00 00	 jmp	 ___CxxFrameHandler3
text$x	ENDS
??$swap@UtagBaseCharDistanceSq@@@std@@YAXAAUtagBaseCharDistanceSq@@0@Z ENDP ; std::swap<tagBaseCharDistanceSq>
PUBLIC	??$_Push_heap@PAUtagBaseCharDistanceSq@@HU1@VBaseCharDistanceSqSort@@@std@@YAXPAUtagBaseCharDistanceSq@@HH$$QAU1@VBaseCharDistanceSqSort@@@Z ; std::_Push_heap<tagBaseCharDistanceSq *,int,tagBaseCharDistanceSq,BaseCharDistanceSqSort>
; Function compile flags: /Ogsp
; File c:\program files (x86)\microsoft visual studio 10.0\vc\include\algorithm
;	COMDAT ??$_Push_heap@PAUtagBaseCharDistanceSq@@HU1@VBaseCharDistanceSqSort@@@std@@YAXPAUtagBaseCharDistanceSq@@HH$$QAU1@VBaseCharDistanceSqSort@@@Z
_TEXT	SEGMENT
__First$ = 8						; size = 4
__Hole$ = 12						; size = 4
__Top$ = 16						; size = 4
__Val$ = 20						; size = 4
__Pred$ = 24						; size = 1
??$_Push_heap@PAUtagBaseCharDistanceSq@@HU1@VBaseCharDistanceSqSort@@@std@@YAXPAUtagBaseCharDistanceSq@@HH$$QAU1@VBaseCharDistanceSqSort@@@Z PROC ; std::_Push_heap<tagBaseCharDistanceSq *,int,tagBaseCharDistanceSq,BaseCharDistanceSqSort>, COMDAT

; 2455 : 	{	// percolate _Hole to _Top or where _Val belongs, using operator<

  00000	55		 push	 ebp
  00001	8b ec		 mov	 ebp, esp

; 2456 : 	for (_Diff _Idx = (_Hole - 1) / 2;

  00003	8b 4d 0c	 mov	 ecx, DWORD PTR __Hole$[ebp]
  00006	8d 41 ff	 lea	 eax, DWORD PTR [ecx-1]
  00009	53		 push	 ebx

; 2457 : 		_Top < _Hole && _DEBUG_LT_PRED(_Pred, *(_First + _Idx), _Val);
; 2458 : 		_Idx = (_Hole - 1) / 2)

  0000a	8b 5d 14	 mov	 ebx, DWORD PTR __Val$[ebp]
  0000d	99		 cdq
  0000e	56		 push	 esi
  0000f	2b c2		 sub	 eax, edx
  00011	8b f0		 mov	 esi, eax
  00013	57		 push	 edi
  00014	8b 7d 08	 mov	 edi, DWORD PTR __First$[ebp]
  00017	d1 fe		 sar	 esi, 1
  00019	eb 34		 jmp	 SHORT $LN16@Push_heap
$LL3@Push_heap:
  0001b	f3 0f 10 4b 10	 movss	 xmm1, DWORD PTR [ebx+16]
  00020	8b c6		 mov	 eax, esi
  00022	c1 e0 05	 shl	 eax, 5
  00025	03 c7		 add	 eax, edi
  00027	f3 0f 10 40 10	 movss	 xmm0, DWORD PTR [eax+16]
  0002c	0f 5a c0	 cvtps2pd xmm0, xmm0
  0002f	0f 5a c9	 cvtps2pd xmm1, xmm1
  00032	66 0f 2f c1	 comisd	 xmm0, xmm1
  00036	76 1c		 jbe	 SHORT $LN6@Push_heap

; 2459 : 		{	// move _Hole up to parent
; 2460 : 		*(_First + _Hole) = _Move(*(_First + _Idx));

  00038	c1 e1 05	 shl	 ecx, 5
  0003b	50		 push	 eax
  0003c	03 cf		 add	 ecx, edi
  0003e	e8 00 00 00 00	 call	 ??4tagBaseCharDistanceSq@@QAEAAU0@ABU0@@Z
  00043	8d 46 ff	 lea	 eax, DWORD PTR [esi-1]
  00046	99		 cdq
  00047	2b c2		 sub	 eax, edx
  00049	d1 f8		 sar	 eax, 1

; 2461 : 		_Hole = _Idx;

  0004b	8b ce		 mov	 ecx, esi
  0004d	8b f0		 mov	 esi, eax
$LN16@Push_heap:

; 2457 : 		_Top < _Hole && _DEBUG_LT_PRED(_Pred, *(_First + _Idx), _Val);
; 2458 : 		_Idx = (_Hole - 1) / 2)

  0004f	39 4d 10	 cmp	 DWORD PTR __Top$[ebp], ecx
  00052	7c c7		 jl	 SHORT $LL3@Push_heap
$LN6@Push_heap:

; 2462 : 		}
; 2463 : 
; 2464 : 	*(_First + _Hole) = _Move(_Val);	// drop _Val into final hole

  00054	c1 e1 05	 shl	 ecx, 5
  00057	53		 push	 ebx
  00058	03 cf		 add	 ecx, edi
  0005a	e8 00 00 00 00	 call	 ??4tagBaseCharDistanceSq@@QAEAAU0@ABU0@@Z
  0005f	5f		 pop	 edi
  00060	5e		 pop	 esi
  00061	5b		 pop	 ebx

; 2465 : 	}

  00062	5d		 pop	 ebp
  00063	c3		 ret	 0
??$_Push_heap@PAUtagBaseCharDistanceSq@@HU1@VBaseCharDistanceSqSort@@@std@@YAXPAUtagBaseCharDistanceSq@@HH$$QAU1@VBaseCharDistanceSqSort@@@Z ENDP ; std::_Push_heap<tagBaseCharDistanceSq *,int,tagBaseCharDistanceSq,BaseCharDistanceSqSort>
_TEXT	ENDS
PUBLIC	??$_Move_backward@PAUtagBaseCharDistanceSq@@PAU1@@std@@YAPAUtagBaseCharDistanceSq@@PAU1@00U_Nonscalar_ptr_iterator_tag@0@@Z ; std::_Move_backward<tagBaseCharDistanceSq *,tagBaseCharDistanceSq *>
; Function compile flags: /Ogsp
; File c:\program files (x86)\microsoft visual studio 10.0\vc\include\xutility
;	COMDAT ??$_Move_backward@PAUtagBaseCharDistanceSq@@PAU1@@std@@YAPAUtagBaseCharDistanceSq@@PAU1@00U_Nonscalar_ptr_iterator_tag@0@@Z
_TEXT	SEGMENT
__First$ = 8						; size = 4
__Last$ = 12						; size = 4
__Dest$ = 16						; size = 4
___formal$ = 20						; size = 1
??$_Move_backward@PAUtagBaseCharDistanceSq@@PAU1@@std@@YAPAUtagBaseCharDistanceSq@@PAU1@00U_Nonscalar_ptr_iterator_tag@0@@Z PROC ; std::_Move_backward<tagBaseCharDistanceSq *,tagBaseCharDistanceSq *>, COMDAT

; 2617 : 	{	// move [_First, _Last) backwards to [..., _Dest), arbitrary iterators

  00000	55		 push	 ebp
  00001	8b ec		 mov	 ebp, esp
  00003	56		 push	 esi

; 2618 : 	while (_First != _Last)

  00004	8b 75 0c	 mov	 esi, DWORD PTR __Last$[ebp]
  00007	39 75 08	 cmp	 DWORD PTR __First$[ebp], esi
  0000a	74 15		 je	 SHORT $LN9@Move_backw
$LL2@Move_backw:

; 2619 : 		*--_Dest = _STD move(*--_Last);

  0000c	83 6d 10 20	 sub	 DWORD PTR __Dest$[ebp], 32 ; 00000020H
  00010	8b 4d 10	 mov	 ecx, DWORD PTR __Dest$[ebp]
  00013	83 ee 20	 sub	 esi, 32			; 00000020H
  00016	56		 push	 esi
  00017	e8 00 00 00 00	 call	 ??4tagBaseCharDistanceSq@@QAEAAU0@ABU0@@Z
  0001c	3b 75 08	 cmp	 esi, DWORD PTR __First$[ebp]
  0001f	75 eb		 jne	 SHORT $LL2@Move_backw
$LN9@Move_backw:

; 2620 : 	return (_Dest);

  00021	8b 45 10	 mov	 eax, DWORD PTR __Dest$[ebp]
  00024	5e		 pop	 esi

; 2621 : 	}

  00025	5d		 pop	 ebp
  00026	c3		 ret	 0
??$_Move_backward@PAUtagBaseCharDistanceSq@@PAU1@@std@@YAPAUtagBaseCharDistanceSq@@PAU1@00U_Nonscalar_ptr_iterator_tag@0@@Z ENDP ; std::_Move_backward<tagBaseCharDistanceSq *,tagBaseCharDistanceSq *>
_TEXT	ENDS
PUBLIC	??0?$CEncrypt@M@@QAE@XZ				; CEncrypt<float>::CEncrypt<float>
EXTRN	??0ccddaabb@@QAE@XZ:PROC			; ccddaabb::ccddaabb
;	COMDAT xdata$x
; File d:\lost saga for developer\youtube\tutorial\source\src\lsclient\encryptvalue.h
xdata$x	SEGMENT
__unwindtable$??0?$CEncrypt@M@@QAE@XZ DD 0ffffffffH
	DD	FLAT:__unwindfunclet$??0?$CEncrypt@M@@QAE@XZ$0
__ehfuncinfo$??0?$CEncrypt@M@@QAE@XZ DD 019930522H
	DD	01H
	DD	FLAT:__unwindtable$??0?$CEncrypt@M@@QAE@XZ
	DD	2 DUP(00H)
	DD	2 DUP(00H)
	DD	00H
	DD	01H
; Function compile flags: /Ogsp
xdata$x	ENDS
;	COMDAT ??0?$CEncrypt@M@@QAE@XZ
_TEXT	SEGMENT
_this$ = -16						; size = 4
__$EHRec$ = -12						; size = 12
??0?$CEncrypt@M@@QAE@XZ PROC				; CEncrypt<float>::CEncrypt<float>, COMDAT
; _this$ = ecx

; 109  : 	CEncrypt()

  00000	6a 04		 push	 4
  00002	b8 00 00 00 00	 mov	 eax, __ehhandler$??0?$CEncrypt@M@@QAE@XZ
  00007	e8 00 00 00 00	 call	 __EH_prolog3
  0000c	8b f1		 mov	 esi, ecx
  0000e	89 75 f0	 mov	 DWORD PTR _this$[ebp], esi
  00011	8d 4e 0c	 lea	 ecx, DWORD PTR [esi+12]
  00014	c7 06 00 00 00
	00		 mov	 DWORD PTR [esi], OFFSET ??_7?$CEncrypt@M@@6B@
  0001a	e8 00 00 00 00	 call	 ??0ccddaabb@@QAE@XZ	; ccddaabb::ccddaabb
  0001f	83 65 fc 00	 and	 DWORD PTR __$EHRec$[ebp+8], 0

; 110  : 	{
; 111  : 		Init();

  00023	8b ce		 mov	 ecx, esi
  00025	e8 00 00 00 00	 call	 ?Init@?$CEncrypt@M@@AAEXXZ ; CEncrypt<float>::Init

; 112  : 	}

  0002a	8b c6		 mov	 eax, esi
  0002c	e8 00 00 00 00	 call	 __EH_epilog3
  00031	c3		 ret	 0
_TEXT	ENDS
;	COMDAT text$x
text$x	SEGMENT
__unwindfunclet$??0?$CEncrypt@M@@QAE@XZ$0:
  00000	8b 4d f0	 mov	 ecx, DWORD PTR _this$[ebp]
  00003	83 c1 0c	 add	 ecx, 12			; 0000000cH
  00006	e9 00 00 00 00	 jmp	 ??1ccddaabb@@UAE@XZ	; ccddaabb::~ccddaabb
__ehhandler$??0?$CEncrypt@M@@QAE@XZ:
  0000b	8b 54 24 08	 mov	 edx, DWORD PTR [esp+8]
  0000f	8d 42 0c	 lea	 eax, DWORD PTR [edx+12]
  00012	8b 4a ec	 mov	 ecx, DWORD PTR [edx-20]
  00015	33 c8		 xor	 ecx, eax
  00017	e8 00 00 00 00	 call	 @__security_check_cookie@4
  0001c	b8 00 00 00 00	 mov	 eax, OFFSET __ehfuncinfo$??0?$CEncrypt@M@@QAE@XZ
  00021	e9 00 00 00 00	 jmp	 ___CxxFrameHandler3
text$x	ENDS
??0?$CEncrypt@M@@QAE@XZ ENDP				; CEncrypt<float>::CEncrypt<float>
PUBLIC	??B?$CEncrypt@M@@QAEMXZ				; CEncrypt<float>::operator float
; Function compile flags: /Ogsp
;	COMDAT ??B?$CEncrypt@M@@QAEMXZ
_TEXT	SEGMENT
_value$ = -4						; size = 4
??B?$CEncrypt@M@@QAEMXZ PROC				; CEncrypt<float>::operator float, COMDAT
; _this$ = ecx

; 134  : 	{

  00000	55		 push	 ebp
  00001	8b ec		 mov	 ebp, esp
  00003	51		 push	 ecx

; 135  : 		type value;
; 136  : 		DecryptValueToPool(&value);

  00004	8d 45 fc	 lea	 eax, DWORD PTR _value$[ebp]
  00007	50		 push	 eax
  00008	e8 00 00 00 00	 call	 ?DecryptValueToPool@?$CEncrypt@M@@QAEXPAM@Z ; CEncrypt<float>::DecryptValueToPool

; 137  : 
; 138  : #ifdef _NOTUSE
; 139  : 		Debug();
; 140  : #endif
; 141  : 		return value;

  0000d	d9 45 fc	 fld	 DWORD PTR _value$[ebp]

; 142  : 	}

  00010	c9		 leave
  00011	c3		 ret	 0
??B?$CEncrypt@M@@QAEMXZ ENDP				; CEncrypt<float>::operator float
_TEXT	ENDS
PUBLIC	??B?$CEncrypt@M@@QBEMXZ				; CEncrypt<float>::operator float
; Function compile flags: /Ogsp
;	COMDAT ??B?$CEncrypt@M@@QBEMXZ
_TEXT	SEGMENT
_value$ = -4						; size = 4
??B?$CEncrypt@M@@QBEMXZ PROC				; CEncrypt<float>::operator float, COMDAT
; _this$ = ecx

; 145  : 	{

  00000	55		 push	 ebp
  00001	8b ec		 mov	 ebp, esp
  00003	51		 push	 ecx

; 146  : 		//UJ 130829, const    --start
; 147  : 		type value;
; 148  : 		CEncrypt<type>* pThis = const_cast<CEncrypt<type>*>(this);
; 149  : 		pThis->DecryptValueToPool(&value);

  00004	8d 45 fc	 lea	 eax, DWORD PTR _value$[ebp]
  00007	50		 push	 eax
  00008	e8 00 00 00 00	 call	 ?DecryptValueToPool@?$CEncrypt@M@@QAEXPAM@Z ; CEncrypt<float>::DecryptValueToPool

; 150  : 		//// const DecryptValueToPool     .
; 151  :  		//type value;
; 152  : 		//char szTempMem[MAX_ENCRYPT];
; 153  : 		//m_RC5.DecryptByte( m_MemPool, szTempMem, max(m_ValueSize, DEFAULT_ENCRYPT) );
; 154  : 		//memcpy( &value, szTempMem, m_ValueSize );
; 155  : 		//UJ --end
; 156  : 
; 157  : #ifdef _NOTUSE
; 158  : 		Debug();
; 159  : #endif
; 160  : 		return value;

  0000d	d9 45 fc	 fld	 DWORD PTR _value$[ebp]

; 161  : 	}

  00010	c9		 leave
  00011	c3		 ret	 0
??B?$CEncrypt@M@@QBEMXZ ENDP				; CEncrypt<float>::operator float
_TEXT	ENDS
PUBLIC	??4?$CEncrypt@M@@QAEMM@Z			; CEncrypt<float>::operator=
; Function compile flags: /Ogsp
;	COMDAT ??4?$CEncrypt@M@@QAEMM@Z
_TEXT	SEGMENT
_value$ = 8						; size = 4
_inValue$ = 8						; size = 4
??4?$CEncrypt@M@@QAEMM@Z PROC				; CEncrypt<float>::operator=, COMDAT
; _this$ = ecx

; 1654 : 	{	

  00000	55		 push	 ebp
  00001	8b ec		 mov	 ebp, esp

; 1655 : 		type value = inValue;

  00003	d9 45 08	 fld	 DWORD PTR _inValue$[ebp]

; 1656 : 		EncryptValueToPool((char*)&value);

  00006	8d 45 08	 lea	 eax, DWORD PTR _value$[ebp]
  00009	50		 push	 eax
  0000a	d9 5d 08	 fstp	 DWORD PTR _value$[ebp]
  0000d	e8 00 00 00 00	 call	 ?EncryptValueToPool@?$CEncrypt@M@@AAEXPBD@Z ; CEncrypt<float>::EncryptValueToPool

; 1657 : #ifdef _NOTUSE
; 1658 : 		m_value = inValue;
; 1659 : 		Debug();
; 1660 : #endif
; 1661 : 		return value;

  00012	d9 45 08	 fld	 DWORD PTR _value$[ebp]

; 1662 : 	}

  00015	5d		 pop	 ebp
  00016	c2 04 00	 ret	 4
??4?$CEncrypt@M@@QAEMM@Z ENDP				; CEncrypt<float>::operator=
_TEXT	ENDS
PUBLIC	??0?$CEncrypt@K@@QAE@XZ				; CEncrypt<unsigned long>::CEncrypt<unsigned long>
;	COMDAT xdata$x
xdata$x	SEGMENT
__unwindtable$??0?$CEncrypt@K@@QAE@XZ DD 0ffffffffH
	DD	FLAT:__unwindfunclet$??0?$CEncrypt@K@@QAE@XZ$0
__ehfuncinfo$??0?$CEncrypt@K@@QAE@XZ DD 019930522H
	DD	01H
	DD	FLAT:__unwindtable$??0?$CEncrypt@K@@QAE@XZ
	DD	2 DUP(00H)
	DD	2 DUP(00H)
	DD	00H
	DD	01H
; Function compile flags: /Ogsp
xdata$x	ENDS
;	COMDAT ??0?$CEncrypt@K@@QAE@XZ
_TEXT	SEGMENT
_this$ = -16						; size = 4
__$EHRec$ = -12						; size = 12
??0?$CEncrypt@K@@QAE@XZ PROC				; CEncrypt<unsigned long>::CEncrypt<unsigned long>, COMDAT
; _this$ = ecx

; 109  : 	CEncrypt()

  00000	6a 04		 push	 4
  00002	b8 00 00 00 00	 mov	 eax, __ehhandler$??0?$CEncrypt@K@@QAE@XZ
  00007	e8 00 00 00 00	 call	 __EH_prolog3
  0000c	8b f1		 mov	 esi, ecx
  0000e	89 75 f0	 mov	 DWORD PTR _this$[ebp], esi
  00011	8d 4e 0c	 lea	 ecx, DWORD PTR [esi+12]
  00014	c7 06 00 00 00
	00		 mov	 DWORD PTR [esi], OFFSET ??_7?$CEncrypt@K@@6B@
  0001a	e8 00 00 00 00	 call	 ??0ccddaabb@@QAE@XZ	; ccddaabb::ccddaabb
  0001f	83 65 fc 00	 and	 DWORD PTR __$EHRec$[ebp+8], 0

; 110  : 	{
; 111  : 		Init();

  00023	8b ce		 mov	 ecx, esi
  00025	e8 00 00 00 00	 call	 ?Init@?$CEncrypt@K@@AAEXXZ ; CEncrypt<unsigned long>::Init

; 112  : 	}

  0002a	8b c6		 mov	 eax, esi
  0002c	e8 00 00 00 00	 call	 __EH_epilog3
  00031	c3		 ret	 0
_TEXT	ENDS
;	COMDAT text$x
text$x	SEGMENT
__unwindfunclet$??0?$CEncrypt@K@@QAE@XZ$0:
  00000	8b 4d f0	 mov	 ecx, DWORD PTR _this$[ebp]
  00003	83 c1 0c	 add	 ecx, 12			; 0000000cH
  00006	e9 00 00 00 00	 jmp	 ??1ccddaabb@@UAE@XZ	; ccddaabb::~ccddaabb
__ehhandler$??0?$CEncrypt@K@@QAE@XZ:
  0000b	8b 54 24 08	 mov	 edx, DWORD PTR [esp+8]
  0000f	8d 42 0c	 lea	 eax, DWORD PTR [edx+12]
  00012	8b 4a ec	 mov	 ecx, DWORD PTR [edx-20]
  00015	33 c8		 xor	 ecx, eax
  00017	e8 00 00 00 00	 call	 @__security_check_cookie@4
  0001c	b8 00 00 00 00	 mov	 eax, OFFSET __ehfuncinfo$??0?$CEncrypt@K@@QAE@XZ
  00021	e9 00 00 00 00	 jmp	 ___CxxFrameHandler3
text$x	ENDS
??0?$CEncrypt@K@@QAE@XZ ENDP				; CEncrypt<unsigned long>::CEncrypt<unsigned long>
PUBLIC	??B?$CEncrypt@K@@QAEKXZ				; CEncrypt<unsigned long>::operator unsigned long
; Function compile flags: /Ogsp
;	COMDAT ??B?$CEncrypt@K@@QAEKXZ
_TEXT	SEGMENT
_value$ = -4						; size = 4
??B?$CEncrypt@K@@QAEKXZ PROC				; CEncrypt<unsigned long>::operator unsigned long, COMDAT
; _this$ = ecx

; 134  : 	{

  00000	55		 push	 ebp
  00001	8b ec		 mov	 ebp, esp
  00003	51		 push	 ecx

; 135  : 		type value;
; 136  : 		DecryptValueToPool(&value);

  00004	8d 45 fc	 lea	 eax, DWORD PTR _value$[ebp]
  00007	50		 push	 eax
  00008	e8 00 00 00 00	 call	 ?DecryptValueToPool@?$CEncrypt@K@@QAEXPAK@Z ; CEncrypt<unsigned long>::DecryptValueToPool

; 137  : 
; 138  : #ifdef _NOTUSE
; 139  : 		Debug();
; 140  : #endif
; 141  : 		return value;

  0000d	8b 45 fc	 mov	 eax, DWORD PTR _value$[ebp]

; 142  : 	}

  00010	c9		 leave
  00011	c3		 ret	 0
??B?$CEncrypt@K@@QAEKXZ ENDP				; CEncrypt<unsigned long>::operator unsigned long
_TEXT	ENDS
PUBLIC	??B?$CEncrypt@K@@QBEKXZ				; CEncrypt<unsigned long>::operator unsigned long
; Function compile flags: /Ogsp
;	COMDAT ??B?$CEncrypt@K@@QBEKXZ
_TEXT	SEGMENT
_value$ = -4						; size = 4
??B?$CEncrypt@K@@QBEKXZ PROC				; CEncrypt<unsigned long>::operator unsigned long, COMDAT
; _this$ = ecx

; 145  : 	{

  00000	55		 push	 ebp
  00001	8b ec		 mov	 ebp, esp
  00003	51		 push	 ecx

; 146  : 		//UJ 130829, const    --start
; 147  : 		type value;
; 148  : 		CEncrypt<type>* pThis = const_cast<CEncrypt<type>*>(this);
; 149  : 		pThis->DecryptValueToPool(&value);

  00004	8d 45 fc	 lea	 eax, DWORD PTR _value$[ebp]
  00007	50		 push	 eax
  00008	e8 00 00 00 00	 call	 ?DecryptValueToPool@?$CEncrypt@K@@QAEXPAK@Z ; CEncrypt<unsigned long>::DecryptValueToPool

; 150  : 		//// const DecryptValueToPool     .
; 151  :  		//type value;
; 152  : 		//char szTempMem[MAX_ENCRYPT];
; 153  : 		//m_RC5.DecryptByte( m_MemPool, szTempMem, max(m_ValueSize, DEFAULT_ENCRYPT) );
; 154  : 		//memcpy( &value, szTempMem, m_ValueSize );
; 155  : 		//UJ --end
; 156  : 
; 157  : #ifdef _NOTUSE
; 158  : 		Debug();
; 159  : #endif
; 160  : 		return value;

  0000d	8b 45 fc	 mov	 eax, DWORD PTR _value$[ebp]

; 161  : 	}

  00010	c9		 leave
  00011	c3		 ret	 0
??B?$CEncrypt@K@@QBEKXZ ENDP				; CEncrypt<unsigned long>::operator unsigned long
_TEXT	ENDS
PUBLIC	??4?$CEncrypt@K@@QAEKH@Z			; CEncrypt<unsigned long>::operator=
; Function compile flags: /Ogsp
;	COMDAT ??4?$CEncrypt@K@@QAEKH@Z
_TEXT	SEGMENT
_value$ = 8						; size = 4
_inValue$ = 8						; size = 4
??4?$CEncrypt@K@@QAEKH@Z PROC				; CEncrypt<unsigned long>::operator=, COMDAT
; _this$ = ecx

; 843  : 	{

  00000	55		 push	 ebp
  00001	8b ec		 mov	 ebp, esp

; 844  : 		type value = inValue;

  00003	8b 45 08	 mov	 eax, DWORD PTR _inValue$[ebp]
  00006	89 45 08	 mov	 DWORD PTR _value$[ebp], eax

; 845  : 		EncryptValueToPool((char*)&value);

  00009	8d 45 08	 lea	 eax, DWORD PTR _value$[ebp]
  0000c	50		 push	 eax
  0000d	e8 00 00 00 00	 call	 ?EncryptValueToPool@?$CEncrypt@K@@AAEXPBD@Z ; CEncrypt<unsigned long>::EncryptValueToPool

; 846  : #ifdef _NOTUSE
; 847  : 		m_value = inValue;
; 848  : 		Debug();
; 849  : #endif
; 850  : 		return value;

  00012	8b 45 08	 mov	 eax, DWORD PTR _value$[ebp]

; 851  : 	}

  00015	5d		 pop	 ebp
  00016	c2 04 00	 ret	 4
??4?$CEncrypt@K@@QAEKH@Z ENDP				; CEncrypt<unsigned long>::operator=
_TEXT	ENDS
PUBLIC	??4?$CEncrypt@K@@QAEKK@Z			; CEncrypt<unsigned long>::operator=
; Function compile flags: /Ogsp
;	COMDAT ??4?$CEncrypt@K@@QAEKK@Z
_TEXT	SEGMENT
_value$ = 8						; size = 4
_inValue$ = 8						; size = 4
??4?$CEncrypt@K@@QAEKK@Z PROC				; CEncrypt<unsigned long>::operator=, COMDAT
; _this$ = ecx

; 1262 : 	{

  00000	55		 push	 ebp
  00001	8b ec		 mov	 ebp, esp

; 1263 : 		
; 1264 : 		type value = inValue;

  00003	8b 45 08	 mov	 eax, DWORD PTR _inValue$[ebp]
  00006	89 45 08	 mov	 DWORD PTR _value$[ebp], eax

; 1265 : 		EncryptValueToPool((char*)&value);

  00009	8d 45 08	 lea	 eax, DWORD PTR _value$[ebp]
  0000c	50		 push	 eax
  0000d	e8 00 00 00 00	 call	 ?EncryptValueToPool@?$CEncrypt@K@@AAEXPBD@Z ; CEncrypt<unsigned long>::EncryptValueToPool

; 1266 : #ifdef _NOTUSE
; 1267 : 		m_value = inValue;
; 1268 : 		Debug();
; 1269 : #endif
; 1270 : 		return value;

  00012	8b 45 08	 mov	 eax, DWORD PTR _value$[ebp]

; 1271 : 	}

  00015	5d		 pop	 ebp
  00016	c2 04 00	 ret	 4
??4?$CEncrypt@K@@QAEKK@Z ENDP				; CEncrypt<unsigned long>::operator=
_TEXT	ENDS
PUBLIC	??B?$CEncrypt@_N@@QAE_NXZ			; CEncrypt<bool>::operator bool
; Function compile flags: /Ogsp
;	COMDAT ??B?$CEncrypt@_N@@QAE_NXZ
_TEXT	SEGMENT
_value$ = -1						; size = 1
??B?$CEncrypt@_N@@QAE_NXZ PROC				; CEncrypt<bool>::operator bool, COMDAT
; _this$ = ecx

; 134  : 	{

  00000	55		 push	 ebp
  00001	8b ec		 mov	 ebp, esp
  00003	51		 push	 ecx

; 135  : 		type value;
; 136  : 		DecryptValueToPool(&value);

  00004	8d 45 ff	 lea	 eax, DWORD PTR _value$[ebp]
  00007	50		 push	 eax
  00008	e8 00 00 00 00	 call	 ?DecryptValueToPool@?$CEncrypt@_N@@QAEXPA_N@Z ; CEncrypt<bool>::DecryptValueToPool

; 137  : 
; 138  : #ifdef _NOTUSE
; 139  : 		Debug();
; 140  : #endif
; 141  : 		return value;

  0000d	8a 45 ff	 mov	 al, BYTE PTR _value$[ebp]

; 142  : 	}

  00010	c9		 leave
  00011	c3		 ret	 0
??B?$CEncrypt@_N@@QAE_NXZ ENDP				; CEncrypt<bool>::operator bool
_TEXT	ENDS
PUBLIC	??B?$CEncrypt@_N@@QBE_NXZ			; CEncrypt<bool>::operator bool
; Function compile flags: /Ogsp
;	COMDAT ??B?$CEncrypt@_N@@QBE_NXZ
_TEXT	SEGMENT
_value$ = -1						; size = 1
??B?$CEncrypt@_N@@QBE_NXZ PROC				; CEncrypt<bool>::operator bool, COMDAT
; _this$ = ecx

; 145  : 	{

  00000	55		 push	 ebp
  00001	8b ec		 mov	 ebp, esp
  00003	51		 push	 ecx

; 146  : 		//UJ 130829, const    --start
; 147  : 		type value;
; 148  : 		CEncrypt<type>* pThis = const_cast<CEncrypt<type>*>(this);
; 149  : 		pThis->DecryptValueToPool(&value);

  00004	8d 45 ff	 lea	 eax, DWORD PTR _value$[ebp]
  00007	50		 push	 eax
  00008	e8 00 00 00 00	 call	 ?DecryptValueToPool@?$CEncrypt@_N@@QAEXPA_N@Z ; CEncrypt<bool>::DecryptValueToPool

; 150  : 		//// const DecryptValueToPool     .
; 151  :  		//type value;
; 152  : 		//char szTempMem[MAX_ENCRYPT];
; 153  : 		//m_RC5.DecryptByte( m_MemPool, szTempMem, max(m_ValueSize, DEFAULT_ENCRYPT) );
; 154  : 		//memcpy( &value, szTempMem, m_ValueSize );
; 155  : 		//UJ --end
; 156  : 
; 157  : #ifdef _NOTUSE
; 158  : 		Debug();
; 159  : #endif
; 160  : 		return value;

  0000d	8a 45 ff	 mov	 al, BYTE PTR _value$[ebp]

; 161  : 	}

  00010	c9		 leave
  00011	c3		 ret	 0
??B?$CEncrypt@_N@@QBE_NXZ ENDP				; CEncrypt<bool>::operator bool
_TEXT	ENDS
PUBLIC	??0?$CEncrypt@H@@QAE@XZ				; CEncrypt<int>::CEncrypt<int>
;	COMDAT xdata$x
xdata$x	SEGMENT
__unwindtable$??0?$CEncrypt@H@@QAE@XZ DD 0ffffffffH
	DD	FLAT:__unwindfunclet$??0?$CEncrypt@H@@QAE@XZ$0
__ehfuncinfo$??0?$CEncrypt@H@@QAE@XZ DD 019930522H
	DD	01H
	DD	FLAT:__unwindtable$??0?$CEncrypt@H@@QAE@XZ
	DD	2 DUP(00H)
	DD	2 DUP(00H)
	DD	00H
	DD	01H
; Function compile flags: /Ogsp
xdata$x	ENDS
;	COMDAT ??0?$CEncrypt@H@@QAE@XZ
_TEXT	SEGMENT
_this$ = -16						; size = 4
__$EHRec$ = -12						; size = 12
??0?$CEncrypt@H@@QAE@XZ PROC				; CEncrypt<int>::CEncrypt<int>, COMDAT
; _this$ = ecx

; 109  : 	CEncrypt()

  00000	6a 04		 push	 4
  00002	b8 00 00 00 00	 mov	 eax, __ehhandler$??0?$CEncrypt@H@@QAE@XZ
  00007	e8 00 00 00 00	 call	 __EH_prolog3
  0000c	8b f1		 mov	 esi, ecx
  0000e	89 75 f0	 mov	 DWORD PTR _this$[ebp], esi
  00011	8d 4e 0c	 lea	 ecx, DWORD PTR [esi+12]
  00014	c7 06 00 00 00
	00		 mov	 DWORD PTR [esi], OFFSET ??_7?$CEncrypt@H@@6B@
  0001a	e8 00 00 00 00	 call	 ??0ccddaabb@@QAE@XZ	; ccddaabb::ccddaabb
  0001f	83 65 fc 00	 and	 DWORD PTR __$EHRec$[ebp+8], 0

; 110  : 	{
; 111  : 		Init();

  00023	8b ce		 mov	 ecx, esi
  00025	e8 00 00 00 00	 call	 ?Init@?$CEncrypt@H@@AAEXXZ ; CEncrypt<int>::Init

; 112  : 	}

  0002a	8b c6		 mov	 eax, esi
  0002c	e8 00 00 00 00	 call	 __EH_epilog3
  00031	c3		 ret	 0
_TEXT	ENDS
;	COMDAT text$x
text$x	SEGMENT
__unwindfunclet$??0?$CEncrypt@H@@QAE@XZ$0:
  00000	8b 4d f0	 mov	 ecx, DWORD PTR _this$[ebp]
  00003	83 c1 0c	 add	 ecx, 12			; 0000000cH
  00006	e9 00 00 00 00	 jmp	 ??1ccddaabb@@UAE@XZ	; ccddaabb::~ccddaabb
__ehhandler$??0?$CEncrypt@H@@QAE@XZ:
  0000b	8b 54 24 08	 mov	 edx, DWORD PTR [esp+8]
  0000f	8d 42 0c	 lea	 eax, DWORD PTR [edx+12]
  00012	8b 4a ec	 mov	 ecx, DWORD PTR [edx-20]
  00015	33 c8		 xor	 ecx, eax
  00017	e8 00 00 00 00	 call	 @__security_check_cookie@4
  0001c	b8 00 00 00 00	 mov	 eax, OFFSET __ehfuncinfo$??0?$CEncrypt@H@@QAE@XZ
  00021	e9 00 00 00 00	 jmp	 ___CxxFrameHandler3
text$x	ENDS
??0?$CEncrypt@H@@QAE@XZ ENDP				; CEncrypt<int>::CEncrypt<int>
PUBLIC	??4?$CEncrypt@H@@QAEHH@Z			; CEncrypt<int>::operator=
; Function compile flags: /Ogsp
;	COMDAT ??4?$CEncrypt@H@@QAEHH@Z
_TEXT	SEGMENT
_value$ = 8						; size = 4
_inValue$ = 8						; size = 4
??4?$CEncrypt@H@@QAEHH@Z PROC				; CEncrypt<int>::operator=, COMDAT
; _this$ = ecx

; 843  : 	{

  00000	55		 push	 ebp
  00001	8b ec		 mov	 ebp, esp

; 844  : 		type value = inValue;

  00003	8b 45 08	 mov	 eax, DWORD PTR _inValue$[ebp]
  00006	89 45 08	 mov	 DWORD PTR _value$[ebp], eax

; 845  : 		EncryptValueToPool((char*)&value);

  00009	8d 45 08	 lea	 eax, DWORD PTR _value$[ebp]
  0000c	50		 push	 eax
  0000d	e8 00 00 00 00	 call	 ?EncryptValueToPool@?$CEncrypt@H@@AAEXPBD@Z ; CEncrypt<int>::EncryptValueToPool

; 846  : #ifdef _NOTUSE
; 847  : 		m_value = inValue;
; 848  : 		Debug();
; 849  : #endif
; 850  : 		return value;

  00012	8b 45 08	 mov	 eax, DWORD PTR _value$[ebp]

; 851  : 	}

  00015	5d		 pop	 ebp
  00016	c2 04 00	 ret	 4
??4?$CEncrypt@H@@QAEHH@Z ENDP				; CEncrypt<int>::operator=
_TEXT	ENDS
PUBLIC	??B?$CEncrypt@W4TeamType@@@@QBE?AW4TeamType@@XZ	; CEncrypt<enum TeamType>::operator enum TeamType
; Function compile flags: /Ogsp
;	COMDAT ??B?$CEncrypt@W4TeamType@@@@QBE?AW4TeamType@@XZ
_TEXT	SEGMENT
_value$ = -4						; size = 4
??B?$CEncrypt@W4TeamType@@@@QBE?AW4TeamType@@XZ PROC	; CEncrypt<enum TeamType>::operator enum TeamType, COMDAT
; _this$ = ecx

; 145  : 	{

  00000	55		 push	 ebp
  00001	8b ec		 mov	 ebp, esp
  00003	51		 push	 ecx

; 146  : 		//UJ 130829, const    --start
; 147  : 		type value;
; 148  : 		CEncrypt<type>* pThis = const_cast<CEncrypt<type>*>(this);
; 149  : 		pThis->DecryptValueToPool(&value);

  00004	8d 45 fc	 lea	 eax, DWORD PTR _value$[ebp]
  00007	50		 push	 eax
  00008	e8 00 00 00 00	 call	 ?DecryptValueToPool@?$CEncrypt@W4TeamType@@@@QAEXPAW4TeamType@@@Z ; CEncrypt<enum TeamType>::DecryptValueToPool

; 150  : 		//// const DecryptValueToPool     .
; 151  :  		//type value;
; 152  : 		//char szTempMem[MAX_ENCRYPT];
; 153  : 		//m_RC5.DecryptByte( m_MemPool, szTempMem, max(m_ValueSize, DEFAULT_ENCRYPT) );
; 154  : 		//memcpy( &value, szTempMem, m_ValueSize );
; 155  : 		//UJ --end
; 156  : 
; 157  : #ifdef _NOTUSE
; 158  : 		Debug();
; 159  : #endif
; 160  : 		return value;

  0000d	8b 45 fc	 mov	 eax, DWORD PTR _value$[ebp]

; 161  : 	}

  00010	c9		 leave
  00011	c3		 ret	 0
??B?$CEncrypt@W4TeamType@@@@QBE?AW4TeamType@@XZ ENDP	; CEncrypt<enum TeamType>::operator enum TeamType
_TEXT	ENDS
PUBLIC	?begin@?$vector@VioHashString@@V?$allocator@VioHashString@@@std@@@std@@QAE?AV?$_Vector_iterator@V?$_Vector_val@VioHashString@@V?$allocator@VioHashString@@@std@@@std@@@2@XZ ; std::vector<ioHashString,std::allocator<ioHashString> >::begin
; Function compile flags: /Ogsp
; File c:\program files (x86)\microsoft visual studio 10.0\vc\include\vector
;	COMDAT ?begin@?$vector@VioHashString@@V?$allocator@VioHashString@@@std@@@std@@QAE?AV?$_Vector_iterator@V?$_Vector_val@VioHashString@@V?$allocator@VioHashString@@@std@@@std@@@2@XZ
_TEXT	SEGMENT
___$ReturnUdt$ = 8					; size = 4
?begin@?$vector@VioHashString@@V?$allocator@VioHashString@@@std@@@std@@QAE?AV?$_Vector_iterator@V?$_Vector_val@VioHashString@@V?$allocator@VioHashString@@@std@@@std@@@2@XZ PROC ; std::vector<ioHashString,std::allocator<ioHashString> >::begin, COMDAT
; _this$ = ecx

; 781  : 		{	// return iterator for beginning of mutable sequence

  00000	55		 push	 ebp
  00001	8b ec		 mov	 ebp, esp

; 782  : 		return (iterator(this->_Myfirst, this));

  00003	8b 09		 mov	 ecx, DWORD PTR [ecx]
  00005	8b 45 08	 mov	 eax, DWORD PTR ___$ReturnUdt$[ebp]
  00008	89 08		 mov	 DWORD PTR [eax], ecx

; 783  : 		}

  0000a	5d		 pop	 ebp
  0000b	c2 04 00	 ret	 4
?begin@?$vector@VioHashString@@V?$allocator@VioHashString@@@std@@@std@@QAE?AV?$_Vector_iterator@V?$_Vector_val@VioHashString@@V?$allocator@VioHashString@@@std@@@std@@@2@XZ ENDP ; std::vector<ioHashString,std::allocator<ioHashString> >::begin
_TEXT	ENDS
PUBLIC	?end@?$vector@VioHashString@@V?$allocator@VioHashString@@@std@@@std@@QAE?AV?$_Vector_iterator@V?$_Vector_val@VioHashString@@V?$allocator@VioHashString@@@std@@@std@@@2@XZ ; std::vector<ioHashString,std::allocator<ioHashString> >::end
; Function compile flags: /Ogsp
;	COMDAT ?end@?$vector@VioHashString@@V?$allocator@VioHashString@@@std@@@std@@QAE?AV?$_Vector_iterator@V?$_Vector_val@VioHashString@@V?$allocator@VioHashString@@@std@@@std@@@2@XZ
_TEXT	SEGMENT
___$ReturnUdt$ = 8					; size = 4
?end@?$vector@VioHashString@@V?$allocator@VioHashString@@@std@@@std@@QAE?AV?$_Vector_iterator@V?$_Vector_val@VioHashString@@V?$allocator@VioHashString@@@std@@@std@@@2@XZ PROC ; std::vector<ioHashString,std::allocator<ioHashString> >::end, COMDAT
; _this$ = ecx

; 791  : 		{	// return iterator for end of mutable sequence

  00000	55		 push	 ebp
  00001	8b ec		 mov	 ebp, esp

; 792  : 		return (iterator(this->_Mylast, this));

  00003	8b 49 04	 mov	 ecx, DWORD PTR [ecx+4]
  00006	8b 45 08	 mov	 eax, DWORD PTR ___$ReturnUdt$[ebp]
  00009	89 08		 mov	 DWORD PTR [eax], ecx

; 793  : 		}

  0000b	5d		 pop	 ebp
  0000c	c2 04 00	 ret	 4
?end@?$vector@VioHashString@@V?$allocator@VioHashString@@@std@@@std@@QAE?AV?$_Vector_iterator@V?$_Vector_val@VioHashString@@V?$allocator@VioHashString@@@std@@@std@@@2@XZ ENDP ; std::vector<ioHashString,std::allocator<ioHashString> >::end
_TEXT	ENDS
PUBLIC	??0?$_Vector_val@VioHashString@@V?$allocator@VioHashString@@@std@@@std@@QAE@V?$allocator@VioHashString@@@1@@Z ; std::_Vector_val<ioHashString,std::allocator<ioHashString> >::_Vector_val<ioHashString,std::allocator<ioHashString> >
; Function compile flags: /Ogsp
;	COMDAT ??0?$_Vector_val@VioHashString@@V?$allocator@VioHashString@@@std@@@std@@QAE@V?$allocator@VioHashString@@@1@@Z
_TEXT	SEGMENT
__Al$ = 8						; size = 1
??0?$_Vector_val@VioHashString@@V?$allocator@VioHashString@@@std@@@std@@QAE@V?$allocator@VioHashString@@@1@@Z PROC ; std::_Vector_val<ioHashString,std::allocator<ioHashString> >::_Vector_val<ioHashString,std::allocator<ioHashString> >, COMDAT
; _this$ = ecx

; 426  : 		{	// construct allocator from _Al

  00000	8b c1		 mov	 eax, ecx

; 427  : 		_Myfirst = 0;

  00002	33 c9		 xor	 ecx, ecx
  00004	89 08		 mov	 DWORD PTR [eax], ecx

; 428  : 		_Mylast = 0;

  00006	89 48 04	 mov	 DWORD PTR [eax+4], ecx

; 429  : 		_Myend = 0;

  00009	89 48 08	 mov	 DWORD PTR [eax+8], ecx

; 430  : 		}

  0000c	c2 04 00	 ret	 4
??0?$_Vector_val@VioHashString@@V?$allocator@VioHashString@@@std@@@std@@QAE@V?$allocator@VioHashString@@@1@@Z ENDP ; std::_Vector_val<ioHashString,std::allocator<ioHashString> >::_Vector_val<ioHashString,std::allocator<ioHashString> >
_TEXT	ENDS
PUBLIC	?_Make_iter@?$vector@VioHashString@@V?$allocator@VioHashString@@@std@@@std@@QBE?AV?$_Vector_iterator@V?$_Vector_val@VioHashString@@V?$allocator@VioHashString@@@std@@@std@@@2@V?$_Vector_const_iterator@V?$_Vector_val@VioHashString@@V?$allocator@VioHashString@@@std@@@std@@@2@@Z ; std::vector<ioHashString,std::allocator<ioHashString> >::_Make_iter
; Function compile flags: /Ogsp
;	COMDAT ?_Make_iter@?$vector@VioHashString@@V?$allocator@VioHashString@@@std@@@std@@QBE?AV?$_Vector_iterator@V?$_Vector_val@VioHashString@@V?$allocator@VioHashString@@@std@@@std@@@2@V?$_Vector_const_iterator@V?$_Vector_val@VioHashString@@V?$allocator@VioHashString@@@std@@@std@@@2@@Z
_TEXT	SEGMENT
___$ReturnUdt$ = 8					; size = 4
__Where$ = 12						; size = 4
?_Make_iter@?$vector@VioHashString@@V?$allocator@VioHashString@@@std@@@std@@QBE?AV?$_Vector_iterator@V?$_Vector_val@VioHashString@@V?$allocator@VioHashString@@@std@@@std@@@2@V?$_Vector_const_iterator@V?$_Vector_val@VioHashString@@V?$allocator@VioHashString@@@std@@@std@@@2@@Z PROC ; std::vector<ioHashString,std::allocator<ioHashString> >::_Make_iter, COMDAT
; _this$ = ecx

; 801  : 		{	// make iterator from const_iterator

  00000	55		 push	 ebp
  00001	8b ec		 mov	 ebp, esp

; 802  : 		return (iterator(_Where._Ptr, this));

  00003	8b 45 08	 mov	 eax, DWORD PTR ___$ReturnUdt$[ebp]
  00006	8b 4d 0c	 mov	 ecx, DWORD PTR __Where$[ebp]
  00009	89 08		 mov	 DWORD PTR [eax], ecx

; 803  : 		}

  0000b	5d		 pop	 ebp
  0000c	c2 08 00	 ret	 8
?_Make_iter@?$vector@VioHashString@@V?$allocator@VioHashString@@@std@@@std@@QBE?AV?$_Vector_iterator@V?$_Vector_val@VioHashString@@V?$allocator@VioHashString@@@std@@@std@@@2@V?$_Vector_const_iterator@V?$_Vector_val@VioHashString@@V?$allocator@VioHashString@@@std@@@std@@@2@@Z ENDP ; std::vector<ioHashString,std::allocator<ioHashString> >::_Make_iter
_TEXT	ENDS
PUBLIC	?max_size@?$vector@VioHashString@@V?$allocator@VioHashString@@@std@@@std@@QBEIXZ ; std::vector<ioHashString,std::allocator<ioHashString> >::max_size
; Function compile flags: /Ogsp
;	COMDAT ?max_size@?$vector@VioHashString@@V?$allocator@VioHashString@@@std@@@std@@QBEIXZ
_TEXT	SEGMENT
?max_size@?$vector@VioHashString@@V?$allocator@VioHashString@@@std@@@std@@QBEIXZ PROC ; std::vector<ioHashString,std::allocator<ioHashString> >::max_size, COMDAT
; _this$ = ecx

; 884  : 		return (this->_Alval.max_size());

  00000	b8 ff ff ff 0f	 mov	 eax, 268435455		; 0fffffffH

; 885  : 		}

  00005	c3		 ret	 0
?max_size@?$vector@VioHashString@@V?$allocator@VioHashString@@@std@@@std@@QBEIXZ ENDP ; std::vector<ioHashString,std::allocator<ioHashString> >::max_size
_TEXT	ENDS
PUBLIC	?allocate@?$allocator@VioHashString@@@std@@QAEPAVioHashString@@I@Z ; std::allocator<ioHashString>::allocate
; Function compile flags: /Ogsp
; File c:\program files (x86)\microsoft visual studio 10.0\vc\include\xmemory
;	COMDAT ?allocate@?$allocator@VioHashString@@@std@@QAEPAVioHashString@@I@Z
_TEXT	SEGMENT
__Count$ = 8						; size = 4
?allocate@?$allocator@VioHashString@@@std@@QAEPAVioHashString@@I@Z PROC ; std::allocator<ioHashString>::allocate, COMDAT
; _this$ = ecx

; 186  : 		{	// allocate array of _Count elements

  00000	55		 push	 ebp
  00001	8b ec		 mov	 ebp, esp

; 187  : 		return (_Allocate(_Count, (pointer)0));

  00003	6a 00		 push	 0
  00005	ff 75 08	 push	 DWORD PTR __Count$[ebp]
  00008	e8 00 00 00 00	 call	 ??$_Allocate@VioHashString@@@std@@YAPAVioHashString@@IPAV1@@Z ; std::_Allocate<ioHashString>
  0000d	59		 pop	 ecx
  0000e	59		 pop	 ecx

; 188  : 		}

  0000f	5d		 pop	 ebp
  00010	c2 04 00	 ret	 4
?allocate@?$allocator@VioHashString@@@std@@QAEPAVioHashString@@I@Z ENDP ; std::allocator<ioHashString>::allocate
_TEXT	ENDS
PUBLIC	??8?$_Vector_const_iterator@V?$_Vector_val@VioHashString@@V?$allocator@VioHashString@@@std@@@std@@@std@@QBE_NABV01@@Z ; std::_Vector_const_iterator<std::_Vector_val<ioHashString,std::allocator<ioHashString> > >::operator==
; Function compile flags: /Ogsp
; File c:\program files (x86)\microsoft visual studio 10.0\vc\include\vector
;	COMDAT ??8?$_Vector_const_iterator@V?$_Vector_val@VioHashString@@V?$allocator@VioHashString@@@std@@@std@@@std@@QBE_NABV01@@Z
_TEXT	SEGMENT
__Right$ = 8						; size = 4
??8?$_Vector_const_iterator@V?$_Vector_val@VioHashString@@V?$allocator@VioHashString@@@std@@@std@@@std@@QBE_NABV01@@Z PROC ; std::_Vector_const_iterator<std::_Vector_val<ioHashString,std::allocator<ioHashString> > >::operator==, COMDAT
; _this$ = ecx

; 201  : 		{	// test for iterator equality

  00000	55		 push	 ebp
  00001	8b ec		 mov	 ebp, esp

; 202  : 		_Compat(_Right);
; 203  : 		return (this->_Ptr == _Right._Ptr);

  00003	8b 01		 mov	 eax, DWORD PTR [ecx]
  00005	8b 4d 08	 mov	 ecx, DWORD PTR __Right$[ebp]
  00008	2b 01		 sub	 eax, DWORD PTR [ecx]
  0000a	f7 d8		 neg	 eax
  0000c	1b c0		 sbb	 eax, eax
  0000e	40		 inc	 eax

; 204  : 		}

  0000f	5d		 pop	 ebp
  00010	c2 04 00	 ret	 4
??8?$_Vector_const_iterator@V?$_Vector_val@VioHashString@@V?$allocator@VioHashString@@@std@@@std@@@std@@QBE_NABV01@@Z ENDP ; std::_Vector_const_iterator<std::_Vector_val<ioHashString,std::allocator<ioHashString> > >::operator==
_TEXT	ENDS
PUBLIC	??$_Move@PAVioHashString@@PAV1@@std@@YAPAVioHashString@@PAV1@00U_Nonscalar_ptr_iterator_tag@0@@Z ; std::_Move<ioHashString *,ioHashString *>
; Function compile flags: /Ogsp
; File c:\program files (x86)\microsoft visual studio 10.0\vc\include\xutility
;	COMDAT ??$_Move@PAVioHashString@@PAV1@@std@@YAPAVioHashString@@PAV1@00U_Nonscalar_ptr_iterator_tag@0@@Z
_TEXT	SEGMENT
__First$ = 8						; size = 4
__Last$ = 12						; size = 4
__Dest$ = 16						; size = 4
___formal$ = 20						; size = 1
??$_Move@PAVioHashString@@PAV1@@std@@YAPAVioHashString@@PAV1@00U_Nonscalar_ptr_iterator_tag@0@@Z PROC ; std::_Move<ioHashString *,ioHashString *>, COMDAT

; 2512 : 	{	// move [_First, _Last) to [_Dest, ...), arbitrary iterators

  00000	55		 push	 ebp
  00001	8b ec		 mov	 ebp, esp
  00003	56		 push	 esi

; 2513 : 	for (; _First != _Last; ++_Dest, ++_First)

  00004	8b 75 08	 mov	 esi, DWORD PTR __First$[ebp]
  00007	eb 11		 jmp	 SHORT $LN11@Move
$LL3@Move:

; 2514 : 		*_Dest = _STD move(*_First);

  00009	8b 4d 10	 mov	 ecx, DWORD PTR __Dest$[ebp]
  0000c	56		 push	 esi
  0000d	ff 15 00 00 00
	00		 call	 DWORD PTR __imp_??4ioHashString@@QAEAAV0@ABV0@@Z
  00013	83 45 10 10	 add	 DWORD PTR __Dest$[ebp], 16 ; 00000010H
  00017	83 c6 10	 add	 esi, 16			; 00000010H
$LN11@Move:

; 2513 : 	for (; _First != _Last; ++_Dest, ++_First)

  0001a	3b 75 0c	 cmp	 esi, DWORD PTR __Last$[ebp]
  0001d	75 ea		 jne	 SHORT $LL3@Move

; 2515 : 	return (_Dest);

  0001f	8b 45 10	 mov	 eax, DWORD PTR __Dest$[ebp]
  00022	5e		 pop	 esi

; 2516 : 	}

  00023	5d		 pop	 ebp
  00024	c3		 ret	 0
??$_Move@PAVioHashString@@PAV1@@std@@YAPAVioHashString@@PAV1@00U_Nonscalar_ptr_iterator_tag@0@@Z ENDP ; std::_Move<ioHashString *,ioHashString *>
_TEXT	ENDS
PUBLIC	??$_Destroy@VioHashString@@@std@@YAXPAVioHashString@@@Z ; std::_Destroy<ioHashString>
; Function compile flags: /Ogsp
; File c:\program files (x86)\microsoft visual studio 10.0\vc\include\xmemory
;	COMDAT ??$_Destroy@VioHashString@@@std@@YAXPAVioHashString@@@Z
_TEXT	SEGMENT
__Ptr$ = 8						; size = 4
??$_Destroy@VioHashString@@@std@@YAXPAVioHashString@@@Z PROC ; std::_Destroy<ioHashString>, COMDAT

; 62   : 	{	// destroy object at _Ptr

  00000	55		 push	 ebp
  00001	8b ec		 mov	 ebp, esp

; 63   : 	_Ptr->~_Ty();

  00003	8b 4d 08	 mov	 ecx, DWORD PTR __Ptr$[ebp]

; 64   : 	}

  00006	5d		 pop	 ebp

; 63   : 	_Ptr->~_Ty();

  00007	ff 25 00 00 00
	00		 jmp	 DWORD PTR __imp_??1ioHashString@@QAE@XZ
??$_Destroy@VioHashString@@@std@@YAXPAVioHashString@@@Z ENDP ; std::_Destroy<ioHashString>
_TEXT	ENDS
PUBLIC	?construct@?$allocator@VioHashString@@@std@@QAEXPAVioHashString@@ABV3@@Z ; std::allocator<ioHashString>::construct
; Function compile flags: /Ogsp
;	COMDAT ?construct@?$allocator@VioHashString@@@std@@QAEXPAVioHashString@@ABV3@@Z
_TEXT	SEGMENT
__Ptr$ = 8						; size = 4
__Val$ = 12						; size = 4
?construct@?$allocator@VioHashString@@@std@@QAEXPAVioHashString@@ABV3@@Z PROC ; std::allocator<ioHashString>::construct, COMDAT
; _this$ = ecx

; 196  : 		{	// construct object at _Ptr with value _Val

  00000	55		 push	 ebp
  00001	8b ec		 mov	 ebp, esp

; 197  : 		_Construct(_Ptr, _Val);

  00003	ff 75 0c	 push	 DWORD PTR __Val$[ebp]
  00006	ff 75 08	 push	 DWORD PTR __Ptr$[ebp]
  00009	e8 00 00 00 00	 call	 ??$_Construct@VioHashString@@ABV1@@std@@YAXPAVioHashString@@ABV1@@Z ; std::_Construct<ioHashString,ioHashString const &>
  0000e	59		 pop	 ecx
  0000f	59		 pop	 ecx

; 198  : 		}

  00010	5d		 pop	 ebp
  00011	c2 08 00	 ret	 8
?construct@?$allocator@VioHashString@@@std@@QAEXPAVioHashString@@ABV3@@Z ENDP ; std::allocator<ioHashString>::construct
_TEXT	ENDS
PUBLIC	?SetGravityAmt@ioBaseChar@@QAEXM@Z		; ioBaseChar::SetGravityAmt
; Function compile flags: /Ogsp
; File d:\lost saga for developer\youtube\tutorial\source\src\lsclient\iobasechar.h
;	COMDAT ?SetGravityAmt@ioBaseChar@@QAEXM@Z
_TEXT	SEGMENT
_value$535476 = 8					; size = 4
_fAmt$ = 8						; size = 4
?SetGravityAmt@ioBaseChar@@QAEXM@Z PROC			; ioBaseChar::SetGravityAmt, COMDAT
; _this$ = ecx

; 2631 : 	inline void SetGravityAmt( float fAmt ) { m_fGravityAmt = fAmt; }

  00000	55		 push	 ebp
  00001	8b ec		 mov	 ebp, esp
  00003	f3 0f 10 45 08	 movss	 xmm0, DWORD PTR _fAmt$[ebp]
  00008	8d 45 08	 lea	 eax, DWORD PTR _value$535476[ebp]
  0000b	50		 push	 eax
  0000c	81 c1 e8 0b 00
	00		 add	 ecx, 3048		; 00000be8H
  00012	f3 0f 11 45 08	 movss	 DWORD PTR _value$535476[ebp], xmm0
  00017	e8 00 00 00 00	 call	 ?EncryptValueToPool@?$CEncrypt@M@@AAEXPBD@Z ; CEncrypt<float>::EncryptValueToPool
  0001c	5d		 pop	 ebp
  0001d	c2 04 00	 ret	 4
?SetGravityAmt@ioBaseChar@@QAEXM@Z ENDP			; ioBaseChar::SetGravityAmt
_TEXT	ENDS
PUBLIC	??_C@_00CNPNBAHC@?$AA@				; `string'
PUBLIC	_rkLoader$GSCopy$
PUBLIC	__$ArrayPad$
PUBLIC	?LoadProperty@ioTargetTeleportSkill@@UAEXAAVioINILoader@@@Z ; ioTargetTeleportSkill::LoadProperty
EXTRN	__imp_??4ioHashString@@QAEAAV0@PBD@Z:PROC
EXTRN	?LoadProperty@ioNormalSkill@@UAEXAAVioINILoader@@@Z:PROC ; ioNormalSkill::LoadProperty
;	COMDAT ??_C@_00CNPNBAHC@?$AA@
; File d:\lost saga for developer\youtube\tutorial\source\src\lsclient\stringprotect.h
CONST	SEGMENT
??_C@_00CNPNBAHC@?$AA@ DB 00H				; `string'
; Function compile flags: /Ogsp
; File d:\lost saga for developer\youtube\tutorial\source\src\lsclient\iotargetteleportskill.cpp
CONST	ENDS
;	COMDAT ?LoadProperty@ioTargetTeleportSkill@@UAEXAAVioINILoader@@@Z
_TEXT	SEGMENT
_rkLoader$GSCopy$ = -300				; size = 4
tv5638 = -296						; size = 4
_i$535758 = -296					; size = 4
_value$536118 = -296					; size = 4
_value$535609 = -296					; size = 4
_szBuf$ = -292						; size = 260
__k$536039 = -32					; size = 23
__k$535893 = -32					; size = 21
__k$536135 = -28					; size = 18
__k$535768 = -28					; size = 16
__k$535639 = -28					; size = 17
__k$535496 = -24					; size = 14
__$ArrayPad$ = -4					; size = 4
_rkLoader$ = 8						; size = 4
?LoadProperty@ioTargetTeleportSkill@@UAEXAAVioINILoader@@@Z PROC ; ioTargetTeleportSkill::LoadProperty, COMDAT
; _this$ = ecx

; 57   : {

  00000	55		 push	 ebp
  00001	8b ec		 mov	 ebp, esp
  00003	81 ec 2c 01 00
	00		 sub	 esp, 300		; 0000012cH
  00009	a1 00 00 00 00	 mov	 eax, DWORD PTR ___security_cookie
  0000e	33 c5		 xor	 eax, ebp
  00010	89 45 fc	 mov	 DWORD PTR __$ArrayPad$[ebp], eax
  00013	53		 push	 ebx
  00014	56		 push	 esi
  00015	57		 push	 edi
  00016	8b 7d 08	 mov	 edi, DWORD PTR _rkLoader$[ebp]

; 58   : 	ioNormalSkill::LoadProperty( rkLoader );

  00019	57		 push	 edi
  0001a	8b f1		 mov	 esi, ecx

; 72   : 
; 73   : 	rkLoader.LoadString_e( "target_map_effect", "", szBuf, MAX_PATH );

  0001c	89 bd d4 fe ff
	ff		 mov	 DWORD PTR _rkLoader$GSCopy$[ebp], edi
  00022	e8 00 00 00 00	 call	 ?LoadProperty@ioNormalSkill@@UAEXAAVioINILoader@@@Z ; ioNormalSkill::LoadProperty
  00027	6a 03		 push	 3
  00029	c7 45 e8 9a 8d
	82 9e		 mov	 DWORD PTR __k$535496[ebp], -1635611238 ; 9e828d9aH
  00030	c7 45 ec b2 88
	9e 98		 mov	 DWORD PTR __k$535496[ebp+4], -1734440782 ; 989e88b2H
  00037	c7 45 f0 8c 98
	82 85		 mov	 DWORD PTR __k$535496[ebp+8], -2055038836 ; 8582988cH
  0003e	8d 45 e8	 lea	 eax, DWORD PTR __k$535496[ebp]
  00041	66 c7 45 f4 83
	00		 mov	 WORD PTR __k$535496[ebp+12], 131 ; 00000083H
  00047	59		 pop	 ecx
$LL106@LoadProper:

; 59   : 
; 60   : 	char szBuf[MAX_PATH];
; 61   : 
; 62   : 	m_dwWaitDuration = (DWORD)rkLoader.LoadInt_e( "wait_duration", 1000 );

  00048	81 30 ed ec eb
	ea		 xor	 DWORD PTR [eax], -353637139 ; eaebecedH
  0004e	83 c0 04	 add	 eax, 4
  00051	49		 dec	 ecx
  00052	75 f4		 jne	 SHORT $LL106@LoadProper
  00054	80 75 f4 ed	 xor	 BYTE PTR __k$535496[ebp+12], -19 ; ffffffedH
  00058	68 e8 03 00 00	 push	 1000			; 000003e8H
  0005d	8d 45 e8	 lea	 eax, DWORD PTR __k$535496[ebp]
  00060	50		 push	 eax
  00061	8b cf		 mov	 ecx, edi
  00063	ff 15 00 00 00
	00		 call	 DWORD PTR __imp_?LoadInt@ioINILoader@@QAEHPBDH@Z
  00069	89 85 d8 fe ff
	ff		 mov	 DWORD PTR _value$535609[ebp], eax
  0006f	8d 85 d8 fe ff
	ff		 lea	 eax, DWORD PTR _value$535609[ebp]
  00075	50		 push	 eax
  00076	8d 8e 8c 0f 00
	00		 lea	 ecx, DWORD PTR [esi+3980]
  0007c	e8 00 00 00 00	 call	 ?EncryptValueToPool@?$CEncrypt@K@@AAEXPBD@Z ; CEncrypt<unsigned long>::EncryptValueToPool
  00081	6a 04		 push	 4

; 63   : 
; 64   : 	rkLoader.LoadString_e( "skill_end_motion", "", szBuf, MAX_PATH );

  00083	c7 45 e4 9e 87
	82 86		 mov	 DWORD PTR __k$535639[ebp], -2038265954 ; 8682879eH
  0008a	c7 45 e8 81 b3
	8e 84		 mov	 DWORD PTR __k$535639[ebp+4], -2071022719 ; 848eb381H
  00091	c7 45 ec 89 b3
	86 85		 mov	 DWORD PTR __k$535639[ebp+8], -2054769783 ; 8586b389H
  00098	c7 45 f0 99 85
	84 84		 mov	 DWORD PTR __k$535639[ebp+12], -2071689831 ; 84848599H
  0009f	8d 45 e4	 lea	 eax, DWORD PTR __k$535639[ebp]
  000a2	c6 45 f4 00	 mov	 BYTE PTR __k$535639[ebp+16], 0
  000a6	59		 pop	 ecx
$LL214@LoadProper:
  000a7	81 30 ed ec eb
	ea		 xor	 DWORD PTR [eax], -353637139 ; eaebecedH
  000ad	83 c0 04	 add	 eax, 4
  000b0	49		 dec	 ecx
  000b1	75 f4		 jne	 SHORT $LL214@LoadProper
  000b3	68 04 01 00 00	 push	 260			; 00000104H
  000b8	8d 85 dc fe ff
	ff		 lea	 eax, DWORD PTR _szBuf$[ebp]
  000be	50		 push	 eax
  000bf	68 00 00 00 00	 push	 OFFSET ??_C@_00CNPNBAHC@?$AA@
  000c4	8d 45 e4	 lea	 eax, DWORD PTR __k$535639[ebp]
  000c7	8b cf		 mov	 ecx, edi
  000c9	8b 3d 00 00 00
	00		 mov	 edi, DWORD PTR __imp_?LoadStringA@ioINILoader@@QAEXPBD0PADH@Z
  000cf	50		 push	 eax
  000d0	ff d7		 call	 edi

; 65   : 	m_SkillEndMotion = szBuf;

  000d2	8b 1d 00 00 00
	00		 mov	 ebx, DWORD PTR __imp_??4ioHashString@@QAEAAV0@PBD@Z
  000d8	8d 85 dc fe ff
	ff		 lea	 eax, DWORD PTR _szBuf$[ebp]
  000de	50		 push	 eax
  000df	8d 8e c0 0f 00
	00		 lea	 ecx, DWORD PTR [esi+4032]
  000e5	ff d3		 call	 ebx

; 66   : 	m_fEndMotionRate = rkLoader.LoadFloat_e( "end_motion_rate", FLOAT1 );

  000e7	b8 01 00 00 00	 mov	 eax, 1
  000ec	6a 03		 push	 3
  000ee	c7 45 e4 88 82
	8f b5		 mov	 DWORD PTR __k$535768[ebp], -1248886136 ; b58f8288H
  000f5	c7 45 e8 80 83
	9f 83		 mov	 DWORD PTR __k$535768[ebp+4], -2086698112 ; 839f8380H
  000fc	c7 45 ec 82 82
	b4 98		 mov	 DWORD PTR __k$535768[ebp+8], -1733000574 ; 98b48282H
  00103	8d 4d e4	 lea	 ecx, DWORD PTR __k$535768[ebp]
  00106	c7 45 f0 8c 98
	8e 00		 mov	 DWORD PTR __k$535768[ebp+12], 9345164 ; 008e988cH
  0010d	5a		 pop	 edx
$LL322@LoadProper:
  0010e	81 31 ed ec eb
	ea		 xor	 DWORD PTR [ecx], -353637139 ; eaebecedH
  00114	83 c1 04	 add	 ecx, 4
  00117	4a		 dec	 edx
  00118	75 f4		 jne	 SHORT $LL322@LoadProper
  0011a	c7 85 d8 fe ff
	ff 0c 00 00 00	 mov	 DWORD PTR _i$535758[ebp], 12 ; 0000000cH
$LL319@LoadProper:
  00124	8b 8d d8 fe ff
	ff		 mov	 ecx, DWORD PTR _i$535758[ebp]
  0012a	81 e1 03 00 00
	80		 and	 ecx, -2147483645	; 80000003H
  00130	79 05		 jns	 SHORT $LN669@LoadProper
  00132	49		 dec	 ecx
  00133	83 c9 fc	 or	 ecx, -4			; fffffffcH
  00136	41		 inc	 ecx
$LN669@LoadProper:
  00137	b2 ed		 mov	 dl, -19			; ffffffedH
  00139	2a d1		 sub	 dl, cl
  0013b	8b 8d d8 fe ff
	ff		 mov	 ecx, DWORD PTR _i$535758[ebp]
  00141	30 54 0d e4	 xor	 BYTE PTR __k$535768[ebp+ecx], dl
  00145	ff 85 d8 fe ff
	ff		 inc	 DWORD PTR _i$535758[ebp]
  0014b	83 bd d8 fe ff
	ff 0f		 cmp	 DWORD PTR _i$535758[ebp], 15 ; 0000000fH
  00152	7c d0		 jl	 SHORT $LL319@LoadProper
  00154	89 85 d8 fe ff
	ff		 mov	 DWORD PTR tv5638[ebp], eax
  0015a	db 85 d8 fe ff
	ff		 fild	 DWORD PTR tv5638[ebp]
  00160	85 c0		 test	 eax, eax
  00162	79 06		 jns	 SHORT $LN670@LoadProper
  00164	d8 05 00 00 00
	00		 fadd	 DWORD PTR __real@4f800000
$LN670@LoadProper:
  0016a	51		 push	 ecx
  0016b	8b 8d d4 fe ff
	ff		 mov	 ecx, DWORD PTR _rkLoader$GSCopy$[ebp]
  00171	d9 1c 24	 fstp	 DWORD PTR [esp]
  00174	8d 45 e4	 lea	 eax, DWORD PTR __k$535768[ebp]
  00177	50		 push	 eax
  00178	ff 15 00 00 00
	00		 call	 DWORD PTR __imp_?LoadFloat@ioINILoader@@QAEMPBDM@Z
  0017e	d9 9e d0 0f 00
	00		 fstp	 DWORD PTR [esi+4048]
  00184	6a 05		 push	 5

; 67   : 
; 68   : 	rkLoader.LoadString_e( "teleport_camera_buff", "", szBuf, MAX_PATH );

  00186	c7 45 e0 99 89
	87 8f		 mov	 DWORD PTR __k$535893[ebp], -1886942823 ; 8f878999H
  0018d	c7 45 e4 9d 83
	99 9e		 mov	 DWORD PTR __k$535893[ebp+4], -1634106467 ; 9e99839dH
  00194	c7 45 e8 b2 8f
	8a 87		 mov	 DWORD PTR __k$535893[ebp+8], -2020962382 ; 878a8fb2H
  0019b	c7 45 ec 88 9e
	8a b5		 mov	 DWORD PTR __k$535893[ebp+12], -1249206648 ; b58a9e88H
  001a2	c7 45 f0 8f 99
	8d 8c		 mov	 DWORD PTR __k$535893[ebp+16], -1936877169 ; 8c8d998fH
  001a9	8d 45 e0	 lea	 eax, DWORD PTR __k$535893[ebp]
  001ac	c6 45 f4 00	 mov	 BYTE PTR __k$535893[ebp+20], 0
  001b0	59		 pop	 ecx
$LL428@LoadProper:
  001b1	81 30 ed ec eb
	ea		 xor	 DWORD PTR [eax], -353637139 ; eaebecedH
  001b7	83 c0 04	 add	 eax, 4
  001ba	49		 dec	 ecx
  001bb	75 f4		 jne	 SHORT $LL428@LoadProper
  001bd	8b 8d d4 fe ff
	ff		 mov	 ecx, DWORD PTR _rkLoader$GSCopy$[ebp]
  001c3	68 04 01 00 00	 push	 260			; 00000104H
  001c8	8d 85 dc fe ff
	ff		 lea	 eax, DWORD PTR _szBuf$[ebp]
  001ce	50		 push	 eax
  001cf	68 00 00 00 00	 push	 OFFSET ??_C@_00CNPNBAHC@?$AA@
  001d4	8d 45 e0	 lea	 eax, DWORD PTR __k$535893[ebp]
  001d7	50		 push	 eax
  001d8	ff d7		 call	 edi

; 69   : 	m_TeleportCameraBuff = szBuf;

  001da	8d 85 dc fe ff
	ff		 lea	 eax, DWORD PTR _szBuf$[ebp]
  001e0	50		 push	 eax
  001e1	8d 8e 6c 10 00
	00		 lea	 ecx, DWORD PTR [esi+4204]
  001e7	ff d3		 call	 ebx
  001e9	6a 05		 push	 5

; 70   : 
; 71   : 	m_fTargetOffSetHeight = rkLoader.LoadFloat_e( "teleport_offset_height", 0.0f );

  001eb	c7 45 e0 99 89
	87 8f		 mov	 DWORD PTR __k$536039[ebp], -1886942823 ; 8f878999H
  001f2	c7 45 e4 9d 83
	99 9e		 mov	 DWORD PTR __k$536039[ebp+4], -1634106467 ; 9e99839dH
  001f9	c7 45 e8 b2 83
	8d 8c		 mov	 DWORD PTR __k$536039[ebp+8], -1936882766 ; 8c8d83b2H
  00200	c7 45 ec 9e 89
	9f b5		 mov	 DWORD PTR __k$536039[ebp+12], -1247835746 ; b59f899eH
  00207	c7 45 f0 85 89
	82 8d		 mov	 DWORD PTR __k$536039[ebp+16], -1920824955 ; 8d828985H
  0020e	66 c7 45 f4 85
	98		 mov	 WORD PTR __k$536039[ebp+20], 39045 ; 00009885H
  00214	8d 45 e0	 lea	 eax, DWORD PTR __k$536039[ebp]
  00217	c6 45 f6 00	 mov	 BYTE PTR __k$536039[ebp+22], 0
  0021b	59		 pop	 ecx
$LL534@LoadProper:
  0021c	81 30 ed ec eb
	ea		 xor	 DWORD PTR [eax], -353637139 ; eaebecedH
  00222	83 c0 04	 add	 eax, 4
  00225	49		 dec	 ecx
  00226	75 f4		 jne	 SHORT $LL534@LoadProper
  00228	6a 14		 push	 20			; 00000014H
  0022a	58		 pop	 eax
$LL531@LoadProper:
  0022b	8b c8		 mov	 ecx, eax
  0022d	81 e1 03 00 00
	80		 and	 ecx, -2147483645	; 80000003H
  00233	79 05		 jns	 SHORT $LN671@LoadProper
  00235	49		 dec	 ecx
  00236	83 c9 fc	 or	 ecx, -4			; fffffffcH
  00239	41		 inc	 ecx
$LN671@LoadProper:
  0023a	b2 ed		 mov	 dl, -19			; ffffffedH
  0023c	2a d1		 sub	 dl, cl
  0023e	30 54 05 e0	 xor	 BYTE PTR __k$536039[ebp+eax], dl
  00242	40		 inc	 eax
  00243	83 f8 16	 cmp	 eax, 22			; 00000016H
  00246	7c e3		 jl	 SHORT $LL531@LoadProper
  00248	0f 57 c0	 xorps	 xmm0, xmm0
  0024b	51		 push	 ecx
  0024c	8b 8d d4 fe ff
	ff		 mov	 ecx, DWORD PTR _rkLoader$GSCopy$[ebp]
  00252	8d 45 e0	 lea	 eax, DWORD PTR __k$536039[ebp]
  00255	f3 0f 11 04 24	 movss	 DWORD PTR [esp], xmm0
  0025a	50		 push	 eax
  0025b	ff 15 00 00 00
	00		 call	 DWORD PTR __imp_?LoadFloat@ioINILoader@@QAEMPBDM@Z
  00261	d9 9d d8 fe ff
	ff		 fstp	 DWORD PTR _value$536118[ebp]
  00267	8d 85 d8 fe ff
	ff		 lea	 eax, DWORD PTR _value$536118[ebp]
  0026d	50		 push	 eax
  0026e	8d 8e 3c 10 00
	00		 lea	 ecx, DWORD PTR [esi+4156]
  00274	e8 00 00 00 00	 call	 ?EncryptValueToPool@?$CEncrypt@M@@AAEXPBD@Z ; CEncrypt<float>::EncryptValueToPool
  00279	6a 04		 push	 4

; 72   : 
; 73   : 	rkLoader.LoadString_e( "target_map_effect", "", szBuf, MAX_PATH );

  0027b	c7 45 e4 99 8d
	99 8d		 mov	 DWORD PTR __k$536135[ebp], -1919316583 ; 8d998d99H
  00282	c7 45 e8 88 98
	b4 87		 mov	 DWORD PTR __k$536135[ebp+4], -2018207608 ; 87b49888H
  00289	c7 45 ec 8c 9c
	b4 8f		 mov	 DWORD PTR __k$536135[ebp+8], -1883988852 ; 8fb49c8cH
  00290	c7 45 f0 8b 8a
	8e 89		 mov	 DWORD PTR __k$536135[ebp+12], -1987147125 ; 898e8a8bH
  00297	8d 45 e4	 lea	 eax, DWORD PTR __k$536135[ebp]
  0029a	66 c7 45 f4 99
	00		 mov	 WORD PTR __k$536135[ebp+16], 153 ; 00000099H
  002a0	59		 pop	 ecx
$LL642@LoadProper:
  002a1	81 30 ed ec eb
	ea		 xor	 DWORD PTR [eax], -353637139 ; eaebecedH
  002a7	83 c0 04	 add	 eax, 4
  002aa	49		 dec	 ecx
  002ab	75 f4		 jne	 SHORT $LL642@LoadProper
  002ad	8b 8d d4 fe ff
	ff		 mov	 ecx, DWORD PTR _rkLoader$GSCopy$[ebp]
  002b3	80 75 f4 ed	 xor	 BYTE PTR __k$536135[ebp+16], -19 ; ffffffedH
  002b7	68 04 01 00 00	 push	 260			; 00000104H
  002bc	8d 85 dc fe ff
	ff		 lea	 eax, DWORD PTR _szBuf$[ebp]
  002c2	50		 push	 eax
  002c3	68 00 00 00 00	 push	 OFFSET ??_C@_00CNPNBAHC@?$AA@
  002c8	8d 45 e4	 lea	 eax, DWORD PTR __k$536135[ebp]
  002cb	50		 push	 eax
  002cc	ff d7		 call	 edi

; 74   : 	m_TargetMapEffect = szBuf;

  002ce	8d 85 dc fe ff
	ff		 lea	 eax, DWORD PTR _szBuf$[ebp]
  002d4	50		 push	 eax
  002d5	8d 8e 7c 10 00
	00		 lea	 ecx, DWORD PTR [esi+4220]
  002db	ff d3		 call	 ebx

; 75   : }

  002dd	8b 4d fc	 mov	 ecx, DWORD PTR __$ArrayPad$[ebp]
  002e0	5f		 pop	 edi
  002e1	5e		 pop	 esi
  002e2	33 cd		 xor	 ecx, ebp
  002e4	5b		 pop	 ebx
  002e5	e8 00 00 00 00	 call	 @__security_check_cookie@4
  002ea	c9		 leave
  002eb	c2 04 00	 ret	 4
?LoadProperty@ioTargetTeleportSkill@@UAEXAAVioINILoader@@@Z ENDP ; ioTargetTeleportSkill::LoadProperty
_TEXT	ENDS
PUBLIC	?OnSkillEnd@ioTargetTeleportSkill@@UAEXPAVioBaseChar@@@Z ; ioTargetTeleportSkill::OnSkillEnd
EXTRN	?RemoveBuff@ioBaseChar@@QAE_NABVioHashString@@_N@Z:PROC ; ioBaseChar::RemoveBuff
EXTRN	?OnSkillEnd@ioNormalSkill@@UAEXPAVioBaseChar@@@Z:PROC ; ioNormalSkill::OnSkillEnd
; Function compile flags: /Ogsp
;	COMDAT ?OnSkillEnd@ioTargetTeleportSkill@@UAEXPAVioBaseChar@@@Z
_TEXT	SEGMENT
_value$536279 = -4					; size = 4
_pChar$ = 8						; size = 4
?OnSkillEnd@ioTargetTeleportSkill@@UAEXPAVioBaseChar@@@Z PROC ; ioTargetTeleportSkill::OnSkillEnd, COMDAT
; _this$ = ecx

; 137  : {

  00000	55		 push	 ebp
  00001	8b ec		 mov	 ebp, esp
  00003	51		 push	 ecx
  00004	56		 push	 esi

; 138  : 	ioNormalSkill::OnSkillEnd( pChar );

  00005	ff 75 08	 push	 DWORD PTR _pChar$[ebp]
  00008	8b f1		 mov	 esi, ecx
  0000a	e8 00 00 00 00	 call	 ?OnSkillEnd@ioNormalSkill@@UAEXPAVioBaseChar@@@Z ; ioNormalSkill::OnSkillEnd

; 139  : 
; 140  : 	pChar->RemoveBuff( m_TeleportCameraBuff );

  0000f	8b 4d 08	 mov	 ecx, DWORD PTR _pChar$[ebp]
  00012	6a 01		 push	 1
  00014	8d 86 6c 10 00
	00		 lea	 eax, DWORD PTR [esi+4204]
  0001a	50		 push	 eax
  0001b	e8 00 00 00 00	 call	 ?RemoveBuff@ioBaseChar@@QAE_NABVioHashString@@_N@Z ; ioBaseChar::RemoveBuff

; 141  : 
; 142  : 	m_dwMotionEndTime = 0;

  00020	83 a6 d8 02 00
	00 00		 and	 DWORD PTR [esi+728], 0

; 143  : 	m_dwMotionStartTime = 0;

  00027	83 65 fc 00	 and	 DWORD PTR _value$536279[ebp], 0
  0002b	8d 45 fc	 lea	 eax, DWORD PTR _value$536279[ebp]
  0002e	50		 push	 eax
  0002f	8d 8e a8 02 00
	00		 lea	 ecx, DWORD PTR [esi+680]
  00035	e8 00 00 00 00	 call	 ?EncryptValueToPool@?$CEncrypt@K@@AAEXPBD@Z ; CEncrypt<unsigned long>::EncryptValueToPool

; 144  : 	
; 145  : 	m_SkillState = SS_NONE;
; 146  : 
; 147  : 	DestroyTargetMapEffect( pChar );

  0003a	ff 75 08	 push	 DWORD PTR _pChar$[ebp]
  0003d	83 a6 58 0f 00
	00 00		 and	 DWORD PTR [esi+3928], 0
  00044	8b ce		 mov	 ecx, esi
  00046	e8 00 00 00 00	 call	 ?DestroyTargetMapEffect@ioTargetTeleportSkill@@IAEXPAVioBaseChar@@@Z ; ioTargetTeleportSkill::DestroyTargetMapEffect
  0004b	5e		 pop	 esi

; 148  : }

  0004c	c9		 leave
  0004d	c2 04 00	 ret	 4
?OnSkillEnd@ioTargetTeleportSkill@@UAEXPAVioBaseChar@@@Z ENDP ; ioTargetTeleportSkill::OnSkillEnd
_TEXT	ENDS
PUBLIC	?SetNormalSkill@ioTargetTeleportSkill@@MAEXPAVioBaseChar@@@Z ; ioTargetTeleportSkill::SetNormalSkill
EXTRN	?ReduceNeedGaugeBySkill@ioBaseChar@@QAEMPAVioSkill@@M@Z:PROC ; ioBaseChar::ReduceNeedGaugeBySkill
EXTRN	?GetNeedGauge@ioSkill@@QAEMABVioHashString@@@Z:PROC ; ioSkill::GetNeedGauge
EXTRN	__imp_?GetAnimationFullTime@ioEntityGroup@@QAEMH@Z:PROC
EXTRN	__imp_?SetActionAni@ioEntityGroup@@QAE_NHMMMMMM_N0@Z:PROC
EXTRN	__imp_?ClearAllActionAni@ioEntityGroup@@QAEXM_N@Z:PROC
EXTRN	__imp_?ClearAllLoopAni@ioEntityGroup@@QAEXM_N@Z:PROC
EXTRN	__imp_?GetAnimationIdx@ioEntityGroup@@QAEHABVioHashString@@@Z:PROC
;	COMDAT xdata$x
; File d:\lost saga for developer\youtube\tutorial\source\src\lsclient\iobasechar.h
xdata$x	SEGMENT
__unwindtable$?SetNormalSkill@ioTargetTeleportSkill@@MAEXPAVioBaseChar@@@Z DD 0ffffffffH
	DD	FLAT:__unwindfunclet$?SetNormalSkill@ioTargetTeleportSkill@@MAEXPAVioBaseChar@@@Z$0
__ehfuncinfo$?SetNormalSkill@ioTargetTeleportSkill@@MAEXPAVioBaseChar@@@Z DD 019930522H
	DD	01H
	DD	FLAT:__unwindtable$?SetNormalSkill@ioTargetTeleportSkill@@MAEXPAVioBaseChar@@@Z
	DD	2 DUP(00H)
	DD	2 DUP(00H)
	DD	00H
	DD	01H
; Function compile flags: /Ogsp
; File d:\lost saga for developer\youtube\tutorial\source\src\lsclient\iotargetteleportskill.cpp
xdata$x	ENDS
;	COMDAT ?SetNormalSkill@ioTargetTeleportSkill@@MAEXPAVioBaseChar@@@Z
_TEXT	SEGMENT
_szSkillMotion$ = -40					; size = 16
tv328 = -24						; size = 4
tv323 = -24						; size = 4
tv314 = -24						; size = 4
tv311 = -24						; size = 4
tv309 = -24						; size = 4
tv307 = -24						; size = 4
tv305 = -24						; size = 4
_value$536314 = -24					; size = 4
$T536282 = -24						; size = 4
_fTimeRate$ = -20					; size = 4
_fAniRate$ = -20					; size = 4
_iCurSkillAniID$ = -16					; size = 4
__$EHRec$ = -12						; size = 12
_pChar$ = 8						; size = 4
?SetNormalSkill@ioTargetTeleportSkill@@MAEXPAVioBaseChar@@@Z PROC ; ioTargetTeleportSkill::SetNormalSkill, COMDAT
; _this$ = ecx

; 208  : {

  00000	6a 1c		 push	 28			; 0000001cH
  00002	b8 00 00 00 00	 mov	 eax, __ehhandler$?SetNormalSkill@ioTargetTeleportSkill@@MAEXPAVioBaseChar@@@Z
  00007	e8 00 00 00 00	 call	 __EH_prolog3
  0000c	8b f1		 mov	 esi, ecx

; 209  : 	if( !pChar )

  0000e	8b 45 08	 mov	 eax, DWORD PTR _pChar$[ebp]
  00011	85 c0		 test	 eax, eax
  00013	0f 84 ad 01 00
	00		 je	 $LN4@SetNormalS

; 210  : 		return;
; 211  : 
; 212  : 	ioEntityGroup *pGrp = pChar->GetGroup();

  00019	8b 78 04	 mov	 edi, DWORD PTR [eax+4]

; 213  : 	ioHashString szSkillMotion = GetSkillMotionName();

  0001c	8b 06		 mov	 eax, DWORD PTR [esi]
  0001e	ff 90 20 01 00
	00		 call	 DWORD PTR [eax+288]
  00024	50		 push	 eax
  00025	8d 4d d8	 lea	 ecx, DWORD PTR _szSkillMotion$[ebp]
  00028	ff 15 00 00 00
	00		 call	 DWORD PTR __imp_??0ioHashString@@QAE@ABV0@@Z
  0002e	83 65 fc 00	 and	 DWORD PTR __$EHRec$[ebp+8], 0

; 214  : 
; 215  : 	int iCurSkillAniID = pGrp->GetAnimationIdx( szSkillMotion );

  00032	8d 45 d8	 lea	 eax, DWORD PTR _szSkillMotion$[ebp]
  00035	50		 push	 eax
  00036	8b cf		 mov	 ecx, edi
  00038	ff 15 00 00 00
	00		 call	 DWORD PTR __imp_?GetAnimationIdx@ioEntityGroup@@QAEHABVioHashString@@@Z
  0003e	89 45 f0	 mov	 DWORD PTR _iCurSkillAniID$[ebp], eax

; 216  : 	if( iCurSkillAniID == -1 )	return;

  00041	83 f8 ff	 cmp	 eax, -1
  00044	0f 84 6f 01 00
	00		 je	 $LN1@SetNormalS

; 217  : 
; 218  : 	float fAniRate = GetSkillMotionRate();

  0004a	8b 06		 mov	 eax, DWORD PTR [esi]
  0004c	8b ce		 mov	 ecx, esi
  0004e	ff 90 28 01 00
	00		 call	 DWORD PTR [eax+296]
  00054	d9 5d ec	 fstp	 DWORD PTR _fAniRate$[ebp]

; 219  : 
; 220  : 	float fTimeRate = fAniRate * m_fExtraAniRate;

  00057	d9 86 68 03 00
	00		 fld	 DWORD PTR [esi+872]
  0005d	d8 4d ec	 fmul	 DWORD PTR _fAniRate$[ebp]
  00060	d9 5d ec	 fstp	 DWORD PTR _fTimeRate$[ebp]

; 221  : 	
; 222  : 	pGrp->ClearAllLoopAni( FLOAT100, true );

  00063	b8 64 00 00 00	 mov	 eax, 100		; 00000064H
  00068	89 45 e8	 mov	 DWORD PTR tv328[ebp], eax
  0006b	db 45 e8	 fild	 DWORD PTR tv328[ebp]
  0006e	6a 01		 push	 1
  00070	85 c0		 test	 eax, eax
  00072	79 06		 jns	 SHORT $LN26@SetNormalS
  00074	d8 05 00 00 00
	00		 fadd	 DWORD PTR __real@4f800000
$LN26@SetNormalS:
  0007a	51		 push	 ecx
  0007b	8b cf		 mov	 ecx, edi
  0007d	d9 1c 24	 fstp	 DWORD PTR [esp]
  00080	ff 15 00 00 00
	00		 call	 DWORD PTR __imp_?ClearAllLoopAni@ioEntityGroup@@QAEXM_N@Z

; 223  : 	pGrp->ClearAllActionAni( FLOAT100, true );

  00086	b8 64 00 00 00	 mov	 eax, 100		; 00000064H
  0008b	89 45 e8	 mov	 DWORD PTR tv323[ebp], eax
  0008e	db 45 e8	 fild	 DWORD PTR tv323[ebp]
  00091	6a 01		 push	 1
  00093	85 c0		 test	 eax, eax
  00095	79 06		 jns	 SHORT $LN27@SetNormalS
  00097	d8 05 00 00 00
	00		 fadd	 DWORD PTR __real@4f800000
$LN27@SetNormalS:
  0009d	51		 push	 ecx
  0009e	8b cf		 mov	 ecx, edi
  000a0	d9 1c 24	 fstp	 DWORD PTR [esp]
  000a3	ff 15 00 00 00
	00		 call	 DWORD PTR __imp_?ClearAllActionAni@ioEntityGroup@@QAEXM_N@Z

; 224  : 	pGrp->SetActionAni( iCurSkillAniID, FLOAT100, FLOAT100, FLOAT1, FLOAT1/fTimeRate );

  000a9	b8 01 00 00 00	 mov	 eax, 1
  000ae	8b c8		 mov	 ecx, eax
  000b0	b8 01 00 00 00	 mov	 eax, 1
  000b5	8b d0		 mov	 edx, eax
  000b7	b8 64 00 00 00	 mov	 eax, 100		; 00000064H
  000bc	8b d8		 mov	 ebx, eax
  000be	b8 64 00 00 00	 mov	 eax, 100		; 00000064H
  000c3	0f 57 c0	 xorps	 xmm0, xmm0
  000c6	6a 01		 push	 1
  000c8	6a 00		 push	 0
  000ca	83 ec 18	 sub	 esp, 24			; 00000018H
  000cd	f3 0f 11 44 24
	14		 movss	 DWORD PTR [esp+20], xmm0
  000d3	89 4d e8	 mov	 DWORD PTR tv314[ebp], ecx
  000d6	db 45 e8	 fild	 DWORD PTR tv314[ebp]
  000d9	f3 0f 11 44 24
	10		 movss	 DWORD PTR [esp+16], xmm0
  000df	85 c9		 test	 ecx, ecx
  000e1	79 06		 jns	 SHORT $LN28@SetNormalS
  000e3	d8 05 00 00 00
	00		 fadd	 DWORD PTR __real@4f800000
$LN28@SetNormalS:
  000e9	d8 75 ec	 fdiv	 DWORD PTR _fTimeRate$[ebp]
  000ec	d9 5d e8	 fstp	 DWORD PTR tv311[ebp]
  000ef	d9 45 e8	 fld	 DWORD PTR tv311[ebp]
  000f2	d9 5c 24 0c	 fstp	 DWORD PTR [esp+12]
  000f6	89 55 e8	 mov	 DWORD PTR tv309[ebp], edx
  000f9	db 45 e8	 fild	 DWORD PTR tv309[ebp]
  000fc	85 d2		 test	 edx, edx
  000fe	79 06		 jns	 SHORT $LN29@SetNormalS
  00100	d8 05 00 00 00
	00		 fadd	 DWORD PTR __real@4f800000
$LN29@SetNormalS:
  00106	d9 5c 24 08	 fstp	 DWORD PTR [esp+8]
  0010a	89 5d e8	 mov	 DWORD PTR tv307[ebp], ebx
  0010d	db 45 e8	 fild	 DWORD PTR tv307[ebp]
  00110	85 db		 test	 ebx, ebx
  00112	79 06		 jns	 SHORT $LN30@SetNormalS
  00114	d8 05 00 00 00
	00		 fadd	 DWORD PTR __real@4f800000
$LN30@SetNormalS:
  0011a	d9 5c 24 04	 fstp	 DWORD PTR [esp+4]
  0011e	89 45 e8	 mov	 DWORD PTR tv305[ebp], eax
  00121	db 45 e8	 fild	 DWORD PTR tv305[ebp]
  00124	85 c0		 test	 eax, eax
  00126	79 06		 jns	 SHORT $LN31@SetNormalS
  00128	d8 05 00 00 00
	00		 fadd	 DWORD PTR __real@4f800000
$LN31@SetNormalS:
  0012e	d9 1c 24	 fstp	 DWORD PTR [esp]
  00131	ff 75 f0	 push	 DWORD PTR _iCurSkillAniID$[ebp]
  00134	8b cf		 mov	 ecx, edi
  00136	ff 15 00 00 00
	00		 call	 DWORD PTR __imp_?SetActionAni@ioEntityGroup@@QAE_NHMMMMMM_N0@Z

; 225  : 	
; 226  : 	m_dwMotionStartTime = FRAMEGETTIME();

  0013c	ff 15 00 00 00
	00		 call	 DWORD PTR __imp_?GetSingleton@ioFrameTimer@@SAAAV1@XZ
  00142	8b c8		 mov	 ecx, eax
  00144	ff 15 00 00 00
	00		 call	 DWORD PTR __imp_?GetLoopSec@ioFrameTimer@@QBEKXZ
  0014a	89 45 e8	 mov	 DWORD PTR _value$536314[ebp], eax
  0014d	8d 45 e8	 lea	 eax, DWORD PTR _value$536314[ebp]
  00150	50		 push	 eax
  00151	8d 8e a8 02 00
	00		 lea	 ecx, DWORD PTR [esi+680]
  00157	e8 00 00 00 00	 call	 ?EncryptValueToPool@?$CEncrypt@K@@AAEXPBD@Z ; CEncrypt<unsigned long>::EncryptValueToPool

; 227  : 	m_dwMotionEndTime = m_dwMotionStartTime + pGrp->GetAnimationFullTime( iCurSkillAniID ) * fTimeRate;

  0015c	ff 75 f0	 push	 DWORD PTR _iCurSkillAniID$[ebp]
  0015f	8b cf		 mov	 ecx, edi
  00161	ff 15 00 00 00
	00		 call	 DWORD PTR __imp_?GetAnimationFullTime@ioEntityGroup@@QAEMH@Z
  00167	d8 4d ec	 fmul	 DWORD PTR _fTimeRate$[ebp]
  0016a	8d 45 e8	 lea	 eax, DWORD PTR $T536282[ebp]
  0016d	50		 push	 eax
  0016e	8d 8e a8 02 00
	00		 lea	 ecx, DWORD PTR [esi+680]
  00174	d9 5d e8	 fstp	 DWORD PTR $T536282[ebp]
  00177	e8 00 00 00 00	 call	 ??H?$CEncrypt@K@@QAEKABM@Z ; CEncrypt<unsigned long>::operator+

; 228  : 	m_dwMotionEndTime += m_dwAnimationEndDelay;

  0017c	8b 8e 54 0f 00
	00		 mov	 ecx, DWORD PTR [esi+3924]
  00182	03 c8		 add	 ecx, eax

; 229  : 
; 230  : 	if( !m_bReduceGauge )

  00184	80 be 50 03 00
	00 00		 cmp	 BYTE PTR [esi+848], 0
  0018b	89 8e d8 02 00
	00		 mov	 DWORD PTR [esi+728], ecx
  00191	75 26		 jne	 SHORT $LN1@SetNormalS

; 231  : 	{
; 232  : 		pChar->ReduceNeedGaugeBySkill( this, GetNeedGauge(pChar->GetCharName()) );

  00193	8b 7d 08	 mov	 edi, DWORD PTR _pChar$[ebp]
  00196	8d 87 d4 02 00
	00		 lea	 eax, DWORD PTR [edi+724]
  0019c	50		 push	 eax
  0019d	8b ce		 mov	 ecx, esi
  0019f	e8 00 00 00 00	 call	 ?GetNeedGauge@ioSkill@@QAEMABVioHashString@@@Z ; ioSkill::GetNeedGauge
  001a4	51		 push	 ecx
  001a5	d9 1c 24	 fstp	 DWORD PTR [esp]
  001a8	56		 push	 esi
  001a9	8b cf		 mov	 ecx, edi
  001ab	e8 00 00 00 00	 call	 ?ReduceNeedGaugeBySkill@ioBaseChar@@QAEMPAVioSkill@@M@Z ; ioBaseChar::ReduceNeedGaugeBySkill
  001b0	dd d8		 fstp	 ST(0)

; 233  : 		m_bReduceGauge = true;

  001b2	c6 86 50 03 00
	00 01		 mov	 BYTE PTR [esi+848], 1
$LN1@SetNormalS:

; 234  : 	}
; 235  : }

  001b9	83 4d fc ff	 or	 DWORD PTR __$EHRec$[ebp+8], -1
  001bd	8d 4d d8	 lea	 ecx, DWORD PTR _szSkillMotion$[ebp]
  001c0	ff 15 00 00 00
	00		 call	 DWORD PTR __imp_??1ioHashString@@QAE@XZ
$LN4@SetNormalS:
  001c6	e8 00 00 00 00	 call	 __EH_epilog3
  001cb	c2 04 00	 ret	 4
_TEXT	ENDS
;	COMDAT text$x
text$x	SEGMENT
__unwindfunclet$?SetNormalSkill@ioTargetTeleportSkill@@MAEXPAVioBaseChar@@@Z$0:
  00000	8d 4d d8	 lea	 ecx, DWORD PTR _szSkillMotion$[ebp]
  00003	ff 25 00 00 00
	00		 jmp	 DWORD PTR __imp_??1ioHashString@@QAE@XZ
__ehhandler$?SetNormalSkill@ioTargetTeleportSkill@@MAEXPAVioBaseChar@@@Z:
  00009	8b 54 24 08	 mov	 edx, DWORD PTR [esp+8]
  0000d	8d 42 0c	 lea	 eax, DWORD PTR [edx+12]
  00010	8b 4a d4	 mov	 ecx, DWORD PTR [edx-44]
  00013	33 c8		 xor	 ecx, eax
  00015	e8 00 00 00 00	 call	 @__security_check_cookie@4
  0001a	b8 00 00 00 00	 mov	 eax, OFFSET __ehfuncinfo$?SetNormalSkill@ioTargetTeleportSkill@@MAEXPAVioBaseChar@@@Z
  0001f	e9 00 00 00 00	 jmp	 ___CxxFrameHandler3
text$x	ENDS
?SetNormalSkill@ioTargetTeleportSkill@@MAEXPAVioBaseChar@@@Z ENDP ; ioTargetTeleportSkill::SetNormalSkill
PUBLIC	__real@00000000
PUBLIC	_pChar$GSCopy$
PUBLIC	?SetEndState@ioTargetTeleportSkill@@IAEXPAVioBaseChar@@@Z ; ioTargetTeleportSkill::SetEndState
;	COMDAT __real@00000000
; File d:\lost saga for developer\youtube\tutorial\source\src\lsclient\stringprotect.h
CONST	SEGMENT
__real@00000000 DD 000000000r			; 0
CONST	ENDS
;	COMDAT xdata$x
xdata$x	SEGMENT
__unwindtable$?SetEndState@ioTargetTeleportSkill@@IAEXPAVioBaseChar@@@Z DD 0ffffffffH
	DD	FLAT:__unwindfunclet$?SetEndState@ioTargetTeleportSkill@@IAEXPAVioBaseChar@@@Z$0
__ehfuncinfo$?SetEndState@ioTargetTeleportSkill@@IAEXPAVioBaseChar@@@Z DD 019930522H
	DD	01H
	DD	FLAT:__unwindtable$?SetEndState@ioTargetTeleportSkill@@IAEXPAVioBaseChar@@@Z
	DD	2 DUP(00H)
	DD	2 DUP(00H)
	DD	00H
	DD	01H
; Function compile flags: /Ogsp
; File d:\lost saga for developer\youtube\tutorial\source\src\lsclient\iotargetteleportskill.cpp
xdata$x	ENDS
;	COMDAT ?SetEndState@ioTargetTeleportSkill@@IAEXPAVioBaseChar@@@Z
_TEXT	SEGMENT
$T536488 = -76						; size = 16
_value$536337 = -60					; size = 4
_iCurSkillAniID$ = -60					; size = 4
_pChar$GSCopy$ = -56					; size = 4
_fTimeRate$ = -56					; size = 4
tv1162 = -52						; size = 4
tv1158 = -52						; size = 4
tv1153 = -52						; size = 4
tv1146 = -52						; size = 4
tv1141 = -52						; size = 4
tv1139 = -52						; size = 4
tv1105 = -52						; size = 4
_dwCurTime$ = -52					; size = 4
tv1143 = -48						; size = 4
$T536487 = -48						; size = 4
_value$536368 = -48					; size = 4
_fAttackEnd$ = -48					; size = 4
$T536334 = -48						; size = 4
_vTargetPos$ = -44					; size = 12
_szEncEventType$536388 = -32				; size = 11
__$EHRec$ = -12						; size = 12
_pChar$ = 8						; size = 4
?SetEndState@ioTargetTeleportSkill@@IAEXPAVioBaseChar@@@Z PROC ; ioTargetTeleportSkill::SetEndState, COMDAT
; _this$ = ecx

; 294  : {

  00000	6a 40		 push	 64			; 00000040H
  00002	b8 00 00 00 00	 mov	 eax, __ehhandler$?SetEndState@ioTargetTeleportSkill@@IAEXPAVioBaseChar@@@Z
  00007	e8 00 00 00 00	 call	 __EH_prolog3_GS
  0000c	8b 45 08	 mov	 eax, DWORD PTR _pChar$[ebp]
  0000f	8b d9		 mov	 ebx, ecx

; 325  : 		m_dwAttackEndTime = 0;

  00011	89 45 c8	 mov	 DWORD PTR _pChar$GSCopy$[ebp], eax
  00014	c7 83 58 0f 00
	00 03 00 00 00	 mov	 DWORD PTR [ebx+3928], 3
  0001e	85 c0		 test	 eax, eax
  00020	0f 84 74 02 00
	00		 je	 $LN1@SetEndStat

; 295  : 	m_SkillState = SS_END;
; 296  : 
; 297  : 	if( !pChar )
; 298  : 		return;
; 299  : 
; 300  : 	D3DXVECTOR3 vTargetPos = m_vTargetPos;

  00026	8d b3 e0 0f 00
	00		 lea	 esi, DWORD PTR [ebx+4064]
  0002c	8d 7d d4	 lea	 edi, DWORD PTR _vTargetPos$[ebp]
  0002f	a5		 movsd
  00030	a5		 movsd

; 301  : 	vTargetPos.y += m_fTargetOffSetHeight;

  00031	8d 45 c4	 lea	 eax, DWORD PTR _value$536337[ebp]
  00034	50		 push	 eax
  00035	8d 8b 3c 10 00
	00		 lea	 ecx, DWORD PTR [ebx+4156]
  0003b	a5		 movsd
  0003c	e8 00 00 00 00	 call	 ?DecryptValueToPool@?$CEncrypt@M@@QAEXPAM@Z ; CEncrypt<float>::DecryptValueToPool
  00041	f3 0f 10 4d d8	 movss	 xmm1, DWORD PTR _vTargetPos$[ebp+4]
  00046	f3 0f 10 45 c4	 movss	 xmm0, DWORD PTR _value$536337[ebp]

; 302  : 	pChar->SetWorldPosition( vTargetPos );

  0004b	8b 75 c8	 mov	 esi, DWORD PTR _pChar$GSCopy$[ebp]
  0004e	8b 06		 mov	 eax, DWORD PTR [esi]
  00050	0f 5a c0	 cvtps2pd xmm0, xmm0
  00053	8d 4d d4	 lea	 ecx, DWORD PTR _vTargetPos$[ebp]
  00056	0f 5a c9	 cvtps2pd xmm1, xmm1
  00059	f2 0f 58 c1	 addsd	 xmm0, xmm1
  0005d	51		 push	 ecx
  0005e	66 0f 5a c0	 cvtpd2ps xmm0, xmm0
  00062	8b ce		 mov	 ecx, esi
  00064	f3 0f 11 45 d8	 movss	 DWORD PTR _vTargetPos$[ebp+4], xmm0
  00069	ff 50 44	 call	 DWORD PTR [eax+68]

; 303  : 
; 304  : 	ioEntityGroup *pGrp = pChar->GetGroup();

  0006c	8b 76 04	 mov	 esi, DWORD PTR [esi+4]

; 305  : 	int iCurSkillAniID = pGrp->GetAnimationIdx( m_SkillEndMotion );

  0006f	8d 83 c0 0f 00
	00		 lea	 eax, DWORD PTR [ebx+4032]
  00075	50		 push	 eax
  00076	8b ce		 mov	 ecx, esi
  00078	ff 15 00 00 00
	00		 call	 DWORD PTR __imp_?GetAnimationIdx@ioEntityGroup@@QAEHABVioHashString@@@Z
  0007e	89 45 c4	 mov	 DWORD PTR _iCurSkillAniID$[ebp], eax

; 306  : 	if( iCurSkillAniID == -1 )	return;

  00081	83 f8 ff	 cmp	 eax, -1
  00084	0f 84 10 02 00
	00		 je	 $LN1@SetEndStat

; 307  : 
; 308  : 	float fTimeRate = m_fEndMotionRate;

  0008a	f3 0f 10 83 d0
	0f 00 00	 movss	 xmm0, DWORD PTR [ebx+4048]

; 309  : 	if( fTimeRate <= 0.0f )

  00092	0f 57 c9	 xorps	 xmm1, xmm1
  00095	0f 2f c8	 comiss	 xmm1, xmm0
  00098	f3 0f 11 45 c8	 movss	 DWORD PTR _fTimeRate$[ebp], xmm0
  0009d	72 18		 jb	 SHORT $LN3@SetEndStat

; 310  : 		fTimeRate = FLOAT1;

  0009f	b8 01 00 00 00	 mov	 eax, 1
  000a4	89 45 cc	 mov	 DWORD PTR tv1162[ebp], eax
  000a7	db 45 cc	 fild	 DWORD PTR tv1162[ebp]
  000aa	85 c0		 test	 eax, eax
  000ac	79 06		 jns	 SHORT $LN138@SetEndStat
  000ae	d8 05 00 00 00
	00		 fadd	 DWORD PTR __real@4f800000
$LN138@SetEndStat:
  000b4	d9 5d c8	 fstp	 DWORD PTR _fTimeRate$[ebp]
$LN3@SetEndStat:

; 311  : 	
; 312  : 	pGrp->ClearAllLoopAni( FLOAT100, true );

  000b7	b8 64 00 00 00	 mov	 eax, 100		; 00000064H
  000bc	89 45 cc	 mov	 DWORD PTR tv1158[ebp], eax
  000bf	db 45 cc	 fild	 DWORD PTR tv1158[ebp]
  000c2	6a 01		 push	 1
  000c4	85 c0		 test	 eax, eax
  000c6	79 06		 jns	 SHORT $LN139@SetEndStat
  000c8	d8 05 00 00 00
	00		 fadd	 DWORD PTR __real@4f800000
$LN139@SetEndStat:
  000ce	51		 push	 ecx
  000cf	8b ce		 mov	 ecx, esi
  000d1	d9 1c 24	 fstp	 DWORD PTR [esp]
  000d4	ff 15 00 00 00
	00		 call	 DWORD PTR __imp_?ClearAllLoopAni@ioEntityGroup@@QAEXM_N@Z

; 313  : 	pGrp->ClearAllActionAni( FLOAT100, true );

  000da	b8 64 00 00 00	 mov	 eax, 100		; 00000064H
  000df	89 45 cc	 mov	 DWORD PTR tv1153[ebp], eax
  000e2	db 45 cc	 fild	 DWORD PTR tv1153[ebp]
  000e5	6a 01		 push	 1
  000e7	85 c0		 test	 eax, eax
  000e9	79 06		 jns	 SHORT $LN140@SetEndStat
  000eb	d8 05 00 00 00
	00		 fadd	 DWORD PTR __real@4f800000
$LN140@SetEndStat:
  000f1	51		 push	 ecx
  000f2	8b ce		 mov	 ecx, esi
  000f4	d9 1c 24	 fstp	 DWORD PTR [esp]
  000f7	ff 15 00 00 00
	00		 call	 DWORD PTR __imp_?ClearAllActionAni@ioEntityGroup@@QAEXM_N@Z

; 314  : 	pGrp->SetActionAni( iCurSkillAniID, FLOAT100, FLOAT100, FLOAT1/fTimeRate );

  000fd	b8 01 00 00 00	 mov	 eax, 1
  00102	8b c8		 mov	 ecx, eax
  00104	b8 64 00 00 00	 mov	 eax, 100		; 00000064H
  00109	8b d0		 mov	 edx, eax
  0010b	b8 64 00 00 00	 mov	 eax, 100		; 00000064H
  00110	0f 57 c0	 xorps	 xmm0, xmm0
  00113	6a 01		 push	 1
  00115	6a 00		 push	 0
  00117	83 ec 18	 sub	 esp, 24			; 00000018H
  0011a	f3 0f 11 44 24
	14		 movss	 DWORD PTR [esp+20], xmm0
  00120	f3 0f 11 44 24
	10		 movss	 DWORD PTR [esp+16], xmm0
  00126	f3 0f 10 05 00
	00 00 00	 movss	 xmm0, DWORD PTR __real@3f800000
  0012e	89 4d cc	 mov	 DWORD PTR tv1146[ebp], ecx
  00131	db 45 cc	 fild	 DWORD PTR tv1146[ebp]
  00134	f3 0f 11 44 24
	0c		 movss	 DWORD PTR [esp+12], xmm0
  0013a	85 c9		 test	 ecx, ecx
  0013c	79 06		 jns	 SHORT $LN141@SetEndStat
  0013e	d8 05 00 00 00
	00		 fadd	 DWORD PTR __real@4f800000
$LN141@SetEndStat:
  00144	d8 75 c8	 fdiv	 DWORD PTR _fTimeRate$[ebp]
  00147	89 55 cc	 mov	 DWORD PTR tv1141[ebp], edx
  0014a	d9 5d d0	 fstp	 DWORD PTR tv1143[ebp]
  0014d	d9 45 d0	 fld	 DWORD PTR tv1143[ebp]
  00150	d9 5c 24 08	 fstp	 DWORD PTR [esp+8]
  00154	db 45 cc	 fild	 DWORD PTR tv1141[ebp]
  00157	85 d2		 test	 edx, edx
  00159	79 06		 jns	 SHORT $LN142@SetEndStat
  0015b	d8 05 00 00 00
	00		 fadd	 DWORD PTR __real@4f800000
$LN142@SetEndStat:
  00161	89 45 cc	 mov	 DWORD PTR tv1139[ebp], eax
  00164	d9 5c 24 04	 fstp	 DWORD PTR [esp+4]
  00168	db 45 cc	 fild	 DWORD PTR tv1139[ebp]
  0016b	85 c0		 test	 eax, eax
  0016d	79 06		 jns	 SHORT $LN143@SetEndStat
  0016f	d8 05 00 00 00
	00		 fadd	 DWORD PTR __real@4f800000
$LN143@SetEndStat:
  00175	d9 1c 24	 fstp	 DWORD PTR [esp]
  00178	ff 75 c4	 push	 DWORD PTR _iCurSkillAniID$[ebp]
  0017b	8b ce		 mov	 ecx, esi
  0017d	ff 15 00 00 00
	00		 call	 DWORD PTR __imp_?SetActionAni@ioEntityGroup@@QAE_NHMMMMMM_N0@Z

; 315  : 	
; 316  : 	DWORD dwCurTime = FRAMEGETTIME();

  00183	ff 15 00 00 00
	00		 call	 DWORD PTR __imp_?GetSingleton@ioFrameTimer@@SAAAV1@XZ
  00189	8b c8		 mov	 ecx, eax
  0018b	ff 15 00 00 00
	00		 call	 DWORD PTR __imp_?GetLoopSec@ioFrameTimer@@QBEKXZ
  00191	89 45 cc	 mov	 DWORD PTR _dwCurTime$[ebp], eax

; 317  : 	m_dwMotionStartTime = dwCurTime;

  00194	89 45 d0	 mov	 DWORD PTR _value$536368[ebp], eax
  00197	8d 45 d0	 lea	 eax, DWORD PTR _value$536368[ebp]
  0019a	50		 push	 eax
  0019b	8d 8b a8 02 00
	00		 lea	 ecx, DWORD PTR [ebx+680]
  001a1	e8 00 00 00 00	 call	 ?EncryptValueToPool@?$CEncrypt@K@@AAEXPBD@Z ; CEncrypt<unsigned long>::EncryptValueToPool

; 318  : 	m_dwMotionEndTime = m_dwMotionStartTime + pGrp->GetAnimationFullTime( iCurSkillAniID ) * fTimeRate;

  001a6	ff 75 c4	 push	 DWORD PTR _iCurSkillAniID$[ebp]
  001a9	8b ce		 mov	 ecx, esi
  001ab	ff 15 00 00 00
	00		 call	 DWORD PTR __imp_?GetAnimationFullTime@ioEntityGroup@@QAEMH@Z
  001b1	d8 4d c8	 fmul	 DWORD PTR _fTimeRate$[ebp]
  001b4	8d 45 d0	 lea	 eax, DWORD PTR $T536334[ebp]
  001b7	50		 push	 eax
  001b8	8d 8b a8 02 00
	00		 lea	 ecx, DWORD PTR [ebx+680]
  001be	d9 5d d0	 fstp	 DWORD PTR $T536334[ebp]
  001c1	e8 00 00 00 00	 call	 ??H?$CEncrypt@K@@QAEKABM@Z ; CEncrypt<unsigned long>::operator+

; 319  : 	m_dwMotionEndTime += m_dwAnimationEndDelay;

  001c6	8b 8b 54 0f 00
	00		 mov	 ecx, DWORD PTR [ebx+3924]
  001cc	03 c8		 add	 ecx, eax
  001ce	6a 02		 push	 2
  001d0	89 8b d8 02 00
	00		 mov	 DWORD PTR [ebx+728], ecx

; 320  : 
; 321  : 	float fAttackEnd = pGrp->GetAnimationEventTime_e( iCurSkillAniID, "attack_end" ) * fTimeRate;

  001d6	c7 45 e0 8c 98
	9f 8b		 mov	 DWORD PTR _szEncEventType$536388[ebp], -1952474996 ; 8b9f988cH
  001dd	c7 45 e4 8e 87
	b4 8f		 mov	 DWORD PTR _szEncEventType$536388[ebp+4], -1883994226 ; 8fb4878eH
  001e4	66 c7 45 e8 83
	88		 mov	 WORD PTR _szEncEventType$536388[ebp+8], 34947 ; 00008883H
  001ea	8d 45 e0	 lea	 eax, DWORD PTR _szEncEventType$536388[ebp]
  001ed	c6 45 ea 00	 mov	 BYTE PTR _szEncEventType$536388[ebp+10], 0
  001f1	59		 pop	 ecx
$LL130@SetEndStat:
  001f2	81 30 ed ec eb
	ea		 xor	 DWORD PTR [eax], -353637139 ; eaebecedH
  001f8	83 c0 04	 add	 eax, 4
  001fb	49		 dec	 ecx
  001fc	75 f4		 jne	 SHORT $LL130@SetEndStat
  001fe	6a 08		 push	 8
  00200	5f		 pop	 edi
$LL127@SetEndStat:
  00201	8b c7		 mov	 eax, edi
  00203	25 03 00 00 80	 and	 eax, -2147483645	; 80000003H
  00208	79 05		 jns	 SHORT $LN144@SetEndStat
  0020a	48		 dec	 eax
  0020b	83 c8 fc	 or	 eax, -4			; fffffffcH
  0020e	40		 inc	 eax
$LN144@SetEndStat:
  0020f	b1 ed		 mov	 cl, -19			; ffffffedH
  00211	2a c8		 sub	 cl, al
  00213	30 4c 3d e0	 xor	 BYTE PTR _szEncEventType$536388[ebp+edi], cl
  00217	47		 inc	 edi
  00218	83 ff 0a	 cmp	 edi, 10			; 0000000aH
  0021b	7c e4		 jl	 SHORT $LL127@SetEndStat
  0021d	8d 45 e0	 lea	 eax, DWORD PTR _szEncEventType$536388[ebp]
  00220	50		 push	 eax
  00221	8d 4d b4	 lea	 ecx, DWORD PTR $T536488[ebp]
  00224	ff 15 00 00 00
	00		 call	 DWORD PTR __imp_??0ioHashString@@QAE@PBD@Z
  0022a	83 65 fc 00	 and	 DWORD PTR __$EHRec$[ebp+8], 0
  0022e	8d 45 b4	 lea	 eax, DWORD PTR $T536488[ebp]
  00231	50		 push	 eax
  00232	ff 75 c4	 push	 DWORD PTR _iCurSkillAniID$[ebp]
  00235	8b ce		 mov	 ecx, esi
  00237	ff 15 00 00 00
	00		 call	 DWORD PTR __imp_?GetAnimationEventTime@ioEntityGroup@@QAEMHABVioHashString@@@Z
  0023d	d9 5d d0	 fstp	 DWORD PTR $T536487[ebp]
  00240	83 4d fc ff	 or	 DWORD PTR __$EHRec$[ebp+8], -1
  00244	8d 4d b4	 lea	 ecx, DWORD PTR $T536488[ebp]
  00247	ff 15 00 00 00
	00		 call	 DWORD PTR __imp_??1ioHashString@@QAE@XZ
  0024d	f3 0f 10 45 d0	 movss	 xmm0, DWORD PTR $T536487[ebp]
  00252	f3 0f 10 4d c8	 movss	 xmm1, DWORD PTR _fTimeRate$[ebp]
  00257	0f 5a c0	 cvtps2pd xmm0, xmm0
  0025a	0f 5a c9	 cvtps2pd xmm1, xmm1
  0025d	f2 0f 59 c1	 mulsd	 xmm0, xmm1
  00261	66 0f 5a c0	 cvtpd2ps xmm0, xmm0

; 322  : 	if( fAttackEnd > 0.0f )

  00265	0f 2f 05 00 00
	00 00		 comiss	 xmm0, DWORD PTR __real@00000000
  0026c	f3 0f 11 45 d0	 movss	 DWORD PTR _fAttackEnd$[ebp], xmm0
  00271	76 20		 jbe	 SHORT $LN2@SetEndStat

; 323  : 		m_dwAttackEndTime = dwCurTime + fAttackEnd;

  00273	8b 45 cc	 mov	 eax, DWORD PTR _dwCurTime$[ebp]
  00276	db 45 cc	 fild	 DWORD PTR _dwCurTime$[ebp]
  00279	85 c0		 test	 eax, eax
  0027b	79 06		 jns	 SHORT $LN145@SetEndStat
  0027d	d8 05 00 00 00
	00		 fadd	 DWORD PTR __real@4f800000
$LN145@SetEndStat:
  00283	d8 45 d0	 fadd	 DWORD PTR _fAttackEnd$[ebp]
  00286	e8 00 00 00 00	 call	 __ftol2
  0028b	89 83 bc 0f 00
	00		 mov	 DWORD PTR [ebx+4028], eax

; 324  : 	else

  00291	eb 07		 jmp	 SHORT $LN1@SetEndStat
$LN2@SetEndStat:

; 325  : 		m_dwAttackEndTime = 0;

  00293	83 a3 bc 0f 00
	00 00		 and	 DWORD PTR [ebx+4028], 0
$LN1@SetEndStat:

; 326  : }

  0029a	e8 00 00 00 00	 call	 __EH_epilog3_GS
  0029f	c2 04 00	 ret	 4
_TEXT	ENDS
;	COMDAT text$x
text$x	SEGMENT
__unwindfunclet$?SetEndState@ioTargetTeleportSkill@@IAEXPAVioBaseChar@@@Z$0:
  00000	8d 4d b4	 lea	 ecx, DWORD PTR $T536488[ebp]
  00003	ff 25 00 00 00
	00		 jmp	 DWORD PTR __imp_??1ioHashString@@QAE@XZ
__ehhandler$?SetEndState@ioTargetTeleportSkill@@IAEXPAVioBaseChar@@@Z:
  00009	8b 54 24 08	 mov	 edx, DWORD PTR [esp+8]
  0000d	8d 42 0c	 lea	 eax, DWORD PTR [edx+12]
  00010	8b 4a b0	 mov	 ecx, DWORD PTR [edx-80]
  00013	33 c8		 xor	 ecx, eax
  00015	e8 00 00 00 00	 call	 @__security_check_cookie@4
  0001a	8b 4a fc	 mov	 ecx, DWORD PTR [edx-4]
  0001d	33 c8		 xor	 ecx, eax
  0001f	e8 00 00 00 00	 call	 @__security_check_cookie@4
  00024	b8 00 00 00 00	 mov	 eax, OFFSET __ehfuncinfo$?SetEndState@ioTargetTeleportSkill@@IAEXPAVioBaseChar@@@Z
  00029	e9 00 00 00 00	 jmp	 ___CxxFrameHandler3
text$x	ENDS
?SetEndState@ioTargetTeleportSkill@@IAEXPAVioBaseChar@@@Z ENDP ; ioTargetTeleportSkill::SetEndState
PUBLIC	?IsProtected@ioTargetTeleportSkill@@UBE_NH@Z	; ioTargetTeleportSkill::IsProtected
; Function compile flags: /Ogsp
;	COMDAT ?IsProtected@ioTargetTeleportSkill@@UBE_NH@Z
_TEXT	SEGMENT
_value$536524 = -1					; size = 1
_iDefenseBreakType$ = 8					; size = 4
?IsProtected@ioTargetTeleportSkill@@UBE_NH@Z PROC	; ioTargetTeleportSkill::IsProtected, COMDAT
; _this$ = ecx

; 329  : {

  00000	55		 push	 ebp
  00001	8b ec		 mov	 ebp, esp
  00003	51		 push	 ecx
  00004	56		 push	 esi
  00005	8b f1		 mov	 esi, ecx

; 330  : 	if( m_bDisableSkillProtect )

  00007	8d 45 ff	 lea	 eax, DWORD PTR _value$536524[ebp]
  0000a	50		 push	 eax
  0000b	8d 8e a8 00 00
	00		 lea	 ecx, DWORD PTR [esi+168]
  00011	e8 00 00 00 00	 call	 ?DecryptValueToPool@?$CEncrypt@_N@@QAEXPA_N@Z ; CEncrypt<bool>::DecryptValueToPool
  00016	80 7d ff 00	 cmp	 BYTE PTR _value$536524[ebp], 0

; 331  : 		return false;

  0001a	75 43		 jne	 SHORT $LN2@IsProtecte

; 332  : 
; 333  : 	if( DBT_NONE != (DefenseBreakType)m_ProtectCancelType )

  0001c	8b 86 a4 00 00
	00		 mov	 eax, DWORD PTR [esi+164]
  00022	85 c0		 test	 eax, eax
  00024	74 05		 je	 SHORT $LN7@IsProtecte

; 334  : 	{
; 335  : 		if( iDefenseBreakType == m_ProtectCancelType )   //   

  00026	39 45 08	 cmp	 DWORD PTR _iDefenseBreakType$[ebp], eax

; 336  : 			return false;

  00029	74 34		 je	 SHORT $LN2@IsProtecte
$LN7@IsProtecte:

; 337  : 	}
; 338  : 
; 339  : 	if( IsPreDelayProtect() )

  0002b	8b 06		 mov	 eax, DWORD PTR [esi]
  0002d	8b ce		 mov	 ecx, esi
  0002f	ff 90 2c 01 00
	00		 call	 DWORD PTR [eax+300]
  00035	84 c0		 test	 al, al
  00037	74 0d		 je	 SHORT $LN5@IsProtecte

; 340  : 	{
; 341  : 		if( m_dwPreDelayStartTime != 0 )

  00039	83 be 20 02 00
	00 00		 cmp	 DWORD PTR [esi+544], 0
  00040	74 04		 je	 SHORT $LN5@IsProtecte

; 342  : 			return true;

  00042	b0 01		 mov	 al, 1
  00044	eb 1b		 jmp	 SHORT $LN10@IsProtecte
$LN5@IsProtecte:

; 343  : 	}
; 344  : 
; 345  : 	switch( m_SkillState )

  00046	8b b6 58 0f 00
	00		 mov	 esi, DWORD PTR [esi+3928]
  0004c	83 fe 01	 cmp	 esi, 1
  0004f	74 0e		 je	 SHORT $LN2@IsProtecte
  00051	33 c0		 xor	 eax, eax
  00053	40		 inc	 eax
  00054	83 c6 fe	 add	 esi, -2			; fffffffeH
  00057	3b c6		 cmp	 eax, esi
  00059	1a c0		 sbb	 al, al
  0005b	fe c0		 inc	 al

; 349  : 	case SS_TELEPORT:
; 350  : 	case SS_END:
; 351  : 		return true;
; 352  : 	}
; 353  : 
; 354  : 	return false;

  0005d	eb 02		 jmp	 SHORT $LN10@IsProtecte
$LN2@IsProtecte:

; 346  : 	{
; 347  : 	case SS_WAIT:
; 348  : 		return false;

  0005f	32 c0		 xor	 al, al
$LN10@IsProtecte:
  00061	5e		 pop	 esi

; 355  : }

  00062	c9		 leave
  00063	c2 04 00	 ret	 4
?IsProtected@ioTargetTeleportSkill@@UBE_NH@Z ENDP	; ioTargetTeleportSkill::IsProtected
_TEXT	ENDS
PUBLIC	?CheckValidateTarget@ioTargetTeleportSkill@@IAE_NPAVioBaseChar@@PAVioPlayStage@@@Z ; ioTargetTeleportSkill::CheckValidateTarget
EXTRN	?IsSystemState@ioBaseChar@@QAE_NXZ:PROC		; ioBaseChar::IsSystemState
EXTRN	?GetBaseChar@ioPlayStage@@QAEPAVioBaseChar@@ABVioHashString@@@Z:PROC ; ioPlayStage::GetBaseChar
; Function compile flags: /Ogsp
;	COMDAT ?CheckValidateTarget@ioTargetTeleportSkill@@IAE_NPAVioBaseChar@@PAVioPlayStage@@@Z
_TEXT	SEGMENT
_value$536532 = 8					; size = 4
_pChar$ = 8						; size = 4
_pStage$ = 12						; size = 4
?CheckValidateTarget@ioTargetTeleportSkill@@IAE_NPAVioBaseChar@@PAVioPlayStage@@@Z PROC ; ioTargetTeleportSkill::CheckValidateTarget, COMDAT
; _this$ = ecx

; 467  : {

  00000	55		 push	 ebp
  00001	8b ec		 mov	 ebp, esp

; 468  : 	if( !pChar || !pStage )

  00003	83 7d 08 00	 cmp	 DWORD PTR _pChar$[ebp], 0
  00007	56		 push	 esi
  00008	8b f1		 mov	 esi, ecx
  0000a	74 4d		 je	 SHORT $LN5@CheckValid
  0000c	83 7d 0c 00	 cmp	 DWORD PTR _pStage$[ebp], 0
  00010	74 47		 je	 SHORT $LN5@CheckValid

; 470  : 
; 471  : 	if( m_iCurTargetIndex == -1 || m_CurTargetName.IsEmpty() )		// Base

  00012	8d 45 08	 lea	 eax, DWORD PTR _value$536532[ebp]
  00015	50		 push	 eax
  00016	8d 8e 0c 10 00
	00		 lea	 ecx, DWORD PTR [esi+4108]
  0001c	e8 00 00 00 00	 call	 ?DecryptValueToPool@?$CEncrypt@H@@QAEXPAH@Z ; CEncrypt<int>::DecryptValueToPool
  00021	83 7d 08 ff	 cmp	 DWORD PTR _value$536532[ebp], -1
  00025	74 2e		 je	 SHORT $LN3@CheckValid
  00027	81 c6 ec 0f 00
	00		 add	 esi, 4076		; 00000fecH
  0002d	8b ce		 mov	 ecx, esi
  0002f	ff 15 00 00 00
	00		 call	 DWORD PTR __imp_?IsEmpty@ioHashString@@QBE_NXZ
  00035	84 c0		 test	 al, al
  00037	75 1c		 jne	 SHORT $LN3@CheckValid

; 473  : 
; 474  : 	ioBaseChar *pTarget = pStage->GetBaseChar( m_CurTargetName );

  00039	8b 4d 0c	 mov	 ecx, DWORD PTR _pStage$[ebp]
  0003c	56		 push	 esi
  0003d	e8 00 00 00 00	 call	 ?GetBaseChar@ioPlayStage@@QAEPAVioBaseChar@@ABVioHashString@@@Z ; ioPlayStage::GetBaseChar

; 475  : 	if( !pTarget )

  00042	85 c0		 test	 eax, eax

; 476  : 		return false;

  00044	74 13		 je	 SHORT $LN5@CheckValid

; 477  : 
; 478  : 	if( pTarget->IsSystemState() )

  00046	8b c8		 mov	 ecx, eax
  00048	e8 00 00 00 00	 call	 ?IsSystemState@ioBaseChar@@QAE_NXZ ; ioBaseChar::IsSystemState
  0004d	f6 d8		 neg	 al
  0004f	1a c0		 sbb	 al, al
  00051	fe c0		 inc	 al

; 479  : 		return false;
; 480  : 
; 481  : 	return true;

  00053	eb 06		 jmp	 SHORT $LN7@CheckValid
$LN3@CheckValid:

; 472  : 		return true;

  00055	b0 01		 mov	 al, 1
  00057	eb 02		 jmp	 SHORT $LN7@CheckValid
$LN5@CheckValid:

; 469  : 		return false;

  00059	32 c0		 xor	 al, al
$LN7@CheckValid:
  0005b	5e		 pop	 esi

; 482  : }

  0005c	5d		 pop	 ebp
  0005d	c2 08 00	 ret	 8
?CheckValidateTarget@ioTargetTeleportSkill@@IAE_NPAVioBaseChar@@PAVioPlayStage@@@Z ENDP ; ioTargetTeleportSkill::CheckValidateTarget
_TEXT	ENDS
PUBLIC	?CheckTargetPos@ioTargetTeleportSkill@@IAEXPAVioBaseChar@@PAVioPlayStage@@@Z ; ioTargetTeleportSkill::CheckTargetPos
; Function compile flags: /Ogsp
;	COMDAT ?CheckTargetPos@ioTargetTeleportSkill@@IAEXPAVioBaseChar@@PAVioPlayStage@@@Z
_TEXT	SEGMENT
_value$536539 = 8					; size = 4
_pChar$ = 8						; size = 4
_pStage$ = 12						; size = 4
?CheckTargetPos@ioTargetTeleportSkill@@IAEXPAVioBaseChar@@PAVioPlayStage@@@Z PROC ; ioTargetTeleportSkill::CheckTargetPos, COMDAT
; _this$ = ecx

; 485  : {

  00000	55		 push	 ebp
  00001	8b ec		 mov	 ebp, esp

; 486  : 	if( !pChar || !pStage )

  00003	83 7d 08 00	 cmp	 DWORD PTR _pChar$[ebp], 0
  00007	56		 push	 esi
  00008	57		 push	 edi
  00009	8b f9		 mov	 edi, ecx
  0000b	74 45		 je	 SHORT $LN4@CheckTarge
  0000d	83 7d 0c 00	 cmp	 DWORD PTR _pStage$[ebp], 0
  00011	74 3f		 je	 SHORT $LN4@CheckTarge

; 489  : 		return;
; 490  : 	}
; 491  : 
; 492  : 	if( m_iCurTargetIndex == -1 || m_CurTargetName.IsEmpty() )

  00013	8d 45 08	 lea	 eax, DWORD PTR _value$536539[ebp]
  00016	50		 push	 eax
  00017	8d 8f 0c 10 00
	00		 lea	 ecx, DWORD PTR [edi+4108]
  0001d	e8 00 00 00 00	 call	 ?DecryptValueToPool@?$CEncrypt@H@@QAEXPAH@Z ; CEncrypt<int>::DecryptValueToPool
  00022	83 7d 08 ff	 cmp	 DWORD PTR _value$536539[ebp], -1
  00026	74 2a		 je	 SHORT $LN4@CheckTarge
  00028	8d b7 ec 0f 00
	00		 lea	 esi, DWORD PTR [edi+4076]
  0002e	8b ce		 mov	 ecx, esi
  00030	ff 15 00 00 00
	00		 call	 DWORD PTR __imp_?IsEmpty@ioHashString@@QBE_NXZ
  00036	84 c0		 test	 al, al
  00038	75 18		 jne	 SHORT $LN4@CheckTarge

; 493  : 	{
; 494  : 		m_vTargetPos = m_vBasePos;
; 495  : 		return;
; 496  : 	}
; 497  : 
; 498  : 	ioBaseChar *pTarget = pStage->GetBaseChar( m_CurTargetName );

  0003a	8b 4d 0c	 mov	 ecx, DWORD PTR _pStage$[ebp]
  0003d	56		 push	 esi
  0003e	e8 00 00 00 00	 call	 ?GetBaseChar@ioPlayStage@@QAEPAVioBaseChar@@ABVioHashString@@@Z ; ioPlayStage::GetBaseChar

; 499  : 	if( pTarget )

  00043	85 c0		 test	 eax, eax
  00045	74 0b		 je	 SHORT $LN4@CheckTarge

; 500  : 	{
; 501  : 		m_vTargetPos = pTarget->GetWorldPosition();

  00047	8b 10		 mov	 edx, DWORD PTR [eax]
  00049	8b c8		 mov	 ecx, eax
  0004b	ff 52 70	 call	 DWORD PTR [edx+112]
  0004e	8b f0		 mov	 esi, eax

; 502  : 		return;

  00050	eb 06		 jmp	 SHORT $LN10@CheckTarge
$LN4@CheckTarge:

; 487  : 	{
; 488  : 		m_vTargetPos = m_vBasePos;

  00052	8d b7 d4 0f 00
	00		 lea	 esi, DWORD PTR [edi+4052]
$LN10@CheckTarge:
  00058	81 c7 e0 0f 00
	00		 add	 edi, 4064		; 00000fe0H
  0005e	a5		 movsd
  0005f	a5		 movsd
  00060	a5		 movsd
  00061	5f		 pop	 edi
  00062	5e		 pop	 esi

; 503  : 	}
; 504  : 
; 505  : 	m_vTargetPos = m_vBasePos;
; 506  : 	return;
; 507  : }

  00063	5d		 pop	 ebp
  00064	c2 08 00	 ret	 8
?CheckTargetPos@ioTargetTeleportSkill@@IAEXPAVioBaseChar@@PAVioPlayStage@@@Z ENDP ; ioTargetTeleportSkill::CheckTargetPos
_TEXT	ENDS
PUBLIC	__$ArrayPad$
PUBLIC	?UpdateTargetMapEffect@ioTargetTeleportSkill@@IAEXPAVioPlayStage@@@Z ; ioTargetTeleportSkill::UpdateTargetMapEffect
EXTRN	?SetWorldPosition@ioMapEffect@@QAEXABUD3DXVECTOR3@@@Z:PROC ; ioMapEffect::SetWorldPosition
EXTRN	?FindMapEffect@ioPlayStage@@QAEPAVioMapEffect@@K@Z:PROC ; ioPlayStage::FindMapEffect
; Function compile flags: /Ogsp
;	COMDAT ?UpdateTargetMapEffect@ioTargetTeleportSkill@@IAEXPAVioPlayStage@@@Z
_TEXT	SEGMENT
_value$536547 = -24					; size = 4
_pMapEffect$ = -20					; size = 4
_vPos$531436 = -16					; size = 12
__$ArrayPad$ = -4					; size = 4
_pStage$ = 8						; size = 4
?UpdateTargetMapEffect@ioTargetTeleportSkill@@IAEXPAVioPlayStage@@@Z PROC ; ioTargetTeleportSkill::UpdateTargetMapEffect, COMDAT
; _this$ = ecx

; 541  : {

  00000	55		 push	 ebp
  00001	8b ec		 mov	 ebp, esp
  00003	83 ec 18	 sub	 esp, 24			; 00000018H
  00006	a1 00 00 00 00	 mov	 eax, DWORD PTR ___security_cookie
  0000b	33 c5		 xor	 eax, ebp
  0000d	89 45 fc	 mov	 DWORD PTR __$ArrayPad$[ebp], eax
  00010	53		 push	 ebx
  00011	8b d9		 mov	 ebx, ecx
  00013	8b 4d 08	 mov	 ecx, DWORD PTR _pStage$[ebp]

; 542  : 	if( !pStage )

  00016	85 c9		 test	 ecx, ecx
  00018	74 5a		 je	 SHORT $LN1@UpdateTarg

; 543  : 		return;
; 544  : 
; 545  : 	ioMapEffect *pMapEffect = pStage->FindMapEffect( m_dwTargetMapEffect );

  0001a	ff b3 8c 10 00
	00		 push	 DWORD PTR [ebx+4236]
  00020	e8 00 00 00 00	 call	 ?FindMapEffect@ioPlayStage@@QAEPAVioMapEffect@@K@Z ; ioPlayStage::FindMapEffect
  00025	89 45 ec	 mov	 DWORD PTR _pMapEffect$[ebp], eax

; 546  : 	if( pMapEffect )

  00028	85 c0		 test	 eax, eax
  0002a	74 48		 je	 SHORT $LN1@UpdateTarg

; 547  : 	{
; 548  : 		D3DXVECTOR3 vPos = m_vTargetPos;

  0002c	56		 push	 esi
  0002d	57		 push	 edi
  0002e	8d b3 e0 0f 00
	00		 lea	 esi, DWORD PTR [ebx+4064]
  00034	8d 7d f0	 lea	 edi, DWORD PTR _vPos$531436[ebp]
  00037	a5		 movsd
  00038	a5		 movsd

; 549  : 		vPos.y += m_fTargetOffSetHeight;

  00039	8d 45 e8	 lea	 eax, DWORD PTR _value$536547[ebp]
  0003c	50		 push	 eax
  0003d	8d 8b 3c 10 00
	00		 lea	 ecx, DWORD PTR [ebx+4156]
  00043	a5		 movsd
  00044	e8 00 00 00 00	 call	 ?DecryptValueToPool@?$CEncrypt@M@@QAEXPAM@Z ; CEncrypt<float>::DecryptValueToPool
  00049	f3 0f 10 4d f4	 movss	 xmm1, DWORD PTR _vPos$531436[ebp+4]
  0004e	f3 0f 10 45 e8	 movss	 xmm0, DWORD PTR _value$536547[ebp]

; 550  : 
; 551  : 		pMapEffect->SetWorldPosition( vPos );

  00053	8b 4d ec	 mov	 ecx, DWORD PTR _pMapEffect$[ebp]
  00056	0f 5a c0	 cvtps2pd xmm0, xmm0
  00059	0f 5a c9	 cvtps2pd xmm1, xmm1
  0005c	8d 45 f0	 lea	 eax, DWORD PTR _vPos$531436[ebp]
  0005f	f2 0f 58 c1	 addsd	 xmm0, xmm1
  00063	66 0f 5a c0	 cvtpd2ps xmm0, xmm0
  00067	50		 push	 eax
  00068	f3 0f 11 45 f4	 movss	 DWORD PTR _vPos$531436[ebp+4], xmm0
  0006d	e8 00 00 00 00	 call	 ?SetWorldPosition@ioMapEffect@@QAEXABUD3DXVECTOR3@@@Z ; ioMapEffect::SetWorldPosition
  00072	5f		 pop	 edi
  00073	5e		 pop	 esi
$LN1@UpdateTarg:

; 552  : 	}
; 553  : }

  00074	8b 4d fc	 mov	 ecx, DWORD PTR __$ArrayPad$[ebp]
  00077	33 cd		 xor	 ecx, ebp
  00079	5b		 pop	 ebx
  0007a	e8 00 00 00 00	 call	 @__security_check_cookie@4
  0007f	c9		 leave
  00080	c2 04 00	 ret	 4
?UpdateTargetMapEffect@ioTargetTeleportSkill@@IAEXPAVioPlayStage@@@Z ENDP ; ioTargetTeleportSkill::UpdateTargetMapEffect
_TEXT	ENDS
PUBLIC	??0?$CEncrypt@K@@QAE@ABV0@@Z			; CEncrypt<unsigned long>::CEncrypt<unsigned long>
;	COMDAT xdata$x
; File d:\lost saga for developer\youtube\tutorial\source\src\lsclient\encryptvalue.h
xdata$x	SEGMENT
__unwindtable$??0?$CEncrypt@K@@QAE@ABV0@@Z DD 0ffffffffH
	DD	FLAT:__unwindfunclet$??0?$CEncrypt@K@@QAE@ABV0@@Z$0
__ehfuncinfo$??0?$CEncrypt@K@@QAE@ABV0@@Z DD 019930522H
	DD	01H
	DD	FLAT:__unwindtable$??0?$CEncrypt@K@@QAE@ABV0@@Z
	DD	2 DUP(00H)
	DD	2 DUP(00H)
	DD	00H
	DD	01H
; Function compile flags: /Ogsp
xdata$x	ENDS
;	COMDAT ??0?$CEncrypt@K@@QAE@ABV0@@Z
_TEXT	SEGMENT
_this$ = -16						; size = 4
__$EHRec$ = -12						; size = 12
_value$536561 = 8					; size = 4
_value$536556 = 8					; size = 4
_inValue$ = 8						; size = 4
??0?$CEncrypt@K@@QAE@ABV0@@Z PROC			; CEncrypt<unsigned long>::CEncrypt<unsigned long>, COMDAT
; _this$ = ecx

; 120  : 	CEncrypt( const CEncrypt<type> &inValue )   //     

  00000	6a 04		 push	 4
  00002	b8 00 00 00 00	 mov	 eax, __ehhandler$??0?$CEncrypt@K@@QAE@ABV0@@Z
  00007	e8 00 00 00 00	 call	 __EH_prolog3
  0000c	8b f1		 mov	 esi, ecx
  0000e	89 75 f0	 mov	 DWORD PTR _this$[ebp], esi
  00011	8d 4e 0c	 lea	 ecx, DWORD PTR [esi+12]
  00014	c7 06 00 00 00
	00		 mov	 DWORD PTR [esi], OFFSET ??_7?$CEncrypt@K@@6B@
  0001a	e8 00 00 00 00	 call	 ??0ccddaabb@@QAE@XZ	; ccddaabb::ccddaabb
  0001f	83 65 fc 00	 and	 DWORD PTR __$EHRec$[ebp+8], 0

; 121  : 	{
; 122  : 		Init();

  00023	8b ce		 mov	 ecx, esi
  00025	e8 00 00 00 00	 call	 ?Init@?$CEncrypt@K@@AAEXXZ ; CEncrypt<unsigned long>::Init

; 123  : 		*this = inValue;

  0002a	8b 4d 08	 mov	 ecx, DWORD PTR _inValue$[ebp]
  0002d	8d 45 08	 lea	 eax, DWORD PTR _value$536556[ebp]
  00030	50		 push	 eax
  00031	e8 00 00 00 00	 call	 ?DecryptValueToPool@?$CEncrypt@K@@QAEXPAK@Z ; CEncrypt<unsigned long>::DecryptValueToPool
  00036	8b 45 08	 mov	 eax, DWORD PTR _value$536556[ebp]
  00039	89 45 08	 mov	 DWORD PTR _value$536561[ebp], eax
  0003c	8d 45 08	 lea	 eax, DWORD PTR _value$536561[ebp]
  0003f	50		 push	 eax
  00040	8b ce		 mov	 ecx, esi
  00042	e8 00 00 00 00	 call	 ?EncryptValueToPool@?$CEncrypt@K@@AAEXPBD@Z ; CEncrypt<unsigned long>::EncryptValueToPool

; 124  : 	}

  00047	8b c6		 mov	 eax, esi
  00049	e8 00 00 00 00	 call	 __EH_epilog3
  0004e	c2 04 00	 ret	 4
_TEXT	ENDS
;	COMDAT text$x
text$x	SEGMENT
__unwindfunclet$??0?$CEncrypt@K@@QAE@ABV0@@Z$0:
  00000	8b 4d f0	 mov	 ecx, DWORD PTR _this$[ebp]
  00003	83 c1 0c	 add	 ecx, 12			; 0000000cH
  00006	e9 00 00 00 00	 jmp	 ??1ccddaabb@@UAE@XZ	; ccddaabb::~ccddaabb
__ehhandler$??0?$CEncrypt@K@@QAE@ABV0@@Z:
  0000b	8b 54 24 08	 mov	 edx, DWORD PTR [esp+8]
  0000f	8d 42 0c	 lea	 eax, DWORD PTR [edx+12]
  00012	8b 4a ec	 mov	 ecx, DWORD PTR [edx-20]
  00015	33 c8		 xor	 ecx, eax
  00017	e8 00 00 00 00	 call	 @__security_check_cookie@4
  0001c	b8 00 00 00 00	 mov	 eax, OFFSET __ehfuncinfo$??0?$CEncrypt@K@@QAE@ABV0@@Z
  00021	e9 00 00 00 00	 jmp	 ___CxxFrameHandler3
text$x	ENDS
??0?$CEncrypt@K@@QAE@ABV0@@Z ENDP			; CEncrypt<unsigned long>::CEncrypt<unsigned long>
PUBLIC	??0?$vector@UtagBaseCharDistanceSq@@V?$allocator@UtagBaseCharDistanceSq@@@std@@@std@@QAE@XZ ; std::vector<tagBaseCharDistanceSq,std::allocator<tagBaseCharDistanceSq> >::vector<tagBaseCharDistanceSq,std::allocator<tagBaseCharDistanceSq> >
; Function compile flags: /Ogsp
; File c:\program files (x86)\microsoft visual studio 10.0\vc\include\vector
;	COMDAT ??0?$vector@UtagBaseCharDistanceSq@@V?$allocator@UtagBaseCharDistanceSq@@@std@@@std@@QAE@XZ
_TEXT	SEGMENT
??0?$vector@UtagBaseCharDistanceSq@@V?$allocator@UtagBaseCharDistanceSq@@@std@@@std@@QAE@XZ PROC ; std::vector<tagBaseCharDistanceSq,std::allocator<tagBaseCharDistanceSq> >::vector<tagBaseCharDistanceSq,std::allocator<tagBaseCharDistanceSq> >, COMDAT
; _this$ = ecx

; 507  : 		{	// construct empty vector

  00000	8b c1		 mov	 eax, ecx
  00002	33 c9		 xor	 ecx, ecx
  00004	89 08		 mov	 DWORD PTR [eax], ecx
  00006	89 48 04	 mov	 DWORD PTR [eax+4], ecx
  00009	89 48 08	 mov	 DWORD PTR [eax+8], ecx

; 508  : 		}

  0000c	c3		 ret	 0
??0?$vector@UtagBaseCharDistanceSq@@V?$allocator@UtagBaseCharDistanceSq@@@std@@@std@@QAE@XZ ENDP ; std::vector<tagBaseCharDistanceSq,std::allocator<tagBaseCharDistanceSq> >::vector<tagBaseCharDistanceSq,std::allocator<tagBaseCharDistanceSq> >
_TEXT	ENDS
PUBLIC	?begin@?$vector@UtagBaseCharDistanceSq@@V?$allocator@UtagBaseCharDistanceSq@@@std@@@std@@QAE?AV?$_Vector_iterator@V?$_Vector_val@UtagBaseCharDistanceSq@@V?$allocator@UtagBaseCharDistanceSq@@@std@@@std@@@2@XZ ; std::vector<tagBaseCharDistanceSq,std::allocator<tagBaseCharDistanceSq> >::begin
; Function compile flags: /Ogsp
;	COMDAT ?begin@?$vector@UtagBaseCharDistanceSq@@V?$allocator@UtagBaseCharDistanceSq@@@std@@@std@@QAE?AV?$_Vector_iterator@V?$_Vector_val@UtagBaseCharDistanceSq@@V?$allocator@UtagBaseCharDistanceSq@@@std@@@std@@@2@XZ
_TEXT	SEGMENT
___$ReturnUdt$ = 8					; size = 4
?begin@?$vector@UtagBaseCharDistanceSq@@V?$allocator@UtagBaseCharDistanceSq@@@std@@@std@@QAE?AV?$_Vector_iterator@V?$_Vector_val@UtagBaseCharDistanceSq@@V?$allocator@UtagBaseCharDistanceSq@@@std@@@std@@@2@XZ PROC ; std::vector<tagBaseCharDistanceSq,std::allocator<tagBaseCharDistanceSq> >::begin, COMDAT
; _this$ = ecx

; 781  : 		{	// return iterator for beginning of mutable sequence

  00000	55		 push	 ebp
  00001	8b ec		 mov	 ebp, esp

; 782  : 		return (iterator(this->_Myfirst, this));

  00003	8b 09		 mov	 ecx, DWORD PTR [ecx]
  00005	8b 45 08	 mov	 eax, DWORD PTR ___$ReturnUdt$[ebp]
  00008	89 08		 mov	 DWORD PTR [eax], ecx

; 783  : 		}

  0000a	5d		 pop	 ebp
  0000b	c2 04 00	 ret	 4
?begin@?$vector@UtagBaseCharDistanceSq@@V?$allocator@UtagBaseCharDistanceSq@@@std@@@std@@QAE?AV?$_Vector_iterator@V?$_Vector_val@UtagBaseCharDistanceSq@@V?$allocator@UtagBaseCharDistanceSq@@@std@@@std@@@2@XZ ENDP ; std::vector<tagBaseCharDistanceSq,std::allocator<tagBaseCharDistanceSq> >::begin
_TEXT	ENDS
PUBLIC	?end@?$vector@UtagBaseCharDistanceSq@@V?$allocator@UtagBaseCharDistanceSq@@@std@@@std@@QAE?AV?$_Vector_iterator@V?$_Vector_val@UtagBaseCharDistanceSq@@V?$allocator@UtagBaseCharDistanceSq@@@std@@@std@@@2@XZ ; std::vector<tagBaseCharDistanceSq,std::allocator<tagBaseCharDistanceSq> >::end
; Function compile flags: /Ogsp
;	COMDAT ?end@?$vector@UtagBaseCharDistanceSq@@V?$allocator@UtagBaseCharDistanceSq@@@std@@@std@@QAE?AV?$_Vector_iterator@V?$_Vector_val@UtagBaseCharDistanceSq@@V?$allocator@UtagBaseCharDistanceSq@@@std@@@std@@@2@XZ
_TEXT	SEGMENT
___$ReturnUdt$ = 8					; size = 4
?end@?$vector@UtagBaseCharDistanceSq@@V?$allocator@UtagBaseCharDistanceSq@@@std@@@std@@QAE?AV?$_Vector_iterator@V?$_Vector_val@UtagBaseCharDistanceSq@@V?$allocator@UtagBaseCharDistanceSq@@@std@@@std@@@2@XZ PROC ; std::vector<tagBaseCharDistanceSq,std::allocator<tagBaseCharDistanceSq> >::end, COMDAT
; _this$ = ecx

; 791  : 		{	// return iterator for end of mutable sequence

  00000	55		 push	 ebp
  00001	8b ec		 mov	 ebp, esp

; 792  : 		return (iterator(this->_Mylast, this));

  00003	8b 49 04	 mov	 ecx, DWORD PTR [ecx+4]
  00006	8b 45 08	 mov	 eax, DWORD PTR ___$ReturnUdt$[ebp]
  00009	89 08		 mov	 DWORD PTR [eax], ecx

; 793  : 		}

  0000b	5d		 pop	 ebp
  0000c	c2 04 00	 ret	 4
?end@?$vector@UtagBaseCharDistanceSq@@V?$allocator@UtagBaseCharDistanceSq@@@std@@@std@@QAE?AV?$_Vector_iterator@V?$_Vector_val@UtagBaseCharDistanceSq@@V?$allocator@UtagBaseCharDistanceSq@@@std@@@std@@@2@XZ ENDP ; std::vector<tagBaseCharDistanceSq,std::allocator<tagBaseCharDistanceSq> >::end
_TEXT	ENDS
PUBLIC	??9?$_Vector_const_iterator@V?$_Vector_val@PAVioBaseChar@@V?$allocator@PAVioBaseChar@@@std@@@std@@@std@@QBE_NABV01@@Z ; std::_Vector_const_iterator<std::_Vector_val<ioBaseChar *,std::allocator<ioBaseChar *> > >::operator!=
; Function compile flags: /Ogsp
;	COMDAT ??9?$_Vector_const_iterator@V?$_Vector_val@PAVioBaseChar@@V?$allocator@PAVioBaseChar@@@std@@@std@@@std@@QBE_NABV01@@Z
_TEXT	SEGMENT
__Right$ = 8						; size = 4
??9?$_Vector_const_iterator@V?$_Vector_val@PAVioBaseChar@@V?$allocator@PAVioBaseChar@@@std@@@std@@@std@@QBE_NABV01@@Z PROC ; std::_Vector_const_iterator<std::_Vector_val<ioBaseChar *,std::allocator<ioBaseChar *> > >::operator!=, COMDAT
; _this$ = ecx

; 207  : 		{	// test for iterator inequality

  00000	55		 push	 ebp
  00001	8b ec		 mov	 ebp, esp

; 208  : 		return (!(*this == _Right));

  00003	8b 01		 mov	 eax, DWORD PTR [ecx]
  00005	8b 55 08	 mov	 edx, DWORD PTR __Right$[ebp]
  00008	33 c9		 xor	 ecx, ecx
  0000a	3b 02		 cmp	 eax, DWORD PTR [edx]
  0000c	0f 95 c0	 setne	 al

; 209  : 		}

  0000f	5d		 pop	 ebp
  00010	c2 04 00	 ret	 4
??9?$_Vector_const_iterator@V?$_Vector_val@PAVioBaseChar@@V?$allocator@PAVioBaseChar@@@std@@@std@@@std@@QBE_NABV01@@Z ENDP ; std::_Vector_const_iterator<std::_Vector_val<ioBaseChar *,std::allocator<ioBaseChar *> > >::operator!=
_TEXT	ENDS
PUBLIC	?_Grow_to@?$vector@VioHashString@@V?$allocator@VioHashString@@@std@@@std@@IBEII@Z ; std::vector<ioHashString,std::allocator<ioHashString> >::_Grow_to
; Function compile flags: /Ogsp
;	COMDAT ?_Grow_to@?$vector@VioHashString@@V?$allocator@VioHashString@@@std@@@std@@IBEII@Z
_TEXT	SEGMENT
__Count$ = 8						; size = 4
?_Grow_to@?$vector@VioHashString@@V?$allocator@VioHashString@@@std@@@std@@IBEII@Z PROC ; std::vector<ioHashString,std::allocator<ioHashString> >::_Grow_to, COMDAT
; _this$ = ecx

; 1274 : 		{	// grow by 50% or at least to _Count

  00000	55		 push	 ebp
  00001	8b ec		 mov	 ebp, esp

; 1275 : 		size_type _Capacity = capacity();

  00003	8b 41 08	 mov	 eax, DWORD PTR [ecx+8]
  00006	2b 01		 sub	 eax, DWORD PTR [ecx]

; 1276 : 
; 1277 : 		_Capacity = max_size() - _Capacity / 2 < _Capacity
; 1278 : 			? 0 : _Capacity + _Capacity / 2;	// try to grow by 50%

  00008	ba ff ff ff 0f	 mov	 edx, 268435455		; 0fffffffH
  0000d	c1 f8 04	 sar	 eax, 4
  00010	8b c8		 mov	 ecx, eax
  00012	d1 e9		 shr	 ecx, 1
  00014	2b d1		 sub	 edx, ecx
  00016	3b d0		 cmp	 edx, eax
  00018	73 04		 jae	 SHORT $LN4@Grow_to@2
  0001a	33 c0		 xor	 eax, eax
  0001c	eb 02		 jmp	 SHORT $LN5@Grow_to@2
$LN4@Grow_to@2:
  0001e	03 c1		 add	 eax, ecx
$LN5@Grow_to@2:

; 1279 : 		if (_Capacity < _Count)

  00020	3b 45 08	 cmp	 eax, DWORD PTR __Count$[ebp]

; 1280 : 			_Capacity = _Count;

  00023	0f 42 45 08	 cmovb	 eax, DWORD PTR __Count$[ebp]

; 1281 : 		return (_Capacity);
; 1282 : 		}

  00027	5d		 pop	 ebp
  00028	c2 04 00	 ret	 4
?_Grow_to@?$vector@VioHashString@@V?$allocator@VioHashString@@@std@@@std@@IBEII@Z ENDP ; std::vector<ioHashString,std::allocator<ioHashString> >::_Grow_to
_TEXT	ENDS
PUBLIC	??$_Cons_val@V?$allocator@VioHashString@@@std@@VioHashString@@AAV3@@std@@YAXAAV?$allocator@VioHashString@@@0@PAVioHashString@@AAV2@@Z ; std::_Cons_val<std::allocator<ioHashString>,ioHashString,ioHashString &>
; Function compile flags: /Ogsp
; File c:\program files (x86)\microsoft visual studio 10.0\vc\include\xmemory
;	COMDAT ??$_Cons_val@V?$allocator@VioHashString@@@std@@VioHashString@@AAV3@@std@@YAXAAV?$allocator@VioHashString@@@0@PAVioHashString@@AAV2@@Z
_TEXT	SEGMENT
__Alval$ = 8						; size = 4
__Pdest$ = 12						; size = 4
__Src$ = 16						; size = 4
??$_Cons_val@V?$allocator@VioHashString@@@std@@VioHashString@@AAV3@@std@@YAXAAV?$allocator@VioHashString@@@0@PAVioHashString@@AAV2@@Z PROC ; std::_Cons_val<std::allocator<ioHashString>,ioHashString,ioHashString &>, COMDAT

; 279  : 	{	// construct using allocator

  00000	55		 push	 ebp
  00001	8b ec		 mov	 ebp, esp

; 280  : 	_Alval.construct(_Pdest, _STD forward<_Ty2>(_Src));

  00003	ff 75 10	 push	 DWORD PTR __Src$[ebp]
  00006	8b 4d 08	 mov	 ecx, DWORD PTR __Alval$[ebp]
  00009	ff 75 0c	 push	 DWORD PTR __Pdest$[ebp]
  0000c	e8 00 00 00 00	 call	 ??$construct@AAVioHashString@@@?$allocator@VioHashString@@@std@@QAEXPAVioHashString@@AAV2@@Z ; std::allocator<ioHashString>::construct<ioHashString &>

; 281  : 	}

  00011	5d		 pop	 ebp
  00012	c3		 ret	 0
??$_Cons_val@V?$allocator@VioHashString@@@std@@VioHashString@@AAV3@@std@@YAXAAV?$allocator@VioHashString@@@0@PAVioHashString@@AAV2@@Z ENDP ; std::_Cons_val<std::allocator<ioHashString>,ioHashString,ioHashString &>
_TEXT	ENDS
PUBLIC	??$_Cons_val@V?$allocator@UtagBaseCharDistanceSq@@@std@@UtagBaseCharDistanceSq@@AAU3@@std@@YAXAAV?$allocator@UtagBaseCharDistanceSq@@@0@PAUtagBaseCharDistanceSq@@AAU2@@Z ; std::_Cons_val<std::allocator<tagBaseCharDistanceSq>,tagBaseCharDistanceSq,tagBaseCharDistanceSq &>
;	COMDAT xdata$x
; File c:\program files (x86)\microsoft visual studio 10.0\vc\include\utility
xdata$x	SEGMENT
__unwindtable$??$_Cons_val@V?$allocator@UtagBaseCharDistanceSq@@@std@@UtagBaseCharDistanceSq@@AAU3@@std@@YAXAAV?$allocator@UtagBaseCharDistanceSq@@@0@PAUtagBaseCharDistanceSq@@AAU2@@Z DD 0ffffffffH
	DD	FLAT:__unwindfunclet$??$_Cons_val@V?$allocator@UtagBaseCharDistanceSq@@@std@@UtagBaseCharDistanceSq@@AAU3@@std@@YAXAAV?$allocator@UtagBaseCharDistanceSq@@@0@PAUtagBaseCharDistanceSq@@AAU2@@Z$0
__ehfuncinfo$??$_Cons_val@V?$allocator@UtagBaseCharDistanceSq@@@std@@UtagBaseCharDistanceSq@@AAU3@@std@@YAXAAV?$allocator@UtagBaseCharDistanceSq@@@0@PAUtagBaseCharDistanceSq@@AAU2@@Z DD 019930522H
	DD	01H
	DD	FLAT:__unwindtable$??$_Cons_val@V?$allocator@UtagBaseCharDistanceSq@@@std@@UtagBaseCharDistanceSq@@AAU3@@std@@YAXAAV?$allocator@UtagBaseCharDistanceSq@@@0@PAUtagBaseCharDistanceSq@@AAU2@@Z
	DD	2 DUP(00H)
	DD	2 DUP(00H)
	DD	00H
	DD	01H
; Function compile flags: /Ogsp
; File c:\program files (x86)\microsoft visual studio 10.0\vc\include\xmemory
xdata$x	ENDS
;	COMDAT ??$_Cons_val@V?$allocator@UtagBaseCharDistanceSq@@@std@@UtagBaseCharDistanceSq@@AAU3@@std@@YAXAAV?$allocator@UtagBaseCharDistanceSq@@@0@PAUtagBaseCharDistanceSq@@AAU2@@Z
_TEXT	SEGMENT
$T536680 = -16						; size = 4
__$EHRec$ = -12						; size = 12
__Alval$ = 8						; size = 4
__Pdest$ = 12						; size = 4
__Src$ = 16						; size = 4
??$_Cons_val@V?$allocator@UtagBaseCharDistanceSq@@@std@@UtagBaseCharDistanceSq@@AAU3@@std@@YAXAAV?$allocator@UtagBaseCharDistanceSq@@@0@PAUtagBaseCharDistanceSq@@AAU2@@Z PROC ; std::_Cons_val<std::allocator<tagBaseCharDistanceSq>,tagBaseCharDistanceSq,tagBaseCharDistanceSq &>, COMDAT

; 279  : 	{	// construct using allocator

  00000	6a 04		 push	 4
  00002	b8 00 00 00 00	 mov	 eax, __ehhandler$??$_Cons_val@V?$allocator@UtagBaseCharDistanceSq@@@std@@UtagBaseCharDistanceSq@@AAU3@@std@@YAXAAV?$allocator@UtagBaseCharDistanceSq@@@0@PAUtagBaseCharDistanceSq@@AAU2@@Z
  00007	e8 00 00 00 00	 call	 __EH_prolog3

; 280  : 	_Alval.construct(_Pdest, _STD forward<_Ty2>(_Src));

  0000c	8b 4d 0c	 mov	 ecx, DWORD PTR __Pdest$[ebp]
  0000f	89 4d f0	 mov	 DWORD PTR $T536680[ebp], ecx
  00012	83 65 fc 00	 and	 DWORD PTR __$EHRec$[ebp+8], 0
  00016	85 c9		 test	 ecx, ecx
  00018	74 08		 je	 SHORT $LN7@Cons_val
  0001a	ff 75 10	 push	 DWORD PTR __Src$[ebp]
  0001d	e8 00 00 00 00	 call	 ??0tagBaseCharDistanceSq@@QAE@ABU0@@Z
$LN7@Cons_val:

; 281  : 	}

  00022	e8 00 00 00 00	 call	 __EH_epilog3
  00027	c3		 ret	 0
_TEXT	ENDS
;	COMDAT text$x
text$x	SEGMENT
__unwindfunclet$??$_Cons_val@V?$allocator@UtagBaseCharDistanceSq@@@std@@UtagBaseCharDistanceSq@@AAU3@@std@@YAXAAV?$allocator@UtagBaseCharDistanceSq@@@0@PAUtagBaseCharDistanceSq@@AAU2@@Z$0:
  00000	ff 75 0c	 push	 DWORD PTR __Pdest$[ebp]
  00003	ff 75 f0	 push	 DWORD PTR $T536680[ebp]
  00006	e8 00 00 00 00	 call	 ??3@YAXPAX0@Z		; operator delete
  0000b	59		 pop	 ecx
  0000c	59		 pop	 ecx
  0000d	c3		 ret	 0
__ehhandler$??$_Cons_val@V?$allocator@UtagBaseCharDistanceSq@@@std@@UtagBaseCharDistanceSq@@AAU3@@std@@YAXAAV?$allocator@UtagBaseCharDistanceSq@@@0@PAUtagBaseCharDistanceSq@@AAU2@@Z:
  0000e	8b 54 24 08	 mov	 edx, DWORD PTR [esp+8]
  00012	8d 42 0c	 lea	 eax, DWORD PTR [edx+12]
  00015	8b 4a ec	 mov	 ecx, DWORD PTR [edx-20]
  00018	33 c8		 xor	 ecx, eax
  0001a	e8 00 00 00 00	 call	 @__security_check_cookie@4
  0001f	b8 00 00 00 00	 mov	 eax, OFFSET __ehfuncinfo$??$_Cons_val@V?$allocator@UtagBaseCharDistanceSq@@@std@@UtagBaseCharDistanceSq@@AAU3@@std@@YAXAAV?$allocator@UtagBaseCharDistanceSq@@@0@PAUtagBaseCharDistanceSq@@AAU2@@Z
  00024	e9 00 00 00 00	 jmp	 ___CxxFrameHandler3
text$x	ENDS
??$_Cons_val@V?$allocator@UtagBaseCharDistanceSq@@@std@@UtagBaseCharDistanceSq@@AAU3@@std@@YAXAAV?$allocator@UtagBaseCharDistanceSq@@@0@PAUtagBaseCharDistanceSq@@AAU2@@Z ENDP ; std::_Cons_val<std::allocator<tagBaseCharDistanceSq>,tagBaseCharDistanceSq,tagBaseCharDistanceSq &>
PUBLIC	?construct@?$allocator@UtagBaseCharDistanceSq@@@std@@QAEXPAUtagBaseCharDistanceSq@@ABU3@@Z ; std::allocator<tagBaseCharDistanceSq>::construct
; Function compile flags: /Ogsp
;	COMDAT ?construct@?$allocator@UtagBaseCharDistanceSq@@@std@@QAEXPAUtagBaseCharDistanceSq@@ABU3@@Z
_TEXT	SEGMENT
__Ptr$ = 8						; size = 4
__Val$ = 12						; size = 4
?construct@?$allocator@UtagBaseCharDistanceSq@@@std@@QAEXPAUtagBaseCharDistanceSq@@ABU3@@Z PROC ; std::allocator<tagBaseCharDistanceSq>::construct, COMDAT
; _this$ = ecx

; 196  : 		{	// construct object at _Ptr with value _Val

  00000	55		 push	 ebp
  00001	8b ec		 mov	 ebp, esp

; 197  : 		_Construct(_Ptr, _Val);

  00003	ff 75 0c	 push	 DWORD PTR __Val$[ebp]
  00006	ff 75 08	 push	 DWORD PTR __Ptr$[ebp]
  00009	e8 00 00 00 00	 call	 ??$_Construct@UtagBaseCharDistanceSq@@ABU1@@std@@YAXPAUtagBaseCharDistanceSq@@ABU1@@Z ; std::_Construct<tagBaseCharDistanceSq,tagBaseCharDistanceSq const &>
  0000e	59		 pop	 ecx
  0000f	59		 pop	 ecx

; 198  : 		}

  00010	5d		 pop	 ebp
  00011	c2 08 00	 ret	 8
?construct@?$allocator@UtagBaseCharDistanceSq@@@std@@QAEXPAUtagBaseCharDistanceSq@@ABU3@@Z ENDP ; std::allocator<tagBaseCharDistanceSq>::construct
_TEXT	ENDS
PUBLIC	??G?$_Vector_iterator@V?$_Vector_val@UtagBaseCharDistanceSq@@V?$allocator@UtagBaseCharDistanceSq@@@std@@@std@@@std@@QBEHABV?$_Vector_const_iterator@V?$_Vector_val@UtagBaseCharDistanceSq@@V?$allocator@UtagBaseCharDistanceSq@@@std@@@std@@@1@@Z ; std::_Vector_iterator<std::_Vector_val<tagBaseCharDistanceSq,std::allocator<tagBaseCharDistanceSq> > >::operator-
; Function compile flags: /Ogsp
; File c:\program files (x86)\microsoft visual studio 10.0\vc\include\vector
;	COMDAT ??G?$_Vector_iterator@V?$_Vector_val@UtagBaseCharDistanceSq@@V?$allocator@UtagBaseCharDistanceSq@@@std@@@std@@@std@@QBEHABV?$_Vector_const_iterator@V?$_Vector_val@UtagBaseCharDistanceSq@@V?$allocator@UtagBaseCharDistanceSq@@@std@@@std@@@1@@Z
_TEXT	SEGMENT
__Right$ = 8						; size = 4
??G?$_Vector_iterator@V?$_Vector_val@UtagBaseCharDistanceSq@@V?$allocator@UtagBaseCharDistanceSq@@@std@@@std@@@std@@QBEHABV?$_Vector_const_iterator@V?$_Vector_val@UtagBaseCharDistanceSq@@V?$allocator@UtagBaseCharDistanceSq@@@std@@@std@@@1@@Z PROC ; std::_Vector_iterator<std::_Vector_val<tagBaseCharDistanceSq,std::allocator<tagBaseCharDistanceSq> > >::operator-, COMDAT
; _this$ = ecx

; 380  : 		{	// return difference of iterators

  00000	55		 push	 ebp
  00001	8b ec		 mov	 ebp, esp

; 381  : 		return (*(_Mybase *)this - _Right);

  00003	8b 01		 mov	 eax, DWORD PTR [ecx]
  00005	8b 4d 08	 mov	 ecx, DWORD PTR __Right$[ebp]
  00008	2b 01		 sub	 eax, DWORD PTR [ecx]
  0000a	c1 f8 05	 sar	 eax, 5

; 382  : 		}

  0000d	5d		 pop	 ebp
  0000e	c2 04 00	 ret	 4
??G?$_Vector_iterator@V?$_Vector_val@UtagBaseCharDistanceSq@@V?$allocator@UtagBaseCharDistanceSq@@@std@@@std@@@std@@QBEHABV?$_Vector_const_iterator@V?$_Vector_val@UtagBaseCharDistanceSq@@V?$allocator@UtagBaseCharDistanceSq@@@std@@@std@@@1@@Z ENDP ; std::_Vector_iterator<std::_Vector_val<tagBaseCharDistanceSq,std::allocator<tagBaseCharDistanceSq> > >::operator-
_TEXT	ENDS
PUBLIC	?destroy@?$allocator@UtagBaseCharDistanceSq@@@std@@QAEXPAUtagBaseCharDistanceSq@@@Z ; std::allocator<tagBaseCharDistanceSq>::destroy
; Function compile flags: /Ogsp
; File c:\program files (x86)\microsoft visual studio 10.0\vc\include\xmemory
;	COMDAT ?destroy@?$allocator@UtagBaseCharDistanceSq@@@std@@QAEXPAUtagBaseCharDistanceSq@@@Z
_TEXT	SEGMENT
__Ptr$ = 8						; size = 4
?destroy@?$allocator@UtagBaseCharDistanceSq@@@std@@QAEXPAUtagBaseCharDistanceSq@@@Z PROC ; std::allocator<tagBaseCharDistanceSq>::destroy, COMDAT
; _this$ = ecx

; 212  : 		{	// destroy object at _Ptr

  00000	55		 push	 ebp
  00001	8b ec		 mov	 ebp, esp

; 213  : 		_Destroy(_Ptr);

  00003	8b 4d 08	 mov	 ecx, DWORD PTR __Ptr$[ebp]
  00006	ff 15 00 00 00
	00		 call	 DWORD PTR __imp_??1ioHashString@@QAE@XZ

; 214  : 		}

  0000c	5d		 pop	 ebp
  0000d	c2 04 00	 ret	 4
?destroy@?$allocator@UtagBaseCharDistanceSq@@@std@@QAEXPAUtagBaseCharDistanceSq@@@Z ENDP ; std::allocator<tagBaseCharDistanceSq>::destroy
_TEXT	ENDS
PUBLIC	??$iter_swap@PAUtagBaseCharDistanceSq@@PAU1@@std@@YAXPAUtagBaseCharDistanceSq@@0@Z ; std::iter_swap<tagBaseCharDistanceSq *,tagBaseCharDistanceSq *>
; Function compile flags: /Ogsp
; File c:\program files (x86)\microsoft visual studio 10.0\vc\include\xutility
;	COMDAT ??$iter_swap@PAUtagBaseCharDistanceSq@@PAU1@@std@@YAXPAUtagBaseCharDistanceSq@@0@Z
_TEXT	SEGMENT
__Left$ = 8						; size = 4
__Right$ = 12						; size = 4
??$iter_swap@PAUtagBaseCharDistanceSq@@PAU1@@std@@YAXPAUtagBaseCharDistanceSq@@0@Z PROC ; std::iter_swap<tagBaseCharDistanceSq *,tagBaseCharDistanceSq *>, COMDAT

; 2133 : 	{	// swap *_Left and *_Right

  00000	55		 push	 ebp
  00001	8b ec		 mov	 ebp, esp

; 2135 : 	}

  00003	5d		 pop	 ebp

; 2134 : 	swap(*_Left, *_Right);

  00004	e9 00 00 00 00	 jmp	 ??$swap@UtagBaseCharDistanceSq@@@std@@YAXAAUtagBaseCharDistanceSq@@0@Z ; std::swap<tagBaseCharDistanceSq>
??$iter_swap@PAUtagBaseCharDistanceSq@@PAU1@@std@@YAXPAUtagBaseCharDistanceSq@@0@Z ENDP ; std::iter_swap<tagBaseCharDistanceSq *,tagBaseCharDistanceSq *>
_TEXT	ENDS
PUBLIC	??$_Cons_val@V?$allocator@VioHashString@@@std@@VioHashString@@V3@@std@@YAXAAV?$allocator@VioHashString@@@0@PAVioHashString@@$$QAV2@@Z ; std::_Cons_val<std::allocator<ioHashString>,ioHashString,ioHashString>
; Function compile flags: /Ogsp
; File c:\program files (x86)\microsoft visual studio 10.0\vc\include\xmemory
;	COMDAT ??$_Cons_val@V?$allocator@VioHashString@@@std@@VioHashString@@V3@@std@@YAXAAV?$allocator@VioHashString@@@0@PAVioHashString@@$$QAV2@@Z
_TEXT	SEGMENT
__Alval$ = 8						; size = 4
__Pdest$ = 12						; size = 4
__Src$ = 16						; size = 4
??$_Cons_val@V?$allocator@VioHashString@@@std@@VioHashString@@V3@@std@@YAXAAV?$allocator@VioHashString@@@0@PAVioHashString@@$$QAV2@@Z PROC ; std::_Cons_val<std::allocator<ioHashString>,ioHashString,ioHashString>, COMDAT

; 279  : 	{	// construct using allocator

  00000	55		 push	 ebp
  00001	8b ec		 mov	 ebp, esp

; 280  : 	_Alval.construct(_Pdest, _STD forward<_Ty2>(_Src));

  00003	ff 75 10	 push	 DWORD PTR __Src$[ebp]
  00006	8b 4d 08	 mov	 ecx, DWORD PTR __Alval$[ebp]
  00009	ff 75 0c	 push	 DWORD PTR __Pdest$[ebp]
  0000c	e8 00 00 00 00	 call	 ?construct@?$allocator@VioHashString@@@std@@QAEXPAVioHashString@@$$QAV3@@Z ; std::allocator<ioHashString>::construct

; 281  : 	}

  00011	5d		 pop	 ebp
  00012	c3		 ret	 0
??$_Cons_val@V?$allocator@VioHashString@@@std@@VioHashString@@V3@@std@@YAXAAV?$allocator@VioHashString@@@0@PAVioHashString@@$$QAV2@@Z ENDP ; std::_Cons_val<std::allocator<ioHashString>,ioHashString,ioHashString>
_TEXT	ENDS
PUBLIC	??$_Cons_val@V?$allocator@UtagBaseCharDistanceSq@@@std@@UtagBaseCharDistanceSq@@U3@@std@@YAXAAV?$allocator@UtagBaseCharDistanceSq@@@0@PAUtagBaseCharDistanceSq@@$$QAU2@@Z ; std::_Cons_val<std::allocator<tagBaseCharDistanceSq>,tagBaseCharDistanceSq,tagBaseCharDistanceSq>
;	COMDAT xdata$x
; File c:\program files (x86)\microsoft visual studio 10.0\vc\include\utility
xdata$x	SEGMENT
__unwindtable$??$_Cons_val@V?$allocator@UtagBaseCharDistanceSq@@@std@@UtagBaseCharDistanceSq@@U3@@std@@YAXAAV?$allocator@UtagBaseCharDistanceSq@@@0@PAUtagBaseCharDistanceSq@@$$QAU2@@Z DD 0ffffffffH
	DD	FLAT:__unwindfunclet$??$_Cons_val@V?$allocator@UtagBaseCharDistanceSq@@@std@@UtagBaseCharDistanceSq@@U3@@std@@YAXAAV?$allocator@UtagBaseCharDistanceSq@@@0@PAUtagBaseCharDistanceSq@@$$QAU2@@Z$0
__ehfuncinfo$??$_Cons_val@V?$allocator@UtagBaseCharDistanceSq@@@std@@UtagBaseCharDistanceSq@@U3@@std@@YAXAAV?$allocator@UtagBaseCharDistanceSq@@@0@PAUtagBaseCharDistanceSq@@$$QAU2@@Z DD 019930522H
	DD	01H
	DD	FLAT:__unwindtable$??$_Cons_val@V?$allocator@UtagBaseCharDistanceSq@@@std@@UtagBaseCharDistanceSq@@U3@@std@@YAXAAV?$allocator@UtagBaseCharDistanceSq@@@0@PAUtagBaseCharDistanceSq@@$$QAU2@@Z
	DD	2 DUP(00H)
	DD	2 DUP(00H)
	DD	00H
	DD	01H
; Function compile flags: /Ogsp
; File c:\program files (x86)\microsoft visual studio 10.0\vc\include\xmemory
xdata$x	ENDS
;	COMDAT ??$_Cons_val@V?$allocator@UtagBaseCharDistanceSq@@@std@@UtagBaseCharDistanceSq@@U3@@std@@YAXAAV?$allocator@UtagBaseCharDistanceSq@@@0@PAUtagBaseCharDistanceSq@@$$QAU2@@Z
_TEXT	SEGMENT
$T536754 = -16						; size = 4
__$EHRec$ = -12						; size = 12
__Alval$ = 8						; size = 4
__Pdest$ = 12						; size = 4
__Src$ = 16						; size = 4
??$_Cons_val@V?$allocator@UtagBaseCharDistanceSq@@@std@@UtagBaseCharDistanceSq@@U3@@std@@YAXAAV?$allocator@UtagBaseCharDistanceSq@@@0@PAUtagBaseCharDistanceSq@@$$QAU2@@Z PROC ; std::_Cons_val<std::allocator<tagBaseCharDistanceSq>,tagBaseCharDistanceSq,tagBaseCharDistanceSq>, COMDAT

; 279  : 	{	// construct using allocator

  00000	6a 04		 push	 4
  00002	b8 00 00 00 00	 mov	 eax, __ehhandler$??$_Cons_val@V?$allocator@UtagBaseCharDistanceSq@@@std@@UtagBaseCharDistanceSq@@U3@@std@@YAXAAV?$allocator@UtagBaseCharDistanceSq@@@0@PAUtagBaseCharDistanceSq@@$$QAU2@@Z
  00007	e8 00 00 00 00	 call	 __EH_prolog3

; 280  : 	_Alval.construct(_Pdest, _STD forward<_Ty2>(_Src));

  0000c	8b 4d 0c	 mov	 ecx, DWORD PTR __Pdest$[ebp]
  0000f	89 4d f0	 mov	 DWORD PTR $T536754[ebp], ecx
  00012	83 65 fc 00	 and	 DWORD PTR __$EHRec$[ebp+8], 0
  00016	85 c9		 test	 ecx, ecx
  00018	74 08		 je	 SHORT $LN7@Cons_val@2
  0001a	ff 75 10	 push	 DWORD PTR __Src$[ebp]
  0001d	e8 00 00 00 00	 call	 ??0tagBaseCharDistanceSq@@QAE@ABU0@@Z
$LN7@Cons_val@2:

; 281  : 	}

  00022	e8 00 00 00 00	 call	 __EH_epilog3
  00027	c3		 ret	 0
_TEXT	ENDS
;	COMDAT text$x
text$x	SEGMENT
__unwindfunclet$??$_Cons_val@V?$allocator@UtagBaseCharDistanceSq@@@std@@UtagBaseCharDistanceSq@@U3@@std@@YAXAAV?$allocator@UtagBaseCharDistanceSq@@@0@PAUtagBaseCharDistanceSq@@$$QAU2@@Z$0:
  00000	ff 75 0c	 push	 DWORD PTR __Pdest$[ebp]
  00003	ff 75 f0	 push	 DWORD PTR $T536754[ebp]
  00006	e8 00 00 00 00	 call	 ??3@YAXPAX0@Z		; operator delete
  0000b	59		 pop	 ecx
  0000c	59		 pop	 ecx
  0000d	c3		 ret	 0
__ehhandler$??$_Cons_val@V?$allocator@UtagBaseCharDistanceSq@@@std@@UtagBaseCharDistanceSq@@U3@@std@@YAXAAV?$allocator@UtagBaseCharDistanceSq@@@0@PAUtagBaseCharDistanceSq@@$$QAU2@@Z:
  0000e	8b 54 24 08	 mov	 edx, DWORD PTR [esp+8]
  00012	8d 42 0c	 lea	 eax, DWORD PTR [edx+12]
  00015	8b 4a ec	 mov	 ecx, DWORD PTR [edx-20]
  00018	33 c8		 xor	 ecx, eax
  0001a	e8 00 00 00 00	 call	 @__security_check_cookie@4
  0001f	b8 00 00 00 00	 mov	 eax, OFFSET __ehfuncinfo$??$_Cons_val@V?$allocator@UtagBaseCharDistanceSq@@@std@@UtagBaseCharDistanceSq@@U3@@std@@YAXAAV?$allocator@UtagBaseCharDistanceSq@@@0@PAUtagBaseCharDistanceSq@@$$QAU2@@Z
  00024	e9 00 00 00 00	 jmp	 ___CxxFrameHandler3
text$x	ENDS
??$_Cons_val@V?$allocator@UtagBaseCharDistanceSq@@@std@@UtagBaseCharDistanceSq@@U3@@std@@YAXAAV?$allocator@UtagBaseCharDistanceSq@@@0@PAUtagBaseCharDistanceSq@@$$QAU2@@Z ENDP ; std::_Cons_val<std::allocator<tagBaseCharDistanceSq>,tagBaseCharDistanceSq,tagBaseCharDistanceSq>
PUBLIC	??$_Med3@PAUtagBaseCharDistanceSq@@VBaseCharDistanceSqSort@@@std@@YAXPAUtagBaseCharDistanceSq@@00VBaseCharDistanceSqSort@@@Z ; std::_Med3<tagBaseCharDistanceSq *,BaseCharDistanceSqSort>
; Function compile flags: /Ogsp
; File c:\program files (x86)\microsoft visual studio 10.0\vc\include\algorithm
;	COMDAT ??$_Med3@PAUtagBaseCharDistanceSq@@VBaseCharDistanceSqSort@@@std@@YAXPAUtagBaseCharDistanceSq@@00VBaseCharDistanceSqSort@@@Z
_TEXT	SEGMENT
__First$ = 8						; size = 4
__Mid$ = 12						; size = 4
__Last$ = 16						; size = 4
__Pred$ = 20						; size = 1
??$_Med3@PAUtagBaseCharDistanceSq@@VBaseCharDistanceSqSort@@@std@@YAXPAUtagBaseCharDistanceSq@@00VBaseCharDistanceSqSort@@@Z PROC ; std::_Med3<tagBaseCharDistanceSq *,BaseCharDistanceSqSort>, COMDAT

; 3683 : 	{	// sort median of three elements to middle

  00000	55		 push	 ebp
  00001	8b ec		 mov	 ebp, esp
  00003	56		 push	 esi

; 3684 : 	if (_DEBUG_LT_PRED(_Pred, *_Mid, *_First))

  00004	8b 75 0c	 mov	 esi, DWORD PTR __Mid$[ebp]
  00007	f3 0f 10 46 10	 movss	 xmm0, DWORD PTR [esi+16]
  0000c	57		 push	 edi
  0000d	8b 7d 08	 mov	 edi, DWORD PTR __First$[ebp]
  00010	f3 0f 10 4f 10	 movss	 xmm1, DWORD PTR [edi+16]
  00015	0f 5a c0	 cvtps2pd xmm0, xmm0
  00018	0f 5a c9	 cvtps2pd xmm1, xmm1
  0001b	66 0f 2f c1	 comisd	 xmm0, xmm1
  0001f	76 09		 jbe	 SHORT $LN9@Med3

; 3685 : 		_STD iter_swap(_Mid, _First);

  00021	57		 push	 edi
  00022	56		 push	 esi
  00023	e8 00 00 00 00	 call	 ??$swap@UtagBaseCharDistanceSq@@@std@@YAXAAUtagBaseCharDistanceSq@@0@Z ; std::swap<tagBaseCharDistanceSq>
  00028	59		 pop	 ecx
  00029	59		 pop	 ecx
$LN9@Med3:

; 3686 : 	if (_DEBUG_LT_PRED(_Pred, *_Last, *_Mid))

  0002a	8b 45 10	 mov	 eax, DWORD PTR __Last$[ebp]
  0002d	f3 0f 10 40 10	 movss	 xmm0, DWORD PTR [eax+16]
  00032	f3 0f 10 4e 10	 movss	 xmm1, DWORD PTR [esi+16]
  00037	0f 5a c0	 cvtps2pd xmm0, xmm0
  0003a	0f 5a c9	 cvtps2pd xmm1, xmm1
  0003d	66 0f 2f c1	 comisd	 xmm0, xmm1
  00041	76 09		 jbe	 SHORT $LN14@Med3

; 3687 : 		_STD iter_swap(_Last, _Mid);

  00043	56		 push	 esi
  00044	50		 push	 eax
  00045	e8 00 00 00 00	 call	 ??$swap@UtagBaseCharDistanceSq@@@std@@YAXAAUtagBaseCharDistanceSq@@0@Z ; std::swap<tagBaseCharDistanceSq>
  0004a	59		 pop	 ecx
  0004b	59		 pop	 ecx
$LN14@Med3:

; 3688 : 	if (_DEBUG_LT_PRED(_Pred, *_Mid, *_First))

  0004c	f3 0f 10 46 10	 movss	 xmm0, DWORD PTR [esi+16]
  00051	f3 0f 10 4f 10	 movss	 xmm1, DWORD PTR [edi+16]
  00056	0f 5a c0	 cvtps2pd xmm0, xmm0
  00059	0f 5a c9	 cvtps2pd xmm1, xmm1
  0005c	66 0f 2f c1	 comisd	 xmm0, xmm1
  00060	76 09		 jbe	 SHORT $LN19@Med3

; 3689 : 		_STD iter_swap(_Mid, _First);

  00062	57		 push	 edi
  00063	56		 push	 esi
  00064	e8 00 00 00 00	 call	 ??$swap@UtagBaseCharDistanceSq@@@std@@YAXAAUtagBaseCharDistanceSq@@0@Z ; std::swap<tagBaseCharDistanceSq>
  00069	59		 pop	 ecx
  0006a	59		 pop	 ecx
$LN19@Med3:
  0006b	5f		 pop	 edi
  0006c	5e		 pop	 esi

; 3690 : 	}

  0006d	5d		 pop	 ebp
  0006e	c3		 ret	 0
??$_Med3@PAUtagBaseCharDistanceSq@@VBaseCharDistanceSqSort@@@std@@YAXPAUtagBaseCharDistanceSq@@00VBaseCharDistanceSqSort@@@Z ENDP ; std::_Med3<tagBaseCharDistanceSq *,BaseCharDistanceSqSort>
_TEXT	ENDS
PUBLIC	??$_Adjust_heap@PAUtagBaseCharDistanceSq@@HU1@VBaseCharDistanceSqSort@@@std@@YAXPAUtagBaseCharDistanceSq@@HH$$QAU1@VBaseCharDistanceSqSort@@@Z ; std::_Adjust_heap<tagBaseCharDistanceSq *,int,tagBaseCharDistanceSq,BaseCharDistanceSqSort>
; Function compile flags: /Ogsp
;	COMDAT ??$_Adjust_heap@PAUtagBaseCharDistanceSq@@HU1@VBaseCharDistanceSqSort@@@std@@YAXPAUtagBaseCharDistanceSq@@HH$$QAU1@VBaseCharDistanceSqSort@@@Z
_TEXT	SEGMENT
__First$ = 8						; size = 4
__Top$ = 12						; size = 4
__Hole$ = 12						; size = 4
__Bottom$ = 16						; size = 4
__Val$ = 20						; size = 4
__Pred$ = 24						; size = 1
??$_Adjust_heap@PAUtagBaseCharDistanceSq@@HU1@VBaseCharDistanceSqSort@@@std@@YAXPAUtagBaseCharDistanceSq@@HH$$QAU1@VBaseCharDistanceSqSort@@@Z PROC ; std::_Adjust_heap<tagBaseCharDistanceSq *,int,tagBaseCharDistanceSq,BaseCharDistanceSqSort>, COMDAT

; 2565 : 	{	// percolate _Hole to _Bottom, then push _Val, using _Pred

  00000	55		 push	 ebp
  00001	8b ec		 mov	 ebp, esp

; 2566 : 	_Diff _Top = _Hole;

  00003	8b 4d 0c	 mov	 ecx, DWORD PTR __Hole$[ebp]
  00006	53		 push	 ebx

; 2567 : 	_Diff _Idx = 2 * _Hole + 2;
; 2568 : 
; 2569 : 	for (; _Idx < _Bottom; _Idx = 2 * _Idx + 2)

  00007	8b 5d 10	 mov	 ebx, DWORD PTR __Bottom$[ebp]
  0000a	56		 push	 esi
  0000b	57		 push	 edi
  0000c	8b 7d 08	 mov	 edi, DWORD PTR __First$[ebp]
  0000f	89 4d 0c	 mov	 DWORD PTR __Top$[ebp], ecx
  00012	8d 74 09 02	 lea	 esi, DWORD PTR [ecx+ecx+2]
  00016	eb 36		 jmp	 SHORT $LN20@Adjust_hea
$LL5@Adjust_hea:

; 2570 : 		{	// move _Hole down to larger child
; 2571 : 		if (_DEBUG_LT_PRED(_Pred, *(_First + _Idx), *(_First + (_Idx - 1))))

  00018	8b c6		 mov	 eax, esi
  0001a	c1 e0 05	 shl	 eax, 5
  0001d	f3 0f 10 44 38
	10		 movss	 xmm0, DWORD PTR [eax+edi+16]
  00023	f3 0f 10 4c 38
	f0		 movss	 xmm1, DWORD PTR [eax+edi-16]
  00029	0f 5a c0	 cvtps2pd xmm0, xmm0
  0002c	0f 5a c9	 cvtps2pd xmm1, xmm1
  0002f	66 0f 2f c1	 comisd	 xmm0, xmm1
  00033	76 01		 jbe	 SHORT $LN2@Adjust_hea

; 2572 : 			--_Idx;

  00035	4e		 dec	 esi
$LN2@Adjust_hea:

; 2573 : 		*(_First + _Hole) = _Move(*(_First + _Idx));

  00036	8b c6		 mov	 eax, esi
  00038	c1 e0 05	 shl	 eax, 5
  0003b	03 c7		 add	 eax, edi
  0003d	c1 e1 05	 shl	 ecx, 5
  00040	50		 push	 eax
  00041	03 cf		 add	 ecx, edi
  00043	e8 00 00 00 00	 call	 ??4tagBaseCharDistanceSq@@QAEAAU0@ABU0@@Z

; 2574 : 		_Hole = _Idx;

  00048	8b ce		 mov	 ecx, esi
  0004a	8d 74 36 02	 lea	 esi, DWORD PTR [esi+esi+2]
$LN20@Adjust_hea:

; 2567 : 	_Diff _Idx = 2 * _Hole + 2;
; 2568 : 
; 2569 : 	for (; _Idx < _Bottom; _Idx = 2 * _Idx + 2)

  0004e	3b f3		 cmp	 esi, ebx
  00050	7c c6		 jl	 SHORT $LL5@Adjust_hea

; 2575 : 		}
; 2576 : 
; 2577 : 	if (_Idx == _Bottom)

  00052	75 17		 jne	 SHORT $LN1@Adjust_hea

; 2578 : 		{	// only child at bottom, move _Hole down to it
; 2579 : 		*(_First + _Hole) = _Move(*(_First + (_Bottom - 1)));

  00054	8b c3		 mov	 eax, ebx
  00056	c1 e0 05	 shl	 eax, 5
  00059	8d 44 38 e0	 lea	 eax, DWORD PTR [eax+edi-32]
  0005d	c1 e1 05	 shl	 ecx, 5
  00060	50		 push	 eax
  00061	03 cf		 add	 ecx, edi
  00063	e8 00 00 00 00	 call	 ??4tagBaseCharDistanceSq@@QAEAAU0@ABU0@@Z

; 2580 : 		_Hole = _Bottom - 1;

  00068	8d 4b ff	 lea	 ecx, DWORD PTR [ebx-1]
$LN1@Adjust_hea:

; 2581 : 		}
; 2582 : 	_Push_heap(_First, _Hole, _Top, _Move(_Val), _Pred);

  0006b	ff 75 18	 push	 DWORD PTR __Pred$[ebp]
  0006e	ff 75 14	 push	 DWORD PTR __Val$[ebp]
  00071	ff 75 0c	 push	 DWORD PTR __Top$[ebp]
  00074	51		 push	 ecx
  00075	57		 push	 edi
  00076	e8 00 00 00 00	 call	 ??$_Push_heap@PAUtagBaseCharDistanceSq@@HU1@VBaseCharDistanceSqSort@@@std@@YAXPAUtagBaseCharDistanceSq@@HH$$QAU1@VBaseCharDistanceSqSort@@@Z ; std::_Push_heap<tagBaseCharDistanceSq *,int,tagBaseCharDistanceSq,BaseCharDistanceSqSort>
  0007b	83 c4 14	 add	 esp, 20			; 00000014H
  0007e	5f		 pop	 edi
  0007f	5e		 pop	 esi
  00080	5b		 pop	 ebx

; 2583 : 	}

  00081	5d		 pop	 ebp
  00082	c3		 ret	 0
??$_Adjust_heap@PAUtagBaseCharDistanceSq@@HU1@VBaseCharDistanceSqSort@@@std@@YAXPAUtagBaseCharDistanceSq@@HH$$QAU1@VBaseCharDistanceSqSort@@@Z ENDP ; std::_Adjust_heap<tagBaseCharDistanceSq *,int,tagBaseCharDistanceSq,BaseCharDistanceSqSort>
_TEXT	ENDS
PUBLIC	??$_Move_backward@PAUtagBaseCharDistanceSq@@PAU1@@std@@YAPAUtagBaseCharDistanceSq@@PAU1@00@Z ; std::_Move_backward<tagBaseCharDistanceSq *,tagBaseCharDistanceSq *>
; Function compile flags: /Ogsp
; File c:\program files (x86)\microsoft visual studio 10.0\vc\include\xutility
;	COMDAT ??$_Move_backward@PAUtagBaseCharDistanceSq@@PAU1@@std@@YAPAUtagBaseCharDistanceSq@@PAU1@00@Z
_TEXT	SEGMENT
__Cat$536823 = -4					; size = 1
__First$ = 8						; size = 4
__Last$ = 12						; size = 4
__Dest$ = 16						; size = 4
??$_Move_backward@PAUtagBaseCharDistanceSq@@PAU1@@std@@YAPAUtagBaseCharDistanceSq@@PAU1@00@Z PROC ; std::_Move_backward<tagBaseCharDistanceSq *,tagBaseCharDistanceSq *>, COMDAT

; 2638 : 	{	// move [_First, _Last) backwards to [..., _Dest), unchecked

  00000	55		 push	 ebp
  00001	8b ec		 mov	 ebp, esp
  00003	51		 push	 ecx

; 2639 : 	return (_Move_backward(_First, _Last,
; 2640 : 		_Dest, _Ptr_cat(_First, _Dest)));

  00004	ff 75 fc	 push	 DWORD PTR __Cat$536823[ebp]
  00007	ff 75 10	 push	 DWORD PTR __Dest$[ebp]
  0000a	ff 75 0c	 push	 DWORD PTR __Last$[ebp]
  0000d	ff 75 08	 push	 DWORD PTR __First$[ebp]
  00010	e8 00 00 00 00	 call	 ??$_Move_backward@PAUtagBaseCharDistanceSq@@PAU1@@std@@YAPAUtagBaseCharDistanceSq@@PAU1@00U_Nonscalar_ptr_iterator_tag@0@@Z ; std::_Move_backward<tagBaseCharDistanceSq *,tagBaseCharDistanceSq *>
  00015	83 c4 10	 add	 esp, 16			; 00000010H

; 2641 : 	}

  00018	c9		 leave
  00019	c3		 ret	 0
??$_Move_backward@PAUtagBaseCharDistanceSq@@PAU1@@std@@YAPAUtagBaseCharDistanceSq@@PAU1@00@Z ENDP ; std::_Move_backward<tagBaseCharDistanceSq *,tagBaseCharDistanceSq *>
_TEXT	ENDS
PUBLIC	??$_Pop_heap@PAUtagBaseCharDistanceSq@@HU1@VBaseCharDistanceSqSort@@@std@@YAXPAUtagBaseCharDistanceSq@@00$$QAU1@VBaseCharDistanceSqSort@@PAH@Z ; std::_Pop_heap<tagBaseCharDistanceSq *,int,tagBaseCharDistanceSq,BaseCharDistanceSqSort>
; Function compile flags: /Ogsp
; File c:\program files (x86)\microsoft visual studio 10.0\vc\include\algorithm
;	COMDAT ??$_Pop_heap@PAUtagBaseCharDistanceSq@@HU1@VBaseCharDistanceSqSort@@@std@@YAXPAUtagBaseCharDistanceSq@@00$$QAU1@VBaseCharDistanceSqSort@@PAH@Z
_TEXT	SEGMENT
__First$ = 8						; size = 4
__Last$ = 12						; size = 4
__Dest$ = 16						; size = 4
__Val$ = 20						; size = 4
__Pred$ = 24						; size = 1
___formal$ = 28						; size = 4
??$_Pop_heap@PAUtagBaseCharDistanceSq@@HU1@VBaseCharDistanceSqSort@@@std@@YAXPAUtagBaseCharDistanceSq@@00$$QAU1@VBaseCharDistanceSqSort@@PAH@Z PROC ; std::_Pop_heap<tagBaseCharDistanceSq *,int,tagBaseCharDistanceSq,BaseCharDistanceSqSort>, COMDAT

; 2591 : 	{	// pop *_First to *_Dest and reheap, using _Pred

  00000	55		 push	 ebp
  00001	8b ec		 mov	 ebp, esp

; 2592 : 	*_Dest = _Move(*_First);

  00003	ff 75 08	 push	 DWORD PTR __First$[ebp]
  00006	8b 4d 10	 mov	 ecx, DWORD PTR __Dest$[ebp]
  00009	e8 00 00 00 00	 call	 ??4tagBaseCharDistanceSq@@QAEAAU0@ABU0@@Z

; 2593 : 	_Adjust_heap(_First, _Diff(0), _Diff(_Last - _First),
; 2594 : 		_Move(_Val), _Pred);

  0000e	ff 75 18	 push	 DWORD PTR __Pred$[ebp]
  00011	8b 45 0c	 mov	 eax, DWORD PTR __Last$[ebp]
  00014	2b 45 08	 sub	 eax, DWORD PTR __First$[ebp]
  00017	ff 75 14	 push	 DWORD PTR __Val$[ebp]
  0001a	c1 f8 05	 sar	 eax, 5
  0001d	50		 push	 eax
  0001e	6a 00		 push	 0
  00020	ff 75 08	 push	 DWORD PTR __First$[ebp]
  00023	e8 00 00 00 00	 call	 ??$_Adjust_heap@PAUtagBaseCharDistanceSq@@HU1@VBaseCharDistanceSqSort@@@std@@YAXPAUtagBaseCharDistanceSq@@HH$$QAU1@VBaseCharDistanceSqSort@@@Z ; std::_Adjust_heap<tagBaseCharDistanceSq *,int,tagBaseCharDistanceSq,BaseCharDistanceSqSort>
  00028	83 c4 14	 add	 esp, 20			; 00000014H

; 2595 : 	}

  0002b	5d		 pop	 ebp
  0002c	c3		 ret	 0
??$_Pop_heap@PAUtagBaseCharDistanceSq@@HU1@VBaseCharDistanceSqSort@@@std@@YAXPAUtagBaseCharDistanceSq@@00$$QAU1@VBaseCharDistanceSqSort@@PAH@Z ENDP ; std::_Pop_heap<tagBaseCharDistanceSq *,int,tagBaseCharDistanceSq,BaseCharDistanceSqSort>
_TEXT	ENDS
PUBLIC	?GetTeam@ioPlayEntity@@QBE?AW4TeamType@@XZ	; ioPlayEntity::GetTeam
; Function compile flags: /Ogsp
; File d:\lost saga for developer\youtube\tutorial\source\src\lsclient\ioplayentity.h
;	COMDAT ?GetTeam@ioPlayEntity@@QBE?AW4TeamType@@XZ
_TEXT	SEGMENT
_value$536837 = -4					; size = 4
?GetTeam@ioPlayEntity@@QBE?AW4TeamType@@XZ PROC		; ioPlayEntity::GetTeam, COMDAT
; _this$ = ecx

; 107  : 	inline TeamType GetTeam() const { return m_TeamType; }

  00000	55		 push	 ebp
  00001	8b ec		 mov	 ebp, esp
  00003	51		 push	 ecx
  00004	8d 45 fc	 lea	 eax, DWORD PTR _value$536837[ebp]
  00007	50		 push	 eax
  00008	81 c1 90 00 00
	00		 add	 ecx, 144		; 00000090H
  0000e	e8 00 00 00 00	 call	 ?DecryptValueToPool@?$CEncrypt@W4TeamType@@@@QAEXPAW4TeamType@@@Z ; CEncrypt<enum TeamType>::DecryptValueToPool
  00013	8b 45 fc	 mov	 eax, DWORD PTR _value$536837[ebp]
  00016	c9		 leave
  00017	c3		 ret	 0
?GetTeam@ioPlayEntity@@QBE?AW4TeamType@@XZ ENDP		; ioPlayEntity::GetTeam
_TEXT	ENDS
PUBLIC	??0?$vector@VioHashString@@V?$allocator@VioHashString@@@std@@@std@@QAE@XZ ; std::vector<ioHashString,std::allocator<ioHashString> >::vector<ioHashString,std::allocator<ioHashString> >
; Function compile flags: /Ogsp
; File c:\program files (x86)\microsoft visual studio 10.0\vc\include\vector
;	COMDAT ??0?$vector@VioHashString@@V?$allocator@VioHashString@@@std@@@std@@QAE@XZ
_TEXT	SEGMENT
??0?$vector@VioHashString@@V?$allocator@VioHashString@@@std@@@std@@QAE@XZ PROC ; std::vector<ioHashString,std::allocator<ioHashString> >::vector<ioHashString,std::allocator<ioHashString> >, COMDAT
; _this$ = ecx

; 507  : 		{	// construct empty vector

  00000	8b c1		 mov	 eax, ecx
  00002	33 c9		 xor	 ecx, ecx
  00004	89 08		 mov	 DWORD PTR [eax], ecx
  00006	89 48 04	 mov	 DWORD PTR [eax+4], ecx
  00009	89 48 08	 mov	 DWORD PTR [eax+8], ecx

; 508  : 		}

  0000c	c3		 ret	 0
??0?$vector@VioHashString@@V?$allocator@VioHashString@@@std@@@std@@QAE@XZ ENDP ; std::vector<ioHashString,std::allocator<ioHashString> >::vector<ioHashString,std::allocator<ioHashString> >
_TEXT	ENDS
PUBLIC	??0?$CEncrypt@M@@QAE@ABV0@@Z			; CEncrypt<float>::CEncrypt<float>
;	COMDAT xdata$x
; File d:\lost saga for developer\youtube\tutorial\source\src\lsclient\encryptvalue.h
xdata$x	SEGMENT
__unwindtable$??0?$CEncrypt@M@@QAE@ABV0@@Z DD 0ffffffffH
	DD	FLAT:__unwindfunclet$??0?$CEncrypt@M@@QAE@ABV0@@Z$0
__ehfuncinfo$??0?$CEncrypt@M@@QAE@ABV0@@Z DD 019930522H
	DD	01H
	DD	FLAT:__unwindtable$??0?$CEncrypt@M@@QAE@ABV0@@Z
	DD	2 DUP(00H)
	DD	2 DUP(00H)
	DD	00H
	DD	01H
; Function compile flags: /Ogsp
xdata$x	ENDS
;	COMDAT ??0?$CEncrypt@M@@QAE@ABV0@@Z
_TEXT	SEGMENT
_this$ = -16						; size = 4
__$EHRec$ = -12						; size = 12
_value$536867 = 8					; size = 4
_value$536862 = 8					; size = 4
_inValue$ = 8						; size = 4
??0?$CEncrypt@M@@QAE@ABV0@@Z PROC			; CEncrypt<float>::CEncrypt<float>, COMDAT
; _this$ = ecx

; 120  : 	CEncrypt( const CEncrypt<type> &inValue )   //     

  00000	6a 04		 push	 4
  00002	b8 00 00 00 00	 mov	 eax, __ehhandler$??0?$CEncrypt@M@@QAE@ABV0@@Z
  00007	e8 00 00 00 00	 call	 __EH_prolog3
  0000c	8b f1		 mov	 esi, ecx
  0000e	89 75 f0	 mov	 DWORD PTR _this$[ebp], esi
  00011	8d 4e 0c	 lea	 ecx, DWORD PTR [esi+12]
  00014	c7 06 00 00 00
	00		 mov	 DWORD PTR [esi], OFFSET ??_7?$CEncrypt@M@@6B@
  0001a	e8 00 00 00 00	 call	 ??0ccddaabb@@QAE@XZ	; ccddaabb::ccddaabb
  0001f	83 65 fc 00	 and	 DWORD PTR __$EHRec$[ebp+8], 0

; 121  : 	{
; 122  : 		Init();

  00023	8b ce		 mov	 ecx, esi
  00025	e8 00 00 00 00	 call	 ?Init@?$CEncrypt@M@@AAEXXZ ; CEncrypt<float>::Init

; 123  : 		*this = inValue;

  0002a	8b 4d 08	 mov	 ecx, DWORD PTR _inValue$[ebp]
  0002d	8d 45 08	 lea	 eax, DWORD PTR _value$536862[ebp]
  00030	50		 push	 eax
  00031	e8 00 00 00 00	 call	 ?DecryptValueToPool@?$CEncrypt@M@@QAEXPAM@Z ; CEncrypt<float>::DecryptValueToPool
  00036	f3 0f 10 45 08	 movss	 xmm0, DWORD PTR _value$536862[ebp]
  0003b	8d 45 08	 lea	 eax, DWORD PTR _value$536867[ebp]
  0003e	50		 push	 eax
  0003f	8b ce		 mov	 ecx, esi
  00041	f3 0f 11 45 08	 movss	 DWORD PTR _value$536867[ebp], xmm0
  00046	e8 00 00 00 00	 call	 ?EncryptValueToPool@?$CEncrypt@M@@AAEXPBD@Z ; CEncrypt<float>::EncryptValueToPool

; 124  : 	}

  0004b	8b c6		 mov	 eax, esi
  0004d	e8 00 00 00 00	 call	 __EH_epilog3
  00052	c2 04 00	 ret	 4
_TEXT	ENDS
;	COMDAT text$x
text$x	SEGMENT
__unwindfunclet$??0?$CEncrypt@M@@QAE@ABV0@@Z$0:
  00000	8b 4d f0	 mov	 ecx, DWORD PTR _this$[ebp]
  00003	83 c1 0c	 add	 ecx, 12			; 0000000cH
  00006	e9 00 00 00 00	 jmp	 ??1ccddaabb@@UAE@XZ	; ccddaabb::~ccddaabb
__ehhandler$??0?$CEncrypt@M@@QAE@ABV0@@Z:
  0000b	8b 54 24 08	 mov	 edx, DWORD PTR [esp+8]
  0000f	8d 42 0c	 lea	 eax, DWORD PTR [edx+12]
  00012	8b 4a ec	 mov	 ecx, DWORD PTR [edx-20]
  00015	33 c8		 xor	 ecx, eax
  00017	e8 00 00 00 00	 call	 @__security_check_cookie@4
  0001c	b8 00 00 00 00	 mov	 eax, OFFSET __ehfuncinfo$??0?$CEncrypt@M@@QAE@ABV0@@Z
  00021	e9 00 00 00 00	 jmp	 ___CxxFrameHandler3
text$x	ENDS
??0?$CEncrypt@M@@QAE@ABV0@@Z ENDP			; CEncrypt<float>::CEncrypt<float>
PUBLIC	??9?$_Vector_const_iterator@V?$_Vector_val@VioHashString@@V?$allocator@VioHashString@@@std@@@std@@@std@@QBE_NABV01@@Z ; std::_Vector_const_iterator<std::_Vector_val<ioHashString,std::allocator<ioHashString> > >::operator!=
; Function compile flags: /Ogsp
; File c:\program files (x86)\microsoft visual studio 10.0\vc\include\vector
;	COMDAT ??9?$_Vector_const_iterator@V?$_Vector_val@VioHashString@@V?$allocator@VioHashString@@@std@@@std@@@std@@QBE_NABV01@@Z
_TEXT	SEGMENT
__Right$ = 8						; size = 4
??9?$_Vector_const_iterator@V?$_Vector_val@VioHashString@@V?$allocator@VioHashString@@@std@@@std@@@std@@QBE_NABV01@@Z PROC ; std::_Vector_const_iterator<std::_Vector_val<ioHashString,std::allocator<ioHashString> > >::operator!=, COMDAT
; _this$ = ecx

; 207  : 		{	// test for iterator inequality

  00000	55		 push	 ebp
  00001	8b ec		 mov	 ebp, esp

; 208  : 		return (!(*this == _Right));

  00003	8b 01		 mov	 eax, DWORD PTR [ecx]
  00005	8b 55 08	 mov	 edx, DWORD PTR __Right$[ebp]
  00008	33 c9		 xor	 ecx, ecx
  0000a	3b 02		 cmp	 eax, DWORD PTR [edx]
  0000c	0f 95 c0	 setne	 al

; 209  : 		}

  0000f	5d		 pop	 ebp
  00010	c2 04 00	 ret	 4
??9?$_Vector_const_iterator@V?$_Vector_val@VioHashString@@V?$allocator@VioHashString@@@std@@@std@@@std@@QBE_NABV01@@Z ENDP ; std::_Vector_const_iterator<std::_Vector_val<ioHashString,std::allocator<ioHashString> > >::operator!=
_TEXT	ENDS
PUBLIC	??$_Move@PAVioHashString@@PAV1@@std@@YAPAVioHashString@@PAV1@00@Z ; std::_Move<ioHashString *,ioHashString *>
; Function compile flags: /Ogsp
; File c:\program files (x86)\microsoft visual studio 10.0\vc\include\xutility
;	COMDAT ??$_Move@PAVioHashString@@PAV1@@std@@YAPAVioHashString@@PAV1@00@Z
_TEXT	SEGMENT
__Cat$536891 = -4					; size = 1
__First$ = 8						; size = 4
__Last$ = 12						; size = 4
__Dest$ = 16						; size = 4
??$_Move@PAVioHashString@@PAV1@@std@@YAPAVioHashString@@PAV1@00@Z PROC ; std::_Move<ioHashString *,ioHashString *>, COMDAT

; 2533 : 	{	// move [_First, _Last) to [_Dest, ...), unchecked

  00000	55		 push	 ebp
  00001	8b ec		 mov	 ebp, esp
  00003	51		 push	 ecx

; 2534 : 	return (_Move(_First, _Last,
; 2535 : 		_Dest, _Ptr_cat(_First, _Dest)));

  00004	ff 75 fc	 push	 DWORD PTR __Cat$536891[ebp]
  00007	ff 75 10	 push	 DWORD PTR __Dest$[ebp]
  0000a	ff 75 0c	 push	 DWORD PTR __Last$[ebp]
  0000d	ff 75 08	 push	 DWORD PTR __First$[ebp]
  00010	e8 00 00 00 00	 call	 ??$_Move@PAVioHashString@@PAV1@@std@@YAPAVioHashString@@PAV1@00U_Nonscalar_ptr_iterator_tag@0@@Z ; std::_Move<ioHashString *,ioHashString *>
  00015	83 c4 10	 add	 esp, 16			; 00000010H

; 2536 : 	}

  00018	c9		 leave
  00019	c3		 ret	 0
??$_Move@PAVioHashString@@PAV1@@std@@YAPAVioHashString@@PAV1@00@Z ENDP ; std::_Move<ioHashString *,ioHashString *>
_TEXT	ENDS
PUBLIC	?destroy@?$allocator@VioHashString@@@std@@QAEXPAVioHashString@@@Z ; std::allocator<ioHashString>::destroy
; Function compile flags: /Ogsp
; File c:\program files (x86)\microsoft visual studio 10.0\vc\include\xmemory
;	COMDAT ?destroy@?$allocator@VioHashString@@@std@@QAEXPAVioHashString@@@Z
_TEXT	SEGMENT
__Ptr$ = 8						; size = 4
?destroy@?$allocator@VioHashString@@@std@@QAEXPAVioHashString@@@Z PROC ; std::allocator<ioHashString>::destroy, COMDAT
; _this$ = ecx

; 212  : 		{	// destroy object at _Ptr

  00000	55		 push	 ebp
  00001	8b ec		 mov	 ebp, esp

; 213  : 		_Destroy(_Ptr);

  00003	8b 4d 08	 mov	 ecx, DWORD PTR __Ptr$[ebp]
  00006	ff 15 00 00 00
	00		 call	 DWORD PTR __imp_??1ioHashString@@QAE@XZ

; 214  : 		}

  0000c	5d		 pop	 ebp
  0000d	c2 04 00	 ret	 4
?destroy@?$allocator@VioHashString@@@std@@QAEXPAVioHashString@@@Z ENDP ; std::allocator<ioHashString>::destroy
_TEXT	ENDS
PUBLIC	??$_Cons_val@V?$allocator@VioHashString@@@std@@VioHashString@@ABV3@@std@@YAXAAV?$allocator@VioHashString@@@0@PAVioHashString@@ABV2@@Z ; std::_Cons_val<std::allocator<ioHashString>,ioHashString,ioHashString const &>
; Function compile flags: /Ogsp
;	COMDAT ??$_Cons_val@V?$allocator@VioHashString@@@std@@VioHashString@@ABV3@@std@@YAXAAV?$allocator@VioHashString@@@0@PAVioHashString@@ABV2@@Z
_TEXT	SEGMENT
__Alval$ = 8						; size = 4
__Pdest$ = 12						; size = 4
__Src$ = 16						; size = 4
??$_Cons_val@V?$allocator@VioHashString@@@std@@VioHashString@@ABV3@@std@@YAXAAV?$allocator@VioHashString@@@0@PAVioHashString@@ABV2@@Z PROC ; std::_Cons_val<std::allocator<ioHashString>,ioHashString,ioHashString const &>, COMDAT

; 279  : 	{	// construct using allocator

  00000	55		 push	 ebp
  00001	8b ec		 mov	 ebp, esp

; 280  : 	_Alval.construct(_Pdest, _STD forward<_Ty2>(_Src));

  00003	ff 75 10	 push	 DWORD PTR __Src$[ebp]
  00006	ff 75 0c	 push	 DWORD PTR __Pdest$[ebp]
  00009	e8 00 00 00 00	 call	 ??$_Construct@VioHashString@@ABV1@@std@@YAXPAVioHashString@@ABV1@@Z ; std::_Construct<ioHashString,ioHashString const &>
  0000e	59		 pop	 ecx
  0000f	59		 pop	 ecx

; 281  : 	}

  00010	5d		 pop	 ebp
  00011	c3		 ret	 0
??$_Cons_val@V?$allocator@VioHashString@@@std@@VioHashString@@ABV3@@std@@YAXAAV?$allocator@VioHashString@@@0@PAVioHashString@@ABV2@@Z ENDP ; std::_Cons_val<std::allocator<ioHashString>,ioHashString,ioHashString const &>
_TEXT	ENDS
PUBLIC	__$ArrayPad$
PUBLIC	?SetTeleportState@ioTargetTeleportSkill@@IAEXPAVioBaseChar@@PAVioPlayStage@@@Z ; ioTargetTeleportSkill::SetTeleportState
EXTRN	??1SP2Packet@@UAE@XZ:PROC			; SP2Packet::~SP2Packet
EXTRN	?SendToAllPlayingUser@P2PNetwork@@YAXAAVSP2Packet@@PAVioBaseChar@@@Z:PROC ; P2PNetwork::SendToAllPlayingUser
EXTRN	??6SP2Packet@@QAEAAV0@H@Z:PROC			; SP2Packet::operator<<
EXTRN	??6SP2Packet@@QAEAAV0@ABVioHashString@@@Z:PROC	; SP2Packet::operator<<
EXTRN	??0SP2Packet@@QAE@K@Z:PROC			; SP2Packet::SP2Packet
EXTRN	__chkstk:PROC
;	COMDAT xdata$x
; File d:\lost saga for developer\youtube\tutorial\source\src\lsclient\ioskill.h
xdata$x	SEGMENT
__unwindtable$?SetTeleportState@ioTargetTeleportSkill@@IAEXPAVioBaseChar@@PAVioPlayStage@@@Z DD 0ffffffffH
	DD	FLAT:__unwindfunclet$?SetTeleportState@ioTargetTeleportSkill@@IAEXPAVioBaseChar@@PAVioPlayStage@@@Z$0
__ehfuncinfo$?SetTeleportState@ioTargetTeleportSkill@@IAEXPAVioBaseChar@@PAVioPlayStage@@@Z DD 019930522H
	DD	01H
	DD	FLAT:__unwindtable$?SetTeleportState@ioTargetTeleportSkill@@IAEXPAVioBaseChar@@PAVioPlayStage@@@Z
	DD	2 DUP(00H)
	DD	2 DUP(00H)
	DD	00H
	DD	01H
; Function compile flags: /Ogsp
; File d:\lost saga for developer\youtube\tutorial\source\src\lsclient\iotargetteleportskill.cpp
xdata$x	ENDS
;	COMDAT ?SetTeleportState@ioTargetTeleportSkill@@IAEXPAVioBaseChar@@PAVioPlayStage@@@Z
_TEXT	SEGMENT
_kPacket$530709 = -32808				; size = 32792
__$ArrayPad$ = -16					; size = 4
__$EHRec$ = -12						; size = 12
_pChar$ = 8						; size = 4
_pStage$ = 12						; size = 4
?SetTeleportState@ioTargetTeleportSkill@@IAEXPAVioBaseChar@@PAVioPlayStage@@@Z PROC ; ioTargetTeleportSkill::SetTeleportState, COMDAT
; _this$ = ecx

; 251  : {

  00000	55		 push	 ebp
  00001	8b ec		 mov	 ebp, esp
  00003	6a ff		 push	 -1
  00005	68 00 00 00 00	 push	 __ehhandler$?SetTeleportState@ioTargetTeleportSkill@@IAEXPAVioBaseChar@@PAVioPlayStage@@@Z
  0000a	64 a1 00 00 00
	00		 mov	 eax, DWORD PTR fs:0
  00010	50		 push	 eax
  00011	b8 1c 80 00 00	 mov	 eax, 32796		; 0000801cH
  00016	e8 00 00 00 00	 call	 __chkstk
  0001b	a1 00 00 00 00	 mov	 eax, DWORD PTR ___security_cookie
  00020	33 c5		 xor	 eax, ebp
  00022	89 45 f0	 mov	 DWORD PTR __$ArrayPad$[ebp], eax
  00025	53		 push	 ebx
  00026	56		 push	 esi
  00027	57		 push	 edi
  00028	50		 push	 eax
  00029	8d 45 f4	 lea	 eax, DWORD PTR __$EHRec$[ebp]
  0002c	64 a3 00 00 00
	00		 mov	 DWORD PTR fs:0, eax
  00032	8b 7d 08	 mov	 edi, DWORD PTR _pChar$[ebp]
  00035	8b 5d 0c	 mov	 ebx, DWORD PTR _pStage$[ebp]
  00038	8b f1		 mov	 esi, ecx

; 252  : 	if( m_SkillState != SS_WAIT )

  0003a	83 be 58 0f 00
	00 01		 cmp	 DWORD PTR [esi+3928], 1
  00041	0f 85 a1 00 00
	00		 jne	 $LN1@SetTelepor

; 253  : 		return;
; 254  : 
; 255  : 	m_SkillState = SS_TELEPORT;
; 256  : 
; 257  : 	m_dwPreDelayStartTime = 0;
; 258  : 	EndPreDelayEffect( pChar );

  00047	8b 06		 mov	 eax, DWORD PTR [esi]
  00049	83 a6 20 02 00
	00 00		 and	 DWORD PTR [esi+544], 0
  00050	57		 push	 edi
  00051	c7 86 58 0f 00
	00 02 00 00 00	 mov	 DWORD PTR [esi+3928], 2
  0005b	ff 90 dc 00 00
	00		 call	 DWORD PTR [eax+220]

; 259  : 	SetNormalSkill( pChar );

  00061	8b 06		 mov	 eax, DWORD PTR [esi]
  00063	57		 push	 edi
  00064	8b ce		 mov	 ecx, esi
  00066	ff 90 8c 01 00
	00		 call	 DWORD PTR [eax+396]

; 260  : 	CheckTargetPos( pChar, pStage );

  0006c	53		 push	 ebx
  0006d	57		 push	 edi
  0006e	8b ce		 mov	 ecx, esi
  00070	e8 00 00 00 00	 call	 ?CheckTargetPos@ioTargetTeleportSkill@@IAEXPAVioBaseChar@@PAVioPlayStage@@@Z ; ioTargetTeleportSkill::CheckTargetPos

; 261  : 
; 262  : 	if( pChar->IsNeedSendNetwork() )

  00075	8b 07		 mov	 eax, DWORD PTR [edi]
  00077	8b cf		 mov	 ecx, edi
  00079	ff 90 04 01 00
	00		 call	 DWORD PTR [eax+260]
  0007f	84 c0		 test	 al, al
  00081	74 65		 je	 SHORT $LN1@SetTelepor

; 263  : 	{
; 264  : 		SP2Packet kPacket( CUPK_SKILL_EXTRA_INFO );

  00083	68 39 41 00 00	 push	 16697			; 00004139H
  00088	8d 8d d8 7f ff
	ff		 lea	 ecx, DWORD PTR _kPacket$530709[ebp]
  0008e	e8 00 00 00 00	 call	 ??0SP2Packet@@QAE@K@Z	; SP2Packet::SP2Packet
  00093	83 65 fc 00	 and	 DWORD PTR __$EHRec$[ebp+8], 0

; 265  : 		kPacket << pChar->GetCharName();

  00097	81 c7 d4 02 00
	00		 add	 edi, 724		; 000002d4H
  0009d	57		 push	 edi
  0009e	8d 8d d8 7f ff
	ff		 lea	 ecx, DWORD PTR _kPacket$530709[ebp]
  000a4	e8 00 00 00 00	 call	 ??6SP2Packet@@QAEAAV0@ABVioHashString@@@Z ; SP2Packet::operator<<

; 266  : 		kPacket << GetName();

  000a9	8d 46 24	 lea	 eax, DWORD PTR [esi+36]
  000ac	50		 push	 eax
  000ad	8d 8d d8 7f ff
	ff		 lea	 ecx, DWORD PTR _kPacket$530709[ebp]
  000b3	e8 00 00 00 00	 call	 ??6SP2Packet@@QAEAAV0@ABVioHashString@@@Z ; SP2Packet::operator<<

; 267  : 		kPacket << m_SkillState;

  000b8	ff b6 58 0f 00
	00		 push	 DWORD PTR [esi+3928]
  000be	8d 8d d8 7f ff
	ff		 lea	 ecx, DWORD PTR _kPacket$530709[ebp]
  000c4	e8 00 00 00 00	 call	 ??6SP2Packet@@QAEAAV0@H@Z ; SP2Packet::operator<<

; 268  : 		P2PNetwork::SendToAllPlayingUser( kPacket );

  000c9	8d 85 d8 7f ff
	ff		 lea	 eax, DWORD PTR _kPacket$530709[ebp]
  000cf	6a 00		 push	 0
  000d1	50		 push	 eax
  000d2	e8 00 00 00 00	 call	 ?SendToAllPlayingUser@P2PNetwork@@YAXAAVSP2Packet@@PAVioBaseChar@@@Z ; P2PNetwork::SendToAllPlayingUser

; 269  : 	}

  000d7	83 4d fc ff	 or	 DWORD PTR __$EHRec$[ebp+8], -1
  000db	59		 pop	 ecx
  000dc	59		 pop	 ecx
  000dd	8d 8d d8 7f ff
	ff		 lea	 ecx, DWORD PTR _kPacket$530709[ebp]
  000e3	e8 00 00 00 00	 call	 ??1SP2Packet@@UAE@XZ	; SP2Packet::~SP2Packet
$LN1@SetTelepor:

; 270  : }

  000e8	8b 4d f4	 mov	 ecx, DWORD PTR __$EHRec$[ebp]
  000eb	64 89 0d 00 00
	00 00		 mov	 DWORD PTR fs:0, ecx
  000f2	59		 pop	 ecx
  000f3	5f		 pop	 edi
  000f4	5e		 pop	 esi
  000f5	5b		 pop	 ebx
  000f6	8b 4d f0	 mov	 ecx, DWORD PTR __$ArrayPad$[ebp]
  000f9	33 cd		 xor	 ecx, ebp
  000fb	e8 00 00 00 00	 call	 @__security_check_cookie@4
  00100	c9		 leave
  00101	c2 08 00	 ret	 8
_TEXT	ENDS
;	COMDAT text$x
text$x	SEGMENT
__unwindfunclet$?SetTeleportState@ioTargetTeleportSkill@@IAEXPAVioBaseChar@@PAVioPlayStage@@@Z$0:
  00000	8d 8d d8 7f ff
	ff		 lea	 ecx, DWORD PTR _kPacket$530709[ebp]
  00006	e9 00 00 00 00	 jmp	 ??1SP2Packet@@UAE@XZ	; SP2Packet::~SP2Packet
__ehhandler$?SetTeleportState@ioTargetTeleportSkill@@IAEXPAVioBaseChar@@PAVioPlayStage@@@Z:
  0000b	8b 54 24 08	 mov	 edx, DWORD PTR [esp+8]
  0000f	8d 42 0c	 lea	 eax, DWORD PTR [edx+12]
  00012	8b 8a d4 7f ff
	ff		 mov	 ecx, DWORD PTR [edx-32812]
  00018	33 c8		 xor	 ecx, eax
  0001a	e8 00 00 00 00	 call	 @__security_check_cookie@4
  0001f	8b 4a fc	 mov	 ecx, DWORD PTR [edx-4]
  00022	33 c8		 xor	 ecx, eax
  00024	e8 00 00 00 00	 call	 @__security_check_cookie@4
  00029	b8 00 00 00 00	 mov	 eax, OFFSET __ehfuncinfo$?SetTeleportState@ioTargetTeleportSkill@@IAEXPAVioBaseChar@@PAVioPlayStage@@@Z
  0002e	e9 00 00 00 00	 jmp	 ___CxxFrameHandler3
text$x	ENDS
?SetTeleportState@ioTargetTeleportSkill@@IAEXPAVioBaseChar@@PAVioPlayStage@@@Z ENDP ; ioTargetTeleportSkill::SetTeleportState
PUBLIC	?ApplyExtraSkillInfo@ioTargetTeleportSkill@@UAEXPAVioBaseChar@@PAVioPlayStage@@AAVSP2Packet@@@Z ; ioTargetTeleportSkill::ApplyExtraSkillInfo
EXTRN	??5SP2Packet@@QAEAAV0@AAH@Z:PROC		; SP2Packet::operator>>
; Function compile flags: /Ogsp
;	COMDAT ?ApplyExtraSkillInfo@ioTargetTeleportSkill@@UAEXPAVioBaseChar@@PAVioPlayStage@@AAVSP2Packet@@@Z
_TEXT	SEGMENT
_pChar$ = 8						; size = 4
_pStage$ = 12						; size = 4
_iState$ = 16						; size = 4
_rkPacket$ = 16						; size = 4
?ApplyExtraSkillInfo@ioTargetTeleportSkill@@UAEXPAVioBaseChar@@PAVioPlayStage@@AAVSP2Packet@@@Z PROC ; ioTargetTeleportSkill::ApplyExtraSkillInfo, COMDAT
; _this$ = ecx

; 273  : {

  00000	55		 push	 ebp
  00001	8b ec		 mov	 ebp, esp
  00003	56		 push	 esi

; 274  : 	int iState;
; 275  : 	rkPacket >> iState;

  00004	8d 45 10	 lea	 eax, DWORD PTR _iState$[ebp]
  00007	8b f1		 mov	 esi, ecx
  00009	8b 4d 10	 mov	 ecx, DWORD PTR _rkPacket$[ebp]
  0000c	50		 push	 eax
  0000d	e8 00 00 00 00	 call	 ??5SP2Packet@@QAEAAV0@AAH@Z ; SP2Packet::operator>>

; 276  : 
; 277  : 	switch( iState )

  00012	8b 45 10	 mov	 eax, DWORD PTR _iState$[ebp]
  00015	48		 dec	 eax
  00016	48		 dec	 eax
  00017	75 0d		 jne	 SHORT $LN2@ApplyExtra

; 278  : 	{
; 279  : 	case SS_TELEPORT:
; 280  : 		SetTeleportState( pChar, pStage );

  00019	ff 75 0c	 push	 DWORD PTR _pStage$[ebp]
  0001c	8b ce		 mov	 ecx, esi
  0001e	ff 75 08	 push	 DWORD PTR _pChar$[ebp]
  00021	e8 00 00 00 00	 call	 ?SetTeleportState@ioTargetTeleportSkill@@IAEXPAVioBaseChar@@PAVioPlayStage@@@Z ; ioTargetTeleportSkill::SetTeleportState
$LN2@ApplyExtra:
  00026	5e		 pop	 esi

; 281  : 		break;
; 282  : 	}
; 283  : }

  00027	5d		 pop	 ebp
  00028	c2 0c 00	 ret	 12			; 0000000cH
?ApplyExtraSkillInfo@ioTargetTeleportSkill@@UAEXPAVioBaseChar@@PAVioPlayStage@@AAVSP2Packet@@@Z ENDP ; ioTargetTeleportSkill::ApplyExtraSkillInfo
_TEXT	ENDS
PUBLIC	?SelectNextTarget@ioTargetTeleportSkill@@IAEXPAVioBaseChar@@PAVioPlayStage@@@Z ; ioTargetTeleportSkill::SelectNextTarget
EXTRN	__imp_?Clear@ioHashString@@QAEXXZ:PROC
; Function compile flags: /Ogsp
;	COMDAT ?SelectNextTarget@ioTargetTeleportSkill@@IAEXPAVioBaseChar@@PAVioPlayStage@@@Z
_TEXT	SEGMENT
_value$536967 = -4					; size = 4
_value$536952 = -4					; size = 4
_value$536943 = -4					; size = 4
_pTarget$ = -4						; size = 4
_pChar$ = 8						; size = 4
_pStage$ = 12						; size = 4
?SelectNextTarget@ioTargetTeleportSkill@@IAEXPAVioBaseChar@@PAVioPlayStage@@@Z PROC ; ioTargetTeleportSkill::SelectNextTarget, COMDAT
; _this$ = ecx

; 423  : {

  00000	55		 push	 ebp
  00001	8b ec		 mov	 ebp, esp
  00003	51		 push	 ecx

; 424  : 	if( !pChar || !pStage )

  00004	83 7d 08 00	 cmp	 DWORD PTR _pChar$[ebp], 0
  00008	56		 push	 esi
  00009	8b f1		 mov	 esi, ecx
  0000b	0f 84 fc 00 00
	00		 je	 $LN9@SelectNext
  00011	83 7d 0c 00	 cmp	 DWORD PTR _pStage$[ebp], 0
  00015	0f 84 f2 00 00
	00		 je	 $LN9@SelectNext

; 425  : 		return;
; 426  : 
; 427  : 	if( m_TargetCharList.empty() )

  0001b	8b 86 fc 0f 00
	00		 mov	 eax, DWORD PTR [esi+4092]
  00021	3b 86 00 10 00
	00		 cmp	 eax, DWORD PTR [esi+4096]
  00027	0f 84 e0 00 00
	00		 je	 $LN9@SelectNext

; 428  : 		return;
; 429  : 
; 430  : 	int iNewIndex = m_iCurTargetIndex + 1;

  0002d	53		 push	 ebx
  0002e	57		 push	 edi
  0002f	8d 45 fc	 lea	 eax, DWORD PTR _value$536943[ebp]
  00032	50		 push	 eax
  00033	8d 8e 0c 10 00
	00		 lea	 ecx, DWORD PTR [esi+4108]
  00039	e8 00 00 00 00	 call	 ?DecryptValueToPool@?$CEncrypt@H@@QAEXPAH@Z ; CEncrypt<int>::DecryptValueToPool
  0003e	8b 5d fc	 mov	 ebx, DWORD PTR _value$536943[ebp]
  00041	43		 inc	 ebx

; 431  : 	if( !COMPARE( iNewIndex, 0, (int)m_TargetCharList.size() ) )

  00042	0f 88 97 00 00
	00		 js	 $LN6@SelectNext
  00048	8b 86 00 10 00
	00		 mov	 eax, DWORD PTR [esi+4096]
  0004e	2b 86 fc 0f 00
	00		 sub	 eax, DWORD PTR [esi+4092]
  00054	c1 f8 04	 sar	 eax, 4
  00057	3b d8		 cmp	 ebx, eax
  00059	0f 8d 80 00 00
	00		 jge	 $LN6@SelectNext

; 436  : 		return;
; 437  : 	}
; 438  : 
; 439  : 	ioBaseChar *pTarget = NULL;

  0005f	83 65 fc 00	 and	 DWORD PTR _pTarget$[ebp], 0
  00063	8b fb		 mov	 edi, ebx
  00065	c1 e7 04	 shl	 edi, 4
$LL5@SelectNext:

; 440  : 
; 441  : 	while( !pTarget && COMPARE(iNewIndex, 0, (int)m_TargetCharList.size()) )

  00068	85 db		 test	 ebx, ebx
  0006a	78 46		 js	 SHORT $LN4@SelectNext
  0006c	8b 86 fc 0f 00
	00		 mov	 eax, DWORD PTR [esi+4092]
  00072	8b 8e 00 10 00
	00		 mov	 ecx, DWORD PTR [esi+4096]
  00078	2b c8		 sub	 ecx, eax
  0007a	c1 f9 04	 sar	 ecx, 4
  0007d	3b d9		 cmp	 ebx, ecx
  0007f	7d 31		 jge	 SHORT $LN4@SelectNext

; 442  : 	{
; 443  : 		pTarget = pStage->GetBaseChar( m_TargetCharList[iNewIndex] );

  00081	8b 4d 0c	 mov	 ecx, DWORD PTR _pStage$[ebp]
  00084	03 c7		 add	 eax, edi
  00086	50		 push	 eax
  00087	e8 00 00 00 00	 call	 ?GetBaseChar@ioPlayStage@@QAEPAVioBaseChar@@ABVioHashString@@@Z ; ioPlayStage::GetBaseChar
  0008c	8b c8		 mov	 ecx, eax
  0008e	89 4d fc	 mov	 DWORD PTR _pTarget$[ebp], ecx

; 444  : 
; 445  : 		if( pTarget && pTarget->IsSystemState() )

  00091	85 c9		 test	 ecx, ecx
  00093	74 13		 je	 SHORT $LN33@SelectNext
  00095	e8 00 00 00 00	 call	 ?IsSystemState@ioBaseChar@@QAE_NXZ ; ioBaseChar::IsSystemState
  0009a	84 c0		 test	 al, al
  0009c	74 0a		 je	 SHORT $LN33@SelectNext

; 446  : 		{	
; 447  : 			pTarget = NULL;

  0009e	83 65 fc 00	 and	 DWORD PTR _pTarget$[ebp], 0

; 448  : 			iNewIndex++;

  000a2	43		 inc	 ebx
  000a3	83 c7 10	 add	 edi, 16			; 00000010H

; 449  : 			continue;			

  000a6	eb c0		 jmp	 SHORT $LL5@SelectNext
$LN33@SelectNext:

; 450  : 		}
; 451  : 		else
; 452  : 		{
; 453  : 			iNewIndex++;

  000a8	43		 inc	 ebx
  000a9	83 c7 10	 add	 edi, 16			; 00000010H
  000ac	83 7d fc 00	 cmp	 DWORD PTR _pTarget$[ebp], 0
  000b0	74 b6		 je	 SHORT $LL5@SelectNext
$LN4@SelectNext:

; 454  : 		}
; 455  : 	}
; 456  : 
; 457  : 	if( pTarget )

  000b2	8b 45 fc	 mov	 eax, DWORD PTR _pTarget$[ebp]
  000b5	85 c0		 test	 eax, eax
  000b7	74 45		 je	 SHORT $LN27@SelectNext

; 458  : 	{
; 459  : 		m_CurTargetName = pTarget->GetCharName();

  000b9	05 d4 02 00 00	 add	 eax, 724		; 000002d4H
  000be	50		 push	 eax
  000bf	8d 8e ec 0f 00
	00		 lea	 ecx, DWORD PTR [esi+4076]
  000c5	ff 15 00 00 00
	00		 call	 DWORD PTR __imp_??4ioHashString@@QAEAAV0@ABV0@@Z

; 460  : 		m_iCurTargetIndex = iNewIndex;

  000cb	8d 45 fc	 lea	 eax, DWORD PTR _value$536967[ebp]
  000ce	50		 push	 eax
  000cf	8d 8e 0c 10 00
	00		 lea	 ecx, DWORD PTR [esi+4108]
  000d5	89 5d fc	 mov	 DWORD PTR _value$536967[ebp], ebx
  000d8	e8 00 00 00 00	 call	 ?EncryptValueToPool@?$CEncrypt@H@@AAEXPBD@Z ; CEncrypt<int>::EncryptValueToPool

; 461  : 	}
; 462  : 
; 463  : 	CheckTargetPos( pChar, pStage );

  000dd	eb 1f		 jmp	 SHORT $LN27@SelectNext
$LN6@SelectNext:

; 432  : 	{
; 433  : 		m_iCurTargetIndex = -1;

  000df	83 4d fc ff	 or	 DWORD PTR _value$536952[ebp], -1
  000e3	8d 45 fc	 lea	 eax, DWORD PTR _value$536952[ebp]
  000e6	50		 push	 eax
  000e7	8d 8e 0c 10 00
	00		 lea	 ecx, DWORD PTR [esi+4108]
  000ed	e8 00 00 00 00	 call	 ?EncryptValueToPool@?$CEncrypt@H@@AAEXPBD@Z ; CEncrypt<int>::EncryptValueToPool

; 434  : 		m_CurTargetName.Clear();

  000f2	8d 8e ec 0f 00
	00		 lea	 ecx, DWORD PTR [esi+4076]
  000f8	ff 15 00 00 00
	00		 call	 DWORD PTR __imp_?Clear@ioHashString@@QAEXXZ

; 460  : 		m_iCurTargetIndex = iNewIndex;

$LN27@SelectNext:

; 435  : 		CheckTargetPos( pChar, pStage );

  000fe	ff 75 0c	 push	 DWORD PTR _pStage$[ebp]
  00101	8b ce		 mov	 ecx, esi
  00103	ff 75 08	 push	 DWORD PTR _pChar$[ebp]
  00106	e8 00 00 00 00	 call	 ?CheckTargetPos@ioTargetTeleportSkill@@IAEXPAVioBaseChar@@PAVioPlayStage@@@Z ; ioTargetTeleportSkill::CheckTargetPos
  0010b	5f		 pop	 edi
  0010c	5b		 pop	 ebx
$LN9@SelectNext:
  0010d	5e		 pop	 esi

; 464  : }

  0010e	c9		 leave
  0010f	c2 08 00	 ret	 8
?SelectNextTarget@ioTargetTeleportSkill@@IAEXPAVioBaseChar@@PAVioPlayStage@@@Z ENDP ; ioTargetTeleportSkill::SelectNextTarget
_TEXT	ENDS
PUBLIC	??$_Cons_val@V?$allocator@UtagBaseCharDistanceSq@@@std@@UtagBaseCharDistanceSq@@ABU3@@std@@YAXAAV?$allocator@UtagBaseCharDistanceSq@@@0@PAUtagBaseCharDistanceSq@@ABU2@@Z ; std::_Cons_val<std::allocator<tagBaseCharDistanceSq>,tagBaseCharDistanceSq,tagBaseCharDistanceSq const &>
; Function compile flags: /Ogsp
; File c:\program files (x86)\microsoft visual studio 10.0\vc\include\xmemory
;	COMDAT ??$_Cons_val@V?$allocator@UtagBaseCharDistanceSq@@@std@@UtagBaseCharDistanceSq@@ABU3@@std@@YAXAAV?$allocator@UtagBaseCharDistanceSq@@@0@PAUtagBaseCharDistanceSq@@ABU2@@Z
_TEXT	SEGMENT
__Alval$ = 8						; size = 4
__Pdest$ = 12						; size = 4
__Src$ = 16						; size = 4
??$_Cons_val@V?$allocator@UtagBaseCharDistanceSq@@@std@@UtagBaseCharDistanceSq@@ABU3@@std@@YAXAAV?$allocator@UtagBaseCharDistanceSq@@@0@PAUtagBaseCharDistanceSq@@ABU2@@Z PROC ; std::_Cons_val<std::allocator<tagBaseCharDistanceSq>,tagBaseCharDistanceSq,tagBaseCharDistanceSq const &>, COMDAT

; 279  : 	{	// construct using allocator

  00000	55		 push	 ebp
  00001	8b ec		 mov	 ebp, esp

; 280  : 	_Alval.construct(_Pdest, _STD forward<_Ty2>(_Src));

  00003	ff 75 10	 push	 DWORD PTR __Src$[ebp]
  00006	ff 75 0c	 push	 DWORD PTR __Pdest$[ebp]
  00009	e8 00 00 00 00	 call	 ??$_Construct@UtagBaseCharDistanceSq@@ABU1@@std@@YAXPAUtagBaseCharDistanceSq@@ABU1@@Z ; std::_Construct<tagBaseCharDistanceSq,tagBaseCharDistanceSq const &>
  0000e	59		 pop	 ecx
  0000f	59		 pop	 ecx

; 281  : 	}

  00010	5d		 pop	 ebp
  00011	c3		 ret	 0
??$_Cons_val@V?$allocator@UtagBaseCharDistanceSq@@@std@@UtagBaseCharDistanceSq@@ABU3@@std@@YAXAAV?$allocator@UtagBaseCharDistanceSq@@@0@PAUtagBaseCharDistanceSq@@ABU2@@Z ENDP ; std::_Cons_val<std::allocator<tagBaseCharDistanceSq>,tagBaseCharDistanceSq,tagBaseCharDistanceSq const &>
_TEXT	ENDS
PUBLIC	??$_Dest_val@V?$allocator@UtagBaseCharDistanceSq@@@std@@UtagBaseCharDistanceSq@@@std@@YAXAAV?$allocator@UtagBaseCharDistanceSq@@@0@PAUtagBaseCharDistanceSq@@@Z ; std::_Dest_val<std::allocator<tagBaseCharDistanceSq>,tagBaseCharDistanceSq>
; Function compile flags: /Ogsp
;	COMDAT ??$_Dest_val@V?$allocator@UtagBaseCharDistanceSq@@@std@@UtagBaseCharDistanceSq@@@std@@YAXAAV?$allocator@UtagBaseCharDistanceSq@@@0@PAUtagBaseCharDistanceSq@@@Z
_TEXT	SEGMENT
__Alval$ = 8						; size = 4
__Pdest$ = 12						; size = 4
??$_Dest_val@V?$allocator@UtagBaseCharDistanceSq@@@std@@UtagBaseCharDistanceSq@@@std@@YAXAAV?$allocator@UtagBaseCharDistanceSq@@@0@PAUtagBaseCharDistanceSq@@@Z PROC ; std::_Dest_val<std::allocator<tagBaseCharDistanceSq>,tagBaseCharDistanceSq>, COMDAT

; 286  : 	{	// destroy using allocator

  00000	55		 push	 ebp
  00001	8b ec		 mov	 ebp, esp

; 287  : 	_Alval.destroy(_Pdest);

  00003	8b 4d 0c	 mov	 ecx, DWORD PTR __Pdest$[ebp]

; 288  : 	}

  00006	5d		 pop	 ebp

; 287  : 	_Alval.destroy(_Pdest);

  00007	ff 25 00 00 00
	00		 jmp	 DWORD PTR __imp_??1ioHashString@@QAE@XZ
??$_Dest_val@V?$allocator@UtagBaseCharDistanceSq@@@std@@UtagBaseCharDistanceSq@@@std@@YAXAAV?$allocator@UtagBaseCharDistanceSq@@@0@PAUtagBaseCharDistanceSq@@@Z ENDP ; std::_Dest_val<std::allocator<tagBaseCharDistanceSq>,tagBaseCharDistanceSq>
_TEXT	ENDS
PUBLIC	??$_Median@PAUtagBaseCharDistanceSq@@VBaseCharDistanceSqSort@@@std@@YAXPAUtagBaseCharDistanceSq@@00VBaseCharDistanceSqSort@@@Z ; std::_Median<tagBaseCharDistanceSq *,BaseCharDistanceSqSort>
; Function compile flags: /Ogsp
; File c:\program files (x86)\microsoft visual studio 10.0\vc\include\algorithm
;	COMDAT ??$_Median@PAUtagBaseCharDistanceSq@@VBaseCharDistanceSqSort@@@std@@YAXPAUtagBaseCharDistanceSq@@00VBaseCharDistanceSqSort@@@Z
_TEXT	SEGMENT
tv200 = 8						; size = 4
__First$ = 8						; size = 4
__Mid$ = 12						; size = 4
tv203 = 16						; size = 4
__Last$ = 16						; size = 4
__Pred$ = 20						; size = 1
??$_Median@PAUtagBaseCharDistanceSq@@VBaseCharDistanceSqSort@@@std@@YAXPAUtagBaseCharDistanceSq@@00VBaseCharDistanceSqSort@@@Z PROC ; std::_Median<tagBaseCharDistanceSq *,BaseCharDistanceSqSort>, COMDAT

; 3695 : 	{	// sort median element to middle

  00000	55		 push	 ebp
  00001	8b ec		 mov	 ebp, esp

; 3696 : 	if (40 < _Last - _First)

  00003	8b 4d 08	 mov	 ecx, DWORD PTR __First$[ebp]
  00006	57		 push	 edi
  00007	8b 7d 10	 mov	 edi, DWORD PTR __Last$[ebp]
  0000a	8b c7		 mov	 eax, edi
  0000c	2b c1		 sub	 eax, ecx
  0000e	c1 f8 05	 sar	 eax, 5
  00011	83 f8 28	 cmp	 eax, 40			; 00000028H
  00014	7e 6a		 jle	 SHORT $LN2@Median

; 3697 : 		{	// median of nine
; 3698 : 		size_t _Step = (_Last - _First + 1) / 8;

  00016	40		 inc	 eax
  00017	99		 cdq
  00018	83 e2 07	 and	 edx, 7
  0001b	53		 push	 ebx
  0001c	03 c2		 add	 eax, edx
  0001e	c1 f8 03	 sar	 eax, 3
  00021	56		 push	 esi

; 3699 : 		_Med3(_First, _First + _Step, _First + 2 * _Step, _Pred);

  00022	ff 75 14	 push	 DWORD PTR __Pred$[ebp]
  00025	8b d8		 mov	 ebx, eax
  00027	8b f0		 mov	 esi, eax
  00029	c1 e3 06	 shl	 ebx, 6
  0002c	8d 14 0b	 lea	 edx, DWORD PTR [ebx+ecx]
  0002f	c1 e6 05	 shl	 esi, 5
  00032	8d 04 0e	 lea	 eax, DWORD PTR [esi+ecx]
  00035	52		 push	 edx
  00036	50		 push	 eax
  00037	51		 push	 ecx
  00038	89 45 08	 mov	 DWORD PTR tv200[ebp], eax
  0003b	e8 00 00 00 00	 call	 ??$_Med3@PAUtagBaseCharDistanceSq@@VBaseCharDistanceSqSort@@@std@@YAXPAUtagBaseCharDistanceSq@@00VBaseCharDistanceSqSort@@@Z ; std::_Med3<tagBaseCharDistanceSq *,BaseCharDistanceSqSort>

; 3700 : 		_Med3(_Mid - _Step, _Mid, _Mid + _Step, _Pred);

  00040	ff 75 14	 push	 DWORD PTR __Pred$[ebp]
  00043	8b 45 0c	 mov	 eax, DWORD PTR __Mid$[ebp]
  00046	8d 0c 06	 lea	 ecx, DWORD PTR [esi+eax]
  00049	51		 push	 ecx
  0004a	50		 push	 eax
  0004b	2b c6		 sub	 eax, esi
  0004d	50		 push	 eax
  0004e	e8 00 00 00 00	 call	 ??$_Med3@PAUtagBaseCharDistanceSq@@VBaseCharDistanceSqSort@@@std@@YAXPAUtagBaseCharDistanceSq@@00VBaseCharDistanceSqSort@@@Z ; std::_Med3<tagBaseCharDistanceSq *,BaseCharDistanceSqSort>

; 3701 : 		_Med3(_Last - 2 * _Step, _Last - _Step, _Last, _Pred);

  00053	ff 75 14	 push	 DWORD PTR __Pred$[ebp]
  00056	89 7d 10	 mov	 DWORD PTR tv203[ebp], edi
  00059	29 75 10	 sub	 DWORD PTR tv203[ebp], esi
  0005c	57		 push	 edi
  0005d	ff 75 10	 push	 DWORD PTR tv203[ebp]
  00060	2b fb		 sub	 edi, ebx
  00062	57		 push	 edi
  00063	e8 00 00 00 00	 call	 ??$_Med3@PAUtagBaseCharDistanceSq@@VBaseCharDistanceSqSort@@@std@@YAXPAUtagBaseCharDistanceSq@@00VBaseCharDistanceSqSort@@@Z ; std::_Med3<tagBaseCharDistanceSq *,BaseCharDistanceSqSort>

; 3702 : 		_Med3(_First + _Step, _Mid, _Last - _Step, _Pred);

  00068	ff 75 14	 push	 DWORD PTR __Pred$[ebp]
  0006b	ff 75 10	 push	 DWORD PTR tv203[ebp]
  0006e	ff 75 0c	 push	 DWORD PTR __Mid$[ebp]
  00071	ff 75 08	 push	 DWORD PTR tv200[ebp]
  00074	e8 00 00 00 00	 call	 ??$_Med3@PAUtagBaseCharDistanceSq@@VBaseCharDistanceSqSort@@@std@@YAXPAUtagBaseCharDistanceSq@@00VBaseCharDistanceSqSort@@@Z ; std::_Med3<tagBaseCharDistanceSq *,BaseCharDistanceSqSort>
  00079	83 c4 40	 add	 esp, 64			; 00000040H
  0007c	5e		 pop	 esi
  0007d	5b		 pop	 ebx

; 3703 : 		}
; 3704 : 	else

  0007e	eb 10		 jmp	 SHORT $LN1@Median
$LN2@Median:

; 3705 : 		_Med3(_First, _Mid, _Last, _Pred);

  00080	ff 75 14	 push	 DWORD PTR __Pred$[ebp]
  00083	57		 push	 edi
  00084	ff 75 0c	 push	 DWORD PTR __Mid$[ebp]
  00087	51		 push	 ecx
  00088	e8 00 00 00 00	 call	 ??$_Med3@PAUtagBaseCharDistanceSq@@VBaseCharDistanceSqSort@@@std@@YAXPAUtagBaseCharDistanceSq@@00VBaseCharDistanceSqSort@@@Z ; std::_Med3<tagBaseCharDistanceSq *,BaseCharDistanceSqSort>
  0008d	83 c4 10	 add	 esp, 16			; 00000010H
$LN1@Median:
  00090	5f		 pop	 edi

; 3706 : 	}

  00091	5d		 pop	 ebp
  00092	c3		 ret	 0
??$_Median@PAUtagBaseCharDistanceSq@@VBaseCharDistanceSqSort@@@std@@YAXPAUtagBaseCharDistanceSq@@00VBaseCharDistanceSqSort@@@Z ENDP ; std::_Median<tagBaseCharDistanceSq *,BaseCharDistanceSqSort>
_TEXT	ENDS
PUBLIC	??$_Make_heap@PAUtagBaseCharDistanceSq@@HU1@VBaseCharDistanceSqSort@@@std@@YAXPAUtagBaseCharDistanceSq@@0VBaseCharDistanceSqSort@@PAH0@Z ; std::_Make_heap<tagBaseCharDistanceSq *,int,tagBaseCharDistanceSq,BaseCharDistanceSqSort>
;	COMDAT xdata$x
; File d:\lost saga for developer\youtube\tutorial\source\src\lsclient\iotargetteleportskill.cpp
xdata$x	SEGMENT
__unwindtable$??$_Make_heap@PAUtagBaseCharDistanceSq@@HU1@VBaseCharDistanceSqSort@@@std@@YAXPAUtagBaseCharDistanceSq@@0VBaseCharDistanceSqSort@@PAH0@Z DD 0ffffffffH
	DD	FLAT:__unwindfunclet$??$_Make_heap@PAUtagBaseCharDistanceSq@@HU1@VBaseCharDistanceSqSort@@@std@@YAXPAUtagBaseCharDistanceSq@@0VBaseCharDistanceSqSort@@PAH0@Z$0
__ehfuncinfo$??$_Make_heap@PAUtagBaseCharDistanceSq@@HU1@VBaseCharDistanceSqSort@@@std@@YAXPAUtagBaseCharDistanceSq@@0VBaseCharDistanceSqSort@@PAH0@Z DD 019930522H
	DD	01H
	DD	FLAT:__unwindtable$??$_Make_heap@PAUtagBaseCharDistanceSq@@HU1@VBaseCharDistanceSqSort@@@std@@YAXPAUtagBaseCharDistanceSq@@0VBaseCharDistanceSqSort@@PAH0@Z
	DD	2 DUP(00H)
	DD	2 DUP(00H)
	DD	00H
	DD	01H
; Function compile flags: /Ogsp
; File c:\program files (x86)\microsoft visual studio 10.0\vc\include\algorithm
xdata$x	ENDS
;	COMDAT ??$_Make_heap@PAUtagBaseCharDistanceSq@@HU1@VBaseCharDistanceSqSort@@@std@@YAXPAUtagBaseCharDistanceSq@@0VBaseCharDistanceSqSort@@PAH0@Z
_TEXT	SEGMENT
__Bottom$ = -52						; size = 4
__Val$533715 = -48					; size = 32
__$EHRec$ = -12						; size = 12
__First$ = 8						; size = 4
__Last$ = 12						; size = 4
__Pred$ = 16						; size = 1
___formal$ = 20						; size = 4
___formal$ = 24						; size = 4
??$_Make_heap@PAUtagBaseCharDistanceSq@@HU1@VBaseCharDistanceSqSort@@@std@@YAXPAUtagBaseCharDistanceSq@@0VBaseCharDistanceSqSort@@PAH0@Z PROC ; std::_Make_heap<tagBaseCharDistanceSq *,int,tagBaseCharDistanceSq,BaseCharDistanceSqSort>, COMDAT

; 2658 : 	{	// make nontrivial [_First, _Last) into a heap, using _Pred

  00000	6a 28		 push	 40			; 00000028H
  00002	b8 00 00 00 00	 mov	 eax, __ehhandler$??$_Make_heap@PAUtagBaseCharDistanceSq@@HU1@VBaseCharDistanceSqSort@@@std@@YAXPAUtagBaseCharDistanceSq@@0VBaseCharDistanceSqSort@@PAH0@Z
  00007	e8 00 00 00 00	 call	 __EH_prolog3_GS
  0000c	8b 5d 08	 mov	 ebx, DWORD PTR __First$[ebp]
  0000f	8b 45 0c	 mov	 eax, DWORD PTR __Last$[ebp]

; 2659 : 	_Diff _Bottom = _Last - _First;

  00012	2b c3		 sub	 eax, ebx
  00014	c1 f8 05	 sar	 eax, 5
  00017	89 45 cc	 mov	 DWORD PTR __Bottom$[ebp], eax

; 2660 : 	for (_Diff _Hole = _Bottom / 2; 0 < _Hole; )

  0001a	99		 cdq
  0001b	2b c2		 sub	 eax, edx
  0001d	8b f0		 mov	 esi, eax
  0001f	d1 fe		 sar	 esi, 1
  00021	85 f6		 test	 esi, esi
  00023	7e 3d		 jle	 SHORT $LN1@Make_heap

; 2661 : 		{	// reheap top half, bottom to top
; 2662 : 		--_Hole;
; 2663 : 		_Ty _Val = _Move(*(_First + _Hole));

  00025	8b fe		 mov	 edi, esi
  00027	c1 e7 05	 shl	 edi, 5
  0002a	03 fb		 add	 edi, ebx
$LL2@Make_heap:
  0002c	83 ef 20	 sub	 edi, 32			; 00000020H
  0002f	57		 push	 edi
  00030	8d 4d d0	 lea	 ecx, DWORD PTR __Val$533715[ebp]
  00033	4e		 dec	 esi
  00034	e8 00 00 00 00	 call	 ??0tagBaseCharDistanceSq@@QAE@ABU0@@Z

; 2664 : 		_Adjust_heap(_First, _Hole, _Bottom,
; 2665 : 			_Move(_Val), _Pred);

  00039	ff 75 10	 push	 DWORD PTR __Pred$[ebp]
  0003c	83 65 fc 00	 and	 DWORD PTR __$EHRec$[ebp+8], 0
  00040	8d 45 d0	 lea	 eax, DWORD PTR __Val$533715[ebp]
  00043	50		 push	 eax
  00044	ff 75 cc	 push	 DWORD PTR __Bottom$[ebp]
  00047	56		 push	 esi
  00048	53		 push	 ebx
  00049	e8 00 00 00 00	 call	 ??$_Adjust_heap@PAUtagBaseCharDistanceSq@@HU1@VBaseCharDistanceSqSort@@@std@@YAXPAUtagBaseCharDistanceSq@@HH$$QAU1@VBaseCharDistanceSqSort@@@Z ; std::_Adjust_heap<tagBaseCharDistanceSq *,int,tagBaseCharDistanceSq,BaseCharDistanceSqSort>

; 2666 : 		}

  0004e	83 4d fc ff	 or	 DWORD PTR __$EHRec$[ebp+8], -1
  00052	83 c4 14	 add	 esp, 20			; 00000014H
  00055	8d 4d d0	 lea	 ecx, DWORD PTR __Val$533715[ebp]
  00058	ff 15 00 00 00
	00		 call	 DWORD PTR __imp_??1ioHashString@@QAE@XZ
  0005e	85 f6		 test	 esi, esi
  00060	7f ca		 jg	 SHORT $LL2@Make_heap
$LN1@Make_heap:

; 2667 : 	}

  00062	e8 00 00 00 00	 call	 __EH_epilog3_GS
  00067	c3		 ret	 0
_TEXT	ENDS
;	COMDAT text$x
text$x	SEGMENT
__unwindfunclet$??$_Make_heap@PAUtagBaseCharDistanceSq@@HU1@VBaseCharDistanceSqSort@@@std@@YAXPAUtagBaseCharDistanceSq@@0VBaseCharDistanceSqSort@@PAH0@Z$0:
  00000	8d 4d d0	 lea	 ecx, DWORD PTR __Val$533715[ebp]
  00003	e9 00 00 00 00	 jmp	 ??1tagBaseCharDistanceSq@@QAE@XZ
__ehhandler$??$_Make_heap@PAUtagBaseCharDistanceSq@@HU1@VBaseCharDistanceSqSort@@@std@@YAXPAUtagBaseCharDistanceSq@@0VBaseCharDistanceSqSort@@PAH0@Z:
  00008	8b 54 24 08	 mov	 edx, DWORD PTR [esp+8]
  0000c	8d 42 0c	 lea	 eax, DWORD PTR [edx+12]
  0000f	8b 4a c8	 mov	 ecx, DWORD PTR [edx-56]
  00012	33 c8		 xor	 ecx, eax
  00014	e8 00 00 00 00	 call	 @__security_check_cookie@4
  00019	8b 4a fc	 mov	 ecx, DWORD PTR [edx-4]
  0001c	33 c8		 xor	 ecx, eax
  0001e	e8 00 00 00 00	 call	 @__security_check_cookie@4
  00023	b8 00 00 00 00	 mov	 eax, OFFSET __ehfuncinfo$??$_Make_heap@PAUtagBaseCharDistanceSq@@HU1@VBaseCharDistanceSqSort@@@std@@YAXPAUtagBaseCharDistanceSq@@0VBaseCharDistanceSqSort@@PAH0@Z
  00028	e9 00 00 00 00	 jmp	 ___CxxFrameHandler3
text$x	ENDS
??$_Make_heap@PAUtagBaseCharDistanceSq@@HU1@VBaseCharDistanceSqSort@@@std@@YAXPAUtagBaseCharDistanceSq@@0VBaseCharDistanceSqSort@@PAH0@Z ENDP ; std::_Make_heap<tagBaseCharDistanceSq *,int,tagBaseCharDistanceSq,BaseCharDistanceSqSort>
PUBLIC	??$_Insertion_sort1@PAUtagBaseCharDistanceSq@@VBaseCharDistanceSqSort@@U1@@std@@YAXPAUtagBaseCharDistanceSq@@0VBaseCharDistanceSqSort@@0@Z ; std::_Insertion_sort1<tagBaseCharDistanceSq *,BaseCharDistanceSqSort,tagBaseCharDistanceSq>
;	COMDAT xdata$x
; File d:\lost saga for developer\youtube\tutorial\source\src\lsclient\iotargetteleportskill.cpp
xdata$x	SEGMENT
__unwindtable$??$_Insertion_sort1@PAUtagBaseCharDistanceSq@@VBaseCharDistanceSqSort@@U1@@std@@YAXPAUtagBaseCharDistanceSq@@0VBaseCharDistanceSqSort@@0@Z DD 0ffffffffH
	DD	FLAT:__unwindfunclet$??$_Insertion_sort1@PAUtagBaseCharDistanceSq@@VBaseCharDistanceSqSort@@U1@@std@@YAXPAUtagBaseCharDistanceSq@@0VBaseCharDistanceSqSort@@0@Z$0
__ehfuncinfo$??$_Insertion_sort1@PAUtagBaseCharDistanceSq@@VBaseCharDistanceSqSort@@U1@@std@@YAXPAUtagBaseCharDistanceSq@@0VBaseCharDistanceSqSort@@0@Z DD 019930522H
	DD	01H
	DD	FLAT:__unwindtable$??$_Insertion_sort1@PAUtagBaseCharDistanceSq@@VBaseCharDistanceSqSort@@U1@@std@@YAXPAUtagBaseCharDistanceSq@@0VBaseCharDistanceSqSort@@0@Z
	DD	2 DUP(00H)
	DD	2 DUP(00H)
	DD	00H
	DD	01H
; Function compile flags: /Ogsp
; File c:\program files (x86)\microsoft visual studio 10.0\vc\include\algorithm
xdata$x	ENDS
;	COMDAT ??$_Insertion_sort1@PAUtagBaseCharDistanceSq@@VBaseCharDistanceSqSort@@U1@@std@@YAXPAUtagBaseCharDistanceSq@@0VBaseCharDistanceSqSort@@0@Z
_TEXT	SEGMENT
__Cat$537063 = -52					; size = 1
__Next1$533758 = -52					; size = 4
__Val$533759 = -48					; size = 32
__$EHRec$ = -12						; size = 12
__First$ = 8						; size = 4
__Last$ = 12						; size = 4
__Pred$ = 16						; size = 1
___formal$ = 20						; size = 4
??$_Insertion_sort1@PAUtagBaseCharDistanceSq@@VBaseCharDistanceSqSort@@U1@@std@@YAXPAUtagBaseCharDistanceSq@@0VBaseCharDistanceSqSort@@0@Z PROC ; std::_Insertion_sort1<tagBaseCharDistanceSq *,BaseCharDistanceSqSort,tagBaseCharDistanceSq>, COMDAT

; 3650 : 	{	// insertion sort [_First, _Last), using _Pred

  00000	6a 28		 push	 40			; 00000028H
  00002	b8 00 00 00 00	 mov	 eax, __ehhandler$??$_Insertion_sort1@PAUtagBaseCharDistanceSq@@VBaseCharDistanceSqSort@@U1@@std@@YAXPAUtagBaseCharDistanceSq@@0VBaseCharDistanceSqSort@@0@Z
  00007	e8 00 00 00 00	 call	 __EH_prolog3_GS
  0000c	8b 7d 08	 mov	 edi, DWORD PTR __First$[ebp]

; 3651 : 	if (_First != _Last)

  0000f	3b 7d 0c	 cmp	 edi, DWORD PTR __Last$[ebp]
  00012	74 5c		 je	 SHORT $LN6@Insertion_

; 3652 : 		for (_BidIt _Next = _First; ++_Next != _Last; )

  00014	8d 77 20	 lea	 esi, DWORD PTR [edi+32]
  00017	eb 52		 jmp	 SHORT $LN39@Insertion_
$LL7@Insertion_:

; 3653 : 			{	// order next element
; 3654 : 			_BidIt _Next1 = _Next;
; 3655 : 			_Ty _Val = _Move(*_Next);

  00019	56		 push	 esi
  0001a	8d 4d d0	 lea	 ecx, DWORD PTR __Val$533759[ebp]
  0001d	89 75 cc	 mov	 DWORD PTR __Next1$533758[ebp], esi
  00020	e8 00 00 00 00	 call	 ??0tagBaseCharDistanceSq@@QAE@ABU0@@Z

; 3656 : 
; 3657 : 			if (_DEBUG_LT_PRED(_Pred, _Val, *_First))

  00025	f3 0f 10 45 e0	 movss	 xmm0, DWORD PTR __Val$533759[ebp+16]
  0002a	f3 0f 10 4f 10	 movss	 xmm1, DWORD PTR [edi+16]
  0002f	83 65 fc 00	 and	 DWORD PTR __$EHRec$[ebp+8], 0
  00033	0f 5a c0	 cvtps2pd xmm0, xmm0
  00036	0f 5a c9	 cvtps2pd xmm1, xmm1
  00039	66 0f 2f c1	 comisd	 xmm0, xmm1
  0003d	76 37		 jbe	 SHORT $LN5@Insertion_

; 3658 : 				{	// found new earliest element, move to front
; 3659 : 				_Move_backward(_First, _Next, ++_Next1);

  0003f	ff 75 cc	 push	 DWORD PTR __Cat$537063[ebp]
  00042	8d 46 20	 lea	 eax, DWORD PTR [esi+32]
  00045	50		 push	 eax
  00046	56		 push	 esi
  00047	57		 push	 edi
  00048	e8 00 00 00 00	 call	 ??$_Move_backward@PAUtagBaseCharDistanceSq@@PAU1@@std@@YAPAUtagBaseCharDistanceSq@@PAU1@00U_Nonscalar_ptr_iterator_tag@0@@Z ; std::_Move_backward<tagBaseCharDistanceSq *,tagBaseCharDistanceSq *>
  0004d	83 c4 10	 add	 esp, 16			; 00000010H

; 3660 : 				*_First = _Move(_Val);

  00050	8b cf		 mov	 ecx, edi
$LN40@Insertion_:

; 3668 : 				*_Next1 = _Move(_Val);	// insert element in hole

  00052	8d 45 d0	 lea	 eax, DWORD PTR __Val$533759[ebp]
  00055	50		 push	 eax
  00056	e8 00 00 00 00	 call	 ??4tagBaseCharDistanceSq@@QAEAAU0@ABU0@@Z

; 3669 : 				}
; 3670 : 			}

  0005b	83 4d fc ff	 or	 DWORD PTR __$EHRec$[ebp+8], -1
  0005f	8d 4d d0	 lea	 ecx, DWORD PTR __Val$533759[ebp]
  00062	ff 15 00 00 00
	00		 call	 DWORD PTR __imp_??1ioHashString@@QAE@XZ
  00068	83 c6 20	 add	 esi, 32			; 00000020H
$LN39@Insertion_:

; 3652 : 		for (_BidIt _Next = _First; ++_Next != _Last; )

  0006b	3b 75 0c	 cmp	 esi, DWORD PTR __Last$[ebp]
  0006e	75 a9		 jne	 SHORT $LL7@Insertion_
$LN6@Insertion_:

; 3671 : 	}

  00070	e8 00 00 00 00	 call	 __EH_epilog3_GS
  00075	c3		 ret	 0
$LN5@Insertion_:

; 3661 : 				}
; 3662 : 			else
; 3663 : 				{	// look for insertion point after first
; 3664 : 				for (_BidIt _First1 = _Next1;

  00076	8b de		 mov	 ebx, esi
$LL3@Insertion_:

; 3665 : 					_DEBUG_LT_PRED(_Pred, _Val, *--_First1);
; 3666 : 					_Next1 = _First1)

  00078	f3 0f 10 45 e0	 movss	 xmm0, DWORD PTR __Val$533759[ebp+16]
  0007d	f3 0f 10 4b f0	 movss	 xmm1, DWORD PTR [ebx-16]

; 3667 : 					*_Next1 = _Move(*_First1);	// move hole down

  00082	8b 4d cc	 mov	 ecx, DWORD PTR __Next1$533758[ebp]
  00085	83 eb 20	 sub	 ebx, 32			; 00000020H
  00088	0f 5a c0	 cvtps2pd xmm0, xmm0
  0008b	0f 5a c9	 cvtps2pd xmm1, xmm1
  0008e	66 0f 2f c1	 comisd	 xmm0, xmm1
  00092	76 be		 jbe	 SHORT $LN40@Insertion_
  00094	53		 push	 ebx
  00095	e8 00 00 00 00	 call	 ??4tagBaseCharDistanceSq@@QAEAAU0@ABU0@@Z
  0009a	89 5d cc	 mov	 DWORD PTR __Next1$533758[ebp], ebx
  0009d	eb d9		 jmp	 SHORT $LL3@Insertion_
_TEXT	ENDS
;	COMDAT text$x
text$x	SEGMENT
__unwindfunclet$??$_Insertion_sort1@PAUtagBaseCharDistanceSq@@VBaseCharDistanceSqSort@@U1@@std@@YAXPAUtagBaseCharDistanceSq@@0VBaseCharDistanceSqSort@@0@Z$0:
  00000	8d 4d d0	 lea	 ecx, DWORD PTR __Val$533759[ebp]
  00003	e9 00 00 00 00	 jmp	 ??1tagBaseCharDistanceSq@@QAE@XZ
__ehhandler$??$_Insertion_sort1@PAUtagBaseCharDistanceSq@@VBaseCharDistanceSqSort@@U1@@std@@YAXPAUtagBaseCharDistanceSq@@0VBaseCharDistanceSqSort@@0@Z:
  00008	8b 54 24 08	 mov	 edx, DWORD PTR [esp+8]
  0000c	8d 42 0c	 lea	 eax, DWORD PTR [edx+12]
  0000f	8b 4a c8	 mov	 ecx, DWORD PTR [edx-56]
  00012	33 c8		 xor	 ecx, eax
  00014	e8 00 00 00 00	 call	 @__security_check_cookie@4
  00019	8b 4a fc	 mov	 ecx, DWORD PTR [edx-4]
  0001c	33 c8		 xor	 ecx, eax
  0001e	e8 00 00 00 00	 call	 @__security_check_cookie@4
  00023	b8 00 00 00 00	 mov	 eax, OFFSET __ehfuncinfo$??$_Insertion_sort1@PAUtagBaseCharDistanceSq@@VBaseCharDistanceSqSort@@U1@@std@@YAXPAUtagBaseCharDistanceSq@@0VBaseCharDistanceSqSort@@0@Z
  00028	e9 00 00 00 00	 jmp	 ___CxxFrameHandler3
text$x	ENDS
??$_Insertion_sort1@PAUtagBaseCharDistanceSq@@VBaseCharDistanceSqSort@@U1@@std@@YAXPAUtagBaseCharDistanceSq@@0VBaseCharDistanceSqSort@@0@Z ENDP ; std::_Insertion_sort1<tagBaseCharDistanceSq *,BaseCharDistanceSqSort,tagBaseCharDistanceSq>
PUBLIC	??$_Pop_heap_0@PAUtagBaseCharDistanceSq@@U1@VBaseCharDistanceSqSort@@@std@@YAXPAUtagBaseCharDistanceSq@@0VBaseCharDistanceSqSort@@0@Z ; std::_Pop_heap_0<tagBaseCharDistanceSq *,tagBaseCharDistanceSq,BaseCharDistanceSqSort>
;	COMDAT xdata$x
; File d:\lost saga for developer\youtube\tutorial\source\src\lsclient\iotargetteleportskill.cpp
xdata$x	SEGMENT
__unwindtable$??$_Pop_heap_0@PAUtagBaseCharDistanceSq@@U1@VBaseCharDistanceSqSort@@@std@@YAXPAUtagBaseCharDistanceSq@@0VBaseCharDistanceSqSort@@0@Z DD 0ffffffffH
	DD	FLAT:__unwindfunclet$??$_Pop_heap_0@PAUtagBaseCharDistanceSq@@U1@VBaseCharDistanceSqSort@@@std@@YAXPAUtagBaseCharDistanceSq@@0VBaseCharDistanceSqSort@@0@Z$0
__ehfuncinfo$??$_Pop_heap_0@PAUtagBaseCharDistanceSq@@U1@VBaseCharDistanceSqSort@@@std@@YAXPAUtagBaseCharDistanceSq@@0VBaseCharDistanceSqSort@@0@Z DD 019930522H
	DD	01H
	DD	FLAT:__unwindtable$??$_Pop_heap_0@PAUtagBaseCharDistanceSq@@U1@VBaseCharDistanceSqSort@@@std@@YAXPAUtagBaseCharDistanceSq@@0VBaseCharDistanceSqSort@@0@Z
	DD	2 DUP(00H)
	DD	2 DUP(00H)
	DD	00H
	DD	01H
; Function compile flags: /Ogsp
; File c:\program files (x86)\microsoft visual studio 10.0\vc\include\algorithm
xdata$x	ENDS
;	COMDAT ??$_Pop_heap_0@PAUtagBaseCharDistanceSq@@U1@VBaseCharDistanceSqSort@@@std@@YAXPAUtagBaseCharDistanceSq@@0VBaseCharDistanceSqSort@@0@Z
_TEXT	SEGMENT
__Val$ = -48						; size = 32
__$EHRec$ = -12						; size = 12
__First$ = 8						; size = 4
__Last$ = 12						; size = 4
__Pred$ = 16						; size = 1
___formal$ = 20						; size = 4
??$_Pop_heap_0@PAUtagBaseCharDistanceSq@@U1@VBaseCharDistanceSqSort@@@std@@YAXPAUtagBaseCharDistanceSq@@0VBaseCharDistanceSqSort@@0@Z PROC ; std::_Pop_heap_0<tagBaseCharDistanceSq *,tagBaseCharDistanceSq,BaseCharDistanceSqSort>, COMDAT

; 2601 : 	{	// pop *_First to *(_Last - 1) and reheap, using _Pred

  00000	6a 24		 push	 36			; 00000024H
  00002	b8 00 00 00 00	 mov	 eax, __ehhandler$??$_Pop_heap_0@PAUtagBaseCharDistanceSq@@U1@VBaseCharDistanceSqSort@@@std@@YAXPAUtagBaseCharDistanceSq@@0VBaseCharDistanceSqSort@@0@Z
  00007	e8 00 00 00 00	 call	 __EH_prolog3_GS
  0000c	8b 75 0c	 mov	 esi, DWORD PTR __Last$[ebp]
  0000f	8b 7d 08	 mov	 edi, DWORD PTR __First$[ebp]

; 2602 : 	_Ty _Val = _Move(*(_Last - 1));

  00012	83 c6 e0	 add	 esi, -32		; ffffffe0H
  00015	56		 push	 esi
  00016	8d 4d d0	 lea	 ecx, DWORD PTR __Val$[ebp]
  00019	e8 00 00 00 00	 call	 ??0tagBaseCharDistanceSq@@QAE@ABU0@@Z
  0001e	83 65 fc 00	 and	 DWORD PTR __$EHRec$[ebp+8], 0

; 2603 : 	_Pop_heap(_First, _Last - 1, _Last - 1,
; 2604 : 		_Move(_Val), _Pred, _Dist_type(_First));

  00022	6a 00		 push	 0
  00024	ff 75 10	 push	 DWORD PTR __Pred$[ebp]
  00027	8d 45 d0	 lea	 eax, DWORD PTR __Val$[ebp]
  0002a	50		 push	 eax
  0002b	56		 push	 esi
  0002c	56		 push	 esi
  0002d	57		 push	 edi
  0002e	e8 00 00 00 00	 call	 ??$_Pop_heap@PAUtagBaseCharDistanceSq@@HU1@VBaseCharDistanceSqSort@@@std@@YAXPAUtagBaseCharDistanceSq@@00$$QAU1@VBaseCharDistanceSqSort@@PAH@Z ; std::_Pop_heap<tagBaseCharDistanceSq *,int,tagBaseCharDistanceSq,BaseCharDistanceSqSort>

; 2605 : 	}

  00033	83 4d fc ff	 or	 DWORD PTR __$EHRec$[ebp+8], -1
  00037	83 c4 18	 add	 esp, 24			; 00000018H
  0003a	8d 4d d0	 lea	 ecx, DWORD PTR __Val$[ebp]
  0003d	ff 15 00 00 00
	00		 call	 DWORD PTR __imp_??1ioHashString@@QAE@XZ
  00043	e8 00 00 00 00	 call	 __EH_epilog3_GS
  00048	c3		 ret	 0
_TEXT	ENDS
;	COMDAT text$x
text$x	SEGMENT
__unwindfunclet$??$_Pop_heap_0@PAUtagBaseCharDistanceSq@@U1@VBaseCharDistanceSqSort@@@std@@YAXPAUtagBaseCharDistanceSq@@0VBaseCharDistanceSqSort@@0@Z$0:
  00000	8d 4d d0	 lea	 ecx, DWORD PTR __Val$[ebp]
  00003	e9 00 00 00 00	 jmp	 ??1tagBaseCharDistanceSq@@QAE@XZ
__ehhandler$??$_Pop_heap_0@PAUtagBaseCharDistanceSq@@U1@VBaseCharDistanceSqSort@@@std@@YAXPAUtagBaseCharDistanceSq@@0VBaseCharDistanceSqSort@@0@Z:
  00008	8b 54 24 08	 mov	 edx, DWORD PTR [esp+8]
  0000c	8d 42 0c	 lea	 eax, DWORD PTR [edx+12]
  0000f	8b 4a cc	 mov	 ecx, DWORD PTR [edx-52]
  00012	33 c8		 xor	 ecx, eax
  00014	e8 00 00 00 00	 call	 @__security_check_cookie@4
  00019	8b 4a fc	 mov	 ecx, DWORD PTR [edx-4]
  0001c	33 c8		 xor	 ecx, eax
  0001e	e8 00 00 00 00	 call	 @__security_check_cookie@4
  00023	b8 00 00 00 00	 mov	 eax, OFFSET __ehfuncinfo$??$_Pop_heap_0@PAUtagBaseCharDistanceSq@@U1@VBaseCharDistanceSqSort@@@std@@YAXPAUtagBaseCharDistanceSq@@0VBaseCharDistanceSqSort@@0@Z
  00028	e9 00 00 00 00	 jmp	 ___CxxFrameHandler3
text$x	ENDS
??$_Pop_heap_0@PAUtagBaseCharDistanceSq@@U1@VBaseCharDistanceSqSort@@@std@@YAXPAUtagBaseCharDistanceSq@@0VBaseCharDistanceSqSort@@0@Z ENDP ; std::_Pop_heap_0<tagBaseCharDistanceSq *,tagBaseCharDistanceSq,BaseCharDistanceSqSort>
PUBLIC	??$_Dest_val@V?$allocator@VioHashString@@@std@@VioHashString@@@std@@YAXAAV?$allocator@VioHashString@@@0@PAVioHashString@@@Z ; std::_Dest_val<std::allocator<ioHashString>,ioHashString>
; Function compile flags: /Ogsp
; File c:\program files (x86)\microsoft visual studio 10.0\vc\include\xmemory
;	COMDAT ??$_Dest_val@V?$allocator@VioHashString@@@std@@VioHashString@@@std@@YAXAAV?$allocator@VioHashString@@@0@PAVioHashString@@@Z
_TEXT	SEGMENT
__Alval$ = 8						; size = 4
__Pdest$ = 12						; size = 4
??$_Dest_val@V?$allocator@VioHashString@@@std@@VioHashString@@@std@@YAXAAV?$allocator@VioHashString@@@0@PAVioHashString@@@Z PROC ; std::_Dest_val<std::allocator<ioHashString>,ioHashString>, COMDAT

; 286  : 	{	// destroy using allocator

  00000	55		 push	 ebp
  00001	8b ec		 mov	 ebp, esp

; 287  : 	_Alval.destroy(_Pdest);

  00003	8b 4d 0c	 mov	 ecx, DWORD PTR __Pdest$[ebp]

; 288  : 	}

  00006	5d		 pop	 ebp

; 287  : 	_Alval.destroy(_Pdest);

  00007	ff 25 00 00 00
	00		 jmp	 DWORD PTR __imp_??1ioHashString@@QAE@XZ
??$_Dest_val@V?$allocator@VioHashString@@@std@@VioHashString@@@std@@YAXAAV?$allocator@VioHashString@@@0@PAVioHashString@@@Z ENDP ; std::_Dest_val<std::allocator<ioHashString>,ioHashString>
_TEXT	ENDS
PUBLIC	?OnProcessState@ioTargetTeleportSkill@@UAEXPAVioBaseChar@@PAVioPlayStage@@@Z ; ioTargetTeleportSkill::OnProcessState
EXTRN	?IsDefenseKey@ioBaseChar@@QBE_NXZ:PROC		; ioBaseChar::IsDefenseKey
EXTRN	?IsAttackKey@ioBaseChar@@QBE_NXZ:PROC		; ioBaseChar::IsAttackKey
; Function compile flags: /Ogsp
; File d:\lost saga for developer\youtube\tutorial\source\src\lsclient\iotargetteleportskill.cpp
;	COMDAT ?OnProcessState@ioTargetTeleportSkill@@UAEXPAVioBaseChar@@PAVioPlayStage@@@Z
_TEXT	SEGMENT
_dwCurTime$ = -4					; size = 4
_value$537152 = 8					; size = 4
_pChar$ = 8						; size = 4
_value$537155 = 12					; size = 4
_pStage$ = 12						; size = 4
?OnProcessState@ioTargetTeleportSkill@@UAEXPAVioBaseChar@@PAVioPlayStage@@@Z PROC ; ioTargetTeleportSkill::OnProcessState, COMDAT
; _this$ = ecx

; 151  : {

  00000	55		 push	 ebp
  00001	8b ec		 mov	 ebp, esp
  00003	51		 push	 ecx
  00004	56		 push	 esi
  00005	57		 push	 edi
  00006	8b f1		 mov	 esi, ecx

; 152  : 	DWORD dwCurTime = FRAMEGETTIME();

  00008	ff 15 00 00 00
	00		 call	 DWORD PTR __imp_?GetSingleton@ioFrameTimer@@SAAAV1@XZ
  0000e	8b c8		 mov	 ecx, eax
  00010	ff 15 00 00 00
	00		 call	 DWORD PTR __imp_?GetLoopSec@ioFrameTimer@@QBEKXZ

; 153  : 
; 154  : 	int iSlot = GetOwnerItem()->GetType() - 1;

  00016	8b 8e a4 02 00
	00		 mov	 ecx, DWORD PTR [esi+676]
  0001c	8b f8		 mov	 edi, eax
  0001e	8b 01		 mov	 eax, DWORD PTR [ecx]
  00020	89 7d fc	 mov	 DWORD PTR _dwCurTime$[ebp], edi
  00023	ff 50 08	 call	 DWORD PTR [eax+8]

; 155  : 
; 156  : 	switch( m_SkillState )

  00026	8b 86 58 0f 00
	00		 mov	 eax, DWORD PTR [esi+3928]
  0002c	48		 dec	 eax
  0002d	74 22		 je	 SHORT $LN10@OnProcessS
  0002f	48		 dec	 eax
  00030	0f 85 ab 00 00
	00		 jne	 $LN9@OnProcessS

; 188  : 		}
; 189  : 		break;
; 190  : 	case SS_TELEPORT:
; 191  : 		if( m_dwMotionEndTime < dwCurTime )

  00036	39 be d8 02 00
	00		 cmp	 DWORD PTR [esi+728], edi
  0003c	0f 83 9f 00 00
	00		 jae	 $LN9@OnProcessS

; 192  : 			SetEndState( pChar );

  00042	ff 75 08	 push	 DWORD PTR _pChar$[ebp]
  00045	8b ce		 mov	 ecx, esi
  00047	e8 00 00 00 00	 call	 ?SetEndState@ioTargetTeleportSkill@@IAEXPAVioBaseChar@@@Z ; ioTargetTeleportSkill::SetEndState

; 193  : 		break;

  0004c	e9 90 00 00 00	 jmp	 $LN9@OnProcessS
$LN10@OnProcessS:
  00051	53		 push	 ebx

; 157  : 	{
; 158  : 	case SS_WAIT:
; 159  : 		if( pChar->IsNeedProcess() )

  00052	8b 5d 08	 mov	 ebx, DWORD PTR _pChar$[ebp]
  00055	8b 03		 mov	 eax, DWORD PTR [ebx]
  00057	8b cb		 mov	 ecx, ebx
  00059	ff 90 00 01 00
	00		 call	 DWORD PTR [eax+256]
  0005f	84 c0		 test	 al, al
  00061	74 7d		 je	 SHORT $LN21@OnProcessS

; 160  : 		{
; 161  : 			if( !CheckValidateTarget( pChar, pStage ) )

  00063	8b 7d 0c	 mov	 edi, DWORD PTR _pStage$[ebp]
  00066	57		 push	 edi
  00067	53		 push	 ebx
  00068	8b ce		 mov	 ecx, esi
  0006a	e8 00 00 00 00	 call	 ?CheckValidateTarget@ioTargetTeleportSkill@@IAE_NPAVioBaseChar@@PAVioPlayStage@@@Z ; ioTargetTeleportSkill::CheckValidateTarget
  0006f	84 c0		 test	 al, al
  00071	75 09		 jne	 SHORT $LN8@OnProcessS

; 162  : 			{
; 163  : 				SelectNextTarget( pChar, pStage );

  00073	57		 push	 edi
  00074	53		 push	 ebx
  00075	8b ce		 mov	 ecx, esi
  00077	e8 00 00 00 00	 call	 ?SelectNextTarget@ioTargetTeleportSkill@@IAEXPAVioBaseChar@@PAVioPlayStage@@@Z ; ioTargetTeleportSkill::SelectNextTarget
$LN8@OnProcessS:

; 164  : 			}
; 165  : 
; 166  : 			if( m_dwWaitStartTime+m_dwWaitDuration < dwCurTime )

  0007c	8d 45 08	 lea	 eax, DWORD PTR _value$537152[ebp]
  0007f	50		 push	 eax
  00080	8d 8e 8c 0f 00
	00		 lea	 ecx, DWORD PTR [esi+3980]
  00086	e8 00 00 00 00	 call	 ?DecryptValueToPool@?$CEncrypt@K@@QAEXPAK@Z ; CEncrypt<unsigned long>::DecryptValueToPool
  0008b	8d 45 0c	 lea	 eax, DWORD PTR _value$537155[ebp]
  0008e	50		 push	 eax
  0008f	8d 8e 5c 0f 00
	00		 lea	 ecx, DWORD PTR [esi+3932]
  00095	e8 00 00 00 00	 call	 ?DecryptValueToPool@?$CEncrypt@K@@QAEXPAK@Z ; CEncrypt<unsigned long>::DecryptValueToPool
  0009a	8b 4d 0c	 mov	 ecx, DWORD PTR _value$537155[ebp]
  0009d	03 4d 08	 add	 ecx, DWORD PTR _value$537152[ebp]
  000a0	3b 4d fc	 cmp	 ecx, DWORD PTR _dwCurTime$[ebp]
  000a3	73 0b		 jae	 SHORT $LN7@OnProcessS
$LN22@OnProcessS:

; 167  : 			{
; 168  : 				SetTeleportState( pChar, pStage );

  000a5	57		 push	 edi
  000a6	53		 push	 ebx
  000a7	8b ce		 mov	 ecx, esi
  000a9	e8 00 00 00 00	 call	 ?SetTeleportState@ioTargetTeleportSkill@@IAEXPAVioBaseChar@@PAVioPlayStage@@@Z ; ioTargetTeleportSkill::SetTeleportState

; 169  : 				CheckTargetPos( pChar, pStage );
; 170  : 				UpdateTargetMapEffect( pStage );
; 171  : 				return;

  000ae	eb 1f		 jmp	 SHORT $LN4@OnProcessS
$LN7@OnProcessS:

; 172  : 			}
; 173  : 
; 174  : 			if( pChar->IsAttackKey() )

  000b0	8b cb		 mov	 ecx, ebx
  000b2	e8 00 00 00 00	 call	 ?IsAttackKey@ioBaseChar@@QBE_NXZ ; ioBaseChar::IsAttackKey
  000b7	84 c0		 test	 al, al

; 175  : 			{
; 176  : 				SetTeleportState( pChar, pStage );
; 177  : 				CheckTargetPos( pChar, pStage );
; 178  : 				UpdateTargetMapEffect( pStage );
; 179  : 				return;

  000b9	75 ea		 jne	 SHORT $LN22@OnProcessS

; 180  : 			}
; 181  : 			else if( pChar->IsDefenseKey() )

  000bb	8b cb		 mov	 ecx, ebx
  000bd	e8 00 00 00 00	 call	 ?IsDefenseKey@ioBaseChar@@QBE_NXZ ; ioBaseChar::IsDefenseKey
  000c2	84 c0		 test	 al, al
  000c4	74 09		 je	 SHORT $LN4@OnProcessS

; 182  : 			{
; 183  : 				SelectNextTarget( pChar, pStage );

  000c6	57		 push	 edi
  000c7	53		 push	 ebx
  000c8	8b ce		 mov	 ecx, esi
  000ca	e8 00 00 00 00	 call	 ?SelectNextTarget@ioTargetTeleportSkill@@IAEXPAVioBaseChar@@PAVioPlayStage@@@Z ; ioTargetTeleportSkill::SelectNextTarget
$LN4@OnProcessS:

; 184  : 			}
; 185  : 
; 186  : 			CheckTargetPos( pChar, pStage );

  000cf	57		 push	 edi
  000d0	53		 push	 ebx
  000d1	8b ce		 mov	 ecx, esi
  000d3	e8 00 00 00 00	 call	 ?CheckTargetPos@ioTargetTeleportSkill@@IAEXPAVioBaseChar@@PAVioPlayStage@@@Z ; ioTargetTeleportSkill::CheckTargetPos

; 187  : 			UpdateTargetMapEffect( pStage );

  000d8	57		 push	 edi
  000d9	8b ce		 mov	 ecx, esi
  000db	e8 00 00 00 00	 call	 ?UpdateTargetMapEffect@ioTargetTeleportSkill@@IAEXPAVioPlayStage@@@Z ; ioTargetTeleportSkill::UpdateTargetMapEffect
$LN21@OnProcessS:
  000e0	5b		 pop	 ebx
$LN9@OnProcessS:
  000e1	5f		 pop	 edi
  000e2	5e		 pop	 esi

; 194  : 	case SS_END:
; 195  : 		break;
; 196  : 	}
; 197  : }

  000e3	c9		 leave
  000e4	c2 08 00	 ret	 8
?OnProcessState@ioTargetTeleportSkill@@UAEXPAVioBaseChar@@PAVioPlayStage@@@Z ENDP ; ioTargetTeleportSkill::OnProcessState
_TEXT	ENDS
PUBLIC	??$_Destroy_range@V?$allocator@UtagBaseCharDistanceSq@@@std@@@std@@YAXPAUtagBaseCharDistanceSq@@0AAV?$allocator@UtagBaseCharDistanceSq@@@0@U_Nonscalar_ptr_iterator_tag@0@@Z ; std::_Destroy_range<std::allocator<tagBaseCharDistanceSq> >
; Function compile flags: /Ogsp
; File c:\program files (x86)\microsoft visual studio 10.0\vc\include\xmemory
;	COMDAT ??$_Destroy_range@V?$allocator@UtagBaseCharDistanceSq@@@std@@@std@@YAXPAUtagBaseCharDistanceSq@@0AAV?$allocator@UtagBaseCharDistanceSq@@@0@U_Nonscalar_ptr_iterator_tag@0@@Z
_TEXT	SEGMENT
__First$ = 8						; size = 4
__Last$ = 12						; size = 4
__Al$ = 16						; size = 4
___formal$ = 20						; size = 1
??$_Destroy_range@V?$allocator@UtagBaseCharDistanceSq@@@std@@@std@@YAXPAUtagBaseCharDistanceSq@@0AAV?$allocator@UtagBaseCharDistanceSq@@@0@U_Nonscalar_ptr_iterator_tag@0@@Z PROC ; std::_Destroy_range<std::allocator<tagBaseCharDistanceSq> >, COMDAT

; 95   : 	{	// destroy [_First, _Last), arbitrary type

  00000	55		 push	 ebp
  00001	8b ec		 mov	 ebp, esp
  00003	56		 push	 esi

; 96   : 	for (; _First != _Last; ++_First)

  00004	8b 75 08	 mov	 esi, DWORD PTR __First$[ebp]
  00007	eb 0b		 jmp	 SHORT $LN20@Destroy_ra
$LL3@Destroy_ra:

; 97   : 		_Dest_val(_Al, _First);

  00009	8b ce		 mov	 ecx, esi
  0000b	ff 15 00 00 00
	00		 call	 DWORD PTR __imp_??1ioHashString@@QAE@XZ
  00011	83 c6 20	 add	 esi, 32			; 00000020H
$LN20@Destroy_ra:

; 96   : 	for (; _First != _Last; ++_First)

  00014	3b 75 0c	 cmp	 esi, DWORD PTR __Last$[ebp]
  00017	75 f0		 jne	 SHORT $LL3@Destroy_ra
  00019	5e		 pop	 esi

; 98   : 	}

  0001a	5d		 pop	 ebp
  0001b	c3		 ret	 0
??$_Destroy_range@V?$allocator@UtagBaseCharDistanceSq@@@std@@@std@@YAXPAUtagBaseCharDistanceSq@@0AAV?$allocator@UtagBaseCharDistanceSq@@@0@U_Nonscalar_ptr_iterator_tag@0@@Z ENDP ; std::_Destroy_range<std::allocator<tagBaseCharDistanceSq> >
_TEXT	ENDS
PUBLIC	??$_Unguarded_partition@PAUtagBaseCharDistanceSq@@VBaseCharDistanceSqSort@@@std@@YA?AU?$pair@PAUtagBaseCharDistanceSq@@PAU1@@0@PAUtagBaseCharDistanceSq@@0VBaseCharDistanceSqSort@@@Z ; std::_Unguarded_partition<tagBaseCharDistanceSq *,BaseCharDistanceSqSort>
; Function compile flags: /Ogsp
; File c:\program files (x86)\microsoft visual studio 10.0\vc\include\algorithm
;	COMDAT ??$_Unguarded_partition@PAUtagBaseCharDistanceSq@@VBaseCharDistanceSqSort@@@std@@YA?AU?$pair@PAUtagBaseCharDistanceSq@@PAU1@@0@PAUtagBaseCharDistanceSq@@0VBaseCharDistanceSqSort@@@Z
_TEXT	SEGMENT
__Glast$ = -4						; size = 4
___$ReturnUdt$ = 8					; size = 4
__First$ = 12						; size = 4
__Last$ = 16						; size = 4
__Pred$ = 20						; size = 1
??$_Unguarded_partition@PAUtagBaseCharDistanceSq@@VBaseCharDistanceSqSort@@@std@@YA?AU?$pair@PAUtagBaseCharDistanceSq@@PAU1@@0@PAUtagBaseCharDistanceSq@@0VBaseCharDistanceSqSort@@@Z PROC ; std::_Unguarded_partition<tagBaseCharDistanceSq *,BaseCharDistanceSqSort>, COMDAT

; 3712 : 	{	// partition [_First, _Last), using _Pred

  00000	55		 push	 ebp
  00001	8b ec		 mov	 ebp, esp
  00003	51		 push	 ecx

; 3713 : 	_RanIt _Mid = _First + (_Last - _First) / 2;

  00004	8b 4d 10	 mov	 ecx, DWORD PTR __Last$[ebp]
  00007	53		 push	 ebx
  00008	8b 5d 0c	 mov	 ebx, DWORD PTR __First$[ebp]
  0000b	8b c1		 mov	 eax, ecx
  0000d	2b c3		 sub	 eax, ebx
  0000f	56		 push	 esi
  00010	c1 f8 05	 sar	 eax, 5
  00013	99		 cdq
  00014	2b c2		 sub	 eax, edx
  00016	57		 push	 edi

; 3714 : 	_Median(_First, _Mid, _Last - 1, _Pred);

  00017	ff 75 14	 push	 DWORD PTR __Pred$[ebp]
  0001a	8b f0		 mov	 esi, eax
  0001c	d1 fe		 sar	 esi, 1
  0001e	83 c1 e0	 add	 ecx, -32		; ffffffe0H
  00021	c1 e6 05	 shl	 esi, 5
  00024	51		 push	 ecx
  00025	03 f3		 add	 esi, ebx
  00027	56		 push	 esi
  00028	53		 push	 ebx
  00029	e8 00 00 00 00	 call	 ??$_Median@PAUtagBaseCharDistanceSq@@VBaseCharDistanceSqSort@@@std@@YAXPAUtagBaseCharDistanceSq@@00VBaseCharDistanceSqSort@@@Z ; std::_Median<tagBaseCharDistanceSq *,BaseCharDistanceSqSort>
  0002e	83 c4 10	 add	 esp, 16			; 00000010H

; 3715 : 	_RanIt _Pfirst = _Mid;
; 3716 : 	_RanIt _Plast = _Pfirst + 1;

  00031	8d 7e 20	 lea	 edi, DWORD PTR [esi+32]
  00034	eb 25		 jmp	 SHORT $LN100@Unguarded_
$LL27@Unguarded_:

; 3717 : 
; 3718 : 	while (_First < _Pfirst
; 3719 : 		&& !_DEBUG_LT_PRED(_Pred, *(_Pfirst - 1), *_Pfirst)
; 3720 : 		&& !_Pred(*_Pfirst, *(_Pfirst - 1)))

  00036	f3 0f 10 46 f0	 movss	 xmm0, DWORD PTR [esi-16]
  0003b	f3 0f 10 4e 10	 movss	 xmm1, DWORD PTR [esi+16]
  00040	0f 5a d0	 cvtps2pd xmm2, xmm0
  00043	0f 5a d9	 cvtps2pd xmm3, xmm1
  00046	66 0f 2f d3	 comisd	 xmm2, xmm3
  0004a	77 13		 ja	 SHORT $LN94@Unguarded_
  0004c	0f 5a c9	 cvtps2pd xmm1, xmm1
  0004f	0f 5a c0	 cvtps2pd xmm0, xmm0
  00052	66 0f 2f c8	 comisd	 xmm1, xmm0
  00056	77 07		 ja	 SHORT $LN94@Unguarded_

; 3721 : 		--_Pfirst;

  00058	83 ee 20	 sub	 esi, 32			; 00000020H
$LN100@Unguarded_:

; 3717 : 
; 3718 : 	while (_First < _Pfirst
; 3719 : 		&& !_DEBUG_LT_PRED(_Pred, *(_Pfirst - 1), *_Pfirst)
; 3720 : 		&& !_Pred(*_Pfirst, *(_Pfirst - 1)))

  0005b	3b de		 cmp	 ebx, esi
  0005d	72 d7		 jb	 SHORT $LL27@Unguarded_
$LN94@Unguarded_:

; 3722 : 	while (_Plast < _Last
; 3723 : 		&& !_DEBUG_LT_PRED(_Pred, *_Plast, *_Pfirst)
; 3724 : 		&& !_Pred(*_Pfirst, *_Plast))

  0005f	3b 7d 10	 cmp	 edi, DWORD PTR __Last$[ebp]
  00062	73 32		 jae	 SHORT $LN96@Unguarded_
  00064	f3 0f 10 4e 10	 movss	 xmm1, DWORD PTR [esi+16]
$LL25@Unguarded_:
  00069	f3 0f 10 47 10	 movss	 xmm0, DWORD PTR [edi+16]
  0006e	0f 57 db	 xorps	 xmm3, xmm3
  00071	0f 5a d0	 cvtps2pd xmm2, xmm0
  00074	f3 0f 5a d9	 cvtss2sd xmm3, xmm1
  00078	66 0f 2f d3	 comisd	 xmm2, xmm3
  0007c	77 18		 ja	 SHORT $LN96@Unguarded_
  0007e	0f 57 d2	 xorps	 xmm2, xmm2
  00081	f3 0f 5a d1	 cvtss2sd xmm2, xmm1
  00085	0f 5a c0	 cvtps2pd xmm0, xmm0
  00088	66 0f 2f d0	 comisd	 xmm2, xmm0
  0008c	77 08		 ja	 SHORT $LN96@Unguarded_

; 3725 : 		++_Plast;

  0008e	83 c7 20	 add	 edi, 32			; 00000020H
  00091	3b 7d 10	 cmp	 edi, DWORD PTR __Last$[ebp]
  00094	72 d3		 jb	 SHORT $LL25@Unguarded_
$LN96@Unguarded_:

; 3726 : 
; 3727 : 	_RanIt _Gfirst = _Plast;

  00096	8b df		 mov	 ebx, edi

; 3728 : 	_RanIt _Glast = _Pfirst;

  00098	89 75 fc	 mov	 DWORD PTR __Glast$[ebp], esi

; 3729 : 
; 3730 : 	for (; ; )
; 3731 : 		{	// partition
; 3732 : 		for (; _Gfirst < _Last; ++_Gfirst)

  0009b	eb 33		 jmp	 SHORT $LN102@Unguarded_
$LL21@Unguarded_:

; 3733 : 			if (_DEBUG_LT_PRED(_Pred, *_Pfirst, *_Gfirst))

  0009d	f3 0f 10 46 10	 movss	 xmm0, DWORD PTR [esi+16]
  000a2	f3 0f 10 4b 10	 movss	 xmm1, DWORD PTR [ebx+16]
  000a7	0f 5a d0	 cvtps2pd xmm2, xmm0
  000aa	0f 5a d9	 cvtps2pd xmm3, xmm1
  000ad	66 0f 2f d3	 comisd	 xmm2, xmm3
  000b1	77 1a		 ja	 SHORT $LN20@Unguarded_

; 3734 : 				;
; 3735 : 			else if (_Pred(*_Gfirst, *_Pfirst))

  000b3	0f 5a c9	 cvtps2pd xmm1, xmm1
  000b6	0f 5a c0	 cvtps2pd xmm0, xmm0
  000b9	66 0f 2f c8	 comisd	 xmm1, xmm0
  000bd	77 52		 ja	 SHORT $LN97@Unguarded_

; 3736 : 				break;
; 3737 : 			else
; 3738 : 				_STD iter_swap(_Plast++, _Gfirst);

  000bf	8b c7		 mov	 eax, edi
  000c1	53		 push	 ebx
  000c2	83 c7 20	 add	 edi, 32			; 00000020H
  000c5	50		 push	 eax
$LN104@Unguarded_:
  000c6	e8 00 00 00 00	 call	 ??$swap@UtagBaseCharDistanceSq@@@std@@YAXAAUtagBaseCharDistanceSq@@0@Z ; std::swap<tagBaseCharDistanceSq>
  000cb	59		 pop	 ecx
  000cc	59		 pop	 ecx
$LN20@Unguarded_:

; 3729 : 
; 3730 : 	for (; ; )
; 3731 : 		{	// partition
; 3732 : 		for (; _Gfirst < _Last; ++_Gfirst)

  000cd	83 c3 20	 add	 ebx, 32			; 00000020H
$LN102@Unguarded_:
  000d0	3b 5d 10	 cmp	 ebx, DWORD PTR __Last$[ebp]
  000d3	72 c8		 jb	 SHORT $LL21@Unguarded_

; 3739 : 		for (; _First < _Glast; --_Glast)

  000d5	eb 3a		 jmp	 SHORT $LN97@Unguarded_
$LL99@Unguarded_:

; 3740 : 			if (_DEBUG_LT_PRED(_Pred, *(_Glast - 1), *_Pfirst))

  000d7	8b 4d fc	 mov	 ecx, DWORD PTR __Glast$[ebp]
  000da	f3 0f 10 41 f0	 movss	 xmm0, DWORD PTR [ecx-16]
  000df	f3 0f 10 4e 10	 movss	 xmm1, DWORD PTR [esi+16]
  000e4	0f 5a d0	 cvtps2pd xmm2, xmm0
  000e7	0f 5a d9	 cvtps2pd xmm3, xmm1
  000ea	66 0f 2f d3	 comisd	 xmm2, xmm3
  000ee	77 1d		 ja	 SHORT $LN13@Unguarded_

; 3741 : 				;
; 3742 : 			else if (_Pred(*_Pfirst, *(_Glast - 1)))

  000f0	0f 5a c9	 cvtps2pd xmm1, xmm1
  000f3	0f 5a c0	 cvtps2pd xmm0, xmm0
  000f6	66 0f 2f c8	 comisd	 xmm1, xmm0
  000fa	77 1d		 ja	 SHORT $LN98@Unguarded_

; 3739 : 		for (; _First < _Glast; --_Glast)

  000fc	8b c1		 mov	 eax, ecx
  000fe	83 c0 e0	 add	 eax, -32		; ffffffe0H

; 3743 : 				break;
; 3744 : 			else
; 3745 : 				_STD iter_swap(--_Pfirst, _Glast - 1);

  00101	83 ee 20	 sub	 esi, 32			; 00000020H
  00104	50		 push	 eax
  00105	56		 push	 esi
  00106	e8 00 00 00 00	 call	 ??$swap@UtagBaseCharDistanceSq@@@std@@YAXAAUtagBaseCharDistanceSq@@0@Z ; std::swap<tagBaseCharDistanceSq>
  0010b	59		 pop	 ecx
  0010c	59		 pop	 ecx
$LN13@Unguarded_:

; 3739 : 		for (; _First < _Glast; --_Glast)

  0010d	83 6d fc 20	 sub	 DWORD PTR __Glast$[ebp], 32 ; 00000020H
$LN97@Unguarded_:
  00111	8b 45 0c	 mov	 eax, DWORD PTR __First$[ebp]
  00114	3b 45 fc	 cmp	 eax, DWORD PTR __Glast$[ebp]
  00117	72 be		 jb	 SHORT $LL99@Unguarded_
$LN98@Unguarded_:

; 3746 : 		if (_Glast == _First && _Gfirst == _Last)

  00119	39 45 fc	 cmp	 DWORD PTR __Glast$[ebp], eax
  0011c	75 1f		 jne	 SHORT $LN6@Unguarded_
  0011e	3b 5d 10	 cmp	 ebx, DWORD PTR __Last$[ebp]
  00121	74 50		 je	 SHORT $LN88@Unguarded_

; 3748 : 
; 3749 : 		if (_Glast == _First)
; 3750 : 			{	// no room at bottom, rotate pivot upward
; 3751 : 			if (_Plast != _Gfirst)

  00123	3b fb		 cmp	 edi, ebx
  00125	74 09		 je	 SHORT $LN70@Unguarded_

; 3752 : 				_STD iter_swap(_Pfirst, _Plast);

  00127	57		 push	 edi
  00128	56		 push	 esi
  00129	e8 00 00 00 00	 call	 ??$swap@UtagBaseCharDistanceSq@@@std@@YAXAAUtagBaseCharDistanceSq@@0@Z ; std::swap<tagBaseCharDistanceSq>
  0012e	59		 pop	 ecx
  0012f	59		 pop	 ecx
$LN70@Unguarded_:

; 3753 : 			++_Plast;
; 3754 : 			_STD iter_swap(_Pfirst++, _Gfirst++);

  00130	53		 push	 ebx
  00131	56		 push	 esi
  00132	83 c7 20	 add	 edi, 32			; 00000020H
  00135	83 c6 20	 add	 esi, 32			; 00000020H
  00138	83 c3 20	 add	 ebx, 32			; 00000020H
  0013b	eb 21		 jmp	 SHORT $LN101@Unguarded_
$LN6@Unguarded_:

; 3755 : 			}
; 3756 : 		else if (_Gfirst == _Last)
; 3757 : 			{	// no room at top, rotate pivot downward
; 3758 : 			if (--_Glast != --_Pfirst)

  0013d	83 6d fc 20	 sub	 DWORD PTR __Glast$[ebp], 32 ; 00000020H
  00141	3b 5d 10	 cmp	 ebx, DWORD PTR __Last$[ebp]
  00144	75 24		 jne	 SHORT $LN3@Unguarded_
  00146	83 ee 20	 sub	 esi, 32			; 00000020H
  00149	39 75 fc	 cmp	 DWORD PTR __Glast$[ebp], esi
  0014c	74 0b		 je	 SHORT $LN74@Unguarded_

; 3759 : 				_STD iter_swap(_Glast, _Pfirst);

  0014e	56		 push	 esi
  0014f	ff 75 fc	 push	 DWORD PTR __Glast$[ebp]
  00152	e8 00 00 00 00	 call	 ??$swap@UtagBaseCharDistanceSq@@@std@@YAXAAUtagBaseCharDistanceSq@@0@Z ; std::swap<tagBaseCharDistanceSq>
  00157	59		 pop	 ecx
  00158	59		 pop	 ecx
$LN74@Unguarded_:

; 3760 : 			_STD iter_swap(_Pfirst, --_Plast);

  00159	83 ef 20	 sub	 edi, 32			; 00000020H
  0015c	57		 push	 edi
  0015d	56		 push	 esi
$LN101@Unguarded_:
  0015e	e8 00 00 00 00	 call	 ??$swap@UtagBaseCharDistanceSq@@@std@@YAXAAUtagBaseCharDistanceSq@@0@Z ; std::swap<tagBaseCharDistanceSq>
  00163	59		 pop	 ecx
  00164	59		 pop	 ecx

; 3761 : 			}
; 3762 : 		else

  00165	e9 66 ff ff ff	 jmp	 $LN102@Unguarded_
$LN3@Unguarded_:

; 3763 : 			_STD iter_swap(_Gfirst++, --_Glast);

  0016a	ff 75 fc	 push	 DWORD PTR __Glast$[ebp]
  0016d	53		 push	 ebx

; 3764 : 		}

  0016e	e9 53 ff ff ff	 jmp	 $LN104@Unguarded_
$LN88@Unguarded_:

; 3747 : 			return (_STD pair<_RanIt, _RanIt>(_Pfirst, _Plast));

  00173	8b 45 08	 mov	 eax, DWORD PTR ___$ReturnUdt$[ebp]
  00176	89 78 04	 mov	 DWORD PTR [eax+4], edi
  00179	5f		 pop	 edi
  0017a	89 30		 mov	 DWORD PTR [eax], esi
  0017c	5e		 pop	 esi
  0017d	5b		 pop	 ebx

; 3765 : 	}

  0017e	c9		 leave
  0017f	c3		 ret	 0
??$_Unguarded_partition@PAUtagBaseCharDistanceSq@@VBaseCharDistanceSqSort@@@std@@YA?AU?$pair@PAUtagBaseCharDistanceSq@@PAU1@@0@PAUtagBaseCharDistanceSq@@0VBaseCharDistanceSqSort@@@Z ENDP ; std::_Unguarded_partition<tagBaseCharDistanceSq *,BaseCharDistanceSqSort>
_TEXT	ENDS
PUBLIC	??$make_heap@PAUtagBaseCharDistanceSq@@VBaseCharDistanceSqSort@@@std@@YAXPAUtagBaseCharDistanceSq@@0VBaseCharDistanceSqSort@@@Z ; std::make_heap<tagBaseCharDistanceSq *,BaseCharDistanceSqSort>
; Function compile flags: /Ogsp
;	COMDAT ??$make_heap@PAUtagBaseCharDistanceSq@@VBaseCharDistanceSqSort@@@std@@YAXPAUtagBaseCharDistanceSq@@0VBaseCharDistanceSqSort@@@Z
_TEXT	SEGMENT
__First$ = 8						; size = 4
__Last$ = 12						; size = 4
__Pred$ = 16						; size = 1
??$make_heap@PAUtagBaseCharDistanceSq@@VBaseCharDistanceSqSort@@@std@@YAXPAUtagBaseCharDistanceSq@@0VBaseCharDistanceSqSort@@@Z PROC ; std::make_heap<tagBaseCharDistanceSq *,BaseCharDistanceSqSort>, COMDAT

; 2672 : 	{	// make [_First, _Last) into a heap, using _Pred

  00000	55		 push	 ebp
  00001	8b ec		 mov	 ebp, esp

; 2673 : 	_DEBUG_RANGE(_First, _Last);
; 2674 : 	_DEBUG_POINTER(_Pred);
; 2675 : 	if (1 < _Last - _First)

  00003	8b 45 0c	 mov	 eax, DWORD PTR __Last$[ebp]
  00006	2b 45 08	 sub	 eax, DWORD PTR __First$[ebp]
  00009	83 e0 e0	 and	 eax, -32		; ffffffe0H
  0000c	83 f8 20	 cmp	 eax, 32			; 00000020H
  0000f	7e 15		 jle	 SHORT $LN1@make_heap

; 2676 : 		_Make_heap(_Unchecked(_First), _Unchecked(_Last), _Pred,
; 2677 : 			_Dist_type(_First), _Val_type(_First));

  00011	6a 00		 push	 0
  00013	6a 00		 push	 0
  00015	ff 75 10	 push	 DWORD PTR __Pred$[ebp]
  00018	ff 75 0c	 push	 DWORD PTR __Last$[ebp]
  0001b	ff 75 08	 push	 DWORD PTR __First$[ebp]
  0001e	e8 00 00 00 00	 call	 ??$_Make_heap@PAUtagBaseCharDistanceSq@@HU1@VBaseCharDistanceSqSort@@@std@@YAXPAUtagBaseCharDistanceSq@@0VBaseCharDistanceSqSort@@PAH0@Z ; std::_Make_heap<tagBaseCharDistanceSq *,int,tagBaseCharDistanceSq,BaseCharDistanceSqSort>
  00023	83 c4 14	 add	 esp, 20			; 00000014H
$LN1@make_heap:

; 2678 : 	}

  00026	5d		 pop	 ebp
  00027	c3		 ret	 0
??$make_heap@PAUtagBaseCharDistanceSq@@VBaseCharDistanceSqSort@@@std@@YAXPAUtagBaseCharDistanceSq@@0VBaseCharDistanceSqSort@@@Z ENDP ; std::make_heap<tagBaseCharDistanceSq *,BaseCharDistanceSqSort>
_TEXT	ENDS
PUBLIC	??$_Insertion_sort@PAUtagBaseCharDistanceSq@@VBaseCharDistanceSqSort@@@std@@YAXPAUtagBaseCharDistanceSq@@0VBaseCharDistanceSqSort@@@Z ; std::_Insertion_sort<tagBaseCharDistanceSq *,BaseCharDistanceSqSort>
; Function compile flags: /Ogsp
;	COMDAT ??$_Insertion_sort@PAUtagBaseCharDistanceSq@@VBaseCharDistanceSqSort@@@std@@YAXPAUtagBaseCharDistanceSq@@0VBaseCharDistanceSqSort@@@Z
_TEXT	SEGMENT
__First$ = 8						; size = 4
__Last$ = 12						; size = 4
__Pred$ = 16						; size = 1
??$_Insertion_sort@PAUtagBaseCharDistanceSq@@VBaseCharDistanceSqSort@@@std@@YAXPAUtagBaseCharDistanceSq@@0VBaseCharDistanceSqSort@@@Z PROC ; std::_Insertion_sort<tagBaseCharDistanceSq *,BaseCharDistanceSqSort>, COMDAT

; 3676 : 	{	// insertion sort [_First, _Last), using _Pred

  00000	55		 push	 ebp
  00001	8b ec		 mov	 ebp, esp

; 3677 : 	_Insertion_sort1(_First, _Last, _Pred, _Val_type(_First));

  00003	6a 00		 push	 0
  00005	ff 75 10	 push	 DWORD PTR __Pred$[ebp]
  00008	ff 75 0c	 push	 DWORD PTR __Last$[ebp]
  0000b	ff 75 08	 push	 DWORD PTR __First$[ebp]
  0000e	e8 00 00 00 00	 call	 ??$_Insertion_sort1@PAUtagBaseCharDistanceSq@@VBaseCharDistanceSqSort@@U1@@std@@YAXPAUtagBaseCharDistanceSq@@0VBaseCharDistanceSqSort@@0@Z ; std::_Insertion_sort1<tagBaseCharDistanceSq *,BaseCharDistanceSqSort,tagBaseCharDistanceSq>
  00013	83 c4 10	 add	 esp, 16			; 00000010H

; 3678 : 	}

  00016	5d		 pop	 ebp
  00017	c3		 ret	 0
??$_Insertion_sort@PAUtagBaseCharDistanceSq@@VBaseCharDistanceSqSort@@@std@@YAXPAUtagBaseCharDistanceSq@@0VBaseCharDistanceSqSort@@@Z ENDP ; std::_Insertion_sort<tagBaseCharDistanceSq *,BaseCharDistanceSqSort>
_TEXT	ENDS
PUBLIC	??$_Uninit_move@PAVioHashString@@PAV1@V?$allocator@VioHashString@@@std@@V1@@std@@YAPAVioHashString@@PAV1@00AAV?$allocator@VioHashString@@@0@0U_Nonscalar_ptr_iterator_tag@0@@Z ; std::_Uninit_move<ioHashString *,ioHashString *,std::allocator<ioHashString>,ioHashString>
EXTRN	__EH_prolog3_catch:PROC
;	COMDAT xdata$x
; File c:\program files (x86)\microsoft visual studio 10.0\vc\include\vector
xdata$x	SEGMENT
__catchsym$??$_Uninit_move@PAVioHashString@@PAV1@V?$allocator@VioHashString@@@std@@V1@@std@@YAPAVioHashString@@PAV1@00AAV?$allocator@VioHashString@@@0@0U_Nonscalar_ptr_iterator_tag@0@@Z$2 DD 040H
	DD	00H
	DD	00H
	DD	FLAT:__catch$??$_Uninit_move@PAVioHashString@@PAV1@V?$allocator@VioHashString@@@std@@V1@@std@@YAPAVioHashString@@PAV1@00AAV?$allocator@VioHashString@@@0@0U_Nonscalar_ptr_iterator_tag@0@@Z$0
__unwindtable$??$_Uninit_move@PAVioHashString@@PAV1@V?$allocator@VioHashString@@@std@@V1@@std@@YAPAVioHashString@@PAV1@00AAV?$allocator@VioHashString@@@0@0U_Nonscalar_ptr_iterator_tag@0@@Z DD 0ffffffffH
	DD	00H
	DD	0ffffffffH
	DD	00H
__tryblocktable$??$_Uninit_move@PAVioHashString@@PAV1@V?$allocator@VioHashString@@@std@@V1@@std@@YAPAVioHashString@@PAV1@00AAV?$allocator@VioHashString@@@0@0U_Nonscalar_ptr_iterator_tag@0@@Z DD 00H
	DD	00H
	DD	01H
	DD	01H
	DD	FLAT:__catchsym$??$_Uninit_move@PAVioHashString@@PAV1@V?$allocator@VioHashString@@@std@@V1@@std@@YAPAVioHashString@@PAV1@00AAV?$allocator@VioHashString@@@0@0U_Nonscalar_ptr_iterator_tag@0@@Z$2
__ehfuncinfo$??$_Uninit_move@PAVioHashString@@PAV1@V?$allocator@VioHashString@@@std@@V1@@std@@YAPAVioHashString@@PAV1@00AAV?$allocator@VioHashString@@@0@0U_Nonscalar_ptr_iterator_tag@0@@Z DD 019930522H
	DD	02H
	DD	FLAT:__unwindtable$??$_Uninit_move@PAVioHashString@@PAV1@V?$allocator@VioHashString@@@std@@V1@@std@@YAPAVioHashString@@PAV1@00AAV?$allocator@VioHashString@@@0@0U_Nonscalar_ptr_iterator_tag@0@@Z
	DD	01H
	DD	FLAT:__tryblocktable$??$_Uninit_move@PAVioHashString@@PAV1@V?$allocator@VioHashString@@@std@@V1@@std@@YAPAVioHashString@@PAV1@00AAV?$allocator@VioHashString@@@0@0U_Nonscalar_ptr_iterator_tag@0@@Z
	DD	2 DUP(00H)
	DD	00H
	DD	01H
; Function compile flags: /Ogsp
; File c:\program files (x86)\microsoft visual studio 10.0\vc\include\memory
xdata$x	ENDS
;	COMDAT ??$_Uninit_move@PAVioHashString@@PAV1@V?$allocator@VioHashString@@@std@@V1@@std@@YAPAVioHashString@@PAV1@00AAV?$allocator@VioHashString@@@0@0U_Nonscalar_ptr_iterator_tag@0@@Z
_TEXT	SEGMENT
__Next$ = -20						; size = 4
__$EHRec$ = -16						; size = 16
__First$ = 8						; size = 4
__Last$ = 12						; size = 4
__Dest$ = 16						; size = 4
__Al$ = 20						; size = 4
___formal$ = 24						; size = 4
___formal$ = 28						; size = 1
??$_Uninit_move@PAVioHashString@@PAV1@V?$allocator@VioHashString@@@std@@V1@@std@@YAPAVioHashString@@PAV1@00AAV?$allocator@VioHashString@@@0@0U_Nonscalar_ptr_iterator_tag@0@@Z PROC ; std::_Uninit_move<ioHashString *,ioHashString *,std::allocator<ioHashString>,ioHashString>, COMDAT

; 424  : 	{	// move [_First, _Last) to raw _Dest, using _Al, arbitrary type

  00000	6a 08		 push	 8
  00002	b8 00 00 00 00	 mov	 eax, __ehhandler$??$_Uninit_move@PAVioHashString@@PAV1@V?$allocator@VioHashString@@@std@@V1@@std@@YAPAVioHashString@@PAV1@00AAV?$allocator@VioHashString@@@0@0U_Nonscalar_ptr_iterator_tag@0@@Z
  00007	e8 00 00 00 00	 call	 __EH_prolog3_catch

; 425  : 	_DEBUG_RANGE(_First, _Last);
; 426  : 	_DEBUG_POINTER(_Dest);
; 427  : 	_FwdIt _Next = _Dest;

  0000c	8b 45 10	 mov	 eax, DWORD PTR __Dest$[ebp]

; 428  : 
; 429  : 	_TRY_BEGIN

  0000f	83 65 fc 00	 and	 DWORD PTR __$EHRec$[ebp+12], 0
  00013	8b 75 08	 mov	 esi, DWORD PTR __First$[ebp]
  00016	89 45 ec	 mov	 DWORD PTR __Next$[ebp], eax
$LL6@Uninit_mov:

; 430  : 	for (; _First != _Last; ++_Dest, ++_First)

  00019	3b 75 0c	 cmp	 esi, DWORD PTR __Last$[ebp]
  0001c	74 33		 je	 SHORT $LN4@Uninit_mov

; 431  : 		_Cons_val(_Al, _Dest, (_Valty &&)*_First);

  0001e	8b 4d 14	 mov	 ecx, DWORD PTR __Al$[ebp]
  00021	56		 push	 esi
  00022	ff 75 10	 push	 DWORD PTR __Dest$[ebp]
  00025	e8 00 00 00 00	 call	 ?construct@?$allocator@VioHashString@@@std@@QAEXPAVioHashString@@$$QAV3@@Z ; std::allocator<ioHashString>::construct
  0002a	83 45 10 10	 add	 DWORD PTR __Dest$[ebp], 16 ; 00000010H
  0002e	83 c6 10	 add	 esi, 16			; 00000010H
  00031	eb e6		 jmp	 SHORT $LL6@Uninit_mov
__catch$??$_Uninit_move@PAVioHashString@@PAV1@V?$allocator@VioHashString@@@std@@V1@@std@@YAPAVioHashString@@PAV1@00AAV?$allocator@VioHashString@@@0@0U_Nonscalar_ptr_iterator_tag@0@@Z$0:

; 432  : 	_CATCH_ALL
; 433  : 	for (; _Next != _Dest; ++_Next)

  00033	8b 75 ec	 mov	 esi, DWORD PTR __Next$[ebp]
  00036	eb 0b		 jmp	 SHORT $LN33@Uninit_mov
$LL3@Uninit_mov:

; 434  : 		_Dest_val(_Al, _Next);

  00038	8b ce		 mov	 ecx, esi
  0003a	ff 15 00 00 00
	00		 call	 DWORD PTR __imp_??1ioHashString@@QAE@XZ
  00040	83 c6 10	 add	 esi, 16			; 00000010H
$LN33@Uninit_mov:

; 432  : 	_CATCH_ALL
; 433  : 	for (; _Next != _Dest; ++_Next)

  00043	3b 75 10	 cmp	 esi, DWORD PTR __Dest$[ebp]
  00046	75 f0		 jne	 SHORT $LL3@Uninit_mov

; 435  : 	_RERAISE;

  00048	6a 00		 push	 0
  0004a	6a 00		 push	 0
  0004c	e8 00 00 00 00	 call	 __CxxThrowException@8
$LN34@Uninit_mov:
$LN4@Uninit_mov:

; 436  : 	_CATCH_END
; 437  : 	return (_Dest);

  00051	8b 45 10	 mov	 eax, DWORD PTR __Dest$[ebp]

; 438  : 	}

  00054	e8 00 00 00 00	 call	 __EH_epilog3
  00059	c3		 ret	 0
$LN32@Uninit_mov:
_TEXT	ENDS
;	COMDAT text$x
text$x	SEGMENT
__ehhandler$??$_Uninit_move@PAVioHashString@@PAV1@V?$allocator@VioHashString@@@std@@V1@@std@@YAPAVioHashString@@PAV1@00AAV?$allocator@VioHashString@@@0@0U_Nonscalar_ptr_iterator_tag@0@@Z:
  00000	8b 54 24 08	 mov	 edx, DWORD PTR [esp+8]
  00004	8d 42 0c	 lea	 eax, DWORD PTR [edx+12]
  00007	8b 4a e8	 mov	 ecx, DWORD PTR [edx-24]
  0000a	33 c8		 xor	 ecx, eax
  0000c	e8 00 00 00 00	 call	 @__security_check_cookie@4
  00011	b8 00 00 00 00	 mov	 eax, OFFSET __ehfuncinfo$??$_Uninit_move@PAVioHashString@@PAV1@V?$allocator@VioHashString@@@std@@V1@@std@@YAPAVioHashString@@PAV1@00AAV?$allocator@VioHashString@@@0@0U_Nonscalar_ptr_iterator_tag@0@@Z
  00016	e9 00 00 00 00	 jmp	 ___CxxFrameHandler3
text$x	ENDS
??$_Uninit_move@PAVioHashString@@PAV1@V?$allocator@VioHashString@@@std@@V1@@std@@YAPAVioHashString@@PAV1@00AAV?$allocator@VioHashString@@@0@0U_Nonscalar_ptr_iterator_tag@0@@Z ENDP ; std::_Uninit_move<ioHashString *,ioHashString *,std::allocator<ioHashString>,ioHashString>
PUBLIC	??$_Uninit_move@PAUtagBaseCharDistanceSq@@PAU1@V?$allocator@UtagBaseCharDistanceSq@@@std@@U1@@std@@YAPAUtagBaseCharDistanceSq@@PAU1@00AAV?$allocator@UtagBaseCharDistanceSq@@@0@0U_Nonscalar_ptr_iterator_tag@0@@Z ; std::_Uninit_move<tagBaseCharDistanceSq *,tagBaseCharDistanceSq *,std::allocator<tagBaseCharDistanceSq>,tagBaseCharDistanceSq>
;	COMDAT xdata$x
; File d:\lost saga for developer\youtube\tutorial\source\src\lsclient\iotargetteleportskill.cpp
xdata$x	SEGMENT
__catchsym$??$_Uninit_move@PAUtagBaseCharDistanceSq@@PAU1@V?$allocator@UtagBaseCharDistanceSq@@@std@@U1@@std@@YAPAUtagBaseCharDistanceSq@@PAU1@00AAV?$allocator@UtagBaseCharDistanceSq@@@0@0U_Nonscalar_ptr_iterator_tag@0@@Z$3 DD 040H
	DD	00H
	DD	00H
	DD	FLAT:__catch$??$_Uninit_move@PAUtagBaseCharDistanceSq@@PAU1@V?$allocator@UtagBaseCharDistanceSq@@@std@@U1@@std@@YAPAUtagBaseCharDistanceSq@@PAU1@00AAV?$allocator@UtagBaseCharDistanceSq@@@0@0U_Nonscalar_ptr_iterator_tag@0@@Z$0
__unwindtable$??$_Uninit_move@PAUtagBaseCharDistanceSq@@PAU1@V?$allocator@UtagBaseCharDistanceSq@@@std@@U1@@std@@YAPAUtagBaseCharDistanceSq@@PAU1@00AAV?$allocator@UtagBaseCharDistanceSq@@@0@0U_Nonscalar_ptr_iterator_tag@0@@Z DD 0ffffffffH
	DD	00H
	DD	0ffffffffH
	DD	00H
__tryblocktable$??$_Uninit_move@PAUtagBaseCharDistanceSq@@PAU1@V?$allocator@UtagBaseCharDistanceSq@@@std@@U1@@std@@YAPAUtagBaseCharDistanceSq@@PAU1@00AAV?$allocator@UtagBaseCharDistanceSq@@@0@0U_Nonscalar_ptr_iterator_tag@0@@Z DD 00H
	DD	00H
	DD	01H
	DD	01H
	DD	FLAT:__catchsym$??$_Uninit_move@PAUtagBaseCharDistanceSq@@PAU1@V?$allocator@UtagBaseCharDistanceSq@@@std@@U1@@std@@YAPAUtagBaseCharDistanceSq@@PAU1@00AAV?$allocator@UtagBaseCharDistanceSq@@@0@0U_Nonscalar_ptr_iterator_tag@0@@Z$3
__ehfuncinfo$??$_Uninit_move@PAUtagBaseCharDistanceSq@@PAU1@V?$allocator@UtagBaseCharDistanceSq@@@std@@U1@@std@@YAPAUtagBaseCharDistanceSq@@PAU1@00AAV?$allocator@UtagBaseCharDistanceSq@@@0@0U_Nonscalar_ptr_iterator_tag@0@@Z DD 019930522H
	DD	02H
	DD	FLAT:__unwindtable$??$_Uninit_move@PAUtagBaseCharDistanceSq@@PAU1@V?$allocator@UtagBaseCharDistanceSq@@@std@@U1@@std@@YAPAUtagBaseCharDistanceSq@@PAU1@00AAV?$allocator@UtagBaseCharDistanceSq@@@0@0U_Nonscalar_ptr_iterator_tag@0@@Z
	DD	01H
	DD	FLAT:__tryblocktable$??$_Uninit_move@PAUtagBaseCharDistanceSq@@PAU1@V?$allocator@UtagBaseCharDistanceSq@@@std@@U1@@std@@YAPAUtagBaseCharDistanceSq@@PAU1@00AAV?$allocator@UtagBaseCharDistanceSq@@@0@0U_Nonscalar_ptr_iterator_tag@0@@Z
	DD	2 DUP(00H)
	DD	00H
	DD	01H
; Function compile flags: /Ogsp
; File c:\program files (x86)\microsoft visual studio 10.0\vc\include\memory
xdata$x	ENDS
;	COMDAT ??$_Uninit_move@PAUtagBaseCharDistanceSq@@PAU1@V?$allocator@UtagBaseCharDistanceSq@@@std@@U1@@std@@YAPAUtagBaseCharDistanceSq@@PAU1@00AAV?$allocator@UtagBaseCharDistanceSq@@@0@0U_Nonscalar_ptr_iterator_tag@0@@Z
_TEXT	SEGMENT
__Next$ = -20						; size = 4
__$EHRec$ = -16						; size = 16
__First$ = 8						; size = 4
__Last$ = 12						; size = 4
__Dest$ = 16						; size = 4
__Al$ = 20						; size = 4
___formal$ = 24						; size = 4
___formal$ = 28						; size = 1
??$_Uninit_move@PAUtagBaseCharDistanceSq@@PAU1@V?$allocator@UtagBaseCharDistanceSq@@@std@@U1@@std@@YAPAUtagBaseCharDistanceSq@@PAU1@00AAV?$allocator@UtagBaseCharDistanceSq@@@0@0U_Nonscalar_ptr_iterator_tag@0@@Z PROC ; std::_Uninit_move<tagBaseCharDistanceSq *,tagBaseCharDistanceSq *,std::allocator<tagBaseCharDistanceSq>,tagBaseCharDistanceSq>, COMDAT

; 424  : 	{	// move [_First, _Last) to raw _Dest, using _Al, arbitrary type

  00000	6a 08		 push	 8
  00002	b8 00 00 00 00	 mov	 eax, __ehhandler$??$_Uninit_move@PAUtagBaseCharDistanceSq@@PAU1@V?$allocator@UtagBaseCharDistanceSq@@@std@@U1@@std@@YAPAUtagBaseCharDistanceSq@@PAU1@00AAV?$allocator@UtagBaseCharDistanceSq@@@0@0U_Nonscalar_ptr_iterator_tag@0@@Z
  00007	e8 00 00 00 00	 call	 __EH_prolog3_catch

; 425  : 	_DEBUG_RANGE(_First, _Last);
; 426  : 	_DEBUG_POINTER(_Dest);
; 427  : 	_FwdIt _Next = _Dest;

  0000c	8b 45 10	 mov	 eax, DWORD PTR __Dest$[ebp]

; 428  : 
; 429  : 	_TRY_BEGIN

  0000f	83 65 fc 00	 and	 DWORD PTR __$EHRec$[ebp+12], 0
  00013	8b 75 08	 mov	 esi, DWORD PTR __First$[ebp]
  00016	89 45 ec	 mov	 DWORD PTR __Next$[ebp], eax
$LL6@Uninit_mov@2:

; 430  : 	for (; _First != _Last; ++_Dest, ++_First)

  00019	3b 75 0c	 cmp	 esi, DWORD PTR __Last$[ebp]
  0001c	74 36		 je	 SHORT $LN4@Uninit_mov@2

; 431  : 		_Cons_val(_Al, _Dest, (_Valty &&)*_First);

  0001e	56		 push	 esi
  0001f	ff 75 10	 push	 DWORD PTR __Dest$[ebp]
  00022	ff 75 14	 push	 DWORD PTR __Al$[ebp]
  00025	e8 00 00 00 00	 call	 ??$_Cons_val@V?$allocator@UtagBaseCharDistanceSq@@@std@@UtagBaseCharDistanceSq@@U3@@std@@YAXAAV?$allocator@UtagBaseCharDistanceSq@@@0@PAUtagBaseCharDistanceSq@@$$QAU2@@Z ; std::_Cons_val<std::allocator<tagBaseCharDistanceSq>,tagBaseCharDistanceSq,tagBaseCharDistanceSq>
  0002a	83 45 10 20	 add	 DWORD PTR __Dest$[ebp], 32 ; 00000020H
  0002e	83 c4 0c	 add	 esp, 12			; 0000000cH
  00031	83 c6 20	 add	 esi, 32			; 00000020H
  00034	eb e3		 jmp	 SHORT $LL6@Uninit_mov@2
__catch$??$_Uninit_move@PAUtagBaseCharDistanceSq@@PAU1@V?$allocator@UtagBaseCharDistanceSq@@@std@@U1@@std@@YAPAUtagBaseCharDistanceSq@@PAU1@00AAV?$allocator@UtagBaseCharDistanceSq@@@0@0U_Nonscalar_ptr_iterator_tag@0@@Z$0:

; 432  : 	_CATCH_ALL
; 433  : 	for (; _Next != _Dest; ++_Next)

  00036	8b 75 ec	 mov	 esi, DWORD PTR __Next$[ebp]
  00039	eb 0b		 jmp	 SHORT $LN32@Uninit_mov@2
$LL3@Uninit_mov@2:

; 434  : 		_Dest_val(_Al, _Next);

  0003b	8b ce		 mov	 ecx, esi
  0003d	ff 15 00 00 00
	00		 call	 DWORD PTR __imp_??1ioHashString@@QAE@XZ
  00043	83 c6 20	 add	 esi, 32			; 00000020H
$LN32@Uninit_mov@2:

; 432  : 	_CATCH_ALL
; 433  : 	for (; _Next != _Dest; ++_Next)

  00046	3b 75 10	 cmp	 esi, DWORD PTR __Dest$[ebp]
  00049	75 f0		 jne	 SHORT $LL3@Uninit_mov@2

; 435  : 	_RERAISE;

  0004b	6a 00		 push	 0
  0004d	6a 00		 push	 0
  0004f	e8 00 00 00 00	 call	 __CxxThrowException@8
$LN33@Uninit_mov@2:
$LN4@Uninit_mov@2:

; 436  : 	_CATCH_END
; 437  : 	return (_Dest);

  00054	8b 45 10	 mov	 eax, DWORD PTR __Dest$[ebp]

; 438  : 	}

  00057	e8 00 00 00 00	 call	 __EH_epilog3
  0005c	c3		 ret	 0
$LN31@Uninit_mov@2:
_TEXT	ENDS
;	COMDAT text$x
text$x	SEGMENT
__ehhandler$??$_Uninit_move@PAUtagBaseCharDistanceSq@@PAU1@V?$allocator@UtagBaseCharDistanceSq@@@std@@U1@@std@@YAPAUtagBaseCharDistanceSq@@PAU1@00AAV?$allocator@UtagBaseCharDistanceSq@@@0@0U_Nonscalar_ptr_iterator_tag@0@@Z:
  00000	8b 54 24 08	 mov	 edx, DWORD PTR [esp+8]
  00004	8d 42 0c	 lea	 eax, DWORD PTR [edx+12]
  00007	8b 4a e8	 mov	 ecx, DWORD PTR [edx-24]
  0000a	33 c8		 xor	 ecx, eax
  0000c	e8 00 00 00 00	 call	 @__security_check_cookie@4
  00011	b8 00 00 00 00	 mov	 eax, OFFSET __ehfuncinfo$??$_Uninit_move@PAUtagBaseCharDistanceSq@@PAU1@V?$allocator@UtagBaseCharDistanceSq@@@std@@U1@@std@@YAPAUtagBaseCharDistanceSq@@PAU1@00AAV?$allocator@UtagBaseCharDistanceSq@@@0@0U_Nonscalar_ptr_iterator_tag@0@@Z
  00016	e9 00 00 00 00	 jmp	 ___CxxFrameHandler3
text$x	ENDS
??$_Uninit_move@PAUtagBaseCharDistanceSq@@PAU1@V?$allocator@UtagBaseCharDistanceSq@@@std@@U1@@std@@YAPAUtagBaseCharDistanceSq@@PAU1@00AAV?$allocator@UtagBaseCharDistanceSq@@@0@0U_Nonscalar_ptr_iterator_tag@0@@Z ENDP ; std::_Uninit_move<tagBaseCharDistanceSq *,tagBaseCharDistanceSq *,std::allocator<tagBaseCharDistanceSq>,tagBaseCharDistanceSq>
PUBLIC	??$_Pop_heap@PAUtagBaseCharDistanceSq@@VBaseCharDistanceSqSort@@@std@@YAXPAUtagBaseCharDistanceSq@@0VBaseCharDistanceSqSort@@@Z ; std::_Pop_heap<tagBaseCharDistanceSq *,BaseCharDistanceSqSort>
; Function compile flags: /Ogsp
; File c:\program files (x86)\microsoft visual studio 10.0\vc\include\algorithm
;	COMDAT ??$_Pop_heap@PAUtagBaseCharDistanceSq@@VBaseCharDistanceSqSort@@@std@@YAXPAUtagBaseCharDistanceSq@@0VBaseCharDistanceSqSort@@@Z
_TEXT	SEGMENT
__First$ = 8						; size = 4
__Last$ = 12						; size = 4
__Pred$ = 16						; size = 1
??$_Pop_heap@PAUtagBaseCharDistanceSq@@VBaseCharDistanceSqSort@@@std@@YAXPAUtagBaseCharDistanceSq@@0VBaseCharDistanceSqSort@@@Z PROC ; std::_Pop_heap<tagBaseCharDistanceSq *,BaseCharDistanceSqSort>, COMDAT

; 2610 : 	{	// pop *_First to *(_Last - 1) and reheap, using _Pred

  00000	55		 push	 ebp
  00001	8b ec		 mov	 ebp, esp

; 2611 : 	_Pop_heap_0(_Unchecked(_First), _Unchecked(_Last), _Pred,
; 2612 : 		_Val_type(_First));

  00003	6a 00		 push	 0
  00005	ff 75 10	 push	 DWORD PTR __Pred$[ebp]
  00008	ff 75 0c	 push	 DWORD PTR __Last$[ebp]
  0000b	ff 75 08	 push	 DWORD PTR __First$[ebp]
  0000e	e8 00 00 00 00	 call	 ??$_Pop_heap_0@PAUtagBaseCharDistanceSq@@U1@VBaseCharDistanceSqSort@@@std@@YAXPAUtagBaseCharDistanceSq@@0VBaseCharDistanceSqSort@@0@Z ; std::_Pop_heap_0<tagBaseCharDistanceSq *,tagBaseCharDistanceSq,BaseCharDistanceSqSort>
  00013	83 c4 10	 add	 esp, 16			; 00000010H

; 2613 : 	}

  00016	5d		 pop	 ebp
  00017	c3		 ret	 0
??$_Pop_heap@PAUtagBaseCharDistanceSq@@VBaseCharDistanceSqSort@@@std@@YAXPAUtagBaseCharDistanceSq@@0VBaseCharDistanceSqSort@@@Z ENDP ; std::_Pop_heap<tagBaseCharDistanceSq *,BaseCharDistanceSqSort>
_TEXT	ENDS
PUBLIC	??$_Destroy_range@V?$allocator@VioHashString@@@std@@@std@@YAXPAVioHashString@@0AAV?$allocator@VioHashString@@@0@U_Nonscalar_ptr_iterator_tag@0@@Z ; std::_Destroy_range<std::allocator<ioHashString> >
; Function compile flags: /Ogsp
; File c:\program files (x86)\microsoft visual studio 10.0\vc\include\xmemory
;	COMDAT ??$_Destroy_range@V?$allocator@VioHashString@@@std@@@std@@YAXPAVioHashString@@0AAV?$allocator@VioHashString@@@0@U_Nonscalar_ptr_iterator_tag@0@@Z
_TEXT	SEGMENT
__First$ = 8						; size = 4
__Last$ = 12						; size = 4
__Al$ = 16						; size = 4
___formal$ = 20						; size = 1
??$_Destroy_range@V?$allocator@VioHashString@@@std@@@std@@YAXPAVioHashString@@0AAV?$allocator@VioHashString@@@0@U_Nonscalar_ptr_iterator_tag@0@@Z PROC ; std::_Destroy_range<std::allocator<ioHashString> >, COMDAT

; 95   : 	{	// destroy [_First, _Last), arbitrary type

  00000	55		 push	 ebp
  00001	8b ec		 mov	 ebp, esp
  00003	56		 push	 esi

; 96   : 	for (; _First != _Last; ++_First)

  00004	8b 75 08	 mov	 esi, DWORD PTR __First$[ebp]
  00007	eb 0b		 jmp	 SHORT $LN17@Destroy_ra@2
$LL3@Destroy_ra@2:

; 97   : 		_Dest_val(_Al, _First);

  00009	8b ce		 mov	 ecx, esi
  0000b	ff 15 00 00 00
	00		 call	 DWORD PTR __imp_??1ioHashString@@QAE@XZ
  00011	83 c6 10	 add	 esi, 16			; 00000010H
$LN17@Destroy_ra@2:

; 96   : 	for (; _First != _Last; ++_First)

  00014	3b 75 0c	 cmp	 esi, DWORD PTR __Last$[ebp]
  00017	75 f0		 jne	 SHORT $LL3@Destroy_ra@2
  00019	5e		 pop	 esi

; 98   : 	}

  0001a	5d		 pop	 ebp
  0001b	c3		 ret	 0
??$_Destroy_range@V?$allocator@VioHashString@@@std@@@std@@YAXPAVioHashString@@0AAV?$allocator@VioHashString@@@0@U_Nonscalar_ptr_iterator_tag@0@@Z ENDP ; std::_Destroy_range<std::allocator<ioHashString> >
_TEXT	ENDS
PUBLIC	??$_Destroy_range@V?$allocator@UtagBaseCharDistanceSq@@@std@@@std@@YAXPAUtagBaseCharDistanceSq@@0AAV?$allocator@UtagBaseCharDistanceSq@@@0@@Z ; std::_Destroy_range<std::allocator<tagBaseCharDistanceSq> >
; Function compile flags: /Ogsp
;	COMDAT ??$_Destroy_range@V?$allocator@UtagBaseCharDistanceSq@@@std@@@std@@YAXPAUtagBaseCharDistanceSq@@0AAV?$allocator@UtagBaseCharDistanceSq@@@0@@Z
_TEXT	SEGMENT
__First$ = 8						; size = 4
__Last$ = 12						; size = 4
__Al$ = 16						; size = 4
??$_Destroy_range@V?$allocator@UtagBaseCharDistanceSq@@@std@@@std@@YAXPAUtagBaseCharDistanceSq@@0AAV?$allocator@UtagBaseCharDistanceSq@@@0@@Z PROC ; std::_Destroy_range<std::allocator<tagBaseCharDistanceSq> >, COMDAT

; 87   : 	{	// destroy [_First, _Last)

  00000	55		 push	 ebp
  00001	8b ec		 mov	 ebp, esp
  00003	56		 push	 esi

; 88   : 	_Destroy_range(_First, _Last, _Al, _Ptr_cat(_First, _Last));

  00004	8b 75 08	 mov	 esi, DWORD PTR __First$[ebp]
  00007	eb 0b		 jmp	 SHORT $LN24@Destroy_ra@3
$LL7@Destroy_ra@3:
  00009	8b ce		 mov	 ecx, esi
  0000b	ff 15 00 00 00
	00		 call	 DWORD PTR __imp_??1ioHashString@@QAE@XZ
  00011	83 c6 20	 add	 esi, 32			; 00000020H
$LN24@Destroy_ra@3:
  00014	3b 75 0c	 cmp	 esi, DWORD PTR __Last$[ebp]
  00017	75 f0		 jne	 SHORT $LL7@Destroy_ra@3
  00019	5e		 pop	 esi

; 89   : 	}

  0001a	5d		 pop	 ebp
  0001b	c3		 ret	 0
??$_Destroy_range@V?$allocator@UtagBaseCharDistanceSq@@@std@@@std@@YAXPAUtagBaseCharDistanceSq@@0AAV?$allocator@UtagBaseCharDistanceSq@@@0@@Z ENDP ; std::_Destroy_range<std::allocator<tagBaseCharDistanceSq> >
_TEXT	ENDS
PUBLIC	??$_Uninitialized_move@PAVioHashString@@PAV1@V?$allocator@VioHashString@@@std@@@std@@YAPAVioHashString@@PAV1@00AAV?$allocator@VioHashString@@@0@@Z ; std::_Uninitialized_move<ioHashString *,ioHashString *,std::allocator<ioHashString> >
; Function compile flags: /Ogsp
; File c:\program files (x86)\microsoft visual studio 10.0\vc\include\memory
;	COMDAT ??$_Uninitialized_move@PAVioHashString@@PAV1@V?$allocator@VioHashString@@@std@@@std@@YAPAVioHashString@@PAV1@00AAV?$allocator@VioHashString@@@0@@Z
_TEXT	SEGMENT
__Cat$537589 = -4					; size = 1
__First$ = 8						; size = 4
__Last$ = 12						; size = 4
__Dest$ = 16						; size = 4
__Al$ = 20						; size = 4
??$_Uninitialized_move@PAVioHashString@@PAV1@V?$allocator@VioHashString@@@std@@@std@@YAPAVioHashString@@PAV1@00AAV?$allocator@VioHashString@@@0@@Z PROC ; std::_Uninitialized_move<ioHashString *,ioHashString *,std::allocator<ioHashString> >, COMDAT

; 469  : 	{	// move [_First, _Last) to raw _Dest, using _Al

  00000	55		 push	 ebp
  00001	8b ec		 mov	 ebp, esp
  00003	51		 push	 ecx

; 470  : 	return (_Uninit_move(_First, _Last, _Dest, _Al,
; 471  : 		_Val_type(_First), _Ptr_cat(_First, _Dest)));

  00004	ff 75 fc	 push	 DWORD PTR __Cat$537589[ebp]
  00007	6a 00		 push	 0
  00009	ff 75 14	 push	 DWORD PTR __Al$[ebp]
  0000c	ff 75 10	 push	 DWORD PTR __Dest$[ebp]
  0000f	ff 75 0c	 push	 DWORD PTR __Last$[ebp]
  00012	ff 75 08	 push	 DWORD PTR __First$[ebp]
  00015	e8 00 00 00 00	 call	 ??$_Uninit_move@PAVioHashString@@PAV1@V?$allocator@VioHashString@@@std@@V1@@std@@YAPAVioHashString@@PAV1@00AAV?$allocator@VioHashString@@@0@0U_Nonscalar_ptr_iterator_tag@0@@Z ; std::_Uninit_move<ioHashString *,ioHashString *,std::allocator<ioHashString>,ioHashString>
  0001a	83 c4 18	 add	 esp, 24			; 00000018H

; 472  : 	}

  0001d	c9		 leave
  0001e	c3		 ret	 0
??$_Uninitialized_move@PAVioHashString@@PAV1@V?$allocator@VioHashString@@@std@@@std@@YAPAVioHashString@@PAV1@00AAV?$allocator@VioHashString@@@0@@Z ENDP ; std::_Uninitialized_move<ioHashString *,ioHashString *,std::allocator<ioHashString> >
_TEXT	ENDS
PUBLIC	??$_Uninitialized_move@PAUtagBaseCharDistanceSq@@PAU1@V?$allocator@UtagBaseCharDistanceSq@@@std@@@std@@YAPAUtagBaseCharDistanceSq@@PAU1@00AAV?$allocator@UtagBaseCharDistanceSq@@@0@@Z ; std::_Uninitialized_move<tagBaseCharDistanceSq *,tagBaseCharDistanceSq *,std::allocator<tagBaseCharDistanceSq> >
; Function compile flags: /Ogsp
;	COMDAT ??$_Uninitialized_move@PAUtagBaseCharDistanceSq@@PAU1@V?$allocator@UtagBaseCharDistanceSq@@@std@@@std@@YAPAUtagBaseCharDistanceSq@@PAU1@00AAV?$allocator@UtagBaseCharDistanceSq@@@0@@Z
_TEXT	SEGMENT
__Cat$537599 = -4					; size = 1
__First$ = 8						; size = 4
__Last$ = 12						; size = 4
__Dest$ = 16						; size = 4
__Al$ = 20						; size = 4
??$_Uninitialized_move@PAUtagBaseCharDistanceSq@@PAU1@V?$allocator@UtagBaseCharDistanceSq@@@std@@@std@@YAPAUtagBaseCharDistanceSq@@PAU1@00AAV?$allocator@UtagBaseCharDistanceSq@@@0@@Z PROC ; std::_Uninitialized_move<tagBaseCharDistanceSq *,tagBaseCharDistanceSq *,std::allocator<tagBaseCharDistanceSq> >, COMDAT

; 469  : 	{	// move [_First, _Last) to raw _Dest, using _Al

  00000	55		 push	 ebp
  00001	8b ec		 mov	 ebp, esp
  00003	51		 push	 ecx

; 470  : 	return (_Uninit_move(_First, _Last, _Dest, _Al,
; 471  : 		_Val_type(_First), _Ptr_cat(_First, _Dest)));

  00004	ff 75 fc	 push	 DWORD PTR __Cat$537599[ebp]
  00007	6a 00		 push	 0
  00009	ff 75 14	 push	 DWORD PTR __Al$[ebp]
  0000c	ff 75 10	 push	 DWORD PTR __Dest$[ebp]
  0000f	ff 75 0c	 push	 DWORD PTR __Last$[ebp]
  00012	ff 75 08	 push	 DWORD PTR __First$[ebp]
  00015	e8 00 00 00 00	 call	 ??$_Uninit_move@PAUtagBaseCharDistanceSq@@PAU1@V?$allocator@UtagBaseCharDistanceSq@@@std@@U1@@std@@YAPAUtagBaseCharDistanceSq@@PAU1@00AAV?$allocator@UtagBaseCharDistanceSq@@@0@0U_Nonscalar_ptr_iterator_tag@0@@Z ; std::_Uninit_move<tagBaseCharDistanceSq *,tagBaseCharDistanceSq *,std::allocator<tagBaseCharDistanceSq>,tagBaseCharDistanceSq>
  0001a	83 c4 18	 add	 esp, 24			; 00000018H

; 472  : 	}

  0001d	c9		 leave
  0001e	c3		 ret	 0
??$_Uninitialized_move@PAUtagBaseCharDistanceSq@@PAU1@V?$allocator@UtagBaseCharDistanceSq@@@std@@@std@@YAPAUtagBaseCharDistanceSq@@PAU1@00AAV?$allocator@UtagBaseCharDistanceSq@@@0@@Z ENDP ; std::_Uninitialized_move<tagBaseCharDistanceSq *,tagBaseCharDistanceSq *,std::allocator<tagBaseCharDistanceSq> >
_TEXT	ENDS
PUBLIC	??$_Sort_heap@PAUtagBaseCharDistanceSq@@VBaseCharDistanceSqSort@@@std@@YAXPAUtagBaseCharDistanceSq@@0VBaseCharDistanceSqSort@@@Z ; std::_Sort_heap<tagBaseCharDistanceSq *,BaseCharDistanceSqSort>
; Function compile flags: /Ogsp
; File c:\program files (x86)\microsoft visual studio 10.0\vc\include\algorithm
;	COMDAT ??$_Sort_heap@PAUtagBaseCharDistanceSq@@VBaseCharDistanceSqSort@@@std@@YAXPAUtagBaseCharDistanceSq@@0VBaseCharDistanceSqSort@@@Z
_TEXT	SEGMENT
__First$ = 8						; size = 4
__Last$ = 12						; size = 4
__Pred$ = 16						; size = 1
??$_Sort_heap@PAUtagBaseCharDistanceSq@@VBaseCharDistanceSqSort@@@std@@YAXPAUtagBaseCharDistanceSq@@0VBaseCharDistanceSqSort@@@Z PROC ; std::_Sort_heap<tagBaseCharDistanceSq *,BaseCharDistanceSqSort>, COMDAT

; 2700 : 	{	// order heap by repeatedly popping, using _Pred

  00000	55		 push	 ebp
  00001	8b ec		 mov	 ebp, esp

; 2701 : 	for (; 1 < _Last - _First; --_Last)

  00003	8b 45 0c	 mov	 eax, DWORD PTR __Last$[ebp]
  00006	2b 45 08	 sub	 eax, DWORD PTR __First$[ebp]
  00009	8b c8		 mov	 ecx, eax
  0000b	83 e1 e0	 and	 ecx, -32		; ffffffe0H
  0000e	83 f9 20	 cmp	 ecx, 32			; 00000020H
  00011	7e 28		 jle	 SHORT $LN1@Sort_heap
  00013	57		 push	 edi
  00014	8b f8		 mov	 edi, eax
$LL3@Sort_heap:

; 2702 : 		_Pop_heap(_First, _Last, _Pred);

  00016	6a 00		 push	 0
  00018	ff 75 10	 push	 DWORD PTR __Pred$[ebp]
  0001b	ff 75 0c	 push	 DWORD PTR __Last$[ebp]
  0001e	ff 75 08	 push	 DWORD PTR __First$[ebp]
  00021	e8 00 00 00 00	 call	 ??$_Pop_heap_0@PAUtagBaseCharDistanceSq@@U1@VBaseCharDistanceSqSort@@@std@@YAXPAUtagBaseCharDistanceSq@@0VBaseCharDistanceSqSort@@0@Z ; std::_Pop_heap_0<tagBaseCharDistanceSq *,tagBaseCharDistanceSq,BaseCharDistanceSqSort>
  00026	83 6d 0c 20	 sub	 DWORD PTR __Last$[ebp], 32 ; 00000020H
  0002a	83 ef 20	 sub	 edi, 32			; 00000020H
  0002d	8b c7		 mov	 eax, edi
  0002f	83 e0 e0	 and	 eax, -32		; ffffffe0H
  00032	83 c4 10	 add	 esp, 16			; 00000010H
  00035	83 f8 20	 cmp	 eax, 32			; 00000020H
  00038	7f dc		 jg	 SHORT $LL3@Sort_heap
  0003a	5f		 pop	 edi
$LN1@Sort_heap:

; 2703 : 	}

  0003b	5d		 pop	 ebp
  0003c	c3		 ret	 0
??$_Sort_heap@PAUtagBaseCharDistanceSq@@VBaseCharDistanceSqSort@@@std@@YAXPAUtagBaseCharDistanceSq@@0VBaseCharDistanceSqSort@@@Z ENDP ; std::_Sort_heap<tagBaseCharDistanceSq *,BaseCharDistanceSqSort>
_TEXT	ENDS
PUBLIC	??$_Destroy_range@V?$allocator@VioHashString@@@std@@@std@@YAXPAVioHashString@@0AAV?$allocator@VioHashString@@@0@@Z ; std::_Destroy_range<std::allocator<ioHashString> >
; Function compile flags: /Ogsp
; File c:\program files (x86)\microsoft visual studio 10.0\vc\include\xmemory
;	COMDAT ??$_Destroy_range@V?$allocator@VioHashString@@@std@@@std@@YAXPAVioHashString@@0AAV?$allocator@VioHashString@@@0@@Z
_TEXT	SEGMENT
__First$ = 8						; size = 4
__Last$ = 12						; size = 4
__Al$ = 16						; size = 4
??$_Destroy_range@V?$allocator@VioHashString@@@std@@@std@@YAXPAVioHashString@@0AAV?$allocator@VioHashString@@@0@@Z PROC ; std::_Destroy_range<std::allocator<ioHashString> >, COMDAT

; 87   : 	{	// destroy [_First, _Last)

  00000	55		 push	 ebp
  00001	8b ec		 mov	 ebp, esp
  00003	56		 push	 esi

; 88   : 	_Destroy_range(_First, _Last, _Al, _Ptr_cat(_First, _Last));

  00004	8b 75 08	 mov	 esi, DWORD PTR __First$[ebp]
  00007	eb 0b		 jmp	 SHORT $LN21@Destroy_ra@4
$LL7@Destroy_ra@4:
  00009	8b ce		 mov	 ecx, esi
  0000b	ff 15 00 00 00
	00		 call	 DWORD PTR __imp_??1ioHashString@@QAE@XZ
  00011	83 c6 10	 add	 esi, 16			; 00000010H
$LN21@Destroy_ra@4:
  00014	3b 75 0c	 cmp	 esi, DWORD PTR __Last$[ebp]
  00017	75 f0		 jne	 SHORT $LL7@Destroy_ra@4
  00019	5e		 pop	 esi

; 89   : 	}

  0001a	5d		 pop	 ebp
  0001b	c3		 ret	 0
??$_Destroy_range@V?$allocator@VioHashString@@@std@@@std@@YAXPAVioHashString@@0AAV?$allocator@VioHashString@@@0@@Z ENDP ; std::_Destroy_range<std::allocator<ioHashString> >
_TEXT	ENDS
PUBLIC	?_Destroy@?$vector@UtagBaseCharDistanceSq@@V?$allocator@UtagBaseCharDistanceSq@@@std@@@std@@IAEXPAUtagBaseCharDistanceSq@@0@Z ; std::vector<tagBaseCharDistanceSq,std::allocator<tagBaseCharDistanceSq> >::_Destroy
; Function compile flags: /Ogsp
; File c:\program files (x86)\microsoft visual studio 10.0\vc\include\vector
;	COMDAT ?_Destroy@?$vector@UtagBaseCharDistanceSq@@V?$allocator@UtagBaseCharDistanceSq@@@std@@@std@@IAEXPAUtagBaseCharDistanceSq@@0@Z
_TEXT	SEGMENT
__First$ = 8						; size = 4
__Last$ = 12						; size = 4
?_Destroy@?$vector@UtagBaseCharDistanceSq@@V?$allocator@UtagBaseCharDistanceSq@@@std@@@std@@IAEXPAUtagBaseCharDistanceSq@@0@Z PROC ; std::vector<tagBaseCharDistanceSq,std::allocator<tagBaseCharDistanceSq> >::_Destroy, COMDAT
; _this$ = ecx

; 1269 : 		{	// destroy [_First, _Last) using allocator

  00000	55		 push	 ebp
  00001	8b ec		 mov	 ebp, esp
  00003	56		 push	 esi

; 1270 : 		_Destroy_range(_First, _Last, this->_Alval);

  00004	8b 75 08	 mov	 esi, DWORD PTR __First$[ebp]
  00007	eb 0b		 jmp	 SHORT $LN26@Destroy
$LL9@Destroy:
  00009	8b ce		 mov	 ecx, esi
  0000b	ff 15 00 00 00
	00		 call	 DWORD PTR __imp_??1ioHashString@@QAE@XZ
  00011	83 c6 20	 add	 esi, 32			; 00000020H
$LN26@Destroy:
  00014	3b 75 0c	 cmp	 esi, DWORD PTR __Last$[ebp]
  00017	75 f0		 jne	 SHORT $LL9@Destroy
  00019	5e		 pop	 esi

; 1271 : 		}

  0001a	5d		 pop	 ebp
  0001b	c2 08 00	 ret	 8
?_Destroy@?$vector@UtagBaseCharDistanceSq@@V?$allocator@UtagBaseCharDistanceSq@@@std@@@std@@IAEXPAUtagBaseCharDistanceSq@@0@Z ENDP ; std::vector<tagBaseCharDistanceSq,std::allocator<tagBaseCharDistanceSq> >::_Destroy
_TEXT	ENDS
PUBLIC	??$_Umove@PAVioHashString@@@?$vector@VioHashString@@V?$allocator@VioHashString@@@std@@@std@@IAEPAVioHashString@@PAV2@00@Z ; std::vector<ioHashString,std::allocator<ioHashString> >::_Umove<ioHashString *>
; Function compile flags: /Ogsp
;	COMDAT ??$_Umove@PAVioHashString@@@?$vector@VioHashString@@V?$allocator@VioHashString@@@std@@@std@@IAEPAVioHashString@@PAV2@00@Z
_TEXT	SEGMENT
__First$ = 8						; size = 4
__Last$ = 12						; size = 4
__Ptr$ = 16						; size = 4
??$_Umove@PAVioHashString@@@?$vector@VioHashString@@V?$allocator@VioHashString@@@std@@@std@@IAEPAVioHashString@@PAV2@00@Z PROC ; std::vector<ioHashString,std::allocator<ioHashString> >::_Umove<ioHashString *>, COMDAT
; _this$ = ecx

; 1322 : 		pointer _Umove(_Iter _First, _Iter _Last, pointer _Ptr)

  00000	55		 push	 ebp
  00001	8b ec		 mov	 ebp, esp

; 1323 : 		{	// move initializing [_First, _Last), using allocator
; 1324 : 		return (_Uninitialized_move(_First, _Last,
; 1325 : 			_Ptr, this->_Alval));

  00003	83 c1 0c	 add	 ecx, 12			; 0000000cH
  00006	51		 push	 ecx
  00007	ff 75 10	 push	 DWORD PTR __Ptr$[ebp]
  0000a	ff 75 0c	 push	 DWORD PTR __Last$[ebp]
  0000d	ff 75 08	 push	 DWORD PTR __First$[ebp]
  00010	e8 00 00 00 00	 call	 ??$_Uninitialized_move@PAVioHashString@@PAV1@V?$allocator@VioHashString@@@std@@@std@@YAPAVioHashString@@PAV1@00AAV?$allocator@VioHashString@@@0@@Z ; std::_Uninitialized_move<ioHashString *,ioHashString *,std::allocator<ioHashString> >
  00015	83 c4 10	 add	 esp, 16			; 00000010H

; 1326 : 		}

  00018	5d		 pop	 ebp
  00019	c2 0c 00	 ret	 12			; 0000000cH
??$_Umove@PAVioHashString@@@?$vector@VioHashString@@V?$allocator@VioHashString@@@std@@@std@@IAEPAVioHashString@@PAV2@00@Z ENDP ; std::vector<ioHashString,std::allocator<ioHashString> >::_Umove<ioHashString *>
_TEXT	ENDS
PUBLIC	??$_Umove@PAUtagBaseCharDistanceSq@@@?$vector@UtagBaseCharDistanceSq@@V?$allocator@UtagBaseCharDistanceSq@@@std@@@std@@IAEPAUtagBaseCharDistanceSq@@PAU2@00@Z ; std::vector<tagBaseCharDistanceSq,std::allocator<tagBaseCharDistanceSq> >::_Umove<tagBaseCharDistanceSq *>
; Function compile flags: /Ogsp
;	COMDAT ??$_Umove@PAUtagBaseCharDistanceSq@@@?$vector@UtagBaseCharDistanceSq@@V?$allocator@UtagBaseCharDistanceSq@@@std@@@std@@IAEPAUtagBaseCharDistanceSq@@PAU2@00@Z
_TEXT	SEGMENT
__First$ = 8						; size = 4
__Last$ = 12						; size = 4
__Ptr$ = 16						; size = 4
??$_Umove@PAUtagBaseCharDistanceSq@@@?$vector@UtagBaseCharDistanceSq@@V?$allocator@UtagBaseCharDistanceSq@@@std@@@std@@IAEPAUtagBaseCharDistanceSq@@PAU2@00@Z PROC ; std::vector<tagBaseCharDistanceSq,std::allocator<tagBaseCharDistanceSq> >::_Umove<tagBaseCharDistanceSq *>, COMDAT
; _this$ = ecx

; 1322 : 		pointer _Umove(_Iter _First, _Iter _Last, pointer _Ptr)

  00000	55		 push	 ebp
  00001	8b ec		 mov	 ebp, esp

; 1323 : 		{	// move initializing [_First, _Last), using allocator
; 1324 : 		return (_Uninitialized_move(_First, _Last,
; 1325 : 			_Ptr, this->_Alval));

  00003	83 c1 0c	 add	 ecx, 12			; 0000000cH
  00006	51		 push	 ecx
  00007	ff 75 10	 push	 DWORD PTR __Ptr$[ebp]
  0000a	ff 75 0c	 push	 DWORD PTR __Last$[ebp]
  0000d	ff 75 08	 push	 DWORD PTR __First$[ebp]
  00010	e8 00 00 00 00	 call	 ??$_Uninitialized_move@PAUtagBaseCharDistanceSq@@PAU1@V?$allocator@UtagBaseCharDistanceSq@@@std@@@std@@YAPAUtagBaseCharDistanceSq@@PAU1@00AAV?$allocator@UtagBaseCharDistanceSq@@@0@@Z ; std::_Uninitialized_move<tagBaseCharDistanceSq *,tagBaseCharDistanceSq *,std::allocator<tagBaseCharDistanceSq> >
  00015	83 c4 10	 add	 esp, 16			; 00000010H

; 1326 : 		}

  00018	5d		 pop	 ebp
  00019	c2 0c 00	 ret	 12			; 0000000cH
??$_Umove@PAUtagBaseCharDistanceSq@@@?$vector@UtagBaseCharDistanceSq@@V?$allocator@UtagBaseCharDistanceSq@@@std@@@std@@IAEPAUtagBaseCharDistanceSq@@PAU2@00@Z ENDP ; std::vector<tagBaseCharDistanceSq,std::allocator<tagBaseCharDistanceSq> >::_Umove<tagBaseCharDistanceSq *>
_TEXT	ENDS
PUBLIC	??$sort_heap@PAUtagBaseCharDistanceSq@@VBaseCharDistanceSqSort@@@std@@YAXPAUtagBaseCharDistanceSq@@0VBaseCharDistanceSqSort@@@Z ; std::sort_heap<tagBaseCharDistanceSq *,BaseCharDistanceSqSort>
; Function compile flags: /Ogsp
; File c:\program files (x86)\microsoft visual studio 10.0\vc\include\algorithm
;	COMDAT ??$sort_heap@PAUtagBaseCharDistanceSq@@VBaseCharDistanceSqSort@@@std@@YAXPAUtagBaseCharDistanceSq@@0VBaseCharDistanceSqSort@@@Z
_TEXT	SEGMENT
__First$ = 8						; size = 4
__Last$ = 12						; size = 4
__Pred$ = 16						; size = 1
??$sort_heap@PAUtagBaseCharDistanceSq@@VBaseCharDistanceSqSort@@@std@@YAXPAUtagBaseCharDistanceSq@@0VBaseCharDistanceSqSort@@@Z PROC ; std::sort_heap<tagBaseCharDistanceSq *,BaseCharDistanceSqSort>, COMDAT

; 2708 : 	{	// order heap by repeatedly popping, using _Pred

  00000	55		 push	 ebp
  00001	8b ec		 mov	 ebp, esp

; 2709 : 	_DEBUG_RANGE(_First, _Last);
; 2710 : 	_DEBUG_POINTER(_Pred);
; 2711 : 	_DEBUG_HEAP_PRED(_First, _Last, _Pred);
; 2712 : 	_Sort_heap(_Unchecked(_First), _Unchecked(_Last), _Pred);

  00003	ff 75 10	 push	 DWORD PTR __Pred$[ebp]
  00006	ff 75 0c	 push	 DWORD PTR __Last$[ebp]
  00009	ff 75 08	 push	 DWORD PTR __First$[ebp]
  0000c	e8 00 00 00 00	 call	 ??$_Sort_heap@PAUtagBaseCharDistanceSq@@VBaseCharDistanceSqSort@@@std@@YAXPAUtagBaseCharDistanceSq@@0VBaseCharDistanceSqSort@@@Z ; std::_Sort_heap<tagBaseCharDistanceSq *,BaseCharDistanceSqSort>
  00011	83 c4 0c	 add	 esp, 12			; 0000000cH

; 2713 : 	}

  00014	5d		 pop	 ebp
  00015	c3		 ret	 0
??$sort_heap@PAUtagBaseCharDistanceSq@@VBaseCharDistanceSqSort@@@std@@YAXPAUtagBaseCharDistanceSq@@0VBaseCharDistanceSqSort@@@Z ENDP ; std::sort_heap<tagBaseCharDistanceSq *,BaseCharDistanceSqSort>
_TEXT	ENDS
PUBLIC	?_Destroy@?$vector@VioHashString@@V?$allocator@VioHashString@@@std@@@std@@IAEXPAVioHashString@@0@Z ; std::vector<ioHashString,std::allocator<ioHashString> >::_Destroy
; Function compile flags: /Ogsp
; File c:\program files (x86)\microsoft visual studio 10.0\vc\include\vector
;	COMDAT ?_Destroy@?$vector@VioHashString@@V?$allocator@VioHashString@@@std@@@std@@IAEXPAVioHashString@@0@Z
_TEXT	SEGMENT
__First$ = 8						; size = 4
__Last$ = 12						; size = 4
?_Destroy@?$vector@VioHashString@@V?$allocator@VioHashString@@@std@@@std@@IAEXPAVioHashString@@0@Z PROC ; std::vector<ioHashString,std::allocator<ioHashString> >::_Destroy, COMDAT
; _this$ = ecx

; 1269 : 		{	// destroy [_First, _Last) using allocator

  00000	55		 push	 ebp
  00001	8b ec		 mov	 ebp, esp
  00003	56		 push	 esi

; 1270 : 		_Destroy_range(_First, _Last, this->_Alval);

  00004	8b 75 08	 mov	 esi, DWORD PTR __First$[ebp]
  00007	eb 0b		 jmp	 SHORT $LN23@Destroy@2
$LL9@Destroy@2:
  00009	8b ce		 mov	 ecx, esi
  0000b	ff 15 00 00 00
	00		 call	 DWORD PTR __imp_??1ioHashString@@QAE@XZ
  00011	83 c6 10	 add	 esi, 16			; 00000010H
$LN23@Destroy@2:
  00014	3b 75 0c	 cmp	 esi, DWORD PTR __Last$[ebp]
  00017	75 f0		 jne	 SHORT $LL9@Destroy@2
  00019	5e		 pop	 esi

; 1271 : 		}

  0001a	5d		 pop	 ebp
  0001b	c2 08 00	 ret	 8
?_Destroy@?$vector@VioHashString@@V?$allocator@VioHashString@@@std@@@std@@IAEXPAVioHashString@@0@Z ENDP ; std::vector<ioHashString,std::allocator<ioHashString> >::_Destroy
_TEXT	ENDS
PUBLIC	?_Tidy@?$vector@UtagBaseCharDistanceSq@@V?$allocator@UtagBaseCharDistanceSq@@@std@@@std@@IAEXXZ ; std::vector<tagBaseCharDistanceSq,std::allocator<tagBaseCharDistanceSq> >::_Tidy
EXTRN	__imp_?_Orphan_all@_Container_base0@std@@QAEXXZ:PROC
; Function compile flags: /Ogsp
;	COMDAT ?_Tidy@?$vector@UtagBaseCharDistanceSq@@V?$allocator@UtagBaseCharDistanceSq@@@std@@@std@@IAEXXZ
_TEXT	SEGMENT
?_Tidy@?$vector@UtagBaseCharDistanceSq@@V?$allocator@UtagBaseCharDistanceSq@@@std@@@std@@IAEXXZ PROC ; std::vector<tagBaseCharDistanceSq,std::allocator<tagBaseCharDistanceSq> >::_Tidy, COMDAT
; _this$ = ecx

; 1301 : 		{	// free all storage

  00000	56		 push	 esi
  00001	8b f1		 mov	 esi, ecx

; 1302 : 		if (this->_Myfirst != 0)

  00003	83 3e 00	 cmp	 DWORD PTR [esi], 0
  00006	74 28		 je	 SHORT $LN27@Tidy

; 1303 : 			{	// something to free, destroy and deallocate it
; 1304 : 			this->_Orphan_all();

  00008	53		 push	 ebx
  00009	57		 push	 edi
  0000a	ff 15 00 00 00
	00		 call	 DWORD PTR __imp_?_Orphan_all@_Container_base0@std@@QAEXXZ

; 1305 : 			_Destroy(this->_Myfirst, this->_Mylast);

  00010	8b 5e 04	 mov	 ebx, DWORD PTR [esi+4]
  00013	8b 3e		 mov	 edi, DWORD PTR [esi]
  00015	eb 0b		 jmp	 SHORT $LN31@Tidy
$LL12@Tidy:
  00017	8b cf		 mov	 ecx, edi
  00019	ff 15 00 00 00
	00		 call	 DWORD PTR __imp_??1ioHashString@@QAE@XZ
  0001f	83 c7 20	 add	 edi, 32			; 00000020H
$LN31@Tidy:
  00022	3b fb		 cmp	 edi, ebx
  00024	75 f1		 jne	 SHORT $LL12@Tidy

; 1306 : 			this->_Alval.deallocate(this->_Myfirst,
; 1307 : 				this->_Myend - this->_Myfirst);

  00026	ff 36		 push	 DWORD PTR [esi]
  00028	e8 00 00 00 00	 call	 ??3@YAXPAX@Z		; operator delete
  0002d	59		 pop	 ecx
  0002e	5f		 pop	 edi
  0002f	5b		 pop	 ebx
$LN27@Tidy:

; 1308 : 			}
; 1309 : 		this->_Myfirst = 0;

  00030	33 c0		 xor	 eax, eax
  00032	89 06		 mov	 DWORD PTR [esi], eax

; 1310 : 		this->_Mylast = 0;

  00034	89 46 04	 mov	 DWORD PTR [esi+4], eax

; 1311 : 		this->_Myend = 0;

  00037	89 46 08	 mov	 DWORD PTR [esi+8], eax
  0003a	5e		 pop	 esi

; 1312 : 		}

  0003b	c3		 ret	 0
?_Tidy@?$vector@UtagBaseCharDistanceSq@@V?$allocator@UtagBaseCharDistanceSq@@@std@@@std@@IAEXXZ ENDP ; std::vector<tagBaseCharDistanceSq,std::allocator<tagBaseCharDistanceSq> >::_Tidy
_TEXT	ENDS
PUBLIC	?reserve@?$vector@VioHashString@@V?$allocator@VioHashString@@@std@@@std@@QAEXI@Z ; std::vector<ioHashString,std::allocator<ioHashString> >::reserve
;	COMDAT xdata$x
; File c:\program files (x86)\microsoft visual studio 10.0\vc\include\xmemory
xdata$x	SEGMENT
__catchsym$?reserve@?$vector@VioHashString@@V?$allocator@VioHashString@@@std@@@std@@QAEXI@Z$2 DD 040H
	DD	00H
	DD	00H
	DD	FLAT:__catch$?reserve@?$vector@VioHashString@@V?$allocator@VioHashString@@@std@@@std@@QAEXI@Z$0
__unwindtable$?reserve@?$vector@VioHashString@@V?$allocator@VioHashString@@@std@@@std@@QAEXI@Z DD 0ffffffffH
	DD	00H
	DD	0ffffffffH
	DD	00H
__tryblocktable$?reserve@?$vector@VioHashString@@V?$allocator@VioHashString@@@std@@@std@@QAEXI@Z DD 00H
	DD	00H
	DD	01H
	DD	01H
	DD	FLAT:__catchsym$?reserve@?$vector@VioHashString@@V?$allocator@VioHashString@@@std@@@std@@QAEXI@Z$2
__ehfuncinfo$?reserve@?$vector@VioHashString@@V?$allocator@VioHashString@@@std@@@std@@QAEXI@Z DD 019930522H
	DD	02H
	DD	FLAT:__unwindtable$?reserve@?$vector@VioHashString@@V?$allocator@VioHashString@@@std@@@std@@QAEXI@Z
	DD	01H
	DD	FLAT:__tryblocktable$?reserve@?$vector@VioHashString@@V?$allocator@VioHashString@@@std@@@std@@QAEXI@Z
	DD	2 DUP(00H)
	DD	00H
	DD	01H
; Function compile flags: /Ogsp
; File c:\program files (x86)\microsoft visual studio 10.0\vc\include\vector
xdata$x	ENDS
;	COMDAT ?reserve@?$vector@VioHashString@@V?$allocator@VioHashString@@@std@@@std@@QAEXI@Z
_TEXT	SEGMENT
tv300 = -24						; size = 4
__Ptr$531704 = -20					; size = 4
__$EHRec$ = -16						; size = 16
$T538075 = 8						; size = 4
__Count$ = 8						; size = 4
?reserve@?$vector@VioHashString@@V?$allocator@VioHashString@@@std@@@std@@QAEXI@Z PROC ; std::vector<ioHashString,std::allocator<ioHashString> >::reserve, COMDAT
; _this$ = ecx

; 746  : 		{	// determine new minimum length of allocated storage

  00000	6a 0c		 push	 12			; 0000000cH
  00002	b8 00 00 00 00	 mov	 eax, __ehhandler$?reserve@?$vector@VioHashString@@V?$allocator@VioHashString@@@std@@@std@@QAEXI@Z
  00007	e8 00 00 00 00	 call	 __EH_prolog3_catch
  0000c	8b f1		 mov	 esi, ecx

; 747  : 		if (max_size() < _Count)

  0000e	8b 5d 08	 mov	 ebx, DWORD PTR __Count$[ebp]
  00011	81 fb ff ff ff
	0f		 cmp	 ebx, 268435455		; 0fffffffH
  00017	76 0b		 jbe	 SHORT $LN5@reserve

; 748  : 			_Xlen();	// result too long

  00019	68 00 00 00 00	 push	 OFFSET ??_C@_0BD@OLBABOEK@vector?$DMT?$DO?5too?5long?$AA@
  0001e	ff 15 00 00 00
	00		 call	 DWORD PTR __imp_?_Xlength_error@std@@YAXPBD@Z
$LN59@reserve:
$LN5@reserve:

; 749  : 		else if (capacity() < _Count)

  00024	8b 46 08	 mov	 eax, DWORD PTR [esi+8]
  00027	2b 06		 sub	 eax, DWORD PTR [esi]
  00029	c1 f8 04	 sar	 eax, 4
  0002c	3b c3		 cmp	 eax, ebx
  0002e	73 7a		 jae	 SHORT $LN3@reserve

; 750  : 			{	// not enough room, reallocate
; 751  : 			pointer _Ptr = this->_Alval.allocate(_Count);

  00030	6a 00		 push	 0
  00032	53		 push	 ebx
  00033	e8 00 00 00 00	 call	 ??$_Allocate@VioHashString@@@std@@YAPAVioHashString@@IPAV1@@Z ; std::_Allocate<ioHashString>

; 752  : 
; 753  : 			_TRY_BEGIN
; 754  : 			_Umove(this->_Myfirst, this->_Mylast, _Ptr);

  00038	8b 0e		 mov	 ecx, DWORD PTR [esi]
  0003a	83 65 fc 00	 and	 DWORD PTR __$EHRec$[ebp+12], 0
  0003e	8d 56 0c	 lea	 edx, DWORD PTR [esi+12]
  00041	52		 push	 edx
  00042	89 45 ec	 mov	 DWORD PTR __Ptr$531704[ebp], eax
  00045	ff 75 ec	 push	 DWORD PTR __Ptr$531704[ebp]
  00048	8b 46 04	 mov	 eax, DWORD PTR [esi+4]
  0004b	50		 push	 eax
  0004c	51		 push	 ecx
  0004d	e8 00 00 00 00	 call	 ??$_Uninitialized_move@PAVioHashString@@PAV1@V?$allocator@VioHashString@@@std@@@std@@YAPAVioHashString@@PAV1@00AAV?$allocator@VioHashString@@@0@@Z ; std::_Uninitialized_move<ioHashString *,ioHashString *,std::allocator<ioHashString> >

; 758  : 			_CATCH_END
; 759  : 
; 760  : 			size_type _Size = size();

  00052	8b 4e 04	 mov	 ecx, DWORD PTR [esi+4]
  00055	8b 06		 mov	 eax, DWORD PTR [esi]
  00057	83 4d fc ff	 or	 DWORD PTR __$EHRec$[ebp+12], -1
  0005b	8b f9		 mov	 edi, ecx
  0005d	83 c4 18	 add	 esp, 24			; 00000018H
  00060	2b f8		 sub	 edi, eax
  00062	89 4d e8	 mov	 DWORD PTR tv300[ebp], ecx
  00065	85 c0		 test	 eax, eax
  00067	74 24		 je	 SHORT $LN51@reserve

; 761  : 			if (this->_Myfirst != 0)
; 762  : 				{	// destroy and deallocate old array
; 763  : 				_Destroy(this->_Myfirst, this->_Mylast);

  00069	89 45 08	 mov	 DWORD PTR $T538075[ebp], eax
  0006c	3b c1		 cmp	 eax, ecx
  0006e	74 15		 je	 SHORT $LN37@reserve
$LN39@reserve:
  00070	8b 4d 08	 mov	 ecx, DWORD PTR $T538075[ebp]
  00073	ff 15 00 00 00
	00		 call	 DWORD PTR __imp_??1ioHashString@@QAE@XZ
  00079	83 45 08 10	 add	 DWORD PTR $T538075[ebp], 16 ; 00000010H
  0007d	8b 45 08	 mov	 eax, DWORD PTR $T538075[ebp]
  00080	3b 45 e8	 cmp	 eax, DWORD PTR tv300[ebp]
  00083	75 eb		 jne	 SHORT $LN39@reserve
$LN37@reserve:

; 764  : 				this->_Alval.deallocate(this->_Myfirst,
; 765  : 					this->_Myend - this->_Myfirst);

  00085	ff 36		 push	 DWORD PTR [esi]
  00087	e8 00 00 00 00	 call	 ??3@YAXPAX@Z		; operator delete
  0008c	59		 pop	 ecx
$LN51@reserve:

; 766  : 				}
; 767  : 
; 768  : 			this->_Orphan_all();

  0008d	8b ce		 mov	 ecx, esi
  0008f	ff 15 00 00 00
	00		 call	 DWORD PTR __imp_?_Orphan_all@_Container_base0@std@@QAEXXZ

; 769  : 			this->_Myend = _Ptr + _Count;

  00095	8b 45 ec	 mov	 eax, DWORD PTR __Ptr$531704[ebp]
  00098	c1 e3 04	 shl	 ebx, 4
  0009b	03 d8		 add	 ebx, eax

; 770  : 			this->_Mylast = _Ptr + _Size;

  0009d	83 e7 f0	 and	 edi, -16		; fffffff0H
  000a0	03 f8		 add	 edi, eax
  000a2	89 5e 08	 mov	 DWORD PTR [esi+8], ebx
  000a5	89 7e 04	 mov	 DWORD PTR [esi+4], edi

; 771  : 			this->_Myfirst = _Ptr;

  000a8	89 06		 mov	 DWORD PTR [esi], eax
$LN3@reserve:

; 772  : 			}
; 773  : 		}

  000aa	e8 00 00 00 00	 call	 __EH_epilog3
  000af	c2 04 00	 ret	 4
__catch$?reserve@?$vector@VioHashString@@V?$allocator@VioHashString@@@std@@@std@@QAEXI@Z$0:

; 755  : 			_CATCH_ALL
; 756  : 			this->_Alval.deallocate(_Ptr, _Count);

  000b2	ff 75 ec	 push	 DWORD PTR __Ptr$531704[ebp]
  000b5	e8 00 00 00 00	 call	 ??3@YAXPAX@Z		; operator delete
  000ba	59		 pop	 ecx

; 757  : 			_RERAISE;

  000bb	6a 00		 push	 0
  000bd	6a 00		 push	 0
  000bf	e8 00 00 00 00	 call	 __CxxThrowException@8
$LN60@reserve:
$LN58@reserve:
  000c4	cc		 int	 3
_TEXT	ENDS
;	COMDAT text$x
text$x	SEGMENT
__ehhandler$?reserve@?$vector@VioHashString@@V?$allocator@VioHashString@@@std@@@std@@QAEXI@Z:
  00000	8b 54 24 08	 mov	 edx, DWORD PTR [esp+8]
  00004	8d 42 0c	 lea	 eax, DWORD PTR [edx+12]
  00007	8b 4a e4	 mov	 ecx, DWORD PTR [edx-28]
  0000a	33 c8		 xor	 ecx, eax
  0000c	e8 00 00 00 00	 call	 @__security_check_cookie@4
  00011	b8 00 00 00 00	 mov	 eax, OFFSET __ehfuncinfo$?reserve@?$vector@VioHashString@@V?$allocator@VioHashString@@@std@@@std@@QAEXI@Z
  00016	e9 00 00 00 00	 jmp	 ___CxxFrameHandler3
text$x	ENDS
?reserve@?$vector@VioHashString@@V?$allocator@VioHashString@@@std@@@std@@QAEXI@Z ENDP ; std::vector<ioHashString,std::allocator<ioHashString> >::reserve
PUBLIC	?reserve@?$vector@UtagBaseCharDistanceSq@@V?$allocator@UtagBaseCharDistanceSq@@@std@@@std@@QAEXI@Z ; std::vector<tagBaseCharDistanceSq,std::allocator<tagBaseCharDistanceSq> >::reserve
;	COMDAT xdata$x
; File c:\program files (x86)\microsoft visual studio 10.0\vc\include\xmemory
xdata$x	SEGMENT
__catchsym$?reserve@?$vector@UtagBaseCharDistanceSq@@V?$allocator@UtagBaseCharDistanceSq@@@std@@@std@@QAEXI@Z$3 DD 040H
	DD	00H
	DD	00H
	DD	FLAT:__catch$?reserve@?$vector@UtagBaseCharDistanceSq@@V?$allocator@UtagBaseCharDistanceSq@@@std@@@std@@QAEXI@Z$0
__unwindtable$?reserve@?$vector@UtagBaseCharDistanceSq@@V?$allocator@UtagBaseCharDistanceSq@@@std@@@std@@QAEXI@Z DD 0ffffffffH
	DD	00H
	DD	0ffffffffH
	DD	00H
__tryblocktable$?reserve@?$vector@UtagBaseCharDistanceSq@@V?$allocator@UtagBaseCharDistanceSq@@@std@@@std@@QAEXI@Z DD 00H
	DD	00H
	DD	01H
	DD	01H
	DD	FLAT:__catchsym$?reserve@?$vector@UtagBaseCharDistanceSq@@V?$allocator@UtagBaseCharDistanceSq@@@std@@@std@@QAEXI@Z$3
__ehfuncinfo$?reserve@?$vector@UtagBaseCharDistanceSq@@V?$allocator@UtagBaseCharDistanceSq@@@std@@@std@@QAEXI@Z DD 019930522H
	DD	02H
	DD	FLAT:__unwindtable$?reserve@?$vector@UtagBaseCharDistanceSq@@V?$allocator@UtagBaseCharDistanceSq@@@std@@@std@@QAEXI@Z
	DD	01H
	DD	FLAT:__tryblocktable$?reserve@?$vector@UtagBaseCharDistanceSq@@V?$allocator@UtagBaseCharDistanceSq@@@std@@@std@@QAEXI@Z
	DD	2 DUP(00H)
	DD	00H
	DD	01H
; Function compile flags: /Ogsp
; File c:\program files (x86)\microsoft visual studio 10.0\vc\include\vector
xdata$x	ENDS
;	COMDAT ?reserve@?$vector@UtagBaseCharDistanceSq@@V?$allocator@UtagBaseCharDistanceSq@@@std@@@std@@QAEXI@Z
_TEXT	SEGMENT
tv300 = -24						; size = 4
__Ptr$531724 = -20					; size = 4
__$EHRec$ = -16						; size = 16
$T538247 = 8						; size = 4
__Count$ = 8						; size = 4
?reserve@?$vector@UtagBaseCharDistanceSq@@V?$allocator@UtagBaseCharDistanceSq@@@std@@@std@@QAEXI@Z PROC ; std::vector<tagBaseCharDistanceSq,std::allocator<tagBaseCharDistanceSq> >::reserve, COMDAT
; _this$ = ecx

; 746  : 		{	// determine new minimum length of allocated storage

  00000	6a 0c		 push	 12			; 0000000cH
  00002	b8 00 00 00 00	 mov	 eax, __ehhandler$?reserve@?$vector@UtagBaseCharDistanceSq@@V?$allocator@UtagBaseCharDistanceSq@@@std@@@std@@QAEXI@Z
  00007	e8 00 00 00 00	 call	 __EH_prolog3_catch
  0000c	8b f1		 mov	 esi, ecx

; 747  : 		if (max_size() < _Count)

  0000e	8b 5d 08	 mov	 ebx, DWORD PTR __Count$[ebp]
  00011	81 fb ff ff ff
	07		 cmp	 ebx, 134217727		; 07ffffffH
  00017	76 0b		 jbe	 SHORT $LN5@reserve@2

; 748  : 			_Xlen();	// result too long

  00019	68 00 00 00 00	 push	 OFFSET ??_C@_0BD@OLBABOEK@vector?$DMT?$DO?5too?5long?$AA@
  0001e	ff 15 00 00 00
	00		 call	 DWORD PTR __imp_?_Xlength_error@std@@YAXPBD@Z
$LN62@reserve@2:
$LN5@reserve@2:

; 749  : 		else if (capacity() < _Count)

  00024	8b 46 08	 mov	 eax, DWORD PTR [esi+8]
  00027	2b 06		 sub	 eax, DWORD PTR [esi]
  00029	c1 f8 05	 sar	 eax, 5
  0002c	3b c3		 cmp	 eax, ebx
  0002e	73 7a		 jae	 SHORT $LN3@reserve@2

; 750  : 			{	// not enough room, reallocate
; 751  : 			pointer _Ptr = this->_Alval.allocate(_Count);

  00030	6a 00		 push	 0
  00032	53		 push	 ebx
  00033	e8 00 00 00 00	 call	 ??$_Allocate@UtagBaseCharDistanceSq@@@std@@YAPAUtagBaseCharDistanceSq@@IPAU1@@Z ; std::_Allocate<tagBaseCharDistanceSq>

; 752  : 
; 753  : 			_TRY_BEGIN
; 754  : 			_Umove(this->_Myfirst, this->_Mylast, _Ptr);

  00038	8b 0e		 mov	 ecx, DWORD PTR [esi]
  0003a	83 65 fc 00	 and	 DWORD PTR __$EHRec$[ebp+12], 0
  0003e	8d 56 0c	 lea	 edx, DWORD PTR [esi+12]
  00041	52		 push	 edx
  00042	89 45 ec	 mov	 DWORD PTR __Ptr$531724[ebp], eax
  00045	ff 75 ec	 push	 DWORD PTR __Ptr$531724[ebp]
  00048	8b 46 04	 mov	 eax, DWORD PTR [esi+4]
  0004b	50		 push	 eax
  0004c	51		 push	 ecx
  0004d	e8 00 00 00 00	 call	 ??$_Uninitialized_move@PAUtagBaseCharDistanceSq@@PAU1@V?$allocator@UtagBaseCharDistanceSq@@@std@@@std@@YAPAUtagBaseCharDistanceSq@@PAU1@00AAV?$allocator@UtagBaseCharDistanceSq@@@0@@Z ; std::_Uninitialized_move<tagBaseCharDistanceSq *,tagBaseCharDistanceSq *,std::allocator<tagBaseCharDistanceSq> >

; 758  : 			_CATCH_END
; 759  : 
; 760  : 			size_type _Size = size();

  00052	8b 4e 04	 mov	 ecx, DWORD PTR [esi+4]
  00055	8b 06		 mov	 eax, DWORD PTR [esi]
  00057	83 4d fc ff	 or	 DWORD PTR __$EHRec$[ebp+12], -1
  0005b	8b f9		 mov	 edi, ecx
  0005d	83 c4 18	 add	 esp, 24			; 00000018H
  00060	2b f8		 sub	 edi, eax
  00062	89 4d e8	 mov	 DWORD PTR tv300[ebp], ecx
  00065	85 c0		 test	 eax, eax
  00067	74 24		 je	 SHORT $LN54@reserve@2

; 761  : 			if (this->_Myfirst != 0)
; 762  : 				{	// destroy and deallocate old array
; 763  : 				_Destroy(this->_Myfirst, this->_Mylast);

  00069	89 45 08	 mov	 DWORD PTR $T538247[ebp], eax
  0006c	3b c1		 cmp	 eax, ecx
  0006e	74 15		 je	 SHORT $LN37@reserve@2
$LN39@reserve@2:
  00070	8b 4d 08	 mov	 ecx, DWORD PTR $T538247[ebp]
  00073	ff 15 00 00 00
	00		 call	 DWORD PTR __imp_??1ioHashString@@QAE@XZ
  00079	83 45 08 20	 add	 DWORD PTR $T538247[ebp], 32 ; 00000020H
  0007d	8b 45 08	 mov	 eax, DWORD PTR $T538247[ebp]
  00080	3b 45 e8	 cmp	 eax, DWORD PTR tv300[ebp]
  00083	75 eb		 jne	 SHORT $LN39@reserve@2
$LN37@reserve@2:

; 764  : 				this->_Alval.deallocate(this->_Myfirst,
; 765  : 					this->_Myend - this->_Myfirst);

  00085	ff 36		 push	 DWORD PTR [esi]
  00087	e8 00 00 00 00	 call	 ??3@YAXPAX@Z		; operator delete
  0008c	59		 pop	 ecx
$LN54@reserve@2:

; 766  : 				}
; 767  : 
; 768  : 			this->_Orphan_all();

  0008d	8b ce		 mov	 ecx, esi
  0008f	ff 15 00 00 00
	00		 call	 DWORD PTR __imp_?_Orphan_all@_Container_base0@std@@QAEXXZ

; 769  : 			this->_Myend = _Ptr + _Count;

  00095	8b 45 ec	 mov	 eax, DWORD PTR __Ptr$531724[ebp]
  00098	c1 e3 05	 shl	 ebx, 5
  0009b	03 d8		 add	 ebx, eax

; 770  : 			this->_Mylast = _Ptr + _Size;

  0009d	83 e7 e0	 and	 edi, -32		; ffffffe0H
  000a0	03 f8		 add	 edi, eax
  000a2	89 5e 08	 mov	 DWORD PTR [esi+8], ebx
  000a5	89 7e 04	 mov	 DWORD PTR [esi+4], edi

; 771  : 			this->_Myfirst = _Ptr;

  000a8	89 06		 mov	 DWORD PTR [esi], eax
$LN3@reserve@2:

; 772  : 			}
; 773  : 		}

  000aa	e8 00 00 00 00	 call	 __EH_epilog3
  000af	c2 04 00	 ret	 4
__catch$?reserve@?$vector@UtagBaseCharDistanceSq@@V?$allocator@UtagBaseCharDistanceSq@@@std@@@std@@QAEXI@Z$0:

; 755  : 			_CATCH_ALL
; 756  : 			this->_Alval.deallocate(_Ptr, _Count);

  000b2	ff 75 ec	 push	 DWORD PTR __Ptr$531724[ebp]
  000b5	e8 00 00 00 00	 call	 ??3@YAXPAX@Z		; operator delete
  000ba	59		 pop	 ecx

; 757  : 			_RERAISE;

  000bb	6a 00		 push	 0
  000bd	6a 00		 push	 0
  000bf	e8 00 00 00 00	 call	 __CxxThrowException@8
$LN63@reserve@2:
$LN61@reserve@2:
  000c4	cc		 int	 3
_TEXT	ENDS
;	COMDAT text$x
text$x	SEGMENT
__ehhandler$?reserve@?$vector@UtagBaseCharDistanceSq@@V?$allocator@UtagBaseCharDistanceSq@@@std@@@std@@QAEXI@Z:
  00000	8b 54 24 08	 mov	 edx, DWORD PTR [esp+8]
  00004	8d 42 0c	 lea	 eax, DWORD PTR [edx+12]
  00007	8b 4a e4	 mov	 ecx, DWORD PTR [edx-28]
  0000a	33 c8		 xor	 ecx, eax
  0000c	e8 00 00 00 00	 call	 @__security_check_cookie@4
  00011	b8 00 00 00 00	 mov	 eax, OFFSET __ehfuncinfo$?reserve@?$vector@UtagBaseCharDistanceSq@@V?$allocator@UtagBaseCharDistanceSq@@@std@@@std@@QAEXI@Z
  00016	e9 00 00 00 00	 jmp	 ___CxxFrameHandler3
text$x	ENDS
?reserve@?$vector@UtagBaseCharDistanceSq@@V?$allocator@UtagBaseCharDistanceSq@@@std@@@std@@QAEXI@Z ENDP ; std::vector<tagBaseCharDistanceSq,std::allocator<tagBaseCharDistanceSq> >::reserve
PUBLIC	??$_Sort@PAUtagBaseCharDistanceSq@@HVBaseCharDistanceSqSort@@@std@@YAXPAUtagBaseCharDistanceSq@@0HVBaseCharDistanceSqSort@@@Z ; std::_Sort<tagBaseCharDistanceSq *,int,BaseCharDistanceSqSort>
; Function compile flags: /Ogsp
; File c:\program files (x86)\microsoft visual studio 10.0\vc\include\algorithm
;	COMDAT ??$_Sort@PAUtagBaseCharDistanceSq@@HVBaseCharDistanceSqSort@@@std@@YAXPAUtagBaseCharDistanceSq@@0HVBaseCharDistanceSqSort@@@Z
_TEXT	SEGMENT
__Mid$533296 = -8					; size = 8
__First$ = 8						; size = 4
__Last$ = 12						; size = 4
__Ideal$ = 16						; size = 4
__Pred$ = 20						; size = 1
??$_Sort@PAUtagBaseCharDistanceSq@@HVBaseCharDistanceSqSort@@@std@@YAXPAUtagBaseCharDistanceSq@@0HVBaseCharDistanceSqSort@@@Z PROC ; std::_Sort<tagBaseCharDistanceSq *,int,BaseCharDistanceSqSort>, COMDAT

; 3771 : 	{	// order [_First, _Last), using _Pred

  00000	55		 push	 ebp
  00001	8b ec		 mov	 ebp, esp
  00003	51		 push	 ecx
  00004	51		 push	 ecx
  00005	53		 push	 ebx

; 3772 : 	_Diff _Count;
; 3773 : 	for (; _ISORT_MAX < (_Count = _Last - _First) && 0 < _Ideal; )

  00006	8b 5d 08	 mov	 ebx, DWORD PTR __First$[ebp]
  00009	57		 push	 edi
  0000a	8b 7d 0c	 mov	 edi, DWORD PTR __Last$[ebp]
  0000d	8b c7		 mov	 eax, edi
  0000f	2b c3		 sub	 eax, ebx
  00011	c1 f8 05	 sar	 eax, 5
  00014	83 f8 20	 cmp	 eax, 32			; 00000020H
  00017	0f 8e 89 00 00
	00		 jle	 $LN22@Sort
  0001d	56		 push	 esi
  0001e	8b 75 10	 mov	 esi, DWORD PTR __Ideal$[ebp]
$LL7@Sort:
  00021	85 f6		 test	 esi, esi
  00023	7e 62		 jle	 SHORT $LN6@Sort

; 3774 : 		{	// divide and conquer by quicksort
; 3775 : 		_STD pair<_RanIt, _RanIt> _Mid =
; 3776 : 			_Unguarded_partition(_First, _Last, _Pred);

  00025	ff 75 14	 push	 DWORD PTR __Pred$[ebp]
  00028	8d 45 f8	 lea	 eax, DWORD PTR __Mid$533296[ebp]
  0002b	57		 push	 edi
  0002c	53		 push	 ebx
  0002d	50		 push	 eax
  0002e	e8 00 00 00 00	 call	 ??$_Unguarded_partition@PAUtagBaseCharDistanceSq@@VBaseCharDistanceSqSort@@@std@@YA?AU?$pair@PAUtagBaseCharDistanceSq@@PAU1@@0@PAUtagBaseCharDistanceSq@@0VBaseCharDistanceSqSort@@@Z ; std::_Unguarded_partition<tagBaseCharDistanceSq *,BaseCharDistanceSqSort>

; 3777 : 		_Ideal /= 2, _Ideal += _Ideal / 2;	// allow 1.5 log2(N) divisions
; 3778 : 
; 3779 : 		if (_Mid.first - _First < _Last - _Mid.second)

  00033	8b 4d f8	 mov	 ecx, DWORD PTR __Mid$533296[ebp]
  00036	8b c6		 mov	 eax, esi
  00038	99		 cdq
  00039	2b c2		 sub	 eax, edx
  0003b	d1 f8		 sar	 eax, 1
  0003d	8b f0		 mov	 esi, eax
  0003f	99		 cdq
  00040	2b c2		 sub	 eax, edx
  00042	d1 f8		 sar	 eax, 1
  00044	03 f0		 add	 esi, eax
  00046	8b c7		 mov	 eax, edi
  00048	2b 45 fc	 sub	 eax, DWORD PTR __Mid$533296[ebp+4]
  0004b	83 c4 10	 add	 esp, 16			; 00000010H

; 3780 : 			{	// loop on second half
; 3781 : 			_Sort(_First, _Mid.first, _Ideal, _Pred);

  0004e	ff 75 14	 push	 DWORD PTR __Pred$[ebp]
  00051	2b cb		 sub	 ecx, ebx
  00053	83 e0 e0	 and	 eax, -32		; ffffffe0H
  00056	83 e1 e0	 and	 ecx, -32		; ffffffe0H
  00059	56		 push	 esi
  0005a	3b c8		 cmp	 ecx, eax
  0005c	7d 0e		 jge	 SHORT $LN5@Sort
  0005e	ff 75 f8	 push	 DWORD PTR __Mid$533296[ebp]
  00061	53		 push	 ebx
  00062	e8 00 00 00 00	 call	 ??$_Sort@PAUtagBaseCharDistanceSq@@HVBaseCharDistanceSqSort@@@std@@YAXPAUtagBaseCharDistanceSq@@0HVBaseCharDistanceSqSort@@@Z ; std::_Sort<tagBaseCharDistanceSq *,int,BaseCharDistanceSqSort>

; 3782 : 			_First = _Mid.second;

  00067	8b 5d fc	 mov	 ebx, DWORD PTR __Mid$533296[ebp+4]

; 3783 : 			}
; 3784 : 		else

  0006a	eb 0c		 jmp	 SHORT $LN23@Sort
$LN5@Sort:

; 3785 : 			{	// loop on first half
; 3786 : 			_Sort(_Mid.second, _Last, _Ideal, _Pred);

  0006c	57		 push	 edi
  0006d	ff 75 fc	 push	 DWORD PTR __Mid$533296[ebp+4]
  00070	e8 00 00 00 00	 call	 ??$_Sort@PAUtagBaseCharDistanceSq@@HVBaseCharDistanceSqSort@@@std@@YAXPAUtagBaseCharDistanceSq@@0HVBaseCharDistanceSqSort@@@Z ; std::_Sort<tagBaseCharDistanceSq *,int,BaseCharDistanceSqSort>

; 3787 : 			_Last = _Mid.first;

  00075	8b 7d f8	 mov	 edi, DWORD PTR __Mid$533296[ebp]
$LN23@Sort:

; 3772 : 	_Diff _Count;
; 3773 : 	for (; _ISORT_MAX < (_Count = _Last - _First) && 0 < _Ideal; )

  00078	8b c7		 mov	 eax, edi
  0007a	2b c3		 sub	 eax, ebx
  0007c	c1 f8 05	 sar	 eax, 5

; 3785 : 			{	// loop on first half
; 3786 : 			_Sort(_Mid.second, _Last, _Ideal, _Pred);

  0007f	83 c4 10	 add	 esp, 16			; 00000010H
  00082	83 f8 20	 cmp	 eax, 32			; 00000020H
  00085	7f 9a		 jg	 SHORT $LL7@Sort
$LN6@Sort:
  00087	5e		 pop	 esi

; 3788 : 			}
; 3789 : 		}
; 3790 : 
; 3791 : 	if (_ISORT_MAX < _Count)

  00088	83 f8 20	 cmp	 eax, 32			; 00000020H
  0008b	7e 19		 jle	 SHORT $LN22@Sort

; 3792 : 		{	// heap sort if too many divisions
; 3793 : 		_STD make_heap(_First, _Last, _Pred);

  0008d	ff 75 14	 push	 DWORD PTR __Pred$[ebp]
  00090	57		 push	 edi
  00091	53		 push	 ebx
  00092	e8 00 00 00 00	 call	 ??$make_heap@PAUtagBaseCharDistanceSq@@VBaseCharDistanceSqSort@@@std@@YAXPAUtagBaseCharDistanceSq@@0VBaseCharDistanceSqSort@@@Z ; std::make_heap<tagBaseCharDistanceSq *,BaseCharDistanceSqSort>

; 3794 : 		_STD sort_heap(_First, _Last, _Pred);

  00097	ff 75 14	 push	 DWORD PTR __Pred$[ebp]
  0009a	57		 push	 edi
  0009b	53		 push	 ebx
  0009c	e8 00 00 00 00	 call	 ??$_Sort_heap@PAUtagBaseCharDistanceSq@@VBaseCharDistanceSqSort@@@std@@YAXPAUtagBaseCharDistanceSq@@0VBaseCharDistanceSqSort@@@Z ; std::_Sort_heap<tagBaseCharDistanceSq *,BaseCharDistanceSqSort>
  000a1	83 c4 18	 add	 esp, 24			; 00000018H
  000a4	eb 14		 jmp	 SHORT $LN16@Sort
$LN22@Sort:

; 3795 : 		}
; 3796 : 	else if (1 < _Count)

  000a6	83 f8 01	 cmp	 eax, 1
  000a9	7e 0f		 jle	 SHORT $LN16@Sort

; 3797 : 		_Insertion_sort(_First, _Last, _Pred);	// small

  000ab	6a 00		 push	 0
  000ad	ff 75 14	 push	 DWORD PTR __Pred$[ebp]
  000b0	57		 push	 edi
  000b1	53		 push	 ebx
  000b2	e8 00 00 00 00	 call	 ??$_Insertion_sort1@PAUtagBaseCharDistanceSq@@VBaseCharDistanceSqSort@@U1@@std@@YAXPAUtagBaseCharDistanceSq@@0VBaseCharDistanceSqSort@@0@Z ; std::_Insertion_sort1<tagBaseCharDistanceSq *,BaseCharDistanceSqSort,tagBaseCharDistanceSq>
  000b7	83 c4 10	 add	 esp, 16			; 00000010H
$LN16@Sort:
  000ba	5f		 pop	 edi
  000bb	5b		 pop	 ebx

; 3798 : 	}

  000bc	c9		 leave
  000bd	c3		 ret	 0
??$_Sort@PAUtagBaseCharDistanceSq@@HVBaseCharDistanceSqSort@@@std@@YAXPAUtagBaseCharDistanceSq@@0HVBaseCharDistanceSqSort@@@Z ENDP ; std::_Sort<tagBaseCharDistanceSq *,int,BaseCharDistanceSqSort>
_TEXT	ENDS
PUBLIC	?erase@?$vector@VioHashString@@V?$allocator@VioHashString@@@std@@@std@@QAE?AV?$_Vector_iterator@V?$_Vector_val@VioHashString@@V?$allocator@VioHashString@@@std@@@std@@@2@V?$_Vector_const_iterator@V?$_Vector_val@VioHashString@@V?$allocator@VioHashString@@@std@@@std@@@2@0@Z ; std::vector<ioHashString,std::allocator<ioHashString> >::erase
; Function compile flags: /Ogsp
; File c:\program files (x86)\microsoft visual studio 10.0\vc\include\vector
;	COMDAT ?erase@?$vector@VioHashString@@V?$allocator@VioHashString@@@std@@@std@@QAE?AV?$_Vector_iterator@V?$_Vector_val@VioHashString@@V?$allocator@VioHashString@@@std@@@std@@@2@V?$_Vector_const_iterator@V?$_Vector_val@VioHashString@@V?$allocator@VioHashString@@@std@@@std@@@2@0@Z
_TEXT	SEGMENT
$T538473 = -4						; size = 4
___$ReturnUdt$ = 8					; size = 4
__First_arg$ = 12					; size = 4
__Cat$538417 = 16					; size = 1
__Last_arg$ = 16					; size = 4
?erase@?$vector@VioHashString@@V?$allocator@VioHashString@@@std@@@std@@QAE?AV?$_Vector_iterator@V?$_Vector_val@VioHashString@@V?$allocator@VioHashString@@@std@@@std@@@2@V?$_Vector_const_iterator@V?$_Vector_val@VioHashString@@V?$allocator@VioHashString@@@std@@@std@@@2@0@Z PROC ; std::vector<ioHashString,std::allocator<ioHashString> >::erase, COMDAT
; _this$ = ecx

; 1190 : 		{	// erase [_First, _Last)

  00000	55		 push	 ebp
  00001	8b ec		 mov	 ebp, esp
  00003	51		 push	 ecx

; 1191 : 		iterator _First = _Make_iter(_First_arg);

  00004	8b 45 08	 mov	 eax, DWORD PTR ___$ReturnUdt$[ebp]
  00007	56		 push	 esi
  00008	8b f1		 mov	 esi, ecx
  0000a	8b 4d 0c	 mov	 ecx, DWORD PTR __First_arg$[ebp]
  0000d	89 08		 mov	 DWORD PTR [eax], ecx

; 1192 : 		iterator _Last = _Make_iter(_Last_arg);
; 1193 : 
; 1194 : 		if (_First != _Last)

  0000f	3b 4d 10	 cmp	 ecx, DWORD PTR __Last_arg$[ebp]
  00012	74 38		 je	 SHORT $LN1@erase

; 1195 : 			{	// worth doing, copy down over hole
; 1196 :  #if _ITERATOR_DEBUG_LEVEL == 2
; 1197 : 			if (_Last < _First || _VICONT(_First) != this
; 1198 : 				|| _VIPTR(_First) < this->_Myfirst
; 1199 : 				|| this->_Mylast < _VIPTR(_Last))
; 1200 : 				_DEBUG_ERROR("vector erase iterator outside range");
; 1201 : 			pointer _Ptr = _Move(_VIPTR(_Last), this->_Mylast,
; 1202 : 				_VIPTR(_First));
; 1203 : 			_Orphan_range(_VIPTR(_First), this->_Mylast);
; 1204 : 
; 1205 :  #else /* _ITERATOR_DEBUG_LEVEL == 2 */
; 1206 : 			pointer _Ptr = _Move(_VIPTR(_Last), this->_Mylast,
; 1207 : 				_VIPTR(_First));

  00014	8b 46 04	 mov	 eax, DWORD PTR [esi+4]
  00017	53		 push	 ebx
  00018	57		 push	 edi
  00019	ff 75 10	 push	 DWORD PTR __Cat$538417[ebp]
  0001c	51		 push	 ecx
  0001d	50		 push	 eax
  0001e	ff 75 10	 push	 DWORD PTR __Last_arg$[ebp]
  00021	e8 00 00 00 00	 call	 ??$_Move@PAVioHashString@@PAV1@@std@@YAPAVioHashString@@PAV1@00U_Nonscalar_ptr_iterator_tag@0@@Z ; std::_Move<ioHashString *,ioHashString *>

; 1208 :  #endif /* _ITERATOR_DEBUG_LEVEL == 2 */
; 1209 : 
; 1210 : 			_Destroy(_Ptr, this->_Mylast);

  00026	8b 7e 04	 mov	 edi, DWORD PTR [esi+4]
  00029	8b d8		 mov	 ebx, eax
  0002b	83 c4 10	 add	 esp, 16			; 00000010H
  0002e	89 5d fc	 mov	 DWORD PTR $T538473[ebp], ebx
  00031	3b df		 cmp	 ebx, edi
  00033	74 12		 je	 SHORT $LN36@erase
$LL52@erase:
  00035	8b 4d fc	 mov	 ecx, DWORD PTR $T538473[ebp]
  00038	ff 15 00 00 00
	00		 call	 DWORD PTR __imp_??1ioHashString@@QAE@XZ
  0003e	83 45 fc 10	 add	 DWORD PTR $T538473[ebp], 16 ; 00000010H
  00042	39 7d fc	 cmp	 DWORD PTR $T538473[ebp], edi
  00045	75 ee		 jne	 SHORT $LL52@erase
$LN36@erase:

; 1211 : 			this->_Mylast = _Ptr;

  00047	5f		 pop	 edi
  00048	89 5e 04	 mov	 DWORD PTR [esi+4], ebx
  0004b	5b		 pop	 ebx
$LN1@erase:

; 1212 : 			}
; 1213 : 		return (_First);

  0004c	8b 45 08	 mov	 eax, DWORD PTR ___$ReturnUdt$[ebp]
  0004f	5e		 pop	 esi

; 1214 : 		}

  00050	c9		 leave
  00051	c2 0c 00	 ret	 12			; 0000000cH
?erase@?$vector@VioHashString@@V?$allocator@VioHashString@@@std@@@std@@QAE?AV?$_Vector_iterator@V?$_Vector_val@VioHashString@@V?$allocator@VioHashString@@@std@@@std@@@2@V?$_Vector_const_iterator@V?$_Vector_val@VioHashString@@V?$allocator@VioHashString@@@std@@@std@@@2@0@Z ENDP ; std::vector<ioHashString,std::allocator<ioHashString> >::erase
_TEXT	ENDS
PUBLIC	?_Tidy@?$vector@VioHashString@@V?$allocator@VioHashString@@@std@@@std@@IAEXXZ ; std::vector<ioHashString,std::allocator<ioHashString> >::_Tidy
; Function compile flags: /Ogsp
;	COMDAT ?_Tidy@?$vector@VioHashString@@V?$allocator@VioHashString@@@std@@@std@@IAEXXZ
_TEXT	SEGMENT
?_Tidy@?$vector@VioHashString@@V?$allocator@VioHashString@@@std@@@std@@IAEXXZ PROC ; std::vector<ioHashString,std::allocator<ioHashString> >::_Tidy, COMDAT
; _this$ = ecx

; 1301 : 		{	// free all storage

  00000	56		 push	 esi
  00001	8b f1		 mov	 esi, ecx

; 1302 : 		if (this->_Myfirst != 0)

  00003	83 3e 00	 cmp	 DWORD PTR [esi], 0
  00006	74 28		 je	 SHORT $LN24@Tidy@2

; 1303 : 			{	// something to free, destroy and deallocate it
; 1304 : 			this->_Orphan_all();

  00008	53		 push	 ebx
  00009	57		 push	 edi
  0000a	ff 15 00 00 00
	00		 call	 DWORD PTR __imp_?_Orphan_all@_Container_base0@std@@QAEXXZ

; 1305 : 			_Destroy(this->_Myfirst, this->_Mylast);

  00010	8b 5e 04	 mov	 ebx, DWORD PTR [esi+4]
  00013	8b 3e		 mov	 edi, DWORD PTR [esi]
  00015	eb 0b		 jmp	 SHORT $LN28@Tidy@2
$LL12@Tidy@2:
  00017	8b cf		 mov	 ecx, edi
  00019	ff 15 00 00 00
	00		 call	 DWORD PTR __imp_??1ioHashString@@QAE@XZ
  0001f	83 c7 10	 add	 edi, 16			; 00000010H
$LN28@Tidy@2:
  00022	3b fb		 cmp	 edi, ebx
  00024	75 f1		 jne	 SHORT $LL12@Tidy@2

; 1306 : 			this->_Alval.deallocate(this->_Myfirst,
; 1307 : 				this->_Myend - this->_Myfirst);

  00026	ff 36		 push	 DWORD PTR [esi]
  00028	e8 00 00 00 00	 call	 ??3@YAXPAX@Z		; operator delete
  0002d	59		 pop	 ecx
  0002e	5f		 pop	 edi
  0002f	5b		 pop	 ebx
$LN24@Tidy@2:

; 1308 : 			}
; 1309 : 		this->_Myfirst = 0;

  00030	33 c0		 xor	 eax, eax
  00032	89 06		 mov	 DWORD PTR [esi], eax

; 1310 : 		this->_Mylast = 0;

  00034	89 46 04	 mov	 DWORD PTR [esi+4], eax

; 1311 : 		this->_Myend = 0;

  00037	89 46 08	 mov	 DWORD PTR [esi+8], eax
  0003a	5e		 pop	 esi

; 1312 : 		}

  0003b	c3		 ret	 0
?_Tidy@?$vector@VioHashString@@V?$allocator@VioHashString@@@std@@@std@@IAEXXZ ENDP ; std::vector<ioHashString,std::allocator<ioHashString> >::_Tidy
_TEXT	ENDS
PUBLIC	??1?$vector@UtagBaseCharDistanceSq@@V?$allocator@UtagBaseCharDistanceSq@@@std@@@std@@QAE@XZ ; std::vector<tagBaseCharDistanceSq,std::allocator<tagBaseCharDistanceSq> >::~vector<tagBaseCharDistanceSq,std::allocator<tagBaseCharDistanceSq> >
; Function compile flags: /Ogsp
;	COMDAT ??1?$vector@UtagBaseCharDistanceSq@@V?$allocator@UtagBaseCharDistanceSq@@@std@@@std@@QAE@XZ
_TEXT	SEGMENT
??1?$vector@UtagBaseCharDistanceSq@@V?$allocator@UtagBaseCharDistanceSq@@@std@@@std@@QAE@XZ PROC ; std::vector<tagBaseCharDistanceSq,std::allocator<tagBaseCharDistanceSq> >::~vector<tagBaseCharDistanceSq,std::allocator<tagBaseCharDistanceSq> >, COMDAT
; _this$ = ecx

; 705  : 		_Tidy();

  00000	e9 00 00 00 00	 jmp	 ?_Tidy@?$vector@UtagBaseCharDistanceSq@@V?$allocator@UtagBaseCharDistanceSq@@@std@@@std@@IAEXXZ ; std::vector<tagBaseCharDistanceSq,std::allocator<tagBaseCharDistanceSq> >::_Tidy
??1?$vector@UtagBaseCharDistanceSq@@V?$allocator@UtagBaseCharDistanceSq@@@std@@@std@@QAE@XZ ENDP ; std::vector<tagBaseCharDistanceSq,std::allocator<tagBaseCharDistanceSq> >::~vector<tagBaseCharDistanceSq,std::allocator<tagBaseCharDistanceSq> >
_TEXT	ENDS
PUBLIC	?_Reserve@?$vector@VioHashString@@V?$allocator@VioHashString@@@std@@@std@@IAEXI@Z ; std::vector<ioHashString,std::allocator<ioHashString> >::_Reserve
; Function compile flags: /Ogsp
;	COMDAT ?_Reserve@?$vector@VioHashString@@V?$allocator@VioHashString@@@std@@@std@@IAEXI@Z
_TEXT	SEGMENT
__Count$ = 8						; size = 4
?_Reserve@?$vector@VioHashString@@V?$allocator@VioHashString@@@std@@@std@@IAEXI@Z PROC ; std::vector<ioHashString,std::allocator<ioHashString> >::_Reserve, COMDAT
; _this$ = ecx

; 1290 : 		{	// ensure room for _Count new elements, grow exponentially

  00000	55		 push	 ebp
  00001	8b ec		 mov	 ebp, esp
  00003	56		 push	 esi
  00004	8b f1		 mov	 esi, ecx

; 1291 : 		size_type _Size = size();

  00006	8b 0e		 mov	 ecx, DWORD PTR [esi]
  00008	8b 46 04	 mov	 eax, DWORD PTR [esi+4]
  0000b	2b c1		 sub	 eax, ecx

; 1292 : 		if (max_size() - _Count < _Size)

  0000d	ba ff ff ff 0f	 mov	 edx, 268435455		; 0fffffffH
  00012	2b 55 08	 sub	 edx, DWORD PTR __Count$[ebp]
  00015	c1 f8 04	 sar	 eax, 4
  00018	3b d0		 cmp	 edx, eax
  0001a	73 0b		 jae	 SHORT $LN4@Reserve

; 1293 : 			_Xlen();

  0001c	68 00 00 00 00	 push	 OFFSET ??_C@_0BD@OLBABOEK@vector?$DMT?$DO?5too?5long?$AA@
  00021	ff 15 00 00 00
	00		 call	 DWORD PTR __imp_?_Xlength_error@std@@YAXPBD@Z
$LN21@Reserve:
$LN4@Reserve:

; 1294 : 		else if ((_Size += _Count) <= capacity())

  00027	8b 56 08	 mov	 edx, DWORD PTR [esi+8]
  0002a	03 45 08	 add	 eax, DWORD PTR __Count$[ebp]
  0002d	2b d1		 sub	 edx, ecx
  0002f	c1 fa 04	 sar	 edx, 4
  00032	3b c2		 cmp	 eax, edx
  00034	76 10		 jbe	 SHORT $LN1@Reserve

; 1295 : 			;
; 1296 : 		else
; 1297 : 			reserve(_Grow_to(_Size));

  00036	50		 push	 eax
  00037	8b ce		 mov	 ecx, esi
  00039	e8 00 00 00 00	 call	 ?_Grow_to@?$vector@VioHashString@@V?$allocator@VioHashString@@@std@@@std@@IBEII@Z ; std::vector<ioHashString,std::allocator<ioHashString> >::_Grow_to
  0003e	50		 push	 eax
  0003f	8b ce		 mov	 ecx, esi
  00041	e8 00 00 00 00	 call	 ?reserve@?$vector@VioHashString@@V?$allocator@VioHashString@@@std@@@std@@QAEXI@Z ; std::vector<ioHashString,std::allocator<ioHashString> >::reserve
$LN1@Reserve:
  00046	5e		 pop	 esi

; 1298 : 		}

  00047	5d		 pop	 ebp
  00048	c2 04 00	 ret	 4
$LN20@Reserve:
?_Reserve@?$vector@VioHashString@@V?$allocator@VioHashString@@@std@@@std@@IAEXI@Z ENDP ; std::vector<ioHashString,std::allocator<ioHashString> >::_Reserve
_TEXT	ENDS
PUBLIC	?_Reserve@?$vector@UtagBaseCharDistanceSq@@V?$allocator@UtagBaseCharDistanceSq@@@std@@@std@@IAEXI@Z ; std::vector<tagBaseCharDistanceSq,std::allocator<tagBaseCharDistanceSq> >::_Reserve
; Function compile flags: /Ogsp
;	COMDAT ?_Reserve@?$vector@UtagBaseCharDistanceSq@@V?$allocator@UtagBaseCharDistanceSq@@@std@@@std@@IAEXI@Z
_TEXT	SEGMENT
__Count$ = 8						; size = 4
?_Reserve@?$vector@UtagBaseCharDistanceSq@@V?$allocator@UtagBaseCharDistanceSq@@@std@@@std@@IAEXI@Z PROC ; std::vector<tagBaseCharDistanceSq,std::allocator<tagBaseCharDistanceSq> >::_Reserve, COMDAT
; _this$ = ecx

; 1290 : 		{	// ensure room for _Count new elements, grow exponentially

  00000	55		 push	 ebp
  00001	8b ec		 mov	 ebp, esp
  00003	56		 push	 esi
  00004	8b f1		 mov	 esi, ecx

; 1291 : 		size_type _Size = size();

  00006	8b 0e		 mov	 ecx, DWORD PTR [esi]
  00008	8b 46 04	 mov	 eax, DWORD PTR [esi+4]
  0000b	2b c1		 sub	 eax, ecx

; 1292 : 		if (max_size() - _Count < _Size)

  0000d	ba ff ff ff 07	 mov	 edx, 134217727		; 07ffffffH
  00012	2b 55 08	 sub	 edx, DWORD PTR __Count$[ebp]
  00015	c1 f8 05	 sar	 eax, 5
  00018	3b d0		 cmp	 edx, eax
  0001a	73 0b		 jae	 SHORT $LN4@Reserve@2

; 1293 : 			_Xlen();

  0001c	68 00 00 00 00	 push	 OFFSET ??_C@_0BD@OLBABOEK@vector?$DMT?$DO?5too?5long?$AA@
  00021	ff 15 00 00 00
	00		 call	 DWORD PTR __imp_?_Xlength_error@std@@YAXPBD@Z
$LN21@Reserve@2:
$LN4@Reserve@2:

; 1294 : 		else if ((_Size += _Count) <= capacity())

  00027	8b 56 08	 mov	 edx, DWORD PTR [esi+8]
  0002a	03 45 08	 add	 eax, DWORD PTR __Count$[ebp]
  0002d	2b d1		 sub	 edx, ecx
  0002f	c1 fa 05	 sar	 edx, 5
  00032	3b c2		 cmp	 eax, edx
  00034	76 10		 jbe	 SHORT $LN1@Reserve@2

; 1295 : 			;
; 1296 : 		else
; 1297 : 			reserve(_Grow_to(_Size));

  00036	50		 push	 eax
  00037	8b ce		 mov	 ecx, esi
  00039	e8 00 00 00 00	 call	 ?_Grow_to@?$vector@UtagBaseCharDistanceSq@@V?$allocator@UtagBaseCharDistanceSq@@@std@@@std@@IBEII@Z ; std::vector<tagBaseCharDistanceSq,std::allocator<tagBaseCharDistanceSq> >::_Grow_to
  0003e	50		 push	 eax
  0003f	8b ce		 mov	 ecx, esi
  00041	e8 00 00 00 00	 call	 ?reserve@?$vector@UtagBaseCharDistanceSq@@V?$allocator@UtagBaseCharDistanceSq@@@std@@@std@@QAEXI@Z ; std::vector<tagBaseCharDistanceSq,std::allocator<tagBaseCharDistanceSq> >::reserve
$LN1@Reserve@2:
  00046	5e		 pop	 esi

; 1298 : 		}

  00047	5d		 pop	 ebp
  00048	c2 04 00	 ret	 4
$LN20@Reserve@2:
?_Reserve@?$vector@UtagBaseCharDistanceSq@@V?$allocator@UtagBaseCharDistanceSq@@@std@@@std@@IAEXI@Z ENDP ; std::vector<tagBaseCharDistanceSq,std::allocator<tagBaseCharDistanceSq> >::_Reserve
_TEXT	ENDS
PUBLIC	??$sort@V?$_Vector_iterator@V?$_Vector_val@UtagBaseCharDistanceSq@@V?$allocator@UtagBaseCharDistanceSq@@@std@@@std@@@std@@VBaseCharDistanceSqSort@@@std@@YAXV?$_Vector_iterator@V?$_Vector_val@UtagBaseCharDistanceSq@@V?$allocator@UtagBaseCharDistanceSq@@@std@@@std@@@0@0VBaseCharDistanceSqSort@@@Z ; std::sort<std::_Vector_iterator<std::_Vector_val<tagBaseCharDistanceSq,std::allocator<tagBaseCharDistanceSq> > >,BaseCharDistanceSqSort>
; Function compile flags: /Ogsp
; File c:\program files (x86)\microsoft visual studio 10.0\vc\include\algorithm
;	COMDAT ??$sort@V?$_Vector_iterator@V?$_Vector_val@UtagBaseCharDistanceSq@@V?$allocator@UtagBaseCharDistanceSq@@@std@@@std@@@std@@VBaseCharDistanceSqSort@@@std@@YAXV?$_Vector_iterator@V?$_Vector_val@UtagBaseCharDistanceSq@@V?$allocator@UtagBaseCharDistanceSq@@@std@@@std@@@0@0VBaseCharDistanceSqSort@@@Z
_TEXT	SEGMENT
__First$ = 8						; size = 4
__Last$ = 12						; size = 4
__Pred$ = 16						; size = 1
??$sort@V?$_Vector_iterator@V?$_Vector_val@UtagBaseCharDistanceSq@@V?$allocator@UtagBaseCharDistanceSq@@@std@@@std@@@std@@VBaseCharDistanceSqSort@@@std@@YAXV?$_Vector_iterator@V?$_Vector_val@UtagBaseCharDistanceSq@@V?$allocator@UtagBaseCharDistanceSq@@@std@@@std@@@0@0VBaseCharDistanceSqSort@@@Z PROC ; std::sort<std::_Vector_iterator<std::_Vector_val<tagBaseCharDistanceSq,std::allocator<tagBaseCharDistanceSq> > >,BaseCharDistanceSqSort>, COMDAT

; 3803 : 	{	// order [_First, _Last), using _Pred

  00000	55		 push	 ebp
  00001	8b ec		 mov	 ebp, esp

; 3804 : 	_DEBUG_RANGE(_First, _Last);
; 3805 : 	_DEBUG_POINTER(_Pred);
; 3806 : 	_Sort(_Unchecked(_First), _Unchecked(_Last), _Last - _First, _Pred);

  00003	8b 45 0c	 mov	 eax, DWORD PTR __Last$[ebp]
  00006	ff 75 10	 push	 DWORD PTR __Pred$[ebp]
  00009	2b 45 08	 sub	 eax, DWORD PTR __First$[ebp]
  0000c	c1 f8 05	 sar	 eax, 5
  0000f	50		 push	 eax
  00010	ff 75 0c	 push	 DWORD PTR __Last$[ebp]
  00013	ff 75 08	 push	 DWORD PTR __First$[ebp]
  00016	e8 00 00 00 00	 call	 ??$_Sort@PAUtagBaseCharDistanceSq@@HVBaseCharDistanceSqSort@@@std@@YAXPAUtagBaseCharDistanceSq@@0HVBaseCharDistanceSqSort@@@Z ; std::_Sort<tagBaseCharDistanceSq *,int,BaseCharDistanceSqSort>
  0001b	83 c4 10	 add	 esp, 16			; 00000010H

; 3807 : 	}

  0001e	5d		 pop	 ebp
  0001f	c3		 ret	 0
??$sort@V?$_Vector_iterator@V?$_Vector_val@UtagBaseCharDistanceSq@@V?$allocator@UtagBaseCharDistanceSq@@@std@@@std@@@std@@VBaseCharDistanceSqSort@@@std@@YAXV?$_Vector_iterator@V?$_Vector_val@UtagBaseCharDistanceSq@@V?$allocator@UtagBaseCharDistanceSq@@@std@@@std@@@0@0VBaseCharDistanceSqSort@@@Z ENDP ; std::sort<std::_Vector_iterator<std::_Vector_val<tagBaseCharDistanceSq,std::allocator<tagBaseCharDistanceSq> > >,BaseCharDistanceSqSort>
_TEXT	ENDS
PUBLIC	??1?$vector@VioHashString@@V?$allocator@VioHashString@@@std@@@std@@QAE@XZ ; std::vector<ioHashString,std::allocator<ioHashString> >::~vector<ioHashString,std::allocator<ioHashString> >
; Function compile flags: /Ogsp
; File c:\program files (x86)\microsoft visual studio 10.0\vc\include\vector
;	COMDAT ??1?$vector@VioHashString@@V?$allocator@VioHashString@@@std@@@std@@QAE@XZ
_TEXT	SEGMENT
??1?$vector@VioHashString@@V?$allocator@VioHashString@@@std@@@std@@QAE@XZ PROC ; std::vector<ioHashString,std::allocator<ioHashString> >::~vector<ioHashString,std::allocator<ioHashString> >, COMDAT
; _this$ = ecx

; 705  : 		_Tidy();

  00000	e9 00 00 00 00	 jmp	 ?_Tidy@?$vector@VioHashString@@V?$allocator@VioHashString@@@std@@@std@@IAEXXZ ; std::vector<ioHashString,std::allocator<ioHashString> >::_Tidy
??1?$vector@VioHashString@@V?$allocator@VioHashString@@@std@@@std@@QAE@XZ ENDP ; std::vector<ioHashString,std::allocator<ioHashString> >::~vector<ioHashString,std::allocator<ioHashString> >
_TEXT	ENDS
PUBLIC	?clear@?$vector@VioHashString@@V?$allocator@VioHashString@@@std@@@std@@QAEXXZ ; std::vector<ioHashString,std::allocator<ioHashString> >::clear
; Function compile flags: /Ogsp
;	COMDAT ?clear@?$vector@VioHashString@@V?$allocator@VioHashString@@@std@@@std@@QAEXXZ
_TEXT	SEGMENT
$T538741 = -4						; size = 4
?clear@?$vector@VioHashString@@V?$allocator@VioHashString@@@std@@@std@@QAEXXZ PROC ; std::vector<ioHashString,std::allocator<ioHashString> >::clear, COMDAT
; _this$ = ecx

; 1217 : 		{	// erase all

  00000	55		 push	 ebp
  00001	8b ec		 mov	 ebp, esp
  00003	51		 push	 ecx

; 1218 : 		erase(begin(), end());

  00004	8b 41 04	 mov	 eax, DWORD PTR [ecx+4]
  00007	8b 11		 mov	 edx, DWORD PTR [ecx]
  00009	50		 push	 eax
  0000a	52		 push	 edx
  0000b	8d 45 fc	 lea	 eax, DWORD PTR $T538741[ebp]
  0000e	50		 push	 eax
  0000f	e8 00 00 00 00	 call	 ?erase@?$vector@VioHashString@@V?$allocator@VioHashString@@@std@@@std@@QAE?AV?$_Vector_iterator@V?$_Vector_val@VioHashString@@V?$allocator@VioHashString@@@std@@@std@@@2@V?$_Vector_const_iterator@V?$_Vector_val@VioHashString@@V?$allocator@VioHashString@@@std@@@std@@@2@0@Z ; std::vector<ioHashString,std::allocator<ioHashString> >::erase

; 1219 : 		}

  00014	c9		 leave
  00015	c3		 ret	 0
?clear@?$vector@VioHashString@@V?$allocator@VioHashString@@@std@@@std@@QAEXXZ ENDP ; std::vector<ioHashString,std::allocator<ioHashString> >::clear
_TEXT	ENDS
PUBLIC	??_7ioTargetTeleportSkill@@6B@			; ioTargetTeleportSkill::`vftable'
PUBLIC	??0ioTargetTeleportSkill@@QAE@XZ		; ioTargetTeleportSkill::ioTargetTeleportSkill
PUBLIC	??_R4ioTargetTeleportSkill@@6B@			; ioTargetTeleportSkill::`RTTI Complete Object Locator'
PUBLIC	??_R0?AVioTargetTeleportSkill@@@8		; ioTargetTeleportSkill `RTTI Type Descriptor'
PUBLIC	??_R3ioTargetTeleportSkill@@8			; ioTargetTeleportSkill::`RTTI Class Hierarchy Descriptor'
PUBLIC	??_R2ioTargetTeleportSkill@@8			; ioTargetTeleportSkill::`RTTI Base Class Array'
PUBLIC	??_R1A@?0A@EA@ioTargetTeleportSkill@@8		; ioTargetTeleportSkill::`RTTI Base Class Descriptor at (0,-1,0,64)'
PUBLIC	??_R1A@?0A@EA@ioNormalSkill@@8			; ioNormalSkill::`RTTI Base Class Descriptor at (0,-1,0,64)'
PUBLIC	??_R0?AVioNormalSkill@@@8			; ioNormalSkill `RTTI Type Descriptor'
PUBLIC	??_R3ioNormalSkill@@8				; ioNormalSkill::`RTTI Class Hierarchy Descriptor'
PUBLIC	??_R2ioNormalSkill@@8				; ioNormalSkill::`RTTI Base Class Array'
PUBLIC	??_R1A@?0A@EA@ioSkill@@8			; ioSkill::`RTTI Base Class Descriptor at (0,-1,0,64)'
PUBLIC	??_R0?AVioSkill@@@8				; ioSkill `RTTI Type Descriptor'
PUBLIC	??_R3ioSkill@@8					; ioSkill::`RTTI Class Hierarchy Descriptor'
PUBLIC	??_R2ioSkill@@8					; ioSkill::`RTTI Base Class Array'
PUBLIC	?Clone@ioTargetTeleportSkill@@UAEPAVioSkill@@XZ	; ioTargetTeleportSkill::Clone
PUBLIC	?GetDefenseSkillBreakeType@ioSkill@@UBE?AW4DefenseBreakType@@XZ ; ioSkill::GetDefenseSkillBreakeType
PUBLIC	?GetSkillEndNextJumpAmt@ioSkill@@UBEMXZ		; ioSkill::GetSkillEndNextJumpAmt
PUBLIC	?GetSkillEndNextLandRate@ioSkill@@UBEMXZ	; ioSkill::GetSkillEndNextLandRate
PUBLIC	?GetSkillEndNextJumpMustEnable@ioSkill@@UAE?AW4SkillEndJumpType@@XZ ; ioSkill::GetSkillEndNextJumpMustEnable
PUBLIC	?EnableChangeGrapplingTargetPos@ioSkill@@UBE_NXZ ; ioSkill::EnableChangeGrapplingTargetPos
PUBLIC	?OnSkillStart@ioTargetTeleportSkill@@UAE_NPAVioBaseChar@@@Z ; ioTargetTeleportSkill::OnSkillStart
PUBLIC	?IsInvisibleBottomCircle@ioSkill@@UAE_NPAVioBaseChar@@@Z ; ioSkill::IsInvisibleBottomCircle
PUBLIC	?IsCanJumpingSkill@ioSkill@@UBE_NXZ		; ioSkill::IsCanJumpingSkill
PUBLIC	?IsCanJumpingSkillOnBlowWound@ioSkill@@UBE_NXZ	; ioSkill::IsCanJumpingSkillOnBlowWound
PUBLIC	?IsCanDownSkill@ioSkill@@UBE_NXZ		; ioSkill::IsCanDownSkill
PUBLIC	?IsCanBlowWoundSkill@ioSkill@@UBE_NXZ		; ioSkill::IsCanBlowWoundSkill
PUBLIC	?IsCanWoundSkill@ioSkill@@UBE_NXZ		; ioSkill::IsCanWoundSkill
PUBLIC	?IsUseActiveCnt@ioSkill@@UBE_NXZ		; ioSkill::IsUseActiveCnt
PUBLIC	?GetMaxActiveCnt@ioSkill@@UBEHPAVioBaseChar@@@Z	; ioSkill::GetMaxActiveCnt
PUBLIC	?GetCurActiveCnt@ioSkill@@UBEHPAVioBaseChar@@@Z	; ioSkill::GetCurActiveCnt
EXTRN	??1ioNormalSkill@@UAE@XZ:PROC			; ioNormalSkill::~ioNormalSkill
EXTRN	??0ioNormalSkill@@QAE@XZ:PROC			; ioNormalSkill::ioNormalSkill
EXTRN	?GetTypeID@ioNormalSkill@@UBEHXZ:PROC		; ioNormalSkill::GetTypeID
EXTRN	?IsCanSwitchSkill@ioSkill@@UBE_NXZ:PROC		; ioSkill::IsCanSwitchSkill
EXTRN	?IsCanSemiSwitchSkill@ioSkill@@UBE_NXZ:PROC	; ioSkill::IsCanSemiSwitchSkill
EXTRN	?IsCanCancelBySkill@ioSkill@@UBE_NPAVioBaseChar@@AAH@Z:PROC ; ioSkill::IsCanCancelBySkill
EXTRN	?IsCanUseZeroHP@ioSkill@@UBE_NPAVioBaseChar@@@Z:PROC ; ioSkill::IsCanUseZeroHP
EXTRN	?IsCanUseSkillWithCrown@ioSkill@@UAE_NPAVioBaseChar@@@Z:PROC ; ioSkill::IsCanUseSkillWithCrown
EXTRN	?IsCanUseBoss@ioSkill@@UBE_NPAVioBaseChar@@@Z:PROC ; ioSkill::IsCanUseBoss
EXTRN	?IsCanUseFootball@ioSkill@@UBE_NXZ:PROC		; ioSkill::IsCanUseFootball
EXTRN	?IsCanUseGangSiMode@ioSkill@@UBE_NXZ:PROC	; ioSkill::IsCanUseGangSiMode
EXTRN	?IsCanUseByWeaponType@ioSkill@@UBE_NPAVioBaseChar@@@Z:PROC ; ioSkill::IsCanUseByWeaponType
EXTRN	?IsCanUseThunderBirdHold@ioSkill@@UBE_NPAVioBaseChar@@@Z:PROC ; ioSkill::IsCanUseThunderBirdHold
EXTRN	?IsCanUseLimitHP@ioSkill@@UBE_NPAVioBaseChar@@@Z:PROC ; ioSkill::IsCanUseLimitHP
EXTRN	?IsCanUseSkill@ioNormalSkill@@UAE_NPAVioBaseChar@@_N@Z:PROC ; ioNormalSkill::IsCanUseSkill
EXTRN	?IsOnOffEnable@ioSkill@@UAE_NXZ:PROC		; ioSkill::IsOnOffEnable
EXTRN	?IsCanDefenseStateSkill@ioSkill@@UAE_NXZ:PROC	; ioSkill::IsCanDefenseStateSkill
EXTRN	?SetDefenseStateSkill@ioSkill@@UAEXPAVioBaseChar@@@Z:PROC ; ioSkill::SetDefenseStateSkill
EXTRN	?HasBuff@ioSkill@@UBE_NH@Z:PROC			; ioSkill::HasBuff
EXTRN	?GetBuffType@ioSkill@@UAEHH@Z:PROC		; ioSkill::GetBuffType
EXTRN	?IsEnableReserve@ioSkill@@UBE_NXZ:PROC		; ioSkill::IsEnableReserve
EXTRN	?IsCharSkipState@ioSkill@@UBE?AW4SkillCharColType@@XZ:PROC ; ioSkill::IsCharSkipState
EXTRN	?IsEntityCollisionSkipState@ioSkill@@UBE_NXZ:PROC ; ioSkill::IsEntityCollisionSkipState
EXTRN	?IsEndState@ioSkill@@UBE_NXZ:PROC		; ioSkill::IsEndState
EXTRN	?IsJumpState@ioSkill@@UBE_NXZ:PROC		; ioSkill::IsJumpState
EXTRN	?IsDownState@ioSkill@@UBE_NXZ:PROC		; ioSkill::IsDownState
EXTRN	?IsNoDropState@ioSkill@@UBE_NXZ:PROC		; ioSkill::IsNoDropState
EXTRN	?IsCanSendControl@ioSkill@@UBE_NXZ:PROC		; ioSkill::IsCanSendControl
EXTRN	?IsSkipState@ioSkill@@UBE_NXZ:PROC		; ioSkill::IsSkipState
EXTRN	?GetSkillMoveRate@ioSkill@@UBEMXZ:PROC		; ioSkill::GetSkillMoveRate
EXTRN	?SetSkillGrapplingState@ioSkill@@UAE_NPAVioBaseChar@@ABVioHashString@@@Z:PROC ; ioSkill::SetSkillGrapplingState
EXTRN	?GetGrapplingTargetPos@ioSkill@@UAE?AUD3DXVECTOR3@@PAVioBaseChar@@0@Z:PROC ; ioSkill::GetGrapplingTargetPos
EXTRN	?GetGrapplingTargetPos@ioSkill@@UAE?AUD3DXVECTOR3@@PAVioBaseChar@@@Z:PROC ; ioSkill::GetGrapplingTargetPos
EXTRN	?GetSkillWoundGrapplingInfo@ioSkill@@UAE?AUGrapplingSkillWoundedInfo@@XZ:PROC ; ioSkill::GetSkillWoundGrapplingInfo
EXTRN	?SetCreateWeaponDependency@ioSkill@@UAEXPAVioBaseChar@@PAVioPlayStage@@@Z:PROC ; ioSkill::SetCreateWeaponDependency
EXTRN	?SetNextSkillState@ioSkill@@UAEXPAVioBaseChar@@PAVioWeapon@@@Z:PROC ; ioSkill::SetNextSkillState
EXTRN	?OnSkillEndByWounded@ioSkill@@UAEXPAVioBaseChar@@@Z:PROC ; ioSkill::OnSkillEndByWounded
EXTRN	?OnProcessNotUseSkill@ioSkill@@UAEXPAVioBaseChar@@PAVioPlayStage@@@Z:PROC ; ioSkill::OnProcessNotUseSkill
EXTRN	?OnSkillItemRelease@ioSkill@@UAEXPAVioBaseChar@@@Z:PROC ; ioSkill::OnSkillItemRelease
EXTRN	?ApplyAttributeToWeapon@ioSkill@@UAEXPAVioWeapon@@PAVioPlayStage@@@Z:PROC ; ioSkill::ApplyAttributeToWeapon
EXTRN	?ApplyEquipSlotSkillExtraInfo@ioSkill@@UAEXPAVioBaseChar@@PAVioPlayStage@@AAVSP2Packet@@@Z:PROC ; ioSkill::ApplyEquipSlotSkillExtraInfo
EXTRN	?ApplyExtraPassiveSkillInfo@ioSkill@@UAEXPAVioBaseChar@@PAVioPlayStage@@AAVSP2Packet@@@Z:PROC ; ioSkill::ApplyExtraPassiveSkillInfo
EXTRN	?StartPreDelayEffect@ioNormalSkill@@UAEXPAVioBaseChar@@@Z:PROC ; ioNormalSkill::StartPreDelayEffect
EXTRN	?EndPreDelayEffect@ioNormalSkill@@UAEXPAVioBaseChar@@@Z:PROC ; ioNormalSkill::EndPreDelayEffect
EXTRN	?IsUseAutoTargetValue@ioSkill@@UAE_NXZ:PROC	; ioSkill::IsUseAutoTargetValue
EXTRN	?IsAutoTargetDownState@ioSkill@@UAE_NXZ:PROC	; ioSkill::IsAutoTargetDownState
EXTRN	?CheckUseBuff@ioSkill@@UAE_NPAVioBaseChar@@@Z:PROC ; ioSkill::CheckUseBuff
EXTRN	?CheckUseItemMesh@ioSkill@@UAE_NXZ:PROC		; ioSkill::CheckUseItemMesh
EXTRN	?CheckUseActiveCount@ioSkill@@UAE_NXZ:PROC	; ioSkill::CheckUseActiveCount
EXTRN	?CheckAniRotate@ioSkill@@UAEXPAVioBaseChar@@@Z:PROC ; ioSkill::CheckAniRotate
EXTRN	?IsEnableDashCheck@ioSkill@@UAE_NPAVioBaseChar@@@Z:PROC ; ioSkill::IsEnableDashCheck
EXTRN	?IsEnableMultiActive@ioSkill@@UAE_NPAVioBaseChar@@@Z:PROC ; ioSkill::IsEnableMultiActive
EXTRN	?GetAutoTargetValue@ioSkill@@UAEXAAM00@Z:PROC	; ioSkill::GetAutoTargetValue
EXTRN	?GetSkillGravityRate@ioSkill@@UAEMXZ:PROC	; ioSkill::GetSkillGravityRate
EXTRN	?GetSkillMotionName@ioSkill@@UBEABVioHashString@@XZ:PROC ; ioSkill::GetSkillMotionName
EXTRN	?HasSkillMotion@ioSkill@@UBE_NXZ:PROC		; ioSkill::HasSkillMotion
EXTRN	?GetSkillMotionRate@ioSkill@@UBEMXZ:PROC	; ioSkill::GetSkillMotionRate
EXTRN	?IsPreDelayProtect@ioSkill@@UBE_NXZ:PROC	; ioSkill::IsPreDelayProtect
EXTRN	?GetPreDelayAniName@ioSkill@@UBEABVioHashString@@XZ:PROC ; ioSkill::GetPreDelayAniName
EXTRN	?GetPreDelayTime@ioSkill@@UBEKXZ:PROC		; ioSkill::GetPreDelayTime
EXTRN	?GetPreDelayOwnerEffect@ioSkill@@UBEABVioHashString@@XZ:PROC ; ioSkill::GetPreDelayOwnerEffect
EXTRN	?GetPreDelayOtherEffect@ioSkill@@UBEABVioHashString@@XZ:PROC ; ioSkill::GetPreDelayOtherEffect
EXTRN	?SetCancelSkill@ioSkill@@UAEXPAVioBaseChar@@@Z:PROC ; ioSkill::SetCancelSkill
EXTRN	?ClearAirJump@ioSkill@@MAEXXZ:PROC		; ioSkill::ClearAirJump
EXTRN	?SetAirJump@ioSkill@@MAEXPAVioBaseChar@@HM@Z:PROC ; ioSkill::SetAirJump
EXTRN	?CheckAirJump@ioSkill@@MAEXPAVioBaseChar@@@Z:PROC ; ioSkill::CheckAirJump
EXTRN	?UseActiveCount@ioSkill@@UAE_NPAVioBaseChar@@@Z:PROC ; ioSkill::UseActiveCount
EXTRN	?GetMaxActiveCount@ioSkill@@UAEHPAVioBaseChar@@@Z:PROC ; ioSkill::GetMaxActiveCount
EXTRN	?GetCurActiveCount@ioSkill@@UAEHPAVioBaseChar@@@Z:PROC ; ioSkill::GetCurActiveCount
EXTRN	?HideHPGauge@ioSkill@@UAE_NXZ:PROC		; ioSkill::HideHPGauge
EXTRN	?SetInfoByApplyWeapon@ioSkill@@UAEXPAVioBaseChar@@0K_N@Z:PROC ; ioSkill::SetInfoByApplyWeapon
EXTRN	?SetCollisionByApplySkill@ioSkill@@UAEXXZ:PROC	; ioSkill::SetCollisionByApplySkill
EXTRN	?SetChargingRateForWeapon@ioSkill@@UAEXPAVioWeapon@@@Z:PROC ; ioSkill::SetChargingRateForWeapon
EXTRN	?CheckExceptionCamera@ioSkill@@UAE_NXZ:PROC	; ioSkill::CheckExceptionCamera
EXTRN	?GetExceptionCameraPos@ioSkill@@UAE?AUD3DXVECTOR3@@PAVioBaseChar@@@Z:PROC ; ioSkill::GetExceptionCameraPos
EXTRN	?IsFixedExceptionCamera@ioSkill@@UAE_NXZ:PROC	; ioSkill::IsFixedExceptionCamera
EXTRN	??_EioTargetTeleportSkill@@UAEPAXI@Z:PROC	; ioTargetTeleportSkill::`vector deleting destructor'
;	COMDAT ??_R2ioSkill@@8
; File d:\lost saga for developer\youtube\tutorial\source\src\lsclient\encryptvalue.h
rdata$r	SEGMENT
??_R2ioSkill@@8 DD FLAT:??_R1A@?0A@EA@ioSkill@@8	; ioSkill::`RTTI Base Class Array'
rdata$r	ENDS
;	COMDAT ??_R3ioSkill@@8
rdata$r	SEGMENT
??_R3ioSkill@@8 DD 00H					; ioSkill::`RTTI Class Hierarchy Descriptor'
	DD	00H
	DD	01H
	DD	FLAT:??_R2ioSkill@@8
rdata$r	ENDS
;	COMDAT ??_R0?AVioSkill@@@8
_DATA	SEGMENT
??_R0?AVioSkill@@@8 DD FLAT:??_7type_info@@6B@		; ioSkill `RTTI Type Descriptor'
	DD	00H
	DB	'.?AVioSkill@@', 00H
_DATA	ENDS
;	COMDAT ??_R1A@?0A@EA@ioSkill@@8
rdata$r	SEGMENT
??_R1A@?0A@EA@ioSkill@@8 DD FLAT:??_R0?AVioSkill@@@8	; ioSkill::`RTTI Base Class Descriptor at (0,-1,0,64)'
	DD	00H
	DD	00H
	DD	0ffffffffH
	DD	00H
	DD	040H
	DD	FLAT:??_R3ioSkill@@8
rdata$r	ENDS
;	COMDAT ??_R2ioNormalSkill@@8
rdata$r	SEGMENT
??_R2ioNormalSkill@@8 DD FLAT:??_R1A@?0A@EA@ioNormalSkill@@8 ; ioNormalSkill::`RTTI Base Class Array'
	DD	FLAT:??_R1A@?0A@EA@ioSkill@@8
rdata$r	ENDS
;	COMDAT ??_R3ioNormalSkill@@8
rdata$r	SEGMENT
??_R3ioNormalSkill@@8 DD 00H				; ioNormalSkill::`RTTI Class Hierarchy Descriptor'
	DD	00H
	DD	02H
	DD	FLAT:??_R2ioNormalSkill@@8
rdata$r	ENDS
;	COMDAT ??_R0?AVioNormalSkill@@@8
_DATA	SEGMENT
??_R0?AVioNormalSkill@@@8 DD FLAT:??_7type_info@@6B@	; ioNormalSkill `RTTI Type Descriptor'
	DD	00H
	DB	'.?AVioNormalSkill@@', 00H
_DATA	ENDS
;	COMDAT ??_R1A@?0A@EA@ioNormalSkill@@8
rdata$r	SEGMENT
??_R1A@?0A@EA@ioNormalSkill@@8 DD FLAT:??_R0?AVioNormalSkill@@@8 ; ioNormalSkill::`RTTI Base Class Descriptor at (0,-1,0,64)'
	DD	01H
	DD	00H
	DD	0ffffffffH
	DD	00H
	DD	040H
	DD	FLAT:??_R3ioNormalSkill@@8
rdata$r	ENDS
;	COMDAT ??_R1A@?0A@EA@ioTargetTeleportSkill@@8
rdata$r	SEGMENT
??_R1A@?0A@EA@ioTargetTeleportSkill@@8 DD FLAT:??_R0?AVioTargetTeleportSkill@@@8 ; ioTargetTeleportSkill::`RTTI Base Class Descriptor at (0,-1,0,64)'
	DD	02H
	DD	00H
	DD	0ffffffffH
	DD	00H
	DD	040H
	DD	FLAT:??_R3ioTargetTeleportSkill@@8
rdata$r	ENDS
;	COMDAT ??_R2ioTargetTeleportSkill@@8
rdata$r	SEGMENT
??_R2ioTargetTeleportSkill@@8 DD FLAT:??_R1A@?0A@EA@ioTargetTeleportSkill@@8 ; ioTargetTeleportSkill::`RTTI Base Class Array'
	DD	FLAT:??_R1A@?0A@EA@ioNormalSkill@@8
	DD	FLAT:??_R1A@?0A@EA@ioSkill@@8
rdata$r	ENDS
;	COMDAT ??_R3ioTargetTeleportSkill@@8
rdata$r	SEGMENT
??_R3ioTargetTeleportSkill@@8 DD 00H			; ioTargetTeleportSkill::`RTTI Class Hierarchy Descriptor'
	DD	00H
	DD	03H
	DD	FLAT:??_R2ioTargetTeleportSkill@@8
rdata$r	ENDS
;	COMDAT ??_R0?AVioTargetTeleportSkill@@@8
_DATA	SEGMENT
??_R0?AVioTargetTeleportSkill@@@8 DD FLAT:??_7type_info@@6B@ ; ioTargetTeleportSkill `RTTI Type Descriptor'
	DD	00H
	DB	'.?AVioTargetTeleportSkill@@', 00H
_DATA	ENDS
;	COMDAT ??_R4ioTargetTeleportSkill@@6B@
rdata$r	SEGMENT
??_R4ioTargetTeleportSkill@@6B@ DD 00H			; ioTargetTeleportSkill::`RTTI Complete Object Locator'
	DD	00H
	DD	00H
	DD	FLAT:??_R0?AVioTargetTeleportSkill@@@8
	DD	FLAT:??_R3ioTargetTeleportSkill@@8
rdata$r	ENDS
;	COMDAT ??_7ioTargetTeleportSkill@@6B@
CONST	SEGMENT
??_7ioTargetTeleportSkill@@6B@ DD FLAT:??_R4ioTargetTeleportSkill@@6B@ ; ioTargetTeleportSkill::`vftable'
	DD	FLAT:?LoadProperty@ioTargetTeleportSkill@@UAEXAAVioINILoader@@@Z
	DD	FLAT:?Clone@ioTargetTeleportSkill@@UAEPAVioSkill@@XZ
	DD	FLAT:?GetTypeID@ioNormalSkill@@UBEHXZ
	DD	FLAT:?IsProtected@ioTargetTeleportSkill@@UBE_NH@Z
	DD	FLAT:?IsCanSwitchSkill@ioSkill@@UBE_NXZ
	DD	FLAT:?IsCanSemiSwitchSkill@ioSkill@@UBE_NXZ
	DD	FLAT:?IsCanCancelBySkill@ioSkill@@UBE_NPAVioBaseChar@@AAH@Z
	DD	FLAT:?IsCanUseZeroHP@ioSkill@@UBE_NPAVioBaseChar@@@Z
	DD	FLAT:?IsCanUseSkillWithCrown@ioSkill@@UAE_NPAVioBaseChar@@@Z
	DD	FLAT:?IsCanUseBoss@ioSkill@@UBE_NPAVioBaseChar@@@Z
	DD	FLAT:?IsCanUseFootball@ioSkill@@UBE_NXZ
	DD	FLAT:?IsCanUseGangSiMode@ioSkill@@UBE_NXZ
	DD	FLAT:?IsCanUseByWeaponType@ioSkill@@UBE_NPAVioBaseChar@@@Z
	DD	FLAT:?IsCanUseThunderBirdHold@ioSkill@@UBE_NPAVioBaseChar@@@Z
	DD	FLAT:?IsCanUseLimitHP@ioSkill@@UBE_NPAVioBaseChar@@@Z
	DD	FLAT:?IsCanUseSkill@ioNormalSkill@@UAE_NPAVioBaseChar@@_N@Z
	DD	FLAT:?IsOnOffEnable@ioSkill@@UAE_NXZ
	DD	FLAT:?IsCanDefenseStateSkill@ioSkill@@UAE_NXZ
	DD	FLAT:?SetDefenseStateSkill@ioSkill@@UAEXPAVioBaseChar@@@Z
	DD	FLAT:?GetDefenseSkillBreakeType@ioSkill@@UBE?AW4DefenseBreakType@@XZ
	DD	FLAT:?HasBuff@ioSkill@@UBE_NH@Z
	DD	FLAT:?GetBuffType@ioSkill@@UAEHH@Z
	DD	FLAT:?IsEnableReserve@ioSkill@@UBE_NXZ
	DD	FLAT:?IsSkillMotionEnd@ioTargetTeleportSkill@@UBE_NKPAVioBaseChar@@@Z
	DD	FLAT:?IsCharSkipState@ioSkill@@UBE?AW4SkillCharColType@@XZ
	DD	FLAT:?IsEntityCollisionSkipState@ioSkill@@UBE_NXZ
	DD	FLAT:?GetSkillEndNextJumpAmt@ioSkill@@UBEMXZ
	DD	FLAT:?GetSkillEndNextLandRate@ioSkill@@UBEMXZ
	DD	FLAT:?GetSkillEndNextJumpMustEnable@ioSkill@@UAE?AW4SkillEndJumpType@@XZ
	DD	FLAT:?IsEndState@ioSkill@@UBE_NXZ
	DD	FLAT:?IsAttackEndState@ioTargetTeleportSkill@@UBE_NXZ
	DD	FLAT:?IsJumpState@ioSkill@@UBE_NXZ
	DD	FLAT:?IsDownState@ioSkill@@UBE_NXZ
	DD	FLAT:?IsNoDropState@ioSkill@@UBE_NXZ
	DD	FLAT:?IsCanSendControl@ioSkill@@UBE_NXZ
	DD	FLAT:?IsSkipState@ioSkill@@UBE_NXZ
	DD	FLAT:?GetSkillMoveRate@ioSkill@@UBEMXZ
	DD	FLAT:?SetSkillGrapplingState@ioSkill@@UAE_NPAVioBaseChar@@ABVioHashString@@@Z
	DD	FLAT:?GetGrapplingTargetPos@ioSkill@@UAE?AUD3DXVECTOR3@@PAVioBaseChar@@0@Z
	DD	FLAT:?GetGrapplingTargetPos@ioSkill@@UAE?AUD3DXVECTOR3@@PAVioBaseChar@@@Z
	DD	FLAT:?EnableChangeGrapplingTargetPos@ioSkill@@UBE_NXZ
	DD	FLAT:?GetSkillWoundGrapplingInfo@ioSkill@@UAE?AUGrapplingSkillWoundedInfo@@XZ
	DD	FLAT:?SetCreateWeaponDependency@ioSkill@@UAEXPAVioBaseChar@@PAVioPlayStage@@@Z
	DD	FLAT:?SetNextSkillState@ioSkill@@UAEXPAVioBaseChar@@PAVioWeapon@@@Z
	DD	FLAT:?OnSkillStart@ioTargetTeleportSkill@@UAE_NPAVioBaseChar@@@Z
	DD	FLAT:?OnProcessState@ioTargetTeleportSkill@@UAEXPAVioBaseChar@@PAVioPlayStage@@@Z
	DD	FLAT:?OnSkillEndByWounded@ioSkill@@UAEXPAVioBaseChar@@@Z
	DD	FLAT:?OnSkillEnd@ioTargetTeleportSkill@@UAEXPAVioBaseChar@@@Z
	DD	FLAT:?OnProcessNotUseSkill@ioSkill@@UAEXPAVioBaseChar@@PAVioPlayStage@@@Z
	DD	FLAT:?OnSkillItemRelease@ioSkill@@UAEXPAVioBaseChar@@@Z
	DD	FLAT:?ApplyAttributeToWeapon@ioSkill@@UAEXPAVioWeapon@@PAVioPlayStage@@@Z
	DD	FLAT:?ApplyExtraSkillInfo@ioTargetTeleportSkill@@UAEXPAVioBaseChar@@PAVioPlayStage@@AAVSP2Packet@@@Z
	DD	FLAT:?ApplyEquipSlotSkillExtraInfo@ioSkill@@UAEXPAVioBaseChar@@PAVioPlayStage@@AAVSP2Packet@@@Z
	DD	FLAT:?ApplyExtraPassiveSkillInfo@ioSkill@@UAEXPAVioBaseChar@@PAVioPlayStage@@AAVSP2Packet@@@Z
	DD	FLAT:?StartPreDelayEffect@ioNormalSkill@@UAEXPAVioBaseChar@@@Z
	DD	FLAT:?EndPreDelayEffect@ioNormalSkill@@UAEXPAVioBaseChar@@@Z
	DD	FLAT:?IsUseAutoTargetValue@ioSkill@@UAE_NXZ
	DD	FLAT:?IsAutoTargetDownState@ioSkill@@UAE_NXZ
	DD	FLAT:?CheckUseBuff@ioSkill@@UAE_NPAVioBaseChar@@@Z
	DD	FLAT:?CheckUseItemMesh@ioSkill@@UAE_NXZ
	DD	FLAT:?CheckUseActiveCount@ioSkill@@UAE_NXZ
	DD	FLAT:?CheckAniRotate@ioSkill@@UAEXPAVioBaseChar@@@Z
	DD	FLAT:?IsEnableDashCheck@ioSkill@@UAE_NPAVioBaseChar@@@Z
	DD	FLAT:?IsEnableMultiActive@ioSkill@@UAE_NPAVioBaseChar@@@Z
	DD	FLAT:?IsInvisibleBottomCircle@ioSkill@@UAE_NPAVioBaseChar@@@Z
	DD	FLAT:?GetAutoTargetValue@ioSkill@@UAEXAAM00@Z
	DD	FLAT:?IsCanJumpingSkill@ioSkill@@UBE_NXZ
	DD	FLAT:?IsCanJumpingSkillOnBlowWound@ioSkill@@UBE_NXZ
	DD	FLAT:?IsCanDownSkill@ioSkill@@UBE_NXZ
	DD	FLAT:?IsCanBlowWoundSkill@ioSkill@@UBE_NXZ
	DD	FLAT:?IsCanWoundSkill@ioSkill@@UBE_NXZ
	DD	FLAT:?GetSkillGravityRate@ioSkill@@UAEMXZ
	DD	FLAT:?GetSkillMotionName@ioSkill@@UBEABVioHashString@@XZ
	DD	FLAT:?HasSkillMotion@ioSkill@@UBE_NXZ
	DD	FLAT:?GetSkillMotionRate@ioSkill@@UBEMXZ
	DD	FLAT:?IsPreDelayProtect@ioSkill@@UBE_NXZ
	DD	FLAT:?GetPreDelayAniName@ioSkill@@UBEABVioHashString@@XZ
	DD	FLAT:?GetPreDelayTime@ioSkill@@UBEKXZ
	DD	FLAT:?GetPreDelayOwnerEffect@ioSkill@@UBEABVioHashString@@XZ
	DD	FLAT:?GetPreDelayOtherEffect@ioSkill@@UBEABVioHashString@@XZ
	DD	FLAT:?SetCancelSkill@ioSkill@@UAEXPAVioBaseChar@@@Z
	DD	FLAT:?ClearAirJump@ioSkill@@MAEXXZ
	DD	FLAT:?SetAirJump@ioSkill@@MAEXPAVioBaseChar@@HM@Z
	DD	FLAT:?CheckAirJump@ioSkill@@MAEXPAVioBaseChar@@@Z
	DD	FLAT:?UseActiveCount@ioSkill@@UAE_NPAVioBaseChar@@@Z
	DD	FLAT:?GetMaxActiveCount@ioSkill@@UAEHPAVioBaseChar@@@Z
	DD	FLAT:?GetCurActiveCount@ioSkill@@UAEHPAVioBaseChar@@@Z
	DD	FLAT:?HideHPGauge@ioSkill@@UAE_NXZ
	DD	FLAT:?SetInfoByApplyWeapon@ioSkill@@UAEXPAVioBaseChar@@0K_N@Z
	DD	FLAT:?SetCollisionByApplySkill@ioSkill@@UAEXXZ
	DD	FLAT:?SetChargingRateForWeapon@ioSkill@@UAEXPAVioWeapon@@@Z
	DD	FLAT:?CheckExceptionCamera@ioSkill@@UAE_NXZ
	DD	FLAT:?GetExceptionCameraPos@ioSkill@@UAE?AUD3DXVECTOR3@@PAVioBaseChar@@@Z
	DD	FLAT:?IsFixedExceptionCamera@ioSkill@@UAE_NXZ
	DD	FLAT:?IsUseActiveCnt@ioSkill@@UBE_NXZ
	DD	FLAT:?GetMaxActiveCnt@ioSkill@@UBEHPAVioBaseChar@@@Z
	DD	FLAT:?GetCurActiveCnt@ioSkill@@UBEHPAVioBaseChar@@@Z
	DD	FLAT:??_EioTargetTeleportSkill@@UAEPAXI@Z
	DD	FLAT:?StartPreDelayAnimation@ioTargetTeleportSkill@@MAE_NPAVioBaseChar@@@Z
	DD	FLAT:?SetNormalSkill@ioTargetTeleportSkill@@MAEXPAVioBaseChar@@@Z
CONST	ENDS
;	COMDAT xdata$x
xdata$x	SEGMENT
__ehfuncinfo$??0ioTargetTeleportSkill@@QAE@XZ DD 019930522H
	DD	0aH
	DD	FLAT:__unwindtable$??0ioTargetTeleportSkill@@QAE@XZ
	DD	2 DUP(00H)
	DD	2 DUP(00H)
	DD	00H
	DD	01H
__unwindtable$??0ioTargetTeleportSkill@@QAE@XZ DD 0ffffffffH
	DD	FLAT:__unwindfunclet$??0ioTargetTeleportSkill@@QAE@XZ$0
	DD	00H
	DD	FLAT:__unwindfunclet$??0ioTargetTeleportSkill@@QAE@XZ$1
	DD	01H
	DD	FLAT:__unwindfunclet$??0ioTargetTeleportSkill@@QAE@XZ$2
	DD	02H
	DD	FLAT:__unwindfunclet$??0ioTargetTeleportSkill@@QAE@XZ$3
	DD	03H
	DD	FLAT:__unwindfunclet$??0ioTargetTeleportSkill@@QAE@XZ$4
	DD	04H
	DD	FLAT:__unwindfunclet$??0ioTargetTeleportSkill@@QAE@XZ$5
	DD	05H
	DD	FLAT:__unwindfunclet$??0ioTargetTeleportSkill@@QAE@XZ$6
	DD	06H
	DD	FLAT:__unwindfunclet$??0ioTargetTeleportSkill@@QAE@XZ$7
	DD	07H
	DD	FLAT:__unwindfunclet$??0ioTargetTeleportSkill@@QAE@XZ$8
	DD	08H
	DD	FLAT:__unwindfunclet$??0ioTargetTeleportSkill@@QAE@XZ$9
; Function compile flags: /Ogsp
; File d:\lost saga for developer\youtube\tutorial\source\src\lsclient\iotargetteleportskill.cpp
xdata$x	ENDS
;	COMDAT ??0ioTargetTeleportSkill@@QAE@XZ
_TEXT	SEGMENT
_this$ = -20						; size = 4
_value$538922 = -16					; size = 4
$T538901 = -16						; size = 4
_value$538838 = -16					; size = 4
__$EHRec$ = -12						; size = 12
??0ioTargetTeleportSkill@@QAE@XZ PROC			; ioTargetTeleportSkill::ioTargetTeleportSkill, COMDAT
; _this$ = ecx

; 12   : {

  00000	6a 08		 push	 8
  00002	b8 00 00 00 00	 mov	 eax, __ehhandler$??0ioTargetTeleportSkill@@QAE@XZ
  00007	e8 00 00 00 00	 call	 __EH_prolog3
  0000c	8b d9		 mov	 ebx, ecx
  0000e	89 5d ec	 mov	 DWORD PTR _this$[ebp], ebx
  00011	e8 00 00 00 00	 call	 ??0ioNormalSkill@@QAE@XZ ; ioNormalSkill::ioNormalSkill
  00016	33 ff		 xor	 edi, edi
  00018	8d 8b 5c 0f 00
	00		 lea	 ecx, DWORD PTR [ebx+3932]
  0001e	89 7d fc	 mov	 DWORD PTR __$EHRec$[ebp+8], edi
  00021	c7 03 00 00 00
	00		 mov	 DWORD PTR [ebx], OFFSET ??_7ioTargetTeleportSkill@@6B@
  00027	e8 00 00 00 00	 call	 ??0?$CEncrypt@K@@QAE@XZ	; CEncrypt<unsigned long>::CEncrypt<unsigned long>
  0002c	8d 8b 8c 0f 00
	00		 lea	 ecx, DWORD PTR [ebx+3980]
  00032	c6 45 fc 01	 mov	 BYTE PTR __$EHRec$[ebp+8], 1
  00036	e8 00 00 00 00	 call	 ??0?$CEncrypt@K@@QAE@XZ	; CEncrypt<unsigned long>::CEncrypt<unsigned long>
  0003b	8b 35 00 00 00
	00		 mov	 esi, DWORD PTR __imp_??0ioHashString@@QAE@XZ
  00041	8d 8b c0 0f 00
	00		 lea	 ecx, DWORD PTR [ebx+4032]
  00047	c6 45 fc 02	 mov	 BYTE PTR __$EHRec$[ebp+8], 2
  0004b	ff d6		 call	 esi
  0004d	8d 8b ec 0f 00
	00		 lea	 ecx, DWORD PTR [ebx+4076]
  00053	c6 45 fc 03	 mov	 BYTE PTR __$EHRec$[ebp+8], 3
  00057	ff d6		 call	 esi
  00059	89 bb fc 0f 00
	00		 mov	 DWORD PTR [ebx+4092], edi
  0005f	89 bb 00 10 00
	00		 mov	 DWORD PTR [ebx+4096], edi
  00065	89 bb 04 10 00
	00		 mov	 DWORD PTR [ebx+4100], edi
  0006b	8d 8b 0c 10 00
	00		 lea	 ecx, DWORD PTR [ebx+4108]
  00071	c6 45 fc 05	 mov	 BYTE PTR __$EHRec$[ebp+8], 5
  00075	e8 00 00 00 00	 call	 ??0?$CEncrypt@H@@QAE@XZ	; CEncrypt<int>::CEncrypt<int>
  0007a	8d 8b 3c 10 00
	00		 lea	 ecx, DWORD PTR [ebx+4156]
  00080	c6 45 fc 06	 mov	 BYTE PTR __$EHRec$[ebp+8], 6
  00084	e8 00 00 00 00	 call	 ??0?$CEncrypt@M@@QAE@XZ	; CEncrypt<float>::CEncrypt<float>
  00089	8d 8b 6c 10 00
	00		 lea	 ecx, DWORD PTR [ebx+4204]
  0008f	c6 45 fc 07	 mov	 BYTE PTR __$EHRec$[ebp+8], 7
  00093	ff d6		 call	 esi
  00095	8d 8b 7c 10 00
	00		 lea	 ecx, DWORD PTR [ebx+4220]
  0009b	c6 45 fc 08	 mov	 BYTE PTR __$EHRec$[ebp+8], 8
  0009f	ff d6		 call	 esi

; 13   : 	m_SkillState = SS_NONE;
; 14   : 
; 15   : 	m_dwWaitStartTime = 0;

  000a1	8d 45 f0	 lea	 eax, DWORD PTR _value$538838[ebp]
  000a4	50		 push	 eax
  000a5	8d 8b 5c 0f 00
	00		 lea	 ecx, DWORD PTR [ebx+3932]
  000ab	c6 45 fc 09	 mov	 BYTE PTR __$EHRec$[ebp+8], 9
  000af	89 bb 58 0f 00
	00		 mov	 DWORD PTR [ebx+3928], edi
  000b5	89 7d f0	 mov	 DWORD PTR _value$538838[ebp], edi
  000b8	e8 00 00 00 00	 call	 ?EncryptValueToPool@?$CEncrypt@K@@AAEXPBD@Z ; CEncrypt<unsigned long>::EncryptValueToPool

; 16   : 
; 17   : 	m_vBasePos = ioMath::VEC3_ZERO;

  000bd	8b 35 00 00 00
	00		 mov	 esi, DWORD PTR __imp_?VEC3_ZERO@ioMath@@2UD3DXVECTOR3@@A
  000c3	8d bb d4 0f 00
	00		 lea	 edi, DWORD PTR [ebx+4052]
  000c9	a5		 movsd
  000ca	a5		 movsd
  000cb	a5		 movsd

; 18   : 	m_vTargetPos = ioMath::VEC3_ZERO;

  000cc	8b 35 00 00 00
	00		 mov	 esi, DWORD PTR __imp_?VEC3_ZERO@ioMath@@2UD3DXVECTOR3@@A
  000d2	8d bb e0 0f 00
	00		 lea	 edi, DWORD PTR [ebx+4064]
  000d8	a5		 movsd
  000d9	a5		 movsd

; 19   : 
; 20   : 	m_CurTargetName.Clear();

  000da	8d 8b ec 0f 00
	00		 lea	 ecx, DWORD PTR [ebx+4076]
  000e0	a5		 movsd
  000e1	ff 15 00 00 00
	00		 call	 DWORD PTR __imp_?Clear@ioHashString@@QAEXXZ

; 21   : 	m_TargetCharList.clear();

  000e7	8d 8b fc 0f 00
	00		 lea	 ecx, DWORD PTR [ebx+4092]
  000ed	8b 41 04	 mov	 eax, DWORD PTR [ecx+4]
  000f0	8b 11		 mov	 edx, DWORD PTR [ecx]
  000f2	50		 push	 eax
  000f3	52		 push	 edx
  000f4	8d 45 f0	 lea	 eax, DWORD PTR $T538901[ebp]
  000f7	50		 push	 eax
  000f8	e8 00 00 00 00	 call	 ?erase@?$vector@VioHashString@@V?$allocator@VioHashString@@@std@@@std@@QAE?AV?$_Vector_iterator@V?$_Vector_val@VioHashString@@V?$allocator@VioHashString@@@std@@@std@@@2@V?$_Vector_const_iterator@V?$_Vector_val@VioHashString@@V?$allocator@VioHashString@@@std@@@std@@@2@0@Z ; std::vector<ioHashString,std::allocator<ioHashString> >::erase

; 22   : 	m_iCurTargetIndex = -1;

  000fd	83 4d f0 ff	 or	 DWORD PTR _value$538922[ebp], -1
  00101	8d 45 f0	 lea	 eax, DWORD PTR _value$538922[ebp]
  00104	50		 push	 eax
  00105	8d 8b 0c 10 00
	00		 lea	 ecx, DWORD PTR [ebx+4108]
  0010b	e8 00 00 00 00	 call	 ?EncryptValueToPool@?$CEncrypt@H@@AAEXPBD@Z ; CEncrypt<int>::EncryptValueToPool

; 23   : 
; 24   : 	m_dwAttackEndTime = 0;

  00110	83 a3 bc 0f 00
	00 00		 and	 DWORD PTR [ebx+4028], 0

; 25   : 	m_dwTargetMapEffect = 0;

  00117	83 a3 8c 10 00
	00 00		 and	 DWORD PTR [ebx+4236], 0

; 26   : }

  0011e	8b c3		 mov	 eax, ebx
  00120	e8 00 00 00 00	 call	 __EH_epilog3
  00125	c3		 ret	 0
_TEXT	ENDS
;	COMDAT text$x
text$x	SEGMENT
__unwindfunclet$??0ioTargetTeleportSkill@@QAE@XZ$0:
  00000	8b 4d ec	 mov	 ecx, DWORD PTR _this$[ebp]
  00003	e9 00 00 00 00	 jmp	 ??1ioNormalSkill@@UAE@XZ ; ioNormalSkill::~ioNormalSkill
__unwindfunclet$??0ioTargetTeleportSkill@@QAE@XZ$1:
  00008	8b 4d ec	 mov	 ecx, DWORD PTR _this$[ebp]
  0000b	81 c1 5c 0f 00
	00		 add	 ecx, 3932		; 00000f5cH
  00011	e9 00 00 00 00	 jmp	 ??1?$CEncrypt@K@@UAE@XZ	; CEncrypt<unsigned long>::~CEncrypt<unsigned long>
__unwindfunclet$??0ioTargetTeleportSkill@@QAE@XZ$2:
  00016	8b 4d ec	 mov	 ecx, DWORD PTR _this$[ebp]
  00019	81 c1 8c 0f 00
	00		 add	 ecx, 3980		; 00000f8cH
  0001f	e9 00 00 00 00	 jmp	 ??1?$CEncrypt@K@@UAE@XZ	; CEncrypt<unsigned long>::~CEncrypt<unsigned long>
__unwindfunclet$??0ioTargetTeleportSkill@@QAE@XZ$3:
  00024	8b 4d ec	 mov	 ecx, DWORD PTR _this$[ebp]
  00027	81 c1 c0 0f 00
	00		 add	 ecx, 4032		; 00000fc0H
  0002d	ff 25 00 00 00
	00		 jmp	 DWORD PTR __imp_??1ioHashString@@QAE@XZ
__unwindfunclet$??0ioTargetTeleportSkill@@QAE@XZ$4:
  00033	8b 4d ec	 mov	 ecx, DWORD PTR _this$[ebp]
  00036	81 c1 ec 0f 00
	00		 add	 ecx, 4076		; 00000fecH
  0003c	ff 25 00 00 00
	00		 jmp	 DWORD PTR __imp_??1ioHashString@@QAE@XZ
__unwindfunclet$??0ioTargetTeleportSkill@@QAE@XZ$5:
  00042	8b 4d ec	 mov	 ecx, DWORD PTR _this$[ebp]
  00045	81 c1 fc 0f 00
	00		 add	 ecx, 4092		; 00000ffcH
  0004b	e9 00 00 00 00	 jmp	 ??1?$vector@VioHashString@@V?$allocator@VioHashString@@@std@@@std@@QAE@XZ ; std::vector<ioHashString,std::allocator<ioHashString> >::~vector<ioHashString,std::allocator<ioHashString> >
__unwindfunclet$??0ioTargetTeleportSkill@@QAE@XZ$6:
  00050	8b 4d ec	 mov	 ecx, DWORD PTR _this$[ebp]
  00053	81 c1 0c 10 00
	00		 add	 ecx, 4108		; 0000100cH
  00059	e9 00 00 00 00	 jmp	 ??1?$CEncrypt@H@@UAE@XZ	; CEncrypt<int>::~CEncrypt<int>
__unwindfunclet$??0ioTargetTeleportSkill@@QAE@XZ$7:
  0005e	8b 4d ec	 mov	 ecx, DWORD PTR _this$[ebp]
  00061	81 c1 3c 10 00
	00		 add	 ecx, 4156		; 0000103cH
  00067	e9 00 00 00 00	 jmp	 ??1?$CEncrypt@M@@UAE@XZ	; CEncrypt<float>::~CEncrypt<float>
__unwindfunclet$??0ioTargetTeleportSkill@@QAE@XZ$8:
  0006c	8b 4d ec	 mov	 ecx, DWORD PTR _this$[ebp]
  0006f	81 c1 6c 10 00
	00		 add	 ecx, 4204		; 0000106cH
  00075	ff 25 00 00 00
	00		 jmp	 DWORD PTR __imp_??1ioHashString@@QAE@XZ
__unwindfunclet$??0ioTargetTeleportSkill@@QAE@XZ$9:
  0007b	8b 4d ec	 mov	 ecx, DWORD PTR _this$[ebp]
  0007e	81 c1 7c 10 00
	00		 add	 ecx, 4220		; 0000107cH
  00084	ff 25 00 00 00
	00		 jmp	 DWORD PTR __imp_??1ioHashString@@QAE@XZ
__ehhandler$??0ioTargetTeleportSkill@@QAE@XZ:
  0008a	8b 54 24 08	 mov	 edx, DWORD PTR [esp+8]
  0008e	8d 42 0c	 lea	 eax, DWORD PTR [edx+12]
  00091	8b 4a e8	 mov	 ecx, DWORD PTR [edx-24]
  00094	33 c8		 xor	 ecx, eax
  00096	e8 00 00 00 00	 call	 @__security_check_cookie@4
  0009b	b8 00 00 00 00	 mov	 eax, OFFSET __ehfuncinfo$??0ioTargetTeleportSkill@@QAE@XZ
  000a0	e9 00 00 00 00	 jmp	 ___CxxFrameHandler3
text$x	ENDS
??0ioTargetTeleportSkill@@QAE@XZ ENDP			; ioTargetTeleportSkill::ioTargetTeleportSkill
; Function compile flags: /Ogsp
; File d:\lost saga for developer\youtube\tutorial\source\src\lsclient\ioskill.h
;	COMDAT ?GetDefenseSkillBreakeType@ioSkill@@UBE?AW4DefenseBreakType@@XZ
_TEXT	SEGMENT
?GetDefenseSkillBreakeType@ioSkill@@UBE?AW4DefenseBreakType@@XZ PROC ; ioSkill::GetDefenseSkillBreakeType, COMDAT
; _this$ = ecx

; 327  : 	virtual DefenseBreakType GetDefenseSkillBreakeType() const { return m_eDefenseSkillBreakType; }

  00000	8b 81 30 0e 00
	00		 mov	 eax, DWORD PTR [ecx+3632]
  00006	c3		 ret	 0
?GetDefenseSkillBreakeType@ioSkill@@UBE?AW4DefenseBreakType@@XZ ENDP ; ioSkill::GetDefenseSkillBreakeType
; Function compile flags: /Ogsp
_TEXT	ENDS
;	COMDAT ?GetSkillEndNextJumpAmt@ioSkill@@UBEMXZ
_TEXT	SEGMENT
?GetSkillEndNextJumpAmt@ioSkill@@UBEMXZ PROC		; ioSkill::GetSkillEndNextJumpAmt, COMDAT
; _this$ = ecx

; 335  : 	virtual float GetSkillEndNextJumpAmt() const { return m_fSkillEndNextJumpAmt; }

  00000	d9 81 4c 05 00
	00		 fld	 DWORD PTR [ecx+1356]
  00006	c3		 ret	 0
?GetSkillEndNextJumpAmt@ioSkill@@UBEMXZ ENDP		; ioSkill::GetSkillEndNextJumpAmt
; Function compile flags: /Ogsp
_TEXT	ENDS
;	COMDAT ?GetSkillEndNextLandRate@ioSkill@@UBEMXZ
_TEXT	SEGMENT
?GetSkillEndNextLandRate@ioSkill@@UBEMXZ PROC		; ioSkill::GetSkillEndNextLandRate, COMDAT
; _this$ = ecx

; 336  : 	virtual float GetSkillEndNextLandRate() const { return m_fSkillEndNextLandRate; }

  00000	d9 81 50 05 00
	00		 fld	 DWORD PTR [ecx+1360]
  00006	c3		 ret	 0
?GetSkillEndNextLandRate@ioSkill@@UBEMXZ ENDP		; ioSkill::GetSkillEndNextLandRate
; Function compile flags: /Ogsp
_TEXT	ENDS
;	COMDAT ?GetSkillEndNextJumpMustEnable@ioSkill@@UAE?AW4SkillEndJumpType@@XZ
_TEXT	SEGMENT
?GetSkillEndNextJumpMustEnable@ioSkill@@UAE?AW4SkillEndJumpType@@XZ PROC ; ioSkill::GetSkillEndNextJumpMustEnable, COMDAT
; _this$ = ecx

; 337  : 	virtual SkillEndJumpType GetSkillEndNextJumpMustEnable(){ return SEJT_DEFAULT; }

  00000	33 c0		 xor	 eax, eax
  00002	c3		 ret	 0
?GetSkillEndNextJumpMustEnable@ioSkill@@UAE?AW4SkillEndJumpType@@XZ ENDP ; ioSkill::GetSkillEndNextJumpMustEnable
; Function compile flags: /Ogsp
_TEXT	ENDS
;	COMDAT ?EnableChangeGrapplingTargetPos@ioSkill@@UBE_NXZ
_TEXT	SEGMENT
?EnableChangeGrapplingTargetPos@ioSkill@@UBE_NXZ PROC	; ioSkill::EnableChangeGrapplingTargetPos, COMDAT
; _this$ = ecx

; 355  : 	virtual bool EnableChangeGrapplingTargetPos() const { return m_bChangeGrapplingTargetPos; }

  00000	8a 81 40 09 00
	00		 mov	 al, BYTE PTR [ecx+2368]
  00006	c3		 ret	 0
?EnableChangeGrapplingTargetPos@ioSkill@@UBE_NXZ ENDP	; ioSkill::EnableChangeGrapplingTargetPos
; Function compile flags: /Ogsp
_TEXT	ENDS
;	COMDAT ?IsInvisibleBottomCircle@ioSkill@@UAE_NPAVioBaseChar@@@Z
_TEXT	SEGMENT
_pChar$ = 8						; size = 4
?IsInvisibleBottomCircle@ioSkill@@UAE_NPAVioBaseChar@@@Z PROC ; ioSkill::IsInvisibleBottomCircle, COMDAT
; _this$ = ecx

; 393  : 	virtual bool IsInvisibleBottomCircle( ioBaseChar *pChar ) { return false; }

  00000	32 c0		 xor	 al, al
  00002	c2 04 00	 ret	 4
?IsInvisibleBottomCircle@ioSkill@@UAE_NPAVioBaseChar@@@Z ENDP ; ioSkill::IsInvisibleBottomCircle
; Function compile flags: /Ogsp
_TEXT	ENDS
;	COMDAT ?IsUseActiveCnt@ioSkill@@UBE_NXZ
_TEXT	SEGMENT
?IsUseActiveCnt@ioSkill@@UBE_NXZ PROC			; ioSkill::IsUseActiveCnt, COMDAT
; _this$ = ecx

; 544  : 	virtual bool IsUseActiveCnt() const { return false; }

  00000	32 c0		 xor	 al, al
  00002	c3		 ret	 0
?IsUseActiveCnt@ioSkill@@UBE_NXZ ENDP			; ioSkill::IsUseActiveCnt
; Function compile flags: /Ogsp
_TEXT	ENDS
;	COMDAT ?GetMaxActiveCnt@ioSkill@@UBEHPAVioBaseChar@@@Z
_TEXT	SEGMENT
_pChar$ = 8						; size = 4
?GetMaxActiveCnt@ioSkill@@UBEHPAVioBaseChar@@@Z PROC	; ioSkill::GetMaxActiveCnt, COMDAT
; _this$ = ecx

; 545  : 	virtual int GetMaxActiveCnt( ioBaseChar *pChar ) const { return 0; }

  00000	33 c0		 xor	 eax, eax
  00002	c2 04 00	 ret	 4
?GetMaxActiveCnt@ioSkill@@UBEHPAVioBaseChar@@@Z ENDP	; ioSkill::GetMaxActiveCnt
; Function compile flags: /Ogsp
_TEXT	ENDS
;	COMDAT ?GetCurActiveCnt@ioSkill@@UBEHPAVioBaseChar@@@Z
_TEXT	SEGMENT
_pChar$ = 8						; size = 4
?GetCurActiveCnt@ioSkill@@UBEHPAVioBaseChar@@@Z PROC	; ioSkill::GetCurActiveCnt, COMDAT
; _this$ = ecx

; 546  : 	virtual int GetCurActiveCnt( ioBaseChar *pChar ) const { return 0; }

  00000	33 c0		 xor	 eax, eax
  00002	c2 04 00	 ret	 4
?GetCurActiveCnt@ioSkill@@UBEHPAVioBaseChar@@@Z ENDP	; ioSkill::GetCurActiveCnt
; Function compile flags: /Ogsp
_TEXT	ENDS
;	COMDAT ?IsCanJumpingSkill@ioSkill@@UBE_NXZ
_TEXT	SEGMENT
_value$538961 = -1					; size = 1
?IsCanJumpingSkill@ioSkill@@UBE_NXZ PROC		; ioSkill::IsCanJumpingSkill, COMDAT
; _this$ = ecx

; 431  : 	virtual bool IsCanJumpingSkill() const { return m_bEnableJumpingSkill; }

  00000	55		 push	 ebp
  00001	8b ec		 mov	 ebp, esp
  00003	51		 push	 ecx
  00004	8d 45 ff	 lea	 eax, DWORD PTR _value$538961[ebp]
  00007	50		 push	 eax
  00008	81 c1 9c 03 00
	00		 add	 ecx, 924		; 0000039cH
  0000e	e8 00 00 00 00	 call	 ?DecryptValueToPool@?$CEncrypt@_N@@QAEXPA_N@Z ; CEncrypt<bool>::DecryptValueToPool
  00013	8a 45 ff	 mov	 al, BYTE PTR _value$538961[ebp]
  00016	c9		 leave
  00017	c3		 ret	 0
?IsCanJumpingSkill@ioSkill@@UBE_NXZ ENDP		; ioSkill::IsCanJumpingSkill
; Function compile flags: /Ogsp
_TEXT	ENDS
;	COMDAT ?IsCanJumpingSkillOnBlowWound@ioSkill@@UBE_NXZ
_TEXT	SEGMENT
_value$538968 = -1					; size = 1
?IsCanJumpingSkillOnBlowWound@ioSkill@@UBE_NXZ PROC	; ioSkill::IsCanJumpingSkillOnBlowWound, COMDAT
; _this$ = ecx

; 432  : 	virtual bool IsCanJumpingSkillOnBlowWound() const { return m_bEnableJumpingSkillOnBlowWound; }

  00000	55		 push	 ebp
  00001	8b ec		 mov	 ebp, esp
  00003	51		 push	 ecx
  00004	8d 45 ff	 lea	 eax, DWORD PTR _value$538968[ebp]
  00007	50		 push	 eax
  00008	81 c1 cc 03 00
	00		 add	 ecx, 972		; 000003ccH
  0000e	e8 00 00 00 00	 call	 ?DecryptValueToPool@?$CEncrypt@_N@@QAEXPA_N@Z ; CEncrypt<bool>::DecryptValueToPool
  00013	8a 45 ff	 mov	 al, BYTE PTR _value$538968[ebp]
  00016	c9		 leave
  00017	c3		 ret	 0
?IsCanJumpingSkillOnBlowWound@ioSkill@@UBE_NXZ ENDP	; ioSkill::IsCanJumpingSkillOnBlowWound
; Function compile flags: /Ogsp
_TEXT	ENDS
;	COMDAT ?IsCanDownSkill@ioSkill@@UBE_NXZ
_TEXT	SEGMENT
_value$538975 = -1					; size = 1
?IsCanDownSkill@ioSkill@@UBE_NXZ PROC			; ioSkill::IsCanDownSkill, COMDAT
; _this$ = ecx

; 437  : 	virtual bool IsCanDownSkill() const { return m_bEnableDownSkill; }

  00000	55		 push	 ebp
  00001	8b ec		 mov	 ebp, esp
  00003	51		 push	 ecx
  00004	8d 45 ff	 lea	 eax, DWORD PTR _value$538975[ebp]
  00007	50		 push	 eax
  00008	81 c1 5c 04 00
	00		 add	 ecx, 1116		; 0000045cH
  0000e	e8 00 00 00 00	 call	 ?DecryptValueToPool@?$CEncrypt@_N@@QAEXPA_N@Z ; CEncrypt<bool>::DecryptValueToPool
  00013	8a 45 ff	 mov	 al, BYTE PTR _value$538975[ebp]
  00016	c9		 leave
  00017	c3		 ret	 0
?IsCanDownSkill@ioSkill@@UBE_NXZ ENDP			; ioSkill::IsCanDownSkill
; Function compile flags: /Ogsp
_TEXT	ENDS
;	COMDAT ?IsCanBlowWoundSkill@ioSkill@@UBE_NXZ
_TEXT	SEGMENT
_value$538982 = -1					; size = 1
?IsCanBlowWoundSkill@ioSkill@@UBE_NXZ PROC		; ioSkill::IsCanBlowWoundSkill, COMDAT
; _this$ = ecx

; 440  : 	virtual bool IsCanBlowWoundSkill() const { return m_bEnableBlowWoundSkill; }

  00000	55		 push	 ebp
  00001	8b ec		 mov	 ebp, esp
  00003	51		 push	 ecx
  00004	8d 45 ff	 lea	 eax, DWORD PTR _value$538982[ebp]
  00007	50		 push	 eax
  00008	81 c1 8c 04 00
	00		 add	 ecx, 1164		; 0000048cH
  0000e	e8 00 00 00 00	 call	 ?DecryptValueToPool@?$CEncrypt@_N@@QAEXPA_N@Z ; CEncrypt<bool>::DecryptValueToPool
  00013	8a 45 ff	 mov	 al, BYTE PTR _value$538982[ebp]
  00016	c9		 leave
  00017	c3		 ret	 0
?IsCanBlowWoundSkill@ioSkill@@UBE_NXZ ENDP		; ioSkill::IsCanBlowWoundSkill
; Function compile flags: /Ogsp
_TEXT	ENDS
;	COMDAT ?IsCanWoundSkill@ioSkill@@UBE_NXZ
_TEXT	SEGMENT
_value$538989 = -1					; size = 1
?IsCanWoundSkill@ioSkill@@UBE_NXZ PROC			; ioSkill::IsCanWoundSkill, COMDAT
; _this$ = ecx

; 446  : 	virtual bool IsCanWoundSkill() const { return m_bEnableWoundSkill; }

  00000	55		 push	 ebp
  00001	8b ec		 mov	 ebp, esp
  00003	51		 push	 ecx
  00004	8d 45 ff	 lea	 eax, DWORD PTR _value$538989[ebp]
  00007	50		 push	 eax
  00008	81 c1 54 05 00
	00		 add	 ecx, 1364		; 00000554H
  0000e	e8 00 00 00 00	 call	 ?DecryptValueToPool@?$CEncrypt@_N@@QAEXPA_N@Z ; CEncrypt<bool>::DecryptValueToPool
  00013	8a 45 ff	 mov	 al, BYTE PTR _value$538989[ebp]
  00016	c9		 leave
  00017	c3		 ret	 0
?IsCanWoundSkill@ioSkill@@UBE_NXZ ENDP			; ioSkill::IsCanWoundSkill
_TEXT	ENDS
PUBLIC	??0ioTargetTeleportSkill@@QAE@ABV0@@Z		; ioTargetTeleportSkill::ioTargetTeleportSkill
EXTRN	??0ioNormalSkill@@QAE@ABV0@@Z:PROC		; ioNormalSkill::ioNormalSkill
;	COMDAT xdata$x
; File d:\lost saga for developer\youtube\tutorial\source\src\lsclient\encryptvalue.h
xdata$x	SEGMENT
__ehfuncinfo$??0ioTargetTeleportSkill@@QAE@ABV0@@Z DD 019930522H
	DD	0aH
	DD	FLAT:__unwindtable$??0ioTargetTeleportSkill@@QAE@ABV0@@Z
	DD	2 DUP(00H)
	DD	2 DUP(00H)
	DD	00H
	DD	01H
__unwindtable$??0ioTargetTeleportSkill@@QAE@ABV0@@Z DD 0ffffffffH
	DD	FLAT:__unwindfunclet$??0ioTargetTeleportSkill@@QAE@ABV0@@Z$0
	DD	00H
	DD	FLAT:__unwindfunclet$??0ioTargetTeleportSkill@@QAE@ABV0@@Z$1
	DD	01H
	DD	FLAT:__unwindfunclet$??0ioTargetTeleportSkill@@QAE@ABV0@@Z$2
	DD	02H
	DD	FLAT:__unwindfunclet$??0ioTargetTeleportSkill@@QAE@ABV0@@Z$3
	DD	03H
	DD	FLAT:__unwindfunclet$??0ioTargetTeleportSkill@@QAE@ABV0@@Z$4
	DD	04H
	DD	FLAT:__unwindfunclet$??0ioTargetTeleportSkill@@QAE@ABV0@@Z$5
	DD	05H
	DD	FLAT:__unwindfunclet$??0ioTargetTeleportSkill@@QAE@ABV0@@Z$6
	DD	06H
	DD	FLAT:__unwindfunclet$??0ioTargetTeleportSkill@@QAE@ABV0@@Z$7
	DD	07H
	DD	FLAT:__unwindfunclet$??0ioTargetTeleportSkill@@QAE@ABV0@@Z$8
	DD	08H
	DD	FLAT:__unwindfunclet$??0ioTargetTeleportSkill@@QAE@ABV0@@Z$9
; Function compile flags: /Ogsp
; File d:\lost saga for developer\youtube\tutorial\source\src\lsclient\iotargetteleportskill.cpp
xdata$x	ENDS
;	COMDAT ??0ioTargetTeleportSkill@@QAE@ABV0@@Z
_TEXT	SEGMENT
_this$ = -16						; size = 4
__$EHRec$ = -12						; size = 12
_value$539121 = 8					; size = 4
$T539100 = 8						; size = 4
_value$539037 = 8					; size = 4
_rhs$ = 8						; size = 4
??0ioTargetTeleportSkill@@QAE@ABV0@@Z PROC		; ioTargetTeleportSkill::ioTargetTeleportSkill, COMDAT
; _this$ = ecx

; 36   : {

  00000	6a 04		 push	 4
  00002	b8 00 00 00 00	 mov	 eax, __ehhandler$??0ioTargetTeleportSkill@@QAE@ABV0@@Z
  00007	e8 00 00 00 00	 call	 __EH_prolog3
  0000c	8b d9		 mov	 ebx, ecx
  0000e	89 5d f0	 mov	 DWORD PTR _this$[ebp], ebx
  00011	8b 75 08	 mov	 esi, DWORD PTR _rhs$[ebp]
  00014	56		 push	 esi
  00015	e8 00 00 00 00	 call	 ??0ioNormalSkill@@QAE@ABV0@@Z ; ioNormalSkill::ioNormalSkill
  0001a	83 65 fc 00	 and	 DWORD PTR __$EHRec$[ebp+8], 0
  0001e	8d 8b 5c 0f 00
	00		 lea	 ecx, DWORD PTR [ebx+3932]
  00024	c7 03 00 00 00
	00		 mov	 DWORD PTR [ebx], OFFSET ??_7ioTargetTeleportSkill@@6B@
  0002a	e8 00 00 00 00	 call	 ??0?$CEncrypt@K@@QAE@XZ	; CEncrypt<unsigned long>::CEncrypt<unsigned long>
  0002f	8d 86 8c 0f 00
	00		 lea	 eax, DWORD PTR [esi+3980]
  00035	50		 push	 eax
  00036	8d 8b 8c 0f 00
	00		 lea	 ecx, DWORD PTR [ebx+3980]
  0003c	c6 45 fc 01	 mov	 BYTE PTR __$EHRec$[ebp+8], 1
  00040	e8 00 00 00 00	 call	 ??0?$CEncrypt@K@@QAE@ABV0@@Z ; CEncrypt<unsigned long>::CEncrypt<unsigned long>
  00045	8b 3d 00 00 00
	00		 mov	 edi, DWORD PTR __imp_??0ioHashString@@QAE@ABV0@@Z
  0004b	8d 86 c0 0f 00
	00		 lea	 eax, DWORD PTR [esi+4032]
  00051	50		 push	 eax
  00052	8d 8b c0 0f 00
	00		 lea	 ecx, DWORD PTR [ebx+4032]
  00058	c6 45 fc 02	 mov	 BYTE PTR __$EHRec$[ebp+8], 2
  0005c	ff d7		 call	 edi
  0005e	d9 86 d0 0f 00
	00		 fld	 DWORD PTR [esi+4048]
  00064	8d 8b ec 0f 00
	00		 lea	 ecx, DWORD PTR [ebx+4076]
  0006a	d9 9b d0 0f 00
	00		 fstp	 DWORD PTR [ebx+4048]
  00070	c6 45 fc 03	 mov	 BYTE PTR __$EHRec$[ebp+8], 3
  00074	ff 15 00 00 00
	00		 call	 DWORD PTR __imp_??0ioHashString@@QAE@XZ
  0007a	33 c9		 xor	 ecx, ecx
  0007c	89 8b fc 0f 00
	00		 mov	 DWORD PTR [ebx+4092], ecx
  00082	89 8b 00 10 00
	00		 mov	 DWORD PTR [ebx+4096], ecx
  00088	89 8b 04 10 00
	00		 mov	 DWORD PTR [ebx+4100], ecx
  0008e	8d 8b 0c 10 00
	00		 lea	 ecx, DWORD PTR [ebx+4108]
  00094	c6 45 fc 05	 mov	 BYTE PTR __$EHRec$[ebp+8], 5
  00098	e8 00 00 00 00	 call	 ??0?$CEncrypt@H@@QAE@XZ	; CEncrypt<int>::CEncrypt<int>
  0009d	8d 86 3c 10 00
	00		 lea	 eax, DWORD PTR [esi+4156]
  000a3	50		 push	 eax
  000a4	8d 8b 3c 10 00
	00		 lea	 ecx, DWORD PTR [ebx+4156]
  000aa	c6 45 fc 06	 mov	 BYTE PTR __$EHRec$[ebp+8], 6
  000ae	e8 00 00 00 00	 call	 ??0?$CEncrypt@M@@QAE@ABV0@@Z ; CEncrypt<float>::CEncrypt<float>
  000b3	8d 86 6c 10 00
	00		 lea	 eax, DWORD PTR [esi+4204]
  000b9	50		 push	 eax
  000ba	8d 8b 6c 10 00
	00		 lea	 ecx, DWORD PTR [ebx+4204]
  000c0	c6 45 fc 07	 mov	 BYTE PTR __$EHRec$[ebp+8], 7
  000c4	ff d7		 call	 edi
  000c6	81 c6 7c 10 00
	00		 add	 esi, 4220		; 0000107cH
  000cc	56		 push	 esi
  000cd	8d 8b 7c 10 00
	00		 lea	 ecx, DWORD PTR [ebx+4220]
  000d3	c6 45 fc 08	 mov	 BYTE PTR __$EHRec$[ebp+8], 8
  000d7	ff d7		 call	 edi

; 37   : 	m_SkillState = SS_NONE;

  000d9	83 a3 58 0f 00
	00 00		 and	 DWORD PTR [ebx+3928], 0

; 38   : 
; 39   : 	m_dwWaitStartTime = 0;

  000e0	83 65 08 00	 and	 DWORD PTR _value$539037[ebp], 0
  000e4	8d 45 08	 lea	 eax, DWORD PTR _value$539037[ebp]
  000e7	50		 push	 eax
  000e8	8d 8b 5c 0f 00
	00		 lea	 ecx, DWORD PTR [ebx+3932]
  000ee	c6 45 fc 09	 mov	 BYTE PTR __$EHRec$[ebp+8], 9
  000f2	e8 00 00 00 00	 call	 ?EncryptValueToPool@?$CEncrypt@K@@AAEXPBD@Z ; CEncrypt<unsigned long>::EncryptValueToPool

; 40   : 
; 41   : 	m_vBasePos = ioMath::VEC3_ZERO;

  000f7	8b 35 00 00 00
	00		 mov	 esi, DWORD PTR __imp_?VEC3_ZERO@ioMath@@2UD3DXVECTOR3@@A
  000fd	8d bb d4 0f 00
	00		 lea	 edi, DWORD PTR [ebx+4052]
  00103	a5		 movsd
  00104	a5		 movsd
  00105	a5		 movsd

; 42   : 	m_vTargetPos = ioMath::VEC3_ZERO;

  00106	8b 35 00 00 00
	00		 mov	 esi, DWORD PTR __imp_?VEC3_ZERO@ioMath@@2UD3DXVECTOR3@@A
  0010c	8d bb e0 0f 00
	00		 lea	 edi, DWORD PTR [ebx+4064]
  00112	a5		 movsd
  00113	a5		 movsd

; 43   : 
; 44   : 	m_CurTargetName.Clear();

  00114	8d 8b ec 0f 00
	00		 lea	 ecx, DWORD PTR [ebx+4076]
  0011a	a5		 movsd
  0011b	ff 15 00 00 00
	00		 call	 DWORD PTR __imp_?Clear@ioHashString@@QAEXXZ

; 45   : 	m_TargetCharList.clear();

  00121	8d 8b fc 0f 00
	00		 lea	 ecx, DWORD PTR [ebx+4092]
  00127	8b 41 04	 mov	 eax, DWORD PTR [ecx+4]
  0012a	8b 11		 mov	 edx, DWORD PTR [ecx]
  0012c	50		 push	 eax
  0012d	52		 push	 edx
  0012e	8d 45 08	 lea	 eax, DWORD PTR $T539100[ebp]
  00131	50		 push	 eax
  00132	e8 00 00 00 00	 call	 ?erase@?$vector@VioHashString@@V?$allocator@VioHashString@@@std@@@std@@QAE?AV?$_Vector_iterator@V?$_Vector_val@VioHashString@@V?$allocator@VioHashString@@@std@@@std@@@2@V?$_Vector_const_iterator@V?$_Vector_val@VioHashString@@V?$allocator@VioHashString@@@std@@@std@@@2@0@Z ; std::vector<ioHashString,std::allocator<ioHashString> >::erase

; 46   : 	m_iCurTargetIndex = -1;

  00137	83 4d 08 ff	 or	 DWORD PTR _value$539121[ebp], -1
  0013b	8d 45 08	 lea	 eax, DWORD PTR _value$539121[ebp]
  0013e	50		 push	 eax
  0013f	8d 8b 0c 10 00
	00		 lea	 ecx, DWORD PTR [ebx+4108]
  00145	e8 00 00 00 00	 call	 ?EncryptValueToPool@?$CEncrypt@H@@AAEXPBD@Z ; CEncrypt<int>::EncryptValueToPool

; 47   : 
; 48   : 	m_dwAttackEndTime = 0;

  0014a	83 a3 bc 0f 00
	00 00		 and	 DWORD PTR [ebx+4028], 0

; 49   : 	m_dwTargetMapEffect = 0;

  00151	83 a3 8c 10 00
	00 00		 and	 DWORD PTR [ebx+4236], 0

; 50   : }

  00158	8b c3		 mov	 eax, ebx
  0015a	e8 00 00 00 00	 call	 __EH_epilog3
  0015f	c2 04 00	 ret	 4
_TEXT	ENDS
;	COMDAT text$x
text$x	SEGMENT
__unwindfunclet$??0ioTargetTeleportSkill@@QAE@ABV0@@Z$0:
  00000	8b 4d f0	 mov	 ecx, DWORD PTR _this$[ebp]
  00003	e9 00 00 00 00	 jmp	 ??1ioNormalSkill@@UAE@XZ ; ioNormalSkill::~ioNormalSkill
__unwindfunclet$??0ioTargetTeleportSkill@@QAE@ABV0@@Z$1:
  00008	8b 4d f0	 mov	 ecx, DWORD PTR _this$[ebp]
  0000b	81 c1 5c 0f 00
	00		 add	 ecx, 3932		; 00000f5cH
  00011	e9 00 00 00 00	 jmp	 ??1?$CEncrypt@K@@UAE@XZ	; CEncrypt<unsigned long>::~CEncrypt<unsigned long>
__unwindfunclet$??0ioTargetTeleportSkill@@QAE@ABV0@@Z$2:
  00016	8b 4d f0	 mov	 ecx, DWORD PTR _this$[ebp]
  00019	81 c1 8c 0f 00
	00		 add	 ecx, 3980		; 00000f8cH
  0001f	e9 00 00 00 00	 jmp	 ??1?$CEncrypt@K@@UAE@XZ	; CEncrypt<unsigned long>::~CEncrypt<unsigned long>
__unwindfunclet$??0ioTargetTeleportSkill@@QAE@ABV0@@Z$3:
  00024	8b 4d f0	 mov	 ecx, DWORD PTR _this$[ebp]
  00027	81 c1 c0 0f 00
	00		 add	 ecx, 4032		; 00000fc0H
  0002d	ff 25 00 00 00
	00		 jmp	 DWORD PTR __imp_??1ioHashString@@QAE@XZ
__unwindfunclet$??0ioTargetTeleportSkill@@QAE@ABV0@@Z$4:
  00033	8b 4d f0	 mov	 ecx, DWORD PTR _this$[ebp]
  00036	81 c1 ec 0f 00
	00		 add	 ecx, 4076		; 00000fecH
  0003c	ff 25 00 00 00
	00		 jmp	 DWORD PTR __imp_??1ioHashString@@QAE@XZ
__unwindfunclet$??0ioTargetTeleportSkill@@QAE@ABV0@@Z$5:
  00042	8b 4d f0	 mov	 ecx, DWORD PTR _this$[ebp]
  00045	81 c1 fc 0f 00
	00		 add	 ecx, 4092		; 00000ffcH
  0004b	e9 00 00 00 00	 jmp	 ??1?$vector@VioHashString@@V?$allocator@VioHashString@@@std@@@std@@QAE@XZ ; std::vector<ioHashString,std::allocator<ioHashString> >::~vector<ioHashString,std::allocator<ioHashString> >
__unwindfunclet$??0ioTargetTeleportSkill@@QAE@ABV0@@Z$6:
  00050	8b 4d f0	 mov	 ecx, DWORD PTR _this$[ebp]
  00053	81 c1 0c 10 00
	00		 add	 ecx, 4108		; 0000100cH
  00059	e9 00 00 00 00	 jmp	 ??1?$CEncrypt@H@@UAE@XZ	; CEncrypt<int>::~CEncrypt<int>
__unwindfunclet$??0ioTargetTeleportSkill@@QAE@ABV0@@Z$7:
  0005e	8b 4d f0	 mov	 ecx, DWORD PTR _this$[ebp]
  00061	81 c1 3c 10 00
	00		 add	 ecx, 4156		; 0000103cH
  00067	e9 00 00 00 00	 jmp	 ??1?$CEncrypt@M@@UAE@XZ	; CEncrypt<float>::~CEncrypt<float>
__unwindfunclet$??0ioTargetTeleportSkill@@QAE@ABV0@@Z$8:
  0006c	8b 4d f0	 mov	 ecx, DWORD PTR _this$[ebp]
  0006f	81 c1 6c 10 00
	00		 add	 ecx, 4204		; 0000106cH
  00075	ff 25 00 00 00
	00		 jmp	 DWORD PTR __imp_??1ioHashString@@QAE@XZ
__unwindfunclet$??0ioTargetTeleportSkill@@QAE@ABV0@@Z$9:
  0007b	8b 4d f0	 mov	 ecx, DWORD PTR _this$[ebp]
  0007e	81 c1 7c 10 00
	00		 add	 ecx, 4220		; 0000107cH
  00084	ff 25 00 00 00
	00		 jmp	 DWORD PTR __imp_??1ioHashString@@QAE@XZ
__ehhandler$??0ioTargetTeleportSkill@@QAE@ABV0@@Z:
  0008a	8b 54 24 08	 mov	 edx, DWORD PTR [esp+8]
  0008e	8d 42 0c	 lea	 eax, DWORD PTR [edx+12]
  00091	8b 4a ec	 mov	 ecx, DWORD PTR [edx-20]
  00094	33 c8		 xor	 ecx, eax
  00096	e8 00 00 00 00	 call	 @__security_check_cookie@4
  0009b	b8 00 00 00 00	 mov	 eax, OFFSET __ehfuncinfo$??0ioTargetTeleportSkill@@QAE@ABV0@@Z
  000a0	e9 00 00 00 00	 jmp	 ___CxxFrameHandler3
text$x	ENDS
??0ioTargetTeleportSkill@@QAE@ABV0@@Z ENDP		; ioTargetTeleportSkill::ioTargetTeleportSkill
PUBLIC	??1ioTargetTeleportSkill@@UAE@XZ		; ioTargetTeleportSkill::~ioTargetTeleportSkill
;	COMDAT xdata$x
; File d:\lost saga for developer\youtube\tutorial\source\src\lsclient\encryptvalue.h
xdata$x	SEGMENT
__ehfuncinfo$??1ioTargetTeleportSkill@@UAE@XZ DD 019930522H
	DD	09H
	DD	FLAT:__unwindtable$??1ioTargetTeleportSkill@@UAE@XZ
	DD	2 DUP(00H)
	DD	2 DUP(00H)
	DD	00H
	DD	01H
__unwindtable$??1ioTargetTeleportSkill@@UAE@XZ DD 0ffffffffH
	DD	FLAT:__unwindfunclet$??1ioTargetTeleportSkill@@UAE@XZ$0
	DD	00H
	DD	FLAT:__unwindfunclet$??1ioTargetTeleportSkill@@UAE@XZ$1
	DD	01H
	DD	FLAT:__unwindfunclet$??1ioTargetTeleportSkill@@UAE@XZ$2
	DD	02H
	DD	FLAT:__unwindfunclet$??1ioTargetTeleportSkill@@UAE@XZ$3
	DD	03H
	DD	FLAT:__unwindfunclet$??1ioTargetTeleportSkill@@UAE@XZ$4
	DD	04H
	DD	FLAT:__unwindfunclet$??1ioTargetTeleportSkill@@UAE@XZ$5
	DD	05H
	DD	FLAT:__unwindfunclet$??1ioTargetTeleportSkill@@UAE@XZ$6
	DD	06H
	DD	FLAT:__unwindfunclet$??1ioTargetTeleportSkill@@UAE@XZ$7
	DD	07H
	DD	FLAT:__unwindfunclet$??1ioTargetTeleportSkill@@UAE@XZ$8
; Function compile flags: /Ogsp
; File d:\lost saga for developer\youtube\tutorial\source\src\lsclient\iotargetteleportskill.cpp
xdata$x	ENDS
;	COMDAT ??1ioTargetTeleportSkill@@UAE@XZ
_TEXT	SEGMENT
_this$ = -16						; size = 4
__$EHRec$ = -12						; size = 12
??1ioTargetTeleportSkill@@UAE@XZ PROC			; ioTargetTeleportSkill::~ioTargetTeleportSkill, COMDAT
; _this$ = ecx

; 53   : {

  00000	6a 04		 push	 4
  00002	b8 00 00 00 00	 mov	 eax, __ehhandler$??1ioTargetTeleportSkill@@UAE@XZ
  00007	e8 00 00 00 00	 call	 __EH_prolog3
  0000c	8b f1		 mov	 esi, ecx
  0000e	89 75 f0	 mov	 DWORD PTR _this$[ebp], esi
  00011	c7 06 00 00 00
	00		 mov	 DWORD PTR [esi], OFFSET ??_7ioTargetTeleportSkill@@6B@

; 54   : }

  00017	8b 3d 00 00 00
	00		 mov	 edi, DWORD PTR __imp_??1ioHashString@@QAE@XZ
  0001d	8d 8e 7c 10 00
	00		 lea	 ecx, DWORD PTR [esi+4220]
  00023	c7 45 fc 08 00
	00 00		 mov	 DWORD PTR __$EHRec$[ebp+8], 8
  0002a	ff d7		 call	 edi
  0002c	8d 8e 6c 10 00
	00		 lea	 ecx, DWORD PTR [esi+4204]
  00032	c6 45 fc 07	 mov	 BYTE PTR __$EHRec$[ebp+8], 7
  00036	ff d7		 call	 edi
  00038	8d 8e 48 10 00
	00		 lea	 ecx, DWORD PTR [esi+4168]
  0003e	c6 45 fc 06	 mov	 BYTE PTR __$EHRec$[ebp+8], 6
  00042	c7 86 3c 10 00
	00 00 00 00 00	 mov	 DWORD PTR [esi+4156], OFFSET ??_7?$CEncrypt@M@@6B@
  0004c	e8 00 00 00 00	 call	 ??1ccddaabb@@UAE@XZ	; ccddaabb::~ccddaabb
  00051	8d 8e 18 10 00
	00		 lea	 ecx, DWORD PTR [esi+4120]
  00057	c6 45 fc 05	 mov	 BYTE PTR __$EHRec$[ebp+8], 5
  0005b	c7 86 0c 10 00
	00 00 00 00 00	 mov	 DWORD PTR [esi+4108], OFFSET ??_7?$CEncrypt@H@@6B@
  00065	e8 00 00 00 00	 call	 ??1ccddaabb@@UAE@XZ	; ccddaabb::~ccddaabb
  0006a	8d 8e fc 0f 00
	00		 lea	 ecx, DWORD PTR [esi+4092]
  00070	c6 45 fc 04	 mov	 BYTE PTR __$EHRec$[ebp+8], 4
  00074	e8 00 00 00 00	 call	 ?_Tidy@?$vector@VioHashString@@V?$allocator@VioHashString@@@std@@@std@@IAEXXZ ; std::vector<ioHashString,std::allocator<ioHashString> >::_Tidy
  00079	8d 8e ec 0f 00
	00		 lea	 ecx, DWORD PTR [esi+4076]
  0007f	c6 45 fc 03	 mov	 BYTE PTR __$EHRec$[ebp+8], 3
  00083	ff d7		 call	 edi
  00085	8d 8e c0 0f 00
	00		 lea	 ecx, DWORD PTR [esi+4032]
  0008b	c6 45 fc 02	 mov	 BYTE PTR __$EHRec$[ebp+8], 2
  0008f	ff d7		 call	 edi
  00091	bf 00 00 00 00	 mov	 edi, OFFSET ??_7?$CEncrypt@K@@6B@
  00096	8d 8e 98 0f 00
	00		 lea	 ecx, DWORD PTR [esi+3992]
  0009c	c6 45 fc 01	 mov	 BYTE PTR __$EHRec$[ebp+8], 1
  000a0	89 be 8c 0f 00
	00		 mov	 DWORD PTR [esi+3980], edi
  000a6	e8 00 00 00 00	 call	 ??1ccddaabb@@UAE@XZ	; ccddaabb::~ccddaabb
  000ab	8d 8e 68 0f 00
	00		 lea	 ecx, DWORD PTR [esi+3944]
  000b1	c6 45 fc 00	 mov	 BYTE PTR __$EHRec$[ebp+8], 0
  000b5	89 be 5c 0f 00
	00		 mov	 DWORD PTR [esi+3932], edi
  000bb	e8 00 00 00 00	 call	 ??1ccddaabb@@UAE@XZ	; ccddaabb::~ccddaabb
  000c0	83 4d fc ff	 or	 DWORD PTR __$EHRec$[ebp+8], -1
  000c4	8b ce		 mov	 ecx, esi
  000c6	e8 00 00 00 00	 call	 ??1ioNormalSkill@@UAE@XZ ; ioNormalSkill::~ioNormalSkill
  000cb	e8 00 00 00 00	 call	 __EH_epilog3
  000d0	c3		 ret	 0
_TEXT	ENDS
;	COMDAT text$x
text$x	SEGMENT
__unwindfunclet$??1ioTargetTeleportSkill@@UAE@XZ$0:
  00000	8b 4d f0	 mov	 ecx, DWORD PTR _this$[ebp]
  00003	e9 00 00 00 00	 jmp	 ??1ioNormalSkill@@UAE@XZ ; ioNormalSkill::~ioNormalSkill
__unwindfunclet$??1ioTargetTeleportSkill@@UAE@XZ$1:
  00008	8b 4d f0	 mov	 ecx, DWORD PTR _this$[ebp]
  0000b	81 c1 5c 0f 00
	00		 add	 ecx, 3932		; 00000f5cH
  00011	e9 00 00 00 00	 jmp	 ??1?$CEncrypt@K@@UAE@XZ	; CEncrypt<unsigned long>::~CEncrypt<unsigned long>
__unwindfunclet$??1ioTargetTeleportSkill@@UAE@XZ$2:
  00016	8b 4d f0	 mov	 ecx, DWORD PTR _this$[ebp]
  00019	81 c1 8c 0f 00
	00		 add	 ecx, 3980		; 00000f8cH
  0001f	e9 00 00 00 00	 jmp	 ??1?$CEncrypt@K@@UAE@XZ	; CEncrypt<unsigned long>::~CEncrypt<unsigned long>
__unwindfunclet$??1ioTargetTeleportSkill@@UAE@XZ$3:
  00024	8b 4d f0	 mov	 ecx, DWORD PTR _this$[ebp]
  00027	81 c1 c0 0f 00
	00		 add	 ecx, 4032		; 00000fc0H
  0002d	ff 25 00 00 00
	00		 jmp	 DWORD PTR __imp_??1ioHashString@@QAE@XZ
__unwindfunclet$??1ioTargetTeleportSkill@@UAE@XZ$4:
  00033	8b 4d f0	 mov	 ecx, DWORD PTR _this$[ebp]
  00036	81 c1 ec 0f 00
	00		 add	 ecx, 4076		; 00000fecH
  0003c	ff 25 00 00 00
	00		 jmp	 DWORD PTR __imp_??1ioHashString@@QAE@XZ
__unwindfunclet$??1ioTargetTeleportSkill@@UAE@XZ$5:
  00042	8b 4d f0	 mov	 ecx, DWORD PTR _this$[ebp]
  00045	81 c1 fc 0f 00
	00		 add	 ecx, 4092		; 00000ffcH
  0004b	e9 00 00 00 00	 jmp	 ??1?$vector@VioHashString@@V?$allocator@VioHashString@@@std@@@std@@QAE@XZ ; std::vector<ioHashString,std::allocator<ioHashString> >::~vector<ioHashString,std::allocator<ioHashString> >
__unwindfunclet$??1ioTargetTeleportSkill@@UAE@XZ$6:
  00050	8b 4d f0	 mov	 ecx, DWORD PTR _this$[ebp]
  00053	81 c1 0c 10 00
	00		 add	 ecx, 4108		; 0000100cH
  00059	e9 00 00 00 00	 jmp	 ??1?$CEncrypt@H@@UAE@XZ	; CEncrypt<int>::~CEncrypt<int>
__unwindfunclet$??1ioTargetTeleportSkill@@UAE@XZ$7:
  0005e	8b 4d f0	 mov	 ecx, DWORD PTR _this$[ebp]
  00061	81 c1 3c 10 00
	00		 add	 ecx, 4156		; 0000103cH
  00067	e9 00 00 00 00	 jmp	 ??1?$CEncrypt@M@@UAE@XZ	; CEncrypt<float>::~CEncrypt<float>
__unwindfunclet$??1ioTargetTeleportSkill@@UAE@XZ$8:
  0006c	8b 4d f0	 mov	 ecx, DWORD PTR _this$[ebp]
  0006f	81 c1 6c 10 00
	00		 add	 ecx, 4204		; 0000106cH
  00075	ff 25 00 00 00
	00		 jmp	 DWORD PTR __imp_??1ioHashString@@QAE@XZ
__ehhandler$??1ioTargetTeleportSkill@@UAE@XZ:
  0007b	8b 54 24 08	 mov	 edx, DWORD PTR [esp+8]
  0007f	8d 42 0c	 lea	 eax, DWORD PTR [edx+12]
  00082	8b 4a ec	 mov	 ecx, DWORD PTR [edx-20]
  00085	33 c8		 xor	 ecx, eax
  00087	e8 00 00 00 00	 call	 @__security_check_cookie@4
  0008c	b8 00 00 00 00	 mov	 eax, OFFSET __ehfuncinfo$??1ioTargetTeleportSkill@@UAE@XZ
  00091	e9 00 00 00 00	 jmp	 ___CxxFrameHandler3
text$x	ENDS
??1ioTargetTeleportSkill@@UAE@XZ ENDP			; ioTargetTeleportSkill::~ioTargetTeleportSkill
;	COMDAT xdata$x
xdata$x	SEGMENT
__unwindtable$?Clone@ioTargetTeleportSkill@@UAEPAVioSkill@@XZ DD 0ffffffffH
	DD	FLAT:__unwindfunclet$?Clone@ioTargetTeleportSkill@@UAEPAVioSkill@@XZ$0
__ehfuncinfo$?Clone@ioTargetTeleportSkill@@UAEPAVioSkill@@XZ DD 019930522H
	DD	01H
	DD	FLAT:__unwindtable$?Clone@ioTargetTeleportSkill@@UAEPAVioSkill@@XZ
	DD	2 DUP(00H)
	DD	2 DUP(00H)
	DD	00H
	DD	01H
; Function compile flags: /Ogsp
xdata$x	ENDS
;	COMDAT ?Clone@ioTargetTeleportSkill@@UAEPAVioSkill@@XZ
_TEXT	SEGMENT
$T539177 = -16						; size = 4
__$EHRec$ = -12						; size = 12
?Clone@ioTargetTeleportSkill@@UAEPAVioSkill@@XZ PROC	; ioTargetTeleportSkill::Clone, COMDAT
; _this$ = ecx

; 78   : {

  00000	6a 04		 push	 4
  00002	b8 00 00 00 00	 mov	 eax, __ehhandler$?Clone@ioTargetTeleportSkill@@UAEPAVioSkill@@XZ
  00007	e8 00 00 00 00	 call	 __EH_prolog3
  0000c	8b f1		 mov	 esi, ecx

; 79   : 	return new ioTargetTeleportSkill( *this );

  0000e	68 90 10 00 00	 push	 4240			; 00001090H
  00013	e8 00 00 00 00	 call	 ??2@YAPAXI@Z		; operator new
  00018	59		 pop	 ecx
  00019	8b c8		 mov	 ecx, eax
  0001b	89 4d f0	 mov	 DWORD PTR $T539177[ebp], ecx
  0001e	33 c0		 xor	 eax, eax
  00020	89 45 fc	 mov	 DWORD PTR __$EHRec$[ebp+8], eax
  00023	3b c8		 cmp	 ecx, eax
  00025	74 06		 je	 SHORT $LN3@Clone
  00027	56		 push	 esi
  00028	e8 00 00 00 00	 call	 ??0ioTargetTeleportSkill@@QAE@ABV0@@Z ; ioTargetTeleportSkill::ioTargetTeleportSkill
$LN3@Clone:

; 80   : }

  0002d	e8 00 00 00 00	 call	 __EH_epilog3
  00032	c3		 ret	 0
_TEXT	ENDS
;	COMDAT text$x
text$x	SEGMENT
__unwindfunclet$?Clone@ioTargetTeleportSkill@@UAEPAVioSkill@@XZ$0:
  00000	ff 75 f0	 push	 DWORD PTR $T539177[ebp]
  00003	e8 00 00 00 00	 call	 ??3@YAXPAX@Z		; operator delete
  00008	59		 pop	 ecx
  00009	c3		 ret	 0
__ehhandler$?Clone@ioTargetTeleportSkill@@UAEPAVioSkill@@XZ:
  0000a	8b 54 24 08	 mov	 edx, DWORD PTR [esp+8]
  0000e	8d 42 0c	 lea	 eax, DWORD PTR [edx+12]
  00011	8b 4a ec	 mov	 ecx, DWORD PTR [edx-20]
  00014	33 c8		 xor	 ecx, eax
  00016	e8 00 00 00 00	 call	 @__security_check_cookie@4
  0001b	b8 00 00 00 00	 mov	 eax, OFFSET __ehfuncinfo$?Clone@ioTargetTeleportSkill@@UAEPAVioSkill@@XZ
  00020	e9 00 00 00 00	 jmp	 ___CxxFrameHandler3
text$x	ENDS
?Clone@ioTargetTeleportSkill@@UAEPAVioSkill@@XZ ENDP	; ioTargetTeleportSkill::Clone
PUBLIC	?push_back@?$vector@VioHashString@@V?$allocator@VioHashString@@@std@@@std@@QAEXABVioHashString@@@Z ; std::vector<ioHashString,std::allocator<ioHashString> >::push_back
; Function compile flags: /Ogsp
; File c:\program files (x86)\microsoft visual studio 10.0\vc\include\vector
;	COMDAT ?push_back@?$vector@VioHashString@@V?$allocator@VioHashString@@@std@@@std@@QAEXABVioHashString@@@Z
_TEXT	SEGMENT
__Val$ = 8						; size = 4
?push_back@?$vector@VioHashString@@V?$allocator@VioHashString@@@std@@@std@@QAEXABVioHashString@@@Z PROC ; std::vector<ioHashString,std::allocator<ioHashString> >::push_back, COMDAT
; _this$ = ecx

; 976  : 		{	// insert element at end

  00000	55		 push	 ebp
  00001	8b ec		 mov	 ebp, esp
  00003	56		 push	 esi
  00004	8b f1		 mov	 esi, ecx

; 977  : 		if (_Inside(_STD addressof(_Val)))

  00006	8b 46 04	 mov	 eax, DWORD PTR [esi+4]
  00009	57		 push	 edi
  0000a	8b 7d 08	 mov	 edi, DWORD PTR __Val$[ebp]
  0000d	3b f8		 cmp	 edi, eax
  0000f	73 29		 jae	 SHORT $LN4@push_back
  00011	8b 0e		 mov	 ecx, DWORD PTR [esi]
  00013	3b cf		 cmp	 ecx, edi
  00015	77 23		 ja	 SHORT $LN4@push_back

; 978  : 			{	// push back an element
; 979  : 			size_type _Idx = _STD addressof(_Val) - this->_Myfirst;

  00017	2b f9		 sub	 edi, ecx

; 980  : 			if (this->_Mylast == this->_Myend)

  00019	3b 46 08	 cmp	 eax, DWORD PTR [esi+8]
  0001c	75 09		 jne	 SHORT $LN3@push_back

; 981  : 				_Reserve(1);

  0001e	6a 01		 push	 1
  00020	8b ce		 mov	 ecx, esi
  00022	e8 00 00 00 00	 call	 ?_Reserve@?$vector@VioHashString@@V?$allocator@VioHashString@@@std@@@std@@IAEXI@Z ; std::vector<ioHashString,std::allocator<ioHashString> >::_Reserve
$LN3@push_back:

; 982  : 			_Orphan_range(this->_Mylast, this->_Mylast);
; 983  : 			_Cons_val(this->_Alval,
; 984  : 				this->_Mylast,
; 985  : 				this->_Myfirst[_Idx]);

  00027	83 e7 f0	 and	 edi, -16		; fffffff0H
  0002a	03 3e		 add	 edi, DWORD PTR [esi]
  0002c	8d 4e 0c	 lea	 ecx, DWORD PTR [esi+12]
  0002f	57		 push	 edi
  00030	ff 76 04	 push	 DWORD PTR [esi+4]
  00033	e8 00 00 00 00	 call	 ??$construct@AAVioHashString@@@?$allocator@VioHashString@@@std@@QAEXPAVioHashString@@AAV2@@Z ; std::allocator<ioHashString>::construct<ioHashString &>

; 986  : 			++this->_Mylast;
; 987  : 			}
; 988  : 		else

  00038	eb 19		 jmp	 SHORT $LN30@push_back
$LN4@push_back:

; 989  : 			{	// push back a non-element
; 990  : 			if (this->_Mylast == this->_Myend)

  0003a	3b 46 08	 cmp	 eax, DWORD PTR [esi+8]
  0003d	75 09		 jne	 SHORT $LN1@push_back

; 991  : 				_Reserve(1);

  0003f	6a 01		 push	 1
  00041	8b ce		 mov	 ecx, esi
  00043	e8 00 00 00 00	 call	 ?_Reserve@?$vector@VioHashString@@V?$allocator@VioHashString@@@std@@@std@@IAEXI@Z ; std::vector<ioHashString,std::allocator<ioHashString> >::_Reserve
$LN1@push_back:

; 992  : 			_Orphan_range(this->_Mylast, this->_Mylast);
; 993  : 			_Cons_val(this->_Alval,
; 994  : 				this->_Mylast,
; 995  : 				_Val);

  00048	57		 push	 edi
  00049	ff 76 04	 push	 DWORD PTR [esi+4]
  0004c	e8 00 00 00 00	 call	 ??$_Construct@VioHashString@@ABV1@@std@@YAXPAVioHashString@@ABV1@@Z ; std::_Construct<ioHashString,ioHashString const &>
  00051	59		 pop	 ecx
  00052	59		 pop	 ecx
$LN30@push_back:

; 996  : 			++this->_Mylast;

  00053	83 46 04 10	 add	 DWORD PTR [esi+4], 16	; 00000010H
  00057	5f		 pop	 edi
  00058	5e		 pop	 esi

; 997  : 			}
; 998  : 		}

  00059	5d		 pop	 ebp
  0005a	c2 04 00	 ret	 4
?push_back@?$vector@VioHashString@@V?$allocator@VioHashString@@@std@@@std@@QAEXABVioHashString@@@Z ENDP ; std::vector<ioHashString,std::allocator<ioHashString> >::push_back
_TEXT	ENDS
PUBLIC	?push_back@?$vector@UtagBaseCharDistanceSq@@V?$allocator@UtagBaseCharDistanceSq@@@std@@@std@@QAEXABUtagBaseCharDistanceSq@@@Z ; std::vector<tagBaseCharDistanceSq,std::allocator<tagBaseCharDistanceSq> >::push_back
; Function compile flags: /Ogsp
;	COMDAT ?push_back@?$vector@UtagBaseCharDistanceSq@@V?$allocator@UtagBaseCharDistanceSq@@@std@@@std@@QAEXABUtagBaseCharDistanceSq@@@Z
_TEXT	SEGMENT
__Val$ = 8						; size = 4
?push_back@?$vector@UtagBaseCharDistanceSq@@V?$allocator@UtagBaseCharDistanceSq@@@std@@@std@@QAEXABUtagBaseCharDistanceSq@@@Z PROC ; std::vector<tagBaseCharDistanceSq,std::allocator<tagBaseCharDistanceSq> >::push_back, COMDAT
; _this$ = ecx

; 976  : 		{	// insert element at end

  00000	55		 push	 ebp
  00001	8b ec		 mov	 ebp, esp
  00003	56		 push	 esi
  00004	8b f1		 mov	 esi, ecx

; 977  : 		if (_Inside(_STD addressof(_Val)))

  00006	8b 46 04	 mov	 eax, DWORD PTR [esi+4]
  00009	57		 push	 edi
  0000a	8b 7d 08	 mov	 edi, DWORD PTR __Val$[ebp]
  0000d	3b f8		 cmp	 edi, eax
  0000f	73 2d		 jae	 SHORT $LN4@push_back@2
  00011	8b 0e		 mov	 ecx, DWORD PTR [esi]
  00013	3b cf		 cmp	 ecx, edi
  00015	77 27		 ja	 SHORT $LN4@push_back@2

; 978  : 			{	// push back an element
; 979  : 			size_type _Idx = _STD addressof(_Val) - this->_Myfirst;

  00017	2b f9		 sub	 edi, ecx

; 980  : 			if (this->_Mylast == this->_Myend)

  00019	3b 46 08	 cmp	 eax, DWORD PTR [esi+8]
  0001c	75 09		 jne	 SHORT $LN3@push_back@2

; 981  : 				_Reserve(1);

  0001e	6a 01		 push	 1
  00020	8b ce		 mov	 ecx, esi
  00022	e8 00 00 00 00	 call	 ?_Reserve@?$vector@UtagBaseCharDistanceSq@@V?$allocator@UtagBaseCharDistanceSq@@@std@@@std@@IAEXI@Z ; std::vector<tagBaseCharDistanceSq,std::allocator<tagBaseCharDistanceSq> >::_Reserve
$LN3@push_back@2:

; 982  : 			_Orphan_range(this->_Mylast, this->_Mylast);
; 983  : 			_Cons_val(this->_Alval,
; 984  : 				this->_Mylast,
; 985  : 				this->_Myfirst[_Idx]);

  00027	83 e7 e0	 and	 edi, -32		; ffffffe0H
  0002a	03 3e		 add	 edi, DWORD PTR [esi]
  0002c	8d 46 0c	 lea	 eax, DWORD PTR [esi+12]
  0002f	57		 push	 edi
  00030	ff 76 04	 push	 DWORD PTR [esi+4]
  00033	50		 push	 eax
  00034	e8 00 00 00 00	 call	 ??$_Cons_val@V?$allocator@UtagBaseCharDistanceSq@@@std@@UtagBaseCharDistanceSq@@AAU3@@std@@YAXAAV?$allocator@UtagBaseCharDistanceSq@@@0@PAUtagBaseCharDistanceSq@@AAU2@@Z ; std::_Cons_val<std::allocator<tagBaseCharDistanceSq>,tagBaseCharDistanceSq,tagBaseCharDistanceSq &>
  00039	83 c4 0c	 add	 esp, 12			; 0000000cH

; 986  : 			++this->_Mylast;
; 987  : 			}
; 988  : 		else

  0003c	eb 19		 jmp	 SHORT $LN26@push_back@2
$LN4@push_back@2:

; 989  : 			{	// push back a non-element
; 990  : 			if (this->_Mylast == this->_Myend)

  0003e	3b 46 08	 cmp	 eax, DWORD PTR [esi+8]
  00041	75 09		 jne	 SHORT $LN1@push_back@2

; 991  : 				_Reserve(1);

  00043	6a 01		 push	 1
  00045	8b ce		 mov	 ecx, esi
  00047	e8 00 00 00 00	 call	 ?_Reserve@?$vector@UtagBaseCharDistanceSq@@V?$allocator@UtagBaseCharDistanceSq@@@std@@@std@@IAEXI@Z ; std::vector<tagBaseCharDistanceSq,std::allocator<tagBaseCharDistanceSq> >::_Reserve
$LN1@push_back@2:

; 992  : 			_Orphan_range(this->_Mylast, this->_Mylast);
; 993  : 			_Cons_val(this->_Alval,
; 994  : 				this->_Mylast,
; 995  : 				_Val);

  0004c	57		 push	 edi
  0004d	ff 76 04	 push	 DWORD PTR [esi+4]
  00050	e8 00 00 00 00	 call	 ??$_Construct@UtagBaseCharDistanceSq@@ABU1@@std@@YAXPAUtagBaseCharDistanceSq@@ABU1@@Z ; std::_Construct<tagBaseCharDistanceSq,tagBaseCharDistanceSq const &>
  00055	59		 pop	 ecx
  00056	59		 pop	 ecx
$LN26@push_back@2:

; 996  : 			++this->_Mylast;

  00057	83 46 04 20	 add	 DWORD PTR [esi+4], 32	; 00000020H
  0005b	5f		 pop	 edi
  0005c	5e		 pop	 esi

; 997  : 			}
; 998  : 		}

  0005d	5d		 pop	 ebp
  0005e	c2 04 00	 ret	 4
?push_back@?$vector@UtagBaseCharDistanceSq@@V?$allocator@UtagBaseCharDistanceSq@@@std@@@std@@QAEXABUtagBaseCharDistanceSq@@@Z ENDP ; std::vector<tagBaseCharDistanceSq,std::allocator<tagBaseCharDistanceSq> >::push_back
; Function compile flags: /Ogsp
_TEXT	ENDS
;	COMDAT ??_GioTargetTeleportSkill@@UAEPAXI@Z
_TEXT	SEGMENT
___flags$ = 8						; size = 4
??_GioTargetTeleportSkill@@UAEPAXI@Z PROC		; ioTargetTeleportSkill::`scalar deleting destructor', COMDAT
; _this$ = ecx
  00000	55		 push	 ebp
  00001	8b ec		 mov	 ebp, esp
  00003	56		 push	 esi
  00004	8b f1		 mov	 esi, ecx
  00006	e8 00 00 00 00	 call	 ??1ioTargetTeleportSkill@@UAE@XZ ; ioTargetTeleportSkill::~ioTargetTeleportSkill
  0000b	f6 45 08 01	 test	 BYTE PTR ___flags$[ebp], 1
  0000f	74 07		 je	 SHORT $LN1@scalar@7
  00011	56		 push	 esi
  00012	e8 00 00 00 00	 call	 ??3@YAXPAX@Z		; operator delete
  00017	59		 pop	 ecx
$LN1@scalar@7:
  00018	8b c6		 mov	 eax, esi
  0001a	5e		 pop	 esi
  0001b	5d		 pop	 ebp
  0001c	c2 04 00	 ret	 4
??_GioTargetTeleportSkill@@UAEPAXI@Z ENDP		; ioTargetTeleportSkill::`scalar deleting destructor'
_TEXT	ENDS
PUBLIC	_pStage$GSCopy$
PUBLIC	_pChar$GSCopy$
PUBLIC	?SetTargetList@ioTargetTeleportSkill@@IAEXPAVioBaseChar@@PAVioPlayStage@@@Z ; ioTargetTeleportSkill::SetTargetList
EXTRN	__imp_??8ioHashString@@QBE_NABV0@@Z:PROC
;	COMDAT xdata$x
xdata$x	SEGMENT
__unwindtable$?SetTargetList@ioTargetTeleportSkill@@IAEXPAVioBaseChar@@PAVioPlayStage@@@Z DD 0ffffffffH
	DD	FLAT:__unwindfunclet$?SetTargetList@ioTargetTeleportSkill@@IAEXPAVioBaseChar@@PAVioPlayStage@@@Z$0
	DD	00H
	DD	FLAT:__unwindfunclet$?SetTargetList@ioTargetTeleportSkill@@IAEXPAVioBaseChar@@PAVioPlayStage@@@Z$1
__ehfuncinfo$?SetTargetList@ioTargetTeleportSkill@@IAEXPAVioBaseChar@@PAVioPlayStage@@@Z DD 019930522H
	DD	02H
	DD	FLAT:__unwindtable$?SetTargetList@ioTargetTeleportSkill@@IAEXPAVioBaseChar@@PAVioPlayStage@@@Z
	DD	2 DUP(00H)
	DD	2 DUP(00H)
	DD	00H
	DD	01H
; Function compile flags: /Ogsp
; File d:\lost saga for developer\youtube\tutorial\source\src\lsclient\iotargetteleportskill.cpp
xdata$x	ENDS
;	COMDAT ?SetTargetList@ioTargetTeleportSkill@@IAEXPAVioBaseChar@@PAVioPlayStage@@@Z
_TEXT	SEGMENT
tv658 = -108						; size = 4
_value$539475 = -104					; size = 4
$T539490 = -100						; size = 4
$T539489 = -96						; size = 4
_kDistanceSqList$ = -92					; size = 16
_pStage$GSCopy$ = -76					; size = 4
_value$539462 = -72					; size = 4
_value$539289 = -72					; size = 4
$T539278 = -68						; size = 1
$T539488 = -68						; size = 4
$T539352 = -68						; size = 4
_pChar$GSCopy$ = -64					; size = 4
_kInfo$531215 = -60					; size = 32
_vPos$ = -28						; size = 12
$T530785 = -28						; size = 12
__$EHRec$ = -12						; size = 12
_pChar$ = 8						; size = 4
_pStage$ = 12						; size = 4
?SetTargetList@ioTargetTeleportSkill@@IAEXPAVioBaseChar@@PAVioPlayStage@@@Z PROC ; ioTargetTeleportSkill::SetTargetList, COMDAT
; _this$ = ecx

; 366  : {

  00000	6a 60		 push	 96			; 00000060H
  00002	b8 00 00 00 00	 mov	 eax, __ehhandler$?SetTargetList@ioTargetTeleportSkill@@IAEXPAVioBaseChar@@PAVioPlayStage@@@Z
  00007	e8 00 00 00 00	 call	 __EH_prolog3_GS
  0000c	8b 7d 08	 mov	 edi, DWORD PTR _pChar$[ebp]
  0000f	8b 75 0c	 mov	 esi, DWORD PTR _pStage$[ebp]
  00012	8b d9		 mov	 ebx, ecx

; 419  : 		SelectNextTarget( pChar, pStage );

  00014	89 7d c0	 mov	 DWORD PTR _pChar$GSCopy$[ebp], edi
  00017	89 75 b4	 mov	 DWORD PTR _pStage$GSCopy$[ebp], esi
  0001a	85 ff		 test	 edi, edi
  0001c	0f 84 36 02 00
	00		 je	 $LN14@SetTargetL

; 367  : 	if( !pChar || !pStage )

  00022	85 f6		 test	 esi, esi
  00024	0f 84 2e 02 00
	00		 je	 $LN14@SetTargetL

; 368  : 		return;
; 369  : 
; 370  : 	if( !pChar->IsNeedProcess() )

  0002a	8b 07		 mov	 eax, DWORD PTR [edi]
  0002c	8b cf		 mov	 ecx, edi
  0002e	ff 90 00 01 00
	00		 call	 DWORD PTR [eax+256]
  00034	84 c0		 test	 al, al
  00036	0f 84 1c 02 00
	00		 je	 $LN14@SetTargetL

; 371  : 		return;
; 372  : 
; 373  : 	ioPlayMode *pMode = pStage->GetPlayMode();

  0003c	8b b6 10 01 00
	00		 mov	 esi, DWORD PTR [esi+272]

; 374  : 	if( !pMode )

  00042	85 f6		 test	 esi, esi
  00044	0f 84 0e 02 00
	00		 je	 $LN14@SetTargetL

; 375  : 		return;
; 376  : 
; 377  : 	m_iCurTargetIndex = -1;

  0004a	83 4d b8 ff	 or	 DWORD PTR _value$539289[ebp], -1
  0004e	8d 45 b8	 lea	 eax, DWORD PTR _value$539289[ebp]
  00051	50		 push	 eax
  00052	8d 8b 0c 10 00
	00		 lea	 ecx, DWORD PTR [ebx+4108]
  00058	e8 00 00 00 00	 call	 ?EncryptValueToPool@?$CEncrypt@H@@AAEXPBD@Z ; CEncrypt<int>::EncryptValueToPool

; 378  : 	m_CurTargetName.Clear();

  0005d	8d 8b ec 0f 00
	00		 lea	 ecx, DWORD PTR [ebx+4076]
  00063	ff 15 00 00 00
	00		 call	 DWORD PTR __imp_?Clear@ioHashString@@QAEXXZ

; 379  : 	m_TargetCharList.clear();

  00069	8d 8b fc 0f 00
	00		 lea	 ecx, DWORD PTR [ebx+4092]
  0006f	8b 41 04	 mov	 eax, DWORD PTR [ecx+4]
  00072	8b 11		 mov	 edx, DWORD PTR [ecx]
  00074	50		 push	 eax
  00075	52		 push	 edx
  00076	8d 45 bc	 lea	 eax, DWORD PTR $T539352[ebp]
  00079	50		 push	 eax
  0007a	e8 00 00 00 00	 call	 ?erase@?$vector@VioHashString@@V?$allocator@VioHashString@@@std@@@std@@QAE?AV?$_Vector_iterator@V?$_Vector_val@VioHashString@@V?$allocator@VioHashString@@@std@@@std@@@2@V?$_Vector_const_iterator@V?$_Vector_val@VioHashString@@V?$allocator@VioHashString@@@std@@@std@@@2@0@Z ; std::vector<ioHashString,std::allocator<ioHashString> >::erase

; 380  : 	m_vBasePos = pMode->GetRevivalPos( pChar );

  0007f	8b 06		 mov	 eax, DWORD PTR [esi]
  00081	57		 push	 edi
  00082	8d 4d e4	 lea	 ecx, DWORD PTR $T530785[ebp]
  00085	51		 push	 ecx
  00086	8b ce		 mov	 ecx, esi
  00088	ff 90 b8 01 00
	00		 call	 DWORD PTR [eax+440]

; 381  : 
; 382  : 	D3DXVECTOR3 vPos = pChar->GetWorldPosition();

  0008e	8b 4d c0	 mov	 ecx, DWORD PTR _pChar$GSCopy$[ebp]
  00091	8b f0		 mov	 esi, eax
  00093	8d bb d4 0f 00
	00		 lea	 edi, DWORD PTR [ebx+4052]
  00099	a5		 movsd
  0009a	a5		 movsd
  0009b	a5		 movsd
  0009c	8b 01		 mov	 eax, DWORD PTR [ecx]
  0009e	ff 50 70	 call	 DWORD PTR [eax+112]
  000a1	8b f0		 mov	 esi, eax
  000a3	8d 7d e4	 lea	 edi, DWORD PTR _vPos$[ebp]
  000a6	a5		 movsd
  000a7	a5		 movsd

; 383  : 
; 384  : 	BaseCharDistanceSqList kDistanceSqList;

  000a8	33 c0		 xor	 eax, eax
  000aa	a5		 movsd
  000ab	89 45 a4	 mov	 DWORD PTR _kDistanceSqList$[ebp], eax
  000ae	89 45 a8	 mov	 DWORD PTR _kDistanceSqList$[ebp+4], eax
  000b1	89 45 ac	 mov	 DWORD PTR _kDistanceSqList$[ebp+8], eax
  000b4	89 45 fc	 mov	 DWORD PTR __$EHRec$[ebp+8], eax

; 385  : 
; 386  : 	const BaseCharList &rkTargetList = pStage->GetBaseCharList();
; 387  : 	BaseCharList::const_iterator iter;
; 388  : 	for( iter = rkTargetList.begin(); iter != rkTargetList.end(); ++iter )

  000b7	8b 45 b4	 mov	 eax, DWORD PTR _pStage$GSCopy$[ebp]
  000ba	8b 78 2c	 mov	 edi, DWORD PTR [eax+44]
  000bd	3b 78 30	 cmp	 edi, DWORD PTR [eax+48]
  000c0	0f 84 6b 01 00
	00		 je	 $LN2@SetTargetL
$LN60@SetTargetL:

; 389  : 	{
; 390  : 		ioBaseChar *pTarChar = (*iter);

  000c6	8b 37		 mov	 esi, DWORD PTR [edi]

; 391  : 
; 392  : 		if( !pTarChar ) continue;

  000c8	85 f6		 test	 esi, esi
  000ca	0f 84 13 01 00
	00		 je	 $LN10@SetTargetL

; 393  : 		if( pTarChar->GetTeam() != pChar->GetTeam() )

  000d0	8d 45 b8	 lea	 eax, DWORD PTR _value$539462[ebp]
  000d3	8d 8e 90 00 00
	00		 lea	 ecx, DWORD PTR [esi+144]
  000d9	50		 push	 eax
  000da	e8 00 00 00 00	 call	 ?DecryptValueToPool@?$CEncrypt@W4TeamType@@@@QAEXPAW4TeamType@@@Z ; CEncrypt<enum TeamType>::DecryptValueToPool
  000df	8b 4d c0	 mov	 ecx, DWORD PTR _pChar$GSCopy$[ebp]
  000e2	8d 45 98	 lea	 eax, DWORD PTR _value$539475[ebp]
  000e5	81 c1 90 00 00
	00		 add	 ecx, 144		; 00000090H
  000eb	50		 push	 eax
  000ec	e8 00 00 00 00	 call	 ?DecryptValueToPool@?$CEncrypt@W4TeamType@@@@QAEXPAW4TeamType@@@Z ; CEncrypt<enum TeamType>::DecryptValueToPool
  000f1	8b 45 b8	 mov	 eax, DWORD PTR _value$539462[ebp]
  000f4	3b 45 98	 cmp	 eax, DWORD PTR _value$539475[ebp]
  000f7	0f 85 e6 00 00
	00		 jne	 $LN10@SetTargetL

; 394  : 			continue;
; 395  : 		if( pTarChar->GetCharName() == pChar->GetCharName() )

  000fd	8b 45 c0	 mov	 eax, DWORD PTR _pChar$GSCopy$[ebp]
  00100	05 d4 02 00 00	 add	 eax, 724		; 000002d4H
  00105	8d 8e d4 02 00
	00		 lea	 ecx, DWORD PTR [esi+724]
  0010b	50		 push	 eax
  0010c	89 4d 94	 mov	 DWORD PTR tv658[ebp], ecx
  0010f	ff 15 00 00 00
	00		 call	 DWORD PTR __imp_??8ioHashString@@QBE_NABV0@@Z
  00115	84 c0		 test	 al, al
  00117	0f 85 c6 00 00
	00		 jne	 $LN10@SetTargetL

; 396  : 			continue;
; 397  : 
; 398  : 		BaseCharDistanceSq kInfo;

  0011d	8d 4d c4	 lea	 ecx, DWORD PTR _kInfo$531215[ebp]
  00120	e8 00 00 00 00	 call	 ??0tagBaseCharDistanceSq@@QAE@XZ ; tagBaseCharDistanceSq::tagBaseCharDistanceSq

; 399  : 
; 400  : 		D3DXVECTOR3 vDiff = vPos - pTarChar->GetWorldPosition();

  00125	8b 06		 mov	 eax, DWORD PTR [esi]
  00127	8b ce		 mov	 ecx, esi
  00129	c6 45 fc 01	 mov	 BYTE PTR __$EHRec$[ebp+8], 1
  0012d	ff 50 70	 call	 DWORD PTR [eax+112]
  00130	f3 0f 10 45 e4	 movss	 xmm0, DWORD PTR _vPos$[ebp]
  00135	f3 0f 10 08	 movss	 xmm1, DWORD PTR [eax]

; 401  : 		kInfo.m_Name = pTarChar->GetCharName();

  00139	ff 75 94	 push	 DWORD PTR tv658[ebp]
  0013c	0f 5a c0	 cvtps2pd xmm0, xmm0
  0013f	0f 5a c9	 cvtps2pd xmm1, xmm1
  00142	f2 0f 5c c1	 subsd	 xmm0, xmm1
  00146	f3 0f 10 48 04	 movss	 xmm1, DWORD PTR [eax+4]
  0014b	f2 0f 5a c0	 cvtsd2ss xmm0, xmm0
  0014f	f3 0f 11 45 9c	 movss	 DWORD PTR $T539490[ebp], xmm0
  00154	f3 0f 10 45 e8	 movss	 xmm0, DWORD PTR _vPos$[ebp+4]
  00159	0f 5a c0	 cvtps2pd xmm0, xmm0
  0015c	0f 5a c9	 cvtps2pd xmm1, xmm1
  0015f	f2 0f 5c c1	 subsd	 xmm0, xmm1
  00163	f3 0f 10 48 08	 movss	 xmm1, DWORD PTR [eax+8]
  00168	f2 0f 5a c0	 cvtsd2ss xmm0, xmm0
  0016c	f3 0f 11 45 a0	 movss	 DWORD PTR $T539489[ebp], xmm0
  00171	f3 0f 10 45 ec	 movss	 xmm0, DWORD PTR _vPos$[ebp+8]
  00176	0f 5a c0	 cvtps2pd xmm0, xmm0
  00179	0f 5a c9	 cvtps2pd xmm1, xmm1
  0017c	f2 0f 5c c1	 subsd	 xmm0, xmm1
  00180	f2 0f 5a c0	 cvtsd2ss xmm0, xmm0
  00184	8d 4d c4	 lea	 ecx, DWORD PTR _kInfo$531215[ebp]
  00187	f3 0f 11 45 bc	 movss	 DWORD PTR $T539488[ebp], xmm0
  0018c	ff 15 00 00 00
	00		 call	 DWORD PTR __imp_??4ioHashString@@QAEAAV0@ABV0@@Z

; 402  : 		kInfo.m_fDistanceSq = D3DXVec3LengthSq( &vDiff );

  00192	f3 0f 10 45 a0	 movss	 xmm0, DWORD PTR $T539489[ebp]
  00197	f3 0f 10 4d 9c	 movss	 xmm1, DWORD PTR $T539490[ebp]
  0019c	f3 0f 10 55 bc	 movss	 xmm2, DWORD PTR $T539488[ebp]
  001a1	0f 5a c0	 cvtps2pd xmm0, xmm0
  001a4	0f 5a c9	 cvtps2pd xmm1, xmm1
  001a7	f2 0f 59 c0	 mulsd	 xmm0, xmm0
  001ab	f2 0f 59 c9	 mulsd	 xmm1, xmm1
  001af	f2 0f 58 c8	 addsd	 xmm1, xmm0
  001b3	0f 5a d2	 cvtps2pd xmm2, xmm2
  001b6	f2 0f 59 d2	 mulsd	 xmm2, xmm2

; 403  : 
; 404  : 		kDistanceSqList.push_back( kInfo );

  001ba	8d 45 c4	 lea	 eax, DWORD PTR _kInfo$531215[ebp]
  001bd	f2 0f 58 ca	 addsd	 xmm1, xmm2
  001c1	0f 57 c0	 xorps	 xmm0, xmm0
  001c4	f2 0f 5a c1	 cvtsd2ss xmm0, xmm1
  001c8	50		 push	 eax
  001c9	8d 4d a4	 lea	 ecx, DWORD PTR _kDistanceSqList$[ebp]
  001cc	f3 0f 11 45 d4	 movss	 DWORD PTR _kInfo$531215[ebp+16], xmm0
  001d1	e8 00 00 00 00	 call	 ?push_back@?$vector@UtagBaseCharDistanceSq@@V?$allocator@UtagBaseCharDistanceSq@@@std@@@std@@QAEXABUtagBaseCharDistanceSq@@@Z ; std::vector<tagBaseCharDistanceSq,std::allocator<tagBaseCharDistanceSq> >::push_back

; 405  : 	}

  001d6	8d 4d c4	 lea	 ecx, DWORD PTR _kInfo$531215[ebp]
  001d9	c6 45 fc 00	 mov	 BYTE PTR __$EHRec$[ebp+8], 0
  001dd	ff 15 00 00 00
	00		 call	 DWORD PTR __imp_??1ioHashString@@QAE@XZ
$LN10@SetTargetL:

; 385  : 
; 386  : 	const BaseCharList &rkTargetList = pStage->GetBaseCharList();
; 387  : 	BaseCharList::const_iterator iter;
; 388  : 	for( iter = rkTargetList.begin(); iter != rkTargetList.end(); ++iter )

  001e3	8b 45 b4	 mov	 eax, DWORD PTR _pStage$GSCopy$[ebp]
  001e6	83 c7 04	 add	 edi, 4
  001e9	3b 78 30	 cmp	 edi, DWORD PTR [eax+48]
  001ec	0f 85 d4 fe ff
	ff		 jne	 $LN60@SetTargetL

; 406  : 
; 407  : 	if( !kDistanceSqList.empty() )

  001f2	8b 45 a4	 mov	 eax, DWORD PTR _kDistanceSqList$[ebp]
  001f5	3b 45 a8	 cmp	 eax, DWORD PTR _kDistanceSqList$[ebp+4]
  001f8	74 37		 je	 SHORT $LN2@SetTargetL

; 408  : 	{
; 409  : 		std::sort( kDistanceSqList.begin(), kDistanceSqList.end(), BaseCharDistanceSqSort() );

  001fa	ff 75 bc	 push	 DWORD PTR $T539278[ebp]
  001fd	ff 75 a8	 push	 DWORD PTR _kDistanceSqList$[ebp+4]
  00200	50		 push	 eax
  00201	e8 00 00 00 00	 call	 ??$sort@V?$_Vector_iterator@V?$_Vector_val@UtagBaseCharDistanceSq@@V?$allocator@UtagBaseCharDistanceSq@@@std@@@std@@@std@@VBaseCharDistanceSqSort@@@std@@YAXV?$_Vector_iterator@V?$_Vector_val@UtagBaseCharDistanceSq@@V?$allocator@UtagBaseCharDistanceSq@@@std@@@std@@@0@0VBaseCharDistanceSqSort@@@Z ; std::sort<std::_Vector_iterator<std::_Vector_val<tagBaseCharDistanceSq,std::allocator<tagBaseCharDistanceSq> > >,BaseCharDistanceSqSort>

; 410  : 
; 411  : 		int iListCnt = kDistanceSqList.size();

  00206	8b 45 a8	 mov	 eax, DWORD PTR _kDistanceSqList$[ebp+4]
  00209	2b 45 a4	 sub	 eax, DWORD PTR _kDistanceSqList$[ebp]
  0020c	83 c4 0c	 add	 esp, 12			; 0000000cH
  0020f	c1 f8 05	 sar	 eax, 5

; 412  : 		for( int i=0; i < iListCnt; ++i )

  00212	85 c0		 test	 eax, eax
  00214	7e 1b		 jle	 SHORT $LN2@SetTargetL

; 408  : 	{
; 409  : 		std::sort( kDistanceSqList.begin(), kDistanceSqList.end(), BaseCharDistanceSqSort() );

  00216	33 f6		 xor	 esi, esi
  00218	8b f8		 mov	 edi, eax
$LN4@SetTargetL:

; 412  : 		for( int i=0; i < iListCnt; ++i )

  0021a	8b 45 a4	 mov	 eax, DWORD PTR _kDistanceSqList$[ebp]
  0021d	03 c6		 add	 eax, esi

; 413  : 		{
; 414  : 			m_TargetCharList.push_back( kDistanceSqList[i].m_Name );

  0021f	50		 push	 eax
  00220	8d 8b fc 0f 00
	00		 lea	 ecx, DWORD PTR [ebx+4092]
  00226	e8 00 00 00 00	 call	 ?push_back@?$vector@VioHashString@@V?$allocator@VioHashString@@@std@@@std@@QAEXABVioHashString@@@Z ; std::vector<ioHashString,std::allocator<ioHashString> >::push_back
  0022b	83 c6 20	 add	 esi, 32			; 00000020H
  0022e	4f		 dec	 edi
  0022f	75 e9		 jne	 SHORT $LN4@SetTargetL
$LN2@SetTargetL:

; 415  : 		}
; 416  : 	}
; 417  : 
; 418  : 	if( !m_TargetCharList.empty() )

  00231	8b 8b fc 0f 00
	00		 mov	 ecx, DWORD PTR [ebx+4092]
  00237	3b 8b 00 10 00
	00		 cmp	 ecx, DWORD PTR [ebx+4096]
  0023d	74 0d		 je	 SHORT $LN1@SetTargetL

; 419  : 		SelectNextTarget( pChar, pStage );

  0023f	ff 75 b4	 push	 DWORD PTR _pStage$GSCopy$[ebp]
  00242	8b cb		 mov	 ecx, ebx
  00244	ff 75 c0	 push	 DWORD PTR _pChar$GSCopy$[ebp]
  00247	e8 00 00 00 00	 call	 ?SelectNextTarget@ioTargetTeleportSkill@@IAEXPAVioBaseChar@@PAVioPlayStage@@@Z ; ioTargetTeleportSkill::SelectNextTarget
$LN1@SetTargetL:

; 420  : }

  0024c	83 4d fc ff	 or	 DWORD PTR __$EHRec$[ebp+8], -1
  00250	8d 4d a4	 lea	 ecx, DWORD PTR _kDistanceSqList$[ebp]
  00253	e8 00 00 00 00	 call	 ?_Tidy@?$vector@UtagBaseCharDistanceSq@@V?$allocator@UtagBaseCharDistanceSq@@@std@@@std@@IAEXXZ ; std::vector<tagBaseCharDistanceSq,std::allocator<tagBaseCharDistanceSq> >::_Tidy
$LN14@SetTargetL:
  00258	e8 00 00 00 00	 call	 __EH_epilog3_GS
  0025d	c2 08 00	 ret	 8
_TEXT	ENDS
;	COMDAT text$x
text$x	SEGMENT
__unwindfunclet$?SetTargetList@ioTargetTeleportSkill@@IAEXPAVioBaseChar@@PAVioPlayStage@@@Z$0:
  00000	8d 4d a4	 lea	 ecx, DWORD PTR _kDistanceSqList$[ebp]
  00003	e9 00 00 00 00	 jmp	 ??1?$vector@UtagBaseCharDistanceSq@@V?$allocator@UtagBaseCharDistanceSq@@@std@@@std@@QAE@XZ ; std::vector<tagBaseCharDistanceSq,std::allocator<tagBaseCharDistanceSq> >::~vector<tagBaseCharDistanceSq,std::allocator<tagBaseCharDistanceSq> >
__unwindfunclet$?SetTargetList@ioTargetTeleportSkill@@IAEXPAVioBaseChar@@PAVioPlayStage@@@Z$1:
  00008	8d 4d c4	 lea	 ecx, DWORD PTR _kInfo$531215[ebp]
  0000b	e9 00 00 00 00	 jmp	 ??1tagBaseCharDistanceSq@@QAE@XZ
__ehhandler$?SetTargetList@ioTargetTeleportSkill@@IAEXPAVioBaseChar@@PAVioPlayStage@@@Z:
  00010	8b 54 24 08	 mov	 edx, DWORD PTR [esp+8]
  00014	8d 42 0c	 lea	 eax, DWORD PTR [edx+12]
  00017	8b 4a 90	 mov	 ecx, DWORD PTR [edx-112]
  0001a	33 c8		 xor	 ecx, eax
  0001c	e8 00 00 00 00	 call	 @__security_check_cookie@4
  00021	8b 4a fc	 mov	 ecx, DWORD PTR [edx-4]
  00024	33 c8		 xor	 ecx, eax
  00026	e8 00 00 00 00	 call	 @__security_check_cookie@4
  0002b	b8 00 00 00 00	 mov	 eax, OFFSET __ehfuncinfo$?SetTargetList@ioTargetTeleportSkill@@IAEXPAVioBaseChar@@PAVioPlayStage@@@Z
  00030	e9 00 00 00 00	 jmp	 ___CxxFrameHandler3
text$x	ENDS
?SetTargetList@ioTargetTeleportSkill@@IAEXPAVioBaseChar@@PAVioPlayStage@@@Z ENDP ; ioTargetTeleportSkill::SetTargetList
PUBLIC	?SetWaitState@ioTargetTeleportSkill@@IAEXPAVioBaseChar@@PAVioPlayStage@@@Z ; ioTargetTeleportSkill::SetWaitState
; Function compile flags: /Ogsp
;	COMDAT ?SetWaitState@ioTargetTeleportSkill@@IAEXPAVioBaseChar@@PAVioPlayStage@@@Z
_TEXT	SEGMENT
_value$539597 = -4					; size = 4
_pChar$ = 8						; size = 4
_pStage$ = 12						; size = 4
?SetWaitState@ioTargetTeleportSkill@@IAEXPAVioBaseChar@@PAVioPlayStage@@@Z PROC ; ioTargetTeleportSkill::SetWaitState, COMDAT
; _this$ = ecx

; 238  : {

  00000	55		 push	 ebp
  00001	8b ec		 mov	 ebp, esp
  00003	51		 push	 ecx
  00004	56		 push	 esi
  00005	8b f1		 mov	 esi, ecx
  00007	57		 push	 edi

; 239  : 	m_SkillState = SS_WAIT;

  00008	c7 86 58 0f 00
	00 01 00 00 00	 mov	 DWORD PTR [esi+3928], 1

; 240  : 
; 241  : 	DWORD dwCurTime = FRAMEGETTIME();

  00012	ff 15 00 00 00
	00		 call	 DWORD PTR __imp_?GetSingleton@ioFrameTimer@@SAAAV1@XZ
  00018	8b c8		 mov	 ecx, eax
  0001a	ff 15 00 00 00
	00		 call	 DWORD PTR __imp_?GetLoopSec@ioFrameTimer@@QBEKXZ

; 242  : 	m_dwWaitStartTime = dwCurTime;

  00020	89 45 fc	 mov	 DWORD PTR _value$539597[ebp], eax
  00023	8d 45 fc	 lea	 eax, DWORD PTR _value$539597[ebp]
  00026	50		 push	 eax
  00027	8d 8e 5c 0f 00
	00		 lea	 ecx, DWORD PTR [esi+3932]
  0002d	e8 00 00 00 00	 call	 ?EncryptValueToPool@?$CEncrypt@K@@AAEXPBD@Z ; CEncrypt<unsigned long>::EncryptValueToPool

; 243  : 
; 244  : 	SetTargetList( pChar, pStage );

  00032	ff 75 0c	 push	 DWORD PTR _pStage$[ebp]
  00035	8b 7d 08	 mov	 edi, DWORD PTR _pChar$[ebp]
  00038	57		 push	 edi
  00039	8b ce		 mov	 ecx, esi
  0003b	e8 00 00 00 00	 call	 ?SetTargetList@ioTargetTeleportSkill@@IAEXPAVioBaseChar@@PAVioPlayStage@@@Z ; ioTargetTeleportSkill::SetTargetList

; 245  : 
; 246  : 	if( pChar && pChar->IsNeedProcess() )

  00040	85 ff		 test	 edi, edi
  00042	74 16		 je	 SHORT $LN1@SetWaitSta
  00044	8b 07		 mov	 eax, DWORD PTR [edi]
  00046	8b cf		 mov	 ecx, edi
  00048	ff 90 00 01 00
	00		 call	 DWORD PTR [eax+256]
  0004e	84 c0		 test	 al, al
  00050	74 08		 je	 SHORT $LN1@SetWaitSta

; 247  : 		SetTargetMapEffect( pChar );

  00052	57		 push	 edi
  00053	8b ce		 mov	 ecx, esi
  00055	e8 00 00 00 00	 call	 ?SetTargetMapEffect@ioTargetTeleportSkill@@IAEXPAVioBaseChar@@@Z ; ioTargetTeleportSkill::SetTargetMapEffect
$LN1@SetWaitSta:
  0005a	5f		 pop	 edi
  0005b	5e		 pop	 esi

; 248  : }

  0005c	c9		 leave
  0005d	c2 08 00	 ret	 8
?SetWaitState@ioTargetTeleportSkill@@IAEXPAVioBaseChar@@PAVioPlayStage@@@Z ENDP ; ioTargetTeleportSkill::SetWaitState
_TEXT	ENDS
EXTRN	?SetSkillNameChatBubble@ioSkill@@IAEXPAVioBaseChar@@@Z:PROC ; ioSkill::SetSkillNameChatBubble
EXTRN	?CheckSkillDesc@ioSkill@@IAEXPAVioBaseChar@@@Z:PROC ; ioSkill::CheckSkillDesc
EXTRN	?AddNewBuff@ioBaseChar@@QAEPAVioBuff@@ABVioHashString@@00PAVioSkill@@_N@Z:PROC ; ioBaseChar::AddNewBuff
EXTRN	?GetPlayStage@ioSkillMaker@@QAEPAVioPlayStage@@XZ:PROC ; ioSkillMaker::GetPlayStage
EXTRN	?GetSingleton@ioSkillMaker@@SAAAV1@XZ:PROC	; ioSkillMaker::GetSingleton
EXTRN	?SetSkillProtection@ioBaseChar@@QAEXXZ:PROC	; ioBaseChar::SetSkillProtection
EXTRN	?AttachEffect@ioBaseChar@@QAEPAVioEffect@@ABVioHashString@@PAVioEntityEvent@@_N@Z:PROC ; ioBaseChar::AttachEffect
;	COMDAT xdata$x
; File d:\lost saga for developer\youtube\tutorial\source\src\lsclient\encryptvalue.h
xdata$x	SEGMENT
__unwindtable$?OnSkillStart@ioTargetTeleportSkill@@UAE_NPAVioBaseChar@@@Z DD 0ffffffffH
	DD	FLAT:__unwindfunclet$?OnSkillStart@ioTargetTeleportSkill@@UAE_NPAVioBaseChar@@@Z$0
	DD	00H
	DD	FLAT:__unwindfunclet$?OnSkillStart@ioTargetTeleportSkill@@UAE_NPAVioBaseChar@@@Z$1
__ehfuncinfo$?OnSkillStart@ioTargetTeleportSkill@@UAE_NPAVioBaseChar@@@Z DD 019930522H
	DD	02H
	DD	FLAT:__unwindtable$?OnSkillStart@ioTargetTeleportSkill@@UAE_NPAVioBaseChar@@@Z
	DD	2 DUP(00H)
	DD	2 DUP(00H)
	DD	00H
	DD	01H
; Function compile flags: /Ogsp
; File d:\lost saga for developer\youtube\tutorial\source\src\lsclient\iotargetteleportskill.cpp
xdata$x	ENDS
;	COMDAT ?OnSkillStart@ioTargetTeleportSkill@@UAE_NPAVioBaseChar@@@Z
_TEXT	SEGMENT
$T539601 = -52						; size = 16
$T539602 = -36						; size = 16
_value$539713 = -20					; size = 4
_value$539696 = -20					; size = 4
_value$539692 = -20					; size = 4
$T539679 = -20						; size = 4
_value$539607 = -20					; size = 4
_value$539701 = -13					; size = 1
__$EHRec$ = -12						; size = 12
_pChar$ = 8						; size = 4
?OnSkillStart@ioTargetTeleportSkill@@UAE_NPAVioBaseChar@@@Z PROC ; ioTargetTeleportSkill::OnSkillStart, COMDAT
; _this$ = ecx

; 83   : {	

  00000	6a 28		 push	 40			; 00000028H
  00002	b8 00 00 00 00	 mov	 eax, __ehhandler$?OnSkillStart@ioTargetTeleportSkill@@UAE_NPAVioBaseChar@@@Z
  00007	e8 00 00 00 00	 call	 __EH_prolog3
  0000c	8b d9		 mov	 ebx, ecx

; 84   : 	if( !HasSkillMotion() )

  0000e	8b 03		 mov	 eax, DWORD PTR [ebx]
  00010	ff 90 24 01 00
	00		 call	 DWORD PTR [eax+292]
  00016	84 c0		 test	 al, al
  00018	75 07		 jne	 SHORT $LN6@OnSkillSta
$LN44@OnSkillSta:

; 85   : 		return false;

  0001a	32 c0		 xor	 al, al
  0001c	e9 d6 01 00 00	 jmp	 $LN7@OnSkillSta
$LN6@OnSkillSta:

; 86   : 
; 87   : 	m_dwWaitStartTime = 0;

  00021	8d 45 ec	 lea	 eax, DWORD PTR _value$539607[ebp]
  00024	33 f6		 xor	 esi, esi
  00026	50		 push	 eax
  00027	8d 8b 5c 0f 00
	00		 lea	 ecx, DWORD PTR [ebx+3932]
  0002d	89 75 ec	 mov	 DWORD PTR _value$539607[ebp], esi
  00030	e8 00 00 00 00	 call	 ?EncryptValueToPool@?$CEncrypt@K@@AAEXPBD@Z ; CEncrypt<unsigned long>::EncryptValueToPool

; 88   : 	m_dwAttackEndTime = 0;

  00035	89 b3 bc 0f 00
	00		 mov	 DWORD PTR [ebx+4028], esi

; 89   : 	m_dwTargetMapEffect = 0;

  0003b	89 b3 8c 10 00
	00		 mov	 DWORD PTR [ebx+4236], esi

; 90   : 	m_SkillState = SS_NONE;

  00041	89 b3 58 0f 00
	00		 mov	 DWORD PTR [ebx+3928], esi

; 91   : 
; 92   : 	m_vBasePos = ioMath::VEC3_ZERO;

  00047	8b 35 00 00 00
	00		 mov	 esi, DWORD PTR __imp_?VEC3_ZERO@ioMath@@2UD3DXVECTOR3@@A
  0004d	8d bb d4 0f 00
	00		 lea	 edi, DWORD PTR [ebx+4052]
  00053	a5		 movsd
  00054	a5		 movsd
  00055	a5		 movsd

; 93   : 	m_vTargetPos = ioMath::VEC3_ZERO;

  00056	8b 35 00 00 00
	00		 mov	 esi, DWORD PTR __imp_?VEC3_ZERO@ioMath@@2UD3DXVECTOR3@@A
  0005c	8d bb e0 0f 00
	00		 lea	 edi, DWORD PTR [ebx+4064]
  00062	a5		 movsd
  00063	a5		 movsd

; 94   : 
; 95   : 	m_CurTargetName.Clear();

  00064	8d 8b ec 0f 00
	00		 lea	 ecx, DWORD PTR [ebx+4076]
  0006a	a5		 movsd
  0006b	ff 15 00 00 00
	00		 call	 DWORD PTR __imp_?Clear@ioHashString@@QAEXXZ

; 96   : 	m_TargetCharList.clear();

  00071	8d 8b fc 0f 00
	00		 lea	 ecx, DWORD PTR [ebx+4092]
  00077	8b 41 04	 mov	 eax, DWORD PTR [ecx+4]
  0007a	8b 11		 mov	 edx, DWORD PTR [ecx]
  0007c	50		 push	 eax
  0007d	52		 push	 edx
  0007e	8d 45 ec	 lea	 eax, DWORD PTR $T539679[ebp]
  00081	50		 push	 eax
  00082	e8 00 00 00 00	 call	 ?erase@?$vector@VioHashString@@V?$allocator@VioHashString@@@std@@@std@@QAE?AV?$_Vector_iterator@V?$_Vector_val@VioHashString@@V?$allocator@VioHashString@@@std@@@std@@@2@V?$_Vector_const_iterator@V?$_Vector_val@VioHashString@@V?$allocator@VioHashString@@@std@@@std@@@2@0@Z ; std::vector<ioHashString,std::allocator<ioHashString> >::erase

; 97   : 
; 98   : 	m_iCurTargetIndex = -1;

  00087	83 4d ec ff	 or	 DWORD PTR _value$539692[ebp], -1
  0008b	8d 45 ec	 lea	 eax, DWORD PTR _value$539692[ebp]
  0008e	50		 push	 eax
  0008f	8d 8b 0c 10 00
	00		 lea	 ecx, DWORD PTR [ebx+4108]
  00095	e8 00 00 00 00	 call	 ?EncryptValueToPool@?$CEncrypt@H@@AAEXPBD@Z ; CEncrypt<int>::EncryptValueToPool

; 99   : 
; 100  : 	pChar->AttachEffect( m_SkillEffectName );

  0009a	8b 4d 08	 mov	 ecx, DWORD PTR _pChar$[ebp]
  0009d	6a 01		 push	 1
  0009f	33 f6		 xor	 esi, esi
  000a1	56		 push	 esi
  000a2	8d 83 b8 01 00
	00		 lea	 eax, DWORD PTR [ebx+440]
  000a8	50		 push	 eax
  000a9	e8 00 00 00 00	 call	 ?AttachEffect@ioBaseChar@@QAEPAVioEffect@@ABVioHashString@@PAVioEntityEvent@@_N@Z ; ioBaseChar::AttachEffect

; 101  : 
; 102  : 	if( !StartPreDelayAnimation( pChar ) )	// Delay Animation 

  000ae	ff 75 08	 push	 DWORD PTR _pChar$[ebp]
  000b1	8b 03		 mov	 eax, DWORD PTR [ebx]
  000b3	8b cb		 mov	 ecx, ebx
  000b5	ff 90 88 01 00
	00		 call	 DWORD PTR [eax+392]
  000bb	84 c0		 test	 al, al

; 103  : 		return false;

  000bd	0f 84 57 ff ff
	ff		 je	 $LN44@OnSkillSta

; 104  : 
; 105  : 	m_dwEnableSwitchTime = 0;
; 106  : 	m_dwEnableSemiSwitchTime = 0;
; 107  : 
; 108  : 	if( m_dwSwitchSkill > 0 )

  000c3	39 b3 58 03 00
	00		 cmp	 DWORD PTR [ebx+856], esi
  000c9	89 b3 5c 03 00
	00		 mov	 DWORD PTR [ebx+860], esi
  000cf	89 b3 64 03 00
	00		 mov	 DWORD PTR [ebx+868], esi
  000d5	8b 35 00 00 00
	00		 mov	 esi, DWORD PTR __imp_?GetSingleton@ioFrameTimer@@SAAAV1@XZ
  000db	76 16		 jbe	 SHORT $LN4@OnSkillSta

; 109  : 		m_dwEnableSwitchTime = FRAMEGETTIME() + m_dwSwitchSkill;

  000dd	ff d6		 call	 esi
  000df	8b c8		 mov	 ecx, eax
  000e1	ff 15 00 00 00
	00		 call	 DWORD PTR __imp_?GetLoopSec@ioFrameTimer@@QBEKXZ
  000e7	03 83 58 03 00
	00		 add	 eax, DWORD PTR [ebx+856]
  000ed	89 83 5c 03 00
	00		 mov	 DWORD PTR [ebx+860], eax
$LN4@OnSkillSta:

; 110  : 	if( m_dwSemiSwitchSkill > 0 )

  000f3	83 bb 60 03 00
	00 00		 cmp	 DWORD PTR [ebx+864], 0
  000fa	76 16		 jbe	 SHORT $LN3@OnSkillSta

; 111  : 		m_dwEnableSemiSwitchTime = FRAMEGETTIME() + m_dwSemiSwitchSkill;

  000fc	ff d6		 call	 esi
  000fe	8b c8		 mov	 ecx, eax
  00100	ff 15 00 00 00
	00		 call	 DWORD PTR __imp_?GetLoopSec@ioFrameTimer@@QBEKXZ
  00106	03 83 60 03 00
	00		 add	 eax, DWORD PTR [ebx+864]
  0010c	89 83 64 03 00
	00		 mov	 DWORD PTR [ebx+868], eax
$LN3@OnSkillSta:

; 112  : 
; 113  : 	m_dwSkillStartTime = FRAMEGETTIME();

  00112	ff d6		 call	 esi
  00114	8b c8		 mov	 ecx, eax
  00116	ff 15 00 00 00
	00		 call	 DWORD PTR __imp_?GetLoopSec@ioFrameTimer@@QBEKXZ
  0011c	89 45 ec	 mov	 DWORD PTR _value$539696[ebp], eax
  0011f	8d 45 ec	 lea	 eax, DWORD PTR _value$539696[ebp]
  00122	50		 push	 eax
  00123	8d 8b 94 0e 00
	00		 lea	 ecx, DWORD PTR [ebx+3732]
  00129	e8 00 00 00 00	 call	 ?EncryptValueToPool@?$CEncrypt@K@@AAEXPBD@Z ; CEncrypt<unsigned long>::EncryptValueToPool

; 114  : 
; 115  : 	pChar->SetSkillProtection();

  0012e	8b 75 08	 mov	 esi, DWORD PTR _pChar$[ebp]
  00131	8b ce		 mov	 ecx, esi
  00133	e8 00 00 00 00	 call	 ?SetSkillProtection@ioBaseChar@@QAEXXZ ; ioBaseChar::SetSkillProtection

; 116  : 
; 117  : 	if( m_bInitJumpPower )

  00138	8d 45 f3	 lea	 eax, DWORD PTR _value$539701[ebp]
  0013b	50		 push	 eax
  0013c	8d 8b f4 05 00
	00		 lea	 ecx, DWORD PTR [ebx+1524]
  00142	e8 00 00 00 00	 call	 ?DecryptValueToPool@?$CEncrypt@_N@@QAEXPA_N@Z ; CEncrypt<bool>::DecryptValueToPool
  00147	80 7d f3 00	 cmp	 BYTE PTR _value$539701[ebp], 0
  0014b	74 1f		 je	 SHORT $LN41@OnSkillSta

; 118  : 	{
; 119  : 		pChar->SetCurJumpPowerAmt( 0.0f );

  0014d	0f 57 c0	 xorps	 xmm0, xmm0

; 120  : 		pChar->SetGravityAmt( 0.0f );

  00150	8d 45 ec	 lea	 eax, DWORD PTR _value$539713[ebp]
  00153	50		 push	 eax
  00154	8d 8e e8 0b 00
	00		 lea	 ecx, DWORD PTR [esi+3048]
  0015a	f3 0f 11 86 90
	0e 00 00	 movss	 DWORD PTR [esi+3728], xmm0
  00162	f3 0f 11 45 ec	 movss	 DWORD PTR _value$539713[ebp], xmm0
  00167	e8 00 00 00 00	 call	 ?EncryptValueToPool@?$CEncrypt@M@@AAEXPBD@Z ; CEncrypt<float>::EncryptValueToPool
$LN41@OnSkillSta:

; 121  : 	}
; 122  : 
; 123  : 	ioPlayStage *pStage = g_SkillMaker.GetPlayStage();

  0016c	e8 00 00 00 00	 call	 ?GetSingleton@ioSkillMaker@@SAAAV1@XZ ; ioSkillMaker::GetSingleton
  00171	8b c8		 mov	 ecx, eax
  00173	e8 00 00 00 00	 call	 ?GetPlayStage@ioSkillMaker@@QAEPAVioPlayStage@@XZ ; ioSkillMaker::GetPlayStage

; 124  : 	SetWaitState( pChar, pStage );

  00178	50		 push	 eax
  00179	56		 push	 esi
  0017a	8b cb		 mov	 ecx, ebx
  0017c	e8 00 00 00 00	 call	 ?SetWaitState@ioTargetTeleportSkill@@IAEXPAVioBaseChar@@PAVioPlayStage@@@Z ; ioTargetTeleportSkill::SetWaitState

; 125  : 
; 126  : 	if( !m_TeleportCameraBuff.IsEmpty() )

  00181	8d 8b 6c 10 00
	00		 lea	 ecx, DWORD PTR [ebx+4204]
  00187	ff 15 00 00 00
	00		 call	 DWORD PTR __imp_?IsEmpty@ioHashString@@QBE_NXZ
  0018d	84 c0		 test	 al, al
  0018f	75 54		 jne	 SHORT $LN1@OnSkillSta

; 127  : 		pChar->AddNewBuff( m_TeleportCameraBuff, "", "", this );

  00191	8b 35 00 00 00
	00		 mov	 esi, DWORD PTR __imp_??0ioHashString@@QAE@PBD@Z
  00197	bf 00 00 00 00	 mov	 edi, OFFSET ??_C@_00CNPNBAHC@?$AA@
  0019c	57		 push	 edi
  0019d	8d 4d cc	 lea	 ecx, DWORD PTR $T539601[ebp]
  001a0	ff d6		 call	 esi
  001a2	83 65 fc 00	 and	 DWORD PTR __$EHRec$[ebp+8], 0
  001a6	57		 push	 edi
  001a7	8d 4d dc	 lea	 ecx, DWORD PTR $T539602[ebp]
  001aa	ff d6		 call	 esi
  001ac	8b 4d 08	 mov	 ecx, DWORD PTR _pChar$[ebp]
  001af	6a 00		 push	 0
  001b1	53		 push	 ebx
  001b2	8d 45 cc	 lea	 eax, DWORD PTR $T539601[ebp]
  001b5	50		 push	 eax
  001b6	8d 45 dc	 lea	 eax, DWORD PTR $T539602[ebp]
  001b9	50		 push	 eax
  001ba	8d 83 6c 10 00
	00		 lea	 eax, DWORD PTR [ebx+4204]
  001c0	50		 push	 eax
  001c1	c6 45 fc 01	 mov	 BYTE PTR __$EHRec$[ebp+8], 1
  001c5	e8 00 00 00 00	 call	 ?AddNewBuff@ioBaseChar@@QAEPAVioBuff@@ABVioHashString@@00PAVioSkill@@_N@Z ; ioBaseChar::AddNewBuff
  001ca	8b 35 00 00 00
	00		 mov	 esi, DWORD PTR __imp_??1ioHashString@@QAE@XZ
  001d0	8d 4d dc	 lea	 ecx, DWORD PTR $T539602[ebp]
  001d3	c6 45 fc 00	 mov	 BYTE PTR __$EHRec$[ebp+8], 0
  001d7	ff d6		 call	 esi
  001d9	83 4d fc ff	 or	 DWORD PTR __$EHRec$[ebp+8], -1
  001dd	8d 4d cc	 lea	 ecx, DWORD PTR $T539601[ebp]
  001e0	ff d6		 call	 esi
  001e2	8b 75 08	 mov	 esi, DWORD PTR _pChar$[ebp]
$LN1@OnSkillSta:

; 128  : 
; 129  : 	CheckSkillDesc( pChar );

  001e5	56		 push	 esi
  001e6	8b cb		 mov	 ecx, ebx
  001e8	e8 00 00 00 00	 call	 ?CheckSkillDesc@ioSkill@@IAEXPAVioBaseChar@@@Z ; ioSkill::CheckSkillDesc

; 130  : 
; 131  : 	SetSkillNameChatBubble( pChar );

  001ed	56		 push	 esi
  001ee	8b cb		 mov	 ecx, ebx
  001f0	e8 00 00 00 00	 call	 ?SetSkillNameChatBubble@ioSkill@@IAEXPAVioBaseChar@@@Z ; ioSkill::SetSkillNameChatBubble

; 132  : 
; 133  : 	return true;

  001f5	b0 01		 mov	 al, 1
$LN7@OnSkillSta:

; 134  : }

  001f7	e8 00 00 00 00	 call	 __EH_epilog3
  001fc	c2 04 00	 ret	 4
_TEXT	ENDS
;	COMDAT text$x
text$x	SEGMENT
__unwindfunclet$?OnSkillStart@ioTargetTeleportSkill@@UAE_NPAVioBaseChar@@@Z$0:
  00000	8d 4d cc	 lea	 ecx, DWORD PTR $T539601[ebp]
  00003	ff 25 00 00 00
	00		 jmp	 DWORD PTR __imp_??1ioHashString@@QAE@XZ
__unwindfunclet$?OnSkillStart@ioTargetTeleportSkill@@UAE_NPAVioBaseChar@@@Z$1:
  00009	8d 4d dc	 lea	 ecx, DWORD PTR $T539602[ebp]
  0000c	ff 25 00 00 00
	00		 jmp	 DWORD PTR __imp_??1ioHashString@@QAE@XZ
__ehhandler$?OnSkillStart@ioTargetTeleportSkill@@UAE_NPAVioBaseChar@@@Z:
  00012	8b 54 24 08	 mov	 edx, DWORD PTR [esp+8]
  00016	8d 42 0c	 lea	 eax, DWORD PTR [edx+12]
  00019	8b 4a c8	 mov	 ecx, DWORD PTR [edx-56]
  0001c	33 c8		 xor	 ecx, eax
  0001e	e8 00 00 00 00	 call	 @__security_check_cookie@4
  00023	b8 00 00 00 00	 mov	 eax, OFFSET __ehfuncinfo$?OnSkillStart@ioTargetTeleportSkill@@UAE_NPAVioBaseChar@@@Z
  00028	e9 00 00 00 00	 jmp	 ___CxxFrameHandler3
text$x	ENDS
?OnSkillStart@ioTargetTeleportSkill@@UAE_NPAVioBaseChar@@@Z ENDP ; ioTargetTeleportSkill::OnSkillStart
END
