; Listing generated by Microsoft (R) Optimizing Compiler Version 16.00.30319.01 

	TITLE	D:\Lost Saga For Developer\Youtube\Tutorial\Source\src\LSClient\ioTargetTrace7Dummy.cpp
	.686P
	.XMM
	include listing.inc
	.model	flat

INCLUDELIB MSVCRT
INCLUDELIB OLDNAMES

PUBLIC	?_EEM_DS@?$deque@UD3DXVECTOR3@@V?$allocator@UD3DXVECTOR3@@@std@@@std@@2HB ; std::deque<D3DXVECTOR3,std::allocator<D3DXVECTOR3> >::_EEM_DS
;	COMDAT ?_EEM_DS@?$deque@UD3DXVECTOR3@@V?$allocator@UD3DXVECTOR3@@@std@@@std@@2HB
CONST	SEGMENT
?_EEM_DS@?$deque@UD3DXVECTOR3@@V?$allocator@UD3DXVECTOR3@@@std@@@std@@2HB DD 01H ; std::deque<D3DXVECTOR3,std::allocator<D3DXVECTOR3> >::_EEM_DS
CONST	ENDS
PUBLIC	?return1@@YAIXZ					; return1
; Function compile flags: /Ogsp
; File d:\lost saga for developer\youtube\tutorial\source\src\lsclient\stdafx.h
;	COMDAT ?return1@@YAIXZ
_TEXT	SEGMENT
?return1@@YAIXZ PROC					; return1, COMDAT

; 17   : 	__forceinline unsigned int return1() { __asm mov eax, 1 };

  00000	b8 01 00 00 00	 mov	 eax, 1
  00005	c3		 ret	 0
?return1@@YAIXZ ENDP					; return1
_TEXT	ENDS
PUBLIC	?return5@@YAIXZ					; return5
; Function compile flags: /Ogsp
;	COMDAT ?return5@@YAIXZ
_TEXT	SEGMENT
?return5@@YAIXZ PROC					; return5, COMDAT

; 18   : 	__forceinline unsigned int return5() { __asm mov eax, 5 };

  00000	b8 05 00 00 00	 mov	 eax, 5
  00005	c3		 ret	 0
?return5@@YAIXZ ENDP					; return5
_TEXT	ENDS
PUBLIC	?return10@@YAIXZ				; return10
; Function compile flags: /Ogsp
;	COMDAT ?return10@@YAIXZ
_TEXT	SEGMENT
?return10@@YAIXZ PROC					; return10, COMDAT

; 21   : 	__forceinline unsigned int return10() { __asm mov eax, 10 };

  00000	b8 0a 00 00 00	 mov	 eax, 10			; 0000000aH
  00005	c3		 ret	 0
?return10@@YAIXZ ENDP					; return10
_TEXT	ENDS
PUBLIC	?return100@@YAIXZ				; return100
; Function compile flags: /Ogsp
;	COMDAT ?return100@@YAIXZ
_TEXT	SEGMENT
?return100@@YAIXZ PROC					; return100, COMDAT

; 25   : 	__forceinline unsigned int return100() { __asm mov eax, 100 };

  00000	b8 64 00 00 00	 mov	 eax, 100		; 00000064H
  00005	c3		 ret	 0
?return100@@YAIXZ ENDP					; return100
_TEXT	ENDS
PUBLIC	?return360@@YAIXZ				; return360
; Function compile flags: /Ogsp
;	COMDAT ?return360@@YAIXZ
_TEXT	SEGMENT
?return360@@YAIXZ PROC					; return360, COMDAT

; 27   : 	__forceinline unsigned int return360() { __asm mov eax, 360 };

  00000	b8 68 01 00 00	 mov	 eax, 360		; 00000168H
  00005	c3		 ret	 0
?return360@@YAIXZ ENDP					; return360
_TEXT	ENDS
PUBLIC	_sinf
EXTRN	__fltused:DWORD
EXTRN	__CIsin:PROC
; Function compile flags: /Ogsp
; File c:\program files (x86)\microsoft visual studio 10.0\vc\include\math.h
;	COMDAT _sinf
_TEXT	SEGMENT
tv69 = 8						; size = 4
__X$ = 8						; size = 4
_sinf	PROC						; COMDAT

; 430  :         {return ((float)sin((double)_X)); }

  00000	55		 push	 ebp
  00001	8b ec		 mov	 ebp, esp
  00003	d9 45 08	 fld	 DWORD PTR __X$[ebp]
  00006	e8 00 00 00 00	 call	 __CIsin
  0000b	d9 5d 08	 fstp	 DWORD PTR tv69[ebp]
  0000e	d9 45 08	 fld	 DWORD PTR tv69[ebp]
  00011	5d		 pop	 ebp
  00012	c3		 ret	 0
_sinf	ENDP
_TEXT	ENDS
PUBLIC	?GetTargetRot@ioBaseChar@@QBEABUD3DXQUATERNION@@XZ ; ioBaseChar::GetTargetRot
; Function compile flags: /Ogsp
; File d:\lost saga for developer\youtube\tutorial\source\src\lsclient\iobasechar.h
;	COMDAT ?GetTargetRot@ioBaseChar@@QBEABUD3DXQUATERNION@@XZ
_TEXT	SEGMENT
?GetTargetRot@ioBaseChar@@QBEABUD3DXQUATERNION@@XZ PROC	; ioBaseChar::GetTargetRot, COMDAT
; _this$ = ecx

; 2599 : 	inline const D3DXQUATERNION& GetTargetRot() const { return m_qtTargetRot; }

  00000	8d 81 a4 06 00
	00		 lea	 eax, DWORD PTR [ecx+1700]
  00006	c3		 ret	 0
?GetTargetRot@ioBaseChar@@QBEABUD3DXQUATERNION@@XZ ENDP	; ioBaseChar::GetTargetRot
_TEXT	ENDS
PUBLIC	?sin@@YAMM@Z					; sin
; Function compile flags: /Ogsp
; File c:\program files (x86)\microsoft visual studio 10.0\vc\include\math.h
;	COMDAT ?sin@@YAMM@Z
_TEXT	SEGMENT
tv73 = 8						; size = 4
__X$ = 8						; size = 4
?sin@@YAMM@Z PROC					; sin, COMDAT

; 538  :         {return (sinf(_X)); }

  00000	55		 push	 ebp
  00001	8b ec		 mov	 ebp, esp
  00003	d9 45 08	 fld	 DWORD PTR __X$[ebp]
  00006	e8 00 00 00 00	 call	 __CIsin
  0000b	d9 5d 08	 fstp	 DWORD PTR tv73[ebp]
  0000e	d9 45 08	 fld	 DWORD PTR tv73[ebp]
  00011	5d		 pop	 ebp
  00012	c3		 ret	 0
?sin@@YAMM@Z ENDP					; sin
_TEXT	ENDS
PUBLIC	??_7bad_alloc@std@@6B@				; std::bad_alloc::`vftable'
PUBLIC	??0bad_alloc@std@@QAE@PBD@Z			; std::bad_alloc::bad_alloc
PUBLIC	??_R4bad_alloc@std@@6B@				; std::bad_alloc::`RTTI Complete Object Locator'
PUBLIC	??_R0?AVbad_alloc@std@@@8			; std::bad_alloc `RTTI Type Descriptor'
PUBLIC	??_R3bad_alloc@std@@8				; std::bad_alloc::`RTTI Class Hierarchy Descriptor'
PUBLIC	??_R2bad_alloc@std@@8				; std::bad_alloc::`RTTI Base Class Array'
PUBLIC	??_R1A@?0A@EA@bad_alloc@std@@8			; std::bad_alloc::`RTTI Base Class Descriptor at (0,-1,0,64)'
PUBLIC	??_R1A@?0A@EA@exception@std@@8			; std::exception::`RTTI Base Class Descriptor at (0,-1,0,64)'
PUBLIC	??_R0?AVexception@std@@@8			; std::exception `RTTI Type Descriptor'
PUBLIC	??_R3exception@std@@8				; std::exception::`RTTI Class Hierarchy Descriptor'
PUBLIC	??_R2exception@std@@8				; std::exception::`RTTI Base Class Array'
EXTRN	__imp_??0exception@std@@QAE@ABQBD@Z:PROC
EXTRN	??_7type_info@@6B@:QWORD			; type_info::`vftable'
EXTRN	??_Ebad_alloc@std@@UAEPAXI@Z:PROC		; std::bad_alloc::`vector deleting destructor'
EXTRN	?what@exception@std@@UBEPBDXZ:PROC		; std::exception::what
;	COMDAT ??_R2exception@std@@8
; File c:\program files (x86)\microsoft visual studio 10.0\vc\include\exception
rdata$r	SEGMENT
??_R2exception@std@@8 DD FLAT:??_R1A@?0A@EA@exception@std@@8 ; std::exception::`RTTI Base Class Array'
rdata$r	ENDS
;	COMDAT ??_R3exception@std@@8
rdata$r	SEGMENT
??_R3exception@std@@8 DD 00H				; std::exception::`RTTI Class Hierarchy Descriptor'
	DD	00H
	DD	01H
	DD	FLAT:??_R2exception@std@@8
rdata$r	ENDS
;	COMDAT ??_R0?AVexception@std@@@8
_DATA	SEGMENT
??_R0?AVexception@std@@@8 DD FLAT:??_7type_info@@6B@	; std::exception `RTTI Type Descriptor'
	DD	00H
	DB	'.?AVexception@std@@', 00H
_DATA	ENDS
;	COMDAT ??_R1A@?0A@EA@exception@std@@8
rdata$r	SEGMENT
??_R1A@?0A@EA@exception@std@@8 DD FLAT:??_R0?AVexception@std@@@8 ; std::exception::`RTTI Base Class Descriptor at (0,-1,0,64)'
	DD	00H
	DD	00H
	DD	0ffffffffH
	DD	00H
	DD	040H
	DD	FLAT:??_R3exception@std@@8
rdata$r	ENDS
;	COMDAT ??_R1A@?0A@EA@bad_alloc@std@@8
rdata$r	SEGMENT
??_R1A@?0A@EA@bad_alloc@std@@8 DD FLAT:??_R0?AVbad_alloc@std@@@8 ; std::bad_alloc::`RTTI Base Class Descriptor at (0,-1,0,64)'
	DD	01H
	DD	00H
	DD	0ffffffffH
	DD	00H
	DD	040H
	DD	FLAT:??_R3bad_alloc@std@@8
rdata$r	ENDS
;	COMDAT ??_R2bad_alloc@std@@8
rdata$r	SEGMENT
??_R2bad_alloc@std@@8 DD FLAT:??_R1A@?0A@EA@bad_alloc@std@@8 ; std::bad_alloc::`RTTI Base Class Array'
	DD	FLAT:??_R1A@?0A@EA@exception@std@@8
rdata$r	ENDS
;	COMDAT ??_R3bad_alloc@std@@8
rdata$r	SEGMENT
??_R3bad_alloc@std@@8 DD 00H				; std::bad_alloc::`RTTI Class Hierarchy Descriptor'
	DD	00H
	DD	02H
	DD	FLAT:??_R2bad_alloc@std@@8
rdata$r	ENDS
;	COMDAT ??_R0?AVbad_alloc@std@@@8
_DATA	SEGMENT
??_R0?AVbad_alloc@std@@@8 DD FLAT:??_7type_info@@6B@	; std::bad_alloc `RTTI Type Descriptor'
	DD	00H
	DB	'.?AVbad_alloc@std@@', 00H
_DATA	ENDS
;	COMDAT ??_R4bad_alloc@std@@6B@
rdata$r	SEGMENT
??_R4bad_alloc@std@@6B@ DD 00H				; std::bad_alloc::`RTTI Complete Object Locator'
	DD	00H
	DD	00H
	DD	FLAT:??_R0?AVbad_alloc@std@@@8
	DD	FLAT:??_R3bad_alloc@std@@8
rdata$r	ENDS
;	COMDAT ??_7bad_alloc@std@@6B@
CONST	SEGMENT
??_7bad_alloc@std@@6B@ DD FLAT:??_R4bad_alloc@std@@6B@	; std::bad_alloc::`vftable'
	DD	FLAT:??_Ebad_alloc@std@@UAEPAXI@Z
	DD	FLAT:?what@exception@std@@UBEPBDXZ
; Function compile flags: /Ogsp
CONST	ENDS
;	COMDAT ??0bad_alloc@std@@QAE@PBD@Z
_TEXT	SEGMENT
__Message$ = 8						; size = 4
??0bad_alloc@std@@QAE@PBD@Z PROC			; std::bad_alloc::bad_alloc, COMDAT
; _this$ = ecx

; 345  : 		{	// construct from message string

  00000	55		 push	 ebp
  00001	8b ec		 mov	 ebp, esp
  00003	56		 push	 esi
  00004	8d 45 08	 lea	 eax, DWORD PTR __Message$[ebp]
  00007	50		 push	 eax
  00008	8b f1		 mov	 esi, ecx
  0000a	ff 15 00 00 00
	00		 call	 DWORD PTR __imp_??0exception@std@@QAE@ABQBD@Z
  00010	c7 06 00 00 00
	00		 mov	 DWORD PTR [esi], OFFSET ??_7bad_alloc@std@@6B@

; 346  : 		}

  00016	8b c6		 mov	 eax, esi
  00018	5e		 pop	 esi
  00019	5d		 pop	 ebp
  0001a	c2 04 00	 ret	 4
??0bad_alloc@std@@QAE@PBD@Z ENDP			; std::bad_alloc::bad_alloc
_TEXT	ENDS
PUBLIC	??1bad_alloc@std@@UAE@XZ			; std::bad_alloc::~bad_alloc
EXTRN	__imp_??1exception@std@@UAE@XZ:PROC
; Function compile flags: /Ogsp
;	COMDAT ??1bad_alloc@std@@UAE@XZ
_TEXT	SEGMENT
??1bad_alloc@std@@UAE@XZ PROC				; std::bad_alloc::~bad_alloc, COMDAT
; _this$ = ecx

; 354  : 		{	// destroy the object

  00000	c7 01 00 00 00
	00		 mov	 DWORD PTR [ecx], OFFSET ??_7bad_alloc@std@@6B@

; 355  : 		}

  00006	ff 25 00 00 00
	00		 jmp	 DWORD PTR __imp_??1exception@std@@UAE@XZ
??1bad_alloc@std@@UAE@XZ ENDP				; std::bad_alloc::~bad_alloc
_TEXT	ENDS
EXTRN	??3@YAXPAX@Z:PROC				; operator delete
; Function compile flags: /Ogsp
;	COMDAT ??_Gbad_alloc@std@@UAEPAXI@Z
_TEXT	SEGMENT
___flags$ = 8						; size = 4
??_Gbad_alloc@std@@UAEPAXI@Z PROC			; std::bad_alloc::`scalar deleting destructor', COMDAT
; _this$ = ecx
  00000	55		 push	 ebp
  00001	8b ec		 mov	 ebp, esp
  00003	56		 push	 esi
  00004	8b f1		 mov	 esi, ecx
  00006	c7 06 00 00 00
	00		 mov	 DWORD PTR [esi], OFFSET ??_7bad_alloc@std@@6B@
  0000c	ff 15 00 00 00
	00		 call	 DWORD PTR __imp_??1exception@std@@UAE@XZ
  00012	f6 45 08 01	 test	 BYTE PTR ___flags$[ebp], 1
  00016	74 07		 je	 SHORT $LN1@scalar
  00018	56		 push	 esi
  00019	e8 00 00 00 00	 call	 ??3@YAXPAX@Z		; operator delete
  0001e	59		 pop	 ecx
$LN1@scalar:
  0001f	8b c6		 mov	 eax, esi
  00021	5e		 pop	 esi
  00022	5d		 pop	 ebp
  00023	c2 04 00	 ret	 4
??_Gbad_alloc@std@@UAEPAXI@Z ENDP			; std::bad_alloc::`scalar deleting destructor'
_TEXT	ENDS
PUBLIC	??2@YAPAXIPAX@Z					; operator new
; Function compile flags: /Ogsp
; File c:\program files (x86)\microsoft visual studio 10.0\vc\include\new
;	COMDAT ??2@YAPAXIPAX@Z
_TEXT	SEGMENT
___formal$ = 8						; size = 4
__Where$ = 12						; size = 4
??2@YAPAXIPAX@Z PROC					; operator new, COMDAT

; 56   : 	{	// construct array with placement at _Where

  00000	55		 push	 ebp
  00001	8b ec		 mov	 ebp, esp

; 57   : 	return (_Where);

  00003	8b 45 0c	 mov	 eax, DWORD PTR __Where$[ebp]

; 58   : 	}

  00006	5d		 pop	 ebp
  00007	c3		 ret	 0
??2@YAPAXIPAX@Z ENDP					; operator new
_TEXT	ENDS
PUBLIC	??3@YAXPAX0@Z					; operator delete
; Function compile flags: /Ogsp
;	COMDAT ??3@YAXPAX0@Z
_TEXT	SEGMENT
___formal$ = 8						; size = 4
___formal$ = 12						; size = 4
??3@YAXPAX0@Z PROC					; operator delete, COMDAT

; 62   : 	}

  00000	c3		 ret	 0
??3@YAXPAX0@Z ENDP					; operator delete
_TEXT	ENDS
PUBLIC	?GetCreator@ioBaseChar@@QAEPAVioPlayStage@@XZ	; ioBaseChar::GetCreator
; Function compile flags: /Ogsp
; File d:\lost saga for developer\youtube\tutorial\source\src\lsclient\iobasechar.h
;	COMDAT ?GetCreator@ioBaseChar@@QAEPAVioPlayStage@@XZ
_TEXT	SEGMENT
?GetCreator@ioBaseChar@@QAEPAVioPlayStage@@XZ PROC	; ioBaseChar::GetCreator, COMDAT
; _this$ = ecx

; 4013 : 	inline ioPlayStage* GetCreator() { return m_pCreator; }

  00000	8b 81 44 03 00
	00		 mov	 eax, DWORD PTR [ecx+836]
  00006	c3		 ret	 0
?GetCreator@ioBaseChar@@QAEPAVioPlayStage@@XZ ENDP	; ioBaseChar::GetCreator
_TEXT	ENDS
PUBLIC	?_Adopt@_Iterator_base0@std@@QAEXPBX@Z		; std::_Iterator_base0::_Adopt
; Function compile flags: /Ogsp
; File c:\program files (x86)\microsoft visual studio 10.0\vc\include\xutility
;	COMDAT ?_Adopt@_Iterator_base0@std@@QAEXPBX@Z
_TEXT	SEGMENT
___formal$ = 8						; size = 4
?_Adopt@_Iterator_base0@std@@QAEXPBX@Z PROC		; std::_Iterator_base0::_Adopt, COMDAT
; _this$ = ecx

; 49   : 		}

  00000	c2 04 00	 ret	 4
?_Adopt@_Iterator_base0@std@@QAEXPBX@Z ENDP		; std::_Iterator_base0::_Adopt
_TEXT	ENDS
PUBLIC	?ProcessStartState@ioTargetTrace7Dummy@@MAEXM@Z	; ioTargetTrace7Dummy::ProcessStartState
EXTRN	__imp_?GetLoopSec@ioFrameTimer@@QBEKXZ:PROC
EXTRN	__imp_?GetSingleton@ioFrameTimer@@SAAAV1@XZ:PROC
; Function compile flags: /Ogsp
; File d:\lost saga for developer\youtube\tutorial\source\src\lsclient\iotargettrace7dummy.cpp
;	COMDAT ?ProcessStartState@ioTargetTrace7Dummy@@MAEXM@Z
_TEXT	SEGMENT
_fTimePerSec$ = 8					; size = 4
?ProcessStartState@ioTargetTrace7Dummy@@MAEXM@Z PROC	; ioTargetTrace7Dummy::ProcessStartState, COMDAT
; _this$ = ecx

; 78   : {

  00000	56		 push	 esi
  00001	8b f1		 mov	 esi, ecx

; 79   : 	DWORD dwCurTime = FRAMEGETTIME();

  00003	ff 15 00 00 00
	00		 call	 DWORD PTR __imp_?GetSingleton@ioFrameTimer@@SAAAV1@XZ
  00009	8b c8		 mov	 ecx, eax
  0000b	ff 15 00 00 00
	00		 call	 DWORD PTR __imp_?GetLoopSec@ioFrameTimer@@QBEKXZ

; 80   : 
; 81   : 	if( m_dwStartAniEndTime == 0 || m_dwStartAniEndTime < dwCurTime )

  00011	8b 8e e4 06 00
	00		 mov	 ecx, DWORD PTR [esi+1764]
  00017	85 c9		 test	 ecx, ecx
  00019	74 04		 je	 SHORT $LN1@ProcessSta
  0001b	3b c8		 cmp	 ecx, eax
  0001d	73 0c		 jae	 SHORT $LN2@ProcessSta
$LN1@ProcessSta:

; 82   : 	{
; 83   : 		SetDelayState( false );

  0001f	8b 06		 mov	 eax, DWORD PTR [esi]
  00021	6a 00		 push	 0
  00023	8b ce		 mov	 ecx, esi
  00025	ff 90 14 01 00
	00		 call	 DWORD PTR [eax+276]
$LN2@ProcessSta:
  0002b	5e		 pop	 esi

; 84   : 		return;
; 85   : 	}
; 86   : }

  0002c	c2 04 00	 ret	 4
?ProcessStartState@ioTargetTrace7Dummy@@MAEXM@Z ENDP	; ioTargetTrace7Dummy::ProcessStartState
_TEXT	ENDS
PUBLIC	??1FireTime@@QAE@XZ				; FireTime::~FireTime
EXTRN	__imp_??1ioHashString@@QAE@XZ:PROC
EXTRN	___CxxFrameHandler3:PROC
EXTRN	@__security_check_cookie@4:PROC
EXTRN	__EH_epilog3:PROC
EXTRN	__EH_prolog3:PROC
;	COMDAT xdata$x
xdata$x	SEGMENT
__unwindtable$??1FireTime@@QAE@XZ DD 0ffffffffH
	DD	FLAT:__unwindfunclet$??1FireTime@@QAE@XZ$0
	DD	00H
	DD	FLAT:__unwindfunclet$??1FireTime@@QAE@XZ$1
__ehfuncinfo$??1FireTime@@QAE@XZ DD 019930522H
	DD	02H
	DD	FLAT:__unwindtable$??1FireTime@@QAE@XZ
	DD	2 DUP(00H)
	DD	2 DUP(00H)
	DD	00H
	DD	01H
; Function compile flags: /Ogsp
xdata$x	ENDS
;	COMDAT ??1FireTime@@QAE@XZ
_TEXT	SEGMENT
_this$ = -16						; size = 4
__$EHRec$ = -12						; size = 12
??1FireTime@@QAE@XZ PROC				; FireTime::~FireTime, COMDAT
; _this$ = ecx
  00000	6a 04		 push	 4
  00002	b8 00 00 00 00	 mov	 eax, __ehhandler$??1FireTime@@QAE@XZ
  00007	e8 00 00 00 00	 call	 __EH_prolog3
  0000c	8b f9		 mov	 edi, ecx
  0000e	89 7d f0	 mov	 DWORD PTR _this$[ebp], edi
  00011	8b 35 00 00 00
	00		 mov	 esi, DWORD PTR __imp_??1ioHashString@@QAE@XZ
  00017	8d 4f 44	 lea	 ecx, DWORD PTR [edi+68]
  0001a	c7 45 fc 01 00
	00 00		 mov	 DWORD PTR __$EHRec$[ebp+8], 1
  00021	ff d6		 call	 esi
  00023	8d 4f 30	 lea	 ecx, DWORD PTR [edi+48]
  00026	c6 45 fc 00	 mov	 BYTE PTR __$EHRec$[ebp+8], 0
  0002a	ff d6		 call	 esi
  0002c	83 4d fc ff	 or	 DWORD PTR __$EHRec$[ebp+8], -1
  00030	8d 4f 14	 lea	 ecx, DWORD PTR [edi+20]
  00033	ff d6		 call	 esi
  00035	e8 00 00 00 00	 call	 __EH_epilog3
  0003a	c3		 ret	 0
_TEXT	ENDS
;	COMDAT text$x
text$x	SEGMENT
__unwindfunclet$??1FireTime@@QAE@XZ$0:
  00000	8b 4d f0	 mov	 ecx, DWORD PTR _this$[ebp]
  00003	83 c1 14	 add	 ecx, 20			; 00000014H
  00006	ff 25 00 00 00
	00		 jmp	 DWORD PTR __imp_??1ioHashString@@QAE@XZ
__unwindfunclet$??1FireTime@@QAE@XZ$1:
  0000c	8b 4d f0	 mov	 ecx, DWORD PTR _this$[ebp]
  0000f	83 c1 30	 add	 ecx, 48			; 00000030H
  00012	ff 25 00 00 00
	00		 jmp	 DWORD PTR __imp_??1ioHashString@@QAE@XZ
__ehhandler$??1FireTime@@QAE@XZ:
  00018	8b 54 24 08	 mov	 edx, DWORD PTR [esp+8]
  0001c	8d 42 0c	 lea	 eax, DWORD PTR [edx+12]
  0001f	8b 4a ec	 mov	 ecx, DWORD PTR [edx-20]
  00022	33 c8		 xor	 ecx, eax
  00024	e8 00 00 00 00	 call	 @__security_check_cookie@4
  00029	b8 00 00 00 00	 mov	 eax, OFFSET __ehfuncinfo$??1FireTime@@QAE@XZ
  0002e	e9 00 00 00 00	 jmp	 ___CxxFrameHandler3
text$x	ENDS
??1FireTime@@QAE@XZ ENDP				; FireTime::~FireTime
PUBLIC	__real@4f800000
PUBLIC	?SetTargetAttachState@ioTargetTrace7Dummy@@IAEX_N@Z ; ioTargetTrace7Dummy::SetTargetAttachState
EXTRN	__imp_?SetLoopAni@ioEntityGroup@@QAE_NHMMMM@Z:PROC
EXTRN	__imp_?GetAnimationIdx@ioEntityGroup@@QAEHABVioHashString@@@Z:PROC
EXTRN	__imp_?ClearAllActionAni@ioEntityGroup@@QAEXM_N@Z:PROC
EXTRN	__imp_?ClearAllLoopAni@ioEntityGroup@@QAEXM_N@Z:PROC
;	COMDAT __real@4f800000
; File d:\lost saga for developer\youtube\tutorial\source\src\lsclient\stdafx.h
CONST	SEGMENT
__real@4f800000 DD 04f800000r			; 4.29497e+009
; Function compile flags: /Ogsp
; File d:\lost saga for developer\youtube\tutorial\source\src\lsclient\iotargettrace7dummy.cpp
CONST	ENDS
;	COMDAT ?SetTargetAttachState@ioTargetTrace7Dummy@@IAEX_N@Z
_TEXT	SEGMENT
tv172 = -8						; size = 4
tv135 = -8						; size = 4
tv78 = -8						; size = 4
tv211 = -4						; size = 4
tv206 = -4						; size = 4
tv199 = -4						; size = 4
tv80 = -4						; size = 4
_fRate$531640 = -4					; size = 4
_bNet$ = 8						; size = 1
?SetTargetAttachState@ioTargetTrace7Dummy@@IAEX_N@Z PROC ; ioTargetTrace7Dummy::SetTargetAttachState, COMDAT
; _this$ = ecx

; 230  : {

  00000	55		 push	 ebp
  00001	8b ec		 mov	 ebp, esp
  00003	51		 push	 ecx
  00004	51		 push	 ecx
  00005	56		 push	 esi
  00006	8b f1		 mov	 esi, ecx

; 231  : 	m_State = DCS_TARGET_ATTACH;

  00008	c7 86 30 02 00
	00 12 00 00 00	 mov	 DWORD PTR [esi+560], 18	; 00000012H

; 232  : 
; 233  : 	m_pGroup->ClearAllLoopAni( FLOAT100 );

  00012	b8 64 00 00 00	 mov	 eax, 100		; 00000064H
  00017	89 45 fc	 mov	 DWORD PTR tv211[ebp], eax
  0001a	db 45 fc	 fild	 DWORD PTR tv211[ebp]
  0001d	6a 00		 push	 0
  0001f	85 c0		 test	 eax, eax
  00021	79 06		 jns	 SHORT $LN17@SetTargetA
  00023	d8 05 00 00 00
	00		 fadd	 DWORD PTR __real@4f800000
$LN17@SetTargetA:
  00029	51		 push	 ecx
  0002a	8b 4e 04	 mov	 ecx, DWORD PTR [esi+4]
  0002d	d9 1c 24	 fstp	 DWORD PTR [esp]
  00030	ff 15 00 00 00
	00		 call	 DWORD PTR __imp_?ClearAllLoopAni@ioEntityGroup@@QAEXM_N@Z

; 234  : 	m_pGroup->ClearAllActionAni( FLOAT100 );

  00036	b8 64 00 00 00	 mov	 eax, 100		; 00000064H
  0003b	89 45 fc	 mov	 DWORD PTR tv206[ebp], eax
  0003e	db 45 fc	 fild	 DWORD PTR tv206[ebp]
  00041	6a 00		 push	 0
  00043	85 c0		 test	 eax, eax
  00045	79 06		 jns	 SHORT $LN18@SetTargetA
  00047	d8 05 00 00 00
	00		 fadd	 DWORD PTR __real@4f800000
$LN18@SetTargetA:
  0004d	51		 push	 ecx
  0004e	8b 4e 04	 mov	 ecx, DWORD PTR [esi+4]
  00051	d9 1c 24	 fstp	 DWORD PTR [esp]
  00054	ff 15 00 00 00
	00		 call	 DWORD PTR __imp_?ClearAllActionAni@ioEntityGroup@@QAEXM_N@Z

; 235  : 
; 236  : 	int iAniID = m_pGroup->GetAnimationIdx( m_AttachAni );

  0005a	8b 4e 04	 mov	 ecx, DWORD PTR [esi+4]
  0005d	8d 86 84 14 00
	00		 lea	 eax, DWORD PTR [esi+5252]
  00063	50		 push	 eax
  00064	ff 15 00 00 00
	00		 call	 DWORD PTR __imp_?GetAnimationIdx@ioEntityGroup@@QAEHABVioHashString@@@Z
  0006a	8b c8		 mov	 ecx, eax

; 237  : 	if( 0 <= iAniID )

  0006c	85 c9		 test	 ecx, ecx
  0006e	0f 88 99 00 00
	00		 js	 $LN2@SetTargetA

; 238  : 	{
; 239  : 		float fRate = FLOAT1;

  00074	b8 01 00 00 00	 mov	 eax, 1
  00079	89 45 fc	 mov	 DWORD PTR tv199[ebp], eax
  0007c	db 45 fc	 fild	 DWORD PTR tv199[ebp]
  0007f	85 c0		 test	 eax, eax
  00081	79 06		 jns	 SHORT $LN19@SetTargetA
  00083	d8 05 00 00 00
	00		 fadd	 DWORD PTR __real@4f800000
$LN19@SetTargetA:

; 240  : 		if( m_fAttachAniRate > 0.0f )

  00089	f3 0f 10 86 94
	14 00 00	 movss	 xmm0, DWORD PTR [esi+5268]
  00091	d9 5d fc	 fstp	 DWORD PTR _fRate$531640[ebp]
  00094	0f 57 c9	 xorps	 xmm1, xmm1
  00097	0f 2f c1	 comiss	 xmm0, xmm1
  0009a	76 05		 jbe	 SHORT $LN1@SetTargetA

; 241  : 			fRate = m_fAttachAniRate;

  0009c	f3 0f 11 45 fc	 movss	 DWORD PTR _fRate$531640[ebp], xmm0
$LN1@SetTargetA:
  000a1	57		 push	 edi

; 242  : 
; 243  : 		m_pGroup->SetLoopAni( iAniID, FLOAT100, FLOAT1, FLOAT1/fRate );

  000a2	b8 01 00 00 00	 mov	 eax, 1
  000a7	8b d0		 mov	 edx, eax
  000a9	b8 01 00 00 00	 mov	 eax, 1
  000ae	8b f8		 mov	 edi, eax
  000b0	b8 64 00 00 00	 mov	 eax, 100		; 00000064H
  000b5	83 ec 10	 sub	 esp, 16			; 00000010H
  000b8	89 55 f8	 mov	 DWORD PTR tv135[ebp], edx
  000bb	db 45 f8	 fild	 DWORD PTR tv135[ebp]
  000be	f3 0f 11 4c 24
	0c		 movss	 DWORD PTR [esp+12], xmm1
  000c4	85 d2		 test	 edx, edx
  000c6	79 06		 jns	 SHORT $LN20@SetTargetA
  000c8	d8 05 00 00 00
	00		 fadd	 DWORD PTR __real@4f800000
$LN20@SetTargetA:
  000ce	d8 75 fc	 fdiv	 DWORD PTR _fRate$531640[ebp]
  000d1	89 7d f8	 mov	 DWORD PTR tv172[ebp], edi
  000d4	d9 5d fc	 fstp	 DWORD PTR tv80[ebp]
  000d7	d9 45 fc	 fld	 DWORD PTR tv80[ebp]
  000da	d9 5c 24 08	 fstp	 DWORD PTR [esp+8]
  000de	db 45 f8	 fild	 DWORD PTR tv172[ebp]
  000e1	85 ff		 test	 edi, edi
  000e3	79 06		 jns	 SHORT $LN21@SetTargetA
  000e5	d8 05 00 00 00
	00		 fadd	 DWORD PTR __real@4f800000
$LN21@SetTargetA:
  000eb	89 45 f8	 mov	 DWORD PTR tv78[ebp], eax
  000ee	d9 5c 24 04	 fstp	 DWORD PTR [esp+4]
  000f2	db 45 f8	 fild	 DWORD PTR tv78[ebp]
  000f5	85 c0		 test	 eax, eax
  000f7	79 06		 jns	 SHORT $LN22@SetTargetA
  000f9	d8 05 00 00 00
	00		 fadd	 DWORD PTR __real@4f800000
$LN22@SetTargetA:
  000ff	d9 1c 24	 fstp	 DWORD PTR [esp]
  00102	51		 push	 ecx
  00103	8b 4e 04	 mov	 ecx, DWORD PTR [esi+4]
  00106	ff 15 00 00 00
	00		 call	 DWORD PTR __imp_?SetLoopAni@ioEntityGroup@@QAE_NHMMMM@Z
  0010c	5f		 pop	 edi
$LN2@SetTargetA:
  0010d	5e		 pop	 esi

; 244  : 	}
; 245  : }

  0010e	c9		 leave
  0010f	c2 04 00	 ret	 4
?SetTargetAttachState@ioTargetTrace7Dummy@@IAEX_N@Z ENDP ; ioTargetTrace7Dummy::SetTargetAttachState
_TEXT	ENDS
PUBLIC	?size@?$vector@UDummyTargetAttachInfo@ioTargetTrace7Dummy@@V?$allocator@UDummyTargetAttachInfo@ioTargetTrace7Dummy@@@std@@@std@@QBEIXZ ; std::vector<ioTargetTrace7Dummy::DummyTargetAttachInfo,std::allocator<ioTargetTrace7Dummy::DummyTargetAttachInfo> >::size
; Function compile flags: /Ogsp
; File c:\program files (x86)\microsoft visual studio 10.0\vc\include\vector
;	COMDAT ?size@?$vector@UDummyTargetAttachInfo@ioTargetTrace7Dummy@@V?$allocator@UDummyTargetAttachInfo@ioTargetTrace7Dummy@@@std@@@std@@QBEIXZ
_TEXT	SEGMENT
?size@?$vector@UDummyTargetAttachInfo@ioTargetTrace7Dummy@@V?$allocator@UDummyTargetAttachInfo@ioTargetTrace7Dummy@@@std@@@std@@QBEIXZ PROC ; std::vector<ioTargetTrace7Dummy::DummyTargetAttachInfo,std::allocator<ioTargetTrace7Dummy::DummyTargetAttachInfo> >::size, COMDAT
; _this$ = ecx

; 879  : 		return (this->_Mylast - this->_Myfirst);

  00000	8b 41 04	 mov	 eax, DWORD PTR [ecx+4]
  00003	2b 01		 sub	 eax, DWORD PTR [ecx]
  00005	6a 0c		 push	 12			; 0000000cH
  00007	99		 cdq
  00008	59		 pop	 ecx
  00009	f7 f9		 idiv	 ecx

; 880  : 		}

  0000b	c3		 ret	 0
?size@?$vector@UDummyTargetAttachInfo@ioTargetTrace7Dummy@@V?$allocator@UDummyTargetAttachInfo@ioTargetTrace7Dummy@@@std@@@std@@QBEIXZ ENDP ; std::vector<ioTargetTrace7Dummy::DummyTargetAttachInfo,std::allocator<ioTargetTrace7Dummy::DummyTargetAttachInfo> >::size
_TEXT	ENDS
PUBLIC	??A?$vector@UDummyTargetAttachInfo@ioTargetTrace7Dummy@@V?$allocator@UDummyTargetAttachInfo@ioTargetTrace7Dummy@@@std@@@std@@QAEAAUDummyTargetAttachInfo@ioTargetTrace7Dummy@@I@Z ; std::vector<ioTargetTrace7Dummy::DummyTargetAttachInfo,std::allocator<ioTargetTrace7Dummy::DummyTargetAttachInfo> >::operator[]
; Function compile flags: /Ogsp
;	COMDAT ??A?$vector@UDummyTargetAttachInfo@ioTargetTrace7Dummy@@V?$allocator@UDummyTargetAttachInfo@ioTargetTrace7Dummy@@@std@@@std@@QAEAAUDummyTargetAttachInfo@ioTargetTrace7Dummy@@I@Z
_TEXT	SEGMENT
__Pos$ = 8						; size = 4
??A?$vector@UDummyTargetAttachInfo@ioTargetTrace7Dummy@@V?$allocator@UDummyTargetAttachInfo@ioTargetTrace7Dummy@@@std@@@std@@QAEAAUDummyTargetAttachInfo@ioTargetTrace7Dummy@@I@Z PROC ; std::vector<ioTargetTrace7Dummy::DummyTargetAttachInfo,std::allocator<ioTargetTrace7Dummy::DummyTargetAttachInfo> >::operator[], COMDAT
; _this$ = ecx

; 928  : 		{	// subscript mutable sequence

  00000	55		 push	 ebp
  00001	8b ec		 mov	 ebp, esp

; 929  :  #if _ITERATOR_DEBUG_LEVEL == 2
; 930  : 		if (size() <= _Pos)
; 931  : 			{	// report error
; 932  : 			_DEBUG_ERROR("vector subscript out of range");
; 933  : 			_SCL_SECURE_OUT_OF_RANGE;
; 934  : 			}
; 935  : 
; 936  :  #elif _ITERATOR_DEBUG_LEVEL == 1
; 937  : 		_SCL_SECURE_VALIDATE_RANGE(_Pos < size());
; 938  :  #endif /* _ITERATOR_DEBUG_LEVEL */
; 939  : 
; 940  : 		return (*(this->_Myfirst + _Pos));

  00003	8b 45 08	 mov	 eax, DWORD PTR __Pos$[ebp]
  00006	6b c0 0c	 imul	 eax, 12			; 0000000cH
  00009	03 01		 add	 eax, DWORD PTR [ecx]

; 941  : 		}

  0000b	5d		 pop	 ebp
  0000c	c2 04 00	 ret	 4
??A?$vector@UDummyTargetAttachInfo@ioTargetTrace7Dummy@@V?$allocator@UDummyTargetAttachInfo@ioTargetTrace7Dummy@@@std@@@std@@QAEAAUDummyTargetAttachInfo@ioTargetTrace7Dummy@@I@Z ENDP ; std::vector<ioTargetTrace7Dummy::DummyTargetAttachInfo,std::allocator<ioTargetTrace7Dummy::DummyTargetAttachInfo> >::operator[]
_TEXT	ENDS
PUBLIC	?_Nextnode@?$_List_val@UFireTime@@V?$allocator@UFireTime@@@std@@@std@@SAAAPAU_Node@?$_List_nod@UFireTime@@V?$allocator@UFireTime@@@std@@@2@PAU342@@Z ; std::_List_val<FireTime,std::allocator<FireTime> >::_Nextnode
; Function compile flags: /Ogsp
; File c:\program files (x86)\microsoft visual studio 10.0\vc\include\list
;	COMDAT ?_Nextnode@?$_List_val@UFireTime@@V?$allocator@UFireTime@@@std@@@std@@SAAAPAU_Node@?$_List_nod@UFireTime@@V?$allocator@UFireTime@@@std@@@2@PAU342@@Z
_TEXT	SEGMENT
__Pnode$ = 8						; size = 4
?_Nextnode@?$_List_val@UFireTime@@V?$allocator@UFireTime@@@std@@@std@@SAAAPAU_Node@?$_List_nod@UFireTime@@V?$allocator@UFireTime@@@std@@@2@PAU342@@Z PROC ; std::_List_val<FireTime,std::allocator<FireTime> >::_Nextnode, COMDAT

; 560  : 		{	// return reference to successor pointer in node

  00000	55		 push	 ebp
  00001	8b ec		 mov	 ebp, esp

; 561  : 		return ((_Nodepref)(*_Pnode)._Next);

  00003	8b 45 08	 mov	 eax, DWORD PTR __Pnode$[ebp]

; 562  : 		}

  00006	5d		 pop	 ebp
  00007	c3		 ret	 0
?_Nextnode@?$_List_val@UFireTime@@V?$allocator@UFireTime@@@std@@@std@@SAAAPAU_Node@?$_List_nod@UFireTime@@V?$allocator@UFireTime@@@std@@@2@PAU342@@Z ENDP ; std::_List_val<FireTime,std::allocator<FireTime> >::_Nextnode
_TEXT	ENDS
PUBLIC	?_Prevnode@?$_List_val@UFireTime@@V?$allocator@UFireTime@@@std@@@std@@SAAAPAU_Node@?$_List_nod@UFireTime@@V?$allocator@UFireTime@@@std@@@2@PAU342@@Z ; std::_List_val<FireTime,std::allocator<FireTime> >::_Prevnode
; Function compile flags: /Ogsp
;	COMDAT ?_Prevnode@?$_List_val@UFireTime@@V?$allocator@UFireTime@@@std@@@std@@SAAAPAU_Node@?$_List_nod@UFireTime@@V?$allocator@UFireTime@@@std@@@2@PAU342@@Z
_TEXT	SEGMENT
__Pnode$ = 8						; size = 4
?_Prevnode@?$_List_val@UFireTime@@V?$allocator@UFireTime@@@std@@@std@@SAAAPAU_Node@?$_List_nod@UFireTime@@V?$allocator@UFireTime@@@std@@@2@PAU342@@Z PROC ; std::_List_val<FireTime,std::allocator<FireTime> >::_Prevnode, COMDAT

; 565  : 		{	// return reference to predecessor pointer in node

  00000	55		 push	 ebp
  00001	8b ec		 mov	 ebp, esp

; 566  : 		return ((_Nodepref)(*_Pnode)._Prev);

  00003	8b 45 08	 mov	 eax, DWORD PTR __Pnode$[ebp]
  00006	83 c0 04	 add	 eax, 4

; 567  : 		}

  00009	5d		 pop	 ebp
  0000a	c3		 ret	 0
?_Prevnode@?$_List_val@UFireTime@@V?$allocator@UFireTime@@@std@@@std@@SAAAPAU_Node@?$_List_nod@UFireTime@@V?$allocator@UFireTime@@@std@@@2@PAU342@@Z ENDP ; std::_List_val<FireTime,std::allocator<FireTime> >::_Prevnode
_TEXT	ENDS
PUBLIC	?deallocate@?$allocator@U_Node@?$_List_nod@UFireTime@@V?$allocator@UFireTime@@@std@@@std@@@std@@QAEXPAU_Node@?$_List_nod@UFireTime@@V?$allocator@UFireTime@@@std@@@2@I@Z ; std::allocator<std::_List_nod<FireTime,std::allocator<FireTime> >::_Node>::deallocate
; Function compile flags: /Ogsp
; File c:\program files (x86)\microsoft visual studio 10.0\vc\include\xmemory
;	COMDAT ?deallocate@?$allocator@U_Node@?$_List_nod@UFireTime@@V?$allocator@UFireTime@@@std@@@std@@@std@@QAEXPAU_Node@?$_List_nod@UFireTime@@V?$allocator@UFireTime@@@std@@@2@I@Z
_TEXT	SEGMENT
__Ptr$ = 8						; size = 4
___formal$ = 12						; size = 4
?deallocate@?$allocator@U_Node@?$_List_nod@UFireTime@@V?$allocator@UFireTime@@@std@@@std@@@std@@QAEXPAU_Node@?$_List_nod@UFireTime@@V?$allocator@UFireTime@@@std@@@2@I@Z PROC ; std::allocator<std::_List_nod<FireTime,std::allocator<FireTime> >::_Node>::deallocate, COMDAT
; _this$ = ecx

; 181  : 		{	// deallocate object at _Ptr, ignore size

  00000	55		 push	 ebp
  00001	8b ec		 mov	 ebp, esp

; 182  : 		::operator delete(_Ptr);

  00003	ff 75 08	 push	 DWORD PTR __Ptr$[ebp]
  00006	e8 00 00 00 00	 call	 ??3@YAXPAX@Z		; operator delete
  0000b	59		 pop	 ecx

; 183  : 		}

  0000c	5d		 pop	 ebp
  0000d	c2 08 00	 ret	 8
?deallocate@?$allocator@U_Node@?$_List_nod@UFireTime@@V?$allocator@UFireTime@@@std@@@std@@@std@@QAEXPAU_Node@?$_List_nod@UFireTime@@V?$allocator@UFireTime@@@std@@@2@I@Z ENDP ; std::allocator<std::_List_nod<FireTime,std::allocator<FireTime> >::_Node>::deallocate
_TEXT	ENDS
PUBLIC	?_Inside@?$vector@UDummyTargetAttachInfo@ioTargetTrace7Dummy@@V?$allocator@UDummyTargetAttachInfo@ioTargetTrace7Dummy@@@std@@@std@@IBE_NPBUDummyTargetAttachInfo@ioTargetTrace7Dummy@@@Z ; std::vector<ioTargetTrace7Dummy::DummyTargetAttachInfo,std::allocator<ioTargetTrace7Dummy::DummyTargetAttachInfo> >::_Inside
; Function compile flags: /Ogsp
; File c:\program files (x86)\microsoft visual studio 10.0\vc\include\vector
;	COMDAT ?_Inside@?$vector@UDummyTargetAttachInfo@ioTargetTrace7Dummy@@V?$allocator@UDummyTargetAttachInfo@ioTargetTrace7Dummy@@@std@@@std@@IBE_NPBUDummyTargetAttachInfo@ioTargetTrace7Dummy@@@Z
_TEXT	SEGMENT
__Ptr$ = 8						; size = 4
?_Inside@?$vector@UDummyTargetAttachInfo@ioTargetTrace7Dummy@@V?$allocator@UDummyTargetAttachInfo@ioTargetTrace7Dummy@@@std@@@std@@IBE_NPBUDummyTargetAttachInfo@ioTargetTrace7Dummy@@@Z PROC ; std::vector<ioTargetTrace7Dummy::DummyTargetAttachInfo,std::allocator<ioTargetTrace7Dummy::DummyTargetAttachInfo> >::_Inside, COMDAT
; _this$ = ecx

; 1285 : 		{	// test if _Ptr points inside vector

  00000	55		 push	 ebp
  00001	8b ec		 mov	 ebp, esp

; 1286 : 		return (_Ptr < this->_Mylast && this->_Myfirst <= _Ptr);

  00003	8b 45 08	 mov	 eax, DWORD PTR __Ptr$[ebp]
  00006	3b 41 04	 cmp	 eax, DWORD PTR [ecx+4]
  00009	73 09		 jae	 SHORT $LN3@Inside
  0000b	39 01		 cmp	 DWORD PTR [ecx], eax
  0000d	77 05		 ja	 SHORT $LN3@Inside
  0000f	33 c0		 xor	 eax, eax
  00011	40		 inc	 eax
  00012	eb 02		 jmp	 SHORT $LN4@Inside
$LN3@Inside:
  00014	33 c0		 xor	 eax, eax
$LN4@Inside:

; 1287 : 		}

  00016	5d		 pop	 ebp
  00017	c2 04 00	 ret	 4
?_Inside@?$vector@UDummyTargetAttachInfo@ioTargetTrace7Dummy@@V?$allocator@UDummyTargetAttachInfo@ioTargetTrace7Dummy@@@std@@@std@@IBE_NPBUDummyTargetAttachInfo@ioTargetTrace7Dummy@@@Z ENDP ; std::vector<ioTargetTrace7Dummy::DummyTargetAttachInfo,std::allocator<ioTargetTrace7Dummy::DummyTargetAttachInfo> >::_Inside
_TEXT	ENDS
PUBLIC	?_Orphan_range@?$vector@UDummyTargetAttachInfo@ioTargetTrace7Dummy@@V?$allocator@UDummyTargetAttachInfo@ioTargetTrace7Dummy@@@std@@@std@@IBEXPAUDummyTargetAttachInfo@ioTargetTrace7Dummy@@0@Z ; std::vector<ioTargetTrace7Dummy::DummyTargetAttachInfo,std::allocator<ioTargetTrace7Dummy::DummyTargetAttachInfo> >::_Orphan_range
; Function compile flags: /Ogsp
;	COMDAT ?_Orphan_range@?$vector@UDummyTargetAttachInfo@ioTargetTrace7Dummy@@V?$allocator@UDummyTargetAttachInfo@ioTargetTrace7Dummy@@@std@@@std@@IBEXPAUDummyTargetAttachInfo@ioTargetTrace7Dummy@@0@Z
_TEXT	SEGMENT
___formal$ = 8						; size = 4
___formal$ = 12						; size = 4
?_Orphan_range@?$vector@UDummyTargetAttachInfo@ioTargetTrace7Dummy@@V?$allocator@UDummyTargetAttachInfo@ioTargetTrace7Dummy@@@std@@@std@@IBEXPAUDummyTargetAttachInfo@ioTargetTrace7Dummy@@0@Z PROC ; std::vector<ioTargetTrace7Dummy::DummyTargetAttachInfo,std::allocator<ioTargetTrace7Dummy::DummyTargetAttachInfo> >::_Orphan_range, COMDAT
; _this$ = ecx

; 1454 : 		}

  00000	c2 08 00	 ret	 8
?_Orphan_range@?$vector@UDummyTargetAttachInfo@ioTargetTrace7Dummy@@V?$allocator@UDummyTargetAttachInfo@ioTargetTrace7Dummy@@@std@@@std@@IBEXPAUDummyTargetAttachInfo@ioTargetTrace7Dummy@@0@Z ENDP ; std::vector<ioTargetTrace7Dummy::DummyTargetAttachInfo,std::allocator<ioTargetTrace7Dummy::DummyTargetAttachInfo> >::_Orphan_range
_TEXT	ENDS
PUBLIC	??1?$_Vector_val@UDummyTargetAttachInfo@ioTargetTrace7Dummy@@V?$allocator@UDummyTargetAttachInfo@ioTargetTrace7Dummy@@@std@@@std@@QAE@XZ ; std::_Vector_val<ioTargetTrace7Dummy::DummyTargetAttachInfo,std::allocator<ioTargetTrace7Dummy::DummyTargetAttachInfo> >::~_Vector_val<ioTargetTrace7Dummy::DummyTargetAttachInfo,std::allocator<ioTargetTrace7Dummy::DummyTargetAttachInfo> >
; Function compile flags: /Ogsp
;	COMDAT ??1?$_Vector_val@UDummyTargetAttachInfo@ioTargetTrace7Dummy@@V?$allocator@UDummyTargetAttachInfo@ioTargetTrace7Dummy@@@std@@@std@@QAE@XZ
_TEXT	SEGMENT
??1?$_Vector_val@UDummyTargetAttachInfo@ioTargetTrace7Dummy@@V?$allocator@UDummyTargetAttachInfo@ioTargetTrace7Dummy@@@std@@@std@@QAE@XZ PROC ; std::_Vector_val<ioTargetTrace7Dummy::DummyTargetAttachInfo,std::allocator<ioTargetTrace7Dummy::DummyTargetAttachInfo> >::~_Vector_val<ioTargetTrace7Dummy::DummyTargetAttachInfo,std::allocator<ioTargetTrace7Dummy::DummyTargetAttachInfo> >, COMDAT
; _this$ = ecx

; 434  : 		}

  00000	c3		 ret	 0
??1?$_Vector_val@UDummyTargetAttachInfo@ioTargetTrace7Dummy@@V?$allocator@UDummyTargetAttachInfo@ioTargetTrace7Dummy@@@std@@@std@@QAE@XZ ENDP ; std::_Vector_val<ioTargetTrace7Dummy::DummyTargetAttachInfo,std::allocator<ioTargetTrace7Dummy::DummyTargetAttachInfo> >::~_Vector_val<ioTargetTrace7Dummy::DummyTargetAttachInfo,std::allocator<ioTargetTrace7Dummy::DummyTargetAttachInfo> >
_TEXT	ENDS
PUBLIC	??0?$allocator@UDummyTargetAttachInfo@ioTargetTrace7Dummy@@@std@@QAE@XZ ; std::allocator<ioTargetTrace7Dummy::DummyTargetAttachInfo>::allocator<ioTargetTrace7Dummy::DummyTargetAttachInfo>
; Function compile flags: /Ogsp
; File c:\program files (x86)\microsoft visual studio 10.0\vc\include\xmemory
;	COMDAT ??0?$allocator@UDummyTargetAttachInfo@ioTargetTrace7Dummy@@@std@@QAE@XZ
_TEXT	SEGMENT
??0?$allocator@UDummyTargetAttachInfo@ioTargetTrace7Dummy@@@std@@QAE@XZ PROC ; std::allocator<ioTargetTrace7Dummy::DummyTargetAttachInfo>::allocator<ioTargetTrace7Dummy::DummyTargetAttachInfo>, COMDAT
; _this$ = ecx

; 161  : 	_ALLOCATOR() _THROW0()

  00000	8b c1		 mov	 eax, ecx

; 162  : 		{	// construct default allocator (do nothing)
; 163  : 		}

  00002	c3		 ret	 0
??0?$allocator@UDummyTargetAttachInfo@ioTargetTrace7Dummy@@@std@@QAE@XZ ENDP ; std::allocator<ioTargetTrace7Dummy::DummyTargetAttachInfo>::allocator<ioTargetTrace7Dummy::DummyTargetAttachInfo>
_TEXT	ENDS
PUBLIC	??E?$_List_const_iterator@V?$_List_val@UFireTime@@V?$allocator@UFireTime@@@std@@@std@@@std@@QAEAAV01@XZ ; std::_List_const_iterator<std::_List_val<FireTime,std::allocator<FireTime> > >::operator++
; Function compile flags: /Ogsp
; File c:\program files (x86)\microsoft visual studio 10.0\vc\include\list
;	COMDAT ??E?$_List_const_iterator@V?$_List_val@UFireTime@@V?$allocator@UFireTime@@@std@@@std@@@std@@QAEAAV01@XZ
_TEXT	SEGMENT
??E?$_List_const_iterator@V?$_List_val@UFireTime@@V?$allocator@UFireTime@@@std@@@std@@@std@@QAEAAV01@XZ PROC ; std::_List_const_iterator<std::_List_val<FireTime,std::allocator<FireTime> > >::operator++, COMDAT
; _this$ = ecx

; 221  : 		{	// preincrement

  00000	8b c1		 mov	 eax, ecx

; 222  :  #if _ITERATOR_DEBUG_LEVEL == 2
; 223  : 		if (this->_Getcont() == 0
; 224  : 			|| this->_Ptr == 0
; 225  : 			|| this->_Ptr == ((_Mylist *)this->_Getcont())->_Myhead)
; 226  : 			{	// report error
; 227  : 			_DEBUG_ERROR("list iterator not incrementable");
; 228  : 			_SCL_SECURE_OUT_OF_RANGE;
; 229  : 			}
; 230  : 
; 231  :  #elif _ITERATOR_DEBUG_LEVEL == 1
; 232  : 		_SCL_SECURE_VALIDATE(this->_Getcont() != 0 && this->_Ptr != 0);
; 233  : 		_SCL_SECURE_VALIDATE_RANGE(this->_Ptr !=
; 234  : 			((_Mylist *)this->_Getcont())->_Myhead);
; 235  :  #endif /* _ITERATOR_DEBUG_LEVEL */
; 236  : 
; 237  : 		this->_Ptr = _Mylist::_Nextnode(this->_Ptr);

  00002	8b 08		 mov	 ecx, DWORD PTR [eax]
  00004	8b 09		 mov	 ecx, DWORD PTR [ecx]
  00006	89 08		 mov	 DWORD PTR [eax], ecx

; 238  : 		return (*this);
; 239  : 		}

  00008	c3		 ret	 0
??E?$_List_const_iterator@V?$_List_val@UFireTime@@V?$allocator@UFireTime@@@std@@@std@@@std@@QAEAAV01@XZ ENDP ; std::_List_const_iterator<std::_List_val<FireTime,std::allocator<FireTime> > >::operator++
_TEXT	ENDS
PUBLIC	??E?$_List_const_iterator@V?$_List_val@UFireTime@@V?$allocator@UFireTime@@@std@@@std@@@std@@QAE?AV01@H@Z ; std::_List_const_iterator<std::_List_val<FireTime,std::allocator<FireTime> > >::operator++
; Function compile flags: /Ogsp
;	COMDAT ??E?$_List_const_iterator@V?$_List_val@UFireTime@@V?$allocator@UFireTime@@@std@@@std@@@std@@QAE?AV01@H@Z
_TEXT	SEGMENT
___$ReturnUdt$ = 8					; size = 4
___formal$ = 12						; size = 4
??E?$_List_const_iterator@V?$_List_val@UFireTime@@V?$allocator@UFireTime@@@std@@@std@@@std@@QAE?AV01@H@Z PROC ; std::_List_const_iterator<std::_List_val<FireTime,std::allocator<FireTime> > >::operator++, COMDAT
; _this$ = ecx

; 242  : 		{	// postincrement

  00000	55		 push	 ebp
  00001	8b ec		 mov	 ebp, esp

; 243  : 		_Myiter _Tmp = *this;

  00003	8b 11		 mov	 edx, DWORD PTR [ecx]
  00005	8b 45 08	 mov	 eax, DWORD PTR ___$ReturnUdt$[ebp]
  00008	89 10		 mov	 DWORD PTR [eax], edx

; 244  : 		++*this;

  0000a	8b 12		 mov	 edx, DWORD PTR [edx]
  0000c	89 11		 mov	 DWORD PTR [ecx], edx

; 245  : 		return (_Tmp);
; 246  : 		}

  0000e	5d		 pop	 ebp
  0000f	c2 08 00	 ret	 8
??E?$_List_const_iterator@V?$_List_val@UFireTime@@V?$allocator@UFireTime@@@std@@@std@@@std@@QAE?AV01@H@Z ENDP ; std::_List_const_iterator<std::_List_val<FireTime,std::allocator<FireTime> > >::operator++
_TEXT	ENDS
PUBLIC	??8?$_List_const_iterator@V?$_List_val@UFireTime@@V?$allocator@UFireTime@@@std@@@std@@@std@@QBE_NABV01@@Z ; std::_List_const_iterator<std::_List_val<FireTime,std::allocator<FireTime> > >::operator==
; Function compile flags: /Ogsp
;	COMDAT ??8?$_List_const_iterator@V?$_List_val@UFireTime@@V?$allocator@UFireTime@@@std@@@std@@@std@@QBE_NABV01@@Z
_TEXT	SEGMENT
__Right$ = 8						; size = 4
??8?$_List_const_iterator@V?$_List_val@UFireTime@@V?$allocator@UFireTime@@@std@@@std@@@std@@QBE_NABV01@@Z PROC ; std::_List_const_iterator<std::_List_val<FireTime,std::allocator<FireTime> > >::operator==, COMDAT
; _this$ = ecx

; 281  : 		{	// test for iterator equality

  00000	55		 push	 ebp
  00001	8b ec		 mov	 ebp, esp

; 282  :  #if _ITERATOR_DEBUG_LEVEL == 2
; 283  : 		if (this->_Getcont() == 0
; 284  : 			|| this->_Getcont() != _Right._Getcont())
; 285  : 			{	// report error
; 286  : 			_DEBUG_ERROR("list iterators incompatible");
; 287  : 			_SCL_SECURE_INVALID_ARGUMENT;
; 288  : 			}
; 289  : 
; 290  :  #elif _ITERATOR_DEBUG_LEVEL == 1
; 291  : 		_SCL_SECURE_VALIDATE(this->_Getcont() != 0
; 292  : 			&& this->_Getcont() == _Right._Getcont());
; 293  :  #endif /* _ITERATOR_DEBUG_LEVEL */
; 294  : 
; 295  : 		return (this->_Ptr == _Right._Ptr);

  00003	8b 01		 mov	 eax, DWORD PTR [ecx]
  00005	8b 4d 08	 mov	 ecx, DWORD PTR __Right$[ebp]
  00008	2b 01		 sub	 eax, DWORD PTR [ecx]
  0000a	f7 d8		 neg	 eax
  0000c	1b c0		 sbb	 eax, eax
  0000e	40		 inc	 eax

; 296  : 		}

  0000f	5d		 pop	 ebp
  00010	c2 04 00	 ret	 4
??8?$_List_const_iterator@V?$_List_val@UFireTime@@V?$allocator@UFireTime@@@std@@@std@@@std@@QBE_NABV01@@Z ENDP ; std::_List_const_iterator<std::_List_val<FireTime,std::allocator<FireTime> > >::operator==
_TEXT	ENDS
PUBLIC	?_Mynode@?$_List_unchecked_const_iterator@V?$_List_val@UFireTime@@V?$allocator@UFireTime@@@std@@@std@@U_Iterator_base0@2@@std@@QBEPAU_Node@?$_List_nod@UFireTime@@V?$allocator@UFireTime@@@std@@@2@XZ ; std::_List_unchecked_const_iterator<std::_List_val<FireTime,std::allocator<FireTime> >,std::_Iterator_base0>::_Mynode
; Function compile flags: /Ogsp
;	COMDAT ?_Mynode@?$_List_unchecked_const_iterator@V?$_List_val@UFireTime@@V?$allocator@UFireTime@@@std@@@std@@U_Iterator_base0@2@@std@@QBEPAU_Node@?$_List_nod@UFireTime@@V?$allocator@UFireTime@@@std@@@2@XZ
_TEXT	SEGMENT
?_Mynode@?$_List_unchecked_const_iterator@V?$_List_val@UFireTime@@V?$allocator@UFireTime@@@std@@@std@@U_Iterator_base0@2@@std@@QBEPAU_Node@?$_List_nod@UFireTime@@V?$allocator@UFireTime@@@std@@@2@XZ PROC ; std::_List_unchecked_const_iterator<std::_List_val<FireTime,std::allocator<FireTime> >,std::_Iterator_base0>::_Mynode, COMDAT
; _this$ = ecx

; 93   : 		return (_Ptr);

  00000	8b 01		 mov	 eax, DWORD PTR [ecx]

; 94   : 		}

  00002	c3		 ret	 0
?_Mynode@?$_List_unchecked_const_iterator@V?$_List_val@UFireTime@@V?$allocator@UFireTime@@@std@@@std@@U_Iterator_base0@2@@std@@QBEPAU_Node@?$_List_nod@UFireTime@@V?$allocator@UFireTime@@@std@@@2@XZ ENDP ; std::_List_unchecked_const_iterator<std::_List_val<FireTime,std::allocator<FireTime> >,std::_Iterator_base0>::_Mynode
_TEXT	ENDS
PUBLIC	?_Myval@?$_List_val@UFireTime@@V?$allocator@UFireTime@@@std@@@std@@SAAAUFireTime@@PAU_Node@?$_List_nod@UFireTime@@V?$allocator@UFireTime@@@std@@@2@@Z ; std::_List_val<FireTime,std::allocator<FireTime> >::_Myval
; Function compile flags: /Ogsp
;	COMDAT ?_Myval@?$_List_val@UFireTime@@V?$allocator@UFireTime@@@std@@@std@@SAAAUFireTime@@PAU_Node@?$_List_nod@UFireTime@@V?$allocator@UFireTime@@@std@@@2@@Z
_TEXT	SEGMENT
__Pnode$ = 8						; size = 4
?_Myval@?$_List_val@UFireTime@@V?$allocator@UFireTime@@@std@@@std@@SAAAUFireTime@@PAU_Node@?$_List_nod@UFireTime@@V?$allocator@UFireTime@@@std@@@2@@Z PROC ; std::_List_val<FireTime,std::allocator<FireTime> >::_Myval, COMDAT

; 570  : 		{	// return reference to value in node

  00000	55		 push	 ebp
  00001	8b ec		 mov	 ebp, esp

; 571  : 		return ((reference)(*_Pnode)._Myval);

  00003	8b 45 08	 mov	 eax, DWORD PTR __Pnode$[ebp]
  00006	83 c0 08	 add	 eax, 8

; 572  : 		}

  00009	5d		 pop	 ebp
  0000a	c3		 ret	 0
?_Myval@?$_List_val@UFireTime@@V?$allocator@UFireTime@@@std@@@std@@SAAAUFireTime@@PAU_Node@?$_List_nod@UFireTime@@V?$allocator@UFireTime@@@std@@@2@@Z ENDP ; std::_List_val<FireTime,std::allocator<FireTime> >::_Myval
_TEXT	ENDS
PUBLIC	?capacity@?$vector@UDummyTargetAttachInfo@ioTargetTrace7Dummy@@V?$allocator@UDummyTargetAttachInfo@ioTargetTrace7Dummy@@@std@@@std@@QBEIXZ ; std::vector<ioTargetTrace7Dummy::DummyTargetAttachInfo,std::allocator<ioTargetTrace7Dummy::DummyTargetAttachInfo> >::capacity
; Function compile flags: /Ogsp
; File c:\program files (x86)\microsoft visual studio 10.0\vc\include\vector
;	COMDAT ?capacity@?$vector@UDummyTargetAttachInfo@ioTargetTrace7Dummy@@V?$allocator@UDummyTargetAttachInfo@ioTargetTrace7Dummy@@@std@@@std@@QBEIXZ
_TEXT	SEGMENT
?capacity@?$vector@UDummyTargetAttachInfo@ioTargetTrace7Dummy@@V?$allocator@UDummyTargetAttachInfo@ioTargetTrace7Dummy@@@std@@@std@@QBEIXZ PROC ; std::vector<ioTargetTrace7Dummy::DummyTargetAttachInfo,std::allocator<ioTargetTrace7Dummy::DummyTargetAttachInfo> >::capacity, COMDAT
; _this$ = ecx

; 777  : 		return (this->_Myend - this->_Myfirst);

  00000	8b 41 08	 mov	 eax, DWORD PTR [ecx+8]
  00003	2b 01		 sub	 eax, DWORD PTR [ecx]
  00005	6a 0c		 push	 12			; 0000000cH
  00007	99		 cdq
  00008	59		 pop	 ecx
  00009	f7 f9		 idiv	 ecx

; 778  : 		}

  0000b	c3		 ret	 0
?capacity@?$vector@UDummyTargetAttachInfo@ioTargetTrace7Dummy@@V?$allocator@UDummyTargetAttachInfo@ioTargetTrace7Dummy@@@std@@@std@@QBEIXZ ENDP ; std::vector<ioTargetTrace7Dummy::DummyTargetAttachInfo,std::allocator<ioTargetTrace7Dummy::DummyTargetAttachInfo> >::capacity
_TEXT	ENDS
PUBLIC	??_C@_0BD@OLBABOEK@vector?$DMT?$DO?5too?5long?$AA@ ; `string'
PUBLIC	?_Xlen@?$vector@UDummyTargetAttachInfo@ioTargetTrace7Dummy@@V?$allocator@UDummyTargetAttachInfo@ioTargetTrace7Dummy@@@std@@@std@@IBEXXZ ; std::vector<ioTargetTrace7Dummy::DummyTargetAttachInfo,std::allocator<ioTargetTrace7Dummy::DummyTargetAttachInfo> >::_Xlen
EXTRN	__imp_?_Xlength_error@std@@YAXPBD@Z:PROC
;	COMDAT ??_C@_0BD@OLBABOEK@vector?$DMT?$DO?5too?5long?$AA@
CONST	SEGMENT
??_C@_0BD@OLBABOEK@vector?$DMT?$DO?5too?5long?$AA@ DB 'vector<T> too long'
	DB	00H						; `string'
; Function compile flags: /Ogsp
CONST	ENDS
;	COMDAT ?_Xlen@?$vector@UDummyTargetAttachInfo@ioTargetTrace7Dummy@@V?$allocator@UDummyTargetAttachInfo@ioTargetTrace7Dummy@@@std@@@std@@IBEXXZ
_TEXT	SEGMENT
?_Xlen@?$vector@UDummyTargetAttachInfo@ioTargetTrace7Dummy@@V?$allocator@UDummyTargetAttachInfo@ioTargetTrace7Dummy@@@std@@@std@@IBEXXZ PROC ; std::vector<ioTargetTrace7Dummy::DummyTargetAttachInfo,std::allocator<ioTargetTrace7Dummy::DummyTargetAttachInfo> >::_Xlen, COMDAT
; _this$ = ecx

; 1427 : 		_Xlength_error("vector<T> too long");

  00000	68 00 00 00 00	 push	 OFFSET ??_C@_0BD@OLBABOEK@vector?$DMT?$DO?5too?5long?$AA@
  00005	ff 15 00 00 00
	00		 call	 DWORD PTR __imp_?_Xlength_error@std@@YAXPBD@Z
$LN4@Xlen:
$LN3@Xlen:
  0000b	cc		 int	 3
?_Xlen@?$vector@UDummyTargetAttachInfo@ioTargetTrace7Dummy@@V?$allocator@UDummyTargetAttachInfo@ioTargetTrace7Dummy@@@std@@@std@@IBEXXZ ENDP ; std::vector<ioTargetTrace7Dummy::DummyTargetAttachInfo,std::allocator<ioTargetTrace7Dummy::DummyTargetAttachInfo> >::_Xlen
_TEXT	ENDS
PUBLIC	??0?$allocator@UDummyTargetAttachInfo@ioTargetTrace7Dummy@@@std@@QAE@ABV01@@Z ; std::allocator<ioTargetTrace7Dummy::DummyTargetAttachInfo>::allocator<ioTargetTrace7Dummy::DummyTargetAttachInfo>
; Function compile flags: /Ogsp
; File c:\program files (x86)\microsoft visual studio 10.0\vc\include\xmemory
;	COMDAT ??0?$allocator@UDummyTargetAttachInfo@ioTargetTrace7Dummy@@@std@@QAE@ABV01@@Z
_TEXT	SEGMENT
___formal$ = 8						; size = 4
??0?$allocator@UDummyTargetAttachInfo@ioTargetTrace7Dummy@@@std@@QAE@ABV01@@Z PROC ; std::allocator<ioTargetTrace7Dummy::DummyTargetAttachInfo>::allocator<ioTargetTrace7Dummy::DummyTargetAttachInfo>, COMDAT
; _this$ = ecx

; 165  : 	_ALLOCATOR(const _ALLOCATOR<_Ty>&) _THROW0()

  00000	8b c1		 mov	 eax, ecx

; 166  : 		{	// construct by copying (do nothing)
; 167  : 		}

  00002	c2 04 00	 ret	 4
??0?$allocator@UDummyTargetAttachInfo@ioTargetTrace7Dummy@@@std@@QAE@ABV01@@Z ENDP ; std::allocator<ioTargetTrace7Dummy::DummyTargetAttachInfo>::allocator<ioTargetTrace7Dummy::DummyTargetAttachInfo>
_TEXT	ENDS
PUBLIC	?deallocate@?$allocator@UDummyTargetAttachInfo@ioTargetTrace7Dummy@@@std@@QAEXPAUDummyTargetAttachInfo@ioTargetTrace7Dummy@@I@Z ; std::allocator<ioTargetTrace7Dummy::DummyTargetAttachInfo>::deallocate
; Function compile flags: /Ogsp
;	COMDAT ?deallocate@?$allocator@UDummyTargetAttachInfo@ioTargetTrace7Dummy@@@std@@QAEXPAUDummyTargetAttachInfo@ioTargetTrace7Dummy@@I@Z
_TEXT	SEGMENT
__Ptr$ = 8						; size = 4
___formal$ = 12						; size = 4
?deallocate@?$allocator@UDummyTargetAttachInfo@ioTargetTrace7Dummy@@@std@@QAEXPAUDummyTargetAttachInfo@ioTargetTrace7Dummy@@I@Z PROC ; std::allocator<ioTargetTrace7Dummy::DummyTargetAttachInfo>::deallocate, COMDAT
; _this$ = ecx

; 181  : 		{	// deallocate object at _Ptr, ignore size

  00000	55		 push	 ebp
  00001	8b ec		 mov	 ebp, esp

; 182  : 		::operator delete(_Ptr);

  00003	ff 75 08	 push	 DWORD PTR __Ptr$[ebp]
  00006	e8 00 00 00 00	 call	 ??3@YAXPAX@Z		; operator delete
  0000b	59		 pop	 ecx

; 183  : 		}

  0000c	5d		 pop	 ebp
  0000d	c2 08 00	 ret	 8
?deallocate@?$allocator@UDummyTargetAttachInfo@ioTargetTrace7Dummy@@@std@@QAEXPAUDummyTargetAttachInfo@ioTargetTrace7Dummy@@I@Z ENDP ; std::allocator<ioTargetTrace7Dummy::DummyTargetAttachInfo>::deallocate
_TEXT	ENDS
PUBLIC	?max_size@?$allocator@UDummyTargetAttachInfo@ioTargetTrace7Dummy@@@std@@QBEIXZ ; std::allocator<ioTargetTrace7Dummy::DummyTargetAttachInfo>::max_size
; Function compile flags: /Ogsp
;	COMDAT ?max_size@?$allocator@UDummyTargetAttachInfo@ioTargetTrace7Dummy@@@std@@QBEIXZ
_TEXT	SEGMENT
?max_size@?$allocator@UDummyTargetAttachInfo@ioTargetTrace7Dummy@@@std@@QBEIXZ PROC ; std::allocator<ioTargetTrace7Dummy::DummyTargetAttachInfo>::max_size, COMDAT
; _this$ = ecx

; 218  : 		_SIZT _Count = (_SIZT)(-1) / sizeof (_Ty);
; 219  : 		return (0 < _Count ? _Count : 1);

  00000	b8 55 55 55 15	 mov	 eax, 357913941		; 15555555H

; 220  : 		}

  00005	c3		 ret	 0
?max_size@?$allocator@UDummyTargetAttachInfo@ioTargetTrace7Dummy@@@std@@QBEIXZ ENDP ; std::allocator<ioTargetTrace7Dummy::DummyTargetAttachInfo>::max_size
_TEXT	ENDS
PUBLIC	??0?$_List_unchecked_const_iterator@V?$_List_val@UFireTime@@V?$allocator@UFireTime@@@std@@@std@@U_Iterator_base0@2@@std@@QAE@PAU_Node@?$_List_nod@UFireTime@@V?$allocator@UFireTime@@@std@@@1@PBV?$_List_val@UFireTime@@V?$allocator@UFireTime@@@std@@@1@@Z ; std::_List_unchecked_const_iterator<std::_List_val<FireTime,std::allocator<FireTime> >,std::_Iterator_base0>::_List_unchecked_const_iterator<std::_List_val<FireTime,std::allocator<FireTime> >,std::_Iterator_base0>
; Function compile flags: /Ogsp
; File c:\program files (x86)\microsoft visual studio 10.0\vc\include\list
;	COMDAT ??0?$_List_unchecked_const_iterator@V?$_List_val@UFireTime@@V?$allocator@UFireTime@@@std@@@std@@U_Iterator_base0@2@@std@@QAE@PAU_Node@?$_List_nod@UFireTime@@V?$allocator@UFireTime@@@std@@@1@PBV?$_List_val@UFireTime@@V?$allocator@UFireTime@@@std@@@1@@Z
_TEXT	SEGMENT
__Pnode$ = 8						; size = 4
__Plist$ = 12						; size = 4
??0?$_List_unchecked_const_iterator@V?$_List_val@UFireTime@@V?$allocator@UFireTime@@@std@@@std@@U_Iterator_base0@2@@std@@QAE@PAU_Node@?$_List_nod@UFireTime@@V?$allocator@UFireTime@@@std@@@1@PBV?$_List_val@UFireTime@@V?$allocator@UFireTime@@@std@@@1@@Z PROC ; std::_List_unchecked_const_iterator<std::_List_val<FireTime,std::allocator<FireTime> >,std::_Iterator_base0>::_List_unchecked_const_iterator<std::_List_val<FireTime,std::allocator<FireTime> >,std::_Iterator_base0>, COMDAT
; _this$ = ecx

; 41   : 		{	// construct with node pointer _Pnode

  00000	55		 push	 ebp
  00001	8b ec		 mov	 ebp, esp
  00003	8b c1		 mov	 eax, ecx
  00005	8b 4d 08	 mov	 ecx, DWORD PTR __Pnode$[ebp]
  00008	89 08		 mov	 DWORD PTR [eax], ecx

; 42   : 		this->_Adopt(_Plist);
; 43   : 		}

  0000a	5d		 pop	 ebp
  0000b	c2 08 00	 ret	 8
??0?$_List_unchecked_const_iterator@V?$_List_val@UFireTime@@V?$allocator@UFireTime@@@std@@@std@@U_Iterator_base0@2@@std@@QAE@PAU_Node@?$_List_nod@UFireTime@@V?$allocator@UFireTime@@@std@@@1@PBV?$_List_val@UFireTime@@V?$allocator@UFireTime@@@std@@@1@@Z ENDP ; std::_List_unchecked_const_iterator<std::_List_val<FireTime,std::allocator<FireTime> >,std::_Iterator_base0>::_List_unchecked_const_iterator<std::_List_val<FireTime,std::allocator<FireTime> >,std::_Iterator_base0>
_TEXT	ENDS
PUBLIC	__real@3f91df46a2526c7a
PUBLIC	??$DEGtoRAD@M@@YAMM@Z				; DEGtoRAD<float>
;	COMDAT __real@3f91df46a2526c7a
; File d:\lost saga for developer\youtube\tutorial\source\src\lsclient\veryoftenusedefine.h
CONST	SEGMENT
__real@3f91df46a2526c7a DQ 03f91df46a2526c7ar	; 0.0174533
; Function compile flags: /Ogsp
CONST	ENDS
;	COMDAT ??$DEGtoRAD@M@@YAMM@Z
_TEXT	SEGMENT
tv129 = 8						; size = 4
_val$ = 8						; size = 4
??$DEGtoRAD@M@@YAMM@Z PROC				; DEGtoRAD<float>, COMDAT

; 20   : type  DEGtoRAD (type val) {return (type) (val * 0.0174532925199);}

  00000	55		 push	 ebp
  00001	8b ec		 mov	 ebp, esp
  00003	d9 45 08	 fld	 DWORD PTR _val$[ebp]
  00006	dc 0d 00 00 00
	00		 fmul	 QWORD PTR __real@3f91df46a2526c7a
  0000c	d9 5d 08	 fstp	 DWORD PTR tv129[ebp]
  0000f	d9 45 08	 fld	 DWORD PTR tv129[ebp]
  00012	5d		 pop	 ebp
  00013	c3		 ret	 0
??$DEGtoRAD@M@@YAMM@Z ENDP				; DEGtoRAD<float>
_TEXT	ENDS
PUBLIC	??$addressof@$$CBUDummyTargetAttachInfo@ioTargetTrace7Dummy@@@std@@YAPBUDummyTargetAttachInfo@ioTargetTrace7Dummy@@ABU12@@Z ; std::addressof<ioTargetTrace7Dummy::DummyTargetAttachInfo const >
; Function compile flags: /Ogsp
; File c:\program files (x86)\microsoft visual studio 10.0\vc\include\xmemory
;	COMDAT ??$addressof@$$CBUDummyTargetAttachInfo@ioTargetTrace7Dummy@@@std@@YAPBUDummyTargetAttachInfo@ioTargetTrace7Dummy@@ABU12@@Z
_TEXT	SEGMENT
__Val$ = 8						; size = 4
??$addressof@$$CBUDummyTargetAttachInfo@ioTargetTrace7Dummy@@@std@@YAPBUDummyTargetAttachInfo@ioTargetTrace7Dummy@@ABU12@@Z PROC ; std::addressof<ioTargetTrace7Dummy::DummyTargetAttachInfo const >, COMDAT

; 110  : 	{	// return address of _Val

  00000	55		 push	 ebp
  00001	8b ec		 mov	 ebp, esp

; 111  : 	return ((_Ty *) &(char&)_Val);

  00003	8b 45 08	 mov	 eax, DWORD PTR __Val$[ebp]

; 112  : 	}

  00006	5d		 pop	 ebp
  00007	c3		 ret	 0
??$addressof@$$CBUDummyTargetAttachInfo@ioTargetTrace7Dummy@@@std@@YAPBUDummyTargetAttachInfo@ioTargetTrace7Dummy@@ABU12@@Z ENDP ; std::addressof<ioTargetTrace7Dummy::DummyTargetAttachInfo const >
_TEXT	ENDS
PUBLIC	__TI2?AVbad_alloc@std@@
PUBLIC	??$_Allocate@UDummyTargetAttachInfo@ioTargetTrace7Dummy@@@std@@YAPAUDummyTargetAttachInfo@ioTargetTrace7Dummy@@IPAU12@@Z ; std::_Allocate<ioTargetTrace7Dummy::DummyTargetAttachInfo>
PUBLIC	__CTA2?AVbad_alloc@std@@
PUBLIC	__CT??_R0?AVbad_alloc@std@@@8??0bad_alloc@std@@QAE@ABV01@@Z12
PUBLIC	??0bad_alloc@std@@QAE@ABV01@@Z			; std::bad_alloc::bad_alloc
PUBLIC	__CT??_R0?AVexception@std@@@8??0exception@std@@QAE@ABV01@@Z12
EXTRN	??2@YAPAXI@Z:PROC				; operator new
EXTRN	__CxxThrowException@8:PROC
EXTRN	??0exception@std@@QAE@ABV01@@Z:PROC		; std::exception::exception
;	COMDAT __CT??_R0?AVexception@std@@@8??0exception@std@@QAE@ABV01@@Z12
; File c:\program files (x86)\microsoft visual studio 10.0\vc\include\exception
xdata$x	SEGMENT
__CT??_R0?AVexception@std@@@8??0exception@std@@QAE@ABV01@@Z12 DD 00H
	DD	FLAT:??_R0?AVexception@std@@@8
	DD	00H
	DD	0ffffffffH
	ORG $+4
	DD	0cH
	DD	FLAT:??0exception@std@@QAE@ABV01@@Z
xdata$x	ENDS
;	COMDAT __CT??_R0?AVbad_alloc@std@@@8??0bad_alloc@std@@QAE@ABV01@@Z12
xdata$x	SEGMENT
__CT??_R0?AVbad_alloc@std@@@8??0bad_alloc@std@@QAE@ABV01@@Z12 DD 00H
	DD	FLAT:??_R0?AVbad_alloc@std@@@8
	DD	00H
	DD	0ffffffffH
	ORG $+4
	DD	0cH
	DD	FLAT:??0bad_alloc@std@@QAE@ABV01@@Z
xdata$x	ENDS
;	COMDAT __CTA2?AVbad_alloc@std@@
xdata$x	SEGMENT
__CTA2?AVbad_alloc@std@@ DD 02H
	DD	FLAT:__CT??_R0?AVbad_alloc@std@@@8??0bad_alloc@std@@QAE@ABV01@@Z12
	DD	FLAT:__CT??_R0?AVexception@std@@@8??0exception@std@@QAE@ABV01@@Z12
xdata$x	ENDS
;	COMDAT __TI2?AVbad_alloc@std@@
xdata$x	SEGMENT
__TI2?AVbad_alloc@std@@ DD 00H
	DD	FLAT:??1bad_alloc@std@@UAE@XZ
	DD	00H
	DD	FLAT:__CTA2?AVbad_alloc@std@@
; Function compile flags: /Ogsp
; File c:\program files (x86)\microsoft visual studio 10.0\vc\include\xmemory
xdata$x	ENDS
;	COMDAT ??$_Allocate@UDummyTargetAttachInfo@ioTargetTrace7Dummy@@@std@@YAPAUDummyTargetAttachInfo@ioTargetTrace7Dummy@@IPAU12@@Z
_TEXT	SEGMENT
$T533788 = -12						; size = 12
$T533793 = 8						; size = 4
__Count$ = 8						; size = 4
___formal$ = 12						; size = 4
??$_Allocate@UDummyTargetAttachInfo@ioTargetTrace7Dummy@@@std@@YAPAUDummyTargetAttachInfo@ioTargetTrace7Dummy@@IPAU12@@Z PROC ; std::_Allocate<ioTargetTrace7Dummy::DummyTargetAttachInfo>, COMDAT

; 30   : 	{	// allocate storage for _Count elements of type _Ty

  00000	55		 push	 ebp
  00001	8b ec		 mov	 ebp, esp

; 31   : 	void *_Ptr = 0;
; 32   : 
; 33   : 	if (_Count <= 0)

  00003	8b 4d 08	 mov	 ecx, DWORD PTR __Count$[ebp]
  00006	83 ec 0c	 sub	 esp, 12			; 0000000cH
  00009	33 c0		 xor	 eax, eax
  0000b	85 c9		 test	 ecx, ecx

; 34   : 		_Count = 0;
; 35   : 	else if (((_SIZT)(-1) / sizeof (_Ty) < _Count)

  0000d	74 3c		 je	 SHORT $LN5@Allocate

; 36   : 		|| (_Ptr = ::operator new(_Count * sizeof (_Ty))) == 0)

  0000f	81 f9 55 55 55
	15		 cmp	 ecx, 357913941		; 15555555H
  00015	77 0e		 ja	 SHORT $LN1@Allocate
  00017	6b c9 0c	 imul	 ecx, 12			; 0000000cH
  0001a	51		 push	 ecx
  0001b	e8 00 00 00 00	 call	 ??2@YAPAXI@Z		; operator new
  00020	59		 pop	 ecx
  00021	85 c0		 test	 eax, eax

; 38   : 
; 39   : 	return ((_Ty _FARQ *)_Ptr);

  00023	75 26		 jne	 SHORT $LN5@Allocate
$LN1@Allocate:

; 37   : 		_THROW_NCEE(bad_alloc, 0);

  00025	83 65 08 00	 and	 DWORD PTR $T533793[ebp], 0
  00029	8d 45 08	 lea	 eax, DWORD PTR $T533793[ebp]
  0002c	50		 push	 eax
  0002d	8d 4d f4	 lea	 ecx, DWORD PTR $T533788[ebp]
  00030	ff 15 00 00 00
	00		 call	 DWORD PTR __imp_??0exception@std@@QAE@ABQBD@Z
  00036	68 00 00 00 00	 push	 OFFSET __TI2?AVbad_alloc@std@@
  0003b	8d 45 f4	 lea	 eax, DWORD PTR $T533788[ebp]
  0003e	50		 push	 eax
  0003f	c7 45 f4 00 00
	00 00		 mov	 DWORD PTR $T533788[ebp], OFFSET ??_7bad_alloc@std@@6B@
  00046	e8 00 00 00 00	 call	 __CxxThrowException@8
$LN10@Allocate:
$LN5@Allocate:

; 40   : 	}

  0004b	c9		 leave
  0004c	c3		 ret	 0
$LN9@Allocate:
??$_Allocate@UDummyTargetAttachInfo@ioTargetTrace7Dummy@@@std@@YAPAUDummyTargetAttachInfo@ioTargetTrace7Dummy@@IPAU12@@Z ENDP ; std::_Allocate<ioTargetTrace7Dummy::DummyTargetAttachInfo>
_TEXT	ENDS
PUBLIC	??$forward@AAUDummyTargetAttachInfo@ioTargetTrace7Dummy@@@std@@YAAAUDummyTargetAttachInfo@ioTargetTrace7Dummy@@AAU12@@Z ; std::forward<ioTargetTrace7Dummy::DummyTargetAttachInfo &>
; Function compile flags: /Ogsp
; File c:\program files (x86)\microsoft visual studio 10.0\vc\include\utility
;	COMDAT ??$forward@AAUDummyTargetAttachInfo@ioTargetTrace7Dummy@@@std@@YAAAUDummyTargetAttachInfo@ioTargetTrace7Dummy@@AAU12@@Z
_TEXT	SEGMENT
__Arg$ = 8						; size = 4
??$forward@AAUDummyTargetAttachInfo@ioTargetTrace7Dummy@@@std@@YAAAUDummyTargetAttachInfo@ioTargetTrace7Dummy@@AAU12@@Z PROC ; std::forward<ioTargetTrace7Dummy::DummyTargetAttachInfo &>, COMDAT

; 78   : 	{	// forward _Arg, given explicitly specified type parameter

  00000	55		 push	 ebp
  00001	8b ec		 mov	 ebp, esp

; 79   : 	return ((_Ty&&)_Arg);

  00003	8b 45 08	 mov	 eax, DWORD PTR __Arg$[ebp]

; 80   : 	}

  00006	5d		 pop	 ebp
  00007	c3		 ret	 0
??$forward@AAUDummyTargetAttachInfo@ioTargetTrace7Dummy@@@std@@YAAAUDummyTargetAttachInfo@ioTargetTrace7Dummy@@AAU12@@Z ENDP ; std::forward<ioTargetTrace7Dummy::DummyTargetAttachInfo &>
_TEXT	ENDS
PUBLIC	??$construct@AAUDummyTargetAttachInfo@ioTargetTrace7Dummy@@@?$allocator@UDummyTargetAttachInfo@ioTargetTrace7Dummy@@@std@@QAEXPAUDummyTargetAttachInfo@ioTargetTrace7Dummy@@AAU23@@Z ; std::allocator<ioTargetTrace7Dummy::DummyTargetAttachInfo>::construct<ioTargetTrace7Dummy::DummyTargetAttachInfo &>
; Function compile flags: /Ogsp
; File c:\program files (x86)\microsoft visual studio 10.0\vc\include\xmemory
;	COMDAT ??$construct@AAUDummyTargetAttachInfo@ioTargetTrace7Dummy@@@?$allocator@UDummyTargetAttachInfo@ioTargetTrace7Dummy@@@std@@QAEXPAUDummyTargetAttachInfo@ioTargetTrace7Dummy@@AAU23@@Z
_TEXT	SEGMENT
__Ptr$ = 8						; size = 4
__Val$ = 12						; size = 4
??$construct@AAUDummyTargetAttachInfo@ioTargetTrace7Dummy@@@?$allocator@UDummyTargetAttachInfo@ioTargetTrace7Dummy@@@std@@QAEXPAUDummyTargetAttachInfo@ioTargetTrace7Dummy@@AAU23@@Z PROC ; std::allocator<ioTargetTrace7Dummy::DummyTargetAttachInfo>::construct<ioTargetTrace7Dummy::DummyTargetAttachInfo &>, COMDAT
; _this$ = ecx

; 206  : 		void construct(pointer _Ptr, _Other&& _Val)

  00000	55		 push	 ebp
  00001	8b ec		 mov	 ebp, esp
  00003	57		 push	 edi

; 207  : 		{	// construct object at _Ptr with value _Val
; 208  : 		::new ((void _FARQ *)_Ptr) _Ty(_STD forward<_Other>(_Val));

  00004	8b 7d 08	 mov	 edi, DWORD PTR __Ptr$[ebp]
  00007	85 ff		 test	 edi, edi
  00009	74 08		 je	 SHORT $LN3@construct
  0000b	56		 push	 esi
  0000c	8b 75 0c	 mov	 esi, DWORD PTR __Val$[ebp]
  0000f	a5		 movsd
  00010	a5		 movsd
  00011	a5		 movsd
  00012	5e		 pop	 esi
$LN3@construct:
  00013	5f		 pop	 edi

; 209  : 		}

  00014	5d		 pop	 ebp
  00015	c2 08 00	 ret	 8
??$construct@AAUDummyTargetAttachInfo@ioTargetTrace7Dummy@@@?$allocator@UDummyTargetAttachInfo@ioTargetTrace7Dummy@@@std@@QAEXPAUDummyTargetAttachInfo@ioTargetTrace7Dummy@@AAU23@@Z ENDP ; std::allocator<ioTargetTrace7Dummy::DummyTargetAttachInfo>::construct<ioTargetTrace7Dummy::DummyTargetAttachInfo &>
_TEXT	ENDS
PUBLIC	??$forward@ABUDummyTargetAttachInfo@ioTargetTrace7Dummy@@@std@@YAABUDummyTargetAttachInfo@ioTargetTrace7Dummy@@ABU12@@Z ; std::forward<ioTargetTrace7Dummy::DummyTargetAttachInfo const &>
; Function compile flags: /Ogsp
; File c:\program files (x86)\microsoft visual studio 10.0\vc\include\utility
;	COMDAT ??$forward@ABUDummyTargetAttachInfo@ioTargetTrace7Dummy@@@std@@YAABUDummyTargetAttachInfo@ioTargetTrace7Dummy@@ABU12@@Z
_TEXT	SEGMENT
__Arg$ = 8						; size = 4
??$forward@ABUDummyTargetAttachInfo@ioTargetTrace7Dummy@@@std@@YAABUDummyTargetAttachInfo@ioTargetTrace7Dummy@@ABU12@@Z PROC ; std::forward<ioTargetTrace7Dummy::DummyTargetAttachInfo const &>, COMDAT

; 78   : 	{	// forward _Arg, given explicitly specified type parameter

  00000	55		 push	 ebp
  00001	8b ec		 mov	 ebp, esp

; 79   : 	return ((_Ty&&)_Arg);

  00003	8b 45 08	 mov	 eax, DWORD PTR __Arg$[ebp]

; 80   : 	}

  00006	5d		 pop	 ebp
  00007	c3		 ret	 0
??$forward@ABUDummyTargetAttachInfo@ioTargetTrace7Dummy@@@std@@YAABUDummyTargetAttachInfo@ioTargetTrace7Dummy@@ABU12@@Z ENDP ; std::forward<ioTargetTrace7Dummy::DummyTargetAttachInfo const &>
_TEXT	ENDS
PUBLIC	??$_Ptr_cat@UDummyTargetAttachInfo@ioTargetTrace7Dummy@@U12@@std@@YA?AU_Nonscalar_ptr_iterator_tag@0@PAUDummyTargetAttachInfo@ioTargetTrace7Dummy@@0@Z ; std::_Ptr_cat<ioTargetTrace7Dummy::DummyTargetAttachInfo,ioTargetTrace7Dummy::DummyTargetAttachInfo>
; Function compile flags: /Ogsp
; File c:\program files (x86)\microsoft visual studio 10.0\vc\include\xutility
;	COMDAT ??$_Ptr_cat@UDummyTargetAttachInfo@ioTargetTrace7Dummy@@U12@@std@@YA?AU_Nonscalar_ptr_iterator_tag@0@PAUDummyTargetAttachInfo@ioTargetTrace7Dummy@@0@Z
_TEXT	SEGMENT
__Cat$ = -1						; size = 1
___formal$ = 8						; size = 4
___formal$ = 12						; size = 4
??$_Ptr_cat@UDummyTargetAttachInfo@ioTargetTrace7Dummy@@U12@@std@@YA?AU_Nonscalar_ptr_iterator_tag@0@PAUDummyTargetAttachInfo@ioTargetTrace7Dummy@@0@Z PROC ; std::_Ptr_cat<ioTargetTrace7Dummy::DummyTargetAttachInfo,ioTargetTrace7Dummy::DummyTargetAttachInfo>, COMDAT

; 516  : 	{	// return pointer category from pointers

  00000	55		 push	 ebp
  00001	8b ec		 mov	 ebp, esp
  00003	51		 push	 ecx

; 517  : 	typename _Ptr_cat_helper<_Elem1, _Elem2>::_Type _Cat;
; 518  : 	return (_Cat);

  00004	8a 45 ff	 mov	 al, BYTE PTR __Cat$[ebp]

; 519  : 	}

  00007	c9		 leave
  00008	c3		 ret	 0
??$_Ptr_cat@UDummyTargetAttachInfo@ioTargetTrace7Dummy@@U12@@std@@YA?AU_Nonscalar_ptr_iterator_tag@0@PAUDummyTargetAttachInfo@ioTargetTrace7Dummy@@0@Z ENDP ; std::_Ptr_cat<ioTargetTrace7Dummy::DummyTargetAttachInfo,ioTargetTrace7Dummy::DummyTargetAttachInfo>
_TEXT	ENDS
PUBLIC	??$_Construct@UDummyTargetAttachInfo@ioTargetTrace7Dummy@@ABU12@@std@@YAXPAUDummyTargetAttachInfo@ioTargetTrace7Dummy@@ABU12@@Z ; std::_Construct<ioTargetTrace7Dummy::DummyTargetAttachInfo,ioTargetTrace7Dummy::DummyTargetAttachInfo const &>
; Function compile flags: /Ogsp
; File c:\program files (x86)\microsoft visual studio 10.0\vc\include\xmemory
;	COMDAT ??$_Construct@UDummyTargetAttachInfo@ioTargetTrace7Dummy@@ABU12@@std@@YAXPAUDummyTargetAttachInfo@ioTargetTrace7Dummy@@ABU12@@Z
_TEXT	SEGMENT
__Ptr$ = 8						; size = 4
__Val$ = 12						; size = 4
??$_Construct@UDummyTargetAttachInfo@ioTargetTrace7Dummy@@ABU12@@std@@YAXPAUDummyTargetAttachInfo@ioTargetTrace7Dummy@@ABU12@@Z PROC ; std::_Construct<ioTargetTrace7Dummy::DummyTargetAttachInfo,ioTargetTrace7Dummy::DummyTargetAttachInfo const &>, COMDAT

; 46   : 	{	// construct object at _Ptr with value _Val

  00000	55		 push	 ebp
  00001	8b ec		 mov	 ebp, esp
  00003	57		 push	 edi

; 47   : 	void _FARQ *_Vptr = _Ptr;
; 48   : 	::new (_Vptr) _Ty1(_STD forward<_Ty2>(_Val));

  00004	8b 7d 08	 mov	 edi, DWORD PTR __Ptr$[ebp]
  00007	85 ff		 test	 edi, edi
  00009	74 08		 je	 SHORT $LN3@Construct
  0000b	56		 push	 esi
  0000c	8b 75 0c	 mov	 esi, DWORD PTR __Val$[ebp]
  0000f	a5		 movsd
  00010	a5		 movsd
  00011	a5		 movsd
  00012	5e		 pop	 esi
$LN3@Construct:
  00013	5f		 pop	 edi

; 49   : 	}

  00014	5d		 pop	 ebp
  00015	c3		 ret	 0
??$_Construct@UDummyTargetAttachInfo@ioTargetTrace7Dummy@@ABU12@@std@@YAXPAUDummyTargetAttachInfo@ioTargetTrace7Dummy@@ABU12@@Z ENDP ; std::_Construct<ioTargetTrace7Dummy::DummyTargetAttachInfo,ioTargetTrace7Dummy::DummyTargetAttachInfo const &>
_TEXT	ENDS
PUBLIC	??1_Node@?$_List_nod@UFireTime@@V?$allocator@UFireTime@@@std@@@std@@QAE@XZ ; std::_List_nod<FireTime,std::allocator<FireTime> >::_Node::~_Node
; Function compile flags: /Ogsp
;	COMDAT ??1_Node@?$_List_nod@UFireTime@@V?$allocator@UFireTime@@@std@@@std@@QAE@XZ
_TEXT	SEGMENT
??1_Node@?$_List_nod@UFireTime@@V?$allocator@UFireTime@@@std@@@std@@QAE@XZ PROC ; std::_List_nod<FireTime,std::allocator<FireTime> >::_Node::~_Node, COMDAT
; _this$ = ecx
  00000	83 c1 08	 add	 ecx, 8
  00003	e9 00 00 00 00	 jmp	 ??1FireTime@@QAE@XZ
??1_Node@?$_List_nod@UFireTime@@V?$allocator@UFireTime@@@std@@@std@@QAE@XZ ENDP ; std::_List_nod<FireTime,std::allocator<FireTime> >::_Node::~_Node
_TEXT	ENDS
PUBLIC	??$_Val_type@PAUDummyTargetAttachInfo@ioTargetTrace7Dummy@@@std@@YAPAUDummyTargetAttachInfo@ioTargetTrace7Dummy@@PAU12@@Z ; std::_Val_type<ioTargetTrace7Dummy::DummyTargetAttachInfo *>
; Function compile flags: /Ogsp
; File c:\program files (x86)\microsoft visual studio 10.0\vc\include\xutility
;	COMDAT ??$_Val_type@PAUDummyTargetAttachInfo@ioTargetTrace7Dummy@@@std@@YAPAUDummyTargetAttachInfo@ioTargetTrace7Dummy@@PAU12@@Z
_TEXT	SEGMENT
___formal$ = 8						; size = 4
??$_Val_type@PAUDummyTargetAttachInfo@ioTargetTrace7Dummy@@@std@@YAPAUDummyTargetAttachInfo@ioTargetTrace7Dummy@@PAU12@@Z PROC ; std::_Val_type<ioTargetTrace7Dummy::DummyTargetAttachInfo *>, COMDAT

; 790  : 	return (0);

  00000	33 c0		 xor	 eax, eax

; 791  : 	}

  00002	c3		 ret	 0
??$_Val_type@PAUDummyTargetAttachInfo@ioTargetTrace7Dummy@@@std@@YAPAUDummyTargetAttachInfo@ioTargetTrace7Dummy@@PAU12@@Z ENDP ; std::_Val_type<ioTargetTrace7Dummy::DummyTargetAttachInfo *>
_TEXT	ENDS
PUBLIC	??$_Destroy@UDummyTargetAttachInfo@ioTargetTrace7Dummy@@@std@@YAXPAUDummyTargetAttachInfo@ioTargetTrace7Dummy@@@Z ; std::_Destroy<ioTargetTrace7Dummy::DummyTargetAttachInfo>
; Function compile flags: /Ogsp
; File c:\program files (x86)\microsoft visual studio 10.0\vc\include\xmemory
;	COMDAT ??$_Destroy@UDummyTargetAttachInfo@ioTargetTrace7Dummy@@@std@@YAXPAUDummyTargetAttachInfo@ioTargetTrace7Dummy@@@Z
_TEXT	SEGMENT
__Ptr$ = 8						; size = 4
??$_Destroy@UDummyTargetAttachInfo@ioTargetTrace7Dummy@@@std@@YAXPAUDummyTargetAttachInfo@ioTargetTrace7Dummy@@@Z PROC ; std::_Destroy<ioTargetTrace7Dummy::DummyTargetAttachInfo>, COMDAT

; 63   : 	_Ptr->~_Ty();
; 64   : 	}

  00000	c3		 ret	 0
??$_Destroy@UDummyTargetAttachInfo@ioTargetTrace7Dummy@@@std@@YAXPAUDummyTargetAttachInfo@ioTargetTrace7Dummy@@@Z ENDP ; std::_Destroy<ioTargetTrace7Dummy::DummyTargetAttachInfo>
_TEXT	ENDS
PUBLIC	??$forward@UDummyTargetAttachInfo@ioTargetTrace7Dummy@@@std@@YA$$QAUDummyTargetAttachInfo@ioTargetTrace7Dummy@@AAU12@@Z ; std::forward<ioTargetTrace7Dummy::DummyTargetAttachInfo>
; Function compile flags: /Ogsp
; File c:\program files (x86)\microsoft visual studio 10.0\vc\include\utility
;	COMDAT ??$forward@UDummyTargetAttachInfo@ioTargetTrace7Dummy@@@std@@YA$$QAUDummyTargetAttachInfo@ioTargetTrace7Dummy@@AAU12@@Z
_TEXT	SEGMENT
__Arg$ = 8						; size = 4
??$forward@UDummyTargetAttachInfo@ioTargetTrace7Dummy@@@std@@YA$$QAUDummyTargetAttachInfo@ioTargetTrace7Dummy@@AAU12@@Z PROC ; std::forward<ioTargetTrace7Dummy::DummyTargetAttachInfo>, COMDAT

; 78   : 	{	// forward _Arg, given explicitly specified type parameter

  00000	55		 push	 ebp
  00001	8b ec		 mov	 ebp, esp

; 79   : 	return ((_Ty&&)_Arg);

  00003	8b 45 08	 mov	 eax, DWORD PTR __Arg$[ebp]

; 80   : 	}

  00006	5d		 pop	 ebp
  00007	c3		 ret	 0
??$forward@UDummyTargetAttachInfo@ioTargetTrace7Dummy@@@std@@YA$$QAUDummyTargetAttachInfo@ioTargetTrace7Dummy@@AAU12@@Z ENDP ; std::forward<ioTargetTrace7Dummy::DummyTargetAttachInfo>
_TEXT	ENDS
PUBLIC	??0D3DXQUATERNION@@QAE@XZ			; D3DXQUATERNION::D3DXQUATERNION
; Function compile flags: /Ogsp
; File c:\program files (x86)\microsoft directx sdk (june 2010)\include\d3dx9math.h
;	COMDAT ??0D3DXQUATERNION@@QAE@XZ
_TEXT	SEGMENT
??0D3DXQUATERNION@@QAE@XZ PROC				; D3DXQUATERNION::D3DXQUATERNION, COMDAT
; _this$ = ecx

; 429  :     D3DXQUATERNION() {}

  00000	8b c1		 mov	 eax, ecx
  00002	c3		 ret	 0
??0D3DXQUATERNION@@QAE@XZ ENDP				; D3DXQUATERNION::D3DXQUATERNION
_TEXT	ENDS
PUBLIC	??0D3DXVECTOR3@@QAE@MMM@Z			; D3DXVECTOR3::D3DXVECTOR3
; Function compile flags: /Ogsp
; File c:\program files (x86)\microsoft directx sdk (june 2010)\include\d3dx9math.inl
;	COMDAT ??0D3DXVECTOR3@@QAE@MMM@Z
_TEXT	SEGMENT
_fx$ = 8						; size = 4
_fy$ = 12						; size = 4
_fz$ = 16						; size = 4
??0D3DXVECTOR3@@QAE@MMM@Z PROC				; D3DXVECTOR3::D3DXVECTOR3, COMDAT
; _this$ = ecx

; 303  : {

  00000	55		 push	 ebp
  00001	8b ec		 mov	 ebp, esp

; 304  :     x = fx;

  00003	f3 0f 10 45 08	 movss	 xmm0, DWORD PTR _fx$[ebp]
  00008	8b c1		 mov	 eax, ecx
  0000a	f3 0f 11 00	 movss	 DWORD PTR [eax], xmm0

; 305  :     y = fy;

  0000e	f3 0f 10 45 0c	 movss	 xmm0, DWORD PTR _fy$[ebp]
  00013	f3 0f 11 40 04	 movss	 DWORD PTR [eax+4], xmm0

; 306  :     z = fz;

  00018	f3 0f 10 45 10	 movss	 xmm0, DWORD PTR _fz$[ebp]
  0001d	f3 0f 11 40 08	 movss	 DWORD PTR [eax+8], xmm0

; 307  : }

  00022	5d		 pop	 ebp
  00023	c2 0c 00	 ret	 12			; 0000000cH
??0D3DXVECTOR3@@QAE@MMM@Z ENDP				; D3DXVECTOR3::D3DXVECTOR3
_TEXT	ENDS
PUBLIC	??YD3DXVECTOR3@@QAEAAU0@ABU0@@Z			; D3DXVECTOR3::operator+=
; Function compile flags: /Ogsp
;	COMDAT ??YD3DXVECTOR3@@QAEAAU0@ABU0@@Z
_TEXT	SEGMENT
_v$ = 8							; size = 4
??YD3DXVECTOR3@@QAEAAU0@ABU0@@Z PROC			; D3DXVECTOR3::operator+=, COMDAT
; _this$ = ecx

; 327  : {

  00000	55		 push	 ebp
  00001	8b ec		 mov	 ebp, esp
  00003	8b c1		 mov	 eax, ecx

; 328  :     x += v.x;

  00005	8b 4d 08	 mov	 ecx, DWORD PTR _v$[ebp]
  00008	f3 0f 10 01	 movss	 xmm0, DWORD PTR [ecx]
  0000c	f3 0f 10 08	 movss	 xmm1, DWORD PTR [eax]
  00010	0f 5a c0	 cvtps2pd xmm0, xmm0
  00013	0f 5a c9	 cvtps2pd xmm1, xmm1
  00016	f2 0f 58 c1	 addsd	 xmm0, xmm1

; 329  :     y += v.y;

  0001a	f3 0f 10 48 04	 movss	 xmm1, DWORD PTR [eax+4]
  0001f	66 0f 5a c0	 cvtpd2ps xmm0, xmm0
  00023	f3 0f 11 00	 movss	 DWORD PTR [eax], xmm0
  00027	f3 0f 10 41 04	 movss	 xmm0, DWORD PTR [ecx+4]
  0002c	0f 5a c0	 cvtps2pd xmm0, xmm0
  0002f	0f 5a c9	 cvtps2pd xmm1, xmm1
  00032	f2 0f 58 c1	 addsd	 xmm0, xmm1

; 330  :     z += v.z;

  00036	f3 0f 10 48 08	 movss	 xmm1, DWORD PTR [eax+8]
  0003b	66 0f 5a c0	 cvtpd2ps xmm0, xmm0
  0003f	f3 0f 11 40 04	 movss	 DWORD PTR [eax+4], xmm0
  00044	f3 0f 10 41 08	 movss	 xmm0, DWORD PTR [ecx+8]
  00049	0f 5a c0	 cvtps2pd xmm0, xmm0
  0004c	0f 5a c9	 cvtps2pd xmm1, xmm1
  0004f	f2 0f 58 c1	 addsd	 xmm0, xmm1
  00053	66 0f 5a c0	 cvtpd2ps xmm0, xmm0
  00057	f3 0f 11 40 08	 movss	 DWORD PTR [eax+8], xmm0

; 331  :     return *this;
; 332  : }

  0005c	5d		 pop	 ebp
  0005d	c2 04 00	 ret	 4
??YD3DXVECTOR3@@QAEAAU0@ABU0@@Z ENDP			; D3DXVECTOR3::operator+=
_TEXT	ENDS
PUBLIC	??DD3DXVECTOR3@@QBE?AU0@M@Z			; D3DXVECTOR3::operator*
; Function compile flags: /Ogsp
;	COMDAT ??DD3DXVECTOR3@@QBE?AU0@M@Z
_TEXT	SEGMENT
___$ReturnUdt$ = 8					; size = 4
_f$ = 12						; size = 4
??DD3DXVECTOR3@@QBE?AU0@M@Z PROC			; D3DXVECTOR3::operator*, COMDAT
; _this$ = ecx

; 392  : {

  00000	55		 push	 ebp
  00001	8b ec		 mov	 ebp, esp

; 393  :     return D3DXVECTOR3(x * f, y * f, z * f);

  00003	f3 0f 10 4d 0c	 movss	 xmm1, DWORD PTR _f$[ebp]
  00008	f3 0f 10 01	 movss	 xmm0, DWORD PTR [ecx]
  0000c	8b 45 08	 mov	 eax, DWORD PTR ___$ReturnUdt$[ebp]
  0000f	0f 5a c0	 cvtps2pd xmm0, xmm0
  00012	0f 5a c9	 cvtps2pd xmm1, xmm1
  00015	f2 0f 59 c1	 mulsd	 xmm0, xmm1
  00019	f3 0f 10 4d 0c	 movss	 xmm1, DWORD PTR _f$[ebp]
  0001e	66 0f 5a c0	 cvtpd2ps xmm0, xmm0
  00022	f3 0f 11 00	 movss	 DWORD PTR [eax], xmm0
  00026	f3 0f 10 41 04	 movss	 xmm0, DWORD PTR [ecx+4]
  0002b	0f 5a c0	 cvtps2pd xmm0, xmm0
  0002e	0f 5a c9	 cvtps2pd xmm1, xmm1
  00031	f2 0f 59 c1	 mulsd	 xmm0, xmm1
  00035	f3 0f 10 4d 0c	 movss	 xmm1, DWORD PTR _f$[ebp]
  0003a	66 0f 5a c0	 cvtpd2ps xmm0, xmm0
  0003e	f3 0f 11 40 04	 movss	 DWORD PTR [eax+4], xmm0
  00043	f3 0f 10 41 08	 movss	 xmm0, DWORD PTR [ecx+8]
  00048	0f 5a c0	 cvtps2pd xmm0, xmm0
  0004b	0f 5a c9	 cvtps2pd xmm1, xmm1
  0004e	f2 0f 59 c1	 mulsd	 xmm0, xmm1
  00052	66 0f 5a c0	 cvtpd2ps xmm0, xmm0
  00056	f3 0f 11 40 08	 movss	 DWORD PTR [eax+8], xmm0

; 394  : }

  0005b	5d		 pop	 ebp
  0005c	c2 08 00	 ret	 8
??DD3DXVECTOR3@@QBE?AU0@M@Z ENDP			; D3DXVECTOR3::operator*
_TEXT	ENDS
PUBLIC	??8D3DXVECTOR3@@QBEHABU0@@Z			; D3DXVECTOR3::operator==
; Function compile flags: /Ogsp
;	COMDAT ??8D3DXVECTOR3@@QBEHABU0@@Z
_TEXT	SEGMENT
_v$ = 8							; size = 4
??8D3DXVECTOR3@@QBEHABU0@@Z PROC			; D3DXVECTOR3::operator==, COMDAT
; _this$ = ecx

; 413  : {

  00000	55		 push	 ebp
  00001	8b ec		 mov	 ebp, esp

; 414  :     return x == v.x && y == v.y && z == v.z;

  00003	8b 55 08	 mov	 edx, DWORD PTR _v$[ebp]
  00006	f3 0f 10 01	 movss	 xmm0, DWORD PTR [ecx]
  0000a	f3 0f 10 0a	 movss	 xmm1, DWORD PTR [edx]
  0000e	0f 5a c0	 cvtps2pd xmm0, xmm0
  00011	0f 5a c9	 cvtps2pd xmm1, xmm1
  00014	66 0f 2e c1	 ucomisd xmm0, xmm1
  00018	9f		 lahf
  00019	f6 c4 44	 test	 ah, 68			; 00000044H
  0001c	7a 39		 jp	 SHORT $LN3@operator
  0001e	f3 0f 10 41 04	 movss	 xmm0, DWORD PTR [ecx+4]
  00023	f3 0f 10 4a 04	 movss	 xmm1, DWORD PTR [edx+4]
  00028	0f 5a c0	 cvtps2pd xmm0, xmm0
  0002b	0f 5a c9	 cvtps2pd xmm1, xmm1
  0002e	66 0f 2e c1	 ucomisd xmm0, xmm1
  00032	9f		 lahf
  00033	f6 c4 44	 test	 ah, 68			; 00000044H
  00036	7a 1f		 jp	 SHORT $LN3@operator
  00038	f3 0f 10 41 08	 movss	 xmm0, DWORD PTR [ecx+8]
  0003d	f3 0f 10 4a 08	 movss	 xmm1, DWORD PTR [edx+8]
  00042	0f 5a c0	 cvtps2pd xmm0, xmm0
  00045	0f 5a c9	 cvtps2pd xmm1, xmm1
  00048	66 0f 2e c1	 ucomisd xmm0, xmm1
  0004c	9f		 lahf
  0004d	f6 c4 44	 test	 ah, 68			; 00000044H
  00050	7a 05		 jp	 SHORT $LN3@operator
  00052	33 c0		 xor	 eax, eax
  00054	40		 inc	 eax
  00055	eb 02		 jmp	 SHORT $LN4@operator
$LN3@operator:
  00057	33 c0		 xor	 eax, eax
$LN4@operator:

; 415  : }

  00059	5d		 pop	 ebp
  0005a	c2 04 00	 ret	 4
??8D3DXVECTOR3@@QBEHABU0@@Z ENDP			; D3DXVECTOR3::operator==
_TEXT	ENDS
PUBLIC	?_DECSTR@@YAXPADH@Z				; _DECSTR
; Function compile flags: /Ogsp
; File d:\lost saga for developer\youtube\tutorial\source\src\lsclient\stringprotect.h
;	COMDAT ?_DECSTR@@YAXPADH@Z
_TEXT	SEGMENT
_s$ = 8							; size = 4
_l$ = 12						; size = 4
?_DECSTR@@YAXPADH@Z PROC				; _DECSTR, COMDAT

; 40   : __forceinline void _DECSTR(char* s, int l){int i=0,l4=(l-1)/4,*p=(int*)s;s[l-1]=0;for(;i<l4;++i)*(p++)^=0xEAEBECED;for(i=l4*4;i<l-1;++i)s[i]^=0xED-i%4;}

  00000	55		 push	 ebp
  00001	8b ec		 mov	 ebp, esp
  00003	8b 4d 0c	 mov	 ecx, DWORD PTR _l$[ebp]
  00006	56		 push	 esi
  00007	8b 75 08	 mov	 esi, DWORD PTR _s$[ebp]
  0000a	57		 push	 edi
  0000b	8d 79 ff	 lea	 edi, DWORD PTR [ecx-1]
  0000e	8b c7		 mov	 eax, edi
  00010	99		 cdq
  00011	83 e2 03	 and	 edx, 3
  00014	03 c2		 add	 eax, edx
  00016	c1 f8 02	 sar	 eax, 2
  00019	8b d6		 mov	 edx, esi
  0001b	c6 44 0e ff 00	 mov	 BYTE PTR [esi+ecx-1], 0
  00020	85 c0		 test	 eax, eax
  00022	7e 0e		 jle	 SHORT $LN4@DECSTR
  00024	8b c8		 mov	 ecx, eax
$LL6@DECSTR:
  00026	81 32 ed ec eb
	ea		 xor	 DWORD PTR [edx], -353637139 ; eaebecedH
  0002c	83 c2 04	 add	 edx, 4
  0002f	49		 dec	 ecx
  00030	75 f4		 jne	 SHORT $LL6@DECSTR
$LN4@DECSTR:
  00032	c1 e0 02	 shl	 eax, 2
  00035	eb 17		 jmp	 SHORT $LN14@DECSTR
$LL3@DECSTR:
  00037	8b c8		 mov	 ecx, eax
  00039	81 e1 03 00 00
	80		 and	 ecx, -2147483645	; 80000003H
  0003f	79 05		 jns	 SHORT $LN13@DECSTR
  00041	49		 dec	 ecx
  00042	83 c9 fc	 or	 ecx, -4			; fffffffcH
  00045	41		 inc	 ecx
$LN13@DECSTR:
  00046	b2 ed		 mov	 dl, -19			; ffffffedH
  00048	2a d1		 sub	 dl, cl
  0004a	30 14 30	 xor	 BYTE PTR [eax+esi], dl
  0004d	40		 inc	 eax
$LN14@DECSTR:
  0004e	3b c7		 cmp	 eax, edi
  00050	7c e5		 jl	 SHORT $LL3@DECSTR
  00052	5f		 pop	 edi
  00053	5e		 pop	 esi
  00054	5d		 pop	 ebp
  00055	c3		 ret	 0
?_DECSTR@@YAXPADH@Z ENDP				; _DECSTR
_TEXT	ENDS
PUBLIC	??0FireTime@@QAE@XZ				; FireTime::FireTime
EXTRN	__imp_??0ioHashString@@QAE@XZ:PROC
;	COMDAT xdata$x
; File d:\lost saga for developer\youtube\tutorial\source\src\lsclient\playentityhelpstruct.h
xdata$x	SEGMENT
__unwindtable$??0FireTime@@QAE@XZ DD 0ffffffffH
	DD	FLAT:__unwindfunclet$??0FireTime@@QAE@XZ$0
	DD	00H
	DD	FLAT:__unwindfunclet$??0FireTime@@QAE@XZ$1
__ehfuncinfo$??0FireTime@@QAE@XZ DD 019930522H
	DD	02H
	DD	FLAT:__unwindtable$??0FireTime@@QAE@XZ
	DD	2 DUP(00H)
	DD	2 DUP(00H)
	DD	00H
	DD	01H
; Function compile flags: /Ogsp
xdata$x	ENDS
;	COMDAT ??0FireTime@@QAE@XZ
_TEXT	SEGMENT
_this$ = -16						; size = 4
__$EHRec$ = -12						; size = 12
??0FireTime@@QAE@XZ PROC				; FireTime::FireTime, COMDAT
; _this$ = ecx

; 219  : 	FireTime()

  00000	6a 04		 push	 4
  00002	b8 00 00 00 00	 mov	 eax, __ehhandler$??0FireTime@@QAE@XZ
  00007	e8 00 00 00 00	 call	 __EH_prolog3
  0000c	8b f1		 mov	 esi, ecx
  0000e	89 75 f0	 mov	 DWORD PTR _this$[ebp], esi
  00011	8b 3d 00 00 00
	00		 mov	 edi, DWORD PTR __imp_??0ioHashString@@QAE@XZ
  00017	8d 4e 14	 lea	 ecx, DWORD PTR [esi+20]
  0001a	ff d7		 call	 edi
  0001c	33 db		 xor	 ebx, ebx
  0001e	8d 4e 30	 lea	 ecx, DWORD PTR [esi+48]
  00021	89 5d fc	 mov	 DWORD PTR __$EHRec$[ebp+8], ebx
  00024	ff d7		 call	 edi
  00026	8d 4e 44	 lea	 ecx, DWORD PTR [esi+68]
  00029	c6 45 fc 01	 mov	 BYTE PTR __$EHRec$[ebp+8], 1
  0002d	ff d7		 call	 edi

; 220  : 	{
; 221  : 		dwStart = 0;

  0002f	89 1e		 mov	 DWORD PTR [esi], ebx

; 222  : 		dwDuration = 0;

  00031	89 5e 04	 mov	 DWORD PTR [esi+4], ebx

; 223  : 
; 224  : 		iAttributeIdx = 0;

  00034	89 5e 08	 mov	 DWORD PTR [esi+8], ebx

; 225  : 		iResistanceIdx = 0;

  00037	89 5e 0c	 mov	 DWORD PTR [esi+12], ebx

; 226  : 
; 227  : 		bLoopWoundedAni = false;

  0003a	88 5e 10	 mov	 BYTE PTR [esi+16], bl

; 228  : 		dwWoundedAniDuration = 0;

  0003d	89 5e 24	 mov	 DWORD PTR [esi+36], ebx

; 229  : 
; 230  : 		dwWeaponIdx = 0;

  00040	89 5e 28	 mov	 DWORD PTR [esi+40], ebx

; 231  : 		eCollisionType = ACT_NONE;

  00043	c7 46 2c 06 00
	00 00		 mov	 DWORD PTR [esi+44], 6

; 232  : 		eFireTimeType = FTT_NORMAL_ATTACK;

  0004a	89 5e 40	 mov	 DWORD PTR [esi+64], ebx

; 233  : 
; 234  : 		m_iExtraValue = 0;

  0004d	89 5e 54	 mov	 DWORD PTR [esi+84], ebx

; 235  : 	}

  00050	8b c6		 mov	 eax, esi
  00052	e8 00 00 00 00	 call	 __EH_epilog3
  00057	c3		 ret	 0
_TEXT	ENDS
;	COMDAT text$x
text$x	SEGMENT
__unwindfunclet$??0FireTime@@QAE@XZ$0:
  00000	8b 4d f0	 mov	 ecx, DWORD PTR _this$[ebp]
  00003	83 c1 14	 add	 ecx, 20			; 00000014H
  00006	ff 25 00 00 00
	00		 jmp	 DWORD PTR __imp_??1ioHashString@@QAE@XZ
__unwindfunclet$??0FireTime@@QAE@XZ$1:
  0000c	8b 4d f0	 mov	 ecx, DWORD PTR _this$[ebp]
  0000f	83 c1 30	 add	 ecx, 48			; 00000030H
  00012	ff 25 00 00 00
	00		 jmp	 DWORD PTR __imp_??1ioHashString@@QAE@XZ
__ehhandler$??0FireTime@@QAE@XZ:
  00018	8b 54 24 08	 mov	 edx, DWORD PTR [esp+8]
  0001c	8d 42 0c	 lea	 eax, DWORD PTR [edx+12]
  0001f	8b 4a ec	 mov	 ecx, DWORD PTR [edx-20]
  00022	33 c8		 xor	 ecx, eax
  00024	e8 00 00 00 00	 call	 @__security_check_cookie@4
  00029	b8 00 00 00 00	 mov	 eax, OFFSET __ehfuncinfo$??0FireTime@@QAE@XZ
  0002e	e9 00 00 00 00	 jmp	 ___CxxFrameHandler3
text$x	ENDS
??0FireTime@@QAE@XZ ENDP				; FireTime::FireTime
PUBLIC	?DecryptValueToPool@?$CEncrypt@K@@QAEXPAK@Z	; CEncrypt<unsigned long>::DecryptValueToPool
EXTRN	?DecryptByte@ccddaabb@@QBEXPBDPADH@Z:PROC	; ccddaabb::DecryptByte
; Function compile flags: /Ogsp
; File d:\lost saga for developer\youtube\tutorial\source\src\lsclient\encryptvalue.h
;	COMDAT ?DecryptValueToPool@?$CEncrypt@K@@QAEXPAK@Z
_TEXT	SEGMENT
_value$ = 8						; size = 4
?DecryptValueToPool@?$CEncrypt@K@@QAEXPAK@Z PROC	; CEncrypt<unsigned long>::DecryptValueToPool, COMDAT
; _this$ = ecx

; 1256 : 	{

  00000	55		 push	 ebp
  00001	8b ec		 mov	 ebp, esp
  00003	56		 push	 esi

; 1257 : 		m_RC5.DecryptByte( m_MemPool, m_TempMem, 4 );

  00004	8d 71 28	 lea	 esi, DWORD PTR [ecx+40]
  00007	6a 04		 push	 4
  00009	8d 41 1c	 lea	 eax, DWORD PTR [ecx+28]
  0000c	56		 push	 esi
  0000d	50		 push	 eax
  0000e	83 c1 0c	 add	 ecx, 12			; 0000000cH
  00011	e8 00 00 00 00	 call	 ?DecryptByte@ccddaabb@@QBEXPBDPADH@Z ; ccddaabb::DecryptByte

; 1258 : 		*value = *((DWORD*)m_TempMem);

  00016	8b 06		 mov	 eax, DWORD PTR [esi]
  00018	8b 4d 08	 mov	 ecx, DWORD PTR _value$[ebp]
  0001b	89 01		 mov	 DWORD PTR [ecx], eax
  0001d	5e		 pop	 esi

; 1259 : 	}

  0001e	5d		 pop	 ebp
  0001f	c2 04 00	 ret	 4
?DecryptValueToPool@?$CEncrypt@K@@QAEXPAK@Z ENDP	; CEncrypt<unsigned long>::DecryptValueToPool
_TEXT	ENDS
EXTRN	__imp_??0exception@std@@QAE@ABV01@@Z:PROC
; Function compile flags: /Ogsp
;	COMDAT ??0bad_alloc@std@@QAE@ABV01@@Z
_TEXT	SEGMENT
___that$ = 8						; size = 4
??0bad_alloc@std@@QAE@ABV01@@Z PROC			; std::bad_alloc::bad_alloc, COMDAT
; _this$ = ecx
  00000	55		 push	 ebp
  00001	8b ec		 mov	 ebp, esp
  00003	56		 push	 esi
  00004	ff 75 08	 push	 DWORD PTR ___that$[ebp]
  00007	8b f1		 mov	 esi, ecx
  00009	ff 15 00 00 00
	00		 call	 DWORD PTR __imp_??0exception@std@@QAE@ABV01@@Z
  0000f	c7 06 00 00 00
	00		 mov	 DWORD PTR [esi], OFFSET ??_7bad_alloc@std@@6B@
  00015	8b c6		 mov	 eax, esi
  00017	5e		 pop	 esi
  00018	5d		 pop	 ebp
  00019	c2 04 00	 ret	 4
??0bad_alloc@std@@QAE@ABV01@@Z ENDP			; std::bad_alloc::bad_alloc
_TEXT	ENDS
PUBLIC	??_C@_00CNPNBAHC@?$AA@				; `string'
PUBLIC	?CreateWeapon@ioTargetTrace7Dummy@@IAEXHABUD3DXVECTOR3@@0@Z ; ioTargetTrace7Dummy::CreateWeapon
EXTRN	?SetPosition@ioWeapon@@QAEXABUD3DXVECTOR3@@@Z:PROC ; ioWeapon::SetPosition
EXTRN	?ExtendFireExplicit@ioBaseChar@@QAEPAVioWeapon@@ABUFireTime@@ABUD3DXVECTOR3@@1ABVioHashString@@@Z:PROC ; ioBaseChar::ExtendFireExplicit
EXTRN	__imp_??0ioHashString@@QAE@PBD@Z:PROC
EXTRN	?SetWeaponIndexBase@ioBaseChar@@QAEXK@Z:PROC	; ioBaseChar::SetWeaponIndexBase
EXTRN	__imp_??4ioHashString@@QAEAAV0@PBD@Z:PROC
EXTRN	?GetWeaponIndexBase@ioBaseChar@@QBEKXZ:PROC	; ioBaseChar::GetWeaponIndexBase
EXTRN	?GetOwner@ioDummyChar@@QBEPAVioBaseChar@@XZ:PROC ; ioDummyChar::GetOwner
;	COMDAT ??_C@_00CNPNBAHC@?$AA@
; File d:\lost saga for developer\youtube\tutorial\source\src\lsclient\iotargettrace7dummy.cpp
CONST	SEGMENT
??_C@_00CNPNBAHC@?$AA@ DB 00H				; `string'
CONST	ENDS
;	COMDAT xdata$x
xdata$x	SEGMENT
__unwindtable$?CreateWeapon@ioTargetTrace7Dummy@@IAEXHABUD3DXVECTOR3@@0@Z DD 0ffffffffH
	DD	FLAT:__unwindfunclet$?CreateWeapon@ioTargetTrace7Dummy@@IAEXHABUD3DXVECTOR3@@0@Z$0
	DD	00H
	DD	FLAT:__unwindfunclet$?CreateWeapon@ioTargetTrace7Dummy@@IAEXHABUD3DXVECTOR3@@0@Z$1
__ehfuncinfo$?CreateWeapon@ioTargetTrace7Dummy@@IAEXHABUD3DXVECTOR3@@0@Z DD 019930522H
	DD	02H
	DD	FLAT:__unwindtable$?CreateWeapon@ioTargetTrace7Dummy@@IAEXHABUD3DXVECTOR3@@0@Z
	DD	2 DUP(00H)
	DD	2 DUP(00H)
	DD	00H
	DD	01H
; Function compile flags: /Ogsp
xdata$x	ENDS
;	COMDAT ?CreateWeapon@ioTargetTrace7Dummy@@IAEXHABUD3DXVECTOR3@@0@Z
_TEXT	SEGMENT
_kFireTime$ = -120					; size = 88
$T533886 = -32						; size = 16
_pOwner$ = -16						; size = 4
__$EHRec$ = -12						; size = 12
_nAttackIndex$ = 8					; size = 4
_vPos$ = 12						; size = 4
_vDir$ = 16						; size = 4
?CreateWeapon@ioTargetTrace7Dummy@@IAEXHABUD3DXVECTOR3@@0@Z PROC ; ioTargetTrace7Dummy::CreateWeapon, COMDAT
; _this$ = ecx

; 189  : {

  00000	6a 6c		 push	 108			; 0000006cH
  00002	b8 00 00 00 00	 mov	 eax, __ehhandler$?CreateWeapon@ioTargetTrace7Dummy@@IAEXHABUD3DXVECTOR3@@0@Z
  00007	e8 00 00 00 00	 call	 __EH_prolog3
  0000c	8b f9		 mov	 edi, ecx

; 190  : 	ioBaseChar *pOwner = GetOwner();

  0000e	e8 00 00 00 00	 call	 ?GetOwner@ioDummyChar@@QBEPAVioBaseChar@@XZ ; ioDummyChar::GetOwner
  00013	8b c8		 mov	 ecx, eax

; 191  : 
; 192  : 	if ( !pOwner )

  00015	33 db		 xor	 ebx, ebx
  00017	89 4d f0	 mov	 DWORD PTR _pOwner$[ebp], ecx
  0001a	3b cb		 cmp	 ecx, ebx
  0001c	0f 84 ab 00 00
	00		 je	 $LN3@CreateWeap

; 193  : 		return;
; 194  : 
; 195  : 	m_dwBaseWeaponIndex = pOwner->GetWeaponIndexBase() + 1;

  00022	e8 00 00 00 00	 call	 ?GetWeaponIndexBase@ioBaseChar@@QBEKXZ ; ioBaseChar::GetWeaponIndexBase
  00027	40		 inc	 eax

; 196  : 
; 197  : 	FireTime kFireTime;

  00028	8d 4d 88	 lea	 ecx, DWORD PTR _kFireTime$[ebp]
  0002b	89 87 30 06 00
	00		 mov	 DWORD PTR [edi+1584], eax
  00031	e8 00 00 00 00	 call	 ??0FireTime@@QAE@XZ	; FireTime::FireTime
  00036	89 5d fc	 mov	 DWORD PTR __$EHRec$[ebp+8], ebx

; 198  : 	kFireTime.dwStart = FRAMEGETTIME();

  00039	ff 15 00 00 00
	00		 call	 DWORD PTR __imp_?GetSingleton@ioFrameTimer@@SAAAV1@XZ
  0003f	8b c8		 mov	 ecx, eax
  00041	ff 15 00 00 00
	00		 call	 DWORD PTR __imp_?GetLoopSec@ioFrameTimer@@QBEKXZ
  00047	89 45 88	 mov	 DWORD PTR _kFireTime$[ebp], eax

; 199  : 
; 200  : 	kFireTime.iAttributeIdx = nAttackIndex;

  0004a	8b 45 08	 mov	 eax, DWORD PTR _nAttackIndex$[ebp]

; 201  : 	kFireTime.iResistanceIdx = 0;
; 202  : 	kFireTime.szWoundedAni  = "";

  0004d	be 00 00 00 00	 mov	 esi, OFFSET ??_C@_00CNPNBAHC@?$AA@
  00052	56		 push	 esi
  00053	8d 4d 9c	 lea	 ecx, DWORD PTR _kFireTime$[ebp+20]
  00056	89 45 90	 mov	 DWORD PTR _kFireTime$[ebp+8], eax
  00059	89 5d 94	 mov	 DWORD PTR _kFireTime$[ebp+12], ebx
  0005c	ff 15 00 00 00
	00		 call	 DWORD PTR __imp_??4ioHashString@@QAEAAV0@PBD@Z

; 203  : 	kFireTime.dwWoundedAniDuration = 0;
; 204  : 	kFireTime.bLoopWoundedAni = false;
; 205  : 	kFireTime.dwWeaponIdx = m_dwBaseWeaponIndex;

  00062	8b 87 30 06 00
	00		 mov	 eax, DWORD PTR [edi+1584]

; 206  : 	kFireTime.eFireTimeType = FTT_DUMMY_CHAR_ATTACK;
; 207  : 
; 208  : 	pOwner->SetWeaponIndexBase( m_dwBaseWeaponIndex );

  00068	8b 4d f0	 mov	 ecx, DWORD PTR _pOwner$[ebp]
  0006b	50		 push	 eax
  0006c	89 5d ac	 mov	 DWORD PTR _kFireTime$[ebp+36], ebx
  0006f	88 5d 98	 mov	 BYTE PTR _kFireTime$[ebp+16], bl
  00072	89 45 b0	 mov	 DWORD PTR _kFireTime$[ebp+40], eax
  00075	c7 45 c8 0b 00
	00 00		 mov	 DWORD PTR _kFireTime$[ebp+64], 11 ; 0000000bH
  0007c	e8 00 00 00 00	 call	 ?SetWeaponIndexBase@ioBaseChar@@QAEXK@Z ; ioBaseChar::SetWeaponIndexBase

; 209  : 
; 210  : 	ioWeapon *pWeapon = pOwner->ExtendFireExplicit( kFireTime, vPos, vDir, "" );

  00081	56		 push	 esi
  00082	8d 4d e0	 lea	 ecx, DWORD PTR $T533886[ebp]
  00085	ff 15 00 00 00
	00		 call	 DWORD PTR __imp_??0ioHashString@@QAE@PBD@Z
  0008b	8b 4d f0	 mov	 ecx, DWORD PTR _pOwner$[ebp]
  0008e	8d 45 e0	 lea	 eax, DWORD PTR $T533886[ebp]
  00091	50		 push	 eax
  00092	ff 75 10	 push	 DWORD PTR _vDir$[ebp]
  00095	8d 45 88	 lea	 eax, DWORD PTR _kFireTime$[ebp]
  00098	ff 75 0c	 push	 DWORD PTR _vPos$[ebp]
  0009b	c6 45 fc 01	 mov	 BYTE PTR __$EHRec$[ebp+8], 1
  0009f	50		 push	 eax
  000a0	e8 00 00 00 00	 call	 ?ExtendFireExplicit@ioBaseChar@@QAEPAVioWeapon@@ABUFireTime@@ABUD3DXVECTOR3@@1ABVioHashString@@@Z ; ioBaseChar::ExtendFireExplicit
  000a5	8d 4d e0	 lea	 ecx, DWORD PTR $T533886[ebp]
  000a8	8b f0		 mov	 esi, eax
  000aa	88 5d fc	 mov	 BYTE PTR __$EHRec$[ebp+8], bl
  000ad	ff 15 00 00 00
	00		 call	 DWORD PTR __imp_??1ioHashString@@QAE@XZ

; 211  : 	if ( pWeapon )

  000b3	3b f3		 cmp	 esi, ebx
  000b5	74 0a		 je	 SHORT $LN1@CreateWeap

; 212  : 	{
; 213  : 		pWeapon->SetPosition( vPos );

  000b7	ff 75 0c	 push	 DWORD PTR _vPos$[ebp]
  000ba	8b ce		 mov	 ecx, esi
  000bc	e8 00 00 00 00	 call	 ?SetPosition@ioWeapon@@QAEXABUD3DXVECTOR3@@@Z ; ioWeapon::SetPosition
$LN1@CreateWeap:

; 214  : 	}	
; 215  : }

  000c1	83 4d fc ff	 or	 DWORD PTR __$EHRec$[ebp+8], -1
  000c5	8d 4d 88	 lea	 ecx, DWORD PTR _kFireTime$[ebp]
  000c8	e8 00 00 00 00	 call	 ??1FireTime@@QAE@XZ
$LN3@CreateWeap:
  000cd	e8 00 00 00 00	 call	 __EH_epilog3
  000d2	c2 0c 00	 ret	 12			; 0000000cH
_TEXT	ENDS
;	COMDAT text$x
text$x	SEGMENT
__unwindfunclet$?CreateWeapon@ioTargetTrace7Dummy@@IAEXHABUD3DXVECTOR3@@0@Z$0:
  00000	8d 4d 88	 lea	 ecx, DWORD PTR _kFireTime$[ebp]
  00003	e9 00 00 00 00	 jmp	 ??1FireTime@@QAE@XZ
__unwindfunclet$?CreateWeapon@ioTargetTrace7Dummy@@IAEXHABUD3DXVECTOR3@@0@Z$1:
  00008	8d 4d e0	 lea	 ecx, DWORD PTR $T533886[ebp]
  0000b	ff 25 00 00 00
	00		 jmp	 DWORD PTR __imp_??1ioHashString@@QAE@XZ
__ehhandler$?CreateWeapon@ioTargetTrace7Dummy@@IAEXHABUD3DXVECTOR3@@0@Z:
  00011	8b 54 24 08	 mov	 edx, DWORD PTR [esp+8]
  00015	8d 42 0c	 lea	 eax, DWORD PTR [edx+12]
  00018	8b 4a 84	 mov	 ecx, DWORD PTR [edx-124]
  0001b	33 c8		 xor	 ecx, eax
  0001d	e8 00 00 00 00	 call	 @__security_check_cookie@4
  00022	b8 00 00 00 00	 mov	 eax, OFFSET __ehfuncinfo$?CreateWeapon@ioTargetTrace7Dummy@@IAEXHABUD3DXVECTOR3@@0@Z
  00027	e9 00 00 00 00	 jmp	 ___CxxFrameHandler3
text$x	ENDS
?CreateWeapon@ioTargetTrace7Dummy@@IAEXHABUD3DXVECTOR3@@0@Z ENDP ; ioTargetTrace7Dummy::CreateWeapon
PUBLIC	__$ArrayPad$
PUBLIC	?FireWeapon@ioTargetTrace7Dummy@@IAEXXZ		; ioTargetTrace7Dummy::FireWeapon
EXTRN	_D3DXVec3Normalize@8:PROC
EXTRN	__imp_??D@YA?AUD3DXVECTOR3@@ABUD3DXQUATERNION@@ABU0@@Z:PROC
EXTRN	___security_cookie:DWORD
; Function compile flags: /Ogsp
;	COMDAT ?FireWeapon@ioTargetTrace7Dummy@@IAEXXZ
_TEXT	SEGMENT
tv175 = -44						; size = 4
_vPos$ = -40						; size = 12
_vDir$ = -28						; size = 12
$T531629 = -16						; size = 12
__$ArrayPad$ = -4					; size = 4
?FireWeapon@ioTargetTrace7Dummy@@IAEXXZ PROC		; ioTargetTrace7Dummy::FireWeapon, COMDAT
; _this$ = ecx

; 218  : {

  00000	55		 push	 ebp
  00001	8b ec		 mov	 ebp, esp
  00003	83 ec 2c	 sub	 esp, 44			; 0000002cH
  00006	a1 00 00 00 00	 mov	 eax, DWORD PTR ___security_cookie
  0000b	33 c5		 xor	 eax, ebp
  0000d	89 45 fc	 mov	 DWORD PTR __$ArrayPad$[ebp], eax
  00010	53		 push	 ebx
  00011	8b d9		 mov	 ebx, ecx

; 219  : 	if ( m_nAttackIndex == NO_WEAPON_ATTRIBUTE )

  00013	83 bb 80 14 00
	00 00		 cmp	 DWORD PTR [ebx+5248], 0
  0001a	74 70		 je	 SHORT $LN2@FireWeapon

; 220  : 		return;
; 221  : 
; 222  : 	D3DXVECTOR3 vDir = GetWorldOrientation() * D3DXVECTOR3(0.0f,0.0f,-FLOAT1);

  0001c	56		 push	 esi
  0001d	57		 push	 edi
  0001e	b8 01 00 00 00	 mov	 eax, 1
  00023	0f 57 c0	 xorps	 xmm0, xmm0
  00026	89 45 d4	 mov	 DWORD PTR tv175[ebp], eax
  00029	db 45 d4	 fild	 DWORD PTR tv175[ebp]
  0002c	f3 0f 11 45 f0	 movss	 DWORD PTR $T531629[ebp], xmm0
  00031	f3 0f 11 45 f4	 movss	 DWORD PTR $T531629[ebp+4], xmm0
  00036	85 c0		 test	 eax, eax
  00038	79 06		 jns	 SHORT $LN8@FireWeapon
  0003a	d8 05 00 00 00
	00		 fadd	 DWORD PTR __real@4f800000
$LN8@FireWeapon:
  00040	8d 45 f0	 lea	 eax, DWORD PTR $T531629[ebp]
  00043	d9 e0		 fchs
  00045	50		 push	 eax
  00046	d9 5d f8	 fstp	 DWORD PTR $T531629[ebp+8]
  00049	8b 03		 mov	 eax, DWORD PTR [ebx]
  0004b	ff 50 74	 call	 DWORD PTR [eax+116]
  0004e	50		 push	 eax
  0004f	8d 45 e4	 lea	 eax, DWORD PTR _vDir$[ebp]
  00052	50		 push	 eax
  00053	ff 15 00 00 00
	00		 call	 DWORD PTR __imp_??D@YA?AUD3DXVECTOR3@@ABUD3DXQUATERNION@@ABU0@@Z
  00059	83 c4 0c	 add	 esp, 12			; 0000000cH

; 223  : 	D3DXVec3Normalize( &vDir, &vDir);

  0005c	8d 45 e4	 lea	 eax, DWORD PTR _vDir$[ebp]
  0005f	50		 push	 eax
  00060	50		 push	 eax
  00061	e8 00 00 00 00	 call	 _D3DXVec3Normalize@8

; 224  : 	D3DXVECTOR3 vPos = GetWorldPosition();

  00066	8b 03		 mov	 eax, DWORD PTR [ebx]
  00068	8b cb		 mov	 ecx, ebx
  0006a	ff 50 70	 call	 DWORD PTR [eax+112]
  0006d	8b f0		 mov	 esi, eax
  0006f	8d 7d d8	 lea	 edi, DWORD PTR _vPos$[ebp]
  00072	a5		 movsd

; 225  : 
; 226  : 	CreateWeapon( m_nAttackIndex, vPos, vDir );

  00073	8d 45 e4	 lea	 eax, DWORD PTR _vDir$[ebp]
  00076	50		 push	 eax
  00077	8d 45 d8	 lea	 eax, DWORD PTR _vPos$[ebp]
  0007a	a5		 movsd
  0007b	50		 push	 eax
  0007c	ff b3 80 14 00
	00		 push	 DWORD PTR [ebx+5248]
  00082	8b cb		 mov	 ecx, ebx
  00084	a5		 movsd
  00085	e8 00 00 00 00	 call	 ?CreateWeapon@ioTargetTrace7Dummy@@IAEXHABUD3DXVECTOR3@@0@Z ; ioTargetTrace7Dummy::CreateWeapon
  0008a	5f		 pop	 edi
  0008b	5e		 pop	 esi
$LN2@FireWeapon:

; 227  : }

  0008c	8b 4d fc	 mov	 ecx, DWORD PTR __$ArrayPad$[ebp]
  0008f	33 cd		 xor	 ecx, ebp
  00091	5b		 pop	 ebx
  00092	e8 00 00 00 00	 call	 @__security_check_cookie@4
  00097	c9		 leave
  00098	c3		 ret	 0
?FireWeapon@ioTargetTrace7Dummy@@IAEXXZ ENDP		; ioTargetTrace7Dummy::FireWeapon
_TEXT	ENDS
PUBLIC	__real@408f400000000000
PUBLIC	_pChar$GSCopy$
PUBLIC	___$ReturnUdt$GSCopy$
PUBLIC	?CalcTargetAttachDummyPosition@ioTargetTrace7Dummy@@IAE?AUD3DXVECTOR3@@PAVioBaseChar@@@Z ; ioTargetTrace7Dummy::CalcTargetAttachDummyPosition
EXTRN	??1IORandom@@UAE@XZ:PROC			; IORandom::~IORandom
EXTRN	_D3DXQuaternionRotationYawPitchRoll@16:PROC
EXTRN	?Random@IORandom@@QAEII@Z:PROC			; IORandom::Random
EXTRN	?SetRandomSeed@IORandom@@QAEXI@Z:PROC		; IORandom::SetRandomSeed
EXTRN	??0IORandom@@QAE@XZ:PROC			; IORandom::IORandom
EXTRN	__imp_?GetSecPerFrame@ioFrameTimer@@QBEMXZ:PROC
EXTRN	__imp_?VEC3_ZERO@ioMath@@2UD3DXVECTOR3@@A:BYTE
EXTRN	__EH_epilog3_GS:PROC
EXTRN	__EH_prolog3_GS:PROC
;	COMDAT __real@408f400000000000
; File c:\program files (x86)\microsoft directx sdk (june 2010)\include\d3dx9math.inl
CONST	SEGMENT
__real@408f400000000000 DQ 0408f400000000000r	; 1000
CONST	ENDS
;	COMDAT xdata$x
xdata$x	SEGMENT
__unwindtable$?CalcTargetAttachDummyPosition@ioTargetTrace7Dummy@@IAE?AUD3DXVECTOR3@@PAVioBaseChar@@@Z DD 0ffffffffH
	DD	FLAT:__unwindfunclet$?CalcTargetAttachDummyPosition@ioTargetTrace7Dummy@@IAE?AUD3DXVECTOR3@@PAVioBaseChar@@@Z$0
__ehfuncinfo$?CalcTargetAttachDummyPosition@ioTargetTrace7Dummy@@IAE?AUD3DXVECTOR3@@PAVioBaseChar@@@Z DD 019930522H
	DD	01H
	DD	FLAT:__unwindtable$?CalcTargetAttachDummyPosition@ioTargetTrace7Dummy@@IAE?AUD3DXVECTOR3@@PAVioBaseChar@@@Z
	DD	2 DUP(00H)
	DD	2 DUP(00H)
	DD	00H
	DD	01H
; Function compile flags: /Ogsp
; File d:\lost saga for developer\youtube\tutorial\source\src\lsclient\iotargettrace7dummy.cpp
xdata$x	ENDS
;	COMDAT ?CalcTargetAttachDummyPosition@ioTargetTrace7Dummy@@IAE?AUD3DXVECTOR3@@PAVioBaseChar@@@Z
_TEXT	SEGMENT
_fCurRange$ = -2604					; size = 4
_qtAngle$ = -2600					; size = 16
___$ReturnUdt$GSCopy$ = -2584				; size = 4
_vPos$ = -2580						; size = 12
tv604 = -2568						; size = 4
tv595 = -2568						; size = 4
tv590 = -2568						; size = 4
tv583 = -2568						; size = 4
_fHeightOffset$ = -2568					; size = 4
tv570 = -2564						; size = 4
_pChar$GSCopy$ = -2564					; size = 4
$T533941 = -2564					; size = 4
_fCurHeight$ = -2564					; size = 4
_fScaleOffset$ = -2564					; size = 4
_fAddHeight$ = -2564					; size = 4
_fRate$ = -2564						; size = 4
_fTimePerSec$ = -2564					; size = 4
_random$ = -2560					; size = 2508
$T531689 = -52						; size = 12
$T531669 = -40						; size = 12
_vDir$ = -28						; size = 12
__$EHRec$ = -12						; size = 12
___$ReturnUdt$ = 8					; size = 4
_pChar$ = 12						; size = 4
?CalcTargetAttachDummyPosition@ioTargetTrace7Dummy@@IAE?AUD3DXVECTOR3@@PAVioBaseChar@@@Z PROC ; ioTargetTrace7Dummy::CalcTargetAttachDummyPosition, COMDAT
; _this$ = ecx

; 272  : {

  00000	68 20 0a 00 00	 push	 2592			; 00000a20H
  00005	b8 00 00 00 00	 mov	 eax, __ehhandler$?CalcTargetAttachDummyPosition@ioTargetTrace7Dummy@@IAE?AUD3DXVECTOR3@@PAVioBaseChar@@@Z
  0000a	e8 00 00 00 00	 call	 __EH_prolog3_GS
  0000f	8b 45 08	 mov	 eax, DWORD PTR ___$ReturnUdt$[ebp]
  00012	8b d9		 mov	 ebx, ecx
  00014	8b 4d 0c	 mov	 ecx, DWORD PTR _pChar$[ebp]

; 287  : 
; 288  : 	float fHeightOffset = sin( DEGtoRAD(m_fRadiansForHeight) );

  00017	89 85 e8 f5 ff
	ff		 mov	 DWORD PTR ___$ReturnUdt$GSCopy$[ebp], eax
  0001d	89 8d fc f5 ff
	ff		 mov	 DWORD PTR _pChar$GSCopy$[ebp], ecx
  00023	85 c9		 test	 ecx, ecx
  00025	75 10		 jne	 SHORT $LN4@CalcTarget

; 273  : 	if( !pChar )
; 274  : 		return ioMath::VEC3_ZERO;

  00027	8b 35 00 00 00
	00		 mov	 esi, DWORD PTR __imp_?VEC3_ZERO@ioMath@@2UD3DXVECTOR3@@A
  0002d	8b f8		 mov	 edi, eax
  0002f	a5		 movsd
  00030	a5		 movsd
  00031	a5		 movsd
  00032	e9 42 03 00 00	 jmp	 $LN5@CalcTarget
$LN4@CalcTarget:

; 275  : 
; 276  : 	D3DXVECTOR3	vPos = pChar->GetWorldPosition();

  00037	8b 01		 mov	 eax, DWORD PTR [ecx]
  00039	ff 50 70	 call	 DWORD PTR [eax+112]
  0003c	8b f0		 mov	 esi, eax
  0003e	8d bd ec f5 ff
	ff		 lea	 edi, DWORD PTR _vPos$[ebp]
  00044	a5		 movsd
  00045	a5		 movsd
  00046	a5		 movsd

; 277  : 	D3DXVECTOR3 vDir = pChar->GetTargetRot() * D3DXVECTOR3( 0.0f, 0.0f, -FLOAT1 );

  00047	b8 01 00 00 00	 mov	 eax, 1
  0004c	0f 57 c0	 xorps	 xmm0, xmm0
  0004f	89 85 f8 f5 ff
	ff		 mov	 DWORD PTR tv604[ebp], eax
  00055	db 85 f8 f5 ff
	ff		 fild	 DWORD PTR tv604[ebp]
  0005b	f3 0f 11 45 d8	 movss	 DWORD PTR $T531669[ebp], xmm0
  00060	f3 0f 11 45 dc	 movss	 DWORD PTR $T531669[ebp+4], xmm0
  00065	85 c0		 test	 eax, eax
  00067	79 06		 jns	 SHORT $LN44@CalcTarget
  00069	d8 05 00 00 00
	00		 fadd	 DWORD PTR __real@4f800000
$LN44@CalcTarget:
  0006f	8b bd fc f5 ff
	ff		 mov	 edi, DWORD PTR _pChar$GSCopy$[ebp]
  00075	d9 e0		 fchs
  00077	8b 35 00 00 00
	00		 mov	 esi, DWORD PTR __imp_??D@YA?AUD3DXVECTOR3@@ABUD3DXQUATERNION@@ABU0@@Z
  0007d	d9 5d e0	 fstp	 DWORD PTR $T531669[ebp+8]
  00080	8d 45 d8	 lea	 eax, DWORD PTR $T531669[ebp]
  00083	50		 push	 eax
  00084	8d 87 a4 06 00
	00		 lea	 eax, DWORD PTR [edi+1700]
  0008a	50		 push	 eax
  0008b	8d 45 e4	 lea	 eax, DWORD PTR _vDir$[ebp]
  0008e	50		 push	 eax
  0008f	ff d6		 call	 esi
  00091	83 c4 0c	 add	 esp, 12			; 0000000cH

; 278  : 
; 279  : 	//    .
; 280  : 	float fTimePerSec = g_FrameTimer.GetSecPerFrame();

  00094	ff 15 00 00 00
	00		 call	 DWORD PTR __imp_?GetSingleton@ioFrameTimer@@SAAAV1@XZ
  0009a	8b c8		 mov	 ecx, eax
  0009c	ff 15 00 00 00
	00		 call	 DWORD PTR __imp_?GetSecPerFrame@ioFrameTimer@@QBEMXZ
  000a2	d9 9d fc f5 ff
	ff		 fstp	 DWORD PTR _fTimePerSec$[ebp]

; 281  : 	float fRate = ( fTimePerSec * 1000 ) / m_dwUpDownSpeed;

  000a8	d9 85 fc f5 ff
	ff		 fld	 DWORD PTR _fTimePerSec$[ebp]
  000ae	8b 83 98 14 00
	00		 mov	 eax, DWORD PTR [ebx+5272]
  000b4	dc 0d 00 00 00
	00		 fmul	 QWORD PTR __real@408f400000000000
  000ba	db 83 98 14 00
	00		 fild	 DWORD PTR [ebx+5272]
  000c0	85 c0		 test	 eax, eax
  000c2	79 06		 jns	 SHORT $LN45@CalcTarget
  000c4	d8 05 00 00 00
	00		 fadd	 DWORD PTR __real@4f800000
$LN45@CalcTarget:
  000ca	de f9		 fdivp	 ST(1), ST(0)
  000cc	d9 9d fc f5 ff
	ff		 fstp	 DWORD PTR _fRate$[ebp]

; 282  : 	float fAddHeight = FLOAT360 * fRate;

  000d2	b8 68 01 00 00	 mov	 eax, 360		; 00000168H
  000d7	89 85 f8 f5 ff
	ff		 mov	 DWORD PTR tv590[ebp], eax
  000dd	db 85 f8 f5 ff
	ff		 fild	 DWORD PTR tv590[ebp]
  000e3	85 c0		 test	 eax, eax
  000e5	79 06		 jns	 SHORT $LN46@CalcTarget
  000e7	d8 05 00 00 00
	00		 fadd	 DWORD PTR __real@4f800000
$LN46@CalcTarget:
  000ed	d8 8d fc f5 ff
	ff		 fmul	 DWORD PTR _fRate$[ebp]
  000f3	d9 9d fc f5 ff
	ff		 fstp	 DWORD PTR _fAddHeight$[ebp]

; 283  : 
; 284  : 	m_fRadiansForHeight += fAddHeight;

  000f9	d9 83 a0 14 00
	00		 fld	 DWORD PTR [ebx+5280]
  000ff	d8 85 fc f5 ff
	ff		 fadd	 DWORD PTR _fAddHeight$[ebp]
  00105	d9 9b a0 14 00
	00		 fstp	 DWORD PTR [ebx+5280]

; 285  : 	if( m_fRadiansForHeight > FLOAT360 )

  0010b	b8 68 01 00 00	 mov	 eax, 360		; 00000168H
  00110	d9 83 a0 14 00
	00		 fld	 DWORD PTR [ebx+5280]
  00116	89 85 f8 f5 ff
	ff		 mov	 DWORD PTR tv583[ebp], eax
  0011c	db 85 f8 f5 ff
	ff		 fild	 DWORD PTR tv583[ebp]
  00122	85 c0		 test	 eax, eax
  00124	79 06		 jns	 SHORT $LN47@CalcTarget
  00126	d8 05 00 00 00
	00		 fadd	 DWORD PTR __real@4f800000
$LN47@CalcTarget:
  0012c	d9 c9		 fxch	 ST(1)
  0012e	df f1		 fcomip	 ST(1)
  00130	dd d8		 fstp	 ST(0)
  00132	76 0b		 jbe	 SHORT $LN3@CalcTarget

; 286  : 		m_fRadiansForHeight = 0.0f;

  00134	0f 57 c0	 xorps	 xmm0, xmm0
  00137	f3 0f 11 83 a0
	14 00 00	 movss	 DWORD PTR [ebx+5280], xmm0
$LN3@CalcTarget:

; 287  : 
; 288  : 	float fHeightOffset = sin( DEGtoRAD(m_fRadiansForHeight) );

  0013f	d9 83 a0 14 00
	00		 fld	 DWORD PTR [ebx+5280]
  00145	dc 0d 00 00 00
	00		 fmul	 QWORD PTR __real@3f91df46a2526c7a
  0014b	d9 9d fc f5 ff
	ff		 fstp	 DWORD PTR $T533941[ebp]

; 289  : 	fHeightOffset *= m_fUpDownOffset;

  00151	d9 85 fc f5 ff
	ff		 fld	 DWORD PTR $T533941[ebp]
  00157	e8 00 00 00 00	 call	 __CIsin
  0015c	d9 9d fc f5 ff
	ff		 fstp	 DWORD PTR tv570[ebp]
  00162	d9 85 fc f5 ff
	ff		 fld	 DWORD PTR tv570[ebp]

; 290  : 
; 291  : 	//   z, y, z   x .
; 292  : 	float fScaleOffset = pChar->GetWorldScale().x;

  00168	8b 07		 mov	 eax, DWORD PTR [edi]
  0016a	d8 8b 9c 14 00
	00		 fmul	 DWORD PTR [ebx+5276]
  00170	8b cf		 mov	 ecx, edi
  00172	d9 9d f8 f5 ff
	ff		 fstp	 DWORD PTR _fHeightOffset$[ebp]
  00178	ff 50 78	 call	 DWORD PTR [eax+120]
  0017b	f3 0f 10 00	 movss	 xmm0, DWORD PTR [eax]

; 293  : 	float fCurAngle = 0.0f;
; 294  : 	float fCurRange = 0.0f;
; 295  : 	float fCurHeight = 0.0f;
; 296  : 
; 297  : 	int iRandomCnt = 0;
; 298  : 	IORandom random;

  0017f	8d 8d 00 f6 ff
	ff		 lea	 ecx, DWORD PTR _random$[ebp]
  00185	f3 0f 11 85 fc
	f5 ff ff	 movss	 DWORD PTR _fScaleOffset$[ebp], xmm0
  0018d	e8 00 00 00 00	 call	 ??0IORandom@@QAE@XZ	; IORandom::IORandom

; 299  : 	random.SetRandomSeed( m_dwSeed );

  00192	ff b3 b4 14 00
	00		 push	 DWORD PTR [ebx+5300]
  00198	83 65 fc 00	 and	 DWORD PTR __$EHRec$[ebp+8], 0
  0019c	8d 8d 00 f6 ff
	ff		 lea	 ecx, DWORD PTR _random$[ebp]
  001a2	e8 00 00 00 00	 call	 ?SetRandomSeed@IORandom@@QAEXI@Z ; IORandom::SetRandomSeed

; 300  : 	iRandomCnt = random.Random( m_DummyTAInfoList.size() );

  001a7	8b 83 a8 14 00
	00		 mov	 eax, DWORD PTR [ebx+5288]
  001ad	2b 83 a4 14 00
	00		 sub	 eax, DWORD PTR [ebx+5284]
  001b3	6a 0c		 push	 12			; 0000000cH
  001b5	59		 pop	 ecx
  001b6	99		 cdq
  001b7	f7 f9		 idiv	 ecx
  001b9	8d 8d 00 f6 ff
	ff		 lea	 ecx, DWORD PTR _random$[ebp]
  001bf	50		 push	 eax
  001c0	e8 00 00 00 00	 call	 ?Random@IORandom@@QAEII@Z ; IORandom::Random

; 301  : 
; 302  : 	fCurAngle = m_DummyTAInfoList[ iRandomCnt ].m_fAngle;

  001c5	6b c0 0c	 imul	 eax, 12			; 0000000cH
  001c8	8b 8b a4 14 00
	00		 mov	 ecx, DWORD PTR [ebx+5284]

; 303  : 	fCurRange = m_DummyTAInfoList[ iRandomCnt ].m_fRangeOffset * fScaleOffset;

  001ce	f3 0f 10 44 08
	04		 movss	 xmm0, DWORD PTR [eax+ecx+4]
  001d4	f3 0f 10 95 fc
	f5 ff ff	 movss	 xmm2, DWORD PTR _fScaleOffset$[ebp]
  001dc	f3 0f 10 0c 08	 movss	 xmm1, DWORD PTR [eax+ecx]
  001e1	0f 5a c0	 cvtps2pd xmm0, xmm0
  001e4	0f 5a d2	 cvtps2pd xmm2, xmm2
  001e7	f2 0f 59 c2	 mulsd	 xmm0, xmm2

; 304  : 	fCurHeight = m_DummyTAInfoList[ iRandomCnt ].m_fHeightOffset * fScaleOffset;

  001eb	f3 0f 10 95 fc
	f5 ff ff	 movss	 xmm2, DWORD PTR _fScaleOffset$[ebp]
  001f3	66 0f 5a c0	 cvtpd2ps xmm0, xmm0
  001f7	f3 0f 11 85 d4
	f5 ff ff	 movss	 DWORD PTR _fCurRange$[ebp], xmm0
  001ff	f3 0f 10 44 08
	08		 movss	 xmm0, DWORD PTR [eax+ecx+8]
  00205	0f 5a c0	 cvtps2pd xmm0, xmm0
  00208	0f 5a d2	 cvtps2pd xmm2, xmm2
  0020b	f2 0f 59 c2	 mulsd	 xmm0, xmm2
  0020f	66 0f 5a c0	 cvtpd2ps xmm0, xmm0
  00213	f3 0f 11 85 fc
	f5 ff ff	 movss	 DWORD PTR _fCurHeight$[ebp], xmm0

; 305  : 
; 306  : 	D3DXQUATERNION qtAngle;
; 307  : 	D3DXQuaternionRotationYawPitchRoll( &qtAngle, DEGtoRAD(fCurAngle), 0.0f, 0.0f );

  0021b	0f 57 c0	 xorps	 xmm0, xmm0
  0021e	83 ec 0c	 sub	 esp, 12			; 0000000cH
  00221	f3 0f 11 44 24
	08		 movss	 DWORD PTR [esp+8], xmm0
  00227	f3 0f 11 44 24
	04		 movss	 DWORD PTR [esp+4], xmm0
  0022d	8d 85 d8 f5 ff
	ff		 lea	 eax, DWORD PTR _qtAngle$[ebp]
  00233	0f 5a c1	 cvtps2pd xmm0, xmm1
  00236	f2 0f 59 05 00
	00 00 00	 mulsd	 xmm0, QWORD PTR __real@3f91df46a2526c7a
  0023e	66 0f 5a c0	 cvtpd2ps xmm0, xmm0
  00242	f3 0f 11 04 24	 movss	 DWORD PTR [esp], xmm0
  00247	50		 push	 eax
  00248	e8 00 00 00 00	 call	 _D3DXQuaternionRotationYawPitchRoll@16

; 308  : 	vDir = qtAngle * vDir;

  0024d	8d 45 e4	 lea	 eax, DWORD PTR _vDir$[ebp]
  00250	50		 push	 eax
  00251	8d 85 d8 f5 ff
	ff		 lea	 eax, DWORD PTR _qtAngle$[ebp]
  00257	50		 push	 eax
  00258	8d 45 cc	 lea	 eax, DWORD PTR $T531689[ebp]
  0025b	50		 push	 eax
  0025c	ff d6		 call	 esi

; 309  : 
; 310  : 	if( fCurRange > 0.0f )

  0025e	f3 0f 10 85 d4
	f5 ff ff	 movss	 xmm0, DWORD PTR _fCurRange$[ebp]
  00266	0f 57 c9	 xorps	 xmm1, xmm1
  00269	8b f0		 mov	 esi, eax
  0026b	8d 7d e4	 lea	 edi, DWORD PTR _vDir$[ebp]
  0026e	a5		 movsd
  0026f	a5		 movsd
  00270	83 c4 0c	 add	 esp, 12			; 0000000cH
  00273	0f 2f c1	 comiss	 xmm0, xmm1
  00276	a5		 movsd
  00277	0f 86 9e 00 00
	00		 jbe	 $LN40@CalcTarget

; 311  : 		vPos += vDir * fCurRange;

  0027d	f3 0f 10 55 e4	 movss	 xmm2, DWORD PTR _vDir$[ebp]
  00282	0f 5a d8	 cvtps2pd xmm3, xmm0
  00285	0f 5a d2	 cvtps2pd xmm2, xmm2
  00288	f2 0f 59 d3	 mulsd	 xmm2, xmm3
  0028c	f3 0f 10 5d e8	 movss	 xmm3, DWORD PTR _vDir$[ebp+4]
  00291	0f 5a e0	 cvtps2pd xmm4, xmm0
  00294	0f 5a db	 cvtps2pd xmm3, xmm3
  00297	f2 0f 59 dc	 mulsd	 xmm3, xmm4
  0029b	f3 0f 10 65 ec	 movss	 xmm4, DWORD PTR _vDir$[ebp+8]
  002a0	66 0f 5a d2	 cvtpd2ps xmm2, xmm2
  002a4	0f 5a c0	 cvtps2pd xmm0, xmm0
  002a7	f3 0f 5a d2	 cvtss2sd xmm2, xmm2
  002ab	0f 5a e4	 cvtps2pd xmm4, xmm4
  002ae	f2 0f 59 e0	 mulsd	 xmm4, xmm0
  002b2	0f 57 c0	 xorps	 xmm0, xmm0
  002b5	66 0f 5a c4	 cvtpd2ps xmm0, xmm4
  002b9	f3 0f 10 a5 ec
	f5 ff ff	 movss	 xmm4, DWORD PTR _vPos$[ebp]
  002c1	0f 5a e4	 cvtps2pd xmm4, xmm4
  002c4	f2 0f 58 d4	 addsd	 xmm2, xmm4
  002c8	66 0f 5a d2	 cvtpd2ps xmm2, xmm2
  002cc	f3 0f 11 95 ec
	f5 ff ff	 movss	 DWORD PTR _vPos$[ebp], xmm2
  002d4	0f 57 d2	 xorps	 xmm2, xmm2
  002d7	66 0f 5a db	 cvtpd2ps xmm3, xmm3
  002db	f3 0f 5a d3	 cvtss2sd xmm2, xmm3
  002df	f3 0f 10 9d f0
	f5 ff ff	 movss	 xmm3, DWORD PTR _vPos$[ebp+4]
  002e7	0f 5a db	 cvtps2pd xmm3, xmm3
  002ea	f2 0f 58 d3	 addsd	 xmm2, xmm3
  002ee	66 0f 5a d2	 cvtpd2ps xmm2, xmm2
  002f2	f3 0f 11 95 f0
	f5 ff ff	 movss	 DWORD PTR _vPos$[ebp+4], xmm2
  002fa	f3 0f 10 95 f4
	f5 ff ff	 movss	 xmm2, DWORD PTR _vPos$[ebp+8]
  00302	0f 5a c0	 cvtps2pd xmm0, xmm0
  00305	0f 5a d2	 cvtps2pd xmm2, xmm2
  00308	f2 0f 58 d0	 addsd	 xmm2, xmm0
  0030c	0f 57 c0	 xorps	 xmm0, xmm0
  0030f	66 0f 5a c2	 cvtpd2ps xmm0, xmm2
  00313	f3 0f 11 85 f4
	f5 ff ff	 movss	 DWORD PTR _vPos$[ebp+8], xmm0
$LN40@CalcTarget:

; 312  : 
; 313  : 	if( fCurHeight > 0.0f )

  0031b	f3 0f 10 85 fc
	f5 ff ff	 movss	 xmm0, DWORD PTR _fCurHeight$[ebp]
  00323	0f 2f c1	 comiss	 xmm0, xmm1
  00326	76 2d		 jbe	 SHORT $LN1@CalcTarget

; 314  : 	{
; 315  : 		vPos.y += fCurHeight + fHeightOffset;

  00328	f3 0f 10 8d f8
	f5 ff ff	 movss	 xmm1, DWORD PTR _fHeightOffset$[ebp]
  00330	0f 5a c0	 cvtps2pd xmm0, xmm0
  00333	0f 5a c9	 cvtps2pd xmm1, xmm1
  00336	f2 0f 58 c1	 addsd	 xmm0, xmm1
  0033a	f3 0f 10 8d f0
	f5 ff ff	 movss	 xmm1, DWORD PTR _vPos$[ebp+4]
  00342	0f 5a c9	 cvtps2pd xmm1, xmm1
  00345	f2 0f 58 c1	 addsd	 xmm0, xmm1
  00349	66 0f 5a c0	 cvtpd2ps xmm0, xmm0
  0034d	f3 0f 11 85 f0
	f5 ff ff	 movss	 DWORD PTR _vPos$[ebp+4], xmm0
$LN1@CalcTarget:

; 316  : 	}
; 317  : 
; 318  : 	return vPos;

  00355	8b bd e8 f5 ff
	ff		 mov	 edi, DWORD PTR ___$ReturnUdt$GSCopy$[ebp]
  0035b	83 4d fc ff	 or	 DWORD PTR __$EHRec$[ebp+8], -1
  0035f	8d b5 ec f5 ff
	ff		 lea	 esi, DWORD PTR _vPos$[ebp]
  00365	a5		 movsd
  00366	a5		 movsd
  00367	8d 8d 00 f6 ff
	ff		 lea	 ecx, DWORD PTR _random$[ebp]
  0036d	a5		 movsd
  0036e	e8 00 00 00 00	 call	 ??1IORandom@@UAE@XZ	; IORandom::~IORandom
  00373	8b 85 e8 f5 ff
	ff		 mov	 eax, DWORD PTR ___$ReturnUdt$GSCopy$[ebp]
$LN5@CalcTarget:

; 319  : }

  00379	e8 00 00 00 00	 call	 __EH_epilog3_GS
  0037e	c2 08 00	 ret	 8
_TEXT	ENDS
;	COMDAT text$x
text$x	SEGMENT
__unwindfunclet$?CalcTargetAttachDummyPosition@ioTargetTrace7Dummy@@IAE?AUD3DXVECTOR3@@PAVioBaseChar@@@Z$0:
  00000	8d 8d 00 f6 ff
	ff		 lea	 ecx, DWORD PTR _random$[ebp]
  00006	e9 00 00 00 00	 jmp	 ??1IORandom@@UAE@XZ	; IORandom::~IORandom
__ehhandler$?CalcTargetAttachDummyPosition@ioTargetTrace7Dummy@@IAE?AUD3DXVECTOR3@@PAVioBaseChar@@@Z:
  0000b	8b 54 24 08	 mov	 edx, DWORD PTR [esp+8]
  0000f	8d 42 0c	 lea	 eax, DWORD PTR [edx+12]
  00012	8b 8a d0 f5 ff
	ff		 mov	 ecx, DWORD PTR [edx-2608]
  00018	33 c8		 xor	 ecx, eax
  0001a	e8 00 00 00 00	 call	 @__security_check_cookie@4
  0001f	8b 4a fc	 mov	 ecx, DWORD PTR [edx-4]
  00022	33 c8		 xor	 ecx, eax
  00024	e8 00 00 00 00	 call	 @__security_check_cookie@4
  00029	b8 00 00 00 00	 mov	 eax, OFFSET __ehfuncinfo$?CalcTargetAttachDummyPosition@ioTargetTrace7Dummy@@IAE?AUD3DXVECTOR3@@PAVioBaseChar@@@Z
  0002e	e9 00 00 00 00	 jmp	 ___CxxFrameHandler3
text$x	ENDS
?CalcTargetAttachDummyPosition@ioTargetTrace7Dummy@@IAE?AUD3DXVECTOR3@@PAVioBaseChar@@@Z ENDP ; ioTargetTrace7Dummy::CalcTargetAttachDummyPosition
PUBLIC	??E?$_List_iterator@V?$_List_val@UFireTime@@V?$allocator@UFireTime@@@std@@@std@@@std@@QAEAAV01@XZ ; std::_List_iterator<std::_List_val<FireTime,std::allocator<FireTime> > >::operator++
; Function compile flags: /Ogsp
; File c:\program files (x86)\microsoft visual studio 10.0\vc\include\list
;	COMDAT ??E?$_List_iterator@V?$_List_val@UFireTime@@V?$allocator@UFireTime@@@std@@@std@@@std@@QAEAAV01@XZ
_TEXT	SEGMENT
??E?$_List_iterator@V?$_List_val@UFireTime@@V?$allocator@UFireTime@@@std@@@std@@@std@@QAEAAV01@XZ PROC ; std::_List_iterator<std::_List_val<FireTime,std::allocator<FireTime> > >::operator++, COMDAT
; _this$ = ecx

; 369  : 		{	// preincrement

  00000	8b c1		 mov	 eax, ecx

; 370  : 		++(*(_Mybase *)this);

  00002	8b 08		 mov	 ecx, DWORD PTR [eax]
  00004	8b 09		 mov	 ecx, DWORD PTR [ecx]
  00006	89 08		 mov	 DWORD PTR [eax], ecx

; 371  : 		return (*this);
; 372  : 		}

  00008	c3		 ret	 0
??E?$_List_iterator@V?$_List_val@UFireTime@@V?$allocator@UFireTime@@@std@@@std@@@std@@QAEAAV01@XZ ENDP ; std::_List_iterator<std::_List_val<FireTime,std::allocator<FireTime> > >::operator++
_TEXT	ENDS
PUBLIC	??9?$_List_const_iterator@V?$_List_val@UFireTime@@V?$allocator@UFireTime@@@std@@@std@@@std@@QBE_NABV01@@Z ; std::_List_const_iterator<std::_List_val<FireTime,std::allocator<FireTime> > >::operator!=
; Function compile flags: /Ogsp
;	COMDAT ??9?$_List_const_iterator@V?$_List_val@UFireTime@@V?$allocator@UFireTime@@@std@@@std@@@std@@QBE_NABV01@@Z
_TEXT	SEGMENT
__Right$ = 8						; size = 4
??9?$_List_const_iterator@V?$_List_val@UFireTime@@V?$allocator@UFireTime@@@std@@@std@@@std@@QBE_NABV01@@Z PROC ; std::_List_const_iterator<std::_List_val<FireTime,std::allocator<FireTime> > >::operator!=, COMDAT
; _this$ = ecx

; 299  : 		{	// test for iterator inequality

  00000	55		 push	 ebp
  00001	8b ec		 mov	 ebp, esp

; 300  : 		return (!(*this == _Right));

  00003	8b 01		 mov	 eax, DWORD PTR [ecx]
  00005	8b 55 08	 mov	 edx, DWORD PTR __Right$[ebp]
  00008	33 c9		 xor	 ecx, ecx
  0000a	3b 02		 cmp	 eax, DWORD PTR [edx]
  0000c	0f 95 c0	 setne	 al

; 301  : 		}

  0000f	5d		 pop	 ebp
  00010	c2 04 00	 ret	 4
??9?$_List_const_iterator@V?$_List_val@UFireTime@@V?$allocator@UFireTime@@@std@@@std@@@std@@QBE_NABV01@@Z ENDP ; std::_List_const_iterator<std::_List_val<FireTime,std::allocator<FireTime> > >::operator!=
_TEXT	ENDS
PUBLIC	??0?$_Vector_val@UDummyTargetAttachInfo@ioTargetTrace7Dummy@@V?$allocator@UDummyTargetAttachInfo@ioTargetTrace7Dummy@@@std@@@std@@QAE@V?$allocator@UDummyTargetAttachInfo@ioTargetTrace7Dummy@@@1@@Z ; std::_Vector_val<ioTargetTrace7Dummy::DummyTargetAttachInfo,std::allocator<ioTargetTrace7Dummy::DummyTargetAttachInfo> >::_Vector_val<ioTargetTrace7Dummy::DummyTargetAttachInfo,std::allocator<ioTargetTrace7Dummy::DummyTargetAttachInfo> >
; Function compile flags: /Ogsp
; File c:\program files (x86)\microsoft visual studio 10.0\vc\include\vector
;	COMDAT ??0?$_Vector_val@UDummyTargetAttachInfo@ioTargetTrace7Dummy@@V?$allocator@UDummyTargetAttachInfo@ioTargetTrace7Dummy@@@std@@@std@@QAE@V?$allocator@UDummyTargetAttachInfo@ioTargetTrace7Dummy@@@1@@Z
_TEXT	SEGMENT
__Al$ = 8						; size = 1
??0?$_Vector_val@UDummyTargetAttachInfo@ioTargetTrace7Dummy@@V?$allocator@UDummyTargetAttachInfo@ioTargetTrace7Dummy@@@std@@@std@@QAE@V?$allocator@UDummyTargetAttachInfo@ioTargetTrace7Dummy@@@1@@Z PROC ; std::_Vector_val<ioTargetTrace7Dummy::DummyTargetAttachInfo,std::allocator<ioTargetTrace7Dummy::DummyTargetAttachInfo> >::_Vector_val<ioTargetTrace7Dummy::DummyTargetAttachInfo,std::allocator<ioTargetTrace7Dummy::DummyTargetAttachInfo> >, COMDAT
; _this$ = ecx

; 426  : 		{	// construct allocator from _Al

  00000	8b c1		 mov	 eax, ecx

; 427  : 		_Myfirst = 0;

  00002	33 c9		 xor	 ecx, ecx
  00004	89 08		 mov	 DWORD PTR [eax], ecx

; 428  : 		_Mylast = 0;

  00006	89 48 04	 mov	 DWORD PTR [eax+4], ecx

; 429  : 		_Myend = 0;

  00009	89 48 08	 mov	 DWORD PTR [eax+8], ecx

; 430  : 		}

  0000c	c2 04 00	 ret	 4
??0?$_Vector_val@UDummyTargetAttachInfo@ioTargetTrace7Dummy@@V?$allocator@UDummyTargetAttachInfo@ioTargetTrace7Dummy@@@std@@@std@@QAE@V?$allocator@UDummyTargetAttachInfo@ioTargetTrace7Dummy@@@1@@Z ENDP ; std::_Vector_val<ioTargetTrace7Dummy::DummyTargetAttachInfo,std::allocator<ioTargetTrace7Dummy::DummyTargetAttachInfo> >::_Vector_val<ioTargetTrace7Dummy::DummyTargetAttachInfo,std::allocator<ioTargetTrace7Dummy::DummyTargetAttachInfo> >
_TEXT	ENDS
PUBLIC	??D?$_List_const_iterator@V?$_List_val@UFireTime@@V?$allocator@UFireTime@@@std@@@std@@@std@@QBEABUFireTime@@XZ ; std::_List_const_iterator<std::_List_val<FireTime,std::allocator<FireTime> > >::operator*
; Function compile flags: /Ogsp
; File c:\program files (x86)\microsoft visual studio 10.0\vc\include\list
;	COMDAT ??D?$_List_const_iterator@V?$_List_val@UFireTime@@V?$allocator@UFireTime@@@std@@@std@@@std@@QBEABUFireTime@@XZ
_TEXT	SEGMENT
??D?$_List_const_iterator@V?$_List_val@UFireTime@@V?$allocator@UFireTime@@@std@@@std@@@std@@QBEABUFireTime@@XZ PROC ; std::_List_const_iterator<std::_List_val<FireTime,std::allocator<FireTime> > >::operator*, COMDAT
; _this$ = ecx

; 202  :  #if _ITERATOR_DEBUG_LEVEL == 2
; 203  : 		if (this->_Getcont() == 0
; 204  : 			|| this->_Ptr == 0
; 205  : 			|| this->_Ptr == ((_Mylist *)this->_Getcont())->_Myhead)
; 206  : 			{	// report error
; 207  : 			_DEBUG_ERROR("list iterator not dereferencable");
; 208  : 			_SCL_SECURE_OUT_OF_RANGE;
; 209  : 			}
; 210  : 
; 211  :  #elif _ITERATOR_DEBUG_LEVEL == 1
; 212  : 		_SCL_SECURE_VALIDATE(this->_Getcont() != 0 && this->_Ptr != 0);
; 213  : 		_SCL_SECURE_VALIDATE_RANGE(this->_Ptr !=
; 214  : 			((_Mylist *)this->_Getcont())->_Myhead);
; 215  :  #endif /* _ITERATOR_DEBUG_LEVEL */
; 216  : 
; 217  : 		return (_Mylist::_Myval(this->_Ptr));

  00000	8b 01		 mov	 eax, DWORD PTR [ecx]
  00002	83 c0 08	 add	 eax, 8

; 218  : 		}

  00005	c3		 ret	 0
??D?$_List_const_iterator@V?$_List_val@UFireTime@@V?$allocator@UFireTime@@@std@@@std@@@std@@QBEABUFireTime@@XZ ENDP ; std::_List_const_iterator<std::_List_val<FireTime,std::allocator<FireTime> > >::operator*
_TEXT	ENDS
PUBLIC	?max_size@?$vector@UDummyTargetAttachInfo@ioTargetTrace7Dummy@@V?$allocator@UDummyTargetAttachInfo@ioTargetTrace7Dummy@@@std@@@std@@QBEIXZ ; std::vector<ioTargetTrace7Dummy::DummyTargetAttachInfo,std::allocator<ioTargetTrace7Dummy::DummyTargetAttachInfo> >::max_size
; Function compile flags: /Ogsp
; File c:\program files (x86)\microsoft visual studio 10.0\vc\include\vector
;	COMDAT ?max_size@?$vector@UDummyTargetAttachInfo@ioTargetTrace7Dummy@@V?$allocator@UDummyTargetAttachInfo@ioTargetTrace7Dummy@@@std@@@std@@QBEIXZ
_TEXT	SEGMENT
?max_size@?$vector@UDummyTargetAttachInfo@ioTargetTrace7Dummy@@V?$allocator@UDummyTargetAttachInfo@ioTargetTrace7Dummy@@@std@@@std@@QBEIXZ PROC ; std::vector<ioTargetTrace7Dummy::DummyTargetAttachInfo,std::allocator<ioTargetTrace7Dummy::DummyTargetAttachInfo> >::max_size, COMDAT
; _this$ = ecx

; 884  : 		return (this->_Alval.max_size());

  00000	b8 55 55 55 15	 mov	 eax, 357913941		; 15555555H

; 885  : 		}

  00005	c3		 ret	 0
?max_size@?$vector@UDummyTargetAttachInfo@ioTargetTrace7Dummy@@V?$allocator@UDummyTargetAttachInfo@ioTargetTrace7Dummy@@@std@@@std@@QBEIXZ ENDP ; std::vector<ioTargetTrace7Dummy::DummyTargetAttachInfo,std::allocator<ioTargetTrace7Dummy::DummyTargetAttachInfo> >::max_size
_TEXT	ENDS
PUBLIC	?_Grow_to@?$vector@UDummyTargetAttachInfo@ioTargetTrace7Dummy@@V?$allocator@UDummyTargetAttachInfo@ioTargetTrace7Dummy@@@std@@@std@@IBEII@Z ; std::vector<ioTargetTrace7Dummy::DummyTargetAttachInfo,std::allocator<ioTargetTrace7Dummy::DummyTargetAttachInfo> >::_Grow_to
; Function compile flags: /Ogsp
;	COMDAT ?_Grow_to@?$vector@UDummyTargetAttachInfo@ioTargetTrace7Dummy@@V?$allocator@UDummyTargetAttachInfo@ioTargetTrace7Dummy@@@std@@@std@@IBEII@Z
_TEXT	SEGMENT
__Count$ = 8						; size = 4
?_Grow_to@?$vector@UDummyTargetAttachInfo@ioTargetTrace7Dummy@@V?$allocator@UDummyTargetAttachInfo@ioTargetTrace7Dummy@@@std@@@std@@IBEII@Z PROC ; std::vector<ioTargetTrace7Dummy::DummyTargetAttachInfo,std::allocator<ioTargetTrace7Dummy::DummyTargetAttachInfo> >::_Grow_to, COMDAT
; _this$ = ecx

; 1274 : 		{	// grow by 50% or at least to _Count

  00000	55		 push	 ebp
  00001	8b ec		 mov	 ebp, esp

; 1275 : 		size_type _Capacity = capacity();

  00003	8b 41 08	 mov	 eax, DWORD PTR [ecx+8]
  00006	2b 01		 sub	 eax, DWORD PTR [ecx]
  00008	6a 0c		 push	 12			; 0000000cH
  0000a	99		 cdq
  0000b	59		 pop	 ecx
  0000c	f7 f9		 idiv	 ecx

; 1276 : 
; 1277 : 		_Capacity = max_size() - _Capacity / 2 < _Capacity
; 1278 : 			? 0 : _Capacity + _Capacity / 2;	// try to grow by 50%

  0000e	ba 55 55 55 15	 mov	 edx, 357913941		; 15555555H
  00013	8b c8		 mov	 ecx, eax
  00015	d1 e9		 shr	 ecx, 1
  00017	2b d1		 sub	 edx, ecx
  00019	3b d0		 cmp	 edx, eax
  0001b	73 04		 jae	 SHORT $LN4@Grow_to
  0001d	33 c0		 xor	 eax, eax
  0001f	eb 02		 jmp	 SHORT $LN5@Grow_to
$LN4@Grow_to:
  00021	03 c1		 add	 eax, ecx
$LN5@Grow_to:

; 1279 : 		if (_Capacity < _Count)

  00023	3b 45 08	 cmp	 eax, DWORD PTR __Count$[ebp]

; 1280 : 			_Capacity = _Count;

  00026	0f 42 45 08	 cmovb	 eax, DWORD PTR __Count$[ebp]

; 1281 : 		return (_Capacity);
; 1282 : 		}

  0002a	5d		 pop	 ebp
  0002b	c2 04 00	 ret	 4
?_Grow_to@?$vector@UDummyTargetAttachInfo@ioTargetTrace7Dummy@@V?$allocator@UDummyTargetAttachInfo@ioTargetTrace7Dummy@@@std@@@std@@IBEII@Z ENDP ; std::vector<ioTargetTrace7Dummy::DummyTargetAttachInfo,std::allocator<ioTargetTrace7Dummy::DummyTargetAttachInfo> >::_Grow_to
_TEXT	ENDS
PUBLIC	??0?$_List_const_iterator@V?$_List_val@UFireTime@@V?$allocator@UFireTime@@@std@@@std@@@std@@QAE@PAU_Node@?$_List_nod@UFireTime@@V?$allocator@UFireTime@@@std@@@1@PBV?$_List_val@UFireTime@@V?$allocator@UFireTime@@@std@@@1@@Z ; std::_List_const_iterator<std::_List_val<FireTime,std::allocator<FireTime> > >::_List_const_iterator<std::_List_val<FireTime,std::allocator<FireTime> > >
; Function compile flags: /Ogsp
; File c:\program files (x86)\microsoft visual studio 10.0\vc\include\list
;	COMDAT ??0?$_List_const_iterator@V?$_List_val@UFireTime@@V?$allocator@UFireTime@@@std@@@std@@@std@@QAE@PAU_Node@?$_List_nod@UFireTime@@V?$allocator@UFireTime@@@std@@@1@PBV?$_List_val@UFireTime@@V?$allocator@UFireTime@@@std@@@1@@Z
_TEXT	SEGMENT
__Pnode$ = 8						; size = 4
__Plist$ = 12						; size = 4
??0?$_List_const_iterator@V?$_List_val@UFireTime@@V?$allocator@UFireTime@@@std@@@std@@@std@@QAE@PAU_Node@?$_List_nod@UFireTime@@V?$allocator@UFireTime@@@std@@@1@PBV?$_List_val@UFireTime@@V?$allocator@UFireTime@@@std@@@1@@Z PROC ; std::_List_const_iterator<std::_List_val<FireTime,std::allocator<FireTime> > >::_List_const_iterator<std::_List_val<FireTime,std::allocator<FireTime> > >, COMDAT
; _this$ = ecx

; 184  : 		{	// construct with node pointer _Pnode

  00000	55		 push	 ebp
  00001	8b ec		 mov	 ebp, esp
  00003	8b c1		 mov	 eax, ecx
  00005	8b 4d 08	 mov	 ecx, DWORD PTR __Pnode$[ebp]
  00008	89 08		 mov	 DWORD PTR [eax], ecx

; 185  : 		}

  0000a	5d		 pop	 ebp
  0000b	c2 08 00	 ret	 8
??0?$_List_const_iterator@V?$_List_val@UFireTime@@V?$allocator@UFireTime@@@std@@@std@@@std@@QAE@PAU_Node@?$_List_nod@UFireTime@@V?$allocator@UFireTime@@@std@@@1@PBV?$_List_val@UFireTime@@V?$allocator@UFireTime@@@std@@@1@@Z ENDP ; std::_List_const_iterator<std::_List_val<FireTime,std::allocator<FireTime> > >::_List_const_iterator<std::_List_val<FireTime,std::allocator<FireTime> > >
_TEXT	ENDS
PUBLIC	?allocate@?$allocator@UDummyTargetAttachInfo@ioTargetTrace7Dummy@@@std@@QAEPAUDummyTargetAttachInfo@ioTargetTrace7Dummy@@I@Z ; std::allocator<ioTargetTrace7Dummy::DummyTargetAttachInfo>::allocate
; Function compile flags: /Ogsp
; File c:\program files (x86)\microsoft visual studio 10.0\vc\include\xmemory
;	COMDAT ?allocate@?$allocator@UDummyTargetAttachInfo@ioTargetTrace7Dummy@@@std@@QAEPAUDummyTargetAttachInfo@ioTargetTrace7Dummy@@I@Z
_TEXT	SEGMENT
__Count$ = 8						; size = 4
?allocate@?$allocator@UDummyTargetAttachInfo@ioTargetTrace7Dummy@@@std@@QAEPAUDummyTargetAttachInfo@ioTargetTrace7Dummy@@I@Z PROC ; std::allocator<ioTargetTrace7Dummy::DummyTargetAttachInfo>::allocate, COMDAT
; _this$ = ecx

; 186  : 		{	// allocate array of _Count elements

  00000	55		 push	 ebp
  00001	8b ec		 mov	 ebp, esp

; 187  : 		return (_Allocate(_Count, (pointer)0));

  00003	6a 00		 push	 0
  00005	ff 75 08	 push	 DWORD PTR __Count$[ebp]
  00008	e8 00 00 00 00	 call	 ??$_Allocate@UDummyTargetAttachInfo@ioTargetTrace7Dummy@@@std@@YAPAUDummyTargetAttachInfo@ioTargetTrace7Dummy@@IPAU12@@Z ; std::_Allocate<ioTargetTrace7Dummy::DummyTargetAttachInfo>
  0000d	59		 pop	 ecx
  0000e	59		 pop	 ecx

; 188  : 		}

  0000f	5d		 pop	 ebp
  00010	c2 04 00	 ret	 4
?allocate@?$allocator@UDummyTargetAttachInfo@ioTargetTrace7Dummy@@@std@@QAEPAUDummyTargetAttachInfo@ioTargetTrace7Dummy@@I@Z ENDP ; std::allocator<ioTargetTrace7Dummy::DummyTargetAttachInfo>::allocate
_TEXT	ENDS
PUBLIC	__$ArrayPad$
PUBLIC	??$LoadInt_e@$0BE@@ioINILoader@@QAEHAAY0BE@$$CBDH@Z ; ioINILoader::LoadInt_e<20>
EXTRN	__imp_?LoadInt@ioINILoader@@QAEHPBDH@Z:PROC
; Function compile flags: /Ogsp
; File d:\lost saga for developer\youtube\tutorial\source\src\io3dengine\ioiniloader.h
;	COMDAT ??$LoadInt_e@$0BE@@ioINILoader@@QAEHAAY0BE@$$CBDH@Z
_TEXT	SEGMENT
__k$ = -28						; size = 20
__$ArrayPad$ = -4					; size = 4
_k$ = 8							; size = 4
_i$ = 12						; size = 4
??$LoadInt_e@$0BE@@ioINILoader@@QAEHAAY0BE@$$CBDH@Z PROC ; ioINILoader::LoadInt_e<20>, COMDAT
; _this$ = ecx

; 118  : 	{

  00000	55		 push	 ebp
  00001	8b ec		 mov	 ebp, esp
  00003	83 ec 1c	 sub	 esp, 28			; 0000001cH
  00006	a1 00 00 00 00	 mov	 eax, DWORD PTR ___security_cookie
  0000b	33 c5		 xor	 eax, ebp
  0000d	89 45 fc	 mov	 DWORD PTR __$ArrayPad$[ebp], eax
  00010	8b 45 08	 mov	 eax, DWORD PTR _k$[ebp]

; 119  : 		_ENCSTR(k, _k);

  00013	8a 10		 mov	 dl, BYTE PTR [eax]
  00015	53		 push	 ebx
  00016	56		 push	 esi
  00017	8b f1		 mov	 esi, ecx
  00019	84 d2		 test	 dl, dl
  0001b	0f 84 dd 01 00
	00		 je	 $LN96@LoadInt_e
  00021	80 f2 ed	 xor	 dl, -19			; ffffffedH
  00024	88 55 e4	 mov	 BYTE PTR __k$[ebp], dl
  00027	8a 50 01	 mov	 dl, BYTE PTR [eax+1]
  0002a	84 d2		 test	 dl, dl
  0002c	0f 84 c6 01 00
	00		 je	 $LN95@LoadInt_e
  00032	b3 ec		 mov	 bl, -20			; ffffffecH
  00034	32 d3		 xor	 dl, bl
  00036	88 55 e5	 mov	 BYTE PTR __k$[ebp+1], dl
  00039	8a 50 02	 mov	 dl, BYTE PTR [eax+2]
  0003c	84 d2		 test	 dl, dl
  0003e	0f 84 ae 01 00
	00		 je	 $LN94@LoadInt_e
  00044	b1 eb		 mov	 cl, -21			; ffffffebH
  00046	32 d1		 xor	 dl, cl
  00048	88 55 e6	 mov	 BYTE PTR __k$[ebp+2], dl
  0004b	8a 50 03	 mov	 dl, BYTE PTR [eax+3]
  0004e	84 d2		 test	 dl, dl
  00050	0f 84 96 01 00
	00		 je	 $LN93@LoadInt_e
  00056	80 f2 ea	 xor	 dl, -22			; ffffffeaH
  00059	88 55 e7	 mov	 BYTE PTR __k$[ebp+3], dl
  0005c	8a 50 04	 mov	 dl, BYTE PTR [eax+4]
  0005f	84 d2		 test	 dl, dl
  00061	0f 84 7f 01 00
	00		 je	 $LN92@LoadInt_e
  00067	80 f2 ed	 xor	 dl, -19			; ffffffedH
  0006a	88 55 e8	 mov	 BYTE PTR __k$[ebp+4], dl
  0006d	8a 50 05	 mov	 dl, BYTE PTR [eax+5]
  00070	84 d2		 test	 dl, dl
  00072	0f 84 69 01 00
	00		 je	 $LN91@LoadInt_e
  00078	32 d3		 xor	 dl, bl
  0007a	88 55 e9	 mov	 BYTE PTR __k$[ebp+5], dl
  0007d	8a 50 06	 mov	 dl, BYTE PTR [eax+6]
  00080	84 d2		 test	 dl, dl
  00082	0f 84 54 01 00
	00		 je	 $LN90@LoadInt_e
  00088	32 d1		 xor	 dl, cl
  0008a	88 55 ea	 mov	 BYTE PTR __k$[ebp+6], dl
  0008d	8a 50 07	 mov	 dl, BYTE PTR [eax+7]
  00090	84 d2		 test	 dl, dl
  00092	0f 84 3e 01 00
	00		 je	 $LN89@LoadInt_e
  00098	80 f2 ea	 xor	 dl, -22			; ffffffeaH
  0009b	88 55 eb	 mov	 BYTE PTR __k$[ebp+7], dl
  0009e	8a 50 08	 mov	 dl, BYTE PTR [eax+8]
  000a1	84 d2		 test	 dl, dl
  000a3	0f 84 27 01 00
	00		 je	 $LN88@LoadInt_e
  000a9	80 f2 ed	 xor	 dl, -19			; ffffffedH
  000ac	88 55 ec	 mov	 BYTE PTR __k$[ebp+8], dl
  000af	8a 50 09	 mov	 dl, BYTE PTR [eax+9]
  000b2	84 d2		 test	 dl, dl
  000b4	0f 84 11 01 00
	00		 je	 $LN87@LoadInt_e
  000ba	32 d3		 xor	 dl, bl
  000bc	88 55 ed	 mov	 BYTE PTR __k$[ebp+9], dl
  000bf	8a 50 0a	 mov	 dl, BYTE PTR [eax+10]
  000c2	84 d2		 test	 dl, dl
  000c4	0f 84 fc 00 00
	00		 je	 $LN86@LoadInt_e
  000ca	32 d1		 xor	 dl, cl
  000cc	88 55 ee	 mov	 BYTE PTR __k$[ebp+10], dl
  000cf	8a 50 0b	 mov	 dl, BYTE PTR [eax+11]
  000d2	84 d2		 test	 dl, dl
  000d4	0f 84 e6 00 00
	00		 je	 $LN85@LoadInt_e
  000da	80 f2 ea	 xor	 dl, -22			; ffffffeaH
  000dd	88 55 ef	 mov	 BYTE PTR __k$[ebp+11], dl
  000e0	8a 50 0c	 mov	 dl, BYTE PTR [eax+12]
  000e3	84 d2		 test	 dl, dl
  000e5	0f 84 cf 00 00
	00		 je	 $LN84@LoadInt_e
  000eb	80 f2 ed	 xor	 dl, -19			; ffffffedH
  000ee	88 55 f0	 mov	 BYTE PTR __k$[ebp+12], dl
  000f1	8a 50 0d	 mov	 dl, BYTE PTR [eax+13]
  000f4	84 d2		 test	 dl, dl
  000f6	0f 84 b9 00 00
	00		 je	 $LN83@LoadInt_e
  000fc	32 d3		 xor	 dl, bl
  000fe	88 55 f1	 mov	 BYTE PTR __k$[ebp+13], dl
  00101	8a 50 0e	 mov	 dl, BYTE PTR [eax+14]
  00104	84 d2		 test	 dl, dl
  00106	0f 84 a4 00 00
	00		 je	 $LN82@LoadInt_e
  0010c	32 d1		 xor	 dl, cl
  0010e	88 55 f2	 mov	 BYTE PTR __k$[ebp+14], dl
  00111	8a 50 0f	 mov	 dl, BYTE PTR [eax+15]
  00114	84 d2		 test	 dl, dl
  00116	0f 84 8e 00 00
	00		 je	 $LN81@LoadInt_e
  0011c	80 f2 ea	 xor	 dl, -22			; ffffffeaH
  0011f	88 55 f3	 mov	 BYTE PTR __k$[ebp+15], dl
  00122	8a 50 10	 mov	 dl, BYTE PTR [eax+16]
  00125	84 d2		 test	 dl, dl
  00127	74 7b		 je	 SHORT $LN80@LoadInt_e
  00129	80 f2 ed	 xor	 dl, -19			; ffffffedH
  0012c	88 55 f4	 mov	 BYTE PTR __k$[ebp+16], dl
  0012f	8a 50 11	 mov	 dl, BYTE PTR [eax+17]
  00132	84 d2		 test	 dl, dl
  00134	74 69		 je	 SHORT $LN79@LoadInt_e
  00136	32 d3		 xor	 dl, bl
  00138	88 55 f5	 mov	 BYTE PTR __k$[ebp+17], dl
  0013b	8a 50 12	 mov	 dl, BYTE PTR [eax+18]
  0013e	84 d2		 test	 dl, dl
  00140	74 58		 je	 SHORT $LN78@LoadInt_e
  00142	32 d1		 xor	 dl, cl
  00144	80 78 13 00	 cmp	 BYTE PTR [eax+19], 0
  00148	88 55 f6	 mov	 BYTE PTR __k$[ebp+18], dl
  0014b	0f 84 b1 00 00
	00		 je	 $LN1@LoadInt_e
  00151	8a 50 14	 mov	 dl, BYTE PTR [eax+20]
  00154	84 d2		 test	 dl, dl
  00156	74 3c		 je	 SHORT $LN76@LoadInt_e
  00158	80 f2 ed	 xor	 dl, -19			; ffffffedH
  0015b	88 55 f8	 mov	 BYTE PTR __k$[ebp+20], dl
  0015e	8a 50 15	 mov	 dl, BYTE PTR [eax+21]
  00161	84 d2		 test	 dl, dl
  00163	74 2a		 je	 SHORT $LN75@LoadInt_e
  00165	32 d3		 xor	 dl, bl
  00167	88 55 f9	 mov	 BYTE PTR __k$[ebp+21], dl
  0016a	8a 50 16	 mov	 dl, BYTE PTR [eax+22]
  0016d	84 d2		 test	 dl, dl
  0016f	74 19		 je	 SHORT $LN74@LoadInt_e
  00171	8a 40 17	 mov	 al, BYTE PTR [eax+23]
  00174	32 d1		 xor	 dl, cl
  00176	88 55 fa	 mov	 BYTE PTR __k$[ebp+22], dl
  00179	84 c0		 test	 al, al
  0017b	74 07		 je	 SHORT $LN73@LoadInt_e
  0017d	34 ea		 xor	 al, -22			; ffffffeaH
  0017f	88 45 fb	 mov	 BYTE PTR __k$[ebp+23], al
  00182	eb 7e		 jmp	 SHORT $LN1@LoadInt_e
$LN73@LoadInt_e:
  00184	c6 45 fb ea	 mov	 BYTE PTR __k$[ebp+23], -22 ; ffffffeaH
  00188	eb 78		 jmp	 SHORT $LN1@LoadInt_e
$LN74@LoadInt_e:
  0018a	88 4d fa	 mov	 BYTE PTR __k$[ebp+22], cl
  0018d	eb 73		 jmp	 SHORT $LN1@LoadInt_e
$LN75@LoadInt_e:
  0018f	88 5d f9	 mov	 BYTE PTR __k$[ebp+21], bl
  00192	eb 6e		 jmp	 SHORT $LN1@LoadInt_e
$LN76@LoadInt_e:
  00194	c6 45 f8 ed	 mov	 BYTE PTR __k$[ebp+20], -19 ; ffffffedH
  00198	eb 68		 jmp	 SHORT $LN1@LoadInt_e
$LN78@LoadInt_e:
  0019a	88 4d f6	 mov	 BYTE PTR __k$[ebp+18], cl
  0019d	eb 63		 jmp	 SHORT $LN1@LoadInt_e
$LN79@LoadInt_e:
  0019f	88 5d f5	 mov	 BYTE PTR __k$[ebp+17], bl
  001a2	eb 5e		 jmp	 SHORT $LN1@LoadInt_e
$LN80@LoadInt_e:
  001a4	c6 45 f4 ed	 mov	 BYTE PTR __k$[ebp+16], -19 ; ffffffedH
  001a8	eb 58		 jmp	 SHORT $LN1@LoadInt_e
$LN81@LoadInt_e:
  001aa	c6 45 f3 ea	 mov	 BYTE PTR __k$[ebp+15], -22 ; ffffffeaH
  001ae	eb 52		 jmp	 SHORT $LN1@LoadInt_e
$LN82@LoadInt_e:
  001b0	88 4d f2	 mov	 BYTE PTR __k$[ebp+14], cl
  001b3	eb 4d		 jmp	 SHORT $LN1@LoadInt_e
$LN83@LoadInt_e:
  001b5	88 5d f1	 mov	 BYTE PTR __k$[ebp+13], bl
  001b8	eb 48		 jmp	 SHORT $LN1@LoadInt_e
$LN84@LoadInt_e:
  001ba	c6 45 f0 ed	 mov	 BYTE PTR __k$[ebp+12], -19 ; ffffffedH
  001be	eb 42		 jmp	 SHORT $LN1@LoadInt_e
$LN85@LoadInt_e:
  001c0	c6 45 ef ea	 mov	 BYTE PTR __k$[ebp+11], -22 ; ffffffeaH
  001c4	eb 3c		 jmp	 SHORT $LN1@LoadInt_e
$LN86@LoadInt_e:
  001c6	88 4d ee	 mov	 BYTE PTR __k$[ebp+10], cl
  001c9	eb 37		 jmp	 SHORT $LN1@LoadInt_e
$LN87@LoadInt_e:
  001cb	88 5d ed	 mov	 BYTE PTR __k$[ebp+9], bl
  001ce	eb 32		 jmp	 SHORT $LN1@LoadInt_e
$LN88@LoadInt_e:
  001d0	c6 45 ec ed	 mov	 BYTE PTR __k$[ebp+8], -19 ; ffffffedH
  001d4	eb 2c		 jmp	 SHORT $LN1@LoadInt_e
$LN89@LoadInt_e:
  001d6	c6 45 eb ea	 mov	 BYTE PTR __k$[ebp+7], -22 ; ffffffeaH
  001da	eb 26		 jmp	 SHORT $LN1@LoadInt_e
$LN90@LoadInt_e:
  001dc	88 4d ea	 mov	 BYTE PTR __k$[ebp+6], cl
  001df	eb 21		 jmp	 SHORT $LN1@LoadInt_e
$LN91@LoadInt_e:
  001e1	88 5d e9	 mov	 BYTE PTR __k$[ebp+5], bl
  001e4	eb 1c		 jmp	 SHORT $LN1@LoadInt_e
$LN92@LoadInt_e:
  001e6	c6 45 e8 ed	 mov	 BYTE PTR __k$[ebp+4], -19 ; ffffffedH
  001ea	eb 16		 jmp	 SHORT $LN1@LoadInt_e
$LN93@LoadInt_e:
  001ec	c6 45 e7 ea	 mov	 BYTE PTR __k$[ebp+3], -22 ; ffffffeaH
  001f0	eb 10		 jmp	 SHORT $LN1@LoadInt_e
$LN94@LoadInt_e:
  001f2	c6 45 e6 eb	 mov	 BYTE PTR __k$[ebp+2], -21 ; ffffffebH
  001f6	eb 0a		 jmp	 SHORT $LN1@LoadInt_e
$LN95@LoadInt_e:
  001f8	c6 45 e5 ec	 mov	 BYTE PTR __k$[ebp+1], -20 ; ffffffecH
  001fc	eb 04		 jmp	 SHORT $LN1@LoadInt_e
$LN96@LoadInt_e:
  001fe	c6 45 e4 ed	 mov	 BYTE PTR __k$[ebp], -19	; ffffffedH
$LN1@LoadInt_e:
  00202	6a 04		 push	 4
  00204	8d 45 e4	 lea	 eax, DWORD PTR __k$[ebp]
  00207	c6 45 f7 00	 mov	 BYTE PTR __k$[ebp+19], 0
  0020b	5a		 pop	 edx
$LL104@LoadInt_e:
  0020c	81 30 ed ec eb
	ea		 xor	 DWORD PTR [eax], -353637139 ; eaebecedH
  00212	83 c0 04	 add	 eax, 4
  00215	4a		 dec	 edx
  00216	75 f4		 jne	 SHORT $LL104@LoadInt_e
  00218	6a 10		 push	 16			; 00000010H
  0021a	58		 pop	 eax
$LL101@LoadInt_e:
  0021b	8b c8		 mov	 ecx, eax
  0021d	81 e1 03 00 00
	80		 and	 ecx, -2147483645	; 80000003H
  00223	79 05		 jns	 SHORT $LN111@LoadInt_e
  00225	49		 dec	 ecx
  00226	83 c9 fc	 or	 ecx, -4			; fffffffcH
  00229	41		 inc	 ecx
$LN111@LoadInt_e:
  0022a	b2 ed		 mov	 dl, -19			; ffffffedH
  0022c	2a d1		 sub	 dl, cl
  0022e	30 54 05 e4	 xor	 BYTE PTR __k$[ebp+eax], dl
  00232	40		 inc	 eax
  00233	83 f8 13	 cmp	 eax, 19			; 00000013H
  00236	7c e3		 jl	 SHORT $LL101@LoadInt_e

; 120  : 		return LoadInt(_k, i);

  00238	ff 75 0c	 push	 DWORD PTR _i$[ebp]
  0023b	8d 45 e4	 lea	 eax, DWORD PTR __k$[ebp]
  0023e	50		 push	 eax
  0023f	8b ce		 mov	 ecx, esi
  00241	ff 15 00 00 00
	00		 call	 DWORD PTR __imp_?LoadInt@ioINILoader@@QAEHPBDH@Z

; 121  : 	}

  00247	8b 4d fc	 mov	 ecx, DWORD PTR __$ArrayPad$[ebp]
  0024a	5e		 pop	 esi
  0024b	33 cd		 xor	 ecx, ebp
  0024d	5b		 pop	 ebx
  0024e	e8 00 00 00 00	 call	 @__security_check_cookie@4
  00253	c9		 leave
  00254	c2 08 00	 ret	 8
??$LoadInt_e@$0BE@@ioINILoader@@QAEHAAY0BE@$$CBDH@Z ENDP ; ioINILoader::LoadInt_e<20>
_TEXT	ENDS
PUBLIC	_this$GSCopy$
PUBLIC	__$ArrayPad$
PUBLIC	??$LoadString_e@$0BC@@ioINILoader@@QAEXAAY0BC@$$CBDAAY00$$CBDPADH@Z ; ioINILoader::LoadString_e<18>
EXTRN	__imp_?LoadStringA@ioINILoader@@QAEXPBD0PADH@Z:PROC
; Function compile flags: /Ogsp
;	COMDAT ??$LoadString_e@$0BC@@ioINILoader@@QAEXAAY0BC@$$CBDAAY00$$CBDPADH@Z
_TEXT	SEGMENT
_this$GSCopy$ = -32					; size = 4
__k$ = -28						; size = 18
__$ArrayPad$ = -4					; size = 4
_k$ = 8							; size = 4
_d$ = 12						; size = 4
_b$ = 16						; size = 4
_i$ = 20						; size = 4
??$LoadString_e@$0BC@@ioINILoader@@QAEXAAY0BC@$$CBDAAY00$$CBDPADH@Z PROC ; ioINILoader::LoadString_e<18>, COMDAT
; _this$ = ecx

; 161  : 	{

  00000	55		 push	 ebp
  00001	8b ec		 mov	 ebp, esp
  00003	83 ec 20	 sub	 esp, 32			; 00000020H
  00006	a1 00 00 00 00	 mov	 eax, DWORD PTR ___security_cookie
  0000b	33 c5		 xor	 eax, ebp
  0000d	89 45 fc	 mov	 DWORD PTR __$ArrayPad$[ebp], eax
  00010	8b 45 08	 mov	 eax, DWORD PTR _k$[ebp]

; 162  : 		_ENCSTR(k, _k);

  00013	8a 10		 mov	 dl, BYTE PTR [eax]
  00015	56		 push	 esi
  00016	8b 75 0c	 mov	 esi, DWORD PTR _d$[ebp]
  00019	57		 push	 edi
  0001a	8b 7d 10	 mov	 edi, DWORD PTR _b$[ebp]
  0001d	89 4d e0	 mov	 DWORD PTR _this$GSCopy$[ebp], ecx
  00020	84 d2		 test	 dl, dl
  00022	0f 84 be 01 00
	00		 je	 $LN96@LoadString
  00028	80 f2 ed	 xor	 dl, -19			; ffffffedH
  0002b	88 55 e4	 mov	 BYTE PTR __k$[ebp], dl
  0002e	8a 50 01	 mov	 dl, BYTE PTR [eax+1]
  00031	84 d2		 test	 dl, dl
  00033	0f 84 a7 01 00
	00		 je	 $LN95@LoadString
  00039	80 f2 ec	 xor	 dl, -20			; ffffffecH
  0003c	88 55 e5	 mov	 BYTE PTR __k$[ebp+1], dl
  0003f	8a 50 02	 mov	 dl, BYTE PTR [eax+2]
  00042	84 d2		 test	 dl, dl
  00044	0f 84 90 01 00
	00		 je	 $LN94@LoadString
  0004a	b1 eb		 mov	 cl, -21			; ffffffebH
  0004c	32 d1		 xor	 dl, cl
  0004e	88 55 e6	 mov	 BYTE PTR __k$[ebp+2], dl
  00051	8a 50 03	 mov	 dl, BYTE PTR [eax+3]
  00054	84 d2		 test	 dl, dl
  00056	0f 84 78 01 00
	00		 je	 $LN93@LoadString
  0005c	80 f2 ea	 xor	 dl, -22			; ffffffeaH
  0005f	88 55 e7	 mov	 BYTE PTR __k$[ebp+3], dl
  00062	8a 50 04	 mov	 dl, BYTE PTR [eax+4]
  00065	84 d2		 test	 dl, dl
  00067	0f 84 61 01 00
	00		 je	 $LN92@LoadString
  0006d	80 f2 ed	 xor	 dl, -19			; ffffffedH
  00070	88 55 e8	 mov	 BYTE PTR __k$[ebp+4], dl
  00073	8a 50 05	 mov	 dl, BYTE PTR [eax+5]
  00076	84 d2		 test	 dl, dl
  00078	0f 84 4a 01 00
	00		 je	 $LN91@LoadString
  0007e	80 f2 ec	 xor	 dl, -20			; ffffffecH
  00081	88 55 e9	 mov	 BYTE PTR __k$[ebp+5], dl
  00084	8a 50 06	 mov	 dl, BYTE PTR [eax+6]
  00087	84 d2		 test	 dl, dl
  00089	0f 84 34 01 00
	00		 je	 $LN90@LoadString
  0008f	32 d1		 xor	 dl, cl
  00091	88 55 ea	 mov	 BYTE PTR __k$[ebp+6], dl
  00094	8a 50 07	 mov	 dl, BYTE PTR [eax+7]
  00097	84 d2		 test	 dl, dl
  00099	0f 84 1e 01 00
	00		 je	 $LN89@LoadString
  0009f	80 f2 ea	 xor	 dl, -22			; ffffffeaH
  000a2	88 55 eb	 mov	 BYTE PTR __k$[ebp+7], dl
  000a5	8a 50 08	 mov	 dl, BYTE PTR [eax+8]
  000a8	84 d2		 test	 dl, dl
  000aa	0f 84 07 01 00
	00		 je	 $LN88@LoadString
  000b0	80 f2 ed	 xor	 dl, -19			; ffffffedH
  000b3	88 55 ec	 mov	 BYTE PTR __k$[ebp+8], dl
  000b6	8a 50 09	 mov	 dl, BYTE PTR [eax+9]
  000b9	84 d2		 test	 dl, dl
  000bb	0f 84 f0 00 00
	00		 je	 $LN87@LoadString
  000c1	80 f2 ec	 xor	 dl, -20			; ffffffecH
  000c4	88 55 ed	 mov	 BYTE PTR __k$[ebp+9], dl
  000c7	8a 50 0a	 mov	 dl, BYTE PTR [eax+10]
  000ca	84 d2		 test	 dl, dl
  000cc	0f 84 da 00 00
	00		 je	 $LN86@LoadString
  000d2	32 d1		 xor	 dl, cl
  000d4	88 55 ee	 mov	 BYTE PTR __k$[ebp+10], dl
  000d7	8a 50 0b	 mov	 dl, BYTE PTR [eax+11]
  000da	84 d2		 test	 dl, dl
  000dc	0f 84 c4 00 00
	00		 je	 $LN85@LoadString
  000e2	80 f2 ea	 xor	 dl, -22			; ffffffeaH
  000e5	88 55 ef	 mov	 BYTE PTR __k$[ebp+11], dl
  000e8	8a 50 0c	 mov	 dl, BYTE PTR [eax+12]
  000eb	84 d2		 test	 dl, dl
  000ed	0f 84 ad 00 00
	00		 je	 $LN84@LoadString
  000f3	80 f2 ed	 xor	 dl, -19			; ffffffedH
  000f6	88 55 f0	 mov	 BYTE PTR __k$[ebp+12], dl
  000f9	8a 50 0d	 mov	 dl, BYTE PTR [eax+13]
  000fc	84 d2		 test	 dl, dl
  000fe	0f 84 96 00 00
	00		 je	 $LN83@LoadString
  00104	80 f2 ec	 xor	 dl, -20			; ffffffecH
  00107	88 55 f1	 mov	 BYTE PTR __k$[ebp+13], dl
  0010a	8a 50 0e	 mov	 dl, BYTE PTR [eax+14]
  0010d	84 d2		 test	 dl, dl
  0010f	0f 84 80 00 00
	00		 je	 $LN82@LoadString
  00115	32 d1		 xor	 dl, cl
  00117	88 55 f2	 mov	 BYTE PTR __k$[ebp+14], dl
  0011a	8a 50 0f	 mov	 dl, BYTE PTR [eax+15]
  0011d	84 d2		 test	 dl, dl
  0011f	74 6e		 je	 SHORT $LN81@LoadString
  00121	80 f2 ea	 xor	 dl, -22			; ffffffeaH
  00124	88 55 f3	 mov	 BYTE PTR __k$[ebp+15], dl
  00127	8a 50 10	 mov	 dl, BYTE PTR [eax+16]
  0012a	84 d2		 test	 dl, dl
  0012c	74 5b		 je	 SHORT $LN80@LoadString
  0012e	80 f2 ed	 xor	 dl, -19			; ffffffedH
  00131	80 78 11 00	 cmp	 BYTE PTR [eax+17], 0
  00135	88 55 f4	 mov	 BYTE PTR __k$[ebp+16], dl
  00138	0f 84 ac 00 00
	00		 je	 $LN111@LoadString
  0013e	8a 50 12	 mov	 dl, BYTE PTR [eax+18]
  00141	84 d2		 test	 dl, dl
  00143	74 3f		 je	 SHORT $LN78@LoadString
  00145	32 d1		 xor	 dl, cl
  00147	88 55 f6	 mov	 BYTE PTR __k$[ebp+18], dl
  0014a	8a 50 13	 mov	 dl, BYTE PTR [eax+19]
  0014d	84 d2		 test	 dl, dl
  0014f	74 2d		 je	 SHORT $LN77@LoadString
  00151	80 f2 ea	 xor	 dl, -22			; ffffffeaH
  00154	88 55 f7	 mov	 BYTE PTR __k$[ebp+19], dl
  00157	8a 50 14	 mov	 dl, BYTE PTR [eax+20]
  0015a	84 d2		 test	 dl, dl
  0015c	74 1a		 je	 SHORT $LN76@LoadString
  0015e	8a 40 15	 mov	 al, BYTE PTR [eax+21]
  00161	80 f2 ed	 xor	 dl, -19			; ffffffedH
  00164	88 55 f8	 mov	 BYTE PTR __k$[ebp+20], dl
  00167	84 c0		 test	 al, al
  00169	74 07		 je	 SHORT $LN75@LoadString
  0016b	34 ec		 xor	 al, -20			; ffffffecH
  0016d	88 45 f9	 mov	 BYTE PTR __k$[ebp+21], al
  00170	eb 78		 jmp	 SHORT $LN111@LoadString
$LN75@LoadString:
  00172	c6 45 f9 ec	 mov	 BYTE PTR __k$[ebp+21], -20 ; ffffffecH
  00176	eb 72		 jmp	 SHORT $LN111@LoadString
$LN76@LoadString:
  00178	c6 45 f8 ed	 mov	 BYTE PTR __k$[ebp+20], -19 ; ffffffedH
  0017c	eb 6c		 jmp	 SHORT $LN111@LoadString
$LN77@LoadString:
  0017e	c6 45 f7 ea	 mov	 BYTE PTR __k$[ebp+19], -22 ; ffffffeaH
  00182	eb 66		 jmp	 SHORT $LN111@LoadString
$LN78@LoadString:
  00184	88 4d f6	 mov	 BYTE PTR __k$[ebp+18], cl
  00187	eb 61		 jmp	 SHORT $LN111@LoadString
$LN80@LoadString:
  00189	c6 45 f4 ed	 mov	 BYTE PTR __k$[ebp+16], -19 ; ffffffedH
  0018d	eb 5b		 jmp	 SHORT $LN111@LoadString
$LN81@LoadString:
  0018f	c6 45 f3 ea	 mov	 BYTE PTR __k$[ebp+15], -22 ; ffffffeaH
  00193	eb 55		 jmp	 SHORT $LN111@LoadString
$LN82@LoadString:
  00195	88 4d f2	 mov	 BYTE PTR __k$[ebp+14], cl
  00198	eb 50		 jmp	 SHORT $LN111@LoadString
$LN83@LoadString:
  0019a	c6 45 f1 ec	 mov	 BYTE PTR __k$[ebp+13], -20 ; ffffffecH
  0019e	eb 4a		 jmp	 SHORT $LN111@LoadString
$LN84@LoadString:
  001a0	c6 45 f0 ed	 mov	 BYTE PTR __k$[ebp+12], -19 ; ffffffedH
  001a4	eb 44		 jmp	 SHORT $LN111@LoadString
$LN85@LoadString:
  001a6	c6 45 ef ea	 mov	 BYTE PTR __k$[ebp+11], -22 ; ffffffeaH
  001aa	eb 3e		 jmp	 SHORT $LN111@LoadString
$LN86@LoadString:
  001ac	88 4d ee	 mov	 BYTE PTR __k$[ebp+10], cl
  001af	eb 39		 jmp	 SHORT $LN111@LoadString
$LN87@LoadString:
  001b1	c6 45 ed ec	 mov	 BYTE PTR __k$[ebp+9], -20 ; ffffffecH
  001b5	eb 33		 jmp	 SHORT $LN111@LoadString
$LN88@LoadString:
  001b7	c6 45 ec ed	 mov	 BYTE PTR __k$[ebp+8], -19 ; ffffffedH
  001bb	eb 2d		 jmp	 SHORT $LN111@LoadString
$LN89@LoadString:
  001bd	c6 45 eb ea	 mov	 BYTE PTR __k$[ebp+7], -22 ; ffffffeaH
  001c1	eb 27		 jmp	 SHORT $LN111@LoadString
$LN90@LoadString:
  001c3	88 4d ea	 mov	 BYTE PTR __k$[ebp+6], cl
  001c6	eb 22		 jmp	 SHORT $LN111@LoadString
$LN91@LoadString:
  001c8	c6 45 e9 ec	 mov	 BYTE PTR __k$[ebp+5], -20 ; ffffffecH
  001cc	eb 1c		 jmp	 SHORT $LN111@LoadString
$LN92@LoadString:
  001ce	c6 45 e8 ed	 mov	 BYTE PTR __k$[ebp+4], -19 ; ffffffedH
  001d2	eb 16		 jmp	 SHORT $LN111@LoadString
$LN93@LoadString:
  001d4	c6 45 e7 ea	 mov	 BYTE PTR __k$[ebp+3], -22 ; ffffffeaH
  001d8	eb 10		 jmp	 SHORT $LN111@LoadString
$LN94@LoadString:
  001da	c6 45 e6 eb	 mov	 BYTE PTR __k$[ebp+2], -21 ; ffffffebH
  001de	eb 0a		 jmp	 SHORT $LN111@LoadString
$LN95@LoadString:
  001e0	c6 45 e5 ec	 mov	 BYTE PTR __k$[ebp+1], -20 ; ffffffecH
  001e4	eb 04		 jmp	 SHORT $LN111@LoadString
$LN96@LoadString:
  001e6	c6 45 e4 ed	 mov	 BYTE PTR __k$[ebp], -19	; ffffffedH
$LN111@LoadString:
  001ea	6a 04		 push	 4
  001ec	8d 45 e4	 lea	 eax, DWORD PTR __k$[ebp]
  001ef	c6 45 f5 00	 mov	 BYTE PTR __k$[ebp+17], 0
  001f3	5a		 pop	 edx
$LL104@LoadString:
  001f4	81 30 ed ec eb
	ea		 xor	 DWORD PTR [eax], -353637139 ; eaebecedH
  001fa	83 c0 04	 add	 eax, 4
  001fd	4a		 dec	 edx
  001fe	75 f4		 jne	 SHORT $LL104@LoadString

; 163  : 		LoadString(_k, d, b, i);

  00200	ff 75 14	 push	 DWORD PTR _i$[ebp]
  00203	8b 4d e0	 mov	 ecx, DWORD PTR _this$GSCopy$[ebp]
  00206	80 75 f4 ed	 xor	 BYTE PTR __k$[ebp+16], -19 ; ffffffedH
  0020a	57		 push	 edi
  0020b	56		 push	 esi
  0020c	8d 45 e4	 lea	 eax, DWORD PTR __k$[ebp]
  0020f	50		 push	 eax
  00210	ff 15 00 00 00
	00		 call	 DWORD PTR __imp_?LoadStringA@ioINILoader@@QAEXPBD0PADH@Z

; 164  : 	}

  00216	8b 4d fc	 mov	 ecx, DWORD PTR __$ArrayPad$[ebp]
  00219	5f		 pop	 edi
  0021a	33 cd		 xor	 ecx, ebp
  0021c	5e		 pop	 esi
  0021d	e8 00 00 00 00	 call	 @__security_check_cookie@4
  00222	c9		 leave
  00223	c2 10 00	 ret	 16			; 00000010H
??$LoadString_e@$0BC@@ioINILoader@@QAEXAAY0BC@$$CBDAAY00$$CBDPADH@Z ENDP ; ioINILoader::LoadString_e<18>
_TEXT	ENDS
PUBLIC	__$ArrayPad$
PUBLIC	??$LoadFloat_e@$0BH@@ioINILoader@@QAEMAAY0BH@$$CBDM@Z ; ioINILoader::LoadFloat_e<23>
EXTRN	__imp_?LoadFloat@ioINILoader@@QAEMPBDM@Z:PROC
; Function compile flags: /Ogsp
;	COMDAT ??$LoadFloat_e@$0BH@@ioINILoader@@QAEMAAY0BH@$$CBDM@Z
_TEXT	SEGMENT
__k$ = -32						; size = 23
__$ArrayPad$ = -4					; size = 4
_k$ = 8							; size = 4
_f$ = 12						; size = 4
??$LoadFloat_e@$0BH@@ioINILoader@@QAEMAAY0BH@$$CBDM@Z PROC ; ioINILoader::LoadFloat_e<23>, COMDAT
; _this$ = ecx

; 135  : 	{

  00000	55		 push	 ebp
  00001	8b ec		 mov	 ebp, esp
  00003	83 ec 20	 sub	 esp, 32			; 00000020H
  00006	a1 00 00 00 00	 mov	 eax, DWORD PTR ___security_cookie
  0000b	33 c5		 xor	 eax, ebp
  0000d	89 45 fc	 mov	 DWORD PTR __$ArrayPad$[ebp], eax
  00010	8b 45 08	 mov	 eax, DWORD PTR _k$[ebp]

; 136  : 		_ENCSTR(k, _k);

  00013	8a 10		 mov	 dl, BYTE PTR [eax]
  00015	53		 push	 ebx
  00016	56		 push	 esi
  00017	8b f1		 mov	 esi, ecx
  00019	84 d2		 test	 dl, dl
  0001b	0f 84 2d 02 00
	00		 je	 $LN96@LoadFloat_
  00021	80 f2 ed	 xor	 dl, -19			; ffffffedH
  00024	88 55 e0	 mov	 BYTE PTR __k$[ebp], dl
  00027	8a 50 01	 mov	 dl, BYTE PTR [eax+1]
  0002a	84 d2		 test	 dl, dl
  0002c	0f 84 16 02 00
	00		 je	 $LN95@LoadFloat_
  00032	b1 ec		 mov	 cl, -20			; ffffffecH
  00034	32 d1		 xor	 dl, cl
  00036	88 55 e1	 mov	 BYTE PTR __k$[ebp+1], dl
  00039	8a 50 02	 mov	 dl, BYTE PTR [eax+2]
  0003c	84 d2		 test	 dl, dl
  0003e	0f 84 fe 01 00
	00		 je	 $LN94@LoadFloat_
  00044	80 f2 eb	 xor	 dl, -21			; ffffffebH
  00047	88 55 e2	 mov	 BYTE PTR __k$[ebp+2], dl
  0004a	8a 50 03	 mov	 dl, BYTE PTR [eax+3]
  0004d	84 d2		 test	 dl, dl
  0004f	0f 84 e7 01 00
	00		 je	 $LN93@LoadFloat_
  00055	b3 ea		 mov	 bl, -22			; ffffffeaH
  00057	32 d3		 xor	 dl, bl
  00059	88 55 e3	 mov	 BYTE PTR __k$[ebp+3], dl
  0005c	8a 50 04	 mov	 dl, BYTE PTR [eax+4]
  0005f	84 d2		 test	 dl, dl
  00061	0f 84 cf 01 00
	00		 je	 $LN92@LoadFloat_
  00067	80 f2 ed	 xor	 dl, -19			; ffffffedH
  0006a	88 55 e4	 mov	 BYTE PTR __k$[ebp+4], dl
  0006d	8a 50 05	 mov	 dl, BYTE PTR [eax+5]
  00070	84 d2		 test	 dl, dl
  00072	0f 84 b9 01 00
	00		 je	 $LN91@LoadFloat_
  00078	32 d1		 xor	 dl, cl
  0007a	88 55 e5	 mov	 BYTE PTR __k$[ebp+5], dl
  0007d	8a 50 06	 mov	 dl, BYTE PTR [eax+6]
  00080	84 d2		 test	 dl, dl
  00082	0f 84 a3 01 00
	00		 je	 $LN90@LoadFloat_
  00088	80 f2 eb	 xor	 dl, -21			; ffffffebH
  0008b	88 55 e6	 mov	 BYTE PTR __k$[ebp+6], dl
  0008e	8a 50 07	 mov	 dl, BYTE PTR [eax+7]
  00091	84 d2		 test	 dl, dl
  00093	0f 84 8d 01 00
	00		 je	 $LN89@LoadFloat_
  00099	32 d3		 xor	 dl, bl
  0009b	88 55 e7	 mov	 BYTE PTR __k$[ebp+7], dl
  0009e	8a 50 08	 mov	 dl, BYTE PTR [eax+8]
  000a1	84 d2		 test	 dl, dl
  000a3	0f 84 77 01 00
	00		 je	 $LN88@LoadFloat_
  000a9	80 f2 ed	 xor	 dl, -19			; ffffffedH
  000ac	88 55 e8	 mov	 BYTE PTR __k$[ebp+8], dl
  000af	8a 50 09	 mov	 dl, BYTE PTR [eax+9]
  000b2	84 d2		 test	 dl, dl
  000b4	0f 84 61 01 00
	00		 je	 $LN87@LoadFloat_
  000ba	32 d1		 xor	 dl, cl
  000bc	88 55 e9	 mov	 BYTE PTR __k$[ebp+9], dl
  000bf	8a 50 0a	 mov	 dl, BYTE PTR [eax+10]
  000c2	84 d2		 test	 dl, dl
  000c4	0f 84 4b 01 00
	00		 je	 $LN86@LoadFloat_
  000ca	80 f2 eb	 xor	 dl, -21			; ffffffebH
  000cd	88 55 ea	 mov	 BYTE PTR __k$[ebp+10], dl
  000d0	8a 50 0b	 mov	 dl, BYTE PTR [eax+11]
  000d3	84 d2		 test	 dl, dl
  000d5	0f 84 35 01 00
	00		 je	 $LN85@LoadFloat_
  000db	32 d3		 xor	 dl, bl
  000dd	88 55 eb	 mov	 BYTE PTR __k$[ebp+11], dl
  000e0	8a 50 0c	 mov	 dl, BYTE PTR [eax+12]
  000e3	84 d2		 test	 dl, dl
  000e5	0f 84 1f 01 00
	00		 je	 $LN84@LoadFloat_
  000eb	80 f2 ed	 xor	 dl, -19			; ffffffedH
  000ee	88 55 ec	 mov	 BYTE PTR __k$[ebp+12], dl
  000f1	8a 50 0d	 mov	 dl, BYTE PTR [eax+13]
  000f4	84 d2		 test	 dl, dl
  000f6	0f 84 09 01 00
	00		 je	 $LN83@LoadFloat_
  000fc	32 d1		 xor	 dl, cl
  000fe	88 55 ed	 mov	 BYTE PTR __k$[ebp+13], dl
  00101	8a 50 0e	 mov	 dl, BYTE PTR [eax+14]
  00104	84 d2		 test	 dl, dl
  00106	0f 84 f3 00 00
	00		 je	 $LN82@LoadFloat_
  0010c	80 f2 eb	 xor	 dl, -21			; ffffffebH
  0010f	88 55 ee	 mov	 BYTE PTR __k$[ebp+14], dl
  00112	8a 50 0f	 mov	 dl, BYTE PTR [eax+15]
  00115	84 d2		 test	 dl, dl
  00117	0f 84 dd 00 00
	00		 je	 $LN81@LoadFloat_
  0011d	32 d3		 xor	 dl, bl
  0011f	88 55 ef	 mov	 BYTE PTR __k$[ebp+15], dl
  00122	8a 50 10	 mov	 dl, BYTE PTR [eax+16]
  00125	84 d2		 test	 dl, dl
  00127	0f 84 c7 00 00
	00		 je	 $LN80@LoadFloat_
  0012d	80 f2 ed	 xor	 dl, -19			; ffffffedH
  00130	88 55 f0	 mov	 BYTE PTR __k$[ebp+16], dl
  00133	8a 50 11	 mov	 dl, BYTE PTR [eax+17]
  00136	84 d2		 test	 dl, dl
  00138	0f 84 b1 00 00
	00		 je	 $LN79@LoadFloat_
  0013e	32 d1		 xor	 dl, cl
  00140	88 55 f1	 mov	 BYTE PTR __k$[ebp+17], dl
  00143	8a 50 12	 mov	 dl, BYTE PTR [eax+18]
  00146	84 d2		 test	 dl, dl
  00148	0f 84 9b 00 00
	00		 je	 $LN78@LoadFloat_
  0014e	80 f2 eb	 xor	 dl, -21			; ffffffebH
  00151	88 55 f2	 mov	 BYTE PTR __k$[ebp+18], dl
  00154	8a 50 13	 mov	 dl, BYTE PTR [eax+19]
  00157	84 d2		 test	 dl, dl
  00159	0f 84 85 00 00
	00		 je	 $LN77@LoadFloat_
  0015f	32 d3		 xor	 dl, bl
  00161	88 55 f3	 mov	 BYTE PTR __k$[ebp+19], dl
  00164	8a 50 14	 mov	 dl, BYTE PTR [eax+20]
  00167	84 d2		 test	 dl, dl
  00169	74 73		 je	 SHORT $LN76@LoadFloat_
  0016b	80 f2 ed	 xor	 dl, -19			; ffffffedH
  0016e	88 55 f4	 mov	 BYTE PTR __k$[ebp+20], dl
  00171	8a 50 15	 mov	 dl, BYTE PTR [eax+21]
  00174	84 d2		 test	 dl, dl
  00176	74 61		 je	 SHORT $LN75@LoadFloat_
  00178	32 d1		 xor	 dl, cl
  0017a	80 78 16 00	 cmp	 BYTE PTR [eax+22], 0
  0017e	88 55 f5	 mov	 BYTE PTR __k$[ebp+21], dl
  00181	0f 84 cb 00 00
	00		 je	 $LN1@LoadFloat_
  00187	8a 50 17	 mov	 dl, BYTE PTR [eax+23]
  0018a	84 d2		 test	 dl, dl
  0018c	74 46		 je	 SHORT $LN73@LoadFloat_
  0018e	32 d3		 xor	 dl, bl
  00190	88 55 f7	 mov	 BYTE PTR __k$[ebp+23], dl
  00193	8a 50 18	 mov	 dl, BYTE PTR [eax+24]
  00196	84 d2		 test	 dl, dl
  00198	74 34		 je	 SHORT $LN72@LoadFloat_
  0019a	80 f2 ed	 xor	 dl, -19			; ffffffedH
  0019d	88 55 f8	 mov	 BYTE PTR __k$[ebp+24], dl
  001a0	8a 50 19	 mov	 dl, BYTE PTR [eax+25]
  001a3	84 d2		 test	 dl, dl
  001a5	74 1f		 je	 SHORT $LN71@LoadFloat_
  001a7	8a 40 1a	 mov	 al, BYTE PTR [eax+26]
  001aa	32 d1		 xor	 dl, cl
  001ac	88 55 f9	 mov	 BYTE PTR __k$[ebp+25], dl
  001af	84 c0		 test	 al, al
  001b1	74 0a		 je	 SHORT $LN70@LoadFloat_
  001b3	34 eb		 xor	 al, -21			; ffffffebH
  001b5	88 45 fa	 mov	 BYTE PTR __k$[ebp+26], al
  001b8	e9 95 00 00 00	 jmp	 $LN1@LoadFloat_
$LN70@LoadFloat_:
  001bd	c6 45 fa eb	 mov	 BYTE PTR __k$[ebp+26], -21 ; ffffffebH
  001c1	e9 8c 00 00 00	 jmp	 $LN1@LoadFloat_
$LN71@LoadFloat_:
  001c6	88 4d f9	 mov	 BYTE PTR __k$[ebp+25], cl
  001c9	e9 84 00 00 00	 jmp	 $LN1@LoadFloat_
$LN72@LoadFloat_:
  001ce	c6 45 f8 ed	 mov	 BYTE PTR __k$[ebp+24], -19 ; ffffffedH
  001d2	eb 7e		 jmp	 SHORT $LN1@LoadFloat_
$LN73@LoadFloat_:
  001d4	88 5d f7	 mov	 BYTE PTR __k$[ebp+23], bl
  001d7	eb 79		 jmp	 SHORT $LN1@LoadFloat_
$LN75@LoadFloat_:
  001d9	88 4d f5	 mov	 BYTE PTR __k$[ebp+21], cl
  001dc	eb 74		 jmp	 SHORT $LN1@LoadFloat_
$LN76@LoadFloat_:
  001de	c6 45 f4 ed	 mov	 BYTE PTR __k$[ebp+20], -19 ; ffffffedH
  001e2	eb 6e		 jmp	 SHORT $LN1@LoadFloat_
$LN77@LoadFloat_:
  001e4	88 5d f3	 mov	 BYTE PTR __k$[ebp+19], bl
  001e7	eb 69		 jmp	 SHORT $LN1@LoadFloat_
$LN78@LoadFloat_:
  001e9	c6 45 f2 eb	 mov	 BYTE PTR __k$[ebp+18], -21 ; ffffffebH
  001ed	eb 63		 jmp	 SHORT $LN1@LoadFloat_
$LN79@LoadFloat_:
  001ef	88 4d f1	 mov	 BYTE PTR __k$[ebp+17], cl
  001f2	eb 5e		 jmp	 SHORT $LN1@LoadFloat_
$LN80@LoadFloat_:
  001f4	c6 45 f0 ed	 mov	 BYTE PTR __k$[ebp+16], -19 ; ffffffedH
  001f8	eb 58		 jmp	 SHORT $LN1@LoadFloat_
$LN81@LoadFloat_:
  001fa	88 5d ef	 mov	 BYTE PTR __k$[ebp+15], bl
  001fd	eb 53		 jmp	 SHORT $LN1@LoadFloat_
$LN82@LoadFloat_:
  001ff	c6 45 ee eb	 mov	 BYTE PTR __k$[ebp+14], -21 ; ffffffebH
  00203	eb 4d		 jmp	 SHORT $LN1@LoadFloat_
$LN83@LoadFloat_:
  00205	88 4d ed	 mov	 BYTE PTR __k$[ebp+13], cl
  00208	eb 48		 jmp	 SHORT $LN1@LoadFloat_
$LN84@LoadFloat_:
  0020a	c6 45 ec ed	 mov	 BYTE PTR __k$[ebp+12], -19 ; ffffffedH
  0020e	eb 42		 jmp	 SHORT $LN1@LoadFloat_
$LN85@LoadFloat_:
  00210	88 5d eb	 mov	 BYTE PTR __k$[ebp+11], bl
  00213	eb 3d		 jmp	 SHORT $LN1@LoadFloat_
$LN86@LoadFloat_:
  00215	c6 45 ea eb	 mov	 BYTE PTR __k$[ebp+10], -21 ; ffffffebH
  00219	eb 37		 jmp	 SHORT $LN1@LoadFloat_
$LN87@LoadFloat_:
  0021b	88 4d e9	 mov	 BYTE PTR __k$[ebp+9], cl
  0021e	eb 32		 jmp	 SHORT $LN1@LoadFloat_
$LN88@LoadFloat_:
  00220	c6 45 e8 ed	 mov	 BYTE PTR __k$[ebp+8], -19 ; ffffffedH
  00224	eb 2c		 jmp	 SHORT $LN1@LoadFloat_
$LN89@LoadFloat_:
  00226	88 5d e7	 mov	 BYTE PTR __k$[ebp+7], bl
  00229	eb 27		 jmp	 SHORT $LN1@LoadFloat_
$LN90@LoadFloat_:
  0022b	c6 45 e6 eb	 mov	 BYTE PTR __k$[ebp+6], -21 ; ffffffebH
  0022f	eb 21		 jmp	 SHORT $LN1@LoadFloat_
$LN91@LoadFloat_:
  00231	88 4d e5	 mov	 BYTE PTR __k$[ebp+5], cl
  00234	eb 1c		 jmp	 SHORT $LN1@LoadFloat_
$LN92@LoadFloat_:
  00236	c6 45 e4 ed	 mov	 BYTE PTR __k$[ebp+4], -19 ; ffffffedH
  0023a	eb 16		 jmp	 SHORT $LN1@LoadFloat_
$LN93@LoadFloat_:
  0023c	c6 45 e3 ea	 mov	 BYTE PTR __k$[ebp+3], -22 ; ffffffeaH
  00240	eb 10		 jmp	 SHORT $LN1@LoadFloat_
$LN94@LoadFloat_:
  00242	c6 45 e2 eb	 mov	 BYTE PTR __k$[ebp+2], -21 ; ffffffebH
  00246	eb 0a		 jmp	 SHORT $LN1@LoadFloat_
$LN95@LoadFloat_:
  00248	c6 45 e1 ec	 mov	 BYTE PTR __k$[ebp+1], -20 ; ffffffecH
  0024c	eb 04		 jmp	 SHORT $LN1@LoadFloat_
$LN96@LoadFloat_:
  0024e	c6 45 e0 ed	 mov	 BYTE PTR __k$[ebp], -19	; ffffffedH
$LN1@LoadFloat_:
  00252	6a 05		 push	 5
  00254	8d 45 e0	 lea	 eax, DWORD PTR __k$[ebp]
  00257	c6 45 f6 00	 mov	 BYTE PTR __k$[ebp+22], 0
  0025b	5a		 pop	 edx
$LL104@LoadFloat_:
  0025c	81 30 ed ec eb
	ea		 xor	 DWORD PTR [eax], -353637139 ; eaebecedH
  00262	83 c0 04	 add	 eax, 4
  00265	4a		 dec	 edx
  00266	75 f4		 jne	 SHORT $LL104@LoadFloat_
  00268	6a 14		 push	 20			; 00000014H
  0026a	58		 pop	 eax
$LL101@LoadFloat_:
  0026b	8b c8		 mov	 ecx, eax
  0026d	81 e1 03 00 00
	80		 and	 ecx, -2147483645	; 80000003H
  00273	79 05		 jns	 SHORT $LN111@LoadFloat_
  00275	49		 dec	 ecx
  00276	83 c9 fc	 or	 ecx, -4			; fffffffcH
  00279	41		 inc	 ecx
$LN111@LoadFloat_:
  0027a	b2 ed		 mov	 dl, -19			; ffffffedH
  0027c	2a d1		 sub	 dl, cl
  0027e	30 54 05 e0	 xor	 BYTE PTR __k$[ebp+eax], dl
  00282	40		 inc	 eax
  00283	83 f8 16	 cmp	 eax, 22			; 00000016H
  00286	7c e3		 jl	 SHORT $LL101@LoadFloat_

; 137  : 		return LoadFloat(_k, f);

  00288	f3 0f 10 45 0c	 movss	 xmm0, DWORD PTR _f$[ebp]
  0028d	51		 push	 ecx
  0028e	8d 45 e0	 lea	 eax, DWORD PTR __k$[ebp]
  00291	f3 0f 11 04 24	 movss	 DWORD PTR [esp], xmm0
  00296	50		 push	 eax
  00297	8b ce		 mov	 ecx, esi
  00299	ff 15 00 00 00
	00		 call	 DWORD PTR __imp_?LoadFloat@ioINILoader@@QAEMPBDM@Z

; 138  : 	}

  0029f	8b 4d fc	 mov	 ecx, DWORD PTR __$ArrayPad$[ebp]
  002a2	5e		 pop	 esi
  002a3	33 cd		 xor	 ecx, ebp
  002a5	5b		 pop	 ebx
  002a6	e8 00 00 00 00	 call	 @__security_check_cookie@4
  002ab	c9		 leave
  002ac	c2 08 00	 ret	 8
??$LoadFloat_e@$0BH@@ioINILoader@@QAEMAAY0BH@$$CBDM@Z ENDP ; ioINILoader::LoadFloat_e<23>
_TEXT	ENDS
PUBLIC	__$ArrayPad$
PUBLIC	??$LoadInt_e@$0BD@@ioINILoader@@QAEHAAY0BD@$$CBDH@Z ; ioINILoader::LoadInt_e<19>
; Function compile flags: /Ogsp
;	COMDAT ??$LoadInt_e@$0BD@@ioINILoader@@QAEHAAY0BD@$$CBDH@Z
_TEXT	SEGMENT
__k$ = -28						; size = 19
__$ArrayPad$ = -4					; size = 4
_k$ = 8							; size = 4
_i$ = 12						; size = 4
??$LoadInt_e@$0BD@@ioINILoader@@QAEHAAY0BD@$$CBDH@Z PROC ; ioINILoader::LoadInt_e<19>, COMDAT
; _this$ = ecx

; 118  : 	{

  00000	55		 push	 ebp
  00001	8b ec		 mov	 ebp, esp
  00003	83 ec 1c	 sub	 esp, 28			; 0000001cH
  00006	a1 00 00 00 00	 mov	 eax, DWORD PTR ___security_cookie
  0000b	33 c5		 xor	 eax, ebp
  0000d	89 45 fc	 mov	 DWORD PTR __$ArrayPad$[ebp], eax
  00010	8b 45 08	 mov	 eax, DWORD PTR _k$[ebp]

; 119  : 		_ENCSTR(k, _k);

  00013	8a 10		 mov	 dl, BYTE PTR [eax]
  00015	56		 push	 esi
  00016	8b f1		 mov	 esi, ecx
  00018	84 d2		 test	 dl, dl
  0001a	0f 84 cf 01 00
	00		 je	 $LN96@LoadInt_e@2
  00020	80 f2 ed	 xor	 dl, -19			; ffffffedH
  00023	88 55 e4	 mov	 BYTE PTR __k$[ebp], dl
  00026	8a 50 01	 mov	 dl, BYTE PTR [eax+1]
  00029	84 d2		 test	 dl, dl
  0002b	0f 84 b8 01 00
	00		 je	 $LN95@LoadInt_e@2
  00031	b1 ec		 mov	 cl, -20			; ffffffecH
  00033	32 d1		 xor	 dl, cl
  00035	88 55 e5	 mov	 BYTE PTR __k$[ebp+1], dl
  00038	8a 50 02	 mov	 dl, BYTE PTR [eax+2]
  0003b	84 d2		 test	 dl, dl
  0003d	0f 84 a0 01 00
	00		 je	 $LN94@LoadInt_e@2
  00043	80 f2 eb	 xor	 dl, -21			; ffffffebH
  00046	88 55 e6	 mov	 BYTE PTR __k$[ebp+2], dl
  00049	8a 50 03	 mov	 dl, BYTE PTR [eax+3]
  0004c	84 d2		 test	 dl, dl
  0004e	0f 84 89 01 00
	00		 je	 $LN93@LoadInt_e@2
  00054	80 f2 ea	 xor	 dl, -22			; ffffffeaH
  00057	88 55 e7	 mov	 BYTE PTR __k$[ebp+3], dl
  0005a	8a 50 04	 mov	 dl, BYTE PTR [eax+4]
  0005d	84 d2		 test	 dl, dl
  0005f	0f 84 72 01 00
	00		 je	 $LN92@LoadInt_e@2
  00065	80 f2 ed	 xor	 dl, -19			; ffffffedH
  00068	88 55 e8	 mov	 BYTE PTR __k$[ebp+4], dl
  0006b	8a 50 05	 mov	 dl, BYTE PTR [eax+5]
  0006e	84 d2		 test	 dl, dl
  00070	0f 84 5c 01 00
	00		 je	 $LN91@LoadInt_e@2
  00076	32 d1		 xor	 dl, cl
  00078	88 55 e9	 mov	 BYTE PTR __k$[ebp+5], dl
  0007b	8a 50 06	 mov	 dl, BYTE PTR [eax+6]
  0007e	84 d2		 test	 dl, dl
  00080	0f 84 46 01 00
	00		 je	 $LN90@LoadInt_e@2
  00086	80 f2 eb	 xor	 dl, -21			; ffffffebH
  00089	88 55 ea	 mov	 BYTE PTR __k$[ebp+6], dl
  0008c	8a 50 07	 mov	 dl, BYTE PTR [eax+7]
  0008f	84 d2		 test	 dl, dl
  00091	0f 84 2f 01 00
	00		 je	 $LN89@LoadInt_e@2
  00097	80 f2 ea	 xor	 dl, -22			; ffffffeaH
  0009a	88 55 eb	 mov	 BYTE PTR __k$[ebp+7], dl
  0009d	8a 50 08	 mov	 dl, BYTE PTR [eax+8]
  000a0	84 d2		 test	 dl, dl
  000a2	0f 84 18 01 00
	00		 je	 $LN88@LoadInt_e@2
  000a8	80 f2 ed	 xor	 dl, -19			; ffffffedH
  000ab	88 55 ec	 mov	 BYTE PTR __k$[ebp+8], dl
  000ae	8a 50 09	 mov	 dl, BYTE PTR [eax+9]
  000b1	84 d2		 test	 dl, dl
  000b3	0f 84 02 01 00
	00		 je	 $LN87@LoadInt_e@2
  000b9	32 d1		 xor	 dl, cl
  000bb	88 55 ed	 mov	 BYTE PTR __k$[ebp+9], dl
  000be	8a 50 0a	 mov	 dl, BYTE PTR [eax+10]
  000c1	84 d2		 test	 dl, dl
  000c3	0f 84 ec 00 00
	00		 je	 $LN86@LoadInt_e@2
  000c9	80 f2 eb	 xor	 dl, -21			; ffffffebH
  000cc	88 55 ee	 mov	 BYTE PTR __k$[ebp+10], dl
  000cf	8a 50 0b	 mov	 dl, BYTE PTR [eax+11]
  000d2	84 d2		 test	 dl, dl
  000d4	0f 84 d5 00 00
	00		 je	 $LN85@LoadInt_e@2
  000da	80 f2 ea	 xor	 dl, -22			; ffffffeaH
  000dd	88 55 ef	 mov	 BYTE PTR __k$[ebp+11], dl
  000e0	8a 50 0c	 mov	 dl, BYTE PTR [eax+12]
  000e3	84 d2		 test	 dl, dl
  000e5	0f 84 be 00 00
	00		 je	 $LN84@LoadInt_e@2
  000eb	80 f2 ed	 xor	 dl, -19			; ffffffedH
  000ee	88 55 f0	 mov	 BYTE PTR __k$[ebp+12], dl
  000f1	8a 50 0d	 mov	 dl, BYTE PTR [eax+13]
  000f4	84 d2		 test	 dl, dl
  000f6	0f 84 a8 00 00
	00		 je	 $LN83@LoadInt_e@2
  000fc	32 d1		 xor	 dl, cl
  000fe	88 55 f1	 mov	 BYTE PTR __k$[ebp+13], dl
  00101	8a 50 0e	 mov	 dl, BYTE PTR [eax+14]
  00104	84 d2		 test	 dl, dl
  00106	0f 84 92 00 00
	00		 je	 $LN82@LoadInt_e@2
  0010c	80 f2 eb	 xor	 dl, -21			; ffffffebH
  0010f	88 55 f2	 mov	 BYTE PTR __k$[ebp+14], dl
  00112	8a 50 0f	 mov	 dl, BYTE PTR [eax+15]
  00115	84 d2		 test	 dl, dl
  00117	74 7f		 je	 SHORT $LN81@LoadInt_e@2
  00119	80 f2 ea	 xor	 dl, -22			; ffffffeaH
  0011c	88 55 f3	 mov	 BYTE PTR __k$[ebp+15], dl
  0011f	8a 50 10	 mov	 dl, BYTE PTR [eax+16]
  00122	84 d2		 test	 dl, dl
  00124	74 6c		 je	 SHORT $LN80@LoadInt_e@2
  00126	80 f2 ed	 xor	 dl, -19			; ffffffedH
  00129	88 55 f4	 mov	 BYTE PTR __k$[ebp+16], dl
  0012c	8a 50 11	 mov	 dl, BYTE PTR [eax+17]
  0012f	84 d2		 test	 dl, dl
  00131	74 5a		 je	 SHORT $LN79@LoadInt_e@2
  00133	32 d1		 xor	 dl, cl
  00135	80 78 12 00	 cmp	 BYTE PTR [eax+18], 0
  00139	88 55 f5	 mov	 BYTE PTR __k$[ebp+17], dl
  0013c	0f 84 b1 00 00
	00		 je	 $LN1@LoadInt_e@2
  00142	8a 50 13	 mov	 dl, BYTE PTR [eax+19]
  00145	84 d2		 test	 dl, dl
  00147	74 3e		 je	 SHORT $LN77@LoadInt_e@2
  00149	80 f2 ea	 xor	 dl, -22			; ffffffeaH
  0014c	88 55 f7	 mov	 BYTE PTR __k$[ebp+19], dl
  0014f	8a 50 14	 mov	 dl, BYTE PTR [eax+20]
  00152	84 d2		 test	 dl, dl
  00154	74 2b		 je	 SHORT $LN76@LoadInt_e@2
  00156	80 f2 ed	 xor	 dl, -19			; ffffffedH
  00159	88 55 f8	 mov	 BYTE PTR __k$[ebp+20], dl
  0015c	8a 50 15	 mov	 dl, BYTE PTR [eax+21]
  0015f	84 d2		 test	 dl, dl
  00161	74 19		 je	 SHORT $LN75@LoadInt_e@2
  00163	8a 40 16	 mov	 al, BYTE PTR [eax+22]
  00166	32 d1		 xor	 dl, cl
  00168	88 55 f9	 mov	 BYTE PTR __k$[ebp+21], dl
  0016b	84 c0		 test	 al, al
  0016d	74 07		 je	 SHORT $LN74@LoadInt_e@2
  0016f	34 eb		 xor	 al, -21			; ffffffebH
  00171	88 45 fa	 mov	 BYTE PTR __k$[ebp+22], al
  00174	eb 7d		 jmp	 SHORT $LN1@LoadInt_e@2
$LN74@LoadInt_e@2:
  00176	c6 45 fa eb	 mov	 BYTE PTR __k$[ebp+22], -21 ; ffffffebH
  0017a	eb 77		 jmp	 SHORT $LN1@LoadInt_e@2
$LN75@LoadInt_e@2:
  0017c	88 4d f9	 mov	 BYTE PTR __k$[ebp+21], cl
  0017f	eb 72		 jmp	 SHORT $LN1@LoadInt_e@2
$LN76@LoadInt_e@2:
  00181	c6 45 f8 ed	 mov	 BYTE PTR __k$[ebp+20], -19 ; ffffffedH
  00185	eb 6c		 jmp	 SHORT $LN1@LoadInt_e@2
$LN77@LoadInt_e@2:
  00187	c6 45 f7 ea	 mov	 BYTE PTR __k$[ebp+19], -22 ; ffffffeaH
  0018b	eb 66		 jmp	 SHORT $LN1@LoadInt_e@2
$LN79@LoadInt_e@2:
  0018d	88 4d f5	 mov	 BYTE PTR __k$[ebp+17], cl
  00190	eb 61		 jmp	 SHORT $LN1@LoadInt_e@2
$LN80@LoadInt_e@2:
  00192	c6 45 f4 ed	 mov	 BYTE PTR __k$[ebp+16], -19 ; ffffffedH
  00196	eb 5b		 jmp	 SHORT $LN1@LoadInt_e@2
$LN81@LoadInt_e@2:
  00198	c6 45 f3 ea	 mov	 BYTE PTR __k$[ebp+15], -22 ; ffffffeaH
  0019c	eb 55		 jmp	 SHORT $LN1@LoadInt_e@2
$LN82@LoadInt_e@2:
  0019e	c6 45 f2 eb	 mov	 BYTE PTR __k$[ebp+14], -21 ; ffffffebH
  001a2	eb 4f		 jmp	 SHORT $LN1@LoadInt_e@2
$LN83@LoadInt_e@2:
  001a4	88 4d f1	 mov	 BYTE PTR __k$[ebp+13], cl
  001a7	eb 4a		 jmp	 SHORT $LN1@LoadInt_e@2
$LN84@LoadInt_e@2:
  001a9	c6 45 f0 ed	 mov	 BYTE PTR __k$[ebp+12], -19 ; ffffffedH
  001ad	eb 44		 jmp	 SHORT $LN1@LoadInt_e@2
$LN85@LoadInt_e@2:
  001af	c6 45 ef ea	 mov	 BYTE PTR __k$[ebp+11], -22 ; ffffffeaH
  001b3	eb 3e		 jmp	 SHORT $LN1@LoadInt_e@2
$LN86@LoadInt_e@2:
  001b5	c6 45 ee eb	 mov	 BYTE PTR __k$[ebp+10], -21 ; ffffffebH
  001b9	eb 38		 jmp	 SHORT $LN1@LoadInt_e@2
$LN87@LoadInt_e@2:
  001bb	88 4d ed	 mov	 BYTE PTR __k$[ebp+9], cl
  001be	eb 33		 jmp	 SHORT $LN1@LoadInt_e@2
$LN88@LoadInt_e@2:
  001c0	c6 45 ec ed	 mov	 BYTE PTR __k$[ebp+8], -19 ; ffffffedH
  001c4	eb 2d		 jmp	 SHORT $LN1@LoadInt_e@2
$LN89@LoadInt_e@2:
  001c6	c6 45 eb ea	 mov	 BYTE PTR __k$[ebp+7], -22 ; ffffffeaH
  001ca	eb 27		 jmp	 SHORT $LN1@LoadInt_e@2
$LN90@LoadInt_e@2:
  001cc	c6 45 ea eb	 mov	 BYTE PTR __k$[ebp+6], -21 ; ffffffebH
  001d0	eb 21		 jmp	 SHORT $LN1@LoadInt_e@2
$LN91@LoadInt_e@2:
  001d2	88 4d e9	 mov	 BYTE PTR __k$[ebp+5], cl
  001d5	eb 1c		 jmp	 SHORT $LN1@LoadInt_e@2
$LN92@LoadInt_e@2:
  001d7	c6 45 e8 ed	 mov	 BYTE PTR __k$[ebp+4], -19 ; ffffffedH
  001db	eb 16		 jmp	 SHORT $LN1@LoadInt_e@2
$LN93@LoadInt_e@2:
  001dd	c6 45 e7 ea	 mov	 BYTE PTR __k$[ebp+3], -22 ; ffffffeaH
  001e1	eb 10		 jmp	 SHORT $LN1@LoadInt_e@2
$LN94@LoadInt_e@2:
  001e3	c6 45 e6 eb	 mov	 BYTE PTR __k$[ebp+2], -21 ; ffffffebH
  001e7	eb 0a		 jmp	 SHORT $LN1@LoadInt_e@2
$LN95@LoadInt_e@2:
  001e9	c6 45 e5 ec	 mov	 BYTE PTR __k$[ebp+1], -20 ; ffffffecH
  001ed	eb 04		 jmp	 SHORT $LN1@LoadInt_e@2
$LN96@LoadInt_e@2:
  001ef	c6 45 e4 ed	 mov	 BYTE PTR __k$[ebp], -19	; ffffffedH
$LN1@LoadInt_e@2:
  001f3	6a 04		 push	 4
  001f5	8d 45 e4	 lea	 eax, DWORD PTR __k$[ebp]
  001f8	c6 45 f6 00	 mov	 BYTE PTR __k$[ebp+18], 0
  001fc	5a		 pop	 edx
$LL104@LoadInt_e@2:
  001fd	81 30 ed ec eb
	ea		 xor	 DWORD PTR [eax], -353637139 ; eaebecedH
  00203	83 c0 04	 add	 eax, 4
  00206	4a		 dec	 edx
  00207	75 f4		 jne	 SHORT $LL104@LoadInt_e@2
  00209	6a 10		 push	 16			; 00000010H
  0020b	58		 pop	 eax
$LL101@LoadInt_e@2:
  0020c	8b c8		 mov	 ecx, eax
  0020e	81 e1 03 00 00
	80		 and	 ecx, -2147483645	; 80000003H
  00214	79 05		 jns	 SHORT $LN111@LoadInt_e@2
  00216	49		 dec	 ecx
  00217	83 c9 fc	 or	 ecx, -4			; fffffffcH
  0021a	41		 inc	 ecx
$LN111@LoadInt_e@2:
  0021b	b2 ed		 mov	 dl, -19			; ffffffedH
  0021d	2a d1		 sub	 dl, cl
  0021f	30 54 05 e4	 xor	 BYTE PTR __k$[ebp+eax], dl
  00223	40		 inc	 eax
  00224	83 f8 12	 cmp	 eax, 18			; 00000012H
  00227	7c e3		 jl	 SHORT $LL101@LoadInt_e@2

; 120  : 		return LoadInt(_k, i);

  00229	ff 75 0c	 push	 DWORD PTR _i$[ebp]
  0022c	8d 45 e4	 lea	 eax, DWORD PTR __k$[ebp]
  0022f	50		 push	 eax
  00230	8b ce		 mov	 ecx, esi
  00232	ff 15 00 00 00
	00		 call	 DWORD PTR __imp_?LoadInt@ioINILoader@@QAEHPBDH@Z

; 121  : 	}

  00238	8b 4d fc	 mov	 ecx, DWORD PTR __$ArrayPad$[ebp]
  0023b	33 cd		 xor	 ecx, ebp
  0023d	5e		 pop	 esi
  0023e	e8 00 00 00 00	 call	 @__security_check_cookie@4
  00243	c9		 leave
  00244	c2 08 00	 ret	 8
??$LoadInt_e@$0BD@@ioINILoader@@QAEHAAY0BD@$$CBDH@Z ENDP ; ioINILoader::LoadInt_e<19>
_TEXT	ENDS
PUBLIC	__$ArrayPad$
PUBLIC	??$LoadFloat_e@$0BE@@ioINILoader@@QAEMAAY0BE@$$CBDM@Z ; ioINILoader::LoadFloat_e<20>
; Function compile flags: /Ogsp
;	COMDAT ??$LoadFloat_e@$0BE@@ioINILoader@@QAEMAAY0BE@$$CBDM@Z
_TEXT	SEGMENT
__k$ = -28						; size = 20
__$ArrayPad$ = -4					; size = 4
_k$ = 8							; size = 4
_f$ = 12						; size = 4
??$LoadFloat_e@$0BE@@ioINILoader@@QAEMAAY0BE@$$CBDM@Z PROC ; ioINILoader::LoadFloat_e<20>, COMDAT
; _this$ = ecx

; 135  : 	{

  00000	55		 push	 ebp
  00001	8b ec		 mov	 ebp, esp
  00003	83 ec 1c	 sub	 esp, 28			; 0000001cH
  00006	a1 00 00 00 00	 mov	 eax, DWORD PTR ___security_cookie
  0000b	33 c5		 xor	 eax, ebp
  0000d	89 45 fc	 mov	 DWORD PTR __$ArrayPad$[ebp], eax
  00010	8b 45 08	 mov	 eax, DWORD PTR _k$[ebp]

; 136  : 		_ENCSTR(k, _k);

  00013	8a 10		 mov	 dl, BYTE PTR [eax]
  00015	53		 push	 ebx
  00016	56		 push	 esi
  00017	8b f1		 mov	 esi, ecx
  00019	84 d2		 test	 dl, dl
  0001b	0f 84 dd 01 00
	00		 je	 $LN96@LoadFloat_@2
  00021	80 f2 ed	 xor	 dl, -19			; ffffffedH
  00024	88 55 e4	 mov	 BYTE PTR __k$[ebp], dl
  00027	8a 50 01	 mov	 dl, BYTE PTR [eax+1]
  0002a	84 d2		 test	 dl, dl
  0002c	0f 84 c6 01 00
	00		 je	 $LN95@LoadFloat_@2
  00032	b3 ec		 mov	 bl, -20			; ffffffecH
  00034	32 d3		 xor	 dl, bl
  00036	88 55 e5	 mov	 BYTE PTR __k$[ebp+1], dl
  00039	8a 50 02	 mov	 dl, BYTE PTR [eax+2]
  0003c	84 d2		 test	 dl, dl
  0003e	0f 84 ae 01 00
	00		 je	 $LN94@LoadFloat_@2
  00044	b1 eb		 mov	 cl, -21			; ffffffebH
  00046	32 d1		 xor	 dl, cl
  00048	88 55 e6	 mov	 BYTE PTR __k$[ebp+2], dl
  0004b	8a 50 03	 mov	 dl, BYTE PTR [eax+3]
  0004e	84 d2		 test	 dl, dl
  00050	0f 84 96 01 00
	00		 je	 $LN93@LoadFloat_@2
  00056	80 f2 ea	 xor	 dl, -22			; ffffffeaH
  00059	88 55 e7	 mov	 BYTE PTR __k$[ebp+3], dl
  0005c	8a 50 04	 mov	 dl, BYTE PTR [eax+4]
  0005f	84 d2		 test	 dl, dl
  00061	0f 84 7f 01 00
	00		 je	 $LN92@LoadFloat_@2
  00067	80 f2 ed	 xor	 dl, -19			; ffffffedH
  0006a	88 55 e8	 mov	 BYTE PTR __k$[ebp+4], dl
  0006d	8a 50 05	 mov	 dl, BYTE PTR [eax+5]
  00070	84 d2		 test	 dl, dl
  00072	0f 84 69 01 00
	00		 je	 $LN91@LoadFloat_@2
  00078	32 d3		 xor	 dl, bl
  0007a	88 55 e9	 mov	 BYTE PTR __k$[ebp+5], dl
  0007d	8a 50 06	 mov	 dl, BYTE PTR [eax+6]
  00080	84 d2		 test	 dl, dl
  00082	0f 84 54 01 00
	00		 je	 $LN90@LoadFloat_@2
  00088	32 d1		 xor	 dl, cl
  0008a	88 55 ea	 mov	 BYTE PTR __k$[ebp+6], dl
  0008d	8a 50 07	 mov	 dl, BYTE PTR [eax+7]
  00090	84 d2		 test	 dl, dl
  00092	0f 84 3e 01 00
	00		 je	 $LN89@LoadFloat_@2
  00098	80 f2 ea	 xor	 dl, -22			; ffffffeaH
  0009b	88 55 eb	 mov	 BYTE PTR __k$[ebp+7], dl
  0009e	8a 50 08	 mov	 dl, BYTE PTR [eax+8]
  000a1	84 d2		 test	 dl, dl
  000a3	0f 84 27 01 00
	00		 je	 $LN88@LoadFloat_@2
  000a9	80 f2 ed	 xor	 dl, -19			; ffffffedH
  000ac	88 55 ec	 mov	 BYTE PTR __k$[ebp+8], dl
  000af	8a 50 09	 mov	 dl, BYTE PTR [eax+9]
  000b2	84 d2		 test	 dl, dl
  000b4	0f 84 11 01 00
	00		 je	 $LN87@LoadFloat_@2
  000ba	32 d3		 xor	 dl, bl
  000bc	88 55 ed	 mov	 BYTE PTR __k$[ebp+9], dl
  000bf	8a 50 0a	 mov	 dl, BYTE PTR [eax+10]
  000c2	84 d2		 test	 dl, dl
  000c4	0f 84 fc 00 00
	00		 je	 $LN86@LoadFloat_@2
  000ca	32 d1		 xor	 dl, cl
  000cc	88 55 ee	 mov	 BYTE PTR __k$[ebp+10], dl
  000cf	8a 50 0b	 mov	 dl, BYTE PTR [eax+11]
  000d2	84 d2		 test	 dl, dl
  000d4	0f 84 e6 00 00
	00		 je	 $LN85@LoadFloat_@2
  000da	80 f2 ea	 xor	 dl, -22			; ffffffeaH
  000dd	88 55 ef	 mov	 BYTE PTR __k$[ebp+11], dl
  000e0	8a 50 0c	 mov	 dl, BYTE PTR [eax+12]
  000e3	84 d2		 test	 dl, dl
  000e5	0f 84 cf 00 00
	00		 je	 $LN84@LoadFloat_@2
  000eb	80 f2 ed	 xor	 dl, -19			; ffffffedH
  000ee	88 55 f0	 mov	 BYTE PTR __k$[ebp+12], dl
  000f1	8a 50 0d	 mov	 dl, BYTE PTR [eax+13]
  000f4	84 d2		 test	 dl, dl
  000f6	0f 84 b9 00 00
	00		 je	 $LN83@LoadFloat_@2
  000fc	32 d3		 xor	 dl, bl
  000fe	88 55 f1	 mov	 BYTE PTR __k$[ebp+13], dl
  00101	8a 50 0e	 mov	 dl, BYTE PTR [eax+14]
  00104	84 d2		 test	 dl, dl
  00106	0f 84 a4 00 00
	00		 je	 $LN82@LoadFloat_@2
  0010c	32 d1		 xor	 dl, cl
  0010e	88 55 f2	 mov	 BYTE PTR __k$[ebp+14], dl
  00111	8a 50 0f	 mov	 dl, BYTE PTR [eax+15]
  00114	84 d2		 test	 dl, dl
  00116	0f 84 8e 00 00
	00		 je	 $LN81@LoadFloat_@2
  0011c	80 f2 ea	 xor	 dl, -22			; ffffffeaH
  0011f	88 55 f3	 mov	 BYTE PTR __k$[ebp+15], dl
  00122	8a 50 10	 mov	 dl, BYTE PTR [eax+16]
  00125	84 d2		 test	 dl, dl
  00127	74 7b		 je	 SHORT $LN80@LoadFloat_@2
  00129	80 f2 ed	 xor	 dl, -19			; ffffffedH
  0012c	88 55 f4	 mov	 BYTE PTR __k$[ebp+16], dl
  0012f	8a 50 11	 mov	 dl, BYTE PTR [eax+17]
  00132	84 d2		 test	 dl, dl
  00134	74 69		 je	 SHORT $LN79@LoadFloat_@2
  00136	32 d3		 xor	 dl, bl
  00138	88 55 f5	 mov	 BYTE PTR __k$[ebp+17], dl
  0013b	8a 50 12	 mov	 dl, BYTE PTR [eax+18]
  0013e	84 d2		 test	 dl, dl
  00140	74 58		 je	 SHORT $LN78@LoadFloat_@2
  00142	32 d1		 xor	 dl, cl
  00144	80 78 13 00	 cmp	 BYTE PTR [eax+19], 0
  00148	88 55 f6	 mov	 BYTE PTR __k$[ebp+18], dl
  0014b	0f 84 b1 00 00
	00		 je	 $LN1@LoadFloat_@2
  00151	8a 50 14	 mov	 dl, BYTE PTR [eax+20]
  00154	84 d2		 test	 dl, dl
  00156	74 3c		 je	 SHORT $LN76@LoadFloat_@2
  00158	80 f2 ed	 xor	 dl, -19			; ffffffedH
  0015b	88 55 f8	 mov	 BYTE PTR __k$[ebp+20], dl
  0015e	8a 50 15	 mov	 dl, BYTE PTR [eax+21]
  00161	84 d2		 test	 dl, dl
  00163	74 2a		 je	 SHORT $LN75@LoadFloat_@2
  00165	32 d3		 xor	 dl, bl
  00167	88 55 f9	 mov	 BYTE PTR __k$[ebp+21], dl
  0016a	8a 50 16	 mov	 dl, BYTE PTR [eax+22]
  0016d	84 d2		 test	 dl, dl
  0016f	74 19		 je	 SHORT $LN74@LoadFloat_@2
  00171	8a 40 17	 mov	 al, BYTE PTR [eax+23]
  00174	32 d1		 xor	 dl, cl
  00176	88 55 fa	 mov	 BYTE PTR __k$[ebp+22], dl
  00179	84 c0		 test	 al, al
  0017b	74 07		 je	 SHORT $LN73@LoadFloat_@2
  0017d	34 ea		 xor	 al, -22			; ffffffeaH
  0017f	88 45 fb	 mov	 BYTE PTR __k$[ebp+23], al
  00182	eb 7e		 jmp	 SHORT $LN1@LoadFloat_@2
$LN73@LoadFloat_@2:
  00184	c6 45 fb ea	 mov	 BYTE PTR __k$[ebp+23], -22 ; ffffffeaH
  00188	eb 78		 jmp	 SHORT $LN1@LoadFloat_@2
$LN74@LoadFloat_@2:
  0018a	88 4d fa	 mov	 BYTE PTR __k$[ebp+22], cl
  0018d	eb 73		 jmp	 SHORT $LN1@LoadFloat_@2
$LN75@LoadFloat_@2:
  0018f	88 5d f9	 mov	 BYTE PTR __k$[ebp+21], bl
  00192	eb 6e		 jmp	 SHORT $LN1@LoadFloat_@2
$LN76@LoadFloat_@2:
  00194	c6 45 f8 ed	 mov	 BYTE PTR __k$[ebp+20], -19 ; ffffffedH
  00198	eb 68		 jmp	 SHORT $LN1@LoadFloat_@2
$LN78@LoadFloat_@2:
  0019a	88 4d f6	 mov	 BYTE PTR __k$[ebp+18], cl
  0019d	eb 63		 jmp	 SHORT $LN1@LoadFloat_@2
$LN79@LoadFloat_@2:
  0019f	88 5d f5	 mov	 BYTE PTR __k$[ebp+17], bl
  001a2	eb 5e		 jmp	 SHORT $LN1@LoadFloat_@2
$LN80@LoadFloat_@2:
  001a4	c6 45 f4 ed	 mov	 BYTE PTR __k$[ebp+16], -19 ; ffffffedH
  001a8	eb 58		 jmp	 SHORT $LN1@LoadFloat_@2
$LN81@LoadFloat_@2:
  001aa	c6 45 f3 ea	 mov	 BYTE PTR __k$[ebp+15], -22 ; ffffffeaH
  001ae	eb 52		 jmp	 SHORT $LN1@LoadFloat_@2
$LN82@LoadFloat_@2:
  001b0	88 4d f2	 mov	 BYTE PTR __k$[ebp+14], cl
  001b3	eb 4d		 jmp	 SHORT $LN1@LoadFloat_@2
$LN83@LoadFloat_@2:
  001b5	88 5d f1	 mov	 BYTE PTR __k$[ebp+13], bl
  001b8	eb 48		 jmp	 SHORT $LN1@LoadFloat_@2
$LN84@LoadFloat_@2:
  001ba	c6 45 f0 ed	 mov	 BYTE PTR __k$[ebp+12], -19 ; ffffffedH
  001be	eb 42		 jmp	 SHORT $LN1@LoadFloat_@2
$LN85@LoadFloat_@2:
  001c0	c6 45 ef ea	 mov	 BYTE PTR __k$[ebp+11], -22 ; ffffffeaH
  001c4	eb 3c		 jmp	 SHORT $LN1@LoadFloat_@2
$LN86@LoadFloat_@2:
  001c6	88 4d ee	 mov	 BYTE PTR __k$[ebp+10], cl
  001c9	eb 37		 jmp	 SHORT $LN1@LoadFloat_@2
$LN87@LoadFloat_@2:
  001cb	88 5d ed	 mov	 BYTE PTR __k$[ebp+9], bl
  001ce	eb 32		 jmp	 SHORT $LN1@LoadFloat_@2
$LN88@LoadFloat_@2:
  001d0	c6 45 ec ed	 mov	 BYTE PTR __k$[ebp+8], -19 ; ffffffedH
  001d4	eb 2c		 jmp	 SHORT $LN1@LoadFloat_@2
$LN89@LoadFloat_@2:
  001d6	c6 45 eb ea	 mov	 BYTE PTR __k$[ebp+7], -22 ; ffffffeaH
  001da	eb 26		 jmp	 SHORT $LN1@LoadFloat_@2
$LN90@LoadFloat_@2:
  001dc	88 4d ea	 mov	 BYTE PTR __k$[ebp+6], cl
  001df	eb 21		 jmp	 SHORT $LN1@LoadFloat_@2
$LN91@LoadFloat_@2:
  001e1	88 5d e9	 mov	 BYTE PTR __k$[ebp+5], bl
  001e4	eb 1c		 jmp	 SHORT $LN1@LoadFloat_@2
$LN92@LoadFloat_@2:
  001e6	c6 45 e8 ed	 mov	 BYTE PTR __k$[ebp+4], -19 ; ffffffedH
  001ea	eb 16		 jmp	 SHORT $LN1@LoadFloat_@2
$LN93@LoadFloat_@2:
  001ec	c6 45 e7 ea	 mov	 BYTE PTR __k$[ebp+3], -22 ; ffffffeaH
  001f0	eb 10		 jmp	 SHORT $LN1@LoadFloat_@2
$LN94@LoadFloat_@2:
  001f2	c6 45 e6 eb	 mov	 BYTE PTR __k$[ebp+2], -21 ; ffffffebH
  001f6	eb 0a		 jmp	 SHORT $LN1@LoadFloat_@2
$LN95@LoadFloat_@2:
  001f8	c6 45 e5 ec	 mov	 BYTE PTR __k$[ebp+1], -20 ; ffffffecH
  001fc	eb 04		 jmp	 SHORT $LN1@LoadFloat_@2
$LN96@LoadFloat_@2:
  001fe	c6 45 e4 ed	 mov	 BYTE PTR __k$[ebp], -19	; ffffffedH
$LN1@LoadFloat_@2:
  00202	6a 04		 push	 4
  00204	8d 45 e4	 lea	 eax, DWORD PTR __k$[ebp]
  00207	c6 45 f7 00	 mov	 BYTE PTR __k$[ebp+19], 0
  0020b	5a		 pop	 edx
$LL104@LoadFloat_@2:
  0020c	81 30 ed ec eb
	ea		 xor	 DWORD PTR [eax], -353637139 ; eaebecedH
  00212	83 c0 04	 add	 eax, 4
  00215	4a		 dec	 edx
  00216	75 f4		 jne	 SHORT $LL104@LoadFloat_@2
  00218	6a 10		 push	 16			; 00000010H
  0021a	58		 pop	 eax
$LL101@LoadFloat_@2:
  0021b	8b c8		 mov	 ecx, eax
  0021d	81 e1 03 00 00
	80		 and	 ecx, -2147483645	; 80000003H
  00223	79 05		 jns	 SHORT $LN111@LoadFloat_@2
  00225	49		 dec	 ecx
  00226	83 c9 fc	 or	 ecx, -4			; fffffffcH
  00229	41		 inc	 ecx
$LN111@LoadFloat_@2:
  0022a	b2 ed		 mov	 dl, -19			; ffffffedH
  0022c	2a d1		 sub	 dl, cl
  0022e	30 54 05 e4	 xor	 BYTE PTR __k$[ebp+eax], dl
  00232	40		 inc	 eax
  00233	83 f8 13	 cmp	 eax, 19			; 00000013H
  00236	7c e3		 jl	 SHORT $LL101@LoadFloat_@2

; 137  : 		return LoadFloat(_k, f);

  00238	f3 0f 10 45 0c	 movss	 xmm0, DWORD PTR _f$[ebp]
  0023d	51		 push	 ecx
  0023e	8d 45 e4	 lea	 eax, DWORD PTR __k$[ebp]
  00241	f3 0f 11 04 24	 movss	 DWORD PTR [esp], xmm0
  00246	50		 push	 eax
  00247	8b ce		 mov	 ecx, esi
  00249	ff 15 00 00 00
	00		 call	 DWORD PTR __imp_?LoadFloat@ioINILoader@@QAEMPBDM@Z

; 138  : 	}

  0024f	8b 4d fc	 mov	 ecx, DWORD PTR __$ArrayPad$[ebp]
  00252	5e		 pop	 esi
  00253	33 cd		 xor	 ecx, ebp
  00255	5b		 pop	 ebx
  00256	e8 00 00 00 00	 call	 @__security_check_cookie@4
  0025b	c9		 leave
  0025c	c2 08 00	 ret	 8
??$LoadFloat_e@$0BE@@ioINILoader@@QAEMAAY0BE@$$CBDM@Z ENDP ; ioINILoader::LoadFloat_e<20>
_TEXT	ENDS
PUBLIC	??$_Cons_val@V?$allocator@UDummyTargetAttachInfo@ioTargetTrace7Dummy@@@std@@UDummyTargetAttachInfo@ioTargetTrace7Dummy@@AAU34@@std@@YAXAAV?$allocator@UDummyTargetAttachInfo@ioTargetTrace7Dummy@@@0@PAUDummyTargetAttachInfo@ioTargetTrace7Dummy@@AAU23@@Z ; std::_Cons_val<std::allocator<ioTargetTrace7Dummy::DummyTargetAttachInfo>,ioTargetTrace7Dummy::DummyTargetAttachInfo,ioTargetTrace7Dummy::DummyTargetAttachInfo &>
; Function compile flags: /Ogsp
; File c:\program files (x86)\microsoft visual studio 10.0\vc\include\xmemory
;	COMDAT ??$_Cons_val@V?$allocator@UDummyTargetAttachInfo@ioTargetTrace7Dummy@@@std@@UDummyTargetAttachInfo@ioTargetTrace7Dummy@@AAU34@@std@@YAXAAV?$allocator@UDummyTargetAttachInfo@ioTargetTrace7Dummy@@@0@PAUDummyTargetAttachInfo@ioTargetTrace7Dummy@@AAU23@@Z
_TEXT	SEGMENT
__Alval$ = 8						; size = 4
__Pdest$ = 12						; size = 4
__Src$ = 16						; size = 4
??$_Cons_val@V?$allocator@UDummyTargetAttachInfo@ioTargetTrace7Dummy@@@std@@UDummyTargetAttachInfo@ioTargetTrace7Dummy@@AAU34@@std@@YAXAAV?$allocator@UDummyTargetAttachInfo@ioTargetTrace7Dummy@@@0@PAUDummyTargetAttachInfo@ioTargetTrace7Dummy@@AAU23@@Z PROC ; std::_Cons_val<std::allocator<ioTargetTrace7Dummy::DummyTargetAttachInfo>,ioTargetTrace7Dummy::DummyTargetAttachInfo,ioTargetTrace7Dummy::DummyTargetAttachInfo &>, COMDAT

; 279  : 	{	// construct using allocator

  00000	55		 push	 ebp
  00001	8b ec		 mov	 ebp, esp
  00003	57		 push	 edi

; 280  : 	_Alval.construct(_Pdest, _STD forward<_Ty2>(_Src));

  00004	8b 7d 0c	 mov	 edi, DWORD PTR __Pdest$[ebp]
  00007	85 ff		 test	 edi, edi
  00009	74 08		 je	 SHORT $LN7@Cons_val
  0000b	56		 push	 esi
  0000c	8b 75 10	 mov	 esi, DWORD PTR __Src$[ebp]
  0000f	a5		 movsd
  00010	a5		 movsd
  00011	a5		 movsd
  00012	5e		 pop	 esi
$LN7@Cons_val:
  00013	5f		 pop	 edi

; 281  : 	}

  00014	5d		 pop	 ebp
  00015	c3		 ret	 0
??$_Cons_val@V?$allocator@UDummyTargetAttachInfo@ioTargetTrace7Dummy@@@std@@UDummyTargetAttachInfo@ioTargetTrace7Dummy@@AAU34@@std@@YAXAAV?$allocator@UDummyTargetAttachInfo@ioTargetTrace7Dummy@@@0@PAUDummyTargetAttachInfo@ioTargetTrace7Dummy@@AAU23@@Z ENDP ; std::_Cons_val<std::allocator<ioTargetTrace7Dummy::DummyTargetAttachInfo>,ioTargetTrace7Dummy::DummyTargetAttachInfo,ioTargetTrace7Dummy::DummyTargetAttachInfo &>
_TEXT	ENDS
PUBLIC	?construct@?$allocator@UDummyTargetAttachInfo@ioTargetTrace7Dummy@@@std@@QAEXPAUDummyTargetAttachInfo@ioTargetTrace7Dummy@@ABU34@@Z ; std::allocator<ioTargetTrace7Dummy::DummyTargetAttachInfo>::construct
; Function compile flags: /Ogsp
;	COMDAT ?construct@?$allocator@UDummyTargetAttachInfo@ioTargetTrace7Dummy@@@std@@QAEXPAUDummyTargetAttachInfo@ioTargetTrace7Dummy@@ABU34@@Z
_TEXT	SEGMENT
__Ptr$ = 8						; size = 4
__Val$ = 12						; size = 4
?construct@?$allocator@UDummyTargetAttachInfo@ioTargetTrace7Dummy@@@std@@QAEXPAUDummyTargetAttachInfo@ioTargetTrace7Dummy@@ABU34@@Z PROC ; std::allocator<ioTargetTrace7Dummy::DummyTargetAttachInfo>::construct, COMDAT
; _this$ = ecx

; 196  : 		{	// construct object at _Ptr with value _Val

  00000	55		 push	 ebp
  00001	8b ec		 mov	 ebp, esp
  00003	57		 push	 edi

; 197  : 		_Construct(_Ptr, _Val);

  00004	8b 7d 08	 mov	 edi, DWORD PTR __Ptr$[ebp]
  00007	85 ff		 test	 edi, edi
  00009	74 08		 je	 SHORT $LN5@construct@2
  0000b	56		 push	 esi
  0000c	8b 75 0c	 mov	 esi, DWORD PTR __Val$[ebp]
  0000f	a5		 movsd
  00010	a5		 movsd
  00011	a5		 movsd
  00012	5e		 pop	 esi
$LN5@construct@2:
  00013	5f		 pop	 edi

; 198  : 		}

  00014	5d		 pop	 ebp
  00015	c2 08 00	 ret	 8
?construct@?$allocator@UDummyTargetAttachInfo@ioTargetTrace7Dummy@@@std@@QAEXPAUDummyTargetAttachInfo@ioTargetTrace7Dummy@@ABU34@@Z ENDP ; std::allocator<ioTargetTrace7Dummy::DummyTargetAttachInfo>::construct
_TEXT	ENDS
PUBLIC	??_G_Node@?$_List_nod@UFireTime@@V?$allocator@UFireTime@@@std@@@std@@QAEPAXI@Z ; std::_List_nod<FireTime,std::allocator<FireTime> >::_Node::`scalar deleting destructor'
; Function compile flags: /Ogsp
;	COMDAT ??_G_Node@?$_List_nod@UFireTime@@V?$allocator@UFireTime@@@std@@@std@@QAEPAXI@Z
_TEXT	SEGMENT
___flags$ = 8						; size = 4
??_G_Node@?$_List_nod@UFireTime@@V?$allocator@UFireTime@@@std@@@std@@QAEPAXI@Z PROC ; std::_List_nod<FireTime,std::allocator<FireTime> >::_Node::`scalar deleting destructor', COMDAT
; _this$ = ecx
  00000	55		 push	 ebp
  00001	8b ec		 mov	 ebp, esp
  00003	56		 push	 esi
  00004	8b f1		 mov	 esi, ecx
  00006	8d 4e 08	 lea	 ecx, DWORD PTR [esi+8]
  00009	e8 00 00 00 00	 call	 ??1FireTime@@QAE@XZ
  0000e	f6 45 08 01	 test	 BYTE PTR ___flags$[ebp], 1
  00012	74 07		 je	 SHORT $LN1@scalar@2
  00014	56		 push	 esi
  00015	e8 00 00 00 00	 call	 ??3@YAXPAX@Z		; operator delete
  0001a	59		 pop	 ecx
$LN1@scalar@2:
  0001b	8b c6		 mov	 eax, esi
  0001d	5e		 pop	 esi
  0001e	5d		 pop	 ebp
  0001f	c2 04 00	 ret	 4
??_G_Node@?$_List_nod@UFireTime@@V?$allocator@UFireTime@@@std@@@std@@QAEPAXI@Z ENDP ; std::_List_nod<FireTime,std::allocator<FireTime> >::_Node::`scalar deleting destructor'
_TEXT	ENDS
PUBLIC	?destroy@?$allocator@UDummyTargetAttachInfo@ioTargetTrace7Dummy@@@std@@QAEXPAUDummyTargetAttachInfo@ioTargetTrace7Dummy@@@Z ; std::allocator<ioTargetTrace7Dummy::DummyTargetAttachInfo>::destroy
; Function compile flags: /Ogsp
;	COMDAT ?destroy@?$allocator@UDummyTargetAttachInfo@ioTargetTrace7Dummy@@@std@@QAEXPAUDummyTargetAttachInfo@ioTargetTrace7Dummy@@@Z
_TEXT	SEGMENT
__Ptr$ = 8						; size = 4
?destroy@?$allocator@UDummyTargetAttachInfo@ioTargetTrace7Dummy@@@std@@QAEXPAUDummyTargetAttachInfo@ioTargetTrace7Dummy@@@Z PROC ; std::allocator<ioTargetTrace7Dummy::DummyTargetAttachInfo>::destroy, COMDAT
; _this$ = ecx

; 213  : 		_Destroy(_Ptr);
; 214  : 		}

  00000	c2 04 00	 ret	 4
?destroy@?$allocator@UDummyTargetAttachInfo@ioTargetTrace7Dummy@@@std@@QAEXPAUDummyTargetAttachInfo@ioTargetTrace7Dummy@@@Z ENDP ; std::allocator<ioTargetTrace7Dummy::DummyTargetAttachInfo>::destroy
_TEXT	ENDS
PUBLIC	?construct@?$allocator@UDummyTargetAttachInfo@ioTargetTrace7Dummy@@@std@@QAEXPAUDummyTargetAttachInfo@ioTargetTrace7Dummy@@$$QAU34@@Z ; std::allocator<ioTargetTrace7Dummy::DummyTargetAttachInfo>::construct
; Function compile flags: /Ogsp
;	COMDAT ?construct@?$allocator@UDummyTargetAttachInfo@ioTargetTrace7Dummy@@@std@@QAEXPAUDummyTargetAttachInfo@ioTargetTrace7Dummy@@$$QAU34@@Z
_TEXT	SEGMENT
__Ptr$ = 8						; size = 4
__Val$ = 12						; size = 4
?construct@?$allocator@UDummyTargetAttachInfo@ioTargetTrace7Dummy@@@std@@QAEXPAUDummyTargetAttachInfo@ioTargetTrace7Dummy@@$$QAU34@@Z PROC ; std::allocator<ioTargetTrace7Dummy::DummyTargetAttachInfo>::construct, COMDAT
; _this$ = ecx

; 201  : 		{	// construct object at _Ptr with value _Val

  00000	55		 push	 ebp
  00001	8b ec		 mov	 ebp, esp
  00003	57		 push	 edi

; 202  : 		::new ((void _FARQ *)_Ptr) _Ty(_STD forward<_Ty>(_Val));

  00004	8b 7d 08	 mov	 edi, DWORD PTR __Ptr$[ebp]
  00007	85 ff		 test	 edi, edi
  00009	74 08		 je	 SHORT $LN3@construct@3
  0000b	56		 push	 esi
  0000c	8b 75 0c	 mov	 esi, DWORD PTR __Val$[ebp]
  0000f	a5		 movsd
  00010	a5		 movsd
  00011	a5		 movsd
  00012	5e		 pop	 esi
$LN3@construct@3:
  00013	5f		 pop	 edi

; 203  : 		}

  00014	5d		 pop	 ebp
  00015	c2 08 00	 ret	 8
?construct@?$allocator@UDummyTargetAttachInfo@ioTargetTrace7Dummy@@@std@@QAEXPAUDummyTargetAttachInfo@ioTargetTrace7Dummy@@$$QAU34@@Z ENDP ; std::allocator<ioTargetTrace7Dummy::DummyTargetAttachInfo>::construct
_TEXT	ENDS
PUBLIC	??B?$CEncrypt@K@@QAEKXZ				; CEncrypt<unsigned long>::operator unsigned long
; Function compile flags: /Ogsp
; File d:\lost saga for developer\youtube\tutorial\source\src\lsclient\encryptvalue.h
;	COMDAT ??B?$CEncrypt@K@@QAEKXZ
_TEXT	SEGMENT
_value$ = -4						; size = 4
??B?$CEncrypt@K@@QAEKXZ PROC				; CEncrypt<unsigned long>::operator unsigned long, COMDAT
; _this$ = ecx

; 134  : 	{

  00000	55		 push	 ebp
  00001	8b ec		 mov	 ebp, esp
  00003	51		 push	 ecx

; 135  : 		type value;
; 136  : 		DecryptValueToPool(&value);

  00004	8d 45 fc	 lea	 eax, DWORD PTR _value$[ebp]
  00007	50		 push	 eax
  00008	e8 00 00 00 00	 call	 ?DecryptValueToPool@?$CEncrypt@K@@QAEXPAK@Z ; CEncrypt<unsigned long>::DecryptValueToPool

; 137  : 
; 138  : #ifdef _NOTUSE
; 139  : 		Debug();
; 140  : #endif
; 141  : 		return value;

  0000d	8b 45 fc	 mov	 eax, DWORD PTR _value$[ebp]

; 142  : 	}

  00010	c9		 leave
  00011	c3		 ret	 0
??B?$CEncrypt@K@@QAEKXZ ENDP				; CEncrypt<unsigned long>::operator unsigned long
_TEXT	ENDS
PUBLIC	?ProcessDelayState@ioTargetTrace7Dummy@@MAEXM@Z	; ioTargetTrace7Dummy::ProcessDelayState
EXTRN	?SetTraceState@ioDummyChar@@QAEXW4DummyCharTraceState@1@@Z:PROC ; ioDummyChar::SetTraceState
; Function compile flags: /Ogsp
; File d:\lost saga for developer\youtube\tutorial\source\src\lsclient\iotargettrace7dummy.cpp
;	COMDAT ?ProcessDelayState@ioTargetTrace7Dummy@@MAEXM@Z
_TEXT	SEGMENT
_value$534263 = -4					; size = 4
_fTimePerSec$ = 8					; size = 4
?ProcessDelayState@ioTargetTrace7Dummy@@MAEXM@Z PROC	; ioTargetTrace7Dummy::ProcessDelayState, COMDAT
; _this$ = ecx

; 89   : {

  00000	55		 push	 ebp
  00001	8b ec		 mov	 ebp, esp
  00003	51		 push	 ecx
  00004	56		 push	 esi
  00005	57		 push	 edi
  00006	8b f1		 mov	 esi, ecx

; 90   : 	DWORD dwCurTime = FRAMEGETTIME();

  00008	ff 15 00 00 00
	00		 call	 DWORD PTR __imp_?GetSingleton@ioFrameTimer@@SAAAV1@XZ
  0000e	8b c8		 mov	 ecx, eax
  00010	ff 15 00 00 00
	00		 call	 DWORD PTR __imp_?GetLoopSec@ioFrameTimer@@QBEKXZ

; 91   : 
; 92   : 	if( m_dwDelayStartTime > 0 && m_dwDelayStartTime + m_dwDelayDuration < dwCurTime )

  00016	83 be 20 02 00
	00 00		 cmp	 DWORD PTR [esi+544], 0
  0001d	8b f8		 mov	 edi, eax
  0001f	76 2c		 jbe	 SHORT $LN1@ProcessDel
  00021	8d 45 fc	 lea	 eax, DWORD PTR _value$534263[ebp]
  00024	50		 push	 eax
  00025	8d 8e 3c 07 00
	00		 lea	 ecx, DWORD PTR [esi+1852]
  0002b	e8 00 00 00 00	 call	 ?DecryptValueToPool@?$CEncrypt@K@@QAEXPAK@Z ; CEncrypt<unsigned long>::DecryptValueToPool
  00030	8b 86 20 02 00
	00		 mov	 eax, DWORD PTR [esi+544]
  00036	03 45 fc	 add	 eax, DWORD PTR _value$534263[ebp]
  00039	3b c7		 cmp	 eax, edi
  0003b	73 10		 jae	 SHORT $LN1@ProcessDel

; 93   : 	{
; 94   : 		m_dwDelayStartTime = 0;

  0003d	83 a6 20 02 00
	00 00		 and	 DWORD PTR [esi+544], 0

; 95   : 		SetTraceState( DCTS_SENSING );

  00044	6a 02		 push	 2
  00046	8b ce		 mov	 ecx, esi
  00048	e8 00 00 00 00	 call	 ?SetTraceState@ioDummyChar@@QAEXW4DummyCharTraceState@1@@Z ; ioDummyChar::SetTraceState
$LN1@ProcessDel:
  0004d	5f		 pop	 edi
  0004e	5e		 pop	 esi

; 96   : 	}
; 97   : }

  0004f	c9		 leave
  00050	c2 04 00	 ret	 4
?ProcessDelayState@ioTargetTrace7Dummy@@MAEXM@Z ENDP	; ioTargetTrace7Dummy::ProcessDelayState
_TEXT	ENDS
PUBLIC	?SetDieState@ioTargetTrace7Dummy@@UAEX_N@Z	; ioTargetTrace7Dummy::SetDieState
EXTRN	?SetDieState@ioDummyChar@@UAEX_N0@Z:PROC	; ioDummyChar::SetDieState
; Function compile flags: /Ogsp
;	COMDAT ?SetDieState@ioTargetTrace7Dummy@@UAEX_N@Z
_TEXT	SEGMENT
_bEffect$ = 8						; size = 1
?SetDieState@ioTargetTrace7Dummy@@UAEX_N@Z PROC		; ioTargetTrace7Dummy::SetDieState, COMDAT
; _this$ = ecx

; 183  : {

  00000	55		 push	 ebp
  00001	8b ec		 mov	 ebp, esp
  00003	56		 push	 esi

; 184  : 	ioDummyChar::SetDieState( bEffect );

  00004	6a 00		 push	 0
  00006	ff 75 08	 push	 DWORD PTR _bEffect$[ebp]
  00009	8b f1		 mov	 esi, ecx
  0000b	e8 00 00 00 00	 call	 ?SetDieState@ioDummyChar@@UAEX_N0@Z ; ioDummyChar::SetDieState

; 185  : 	FireWeapon();

  00010	8b ce		 mov	 ecx, esi
  00012	e8 00 00 00 00	 call	 ?FireWeapon@ioTargetTrace7Dummy@@IAEXXZ ; ioTargetTrace7Dummy::FireWeapon
  00017	5e		 pop	 esi

; 186  : }

  00018	5d		 pop	 ebp
  00019	c2 04 00	 ret	 4
?SetDieState@ioTargetTrace7Dummy@@UAEX_N@Z ENDP		; ioTargetTrace7Dummy::SetDieState
_TEXT	ENDS
PUBLIC	__$ArrayPad$
PUBLIC	?ProcessTargetAttachState@ioTargetTrace7Dummy@@IAEXMK@Z ; ioTargetTrace7Dummy::ProcessTargetAttachState
EXTRN	?GetBaseChar@ioPlayStage@@QAEPAVioBaseChar@@ABVioHashString@@@Z:PROC ; ioPlayStage::GetBaseChar
; Function compile flags: /Ogsp
;	COMDAT ?ProcessTargetAttachState@ioTargetTrace7Dummy@@IAEXMK@Z
_TEXT	SEGMENT
_pTarget$ = -20						; size = 4
_vPos$531657 = -16					; size = 12
__$ArrayPad$ = -4					; size = 4
_fTimePerSec$ = 8					; size = 4
_dwPreTime$ = 12					; size = 4
?ProcessTargetAttachState@ioTargetTrace7Dummy@@IAEXMK@Z PROC ; ioTargetTrace7Dummy::ProcessTargetAttachState, COMDAT
; _this$ = ecx

; 248  : {

  00000	55		 push	 ebp
  00001	8b ec		 mov	 ebp, esp
  00003	83 ec 14	 sub	 esp, 20			; 00000014H
  00006	a1 00 00 00 00	 mov	 eax, DWORD PTR ___security_cookie
  0000b	33 c5		 xor	 eax, ebp
  0000d	89 45 fc	 mov	 DWORD PTR __$ArrayPad$[ebp], eax
  00010	53		 push	 ebx
  00011	8b d9		 mov	 ebx, ecx

; 249  : 	ioBaseChar *pOwner = GetOwner();

  00013	e8 00 00 00 00	 call	 ?GetOwner@ioDummyChar@@QBEPAVioBaseChar@@XZ ; ioDummyChar::GetOwner

; 250  : 	if( !pOwner ) 

  00018	85 c0		 test	 eax, eax
  0001a	75 11		 jne	 SHORT $LN4@ProcessTar

; 251  : 	{
; 252  : 		SetDieState( true );

  0001c	8b 03		 mov	 eax, DWORD PTR [ebx]
  0001e	6a 01		 push	 1
  00020	8b cb		 mov	 ecx, ebx
  00022	ff 90 60 01 00
	00		 call	 DWORD PTR [eax+352]

; 253  : 		return;

  00028	e9 b7 00 00 00	 jmp	 $LN2@ProcessTar
$LN4@ProcessTar:

; 254  : 	}
; 255  : 
; 256  : 	ioPlayStage *pStage = pOwner->GetCreator();

  0002d	8b 80 44 03 00
	00		 mov	 eax, DWORD PTR [eax+836]

; 257  : 	if( !pStage ) return;

  00033	85 c0		 test	 eax, eax
  00035	0f 84 a9 00 00
	00		 je	 $LN2@ProcessTar

; 258  : 
; 259  : 	ioBaseChar *pTarget = pStage->GetBaseChar( m_TargetTraceName );

  0003b	56		 push	 esi
  0003c	8d 8b d8 0a 00
	00		 lea	 ecx, DWORD PTR [ebx+2776]
  00042	51		 push	 ecx
  00043	8b c8		 mov	 ecx, eax
  00045	e8 00 00 00 00	 call	 ?GetBaseChar@ioPlayStage@@QAEPAVioBaseChar@@ABVioHashString@@@Z ; ioPlayStage::GetBaseChar
  0004a	8b f0		 mov	 esi, eax
  0004c	89 75 ec	 mov	 DWORD PTR _pTarget$[ebp], esi

; 260  : 	if ( pTarget )

  0004f	85 f6		 test	 esi, esi
  00051	0f 84 8c 00 00
	00		 je	 $LN16@ProcessTar

; 261  : 	{
; 262  : 		D3DXVECTOR3 vPos = CalcTargetAttachDummyPosition( pTarget );

  00057	56		 push	 esi
  00058	8d 45 f0	 lea	 eax, DWORD PTR _vPos$531657[ebp]
  0005b	50		 push	 eax
  0005c	8b cb		 mov	 ecx, ebx
  0005e	e8 00 00 00 00	 call	 ?CalcTargetAttachDummyPosition@ioTargetTrace7Dummy@@IAE?AUD3DXVECTOR3@@PAVioBaseChar@@@Z ; ioTargetTrace7Dummy::CalcTargetAttachDummyPosition

; 263  : 		if( vPos == ioMath::VEC3_ZERO )

  00063	8b 0d 00 00 00
	00		 mov	 ecx, DWORD PTR __imp_?VEC3_ZERO@ioMath@@2UD3DXVECTOR3@@A
  00069	f3 0f 10 45 f0	 movss	 xmm0, DWORD PTR _vPos$531657[ebp]
  0006e	f3 0f 10 09	 movss	 xmm1, DWORD PTR [ecx]
  00072	0f 5a c0	 cvtps2pd xmm0, xmm0
  00075	0f 5a c9	 cvtps2pd xmm1, xmm1
  00078	66 0f 2e c1	 ucomisd xmm0, xmm1
  0007c	9f		 lahf
  0007d	f6 c4 44	 test	 ah, 68			; 00000044H
  00080	7a 48		 jp	 SHORT $LN1@ProcessTar
  00082	f3 0f 10 45 f4	 movss	 xmm0, DWORD PTR _vPos$531657[ebp+4]
  00087	f3 0f 10 49 04	 movss	 xmm1, DWORD PTR [ecx+4]
  0008c	0f 5a c0	 cvtps2pd xmm0, xmm0
  0008f	0f 5a c9	 cvtps2pd xmm1, xmm1
  00092	66 0f 2e c1	 ucomisd xmm0, xmm1
  00096	9f		 lahf
  00097	f6 c4 44	 test	 ah, 68			; 00000044H
  0009a	7a 2e		 jp	 SHORT $LN1@ProcessTar
  0009c	f3 0f 10 45 f8	 movss	 xmm0, DWORD PTR _vPos$531657[ebp+8]
  000a1	f3 0f 10 49 08	 movss	 xmm1, DWORD PTR [ecx+8]
  000a6	0f 5a c0	 cvtps2pd xmm0, xmm0
  000a9	0f 5a c9	 cvtps2pd xmm1, xmm1
  000ac	66 0f 2e c1	 ucomisd xmm0, xmm1
  000b0	9f		 lahf
  000b1	f6 c4 44	 test	 ah, 68			; 00000044H
  000b4	7a 14		 jp	 SHORT $LN1@ProcessTar

; 264  : 			vPos = pTarget->GetWorldPosition();

  000b6	8b 06		 mov	 eax, DWORD PTR [esi]
  000b8	57		 push	 edi
  000b9	8b ce		 mov	 ecx, esi
  000bb	ff 50 70	 call	 DWORD PTR [eax+112]
  000be	8b f0		 mov	 esi, eax
  000c0	8d 7d f0	 lea	 edi, DWORD PTR _vPos$531657[ebp]
  000c3	a5		 movsd
  000c4	a5		 movsd
  000c5	a5		 movsd
  000c6	8b 75 ec	 mov	 esi, DWORD PTR _pTarget$[ebp]
  000c9	5f		 pop	 edi
$LN1@ProcessTar:

; 265  : 
; 266  : 		SetWorldOrientation( pTarget->GetTargetRot() );

  000ca	8b 03		 mov	 eax, DWORD PTR [ebx]
  000cc	81 c6 a4 06 00
	00		 add	 esi, 1700		; 000006a4H
  000d2	56		 push	 esi
  000d3	8b cb		 mov	 ecx, ebx
  000d5	ff 50 48	 call	 DWORD PTR [eax+72]

; 267  : 		SetWorldPosition( vPos );		

  000d8	8b 03		 mov	 eax, DWORD PTR [ebx]
  000da	8d 4d f0	 lea	 ecx, DWORD PTR _vPos$531657[ebp]
  000dd	51		 push	 ecx
  000de	8b cb		 mov	 ecx, ebx
  000e0	ff 50 44	 call	 DWORD PTR [eax+68]
$LN16@ProcessTar:
  000e3	5e		 pop	 esi
$LN2@ProcessTar:

; 268  : 	}
; 269  : }

  000e4	8b 4d fc	 mov	 ecx, DWORD PTR __$ArrayPad$[ebp]
  000e7	33 cd		 xor	 ecx, ebp
  000e9	5b		 pop	 ebx
  000ea	e8 00 00 00 00	 call	 @__security_check_cookie@4
  000ef	c9		 leave
  000f0	c2 08 00	 ret	 8
?ProcessTargetAttachState@ioTargetTrace7Dummy@@IAEXMK@Z ENDP ; ioTargetTrace7Dummy::ProcessTargetAttachState
_TEXT	ENDS
PUBLIC	??0?$vector@UDummyTargetAttachInfo@ioTargetTrace7Dummy@@V?$allocator@UDummyTargetAttachInfo@ioTargetTrace7Dummy@@@std@@@std@@QAE@XZ ; std::vector<ioTargetTrace7Dummy::DummyTargetAttachInfo,std::allocator<ioTargetTrace7Dummy::DummyTargetAttachInfo> >::vector<ioTargetTrace7Dummy::DummyTargetAttachInfo,std::allocator<ioTargetTrace7Dummy::DummyTargetAttachInfo> >
; Function compile flags: /Ogsp
; File c:\program files (x86)\microsoft visual studio 10.0\vc\include\vector
;	COMDAT ??0?$vector@UDummyTargetAttachInfo@ioTargetTrace7Dummy@@V?$allocator@UDummyTargetAttachInfo@ioTargetTrace7Dummy@@@std@@@std@@QAE@XZ
_TEXT	SEGMENT
??0?$vector@UDummyTargetAttachInfo@ioTargetTrace7Dummy@@V?$allocator@UDummyTargetAttachInfo@ioTargetTrace7Dummy@@@std@@@std@@QAE@XZ PROC ; std::vector<ioTargetTrace7Dummy::DummyTargetAttachInfo,std::allocator<ioTargetTrace7Dummy::DummyTargetAttachInfo> >::vector<ioTargetTrace7Dummy::DummyTargetAttachInfo,std::allocator<ioTargetTrace7Dummy::DummyTargetAttachInfo> >, COMDAT
; _this$ = ecx

; 507  : 		{	// construct empty vector

  00000	8b c1		 mov	 eax, ecx
  00002	33 c9		 xor	 ecx, ecx
  00004	89 08		 mov	 DWORD PTR [eax], ecx
  00006	89 48 04	 mov	 DWORD PTR [eax+4], ecx
  00009	89 48 08	 mov	 DWORD PTR [eax+8], ecx

; 508  : 		}

  0000c	c3		 ret	 0
??0?$vector@UDummyTargetAttachInfo@ioTargetTrace7Dummy@@V?$allocator@UDummyTargetAttachInfo@ioTargetTrace7Dummy@@@std@@@std@@QAE@XZ ENDP ; std::vector<ioTargetTrace7Dummy::DummyTargetAttachInfo,std::allocator<ioTargetTrace7Dummy::DummyTargetAttachInfo> >::vector<ioTargetTrace7Dummy::DummyTargetAttachInfo,std::allocator<ioTargetTrace7Dummy::DummyTargetAttachInfo> >
_TEXT	ENDS
PUBLIC	??D?$_List_iterator@V?$_List_val@UFireTime@@V?$allocator@UFireTime@@@std@@@std@@@std@@QBEAAUFireTime@@XZ ; std::_List_iterator<std::_List_val<FireTime,std::allocator<FireTime> > >::operator*
; Function compile flags: /Ogsp
; File c:\program files (x86)\microsoft visual studio 10.0\vc\include\list
;	COMDAT ??D?$_List_iterator@V?$_List_val@UFireTime@@V?$allocator@UFireTime@@@std@@@std@@@std@@QBEAAUFireTime@@XZ
_TEXT	SEGMENT
??D?$_List_iterator@V?$_List_val@UFireTime@@V?$allocator@UFireTime@@@std@@@std@@@std@@QBEAAUFireTime@@XZ PROC ; std::_List_iterator<std::_List_val<FireTime,std::allocator<FireTime> > >::operator*, COMDAT
; _this$ = ecx

; 360  : 		return ((reference)**(_Mybase *)this);

  00000	8b 01		 mov	 eax, DWORD PTR [ecx]
  00002	83 c0 08	 add	 eax, 8

; 361  : 		}

  00005	c3		 ret	 0
??D?$_List_iterator@V?$_List_val@UFireTime@@V?$allocator@UFireTime@@@std@@@std@@@std@@QBEAAUFireTime@@XZ ENDP ; std::_List_iterator<std::_List_val<FireTime,std::allocator<FireTime> > >::operator*
_TEXT	ENDS
PUBLIC	??0?$_List_iterator@V?$_List_val@UFireTime@@V?$allocator@UFireTime@@@std@@@std@@@std@@QAE@PAU_Node@?$_List_nod@UFireTime@@V?$allocator@UFireTime@@@std@@@1@PBV?$_List_val@UFireTime@@V?$allocator@UFireTime@@@std@@@1@@Z ; std::_List_iterator<std::_List_val<FireTime,std::allocator<FireTime> > >::_List_iterator<std::_List_val<FireTime,std::allocator<FireTime> > >
; Function compile flags: /Ogsp
;	COMDAT ??0?$_List_iterator@V?$_List_val@UFireTime@@V?$allocator@UFireTime@@@std@@@std@@@std@@QAE@PAU_Node@?$_List_nod@UFireTime@@V?$allocator@UFireTime@@@std@@@1@PBV?$_List_val@UFireTime@@V?$allocator@UFireTime@@@std@@@1@@Z
_TEXT	SEGMENT
__Pnode$ = 8						; size = 4
__Plist$ = 12						; size = 4
??0?$_List_iterator@V?$_List_val@UFireTime@@V?$allocator@UFireTime@@@std@@@std@@@std@@QAE@PAU_Node@?$_List_nod@UFireTime@@V?$allocator@UFireTime@@@std@@@1@PBV?$_List_val@UFireTime@@V?$allocator@UFireTime@@@std@@@1@@Z PROC ; std::_List_iterator<std::_List_val<FireTime,std::allocator<FireTime> > >::_List_iterator<std::_List_val<FireTime,std::allocator<FireTime> > >, COMDAT
; _this$ = ecx

; 342  : 		{	// construct with node pointer _Pnode

  00000	55		 push	 ebp
  00001	8b ec		 mov	 ebp, esp
  00003	8b c1		 mov	 eax, ecx
  00005	8b 4d 08	 mov	 ecx, DWORD PTR __Pnode$[ebp]
  00008	89 08		 mov	 DWORD PTR [eax], ecx

; 343  : 		}

  0000a	5d		 pop	 ebp
  0000b	c2 08 00	 ret	 8
??0?$_List_iterator@V?$_List_val@UFireTime@@V?$allocator@UFireTime@@@std@@@std@@@std@@QAE@PAU_Node@?$_List_nod@UFireTime@@V?$allocator@UFireTime@@@std@@@1@PBV?$_List_val@UFireTime@@V?$allocator@UFireTime@@@std@@@1@@Z ENDP ; std::_List_iterator<std::_List_val<FireTime,std::allocator<FireTime> > >::_List_iterator<std::_List_val<FireTime,std::allocator<FireTime> > >
_TEXT	ENDS
PUBLIC	??$_Cons_val@V?$allocator@UDummyTargetAttachInfo@ioTargetTrace7Dummy@@@std@@UDummyTargetAttachInfo@ioTargetTrace7Dummy@@ABU34@@std@@YAXAAV?$allocator@UDummyTargetAttachInfo@ioTargetTrace7Dummy@@@0@PAUDummyTargetAttachInfo@ioTargetTrace7Dummy@@ABU23@@Z ; std::_Cons_val<std::allocator<ioTargetTrace7Dummy::DummyTargetAttachInfo>,ioTargetTrace7Dummy::DummyTargetAttachInfo,ioTargetTrace7Dummy::DummyTargetAttachInfo const &>
; Function compile flags: /Ogsp
; File c:\program files (x86)\microsoft visual studio 10.0\vc\include\xmemory
;	COMDAT ??$_Cons_val@V?$allocator@UDummyTargetAttachInfo@ioTargetTrace7Dummy@@@std@@UDummyTargetAttachInfo@ioTargetTrace7Dummy@@ABU34@@std@@YAXAAV?$allocator@UDummyTargetAttachInfo@ioTargetTrace7Dummy@@@0@PAUDummyTargetAttachInfo@ioTargetTrace7Dummy@@ABU23@@Z
_TEXT	SEGMENT
__Alval$ = 8						; size = 4
__Pdest$ = 12						; size = 4
__Src$ = 16						; size = 4
??$_Cons_val@V?$allocator@UDummyTargetAttachInfo@ioTargetTrace7Dummy@@@std@@UDummyTargetAttachInfo@ioTargetTrace7Dummy@@ABU34@@std@@YAXAAV?$allocator@UDummyTargetAttachInfo@ioTargetTrace7Dummy@@@0@PAUDummyTargetAttachInfo@ioTargetTrace7Dummy@@ABU23@@Z PROC ; std::_Cons_val<std::allocator<ioTargetTrace7Dummy::DummyTargetAttachInfo>,ioTargetTrace7Dummy::DummyTargetAttachInfo,ioTargetTrace7Dummy::DummyTargetAttachInfo const &>, COMDAT

; 279  : 	{	// construct using allocator

  00000	55		 push	 ebp
  00001	8b ec		 mov	 ebp, esp
  00003	57		 push	 edi

; 280  : 	_Alval.construct(_Pdest, _STD forward<_Ty2>(_Src));

  00004	8b 7d 0c	 mov	 edi, DWORD PTR __Pdest$[ebp]
  00007	85 ff		 test	 edi, edi
  00009	74 08		 je	 SHORT $LN9@Cons_val@2
  0000b	56		 push	 esi
  0000c	8b 75 10	 mov	 esi, DWORD PTR __Src$[ebp]
  0000f	a5		 movsd
  00010	a5		 movsd
  00011	a5		 movsd
  00012	5e		 pop	 esi
$LN9@Cons_val@2:
  00013	5f		 pop	 edi

; 281  : 	}

  00014	5d		 pop	 ebp
  00015	c3		 ret	 0
??$_Cons_val@V?$allocator@UDummyTargetAttachInfo@ioTargetTrace7Dummy@@@std@@UDummyTargetAttachInfo@ioTargetTrace7Dummy@@ABU34@@std@@YAXAAV?$allocator@UDummyTargetAttachInfo@ioTargetTrace7Dummy@@@0@PAUDummyTargetAttachInfo@ioTargetTrace7Dummy@@ABU23@@Z ENDP ; std::_Cons_val<std::allocator<ioTargetTrace7Dummy::DummyTargetAttachInfo>,ioTargetTrace7Dummy::DummyTargetAttachInfo,ioTargetTrace7Dummy::DummyTargetAttachInfo const &>
_TEXT	ENDS
PUBLIC	??$_Destroy@U_Node@?$_List_nod@UFireTime@@V?$allocator@UFireTime@@@std@@@std@@@std@@YAXPAU_Node@?$_List_nod@UFireTime@@V?$allocator@UFireTime@@@std@@@0@@Z ; std::_Destroy<std::_List_nod<FireTime,std::allocator<FireTime> >::_Node>
; Function compile flags: /Ogsp
;	COMDAT ??$_Destroy@U_Node@?$_List_nod@UFireTime@@V?$allocator@UFireTime@@@std@@@std@@@std@@YAXPAU_Node@?$_List_nod@UFireTime@@V?$allocator@UFireTime@@@std@@@0@@Z
_TEXT	SEGMENT
__Ptr$ = 8						; size = 4
??$_Destroy@U_Node@?$_List_nod@UFireTime@@V?$allocator@UFireTime@@@std@@@std@@@std@@YAXPAU_Node@?$_List_nod@UFireTime@@V?$allocator@UFireTime@@@std@@@0@@Z PROC ; std::_Destroy<std::_List_nod<FireTime,std::allocator<FireTime> >::_Node>, COMDAT

; 62   : 	{	// destroy object at _Ptr

  00000	55		 push	 ebp
  00001	8b ec		 mov	 ebp, esp

; 63   : 	_Ptr->~_Ty();

  00003	8b 4d 08	 mov	 ecx, DWORD PTR __Ptr$[ebp]
  00006	83 c1 08	 add	 ecx, 8

; 64   : 	}

  00009	5d		 pop	 ebp

; 63   : 	_Ptr->~_Ty();

  0000a	e9 00 00 00 00	 jmp	 ??1FireTime@@QAE@XZ
??$_Destroy@U_Node@?$_List_nod@UFireTime@@V?$allocator@UFireTime@@@std@@@std@@@std@@YAXPAU_Node@?$_List_nod@UFireTime@@V?$allocator@UFireTime@@@std@@@0@@Z ENDP ; std::_Destroy<std::_List_nod<FireTime,std::allocator<FireTime> >::_Node>
_TEXT	ENDS
PUBLIC	??$_Dest_val@V?$allocator@UDummyTargetAttachInfo@ioTargetTrace7Dummy@@@std@@UDummyTargetAttachInfo@ioTargetTrace7Dummy@@@std@@YAXAAV?$allocator@UDummyTargetAttachInfo@ioTargetTrace7Dummy@@@0@PAUDummyTargetAttachInfo@ioTargetTrace7Dummy@@@Z ; std::_Dest_val<std::allocator<ioTargetTrace7Dummy::DummyTargetAttachInfo>,ioTargetTrace7Dummy::DummyTargetAttachInfo>
; Function compile flags: /Ogsp
;	COMDAT ??$_Dest_val@V?$allocator@UDummyTargetAttachInfo@ioTargetTrace7Dummy@@@std@@UDummyTargetAttachInfo@ioTargetTrace7Dummy@@@std@@YAXAAV?$allocator@UDummyTargetAttachInfo@ioTargetTrace7Dummy@@@0@PAUDummyTargetAttachInfo@ioTargetTrace7Dummy@@@Z
_TEXT	SEGMENT
__Alval$ = 8						; size = 4
__Pdest$ = 12						; size = 4
??$_Dest_val@V?$allocator@UDummyTargetAttachInfo@ioTargetTrace7Dummy@@@std@@UDummyTargetAttachInfo@ioTargetTrace7Dummy@@@std@@YAXAAV?$allocator@UDummyTargetAttachInfo@ioTargetTrace7Dummy@@@0@PAUDummyTargetAttachInfo@ioTargetTrace7Dummy@@@Z PROC ; std::_Dest_val<std::allocator<ioTargetTrace7Dummy::DummyTargetAttachInfo>,ioTargetTrace7Dummy::DummyTargetAttachInfo>, COMDAT

; 287  : 	_Alval.destroy(_Pdest);
; 288  : 	}

  00000	c3		 ret	 0
??$_Dest_val@V?$allocator@UDummyTargetAttachInfo@ioTargetTrace7Dummy@@@std@@UDummyTargetAttachInfo@ioTargetTrace7Dummy@@@std@@YAXAAV?$allocator@UDummyTargetAttachInfo@ioTargetTrace7Dummy@@@0@PAUDummyTargetAttachInfo@ioTargetTrace7Dummy@@@Z ENDP ; std::_Dest_val<std::allocator<ioTargetTrace7Dummy::DummyTargetAttachInfo>,ioTargetTrace7Dummy::DummyTargetAttachInfo>
_TEXT	ENDS
PUBLIC	??$_Cons_val@V?$allocator@UDummyTargetAttachInfo@ioTargetTrace7Dummy@@@std@@UDummyTargetAttachInfo@ioTargetTrace7Dummy@@U34@@std@@YAXAAV?$allocator@UDummyTargetAttachInfo@ioTargetTrace7Dummy@@@0@PAUDummyTargetAttachInfo@ioTargetTrace7Dummy@@$$QAU23@@Z ; std::_Cons_val<std::allocator<ioTargetTrace7Dummy::DummyTargetAttachInfo>,ioTargetTrace7Dummy::DummyTargetAttachInfo,ioTargetTrace7Dummy::DummyTargetAttachInfo>
; Function compile flags: /Ogsp
;	COMDAT ??$_Cons_val@V?$allocator@UDummyTargetAttachInfo@ioTargetTrace7Dummy@@@std@@UDummyTargetAttachInfo@ioTargetTrace7Dummy@@U34@@std@@YAXAAV?$allocator@UDummyTargetAttachInfo@ioTargetTrace7Dummy@@@0@PAUDummyTargetAttachInfo@ioTargetTrace7Dummy@@$$QAU23@@Z
_TEXT	SEGMENT
__Alval$ = 8						; size = 4
__Pdest$ = 12						; size = 4
__Src$ = 16						; size = 4
??$_Cons_val@V?$allocator@UDummyTargetAttachInfo@ioTargetTrace7Dummy@@@std@@UDummyTargetAttachInfo@ioTargetTrace7Dummy@@U34@@std@@YAXAAV?$allocator@UDummyTargetAttachInfo@ioTargetTrace7Dummy@@@0@PAUDummyTargetAttachInfo@ioTargetTrace7Dummy@@$$QAU23@@Z PROC ; std::_Cons_val<std::allocator<ioTargetTrace7Dummy::DummyTargetAttachInfo>,ioTargetTrace7Dummy::DummyTargetAttachInfo,ioTargetTrace7Dummy::DummyTargetAttachInfo>, COMDAT

; 279  : 	{	// construct using allocator

  00000	55		 push	 ebp
  00001	8b ec		 mov	 ebp, esp
  00003	57		 push	 edi

; 280  : 	_Alval.construct(_Pdest, _STD forward<_Ty2>(_Src));

  00004	8b 7d 0c	 mov	 edi, DWORD PTR __Pdest$[ebp]
  00007	85 ff		 test	 edi, edi
  00009	74 08		 je	 SHORT $LN7@Cons_val@3
  0000b	56		 push	 esi
  0000c	8b 75 10	 mov	 esi, DWORD PTR __Src$[ebp]
  0000f	a5		 movsd
  00010	a5		 movsd
  00011	a5		 movsd
  00012	5e		 pop	 esi
$LN7@Cons_val@3:
  00013	5f		 pop	 edi

; 281  : 	}

  00014	5d		 pop	 ebp
  00015	c3		 ret	 0
??$_Cons_val@V?$allocator@UDummyTargetAttachInfo@ioTargetTrace7Dummy@@@std@@UDummyTargetAttachInfo@ioTargetTrace7Dummy@@U34@@std@@YAXAAV?$allocator@UDummyTargetAttachInfo@ioTargetTrace7Dummy@@@0@PAUDummyTargetAttachInfo@ioTargetTrace7Dummy@@$$QAU23@@Z ENDP ; std::_Cons_val<std::allocator<ioTargetTrace7Dummy::DummyTargetAttachInfo>,ioTargetTrace7Dummy::DummyTargetAttachInfo,ioTargetTrace7Dummy::DummyTargetAttachInfo>
_TEXT	ENDS
PUBLIC	?begin@?$list@UFireTime@@V?$allocator@UFireTime@@@std@@@std@@QAE?AV?$_List_iterator@V?$_List_val@UFireTime@@V?$allocator@UFireTime@@@std@@@std@@@2@XZ ; std::list<FireTime,std::allocator<FireTime> >::begin
; Function compile flags: /Ogsp
; File c:\program files (x86)\microsoft visual studio 10.0\vc\include\list
;	COMDAT ?begin@?$list@UFireTime@@V?$allocator@UFireTime@@@std@@@std@@QAE?AV?$_List_iterator@V?$_List_val@UFireTime@@V?$allocator@UFireTime@@@std@@@std@@@2@XZ
_TEXT	SEGMENT
___$ReturnUdt$ = 8					; size = 4
?begin@?$list@UFireTime@@V?$allocator@UFireTime@@@std@@@std@@QAE?AV?$_List_iterator@V?$_List_val@UFireTime@@V?$allocator@UFireTime@@@std@@@std@@@2@XZ PROC ; std::list<FireTime,std::allocator<FireTime> >::begin, COMDAT
; _this$ = ecx

; 781  : 		{	// return iterator for beginning of mutable sequence

  00000	55		 push	 ebp
  00001	8b ec		 mov	 ebp, esp

; 782  : 		return (iterator(this->_Nextnode(this->_Myhead), this));

  00003	8b 01		 mov	 eax, DWORD PTR [ecx]
  00005	8b 08		 mov	 ecx, DWORD PTR [eax]
  00007	8b 45 08	 mov	 eax, DWORD PTR ___$ReturnUdt$[ebp]
  0000a	89 08		 mov	 DWORD PTR [eax], ecx

; 783  : 		}

  0000c	5d		 pop	 ebp
  0000d	c2 04 00	 ret	 4
?begin@?$list@UFireTime@@V?$allocator@UFireTime@@@std@@@std@@QAE?AV?$_List_iterator@V?$_List_val@UFireTime@@V?$allocator@UFireTime@@@std@@@std@@@2@XZ ENDP ; std::list<FireTime,std::allocator<FireTime> >::begin
_TEXT	ENDS
PUBLIC	?end@?$list@UFireTime@@V?$allocator@UFireTime@@@std@@@std@@QAE?AV?$_List_iterator@V?$_List_val@UFireTime@@V?$allocator@UFireTime@@@std@@@std@@@2@XZ ; std::list<FireTime,std::allocator<FireTime> >::end
; Function compile flags: /Ogsp
;	COMDAT ?end@?$list@UFireTime@@V?$allocator@UFireTime@@@std@@@std@@QAE?AV?$_List_iterator@V?$_List_val@UFireTime@@V?$allocator@UFireTime@@@std@@@std@@@2@XZ
_TEXT	SEGMENT
___$ReturnUdt$ = 8					; size = 4
?end@?$list@UFireTime@@V?$allocator@UFireTime@@@std@@@std@@QAE?AV?$_List_iterator@V?$_List_val@UFireTime@@V?$allocator@UFireTime@@@std@@@std@@@2@XZ PROC ; std::list<FireTime,std::allocator<FireTime> >::end, COMDAT
; _this$ = ecx

; 791  : 		{	// return iterator for end of mutable sequence

  00000	55		 push	 ebp
  00001	8b ec		 mov	 ebp, esp

; 792  : 		return (iterator(this->_Myhead, this));

  00003	8b 09		 mov	 ecx, DWORD PTR [ecx]
  00005	8b 45 08	 mov	 eax, DWORD PTR ___$ReturnUdt$[ebp]
  00008	89 08		 mov	 DWORD PTR [eax], ecx

; 793  : 		}

  0000a	5d		 pop	 ebp
  0000b	c2 04 00	 ret	 4
?end@?$list@UFireTime@@V?$allocator@UFireTime@@@std@@@std@@QAE?AV?$_List_iterator@V?$_List_val@UFireTime@@V?$allocator@UFireTime@@@std@@@std@@@2@XZ ENDP ; std::list<FireTime,std::allocator<FireTime> >::end
_TEXT	ENDS
PUBLIC	?_Make_iter@?$list@UFireTime@@V?$allocator@UFireTime@@@std@@@std@@QBE?AV?$_List_iterator@V?$_List_val@UFireTime@@V?$allocator@UFireTime@@@std@@@std@@@2@V?$_List_const_iterator@V?$_List_val@UFireTime@@V?$allocator@UFireTime@@@std@@@std@@@2@@Z ; std::list<FireTime,std::allocator<FireTime> >::_Make_iter
; Function compile flags: /Ogsp
;	COMDAT ?_Make_iter@?$list@UFireTime@@V?$allocator@UFireTime@@@std@@@std@@QBE?AV?$_List_iterator@V?$_List_val@UFireTime@@V?$allocator@UFireTime@@@std@@@std@@@2@V?$_List_const_iterator@V?$_List_val@UFireTime@@V?$allocator@UFireTime@@@std@@@std@@@2@@Z
_TEXT	SEGMENT
___$ReturnUdt$ = 8					; size = 4
__Where$ = 12						; size = 4
?_Make_iter@?$list@UFireTime@@V?$allocator@UFireTime@@@std@@@std@@QBE?AV?$_List_iterator@V?$_List_val@UFireTime@@V?$allocator@UFireTime@@@std@@@std@@@2@V?$_List_const_iterator@V?$_List_val@UFireTime@@V?$allocator@UFireTime@@@std@@@std@@@2@@Z PROC ; std::list<FireTime,std::allocator<FireTime> >::_Make_iter, COMDAT
; _this$ = ecx

; 801  : 		{	// make iterator from const_iterator

  00000	55		 push	 ebp
  00001	8b ec		 mov	 ebp, esp

; 802  : 		return (iterator(_Where._Ptr, this));

  00003	8b 45 08	 mov	 eax, DWORD PTR ___$ReturnUdt$[ebp]
  00006	8b 4d 0c	 mov	 ecx, DWORD PTR __Where$[ebp]
  00009	89 08		 mov	 DWORD PTR [eax], ecx

; 803  : 		}

  0000b	5d		 pop	 ebp
  0000c	c2 08 00	 ret	 8
?_Make_iter@?$list@UFireTime@@V?$allocator@UFireTime@@@std@@@std@@QBE?AV?$_List_iterator@V?$_List_val@UFireTime@@V?$allocator@UFireTime@@@std@@@std@@@2@V?$_List_const_iterator@V?$_List_val@UFireTime@@V?$allocator@UFireTime@@@std@@@std@@@2@@Z ENDP ; std::list<FireTime,std::allocator<FireTime> >::_Make_iter
_TEXT	ENDS
PUBLIC	?destroy@?$allocator@U_Node@?$_List_nod@UFireTime@@V?$allocator@UFireTime@@@std@@@std@@@std@@QAEXPAU_Node@?$_List_nod@UFireTime@@V?$allocator@UFireTime@@@std@@@2@@Z ; std::allocator<std::_List_nod<FireTime,std::allocator<FireTime> >::_Node>::destroy
; Function compile flags: /Ogsp
; File c:\program files (x86)\microsoft visual studio 10.0\vc\include\xmemory
;	COMDAT ?destroy@?$allocator@U_Node@?$_List_nod@UFireTime@@V?$allocator@UFireTime@@@std@@@std@@@std@@QAEXPAU_Node@?$_List_nod@UFireTime@@V?$allocator@UFireTime@@@std@@@2@@Z
_TEXT	SEGMENT
__Ptr$ = 8						; size = 4
?destroy@?$allocator@U_Node@?$_List_nod@UFireTime@@V?$allocator@UFireTime@@@std@@@std@@@std@@QAEXPAU_Node@?$_List_nod@UFireTime@@V?$allocator@UFireTime@@@std@@@2@@Z PROC ; std::allocator<std::_List_nod<FireTime,std::allocator<FireTime> >::_Node>::destroy, COMDAT
; _this$ = ecx

; 212  : 		{	// destroy object at _Ptr

  00000	55		 push	 ebp
  00001	8b ec		 mov	 ebp, esp

; 213  : 		_Destroy(_Ptr);

  00003	8b 4d 08	 mov	 ecx, DWORD PTR __Ptr$[ebp]
  00006	83 c1 08	 add	 ecx, 8
  00009	e8 00 00 00 00	 call	 ??1FireTime@@QAE@XZ

; 214  : 		}

  0000e	5d		 pop	 ebp
  0000f	c2 04 00	 ret	 4
?destroy@?$allocator@U_Node@?$_List_nod@UFireTime@@V?$allocator@UFireTime@@@std@@@std@@@std@@QAEXPAU_Node@?$_List_nod@UFireTime@@V?$allocator@UFireTime@@@std@@@2@@Z ENDP ; std::allocator<std::_List_nod<FireTime,std::allocator<FireTime> >::_Node>::destroy
_TEXT	ENDS
PUBLIC	??$_Destroy_range@V?$allocator@UDummyTargetAttachInfo@ioTargetTrace7Dummy@@@std@@@std@@YAXPAUDummyTargetAttachInfo@ioTargetTrace7Dummy@@0AAV?$allocator@UDummyTargetAttachInfo@ioTargetTrace7Dummy@@@0@U_Nonscalar_ptr_iterator_tag@0@@Z ; std::_Destroy_range<std::allocator<ioTargetTrace7Dummy::DummyTargetAttachInfo> >
; Function compile flags: /Ogsp
;	COMDAT ??$_Destroy_range@V?$allocator@UDummyTargetAttachInfo@ioTargetTrace7Dummy@@@std@@@std@@YAXPAUDummyTargetAttachInfo@ioTargetTrace7Dummy@@0AAV?$allocator@UDummyTargetAttachInfo@ioTargetTrace7Dummy@@@0@U_Nonscalar_ptr_iterator_tag@0@@Z
_TEXT	SEGMENT
__First$ = 8						; size = 4
__Last$ = 12						; size = 4
__Al$ = 16						; size = 4
___formal$ = 20						; size = 1
??$_Destroy_range@V?$allocator@UDummyTargetAttachInfo@ioTargetTrace7Dummy@@@std@@@std@@YAXPAUDummyTargetAttachInfo@ioTargetTrace7Dummy@@0AAV?$allocator@UDummyTargetAttachInfo@ioTargetTrace7Dummy@@@0@U_Nonscalar_ptr_iterator_tag@0@@Z PROC ; std::_Destroy_range<std::allocator<ioTargetTrace7Dummy::DummyTargetAttachInfo> >, COMDAT

; 96   : 	for (; _First != _Last; ++_First)
; 97   : 		_Dest_val(_Al, _First);
; 98   : 	}

  00000	c3		 ret	 0
??$_Destroy_range@V?$allocator@UDummyTargetAttachInfo@ioTargetTrace7Dummy@@@std@@@std@@YAXPAUDummyTargetAttachInfo@ioTargetTrace7Dummy@@0AAV?$allocator@UDummyTargetAttachInfo@ioTargetTrace7Dummy@@@0@U_Nonscalar_ptr_iterator_tag@0@@Z ENDP ; std::_Destroy_range<std::allocator<ioTargetTrace7Dummy::DummyTargetAttachInfo> >
_TEXT	ENDS
PUBLIC	??$_Uninit_move@PAUDummyTargetAttachInfo@ioTargetTrace7Dummy@@PAU12@V?$allocator@UDummyTargetAttachInfo@ioTargetTrace7Dummy@@@std@@U12@@std@@YAPAUDummyTargetAttachInfo@ioTargetTrace7Dummy@@PAU12@00AAV?$allocator@UDummyTargetAttachInfo@ioTargetTrace7Dummy@@@0@0U_Nonscalar_ptr_iterator_tag@0@@Z ; std::_Uninit_move<ioTargetTrace7Dummy::DummyTargetAttachInfo *,ioTargetTrace7Dummy::DummyTargetAttachInfo *,std::allocator<ioTargetTrace7Dummy::DummyTargetAttachInfo>,ioTargetTrace7Dummy::DummyTargetAttachInfo>
; Function compile flags: /Ogsp
; File c:\program files (x86)\microsoft visual studio 10.0\vc\include\memory
;	COMDAT ??$_Uninit_move@PAUDummyTargetAttachInfo@ioTargetTrace7Dummy@@PAU12@V?$allocator@UDummyTargetAttachInfo@ioTargetTrace7Dummy@@@std@@U12@@std@@YAPAUDummyTargetAttachInfo@ioTargetTrace7Dummy@@PAU12@00AAV?$allocator@UDummyTargetAttachInfo@ioTargetTrace7Dummy@@@0@0U_Nonscalar_ptr_iterator_tag@0@@Z
_TEXT	SEGMENT
__First$ = 8						; size = 4
__Last$ = 12						; size = 4
__Dest$ = 16						; size = 4
__Al$ = 20						; size = 4
___formal$ = 24						; size = 4
___formal$ = 28						; size = 1
??$_Uninit_move@PAUDummyTargetAttachInfo@ioTargetTrace7Dummy@@PAU12@V?$allocator@UDummyTargetAttachInfo@ioTargetTrace7Dummy@@@std@@U12@@std@@YAPAUDummyTargetAttachInfo@ioTargetTrace7Dummy@@PAU12@00AAV?$allocator@UDummyTargetAttachInfo@ioTargetTrace7Dummy@@@0@0U_Nonscalar_ptr_iterator_tag@0@@Z PROC ; std::_Uninit_move<ioTargetTrace7Dummy::DummyTargetAttachInfo *,ioTargetTrace7Dummy::DummyTargetAttachInfo *,std::allocator<ioTargetTrace7Dummy::DummyTargetAttachInfo>,ioTargetTrace7Dummy::DummyTargetAttachInfo>, COMDAT

; 424  : 	{	// move [_First, _Last) to raw _Dest, using _Al, arbitrary type

  00000	55		 push	 ebp
  00001	8b ec		 mov	 ebp, esp
  00003	56		 push	 esi

; 425  : 	_DEBUG_RANGE(_First, _Last);
; 426  : 	_DEBUG_POINTER(_Dest);
; 427  : 	_FwdIt _Next = _Dest;
; 428  : 
; 429  : 	_TRY_BEGIN
; 430  : 	for (; _First != _Last; ++_Dest, ++_First)

  00004	8b 75 08	 mov	 esi, DWORD PTR __First$[ebp]
  00007	eb 16		 jmp	 SHORT $LN24@Uninit_mov
$LL6@Uninit_mov:

; 431  : 		_Cons_val(_Al, _Dest, (_Valty &&)*_First);

  00009	56		 push	 esi
  0000a	ff 75 10	 push	 DWORD PTR __Dest$[ebp]
  0000d	ff 75 14	 push	 DWORD PTR __Al$[ebp]
  00010	e8 00 00 00 00	 call	 ??$_Cons_val@V?$allocator@UDummyTargetAttachInfo@ioTargetTrace7Dummy@@@std@@UDummyTargetAttachInfo@ioTargetTrace7Dummy@@U34@@std@@YAXAAV?$allocator@UDummyTargetAttachInfo@ioTargetTrace7Dummy@@@0@PAUDummyTargetAttachInfo@ioTargetTrace7Dummy@@$$QAU23@@Z ; std::_Cons_val<std::allocator<ioTargetTrace7Dummy::DummyTargetAttachInfo>,ioTargetTrace7Dummy::DummyTargetAttachInfo,ioTargetTrace7Dummy::DummyTargetAttachInfo>
  00015	83 45 10 0c	 add	 DWORD PTR __Dest$[ebp], 12 ; 0000000cH
  00019	83 c4 0c	 add	 esp, 12			; 0000000cH
  0001c	83 c6 0c	 add	 esi, 12			; 0000000cH
$LN24@Uninit_mov:

; 425  : 	_DEBUG_RANGE(_First, _Last);
; 426  : 	_DEBUG_POINTER(_Dest);
; 427  : 	_FwdIt _Next = _Dest;
; 428  : 
; 429  : 	_TRY_BEGIN
; 430  : 	for (; _First != _Last; ++_Dest, ++_First)

  0001f	3b 75 0c	 cmp	 esi, DWORD PTR __Last$[ebp]
  00022	75 e5		 jne	 SHORT $LL6@Uninit_mov

; 432  : 	_CATCH_ALL
; 433  : 	for (; _Next != _Dest; ++_Next)
; 434  : 		_Dest_val(_Al, _Next);
; 435  : 	_RERAISE;
; 436  : 	_CATCH_END
; 437  : 	return (_Dest);

  00024	8b 45 10	 mov	 eax, DWORD PTR __Dest$[ebp]
  00027	5e		 pop	 esi

; 438  : 	}

  00028	5d		 pop	 ebp
  00029	c3		 ret	 0
??$_Uninit_move@PAUDummyTargetAttachInfo@ioTargetTrace7Dummy@@PAU12@V?$allocator@UDummyTargetAttachInfo@ioTargetTrace7Dummy@@@std@@U12@@std@@YAPAUDummyTargetAttachInfo@ioTargetTrace7Dummy@@PAU12@00AAV?$allocator@UDummyTargetAttachInfo@ioTargetTrace7Dummy@@@0@0U_Nonscalar_ptr_iterator_tag@0@@Z ENDP ; std::_Uninit_move<ioTargetTrace7Dummy::DummyTargetAttachInfo *,ioTargetTrace7Dummy::DummyTargetAttachInfo *,std::allocator<ioTargetTrace7Dummy::DummyTargetAttachInfo>,ioTargetTrace7Dummy::DummyTargetAttachInfo>
_TEXT	ENDS
PUBLIC	??$_Dest_val@V?$allocator@U_Node@?$_List_nod@UFireTime@@V?$allocator@UFireTime@@@std@@@std@@@std@@U_Node@?$_List_nod@UFireTime@@V?$allocator@UFireTime@@@std@@@2@@std@@YAXAAV?$allocator@U_Node@?$_List_nod@UFireTime@@V?$allocator@UFireTime@@@std@@@std@@@0@PAU_Node@?$_List_nod@UFireTime@@V?$allocator@UFireTime@@@std@@@0@@Z ; std::_Dest_val<std::allocator<std::_List_nod<FireTime,std::allocator<FireTime> >::_Node>,std::_List_nod<FireTime,std::allocator<FireTime> >::_Node>
; Function compile flags: /Ogsp
; File c:\program files (x86)\microsoft visual studio 10.0\vc\include\xmemory
;	COMDAT ??$_Dest_val@V?$allocator@U_Node@?$_List_nod@UFireTime@@V?$allocator@UFireTime@@@std@@@std@@@std@@U_Node@?$_List_nod@UFireTime@@V?$allocator@UFireTime@@@std@@@2@@std@@YAXAAV?$allocator@U_Node@?$_List_nod@UFireTime@@V?$allocator@UFireTime@@@std@@@std@@@0@PAU_Node@?$_List_nod@UFireTime@@V?$allocator@UFireTime@@@std@@@0@@Z
_TEXT	SEGMENT
__Alval$ = 8						; size = 4
__Pdest$ = 12						; size = 4
??$_Dest_val@V?$allocator@U_Node@?$_List_nod@UFireTime@@V?$allocator@UFireTime@@@std@@@std@@@std@@U_Node@?$_List_nod@UFireTime@@V?$allocator@UFireTime@@@std@@@2@@std@@YAXAAV?$allocator@U_Node@?$_List_nod@UFireTime@@V?$allocator@UFireTime@@@std@@@std@@@0@PAU_Node@?$_List_nod@UFireTime@@V?$allocator@UFireTime@@@std@@@0@@Z PROC ; std::_Dest_val<std::allocator<std::_List_nod<FireTime,std::allocator<FireTime> >::_Node>,std::_List_nod<FireTime,std::allocator<FireTime> >::_Node>, COMDAT

; 286  : 	{	// destroy using allocator

  00000	55		 push	 ebp
  00001	8b ec		 mov	 ebp, esp

; 287  : 	_Alval.destroy(_Pdest);

  00003	8b 4d 0c	 mov	 ecx, DWORD PTR __Pdest$[ebp]
  00006	83 c1 08	 add	 ecx, 8

; 288  : 	}

  00009	5d		 pop	 ebp

; 287  : 	_Alval.destroy(_Pdest);

  0000a	e9 00 00 00 00	 jmp	 ??1FireTime@@QAE@XZ
??$_Dest_val@V?$allocator@U_Node@?$_List_nod@UFireTime@@V?$allocator@UFireTime@@@std@@@std@@@std@@U_Node@?$_List_nod@UFireTime@@V?$allocator@UFireTime@@@std@@@2@@std@@YAXAAV?$allocator@U_Node@?$_List_nod@UFireTime@@V?$allocator@UFireTime@@@std@@@std@@@0@PAU_Node@?$_List_nod@UFireTime@@V?$allocator@UFireTime@@@std@@@0@@Z ENDP ; std::_Dest_val<std::allocator<std::_List_nod<FireTime,std::allocator<FireTime> >::_Node>,std::_List_nod<FireTime,std::allocator<FireTime> >::_Node>
_TEXT	ENDS
PUBLIC	??$_Destroy_range@V?$allocator@UDummyTargetAttachInfo@ioTargetTrace7Dummy@@@std@@@std@@YAXPAUDummyTargetAttachInfo@ioTargetTrace7Dummy@@0AAV?$allocator@UDummyTargetAttachInfo@ioTargetTrace7Dummy@@@0@@Z ; std::_Destroy_range<std::allocator<ioTargetTrace7Dummy::DummyTargetAttachInfo> >
; Function compile flags: /Ogsp
;	COMDAT ??$_Destroy_range@V?$allocator@UDummyTargetAttachInfo@ioTargetTrace7Dummy@@@std@@@std@@YAXPAUDummyTargetAttachInfo@ioTargetTrace7Dummy@@0AAV?$allocator@UDummyTargetAttachInfo@ioTargetTrace7Dummy@@@0@@Z
_TEXT	SEGMENT
__First$ = 8						; size = 4
__Last$ = 12						; size = 4
__Al$ = 16						; size = 4
??$_Destroy_range@V?$allocator@UDummyTargetAttachInfo@ioTargetTrace7Dummy@@@std@@@std@@YAXPAUDummyTargetAttachInfo@ioTargetTrace7Dummy@@0AAV?$allocator@UDummyTargetAttachInfo@ioTargetTrace7Dummy@@@0@@Z PROC ; std::_Destroy_range<std::allocator<ioTargetTrace7Dummy::DummyTargetAttachInfo> >, COMDAT

; 88   : 	_Destroy_range(_First, _Last, _Al, _Ptr_cat(_First, _Last));
; 89   : 	}

  00000	c3		 ret	 0
??$_Destroy_range@V?$allocator@UDummyTargetAttachInfo@ioTargetTrace7Dummy@@@std@@@std@@YAXPAUDummyTargetAttachInfo@ioTargetTrace7Dummy@@0AAV?$allocator@UDummyTargetAttachInfo@ioTargetTrace7Dummy@@@0@@Z ENDP ; std::_Destroy_range<std::allocator<ioTargetTrace7Dummy::DummyTargetAttachInfo> >
_TEXT	ENDS
PUBLIC	??$_Uninitialized_move@PAUDummyTargetAttachInfo@ioTargetTrace7Dummy@@PAU12@V?$allocator@UDummyTargetAttachInfo@ioTargetTrace7Dummy@@@std@@@std@@YAPAUDummyTargetAttachInfo@ioTargetTrace7Dummy@@PAU12@00AAV?$allocator@UDummyTargetAttachInfo@ioTargetTrace7Dummy@@@0@@Z ; std::_Uninitialized_move<ioTargetTrace7Dummy::DummyTargetAttachInfo *,ioTargetTrace7Dummy::DummyTargetAttachInfo *,std::allocator<ioTargetTrace7Dummy::DummyTargetAttachInfo> >
; Function compile flags: /Ogsp
; File c:\program files (x86)\microsoft visual studio 10.0\vc\include\memory
;	COMDAT ??$_Uninitialized_move@PAUDummyTargetAttachInfo@ioTargetTrace7Dummy@@PAU12@V?$allocator@UDummyTargetAttachInfo@ioTargetTrace7Dummy@@@std@@@std@@YAPAUDummyTargetAttachInfo@ioTargetTrace7Dummy@@PAU12@00AAV?$allocator@UDummyTargetAttachInfo@ioTargetTrace7Dummy@@@0@@Z
_TEXT	SEGMENT
__Cat$534650 = -4					; size = 1
__First$ = 8						; size = 4
__Last$ = 12						; size = 4
__Dest$ = 16						; size = 4
__Al$ = 20						; size = 4
??$_Uninitialized_move@PAUDummyTargetAttachInfo@ioTargetTrace7Dummy@@PAU12@V?$allocator@UDummyTargetAttachInfo@ioTargetTrace7Dummy@@@std@@@std@@YAPAUDummyTargetAttachInfo@ioTargetTrace7Dummy@@PAU12@00AAV?$allocator@UDummyTargetAttachInfo@ioTargetTrace7Dummy@@@0@@Z PROC ; std::_Uninitialized_move<ioTargetTrace7Dummy::DummyTargetAttachInfo *,ioTargetTrace7Dummy::DummyTargetAttachInfo *,std::allocator<ioTargetTrace7Dummy::DummyTargetAttachInfo> >, COMDAT

; 469  : 	{	// move [_First, _Last) to raw _Dest, using _Al

  00000	55		 push	 ebp
  00001	8b ec		 mov	 ebp, esp
  00003	51		 push	 ecx

; 470  : 	return (_Uninit_move(_First, _Last, _Dest, _Al,
; 471  : 		_Val_type(_First), _Ptr_cat(_First, _Dest)));

  00004	ff 75 fc	 push	 DWORD PTR __Cat$534650[ebp]
  00007	6a 00		 push	 0
  00009	ff 75 14	 push	 DWORD PTR __Al$[ebp]
  0000c	ff 75 10	 push	 DWORD PTR __Dest$[ebp]
  0000f	ff 75 0c	 push	 DWORD PTR __Last$[ebp]
  00012	ff 75 08	 push	 DWORD PTR __First$[ebp]
  00015	e8 00 00 00 00	 call	 ??$_Uninit_move@PAUDummyTargetAttachInfo@ioTargetTrace7Dummy@@PAU12@V?$allocator@UDummyTargetAttachInfo@ioTargetTrace7Dummy@@@std@@U12@@std@@YAPAUDummyTargetAttachInfo@ioTargetTrace7Dummy@@PAU12@00AAV?$allocator@UDummyTargetAttachInfo@ioTargetTrace7Dummy@@@0@0U_Nonscalar_ptr_iterator_tag@0@@Z ; std::_Uninit_move<ioTargetTrace7Dummy::DummyTargetAttachInfo *,ioTargetTrace7Dummy::DummyTargetAttachInfo *,std::allocator<ioTargetTrace7Dummy::DummyTargetAttachInfo>,ioTargetTrace7Dummy::DummyTargetAttachInfo>
  0001a	83 c4 18	 add	 esp, 24			; 00000018H

; 472  : 	}

  0001d	c9		 leave
  0001e	c3		 ret	 0
??$_Uninitialized_move@PAUDummyTargetAttachInfo@ioTargetTrace7Dummy@@PAU12@V?$allocator@UDummyTargetAttachInfo@ioTargetTrace7Dummy@@@std@@@std@@YAPAUDummyTargetAttachInfo@ioTargetTrace7Dummy@@PAU12@00AAV?$allocator@UDummyTargetAttachInfo@ioTargetTrace7Dummy@@@0@@Z ENDP ; std::_Uninitialized_move<ioTargetTrace7Dummy::DummyTargetAttachInfo *,ioTargetTrace7Dummy::DummyTargetAttachInfo *,std::allocator<ioTargetTrace7Dummy::DummyTargetAttachInfo> >
_TEXT	ENDS
PUBLIC	?erase@?$list@UFireTime@@V?$allocator@UFireTime@@@std@@@std@@QAE?AV?$_List_iterator@V?$_List_val@UFireTime@@V?$allocator@UFireTime@@@std@@@std@@@2@V?$_List_const_iterator@V?$_List_val@UFireTime@@V?$allocator@UFireTime@@@std@@@std@@@2@@Z ; std::list<FireTime,std::allocator<FireTime> >::erase
; Function compile flags: /Ogsp
; File c:\program files (x86)\microsoft visual studio 10.0\vc\include\list
;	COMDAT ?erase@?$list@UFireTime@@V?$allocator@UFireTime@@@std@@@std@@QAE?AV?$_List_iterator@V?$_List_val@UFireTime@@V?$allocator@UFireTime@@@std@@@std@@@2@V?$_List_const_iterator@V?$_List_val@UFireTime@@V?$allocator@UFireTime@@@std@@@std@@@2@@Z
_TEXT	SEGMENT
___$ReturnUdt$ = 8					; size = 4
__Where$ = 12						; size = 4
?erase@?$list@UFireTime@@V?$allocator@UFireTime@@@std@@@std@@QAE?AV?$_List_iterator@V?$_List_val@UFireTime@@V?$allocator@UFireTime@@@std@@@std@@@2@V?$_List_const_iterator@V?$_List_val@UFireTime@@V?$allocator@UFireTime@@@std@@@std@@@2@@Z PROC ; std::list<FireTime,std::allocator<FireTime> >::erase, COMDAT
; _this$ = ecx

; 1054 : 		{	// erase element at _Where

  00000	55		 push	 ebp
  00001	8b ec		 mov	 ebp, esp
  00003	56		 push	 esi

; 1055 :  #if _ITERATOR_DEBUG_LEVEL == 2
; 1056 : 		if (_Where._Getcont() != this || _Where._Ptr == this->_Myhead)
; 1057 : 			_DEBUG_ERROR("list erase iterator outside range");
; 1058 : 		_Nodeptr _Pnode = (_Where++)._Mynode();
; 1059 : 		_Orphan_ptr(*this, _Pnode);
; 1060 : 
; 1061 :  #else /* _ITERATOR_DEBUG_LEVEL == 2 */
; 1062 : 		_Nodeptr _Pnode = (_Where++)._Mynode();

  00004	8b 75 0c	 mov	 esi, DWORD PTR __Where$[ebp]
  00007	8b 06		 mov	 eax, DWORD PTR [esi]
  00009	57		 push	 edi
  0000a	8b f9		 mov	 edi, ecx
  0000c	89 45 0c	 mov	 DWORD PTR __Where$[ebp], eax

; 1063 :  #endif /* _ITERATOR_DEBUG_LEVEL == 2 */
; 1064 : 
; 1065 : 		if (_Pnode != this->_Myhead)

  0000f	3b 37		 cmp	 esi, DWORD PTR [edi]
  00011	74 21		 je	 SHORT $LN1@erase

; 1066 : 			{	// not list head, safe to erase
; 1067 : 			this->_Nextnode(this->_Prevnode(_Pnode)) =
; 1068 : 				this->_Nextnode(_Pnode);

  00013	8b 46 04	 mov	 eax, DWORD PTR [esi+4]
  00016	8b 0e		 mov	 ecx, DWORD PTR [esi]
  00018	89 08		 mov	 DWORD PTR [eax], ecx

; 1069 : 			this->_Prevnode(this->_Nextnode(_Pnode)) =
; 1070 : 				this->_Prevnode(_Pnode);

  0001a	8b 4e 04	 mov	 ecx, DWORD PTR [esi+4]
  0001d	8b 06		 mov	 eax, DWORD PTR [esi]
  0001f	89 48 04	 mov	 DWORD PTR [eax+4], ecx

; 1071 : 
; 1072 : 			_Dest_val(this->_Alnod, _Pnode);

  00022	8d 4e 08	 lea	 ecx, DWORD PTR [esi+8]
  00025	e8 00 00 00 00	 call	 ??1FireTime@@QAE@XZ

; 1073 : 			this->_Alnod.deallocate(_Pnode, 1);

  0002a	56		 push	 esi
  0002b	e8 00 00 00 00	 call	 ??3@YAXPAX@Z		; operator delete

; 1074 : 
; 1075 : 			--this->_Mysize;

  00030	ff 4f 04	 dec	 DWORD PTR [edi+4]
  00033	59		 pop	 ecx
$LN1@erase:

; 1076 : 			}
; 1077 : 		return (_Make_iter(_Where));

  00034	8b 45 08	 mov	 eax, DWORD PTR ___$ReturnUdt$[ebp]
  00037	8b 4d 0c	 mov	 ecx, DWORD PTR __Where$[ebp]
  0003a	5f		 pop	 edi
  0003b	89 08		 mov	 DWORD PTR [eax], ecx
  0003d	5e		 pop	 esi

; 1078 : 		}

  0003e	5d		 pop	 ebp
  0003f	c2 08 00	 ret	 8
?erase@?$list@UFireTime@@V?$allocator@UFireTime@@@std@@@std@@QAE?AV?$_List_iterator@V?$_List_val@UFireTime@@V?$allocator@UFireTime@@@std@@@std@@@2@V?$_List_const_iterator@V?$_List_val@UFireTime@@V?$allocator@UFireTime@@@std@@@std@@@2@@Z ENDP ; std::list<FireTime,std::allocator<FireTime> >::erase
_TEXT	ENDS
PUBLIC	?_Destroy@?$vector@UDummyTargetAttachInfo@ioTargetTrace7Dummy@@V?$allocator@UDummyTargetAttachInfo@ioTargetTrace7Dummy@@@std@@@std@@IAEXPAUDummyTargetAttachInfo@ioTargetTrace7Dummy@@0@Z ; std::vector<ioTargetTrace7Dummy::DummyTargetAttachInfo,std::allocator<ioTargetTrace7Dummy::DummyTargetAttachInfo> >::_Destroy
; Function compile flags: /Ogsp
; File c:\program files (x86)\microsoft visual studio 10.0\vc\include\vector
;	COMDAT ?_Destroy@?$vector@UDummyTargetAttachInfo@ioTargetTrace7Dummy@@V?$allocator@UDummyTargetAttachInfo@ioTargetTrace7Dummy@@@std@@@std@@IAEXPAUDummyTargetAttachInfo@ioTargetTrace7Dummy@@0@Z
_TEXT	SEGMENT
__First$ = 8						; size = 4
__Last$ = 12						; size = 4
?_Destroy@?$vector@UDummyTargetAttachInfo@ioTargetTrace7Dummy@@V?$allocator@UDummyTargetAttachInfo@ioTargetTrace7Dummy@@@std@@@std@@IAEXPAUDummyTargetAttachInfo@ioTargetTrace7Dummy@@0@Z PROC ; std::vector<ioTargetTrace7Dummy::DummyTargetAttachInfo,std::allocator<ioTargetTrace7Dummy::DummyTargetAttachInfo> >::_Destroy, COMDAT
; _this$ = ecx

; 1270 : 		_Destroy_range(_First, _Last, this->_Alval);
; 1271 : 		}

  00000	c2 08 00	 ret	 8
?_Destroy@?$vector@UDummyTargetAttachInfo@ioTargetTrace7Dummy@@V?$allocator@UDummyTargetAttachInfo@ioTargetTrace7Dummy@@@std@@@std@@IAEXPAUDummyTargetAttachInfo@ioTargetTrace7Dummy@@0@Z ENDP ; std::vector<ioTargetTrace7Dummy::DummyTargetAttachInfo,std::allocator<ioTargetTrace7Dummy::DummyTargetAttachInfo> >::_Destroy
_TEXT	ENDS
PUBLIC	??$_Umove@PAUDummyTargetAttachInfo@ioTargetTrace7Dummy@@@?$vector@UDummyTargetAttachInfo@ioTargetTrace7Dummy@@V?$allocator@UDummyTargetAttachInfo@ioTargetTrace7Dummy@@@std@@@std@@IAEPAUDummyTargetAttachInfo@ioTargetTrace7Dummy@@PAU23@00@Z ; std::vector<ioTargetTrace7Dummy::DummyTargetAttachInfo,std::allocator<ioTargetTrace7Dummy::DummyTargetAttachInfo> >::_Umove<ioTargetTrace7Dummy::DummyTargetAttachInfo *>
; Function compile flags: /Ogsp
;	COMDAT ??$_Umove@PAUDummyTargetAttachInfo@ioTargetTrace7Dummy@@@?$vector@UDummyTargetAttachInfo@ioTargetTrace7Dummy@@V?$allocator@UDummyTargetAttachInfo@ioTargetTrace7Dummy@@@std@@@std@@IAEPAUDummyTargetAttachInfo@ioTargetTrace7Dummy@@PAU23@00@Z
_TEXT	SEGMENT
__First$ = 8						; size = 4
__Last$ = 12						; size = 4
__Ptr$ = 16						; size = 4
??$_Umove@PAUDummyTargetAttachInfo@ioTargetTrace7Dummy@@@?$vector@UDummyTargetAttachInfo@ioTargetTrace7Dummy@@V?$allocator@UDummyTargetAttachInfo@ioTargetTrace7Dummy@@@std@@@std@@IAEPAUDummyTargetAttachInfo@ioTargetTrace7Dummy@@PAU23@00@Z PROC ; std::vector<ioTargetTrace7Dummy::DummyTargetAttachInfo,std::allocator<ioTargetTrace7Dummy::DummyTargetAttachInfo> >::_Umove<ioTargetTrace7Dummy::DummyTargetAttachInfo *>, COMDAT
; _this$ = ecx

; 1322 : 		pointer _Umove(_Iter _First, _Iter _Last, pointer _Ptr)

  00000	55		 push	 ebp
  00001	8b ec		 mov	 ebp, esp

; 1323 : 		{	// move initializing [_First, _Last), using allocator
; 1324 : 		return (_Uninitialized_move(_First, _Last,
; 1325 : 			_Ptr, this->_Alval));

  00003	83 c1 0c	 add	 ecx, 12			; 0000000cH
  00006	51		 push	 ecx
  00007	ff 75 10	 push	 DWORD PTR __Ptr$[ebp]
  0000a	ff 75 0c	 push	 DWORD PTR __Last$[ebp]
  0000d	ff 75 08	 push	 DWORD PTR __First$[ebp]
  00010	e8 00 00 00 00	 call	 ??$_Uninitialized_move@PAUDummyTargetAttachInfo@ioTargetTrace7Dummy@@PAU12@V?$allocator@UDummyTargetAttachInfo@ioTargetTrace7Dummy@@@std@@@std@@YAPAUDummyTargetAttachInfo@ioTargetTrace7Dummy@@PAU12@00AAV?$allocator@UDummyTargetAttachInfo@ioTargetTrace7Dummy@@@0@@Z ; std::_Uninitialized_move<ioTargetTrace7Dummy::DummyTargetAttachInfo *,ioTargetTrace7Dummy::DummyTargetAttachInfo *,std::allocator<ioTargetTrace7Dummy::DummyTargetAttachInfo> >
  00015	83 c4 10	 add	 esp, 16			; 00000010H

; 1326 : 		}

  00018	5d		 pop	 ebp
  00019	c2 0c 00	 ret	 12			; 0000000cH
??$_Umove@PAUDummyTargetAttachInfo@ioTargetTrace7Dummy@@@?$vector@UDummyTargetAttachInfo@ioTargetTrace7Dummy@@V?$allocator@UDummyTargetAttachInfo@ioTargetTrace7Dummy@@@std@@@std@@IAEPAUDummyTargetAttachInfo@ioTargetTrace7Dummy@@PAU23@00@Z ENDP ; std::vector<ioTargetTrace7Dummy::DummyTargetAttachInfo,std::allocator<ioTargetTrace7Dummy::DummyTargetAttachInfo> >::_Umove<ioTargetTrace7Dummy::DummyTargetAttachInfo *>
_TEXT	ENDS
PUBLIC	?ProcessTraceAttack@ioTargetTrace7Dummy@@IAEXMK@Z ; ioTargetTrace7Dummy::ProcessTraceAttack
EXTRN	__imp_??4ioHashString@@QAEAAV0@ABV0@@Z:PROC
EXTRN	?GetMidPositionByRate@ioGameEntity@@QBE?AUD3DXVECTOR3@@M@Z:PROC ; ioGameEntity::GetMidPositionByRate
;	COMDAT xdata$x
; File c:\program files (x86)\microsoft visual studio 10.0\vc\include\list
xdata$x	SEGMENT
__unwindtable$?ProcessTraceAttack@ioTargetTrace7Dummy@@IAEXMK@Z DD 0ffffffffH
	DD	FLAT:__unwindfunclet$?ProcessTraceAttack@ioTargetTrace7Dummy@@IAEXMK@Z$0
__ehfuncinfo$?ProcessTraceAttack@ioTargetTrace7Dummy@@IAEXMK@Z DD 019930522H
	DD	01H
	DD	FLAT:__unwindtable$?ProcessTraceAttack@ioTargetTrace7Dummy@@IAEXMK@Z
	DD	2 DUP(00H)
	DD	2 DUP(00H)
	DD	00H
	DD	01H
; Function compile flags: /Ogsp
; File d:\lost saga for developer\youtube\tutorial\source\src\lsclient\iotargettrace7dummy.cpp
xdata$x	ENDS
;	COMDAT ?ProcessTraceAttack@ioTargetTrace7Dummy@@IAEXMK@Z
_TEXT	SEGMENT
$T534838 = -72						; size = 4
_pOwner$ = -68						; size = 4
_dwCurTime$ = -64					; size = 4
tv483 = -60						; size = 4
tv473 = -60						; size = 4
tv469 = -60						; size = 4
tv465 = -60						; size = 4
$T534836 = -56						; size = 16
$T531431 = -52						; size = 12
_vCurPos$ = -40						; size = 12
_vCurDir$ = -28						; size = 12
__$EHRec$ = -12						; size = 12
_fTimePerSec$ = 8					; size = 4
_dwPreTime$ = 12					; size = 4
?ProcessTraceAttack@ioTargetTrace7Dummy@@IAEXMK@Z PROC	; ioTargetTrace7Dummy::ProcessTraceAttack, COMDAT
; _this$ = ecx

; 131  : {

  00000	6a 3c		 push	 60			; 0000003cH
  00002	b8 00 00 00 00	 mov	 eax, __ehhandler$?ProcessTraceAttack@ioTargetTrace7Dummy@@IAEXMK@Z
  00007	e8 00 00 00 00	 call	 __EH_prolog3_GS
  0000c	8b f1		 mov	 esi, ecx

; 132  : 	static int i = 0;
; 133  : 	ioBaseChar *pOwner = GetOwner();

  0000e	e8 00 00 00 00	 call	 ?GetOwner@ioDummyChar@@QBEPAVioBaseChar@@XZ ; ioDummyChar::GetOwner
  00013	89 45 bc	 mov	 DWORD PTR _pOwner$[ebp], eax

; 134  : 	if( !pOwner ) return;

  00016	85 c0		 test	 eax, eax
  00018	0f 84 53 01 00
	00		 je	 $LN1@ProcessTra

; 135  : 
; 136  : 	ioPlayStage *pStage = pOwner->GetCreator();
; 137  : 	if( !pStage ) return;

  0001e	83 b8 44 03 00
	00 00		 cmp	 DWORD PTR [eax+836], 0
  00025	0f 84 46 01 00
	00		 je	 $LN1@ProcessTra

; 138  : 
; 139  : 	DWORD dwCurTime = FRAMEGETTIME();

  0002b	ff 15 00 00 00
	00		 call	 DWORD PTR __imp_?GetSingleton@ioFrameTimer@@SAAAV1@XZ
  00031	8b c8		 mov	 ecx, eax
  00033	ff 15 00 00 00
	00		 call	 DWORD PTR __imp_?GetLoopSec@ioFrameTimer@@QBEKXZ
  00039	89 45 c0	 mov	 DWORD PTR _dwCurTime$[ebp], eax

; 140  : 
; 141  : 	D3DXVECTOR3 vCurDir = GetWorldOrientation() * D3DXVECTOR3( 0.0f, 0.0f, -FLOAT1 );

  0003c	b8 01 00 00 00	 mov	 eax, 1
  00041	0f 57 c0	 xorps	 xmm0, xmm0
  00044	89 45 c4	 mov	 DWORD PTR tv483[ebp], eax
  00047	db 45 c4	 fild	 DWORD PTR tv483[ebp]
  0004a	f3 0f 11 45 cc	 movss	 DWORD PTR $T531431[ebp], xmm0
  0004f	f3 0f 11 45 d0	 movss	 DWORD PTR $T531431[ebp+4], xmm0
  00054	85 c0		 test	 eax, eax
  00056	79 06		 jns	 SHORT $LN64@ProcessTra
  00058	d8 05 00 00 00
	00		 fadd	 DWORD PTR __real@4f800000
$LN64@ProcessTra:
  0005e	8d 45 cc	 lea	 eax, DWORD PTR $T531431[ebp]
  00061	d9 e0		 fchs
  00063	50		 push	 eax
  00064	d9 5d d4	 fstp	 DWORD PTR $T531431[ebp+8]
  00067	8b 06		 mov	 eax, DWORD PTR [esi]
  00069	8b ce		 mov	 ecx, esi
  0006b	ff 50 74	 call	 DWORD PTR [eax+116]
  0006e	50		 push	 eax
  0006f	8d 45 e4	 lea	 eax, DWORD PTR _vCurDir$[ebp]
  00072	50		 push	 eax
  00073	ff 15 00 00 00
	00		 call	 DWORD PTR __imp_??D@YA?AUD3DXVECTOR3@@ABUD3DXQUATERNION@@ABU0@@Z
  00079	83 c4 0c	 add	 esp, 12			; 0000000cH

; 142  : 	D3DXVec3Normalize( &vCurDir, &vCurDir );

  0007c	8d 45 e4	 lea	 eax, DWORD PTR _vCurDir$[ebp]
  0007f	50		 push	 eax
  00080	50		 push	 eax
  00081	e8 00 00 00 00	 call	 _D3DXVec3Normalize@8

; 143  : 
; 144  : 	D3DXVECTOR3 vCurPos = GetMidPositionByRate();

  00086	b8 05 00 00 00	 mov	 eax, 5
  0008b	8b c8		 mov	 ecx, eax
  0008d	b8 0a 00 00 00	 mov	 eax, 10			; 0000000aH
  00092	89 4d c4	 mov	 DWORD PTR tv473[ebp], ecx
  00095	db 45 c4	 fild	 DWORD PTR tv473[ebp]
  00098	85 c9		 test	 ecx, ecx
  0009a	79 06		 jns	 SHORT $LN65@ProcessTra
  0009c	d8 05 00 00 00
	00		 fadd	 DWORD PTR __real@4f800000
$LN65@ProcessTra:
  000a2	89 45 c4	 mov	 DWORD PTR tv469[ebp], eax
  000a5	db 45 c4	 fild	 DWORD PTR tv469[ebp]
  000a8	85 c0		 test	 eax, eax
  000aa	79 06		 jns	 SHORT $LN66@ProcessTra
  000ac	d8 05 00 00 00
	00		 fadd	 DWORD PTR __real@4f800000
$LN66@ProcessTra:
  000b2	de f9		 fdivp	 ST(1), ST(0)
  000b4	51		 push	 ecx
  000b5	8d 45 d8	 lea	 eax, DWORD PTR _vCurPos$[ebp]
  000b8	8b ce		 mov	 ecx, esi
  000ba	d9 5d c4	 fstp	 DWORD PTR tv465[ebp]
  000bd	d9 45 c4	 fld	 DWORD PTR tv465[ebp]
  000c0	d9 1c 24	 fstp	 DWORD PTR [esp]
  000c3	50		 push	 eax
  000c4	e8 00 00 00 00	 call	 ?GetMidPositionByRate@ioGameEntity@@QBE?AUD3DXVECTOR3@@M@Z ; ioGameEntity::GetMidPositionByRate

; 145  : 
; 146  : 	DWORD dwLastFireTime = dwPreTime;
; 147  : 	FireTimeList::iterator iter = m_vAttackFireTimeList.begin();

  000c9	8b 86 78 05 00
	00		 mov	 eax, DWORD PTR [esi+1400]
  000cf	8b 38		 mov	 edi, DWORD PTR [eax]

; 148  : 	while( iter != m_vAttackFireTimeList.end() )

  000d1	3b f8		 cmp	 edi, eax
  000d3	74 68		 je	 SHORT $LN7@ProcessTra
$LL8@ProcessTra:

; 149  : 	{
; 150  : 		const FireTime &rkFire = *iter;
; 151  : 
; 152  : 		DWORD dwFireTime = rkFire.dwStart;

  000d5	8b 47 08	 mov	 eax, DWORD PTR [edi+8]

; 153  : 		if( COMPARE( dwFireTime, dwPreTime, dwCurTime ) )

  000d8	3b 45 0c	 cmp	 eax, DWORD PTR _dwPreTime$[ebp]
  000db	72 56		 jb	 SHORT $LN6@ProcessTra
  000dd	3b 45 c0	 cmp	 eax, DWORD PTR _dwCurTime$[ebp]
  000e0	73 51		 jae	 SHORT $LN6@ProcessTra

; 154  : 		{
; 155  : 			if( rkFire.iAttributeIdx != NO_WEAPON_ATTRIBUTE )

  000e2	83 7f 10 00	 cmp	 DWORD PTR [edi+16], 0
  000e6	74 37		 je	 SHORT $LN5@ProcessTra

; 156  : 			{
; 157  : 				pOwner->ExtendFireExplicit( rkFire, vCurPos, vCurDir, "" );

  000e8	68 00 00 00 00	 push	 OFFSET ??_C@_00CNPNBAHC@?$AA@
  000ed	8d 4d c8	 lea	 ecx, DWORD PTR $T534836[ebp]
  000f0	ff 15 00 00 00
	00		 call	 DWORD PTR __imp_??0ioHashString@@QAE@PBD@Z
  000f6	8b 4d bc	 mov	 ecx, DWORD PTR _pOwner$[ebp]
  000f9	83 65 fc 00	 and	 DWORD PTR __$EHRec$[ebp+8], 0
  000fd	8d 45 c8	 lea	 eax, DWORD PTR $T534836[ebp]
  00100	50		 push	 eax
  00101	8d 45 e4	 lea	 eax, DWORD PTR _vCurDir$[ebp]
  00104	50		 push	 eax
  00105	8d 45 d8	 lea	 eax, DWORD PTR _vCurPos$[ebp]
  00108	50		 push	 eax
  00109	8d 47 08	 lea	 eax, DWORD PTR [edi+8]
  0010c	50		 push	 eax
  0010d	e8 00 00 00 00	 call	 ?ExtendFireExplicit@ioBaseChar@@QAEPAVioWeapon@@ABUFireTime@@ABUD3DXVECTOR3@@1ABVioHashString@@@Z ; ioBaseChar::ExtendFireExplicit
  00112	83 4d fc ff	 or	 DWORD PTR __$EHRec$[ebp+8], -1
  00116	8d 4d c8	 lea	 ecx, DWORD PTR $T534836[ebp]
  00119	ff 15 00 00 00
	00		 call	 DWORD PTR __imp_??1ioHashString@@QAE@XZ
$LN5@ProcessTra:

; 158  : 			}
; 159  : 
; 160  : 			iter = m_vAttackFireTimeList.erase( iter );

  0011f	57		 push	 edi
  00120	8d 45 b8	 lea	 eax, DWORD PTR $T534838[ebp]
  00123	50		 push	 eax
  00124	8d 8e 78 05 00
	00		 lea	 ecx, DWORD PTR [esi+1400]
  0012a	e8 00 00 00 00	 call	 ?erase@?$list@UFireTime@@V?$allocator@UFireTime@@@std@@@std@@QAE?AV?$_List_iterator@V?$_List_val@UFireTime@@V?$allocator@UFireTime@@@std@@@std@@@2@V?$_List_const_iterator@V?$_List_val@UFireTime@@V?$allocator@UFireTime@@@std@@@std@@@2@@Z ; std::list<FireTime,std::allocator<FireTime> >::erase
  0012f	8b 38		 mov	 edi, DWORD PTR [eax]

; 161  : 		}
; 162  : 		else

  00131	eb 02		 jmp	 SHORT $LN58@ProcessTra
$LN6@ProcessTra:

; 163  : 		{
; 164  : 			++iter;

  00133	8b 3f		 mov	 edi, DWORD PTR [edi]
$LN58@ProcessTra:

; 148  : 	while( iter != m_vAttackFireTimeList.end() )

  00135	3b be 78 05 00
	00		 cmp	 edi, DWORD PTR [esi+1400]
  0013b	75 98		 jne	 SHORT $LL8@ProcessTra
$LN7@ProcessTra:

; 165  : 		}
; 166  : 	}
; 167  : 
; 168  : 
; 169  : 	if( m_dwAttackAniEndTime == 0 || m_dwAttackAniEndTime < dwCurTime )

  0013d	8b 86 e8 06 00
	00		 mov	 eax, DWORD PTR [esi+1768]
  00143	85 c0		 test	 eax, eax
  00145	74 05		 je	 SHORT $LN2@ProcessTra
  00147	3b 45 c0	 cmp	 eax, DWORD PTR _dwCurTime$[ebp]
  0014a	73 25		 jae	 SHORT $LN1@ProcessTra
$LN2@ProcessTra:

; 170  : 	{
; 171  : 		if( m_DummyCharType == DCT_TARGET_TRACE7 )

  0014c	83 be 2c 02 00
	00 24		 cmp	 DWORD PTR [esi+556], 36	; 00000024H
  00153	75 1c		 jne	 SHORT $LN1@ProcessTra

; 172  : 		{
; 173  : 			m_LastAttacker = m_OwnerName;

  00155	8d 86 cc 01 00
	00		 lea	 eax, DWORD PTR [esi+460]
  0015b	50		 push	 eax
  0015c	8d 8e 30 05 00
	00		 lea	 ecx, DWORD PTR [esi+1328]
  00162	ff 15 00 00 00
	00		 call	 DWORD PTR __imp_??4ioHashString@@QAEAAV0@ABV0@@Z

; 174  : 			SetTargetAttachState( false );

  00168	6a 00		 push	 0
  0016a	8b ce		 mov	 ecx, esi
  0016c	e8 00 00 00 00	 call	 ?SetTargetAttachState@ioTargetTrace7Dummy@@IAEX_N@Z ; ioTargetTrace7Dummy::SetTargetAttachState
$LN1@ProcessTra:

; 175  : 			return;
; 176  : 		}
; 177  : 	}
; 178  : 
; 179  : }

  00171	e8 00 00 00 00	 call	 __EH_epilog3_GS
  00176	c2 08 00	 ret	 8
_TEXT	ENDS
;	COMDAT text$x
text$x	SEGMENT
__unwindfunclet$?ProcessTraceAttack@ioTargetTrace7Dummy@@IAEXMK@Z$0:
  00000	8d 4d c8	 lea	 ecx, DWORD PTR $T534836[ebp]
  00003	ff 25 00 00 00
	00		 jmp	 DWORD PTR __imp_??1ioHashString@@QAE@XZ
__ehhandler$?ProcessTraceAttack@ioTargetTrace7Dummy@@IAEXMK@Z:
  00009	8b 54 24 08	 mov	 edx, DWORD PTR [esp+8]
  0000d	8d 42 0c	 lea	 eax, DWORD PTR [edx+12]
  00010	8b 4a b4	 mov	 ecx, DWORD PTR [edx-76]
  00013	33 c8		 xor	 ecx, eax
  00015	e8 00 00 00 00	 call	 @__security_check_cookie@4
  0001a	8b 4a fc	 mov	 ecx, DWORD PTR [edx-4]
  0001d	33 c8		 xor	 ecx, eax
  0001f	e8 00 00 00 00	 call	 @__security_check_cookie@4
  00024	b8 00 00 00 00	 mov	 eax, OFFSET __ehfuncinfo$?ProcessTraceAttack@ioTargetTrace7Dummy@@IAEXMK@Z
  00029	e9 00 00 00 00	 jmp	 ___CxxFrameHandler3
text$x	ENDS
?ProcessTraceAttack@ioTargetTrace7Dummy@@IAEXMK@Z ENDP	; ioTargetTrace7Dummy::ProcessTraceAttack
PUBLIC	?_Tidy@?$vector@UDummyTargetAttachInfo@ioTargetTrace7Dummy@@V?$allocator@UDummyTargetAttachInfo@ioTargetTrace7Dummy@@@std@@@std@@IAEXXZ ; std::vector<ioTargetTrace7Dummy::DummyTargetAttachInfo,std::allocator<ioTargetTrace7Dummy::DummyTargetAttachInfo> >::_Tidy
EXTRN	__imp_?_Orphan_all@_Container_base0@std@@QAEXXZ:PROC
; Function compile flags: /Ogsp
; File c:\program files (x86)\microsoft visual studio 10.0\vc\include\vector
;	COMDAT ?_Tidy@?$vector@UDummyTargetAttachInfo@ioTargetTrace7Dummy@@V?$allocator@UDummyTargetAttachInfo@ioTargetTrace7Dummy@@@std@@@std@@IAEXXZ
_TEXT	SEGMENT
?_Tidy@?$vector@UDummyTargetAttachInfo@ioTargetTrace7Dummy@@V?$allocator@UDummyTargetAttachInfo@ioTargetTrace7Dummy@@@std@@@std@@IAEXXZ PROC ; std::vector<ioTargetTrace7Dummy::DummyTargetAttachInfo,std::allocator<ioTargetTrace7Dummy::DummyTargetAttachInfo> >::_Tidy, COMDAT
; _this$ = ecx

; 1301 : 		{	// free all storage

  00000	56		 push	 esi
  00001	8b f1		 mov	 esi, ecx

; 1302 : 		if (this->_Myfirst != 0)

  00003	83 3e 00	 cmp	 DWORD PTR [esi], 0
  00006	74 0e		 je	 SHORT $LN21@Tidy

; 1303 : 			{	// something to free, destroy and deallocate it
; 1304 : 			this->_Orphan_all();

  00008	ff 15 00 00 00
	00		 call	 DWORD PTR __imp_?_Orphan_all@_Container_base0@std@@QAEXXZ

; 1305 : 			_Destroy(this->_Myfirst, this->_Mylast);
; 1306 : 			this->_Alval.deallocate(this->_Myfirst,
; 1307 : 				this->_Myend - this->_Myfirst);

  0000e	ff 36		 push	 DWORD PTR [esi]
  00010	e8 00 00 00 00	 call	 ??3@YAXPAX@Z		; operator delete
  00015	59		 pop	 ecx
$LN21@Tidy:

; 1308 : 			}
; 1309 : 		this->_Myfirst = 0;

  00016	83 26 00	 and	 DWORD PTR [esi], 0

; 1310 : 		this->_Mylast = 0;

  00019	83 66 04 00	 and	 DWORD PTR [esi+4], 0

; 1311 : 		this->_Myend = 0;

  0001d	83 66 08 00	 and	 DWORD PTR [esi+8], 0
  00021	5e		 pop	 esi

; 1312 : 		}

  00022	c3		 ret	 0
?_Tidy@?$vector@UDummyTargetAttachInfo@ioTargetTrace7Dummy@@V?$allocator@UDummyTargetAttachInfo@ioTargetTrace7Dummy@@@std@@@std@@IAEXXZ ENDP ; std::vector<ioTargetTrace7Dummy::DummyTargetAttachInfo,std::allocator<ioTargetTrace7Dummy::DummyTargetAttachInfo> >::_Tidy
_TEXT	ENDS
PUBLIC	?reserve@?$vector@UDummyTargetAttachInfo@ioTargetTrace7Dummy@@V?$allocator@UDummyTargetAttachInfo@ioTargetTrace7Dummy@@@std@@@std@@QAEXI@Z ; std::vector<ioTargetTrace7Dummy::DummyTargetAttachInfo,std::allocator<ioTargetTrace7Dummy::DummyTargetAttachInfo> >::reserve
EXTRN	__EH_prolog3_catch:PROC
;	COMDAT xdata$x
; File c:\program files (x86)\microsoft visual studio 10.0\vc\include\xmemory
xdata$x	SEGMENT
__catchsym$?reserve@?$vector@UDummyTargetAttachInfo@ioTargetTrace7Dummy@@V?$allocator@UDummyTargetAttachInfo@ioTargetTrace7Dummy@@@std@@@std@@QAEXI@Z$2 DD 040H
	DD	00H
	DD	00H
	DD	FLAT:__catch$?reserve@?$vector@UDummyTargetAttachInfo@ioTargetTrace7Dummy@@V?$allocator@UDummyTargetAttachInfo@ioTargetTrace7Dummy@@@std@@@std@@QAEXI@Z$0
__unwindtable$?reserve@?$vector@UDummyTargetAttachInfo@ioTargetTrace7Dummy@@V?$allocator@UDummyTargetAttachInfo@ioTargetTrace7Dummy@@@std@@@std@@QAEXI@Z DD 0ffffffffH
	DD	00H
	DD	0ffffffffH
	DD	00H
__tryblocktable$?reserve@?$vector@UDummyTargetAttachInfo@ioTargetTrace7Dummy@@V?$allocator@UDummyTargetAttachInfo@ioTargetTrace7Dummy@@@std@@@std@@QAEXI@Z DD 00H
	DD	00H
	DD	01H
	DD	01H
	DD	FLAT:__catchsym$?reserve@?$vector@UDummyTargetAttachInfo@ioTargetTrace7Dummy@@V?$allocator@UDummyTargetAttachInfo@ioTargetTrace7Dummy@@@std@@@std@@QAEXI@Z$2
__ehfuncinfo$?reserve@?$vector@UDummyTargetAttachInfo@ioTargetTrace7Dummy@@V?$allocator@UDummyTargetAttachInfo@ioTargetTrace7Dummy@@@std@@@std@@QAEXI@Z DD 019930522H
	DD	02H
	DD	FLAT:__unwindtable$?reserve@?$vector@UDummyTargetAttachInfo@ioTargetTrace7Dummy@@V?$allocator@UDummyTargetAttachInfo@ioTargetTrace7Dummy@@@std@@@std@@QAEXI@Z
	DD	01H
	DD	FLAT:__tryblocktable$?reserve@?$vector@UDummyTargetAttachInfo@ioTargetTrace7Dummy@@V?$allocator@UDummyTargetAttachInfo@ioTargetTrace7Dummy@@@std@@@std@@QAEXI@Z
	DD	2 DUP(00H)
	DD	00H
	DD	01H
; Function compile flags: /Ogsp
; File c:\program files (x86)\microsoft visual studio 10.0\vc\include\vector
xdata$x	ENDS
;	COMDAT ?reserve@?$vector@UDummyTargetAttachInfo@ioTargetTrace7Dummy@@V?$allocator@UDummyTargetAttachInfo@ioTargetTrace7Dummy@@@std@@@std@@QAEXI@Z
_TEXT	SEGMENT
__$EHRec$ = -16						; size = 16
__Ptr$531960 = 8					; size = 4
__Count$ = 8						; size = 4
?reserve@?$vector@UDummyTargetAttachInfo@ioTargetTrace7Dummy@@V?$allocator@UDummyTargetAttachInfo@ioTargetTrace7Dummy@@@std@@@std@@QAEXI@Z PROC ; std::vector<ioTargetTrace7Dummy::DummyTargetAttachInfo,std::allocator<ioTargetTrace7Dummy::DummyTargetAttachInfo> >::reserve, COMDAT
; _this$ = ecx

; 746  : 		{	// determine new minimum length of allocated storage

  00000	6a 04		 push	 4
  00002	b8 00 00 00 00	 mov	 eax, __ehhandler$?reserve@?$vector@UDummyTargetAttachInfo@ioTargetTrace7Dummy@@V?$allocator@UDummyTargetAttachInfo@ioTargetTrace7Dummy@@@std@@@std@@QAEXI@Z
  00007	e8 00 00 00 00	 call	 __EH_prolog3_catch
  0000c	8b f1		 mov	 esi, ecx

; 747  : 		if (max_size() < _Count)

  0000e	8b 5d 08	 mov	 ebx, DWORD PTR __Count$[ebp]
  00011	81 fb 55 55 55
	15		 cmp	 ebx, 357913941		; 15555555H
  00017	76 0b		 jbe	 SHORT $LN5@reserve

; 748  : 			_Xlen();	// result too long

  00019	68 00 00 00 00	 push	 OFFSET ??_C@_0BD@OLBABOEK@vector?$DMT?$DO?5too?5long?$AA@
  0001e	ff 15 00 00 00
	00		 call	 DWORD PTR __imp_?_Xlength_error@std@@YAXPBD@Z
$LN56@reserve:
$LN5@reserve:

; 749  : 		else if (capacity() < _Count)

  00024	8b 46 08	 mov	 eax, DWORD PTR [esi+8]
  00027	2b 06		 sub	 eax, DWORD PTR [esi]
  00029	6a 0c		 push	 12			; 0000000cH
  0002b	99		 cdq
  0002c	59		 pop	 ecx
  0002d	f7 f9		 idiv	 ecx
  0002f	3b c3		 cmp	 eax, ebx
  00031	73 6b		 jae	 SHORT $LN3@reserve

; 750  : 			{	// not enough room, reallocate
; 751  : 			pointer _Ptr = this->_Alval.allocate(_Count);

  00033	6a 00		 push	 0
  00035	53		 push	 ebx
  00036	e8 00 00 00 00	 call	 ??$_Allocate@UDummyTargetAttachInfo@ioTargetTrace7Dummy@@@std@@YAPAUDummyTargetAttachInfo@ioTargetTrace7Dummy@@IPAU12@@Z ; std::_Allocate<ioTargetTrace7Dummy::DummyTargetAttachInfo>

; 752  : 
; 753  : 			_TRY_BEGIN
; 754  : 			_Umove(this->_Myfirst, this->_Mylast, _Ptr);

  0003b	8b 0e		 mov	 ecx, DWORD PTR [esi]
  0003d	83 65 fc 00	 and	 DWORD PTR __$EHRec$[ebp+12], 0
  00041	8d 56 0c	 lea	 edx, DWORD PTR [esi+12]
  00044	52		 push	 edx
  00045	89 45 08	 mov	 DWORD PTR __Ptr$531960[ebp], eax
  00048	ff 75 08	 push	 DWORD PTR __Ptr$531960[ebp]
  0004b	8b 46 04	 mov	 eax, DWORD PTR [esi+4]
  0004e	50		 push	 eax
  0004f	51		 push	 ecx
  00050	e8 00 00 00 00	 call	 ??$_Uninitialized_move@PAUDummyTargetAttachInfo@ioTargetTrace7Dummy@@PAU12@V?$allocator@UDummyTargetAttachInfo@ioTargetTrace7Dummy@@@std@@@std@@YAPAUDummyTargetAttachInfo@ioTargetTrace7Dummy@@PAU12@00AAV?$allocator@UDummyTargetAttachInfo@ioTargetTrace7Dummy@@@0@@Z ; std::_Uninitialized_move<ioTargetTrace7Dummy::DummyTargetAttachInfo *,ioTargetTrace7Dummy::DummyTargetAttachInfo *,std::allocator<ioTargetTrace7Dummy::DummyTargetAttachInfo> >

; 758  : 			_CATCH_END
; 759  : 
; 760  : 			size_type _Size = size();

  00055	8b 0e		 mov	 ecx, DWORD PTR [esi]
  00057	8b 46 04	 mov	 eax, DWORD PTR [esi+4]
  0005a	83 c4 18	 add	 esp, 24			; 00000018H
  0005d	2b c1		 sub	 eax, ecx
  0005f	6a 0c		 push	 12			; 0000000cH
  00061	99		 cdq
  00062	5f		 pop	 edi
  00063	f7 ff		 idiv	 edi
  00065	83 4d fc ff	 or	 DWORD PTR __$EHRec$[ebp+12], -1
  00069	8b f8		 mov	 edi, eax
  0006b	85 c9		 test	 ecx, ecx
  0006d	74 12		 je	 SHORT $LN48@reserve

; 761  : 			if (this->_Myfirst != 0)

  0006f	eb 03		 jmp	 SHORT $LN55@reserve

; 762  : 				{	// destroy and deallocate old array
; 763  : 				_Destroy(this->_Myfirst, this->_Mylast);

$LL39@reserve:
  00071	83 c1 0c	 add	 ecx, 12			; 0000000cH
$LN55@reserve:
  00074	3b 4e 04	 cmp	 ecx, DWORD PTR [esi+4]
  00077	75 f8		 jne	 SHORT $LL39@reserve

; 764  : 				this->_Alval.deallocate(this->_Myfirst,
; 765  : 					this->_Myend - this->_Myfirst);

  00079	ff 36		 push	 DWORD PTR [esi]
  0007b	e8 00 00 00 00	 call	 ??3@YAXPAX@Z		; operator delete
  00080	59		 pop	 ecx
$LN48@reserve:

; 766  : 				}
; 767  : 
; 768  : 			this->_Orphan_all();

  00081	8b ce		 mov	 ecx, esi
  00083	ff 15 00 00 00
	00		 call	 DWORD PTR __imp_?_Orphan_all@_Container_base0@std@@QAEXXZ

; 769  : 			this->_Myend = _Ptr + _Count;

  00089	6b db 0c	 imul	 ebx, 12			; 0000000cH

; 770  : 			this->_Mylast = _Ptr + _Size;

  0008c	6b ff 0c	 imul	 edi, 12			; 0000000cH
  0008f	8b 45 08	 mov	 eax, DWORD PTR __Ptr$531960[ebp]
  00092	03 d8		 add	 ebx, eax
  00094	03 f8		 add	 edi, eax
  00096	89 5e 08	 mov	 DWORD PTR [esi+8], ebx
  00099	89 7e 04	 mov	 DWORD PTR [esi+4], edi

; 771  : 			this->_Myfirst = _Ptr;

  0009c	89 06		 mov	 DWORD PTR [esi], eax
$LN3@reserve:

; 772  : 			}
; 773  : 		}

  0009e	e8 00 00 00 00	 call	 __EH_epilog3
  000a3	c2 04 00	 ret	 4
__catch$?reserve@?$vector@UDummyTargetAttachInfo@ioTargetTrace7Dummy@@V?$allocator@UDummyTargetAttachInfo@ioTargetTrace7Dummy@@@std@@@std@@QAEXI@Z$0:

; 755  : 			_CATCH_ALL
; 756  : 			this->_Alval.deallocate(_Ptr, _Count);

  000a6	ff 75 08	 push	 DWORD PTR __Ptr$531960[ebp]
  000a9	e8 00 00 00 00	 call	 ??3@YAXPAX@Z		; operator delete
  000ae	59		 pop	 ecx

; 757  : 			_RERAISE;

  000af	6a 00		 push	 0
  000b1	6a 00		 push	 0
  000b3	e8 00 00 00 00	 call	 __CxxThrowException@8
$LN57@reserve:
$LN54@reserve:
  000b8	cc		 int	 3
_TEXT	ENDS
;	COMDAT text$x
text$x	SEGMENT
__ehhandler$?reserve@?$vector@UDummyTargetAttachInfo@ioTargetTrace7Dummy@@V?$allocator@UDummyTargetAttachInfo@ioTargetTrace7Dummy@@@std@@@std@@QAEXI@Z:
  00000	8b 54 24 08	 mov	 edx, DWORD PTR [esp+8]
  00004	8d 42 0c	 lea	 eax, DWORD PTR [edx+12]
  00007	8b 4a ec	 mov	 ecx, DWORD PTR [edx-20]
  0000a	33 c8		 xor	 ecx, eax
  0000c	e8 00 00 00 00	 call	 @__security_check_cookie@4
  00011	b8 00 00 00 00	 mov	 eax, OFFSET __ehfuncinfo$?reserve@?$vector@UDummyTargetAttachInfo@ioTargetTrace7Dummy@@V?$allocator@UDummyTargetAttachInfo@ioTargetTrace7Dummy@@@std@@@std@@QAEXI@Z
  00016	e9 00 00 00 00	 jmp	 ___CxxFrameHandler3
text$x	ENDS
?reserve@?$vector@UDummyTargetAttachInfo@ioTargetTrace7Dummy@@V?$allocator@UDummyTargetAttachInfo@ioTargetTrace7Dummy@@@std@@@std@@QAEXI@Z ENDP ; std::vector<ioTargetTrace7Dummy::DummyTargetAttachInfo,std::allocator<ioTargetTrace7Dummy::DummyTargetAttachInfo> >::reserve
PUBLIC	?ProcessTraceState@ioTargetTrace7Dummy@@IAEXMK@Z ; ioTargetTrace7Dummy::ProcessTraceState
EXTRN	?CheckTraceStateEnd@ioDummyChar@@IAEXXZ:PROC	; ioDummyChar::CheckTraceStateEnd
EXTRN	?CheckTraceAttack@ioDummyChar@@IAEXXZ:PROC	; ioDummyChar::CheckTraceAttack
EXTRN	?ProcessTraceSensing@ioDummyChar@@IAEXM@Z:PROC	; ioDummyChar::ProcessTraceSensing
EXTRN	?ProcessTraceTracingNoneTerrain@ioDummyChar@@IAEXM@Z:PROC ; ioDummyChar::ProcessTraceTracingNoneTerrain
EXTRN	?CheckExtraAniJump@ioDummyChar@@IAEXXZ:PROC	; ioDummyChar::CheckExtraAniJump
EXTRN	?CheckReservedSliding@ioDummyChar@@QAEXXZ:PROC	; ioDummyChar::CheckReservedSliding
; Function compile flags: /Ogsp
; File d:\lost saga for developer\youtube\tutorial\source\src\lsclient\iotargettrace7dummy.cpp
;	COMDAT ?ProcessTraceState@ioTargetTrace7Dummy@@IAEXMK@Z
_TEXT	SEGMENT
_fTimePerSec$ = 8					; size = 4
_dwPreTime$ = 12					; size = 4
?ProcessTraceState@ioTargetTrace7Dummy@@IAEXMK@Z PROC	; ioTargetTrace7Dummy::ProcessTraceState, COMDAT
; _this$ = ecx

; 100  : {

  00000	55		 push	 ebp
  00001	8b ec		 mov	 ebp, esp
  00003	56		 push	 esi
  00004	8b f1		 mov	 esi, ecx

; 101  : 	ioBaseChar *pOwner = GetOwner();

  00006	e8 00 00 00 00	 call	 ?GetOwner@ioDummyChar@@QBEPAVioBaseChar@@XZ ; ioDummyChar::GetOwner

; 102  : 	if( !pOwner ) return;

  0000b	85 c0		 test	 eax, eax
  0000d	0f 84 80 00 00
	00		 je	 $LN9@ProcessTra@2

; 103  : 
; 104  : 	ioPlayStage *pStage = pOwner->GetCreator();
; 105  : 	if( !pStage ) return;

  00013	83 b8 44 03 00
	00 00		 cmp	 DWORD PTR [eax+836], 0
  0001a	74 77		 je	 SHORT $LN9@ProcessTra@2

; 106  : 
; 107  : 	DWORD dwCurTime = FRAMEGETTIME();

  0001c	ff 15 00 00 00
	00		 call	 DWORD PTR __imp_?GetSingleton@ioFrameTimer@@SAAAV1@XZ
  00022	8b c8		 mov	 ecx, eax
  00024	ff 15 00 00 00
	00		 call	 DWORD PTR __imp_?GetLoopSec@ioFrameTimer@@QBEKXZ

; 108  : 
; 109  : 	switch( m_TraceState )

  0002a	8b 86 34 07 00
	00		 mov	 eax, DWORD PTR [esi+1844]
  00030	48		 dec	 eax
  00031	48		 dec	 eax
  00032	74 3f		 je	 SHORT $LN3@ProcessTra@2
  00034	48		 dec	 eax
  00035	74 28		 je	 SHORT $LN2@ProcessTra@2
  00037	48		 dec	 eax
  00038	75 4b		 jne	 SHORT $LN5@ProcessTra@2

; 119  : 	case DCTS_ATTACK:
; 120  : 		CheckReservedSliding();

  0003a	8b ce		 mov	 ecx, esi
  0003c	e8 00 00 00 00	 call	 ?CheckReservedSliding@ioDummyChar@@QAEXXZ ; ioDummyChar::CheckReservedSliding

; 121  : 		CheckExtraAniJump();

  00041	8b ce		 mov	 ecx, esi
  00043	e8 00 00 00 00	 call	 ?CheckExtraAniJump@ioDummyChar@@IAEXXZ ; ioDummyChar::CheckExtraAniJump

; 122  : 		ProcessTraceAttack( fTimePerSec, dwPreTime );

  00048	ff 75 0c	 push	 DWORD PTR _dwPreTime$[ebp]
  0004b	f3 0f 10 45 08	 movss	 xmm0, DWORD PTR _fTimePerSec$[ebp]
  00050	51		 push	 ecx
  00051	8b ce		 mov	 ecx, esi
  00053	f3 0f 11 04 24	 movss	 DWORD PTR [esp], xmm0
  00058	e8 00 00 00 00	 call	 ?ProcessTraceAttack@ioTargetTrace7Dummy@@IAEXMK@Z ; ioTargetTrace7Dummy::ProcessTraceAttack

; 123  : 		break;

  0005d	eb 26		 jmp	 SHORT $LN5@ProcessTra@2
$LN2@ProcessTra@2:

; 115  : 		break;
; 116  : 	case DCTS_TRACING:
; 117  : 		ProcessTraceTracingNoneTerrain( fTimePerSec );

  0005f	f3 0f 10 45 08	 movss	 xmm0, DWORD PTR _fTimePerSec$[ebp]
  00064	51		 push	 ecx
  00065	8b ce		 mov	 ecx, esi
  00067	f3 0f 11 04 24	 movss	 DWORD PTR [esp], xmm0
  0006c	e8 00 00 00 00	 call	 ?ProcessTraceTracingNoneTerrain@ioDummyChar@@IAEXM@Z ; ioDummyChar::ProcessTraceTracingNoneTerrain

; 118  : 		break;

  00071	eb 12		 jmp	 SHORT $LN5@ProcessTra@2
$LN3@ProcessTra@2:

; 110  : 	{
; 111  : 	case DCTS_NONE:
