; Listing generated by Microsoft (R) Optimizing Compiler Version 16.00.30319.01 

	TITLE	D:\Lost Saga For Developer\Youtube\Tutorial\Source\src\LSClient\ioTargetTrace10Dummy.cpp
	.686P
	.XMM
	include listing.inc
	.model	flat

INCLUDELIB MSVCRT
INCLUDELIB OLDNAMES

PUBLIC	?_EEM_DS@?$deque@UD3DXVECTOR3@@V?$allocator@UD3DXVECTOR3@@@std@@@std@@2HB ; std::deque<D3DXVECTOR3,std::allocator<D3DXVECTOR3> >::_EEM_DS
;	COMDAT ?_EEM_DS@?$deque@UD3DXVECTOR3@@V?$allocator@UD3DXVECTOR3@@@std@@@std@@2HB
CONST	SEGMENT
?_EEM_DS@?$deque@UD3DXVECTOR3@@V?$allocator@UD3DXVECTOR3@@@std@@@std@@2HB DD 01H ; std::deque<D3DXVECTOR3,std::allocator<D3DXVECTOR3> >::_EEM_DS
CONST	ENDS
PUBLIC	?return5@@YAIXZ					; return5
; Function compile flags: /Ogsp
; File d:\lost saga for developer\youtube\tutorial\source\src\lsclient\stdafx.h
;	COMDAT ?return5@@YAIXZ
_TEXT	SEGMENT
?return5@@YAIXZ PROC					; return5, COMDAT

; 18   : 	__forceinline unsigned int return5() { __asm mov eax, 5 };

  00000	b8 05 00 00 00	 mov	 eax, 5
  00005	c3		 ret	 0
?return5@@YAIXZ ENDP					; return5
_TEXT	ENDS
PUBLIC	?return10@@YAIXZ				; return10
; Function compile flags: /Ogsp
;	COMDAT ?return10@@YAIXZ
_TEXT	SEGMENT
?return10@@YAIXZ PROC					; return10, COMDAT

; 21   : 	__forceinline unsigned int return10() { __asm mov eax, 10 };

  00000	b8 0a 00 00 00	 mov	 eax, 10			; 0000000aH
  00005	c3		 ret	 0
?return10@@YAIXZ ENDP					; return10
_TEXT	ENDS
PUBLIC	_fabsf
EXTRN	__fltused:DWORD
; Function compile flags: /Ogsp
; File c:\program files (x86)\microsoft visual studio 10.0\vc\include\math.h
;	COMDAT _fabsf
_TEXT	SEGMENT
tv129 = 8						; size = 4
__X$ = 8						; size = 4
_fabsf	PROC						; COMDAT

; 395  :         {return ((float)fabs((double)_X)); }

  00000	55		 push	 ebp
  00001	8b ec		 mov	 ebp, esp
  00003	d9 45 08	 fld	 DWORD PTR __X$[ebp]
  00006	d9 e1		 fabs
  00008	d9 5d 08	 fstp	 DWORD PTR tv129[ebp]
  0000b	d9 45 08	 fld	 DWORD PTR tv129[ebp]
  0000e	5d		 pop	 ebp
  0000f	c3		 ret	 0
_fabsf	ENDP
_TEXT	ENDS
PUBLIC	?GetCharName@ioBaseChar@@QBEABVioHashString@@XZ	; ioBaseChar::GetCharName
; Function compile flags: /Ogsp
; File d:\lost saga for developer\youtube\tutorial\source\src\lsclient\iobasechar.h
;	COMDAT ?GetCharName@ioBaseChar@@QBEABVioHashString@@XZ
_TEXT	SEGMENT
?GetCharName@ioBaseChar@@QBEABVioHashString@@XZ PROC	; ioBaseChar::GetCharName, COMDAT
; _this$ = ecx

; 2594 : 	inline const ioHashString& GetCharName() const { return m_Name; }

  00000	8d 81 d4 02 00
	00		 lea	 eax, DWORD PTR [ecx+724]
  00006	c3		 ret	 0
?GetCharName@ioBaseChar@@QBEABVioHashString@@XZ ENDP	; ioBaseChar::GetCharName
_TEXT	ENDS
PUBLIC	?fabs@@YAMM@Z					; fabs
; Function compile flags: /Ogsp
; File c:\program files (x86)\microsoft visual studio 10.0\vc\include\math.h
;	COMDAT ?fabs@@YAMM@Z
_TEXT	SEGMENT
tv131 = 8						; size = 4
__X$ = 8						; size = 4
?fabs@@YAMM@Z PROC					; fabs, COMDAT

; 518  :         {return (fabsf(_X)); }

  00000	55		 push	 ebp
  00001	8b ec		 mov	 ebp, esp
  00003	d9 45 08	 fld	 DWORD PTR __X$[ebp]
  00006	d9 e1		 fabs
  00008	d9 5d 08	 fstp	 DWORD PTR tv131[ebp]
  0000b	d9 45 08	 fld	 DWORD PTR tv131[ebp]
  0000e	5d		 pop	 ebp
  0000f	c3		 ret	 0
?fabs@@YAMM@Z ENDP					; fabs
_TEXT	ENDS
PUBLIC	??_7bad_alloc@std@@6B@				; std::bad_alloc::`vftable'
PUBLIC	??0bad_alloc@std@@QAE@PBD@Z			; std::bad_alloc::bad_alloc
PUBLIC	??_R4bad_alloc@std@@6B@				; std::bad_alloc::`RTTI Complete Object Locator'
PUBLIC	??_R0?AVbad_alloc@std@@@8			; std::bad_alloc `RTTI Type Descriptor'
PUBLIC	??_R3bad_alloc@std@@8				; std::bad_alloc::`RTTI Class Hierarchy Descriptor'
PUBLIC	??_R2bad_alloc@std@@8				; std::bad_alloc::`RTTI Base Class Array'
PUBLIC	??_R1A@?0A@EA@bad_alloc@std@@8			; std::bad_alloc::`RTTI Base Class Descriptor at (0,-1,0,64)'
PUBLIC	??_R1A@?0A@EA@exception@std@@8			; std::exception::`RTTI Base Class Descriptor at (0,-1,0,64)'
PUBLIC	??_R0?AVexception@std@@@8			; std::exception `RTTI Type Descriptor'
PUBLIC	??_R3exception@std@@8				; std::exception::`RTTI Class Hierarchy Descriptor'
PUBLIC	??_R2exception@std@@8				; std::exception::`RTTI Base Class Array'
EXTRN	__imp_??0exception@std@@QAE@ABQBD@Z:PROC
EXTRN	??_7type_info@@6B@:QWORD			; type_info::`vftable'
EXTRN	??_Ebad_alloc@std@@UAEPAXI@Z:PROC		; std::bad_alloc::`vector deleting destructor'
EXTRN	?what@exception@std@@UBEPBDXZ:PROC		; std::exception::what
;	COMDAT ??_R2exception@std@@8
; File c:\program files (x86)\microsoft visual studio 10.0\vc\include\exception
rdata$r	SEGMENT
??_R2exception@std@@8 DD FLAT:??_R1A@?0A@EA@exception@std@@8 ; std::exception::`RTTI Base Class Array'
rdata$r	ENDS
;	COMDAT ??_R3exception@std@@8
rdata$r	SEGMENT
??_R3exception@std@@8 DD 00H				; std::exception::`RTTI Class Hierarchy Descriptor'
	DD	00H
	DD	01H
	DD	FLAT:??_R2exception@std@@8
rdata$r	ENDS
;	COMDAT ??_R0?AVexception@std@@@8
_DATA	SEGMENT
??_R0?AVexception@std@@@8 DD FLAT:??_7type_info@@6B@	; std::exception `RTTI Type Descriptor'
	DD	00H
	DB	'.?AVexception@std@@', 00H
_DATA	ENDS
;	COMDAT ??_R1A@?0A@EA@exception@std@@8
rdata$r	SEGMENT
??_R1A@?0A@EA@exception@std@@8 DD FLAT:??_R0?AVexception@std@@@8 ; std::exception::`RTTI Base Class Descriptor at (0,-1,0,64)'
	DD	00H
	DD	00H
	DD	0ffffffffH
	DD	00H
	DD	040H
	DD	FLAT:??_R3exception@std@@8
rdata$r	ENDS
;	COMDAT ??_R1A@?0A@EA@bad_alloc@std@@8
rdata$r	SEGMENT
??_R1A@?0A@EA@bad_alloc@std@@8 DD FLAT:??_R0?AVbad_alloc@std@@@8 ; std::bad_alloc::`RTTI Base Class Descriptor at (0,-1,0,64)'
	DD	01H
	DD	00H
	DD	0ffffffffH
	DD	00H
	DD	040H
	DD	FLAT:??_R3bad_alloc@std@@8
rdata$r	ENDS
;	COMDAT ??_R2bad_alloc@std@@8
rdata$r	SEGMENT
??_R2bad_alloc@std@@8 DD FLAT:??_R1A@?0A@EA@bad_alloc@std@@8 ; std::bad_alloc::`RTTI Base Class Array'
	DD	FLAT:??_R1A@?0A@EA@exception@std@@8
rdata$r	ENDS
;	COMDAT ??_R3bad_alloc@std@@8
rdata$r	SEGMENT
??_R3bad_alloc@std@@8 DD 00H				; std::bad_alloc::`RTTI Class Hierarchy Descriptor'
	DD	00H
	DD	02H
	DD	FLAT:??_R2bad_alloc@std@@8
rdata$r	ENDS
;	COMDAT ??_R0?AVbad_alloc@std@@@8
_DATA	SEGMENT
??_R0?AVbad_alloc@std@@@8 DD FLAT:??_7type_info@@6B@	; std::bad_alloc `RTTI Type Descriptor'
	DD	00H
	DB	'.?AVbad_alloc@std@@', 00H
_DATA	ENDS
;	COMDAT ??_R4bad_alloc@std@@6B@
rdata$r	SEGMENT
??_R4bad_alloc@std@@6B@ DD 00H				; std::bad_alloc::`RTTI Complete Object Locator'
	DD	00H
	DD	00H
	DD	FLAT:??_R0?AVbad_alloc@std@@@8
	DD	FLAT:??_R3bad_alloc@std@@8
rdata$r	ENDS
;	COMDAT ??_7bad_alloc@std@@6B@
CONST	SEGMENT
??_7bad_alloc@std@@6B@ DD FLAT:??_R4bad_alloc@std@@6B@	; std::bad_alloc::`vftable'
	DD	FLAT:??_Ebad_alloc@std@@UAEPAXI@Z
	DD	FLAT:?what@exception@std@@UBEPBDXZ
; Function compile flags: /Ogsp
CONST	ENDS
;	COMDAT ??0bad_alloc@std@@QAE@PBD@Z
_TEXT	SEGMENT
__Message$ = 8						; size = 4
??0bad_alloc@std@@QAE@PBD@Z PROC			; std::bad_alloc::bad_alloc, COMDAT
; _this$ = ecx

; 345  : 		{	// construct from message string

  00000	55		 push	 ebp
  00001	8b ec		 mov	 ebp, esp
  00003	56		 push	 esi
  00004	8d 45 08	 lea	 eax, DWORD PTR __Message$[ebp]
  00007	50		 push	 eax
  00008	8b f1		 mov	 esi, ecx
  0000a	ff 15 00 00 00
	00		 call	 DWORD PTR __imp_??0exception@std@@QAE@ABQBD@Z
  00010	c7 06 00 00 00
	00		 mov	 DWORD PTR [esi], OFFSET ??_7bad_alloc@std@@6B@

; 346  : 		}

  00016	8b c6		 mov	 eax, esi
  00018	5e		 pop	 esi
  00019	5d		 pop	 ebp
  0001a	c2 04 00	 ret	 4
??0bad_alloc@std@@QAE@PBD@Z ENDP			; std::bad_alloc::bad_alloc
_TEXT	ENDS
PUBLIC	??1bad_alloc@std@@UAE@XZ			; std::bad_alloc::~bad_alloc
EXTRN	__imp_??1exception@std@@UAE@XZ:PROC
; Function compile flags: /Ogsp
;	COMDAT ??1bad_alloc@std@@UAE@XZ
_TEXT	SEGMENT
??1bad_alloc@std@@UAE@XZ PROC				; std::bad_alloc::~bad_alloc, COMDAT
; _this$ = ecx

; 354  : 		{	// destroy the object

  00000	c7 01 00 00 00
	00		 mov	 DWORD PTR [ecx], OFFSET ??_7bad_alloc@std@@6B@

; 355  : 		}

  00006	ff 25 00 00 00
	00		 jmp	 DWORD PTR __imp_??1exception@std@@UAE@XZ
??1bad_alloc@std@@UAE@XZ ENDP				; std::bad_alloc::~bad_alloc
_TEXT	ENDS
EXTRN	??3@YAXPAX@Z:PROC				; operator delete
; Function compile flags: /Ogsp
;	COMDAT ??_Gbad_alloc@std@@UAEPAXI@Z
_TEXT	SEGMENT
___flags$ = 8						; size = 4
??_Gbad_alloc@std@@UAEPAXI@Z PROC			; std::bad_alloc::`scalar deleting destructor', COMDAT
; _this$ = ecx
  00000	55		 push	 ebp
  00001	8b ec		 mov	 ebp, esp
  00003	56		 push	 esi
  00004	8b f1		 mov	 esi, ecx
  00006	c7 06 00 00 00
	00		 mov	 DWORD PTR [esi], OFFSET ??_7bad_alloc@std@@6B@
  0000c	ff 15 00 00 00
	00		 call	 DWORD PTR __imp_??1exception@std@@UAE@XZ
  00012	f6 45 08 01	 test	 BYTE PTR ___flags$[ebp], 1
  00016	74 07		 je	 SHORT $LN1@scalar
  00018	56		 push	 esi
  00019	e8 00 00 00 00	 call	 ??3@YAXPAX@Z		; operator delete
  0001e	59		 pop	 ecx
$LN1@scalar:
  0001f	8b c6		 mov	 eax, esi
  00021	5e		 pop	 esi
  00022	5d		 pop	 ebp
  00023	c2 04 00	 ret	 4
??_Gbad_alloc@std@@UAEPAXI@Z ENDP			; std::bad_alloc::`scalar deleting destructor'
_TEXT	ENDS
PUBLIC	??2@YAPAXIPAX@Z					; operator new
; Function compile flags: /Ogsp
; File c:\program files (x86)\microsoft visual studio 10.0\vc\include\new
;	COMDAT ??2@YAPAXIPAX@Z
_TEXT	SEGMENT
___formal$ = 8						; size = 4
__Where$ = 12						; size = 4
??2@YAPAXIPAX@Z PROC					; operator new, COMDAT

; 56   : 	{	// construct array with placement at _Where

  00000	55		 push	 ebp
  00001	8b ec		 mov	 ebp, esp

; 57   : 	return (_Where);

  00003	8b 45 0c	 mov	 eax, DWORD PTR __Where$[ebp]

; 58   : 	}

  00006	5d		 pop	 ebp
  00007	c3		 ret	 0
??2@YAPAXIPAX@Z ENDP					; operator new
_TEXT	ENDS
PUBLIC	??3@YAXPAX0@Z					; operator delete
; Function compile flags: /Ogsp
;	COMDAT ??3@YAXPAX0@Z
_TEXT	SEGMENT
___formal$ = 8						; size = 4
___formal$ = 12						; size = 4
??3@YAXPAX0@Z PROC					; operator delete, COMDAT

; 62   : 	}

  00000	c3		 ret	 0
??3@YAXPAX0@Z ENDP					; operator delete
_TEXT	ENDS
PUBLIC	?GetCreator@ioBaseChar@@QAEPAVioPlayStage@@XZ	; ioBaseChar::GetCreator
; Function compile flags: /Ogsp
; File d:\lost saga for developer\youtube\tutorial\source\src\lsclient\iobasechar.h
;	COMDAT ?GetCreator@ioBaseChar@@QAEPAVioPlayStage@@XZ
_TEXT	SEGMENT
?GetCreator@ioBaseChar@@QAEPAVioPlayStage@@XZ PROC	; ioBaseChar::GetCreator, COMDAT
; _this$ = ecx

; 4013 : 	inline ioPlayStage* GetCreator() { return m_pCreator; }

  00000	8b 81 44 03 00
	00		 mov	 eax, DWORD PTR [ecx+836]
  00006	c3		 ret	 0
?GetCreator@ioBaseChar@@QAEPAVioPlayStage@@XZ ENDP	; ioBaseChar::GetCreator
_TEXT	ENDS
PUBLIC	?_Adopt@_Iterator_base0@std@@QAEXPBX@Z		; std::_Iterator_base0::_Adopt
; Function compile flags: /Ogsp
; File c:\program files (x86)\microsoft visual studio 10.0\vc\include\xutility
;	COMDAT ?_Adopt@_Iterator_base0@std@@QAEXPBX@Z
_TEXT	SEGMENT
___formal$ = 8						; size = 4
?_Adopt@_Iterator_base0@std@@QAEXPBX@Z PROC		; std::_Iterator_base0::_Adopt, COMDAT
; _this$ = ecx

; 49   : 		}

  00000	c2 04 00	 ret	 4
?_Adopt@_Iterator_base0@std@@QAEXPBX@Z ENDP		; std::_Iterator_base0::_Adopt
_TEXT	ENDS
PUBLIC	??_7ioTargetTrace10Dummy@@6BioWorldEventReceiver@@@ ; ioTargetTrace10Dummy::`vftable'
PUBLIC	??_7ioTargetTrace10Dummy@@6BioPlayEntity@@@	; ioTargetTrace10Dummy::`vftable'
PUBLIC	??0ioTargetTrace10Dummy@@QAE@PAVioEntityGroup@@PAVioPlayMode@@@Z ; ioTargetTrace10Dummy::ioTargetTrace10Dummy
PUBLIC	??_R4ioTargetTrace10Dummy@@6BioPlayEntity@@@	; ioTargetTrace10Dummy::`RTTI Complete Object Locator'
PUBLIC	??_R0?AVioTargetTrace10Dummy@@@8		; ioTargetTrace10Dummy `RTTI Type Descriptor'
PUBLIC	??_R3ioTargetTrace10Dummy@@8			; ioTargetTrace10Dummy::`RTTI Class Hierarchy Descriptor'
PUBLIC	??_R2ioTargetTrace10Dummy@@8			; ioTargetTrace10Dummy::`RTTI Base Class Array'
PUBLIC	??_R1A@?0A@EA@ioTargetTrace10Dummy@@8		; ioTargetTrace10Dummy::`RTTI Base Class Descriptor at (0,-1,0,64)'
PUBLIC	??_R1A@?0A@EA@ioDummyChar@@8			; ioDummyChar::`RTTI Base Class Descriptor at (0,-1,0,64)'
PUBLIC	??_R0?AVioDummyChar@@@8				; ioDummyChar `RTTI Type Descriptor'
PUBLIC	??_R3ioDummyChar@@8				; ioDummyChar::`RTTI Class Hierarchy Descriptor'
PUBLIC	??_R2ioDummyChar@@8				; ioDummyChar::`RTTI Base Class Array'
PUBLIC	??_R1A@?0A@EA@ioPlayEntity@@8			; ioPlayEntity::`RTTI Base Class Descriptor at (0,-1,0,64)'
PUBLIC	??_R0?AVioPlayEntity@@@8			; ioPlayEntity `RTTI Type Descriptor'
PUBLIC	??_R3ioPlayEntity@@8				; ioPlayEntity::`RTTI Class Hierarchy Descriptor'
PUBLIC	??_R2ioPlayEntity@@8				; ioPlayEntity::`RTTI Base Class Array'
PUBLIC	??_R1A@?0A@EA@ioGameEntity@@8			; ioGameEntity::`RTTI Base Class Descriptor at (0,-1,0,64)'
PUBLIC	??_R0?AVioGameEntity@@@8			; ioGameEntity `RTTI Type Descriptor'
PUBLIC	??_R3ioGameEntity@@8				; ioGameEntity::`RTTI Class Hierarchy Descriptor'
PUBLIC	??_R2ioGameEntity@@8				; ioGameEntity::`RTTI Base Class Array'
PUBLIC	??_R1A@?0A@EA@ioEntityEvent@@8			; ioEntityEvent::`RTTI Base Class Descriptor at (0,-1,0,64)'
PUBLIC	??_R0?AVioEntityEvent@@@8			; ioEntityEvent `RTTI Type Descriptor'
PUBLIC	??_R3ioEntityEvent@@8				; ioEntityEvent::`RTTI Class Hierarchy Descriptor'
PUBLIC	??_R2ioEntityEvent@@8				; ioEntityEvent::`RTTI Base Class Array'
PUBLIC	??_R1BMI@?0A@EA@ioWorldEventReceiver@@8		; ioWorldEventReceiver::`RTTI Base Class Descriptor at (456,-1,0,64)'
PUBLIC	??_R0?AVioWorldEventReceiver@@@8		; ioWorldEventReceiver `RTTI Type Descriptor'
PUBLIC	??_R3ioWorldEventReceiver@@8			; ioWorldEventReceiver::`RTTI Class Hierarchy Descriptor'
PUBLIC	??_R2ioWorldEventReceiver@@8			; ioWorldEventReceiver::`RTTI Base Class Array'
PUBLIC	??_R1A@?0A@EA@ioWorldEventReceiver@@8		; ioWorldEventReceiver::`RTTI Base Class Descriptor at (0,-1,0,64)'
PUBLIC	?IsNeedCheckMapCollision@ioTargetTrace10Dummy@@UBE_NXZ ; ioTargetTrace10Dummy::IsNeedCheckMapCollision
PUBLIC	?IsMountAvailable@ioTargetTrace10Dummy@@UBE_NXZ	; ioTargetTrace10Dummy::IsMountAvailable
PUBLIC	?IsMountingAvailable@ioTargetTrace10Dummy@@UBE_NXZ ; ioTargetTrace10Dummy::IsMountingAvailable
PUBLIC	?IsNowMountEnable@ioTargetTrace10Dummy@@UBE_NXZ	; ioTargetTrace10Dummy::IsNowMountEnable
PUBLIC	?TranslateByConveyer@ioTargetTrace10Dummy@@UAEXABUD3DXVECTOR3@@@Z ; ioTargetTrace10Dummy::TranslateByConveyer
PUBLIC	?ApplyWeapon@ioTargetTrace10Dummy@@UAE?AW4ApplyWeaponExp@@PAVioWeapon@@@Z ; ioTargetTrace10Dummy::ApplyWeapon
PUBLIC	?DontMoveEntityLevel@ioTargetTrace10Dummy@@UBEHXZ ; ioTargetTrace10Dummy::DontMoveEntityLevel
PUBLIC	?LoadProperty@ioTargetTrace10Dummy@@UAEXAAVioINILoader@@@Z ; ioTargetTrace10Dummy::LoadProperty
PUBLIC	?SetTeam@ioPlayEntity@@UAEXW4TeamType@@@Z	; ioPlayEntity::SetTeam
PUBLIC	?IsActivateWeapon@ioTargetTrace10Dummy@@UAE_NXZ	; ioTargetTrace10Dummy::IsActivateWeapon
PUBLIC	?ProcessState@ioTargetTrace10Dummy@@MAEXMK@Z	; ioTargetTrace10Dummy::ProcessState
PUBLIC	?ApplyDummyCharSync@ioTargetTrace10Dummy@@UAEXPAVioPlayStage@@AAVSP2Packet@@@Z ; ioTargetTrace10Dummy::ApplyDummyCharSync
PUBLIC	?IsDummyCharMidSync@ioDummyChar@@UAE_NXZ	; ioDummyChar::IsDummyCharMidSync
PUBLIC	?SetDieState@ioTargetTrace10Dummy@@UAEX_N@Z	; ioTargetTrace10Dummy::SetDieState
PUBLIC	??_R4ioTargetTrace10Dummy@@6BioWorldEventReceiver@@@ ; ioTargetTrace10Dummy::`RTTI Complete Object Locator'
PUBLIC	??_EioTargetTrace10Dummy@@WBMI@AEPAXI@Z		; [thunk]:ioTargetTrace10Dummy::`vector deleting destructor'
EXTRN	__imp_??1ioHashString@@QAE@XZ:PROC
EXTRN	??1ioDummyChar@@UAE@XZ:PROC			; ioDummyChar::~ioDummyChar
EXTRN	__imp_??0ioHashString@@QAE@XZ:PROC
EXTRN	??0ioDummyChar@@QAE@PAVioEntityGroup@@PAVioPlayMode@@@Z:PROC ; ioDummyChar::ioDummyChar
EXTRN	___CxxFrameHandler3:PROC
EXTRN	@__security_check_cookie@4:PROC
EXTRN	__EH_epilog3:PROC
EXTRN	__EH_prolog3:PROC
EXTRN	?AddEntityEvent@ioDummyChar@@UAEXPAVioEntity@@@Z:PROC ; ioDummyChar::AddEntityEvent
EXTRN	??_EioTargetTrace10Dummy@@UAEPAXI@Z:PROC	; ioTargetTrace10Dummy::`vector deleting destructor'
EXTRN	?Update@ioDummyChar@@UAEXMKK@Z:PROC		; ioDummyChar::Update
EXTRN	?UpdateAfter@ioDummyChar@@UAEXM@Z:PROC		; ioDummyChar::UpdateAfter
EXTRN	?GetTypeID@ioPlayEntity@@UBEHXZ:PROC		; ioPlayEntity::GetTypeID
EXTRN	?IsAllWeaponDefence@ioGameEntity@@UBE_NXZ:PROC	; ioGameEntity::IsAllWeaponDefence
EXTRN	?HasEntity@ioGameEntity@@UAE_NABVioHashString@@@Z:PROC ; ioGameEntity::HasEntity
EXTRN	?AddEntity@ioGameEntity@@UAEPAVioEntity@@ABVioHashString@@@Z:PROC ; ioGameEntity::AddEntity
EXTRN	?DestroyEntity@ioGameEntity@@UAE_NABVioHashString@@@Z:PROC ; ioGameEntity::DestroyEntity
EXTRN	?GetEntity@ioGameEntity@@UAEPAVioEntity@@ABVioHashString@@@Z:PROC ; ioGameEntity::GetEntity
EXTRN	?UpdateBound@ioGameEntity@@MBEXXZ:PROC		; ioGameEntity::UpdateBound
EXTRN	?UpdateBottomHeight@ioDummyChar@@MBEXXZ:PROC	; ioDummyChar::UpdateBottomHeight
EXTRN	?NeedUpdateBottomHeight@ioDummyChar@@UAEXXZ:PROC ; ioDummyChar::NeedUpdateBottomHeight
EXTRN	?SetWorldPosition@ioGameEntity@@UAEXABUD3DXVECTOR3@@@Z:PROC ; ioGameEntity::SetWorldPosition
EXTRN	?SetWorldOrientation@ioGameEntity@@UAEXABUD3DXQUATERNION@@@Z:PROC ; ioGameEntity::SetWorldOrientation
EXTRN	?SetWorldScale@ioGameEntity@@UAEXABUD3DXVECTOR3@@@Z:PROC ; ioGameEntity::SetWorldScale
EXTRN	?Translate@ioDummyChar@@UAEXABUD3DXVECTOR3@@@Z:PROC ; ioDummyChar::Translate
EXTRN	?TranslateByWorldEntity@ioDummyChar@@UAEXABUD3DXVECTOR3@@@Z:PROC ; ioDummyChar::TranslateByWorldEntity
EXTRN	?MapCollisionPushingTranslate@ioDummyChar@@UAEXABUD3DXVECTOR3@@@Z:PROC ; ioDummyChar::MapCollisionPushingTranslate
EXTRN	?DontMoveCollisionPushingTranslate@ioGameEntity@@UAEXPAV1@ABUD3DXVECTOR3@@@Z:PROC ; ioGameEntity::DontMoveCollisionPushingTranslate
EXTRN	?Rotate@ioGameEntity@@UAEXABUD3DXVECTOR3@@MW4TransformSpace@ioNode@@@Z:PROC ; ioGameEntity::Rotate
EXTRN	?Scale@ioGameEntity@@UAEXMMM@Z:PROC		; ioGameEntity::Scale
EXTRN	?Scale@ioGameEntity@@UAEXABUD3DXVECTOR3@@@Z:PROC ; ioGameEntity::Scale
EXTRN	?GetWorldPosition@ioGameEntity@@UBEABUD3DXVECTOR3@@XZ:PROC ; ioGameEntity::GetWorldPosition
EXTRN	?GetWorldOrientation@ioGameEntity@@UBEABUD3DXQUATERNION@@XZ:PROC ; ioGameEntity::GetWorldOrientation
EXTRN	?GetWorldScale@ioGameEntity@@UBEABUD3DXVECTOR3@@XZ:PROC ; ioGameEntity::GetWorldScale
EXTRN	?IsCollisionAvailableWeapon@ioDummyChar@@UAE_NPAVioWeapon@@@Z:PROC ; ioDummyChar::IsCollisionAvailableWeapon
EXTRN	?IsCollisionAvailableRange@ioPlayEntity@@UAE_NPAVioWeapon@@@Z:PROC ; ioPlayEntity::IsCollisionAvailableRange
EXTRN	?IsEntityCollisionSkipState@ioDummyChar@@UBE_NPAVioGameEntity@@@Z:PROC ; ioDummyChar::IsEntityCollisionSkipState
EXTRN	?IsCharCollisionSkipState@ioDummyChar@@UBE_NW4TeamType@@H@Z:PROC ; ioDummyChar::IsCharCollisionSkipState
EXTRN	?IsWoundedCollision@ioPlayEntity@@UBE_NABVioOrientBox@@PAUD3DXVECTOR3@@@Z:PROC ; ioPlayEntity::IsWoundedCollision
EXTRN	?GetAttackCollisionBox@ioDummyChar@@UAE?AVioOrientBox@@W4AniCollisionType@@_N@Z:PROC ; ioDummyChar::GetAttackCollisionBox
EXTRN	?CheckSphereDistance@ioPlayEntity@@UBE_NABUD3DXVECTOR3@@MAAM@Z:PROC ; ioPlayEntity::CheckSphereDistance
EXTRN	?CheckSpherePoint@ioPlayEntity@@UBE_NABUD3DXVECTOR3@@MAAU2@@Z:PROC ; ioPlayEntity::CheckSpherePoint
EXTRN	?CheckCylinderPoint@ioPlayEntity@@UBE_NABVioCylinder@@ABUD3DXVECTOR3@@AAU3@@Z:PROC ; ioPlayEntity::CheckCylinderPoint
EXTRN	?GetSubType@ioDummyChar@@UBE?AW4PlaySubType@ioPlayEntity@@XZ:PROC ; ioDummyChar::GetSubType
EXTRN	?GetArmorType@ioDummyChar@@UBE?AW4ArmorType@@XZ:PROC ; ioDummyChar::GetArmorType
EXTRN	?NotifyDontMoveCollisionPushingSkip@ioPlayEntity@@UAEXPAVioGameEntity@@@Z:PROC ; ioPlayEntity::NotifyDontMoveCollisionPushingSkip
EXTRN	?GetWorldEventReceiver@ioDummyChar@@UAEPAVioWorldEventReceiver@@XZ:PROC ; ioDummyChar::GetWorldEventReceiver
EXTRN	?Revival@ioPlayEntity@@UAEXXZ:PROC		; ioPlayEntity::Revival
EXTRN	?UpdateGauge@ioDummyChar@@UAEXXZ:PROC		; ioDummyChar::UpdateGauge
EXTRN	?RenderGauge@ioDummyChar@@UAEXXZ:PROC		; ioDummyChar::RenderGauge
EXTRN	?FillMaxHP@ioPlayEntity@@UAEXXZ:PROC		; ioPlayEntity::FillMaxHP
EXTRN	?ProcessRecovery@ioPlayEntity@@MAEXXZ:PROC	; ioPlayEntity::ProcessRecovery
EXTRN	?AddHeadDamageInfo@ioPlayEntity@@UAEXH_N@Z:PROC	; ioPlayEntity::AddHeadDamageInfo
EXTRN	?RenderHeadInfoList@ioPlayEntity@@UAEXHH@Z:PROC	; ioPlayEntity::RenderHeadInfoList
EXTRN	?UpdateHeadInfoList@ioPlayEntity@@MAEXK@Z:PROC	; ioPlayEntity::UpdateHeadInfoList
EXTRN	?InitDummyCharInfo@ioDummyChar@@UAEXHKABUD3DXVECTOR3@@0M_N@Z:PROC ; ioDummyChar::InitDummyCharInfo
EXTRN	?TestMapCollision@ioDummyChar@@UAE_NPAVioOpcodeShape@@PAVioPlayStage@@PBUD3DXMATRIX@@@Z:PROC ; ioDummyChar::TestMapCollision
EXTRN	?CheckEntityCollision@ioDummyChar@@UAEXPAVioPlayEntity@@@Z:PROC ; ioDummyChar::CheckEntityCollision
EXTRN	?GetDummyGrassType@ioDummyChar@@UAEHXZ:PROC	; ioDummyChar::GetDummyGrassType
EXTRN	?IsDummyVsDummyCollisionSkipState@ioDummyChar@@UAE_NPBV1@@Z:PROC ; ioDummyChar::IsDummyVsDummyCollisionSkipState
EXTRN	?ProcessPos@ioDummyChar@@MAEXM@Z:PROC		; ioDummyChar::ProcessPos
EXTRN	?ProcessDelayState@ioDummyChar@@MAEXM@Z:PROC	; ioDummyChar::ProcessDelayState
EXTRN	?ProcessMoveState@ioDummyChar@@MAEXM@Z:PROC	; ioDummyChar::ProcessMoveState
EXTRN	?ProcessDashState@ioDummyChar@@MAEXM@Z:PROC	; ioDummyChar::ProcessDashState
EXTRN	?ProcessAttackState@ioDummyChar@@MAEXMK@Z:PROC	; ioDummyChar::ProcessAttackState
EXTRN	?SetDelayState@ioDummyChar@@UAEX_N@Z:PROC	; ioDummyChar::SetDelayState
EXTRN	?SetMoveState@ioDummyChar@@UAEXXZ:PROC		; ioDummyChar::SetMoveState
EXTRN	?SetDieState@ioDummyChar@@UAEX_N0@Z:PROC	; ioDummyChar::SetDieState
EXTRN	?SetDashState@ioDummyChar@@UAEXXZ:PROC		; ioDummyChar::SetDashState
EXTRN	?SetAttackState@ioDummyChar@@UAEXXZ:PROC	; ioDummyChar::SetAttackState
EXTRN	?DropZoneCheck@ioDummyChar@@MAEXXZ:PROC		; ioDummyChar::DropZoneCheck
EXTRN	?SendAttackInfoToSkill@ioDummyChar@@MAEXXZ:PROC	; ioDummyChar::SendAttackInfoToSkill
EXTRN	?CheckCollisionWeapon@ioDummyChar@@UAEXPAVioBaseChar@@@Z:PROC ; ioDummyChar::CheckCollisionWeapon
EXTRN	?TranslateMountEntity@ioDummyChar@@MAEXABUD3DXVECTOR3@@@Z:PROC ; ioDummyChar::TranslateMountEntity
EXTRN	?ClearMountEntity@ioDummyChar@@MAEXXZ:PROC	; ioDummyChar::ClearMountEntity
EXTRN	?UpdateMountedEntityList@ioDummyChar@@MAEXXZ:PROC ; ioDummyChar::UpdateMountedEntityList
EXTRN	?UpdateMountedWeaponList@ioDummyChar@@MAEXXZ:PROC ; ioDummyChar::UpdateMountedWeaponList
EXTRN	?SetWorldPositionMountEntity@ioDummyChar@@MAEXM@Z:PROC ; ioDummyChar::SetWorldPositionMountEntity
EXTRN	?DummyDieClearMountEntity@ioDummyChar@@MAEXXZ:PROC ; ioDummyChar::DummyDieClearMountEntity
EXTRN	?FillDummyCharMidSync@ioDummyChar@@UAEXPAVioBaseChar@@AAVSP2Packet@@@Z:PROC ; ioDummyChar::FillDummyCharMidSync
EXTRN	?ApplyDummyCharMidSync@ioDummyChar@@UAEXPAVioBaseChar@@AAVSP2Packet@@@Z:PROC ; ioDummyChar::ApplyDummyCharMidSync
EXTRN	?GetSkillMaxActiveCnt@ioDummyChar@@UAEHXZ:PROC	; ioDummyChar::GetSkillMaxActiveCnt
EXTRN	?GetSkillCurActiveCnt@ioDummyChar@@UAEHXZ:PROC	; ioDummyChar::GetSkillCurActiveCnt
EXTRN	?OnTelepotation@ioDummyChar@@UAEXABUD3DXVECTOR3@@@Z:PROC ; ioDummyChar::OnTelepotation
EXTRN	?OnFireZoneDamage@ioDummyChar@@UAEXMABVioHashString@@@Z:PROC ; ioDummyChar::OnFireZoneDamage
EXTRN	?OnPoisonZoneDamage@ioDummyChar@@UAEXXZ:PROC	; ioDummyChar::OnPoisonZoneDamage
;	COMDAT ??_R4ioTargetTrace10Dummy@@6BioWorldEventReceiver@@@
; File d:\lost saga for developer\youtube\tutorial\source\src\lsclient\iotargettrace10dummy.cpp
rdata$r	SEGMENT
??_R4ioTargetTrace10Dummy@@6BioWorldEventReceiver@@@ DD 00H ; ioTargetTrace10Dummy::`RTTI Complete Object Locator'
	DD	01c8H
	DD	00H
	DD	FLAT:??_R0?AVioTargetTrace10Dummy@@@8
	DD	FLAT:??_R3ioTargetTrace10Dummy@@8
rdata$r	ENDS
;	COMDAT ??_R1A@?0A@EA@ioWorldEventReceiver@@8
rdata$r	SEGMENT
??_R1A@?0A@EA@ioWorldEventReceiver@@8 DD FLAT:??_R0?AVioWorldEventReceiver@@@8 ; ioWorldEventReceiver::`RTTI Base Class Descriptor at (0,-1,0,64)'
	DD	00H
	DD	00H
	DD	0ffffffffH
	DD	00H
	DD	040H
	DD	FLAT:??_R3ioWorldEventReceiver@@8
rdata$r	ENDS
;	COMDAT ??_R2ioWorldEventReceiver@@8
rdata$r	SEGMENT
??_R2ioWorldEventReceiver@@8 DD FLAT:??_R1A@?0A@EA@ioWorldEventReceiver@@8 ; ioWorldEventReceiver::`RTTI Base Class Array'
rdata$r	ENDS
;	COMDAT ??_R3ioWorldEventReceiver@@8
rdata$r	SEGMENT
??_R3ioWorldEventReceiver@@8 DD 00H			; ioWorldEventReceiver::`RTTI Class Hierarchy Descriptor'
	DD	00H
	DD	01H
	DD	FLAT:??_R2ioWorldEventReceiver@@8
rdata$r	ENDS
;	COMDAT ??_R0?AVioWorldEventReceiver@@@8
_DATA	SEGMENT
??_R0?AVioWorldEventReceiver@@@8 DD FLAT:??_7type_info@@6B@ ; ioWorldEventReceiver `RTTI Type Descriptor'
	DD	00H
	DB	'.?AVioWorldEventReceiver@@', 00H
_DATA	ENDS
;	COMDAT ??_R1BMI@?0A@EA@ioWorldEventReceiver@@8
rdata$r	SEGMENT
??_R1BMI@?0A@EA@ioWorldEventReceiver@@8 DD FLAT:??_R0?AVioWorldEventReceiver@@@8 ; ioWorldEventReceiver::`RTTI Base Class Descriptor at (456,-1,0,64)'
	DD	00H
	DD	01c8H
	DD	0ffffffffH
	DD	00H
	DD	040H
	DD	FLAT:??_R3ioWorldEventReceiver@@8
rdata$r	ENDS
;	COMDAT ??_R2ioEntityEvent@@8
rdata$r	SEGMENT
??_R2ioEntityEvent@@8 DD FLAT:??_R1A@?0A@EA@ioEntityEvent@@8 ; ioEntityEvent::`RTTI Base Class Array'
rdata$r	ENDS
;	COMDAT ??_R3ioEntityEvent@@8
rdata$r	SEGMENT
??_R3ioEntityEvent@@8 DD 00H				; ioEntityEvent::`RTTI Class Hierarchy Descriptor'
	DD	00H
	DD	01H
	DD	FLAT:??_R2ioEntityEvent@@8
rdata$r	ENDS
;	COMDAT ??_R0?AVioEntityEvent@@@8
_DATA	SEGMENT
??_R0?AVioEntityEvent@@@8 DD FLAT:??_7type_info@@6B@	; ioEntityEvent `RTTI Type Descriptor'
	DD	00H
	DB	'.?AVioEntityEvent@@', 00H
_DATA	ENDS
;	COMDAT ??_R1A@?0A@EA@ioEntityEvent@@8
rdata$r	SEGMENT
??_R1A@?0A@EA@ioEntityEvent@@8 DD FLAT:??_R0?AVioEntityEvent@@@8 ; ioEntityEvent::`RTTI Base Class Descriptor at (0,-1,0,64)'
	DD	00H
	DD	00H
	DD	0ffffffffH
	DD	00H
	DD	040H
	DD	FLAT:??_R3ioEntityEvent@@8
rdata$r	ENDS
;	COMDAT ??_R2ioGameEntity@@8
rdata$r	SEGMENT
??_R2ioGameEntity@@8 DD FLAT:??_R1A@?0A@EA@ioGameEntity@@8 ; ioGameEntity::`RTTI Base Class Array'
	DD	FLAT:??_R1A@?0A@EA@ioEntityEvent@@8
rdata$r	ENDS
;	COMDAT ??_R3ioGameEntity@@8
rdata$r	SEGMENT
??_R3ioGameEntity@@8 DD 00H				; ioGameEntity::`RTTI Class Hierarchy Descriptor'
	DD	00H
	DD	02H
	DD	FLAT:??_R2ioGameEntity@@8
rdata$r	ENDS
;	COMDAT ??_R0?AVioGameEntity@@@8
_DATA	SEGMENT
??_R0?AVioGameEntity@@@8 DD FLAT:??_7type_info@@6B@	; ioGameEntity `RTTI Type Descriptor'
	DD	00H
	DB	'.?AVioGameEntity@@', 00H
_DATA	ENDS
;	COMDAT ??_R1A@?0A@EA@ioGameEntity@@8
rdata$r	SEGMENT
??_R1A@?0A@EA@ioGameEntity@@8 DD FLAT:??_R0?AVioGameEntity@@@8 ; ioGameEntity::`RTTI Base Class Descriptor at (0,-1,0,64)'
	DD	01H
	DD	00H
	DD	0ffffffffH
	DD	00H
	DD	040H
	DD	FLAT:??_R3ioGameEntity@@8
rdata$r	ENDS
;	COMDAT ??_R2ioPlayEntity@@8
rdata$r	SEGMENT
??_R2ioPlayEntity@@8 DD FLAT:??_R1A@?0A@EA@ioPlayEntity@@8 ; ioPlayEntity::`RTTI Base Class Array'
	DD	FLAT:??_R1A@?0A@EA@ioGameEntity@@8
	DD	FLAT:??_R1A@?0A@EA@ioEntityEvent@@8
rdata$r	ENDS
;	COMDAT ??_R3ioPlayEntity@@8
rdata$r	SEGMENT
??_R3ioPlayEntity@@8 DD 00H				; ioPlayEntity::`RTTI Class Hierarchy Descriptor'
	DD	00H
	DD	03H
	DD	FLAT:??_R2ioPlayEntity@@8
rdata$r	ENDS
;	COMDAT ??_R0?AVioPlayEntity@@@8
_DATA	SEGMENT
??_R0?AVioPlayEntity@@@8 DD FLAT:??_7type_info@@6B@	; ioPlayEntity `RTTI Type Descriptor'
	DD	00H
	DB	'.?AVioPlayEntity@@', 00H
_DATA	ENDS
;	COMDAT ??_R1A@?0A@EA@ioPlayEntity@@8
rdata$r	SEGMENT
??_R1A@?0A@EA@ioPlayEntity@@8 DD FLAT:??_R0?AVioPlayEntity@@@8 ; ioPlayEntity::`RTTI Base Class Descriptor at (0,-1,0,64)'
	DD	02H
	DD	00H
	DD	0ffffffffH
	DD	00H
	DD	040H
	DD	FLAT:??_R3ioPlayEntity@@8
rdata$r	ENDS
;	COMDAT ??_R2ioDummyChar@@8
rdata$r	SEGMENT
??_R2ioDummyChar@@8 DD FLAT:??_R1A@?0A@EA@ioDummyChar@@8 ; ioDummyChar::`RTTI Base Class Array'
	DD	FLAT:??_R1A@?0A@EA@ioPlayEntity@@8
	DD	FLAT:??_R1A@?0A@EA@ioGameEntity@@8
	DD	FLAT:??_R1A@?0A@EA@ioEntityEvent@@8
	DD	FLAT:??_R1BMI@?0A@EA@ioWorldEventReceiver@@8
rdata$r	ENDS
;	COMDAT ??_R3ioDummyChar@@8
rdata$r	SEGMENT
??_R3ioDummyChar@@8 DD 00H				; ioDummyChar::`RTTI Class Hierarchy Descriptor'
	DD	01H
	DD	05H
	DD	FLAT:??_R2ioDummyChar@@8
rdata$r	ENDS
;	COMDAT ??_R0?AVioDummyChar@@@8
_DATA	SEGMENT
??_R0?AVioDummyChar@@@8 DD FLAT:??_7type_info@@6B@	; ioDummyChar `RTTI Type Descriptor'
	DD	00H
	DB	'.?AVioDummyChar@@', 00H
_DATA	ENDS
;	COMDAT ??_R1A@?0A@EA@ioDummyChar@@8
rdata$r	SEGMENT
??_R1A@?0A@EA@ioDummyChar@@8 DD FLAT:??_R0?AVioDummyChar@@@8 ; ioDummyChar::`RTTI Base Class Descriptor at (0,-1,0,64)'
	DD	04H
	DD	00H
	DD	0ffffffffH
	DD	00H
	DD	040H
	DD	FLAT:??_R3ioDummyChar@@8
rdata$r	ENDS
;	COMDAT ??_R1A@?0A@EA@ioTargetTrace10Dummy@@8
rdata$r	SEGMENT
??_R1A@?0A@EA@ioTargetTrace10Dummy@@8 DD FLAT:??_R0?AVioTargetTrace10Dummy@@@8 ; ioTargetTrace10Dummy::`RTTI Base Class Descriptor at (0,-1,0,64)'
	DD	05H
	DD	00H
	DD	0ffffffffH
	DD	00H
	DD	040H
	DD	FLAT:??_R3ioTargetTrace10Dummy@@8
rdata$r	ENDS
;	COMDAT ??_R2ioTargetTrace10Dummy@@8
rdata$r	SEGMENT
??_R2ioTargetTrace10Dummy@@8 DD FLAT:??_R1A@?0A@EA@ioTargetTrace10Dummy@@8 ; ioTargetTrace10Dummy::`RTTI Base Class Array'
	DD	FLAT:??_R1A@?0A@EA@ioDummyChar@@8
	DD	FLAT:??_R1A@?0A@EA@ioPlayEntity@@8
	DD	FLAT:??_R1A@?0A@EA@ioGameEntity@@8
	DD	FLAT:??_R1A@?0A@EA@ioEntityEvent@@8
	DD	FLAT:??_R1BMI@?0A@EA@ioWorldEventReceiver@@8
rdata$r	ENDS
;	COMDAT ??_R3ioTargetTrace10Dummy@@8
rdata$r	SEGMENT
??_R3ioTargetTrace10Dummy@@8 DD 00H			; ioTargetTrace10Dummy::`RTTI Class Hierarchy Descriptor'
	DD	01H
	DD	06H
	DD	FLAT:??_R2ioTargetTrace10Dummy@@8
rdata$r	ENDS
;	COMDAT ??_R0?AVioTargetTrace10Dummy@@@8
_DATA	SEGMENT
??_R0?AVioTargetTrace10Dummy@@@8 DD FLAT:??_7type_info@@6B@ ; ioTargetTrace10Dummy `RTTI Type Descriptor'
	DD	00H
	DB	'.?AVioTargetTrace10Dummy@@', 00H
_DATA	ENDS
;	COMDAT ??_R4ioTargetTrace10Dummy@@6BioPlayEntity@@@
rdata$r	SEGMENT
??_R4ioTargetTrace10Dummy@@6BioPlayEntity@@@ DD 00H	; ioTargetTrace10Dummy::`RTTI Complete Object Locator'
	DD	00H
	DD	00H
	DD	FLAT:??_R0?AVioTargetTrace10Dummy@@@8
	DD	FLAT:??_R3ioTargetTrace10Dummy@@8
rdata$r	ENDS
;	COMDAT ??_7ioTargetTrace10Dummy@@6BioWorldEventReceiver@@@
CONST	SEGMENT
??_7ioTargetTrace10Dummy@@6BioWorldEventReceiver@@@ DD FLAT:??_R4ioTargetTrace10Dummy@@6BioWorldEventReceiver@@@ ; ioTargetTrace10Dummy::`vftable'
	DD	FLAT:?OnTelepotation@ioDummyChar@@UAEXABUD3DXVECTOR3@@@Z
	DD	FLAT:?OnFireZoneDamage@ioDummyChar@@UAEXMABVioHashString@@@Z
	DD	FLAT:?OnPoisonZoneDamage@ioDummyChar@@UAEXXZ
	DD	FLAT:??_EioTargetTrace10Dummy@@WBMI@AEPAXI@Z
CONST	ENDS
;	COMDAT ??_7ioTargetTrace10Dummy@@6BioPlayEntity@@@
CONST	SEGMENT
??_7ioTargetTrace10Dummy@@6BioPlayEntity@@@ DD FLAT:??_R4ioTargetTrace10Dummy@@6BioPlayEntity@@@ ; ioTargetTrace10Dummy::`vftable'
	DD	FLAT:?AddEntityEvent@ioDummyChar@@UAEXPAVioEntity@@@Z
	DD	FLAT:??_EioTargetTrace10Dummy@@UAEPAXI@Z
	DD	FLAT:?Update@ioDummyChar@@UAEXMKK@Z
	DD	FLAT:?UpdateAfter@ioDummyChar@@UAEXM@Z
	DD	FLAT:?GetTypeID@ioPlayEntity@@UBEHXZ
	DD	FLAT:?IsNeedCheckMapCollision@ioTargetTrace10Dummy@@UBE_NXZ
	DD	FLAT:?IsMountAvailable@ioTargetTrace10Dummy@@UBE_NXZ
	DD	FLAT:?IsMountingAvailable@ioTargetTrace10Dummy@@UBE_NXZ
	DD	FLAT:?IsNowMountEnable@ioTargetTrace10Dummy@@UBE_NXZ
	DD	FLAT:?IsAllWeaponDefence@ioGameEntity@@UBE_NXZ
	DD	FLAT:?HasEntity@ioGameEntity@@UAE_NABVioHashString@@@Z
	DD	FLAT:?AddEntity@ioGameEntity@@UAEPAVioEntity@@ABVioHashString@@@Z
	DD	FLAT:?DestroyEntity@ioGameEntity@@UAE_NABVioHashString@@@Z
	DD	FLAT:?GetEntity@ioGameEntity@@UAEPAVioEntity@@ABVioHashString@@@Z
	DD	FLAT:?UpdateBound@ioGameEntity@@MBEXXZ
	DD	FLAT:?UpdateBottomHeight@ioDummyChar@@MBEXXZ
	DD	FLAT:?NeedUpdateBottomHeight@ioDummyChar@@UAEXXZ
	DD	FLAT:?SetWorldPosition@ioGameEntity@@UAEXABUD3DXVECTOR3@@@Z
	DD	FLAT:?SetWorldOrientation@ioGameEntity@@UAEXABUD3DXQUATERNION@@@Z
	DD	FLAT:?SetWorldScale@ioGameEntity@@UAEXABUD3DXVECTOR3@@@Z
	DD	FLAT:?Translate@ioDummyChar@@UAEXABUD3DXVECTOR3@@@Z
	DD	FLAT:?TranslateByConveyer@ioTargetTrace10Dummy@@UAEXABUD3DXVECTOR3@@@Z
	DD	FLAT:?TranslateByWorldEntity@ioDummyChar@@UAEXABUD3DXVECTOR3@@@Z
	DD	FLAT:?MapCollisionPushingTranslate@ioDummyChar@@UAEXABUD3DXVECTOR3@@@Z
	DD	FLAT:?DontMoveCollisionPushingTranslate@ioGameEntity@@UAEXPAV1@ABUD3DXVECTOR3@@@Z
	DD	FLAT:?Rotate@ioGameEntity@@UAEXABUD3DXVECTOR3@@MW4TransformSpace@ioNode@@@Z
	DD	FLAT:?Scale@ioGameEntity@@UAEXMMM@Z
	DD	FLAT:?Scale@ioGameEntity@@UAEXABUD3DXVECTOR3@@@Z
	DD	FLAT:?GetWorldPosition@ioGameEntity@@UBEABUD3DXVECTOR3@@XZ
	DD	FLAT:?GetWorldOrientation@ioGameEntity@@UBEABUD3DXQUATERNION@@XZ
	DD	FLAT:?GetWorldScale@ioGameEntity@@UBEABUD3DXVECTOR3@@XZ
	DD	FLAT:?ApplyWeapon@ioTargetTrace10Dummy@@UAE?AW4ApplyWeaponExp@@PAVioWeapon@@@Z
	DD	FLAT:?IsCollisionAvailableWeapon@ioDummyChar@@UAE_NPAVioWeapon@@@Z
	DD	FLAT:?IsCollisionAvailableRange@ioPlayEntity@@UAE_NPAVioWeapon@@@Z
	DD	FLAT:?IsEntityCollisionSkipState@ioDummyChar@@UBE_NPAVioGameEntity@@@Z
	DD	FLAT:?IsCharCollisionSkipState@ioDummyChar@@UBE_NW4TeamType@@H@Z
	DD	FLAT:?IsWoundedCollision@ioPlayEntity@@UBE_NABVioOrientBox@@PAUD3DXVECTOR3@@@Z
	DD	FLAT:?GetAttackCollisionBox@ioDummyChar@@UAE?AVioOrientBox@@W4AniCollisionType@@_N@Z
	DD	FLAT:?CheckSphereDistance@ioPlayEntity@@UBE_NABUD3DXVECTOR3@@MAAM@Z
	DD	FLAT:?CheckSpherePoint@ioPlayEntity@@UBE_NABUD3DXVECTOR3@@MAAU2@@Z
	DD	FLAT:?CheckCylinderPoint@ioPlayEntity@@UBE_NABVioCylinder@@ABUD3DXVECTOR3@@AAU3@@Z
	DD	FLAT:?GetSubType@ioDummyChar@@UBE?AW4PlaySubType@ioPlayEntity@@XZ
	DD	FLAT:?GetArmorType@ioDummyChar@@UBE?AW4ArmorType@@XZ
	DD	FLAT:?DontMoveEntityLevel@ioTargetTrace10Dummy@@UBEHXZ
	DD	FLAT:?NotifyDontMoveCollisionPushingSkip@ioPlayEntity@@UAEXPAVioGameEntity@@@Z
	DD	FLAT:?LoadProperty@ioTargetTrace10Dummy@@UAEXAAVioINILoader@@@Z
	DD	FLAT:?GetWorldEventReceiver@ioDummyChar@@UAEPAVioWorldEventReceiver@@XZ
	DD	FLAT:?Revival@ioPlayEntity@@UAEXXZ
	DD	FLAT:?UpdateGauge@ioDummyChar@@UAEXXZ
	DD	FLAT:?RenderGauge@ioDummyChar@@UAEXXZ
	DD	FLAT:?FillMaxHP@ioPlayEntity@@UAEXXZ
	DD	FLAT:?ProcessRecovery@ioPlayEntity@@MAEXXZ
	DD	FLAT:?AddHeadDamageInfo@ioPlayEntity@@UAEXH_N@Z
	DD	FLAT:?RenderHeadInfoList@ioPlayEntity@@UAEXHH@Z
	DD	FLAT:?UpdateHeadInfoList@ioPlayEntity@@MAEXK@Z
	DD	FLAT:?SetTeam@ioPlayEntity@@UAEXW4TeamType@@@Z
	DD	FLAT:?InitDummyCharInfo@ioDummyChar@@UAEXHKABUD3DXVECTOR3@@0M_N@Z
	DD	FLAT:?TestMapCollision@ioDummyChar@@UAE_NPAVioOpcodeShape@@PAVioPlayStage@@PBUD3DXMATRIX@@@Z
	DD	FLAT:?CheckEntityCollision@ioDummyChar@@UAEXPAVioPlayEntity@@@Z
	DD	FLAT:?GetDummyGrassType@ioDummyChar@@UAEHXZ
	DD	FLAT:?IsActivateWeapon@ioTargetTrace10Dummy@@UAE_NXZ
	DD	FLAT:?IsDummyVsDummyCollisionSkipState@ioDummyChar@@UAE_NPBV1@@Z
	DD	FLAT:?ProcessState@ioTargetTrace10Dummy@@MAEXMK@Z
	DD	FLAT:?ProcessPos@ioDummyChar@@MAEXM@Z
	DD	FLAT:?ProcessDelayState@ioDummyChar@@MAEXM@Z
	DD	FLAT:?ProcessMoveState@ioDummyChar@@MAEXM@Z
	DD	FLAT:?ProcessDashState@ioDummyChar@@MAEXM@Z
	DD	FLAT:?ProcessAttackState@ioDummyChar@@MAEXMK@Z
	DD	FLAT:?ApplyDummyCharSync@ioTargetTrace10Dummy@@UAEXPAVioPlayStage@@AAVSP2Packet@@@Z
	DD	FLAT:?SetDelayState@ioDummyChar@@UAEX_N@Z
	DD	FLAT:?SetMoveState@ioDummyChar@@UAEXXZ
	DD	FLAT:?SetDieState@ioDummyChar@@UAEX_N0@Z
	DD	FLAT:?SetDashState@ioDummyChar@@UAEXXZ
	DD	FLAT:?SetAttackState@ioDummyChar@@UAEXXZ
	DD	FLAT:?DropZoneCheck@ioDummyChar@@MAEXXZ
	DD	FLAT:?SendAttackInfoToSkill@ioDummyChar@@MAEXXZ
	DD	FLAT:?CheckCollisionWeapon@ioDummyChar@@UAEXPAVioBaseChar@@@Z
	DD	FLAT:?TranslateMountEntity@ioDummyChar@@MAEXABUD3DXVECTOR3@@@Z
	DD	FLAT:?ClearMountEntity@ioDummyChar@@MAEXXZ
	DD	FLAT:?UpdateMountedEntityList@ioDummyChar@@MAEXXZ
	DD	FLAT:?UpdateMountedWeaponList@ioDummyChar@@MAEXXZ
	DD	FLAT:?SetWorldPositionMountEntity@ioDummyChar@@MAEXM@Z
	DD	FLAT:?DummyDieClearMountEntity@ioDummyChar@@MAEXXZ
	DD	FLAT:?IsDummyCharMidSync@ioDummyChar@@UAE_NXZ
	DD	FLAT:?FillDummyCharMidSync@ioDummyChar@@UAEXPAVioBaseChar@@AAVSP2Packet@@@Z
	DD	FLAT:?ApplyDummyCharMidSync@ioDummyChar@@UAEXPAVioBaseChar@@AAVSP2Packet@@@Z
	DD	FLAT:?GetSkillMaxActiveCnt@ioDummyChar@@UAEHXZ
	DD	FLAT:?GetSkillCurActiveCnt@ioDummyChar@@UAEHXZ
	DD	FLAT:?SetDieState@ioTargetTrace10Dummy@@UAEX_N@Z
CONST	ENDS
;	COMDAT xdata$x
xdata$x	SEGMENT
__unwindtable$??0ioTargetTrace10Dummy@@QAE@PAVioEntityGroup@@PAVioPlayMode@@@Z DD 0ffffffffH
	DD	FLAT:__unwindfunclet$??0ioTargetTrace10Dummy@@QAE@PAVioEntityGroup@@PAVioPlayMode@@@Z$0
	DD	00H
	DD	FLAT:__unwindfunclet$??0ioTargetTrace10Dummy@@QAE@PAVioEntityGroup@@PAVioPlayMode@@@Z$1
	DD	01H
	DD	FLAT:__unwindfunclet$??0ioTargetTrace10Dummy@@QAE@PAVioEntityGroup@@PAVioPlayMode@@@Z$2
__ehfuncinfo$??0ioTargetTrace10Dummy@@QAE@PAVioEntityGroup@@PAVioPlayMode@@@Z DD 019930522H
	DD	03H
	DD	FLAT:__unwindtable$??0ioTargetTrace10Dummy@@QAE@PAVioEntityGroup@@PAVioPlayMode@@@Z
	DD	2 DUP(00H)
	DD	2 DUP(00H)
	DD	00H
	DD	01H
; Function compile flags: /Ogsp
xdata$x	ENDS
;	COMDAT ??0ioTargetTrace10Dummy@@QAE@PAVioEntityGroup@@PAVioPlayMode@@@Z
_TEXT	SEGMENT
_this$ = -16						; size = 4
__$EHRec$ = -12						; size = 12
_pGrp$ = 8						; size = 4
_pMode$ = 12						; size = 4
??0ioTargetTrace10Dummy@@QAE@PAVioEntityGroup@@PAVioPlayMode@@@Z PROC ; ioTargetTrace10Dummy::ioTargetTrace10Dummy, COMDAT
; _this$ = ecx

; 13   : {

  00000	6a 04		 push	 4
  00002	b8 00 00 00 00	 mov	 eax, __ehhandler$??0ioTargetTrace10Dummy@@QAE@PAVioEntityGroup@@PAVioPlayMode@@@Z
  00007	e8 00 00 00 00	 call	 __EH_prolog3
  0000c	8b f1		 mov	 esi, ecx
  0000e	89 75 f0	 mov	 DWORD PTR _this$[ebp], esi
  00011	ff 75 0c	 push	 DWORD PTR _pMode$[ebp]
  00014	ff 75 08	 push	 DWORD PTR _pGrp$[ebp]
  00017	e8 00 00 00 00	 call	 ??0ioDummyChar@@QAE@PAVioEntityGroup@@PAVioPlayMode@@@Z ; ioDummyChar::ioDummyChar
  0001c	8b 3d 00 00 00
	00		 mov	 edi, DWORD PTR __imp_??0ioHashString@@QAE@XZ
  00022	33 db		 xor	 ebx, ebx
  00024	8d 8e 84 14 00
	00		 lea	 ecx, DWORD PTR [esi+5252]
  0002a	89 5d fc	 mov	 DWORD PTR __$EHRec$[ebp+8], ebx
  0002d	c7 06 00 00 00
	00		 mov	 DWORD PTR [esi], OFFSET ??_7ioTargetTrace10Dummy@@6BioPlayEntity@@@
  00033	c7 86 c8 01 00
	00 00 00 00 00	 mov	 DWORD PTR [esi+456], OFFSET ??_7ioTargetTrace10Dummy@@6BioWorldEventReceiver@@@
  0003d	ff d7		 call	 edi
  0003f	8d 8e 9c 14 00
	00		 lea	 ecx, DWORD PTR [esi+5276]
  00045	c6 45 fc 01	 mov	 BYTE PTR __$EHRec$[ebp+8], 1
  00049	ff d7		 call	 edi
  0004b	8d 8e b0 14 00
	00		 lea	 ecx, DWORD PTR [esi+5296]
  00051	c6 45 fc 02	 mov	 BYTE PTR __$EHRec$[ebp+8], 2
  00055	ff d7		 call	 edi

; 14   : 	m_bSetUpKey	= false;

  00057	66 89 9e 58 0d
	00 00		 mov	 WORD PTR [esi+3416], bx

; 15   : 	m_bSetDownKey = false;
; 16   : 	m_CurDirKey = ioUserKeyInput::DKI_NONE;

  0005e	89 9e 5c 0d 00
	00		 mov	 DWORD PTR [esi+3420], ebx

; 17   : 	m_TraceState = TS_Start;

  00064	89 9e 80 14 00
	00		 mov	 DWORD PTR [esi+5248], ebx

; 18   : 	dwCheckAttackTime = 0;

  0006a	89 9e 94 14 00
	00		 mov	 DWORD PTR [esi+5268], ebx

; 19   : 	m_nAttackCurCnt = 0;

  00070	89 9e 98 14 00
	00		 mov	 DWORD PTR [esi+5272], ebx

; 20   : }

  00076	8b c6		 mov	 eax, esi
  00078	e8 00 00 00 00	 call	 __EH_epilog3
  0007d	c2 08 00	 ret	 8
_TEXT	ENDS
;	COMDAT text$x
text$x	SEGMENT
__unwindfunclet$??0ioTargetTrace10Dummy@@QAE@PAVioEntityGroup@@PAVioPlayMode@@@Z$0:
  00000	8b 4d f0	 mov	 ecx, DWORD PTR _this$[ebp]
  00003	e9 00 00 00 00	 jmp	 ??1ioDummyChar@@UAE@XZ	; ioDummyChar::~ioDummyChar
__unwindfunclet$??0ioTargetTrace10Dummy@@QAE@PAVioEntityGroup@@PAVioPlayMode@@@Z$1:
  00008	8b 4d f0	 mov	 ecx, DWORD PTR _this$[ebp]
  0000b	81 c1 84 14 00
	00		 add	 ecx, 5252		; 00001484H
  00011	ff 25 00 00 00
	00		 jmp	 DWORD PTR __imp_??1ioHashString@@QAE@XZ
__unwindfunclet$??0ioTargetTrace10Dummy@@QAE@PAVioEntityGroup@@PAVioPlayMode@@@Z$2:
  00017	8b 4d f0	 mov	 ecx, DWORD PTR _this$[ebp]
  0001a	81 c1 9c 14 00
	00		 add	 ecx, 5276		; 0000149cH
  00020	ff 25 00 00 00
	00		 jmp	 DWORD PTR __imp_??1ioHashString@@QAE@XZ
__ehhandler$??0ioTargetTrace10Dummy@@QAE@PAVioEntityGroup@@PAVioPlayMode@@@Z:
  00026	8b 54 24 08	 mov	 edx, DWORD PTR [esp+8]
  0002a	8d 42 0c	 lea	 eax, DWORD PTR [edx+12]
  0002d	8b 4a ec	 mov	 ecx, DWORD PTR [edx-20]
  00030	33 c8		 xor	 ecx, eax
  00032	e8 00 00 00 00	 call	 @__security_check_cookie@4
  00037	b8 00 00 00 00	 mov	 eax, OFFSET __ehfuncinfo$??0ioTargetTrace10Dummy@@QAE@PAVioEntityGroup@@PAVioPlayMode@@@Z
  0003c	e9 00 00 00 00	 jmp	 ___CxxFrameHandler3
text$x	ENDS
??0ioTargetTrace10Dummy@@QAE@PAVioEntityGroup@@PAVioPlayMode@@@Z ENDP ; ioTargetTrace10Dummy::ioTargetTrace10Dummy
PUBLIC	??1ioTargetTrace10Dummy@@UAE@XZ			; ioTargetTrace10Dummy::~ioTargetTrace10Dummy
;	COMDAT xdata$x
xdata$x	SEGMENT
__unwindtable$??1ioTargetTrace10Dummy@@UAE@XZ DD 0ffffffffH
	DD	FLAT:__unwindfunclet$??1ioTargetTrace10Dummy@@UAE@XZ$0
	DD	00H
	DD	FLAT:__unwindfunclet$??1ioTargetTrace10Dummy@@UAE@XZ$1
	DD	01H
	DD	FLAT:__unwindfunclet$??1ioTargetTrace10Dummy@@UAE@XZ$2
__ehfuncinfo$??1ioTargetTrace10Dummy@@UAE@XZ DD 019930522H
	DD	03H
	DD	FLAT:__unwindtable$??1ioTargetTrace10Dummy@@UAE@XZ
	DD	2 DUP(00H)
	DD	2 DUP(00H)
	DD	00H
	DD	01H
; Function compile flags: /Ogsp
xdata$x	ENDS
;	COMDAT ??1ioTargetTrace10Dummy@@UAE@XZ
_TEXT	SEGMENT
_this$ = -16						; size = 4
__$EHRec$ = -12						; size = 12
??1ioTargetTrace10Dummy@@UAE@XZ PROC			; ioTargetTrace10Dummy::~ioTargetTrace10Dummy, COMDAT
; _this$ = ecx

; 23   : {

  00000	6a 04		 push	 4
  00002	b8 00 00 00 00	 mov	 eax, __ehhandler$??1ioTargetTrace10Dummy@@UAE@XZ
  00007	e8 00 00 00 00	 call	 __EH_prolog3
  0000c	8b f1		 mov	 esi, ecx
  0000e	89 75 f0	 mov	 DWORD PTR _this$[ebp], esi
  00011	c7 06 00 00 00
	00		 mov	 DWORD PTR [esi], OFFSET ??_7ioTargetTrace10Dummy@@6BioPlayEntity@@@
  00017	c7 86 c8 01 00
	00 00 00 00 00	 mov	 DWORD PTR [esi+456], OFFSET ??_7ioTargetTrace10Dummy@@6BioWorldEventReceiver@@@

; 24   : }

  00021	8b 3d 00 00 00
	00		 mov	 edi, DWORD PTR __imp_??1ioHashString@@QAE@XZ
  00027	8d 8e b0 14 00
	00		 lea	 ecx, DWORD PTR [esi+5296]
  0002d	c7 45 fc 02 00
	00 00		 mov	 DWORD PTR __$EHRec$[ebp+8], 2
  00034	ff d7		 call	 edi
  00036	8d 8e 9c 14 00
	00		 lea	 ecx, DWORD PTR [esi+5276]
  0003c	c6 45 fc 01	 mov	 BYTE PTR __$EHRec$[ebp+8], 1
  00040	ff d7		 call	 edi
  00042	8d 8e 84 14 00
	00		 lea	 ecx, DWORD PTR [esi+5252]
  00048	c6 45 fc 00	 mov	 BYTE PTR __$EHRec$[ebp+8], 0
  0004c	ff d7		 call	 edi
  0004e	83 4d fc ff	 or	 DWORD PTR __$EHRec$[ebp+8], -1
  00052	8b ce		 mov	 ecx, esi
  00054	e8 00 00 00 00	 call	 ??1ioDummyChar@@UAE@XZ	; ioDummyChar::~ioDummyChar
  00059	e8 00 00 00 00	 call	 __EH_epilog3
  0005e	c3		 ret	 0
_TEXT	ENDS
;	COMDAT text$x
text$x	SEGMENT
__unwindfunclet$??1ioTargetTrace10Dummy@@UAE@XZ$0:
  00000	8b 4d f0	 mov	 ecx, DWORD PTR _this$[ebp]
  00003	e9 00 00 00 00	 jmp	 ??1ioDummyChar@@UAE@XZ	; ioDummyChar::~ioDummyChar
__unwindfunclet$??1ioTargetTrace10Dummy@@UAE@XZ$1:
  00008	8b 4d f0	 mov	 ecx, DWORD PTR _this$[ebp]
  0000b	81 c1 84 14 00
	00		 add	 ecx, 5252		; 00001484H
  00011	ff 25 00 00 00
	00		 jmp	 DWORD PTR __imp_??1ioHashString@@QAE@XZ
__unwindfunclet$??1ioTargetTrace10Dummy@@UAE@XZ$2:
  00017	8b 4d f0	 mov	 ecx, DWORD PTR _this$[ebp]
  0001a	81 c1 9c 14 00
	00		 add	 ecx, 5276		; 0000149cH
  00020	ff 25 00 00 00
	00		 jmp	 DWORD PTR __imp_??1ioHashString@@QAE@XZ
__ehhandler$??1ioTargetTrace10Dummy@@UAE@XZ:
  00026	8b 54 24 08	 mov	 edx, DWORD PTR [esp+8]
  0002a	8d 42 0c	 lea	 eax, DWORD PTR [edx+12]
  0002d	8b 4a ec	 mov	 ecx, DWORD PTR [edx-20]
  00030	33 c8		 xor	 ecx, eax
  00032	e8 00 00 00 00	 call	 @__security_check_cookie@4
  00037	b8 00 00 00 00	 mov	 eax, OFFSET __ehfuncinfo$??1ioTargetTrace10Dummy@@UAE@XZ
  0003c	e9 00 00 00 00	 jmp	 ___CxxFrameHandler3
text$x	ENDS
??1ioTargetTrace10Dummy@@UAE@XZ ENDP			; ioTargetTrace10Dummy::~ioTargetTrace10Dummy
PUBLIC	??1FireTime@@QAE@XZ				; FireTime::~FireTime
;	COMDAT xdata$x
xdata$x	SEGMENT
__unwindtable$??1FireTime@@QAE@XZ DD 0ffffffffH
	DD	FLAT:__unwindfunclet$??1FireTime@@QAE@XZ$0
	DD	00H
	DD	FLAT:__unwindfunclet$??1FireTime@@QAE@XZ$1
__ehfuncinfo$??1FireTime@@QAE@XZ DD 019930522H
	DD	02H
	DD	FLAT:__unwindtable$??1FireTime@@QAE@XZ
	DD	2 DUP(00H)
	DD	2 DUP(00H)
	DD	00H
	DD	01H
; Function compile flags: /Ogsp
xdata$x	ENDS
;	COMDAT ??1FireTime@@QAE@XZ
_TEXT	SEGMENT
_this$ = -16						; size = 4
__$EHRec$ = -12						; size = 12
??1FireTime@@QAE@XZ PROC				; FireTime::~FireTime, COMDAT
; _this$ = ecx
  00000	6a 04		 push	 4
  00002	b8 00 00 00 00	 mov	 eax, __ehhandler$??1FireTime@@QAE@XZ
  00007	e8 00 00 00 00	 call	 __EH_prolog3
  0000c	8b f9		 mov	 edi, ecx
  0000e	89 7d f0	 mov	 DWORD PTR _this$[ebp], edi
  00011	8b 35 00 00 00
	00		 mov	 esi, DWORD PTR __imp_??1ioHashString@@QAE@XZ
  00017	8d 4f 44	 lea	 ecx, DWORD PTR [edi+68]
  0001a	c7 45 fc 01 00
	00 00		 mov	 DWORD PTR __$EHRec$[ebp+8], 1
  00021	ff d6		 call	 esi
  00023	8d 4f 30	 lea	 ecx, DWORD PTR [edi+48]
  00026	c6 45 fc 00	 mov	 BYTE PTR __$EHRec$[ebp+8], 0
  0002a	ff d6		 call	 esi
  0002c	83 4d fc ff	 or	 DWORD PTR __$EHRec$[ebp+8], -1
  00030	8d 4f 14	 lea	 ecx, DWORD PTR [edi+20]
  00033	ff d6		 call	 esi
  00035	e8 00 00 00 00	 call	 __EH_epilog3
  0003a	c3		 ret	 0
_TEXT	ENDS
;	COMDAT text$x
text$x	SEGMENT
__unwindfunclet$??1FireTime@@QAE@XZ$0:
  00000	8b 4d f0	 mov	 ecx, DWORD PTR _this$[ebp]
  00003	83 c1 14	 add	 ecx, 20			; 00000014H
  00006	ff 25 00 00 00
	00		 jmp	 DWORD PTR __imp_??1ioHashString@@QAE@XZ
__unwindfunclet$??1FireTime@@QAE@XZ$1:
  0000c	8b 4d f0	 mov	 ecx, DWORD PTR _this$[ebp]
  0000f	83 c1 30	 add	 ecx, 48			; 00000030H
  00012	ff 25 00 00 00
	00		 jmp	 DWORD PTR __imp_??1ioHashString@@QAE@XZ
__ehhandler$??1FireTime@@QAE@XZ:
  00018	8b 54 24 08	 mov	 edx, DWORD PTR [esp+8]
  0001c	8d 42 0c	 lea	 eax, DWORD PTR [edx+12]
  0001f	8b 4a ec	 mov	 ecx, DWORD PTR [edx-20]
  00022	33 c8		 xor	 ecx, eax
  00024	e8 00 00 00 00	 call	 @__security_check_cookie@4
  00029	b8 00 00 00 00	 mov	 eax, OFFSET __ehfuncinfo$??1FireTime@@QAE@XZ
  0002e	e9 00 00 00 00	 jmp	 ___CxxFrameHandler3
text$x	ENDS
??1FireTime@@QAE@XZ ENDP				; FireTime::~FireTime
; Function compile flags: /Ogsp
;	COMDAT ?IsActivateWeapon@ioTargetTrace10Dummy@@UAE_NXZ
_TEXT	SEGMENT
?IsActivateWeapon@ioTargetTrace10Dummy@@UAE_NXZ PROC	; ioTargetTrace10Dummy::IsActivateWeapon, COMDAT
; _this$ = ecx

; 223  : 	return true;

  00000	b0 01		 mov	 al, 1

; 224  : }

  00002	c3		 ret	 0
?IsActivateWeapon@ioTargetTrace10Dummy@@UAE_NXZ ENDP	; ioTargetTrace10Dummy::IsActivateWeapon
; Function compile flags: /Ogsp
_TEXT	ENDS
;	COMDAT ?TranslateByConveyer@ioTargetTrace10Dummy@@UAEXABUD3DXVECTOR3@@@Z
_TEXT	SEGMENT
_vMove$ = 8						; size = 4
?TranslateByConveyer@ioTargetTrace10Dummy@@UAEXABUD3DXVECTOR3@@@Z PROC ; ioTargetTrace10Dummy::TranslateByConveyer, COMDAT
; _this$ = ecx

; 299  : }

  00000	c2 04 00	 ret	 4
?TranslateByConveyer@ioTargetTrace10Dummy@@UAEXABUD3DXVECTOR3@@@Z ENDP ; ioTargetTrace10Dummy::TranslateByConveyer
; Function compile flags: /Ogsp
_TEXT	ENDS
;	COMDAT ?SetDieState@ioTargetTrace10Dummy@@UAEX_N@Z
_TEXT	SEGMENT
_bEffect$ = 8						; size = 1
?SetDieState@ioTargetTrace10Dummy@@UAEX_N@Z PROC	; ioTargetTrace10Dummy::SetDieState, COMDAT
; _this$ = ecx

; 302  : {

  00000	55		 push	 ebp
  00001	8b ec		 mov	 ebp, esp

; 303  : 	ioDummyChar::SetDieState( bEffect );

  00003	6a 00		 push	 0
  00005	ff 75 08	 push	 DWORD PTR _bEffect$[ebp]
  00008	e8 00 00 00 00	 call	 ?SetDieState@ioDummyChar@@UAEX_N0@Z ; ioDummyChar::SetDieState

; 304  : }

  0000d	5d		 pop	 ebp
  0000e	c2 04 00	 ret	 4
?SetDieState@ioTargetTrace10Dummy@@UAEX_N@Z ENDP	; ioTargetTrace10Dummy::SetDieState
; Function compile flags: /Ogsp
_TEXT	ENDS
;	COMDAT ?DontMoveEntityLevel@ioTargetTrace10Dummy@@UBEHXZ
_TEXT	SEGMENT
?DontMoveEntityLevel@ioTargetTrace10Dummy@@UBEHXZ PROC	; ioTargetTrace10Dummy::DontMoveEntityLevel, COMDAT
; _this$ = ecx

; 313  : 	return 1;

  00000	33 c0		 xor	 eax, eax
  00002	40		 inc	 eax

; 314  : }

  00003	c3		 ret	 0
?DontMoveEntityLevel@ioTargetTrace10Dummy@@UBEHXZ ENDP	; ioTargetTrace10Dummy::DontMoveEntityLevel
; Function compile flags: /Ogsp
_TEXT	ENDS
;	COMDAT ?IsMountingAvailable@ioTargetTrace10Dummy@@UBE_NXZ
_TEXT	SEGMENT
?IsMountingAvailable@ioTargetTrace10Dummy@@UBE_NXZ PROC	; ioTargetTrace10Dummy::IsMountingAvailable, COMDAT
; _this$ = ecx

; 318  : 	return false;

  00000	32 c0		 xor	 al, al

; 319  : }

  00002	c3		 ret	 0
?IsMountingAvailable@ioTargetTrace10Dummy@@UBE_NXZ ENDP	; ioTargetTrace10Dummy::IsMountingAvailable
; Function compile flags: /Ogsp
_TEXT	ENDS
;	COMDAT ?IsMountAvailable@ioTargetTrace10Dummy@@UBE_NXZ
_TEXT	SEGMENT
?IsMountAvailable@ioTargetTrace10Dummy@@UBE_NXZ PROC	; ioTargetTrace10Dummy::IsMountAvailable, COMDAT
; _this$ = ecx

; 323  : 	return false;

  00000	32 c0		 xor	 al, al

; 324  : }

  00002	c3		 ret	 0
?IsMountAvailable@ioTargetTrace10Dummy@@UBE_NXZ ENDP	; ioTargetTrace10Dummy::IsMountAvailable
; Function compile flags: /Ogsp
_TEXT	ENDS
;	COMDAT ?IsNowMountEnable@ioTargetTrace10Dummy@@UBE_NXZ
_TEXT	SEGMENT
?IsNowMountEnable@ioTargetTrace10Dummy@@UBE_NXZ PROC	; ioTargetTrace10Dummy::IsNowMountEnable, COMDAT
; _this$ = ecx

; 328  : 	return false;

  00000	32 c0		 xor	 al, al

; 329  : }

  00002	c3		 ret	 0
?IsNowMountEnable@ioTargetTrace10Dummy@@UBE_NXZ ENDP	; ioTargetTrace10Dummy::IsNowMountEnable
_TEXT	ENDS
PUBLIC	__real@42c80000
PUBLIC	__real@3f800000
PUBLIC	__real@3ff0000000000000
PUBLIC	__real@41200000
PUBLIC	?SetLoopAni@ioTargetTrace10Dummy@@IAEXVioHashString@@M@Z ; ioTargetTrace10Dummy::SetLoopAni
EXTRN	__imp_?SetLoopAni@ioEntityGroup@@QAE_NHMMMM@Z:PROC
EXTRN	__imp_?ClearAllLoopAni@ioEntityGroup@@QAEXM_N@Z:PROC
EXTRN	__imp_?ClearAllActionAni@ioEntityGroup@@QAEXM_N@Z:PROC
EXTRN	__imp_?GetAnimationIdx@ioEntityGroup@@QAEHABVioHashString@@@Z:PROC
;	COMDAT __real@42c80000
CONST	SEGMENT
__real@42c80000 DD 042c80000r			; 100
CONST	ENDS
;	COMDAT __real@3f800000
CONST	SEGMENT
__real@3f800000 DD 03f800000r			; 1
CONST	ENDS
;	COMDAT __real@3ff0000000000000
CONST	SEGMENT
__real@3ff0000000000000 DQ 03ff0000000000000r	; 1
CONST	ENDS
;	COMDAT __real@41200000
CONST	SEGMENT
__real@41200000 DD 041200000r			; 10
CONST	ENDS
;	COMDAT xdata$x
xdata$x	SEGMENT
__unwindtable$?SetLoopAni@ioTargetTrace10Dummy@@IAEXVioHashString@@M@Z DD 0ffffffffH
	DD	FLAT:__unwindfunclet$?SetLoopAni@ioTargetTrace10Dummy@@IAEXVioHashString@@M@Z$0
__ehfuncinfo$?SetLoopAni@ioTargetTrace10Dummy@@IAEXVioHashString@@M@Z DD 019930522H
	DD	01H
	DD	FLAT:__unwindtable$?SetLoopAni@ioTargetTrace10Dummy@@IAEXVioHashString@@M@Z
	DD	2 DUP(00H)
	DD	2 DUP(00H)
	DD	00H
	DD	01H
; Function compile flags: /Ogsp
xdata$x	ENDS
;	COMDAT ?SetLoopAni@ioTargetTrace10Dummy@@IAEXVioHashString@@M@Z
_TEXT	SEGMENT
__$EHRec$ = -12						; size = 12
_szLoopAni$ = 8						; size = 16
_fTimeRate$ = 24					; size = 4
?SetLoopAni@ioTargetTrace10Dummy@@IAEXVioHashString@@M@Z PROC ; ioTargetTrace10Dummy::SetLoopAni, COMDAT
; _this$ = ecx

; 334  : {

  00000	6a 00		 push	 0
  00002	b8 00 00 00 00	 mov	 eax, __ehhandler$?SetLoopAni@ioTargetTrace10Dummy@@IAEXVioHashString@@M@Z
  00007	e8 00 00 00 00	 call	 __EH_prolog3
  0000c	8b f1		 mov	 esi, ecx

; 335  : 	if ( !m_pGroup )

  0000e	8b 4e 04	 mov	 ecx, DWORD PTR [esi+4]
  00011	83 65 fc 00	 and	 DWORD PTR __$EHRec$[ebp+8], 0
  00015	85 c9		 test	 ecx, ecx

; 336  : 		return;

  00017	0f 84 96 00 00
	00		 je	 $LN7@SetLoopAni

; 337  : 
; 338  : 	int nAniID = m_pGroup->GetAnimationIdx( szLoopAni );

  0001d	8d 45 08	 lea	 eax, DWORD PTR _szLoopAni$[ebp]
  00020	50		 push	 eax
  00021	ff 15 00 00 00
	00		 call	 DWORD PTR __imp_?GetAnimationIdx@ioEntityGroup@@QAEHABVioHashString@@@Z
  00027	8b f8		 mov	 edi, eax

; 339  : 	if( nAniID == -1 )

  00029	83 ff ff	 cmp	 edi, -1

; 340  : 		return;

  0002c	0f 84 81 00 00
	00		 je	 $LN7@SetLoopAni

; 341  : 
; 342  : 	m_pGroup->ClearAllActionAni( 10.0f, true );

  00032	f3 0f 10 05 00
	00 00 00	 movss	 xmm0, DWORD PTR __real@41200000
  0003a	6a 01		 push	 1
  0003c	51		 push	 ecx
  0003d	8b 4e 04	 mov	 ecx, DWORD PTR [esi+4]
  00040	f3 0f 11 04 24	 movss	 DWORD PTR [esp], xmm0
  00045	ff 15 00 00 00
	00		 call	 DWORD PTR __imp_?ClearAllActionAni@ioEntityGroup@@QAEXM_N@Z

; 343  : 	m_pGroup->ClearAllLoopAni( 10.0f, true );

  0004b	f3 0f 10 05 00
	00 00 00	 movss	 xmm0, DWORD PTR __real@41200000
  00053	6a 01		 push	 1
  00055	51		 push	 ecx
  00056	8b 4e 04	 mov	 ecx, DWORD PTR [esi+4]
  00059	f3 0f 11 04 24	 movss	 DWORD PTR [esp], xmm0
  0005e	ff 15 00 00 00
	00		 call	 DWORD PTR __imp_?ClearAllLoopAni@ioEntityGroup@@QAEXM_N@Z

; 344  : 	m_pGroup->SetLoopAni( nAniID, 100.0f, 1.0f, 1.0f/fTimeRate );

  00064	0f 57 c0	 xorps	 xmm0, xmm0
  00067	f2 0f 10 0d 00
	00 00 00	 movsd	 xmm1, QWORD PTR __real@3ff0000000000000
  0006f	8b 4e 04	 mov	 ecx, DWORD PTR [esi+4]
  00072	83 ec 10	 sub	 esp, 16			; 00000010H
  00075	f3 0f 11 44 24
	0c		 movss	 DWORD PTR [esp+12], xmm0
  0007b	f3 0f 10 45 18	 movss	 xmm0, DWORD PTR _fTimeRate$[ebp]
  00080	0f 5a c0	 cvtps2pd xmm0, xmm0
  00083	f2 0f 5e c8	 divsd	 xmm1, xmm0
  00087	66 0f 5a c1	 cvtpd2ps xmm0, xmm1
  0008b	f3 0f 11 44 24
	08		 movss	 DWORD PTR [esp+8], xmm0
  00091	f3 0f 10 05 00
	00 00 00	 movss	 xmm0, DWORD PTR __real@3f800000
  00099	f3 0f 11 44 24
	04		 movss	 DWORD PTR [esp+4], xmm0
  0009f	f3 0f 10 05 00
	00 00 00	 movss	 xmm0, DWORD PTR __real@42c80000
  000a7	f3 0f 11 04 24	 movss	 DWORD PTR [esp], xmm0
  000ac	57		 push	 edi
  000ad	ff 15 00 00 00
	00		 call	 DWORD PTR __imp_?SetLoopAni@ioEntityGroup@@QAE_NHMMMM@Z
$LN7@SetLoopAni:

; 345  : }

  000b3	83 4d fc ff	 or	 DWORD PTR __$EHRec$[ebp+8], -1
  000b7	8d 4d 08	 lea	 ecx, DWORD PTR _szLoopAni$[ebp]
  000ba	ff 15 00 00 00
	00		 call	 DWORD PTR __imp_??1ioHashString@@QAE@XZ
  000c0	e8 00 00 00 00	 call	 __EH_epilog3
  000c5	c2 14 00	 ret	 20			; 00000014H
_TEXT	ENDS
;	COMDAT text$x
text$x	SEGMENT
__unwindfunclet$?SetLoopAni@ioTargetTrace10Dummy@@IAEXVioHashString@@M@Z$0:
  00000	8d 4d 08	 lea	 ecx, DWORD PTR _szLoopAni$[ebp]
  00003	ff 25 00 00 00
	00		 jmp	 DWORD PTR __imp_??1ioHashString@@QAE@XZ
__ehhandler$?SetLoopAni@ioTargetTrace10Dummy@@IAEXVioHashString@@M@Z:
  00009	8b 54 24 08	 mov	 edx, DWORD PTR [esp+8]
  0000d	8d 42 0c	 lea	 eax, DWORD PTR [edx+12]
  00010	8b 4a f0	 mov	 ecx, DWORD PTR [edx-16]
  00013	33 c8		 xor	 ecx, eax
  00015	e8 00 00 00 00	 call	 @__security_check_cookie@4
  0001a	b8 00 00 00 00	 mov	 eax, OFFSET __ehfuncinfo$?SetLoopAni@ioTargetTrace10Dummy@@IAEXVioHashString@@M@Z
  0001f	e9 00 00 00 00	 jmp	 ___CxxFrameHandler3
text$x	ENDS
?SetLoopAni@ioTargetTrace10Dummy@@IAEXVioHashString@@M@Z ENDP ; ioTargetTrace10Dummy::SetLoopAni
PUBLIC	?SetTraceDelayMoveState@ioTargetTrace10Dummy@@IAEXXZ ; ioTargetTrace10Dummy::SetTraceDelayMoveState
EXTRN	__imp_??0ioHashString@@QAE@ABV0@@Z:PROC
; Function compile flags: /Ogsp
;	COMDAT ?SetTraceDelayMoveState@ioTargetTrace10Dummy@@IAEXXZ
_TEXT	SEGMENT
$T553565 = -4						; size = 4
?SetTraceDelayMoveState@ioTargetTrace10Dummy@@IAEXXZ PROC ; ioTargetTrace10Dummy::SetTraceDelayMoveState, COMDAT
; _this$ = ecx

; 348  : {

  00000	55		 push	 ebp
  00001	8b ec		 mov	 ebp, esp
  00003	51		 push	 ecx
  00004	56		 push	 esi
  00005	8b f1		 mov	 esi, ecx

; 349  : 	SetLoopAni( m_szTraceDelayMoveAni, m_fTraceDelayMoveAniRate );

  00007	d9 86 ac 14 00
	00		 fld	 DWORD PTR [esi+5292]
  0000d	83 ec 14	 sub	 esp, 20			; 00000014H
  00010	8d 86 9c 14 00
	00		 lea	 eax, DWORD PTR [esi+5276]
  00016	d9 5c 24 10	 fstp	 DWORD PTR [esp+16]
  0001a	8b cc		 mov	 ecx, esp
  0001c	89 65 fc	 mov	 DWORD PTR $T553565[ebp], esp
  0001f	50		 push	 eax
  00020	ff 15 00 00 00
	00		 call	 DWORD PTR __imp_??0ioHashString@@QAE@ABV0@@Z
  00026	8b ce		 mov	 ecx, esi
  00028	e8 00 00 00 00	 call	 ?SetLoopAni@ioTargetTrace10Dummy@@IAEXVioHashString@@M@Z ; ioTargetTrace10Dummy::SetLoopAni

; 350  : 	m_fCurMoveRange = 0.0f;
; 351  : 	dwCheckAttackTime = 0;

  0002d	83 a6 94 14 00
	00 00		 and	 DWORD PTR [esi+5268], 0
  00034	0f 57 c0	 xorps	 xmm0, xmm0

; 352  : 	m_nAttackCurCnt = 0;

  00037	83 a6 98 14 00
	00 00		 and	 DWORD PTR [esi+5272], 0
  0003e	f3 0f 11 86 28
	10 00 00	 movss	 DWORD PTR [esi+4136], xmm0

; 353  : 	m_TraceState = TS_Trace_Delay_Move;

  00046	c7 86 80 14 00
	00 01 00 00 00	 mov	 DWORD PTR [esi+5248], 1

; 354  : }

  00050	5e		 pop	 esi
  00051	c9		 leave
  00052	c3		 ret	 0
?SetTraceDelayMoveState@ioTargetTrace10Dummy@@IAEXXZ ENDP ; ioTargetTrace10Dummy::SetTraceDelayMoveState
_TEXT	ENDS
PUBLIC	__$ArrayPad$
PUBLIC	?SetTraceTargetAttackState@ioTargetTrace10Dummy@@IAEXPAVioBaseChar@@@Z ; ioTargetTrace10Dummy::SetTraceTargetAttackState
EXTRN	??1SP2Packet@@UAE@XZ:PROC			; SP2Packet::~SP2Packet
EXTRN	?SendToAllPlayingUser@P2PNetwork@@YAXAAVSP2Packet@@PAVioBaseChar@@@Z:PROC ; P2PNetwork::SendToAllPlayingUser
EXTRN	??6SP2Packet@@QAEAAV0@ABUD3DXVECTOR3@@@Z:PROC	; SP2Packet::operator<<
EXTRN	??6SP2Packet@@QAEAAV0@ABUD3DXQUATERNION@@@Z:PROC ; SP2Packet::operator<<
EXTRN	??6SP2Packet@@QAEAAV0@H@Z:PROC			; SP2Packet::operator<<
EXTRN	??6SP2Packet@@QAEAAV0@ABVioHashString@@@Z:PROC	; SP2Packet::operator<<
EXTRN	??0SP2Packet@@QAE@K@Z:PROC			; SP2Packet::SP2Packet
EXTRN	___security_cookie:DWORD
EXTRN	__chkstk:PROC
;	COMDAT xdata$x
xdata$x	SEGMENT
__unwindtable$?SetTraceTargetAttackState@ioTargetTrace10Dummy@@IAEXPAVioBaseChar@@@Z DD 0ffffffffH
	DD	FLAT:__unwindfunclet$?SetTraceTargetAttackState@ioTargetTrace10Dummy@@IAEXPAVioBaseChar@@@Z$0
__ehfuncinfo$?SetTraceTargetAttackState@ioTargetTrace10Dummy@@IAEXPAVioBaseChar@@@Z DD 019930522H
	DD	01H
	DD	FLAT:__unwindtable$?SetTraceTargetAttackState@ioTargetTrace10Dummy@@IAEXPAVioBaseChar@@@Z
	DD	2 DUP(00H)
	DD	2 DUP(00H)
	DD	00H
	DD	01H
; Function compile flags: /Ogsp
xdata$x	ENDS
;	COMDAT ?SetTraceTargetAttackState@ioTargetTrace10Dummy@@IAEXPAVioBaseChar@@@Z
_TEXT	SEGMENT
_kPacket$548352 = -32808				; size = 32792
__$ArrayPad$ = -16					; size = 4
__$EHRec$ = -12						; size = 12
_pOwner$ = 8						; size = 4
?SetTraceTargetAttackState@ioTargetTrace10Dummy@@IAEXPAVioBaseChar@@@Z PROC ; ioTargetTrace10Dummy::SetTraceTargetAttackState, COMDAT
; _this$ = ecx

; 417  : {

  00000	55		 push	 ebp
  00001	8b ec		 mov	 ebp, esp
  00003	6a ff		 push	 -1
  00005	68 00 00 00 00	 push	 __ehhandler$?SetTraceTargetAttackState@ioTargetTrace10Dummy@@IAEXPAVioBaseChar@@@Z
  0000a	64 a1 00 00 00
	00		 mov	 eax, DWORD PTR fs:0
  00010	50		 push	 eax
  00011	b8 1c 80 00 00	 mov	 eax, 32796		; 0000801cH
  00016	e8 00 00 00 00	 call	 __chkstk
  0001b	a1 00 00 00 00	 mov	 eax, DWORD PTR ___security_cookie
  00020	33 c5		 xor	 eax, ebp
  00022	89 45 f0	 mov	 DWORD PTR __$ArrayPad$[ebp], eax
  00025	56		 push	 esi
  00026	57		 push	 edi
  00027	50		 push	 eax
  00028	8d 45 f4	 lea	 eax, DWORD PTR __$EHRec$[ebp]
  0002b	64 a3 00 00 00
	00		 mov	 DWORD PTR fs:0, eax
  00031	8b 7d 08	 mov	 edi, DWORD PTR _pOwner$[ebp]
  00034	8b f1		 mov	 esi, ecx

; 418  : 	if ( !pOwner || !pOwner->IsNeedProcess() )

  00036	85 ff		 test	 edi, edi
  00038	0f 84 b7 00 00
	00		 je	 $LN2@SetTraceTa
  0003e	8b 07		 mov	 eax, DWORD PTR [edi]
  00040	8b cf		 mov	 ecx, edi
  00042	ff 90 00 01 00
	00		 call	 DWORD PTR [eax+256]
  00048	84 c0		 test	 al, al
  0004a	0f 84 a5 00 00
	00		 je	 $LN2@SetTraceTa

; 419  : 		return;
; 420  : 
; 421  : 	m_TraceState = TS_Trace_Target_Attack;

  00050	c7 86 80 14 00
	00 03 00 00 00	 mov	 DWORD PTR [esi+5248], 3

; 422  : 
; 423  : 	if ( pOwner->IsNeedSendNetwork() )

  0005a	8b 07		 mov	 eax, DWORD PTR [edi]
  0005c	8b cf		 mov	 ecx, edi
  0005e	ff 90 04 01 00
	00		 call	 DWORD PTR [eax+260]
  00064	84 c0		 test	 al, al
  00066	0f 84 89 00 00
	00		 je	 $LN2@SetTraceTa

; 424  : 	{
; 425  : 		SP2Packet kPacket( CUPK_DUMMY_CHAR_SYNC );

  0006c	68 21 42 00 00	 push	 16929			; 00004221H
  00071	8d 8d d8 7f ff
	ff		 lea	 ecx, DWORD PTR _kPacket$548352[ebp]
  00077	e8 00 00 00 00	 call	 ??0SP2Packet@@QAE@K@Z	; SP2Packet::SP2Packet
  0007c	83 65 fc 00	 and	 DWORD PTR __$EHRec$[ebp+8], 0

; 426  : 		kPacket << m_OwnerName;

  00080	8d 86 cc 01 00
	00		 lea	 eax, DWORD PTR [esi+460]
  00086	50		 push	 eax
  00087	8d 8d d8 7f ff
	ff		 lea	 ecx, DWORD PTR _kPacket$548352[ebp]
  0008d	e8 00 00 00 00	 call	 ??6SP2Packet@@QAEAAV0@ABVioHashString@@@Z ; SP2Packet::operator<<

; 427  : 		kPacket << m_iCreateIndex;

  00092	ff b6 dc 01 00
	00		 push	 DWORD PTR [esi+476]
  00098	8d 8d d8 7f ff
	ff		 lea	 ecx, DWORD PTR _kPacket$548352[ebp]
  0009e	e8 00 00 00 00	 call	 ??6SP2Packet@@QAEAAV0@H@Z ; SP2Packet::operator<<

; 428  : 		kPacket << TS_Trace_Target_Attack;

  000a3	6a 03		 push	 3
  000a5	8d 8d d8 7f ff
	ff		 lea	 ecx, DWORD PTR _kPacket$548352[ebp]
  000ab	e8 00 00 00 00	 call	 ??6SP2Packet@@QAEAAV0@H@Z ; SP2Packet::operator<<

; 429  : 		kPacket << GetWorldOrientation();

  000b0	8b 06		 mov	 eax, DWORD PTR [esi]
  000b2	8b ce		 mov	 ecx, esi
  000b4	ff 50 74	 call	 DWORD PTR [eax+116]
  000b7	50		 push	 eax
  000b8	8d 8d d8 7f ff
	ff		 lea	 ecx, DWORD PTR _kPacket$548352[ebp]
  000be	e8 00 00 00 00	 call	 ??6SP2Packet@@QAEAAV0@ABUD3DXQUATERNION@@@Z ; SP2Packet::operator<<

; 430  : 		kPacket << GetWorldPosition();

  000c3	8b 06		 mov	 eax, DWORD PTR [esi]
  000c5	8b ce		 mov	 ecx, esi
  000c7	ff 50 70	 call	 DWORD PTR [eax+112]
  000ca	50		 push	 eax
  000cb	8d 8d d8 7f ff
	ff		 lea	 ecx, DWORD PTR _kPacket$548352[ebp]
  000d1	e8 00 00 00 00	 call	 ??6SP2Packet@@QAEAAV0@ABUD3DXVECTOR3@@@Z ; SP2Packet::operator<<

; 431  : 		P2PNetwork::SendToAllPlayingUser( kPacket );

  000d6	8d 85 d8 7f ff
	ff		 lea	 eax, DWORD PTR _kPacket$548352[ebp]
  000dc	6a 00		 push	 0
  000de	50		 push	 eax
  000df	e8 00 00 00 00	 call	 ?SendToAllPlayingUser@P2PNetwork@@YAXAAVSP2Packet@@PAVioBaseChar@@@Z ; P2PNetwork::SendToAllPlayingUser

; 432  : 	}

  000e4	83 4d fc ff	 or	 DWORD PTR __$EHRec$[ebp+8], -1
  000e8	59		 pop	 ecx
  000e9	59		 pop	 ecx
  000ea	8d 8d d8 7f ff
	ff		 lea	 ecx, DWORD PTR _kPacket$548352[ebp]
  000f0	e8 00 00 00 00	 call	 ??1SP2Packet@@UAE@XZ	; SP2Packet::~SP2Packet
$LN2@SetTraceTa:

; 433  : }

  000f5	8b 4d f4	 mov	 ecx, DWORD PTR __$EHRec$[ebp]
  000f8	64 89 0d 00 00
	00 00		 mov	 DWORD PTR fs:0, ecx
  000ff	59		 pop	 ecx
  00100	5f		 pop	 edi
  00101	5e		 pop	 esi
  00102	8b 4d f0	 mov	 ecx, DWORD PTR __$ArrayPad$[ebp]
  00105	33 cd		 xor	 ecx, ebp
  00107	e8 00 00 00 00	 call	 @__security_check_cookie@4
  0010c	c9		 leave
  0010d	c2 04 00	 ret	 4
_TEXT	ENDS
;	COMDAT text$x
text$x	SEGMENT
__unwindfunclet$?SetTraceTargetAttackState@ioTargetTrace10Dummy@@IAEXPAVioBaseChar@@@Z$0:
  00000	8d 8d d8 7f ff
	ff		 lea	 ecx, DWORD PTR _kPacket$548352[ebp]
  00006	e9 00 00 00 00	 jmp	 ??1SP2Packet@@UAE@XZ	; SP2Packet::~SP2Packet
__ehhandler$?SetTraceTargetAttackState@ioTargetTrace10Dummy@@IAEXPAVioBaseChar@@@Z:
  0000b	8b 54 24 08	 mov	 edx, DWORD PTR [esp+8]
  0000f	8d 42 0c	 lea	 eax, DWORD PTR [edx+12]
  00012	8b 8a d8 7f ff
	ff		 mov	 ecx, DWORD PTR [edx-32808]
  00018	33 c8		 xor	 ecx, eax
  0001a	e8 00 00 00 00	 call	 @__security_check_cookie@4
  0001f	8b 4a fc	 mov	 ecx, DWORD PTR [edx-4]
  00022	33 c8		 xor	 ecx, eax
  00024	e8 00 00 00 00	 call	 @__security_check_cookie@4
  00029	b8 00 00 00 00	 mov	 eax, OFFSET __ehfuncinfo$?SetTraceTargetAttackState@ioTargetTrace10Dummy@@IAEXPAVioBaseChar@@@Z
  0002e	e9 00 00 00 00	 jmp	 ___CxxFrameHandler3
text$x	ENDS
?SetTraceTargetAttackState@ioTargetTrace10Dummy@@IAEXPAVioBaseChar@@@Z ENDP ; ioTargetTrace10Dummy::SetTraceTargetAttackState
PUBLIC	__$ArrayPad$
PUBLIC	?CheckLive@ioTargetTrace10Dummy@@IAEXPAVioBaseChar@@@Z ; ioTargetTrace10Dummy::CheckLive
EXTRN	__imp_?GetLoopSec@ioFrameTimer@@QBEKXZ:PROC
EXTRN	__imp_?GetSingleton@ioFrameTimer@@SAAAV1@XZ:PROC
;	COMDAT xdata$x
xdata$x	SEGMENT
__unwindtable$?CheckLive@ioTargetTrace10Dummy@@IAEXPAVioBaseChar@@@Z DD 0ffffffffH
	DD	FLAT:__unwindfunclet$?CheckLive@ioTargetTrace10Dummy@@IAEXPAVioBaseChar@@@Z$0
__ehfuncinfo$?CheckLive@ioTargetTrace10Dummy@@IAEXPAVioBaseChar@@@Z DD 019930522H
	DD	01H
	DD	FLAT:__unwindtable$?CheckLive@ioTargetTrace10Dummy@@IAEXPAVioBaseChar@@@Z
	DD	2 DUP(00H)
	DD	2 DUP(00H)
	DD	00H
	DD	01H
; Function compile flags: /Ogsp
xdata$x	ENDS
;	COMDAT ?CheckLive@ioTargetTrace10Dummy@@IAEXPAVioBaseChar@@@Z
_TEXT	SEGMENT
_kPacket$548369 = -32808				; size = 32792
__$ArrayPad$ = -16					; size = 4
__$EHRec$ = -12						; size = 12
_pOwner$ = 8						; size = 4
?CheckLive@ioTargetTrace10Dummy@@IAEXPAVioBaseChar@@@Z PROC ; ioTargetTrace10Dummy::CheckLive, COMDAT
; _this$ = ecx

; 458  : {

  00000	55		 push	 ebp
  00001	8b ec		 mov	 ebp, esp
  00003	6a ff		 push	 -1
  00005	68 00 00 00 00	 push	 __ehhandler$?CheckLive@ioTargetTrace10Dummy@@IAEXPAVioBaseChar@@@Z
  0000a	64 a1 00 00 00
	00		 mov	 eax, DWORD PTR fs:0
  00010	50		 push	 eax
  00011	b8 1c 80 00 00	 mov	 eax, 32796		; 0000801cH
  00016	e8 00 00 00 00	 call	 __chkstk
  0001b	a1 00 00 00 00	 mov	 eax, DWORD PTR ___security_cookie
  00020	33 c5		 xor	 eax, ebp
  00022	89 45 f0	 mov	 DWORD PTR __$ArrayPad$[ebp], eax
  00025	56		 push	 esi
  00026	57		 push	 edi
  00027	50		 push	 eax
  00028	8d 45 f4	 lea	 eax, DWORD PTR __$EHRec$[ebp]
  0002b	64 a3 00 00 00
	00		 mov	 DWORD PTR fs:0, eax
  00031	8b 7d 08	 mov	 edi, DWORD PTR _pOwner$[ebp]
  00034	8b f1		 mov	 esi, ecx

; 459  : 	if ( !pOwner )

  00036	85 ff		 test	 edi, edi
  00038	75 0f		 jne	 SHORT $LN3@CheckLive

; 460  : 	{
; 461  : 		m_TraceState = TS_End;

  0003a	c7 86 80 14 00
	00 06 00 00 00	 mov	 DWORD PTR [esi+5248], 6

; 462  : 		return;

  00044	e9 99 00 00 00	 jmp	 $LN1@CheckLive
$LN3@CheckLive:

; 463  : 	}
; 464  : 	
; 465  : 	DWORD dwCurTime = FRAMEGETTIME();

  00049	ff 15 00 00 00
	00		 call	 DWORD PTR __imp_?GetSingleton@ioFrameTimer@@SAAAV1@XZ
  0004f	8b c8		 mov	 ecx, eax
  00051	ff 15 00 00 00
	00		 call	 DWORD PTR __imp_?GetLoopSec@ioFrameTimer@@QBEKXZ

; 466  : 	if ( m_dwCreateTime + m_dwLifeTime > dwCurTime )

  00057	8b 8e 10 0b 00
	00		 mov	 ecx, DWORD PTR [esi+2832]
  0005d	03 8e 18 02 00
	00		 add	 ecx, DWORD PTR [esi+536]
  00063	3b c8		 cmp	 ecx, eax
  00065	77 7b		 ja	 SHORT $LN1@CheckLive

; 467  : 		return;
; 468  : 
; 469  : 	m_TraceState = TS_End;

  00067	c7 86 80 14 00
	00 06 00 00 00	 mov	 DWORD PTR [esi+5248], 6

; 470  : 
; 471  : 	if ( pOwner->IsNeedSendNetwork() )

  00071	8b 07		 mov	 eax, DWORD PTR [edi]
  00073	8b cf		 mov	 ecx, edi
  00075	ff 90 04 01 00
	00		 call	 DWORD PTR [eax+260]
  0007b	84 c0		 test	 al, al
  0007d	74 63		 je	 SHORT $LN1@CheckLive

; 472  : 	{
; 473  : 		SP2Packet kPacket( CUPK_DUMMY_CHAR_SYNC );

  0007f	68 21 42 00 00	 push	 16929			; 00004221H
  00084	8d 8d d8 7f ff
	ff		 lea	 ecx, DWORD PTR _kPacket$548369[ebp]
  0008a	e8 00 00 00 00	 call	 ??0SP2Packet@@QAE@K@Z	; SP2Packet::SP2Packet
  0008f	83 65 fc 00	 and	 DWORD PTR __$EHRec$[ebp+8], 0

; 474  : 		kPacket << m_OwnerName;

  00093	8d 86 cc 01 00
	00		 lea	 eax, DWORD PTR [esi+460]
  00099	50		 push	 eax
  0009a	8d 8d d8 7f ff
	ff		 lea	 ecx, DWORD PTR _kPacket$548369[ebp]
  000a0	e8 00 00 00 00	 call	 ??6SP2Packet@@QAEAAV0@ABVioHashString@@@Z ; SP2Packet::operator<<

; 475  : 		kPacket << m_iCreateIndex;

  000a5	ff b6 dc 01 00
	00		 push	 DWORD PTR [esi+476]
  000ab	8d 8d d8 7f ff
	ff		 lea	 ecx, DWORD PTR _kPacket$548369[ebp]
  000b1	e8 00 00 00 00	 call	 ??6SP2Packet@@QAEAAV0@H@Z ; SP2Packet::operator<<

; 476  : 		kPacket << TS_End;

  000b6	6a 06		 push	 6
  000b8	8d 8d d8 7f ff
	ff		 lea	 ecx, DWORD PTR _kPacket$548369[ebp]
  000be	e8 00 00 00 00	 call	 ??6SP2Packet@@QAEAAV0@H@Z ; SP2Packet::operator<<

; 477  : 		P2PNetwork::SendToAllPlayingUser( kPacket );

  000c3	8d 85 d8 7f ff
	ff		 lea	 eax, DWORD PTR _kPacket$548369[ebp]
  000c9	6a 00		 push	 0
  000cb	50		 push	 eax
  000cc	e8 00 00 00 00	 call	 ?SendToAllPlayingUser@P2PNetwork@@YAXAAVSP2Packet@@PAVioBaseChar@@@Z ; P2PNetwork::SendToAllPlayingUser

; 478  : 	}

  000d1	83 4d fc ff	 or	 DWORD PTR __$EHRec$[ebp+8], -1
  000d5	59		 pop	 ecx
  000d6	59		 pop	 ecx
  000d7	8d 8d d8 7f ff
	ff		 lea	 ecx, DWORD PTR _kPacket$548369[ebp]
  000dd	e8 00 00 00 00	 call	 ??1SP2Packet@@UAE@XZ	; SP2Packet::~SP2Packet
$LN1@CheckLive:

; 479  : }

  000e2	8b 4d f4	 mov	 ecx, DWORD PTR __$EHRec$[ebp]
  000e5	64 89 0d 00 00
	00 00		 mov	 DWORD PTR fs:0, ecx
  000ec	59		 pop	 ecx
  000ed	5f		 pop	 edi
  000ee	5e		 pop	 esi
  000ef	8b 4d f0	 mov	 ecx, DWORD PTR __$ArrayPad$[ebp]
  000f2	33 cd		 xor	 ecx, ebp
  000f4	e8 00 00 00 00	 call	 @__security_check_cookie@4
  000f9	c9		 leave
  000fa	c2 04 00	 ret	 4
_TEXT	ENDS
;	COMDAT text$x
text$x	SEGMENT
__unwindfunclet$?CheckLive@ioTargetTrace10Dummy@@IAEXPAVioBaseChar@@@Z$0:
  00000	8d 8d d8 7f ff
	ff		 lea	 ecx, DWORD PTR _kPacket$548369[ebp]
  00006	e9 00 00 00 00	 jmp	 ??1SP2Packet@@UAE@XZ	; SP2Packet::~SP2Packet
__ehhandler$?CheckLive@ioTargetTrace10Dummy@@IAEXPAVioBaseChar@@@Z:
  0000b	8b 54 24 08	 mov	 edx, DWORD PTR [esp+8]
  0000f	8d 42 0c	 lea	 eax, DWORD PTR [edx+12]
  00012	8b 8a d8 7f ff
	ff		 mov	 ecx, DWORD PTR [edx-32808]
  00018	33 c8		 xor	 ecx, eax
  0001a	e8 00 00 00 00	 call	 @__security_check_cookie@4
  0001f	8b 4a fc	 mov	 ecx, DWORD PTR [edx-4]
  00022	33 c8		 xor	 ecx, eax
  00024	e8 00 00 00 00	 call	 @__security_check_cookie@4
  00029	b8 00 00 00 00	 mov	 eax, OFFSET __ehfuncinfo$?CheckLive@ioTargetTrace10Dummy@@IAEXPAVioBaseChar@@@Z
  0002e	e9 00 00 00 00	 jmp	 ___CxxFrameHandler3
text$x	ENDS
?CheckLive@ioTargetTrace10Dummy@@IAEXPAVioBaseChar@@@Z ENDP ; ioTargetTrace10Dummy::CheckLive
PUBLIC	?CheckTarget@ioTargetTrace10Dummy@@IAE_NPAVioBaseChar@@@Z ; ioTargetTrace10Dummy::CheckTarget
EXTRN	?GetBaseChar@ioBaseChar@@QAEPAV1@ABVioHashString@@@Z:PROC ; ioBaseChar::GetBaseChar
; Function compile flags: /Ogsp
;	COMDAT ?CheckTarget@ioTargetTrace10Dummy@@IAE_NPAVioBaseChar@@@Z
_TEXT	SEGMENT
_pOwner$ = 8						; size = 4
?CheckTarget@ioTargetTrace10Dummy@@IAE_NPAVioBaseChar@@@Z PROC ; ioTargetTrace10Dummy::CheckTarget, COMDAT
; _this$ = ecx

; 482  : {

  00000	55		 push	 ebp
  00001	8b ec		 mov	 ebp, esp

; 483  : 	if ( !pOwner )

  00003	83 7d 08 00	 cmp	 DWORD PTR _pOwner$[ebp], 0
  00007	75 04		 jne	 SHORT $LN2@CheckTarge

; 484  : 		return false;

  00009	32 c0		 xor	 al, al
  0000b	eb 14		 jmp	 SHORT $LN1@CheckTarge
$LN2@CheckTarge:

; 485  : 
; 486  : 	ioBaseChar *pTarget = pOwner->GetBaseChar( m_szTraceTarget );

  0000d	81 c1 84 14 00
	00		 add	 ecx, 5252		; 00001484H
  00013	51		 push	 ecx
  00014	8b 4d 08	 mov	 ecx, DWORD PTR _pOwner$[ebp]
  00017	e8 00 00 00 00	 call	 ?GetBaseChar@ioBaseChar@@QAEPAV1@ABVioHashString@@@Z ; ioBaseChar::GetBaseChar

; 487  : 	if ( !pTarget )

  0001c	85 c0		 test	 eax, eax
  0001e	0f 95 c0	 setne	 al
$LN1@CheckTarge:

; 488  : 		return false;
; 489  : 
; 490  : 	return true;
; 491  : }

  00021	5d		 pop	 ebp
  00022	c2 04 00	 ret	 4
?CheckTarget@ioTargetTrace10Dummy@@IAE_NPAVioBaseChar@@@Z ENDP ; ioTargetTrace10Dummy::CheckTarget
_TEXT	ENDS
PUBLIC	??1tagBaseCharDistanceSq@@QAE@XZ		; tagBaseCharDistanceSq::~tagBaseCharDistanceSq
; Function compile flags: /Ogsp
;	COMDAT ??1tagBaseCharDistanceSq@@QAE@XZ
_TEXT	SEGMENT
??1tagBaseCharDistanceSq@@QAE@XZ PROC			; tagBaseCharDistanceSq::~tagBaseCharDistanceSq, COMDAT
; _this$ = ecx
  00000	ff 25 00 00 00
	00		 jmp	 DWORD PTR __imp_??1ioHashString@@QAE@XZ
??1tagBaseCharDistanceSq@@QAE@XZ ENDP			; tagBaseCharDistanceSq::~tagBaseCharDistanceSq
_TEXT	ENDS
PUBLIC	?empty@?$vector@UtagBaseCharDistanceSq@@V?$allocator@UtagBaseCharDistanceSq@@@std@@@std@@QBE_NXZ ; std::vector<tagBaseCharDistanceSq,std::allocator<tagBaseCharDistanceSq> >::empty
; Function compile flags: /Ogsp
; File c:\program files (x86)\microsoft visual studio 10.0\vc\include\vector
;	COMDAT ?empty@?$vector@UtagBaseCharDistanceSq@@V?$allocator@UtagBaseCharDistanceSq@@@std@@@std@@QBE_NXZ
_TEXT	SEGMENT
?empty@?$vector@UtagBaseCharDistanceSq@@V?$allocator@UtagBaseCharDistanceSq@@@std@@@std@@QBE_NXZ PROC ; std::vector<tagBaseCharDistanceSq,std::allocator<tagBaseCharDistanceSq> >::empty, COMDAT
; _this$ = ecx

; 889  : 		return (this->_Myfirst == this->_Mylast);

  00000	8b 01		 mov	 eax, DWORD PTR [ecx]
  00002	2b 41 04	 sub	 eax, DWORD PTR [ecx+4]
  00005	f7 d8		 neg	 eax
  00007	1b c0		 sbb	 eax, eax
  00009	40		 inc	 eax

; 890  : 		}

  0000a	c3		 ret	 0
?empty@?$vector@UtagBaseCharDistanceSq@@V?$allocator@UtagBaseCharDistanceSq@@@std@@@std@@QBE_NXZ ENDP ; std::vector<tagBaseCharDistanceSq,std::allocator<tagBaseCharDistanceSq> >::empty
_TEXT	ENDS
PUBLIC	??A?$vector@UtagBaseCharDistanceSq@@V?$allocator@UtagBaseCharDistanceSq@@@std@@@std@@QAEAAUtagBaseCharDistanceSq@@I@Z ; std::vector<tagBaseCharDistanceSq,std::allocator<tagBaseCharDistanceSq> >::operator[]
; Function compile flags: /Ogsp
;	COMDAT ??A?$vector@UtagBaseCharDistanceSq@@V?$allocator@UtagBaseCharDistanceSq@@@std@@@std@@QAEAAUtagBaseCharDistanceSq@@I@Z
_TEXT	SEGMENT
__Pos$ = 8						; size = 4
??A?$vector@UtagBaseCharDistanceSq@@V?$allocator@UtagBaseCharDistanceSq@@@std@@@std@@QAEAAUtagBaseCharDistanceSq@@I@Z PROC ; std::vector<tagBaseCharDistanceSq,std::allocator<tagBaseCharDistanceSq> >::operator[], COMDAT
; _this$ = ecx

; 928  : 		{	// subscript mutable sequence

  00000	55		 push	 ebp
  00001	8b ec		 mov	 ebp, esp

; 929  :  #if _ITERATOR_DEBUG_LEVEL == 2
; 930  : 		if (size() <= _Pos)
; 931  : 			{	// report error
; 932  : 			_DEBUG_ERROR("vector subscript out of range");
; 933  : 			_SCL_SECURE_OUT_OF_RANGE;
; 934  : 			}
; 935  : 
; 936  :  #elif _ITERATOR_DEBUG_LEVEL == 1
; 937  : 		_SCL_SECURE_VALIDATE_RANGE(_Pos < size());
; 938  :  #endif /* _ITERATOR_DEBUG_LEVEL */
; 939  : 
; 940  : 		return (*(this->_Myfirst + _Pos));

  00003	8b 45 08	 mov	 eax, DWORD PTR __Pos$[ebp]
  00006	c1 e0 05	 shl	 eax, 5
  00009	03 01		 add	 eax, DWORD PTR [ecx]

; 941  : 		}

  0000b	5d		 pop	 ebp
  0000c	c2 04 00	 ret	 4
??A?$vector@UtagBaseCharDistanceSq@@V?$allocator@UtagBaseCharDistanceSq@@@std@@@std@@QAEAAUtagBaseCharDistanceSq@@I@Z ENDP ; std::vector<tagBaseCharDistanceSq,std::allocator<tagBaseCharDistanceSq> >::operator[]
_TEXT	ENDS
PUBLIC	??1?$_Vector_val@PAVioBaseChar@@V?$allocator@PAVioBaseChar@@@std@@@std@@QAE@XZ ; std::_Vector_val<ioBaseChar *,std::allocator<ioBaseChar *> >::~_Vector_val<ioBaseChar *,std::allocator<ioBaseChar *> >
; Function compile flags: /Ogsp
;	COMDAT ??1?$_Vector_val@PAVioBaseChar@@V?$allocator@PAVioBaseChar@@@std@@@std@@QAE@XZ
_TEXT	SEGMENT
??1?$_Vector_val@PAVioBaseChar@@V?$allocator@PAVioBaseChar@@@std@@@std@@QAE@XZ PROC ; std::_Vector_val<ioBaseChar *,std::allocator<ioBaseChar *> >::~_Vector_val<ioBaseChar *,std::allocator<ioBaseChar *> >, COMDAT
; _this$ = ecx

; 434  : 		}

  00000	c3		 ret	 0
??1?$_Vector_val@PAVioBaseChar@@V?$allocator@PAVioBaseChar@@@std@@@std@@QAE@XZ ENDP ; std::_Vector_val<ioBaseChar *,std::allocator<ioBaseChar *> >::~_Vector_val<ioBaseChar *,std::allocator<ioBaseChar *> >
_TEXT	ENDS
PUBLIC	??0?$allocator@PAVioBaseChar@@@std@@QAE@XZ	; std::allocator<ioBaseChar *>::allocator<ioBaseChar *>
; Function compile flags: /Ogsp
; File c:\program files (x86)\microsoft visual studio 10.0\vc\include\xmemory
;	COMDAT ??0?$allocator@PAVioBaseChar@@@std@@QAE@XZ
_TEXT	SEGMENT
??0?$allocator@PAVioBaseChar@@@std@@QAE@XZ PROC		; std::allocator<ioBaseChar *>::allocator<ioBaseChar *>, COMDAT
; _this$ = ecx

; 161  : 	_ALLOCATOR() _THROW0()

  00000	8b c1		 mov	 eax, ecx

; 162  : 		{	// construct default allocator (do nothing)
; 163  : 		}

  00002	c3		 ret	 0
??0?$allocator@PAVioBaseChar@@@std@@QAE@XZ ENDP		; std::allocator<ioBaseChar *>::allocator<ioBaseChar *>
_TEXT	ENDS
PUBLIC	?_Inside@?$vector@UtagBaseCharDistanceSq@@V?$allocator@UtagBaseCharDistanceSq@@@std@@@std@@IBE_NPBUtagBaseCharDistanceSq@@@Z ; std::vector<tagBaseCharDistanceSq,std::allocator<tagBaseCharDistanceSq> >::_Inside
; Function compile flags: /Ogsp
; File c:\program files (x86)\microsoft visual studio 10.0\vc\include\vector
;	COMDAT ?_Inside@?$vector@UtagBaseCharDistanceSq@@V?$allocator@UtagBaseCharDistanceSq@@@std@@@std@@IBE_NPBUtagBaseCharDistanceSq@@@Z
_TEXT	SEGMENT
__Ptr$ = 8						; size = 4
?_Inside@?$vector@UtagBaseCharDistanceSq@@V?$allocator@UtagBaseCharDistanceSq@@@std@@@std@@IBE_NPBUtagBaseCharDistanceSq@@@Z PROC ; std::vector<tagBaseCharDistanceSq,std::allocator<tagBaseCharDistanceSq> >::_Inside, COMDAT
; _this$ = ecx

; 1285 : 		{	// test if _Ptr points inside vector

  00000	55		 push	 ebp
  00001	8b ec		 mov	 ebp, esp

; 1286 : 		return (_Ptr < this->_Mylast && this->_Myfirst <= _Ptr);

  00003	8b 45 08	 mov	 eax, DWORD PTR __Ptr$[ebp]
  00006	3b 41 04	 cmp	 eax, DWORD PTR [ecx+4]
  00009	73 09		 jae	 SHORT $LN3@Inside
  0000b	39 01		 cmp	 DWORD PTR [ecx], eax
  0000d	77 05		 ja	 SHORT $LN3@Inside
  0000f	33 c0		 xor	 eax, eax
  00011	40		 inc	 eax
  00012	eb 02		 jmp	 SHORT $LN4@Inside
$LN3@Inside:
  00014	33 c0		 xor	 eax, eax
$LN4@Inside:

; 1287 : 		}

  00016	5d		 pop	 ebp
  00017	c2 04 00	 ret	 4
?_Inside@?$vector@UtagBaseCharDistanceSq@@V?$allocator@UtagBaseCharDistanceSq@@@std@@@std@@IBE_NPBUtagBaseCharDistanceSq@@@Z ENDP ; std::vector<tagBaseCharDistanceSq,std::allocator<tagBaseCharDistanceSq> >::_Inside
_TEXT	ENDS
PUBLIC	?_Orphan_range@?$vector@UtagBaseCharDistanceSq@@V?$allocator@UtagBaseCharDistanceSq@@@std@@@std@@IBEXPAUtagBaseCharDistanceSq@@0@Z ; std::vector<tagBaseCharDistanceSq,std::allocator<tagBaseCharDistanceSq> >::_Orphan_range
; Function compile flags: /Ogsp
;	COMDAT ?_Orphan_range@?$vector@UtagBaseCharDistanceSq@@V?$allocator@UtagBaseCharDistanceSq@@@std@@@std@@IBEXPAUtagBaseCharDistanceSq@@0@Z
_TEXT	SEGMENT
___formal$ = 8						; size = 4
___formal$ = 12						; size = 4
?_Orphan_range@?$vector@UtagBaseCharDistanceSq@@V?$allocator@UtagBaseCharDistanceSq@@@std@@@std@@IBEXPAUtagBaseCharDistanceSq@@0@Z PROC ; std::vector<tagBaseCharDistanceSq,std::allocator<tagBaseCharDistanceSq> >::_Orphan_range, COMDAT
; _this$ = ecx

; 1454 : 		}

  00000	c2 08 00	 ret	 8
?_Orphan_range@?$vector@UtagBaseCharDistanceSq@@V?$allocator@UtagBaseCharDistanceSq@@@std@@@std@@IBEXPAUtagBaseCharDistanceSq@@0@Z ENDP ; std::vector<tagBaseCharDistanceSq,std::allocator<tagBaseCharDistanceSq> >::_Orphan_range
_TEXT	ENDS
PUBLIC	??1?$_Vector_val@UtagBaseCharDistanceSq@@V?$allocator@UtagBaseCharDistanceSq@@@std@@@std@@QAE@XZ ; std::_Vector_val<tagBaseCharDistanceSq,std::allocator<tagBaseCharDistanceSq> >::~_Vector_val<tagBaseCharDistanceSq,std::allocator<tagBaseCharDistanceSq> >
; Function compile flags: /Ogsp
;	COMDAT ??1?$_Vector_val@UtagBaseCharDistanceSq@@V?$allocator@UtagBaseCharDistanceSq@@@std@@@std@@QAE@XZ
_TEXT	SEGMENT
??1?$_Vector_val@UtagBaseCharDistanceSq@@V?$allocator@UtagBaseCharDistanceSq@@@std@@@std@@QAE@XZ PROC ; std::_Vector_val<tagBaseCharDistanceSq,std::allocator<tagBaseCharDistanceSq> >::~_Vector_val<tagBaseCharDistanceSq,std::allocator<tagBaseCharDistanceSq> >, COMDAT
; _this$ = ecx

; 434  : 		}

  00000	c3		 ret	 0
??1?$_Vector_val@UtagBaseCharDistanceSq@@V?$allocator@UtagBaseCharDistanceSq@@@std@@@std@@QAE@XZ ENDP ; std::_Vector_val<tagBaseCharDistanceSq,std::allocator<tagBaseCharDistanceSq> >::~_Vector_val<tagBaseCharDistanceSq,std::allocator<tagBaseCharDistanceSq> >
_TEXT	ENDS
PUBLIC	??0?$allocator@UtagBaseCharDistanceSq@@@std@@QAE@XZ ; std::allocator<tagBaseCharDistanceSq>::allocator<tagBaseCharDistanceSq>
; Function compile flags: /Ogsp
; File c:\program files (x86)\microsoft visual studio 10.0\vc\include\xmemory
;	COMDAT ??0?$allocator@UtagBaseCharDistanceSq@@@std@@QAE@XZ
_TEXT	SEGMENT
??0?$allocator@UtagBaseCharDistanceSq@@@std@@QAE@XZ PROC ; std::allocator<tagBaseCharDistanceSq>::allocator<tagBaseCharDistanceSq>, COMDAT
; _this$ = ecx

; 161  : 	_ALLOCATOR() _THROW0()

  00000	8b c1		 mov	 eax, ecx

; 162  : 		{	// construct default allocator (do nothing)
; 163  : 		}

  00002	c3		 ret	 0
??0?$allocator@UtagBaseCharDistanceSq@@@std@@QAE@XZ ENDP ; std::allocator<tagBaseCharDistanceSq>::allocator<tagBaseCharDistanceSq>
_TEXT	ENDS
PUBLIC	??0?$_Vector_const_iterator@V?$_Vector_val@PAVioBaseChar@@V?$allocator@PAVioBaseChar@@@std@@@std@@@std@@QAE@XZ ; std::_Vector_const_iterator<std::_Vector_val<ioBaseChar *,std::allocator<ioBaseChar *> > >::_Vector_const_iterator<std::_Vector_val<ioBaseChar *,std::allocator<ioBaseChar *> > >
; Function compile flags: /Ogsp
; File c:\program files (x86)\microsoft visual studio 10.0\vc\include\vector
;	COMDAT ??0?$_Vector_const_iterator@V?$_Vector_val@PAVioBaseChar@@V?$allocator@PAVioBaseChar@@@std@@@std@@@std@@QAE@XZ
_TEXT	SEGMENT
??0?$_Vector_const_iterator@V?$_Vector_val@PAVioBaseChar@@V?$allocator@PAVioBaseChar@@@std@@@std@@@std@@QAE@XZ PROC ; std::_Vector_const_iterator<std::_Vector_val<ioBaseChar *,std::allocator<ioBaseChar *> > >::_Vector_const_iterator<std::_Vector_val<ioBaseChar *,std::allocator<ioBaseChar *> > >, COMDAT
; _this$ = ecx

; 40   : 		{	// construct with null pointer

  00000	8b c1		 mov	 eax, ecx
  00002	83 20 00	 and	 DWORD PTR [eax], 0

; 41   : 		}

  00005	c3		 ret	 0
??0?$_Vector_const_iterator@V?$_Vector_val@PAVioBaseChar@@V?$allocator@PAVioBaseChar@@@std@@@std@@@std@@QAE@XZ ENDP ; std::_Vector_const_iterator<std::_Vector_val<ioBaseChar *,std::allocator<ioBaseChar *> > >::_Vector_const_iterator<std::_Vector_val<ioBaseChar *,std::allocator<ioBaseChar *> > >
_TEXT	ENDS
PUBLIC	??D?$_Vector_const_iterator@V?$_Vector_val@PAVioBaseChar@@V?$allocator@PAVioBaseChar@@@std@@@std@@@std@@QBEABQAVioBaseChar@@XZ ; std::_Vector_const_iterator<std::_Vector_val<ioBaseChar *,std::allocator<ioBaseChar *> > >::operator*
; Function compile flags: /Ogsp
;	COMDAT ??D?$_Vector_const_iterator@V?$_Vector_val@PAVioBaseChar@@V?$allocator@PAVioBaseChar@@@std@@@std@@@std@@QBEABQAVioBaseChar@@XZ
_TEXT	SEGMENT
??D?$_Vector_const_iterator@V?$_Vector_val@PAVioBaseChar@@V?$allocator@PAVioBaseChar@@@std@@@std@@@std@@QBEABQAVioBaseChar@@XZ PROC ; std::_Vector_const_iterator<std::_Vector_val<ioBaseChar *,std::allocator<ioBaseChar *> > >::operator*, COMDAT
; _this$ = ecx

; 64   :  #if _ITERATOR_DEBUG_LEVEL == 2
; 65   : 		if (this->_Getcont() == 0
; 66   : 			|| this->_Ptr == 0
; 67   : 			|| this->_Ptr < ((_Myvec *)this->_Getcont())->_Myfirst
; 68   : 			|| ((_Myvec *)this->_Getcont())->_Mylast <= this->_Ptr)
; 69   : 			{	// report error
; 70   : 			_DEBUG_ERROR("vector iterator not dereferencable");
; 71   : 			_SCL_SECURE_OUT_OF_RANGE;
; 72   : 			}
; 73   : 
; 74   :  #elif _ITERATOR_DEBUG_LEVEL == 1
; 75   : 		_SCL_SECURE_VALIDATE(this->_Getcont() != 0);
; 76   : 		_SCL_SECURE_VALIDATE_RANGE(
; 77   : 			this->_Ptr != 0
; 78   : 			&& ((_Myvec *)this->_Getcont())->_Myfirst <= this->_Ptr
; 79   : 			&& this->_Ptr < ((_Myvec *)this->_Getcont())->_Mylast);
; 80   :  #endif /* _ITERATOR_DEBUG_LEVEL */
; 81   : 
; 82   : 		__analysis_assume(this->_Ptr != 0);
; 83   : 
; 84   : 		return (*this->_Ptr);

  00000	8b 01		 mov	 eax, DWORD PTR [ecx]

; 85   : 		}

  00002	c3		 ret	 0
??D?$_Vector_const_iterator@V?$_Vector_val@PAVioBaseChar@@V?$allocator@PAVioBaseChar@@@std@@@std@@@std@@QBEABQAVioBaseChar@@XZ ENDP ; std::_Vector_const_iterator<std::_Vector_val<ioBaseChar *,std::allocator<ioBaseChar *> > >::operator*
_TEXT	ENDS
PUBLIC	??E?$_Vector_const_iterator@V?$_Vector_val@PAVioBaseChar@@V?$allocator@PAVioBaseChar@@@std@@@std@@@std@@QAEAAV01@XZ ; std::_Vector_const_iterator<std::_Vector_val<ioBaseChar *,std::allocator<ioBaseChar *> > >::operator++
; Function compile flags: /Ogsp
;	COMDAT ??E?$_Vector_const_iterator@V?$_Vector_val@PAVioBaseChar@@V?$allocator@PAVioBaseChar@@@std@@@std@@@std@@QAEAAV01@XZ
_TEXT	SEGMENT
??E?$_Vector_const_iterator@V?$_Vector_val@PAVioBaseChar@@V?$allocator@PAVioBaseChar@@@std@@@std@@@std@@QAEAAV01@XZ PROC ; std::_Vector_const_iterator<std::_Vector_val<ioBaseChar *,std::allocator<ioBaseChar *> > >::operator++, COMDAT
; _this$ = ecx

; 93   : 		{	// preincrement

  00000	8b c1		 mov	 eax, ecx

; 94   :  #if _ITERATOR_DEBUG_LEVEL == 2
; 95   : 		if (this->_Getcont() == 0
; 96   : 			|| this->_Ptr == 0
; 97   : 			|| ((_Myvec *)this->_Getcont())->_Mylast <= this->_Ptr)
; 98   : 			{	// report error
; 99   : 			_DEBUG_ERROR("vector iterator not incrementable");
; 100  : 			_SCL_SECURE_OUT_OF_RANGE;
; 101  : 			}
; 102  : 
; 103  :  #elif _ITERATOR_DEBUG_LEVEL == 1
; 104  : 		_SCL_SECURE_VALIDATE(this->_Getcont() != 0);
; 105  : 		_SCL_SECURE_VALIDATE_RANGE(
; 106  : 			this->_Ptr != 0
; 107  : 			&& this->_Ptr < ((_Myvec *)this->_Getcont())->_Mylast);
; 108  :  #endif /* _ITERATOR_DEBUG_LEVEL */
; 109  : 
; 110  : 		++this->_Ptr;

  00002	83 00 04	 add	 DWORD PTR [eax], 4

; 111  : 		return (*this);
; 112  : 		}

  00005	c3		 ret	 0
??E?$_Vector_const_iterator@V?$_Vector_val@PAVioBaseChar@@V?$allocator@PAVioBaseChar@@@std@@@std@@@std@@QAEAAV01@XZ ENDP ; std::_Vector_const_iterator<std::_Vector_val<ioBaseChar *,std::allocator<ioBaseChar *> > >::operator++
_TEXT	ENDS
PUBLIC	??0?$allocator@PAVioBaseChar@@@std@@QAE@ABV01@@Z ; std::allocator<ioBaseChar *>::allocator<ioBaseChar *>
; Function compile flags: /Ogsp
; File c:\program files (x86)\microsoft visual studio 10.0\vc\include\xmemory
;	COMDAT ??0?$allocator@PAVioBaseChar@@@std@@QAE@ABV01@@Z
_TEXT	SEGMENT
___formal$ = 8						; size = 4
??0?$allocator@PAVioBaseChar@@@std@@QAE@ABV01@@Z PROC	; std::allocator<ioBaseChar *>::allocator<ioBaseChar *>, COMDAT
; _this$ = ecx

; 165  : 	_ALLOCATOR(const _ALLOCATOR<_Ty>&) _THROW0()

  00000	8b c1		 mov	 eax, ecx

; 166  : 		{	// construct by copying (do nothing)
; 167  : 		}

  00002	c2 04 00	 ret	 4
??0?$allocator@PAVioBaseChar@@@std@@QAE@ABV01@@Z ENDP	; std::allocator<ioBaseChar *>::allocator<ioBaseChar *>
_TEXT	ENDS
PUBLIC	?deallocate@?$allocator@PAVioBaseChar@@@std@@QAEXPAPAVioBaseChar@@I@Z ; std::allocator<ioBaseChar *>::deallocate
; Function compile flags: /Ogsp
;	COMDAT ?deallocate@?$allocator@PAVioBaseChar@@@std@@QAEXPAPAVioBaseChar@@I@Z
_TEXT	SEGMENT
__Ptr$ = 8						; size = 4
___formal$ = 12						; size = 4
?deallocate@?$allocator@PAVioBaseChar@@@std@@QAEXPAPAVioBaseChar@@I@Z PROC ; std::allocator<ioBaseChar *>::deallocate, COMDAT
; _this$ = ecx

; 181  : 		{	// deallocate object at _Ptr, ignore size

  00000	55		 push	 ebp
  00001	8b ec		 mov	 ebp, esp

; 182  : 		::operator delete(_Ptr);

  00003	ff 75 08	 push	 DWORD PTR __Ptr$[ebp]
  00006	e8 00 00 00 00	 call	 ??3@YAXPAX@Z		; operator delete
  0000b	59		 pop	 ecx

; 183  : 		}

  0000c	5d		 pop	 ebp
  0000d	c2 08 00	 ret	 8
?deallocate@?$allocator@PAVioBaseChar@@@std@@QAEXPAPAVioBaseChar@@I@Z ENDP ; std::allocator<ioBaseChar *>::deallocate
_TEXT	ENDS
PUBLIC	?capacity@?$vector@UtagBaseCharDistanceSq@@V?$allocator@UtagBaseCharDistanceSq@@@std@@@std@@QBEIXZ ; std::vector<tagBaseCharDistanceSq,std::allocator<tagBaseCharDistanceSq> >::capacity
; Function compile flags: /Ogsp
; File c:\program files (x86)\microsoft visual studio 10.0\vc\include\vector
;	COMDAT ?capacity@?$vector@UtagBaseCharDistanceSq@@V?$allocator@UtagBaseCharDistanceSq@@@std@@@std@@QBEIXZ
_TEXT	SEGMENT
?capacity@?$vector@UtagBaseCharDistanceSq@@V?$allocator@UtagBaseCharDistanceSq@@@std@@@std@@QBEIXZ PROC ; std::vector<tagBaseCharDistanceSq,std::allocator<tagBaseCharDistanceSq> >::capacity, COMDAT
; _this$ = ecx

; 777  : 		return (this->_Myend - this->_Myfirst);

  00000	8b 41 08	 mov	 eax, DWORD PTR [ecx+8]
  00003	2b 01		 sub	 eax, DWORD PTR [ecx]
  00005	c1 f8 05	 sar	 eax, 5

; 778  : 		}

  00008	c3		 ret	 0
?capacity@?$vector@UtagBaseCharDistanceSq@@V?$allocator@UtagBaseCharDistanceSq@@@std@@@std@@QBEIXZ ENDP ; std::vector<tagBaseCharDistanceSq,std::allocator<tagBaseCharDistanceSq> >::capacity
_TEXT	ENDS
PUBLIC	?size@?$vector@UtagBaseCharDistanceSq@@V?$allocator@UtagBaseCharDistanceSq@@@std@@@std@@QBEIXZ ; std::vector<tagBaseCharDistanceSq,std::allocator<tagBaseCharDistanceSq> >::size
; Function compile flags: /Ogsp
;	COMDAT ?size@?$vector@UtagBaseCharDistanceSq@@V?$allocator@UtagBaseCharDistanceSq@@@std@@@std@@QBEIXZ
_TEXT	SEGMENT
?size@?$vector@UtagBaseCharDistanceSq@@V?$allocator@UtagBaseCharDistanceSq@@@std@@@std@@QBEIXZ PROC ; std::vector<tagBaseCharDistanceSq,std::allocator<tagBaseCharDistanceSq> >::size, COMDAT
; _this$ = ecx

; 879  : 		return (this->_Mylast - this->_Myfirst);

  00000	8b 41 04	 mov	 eax, DWORD PTR [ecx+4]
  00003	2b 01		 sub	 eax, DWORD PTR [ecx]
  00005	c1 f8 05	 sar	 eax, 5

; 880  : 		}

  00008	c3		 ret	 0
?size@?$vector@UtagBaseCharDistanceSq@@V?$allocator@UtagBaseCharDistanceSq@@@std@@@std@@QBEIXZ ENDP ; std::vector<tagBaseCharDistanceSq,std::allocator<tagBaseCharDistanceSq> >::size
_TEXT	ENDS
PUBLIC	??_C@_0BD@OLBABOEK@vector?$DMT?$DO?5too?5long?$AA@ ; `string'
PUBLIC	?_Xlen@?$vector@UtagBaseCharDistanceSq@@V?$allocator@UtagBaseCharDistanceSq@@@std@@@std@@IBEXXZ ; std::vector<tagBaseCharDistanceSq,std::allocator<tagBaseCharDistanceSq> >::_Xlen
EXTRN	__imp_?_Xlength_error@std@@YAXPBD@Z:PROC
;	COMDAT ??_C@_0BD@OLBABOEK@vector?$DMT?$DO?5too?5long?$AA@
CONST	SEGMENT
??_C@_0BD@OLBABOEK@vector?$DMT?$DO?5too?5long?$AA@ DB 'vector<T> too long'
	DB	00H						; `string'
; Function compile flags: /Ogsp
CONST	ENDS
;	COMDAT ?_Xlen@?$vector@UtagBaseCharDistanceSq@@V?$allocator@UtagBaseCharDistanceSq@@@std@@@std@@IBEXXZ
_TEXT	SEGMENT
?_Xlen@?$vector@UtagBaseCharDistanceSq@@V?$allocator@UtagBaseCharDistanceSq@@@std@@@std@@IBEXXZ PROC ; std::vector<tagBaseCharDistanceSq,std::allocator<tagBaseCharDistanceSq> >::_Xlen, COMDAT
; _this$ = ecx

; 1427 : 		_Xlength_error("vector<T> too long");

  00000	68 00 00 00 00	 push	 OFFSET ??_C@_0BD@OLBABOEK@vector?$DMT?$DO?5too?5long?$AA@
  00005	ff 15 00 00 00
	00		 call	 DWORD PTR __imp_?_Xlength_error@std@@YAXPBD@Z
$LN4@Xlen:
$LN3@Xlen:
  0000b	cc		 int	 3
?_Xlen@?$vector@UtagBaseCharDistanceSq@@V?$allocator@UtagBaseCharDistanceSq@@@std@@@std@@IBEXXZ ENDP ; std::vector<tagBaseCharDistanceSq,std::allocator<tagBaseCharDistanceSq> >::_Xlen
_TEXT	ENDS
PUBLIC	??0?$allocator@UtagBaseCharDistanceSq@@@std@@QAE@ABV01@@Z ; std::allocator<tagBaseCharDistanceSq>::allocator<tagBaseCharDistanceSq>
; Function compile flags: /Ogsp
; File c:\program files (x86)\microsoft visual studio 10.0\vc\include\xmemory
;	COMDAT ??0?$allocator@UtagBaseCharDistanceSq@@@std@@QAE@ABV01@@Z
_TEXT	SEGMENT
___formal$ = 8						; size = 4
??0?$allocator@UtagBaseCharDistanceSq@@@std@@QAE@ABV01@@Z PROC ; std::allocator<tagBaseCharDistanceSq>::allocator<tagBaseCharDistanceSq>, COMDAT
; _this$ = ecx

; 165  : 	_ALLOCATOR(const _ALLOCATOR<_Ty>&) _THROW0()

  00000	8b c1		 mov	 eax, ecx

; 166  : 		{	// construct by copying (do nothing)
; 167  : 		}

  00002	c2 04 00	 ret	 4
??0?$allocator@UtagBaseCharDistanceSq@@@std@@QAE@ABV01@@Z ENDP ; std::allocator<tagBaseCharDistanceSq>::allocator<tagBaseCharDistanceSq>
_TEXT	ENDS
PUBLIC	?deallocate@?$allocator@UtagBaseCharDistanceSq@@@std@@QAEXPAUtagBaseCharDistanceSq@@I@Z ; std::allocator<tagBaseCharDistanceSq>::deallocate
; Function compile flags: /Ogsp
;	COMDAT ?deallocate@?$allocator@UtagBaseCharDistanceSq@@@std@@QAEXPAUtagBaseCharDistanceSq@@I@Z
_TEXT	SEGMENT
__Ptr$ = 8						; size = 4
___formal$ = 12						; size = 4
?deallocate@?$allocator@UtagBaseCharDistanceSq@@@std@@QAEXPAUtagBaseCharDistanceSq@@I@Z PROC ; std::allocator<tagBaseCharDistanceSq>::deallocate, COMDAT
; _this$ = ecx

; 181  : 		{	// deallocate object at _Ptr, ignore size

  00000	55		 push	 ebp
  00001	8b ec		 mov	 ebp, esp

; 182  : 		::operator delete(_Ptr);

  00003	ff 75 08	 push	 DWORD PTR __Ptr$[ebp]
  00006	e8 00 00 00 00	 call	 ??3@YAXPAX@Z		; operator delete
  0000b	59		 pop	 ecx

; 183  : 		}

  0000c	5d		 pop	 ebp
  0000d	c2 08 00	 ret	 8
?deallocate@?$allocator@UtagBaseCharDistanceSq@@@std@@QAEXPAUtagBaseCharDistanceSq@@I@Z ENDP ; std::allocator<tagBaseCharDistanceSq>::deallocate
_TEXT	ENDS
PUBLIC	??0?$_Vector_const_iterator@V?$_Vector_val@PAVioBaseChar@@V?$allocator@PAVioBaseChar@@@std@@@std@@@std@@QAE@PAPAVioBaseChar@@PBU_Container_base0@1@@Z ; std::_Vector_const_iterator<std::_Vector_val<ioBaseChar *,std::allocator<ioBaseChar *> > >::_Vector_const_iterator<std::_Vector_val<ioBaseChar *,std::allocator<ioBaseChar *> > >
; Function compile flags: /Ogsp
; File c:\program files (x86)\microsoft visual studio 10.0\vc\include\vector
;	COMDAT ??0?$_Vector_const_iterator@V?$_Vector_val@PAVioBaseChar@@V?$allocator@PAVioBaseChar@@@std@@@std@@@std@@QAE@PAPAVioBaseChar@@PBU_Container_base0@1@@Z
_TEXT	SEGMENT
__Parg$ = 8						; size = 4
__Pvector$ = 12						; size = 4
??0?$_Vector_const_iterator@V?$_Vector_val@PAVioBaseChar@@V?$allocator@PAVioBaseChar@@@std@@@std@@@std@@QAE@PAPAVioBaseChar@@PBU_Container_base0@1@@Z PROC ; std::_Vector_const_iterator<std::_Vector_val<ioBaseChar *,std::allocator<ioBaseChar *> > >::_Vector_const_iterator<std::_Vector_val<ioBaseChar *,std::allocator<ioBaseChar *> > >, COMDAT
; _this$ = ecx

; 45   : 		{	// construct with pointer _Parg

  00000	55		 push	 ebp
  00001	8b ec		 mov	 ebp, esp
  00003	8b c1		 mov	 eax, ecx
  00005	8b 4d 08	 mov	 ecx, DWORD PTR __Parg$[ebp]
  00008	89 08		 mov	 DWORD PTR [eax], ecx

; 46   : 		this->_Adopt(_Pvector);
; 47   : 		}

  0000a	5d		 pop	 ebp
  0000b	c2 08 00	 ret	 8
??0?$_Vector_const_iterator@V?$_Vector_val@PAVioBaseChar@@V?$allocator@PAVioBaseChar@@@std@@@std@@@std@@QAE@PAPAVioBaseChar@@PBU_Container_base0@1@@Z ENDP ; std::_Vector_const_iterator<std::_Vector_val<ioBaseChar *,std::allocator<ioBaseChar *> > >::_Vector_const_iterator<std::_Vector_val<ioBaseChar *,std::allocator<ioBaseChar *> > >
_TEXT	ENDS
PUBLIC	?_Compat@?$_Vector_const_iterator@V?$_Vector_val@PAVioBaseChar@@V?$allocator@PAVioBaseChar@@@std@@@std@@@std@@QBEXABV12@@Z ; std::_Vector_const_iterator<std::_Vector_val<ioBaseChar *,std::allocator<ioBaseChar *> > >::_Compat
; Function compile flags: /Ogsp
;	COMDAT ?_Compat@?$_Vector_const_iterator@V?$_Vector_val@PAVioBaseChar@@V?$allocator@PAVioBaseChar@@@std@@@std@@@std@@QBEXABV12@@Z
_TEXT	SEGMENT
___formal$ = 8						; size = 4
?_Compat@?$_Vector_const_iterator@V?$_Vector_val@PAVioBaseChar@@V?$allocator@PAVioBaseChar@@@std@@@std@@@std@@QBEXABV12@@Z PROC ; std::_Vector_const_iterator<std::_Vector_val<ioBaseChar *,std::allocator<ioBaseChar *> > >::_Compat, COMDAT
; _this$ = ecx

; 253  : 		}

  00000	c2 04 00	 ret	 4
?_Compat@?$_Vector_const_iterator@V?$_Vector_val@PAVioBaseChar@@V?$allocator@PAVioBaseChar@@@std@@@std@@@std@@QBEXABV12@@Z ENDP ; std::_Vector_const_iterator<std::_Vector_val<ioBaseChar *,std::allocator<ioBaseChar *> > >::_Compat
_TEXT	ENDS
PUBLIC	??0?$_Vector_const_iterator@V?$_Vector_val@UtagBaseCharDistanceSq@@V?$allocator@UtagBaseCharDistanceSq@@@std@@@std@@@std@@QAE@PAUtagBaseCharDistanceSq@@PBU_Container_base0@1@@Z ; std::_Vector_const_iterator<std::_Vector_val<tagBaseCharDistanceSq,std::allocator<tagBaseCharDistanceSq> > >::_Vector_const_iterator<std::_Vector_val<tagBaseCharDistanceSq,std::allocator<tagBaseCharDistanceSq> > >
; Function compile flags: /Ogsp
;	COMDAT ??0?$_Vector_const_iterator@V?$_Vector_val@UtagBaseCharDistanceSq@@V?$allocator@UtagBaseCharDistanceSq@@@std@@@std@@@std@@QAE@PAUtagBaseCharDistanceSq@@PBU_Container_base0@1@@Z
_TEXT	SEGMENT
__Parg$ = 8						; size = 4
__Pvector$ = 12						; size = 4
??0?$_Vector_const_iterator@V?$_Vector_val@UtagBaseCharDistanceSq@@V?$allocator@UtagBaseCharDistanceSq@@@std@@@std@@@std@@QAE@PAUtagBaseCharDistanceSq@@PBU_Container_base0@1@@Z PROC ; std::_Vector_const_iterator<std::_Vector_val<tagBaseCharDistanceSq,std::allocator<tagBaseCharDistanceSq> > >::_Vector_const_iterator<std::_Vector_val<tagBaseCharDistanceSq,std::allocator<tagBaseCharDistanceSq> > >, COMDAT
; _this$ = ecx

; 45   : 		{	// construct with pointer _Parg

  00000	55		 push	 ebp
  00001	8b ec		 mov	 ebp, esp
  00003	8b c1		 mov	 eax, ecx
  00005	8b 4d 08	 mov	 ecx, DWORD PTR __Parg$[ebp]
  00008	89 08		 mov	 DWORD PTR [eax], ecx

; 46   : 		this->_Adopt(_Pvector);
; 47   : 		}

  0000a	5d		 pop	 ebp
  0000b	c2 08 00	 ret	 8
??0?$_Vector_const_iterator@V?$_Vector_val@UtagBaseCharDistanceSq@@V?$allocator@UtagBaseCharDistanceSq@@@std@@@std@@@std@@QAE@PAUtagBaseCharDistanceSq@@PBU_Container_base0@1@@Z ENDP ; std::_Vector_const_iterator<std::_Vector_val<tagBaseCharDistanceSq,std::allocator<tagBaseCharDistanceSq> > >::_Vector_const_iterator<std::_Vector_val<tagBaseCharDistanceSq,std::allocator<tagBaseCharDistanceSq> > >
_TEXT	ENDS
PUBLIC	?max_size@?$allocator@UtagBaseCharDistanceSq@@@std@@QBEIXZ ; std::allocator<tagBaseCharDistanceSq>::max_size
; Function compile flags: /Ogsp
; File c:\program files (x86)\microsoft visual studio 10.0\vc\include\xmemory
;	COMDAT ?max_size@?$allocator@UtagBaseCharDistanceSq@@@std@@QBEIXZ
_TEXT	SEGMENT
?max_size@?$allocator@UtagBaseCharDistanceSq@@@std@@QBEIXZ PROC ; std::allocator<tagBaseCharDistanceSq>::max_size, COMDAT
; _this$ = ecx

; 218  : 		_SIZT _Count = (_SIZT)(-1) / sizeof (_Ty);
; 219  : 		return (0 < _Count ? _Count : 1);

  00000	b8 ff ff ff 07	 mov	 eax, 134217727		; 07ffffffH

; 220  : 		}

  00005	c3		 ret	 0
?max_size@?$allocator@UtagBaseCharDistanceSq@@@std@@QBEIXZ ENDP ; std::allocator<tagBaseCharDistanceSq>::max_size
_TEXT	ENDS
PUBLIC	??0D3DXVECTOR3@@QAE@XZ				; D3DXVECTOR3::D3DXVECTOR3
; Function compile flags: /Ogsp
; File c:\program files (x86)\microsoft directx sdk (june 2010)\include\d3dx9math.h
;	COMDAT ??0D3DXVECTOR3@@QAE@XZ
_TEXT	SEGMENT
??0D3DXVECTOR3@@QAE@XZ PROC				; D3DXVECTOR3::D3DXVECTOR3, COMDAT
; _this$ = ecx

; 165  :     D3DXVECTOR3() {};

  00000	8b c1		 mov	 eax, ecx
  00002	c3		 ret	 0
??0D3DXVECTOR3@@QAE@XZ ENDP				; D3DXVECTOR3::D3DXVECTOR3
_TEXT	ENDS
PUBLIC	??0D3DXQUATERNION@@QAE@XZ			; D3DXQUATERNION::D3DXQUATERNION
; Function compile flags: /Ogsp
;	COMDAT ??0D3DXQUATERNION@@QAE@XZ
_TEXT	SEGMENT
??0D3DXQUATERNION@@QAE@XZ PROC				; D3DXQUATERNION::D3DXQUATERNION, COMDAT
; _this$ = ecx

; 429  :     D3DXQUATERNION() {}

  00000	8b c1		 mov	 eax, ecx
  00002	c3		 ret	 0
??0D3DXQUATERNION@@QAE@XZ ENDP				; D3DXQUATERNION::D3DXQUATERNION
_TEXT	ENDS
PUBLIC	??0D3DXVECTOR3@@QAE@MMM@Z			; D3DXVECTOR3::D3DXVECTOR3
; Function compile flags: /Ogsp
; File c:\program files (x86)\microsoft directx sdk (june 2010)\include\d3dx9math.inl
;	COMDAT ??0D3DXVECTOR3@@QAE@MMM@Z
_TEXT	SEGMENT
_fx$ = 8						; size = 4
_fy$ = 12						; size = 4
_fz$ = 16						; size = 4
??0D3DXVECTOR3@@QAE@MMM@Z PROC				; D3DXVECTOR3::D3DXVECTOR3, COMDAT
; _this$ = ecx

; 303  : {

  00000	55		 push	 ebp
  00001	8b ec		 mov	 ebp, esp

; 304  :     x = fx;

  00003	f3 0f 10 45 08	 movss	 xmm0, DWORD PTR _fx$[ebp]
  00008	8b c1		 mov	 eax, ecx
  0000a	f3 0f 11 00	 movss	 DWORD PTR [eax], xmm0

; 305  :     y = fy;

  0000e	f3 0f 10 45 0c	 movss	 xmm0, DWORD PTR _fy$[ebp]
  00013	f3 0f 11 40 04	 movss	 DWORD PTR [eax+4], xmm0

; 306  :     z = fz;

  00018	f3 0f 10 45 10	 movss	 xmm0, DWORD PTR _fz$[ebp]
  0001d	f3 0f 11 40 08	 movss	 DWORD PTR [eax+8], xmm0

; 307  : }

  00022	5d		 pop	 ebp
  00023	c2 0c 00	 ret	 12			; 0000000cH
??0D3DXVECTOR3@@QAE@MMM@Z ENDP				; D3DXVECTOR3::D3DXVECTOR3
_TEXT	ENDS
PUBLIC	__mask@@NegFloat@
PUBLIC	??GD3DXVECTOR3@@QBE?AU0@XZ			; D3DXVECTOR3::operator-
;	COMDAT __mask@@NegFloat@
CONST	SEGMENT
__mask@@NegFloat@ DB 00H, 00H, 00H, 080H, 00H, 00H, 00H, 080H, 00H, 00H, 00H
	DB	080H, 00H, 00H, 00H, 080H
; Function compile flags: /Ogsp
CONST	ENDS
;	COMDAT ??GD3DXVECTOR3@@QBE?AU0@XZ
_TEXT	SEGMENT
___$ReturnUdt$ = 8					; size = 4
??GD3DXVECTOR3@@QBE?AU0@XZ PROC				; D3DXVECTOR3::operator-, COMDAT
; _this$ = ecx

; 372  : {

  00000	55		 push	 ebp
  00001	8b ec		 mov	 ebp, esp

; 373  :     return D3DXVECTOR3(-x, -y, -z);

  00003	f3 0f 10 05 00
	00 00 00	 movss	 xmm0, DWORD PTR __mask@@NegFloat@
  0000b	8b 45 08	 mov	 eax, DWORD PTR ___$ReturnUdt$[ebp]
  0000e	f3 0f 10 09	 movss	 xmm1, DWORD PTR [ecx]
  00012	0f 57 c8	 xorps	 xmm1, xmm0
  00015	f3 0f 11 08	 movss	 DWORD PTR [eax], xmm1
  00019	f3 0f 10 49 04	 movss	 xmm1, DWORD PTR [ecx+4]
  0001e	0f 57 c8	 xorps	 xmm1, xmm0
  00021	f3 0f 11 48 04	 movss	 DWORD PTR [eax+4], xmm1
  00026	f3 0f 10 49 08	 movss	 xmm1, DWORD PTR [ecx+8]
  0002b	0f 57 c8	 xorps	 xmm1, xmm0
  0002e	f3 0f 11 48 08	 movss	 DWORD PTR [eax+8], xmm1

; 374  : }

  00033	5d		 pop	 ebp
  00034	c2 04 00	 ret	 4
??GD3DXVECTOR3@@QBE?AU0@XZ ENDP				; D3DXVECTOR3::operator-
_TEXT	ENDS
PUBLIC	??GD3DXVECTOR3@@QBE?AU0@ABU0@@Z			; D3DXVECTOR3::operator-
; Function compile flags: /Ogsp
;	COMDAT ??GD3DXVECTOR3@@QBE?AU0@ABU0@@Z
_TEXT	SEGMENT
___$ReturnUdt$ = 8					; size = 4
_v$ = 12						; size = 4
??GD3DXVECTOR3@@QBE?AU0@ABU0@@Z PROC			; D3DXVECTOR3::operator-, COMDAT
; _this$ = ecx

; 386  : {

  00000	55		 push	 ebp
  00001	8b ec		 mov	 ebp, esp

; 387  :     return D3DXVECTOR3(x - v.x, y - v.y, z - v.z);

  00003	8b 55 0c	 mov	 edx, DWORD PTR _v$[ebp]
  00006	f3 0f 10 01	 movss	 xmm0, DWORD PTR [ecx]
  0000a	f3 0f 10 0a	 movss	 xmm1, DWORD PTR [edx]
  0000e	8b 45 08	 mov	 eax, DWORD PTR ___$ReturnUdt$[ebp]
  00011	0f 5a c0	 cvtps2pd xmm0, xmm0
  00014	0f 5a c9	 cvtps2pd xmm1, xmm1
  00017	f2 0f 5c c1	 subsd	 xmm0, xmm1
  0001b	f3 0f 10 4a 04	 movss	 xmm1, DWORD PTR [edx+4]
  00020	66 0f 5a c0	 cvtpd2ps xmm0, xmm0
  00024	f3 0f 11 00	 movss	 DWORD PTR [eax], xmm0
  00028	f3 0f 10 41 04	 movss	 xmm0, DWORD PTR [ecx+4]
  0002d	0f 5a c0	 cvtps2pd xmm0, xmm0
  00030	0f 5a c9	 cvtps2pd xmm1, xmm1
  00033	f2 0f 5c c1	 subsd	 xmm0, xmm1
  00037	f3 0f 10 4a 08	 movss	 xmm1, DWORD PTR [edx+8]
  0003c	66 0f 5a c0	 cvtpd2ps xmm0, xmm0
  00040	f3 0f 11 40 04	 movss	 DWORD PTR [eax+4], xmm0
  00045	f3 0f 10 41 08	 movss	 xmm0, DWORD PTR [ecx+8]
  0004a	0f 5a c0	 cvtps2pd xmm0, xmm0
  0004d	0f 5a c9	 cvtps2pd xmm1, xmm1
  00050	f2 0f 5c c1	 subsd	 xmm0, xmm1
  00054	66 0f 5a c0	 cvtpd2ps xmm0, xmm0
  00058	f3 0f 11 40 08	 movss	 DWORD PTR [eax+8], xmm0

; 388  : }

  0005d	5d		 pop	 ebp
  0005e	c2 08 00	 ret	 8
??GD3DXVECTOR3@@QBE?AU0@ABU0@@Z ENDP			; D3DXVECTOR3::operator-
_TEXT	ENDS
PUBLIC	??DD3DXVECTOR3@@QBE?AU0@M@Z			; D3DXVECTOR3::operator*
; Function compile flags: /Ogsp
;	COMDAT ??DD3DXVECTOR3@@QBE?AU0@M@Z
_TEXT	SEGMENT
___$ReturnUdt$ = 8					; size = 4
_f$ = 12						; size = 4
??DD3DXVECTOR3@@QBE?AU0@M@Z PROC			; D3DXVECTOR3::operator*, COMDAT
; _this$ = ecx

; 392  : {

  00000	55		 push	 ebp
  00001	8b ec		 mov	 ebp, esp

; 393  :     return D3DXVECTOR3(x * f, y * f, z * f);

  00003	f3 0f 10 4d 0c	 movss	 xmm1, DWORD PTR _f$[ebp]
  00008	f3 0f 10 01	 movss	 xmm0, DWORD PTR [ecx]
  0000c	8b 45 08	 mov	 eax, DWORD PTR ___$ReturnUdt$[ebp]
  0000f	0f 5a c0	 cvtps2pd xmm0, xmm0
  00012	0f 5a c9	 cvtps2pd xmm1, xmm1
  00015	f2 0f 59 c1	 mulsd	 xmm0, xmm1
  00019	f3 0f 10 4d 0c	 movss	 xmm1, DWORD PTR _f$[ebp]
  0001e	66 0f 5a c0	 cvtpd2ps xmm0, xmm0
  00022	f3 0f 11 00	 movss	 DWORD PTR [eax], xmm0
  00026	f3 0f 10 41 04	 movss	 xmm0, DWORD PTR [ecx+4]
  0002b	0f 5a c0	 cvtps2pd xmm0, xmm0
  0002e	0f 5a c9	 cvtps2pd xmm1, xmm1
  00031	f2 0f 59 c1	 mulsd	 xmm0, xmm1
  00035	f3 0f 10 4d 0c	 movss	 xmm1, DWORD PTR _f$[ebp]
  0003a	66 0f 5a c0	 cvtpd2ps xmm0, xmm0
  0003e	f3 0f 11 40 04	 movss	 DWORD PTR [eax+4], xmm0
  00043	f3 0f 10 41 08	 movss	 xmm0, DWORD PTR [ecx+8]
  00048	0f 5a c0	 cvtps2pd xmm0, xmm0
  0004b	0f 5a c9	 cvtps2pd xmm1, xmm1
  0004e	f2 0f 59 c1	 mulsd	 xmm0, xmm1
  00052	66 0f 5a c0	 cvtpd2ps xmm0, xmm0
  00056	f3 0f 11 40 08	 movss	 DWORD PTR [eax+8], xmm0

; 394  : }

  0005b	5d		 pop	 ebp
  0005c	c2 08 00	 ret	 8
??DD3DXVECTOR3@@QBE?AU0@M@Z ENDP			; D3DXVECTOR3::operator*
_TEXT	ENDS
PUBLIC	??$addressof@$$CBUtagBaseCharDistanceSq@@@std@@YAPBUtagBaseCharDistanceSq@@ABU1@@Z ; std::addressof<tagBaseCharDistanceSq const >
; Function compile flags: /Ogsp
; File c:\program files (x86)\microsoft visual studio 10.0\vc\include\xmemory
;	COMDAT ??$addressof@$$CBUtagBaseCharDistanceSq@@@std@@YAPBUtagBaseCharDistanceSq@@ABU1@@Z
_TEXT	SEGMENT
__Val$ = 8						; size = 4
??$addressof@$$CBUtagBaseCharDistanceSq@@@std@@YAPBUtagBaseCharDistanceSq@@ABU1@@Z PROC ; std::addressof<tagBaseCharDistanceSq const >, COMDAT

; 110  : 	{	// return address of _Val

  00000	55		 push	 ebp
  00001	8b ec		 mov	 ebp, esp

; 111  : 	return ((_Ty *) &(char&)_Val);

  00003	8b 45 08	 mov	 eax, DWORD PTR __Val$[ebp]

; 112  : 	}

  00006	5d		 pop	 ebp
  00007	c3		 ret	 0
??$addressof@$$CBUtagBaseCharDistanceSq@@@std@@YAPBUtagBaseCharDistanceSq@@ABU1@@Z ENDP ; std::addressof<tagBaseCharDistanceSq const >
_TEXT	ENDS
PUBLIC	__TI2?AVbad_alloc@std@@
PUBLIC	??$_Allocate@UtagBaseCharDistanceSq@@@std@@YAPAUtagBaseCharDistanceSq@@IPAU1@@Z ; std::_Allocate<tagBaseCharDistanceSq>
PUBLIC	__CTA2?AVbad_alloc@std@@
PUBLIC	__CT??_R0?AVbad_alloc@std@@@8??0bad_alloc@std@@QAE@ABV01@@Z12
PUBLIC	??0bad_alloc@std@@QAE@ABV01@@Z			; std::bad_alloc::bad_alloc
PUBLIC	__CT??_R0?AVexception@std@@@8??0exception@std@@QAE@ABV01@@Z12
EXTRN	??2@YAPAXI@Z:PROC				; operator new
EXTRN	__CxxThrowException@8:PROC
EXTRN	??0exception@std@@QAE@ABV01@@Z:PROC		; std::exception::exception
;	COMDAT __CT??_R0?AVexception@std@@@8??0exception@std@@QAE@ABV01@@Z12
; File c:\program files (x86)\microsoft visual studio 10.0\vc\include\exception
xdata$x	SEGMENT
__CT??_R0?AVexception@std@@@8??0exception@std@@QAE@ABV01@@Z12 DD 00H
	DD	FLAT:??_R0?AVexception@std@@@8
	DD	00H
	DD	0ffffffffH
	ORG $+4
	DD	0cH
	DD	FLAT:??0exception@std@@QAE@ABV01@@Z
xdata$x	ENDS
;	COMDAT __CT??_R0?AVbad_alloc@std@@@8??0bad_alloc@std@@QAE@ABV01@@Z12
xdata$x	SEGMENT
__CT??_R0?AVbad_alloc@std@@@8??0bad_alloc@std@@QAE@ABV01@@Z12 DD 00H
	DD	FLAT:??_R0?AVbad_alloc@std@@@8
	DD	00H
	DD	0ffffffffH
	ORG $+4
	DD	0cH
	DD	FLAT:??0bad_alloc@std@@QAE@ABV01@@Z
xdata$x	ENDS
;	COMDAT __CTA2?AVbad_alloc@std@@
xdata$x	SEGMENT
__CTA2?AVbad_alloc@std@@ DD 02H
	DD	FLAT:__CT??_R0?AVbad_alloc@std@@@8??0bad_alloc@std@@QAE@ABV01@@Z12
	DD	FLAT:__CT??_R0?AVexception@std@@@8??0exception@std@@QAE@ABV01@@Z12
xdata$x	ENDS
;	COMDAT __TI2?AVbad_alloc@std@@
xdata$x	SEGMENT
__TI2?AVbad_alloc@std@@ DD 00H
	DD	FLAT:??1bad_alloc@std@@UAE@XZ
	DD	00H
	DD	FLAT:__CTA2?AVbad_alloc@std@@
; Function compile flags: /Ogsp
; File c:\program files (x86)\microsoft visual studio 10.0\vc\include\xmemory
xdata$x	ENDS
;	COMDAT ??$_Allocate@UtagBaseCharDistanceSq@@@std@@YAPAUtagBaseCharDistanceSq@@IPAU1@@Z
_TEXT	SEGMENT
$T553710 = -12						; size = 12
$T553715 = 8						; size = 4
__Count$ = 8						; size = 4
___formal$ = 12						; size = 4
??$_Allocate@UtagBaseCharDistanceSq@@@std@@YAPAUtagBaseCharDistanceSq@@IPAU1@@Z PROC ; std::_Allocate<tagBaseCharDistanceSq>, COMDAT

; 30   : 	{	// allocate storage for _Count elements of type _Ty

  00000	55		 push	 ebp
  00001	8b ec		 mov	 ebp, esp

; 31   : 	void *_Ptr = 0;
; 32   : 
; 33   : 	if (_Count <= 0)

  00003	8b 4d 08	 mov	 ecx, DWORD PTR __Count$[ebp]
  00006	83 ec 0c	 sub	 esp, 12			; 0000000cH
  00009	33 c0		 xor	 eax, eax
  0000b	85 c9		 test	 ecx, ecx

; 34   : 		_Count = 0;
; 35   : 	else if (((_SIZT)(-1) / sizeof (_Ty) < _Count)

  0000d	74 3c		 je	 SHORT $LN5@Allocate

; 36   : 		|| (_Ptr = ::operator new(_Count * sizeof (_Ty))) == 0)

  0000f	81 f9 ff ff ff
	07		 cmp	 ecx, 134217727		; 07ffffffH
  00015	77 0e		 ja	 SHORT $LN1@Allocate
  00017	c1 e1 05	 shl	 ecx, 5
  0001a	51		 push	 ecx
  0001b	e8 00 00 00 00	 call	 ??2@YAPAXI@Z		; operator new
  00020	59		 pop	 ecx
  00021	85 c0		 test	 eax, eax

; 38   : 
; 39   : 	return ((_Ty _FARQ *)_Ptr);

  00023	75 26		 jne	 SHORT $LN5@Allocate
$LN1@Allocate:

; 37   : 		_THROW_NCEE(bad_alloc, 0);

  00025	83 65 08 00	 and	 DWORD PTR $T553715[ebp], 0
  00029	8d 45 08	 lea	 eax, DWORD PTR $T553715[ebp]
  0002c	50		 push	 eax
  0002d	8d 4d f4	 lea	 ecx, DWORD PTR $T553710[ebp]
  00030	ff 15 00 00 00
	00		 call	 DWORD PTR __imp_??0exception@std@@QAE@ABQBD@Z
  00036	68 00 00 00 00	 push	 OFFSET __TI2?AVbad_alloc@std@@
  0003b	8d 45 f4	 lea	 eax, DWORD PTR $T553710[ebp]
  0003e	50		 push	 eax
  0003f	c7 45 f4 00 00
	00 00		 mov	 DWORD PTR $T553710[ebp], OFFSET ??_7bad_alloc@std@@6B@
  00046	e8 00 00 00 00	 call	 __CxxThrowException@8
$LN10@Allocate:
$LN5@Allocate:

; 40   : 	}

  0004b	c9		 leave
  0004c	c3		 ret	 0
$LN9@Allocate:
??$_Allocate@UtagBaseCharDistanceSq@@@std@@YAPAUtagBaseCharDistanceSq@@IPAU1@@Z ENDP ; std::_Allocate<tagBaseCharDistanceSq>
_TEXT	ENDS
PUBLIC	?_Compat@?$_Vector_const_iterator@V?$_Vector_val@UtagBaseCharDistanceSq@@V?$allocator@UtagBaseCharDistanceSq@@@std@@@std@@@std@@QBEXABV12@@Z ; std::_Vector_const_iterator<std::_Vector_val<tagBaseCharDistanceSq,std::allocator<tagBaseCharDistanceSq> > >::_Compat
; Function compile flags: /Ogsp
; File c:\program files (x86)\microsoft visual studio 10.0\vc\include\vector
;	COMDAT ?_Compat@?$_Vector_const_iterator@V?$_Vector_val@UtagBaseCharDistanceSq@@V?$allocator@UtagBaseCharDistanceSq@@@std@@@std@@@std@@QBEXABV12@@Z
_TEXT	SEGMENT
___formal$ = 8						; size = 4
?_Compat@?$_Vector_const_iterator@V?$_Vector_val@UtagBaseCharDistanceSq@@V?$allocator@UtagBaseCharDistanceSq@@@std@@@std@@@std@@QBEXABV12@@Z PROC ; std::_Vector_const_iterator<std::_Vector_val<tagBaseCharDistanceSq,std::allocator<tagBaseCharDistanceSq> > >::_Compat, COMDAT
; _this$ = ecx

; 253  : 		}

  00000	c2 04 00	 ret	 4
?_Compat@?$_Vector_const_iterator@V?$_Vector_val@UtagBaseCharDistanceSq@@V?$allocator@UtagBaseCharDistanceSq@@@std@@@std@@@std@@QBEXABV12@@Z ENDP ; std::_Vector_const_iterator<std::_Vector_val<tagBaseCharDistanceSq,std::allocator<tagBaseCharDistanceSq> > >::_Compat
_TEXT	ENDS
PUBLIC	??$forward@AAUtagBaseCharDistanceSq@@@std@@YAAAUtagBaseCharDistanceSq@@AAU1@@Z ; std::forward<tagBaseCharDistanceSq &>
; Function compile flags: /Ogsp
; File c:\program files (x86)\microsoft visual studio 10.0\vc\include\utility
;	COMDAT ??$forward@AAUtagBaseCharDistanceSq@@@std@@YAAAUtagBaseCharDistanceSq@@AAU1@@Z
_TEXT	SEGMENT
__Arg$ = 8						; size = 4
??$forward@AAUtagBaseCharDistanceSq@@@std@@YAAAUtagBaseCharDistanceSq@@AAU1@@Z PROC ; std::forward<tagBaseCharDistanceSq &>, COMDAT

; 78   : 	{	// forward _Arg, given explicitly specified type parameter

  00000	55		 push	 ebp
  00001	8b ec		 mov	 ebp, esp

; 79   : 	return ((_Ty&&)_Arg);

  00003	8b 45 08	 mov	 eax, DWORD PTR __Arg$[ebp]

; 80   : 	}

  00006	5d		 pop	 ebp
  00007	c3		 ret	 0
??$forward@AAUtagBaseCharDistanceSq@@@std@@YAAAUtagBaseCharDistanceSq@@AAU1@@Z ENDP ; std::forward<tagBaseCharDistanceSq &>
_TEXT	ENDS
PUBLIC	??$forward@ABUtagBaseCharDistanceSq@@@std@@YAABUtagBaseCharDistanceSq@@ABU1@@Z ; std::forward<tagBaseCharDistanceSq const &>
; Function compile flags: /Ogsp
;	COMDAT ??$forward@ABUtagBaseCharDistanceSq@@@std@@YAABUtagBaseCharDistanceSq@@ABU1@@Z
_TEXT	SEGMENT
__Arg$ = 8						; size = 4
??$forward@ABUtagBaseCharDistanceSq@@@std@@YAABUtagBaseCharDistanceSq@@ABU1@@Z PROC ; std::forward<tagBaseCharDistanceSq const &>, COMDAT

; 78   : 	{	// forward _Arg, given explicitly specified type parameter

  00000	55		 push	 ebp
  00001	8b ec		 mov	 ebp, esp

; 79   : 	return ((_Ty&&)_Arg);

  00003	8b 45 08	 mov	 eax, DWORD PTR __Arg$[ebp]

; 80   : 	}

  00006	5d		 pop	 ebp
  00007	c3		 ret	 0
??$forward@ABUtagBaseCharDistanceSq@@@std@@YAABUtagBaseCharDistanceSq@@ABU1@@Z ENDP ; std::forward<tagBaseCharDistanceSq const &>
_TEXT	ENDS
PUBLIC	??$_Ptr_cat@PAVioBaseChar@@PAV1@@std@@YA?AU_Scalar_ptr_iterator_tag@0@PAPAVioBaseChar@@0@Z ; std::_Ptr_cat<ioBaseChar *,ioBaseChar *>
; Function compile flags: /Ogsp
; File c:\program files (x86)\microsoft visual studio 10.0\vc\include\xutility
;	COMDAT ??$_Ptr_cat@PAVioBaseChar@@PAV1@@std@@YA?AU_Scalar_ptr_iterator_tag@0@PAPAVioBaseChar@@0@Z
_TEXT	SEGMENT
__Cat$ = -1						; size = 1
___formal$ = 8						; size = 4
___formal$ = 12						; size = 4
??$_Ptr_cat@PAVioBaseChar@@PAV1@@std@@YA?AU_Scalar_ptr_iterator_tag@0@PAPAVioBaseChar@@0@Z PROC ; std::_Ptr_cat<ioBaseChar *,ioBaseChar *>, COMDAT

; 516  : 	{	// return pointer category from pointers

  00000	55		 push	 ebp
  00001	8b ec		 mov	 ebp, esp
  00003	51		 push	 ecx

; 517  : 	typename _Ptr_cat_helper<_Elem1, _Elem2>::_Type _Cat;
; 518  : 	return (_Cat);

  00004	8a 45 ff	 mov	 al, BYTE PTR __Cat$[ebp]

; 519  : 	}

  00007	c9		 leave
  00008	c3		 ret	 0
??$_Ptr_cat@PAVioBaseChar@@PAV1@@std@@YA?AU_Scalar_ptr_iterator_tag@0@PAPAVioBaseChar@@0@Z ENDP ; std::_Ptr_cat<ioBaseChar *,ioBaseChar *>
_TEXT	ENDS
PUBLIC	??$_Destroy_range@V?$allocator@PAVioBaseChar@@@std@@@std@@YAXPAPAVioBaseChar@@0AAV?$allocator@PAVioBaseChar@@@0@U_Scalar_ptr_iterator_tag@0@@Z ; std::_Destroy_range<std::allocator<ioBaseChar *> >
; Function compile flags: /Ogsp
; File c:\program files (x86)\microsoft visual studio 10.0\vc\include\xmemory
;	COMDAT ??$_Destroy_range@V?$allocator@PAVioBaseChar@@@std@@@std@@YAXPAPAVioBaseChar@@0AAV?$allocator@PAVioBaseChar@@@0@U_Scalar_ptr_iterator_tag@0@@Z
_TEXT	SEGMENT
__First$ = 8						; size = 4
__Last$ = 12						; size = 4
__Al$ = 16						; size = 4
___formal$ = 20						; size = 1
??$_Destroy_range@V?$allocator@PAVioBaseChar@@@std@@@std@@YAXPAPAVioBaseChar@@0AAV?$allocator@PAVioBaseChar@@@0@U_Scalar_ptr_iterator_tag@0@@Z PROC ; std::_Destroy_range<std::allocator<ioBaseChar *> >, COMDAT

; 105  : 	}

  00000	c3		 ret	 0
??$_Destroy_range@V?$allocator@PAVioBaseChar@@@std@@@std@@YAXPAPAVioBaseChar@@0AAV?$allocator@PAVioBaseChar@@@0@U_Scalar_ptr_iterator_tag@0@@Z ENDP ; std::_Destroy_range<std::allocator<ioBaseChar *> >
_TEXT	ENDS
PUBLIC	??$_Ptr_cat@UtagBaseCharDistanceSq@@U1@@std@@YA?AU_Nonscalar_ptr_iterator_tag@0@PAUtagBaseCharDistanceSq@@0@Z ; std::_Ptr_cat<tagBaseCharDistanceSq,tagBaseCharDistanceSq>
; Function compile flags: /Ogsp
; File c:\program files (x86)\microsoft visual studio 10.0\vc\include\xutility
;	COMDAT ??$_Ptr_cat@UtagBaseCharDistanceSq@@U1@@std@@YA?AU_Nonscalar_ptr_iterator_tag@0@PAUtagBaseCharDistanceSq@@0@Z
_TEXT	SEGMENT
__Cat$ = -1						; size = 1
___formal$ = 8						; size = 4
___formal$ = 12						; size = 4
??$_Ptr_cat@UtagBaseCharDistanceSq@@U1@@std@@YA?AU_Nonscalar_ptr_iterator_tag@0@PAUtagBaseCharDistanceSq@@0@Z PROC ; std::_Ptr_cat<tagBaseCharDistanceSq,tagBaseCharDistanceSq>, COMDAT

; 516  : 	{	// return pointer category from pointers

  00000	55		 push	 ebp
  00001	8b ec		 mov	 ebp, esp
  00003	51		 push	 ecx

; 517  : 	typename _Ptr_cat_helper<_Elem1, _Elem2>::_Type _Cat;
; 518  : 	return (_Cat);

  00004	8a 45 ff	 mov	 al, BYTE PTR __Cat$[ebp]

; 519  : 	}

  00007	c9		 leave
  00008	c3		 ret	 0
??$_Ptr_cat@UtagBaseCharDistanceSq@@U1@@std@@YA?AU_Nonscalar_ptr_iterator_tag@0@PAUtagBaseCharDistanceSq@@0@Z ENDP ; std::_Ptr_cat<tagBaseCharDistanceSq,tagBaseCharDistanceSq>
_TEXT	ENDS
PUBLIC	??0tagBaseCharDistanceSq@@QAE@ABU0@@Z		; tagBaseCharDistanceSq::tagBaseCharDistanceSq
; Function compile flags: /Ogsp
;	COMDAT ??0tagBaseCharDistanceSq@@QAE@ABU0@@Z
_TEXT	SEGMENT
___that$ = 8						; size = 4
??0tagBaseCharDistanceSq@@QAE@ABU0@@Z PROC		; tagBaseCharDistanceSq::tagBaseCharDistanceSq, COMDAT
; _this$ = ecx
  00000	55		 push	 ebp
  00001	8b ec		 mov	 ebp, esp
  00003	53		 push	 ebx
  00004	56		 push	 esi
  00005	8b 75 08	 mov	 esi, DWORD PTR ___that$[ebp]
  00008	57		 push	 edi
  00009	56		 push	 esi
  0000a	8b d9		 mov	 ebx, ecx
  0000c	ff 15 00 00 00
	00		 call	 DWORD PTR __imp_??0ioHashString@@QAE@ABV0@@Z
  00012	d9 46 10	 fld	 DWORD PTR [esi+16]
  00015	83 c6 14	 add	 esi, 20			; 00000014H
  00018	d9 5b 10	 fstp	 DWORD PTR [ebx+16]
  0001b	8d 7b 14	 lea	 edi, DWORD PTR [ebx+20]
  0001e	a5		 movsd
  0001f	a5		 movsd
  00020	a5		 movsd
  00021	5f		 pop	 edi
  00022	5e		 pop	 esi
  00023	8b c3		 mov	 eax, ebx
  00025	5b		 pop	 ebx
  00026	5d		 pop	 ebp
  00027	c2 04 00	 ret	 4
??0tagBaseCharDistanceSq@@QAE@ABU0@@Z ENDP		; tagBaseCharDistanceSq::tagBaseCharDistanceSq
_TEXT	ENDS
PUBLIC	?_Unchecked@?$_Vector_iterator@V?$_Vector_val@UtagBaseCharDistanceSq@@V?$allocator@UtagBaseCharDistanceSq@@@std@@@std@@@std@@QBEPAUtagBaseCharDistanceSq@@XZ ; std::_Vector_iterator<std::_Vector_val<tagBaseCharDistanceSq,std::allocator<tagBaseCharDistanceSq> > >::_Unchecked
; Function compile flags: /Ogsp
; File c:\program files (x86)\microsoft visual studio 10.0\vc\include\vector
;	COMDAT ?_Unchecked@?$_Vector_iterator@V?$_Vector_val@UtagBaseCharDistanceSq@@V?$allocator@UtagBaseCharDistanceSq@@@std@@@std@@@std@@QBEPAUtagBaseCharDistanceSq@@XZ
_TEXT	SEGMENT
?_Unchecked@?$_Vector_iterator@V?$_Vector_val@UtagBaseCharDistanceSq@@V?$allocator@UtagBaseCharDistanceSq@@@std@@@std@@@std@@QBEPAUtagBaseCharDistanceSq@@XZ PROC ; std::_Vector_iterator<std::_Vector_val<tagBaseCharDistanceSq,std::allocator<tagBaseCharDistanceSq> > >::_Unchecked, COMDAT
; _this$ = ecx

; 317  : 		return (_Unchecked_type(this->_Ptr));

  00000	8b 01		 mov	 eax, DWORD PTR [ecx]

; 318  : 		}

  00002	c3		 ret	 0
?_Unchecked@?$_Vector_iterator@V?$_Vector_val@UtagBaseCharDistanceSq@@V?$allocator@UtagBaseCharDistanceSq@@@std@@@std@@@std@@QBEPAUtagBaseCharDistanceSq@@XZ ENDP ; std::_Vector_iterator<std::_Vector_val<tagBaseCharDistanceSq,std::allocator<tagBaseCharDistanceSq> > >::_Unchecked
_TEXT	ENDS
PUBLIC	??$_Val_type@PAUtagBaseCharDistanceSq@@@std@@YAPAUtagBaseCharDistanceSq@@PAU1@@Z ; std::_Val_type<tagBaseCharDistanceSq *>
; Function compile flags: /Ogsp
; File c:\program files (x86)\microsoft visual studio 10.0\vc\include\xutility
;	COMDAT ??$_Val_type@PAUtagBaseCharDistanceSq@@@std@@YAPAUtagBaseCharDistanceSq@@PAU1@@Z
_TEXT	SEGMENT
___formal$ = 8						; size = 4
??$_Val_type@PAUtagBaseCharDistanceSq@@@std@@YAPAUtagBaseCharDistanceSq@@PAU1@@Z PROC ; std::_Val_type<tagBaseCharDistanceSq *>, COMDAT

; 790  : 	return (0);

  00000	33 c0		 xor	 eax, eax

; 791  : 	}

  00002	c3		 ret	 0
??$_Val_type@PAUtagBaseCharDistanceSq@@@std@@YAPAUtagBaseCharDistanceSq@@PAU1@@Z ENDP ; std::_Val_type<tagBaseCharDistanceSq *>
_TEXT	ENDS
PUBLIC	??$_Unchecked@PAUtagBaseCharDistanceSq@@@std@@YAPAUtagBaseCharDistanceSq@@PAU1@@Z ; std::_Unchecked<tagBaseCharDistanceSq *>
; Function compile flags: /Ogsp
;	COMDAT ??$_Unchecked@PAUtagBaseCharDistanceSq@@@std@@YAPAUtagBaseCharDistanceSq@@PAU1@@Z
_TEXT	SEGMENT
__Src$ = 8						; size = 4
??$_Unchecked@PAUtagBaseCharDistanceSq@@@std@@YAPAUtagBaseCharDistanceSq@@PAU1@@Z PROC ; std::_Unchecked<tagBaseCharDistanceSq *>, COMDAT

; 266  : 	{	// construct unchecked from checked, generic

  00000	55		 push	 ebp
  00001	8b ec		 mov	 ebp, esp

; 267  : 	return (_Src);

  00003	8b 45 08	 mov	 eax, DWORD PTR __Src$[ebp]

; 268  : 	}

  00006	5d		 pop	 ebp
  00007	c3		 ret	 0
??$_Unchecked@PAUtagBaseCharDistanceSq@@@std@@YAPAUtagBaseCharDistanceSq@@PAU1@@Z ENDP ; std::_Unchecked<tagBaseCharDistanceSq *>
_TEXT	ENDS
PUBLIC	??$_Dist_type@PAUtagBaseCharDistanceSq@@@std@@YAPAHPAUtagBaseCharDistanceSq@@@Z ; std::_Dist_type<tagBaseCharDistanceSq *>
; Function compile flags: /Ogsp
;	COMDAT ??$_Dist_type@PAUtagBaseCharDistanceSq@@@std@@YAPAHPAUtagBaseCharDistanceSq@@@Z
_TEXT	SEGMENT
___formal$ = 8						; size = 4
??$_Dist_type@PAUtagBaseCharDistanceSq@@@std@@YAPAHPAUtagBaseCharDistanceSq@@@Z PROC ; std::_Dist_type<tagBaseCharDistanceSq *>, COMDAT

; 850  : 	return (0);

  00000	33 c0		 xor	 eax, eax

; 851  : 	}

  00002	c3		 ret	 0
??$_Dist_type@PAUtagBaseCharDistanceSq@@@std@@YAPAHPAUtagBaseCharDistanceSq@@@Z ENDP ; std::_Dist_type<tagBaseCharDistanceSq *>
_TEXT	ENDS
PUBLIC	??4tagBaseCharDistanceSq@@QAEAAU0@ABU0@@Z	; tagBaseCharDistanceSq::operator=
EXTRN	__imp_??4ioHashString@@QAEAAV0@ABV0@@Z:PROC
; Function compile flags: /Ogsp
;	COMDAT ??4tagBaseCharDistanceSq@@QAEAAU0@ABU0@@Z
_TEXT	SEGMENT
___that$ = 8						; size = 4
??4tagBaseCharDistanceSq@@QAEAAU0@ABU0@@Z PROC		; tagBaseCharDistanceSq::operator=, COMDAT
; _this$ = ecx
  00000	55		 push	 ebp
  00001	8b ec		 mov	 ebp, esp
  00003	53		 push	 ebx
  00004	56		 push	 esi
  00005	8b 75 08	 mov	 esi, DWORD PTR ___that$[ebp]
  00008	57		 push	 edi
  00009	56		 push	 esi
  0000a	8b d9		 mov	 ebx, ecx
  0000c	ff 15 00 00 00
	00		 call	 DWORD PTR __imp_??4ioHashString@@QAEAAV0@ABV0@@Z
  00012	d9 46 10	 fld	 DWORD PTR [esi+16]
  00015	83 c6 14	 add	 esi, 20			; 00000014H
  00018	d9 5b 10	 fstp	 DWORD PTR [ebx+16]
  0001b	8d 7b 14	 lea	 edi, DWORD PTR [ebx+20]
  0001e	a5		 movsd
  0001f	a5		 movsd
  00020	a5		 movsd
  00021	5f		 pop	 edi
  00022	5e		 pop	 esi
  00023	8b c3		 mov	 eax, ebx
  00025	5b		 pop	 ebx
  00026	5d		 pop	 ebp
  00027	c2 04 00	 ret	 4
??4tagBaseCharDistanceSq@@QAEAAU0@ABU0@@Z ENDP		; tagBaseCharDistanceSq::operator=
_TEXT	ENDS
PUBLIC	??_GtagBaseCharDistanceSq@@QAEPAXI@Z		; tagBaseCharDistanceSq::`scalar deleting destructor'
; Function compile flags: /Ogsp
;	COMDAT ??_GtagBaseCharDistanceSq@@QAEPAXI@Z
_TEXT	SEGMENT
___flags$ = 8						; size = 4
??_GtagBaseCharDistanceSq@@QAEPAXI@Z PROC		; tagBaseCharDistanceSq::`scalar deleting destructor', COMDAT
; _this$ = ecx
  00000	55		 push	 ebp
  00001	8b ec		 mov	 ebp, esp
  00003	56		 push	 esi
  00004	8b f1		 mov	 esi, ecx
  00006	ff 15 00 00 00
	00		 call	 DWORD PTR __imp_??1ioHashString@@QAE@XZ
  0000c	f6 45 08 01	 test	 BYTE PTR ___flags$[ebp], 1
  00010	74 07		 je	 SHORT $LN1@scalar@2
  00012	56		 push	 esi
  00013	e8 00 00 00 00	 call	 ??3@YAXPAX@Z		; operator delete
  00018	59		 pop	 ecx
$LN1@scalar@2:
  00019	8b c6		 mov	 eax, esi
  0001b	5e		 pop	 esi
  0001c	5d		 pop	 ebp
  0001d	c2 04 00	 ret	 4
??_GtagBaseCharDistanceSq@@QAEPAXI@Z ENDP		; tagBaseCharDistanceSq::`scalar deleting destructor'
_TEXT	ENDS
PUBLIC	??$forward@AAPAUtagBaseCharDistanceSq@@@std@@YAAAPAUtagBaseCharDistanceSq@@AAPAU1@@Z ; std::forward<tagBaseCharDistanceSq * &>
; Function compile flags: /Ogsp
; File c:\program files (x86)\microsoft visual studio 10.0\vc\include\utility
;	COMDAT ??$forward@AAPAUtagBaseCharDistanceSq@@@std@@YAAAPAUtagBaseCharDistanceSq@@AAPAU1@@Z
_TEXT	SEGMENT
__Arg$ = 8						; size = 4
??$forward@AAPAUtagBaseCharDistanceSq@@@std@@YAAAPAUtagBaseCharDistanceSq@@AAPAU1@@Z PROC ; std::forward<tagBaseCharDistanceSq * &>, COMDAT

; 78   : 	{	// forward _Arg, given explicitly specified type parameter

  00000	55		 push	 ebp
  00001	8b ec		 mov	 ebp, esp

; 79   : 	return ((_Ty&&)_Arg);

  00003	8b 45 08	 mov	 eax, DWORD PTR __Arg$[ebp]

; 80   : 	}

  00006	5d		 pop	 ebp
  00007	c3		 ret	 0
??$forward@AAPAUtagBaseCharDistanceSq@@@std@@YAAAPAUtagBaseCharDistanceSq@@AAPAU1@@Z ENDP ; std::forward<tagBaseCharDistanceSq * &>
_TEXT	ENDS
PUBLIC	??$?0AAPAUtagBaseCharDistanceSq@@AAPAU0@@?$_Pair_base@PAUtagBaseCharDistanceSq@@PAU1@@std@@QAE@AAPAUtagBaseCharDistanceSq@@0@Z ; std::_Pair_base<tagBaseCharDistanceSq *,tagBaseCharDistanceSq *>::_Pair_base<tagBaseCharDistanceSq *,tagBaseCharDistanceSq *><tagBaseCharDistanceSq * &,tagBaseCharDistanceSq * &>
; Function compile flags: /Ogsp
;	COMDAT ??$?0AAPAUtagBaseCharDistanceSq@@AAPAU0@@?$_Pair_base@PAUtagBaseCharDistanceSq@@PAU1@@std@@QAE@AAPAUtagBaseCharDistanceSq@@0@Z
_TEXT	SEGMENT
__Val1$ = 8						; size = 4
__Val2$ = 12						; size = 4
??$?0AAPAUtagBaseCharDistanceSq@@AAPAU0@@?$_Pair_base@PAUtagBaseCharDistanceSq@@PAU1@@std@@QAE@AAPAUtagBaseCharDistanceSq@@0@Z PROC ; std::_Pair_base<tagBaseCharDistanceSq *,tagBaseCharDistanceSq *>::_Pair_base<tagBaseCharDistanceSq *,tagBaseCharDistanceSq *><tagBaseCharDistanceSq * &,tagBaseCharDistanceSq * &>, COMDAT
; _this$ = ecx

; 163  : 		{	// construct from moved values

  00000	55		 push	 ebp
  00001	8b ec		 mov	 ebp, esp
  00003	8b c1		 mov	 eax, ecx
  00005	8b 4d 08	 mov	 ecx, DWORD PTR __Val1$[ebp]
  00008	8b 09		 mov	 ecx, DWORD PTR [ecx]
  0000a	89 08		 mov	 DWORD PTR [eax], ecx
  0000c	8b 4d 0c	 mov	 ecx, DWORD PTR __Val2$[ebp]
  0000f	8b 09		 mov	 ecx, DWORD PTR [ecx]
  00011	89 48 04	 mov	 DWORD PTR [eax+4], ecx

; 164  : 		}

  00014	5d		 pop	 ebp
  00015	c2 08 00	 ret	 8
??$?0AAPAUtagBaseCharDistanceSq@@AAPAU0@@?$_Pair_base@PAUtagBaseCharDistanceSq@@PAU1@@std@@QAE@AAPAUtagBaseCharDistanceSq@@0@Z ENDP ; std::_Pair_base<tagBaseCharDistanceSq *,tagBaseCharDistanceSq *>::_Pair_base<tagBaseCharDistanceSq *,tagBaseCharDistanceSq *><tagBaseCharDistanceSq * &,tagBaseCharDistanceSq * &>
_TEXT	ENDS
PUBLIC	??$_Move@AAUtagBaseCharDistanceSq@@@std@@YA$$QAUtagBaseCharDistanceSq@@AAU1@@Z ; std::_Move<tagBaseCharDistanceSq &>
; Function compile flags: /Ogsp
;	COMDAT ??$_Move@AAUtagBaseCharDistanceSq@@@std@@YA$$QAUtagBaseCharDistanceSq@@AAU1@@Z
_TEXT	SEGMENT
__Arg$ = 8						; size = 4
??$_Move@AAUtagBaseCharDistanceSq@@@std@@YA$$QAUtagBaseCharDistanceSq@@AAU1@@Z PROC ; std::_Move<tagBaseCharDistanceSq &>, COMDAT

; 94   : 	{	// forward _Arg as movable

  00000	55		 push	 ebp
  00001	8b ec		 mov	 ebp, esp

; 95   : 	return ((typename tr1::_Remove_reference<_Ty>::_Type&&)_Arg);

  00003	8b 45 08	 mov	 eax, DWORD PTR __Arg$[ebp]

; 96   : 	}

  00006	5d		 pop	 ebp
  00007	c3		 ret	 0
??$_Move@AAUtagBaseCharDistanceSq@@@std@@YA$$QAUtagBaseCharDistanceSq@@AAU1@@Z ENDP ; std::_Move<tagBaseCharDistanceSq &>
_TEXT	ENDS
PUBLIC	??$forward@UtagBaseCharDistanceSq@@@std@@YA$$QAUtagBaseCharDistanceSq@@AAU1@@Z ; std::forward<tagBaseCharDistanceSq>
; Function compile flags: /Ogsp
;	COMDAT ??$forward@UtagBaseCharDistanceSq@@@std@@YA$$QAUtagBaseCharDistanceSq@@AAU1@@Z
_TEXT	SEGMENT
__Arg$ = 8						; size = 4
??$forward@UtagBaseCharDistanceSq@@@std@@YA$$QAUtagBaseCharDistanceSq@@AAU1@@Z PROC ; std::forward<tagBaseCharDistanceSq>, COMDAT

; 78   : 	{	// forward _Arg, given explicitly specified type parameter

  00000	55		 push	 ebp
  00001	8b ec		 mov	 ebp, esp

; 79   : 	return ((_Ty&&)_Arg);

  00003	8b 45 08	 mov	 eax, DWORD PTR __Arg$[ebp]

; 80   : 	}

  00006	5d		 pop	 ebp
  00007	c3		 ret	 0
??$forward@UtagBaseCharDistanceSq@@@std@@YA$$QAUtagBaseCharDistanceSq@@AAU1@@Z ENDP ; std::forward<tagBaseCharDistanceSq>
_TEXT	ENDS
PUBLIC	??$move@AAUtagBaseCharDistanceSq@@@std@@YA$$QAUtagBaseCharDistanceSq@@AAU1@@Z ; std::move<tagBaseCharDistanceSq &>
; Function compile flags: /Ogsp
;	COMDAT ??$move@AAUtagBaseCharDistanceSq@@@std@@YA$$QAUtagBaseCharDistanceSq@@AAU1@@Z
_TEXT	SEGMENT
__Arg$ = 8						; size = 4
??$move@AAUtagBaseCharDistanceSq@@@std@@YA$$QAUtagBaseCharDistanceSq@@AAU1@@Z PROC ; std::move<tagBaseCharDistanceSq &>, COMDAT

; 86   : 	{	// forward _Arg as movable

  00000	55		 push	 ebp
  00001	8b ec		 mov	 ebp, esp

; 87   : 	return ((typename tr1::_Remove_reference<_Ty>::_Type&&)_Arg);

  00003	8b 45 08	 mov	 eax, DWORD PTR __Arg$[ebp]

; 88   : 	}

  00006	5d		 pop	 ebp
  00007	c3		 ret	 0
??$move@AAUtagBaseCharDistanceSq@@@std@@YA$$QAUtagBaseCharDistanceSq@@AAU1@@Z ENDP ; std::move<tagBaseCharDistanceSq &>
; Function compile flags: /Odsp
_TEXT	ENDS
;	COMDAT ??_EioTargetTrace10Dummy@@WBMI@AEPAXI@Z
_TEXT	SEGMENT
??_EioTargetTrace10Dummy@@WBMI@AEPAXI@Z PROC		; [thunk]:ioTargetTrace10Dummy::`vector deleting destructor', COMDAT
  00000	81 e9 c8 01 00
	00		 sub	 ecx, 456		; 000001c8H
  00006	e9 00 00 00 00	 jmp	 ??_EioTargetTrace10Dummy@@UAEPAXI@Z
??_EioTargetTrace10Dummy@@WBMI@AEPAXI@Z ENDP		; [thunk]:ioTargetTrace10Dummy::`vector deleting destructor'
_TEXT	ENDS
PUBLIC	?D3DXVec3LengthSq@@YAMPBUD3DXVECTOR3@@@Z	; D3DXVec3LengthSq
; Function compile flags: /Ogsp
; File c:\program files (x86)\microsoft directx sdk (june 2010)\include\d3dx9math.inl
;	COMDAT ?D3DXVec3LengthSq@@YAMPBUD3DXVECTOR3@@@Z
_TEXT	SEGMENT
tv165 = 8						; size = 4
_pV$ = 8						; size = 4
?D3DXVec3LengthSq@@YAMPBUD3DXVECTOR3@@@Z PROC		; D3DXVec3LengthSq, COMDAT

; 1725 : {

  00000	55		 push	 ebp
  00001	8b ec		 mov	 ebp, esp

; 1726 : #ifdef D3DX_DEBUG
; 1727 :     if(!pV)
; 1728 :         return 0.0f;
; 1729 : #endif
; 1730 : 
; 1731 :     return pV->x * pV->x + pV->y * pV->y + pV->z * pV->z;

  00003	8b 45 08	 mov	 eax, DWORD PTR _pV$[ebp]
  00006	d9 40 04	 fld	 DWORD PTR [eax+4]
  00009	d9 00		 fld	 DWORD PTR [eax]
  0000b	d9 40 08	 fld	 DWORD PTR [eax+8]
  0000e	d9 c1		 fld	 ST(1)
  00010	de ca		 fmulp	 ST(2), ST(0)
  00012	d9 c2		 fld	 ST(2)
  00014	de cb		 fmulp	 ST(3), ST(0)
  00016	d9 c9		 fxch	 ST(1)
  00018	de c2		 faddp	 ST(2), ST(0)
  0001a	d9 c0		 fld	 ST(0)
  0001c	de c9		 fmulp	 ST(1), ST(0)
  0001e	de c1		 faddp	 ST(1), ST(0)
  00020	d9 5d 08	 fstp	 DWORD PTR tv165[ebp]
  00023	d9 45 08	 fld	 DWORD PTR tv165[ebp]

; 1732 : }

  00026	5d		 pop	 ebp
  00027	c3		 ret	 0
?D3DXVec3LengthSq@@YAMPBUD3DXVECTOR3@@@Z ENDP		; D3DXVec3LengthSq
_TEXT	ENDS
PUBLIC	?_DECSTR@@YAXPADH@Z				; _DECSTR
; Function compile flags: /Ogsp
; File d:\lost saga for developer\youtube\tutorial\source\src\lsclient\stringprotect.h
;	COMDAT ?_DECSTR@@YAXPADH@Z
_TEXT	SEGMENT
_s$ = 8							; size = 4
_l$ = 12						; size = 4
?_DECSTR@@YAXPADH@Z PROC				; _DECSTR, COMDAT

; 40   : __forceinline void _DECSTR(char* s, int l){int i=0,l4=(l-1)/4,*p=(int*)s;s[l-1]=0;for(;i<l4;++i)*(p++)^=0xEAEBECED;for(i=l4*4;i<l-1;++i)s[i]^=0xED-i%4;}

  00000	55		 push	 ebp
  00001	8b ec		 mov	 ebp, esp
  00003	8b 4d 0c	 mov	 ecx, DWORD PTR _l$[ebp]
  00006	56		 push	 esi
  00007	8b 75 08	 mov	 esi, DWORD PTR _s$[ebp]
  0000a	57		 push	 edi
  0000b	8d 79 ff	 lea	 edi, DWORD PTR [ecx-1]
  0000e	8b c7		 mov	 eax, edi
  00010	99		 cdq
  00011	83 e2 03	 and	 edx, 3
  00014	03 c2		 add	 eax, edx
  00016	c1 f8 02	 sar	 eax, 2
  00019	8b d6		 mov	 edx, esi
  0001b	c6 44 0e ff 00	 mov	 BYTE PTR [esi+ecx-1], 0
  00020	85 c0		 test	 eax, eax
  00022	7e 0e		 jle	 SHORT $LN4@DECSTR
  00024	8b c8		 mov	 ecx, eax
$LL6@DECSTR:
  00026	81 32 ed ec eb
	ea		 xor	 DWORD PTR [edx], -353637139 ; eaebecedH
  0002c	83 c2 04	 add	 edx, 4
  0002f	49		 dec	 ecx
  00030	75 f4		 jne	 SHORT $LL6@DECSTR
$LN4@DECSTR:
  00032	c1 e0 02	 shl	 eax, 2
  00035	eb 17		 jmp	 SHORT $LN14@DECSTR
$LL3@DECSTR:
  00037	8b c8		 mov	 ecx, eax
  00039	81 e1 03 00 00
	80		 and	 ecx, -2147483645	; 80000003H
  0003f	79 05		 jns	 SHORT $LN13@DECSTR
  00041	49		 dec	 ecx
  00042	83 c9 fc	 or	 ecx, -4			; fffffffcH
  00045	41		 inc	 ecx
$LN13@DECSTR:
  00046	b2 ed		 mov	 dl, -19			; ffffffedH
  00048	2a d1		 sub	 dl, cl
  0004a	30 14 30	 xor	 BYTE PTR [eax+esi], dl
  0004d	40		 inc	 eax
$LN14@DECSTR:
  0004e	3b c7		 cmp	 eax, edi
  00050	7c e5		 jl	 SHORT $LL3@DECSTR
  00052	5f		 pop	 edi
  00053	5e		 pop	 esi
  00054	5d		 pop	 ebp
  00055	c3		 ret	 0
?_DECSTR@@YAXPADH@Z ENDP				; _DECSTR
_TEXT	ENDS
PUBLIC	??0FireTime@@QAE@XZ				; FireTime::FireTime
;	COMDAT xdata$x
; File d:\lost saga for developer\youtube\tutorial\source\src\lsclient\playentityhelpstruct.h
xdata$x	SEGMENT
__unwindtable$??0FireTime@@QAE@XZ DD 0ffffffffH
	DD	FLAT:__unwindfunclet$??0FireTime@@QAE@XZ$0
	DD	00H
	DD	FLAT:__unwindfunclet$??0FireTime@@QAE@XZ$1
__ehfuncinfo$??0FireTime@@QAE@XZ DD 019930522H
	DD	02H
	DD	FLAT:__unwindtable$??0FireTime@@QAE@XZ
	DD	2 DUP(00H)
	DD	2 DUP(00H)
	DD	00H
	DD	01H
; Function compile flags: /Ogsp
xdata$x	ENDS
;	COMDAT ??0FireTime@@QAE@XZ
_TEXT	SEGMENT
_this$ = -16						; size = 4
__$EHRec$ = -12						; size = 12
??0FireTime@@QAE@XZ PROC				; FireTime::FireTime, COMDAT
; _this$ = ecx

; 219  : 	FireTime()

  00000	6a 04		 push	 4
  00002	b8 00 00 00 00	 mov	 eax, __ehhandler$??0FireTime@@QAE@XZ
  00007	e8 00 00 00 00	 call	 __EH_prolog3
  0000c	8b f1		 mov	 esi, ecx
  0000e	89 75 f0	 mov	 DWORD PTR _this$[ebp], esi
  00011	8b 3d 00 00 00
	00		 mov	 edi, DWORD PTR __imp_??0ioHashString@@QAE@XZ
  00017	8d 4e 14	 lea	 ecx, DWORD PTR [esi+20]
  0001a	ff d7		 call	 edi
  0001c	33 db		 xor	 ebx, ebx
  0001e	8d 4e 30	 lea	 ecx, DWORD PTR [esi+48]
  00021	89 5d fc	 mov	 DWORD PTR __$EHRec$[ebp+8], ebx
  00024	ff d7		 call	 edi
  00026	8d 4e 44	 lea	 ecx, DWORD PTR [esi+68]
  00029	c6 45 fc 01	 mov	 BYTE PTR __$EHRec$[ebp+8], 1
  0002d	ff d7		 call	 edi

; 220  : 	{
; 221  : 		dwStart = 0;

  0002f	89 1e		 mov	 DWORD PTR [esi], ebx

; 222  : 		dwDuration = 0;

  00031	89 5e 04	 mov	 DWORD PTR [esi+4], ebx

; 223  : 
; 224  : 		iAttributeIdx = 0;

  00034	89 5e 08	 mov	 DWORD PTR [esi+8], ebx

; 225  : 		iResistanceIdx = 0;

  00037	89 5e 0c	 mov	 DWORD PTR [esi+12], ebx

; 226  : 
; 227  : 		bLoopWoundedAni = false;

  0003a	88 5e 10	 mov	 BYTE PTR [esi+16], bl

; 228  : 		dwWoundedAniDuration = 0;

  0003d	89 5e 24	 mov	 DWORD PTR [esi+36], ebx

; 229  : 
; 230  : 		dwWeaponIdx = 0;

  00040	89 5e 28	 mov	 DWORD PTR [esi+40], ebx

; 231  : 		eCollisionType = ACT_NONE;

  00043	c7 46 2c 06 00
	00 00		 mov	 DWORD PTR [esi+44], 6

; 232  : 		eFireTimeType = FTT_NORMAL_ATTACK;

  0004a	89 5e 40	 mov	 DWORD PTR [esi+64], ebx

; 233  : 
; 234  : 		m_iExtraValue = 0;

  0004d	89 5e 54	 mov	 DWORD PTR [esi+84], ebx

; 235  : 	}

  00050	8b c6		 mov	 eax, esi
  00052	e8 00 00 00 00	 call	 __EH_epilog3
  00057	c3		 ret	 0
_TEXT	ENDS
;	COMDAT text$x
text$x	SEGMENT
__unwindfunclet$??0FireTime@@QAE@XZ$0:
  00000	8b 4d f0	 mov	 ecx, DWORD PTR _this$[ebp]
  00003	83 c1 14	 add	 ecx, 20			; 00000014H
  00006	ff 25 00 00 00
	00		 jmp	 DWORD PTR __imp_??1ioHashString@@QAE@XZ
__unwindfunclet$??0FireTime@@QAE@XZ$1:
  0000c	8b 4d f0	 mov	 ecx, DWORD PTR _this$[ebp]
  0000f	83 c1 30	 add	 ecx, 48			; 00000030H
  00012	ff 25 00 00 00
	00		 jmp	 DWORD PTR __imp_??1ioHashString@@QAE@XZ
__ehhandler$??0FireTime@@QAE@XZ:
  00018	8b 54 24 08	 mov	 edx, DWORD PTR [esp+8]
  0001c	8d 42 0c	 lea	 eax, DWORD PTR [edx+12]
  0001f	8b 4a ec	 mov	 ecx, DWORD PTR [edx-20]
  00022	33 c8		 xor	 ecx, eax
  00024	e8 00 00 00 00	 call	 @__security_check_cookie@4
  00029	b8 00 00 00 00	 mov	 eax, OFFSET __ehfuncinfo$??0FireTime@@QAE@XZ
  0002e	e9 00 00 00 00	 jmp	 ___CxxFrameHandler3
text$x	ENDS
??0FireTime@@QAE@XZ ENDP				; FireTime::FireTime
PUBLIC	??0tagBaseCharDistanceSq@@QAE@XZ		; tagBaseCharDistanceSq::tagBaseCharDistanceSq
EXTRN	__imp_?VEC3_ZERO@ioMath@@2UD3DXVECTOR3@@A:BYTE
; Function compile flags: /Ogsp
;	COMDAT ??0tagBaseCharDistanceSq@@QAE@XZ
_TEXT	SEGMENT
??0tagBaseCharDistanceSq@@QAE@XZ PROC			; tagBaseCharDistanceSq::tagBaseCharDistanceSq, COMDAT
; _this$ = ecx

; 3001 : 	tagBaseCharDistanceSq()

  00000	53		 push	 ebx
  00001	56		 push	 esi
  00002	57		 push	 edi
  00003	8b d9		 mov	 ebx, ecx
  00005	ff 15 00 00 00
	00		 call	 DWORD PTR __imp_??0ioHashString@@QAE@XZ

; 3002 : 	{
; 3003 : 		m_fDistanceSq = 0.0f;

  0000b	0f 57 c0	 xorps	 xmm0, xmm0
  0000e	f3 0f 11 43 10	 movss	 DWORD PTR [ebx+16], xmm0

; 3004 : 		m_vPos = ioMath::VEC3_ZERO;

  00013	8b 35 00 00 00
	00		 mov	 esi, DWORD PTR __imp_?VEC3_ZERO@ioMath@@2UD3DXVECTOR3@@A
  00019	8d 7b 14	 lea	 edi, DWORD PTR [ebx+20]
  0001c	a5		 movsd
  0001d	a5		 movsd
  0001e	a5		 movsd
  0001f	5f		 pop	 edi
  00020	5e		 pop	 esi

; 3005 : 	}

  00021	8b c3		 mov	 eax, ebx
  00023	5b		 pop	 ebx
  00024	c3		 ret	 0
??0tagBaseCharDistanceSq@@QAE@XZ ENDP			; tagBaseCharDistanceSq::tagBaseCharDistanceSq
_TEXT	ENDS
PUBLIC	??RBaseCharDistanceSqSort2@@QBE_NABUtagBaseCharDistanceSq@@0@Z ; BaseCharDistanceSqSort2::operator()
; Function compile flags: /Ogsp
;	COMDAT ??RBaseCharDistanceSqSort2@@QBE_NABUtagBaseCharDistanceSq@@0@Z
_TEXT	SEGMENT
_lhs$ = 8						; size = 4
_rhs$ = 12						; size = 4
??RBaseCharDistanceSqSort2@@QBE_NABUtagBaseCharDistanceSq@@0@Z PROC ; BaseCharDistanceSqSort2::operator(), COMDAT
; _this$ = ecx

; 3029 : 	{

  00000	55		 push	 ebp
  00001	8b ec		 mov	 ebp, esp

; 3030 : 		if( lhs.m_fDistanceSq < rhs.m_fDistanceSq )

  00003	8b 45 08	 mov	 eax, DWORD PTR _lhs$[ebp]
  00006	f3 0f 10 40 10	 movss	 xmm0, DWORD PTR [eax+16]
  0000b	8b 45 0c	 mov	 eax, DWORD PTR _rhs$[ebp]
  0000e	f3 0f 10 48 10	 movss	 xmm1, DWORD PTR [eax+16]
  00013	0f 5a c0	 cvtps2pd xmm0, xmm0
  00016	0f 5a c9	 cvtps2pd xmm1, xmm1
  00019	66 0f 2f c8	 comisd	 xmm1, xmm0
  0001d	76 04		 jbe	 SHORT $LN1@operator

; 3031 : 		{
; 3032 : 			return true;

  0001f	b0 01		 mov	 al, 1
  00021	eb 02		 jmp	 SHORT $LN2@operator
$LN1@operator:

; 3033 : 		}
; 3034 : 
; 3035 : 		return false;

  00023	32 c0		 xor	 al, al
$LN2@operator:

; 3036 : 	}

  00025	5d		 pop	 ebp
  00026	c2 08 00	 ret	 8
??RBaseCharDistanceSqSort2@@QBE_NABUtagBaseCharDistanceSq@@0@Z ENDP ; BaseCharDistanceSqSort2::operator()
; Function compile flags: /Ogsp
; File d:\lost saga for developer\youtube\tutorial\source\src\lsclient\iodummychar.h
_TEXT	ENDS
;	COMDAT ?IsDummyCharMidSync@ioDummyChar@@UAE_NXZ
_TEXT	SEGMENT
?IsDummyCharMidSync@ioDummyChar@@UAE_NXZ PROC		; ioDummyChar::IsDummyCharMidSync, COMDAT
; _this$ = ecx

; 742  : 	virtual bool IsDummyCharMidSync(){ return false; }

  00000	32 c0		 xor	 al, al
  00002	c3		 ret	 0
?IsDummyCharMidSync@ioDummyChar@@UAE_NXZ ENDP		; ioDummyChar::IsDummyCharMidSync
_TEXT	ENDS
PUBLIC	?CheckWeaponBySkill@ioWeapon@@QBE_NXZ		; ioWeapon::CheckWeaponBySkill
; Function compile flags: /Ogsp
; File d:\lost saga for developer\youtube\tutorial\source\src\lsclient\ioweapon.h
;	COMDAT ?CheckWeaponBySkill@ioWeapon@@QBE_NXZ
_TEXT	SEGMENT
?CheckWeaponBySkill@ioWeapon@@QBE_NXZ PROC		; ioWeapon::CheckWeaponBySkill, COMDAT
; _this$ = ecx

; 484  : 	inline bool CheckWeaponBySkill() const { return m_bUseSkill; }

  00000	8a 81 7e 05 00
	00		 mov	 al, BYTE PTR [ecx+1406]
  00006	c3		 ret	 0
?CheckWeaponBySkill@ioWeapon@@QBE_NXZ ENDP		; ioWeapon::CheckWeaponBySkill
_TEXT	ENDS
PUBLIC	?CheckWeaponByStruct@ioWeapon@@QBE_NXZ		; ioWeapon::CheckWeaponByStruct
; Function compile flags: /Ogsp
;	COMDAT ?CheckWeaponByStruct@ioWeapon@@QBE_NXZ
_TEXT	SEGMENT
?CheckWeaponByStruct@ioWeapon@@QBE_NXZ PROC		; ioWeapon::CheckWeaponByStruct, COMDAT
; _this$ = ecx

; 488  : 	inline bool CheckWeaponByStruct() const { return m_bStructWeapon; }

  00000	8a 81 8c 05 00
	00		 mov	 al, BYTE PTR [ecx+1420]
  00006	c3		 ret	 0
?CheckWeaponByStruct@ioWeapon@@QBE_NXZ ENDP		; ioWeapon::CheckWeaponByStruct
_TEXT	ENDS
PUBLIC	?CheckWeaponByDummyChar@ioWeapon@@QBE_NXZ	; ioWeapon::CheckWeaponByDummyChar
; Function compile flags: /Ogsp
;	COMDAT ?CheckWeaponByDummyChar@ioWeapon@@QBE_NXZ
_TEXT	SEGMENT
?CheckWeaponByDummyChar@ioWeapon@@QBE_NXZ PROC		; ioWeapon::CheckWeaponByDummyChar, COMDAT
; _this$ = ecx

; 489  : 	inline bool CheckWeaponByDummyChar() const { return m_bDummyCharWeapon; }

  00000	8a 81 9c 05 00
	00		 mov	 al, BYTE PTR [ecx+1436]
  00006	c3		 ret	 0
?CheckWeaponByDummyChar@ioWeapon@@QBE_NXZ ENDP		; ioWeapon::CheckWeaponByDummyChar
_TEXT	ENDS
PUBLIC	?GetOwnerName@ioWeapon@@QBEABVioHashString@@XZ	; ioWeapon::GetOwnerName
; Function compile flags: /Ogsp
;	COMDAT ?GetOwnerName@ioWeapon@@QBEABVioHashString@@XZ
_TEXT	SEGMENT
?GetOwnerName@ioWeapon@@QBEABVioHashString@@XZ PROC	; ioWeapon::GetOwnerName, COMDAT
; _this$ = ecx

; 636  : 	inline const ioHashString& GetOwnerName() const { return m_OwnerName; }

  00000	8d 41 10	 lea	 eax, DWORD PTR [ecx+16]
  00003	c3		 ret	 0
?GetOwnerName@ioWeapon@@QBEABVioHashString@@XZ ENDP	; ioWeapon::GetOwnerName
_TEXT	ENDS
PUBLIC	?GetWeaponByDummyChar@ioWeapon@@QAE?BHXZ	; ioWeapon::GetWeaponByDummyChar
; Function compile flags: /Ogsp
;	COMDAT ?GetWeaponByDummyChar@ioWeapon@@QAE?BHXZ
_TEXT	SEGMENT
?GetWeaponByDummyChar@ioWeapon@@QAE?BHXZ PROC		; ioWeapon::GetWeaponByDummyChar, COMDAT
; _this$ = ecx

; 638  : 	inline const int GetWeaponByDummyChar() { return m_iDummyIndex; }

  00000	8b 81 98 05 00
	00		 mov	 eax, DWORD PTR [ecx+1432]
  00006	c3		 ret	 0
?GetWeaponByDummyChar@ioWeapon@@QAE?BHXZ ENDP		; ioWeapon::GetWeaponByDummyChar
_TEXT	ENDS
PUBLIC	?EncryptValueToPool@?$CEncrypt@M@@AAEXPBD@Z	; CEncrypt<float>::EncryptValueToPool
EXTRN	?EncryptByte@ccddaabb@@QAEXPBDPADH@Z:PROC	; ccddaabb::EncryptByte
; Function compile flags: /Ogsp
; File d:\lost saga for developer\youtube\tutorial\source\src\lsclient\encryptvalue.h
;	COMDAT ?EncryptValueToPool@?$CEncrypt@M@@AAEXPBD@Z
_TEXT	SEGMENT
_value$ = 8						; size = 4
?EncryptValueToPool@?$CEncrypt@M@@AAEXPBD@Z PROC	; CEncrypt<float>::EncryptValueToPool, COMDAT
; _this$ = ecx

; 67   : 	{

  00000	55		 push	 ebp
  00001	8b ec		 mov	 ebp, esp

; 68   : 		m_RC5.EncryptByte( value, m_MemPool, max(m_ValueSize, DEFAULT_ENCRYPT) );

  00003	0f b7 41 06	 movzx	 eax, WORD PTR [ecx+6]
  00007	83 f8 04	 cmp	 eax, 4
  0000a	77 03		 ja	 SHORT $LN4@EncryptVal
  0000c	6a 04		 push	 4
  0000e	58		 pop	 eax
$LN4@EncryptVal:
  0000f	50		 push	 eax
  00010	8d 41 1c	 lea	 eax, DWORD PTR [ecx+28]
  00013	50		 push	 eax
  00014	ff 75 08	 push	 DWORD PTR _value$[ebp]
  00017	83 c1 0c	 add	 ecx, 12			; 0000000cH
  0001a	e8 00 00 00 00	 call	 ?EncryptByte@ccddaabb@@QAEXPBDPADH@Z ; ccddaabb::EncryptByte

; 69   : 		
; 70   : 	}

  0001f	5d		 pop	 ebp
  00020	c2 04 00	 ret	 4
?EncryptValueToPool@?$CEncrypt@M@@AAEXPBD@Z ENDP	; CEncrypt<float>::EncryptValueToPool
_TEXT	ENDS
PUBLIC	?DecryptValueToPool@?$CEncrypt@M@@QAEXPAM@Z	; CEncrypt<float>::DecryptValueToPool
EXTRN	?DecryptByte@ccddaabb@@QBEXPBDPADH@Z:PROC	; ccddaabb::DecryptByte
; Function compile flags: /Ogsp
;	COMDAT ?DecryptValueToPool@?$CEncrypt@M@@QAEXPAM@Z
_TEXT	SEGMENT
_value$ = 8						; size = 4
?DecryptValueToPool@?$CEncrypt@M@@QAEXPAM@Z PROC	; CEncrypt<float>::DecryptValueToPool, COMDAT
; _this$ = ecx

; 1648 : 	{

  00000	55		 push	 ebp
  00001	8b ec		 mov	 ebp, esp
  00003	56		 push	 esi

; 1649 : 		m_RC5.DecryptByte( m_MemPool, m_TempMem, 4 );

  00004	8d 71 28	 lea	 esi, DWORD PTR [ecx+40]
  00007	6a 04		 push	 4
  00009	8d 41 1c	 lea	 eax, DWORD PTR [ecx+28]
  0000c	56		 push	 esi
  0000d	50		 push	 eax
  0000e	83 c1 0c	 add	 ecx, 12			; 0000000cH
  00011	e8 00 00 00 00	 call	 ?DecryptByte@ccddaabb@@QBEXPBDPADH@Z ; ccddaabb::DecryptByte

; 1650 : 		*value = *((float*)m_TempMem);

  00016	d9 06		 fld	 DWORD PTR [esi]
  00018	8b 45 08	 mov	 eax, DWORD PTR _value$[ebp]
  0001b	d9 18		 fstp	 DWORD PTR [eax]
  0001d	5e		 pop	 esi

; 1651 : 	}

  0001e	5d		 pop	 ebp
  0001f	c2 04 00	 ret	 4
?DecryptValueToPool@?$CEncrypt@M@@QAEXPAM@Z ENDP	; CEncrypt<float>::DecryptValueToPool
_TEXT	ENDS
PUBLIC	?DecryptValueToPool@?$CEncrypt@_N@@QAEXPA_N@Z	; CEncrypt<bool>::DecryptValueToPool
; Function compile flags: /Ogsp
;	COMDAT ?DecryptValueToPool@?$CEncrypt@_N@@QAEXPA_N@Z
_TEXT	SEGMENT
_value$ = 8						; size = 4
?DecryptValueToPool@?$CEncrypt@_N@@QAEXPA_N@Z PROC	; CEncrypt<bool>::DecryptValueToPool, COMDAT
; _this$ = ecx

; 219  : 	{

  00000	55		 push	 ebp
  00001	8b ec		 mov	 ebp, esp
  00003	56		 push	 esi

; 220  : 		m_RC5.DecryptByte( m_MemPool, m_TempMem, 4 );

  00004	8d 71 28	 lea	 esi, DWORD PTR [ecx+40]
  00007	6a 04		 push	 4
  00009	8d 41 1c	 lea	 eax, DWORD PTR [ecx+28]
  0000c	56		 push	 esi
  0000d	50		 push	 eax
  0000e	83 c1 0c	 add	 ecx, 12			; 0000000cH
  00011	e8 00 00 00 00	 call	 ?DecryptByte@ccddaabb@@QBEXPBDPADH@Z ; ccddaabb::DecryptByte

; 221  : 		*value = *((bool*)m_TempMem);

  00016	8a 06		 mov	 al, BYTE PTR [esi]
  00018	8b 4d 08	 mov	 ecx, DWORD PTR _value$[ebp]
  0001b	88 01		 mov	 BYTE PTR [ecx], al
  0001d	5e		 pop	 esi

; 222  : 	}

  0001e	5d		 pop	 ebp
  0001f	c2 04 00	 ret	 4
?DecryptValueToPool@?$CEncrypt@_N@@QAEXPA_N@Z ENDP	; CEncrypt<bool>::DecryptValueToPool
_TEXT	ENDS
PUBLIC	?EncryptValueToPool@?$CEncrypt@W4TeamType@@@@AAEXPBD@Z ; CEncrypt<enum TeamType>::EncryptValueToPool
; Function compile flags: /Ogsp
;	COMDAT ?EncryptValueToPool@?$CEncrypt@W4TeamType@@@@AAEXPBD@Z
_TEXT	SEGMENT
_value$ = 8						; size = 4
?EncryptValueToPool@?$CEncrypt@W4TeamType@@@@AAEXPBD@Z PROC ; CEncrypt<enum TeamType>::EncryptValueToPool, COMDAT
; _this$ = ecx

; 67   : 	{

  00000	55		 push	 ebp
  00001	8b ec		 mov	 ebp, esp

; 68   : 		m_RC5.EncryptByte( value, m_MemPool, max(m_ValueSize, DEFAULT_ENCRYPT) );

  00003	0f b7 41 06	 movzx	 eax, WORD PTR [ecx+6]
  00007	83 f8 04	 cmp	 eax, 4
  0000a	77 03		 ja	 SHORT $LN4@EncryptVal@2
  0000c	6a 04		 push	 4
  0000e	58		 pop	 eax
$LN4@EncryptVal@2:
  0000f	50		 push	 eax
  00010	8d 41 1c	 lea	 eax, DWORD PTR [ecx+28]
  00013	50		 push	 eax
  00014	ff 75 08	 push	 DWORD PTR _value$[ebp]
  00017	83 c1 0c	 add	 ecx, 12			; 0000000cH
  0001a	e8 00 00 00 00	 call	 ?EncryptByte@ccddaabb@@QAEXPBDPADH@Z ; ccddaabb::EncryptByte

; 69   : 		
; 70   : 	}

  0001f	5d		 pop	 ebp
  00020	c2 04 00	 ret	 4
?EncryptValueToPool@?$CEncrypt@W4TeamType@@@@AAEXPBD@Z ENDP ; CEncrypt<enum TeamType>::EncryptValueToPool
_TEXT	ENDS
PUBLIC	?DecryptValueToPool@?$CEncrypt@W4TeamType@@@@QAEXPAW4TeamType@@@Z ; CEncrypt<enum TeamType>::DecryptValueToPool
; Function compile flags: /Ogsp
;	COMDAT ?DecryptValueToPool@?$CEncrypt@W4TeamType@@@@QAEXPAW4TeamType@@@Z
_TEXT	SEGMENT
_value$ = 8						; size = 4
?DecryptValueToPool@?$CEncrypt@W4TeamType@@@@QAEXPAW4TeamType@@@Z PROC ; CEncrypt<enum TeamType>::DecryptValueToPool, COMDAT
; _this$ = ecx

; 2959 : 	{

  00000	55		 push	 ebp
  00001	8b ec		 mov	 ebp, esp
  00003	56		 push	 esi

; 2960 : 		m_RC5.DecryptByte( m_MemPool, m_TempMem, sizeof(TeamType) );

  00004	8d 71 28	 lea	 esi, DWORD PTR [ecx+40]
  00007	6a 04		 push	 4
  00009	8d 41 1c	 lea	 eax, DWORD PTR [ecx+28]
  0000c	56		 push	 esi
  0000d	50		 push	 eax
  0000e	83 c1 0c	 add	 ecx, 12			; 0000000cH
  00011	e8 00 00 00 00	 call	 ?DecryptByte@ccddaabb@@QBEXPBDPADH@Z ; ccddaabb::DecryptByte

; 2961 : 		*value = *((TeamType*)m_TempMem);

  00016	8b 06		 mov	 eax, DWORD PTR [esi]
  00018	8b 4d 08	 mov	 ecx, DWORD PTR _value$[ebp]
  0001b	89 01		 mov	 DWORD PTR [ecx], eax
  0001d	5e		 pop	 esi

; 2962 : 	}

  0001e	5d		 pop	 ebp
  0001f	c2 04 00	 ret	 4
?DecryptValueToPool@?$CEncrypt@W4TeamType@@@@QAEXPAW4TeamType@@@Z ENDP ; CEncrypt<enum TeamType>::DecryptValueToPool
_TEXT	ENDS
EXTRN	__imp_??0exception@std@@QAE@ABV01@@Z:PROC
; Function compile flags: /Ogsp
;	COMDAT ??0bad_alloc@std@@QAE@ABV01@@Z
_TEXT	SEGMENT
___that$ = 8						; size = 4
??0bad_alloc@std@@QAE@ABV01@@Z PROC			; std::bad_alloc::bad_alloc, COMDAT
; _this$ = ecx
  00000	55		 push	 ebp
  00001	8b ec		 mov	 ebp, esp
  00003	56		 push	 esi
  00004	ff 75 08	 push	 DWORD PTR ___that$[ebp]
  00007	8b f1		 mov	 esi, ecx
  00009	ff 15 00 00 00
	00		 call	 DWORD PTR __imp_??0exception@std@@QAE@ABV01@@Z
  0000f	c7 06 00 00 00
	00		 mov	 DWORD PTR [esi], OFFSET ??_7bad_alloc@std@@6B@
  00015	8b c6		 mov	 eax, esi
  00017	5e		 pop	 esi
  00018	5d		 pop	 ebp
  00019	c2 04 00	 ret	 4
??0bad_alloc@std@@QAE@ABV01@@Z ENDP			; std::bad_alloc::bad_alloc
; Function compile flags: /Ogsp
_TEXT	ENDS
;	COMDAT ??_GioTargetTrace10Dummy@@UAEPAXI@Z
_TEXT	SEGMENT
___flags$ = 8						; size = 4
??_GioTargetTrace10Dummy@@UAEPAXI@Z PROC		; ioTargetTrace10Dummy::`scalar deleting destructor', COMDAT
; _this$ = ecx
  00000	55		 push	 ebp
  00001	8b ec		 mov	 ebp, esp
  00003	56		 push	 esi
  00004	8b f1		 mov	 esi, ecx
  00006	e8 00 00 00 00	 call	 ??1ioTargetTrace10Dummy@@UAE@XZ ; ioTargetTrace10Dummy::~ioTargetTrace10Dummy
  0000b	f6 45 08 01	 test	 BYTE PTR ___flags$[ebp], 1
  0000f	74 07		 je	 SHORT $LN1@scalar@3
  00011	56		 push	 esi
  00012	e8 00 00 00 00	 call	 ??3@YAXPAX@Z		; operator delete
  00017	59		 pop	 ecx
$LN1@scalar@3:
  00018	8b c6		 mov	 eax, esi
  0001a	5e		 pop	 esi
  0001b	5d		 pop	 ebp
  0001c	c2 04 00	 ret	 4
??_GioTargetTrace10Dummy@@UAEPAXI@Z ENDP		; ioTargetTrace10Dummy::`scalar deleting destructor'
_TEXT	ENDS
PUBLIC	__real@4f800000
PUBLIC	??_C@_00CNPNBAHC@?$AA@				; `string'
EXTRN	__imp_?IsEmpty@ioHashString@@QBE_NXZ:PROC
EXTRN	??5SP2Packet@@QAEAAV0@AAVioHashString@@@Z:PROC	; SP2Packet::operator>>
EXTRN	?SetPosition@ioWeapon@@QAEXABUD3DXVECTOR3@@@Z:PROC ; ioWeapon::SetPosition
EXTRN	?ExtendFireExplicit@ioBaseChar@@QAEPAVioWeapon@@ABUFireTime@@ABUD3DXVECTOR3@@1ABVioHashString@@@Z:PROC ; ioBaseChar::ExtendFireExplicit
EXTRN	__imp_??0ioHashString@@QAE@PBD@Z:PROC
EXTRN	?GetMidPositionByRate@ioGameEntity@@QBE?AUD3DXVECTOR3@@M@Z:PROC ; ioGameEntity::GetMidPositionByRate
EXTRN	__imp_??4ioHashString@@QAEAAV0@PBD@Z:PROC
EXTRN	?SetWeaponIndexBase@ioBaseChar@@QAEXK@Z:PROC	; ioBaseChar::SetWeaponIndexBase
EXTRN	??5SP2Packet@@QAEAAV0@AAK@Z:PROC		; SP2Packet::operator>>
EXTRN	?GetOwner@ioDummyChar@@QBEPAVioBaseChar@@XZ:PROC ; ioDummyChar::GetOwner
EXTRN	?SetWorldOrientationAndDir@ioDummyChar@@QAEXABUD3DXQUATERNION@@@Z:PROC ; ioDummyChar::SetWorldOrientationAndDir
EXTRN	??5SP2Packet@@QAEAAV0@AAUD3DXVECTOR3@@@Z:PROC	; SP2Packet::operator>>
EXTRN	??5SP2Packet@@QAEAAV0@AAUD3DXQUATERNION@@@Z:PROC ; SP2Packet::operator>>
EXTRN	??5SP2Packet@@QAEAAV0@AAH@Z:PROC		; SP2Packet::operator>>
EXTRN	__EH_epilog3_GS:PROC
EXTRN	__EH_prolog3_GS:PROC
;	COMDAT __real@4f800000
; File c:\program files (x86)\microsoft directx sdk (june 2010)\include\d3dx9math.h
CONST	SEGMENT
__real@4f800000 DD 04f800000r			; 4.29497e+009
CONST	ENDS
;	COMDAT ??_C@_00CNPNBAHC@?$AA@
CONST	SEGMENT
??_C@_00CNPNBAHC@?$AA@ DB 00H				; `string'
CONST	ENDS
;	COMDAT xdata$x
xdata$x	SEGMENT
__unwindtable$?ApplyDummyCharSync@ioTargetTrace10Dummy@@UAEXPAVioPlayStage@@AAVSP2Packet@@@Z DD 0ffffffffH
	DD	FLAT:__unwindfunclet$?ApplyDummyCharSync@ioTargetTrace10Dummy@@UAEXPAVioPlayStage@@AAVSP2Packet@@@Z$1
	DD	00H
	DD	FLAT:__unwindfunclet$?ApplyDummyCharSync@ioTargetTrace10Dummy@@UAEXPAVioPlayStage@@AAVSP2Packet@@@Z$2
__ehfuncinfo$?ApplyDummyCharSync@ioTargetTrace10Dummy@@UAEXPAVioPlayStage@@AAVSP2Packet@@@Z DD 019930522H
	DD	02H
	DD	FLAT:__unwindtable$?ApplyDummyCharSync@ioTargetTrace10Dummy@@UAEXPAVioPlayStage@@AAVSP2Packet@@@Z
	DD	2 DUP(00H)
	DD	2 DUP(00H)
	DD	00H
	DD	01H
; Function compile flags: /Ogsp
; File d:\lost saga for developer\youtube\tutorial\source\src\lsclient\iotargettrace10dummy.cpp
xdata$x	ENDS
;	COMDAT ?ApplyDummyCharSync@ioTargetTrace10Dummy@@UAEXPAVioPlayStage@@AAVSP2Packet@@@Z
_TEXT	SEGMENT
_qtNewRot$548232 = -216					; size = 16
_kFireTime$548225 = -200				; size = 88
$T553843 = -112						; size = 16
_qtNewRot$548221 = -96					; size = 16
_qtNewRot$548216 = -96					; size = 16
_qtNewRot$548210 = -96					; size = 16
_pOwner$548219 = -80					; size = 4
tv342 = -76						; size = 4
tv338 = -76						; size = 4
tv334 = -76						; size = 4
$T553842 = -76						; size = 4
_nType$ = -72						; size = 4
_dwBaseWeaponIndex$548224 = -68				; size = 4
_vNewPos$548233 = -64					; size = 12
_vPos$548226 = -52					; size = 12
_vWeaponDir$548223 = -40				; size = 12
_vNewPos$548222 = -28					; size = 12
_vNewPos$548217 = -28					; size = 12
_vNewPos$548211 = -28					; size = 12
__$EHRec$ = -12						; size = 12
_pStage$ = 8						; size = 4
_rkPacket$ = 12						; size = 4
?ApplyDummyCharSync@ioTargetTrace10Dummy@@UAEXPAVioPlayStage@@AAVSP2Packet@@@Z PROC ; ioTargetTrace10Dummy::ApplyDummyCharSync, COMDAT
; _this$ = ecx

; 117  : {

  00000	68 cc 00 00 00	 push	 204			; 000000ccH
  00005	b8 00 00 00 00	 mov	 eax, __ehhandler$?ApplyDummyCharSync@ioTargetTrace10Dummy@@UAEXPAVioPlayStage@@AAVSP2Packet@@@Z
  0000a	e8 00 00 00 00	 call	 __EH_prolog3_GS
  0000f	8b 7d 0c	 mov	 edi, DWORD PTR _rkPacket$[ebp]

; 118  : 	if( !pStage ) 

  00012	33 db		 xor	 ebx, ebx
  00014	8b f1		 mov	 esi, ecx
  00016	39 5d 08	 cmp	 DWORD PTR _pStage$[ebp], ebx
  00019	74 6b		 je	 SHORT $LN7@ApplyDummy

; 119  : 		return;	
; 120  : 
; 121  : 	int nType;
; 122  : 	rkPacket >> nType;	

  0001b	8d 45 b8	 lea	 eax, DWORD PTR _nType$[ebp]
  0001e	50		 push	 eax
  0001f	8b cf		 mov	 ecx, edi
  00021	e8 00 00 00 00	 call	 ??5SP2Packet@@QAEAAV0@AAH@Z ; SP2Packet::operator>>

; 123  : 	
; 124  : 	switch ( nType )

  00026	8b 45 b8	 mov	 eax, DWORD PTR _nType$[ebp]
  00029	48		 dec	 eax
  0002a	48		 dec	 eax
  0002b	0f 84 03 02 00
	00		 je	 $LN9@ApplyDummy
  00031	48		 dec	 eax
  00032	0f 84 c1 01 00
	00		 je	 $LN6@ApplyDummy
  00038	48		 dec	 eax
  00039	74 53		 je	 SHORT $LN5@ApplyDummy
  0003b	48		 dec	 eax
  0003c	74 0f		 je	 SHORT $LN2@ApplyDummy
  0003e	48		 dec	 eax
  0003f	75 45		 jne	 SHORT $LN7@ApplyDummy

; 211  : 
; 212  : 			SetTraceDelayMoveState();
; 213  : 		}
; 214  : 		break;
; 215  : 	case TS_End:
; 216  : 		m_TraceState = TS_End;

  00041	c7 86 80 14 00
	00 06 00 00 00	 mov	 DWORD PTR [esi+5248], 6

; 217  : 		break;

  0004b	eb 39		 jmp	 SHORT $LN7@ApplyDummy
$LN2@ApplyDummy:

; 201  : 	case TS_Restart:
; 202  : 		{
; 203  : 			D3DXQUATERNION qtNewRot;
; 204  : 			D3DXVECTOR3 vNewPos;
; 205  : 
; 206  : 			rkPacket >> qtNewRot;

  0004d	8d 85 28 ff ff
	ff		 lea	 eax, DWORD PTR _qtNewRot$548232[ebp]
  00053	50		 push	 eax
  00054	8b cf		 mov	 ecx, edi
  00056	e8 00 00 00 00	 call	 ??5SP2Packet@@QAEAAV0@AAUD3DXQUATERNION@@@Z ; SP2Packet::operator>>

; 207  : 			rkPacket >> vNewPos;

  0005b	8d 45 c0	 lea	 eax, DWORD PTR _vNewPos$548233[ebp]
  0005e	50		 push	 eax
  0005f	8b cf		 mov	 ecx, edi
  00061	e8 00 00 00 00	 call	 ??5SP2Packet@@QAEAAV0@AAUD3DXVECTOR3@@@Z ; SP2Packet::operator>>

; 208  : 
; 209  : 			SetWorldOrientationAndDir( qtNewRot );

  00066	8d 85 28 ff ff
	ff		 lea	 eax, DWORD PTR _qtNewRot$548232[ebp]
  0006c	50		 push	 eax
  0006d	8b ce		 mov	 ecx, esi
  0006f	e8 00 00 00 00	 call	 ?SetWorldOrientationAndDir@ioDummyChar@@QAEXABUD3DXQUATERNION@@@Z ; ioDummyChar::SetWorldOrientationAndDir

; 210  : 			SetWorldPosition( vNewPos );

  00074	8b 06		 mov	 eax, DWORD PTR [esi]
  00076	8d 4d c0	 lea	 ecx, DWORD PTR _vNewPos$548233[ebp]
  00079	51		 push	 ecx
  0007a	8b ce		 mov	 ecx, esi
  0007c	ff 50 44	 call	 DWORD PTR [eax+68]
$LN8@ApplyDummy:

; 144  : 				SetTraceDelayMoveState();

  0007f	8b ce		 mov	 ecx, esi
  00081	e8 00 00 00 00	 call	 ?SetTraceDelayMoveState@ioTargetTrace10Dummy@@IAEXXZ ; ioTargetTrace10Dummy::SetTraceDelayMoveState
$LN7@ApplyDummy:

; 218  : 	}
; 219  : }

  00086	e8 00 00 00 00	 call	 __EH_epilog3_GS
  0008b	c2 08 00	 ret	 8
$LN5@ApplyDummy:

; 161  : 	case TS_Create_Weapon:
; 162  : 		{
; 163  : 			ioBaseChar *pOwner = GetOwner();

  0008e	8b ce		 mov	 ecx, esi
  00090	e8 00 00 00 00	 call	 ?GetOwner@ioDummyChar@@QBEPAVioBaseChar@@XZ ; ioDummyChar::GetOwner
  00095	89 45 b0	 mov	 DWORD PTR _pOwner$548219[ebp], eax

; 164  : 			if ( !pOwner )

  00098	3b c3		 cmp	 eax, ebx
  0009a	74 ea		 je	 SHORT $LN7@ApplyDummy

; 165  : 				return;
; 166  : 
; 167  : 			D3DXQUATERNION qtNewRot;
; 168  : 			D3DXVECTOR3 vNewPos, vWeaponDir;
; 169  : 			DWORD dwBaseWeaponIndex;
; 170  : 
; 171  : 			rkPacket >> qtNewRot;

  0009c	8d 45 a0	 lea	 eax, DWORD PTR _qtNewRot$548221[ebp]
  0009f	50		 push	 eax
  000a0	8b cf		 mov	 ecx, edi
  000a2	e8 00 00 00 00	 call	 ??5SP2Packet@@QAEAAV0@AAUD3DXQUATERNION@@@Z ; SP2Packet::operator>>

; 172  : 			rkPacket >> vNewPos;

  000a7	8d 45 e4	 lea	 eax, DWORD PTR _vNewPos$548222[ebp]
  000aa	50		 push	 eax
  000ab	8b cf		 mov	 ecx, edi
  000ad	e8 00 00 00 00	 call	 ??5SP2Packet@@QAEAAV0@AAUD3DXVECTOR3@@@Z ; SP2Packet::operator>>

; 173  : 
; 174  : 			rkPacket >> dwBaseWeaponIndex;

  000b2	8d 45 bc	 lea	 eax, DWORD PTR _dwBaseWeaponIndex$548224[ebp]
  000b5	50		 push	 eax
  000b6	8b cf		 mov	 ecx, edi
  000b8	e8 00 00 00 00	 call	 ??5SP2Packet@@QAEAAV0@AAK@Z ; SP2Packet::operator>>

; 175  : 			rkPacket >> vWeaponDir;

  000bd	8d 45 d8	 lea	 eax, DWORD PTR _vWeaponDir$548223[ebp]
  000c0	50		 push	 eax
  000c1	8b cf		 mov	 ecx, edi
  000c3	e8 00 00 00 00	 call	 ??5SP2Packet@@QAEAAV0@AAUD3DXVECTOR3@@@Z ; SP2Packet::operator>>

; 176  : 
; 177  : 			SetWorldOrientationAndDir( qtNewRot );

  000c8	8d 45 a0	 lea	 eax, DWORD PTR _qtNewRot$548221[ebp]
  000cb	50		 push	 eax
  000cc	8b ce		 mov	 ecx, esi
  000ce	e8 00 00 00 00	 call	 ?SetWorldOrientationAndDir@ioDummyChar@@QAEXABUD3DXQUATERNION@@@Z ; ioDummyChar::SetWorldOrientationAndDir

; 178  : 			SetWorldPosition( vNewPos );			

  000d3	8b 06		 mov	 eax, DWORD PTR [esi]
  000d5	8d 4d e4	 lea	 ecx, DWORD PTR _vNewPos$548222[ebp]
  000d8	51		 push	 ecx
  000d9	8b ce		 mov	 ecx, esi
  000db	ff 50 44	 call	 DWORD PTR [eax+68]

; 179  : 
; 180  : 			pOwner->SetWeaponIndexBase( dwBaseWeaponIndex );

  000de	ff 75 bc	 push	 DWORD PTR _dwBaseWeaponIndex$548224[ebp]
  000e1	8b 4d b0	 mov	 ecx, DWORD PTR _pOwner$548219[ebp]
  000e4	e8 00 00 00 00	 call	 ?SetWeaponIndexBase@ioBaseChar@@QAEXK@Z ; ioBaseChar::SetWeaponIndexBase

; 181  : 
; 182  : 			FireTime kFireTime;

  000e9	8d 8d 38 ff ff
	ff		 lea	 ecx, DWORD PTR _kFireTime$548225[ebp]
  000ef	e8 00 00 00 00	 call	 ??0FireTime@@QAE@XZ	; FireTime::FireTime
  000f4	89 5d fc	 mov	 DWORD PTR __$EHRec$[ebp+8], ebx

; 183  : 			kFireTime.dwStart = FRAMEGETTIME();

  000f7	ff 15 00 00 00
	00		 call	 DWORD PTR __imp_?GetSingleton@ioFrameTimer@@SAAAV1@XZ
  000fd	8b c8		 mov	 ecx, eax
  000ff	ff 15 00 00 00
	00		 call	 DWORD PTR __imp_?GetLoopSec@ioFrameTimer@@QBEKXZ
  00105	89 85 38 ff ff
	ff		 mov	 DWORD PTR _kFireTime$548225[ebp], eax

; 184  : 			kFireTime.iAttributeIdx = m_nWeaponType;

  0010b	8b 86 e8 14 00
	00		 mov	 eax, DWORD PTR [esi+5352]

; 185  : 			kFireTime.iResistanceIdx = 0;
; 186  : 			kFireTime.szWoundedAni  = "";

  00111	bf 00 00 00 00	 mov	 edi, OFFSET ??_C@_00CNPNBAHC@?$AA@
  00116	57		 push	 edi
  00117	8d 8d 4c ff ff
	ff		 lea	 ecx, DWORD PTR _kFireTime$548225[ebp+20]
  0011d	89 85 40 ff ff
	ff		 mov	 DWORD PTR _kFireTime$548225[ebp+8], eax
  00123	89 9d 44 ff ff
	ff		 mov	 DWORD PTR _kFireTime$548225[ebp+12], ebx
  00129	ff 15 00 00 00
	00		 call	 DWORD PTR __imp_??4ioHashString@@QAEAAV0@PBD@Z

; 187  : 			kFireTime.dwWoundedAniDuration = 0;
; 188  : 			kFireTime.bLoopWoundedAni = false;
; 189  : 			kFireTime.dwWeaponIdx = dwBaseWeaponIndex;

  0012f	8b 45 bc	 mov	 eax, DWORD PTR _dwBaseWeaponIndex$548224[ebp]
  00132	89 9d 5c ff ff
	ff		 mov	 DWORD PTR _kFireTime$548225[ebp+36], ebx
  00138	88 9d 48 ff ff
	ff		 mov	 BYTE PTR _kFireTime$548225[ebp+16], bl
  0013e	89 85 60 ff ff
	ff		 mov	 DWORD PTR _kFireTime$548225[ebp+40], eax

; 190  : 			kFireTime.eFireTimeType = FTT_DUMMY_CHAR_ATTACK;

  00144	c7 85 78 ff ff
	ff 0b 00 00 00	 mov	 DWORD PTR _kFireTime$548225[ebp+64], 11 ; 0000000bH

; 191  : 
; 192  : 			D3DXVECTOR3 vPos = GetMidPositionByRate();

  0014e	b8 05 00 00 00	 mov	 eax, 5
  00153	8b c8		 mov	 ecx, eax
  00155	b8 0a 00 00 00	 mov	 eax, 10			; 0000000aH
  0015a	89 4d b4	 mov	 DWORD PTR tv342[ebp], ecx
  0015d	db 45 b4	 fild	 DWORD PTR tv342[ebp]
  00160	85 c9		 test	 ecx, ecx
  00162	79 06		 jns	 SHORT $LN41@ApplyDummy
  00164	d8 05 00 00 00
	00		 fadd	 DWORD PTR __real@4f800000
$LN41@ApplyDummy:
  0016a	89 45 b4	 mov	 DWORD PTR tv338[ebp], eax
  0016d	db 45 b4	 fild	 DWORD PTR tv338[ebp]
  00170	85 c0		 test	 eax, eax
  00172	79 06		 jns	 SHORT $LN42@ApplyDummy
  00174	d8 05 00 00 00
	00		 fadd	 DWORD PTR __real@4f800000
$LN42@ApplyDummy:
  0017a	de f9		 fdivp	 ST(1), ST(0)
  0017c	51		 push	 ecx
  0017d	8d 45 cc	 lea	 eax, DWORD PTR _vPos$548226[ebp]
  00180	8b ce		 mov	 ecx, esi
  00182	d9 5d b4	 fstp	 DWORD PTR tv334[ebp]
  00185	d9 45 b4	 fld	 DWORD PTR tv334[ebp]
  00188	d9 1c 24	 fstp	 DWORD PTR [esp]
  0018b	50		 push	 eax
  0018c	e8 00 00 00 00	 call	 ?GetMidPositionByRate@ioGameEntity@@QBE?AUD3DXVECTOR3@@M@Z ; ioGameEntity::GetMidPositionByRate

; 193  : 			ioWeapon *pWeapon = pOwner->ExtendFireExplicit( kFireTime, vPos, vWeaponDir, "" );

  00191	57		 push	 edi
  00192	8d 4d 90	 lea	 ecx, DWORD PTR $T553843[ebp]
  00195	ff 15 00 00 00
	00		 call	 DWORD PTR __imp_??0ioHashString@@QAE@PBD@Z
  0019b	8b 4d b0	 mov	 ecx, DWORD PTR _pOwner$548219[ebp]
  0019e	8d 45 90	 lea	 eax, DWORD PTR $T553843[ebp]
  001a1	50		 push	 eax
  001a2	8d 45 d8	 lea	 eax, DWORD PTR _vWeaponDir$548223[ebp]
  001a5	50		 push	 eax
  001a6	8d 45 cc	 lea	 eax, DWORD PTR _vPos$548226[ebp]
  001a9	50		 push	 eax
  001aa	8d 85 38 ff ff
	ff		 lea	 eax, DWORD PTR _kFireTime$548225[ebp]
  001b0	50		 push	 eax
  001b1	c6 45 fc 01	 mov	 BYTE PTR __$EHRec$[ebp+8], 1
  001b5	e8 00 00 00 00	 call	 ?ExtendFireExplicit@ioBaseChar@@QAEPAVioWeapon@@ABUFireTime@@ABUD3DXVECTOR3@@1ABVioHashString@@@Z ; ioBaseChar::ExtendFireExplicit
  001ba	8d 4d 90	 lea	 ecx, DWORD PTR $T553843[ebp]
  001bd	8b f0		 mov	 esi, eax
  001bf	88 5d fc	 mov	 BYTE PTR __$EHRec$[ebp+8], bl
  001c2	ff 15 00 00 00
	00		 call	 DWORD PTR __imp_??1ioHashString@@QAE@XZ

; 194  : 			if ( pWeapon )

  001c8	3b f3		 cmp	 esi, ebx
  001ca	74 19		 je	 SHORT $LN3@ApplyDummy

; 195  : 			{
; 196  : 				pWeapon->SetPosition( vPos );

  001cc	8d 45 cc	 lea	 eax, DWORD PTR _vPos$548226[ebp]
  001cf	50		 push	 eax
  001d0	8b ce		 mov	 ecx, esi
  001d2	e8 00 00 00 00	 call	 ?SetPosition@ioWeapon@@QAEXABUD3DXVECTOR3@@@Z ; ioWeapon::SetPosition

; 197  : 				pWeapon->SetMoveDir( vWeaponDir );

  001d7	8b 06		 mov	 eax, DWORD PTR [esi]
  001d9	8d 4d d8	 lea	 ecx, DWORD PTR _vWeaponDir$548223[ebp]
  001dc	51		 push	 ecx
  001dd	8b ce		 mov	 ecx, esi
  001df	ff 90 b0 00 00
	00		 call	 DWORD PTR [eax+176]
$LN3@ApplyDummy:

; 198  : 			}
; 199  : 		}

  001e5	83 4d fc ff	 or	 DWORD PTR __$EHRec$[ebp+8], -1
  001e9	8d 8d 38 ff ff
	ff		 lea	 ecx, DWORD PTR _kFireTime$548225[ebp]
  001ef	e8 00 00 00 00	 call	 ??1FireTime@@QAE@XZ

; 200  : 		break;

  001f4	e9 8d fe ff ff	 jmp	 $LN7@ApplyDummy
$LN6@ApplyDummy:

; 145  : 		}
; 146  : 		break;
; 147  : 	case TS_Trace_Target_Attack:
; 148  : 		{
; 149  : 			D3DXQUATERNION qtNewRot;
; 150  : 			D3DXVECTOR3 vNewPos;
; 151  : 
; 152  : 			rkPacket >> qtNewRot;

  001f9	8d 45 a0	 lea	 eax, DWORD PTR _qtNewRot$548216[ebp]
  001fc	50		 push	 eax
  001fd	8b cf		 mov	 ecx, edi
  001ff	e8 00 00 00 00	 call	 ??5SP2Packet@@QAEAAV0@AAUD3DXQUATERNION@@@Z ; SP2Packet::operator>>

; 153  : 			rkPacket >> vNewPos;

  00204	8d 45 e4	 lea	 eax, DWORD PTR _vNewPos$548217[ebp]
  00207	50		 push	 eax
  00208	8b cf		 mov	 ecx, edi
  0020a	e8 00 00 00 00	 call	 ??5SP2Packet@@QAEAAV0@AAUD3DXVECTOR3@@@Z ; SP2Packet::operator>>

; 154  : 
; 155  : 			SetWorldOrientationAndDir( qtNewRot );

  0020f	8d 45 a0	 lea	 eax, DWORD PTR _qtNewRot$548216[ebp]
  00212	50		 push	 eax
  00213	8b ce		 mov	 ecx, esi
  00215	e8 00 00 00 00	 call	 ?SetWorldOrientationAndDir@ioDummyChar@@QAEXABUD3DXQUATERNION@@@Z ; ioDummyChar::SetWorldOrientationAndDir

; 156  : 			SetWorldPosition( vNewPos );

  0021a	8b 06		 mov	 eax, DWORD PTR [esi]
  0021c	8d 4d e4	 lea	 ecx, DWORD PTR _vNewPos$548217[ebp]
  0021f	51		 push	 ecx
  00220	8b ce		 mov	 ecx, esi
  00222	ff 50 44	 call	 DWORD PTR [eax+68]

; 157  : 
; 158  : 			m_TraceState = TS_Trace_Target_Attack;

  00225	c7 86 80 14 00
	00 03 00 00 00	 mov	 DWORD PTR [esi+5248], 3

; 159  : 		}
; 160  : 		break;

  0022f	e9 52 fe ff ff	 jmp	 $LN7@ApplyDummy
$LN9@ApplyDummy:

; 125  : 	{
; 126  : 	case TS_Trace_Target_Move:
; 127  : 		{
; 128  : 			D3DXQUATERNION qtNewRot;
; 129  : 			D3DXVECTOR3 vNewPos;
; 130  : 
; 131  : 			rkPacket >> qtNewRot;

  00234	8d 45 a0	 lea	 eax, DWORD PTR _qtNewRot$548210[ebp]
  00237	50		 push	 eax
  00238	8b cf		 mov	 ecx, edi
  0023a	e8 00 00 00 00	 call	 ??5SP2Packet@@QAEAAV0@AAUD3DXQUATERNION@@@Z ; SP2Packet::operator>>

; 132  : 			rkPacket >> vNewPos;			

  0023f	8d 45 e4	 lea	 eax, DWORD PTR _vNewPos$548211[ebp]
  00242	50		 push	 eax
  00243	8b cf		 mov	 ecx, edi
  00245	e8 00 00 00 00	 call	 ??5SP2Packet@@QAEAAV0@AAUD3DXVECTOR3@@@Z ; SP2Packet::operator>>

; 133  : 			rkPacket >> m_szTraceTarget;

  0024a	8d 9e 84 14 00
	00		 lea	 ebx, DWORD PTR [esi+5252]
  00250	53		 push	 ebx
  00251	8b cf		 mov	 ecx, edi
  00253	e8 00 00 00 00	 call	 ??5SP2Packet@@QAEAAV0@AAVioHashString@@@Z ; SP2Packet::operator>>

; 134  : 			
; 135  : 			SetWorldOrientationAndDir( qtNewRot );

  00258	8d 45 a0	 lea	 eax, DWORD PTR _qtNewRot$548210[ebp]
  0025b	50		 push	 eax
  0025c	8b ce		 mov	 ecx, esi
  0025e	e8 00 00 00 00	 call	 ?SetWorldOrientationAndDir@ioDummyChar@@QAEXABUD3DXQUATERNION@@@Z ; ioDummyChar::SetWorldOrientationAndDir

; 136  : 			SetWorldPosition( vNewPos );

  00263	8b 06		 mov	 eax, DWORD PTR [esi]
  00265	8d 4d e4	 lea	 ecx, DWORD PTR _vNewPos$548211[ebp]
  00268	51		 push	 ecx
  00269	8b ce		 mov	 ecx, esi
  0026b	ff 50 44	 call	 DWORD PTR [eax+68]

; 137  : 
; 138  : 			if ( !m_szTraceTarget.IsEmpty() )

  0026e	8b cb		 mov	 ecx, ebx
  00270	ff 15 00 00 00
	00		 call	 DWORD PTR __imp_?IsEmpty@ioHashString@@QBE_NXZ
  00276	84 c0		 test	 al, al
  00278	0f 85 01 fe ff
	ff		 jne	 $LN8@ApplyDummy

; 139  : 			{
; 140  : 				SetLoopAni( m_szTraceTargetMoveAni, m_fTraceTargetMoveAniRate );

  0027e	d9 86 c0 14 00
	00		 fld	 DWORD PTR [esi+5312]
  00284	83 ec 14	 sub	 esp, 20			; 00000014H
  00287	8d 86 b0 14 00
	00		 lea	 eax, DWORD PTR [esi+5296]
  0028d	d9 5c 24 10	 fstp	 DWORD PTR [esp+16]
  00291	8b cc		 mov	 ecx, esp
  00293	89 65 b4	 mov	 DWORD PTR $T553842[ebp], esp
  00296	50		 push	 eax
  00297	ff 15 00 00 00
	00		 call	 DWORD PTR __imp_??0ioHashString@@QAE@ABV0@@Z
  0029d	8b ce		 mov	 ecx, esi
  0029f	e8 00 00 00 00	 call	 ?SetLoopAni@ioTargetTrace10Dummy@@IAEXVioHashString@@M@Z ; ioTargetTrace10Dummy::SetLoopAni

; 141  : 				m_TraceState = TS_Trace_Target_Move;

  002a4	c7 86 80 14 00
	00 02 00 00 00	 mov	 DWORD PTR [esi+5248], 2

; 142  : 			}
; 143  : 			else

  002ae	e9 d3 fd ff ff	 jmp	 $LN7@ApplyDummy
_TEXT	ENDS
;	COMDAT text$x
text$x	SEGMENT
__unwindfunclet$?ApplyDummyCharSync@ioTargetTrace10Dummy@@UAEXPAVioPlayStage@@AAVSP2Packet@@@Z$1:
  00000	8d 8d 38 ff ff
	ff		 lea	 ecx, DWORD PTR _kFireTime$548225[ebp]
  00006	e9 00 00 00 00	 jmp	 ??1FireTime@@QAE@XZ
__unwindfunclet$?ApplyDummyCharSync@ioTargetTrace10Dummy@@UAEXPAVioPlayStage@@AAVSP2Packet@@@Z$2:
  0000b	8d 4d 90	 lea	 ecx, DWORD PTR $T553843[ebp]
  0000e	ff 25 00 00 00
	00		 jmp	 DWORD PTR __imp_??1ioHashString@@QAE@XZ
__ehhandler$?ApplyDummyCharSync@ioTargetTrace10Dummy@@UAEXPAVioPlayStage@@AAVSP2Packet@@@Z:
  00014	8b 54 24 08	 mov	 edx, DWORD PTR [esp+8]
  00018	8d 42 0c	 lea	 eax, DWORD PTR [edx+12]
  0001b	8b 8a 24 ff ff
	ff		 mov	 ecx, DWORD PTR [edx-220]
  00021	33 c8		 xor	 ecx, eax
  00023	e8 00 00 00 00	 call	 @__security_check_cookie@4
  00028	8b 4a fc	 mov	 ecx, DWORD PTR [edx-4]
  0002b	33 c8		 xor	 ecx, eax
  0002d	e8 00 00 00 00	 call	 @__security_check_cookie@4
  00032	b8 00 00 00 00	 mov	 eax, OFFSET __ehfuncinfo$?ApplyDummyCharSync@ioTargetTrace10Dummy@@UAEXPAVioPlayStage@@AAVSP2Packet@@@Z
  00037	e9 00 00 00 00	 jmp	 ___CxxFrameHandler3
text$x	ENDS
?ApplyDummyCharSync@ioTargetTrace10Dummy@@UAEXPAVioPlayStage@@AAVSP2Packet@@@Z ENDP ; ioTargetTrace10Dummy::ApplyDummyCharSync
PUBLIC	__real@bf800000
PUBLIC	__$ArrayPad$
PUBLIC	?ProcessTraceDelayMove@ioTargetTrace10Dummy@@IAEXM@Z ; ioTargetTrace10Dummy::ProcessTraceDelayMove
EXTRN	_D3DXVec3Normalize@8:PROC
EXTRN	__imp_??D@YA?AUD3DXVECTOR3@@ABUD3DXQUATERNION@@ABU0@@Z:PROC
;	COMDAT __real@bf800000
; File c:\program files (x86)\microsoft directx sdk (june 2010)\include\d3dx9math.inl
CONST	SEGMENT
__real@bf800000 DD 0bf800000r			; -1
; Function compile flags: /Ogsp
; File d:\lost saga for developer\youtube\tutorial\source\src\lsclient\iotargettrace10dummy.cpp
CONST	ENDS
;	COMDAT ?ProcessTraceDelayMove@ioTargetTrace10Dummy@@IAEXM@Z
_TEXT	SEGMENT
_vMoveDir$ = -28					; size = 12
$T548316 = -16						; size = 12
$T548313 = -16						; size = 12
__$ArrayPad$ = -4					; size = 4
_fTimePerSec$ = 8					; size = 4
?ProcessTraceDelayMove@ioTargetTrace10Dummy@@IAEXM@Z PROC ; ioTargetTrace10Dummy::ProcessTraceDelayMove, COMDAT
; _this$ = ecx

; 357  : {

  00000	55		 push	 ebp
  00001	8b ec		 mov	 ebp, esp
  00003	83 ec 1c	 sub	 esp, 28			; 0000001cH
  00006	a1 00 00 00 00	 mov	 eax, DWORD PTR ___security_cookie
  0000b	33 c5		 xor	 eax, ebp
  0000d	89 45 fc	 mov	 DWORD PTR __$ArrayPad$[ebp], eax

; 358  : 	D3DXVECTOR3 vMoveDir = GetWorldOrientation() * D3DXVECTOR3( 0.0f, 0.0f, -1.0f );

  00010	0f 57 c0	 xorps	 xmm0, xmm0
  00013	56		 push	 esi
  00014	8d 45 f0	 lea	 eax, DWORD PTR $T548313[ebp]
  00017	8b f1		 mov	 esi, ecx
  00019	f3 0f 11 45 f0	 movss	 DWORD PTR $T548313[ebp], xmm0
  0001e	f3 0f 11 45 f4	 movss	 DWORD PTR $T548313[ebp+4], xmm0
  00023	f3 0f 10 05 00
	00 00 00	 movss	 xmm0, DWORD PTR __real@bf800000
  0002b	50		 push	 eax
  0002c	8b 06		 mov	 eax, DWORD PTR [esi]
  0002e	f3 0f 11 45 f8	 movss	 DWORD PTR $T548313[ebp+8], xmm0
  00033	ff 50 74	 call	 DWORD PTR [eax+116]
  00036	50		 push	 eax
  00037	8d 45 e4	 lea	 eax, DWORD PTR _vMoveDir$[ebp]
  0003a	50		 push	 eax
  0003b	ff 15 00 00 00
	00		 call	 DWORD PTR __imp_??D@YA?AUD3DXVECTOR3@@ABUD3DXQUATERNION@@ABU0@@Z

; 359  : 	vMoveDir.y = 0;

  00041	0f 57 c0	 xorps	 xmm0, xmm0
  00044	83 c4 0c	 add	 esp, 12			; 0000000cH

; 360  : 	D3DXVec3Normalize( &vMoveDir, &vMoveDir );

  00047	8d 45 e4	 lea	 eax, DWORD PTR _vMoveDir$[ebp]
  0004a	50		 push	 eax
  0004b	50		 push	 eax
  0004c	f3 0f 11 45 e8	 movss	 DWORD PTR _vMoveDir$[ebp+4], xmm0
  00051	e8 00 00 00 00	 call	 _D3DXVec3Normalize@8

; 361  : 
; 362  : 	float fMoveValue = fTimePerSec * m_fTraceDelayMoveSpeed;

  00056	f3 0f 10 86 c4
	14 00 00	 movss	 xmm0, DWORD PTR [esi+5316]
  0005e	f3 0f 10 4d 08	 movss	 xmm1, DWORD PTR _fTimePerSec$[ebp]

; 363  : 	m_fCurMoveRange += fMoveValue;

  00063	f3 0f 10 96 28
	10 00 00	 movss	 xmm2, DWORD PTR [esi+4136]
  0006b	0f 5a c9	 cvtps2pd xmm1, xmm1

; 364  : 	
; 365  : 	Translate( vMoveDir * fMoveValue );

  0006e	8b 06		 mov	 eax, DWORD PTR [esi]
  00070	0f 5a c0	 cvtps2pd xmm0, xmm0
  00073	f2 0f 59 c1	 mulsd	 xmm0, xmm1
  00077	0f 57 c9	 xorps	 xmm1, xmm1
  0007a	66 0f 5a c0	 cvtpd2ps xmm0, xmm0
  0007e	f3 0f 5a c8	 cvtss2sd xmm1, xmm0
  00082	0f 5a d2	 cvtps2pd xmm2, xmm2
  00085	f2 0f 58 ca	 addsd	 xmm1, xmm2
  00089	66 0f 5a c9	 cvtpd2ps xmm1, xmm1
  0008d	f3 0f 11 8e 28
	10 00 00	 movss	 DWORD PTR [esi+4136], xmm1
  00095	f3 0f 10 4d e4	 movss	 xmm1, DWORD PTR _vMoveDir$[ebp]
  0009a	0f 5a c9	 cvtps2pd xmm1, xmm1
  0009d	0f 57 d2	 xorps	 xmm2, xmm2
  000a0	f3 0f 5a d0	 cvtss2sd xmm2, xmm0
  000a4	f2 0f 59 ca	 mulsd	 xmm1, xmm2
  000a8	f3 0f 10 55 e8	 movss	 xmm2, DWORD PTR _vMoveDir$[ebp+4]
  000ad	66 0f 5a c9	 cvtpd2ps xmm1, xmm1
  000b1	f3 0f 11 4d f0	 movss	 DWORD PTR $T548316[ebp], xmm1
  000b6	0f 57 c9	 xorps	 xmm1, xmm1
  000b9	f3 0f 5a c8	 cvtss2sd xmm1, xmm0
  000bd	f3 0f 5a c0	 cvtss2sd xmm0, xmm0
  000c1	0f 5a d2	 cvtps2pd xmm2, xmm2
  000c4	f2 0f 59 ca	 mulsd	 xmm1, xmm2
  000c8	66 0f 5a c9	 cvtpd2ps xmm1, xmm1
  000cc	f3 0f 11 4d f4	 movss	 DWORD PTR $T548316[ebp+4], xmm1
  000d1	f3 0f 10 4d ec	 movss	 xmm1, DWORD PTR _vMoveDir$[ebp+8]
  000d6	8d 4d f0	 lea	 ecx, DWORD PTR $T548316[ebp]
  000d9	0f 5a c9	 cvtps2pd xmm1, xmm1
  000dc	f2 0f 59 c8	 mulsd	 xmm1, xmm0
  000e0	51		 push	 ecx
  000e1	66 0f 5a c1	 cvtpd2ps xmm0, xmm1
  000e5	8b ce		 mov	 ecx, esi
  000e7	f3 0f 11 45 f8	 movss	 DWORD PTR $T548316[ebp+8], xmm0
  000ec	ff 50 50	 call	 DWORD PTR [eax+80]

; 366  : }

  000ef	8b 4d fc	 mov	 ecx, DWORD PTR __$ArrayPad$[ebp]
  000f2	33 cd		 xor	 ecx, ebp
  000f4	5e		 pop	 esi
  000f5	e8 00 00 00 00	 call	 @__security_check_cookie@4
  000fa	c9		 leave
  000fb	c2 04 00	 ret	 4
?ProcessTraceDelayMove@ioTargetTrace10Dummy@@IAEXM@Z ENDP ; ioTargetTrace10Dummy::ProcessTraceDelayMove
_TEXT	ENDS
PUBLIC	_fTimePerSec$GSCopy$
PUBLIC	__$ArrayPad$
PUBLIC	?ProcessTraceTargetMove@ioTargetTrace10Dummy@@IAEXPAVioBaseChar@@M@Z ; ioTargetTrace10Dummy::ProcessTraceTargetMove
EXTRN	?ConvertDirToQuaternion@Help@@YA?AUD3DXQUATERNION@@ABUD3DXVECTOR3@@@Z:PROC ; Help::ConvertDirToQuaternion
; Function compile flags: /Ogsp
;	COMDAT ?ProcessTraceTargetMove@ioTargetTrace10Dummy@@IAEXPAVioBaseChar@@M@Z
_TEXT	SEGMENT
_pTarget$ = -84						; size = 4
_fTimePerSec$GSCopy$ = -80				; size = 4
_qtTargetRot$ = -76					; size = 16
tv416 = -60						; size = 4
tv412 = -60						; size = 4
$T553937 = -60						; size = 4
tv434 = -56						; size = 4
tv430 = -56						; size = 4
tv426 = -56						; size = 4
tv420 = -56						; size = 4
$T548344 = -52						; size = 12
$T548341 = -52						; size = 12
$T548340 = -40						; size = 12
$T548339 = -28						; size = 12
$T548335 = -28						; size = 12
_vMoveDir$ = -16					; size = 12
__$ArrayPad$ = -4					; size = 4
_pOwner$ = 8						; size = 4
_fTimePerSec$ = 12					; size = 4
?ProcessTraceTargetMove@ioTargetTrace10Dummy@@IAEXPAVioBaseChar@@M@Z PROC ; ioTargetTrace10Dummy::ProcessTraceTargetMove, COMDAT
; _this$ = ecx

; 400  : {

  00000	55		 push	 ebp
  00001	8b ec		 mov	 ebp, esp
  00003	83 ec 54	 sub	 esp, 84			; 00000054H
  00006	a1 00 00 00 00	 mov	 eax, DWORD PTR ___security_cookie
  0000b	33 c5		 xor	 eax, ebp
  0000d	89 45 fc	 mov	 DWORD PTR __$ArrayPad$[ebp], eax
  00010	f3 0f 10 45 0c	 movss	 xmm0, DWORD PTR _fTimePerSec$[ebp]
  00015	53		 push	 ebx
  00016	56		 push	 esi
  00017	8b 75 08	 mov	 esi, DWORD PTR _pOwner$[ebp]
  0001a	8b d9		 mov	 ebx, ecx
  0001c	f3 0f 11 45 b0	 movss	 DWORD PTR _fTimePerSec$GSCopy$[ebp], xmm0

; 401  : 	if ( !pOwner )

  00021	85 f6		 test	 esi, esi
  00023	0f 84 d3 01 00
	00		 je	 $LN3@ProcessTra

; 402  : 		return;
; 403  : 
; 404  : 	D3DXVECTOR3 vMoveDir = GetWorldOrientation() * D3DXVECTOR3( 0.0f, 0.0f, -1.0f );

  00029	0f 57 c0	 xorps	 xmm0, xmm0
  0002c	8d 45 e4	 lea	 eax, DWORD PTR $T548335[ebp]
  0002f	f3 0f 11 45 e4	 movss	 DWORD PTR $T548335[ebp], xmm0
  00034	f3 0f 11 45 e8	 movss	 DWORD PTR $T548335[ebp+4], xmm0
  00039	f3 0f 10 05 00
	00 00 00	 movss	 xmm0, DWORD PTR __real@bf800000
  00041	50		 push	 eax
  00042	8b 03		 mov	 eax, DWORD PTR [ebx]
  00044	f3 0f 11 45 ec	 movss	 DWORD PTR $T548335[ebp+8], xmm0
  00049	ff 50 74	 call	 DWORD PTR [eax+116]
  0004c	50		 push	 eax
  0004d	8d 45 f0	 lea	 eax, DWORD PTR _vMoveDir$[ebp]
  00050	50		 push	 eax
  00051	ff 15 00 00 00
	00		 call	 DWORD PTR __imp_??D@YA?AUD3DXVECTOR3@@ABUD3DXQUATERNION@@ABU0@@Z
  00057	83 c4 0c	 add	 esp, 12			; 0000000cH

; 405  : 	ioBaseChar *pTarget = pOwner->GetBaseChar( m_szTraceTarget );

  0005a	8d 83 84 14 00
	00		 lea	 eax, DWORD PTR [ebx+5252]
  00060	50		 push	 eax
  00061	8b ce		 mov	 ecx, esi
  00063	e8 00 00 00 00	 call	 ?GetBaseChar@ioBaseChar@@QAEPAV1@ABVioHashString@@@Z ; ioBaseChar::GetBaseChar
  00068	89 45 ac	 mov	 DWORD PTR _pTarget$[ebp], eax

; 406  : 	if ( pTarget )

  0006b	85 c0		 test	 eax, eax
  0006d	0f 84 ee 00 00
	00		 je	 $LN1@ProcessTra

; 407  : 		vMoveDir = pTarget->GetMidPositionByRate() - GetMidPositionByRate();

  00073	57		 push	 edi
  00074	b8 05 00 00 00	 mov	 eax, 5
  00079	8b c8		 mov	 ecx, eax
  0007b	b8 0a 00 00 00	 mov	 eax, 10			; 0000000aH
  00080	8b d0		 mov	 edx, eax
  00082	b8 05 00 00 00	 mov	 eax, 5
  00087	8b f8		 mov	 edi, eax
  00089	b8 0a 00 00 00	 mov	 eax, 10			; 0000000aH
  0008e	89 4d c8	 mov	 DWORD PTR tv434[ebp], ecx
  00091	db 45 c8	 fild	 DWORD PTR tv434[ebp]
  00094	89 45 c4	 mov	 DWORD PTR $T553937[ebp], eax
  00097	85 c9		 test	 ecx, ecx
  00099	79 06		 jns	 SHORT $LN23@ProcessTra
  0009b	d8 05 00 00 00
	00		 fadd	 DWORD PTR __real@4f800000
$LN23@ProcessTra:
  000a1	89 55 c8	 mov	 DWORD PTR tv430[ebp], edx
  000a4	db 45 c8	 fild	 DWORD PTR tv430[ebp]
  000a7	85 d2		 test	 edx, edx
  000a9	79 06		 jns	 SHORT $LN24@ProcessTra
  000ab	d8 05 00 00 00
	00		 fadd	 DWORD PTR __real@4f800000
$LN24@ProcessTra:
  000b1	de f9		 fdivp	 ST(1), ST(0)
  000b3	51		 push	 ecx
  000b4	8d 45 d8	 lea	 eax, DWORD PTR $T548340[ebp]
  000b7	8b cb		 mov	 ecx, ebx
  000b9	d9 5d c8	 fstp	 DWORD PTR tv426[ebp]
  000bc	d9 45 c8	 fld	 DWORD PTR tv426[ebp]
  000bf	d9 1c 24	 fstp	 DWORD PTR [esp]
  000c2	50		 push	 eax
  000c3	e8 00 00 00 00	 call	 ?GetMidPositionByRate@ioGameEntity@@QBE?AUD3DXVECTOR3@@M@Z ; ioGameEntity::GetMidPositionByRate
  000c8	89 7d c8	 mov	 DWORD PTR tv420[ebp], edi
  000cb	db 45 c8	 fild	 DWORD PTR tv420[ebp]
  000ce	8b f0		 mov	 esi, eax
  000d0	85 ff		 test	 edi, edi
  000d2	79 06		 jns	 SHORT $LN25@ProcessTra
  000d4	d8 05 00 00 00
	00		 fadd	 DWORD PTR __real@4f800000
$LN25@ProcessTra:
  000da	8b 45 c4	 mov	 eax, DWORD PTR $T553937[ebp]
  000dd	db 45 c4	 fild	 DWORD PTR $T553937[ebp]
  000e0	85 c0		 test	 eax, eax
  000e2	79 06		 jns	 SHORT $LN26@ProcessTra
  000e4	d8 05 00 00 00
	00		 fadd	 DWORD PTR __real@4f800000
$LN26@ProcessTra:
  000ea	de f9		 fdivp	 ST(1), ST(0)
  000ec	51		 push	 ecx
  000ed	8b 4d ac	 mov	 ecx, DWORD PTR _pTarget$[ebp]
  000f0	8d 45 e4	 lea	 eax, DWORD PTR $T548339[ebp]
  000f3	d9 5d c4	 fstp	 DWORD PTR tv412[ebp]
  000f6	d9 45 c4	 fld	 DWORD PTR tv412[ebp]
  000f9	d9 1c 24	 fstp	 DWORD PTR [esp]
  000fc	50		 push	 eax
  000fd	e8 00 00 00 00	 call	 ?GetMidPositionByRate@ioGameEntity@@QBE?AUD3DXVECTOR3@@M@Z ; ioGameEntity::GetMidPositionByRate
  00102	f3 0f 10 0e	 movss	 xmm1, DWORD PTR [esi]
  00106	f3 0f 10 00	 movss	 xmm0, DWORD PTR [eax]
  0010a	0f 5a c0	 cvtps2pd xmm0, xmm0
  0010d	0f 5a c9	 cvtps2pd xmm1, xmm1
  00110	f2 0f 5c c1	 subsd	 xmm0, xmm1
  00114	f3 0f 10 4e 04	 movss	 xmm1, DWORD PTR [esi+4]
  00119	66 0f 5a c0	 cvtpd2ps xmm0, xmm0
  0011d	f3 0f 11 45 cc	 movss	 DWORD PTR $T548341[ebp], xmm0
  00122	f3 0f 10 40 04	 movss	 xmm0, DWORD PTR [eax+4]
  00127	0f 5a c0	 cvtps2pd xmm0, xmm0
  0012a	0f 5a c9	 cvtps2pd xmm1, xmm1
  0012d	f2 0f 5c c1	 subsd	 xmm0, xmm1
  00131	f3 0f 10 4e 08	 movss	 xmm1, DWORD PTR [esi+8]
  00136	66 0f 5a c0	 cvtpd2ps xmm0, xmm0
  0013a	f3 0f 11 45 d0	 movss	 DWORD PTR $T548341[ebp+4], xmm0
  0013f	f3 0f 10 40 08	 movss	 xmm0, DWORD PTR [eax+8]
  00144	0f 5a c0	 cvtps2pd xmm0, xmm0
  00147	0f 5a c9	 cvtps2pd xmm1, xmm1
  0014a	f2 0f 5c c1	 subsd	 xmm0, xmm1
  0014e	66 0f 5a c0	 cvtpd2ps xmm0, xmm0
  00152	f3 0f 11 45 d4	 movss	 DWORD PTR $T548341[ebp+8], xmm0
  00157	8d 75 cc	 lea	 esi, DWORD PTR $T548341[ebp]
  0015a	8d 7d f0	 lea	 edi, DWORD PTR _vMoveDir$[ebp]
  0015d	a5		 movsd
  0015e	a5		 movsd
  0015f	a5		 movsd
  00160	5f		 pop	 edi
$LN1@ProcessTra:

; 408  : 	D3DXVec3Normalize( &vMoveDir, &vMoveDir );

  00161	8d 45 f0	 lea	 eax, DWORD PTR _vMoveDir$[ebp]
  00164	50		 push	 eax
  00165	50		 push	 eax
  00166	e8 00 00 00 00	 call	 _D3DXVec3Normalize@8

; 409  : 
; 410  : 	D3DXQUATERNION qtTargetRot = Help::ConvertDirToQuaternion( vMoveDir );

  0016b	8d 45 f0	 lea	 eax, DWORD PTR _vMoveDir$[ebp]
  0016e	50		 push	 eax
  0016f	8d 45 b4	 lea	 eax, DWORD PTR _qtTargetRot$[ebp]
  00172	50		 push	 eax
  00173	e8 00 00 00 00	 call	 ?ConvertDirToQuaternion@Help@@YA?AUD3DXQUATERNION@@ABUD3DXVECTOR3@@@Z ; Help::ConvertDirToQuaternion
  00178	59		 pop	 ecx
  00179	59		 pop	 ecx

; 411  : 	SetWorldOrientationAndDir( qtTargetRot );

  0017a	8d 45 b4	 lea	 eax, DWORD PTR _qtTargetRot$[ebp]
  0017d	50		 push	 eax
  0017e	8b cb		 mov	 ecx, ebx
  00180	e8 00 00 00 00	 call	 ?SetWorldOrientationAndDir@ioDummyChar@@QAEXABUD3DXQUATERNION@@@Z ; ioDummyChar::SetWorldOrientationAndDir

; 412  : 
; 413  : 	Translate( vMoveDir * ( m_fTraceTargetMoveSpeed * fTimePerSec ) );

  00185	f3 0f 10 83 c8
	14 00 00	 movss	 xmm0, DWORD PTR [ebx+5320]
  0018d	f3 0f 10 4d b0	 movss	 xmm1, DWORD PTR _fTimePerSec$GSCopy$[ebp]
  00192	8b 03		 mov	 eax, DWORD PTR [ebx]
  00194	0f 5a c9	 cvtps2pd xmm1, xmm1
  00197	0f 5a c0	 cvtps2pd xmm0, xmm0
  0019a	f2 0f 59 c1	 mulsd	 xmm0, xmm1
  0019e	f3 0f 10 4d f0	 movss	 xmm1, DWORD PTR _vMoveDir$[ebp]
  001a3	0f 5a c9	 cvtps2pd xmm1, xmm1
  001a6	66 0f 5a c0	 cvtpd2ps xmm0, xmm0
  001aa	0f 57 d2	 xorps	 xmm2, xmm2
  001ad	f3 0f 5a d0	 cvtss2sd xmm2, xmm0
  001b1	f2 0f 59 ca	 mulsd	 xmm1, xmm2
  001b5	66 0f 5a c9	 cvtpd2ps xmm1, xmm1
  001b9	f3 0f 11 4d cc	 movss	 DWORD PTR $T548344[ebp], xmm1
  001be	f3 0f 10 4d f4	 movss	 xmm1, DWORD PTR _vMoveDir$[ebp+4]
  001c3	0f 5a c9	 cvtps2pd xmm1, xmm1
  001c6	0f 57 d2	 xorps	 xmm2, xmm2
  001c9	f3 0f 5a d0	 cvtss2sd xmm2, xmm0
  001cd	f2 0f 59 ca	 mulsd	 xmm1, xmm2
  001d1	66 0f 5a c9	 cvtpd2ps xmm1, xmm1
  001d5	f3 0f 5a c0	 cvtss2sd xmm0, xmm0
  001d9	f3 0f 11 4d d0	 movss	 DWORD PTR $T548344[ebp+4], xmm1
  001de	f3 0f 10 4d f8	 movss	 xmm1, DWORD PTR _vMoveDir$[ebp+8]
  001e3	8d 4d cc	 lea	 ecx, DWORD PTR $T548344[ebp]
  001e6	0f 5a c9	 cvtps2pd xmm1, xmm1
  001e9	f2 0f 59 c8	 mulsd	 xmm1, xmm0
  001ed	51		 push	 ecx
  001ee	66 0f 5a c1	 cvtpd2ps xmm0, xmm1
  001f2	8b cb		 mov	 ecx, ebx
  001f4	f3 0f 11 45 d4	 movss	 DWORD PTR $T548344[ebp+8], xmm0
  001f9	ff 50 50	 call	 DWORD PTR [eax+80]
$LN3@ProcessTra:

; 414  : }

  001fc	8b 4d fc	 mov	 ecx, DWORD PTR __$ArrayPad$[ebp]
  001ff	5e		 pop	 esi
  00200	33 cd		 xor	 ecx, ebp
  00202	5b		 pop	 ebx
  00203	e8 00 00 00 00	 call	 @__security_check_cookie@4
  00208	c9		 leave
  00209	c2 08 00	 ret	 8
?ProcessTraceTargetMove@ioTargetTrace10Dummy@@IAEXPAVioBaseChar@@M@Z ENDP ; ioTargetTrace10Dummy::ProcessTraceTargetMove
_TEXT	ENDS
PUBLIC	__$ArrayPad$
PUBLIC	?CheckTargetAttackState@ioTargetTrace10Dummy@@IAE_NPAVioBaseChar@@@Z ; ioTargetTrace10Dummy::CheckTargetAttackState
; Function compile flags: /Ogsp
;	COMDAT ?CheckTargetAttackState@ioTargetTrace10Dummy@@IAE_NPAVioBaseChar@@@Z
_TEXT	SEGMENT
_pTarget$ = -40						; size = 4
tv364 = -36						; size = 4
tv360 = -36						; size = 4
tv356 = -36						; size = 4
tv350 = -36						; size = 4
tv346 = -32						; size = 4
tv342 = -32						; size = 4
$T553988 = -32						; size = 4
$T548393 = -28						; size = 12
$T548394 = -16						; size = 12
__$ArrayPad$ = -4					; size = 4
_pOwner$ = 8						; size = 4
?CheckTargetAttackState@ioTargetTrace10Dummy@@IAE_NPAVioBaseChar@@@Z PROC ; ioTargetTrace10Dummy::CheckTargetAttackState, COMDAT
; _this$ = ecx

; 505  : {

  00000	55		 push	 ebp
  00001	8b ec		 mov	 ebp, esp
  00003	83 ec 28	 sub	 esp, 40			; 00000028H
  00006	a1 00 00 00 00	 mov	 eax, DWORD PTR ___security_cookie
  0000b	33 c5		 xor	 eax, ebp
  0000d	89 45 fc	 mov	 DWORD PTR __$ArrayPad$[ebp], eax
  00010	56		 push	 esi
  00011	8b 75 08	 mov	 esi, DWORD PTR _pOwner$[ebp]
  00014	57		 push	 edi
  00015	8b f9		 mov	 edi, ecx

; 506  : 	if ( !pOwner || !pOwner->IsNeedProcess() )

  00017	85 f6		 test	 esi, esi
  00019	0f 84 46 01 00
	00		 je	 $LN3@CheckTarge@2
  0001f	8b 06		 mov	 eax, DWORD PTR [esi]
  00021	8b ce		 mov	 ecx, esi
  00023	ff 90 00 01 00
	00		 call	 DWORD PTR [eax+256]
  00029	84 c0		 test	 al, al
  0002b	0f 84 34 01 00
	00		 je	 $LN3@CheckTarge@2

; 508  : 
; 509  : 	ioBaseChar *pTarget = pOwner->GetBaseChar( m_szTraceTarget );

  00031	8d 87 84 14 00
	00		 lea	 eax, DWORD PTR [edi+5252]
  00037	50		 push	 eax
  00038	8b ce		 mov	 ecx, esi
  0003a	e8 00 00 00 00	 call	 ?GetBaseChar@ioBaseChar@@QAEPAV1@ABVioHashString@@@Z ; ioBaseChar::GetBaseChar
  0003f	89 45 d8	 mov	 DWORD PTR _pTarget$[ebp], eax

; 510  : 	if ( pTarget )

  00042	85 c0		 test	 eax, eax
  00044	0f 84 1b 01 00
	00		 je	 $LN3@CheckTarge@2

; 511  : 	{
; 512  : 		D3DXVECTOR3 vDiff = pTarget->GetMidPositionByRate() - GetMidPositionByRate();

  0004a	53		 push	 ebx
  0004b	b8 05 00 00 00	 mov	 eax, 5
  00050	8b c8		 mov	 ecx, eax
  00052	b8 0a 00 00 00	 mov	 eax, 10			; 0000000aH
  00057	8b d0		 mov	 edx, eax
  00059	b8 05 00 00 00	 mov	 eax, 5
  0005e	8b d8		 mov	 ebx, eax
  00060	b8 0a 00 00 00	 mov	 eax, 10			; 0000000aH
  00065	89 4d dc	 mov	 DWORD PTR tv364[ebp], ecx
  00068	db 45 dc	 fild	 DWORD PTR tv364[ebp]
  0006b	89 45 e0	 mov	 DWORD PTR $T553988[ebp], eax
  0006e	85 c9		 test	 ecx, ecx
  00070	79 06		 jns	 SHORT $LN21@CheckTarge@2
  00072	d8 05 00 00 00
	00		 fadd	 DWORD PTR __real@4f800000
$LN21@CheckTarge@2:
  00078	89 55 dc	 mov	 DWORD PTR tv360[ebp], edx
  0007b	db 45 dc	 fild	 DWORD PTR tv360[ebp]
  0007e	85 d2		 test	 edx, edx
  00080	79 06		 jns	 SHORT $LN22@CheckTarge@2
  00082	d8 05 00 00 00
	00		 fadd	 DWORD PTR __real@4f800000
$LN22@CheckTarge@2:
  00088	de f9		 fdivp	 ST(1), ST(0)
  0008a	51		 push	 ecx
  0008b	8d 45 f0	 lea	 eax, DWORD PTR $T548394[ebp]
  0008e	8b cf		 mov	 ecx, edi
  00090	d9 5d dc	 fstp	 DWORD PTR tv356[ebp]
  00093	d9 45 dc	 fld	 DWORD PTR tv356[ebp]
  00096	d9 1c 24	 fstp	 DWORD PTR [esp]
  00099	50		 push	 eax
  0009a	e8 00 00 00 00	 call	 ?GetMidPositionByRate@ioGameEntity@@QBE?AUD3DXVECTOR3@@M@Z ; ioGameEntity::GetMidPositionByRate
  0009f	89 5d dc	 mov	 DWORD PTR tv350[ebp], ebx
  000a2	db 45 dc	 fild	 DWORD PTR tv350[ebp]
  000a5	8b f0		 mov	 esi, eax
  000a7	85 db		 test	 ebx, ebx
  000a9	79 06		 jns	 SHORT $LN23@CheckTarge@2
  000ab	d8 05 00 00 00
	00		 fadd	 DWORD PTR __real@4f800000
$LN23@CheckTarge@2:
  000b1	8b 45 e0	 mov	 eax, DWORD PTR $T553988[ebp]
  000b4	db 45 e0	 fild	 DWORD PTR $T553988[ebp]
  000b7	85 c0		 test	 eax, eax
  000b9	79 06		 jns	 SHORT $LN24@CheckTarge@2
  000bb	d8 05 00 00 00
	00		 fadd	 DWORD PTR __real@4f800000
$LN24@CheckTarge@2:
  000c1	de f9		 fdivp	 ST(1), ST(0)
  000c3	51		 push	 ecx
  000c4	8b 4d d8	 mov	 ecx, DWORD PTR _pTarget$[ebp]
  000c7	8d 45 e4	 lea	 eax, DWORD PTR $T548393[ebp]
  000ca	d9 5d e0	 fstp	 DWORD PTR tv342[ebp]
  000cd	d9 45 e0	 fld	 DWORD PTR tv342[ebp]
  000d0	d9 1c 24	 fstp	 DWORD PTR [esp]
  000d3	50		 push	 eax
  000d4	e8 00 00 00 00	 call	 ?GetMidPositionByRate@ioGameEntity@@QBE?AUD3DXVECTOR3@@M@Z ; ioGameEntity::GetMidPositionByRate
  000d9	f3 0f 10 00	 movss	 xmm0, DWORD PTR [eax]
  000dd	f3 0f 10 0e	 movss	 xmm1, DWORD PTR [esi]
  000e1	f3 0f 10 56 04	 movss	 xmm2, DWORD PTR [esi+4]
  000e6	f3 0f 10 5e 08	 movss	 xmm3, DWORD PTR [esi+8]
  000eb	0f 5a c0	 cvtps2pd xmm0, xmm0
  000ee	0f 5a c9	 cvtps2pd xmm1, xmm1
  000f1	f2 0f 5c c1	 subsd	 xmm0, xmm1
  000f5	0f 57 c9	 xorps	 xmm1, xmm1
  000f8	66 0f 5a c8	 cvtpd2ps xmm1, xmm0
  000fc	f3 0f 10 40 04	 movss	 xmm0, DWORD PTR [eax+4]
  00101	0f 5a c0	 cvtps2pd xmm0, xmm0
  00104	0f 5a d2	 cvtps2pd xmm2, xmm2
  00107	f2 0f 5c c2	 subsd	 xmm0, xmm2
  0010b	f3 0f 10 50 08	 movss	 xmm2, DWORD PTR [eax+8]
  00110	66 0f 5a c0	 cvtpd2ps xmm0, xmm0
  00114	0f 5a d2	 cvtps2pd xmm2, xmm2
  00117	0f 5a db	 cvtps2pd xmm3, xmm3
  0011a	f2 0f 5c d3	 subsd	 xmm2, xmm3

; 513  : 		if ( D3DXVec3LengthSq( &vDiff ) <= ( m_fTargetArriveDist * m_fTargetArriveDist ) )

  0011e	f3 0f 10 9f e0
	14 00 00	 movss	 xmm3, DWORD PTR [edi+5344]
  00126	f3 0f 5a c0	 cvtss2sd xmm0, xmm0
  0012a	0f 5a c9	 cvtps2pd xmm1, xmm1
  0012d	f2 0f 59 c0	 mulsd	 xmm0, xmm0
  00131	66 0f 5a d2	 cvtpd2ps xmm2, xmm2
  00135	f2 0f 59 c9	 mulsd	 xmm1, xmm1
  00139	f2 0f 58 c8	 addsd	 xmm1, xmm0
  0013d	f3 0f 5a d2	 cvtss2sd xmm2, xmm2
  00141	f2 0f 59 d2	 mulsd	 xmm2, xmm2
  00145	0f 57 c0	 xorps	 xmm0, xmm0
  00148	f2 0f 58 ca	 addsd	 xmm1, xmm2
  0014c	0f 5a db	 cvtps2pd xmm3, xmm3
  0014f	66 0f 5a c1	 cvtpd2ps xmm0, xmm1
  00153	0f 5a c0	 cvtps2pd xmm0, xmm0
  00156	f2 0f 59 db	 mulsd	 xmm3, xmm3
  0015a	66 0f 2f d8	 comisd	 xmm3, xmm0
  0015e	5b		 pop	 ebx
  0015f	72 04		 jb	 SHORT $LN3@CheckTarge@2

; 514  : 			return true;

  00161	b0 01		 mov	 al, 1
  00163	eb 02		 jmp	 SHORT $LN5@CheckTarge@2
$LN3@CheckTarge@2:

; 507  : 		return false;

  00165	32 c0		 xor	 al, al
$LN5@CheckTarge@2:

; 515  : 	}
; 516  : 
; 517  : 	return false;
; 518  : }

  00167	8b 4d fc	 mov	 ecx, DWORD PTR __$ArrayPad$[ebp]
  0016a	5f		 pop	 edi
  0016b	33 cd		 xor	 ecx, ebp
  0016d	5e		 pop	 esi
  0016e	e8 00 00 00 00	 call	 @__security_check_cookie@4
  00173	c9		 leave
  00174	c2 04 00	 ret	 4
?CheckTargetAttackState@ioTargetTrace10Dummy@@IAE_NPAVioBaseChar@@@Z ENDP ; ioTargetTrace10Dummy::CheckTargetAttackState
_TEXT	ENDS
PUBLIC	?SetRandomRotate@ioTargetTrace10Dummy@@IAEXPAVioBaseChar@@@Z ; ioTargetTrace10Dummy::SetRandomRotate
EXTRN	??1IORandom@@UAE@XZ:PROC			; IORandom::~IORandom
EXTRN	__imp_?CalcDirectionQuaternion@ioMath@@SAXAAUD3DXQUATERNION@@ABUD3DXVECTOR3@@@Z:PROC
EXTRN	_D3DXQuaternionRotationAxis@12:PROC
EXTRN	__imp_?UNIT_Y@ioMath@@2UD3DXVECTOR3@@A:BYTE
EXTRN	?Random@IORandom@@QAEII@Z:PROC			; IORandom::Random
EXTRN	?SetRandomSeed@IORandom@@QAEXI@Z:PROC		; IORandom::SetRandomSeed
EXTRN	??0IORandom@@QAE@XZ:PROC			; IORandom::IORandom
EXTRN	__imp__timeGetTime@0:PROC
;	COMDAT xdata$x
; File c:\program files (x86)\microsoft directx sdk (june 2010)\include\d3dx9math.inl
xdata$x	SEGMENT
__unwindtable$?SetRandomRotate@ioTargetTrace10Dummy@@IAEXPAVioBaseChar@@@Z DD 0ffffffffH
	DD	FLAT:__unwindfunclet$?SetRandomRotate@ioTargetTrace10Dummy@@IAEXPAVioBaseChar@@@Z$0
__ehfuncinfo$?SetRandomRotate@ioTargetTrace10Dummy@@IAEXPAVioBaseChar@@@Z DD 019930522H
	DD	01H
	DD	FLAT:__unwindtable$?SetRandomRotate@ioTargetTrace10Dummy@@IAEXPAVioBaseChar@@@Z
	DD	2 DUP(00H)
	DD	2 DUP(00H)
	DD	00H
	DD	01H
; Function compile flags: /Ogsp
; File d:\lost saga for developer\youtube\tutorial\source\src\lsclient\iotargettrace10dummy.cpp
xdata$x	ENDS
;	COMDAT ?SetRandomRotate@ioTargetTrace10Dummy@@IAEXPAVioBaseChar@@@Z
_TEXT	SEGMENT
_qtTargetRot$ = -2596					; size = 16
_qtRandomRot$ = -2580					; size = 16
tv249 = -2564						; size = 4
_fRange$ = -2564					; size = 4
_random$ = -2560					; size = 2508
_vYAxis$ = -52						; size = 12
_vMoveDir$ = -40					; size = 12
$T549048 = -28						; size = 12
$T549046 = -28						; size = 12
$T549044 = -28						; size = 12
__$EHRec$ = -12						; size = 12
_pOwner$ = 8						; size = 4
?SetRandomRotate@ioTargetTrace10Dummy@@IAEXPAVioBaseChar@@@Z PROC ; ioTargetTrace10Dummy::SetRandomRotate, COMDAT
; _this$ = ecx

; 582  : {

  00000	68 18 0a 00 00	 push	 2584			; 00000a18H
  00005	b8 00 00 00 00	 mov	 eax, __ehhandler$?SetRandomRotate@ioTargetTrace10Dummy@@IAEXPAVioBaseChar@@@Z
  0000a	e8 00 00 00 00	 call	 __EH_prolog3_GS

; 583  : 	if ( !pOwner )

  0000f	83 7d 08 00	 cmp	 DWORD PTR _pOwner$[ebp], 0
  00013	8b d9		 mov	 ebx, ecx
  00015	0f 84 38 01 00
	00		 je	 $LN2@SetRandomR

; 584  : 		return;
; 585  : 
; 586  : 	DWORD dwSeed = timeGetTime();

  0001b	ff 15 00 00 00
	00		 call	 DWORD PTR __imp__timeGetTime@0

; 587  : 	IORandom random;

  00021	8d 8d 00 f6 ff
	ff		 lea	 ecx, DWORD PTR _random$[ebp]
  00027	8b f0		 mov	 esi, eax
  00029	e8 00 00 00 00	 call	 ??0IORandom@@QAE@XZ	; IORandom::IORandom
  0002e	83 65 fc 00	 and	 DWORD PTR __$EHRec$[ebp+8], 0

; 588  : 	random.SetRandomSeed( dwSeed );

  00032	56		 push	 esi
  00033	8d 8d 00 f6 ff
	ff		 lea	 ecx, DWORD PTR _random$[ebp]
  00039	e8 00 00 00 00	 call	 ?SetRandomSeed@IORandom@@QAEXI@Z ; IORandom::SetRandomSeed

; 589  : 
; 590  : 	float fRange = (float)random.Random(360);

  0003e	68 68 01 00 00	 push	 360			; 00000168H
  00043	8d 8d 00 f6 ff
	ff		 lea	 ecx, DWORD PTR _random$[ebp]
  00049	e8 00 00 00 00	 call	 ?Random@IORandom@@QAEII@Z ; IORandom::Random
  0004e	89 85 fc f5 ff
	ff		 mov	 DWORD PTR tv249[ebp], eax
  00054	db 85 fc f5 ff
	ff		 fild	 DWORD PTR tv249[ebp]
  0005a	85 c0		 test	 eax, eax
  0005c	79 06		 jns	 SHORT $LN16@SetRandomR
  0005e	d8 05 00 00 00
	00		 fadd	 DWORD PTR __real@4f800000
$LN16@SetRandomR:

; 591  : 	D3DXVECTOR3 vYAxis = ioMath::UNIT_Y;

  00064	8b 35 00 00 00
	00		 mov	 esi, DWORD PTR __imp_?UNIT_Y@ioMath@@2UD3DXVECTOR3@@A
  0006a	d9 9d fc f5 ff
	ff		 fstp	 DWORD PTR _fRange$[ebp]

; 592  : 	D3DXQUATERNION qtRandomRot;
; 593  : 	D3DXQuaternionRotationAxis( &qtRandomRot, &vYAxis, fRange );

  00070	f3 0f 10 85 fc
	f5 ff ff	 movss	 xmm0, DWORD PTR _fRange$[ebp]
  00078	8d 7d cc	 lea	 edi, DWORD PTR _vYAxis$[ebp]
  0007b	a5		 movsd
  0007c	51		 push	 ecx
  0007d	f3 0f 11 04 24	 movss	 DWORD PTR [esp], xmm0
  00082	8d 45 cc	 lea	 eax, DWORD PTR _vYAxis$[ebp]
  00085	a5		 movsd
  00086	50		 push	 eax
  00087	8d 85 ec f5 ff
	ff		 lea	 eax, DWORD PTR _qtRandomRot$[ebp]
  0008d	50		 push	 eax
  0008e	a5		 movsd
  0008f	e8 00 00 00 00	 call	 _D3DXQuaternionRotationAxis@12

; 594  : 
; 595  : 	D3DXVECTOR3 vMoveDir = GetWorldOrientation() * D3DXVECTOR3( 0.0f, 0.0f, -1.0f );

  00094	0f 57 c0	 xorps	 xmm0, xmm0
  00097	8d 45 e4	 lea	 eax, DWORD PTR $T549044[ebp]
  0009a	f3 0f 11 45 e4	 movss	 DWORD PTR $T549044[ebp], xmm0
  0009f	f3 0f 11 45 e8	 movss	 DWORD PTR $T549044[ebp+4], xmm0
  000a4	f3 0f 10 05 00
	00 00 00	 movss	 xmm0, DWORD PTR __real@bf800000
  000ac	50		 push	 eax
  000ad	8b 03		 mov	 eax, DWORD PTR [ebx]
  000af	8b cb		 mov	 ecx, ebx
  000b1	f3 0f 11 45 ec	 movss	 DWORD PTR $T549044[ebp+8], xmm0
  000b6	ff 50 74	 call	 DWORD PTR [eax+116]
  000b9	8b 35 00 00 00
	00		 mov	 esi, DWORD PTR __imp_??D@YA?AUD3DXVECTOR3@@ABUD3DXQUATERNION@@ABU0@@Z
  000bf	50		 push	 eax
  000c0	8d 45 d8	 lea	 eax, DWORD PTR _vMoveDir$[ebp]
  000c3	50		 push	 eax
  000c4	ff d6		 call	 esi

; 596  : 	vMoveDir = qtRandomRot * vMoveDir;

  000c6	8d 45 d8	 lea	 eax, DWORD PTR _vMoveDir$[ebp]
  000c9	50		 push	 eax
  000ca	8d 85 ec f5 ff
	ff		 lea	 eax, DWORD PTR _qtRandomRot$[ebp]
  000d0	50		 push	 eax
  000d1	8d 45 e4	 lea	 eax, DWORD PTR $T549046[ebp]
  000d4	50		 push	 eax
  000d5	ff d6		 call	 esi

; 597  : 	vMoveDir.y = 0;

  000d7	0f 57 c0	 xorps	 xmm0, xmm0
  000da	8b f0		 mov	 esi, eax
  000dc	8d 7d d8	 lea	 edi, DWORD PTR _vMoveDir$[ebp]
  000df	a5		 movsd
  000e0	a5		 movsd
  000e1	83 c4 18	 add	 esp, 24			; 00000018H

; 598  : 	D3DXVec3Normalize( &vMoveDir, &vMoveDir );

  000e4	8d 45 d8	 lea	 eax, DWORD PTR _vMoveDir$[ebp]
  000e7	50		 push	 eax
  000e8	a5		 movsd
  000e9	50		 push	 eax
  000ea	f3 0f 11 45 dc	 movss	 DWORD PTR _vMoveDir$[ebp+4], xmm0
  000ef	e8 00 00 00 00	 call	 _D3DXVec3Normalize@8

; 599  : 
; 600  : 	D3DXQUATERNION qtTargetRot;
; 601  : 	ioMath::CalcDirectionQuaternion( qtTargetRot, -vMoveDir );

  000f4	f3 0f 10 05 00
	00 00 00	 movss	 xmm0, DWORD PTR __mask@@NegFloat@
  000fc	f3 0f 10 4d d8	 movss	 xmm1, DWORD PTR _vMoveDir$[ebp]
  00101	f3 0f 10 55 dc	 movss	 xmm2, DWORD PTR _vMoveDir$[ebp+4]
  00106	f3 0f 10 5d e0	 movss	 xmm3, DWORD PTR _vMoveDir$[ebp+8]
  0010b	8d 45 e4	 lea	 eax, DWORD PTR $T549048[ebp]
  0010e	50		 push	 eax
  0010f	8d 85 dc f5 ff
	ff		 lea	 eax, DWORD PTR _qtTargetRot$[ebp]
  00115	0f 57 c8	 xorps	 xmm1, xmm0
  00118	0f 57 d0	 xorps	 xmm2, xmm0
  0011b	0f 57 d8	 xorps	 xmm3, xmm0
  0011e	50		 push	 eax
  0011f	f3 0f 11 4d e4	 movss	 DWORD PTR $T549048[ebp], xmm1
  00124	f3 0f 11 55 e8	 movss	 DWORD PTR $T549048[ebp+4], xmm2
  00129	f3 0f 11 5d ec	 movss	 DWORD PTR $T549048[ebp+8], xmm3
  0012e	ff 15 00 00 00
	00		 call	 DWORD PTR __imp_?CalcDirectionQuaternion@ioMath@@SAXAAUD3DXQUATERNION@@ABUD3DXVECTOR3@@@Z
  00134	59		 pop	 ecx
  00135	59		 pop	 ecx

; 602  : 	SetWorldOrientationAndDir( qtTargetRot );

  00136	8d 85 dc f5 ff
	ff		 lea	 eax, DWORD PTR _qtTargetRot$[ebp]
  0013c	50		 push	 eax
  0013d	8b cb		 mov	 ecx, ebx
  0013f	e8 00 00 00 00	 call	 ?SetWorldOrientationAndDir@ioDummyChar@@QAEXABUD3DXQUATERNION@@@Z ; ioDummyChar::SetWorldOrientationAndDir

; 603  : }

  00144	83 4d fc ff	 or	 DWORD PTR __$EHRec$[ebp+8], -1
  00148	8d 8d 00 f6 ff
	ff		 lea	 ecx, DWORD PTR _random$[ebp]
  0014e	e8 00 00 00 00	 call	 ??1IORandom@@UAE@XZ	; IORandom::~IORandom
$LN2@SetRandomR:
  00153	e8 00 00 00 00	 call	 __EH_epilog3_GS
  00158	c2 04 00	 ret	 4
_TEXT	ENDS
;	COMDAT text$x
text$x	SEGMENT
__unwindfunclet$?SetRandomRotate@ioTargetTrace10Dummy@@IAEXPAVioBaseChar@@@Z$0:
  00000	8d 8d 00 f6 ff
	ff		 lea	 ecx, DWORD PTR _random$[ebp]
  00006	e9 00 00 00 00	 jmp	 ??1IORandom@@UAE@XZ	; IORandom::~IORandom
__ehhandler$?SetRandomRotate@ioTargetTrace10Dummy@@IAEXPAVioBaseChar@@@Z:
  0000b	8b 54 24 08	 mov	 edx, DWORD PTR [esp+8]
  0000f	8d 42 0c	 lea	 eax, DWORD PTR [edx+12]
  00012	8b 8a d8 f5 ff
	ff		 mov	 ecx, DWORD PTR [edx-2600]
  00018	33 c8		 xor	 ecx, eax
  0001a	e8 00 00 00 00	 call	 @__security_check_cookie@4
  0001f	8b 4a fc	 mov	 ecx, DWORD PTR [edx-4]
  00022	33 c8		 xor	 ecx, eax
  00024	e8 00 00 00 00	 call	 @__security_check_cookie@4
  00029	b8 00 00 00 00	 mov	 eax, OFFSET __ehfuncinfo$?SetRandomRotate@ioTargetTrace10Dummy@@IAEXPAVioBaseChar@@@Z
  0002e	e9 00 00 00 00	 jmp	 ___CxxFrameHandler3
text$x	ENDS
?SetRandomRotate@ioTargetTrace10Dummy@@IAEXPAVioBaseChar@@@Z ENDP ; ioTargetTrace10Dummy::SetRandomRotate
PUBLIC	__$ArrayPad$
PUBLIC	?SetTargetRotate@ioTargetTrace10Dummy@@IAEXPAVioBaseChar@@@Z ; ioTargetTrace10Dummy::SetTargetRotate
; Function compile flags: /Ogsp
;	COMDAT ?SetTargetRotate@ioTargetTrace10Dummy@@IAEXPAVioBaseChar@@@Z
_TEXT	SEGMENT
$T549061 = -80						; size = 12
_pTarget$ = -68						; size = 4
_qtTargetRot$ = -64					; size = 16
tv326 = -48						; size = 4
tv322 = -48						; size = 4
tv318 = -48						; size = 4
tv312 = -48						; size = 4
tv308 = -44						; size = 4
tv304 = -44						; size = 4
$T554064 = -44						; size = 4
$T549060 = -40						; size = 12
$T549059 = -28						; size = 12
$T549055 = -28						; size = 12
_vMoveDir$ = -16					; size = 12
__$ArrayPad$ = -4					; size = 4
_pOwner$ = 8						; size = 4
?SetTargetRotate@ioTargetTrace10Dummy@@IAEXPAVioBaseChar@@@Z PROC ; ioTargetTrace10Dummy::SetTargetRotate, COMDAT
; _this$ = ecx

; 606  : {

  00000	55		 push	 ebp
  00001	8b ec		 mov	 ebp, esp
  00003	83 ec 50	 sub	 esp, 80			; 00000050H
  00006	a1 00 00 00 00	 mov	 eax, DWORD PTR ___security_cookie
  0000b	33 c5		 xor	 eax, ebp
  0000d	89 45 fc	 mov	 DWORD PTR __$ArrayPad$[ebp], eax
  00010	53		 push	 ebx
  00011	56		 push	 esi
  00012	8b 75 08	 mov	 esi, DWORD PTR _pOwner$[ebp]
  00015	8b d9		 mov	 ebx, ecx

; 607  : 	if ( !pOwner )

  00017	85 f6		 test	 esi, esi
  00019	0f 84 5c 01 00
	00		 je	 $LN3@SetTargetR

; 608  : 		return;
; 609  : 
; 610  : 	D3DXVECTOR3 vMoveDir = GetWorldOrientation() * D3DXVECTOR3( 0.0f, 0.0f, -1.0f );

  0001f	0f 57 c0	 xorps	 xmm0, xmm0
  00022	8d 45 e4	 lea	 eax, DWORD PTR $T549055[ebp]
  00025	f3 0f 11 45 e4	 movss	 DWORD PTR $T549055[ebp], xmm0
  0002a	f3 0f 11 45 e8	 movss	 DWORD PTR $T549055[ebp+4], xmm0
  0002f	f3 0f 10 05 00
	00 00 00	 movss	 xmm0, DWORD PTR __real@bf800000
  00037	50		 push	 eax
  00038	8b 03		 mov	 eax, DWORD PTR [ebx]
  0003a	f3 0f 11 45 ec	 movss	 DWORD PTR $T549055[ebp+8], xmm0
  0003f	ff 50 74	 call	 DWORD PTR [eax+116]
  00042	50		 push	 eax
  00043	8d 45 f0	 lea	 eax, DWORD PTR _vMoveDir$[ebp]
  00046	50		 push	 eax
  00047	ff 15 00 00 00
	00		 call	 DWORD PTR __imp_??D@YA?AUD3DXVECTOR3@@ABUD3DXQUATERNION@@ABU0@@Z
  0004d	83 c4 0c	 add	 esp, 12			; 0000000cH

; 611  : 	ioBaseChar *pTarget = pOwner->GetBaseChar( m_szTraceTarget );

  00050	8d 83 84 14 00
	00		 lea	 eax, DWORD PTR [ebx+5252]
  00056	50		 push	 eax
  00057	8b ce		 mov	 ecx, esi
  00059	e8 00 00 00 00	 call	 ?GetBaseChar@ioBaseChar@@QAEPAV1@ABVioHashString@@@Z ; ioBaseChar::GetBaseChar
  0005e	89 45 bc	 mov	 DWORD PTR _pTarget$[ebp], eax

; 612  : 	if ( pTarget )

  00061	85 c0		 test	 eax, eax
  00063	0f 84 ee 00 00
	00		 je	 $LN1@SetTargetR

; 613  : 		vMoveDir = pTarget->GetMidPositionByRate() - GetMidPositionByRate();

  00069	57		 push	 edi
  0006a	b8 05 00 00 00	 mov	 eax, 5
  0006f	8b c8		 mov	 ecx, eax
  00071	b8 0a 00 00 00	 mov	 eax, 10			; 0000000aH
  00076	8b d0		 mov	 edx, eax
  00078	b8 05 00 00 00	 mov	 eax, 5
  0007d	8b f8		 mov	 edi, eax
  0007f	b8 0a 00 00 00	 mov	 eax, 10			; 0000000aH
  00084	89 4d d0	 mov	 DWORD PTR tv326[ebp], ecx
  00087	db 45 d0	 fild	 DWORD PTR tv326[ebp]
  0008a	89 45 d4	 mov	 DWORD PTR $T554064[ebp], eax
  0008d	85 c9		 test	 ecx, ecx
  0008f	79 06		 jns	 SHORT $LN19@SetTargetR
  00091	d8 05 00 00 00
	00		 fadd	 DWORD PTR __real@4f800000
$LN19@SetTargetR:
  00097	89 55 d0	 mov	 DWORD PTR tv322[ebp], edx
  0009a	db 45 d0	 fild	 DWORD PTR tv322[ebp]
  0009d	85 d2		 test	 edx, edx
  0009f	79 06		 jns	 SHORT $LN20@SetTargetR
  000a1	d8 05 00 00 00
	00		 fadd	 DWORD PTR __real@4f800000
$LN20@SetTargetR:
  000a7	de f9		 fdivp	 ST(1), ST(0)
  000a9	51		 push	 ecx
  000aa	8d 45 d8	 lea	 eax, DWORD PTR $T549060[ebp]
  000ad	8b cb		 mov	 ecx, ebx
  000af	d9 5d d0	 fstp	 DWORD PTR tv318[ebp]
  000b2	d9 45 d0	 fld	 DWORD PTR tv318[ebp]
  000b5	d9 1c 24	 fstp	 DWORD PTR [esp]
  000b8	50		 push	 eax
  000b9	e8 00 00 00 00	 call	 ?GetMidPositionByRate@ioGameEntity@@QBE?AUD3DXVECTOR3@@M@Z ; ioGameEntity::GetMidPositionByRate
  000be	89 7d d0	 mov	 DWORD PTR tv312[ebp], edi
  000c1	db 45 d0	 fild	 DWORD PTR tv312[ebp]
  000c4	8b f0		 mov	 esi, eax
  000c6	85 ff		 test	 edi, edi
  000c8	79 06		 jns	 SHORT $LN21@SetTargetR
  000ca	d8 05 00 00 00
	00		 fadd	 DWORD PTR __real@4f800000
$LN21@SetTargetR:
  000d0	8b 45 d4	 mov	 eax, DWORD PTR $T554064[ebp]
  000d3	db 45 d4	 fild	 DWORD PTR $T554064[ebp]
  000d6	85 c0		 test	 eax, eax
  000d8	79 06		 jns	 SHORT $LN22@SetTargetR
  000da	d8 05 00 00 00
	00		 fadd	 DWORD PTR __real@4f800000
$LN22@SetTargetR:
  000e0	de f9		 fdivp	 ST(1), ST(0)
  000e2	51		 push	 ecx
  000e3	8b 4d bc	 mov	 ecx, DWORD PTR _pTarget$[ebp]
  000e6	8d 45 e4	 lea	 eax, DWORD PTR $T549059[ebp]
  000e9	d9 5d d4	 fstp	 DWORD PTR tv304[ebp]
  000ec	d9 45 d4	 fld	 DWORD PTR tv304[ebp]
  000ef	d9 1c 24	 fstp	 DWORD PTR [esp]
  000f2	50		 push	 eax
  000f3	e8 00 00 00 00	 call	 ?GetMidPositionByRate@ioGameEntity@@QBE?AUD3DXVECTOR3@@M@Z ; ioGameEntity::GetMidPositionByRate
  000f8	f3 0f 10 0e	 movss	 xmm1, DWORD PTR [esi]
  000fc	f3 0f 10 00	 movss	 xmm0, DWORD PTR [eax]
  00100	0f 5a c0	 cvtps2pd xmm0, xmm0
  00103	0f 5a c9	 cvtps2pd xmm1, xmm1
  00106	f2 0f 5c c1	 subsd	 xmm0, xmm1
  0010a	f3 0f 10 4e 04	 movss	 xmm1, DWORD PTR [esi+4]
  0010f	66 0f 5a c0	 cvtpd2ps xmm0, xmm0
  00113	f3 0f 11 45 b0	 movss	 DWORD PTR $T549061[ebp], xmm0
  00118	f3 0f 10 40 04	 movss	 xmm0, DWORD PTR [eax+4]
  0011d	0f 5a c0	 cvtps2pd xmm0, xmm0
  00120	0f 5a c9	 cvtps2pd xmm1, xmm1
  00123	f2 0f 5c c1	 subsd	 xmm0, xmm1
  00127	f3 0f 10 4e 08	 movss	 xmm1, DWORD PTR [esi+8]
  0012c	66 0f 5a c0	 cvtpd2ps xmm0, xmm0
  00130	f3 0f 11 45 b4	 movss	 DWORD PTR $T549061[ebp+4], xmm0
  00135	f3 0f 10 40 08	 movss	 xmm0, DWORD PTR [eax+8]
  0013a	0f 5a c0	 cvtps2pd xmm0, xmm0
  0013d	0f 5a c9	 cvtps2pd xmm1, xmm1
  00140	f2 0f 5c c1	 subsd	 xmm0, xmm1
  00144	66 0f 5a c0	 cvtpd2ps xmm0, xmm0
  00148	f3 0f 11 45 b8	 movss	 DWORD PTR $T549061[ebp+8], xmm0
  0014d	8d 75 b0	 lea	 esi, DWORD PTR $T549061[ebp]
  00150	8d 7d f0	 lea	 edi, DWORD PTR _vMoveDir$[ebp]
  00153	a5		 movsd
  00154	a5		 movsd
  00155	a5		 movsd
  00156	5f		 pop	 edi
$LN1@SetTargetR:

; 614  : 	D3DXVec3Normalize( &vMoveDir, &vMoveDir );

  00157	8d 45 f0	 lea	 eax, DWORD PTR _vMoveDir$[ebp]
  0015a	50		 push	 eax
  0015b	50		 push	 eax
  0015c	e8 00 00 00 00	 call	 _D3DXVec3Normalize@8

; 615  : 
; 616  : 	D3DXQUATERNION qtTargetRot = Help::ConvertDirToQuaternion( vMoveDir );

  00161	8d 45 f0	 lea	 eax, DWORD PTR _vMoveDir$[ebp]
  00164	50		 push	 eax
  00165	8d 45 c0	 lea	 eax, DWORD PTR _qtTargetRot$[ebp]
  00168	50		 push	 eax
  00169	e8 00 00 00 00	 call	 ?ConvertDirToQuaternion@Help@@YA?AUD3DXQUATERNION@@ABUD3DXVECTOR3@@@Z ; Help::ConvertDirToQuaternion
  0016e	59		 pop	 ecx
  0016f	59		 pop	 ecx

; 617  : 	SetWorldOrientationAndDir( qtTargetRot );

  00170	8d 45 c0	 lea	 eax, DWORD PTR _qtTargetRot$[ebp]
  00173	50		 push	 eax
  00174	8b cb		 mov	 ecx, ebx
  00176	e8 00 00 00 00	 call	 ?SetWorldOrientationAndDir@ioDummyChar@@QAEXABUD3DXQUATERNION@@@Z ; ioDummyChar::SetWorldOrientationAndDir
$LN3@SetTargetR:

; 618  : }

  0017b	8b 4d fc	 mov	 ecx, DWORD PTR __$ArrayPad$[ebp]
  0017e	5e		 pop	 esi
  0017f	33 cd		 xor	 ecx, ebp
  00181	5b		 pop	 ebx
  00182	e8 00 00 00 00	 call	 @__security_check_cookie@4
  00187	c9		 leave
  00188	c2 04 00	 ret	 4
?SetTargetRotate@ioTargetTrace10Dummy@@IAEXPAVioBaseChar@@@Z ENDP ; ioTargetTrace10Dummy::SetTargetRotate
_TEXT	ENDS
PUBLIC	_pOwner$GSCopy$
PUBLIC	__$ArrayPad$
PUBLIC	?CreateWeapon@ioTargetTrace10Dummy@@IAEXPAVioBaseChar@@@Z ; ioTargetTrace10Dummy::CreateWeapon
EXTRN	??6SP2Packet@@QAEAAV0@K@Z:PROC			; SP2Packet::operator<<
EXTRN	?GetWeaponIndexBase@ioBaseChar@@QBEKXZ:PROC	; ioBaseChar::GetWeaponIndexBase
;	COMDAT xdata$x
; File c:\program files (x86)\microsoft directx sdk (june 2010)\include\d3dx9math.inl
xdata$x	SEGMENT
__unwindtable$?CreateWeapon@ioTargetTrace10Dummy@@IAEXPAVioBaseChar@@@Z DD 0ffffffffH
	DD	FLAT:__unwindfunclet$?CreateWeapon@ioTargetTrace10Dummy@@IAEXPAVioBaseChar@@@Z$0
	DD	00H
	DD	FLAT:__unwindfunclet$?CreateWeapon@ioTargetTrace10Dummy@@IAEXPAVioBaseChar@@@Z$1
	DD	00H
	DD	FLAT:__unwindfunclet$?CreateWeapon@ioTargetTrace10Dummy@@IAEXPAVioBaseChar@@@Z$2
__ehfuncinfo$?CreateWeapon@ioTargetTrace10Dummy@@IAEXPAVioBaseChar@@@Z DD 019930522H
	DD	03H
	DD	FLAT:__unwindtable$?CreateWeapon@ioTargetTrace10Dummy@@IAEXPAVioBaseChar@@@Z
	DD	2 DUP(00H)
	DD	2 DUP(00H)
	DD	00H
	DD	01H
; Function compile flags: /Ogsp
; File d:\lost saga for developer\youtube\tutorial\source\src\lsclient\iotargettrace10dummy.cpp
xdata$x	ENDS
;	COMDAT ?CreateWeapon@ioTargetTrace10Dummy@@IAEXPAVioBaseChar@@@Z
_TEXT	SEGMENT
_kFireTime$ = -32948					; size = 88
_dwBaseWeaponIndex$ = -32860				; size = 4
_pOwner$GSCopy$ = -32856				; size = 4
tv467 = -32852						; size = 4
tv463 = -32852						; size = 4
tv459 = -32852						; size = 4
tv444 = -32852						; size = 4
tv440 = -32852						; size = 4
tv436 = -32852						; size = 4
_kPacket$549087 = -32848				; size = 32792
$T554087 = -56						; size = 16
$T549082 = -52						; size = 12
$T549081 = -52						; size = 12
$T549077 = -52						; size = 12
_vPos$ = -40						; size = 12
_vDir$ = -28						; size = 12
__$ArrayPad$ = -16					; size = 4
__$EHRec$ = -12						; size = 12
_pOwner$ = 8						; size = 4
?CreateWeapon@ioTargetTrace10Dummy@@IAEXPAVioBaseChar@@@Z PROC ; ioTargetTrace10Dummy::CreateWeapon, COMDAT
; _this$ = ecx

; 621  : {

  00000	55		 push	 ebp
  00001	8b ec		 mov	 ebp, esp
  00003	6a ff		 push	 -1
  00005	68 00 00 00 00	 push	 __ehhandler$?CreateWeapon@ioTargetTrace10Dummy@@IAEXPAVioBaseChar@@@Z
  0000a	64 a1 00 00 00
	00		 mov	 eax, DWORD PTR fs:0
  00010	50		 push	 eax
  00011	b8 a8 80 00 00	 mov	 eax, 32936		; 000080a8H
  00016	e8 00 00 00 00	 call	 __chkstk
  0001b	a1 00 00 00 00	 mov	 eax, DWORD PTR ___security_cookie
  00020	33 c5		 xor	 eax, ebp
  00022	89 45 f0	 mov	 DWORD PTR __$ArrayPad$[ebp], eax
  00025	53		 push	 ebx
  00026	56		 push	 esi
  00027	57		 push	 edi
  00028	50		 push	 eax
  00029	8d 45 f4	 lea	 eax, DWORD PTR __$EHRec$[ebp]
  0002c	64 a3 00 00 00
	00		 mov	 DWORD PTR fs:0, eax
  00032	8b 75 08	 mov	 esi, DWORD PTR _pOwner$[ebp]
  00035	8b d9		 mov	 ebx, ecx

; 662  : 	{
; 663  : 		SP2Packet kPacket( CUPK_DUMMY_CHAR_SYNC );

  00037	89 b5 a8 7f ff
	ff		 mov	 DWORD PTR _pOwner$GSCopy$[ebp], esi
  0003d	85 f6		 test	 esi, esi
  0003f	0f 84 40 03 00
	00		 je	 $LN5@CreateWeap

; 622  : 	if ( !pOwner || !pOwner->IsNeedProcess() )

  00045	8b 06		 mov	 eax, DWORD PTR [esi]
  00047	8b ce		 mov	 ecx, esi
  00049	ff 90 00 01 00
	00		 call	 DWORD PTR [eax+256]
  0004f	84 c0		 test	 al, al
  00051	0f 84 2e 03 00
	00		 je	 $LN5@CreateWeap

; 623  : 		return;
; 624  : 
; 625  : 	DWORD dwCurTime = FRAMEGETTIME();

  00057	ff 15 00 00 00
	00		 call	 DWORD PTR __imp_?GetSingleton@ioFrameTimer@@SAAAV1@XZ
  0005d	8b c8		 mov	 ecx, eax
  0005f	ff 15 00 00 00
	00		 call	 DWORD PTR __imp_?GetLoopSec@ioFrameTimer@@QBEKXZ

; 626  : 	if ( dwCheckAttackTime + dwAttackTime > dwCurTime )

  00065	8b 8b e4 14 00
	00		 mov	 ecx, DWORD PTR [ebx+5348]
  0006b	03 8b 94 14 00
	00		 add	 ecx, DWORD PTR [ebx+5268]
  00071	8b f8		 mov	 edi, eax
  00073	3b cf		 cmp	 ecx, edi
  00075	0f 87 0a 03 00
	00		 ja	 $LN5@CreateWeap

; 627  : 		return;
; 628  : 	
; 629  : 	dwCheckAttackTime = dwCurTime;
; 630  : 
; 631  : 	DWORD dwBaseWeaponIndex = pOwner->GetWeaponIndexBase()+1;

  0007b	8b ce		 mov	 ecx, esi
  0007d	89 bb 94 14 00
	00		 mov	 DWORD PTR [ebx+5268], edi
  00083	e8 00 00 00 00	 call	 ?GetWeaponIndexBase@ioBaseChar@@QBEKXZ ; ioBaseChar::GetWeaponIndexBase

; 632  : 	pOwner->SetWeaponIndexBase( dwBaseWeaponIndex );

  00088	8b 8d a8 7f ff
	ff		 mov	 ecx, DWORD PTR _pOwner$GSCopy$[ebp]
  0008e	8d 70 01	 lea	 esi, DWORD PTR [eax+1]
  00091	56		 push	 esi
  00092	89 b5 a4 7f ff
	ff		 mov	 DWORD PTR _dwBaseWeaponIndex$[ebp], esi
  00098	e8 00 00 00 00	 call	 ?SetWeaponIndexBase@ioBaseChar@@QAEXK@Z ; ioBaseChar::SetWeaponIndexBase

; 633  : 
; 634  : 	FireTime kFireTime;

  0009d	8d 8d 4c 7f ff
	ff		 lea	 ecx, DWORD PTR _kFireTime$[ebp]
  000a3	e8 00 00 00 00	 call	 ??0FireTime@@QAE@XZ	; FireTime::FireTime

; 635  : 	kFireTime.dwStart = dwCurTime;
; 636  : 	kFireTime.iAttributeIdx = m_nWeaponType;

  000a8	8b 83 e8 14 00
	00		 mov	 eax, DWORD PTR [ebx+5352]
  000ae	83 65 fc 00	 and	 DWORD PTR __$EHRec$[ebp+8], 0

; 637  : 	kFireTime.iResistanceIdx = 0;

  000b2	83 a5 58 7f ff
	ff 00		 and	 DWORD PTR _kFireTime$[ebp+12], 0

; 638  : 	kFireTime.szWoundedAni  = "";

  000b9	68 00 00 00 00	 push	 OFFSET ??_C@_00CNPNBAHC@?$AA@
  000be	8d 8d 60 7f ff
	ff		 lea	 ecx, DWORD PTR _kFireTime$[ebp+20]
  000c4	89 bd 4c 7f ff
	ff		 mov	 DWORD PTR _kFireTime$[ebp], edi
  000ca	89 85 54 7f ff
	ff		 mov	 DWORD PTR _kFireTime$[ebp+8], eax
  000d0	ff 15 00 00 00
	00		 call	 DWORD PTR __imp_??4ioHashString@@QAEAAV0@PBD@Z

; 639  : 	kFireTime.dwWoundedAniDuration = 0;

  000d6	83 a5 70 7f ff
	ff 00		 and	 DWORD PTR _kFireTime$[ebp+36], 0

; 640  : 	kFireTime.bLoopWoundedAni = false;

  000dd	c6 85 5c 7f ff
	ff 00		 mov	 BYTE PTR _kFireTime$[ebp+16], 0

; 641  : 	kFireTime.dwWeaponIdx = dwBaseWeaponIndex;

  000e4	89 b5 74 7f ff
	ff		 mov	 DWORD PTR _kFireTime$[ebp+40], esi

; 642  : 	kFireTime.eFireTimeType = FTT_DUMMY_CHAR_ATTACK;

  000ea	c7 85 8c 7f ff
	ff 0b 00 00 00	 mov	 DWORD PTR _kFireTime$[ebp+64], 11 ; 0000000bH

; 643  : 
; 644  : 	D3DXVECTOR3 vPos = GetMidPositionByRate();

  000f4	b8 05 00 00 00	 mov	 eax, 5
  000f9	8b c8		 mov	 ecx, eax
  000fb	b8 0a 00 00 00	 mov	 eax, 10			; 0000000aH
  00100	89 8d ac 7f ff
	ff		 mov	 DWORD PTR tv467[ebp], ecx
  00106	db 85 ac 7f ff
	ff		 fild	 DWORD PTR tv467[ebp]
  0010c	85 c9		 test	 ecx, ecx
  0010e	79 06		 jns	 SHORT $LN27@CreateWeap
  00110	d8 05 00 00 00
	00		 fadd	 DWORD PTR __real@4f800000
$LN27@CreateWeap:
  00116	89 85 ac 7f ff
	ff		 mov	 DWORD PTR tv463[ebp], eax
  0011c	db 85 ac 7f ff
	ff		 fild	 DWORD PTR tv463[ebp]
  00122	85 c0		 test	 eax, eax
  00124	79 06		 jns	 SHORT $LN28@CreateWeap
  00126	d8 05 00 00 00
	00		 fadd	 DWORD PTR __real@4f800000
$LN28@CreateWeap:
  0012c	de f9		 fdivp	 ST(1), ST(0)
  0012e	51		 push	 ecx
  0012f	8d 45 d8	 lea	 eax, DWORD PTR _vPos$[ebp]
  00132	8b cb		 mov	 ecx, ebx
  00134	d9 9d ac 7f ff
	ff		 fstp	 DWORD PTR tv459[ebp]
  0013a	d9 85 ac 7f ff
	ff		 fld	 DWORD PTR tv459[ebp]
  00140	d9 1c 24	 fstp	 DWORD PTR [esp]
  00143	50		 push	 eax
  00144	e8 00 00 00 00	 call	 ?GetMidPositionByRate@ioGameEntity@@QBE?AUD3DXVECTOR3@@M@Z ; ioGameEntity::GetMidPositionByRate

; 645  : 	D3DXVECTOR3 vDir = GetWorldOrientation() * D3DXVECTOR3( 0.0f, 0.0f, -1.0f );

  00149	0f 57 c0	 xorps	 xmm0, xmm0
  0014c	8d 45 cc	 lea	 eax, DWORD PTR $T549077[ebp]
  0014f	f3 0f 11 45 cc	 movss	 DWORD PTR $T549077[ebp], xmm0
  00154	f3 0f 11 45 d0	 movss	 DWORD PTR $T549077[ebp+4], xmm0
  00159	f3 0f 10 05 00
	00 00 00	 movss	 xmm0, DWORD PTR __real@bf800000
  00161	50		 push	 eax
  00162	8b 03		 mov	 eax, DWORD PTR [ebx]
  00164	8b cb		 mov	 ecx, ebx
  00166	f3 0f 11 45 d4	 movss	 DWORD PTR $T549077[ebp+8], xmm0
  0016b	ff 50 74	 call	 DWORD PTR [eax+116]
  0016e	50		 push	 eax
  0016f	8d 45 e4	 lea	 eax, DWORD PTR _vDir$[ebp]
  00172	50		 push	 eax
  00173	ff 15 00 00 00
	00		 call	 DWORD PTR __imp_??D@YA?AUD3DXVECTOR3@@ABUD3DXQUATERNION@@ABU0@@Z

; 646  : 
; 647  : 	ioBaseChar *pTarget = pOwner->GetBaseChar( m_szTraceTarget );

  00179	8b 8d a8 7f ff
	ff		 mov	 ecx, DWORD PTR _pOwner$GSCopy$[ebp]
  0017f	83 c4 0c	 add	 esp, 12			; 0000000cH
  00182	8d 83 84 14 00
	00		 lea	 eax, DWORD PTR [ebx+5252]
  00188	50		 push	 eax
  00189	e8 00 00 00 00	 call	 ?GetBaseChar@ioBaseChar@@QAEPAV1@ABVioHashString@@@Z ; ioBaseChar::GetBaseChar
  0018e	8b c8		 mov	 ecx, eax

; 648  : 	if ( pTarget )

  00190	85 c9		 test	 ecx, ecx
  00192	0f 84 b8 00 00
	00		 je	 $LN3@CreateWeap

; 649  : 		vDir = pTarget->GetMidPositionByRate() - vPos;

  00198	b8 05 00 00 00	 mov	 eax, 5
  0019d	8b d0		 mov	 edx, eax
  0019f	b8 0a 00 00 00	 mov	 eax, 10			; 0000000aH
  001a4	89 95 ac 7f ff
	ff		 mov	 DWORD PTR tv444[ebp], edx
  001aa	db 85 ac 7f ff
	ff		 fild	 DWORD PTR tv444[ebp]
  001b0	85 d2		 test	 edx, edx
  001b2	79 06		 jns	 SHORT $LN29@CreateWeap
  001b4	d8 05 00 00 00
	00		 fadd	 DWORD PTR __real@4f800000
$LN29@CreateWeap:
  001ba	89 85 ac 7f ff
	ff		 mov	 DWORD PTR tv440[ebp], eax
  001c0	db 85 ac 7f ff
	ff		 fild	 DWORD PTR tv440[ebp]
  001c6	85 c0		 test	 eax, eax
  001c8	79 06		 jns	 SHORT $LN30@CreateWeap
  001ca	d8 05 00 00 00
	00		 fadd	 DWORD PTR __real@4f800000
$LN30@CreateWeap:
  001d0	de f9		 fdivp	 ST(1), ST(0)
  001d2	51		 push	 ecx
  001d3	8d 45 cc	 lea	 eax, DWORD PTR $T549081[ebp]
  001d6	d9 9d ac 7f ff
	ff		 fstp	 DWORD PTR tv436[ebp]
  001dc	d9 85 ac 7f ff
	ff		 fld	 DWORD PTR tv436[ebp]
  001e2	d9 1c 24	 fstp	 DWORD PTR [esp]
  001e5	50		 push	 eax
  001e6	e8 00 00 00 00	 call	 ?GetMidPositionByRate@ioGameEntity@@QBE?AUD3DXVECTOR3@@M@Z ; ioGameEntity::GetMidPositionByRate
  001eb	f3 0f 10 00	 movss	 xmm0, DWORD PTR [eax]
  001ef	f3 0f 10 4d d8	 movss	 xmm1, DWORD PTR _vPos$[ebp]
  001f4	f3 0f 10 55 dc	 movss	 xmm2, DWORD PTR _vPos$[ebp+4]
  001f9	f3 0f 10 5d e0	 movss	 xmm3, DWORD PTR _vPos$[ebp+8]
  001fe	0f 5a c9	 cvtps2pd xmm1, xmm1
  00201	0f 5a c0	 cvtps2pd xmm0, xmm0
  00204	f2 0f 5c c1	 subsd	 xmm0, xmm1
  00208	f3 0f 10 48 04	 movss	 xmm1, DWORD PTR [eax+4]
  0020d	0f 5a d2	 cvtps2pd xmm2, xmm2
  00210	0f 5a c9	 cvtps2pd xmm1, xmm1
  00213	f2 0f 5c ca	 subsd	 xmm1, xmm2
  00217	f3 0f 10 50 08	 movss	 xmm2, DWORD PTR [eax+8]
  0021c	0f 5a d2	 cvtps2pd xmm2, xmm2
  0021f	0f 5a db	 cvtps2pd xmm3, xmm3
  00222	f2 0f 5c d3	 subsd	 xmm2, xmm3
  00226	66 0f 5a c0	 cvtpd2ps xmm0, xmm0
  0022a	f3 0f 11 45 cc	 movss	 DWORD PTR $T549082[ebp], xmm0
  0022f	66 0f 5a c9	 cvtpd2ps xmm1, xmm1
  00233	f3 0f 11 4d d0	 movss	 DWORD PTR $T549082[ebp+4], xmm1
  00238	66 0f 5a d2	 cvtpd2ps xmm2, xmm2
  0023c	f3 0f 11 55 d4	 movss	 DWORD PTR $T549082[ebp+8], xmm2
  00241	8d 75 cc	 lea	 esi, DWORD PTR $T549082[ebp]
  00244	8d 7d e4	 lea	 edi, DWORD PTR _vDir$[ebp]
  00247	a5		 movsd
  00248	a5		 movsd
  00249	a5		 movsd
  0024a	8b b5 a4 7f ff
	ff		 mov	 esi, DWORD PTR _dwBaseWeaponIndex$[ebp]
$LN3@CreateWeap:

; 650  : 	D3DXVec3Normalize( &vDir, &vDir );

  00250	8d 45 e4	 lea	 eax, DWORD PTR _vDir$[ebp]
  00253	50		 push	 eax
  00254	50		 push	 eax
  00255	e8 00 00 00 00	 call	 _D3DXVec3Normalize@8

; 651  : 
; 652  : 	ioWeapon *pWeapon = pOwner->ExtendFireExplicit( kFireTime, vPos, vDir, "" );

  0025a	68 00 00 00 00	 push	 OFFSET ??_C@_00CNPNBAHC@?$AA@
  0025f	8d 4d c8	 lea	 ecx, DWORD PTR $T554087[ebp]
  00262	ff 15 00 00 00
	00		 call	 DWORD PTR __imp_??0ioHashString@@QAE@PBD@Z
  00268	8b 8d a8 7f ff
	ff		 mov	 ecx, DWORD PTR _pOwner$GSCopy$[ebp]
  0026e	8d 45 c8	 lea	 eax, DWORD PTR $T554087[ebp]
  00271	50		 push	 eax
  00272	8d 45 e4	 lea	 eax, DWORD PTR _vDir$[ebp]
  00275	50		 push	 eax
  00276	8d 45 d8	 lea	 eax, DWORD PTR _vPos$[ebp]
  00279	50		 push	 eax
  0027a	8d 85 4c 7f ff
	ff		 lea	 eax, DWORD PTR _kFireTime$[ebp]
  00280	50		 push	 eax
  00281	c6 45 fc 01	 mov	 BYTE PTR __$EHRec$[ebp+8], 1
  00285	e8 00 00 00 00	 call	 ?ExtendFireExplicit@ioBaseChar@@QAEPAVioWeapon@@ABUFireTime@@ABUD3DXVECTOR3@@1ABVioHashString@@@Z ; ioBaseChar::ExtendFireExplicit
  0028a	8d 4d c8	 lea	 ecx, DWORD PTR $T554087[ebp]
  0028d	8b f8		 mov	 edi, eax
  0028f	c6 45 fc 00	 mov	 BYTE PTR __$EHRec$[ebp+8], 0
  00293	ff 15 00 00 00
	00		 call	 DWORD PTR __imp_??1ioHashString@@QAE@XZ

; 653  : 	if ( pWeapon )

  00299	85 ff		 test	 edi, edi
  0029b	74 19		 je	 SHORT $LN2@CreateWeap

; 654  : 	{
; 655  : 		pWeapon->SetPosition( vPos );

  0029d	8d 45 d8	 lea	 eax, DWORD PTR _vPos$[ebp]
  002a0	50		 push	 eax
  002a1	8b cf		 mov	 ecx, edi
  002a3	e8 00 00 00 00	 call	 ?SetPosition@ioWeapon@@QAEXABUD3DXVECTOR3@@@Z ; ioWeapon::SetPosition

; 656  : 		pWeapon->SetMoveDir( vDir );

  002a8	8b 07		 mov	 eax, DWORD PTR [edi]
  002aa	8d 4d e4	 lea	 ecx, DWORD PTR _vDir$[ebp]
  002ad	51		 push	 ecx
  002ae	8b cf		 mov	 ecx, edi
  002b0	ff 90 b0 00 00
	00		 call	 DWORD PTR [eax+176]
$LN2@CreateWeap:

; 657  : 	}
; 658  : 
; 659  : 	m_nAttackCurCnt++;
; 660  : 
; 661  : 	if ( pOwner->IsNeedSendNetwork() )

  002b6	8b 8d a8 7f ff
	ff		 mov	 ecx, DWORD PTR _pOwner$GSCopy$[ebp]
  002bc	ff 83 98 14 00
	00		 inc	 DWORD PTR [ebx+5272]
  002c2	8b 01		 mov	 eax, DWORD PTR [ecx]
  002c4	ff 90 04 01 00
	00		 call	 DWORD PTR [eax+260]
  002ca	84 c0		 test	 al, al
  002cc	0f 84 a4 00 00
	00		 je	 $LN1@CreateWeap

; 662  : 	{
; 663  : 		SP2Packet kPacket( CUPK_DUMMY_CHAR_SYNC );

  002d2	68 21 42 00 00	 push	 16929			; 00004221H
  002d7	8d 8d b0 7f ff
	ff		 lea	 ecx, DWORD PTR _kPacket$549087[ebp]
  002dd	e8 00 00 00 00	 call	 ??0SP2Packet@@QAE@K@Z	; SP2Packet::SP2Packet

; 664  : 		kPacket << m_OwnerName;

  002e2	8d 83 cc 01 00
	00		 lea	 eax, DWORD PTR [ebx+460]
  002e8	50		 push	 eax
  002e9	8d 8d b0 7f ff
	ff		 lea	 ecx, DWORD PTR _kPacket$549087[ebp]
  002ef	c6 45 fc 02	 mov	 BYTE PTR __$EHRec$[ebp+8], 2
  002f3	e8 00 00 00 00	 call	 ??6SP2Packet@@QAEAAV0@ABVioHashString@@@Z ; SP2Packet::operator<<

; 665  : 		kPacket << m_iCreateIndex;

  002f8	ff b3 dc 01 00
	00		 push	 DWORD PTR [ebx+476]
  002fe	8d 8d b0 7f ff
	ff		 lea	 ecx, DWORD PTR _kPacket$549087[ebp]
  00304	e8 00 00 00 00	 call	 ??6SP2Packet@@QAEAAV0@H@Z ; SP2Packet::operator<<

; 666  : 		kPacket << TS_Create_Weapon;

  00309	6a 04		 push	 4
  0030b	8d 8d b0 7f ff
	ff		 lea	 ecx, DWORD PTR _kPacket$549087[ebp]
  00311	e8 00 00 00 00	 call	 ??6SP2Packet@@QAEAAV0@H@Z ; SP2Packet::operator<<

; 667  : 		kPacket << GetWorldOrientation();

  00316	8b 03		 mov	 eax, DWORD PTR [ebx]
  00318	8b cb		 mov	 ecx, ebx
  0031a	ff 50 74	 call	 DWORD PTR [eax+116]
  0031d	50		 push	 eax
  0031e	8d 8d b0 7f ff
	ff		 lea	 ecx, DWORD PTR _kPacket$549087[ebp]
  00324	e8 00 00 00 00	 call	 ??6SP2Packet@@QAEAAV0@ABUD3DXQUATERNION@@@Z ; SP2Packet::operator<<

; 668  : 		kPacket << GetWorldPosition();

  00329	8b 03		 mov	 eax, DWORD PTR [ebx]
  0032b	8b cb		 mov	 ecx, ebx
  0032d	ff 50 70	 call	 DWORD PTR [eax+112]
  00330	50		 push	 eax
  00331	8d 8d b0 7f ff
	ff		 lea	 ecx, DWORD PTR _kPacket$549087[ebp]
  00337	e8 00 00 00 00	 call	 ??6SP2Packet@@QAEAAV0@ABUD3DXVECTOR3@@@Z ; SP2Packet::operator<<

; 669  : 		kPacket << dwBaseWeaponIndex;

  0033c	56		 push	 esi
  0033d	8d 8d b0 7f ff
	ff		 lea	 ecx, DWORD PTR _kPacket$549087[ebp]
  00343	e8 00 00 00 00	 call	 ??6SP2Packet@@QAEAAV0@K@Z ; SP2Packet::operator<<

; 670  : 		kPacket << vDir;

  00348	8d 45 e4	 lea	 eax, DWORD PTR _vDir$[ebp]
  0034b	50		 push	 eax
  0034c	8d 8d b0 7f ff
	ff		 lea	 ecx, DWORD PTR _kPacket$549087[ebp]
  00352	e8 00 00 00 00	 call	 ??6SP2Packet@@QAEAAV0@ABUD3DXVECTOR3@@@Z ; SP2Packet::operator<<

; 671  : 		P2PNetwork::SendToAllPlayingUser( kPacket );

  00357	8d 85 b0 7f ff
	ff		 lea	 eax, DWORD PTR _kPacket$549087[ebp]
  0035d	6a 00		 push	 0
  0035f	50		 push	 eax
  00360	e8 00 00 00 00	 call	 ?SendToAllPlayingUser@P2PNetwork@@YAXAAVSP2Packet@@PAVioBaseChar@@@Z ; P2PNetwork::SendToAllPlayingUser
  00365	59		 pop	 ecx
  00366	59		 pop	 ecx

; 672  : 	}

  00367	8d 8d b0 7f ff
	ff		 lea	 ecx, DWORD PTR _kPacket$549087[ebp]
  0036d	c6 45 fc 00	 mov	 BYTE PTR __$EHRec$[ebp+8], 0
  00371	e8 00 00 00 00	 call	 ??1SP2Packet@@UAE@XZ	; SP2Packet::~SP2Packet
$LN1@CreateWeap:

; 673  : }

  00376	83 4d fc ff	 or	 DWORD PTR __$EHRec$[ebp+8], -1
  0037a	8d 8d 4c 7f ff
	ff		 lea	 ecx, DWORD PTR _kFireTime$[ebp]
  00380	e8 00 00 00 00	 call	 ??1FireTime@@QAE@XZ
$LN5@CreateWeap:
  00385	8b 4d f4	 mov	 ecx, DWORD PTR __$EHRec$[ebp]
  00388	64 89 0d 00 00
	00 00		 mov	 DWORD PTR fs:0, ecx
  0038f	59		 pop	 ecx
  00390	5f		 pop	 edi
  00391	5e		 pop	 esi
  00392	5b		 pop	 ebx
  00393	8b 4d f0	 mov	 ecx, DWORD PTR __$ArrayPad$[ebp]
  00396	33 cd		 xor	 ecx, ebp
  00398	e8 00 00 00 00	 call	 @__security_check_cookie@4
  0039d	c9		 leave
  0039e	c2 04 00	 ret	 4
_TEXT	ENDS
;	COMDAT text$x
text$x	SEGMENT
__unwindfunclet$?CreateWeapon@ioTargetTrace10Dummy@@IAEXPAVioBaseChar@@@Z$0:
  00000	8d 8d 4c 7f ff
	ff		 lea	 ecx, DWORD PTR _kFireTime$[ebp]
  00006	e9 00 00 00 00	 jmp	 ??1FireTime@@QAE@XZ
__unwindfunclet$?CreateWeapon@ioTargetTrace10Dummy@@IAEXPAVioBaseChar@@@Z$1:
  0000b	8d 4d c8	 lea	 ecx, DWORD PTR $T554087[ebp]
  0000e	ff 25 00 00 00
	00		 jmp	 DWORD PTR __imp_??1ioHashString@@QAE@XZ
__unwindfunclet$?CreateWeapon@ioTargetTrace10Dummy@@IAEXPAVioBaseChar@@@Z$2:
  00014	8d 8d b0 7f ff
	ff		 lea	 ecx, DWORD PTR _kPacket$549087[ebp]
  0001a	e9 00 00 00 00	 jmp	 ??1SP2Packet@@UAE@XZ	; SP2Packet::~SP2Packet
__ehhandler$?CreateWeapon@ioTargetTrace10Dummy@@IAEXPAVioBaseChar@@@Z:
  0001f	8b 54 24 08	 mov	 edx, DWORD PTR [esp+8]
  00023	8d 42 0c	 lea	 eax, DWORD PTR [edx+12]
  00026	8b 8a 48 7f ff
	ff		 mov	 ecx, DWORD PTR [edx-32952]
  0002c	33 c8		 xor	 ecx, eax
  0002e	e8 00 00 00 00	 call	 @__security_check_cookie@4
  00033	8b 4a fc	 mov	 ecx, DWORD PTR [edx-4]
  00036	33 c8		 xor	 ecx, eax
  00038	e8 00 00 00 00	 call	 @__security_check_cookie@4
  0003d	b8 00 00 00 00	 mov	 eax, OFFSET __ehfuncinfo$?CreateWeapon@ioTargetTrace10Dummy@@IAEXPAVioBaseChar@@@Z
  00042	e9 00 00 00 00	 jmp	 ___CxxFrameHandler3
text$x	ENDS
?CreateWeapon@ioTargetTrace10Dummy@@IAEXPAVioBaseChar@@@Z ENDP ; ioTargetTrace10Dummy::CreateWeapon
PUBLIC	??N?$CEncrypt@M@@QAE_NABM@Z			; CEncrypt<float>::operator<=
; Function compile flags: /Ogsp
; File d:\lost saga for developer\youtube\tutorial\source\src\lsclient\encryptvalue.h
;	COMDAT ??N?$CEncrypt@M@@QAE_NABM@Z
_TEXT	SEGMENT
_value$ = -4						; size = 4
_inValue$ = 8						; size = 4
??N?$CEncrypt@M@@QAE_NABM@Z PROC			; CEncrypt<float>::operator<=, COMDAT
; _this$ = ecx

; 1821 : 	{

  00000	55		 push	 ebp
  00001	8b ec		 mov	 ebp, esp
  00003	51		 push	 ecx

; 1822 : 		type value;
; 1823 : 		DecryptValueToPool(&value);

  00004	8d 45 fc	 lea	 eax, DWORD PTR _value$[ebp]
  00007	50		 push	 eax
  00008	e8 00 00 00 00	 call	 ?DecryptValueToPool@?$CEncrypt@M@@QAEXPAM@Z ; CEncrypt<float>::DecryptValueToPool

; 1824 : #ifdef _NOTUSE
; 1825 : 		Debug();
; 1826 : #endif
; 1827 : 		return (value <= inValue);

  0000d	8b 45 08	 mov	 eax, DWORD PTR _inValue$[ebp]
  00010	f3 0f 10 08	 movss	 xmm1, DWORD PTR [eax]
  00014	f3 0f 10 45 fc	 movss	 xmm0, DWORD PTR _value$[ebp]
  00019	0f 5a c0	 cvtps2pd xmm0, xmm0
  0001c	0f 5a c9	 cvtps2pd xmm1, xmm1
  0001f	33 c0		 xor	 eax, eax
  00021	66 0f 2f c8	 comisd	 xmm1, xmm0
  00025	72 01		 jb	 SHORT $LN4@operator@2
  00027	40		 inc	 eax
$LN4@operator@2:

; 1828 : 	}

  00028	c9		 leave
  00029	c2 04 00	 ret	 4
??N?$CEncrypt@M@@QAE_NABM@Z ENDP			; CEncrypt<float>::operator<=
_TEXT	ENDS
PUBLIC	??0?$_Vector_iterator@V?$_Vector_val@PAVioBaseChar@@V?$allocator@PAVioBaseChar@@@std@@@std@@@std@@QAE@XZ ; std::_Vector_iterator<std::_Vector_val<ioBaseChar *,std::allocator<ioBaseChar *> > >::_Vector_iterator<std::_Vector_val<ioBaseChar *,std::allocator<ioBaseChar *> > >
; Function compile flags: /Ogsp
; File c:\program files (x86)\microsoft visual studio 10.0\vc\include\vector
;	COMDAT ??0?$_Vector_iterator@V?$_Vector_val@PAVioBaseChar@@V?$allocator@PAVioBaseChar@@@std@@@std@@@std@@QAE@XZ
_TEXT	SEGMENT
??0?$_Vector_iterator@V?$_Vector_val@PAVioBaseChar@@V?$allocator@PAVioBaseChar@@@std@@@std@@@std@@QAE@XZ PROC ; std::_Vector_iterator<std::_Vector_val<ioBaseChar *,std::allocator<ioBaseChar *> > >::_Vector_iterator<std::_Vector_val<ioBaseChar *,std::allocator<ioBaseChar *> > >, COMDAT
; _this$ = ecx

; 298  : 	_Vector_iterator()

  00000	8b c1		 mov	 eax, ecx
  00002	83 20 00	 and	 DWORD PTR [eax], 0

; 299  : 		{	// construct with null vector pointer
; 300  : 		}

  00005	c3		 ret	 0
??0?$_Vector_iterator@V?$_Vector_val@PAVioBaseChar@@V?$allocator@PAVioBaseChar@@@std@@@std@@@std@@QAE@XZ ENDP ; std::_Vector_iterator<std::_Vector_val<ioBaseChar *,std::allocator<ioBaseChar *> > >::_Vector_iterator<std::_Vector_val<ioBaseChar *,std::allocator<ioBaseChar *> > >
_TEXT	ENDS
PUBLIC	??D?$_Vector_iterator@V?$_Vector_val@PAVioBaseChar@@V?$allocator@PAVioBaseChar@@@std@@@std@@@std@@QBEAAPAVioBaseChar@@XZ ; std::_Vector_iterator<std::_Vector_val<ioBaseChar *,std::allocator<ioBaseChar *> > >::operator*
; Function compile flags: /Ogsp
;	COMDAT ??D?$_Vector_iterator@V?$_Vector_val@PAVioBaseChar@@V?$allocator@PAVioBaseChar@@@std@@@std@@@std@@QBEAAPAVioBaseChar@@XZ
_TEXT	SEGMENT
??D?$_Vector_iterator@V?$_Vector_val@PAVioBaseChar@@V?$allocator@PAVioBaseChar@@@std@@@std@@@std@@QBEAAPAVioBaseChar@@XZ PROC ; std::_Vector_iterator<std::_Vector_val<ioBaseChar *,std::allocator<ioBaseChar *> > >::operator*, COMDAT
; _this$ = ecx

; 322  : 		return ((reference)**(_Mybase *)this);

  00000	8b 01		 mov	 eax, DWORD PTR [ecx]

; 323  : 		}

  00002	c3		 ret	 0
??D?$_Vector_iterator@V?$_Vector_val@PAVioBaseChar@@V?$allocator@PAVioBaseChar@@@std@@@std@@@std@@QBEAAPAVioBaseChar@@XZ ENDP ; std::_Vector_iterator<std::_Vector_val<ioBaseChar *,std::allocator<ioBaseChar *> > >::operator*
_TEXT	ENDS
PUBLIC	??E?$_Vector_iterator@V?$_Vector_val@PAVioBaseChar@@V?$allocator@PAVioBaseChar@@@std@@@std@@@std@@QAEAAV01@XZ ; std::_Vector_iterator<std::_Vector_val<ioBaseChar *,std::allocator<ioBaseChar *> > >::operator++
; Function compile flags: /Ogsp
;	COMDAT ??E?$_Vector_iterator@V?$_Vector_val@PAVioBaseChar@@V?$allocator@PAVioBaseChar@@@std@@@std@@@std@@QAEAAV01@XZ
_TEXT	SEGMENT
??E?$_Vector_iterator@V?$_Vector_val@PAVioBaseChar@@V?$allocator@PAVioBaseChar@@@std@@@std@@@std@@QAEAAV01@XZ PROC ; std::_Vector_iterator<std::_Vector_val<ioBaseChar *,std::allocator<ioBaseChar *> > >::operator++, COMDAT
; _this$ = ecx

; 331  : 		{	// preincrement

  00000	8b c1		 mov	 eax, ecx

; 332  : 		++*(_Mybase *)this;

  00002	83 00 04	 add	 DWORD PTR [eax], 4

; 333  : 		return (*this);
; 334  : 		}

  00005	c3		 ret	 0
??E?$_Vector_iterator@V?$_Vector_val@PAVioBaseChar@@V?$allocator@PAVioBaseChar@@@std@@@std@@@std@@QAEAAV01@XZ ENDP ; std::_Vector_iterator<std::_Vector_val<ioBaseChar *,std::allocator<ioBaseChar *> > >::operator++
_TEXT	ENDS
PUBLIC	??0?$_Vector_val@PAVioBaseChar@@V?$allocator@PAVioBaseChar@@@std@@@std@@QAE@V?$allocator@PAVioBaseChar@@@1@@Z ; std::_Vector_val<ioBaseChar *,std::allocator<ioBaseChar *> >::_Vector_val<ioBaseChar *,std::allocator<ioBaseChar *> >
; Function compile flags: /Ogsp
;	COMDAT ??0?$_Vector_val@PAVioBaseChar@@V?$allocator@PAVioBaseChar@@@std@@@std@@QAE@V?$allocator@PAVioBaseChar@@@1@@Z
_TEXT	SEGMENT
__Al$ = 8						; size = 1
??0?$_Vector_val@PAVioBaseChar@@V?$allocator@PAVioBaseChar@@@std@@@std@@QAE@V?$allocator@PAVioBaseChar@@@1@@Z PROC ; std::_Vector_val<ioBaseChar *,std::allocator<ioBaseChar *> >::_Vector_val<ioBaseChar *,std::allocator<ioBaseChar *> >, COMDAT
; _this$ = ecx

; 426  : 		{	// construct allocator from _Al

  00000	8b c1		 mov	 eax, ecx

; 427  : 		_Myfirst = 0;

  00002	33 c9		 xor	 ecx, ecx
  00004	89 08		 mov	 DWORD PTR [eax], ecx

; 428  : 		_Mylast = 0;

  00006	89 48 04	 mov	 DWORD PTR [eax+4], ecx

; 429  : 		_Myend = 0;

  00009	89 48 08	 mov	 DWORD PTR [eax+8], ecx

; 430  : 		}

  0000c	c2 04 00	 ret	 4
??0?$_Vector_val@PAVioBaseChar@@V?$allocator@PAVioBaseChar@@@std@@@std@@QAE@V?$allocator@PAVioBaseChar@@@1@@Z ENDP ; std::_Vector_val<ioBaseChar *,std::allocator<ioBaseChar *> >::_Vector_val<ioBaseChar *,std::allocator<ioBaseChar *> >
_TEXT	ENDS
PUBLIC	??0?$_Vector_val@UtagBaseCharDistanceSq@@V?$allocator@UtagBaseCharDistanceSq@@@std@@@std@@QAE@V?$allocator@UtagBaseCharDistanceSq@@@1@@Z ; std::_Vector_val<tagBaseCharDistanceSq,std::allocator<tagBaseCharDistanceSq> >::_Vector_val<tagBaseCharDistanceSq,std::allocator<tagBaseCharDistanceSq> >
; Function compile flags: /Ogsp
;	COMDAT ??0?$_Vector_val@UtagBaseCharDistanceSq@@V?$allocator@UtagBaseCharDistanceSq@@@std@@@std@@QAE@V?$allocator@UtagBaseCharDistanceSq@@@1@@Z
_TEXT	SEGMENT
__Al$ = 8						; size = 1
??0?$_Vector_val@UtagBaseCharDistanceSq@@V?$allocator@UtagBaseCharDistanceSq@@@std@@@std@@QAE@V?$allocator@UtagBaseCharDistanceSq@@@1@@Z PROC ; std::_Vector_val<tagBaseCharDistanceSq,std::allocator<tagBaseCharDistanceSq> >::_Vector_val<tagBaseCharDistanceSq,std::allocator<tagBaseCharDistanceSq> >, COMDAT
; _this$ = ecx

; 426  : 		{	// construct allocator from _Al

  00000	8b c1		 mov	 eax, ecx

; 427  : 		_Myfirst = 0;

  00002	33 c9		 xor	 ecx, ecx
  00004	89 08		 mov	 DWORD PTR [eax], ecx

; 428  : 		_Mylast = 0;

  00006	89 48 04	 mov	 DWORD PTR [eax+4], ecx

; 429  : 		_Myend = 0;

  00009	89 48 08	 mov	 DWORD PTR [eax+8], ecx

; 430  : 		}

  0000c	c2 04 00	 ret	 4
??0?$_Vector_val@UtagBaseCharDistanceSq@@V?$allocator@UtagBaseCharDistanceSq@@@std@@@std@@QAE@V?$allocator@UtagBaseCharDistanceSq@@@1@@Z ENDP ; std::_Vector_val<tagBaseCharDistanceSq,std::allocator<tagBaseCharDistanceSq> >::_Vector_val<tagBaseCharDistanceSq,std::allocator<tagBaseCharDistanceSq> >
_TEXT	ENDS
PUBLIC	??0?$_Vector_iterator@V?$_Vector_val@PAVioBaseChar@@V?$allocator@PAVioBaseChar@@@std@@@std@@@std@@QAE@PAPAVioBaseChar@@PBU_Container_base0@1@@Z ; std::_Vector_iterator<std::_Vector_val<ioBaseChar *,std::allocator<ioBaseChar *> > >::_Vector_iterator<std::_Vector_val<ioBaseChar *,std::allocator<ioBaseChar *> > >
; Function compile flags: /Ogsp
;	COMDAT ??0?$_Vector_iterator@V?$_Vector_val@PAVioBaseChar@@V?$allocator@PAVioBaseChar@@@std@@@std@@@std@@QAE@PAPAVioBaseChar@@PBU_Container_base0@1@@Z
_TEXT	SEGMENT
__Parg$ = 8						; size = 4
__Pvector$ = 12						; size = 4
??0?$_Vector_iterator@V?$_Vector_val@PAVioBaseChar@@V?$allocator@PAVioBaseChar@@@std@@@std@@@std@@QAE@PAPAVioBaseChar@@PBU_Container_base0@1@@Z PROC ; std::_Vector_iterator<std::_Vector_val<ioBaseChar *,std::allocator<ioBaseChar *> > >::_Vector_iterator<std::_Vector_val<ioBaseChar *,std::allocator<ioBaseChar *> > >, COMDAT
; _this$ = ecx

; 304  : 		{	// construct with pointer _Parg

  00000	55		 push	 ebp
  00001	8b ec		 mov	 ebp, esp
  00003	8b c1		 mov	 eax, ecx
  00005	8b 4d 08	 mov	 ecx, DWORD PTR __Parg$[ebp]
  00008	89 08		 mov	 DWORD PTR [eax], ecx

; 305  : 		}

  0000a	5d		 pop	 ebp
  0000b	c2 08 00	 ret	 8
??0?$_Vector_iterator@V?$_Vector_val@PAVioBaseChar@@V?$allocator@PAVioBaseChar@@@std@@@std@@@std@@QAE@PAPAVioBaseChar@@PBU_Container_base0@1@@Z ENDP ; std::_Vector_iterator<std::_Vector_val<ioBaseChar *,std::allocator<ioBaseChar *> > >::_Vector_iterator<std::_Vector_val<ioBaseChar *,std::allocator<ioBaseChar *> > >
_TEXT	ENDS
PUBLIC	??8?$_Vector_const_iterator@V?$_Vector_val@PAVioBaseChar@@V?$allocator@PAVioBaseChar@@@std@@@std@@@std@@QBE_NABV01@@Z ; std::_Vector_const_iterator<std::_Vector_val<ioBaseChar *,std::allocator<ioBaseChar *> > >::operator==
; Function compile flags: /Ogsp
;	COMDAT ??8?$_Vector_const_iterator@V?$_Vector_val@PAVioBaseChar@@V?$allocator@PAVioBaseChar@@@std@@@std@@@std@@QBE_NABV01@@Z
_TEXT	SEGMENT
__Right$ = 8						; size = 4
??8?$_Vector_const_iterator@V?$_Vector_val@PAVioBaseChar@@V?$allocator@PAVioBaseChar@@@std@@@std@@@std@@QBE_NABV01@@Z PROC ; std::_Vector_const_iterator<std::_Vector_val<ioBaseChar *,std::allocator<ioBaseChar *> > >::operator==, COMDAT
; _this$ = ecx

; 201  : 		{	// test for iterator equality

  00000	55		 push	 ebp
  00001	8b ec		 mov	 ebp, esp

; 202  : 		_Compat(_Right);
; 203  : 		return (this->_Ptr == _Right._Ptr);

  00003	8b 01		 mov	 eax, DWORD PTR [ecx]
  00005	8b 4d 08	 mov	 ecx, DWORD PTR __Right$[ebp]
  00008	2b 01		 sub	 eax, DWORD PTR [ecx]
  0000a	f7 d8		 neg	 eax
  0000c	1b c0		 sbb	 eax, eax
  0000e	40		 inc	 eax

; 204  : 		}

  0000f	5d		 pop	 ebp
  00010	c2 04 00	 ret	 4
??8?$_Vector_const_iterator@V?$_Vector_val@PAVioBaseChar@@V?$allocator@PAVioBaseChar@@@std@@@std@@@std@@QBE_NABV01@@Z ENDP ; std::_Vector_const_iterator<std::_Vector_val<ioBaseChar *,std::allocator<ioBaseChar *> > >::operator==
_TEXT	ENDS
PUBLIC	??0?$_Vector_iterator@V?$_Vector_val@UtagBaseCharDistanceSq@@V?$allocator@UtagBaseCharDistanceSq@@@std@@@std@@@std@@QAE@PAUtagBaseCharDistanceSq@@PBU_Container_base0@1@@Z ; std::_Vector_iterator<std::_Vector_val<tagBaseCharDistanceSq,std::allocator<tagBaseCharDistanceSq> > >::_Vector_iterator<std::_Vector_val<tagBaseCharDistanceSq,std::allocator<tagBaseCharDistanceSq> > >
; Function compile flags: /Ogsp
;	COMDAT ??0?$_Vector_iterator@V?$_Vector_val@UtagBaseCharDistanceSq@@V?$allocator@UtagBaseCharDistanceSq@@@std@@@std@@@std@@QAE@PAUtagBaseCharDistanceSq@@PBU_Container_base0@1@@Z
_TEXT	SEGMENT
__Parg$ = 8						; size = 4
__Pvector$ = 12						; size = 4
??0?$_Vector_iterator@V?$_Vector_val@UtagBaseCharDistanceSq@@V?$allocator@UtagBaseCharDistanceSq@@@std@@@std@@@std@@QAE@PAUtagBaseCharDistanceSq@@PBU_Container_base0@1@@Z PROC ; std::_Vector_iterator<std::_Vector_val<tagBaseCharDistanceSq,std::allocator<tagBaseCharDistanceSq> > >::_Vector_iterator<std::_Vector_val<tagBaseCharDistanceSq,std::allocator<tagBaseCharDistanceSq> > >, COMDAT
; _this$ = ecx

; 304  : 		{	// construct with pointer _Parg

  00000	55		 push	 ebp
  00001	8b ec		 mov	 ebp, esp
  00003	8b c1		 mov	 eax, ecx
  00005	8b 4d 08	 mov	 ecx, DWORD PTR __Parg$[ebp]
  00008	89 08		 mov	 DWORD PTR [eax], ecx

; 305  : 		}

  0000a	5d		 pop	 ebp
  0000b	c2 08 00	 ret	 8
??0?$_Vector_iterator@V?$_Vector_val@UtagBaseCharDistanceSq@@V?$allocator@UtagBaseCharDistanceSq@@@std@@@std@@@std@@QAE@PAUtagBaseCharDistanceSq@@PBU_Container_base0@1@@Z ENDP ; std::_Vector_iterator<std::_Vector_val<tagBaseCharDistanceSq,std::allocator<tagBaseCharDistanceSq> > >::_Vector_iterator<std::_Vector_val<tagBaseCharDistanceSq,std::allocator<tagBaseCharDistanceSq> > >
_TEXT	ENDS
PUBLIC	?max_size@?$vector@UtagBaseCharDistanceSq@@V?$allocator@UtagBaseCharDistanceSq@@@std@@@std@@QBEIXZ ; std::vector<tagBaseCharDistanceSq,std::allocator<tagBaseCharDistanceSq> >::max_size
; Function compile flags: /Ogsp
;	COMDAT ?max_size@?$vector@UtagBaseCharDistanceSq@@V?$allocator@UtagBaseCharDistanceSq@@@std@@@std@@QBEIXZ
_TEXT	SEGMENT
?max_size@?$vector@UtagBaseCharDistanceSq@@V?$allocator@UtagBaseCharDistanceSq@@@std@@@std@@QBEIXZ PROC ; std::vector<tagBaseCharDistanceSq,std::allocator<tagBaseCharDistanceSq> >::max_size, COMDAT
; _this$ = ecx

; 884  : 		return (this->_Alval.max_size());

  00000	b8 ff ff ff 07	 mov	 eax, 134217727		; 07ffffffH

; 885  : 		}

  00005	c3		 ret	 0
?max_size@?$vector@UtagBaseCharDistanceSq@@V?$allocator@UtagBaseCharDistanceSq@@@std@@@std@@QBEIXZ ENDP ; std::vector<tagBaseCharDistanceSq,std::allocator<tagBaseCharDistanceSq> >::max_size
_TEXT	ENDS
PUBLIC	?_Grow_to@?$vector@UtagBaseCharDistanceSq@@V?$allocator@UtagBaseCharDistanceSq@@@std@@@std@@IBEII@Z ; std::vector<tagBaseCharDistanceSq,std::allocator<tagBaseCharDistanceSq> >::_Grow_to
; Function compile flags: /Ogsp
;	COMDAT ?_Grow_to@?$vector@UtagBaseCharDistanceSq@@V?$allocator@UtagBaseCharDistanceSq@@@std@@@std@@IBEII@Z
_TEXT	SEGMENT
__Count$ = 8						; size = 4
?_Grow_to@?$vector@UtagBaseCharDistanceSq@@V?$allocator@UtagBaseCharDistanceSq@@@std@@@std@@IBEII@Z PROC ; std::vector<tagBaseCharDistanceSq,std::allocator<tagBaseCharDistanceSq> >::_Grow_to, COMDAT
; _this$ = ecx

; 1274 : 		{	// grow by 50% or at least to _Count

  00000	55		 push	 ebp
  00001	8b ec		 mov	 ebp, esp

; 1275 : 		size_type _Capacity = capacity();

  00003	8b 41 08	 mov	 eax, DWORD PTR [ecx+8]
  00006	2b 01		 sub	 eax, DWORD PTR [ecx]

; 1276 : 
; 1277 : 		_Capacity = max_size() - _Capacity / 2 < _Capacity
; 1278 : 			? 0 : _Capacity + _Capacity / 2;	// try to grow by 50%

  00008	ba ff ff ff 07	 mov	 edx, 134217727		; 07ffffffH
  0000d	c1 f8 05	 sar	 eax, 5
  00010	8b c8		 mov	 ecx, eax
  00012	d1 e9		 shr	 ecx, 1
  00014	2b d1		 sub	 edx, ecx
  00016	3b d0		 cmp	 edx, eax
  00018	73 04		 jae	 SHORT $LN4@Grow_to
  0001a	33 c0		 xor	 eax, eax
  0001c	eb 02		 jmp	 SHORT $LN5@Grow_to
$LN4@Grow_to:
  0001e	03 c1		 add	 eax, ecx
$LN5@Grow_to:

; 1279 : 		if (_Capacity < _Count)

  00020	3b 45 08	 cmp	 eax, DWORD PTR __Count$[ebp]

; 1280 : 			_Capacity = _Count;

  00023	0f 42 45 08	 cmovb	 eax, DWORD PTR __Count$[ebp]

; 1281 : 		return (_Capacity);
; 1282 : 		}

  00027	5d		 pop	 ebp
  00028	c2 04 00	 ret	 4
?_Grow_to@?$vector@UtagBaseCharDistanceSq@@V?$allocator@UtagBaseCharDistanceSq@@@std@@@std@@IBEII@Z ENDP ; std::vector<tagBaseCharDistanceSq,std::allocator<tagBaseCharDistanceSq> >::_Grow_to
_TEXT	ENDS
PUBLIC	?allocate@?$allocator@UtagBaseCharDistanceSq@@@std@@QAEPAUtagBaseCharDistanceSq@@I@Z ; std::allocator<tagBaseCharDistanceSq>::allocate
; Function compile flags: /Ogsp
; File c:\program files (x86)\microsoft visual studio 10.0\vc\include\xmemory
;	COMDAT ?allocate@?$allocator@UtagBaseCharDistanceSq@@@std@@QAEPAUtagBaseCharDistanceSq@@I@Z
_TEXT	SEGMENT
__Count$ = 8						; size = 4
?allocate@?$allocator@UtagBaseCharDistanceSq@@@std@@QAEPAUtagBaseCharDistanceSq@@I@Z PROC ; std::allocator<tagBaseCharDistanceSq>::allocate, COMDAT
; _this$ = ecx

; 186  : 		{	// allocate array of _Count elements

  00000	55		 push	 ebp
  00001	8b ec		 mov	 ebp, esp

; 187  : 		return (_Allocate(_Count, (pointer)0));

  00003	6a 00		 push	 0
  00005	ff 75 08	 push	 DWORD PTR __Count$[ebp]
  00008	e8 00 00 00 00	 call	 ??$_Allocate@UtagBaseCharDistanceSq@@@std@@YAPAUtagBaseCharDistanceSq@@IPAU1@@Z ; std::_Allocate<tagBaseCharDistanceSq>
  0000d	59		 pop	 ecx
  0000e	59		 pop	 ecx

; 188  : 		}

  0000f	5d		 pop	 ebp
  00010	c2 04 00	 ret	 4
?allocate@?$allocator@UtagBaseCharDistanceSq@@@std@@QAEPAUtagBaseCharDistanceSq@@I@Z ENDP ; std::allocator<tagBaseCharDistanceSq>::allocate
_TEXT	ENDS
PUBLIC	_this$GSCopy$
PUBLIC	__$ArrayPad$
PUBLIC	??$LoadString_e@$0BF@@ioINILoader@@QAEXAAY0BF@$$CBDAAY00$$CBDPADH@Z ; ioINILoader::LoadString_e<21>
EXTRN	__imp_?LoadStringA@ioINILoader@@QAEXPBD0PADH@Z:PROC
; Function compile flags: /Ogsp
; File d:\lost saga for developer\youtube\tutorial\source\src\io3dengine\ioiniloader.h
;	COMDAT ??$LoadString_e@$0BF@@ioINILoader@@QAEXAAY0BF@$$CBDAAY00$$CBDPADH@Z
_TEXT	SEGMENT
_this$GSCopy$ = -36					; size = 4
__k$ = -32						; size = 21
__$ArrayPad$ = -4					; size = 4
_k$ = 8							; size = 4
_d$ = 12						; size = 4
_b$ = 16						; size = 4
_i$ = 20						; size = 4
??$LoadString_e@$0BF@@ioINILoader@@QAEXAAY0BF@$$CBDAAY00$$CBDPADH@Z PROC ; ioINILoader::LoadString_e<21>, COMDAT
; _this$ = ecx

; 161  : 	{

  00000	55		 push	 ebp
  00001	8b ec		 mov	 ebp, esp
  00003	83 ec 24	 sub	 esp, 36			; 00000024H
  00006	a1 00 00 00 00	 mov	 eax, DWORD PTR ___security_cookie
  0000b	33 c5		 xor	 eax, ebp
  0000d	89 45 fc	 mov	 DWORD PTR __$ArrayPad$[ebp], eax
  00010	8b 45 08	 mov	 eax, DWORD PTR _k$[ebp]

; 162  : 		_ENCSTR(k, _k);

  00013	8a 10		 mov	 dl, BYTE PTR [eax]
  00015	53		 push	 ebx
  00016	56		 push	 esi
  00017	8b 75 0c	 mov	 esi, DWORD PTR _d$[ebp]
  0001a	57		 push	 edi
  0001b	8b 7d 10	 mov	 edi, DWORD PTR _b$[ebp]
  0001e	89 4d dc	 mov	 DWORD PTR _this$GSCopy$[ebp], ecx
  00021	84 d2		 test	 dl, dl
  00023	0f 84 f7 01 00
	00		 je	 $LN96@LoadString
  00029	80 f2 ed	 xor	 dl, -19			; ffffffedH
  0002c	88 55 e0	 mov	 BYTE PTR __k$[ebp], dl
  0002f	8a 50 01	 mov	 dl, BYTE PTR [eax+1]
  00032	84 d2		 test	 dl, dl
  00034	0f 84 e0 01 00
	00		 je	 $LN95@LoadString
  0003a	b1 ec		 mov	 cl, -20			; ffffffecH
  0003c	32 d1		 xor	 dl, cl
  0003e	88 55 e1	 mov	 BYTE PTR __k$[ebp+1], dl
  00041	8a 50 02	 mov	 dl, BYTE PTR [eax+2]
  00044	84 d2		 test	 dl, dl
  00046	0f 84 c8 01 00
	00		 je	 $LN94@LoadString
  0004c	b3 eb		 mov	 bl, -21			; ffffffebH
  0004e	32 d3		 xor	 dl, bl
  00050	88 55 e2	 mov	 BYTE PTR __k$[ebp+2], dl
  00053	8a 50 03	 mov	 dl, BYTE PTR [eax+3]
  00056	84 d2		 test	 dl, dl
  00058	0f 84 b0 01 00
	00		 je	 $LN93@LoadString
  0005e	80 f2 ea	 xor	 dl, -22			; ffffffeaH
  00061	88 55 e3	 mov	 BYTE PTR __k$[ebp+3], dl
  00064	8a 50 04	 mov	 dl, BYTE PTR [eax+4]
  00067	84 d2		 test	 dl, dl
  00069	0f 84 99 01 00
	00		 je	 $LN92@LoadString
  0006f	80 f2 ed	 xor	 dl, -19			; ffffffedH
  00072	88 55 e4	 mov	 BYTE PTR __k$[ebp+4], dl
  00075	8a 50 05	 mov	 dl, BYTE PTR [eax+5]
  00078	84 d2		 test	 dl, dl
  0007a	0f 84 83 01 00
	00		 je	 $LN91@LoadString
  00080	32 d1		 xor	 dl, cl
  00082	88 55 e5	 mov	 BYTE PTR __k$[ebp+5], dl
  00085	8a 50 06	 mov	 dl, BYTE PTR [eax+6]
  00088	84 d2		 test	 dl, dl
  0008a	0f 84 6e 01 00
	00		 je	 $LN90@LoadString
  00090	32 d3		 xor	 dl, bl
  00092	88 55 e6	 mov	 BYTE PTR __k$[ebp+6], dl
  00095	8a 50 07	 mov	 dl, BYTE PTR [eax+7]
  00098	84 d2		 test	 dl, dl
  0009a	0f 84 58 01 00
	00		 je	 $LN89@LoadString
  000a0	80 f2 ea	 xor	 dl, -22			; ffffffeaH
  000a3	88 55 e7	 mov	 BYTE PTR __k$[ebp+7], dl
  000a6	8a 50 08	 mov	 dl, BYTE PTR [eax+8]
  000a9	84 d2		 test	 dl, dl
  000ab	0f 84 41 01 00
	00		 je	 $LN88@LoadString
  000b1	80 f2 ed	 xor	 dl, -19			; ffffffedH
  000b4	88 55 e8	 mov	 BYTE PTR __k$[ebp+8], dl
  000b7	8a 50 09	 mov	 dl, BYTE PTR [eax+9]
  000ba	84 d2		 test	 dl, dl
  000bc	0f 84 2b 01 00
	00		 je	 $LN87@LoadString
  000c2	32 d1		 xor	 dl, cl
  000c4	88 55 e9	 mov	 BYTE PTR __k$[ebp+9], dl
  000c7	8a 50 0a	 mov	 dl, BYTE PTR [eax+10]
  000ca	84 d2		 test	 dl, dl
  000cc	0f 84 16 01 00
	00		 je	 $LN86@LoadString
  000d2	32 d3		 xor	 dl, bl
  000d4	88 55 ea	 mov	 BYTE PTR __k$[ebp+10], dl
  000d7	8a 50 0b	 mov	 dl, BYTE PTR [eax+11]
  000da	84 d2		 test	 dl, dl
  000dc	0f 84 00 01 00
	00		 je	 $LN85@LoadString
  000e2	80 f2 ea	 xor	 dl, -22			; ffffffeaH
  000e5	88 55 eb	 mov	 BYTE PTR __k$[ebp+11], dl
  000e8	8a 50 0c	 mov	 dl, BYTE PTR [eax+12]
  000eb	84 d2		 test	 dl, dl
  000ed	0f 84 e9 00 00
	00		 je	 $LN84@LoadString
  000f3	80 f2 ed	 xor	 dl, -19			; ffffffedH
  000f6	88 55 ec	 mov	 BYTE PTR __k$[ebp+12], dl
  000f9	8a 50 0d	 mov	 dl, BYTE PTR [eax+13]
  000fc	84 d2		 test	 dl, dl
  000fe	0f 84 d3 00 00
	00		 je	 $LN83@LoadString
  00104	32 d1		 xor	 dl, cl
  00106	88 55 ed	 mov	 BYTE PTR __k$[ebp+13], dl
  00109	8a 50 0e	 mov	 dl, BYTE PTR [eax+14]
  0010c	84 d2		 test	 dl, dl
  0010e	0f 84 be 00 00
	00		 je	 $LN82@LoadString
  00114	32 d3		 xor	 dl, bl
  00116	88 55 ee	 mov	 BYTE PTR __k$[ebp+14], dl
  00119	8a 50 0f	 mov	 dl, BYTE PTR [eax+15]
  0011c	84 d2		 test	 dl, dl
  0011e	0f 84 a8 00 00
	00		 je	 $LN81@LoadString
  00124	80 f2 ea	 xor	 dl, -22			; ffffffeaH
  00127	88 55 ef	 mov	 BYTE PTR __k$[ebp+15], dl
  0012a	8a 50 10	 mov	 dl, BYTE PTR [eax+16]
  0012d	84 d2		 test	 dl, dl
  0012f	0f 84 91 00 00
	00		 je	 $LN80@LoadString
  00135	80 f2 ed	 xor	 dl, -19			; ffffffedH
  00138	88 55 f0	 mov	 BYTE PTR __k$[ebp+16], dl
  0013b	8a 50 11	 mov	 dl, BYTE PTR [eax+17]
  0013e	84 d2		 test	 dl, dl
  00140	74 7f		 je	 SHORT $LN79@LoadString
  00142	32 d1		 xor	 dl, cl
  00144	88 55 f1	 mov	 BYTE PTR __k$[ebp+17], dl
  00147	8a 50 12	 mov	 dl, BYTE PTR [eax+18]
  0014a	84 d2		 test	 dl, dl
  0014c	74 6e		 je	 SHORT $LN78@LoadString
  0014e	32 d3		 xor	 dl, bl
  00150	88 55 f2	 mov	 BYTE PTR __k$[ebp+18], dl
  00153	8a 50 13	 mov	 dl, BYTE PTR [eax+19]
  00156	84 d2		 test	 dl, dl
  00158	74 5c		 je	 SHORT $LN77@LoadString
  0015a	80 f2 ea	 xor	 dl, -22			; ffffffeaH
  0015d	80 78 14 00	 cmp	 BYTE PTR [eax+20], 0
  00161	88 55 f3	 mov	 BYTE PTR __k$[ebp+19], dl
  00164	0f 84 ba 00 00
	00		 je	 $LN111@LoadString
  0016a	8a 50 15	 mov	 dl, BYTE PTR [eax+21]
  0016d	84 d2		 test	 dl, dl
  0016f	74 40		 je	 SHORT $LN75@LoadString
  00171	32 d1		 xor	 dl, cl
  00173	88 55 f5	 mov	 BYTE PTR __k$[ebp+21], dl
  00176	8a 50 16	 mov	 dl, BYTE PTR [eax+22]
  00179	84 d2		 test	 dl, dl
  0017b	74 2f		 je	 SHORT $LN74@LoadString
  0017d	32 d3		 xor	 dl, bl
  0017f	88 55 f6	 mov	 BYTE PTR __k$[ebp+22], dl
  00182	8a 50 17	 mov	 dl, BYTE PTR [eax+23]
  00185	84 d2		 test	 dl, dl
  00187	74 1d		 je	 SHORT $LN73@LoadString
  00189	8a 40 18	 mov	 al, BYTE PTR [eax+24]
  0018c	80 f2 ea	 xor	 dl, -22			; ffffffeaH
  0018f	88 55 f7	 mov	 BYTE PTR __k$[ebp+23], dl
  00192	84 c0		 test	 al, al
  00194	74 0a		 je	 SHORT $LN72@LoadString
  00196	34 ed		 xor	 al, -19			; ffffffedH
  00198	88 45 f8	 mov	 BYTE PTR __k$[ebp+24], al
  0019b	e9 84 00 00 00	 jmp	 $LN111@LoadString
$LN72@LoadString:
  001a0	c6 45 f8 ed	 mov	 BYTE PTR __k$[ebp+24], -19 ; ffffffedH
  001a4	eb 7e		 jmp	 SHORT $LN111@LoadString
$LN73@LoadString:
  001a6	c6 45 f7 ea	 mov	 BYTE PTR __k$[ebp+23], -22 ; ffffffeaH
  001aa	eb 78		 jmp	 SHORT $LN111@LoadString
$LN74@LoadString:
  001ac	88 5d f6	 mov	 BYTE PTR __k$[ebp+22], bl
  001af	eb 73		 jmp	 SHORT $LN111@LoadString
$LN75@LoadString:
  001b1	88 4d f5	 mov	 BYTE PTR __k$[ebp+21], cl
  001b4	eb 6e		 jmp	 SHORT $LN111@LoadString
$LN77@LoadString:
  001b6	c6 45 f3 ea	 mov	 BYTE PTR __k$[ebp+19], -22 ; ffffffeaH
  001ba	eb 68		 jmp	 SHORT $LN111@LoadString
$LN78@LoadString:
  001bc	88 5d f2	 mov	 BYTE PTR __k$[ebp+18], bl
  001bf	eb 63		 jmp	 SHORT $LN111@LoadString
$LN79@LoadString:
  001c1	88 4d f1	 mov	 BYTE PTR __k$[ebp+17], cl
  001c4	eb 5e		 jmp	 SHORT $LN111@LoadString
$LN80@LoadString:
  001c6	c6 45 f0 ed	 mov	 BYTE PTR __k$[ebp+16], -19 ; ffffffedH
  001ca	eb 58		 jmp	 SHORT $LN111@LoadString
$LN81@LoadString:
  001cc	c6 45 ef ea	 mov	 BYTE PTR __k$[ebp+15], -22 ; ffffffeaH
  001d0	eb 52		 jmp	 SHORT $LN111@LoadString
$LN82@LoadString:
  001d2	88 5d ee	 mov	 BYTE PTR __k$[ebp+14], bl
  001d5	eb 4d		 jmp	 SHORT $LN111@LoadString
$LN83@LoadString:
  001d7	88 4d ed	 mov	 BYTE PTR __k$[ebp+13], cl
  001da	eb 48		 jmp	 SHORT $LN111@LoadString
$LN84@LoadString:
  001dc	c6 45 ec ed	 mov	 BYTE PTR __k$[ebp+12], -19 ; ffffffedH
  001e0	eb 42		 jmp	 SHORT $LN111@LoadString
$LN85@LoadString:
  001e2	c6 45 eb ea	 mov	 BYTE PTR __k$[ebp+11], -22 ; ffffffeaH
  001e6	eb 3c		 jmp	 SHORT $LN111@LoadString
$LN86@LoadString:
  001e8	88 5d ea	 mov	 BYTE PTR __k$[ebp+10], bl
  001eb	eb 37		 jmp	 SHORT $LN111@LoadString
$LN87@LoadString:
  001ed	88 4d e9	 mov	 BYTE PTR __k$[ebp+9], cl
  001f0	eb 32		 jmp	 SHORT $LN111@LoadString
$LN88@LoadString:
  001f2	c6 45 e8 ed	 mov	 BYTE PTR __k$[ebp+8], -19 ; ffffffedH
  001f6	eb 2c		 jmp	 SHORT $LN111@LoadString
$LN89@LoadString:
  001f8	c6 45 e7 ea	 mov	 BYTE PTR __k$[ebp+7], -22 ; ffffffeaH
  001fc	eb 26		 jmp	 SHORT $LN111@LoadString
$LN90@LoadString:
  001fe	88 5d e6	 mov	 BYTE PTR __k$[ebp+6], bl
  00201	eb 21		 jmp	 SHORT $LN111@LoadString
$LN91@LoadString:
  00203	88 4d e5	 mov	 BYTE PTR __k$[ebp+5], cl
  00206	eb 1c		 jmp	 SHORT $LN111@LoadString
$LN92@LoadString:
  00208	c6 45 e4 ed	 mov	 BYTE PTR __k$[ebp+4], -19 ; ffffffedH
  0020c	eb 16		 jmp	 SHORT $LN111@LoadString
$LN93@LoadString:
  0020e	c6 45 e3 ea	 mov	 BYTE PTR __k$[ebp+3], -22 ; ffffffeaH
  00212	eb 10		 jmp	 SHORT $LN111@LoadString
$LN94@LoadString:
  00214	c6 45 e2 eb	 mov	 BYTE PTR __k$[ebp+2], -21 ; ffffffebH
  00218	eb 0a		 jmp	 SHORT $LN111@LoadString
$LN95@LoadString:
  0021a	c6 45 e1 ec	 mov	 BYTE PTR __k$[ebp+1], -20 ; ffffffecH
  0021e	eb 04		 jmp	 SHORT $LN111@LoadString
$LN96@LoadString:
  00220	c6 45 e0 ed	 mov	 BYTE PTR __k$[ebp], -19	; ffffffedH
$LN111@LoadString:
  00224	6a 05		 push	 5
  00226	8d 45 e0	 lea	 eax, DWORD PTR __k$[ebp]
  00229	c6 45 f4 00	 mov	 BYTE PTR __k$[ebp+20], 0
  0022d	5a		 pop	 edx
$LL104@LoadString:
  0022e	81 30 ed ec eb
	ea		 xor	 DWORD PTR [eax], -353637139 ; eaebecedH
  00234	83 c0 04	 add	 eax, 4
  00237	4a		 dec	 edx
  00238	75 f4		 jne	 SHORT $LL104@LoadString

; 163  : 		LoadString(_k, d, b, i);

  0023a	ff 75 14	 push	 DWORD PTR _i$[ebp]
  0023d	8b 4d dc	 mov	 ecx, DWORD PTR _this$GSCopy$[ebp]
  00240	57		 push	 edi
  00241	56		 push	 esi
  00242	8d 45 e0	 lea	 eax, DWORD PTR __k$[ebp]
  00245	50		 push	 eax
  00246	ff 15 00 00 00
	00		 call	 DWORD PTR __imp_?LoadStringA@ioINILoader@@QAEXPBD0PADH@Z

; 164  : 	}

  0024c	8b 4d fc	 mov	 ecx, DWORD PTR __$ArrayPad$[ebp]
  0024f	5f		 pop	 edi
  00250	5e		 pop	 esi
  00251	33 cd		 xor	 ecx, ebp
  00253	5b		 pop	 ebx
  00254	e8 00 00 00 00	 call	 @__security_check_cookie@4
  00259	c9		 leave
  0025a	c2 10 00	 ret	 16			; 00000010H
??$LoadString_e@$0BF@@ioINILoader@@QAEXAAY0BF@$$CBDAAY00$$CBDPADH@Z ENDP ; ioINILoader::LoadString_e<21>
_TEXT	ENDS
PUBLIC	__$ArrayPad$
PUBLIC	??$LoadFloat_e@$0BK@@ioINILoader@@QAEMAAY0BK@$$CBDM@Z ; ioINILoader::LoadFloat_e<26>
EXTRN	__imp_?LoadFloat@ioINILoader@@QAEMPBDM@Z:PROC
; Function compile flags: /Ogsp
;	COMDAT ??$LoadFloat_e@$0BK@@ioINILoader@@QAEMAAY0BK@$$CBDM@Z
_TEXT	SEGMENT
__k$ = -36						; size = 26
__$ArrayPad$ = -4					; size = 4
_k$ = 8							; size = 4
_f$ = 12						; size = 4
??$LoadFloat_e@$0BK@@ioINILoader@@QAEMAAY0BK@$$CBDM@Z PROC ; ioINILoader::LoadFloat_e<26>, COMDAT
; _this$ = ecx

; 135  : 	{

  00000	55		 push	 ebp
  00001	8b ec		 mov	 ebp, esp
  00003	83 ec 24	 sub	 esp, 36			; 00000024H
  00006	a1 00 00 00 00	 mov	 eax, DWORD PTR ___security_cookie
  0000b	33 c5		 xor	 eax, ebp
  0000d	89 45 fc	 mov	 DWORD PTR __$ArrayPad$[ebp], eax
  00010	8b 45 08	 mov	 eax, DWORD PTR _k$[ebp]

; 136  : 		_ENCSTR(k, _k);

  00013	8a 10		 mov	 dl, BYTE PTR [eax]
  00015	53		 push	 ebx
  00016	56		 push	 esi
  00017	8b f1		 mov	 esi, ecx
  00019	84 d2		 test	 dl, dl
  0001b	0f 84 79 02 00
	00		 je	 $LN96@LoadFloat_
  00021	80 f2 ed	 xor	 dl, -19			; ffffffedH
  00024	88 55 dc	 mov	 BYTE PTR __k$[ebp], dl
  00027	8a 50 01	 mov	 dl, BYTE PTR [eax+1]
  0002a	84 d2		 test	 dl, dl
  0002c	0f 84 62 02 00
	00		 je	 $LN95@LoadFloat_
  00032	80 f2 ec	 xor	 dl, -20			; ffffffecH
  00035	88 55 dd	 mov	 BYTE PTR __k$[ebp+1], dl
  00038	8a 50 02	 mov	 dl, BYTE PTR [eax+2]
  0003b	84 d2		 test	 dl, dl
  0003d	0f 84 4b 02 00
	00		 je	 $LN94@LoadFloat_
  00043	b1 eb		 mov	 cl, -21			; ffffffebH
  00045	32 d1		 xor	 dl, cl
  00047	88 55 de	 mov	 BYTE PTR __k$[ebp+2], dl
  0004a	8a 50 03	 mov	 dl, BYTE PTR [eax+3]
  0004d	84 d2		 test	 dl, dl
  0004f	0f 84 33 02 00
	00		 je	 $LN93@LoadFloat_
  00055	b3 ea		 mov	 bl, -22			; ffffffeaH
  00057	32 d3		 xor	 dl, bl
  00059	88 55 df	 mov	 BYTE PTR __k$[ebp+3], dl
  0005c	8a 50 04	 mov	 dl, BYTE PTR [eax+4]
  0005f	84 d2		 test	 dl, dl
  00061	0f 84 1b 02 00
	00		 je	 $LN92@LoadFloat_
  00067	80 f2 ed	 xor	 dl, -19			; ffffffedH
  0006a	88 55 e0	 mov	 BYTE PTR __k$[ebp+4], dl
  0006d	8a 50 05	 mov	 dl, BYTE PTR [eax+5]
  00070	84 d2		 test	 dl, dl
  00072	0f 84 04 02 00
	00		 je	 $LN91@LoadFloat_
  00078	80 f2 ec	 xor	 dl, -20			; ffffffecH
  0007b	88 55 e1	 mov	 BYTE PTR __k$[ebp+5], dl
  0007e	8a 50 06	 mov	 dl, BYTE PTR [eax+6]
  00081	84 d2		 test	 dl, dl
  00083	0f 84 ee 01 00
	00		 je	 $LN90@LoadFloat_
  00089	32 d1		 xor	 dl, cl
  0008b	88 55 e2	 mov	 BYTE PTR __k$[ebp+6], dl
  0008e	8a 50 07	 mov	 dl, BYTE PTR [eax+7]
  00091	84 d2		 test	 dl, dl
  00093	0f 84 d9 01 00
	00		 je	 $LN89@LoadFloat_
  00099	32 d3		 xor	 dl, bl
  0009b	88 55 e3	 mov	 BYTE PTR __k$[ebp+7], dl
  0009e	8a 50 08	 mov	 dl, BYTE PTR [eax+8]
  000a1	84 d2		 test	 dl, dl
  000a3	0f 84 c3 01 00
	00		 je	 $LN88@LoadFloat_
  000a9	80 f2 ed	 xor	 dl, -19			; ffffffedH
  000ac	88 55 e4	 mov	 BYTE PTR __k$[ebp+8], dl
  000af	8a 50 09	 mov	 dl, BYTE PTR [eax+9]
  000b2	84 d2		 test	 dl, dl
  000b4	0f 84 ac 01 00
	00		 je	 $LN87@LoadFloat_
  000ba	80 f2 ec	 xor	 dl, -20			; ffffffecH
  000bd	88 55 e5	 mov	 BYTE PTR __k$[ebp+9], dl
  000c0	8a 50 0a	 mov	 dl, BYTE PTR [eax+10]
  000c3	84 d2		 test	 dl, dl
  000c5	0f 84 96 01 00
	00		 je	 $LN86@LoadFloat_
  000cb	32 d1		 xor	 dl, cl
  000cd	88 55 e6	 mov	 BYTE PTR __k$[ebp+10], dl
  000d0	8a 50 0b	 mov	 dl, BYTE PTR [eax+11]
  000d3	84 d2		 test	 dl, dl
  000d5	0f 84 81 01 00
	00		 je	 $LN85@LoadFloat_
  000db	32 d3		 xor	 dl, bl
  000dd	88 55 e7	 mov	 BYTE PTR __k$[ebp+11], dl
  000e0	8a 50 0c	 mov	 dl, BYTE PTR [eax+12]
  000e3	84 d2		 test	 dl, dl
  000e5	0f 84 6b 01 00
	00		 je	 $LN84@LoadFloat_
  000eb	80 f2 ed	 xor	 dl, -19			; ffffffedH
  000ee	88 55 e8	 mov	 BYTE PTR __k$[ebp+12], dl
  000f1	8a 50 0d	 mov	 dl, BYTE PTR [eax+13]
  000f4	84 d2		 test	 dl, dl
  000f6	0f 84 54 01 00
	00		 je	 $LN83@LoadFloat_
  000fc	80 f2 ec	 xor	 dl, -20			; ffffffecH
  000ff	88 55 e9	 mov	 BYTE PTR __k$[ebp+13], dl
  00102	8a 50 0e	 mov	 dl, BYTE PTR [eax+14]
  00105	84 d2		 test	 dl, dl
  00107	0f 84 3e 01 00
	00		 je	 $LN82@LoadFloat_
  0010d	32 d1		 xor	 dl, cl
  0010f	88 55 ea	 mov	 BYTE PTR __k$[ebp+14], dl
  00112	8a 50 0f	 mov	 dl, BYTE PTR [eax+15]
  00115	84 d2		 test	 dl, dl
  00117	0f 84 29 01 00
	00		 je	 $LN81@LoadFloat_
  0011d	32 d3		 xor	 dl, bl
  0011f	88 55 eb	 mov	 BYTE PTR __k$[ebp+15], dl
  00122	8a 50 10	 mov	 dl, BYTE PTR [eax+16]
  00125	84 d2		 test	 dl, dl
  00127	0f 84 13 01 00
	00		 je	 $LN80@LoadFloat_
  0012d	80 f2 ed	 xor	 dl, -19			; ffffffedH
  00130	88 55 ec	 mov	 BYTE PTR __k$[ebp+16], dl
  00133	8a 50 11	 mov	 dl, BYTE PTR [eax+17]
  00136	84 d2		 test	 dl, dl
  00138	0f 84 fc 00 00
	00		 je	 $LN79@LoadFloat_
  0013e	80 f2 ec	 xor	 dl, -20			; ffffffecH
  00141	88 55 ed	 mov	 BYTE PTR __k$[ebp+17], dl
  00144	8a 50 12	 mov	 dl, BYTE PTR [eax+18]
  00147	84 d2		 test	 dl, dl
  00149	0f 84 e6 00 00
	00		 je	 $LN78@LoadFloat_
  0014f	32 d1		 xor	 dl, cl
  00151	88 55 ee	 mov	 BYTE PTR __k$[ebp+18], dl
  00154	8a 50 13	 mov	 dl, BYTE PTR [eax+19]
  00157	84 d2		 test	 dl, dl
  00159	0f 84 d1 00 00
	00		 je	 $LN77@LoadFloat_
  0015f	32 d3		 xor	 dl, bl
  00161	88 55 ef	 mov	 BYTE PTR __k$[ebp+19], dl
  00164	8a 50 14	 mov	 dl, BYTE PTR [eax+20]
  00167	84 d2		 test	 dl, dl
  00169	0f 84 bb 00 00
	00		 je	 $LN76@LoadFloat_
  0016f	80 f2 ed	 xor	 dl, -19			; ffffffedH
  00172	88 55 f0	 mov	 BYTE PTR __k$[ebp+20], dl
  00175	8a 50 15	 mov	 dl, BYTE PTR [eax+21]
  00178	84 d2		 test	 dl, dl
  0017a	0f 84 a4 00 00
	00		 je	 $LN75@LoadFloat_
  00180	80 f2 ec	 xor	 dl, -20			; ffffffecH
  00183	88 55 f1	 mov	 BYTE PTR __k$[ebp+21], dl
  00186	8a 50 16	 mov	 dl, BYTE PTR [eax+22]
  00189	84 d2		 test	 dl, dl
  0018b	0f 84 8e 00 00
	00		 je	 $LN74@LoadFloat_
  00191	32 d1		 xor	 dl, cl
  00193	88 55 f2	 mov	 BYTE PTR __k$[ebp+22], dl
  00196	8a 50 17	 mov	 dl, BYTE PTR [eax+23]
  00199	84 d2		 test	 dl, dl
  0019b	74 7d		 je	 SHORT $LN73@LoadFloat_
  0019d	32 d3		 xor	 dl, bl
  0019f	88 55 f3	 mov	 BYTE PTR __k$[ebp+23], dl
  001a2	8a 50 18	 mov	 dl, BYTE PTR [eax+24]
  001a5	84 d2		 test	 dl, dl
  001a7	74 68		 je	 SHORT $LN72@LoadFloat_
  001a9	80 f2 ed	 xor	 dl, -19			; ffffffedH
  001ac	80 78 19 00	 cmp	 BYTE PTR [eax+25], 0
  001b0	88 55 f4	 mov	 BYTE PTR __k$[ebp+24], dl
  001b3	0f 84 e5 00 00
	00		 je	 $LN1@LoadFloat_
  001b9	8a 50 1a	 mov	 dl, BYTE PTR [eax+26]
  001bc	84 d2		 test	 dl, dl
  001be	74 49		 je	 SHORT $LN70@LoadFloat_
  001c0	32 d1		 xor	 dl, cl
  001c2	88 55 f6	 mov	 BYTE PTR __k$[ebp+26], dl
  001c5	8a 50 1b	 mov	 dl, BYTE PTR [eax+27]
  001c8	84 d2		 test	 dl, dl
  001ca	74 35		 je	 SHORT $LN69@LoadFloat_
  001cc	32 d3		 xor	 dl, bl
  001ce	88 55 f7	 mov	 BYTE PTR __k$[ebp+27], dl
  001d1	8a 50 1c	 mov	 dl, BYTE PTR [eax+28]
  001d4	84 d2		 test	 dl, dl
  001d6	74 20		 je	 SHORT $LN68@LoadFloat_
  001d8	8a 40 1d	 mov	 al, BYTE PTR [eax+29]
  001db	80 f2 ed	 xor	 dl, -19			; ffffffedH
  001de	88 55 f8	 mov	 BYTE PTR __k$[ebp+28], dl
  001e1	84 c0		 test	 al, al
  001e3	74 0a		 je	 SHORT $LN67@LoadFloat_
  001e5	34 ec		 xor	 al, -20			; ffffffecH
  001e7	88 45 f9	 mov	 BYTE PTR __k$[ebp+29], al
  001ea	e9 af 00 00 00	 jmp	 $LN1@LoadFloat_
$LN67@LoadFloat_:
  001ef	c6 45 f9 ec	 mov	 BYTE PTR __k$[ebp+29], -20 ; ffffffecH
  001f3	e9 a6 00 00 00	 jmp	 $LN1@LoadFloat_
$LN68@LoadFloat_:
  001f8	c6 45 f8 ed	 mov	 BYTE PTR __k$[ebp+28], -19 ; ffffffedH
  001fc	e9 9d 00 00 00	 jmp	 $LN1@LoadFloat_
$LN69@LoadFloat_:
  00201	88 5d f7	 mov	 BYTE PTR __k$[ebp+27], bl
  00204	e9 95 00 00 00	 jmp	 $LN1@LoadFloat_
$LN70@LoadFloat_:
  00209	88 4d f6	 mov	 BYTE PTR __k$[ebp+26], cl
  0020c	e9 8d 00 00 00	 jmp	 $LN1@LoadFloat_
$LN72@LoadFloat_:
  00211	c6 45 f4 ed	 mov	 BYTE PTR __k$[ebp+24], -19 ; ffffffedH
  00215	e9 84 00 00 00	 jmp	 $LN1@LoadFloat_
$LN73@LoadFloat_:
  0021a	88 5d f3	 mov	 BYTE PTR __k$[ebp+23], bl
  0021d	eb 7f		 jmp	 SHORT $LN1@LoadFloat_
$LN74@LoadFloat_:
  0021f	88 4d f2	 mov	 BYTE PTR __k$[ebp+22], cl
  00222	eb 7a		 jmp	 SHORT $LN1@LoadFloat_
$LN75@LoadFloat_:
  00224	c6 45 f1 ec	 mov	 BYTE PTR __k$[ebp+21], -20 ; ffffffecH
  00228	eb 74		 jmp	 SHORT $LN1@LoadFloat_
$LN76@LoadFloat_:
  0022a	c6 45 f0 ed	 mov	 BYTE PTR __k$[ebp+20], -19 ; ffffffedH
  0022e	eb 6e		 jmp	 SHORT $LN1@LoadFloat_
$LN77@LoadFloat_:
  00230	88 5d ef	 mov	 BYTE PTR __k$[ebp+19], bl
  00233	eb 69		 jmp	 SHORT $LN1@LoadFloat_
$LN78@LoadFloat_:
  00235	88 4d ee	 mov	 BYTE PTR __k$[ebp+18], cl
  00238	eb 64		 jmp	 SHORT $LN1@LoadFloat_
$LN79@LoadFloat_:
  0023a	c6 45 ed ec	 mov	 BYTE PTR __k$[ebp+17], -20 ; ffffffecH
  0023e	eb 5e		 jmp	 SHORT $LN1@LoadFloat_
$LN80@LoadFloat_:
  00240	c6 45 ec ed	 mov	 BYTE PTR __k$[ebp+16], -19 ; ffffffedH
  00244	eb 58		 jmp	 SHORT $LN1@LoadFloat_
$LN81@LoadFloat_:
  00246	88 5d eb	 mov	 BYTE PTR __k$[ebp+15], bl
  00249	eb 53		 jmp	 SHORT $LN1@LoadFloat_
$LN82@LoadFloat_:
  0024b	88 4d ea	 mov	 BYTE PTR __k$[ebp+14], cl
  0024e	eb 4e		 jmp	 SHORT $LN1@LoadFloat_
$LN83@LoadFloat_:
  00250	c6 45 e9 ec	 mov	 BYTE PTR __k$[ebp+13], -20 ; ffffffecH
  00254	eb 48		 jmp	 SHORT $LN1@LoadFloat_
$LN84@LoadFloat_:
  00256	c6 45 e8 ed	 mov	 BYTE PTR __k$[ebp+12], -19 ; ffffffedH
  0025a	eb 42		 jmp	 SHORT $LN1@LoadFloat_
$LN85@LoadFloat_:
  0025c	88 5d e7	 mov	 BYTE PTR __k$[ebp+11], bl
  0025f	eb 3d		 jmp	 SHORT $LN1@LoadFloat_
$LN86@LoadFloat_:
  00261	88 4d e6	 mov	 BYTE PTR __k$[ebp+10], cl
  00264	eb 38		 jmp	 SHORT $LN1@LoadFloat_
$LN87@LoadFloat_:
  00266	c6 45 e5 ec	 mov	 BYTE PTR __k$[ebp+9], -20 ; ffffffecH
  0026a	eb 32		 jmp	 SHORT $LN1@LoadFloat_
$LN88@LoadFloat_:
  0026c	c6 45 e4 ed	 mov	 BYTE PTR __k$[ebp+8], -19 ; ffffffedH
  00270	eb 2c		 jmp	 SHORT $LN1@LoadFloat_
$LN89@LoadFloat_:
  00272	88 5d e3	 mov	 BYTE PTR __k$[ebp+7], bl
  00275	eb 27		 jmp	 SHORT $LN1@LoadFloat_
$LN90@LoadFloat_:
  00277	88 4d e2	 mov	 BYTE PTR __k$[ebp+6], cl
  0027a	eb 22		 jmp	 SHORT $LN1@LoadFloat_
$LN91@LoadFloat_:
  0027c	c6 45 e1 ec	 mov	 BYTE PTR __k$[ebp+5], -20 ; ffffffecH
  00280	eb 1c		 jmp	 SHORT $LN1@LoadFloat_
$LN92@LoadFloat_:
  00282	c6 45 e0 ed	 mov	 BYTE PTR __k$[ebp+4], -19 ; ffffffedH
  00286	eb 16		 jmp	 SHORT $LN1@LoadFloat_
$LN93@LoadFloat_:
  00288	c6 45 df ea	 mov	 BYTE PTR __k$[ebp+3], -22 ; ffffffeaH
  0028c	eb 10		 jmp	 SHORT $LN1@LoadFloat_
$LN94@LoadFloat_:
  0028e	c6 45 de eb	 mov	 BYTE PTR __k$[ebp+2], -21 ; ffffffebH
  00292	eb 0a		 jmp	 SHORT $LN1@LoadFloat_
$LN95@LoadFloat_:
  00294	c6 45 dd ec	 mov	 BYTE PTR __k$[ebp+1], -20 ; ffffffecH
  00298	eb 04		 jmp	 SHORT $LN1@LoadFloat_
$LN96@LoadFloat_:
  0029a	c6 45 dc ed	 mov	 BYTE PTR __k$[ebp], -19	; ffffffedH
$LN1@LoadFloat_:
  0029e	6a 06		 push	 6
  002a0	8d 45 dc	 lea	 eax, DWORD PTR __k$[ebp]
  002a3	c6 45 f5 00	 mov	 BYTE PTR __k$[ebp+25], 0
  002a7	5a		 pop	 edx
$LL104@LoadFloat_:
  002a8	81 30 ed ec eb
	ea		 xor	 DWORD PTR [eax], -353637139 ; eaebecedH
  002ae	83 c0 04	 add	 eax, 4
  002b1	4a		 dec	 edx
  002b2	75 f4		 jne	 SHORT $LL104@LoadFloat_

; 137  : 		return LoadFloat(_k, f);

  002b4	f3 0f 10 45 0c	 movss	 xmm0, DWORD PTR _f$[ebp]
  002b9	80 75 f4 ed	 xor	 BYTE PTR __k$[ebp+24], -19 ; ffffffedH
  002bd	51		 push	 ecx
  002be	8d 45 dc	 lea	 eax, DWORD PTR __k$[ebp]
  002c1	f3 0f 11 04 24	 movss	 DWORD PTR [esp], xmm0
  002c6	50		 push	 eax
  002c7	8b ce		 mov	 ecx, esi
  002c9	ff 15 00 00 00
	00		 call	 DWORD PTR __imp_?LoadFloat@ioINILoader@@QAEMPBDM@Z

; 138  : 	}

  002cf	8b 4d fc	 mov	 ecx, DWORD PTR __$ArrayPad$[ebp]
  002d2	5e		 pop	 esi
  002d3	33 cd		 xor	 ecx, ebp
  002d5	5b		 pop	 ebx
  002d6	e8 00 00 00 00	 call	 @__security_check_cookie@4
  002db	c9		 leave
  002dc	c2 08 00	 ret	 8
??$LoadFloat_e@$0BK@@ioINILoader@@QAEMAAY0BK@$$CBDM@Z ENDP ; ioINILoader::LoadFloat_e<26>
_TEXT	ENDS
PUBLIC	_this$GSCopy$
PUBLIC	__$ArrayPad$
PUBLIC	??$LoadString_e@$0BG@@ioINILoader@@QAEXAAY0BG@$$CBDAAY00$$CBDPADH@Z ; ioINILoader::LoadString_e<22>
; Function compile flags: /Ogsp
;	COMDAT ??$LoadString_e@$0BG@@ioINILoader@@QAEXAAY0BG@$$CBDAAY00$$CBDPADH@Z
_TEXT	SEGMENT
_this$GSCopy$ = -36					; size = 4
__k$ = -32						; size = 22
__$ArrayPad$ = -4					; size = 4
_k$ = 8							; size = 4
_d$ = 12						; size = 4
_b$ = 16						; size = 4
_i$ = 20						; size = 4
??$LoadString_e@$0BG@@ioINILoader@@QAEXAAY0BG@$$CBDAAY00$$CBDPADH@Z PROC ; ioINILoader::LoadString_e<22>, COMDAT
; _this$ = ecx

; 161  : 	{

  00000	55		 push	 ebp
  00001	8b ec		 mov	 ebp, esp
  00003	83 ec 24	 sub	 esp, 36			; 00000024H
  00006	a1 00 00 00 00	 mov	 eax, DWORD PTR ___security_cookie
  0000b	33 c5		 xor	 eax, ebp
  0000d	89 45 fc	 mov	 DWORD PTR __$ArrayPad$[ebp], eax
  00010	8b 45 08	 mov	 eax, DWORD PTR _k$[ebp]

; 162  : 		_ENCSTR(k, _k);

  00013	8a 10		 mov	 dl, BYTE PTR [eax]
  00015	53		 push	 ebx
  00016	56		 push	 esi
  00017	8b 75 0c	 mov	 esi, DWORD PTR _d$[ebp]
  0001a	57		 push	 edi
  0001b	8b 7d 10	 mov	 edi, DWORD PTR _b$[ebp]
  0001e	89 4d dc	 mov	 DWORD PTR _this$GSCopy$[ebp], ecx
  00021	84 d2		 test	 dl, dl
  00023	0f 84 15 02 00
	00		 je	 $LN96@LoadString@2
  00029	80 f2 ed	 xor	 dl, -19			; ffffffedH
  0002c	88 55 e0	 mov	 BYTE PTR __k$[ebp], dl
  0002f	8a 50 01	 mov	 dl, BYTE PTR [eax+1]
  00032	84 d2		 test	 dl, dl
  00034	0f 84 fe 01 00
	00		 je	 $LN95@LoadString@2
  0003a	80 f2 ec	 xor	 dl, -20			; ffffffecH
  0003d	88 55 e1	 mov	 BYTE PTR __k$[ebp+1], dl
  00040	8a 50 02	 mov	 dl, BYTE PTR [eax+2]
  00043	84 d2		 test	 dl, dl
  00045	0f 84 e7 01 00
	00		 je	 $LN94@LoadString@2
  0004b	b1 eb		 mov	 cl, -21			; ffffffebH
  0004d	32 d1		 xor	 dl, cl
  0004f	88 55 e2	 mov	 BYTE PTR __k$[ebp+2], dl
  00052	8a 50 03	 mov	 dl, BYTE PTR [eax+3]
  00055	84 d2		 test	 dl, dl
  00057	0f 84 cf 01 00
	00		 je	 $LN93@LoadString@2
  0005d	b3 ea		 mov	 bl, -22			; ffffffeaH
  0005f	32 d3		 xor	 dl, bl
  00061	88 55 e3	 mov	 BYTE PTR __k$[ebp+3], dl
  00064	8a 50 04	 mov	 dl, BYTE PTR [eax+4]
  00067	84 d2		 test	 dl, dl
  00069	0f 84 b7 01 00
	00		 je	 $LN92@LoadString@2
  0006f	80 f2 ed	 xor	 dl, -19			; ffffffedH
  00072	88 55 e4	 mov	 BYTE PTR __k$[ebp+4], dl
  00075	8a 50 05	 mov	 dl, BYTE PTR [eax+5]
  00078	84 d2		 test	 dl, dl
  0007a	0f 84 a0 01 00
	00		 je	 $LN91@LoadString@2
  00080	80 f2 ec	 xor	 dl, -20			; ffffffecH
  00083	88 55 e5	 mov	 BYTE PTR __k$[ebp+5], dl
  00086	8a 50 06	 mov	 dl, BYTE PTR [eax+6]
  00089	84 d2		 test	 dl, dl
  0008b	0f 84 8a 01 00
	00		 je	 $LN90@LoadString@2
  00091	32 d1		 xor	 dl, cl
  00093	88 55 e6	 mov	 BYTE PTR __k$[ebp+6], dl
  00096	8a 50 07	 mov	 dl, BYTE PTR [eax+7]
  00099	84 d2		 test	 dl, dl
  0009b	0f 84 75 01 00
	00		 je	 $LN89@LoadString@2
  000a1	32 d3		 xor	 dl, bl
  000a3	88 55 e7	 mov	 BYTE PTR __k$[ebp+7], dl
  000a6	8a 50 08	 mov	 dl, BYTE PTR [eax+8]
  000a9	84 d2		 test	 dl, dl
  000ab	0f 84 5f 01 00
	00		 je	 $LN88@LoadString@2
  000b1	80 f2 ed	 xor	 dl, -19			; ffffffedH
  000b4	88 55 e8	 mov	 BYTE PTR __k$[ebp+8], dl
  000b7	8a 50 09	 mov	 dl, BYTE PTR [eax+9]
  000ba	84 d2		 test	 dl, dl
  000bc	0f 84 48 01 00
	00		 je	 $LN87@LoadString@2
  000c2	80 f2 ec	 xor	 dl, -20			; ffffffecH
  000c5	88 55 e9	 mov	 BYTE PTR __k$[ebp+9], dl
  000c8	8a 50 0a	 mov	 dl, BYTE PTR [eax+10]
  000cb	84 d2		 test	 dl, dl
  000cd	0f 84 32 01 00
	00		 je	 $LN86@LoadString@2
  000d3	32 d1		 xor	 dl, cl
  000d5	88 55 ea	 mov	 BYTE PTR __k$[ebp+10], dl
  000d8	8a 50 0b	 mov	 dl, BYTE PTR [eax+11]
  000db	84 d2		 test	 dl, dl
  000dd	0f 84 1d 01 00
	00		 je	 $LN85@LoadString@2
  000e3	32 d3		 xor	 dl, bl
  000e5	88 55 eb	 mov	 BYTE PTR __k$[ebp+11], dl
  000e8	8a 50 0c	 mov	 dl, BYTE PTR [eax+12]
  000eb	84 d2		 test	 dl, dl
  000ed	0f 84 07 01 00
	00		 je	 $LN84@LoadString@2
  000f3	80 f2 ed	 xor	 dl, -19			; ffffffedH
  000f6	88 55 ec	 mov	 BYTE PTR __k$[ebp+12], dl
  000f9	8a 50 0d	 mov	 dl, BYTE PTR [eax+13]
  000fc	84 d2		 test	 dl, dl
  000fe	0f 84 f0 00 00
	00		 je	 $LN83@LoadString@2
  00104	80 f2 ec	 xor	 dl, -20			; ffffffecH
  00107	88 55 ed	 mov	 BYTE PTR __k$[ebp+13], dl
  0010a	8a 50 0e	 mov	 dl, BYTE PTR [eax+14]
  0010d	84 d2		 test	 dl, dl
  0010f	0f 84 da 00 00
	00		 je	 $LN82@LoadString@2
  00115	32 d1		 xor	 dl, cl
  00117	88 55 ee	 mov	 BYTE PTR __k$[ebp+14], dl
  0011a	8a 50 0f	 mov	 dl, BYTE PTR [eax+15]
  0011d	84 d2		 test	 dl, dl
  0011f	0f 84 c5 00 00
	00		 je	 $LN81@LoadString@2
  00125	32 d3		 xor	 dl, bl
  00127	88 55 ef	 mov	 BYTE PTR __k$[ebp+15], dl
  0012a	8a 50 10	 mov	 dl, BYTE PTR [eax+16]
  0012d	84 d2		 test	 dl, dl
  0012f	0f 84 af 00 00
	00		 je	 $LN80@LoadString@2
  00135	80 f2 ed	 xor	 dl, -19			; ffffffedH
  00138	88 55 f0	 mov	 BYTE PTR __k$[ebp+16], dl
  0013b	8a 50 11	 mov	 dl, BYTE PTR [eax+17]
  0013e	84 d2		 test	 dl, dl
  00140	0f 84 98 00 00
	00		 je	 $LN79@LoadString@2
  00146	80 f2 ec	 xor	 dl, -20			; ffffffecH
  00149	88 55 f1	 mov	 BYTE PTR __k$[ebp+17], dl
  0014c	8a 50 12	 mov	 dl, BYTE PTR [eax+18]
  0014f	84 d2		 test	 dl, dl
  00151	0f 84 82 00 00
	00		 je	 $LN78@LoadString@2
  00157	32 d1		 xor	 dl, cl
  00159	88 55 f2	 mov	 BYTE PTR __k$[ebp+18], dl
  0015c	8a 50 13	 mov	 dl, BYTE PTR [eax+19]
  0015f	84 d2		 test	 dl, dl
  00161	74 71		 je	 SHORT $LN77@LoadString@2
  00163	32 d3		 xor	 dl, bl
  00165	88 55 f3	 mov	 BYTE PTR __k$[ebp+19], dl
  00168	8a 50 14	 mov	 dl, BYTE PTR [eax+20]
  0016b	84 d2		 test	 dl, dl
  0016d	74 5f		 je	 SHORT $LN76@LoadString@2
  0016f	80 f2 ed	 xor	 dl, -19			; ffffffedH
  00172	80 78 15 00	 cmp	 BYTE PTR [eax+21], 0
  00176	88 55 f4	 mov	 BYTE PTR __k$[ebp+20], dl
  00179	0f 84 c3 00 00
	00		 je	 $LN111@LoadString@2
  0017f	8a 50 16	 mov	 dl, BYTE PTR [eax+22]
  00182	84 d2		 test	 dl, dl
  00184	74 43		 je	 SHORT $LN74@LoadString@2
  00186	32 d1		 xor	 dl, cl
  00188	88 55 f6	 mov	 BYTE PTR __k$[ebp+22], dl
  0018b	8a 50 17	 mov	 dl, BYTE PTR [eax+23]
  0018e	84 d2		 test	 dl, dl
  00190	74 32		 je	 SHORT $LN73@LoadString@2
  00192	32 d3		 xor	 dl, bl
  00194	88 55 f7	 mov	 BYTE PTR __k$[ebp+23], dl
  00197	8a 50 18	 mov	 dl, BYTE PTR [eax+24]
  0019a	84 d2		 test	 dl, dl
  0019c	74 20		 je	 SHORT $LN72@LoadString@2
  0019e	8a 40 19	 mov	 al, BYTE PTR [eax+25]
  001a1	80 f2 ed	 xor	 dl, -19			; ffffffedH
  001a4	88 55 f8	 mov	 BYTE PTR __k$[ebp+24], dl
  001a7	84 c0		 test	 al, al
  001a9	74 0a		 je	 SHORT $LN71@LoadString@2
  001ab	34 ec		 xor	 al, -20			; ffffffecH
  001ad	88 45 f9	 mov	 BYTE PTR __k$[ebp+25], al
  001b0	e9 8d 00 00 00	 jmp	 $LN111@LoadString@2
$LN71@LoadString@2:
  001b5	c6 45 f9 ec	 mov	 BYTE PTR __k$[ebp+25], -20 ; ffffffecH
  001b9	e9 84 00 00 00	 jmp	 $LN111@LoadString@2
$LN72@LoadString@2:
  001be	c6 45 f8 ed	 mov	 BYTE PTR __k$[ebp+24], -19 ; ffffffedH
  001c2	eb 7e		 jmp	 SHORT $LN111@LoadString@2
$LN73@LoadString@2:
  001c4	88 5d f7	 mov	 BYTE PTR __k$[ebp+23], bl
  001c7	eb 79		 jmp	 SHORT $LN111@LoadString@2
$LN74@LoadString@2:
  001c9	88 4d f6	 mov	 BYTE PTR __k$[ebp+22], cl
  001cc	eb 74		 jmp	 SHORT $LN111@LoadString@2
$LN76@LoadString@2:
  001ce	c6 45 f4 ed	 mov	 BYTE PTR __k$[ebp+20], -19 ; ffffffedH
  001d2	eb 6e		 jmp	 SHORT $LN111@LoadString@2
$LN77@LoadString@2:
  001d4	88 5d f3	 mov	 BYTE PTR __k$[ebp+19], bl
  001d7	eb 69		 jmp	 SHORT $LN111@LoadString@2
$LN78@LoadString@2:
  001d9	88 4d f2	 mov	 BYTE PTR __k$[ebp+18], cl
  001dc	eb 64		 jmp	 SHORT $LN111@LoadString@2
$LN79@LoadString@2:
  001de	c6 45 f1 ec	 mov	 BYTE PTR __k$[ebp+17], -20 ; ffffffecH
  001e2	eb 5e		 jmp	 SHORT $LN111@LoadString@2
$LN80@LoadString@2:
  001e4	c6 45 f0 ed	 mov	 BYTE PTR __k$[ebp+16], -19 ; ffffffedH
  001e8	eb 58		 jmp	 SHORT $LN111@LoadString@2
$LN81@LoadString@2:
  001ea	88 5d ef	 mov	 BYTE PTR __k$[ebp+15], bl
  001ed	eb 53		 jmp	 SHORT $LN111@LoadString@2
$LN82@LoadString@2:
  001ef	88 4d ee	 mov	 BYTE PTR __k$[ebp+14], cl
  001f2	eb 4e		 jmp	 SHORT $LN111@LoadString@2
$LN83@LoadString@2:
  001f4	c6 45 ed ec	 mov	 BYTE PTR __k$[ebp+13], -20 ; ffffffecH
  001f8	eb 48		 jmp	 SHORT $LN111@LoadString@2
$LN84@LoadString@2:
  001fa	c6 45 ec ed	 mov	 BYTE PTR __k$[ebp+12], -19 ; ffffffedH
  001fe	eb 42		 jmp	 SHORT $LN111@LoadString@2
$LN85@LoadString@2:
  00200	88 5d eb	 mov	 BYTE PTR __k$[ebp+11], bl
  00203	eb 3d		 jmp	 SHORT $LN111@LoadString@2
$LN86@LoadString@2:
  00205	88 4d ea	 mov	 BYTE PTR __k$[ebp+10], cl
  00208	eb 38		 jmp	 SHORT $LN111@LoadString@2
$LN87@LoadString@2:
  0020a	c6 45 e9 ec	 mov	 BYTE PTR __k$[ebp+9], -20 ; ffffffecH
  0020e	eb 32		 jmp	 SHORT $LN111@LoadString@2
$LN88@LoadString@2:
  00210	c6 45 e8 ed	 mov	 BYTE PTR __k$[ebp+8], -19 ; ffffffedH
  00214	eb 2c		 jmp	 SHORT $LN111@LoadString@2
$LN89@LoadString@2:
  00216	88 5d e7	 mov	 BYTE PTR __k$[ebp+7], bl
  00219	eb 27		 jmp	 SHORT $LN111@LoadString@2
$LN90@LoadString@2:
  0021b	88 4d e6	 mov	 BYTE PTR __k$[ebp+6], cl
  0021e	eb 22		 jmp	 SHORT $LN111@LoadString@2
$LN91@LoadString@2:
  00220	c6 45 e5 ec	 mov	 BYTE PTR __k$[ebp+5], -20 ; ffffffecH
  00224	eb 1c		 jmp	 SHORT $LN111@LoadString@2
$LN92@LoadString@2:
  00226	c6 45 e4 ed	 mov	 BYTE PTR __k$[ebp+4], -19 ; ffffffedH
  0022a	eb 16		 jmp	 SHORT $LN111@LoadString@2
$LN93@LoadString@2:
  0022c	c6 45 e3 ea	 mov	 BYTE PTR __k$[ebp+3], -22 ; ffffffeaH
  00230	eb 10		 jmp	 SHORT $LN111@LoadString@2
$LN94@LoadString@2:
  00232	c6 45 e2 eb	 mov	 BYTE PTR __k$[ebp+2], -21 ; ffffffebH
  00236	eb 0a		 jmp	 SHORT $LN111@LoadString@2
$LN95@LoadString@2:
  00238	c6 45 e1 ec	 mov	 BYTE PTR __k$[ebp+1], -20 ; ffffffecH
  0023c	eb 04		 jmp	 SHORT $LN111@LoadString@2
$LN96@LoadString@2:
  0023e	c6 45 e0 ed	 mov	 BYTE PTR __k$[ebp], -19	; ffffffedH
$LN111@LoadString@2:
  00242	6a 05		 push	 5
  00244	8d 45 e0	 lea	 eax, DWORD PTR __k$[ebp]
  00247	c6 45 f5 00	 mov	 BYTE PTR __k$[ebp+21], 0
  0024b	5a		 pop	 edx
$LL104@LoadString@2:
  0024c	81 30 ed ec eb
	ea		 xor	 DWORD PTR [eax], -353637139 ; eaebecedH
  00252	83 c0 04	 add	 eax, 4
  00255	4a		 dec	 edx
  00256	75 f4		 jne	 SHORT $LL104@LoadString@2

; 163  : 		LoadString(_k, d, b, i);

  00258	ff 75 14	 push	 DWORD PTR _i$[ebp]
  0025b	8b 4d dc	 mov	 ecx, DWORD PTR _this$GSCopy$[ebp]
  0025e	80 75 f4 ed	 xor	 BYTE PTR __k$[ebp+20], -19 ; ffffffedH
  00262	57		 push	 edi
  00263	56		 push	 esi
  00264	8d 45 e0	 lea	 eax, DWORD PTR __k$[ebp]
  00267	50		 push	 eax
  00268	ff 15 00 00 00
	00		 call	 DWORD PTR __imp_?LoadStringA@ioINILoader@@QAEXPBD0PADH@Z

; 164  : 	}

  0026e	8b 4d fc	 mov	 ecx, DWORD PTR __$ArrayPad$[ebp]
  00271	5f		 pop	 edi
  00272	5e		 pop	 esi
  00273	33 cd		 xor	 ecx, ebp
  00275	5b		 pop	 ebx
  00276	e8 00 00 00 00	 call	 @__security_check_cookie@4
  0027b	c9		 leave
  0027c	c2 10 00	 ret	 16			; 00000010H
??$LoadString_e@$0BG@@ioINILoader@@QAEXAAY0BG@$$CBDAAY00$$CBDPADH@Z ENDP ; ioINILoader::LoadString_e<22>
_TEXT	ENDS
PUBLIC	__$ArrayPad$
PUBLIC	??$LoadFloat_e@$0BL@@ioINILoader@@QAEMAAY0BL@$$CBDM@Z ; ioINILoader::LoadFloat_e<27>
; Function compile flags: /Ogsp
;	COMDAT ??$LoadFloat_e@$0BL@@ioINILoader@@QAEMAAY0BL@$$CBDM@Z
_TEXT	SEGMENT
__k$ = -36						; size = 27
__$ArrayPad$ = -4					; size = 4
_k$ = 8							; size = 4
_f$ = 12						; size = 4
??$LoadFloat_e@$0BL@@ioINILoader@@QAEMAAY0BL@$$CBDM@Z PROC ; ioINILoader::LoadFloat_e<27>, COMDAT
; _this$ = ecx

; 135  : 	{

  00000	55		 push	 ebp
  00001	8b ec		 mov	 ebp, esp
  00003	83 ec 24	 sub	 esp, 36			; 00000024H
  00006	a1 00 00 00 00	 mov	 eax, DWORD PTR ___security_cookie
  0000b	33 c5		 xor	 eax, ebp
  0000d	89 45 fc	 mov	 DWORD PTR __$ArrayPad$[ebp], eax
  00010	8b 45 08	 mov	 eax, DWORD PTR _k$[ebp]

; 136  : 		_ENCSTR(k, _k);

  00013	8a 10		 mov	 dl, BYTE PTR [eax]
  00015	53		 push	 ebx
  00016	56		 push	 esi
  00017	8b f1		 mov	 esi, ecx
  00019	84 d2		 test	 dl, dl
  0001b	0f 84 91 02 00
	00		 je	 $LN96@LoadFloat_@2
  00021	80 f2 ed	 xor	 dl, -19			; ffffffedH
  00024	88 55 dc	 mov	 BYTE PTR __k$[ebp], dl
  00027	8a 50 01	 mov	 dl, BYTE PTR [eax+1]
  0002a	84 d2		 test	 dl, dl
  0002c	0f 84 7a 02 00
	00		 je	 $LN95@LoadFloat_@2
  00032	b1 ec		 mov	 cl, -20			; ffffffecH
  00034	32 d1		 xor	 dl, cl
  00036	88 55 dd	 mov	 BYTE PTR __k$[ebp+1], dl
  00039	8a 50 02	 mov	 dl, BYTE PTR [eax+2]
  0003c	84 d2		 test	 dl, dl
  0003e	0f 84 62 02 00
	00		 je	 $LN94@LoadFloat_@2
  00044	80 f2 eb	 xor	 dl, -21			; ffffffebH
  00047	88 55 de	 mov	 BYTE PTR __k$[ebp+2], dl
  0004a	8a 50 03	 mov	 dl, BYTE PTR [eax+3]
  0004d	84 d2		 test	 dl, dl
  0004f	0f 84 4b 02 00
	00		 je	 $LN93@LoadFloat_@2
  00055	b3 ea		 mov	 bl, -22			; ffffffeaH
  00057	32 d3		 xor	 dl, bl
  00059	88 55 df	 mov	 BYTE PTR __k$[ebp+3], dl
  0005c	8a 50 04	 mov	 dl, BYTE PTR [eax+4]
  0005f	84 d2		 test	 dl, dl
  00061	0f 84 33 02 00
	00		 je	 $LN92@LoadFloat_@2
  00067	80 f2 ed	 xor	 dl, -19			; ffffffedH
  0006a	88 55 e0	 mov	 BYTE PTR __k$[ebp+4], dl
  0006d	8a 50 05	 mov	 dl, BYTE PTR [eax+5]
  00070	84 d2		 test	 dl, dl
  00072	0f 84 1d 02 00
	00		 je	 $LN91@LoadFloat_@2
  00078	32 d1		 xor	 dl, cl
  0007a	88 55 e1	 mov	 BYTE PTR __k$[ebp+5], dl
  0007d	8a 50 06	 mov	 dl, BYTE PTR [eax+6]
  00080	84 d2		 test	 dl, dl
  00082	0f 84 07 02 00
	00		 je	 $LN90@LoadFloat_@2
  00088	80 f2 eb	 xor	 dl, -21			; ffffffebH
  0008b	88 55 e2	 mov	 BYTE PTR __k$[ebp+6], dl
  0008e	8a 50 07	 mov	 dl, BYTE PTR [eax+7]
  00091	84 d2		 test	 dl, dl
  00093	0f 84 f1 01 00
	00		 je	 $LN89@LoadFloat_@2
  00099	32 d3		 xor	 dl, bl
  0009b	88 55 e3	 mov	 BYTE PTR __k$[ebp+7], dl
  0009e	8a 50 08	 mov	 dl, BYTE PTR [eax+8]
  000a1	84 d2		 test	 dl, dl
  000a3	0f 84 db 01 00
	00		 je	 $LN88@LoadFloat_@2
  000a9	80 f2 ed	 xor	 dl, -19			; ffffffedH
  000ac	88 55 e4	 mov	 BYTE PTR __k$[ebp+8], dl
  000af	8a 50 09	 mov	 dl, BYTE PTR [eax+9]
  000b2	84 d2		 test	 dl, dl
  000b4	0f 84 c5 01 00
	00		 je	 $LN87@LoadFloat_@2
  000ba	32 d1		 xor	 dl, cl
  000bc	88 55 e5	 mov	 BYTE PTR __k$[ebp+9], dl
  000bf	8a 50 0a	 mov	 dl, BYTE PTR [eax+10]
  000c2	84 d2		 test	 dl, dl
  000c4	0f 84 af 01 00
	00		 je	 $LN86@LoadFloat_@2
  000ca	80 f2 eb	 xor	 dl, -21			; ffffffebH
  000cd	88 55 e6	 mov	 BYTE PTR __k$[ebp+10], dl
  000d0	8a 50 0b	 mov	 dl, BYTE PTR [eax+11]
  000d3	84 d2		 test	 dl, dl
  000d5	0f 84 99 01 00
	00		 je	 $LN85@LoadFloat_@2
  000db	32 d3		 xor	 dl, bl
  000dd	88 55 e7	 mov	 BYTE PTR __k$[ebp+11], dl
  000e0	8a 50 0c	 mov	 dl, BYTE PTR [eax+12]
  000e3	84 d2		 test	 dl, dl
  000e5	0f 84 83 01 00
	00		 je	 $LN84@LoadFloat_@2
  000eb	80 f2 ed	 xor	 dl, -19			; ffffffedH
  000ee	88 55 e8	 mov	 BYTE PTR __k$[ebp+12], dl
  000f1	8a 50 0d	 mov	 dl, BYTE PTR [eax+13]
  000f4	84 d2		 test	 dl, dl
  000f6	0f 84 6d 01 00
	00		 je	 $LN83@LoadFloat_@2
  000fc	32 d1		 xor	 dl, cl
  000fe	88 55 e9	 mov	 BYTE PTR __k$[ebp+13], dl
  00101	8a 50 0e	 mov	 dl, BYTE PTR [eax+14]
  00104	84 d2		 test	 dl, dl
  00106	0f 84 57 01 00
	00		 je	 $LN82@LoadFloat_@2
  0010c	80 f2 eb	 xor	 dl, -21			; ffffffebH
  0010f	88 55 ea	 mov	 BYTE PTR __k$[ebp+14], dl
  00112	8a 50 0f	 mov	 dl, BYTE PTR [eax+15]
  00115	84 d2		 test	 dl, dl
  00117	0f 84 41 01 00
	00		 je	 $LN81@LoadFloat_@2
  0011d	32 d3		 xor	 dl, bl
  0011f	88 55 eb	 mov	 BYTE PTR __k$[ebp+15], dl
  00122	8a 50 10	 mov	 dl, BYTE PTR [eax+16]
  00125	84 d2		 test	 dl, dl
  00127	0f 84 2b 01 00
	00		 je	 $LN80@LoadFloat_@2
  0012d	80 f2 ed	 xor	 dl, -19			; ffffffedH
  00130	88 55 ec	 mov	 BYTE PTR __k$[ebp+16], dl
  00133	8a 50 11	 mov	 dl, BYTE PTR [eax+17]
  00136	84 d2		 test	 dl, dl
  00138	0f 84 15 01 00
	00		 je	 $LN79@LoadFloat_@2
  0013e	32 d1		 xor	 dl, cl
  00140	88 55 ed	 mov	 BYTE PTR __k$[ebp+17], dl
  00143	8a 50 12	 mov	 dl, BYTE PTR [eax+18]
  00146	84 d2		 test	 dl, dl
  00148	0f 84 ff 00 00
	00		 je	 $LN78@LoadFloat_@2
  0014e	80 f2 eb	 xor	 dl, -21			; ffffffebH
  00151	88 55 ee	 mov	 BYTE PTR __k$[ebp+18], dl
  00154	8a 50 13	 mov	 dl, BYTE PTR [eax+19]
  00157	84 d2		 test	 dl, dl
  00159	0f 84 e9 00 00
	00		 je	 $LN77@LoadFloat_@2
  0015f	32 d3		 xor	 dl, bl
  00161	88 55 ef	 mov	 BYTE PTR __k$[ebp+19], dl
  00164	8a 50 14	 mov	 dl, BYTE PTR [eax+20]
  00167	84 d2		 test	 dl, dl
  00169	0f 84 d3 00 00
	00		 je	 $LN76@LoadFloat_@2
  0016f	80 f2 ed	 xor	 dl, -19			; ffffffedH
  00172	88 55 f0	 mov	 BYTE PTR __k$[ebp+20], dl
  00175	8a 50 15	 mov	 dl, BYTE PTR [eax+21]
  00178	84 d2		 test	 dl, dl
  0017a	0f 84 bd 00 00
	00		 je	 $LN75@LoadFloat_@2
  00180	32 d1		 xor	 dl, cl
  00182	88 55 f1	 mov	 BYTE PTR __k$[ebp+21], dl
  00185	8a 50 16	 mov	 dl, BYTE PTR [eax+22]
  00188	84 d2		 test	 dl, dl
  0018a	0f 84 a7 00 00
	00		 je	 $LN74@LoadFloat_@2
  00190	80 f2 eb	 xor	 dl, -21			; ffffffebH
  00193	88 55 f2	 mov	 BYTE PTR __k$[ebp+22], dl
  00196	8a 50 17	 mov	 dl, BYTE PTR [eax+23]
  00199	84 d2		 test	 dl, dl
  0019b	0f 84 91 00 00
	00		 je	 $LN73@LoadFloat_@2
  001a1	32 d3		 xor	 dl, bl
  001a3	88 55 f3	 mov	 BYTE PTR __k$[ebp+23], dl
  001a6	8a 50 18	 mov	 dl, BYTE PTR [eax+24]
  001a9	84 d2		 test	 dl, dl
  001ab	74 7c		 je	 SHORT $LN72@LoadFloat_@2
  001ad	80 f2 ed	 xor	 dl, -19			; ffffffedH
  001b0	88 55 f4	 mov	 BYTE PTR __k$[ebp+24], dl
  001b3	8a 50 19	 mov	 dl, BYTE PTR [eax+25]
  001b6	84 d2		 test	 dl, dl
  001b8	74 67		 je	 SHORT $LN71@LoadFloat_@2
  001ba	32 d1		 xor	 dl, cl
  001bc	80 78 1a 00	 cmp	 BYTE PTR [eax+26], 0
  001c0	88 55 f5	 mov	 BYTE PTR __k$[ebp+25], dl
  001c3	0f 84 ed 00 00
	00		 je	 $LN1@LoadFloat_@2
  001c9	8a 50 1b	 mov	 dl, BYTE PTR [eax+27]
  001cc	84 d2		 test	 dl, dl
  001ce	74 49		 je	 SHORT $LN69@LoadFloat_@2
  001d0	32 d3		 xor	 dl, bl
  001d2	88 55 f7	 mov	 BYTE PTR __k$[ebp+27], dl
  001d5	8a 50 1c	 mov	 dl, BYTE PTR [eax+28]
  001d8	84 d2		 test	 dl, dl
  001da	74 34		 je	 SHORT $LN68@LoadFloat_@2
  001dc	80 f2 ed	 xor	 dl, -19			; ffffffedH
  001df	88 55 f8	 mov	 BYTE PTR __k$[ebp+28], dl
  001e2	8a 50 1d	 mov	 dl, BYTE PTR [eax+29]
  001e5	84 d2		 test	 dl, dl
  001e7	74 1f		 je	 SHORT $LN67@LoadFloat_@2
  001e9	8a 40 1e	 mov	 al, BYTE PTR [eax+30]
  001ec	32 d1		 xor	 dl, cl
  001ee	88 55 f9	 mov	 BYTE PTR __k$[ebp+29], dl
  001f1	84 c0		 test	 al, al
  001f3	74 0a		 je	 SHORT $LN66@LoadFloat_@2
  001f5	34 eb		 xor	 al, -21			; ffffffebH
  001f7	88 45 fa	 mov	 BYTE PTR __k$[ebp+30], al
  001fa	e9 b7 00 00 00	 jmp	 $LN1@LoadFloat_@2
$LN66@LoadFloat_@2:
  001ff	c6 45 fa eb	 mov	 BYTE PTR __k$[ebp+30], -21 ; ffffffebH
  00203	e9 ae 00 00 00	 jmp	 $LN1@LoadFloat_@2
$LN67@LoadFloat_@2:
  00208	88 4d f9	 mov	 BYTE PTR __k$[ebp+29], cl
  0020b	e9 a6 00 00 00	 jmp	 $LN1@LoadFloat_@2
$LN68@LoadFloat_@2:
  00210	c6 45 f8 ed	 mov	 BYTE PTR __k$[ebp+28], -19 ; ffffffedH
  00214	e9 9d 00 00 00	 jmp	 $LN1@LoadFloat_@2
$LN69@LoadFloat_@2:
  00219	88 5d f7	 mov	 BYTE PTR __k$[ebp+27], bl
  0021c	e9 95 00 00 00	 jmp	 $LN1@LoadFloat_@2
$LN71@LoadFloat_@2:
  00221	88 4d f5	 mov	 BYTE PTR __k$[ebp+25], cl
  00224	e9 8d 00 00 00	 jmp	 $LN1@LoadFloat_@2
$LN72@LoadFloat_@2:
  00229	c6 45 f4 ed	 mov	 BYTE PTR __k$[ebp+24], -19 ; ffffffedH
  0022d	e9 84 00 00 00	 jmp	 $LN1@LoadFloat_@2
$LN73@LoadFloat_@2:
  00232	88 5d f3	 mov	 BYTE PTR __k$[ebp+23], bl
  00235	eb 7f		 jmp	 SHORT $LN1@LoadFloat_@2
$LN74@LoadFloat_@2:
  00237	c6 45 f2 eb	 mov	 BYTE PTR __k$[ebp+22], -21 ; ffffffebH
  0023b	eb 79		 jmp	 SHORT $LN1@LoadFloat_@2
$LN75@LoadFloat_@2:
  0023d	88 4d f1	 mov	 BYTE PTR __k$[ebp+21], cl
  00240	eb 74		 jmp	 SHORT $LN1@LoadFloat_@2
$LN76@LoadFloat_@2:
  00242	c6 45 f0 ed	 mov	 BYTE PTR __k$[ebp+20], -19 ; ffffffedH
  00246	eb 6e		 jmp	 SHORT $LN1@LoadFloat_@2
$LN77@LoadFloat_@2:
  00248	88 5d ef	 mov	 BYTE PTR __k$[ebp+19], bl
  0024b	eb 69		 jmp	 SHORT $LN1@LoadFloat_@2
$LN78@LoadFloat_@2:
  0024d	c6 45 ee eb	 mov	 BYTE PTR __k$[ebp+18], -21 ; ffffffebH
  00251	eb 63		 jmp	 SHORT $LN1@LoadFloat_@2
$LN79@LoadFloat_@2:
  00253	88 4d ed	 mov	 BYTE PTR __k$[ebp+17], cl
  00256	eb 5e		 jmp	 SHORT $LN1@LoadFloat_@2
$LN80@LoadFloat_@2:
  00258	c6 45 ec ed	 mov	 BYTE PTR __k$[ebp+16], -19 ; ffffffedH
  0025c	eb 58		 jmp	 SHORT $LN1@LoadFloat_@2
$LN81@LoadFloat_@2:
  0025e	88 5d eb	 mov	 BYTE PTR __k$[ebp+15], bl
  00261	eb 53		 jmp	 SHORT $LN1@LoadFloat_@2
$LN82@LoadFloat_@2:
  00263	c6 45 ea eb	 mov	 BYTE PTR __k$[ebp+14], -21 ; ffffffebH
  00267	eb 4d		 jmp	 SHORT $LN1@LoadFloat_@2
$LN83@LoadFloat_@2:
  00269	88 4d e9	 mov	 BYTE PTR __k$[ebp+13], cl
  0026c	eb 48		 jmp	 SHORT $LN1@LoadFloat_@2
$LN84@LoadFloat_@2:
  0026e	c6 45 e8 ed	 mov	 BYTE PTR __k$[ebp+12], -19 ; ffffffedH
  00272	eb 42		 jmp	 SHORT $LN1@LoadFloat_@2
$LN85@LoadFloat_@2:
  00274	88 5d e7	 mov	 BYTE PTR __k$[ebp+11], bl
  00277	eb 3d		 jmp	 SHORT $LN1@LoadFloat_@2
$LN86@LoadFloat_@2:
  00279	c6 45 e6 eb	 mov	 BYTE PTR __k$[ebp+10], -21 ; ffffffebH
  0027d	eb 37		 jmp	 SHORT $LN1@LoadFloat_@2
$LN87@LoadFloat_@2:
  0027f	88 4d e5	 mov	 BYTE PTR __k$[ebp+9], cl
  00282	eb 32		 jmp	 SHORT $LN1@LoadFloat_@2
$LN88@LoadFloat_@2:
  00284	c6 45 e4 ed	 mov	 BYTE PTR __k$[ebp+8], -19 ; ffffffedH
  00288	eb 2c		 jmp	 SHORT $LN1@LoadFloat_@2
$LN89@LoadFloat_@2:
  0028a	88 5d e3	 mov	 BYTE PTR __k$[ebp+7], bl
  0028d	eb 27		 jmp	 SHORT $LN1@LoadFloat_@2
$LN90@LoadFloat_@2:
  0028f	c6 45 e2 eb	 mov	 BYTE PTR __k$[ebp+6], -21 ; ffffffebH
  00293	eb 21		 jmp	 SHORT $LN1@LoadFloat_@2
$LN91@LoadFloat_@2:
  00295	88 4d e1	 mov	 BYTE PTR __k$[ebp+5], cl
  00298	eb 1c		 jmp	 SHORT $LN1@LoadFloat_@2
$LN92@LoadFloat_@2:
  0029a	c6 45 e0 ed	 mov	 BYTE PTR __k$[ebp+4], -19 ; ffffffedH
  0029e	eb 16		 jmp	 SHORT $LN1@LoadFloat_@2
$LN93@LoadFloat_@2:
  002a0	c6 45 df ea	 mov	 BYTE PTR __k$[ebp+3], -22 ; ffffffeaH
  002a4	eb 10		 jmp	 SHORT $LN1@LoadFloat_@2
$LN94@LoadFloat_@2:
  002a6	c6 45 de eb	 mov	 BYTE PTR __k$[ebp+2], -21 ; ffffffebH
  002aa	eb 0a		 jmp	 SHORT $LN1@LoadFloat_@2
$LN95@LoadFloat_@2:
  002ac	c6 45 dd ec	 mov	 BYTE PTR __k$[ebp+1], -20 ; ffffffecH
  002b0	eb 04		 jmp	 SHORT $LN1@LoadFloat_@2
$LN96@LoadFloat_@2:
  002b2	c6 45 dc ed	 mov	 BYTE PTR __k$[ebp], -19	; ffffffedH
$LN1@LoadFloat_@2:
  002b6	6a 06		 push	 6
  002b8	8d 45 dc	 lea	 eax, DWORD PTR __k$[ebp]
  002bb	c6 45 f6 00	 mov	 BYTE PTR __k$[ebp+26], 0
  002bf	5a		 pop	 edx
$LL104@LoadFloat_@2:
  002c0	81 30 ed ec eb
	ea		 xor	 DWORD PTR [eax], -353637139 ; eaebecedH
  002c6	83 c0 04	 add	 eax, 4
  002c9	4a		 dec	 edx
  002ca	75 f4		 jne	 SHORT $LL104@LoadFloat_@2
  002cc	6a 18		 push	 24			; 00000018H
  002ce	58		 pop	 eax
$LL101@LoadFloat_@2:
  002cf	8b c8		 mov	 ecx, eax
  002d1	81 e1 03 00 00
	80		 and	 ecx, -2147483645	; 80000003H
  002d7	79 05		 jns	 SHORT $LN111@LoadFloat_@2
  002d9	49		 dec	 ecx
  002da	83 c9 fc	 or	 ecx, -4			; fffffffcH
  002dd	41		 inc	 ecx
$LN111@LoadFloat_@2:
  002de	b2 ed		 mov	 dl, -19			; ffffffedH
  002e0	2a d1		 sub	 dl, cl
  002e2	30 54 05 dc	 xor	 BYTE PTR __k$[ebp+eax], dl
  002e6	40		 inc	 eax
  002e7	83 f8 1a	 cmp	 eax, 26			; 0000001aH
  002ea	7c e3		 jl	 SHORT $LL101@LoadFloat_@2

; 137  : 		return LoadFloat(_k, f);

  002ec	f3 0f 10 45 0c	 movss	 xmm0, DWORD PTR _f$[ebp]
  002f1	51		 push	 ecx
  002f2	8d 45 dc	 lea	 eax, DWORD PTR __k$[ebp]
  002f5	f3 0f 11 04 24	 movss	 DWORD PTR [esp], xmm0
  002fa	50		 push	 eax
  002fb	8b ce		 mov	 ecx, esi
  002fd	ff 15 00 00 00
	00		 call	 DWORD PTR __imp_?LoadFloat@ioINILoader@@QAEMPBDM@Z

; 138  : 	}

  00303	8b 4d fc	 mov	 ecx, DWORD PTR __$ArrayPad$[ebp]
  00306	5e		 pop	 esi
  00307	33 cd		 xor	 ecx, ebp
  00309	5b		 pop	 ebx
  0030a	e8 00 00 00 00	 call	 @__security_check_cookie@4
  0030f	c9		 leave
  00310	c2 08 00	 ret	 8
??$LoadFloat_e@$0BL@@ioINILoader@@QAEMAAY0BL@$$CBDM@Z ENDP ; ioINILoader::LoadFloat_e<27>
_TEXT	ENDS
PUBLIC	__$ArrayPad$
PUBLIC	??$LoadFloat_e@$0BH@@ioINILoader@@QAEMAAY0BH@$$CBDM@Z ; ioINILoader::LoadFloat_e<23>
; Function compile flags: /Ogsp
;	COMDAT ??$LoadFloat_e@$0BH@@ioINILoader@@QAEMAAY0BH@$$CBDM@Z
_TEXT	SEGMENT
__k$ = -32						; size = 23
__$ArrayPad$ = -4					; size = 4
_k$ = 8							; size = 4
_f$ = 12						; size = 4
??$LoadFloat_e@$0BH@@ioINILoader@@QAEMAAY0BH@$$CBDM@Z PROC ; ioINILoader::LoadFloat_e<23>, COMDAT
; _this$ = ecx

; 135  : 	{

  00000	55		 push	 ebp
  00001	8b ec		 mov	 ebp, esp
  00003	83 ec 20	 sub	 esp, 32			; 00000020H
  00006	a1 00 00 00 00	 mov	 eax, DWORD PTR ___security_cookie
  0000b	33 c5		 xor	 eax, ebp
  0000d	89 45 fc	 mov	 DWORD PTR __$ArrayPad$[ebp], eax
  00010	8b 45 08	 mov	 eax, DWORD PTR _k$[ebp]

; 136  : 		_ENCSTR(k, _k);

  00013	8a 10		 mov	 dl, BYTE PTR [eax]
  00015	53		 push	 ebx
  00016	56		 push	 esi
  00017	8b f1		 mov	 esi, ecx
  00019	84 d2		 test	 dl, dl
  0001b	0f 84 2d 02 00
	00		 je	 $LN96@LoadFloat_@3
  00021	80 f2 ed	 xor	 dl, -19			; ffffffedH
  00024	88 55 e0	 mov	 BYTE PTR __k$[ebp], dl
  00027	8a 50 01	 mov	 dl, BYTE PTR [eax+1]
  0002a	84 d2		 test	 dl, dl
  0002c	0f 84 16 02 00
	00		 je	 $LN95@LoadFloat_@3
  00032	b1 ec		 mov	 cl, -20			; ffffffecH
  00034	32 d1		 xor	 dl, cl
  00036	88 55 e1	 mov	 BYTE PTR __k$[ebp+1], dl
  00039	8a 50 02	 mov	 dl, BYTE PTR [eax+2]
  0003c	84 d2		 test	 dl, dl
  0003e	0f 84 fe 01 00
	00		 je	 $LN94@LoadFloat_@3
  00044	80 f2 eb	 xor	 dl, -21			; ffffffebH
  00047	88 55 e2	 mov	 BYTE PTR __k$[ebp+2], dl
  0004a	8a 50 03	 mov	 dl, BYTE PTR [eax+3]
  0004d	84 d2		 test	 dl, dl
  0004f	0f 84 e7 01 00
	00		 je	 $LN93@LoadFloat_@3
  00055	b3 ea		 mov	 bl, -22			; ffffffeaH
  00057	32 d3		 xor	 dl, bl
  00059	88 55 e3	 mov	 BYTE PTR __k$[ebp+3], dl
  0005c	8a 50 04	 mov	 dl, BYTE PTR [eax+4]
  0005f	84 d2		 test	 dl, dl
  00061	0f 84 cf 01 00
	00		 je	 $LN92@LoadFloat_@3
  00067	80 f2 ed	 xor	 dl, -19			; ffffffedH
  0006a	88 55 e4	 mov	 BYTE PTR __k$[ebp+4], dl
  0006d	8a 50 05	 mov	 dl, BYTE PTR [eax+5]
  00070	84 d2		 test	 dl, dl
  00072	0f 84 b9 01 00
	00		 je	 $LN91@LoadFloat_@3
  00078	32 d1		 xor	 dl, cl
  0007a	88 55 e5	 mov	 BYTE PTR __k$[ebp+5], dl
  0007d	8a 50 06	 mov	 dl, BYTE PTR [eax+6]
  00080	84 d2		 test	 dl, dl
  00082	0f 84 a3 01 00
	00		 je	 $LN90@LoadFloat_@3
  00088	80 f2 eb	 xor	 dl, -21			; ffffffebH
  0008b	88 55 e6	 mov	 BYTE PTR __k$[ebp+6], dl
  0008e	8a 50 07	 mov	 dl, BYTE PTR [eax+7]
  00091	84 d2		 test	 dl, dl
  00093	0f 84 8d 01 00
	00		 je	 $LN89@LoadFloat_@3
  00099	32 d3		 xor	 dl, bl
  0009b	88 55 e7	 mov	 BYTE PTR __k$[ebp+7], dl
  0009e	8a 50 08	 mov	 dl, BYTE PTR [eax+8]
  000a1	84 d2		 test	 dl, dl
  000a3	0f 84 77 01 00
	00		 je	 $LN88@LoadFloat_@3
  000a9	80 f2 ed	 xor	 dl, -19			; ffffffedH
  000ac	88 55 e8	 mov	 BYTE PTR __k$[ebp+8], dl
  000af	8a 50 09	 mov	 dl, BYTE PTR [eax+9]
  000b2	84 d2		 test	 dl, dl
  000b4	0f 84 61 01 00
	00		 je	 $LN87@LoadFloat_@3
  000ba	32 d1		 xor	 dl, cl
  000bc	88 55 e9	 mov	 BYTE PTR __k$[ebp+9], dl
  000bf	8a 50 0a	 mov	 dl, BYTE PTR [eax+10]
  000c2	84 d2		 test	 dl, dl
  000c4	0f 84 4b 01 00
	00		 je	 $LN86@LoadFloat_@3
  000ca	80 f2 eb	 xor	 dl, -21			; ffffffebH
  000cd	88 55 ea	 mov	 BYTE PTR __k$[ebp+10], dl
  000d0	8a 50 0b	 mov	 dl, BYTE PTR [eax+11]
  000d3	84 d2		 test	 dl, dl
  000d5	0f 84 35 01 00
	00		 je	 $LN85@LoadFloat_@3
  000db	32 d3		 xor	 dl, bl
  000dd	88 55 eb	 mov	 BYTE PTR __k$[ebp+11], dl
  000e0	8a 50 0c	 mov	 dl, BYTE PTR [eax+12]
  000e3	84 d2		 test	 dl, dl
  000e5	0f 84 1f 01 00
	00		 je	 $LN84@LoadFloat_@3
  000eb	80 f2 ed	 xor	 dl, -19			; ffffffedH
  000ee	88 55 ec	 mov	 BYTE PTR __k$[ebp+12], dl
  000f1	8a 50 0d	 mov	 dl, BYTE PTR [eax+13]
  000f4	84 d2		 test	 dl, dl
  000f6	0f 84 09 01 00
	00		 je	 $LN83@LoadFloat_@3
  000fc	32 d1		 xor	 dl, cl
  000fe	88 55 ed	 mov	 BYTE PTR __k$[ebp+13], dl
  00101	8a 50 0e	 mov	 dl, BYTE PTR [eax+14]
  00104	84 d2		 test	 dl, dl
  00106	0f 84 f3 00 00
	00		 je	 $LN82@LoadFloat_@3
  0010c	80 f2 eb	 xor	 dl, -21			; ffffffebH
  0010f	88 55 ee	 mov	 BYTE PTR __k$[ebp+14], dl
  00112	8a 50 0f	 mov	 dl, BYTE PTR [eax+15]
  00115	84 d2		 test	 dl, dl
  00117	0f 84 dd 00 00
	00		 je	 $LN81@LoadFloat_@3
  0011d	32 d3		 xor	 dl, bl
  0011f	88 55 ef	 mov	 BYTE PTR __k$[ebp+15], dl
  00122	8a 50 10	 mov	 dl, BYTE PTR [eax+16]
  00125	84 d2		 test	 dl, dl
  00127	0f 84 c7 00 00
	00		 je	 $LN80@LoadFloat_@3
  0012d	80 f2 ed	 xor	 dl, -19			; ffffffedH
  00130	88 55 f0	 mov	 BYTE PTR __k$[ebp+16], dl
  00133	8a 50 11	 mov	 dl, BYTE PTR [eax+17]
  00136	84 d2		 test	 dl, dl
  00138	0f 84 b1 00 00
	00		 je	 $LN79@LoadFloat_@3
  0013e	32 d1		 xor	 dl, cl
  00140	88 55 f1	 mov	 BYTE PTR __k$[ebp+17], dl
  00143	8a 50 12	 mov	 dl, BYTE PTR [eax+18]
  00146	84 d2		 test	 dl, dl
  00148	0f 84 9b 00 00
	00		 je	 $LN78@LoadFloat_@3
  0014e	80 f2 eb	 xor	 dl, -21			; ffffffebH
  00151	88 55 f2	 mov	 BYTE PTR __k$[ebp+18], dl
  00154	8a 50 13	 mov	 dl, BYTE PTR [eax+19]
  00157	84 d2		 test	 dl, dl
  00159	0f 84 85 00 00
	00		 je	 $LN77@LoadFloat_@3
  0015f	32 d3		 xor	 dl, bl
  00161	88 55 f3	 mov	 BYTE PTR __k$[ebp+19], dl
  00164	8a 50 14	 mov	 dl, BYTE PTR [eax+20]
  00167	84 d2		 test	 dl, dl
  00169	74 73		 je	 SHORT $LN76@LoadFloat_@3
  0016b	80 f2 ed	 xor	 dl, -19			; ffffffedH
  0016e	88 55 f4	 mov	 BYTE PTR __k$[ebp+20], dl
  00171	8a 50 15	 mov	 dl, BYTE PTR [eax+21]
  00174	84 d2		 test	 dl, dl
  00176	74 61		 je	 SHORT $LN75@LoadFloat_@3
  00178	32 d1		 xor	 dl, cl
  0017a	80 78 16 00	 cmp	 BYTE PTR [eax+22], 0
  0017e	88 55 f5	 mov	 BYTE PTR __k$[ebp+21], dl
  00181	0f 84 cb 00 00
	00		 je	 $LN1@LoadFloat_@3
  00187	8a 50 17	 mov	 dl, BYTE PTR [eax+23]
  0018a	84 d2		 test	 dl, dl
  0018c	74 46		 je	 SHORT $LN73@LoadFloat_@3
  0018e	32 d3		 xor	 dl, bl
  00190	88 55 f7	 mov	 BYTE PTR __k$[ebp+23], dl
  00193	8a 50 18	 mov	 dl, BYTE PTR [eax+24]
  00196	84 d2		 test	 dl, dl
  00198	74 34		 je	 SHORT $LN72@LoadFloat_@3
  0019a	80 f2 ed	 xor	 dl, -19			; ffffffedH
  0019d	88 55 f8	 mov	 BYTE PTR __k$[ebp+24], dl
  001a0	8a 50 19	 mov	 dl, BYTE PTR [eax+25]
  001a3	84 d2		 test	 dl, dl
  001a5	74 1f		 je	 SHORT $LN71@LoadFloat_@3
  001a7	8a 40 1a	 mov	 al, BYTE PTR [eax+26]
  001aa	32 d1		 xor	 dl, cl
  001ac	88 55 f9	 mov	 BYTE PTR __k$[ebp+25], dl
  001af	84 c0		 test	 al, al
  001b1	74 0a		 je	 SHORT $LN70@LoadFloat_@3
  001b3	34 eb		 xor	 al, -21			; ffffffebH
  001b5	88 45 fa	 mov	 BYTE PTR __k$[ebp+26], al
  001b8	e9 95 00 00 00	 jmp	 $LN1@LoadFloat_@3
$LN70@LoadFloat_@3:
  001bd	c6 45 fa eb	 mov	 BYTE PTR __k$[ebp+26], -21 ; ffffffebH
  001c1	e9 8c 00 00 00	 jmp	 $LN1@LoadFloat_@3
$LN71@LoadFloat_@3:
  001c6	88 4d f9	 mov	 BYTE PTR __k$[ebp+25], cl
  001c9	e9 84 00 00 00	 jmp	 $LN1@LoadFloat_@3
$LN72@LoadFloat_@3:
  001ce	c6 45 f8 ed	 mov	 BYTE PTR __k$[ebp+24], -19 ; ffffffedH
  001d2	eb 7e		 jmp	 SHORT $LN1@LoadFloat_@3
$LN73@LoadFloat_@3:
  001d4	88 5d f7	 mov	 BYTE PTR __k$[ebp+23], bl
  001d7	eb 79		 jmp	 SHORT $LN1@LoadFloat_@3
$LN75@LoadFloat_@3:
  001d9	88 4d f5	 mov	 BYTE PTR __k$[ebp+21], cl
  001dc	eb 74		 jmp	 SHORT $LN1@LoadFloat_@3
$LN76@LoadFloat_@3:
  001de	c6 45 f4 ed	 mov	 BYTE PTR __k$[ebp+20], -19 ; ffffffedH
  001e2	eb 6e		 jmp	 SHORT $LN1@LoadFloat_@3
$LN77@LoadFloat_@3:
  001e4	88 5d f3	 mov	 BYTE PTR __k$[ebp+19], bl
  001e7	eb 69		 jmp	 SHORT $LN1@LoadFloat_@3
$LN78@LoadFloat_@3:
  001e9	c6 45 f2 eb	 mov	 BYTE PTR __k$[ebp+18], -21 ; ffffffebH
  001ed	eb 63		 jmp	 SHORT $LN1@LoadFloat_@3
$LN79@LoadFloat_@3:
  001ef	88 4d f1	 mov	 BYTE PTR __k$[ebp+17], cl
  001f2	eb 5e		 jmp	 SHORT $LN1@LoadFloat_@3
$LN80@LoadFloat_@3:
  001f4	c6 45 f0 ed	 mov	 BYTE PTR __k$[ebp+16], -19 ; ffffffedH
  001f8	eb 58		 jmp	 SHORT $LN1@LoadFloat_@3
$LN81@LoadFloat_@3:
  001fa	88 5d ef	 mov	 BYTE PTR __k$[ebp+15], bl
  001fd	eb 53		 jmp	 SHORT $LN1@LoadFloat_@3
$LN82@LoadFloat_@3:
  001ff	c6 45 ee eb	 mov	 BYTE PTR __k$[ebp+14], -21 ; ffffffebH
  00203	eb 4d		 jmp	 SHORT $LN1@LoadFloat_@3
$LN83@LoadFloat_@3:
  00205	88 4d ed	 mov	 BYTE PTR __k$[ebp+13], cl
  00208	eb 48		 jmp	 SHORT $LN1@LoadFloat_@3
$LN84@LoadFloat_@3:
  0020a	c6 45 ec ed	 mov	 BYTE PTR __k$[ebp+12], -19 ; ffffffedH
  0020e	eb 42		 jmp	 SHORT $LN1@LoadFloat_@3
$LN85@LoadFloat_@3:
  00210	88 5d eb	 mov	 BYTE PTR __k$[ebp+11], bl
  00213	eb 3d		 jmp	 SHORT $LN1@LoadFloat_@3
$LN86@LoadFloat_@3:
  00215	c6 45 ea eb	 mov	 BYTE PTR __k$[ebp+10], -21 ; ffffffebH
  00219	eb 37		 jmp	 SHORT $LN1@LoadFloat_@3
$LN87@LoadFloat_@3:
  0021b	88 4d e9	 mov	 BYTE PTR __k$[ebp+9], cl
  0021e	eb 32		 jmp	 SHORT $LN1@LoadFloat_@3
$LN88@LoadFloat_@3:
  00220	c6 45 e8 ed	 mov	 BYTE PTR __k$[ebp+8], -19 ; ffffffedH
  00224	eb 2c		 jmp	 SHORT $LN1@LoadFloat_@3
$LN89@LoadFloat_@3:
  00226	88 5d e7	 mov	 BYTE PTR __k$[ebp+7], bl
  00229	eb 27		 jmp	 SHORT $LN1@LoadFloat_@3
$LN90@LoadFloat_@3:
  0022b	c6 45 e6 eb	 mov	 BYTE PTR __k$[ebp+6], -21 ; ffffffebH
  0022f	eb 21		 jmp	 SHORT $LN1@LoadFloat_@3
$LN91@LoadFloat_@3:
  00231	88 4d e5	 mov	 BYTE PTR __k$[ebp+5], cl
  00234	eb 1c		 jmp	 SHORT $LN1@LoadFloat_@3
$LN92@LoadFloat_@3:
  00236	c6 45 e4 ed	 mov	 BYTE PTR __k$[ebp+4], -19 ; ffffffedH
  0023a	eb 16		 jmp	 SHORT $LN1@LoadFloat_@3
$LN93@LoadFloat_@3:
  0023c	c6 45 e3 ea	 mov	 BYTE PTR __k$[ebp+3], -22 ; ffffffeaH
  00240	eb 10		 jmp	 SHORT $LN1@LoadFloat_@3
$LN94@LoadFloat_@3:
  00242	c6 45 e2 eb	 mov	 BYTE PTR __k$[ebp+2], -21 ; ffffffebH
  00246	eb 0a		 jmp	 SHORT $LN1@LoadFloat_@3
$LN95@LoadFloat_@3:
  00248	c6 45 e1 ec	 mov	 BYTE PTR __k$[ebp+1], -20 ; ffffffecH
  0024c	eb 04		 jmp	 SHORT $LN1@LoadFloat_@3
$LN96@LoadFloat_@3:
  0024e	c6 45 e0 ed	 mov	 BYTE PTR __k$[ebp], -19	; ffffffedH
$LN1@LoadFloat_@3:
  00252	6a 05		 push	 5
  00254	8d 45 e0	 lea	 eax, DWORD PTR __k$[ebp]
  00257	c6 45 f6 00	 mov	 BYTE PTR __k$[ebp+22], 0
  0025b	5a		 pop	 edx
$LL104@LoadFloat_@3:
  0025c	81 30 ed ec eb
	ea		 xor	 DWORD PTR [eax], -353637139 ; eaebecedH
  00262	83 c0 04	 add	 eax, 4
  00265	4a		 dec	 edx
  00266	75 f4		 jne	 SHORT $LL104@LoadFloat_@3
  00268	6a 14		 push	 20			; 00000014H
  0026a	58		 pop	 eax
$LL101@LoadFloat_@3:
  0026b	8b c8		 mov	 ecx, eax
  0026d	81 e1 03 00 00
	80		 and	 ecx, -2147483645	; 80000003H
  00273	79 05		 jns	 SHORT $LN111@LoadFloat_@3
  00275	49		 dec	 ecx
  00276	83 c9 fc	 or	 ecx, -4			; fffffffcH
  00279	41		 inc	 ecx
$LN111@LoadFloat_@3:
  0027a	b2 ed		 mov	 dl, -19			; ffffffedH
  0027c	2a d1		 sub	 dl, cl
  0027e	30 54 05 e0	 xor	 BYTE PTR __k$[ebp+eax], dl
  00282	40		 inc	 eax
  00283	83 f8 16	 cmp	 eax, 22			; 00000016H
  00286	7c e3		 jl	 SHORT $LL101@LoadFloat_@3

; 137  : 		return LoadFloat(_k, f);

  00288	f3 0f 10 45 0c	 movss	 xmm0, DWORD PTR _f$[ebp]
  0028d	51		 push	 ecx
  0028e	8d 45 e0	 lea	 eax, DWORD PTR __k$[ebp]
  00291	f3 0f 11 04 24	 movss	 DWORD PTR [esp], xmm0
  00296	50		 push	 eax
  00297	8b ce		 mov	 ecx, esi
  00299	ff 15 00 00 00
	00		 call	 DWORD PTR __imp_?LoadFloat@ioINILoader@@QAEMPBDM@Z

; 138  : 	}

  0029f	8b 4d fc	 mov	 ecx, DWORD PTR __$ArrayPad$[ebp]
  002a2	5e		 pop	 esi
  002a3	33 cd		 xor	 ecx, ebp
  002a5	5b		 pop	 ebx
  002a6	e8 00 00 00 00	 call	 @__security_check_cookie@4
  002ab	c9		 leave
  002ac	c2 08 00	 ret	 8
??$LoadFloat_e@$0BH@@ioINILoader@@QAEMAAY0BH@$$CBDM@Z ENDP ; ioINILoader::LoadFloat_e<23>
_TEXT	ENDS
PUBLIC	__$ArrayPad$
PUBLIC	??$LoadFloat_e@$0BI@@ioINILoader@@QAEMAAY0BI@$$CBDM@Z ; ioINILoader::LoadFloat_e<24>
; Function compile flags: /Ogsp
;	COMDAT ??$LoadFloat_e@$0BI@@ioINILoader@@QAEMAAY0BI@$$CBDM@Z
_TEXT	SEGMENT
__k$ = -32						; size = 24
__$ArrayPad$ = -4					; size = 4
_k$ = 8							; size = 4
_f$ = 12						; size = 4
??$LoadFloat_e@$0BI@@ioINILoader@@QAEMAAY0BI@$$CBDM@Z PROC ; ioINILoader::LoadFloat_e<24>, COMDAT
; _this$ = ecx

; 135  : 	{

  00000	55		 push	 ebp
  00001	8b ec		 mov	 ebp, esp
  00003	83 ec 20	 sub	 esp, 32			; 00000020H
  00006	a1 00 00 00 00	 mov	 eax, DWORD PTR ___security_cookie
  0000b	33 c5		 xor	 eax, ebp
  0000d	89 45 fc	 mov	 DWORD PTR __$ArrayPad$[ebp], eax
  00010	8b 45 08	 mov	 eax, DWORD PTR _k$[ebp]

; 136  : 		_ENCSTR(k, _k);

  00013	8a 10		 mov	 dl, BYTE PTR [eax]
  00015	53		 push	 ebx
  00016	56		 push	 esi
  00017	8b f1		 mov	 esi, ecx
  00019	84 d2		 test	 dl, dl
  0001b	0f 84 45 02 00
	00		 je	 $LN96@LoadFloat_@4
  00021	80 f2 ed	 xor	 dl, -19			; ffffffedH
  00024	88 55 e0	 mov	 BYTE PTR __k$[ebp], dl
  00027	8a 50 01	 mov	 dl, BYTE PTR [eax+1]
  0002a	84 d2		 test	 dl, dl
  0002c	0f 84 2e 02 00
	00		 je	 $LN95@LoadFloat_@4
  00032	b3 ec		 mov	 bl, -20			; ffffffecH
  00034	32 d3		 xor	 dl, bl
  00036	88 55 e1	 mov	 BYTE PTR __k$[ebp+1], dl
  00039	8a 50 02	 mov	 dl, BYTE PTR [eax+2]
  0003c	84 d2		 test	 dl, dl
  0003e	0f 84 16 02 00
	00		 je	 $LN94@LoadFloat_@4
  00044	b1 eb		 mov	 cl, -21			; ffffffebH
  00046	32 d1		 xor	 dl, cl
  00048	88 55 e2	 mov	 BYTE PTR __k$[ebp+2], dl
  0004b	8a 50 03	 mov	 dl, BYTE PTR [eax+3]
  0004e	84 d2		 test	 dl, dl
  00050	0f 84 fe 01 00
	00		 je	 $LN93@LoadFloat_@4
  00056	80 f2 ea	 xor	 dl, -22			; ffffffeaH
  00059	88 55 e3	 mov	 BYTE PTR __k$[ebp+3], dl
  0005c	8a 50 04	 mov	 dl, BYTE PTR [eax+4]
  0005f	84 d2		 test	 dl, dl
  00061	0f 84 e7 01 00
	00		 je	 $LN92@LoadFloat_@4
  00067	80 f2 ed	 xor	 dl, -19			; ffffffedH
  0006a	88 55 e4	 mov	 BYTE PTR __k$[ebp+4], dl
  0006d	8a 50 05	 mov	 dl, BYTE PTR [eax+5]
  00070	84 d2		 test	 dl, dl
  00072	0f 84 d1 01 00
	00		 je	 $LN91@LoadFloat_@4
  00078	32 d3		 xor	 dl, bl
  0007a	88 55 e5	 mov	 BYTE PTR __k$[ebp+5], dl
  0007d	8a 50 06	 mov	 dl, BYTE PTR [eax+6]
  00080	84 d2		 test	 dl, dl
  00082	0f 84 bc 01 00
	00		 je	 $LN90@LoadFloat_@4
  00088	32 d1		 xor	 dl, cl
  0008a	88 55 e6	 mov	 BYTE PTR __k$[ebp+6], dl
  0008d	8a 50 07	 mov	 dl, BYTE PTR [eax+7]
  00090	84 d2		 test	 dl, dl
  00092	0f 84 a6 01 00
	00		 je	 $LN89@LoadFloat_@4
  00098	80 f2 ea	 xor	 dl, -22			; ffffffeaH
  0009b	88 55 e7	 mov	 BYTE PTR __k$[ebp+7], dl
  0009e	8a 50 08	 mov	 dl, BYTE PTR [eax+8]
  000a1	84 d2		 test	 dl, dl
  000a3	0f 84 8f 01 00
	00		 je	 $LN88@LoadFloat_@4
  000a9	80 f2 ed	 xor	 dl, -19			; ffffffedH
  000ac	88 55 e8	 mov	 BYTE PTR __k$[ebp+8], dl
  000af	8a 50 09	 mov	 dl, BYTE PTR [eax+9]
  000b2	84 d2		 test	 dl, dl
  000b4	0f 84 79 01 00
	00		 je	 $LN87@LoadFloat_@4
  000ba	32 d3		 xor	 dl, bl
  000bc	88 55 e9	 mov	 BYTE PTR __k$[ebp+9], dl
  000bf	8a 50 0a	 mov	 dl, BYTE PTR [eax+10]
  000c2	84 d2		 test	 dl, dl
  000c4	0f 84 64 01 00
	00		 je	 $LN86@LoadFloat_@4
  000ca	32 d1		 xor	 dl, cl
  000cc	88 55 ea	 mov	 BYTE PTR __k$[ebp+10], dl
  000cf	8a 50 0b	 mov	 dl, BYTE PTR [eax+11]
  000d2	84 d2		 test	 dl, dl
  000d4	0f 84 4e 01 00
	00		 je	 $LN85@LoadFloat_@4
  000da	80 f2 ea	 xor	 dl, -22			; ffffffeaH
  000dd	88 55 eb	 mov	 BYTE PTR __k$[ebp+11], dl
  000e0	8a 50 0c	 mov	 dl, BYTE PTR [eax+12]
  000e3	84 d2		 test	 dl, dl
  000e5	0f 84 37 01 00
	00		 je	 $LN84@LoadFloat_@4
  000eb	80 f2 ed	 xor	 dl, -19			; ffffffedH
  000ee	88 55 ec	 mov	 BYTE PTR __k$[ebp+12], dl
  000f1	8a 50 0d	 mov	 dl, BYTE PTR [eax+13]
  000f4	84 d2		 test	 dl, dl
  000f6	0f 84 21 01 00
	00		 je	 $LN83@LoadFloat_@4
  000fc	32 d3		 xor	 dl, bl
  000fe	88 55 ed	 mov	 BYTE PTR __k$[ebp+13], dl
  00101	8a 50 0e	 mov	 dl, BYTE PTR [eax+14]
  00104	84 d2		 test	 dl, dl
  00106	0f 84 0c 01 00
	00		 je	 $LN82@LoadFloat_@4
  0010c	32 d1		 xor	 dl, cl
  0010e	88 55 ee	 mov	 BYTE PTR __k$[ebp+14], dl
  00111	8a 50 0f	 mov	 dl, BYTE PTR [eax+15]
  00114	84 d2		 test	 dl, dl
  00116	0f 84 f6 00 00
	00		 je	 $LN81@LoadFloat_@4
  0011c	80 f2 ea	 xor	 dl, -22			; ffffffeaH
  0011f	88 55 ef	 mov	 BYTE PTR __k$[ebp+15], dl
  00122	8a 50 10	 mov	 dl, BYTE PTR [eax+16]
  00125	84 d2		 test	 dl, dl
  00127	0f 84 df 00 00
	00		 je	 $LN80@LoadFloat_@4
  0012d	80 f2 ed	 xor	 dl, -19			; ffffffedH
  00130	88 55 f0	 mov	 BYTE PTR __k$[ebp+16], dl
  00133	8a 50 11	 mov	 dl, BYTE PTR [eax+17]
  00136	84 d2		 test	 dl, dl
  00138	0f 84 c9 00 00
	00		 je	 $LN79@LoadFloat_@4
  0013e	32 d3		 xor	 dl, bl
  00140	88 55 f1	 mov	 BYTE PTR __k$[ebp+17], dl
  00143	8a 50 12	 mov	 dl, BYTE PTR [eax+18]
  00146	84 d2		 test	 dl, dl
  00148	0f 84 b4 00 00
	00		 je	 $LN78@LoadFloat_@4
  0014e	32 d1		 xor	 dl, cl
  00150	88 55 f2	 mov	 BYTE PTR __k$[ebp+18], dl
  00153	8a 50 13	 mov	 dl, BYTE PTR [eax+19]
  00156	84 d2		 test	 dl, dl
  00158	0f 84 9e 00 00
	00		 je	 $LN77@LoadFloat_@4
  0015e	80 f2 ea	 xor	 dl, -22			; ffffffeaH
  00161	88 55 f3	 mov	 BYTE PTR __k$[ebp+19], dl
  00164	8a 50 14	 mov	 dl, BYTE PTR [eax+20]
  00167	84 d2		 test	 dl, dl
  00169	0f 84 87 00 00
	00		 je	 $LN76@LoadFloat_@4
  0016f	80 f2 ed	 xor	 dl, -19			; ffffffedH
  00172	88 55 f4	 mov	 BYTE PTR __k$[ebp+20], dl
  00175	8a 50 15	 mov	 dl, BYTE PTR [eax+21]
  00178	84 d2		 test	 dl, dl
  0017a	74 75		 je	 SHORT $LN75@LoadFloat_@4
  0017c	32 d3		 xor	 dl, bl
  0017e	88 55 f5	 mov	 BYTE PTR __k$[ebp+21], dl
  00181	8a 50 16	 mov	 dl, BYTE PTR [eax+22]
  00184	84 d2		 test	 dl, dl
  00186	74 64		 je	 SHORT $LN74@LoadFloat_@4
  00188	32 d1		 xor	 dl, cl
  0018a	80 78 17 00	 cmp	 BYTE PTR [eax+23], 0
  0018e	88 55 f6	 mov	 BYTE PTR __k$[ebp+22], dl
  00191	0f 84 d3 00 00
	00		 je	 $LN1@LoadFloat_@4
  00197	8a 50 18	 mov	 dl, BYTE PTR [eax+24]
  0019a	84 d2		 test	 dl, dl
  0019c	74 48		 je	 SHORT $LN72@LoadFloat_@4
  0019e	80 f2 ed	 xor	 dl, -19			; ffffffedH
  001a1	88 55 f8	 mov	 BYTE PTR __k$[ebp+24], dl
  001a4	8a 50 19	 mov	 dl, BYTE PTR [eax+25]
  001a7	84 d2		 test	 dl, dl
  001a9	74 33		 je	 SHORT $LN71@LoadFloat_@4
  001ab	32 d3		 xor	 dl, bl
  001ad	88 55 f9	 mov	 BYTE PTR __k$[ebp+25], dl
  001b0	8a 50 1a	 mov	 dl, BYTE PTR [eax+26]
  001b3	84 d2		 test	 dl, dl
  001b5	74 1f		 je	 SHORT $LN70@LoadFloat_@4
  001b7	8a 40 1b	 mov	 al, BYTE PTR [eax+27]
  001ba	32 d1		 xor	 dl, cl
  001bc	88 55 fa	 mov	 BYTE PTR __k$[ebp+26], dl
  001bf	84 c0		 test	 al, al
  001c1	74 0a		 je	 SHORT $LN69@LoadFloat_@4
  001c3	34 ea		 xor	 al, -22			; ffffffeaH
  001c5	88 45 fb	 mov	 BYTE PTR __k$[ebp+27], al
  001c8	e9 9d 00 00 00	 jmp	 $LN1@LoadFloat_@4
$LN69@LoadFloat_@4:
  001cd	c6 45 fb ea	 mov	 BYTE PTR __k$[ebp+27], -22 ; ffffffeaH
  001d1	e9 94 00 00 00	 jmp	 $LN1@LoadFloat_@4
$LN70@LoadFloat_@4:
  001d6	88 4d fa	 mov	 BYTE PTR __k$[ebp+26], cl
  001d9	e9 8c 00 00 00	 jmp	 $LN1@LoadFloat_@4
$LN71@LoadFloat_@4:
  001de	88 5d f9	 mov	 BYTE PTR __k$[ebp+25], bl
  001e1	e9 84 00 00 00	 jmp	 $LN1@LoadFloat_@4
$LN72@LoadFloat_@4:
  001e6	c6 45 f8 ed	 mov	 BYTE PTR __k$[ebp+24], -19 ; ffffffedH
  001ea	eb 7e		 jmp	 SHORT $LN1@LoadFloat_@4
$LN74@LoadFloat_@4:
  001ec	88 4d f6	 mov	 BYTE PTR __k$[ebp+22], cl
  001ef	eb 79		 jmp	 SHORT $LN1@LoadFloat_@4
$LN75@LoadFloat_@4:
  001f1	88 5d f5	 mov	 BYTE PTR __k$[ebp+21], bl
  001f4	eb 74		 jmp	 SHORT $LN1@LoadFloat_@4
$LN76@LoadFloat_@4:
  001f6	c6 45 f4 ed	 mov	 BYTE PTR __k$[ebp+20], -19 ; ffffffedH
  001fa	eb 6e		 jmp	 SHORT $LN1@LoadFloat_@4
$LN77@LoadFloat_@4:
  001fc	c6 45 f3 ea	 mov	 BYTE PTR __k$[ebp+19], -22 ; ffffffeaH
  00200	eb 68		 jmp	 SHORT $LN1@LoadFloat_@4
$LN78@LoadFloat_@4:
  00202	88 4d f2	 mov	 BYTE PTR __k$[ebp+18], cl
  00205	eb 63		 jmp	 SHORT $LN1@LoadFloat_@4
$LN79@LoadFloat_@4:
  00207	88 5d f1	 mov	 BYTE PTR __k$[ebp+17], bl
  0020a	eb 5e		 jmp	 SHORT $LN1@LoadFloat_@4
$LN80@LoadFloat_@4:
  0020c	c6 45 f0 ed	 mov	 BYTE PTR __k$[ebp+16], -19 ; ffffffedH
  00210	eb 58		 jmp	 SHORT $LN1@LoadFloat_@4
$LN81@LoadFloat_@4:
  00212	c6 45 ef ea	 mov	 BYTE PTR __k$[ebp+15], -22 ; ffffffeaH
  00216	eb 52		 jmp	 SHORT $LN1@LoadFloat_@4
$LN82@LoadFloat_@4:
  00218	88 4d ee	 mov	 BYTE PTR __k$[ebp+14], cl
  0021b	eb 4d		 jmp	 SHORT $LN1@LoadFloat_@4
$LN83@LoadFloat_@4:
  0021d	88 5d ed	 mov	 BYTE PTR __k$[ebp+13], bl
  00220	eb 48		 jmp	 SHORT $LN1@LoadFloat_@4
$LN84@LoadFloat_@4:
  00222	c6 45 ec ed	 mov	 BYTE PTR __k$[ebp+12], -19 ; ffffffedH
  00226	eb 42		 jmp	 SHORT $LN1@LoadFloat_@4
$LN85@LoadFloat_@4:
  00228	c6 45 eb ea	 mov	 BYTE PTR __k$[ebp+11], -22 ; ffffffeaH
  0022c	eb 3c		 jmp	 SHORT $LN1@LoadFloat_@4
$LN86@LoadFloat_@4:
  0022e	88 4d ea	 mov	 BYTE PTR __k$[ebp+10], cl
  00231	eb 37		 jmp	 SHORT $LN1@LoadFloat_@4
$LN87@LoadFloat_@4:
  00233	88 5d e9	 mov	 BYTE PTR __k$[ebp+9], bl
  00236	eb 32		 jmp	 SHORT $LN1@LoadFloat_@4
$LN88@LoadFloat_@4:
  00238	c6 45 e8 ed	 mov	 BYTE PTR __k$[ebp+8], -19 ; ffffffedH
  0023c	eb 2c		 jmp	 SHORT $LN1@LoadFloat_@4
$LN89@LoadFloat_@4:
  0023e	c6 45 e7 ea	 mov	 BYTE PTR __k$[ebp+7], -22 ; ffffffeaH
  00242	eb 26		 jmp	 SHORT $LN1@LoadFloat_@4
$LN90@LoadFloat_@4:
  00244	88 4d e6	 mov	 BYTE PTR __k$[ebp+6], cl
  00247	eb 21		 jmp	 SHORT $LN1@LoadFloat_@4
$LN91@LoadFloat_@4:
  00249	88 5d e5	 mov	 BYTE PTR __k$[ebp+5], bl
  0024c	eb 1c		 jmp	 SHORT $LN1@LoadFloat_@4
$LN92@LoadFloat_@4:
  0024e	c6 45 e4 ed	 mov	 BYTE PTR __k$[ebp+4], -19 ; ffffffedH
  00252	eb 16		 jmp	 SHORT $LN1@LoadFloat_@4
$LN93@LoadFloat_@4:
  00254	c6 45 e3 ea	 mov	 BYTE PTR __k$[ebp+3], -22 ; ffffffeaH
  00258	eb 10		 jmp	 SHORT $LN1@LoadFloat_@4
$LN94@LoadFloat_@4:
  0025a	c6 45 e2 eb	 mov	 BYTE PTR __k$[ebp+2], -21 ; ffffffebH
  0025e	eb 0a		 jmp	 SHORT $LN1@LoadFloat_@4
$LN95@LoadFloat_@4:
  00260	c6 45 e1 ec	 mov	 BYTE PTR __k$[ebp+1], -20 ; ffffffecH
  00264	eb 04		 jmp	 SHORT $LN1@LoadFloat_@4
$LN96@LoadFloat_@4:
  00266	c6 45 e0 ed	 mov	 BYTE PTR __k$[ebp], -19	; ffffffedH
$LN1@LoadFloat_@4:
  0026a	6a 05		 push	 5
  0026c	8d 45 e0	 lea	 eax, DWORD PTR __k$[ebp]
  0026f	c6 45 f7 00	 mov	 BYTE PTR __k$[ebp+23], 0
  00273	5a		 pop	 edx
$LL104@LoadFloat_@4:
  00274	81 30 ed ec eb
	ea		 xor	 DWORD PTR [eax], -353637139 ; eaebecedH
  0027a	83 c0 04	 add	 eax, 4
  0027d	4a		 dec	 edx
  0027e	75 f4		 jne	 SHORT $LL104@LoadFloat_@4
  00280	6a 14		 push	 20			; 00000014H
  00282	58		 pop	 eax
$LL101@LoadFloat_@4:
  00283	8b c8		 mov	 ecx, eax
  00285	81 e1 03 00 00
	80		 and	 ecx, -2147483645	; 80000003H
  0028b	79 05		 jns	 SHORT $LN111@LoadFloat_@4
  0028d	49		 dec	 ecx
  0028e	83 c9 fc	 or	 ecx, -4			; fffffffcH
  00291	41		 inc	 ecx
$LN111@LoadFloat_@4:
  00292	b2 ed		 mov	 dl, -19			; ffffffedH
  00294	2a d1		 sub	 dl, cl
  00296	30 54 05 e0	 xor	 BYTE PTR __k$[ebp+eax], dl
  0029a	40		 inc	 eax
  0029b	83 f8 17	 cmp	 eax, 23			; 00000017H
  0029e	7c e3		 jl	 SHORT $LL101@LoadFloat_@4

; 137  : 		return LoadFloat(_k, f);

  002a0	f3 0f 10 45 0c	 movss	 xmm0, DWORD PTR _f$[ebp]
  002a5	51		 push	 ecx
  002a6	8d 45 e0	 lea	 eax, DWORD PTR __k$[ebp]
  002a9	f3 0f 11 04 24	 movss	 DWORD PTR [esp], xmm0
  002ae	50		 push	 eax
  002af	8b ce		 mov	 ecx, esi
  002b1	ff 15 00 00 00
	00		 call	 DWORD PTR __imp_?LoadFloat@ioINILoader@@QAEMPBDM@Z

; 138  : 	}

  002b7	8b 4d fc	 mov	 ecx, DWORD PTR __$ArrayPad$[ebp]
  002ba	5e		 pop	 esi
  002bb	33 cd		 xor	 ecx, ebp
  002bd	5b		 pop	 ebx
  002be	e8 00 00 00 00	 call	 @__security_check_cookie@4
  002c3	c9		 leave
  002c4	c2 08 00	 ret	 8
??$LoadFloat_e@$0BI@@ioINILoader@@QAEMAAY0BI@$$CBDM@Z ENDP ; ioINILoader::LoadFloat_e<24>
_TEXT	ENDS
PUBLIC	__$ArrayPad$
PUBLIC	??$LoadFloat_e@$0M@@ioINILoader@@QAEMAAY0M@$$CBDM@Z ; ioINILoader::LoadFloat_e<12>
; Function compile flags: /Ogsp
;	COMDAT ??$LoadFloat_e@$0M@@ioINILoader@@QAEMAAY0M@$$CBDM@Z
_TEXT	SEGMENT
__k$ = -20						; size = 12
__$ArrayPad$ = -4					; size = 4
_k$ = 8							; size = 4
_f$ = 12						; size = 4
??$LoadFloat_e@$0M@@ioINILoader@@QAEMAAY0M@$$CBDM@Z PROC ; ioINILoader::LoadFloat_e<12>, COMDAT
; _this$ = ecx

; 135  : 	{

  00000	55		 push	 ebp
  00001	8b ec		 mov	 ebp, esp
  00003	83 ec 14	 sub	 esp, 20			; 00000014H
  00006	a1 00 00 00 00	 mov	 eax, DWORD PTR ___security_cookie
  0000b	33 c5		 xor	 eax, ebp
  0000d	89 45 fc	 mov	 DWORD PTR __$ArrayPad$[ebp], eax
  00010	8b 45 08	 mov	 eax, DWORD PTR _k$[ebp]

; 136  : 		_ENCSTR(k, _k);

  00013	8a 10		 mov	 dl, BYTE PTR [eax]
  00015	56		 push	 esi
  00016	8b f1		 mov	 esi, ecx
  00018	84 d2		 test	 dl, dl
  0001a	0f 84 32 01 00
	00		 je	 $LN96@LoadFloat_@5
  00020	80 f2 ed	 xor	 dl, -19			; ffffffedH
  00023	88 55 ec	 mov	 BYTE PTR __k$[ebp], dl
  00026	8a 50 01	 mov	 dl, BYTE PTR [eax+1]
  00029	84 d2		 test	 dl, dl
  0002b	0f 84 1b 01 00
	00		 je	 $LN95@LoadFloat_@5
  00031	80 f2 ec	 xor	 dl, -20			; ffffffecH
  00034	88 55 ed	 mov	 BYTE PTR __k$[ebp+1], dl
  00037	8a 50 02	 mov	 dl, BYTE PTR [eax+2]
  0003a	84 d2		 test	 dl, dl
  0003c	0f 84 04 01 00
	00		 je	 $LN94@LoadFloat_@5
  00042	b1 eb		 mov	 cl, -21			; ffffffebH
  00044	32 d1		 xor	 dl, cl
  00046	88 55 ee	 mov	 BYTE PTR __k$[ebp+2], dl
  00049	8a 50 03	 mov	 dl, BYTE PTR [eax+3]
  0004c	84 d2		 test	 dl, dl
  0004e	0f 84 ec 00 00
	00		 je	 $LN93@LoadFloat_@5
  00054	80 f2 ea	 xor	 dl, -22			; ffffffeaH
  00057	88 55 ef	 mov	 BYTE PTR __k$[ebp+3], dl
  0005a	8a 50 04	 mov	 dl, BYTE PTR [eax+4]
  0005d	84 d2		 test	 dl, dl
  0005f	0f 84 d5 00 00
	00		 je	 $LN92@LoadFloat_@5
  00065	80 f2 ed	 xor	 dl, -19			; ffffffedH
  00068	88 55 f0	 mov	 BYTE PTR __k$[ebp+4], dl
  0006b	8a 50 05	 mov	 dl, BYTE PTR [eax+5]
  0006e	84 d2		 test	 dl, dl
  00070	0f 84 be 00 00
	00		 je	 $LN91@LoadFloat_@5
  00076	80 f2 ec	 xor	 dl, -20			; ffffffecH
  00079	88 55 f1	 mov	 BYTE PTR __k$[ebp+5], dl
  0007c	8a 50 06	 mov	 dl, BYTE PTR [eax+6]
  0007f	84 d2		 test	 dl, dl
  00081	0f 84 a8 00 00
	00		 je	 $LN90@LoadFloat_@5
  00087	32 d1		 xor	 dl, cl
  00089	88 55 f2	 mov	 BYTE PTR __k$[ebp+6], dl
  0008c	8a 50 07	 mov	 dl, BYTE PTR [eax+7]
  0008f	84 d2		 test	 dl, dl
  00091	0f 84 92 00 00
	00		 je	 $LN89@LoadFloat_@5
  00097	80 f2 ea	 xor	 dl, -22			; ffffffeaH
  0009a	88 55 f3	 mov	 BYTE PTR __k$[ebp+7], dl
  0009d	8a 50 08	 mov	 dl, BYTE PTR [eax+8]
  000a0	84 d2		 test	 dl, dl
  000a2	74 7f		 je	 SHORT $LN88@LoadFloat_@5
  000a4	80 f2 ed	 xor	 dl, -19			; ffffffedH
  000a7	88 55 f4	 mov	 BYTE PTR __k$[ebp+8], dl
  000aa	8a 50 09	 mov	 dl, BYTE PTR [eax+9]
  000ad	84 d2		 test	 dl, dl
  000af	74 6c		 je	 SHORT $LN87@LoadFloat_@5
  000b1	80 f2 ec	 xor	 dl, -20			; ffffffecH
  000b4	88 55 f5	 mov	 BYTE PTR __k$[ebp+9], dl
  000b7	8a 50 0a	 mov	 dl, BYTE PTR [eax+10]
  000ba	84 d2		 test	 dl, dl
  000bc	74 5a		 je	 SHORT $LN86@LoadFloat_@5
  000be	32 d1		 xor	 dl, cl
  000c0	80 78 0b 00	 cmp	 BYTE PTR [eax+11], 0
  000c4	88 55 f6	 mov	 BYTE PTR __k$[ebp+10], dl
  000c7	0f 84 89 00 00
	00		 je	 $LN1@LoadFloat_@5
  000cd	8a 50 0c	 mov	 dl, BYTE PTR [eax+12]
  000d0	84 d2		 test	 dl, dl
  000d2	74 3e		 je	 SHORT $LN84@LoadFloat_@5
  000d4	80 f2 ed	 xor	 dl, -19			; ffffffedH
  000d7	88 55 f8	 mov	 BYTE PTR __k$[ebp+12], dl
  000da	8a 50 0d	 mov	 dl, BYTE PTR [eax+13]
  000dd	84 d2		 test	 dl, dl
  000df	74 2b		 je	 SHORT $LN83@LoadFloat_@5
  000e1	80 f2 ec	 xor	 dl, -20			; ffffffecH
  000e4	88 55 f9	 mov	 BYTE PTR __k$[ebp+13], dl
  000e7	8a 50 0e	 mov	 dl, BYTE PTR [eax+14]
  000ea	84 d2		 test	 dl, dl
  000ec	74 19		 je	 SHORT $LN82@LoadFloat_@5
  000ee	8a 40 0f	 mov	 al, BYTE PTR [eax+15]
  000f1	32 d1		 xor	 dl, cl
  000f3	88 55 fa	 mov	 BYTE PTR __k$[ebp+14], dl
  000f6	84 c0		 test	 al, al
  000f8	74 07		 je	 SHORT $LN81@LoadFloat_@5
  000fa	34 ea		 xor	 al, -22			; ffffffeaH
  000fc	88 45 fb	 mov	 BYTE PTR __k$[ebp+15], al
  000ff	eb 55		 jmp	 SHORT $LN1@LoadFloat_@5
$LN81@LoadFloat_@5:
  00101	c6 45 fb ea	 mov	 BYTE PTR __k$[ebp+15], -22 ; ffffffeaH
  00105	eb 4f		 jmp	 SHORT $LN1@LoadFloat_@5
$LN82@LoadFloat_@5:
  00107	88 4d fa	 mov	 BYTE PTR __k$[ebp+14], cl
  0010a	eb 4a		 jmp	 SHORT $LN1@LoadFloat_@5
$LN83@LoadFloat_@5:
  0010c	c6 45 f9 ec	 mov	 BYTE PTR __k$[ebp+13], -20 ; ffffffecH
  00110	eb 44		 jmp	 SHORT $LN1@LoadFloat_@5
$LN84@LoadFloat_@5:
  00112	c6 45 f8 ed	 mov	 BYTE PTR __k$[ebp+12], -19 ; ffffffedH
  00116	eb 3e		 jmp	 SHORT $LN1@LoadFloat_@5
$LN86@LoadFloat_@5:
  00118	88 4d f6	 mov	 BYTE PTR __k$[ebp+10], cl
  0011b	eb 39		 jmp	 SHORT $LN1@LoadFloat_@5
$LN87@LoadFloat_@5:
  0011d	c6 45 f5 ec	 mov	 BYTE PTR __k$[ebp+9], -20 ; ffffffecH
  00121	eb 33		 jmp	 SHORT $LN1@LoadFloat_@5
$LN88@LoadFloat_@5:
  00123	c6 45 f4 ed	 mov	 BYTE PTR __k$[ebp+8], -19 ; ffffffedH
  00127	eb 2d		 jmp	 SHORT $LN1@LoadFloat_@5
$LN89@LoadFloat_@5:
  00129	c6 45 f3 ea	 mov	 BYTE PTR __k$[ebp+7], -22 ; ffffffeaH
  0012d	eb 27		 jmp	 SHORT $LN1@LoadFloat_@5
$LN90@LoadFloat_@5:
  0012f	88 4d f2	 mov	 BYTE PTR __k$[ebp+6], cl
  00132	eb 22		 jmp	 SHORT $LN1@LoadFloat_@5
$LN91@LoadFloat_@5:
  00134	c6 45 f1 ec	 mov	 BYTE PTR __k$[ebp+5], -20 ; ffffffecH
  00138	eb 1c		 jmp	 SHORT $LN1@LoadFloat_@5
$LN92@LoadFloat_@5:
  0013a	c6 45 f0 ed	 mov	 BYTE PTR __k$[ebp+4], -19 ; ffffffedH
  0013e	eb 16		 jmp	 SHORT $LN1@LoadFloat_@5
$LN93@LoadFloat_@5:
  00140	c6 45 ef ea	 mov	 BYTE PTR __k$[ebp+3], -22 ; ffffffeaH
  00144	eb 10		 jmp	 SHORT $LN1@LoadFloat_@5
$LN94@LoadFloat_@5:
  00146	c6 45 ee eb	 mov	 BYTE PTR __k$[ebp+2], -21 ; ffffffebH
  0014a	eb 0a		 jmp	 SHORT $LN1@LoadFloat_@5
$LN95@LoadFloat_@5:
  0014c	c6 45 ed ec	 mov	 BYTE PTR __k$[ebp+1], -20 ; ffffffecH
  00150	eb 04		 jmp	 SHORT $LN1@LoadFloat_@5
$LN96@LoadFloat_@5:
  00152	c6 45 ec ed	 mov	 BYTE PTR __k$[ebp], -19	; ffffffedH
$LN1@LoadFloat_@5:
  00156	6a 02		 push	 2
  00158	8d 45 ec	 lea	 eax, DWORD PTR __k$[ebp]
  0015b	c6 45 f7 00	 mov	 BYTE PTR __k$[ebp+11], 0
  0015f	5a		 pop	 edx
$LL104@LoadFloat_@5:
  00160	81 30 ed ec eb
	ea		 xor	 DWORD PTR [eax], -353637139 ; eaebecedH
  00166	83 c0 04	 add	 eax, 4
  00169	4a		 dec	 edx
  0016a	75 f4		 jne	 SHORT $LL104@LoadFloat_@5
  0016c	6a 08		 push	 8
  0016e	58		 pop	 eax
$LL101@LoadFloat_@5:
  0016f	8b c8		 mov	 ecx, eax
  00171	81 e1 03 00 00
	80		 and	 ecx, -2147483645	; 80000003H
  00177	79 05		 jns	 SHORT $LN111@LoadFloat_@5
  00179	49		 dec	 ecx
  0017a	83 c9 fc	 or	 ecx, -4			; fffffffcH
  0017d	41		 inc	 ecx
$LN111@LoadFloat_@5:
  0017e	b2 ed		 mov	 dl, -19			; ffffffedH
  00180	2a d1		 sub	 dl, cl
  00182	30 54 05 ec	 xor	 BYTE PTR __k$[ebp+eax], dl
  00186	40		 inc	 eax
  00187	83 f8 0b	 cmp	 eax, 11			; 0000000bH
  0018a	7c e3		 jl	 SHORT $LL101@LoadFloat_@5

; 137  : 		return LoadFloat(_k, f);

  0018c	f3 0f 10 45 0c	 movss	 xmm0, DWORD PTR _f$[ebp]
  00191	51		 push	 ecx
  00192	8d 45 ec	 lea	 eax, DWORD PTR __k$[ebp]
  00195	f3 0f 11 04 24	 movss	 DWORD PTR [esp], xmm0
  0019a	50		 push	 eax
  0019b	8b ce		 mov	 ecx, esi
  0019d	ff 15 00 00 00
	00		 call	 DWORD PTR __imp_?LoadFloat@ioINILoader@@QAEMPBDM@Z

; 138  : 	}

  001a3	8b 4d fc	 mov	 ecx, DWORD PTR __$ArrayPad$[ebp]
  001a6	33 cd		 xor	 ecx, ebp
  001a8	5e		 pop	 esi
  001a9	e8 00 00 00 00	 call	 @__security_check_cookie@4
  001ae	c9		 leave
  001af	c2 08 00	 ret	 8
??$LoadFloat_e@$0M@@ioINILoader@@QAEMAAY0M@$$CBDM@Z ENDP ; ioINILoader::LoadFloat_e<12>
_TEXT	ENDS
PUBLIC	__$ArrayPad$
PUBLIC	??$LoadFloat_e@$0BA@@ioINILoader@@QAEMAAY0BA@$$CBDM@Z ; ioINILoader::LoadFloat_e<16>
; Function compile flags: /Ogsp
;	COMDAT ??$LoadFloat_e@$0BA@@ioINILoader@@QAEMAAY0BA@$$CBDM@Z
_TEXT	SEGMENT
__k$ = -24						; size = 16
__$ArrayPad$ = -4					; size = 4
_k$ = 8							; size = 4
_f$ = 12						; size = 4
??$LoadFloat_e@$0BA@@ioINILoader@@QAEMAAY0BA@$$CBDM@Z PROC ; ioINILoader::LoadFloat_e<16>, COMDAT
; _this$ = ecx

; 135  : 	{

  00000	55		 push	 ebp
  00001	8b ec		 mov	 ebp, esp
  00003	83 ec 18	 sub	 esp, 24			; 00000018H
  00006	a1 00 00 00 00	 mov	 eax, DWORD PTR ___security_cookie
  0000b	33 c5		 xor	 eax, ebp
  0000d	89 45 fc	 mov	 DWORD PTR __$ArrayPad$[ebp], eax
  00010	8b 45 08	 mov	 eax, DWORD PTR _k$[ebp]

; 136  : 		_ENCSTR(k, _k);

  00013	8a 10		 mov	 dl, BYTE PTR [eax]
  00015	56		 push	 esi
  00016	8b f1		 mov	 esi, ecx
  00018	84 d2		 test	 dl, dl
  0001a	0f 84 8c 01 00
	00		 je	 $LN96@LoadFloat_@6
  00020	80 f2 ed	 xor	 dl, -19			; ffffffedH
  00023	88 55 e8	 mov	 BYTE PTR __k$[ebp], dl
  00026	8a 50 01	 mov	 dl, BYTE PTR [eax+1]
  00029	84 d2		 test	 dl, dl
  0002b	0f 84 75 01 00
	00		 je	 $LN95@LoadFloat_@6
  00031	80 f2 ec	 xor	 dl, -20			; ffffffecH
  00034	88 55 e9	 mov	 BYTE PTR __k$[ebp+1], dl
  00037	8a 50 02	 mov	 dl, BYTE PTR [eax+2]
  0003a	84 d2		 test	 dl, dl
  0003c	0f 84 5e 01 00
	00		 je	 $LN94@LoadFloat_@6
  00042	b1 eb		 mov	 cl, -21			; ffffffebH
  00044	32 d1		 xor	 dl, cl
  00046	88 55 ea	 mov	 BYTE PTR __k$[ebp+2], dl
  00049	8a 50 03	 mov	 dl, BYTE PTR [eax+3]
  0004c	84 d2		 test	 dl, dl
  0004e	0f 84 46 01 00
	00		 je	 $LN93@LoadFloat_@6
  00054	80 f2 ea	 xor	 dl, -22			; ffffffeaH
  00057	88 55 eb	 mov	 BYTE PTR __k$[ebp+3], dl
  0005a	8a 50 04	 mov	 dl, BYTE PTR [eax+4]
  0005d	84 d2		 test	 dl, dl
  0005f	0f 84 2f 01 00
	00		 je	 $LN92@LoadFloat_@6
  00065	80 f2 ed	 xor	 dl, -19			; ffffffedH
  00068	88 55 ec	 mov	 BYTE PTR __k$[ebp+4], dl
  0006b	8a 50 05	 mov	 dl, BYTE PTR [eax+5]
  0006e	84 d2		 test	 dl, dl
  00070	0f 84 18 01 00
	00		 je	 $LN91@LoadFloat_@6
  00076	80 f2 ec	 xor	 dl, -20			; ffffffecH
  00079	88 55 ed	 mov	 BYTE PTR __k$[ebp+5], dl
  0007c	8a 50 06	 mov	 dl, BYTE PTR [eax+6]
  0007f	84 d2		 test	 dl, dl
  00081	0f 84 02 01 00
	00		 je	 $LN90@LoadFloat_@6
  00087	32 d1		 xor	 dl, cl
  00089	88 55 ee	 mov	 BYTE PTR __k$[ebp+6], dl
  0008c	8a 50 07	 mov	 dl, BYTE PTR [eax+7]
  0008f	84 d2		 test	 dl, dl
  00091	0f 84 ec 00 00
	00		 je	 $LN89@LoadFloat_@6
  00097	80 f2 ea	 xor	 dl, -22			; ffffffeaH
  0009a	88 55 ef	 mov	 BYTE PTR __k$[ebp+7], dl
  0009d	8a 50 08	 mov	 dl, BYTE PTR [eax+8]
  000a0	84 d2		 test	 dl, dl
  000a2	0f 84 d5 00 00
	00		 je	 $LN88@LoadFloat_@6
  000a8	80 f2 ed	 xor	 dl, -19			; ffffffedH
  000ab	88 55 f0	 mov	 BYTE PTR __k$[ebp+8], dl
  000ae	8a 50 09	 mov	 dl, BYTE PTR [eax+9]
  000b1	84 d2		 test	 dl, dl
  000b3	0f 84 be 00 00
	00		 je	 $LN87@LoadFloat_@6
  000b9	80 f2 ec	 xor	 dl, -20			; ffffffecH
  000bc	88 55 f1	 mov	 BYTE PTR __k$[ebp+9], dl
  000bf	8a 50 0a	 mov	 dl, BYTE PTR [eax+10]
  000c2	84 d2		 test	 dl, dl
  000c4	0f 84 a8 00 00
	00		 je	 $LN86@LoadFloat_@6
  000ca	32 d1		 xor	 dl, cl
  000cc	88 55 f2	 mov	 BYTE PTR __k$[ebp+10], dl
  000cf	8a 50 0b	 mov	 dl, BYTE PTR [eax+11]
  000d2	84 d2		 test	 dl, dl
  000d4	0f 84 92 00 00
	00		 je	 $LN85@LoadFloat_@6
  000da	80 f2 ea	 xor	 dl, -22			; ffffffeaH
  000dd	88 55 f3	 mov	 BYTE PTR __k$[ebp+11], dl
  000e0	8a 50 0c	 mov	 dl, BYTE PTR [eax+12]
  000e3	84 d2		 test	 dl, dl
  000e5	74 7f		 je	 SHORT $LN84@LoadFloat_@6
  000e7	80 f2 ed	 xor	 dl, -19			; ffffffedH
  000ea	88 55 f4	 mov	 BYTE PTR __k$[ebp+12], dl
  000ed	8a 50 0d	 mov	 dl, BYTE PTR [eax+13]
  000f0	84 d2		 test	 dl, dl
  000f2	74 6c		 je	 SHORT $LN83@LoadFloat_@6
  000f4	80 f2 ec	 xor	 dl, -20			; ffffffecH
  000f7	88 55 f5	 mov	 BYTE PTR __k$[ebp+13], dl
  000fa	8a 50 0e	 mov	 dl, BYTE PTR [eax+14]
  000fd	84 d2		 test	 dl, dl
  000ff	74 5a		 je	 SHORT $LN82@LoadFloat_@6
  00101	32 d1		 xor	 dl, cl
  00103	80 78 0f 00	 cmp	 BYTE PTR [eax+15], 0
  00107	88 55 f6	 mov	 BYTE PTR __k$[ebp+14], dl
  0010a	0f 84 a0 00 00
	00		 je	 $LN1@LoadFloat_@6
  00110	8a 50 10	 mov	 dl, BYTE PTR [eax+16]
  00113	84 d2		 test	 dl, dl
  00115	74 3e		 je	 SHORT $LN80@LoadFloat_@6
  00117	80 f2 ed	 xor	 dl, -19			; ffffffedH
  0011a	88 55 f8	 mov	 BYTE PTR __k$[ebp+16], dl
  0011d	8a 50 11	 mov	 dl, BYTE PTR [eax+17]
  00120	84 d2		 test	 dl, dl
  00122	74 2b		 je	 SHORT $LN79@LoadFloat_@6
  00124	80 f2 ec	 xor	 dl, -20			; ffffffecH
  00127	88 55 f9	 mov	 BYTE PTR __k$[ebp+17], dl
  0012a	8a 50 12	 mov	 dl, BYTE PTR [eax+18]
  0012d	84 d2		 test	 dl, dl
  0012f	74 19		 je	 SHORT $LN78@LoadFloat_@6
  00131	8a 40 13	 mov	 al, BYTE PTR [eax+19]
  00134	32 d1		 xor	 dl, cl
  00136	88 55 fa	 mov	 BYTE PTR __k$[ebp+18], dl
  00139	84 c0		 test	 al, al
  0013b	74 07		 je	 SHORT $LN77@LoadFloat_@6
  0013d	34 ea		 xor	 al, -22			; ffffffeaH
  0013f	88 45 fb	 mov	 BYTE PTR __k$[ebp+19], al
  00142	eb 6c		 jmp	 SHORT $LN1@LoadFloat_@6
$LN77@LoadFloat_@6:
  00144	c6 45 fb ea	 mov	 BYTE PTR __k$[ebp+19], -22 ; ffffffeaH
  00148	eb 66		 jmp	 SHORT $LN1@LoadFloat_@6
$LN78@LoadFloat_@6:
  0014a	88 4d fa	 mov	 BYTE PTR __k$[ebp+18], cl
  0014d	eb 61		 jmp	 SHORT $LN1@LoadFloat_@6
$LN79@LoadFloat_@6:
  0014f	c6 45 f9 ec	 mov	 BYTE PTR __k$[ebp+17], -20 ; ffffffecH
  00153	eb 5b		 jmp	 SHORT $LN1@LoadFloat_@6
$LN80@LoadFloat_@6:
  00155	c6 45 f8 ed	 mov	 BYTE PTR __k$[ebp+16], -19 ; ffffffedH
  00159	eb 55		 jmp	 SHORT $LN1@LoadFloat_@6
$LN82@LoadFloat_@6:
  0015b	88 4d f6	 mov	 BYTE PTR __k$[ebp+14], cl
  0015e	eb 50		 jmp	 SHORT $LN1@LoadFloat_@6
$LN83@LoadFloat_@6:
  00160	c6 45 f5 ec	 mov	 BYTE PTR __k$[ebp+13], -20 ; ffffffecH
  00164	eb 4a		 jmp	 SHORT $LN1@LoadFloat_@6
$LN84@LoadFloat_@6:
  00166	c6 45 f4 ed	 mov	 BYTE PTR __k$[ebp+12], -19 ; ffffffedH
  0016a	eb 44		 jmp	 SHORT $LN1@LoadFloat_@6
$LN85@LoadFloat_@6:
  0016c	c6 45 f3 ea	 mov	 BYTE PTR __k$[ebp+11], -22 ; ffffffeaH
  00170	eb 3e		 jmp	 SHORT $LN1@LoadFloat_@6
$LN86@LoadFloat_@6:
  00172	88 4d f2	 mov	 BYTE PTR __k$[ebp+10], cl
  00175	eb 39		 jmp	 SHORT $LN1@LoadFloat_@6
$LN87@LoadFloat_@6:
  00177	c6 45 f1 ec	 mov	 BYTE PTR __k$[ebp+9], -20 ; ffffffecH
  0017b	eb 33		 jmp	 SHORT $LN1@LoadFloat_@6
$LN88@LoadFloat_@6:
  0017d	c6 45 f0 ed	 mov	 BYTE PTR __k$[ebp+8], -19 ; ffffffedH
  00181	eb 2d		 jmp	 SHORT $LN1@LoadFloat_@6
$LN89@LoadFloat_@6:
  00183	c6 45 ef ea	 mov	 BYTE PTR __k$[ebp+7], -22 ; ffffffeaH
  00187	eb 27		 jmp	 SHORT $LN1@LoadFloat_@6
$LN90@LoadFloat_@6:
  00189	88 4d ee	 mov	 BYTE PTR __k$[ebp+6], cl
  0018c	eb 22		 jmp	 SHORT $LN1@LoadFloat_@6
$LN91@LoadFloat_@6:
  0018e	c6 45 ed ec	 mov	 BYTE PTR __k$[ebp+5], -20 ; ffffffecH
  00192	eb 1c		 jmp	 SHORT $LN1@LoadFloat_@6
$LN92@LoadFloat_@6:
  00194	c6 45 ec ed	 mov	 BYTE PTR __k$[ebp+4], -19 ; ffffffedH
  00198	eb 16		 jmp	 SHORT $LN1@LoadFloat_@6
$LN93@LoadFloat_@6:
  0019a	c6 45 eb ea	 mov	 BYTE PTR __k$[ebp+3], -22 ; ffffffeaH
  0019e	eb 10		 jmp	 SHORT $LN1@LoadFloat_@6
$LN94@LoadFloat_@6:
  001a0	c6 45 ea eb	 mov	 BYTE PTR __k$[ebp+2], -21 ; ffffffebH
  001a4	eb 0a		 jmp	 SHORT $LN1@LoadFloat_@6
$LN95@LoadFloat_@6:
  001a6	c6 45 e9 ec	 mov	 BYTE PTR __k$[ebp+1], -20 ; ffffffecH
  001aa	eb 04		 jmp	 SHORT $LN1@LoadFloat_@6
$LN96@LoadFloat_@6:
  001ac	c6 45 e8 ed	 mov	 BYTE PTR __k$[ebp], -19	; ffffffedH
$LN1@LoadFloat_@6:
  001b0	6a 03		 push	 3
  001b2	8d 45 e8	 lea	 eax, DWORD PTR __k$[ebp]
  001b5	c6 45 f7 00	 mov	 BYTE PTR __k$[ebp+15], 0
  001b9	5a		 pop	 edx
$LL104@LoadFloat_@6:
  001ba	81 30 ed ec eb
	ea		 xor	 DWORD PTR [eax], -353637139 ; eaebecedH
  001c0	83 c0 04	 add	 eax, 4
  001c3	4a		 dec	 edx
  001c4	75 f4		 jne	 SHORT $LL104@LoadFloat_@6
  001c6	6a 0c		 push	 12			; 0000000cH
  001c8	58		 pop	 eax
$LL101@LoadFloat_@6:
  001c9	8b c8		 mov	 ecx, eax
  001cb	81 e1 03 00 00
	80		 and	 ecx, -2147483645	; 80000003H
  001d1	79 05		 jns	 SHORT $LN111@LoadFloat_@6
  001d3	49		 dec	 ecx
  001d4	83 c9 fc	 or	 ecx, -4			; fffffffcH
  001d7	41		 inc	 ecx
$LN111@LoadFloat_@6:
  001d8	b2 ed		 mov	 dl, -19			; ffffffedH
  001da	2a d1		 sub	 dl, cl
  001dc	30 54 05 e8	 xor	 BYTE PTR __k$[ebp+eax], dl
  001e0	40		 inc	 eax
  001e1	83 f8 0f	 cmp	 eax, 15			; 0000000fH
  001e4	7c e3		 jl	 SHORT $LL101@LoadFloat_@6

; 137  : 		return LoadFloat(_k, f);

  001e6	f3 0f 10 45 0c	 movss	 xmm0, DWORD PTR _f$[ebp]
  001eb	51		 push	 ecx
  001ec	8d 45 e8	 lea	 eax, DWORD PTR __k$[ebp]
  001ef	f3 0f 11 04 24	 movss	 DWORD PTR [esp], xmm0
  001f4	50		 push	 eax
  001f5	8b ce		 mov	 ecx, esi
  001f7	ff 15 00 00 00
	00		 call	 DWORD PTR __imp_?LoadFloat@ioINILoader@@QAEMPBDM@Z

; 138  : 	}

  001fd	8b 4d fc	 mov	 ecx, DWORD PTR __$ArrayPad$[ebp]
  00200	33 cd		 xor	 ecx, ebp
  00202	5e		 pop	 esi
  00203	e8 00 00 00 00	 call	 @__security_check_cookie@4
  00208	c9		 leave
  00209	c2 08 00	 ret	 8
??$LoadFloat_e@$0BA@@ioINILoader@@QAEMAAY0BA@$$CBDM@Z ENDP ; ioINILoader::LoadFloat_e<16>
_TEXT	ENDS
PUBLIC	__$ArrayPad$
PUBLIC	??$LoadFloat_e@$0BD@@ioINILoader@@QAEMAAY0BD@$$CBDM@Z ; ioINILoader::LoadFloat_e<19>
; Function compile flags: /Ogsp
;	COMDAT ??$LoadFloat_e@$0BD@@ioINILoader@@QAEMAAY0BD@$$CBDM@Z
_TEXT	SEGMENT
__k$ = -28						; size = 19
__$ArrayPad$ = -4					; size = 4
_k$ = 8							; size = 4
_f$ = 12						; size = 4
??$LoadFloat_e@$0BD@@ioINILoader@@QAEMAAY0BD@$$CBDM@Z PROC ; ioINILoader::LoadFloat_e<19>, COMDAT
; _this$ = ecx

; 135  : 	{

  00000	55		 push	 ebp
  00001	8b ec		 mov	 ebp, esp
  00003	83 ec 1c	 sub	 esp, 28			; 0000001cH
  00006	a1 00 00 00 00	 mov	 eax, DWORD PTR ___security_cookie
  0000b	33 c5		 xor	 eax, ebp
  0000d	89 45 fc	 mov	 DWORD PTR __$ArrayPad$[ebp], eax
  00010	8b 45 08	 mov	 eax, DWORD PTR _k$[ebp]

; 136  : 		_ENCSTR(k, _k);

  00013	8a 10		 mov	 dl, BYTE PTR [eax]
  00015	56		 push	 esi
  00016	8b f1		 mov	 esi, ecx
  00018	84 d2		 test	 dl, dl
  0001a	0f 84 cf 01 00
	00		 je	 $LN96@LoadFloat_@7
  00020	80 f2 ed	 xor	 dl, -19			; ffffffedH
  00023	88 55 e4	 mov	 BYTE PTR __k$[ebp], dl
  00026	8a 50 01	 mov	 dl, BYTE PTR [eax+1]
  00029	84 d2		 test	 dl, dl
  0002b	0f 84 b8 01 00
	00		 je	 $LN95@LoadFloat_@7
  00031	b1 ec		 mov	 cl, -20			; ffffffecH
  00033	32 d1		 xor	 dl, cl
  00035	88 55 e5	 mov	 BYTE PTR __k$[ebp+1], dl
  00038	8a 50 02	 mov	 dl, BYTE PTR [eax+2]
  0003b	84 d2		 test	 dl, dl
  0003d	0f 84 a0 01 00
	00		 je	 $LN94@LoadFloat_@7
  00043	80 f2 eb	 xor	 dl, -21			; ffffffebH
  00046	88 55 e6	 mov	 BYTE PTR __k$[ebp+2], dl
  00049	8a 50 03	 mov	 dl, BYTE PTR [eax+3]
  0004c	84 d2		 test	 dl, dl
  0004e	0f 84 89 01 00
	00		 je	 $LN93@LoadFloat_@7
  00054	80 f2 ea	 xor	 dl, -22			; ffffffeaH
  00057	88 55 e7	 mov	 BYTE PTR __k$[ebp+3], dl
  0005a	8a 50 04	 mov	 dl, BYTE PTR [eax+4]
  0005d	84 d2		 test	 dl, dl
  0005f	0f 84 72 01 00
	00		 je	 $LN92@LoadFloat_@7
  00065	80 f2 ed	 xor	 dl, -19			; ffffffedH
  00068	88 55 e8	 mov	 BYTE PTR __k$[ebp+4], dl
  0006b	8a 50 05	 mov	 dl, BYTE PTR [eax+5]
  0006e	84 d2		 test	 dl, dl
  00070	0f 84 5c 01 00
	00		 je	 $LN91@LoadFloat_@7
  00076	32 d1		 xor	 dl, cl
  00078	88 55 e9	 mov	 BYTE PTR __k$[ebp+5], dl
  0007b	8a 50 06	 mov	 dl, BYTE PTR [eax+6]
  0007e	84 d2		 test	 dl, dl
  00080	0f 84 46 01 00
	00		 je	 $LN90@LoadFloat_@7
  00086	80 f2 eb	 xor	 dl, -21			; ffffffebH
  00089	88 55 ea	 mov	 BYTE PTR __k$[ebp+6], dl
  0008c	8a 50 07	 mov	 dl, BYTE PTR [eax+7]
  0008f	84 d2		 test	 dl, dl
  00091	0f 84 2f 01 00
	00		 je	 $LN89@LoadFloat_@7
  00097	80 f2 ea	 xor	 dl, -22			; ffffffeaH
  0009a	88 55 eb	 mov	 BYTE PTR __k$[ebp+7], dl
  0009d	8a 50 08	 mov	 dl, BYTE PTR [eax+8]
  000a0	84 d2		 test	 dl, dl
  000a2	0f 84 18 01 00
	00		 je	 $LN88@LoadFloat_@7
  000a8	80 f2 ed	 xor	 dl, -19			; ffffffedH
  000ab	88 55 ec	 mov	 BYTE PTR __k$[ebp+8], dl
  000ae	8a 50 09	 mov	 dl, BYTE PTR [eax+9]
  000b1	84 d2		 test	 dl, dl
  000b3	0f 84 02 01 00
	00		 je	 $LN87@LoadFloat_@7
  000b9	32 d1		 xor	 dl, cl
  000bb	88 55 ed	 mov	 BYTE PTR __k$[ebp+9], dl
  000be	8a 50 0a	 mov	 dl, BYTE PTR [eax+10]
  000c1	84 d2		 test	 dl, dl
  000c3	0f 84 ec 00 00
	00		 je	 $LN86@LoadFloat_@7
  000c9	80 f2 eb	 xor	 dl, -21			; ffffffebH
  000cc	88 55 ee	 mov	 BYTE PTR __k$[ebp+10], dl
  000cf	8a 50 0b	 mov	 dl, BYTE PTR [eax+11]
  000d2	84 d2		 test	 dl, dl
  000d4	0f 84 d5 00 00
	00		 je	 $LN85@LoadFloat_@7
  000da	80 f2 ea	 xor	 dl, -22			; ffffffeaH
  000dd	88 55 ef	 mov	 BYTE PTR __k$[ebp+11], dl
  000e0	8a 50 0c	 mov	 dl, BYTE PTR [eax+12]
  000e3	84 d2		 test	 dl, dl
  000e5	0f 84 be 00 00
	00		 je	 $LN84@LoadFloat_@7
  000eb	80 f2 ed	 xor	 dl, -19			; ffffffedH
  000ee	88 55 f0	 mov	 BYTE PTR __k$[ebp+12], dl
  000f1	8a 50 0d	 mov	 dl, BYTE PTR [eax+13]
  000f4	84 d2		 test	 dl, dl
  000f6	0f 84 a8 00 00
	00		 je	 $LN83@LoadFloat_@7
  000fc	32 d1		 xor	 dl, cl
  000fe	88 55 f1	 mov	 BYTE PTR __k$[ebp+13], dl
  00101	8a 50 0e	 mov	 dl, BYTE PTR [eax+14]
  00104	84 d2		 test	 dl, dl
  00106	0f 84 92 00 00
	00		 je	 $LN82@LoadFloat_@7
  0010c	80 f2 eb	 xor	 dl, -21			; ffffffebH
  0010f	88 55 f2	 mov	 BYTE PTR __k$[ebp+14], dl
  00112	8a 50 0f	 mov	 dl, BYTE PTR [eax+15]
  00115	84 d2		 test	 dl, dl
  00117	74 7f		 je	 SHORT $LN81@LoadFloat_@7
  00119	80 f2 ea	 xor	 dl, -22			; ffffffeaH
  0011c	88 55 f3	 mov	 BYTE PTR __k$[ebp+15], dl
  0011f	8a 50 10	 mov	 dl, BYTE PTR [eax+16]
  00122	84 d2		 test	 dl, dl
  00124	74 6c		 je	 SHORT $LN80@LoadFloat_@7
  00126	80 f2 ed	 xor	 dl, -19			; ffffffedH
  00129	88 55 f4	 mov	 BYTE PTR __k$[ebp+16], dl
  0012c	8a 50 11	 mov	 dl, BYTE PTR [eax+17]
  0012f	84 d2		 test	 dl, dl
  00131	74 5a		 je	 SHORT $LN79@LoadFloat_@7
  00133	32 d1		 xor	 dl, cl
  00135	80 78 12 00	 cmp	 BYTE PTR [eax+18], 0
  00139	88 55 f5	 mov	 BYTE PTR __k$[ebp+17], dl
  0013c	0f 84 b1 00 00
	00		 je	 $LN1@LoadFloat_@7
  00142	8a 50 13	 mov	 dl, BYTE PTR [eax+19]
  00145	84 d2		 test	 dl, dl
  00147	74 3e		 je	 SHORT $LN77@LoadFloat_@7
  00149	80 f2 ea	 xor	 dl, -22			; ffffffeaH
  0014c	88 55 f7	 mov	 BYTE PTR __k$[ebp+19], dl
  0014f	8a 50 14	 mov	 dl, BYTE PTR [eax+20]
  00152	84 d2		 test	 dl, dl
  00154	74 2b		 je	 SHORT $LN76@LoadFloat_@7
  00156	80 f2 ed	 xor	 dl, -19			; ffffffedH
  00159	88 55 f8	 mov	 BYTE PTR __k$[ebp+20], dl
  0015c	8a 50 15	 mov	 dl, BYTE PTR [eax+21]
  0015f	84 d2		 test	 dl, dl
  00161	74 19		 je	 SHORT $LN75@LoadFloat_@7
  00163	8a 40 16	 mov	 al, BYTE PTR [eax+22]
  00166	32 d1		 xor	 dl, cl
  00168	88 55 f9	 mov	 BYTE PTR __k$[ebp+21], dl
  0016b	84 c0		 test	 al, al
  0016d	74 07		 je	 SHORT $LN74@LoadFloat_@7
  0016f	34 eb		 xor	 al, -21			; ffffffebH
  00171	88 45 fa	 mov	 BYTE PTR __k$[ebp+22], al
  00174	eb 7d		 jmp	 SHORT $LN1@LoadFloat_@7
$LN74@LoadFloat_@7:
  00176	c6 45 fa eb	 mov	 BYTE PTR __k$[ebp+22], -21 ; ffffffebH
  0017a	eb 77		 jmp	 SHORT $LN1@LoadFloat_@7
$LN75@LoadFloat_@7:
  0017c	88 4d f9	 mov	 BYTE PTR __k$[ebp+21], cl
  0017f	eb 72		 jmp	 SHORT $LN1@LoadFloat_@7
$LN76@LoadFloat_@7:
  00181	c6 45 f8 ed	 mov	 BYTE PTR __k$[ebp+20], -19 ; ffffffedH
  00185	eb 6c		 jmp	 SHORT $LN1@LoadFloat_@7
$LN77@LoadFloat_@7:
  00187	c6 45 f7 ea	 mov	 BYTE PTR __k$[ebp+19], -22 ; ffffffeaH
  0018b	eb 66		 jmp	 SHORT $LN1@LoadFloat_@7
$LN79@LoadFloat_@7:
  0018d	88 4d f5	 mov	 BYTE PTR __k$[ebp+17], cl
  00190	eb 61		 jmp	 SHORT $LN1@LoadFloat_@7
$LN80@LoadFloat_@7:
  00192	c6 45 f4 ed	 mov	 BYTE PTR __k$[ebp+16], -19 ; ffffffedH
  00196	eb 5b		 jmp	 SHORT $LN1@LoadFloat_@7
$LN81@LoadFloat_@7:
  00198	c6 45 f3 ea	 mov	 BYTE PTR __k$[ebp+15], -22 ; ffffffeaH
  0019c	eb 55		 jmp	 SHORT $LN1@LoadFloat_@7
$LN82@LoadFloat_@7:
  0019e	c6 45 f2 eb	 mov	 BYTE PTR __k$[ebp+14], -21 ; ffffffebH
  001a2	eb 4f		 jmp	 SHORT $LN1@LoadFloat_@7
$LN83@LoadFloat_@7:
  001a4	88 4d f1	 mov	 BYTE PTR __k$[ebp+13], cl
  001a7	eb 4a		 jmp	 SHORT $LN1@LoadFloat_@7
$LN84@LoadFloat_@7:
  001a9	c6 45 f0 ed	 mov	 BYTE PTR __k$[ebp+12], -19 ; ffffffedH
  001ad	eb 44		 jmp	 SHORT $LN1@LoadFloat_@7
$LN85@LoadFloat_@7:
  001af	c6 45 ef ea	 mov	 BYTE PTR __k$[ebp+11], -22 ; ffffffeaH
  001b3	eb 3e		 jmp	 SHORT $LN1@LoadFloat_@7
$LN86@LoadFloat_@7:
  001b5	c6 45 ee eb	 mov	 BYTE PTR __k$[ebp+10], -21 ; ffffffebH
  001b9	eb 38		 jmp	 SHORT $LN1@LoadFloat_@7
$LN87@LoadFloat_@7:
  001bb	88 4d ed	 mov	 BYTE PTR __k$[ebp+9], cl
  001be	eb 33		 jmp	 SHORT $LN1@LoadFloat_@7
$LN88@LoadFloat_@7:
  001c0	c6 45 ec ed	 mov	 BYTE PTR __k$[ebp+8], -19 ; ffffffedH
  001c4	eb 2d		 jmp	 SHORT $LN1@LoadFloat_@7
$LN89@LoadFloat_@7:
  001c6	c6 45 eb ea	 mov	 BYTE PTR __k$[ebp+7], -22 ; ffffffeaH
  001ca	eb 27		 jmp	 SHORT $LN1@LoadFloat_@7
$LN90@LoadFloat_@7:
  001cc	c6 45 ea eb	 mov	 BYTE PTR __k$[ebp+6], -21 ; ffffffebH
  001d0	eb 21		 jmp	 SHORT $LN1@LoadFloat_@7
$LN91@LoadFloat_@7:
  001d2	88 4d e9	 mov	 BYTE PTR __k$[ebp+5], cl
  001d5	eb 1c		 jmp	 SHORT $LN1@LoadFloat_@7
$LN92@LoadFloat_@7:
  001d7	c6 45 e8 ed	 mov	 BYTE PTR __k$[ebp+4], -19 ; ffffffedH
  001db	eb 16		 jmp	 SHORT $LN1@LoadFloat_@7
$LN93@LoadFloat_@7:
  001dd	c6 45 e7 ea	 mov	 BYTE PTR __k$[ebp+3], -22 ; ffffffeaH
  001e1	eb 10		 jmp	 SHORT $LN1@LoadFloat_@7
$LN94@LoadFloat_@7:
  001e3	c6 45 e6 eb	 mov	 BYTE PTR __k$[ebp+2], -21 ; ffffffebH
  001e7	eb 0a		 jmp	 SHORT $LN1@LoadFloat_@7
$LN95@LoadFloat_@7:
  001e9	c6 45 e5 ec	 mov	 BYTE PTR __k$[ebp+1], -20 ; ffffffecH
  001ed	eb 04		 jmp	 SHORT $LN1@LoadFloat_@7
$LN96@LoadFloat_@7:
  001ef	c6 45 e4 ed	 mov	 BYTE PTR __k$[ebp], -19	; ffffffedH
$LN1@LoadFloat_@7:
  001f3	6a 04		 push	 4
  001f5	8d 45 e4	 lea	 eax, DWORD PTR __k$[ebp]
  001f8	c6 45 f6 00	 mov	 BYTE PTR __k$[ebp+18], 0
  001fc	5a		 pop	 edx
$LL104@LoadFloat_@7:
  001fd	81 30 ed ec eb
	ea		 xor	 DWORD PTR [eax], -353637139 ; eaebecedH
  00203	83 c0 04	 add	 eax, 4
  00206	4a		 dec	 edx
  00207	75 f4		 jne	 SHORT $LL104@LoadFloat_@7
  00209	6a 10		 push	 16			; 00000010H
  0020b	58		 pop	 eax
$LL101@LoadFloat_@7:
  0020c	8b c8		 mov	 ecx, eax
  0020e	81 e1 03 00 00
	80		 and	 ecx, -2147483645	; 80000003H
  00214	79 05		 jns	 SHORT $LN111@LoadFloat_@7
  00216	49		 dec	 ecx
  00217	83 c9 fc	 or	 ecx, -4			; fffffffcH
  0021a	41		 inc	 ecx
$LN111@LoadFloat_@7:
  0021b	b2 ed		 mov	 dl, -19			; ffffffedH
  0021d	2a d1		 sub	 dl, cl
  0021f	30 54 05 e4	 xor	 BYTE PTR __k$[ebp+eax], dl
  00223	40		 inc	 eax
  00224	83 f8 12	 cmp	 eax, 18			; 00000012H
  00227	7c e3		 jl	 SHORT $LL101@LoadFloat_@7

; 137  : 		return LoadFloat(_k, f);

  00229	f3 0f 10 45 0c	 movss	 xmm0, DWORD PTR _f$[ebp]
  0022e	51		 push	 ecx
  0022f	8d 45 e4	 lea	 eax, DWORD PTR __k$[ebp]
  00232	f3 0f 11 04 24	 movss	 DWORD PTR [esp], xmm0
  00237	50		 push	 eax
  00238	8b ce		 mov	 ecx, esi
  0023a	ff 15 00 00 00
	00		 call	 DWORD PTR __imp_?LoadFloat@ioINILoader@@QAEMPBDM@Z

; 138  : 	}

  00240	8b 4d fc	 mov	 ecx, DWORD PTR __$ArrayPad$[ebp]
  00243	33 cd		 xor	 ecx, ebp
  00245	5e		 pop	 esi
  00246	e8 00 00 00 00	 call	 @__security_check_cookie@4
  0024b	c9		 leave
  0024c	c2 08 00	 ret	 8
??$LoadFloat_e@$0BD@@ioINILoader@@QAEMAAY0BD@$$CBDM@Z ENDP ; ioINILoader::LoadFloat_e<19>
_TEXT	ENDS
PUBLIC	__$ArrayPad$
PUBLIC	??$LoadFloat_e@$0BC@@ioINILoader@@QAEMAAY0BC@$$CBDM@Z ; ioINILoader::LoadFloat_e<18>
; Function compile flags: /Ogsp
;	COMDAT ??$LoadFloat_e@$0BC@@ioINILoader@@QAEMAAY0BC@$$CBDM@Z
_TEXT	SEGMENT
__k$ = -28						; size = 18
__$ArrayPad$ = -4					; size = 4
_k$ = 8							; size = 4
_f$ = 12						; size = 4
??$LoadFloat_e@$0BC@@ioINILoader@@QAEMAAY0BC@$$CBDM@Z PROC ; ioINILoader::LoadFloat_e<18>, COMDAT
; _this$ = ecx

; 135  : 	{

  00000	55		 push	 ebp
  00001	8b ec		 mov	 ebp, esp
  00003	83 ec 1c	 sub	 esp, 28			; 0000001cH
  00006	a1 00 00 00 00	 mov	 eax, DWORD PTR ___security_cookie
  0000b	33 c5		 xor	 eax, ebp
  0000d	89 45 fc	 mov	 DWORD PTR __$ArrayPad$[ebp], eax
  00010	8b 45 08	 mov	 eax, DWORD PTR _k$[ebp]

; 136  : 		_ENCSTR(k, _k);

  00013	8a 10		 mov	 dl, BYTE PTR [eax]
  00015	56		 push	 esi
  00016	8b f1		 mov	 esi, ecx
  00018	84 d2		 test	 dl, dl
  0001a	0f 84 be 01 00
	00		 je	 $LN96@LoadFloat_@8
  00020	80 f2 ed	 xor	 dl, -19			; ffffffedH
  00023	88 55 e4	 mov	 BYTE PTR __k$[ebp], dl
  00026	8a 50 01	 mov	 dl, BYTE PTR [eax+1]
  00029	84 d2		 test	 dl, dl
  0002b	0f 84 a7 01 00
	00		 je	 $LN95@LoadFloat_@8
  00031	80 f2 ec	 xor	 dl, -20			; ffffffecH
  00034	88 55 e5	 mov	 BYTE PTR __k$[ebp+1], dl
  00037	8a 50 02	 mov	 dl, BYTE PTR [eax+2]
  0003a	84 d2		 test	 dl, dl
  0003c	0f 84 90 01 00
	00		 je	 $LN94@LoadFloat_@8
  00042	b1 eb		 mov	 cl, -21			; ffffffebH
  00044	32 d1		 xor	 dl, cl
  00046	88 55 e6	 mov	 BYTE PTR __k$[ebp+2], dl
  00049	8a 50 03	 mov	 dl, BYTE PTR [eax+3]
  0004c	84 d2		 test	 dl, dl
  0004e	0f 84 78 01 00
	00		 je	 $LN93@LoadFloat_@8
  00054	80 f2 ea	 xor	 dl, -22			; ffffffeaH
  00057	88 55 e7	 mov	 BYTE PTR __k$[ebp+3], dl
  0005a	8a 50 04	 mov	 dl, BYTE PTR [eax+4]
  0005d	84 d2		 test	 dl, dl
  0005f	0f 84 61 01 00
	00		 je	 $LN92@LoadFloat_@8
  00065	80 f2 ed	 xor	 dl, -19			; ffffffedH
  00068	88 55 e8	 mov	 BYTE PTR __k$[ebp+4], dl
  0006b	8a 50 05	 mov	 dl, BYTE PTR [eax+5]
  0006e	84 d2		 test	 dl, dl
  00070	0f 84 4a 01 00
	00		 je	 $LN91@LoadFloat_@8
  00076	80 f2 ec	 xor	 dl, -20			; ffffffecH
  00079	88 55 e9	 mov	 BYTE PTR __k$[ebp+5], dl
  0007c	8a 50 06	 mov	 dl, BYTE PTR [eax+6]
  0007f	84 d2		 test	 dl, dl
  00081	0f 84 34 01 00
	00		 je	 $LN90@LoadFloat_@8
  00087	32 d1		 xor	 dl, cl
  00089	88 55 ea	 mov	 BYTE PTR __k$[ebp+6], dl
  0008c	8a 50 07	 mov	 dl, BYTE PTR [eax+7]
  0008f	84 d2		 test	 dl, dl
  00091	0f 84 1e 01 00
	00		 je	 $LN89@LoadFloat_@8
  00097	80 f2 ea	 xor	 dl, -22			; ffffffeaH
  0009a	88 55 eb	 mov	 BYTE PTR __k$[ebp+7], dl
  0009d	8a 50 08	 mov	 dl, BYTE PTR [eax+8]
  000a0	84 d2		 test	 dl, dl
  000a2	0f 84 07 01 00
	00		 je	 $LN88@LoadFloat_@8
  000a8	80 f2 ed	 xor	 dl, -19			; ffffffedH
  000ab	88 55 ec	 mov	 BYTE PTR __k$[ebp+8], dl
  000ae	8a 50 09	 mov	 dl, BYTE PTR [eax+9]
  000b1	84 d2		 test	 dl, dl
  000b3	0f 84 f0 00 00
	00		 je	 $LN87@LoadFloat_@8
  000b9	80 f2 ec	 xor	 dl, -20			; ffffffecH
  000bc	88 55 ed	 mov	 BYTE PTR __k$[ebp+9], dl
  000bf	8a 50 0a	 mov	 dl, BYTE PTR [eax+10]
  000c2	84 d2		 test	 dl, dl
  000c4	0f 84 da 00 00
	00		 je	 $LN86@LoadFloat_@8
  000ca	32 d1		 xor	 dl, cl
  000cc	88 55 ee	 mov	 BYTE PTR __k$[ebp+10], dl
  000cf	8a 50 0b	 mov	 dl, BYTE PTR [eax+11]
  000d2	84 d2		 test	 dl, dl
  000d4	0f 84 c4 00 00
	00		 je	 $LN85@LoadFloat_@8
  000da	80 f2 ea	 xor	 dl, -22			; ffffffeaH
  000dd	88 55 ef	 mov	 BYTE PTR __k$[ebp+11], dl
  000e0	8a 50 0c	 mov	 dl, BYTE PTR [eax+12]
  000e3	84 d2		 test	 dl, dl
  000e5	0f 84 ad 00 00
	00		 je	 $LN84@LoadFloat_@8
  000eb	80 f2 ed	 xor	 dl, -19			; ffffffedH
  000ee	88 55 f0	 mov	 BYTE PTR __k$[ebp+12], dl
  000f1	8a 50 0d	 mov	 dl, BYTE PTR [eax+13]
  000f4	84 d2		 test	 dl, dl
  000f6	0f 84 96 00 00
	00		 je	 $LN83@LoadFloat_@8
  000fc	80 f2 ec	 xor	 dl, -20			; ffffffecH
  000ff	88 55 f1	 mov	 BYTE PTR __k$[ebp+13], dl
  00102	8a 50 0e	 mov	 dl, BYTE PTR [eax+14]
  00105	84 d2		 test	 dl, dl
  00107	0f 84 80 00 00
	00		 je	 $LN82@LoadFloat_@8
  0010d	32 d1		 xor	 dl, cl
  0010f	88 55 f2	 mov	 BYTE PTR __k$[ebp+14], dl
  00112	8a 50 0f	 mov	 dl, BYTE PTR [eax+15]
  00115	84 d2		 test	 dl, dl
  00117	74 6e		 je	 SHORT $LN81@LoadFloat_@8
  00119	80 f2 ea	 xor	 dl, -22			; ffffffeaH
  0011c	88 55 f3	 mov	 BYTE PTR __k$[ebp+15], dl
  0011f	8a 50 10	 mov	 dl, BYTE PTR [eax+16]
  00122	84 d2		 test	 dl, dl
  00124	74 5b		 je	 SHORT $LN80@LoadFloat_@8
  00126	80 f2 ed	 xor	 dl, -19			; ffffffedH
  00129	80 78 11 00	 cmp	 BYTE PTR [eax+17], 0
  0012d	88 55 f4	 mov	 BYTE PTR __k$[ebp+16], dl
  00130	0f 84 ac 00 00
	00		 je	 $LN1@LoadFloat_@8
  00136	8a 50 12	 mov	 dl, BYTE PTR [eax+18]
  00139	84 d2		 test	 dl, dl
  0013b	74 3f		 je	 SHORT $LN78@LoadFloat_@8
  0013d	32 d1		 xor	 dl, cl
  0013f	88 55 f6	 mov	 BYTE PTR __k$[ebp+18], dl
  00142	8a 50 13	 mov	 dl, BYTE PTR [eax+19]
  00145	84 d2		 test	 dl, dl
  00147	74 2d		 je	 SHORT $LN77@LoadFloat_@8
  00149	80 f2 ea	 xor	 dl, -22			; ffffffeaH
  0014c	88 55 f7	 mov	 BYTE PTR __k$[ebp+19], dl
  0014f	8a 50 14	 mov	 dl, BYTE PTR [eax+20]
  00152	84 d2		 test	 dl, dl
  00154	74 1a		 je	 SHORT $LN76@LoadFloat_@8
  00156	8a 40 15	 mov	 al, BYTE PTR [eax+21]
  00159	80 f2 ed	 xor	 dl, -19			; ffffffedH
  0015c	88 55 f8	 mov	 BYTE PTR __k$[ebp+20], dl
  0015f	84 c0		 test	 al, al
  00161	74 07		 je	 SHORT $LN75@LoadFloat_@8
  00163	34 ec		 xor	 al, -20			; ffffffecH
  00165	88 45 f9	 mov	 BYTE PTR __k$[ebp+21], al
  00168	eb 78		 jmp	 SHORT $LN1@LoadFloat_@8
$LN75@LoadFloat_@8:
  0016a	c6 45 f9 ec	 mov	 BYTE PTR __k$[ebp+21], -20 ; ffffffecH
  0016e	eb 72		 jmp	 SHORT $LN1@LoadFloat_@8
$LN76@LoadFloat_@8:
  00170	c6 45 f8 ed	 mov	 BYTE PTR __k$[ebp+20], -19 ; ffffffedH
  00174	eb 6c		 jmp	 SHORT $LN1@LoadFloat_@8
$LN77@LoadFloat_@8:
  00176	c6 45 f7 ea	 mov	 BYTE PTR __k$[ebp+19], -22 ; ffffffeaH
  0017a	eb 66		 jmp	 SHORT $LN1@LoadFloat_@8
$LN78@LoadFloat_@8:
  0017c	88 4d f6	 mov	 BYTE PTR __k$[ebp+18], cl
  0017f	eb 61		 jmp	 SHORT $LN1@LoadFloat_@8
$LN80@LoadFloat_@8:
  00181	c6 45 f4 ed	 mov	 BYTE PTR __k$[ebp+16], -19 ; ffffffedH
  00185	eb 5b		 jmp	 SHORT $LN1@LoadFloat_@8
$LN81@LoadFloat_@8:
  00187	c6 45 f3 ea	 mov	 BYTE PTR __k$[ebp+15], -22 ; ffffffeaH
  0018b	eb 55		 jmp	 SHORT $LN1@LoadFloat_@8
$LN82@LoadFloat_@8:
  0018d	88 4d f2	 mov	 BYTE PTR __k$[ebp+14], cl
  00190	eb 50		 jmp	 SHORT $LN1@LoadFloat_@8
$LN83@LoadFloat_@8:
  00192	c6 45 f1 ec	 mov	 BYTE PTR __k$[ebp+13], -20 ; ffffffecH
  00196	eb 4a		 jmp	 SHORT $LN1@LoadFloat_@8
$LN84@LoadFloat_@8:
  00198	c6 45 f0 ed	 mov	 BYTE PTR __k$[ebp+12], -19 ; ffffffedH
  0019c	eb 44		 jmp	 SHORT $LN1@LoadFloat_@8
$LN85@LoadFloat_@8:
  0019e	c6 45 ef ea	 mov	 BYTE PTR __k$[ebp+11], -22 ; ffffffeaH
  001a2	eb 3e		 jmp	 SHORT $LN1@LoadFloat_@8
$LN86@LoadFloat_@8:
  001a4	88 4d ee	 mov	 BYTE PTR __k$[ebp+10], cl
  001a7	eb 39		 jmp	 SHORT $LN1@LoadFloat_@8
$LN87@LoadFloat_@8:
  001a9	c6 45 ed ec	 mov	 BYTE PTR __k$[ebp+9], -20 ; ffffffecH
  001ad	eb 33		 jmp	 SHORT $LN1@LoadFloat_@8
$LN88@LoadFloat_@8:
  001af	c6 45 ec ed	 mov	 BYTE PTR __k$[ebp+8], -19 ; ffffffedH
  001b3	eb 2d		 jmp	 SHORT $LN1@LoadFloat_@8
$LN89@LoadFloat_@8:
  001b5	c6 45 eb ea	 mov	 BYTE PTR __k$[ebp+7], -22 ; ffffffeaH
  001b9	eb 27		 jmp	 SHORT $LN1@LoadFloat_@8
$LN90@LoadFloat_@8:
  001bb	88 4d ea	 mov	 BYTE PTR __k$[ebp+6], cl
  001be	eb 22		 jmp	 SHORT $LN1@LoadFloat_@8
$LN91@LoadFloat_@8:
  001c0	c6 45 e9 ec	 mov	 BYTE PTR __k$[ebp+5], -20 ; ffffffecH
  001c4	eb 1c		 jmp	 SHORT $LN1@LoadFloat_@8
$LN92@LoadFloat_@8:
  001c6	c6 45 e8 ed	 mov	 BYTE PTR __k$[ebp+4], -19 ; ffffffedH
  001ca	eb 16		 jmp	 SHORT $LN1@LoadFloat_@8
$LN93@LoadFloat_@8:
  001cc	c6 45 e7 ea	 mov	 BYTE PTR __k$[ebp+3], -22 ; ffffffeaH
  001d0	eb 10		 jmp	 SHORT $LN1@LoadFloat_@8
$LN94@LoadFloat_@8:
  001d2	c6 45 e6 eb	 mov	 BYTE PTR __k$[ebp+2], -21 ; ffffffebH
  001d6	eb 0a		 jmp	 SHORT $LN1@LoadFloat_@8
$LN95@LoadFloat_@8:
  001d8	c6 45 e5 ec	 mov	 BYTE PTR __k$[ebp+1], -20 ; ffffffecH
  001dc	eb 04		 jmp	 SHORT $LN1@LoadFloat_@8
$LN96@LoadFloat_@8:
  001de	c6 45 e4 ed	 mov	 BYTE PTR __k$[ebp], -19	; ffffffedH
$LN1@LoadFloat_@8:
  001e2	6a 04		 push	 4
  001e4	8d 45 e4	 lea	 eax, DWORD PTR __k$[ebp]
  001e7	c6 45 f5 00	 mov	 BYTE PTR __k$[ebp+17], 0
  001eb	5a		 pop	 edx
$LL104@LoadFloat_@8:
  001ec	81 30 ed ec eb
	ea		 xor	 DWORD PTR [eax], -353637139 ; eaebecedH
  001f2	83 c0 04	 add	 eax, 4
  001f5	4a		 dec	 edx
  001f6	75 f4		 jne	 SHORT $LL104@LoadFloat_@8

; 137  : 		return LoadFloat(_k, f);

  001f8	f3 0f 10 45 0c	 movss	 xmm0, DWORD PTR _f$[ebp]
  001fd	80 75 f4 ed	 xor	 BYTE PTR __k$[ebp+16], -19 ; ffffffedH
  00201	51		 push	 ecx
  00202	8d 45 e4	 lea	 eax, DWORD PTR __k$[ebp]
  00205	f3 0f 11 04 24	 movss	 DWORD PTR [esp], xmm0
  0020a	50		 push	 eax
  0020b	8b ce		 mov	 ecx, esi
  0020d	ff 15 00 00 00
	00		 call	 DWORD PTR __imp_?LoadFloat@ioINILoader@@QAEMPBDM@Z

; 138  : 	}

  00213	8b 4d fc	 mov	 ecx, DWORD PTR __$ArrayPad$[ebp]
  00216	33 cd		 xor	 ecx, ebp
  00218	5e		 pop	 esi
  00219	e8 00 00 00 00	 call	 @__security_check_cookie@4
  0021e	c9		 leave
  0021f	c2 08 00	 ret	 8
??$LoadFloat_e@$0BC@@ioINILoader@@QAEMAAY0BC@$$CBDM@Z ENDP ; ioINILoader::LoadFloat_e<18>
_TEXT	ENDS
PUBLIC	__$ArrayPad$
PUBLIC	??$LoadInt_e@$0P@@ioINILoader@@QAEHAAY0P@$$CBDH@Z ; ioINILoader::LoadInt_e<15>
EXTRN	__imp_?LoadInt@ioINILoader@@QAEHPBDH@Z:PROC
; Function compile flags: /Ogsp
;	COMDAT ??$LoadInt_e@$0P@@ioINILoader@@QAEHAAY0P@$$CBDH@Z
_TEXT	SEGMENT
__k$ = -24						; size = 15
__$ArrayPad$ = -4					; size = 4
_k$ = 8							; size = 4
_i$ = 12						; size = 4
??$LoadInt_e@$0P@@ioINILoader@@QAEHAAY0P@$$CBDH@Z PROC	; ioINILoader::LoadInt_e<15>, COMDAT
; _this$ = ecx

; 118  : 	{

  00000	55		 push	 ebp
  00001	8b ec		 mov	 ebp, esp
  00003	83 ec 18	 sub	 esp, 24			; 00000018H
  00006	a1 00 00 00 00	 mov	 eax, DWORD PTR ___security_cookie
  0000b	33 c5		 xor	 eax, ebp
  0000d	89 45 fc	 mov	 DWORD PTR __$ArrayPad$[ebp], eax
  00010	8b 45 08	 mov	 eax, DWORD PTR _k$[ebp]

; 119  : 		_ENCSTR(k, _k);

  00013	8a 10		 mov	 dl, BYTE PTR [eax]
  00015	56		 push	 esi
  00016	8b f1		 mov	 esi, ecx
  00018	84 d2		 test	 dl, dl
  0001a	0f 84 75 01 00
	00		 je	 $LN96@LoadInt_e
  00020	80 f2 ed	 xor	 dl, -19			; ffffffedH
  00023	88 55 e8	 mov	 BYTE PTR __k$[ebp], dl
  00026	8a 50 01	 mov	 dl, BYTE PTR [eax+1]
  00029	84 d2		 test	 dl, dl
  0002b	0f 84 5e 01 00
	00		 je	 $LN95@LoadInt_e
  00031	b1 ec		 mov	 cl, -20			; ffffffecH
  00033	32 d1		 xor	 dl, cl
  00035	88 55 e9	 mov	 BYTE PTR __k$[ebp+1], dl
  00038	8a 50 02	 mov	 dl, BYTE PTR [eax+2]
  0003b	84 d2		 test	 dl, dl
  0003d	0f 84 46 01 00
	00		 je	 $LN94@LoadInt_e
  00043	80 f2 eb	 xor	 dl, -21			; ffffffebH
  00046	88 55 ea	 mov	 BYTE PTR __k$[ebp+2], dl
  00049	8a 50 03	 mov	 dl, BYTE PTR [eax+3]
  0004c	84 d2		 test	 dl, dl
  0004e	0f 84 2f 01 00
	00		 je	 $LN93@LoadInt_e
  00054	80 f2 ea	 xor	 dl, -22			; ffffffeaH
  00057	88 55 eb	 mov	 BYTE PTR __k$[ebp+3], dl
  0005a	8a 50 04	 mov	 dl, BYTE PTR [eax+4]
  0005d	84 d2		 test	 dl, dl
  0005f	0f 84 18 01 00
	00		 je	 $LN92@LoadInt_e
  00065	80 f2 ed	 xor	 dl, -19			; ffffffedH
  00068	88 55 ec	 mov	 BYTE PTR __k$[ebp+4], dl
  0006b	8a 50 05	 mov	 dl, BYTE PTR [eax+5]
  0006e	84 d2		 test	 dl, dl
  00070	0f 84 02 01 00
	00		 je	 $LN91@LoadInt_e
  00076	32 d1		 xor	 dl, cl
  00078	88 55 ed	 mov	 BYTE PTR __k$[ebp+5], dl
  0007b	8a 50 06	 mov	 dl, BYTE PTR [eax+6]
  0007e	84 d2		 test	 dl, dl
  00080	0f 84 ec 00 00
	00		 je	 $LN90@LoadInt_e
  00086	80 f2 eb	 xor	 dl, -21			; ffffffebH
  00089	88 55 ee	 mov	 BYTE PTR __k$[ebp+6], dl
  0008c	8a 50 07	 mov	 dl, BYTE PTR [eax+7]
  0008f	84 d2		 test	 dl, dl
  00091	0f 84 d5 00 00
	00		 je	 $LN89@LoadInt_e
  00097	80 f2 ea	 xor	 dl, -22			; ffffffeaH
  0009a	88 55 ef	 mov	 BYTE PTR __k$[ebp+7], dl
  0009d	8a 50 08	 mov	 dl, BYTE PTR [eax+8]
  000a0	84 d2		 test	 dl, dl
  000a2	0f 84 be 00 00
	00		 je	 $LN88@LoadInt_e
  000a8	80 f2 ed	 xor	 dl, -19			; ffffffedH
  000ab	88 55 f0	 mov	 BYTE PTR __k$[ebp+8], dl
  000ae	8a 50 09	 mov	 dl, BYTE PTR [eax+9]
  000b1	84 d2		 test	 dl, dl
  000b3	0f 84 a8 00 00
	00		 je	 $LN87@LoadInt_e
  000b9	32 d1		 xor	 dl, cl
  000bb	88 55 f1	 mov	 BYTE PTR __k$[ebp+9], dl
  000be	8a 50 0a	 mov	 dl, BYTE PTR [eax+10]
  000c1	84 d2		 test	 dl, dl
  000c3	0f 84 92 00 00
	00		 je	 $LN86@LoadInt_e
  000c9	80 f2 eb	 xor	 dl, -21			; ffffffebH
  000cc	88 55 f2	 mov	 BYTE PTR __k$[ebp+10], dl
  000cf	8a 50 0b	 mov	 dl, BYTE PTR [eax+11]
  000d2	84 d2		 test	 dl, dl
  000d4	74 7f		 je	 SHORT $LN85@LoadInt_e
  000d6	80 f2 ea	 xor	 dl, -22			; ffffffeaH
  000d9	88 55 f3	 mov	 BYTE PTR __k$[ebp+11], dl
  000dc	8a 50 0c	 mov	 dl, BYTE PTR [eax+12]
  000df	84 d2		 test	 dl, dl
  000e1	74 6c		 je	 SHORT $LN84@LoadInt_e
  000e3	80 f2 ed	 xor	 dl, -19			; ffffffedH
  000e6	88 55 f4	 mov	 BYTE PTR __k$[ebp+12], dl
  000e9	8a 50 0d	 mov	 dl, BYTE PTR [eax+13]
  000ec	84 d2		 test	 dl, dl
  000ee	74 5a		 je	 SHORT $LN83@LoadInt_e
  000f0	32 d1		 xor	 dl, cl
  000f2	80 78 0e 00	 cmp	 BYTE PTR [eax+14], 0
  000f6	88 55 f5	 mov	 BYTE PTR __k$[ebp+13], dl
  000f9	0f 84 9a 00 00
	00		 je	 $LN1@LoadInt_e
  000ff	8a 50 0f	 mov	 dl, BYTE PTR [eax+15]
  00102	84 d2		 test	 dl, dl
  00104	74 3e		 je	 SHORT $LN81@LoadInt_e
  00106	80 f2 ea	 xor	 dl, -22			; ffffffeaH
  00109	88 55 f7	 mov	 BYTE PTR __k$[ebp+15], dl
  0010c	8a 50 10	 mov	 dl, BYTE PTR [eax+16]
  0010f	84 d2		 test	 dl, dl
  00111	74 2b		 je	 SHORT $LN80@LoadInt_e
  00113	80 f2 ed	 xor	 dl, -19			; ffffffedH
  00116	88 55 f8	 mov	 BYTE PTR __k$[ebp+16], dl
  00119	8a 50 11	 mov	 dl, BYTE PTR [eax+17]
  0011c	84 d2		 test	 dl, dl
  0011e	74 19		 je	 SHORT $LN79@LoadInt_e
  00120	8a 40 12	 mov	 al, BYTE PTR [eax+18]
  00123	32 d1		 xor	 dl, cl
  00125	88 55 f9	 mov	 BYTE PTR __k$[ebp+17], dl
  00128	84 c0		 test	 al, al
  0012a	74 07		 je	 SHORT $LN78@LoadInt_e
  0012c	34 eb		 xor	 al, -21			; ffffffebH
  0012e	88 45 fa	 mov	 BYTE PTR __k$[ebp+18], al
  00131	eb 66		 jmp	 SHORT $LN1@LoadInt_e
$LN78@LoadInt_e:
  00133	c6 45 fa eb	 mov	 BYTE PTR __k$[ebp+18], -21 ; ffffffebH
  00137	eb 60		 jmp	 SHORT $LN1@LoadInt_e
$LN79@LoadInt_e:
  00139	88 4d f9	 mov	 BYTE PTR __k$[ebp+17], cl
  0013c	eb 5b		 jmp	 SHORT $LN1@LoadInt_e
$LN80@LoadInt_e:
  0013e	c6 45 f8 ed	 mov	 BYTE PTR __k$[ebp+16], -19 ; ffffffedH
  00142	eb 55		 jmp	 SHORT $LN1@LoadInt_e
$LN81@LoadInt_e:
  00144	c6 45 f7 ea	 mov	 BYTE PTR __k$[ebp+15], -22 ; ffffffeaH
  00148	eb 4f		 jmp	 SHORT $LN1@LoadInt_e
$LN83@LoadInt_e:
  0014a	88 4d f5	 mov	 BYTE PTR __k$[ebp+13], cl
  0014d	eb 4a		 jmp	 SHORT $LN1@LoadInt_e
$LN84@LoadInt_e:
  0014f	c6 45 f4 ed	 mov	 BYTE PTR __k$[ebp+12], -19 ; ffffffedH
  00153	eb 44		 jmp	 SHORT $LN1@LoadInt_e
$LN85@LoadInt_e:
  00155	c6 45 f3 ea	 mov	 BYTE PTR __k$[ebp+11], -22 ; ffffffeaH
  00159	eb 3e		 jmp	 SHORT $LN1@LoadInt_e
$LN86@LoadInt_e:
  0015b	c6 45 f2 eb	 mov	 BYTE PTR __k$[ebp+10], -21 ; ffffffebH
  0015f	eb 38		 jmp	 SHORT $LN1@LoadInt_e
$LN87@LoadInt_e:
  00161	88 4d f1	 mov	 BYTE PTR __k$[ebp+9], cl
  00164	eb 33		 jmp	 SHORT $LN1@LoadInt_e
$LN88@LoadInt_e:
  00166	c6 45 f0 ed	 mov	 BYTE PTR __k$[ebp+8], -19 ; ffffffedH
  0016a	eb 2d		 jmp	 SHORT $LN1@LoadInt_e
$LN89@LoadInt_e:
  0016c	c6 45 ef ea	 mov	 BYTE PTR __k$[ebp+7], -22 ; ffffffeaH
  00170	eb 27		 jmp	 SHORT $LN1@LoadInt_e
$LN90@LoadInt_e:
  00172	c6 45 ee eb	 mov	 BYTE PTR __k$[ebp+6], -21 ; ffffffebH
  00176	eb 21		 jmp	 SHORT $LN1@LoadInt_e
$LN91@LoadInt_e:
  00178	88 4d ed	 mov	 BYTE PTR __k$[ebp+5], cl
  0017b	eb 1c		 jmp	 SHORT $LN1@LoadInt_e
$LN92@LoadInt_e:
  0017d	c6 45 ec ed	 mov	 BYTE PTR __k$[ebp+4], -19 ; ffffffedH
  00181	eb 16		 jmp	 SHORT $LN1@LoadInt_e
$LN93@LoadInt_e:
  00183	c6 45 eb ea	 mov	 BYTE PTR __k$[ebp+3], -22 ; ffffffeaH
  00187	eb 10		 jmp	 SHORT $LN1@LoadInt_e
$LN94@LoadInt_e:
  00189	c6 45 ea eb	 mov	 BYTE PTR __k$[ebp+2], -21 ; ffffffebH
  0018d	eb 0a		 jmp	 SHORT $LN1@LoadInt_e
$LN95@LoadInt_e:
  0018f	c6 45 e9 ec	 mov	 BYTE PTR __k$[ebp+1], -20 ; ffffffecH
  00193	eb 04		 jmp	 SHORT $LN1@LoadInt_e
$LN96@LoadInt_e:
  00195	c6 45 e8 ed	 mov	 BYTE PTR __k$[ebp], -19	; ffffffedH
$LN1@LoadInt_e:
  00199	6a 03		 push	 3
  0019b	8d 45 e8	 lea	 eax, DWORD PTR __k$[ebp]
  0019e	c6 45 f6 00	 mov	 BYTE PTR __k$[ebp+14], 0
  001a2	5a		 pop	 edx
$LL104@LoadInt_e:
  001a3	81 30 ed ec eb
	ea		 xor	 DWORD PTR [eax], -353637139 ; eaebecedH
  001a9	83 c0 04	 add	 eax, 4
  001ac	4a		 dec	 edx
  001ad	75 f4		 jne	 SHORT $LL104@LoadInt_e
  001af	6a 0c		 push	 12			; 0000000cH
  001b1	58		 pop	 eax
$LL101@LoadInt_e:
  001b2	8b c8		 mov	 ecx, eax
  001b4	81 e1 03 00 00
	80		 and	 ecx, -2147483645	; 80000003H
  001ba	79 05		 jns	 SHORT $LN111@LoadInt_e
  001bc	49		 dec	 ecx
  001bd	83 c9 fc	 or	 ecx, -4			; fffffffcH
  001c0	41		 inc	 ecx
$LN111@LoadInt_e:
  001c1	b2 ed		 mov	 dl, -19			; ffffffedH
  001c3	2a d1		 sub	 dl, cl
  001c5	30 54 05 e8	 xor	 BYTE PTR __k$[ebp+eax], dl
  001c9	40		 inc	 eax
  001ca	83 f8 0e	 cmp	 eax, 14			; 0000000eH
  001cd	7c e3		 jl	 SHORT $LL101@LoadInt_e

; 120  : 		return LoadInt(_k, i);

  001cf	ff 75 0c	 push	 DWORD PTR _i$[ebp]
  001d2	8d 45 e8	 lea	 eax, DWORD PTR __k$[ebp]
  001d5	50		 push	 eax
  001d6	8b ce		 mov	 ecx, esi
  001d8	ff 15 00 00 00
	00		 call	 DWORD PTR __imp_?LoadInt@ioINILoader@@QAEHPBDH@Z

; 121  : 	}

  001de	8b 4d fc	 mov	 ecx, DWORD PTR __$ArrayPad$[ebp]
  001e1	33 cd		 xor	 ecx, ebp
  001e3	5e		 pop	 esi
  001e4	e8 00 00 00 00	 call	 @__security_check_cookie@4
  001e9	c9		 leave
  001ea	c2 08 00	 ret	 8
??$LoadInt_e@$0P@@ioINILoader@@QAEHAAY0P@$$CBDH@Z ENDP	; ioINILoader::LoadInt_e<15>
_TEXT	ENDS
PUBLIC	__$ArrayPad$
PUBLIC	??$LoadInt_e@$0M@@ioINILoader@@QAEHAAY0M@$$CBDH@Z ; ioINILoader::LoadInt_e<12>
; Function compile flags: /Ogsp
;	COMDAT ??$LoadInt_e@$0M@@ioINILoader@@QAEHAAY0M@$$CBDH@Z
_TEXT	SEGMENT
__k$ = -20						; size = 12
__$ArrayPad$ = -4					; size = 4
_k$ = 8							; size = 4
_i$ = 12						; size = 4
??$LoadInt_e@$0M@@ioINILoader@@QAEHAAY0M@$$CBDH@Z PROC	; ioINILoader::LoadInt_e<12>, COMDAT
; _this$ = ecx

; 118  : 	{

  00000	55		 push	 ebp
  00001	8b ec		 mov	 ebp, esp
  00003	83 ec 14	 sub	 esp, 20			; 00000014H
  00006	a1 00 00 00 00	 mov	 eax, DWORD PTR ___security_cookie
  0000b	33 c5		 xor	 eax, ebp
  0000d	89 45 fc	 mov	 DWORD PTR __$ArrayPad$[ebp], eax
  00010	8b 45 08	 mov	 eax, DWORD PTR _k$[ebp]

; 119  : 		_ENCSTR(k, _k);

  00013	8a 10		 mov	 dl, BYTE PTR [eax]
  00015	56		 push	 esi
  00016	8b f1		 mov	 esi, ecx
  00018	84 d2		 test	 dl, dl
  0001a	0f 84 32 01 00
	00		 je	 $LN96@LoadInt_e@2
  00020	80 f2 ed	 xor	 dl, -19			; ffffffedH
  00023	88 55 ec	 mov	 BYTE PTR __k$[ebp], dl
  00026	8a 50 01	 mov	 dl, BYTE PTR [eax+1]
  00029	84 d2		 test	 dl, dl
  0002b	0f 84 1b 01 00
	00		 je	 $LN95@LoadInt_e@2
  00031	80 f2 ec	 xor	 dl, -20			; ffffffecH
  00034	88 55 ed	 mov	 BYTE PTR __k$[ebp+1], dl
  00037	8a 50 02	 mov	 dl, BYTE PTR [eax+2]
  0003a	84 d2		 test	 dl, dl
  0003c	0f 84 04 01 00
	00		 je	 $LN94@LoadInt_e@2
  00042	b1 eb		 mov	 cl, -21			; ffffffebH
  00044	32 d1		 xor	 dl, cl
  00046	88 55 ee	 mov	 BYTE PTR __k$[ebp+2], dl
  00049	8a 50 03	 mov	 dl, BYTE PTR [eax+3]
  0004c	84 d2		 test	 dl, dl
  0004e	0f 84 ec 00 00
	00		 je	 $LN93@LoadInt_e@2
  00054	80 f2 ea	 xor	 dl, -22			; ffffffeaH
  00057	88 55 ef	 mov	 BYTE PTR __k$[ebp+3], dl
  0005a	8a 50 04	 mov	 dl, BYTE PTR [eax+4]
  0005d	84 d2		 test	 dl, dl
  0005f	0f 84 d5 00 00
	00		 je	 $LN92@LoadInt_e@2
  00065	80 f2 ed	 xor	 dl, -19			; ffffffedH
  00068	88 55 f0	 mov	 BYTE PTR __k$[ebp+4], dl
  0006b	8a 50 05	 mov	 dl, BYTE PTR [eax+5]
  0006e	84 d2		 test	 dl, dl
  00070	0f 84 be 00 00
	00		 je	 $LN91@LoadInt_e@2
  00076	80 f2 ec	 xor	 dl, -20			; ffffffecH
  00079	88 55 f1	 mov	 BYTE PTR __k$[ebp+5], dl
  0007c	8a 50 06	 mov	 dl, BYTE PTR [eax+6]
  0007f	84 d2		 test	 dl, dl
  00081	0f 84 a8 00 00
	00		 je	 $LN90@LoadInt_e@2
  00087	32 d1		 xor	 dl, cl
  00089	88 55 f2	 mov	 BYTE PTR __k$[ebp+6], dl
  0008c	8a 50 07	 mov	 dl, BYTE PTR [eax+7]
  0008f	84 d2		 test	 dl, dl
  00091	0f 84 92 00 00
	00		 je	 $LN89@LoadInt_e@2
  00097	80 f2 ea	 xor	 dl, -22			; ffffffeaH
  0009a	88 55 f3	 mov	 BYTE PTR __k$[ebp+7], dl
  0009d	8a 50 08	 mov	 dl, BYTE PTR [eax+8]
  000a0	84 d2		 test	 dl, dl
  000a2	74 7f		 je	 SHORT $LN88@LoadInt_e@2
  000a4	80 f2 ed	 xor	 dl, -19			; ffffffedH
  000a7	88 55 f4	 mov	 BYTE PTR __k$[ebp+8], dl
  000aa	8a 50 09	 mov	 dl, BYTE PTR [eax+9]
  000ad	84 d2		 test	 dl, dl
  000af	74 6c		 je	 SHORT $LN87@LoadInt_e@2
  000b1	80 f2 ec	 xor	 dl, -20			; ffffffecH
  000b4	88 55 f5	 mov	 BYTE PTR __k$[ebp+9], dl
  000b7	8a 50 0a	 mov	 dl, BYTE PTR [eax+10]
  000ba	84 d2		 test	 dl, dl
  000bc	74 5a		 je	 SHORT $LN86@LoadInt_e@2
  000be	32 d1		 xor	 dl, cl
  000c0	80 78 0b 00	 cmp	 BYTE PTR [eax+11], 0
  000c4	88 55 f6	 mov	 BYTE PTR __k$[ebp+10], dl
  000c7	0f 84 89 00 00
	00		 je	 $LN1@LoadInt_e@2
  000cd	8a 50 0c	 mov	 dl, BYTE PTR [eax+12]
  000d0	84 d2		 test	 dl, dl
  000d2	74 3e		 je	 SHORT $LN84@LoadInt_e@2
  000d4	80 f2 ed	 xor	 dl, -19			; ffffffedH
  000d7	88 55 f8	 mov	 BYTE PTR __k$[ebp+12], dl
  000da	8a 50 0d	 mov	 dl, BYTE PTR [eax+13]
  000dd	84 d2		 test	 dl, dl
  000df	74 2b		 je	 SHORT $LN83@LoadInt_e@2
  000e1	80 f2 ec	 xor	 dl, -20			; ffffffecH
  000e4	88 55 f9	 mov	 BYTE PTR __k$[ebp+13], dl
  000e7	8a 50 0e	 mov	 dl, BYTE PTR [eax+14]
  000ea	84 d2		 test	 dl, dl
  000ec	74 19		 je	 SHORT $LN82@LoadInt_e@2
  000ee	8a 40 0f	 mov	 al, BYTE PTR [eax+15]
  000f1	32 d1		 xor	 dl, cl
  000f3	88 55 fa	 mov	 BYTE PTR __k$[ebp+14], dl
  000f6	84 c0		 test	 al, al
  000f8	74 07		 je	 SHORT $LN81@LoadInt_e@2
  000fa	34 ea		 xor	 al, -22			; ffffffeaH
  000fc	88 45 fb	 mov	 BYTE PTR __k$[ebp+15], al
  000ff	eb 55		 jmp	 SHORT $LN1@LoadInt_e@2
$LN81@LoadInt_e@2:
  00101	c6 45 fb ea	 mov	 BYTE PTR __k$[ebp+15], -22 ; ffffffeaH
  00105	eb 4f		 jmp	 SHORT $LN1@LoadInt_e@2
$LN82@LoadInt_e@2:
  00107	88 4d fa	 mov	 BYTE PTR __k$[ebp+14], cl
  0010a	eb 4a		 jmp	 SHORT $LN1@LoadInt_e@2
$LN83@LoadInt_e@2:
  0010c	c6 45 f9 ec	 mov	 BYTE PTR __k$[ebp+13], -20 ; ffffffecH
  00110	eb 44		 jmp	 SHORT $LN1@LoadInt_e@2
$LN84@LoadInt_e@2:
  00112	c6 45 f8 ed	 mov	 BYTE PTR __k$[ebp+12], -19 ; ffffffedH
  00116	eb 3e		 jmp	 SHORT $LN1@LoadInt_e@2
$LN86@LoadInt_e@2:
  00118	88 4d f6	 mov	 BYTE PTR __k$[ebp+10], cl
  0011b	eb 39		 jmp	 SHORT $LN1@LoadInt_e@2
$LN87@LoadInt_e@2:
  0011d	c6 45 f5 ec	 mov	 BYTE PTR __k$[ebp+9], -20 ; ffffffecH
  00121	eb 33		 jmp	 SHORT $LN1@LoadInt_e@2
$LN88@LoadInt_e@2:
  00123	c6 45 f4 ed	 mov	 BYTE PTR __k$[ebp+8], -19 ; ffffffedH
  00127	eb 2d		 jmp	 SHORT $LN1@LoadInt_e@2
$LN89@LoadInt_e@2:
  00129	c6 45 f3 ea	 mov	 BYTE PTR __k$[ebp+7], -22 ; ffffffeaH
  0012d	eb 27		 jmp	 SHORT $LN1@LoadInt_e@2
$LN90@LoadInt_e@2:
  0012f	88 4d f2	 mov	 BYTE PTR __k$[ebp+6], cl
  00132	eb 22		 jmp	 SHORT $LN1@LoadInt_e@2
$LN91@LoadInt_e@2:
  00134	c6 45 f1 ec	 mov	 BYTE PTR __k$[ebp+5], -20 ; ffffffecH
  00138	eb 1c		 jmp	 SHORT $LN1@LoadInt_e@2
$LN92@LoadInt_e@2:
  0013a	c6 45 f0 ed	 mov	 BYTE PTR __k$[ebp+4], -19 ; ffffffedH
  0013e	eb 16		 jmp	 SHORT $LN1@LoadInt_e@2
$LN93@LoadInt_e@2:
  00140	c6 45 ef ea	 mov	 BYTE PTR __k$[ebp+3], -22 ; ffffffeaH
  00144	eb 10		 jmp	 SHORT $LN1@LoadInt_e@2
$LN94@LoadInt_e@2:
  00146	c6 45 ee eb	 mov	 BYTE PTR __k$[ebp+2], -21 ; ffffffebH
  0014a	eb 0a		 jmp	 SHORT $LN1@LoadInt_e@2
$LN95@LoadInt_e@2:
  0014c	c6 45 ed ec	 mov	 BYTE PTR __k$[ebp+1], -20 ; ffffffecH
  00150	eb 04		 jmp	 SHORT $LN1@LoadInt_e@2
$LN96@LoadInt_e@2:
  00152	c6 45 ec ed	 mov	 BYTE PTR __k$[ebp], -19	; ffffffedH
$LN1@LoadInt_e@2:
  00156	6a 02		 push	 2
  00158	8d 45 ec	 lea	 eax, DWORD PTR __k$[ebp]
  0015b	c6 45 f7 00	 mov	 BYTE PTR __k$[ebp+11], 0
  0015f	5a		 pop	 edx
$LL104@LoadInt_e@2:
  00160	81 30 ed ec eb
	ea		 xor	 DWORD PTR [eax], -353637139 ; eaebecedH
  00166	83 c0 04	 add	 eax, 4
  00169	4a		 dec	 edx
  0016a	75 f4		 jne	 SHORT $LL104@LoadInt_e@2
  0016c	6a 08		 push	 8
  0016e	58		 pop	 eax
$LL101@LoadInt_e@2:
  0016f	8b c8		 mov	 ecx, eax
  00171	81 e1 03 00 00
	80		 and	 ecx, -2147483645	; 80000003H
  00177	79 05		 jns	 SHORT $LN111@LoadInt_e@2
  00179	49		 dec	 ecx
  0017a	83 c9 fc	 or	 ecx, -4			; fffffffcH
  0017d	41		 inc	 ecx
$LN111@LoadInt_e@2:
  0017e	b2 ed		 mov	 dl, -19			; ffffffedH
  00180	2a d1		 sub	 dl, cl
  00182	30 54 05 ec	 xor	 BYTE PTR __k$[ebp+eax], dl
  00186	40		 inc	 eax
  00187	83 f8 0b	 cmp	 eax, 11			; 0000000bH
  0018a	7c e3		 jl	 SHORT $LL101@LoadInt_e@2

; 120  : 		return LoadInt(_k, i);

  0018c	ff 75 0c	 push	 DWORD PTR _i$[ebp]
  0018f	8d 45 ec	 lea	 eax, DWORD PTR __k$[ebp]
  00192	50		 push	 eax
  00193	8b ce		 mov	 ecx, esi
  00195	ff 15 00 00 00
	00		 call	 DWORD PTR __imp_?LoadInt@ioINILoader@@QAEHPBDH@Z

; 121  : 	}

  0019b	8b 4d fc	 mov	 ecx, DWORD PTR __$ArrayPad$[ebp]
  0019e	33 cd		 xor	 ecx, ebp
  001a0	5e		 pop	 esi
  001a1	e8 00 00 00 00	 call	 @__security_check_cookie@4
  001a6	c9		 leave
  001a7	c2 08 00	 ret	 8
??$LoadInt_e@$0M@@ioINILoader@@QAEHAAY0M@$$CBDH@Z ENDP	; ioINILoader::LoadInt_e<12>
_TEXT	ENDS
PUBLIC	??$_Destroy_range@V?$allocator@PAVioBaseChar@@@std@@@std@@YAXPAPAVioBaseChar@@0AAV?$allocator@PAVioBaseChar@@@0@@Z ; std::_Destroy_range<std::allocator<ioBaseChar *> >
; Function compile flags: /Ogsp
; File c:\program files (x86)\microsoft visual studio 10.0\vc\include\xmemory
;	COMDAT ??$_Destroy_range@V?$allocator@PAVioBaseChar@@@std@@@std@@YAXPAPAVioBaseChar@@0AAV?$allocator@PAVioBaseChar@@@0@@Z
_TEXT	SEGMENT
__First$ = 8						; size = 4
__Last$ = 12						; size = 4
__Al$ = 16						; size = 4
??$_Destroy_range@V?$allocator@PAVioBaseChar@@@std@@@std@@YAXPAPAVioBaseChar@@0AAV?$allocator@PAVioBaseChar@@@0@@Z PROC ; std::_Destroy_range<std::allocator<ioBaseChar *> >, COMDAT

; 88   : 	_Destroy_range(_First, _Last, _Al, _Ptr_cat(_First, _Last));
; 89   : 	}

  00000	c3		 ret	 0
??$_Destroy_range@V?$allocator@PAVioBaseChar@@@std@@@std@@YAXPAPAVioBaseChar@@0AAV?$allocator@PAVioBaseChar@@@0@@Z ENDP ; std::_Destroy_range<std::allocator<ioBaseChar *> >
_TEXT	ENDS
PUBLIC	??G?$_Vector_const_iterator@V?$_Vector_val@UtagBaseCharDistanceSq@@V?$allocator@UtagBaseCharDistanceSq@@@std@@@std@@@std@@QBEHABV01@@Z ; std::_Vector_const_iterator<std::_Vector_val<tagBaseCharDistanceSq,std::allocator<tagBaseCharDistanceSq> > >::operator-
; Function compile flags: /Ogsp
; File c:\program files (x86)\microsoft visual studio 10.0\vc\include\vector
;	COMDAT ??G?$_Vector_const_iterator@V?$_Vector_val@UtagBaseCharDistanceSq@@V?$allocator@UtagBaseCharDistanceSq@@@std@@@std@@@std@@QBEHABV01@@Z
_TEXT	SEGMENT
__Right$ = 8						; size = 4
??G?$_Vector_const_iterator@V?$_Vector_val@UtagBaseCharDistanceSq@@V?$allocator@UtagBaseCharDistanceSq@@@std@@@std@@@std@@QBEHABV01@@Z PROC ; std::_Vector_const_iterator<std::_Vector_val<tagBaseCharDistanceSq,std::allocator<tagBaseCharDistanceSq> > >::operator-, COMDAT
; _this$ = ecx

; 190  : 		{	// return difference of iterators

  00000	55		 push	 ebp
  00001	8b ec		 mov	 ebp, esp

; 191  : 		_Compat(_Right);
; 192  : 		return (this->_Ptr - _Right._Ptr);

  00003	8b 01		 mov	 eax, DWORD PTR [ecx]
  00005	8b 4d 08	 mov	 ecx, DWORD PTR __Right$[ebp]
  00008	2b 01		 sub	 eax, DWORD PTR [ecx]
  0000a	c1 f8 05	 sar	 eax, 5

; 193  : 		}

  0000d	5d		 pop	 ebp
  0000e	c2 04 00	 ret	 4
??G?$_Vector_const_iterator@V?$_Vector_val@UtagBaseCharDistanceSq@@V?$allocator@UtagBaseCharDistanceSq@@@std@@@std@@@std@@QBEHABV01@@Z ENDP ; std::_Vector_const_iterator<std::_Vector_val<tagBaseCharDistanceSq,std::allocator<tagBaseCharDistanceSq> > >::operator-
_TEXT	ENDS
PUBLIC	??$_Unchecked@V?$_Vector_val@UtagBaseCharDistanceSq@@V?$allocator@UtagBaseCharDistanceSq@@@std@@@std@@@std@@YAPAUtagBaseCharDistanceSq@@V?$_Vector_iterator@V?$_Vector_val@UtagBaseCharDistanceSq@@V?$allocator@UtagBaseCharDistanceSq@@@std@@@std@@@0@@Z ; std::_Unchecked<std::_Vector_val<tagBaseCharDistanceSq,std::allocator<tagBaseCharDistanceSq> > >
; Function compile flags: /Ogsp
;	COMDAT ??$_Unchecked@V?$_Vector_val@UtagBaseCharDistanceSq@@V?$allocator@UtagBaseCharDistanceSq@@@std@@@std@@@std@@YAPAUtagBaseCharDistanceSq@@V?$_Vector_iterator@V?$_Vector_val@UtagBaseCharDistanceSq@@V?$allocator@UtagBaseCharDistanceSq@@@std@@@std@@@0@@Z
_TEXT	SEGMENT
__Iter$ = 8						; size = 4
??$_Unchecked@V?$_Vector_val@UtagBaseCharDistanceSq@@V?$allocator@UtagBaseCharDistanceSq@@@std@@@std@@@std@@YAPAUtagBaseCharDistanceSq@@V?$_Vector_iterator@V?$_Vector_val@UtagBaseCharDistanceSq@@V?$allocator@UtagBaseCharDistanceSq@@@std@@@std@@@0@@Z PROC ; std::_Unchecked<std::_Vector_val<tagBaseCharDistanceSq,std::allocator<tagBaseCharDistanceSq> > >, COMDAT

; 393  : 	{	// convert to unchecked

  00000	55		 push	 ebp
  00001	8b ec		 mov	 ebp, esp

; 394  : 	return (_Iter._Unchecked());

  00003	8b 45 08	 mov	 eax, DWORD PTR __Iter$[ebp]

; 395  : 	}

  00006	5d		 pop	 ebp
  00007	c3		 ret	 0
??$_Unchecked@V?$_Vector_val@UtagBaseCharDistanceSq@@V?$allocator@UtagBaseCharDistanceSq@@@std@@@std@@@std@@YAPAUtagBaseCharDistanceSq@@V?$_Vector_iterator@V?$_Vector_val@UtagBaseCharDistanceSq@@V?$allocator@UtagBaseCharDistanceSq@@@std@@@std@@@0@@Z ENDP ; std::_Unchecked<std::_Vector_val<tagBaseCharDistanceSq,std::allocator<tagBaseCharDistanceSq> > >
_TEXT	ENDS
PUBLIC	??$construct@AAUtagBaseCharDistanceSq@@@?$allocator@UtagBaseCharDistanceSq@@@std@@QAEXPAUtagBaseCharDistanceSq@@AAU2@@Z ; std::allocator<tagBaseCharDistanceSq>::construct<tagBaseCharDistanceSq &>
;	COMDAT xdata$x
; File c:\program files (x86)\microsoft visual studio 10.0\vc\include\utility
xdata$x	SEGMENT
__unwindtable$??$construct@AAUtagBaseCharDistanceSq@@@?$allocator@UtagBaseCharDistanceSq@@@std@@QAEXPAUtagBaseCharDistanceSq@@AAU2@@Z DD 0ffffffffH
	DD	FLAT:__unwindfunclet$??$construct@AAUtagBaseCharDistanceSq@@@?$allocator@UtagBaseCharDistanceSq@@@std@@QAEXPAUtagBaseCharDistanceSq@@AAU2@@Z$0
__ehfuncinfo$??$construct@AAUtagBaseCharDistanceSq@@@?$allocator@UtagBaseCharDistanceSq@@@std@@QAEXPAUtagBaseCharDistanceSq@@AAU2@@Z DD 019930522H
	DD	01H
	DD	FLAT:__unwindtable$??$construct@AAUtagBaseCharDistanceSq@@@?$allocator@UtagBaseCharDistanceSq@@@std@@QAEXPAUtagBaseCharDistanceSq@@AAU2@@Z
	DD	2 DUP(00H)
	DD	2 DUP(00H)
	DD	00H
	DD	01H
; Function compile flags: /Ogsp
; File c:\program files (x86)\microsoft visual studio 10.0\vc\include\xmemory
xdata$x	ENDS
;	COMDAT ??$construct@AAUtagBaseCharDistanceSq@@@?$allocator@UtagBaseCharDistanceSq@@@std@@QAEXPAUtagBaseCharDistanceSq@@AAU2@@Z
_TEXT	SEGMENT
$T554520 = -16						; size = 4
__$EHRec$ = -12						; size = 12
__Ptr$ = 8						; size = 4
__Val$ = 12						; size = 4
??$construct@AAUtagBaseCharDistanceSq@@@?$allocator@UtagBaseCharDistanceSq@@@std@@QAEXPAUtagBaseCharDistanceSq@@AAU2@@Z PROC ; std::allocator<tagBaseCharDistanceSq>::construct<tagBaseCharDistanceSq &>, COMDAT
; _this$ = ecx

; 206  : 		void construct(pointer _Ptr, _Other&& _Val)

  00000	6a 04		 push	 4
  00002	b8 00 00 00 00	 mov	 eax, __ehhandler$??$construct@AAUtagBaseCharDistanceSq@@@?$allocator@UtagBaseCharDistanceSq@@@std@@QAEXPAUtagBaseCharDistanceSq@@AAU2@@Z
  00007	e8 00 00 00 00	 call	 __EH_prolog3

; 207  : 		{	// construct object at _Ptr with value _Val
; 208  : 		::new ((void _FARQ *)_Ptr) _Ty(_STD forward<_Other>(_Val));

  0000c	8b 4d 08	 mov	 ecx, DWORD PTR __Ptr$[ebp]
  0000f	89 4d f0	 mov	 DWORD PTR $T554520[ebp], ecx
  00012	83 65 fc 00	 and	 DWORD PTR __$EHRec$[ebp+8], 0
  00016	85 c9		 test	 ecx, ecx
  00018	74 08		 je	 SHORT $LN3@construct
  0001a	ff 75 0c	 push	 DWORD PTR __Val$[ebp]
  0001d	e8 00 00 00 00	 call	 ??0tagBaseCharDistanceSq@@QAE@ABU0@@Z
$LN3@construct:

; 209  : 		}

  00022	e8 00 00 00 00	 call	 __EH_epilog3
  00027	c2 08 00	 ret	 8
_TEXT	ENDS
;	COMDAT text$x
text$x	SEGMENT
__unwindfunclet$??$construct@AAUtagBaseCharDistanceSq@@@?$allocator@UtagBaseCharDistanceSq@@@std@@QAEXPAUtagBaseCharDistanceSq@@AAU2@@Z$0:
  00000	ff 75 08	 push	 DWORD PTR __Ptr$[ebp]
  00003	ff 75 f0	 push	 DWORD PTR $T554520[ebp]
  00006	e8 00 00 00 00	 call	 ??3@YAXPAX0@Z		; operator delete
  0000b	59		 pop	 ecx
  0000c	59		 pop	 ecx
  0000d	c3		 ret	 0
__ehhandler$??$construct@AAUtagBaseCharDistanceSq@@@?$allocator@UtagBaseCharDistanceSq@@@std@@QAEXPAUtagBaseCharDistanceSq@@AAU2@@Z:
  0000e	8b 54 24 08	 mov	 edx, DWORD PTR [esp+8]
  00012	8d 42 0c	 lea	 eax, DWORD PTR [edx+12]
  00015	8b 4a ec	 mov	 ecx, DWORD PTR [edx-20]
  00018	33 c8		 xor	 ecx, eax
  0001a	e8 00 00 00 00	 call	 @__security_check_cookie@4
  0001f	b8 00 00 00 00	 mov	 eax, OFFSET __ehfuncinfo$??$construct@AAUtagBaseCharDistanceSq@@@?$allocator@UtagBaseCharDistanceSq@@@std@@QAEXPAUtagBaseCharDistanceSq@@AAU2@@Z
  00024	e9 00 00 00 00	 jmp	 ___CxxFrameHandler3
text$x	ENDS
??$construct@AAUtagBaseCharDistanceSq@@@?$allocator@UtagBaseCharDistanceSq@@@std@@QAEXPAUtagBaseCharDistanceSq@@AAU2@@Z ENDP ; std::allocator<tagBaseCharDistanceSq>::construct<tagBaseCharDistanceSq &>
PUBLIC	??$_Construct@UtagBaseCharDistanceSq@@ABU1@@std@@YAXPAUtagBaseCharDistanceSq@@ABU1@@Z ; std::_Construct<tagBaseCharDistanceSq,tagBaseCharDistanceSq const &>
;	COMDAT xdata$x
; File c:\program files (x86)\microsoft visual studio 10.0\vc\include\utility
xdata$x	SEGMENT
__unwindtable$??$_Construct@UtagBaseCharDistanceSq@@ABU1@@std@@YAXPAUtagBaseCharDistanceSq@@ABU1@@Z DD 0ffffffffH
	DD	FLAT:__unwindfunclet$??$_Construct@UtagBaseCharDistanceSq@@ABU1@@std@@YAXPAUtagBaseCharDistanceSq@@ABU1@@Z$0
__ehfuncinfo$??$_Construct@UtagBaseCharDistanceSq@@ABU1@@std@@YAXPAUtagBaseCharDistanceSq@@ABU1@@Z DD 019930522H
	DD	01H
	DD	FLAT:__unwindtable$??$_Construct@UtagBaseCharDistanceSq@@ABU1@@std@@YAXPAUtagBaseCharDistanceSq@@ABU1@@Z
	DD	2 DUP(00H)
	DD	2 DUP(00H)
	DD	00H
	DD	01H
; Function compile flags: /Ogsp
; File c:\program files (x86)\microsoft visual studio 10.0\vc\include\xmemory
xdata$x	ENDS
;	COMDAT ??$_Construct@UtagBaseCharDistanceSq@@ABU1@@std@@YAXPAUtagBaseCharDistanceSq@@ABU1@@Z
_TEXT	SEGMENT
$T554539 = -16						; size = 4
__$EHRec$ = -12						; size = 12
__Vptr$ = 8						; size = 4
__Ptr$ = 8						; size = 4
__Val$ = 12						; size = 4
??$_Construct@UtagBaseCharDistanceSq@@ABU1@@std@@YAXPAUtagBaseCharDistanceSq@@ABU1@@Z PROC ; std::_Construct<tagBaseCharDistanceSq,tagBaseCharDistanceSq const &>, COMDAT

; 46   : 	{	// construct object at _Ptr with value _Val

  00000	6a 04		 push	 4
  00002	b8 00 00 00 00	 mov	 eax, __ehhandler$??$_Construct@UtagBaseCharDistanceSq@@ABU1@@std@@YAXPAUtagBaseCharDistanceSq@@ABU1@@Z
  00007	e8 00 00 00 00	 call	 __EH_prolog3

; 47   : 	void _FARQ *_Vptr = _Ptr;

  0000c	8b 4d 08	 mov	 ecx, DWORD PTR __Ptr$[ebp]
  0000f	89 4d 08	 mov	 DWORD PTR __Vptr$[ebp], ecx

; 48   : 	::new (_Vptr) _Ty1(_STD forward<_Ty2>(_Val));

  00012	89 4d f0	 mov	 DWORD PTR $T554539[ebp], ecx
  00015	83 65 fc 00	 and	 DWORD PTR __$EHRec$[ebp+8], 0
  00019	85 c9		 test	 ecx, ecx
  0001b	74 08		 je	 SHORT $LN3@Construct
  0001d	ff 75 0c	 push	 DWORD PTR __Val$[ebp]
  00020	e8 00 00 00 00	 call	 ??0tagBaseCharDistanceSq@@QAE@ABU0@@Z
$LN3@Construct:

; 49   : 	}

  00025	e8 00 00 00 00	 call	 __EH_epilog3
  0002a	c3		 ret	 0
_TEXT	ENDS
;	COMDAT text$x
text$x	SEGMENT
__unwindfunclet$??$_Construct@UtagBaseCharDistanceSq@@ABU1@@std@@YAXPAUtagBaseCharDistanceSq@@ABU1@@Z$0:
  00000	ff 75 08	 push	 DWORD PTR __Vptr$[ebp]
  00003	ff 75 f0	 push	 DWORD PTR $T554539[ebp]
  00006	e8 00 00 00 00	 call	 ??3@YAXPAX0@Z		; operator delete
  0000b	59		 pop	 ecx
  0000c	59		 pop	 ecx
  0000d	c3		 ret	 0
__ehhandler$??$_Construct@UtagBaseCharDistanceSq@@ABU1@@std@@YAXPAUtagBaseCharDistanceSq@@ABU1@@Z:
  0000e	8b 54 24 08	 mov	 edx, DWORD PTR [esp+8]
  00012	8d 42 0c	 lea	 eax, DWORD PTR [edx+12]
  00015	8b 4a ec	 mov	 ecx, DWORD PTR [edx-20]
  00018	33 c8		 xor	 ecx, eax
  0001a	e8 00 00 00 00	 call	 @__security_check_cookie@4
  0001f	b8 00 00 00 00	 mov	 eax, OFFSET __ehfuncinfo$??$_Construct@UtagBaseCharDistanceSq@@ABU1@@std@@YAXPAUtagBaseCharDistanceSq@@ABU1@@Z
  00024	e9 00 00 00 00	 jmp	 ___CxxFrameHandler3
text$x	ENDS
??$_Construct@UtagBaseCharDistanceSq@@ABU1@@std@@YAXPAUtagBaseCharDistanceSq@@ABU1@@Z ENDP ; std::_Construct<tagBaseCharDistanceSq,tagBaseCharDistanceSq const &>
PUBLIC	??$?0AAPAUtagBaseCharDistanceSq@@AAPAU0@@?$pair@PAUtagBaseCharDistanceSq@@PAU1@@std@@QAE@AAPAUtagBaseCharDistanceSq@@0@Z ; std::pair<tagBaseCharDistanceSq *,tagBaseCharDistanceSq *>::pair<tagBaseCharDistanceSq *,tagBaseCharDistanceSq *><tagBaseCharDistanceSq * &,tagBaseCharDistanceSq * &>
; Function compile flags: /Ogsp
; File c:\program files (x86)\microsoft visual studio 10.0\vc\include\utility
;	COMDAT ??$?0AAPAUtagBaseCharDistanceSq@@AAPAU0@@?$pair@PAUtagBaseCharDistanceSq@@PAU1@@std@@QAE@AAPAUtagBaseCharDistanceSq@@0@Z
_TEXT	SEGMENT
__Val1$ = 8						; size = 4
__Val2$ = 12						; size = 4
??$?0AAPAUtagBaseCharDistanceSq@@AAPAU0@@?$pair@PAUtagBaseCharDistanceSq@@PAU1@@std@@QAE@AAPAUtagBaseCharDistanceSq@@0@Z PROC ; std::pair<tagBaseCharDistanceSq *,tagBaseCharDistanceSq *>::pair<tagBaseCharDistanceSq *,tagBaseCharDistanceSq *><tagBaseCharDistanceSq * &,tagBaseCharDistanceSq * &>, COMDAT
; _this$ = ecx

; 247  : 		{	// construct from moved values

  00000	55		 push	 ebp
  00001	8b ec		 mov	 ebp, esp
  00003	8b c1		 mov	 eax, ecx
  00005	8b 4d 08	 mov	 ecx, DWORD PTR __Val1$[ebp]
  00008	8b 09		 mov	 ecx, DWORD PTR [ecx]
  0000a	89 08		 mov	 DWORD PTR [eax], ecx
  0000c	8b 4d 0c	 mov	 ecx, DWORD PTR __Val2$[ebp]
  0000f	8b 09		 mov	 ecx, DWORD PTR [ecx]
  00011	89 48 04	 mov	 DWORD PTR [eax+4], ecx

; 248  : 		}

  00014	5d		 pop	 ebp
  00015	c2 08 00	 ret	 8
??$?0AAPAUtagBaseCharDistanceSq@@AAPAU0@@?$pair@PAUtagBaseCharDistanceSq@@PAU1@@std@@QAE@AAPAUtagBaseCharDistanceSq@@0@Z ENDP ; std::pair<tagBaseCharDistanceSq *,tagBaseCharDistanceSq *>::pair<tagBaseCharDistanceSq *,tagBaseCharDistanceSq *><tagBaseCharDistanceSq * &,tagBaseCharDistanceSq * &>
_TEXT	ENDS
PUBLIC	??$_Destroy@UtagBaseCharDistanceSq@@@std@@YAXPAUtagBaseCharDistanceSq@@@Z ; std::_Destroy<tagBaseCharDistanceSq>
; Function compile flags: /Ogsp
; File c:\program files (x86)\microsoft visual studio 10.0\vc\include\xmemory
;	COMDAT ??$_Destroy@UtagBaseCharDistanceSq@@@std@@YAXPAUtagBaseCharDistanceSq@@@Z
_TEXT	SEGMENT
__Ptr$ = 8						; size = 4
??$_Destroy@UtagBaseCharDistanceSq@@@std@@YAXPAUtagBaseCharDistanceSq@@@Z PROC ; std::_Destroy<tagBaseCharDistanceSq>, COMDAT

; 62   : 	{	// destroy object at _Ptr

  00000	55		 push	 ebp
  00001	8b ec		 mov	 ebp, esp

; 63   : 	_Ptr->~_Ty();

  00003	8b 4d 08	 mov	 ecx, DWORD PTR __Ptr$[ebp]

; 64   : 	}

  00006	5d		 pop	 ebp

; 63   : 	_Ptr->~_Ty();

  00007	ff 25 00 00 00
	00		 jmp	 DWORD PTR __imp_??1ioHashString@@QAE@XZ
??$_Destroy@UtagBaseCharDistanceSq@@@std@@YAXPAUtagBaseCharDistanceSq@@@Z ENDP ; std::_Destroy<tagBaseCharDistanceSq>
_TEXT	ENDS
PUBLIC	?construct@?$allocator@UtagBaseCharDistanceSq@@@std@@QAEXPAUtagBaseCharDistanceSq@@$$QAU3@@Z ; std::allocator<tagBaseCharDistanceSq>::construct
;	COMDAT xdata$x
; File c:\program files (x86)\microsoft visual studio 10.0\vc\include\utility
xdata$x	SEGMENT
__unwindtable$?construct@?$allocator@UtagBaseCharDistanceSq@@@std@@QAEXPAUtagBaseCharDistanceSq@@$$QAU3@@Z DD 0ffffffffH
	DD	FLAT:__unwindfunclet$?construct@?$allocator@UtagBaseCharDistanceSq@@@std@@QAEXPAUtagBaseCharDistanceSq@@$$QAU3@@Z$0
__ehfuncinfo$?construct@?$allocator@UtagBaseCharDistanceSq@@@std@@QAEXPAUtagBaseCharDistanceSq@@$$QAU3@@Z DD 019930522H
	DD	01H
	DD	FLAT:__unwindtable$?construct@?$allocator@UtagBaseCharDistanceSq@@@std@@QAEXPAUtagBaseCharDistanceSq@@$$QAU3@@Z
	DD	2 DUP(00H)
	DD	2 DUP(00H)
	DD	00H
	DD	01H
; Function compile flags: /Ogsp
; File c:\program files (x86)\microsoft visual studio 10.0\vc\include\xmemory
xdata$x	ENDS
;	COMDAT ?construct@?$allocator@UtagBaseCharDistanceSq@@@std@@QAEXPAUtagBaseCharDistanceSq@@$$QAU3@@Z
_TEXT	SEGMENT
$T554592 = -16						; size = 4
__$EHRec$ = -12						; size = 12
__Ptr$ = 8						; size = 4
__Val$ = 12						; size = 4
?construct@?$allocator@UtagBaseCharDistanceSq@@@std@@QAEXPAUtagBaseCharDistanceSq@@$$QAU3@@Z PROC ; std::allocator<tagBaseCharDistanceSq>::construct, COMDAT
; _this$ = ecx

; 201  : 		{	// construct object at _Ptr with value _Val

  00000	6a 04		 push	 4
  00002	b8 00 00 00 00	 mov	 eax, __ehhandler$?construct@?$allocator@UtagBaseCharDistanceSq@@@std@@QAEXPAUtagBaseCharDistanceSq@@$$QAU3@@Z
  00007	e8 00 00 00 00	 call	 __EH_prolog3

; 202  : 		::new ((void _FARQ *)_Ptr) _Ty(_STD forward<_Ty>(_Val));

  0000c	8b 4d 08	 mov	 ecx, DWORD PTR __Ptr$[ebp]
  0000f	89 4d f0	 mov	 DWORD PTR $T554592[ebp], ecx
  00012	83 65 fc 00	 and	 DWORD PTR __$EHRec$[ebp+8], 0
  00016	85 c9		 test	 ecx, ecx
  00018	74 08		 je	 SHORT $LN3@construct@2
  0001a	ff 75 0c	 push	 DWORD PTR __Val$[ebp]
  0001d	e8 00 00 00 00	 call	 ??0tagBaseCharDistanceSq@@QAE@ABU0@@Z
$LN3@construct@2:

; 203  : 		}

  00022	e8 00 00 00 00	 call	 __EH_epilog3
  00027	c2 08 00	 ret	 8
_TEXT	ENDS
;	COMDAT text$x
text$x	SEGMENT
__unwindfunclet$?construct@?$allocator@UtagBaseCharDistanceSq@@@std@@QAEXPAUtagBaseCharDistanceSq@@$$QAU3@@Z$0:
  00000	ff 75 08	 push	 DWORD PTR __Ptr$[ebp]
  00003	ff 75 f0	 push	 DWORD PTR $T554592[ebp]
  00006	e8 00 00 00 00	 call	 ??3@YAXPAX0@Z		; operator delete
  0000b	59		 pop	 ecx
  0000c	59		 pop	 ecx
  0000d	c3		 ret	 0
__ehhandler$?construct@?$allocator@UtagBaseCharDistanceSq@@@std@@QAEXPAUtagBaseCharDistanceSq@@$$QAU3@@Z:
  0000e	8b 54 24 08	 mov	 edx, DWORD PTR [esp+8]
  00012	8d 42 0c	 lea	 eax, DWORD PTR [edx+12]
  00015	8b 4a ec	 mov	 ecx, DWORD PTR [edx-20]
  00018	33 c8		 xor	 ecx, eax
  0001a	e8 00 00 00 00	 call	 @__security_check_cookie@4
  0001f	b8 00 00 00 00	 mov	 eax, OFFSET __ehfuncinfo$?construct@?$allocator@UtagBaseCharDistanceSq@@@std@@QAEXPAUtagBaseCharDistanceSq@@$$QAU3@@Z
  00024	e9 00 00 00 00	 jmp	 ___CxxFrameHandler3
text$x	ENDS
?construct@?$allocator@UtagBaseCharDistanceSq@@@std@@QAEXPAUtagBaseCharDistanceSq@@$$QAU3@@Z ENDP ; std::allocator<tagBaseCharDistanceSq>::construct
PUBLIC	??$swap@UtagBaseCharDistanceSq@@@std@@YAXAAUtagBaseCharDistanceSq@@0@Z ; std::swap<tagBaseCharDistanceSq>
;	COMDAT xdata$x
; File d:\lost saga for developer\youtube\tutorial\source\src\lsclient\iotargettrace10dummy.cpp
xdata$x	SEGMENT
__unwindtable$??$swap@UtagBaseCharDistanceSq@@@std@@YAXAAUtagBaseCharDistanceSq@@0@Z DD 0ffffffffH
	DD	FLAT:__unwindfunclet$??$swap@UtagBaseCharDistanceSq@@@std@@YAXAAUtagBaseCharDistanceSq@@0@Z$0
__ehfuncinfo$??$swap@UtagBaseCharDistanceSq@@@std@@YAXAAUtagBaseCharDistanceSq@@0@Z DD 019930522H
	DD	01H
	DD	FLAT:__unwindtable$??$swap@UtagBaseCharDistanceSq@@@std@@YAXAAUtagBaseCharDistanceSq@@0@Z
	DD	2 DUP(00H)
	DD	2 DUP(00H)
	DD	00H
	DD	01H
; Function compile flags: /Ogsp
; File c:\program files (x86)\microsoft visual studio 10.0\vc\include\utility
xdata$x	ENDS
;	COMDAT ??$swap@UtagBaseCharDistanceSq@@@std@@YAXAAUtagBaseCharDistanceSq@@0@Z
_TEXT	SEGMENT
__Tmp$ = -48						; size = 32
__$EHRec$ = -12						; size = 12
__Left$ = 8						; size = 4
__Right$ = 12						; size = 4
??$swap@UtagBaseCharDistanceSq@@@std@@YAXAAUtagBaseCharDistanceSq@@0@Z PROC ; std::swap<tagBaseCharDistanceSq>, COMDAT

; 101  : 	{	// exchange values stored at _Left and _Right

  00000	6a 24		 push	 36			; 00000024H
  00002	b8 00 00 00 00	 mov	 eax, __ehhandler$??$swap@UtagBaseCharDistanceSq@@@std@@YAXAAUtagBaseCharDistanceSq@@0@Z
  00007	e8 00 00 00 00	 call	 __EH_prolog3_GS
  0000c	8b 75 08	 mov	 esi, DWORD PTR __Left$[ebp]
  0000f	8b 7d 0c	 mov	 edi, DWORD PTR __Right$[ebp]

; 102  : 	_Ty _Tmp = _Move(_Left);

  00012	56		 push	 esi
  00013	8d 4d d0	 lea	 ecx, DWORD PTR __Tmp$[ebp]
  00016	e8 00 00 00 00	 call	 ??0tagBaseCharDistanceSq@@QAE@ABU0@@Z
  0001b	83 65 fc 00	 and	 DWORD PTR __$EHRec$[ebp+8], 0

; 103  : 	_Left = _Move(_Right);

  0001f	57		 push	 edi
  00020	8b ce		 mov	 ecx, esi
  00022	e8 00 00 00 00	 call	 ??4tagBaseCharDistanceSq@@QAEAAU0@ABU0@@Z

; 104  : 	_Right = _Move(_Tmp);

  00027	8d 45 d0	 lea	 eax, DWORD PTR __Tmp$[ebp]
  0002a	50		 push	 eax
  0002b	8b cf		 mov	 ecx, edi
  0002d	e8 00 00 00 00	 call	 ??4tagBaseCharDistanceSq@@QAEAAU0@ABU0@@Z

; 105  : 	}

  00032	83 4d fc ff	 or	 DWORD PTR __$EHRec$[ebp+8], -1
  00036	8d 4d d0	 lea	 ecx, DWORD PTR __Tmp$[ebp]
  00039	ff 15 00 00 00
	00		 call	 DWORD PTR __imp_??1ioHashString@@QAE@XZ
  0003f	e8 00 00 00 00	 call	 __EH_epilog3_GS
  00044	c3		 ret	 0
_TEXT	ENDS
;	COMDAT text$x
text$x	SEGMENT
__unwindfunclet$??$swap@UtagBaseCharDistanceSq@@@std@@YAXAAUtagBaseCharDistanceSq@@0@Z$0:
  00000	8d 4d d0	 lea	 ecx, DWORD PTR __Tmp$[ebp]
  00003	e9 00 00 00 00	 jmp	 ??1tagBaseCharDistanceSq@@QAE@XZ
__ehhandler$??$swap@UtagBaseCharDistanceSq@@@std@@YAXAAUtagBaseCharDistanceSq@@0@Z:
  00008	8b 54 24 08	 mov	 edx, DWORD PTR [esp+8]
  0000c	8d 42 0c	 lea	 eax, DWORD PTR [edx+12]
  0000f	8b 4a cc	 mov	 ecx, DWORD PTR [edx-52]
  00012	33 c8		 xor	 ecx, eax
  00014	e8 00 00 00 00	 call	 @__security_check_cookie@4
  00019	8b 4a fc	 mov	 ecx, DWORD PTR [edx-4]
  0001c	33 c8		 xor	 ecx, eax
  0001e	e8 00 00 00 00	 call	 @__security_check_cookie@4
  00023	b8 00 00 00 00	 mov	 eax, OFFSET __ehfuncinfo$??$swap@UtagBaseCharDistanceSq@@@std@@YAXAAUtagBaseCharDistanceSq@@0@Z
  00028	e9 00 00 00 00	 jmp	 ___CxxFrameHandler3
text$x	ENDS
??$swap@UtagBaseCharDistanceSq@@@std@@YAXAAUtagBaseCharDistanceSq@@0@Z ENDP ; std::swap<tagBaseCharDistanceSq>
PUBLIC	??$_Push_heap@PAUtagBaseCharDistanceSq@@HU1@VBaseCharDistanceSqSort2@@@std@@YAXPAUtagBaseCharDistanceSq@@HH$$QAU1@VBaseCharDistanceSqSort2@@@Z ; std::_Push_heap<tagBaseCharDistanceSq *,int,tagBaseCharDistanceSq,BaseCharDistanceSqSort2>
; Function compile flags: /Ogsp
; File c:\program files (x86)\microsoft visual studio 10.0\vc\include\algorithm
;	COMDAT ??$_Push_heap@PAUtagBaseCharDistanceSq@@HU1@VBaseCharDistanceSqSort2@@@std@@YAXPAUtagBaseCharDistanceSq@@HH$$QAU1@VBaseCharDistanceSqSort2@@@Z
_TEXT	SEGMENT
__First$ = 8						; size = 4
__Hole$ = 12						; size = 4
__Top$ = 16						; size = 4
__Val$ = 20						; size = 4
__Pred$ = 24						; size = 1
??$_Push_heap@PAUtagBaseCharDistanceSq@@HU1@VBaseCharDistanceSqSort2@@@std@@YAXPAUtagBaseCharDistanceSq@@HH$$QAU1@VBaseCharDistanceSqSort2@@@Z PROC ; std::_Push_heap<tagBaseCharDistanceSq *,int,tagBaseCharDistanceSq,BaseCharDistanceSqSort2>, COMDAT

; 2455 : 	{	// percolate _Hole to _Top or where _Val belongs, using operator<

  00000	55		 push	 ebp
  00001	8b ec		 mov	 ebp, esp

; 2456 : 	for (_Diff _Idx = (_Hole - 1) / 2;

  00003	8b 4d 0c	 mov	 ecx, DWORD PTR __Hole$[ebp]
  00006	8d 41 ff	 lea	 eax, DWORD PTR [ecx-1]
  00009	53		 push	 ebx

; 2457 : 		_Top < _Hole && _DEBUG_LT_PRED(_Pred, *(_First + _Idx), _Val);
; 2458 : 		_Idx = (_Hole - 1) / 2)

  0000a	8b 5d 14	 mov	 ebx, DWORD PTR __Val$[ebp]
  0000d	99		 cdq
  0000e	56		 push	 esi
  0000f	2b c2		 sub	 eax, edx
  00011	8b f0		 mov	 esi, eax
  00013	57		 push	 edi
  00014	8b 7d 08	 mov	 edi, DWORD PTR __First$[ebp]
  00017	d1 fe		 sar	 esi, 1
  00019	eb 34		 jmp	 SHORT $LN16@Push_heap
$LL3@Push_heap:
  0001b	f3 0f 10 4b 10	 movss	 xmm1, DWORD PTR [ebx+16]
  00020	8b c6		 mov	 eax, esi
  00022	c1 e0 05	 shl	 eax, 5
  00025	03 c7		 add	 eax, edi
  00027	f3 0f 10 40 10	 movss	 xmm0, DWORD PTR [eax+16]
  0002c	0f 5a c0	 cvtps2pd xmm0, xmm0
  0002f	0f 5a c9	 cvtps2pd xmm1, xmm1
  00032	66 0f 2f c8	 comisd	 xmm1, xmm0
  00036	76 1c		 jbe	 SHORT $LN6@Push_heap

; 2459 : 		{	// move _Hole up to parent
; 2460 : 		*(_First + _Hole) = _Move(*(_First + _Idx));

  00038	c1 e1 05	 shl	 ecx, 5
  0003b	50		 push	 eax
  0003c	03 cf		 add	 ecx, edi
  0003e	e8 00 00 00 00	 call	 ??4tagBaseCharDistanceSq@@QAEAAU0@ABU0@@Z
  00043	8d 46 ff	 lea	 eax, DWORD PTR [esi-1]
  00046	99		 cdq
  00047	2b c2		 sub	 eax, edx
  00049	d1 f8		 sar	 eax, 1

; 2461 : 		_Hole = _Idx;

  0004b	8b ce		 mov	 ecx, esi
  0004d	8b f0		 mov	 esi, eax
$LN16@Push_heap:

; 2457 : 		_Top < _Hole && _DEBUG_LT_PRED(_Pred, *(_First + _Idx), _Val);
; 2458 : 		_Idx = (_Hole - 1) / 2)

  0004f	39 4d 10	 cmp	 DWORD PTR __Top$[ebp], ecx
  00052	7c c7		 jl	 SHORT $LL3@Push_heap
$LN6@Push_heap:

; 2462 : 		}
; 2463 : 
; 2464 : 	*(_First + _Hole) = _Move(_Val);	// drop _Val into final hole

  00054	c1 e1 05	 shl	 ecx, 5
  00057	53		 push	 ebx
  00058	03 cf		 add	 ecx, edi
  0005a	e8 00 00 00 00	 call	 ??4tagBaseCharDistanceSq@@QAEAAU0@ABU0@@Z
  0005f	5f		 pop	 edi
  00060	5e		 pop	 esi
  00061	5b		 pop	 ebx

; 2465 : 	}

  00062	5d		 pop	 ebp
  00063	c3		 ret	 0
??$_Push_heap@PAUtagBaseCharDistanceSq@@HU1@VBaseCharDistanceSqSort2@@@std@@YAXPAUtagBaseCharDistanceSq@@HH$$QAU1@VBaseCharDistanceSqSort2@@@Z ENDP ; std::_Push_heap<tagBaseCharDistanceSq *,int,tagBaseCharDistanceSq,BaseCharDistanceSqSort2>
_TEXT	ENDS
PUBLIC	??$_Move_backward@PAUtagBaseCharDistanceSq@@PAU1@@std@@YAPAUtagBaseCharDistanceSq@@PAU1@00U_Nonscalar_ptr_iterator_tag@0@@Z ; std::_Move_backward<tagBaseCharDistanceSq *,tagBaseCharDistanceSq *>
; Function compile flags: /Ogsp
; File c:\program files (x86)\microsoft visual studio 10.0\vc\include\xutility
;	COMDAT ??$_Move_backward@PAUtagBaseCharDistanceSq@@PAU1@@std@@YAPAUtagBaseCharDistanceSq@@PAU1@00U_Nonscalar_ptr_iterator_tag@0@@Z
_TEXT	SEGMENT
__First$ = 8						; size = 4
__Last$ = 12						; size = 4
__Dest$ = 16						; size = 4
___formal$ = 20						; size = 1
??$_Move_backward@PAUtagBaseCharDistanceSq@@PAU1@@std@@YAPAUtagBaseCharDistanceSq@@PAU1@00U_Nonscalar_ptr_iterator_tag@0@@Z PROC ; std::_Move_backward<tagBaseCharDistanceSq *,tagBaseCharDistanceSq *>, COMDAT

; 2617 : 	{	// move [_First, _Last) backwards to [..., _Dest), arbitrary iterators

  00000	55		 push	 ebp
  00001	8b ec		 mov	 ebp, esp
  00003	56		 push	 esi

; 2618 : 	while (_First != _Last)

  00004	8b 75 0c	 mov	 esi, DWORD PTR __Last$[ebp]
  00007	39 75 08	 cmp	 DWORD PTR __First$[ebp], esi
  0000a	74 15		 je	 SHORT $LN9@Move_backw
$LL2@Move_backw:

; 2619 : 		*--_Dest = _STD move(*--_Last);

  0000c	83 6d 10 20	 sub	 DWORD PTR __Dest$[ebp], 32 ; 00000020H
  00010	8b 4d 10	 mov	 ecx, DWORD PTR __Dest$[ebp]
  00013	83 ee 20	 sub	 esi, 32			; 00000020H
  00016	56		 push	 esi
  00017	e8 00 00 00 00	 call	 ??4tagBaseCharDistanceSq@@QAEAAU0@ABU0@@Z
  0001c	3b 75 08	 cmp	 esi, DWORD PTR __First$[ebp]
  0001f	75 eb		 jne	 SHORT $LL2@Move_backw
$LN9@Move_backw:

; 2620 : 	return (_Dest);

  00021	8b 45 10	 mov	 eax, DWORD PTR __Dest$[ebp]
  00024	5e		 pop	 esi

; 2621 : 	}

  00025	5d		 pop	 ebp
  00026	c3		 ret	 0
??$_Move_backward@PAUtagBaseCharDistanceSq@@PAU1@@std@@YAPAUtagBaseCharDistanceSq@@PAU1@00U_Nonscalar_ptr_iterator_tag@0@@Z ENDP ; std::_Move_backward<tagBaseCharDistanceSq *,tagBaseCharDistanceSq *>
_TEXT	ENDS
PUBLIC	??B?$CEncrypt@M@@QAEMXZ				; CEncrypt<float>::operator float
; Function compile flags: /Ogsp
; File d:\lost saga for developer\youtube\tutorial\source\src\lsclient\encryptvalue.h
;	COMDAT ??B?$CEncrypt@M@@QAEMXZ
_TEXT	SEGMENT
_value$ = -4						; size = 4
??B?$CEncrypt@M@@QAEMXZ PROC				; CEncrypt<float>::operator float, COMDAT
; _this$ = ecx

; 134  : 	{

  00000	55		 push	 ebp
  00001	8b ec		 mov	 ebp, esp
  00003	51		 push	 ecx

; 135  : 		type value;
; 136  : 		DecryptValueToPool(&value);

  00004	8d 45 fc	 lea	 eax, DWORD PTR _value$[ebp]
  00007	50		 push	 eax
  00008	e8 00 00 00 00	 call	 ?DecryptValueToPool@?$CEncrypt@M@@QAEXPAM@Z ; CEncrypt<float>::DecryptValueToPool

; 137  : 
; 138  : #ifdef _NOTUSE
; 139  : 		Debug();
; 140  : #endif
; 141  : 		return value;

  0000d	d9 45 fc	 fld	 DWORD PTR _value$[ebp]

; 142  : 	}

  00010	c9		 leave
  00011	c3		 ret	 0
??B?$CEncrypt@M@@QAEMXZ ENDP				; CEncrypt<float>::operator float
_TEXT	ENDS
PUBLIC	??4?$CEncrypt@M@@QAEMM@Z			; CEncrypt<float>::operator=
; Function compile flags: /Ogsp
;	COMDAT ??4?$CEncrypt@M@@QAEMM@Z
_TEXT	SEGMENT
_value$ = 8						; size = 4
_inValue$ = 8						; size = 4
??4?$CEncrypt@M@@QAEMM@Z PROC				; CEncrypt<float>::operator=, COMDAT
; _this$ = ecx

; 1654 : 	{	

  00000	55		 push	 ebp
  00001	8b ec		 mov	 ebp, esp

; 1655 : 		type value = inValue;

  00003	d9 45 08	 fld	 DWORD PTR _inValue$[ebp]

; 1656 : 		EncryptValueToPool((char*)&value);

  00006	8d 45 08	 lea	 eax, DWORD PTR _value$[ebp]
  00009	50		 push	 eax
  0000a	d9 5d 08	 fstp	 DWORD PTR _value$[ebp]
  0000d	e8 00 00 00 00	 call	 ?EncryptValueToPool@?$CEncrypt@M@@AAEXPBD@Z ; CEncrypt<float>::EncryptValueToPool

; 1657 : #ifdef _NOTUSE
; 1658 : 		m_value = inValue;
; 1659 : 		Debug();
; 1660 : #endif
; 1661 : 		return value;

  00012	d9 45 08	 fld	 DWORD PTR _value$[ebp]

; 1662 : 	}

  00015	5d		 pop	 ebp
  00016	c2 04 00	 ret	 4
??4?$CEncrypt@M@@QAEMM@Z ENDP				; CEncrypt<float>::operator=
_TEXT	ENDS
PUBLIC	??Z?$CEncrypt@M@@QAEAAMABM@Z			; CEncrypt<float>::operator-=
; Function compile flags: /Ogsp
;	COMDAT ??Z?$CEncrypt@M@@QAEAAMABM@Z
_TEXT	SEGMENT
_value$ = -4						; size = 4
_inValue$ = 8						; size = 4
??Z?$CEncrypt@M@@QAEAAMABM@Z PROC			; CEncrypt<float>::operator-=, COMDAT
; _this$ = ecx

; 1728 : 	{

  00000	55		 push	 ebp
  00001	8b ec		 mov	 ebp, esp
  00003	51		 push	 ecx
  00004	56		 push	 esi

; 1729 : 		type value;
; 1730 : 		DecryptValueToPool(&value);

  00005	8d 45 fc	 lea	 eax, DWORD PTR _value$[ebp]
  00008	50		 push	 eax
  00009	8b f1		 mov	 esi, ecx
  0000b	e8 00 00 00 00	 call	 ?DecryptValueToPool@?$CEncrypt@M@@QAEXPAM@Z ; CEncrypt<float>::DecryptValueToPool

; 1731 : 		value -= inValue;

  00010	8b 45 08	 mov	 eax, DWORD PTR _inValue$[ebp]
  00013	f3 0f 10 45 fc	 movss	 xmm0, DWORD PTR _value$[ebp]
  00018	f3 0f 10 08	 movss	 xmm1, DWORD PTR [eax]
  0001c	0f 5a c0	 cvtps2pd xmm0, xmm0
  0001f	0f 5a c9	 cvtps2pd xmm1, xmm1

; 1732 : 		EncryptValueToPool((char*)&value);

  00022	8d 45 fc	 lea	 eax, DWORD PTR _value$[ebp]
  00025	f2 0f 5c c1	 subsd	 xmm0, xmm1
  00029	66 0f 5a c0	 cvtpd2ps xmm0, xmm0
  0002d	50		 push	 eax
  0002e	8b ce		 mov	 ecx, esi
  00030	f3 0f 11 45 fc	 movss	 DWORD PTR _value$[ebp], xmm0
  00035	e8 00 00 00 00	 call	 ?EncryptValueToPool@?$CEncrypt@M@@AAEXPBD@Z ; CEncrypt<float>::EncryptValueToPool

; 1733 : #ifdef _NOTUSE
; 1734 : 		m_value -= inValue;
; 1735 : 		Debug();
; 1736 : #endif
; 1737 : 		return value;

  0003a	8d 45 fc	 lea	 eax, DWORD PTR _value$[ebp]
  0003d	5e		 pop	 esi

; 1738 : 	} 

  0003e	c9		 leave
  0003f	c2 04 00	 ret	 4
??Z?$CEncrypt@M@@QAEAAMABM@Z ENDP			; CEncrypt<float>::operator-=
_TEXT	ENDS
PUBLIC	??B?$CEncrypt@_N@@QAE_NXZ			; CEncrypt<bool>::operator bool
; Function compile flags: /Ogsp
;	COMDAT ??B?$CEncrypt@_N@@QAE_NXZ
_TEXT	SEGMENT
_value$ = -1						; size = 1
??B?$CEncrypt@_N@@QAE_NXZ PROC				; CEncrypt<bool>::operator bool, COMDAT
; _this$ = ecx

; 134  : 	{

  00000	55		 push	 ebp
  00001	8b ec		 mov	 ebp, esp
  00003	51		 push	 ecx

; 135  : 		type value;
; 136  : 		DecryptValueToPool(&value);

  00004	8d 45 ff	 lea	 eax, DWORD PTR _value$[ebp]
  00007	50		 push	 eax
  00008	e8 00 00 00 00	 call	 ?DecryptValueToPool@?$CEncrypt@_N@@QAEXPA_N@Z ; CEncrypt<bool>::DecryptValueToPool

; 137  : 
; 138  : #ifdef _NOTUSE
; 139  : 		Debug();
; 140  : #endif
; 141  : 		return value;

  0000d	8a 45 ff	 mov	 al, BYTE PTR _value$[ebp]

; 142  : 	}

  00010	c9		 leave
  00011	c3		 ret	 0
??B?$CEncrypt@_N@@QAE_NXZ ENDP				; CEncrypt<bool>::operator bool
_TEXT	ENDS
PUBLIC	??B?$CEncrypt@_N@@QBE_NXZ			; CEncrypt<bool>::operator bool
; Function compile flags: /Ogsp
;	COMDAT ??B?$CEncrypt@_N@@QBE_NXZ
_TEXT	SEGMENT
_value$ = -1						; size = 1
??B?$CEncrypt@_N@@QBE_NXZ PROC				; CEncrypt<bool>::operator bool, COMDAT
; _this$ = ecx

; 145  : 	{

  00000	55		 push	 ebp
  00001	8b ec		 mov	 ebp, esp
  00003	51		 push	 ecx

; 146  : 		//UJ 130829, const    --start
; 147  : 		type value;
; 148  : 		CEncrypt<type>* pThis = const_cast<CEncrypt<type>*>(this);
; 149  : 		pThis->DecryptValueToPool(&value);

  00004	8d 45 ff	 lea	 eax, DWORD PTR _value$[ebp]
  00007	50		 push	 eax
  00008	e8 00 00 00 00	 call	 ?DecryptValueToPool@?$CEncrypt@_N@@QAEXPA_N@Z ; CEncrypt<bool>::DecryptValueToPool

; 150  : 		//// const DecryptValueToPool     .
; 151  :  		//type value;
; 152  : 		//char szTempMem[MAX_ENCRYPT];
; 153  : 		//m_RC5.DecryptByte( m_MemPool, szTempMem, max(m_ValueSize, DEFAULT_ENCRYPT) );
; 154  : 		//memcpy( &value, szTempMem, m_ValueSize );
; 155  : 		//UJ --end
; 156  : 
; 157  : #ifdef _NOTUSE
; 158  : 		Debug();
; 159  : #endif
; 160  : 		return value;

  0000d	8a 45 ff	 mov	 al, BYTE PTR _value$[ebp]

; 161  : 	}

  00010	c9		 leave
  00011	c3		 ret	 0
??B?$CEncrypt@_N@@QBE_NXZ ENDP				; CEncrypt<bool>::operator bool
_TEXT	ENDS
PUBLIC	??B?$CEncrypt@W4TeamType@@@@QBE?AW4TeamType@@XZ	; CEncrypt<enum TeamType>::operator enum TeamType
; Function compile flags: /Ogsp
;	COMDAT ??B?$CEncrypt@W4TeamType@@@@QBE?AW4TeamType@@XZ
_TEXT	SEGMENT
_value$ = -4						; size = 4
??B?$CEncrypt@W4TeamType@@@@QBE?AW4TeamType@@XZ PROC	; CEncrypt<enum TeamType>::operator enum TeamType, COMDAT
; _this$ = ecx

; 145  : 	{

  00000	55		 push	 ebp
  00001	8b ec		 mov	 ebp, esp
  00003	51		 push	 ecx

; 146  : 		//UJ 130829, const    --start
; 147  : 		type value;
; 148  : 		CEncrypt<type>* pThis = const_cast<CEncrypt<type>*>(this);
; 149  : 		pThis->DecryptValueToPool(&value);

  00004	8d 45 fc	 lea	 eax, DWORD PTR _value$[ebp]
  00007	50		 push	 eax
  00008	e8 00 00 00 00	 call	 ?DecryptValueToPool@?$CEncrypt@W4TeamType@@@@QAEXPAW4TeamType@@@Z ; CEncrypt<enum TeamType>::DecryptValueToPool

; 150  : 		//// const DecryptValueToPool     .
; 151  :  		//type value;
; 152  : 		//char szTempMem[MAX_ENCRYPT];
; 153  : 		//m_RC5.DecryptByte( m_MemPool, szTempMem, max(m_ValueSize, DEFAULT_ENCRYPT) );
; 154  : 		//memcpy( &value, szTempMem, m_ValueSize );
; 155  : 		//UJ --end
; 156  : 
; 157  : #ifdef _NOTUSE
; 158  : 		Debug();
; 159  : #endif
; 160  : 		return value;

  0000d	8b 45 fc	 mov	 eax, DWORD PTR _value$[ebp]

; 161  : 	}

  00010	c9		 leave
  00011	c3		 ret	 0
??B?$CEncrypt@W4TeamType@@@@QBE?AW4TeamType@@XZ ENDP	; CEncrypt<enum TeamType>::operator enum TeamType
_TEXT	ENDS
PUBLIC	??4?$CEncrypt@W4TeamType@@@@QAE?AW4TeamType@@W41@@Z ; CEncrypt<enum TeamType>::operator=
; Function compile flags: /Ogsp
;	COMDAT ??4?$CEncrypt@W4TeamType@@@@QAE?AW4TeamType@@W41@@Z
_TEXT	SEGMENT
_value$ = 8						; size = 4
_inValue$ = 8						; size = 4
??4?$CEncrypt@W4TeamType@@@@QAE?AW4TeamType@@W41@@Z PROC ; CEncrypt<enum TeamType>::operator=, COMDAT
; _this$ = ecx

; 2965 : 	{

  00000	55		 push	 ebp
  00001	8b ec		 mov	 ebp, esp

; 2966 : 		type value = inValue;

  00003	8b 45 08	 mov	 eax, DWORD PTR _inValue$[ebp]
  00006	89 45 08	 mov	 DWORD PTR _value$[ebp], eax

; 2967 : 		EncryptValueToPool((char*)&value);

  00009	8d 45 08	 lea	 eax, DWORD PTR _value$[ebp]
  0000c	50		 push	 eax
  0000d	e8 00 00 00 00	 call	 ?EncryptValueToPool@?$CEncrypt@W4TeamType@@@@AAEXPBD@Z ; CEncrypt<enum TeamType>::EncryptValueToPool

; 2968 : #ifdef _NOTUSE
; 2969 : 		m_value = inValue;
; 2970 : 		Debug();
; 2971 : #endif
; 2972 : 		return value;

  00012	8b 45 08	 mov	 eax, DWORD PTR _value$[ebp]

; 2973 : 	}

  00015	5d		 pop	 ebp
  00016	c2 04 00	 ret	 4
??4?$CEncrypt@W4TeamType@@@@QAE?AW4TeamType@@W41@@Z ENDP ; CEncrypt<enum TeamType>::operator=
_TEXT	ENDS
PUBLIC	__$ArrayPad$
EXTRN	?LoadProperty@ioDummyChar@@UAEXAAVioINILoader@@@Z:PROC ; ioDummyChar::LoadProperty
; Function compile flags: /Ogsp
; File d:\lost saga for developer\youtube\tutorial\source\src\lsclient\iotargettrace10dummy.cpp
;	COMDAT ?LoadProperty@ioTargetTrace10Dummy@@UAEXAAVioINILoader@@@Z
_TEXT	SEGMENT
_szBuf$ = -296						; size = 260
__k$555328 = -36					; size = 24
__k$555065 = -36					; size = 27
__k$554815 = -36					; size = 26
__k$555203 = -32					; size = 23
__k$554958 = -32					; size = 22
__k$554690 = -32					; size = 21
__k$556078 = -28					; size = 19
__k$555984 = -28					; size = 18
__k$555815 = -28					; size = 19
__k$555690 = -28					; size = 16
__k$556440 = -24					; size = 12
__k$556315 = -24					; size = 12
__k$556190 = -24					; size = 15
__k$555565 = -24					; size = 12
__k$555453 = -24					; size = 12
__$ArrayPad$ = -4					; size = 4
_rkLoader$ = 8						; size = 4
?LoadProperty@ioTargetTrace10Dummy@@UAEXAAVioINILoader@@@Z PROC ; ioTargetTrace10Dummy::LoadProperty, COMDAT
; _this$ = ecx

; 27   : {

  00000	55		 push	 ebp
  00001	8b ec		 mov	 ebp, esp
  00003	81 ec 28 01 00
	00		 sub	 esp, 296		; 00000128H
  00009	a1 00 00 00 00	 mov	 eax, DWORD PTR ___security_cookie
  0000e	33 c5		 xor	 eax, ebp
  00010	89 45 fc	 mov	 DWORD PTR __$ArrayPad$[ebp], eax
  00013	53		 push	 ebx
  00014	56		 push	 esi
  00015	57		 push	 edi
  00016	8b 7d 08	 mov	 edi, DWORD PTR _rkLoader$[ebp]

; 28   : 	ioDummyChar::LoadProperty( rkLoader );

  00019	57		 push	 edi
  0001a	8b f1		 mov	 esi, ecx
  0001c	e8 00 00 00 00	 call	 ?LoadProperty@ioDummyChar@@UAEXAAVioINILoader@@@Z ; ioDummyChar::LoadProperty

; 29   : 
; 30   : 	char szBuf[MAX_PATH];
; 31   : 	rkLoader.LoadString_e( "trace_delay_move_ani", "", szBuf, MAX_PATH );

  00021	33 db		 xor	 ebx, ebx
  00023	6a 05		 push	 5
  00025	c7 45 e0 99 9e
	8a 89		 mov	 DWORD PTR __k$554690[ebp], -1987404135 ; 898a9e99H
  0002c	c7 45 e4 88 b3
	8f 8f		 mov	 DWORD PTR __k$554690[ebp+4], -1886407800 ; 8f8fb388H
  00033	c7 45 e8 81 8d
	92 b5		 mov	 DWORD PTR __k$554690[ebp+8], -1248686719 ; b5928d81H
  0003a	c7 45 ec 80 83
	9d 8f		 mov	 DWORD PTR __k$554690[ebp+12], -1885502592 ; 8f9d8380H
  00041	c7 45 f0 b2 8d
	85 83		 mov	 DWORD PTR __k$554690[ebp+16], -2088399438 ; 83858db2H
  00048	8d 45 e0	 lea	 eax, DWORD PTR __k$554690[ebp]
  0004b	88 5d f4	 mov	 BYTE PTR __k$554690[ebp+20], bl
  0004e	59		 pop	 ecx
$LL106@LoadProper:
  0004f	81 30 ed ec eb
	ea		 xor	 DWORD PTR [eax], -353637139 ; eaebecedH
  00055	83 c0 04	 add	 eax, 4
  00058	49		 dec	 ecx
  00059	75 f4		 jne	 SHORT $LL106@LoadProper
  0005b	68 04 01 00 00	 push	 260			; 00000104H
  00060	8d 85 d8 fe ff
	ff		 lea	 eax, DWORD PTR _szBuf$[ebp]
  00066	50		 push	 eax
  00067	68 00 00 00 00	 push	 OFFSET ??_C@_00CNPNBAHC@?$AA@
  0006c	8d 45 e0	 lea	 eax, DWORD PTR __k$554690[ebp]
  0006f	50		 push	 eax
  00070	8b cf		 mov	 ecx, edi
  00072	ff 15 00 00 00
	00		 call	 DWORD PTR __imp_?LoadStringA@ioINILoader@@QAEXPBD0PADH@Z

; 32   : 	m_szTraceDelayMoveAni = szBuf;

  00078	8d 85 d8 fe ff
	ff		 lea	 eax, DWORD PTR _szBuf$[ebp]
  0007e	50		 push	 eax
  0007f	8d 8e 9c 14 00
	00		 lea	 ecx, DWORD PTR [esi+5276]
  00085	ff 15 00 00 00
	00		 call	 DWORD PTR __imp_??4ioHashString@@QAEAAV0@PBD@Z
  0008b	6a 06		 push	 6

; 33   : 	m_fTraceDelayMoveAniRate = rkLoader.LoadFloat_e( "trace_delay_move_ani_rate", 1.0f );

  0008d	c7 45 dc 99 9e
	8a 89		 mov	 DWORD PTR __k$554815[ebp], -1987404135 ; 898a9e99H
  00094	c7 45 e0 88 b3
	8f 8f		 mov	 DWORD PTR __k$554815[ebp+4], -1886407800 ; 8f8fb388H
  0009b	c7 45 e4 81 8d
	92 b5		 mov	 DWORD PTR __k$554815[ebp+8], -1248686719 ; b5928d81H
  000a2	c7 45 e8 80 83
	9d 8f		 mov	 DWORD PTR __k$554815[ebp+12], -1885502592 ; 8f9d8380H
  000a9	c7 45 ec b2 8d
	85 83		 mov	 DWORD PTR __k$554815[ebp+16], -2088399438 ; 83858db2H
  000b0	c7 45 f0 b2 9e
	8a 9e		 mov	 DWORD PTR __k$554815[ebp+20], -1635082574 ; 9e8a9eb2H
  000b7	8d 45 dc	 lea	 eax, DWORD PTR __k$554815[ebp]
  000ba	66 c7 45 f4 88
	00		 mov	 WORD PTR __k$554815[ebp+24], 136 ; 00000088H
  000c0	59		 pop	 ecx
$LL212@LoadProper:
  000c1	81 30 ed ec eb
	ea		 xor	 DWORD PTR [eax], -353637139 ; eaebecedH
  000c7	83 c0 04	 add	 eax, 4
  000ca	49		 dec	 ecx
  000cb	75 f4		 jne	 SHORT $LL212@LoadProper
  000cd	f3 0f 10 05 00
	00 00 00	 movss	 xmm0, DWORD PTR __real@3f800000
  000d5	80 75 f4 ed	 xor	 BYTE PTR __k$554815[ebp+24], -19 ; ffffffedH
  000d9	51		 push	 ecx
  000da	8d 45 dc	 lea	 eax, DWORD PTR __k$554815[ebp]
  000dd	f3 0f 11 04 24	 movss	 DWORD PTR [esp], xmm0
  000e2	50		 push	 eax
  000e3	8b cf		 mov	 ecx, edi
  000e5	ff 15 00 00 00
	00		 call	 DWORD PTR __imp_?LoadFloat@ioINILoader@@QAEMPBDM@Z
  000eb	d9 9e ac 14 00
	00		 fstp	 DWORD PTR [esi+5292]
  000f1	6a 05		 push	 5

; 34   : 
; 35   : 	rkLoader.LoadString_e( "trace_target_move_ani", "", szBuf, MAX_PATH );

  000f3	c7 45 e0 99 9e
	8a 89		 mov	 DWORD PTR __k$554958[ebp], -1987404135 ; 898a9e99H
  000fa	c7 45 e4 88 b3
	9f 8b		 mov	 DWORD PTR __k$554958[ebp+4], -1952468088 ; 8b9fb388H
  00101	c7 45 e8 9f 8b
	8e 9e		 mov	 DWORD PTR __k$554958[ebp+8], -1634825313 ; 9e8e8b9fH
  00108	c7 45 ec b2 81
	84 9c		 mov	 DWORD PTR __k$554958[ebp+12], -1669037646 ; 9c8481b2H
  0010f	c7 45 f0 88 b3
	8a 84		 mov	 DWORD PTR __k$554958[ebp+16], -2071284856 ; 848ab388H
  00116	8d 45 e0	 lea	 eax, DWORD PTR __k$554958[ebp]
  00119	66 c7 45 f4 84
	00		 mov	 WORD PTR __k$554958[ebp+20], 132 ; 00000084H
  0011f	59		 pop	 ecx
$LL318@LoadProper:
  00120	81 30 ed ec eb
	ea		 xor	 DWORD PTR [eax], -353637139 ; eaebecedH
  00126	83 c0 04	 add	 eax, 4
  00129	49		 dec	 ecx
  0012a	75 f4		 jne	 SHORT $LL318@LoadProper
  0012c	80 75 f4 ed	 xor	 BYTE PTR __k$554958[ebp+20], -19 ; ffffffedH
  00130	68 04 01 00 00	 push	 260			; 00000104H
  00135	8d 85 d8 fe ff
	ff		 lea	 eax, DWORD PTR _szBuf$[ebp]
  0013b	50		 push	 eax
  0013c	68 00 00 00 00	 push	 OFFSET ??_C@_00CNPNBAHC@?$AA@
  00141	8d 45 e0	 lea	 eax, DWORD PTR __k$554958[ebp]
  00144	50		 push	 eax
  00145	8b cf		 mov	 ecx, edi
  00147	ff 15 00 00 00
	00		 call	 DWORD PTR __imp_?LoadStringA@ioINILoader@@QAEXPBD0PADH@Z

; 36   : 	m_szTraceTargetMoveAni = szBuf;

  0014d	8d 85 d8 fe ff
	ff		 lea	 eax, DWORD PTR _szBuf$[ebp]
  00153	50		 push	 eax
  00154	8d 8e b0 14 00
	00		 lea	 ecx, DWORD PTR [esi+5296]
  0015a	ff 15 00 00 00
	00		 call	 DWORD PTR __imp_??4ioHashString@@QAEAAV0@PBD@Z
  00160	6a 06		 push	 6

; 37   : 	m_fTraceTargetMoveAniRate = rkLoader.LoadFloat_e( "trace_target_move_ani_rate", 1.0f );

  00162	c7 45 dc 99 9e
	8a 89		 mov	 DWORD PTR __k$555065[ebp], -1987404135 ; 898a9e99H
  00169	c7 45 e0 88 b3
	9f 8b		 mov	 DWORD PTR __k$555065[ebp+4], -1952468088 ; 8b9fb388H
  00170	c7 45 e4 9f 8b
	8e 9e		 mov	 DWORD PTR __k$555065[ebp+8], -1634825313 ; 9e8e8b9fH
  00177	c7 45 e8 b2 81
	84 9c		 mov	 DWORD PTR __k$555065[ebp+12], -1669037646 ; 9c8481b2H
  0017e	c7 45 ec 88 b3
	8a 84		 mov	 DWORD PTR __k$555065[ebp+16], -2071284856 ; 848ab388H
  00185	c7 45 f0 84 b3
	99 8b		 mov	 DWORD PTR __k$555065[ebp+20], -1952861308 ; 8b99b384H
  0018c	66 c7 45 f4 99
	89		 mov	 WORD PTR __k$555065[ebp+24], 35225 ; 00008999H
  00192	8d 45 dc	 lea	 eax, DWORD PTR __k$555065[ebp]
  00195	88 5d f6	 mov	 BYTE PTR __k$555065[ebp+26], bl
  00198	59		 pop	 ecx
$LL424@LoadProper:
  00199	81 30 ed ec eb
	ea		 xor	 DWORD PTR [eax], -353637139 ; eaebecedH
  0019f	83 c0 04	 add	 eax, 4
  001a2	49		 dec	 ecx
  001a3	75 f4		 jne	 SHORT $LL424@LoadProper
  001a5	6a 18		 push	 24			; 00000018H
  001a7	58		 pop	 eax
$LL421@LoadProper:
  001a8	8b c8		 mov	 ecx, eax
  001aa	81 e1 03 00 00
	80		 and	 ecx, -2147483645	; 80000003H
  001b0	79 05		 jns	 SHORT $LN1653@LoadProper
  001b2	49		 dec	 ecx
  001b3	83 c9 fc	 or	 ecx, -4			; fffffffcH
  001b6	41		 inc	 ecx
$LN1653@LoadProper:
  001b7	b2 ed		 mov	 dl, -19			; ffffffedH
  001b9	2a d1		 sub	 dl, cl
  001bb	30 54 05 dc	 xor	 BYTE PTR __k$555065[ebp+eax], dl
  001bf	40		 inc	 eax
  001c0	83 f8 1a	 cmp	 eax, 26			; 0000001aH
  001c3	7c e3		 jl	 SHORT $LL421@LoadProper
  001c5	f3 0f 10 05 00
	00 00 00	 movss	 xmm0, DWORD PTR __real@3f800000
  001cd	51		 push	 ecx
  001ce	8d 45 dc	 lea	 eax, DWORD PTR __k$555065[ebp]
  001d1	f3 0f 11 04 24	 movss	 DWORD PTR [esp], xmm0
  001d6	50		 push	 eax
  001d7	8b cf		 mov	 ecx, edi
  001d9	ff 15 00 00 00
	00		 call	 DWORD PTR __imp_?LoadFloat@ioINILoader@@QAEMPBDM@Z
  001df	d9 9e c0 14 00
	00		 fstp	 DWORD PTR [esi+5312]
  001e5	6a 05		 push	 5

; 38   : 
; 39   : 	m_fTraceDelayMoveSpeed = rkLoader.LoadFloat_e( "trace_delay_move_speed", 0.0f );

  001e7	c7 45 e0 99 9e
	8a 89		 mov	 DWORD PTR __k$555203[ebp], -1987404135 ; 898a9e99H
  001ee	c7 45 e4 88 b3
	8f 8f		 mov	 DWORD PTR __k$555203[ebp+4], -1886407800 ; 8f8fb388H
  001f5	c7 45 e8 81 8d
	92 b5		 mov	 DWORD PTR __k$555203[ebp+8], -1248686719 ; b5928d81H
  001fc	c7 45 ec 80 83
	9d 8f		 mov	 DWORD PTR __k$555203[ebp+12], -1885502592 ; 8f9d8380H
  00203	c7 45 f0 b2 9f
	9b 8f		 mov	 DWORD PTR __k$555203[ebp+16], -1885626446 ; 8f9b9fb2H
  0020a	66 c7 45 f4 88
	88		 mov	 WORD PTR __k$555203[ebp+20], 34952 ; 00008888H
  00210	8d 45 e0	 lea	 eax, DWORD PTR __k$555203[ebp]
  00213	88 5d f6	 mov	 BYTE PTR __k$555203[ebp+22], bl
  00216	59		 pop	 ecx
$LL530@LoadProper:
  00217	81 30 ed ec eb
	ea		 xor	 DWORD PTR [eax], -353637139 ; eaebecedH
  0021d	83 c0 04	 add	 eax, 4
  00220	49		 dec	 ecx
  00221	75 f4		 jne	 SHORT $LL530@LoadProper
  00223	6a 14		 push	 20			; 00000014H
  00225	58		 pop	 eax
$LL527@LoadProper:
  00226	8b c8		 mov	 ecx, eax
  00228	81 e1 03 00 00
	80		 and	 ecx, -2147483645	; 80000003H
  0022e	79 05		 jns	 SHORT $LN1654@LoadProper
  00230	49		 dec	 ecx
  00231	83 c9 fc	 or	 ecx, -4			; fffffffcH
  00234	41		 inc	 ecx
$LN1654@LoadProper:
  00235	b2 ed		 mov	 dl, -19			; ffffffedH
  00237	2a d1		 sub	 dl, cl
  00239	30 54 05 e0	 xor	 BYTE PTR __k$555203[ebp+eax], dl
  0023d	40		 inc	 eax
  0023e	83 f8 16	 cmp	 eax, 22			; 00000016H
  00241	7c e3		 jl	 SHORT $LL527@LoadProper
  00243	0f 57 c0	 xorps	 xmm0, xmm0
  00246	51		 push	 ecx
  00247	8d 45 e0	 lea	 eax, DWORD PTR __k$555203[ebp]
  0024a	f3 0f 11 04 24	 movss	 DWORD PTR [esp], xmm0
  0024f	50		 push	 eax
  00250	8b cf		 mov	 ecx, edi
  00252	ff 15 00 00 00
	00		 call	 DWORD PTR __imp_?LoadFloat@ioINILoader@@QAEMPBDM@Z
  00258	d9 9e c4 14 00
	00		 fstp	 DWORD PTR [esi+5316]
  0025e	6a 05		 push	 5

; 40   : 	m_fTraceTargetMoveSpeed = rkLoader.LoadFloat_e( "trace_target_move_speed", 0.0f );

  00260	c7 45 dc 99 9e
	8a 89		 mov	 DWORD PTR __k$555328[ebp], -1987404135 ; 898a9e99H
  00267	c7 45 e0 88 b3
	9f 8b		 mov	 DWORD PTR __k$555328[ebp+4], -1952468088 ; 8b9fb388H
  0026e	c7 45 e4 9f 8b
	8e 9e		 mov	 DWORD PTR __k$555328[ebp+8], -1634825313 ; 9e8e8b9fH
  00275	c7 45 e8 b2 81
	84 9c		 mov	 DWORD PTR __k$555328[ebp+12], -1669037646 ; 9c8481b2H
  0027c	c7 45 ec 88 b3
	98 9a		 mov	 DWORD PTR __k$555328[ebp+16], -1701268600 ; 9a98b388H
  00283	8d 45 dc	 lea	 eax, DWORD PTR __k$555328[ebp]
  00286	c7 45 f0 88 89
	8f 00		 mov	 DWORD PTR __k$555328[ebp+20], 9406856 ; 008f8988H
  0028d	59		 pop	 ecx
$LL636@LoadProper:
  0028e	81 30 ed ec eb
	ea		 xor	 DWORD PTR [eax], -353637139 ; eaebecedH
  00294	83 c0 04	 add	 eax, 4
  00297	49		 dec	 ecx
  00298	75 f4		 jne	 SHORT $LL636@LoadProper
  0029a	6a 14		 push	 20			; 00000014H
  0029c	58		 pop	 eax
$LL633@LoadProper:
  0029d	8b c8		 mov	 ecx, eax
  0029f	81 e1 03 00 00
	80		 and	 ecx, -2147483645	; 80000003H
  002a5	79 05		 jns	 SHORT $LN1655@LoadProper
  002a7	49		 dec	 ecx
  002a8	83 c9 fc	 or	 ecx, -4			; fffffffcH
  002ab	41		 inc	 ecx
$LN1655@LoadProper:
  002ac	b2 ed		 mov	 dl, -19			; ffffffedH
  002ae	2a d1		 sub	 dl, cl
  002b0	30 54 05 dc	 xor	 BYTE PTR __k$555328[ebp+eax], dl
  002b4	40		 inc	 eax
  002b5	83 f8 17	 cmp	 eax, 23			; 00000017H
  002b8	7c e3		 jl	 SHORT $LL633@LoadProper
  002ba	0f 57 c0	 xorps	 xmm0, xmm0
  002bd	51		 push	 ecx
  002be	8d 45 dc	 lea	 eax, DWORD PTR __k$555328[ebp]
  002c1	f3 0f 11 04 24	 movss	 DWORD PTR [esp], xmm0
  002c6	50		 push	 eax
  002c7	8b cf		 mov	 ecx, edi
  002c9	ff 15 00 00 00
	00		 call	 DWORD PTR __imp_?LoadFloat@ioINILoader@@QAEMPBDM@Z
  002cf	d9 9e c8 14 00
	00		 fstp	 DWORD PTR [esi+5320]
  002d5	6a 02		 push	 2

; 41   : 
; 42   : 	m_fTraceRange = rkLoader.LoadFloat_e( "trace_range", 0.0f );

  002d7	c7 45 e8 99 9e
	8a 89		 mov	 DWORD PTR __k$555453[ebp], -1987404135 ; 898a9e99H
  002de	c7 45 ec 88 b3
	99 8b		 mov	 DWORD PTR __k$555453[ebp+4], -1952861304 ; 8b99b388H
  002e5	8d 45 e8	 lea	 eax, DWORD PTR __k$555453[ebp]
  002e8	c7 45 f0 83 8b
	8e 00		 mov	 DWORD PTR __k$555453[ebp+8], 9341827 ; 008e8b83H
  002ef	59		 pop	 ecx
$LL742@LoadProper:
  002f0	81 30 ed ec eb
	ea		 xor	 DWORD PTR [eax], -353637139 ; eaebecedH
  002f6	83 c0 04	 add	 eax, 4
  002f9	49		 dec	 ecx
  002fa	75 f4		 jne	 SHORT $LL742@LoadProper
  002fc	6a 08		 push	 8
  002fe	58		 pop	 eax
$LL739@LoadProper:
  002ff	8b c8		 mov	 ecx, eax
  00301	81 e1 03 00 00
	80		 and	 ecx, -2147483645	; 80000003H
  00307	79 05		 jns	 SHORT $LN1656@LoadProper
  00309	49		 dec	 ecx
  0030a	83 c9 fc	 or	 ecx, -4			; fffffffcH
  0030d	41		 inc	 ecx
$LN1656@LoadProper:
  0030e	b2 ed		 mov	 dl, -19			; ffffffedH
  00310	2a d1		 sub	 dl, cl
  00312	30 54 05 e8	 xor	 BYTE PTR __k$555453[ebp+eax], dl
  00316	40		 inc	 eax
  00317	83 f8 0b	 cmp	 eax, 11			; 0000000bH
  0031a	7c e3		 jl	 SHORT $LL739@LoadProper
  0031c	0f 57 c0	 xorps	 xmm0, xmm0
  0031f	51		 push	 ecx
  00320	8d 45 e8	 lea	 eax, DWORD PTR __k$555453[ebp]
  00323	f3 0f 11 04 24	 movss	 DWORD PTR [esp], xmm0
  00328	50		 push	 eax
  00329	8b cf		 mov	 ecx, edi
  0032b	ff 15 00 00 00
	00		 call	 DWORD PTR __imp_?LoadFloat@ioINILoader@@QAEMPBDM@Z
  00331	d9 9e cc 14 00
	00		 fstp	 DWORD PTR [esi+5324]
  00337	6a 02		 push	 2

; 43   : 	m_fTraceAngle = rkLoader.LoadFloat_e( "trace_angle", 0.0f );

  00339	c7 45 e8 99 9e
	8a 89		 mov	 DWORD PTR __k$555565[ebp], -1987404135 ; 898a9e99H
  00340	c7 45 ec 88 b3
	8a 84		 mov	 DWORD PTR __k$555565[ebp+4], -2071284856 ; 848ab388H
  00347	8d 45 e8	 lea	 eax, DWORD PTR __k$555565[ebp]
  0034a	c7 45 f0 8a 80
	8e 00		 mov	 DWORD PTR __k$555565[ebp+8], 9339018 ; 008e808aH
  00351	59		 pop	 ecx
$LL848@LoadProper:
  00352	81 30 ed ec eb
	ea		 xor	 DWORD PTR [eax], -353637139 ; eaebecedH
  00358	83 c0 04	 add	 eax, 4
  0035b	49		 dec	 ecx
  0035c	75 f4		 jne	 SHORT $LL848@LoadProper
  0035e	6a 08		 push	 8
  00360	58		 pop	 eax
$LL845@LoadProper:
  00361	8b c8		 mov	 ecx, eax
  00363	81 e1 03 00 00
	80		 and	 ecx, -2147483645	; 80000003H
  00369	79 05		 jns	 SHORT $LN1657@LoadProper
  0036b	49		 dec	 ecx
  0036c	83 c9 fc	 or	 ecx, -4			; fffffffcH
  0036f	41		 inc	 ecx
$LN1657@LoadProper:
  00370	b2 ed		 mov	 dl, -19			; ffffffedH
  00372	2a d1		 sub	 dl, cl
  00374	30 54 05 e8	 xor	 BYTE PTR __k$555565[ebp+eax], dl
  00378	40		 inc	 eax
  00379	83 f8 0b	 cmp	 eax, 11			; 0000000bH
  0037c	7c e3		 jl	 SHORT $LL845@LoadProper
  0037e	0f 57 c0	 xorps	 xmm0, xmm0
  00381	51		 push	 ecx
  00382	8d 45 e8	 lea	 eax, DWORD PTR __k$555565[ebp]
  00385	f3 0f 11 04 24	 movss	 DWORD PTR [esp], xmm0
  0038a	50		 push	 eax
  0038b	8b cf		 mov	 ecx, edi
  0038d	ff 15 00 00 00
	00		 call	 DWORD PTR __imp_?LoadFloat@ioINILoader@@QAEMPBDM@Z
  00393	d9 9e d0 14 00
	00		 fstp	 DWORD PTR [esi+5328]
  00399	6a 03		 push	 3

; 44   : 	m_fTraceUpHeight = rkLoader.LoadFloat_e( "trace_up_height", 0.0f );

  0039b	c7 45 e4 99 9e
	8a 89		 mov	 DWORD PTR __k$555690[ebp], -1987404135 ; 898a9e99H
  003a2	c7 45 e8 88 b3
	9e 9a		 mov	 DWORD PTR __k$555690[ebp+4], -1700875384 ; 9a9eb388H
  003a9	c7 45 ec b2 84
	8e 83		 mov	 DWORD PTR __k$555690[ebp+8], -2087811918 ; 838e84b2H
  003b0	8d 45 e4	 lea	 eax, DWORD PTR __k$555690[ebp]
  003b3	c7 45 f0 8a 84
	9f 00		 mov	 DWORD PTR __k$555690[ebp+12], 10454154 ; 009f848aH
  003ba	59		 pop	 ecx
$LL954@LoadProper:
  003bb	81 30 ed ec eb
	ea		 xor	 DWORD PTR [eax], -353637139 ; eaebecedH
  003c1	83 c0 04	 add	 eax, 4
  003c4	49		 dec	 ecx
  003c5	75 f4		 jne	 SHORT $LL954@LoadProper
  003c7	6a 0c		 push	 12			; 0000000cH
  003c9	58		 pop	 eax
$LL951@LoadProper:
  003ca	8b c8		 mov	 ecx, eax
  003cc	81 e1 03 00 00
	80		 and	 ecx, -2147483645	; 80000003H
  003d2	79 05		 jns	 SHORT $LN1658@LoadProper
  003d4	49		 dec	 ecx
  003d5	83 c9 fc	 or	 ecx, -4			; fffffffcH
  003d8	41		 inc	 ecx
$LN1658@LoadProper:
  003d9	b2 ed		 mov	 dl, -19			; ffffffedH
  003db	2a d1		 sub	 dl, cl
  003dd	30 54 05 e4	 xor	 BYTE PTR __k$555690[ebp+eax], dl
  003e1	40		 inc	 eax
  003e2	83 f8 0f	 cmp	 eax, 15			; 0000000fH
  003e5	7c e3		 jl	 SHORT $LL951@LoadProper
  003e7	0f 57 c0	 xorps	 xmm0, xmm0
  003ea	51		 push	 ecx
  003eb	8d 45 e4	 lea	 eax, DWORD PTR __k$555690[ebp]
  003ee	f3 0f 11 04 24	 movss	 DWORD PTR [esp], xmm0
  003f3	50		 push	 eax
  003f4	8b cf		 mov	 ecx, edi
  003f6	ff 15 00 00 00
	00		 call	 DWORD PTR __imp_?LoadFloat@ioINILoader@@QAEMPBDM@Z
  003fc	d9 9e d4 14 00
	00		 fstp	 DWORD PTR [esi+5332]
  00402	6a 04		 push	 4

; 45   : 	m_fTraceUnderHeight = rkLoader.LoadFloat_e( "trace_under_height", 0.0f );

  00404	c7 45 e4 99 9e
	8a 89		 mov	 DWORD PTR __k$555815[ebp], -1987404135 ; 898a9e99H
  0040b	c7 45 e8 88 b3
	9e 84		 mov	 DWORD PTR __k$555815[ebp+4], -2069974136 ; 849eb388H
  00412	c7 45 ec 89 89
	99 b5		 mov	 DWORD PTR __k$555815[ebp+8], -1248228983 ; b5998989H
  00419	c7 45 f0 85 89
	82 8d		 mov	 DWORD PTR __k$555815[ebp+12], -1920824955 ; 8d828985H
  00420	66 c7 45 f4 85
	98		 mov	 WORD PTR __k$555815[ebp+16], 39045 ; 00009885H
  00426	8d 45 e4	 lea	 eax, DWORD PTR __k$555815[ebp]
  00429	88 5d f6	 mov	 BYTE PTR __k$555815[ebp+18], bl
  0042c	59		 pop	 ecx
$LL1060@LoadProper:
  0042d	81 30 ed ec eb
	ea		 xor	 DWORD PTR [eax], -353637139 ; eaebecedH
  00433	83 c0 04	 add	 eax, 4
  00436	49		 dec	 ecx
  00437	75 f4		 jne	 SHORT $LL1060@LoadProper
  00439	6a 10		 push	 16			; 00000010H
  0043b	58		 pop	 eax
$LL1057@LoadProper:
  0043c	8b c8		 mov	 ecx, eax
  0043e	81 e1 03 00 00
	80		 and	 ecx, -2147483645	; 80000003H
  00444	79 05		 jns	 SHORT $LN1659@LoadProper
  00446	49		 dec	 ecx
  00447	83 c9 fc	 or	 ecx, -4			; fffffffcH
  0044a	41		 inc	 ecx
$LN1659@LoadProper:
  0044b	b2 ed		 mov	 dl, -19			; ffffffedH
  0044d	2a d1		 sub	 dl, cl
  0044f	30 54 05 e4	 xor	 BYTE PTR __k$555815[ebp+eax], dl
  00453	40		 inc	 eax
  00454	83 f8 12	 cmp	 eax, 18			; 00000012H
  00457	7c e3		 jl	 SHORT $LL1057@LoadProper
  00459	0f 57 c0	 xorps	 xmm0, xmm0
  0045c	51		 push	 ecx
  0045d	8d 45 e4	 lea	 eax, DWORD PTR __k$555815[ebp]
  00460	f3 0f 11 04 24	 movss	 DWORD PTR [esp], xmm0
  00465	50		 push	 eax
  00466	8b cf		 mov	 ecx, edi
  00468	ff 15 00 00 00
	00		 call	 DWORD PTR __imp_?LoadFloat@ioINILoader@@QAEMPBDM@Z
  0046e	d9 9e d8 14 00
	00		 fstp	 DWORD PTR [esi+5336]
  00474	6a 04		 push	 4

; 46   : 
; 47   : 	m_fTargetMinHeight = rkLoader.LoadFloat_e( "target_min_height", 0.0f );

  00476	c7 45 e4 99 8d
	99 8d		 mov	 DWORD PTR __k$555984[ebp], -1919316583 ; 8d998d99H
  0047d	c7 45 e8 88 98
	b4 87		 mov	 DWORD PTR __k$555984[ebp+4], -2018207608 ; 87b49888H
  00484	c7 45 ec 84 82
	b4 82		 mov	 DWORD PTR __k$555984[ebp+8], -2102099324 ; 82b48284H
  0048b	c7 45 f0 88 85
	8c 82		 mov	 DWORD PTR __k$555984[ebp+12], -2104719992 ; 828c8588H
  00492	8d 45 e4	 lea	 eax, DWORD PTR __k$555984[ebp]
  00495	66 c7 45 f4 99
	00		 mov	 WORD PTR __k$555984[ebp+16], 153 ; 00000099H
  0049b	59		 pop	 ecx
$LL1166@LoadProper:
  0049c	81 30 ed ec eb
	ea		 xor	 DWORD PTR [eax], -353637139 ; eaebecedH
  004a2	83 c0 04	 add	 eax, 4
  004a5	49		 dec	 ecx
  004a6	75 f4		 jne	 SHORT $LL1166@LoadProper
  004a8	0f 57 c0	 xorps	 xmm0, xmm0
  004ab	80 75 f4 ed	 xor	 BYTE PTR __k$555984[ebp+16], -19 ; ffffffedH
  004af	51		 push	 ecx
  004b0	8d 45 e4	 lea	 eax, DWORD PTR __k$555984[ebp]
  004b3	f3 0f 11 04 24	 movss	 DWORD PTR [esp], xmm0
  004b8	50		 push	 eax
  004b9	8b cf		 mov	 ecx, edi
  004bb	ff 15 00 00 00
	00		 call	 DWORD PTR __imp_?LoadFloat@ioINILoader@@QAEMPBDM@Z
  004c1	d9 9e dc 14 00
	00		 fstp	 DWORD PTR [esi+5340]
  004c7	6a 04		 push	 4

; 48   : 	m_fTargetArriveDist = rkLoader.LoadFloat_e( "target_arrive_dist", 0.0f );

  004c9	c7 45 e4 99 8d
	99 8d		 mov	 DWORD PTR __k$556078[ebp], -1919316583 ; 8d998d99H
  004d0	c7 45 e8 88 98
	b4 8b		 mov	 DWORD PTR __k$556078[ebp+4], -1951098744 ; 8bb49888H
  004d7	c7 45 ec 9f 9e
	82 9c		 mov	 DWORD PTR __k$556078[ebp+8], -1669161313 ; 9c829e9fH
  004de	c7 45 f0 88 b3
	8f 83		 mov	 DWORD PTR __k$556078[ebp+12], -2087734392 ; 838fb388H
  004e5	66 c7 45 f4 9e
	98		 mov	 WORD PTR __k$556078[ebp+16], 39070 ; 0000989eH
  004eb	8d 45 e4	 lea	 eax, DWORD PTR __k$556078[ebp]
  004ee	88 5d f6	 mov	 BYTE PTR __k$556078[ebp+18], bl
  004f1	59		 pop	 ecx
$LL1272@LoadProper:
  004f2	81 30 ed ec eb
	ea		 xor	 DWORD PTR [eax], -353637139 ; eaebecedH
  004f8	83 c0 04	 add	 eax, 4
  004fb	49		 dec	 ecx
  004fc	75 f4		 jne	 SHORT $LL1272@LoadProper
  004fe	6a 10		 push	 16			; 00000010H
  00500	58		 pop	 eax
$LL1269@LoadProper:
  00501	8b c8		 mov	 ecx, eax
  00503	81 e1 03 00 00
	80		 and	 ecx, -2147483645	; 80000003H
  00509	79 05		 jns	 SHORT $LN1660@LoadProper
  0050b	49		 dec	 ecx
  0050c	83 c9 fc	 or	 ecx, -4			; fffffffcH
  0050f	41		 inc	 ecx
$LN1660@LoadProper:
  00510	b2 ed		 mov	 dl, -19			; ffffffedH
  00512	2a d1		 sub	 dl, cl
  00514	30 54 05 e4	 xor	 BYTE PTR __k$556078[ebp+eax], dl
  00518	40		 inc	 eax
  00519	83 f8 12	 cmp	 eax, 18			; 00000012H
  0051c	7c e3		 jl	 SHORT $LL1269@LoadProper
  0051e	0f 57 c0	 xorps	 xmm0, xmm0
  00521	51		 push	 ecx
  00522	8d 45 e4	 lea	 eax, DWORD PTR __k$556078[ebp]
  00525	f3 0f 11 04 24	 movss	 DWORD PTR [esp], xmm0
  0052a	50		 push	 eax
  0052b	8b cf		 mov	 ecx, edi
  0052d	ff 15 00 00 00
	00		 call	 DWORD PTR __imp_?LoadFloat@ioINILoader@@QAEMPBDM@Z
  00533	d9 9e e0 14 00
	00		 fstp	 DWORD PTR [esi+5344]
  00539	6a 03		 push	 3

; 49   : 
; 50   : 	m_nAttackMaxCnt = rkLoader.LoadInt_e( "attack_max_cnt", 0 );

  0053b	c7 45 e8 8c 98
	9f 8b		 mov	 DWORD PTR __k$556190[ebp], -1952474996 ; 8b9f988cH
  00542	c7 45 ec 8e 87
	b4 87		 mov	 DWORD PTR __k$556190[ebp+4], -2018211954 ; 87b4878eH
  00549	c7 45 f0 8c 94
	b4 89		 mov	 DWORD PTR __k$556190[ebp+8], -1984654196 ; 89b4948cH
  00550	66 c7 45 f4 83
	98		 mov	 WORD PTR __k$556190[ebp+12], 39043 ; 00009883H
  00556	8d 45 e8	 lea	 eax, DWORD PTR __k$556190[ebp]
  00559	88 5d f6	 mov	 BYTE PTR __k$556190[ebp+14], bl
  0055c	59		 pop	 ecx
$LL1378@LoadProper:
  0055d	81 30 ed ec eb
	ea		 xor	 DWORD PTR [eax], -353637139 ; eaebecedH
  00563	83 c0 04	 add	 eax, 4
  00566	49		 dec	 ecx
  00567	75 f4		 jne	 SHORT $LL1378@LoadProper
  00569	6a 0c		 push	 12			; 0000000cH
  0056b	58		 pop	 eax
$LL1375@LoadProper:
  0056c	8b c8		 mov	 ecx, eax
  0056e	81 e1 03 00 00
	80		 and	 ecx, -2147483645	; 80000003H
  00574	79 05		 jns	 SHORT $LN1661@LoadProper
  00576	49		 dec	 ecx
  00577	83 c9 fc	 or	 ecx, -4			; fffffffcH
  0057a	41		 inc	 ecx
$LN1661@LoadProper:
  0057b	b2 ed		 mov	 dl, -19			; ffffffedH
  0057d	2a d1		 sub	 dl, cl
  0057f	30 54 05 e8	 xor	 BYTE PTR __k$556190[ebp+eax], dl
  00583	40		 inc	 eax
  00584	83 f8 0e	 cmp	 eax, 14			; 0000000eH
  00587	7c e3		 jl	 SHORT $LL1375@LoadProper
  00589	53		 push	 ebx
  0058a	8d 45 e8	 lea	 eax, DWORD PTR __k$556190[ebp]
  0058d	50		 push	 eax
  0058e	8b cf		 mov	 ecx, edi
  00590	ff 15 00 00 00
	00		 call	 DWORD PTR __imp_?LoadInt@ioINILoader@@QAEHPBDH@Z
  00596	6a 02		 push	 2
  00598	89 86 ec 14 00
	00		 mov	 DWORD PTR [esi+5356], eax

; 51   : 	dwAttackTime = rkLoader.LoadInt_e( "attack_time", 0 );

  0059e	c7 45 e8 8c 98
	9f 8b		 mov	 DWORD PTR __k$556315[ebp], -1952474996 ; 8b9f988cH
  005a5	c7 45 ec 8e 87
	b4 9e		 mov	 DWORD PTR __k$556315[ebp+4], -1632335986 ; 9eb4878eH
  005ac	8d 45 e8	 lea	 eax, DWORD PTR __k$556315[ebp]
  005af	c7 45 f0 84 81
	8e 00		 mov	 DWORD PTR __k$556315[ebp+8], 9339268 ; 008e8184H
  005b6	59		 pop	 ecx
$LL1484@LoadProper:
  005b7	81 30 ed ec eb
	ea		 xor	 DWORD PTR [eax], -353637139 ; eaebecedH
  005bd	83 c0 04	 add	 eax, 4
  005c0	49		 dec	 ecx
  005c1	75 f4		 jne	 SHORT $LL1484@LoadProper
  005c3	6a 08		 push	 8
  005c5	58		 pop	 eax
$LL1481@LoadProper:
  005c6	8b c8		 mov	 ecx, eax
  005c8	81 e1 03 00 00
	80		 and	 ecx, -2147483645	; 80000003H
  005ce	79 05		 jns	 SHORT $LN1662@LoadProper
  005d0	49		 dec	 ecx
  005d1	83 c9 fc	 or	 ecx, -4			; fffffffcH
  005d4	41		 inc	 ecx
$LN1662@LoadProper:
  005d5	b2 ed		 mov	 dl, -19			; ffffffedH
  005d7	2a d1		 sub	 dl, cl
  005d9	30 54 05 e8	 xor	 BYTE PTR __k$556315[ebp+eax], dl
  005dd	40		 inc	 eax
  005de	83 f8 0b	 cmp	 eax, 11			; 0000000bH
  005e1	7c e3		 jl	 SHORT $LL1481@LoadProper
  005e3	53		 push	 ebx
  005e4	8d 45 e8	 lea	 eax, DWORD PTR __k$556315[ebp]
  005e7	50		 push	 eax
  005e8	8b cf		 mov	 ecx, edi
  005ea	ff 15 00 00 00
	00		 call	 DWORD PTR __imp_?LoadInt@ioINILoader@@QAEHPBDH@Z
  005f0	6a 02		 push	 2
  005f2	89 86 e4 14 00
	00		 mov	 DWORD PTR [esi+5348], eax

; 52   : 	m_nWeaponType = rkLoader.LoadInt_e( "weapon_type", NO_WEAPON_ATTRIBUTE );

  005f8	c7 45 e8 9a 89
	8a 9a		 mov	 DWORD PTR __k$556440[ebp], -1702196838 ; 9a8a899aH
  005ff	c7 45 ec 82 82
	b4 9e		 mov	 DWORD PTR __k$556440[ebp+4], -1632337278 ; 9eb48282H
  00606	8d 45 e8	 lea	 eax, DWORD PTR __k$556440[ebp]
  00609	c7 45 f0 94 9c
	8e 00		 mov	 DWORD PTR __k$556440[ebp+8], 9346196 ; 008e9c94H
  00610	59		 pop	 ecx
$LL1590@LoadProper:
  00611	81 30 ed ec eb
	ea		 xor	 DWORD PTR [eax], -353637139 ; eaebecedH
  00617	83 c0 04	 add	 eax, 4
  0061a	49		 dec	 ecx
  0061b	75 f4		 jne	 SHORT $LL1590@LoadProper
  0061d	6a 08		 push	 8
  0061f	58		 pop	 eax
$LL1587@LoadProper:
  00620	8b c8		 mov	 ecx, eax
  00622	81 e1 03 00 00
	80		 and	 ecx, -2147483645	; 80000003H
  00628	79 05		 jns	 SHORT $LN1663@LoadProper
  0062a	49		 dec	 ecx
  0062b	83 c9 fc	 or	 ecx, -4			; fffffffcH
  0062e	41		 inc	 ecx
$LN1663@LoadProper:
  0062f	b2 ed		 mov	 dl, -19			; ffffffedH
  00631	2a d1		 sub	 dl, cl
  00633	30 54 05 e8	 xor	 BYTE PTR __k$556440[ebp+eax], dl
  00637	40		 inc	 eax
  00638	83 f8 0b	 cmp	 eax, 11			; 0000000bH
  0063b	7c e3		 jl	 SHORT $LL1587@LoadProper
  0063d	53		 push	 ebx
  0063e	8d 45 e8	 lea	 eax, DWORD PTR __k$556440[ebp]
  00641	50		 push	 eax
  00642	8b cf		 mov	 ecx, edi
  00644	ff 15 00 00 00
	00		 call	 DWORD PTR __imp_?LoadInt@ioINILoader@@QAEHPBDH@Z

; 53   : }

  0064a	8b 4d fc	 mov	 ecx, DWORD PTR __$ArrayPad$[ebp]
  0064d	5f		 pop	 edi
  0064e	89 86 e8 14 00
	00		 mov	 DWORD PTR [esi+5352], eax
  00654	5e		 pop	 esi
  00655	33 cd		 xor	 ecx, ebp
  00657	5b		 pop	 ebx
  00658	e8 00 00 00 00	 call	 @__security_check_cookie@4
  0065d	c9		 leave
  0065e	c2 04 00	 ret	 4
?LoadProperty@ioTargetTrace10Dummy@@UAEXAAVioINILoader@@@Z ENDP ; ioTargetTrace10Dummy::LoadProperty
; Function compile flags: /Ogsp
_TEXT	ENDS
;	COMDAT ?IsNeedCheckMapCollision@ioTargetTrace10Dummy@@UBE_NXZ
_TEXT	SEGMENT
_value$556628 = -1					; size = 1
?IsNeedCheckMapCollision@ioTargetTrace10Dummy@@UBE_NXZ PROC ; ioTargetTrace10Dummy::IsNeedCheckMapCollision, COMDAT
; _this$ = ecx

; 307  : {

  00000	55		 push	 ebp
  00001	8b ec		 mov	 ebp, esp
  00003	51		 push	 ecx

; 308  : 	return !m_bDisableMapCollision;

  00004	8d 45 ff	 lea	 eax, DWORD PTR _value$556628[ebp]
  00007	50		 push	 eax
  00008	81 c1 08 14 00
	00		 add	 ecx, 5128		; 00001408H
  0000e	e8 00 00 00 00	 call	 ?DecryptValueToPool@?$CEncrypt@_N@@QAEXPA_N@Z ; CEncrypt<bool>::DecryptValueToPool
  00013	33 c0		 xor	 eax, eax
  00015	38 45 ff	 cmp	 BYTE PTR _value$556628[ebp], al
  00018	0f 94 c0	 sete	 al

; 309  : }

  0001b	c9		 leave
  0001c	c3		 ret	 0
?IsNeedCheckMapCollision@ioTargetTrace10Dummy@@UBE_NXZ ENDP ; ioTargetTrace10Dummy::IsNeedCheckMapCollision
_TEXT	ENDS
PUBLIC	__$ArrayPad$
PUBLIC	?SetRestartState@ioTargetTrace10Dummy@@IAEXPAVioBaseChar@@@Z ; ioTargetTrace10Dummy::SetRestartState
;	COMDAT xdata$x
xdata$x	SEGMENT
__unwindtable$?SetRestartState@ioTargetTrace10Dummy@@IAEXPAVioBaseChar@@@Z DD 0ffffffffH
	DD	FLAT:__unwindfunclet$?SetRestartState@ioTargetTrace10Dummy@@IAEXPAVioBaseChar@@@Z$0
__ehfuncinfo$?SetRestartState@ioTargetTrace10Dummy@@IAEXPAVioBaseChar@@@Z DD 019930522H
	DD	01H
	DD	FLAT:__unwindtable$?SetRestartState@ioTargetTrace10Dummy@@IAEXPAVioBaseChar@@@Z
	DD	2 DUP(00H)
	DD	2 DUP(00H)
	DD	00H
	DD	01H
; Function compile flags: /Ogsp
xdata$x	ENDS
;	COMDAT ?SetRestartState@ioTargetTrace10Dummy@@IAEXPAVioBaseChar@@@Z
_TEXT	SEGMENT
_kPacket$548360 = -32808				; size = 32792
__$ArrayPad$ = -16					; size = 4
__$EHRec$ = -12						; size = 12
_pOwner$ = 8						; size = 4
?SetRestartState@ioTargetTrace10Dummy@@IAEXPAVioBaseChar@@@Z PROC ; ioTargetTrace10Dummy::SetRestartState, COMDAT
; _this$ = ecx

; 436  : {

  00000	55		 push	 ebp
  00001	8b ec		 mov	 ebp, esp
  00003	6a ff		 push	 -1
  00005	68 00 00 00 00	 push	 __ehhandler$?SetRestartState@ioTargetTrace10Dummy@@IAEXPAVioBaseChar@@@Z
  0000a	64 a1 00 00 00
	00		 mov	 eax, DWORD PTR fs:0
  00010	50		 push	 eax
  00011	b8 1c 80 00 00	 mov	 eax, 32796		; 0000801cH
  00016	e8 00 00 00 00	 call	 __chkstk
  0001b	a1 00 00 00 00	 mov	 eax, DWORD PTR ___security_cookie
  00020	33 c5		 xor	 eax, ebp
  00022	89 45 f0	 mov	 DWORD PTR __$ArrayPad$[ebp], eax
  00025	56		 push	 esi
  00026	57		 push	 edi
  00027	50		 push	 eax
  00028	8d 45 f4	 lea	 eax, DWORD PTR __$EHRec$[ebp]
  0002b	64 a3 00 00 00
	00		 mov	 DWORD PTR fs:0, eax
  00031	8b 7d 08	 mov	 edi, DWORD PTR _pOwner$[ebp]
  00034	8b f1		 mov	 esi, ecx

; 437  : 	if ( !pOwner || !pOwner->IsNeedProcess() )

  00036	85 ff		 test	 edi, edi
  00038	0f 84 bc 00 00
	00		 je	 $LN2@SetRestart
  0003e	8b 07		 mov	 eax, DWORD PTR [edi]
  00040	8b cf		 mov	 ecx, edi
  00042	ff 90 00 01 00
	00		 call	 DWORD PTR [eax+256]
  00048	84 c0		 test	 al, al
  0004a	0f 84 aa 00 00
	00		 je	 $LN2@SetRestart

; 438  : 		return;
; 439  : 
; 440  : 	SetRandomRotate( pOwner );

  00050	57		 push	 edi
  00051	8b ce		 mov	 ecx, esi
  00053	e8 00 00 00 00	 call	 ?SetRandomRotate@ioTargetTrace10Dummy@@IAEXPAVioBaseChar@@@Z ; ioTargetTrace10Dummy::SetRandomRotate

; 441  : 	SetTraceDelayMoveState();

  00058	8b ce		 mov	 ecx, esi
  0005a	e8 00 00 00 00	 call	 ?SetTraceDelayMoveState@ioTargetTrace10Dummy@@IAEXXZ ; ioTargetTrace10Dummy::SetTraceDelayMoveState

; 442  : 
; 443  : 	if ( pOwner->IsNeedSendNetwork() )

  0005f	8b 07		 mov	 eax, DWORD PTR [edi]
  00061	8b cf		 mov	 ecx, edi
  00063	ff 90 04 01 00
	00		 call	 DWORD PTR [eax+260]
  00069	84 c0		 test	 al, al
  0006b	0f 84 89 00 00
	00		 je	 $LN2@SetRestart

; 444  : 	{
; 445  : 		SP2Packet kPacket( CUPK_DUMMY_CHAR_SYNC );

  00071	68 21 42 00 00	 push	 16929			; 00004221H
  00076	8d 8d d8 7f ff
	ff		 lea	 ecx, DWORD PTR _kPacket$548360[ebp]
  0007c	e8 00 00 00 00	 call	 ??0SP2Packet@@QAE@K@Z	; SP2Packet::SP2Packet
  00081	83 65 fc 00	 and	 DWORD PTR __$EHRec$[ebp+8], 0

; 446  : 		kPacket << m_OwnerName;

  00085	8d 86 cc 01 00
	00		 lea	 eax, DWORD PTR [esi+460]
  0008b	50		 push	 eax
  0008c	8d 8d d8 7f ff
	ff		 lea	 ecx, DWORD PTR _kPacket$548360[ebp]
  00092	e8 00 00 00 00	 call	 ??6SP2Packet@@QAEAAV0@ABVioHashString@@@Z ; SP2Packet::operator<<

; 447  : 		kPacket << m_iCreateIndex;

  00097	ff b6 dc 01 00
	00		 push	 DWORD PTR [esi+476]
  0009d	8d 8d d8 7f ff
	ff		 lea	 ecx, DWORD PTR _kPacket$548360[ebp]
  000a3	e8 00 00 00 00	 call	 ??6SP2Packet@@QAEAAV0@H@Z ; SP2Packet::operator<<

; 448  : 		kPacket << TS_Restart;

  000a8	6a 05		 push	 5
  000aa	8d 8d d8 7f ff
	ff		 lea	 ecx, DWORD PTR _kPacket$548360[ebp]
  000b0	e8 00 00 00 00	 call	 ??6SP2Packet@@QAEAAV0@H@Z ; SP2Packet::operator<<

; 449  : 		kPacket << GetWorldOrientation();

  000b5	8b 06		 mov	 eax, DWORD PTR [esi]
  000b7	8b ce		 mov	 ecx, esi
  000b9	ff 50 74	 call	 DWORD PTR [eax+116]
  000bc	50		 push	 eax
  000bd	8d 8d d8 7f ff
	ff		 lea	 ecx, DWORD PTR _kPacket$548360[ebp]
  000c3	e8 00 00 00 00	 call	 ??6SP2Packet@@QAEAAV0@ABUD3DXQUATERNION@@@Z ; SP2Packet::operator<<

; 450  : 		kPacket << GetWorldPosition();

  000c8	8b 06		 mov	 eax, DWORD PTR [esi]
  000ca	8b ce		 mov	 ecx, esi
  000cc	ff 50 70	 call	 DWORD PTR [eax+112]
  000cf	50		 push	 eax
  000d0	8d 8d d8 7f ff
	ff		 lea	 ecx, DWORD PTR _kPacket$548360[ebp]
  000d6	e8 00 00 00 00	 call	 ??6SP2Packet@@QAEAAV0@ABUD3DXVECTOR3@@@Z ; SP2Packet::operator<<

; 451  : 		P2PNetwork::SendToAllPlayingUser( kPacket );

  000db	8d 85 d8 7f ff
	ff		 lea	 eax, DWORD PTR _kPacket$548360[ebp]
  000e1	6a 00		 push	 0
  000e3	50		 push	 eax
  000e4	e8 00 00 00 00	 call	 ?SendToAllPlayingUser@P2PNetwork@@YAXAAVSP2Packet@@PAVioBaseChar@@@Z ; P2PNetwork::SendToAllPlayingUser

; 452  : 	}

  000e9	83 4d fc ff	 or	 DWORD PTR __$EHRec$[ebp+8], -1
  000ed	59		 pop	 ecx
  000ee	59		 pop	 ecx
  000ef	8d 8d d8 7f ff
	ff		 lea	 ecx, DWORD PTR _kPacket$548360[ebp]
  000f5	e8 00 00 00 00	 call	 ??1SP2Packet@@UAE@XZ	; SP2Packet::~SP2Packet
$LN2@SetRestart:

; 453  : }

  000fa	8b 4d f4	 mov	 ecx, DWORD PTR __$EHRec$[ebp]
  000fd	64 89 0d 00 00
	00 00		 mov	 DWORD PTR fs:0, ecx
  00104	59		 pop	 ecx
  00105	5f		 pop	 edi
  00106	5e		 pop	 esi
  00107	8b 4d f0	 mov	 ecx, DWORD PTR __$ArrayPad$[ebp]
  0010a	33 cd		 xor	 ecx, ebp
  0010c	e8 00 00 00 00	 call	 @__security_check_cookie@4
  00111	c9		 leave
  00112	c2 04 00	 ret	 4
_TEXT	ENDS
;	COMDAT text$x
text$x	SEGMENT
__unwindfunclet$?SetRestartState@ioTargetTrace10Dummy@@IAEXPAVioBaseChar@@@Z$0:
  00000	8d 8d d8 7f ff
	ff		 lea	 ecx, DWORD PTR _kPacket$548360[ebp]
  00006	e9 00 00 00 00	 jmp	 ??1SP2Packet@@UAE@XZ	; SP2Packet::~SP2Packet
__ehhandler$?SetRestartState@ioTargetTrace10Dummy@@IAEXPAVioBaseChar@@@Z:
  0000b	8b 54 24 08	 mov	 edx, DWORD PTR [esp+8]
  0000f	8d 42 0c	 lea	 eax, DWORD PTR [edx+12]
  00012	8b 8a d8 7f ff
	ff		 mov	 ecx, DWORD PTR [edx-32808]
  00018	33 c8		 xor	 ecx, eax
  0001a	e8 00 00 00 00	 call	 @__security_check_cookie@4
  0001f	8b 4a fc	 mov	 ecx, DWORD PTR [edx-4]
  00022	33 c8		 xor	 ecx, eax
  00024	e8 00 00 00 00	 call	 @__security_check_cookie@4
  00029	b8 00 00 00 00	 mov	 eax, OFFSET __ehfuncinfo$?SetRestartState@ioTargetTrace10Dummy@@IAEXPAVioBaseChar@@@Z
  0002e	e9 00 00 00 00	 jmp	 ___CxxFrameHandler3
text$x	ENDS
?SetRestartState@ioTargetTrace10Dummy@@IAEXPAVioBaseChar@@@Z ENDP ; ioTargetTrace10Dummy::SetRestartState
PUBLIC	?CheckFindTargetState@ioTargetTrace10Dummy@@IAE_NPAVioBaseChar@@@Z ; ioTargetTrace10Dummy::CheckFindTargetState
; Function compile flags: /Ogsp
;	COMDAT ?CheckFindTargetState@ioTargetTrace10Dummy@@IAE_NPAVioBaseChar@@@Z
_TEXT	SEGMENT
_value$556647 = 8					; size = 4
_pOwner$ = 8						; size = 4
?CheckFindTargetState@ioTargetTrace10Dummy@@IAE_NPAVioBaseChar@@@Z PROC ; ioTargetTrace10Dummy::CheckFindTargetState, COMDAT
; _this$ = ecx

; 494  : {

  00000	55		 push	 ebp
  00001	8b ec		 mov	 ebp, esp
  00003	56		 push	 esi
  00004	8b f1		 mov	 esi, ecx

; 495  : 	if ( !pOwner || !pOwner->IsNeedProcess() )

  00006	8b 4d 08	 mov	 ecx, DWORD PTR _pOwner$[ebp]
  00009	85 c9		 test	 ecx, ecx
  0000b	74 38		 je	 SHORT $LN2@CheckFindT
  0000d	8b 01		 mov	 eax, DWORD PTR [ecx]
  0000f	ff 90 00 01 00
	00		 call	 DWORD PTR [eax+256]
  00015	84 c0		 test	 al, al
  00017	74 2c		 je	 SHORT $LN2@CheckFindT

; 497  : 
; 498  : 	if( m_fCurMoveRange >= m_fDelayMoveRange )

  00019	8d 45 08	 lea	 eax, DWORD PTR _value$556647[ebp]
  0001c	50		 push	 eax
  0001d	8d 8e f8 0f 00
	00		 lea	 ecx, DWORD PTR [esi+4088]
  00023	e8 00 00 00 00	 call	 ?DecryptValueToPool@?$CEncrypt@M@@QAEXPAM@Z ; CEncrypt<float>::DecryptValueToPool
  00028	f3 0f 10 86 28
	10 00 00	 movss	 xmm0, DWORD PTR [esi+4136]
  00030	f3 0f 10 4d 08	 movss	 xmm1, DWORD PTR _value$556647[ebp]
  00035	0f 5a c0	 cvtps2pd xmm0, xmm0
  00038	0f 5a c9	 cvtps2pd xmm1, xmm1
  0003b	66 0f 2f c1	 comisd	 xmm0, xmm1
  0003f	72 04		 jb	 SHORT $LN2@CheckFindT

; 499  : 		return true;

  00041	b0 01		 mov	 al, 1
  00043	eb 02		 jmp	 SHORT $LN4@CheckFindT
$LN2@CheckFindT:

; 496  : 		return false;

  00045	32 c0		 xor	 al, al
$LN4@CheckFindT:
  00047	5e		 pop	 esi

; 500  : 
; 501  : 	return false;
; 502  : }

  00048	5d		 pop	 ebp
  00049	c2 04 00	 ret	 4
?CheckFindTargetState@ioTargetTrace10Dummy@@IAE_NPAVioBaseChar@@@Z ENDP ; ioTargetTrace10Dummy::CheckFindTargetState
_TEXT	ENDS
PUBLIC	??0?$vector@PAVioBaseChar@@V?$allocator@PAVioBaseChar@@@std@@@std@@QAE@XZ ; std::vector<ioBaseChar *,std::allocator<ioBaseChar *> >::vector<ioBaseChar *,std::allocator<ioBaseChar *> >
; Function compile flags: /Ogsp
; File c:\program files (x86)\microsoft visual studio 10.0\vc\include\vector
;	COMDAT ??0?$vector@PAVioBaseChar@@V?$allocator@PAVioBaseChar@@@std@@@std@@QAE@XZ
_TEXT	SEGMENT
??0?$vector@PAVioBaseChar@@V?$allocator@PAVioBaseChar@@@std@@@std@@QAE@XZ PROC ; std::vector<ioBaseChar *,std::allocator<ioBaseChar *> >::vector<ioBaseChar *,std::allocator<ioBaseChar *> >, COMDAT
; _this$ = ecx

; 507  : 		{	// construct empty vector

  00000	8b c1		 mov	 eax, ecx
  00002	33 c9		 xor	 ecx, ecx
  00004	89 08		 mov	 DWORD PTR [eax], ecx
  00006	89 48 04	 mov	 DWORD PTR [eax+4], ecx
  00009	89 48 08	 mov	 DWORD PTR [eax+8], ecx

; 508  : 		}

  0000c	c3		 ret	 0
??0?$vector@PAVioBaseChar@@V?$allocator@PAVioBaseChar@@@std@@@std@@QAE@XZ ENDP ; std::vector<ioBaseChar *,std::allocator<ioBaseChar *> >::vector<ioBaseChar *,std::allocator<ioBaseChar *> >
_TEXT	ENDS
PUBLIC	?begin@?$vector@PAVioBaseChar@@V?$allocator@PAVioBaseChar@@@std@@@std@@QAE?AV?$_Vector_iterator@V?$_Vector_val@PAVioBaseChar@@V?$allocator@PAVioBaseChar@@@std@@@std@@@2@XZ ; std::vector<ioBaseChar *,std::allocator<ioBaseChar *> >::begin
; Function compile flags: /Ogsp
;	COMDAT ?begin@?$vector@PAVioBaseChar@@V?$allocator@PAVioBaseChar@@@std@@@std@@QAE?AV?$_Vector_iterator@V?$_Vector_val@PAVioBaseChar@@V?$allocator@PAVioBaseChar@@@std@@@std@@@2@XZ
_TEXT	SEGMENT
___$ReturnUdt$ = 8					; size = 4
?begin@?$vector@PAVioBaseChar@@V?$allocator@PAVioBaseChar@@@std@@@std@@QAE?AV?$_Vector_iterator@V?$_Vector_val@PAVioBaseChar@@V?$allocator@PAVioBaseChar@@@std@@@std@@@2@XZ PROC ; std::vector<ioBaseChar *,std::allocator<ioBaseChar *> >::begin, COMDAT
; _this$ = ecx

; 781  : 		{	// return iterator for beginning of mutable sequence

  00000	55		 push	 ebp
  00001	8b ec		 mov	 ebp, esp

; 782  : 		return (iterator(this->_Myfirst, this));

  00003	8b 09		 mov	 ecx, DWORD PTR [ecx]
  00005	8b 45 08	 mov	 eax, DWORD PTR ___$ReturnUdt$[ebp]
  00008	89 08		 mov	 DWORD PTR [eax], ecx

; 783  : 		}

  0000a	5d		 pop	 ebp
  0000b	c2 04 00	 ret	 4
?begin@?$vector@PAVioBaseChar@@V?$allocator@PAVioBaseChar@@@std@@@std@@QAE?AV?$_Vector_iterator@V?$_Vector_val@PAVioBaseChar@@V?$allocator@PAVioBaseChar@@@std@@@std@@@2@XZ ENDP ; std::vector<ioBaseChar *,std::allocator<ioBaseChar *> >::begin
_TEXT	ENDS
PUBLIC	?end@?$vector@PAVioBaseChar@@V?$allocator@PAVioBaseChar@@@std@@@std@@QAE?AV?$_Vector_iterator@V?$_Vector_val@PAVioBaseChar@@V?$allocator@PAVioBaseChar@@@std@@@std@@@2@XZ ; std::vector<ioBaseChar *,std::allocator<ioBaseChar *> >::end
; Function compile flags: /Ogsp
;	COMDAT ?end@?$vector@PAVioBaseChar@@V?$allocator@PAVioBaseChar@@@std@@@std@@QAE?AV?$_Vector_iterator@V?$_Vector_val@PAVioBaseChar@@V?$allocator@PAVioBaseChar@@@std@@@std@@@2@XZ
_TEXT	SEGMENT
___$ReturnUdt$ = 8					; size = 4
?end@?$vector@PAVioBaseChar@@V?$allocator@PAVioBaseChar@@@std@@@std@@QAE?AV?$_Vector_iterator@V?$_Vector_val@PAVioBaseChar@@V?$allocator@PAVioBaseChar@@@std@@@std@@@2@XZ PROC ; std::vector<ioBaseChar *,std::allocator<ioBaseChar *> >::end, COMDAT
; _this$ = ecx

; 791  : 		{	// return iterator for end of mutable sequence

  00000	55		 push	 ebp
  00001	8b ec		 mov	 ebp, esp

; 792  : 		return (iterator(this->_Mylast, this));

  00003	8b 49 04	 mov	 ecx, DWORD PTR [ecx+4]
  00006	8b 45 08	 mov	 eax, DWORD PTR ___$ReturnUdt$[ebp]
  00009	89 08		 mov	 DWORD PTR [eax], ecx

; 793  : 		}

  0000b	5d		 pop	 ebp
  0000c	c2 04 00	 ret	 4
?end@?$vector@PAVioBaseChar@@V?$allocator@PAVioBaseChar@@@std@@@std@@QAE?AV?$_Vector_iterator@V?$_Vector_val@PAVioBaseChar@@V?$allocator@PAVioBaseChar@@@std@@@std@@@2@XZ ENDP ; std::vector<ioBaseChar *,std::allocator<ioBaseChar *> >::end
_TEXT	ENDS
PUBLIC	??0?$vector@UtagBaseCharDistanceSq@@V?$allocator@UtagBaseCharDistanceSq@@@std@@@std@@QAE@XZ ; std::vector<tagBaseCharDistanceSq,std::allocator<tagBaseCharDistanceSq> >::vector<tagBaseCharDistanceSq,std::allocator<tagBaseCharDistanceSq> >
; Function compile flags: /Ogsp
;	COMDAT ??0?$vector@UtagBaseCharDistanceSq@@V?$allocator@UtagBaseCharDistanceSq@@@std@@@std@@QAE@XZ
_TEXT	SEGMENT
??0?$vector@UtagBaseCharDistanceSq@@V?$allocator@UtagBaseCharDistanceSq@@@std@@@std@@QAE@XZ PROC ; std::vector<tagBaseCharDistanceSq,std::allocator<tagBaseCharDistanceSq> >::vector<tagBaseCharDistanceSq,std::allocator<tagBaseCharDistanceSq> >, COMDAT
; _this$ = ecx

; 507  : 		{	// construct empty vector

  00000	8b c1		 mov	 eax, ecx
  00002	33 c9		 xor	 ecx, ecx
  00004	89 08		 mov	 DWORD PTR [eax], ecx
  00006	89 48 04	 mov	 DWORD PTR [eax+4], ecx
  00009	89 48 08	 mov	 DWORD PTR [eax+8], ecx

; 508  : 		}

  0000c	c3		 ret	 0
??0?$vector@UtagBaseCharDistanceSq@@V?$allocator@UtagBaseCharDistanceSq@@@std@@@std@@QAE@XZ ENDP ; std::vector<tagBaseCharDistanceSq,std::allocator<tagBaseCharDistanceSq> >::vector<tagBaseCharDistanceSq,std::allocator<tagBaseCharDistanceSq> >
_TEXT	ENDS
PUBLIC	?begin@?$vector@UtagBaseCharDistanceSq@@V?$allocator@UtagBaseCharDistanceSq@@@std@@@std@@QAE?AV?$_Vector_iterator@V?$_Vector_val@UtagBaseCharDistanceSq@@V?$allocator@UtagBaseCharDistanceSq@@@std@@@std@@@2@XZ ; std::vector<tagBaseCharDistanceSq,std::allocator<tagBaseCharDistanceSq> >::begin
; Function compile flags: /Ogsp
;	COMDAT ?begin@?$vector@UtagBaseCharDistanceSq@@V?$allocator@UtagBaseCharDistanceSq@@@std@@@std@@QAE?AV?$_Vector_iterator@V?$_Vector_val@UtagBaseCharDistanceSq@@V?$allocator@UtagBaseCharDistanceSq@@@std@@@std@@@2@XZ
_TEXT	SEGMENT
___$ReturnUdt$ = 8					; size = 4
?begin@?$vector@UtagBaseCharDistanceSq@@V?$allocator@UtagBaseCharDistanceSq@@@std@@@std@@QAE?AV?$_Vector_iterator@V?$_Vector_val@UtagBaseCharDistanceSq@@V?$allocator@UtagBaseCharDistanceSq@@@std@@@std@@@2@XZ PROC ; std::vector<tagBaseCharDistanceSq,std::allocator<tagBaseCharDistanceSq> >::begin, COMDAT
; _this$ = ecx

; 781  : 		{	// return iterator for beginning of mutable sequence

  00000	55		 push	 ebp
  00001	8b ec		 mov	 ebp, esp

; 782  : 		return (iterator(this->_Myfirst, this));

  00003	8b 09		 mov	 ecx, DWORD PTR [ecx]
  00005	8b 45 08	 mov	 eax, DWORD PTR ___$ReturnUdt$[ebp]
  00008	89 08		 mov	 DWORD PTR [eax], ecx

; 783  : 		}

  0000a	5d		 pop	 ebp
  0000b	c2 04 00	 ret	 4
?begin@?$vector@UtagBaseCharDistanceSq@@V?$allocator@UtagBaseCharDistanceSq@@@std@@@std@@QAE?AV?$_Vector_iterator@V?$_Vector_val@UtagBaseCharDistanceSq@@V?$allocator@UtagBaseCharDistanceSq@@@std@@@std@@@2@XZ ENDP ; std::vector<tagBaseCharDistanceSq,std::allocator<tagBaseCharDistanceSq> >::begin
_TEXT	ENDS
PUBLIC	?end@?$vector@UtagBaseCharDistanceSq@@V?$allocator@UtagBaseCharDistanceSq@@@std@@@std@@QAE?AV?$_Vector_iterator@V?$_Vector_val@UtagBaseCharDistanceSq@@V?$allocator@UtagBaseCharDistanceSq@@@std@@@std@@@2@XZ ; std::vector<tagBaseCharDistanceSq,std::allocator<tagBaseCharDistanceSq> >::end
; Function compile flags: /Ogsp
;	COMDAT ?end@?$vector@UtagBaseCharDistanceSq@@V?$allocator@UtagBaseCharDistanceSq@@@std@@@std@@QAE?AV?$_Vector_iterator@V?$_Vector_val@UtagBaseCharDistanceSq@@V?$allocator@UtagBaseCharDistanceSq@@@std@@@std@@@2@XZ
_TEXT	SEGMENT
___$ReturnUdt$ = 8					; size = 4
?end@?$vector@UtagBaseCharDistanceSq@@V?$allocator@UtagBaseCharDistanceSq@@@std@@@std@@QAE?AV?$_Vector_iterator@V?$_Vector_val@UtagBaseCharDistanceSq@@V?$allocator@UtagBaseCharDistanceSq@@@std@@@std@@@2@XZ PROC ; std::vector<tagBaseCharDistanceSq,std::allocator<tagBaseCharDistanceSq> >::end, COMDAT
; _this$ = ecx

; 791  : 		{	// return iterator for end of mutable sequence

  00000	55		 push	 ebp
  00001	8b ec		 mov	 ebp, esp

; 792  : 		return (iterator(this->_Mylast, this));

  00003	8b 49 04	 mov	 ecx, DWORD PTR [ecx+4]
  00006	8b 45 08	 mov	 eax, DWORD PTR ___$ReturnUdt$[ebp]
  00009	89 08		 mov	 DWORD PTR [eax], ecx

; 793  : 		}

  0000b	5d		 pop	 ebp
  0000c	c2 04 00	 ret	 4
?end@?$vector@UtagBaseCharDistanceSq@@V?$allocator@UtagBaseCharDistanceSq@@@std@@@std@@QAE?AV?$_Vector_iterator@V?$_Vector_val@UtagBaseCharDistanceSq@@V?$allocator@UtagBaseCharDistanceSq@@@std@@@std@@@2@XZ ENDP ; std::vector<tagBaseCharDistanceSq,std::allocator<tagBaseCharDistanceSq> >::end
_TEXT	ENDS
PUBLIC	??9?$_Vector_const_iterator@V?$_Vector_val@PAVioBaseChar@@V?$allocator@PAVioBaseChar@@@std@@@std@@@std@@QBE_NABV01@@Z ; std::_Vector_const_iterator<std::_Vector_val<ioBaseChar *,std::allocator<ioBaseChar *> > >::operator!=
; Function compile flags: /Ogsp
;	COMDAT ??9?$_Vector_const_iterator@V?$_Vector_val@PAVioBaseChar@@V?$allocator@PAVioBaseChar@@@std@@@std@@@std@@QBE_NABV01@@Z
_TEXT	SEGMENT
__Right$ = 8						; size = 4
??9?$_Vector_const_iterator@V?$_Vector_val@PAVioBaseChar@@V?$allocator@PAVioBaseChar@@@std@@@std@@@std@@QBE_NABV01@@Z PROC ; std::_Vector_const_iterator<std::_Vector_val<ioBaseChar *,std::allocator<ioBaseChar *> > >::operator!=, COMDAT
; _this$ = ecx

; 207  : 		{	// test for iterator inequality

  00000	55		 push	 ebp
  00001	8b ec		 mov	 ebp, esp

; 208  : 		return (!(*this == _Right));

  00003	8b 01		 mov	 eax, DWORD PTR [ecx]
  00005	8b 55 08	 mov	 edx, DWORD PTR __Right$[ebp]
  00008	33 c9		 xor	 ecx, ecx
  0000a	3b 02		 cmp	 eax, DWORD PTR [edx]
  0000c	0f 95 c0	 setne	 al

; 209  : 		}

  0000f	5d		 pop	 ebp
  00010	c2 04 00	 ret	 4
??9?$_Vector_const_iterator@V?$_Vector_val@PAVioBaseChar@@V?$allocator@PAVioBaseChar@@@std@@@std@@@std@@QBE_NABV01@@Z ENDP ; std::_Vector_const_iterator<std::_Vector_val<ioBaseChar *,std::allocator<ioBaseChar *> > >::operator!=
_TEXT	ENDS
PUBLIC	?_Destroy@?$vector@PAVioBaseChar@@V?$allocator@PAVioBaseChar@@@std@@@std@@IAEXPAPAVioBaseChar@@0@Z ; std::vector<ioBaseChar *,std::allocator<ioBaseChar *> >::_Destroy
; Function compile flags: /Ogsp
;	COMDAT ?_Destroy@?$vector@PAVioBaseChar@@V?$allocator@PAVioBaseChar@@@std@@@std@@IAEXPAPAVioBaseChar@@0@Z
_TEXT	SEGMENT
__First$ = 8						; size = 4
__Last$ = 12						; size = 4
?_Destroy@?$vector@PAVioBaseChar@@V?$allocator@PAVioBaseChar@@@std@@@std@@IAEXPAPAVioBaseChar@@0@Z PROC ; std::vector<ioBaseChar *,std::allocator<ioBaseChar *> >::_Destroy, COMDAT
; _this$ = ecx

; 1270 : 		_Destroy_range(_First, _Last, this->_Alval);
; 1271 : 		}

  00000	c2 08 00	 ret	 8
?_Destroy@?$vector@PAVioBaseChar@@V?$allocator@PAVioBaseChar@@@std@@@std@@IAEXPAPAVioBaseChar@@0@Z ENDP ; std::vector<ioBaseChar *,std::allocator<ioBaseChar *> >::_Destroy
_TEXT	ENDS
PUBLIC	??$_Cons_val@V?$allocator@UtagBaseCharDistanceSq@@@std@@UtagBaseCharDistanceSq@@AAU3@@std@@YAXAAV?$allocator@UtagBaseCharDistanceSq@@@0@PAUtagBaseCharDistanceSq@@AAU2@@Z ; std::_Cons_val<std::allocator<tagBaseCharDistanceSq>,tagBaseCharDistanceSq,tagBaseCharDistanceSq &>
;	COMDAT xdata$x
; File c:\program files (x86)\microsoft visual studio 10.0\vc\include\utility
xdata$x	SEGMENT
__unwindtable$??$_Cons_val@V?$allocator@UtagBaseCharDistanceSq@@@std@@UtagBaseCharDistanceSq@@AAU3@@std@@YAXAAV?$allocator@UtagBaseCharDistanceSq@@@0@PAUtagBaseCharDistanceSq@@AAU2@@Z DD 0ffffffffH
	DD	FLAT:__unwindfunclet$??$_Cons_val@V?$allocator@UtagBaseCharDistanceSq@@@std@@UtagBaseCharDistanceSq@@AAU3@@std@@YAXAAV?$allocator@UtagBaseCharDistanceSq@@@0@PAUtagBaseCharDistanceSq@@AAU2@@Z$0
__ehfuncinfo$??$_Cons_val@V?$allocator@UtagBaseCharDistanceSq@@@std@@UtagBaseCharDistanceSq@@AAU3@@std@@YAXAAV?$allocator@UtagBaseCharDistanceSq@@@0@PAUtagBaseCharDistanceSq@@AAU2@@Z DD 019930522H
	DD	01H
	DD	FLAT:__unwindtable$??$_Cons_val@V?$allocator@UtagBaseCharDistanceSq@@@std@@UtagBaseCharDistanceSq@@AAU3@@std@@YAXAAV?$allocator@UtagBaseCharDistanceSq@@@0@PAUtagBaseCharDistanceSq@@AAU2@@Z
	DD	2 DUP(00H)
	DD	2 DUP(00H)
	DD	00H
	DD	01H
; Function compile flags: /Ogsp
; File c:\program files (x86)\microsoft visual studio 10.0\vc\include\xmemory
xdata$x	ENDS
;	COMDAT ??$_Cons_val@V?$allocator@UtagBaseCharDistanceSq@@@std@@UtagBaseCharDistanceSq@@AAU3@@std@@YAXAAV?$allocator@UtagBaseCharDistanceSq@@@0@PAUtagBaseCharDistanceSq@@AAU2@@Z
_TEXT	SEGMENT
$T556804 = -16						; size = 4
__$EHRec$ = -12						; size = 12
__Alval$ = 8						; size = 4
__Pdest$ = 12						; size = 4
__Src$ = 16						; size = 4
??$_Cons_val@V?$allocator@UtagBaseCharDistanceSq@@@std@@UtagBaseCharDistanceSq@@AAU3@@std@@YAXAAV?$allocator@UtagBaseCharDistanceSq@@@0@PAUtagBaseCharDistanceSq@@AAU2@@Z PROC ; std::_Cons_val<std::allocator<tagBaseCharDistanceSq>,tagBaseCharDistanceSq,tagBaseCharDistanceSq &>, COMDAT

; 279  : 	{	// construct using allocator

  00000	6a 04		 push	 4
  00002	b8 00 00 00 00	 mov	 eax, __ehhandler$??$_Cons_val@V?$allocator@UtagBaseCharDistanceSq@@@std@@UtagBaseCharDistanceSq@@AAU3@@std@@YAXAAV?$allocator@UtagBaseCharDistanceSq@@@0@PAUtagBaseCharDistanceSq@@AAU2@@Z
  00007	e8 00 00 00 00	 call	 __EH_prolog3

; 280  : 	_Alval.construct(_Pdest, _STD forward<_Ty2>(_Src));

  0000c	8b 4d 0c	 mov	 ecx, DWORD PTR __Pdest$[ebp]
  0000f	89 4d f0	 mov	 DWORD PTR $T556804[ebp], ecx
  00012	83 65 fc 00	 and	 DWORD PTR __$EHRec$[ebp+8], 0
  00016	85 c9		 test	 ecx, ecx
  00018	74 08		 je	 SHORT $LN7@Cons_val
  0001a	ff 75 10	 push	 DWORD PTR __Src$[ebp]
  0001d	e8 00 00 00 00	 call	 ??0tagBaseCharDistanceSq@@QAE@ABU0@@Z
$LN7@Cons_val:

; 281  : 	}

  00022	e8 00 00 00 00	 call	 __EH_epilog3
  00027	c3		 ret	 0
_TEXT	ENDS
;	COMDAT text$x
text$x	SEGMENT
__unwindfunclet$??$_Cons_val@V?$allocator@UtagBaseCharDistanceSq@@@std@@UtagBaseCharDistanceSq@@AAU3@@std@@YAXAAV?$allocator@UtagBaseCharDistanceSq@@@0@PAUtagBaseCharDistanceSq@@AAU2@@Z$0:
  00000	ff 75 0c	 push	 DWORD PTR __Pdest$[ebp]
  00003	ff 75 f0	 push	 DWORD PTR $T556804[ebp]
  00006	e8 00 00 00 00	 call	 ??3@YAXPAX0@Z		; operator delete
  0000b	59		 pop	 ecx
  0000c	59		 pop	 ecx
  0000d	c3		 ret	 0
__ehhandler$??$_Cons_val@V?$allocator@UtagBaseCharDistanceSq@@@std@@UtagBaseCharDistanceSq@@AAU3@@std@@YAXAAV?$allocator@UtagBaseCharDistanceSq@@@0@PAUtagBaseCharDistanceSq@@AAU2@@Z:
  0000e	8b 54 24 08	 mov	 edx, DWORD PTR [esp+8]
  00012	8d 42 0c	 lea	 eax, DWORD PTR [edx+12]
  00015	8b 4a ec	 mov	 ecx, DWORD PTR [edx-20]
  00018	33 c8		 xor	 ecx, eax
  0001a	e8 00 00 00 00	 call	 @__security_check_cookie@4
  0001f	b8 00 00 00 00	 mov	 eax, OFFSET __ehfuncinfo$??$_Cons_val@V?$allocator@UtagBaseCharDistanceSq@@@std@@UtagBaseCharDistanceSq@@AAU3@@std@@YAXAAV?$allocator@UtagBaseCharDistanceSq@@@0@PAUtagBaseCharDistanceSq@@AAU2@@Z
  00024	e9 00 00 00 00	 jmp	 ___CxxFrameHandler3
text$x	ENDS
??$_Cons_val@V?$allocator@UtagBaseCharDistanceSq@@@std@@UtagBaseCharDistanceSq@@AAU3@@std@@YAXAAV?$allocator@UtagBaseCharDistanceSq@@@0@PAUtagBaseCharDistanceSq@@AAU2@@Z ENDP ; std::_Cons_val<std::allocator<tagBaseCharDistanceSq>,tagBaseCharDistanceSq,tagBaseCharDistanceSq &>
PUBLIC	?construct@?$allocator@UtagBaseCharDistanceSq@@@std@@QAEXPAUtagBaseCharDistanceSq@@ABU3@@Z ; std::allocator<tagBaseCharDistanceSq>::construct
; Function compile flags: /Ogsp
;	COMDAT ?construct@?$allocator@UtagBaseCharDistanceSq@@@std@@QAEXPAUtagBaseCharDistanceSq@@ABU3@@Z
_TEXT	SEGMENT
__Ptr$ = 8						; size = 4
__Val$ = 12						; size = 4
?construct@?$allocator@UtagBaseCharDistanceSq@@@std@@QAEXPAUtagBaseCharDistanceSq@@ABU3@@Z PROC ; std::allocator<tagBaseCharDistanceSq>::construct, COMDAT
; _this$ = ecx

; 196  : 		{	// construct object at _Ptr with value _Val

  00000	55		 push	 ebp
  00001	8b ec		 mov	 ebp, esp

; 197  : 		_Construct(_Ptr, _Val);

  00003	ff 75 0c	 push	 DWORD PTR __Val$[ebp]
  00006	ff 75 08	 push	 DWORD PTR __Ptr$[ebp]
  00009	e8 00 00 00 00	 call	 ??$_Construct@UtagBaseCharDistanceSq@@ABU1@@std@@YAXPAUtagBaseCharDistanceSq@@ABU1@@Z ; std::_Construct<tagBaseCharDistanceSq,tagBaseCharDistanceSq const &>
  0000e	59		 pop	 ecx
  0000f	59		 pop	 ecx

; 198  : 		}

  00010	5d		 pop	 ebp
  00011	c2 08 00	 ret	 8
?construct@?$allocator@UtagBaseCharDistanceSq@@@std@@QAEXPAUtagBaseCharDistanceSq@@ABU3@@Z ENDP ; std::allocator<tagBaseCharDistanceSq>::construct
_TEXT	ENDS
PUBLIC	??G?$_Vector_iterator@V?$_Vector_val@UtagBaseCharDistanceSq@@V?$allocator@UtagBaseCharDistanceSq@@@std@@@std@@@std@@QBEHABV?$_Vector_const_iterator@V?$_Vector_val@UtagBaseCharDistanceSq@@V?$allocator@UtagBaseCharDistanceSq@@@std@@@std@@@1@@Z ; std::_Vector_iterator<std::_Vector_val<tagBaseCharDistanceSq,std::allocator<tagBaseCharDistanceSq> > >::operator-
; Function compile flags: /Ogsp
; File c:\program files (x86)\microsoft visual studio 10.0\vc\include\vector
;	COMDAT ??G?$_Vector_iterator@V?$_Vector_val@UtagBaseCharDistanceSq@@V?$allocator@UtagBaseCharDistanceSq@@@std@@@std@@@std@@QBEHABV?$_Vector_const_iterator@V?$_Vector_val@UtagBaseCharDistanceSq@@V?$allocator@UtagBaseCharDistanceSq@@@std@@@std@@@1@@Z
_TEXT	SEGMENT
__Right$ = 8						; size = 4
??G?$_Vector_iterator@V?$_Vector_val@UtagBaseCharDistanceSq@@V?$allocator@UtagBaseCharDistanceSq@@@std@@@std@@@std@@QBEHABV?$_Vector_const_iterator@V?$_Vector_val@UtagBaseCharDistanceSq@@V?$allocator@UtagBaseCharDistanceSq@@@std@@@std@@@1@@Z PROC ; std::_Vector_iterator<std::_Vector_val<tagBaseCharDistanceSq,std::allocator<tagBaseCharDistanceSq> > >::operator-, COMDAT
; _this$ = ecx

; 380  : 		{	// return difference of iterators

  00000	55		 push	 ebp
  00001	8b ec		 mov	 ebp, esp

; 381  : 		return (*(_Mybase *)this - _Right);

  00003	8b 01		 mov	 eax, DWORD PTR [ecx]
  00005	8b 4d 08	 mov	 ecx, DWORD PTR __Right$[ebp]
  00008	2b 01		 sub	 eax, DWORD PTR [ecx]
  0000a	c1 f8 05	 sar	 eax, 5

; 382  : 		}

  0000d	5d		 pop	 ebp
  0000e	c2 04 00	 ret	 4
??G?$_Vector_iterator@V?$_Vector_val@UtagBaseCharDistanceSq@@V?$allocator@UtagBaseCharDistanceSq@@@std@@@std@@@std@@QBEHABV?$_Vector_const_iterator@V?$_Vector_val@UtagBaseCharDistanceSq@@V?$allocator@UtagBaseCharDistanceSq@@@std@@@std@@@1@@Z ENDP ; std::_Vector_iterator<std::_Vector_val<tagBaseCharDistanceSq,std::allocator<tagBaseCharDistanceSq> > >::operator-
_TEXT	ENDS
PUBLIC	?destroy@?$allocator@UtagBaseCharDistanceSq@@@std@@QAEXPAUtagBaseCharDistanceSq@@@Z ; std::allocator<tagBaseCharDistanceSq>::destroy
; Function compile flags: /Ogsp
; File c:\program files (x86)\microsoft visual studio 10.0\vc\include\xmemory
;	COMDAT ?destroy@?$allocator@UtagBaseCharDistanceSq@@@std@@QAEXPAUtagBaseCharDistanceSq@@@Z
_TEXT	SEGMENT
__Ptr$ = 8						; size = 4
?destroy@?$allocator@UtagBaseCharDistanceSq@@@std@@QAEXPAUtagBaseCharDistanceSq@@@Z PROC ; std::allocator<tagBaseCharDistanceSq>::destroy, COMDAT
; _this$ = ecx

; 212  : 		{	// destroy object at _Ptr

  00000	55		 push	 ebp
  00001	8b ec		 mov	 ebp, esp

; 213  : 		_Destroy(_Ptr);

  00003	8b 4d 08	 mov	 ecx, DWORD PTR __Ptr$[ebp]
  00006	ff 15 00 00 00
	00		 call	 DWORD PTR __imp_??1ioHashString@@QAE@XZ

; 214  : 		}

  0000c	5d		 pop	 ebp
  0000d	c2 04 00	 ret	 4
?destroy@?$allocator@UtagBaseCharDistanceSq@@@std@@QAEXPAUtagBaseCharDistanceSq@@@Z ENDP ; std::allocator<tagBaseCharDistanceSq>::destroy
_TEXT	ENDS
PUBLIC	??$iter_swap@PAUtagBaseCharDistanceSq@@PAU1@@std@@YAXPAUtagBaseCharDistanceSq@@0@Z ; std::iter_swap<tagBaseCharDistanceSq *,tagBaseCharDistanceSq *>
; Function compile flags: /Ogsp
; File c:\program files (x86)\microsoft visual studio 10.0\vc\include\xutility
;	COMDAT ??$iter_swap@PAUtagBaseCharDistanceSq@@PAU1@@std@@YAXPAUtagBaseCharDistanceSq@@0@Z
_TEXT	SEGMENT
__Left$ = 8						; size = 4
__Right$ = 12						; size = 4
??$iter_swap@PAUtagBaseCharDistanceSq@@PAU1@@std@@YAXPAUtagBaseCharDistanceSq@@0@Z PROC ; std::iter_swap<tagBaseCharDistanceSq *,tagBaseCharDistanceSq *>, COMDAT

; 2133 : 	{	// swap *_Left and *_Right

  00000	55		 push	 ebp
  00001	8b ec		 mov	 ebp, esp

; 2135 : 	}

  00003	5d		 pop	 ebp

; 2134 : 	swap(*_Left, *_Right);

  00004	e9 00 00 00 00	 jmp	 ??$swap@UtagBaseCharDistanceSq@@@std@@YAXAAUtagBaseCharDistanceSq@@0@Z ; std::swap<tagBaseCharDistanceSq>
??$iter_swap@PAUtagBaseCharDistanceSq@@PAU1@@std@@YAXPAUtagBaseCharDistanceSq@@0@Z ENDP ; std::iter_swap<tagBaseCharDistanceSq *,tagBaseCharDistanceSq *>
_TEXT	ENDS
PUBLIC	??$_Cons_val@V?$allocator@UtagBaseCharDistanceSq@@@std@@UtagBaseCharDistanceSq@@U3@@std@@YAXAAV?$allocator@UtagBaseCharDistanceSq@@@0@PAUtagBaseCharDistanceSq@@$$QAU2@@Z ; std::_Cons_val<std::allocator<tagBaseCharDistanceSq>,tagBaseCharDistanceSq,tagBaseCharDistanceSq>
;	COMDAT xdata$x
; File c:\program files (x86)\microsoft visual studio 10.0\vc\include\utility
xdata$x	SEGMENT
__unwindtable$??$_Cons_val@V?$allocator@UtagBaseCharDistanceSq@@@std@@UtagBaseCharDistanceSq@@U3@@std@@YAXAAV?$allocator@UtagBaseCharDistanceSq@@@0@PAUtagBaseCharDistanceSq@@$$QAU2@@Z DD 0ffffffffH
	DD	FLAT:__unwindfunclet$??$_Cons_val@V?$allocator@UtagBaseCharDistanceSq@@@std@@UtagBaseCharDistanceSq@@U3@@std@@YAXAAV?$allocator@UtagBaseCharDistanceSq@@@0@PAUtagBaseCharDistanceSq@@$$QAU2@@Z$0
__ehfuncinfo$??$_Cons_val@V?$allocator@UtagBaseCharDistanceSq@@@std@@UtagBaseCharDistanceSq@@U3@@std@@YAXAAV?$allocator@UtagBaseCharDistanceSq@@@0@PAUtagBaseCharDistanceSq@@$$QAU2@@Z DD 019930522H
	DD	01H
	DD	FLAT:__unwindtable$??$_Cons_val@V?$allocator@UtagBaseCharDistanceSq@@@std@@UtagBaseCharDistanceSq@@U3@@std@@YAXAAV?$allocator@UtagBaseCharDistanceSq@@@0@PAUtagBaseCharDistanceSq@@$$QAU2@@Z
	DD	2 DUP(00H)
	DD	2 DUP(00H)
	DD	00H
	DD	01H
; Function compile flags: /Ogsp
; File c:\program files (x86)\microsoft visual studio 10.0\vc\include\xmemory
xdata$x	ENDS
;	COMDAT ??$_Cons_val@V?$allocator@UtagBaseCharDistanceSq@@@std@@UtagBaseCharDistanceSq@@U3@@std@@YAXAAV?$allocator@UtagBaseCharDistanceSq@@@0@PAUtagBaseCharDistanceSq@@$$QAU2@@Z
_TEXT	SEGMENT
$T556873 = -16						; size = 4
__$EHRec$ = -12						; size = 12
__Alval$ = 8						; size = 4
__Pdest$ = 12						; size = 4
__Src$ = 16						; size = 4
??$_Cons_val@V?$allocator@UtagBaseCharDistanceSq@@@std@@UtagBaseCharDistanceSq@@U3@@std@@YAXAAV?$allocator@UtagBaseCharDistanceSq@@@0@PAUtagBaseCharDistanceSq@@$$QAU2@@Z PROC ; std::_Cons_val<std::allocator<tagBaseCharDistanceSq>,tagBaseCharDistanceSq,tagBaseCharDistanceSq>, COMDAT

; 279  : 	{	// construct using allocator

  00000	6a 04		 push	 4
  00002	b8 00 00 00 00	 mov	 eax, __ehhandler$??$_Cons_val@V?$allocator@UtagBaseCharDistanceSq@@@std@@UtagBaseCharDistanceSq@@U3@@std@@YAXAAV?$allocator@UtagBaseCharDistanceSq@@@0@PAUtagBaseCharDistanceSq@@$$QAU2@@Z
  00007	e8 00 00 00 00	 call	 __EH_prolog3

; 280  : 	_Alval.construct(_Pdest, _STD forward<_Ty2>(_Src));

  0000c	8b 4d 0c	 mov	 ecx, DWORD PTR __Pdest$[ebp]
  0000f	89 4d f0	 mov	 DWORD PTR $T556873[ebp], ecx
  00012	83 65 fc 00	 and	 DWORD PTR __$EHRec$[ebp+8], 0
  00016	85 c9		 test	 ecx, ecx
  00018	74 08		 je	 SHORT $LN7@Cons_val@2
  0001a	ff 75 10	 push	 DWORD PTR __Src$[ebp]
  0001d	e8 00 00 00 00	 call	 ??0tagBaseCharDistanceSq@@QAE@ABU0@@Z
$LN7@Cons_val@2:

; 281  : 	}

  00022	e8 00 00 00 00	 call	 __EH_epilog3
  00027	c3		 ret	 0
_TEXT	ENDS
;	COMDAT text$x
text$x	SEGMENT
__unwindfunclet$??$_Cons_val@V?$allocator@UtagBaseCharDistanceSq@@@std@@UtagBaseCharDistanceSq@@U3@@std@@YAXAAV?$allocator@UtagBaseCharDistanceSq@@@0@PAUtagBaseCharDistanceSq@@$$QAU2@@Z$0:
  00000	ff 75 0c	 push	 DWORD PTR __Pdest$[ebp]
  00003	ff 75 f0	 push	 DWORD PTR $T556873[ebp]
  00006	e8 00 00 00 00	 call	 ??3@YAXPAX0@Z		; operator delete
  0000b	59		 pop	 ecx
  0000c	59		 pop	 ecx
  0000d	c3		 ret	 0
__ehhandler$??$_Cons_val@V?$allocator@UtagBaseCharDistanceSq@@@std@@UtagBaseCharDistanceSq@@U3@@std@@YAXAAV?$allocator@UtagBaseCharDistanceSq@@@0@PAUtagBaseCharDistanceSq@@$$QAU2@@Z:
  0000e	8b 54 24 08	 mov	 edx, DWORD PTR [esp+8]
  00012	8d 42 0c	 lea	 eax, DWORD PTR [edx+12]
  00015	8b 4a ec	 mov	 ecx, DWORD PTR [edx-20]
  00018	33 c8		 xor	 ecx, eax
  0001a	e8 00 00 00 00	 call	 @__security_check_cookie@4
  0001f	b8 00 00 00 00	 mov	 eax, OFFSET __ehfuncinfo$??$_Cons_val@V?$allocator@UtagBaseCharDistanceSq@@@std@@UtagBaseCharDistanceSq@@U3@@std@@YAXAAV?$allocator@UtagBaseCharDistanceSq@@@0@PAUtagBaseCharDistanceSq@@$$QAU2@@Z
  00024	e9 00 00 00 00	 jmp	 ___CxxFrameHandler3
text$x	ENDS
??$_Cons_val@V?$allocator@UtagBaseCharDistanceSq@@@std@@UtagBaseCharDistanceSq@@U3@@std@@YAXAAV?$allocator@UtagBaseCharDistanceSq@@@0@PAUtagBaseCharDistanceSq@@$$QAU2@@Z ENDP ; std::_Cons_val<std::allocator<tagBaseCharDistanceSq>,tagBaseCharDistanceSq,tagBaseCharDistanceSq>
PUBLIC	??$_Med3@PAUtagBaseCharDistanceSq@@VBaseCharDistanceSqSort2@@@std@@YAXPAUtagBaseCharDistanceSq@@00VBaseCharDistanceSqSort2@@@Z ; std::_Med3<tagBaseCharDistanceSq *,BaseCharDistanceSqSort2>
; Function compile flags: /Ogsp
; File c:\program files (x86)\microsoft visual studio 10.0\vc\include\algorithm
;	COMDAT ??$_Med3@PAUtagBaseCharDistanceSq@@VBaseCharDistanceSqSort2@@@std@@YAXPAUtagBaseCharDistanceSq@@00VBaseCharDistanceSqSort2@@@Z
_TEXT	SEGMENT
__First$ = 8						; size = 4
__Mid$ = 12						; size = 4
__Last$ = 16						; size = 4
__Pred$ = 20						; size = 1
??$_Med3@PAUtagBaseCharDistanceSq@@VBaseCharDistanceSqSort2@@@std@@YAXPAUtagBaseCharDistanceSq@@00VBaseCharDistanceSqSort2@@@Z PROC ; std::_Med3<tagBaseCharDistanceSq *,BaseCharDistanceSqSort2>, COMDAT

; 3683 : 	{	// sort median of three elements to middle

  00000	55		 push	 ebp
  00001	8b ec		 mov	 ebp, esp
  00003	56		 push	 esi

; 3684 : 	if (_DEBUG_LT_PRED(_Pred, *_Mid, *_First))

  00004	8b 75 0c	 mov	 esi, DWORD PTR __Mid$[ebp]
  00007	f3 0f 10 46 10	 movss	 xmm0, DWORD PTR [esi+16]
  0000c	57		 push	 edi
  0000d	8b 7d 08	 mov	 edi, DWORD PTR __First$[ebp]
  00010	f3 0f 10 4f 10	 movss	 xmm1, DWORD PTR [edi+16]
  00015	0f 5a c0	 cvtps2pd xmm0, xmm0
  00018	0f 5a c9	 cvtps2pd xmm1, xmm1
  0001b	66 0f 2f c8	 comisd	 xmm1, xmm0
  0001f	76 09		 jbe	 SHORT $LN9@Med3

; 3685 : 		_STD iter_swap(_Mid, _First);

  00021	57		 push	 edi
  00022	56		 push	 esi
  00023	e8 00 00 00 00	 call	 ??$swap@UtagBaseCharDistanceSq@@@std@@YAXAAUtagBaseCharDistanceSq@@0@Z ; std::swap<tagBaseCharDistanceSq>
  00028	59		 pop	 ecx
  00029	59		 pop	 ecx
$LN9@Med3:

; 3686 : 	if (_DEBUG_LT_PRED(_Pred, *_Last, *_Mid))

  0002a	8b 45 10	 mov	 eax, DWORD PTR __Last$[ebp]
  0002d	f3 0f 10 40 10	 movss	 xmm0, DWORD PTR [eax+16]
  00032	f3 0f 10 4e 10	 movss	 xmm1, DWORD PTR [esi+16]
  00037	0f 5a c0	 cvtps2pd xmm0, xmm0
  0003a	0f 5a c9	 cvtps2pd xmm1, xmm1
  0003d	66 0f 2f c8	 comisd	 xmm1, xmm0
  00041	76 09		 jbe	 SHORT $LN14@Med3

; 3687 : 		_STD iter_swap(_Last, _Mid);

  00043	56		 push	 esi
  00044	50		 push	 eax
  00045	e8 00 00 00 00	 call	 ??$swap@UtagBaseCharDistanceSq@@@std@@YAXAAUtagBaseCharDistanceSq@@0@Z ; std::swap<tagBaseCharDistanceSq>
  0004a	59		 pop	 ecx
  0004b	59		 pop	 ecx
$LN14@Med3:

; 3688 : 	if (_DEBUG_LT_PRED(_Pred, *_Mid, *_First))

  0004c	f3 0f 10 46 10	 movss	 xmm0, DWORD PTR [esi+16]
  00051	f3 0f 10 4f 10	 movss	 xmm1, DWORD PTR [edi+16]
  00056	0f 5a c0	 cvtps2pd xmm0, xmm0
  00059	0f 5a c9	 cvtps2pd xmm1, xmm1
  0005c	66 0f 2f c8	 comisd	 xmm1, xmm0
  00060	76 09		 jbe	 SHORT $LN19@Med3

; 3689 : 		_STD iter_swap(_Mid, _First);

  00062	57		 push	 edi
  00063	56		 push	 esi
  00064	e8 00 00 00 00	 call	 ??$swap@UtagBaseCharDistanceSq@@@std@@YAXAAUtagBaseCharDistanceSq@@0@Z ; std::swap<tagBaseCharDistanceSq>
  00069	59		 pop	 ecx
  0006a	59		 pop	 ecx
$LN19@Med3:
  0006b	5f		 pop	 edi
  0006c	5e		 pop	 esi

; 3690 : 	}

  0006d	5d		 pop	 ebp
  0006e	c3		 ret	 0
??$_Med3@PAUtagBaseCharDistanceSq@@VBaseCharDistanceSqSort2@@@std@@YAXPAUtagBaseCharDistanceSq@@00VBaseCharDistanceSqSort2@@@Z ENDP ; std::_Med3<tagBaseCharDistanceSq *,BaseCharDistanceSqSort2>
_TEXT	ENDS
PUBLIC	??$_Adjust_heap@PAUtagBaseCharDistanceSq@@HU1@VBaseCharDistanceSqSort2@@@std@@YAXPAUtagBaseCharDistanceSq@@HH$$QAU1@VBaseCharDistanceSqSort2@@@Z ; std::_Adjust_heap<tagBaseCharDistanceSq *,int,tagBaseCharDistanceSq,BaseCharDistanceSqSort2>
; Function compile flags: /Ogsp
;	COMDAT ??$_Adjust_heap@PAUtagBaseCharDistanceSq@@HU1@VBaseCharDistanceSqSort2@@@std@@YAXPAUtagBaseCharDistanceSq@@HH$$QAU1@VBaseCharDistanceSqSort2@@@Z
_TEXT	SEGMENT
__First$ = 8						; size = 4
__Top$ = 12						; size = 4
__Hole$ = 12						; size = 4
__Bottom$ = 16						; size = 4
__Val$ = 20						; size = 4
__Pred$ = 24						; size = 1
??$_Adjust_heap@PAUtagBaseCharDistanceSq@@HU1@VBaseCharDistanceSqSort2@@@std@@YAXPAUtagBaseCharDistanceSq@@HH$$QAU1@VBaseCharDistanceSqSort2@@@Z PROC ; std::_Adjust_heap<tagBaseCharDistanceSq *,int,tagBaseCharDistanceSq,BaseCharDistanceSqSort2>, COMDAT

; 2565 : 	{	// percolate _Hole to _Bottom, then push _Val, using _Pred

  00000	55		 push	 ebp
  00001	8b ec		 mov	 ebp, esp

; 2566 : 	_Diff _Top = _Hole;

  00003	8b 4d 0c	 mov	 ecx, DWORD PTR __Hole$[ebp]
  00006	53		 push	 ebx

; 2567 : 	_Diff _Idx = 2 * _Hole + 2;
; 2568 : 
; 2569 : 	for (; _Idx < _Bottom; _Idx = 2 * _Idx + 2)

  00007	8b 5d 10	 mov	 ebx, DWORD PTR __Bottom$[ebp]
  0000a	56		 push	 esi
  0000b	57		 push	 edi
  0000c	8b 7d 08	 mov	 edi, DWORD PTR __First$[ebp]
  0000f	89 4d 0c	 mov	 DWORD PTR __Top$[ebp], ecx
  00012	8d 74 09 02	 lea	 esi, DWORD PTR [ecx+ecx+2]
  00016	eb 36		 jmp	 SHORT $LN20@Adjust_hea
$LL5@Adjust_hea:

; 2570 : 		{	// move _Hole down to larger child
; 2571 : 		if (_DEBUG_LT_PRED(_Pred, *(_First + _Idx), *(_First + (_Idx - 1))))

  00018	8b c6		 mov	 eax, esi
  0001a	c1 e0 05	 shl	 eax, 5
  0001d	f3 0f 10 44 38
	10		 movss	 xmm0, DWORD PTR [eax+edi+16]
  00023	f3 0f 10 4c 38
	f0		 movss	 xmm1, DWORD PTR [eax+edi-16]
  00029	0f 5a c0	 cvtps2pd xmm0, xmm0
  0002c	0f 5a c9	 cvtps2pd xmm1, xmm1
  0002f	66 0f 2f c8	 comisd	 xmm1, xmm0
  00033	76 01		 jbe	 SHORT $LN2@Adjust_hea

; 2572 : 			--_Idx;

  00035	4e		 dec	 esi
$LN2@Adjust_hea:

; 2573 : 		*(_First + _Hole) = _Move(*(_First + _Idx));

  00036	8b c6		 mov	 eax, esi
  00038	c1 e0 05	 shl	 eax, 5
  0003b	03 c7		 add	 eax, edi
  0003d	c1 e1 05	 shl	 ecx, 5
  00040	50		 push	 eax
  00041	03 cf		 add	 ecx, edi
  00043	e8 00 00 00 00	 call	 ??4tagBaseCharDistanceSq@@QAEAAU0@ABU0@@Z

; 2574 : 		_Hole = _Idx;

  00048	8b ce		 mov	 ecx, esi
  0004a	8d 74 36 02	 lea	 esi, DWORD PTR [esi+esi+2]
$LN20@Adjust_hea:

; 2567 : 	_Diff _Idx = 2 * _Hole + 2;
; 2568 : 
; 2569 : 	for (; _Idx < _Bottom; _Idx = 2 * _Idx + 2)

  0004e	3b f3		 cmp	 esi, ebx
  00050	7c c6		 jl	 SHORT $LL5@Adjust_hea

; 2575 : 		}
; 2576 : 
; 2577 : 	if (_Idx == _Bottom)

  00052	75 17		 jne	 SHORT $LN1@Adjust_hea

; 2578 : 		{	// only child at bottom, move _Hole down to it
; 2579 : 		*(_First + _Hole) = _Move(*(_First + (_Bottom - 1)));

  00054	8b c3		 mov	 eax, ebx
  00056	c1 e0 05	 shl	 eax, 5
  00059	8d 44 38 e0	 lea	 eax, DWORD PTR [eax+edi-32]
  0005d	c1 e1 05	 shl	 ecx, 5
  00060	50		 push	 eax
  00061	03 cf		 add	 ecx, edi
  00063	e8 00 00 00 00	 call	 ??4tagBaseCharDistanceSq@@QAEAAU0@ABU0@@Z

; 2580 : 		_Hole = _Bottom - 1;

  00068	8d 4b ff	 lea	 ecx, DWORD PTR [ebx-1]
$LN1@Adjust_hea:

; 2581 : 		}
; 2582 : 	_Push_heap(_First, _Hole, _Top, _Move(_Val), _Pred);

  0006b	ff 75 18	 push	 DWORD PTR __Pred$[ebp]
  0006e	ff 75 14	 push	 DWORD PTR __Val$[ebp]
  00071	ff 75 0c	 push	 DWORD PTR __Top$[ebp]
  00074	51		 push	 ecx
  00075	57		 push	 edi
  00076	e8 00 00 00 00	 call	 ??$_Push_heap@PAUtagBaseCharDistanceSq@@HU1@VBaseCharDistanceSqSort2@@@std@@YAXPAUtagBaseCharDistanceSq@@HH$$QAU1@VBaseCharDistanceSqSort2@@@Z ; std::_Push_heap<tagBaseCharDistanceSq *,int,tagBaseCharDistanceSq,BaseCharDistanceSqSort2>
  0007b	83 c4 14	 add	 esp, 20			; 00000014H
  0007e	5f		 pop	 edi
  0007f	5e		 pop	 esi
  00080	5b		 pop	 ebx

; 2583 : 	}

  00081	5d		 pop	 ebp
  00082	c3		 ret	 0
??$_Adjust_heap@PAUtagBaseCharDistanceSq@@HU1@VBaseCharDistanceSqSort2@@@std@@YAXPAUtagBaseCharDistanceSq@@HH$$QAU1@VBaseCharDistanceSqSort2@@@Z ENDP ; std::_Adjust_heap<tagBaseCharDistanceSq *,int,tagBaseCharDistanceSq,BaseCharDistanceSqSort2>
_TEXT	ENDS
PUBLIC	??$_Move_backward@PAUtagBaseCharDistanceSq@@PAU1@@std@@YAPAUtagBaseCharDistanceSq@@PAU1@00@Z ; std::_Move_backward<tagBaseCharDistanceSq *,tagBaseCharDistanceSq *>
; Function compile flags: /Ogsp
; File c:\program files (x86)\microsoft visual studio 10.0\vc\include\xutility
;	COMDAT ??$_Move_backward@PAUtagBaseCharDistanceSq@@PAU1@@std@@YAPAUtagBaseCharDistanceSq@@PAU1@00@Z
_TEXT	SEGMENT
__Cat$556940 = -4					; size = 1
__First$ = 8						; size = 4
__Last$ = 12						; size = 4
__Dest$ = 16						; size = 4
??$_Move_backward@PAUtagBaseCharDistanceSq@@PAU1@@std@@YAPAUtagBaseCharDistanceSq@@PAU1@00@Z PROC ; std::_Move_backward<tagBaseCharDistanceSq *,tagBaseCharDistanceSq *>, COMDAT

; 2638 : 	{	// move [_First, _Last) backwards to [..., _Dest), unchecked

  00000	55		 push	 ebp
  00001	8b ec		 mov	 ebp, esp
  00003	51		 push	 ecx

; 2639 : 	return (_Move_backward(_First, _Last,
; 2640 : 		_Dest, _Ptr_cat(_First, _Dest)));

  00004	ff 75 fc	 push	 DWORD PTR __Cat$556940[ebp]
  00007	ff 75 10	 push	 DWORD PTR __Dest$[ebp]
  0000a	ff 75 0c	 push	 DWORD PTR __Last$[ebp]
  0000d	ff 75 08	 push	 DWORD PTR __First$[ebp]
  00010	e8 00 00 00 00	 call	 ??$_Move_backward@PAUtagBaseCharDistanceSq@@PAU1@@std@@YAPAUtagBaseCharDistanceSq@@PAU1@00U_Nonscalar_ptr_iterator_tag@0@@Z ; std::_Move_backward<tagBaseCharDistanceSq *,tagBaseCharDistanceSq *>
  00015	83 c4 10	 add	 esp, 16			; 00000010H

; 2641 : 	}

  00018	c9		 leave
  00019	c3		 ret	 0
??$_Move_backward@PAUtagBaseCharDistanceSq@@PAU1@@std@@YAPAUtagBaseCharDistanceSq@@PAU1@00@Z ENDP ; std::_Move_backward<tagBaseCharDistanceSq *,tagBaseCharDistanceSq *>
_TEXT	ENDS
PUBLIC	??$_Pop_heap@PAUtagBaseCharDistanceSq@@HU1@VBaseCharDistanceSqSort2@@@std@@YAXPAUtagBaseCharDistanceSq@@00$$QAU1@VBaseCharDistanceSqSort2@@PAH@Z ; std::_Pop_heap<tagBaseCharDistanceSq *,int,tagBaseCharDistanceSq,BaseCharDistanceSqSort2>
; Function compile flags: /Ogsp
; File c:\program files (x86)\microsoft visual studio 10.0\vc\include\algorithm
;	COMDAT ??$_Pop_heap@PAUtagBaseCharDistanceSq@@HU1@VBaseCharDistanceSqSort2@@@std@@YAXPAUtagBaseCharDistanceSq@@00$$QAU1@VBaseCharDistanceSqSort2@@PAH@Z
_TEXT	SEGMENT
__First$ = 8						; size = 4
__Last$ = 12						; size = 4
__Dest$ = 16						; size = 4
__Val$ = 20						; size = 4
__Pred$ = 24						; size = 1
___formal$ = 28						; size = 4
??$_Pop_heap@PAUtagBaseCharDistanceSq@@HU1@VBaseCharDistanceSqSort2@@@std@@YAXPAUtagBaseCharDistanceSq@@00$$QAU1@VBaseCharDistanceSqSort2@@PAH@Z PROC ; std::_Pop_heap<tagBaseCharDistanceSq *,int,tagBaseCharDistanceSq,BaseCharDistanceSqSort2>, COMDAT

; 2591 : 	{	// pop *_First to *_Dest and reheap, using _Pred

  00000	55		 push	 ebp
  00001	8b ec		 mov	 ebp, esp

; 2592 : 	*_Dest = _Move(*_First);

  00003	ff 75 08	 push	 DWORD PTR __First$[ebp]
  00006	8b 4d 10	 mov	 ecx, DWORD PTR __Dest$[ebp]
  00009	e8 00 00 00 00	 call	 ??4tagBaseCharDistanceSq@@QAEAAU0@ABU0@@Z

; 2593 : 	_Adjust_heap(_First, _Diff(0), _Diff(_Last - _First),
; 2594 : 		_Move(_Val), _Pred);

  0000e	ff 75 18	 push	 DWORD PTR __Pred$[ebp]
  00011	8b 45 0c	 mov	 eax, DWORD PTR __Last$[ebp]
  00014	2b 45 08	 sub	 eax, DWORD PTR __First$[ebp]
  00017	ff 75 14	 push	 DWORD PTR __Val$[ebp]
  0001a	c1 f8 05	 sar	 eax, 5
  0001d	50		 push	 eax
  0001e	6a 00		 push	 0
  00020	ff 75 08	 push	 DWORD PTR __First$[ebp]
  00023	e8 00 00 00 00	 call	 ??$_Adjust_heap@PAUtagBaseCharDistanceSq@@HU1@VBaseCharDistanceSqSort2@@@std@@YAXPAUtagBaseCharDistanceSq@@HH$$QAU1@VBaseCharDistanceSqSort2@@@Z ; std::_Adjust_heap<tagBaseCharDistanceSq *,int,tagBaseCharDistanceSq,BaseCharDistanceSqSort2>
  00028	83 c4 14	 add	 esp, 20			; 00000014H

; 2595 : 	}

  0002b	5d		 pop	 ebp
  0002c	c3		 ret	 0
??$_Pop_heap@PAUtagBaseCharDistanceSq@@HU1@VBaseCharDistanceSqSort2@@@std@@YAXPAUtagBaseCharDistanceSq@@00$$QAU1@VBaseCharDistanceSqSort2@@PAH@Z ENDP ; std::_Pop_heap<tagBaseCharDistanceSq *,int,tagBaseCharDistanceSq,BaseCharDistanceSqSort2>
; Function compile flags: /Ogsp
; File d:\lost saga for developer\youtube\tutorial\source\src\lsclient\ioplayentity.h
_TEXT	ENDS
;	COMDAT ?SetTeam@ioPlayEntity@@UAEXW4TeamType@@@Z
_TEXT	SEGMENT
_value$556955 = 8					; size = 4
_eType$ = 8						; size = 4
?SetTeam@ioPlayEntity@@UAEXW4TeamType@@@Z PROC		; ioPlayEntity::SetTeam, COMDAT
; _this$ = ecx

; 106  : 	virtual void SetTeam( TeamType eType ) { m_TeamType = eType; }

  00000	55		 push	 ebp
  00001	8b ec		 mov	 ebp, esp
  00003	8b 45 08	 mov	 eax, DWORD PTR _eType$[ebp]
  00006	89 45 08	 mov	 DWORD PTR _value$556955[ebp], eax
  00009	8d 45 08	 lea	 eax, DWORD PTR _value$556955[ebp]
  0000c	50		 push	 eax
  0000d	81 c1 90 00 00
	00		 add	 ecx, 144		; 00000090H
  00013	e8 00 00 00 00	 call	 ?EncryptValueToPool@?$CEncrypt@W4TeamType@@@@AAEXPBD@Z ; CEncrypt<enum TeamType>::EncryptValueToPool
  00018	5d		 pop	 ebp
  00019	c2 04 00	 ret	 4
?SetTeam@ioPlayEntity@@UAEXW4TeamType@@@Z ENDP		; ioPlayEntity::SetTeam
_TEXT	ENDS
PUBLIC	?GetTeam@ioPlayEntity@@QBE?AW4TeamType@@XZ	; ioPlayEntity::GetTeam
; Function compile flags: /Ogsp
;	COMDAT ?GetTeam@ioPlayEntity@@QBE?AW4TeamType@@XZ
_TEXT	SEGMENT
_value$556961 = -4					; size = 4
?GetTeam@ioPlayEntity@@QBE?AW4TeamType@@XZ PROC		; ioPlayEntity::GetTeam, COMDAT
; _this$ = ecx

; 107  : 	inline TeamType GetTeam() const { return m_TeamType; }

  00000	55		 push	 ebp
  00001	8b ec		 mov	 ebp, esp
  00003	51		 push	 ecx
  00004	8d 45 fc	 lea	 eax, DWORD PTR _value$556961[ebp]
  00007	50		 push	 eax
  00008	81 c1 90 00 00
	00		 add	 ecx, 144		; 00000090H
  0000e	e8 00 00 00 00	 call	 ?DecryptValueToPool@?$CEncrypt@W4TeamType@@@@QAEXPAW4TeamType@@@Z ; CEncrypt<enum TeamType>::DecryptValueToPool
  00013	8b 45 fc	 mov	 eax, DWORD PTR _value$556961[ebp]
  00016	c9		 leave
  00017	c3		 ret	 0
?GetTeam@ioPlayEntity@@QBE?AW4TeamType@@XZ ENDP		; ioPlayEntity::GetTeam
_TEXT	ENDS
PUBLIC	?IsNoWoundedWeapon@ioWeapon@@QBE_NXZ		; ioWeapon::IsNoWoundedWeapon
; Function compile flags: /Ogsp
; File d:\lost saga for developer\youtube\tutorial\source\src\lsclient\ioweapon.h
;	COMDAT ?IsNoWoundedWeapon@ioWeapon@@QBE_NXZ
_TEXT	SEGMENT
_value$556967 = -1					; size = 1
?IsNoWoundedWeapon@ioWeapon@@QBE_NXZ PROC		; ioWeapon::IsNoWoundedWeapon, COMDAT
; _this$ = ecx

; 552  : 	inline bool IsNoWoundedWeapon() const { return m_bNoWoundedWeapon; }

  00000	55		 push	 ebp
  00001	8b ec		 mov	 ebp, esp
  00003	51		 push	 ecx
  00004	8d 45 ff	 lea	 eax, DWORD PTR _value$556967[ebp]
  00007	50		 push	 eax
  00008	81 c1 a0 06 00
	00		 add	 ecx, 1696		; 000006a0H
  0000e	e8 00 00 00 00	 call	 ?DecryptValueToPool@?$CEncrypt@_N@@QAEXPA_N@Z ; CEncrypt<bool>::DecryptValueToPool
  00013	8a 45 ff	 mov	 al, BYTE PTR _value$556967[ebp]
  00016	c9		 leave
  00017	c3		 ret	 0
?IsNoWoundedWeapon@ioWeapon@@QBE_NXZ ENDP		; ioWeapon::IsNoWoundedWeapon
_TEXT	ENDS
PUBLIC	__real@3fe0000000000000
PUBLIC	??_C@_0CI@IACIOAIO@ioDummyChar?3?3ApplyWeapon?5?9?5?$CFs?5No@ ; `string'
EXTRN	?CheckEntityCollision@ioDummyCharManager@@QAEXPAVioBaseChar@@PAVioPlayEntity@@H@Z:PROC ; ioDummyCharManager::CheckEntityCollision
EXTRN	?GetSingleton@ioDummyCharManager@@SAAAV1@XZ:PROC ; ioDummyCharManager::GetSingleton
EXTRN	?SetActionStopDuration@ioWeapon@@QAEXKM@Z:PROC	; ioWeapon::SetActionStopDuration
EXTRN	?CalcActionStopDelay@ioBaseChar@@SAKM_N@Z:PROC	; ioBaseChar::CalcActionStopDelay
EXTRN	?GetActionStopLooseRate@ioBaseChar@@SAM_N@Z:PROC ; ioBaseChar::GetActionStopLooseRate
EXTRN	?SetActionStopDelay@ioBaseChar@@QAEXM_NH@Z:PROC	; ioBaseChar::SetActionStopDelay
EXTRN	?GetShakeCamera@ioWeapon@@QBEHXZ:PROC		; ioWeapon::GetShakeCamera
EXTRN	?SetDisableAttackEmoticon@ioBaseGUISupport@@QAEXXZ:PROC ; ioBaseGUISupport::SetDisableAttackEmoticon
EXTRN	?ReverseReflectPush@ioBaseChar@@QAEXABUD3DXVECTOR3@@M@Z:PROC ; ioBaseChar::ReverseReflectPush
EXTRN	?AddNewBuff@ioBaseChar@@QAEPAVioBuff@@ABVioHashString@@00PAVioSkill@@_N@Z:PROC ; ioBaseChar::AddNewBuff
EXTRN	?IgnoreBlock@ioBaseChar@@QAE_NXZ:PROC		; ioBaseChar::IgnoreBlock
EXTRN	?IsChangeJumpping@ioWeapon@@QAE_N_N0@Z:PROC	; ioWeapon::IsChangeJumpping
EXTRN	?IsEnableAttackCancelState@ioBaseChar@@QAE_NXZ:PROC ; ioBaseChar::IsEnableAttackCancelState
EXTRN	__imp_?PrintTimeAndLog@CLog@@QAAXHPADZZ:PROC
EXTRN	__imp_?LOG@@3VCLog@@A:BYTE
EXTRN	__imp_?c_str@ioHashString@@QBEPBDXZ:PROC
EXTRN	?GetOwner@ioWeapon@@QBEPAVioBaseChar@@XZ:PROC	; ioWeapon::GetOwner
;	COMDAT __real@3fe0000000000000
CONST	SEGMENT
__real@3fe0000000000000 DQ 03fe0000000000000r	; 0.5
CONST	ENDS
;	COMDAT ??_C@_0CI@IACIOAIO@ioDummyChar?3?3ApplyWeapon?5?9?5?$CFs?5No@
CONST	SEGMENT
??_C@_0CI@IACIOAIO@ioDummyChar?3?3ApplyWeapon?5?9?5?$CFs?5No@ DB 'ioDummy'
	DB	'Char::ApplyWeapon - %s Not Exist', 00H	; `string'
CONST	ENDS
;	COMDAT xdata$x
xdata$x	SEGMENT
__unwindtable$?ApplyWeapon@ioTargetTrace10Dummy@@UAE?AW4ApplyWeaponExp@@PAVioWeapon@@@Z DD 0ffffffffH
	DD	FLAT:__unwindfunclet$?ApplyWeapon@ioTargetTrace10Dummy@@UAE?AW4ApplyWeaponExp@@PAVioWeapon@@@Z$0
	DD	00H
	DD	FLAT:__unwindfunclet$?ApplyWeapon@ioTargetTrace10Dummy@@UAE?AW4ApplyWeaponExp@@PAVioWeapon@@@Z$1
__ehfuncinfo$?ApplyWeapon@ioTargetTrace10Dummy@@UAE?AW4ApplyWeaponExp@@PAVioWeapon@@@Z DD 019930522H
	DD	02H
	DD	FLAT:__unwindtable$?ApplyWeapon@ioTargetTrace10Dummy@@UAE?AW4ApplyWeaponExp@@PAVioWeapon@@@Z
	DD	2 DUP(00H)
	DD	2 DUP(00H)
	DD	00H
	DD	01H
; Function compile flags: /Ogsp
; File d:\lost saga for developer\youtube\tutorial\source\src\lsclient\iotargettrace10dummy.cpp
xdata$x	ENDS
;	COMDAT ?ApplyWeapon@ioTargetTrace10Dummy@@UAE?AW4ApplyWeaponExp@@PAVioWeapon@@@Z
_TEXT	SEGMENT
$T556973 = -84						; size = 16
$T556974 = -68						; size = 16
_value$557036 = -52					; size = 4
_value$557030 = -48					; size = 4
_fPushPower$ = -48					; size = 4
_value$557011 = -44					; size = 4
_value$556998 = -44					; size = 4
_fDamage$ = -40						; size = 4
_pAttacker$ = -36					; size = 4
_value$557007 = -29					; size = 1
_value$557003 = -29					; size = 1
_value$556990 = -29					; size = 1
_bContactType$ = -29					; size = 1
_vAttackDir$ = -28					; size = 12
__$EHRec$ = -12						; size = 12
_pWeapon$ = 8						; size = 4
?ApplyWeapon@ioTargetTrace10Dummy@@UAE?AW4ApplyWeaponExp@@PAVioWeapon@@@Z PROC ; ioTargetTrace10Dummy::ApplyWeapon, COMDAT
; _this$ = ecx

; 227  : {

  00000	6a 48		 push	 72			; 00000048H
  00002	b8 00 00 00 00	 mov	 eax, __ehhandler$?ApplyWeapon@ioTargetTrace10Dummy@@UAE?AW4ApplyWeaponExp@@PAVioWeapon@@@Z
  00007	e8 00 00 00 00	 call	 __EH_prolog3_GS
  0000c	8b 75 08	 mov	 esi, DWORD PTR _pWeapon$[ebp]
  0000f	8b f9		 mov	 edi, ecx

; 228  : 	ioBaseChar *pAttacker = pWeapon->GetOwner();

  00011	8b ce		 mov	 ecx, esi
  00013	e8 00 00 00 00	 call	 ?GetOwner@ioWeapon@@QBEPAVioBaseChar@@XZ ; ioWeapon::GetOwner
  00018	89 45 dc	 mov	 DWORD PTR _pAttacker$[ebp], eax

; 229  : 	if( !pAttacker )

  0001b	85 c0		 test	 eax, eax
  0001d	75 25		 jne	 SHORT $LN14@ApplyWeapo

; 230  : 	{
; 231  : 		LOG.PrintTimeAndLog( 0, "ioDummyChar::ApplyWeapon - %s Not Exist", pWeapon->GetOwnerName().c_str() );

  0001f	8d 4e 10	 lea	 ecx, DWORD PTR [esi+16]
  00022	ff 15 00 00 00
	00		 call	 DWORD PTR __imp_?c_str@ioHashString@@QBEPBDXZ
  00028	50		 push	 eax
  00029	68 00 00 00 00	 push	 OFFSET ??_C@_0CI@IACIOAIO@ioDummyChar?3?3ApplyWeapon?5?9?5?$CFs?5No@
  0002e	6a 00		 push	 0
  00030	ff 35 00 00 00
	00		 push	 DWORD PTR __imp_?LOG@@3VCLog@@A
  00036	ff 15 00 00 00
	00		 call	 DWORD PTR __imp_?PrintTimeAndLog@CLog@@QAAXHPADZZ
  0003c	83 c4 10	 add	 esp, 16			; 00000010H

; 232  : 		return AWE_EXPLOSION;

  0003f	e9 d1 02 00 00	 jmp	 $LN53@ApplyWeapo
$LN14@ApplyWeapo:

; 233  : 	}
; 234  : 
; 235  : 	if( pWeapon->IsNoWoundedWeapon() )

  00044	8d 45 e3	 lea	 eax, DWORD PTR _value$556990[ebp]
  00047	8d 8e a0 06 00
	00		 lea	 ecx, DWORD PTR [esi+1696]
  0004d	50		 push	 eax
  0004e	e8 00 00 00 00	 call	 ?DecryptValueToPool@?$CEncrypt@_N@@QAEXPA_N@Z ; CEncrypt<bool>::DecryptValueToPool
  00053	80 7d e3 00	 cmp	 BYTE PTR _value$556990[ebp], 0
  00057	74 07		 je	 SHORT $LN13@ApplyWeapo

; 236  : 		return AWE_NO_EXPLOSION;

  00059	33 c0		 xor	 eax, eax
  0005b	e9 b8 02 00 00	 jmp	 $LN15@ApplyWeapo
$LN13@ApplyWeapo:

; 237  : 
; 238  : 	m_LastAttacker = pWeapon->GetOwnerName();

  00060	8d 46 10	 lea	 eax, DWORD PTR [esi+16]
  00063	50		 push	 eax
  00064	8d 8f 30 05 00
	00		 lea	 ecx, DWORD PTR [edi+1328]
  0006a	ff 15 00 00 00
	00		 call	 DWORD PTR __imp_??4ioHashString@@QAEAAV0@ABV0@@Z

; 239  : 
; 240  : 	float fDamage = pWeapon->GetDamage( this ) * m_fDamageRate;

  00070	8d 45 d4	 lea	 eax, DWORD PTR _value$556998[ebp]
  00073	50		 push	 eax
  00074	8d 8f d0 04 00
	00		 lea	 ecx, DWORD PTR [edi+1232]
  0007a	e8 00 00 00 00	 call	 ?DecryptValueToPool@?$CEncrypt@M@@QAEXPAM@Z ; CEncrypt<float>::DecryptValueToPool
  0007f	8b 06		 mov	 eax, DWORD PTR [esi]
  00081	57		 push	 edi
  00082	8b ce		 mov	 ecx, esi
  00084	ff 90 d4 00 00
	00		 call	 DWORD PTR [eax+212]
  0008a	d8 4d d4	 fmul	 DWORD PTR _value$556998[ebp]

; 241  : 	float fPushPower = pWeapon->GetDefensePushPower( fDamage );

  0008d	8b 06		 mov	 eax, DWORD PTR [esi]
  0008f	51		 push	 ecx
  00090	d9 5d d8	 fstp	 DWORD PTR _fDamage$[ebp]
  00093	8b ce		 mov	 ecx, esi
  00095	f3 0f 10 45 d8	 movss	 xmm0, DWORD PTR _fDamage$[ebp]
  0009a	f3 0f 11 04 24	 movss	 DWORD PTR [esp], xmm0
  0009f	ff 90 88 00 00
	00		 call	 DWORD PTR [eax+136]
  000a5	d9 5d d0	 fstp	 DWORD PTR _fPushPower$[ebp]

; 242  : 
; 243  : 	if( !m_bNoDamage && !m_bPiercingProtected )

  000a8	8d 45 e3	 lea	 eax, DWORD PTR _value$557003[ebp]
  000ab	50		 push	 eax
  000ac	8d 8f 80 03 00
	00		 lea	 ecx, DWORD PTR [edi+896]
  000b2	e8 00 00 00 00	 call	 ?DecryptValueToPool@?$CEncrypt@_N@@QAEXPA_N@Z ; CEncrypt<bool>::DecryptValueToPool
  000b7	80 7d e3 00	 cmp	 BYTE PTR _value$557003[ebp], 0
  000bb	75 4e		 jne	 SHORT $LN33@ApplyWeapo
  000bd	8d 45 e3	 lea	 eax, DWORD PTR _value$557007[ebp]
  000c0	50		 push	 eax
  000c1	8d 8f 70 04 00
	00		 lea	 ecx, DWORD PTR [edi+1136]
  000c7	e8 00 00 00 00	 call	 ?DecryptValueToPool@?$CEncrypt@_N@@QAEXPA_N@Z ; CEncrypt<bool>::DecryptValueToPool
  000cc	80 7d e3 00	 cmp	 BYTE PTR _value$557007[ebp], 0
  000d0	75 39		 jne	 SHORT $LN33@ApplyWeapo

; 244  : 		m_HP.m_fCurValue -= fDamage;

  000d2	8d 45 d4	 lea	 eax, DWORD PTR _value$557011[ebp]
  000d5	8d 9f c0 00 00
	00		 lea	 ebx, DWORD PTR [edi+192]
  000db	50		 push	 eax
  000dc	8b cb		 mov	 ecx, ebx
  000de	e8 00 00 00 00	 call	 ?DecryptValueToPool@?$CEncrypt@M@@QAEXPAM@Z ; CEncrypt<float>::DecryptValueToPool
  000e3	f3 0f 10 45 d4	 movss	 xmm0, DWORD PTR _value$557011[ebp]
  000e8	f3 0f 10 4d d8	 movss	 xmm1, DWORD PTR _fDamage$[ebp]
  000ed	0f 5a c0	 cvtps2pd xmm0, xmm0
  000f0	0f 5a c9	 cvtps2pd xmm1, xmm1
  000f3	8d 45 d4	 lea	 eax, DWORD PTR _value$557011[ebp]
  000f6	f2 0f 5c c1	 subsd	 xmm0, xmm1
  000fa	66 0f 5a c0	 cvtpd2ps xmm0, xmm0
  000fe	50		 push	 eax
  000ff	8b cb		 mov	 ecx, ebx
  00101	f3 0f 11 45 d4	 movss	 DWORD PTR _value$557011[ebp], xmm0
  00106	e8 00 00 00 00	 call	 ?EncryptValueToPool@?$CEncrypt@M@@AAEXPBD@Z ; CEncrypt<float>::EncryptValueToPool
$LN33@ApplyWeapo:

; 245  : 	AddHeadDamageInfo( (int)fDamage );

  0010b	f3 0f 2c 4d d8	 cvttss2si ecx, DWORD PTR _fDamage$[ebp]
  00110	8b 07		 mov	 eax, DWORD PTR [edi]
  00112	6a 00		 push	 0
  00114	51		 push	 ecx
  00115	8b cf		 mov	 ecx, edi
  00117	ff 90 d0 00 00
	00		 call	 DWORD PTR [eax+208]

; 246  : 
; 247  : 	bool bContactType = false;
; 248  : 	if( pWeapon->GetType() == ioWeapon::WT_CONTACT ||
; 249  : 		pWeapon->GetType() == ioWeapon::WT_RUN_CONTACT ||
; 250  : 		pWeapon->GetType() == ioWeapon::WT_CONTACT2 )

  0011d	8b 06		 mov	 eax, DWORD PTR [esi]
  0011f	8b ce		 mov	 ecx, esi
  00121	c6 45 e3 00	 mov	 BYTE PTR _bContactType$[ebp], 0
  00125	ff 90 10 01 00
	00		 call	 DWORD PTR [eax+272]
  0012b	83 f8 01	 cmp	 eax, 1
  0012e	74 1e		 je	 SHORT $LN10@ApplyWeapo
  00130	8b 06		 mov	 eax, DWORD PTR [esi]
  00132	8b ce		 mov	 ecx, esi
  00134	ff 90 10 01 00
	00		 call	 DWORD PTR [eax+272]
  0013a	83 f8 1e	 cmp	 eax, 30			; 0000001eH
  0013d	74 0f		 je	 SHORT $LN10@ApplyWeapo
  0013f	8b 06		 mov	 eax, DWORD PTR [esi]
  00141	8b ce		 mov	 ecx, esi
  00143	ff 90 10 01 00
	00		 call	 DWORD PTR [eax+272]
  00149	83 f8 2b	 cmp	 eax, 43			; 0000002bH
  0014c	75 04		 jne	 SHORT $LN11@ApplyWeapo
$LN10@ApplyWeapo:

; 251  : 		bContactType = true;

  0014e	c6 45 e3 01	 mov	 BYTE PTR _bContactType$[ebp], 1
$LN11@ApplyWeapo:

; 252  : 
; 253  : 	bool bStructWeapon = false;

  00152	32 db		 xor	 bl, bl

; 254  : 	if( pWeapon->CheckWeaponByStruct() || pWeapon->CheckWeaponByDummyChar() )

  00154	38 9e 8c 05 00
	00		 cmp	 BYTE PTR [esi+1420], bl
  0015a	75 08		 jne	 SHORT $LN8@ApplyWeapo
  0015c	38 9e 9c 05 00
	00		 cmp	 BYTE PTR [esi+1436], bl
  00162	74 02		 je	 SHORT $LN9@ApplyWeapo
$LN8@ApplyWeapo:

; 255  : 		bStructWeapon = true;

  00164	b3 01		 mov	 bl, 1
$LN9@ApplyWeapo:

; 256  : 
; 257  : 	D3DXVECTOR3 vAttackDir = pWeapon->GetAttackDir(this);

  00166	8b 06		 mov	 eax, DWORD PTR [esi]
  00168	57		 push	 edi
  00169	8d 4d e4	 lea	 ecx, DWORD PTR _vAttackDir$[ebp]
  0016c	51		 push	 ecx
  0016d	8b ce		 mov	 ecx, esi
  0016f	ff 90 fc 00 00
	00		 call	 DWORD PTR [eax+252]

; 258  : 
; 259  : 	if( bContactType && !bStructWeapon && !pWeapon->CheckWeaponBySkill() && !m_BlockBuff.IsEmpty() )

  00175	80 7d e3 00	 cmp	 BYTE PTR _bContactType$[ebp], 0
  00179	0f 84 d2 00 00
	00		 je	 $LN6@ApplyWeapo
  0017f	84 db		 test	 bl, bl
  00181	0f 85 ca 00 00
	00		 jne	 $LN6@ApplyWeapo
  00187	38 9e 7e 05 00
	00		 cmp	 BYTE PTR [esi+1406], bl
  0018d	0f 85 be 00 00
	00		 jne	 $LN6@ApplyWeapo
  00193	8d 8f b0 02 00
	00		 lea	 ecx, DWORD PTR [edi+688]
  00199	ff 15 00 00 00
	00		 call	 DWORD PTR __imp_?IsEmpty@ioHashString@@QBE_NXZ
  0019f	84 c0		 test	 al, al
  001a1	0f 85 aa 00 00
	00		 jne	 $LN6@ApplyWeapo

; 260  : 	{
; 261  : 		if( pAttacker->IsEnableAttackCancelState() && !pWeapon->IsChangeJumpping( false, false )
; 262  : 			&& !pAttacker->IgnoreBlock() )

  001a7	8b 4d dc	 mov	 ecx, DWORD PTR _pAttacker$[ebp]
  001aa	e8 00 00 00 00	 call	 ?IsEnableAttackCancelState@ioBaseChar@@QAE_NXZ ; ioBaseChar::IsEnableAttackCancelState
  001af	84 c0		 test	 al, al
  001b1	0f 84 9a 00 00
	00		 je	 $LN6@ApplyWeapo
  001b7	6a 00		 push	 0
  001b9	6a 00		 push	 0
  001bb	8b ce		 mov	 ecx, esi
  001bd	e8 00 00 00 00	 call	 ?IsChangeJumpping@ioWeapon@@QAE_N_N0@Z ; ioWeapon::IsChangeJumpping
  001c2	84 c0		 test	 al, al
  001c4	0f 85 87 00 00
	00		 jne	 $LN6@ApplyWeapo
  001ca	8b 4d dc	 mov	 ecx, DWORD PTR _pAttacker$[ebp]
  001cd	e8 00 00 00 00	 call	 ?IgnoreBlock@ioBaseChar@@QAE_NXZ ; ioBaseChar::IgnoreBlock
  001d2	84 c0		 test	 al, al
  001d4	75 7b		 jne	 SHORT $LN6@ApplyWeapo

; 263  : 		{
; 264  : 			pAttacker->AddNewBuff( m_BlockBuff, "", "", NULL );

  001d6	8b 1d 00 00 00
	00		 mov	 ebx, DWORD PTR __imp_??0ioHashString@@QAE@PBD@Z
  001dc	68 00 00 00 00	 push	 OFFSET ??_C@_00CNPNBAHC@?$AA@
  001e1	8d 4d ac	 lea	 ecx, DWORD PTR $T556973[ebp]
  001e4	ff d3		 call	 ebx
  001e6	83 65 fc 00	 and	 DWORD PTR __$EHRec$[ebp+8], 0
  001ea	68 00 00 00 00	 push	 OFFSET ??_C@_00CNPNBAHC@?$AA@
  001ef	8d 4d bc	 lea	 ecx, DWORD PTR $T556974[ebp]
  001f2	ff d3		 call	 ebx
  001f4	8b 4d dc	 mov	 ecx, DWORD PTR _pAttacker$[ebp]
  001f7	6a 00		 push	 0
  001f9	6a 00		 push	 0
  001fb	8d 45 ac	 lea	 eax, DWORD PTR $T556973[ebp]
  001fe	50		 push	 eax
  001ff	8d 45 bc	 lea	 eax, DWORD PTR $T556974[ebp]
  00202	50		 push	 eax
  00203	8d 87 b0 02 00
	00		 lea	 eax, DWORD PTR [edi+688]
  00209	50		 push	 eax
  0020a	c6 45 fc 01	 mov	 BYTE PTR __$EHRec$[ebp+8], 1
  0020e	e8 00 00 00 00	 call	 ?AddNewBuff@ioBaseChar@@QAEPAVioBuff@@ABVioHashString@@00PAVioSkill@@_N@Z ; ioBaseChar::AddNewBuff
  00213	8b 1d 00 00 00
	00		 mov	 ebx, DWORD PTR __imp_??1ioHashString@@QAE@XZ
  00219	8d 4d bc	 lea	 ecx, DWORD PTR $T556974[ebp]
  0021c	c6 45 fc 00	 mov	 BYTE PTR __$EHRec$[ebp+8], 0
  00220	ff d3		 call	 ebx
  00222	83 4d fc ff	 or	 DWORD PTR __$EHRec$[ebp+8], -1
  00226	8d 4d ac	 lea	 ecx, DWORD PTR $T556973[ebp]
  00229	ff d3		 call	 ebx

; 265  : 			pAttacker->ReverseReflectPush( vAttackDir, fPushPower * 0.5f );

  0022b	f3 0f 10 45 d0	 movss	 xmm0, DWORD PTR _fPushPower$[ebp]
  00230	0f 5a c0	 cvtps2pd xmm0, xmm0
  00233	f2 0f 59 05 00
	00 00 00	 mulsd	 xmm0, QWORD PTR __real@3fe0000000000000
  0023b	51		 push	 ecx
  0023c	8b 4d dc	 mov	 ecx, DWORD PTR _pAttacker$[ebp]
  0023f	66 0f 5a c0	 cvtpd2ps xmm0, xmm0
  00243	8d 45 e4	 lea	 eax, DWORD PTR _vAttackDir$[ebp]
  00246	f3 0f 11 04 24	 movss	 DWORD PTR [esp], xmm0
  0024b	50		 push	 eax
  0024c	e8 00 00 00 00	 call	 ?ReverseReflectPush@ioBaseChar@@QAEXABUD3DXVECTOR3@@M@Z ; ioBaseChar::ReverseReflectPush
$LN6@ApplyWeapo:

; 266  : 		}
; 267  : 	}
; 268  : 
; 269  : 	if( !m_BlockBuff.IsEmpty() )

  00251	8d 8f b0 02 00
	00		 lea	 ecx, DWORD PTR [edi+688]
  00257	ff 15 00 00 00
	00		 call	 DWORD PTR __imp_?IsEmpty@ioHashString@@QBE_NXZ
  0025d	84 c0		 test	 al, al
  0025f	75 0e		 jne	 SHORT $LN5@ApplyWeapo

; 270  : 		pAttacker->SetDisableAttackEmoticon();

  00261	8b 4d dc	 mov	 ecx, DWORD PTR _pAttacker$[ebp]
  00264	81 c1 cc 01 00
	00		 add	 ecx, 460		; 000001ccH
  0026a	e8 00 00 00 00	 call	 ?SetDisableAttackEmoticon@ioBaseGUISupport@@QAEXXZ ; ioBaseGUISupport::SetDisableAttackEmoticon
$LN5@ApplyWeapo:

; 271  : 
; 272  : 	int iShakeCamera = pWeapon->GetShakeCamera();

  0026f	8b ce		 mov	 ecx, esi
  00271	e8 00 00 00 00	 call	 ?GetShakeCamera@ioWeapon@@QBEHXZ ; ioWeapon::GetShakeCamera
  00276	8b d8		 mov	 ebx, eax

; 273  : 	ActionStopType eActionStop = pWeapon->GetActionStopType();

  00278	8b 06		 mov	 eax, DWORD PTR [esi]
  0027a	8b ce		 mov	 ecx, esi
  0027c	ff 90 14 01 00
	00		 call	 DWORD PTR [eax+276]

; 274  : 
; 275  : 	if( eActionStop == AST_BOTH || eActionStop == AST_ATTACKER )

  00282	83 f8 01	 cmp	 eax, 1
  00285	74 05		 je	 SHORT $LN3@ApplyWeapo
  00287	83 f8 02	 cmp	 eax, 2
  0028a	75 3b		 jne	 SHORT $LN4@ApplyWeapo
$LN3@ApplyWeapo:

; 276  : 	{
; 277  : 		pAttacker->SetActionStopDelay( fDamage, false, iShakeCamera );

  0028c	f3 0f 10 45 d8	 movss	 xmm0, DWORD PTR _fDamage$[ebp]
  00291	53		 push	 ebx
  00292	33 db		 xor	 ebx, ebx
  00294	53		 push	 ebx
  00295	51		 push	 ecx
  00296	8b 4d dc	 mov	 ecx, DWORD PTR _pAttacker$[ebp]
  00299	f3 0f 11 04 24	 movss	 DWORD PTR [esp], xmm0
  0029e	e8 00 00 00 00	 call	 ?SetActionStopDelay@ioBaseChar@@QAEXM_NH@Z ; ioBaseChar::SetActionStopDelay

; 278  : 		pWeapon->SetActionStopDuration( ioBaseChar::CalcActionStopDelay( fDamage, false ),
; 279  : 			ioBaseChar::GetActionStopLooseRate( false ) );

  002a3	53		 push	 ebx
  002a4	e8 00 00 00 00	 call	 ?GetActionStopLooseRate@ioBaseChar@@SAM_N@Z ; ioBaseChar::GetActionStopLooseRate
  002a9	d9 1c 24	 fstp	 DWORD PTR [esp]
  002ac	f3 0f 10 45 d8	 movss	 xmm0, DWORD PTR _fDamage$[ebp]
  002b1	53		 push	 ebx
  002b2	51		 push	 ecx
  002b3	f3 0f 11 04 24	 movss	 DWORD PTR [esp], xmm0
  002b8	e8 00 00 00 00	 call	 ?CalcActionStopDelay@ioBaseChar@@SAKM_N@Z ; ioBaseChar::CalcActionStopDelay
  002bd	59		 pop	 ecx
  002be	59		 pop	 ecx
  002bf	50		 push	 eax
  002c0	8b ce		 mov	 ecx, esi
  002c2	e8 00 00 00 00	 call	 ?SetActionStopDuration@ioWeapon@@QAEXKM@Z ; ioWeapon::SetActionStopDuration
$LN4@ApplyWeapo:

; 280  : 	}
; 281  : 
; 282  : 	if( m_HP.m_fCurValue <= 0.0f )

  002c7	8d 45 d0	 lea	 eax, DWORD PTR _value$557030[ebp]
  002ca	50		 push	 eax
  002cb	8d 8f c0 00 00
	00		 lea	 ecx, DWORD PTR [edi+192]
  002d1	e8 00 00 00 00	 call	 ?DecryptValueToPool@?$CEncrypt@M@@QAEXPAM@Z ; CEncrypt<float>::DecryptValueToPool
  002d6	0f 57 c0	 xorps	 xmm0, xmm0
  002d9	0f 2f 45 d0	 comiss	 xmm0, DWORD PTR _value$557030[ebp]
  002dd	72 20		 jb	 SHORT $LN2@ApplyWeapo

; 283  : 	{
; 284  : 		m_HP.m_fCurValue = 0.0f;

  002df	8d 45 cc	 lea	 eax, DWORD PTR _value$557036[ebp]
  002e2	50		 push	 eax
  002e3	8d 8f c0 00 00
	00		 lea	 ecx, DWORD PTR [edi+192]
  002e9	f3 0f 11 45 cc	 movss	 DWORD PTR _value$557036[ebp], xmm0
  002ee	e8 00 00 00 00	 call	 ?EncryptValueToPool@?$CEncrypt@M@@AAEXPBD@Z ; CEncrypt<float>::EncryptValueToPool

; 285  : 		SetDieState( true );

  002f3	8b 07		 mov	 eax, DWORD PTR [edi]
  002f5	6a 01		 push	 1
  002f7	8b cf		 mov	 ecx, edi
  002f9	ff 90 60 01 00
	00		 call	 DWORD PTR [eax+352]
$LN2@ApplyWeapo:

; 286  : 	}
; 287  : 
; 288  : 	if( pWeapon )
; 289  : 	{
; 290  : 		int iDummyIndex = pWeapon->GetWeaponByDummyChar();
; 291  : 		g_DummyCharMgr.CheckEntityCollision( pAttacker, this, iDummyIndex );

  002ff	ff b6 98 05 00
	00		 push	 DWORD PTR [esi+1432]
  00305	57		 push	 edi
  00306	ff 75 dc	 push	 DWORD PTR _pAttacker$[ebp]
  00309	e8 00 00 00 00	 call	 ?GetSingleton@ioDummyCharManager@@SAAAV1@XZ ; ioDummyCharManager::GetSingleton
  0030e	8b c8		 mov	 ecx, eax
  00310	e8 00 00 00 00	 call	 ?CheckEntityCollision@ioDummyCharManager@@QAEXPAVioBaseChar@@PAVioPlayEntity@@H@Z ; ioDummyCharManager::CheckEntityCollision
$LN53@ApplyWeapo:

; 292  : 	}
; 293  : 
; 294  : 	return AWE_EXPLOSION;

  00315	33 c0		 xor	 eax, eax
  00317	40		 inc	 eax
$LN15@ApplyWeapo:

; 295  : }

  00318	e8 00 00 00 00	 call	 __EH_epilog3_GS
  0031d	c2 04 00	 ret	 4
_TEXT	ENDS
;	COMDAT text$x
text$x	SEGMENT
__unwindfunclet$?ApplyWeapon@ioTargetTrace10Dummy@@UAE?AW4ApplyWeaponExp@@PAVioWeapon@@@Z$0:
  00000	8d 4d ac	 lea	 ecx, DWORD PTR $T556973[ebp]
  00003	ff 25 00 00 00
	00		 jmp	 DWORD PTR __imp_??1ioHashString@@QAE@XZ
__unwindfunclet$?ApplyWeapon@ioTargetTrace10Dummy@@UAE?AW4ApplyWeaponExp@@PAVioWeapon@@@Z$1:
  00009	8d 4d bc	 lea	 ecx, DWORD PTR $T556974[ebp]
  0000c	ff 25 00 00 00
	00		 jmp	 DWORD PTR __imp_??1ioHashString@@QAE@XZ
__ehhandler$?ApplyWeapon@ioTargetTrace10Dummy@@UAE?AW4ApplyWeaponExp@@PAVioWeapon@@@Z:
  00012	8b 54 24 08	 mov	 edx, DWORD PTR [esp+8]
  00016	8d 42 0c	 lea	 eax, DWORD PTR [edx+12]
  00019	8b 4a a8	 mov	 ecx, DWORD PTR [edx-88]
  0001c	33 c8		 xor	 ecx, eax
  0001e	e8 00 00 00 00	 call	 @__security_check_cookie@4
  00023	8b 4a fc	 mov	 ecx, DWORD PTR [edx-4]
  00026	33 c8		 xor	 ecx, eax
  00028	e8 00 00 00 00	 call	 @__security_check_cookie@4
  0002d	b8 00 00 00 00	 mov	 eax, OFFSET __ehfuncinfo$?ApplyWeapon@ioTargetTrace10Dummy@@UAE?AW4ApplyWeaponExp@@PAVioWeapon@@@Z
  00032	e9 00 00 00 00	 jmp	 ___CxxFrameHandler3
text$x	ENDS
?ApplyWeapon@ioTargetTrace10Dummy@@UAE?AW4ApplyWeaponExp@@PAVioWeapon@@@Z ENDP ; ioTargetTrace10Dummy::ApplyWeapon
PUBLIC	?_Tidy@?$vector@PAVioBaseChar@@V?$allocator@PAVioBaseChar@@@std@@@std@@IAEXXZ ; std::vector<ioBaseChar *,std::allocator<ioBaseChar *> >::_Tidy
EXTRN	__imp_?_Orphan_all@_Container_base0@std@@QAEXXZ:PROC
; Function compile flags: /Ogsp
; File c:\program files (x86)\microsoft visual studio 10.0\vc\include\vector
;	COMDAT ?_Tidy@?$vector@PAVioBaseChar@@V?$allocator@PAVioBaseChar@@@std@@@std@@IAEXXZ
_TEXT	SEGMENT
?_Tidy@?$vector@PAVioBaseChar@@V?$allocator@PAVioBaseChar@@@std@@@std@@IAEXXZ PROC ; std::vector<ioBaseChar *,std::allocator<ioBaseChar *> >::_Tidy, COMDAT
; _this$ = ecx

; 1301 : 		{	// free all storage

  00000	56		 push	 esi
  00001	8b f1		 mov	 esi, ecx

; 1302 : 		if (this->_Myfirst != 0)

  00003	83 3e 00	 cmp	 DWORD PTR [esi], 0
  00006	74 0e		 je	 SHORT $LN12@Tidy@2

; 1303 : 			{	// something to free, destroy and deallocate it
; 1304 : 			this->_Orphan_all();

  00008	ff 15 00 00 00
	00		 call	 DWORD PTR __imp_?_Orphan_all@_Container_base0@std@@QAEXXZ

; 1305 : 			_Destroy(this->_Myfirst, this->_Mylast);
; 1306 : 			this->_Alval.deallocate(this->_Myfirst,
; 1307 : 				this->_Myend - this->_Myfirst);

  0000e	ff 36		 push	 DWORD PTR [esi]
  00010	e8 00 00 00 00	 call	 ??3@YAXPAX@Z		; operator delete
  00015	59		 pop	 ecx
$LN12@Tidy@2:

; 1308 : 			}
; 1309 : 		this->_Myfirst = 0;

  00016	83 26 00	 and	 DWORD PTR [esi], 0

; 1310 : 		this->_Mylast = 0;

  00019	83 66 04 00	 and	 DWORD PTR [esi+4], 0

; 1311 : 		this->_Myend = 0;

  0001d	83 66 08 00	 and	 DWORD PTR [esi+8], 0
  00021	5e		 pop	 esi

; 1312 : 		}

  00022	c3		 ret	 0
?_Tidy@?$vector@PAVioBaseChar@@V?$allocator@PAVioBaseChar@@@std@@@std@@IAEXXZ ENDP ; std::vector<ioBaseChar *,std::allocator<ioBaseChar *> >::_Tidy
_TEXT	ENDS
PUBLIC	??$_Cons_val@V?$allocator@UtagBaseCharDistanceSq@@@std@@UtagBaseCharDistanceSq@@ABU3@@std@@YAXAAV?$allocator@UtagBaseCharDistanceSq@@@0@PAUtagBaseCharDistanceSq@@ABU2@@Z ; std::_Cons_val<std::allocator<tagBaseCharDistanceSq>,tagBaseCharDistanceSq,tagBaseCharDistanceSq const &>
; Function compile flags: /Ogsp
; File c:\program files (x86)\microsoft visual studio 10.0\vc\include\xmemory
;	COMDAT ??$_Cons_val@V?$allocator@UtagBaseCharDistanceSq@@@std@@UtagBaseCharDistanceSq@@ABU3@@std@@YAXAAV?$allocator@UtagBaseCharDistanceSq@@@0@PAUtagBaseCharDistanceSq@@ABU2@@Z
_TEXT	SEGMENT
__Alval$ = 8						; size = 4
__Pdest$ = 12						; size = 4
__Src$ = 16						; size = 4
??$_Cons_val@V?$allocator@UtagBaseCharDistanceSq@@@std@@UtagBaseCharDistanceSq@@ABU3@@std@@YAXAAV?$allocator@UtagBaseCharDistanceSq@@@0@PAUtagBaseCharDistanceSq@@ABU2@@Z PROC ; std::_Cons_val<std::allocator<tagBaseCharDistanceSq>,tagBaseCharDistanceSq,tagBaseCharDistanceSq const &>, COMDAT

; 279  : 	{	// construct using allocator

  00000	55		 push	 ebp
  00001	8b ec		 mov	 ebp, esp

; 280  : 	_Alval.construct(_Pdest, _STD forward<_Ty2>(_Src));

  00003	ff 75 10	 push	 DWORD PTR __Src$[ebp]
  00006	ff 75 0c	 push	 DWORD PTR __Pdest$[ebp]
  00009	e8 00 00 00 00	 call	 ??$_Construct@UtagBaseCharDistanceSq@@ABU1@@std@@YAXPAUtagBaseCharDistanceSq@@ABU1@@Z ; std::_Construct<tagBaseCharDistanceSq,tagBaseCharDistanceSq const &>
  0000e	59		 pop	 ecx
  0000f	59		 pop	 ecx

; 281  : 	}

  00010	5d		 pop	 ebp
  00011	c3		 ret	 0
??$_Cons_val@V?$allocator@UtagBaseCharDistanceSq@@@std@@UtagBaseCharDistanceSq@@ABU3@@std@@YAXAAV?$allocator@UtagBaseCharDistanceSq@@@0@PAUtagBaseCharDistanceSq@@ABU2@@Z ENDP ; std::_Cons_val<std::allocator<tagBaseCharDistanceSq>,tagBaseCharDistanceSq,tagBaseCharDistanceSq const &>
_TEXT	ENDS
PUBLIC	??$_Dest_val@V?$allocator@UtagBaseCharDistanceSq@@@std@@UtagBaseCharDistanceSq@@@std@@YAXAAV?$allocator@UtagBaseCharDistanceSq@@@0@PAUtagBaseCharDistanceSq@@@Z ; std::_Dest_val<std::allocator<tagBaseCharDistanceSq>,tagBaseCharDistanceSq>
; Function compile flags: /Ogsp
;	COMDAT ??$_Dest_val@V?$allocator@UtagBaseCharDistanceSq@@@std@@UtagBaseCharDistanceSq@@@std@@YAXAAV?$allocator@UtagBaseCharDistanceSq@@@0@PAUtagBaseCharDistanceSq@@@Z
_TEXT	SEGMENT
__Alval$ = 8						; size = 4
__Pdest$ = 12						; size = 4
??$_Dest_val@V?$allocator@UtagBaseCharDistanceSq@@@std@@UtagBaseCharDistanceSq@@@std@@YAXAAV?$allocator@UtagBaseCharDistanceSq@@@0@PAUtagBaseCharDistanceSq@@@Z PROC ; std::_Dest_val<std::allocator<tagBaseCharDistanceSq>,tagBaseCharDistanceSq>, COMDAT

; 286  : 	{	// destroy using allocator

  00000	55		 push	 ebp
  00001	8b ec		 mov	 ebp, esp

; 287  : 	_Alval.destroy(_Pdest);

  00003	8b 4d 0c	 mov	 ecx, DWORD PTR __Pdest$[ebp]

; 288  : 	}

  00006	5d		 pop	 ebp

; 287  : 	_Alval.destroy(_Pdest);

  00007	ff 25 00 00 00
	00		 jmp	 DWORD PTR __imp_??1ioHashString@@QAE@XZ
??$_Dest_val@V?$allocator@UtagBaseCharDistanceSq@@@std@@UtagBaseCharDistanceSq@@@std@@YAXAAV?$allocator@UtagBaseCharDistanceSq@@@0@PAUtagBaseCharDistanceSq@@@Z ENDP ; std::_Dest_val<std::allocator<tagBaseCharDistanceSq>,tagBaseCharDistanceSq>
_TEXT	ENDS
PUBLIC	??$_Median@PAUtagBaseCharDistanceSq@@VBaseCharDistanceSqSort2@@@std@@YAXPAUtagBaseCharDistanceSq@@00VBaseCharDistanceSqSort2@@@Z ; std::_Median<tagBaseCharDistanceSq *,BaseCharDistanceSqSort2>
; Function compile flags: /Ogsp
; File c:\program files (x86)\microsoft visual studio 10.0\vc\include\algorithm
;	COMDAT ??$_Median@PAUtagBaseCharDistanceSq@@VBaseCharDistanceSqSort2@@@std@@YAXPAUtagBaseCharDistanceSq@@00VBaseCharDistanceSqSort2@@@Z
_TEXT	SEGMENT
tv200 = 8						; size = 4
__First$ = 8						; size = 4
__Mid$ = 12						; size = 4
tv203 = 16						; size = 4
__Last$ = 16						; size = 4
__Pred$ = 20						; size = 1
??$_Median@PAUtagBaseCharDistanceSq@@VBaseCharDistanceSqSort2@@@std@@YAXPAUtagBaseCharDistanceSq@@00VBaseCharDistanceSqSort2@@@Z PROC ; std::_Median<tagBaseCharDistanceSq *,BaseCharDistanceSqSort2>, COMDAT

; 3695 : 	{	// sort median element to middle

  00000	55		 push	 ebp
  00001	8b ec		 mov	 ebp, esp

; 3696 : 	if (40 < _Last - _First)

  00003	8b 4d 08	 mov	 ecx, DWORD PTR __First$[ebp]
  00006	57		 push	 edi
  00007	8b 7d 10	 mov	 edi, DWORD PTR __Last$[ebp]
  0000a	8b c7		 mov	 eax, edi
  0000c	2b c1		 sub	 eax, ecx
  0000e	c1 f8 05	 sar	 eax, 5
  00011	83 f8 28	 cmp	 eax, 40			; 00000028H
  00014	7e 6a		 jle	 SHORT $LN2@Median

; 3697 : 		{	// median of nine
; 3698 : 		size_t _Step = (_Last - _First + 1) / 8;

  00016	40		 inc	 eax
  00017	99		 cdq
  00018	83 e2 07	 and	 edx, 7
  0001b	53		 push	 ebx
  0001c	03 c2		 add	 eax, edx
  0001e	c1 f8 03	 sar	 eax, 3
  00021	56		 push	 esi

; 3699 : 		_Med3(_First, _First + _Step, _First + 2 * _Step, _Pred);

  00022	ff 75 14	 push	 DWORD PTR __Pred$[ebp]
  00025	8b d8		 mov	 ebx, eax
  00027	8b f0		 mov	 esi, eax
  00029	c1 e3 06	 shl	 ebx, 6
  0002c	8d 14 0b	 lea	 edx, DWORD PTR [ebx+ecx]
  0002f	c1 e6 05	 shl	 esi, 5
  00032	8d 04 0e	 lea	 eax, DWORD PTR [esi+ecx]
  00035	52		 push	 edx
  00036	50		 push	 eax
  00037	51		 push	 ecx
  00038	89 45 08	 mov	 DWORD PTR tv200[ebp], eax
  0003b	e8 00 00 00 00	 call	 ??$_Med3@PAUtagBaseCharDistanceSq@@VBaseCharDistanceSqSort2@@@std@@YAXPAUtagBaseCharDistanceSq@@00VBaseCharDistanceSqSort2@@@Z ; std::_Med3<tagBaseCharDistanceSq *,BaseCharDistanceSqSort2>

; 3700 : 		_Med3(_Mid - _Step, _Mid, _Mid + _Step, _Pred);

  00040	ff 75 14	 push	 DWORD PTR __Pred$[ebp]
  00043	8b 45 0c	 mov	 eax, DWORD PTR __Mid$[ebp]
  00046	8d 0c 06	 lea	 ecx, DWORD PTR [esi+eax]
  00049	51		 push	 ecx
  0004a	50		 push	 eax
  0004b	2b c6		 sub	 eax, esi
  0004d	50		 push	 eax
  0004e	e8 00 00 00 00	 call	 ??$_Med3@PAUtagBaseCharDistanceSq@@VBaseCharDistanceSqSort2@@@std@@YAXPAUtagBaseCharDistanceSq@@00VBaseCharDistanceSqSort2@@@Z ; std::_Med3<tagBaseCharDistanceSq *,BaseCharDistanceSqSort2>

; 3701 : 		_Med3(_Last - 2 * _Step, _Last - _Step, _Last, _Pred);

  00053	ff 75 14	 push	 DWORD PTR __Pred$[ebp]
  00056	89 7d 10	 mov	 DWORD PTR tv203[ebp], edi
  00059	29 75 10	 sub	 DWORD PTR tv203[ebp], esi
  0005c	57		 push	 edi
  0005d	ff 75 10	 push	 DWORD PTR tv203[ebp]
  00060	2b fb		 sub	 edi, ebx
  00062	57		 push	 edi
  00063	e8 00 00 00 00	 call	 ??$_Med3@PAUtagBaseCharDistanceSq@@VBaseCharDistanceSqSort2@@@std@@YAXPAUtagBaseCharDistanceSq@@00VBaseCharDistanceSqSort2@@@Z ; std::_Med3<tagBaseCharDistanceSq *,BaseCharDistanceSqSort2>

; 3702 : 		_Med3(_First + _Step, _Mid, _Last - _Step, _Pred);

  00068	ff 75 14	 push	 DWORD PTR __Pred$[ebp]
  0006b	ff 75 10	 push	 DWORD PTR tv203[ebp]
  0006e	ff 75 0c	 push	 DWORD PTR __Mid$[ebp]
  00071	ff 75 08	 push	 DWORD PTR tv200[ebp]
  00074	e8 00 00 00 00	 call	 ??$_Med3@PAUtagBaseCharDistanceSq@@VBaseCharDistanceSqSort2@@@std@@YAXPAUtagBaseCharDistanceSq@@00VBaseCharDistanceSqSort2@@@Z ; std::_Med3<tagBaseCharDistanceSq *,BaseCharDistanceSqSort2>
  00079	83 c4 40	 add	 esp, 64			; 00000040H
  0007c	5e		 pop	 esi
  0007d	5b		 pop	 ebx

; 3703 : 		}
; 3704 : 	else

  0007e	eb 10		 jmp	 SHORT $LN1@Median
$LN2@Median:

; 3705 : 		_Med3(_First, _Mid, _Last, _Pred);

  00080	ff 75 14	 push	 DWORD PTR __Pred$[ebp]
  00083	57		 push	 edi
  00084	ff 75 0c	 push	 DWORD PTR __Mid$[ebp]
  00087	51		 push	 ecx
  00088	e8 00 00 00 00	 call	 ??$_Med3@PAUtagBaseCharDistanceSq@@VBaseCharDistanceSqSort2@@@std@@YAXPAUtagBaseCharDistanceSq@@00VBaseCharDistanceSqSort2@@@Z ; std::_Med3<tagBaseCharDistanceSq *,BaseCharDistanceSqSort2>
  0008d	83 c4 10	 add	 esp, 16			; 00000010H
$LN1@Median:
  00090	5f		 pop	 edi

; 3706 : 	}

  00091	5d		 pop	 ebp
  00092	c3		 ret	 0
??$_Median@PAUtagBaseCharDistanceSq@@VBaseCharDistanceSqSort2@@@std@@YAXPAUtagBaseCharDistanceSq@@00VBaseCharDistanceSqSort2@@@Z ENDP ; std::_Median<tagBaseCharDistanceSq *,BaseCharDistanceSqSort2>
_TEXT	ENDS
PUBLIC	??$_Make_heap@PAUtagBaseCharDistanceSq@@HU1@VBaseCharDistanceSqSort2@@@std@@YAXPAUtagBaseCharDistanceSq@@0VBaseCharDistanceSqSort2@@PAH0@Z ; std::_Make_heap<tagBaseCharDistanceSq *,int,tagBaseCharDistanceSq,BaseCharDistanceSqSort2>
;	COMDAT xdata$x
; File d:\lost saga for developer\youtube\tutorial\source\src\lsclient\iotargettrace10dummy.cpp
xdata$x	SEGMENT
__unwindtable$??$_Make_heap@PAUtagBaseCharDistanceSq@@HU1@VBaseCharDistanceSqSort2@@@std@@YAXPAUtagBaseCharDistanceSq@@0VBaseCharDistanceSqSort2@@PAH0@Z DD 0ffffffffH
	DD	FLAT:__unwindfunclet$??$_Make_heap@PAUtagBaseCharDistanceSq@@HU1@VBaseCharDistanceSqSort2@@@std@@YAXPAUtagBaseCharDistanceSq@@0VBaseCharDistanceSqSort2@@PAH0@Z$0
__ehfuncinfo$??$_Make_heap@PAUtagBaseCharDistanceSq@@HU1@VBaseCharDistanceSqSort2@@@std@@YAXPAUtagBaseCharDistanceSq@@0VBaseCharDistanceSqSort2@@PAH0@Z DD 019930522H
	DD	01H
	DD	FLAT:__unwindtable$??$_Make_heap@PAUtagBaseCharDistanceSq@@HU1@VBaseCharDistanceSqSort2@@@std@@YAXPAUtagBaseCharDistanceSq@@0VBaseCharDistanceSqSort2@@PAH0@Z
	DD	2 DUP(00H)
	DD	2 DUP(00H)
	DD	00H
	DD	01H
; Function compile flags: /Ogsp
; File c:\program files (x86)\microsoft visual studio 10.0\vc\include\algorithm
xdata$x	ENDS
;	COMDAT ??$_Make_heap@PAUtagBaseCharDistanceSq@@HU1@VBaseCharDistanceSqSort2@@@std@@YAXPAUtagBaseCharDistanceSq@@0VBaseCharDistanceSqSort2@@PAH0@Z
_TEXT	SEGMENT
__Bottom$ = -52						; size = 4
__Val$552587 = -48					; size = 32
__$EHRec$ = -12						; size = 12
__First$ = 8						; size = 4
__Last$ = 12						; size = 4
__Pred$ = 16						; size = 1
___formal$ = 20						; size = 4
___formal$ = 24						; size = 4
??$_Make_heap@PAUtagBaseCharDistanceSq@@HU1@VBaseCharDistanceSqSort2@@@std@@YAXPAUtagBaseCharDistanceSq@@0VBaseCharDistanceSqSort2@@PAH0@Z PROC ; std::_Make_heap<tagBaseCharDistanceSq *,int,tagBaseCharDistanceSq,BaseCharDistanceSqSort2>, COMDAT

; 2658 : 	{	// make nontrivial [_First, _Last) into a heap, using _Pred

  00000	6a 28		 push	 40			; 00000028H
  00002	b8 00 00 00 00	 mov	 eax, __ehhandler$??$_Make_heap@PAUtagBaseCharDistanceSq@@HU1@VBaseCharDistanceSqSort2@@@std@@YAXPAUtagBaseCharDistanceSq@@0VBaseCharDistanceSqSort2@@PAH0@Z
  00007	e8 00 00 00 00	 call	 __EH_prolog3_GS
  0000c	8b 5d 08	 mov	 ebx, DWORD PTR __First$[ebp]
  0000f	8b 45 0c	 mov	 eax, DWORD PTR __Last$[ebp]

; 2659 : 	_Diff _Bottom = _Last - _First;

  00012	2b c3		 sub	 eax, ebx
  00014	c1 f8 05	 sar	 eax, 5
  00017	89 45 cc	 mov	 DWORD PTR __Bottom$[ebp], eax

; 2660 : 	for (_Diff _Hole = _Bottom / 2; 0 < _Hole; )

  0001a	99		 cdq
  0001b	2b c2		 sub	 eax, edx
  0001d	8b f0		 mov	 esi, eax
  0001f	d1 fe		 sar	 esi, 1
  00021	85 f6		 test	 esi, esi
  00023	7e 3d		 jle	 SHORT $LN1@Make_heap

; 2661 : 		{	// reheap top half, bottom to top
; 2662 : 		--_Hole;
; 2663 : 		_Ty _Val = _Move(*(_First + _Hole));

  00025	8b fe		 mov	 edi, esi
  00027	c1 e7 05	 shl	 edi, 5
  0002a	03 fb		 add	 edi, ebx
$LL2@Make_heap:
  0002c	83 ef 20	 sub	 edi, 32			; 00000020H
  0002f	57		 push	 edi
  00030	8d 4d d0	 lea	 ecx, DWORD PTR __Val$552587[ebp]
  00033	4e		 dec	 esi
  00034	e8 00 00 00 00	 call	 ??0tagBaseCharDistanceSq@@QAE@ABU0@@Z

; 2664 : 		_Adjust_heap(_First, _Hole, _Bottom,
; 2665 : 			_Move(_Val), _Pred);

  00039	ff 75 10	 push	 DWORD PTR __Pred$[ebp]
  0003c	83 65 fc 00	 and	 DWORD PTR __$EHRec$[ebp+8], 0
  00040	8d 45 d0	 lea	 eax, DWORD PTR __Val$552587[ebp]
  00043	50		 push	 eax
  00044	ff 75 cc	 push	 DWORD PTR __Bottom$[ebp]
  00047	56		 push	 esi
  00048	53		 push	 ebx
  00049	e8 00 00 00 00	 call	 ??$_Adjust_heap@PAUtagBaseCharDistanceSq@@HU1@VBaseCharDistanceSqSort2@@@std@@YAXPAUtagBaseCharDistanceSq@@HH$$QAU1@VBaseCharDistanceSqSort2@@@Z ; std::_Adjust_heap<tagBaseCharDistanceSq *,int,tagBaseCharDistanceSq,BaseCharDistanceSqSort2>

; 2666 : 		}

  0004e	83 4d fc ff	 or	 DWORD PTR __$EHRec$[ebp+8], -1
  00052	83 c4 14	 add	 esp, 20			; 00000014H
  00055	8d 4d d0	 lea	 ecx, DWORD PTR __Val$552587[ebp]
  00058	ff 15 00 00 00
	00		 call	 DWORD PTR __imp_??1ioHashString@@QAE@XZ
  0005e	85 f6		 test	 esi, esi
  00060	7f ca		 jg	 SHORT $LL2@Make_heap
$LN1@Make_heap:

; 2667 : 	}

  00062	e8 00 00 00 00	 call	 __EH_epilog3_GS
  00067	c3		 ret	 0
_TEXT	ENDS
;	COMDAT text$x
text$x	SEGMENT
__unwindfunclet$??$_Make_heap@PAUtagBaseCharDistanceSq@@HU1@VBaseCharDistanceSqSort2@@@std@@YAXPAUtagBaseCharDistanceSq@@0VBaseCharDistanceSqSort2@@PAH0@Z$0:
  00000	8d 4d d0	 lea	 ecx, DWORD PTR __Val$552587[ebp]
  00003	e9 00 00 00 00	 jmp	 ??1tagBaseCharDistanceSq@@QAE@XZ
__ehhandler$??$_Make_heap@PAUtagBaseCharDistanceSq@@HU1@VBaseCharDistanceSqSort2@@@std@@YAXPAUtagBaseCharDistanceSq@@0VBaseCharDistanceSqSort2@@PAH0@Z:
  00008	8b 54 24 08	 mov	 edx, DWORD PTR [esp+8]
  0000c	8d 42 0c	 lea	 eax, DWORD PTR [edx+12]
  0000f	8b 4a c8	 mov	 ecx, DWORD PTR [edx-56]
  00012	33 c8		 xor	 ecx, eax
  00014	e8 00 00 00 00	 call	 @__security_check_cookie@4
  00019	8b 4a fc	 mov	 ecx, DWORD PTR [edx-4]
  0001c	33 c8		 xor	 ecx, eax
  0001e	e8 00 00 00 00	 call	 @__security_check_cookie@4
  00023	b8 00 00 00 00	 mov	 eax, OFFSET __ehfuncinfo$??$_Make_heap@PAUtagBaseCharDistanceSq@@HU1@VBaseCharDistanceSqSort2@@@std@@YAXPAUtagBaseCharDistanceSq@@0VBaseCharDistanceSqSort2@@PAH0@Z
  00028	e9 00 00 00 00	 jmp	 ___CxxFrameHandler3
text$x	ENDS
??$_Make_heap@PAUtagBaseCharDistanceSq@@HU1@VBaseCharDistanceSqSort2@@@std@@YAXPAUtagBaseCharDistanceSq@@0VBaseCharDistanceSqSort2@@PAH0@Z ENDP ; std::_Make_heap<tagBaseCharDistanceSq *,int,tagBaseCharDistanceSq,BaseCharDistanceSqSort2>
PUBLIC	??$_Insertion_sort1@PAUtagBaseCharDistanceSq@@VBaseCharDistanceSqSort2@@U1@@std@@YAXPAUtagBaseCharDistanceSq@@0VBaseCharDistanceSqSort2@@0@Z ; std::_Insertion_sort1<tagBaseCharDistanceSq *,BaseCharDistanceSqSort2,tagBaseCharDistanceSq>
;	COMDAT xdata$x
; File d:\lost saga for developer\youtube\tutorial\source\src\lsclient\iotargettrace10dummy.cpp
xdata$x	SEGMENT
__unwindtable$??$_Insertion_sort1@PAUtagBaseCharDistanceSq@@VBaseCharDistanceSqSort2@@U1@@std@@YAXPAUtagBaseCharDistanceSq@@0VBaseCharDistanceSqSort2@@0@Z DD 0ffffffffH
	DD	FLAT:__unwindfunclet$??$_Insertion_sort1@PAUtagBaseCharDistanceSq@@VBaseCharDistanceSqSort2@@U1@@std@@YAXPAUtagBaseCharDistanceSq@@0VBaseCharDistanceSqSort2@@0@Z$0
__ehfuncinfo$??$_Insertion_sort1@PAUtagBaseCharDistanceSq@@VBaseCharDistanceSqSort2@@U1@@std@@YAXPAUtagBaseCharDistanceSq@@0VBaseCharDistanceSqSort2@@0@Z DD 019930522H
	DD	01H
	DD	FLAT:__unwindtable$??$_Insertion_sort1@PAUtagBaseCharDistanceSq@@VBaseCharDistanceSqSort2@@U1@@std@@YAXPAUtagBaseCharDistanceSq@@0VBaseCharDistanceSqSort2@@0@Z
	DD	2 DUP(00H)
	DD	2 DUP(00H)
	DD	00H
	DD	01H
; Function compile flags: /Ogsp
; File c:\program files (x86)\microsoft visual studio 10.0\vc\include\algorithm
xdata$x	ENDS
;	COMDAT ??$_Insertion_sort1@PAUtagBaseCharDistanceSq@@VBaseCharDistanceSqSort2@@U1@@std@@YAXPAUtagBaseCharDistanceSq@@0VBaseCharDistanceSqSort2@@0@Z
_TEXT	SEGMENT
__Cat$557178 = -52					; size = 1
__Next1$552630 = -52					; size = 4
__Val$552631 = -48					; size = 32
__$EHRec$ = -12						; size = 12
__First$ = 8						; size = 4
__Last$ = 12						; size = 4
__Pred$ = 16						; size = 1
___formal$ = 20						; size = 4
??$_Insertion_sort1@PAUtagBaseCharDistanceSq@@VBaseCharDistanceSqSort2@@U1@@std@@YAXPAUtagBaseCharDistanceSq@@0VBaseCharDistanceSqSort2@@0@Z PROC ; std::_Insertion_sort1<tagBaseCharDistanceSq *,BaseCharDistanceSqSort2,tagBaseCharDistanceSq>, COMDAT

; 3650 : 	{	// insertion sort [_First, _Last), using _Pred

  00000	6a 28		 push	 40			; 00000028H
  00002	b8 00 00 00 00	 mov	 eax, __ehhandler$??$_Insertion_sort1@PAUtagBaseCharDistanceSq@@VBaseCharDistanceSqSort2@@U1@@std@@YAXPAUtagBaseCharDistanceSq@@0VBaseCharDistanceSqSort2@@0@Z
  00007	e8 00 00 00 00	 call	 __EH_prolog3_GS
  0000c	8b 7d 08	 mov	 edi, DWORD PTR __First$[ebp]

; 3651 : 	if (_First != _Last)

  0000f	3b 7d 0c	 cmp	 edi, DWORD PTR __Last$[ebp]
  00012	74 5c		 je	 SHORT $LN6@Insertion_

; 3652 : 		for (_BidIt _Next = _First; ++_Next != _Last; )

  00014	8d 77 20	 lea	 esi, DWORD PTR [edi+32]
  00017	eb 52		 jmp	 SHORT $LN39@Insertion_
$LL7@Insertion_:

; 3653 : 			{	// order next element
; 3654 : 			_BidIt _Next1 = _Next;
; 3655 : 			_Ty _Val = _Move(*_Next);

  00019	56		 push	 esi
  0001a	8d 4d d0	 lea	 ecx, DWORD PTR __Val$552631[ebp]
  0001d	89 75 cc	 mov	 DWORD PTR __Next1$552630[ebp], esi
  00020	e8 00 00 00 00	 call	 ??0tagBaseCharDistanceSq@@QAE@ABU0@@Z

; 3656 : 
; 3657 : 			if (_DEBUG_LT_PRED(_Pred, _Val, *_First))

  00025	f3 0f 10 45 e0	 movss	 xmm0, DWORD PTR __Val$552631[ebp+16]
  0002a	f3 0f 10 4f 10	 movss	 xmm1, DWORD PTR [edi+16]
  0002f	83 65 fc 00	 and	 DWORD PTR __$EHRec$[ebp+8], 0
  00033	0f 5a c0	 cvtps2pd xmm0, xmm0
  00036	0f 5a c9	 cvtps2pd xmm1, xmm1
  00039	66 0f 2f c8	 comisd	 xmm1, xmm0
  0003d	76 37		 jbe	 SHORT $LN5@Insertion_

; 3658 : 				{	// found new earliest element, move to front
; 3659 : 				_Move_backward(_First, _Next, ++_Next1);

  0003f	ff 75 cc	 push	 DWORD PTR __Cat$557178[ebp]
  00042	8d 46 20	 lea	 eax, DWORD PTR [esi+32]
  00045	50		 push	 eax
  00046	56		 push	 esi
  00047	57		 push	 edi
  00048	e8 00 00 00 00	 call	 ??$_Move_backward@PAUtagBaseCharDistanceSq@@PAU1@@std@@YAPAUtagBaseCharDistanceSq@@PAU1@00U_Nonscalar_ptr_iterator_tag@0@@Z ; std::_Move_backward<tagBaseCharDistanceSq *,tagBaseCharDistanceSq *>
  0004d	83 c4 10	 add	 esp, 16			; 00000010H

; 3660 : 				*_First = _Move(_Val);

  00050	8b cf		 mov	 ecx, edi
$LN40@Insertion_:

; 3668 : 				*_Next1 = _Move(_Val);	// insert element in hole

  00052	8d 45 d0	 lea	 eax, DWORD PTR __Val$552631[ebp]
  00055	50		 push	 eax
  00056	e8 00 00 00 00	 call	 ??4tagBaseCharDistanceSq@@QAEAAU0@ABU0@@Z

; 3669 : 				}
; 3670 : 			}

  0005b	83 4d fc ff	 or	 DWORD PTR __$EHRec$[ebp+8], -1
  0005f	8d 4d d0	 lea	 ecx, DWORD PTR __Val$552631[ebp]
  00062	ff 15 00 00 00
	00		 call	 DWORD PTR __imp_??1ioHashString@@QAE@XZ
  00068	83 c6 20	 add	 esi, 32			; 00000020H
$LN39@Insertion_:

; 3652 : 		for (_BidIt _Next = _First; ++_Next != _Last; )

  0006b	3b 75 0c	 cmp	 esi, DWORD PTR __Last$[ebp]
  0006e	75 a9		 jne	 SHORT $LL7@Insertion_
$LN6@Insertion_:

; 3671 : 	}

  00070	e8 00 00 00 00	 call	 __EH_epilog3_GS
  00075	c3		 ret	 0
$LN5@Insertion_:

; 3661 : 				}
; 3662 : 			else
; 3663 : 				{	// look for insertion point after first
; 3664 : 				for (_BidIt _First1 = _Next1;

  00076	8b de		 mov	 ebx, esi
$LL3@Insertion_:

; 3665 : 					_DEBUG_LT_PRED(_Pred, _Val, *--_First1);
; 3666 : 					_Next1 = _First1)

  00078	f3 0f 10 45 e0	 movss	 xmm0, DWORD PTR __Val$552631[ebp+16]
  0007d	f3 0f 10 4b f0	 movss	 xmm1, DWORD PTR [ebx-16]

; 3667 : 					*_Next1 = _Move(*_First1);	// move hole down

  00082	8b 4d cc	 mov	 ecx, DWORD PTR __Next1$552630[ebp]
  00085	83 eb 20	 sub	 ebx, 32			; 00000020H
  00088	0f 5a c0	 cvtps2pd xmm0, xmm0
  0008b	0f 5a c9	 cvtps2pd xmm1, xmm1
  0008e	66 0f 2f c8	 comisd	 xmm1, xmm0
  00092	76 be		 jbe	 SHORT $LN40@Insertion_
  00094	53		 push	 ebx
  00095	e8 00 00 00 00	 call	 ??4tagBaseCharDistanceSq@@QAEAAU0@ABU0@@Z
  0009a	89 5d cc	 mov	 DWORD PTR __Next1$552630[ebp], ebx
  0009d	eb d9		 jmp	 SHORT $LL3@Insertion_
_TEXT	ENDS
;	COMDAT text$x
text$x	SEGMENT
__unwindfunclet$??$_Insertion_sort1@PAUtagBaseCharDistanceSq@@VBaseCharDistanceSqSort2@@U1@@std@@YAXPAUtagBaseCharDistanceSq@@0VBaseCharDistanceSqSort2@@0@Z$0:
  00000	8d 4d d0	 lea	 ecx, DWORD PTR __Val$552631[ebp]
  00003	e9 00 00 00 00	 jmp	 ??1tagBaseCharDistanceSq@@QAE@XZ
__ehhandler$??$_Insertion_sort1@PAUtagBaseCharDistanceSq@@VBaseCharDistanceSqSort2@@U1@@std@@YAXPAUtagBaseCharDistanceSq@@0VBaseCharDistanceSqSort2@@0@Z:
  00008	8b 54 24 08	 mov	 edx, DWORD PTR [esp+8]
  0000c	8d 42 0c	 lea	 eax, DWORD PTR [edx+12]
  0000f	8b 4a c8	 mov	 ecx, DWORD PTR [edx-56]
  00012	33 c8		 xor	 ecx, eax
  00014	e8 00 00 00 00	 call	 @__security_check_cookie@4
  00019	8b 4a fc	 mov	 ecx, DWORD PTR [edx-4]
  0001c	33 c8		 xor	 ecx, eax
  0001e	e8 00 00 00 00	 call	 @__security_check_cookie@4
  00023	b8 00 00 00 00	 mov	 eax, OFFSET __ehfuncinfo$??$_Insertion_sort1@PAUtagBaseCharDistanceSq@@VBaseCharDistanceSqSort2@@U1@@std@@YAXPAUtagBaseCharDistanceSq@@0VBaseCharDistanceSqSort2@@0@Z
  00028	e9 00 00 00 00	 jmp	 ___CxxFrameHandler3
text$x	ENDS
??$_Insertion_sort1@PAUtagBaseCharDistanceSq@@VBaseCharDistanceSqSort2@@U1@@std@@YAXPAUtagBaseCharDistanceSq@@0VBaseCharDistanceSqSort2@@0@Z ENDP ; std::_Insertion_sort1<tagBaseCharDistanceSq *,BaseCharDistanceSqSort2,tagBaseCharDistanceSq>
PUBLIC	??$_Pop_heap_0@PAUtagBaseCharDistanceSq@@U1@VBaseCharDistanceSqSort2@@@std@@YAXPAUtagBaseCharDistanceSq@@0VBaseCharDistanceSqSort2@@0@Z ; std::_Pop_heap_0<tagBaseCharDistanceSq *,tagBaseCharDistanceSq,BaseCharDistanceSqSort2>
;	COMDAT xdata$x
; File d:\lost saga for developer\youtube\tutorial\source\src\lsclient\iotargettrace10dummy.cpp
xdata$x	SEGMENT
__unwindtable$??$_Pop_heap_0@PAUtagBaseCharDistanceSq@@U1@VBaseCharDistanceSqSort2@@@std@@YAXPAUtagBaseCharDistanceSq@@0VBaseCharDistanceSqSort2@@0@Z DD 0ffffffffH
	DD	FLAT:__unwindfunclet$??$_Pop_heap_0@PAUtagBaseCharDistanceSq@@U1@VBaseCharDistanceSqSort2@@@std@@YAXPAUtagBaseCharDistanceSq@@0VBaseCharDistanceSqSort2@@0@Z$0
__ehfuncinfo$??$_Pop_heap_0@PAUtagBaseCharDistanceSq@@U1@VBaseCharDistanceSqSort2@@@std@@YAXPAUtagBaseCharDistanceSq@@0VBaseCharDistanceSqSort2@@0@Z DD 019930522H
	DD	01H
	DD	FLAT:__unwindtable$??$_Pop_heap_0@PAUtagBaseCharDistanceSq@@U1@VBaseCharDistanceSqSort2@@@std@@YAXPAUtagBaseCharDistanceSq@@0VBaseCharDistanceSqSort2@@0@Z
	DD	2 DUP(00H)
	DD	2 DUP(00H)
	DD	00H
	DD	01H
; Function compile flags: /Ogsp
; File c:\program files (x86)\microsoft visual studio 10.0\vc\include\algorithm
xdata$x	ENDS
;	COMDAT ??$_Pop_heap_0@PAUtagBaseCharDistanceSq@@U1@VBaseCharDistanceSqSort2@@@std@@YAXPAUtagBaseCharDistanceSq@@0VBaseCharDistanceSqSort2@@0@Z
_TEXT	SEGMENT
__Val$ = -48						; size = 32
__$EHRec$ = -12						; size = 12
__First$ = 8						; size = 4
__Last$ = 12						; size = 4
__Pred$ = 16						; size = 1
___formal$ = 20						; size = 4
??$_Pop_heap_0@PAUtagBaseCharDistanceSq@@U1@VBaseCharDistanceSqSort2@@@std@@YAXPAUtagBaseCharDistanceSq@@0VBaseCharDistanceSqSort2@@0@Z PROC ; std::_Pop_heap_0<tagBaseCharDistanceSq *,tagBaseCharDistanceSq,BaseCharDistanceSqSort2>, COMDAT

; 2601 : 	{	// pop *_First to *(_Last - 1) and reheap, using _Pred

  00000	6a 24		 push	 36			; 00000024H
  00002	b8 00 00 00 00	 mov	 eax, __ehhandler$??$_Pop_heap_0@PAUtagBaseCharDistanceSq@@U1@VBaseCharDistanceSqSort2@@@std@@YAXPAUtagBaseCharDistanceSq@@0VBaseCharDistanceSqSort2@@0@Z
  00007	e8 00 00 00 00	 call	 __EH_prolog3_GS
  0000c	8b 75 0c	 mov	 esi, DWORD PTR __Last$[ebp]
  0000f	8b 7d 08	 mov	 edi, DWORD PTR __First$[ebp]

; 2602 : 	_Ty _Val = _Move(*(_Last - 1));

  00012	83 c6 e0	 add	 esi, -32		; ffffffe0H
  00015	56		 push	 esi
  00016	8d 4d d0	 lea	 ecx, DWORD PTR __Val$[ebp]
  00019	e8 00 00 00 00	 call	 ??0tagBaseCharDistanceSq@@QAE@ABU0@@Z
  0001e	83 65 fc 00	 and	 DWORD PTR __$EHRec$[ebp+8], 0

; 2603 : 	_Pop_heap(_First, _Last - 1, _Last - 1,
; 2604 : 		_Move(_Val), _Pred, _Dist_type(_First));

  00022	6a 00		 push	 0
  00024	ff 75 10	 push	 DWORD PTR __Pred$[ebp]
  00027	8d 45 d0	 lea	 eax, DWORD PTR __Val$[ebp]
  0002a	50		 push	 eax
  0002b	56		 push	 esi
  0002c	56		 push	 esi
  0002d	57		 push	 edi
  0002e	e8 00 00 00 00	 call	 ??$_Pop_heap@PAUtagBaseCharDistanceSq@@HU1@VBaseCharDistanceSqSort2@@@std@@YAXPAUtagBaseCharDistanceSq@@00$$QAU1@VBaseCharDistanceSqSort2@@PAH@Z ; std::_Pop_heap<tagBaseCharDistanceSq *,int,tagBaseCharDistanceSq,BaseCharDistanceSqSort2>

; 2605 : 	}

  00033	83 4d fc ff	 or	 DWORD PTR __$EHRec$[ebp+8], -1
  00037	83 c4 18	 add	 esp, 24			; 00000018H
  0003a	8d 4d d0	 lea	 ecx, DWORD PTR __Val$[ebp]
  0003d	ff 15 00 00 00
	00		 call	 DWORD PTR __imp_??1ioHashString@@QAE@XZ
  00043	e8 00 00 00 00	 call	 __EH_epilog3_GS
  00048	c3		 ret	 0
_TEXT	ENDS
;	COMDAT text$x
text$x	SEGMENT
__unwindfunclet$??$_Pop_heap_0@PAUtagBaseCharDistanceSq@@U1@VBaseCharDistanceSqSort2@@@std@@YAXPAUtagBaseCharDistanceSq@@0VBaseCharDistanceSqSort2@@0@Z$0:
  00000	8d 4d d0	 lea	 ecx, DWORD PTR __Val$[ebp]
  00003	e9 00 00 00 00	 jmp	 ??1tagBaseCharDistanceSq@@QAE@XZ
__ehhandler$??$_Pop_heap_0@PAUtagBaseCharDistanceSq@@U1@VBaseCharDistanceSqSort2@@@std@@YAXPAUtagBaseCharDistanceSq@@0VBaseCharDistanceSqSort2@@0@Z:
  00008	8b 54 24 08	 mov	 edx, DWORD PTR [esp+8]
  0000c	8d 42 0c	 lea	 eax, DWORD PTR [edx+12]
  0000f	8b 4a cc	 mov	 ecx, DWORD PTR [edx-52]
  00012	33 c8		 xor	 ecx, eax
  00014	e8 00 00 00 00	 call	 @__security_check_cookie@4
  00019	8b 4a fc	 mov	 ecx, DWORD PTR [edx-4]
  0001c	33 c8		 xor	 ecx, eax
  0001e	e8 00 00 00 00	 call	 @__security_check_cookie@4
  00023	b8 00 00 00 00	 mov	 eax, OFFSET __ehfuncinfo$??$_Pop_heap_0@PAUtagBaseCharDistanceSq@@U1@VBaseCharDistanceSqSort2@@@std@@YAXPAUtagBaseCharDistanceSq@@0VBaseCharDistanceSqSort2@@0@Z
  00028	e9 00 00 00 00	 jmp	 ___CxxFrameHandler3
text$x	ENDS
??$_Pop_heap_0@PAUtagBaseCharDistanceSq@@U1@VBaseCharDistanceSqSort2@@@std@@YAXPAUtagBaseCharDistanceSq@@0VBaseCharDistanceSqSort2@@0@Z ENDP ; std::_Pop_heap_0<tagBaseCharDistanceSq *,tagBaseCharDistanceSq,BaseCharDistanceSqSort2>
PUBLIC	??1?$vector@PAVioBaseChar@@V?$allocator@PAVioBaseChar@@@std@@@std@@QAE@XZ ; std::vector<ioBaseChar *,std::allocator<ioBaseChar *> >::~vector<ioBaseChar *,std::allocator<ioBaseChar *> >
; Function compile flags: /Ogsp
; File c:\program files (x86)\microsoft visual studio 10.0\vc\include\vector
;	COMDAT ??1?$vector@PAVioBaseChar@@V?$allocator@PAVioBaseChar@@@std@@@std@@QAE@XZ
_TEXT	SEGMENT
??1?$vector@PAVioBaseChar@@V?$allocator@PAVioBaseChar@@@std@@@std@@QAE@XZ PROC ; std::vector<ioBaseChar *,std::allocator<ioBaseChar *> >::~vector<ioBaseChar *,std::allocator<ioBaseChar *> >, COMDAT
; _this$ = ecx

; 705  : 		_Tidy();

  00000	e9 00 00 00 00	 jmp	 ?_Tidy@?$vector@PAVioBaseChar@@V?$allocator@PAVioBaseChar@@@std@@@std@@IAEXXZ ; std::vector<ioBaseChar *,std::allocator<ioBaseChar *> >::_Tidy
??1?$vector@PAVioBaseChar@@V?$allocator@PAVioBaseChar@@@std@@@std@@QAE@XZ ENDP ; std::vector<ioBaseChar *,std::allocator<ioBaseChar *> >::~vector<ioBaseChar *,std::allocator<ioBaseChar *> >
_TEXT	ENDS
PUBLIC	??$_Destroy_range@V?$allocator@UtagBaseCharDistanceSq@@@std@@@std@@YAXPAUtagBaseCharDistanceSq@@0AAV?$allocator@UtagBaseCharDistanceSq@@@0@U_Nonscalar_ptr_iterator_tag@0@@Z ; std::_Destroy_range<std::allocator<tagBaseCharDistanceSq> >
; Function compile flags: /Ogsp
; File c:\program files (x86)\microsoft visual studio 10.0\vc\include\xmemory
;	COMDAT ??$_Destroy_range@V?$allocator@UtagBaseCharDistanceSq@@@std@@@std@@YAXPAUtagBaseCharDistanceSq@@0AAV?$allocator@UtagBaseCharDistanceSq@@@0@U_Nonscalar_ptr_iterator_tag@0@@Z
_TEXT	SEGMENT
__First$ = 8						; size = 4
__Last$ = 12						; size = 4
__Al$ = 16						; size = 4
___formal$ = 20						; size = 1
??$_Destroy_range@V?$allocator@UtagBaseCharDistanceSq@@@std@@@std@@YAXPAUtagBaseCharDistanceSq@@0AAV?$allocator@UtagBaseCharDistanceSq@@@0@U_Nonscalar_ptr_iterator_tag@0@@Z PROC ; std::_Destroy_range<std::allocator<tagBaseCharDistanceSq> >, COMDAT

; 95   : 	{	// destroy [_First, _Last), arbitrary type

  00000	55		 push	 ebp
  00001	8b ec		 mov	 ebp, esp
  00003	56		 push	 esi

; 96   : 	for (; _First != _Last; ++_First)

  00004	8b 75 08	 mov	 esi, DWORD PTR __First$[ebp]
  00007	eb 0b		 jmp	 SHORT $LN20@Destroy_ra
$LL3@Destroy_ra:

; 97   : 		_Dest_val(_Al, _First);

  00009	8b ce		 mov	 ecx, esi
  0000b	ff 15 00 00 00
	00		 call	 DWORD PTR __imp_??1ioHashString@@QAE@XZ
  00011	83 c6 20	 add	 esi, 32			; 00000020H
$LN20@Destroy_ra:

; 96   : 	for (; _First != _Last; ++_First)

  00014	3b 75 0c	 cmp	 esi, DWORD PTR __Last$[ebp]
  00017	75 f0		 jne	 SHORT $LL3@Destroy_ra
  00019	5e		 pop	 esi

; 98   : 	}

  0001a	5d		 pop	 ebp
  0001b	c3		 ret	 0
??$_Destroy_range@V?$allocator@UtagBaseCharDistanceSq@@@std@@@std@@YAXPAUtagBaseCharDistanceSq@@0AAV?$allocator@UtagBaseCharDistanceSq@@@0@U_Nonscalar_ptr_iterator_tag@0@@Z ENDP ; std::_Destroy_range<std::allocator<tagBaseCharDistanceSq> >
_TEXT	ENDS
PUBLIC	??$_Unguarded_partition@PAUtagBaseCharDistanceSq@@VBaseCharDistanceSqSort2@@@std@@YA?AU?$pair@PAUtagBaseCharDistanceSq@@PAU1@@0@PAUtagBaseCharDistanceSq@@0VBaseCharDistanceSqSort2@@@Z ; std::_Unguarded_partition<tagBaseCharDistanceSq *,BaseCharDistanceSqSort2>
; Function compile flags: /Ogsp
; File c:\program files (x86)\microsoft visual studio 10.0\vc\include\algorithm
;	COMDAT ??$_Unguarded_partition@PAUtagBaseCharDistanceSq@@VBaseCharDistanceSqSort2@@@std@@YA?AU?$pair@PAUtagBaseCharDistanceSq@@PAU1@@0@PAUtagBaseCharDistanceSq@@0VBaseCharDistanceSqSort2@@@Z
_TEXT	SEGMENT
__Glast$ = -4						; size = 4
___$ReturnUdt$ = 8					; size = 4
__First$ = 12						; size = 4
__Last$ = 16						; size = 4
__Pred$ = 20						; size = 1
??$_Unguarded_partition@PAUtagBaseCharDistanceSq@@VBaseCharDistanceSqSort2@@@std@@YA?AU?$pair@PAUtagBaseCharDistanceSq@@PAU1@@0@PAUtagBaseCharDistanceSq@@0VBaseCharDistanceSqSort2@@@Z PROC ; std::_Unguarded_partition<tagBaseCharDistanceSq *,BaseCharDistanceSqSort2>, COMDAT

; 3712 : 	{	// partition [_First, _Last), using _Pred

  00000	55		 push	 ebp
  00001	8b ec		 mov	 ebp, esp
  00003	51		 push	 ecx

; 3713 : 	_RanIt _Mid = _First + (_Last - _First) / 2;

  00004	8b 4d 10	 mov	 ecx, DWORD PTR __Last$[ebp]
  00007	53		 push	 ebx
  00008	8b 5d 0c	 mov	 ebx, DWORD PTR __First$[ebp]
  0000b	8b c1		 mov	 eax, ecx
  0000d	2b c3		 sub	 eax, ebx
  0000f	56		 push	 esi
  00010	c1 f8 05	 sar	 eax, 5
  00013	99		 cdq
  00014	2b c2		 sub	 eax, edx
  00016	57		 push	 edi

; 3714 : 	_Median(_First, _Mid, _Last - 1, _Pred);

  00017	ff 75 14	 push	 DWORD PTR __Pred$[ebp]
  0001a	8b f0		 mov	 esi, eax
  0001c	d1 fe		 sar	 esi, 1
  0001e	83 c1 e0	 add	 ecx, -32		; ffffffe0H
  00021	c1 e6 05	 shl	 esi, 5
  00024	51		 push	 ecx
  00025	03 f3		 add	 esi, ebx
  00027	56		 push	 esi
  00028	53		 push	 ebx
  00029	e8 00 00 00 00	 call	 ??$_Median@PAUtagBaseCharDistanceSq@@VBaseCharDistanceSqSort2@@@std@@YAXPAUtagBaseCharDistanceSq@@00VBaseCharDistanceSqSort2@@@Z ; std::_Median<tagBaseCharDistanceSq *,BaseCharDistanceSqSort2>
  0002e	83 c4 10	 add	 esp, 16			; 00000010H

; 3715 : 	_RanIt _Pfirst = _Mid;
; 3716 : 	_RanIt _Plast = _Pfirst + 1;

  00031	8d 7e 20	 lea	 edi, DWORD PTR [esi+32]
  00034	eb 25		 jmp	 SHORT $LN100@Unguarded_
$LL27@Unguarded_:

; 3717 : 
; 3718 : 	while (_First < _Pfirst
; 3719 : 		&& !_DEBUG_LT_PRED(_Pred, *(_Pfirst - 1), *_Pfirst)
; 3720 : 		&& !_Pred(*_Pfirst, *(_Pfirst - 1)))

  00036	f3 0f 10 46 f0	 movss	 xmm0, DWORD PTR [esi-16]
  0003b	f3 0f 10 4e 10	 movss	 xmm1, DWORD PTR [esi+16]
  00040	0f 5a d0	 cvtps2pd xmm2, xmm0
  00043	0f 5a d9	 cvtps2pd xmm3, xmm1
  00046	66 0f 2f da	 comisd	 xmm3, xmm2
  0004a	77 13		 ja	 SHORT $LN94@Unguarded_
  0004c	0f 5a c9	 cvtps2pd xmm1, xmm1
  0004f	0f 5a c0	 cvtps2pd xmm0, xmm0
  00052	66 0f 2f c1	 comisd	 xmm0, xmm1
  00056	77 07		 ja	 SHORT $LN94@Unguarded_

; 3721 : 		--_Pfirst;

  00058	83 ee 20	 sub	 esi, 32			; 00000020H
$LN100@Unguarded_:

; 3717 : 
; 3718 : 	while (_First < _Pfirst
; 3719 : 		&& !_DEBUG_LT_PRED(_Pred, *(_Pfirst - 1), *_Pfirst)
; 3720 : 		&& !_Pred(*_Pfirst, *(_Pfirst - 1)))

  0005b	3b de		 cmp	 ebx, esi
  0005d	72 d7		 jb	 SHORT $LL27@Unguarded_
$LN94@Unguarded_:

; 3722 : 	while (_Plast < _Last
; 3723 : 		&& !_DEBUG_LT_PRED(_Pred, *_Plast, *_Pfirst)
; 3724 : 		&& !_Pred(*_Pfirst, *_Plast))

  0005f	3b 7d 10	 cmp	 edi, DWORD PTR __Last$[ebp]
  00062	73 32		 jae	 SHORT $LN96@Unguarded_
  00064	f3 0f 10 4e 10	 movss	 xmm1, DWORD PTR [esi+16]
$LL25@Unguarded_:
  00069	f3 0f 10 47 10	 movss	 xmm0, DWORD PTR [edi+16]
  0006e	0f 57 db	 xorps	 xmm3, xmm3
  00071	0f 5a d0	 cvtps2pd xmm2, xmm0
  00074	f3 0f 5a d9	 cvtss2sd xmm3, xmm1
  00078	66 0f 2f da	 comisd	 xmm3, xmm2
  0007c	77 18		 ja	 SHORT $LN96@Unguarded_
  0007e	0f 57 d2	 xorps	 xmm2, xmm2
  00081	f3 0f 5a d1	 cvtss2sd xmm2, xmm1
  00085	0f 5a c0	 cvtps2pd xmm0, xmm0
  00088	66 0f 2f c2	 comisd	 xmm0, xmm2
  0008c	77 08		 ja	 SHORT $LN96@Unguarded_

; 3725 : 		++_Plast;

  0008e	83 c7 20	 add	 edi, 32			; 00000020H
  00091	3b 7d 10	 cmp	 edi, DWORD PTR __Last$[ebp]
  00094	72 d3		 jb	 SHORT $LL25@Unguarded_
$LN96@Unguarded_:

; 3726 : 
; 3727 : 	_RanIt _Gfirst = _Plast;

  00096	8b df		 mov	 ebx, edi

; 3728 : 	_RanIt _Glast = _Pfirst;

  00098	89 75 fc	 mov	 DWORD PTR __Glast$[ebp], esi

; 3729 : 
; 3730 : 	for (; ; )
; 3731 : 		{	// partition
; 3732 : 		for (; _Gfirst < _Last; ++_Gfirst)

  0009b	eb 33		 jmp	 SHORT $LN102@Unguarded_
$LL21@Unguarded_:

; 3733 : 			if (_DEBUG_LT_PRED(_Pred, *_Pfirst, *_Gfirst))

  0009d	f3 0f 10 46 10	 movss	 xmm0, DWORD PTR [esi+16]
  000a2	f3 0f 10 4b 10	 movss	 xmm1, DWORD PTR [ebx+16]
  000a7	0f 5a d0	 cvtps2pd xmm2, xmm0
  000aa	0f 5a d9	 cvtps2pd xmm3, xmm1
  000ad	66 0f 2f da	 comisd	 xmm3, xmm2
  000b1	77 1a		 ja	 SHORT $LN20@Unguarded_

; 3734 : 				;
; 3735 : 			else if (_Pred(*_Gfirst, *_Pfirst))

  000b3	0f 5a c9	 cvtps2pd xmm1, xmm1
  000b6	0f 5a c0	 cvtps2pd xmm0, xmm0
  000b9	66 0f 2f c1	 comisd	 xmm0, xmm1
  000bd	77 52		 ja	 SHORT $LN97@Unguarded_

; 3736 : 				break;
; 3737 : 			else
; 3738 : 				_STD iter_swap(_Plast++, _Gfirst);

  000bf	8b c7		 mov	 eax, edi
  000c1	53		 push	 ebx
  000c2	83 c7 20	 add	 edi, 32			; 00000020H
  000c5	50		 push	 eax
$LN104@Unguarded_:
  000c6	e8 00 00 00 00	 call	 ??$swap@UtagBaseCharDistanceSq@@@std@@YAXAAUtagBaseCharDistanceSq@@0@Z ; std::swap<tagBaseCharDistanceSq>
  000cb	59		 pop	 ecx
  000cc	59		 pop	 ecx
$LN20@Unguarded_:

; 3729 : 
; 3730 : 	for (; ; )
; 3731 : 		{	// partition
; 3732 : 		for (; _Gfirst < _Last; ++_Gfirst)

  000cd	83 c3 20	 add	 ebx, 32			; 00000020H
$LN102@Unguarded_:
  000d0	3b 5d 10	 cmp	 ebx, DWORD PTR __Last$[ebp]
  000d3	72 c8		 jb	 SHORT $LL21@Unguarded_

; 3739 : 		for (; _First < _Glast; --_Glast)

  000d5	eb 3a		 jmp	 SHORT $LN97@Unguarded_
$LL99@Unguarded_:

; 3740 : 			if (_DEBUG_LT_PRED(_Pred, *(_Glast - 1), *_Pfirst))

  000d7	8b 4d fc	 mov	 ecx, DWORD PTR __Glast$[ebp]
  000da	f3 0f 10 41 f0	 movss	 xmm0, DWORD PTR [ecx-16]
  000df	f3 0f 10 4e 10	 movss	 xmm1, DWORD PTR [esi+16]
  000e4	0f 5a d0	 cvtps2pd xmm2, xmm0
  000e7	0f 5a d9	 cvtps2pd xmm3, xmm1
  000ea	66 0f 2f da	 comisd	 xmm3, xmm2
  000ee	77 1d		 ja	 SHORT $LN13@Unguarded_

; 3741 : 				;
; 3742 : 			else if (_Pred(*_Pfirst, *(_Glast - 1)))

  000f0	0f 5a c9	 cvtps2pd xmm1, xmm1
  000f3	0f 5a c0	 cvtps2pd xmm0, xmm0
  000f6	66 0f 2f c1	 comisd	 xmm0, xmm1
  000fa	77 1d		 ja	 SHORT $LN98@Unguarded_

; 3739 : 		for (; _First < _Glast; --_Glast)

  000fc	8b c1		 mov	 eax, ecx
  000fe	83 c0 e0	 add	 eax, -32		; ffffffe0H

; 3743 : 				break;
; 3744 : 			else
; 3745 : 				_STD iter_swap(--_Pfirst, _Glast - 1);

  00101	83 ee 20	 sub	 esi, 32			; 00000020H
  00104	50		 push	 eax
  00105	56		 push	 esi
  00106	e8 00 00 00 00	 call	 ??$swap@UtagBaseCharDistanceSq@@@std@@YAXAAUtagBaseCharDistanceSq@@0@Z ; std::swap<tagBaseCharDistanceSq>
  0010b	59		 pop	 ecx
  0010c	59		 pop	 ecx
$LN13@Unguarded_:

; 3739 : 		for (; _First < _Glast; --_Glast)

  0010d	83 6d fc 20	 sub	 DWORD PTR __Glast$[ebp], 32 ; 00000020H
$LN97@Unguarded_:
  00111	8b 45 0c	 mov	 eax, DWORD PTR __First$[ebp]
  00114	3b 45 fc	 cmp	 eax, DWORD PTR __Glast$[ebp]
  00117	72 be		 jb	 SHORT $LL99@Unguarded_
$LN98@Unguarded_:

; 3746 : 		if (_Glast == _First && _Gfirst == _Last)

  00119	39 45 fc	 cmp	 DWORD PTR __Glast$[ebp], eax
  0011c	75 1f		 jne	 SHORT $LN6@Unguarded_
  0011e	3b 5d 10	 cmp	 ebx, DWORD PTR __Last$[ebp]
  00121	74 50		 je	 SHORT $LN88@Unguarded_

; 3748 : 
; 3749 : 		if (_Glast == _First)
; 3750 : 			{	// no room at bottom, rotate pivot upward
; 3751 : 			if (_Plast != _Gfirst)

  00123	3b fb		 cmp	 edi, ebx
  00125	74 09		 je	 SHORT $LN70@Unguarded_

; 3752 : 				_STD iter_swap(_Pfirst, _Plast);

  00127	57		 push	 edi
  00128	56		 push	 esi
  00129	e8 00 00 00 00	 call	 ??$swap@UtagBaseCharDistanceSq@@@std@@YAXAAUtagBaseCharDistanceSq@@0@Z ; std::swap<tagBaseCharDistanceSq>
  0012e	59		 pop	 ecx
  0012f	59		 pop	 ecx
$LN70@Unguarded_:

; 3753 : 			++_Plast;
; 3754 : 			_STD iter_swap(_Pfirst++, _Gfirst++);

  00130	53		 push	 ebx
  00131	56		 push	 esi
  00132	83 c7 20	 add	 edi, 32			; 00000020H
  00135	83 c6 20	 add	 esi, 32			; 00000020H
  00138	83 c3 20	 add	 ebx, 32			; 00000020H
  0013b	eb 21		 jmp	 SHORT $LN101@Unguarded_
$LN6@Unguarded_:

; 3755 : 			}
; 3756 : 		else if (_Gfirst == _Last)
; 3757 : 			{	// no room at top, rotate pivot downward
; 3758 : 			if (--_Glast != --_Pfirst)

  0013d	83 6d fc 20	 sub	 DWORD PTR __Glast$[ebp], 32 ; 00000020H
  00141	3b 5d 10	 cmp	 ebx, DWORD PTR __Last$[ebp]
  00144	75 24		 jne	 SHORT $LN3@Unguarded_
  00146	83 ee 20	 sub	 esi, 32			; 00000020H
  00149	39 75 fc	 cmp	 DWORD PTR __Glast$[ebp], esi
  0014c	74 0b		 je	 SHORT $LN74@Unguarded_

; 3759 : 				_STD iter_swap(_Glast, _Pfirst);

  0014e	56		 push	 esi
  0014f	ff 75 fc	 push	 DWORD PTR __Glast$[ebp]
  00152	e8 00 00 00 00	 call	 ??$swap@UtagBaseCharDistanceSq@@@std@@YAXAAUtagBaseCharDistanceSq@@0@Z ; std::swap<tagBaseCharDistanceSq>
  00157	59		 pop	 ecx
  00158	59		 pop	 ecx
$LN74@Unguarded_:

; 3760 : 			_STD iter_swap(_Pfirst, --_Plast);

  00159	83 ef 20	 sub	 edi, 32			; 00000020H
  0015c	57		 push	 edi
  0015d	56		 push	 esi
$LN101@Unguarded_:
  0015e	e8 00 00 00 00	 call	 ??$swap@UtagBaseCharDistanceSq@@@std@@YAXAAUtagBaseCharDistanceSq@@0@Z ; std::swap<tagBaseCharDistanceSq>
  00163	59		 pop	 ecx
  00164	59		 pop	 ecx

; 3761 : 			}
; 3762 : 		else

  00165	e9 66 ff ff ff	 jmp	 $LN102@Unguarded_
$LN3@Unguarded_:

; 3763 : 			_STD iter_swap(_Gfirst++, --_Glast);

  0016a	ff 75 fc	 push	 DWORD PTR __Glast$[ebp]
  0016d	53		 push	 ebx

; 3764 : 		}

  0016e	e9 53 ff ff ff	 jmp	 $LN104@Unguarded_
$LN88@Unguarded_:

; 3747 : 			return (_STD pair<_RanIt, _RanIt>(_Pfirst, _Plast));

  00173	8b 45 08	 mov	 eax, DWORD PTR ___$ReturnUdt$[ebp]
  00176	89 78 04	 mov	 DWORD PTR [eax+4], edi
  00179	5f		 pop	 edi
  0017a	89 30		 mov	 DWORD PTR [eax], esi
  0017c	5e		 pop	 esi
  0017d	5b		 pop	 ebx

; 3765 : 	}

  0017e	c9		 leave
  0017f	c3		 ret	 0
??$_Unguarded_partition@PAUtagBaseCharDistanceSq@@VBaseCharDistanceSqSort2@@@std@@YA?AU?$pair@PAUtagBaseCharDistanceSq@@PAU1@@0@PAUtagBaseCharDistanceSq@@0VBaseCharDistanceSqSort2@@@Z ENDP ; std::_Unguarded_partition<tagBaseCharDistanceSq *,BaseCharDistanceSqSort2>
_TEXT	ENDS
PUBLIC	??$make_heap@PAUtagBaseCharDistanceSq@@VBaseCharDistanceSqSort2@@@std@@YAXPAUtagBaseCharDistanceSq@@0VBaseCharDistanceSqSort2@@@Z ; std::make_heap<tagBaseCharDistanceSq *,BaseCharDistanceSqSort2>
; Function compile flags: /Ogsp
;	COMDAT ??$make_heap@PAUtagBaseCharDistanceSq@@VBaseCharDistanceSqSort2@@@std@@YAXPAUtagBaseCharDistanceSq@@0VBaseCharDistanceSqSort2@@@Z
_TEXT	SEGMENT
__First$ = 8						; size = 4
__Last$ = 12						; size = 4
__Pred$ = 16						; size = 1
??$make_heap@PAUtagBaseCharDistanceSq@@VBaseCharDistanceSqSort2@@@std@@YAXPAUtagBaseCharDistanceSq@@0VBaseCharDistanceSqSort2@@@Z PROC ; std::make_heap<tagBaseCharDistanceSq *,BaseCharDistanceSqSort2>, COMDAT

; 2672 : 	{	// make [_First, _Last) into a heap, using _Pred

  00000	55		 push	 ebp
  00001	8b ec		 mov	 ebp, esp

; 2673 : 	_DEBUG_RANGE(_First, _Last);
; 2674 : 	_DEBUG_POINTER(_Pred);
; 2675 : 	if (1 < _Last - _First)

  00003	8b 45 0c	 mov	 eax, DWORD PTR __Last$[ebp]
  00006	2b 45 08	 sub	 eax, DWORD PTR __First$[ebp]
  00009	83 e0 e0	 and	 eax, -32		; ffffffe0H
  0000c	83 f8 20	 cmp	 eax, 32			; 00000020H
  0000f	7e 15		 jle	 SHORT $LN1@make_heap

; 2676 : 		_Make_heap(_Unchecked(_First), _Unchecked(_Last), _Pred,
; 2677 : 			_Dist_type(_First), _Val_type(_First));

  00011	6a 00		 push	 0
  00013	6a 00		 push	 0
  00015	ff 75 10	 push	 DWORD PTR __Pred$[ebp]
  00018	ff 75 0c	 push	 DWORD PTR __Last$[ebp]
  0001b	ff 75 08	 push	 DWORD PTR __First$[ebp]
  0001e	e8 00 00 00 00	 call	 ??$_Make_heap@PAUtagBaseCharDistanceSq@@HU1@VBaseCharDistanceSqSort2@@@std@@YAXPAUtagBaseCharDistanceSq@@0VBaseCharDistanceSqSort2@@PAH0@Z ; std::_Make_heap<tagBaseCharDistanceSq *,int,tagBaseCharDistanceSq,BaseCharDistanceSqSort2>
  00023	83 c4 14	 add	 esp, 20			; 00000014H
$LN1@make_heap:

; 2678 : 	}

  00026	5d		 pop	 ebp
  00027	c3		 ret	 0
??$make_heap@PAUtagBaseCharDistanceSq@@VBaseCharDistanceSqSort2@@@std@@YAXPAUtagBaseCharDistanceSq@@0VBaseCharDistanceSqSort2@@@Z ENDP ; std::make_heap<tagBaseCharDistanceSq *,BaseCharDistanceSqSort2>
_TEXT	ENDS
PUBLIC	??$_Insertion_sort@PAUtagBaseCharDistanceSq@@VBaseCharDistanceSqSort2@@@std@@YAXPAUtagBaseCharDistanceSq@@0VBaseCharDistanceSqSort2@@@Z ; std::_Insertion_sort<tagBaseCharDistanceSq *,BaseCharDistanceSqSort2>
; Function compile flags: /Ogsp
;	COMDAT ??$_Insertion_sort@PAUtagBaseCharDistanceSq@@VBaseCharDistanceSqSort2@@@std@@YAXPAUtagBaseCharDistanceSq@@0VBaseCharDistanceSqSort2@@@Z
_TEXT	SEGMENT
__First$ = 8						; size = 4
__Last$ = 12						; size = 4
__Pred$ = 16						; size = 1
??$_Insertion_sort@PAUtagBaseCharDistanceSq@@VBaseCharDistanceSqSort2@@@std@@YAXPAUtagBaseCharDistanceSq@@0VBaseCharDistanceSqSort2@@@Z PROC ; std::_Insertion_sort<tagBaseCharDistanceSq *,BaseCharDistanceSqSort2>, COMDAT

; 3676 : 	{	// insertion sort [_First, _Last), using _Pred

  00000	55		 push	 ebp
  00001	8b ec		 mov	 ebp, esp

; 3677 : 	_Insertion_sort1(_First, _Last, _Pred, _Val_type(_First));

  00003	6a 00		 push	 0
  00005	ff 75 10	 push	 DWORD PTR __Pred$[ebp]
  00008	ff 75 0c	 push	 DWORD PTR __Last$[ebp]
  0000b	ff 75 08	 push	 DWORD PTR __First$[ebp]
  0000e	e8 00 00 00 00	 call	 ??$_Insertion_sort1@PAUtagBaseCharDistanceSq@@VBaseCharDistanceSqSort2@@U1@@std@@YAXPAUtagBaseCharDistanceSq@@0VBaseCharDistanceSqSort2@@0@Z ; std::_Insertion_sort1<tagBaseCharDistanceSq *,BaseCharDistanceSqSort2,tagBaseCharDistanceSq>
  00013	83 c4 10	 add	 esp, 16			; 00000010H

; 3678 : 	}

  00016	5d		 pop	 ebp
  00017	c3		 ret	 0
??$_Insertion_sort@PAUtagBaseCharDistanceSq@@VBaseCharDistanceSqSort2@@@std@@YAXPAUtagBaseCharDistanceSq@@0VBaseCharDistanceSqSort2@@@Z ENDP ; std::_Insertion_sort<tagBaseCharDistanceSq *,BaseCharDistanceSqSort2>
_TEXT	ENDS
PUBLIC	??$_Uninit_move@PAUtagBaseCharDistanceSq@@PAU1@V?$allocator@UtagBaseCharDistanceSq@@@std@@U1@@std@@YAPAUtagBaseCharDistanceSq@@PAU1@00AAV?$allocator@UtagBaseCharDistanceSq@@@0@0U_Nonscalar_ptr_iterator_tag@0@@Z ; std::_Uninit_move<tagBaseCharDistanceSq *,tagBaseCharDistanceSq *,std::allocator<tagBaseCharDistanceSq>,tagBaseCharDistanceSq>
EXTRN	__EH_prolog3_catch:PROC
;	COMDAT xdata$x
; File d:\lost saga for developer\youtube\tutorial\source\src\lsclient\iotargettrace10dummy.cpp
xdata$x	SEGMENT
__catchsym$??$_Uninit_move@PAUtagBaseCharDistanceSq@@PAU1@V?$allocator@UtagBaseCharDistanceSq@@@std@@U1@@std@@YAPAUtagBaseCharDistanceSq@@PAU1@00AAV?$allocator@UtagBaseCharDistanceSq@@@0@0U_Nonscalar_ptr_iterator_tag@0@@Z$3 DD 040H
	DD	00H
	DD	00H
	DD	FLAT:__catch$??$_Uninit_move@PAUtagBaseCharDistanceSq@@PAU1@V?$allocator@UtagBaseCharDistanceSq@@@std@@U1@@std@@YAPAUtagBaseCharDistanceSq@@PAU1@00AAV?$allocator@UtagBaseCharDistanceSq@@@0@0U_Nonscalar_ptr_iterator_tag@0@@Z$0
__unwindtable$??$_Uninit_move@PAUtagBaseCharDistanceSq@@PAU1@V?$allocator@UtagBaseCharDistanceSq@@@std@@U1@@std@@YAPAUtagBaseCharDistanceSq@@PAU1@00AAV?$allocator@UtagBaseCharDistanceSq@@@0@0U_Nonscalar_ptr_iterator_tag@0@@Z DD 0ffffffffH
	DD	00H
	DD	0ffffffffH
	DD	00H
__tryblocktable$??$_Uninit_move@PAUtagBaseCharDistanceSq@@PAU1@V?$allocator@UtagBaseCharDistanceSq@@@std@@U1@@std@@YAPAUtagBaseCharDistanceSq@@PAU1@00AAV?$allocator@UtagBaseCharDistanceSq@@@0@0U_Nonscalar_ptr_iterator_tag@0@@Z DD 00H
	DD	00H
	DD	01H
	DD	01H
	DD	FLAT:__catchsym$??$_Uninit_move@PAUtagBaseCharDistanceSq@@PAU1@V?$allocator@UtagBaseCharDistanceSq@@@std@@U1@@std@@YAPAUtagBaseCharDistanceSq@@PAU1@00AAV?$allocator@UtagBaseCharDistanceSq@@@0@0U_Nonscalar_ptr_iterator_tag@0@@Z$3
__ehfuncinfo$??$_Uninit_move@PAUtagBaseCharDistanceSq@@PAU1@V?$allocator@UtagBaseCharDistanceSq@@@std@@U1@@std@@YAPAUtagBaseCharDistanceSq@@PAU1@00AAV?$allocator@UtagBaseCharDistanceSq@@@0@0U_Nonscalar_ptr_iterator_tag@0@@Z DD 019930522H
	DD	02H
	DD	FLAT:__unwindtable$??$_Uninit_move@PAUtagBaseCharDistanceSq@@PAU1@V?$allocator@UtagBaseCharDistanceSq@@@std@@U1@@std@@YAPAUtagBaseCharDistanceSq@@PAU1@00AAV?$allocator@UtagBaseCharDistanceSq@@@0@0U_Nonscalar_ptr_iterator_tag@0@@Z
	DD	01H
	DD	FLAT:__tryblocktable$??$_Uninit_move@PAUtagBaseCharDistanceSq@@PAU1@V?$allocator@UtagBaseCharDistanceSq@@@std@@U1@@std@@YAPAUtagBaseCharDistanceSq@@PAU1@00AAV?$allocator@UtagBaseCharDistanceSq@@@0@0U_Nonscalar_ptr_iterator_tag@0@@Z
	DD	2 DUP(00H)
	DD	00H
	DD	01H
; Function compile flags: /Ogsp
; File c:\program files (x86)\microsoft visual studio 10.0\vc\include\memory
xdata$x	ENDS
;	COMDAT ??$_Uninit_move@PAUtagBaseCharDistanceSq@@PAU1@V?$allocator@UtagBaseCharDistanceSq@@@std@@U1@@std@@YAPAUtagBaseCharDistanceSq@@PAU1@00AAV?$allocator@UtagBaseCharDistanceSq@@@0@0U_Nonscalar_ptr_iterator_tag@0@@Z
_TEXT	SEGMENT
__Next$ = -20						; size = 4
__$EHRec$ = -16						; size = 16
__First$ = 8						; size = 4
__Last$ = 12						; size = 4
__Dest$ = 16						; size = 4
__Al$ = 20						; size = 4
___formal$ = 24						; size = 4
___formal$ = 28						; size = 1
??$_Uninit_move@PAUtagBaseCharDistanceSq@@PAU1@V?$allocator@UtagBaseCharDistanceSq@@@std@@U1@@std@@YAPAUtagBaseCharDistanceSq@@PAU1@00AAV?$allocator@UtagBaseCharDistanceSq@@@0@0U_Nonscalar_ptr_iterator_tag@0@@Z PROC ; std::_Uninit_move<tagBaseCharDistanceSq *,tagBaseCharDistanceSq *,std::allocator<tagBaseCharDistanceSq>,tagBaseCharDistanceSq>, COMDAT

; 424  : 	{	// move [_First, _Last) to raw _Dest, using _Al, arbitrary type

  00000	6a 08		 push	 8
  00002	b8 00 00 00 00	 mov	 eax, __ehhandler$??$_Uninit_move@PAUtagBaseCharDistanceSq@@PAU1@V?$allocator@UtagBaseCharDistanceSq@@@std@@U1@@std@@YAPAUtagBaseCharDistanceSq@@PAU1@00AAV?$allocator@UtagBaseCharDistanceSq@@@0@0U_Nonscalar_ptr_iterator_tag@0@@Z
  00007	e8 00 00 00 00	 call	 __EH_prolog3_catch

; 425  : 	_DEBUG_RANGE(_First, _Last);
; 426  : 	_DEBUG_POINTER(_Dest);
; 427  : 	_FwdIt _Next = _Dest;

  0000c	8b 45 10	 mov	 eax, DWORD PTR __Dest$[ebp]

; 428  : 
; 429  : 	_TRY_BEGIN

  0000f	83 65 fc 00	 and	 DWORD PTR __$EHRec$[ebp+12], 0
  00013	8b 75 08	 mov	 esi, DWORD PTR __First$[ebp]
  00016	89 45 ec	 mov	 DWORD PTR __Next$[ebp], eax
$LL6@Uninit_mov:

; 430  : 	for (; _First != _Last; ++_Dest, ++_First)

  00019	3b 75 0c	 cmp	 esi, DWORD PTR __Last$[ebp]
  0001c	74 36		 je	 SHORT $LN4@Uninit_mov

; 431  : 		_Cons_val(_Al, _Dest, (_Valty &&)*_First);

  0001e	56		 push	 esi
  0001f	ff 75 10	 push	 DWORD PTR __Dest$[ebp]
  00022	ff 75 14	 push	 DWORD PTR __Al$[ebp]
  00025	e8 00 00 00 00	 call	 ??$_Cons_val@V?$allocator@UtagBaseCharDistanceSq@@@std@@UtagBaseCharDistanceSq@@U3@@std@@YAXAAV?$allocator@UtagBaseCharDistanceSq@@@0@PAUtagBaseCharDistanceSq@@$$QAU2@@Z ; std::_Cons_val<std::allocator<tagBaseCharDistanceSq>,tagBaseCharDistanceSq,tagBaseCharDistanceSq>
  0002a	83 45 10 20	 add	 DWORD PTR __Dest$[ebp], 32 ; 00000020H
  0002e	83 c4 0c	 add	 esp, 12			; 0000000cH
  00031	83 c6 20	 add	 esi, 32			; 00000020H
  00034	eb e3		 jmp	 SHORT $LL6@Uninit_mov
__catch$??$_Uninit_move@PAUtagBaseCharDistanceSq@@PAU1@V?$allocator@UtagBaseCharDistanceSq@@@std@@U1@@std@@YAPAUtagBaseCharDistanceSq@@PAU1@00AAV?$allocator@UtagBaseCharDistanceSq@@@0@0U_Nonscalar_ptr_iterator_tag@0@@Z$0:

; 432  : 	_CATCH_ALL
; 433  : 	for (; _Next != _Dest; ++_Next)

  00036	8b 75 ec	 mov	 esi, DWORD PTR __Next$[ebp]
  00039	eb 0b		 jmp	 SHORT $LN32@Uninit_mov
$LL3@Uninit_mov:

; 434  : 		_Dest_val(_Al, _Next);

  0003b	8b ce		 mov	 ecx, esi
  0003d	ff 15 00 00 00
	00		 call	 DWORD PTR __imp_??1ioHashString@@QAE@XZ
  00043	83 c6 20	 add	 esi, 32			; 00000020H
$LN32@Uninit_mov:

; 432  : 	_CATCH_ALL
; 433  : 	for (; _Next != _Dest; ++_Next)

  00046	3b 75 10	 cmp	 esi, DWORD PTR __Dest$[ebp]
  00049	75 f0		 jne	 SHORT $LL3@Uninit_mov

; 435  : 	_RERAISE;

  0004b	6a 00		 push	 0
  0004d	6a 00		 push	 0
  0004f	e8 00 00 00 00	 call	 __CxxThrowException@8
$LN33@Uninit_mov:
$LN4@Uninit_mov:

; 436  : 	_CATCH_END
; 437  : 	return (_Dest);

  00054	8b 45 10	 mov	 eax, DWORD PTR __Dest$[ebp]

; 438  : 	}

  00057	e8 00 00 00 00	 call	 __EH_epilog3
  0005c	c3		 ret	 0
$LN31@Uninit_mov:
_TEXT	ENDS
;	COMDAT text$x
text$x	SEGMENT
__ehhandler$??$_Uninit_move@PAUtagBaseCharDistanceSq@@PAU1@V?$allocator@UtagBaseCharDistanceSq@@@std@@U1@@std@@YAPAUtagBaseCharDistanceSq@@PAU1@00AAV?$allocator@UtagBaseCharDistanceSq@@@0@0U_Nonscalar_ptr_iterator_tag@0@@Z:
  00000	8b 54 24 08	 mov	 edx, DWORD PTR [esp+8]
  00004	8d 42 0c	 lea	 eax, DWORD PTR [edx+12]
  00007	8b 4a e8	 mov	 ecx, DWORD PTR [edx-24]
  0000a	33 c8		 xor	 ecx, eax
  0000c	e8 00 00 00 00	 call	 @__security_check_cookie@4
  00011	b8 00 00 00 00	 mov	 eax, OFFSET __ehfuncinfo$??$_Uninit_move@PAUtagBaseCharDistanceSq@@PAU1@V?$allocator@UtagBaseCharDistanceSq@@@std@@U1@@std@@YAPAUtagBaseCharDistanceSq@@PAU1@00AAV?$allocator@UtagBaseCharDistanceSq@@@0@0U_Nonscalar_ptr_iterator_tag@0@@Z
  00016	e9 00 00 00 00	 jmp	 ___CxxFrameHandler3
text$x	ENDS
??$_Uninit_move@PAUtagBaseCharDistanceSq@@PAU1@V?$allocator@UtagBaseCharDistanceSq@@@std@@U1@@std@@YAPAUtagBaseCharDistanceSq@@PAU1@00AAV?$allocator@UtagBaseCharDistanceSq@@@0@0U_Nonscalar_ptr_iterator_tag@0@@Z ENDP ; std::_Uninit_move<tagBaseCharDistanceSq *,tagBaseCharDistanceSq *,std::allocator<tagBaseCharDistanceSq>,tagBaseCharDistanceSq>
PUBLIC	??$_Pop_heap@PAUtagBaseCharDistanceSq@@VBaseCharDistanceSqSort2@@@std@@YAXPAUtagBaseCharDistanceSq@@0VBaseCharDistanceSqSort2@@@Z ; std::_Pop_heap<tagBaseCharDistanceSq *,BaseCharDistanceSqSort2>
; Function compile flags: /Ogsp
; File c:\program files (x86)\microsoft visual studio 10.0\vc\include\algorithm
;	COMDAT ??$_Pop_heap@PAUtagBaseCharDistanceSq@@VBaseCharDistanceSqSort2@@@std@@YAXPAUtagBaseCharDistanceSq@@0VBaseCharDistanceSqSort2@@@Z
_TEXT	SEGMENT
__First$ = 8						; size = 4
__Last$ = 12						; size = 4
__Pred$ = 16						; size = 1
??$_Pop_heap@PAUtagBaseCharDistanceSq@@VBaseCharDistanceSqSort2@@@std@@YAXPAUtagBaseCharDistanceSq@@0VBaseCharDistanceSqSort2@@@Z PROC ; std::_Pop_heap<tagBaseCharDistanceSq *,BaseCharDistanceSqSort2>, COMDAT

; 2610 : 	{	// pop *_First to *(_Last - 1) and reheap, using _Pred

  00000	55		 push	 ebp
  00001	8b ec		 mov	 ebp, esp

; 2611 : 	_Pop_heap_0(_Unchecked(_First), _Unchecked(_Last), _Pred,
; 2612 : 		_Val_type(_First));

  00003	6a 00		 push	 0
  00005	ff 75 10	 push	 DWORD PTR __Pred$[ebp]
  00008	ff 75 0c	 push	 DWORD PTR __Last$[ebp]
  0000b	ff 75 08	 push	 DWORD PTR __First$[ebp]
  0000e	e8 00 00 00 00	 call	 ??$_Pop_heap_0@PAUtagBaseCharDistanceSq@@U1@VBaseCharDistanceSqSort2@@@std@@YAXPAUtagBaseCharDistanceSq@@0VBaseCharDistanceSqSort2@@0@Z ; std::_Pop_heap_0<tagBaseCharDistanceSq *,tagBaseCharDistanceSq,BaseCharDistanceSqSort2>
  00013	83 c4 10	 add	 esp, 16			; 00000010H

; 2613 : 	}

  00016	5d		 pop	 ebp
  00017	c3		 ret	 0
??$_Pop_heap@PAUtagBaseCharDistanceSq@@VBaseCharDistanceSqSort2@@@std@@YAXPAUtagBaseCharDistanceSq@@0VBaseCharDistanceSqSort2@@@Z ENDP ; std::_Pop_heap<tagBaseCharDistanceSq *,BaseCharDistanceSqSort2>
_TEXT	ENDS
PUBLIC	??$_Destroy_range@V?$allocator@UtagBaseCharDistanceSq@@@std@@@std@@YAXPAUtagBaseCharDistanceSq@@0AAV?$allocator@UtagBaseCharDistanceSq@@@0@@Z ; std::_Destroy_range<std::allocator<tagBaseCharDistanceSq> >
; Function compile flags: /Ogsp
; File c:\program files (x86)\microsoft visual studio 10.0\vc\include\xmemory
;	COMDAT ??$_Destroy_range@V?$allocator@UtagBaseCharDistanceSq@@@std@@@std@@YAXPAUtagBaseCharDistanceSq@@0AAV?$allocator@UtagBaseCharDistanceSq@@@0@@Z
_TEXT	SEGMENT
__First$ = 8						; size = 4
__Last$ = 12						; size = 4
__Al$ = 16						; size = 4
??$_Destroy_range@V?$allocator@UtagBaseCharDistanceSq@@@std@@@std@@YAXPAUtagBaseCharDistanceSq@@0AAV?$allocator@UtagBaseCharDistanceSq@@@0@@Z PROC ; std::_Destroy_range<std::allocator<tagBaseCharDistanceSq> >, COMDAT

; 87   : 	{	// destroy [_First, _Last)

  00000	55		 push	 ebp
  00001	8b ec		 mov	 ebp, esp
  00003	56		 push	 esi

; 88   : 	_Destroy_range(_First, _Last, _Al, _Ptr_cat(_First, _Last));

  00004	8b 75 08	 mov	 esi, DWORD PTR __First$[ebp]
  00007	eb 0b		 jmp	 SHORT $LN24@Destroy_ra@2
$LL7@Destroy_ra@2:
  00009	8b ce		 mov	 ecx, esi
  0000b	ff 15 00 00 00
	00		 call	 DWORD PTR __imp_??1ioHashString@@QAE@XZ
  00011	83 c6 20	 add	 esi, 32			; 00000020H
$LN24@Destroy_ra@2:
  00014	3b 75 0c	 cmp	 esi, DWORD PTR __Last$[ebp]
  00017	75 f0		 jne	 SHORT $LL7@Destroy_ra@2
  00019	5e		 pop	 esi

; 89   : 	}

  0001a	5d		 pop	 ebp
  0001b	c3		 ret	 0
??$_Destroy_range@V?$allocator@UtagBaseCharDistanceSq@@@std@@@std@@YAXPAUtagBaseCharDistanceSq@@0AAV?$allocator@UtagBaseCharDistanceSq@@@0@@Z ENDP ; std::_Destroy_range<std::allocator<tagBaseCharDistanceSq> >
_TEXT	ENDS
PUBLIC	??$_Uninitialized_move@PAUtagBaseCharDistanceSq@@PAU1@V?$allocator@UtagBaseCharDistanceSq@@@std@@@std@@YAPAUtagBaseCharDistanceSq@@PAU1@00AAV?$allocator@UtagBaseCharDistanceSq@@@0@@Z ; std::_Uninitialized_move<tagBaseCharDistanceSq *,tagBaseCharDistanceSq *,std::allocator<tagBaseCharDistanceSq> >
; Function compile flags: /Ogsp
; File c:\program files (x86)\microsoft visual studio 10.0\vc\include\memory
;	COMDAT ??$_Uninitialized_move@PAUtagBaseCharDistanceSq@@PAU1@V?$allocator@UtagBaseCharDistanceSq@@@std@@@std@@YAPAUtagBaseCharDistanceSq@@PAU1@00AAV?$allocator@UtagBaseCharDistanceSq@@@0@@Z
_TEXT	SEGMENT
__Cat$557584 = -4					; size = 1
__First$ = 8						; size = 4
__Last$ = 12						; size = 4
__Dest$ = 16						; size = 4
__Al$ = 20						; size = 4
??$_Uninitialized_move@PAUtagBaseCharDistanceSq@@PAU1@V?$allocator@UtagBaseCharDistanceSq@@@std@@@std@@YAPAUtagBaseCharDistanceSq@@PAU1@00AAV?$allocator@UtagBaseCharDistanceSq@@@0@@Z PROC ; std::_Uninitialized_move<tagBaseCharDistanceSq *,tagBaseCharDistanceSq *,std::allocator<tagBaseCharDistanceSq> >, COMDAT

; 469  : 	{	// move [_First, _Last) to raw _Dest, using _Al

  00000	55		 push	 ebp
  00001	8b ec		 mov	 ebp, esp
  00003	51		 push	 ecx

; 470  : 	return (_Uninit_move(_First, _Last, _Dest, _Al,
; 471  : 		_Val_type(_First), _Ptr_cat(_First, _Dest)));

  00004	ff 75 fc	 push	 DWORD PTR __Cat$557584[ebp]
  00007	6a 00		 push	 0
  00009	ff 75 14	 push	 DWORD PTR __Al$[ebp]
  0000c	ff 75 10	 push	 DWORD PTR __Dest$[ebp]
  0000f	ff 75 0c	 push	 DWORD PTR __Last$[ebp]
  00012	ff 75 08	 push	 DWORD PTR __First$[ebp]
  00015	e8 00 00 00 00	 call	 ??$_Uninit_move@PAUtagBaseCharDistanceSq@@PAU1@V?$allocator@UtagBaseCharDistanceSq@@@std@@U1@@std@@YAPAUtagBaseCharDistanceSq@@PAU1@00AAV?$allocator@UtagBaseCharDistanceSq@@@0@0U_Nonscalar_ptr_iterator_tag@0@@Z ; std::_Uninit_move<tagBaseCharDistanceSq *,tagBaseCharDistanceSq *,std::allocator<tagBaseCharDistanceSq>,tagBaseCharDistanceSq>
  0001a	83 c4 18	 add	 esp, 24			; 00000018H

; 472  : 	}

  0001d	c9		 leave
  0001e	c3		 ret	 0
??$_Uninitialized_move@PAUtagBaseCharDistanceSq@@PAU1@V?$allocator@UtagBaseCharDistanceSq@@@std@@@std@@YAPAUtagBaseCharDistanceSq@@PAU1@00AAV?$allocator@UtagBaseCharDistanceSq@@@0@@Z ENDP ; std::_Uninitialized_move<tagBaseCharDistanceSq *,tagBaseCharDistanceSq *,std::allocator<tagBaseCharDistanceSq> >
_TEXT	ENDS
PUBLIC	??$_Sort_heap@PAUtagBaseCharDistanceSq@@VBaseCharDistanceSqSort2@@@std@@YAXPAUtagBaseCharDistanceSq@@0VBaseCharDistanceSqSort2@@@Z ; std::_Sort_heap<tagBaseCharDistanceSq *,BaseCharDistanceSqSort2>
; Function compile flags: /Ogsp
; File c:\program files (x86)\microsoft visual studio 10.0\vc\include\algorithm
;	COMDAT ??$_Sort_heap@PAUtagBaseCharDistanceSq@@VBaseCharDistanceSqSort2@@@std@@YAXPAUtagBaseCharDistanceSq@@0VBaseCharDistanceSqSort2@@@Z
_TEXT	SEGMENT
__First$ = 8						; size = 4
__Last$ = 12						; size = 4
__Pred$ = 16						; size = 1
??$_Sort_heap@PAUtagBaseCharDistanceSq@@VBaseCharDistanceSqSort2@@@std@@YAXPAUtagBaseCharDistanceSq@@0VBaseCharDistanceSqSort2@@@Z PROC ; std::_Sort_heap<tagBaseCharDistanceSq *,BaseCharDistanceSqSort2>, COMDAT

; 2700 : 	{	// order heap by repeatedly popping, using _Pred

  00000	55		 push	 ebp
  00001	8b ec		 mov	 ebp, esp

; 2701 : 	for (; 1 < _Last - _First; --_Last)

  00003	8b 45 0c	 mov	 eax, DWORD PTR __Last$[ebp]
  00006	2b 45 08	 sub	 eax, DWORD PTR __First$[ebp]
  00009	8b c8		 mov	 ecx, eax
  0000b	83 e1 e0	 and	 ecx, -32		; ffffffe0H
  0000e	83 f9 20	 cmp	 ecx, 32			; 00000020H
  00011	7e 28		 jle	 SHORT $LN1@Sort_heap
  00013	57		 push	 edi
  00014	8b f8		 mov	 edi, eax
$LL3@Sort_heap:

; 2702 : 		_Pop_heap(_First, _Last, _Pred);

  00016	6a 00		 push	 0
  00018	ff 75 10	 push	 DWORD PTR __Pred$[ebp]
  0001b	ff 75 0c	 push	 DWORD PTR __Last$[ebp]
  0001e	ff 75 08	 push	 DWORD PTR __First$[ebp]
  00021	e8 00 00 00 00	 call	 ??$_Pop_heap_0@PAUtagBaseCharDistanceSq@@U1@VBaseCharDistanceSqSort2@@@std@@YAXPAUtagBaseCharDistanceSq@@0VBaseCharDistanceSqSort2@@0@Z ; std::_Pop_heap_0<tagBaseCharDistanceSq *,tagBaseCharDistanceSq,BaseCharDistanceSqSort2>
  00026	83 6d 0c 20	 sub	 DWORD PTR __Last$[ebp], 32 ; 00000020H
  0002a	83 ef 20	 sub	 edi, 32			; 00000020H
  0002d	8b c7		 mov	 eax, edi
  0002f	83 e0 e0	 and	 eax, -32		; ffffffe0H
  00032	83 c4 10	 add	 esp, 16			; 00000010H
  00035	83 f8 20	 cmp	 eax, 32			; 00000020H
  00038	7f dc		 jg	 SHORT $LL3@Sort_heap
  0003a	5f		 pop	 edi
$LN1@Sort_heap:

; 2703 : 	}

  0003b	5d		 pop	 ebp
  0003c	c3		 ret	 0
??$_Sort_heap@PAUtagBaseCharDistanceSq@@VBaseCharDistanceSqSort2@@@std@@YAXPAUtagBaseCharDistanceSq@@0VBaseCharDistanceSqSort2@@@Z ENDP ; std::_Sort_heap<tagBaseCharDistanceSq *,BaseCharDistanceSqSort2>
_TEXT	ENDS
PUBLIC	?_Destroy@?$vector@UtagBaseCharDistanceSq@@V?$allocator@UtagBaseCharDistanceSq@@@std@@@std@@IAEXPAUtagBaseCharDistanceSq@@0@Z ; std::vector<tagBaseCharDistanceSq,std::allocator<tagBaseCharDistanceSq> >::_Destroy
; Function compile flags: /Ogsp
; File c:\program files (x86)\microsoft visual studio 10.0\vc\include\vector
;	COMDAT ?_Destroy@?$vector@UtagBaseCharDistanceSq@@V?$allocator@UtagBaseCharDistanceSq@@@std@@@std@@IAEXPAUtagBaseCharDistanceSq@@0@Z
_TEXT	SEGMENT
__First$ = 8						; size = 4
__Last$ = 12						; size = 4
?_Destroy@?$vector@UtagBaseCharDistanceSq@@V?$allocator@UtagBaseCharDistanceSq@@@std@@@std@@IAEXPAUtagBaseCharDistanceSq@@0@Z PROC ; std::vector<tagBaseCharDistanceSq,std::allocator<tagBaseCharDistanceSq> >::_Destroy, COMDAT
; _this$ = ecx

; 1269 : 		{	// destroy [_First, _Last) using allocator

  00000	55		 push	 ebp
  00001	8b ec		 mov	 ebp, esp
  00003	56		 push	 esi

; 1270 : 		_Destroy_range(_First, _Last, this->_Alval);

  00004	8b 75 08	 mov	 esi, DWORD PTR __First$[ebp]
  00007	eb 0b		 jmp	 SHORT $LN26@Destroy
$LL9@Destroy:
  00009	8b ce		 mov	 ecx, esi
  0000b	ff 15 00 00 00
	00		 call	 DWORD PTR __imp_??1ioHashString@@QAE@XZ
  00011	83 c6 20	 add	 esi, 32			; 00000020H
$LN26@Destroy:
  00014	3b 75 0c	 cmp	 esi, DWORD PTR __Last$[ebp]
  00017	75 f0		 jne	 SHORT $LL9@Destroy
  00019	5e		 pop	 esi

; 1271 : 		}

  0001a	5d		 pop	 ebp
  0001b	c2 08 00	 ret	 8
?_Destroy@?$vector@UtagBaseCharDistanceSq@@V?$allocator@UtagBaseCharDistanceSq@@@std@@@std@@IAEXPAUtagBaseCharDistanceSq@@0@Z ENDP ; std::vector<tagBaseCharDistanceSq,std::allocator<tagBaseCharDistanceSq> >::_Destroy
_TEXT	ENDS
PUBLIC	??$_Umove@PAUtagBaseCharDistanceSq@@@?$vector@UtagBaseCharDistanceSq@@V?$allocator@UtagBaseCharDistanceSq@@@std@@@std@@IAEPAUtagBaseCharDistanceSq@@PAU2@00@Z ; std::vector<tagBaseCharDistanceSq,std::allocator<tagBaseCharDistanceSq> >::_Umove<tagBaseCharDistanceSq *>
; Function compile flags: /Ogsp
;	COMDAT ??$_Umove@PAUtagBaseCharDistanceSq@@@?$vector@UtagBaseCharDistanceSq@@V?$allocator@UtagBaseCharDistanceSq@@@std@@@std@@IAEPAUtagBaseCharDistanceSq@@PAU2@00@Z
_TEXT	SEGMENT
__First$ = 8						; size = 4
__Last$ = 12						; size = 4
__Ptr$ = 16						; size = 4
??$_Umove@PAUtagBaseCharDistanceSq@@@?$vector@UtagBaseCharDistanceSq@@V?$allocator@UtagBaseCharDistanceSq@@@std@@@std@@IAEPAUtagBaseCharDistanceSq@@PAU2@00@Z PROC ; std::vector<tagBaseCharDistanceSq,std::allocator<tagBaseCharDistanceSq> >::_Umove<tagBaseCharDistanceSq *>, COMDAT
; _this$ = ecx

; 1322 : 		pointer _Umove(_Iter _First, _Iter _Last, pointer _Ptr)

  00000	55		 push	 ebp
  00001	8b ec		 mov	 ebp, esp

; 1323 : 		{	// move initializing [_First, _Last), using allocator
; 1324 : 		return (_Uninitialized_move(_First, _Last,
; 1325 : 			_Ptr, this->_Alval));

  00003	83 c1 0c	 add	 ecx, 12			; 0000000cH
  00006	51		 push	 ecx
  00007	ff 75 10	 push	 DWORD PTR __Ptr$[ebp]
  0000a	ff 75 0c	 push	 DWORD PTR __Last$[ebp]
  0000d	ff 75 08	 push	 DWORD PTR __First$[ebp]
  00010	e8 00 00 00 00	 call	 ??$_Uninitialized_move@PAUtagBaseCharDistanceSq@@PAU1@V?$allocator@UtagBaseCharDistanceSq@@@std@@@std@@YAPAUtagBaseCharDistanceSq@@PAU1@00AAV?$allocator@UtagBaseCharDistanceSq@@@0@@Z ; std::_Uninitialized_move<tagBaseCharDistanceSq *,tagBaseCharDistanceSq *,std::allocator<tagBaseCharDistanceSq> >
  00015	83 c4 10	 add	 esp, 16			; 00000010H

; 1326 : 		}

  00018	5d		 pop	 ebp
  00019	c2 0c 00	 ret	 12			; 0000000cH
??$_Umove@PAUtagBaseCharDistanceSq@@@?$vector@UtagBaseCharDistanceSq@@V?$allocator@UtagBaseCharDistanceSq@@@std@@@std@@IAEPAUtagBaseCharDistanceSq@@PAU2@00@Z ENDP ; std::vector<tagBaseCharDistanceSq,std::allocator<tagBaseCharDistanceSq> >::_Umove<tagBaseCharDistanceSq *>
_TEXT	ENDS
PUBLIC	??$sort_heap@PAUtagBaseCharDistanceSq@@VBaseCharDistanceSqSort2@@@std@@YAXPAUtagBaseCharDistanceSq@@0VBaseCharDistanceSqSort2@@@Z ; std::sort_heap<tagBaseCharDistanceSq *,BaseCharDistanceSqSort2>
; Function compile flags: /Ogsp
; File c:\program files (x86)\microsoft visual studio 10.0\vc\include\algorithm
;	COMDAT ??$sort_heap@PAUtagBaseCharDistanceSq@@VBaseCharDistanceSqSort2@@@std@@YAXPAUtagBaseCharDistanceSq@@0VBaseCharDistanceSqSort2@@@Z
_TEXT	SEGMENT
__First$ = 8						; size = 4
__Last$ = 12						; size = 4
__Pred$ = 16						; size = 1
??$sort_heap@PAUtagBaseCharDistanceSq@@VBaseCharDistanceSqSort2@@@std@@YAXPAUtagBaseCharDistanceSq@@0VBaseCharDistanceSqSort2@@@Z PROC ; std::sort_heap<tagBaseCharDistanceSq *,BaseCharDistanceSqSort2>, COMDAT

; 2708 : 	{	// order heap by repeatedly popping, using _Pred

  00000	55		 push	 ebp
  00001	8b ec		 mov	 ebp, esp

; 2709 : 	_DEBUG_RANGE(_First, _Last);
; 2710 : 	_DEBUG_POINTER(_Pred);
; 2711 : 	_DEBUG_HEAP_PRED(_First, _Last, _Pred);
; 2712 : 	_Sort_heap(_Unchecked(_First), _Unchecked(_Last), _Pred);

  00003	ff 75 10	 push	 DWORD PTR __Pred$[ebp]
  00006	ff 75 0c	 push	 DWORD PTR __Last$[ebp]
  00009	ff 75 08	 push	 DWORD PTR __First$[ebp]
  0000c	e8 00 00 00 00	 call	 ??$_Sort_heap@PAUtagBaseCharDistanceSq@@VBaseCharDistanceSqSort2@@@std@@YAXPAUtagBaseCharDistanceSq@@0VBaseCharDistanceSqSort2@@@Z ; std::_Sort_heap<tagBaseCharDistanceSq *,BaseCharDistanceSqSort2>
  00011	83 c4 0c	 add	 esp, 12			; 0000000cH

; 2713 : 	}

  00014	5d		 pop	 ebp
  00015	c3		 ret	 0
??$sort_heap@PAUtagBaseCharDistanceSq@@VBaseCharDistanceSqSort2@@@std@@YAXPAUtagBaseCharDistanceSq@@0VBaseCharDistanceSqSort2@@@Z ENDP ; std::sort_heap<tagBaseCharDistanceSq *,BaseCharDistanceSqSort2>
_TEXT	ENDS
PUBLIC	?_Tidy@?$vector@UtagBaseCharDistanceSq@@V?$allocator@UtagBaseCharDistanceSq@@@std@@@std@@IAEXXZ ; std::vector<tagBaseCharDistanceSq,std::allocator<tagBaseCharDistanceSq> >::_Tidy
; Function compile flags: /Ogsp
; File c:\program files (x86)\microsoft visual studio 10.0\vc\include\vector
;	COMDAT ?_Tidy@?$vector@UtagBaseCharDistanceSq@@V?$allocator@UtagBaseCharDistanceSq@@@std@@@std@@IAEXXZ
_TEXT	SEGMENT
?_Tidy@?$vector@UtagBaseCharDistanceSq@@V?$allocator@UtagBaseCharDistanceSq@@@std@@@std@@IAEXXZ PROC ; std::vector<tagBaseCharDistanceSq,std::allocator<tagBaseCharDistanceSq> >::_Tidy, COMDAT
; _this$ = ecx

; 1301 : 		{	// free all storage

  00000	56		 push	 esi
  00001	8b f1		 mov	 esi, ecx

; 1302 : 		if (this->_Myfirst != 0)

  00003	83 3e 00	 cmp	 DWORD PTR [esi], 0
  00006	74 28		 je	 SHORT $LN27@Tidy@3

; 1303 : 			{	// something to free, destroy and deallocate it
; 1304 : 			this->_Orphan_all();

  00008	53		 push	 ebx
  00009	57		 push	 edi
  0000a	ff 15 00 00 00
	00		 call	 DWORD PTR __imp_?_Orphan_all@_Container_base0@std@@QAEXXZ

; 1305 : 			_Destroy(this->_Myfirst, this->_Mylast);

  00010	8b 5e 04	 mov	 ebx, DWORD PTR [esi+4]
  00013	8b 3e		 mov	 edi, DWORD PTR [esi]
  00015	eb 0b		 jmp	 SHORT $LN31@Tidy@3
$LL12@Tidy@3:
  00017	8b cf		 mov	 ecx, edi
  00019	ff 15 00 00 00
	00		 call	 DWORD PTR __imp_??1ioHashString@@QAE@XZ
  0001f	83 c7 20	 add	 edi, 32			; 00000020H
$LN31@Tidy@3:
  00022	3b fb		 cmp	 edi, ebx
  00024	75 f1		 jne	 SHORT $LL12@Tidy@3

; 1306 : 			this->_Alval.deallocate(this->_Myfirst,
; 1307 : 				this->_Myend - this->_Myfirst);

  00026	ff 36		 push	 DWORD PTR [esi]
  00028	e8 00 00 00 00	 call	 ??3@YAXPAX@Z		; operator delete
  0002d	59		 pop	 ecx
  0002e	5f		 pop	 edi
  0002f	5b		 pop	 ebx
$LN27@Tidy@3:

; 1308 : 			}
; 1309 : 		this->_Myfirst = 0;

  00030	33 c0		 xor	 eax, eax
  00032	89 06		 mov	 DWORD PTR [esi], eax

; 1310 : 		this->_Mylast = 0;

  00034	89 46 04	 mov	 DWORD PTR [esi+4], eax

; 1311 : 		this->_Myend = 0;

  00037	89 46 08	 mov	 DWORD PTR [esi+8], eax
  0003a	5e		 pop	 esi

; 1312 : 		}

  0003b	c3		 ret	 0
?_Tidy@?$vector@UtagBaseCharDistanceSq@@V?$allocator@UtagBaseCharDistanceSq@@@std@@@std@@IAEXXZ ENDP ; std::vector<tagBaseCharDistanceSq,std::allocator<tagBaseCharDistanceSq> >::_Tidy
_TEXT	ENDS
PUBLIC	?reserve@?$vector@UtagBaseCharDistanceSq@@V?$allocator@UtagBaseCharDistanceSq@@@std@@@std@@QAEXI@Z ; std::vector<tagBaseCharDistanceSq,std::allocator<tagBaseCharDistanceSq> >::reserve
;	COMDAT xdata$x
; File c:\program files (x86)\microsoft visual studio 10.0\vc\include\xmemory
xdata$x	SEGMENT
__catchsym$?reserve@?$vector@UtagBaseCharDistanceSq@@V?$allocator@UtagBaseCharDistanceSq@@@std@@@std@@QAEXI@Z$3 DD 040H
	DD	00H
	DD	00H
	DD	FLAT:__catch$?reserve@?$vector@UtagBaseCharDistanceSq@@V?$allocator@UtagBaseCharDistanceSq@@@std@@@std@@QAEXI@Z$0
__unwindtable$?reserve@?$vector@UtagBaseCharDistanceSq@@V?$allocator@UtagBaseCharDistanceSq@@@std@@@std@@QAEXI@Z DD 0ffffffffH
	DD	00H
	DD	0ffffffffH
	DD	00H
__tryblocktable$?reserve@?$vector@UtagBaseCharDistanceSq@@V?$allocator@UtagBaseCharDistanceSq@@@std@@@std@@QAEXI@Z DD 00H
	DD	00H
	DD	01H
	DD	01H
	DD	FLAT:__catchsym$?reserve@?$vector@UtagBaseCharDistanceSq@@V?$allocator@UtagBaseCharDistanceSq@@@std@@@std@@QAEXI@Z$3
__ehfuncinfo$?reserve@?$vector@UtagBaseCharDistanceSq@@V?$allocator@UtagBaseCharDistanceSq@@@std@@@std@@QAEXI@Z DD 019930522H
	DD	02H
	DD	FLAT:__unwindtable$?reserve@?$vector@UtagBaseCharDistanceSq@@V?$allocator@UtagBaseCharDistanceSq@@@std@@@std@@QAEXI@Z
	DD	01H
	DD	FLAT:__tryblocktable$?reserve@?$vector@UtagBaseCharDistanceSq@@V?$allocator@UtagBaseCharDistanceSq@@@std@@@std@@QAEXI@Z
	DD	2 DUP(00H)
	DD	00H
	DD	01H
; Function compile flags: /Ogsp
; File c:\program files (x86)\microsoft visual studio 10.0\vc\include\vector
xdata$x	ENDS
;	COMDAT ?reserve@?$vector@UtagBaseCharDistanceSq@@V?$allocator@UtagBaseCharDistanceSq@@@std@@@std@@QAEXI@Z
_TEXT	SEGMENT
tv300 = -24						; size = 4
__Ptr$549421 = -20					; size = 4
__$EHRec$ = -16						; size = 16
$T557943 = 8						; size = 4
__Count$ = 8						; size = 4
?reserve@?$vector@UtagBaseCharDistanceSq@@V?$allocator@UtagBaseCharDistanceSq@@@std@@@std@@QAEXI@Z PROC ; std::vector<tagBaseCharDistanceSq,std::allocator<tagBaseCharDistanceSq> >::reserve, COMDAT
; _this$ = ecx

; 746  : 		{	// determine new minimum length of allocated storage

  00000	6a 0c		 push	 12			; 0000000cH
  00002	b8 00 00 00 00	 mov	 eax, __ehhandler$?reserve@?$vector@UtagBaseCharDistanceSq@@V?$allocator@UtagBaseCharDistanceSq@@@std@@@std@@QAEXI@Z
  00007	e8 00 00 00 00	 call	 __EH_prolog3_catch
  0000c	8b f1		 mov	 esi, ecx

; 747  : 		if (max_size() < _Count)

  0000e	8b 5d 08	 mov	 ebx, DWORD PTR __Count$[ebp]
  00011	81 fb ff ff ff
	07		 cmp	 ebx, 134217727		; 07ffffffH
  00017	76 0b		 jbe	 SHORT $LN5@reserve

; 748  : 			_Xlen();	// result too long

  00019	68 00 00 00 00	 push	 OFFSET ??_C@_0BD@OLBABOEK@vector?$DMT?$DO?5too?5long?$AA@
  0001e	ff 15 00 00 00
	00		 call	 DWORD PTR __imp_?_Xlength_error@std@@YAXPBD@Z
$LN62@reserve:
$LN5@reserve:

; 749  : 		else if (capacity() < _Count)

  00024	8b 46 08	 mov	 eax, DWORD PTR [esi+8]
  00027	2b 06		 sub	 eax, DWORD PTR [esi]
  00029	c1 f8 05	 sar	 eax, 5
  0002c	3b c3		 cmp	 eax, ebx
  0002e	73 7a		 jae	 SHORT $LN3@reserve

; 750  : 			{	// not enough room, reallocate
; 751  : 			pointer _Ptr = this->_Alval.allocate(_Count);

  00030	6a 00		 push	 0
  00032	53		 push	 ebx
  00033	e8 00 00 00 00	 call	 ??$_Allocate@UtagBaseCharDistanceSq@@@std@@YAPAUtagBaseCharDistanceSq@@IPAU1@@Z ; std::_Allocate<tagBaseCharDistanceSq>

; 752  : 
; 753  : 			_TRY_BEGIN
; 754  : 			_Umove(this->_Myfirst, this->_Mylast, _Ptr);

  00038	8b 0e		 mov	 ecx, DWORD PTR [esi]
  0003a	83 65 fc 00	 and	 DWORD PTR __$EHRec$[ebp+12], 0
  0003e	8d 56 0c	 lea	 edx, DWORD PTR [esi+12]
  00041	52		 push	 edx
  00042	89 45 ec	 mov	 DWORD PTR __Ptr$549421[ebp], eax
  00045	ff 75 ec	 push	 DWORD PTR __Ptr$549421[ebp]
  00048	8b 46 04	 mov	 eax, DWORD PTR [esi+4]
  0004b	50		 push	 eax
  0004c	51		 push	 ecx
  0004d	e8 00 00 00 00	 call	 ??$_Uninitialized_move@PAUtagBaseCharDistanceSq@@PAU1@V?$allocator@UtagBaseCharDistanceSq@@@std@@@std@@YAPAUtagBaseCharDistanceSq@@PAU1@00AAV?$allocator@UtagBaseCharDistanceSq@@@0@@Z ; std::_Uninitialized_move<tagBaseCharDistanceSq *,tagBaseCharDistanceSq *,std::allocator<tagBaseCharDistanceSq> >

; 758  : 			_CATCH_END
; 759  : 
; 760  : 			size_type _Size = size();

  00052	8b 4e 04	 mov	 ecx, DWORD PTR [esi+4]
  00055	8b 06		 mov	 eax, DWORD PTR [esi]
  00057	83 4d fc ff	 or	 DWORD PTR __$EHRec$[ebp+12], -1
  0005b	8b f9		 mov	 edi, ecx
  0005d	83 c4 18	 add	 esp, 24			; 00000018H
  00060	2b f8		 sub	 edi, eax
  00062	89 4d e8	 mov	 DWORD PTR tv300[ebp], ecx
  00065	85 c0		 test	 eax, eax
  00067	74 24		 je	 SHORT $LN54@reserve

; 761  : 			if (this->_Myfirst != 0)
; 762  : 				{	// destroy and deallocate old array
; 763  : 				_Destroy(this->_Myfirst, this->_Mylast);

  00069	89 45 08	 mov	 DWORD PTR $T557943[ebp], eax
  0006c	3b c1		 cmp	 eax, ecx
  0006e	74 15		 je	 SHORT $LN37@reserve
$LN39@reserve:
  00070	8b 4d 08	 mov	 ecx, DWORD PTR $T557943[ebp]
  00073	ff 15 00 00 00
	00		 call	 DWORD PTR __imp_??1ioHashString@@QAE@XZ
  00079	83 45 08 20	 add	 DWORD PTR $T557943[ebp], 32 ; 00000020H
  0007d	8b 45 08	 mov	 eax, DWORD PTR $T557943[ebp]
  00080	3b 45 e8	 cmp	 eax, DWORD PTR tv300[ebp]
  00083	75 eb		 jne	 SHORT $LN39@reserve
$LN37@reserve:

; 764  : 				this->_Alval.deallocate(this->_Myfirst,
; 765  : 					this->_Myend - this->_Myfirst);

  00085	ff 36		 push	 DWORD PTR [esi]
  00087	e8 00 00 00 00	 call	 ??3@YAXPAX@Z		; operator delete
  0008c	59		 pop	 ecx
$LN54@reserve:

; 766  : 				}
; 767  : 
; 768  : 			this->_Orphan_all();

  0008d	8b ce		 mov	 ecx, esi
  0008f	ff 15 00 00 00
	00		 call	 DWORD PTR __imp_?_Orphan_all@_Container_base0@std@@QAEXXZ

; 769  : 			this->_Myend = _Ptr + _Count;

  00095	8b 45 ec	 mov	 eax, DWORD PTR __Ptr$549421[ebp]
  00098	c1 e3 05	 shl	 ebx, 5
  0009b	03 d8		 add	 ebx, eax

; 770  : 			this->_Mylast = _Ptr + _Size;

  0009d	83 e7 e0	 and	 edi, -32		; ffffffe0H
  000a0	03 f8		 add	 edi, eax
  000a2	89 5e 08	 mov	 DWORD PTR [esi+8], ebx
  000a5	89 7e 04	 mov	 DWORD PTR [esi+4], edi

; 771  : 			this->_Myfirst = _Ptr;

  000a8	89 06		 mov	 DWORD PTR [esi], eax
$LN3@reserve:

; 772  : 			}
; 773  : 		}

  000aa	e8 00 00 00 00	 call	 __EH_epilog3
  000af	c2 04 00	 ret	 4
__catch$?reserve@?$vector@UtagBaseCharDistanceSq@@V?$allocator@UtagBaseCharDistanceSq@@@std@@@std@@QAEXI@Z$0:

; 755  : 			_CATCH_ALL
; 756  : 			this->_Alval.deallocate(_Ptr, _Count);

  000b2	ff 75 ec	 push	 DWORD PTR __Ptr$549421[ebp]
  000b5	e8 00 00 00 00	 call	 ??3@YAXPAX@Z		; operator delete
  000ba	59		 pop	 ecx

; 757  : 			_RERAISE;

  000bb	6a 00		 push	 0
  000bd	6a 00		 push	 0
  000bf	e8 00 00 00 00	 call	 __CxxThrowException@8
$LN63@reserve:
$LN61@reserve:
  000c4	cc		 int	 3
_TEXT	ENDS
;	COMDAT text$x
text$x	SEGMENT
__ehhandler$?reserve@?$vector@UtagBaseCharDistanceSq@@V?$allocator@UtagBaseCharDistanceSq@@@std@@@std@@QAEXI@Z:
  00000	8b 54 24 08	 mov	 edx, DWORD PTR [esp+8]
  00004	8d 42 0c	 lea	 eax, DWORD PTR [edx+12]
  00007	8b 4a e4	 mov	 ecx, DWORD PTR [edx-28]
  0000a	33 c8		 xor	 ecx, eax
  0000c	e8 00 00 00 00	 call	 @__security_check_cookie@4
  00011	b8 00 00 00 00	 mov	 eax, OFFSET __ehfuncinfo$?reserve@?$vector@UtagBaseCharDistanceSq@@V?$allocator@UtagBaseCharDistanceSq@@@std@@@std@@QAEXI@Z
  00016	e9 00 00 00 00	 jmp	 ___CxxFrameHandler3
text$x	ENDS
?reserve@?$vector@UtagBaseCharDistanceSq@@V?$allocator@UtagBaseCharDistanceSq@@@std@@@std@@QAEXI@Z ENDP ; std::vector<tagBaseCharDistanceSq,std::allocator<tagBaseCharDistanceSq> >::reserve
PUBLIC	??$_Sort@PAUtagBaseCharDistanceSq@@HVBaseCharDistanceSqSort2@@@std@@YAXPAUtagBaseCharDistanceSq@@0HVBaseCharDistanceSqSort2@@@Z ; std::_Sort<tagBaseCharDistanceSq *,int,BaseCharDistanceSqSort2>
; Function compile flags: /Ogsp
; File c:\program files (x86)\microsoft visual studio 10.0\vc\include\algorithm
;	COMDAT ??$_Sort@PAUtagBaseCharDistanceSq@@HVBaseCharDistanceSqSort2@@@std@@YAXPAUtagBaseCharDistanceSq@@0HVBaseCharDistanceSqSort2@@@Z
_TEXT	SEGMENT
__Mid$552174 = -8					; size = 8
__First$ = 8						; size = 4
__Last$ = 12						; size = 4
__Ideal$ = 16						; size = 4
__Pred$ = 20						; size = 1
??$_Sort@PAUtagBaseCharDistanceSq@@HVBaseCharDistanceSqSort2@@@std@@YAXPAUtagBaseCharDistanceSq@@0HVBaseCharDistanceSqSort2@@@Z PROC ; std::_Sort<tagBaseCharDistanceSq *,int,BaseCharDistanceSqSort2>, COMDAT

; 3771 : 	{	// order [_First, _Last), using _Pred

  00000	55		 push	 ebp
  00001	8b ec		 mov	 ebp, esp
  00003	51		 push	 ecx
  00004	51		 push	 ecx
  00005	53		 push	 ebx

; 3772 : 	_Diff _Count;
; 3773 : 	for (; _ISORT_MAX < (_Count = _Last - _First) && 0 < _Ideal; )

  00006	8b 5d 08	 mov	 ebx, DWORD PTR __First$[ebp]
  00009	57		 push	 edi
  0000a	8b 7d 0c	 mov	 edi, DWORD PTR __Last$[ebp]
  0000d	8b c7		 mov	 eax, edi
  0000f	2b c3		 sub	 eax, ebx
  00011	c1 f8 05	 sar	 eax, 5
  00014	83 f8 20	 cmp	 eax, 32			; 00000020H
  00017	0f 8e 89 00 00
	00		 jle	 $LN22@Sort
  0001d	56		 push	 esi
  0001e	8b 75 10	 mov	 esi, DWORD PTR __Ideal$[ebp]
$LL7@Sort:
  00021	85 f6		 test	 esi, esi
  00023	7e 62		 jle	 SHORT $LN6@Sort

; 3774 : 		{	// divide and conquer by quicksort
; 3775 : 		_STD pair<_RanIt, _RanIt> _Mid =
; 3776 : 			_Unguarded_partition(_First, _Last, _Pred);

  00025	ff 75 14	 push	 DWORD PTR __Pred$[ebp]
  00028	8d 45 f8	 lea	 eax, DWORD PTR __Mid$552174[ebp]
  0002b	57		 push	 edi
  0002c	53		 push	 ebx
  0002d	50		 push	 eax
  0002e	e8 00 00 00 00	 call	 ??$_Unguarded_partition@PAUtagBaseCharDistanceSq@@VBaseCharDistanceSqSort2@@@std@@YA?AU?$pair@PAUtagBaseCharDistanceSq@@PAU1@@0@PAUtagBaseCharDistanceSq@@0VBaseCharDistanceSqSort2@@@Z ; std::_Unguarded_partition<tagBaseCharDistanceSq *,BaseCharDistanceSqSort2>

; 3777 : 		_Ideal /= 2, _Ideal += _Ideal / 2;	// allow 1.5 log2(N) divisions
; 3778 : 
; 3779 : 		if (_Mid.first - _First < _Last - _Mid.second)

  00033	8b 4d f8	 mov	 ecx, DWORD PTR __Mid$552174[ebp]
  00036	8b c6		 mov	 eax, esi
  00038	99		 cdq
  00039	2b c2		 sub	 eax, edx
  0003b	d1 f8		 sar	 eax, 1
  0003d	8b f0		 mov	 esi, eax
  0003f	99		 cdq
  00040	2b c2		 sub	 eax, edx
  00042	d1 f8		 sar	 eax, 1
  00044	03 f0		 add	 esi, eax
  00046	8b c7		 mov	 eax, edi
  00048	2b 45 fc	 sub	 eax, DWORD PTR __Mid$552174[ebp+4]
  0004b	83 c4 10	 add	 esp, 16			; 00000010H

; 3780 : 			{	// loop on second half
; 3781 : 			_Sort(_First, _Mid.first, _Ideal, _Pred);

  0004e	ff 75 14	 push	 DWORD PTR __Pred$[ebp]
  00051	2b cb		 sub	 ecx, ebx
  00053	83 e0 e0	 and	 eax, -32		; ffffffe0H
  00056	83 e1 e0	 and	 ecx, -32		; ffffffe0H
  00059	56		 push	 esi
  0005a	3b c8		 cmp	 ecx, eax
  0005c	7d 0e		 jge	 SHORT $LN5@Sort
  0005e	ff 75 f8	 push	 DWORD PTR __Mid$552174[ebp]
  00061	53		 push	 ebx
  00062	e8 00 00 00 00	 call	 ??$_Sort@PAUtagBaseCharDistanceSq@@HVBaseCharDistanceSqSort2@@@std@@YAXPAUtagBaseCharDistanceSq@@0HVBaseCharDistanceSqSort2@@@Z ; std::_Sort<tagBaseCharDistanceSq *,int,BaseCharDistanceSqSort2>

; 3782 : 			_First = _Mid.second;

  00067	8b 5d fc	 mov	 ebx, DWORD PTR __Mid$552174[ebp+4]

; 3783 : 			}
; 3784 : 		else

  0006a	eb 0c		 jmp	 SHORT $LN23@Sort
$LN5@Sort:

; 3785 : 			{	// loop on first half
; 3786 : 			_Sort(_Mid.second, _Last, _Ideal, _Pred);

  0006c	57		 push	 edi
  0006d	ff 75 fc	 push	 DWORD PTR __Mid$552174[ebp+4]
  00070	e8 00 00 00 00	 call	 ??$_Sort@PAUtagBaseCharDistanceSq@@HVBaseCharDistanceSqSort2@@@std@@YAXPAUtagBaseCharDistanceSq@@0HVBaseCharDistanceSqSort2@@@Z ; std::_Sort<tagBaseCharDistanceSq *,int,BaseCharDistanceSqSort2>

; 3787 : 			_Last = _Mid.first;

  00075	8b 7d f8	 mov	 edi, DWORD PTR __Mid$552174[ebp]
$LN23@Sort:

; 3772 : 	_Diff _Count;
; 3773 : 	for (; _ISORT_MAX < (_Count = _Last - _First) && 0 < _Ideal; )

  00078	8b c7		 mov	 eax, edi
  0007a	2b c3		 sub	 eax, ebx
  0007c	c1 f8 05	 sar	 eax, 5

; 3785 : 			{	// loop on first half
; 3786 : 			_Sort(_Mid.second, _Last, _Ideal, _Pred);

  0007f	83 c4 10	 add	 esp, 16			; 00000010H
  00082	83 f8 20	 cmp	 eax, 32			; 00000020H
  00085	7f 9a		 jg	 SHORT $LL7@Sort
$LN6@Sort:
  00087	5e		 pop	 esi

; 3788 : 			}
; 3789 : 		}
; 3790 : 
; 3791 : 	if (_ISORT_MAX < _Count)

  00088	83 f8 20	 cmp	 eax, 32			; 00000020H
  0008b	7e 19		 jle	 SHORT $LN22@Sort

; 3792 : 		{	// heap sort if too many divisions
; 3793 : 		_STD make_heap(_First, _Last, _Pred);

  0008d	ff 75 14	 push	 DWORD PTR __Pred$[ebp]
  00090	57		 push	 edi
  00091	53		 push	 ebx
  00092	e8 00 00 00 00	 call	 ??$make_heap@PAUtagBaseCharDistanceSq@@VBaseCharDistanceSqSort2@@@std@@YAXPAUtagBaseCharDistanceSq@@0VBaseCharDistanceSqSort2@@@Z ; std::make_heap<tagBaseCharDistanceSq *,BaseCharDistanceSqSort2>

; 3794 : 		_STD sort_heap(_First, _Last, _Pred);

  00097	ff 75 14	 push	 DWORD PTR __Pred$[ebp]
  0009a	57		 push	 edi
  0009b	53		 push	 ebx
  0009c	e8 00 00 00 00	 call	 ??$_Sort_heap@PAUtagBaseCharDistanceSq@@VBaseCharDistanceSqSort2@@@std@@YAXPAUtagBaseCharDistanceSq@@0VBaseCharDistanceSqSort2@@@Z ; std::_Sort_heap<tagBaseCharDistanceSq *,BaseCharDistanceSqSort2>
  000a1	83 c4 18	 add	 esp, 24			; 00000018H
  000a4	eb 14		 jmp	 SHORT $LN16@Sort
$LN22@Sort:

; 3795 : 		}
; 3796 : 	else if (1 < _Count)

  000a6	83 f8 01	 cmp	 eax, 1
  000a9	7e 0f		 jle	 SHORT $LN16@Sort

; 3797 : 		_Insertion_sort(_First, _Last, _Pred);	// small

  000ab	6a 00		 push	 0
  000ad	ff 75 14	 push	 DWORD PTR __Pred$[ebp]
  000b0	57		 push	 edi
  000b1	53		 push	 ebx
  000b2	e8 00 00 00 00	 call	 ??$_Insertion_sort1@PAUtagBaseCharDistanceSq@@VBaseCharDistanceSqSort2@@U1@@std@@YAXPAUtagBaseCharDistanceSq@@0VBaseCharDistanceSqSort2@@0@Z ; std::_Insertion_sort1<tagBaseCharDistanceSq *,BaseCharDistanceSqSort2,tagBaseCharDistanceSq>
  000b7	83 c4 10	 add	 esp, 16			; 00000010H
$LN16@Sort:
  000ba	5f		 pop	 edi
  000bb	5b		 pop	 ebx

; 3798 : 	}

  000bc	c9		 leave
  000bd	c3		 ret	 0
??$_Sort@PAUtagBaseCharDistanceSq@@HVBaseCharDistanceSqSort2@@@std@@YAXPAUtagBaseCharDistanceSq@@0HVBaseCharDistanceSqSort2@@@Z ENDP ; std::_Sort<tagBaseCharDistanceSq *,int,BaseCharDistanceSqSort2>
_TEXT	ENDS
PUBLIC	??1?$vector@UtagBaseCharDistanceSq@@V?$allocator@UtagBaseCharDistanceSq@@@std@@@std@@QAE@XZ ; std::vector<tagBaseCharDistanceSq,std::allocator<tagBaseCharDistanceSq> >::~vector<tagBaseCharDistanceSq,std::allocator<tagBaseCharDistanceSq> >
; Function compile flags: /Ogsp
; File c:\program files (x86)\microsoft visual studio 10.0\vc\include\vector
;	COMDAT ??1?$vector@UtagBaseCharDistanceSq@@V?$allocator@UtagBaseCharDistanceSq@@@std@@@std@@QAE@XZ
_TEXT	SEGMENT
??1?$vector@UtagBaseCharDistanceSq@@V?$allocator@UtagBaseCharDistanceSq@@@std@@@std@@QAE@XZ PROC ; std::vector<tagBaseCharDistanceSq,std::allocator<tagBaseCharDistanceSq> >::~vector<tagBaseCharDistanceSq,std::allocator<tagBaseCharDistanceSq> >, COMDAT
; _this$ = ecx

; 705  : 		_Tidy();

  00000	e9 00 00 00 00	 jmp	 ?_Tidy@?$vector@UtagBaseCharDistanceSq@@V?$allocator@UtagBaseCharDistanceSq@@@std@@@std@@IAEXXZ ; std::vector<tagBaseCharDistanceSq,std::allocator<tagBaseCharDistanceSq> >::_Tidy
??1?$vector@UtagBaseCharDistanceSq@@V?$allocator@UtagBaseCharDistanceSq@@@std@@@std@@QAE@XZ ENDP ; std::vector<tagBaseCharDistanceSq,std::allocator<tagBaseCharDistanceSq> >::~vector<tagBaseCharDistanceSq,std::allocator<tagBaseCharDistanceSq> >
_TEXT	ENDS
PUBLIC	?_Reserve@?$vector@UtagBaseCharDistanceSq@@V?$allocator@UtagBaseCharDistanceSq@@@std@@@std@@IAEXI@Z ; std::vector<tagBaseCharDistanceSq,std::allocator<tagBaseCharDistanceSq> >::_Reserve
; Function compile flags: /Ogsp
;	COMDAT ?_Reserve@?$vector@UtagBaseCharDistanceSq@@V?$allocator@UtagBaseCharDistanceSq@@@std@@@std@@IAEXI@Z
_TEXT	SEGMENT
__Count$ = 8						; size = 4
?_Reserve@?$vector@UtagBaseCharDistanceSq@@V?$allocator@UtagBaseCharDistanceSq@@@std@@@std@@IAEXI@Z PROC ; std::vector<tagBaseCharDistanceSq,std::allocator<tagBaseCharDistanceSq> >::_Reserve, COMDAT
; _this$ = ecx

; 1290 : 		{	// ensure room for _Count new elements, grow exponentially

  00000	55		 push	 ebp
  00001	8b ec		 mov	 ebp, esp
  00003	56		 push	 esi
  00004	8b f1		 mov	 esi, ecx

; 1291 : 		size_type _Size = size();

  00006	8b 0e		 mov	 ecx, DWORD PTR [esi]
  00008	8b 46 04	 mov	 eax, DWORD PTR [esi+4]
  0000b	2b c1		 sub	 eax, ecx

; 1292 : 		if (max_size() - _Count < _Size)

  0000d	ba ff ff ff 07	 mov	 edx, 134217727		; 07ffffffH
  00012	2b 55 08	 sub	 edx, DWORD PTR __Count$[ebp]
  00015	c1 f8 05	 sar	 eax, 5
  00018	3b d0		 cmp	 edx, eax
  0001a	73 0b		 jae	 SHORT $LN4@Reserve

; 1293 : 			_Xlen();

  0001c	68 00 00 00 00	 push	 OFFSET ??_C@_0BD@OLBABOEK@vector?$DMT?$DO?5too?5long?$AA@
  00021	ff 15 00 00 00
	00		 call	 DWORD PTR __imp_?_Xlength_error@std@@YAXPBD@Z
$LN21@Reserve:
$LN4@Reserve:

; 1294 : 		else if ((_Size += _Count) <= capacity())

  00027	8b 56 08	 mov	 edx, DWORD PTR [esi+8]
  0002a	03 45 08	 add	 eax, DWORD PTR __Count$[ebp]
  0002d	2b d1		 sub	 edx, ecx
  0002f	c1 fa 05	 sar	 edx, 5
  00032	3b c2		 cmp	 eax, edx
  00034	76 10		 jbe	 SHORT $LN1@Reserve

; 1295 : 			;
; 1296 : 		else
; 1297 : 			reserve(_Grow_to(_Size));

  00036	50		 push	 eax
  00037	8b ce		 mov	 ecx, esi
  00039	e8 00 00 00 00	 call	 ?_Grow_to@?$vector@UtagBaseCharDistanceSq@@V?$allocator@UtagBaseCharDistanceSq@@@std@@@std@@IBEII@Z ; std::vector<tagBaseCharDistanceSq,std::allocator<tagBaseCharDistanceSq> >::_Grow_to
  0003e	50		 push	 eax
  0003f	8b ce		 mov	 ecx, esi
  00041	e8 00 00 00 00	 call	 ?reserve@?$vector@UtagBaseCharDistanceSq@@V?$allocator@UtagBaseCharDistanceSq@@@std@@@std@@QAEXI@Z ; std::vector<tagBaseCharDistanceSq,std::allocator<tagBaseCharDistanceSq> >::reserve
$LN1@Reserve:
  00046	5e		 pop	 esi

; 1298 : 		}

  00047	5d		 pop	 ebp
  00048	c2 04 00	 ret	 4
$LN20@Reserve:
?_Reserve@?$vector@UtagBaseCharDistanceSq@@V?$allocator@UtagBaseCharDistanceSq@@@std@@@std@@IAEXI@Z ENDP ; std::vector<tagBaseCharDistanceSq,std::allocator<tagBaseCharDistanceSq> >::_Reserve
_TEXT	ENDS
PUBLIC	??$sort@V?$_Vector_iterator@V?$_Vector_val@UtagBaseCharDistanceSq@@V?$allocator@UtagBaseCharDistanceSq@@@std@@@std@@@std@@VBaseCharDistanceSqSort2@@@std@@YAXV?$_Vector_iterator@V?$_Vector_val@UtagBaseCharDistanceSq@@V?$allocator@UtagBaseCharDistanceSq@@@std@@@std@@@0@0VBaseCharDistanceSqSort2@@@Z ; std::sort<std::_Vector_iterator<std::_Vector_val<tagBaseCharDistanceSq,std::allocator<tagBaseCharDistanceSq> > >,BaseCharDistanceSqSort2>
; Function compile flags: /Ogsp
; File c:\program files (x86)\microsoft visual studio 10.0\vc\include\algorithm
;	COMDAT ??$sort@V?$_Vector_iterator@V?$_Vector_val@UtagBaseCharDistanceSq@@V?$allocator@UtagBaseCharDistanceSq@@@std@@@std@@@std@@VBaseCharDistanceSqSort2@@@std@@YAXV?$_Vector_iterator@V?$_Vector_val@UtagBaseCharDistanceSq@@V?$allocator@UtagBaseCharDistanceSq@@@std@@@std@@@0@0VBaseCharDistanceSqSort2@@@Z
_TEXT	SEGMENT
__First$ = 8						; size = 4
__Last$ = 12						; size = 4
__Pred$ = 16						; size = 1
??$sort@V?$_Vector_iterator@V?$_Vector_val@UtagBaseCharDistanceSq@@V?$allocator@UtagBaseCharDistanceSq@@@std@@@std@@@std@@VBaseCharDistanceSqSort2@@@std@@YAXV?$_Vector_iterator@V?$_Vector_val@UtagBaseCharDistanceSq@@V?$allocator@UtagBaseCharDistanceSq@@@std@@@std@@@0@0VBaseCharDistanceSqSort2@@@Z PROC ; std::sort<std::_Vector_iterator<std::_Vector_val<tagBaseCharDistanceSq,std::allocator<tagBaseCharDistanceSq> > >,BaseCharDistanceSqSort2>, COMDAT

; 3803 : 	{	// order [_First, _Last), using _Pred

  00000	55		 push	 ebp
  00001	8b ec		 mov	 ebp, esp

; 3804 : 	_DEBUG_RANGE(_First, _Last);
; 3805 : 	_DEBUG_POINTER(_Pred);
; 3806 : 	_Sort(_Unchecked(_First), _Unchecked(_Last), _Last - _First, _Pred);

  00003	8b 45 0c	 mov	 eax, DWORD PTR __Last$[ebp]
  00006	ff 75 10	 push	 DWORD PTR __Pred$[ebp]
  00009	2b 45 08	 sub	 eax, DWORD PTR __First$[ebp]
  0000c	c1 f8 05	 sar	 eax, 5
  0000f	50		 push	 eax
  00010	ff 75 0c	 push	 DWORD PTR __Last$[ebp]
  00013	ff 75 08	 push	 DWORD PTR __First$[ebp]
  00016	e8 00 00 00 00	 call	 ??$_Sort@PAUtagBaseCharDistanceSq@@HVBaseCharDistanceSqSort2@@@std@@YAXPAUtagBaseCharDistanceSq@@0HVBaseCharDistanceSqSort2@@@Z ; std::_Sort<tagBaseCharDistanceSq *,int,BaseCharDistanceSqSort2>
  0001b	83 c4 10	 add	 esp, 16			; 00000010H

; 3807 : 	}

  0001e	5d		 pop	 ebp
  0001f	c3		 ret	 0
??$sort@V?$_Vector_iterator@V?$_Vector_val@UtagBaseCharDistanceSq@@V?$allocator@UtagBaseCharDistanceSq@@@std@@@std@@@std@@VBaseCharDistanceSqSort2@@@std@@YAXV?$_Vector_iterator@V?$_Vector_val@UtagBaseCharDistanceSq@@V?$allocator@UtagBaseCharDistanceSq@@@std@@@std@@@0@0VBaseCharDistanceSqSort2@@@Z ENDP ; std::sort<std::_Vector_iterator<std::_Vector_val<tagBaseCharDistanceSq,std::allocator<tagBaseCharDistanceSq> > >,BaseCharDistanceSqSort2>
_TEXT	ENDS
PUBLIC	?push_back@?$vector@UtagBaseCharDistanceSq@@V?$allocator@UtagBaseCharDistanceSq@@@std@@@std@@QAEXABUtagBaseCharDistanceSq@@@Z ; std::vector<tagBaseCharDistanceSq,std::allocator<tagBaseCharDistanceSq> >::push_back
; Function compile flags: /Ogsp
; File c:\program files (x86)\microsoft visual studio 10.0\vc\include\vector
;	COMDAT ?push_back@?$vector@UtagBaseCharDistanceSq@@V?$allocator@UtagBaseCharDistanceSq@@@std@@@std@@QAEXABUtagBaseCharDistanceSq@@@Z
_TEXT	SEGMENT
__Val$ = 8						; size = 4
?push_back@?$vector@UtagBaseCharDistanceSq@@V?$allocator@UtagBaseCharDistanceSq@@@std@@@std@@QAEXABUtagBaseCharDistanceSq@@@Z PROC ; std::vector<tagBaseCharDistanceSq,std::allocator<tagBaseCharDistanceSq> >::push_back, COMDAT
; _this$ = ecx

; 976  : 		{	// insert element at end

  00000	55		 push	 ebp
  00001	8b ec		 mov	 ebp, esp
  00003	56		 push	 esi
  00004	8b f1		 mov	 esi, ecx

; 977  : 		if (_Inside(_STD addressof(_Val)))

  00006	8b 46 04	 mov	 eax, DWORD PTR [esi+4]
  00009	57		 push	 edi
  0000a	8b 7d 08	 mov	 edi, DWORD PTR __Val$[ebp]
  0000d	3b f8		 cmp	 edi, eax
  0000f	73 2d		 jae	 SHORT $LN4@push_back
  00011	8b 0e		 mov	 ecx, DWORD PTR [esi]
  00013	3b cf		 cmp	 ecx, edi
  00015	77 27		 ja	 SHORT $LN4@push_back

; 978  : 			{	// push back an element
; 979  : 			size_type _Idx = _STD addressof(_Val) - this->_Myfirst;

  00017	2b f9		 sub	 edi, ecx

; 980  : 			if (this->_Mylast == this->_Myend)

  00019	3b 46 08	 cmp	 eax, DWORD PTR [esi+8]
  0001c	75 09		 jne	 SHORT $LN3@push_back

; 981  : 				_Reserve(1);

  0001e	6a 01		 push	 1
  00020	8b ce		 mov	 ecx, esi
  00022	e8 00 00 00 00	 call	 ?_Reserve@?$vector@UtagBaseCharDistanceSq@@V?$allocator@UtagBaseCharDistanceSq@@@std@@@std@@IAEXI@Z ; std::vector<tagBaseCharDistanceSq,std::allocator<tagBaseCharDistanceSq> >::_Reserve
$LN3@push_back:

; 982  : 			_Orphan_range(this->_Mylast, this->_Mylast);
; 983  : 			_Cons_val(this->_Alval,
; 984  : 				this->_Mylast,
; 985  : 				this->_Myfirst[_Idx]);

  00027	83 e7 e0	 and	 edi, -32		; ffffffe0H
  0002a	03 3e		 add	 edi, DWORD PTR [esi]
  0002c	8d 46 0c	 lea	 eax, DWORD PTR [esi+12]
  0002f	57		 push	 edi
  00030	ff 76 04	 push	 DWORD PTR [esi+4]
  00033	50		 push	 eax
  00034	e8 00 00 00 00	 call	 ??$_Cons_val@V?$allocator@UtagBaseCharDistanceSq@@@std@@UtagBaseCharDistanceSq@@AAU3@@std@@YAXAAV?$allocator@UtagBaseCharDistanceSq@@@0@PAUtagBaseCharDistanceSq@@AAU2@@Z ; std::_Cons_val<std::allocator<tagBaseCharDistanceSq>,tagBaseCharDistanceSq,tagBaseCharDistanceSq &>
  00039	83 c4 0c	 add	 esp, 12			; 0000000cH

; 986  : 			++this->_Mylast;
; 987  : 			}
; 988  : 		else

  0003c	eb 19		 jmp	 SHORT $LN26@push_back
$LN4@push_back:

; 989  : 			{	// push back a non-element
; 990  : 			if (this->_Mylast == this->_Myend)

  0003e	3b 46 08	 cmp	 eax, DWORD PTR [esi+8]
  00041	75 09		 jne	 SHORT $LN1@push_back

; 991  : 				_Reserve(1);

  00043	6a 01		 push	 1
  00045	8b ce		 mov	 ecx, esi
  00047	e8 00 00 00 00	 call	 ?_Reserve@?$vector@UtagBaseCharDistanceSq@@V?$allocator@UtagBaseCharDistanceSq@@@std@@@std@@IAEXI@Z ; std::vector<tagBaseCharDistanceSq,std::allocator<tagBaseCharDistanceSq> >::_Reserve
$LN1@push_back:

; 992  : 			_Orphan_range(this->_Mylast, this->_Mylast);
; 993  : 			_Cons_val(this->_Alval,
; 994  : 				this->_Mylast,
; 995  : 				_Val);

  0004c	57		 push	 edi
  0004d	ff 76 04	 push	 DWORD PTR [esi+4]
  00050	e8 00 00 00 00	 call	 ??$_Construct@UtagBaseCharDistanceSq@@ABU1@@std@@YAXPAUtagBaseCharDistanceSq@@ABU1@@Z ; std::_Construct<tagBaseCharDistanceSq,tagBaseCharDistanceSq const &>
  00055	59		 pop	 ecx
  00056	59		 pop	 ecx
$LN26@push_back:

; 996  : 			++this->_Mylast;

  00057	83 46 04 20	 add	 DWORD PTR [esi+4], 32	; 00000020H
  0005b	5f		 pop	 edi
  0005c	5e		 pop	 esi

; 997  : 			}
; 998  : 		}

  0005d	5d		 pop	 ebp
  0005e	c2 04 00	 ret	 4
?push_back@?$vector@UtagBaseCharDistanceSq@@V?$allocator@UtagBaseCharDistanceSq@@@std@@@std@@QAEXABUtagBaseCharDistanceSq@@@Z ENDP ; std::vector<tagBaseCharDistanceSq,std::allocator<tagBaseCharDistanceSq> >::push_back
_TEXT	ENDS
PUBLIC	__mask@@AbsDouble@
PUBLIC	__real@4008000000000000
PUBLIC	_szTarget$GSCopy$
PUBLIC	_pOwner$GSCopy$
PUBLIC	_this$GSCopy$
PUBLIC	?FindTarget@ioTargetTrace10Dummy@@IAEXPAVioBaseChar@@MMMMAAVioHashString@@@Z ; ioTargetTrace10Dummy::FindTarget
EXTRN	?GetMapHeightNoneEntity@ioPlayStage@@QAEMMMM_N@Z:PROC ; ioPlayStage::GetMapHeightNoneEntity
EXTRN	?IsEnableTarget@ioBaseChar@@QAE_N_N0@Z:PROC	; ioBaseChar::IsEnableTarget
EXTRN	?IsSystemState@ioBaseChar@@QAE_NXZ:PROC		; ioBaseChar::IsSystemState
EXTRN	?GetTargetCharListByCylinder@ioBaseChar@@QAEXABUD3DXVECTOR3@@MMMMAAV?$vector@PAVioBaseChar@@V?$allocator@PAVioBaseChar@@@std@@@std@@@Z:PROC ; ioBaseChar::GetTargetCharListByCylinder
EXTRN	__imp_?Clear@ioHashString@@QAEXXZ:PROC
;	COMDAT __mask@@AbsDouble@
CONST	SEGMENT
__mask@@AbsDouble@ DB 0ffH, 0ffH, 0ffH, 0ffH, 0ffH, 0ffH, 0ffH, 07fH, 0ffH
	DB	0ffH, 0ffH, 0ffH, 0ffH, 0ffH, 0ffH, 07fH
CONST	ENDS
;	COMDAT __real@4008000000000000
CONST	SEGMENT
__real@4008000000000000 DQ 04008000000000000r	; 3
CONST	ENDS
;	COMDAT xdata$x
xdata$x	SEGMENT
__unwindtable$?FindTarget@ioTargetTrace10Dummy@@IAEXPAVioBaseChar@@MMMMAAVioHashString@@@Z DD 0ffffffffH
	DD	FLAT:__unwindfunclet$?FindTarget@ioTargetTrace10Dummy@@IAEXPAVioBaseChar@@MMMMAAVioHashString@@@Z$0
	DD	00H
	DD	FLAT:__unwindfunclet$?FindTarget@ioTargetTrace10Dummy@@IAEXPAVioBaseChar@@MMMMAAVioHashString@@@Z$1
	DD	01H
	DD	FLAT:__unwindfunclet$?FindTarget@ioTargetTrace10Dummy@@IAEXPAVioBaseChar@@MMMMAAVioHashString@@@Z$2
__ehfuncinfo$?FindTarget@ioTargetTrace10Dummy@@IAEXPAVioBaseChar@@MMMMAAVioHashString@@@Z DD 019930522H
	DD	03H
	DD	FLAT:__unwindtable$?FindTarget@ioTargetTrace10Dummy@@IAEXPAVioBaseChar@@MMMMAAVioHashString@@@Z
	DD	2 DUP(00H)
	DD	2 DUP(00H)
	DD	00H
	DD	01H
; Function compile flags: /Ogsp
; File d:\lost saga for developer\youtube\tutorial\source\src\lsclient\iotargettrace10dummy.cpp
xdata$x	ENDS
;	COMDAT ?FindTarget@ioTargetTrace10Dummy@@IAEXPAVioBaseChar@@MMMMAAVioHashString@@@Z
_TEXT	SEGMENT
_vTargetPos$548885 = -152				; size = 12
_value$558315 = -140					; size = 4
_pStage$ = -136						; size = 4
_value$558328 = -132					; size = 4
_pOwner$GSCopy$ = -128					; size = 4
$T558153 = -124						; size = 1
_szTarget$GSCopy$ = -124				; size = 4
_this$GSCopy$ = -120					; size = 4
_vTargetList$ = -116					; size = 16
tv778 = -100						; size = 4
tv774 = -100						; size = 4
_fDistanceSq$548891 = -100				; size = 4
_vNewCharList$ = -96					; size = 16
tv770 = -80						; size = 4
_iter$ = -80						; size = 4
tv727 = -76						; size = 4
tv723 = -76						; size = 4
tv719 = -76						; size = 4
_fMapHeight$548886 = -76				; size = 4
_kTarget$548892 = -72					; size = 32
$T548889 = -40						; size = 12
_vPos$ = -28						; size = 12
__$EHRec$ = -12						; size = 12
_pOwner$ = 8						; size = 4
_fTargetRange$ = 12					; size = 4
_fTargetAngle$ = 16					; size = 4
_fTargetUpheight$ = 20					; size = 4
_fTargetUnderHeight$ = 24				; size = 4
_szTarget$ = 28						; size = 4
?FindTarget@ioTargetTrace10Dummy@@IAEXPAVioBaseChar@@MMMMAAVioHashString@@@Z PROC ; ioTargetTrace10Dummy::FindTarget, COMDAT
; _this$ = ecx

; 523  : {

  00000	68 8c 00 00 00	 push	 140			; 0000008cH
  00005	b8 00 00 00 00	 mov	 eax, __ehhandler$?FindTarget@ioTargetTrace10Dummy@@IAEXPAVioBaseChar@@MMMMAAVioHashString@@@Z
  0000a	e8 00 00 00 00	 call	 __EH_prolog3_GS
  0000f	8b 7d 08	 mov	 edi, DWORD PTR _pOwner$[ebp]
  00012	89 4d 88	 mov	 DWORD PTR _this$GSCopy$[ebp], ecx
  00015	8b 4d 1c	 mov	 ecx, DWORD PTR _szTarget$[ebp]

; 524  : 	if ( !pOwner )

  00018	33 f6		 xor	 esi, esi

; 562  : 			continue;
; 563  : 
; 564  : 		D3DXVECTOR3 vDiff = pTarget->GetMidPositionByRate() - vPos;

  0001a	89 7d 80	 mov	 DWORD PTR _pOwner$GSCopy$[ebp], edi
  0001d	89 4d 84	 mov	 DWORD PTR _szTarget$GSCopy$[ebp], ecx
  00020	3b fe		 cmp	 edi, esi
  00022	0f 84 14 03 00
	00		 je	 $LN125@FindTarget

; 525  : 		return;
; 526  : 
; 527  : 	ioPlayStage *pStage = pOwner->GetCreator();

  00028	8b 87 44 03 00
	00		 mov	 eax, DWORD PTR [edi+836]
  0002e	89 85 78 ff ff
	ff		 mov	 DWORD PTR _pStage$[ebp], eax

; 528  : 	if( !pStage ) 

  00034	3b c6		 cmp	 eax, esi
  00036	0f 84 00 03 00
	00		 je	 $LN125@FindTarget

; 529  : 		return;
; 530  : 
; 531  : 	szTarget.Clear();

  0003c	ff 15 00 00 00
	00		 call	 DWORD PTR __imp_?Clear@ioHashString@@QAEXXZ

; 532  : 
; 533  : 	BaseCharList vTargetList;

  00042	89 75 8c	 mov	 DWORD PTR _vTargetList$[ebp], esi
  00045	89 75 90	 mov	 DWORD PTR _vTargetList$[ebp+4], esi
  00048	89 75 94	 mov	 DWORD PTR _vTargetList$[ebp+8], esi
  0004b	89 75 fc	 mov	 DWORD PTR __$EHRec$[ebp+8], esi

; 534  : 	BaseCharDistanceSqList vNewCharList;

  0004e	89 75 a0	 mov	 DWORD PTR _vNewCharList$[ebp], esi
  00051	89 75 a4	 mov	 DWORD PTR _vNewCharList$[ebp+4], esi
  00054	89 75 a8	 mov	 DWORD PTR _vNewCharList$[ebp+8], esi
  00057	c6 45 fc 01	 mov	 BYTE PTR __$EHRec$[ebp+8], 1

; 535  : 
; 536  : 	D3DXVECTOR3 vPos = GetMidPositionByRate();

  0005b	b8 05 00 00 00	 mov	 eax, 5
  00060	8b c8		 mov	 ecx, eax
  00062	b8 0a 00 00 00	 mov	 eax, 10			; 0000000aH
  00067	89 4d 9c	 mov	 DWORD PTR tv778[ebp], ecx
  0006a	db 45 9c	 fild	 DWORD PTR tv778[ebp]
  0006d	85 c9		 test	 ecx, ecx
  0006f	79 06		 jns	 SHORT $LN134@FindTarget
  00071	d8 05 00 00 00
	00		 fadd	 DWORD PTR __real@4f800000
$LN134@FindTarget:
  00077	89 45 9c	 mov	 DWORD PTR tv774[ebp], eax
  0007a	db 45 9c	 fild	 DWORD PTR tv774[ebp]
  0007d	85 c0		 test	 eax, eax
  0007f	79 06		 jns	 SHORT $LN135@FindTarget
  00081	d8 05 00 00 00
	00		 fadd	 DWORD PTR __real@4f800000
$LN135@FindTarget:
  00087	de f9		 fdivp	 ST(1), ST(0)
  00089	51		 push	 ecx
  0008a	8b 4d 88	 mov	 ecx, DWORD PTR _this$GSCopy$[ebp]
  0008d	8d 45 e4	 lea	 eax, DWORD PTR _vPos$[ebp]
  00090	d9 5d b0	 fstp	 DWORD PTR tv770[ebp]
  00093	d9 45 b0	 fld	 DWORD PTR tv770[ebp]
  00096	d9 1c 24	 fstp	 DWORD PTR [esp]
  00099	50		 push	 eax
  0009a	e8 00 00 00 00	 call	 ?GetMidPositionByRate@ioGameEntity@@QBE?AUD3DXVECTOR3@@M@Z ; ioGameEntity::GetMidPositionByRate

; 537  : 	pOwner->GetTargetCharListByCylinder( vPos, fTargetRange, fTargetAngle, fTargetUpheight, fTargetUnderHeight, vTargetList );

  0009f	f3 0f 10 45 18	 movss	 xmm0, DWORD PTR _fTargetUnderHeight$[ebp]
  000a4	8d 45 8c	 lea	 eax, DWORD PTR _vTargetList$[ebp]
  000a7	50		 push	 eax
  000a8	83 ec 10	 sub	 esp, 16			; 00000010H
  000ab	f3 0f 11 44 24
	0c		 movss	 DWORD PTR [esp+12], xmm0
  000b1	f3 0f 10 45 14	 movss	 xmm0, DWORD PTR _fTargetUpheight$[ebp]
  000b6	f3 0f 11 44 24
	08		 movss	 DWORD PTR [esp+8], xmm0
  000bc	f3 0f 10 45 10	 movss	 xmm0, DWORD PTR _fTargetAngle$[ebp]
  000c1	f3 0f 11 44 24
	04		 movss	 DWORD PTR [esp+4], xmm0
  000c7	f3 0f 10 45 0c	 movss	 xmm0, DWORD PTR _fTargetRange$[ebp]
  000cc	8d 45 e4	 lea	 eax, DWORD PTR _vPos$[ebp]
  000cf	f3 0f 11 04 24	 movss	 DWORD PTR [esp], xmm0
  000d4	50		 push	 eax
  000d5	8b cf		 mov	 ecx, edi
  000d7	e8 00 00 00 00	 call	 ?GetTargetCharListByCylinder@ioBaseChar@@QAEXABUD3DXVECTOR3@@MMMMAAV?$vector@PAVioBaseChar@@V?$allocator@PAVioBaseChar@@@std@@@std@@@Z ; ioBaseChar::GetTargetCharListByCylinder

; 538  : 
; 539  : 	BaseCharList::iterator iter;
; 540  : 	for( iter = vTargetList.begin(); iter != vTargetList.end(); ++iter )

  000dc	8b 45 8c	 mov	 eax, DWORD PTR _vTargetList$[ebp]
  000df	e9 11 02 00 00	 jmp	 $LN138@FindTarget
$LL54@FindTarget:

; 541  : 	{
; 542  : 		ioBaseChar *pTarget = (*iter);

  000e4	8b 18		 mov	 ebx, DWORD PTR [eax]

; 543  : 
; 544  : 		if( !pTarget )	

  000e6	3b de		 cmp	 ebx, esi
  000e8	0f 84 01 02 00
	00		 je	 $LN9@FindTarget

; 545  : 			continue;
; 546  : 
; 547  : 		if( pOwner == pTarget )	

  000ee	3b fb		 cmp	 edi, ebx
  000f0	0f 84 f9 01 00
	00		 je	 $LN9@FindTarget

; 548  : 			continue;
; 549  : 
; 550  : 		if( pOwner->GetTeam() == pTarget->GetTeam() )

  000f6	8d 85 74 ff ff
	ff		 lea	 eax, DWORD PTR _value$558315[ebp]
  000fc	8d 8f 90 00 00
	00		 lea	 ecx, DWORD PTR [edi+144]
  00102	50		 push	 eax
  00103	e8 00 00 00 00	 call	 ?DecryptValueToPool@?$CEncrypt@W4TeamType@@@@QAEXPAW4TeamType@@@Z ; CEncrypt<enum TeamType>::DecryptValueToPool
  00108	8d 85 7c ff ff
	ff		 lea	 eax, DWORD PTR _value$558328[ebp]
  0010e	8d 8b 90 00 00
	00		 lea	 ecx, DWORD PTR [ebx+144]
  00114	50		 push	 eax
  00115	e8 00 00 00 00	 call	 ?DecryptValueToPool@?$CEncrypt@W4TeamType@@@@QAEXPAW4TeamType@@@Z ; CEncrypt<enum TeamType>::DecryptValueToPool
  0011a	8b 85 74 ff ff
	ff		 mov	 eax, DWORD PTR _value$558315[ebp]
  00120	3b 85 7c ff ff
	ff		 cmp	 eax, DWORD PTR _value$558328[ebp]
  00126	0f 84 c3 01 00
	00		 je	 $LN9@FindTarget

; 551  : 			continue;
; 552  : 
; 553  : 		if( pTarget->IsSystemState() )

  0012c	8b cb		 mov	 ecx, ebx
  0012e	e8 00 00 00 00	 call	 ?IsSystemState@ioBaseChar@@QAE_NXZ ; ioBaseChar::IsSystemState
  00133	84 c0		 test	 al, al
  00135	0f 85 b4 01 00
	00		 jne	 $LN9@FindTarget

; 554  : 			continue;
; 555  : 			
; 556  : 		if( !pTarget->IsEnableTarget() )

  0013b	6a 01		 push	 1
  0013d	6a 01		 push	 1
  0013f	8b cb		 mov	 ecx, ebx
  00141	e8 00 00 00 00	 call	 ?IsEnableTarget@ioBaseChar@@QAE_N_N0@Z ; ioBaseChar::IsEnableTarget
  00146	84 c0		 test	 al, al
  00148	0f 84 a1 01 00
	00		 je	 $LN9@FindTarget

; 557  : 			continue;
; 558  : 
; 559  : 		D3DXVECTOR3 vTargetPos = pTarget->GetWorldPosition();

  0014e	8b 03		 mov	 eax, DWORD PTR [ebx]
  00150	8b cb		 mov	 ecx, ebx
  00152	ff 50 70	 call	 DWORD PTR [eax+112]

; 560  : 		float fMapHeight = pStage->GetMapHeightNoneEntity( vTargetPos.x, vTargetPos.z, vTargetPos.y+3.0f );

  00155	8b 8d 78 ff ff
	ff		 mov	 ecx, DWORD PTR _pStage$[ebp]
  0015b	8b f0		 mov	 esi, eax
  0015d	8d bd 68 ff ff
	ff		 lea	 edi, DWORD PTR _vTargetPos$548885[ebp]
  00163	a5		 movsd
  00164	a5		 movsd
  00165	a5		 movsd
  00166	f3 0f 10 85 6c
	ff ff ff	 movss	 xmm0, DWORD PTR _vTargetPos$548885[ebp+4]
  0016e	0f 5a c0	 cvtps2pd xmm0, xmm0
  00171	f2 0f 58 05 00
	00 00 00	 addsd	 xmm0, QWORD PTR __real@4008000000000000
  00179	6a 00		 push	 0
  0017b	83 ec 0c	 sub	 esp, 12			; 0000000cH
  0017e	f2 0f 5a c0	 cvtsd2ss xmm0, xmm0
  00182	f3 0f 11 44 24
	08		 movss	 DWORD PTR [esp+8], xmm0
  00188	f3 0f 10 85 70
	ff ff ff	 movss	 xmm0, DWORD PTR _vTargetPos$548885[ebp+8]
  00190	f3 0f 11 44 24
	04		 movss	 DWORD PTR [esp+4], xmm0
  00196	f3 0f 10 85 68
	ff ff ff	 movss	 xmm0, DWORD PTR _vTargetPos$548885[ebp]
  0019e	f3 0f 11 04 24	 movss	 DWORD PTR [esp], xmm0
  001a3	e8 00 00 00 00	 call	 ?GetMapHeightNoneEntity@ioPlayStage@@QAEMMMM_N@Z ; ioPlayStage::GetMapHeightNoneEntity
  001a8	d9 5d b4	 fstp	 DWORD PTR _fMapHeight$548886[ebp]

; 561  : 		if ( fabs( vTargetPos.y - fMapHeight ) < m_fTargetMinHeight )

  001ab	f3 0f 10 85 6c
	ff ff ff	 movss	 xmm0, DWORD PTR _vTargetPos$548885[ebp+4]
  001b3	f3 0f 10 4d b4	 movss	 xmm1, DWORD PTR _fMapHeight$548886[ebp]
  001b8	8b 45 88	 mov	 eax, DWORD PTR _this$GSCopy$[ebp]
  001bb	0f 5a c0	 cvtps2pd xmm0, xmm0
  001be	0f 5a c9	 cvtps2pd xmm1, xmm1
  001c1	f2 0f 5c c1	 subsd	 xmm0, xmm1
  001c5	f2 0f 10 0d 00
	00 00 00	 movsd	 xmm1, QWORD PTR __mask@@AbsDouble@
  001cd	f2 0f 5a c0	 cvtsd2ss xmm0, xmm0
  001d1	f3 0f 5a c0	 cvtss2sd xmm0, xmm0
  001d5	66 0f 54 c1	 andpd	 xmm0, xmm1
  001d9	f3 0f 10 88 dc
	14 00 00	 movss	 xmm1, DWORD PTR [eax+5340]
  001e1	f2 0f 5a c0	 cvtsd2ss xmm0, xmm0
  001e5	f3 0f 5a c0	 cvtss2sd xmm0, xmm0
  001e9	0f 5a c9	 cvtps2pd xmm1, xmm1
  001ec	66 0f 2f c8	 comisd	 xmm1, xmm0
  001f0	0f 87 f4 00 00
	00		 ja	 $LN132@FindTarget

; 562  : 			continue;
; 563  : 
; 564  : 		D3DXVECTOR3 vDiff = pTarget->GetMidPositionByRate() - vPos;

  001f6	b8 05 00 00 00	 mov	 eax, 5
  001fb	8b c8		 mov	 ecx, eax
  001fd	b8 0a 00 00 00	 mov	 eax, 10			; 0000000aH
  00202	89 4d b4	 mov	 DWORD PTR tv727[ebp], ecx
  00205	db 45 b4	 fild	 DWORD PTR tv727[ebp]
  00208	85 c9		 test	 ecx, ecx
  0020a	79 06		 jns	 SHORT $LN136@FindTarget
  0020c	d8 05 00 00 00
	00		 fadd	 DWORD PTR __real@4f800000
$LN136@FindTarget:
  00212	89 45 b4	 mov	 DWORD PTR tv723[ebp], eax
  00215	db 45 b4	 fild	 DWORD PTR tv723[ebp]
  00218	85 c0		 test	 eax, eax
  0021a	79 06		 jns	 SHORT $LN137@FindTarget
  0021c	d8 05 00 00 00
	00		 fadd	 DWORD PTR __real@4f800000
$LN137@FindTarget:
  00222	de f9		 fdivp	 ST(1), ST(0)
  00224	51		 push	 ecx
  00225	8d 45 d8	 lea	 eax, DWORD PTR $T548889[ebp]
  00228	8b cb		 mov	 ecx, ebx
  0022a	d9 5d b4	 fstp	 DWORD PTR tv719[ebp]
  0022d	d9 45 b4	 fld	 DWORD PTR tv719[ebp]
  00230	d9 1c 24	 fstp	 DWORD PTR [esp]
  00233	50		 push	 eax
  00234	e8 00 00 00 00	 call	 ?GetMidPositionByRate@ioGameEntity@@QBE?AUD3DXVECTOR3@@M@Z ; ioGameEntity::GetMidPositionByRate
  00239	f3 0f 10 00	 movss	 xmm0, DWORD PTR [eax]
  0023d	f3 0f 10 4d e4	 movss	 xmm1, DWORD PTR _vPos$[ebp]
  00242	f3 0f 10 55 e8	 movss	 xmm2, DWORD PTR _vPos$[ebp+4]
  00247	f3 0f 10 5d ec	 movss	 xmm3, DWORD PTR _vPos$[ebp+8]
  0024c	0f 5a c0	 cvtps2pd xmm0, xmm0
  0024f	0f 5a c9	 cvtps2pd xmm1, xmm1
  00252	f2 0f 5c c1	 subsd	 xmm0, xmm1
  00256	0f 57 c9	 xorps	 xmm1, xmm1
  00259	66 0f 5a c8	 cvtpd2ps xmm1, xmm0
  0025d	f3 0f 10 40 04	 movss	 xmm0, DWORD PTR [eax+4]
  00262	0f 5a d2	 cvtps2pd xmm2, xmm2
  00265	0f 5a c0	 cvtps2pd xmm0, xmm0
  00268	f2 0f 5c c2	 subsd	 xmm0, xmm2
  0026c	f3 0f 10 50 08	 movss	 xmm2, DWORD PTR [eax+8]
  00271	66 0f 5a c0	 cvtpd2ps xmm0, xmm0
  00275	0f 5a d2	 cvtps2pd xmm2, xmm2

; 565  : 		float fDistanceSq = D3DXVec3LengthSq( &vDiff );

  00278	f3 0f 5a c0	 cvtss2sd xmm0, xmm0
  0027c	f2 0f 59 c0	 mulsd	 xmm0, xmm0
  00280	0f 5a db	 cvtps2pd xmm3, xmm3
  00283	f2 0f 5c d3	 subsd	 xmm2, xmm3
  00287	0f 5a c9	 cvtps2pd xmm1, xmm1
  0028a	66 0f 5a d2	 cvtpd2ps xmm2, xmm2
  0028e	f2 0f 59 c9	 mulsd	 xmm1, xmm1
  00292	f3 0f 5a d2	 cvtss2sd xmm2, xmm2
  00296	f2 0f 58 c8	 addsd	 xmm1, xmm0
  0029a	f2 0f 59 d2	 mulsd	 xmm2, xmm2
  0029e	f2 0f 58 ca	 addsd	 xmm1, xmm2
  002a2	66 0f 5a c1	 cvtpd2ps xmm0, xmm1

; 566  : 
; 567  : 		BaseCharDistanceSq kTarget;

  002a6	8d 4d b8	 lea	 ecx, DWORD PTR _kTarget$548892[ebp]
  002a9	f3 0f 11 45 9c	 movss	 DWORD PTR _fDistanceSq$548891[ebp], xmm0
  002ae	e8 00 00 00 00	 call	 ??0tagBaseCharDistanceSq@@QAE@XZ ; tagBaseCharDistanceSq::tagBaseCharDistanceSq

; 568  : 		kTarget.m_Name = pTarget->GetCharName();

  002b3	81 c3 d4 02 00
	00		 add	 ebx, 724		; 000002d4H
  002b9	53		 push	 ebx
  002ba	8d 4d b8	 lea	 ecx, DWORD PTR _kTarget$548892[ebp]
  002bd	c6 45 fc 02	 mov	 BYTE PTR __$EHRec$[ebp+8], 2
  002c1	ff 15 00 00 00
	00		 call	 DWORD PTR __imp_??4ioHashString@@QAEAAV0@ABV0@@Z

; 569  : 		kTarget.m_fDistanceSq = fDistanceSq;

  002c7	f3 0f 10 45 9c	 movss	 xmm0, DWORD PTR _fDistanceSq$548891[ebp]

; 570  : 
; 571  : 		vNewCharList.push_back( kTarget );

  002cc	8d 45 b8	 lea	 eax, DWORD PTR _kTarget$548892[ebp]
  002cf	50		 push	 eax
  002d0	8d 4d a0	 lea	 ecx, DWORD PTR _vNewCharList$[ebp]
  002d3	f3 0f 11 45 c8	 movss	 DWORD PTR _kTarget$548892[ebp+16], xmm0
  002d8	e8 00 00 00 00	 call	 ?push_back@?$vector@UtagBaseCharDistanceSq@@V?$allocator@UtagBaseCharDistanceSq@@@std@@@std@@QAEXABUtagBaseCharDistanceSq@@@Z ; std::vector<tagBaseCharDistanceSq,std::allocator<tagBaseCharDistanceSq> >::push_back

; 572  : 	}

  002dd	8d 4d b8	 lea	 ecx, DWORD PTR _kTarget$548892[ebp]
  002e0	c6 45 fc 01	 mov	 BYTE PTR __$EHRec$[ebp+8], 1
  002e4	ff 15 00 00 00
	00		 call	 DWORD PTR __imp_??1ioHashString@@QAE@XZ
$LN132@FindTarget:
  002ea	8b 7d 80	 mov	 edi, DWORD PTR _pOwner$GSCopy$[ebp]
  002ed	33 f6		 xor	 esi, esi
$LN9@FindTarget:

; 538  : 
; 539  : 	BaseCharList::iterator iter;
; 540  : 	for( iter = vTargetList.begin(); iter != vTargetList.end(); ++iter )

  002ef	8b 45 b0	 mov	 eax, DWORD PTR _iter$[ebp]
  002f2	83 c0 04	 add	 eax, 4
$LN138@FindTarget:
  002f5	89 45 b0	 mov	 DWORD PTR _iter$[ebp], eax
  002f8	3b 45 90	 cmp	 eax, DWORD PTR _vTargetList$[ebp+4]
  002fb	0f 85 e3 fd ff
	ff		 jne	 $LL54@FindTarget

; 573  : 
; 574  : 	if( !vNewCharList.empty() )

  00301	8b 45 a0	 mov	 eax, DWORD PTR _vNewCharList$[ebp]
  00304	3b 45 a4	 cmp	 eax, DWORD PTR _vNewCharList$[ebp+4]
  00307	74 1b		 je	 SHORT $LN1@FindTarget

; 575  : 	{
; 576  : 		std::sort( vNewCharList.begin(), vNewCharList.end(), BaseCharDistanceSqSort2() );

  00309	ff 75 84	 push	 DWORD PTR $T558153[ebp]
  0030c	ff 75 a4	 push	 DWORD PTR _vNewCharList$[ebp+4]
  0030f	50		 push	 eax
  00310	e8 00 00 00 00	 call	 ??$sort@V?$_Vector_iterator@V?$_Vector_val@UtagBaseCharDistanceSq@@V?$allocator@UtagBaseCharDistanceSq@@@std@@@std@@@std@@VBaseCharDistanceSqSort2@@@std@@YAXV?$_Vector_iterator@V?$_Vector_val@UtagBaseCharDistanceSq@@V?$allocator@UtagBaseCharDistanceSq@@@std@@@std@@@0@0VBaseCharDistanceSqSort2@@@Z ; std::sort<std::_Vector_iterator<std::_Vector_val<tagBaseCharDistanceSq,std::allocator<tagBaseCharDistanceSq> > >,BaseCharDistanceSqSort2>

; 577  : 		szTarget = vNewCharList[0].m_Name;

  00315	8b 4d 84	 mov	 ecx, DWORD PTR _szTarget$GSCopy$[ebp]
  00318	83 c4 0c	 add	 esp, 12			; 0000000cH
  0031b	ff 75 a0	 push	 DWORD PTR _vNewCharList$[ebp]
  0031e	ff 15 00 00 00
	00		 call	 DWORD PTR __imp_??4ioHashString@@QAEAAV0@ABV0@@Z
$LN1@FindTarget:

; 578  : 	}
; 579  : }

  00324	8d 4d a0	 lea	 ecx, DWORD PTR _vNewCharList$[ebp]
  00327	c6 45 fc 00	 mov	 BYTE PTR __$EHRec$[ebp+8], 0
  0032b	e8 00 00 00 00	 call	 ?_Tidy@?$vector@UtagBaseCharDistanceSq@@V?$allocator@UtagBaseCharDistanceSq@@@std@@@std@@IAEXXZ ; std::vector<tagBaseCharDistanceSq,std::allocator<tagBaseCharDistanceSq> >::_Tidy
  00330	83 4d fc ff	 or	 DWORD PTR __$EHRec$[ebp+8], -1
  00334	8d 4d 8c	 lea	 ecx, DWORD PTR _vTargetList$[ebp]
  00337	e8 00 00 00 00	 call	 ?_Tidy@?$vector@PAVioBaseChar@@V?$allocator@PAVioBaseChar@@@std@@@std@@IAEXXZ ; std::vector<ioBaseChar *,std::allocator<ioBaseChar *> >::_Tidy
$LN125@FindTarget:
  0033c	e8 00 00 00 00	 call	 __EH_epilog3_GS
  00341	c2 18 00	 ret	 24			; 00000018H
_TEXT	ENDS
;	COMDAT text$x
text$x	SEGMENT
__unwindfunclet$?FindTarget@ioTargetTrace10Dummy@@IAEXPAVioBaseChar@@MMMMAAVioHashString@@@Z$0:
  00000	8d 4d 8c	 lea	 ecx, DWORD PTR _vTargetList$[ebp]
  00003	e9 00 00 00 00	 jmp	 ??1?$vector@PAVioBaseChar@@V?$allocator@PAVioBaseChar@@@std@@@std@@QAE@XZ ; std::vector<ioBaseChar *,std::allocator<ioBaseChar *> >::~vector<ioBaseChar *,std::allocator<ioBaseChar *> >
__unwindfunclet$?FindTarget@ioTargetTrace10Dummy@@IAEXPAVioBaseChar@@MMMMAAVioHashString@@@Z$1:
  00008	8d 4d a0	 lea	 ecx, DWORD PTR _vNewCharList$[ebp]
  0000b	e9 00 00 00 00	 jmp	 ??1?$vector@UtagBaseCharDistanceSq@@V?$allocator@UtagBaseCharDistanceSq@@@std@@@std@@QAE@XZ ; std::vector<tagBaseCharDistanceSq,std::allocator<tagBaseCharDistanceSq> >::~vector<tagBaseCharDistanceSq,std::allocator<tagBaseCharDistanceSq> >
__unwindfunclet$?FindTarget@ioTargetTrace10Dummy@@IAEXPAVioBaseChar@@MMMMAAVioHashString@@@Z$2:
  00010	8d 4d b8	 lea	 ecx, DWORD PTR _kTarget$548892[ebp]
  00013	e9 00 00 00 00	 jmp	 ??1tagBaseCharDistanceSq@@QAE@XZ
__ehhandler$?FindTarget@ioTargetTrace10Dummy@@IAEXPAVioBaseChar@@MMMMAAVioHashString@@@Z:
  00018	8b 54 24 08	 mov	 edx, DWORD PTR [esp+8]
  0001c	8d 42 0c	 lea	 eax, DWORD PTR [edx+12]
  0001f	8b 8a 64 ff ff
	ff		 mov	 ecx, DWORD PTR [edx-156]
  00025	33 c8		 xor	 ecx, eax
  00027	e8 00 00 00 00	 call	 @__security_check_cookie@4
  0002c	8b 4a fc	 mov	 ecx, DWORD PTR [edx-4]
  0002f	33 c8		 xor	 ecx, eax
  00031	e8 00 00 00 00	 call	 @__security_check_cookie@4
  00036	b8 00 00 00 00	 mov	 eax, OFFSET __ehfuncinfo$?FindTarget@ioTargetTrace10Dummy@@IAEXPAVioBaseChar@@MMMMAAVioHashString@@@Z
  0003b	e9 00 00 00 00	 jmp	 ___CxxFrameHandler3
text$x	ENDS
?FindTarget@ioTargetTrace10Dummy@@IAEXPAVioBaseChar@@MMMMAAVioHashString@@@Z ENDP ; ioTargetTrace10Dummy::FindTarget
PUBLIC	__$ArrayPad$
PUBLIC	?SetTraceTargetFindState@ioTargetTrace10Dummy@@IAEXPAVioBaseChar@@@Z ; ioTargetTrace10Dummy::SetTraceTargetFindState
;	COMDAT xdata$x
xdata$x	SEGMENT
__unwindtable$?SetTraceTargetFindState@ioTargetTrace10Dummy@@IAEXPAVioBaseChar@@@Z DD 0ffffffffH
	DD	FLAT:__unwindfunclet$?SetTraceTargetFindState@ioTargetTrace10Dummy@@IAEXPAVioBaseChar@@@Z$1
__ehfuncinfo$?SetTraceTargetFindState@ioTargetTrace10Dummy@@IAEXPAVioBaseChar@@@Z DD 019930522H
	DD	01H
	DD	FLAT:__unwindtable$?SetTraceTargetFindState@ioTargetTrace10Dummy@@IAEXPAVioBaseChar@@@Z
	DD	2 DUP(00H)
	DD	2 DUP(00H)
	DD	00H
	DD	01H
; Function compile flags: /Ogsp
xdata$x	ENDS
;	COMDAT ?SetTraceTargetFindState@ioTargetTrace10Dummy@@IAEXPAVioBaseChar@@@Z
_TEXT	SEGMENT
$T558467 = -32812					; size = 4
_kPacket$548327 = -32808				; size = 32792
__$ArrayPad$ = -16					; size = 4
__$EHRec$ = -12						; size = 12
_pOwner$ = 8						; size = 4
?SetTraceTargetFindState@ioTargetTrace10Dummy@@IAEXPAVioBaseChar@@@Z PROC ; ioTargetTrace10Dummy::SetTraceTargetFindState, COMDAT
; _this$ = ecx

; 369  : {

  00000	55		 push	 ebp
  00001	8b ec		 mov	 ebp, esp
  00003	6a ff		 push	 -1
  00005	68 00 00 00 00	 push	 __ehhandler$?SetTraceTargetFindState@ioTargetTrace10Dummy@@IAEXPAVioBaseChar@@@Z
  0000a	64 a1 00 00 00
	00		 mov	 eax, DWORD PTR fs:0
  00010	50		 push	 eax
  00011	b8 20 80 00 00	 mov	 eax, 32800		; 00008020H
  00016	e8 00 00 00 00	 call	 __chkstk
  0001b	a1 00 00 00 00	 mov	 eax, DWORD PTR ___security_cookie
  00020	33 c5		 xor	 eax, ebp
  00022	89 45 f0	 mov	 DWORD PTR __$ArrayPad$[ebp], eax
  00025	53		 push	 ebx
  00026	56		 push	 esi
  00027	57		 push	 edi
  00028	50		 push	 eax
  00029	8d 45 f4	 lea	 eax, DWORD PTR __$EHRec$[ebp]
  0002c	64 a3 00 00 00
	00		 mov	 DWORD PTR fs:0, eax
  00032	8b 7d 08	 mov	 edi, DWORD PTR _pOwner$[ebp]
  00035	8b f1		 mov	 esi, ecx

; 370  : 	if ( !pOwner || !pOwner->IsNeedProcess() )

  00037	85 ff		 test	 edi, edi
  00039	0f 84 52 01 00
	00		 je	 $LN4@SetTraceTa@2
  0003f	8b 07		 mov	 eax, DWORD PTR [edi]
  00041	8b cf		 mov	 ecx, edi
  00043	ff 90 00 01 00
	00		 call	 DWORD PTR [eax+256]
  00049	84 c0		 test	 al, al
  0004b	0f 84 40 01 00
	00		 je	 $LN4@SetTraceTa@2

; 371  : 		return;
; 372  : 
; 373  : 	FindTarget( pOwner, m_fTraceRange, m_fTraceAngle, m_fTraceUpHeight, m_fTraceUnderHeight, m_szTraceTarget );

  00051	f3 0f 10 86 d8
	14 00 00	 movss	 xmm0, DWORD PTR [esi+5336]
  00059	8d 9e 84 14 00
	00		 lea	 ebx, DWORD PTR [esi+5252]
  0005f	53		 push	 ebx
  00060	83 ec 10	 sub	 esp, 16			; 00000010H
  00063	f3 0f 11 44 24
	0c		 movss	 DWORD PTR [esp+12], xmm0
  00069	f3 0f 10 86 d4
	14 00 00	 movss	 xmm0, DWORD PTR [esi+5332]
  00071	f3 0f 11 44 24
	08		 movss	 DWORD PTR [esp+8], xmm0
  00077	f3 0f 10 86 d0
	14 00 00	 movss	 xmm0, DWORD PTR [esi+5328]
  0007f	f3 0f 11 44 24
	04		 movss	 DWORD PTR [esp+4], xmm0
  00085	f3 0f 10 86 cc
	14 00 00	 movss	 xmm0, DWORD PTR [esi+5324]
  0008d	f3 0f 11 04 24	 movss	 DWORD PTR [esp], xmm0
  00092	57		 push	 edi
  00093	8b ce		 mov	 ecx, esi
  00095	e8 00 00 00 00	 call	 ?FindTarget@ioTargetTrace10Dummy@@IAEXPAVioBaseChar@@MMMMAAVioHashString@@@Z ; ioTargetTrace10Dummy::FindTarget

; 374  : 
; 375  : 	if ( !m_szTraceTarget.IsEmpty() )

  0009a	8b cb		 mov	 ecx, ebx
  0009c	ff 15 00 00 00
	00		 call	 DWORD PTR __imp_?IsEmpty@ioHashString@@QBE_NXZ
  000a2	84 c0		 test	 al, al
  000a4	75 35		 jne	 SHORT $LN3@SetTraceTa@2

; 376  : 	{
; 377  : 		SetLoopAni( m_szTraceTargetMoveAni, m_fTraceTargetMoveAniRate );

  000a6	d9 86 c0 14 00
	00		 fld	 DWORD PTR [esi+5312]
  000ac	83 ec 14	 sub	 esp, 20			; 00000014H
  000af	8d 86 b0 14 00
	00		 lea	 eax, DWORD PTR [esi+5296]
  000b5	d9 5c 24 10	 fstp	 DWORD PTR [esp+16]
  000b9	8b cc		 mov	 ecx, esp
  000bb	89 a5 d4 7f ff
	ff		 mov	 DWORD PTR $T558467[ebp], esp
  000c1	50		 push	 eax
  000c2	ff 15 00 00 00
	00		 call	 DWORD PTR __imp_??0ioHashString@@QAE@ABV0@@Z
  000c8	8b ce		 mov	 ecx, esi
  000ca	e8 00 00 00 00	 call	 ?SetLoopAni@ioTargetTrace10Dummy@@IAEXVioHashString@@M@Z ; ioTargetTrace10Dummy::SetLoopAni

; 378  : 		m_TraceState = TS_Trace_Target_Move;

  000cf	c7 86 80 14 00
	00 02 00 00 00	 mov	 DWORD PTR [esi+5248], 2

; 379  : 	}
; 380  : 	else

  000d9	eb 0f		 jmp	 SHORT $LN2@SetTraceTa@2
$LN3@SetTraceTa@2:

; 381  : 	{
; 382  : 		SetRandomRotate( pOwner );

  000db	57		 push	 edi
  000dc	8b ce		 mov	 ecx, esi
  000de	e8 00 00 00 00	 call	 ?SetRandomRotate@ioTargetTrace10Dummy@@IAEXPAVioBaseChar@@@Z ; ioTargetTrace10Dummy::SetRandomRotate

; 383  : 		SetTraceDelayMoveState();

  000e3	8b ce		 mov	 ecx, esi
  000e5	e8 00 00 00 00	 call	 ?SetTraceDelayMoveState@ioTargetTrace10Dummy@@IAEXXZ ; ioTargetTrace10Dummy::SetTraceDelayMoveState
$LN2@SetTraceTa@2:

; 384  : 	}
; 385  : 
; 386  : 	if ( pOwner->IsNeedSendNetwork() )

  000ea	8b 07		 mov	 eax, DWORD PTR [edi]
  000ec	8b cf		 mov	 ecx, edi
  000ee	ff 90 04 01 00
	00		 call	 DWORD PTR [eax+260]
  000f4	84 c0		 test	 al, al
  000f6	0f 84 95 00 00
	00		 je	 $LN4@SetTraceTa@2

; 387  : 	{
; 388  : 		SP2Packet kPacket( CUPK_DUMMY_CHAR_SYNC );

  000fc	68 21 42 00 00	 push	 16929			; 00004221H
  00101	8d 8d d8 7f ff
	ff		 lea	 ecx, DWORD PTR _kPacket$548327[ebp]
  00107	e8 00 00 00 00	 call	 ??0SP2Packet@@QAE@K@Z	; SP2Packet::SP2Packet
  0010c	83 65 fc 00	 and	 DWORD PTR __$EHRec$[ebp+8], 0

; 389  : 		kPacket << m_OwnerName;

  00110	8d 86 cc 01 00
	00		 lea	 eax, DWORD PTR [esi+460]
  00116	50		 push	 eax
  00117	8d 8d d8 7f ff
	ff		 lea	 ecx, DWORD PTR _kPacket$548327[ebp]
  0011d	e8 00 00 00 00	 call	 ??6SP2Packet@@QAEAAV0@ABVioHashString@@@Z ; SP2Packet::operator<<

; 390  : 		kPacket << m_iCreateIndex;

  00122	ff b6 dc 01 00
	00		 push	 DWORD PTR [esi+476]
  00128	8d 8d d8 7f ff
	ff		 lea	 ecx, DWORD PTR _kPacket$548327[ebp]
  0012e	e8 00 00 00 00	 call	 ??6SP2Packet@@QAEAAV0@H@Z ; SP2Packet::operator<<

; 391  : 		kPacket << TS_Trace_Target_Move;

  00133	6a 02		 push	 2
  00135	8d 8d d8 7f ff
	ff		 lea	 ecx, DWORD PTR _kPacket$548327[ebp]
  0013b	e8 00 00 00 00	 call	 ??6SP2Packet@@QAEAAV0@H@Z ; SP2Packet::operator<<

; 392  : 		kPacket << GetWorldOrientation();

  00140	8b 06		 mov	 eax, DWORD PTR [esi]
  00142	8b ce		 mov	 ecx, esi
  00144	ff 50 74	 call	 DWORD PTR [eax+116]
  00147	50		 push	 eax
  00148	8d 8d d8 7f ff
	ff		 lea	 ecx, DWORD PTR _kPacket$548327[ebp]
  0014e	e8 00 00 00 00	 call	 ??6SP2Packet@@QAEAAV0@ABUD3DXQUATERNION@@@Z ; SP2Packet::operator<<

; 393  : 		kPacket << GetWorldPosition();

  00153	8b 06		 mov	 eax, DWORD PTR [esi]
  00155	8b ce		 mov	 ecx, esi
  00157	ff 50 70	 call	 DWORD PTR [eax+112]
  0015a	50		 push	 eax
  0015b	8d 8d d8 7f ff
	ff		 lea	 ecx, DWORD PTR _kPacket$548327[ebp]
  00161	e8 00 00 00 00	 call	 ??6SP2Packet@@QAEAAV0@ABUD3DXVECTOR3@@@Z ; SP2Packet::operator<<

; 394  : 		kPacket << m_szTraceTarget;

  00166	53		 push	 ebx
  00167	8d 8d d8 7f ff
	ff		 lea	 ecx, DWORD PTR _kPacket$548327[ebp]
  0016d	e8 00 00 00 00	 call	 ??6SP2Packet@@QAEAAV0@ABVioHashString@@@Z ; SP2Packet::operator<<

; 395  : 		P2PNetwork::SendToAllPlayingUser( kPacket );

  00172	8d 85 d8 7f ff
	ff		 lea	 eax, DWORD PTR _kPacket$548327[ebp]
  00178	6a 00		 push	 0
  0017a	50		 push	 eax
  0017b	e8 00 00 00 00	 call	 ?SendToAllPlayingUser@P2PNetwork@@YAXAAVSP2Packet@@PAVioBaseChar@@@Z ; P2PNetwork::SendToAllPlayingUser

; 396  : 	}

  00180	83 4d fc ff	 or	 DWORD PTR __$EHRec$[ebp+8], -1
  00184	59		 pop	 ecx
  00185	59		 pop	 ecx
  00186	8d 8d d8 7f ff
	ff		 lea	 ecx, DWORD PTR _kPacket$548327[ebp]
  0018c	e8 00 00 00 00	 call	 ??1SP2Packet@@UAE@XZ	; SP2Packet::~SP2Packet
$LN4@SetTraceTa@2:

; 397  : }

  00191	8b 4d f4	 mov	 ecx, DWORD PTR __$EHRec$[ebp]
  00194	64 89 0d 00 00
	00 00		 mov	 DWORD PTR fs:0, ecx
  0019b	59		 pop	 ecx
  0019c	5f		 pop	 edi
  0019d	5e		 pop	 esi
  0019e	5b		 pop	 ebx
  0019f	8b 4d f0	 mov	 ecx, DWORD PTR __$ArrayPad$[ebp]
  001a2	33 cd		 xor	 ecx, ebp
  001a4	e8 00 00 00 00	 call	 @__security_check_cookie@4
  001a9	c9		 leave
  001aa	c2 04 00	 ret	 4
_TEXT	ENDS
;	COMDAT text$x
text$x	SEGMENT
__unwindfunclet$?SetTraceTargetFindState@ioTargetTrace10Dummy@@IAEXPAVioBaseChar@@@Z$1:
  00000	8d 8d d8 7f ff
	ff		 lea	 ecx, DWORD PTR _kPacket$548327[ebp]
  00006	e9 00 00 00 00	 jmp	 ??1SP2Packet@@UAE@XZ	; SP2Packet::~SP2Packet
__ehhandler$?SetTraceTargetFindState@ioTargetTrace10Dummy@@IAEXPAVioBaseChar@@@Z:
  0000b	8b 54 24 08	 mov	 edx, DWORD PTR [esp+8]
  0000f	8d 42 0c	 lea	 eax, DWORD PTR [edx+12]
  00012	8b 8a d0 7f ff
	ff		 mov	 ecx, DWORD PTR [edx-32816]
  00018	33 c8		 xor	 ecx, eax
  0001a	e8 00 00 00 00	 call	 @__security_check_cookie@4
  0001f	8b 4a fc	 mov	 ecx, DWORD PTR [edx-4]
  00022	33 c8		 xor	 ecx, eax
  00024	e8 00 00 00 00	 call	 @__security_check_cookie@4
  00029	b8 00 00 00 00	 mov	 eax, OFFSET __ehfuncinfo$?SetTraceTargetFindState@ioTargetTrace10Dummy@@IAEXPAVioBaseChar@@@Z
  0002e	e9 00 00 00 00	 jmp	 ___CxxFrameHandler3
text$x	ENDS
?SetTraceTargetFindState@ioTargetTrace10Dummy@@IAEXPAVioBaseChar@@@Z ENDP ; ioTargetTrace10Dummy::SetTraceTargetFindState
; Function compile flags: /Ogsp
;	COMDAT ?ProcessState@ioTargetTrace10Dummy@@MAEXMK@Z
_TEXT	SEGMENT
_fTimePerSec$ = 8					; size = 4
_dwPreTime$ = 12					; size = 4
?ProcessState@ioTargetTrace10Dummy@@MAEXMK@Z PROC	; ioTargetTrace10Dummy::ProcessState, COMDAT
; _this$ = ecx

; 58   : {

  00000	55		 push	 ebp
  00001	8b ec		 mov	 ebp, esp
  00003	56		 push	 esi
  00004	8b f1		 mov	 esi, ecx

; 59   : 	CheckLive( GetOwner() );

  00006	e8 00 00 00 00	 call	 ?GetOwner@ioDummyChar@@QBEPAVioBaseChar@@XZ ; ioDummyChar::GetOwner
  0000b	50		 push	 eax
  0000c	8b ce		 mov	 ecx, esi
  0000e	e8 00 00 00 00	 call	 ?CheckLive@ioTargetTrace10Dummy@@IAEXPAVioBaseChar@@@Z ; ioTargetTrace10Dummy::CheckLive

; 60   : 
; 61   : 	DWORD dwCurTime = FRAMEGETTIME();

  00013	ff 15 00 00 00
	00		 call	 DWORD PTR __imp_?GetSingleton@ioFrameTimer@@SAAAV1@XZ
  00019	8b c8		 mov	 ecx, eax
  0001b	ff 15 00 00 00
	00		 call	 DWORD PTR __imp_?GetLoopSec@ioFrameTimer@@QBEKXZ

; 62   : 	switch( m_TraceState )

  00021	8b 8e 80 14 00
	00		 mov	 ecx, DWORD PTR [esi+5248]
  00027	83 e9 00	 sub	 ecx, 0
  0002a	0f 84 0c 01 00
	00		 je	 $LN11@ProcessSta
  00030	49		 dec	 ecx
  00031	0f 84 cd 00 00
	00		 je	 $LN9@ProcessSta
  00037	49		 dec	 ecx
  00038	74 65		 je	 SHORT $LN7@ProcessSta
  0003a	49		 dec	 ecx
  0003b	74 1a		 je	 SHORT $LN4@ProcessSta
  0003d	83 e9 03	 sub	 ecx, 3
  00040	0f 85 05 01 00
	00		 jne	 $LN10@ProcessSta

; 108  : 	case TS_End:
; 109  : 		SetDieState( true );

  00046	8b 06		 mov	 eax, DWORD PTR [esi]
  00048	6a 01		 push	 1
  0004a	8b ce		 mov	 ecx, esi
  0004c	ff 90 60 01 00
	00		 call	 DWORD PTR [eax+352]

; 110  : 		break;

  00052	e9 f4 00 00 00	 jmp	 $LN10@ProcessSta
$LN4@ProcessSta:

; 96   : 	case TS_Trace_Target_Attack:
; 97   : 		{
; 98   : 			if ( !CheckTarget( GetOwner() ) || m_nAttackCurCnt >= m_nAttackMaxCnt )

  00057	8b ce		 mov	 ecx, esi
  00059	e8 00 00 00 00	 call	 ?GetOwner@ioDummyChar@@QBEPAVioBaseChar@@XZ ; ioDummyChar::GetOwner
  0005e	50		 push	 eax
  0005f	8b ce		 mov	 ecx, esi
  00061	e8 00 00 00 00	 call	 ?CheckTarget@ioTargetTrace10Dummy@@IAE_NPAVioBaseChar@@@Z ; ioTargetTrace10Dummy::CheckTarget
  00066	84 c0		 test	 al, al
  00068	74 31		 je	 SHORT $LN2@ProcessSta
  0006a	8b 86 98 14 00
	00		 mov	 eax, DWORD PTR [esi+5272]
  00070	3b 86 ec 14 00
	00		 cmp	 eax, DWORD PTR [esi+5356]
  00076	7d 23		 jge	 SHORT $LN2@ProcessSta

; 102  : 			}
; 103  : 
; 104  : 			SetTargetRotate( GetOwner() );

  00078	8b ce		 mov	 ecx, esi
  0007a	e8 00 00 00 00	 call	 ?GetOwner@ioDummyChar@@QBEPAVioBaseChar@@XZ ; ioDummyChar::GetOwner
  0007f	50		 push	 eax
  00080	8b ce		 mov	 ecx, esi
  00082	e8 00 00 00 00	 call	 ?SetTargetRotate@ioTargetTrace10Dummy@@IAEXPAVioBaseChar@@@Z ; ioTargetTrace10Dummy::SetTargetRotate

; 105  : 			CreateWeapon( GetOwner() );

  00087	8b ce		 mov	 ecx, esi
  00089	e8 00 00 00 00	 call	 ?GetOwner@ioDummyChar@@QBEPAVioBaseChar@@XZ ; ioDummyChar::GetOwner
  0008e	50		 push	 eax
  0008f	8b ce		 mov	 ecx, esi
  00091	e8 00 00 00 00	 call	 ?CreateWeapon@ioTargetTrace10Dummy@@IAEXPAVioBaseChar@@@Z ; ioTargetTrace10Dummy::CreateWeapon

; 106  : 		}
; 107  : 		break;

  00096	e9 b0 00 00 00	 jmp	 $LN10@ProcessSta
$LN2@ProcessSta:

; 99   : 			{
; 100  : 				SetRestartState( GetOwner() );

  0009b	8b ce		 mov	 ecx, esi

; 101  : 				return;

  0009d	eb 15		 jmp	 SHORT $LN16@ProcessSta
$LN7@ProcessSta:

; 79   : 	case TS_Trace_Target_Move:
; 80   : 		{
; 81   : 			if ( !CheckTarget( GetOwner() ) )

  0009f	8b ce		 mov	 ecx, esi
  000a1	e8 00 00 00 00	 call	 ?GetOwner@ioDummyChar@@QBEPAVioBaseChar@@XZ ; ioDummyChar::GetOwner
  000a6	50		 push	 eax
  000a7	8b ce		 mov	 ecx, esi
  000a9	e8 00 00 00 00	 call	 ?CheckTarget@ioTargetTrace10Dummy@@IAE_NPAVioBaseChar@@@Z ; ioTargetTrace10Dummy::CheckTarget

; 82   : 			{
; 83   : 				SetRestartState( GetOwner() );

  000ae	8b ce		 mov	 ecx, esi
  000b0	84 c0		 test	 al, al
  000b2	75 12		 jne	 SHORT $LN6@ProcessSta
$LN16@ProcessSta:
  000b4	e8 00 00 00 00	 call	 ?GetOwner@ioDummyChar@@QBEPAVioBaseChar@@XZ ; ioDummyChar::GetOwner
  000b9	50		 push	 eax
  000ba	8b ce		 mov	 ecx, esi
  000bc	e8 00 00 00 00	 call	 ?SetRestartState@ioTargetTrace10Dummy@@IAEXPAVioBaseChar@@@Z ; ioTargetTrace10Dummy::SetRestartState

; 84   : 				return;

  000c1	e9 85 00 00 00	 jmp	 $LN10@ProcessSta
$LN6@ProcessSta:

; 85   : 			}
; 86   : 
; 87   : 			if ( CheckTargetAttackState( GetOwner() ) )

  000c6	e8 00 00 00 00	 call	 ?GetOwner@ioDummyChar@@QBEPAVioBaseChar@@XZ ; ioDummyChar::GetOwner
  000cb	50		 push	 eax
  000cc	8b ce		 mov	 ecx, esi
  000ce	e8 00 00 00 00	 call	 ?CheckTargetAttackState@ioTargetTrace10Dummy@@IAE_NPAVioBaseChar@@@Z ; ioTargetTrace10Dummy::CheckTargetAttackState
  000d3	84 c0		 test	 al, al
  000d5	74 11		 je	 SHORT $LN5@ProcessSta

; 88   : 			{
; 89   : 				SetTraceTargetAttackState( GetOwner() );

  000d7	8b ce		 mov	 ecx, esi
  000d9	e8 00 00 00 00	 call	 ?GetOwner@ioDummyChar@@QBEPAVioBaseChar@@XZ ; ioDummyChar::GetOwner
  000de	50		 push	 eax
  000df	8b ce		 mov	 ecx, esi
  000e1	e8 00 00 00 00	 call	 ?SetTraceTargetAttackState@ioTargetTrace10Dummy@@IAEXPAVioBaseChar@@@Z ; ioTargetTrace10Dummy::SetTraceTargetAttackState

; 90   : 				return;

  000e6	eb 63		 jmp	 SHORT $LN10@ProcessSta
$LN5@ProcessSta:

; 91   : 			}
; 92   : 
; 93   : 			ProcessTraceTargetMove( GetOwner(), fTimePerSec );

  000e8	f3 0f 10 45 08	 movss	 xmm0, DWORD PTR _fTimePerSec$[ebp]
  000ed	51		 push	 ecx
  000ee	8b ce		 mov	 ecx, esi
  000f0	f3 0f 11 04 24	 movss	 DWORD PTR [esp], xmm0
  000f5	e8 00 00 00 00	 call	 ?GetOwner@ioDummyChar@@QBEPAVioBaseChar@@XZ ; ioDummyChar::GetOwner
  000fa	50		 push	 eax
  000fb	8b ce		 mov	 ecx, esi
  000fd	e8 00 00 00 00	 call	 ?ProcessTraceTargetMove@ioTargetTrace10Dummy@@IAEXPAVioBaseChar@@M@Z ; ioTargetTrace10Dummy::ProcessTraceTargetMove

; 94   : 		}
; 95   : 		break;

  00102	eb 47		 jmp	 SHORT $LN10@ProcessSta
$LN9@ProcessSta:

; 67   : 		break;
; 68   : 	case TS_Trace_Delay_Move:
; 69   : 		{
; 70   : 			if ( CheckFindTargetState( GetOwner() ) )

  00104	8b ce		 mov	 ecx, esi
  00106	e8 00 00 00 00	 call	 ?GetOwner@ioDummyChar@@QBEPAVioBaseChar@@XZ ; ioDummyChar::GetOwner
  0010b	50		 push	 eax
  0010c	8b ce		 mov	 ecx, esi
  0010e	e8 00 00 00 00	 call	 ?CheckFindTargetState@ioTargetTrace10Dummy@@IAE_NPAVioBaseChar@@@Z ; ioTargetTrace10Dummy::CheckFindTargetState
  00113	84 c0		 test	 al, al
  00115	74 11		 je	 SHORT $LN8@ProcessSta

; 71   : 			{
; 72   : 				SetTraceTargetFindState( GetOwner() );

  00117	8b ce		 mov	 ecx, esi
  00119	e8 00 00 00 00	 call	 ?GetOwner@ioDummyChar@@QBEPAVioBaseChar@@XZ ; ioDummyChar::GetOwner
  0011e	50		 push	 eax
  0011f	8b ce		 mov	 ecx, esi
  00121	e8 00 00 00 00	 call	 ?SetTraceTargetFindState@ioTargetTrace10Dummy@@IAEXPAVioBaseChar@@@Z ; ioTargetTrace10Dummy::SetTraceTargetFindState

; 73   : 				return;

  00126	eb 23		 jmp	 SHORT $LN10@ProcessSta
$LN8@ProcessSta:

; 74   : 			}
; 75   : 
; 76   : 			ProcessTraceDelayMove( fTimePerSec );

  00128	f3 0f 10 45 08	 movss	 xmm0, DWORD PTR _fTimePerSec$[ebp]
  0012d	51		 push	 ecx
  0012e	8b ce		 mov	 ecx, esi
  00130	f3 0f 11 04 24	 movss	 DWORD PTR [esp], xmm0
  00135	e8 00 00 00 00	 call	 ?ProcessTraceDelayMove@ioTargetTrace10Dummy@@IAEXM@Z ; ioTargetTrace10Dummy::ProcessTraceDelayMove

; 77   : 		}
; 78   : 		break;

  0013a	eb 0f		 jmp	 SHORT $LN10@ProcessSta
$LN11@ProcessSta:

; 63   : 	{
; 64   : 	case TS_Start:
; 65   : 		if ( m_dwStartAniEndTime < dwCurTime )

  0013c	39 86 e4 06 00
	00		 cmp	 DWORD PTR [esi+1764], eax
  00142	73 07		 jae	 SHORT $LN10@ProcessSta

; 66   : 			SetTraceDelayMoveState();

  00144	8b ce		 mov	 ecx, esi
  00146	e8 00 00 00 00	 call	 ?SetTraceDelayMoveState@ioTargetTrace10Dummy@@IAEXXZ ; ioTargetTrace10Dummy::SetTraceDelayMoveState
$LN10@ProcessSta:
  0014b	5e		 pop	 esi

; 111  : 	}
; 112  : }

  0014c	5d		 pop	 ebp
  0014d	c2 08 00	 ret	 8
?ProcessState@ioTargetTrace10Dummy@@MAEXMK@Z ENDP	; ioTargetTrace10Dummy::ProcessState
_TEXT	ENDS
END
