; Listing generated by Microsoft (R) Optimizing Compiler Version 16.00.30319.01 

	TITLE	D:\Lost Saga For Developer\Youtube\Tutorial\Source\src\LSClient\ioTargetTrace13Dummy.cpp
	.686P
	.XMM
	include listing.inc
	.model	flat

INCLUDELIB MSVCRT
INCLUDELIB OLDNAMES

PUBLIC	?_EEM_DS@?$deque@UD3DXVECTOR3@@V?$allocator@UD3DXVECTOR3@@@std@@@std@@2HB ; std::deque<D3DXVECTOR3,std::allocator<D3DXVECTOR3> >::_EEM_DS
;	COMDAT ?_EEM_DS@?$deque@UD3DXVECTOR3@@V?$allocator@UD3DXVECTOR3@@@std@@@std@@2HB
CONST	SEGMENT
?_EEM_DS@?$deque@UD3DXVECTOR3@@V?$allocator@UD3DXVECTOR3@@@std@@@std@@2HB DD 01H ; std::deque<D3DXVECTOR3,std::allocator<D3DXVECTOR3> >::_EEM_DS
CONST	ENDS
PUBLIC	??0DummyTT13AttackInfo@@QAE@XZ			; DummyTT13AttackInfo::DummyTT13AttackInfo
EXTRN	__imp_??0ioHashString@@QAE@XZ:PROC
EXTRN	__fltused:DWORD
; Function compile flags: /Ogsp
; File d:\lost saga for developer\youtube\tutorial\source\src\lsclient\iotargettrace13dummy.h
;	COMDAT ??0DummyTT13AttackInfo@@QAE@XZ
_TEXT	SEGMENT
??0DummyTT13AttackInfo@@QAE@XZ PROC			; DummyTT13AttackInfo::DummyTT13AttackInfo, COMDAT
; _this$ = ecx

; 25   : 	DummyTT13AttackInfo()

  00000	56		 push	 esi
  00001	8b f1		 mov	 esi, ecx
  00003	8d 4e 08	 lea	 ecx, DWORD PTR [esi+8]
  00006	ff 15 00 00 00
	00		 call	 DWORD PTR __imp_??0ioHashString@@QAE@XZ

; 26   : 	{
; 27   : 		m_dwWeaponIndex	= 0;
; 28   : 		m_dwFireTime	= 0;
; 29   : 		//m_FindType = 0;
; 30   : 
; 31   : 		m_fRangeMin		= 0.f;

  0000c	0f 57 c0	 xorps	 xmm0, xmm0
  0000f	83 26 00	 and	 DWORD PTR [esi], 0
  00012	83 66 04 00	 and	 DWORD PTR [esi+4], 0
  00016	f3 0f 11 46 18	 movss	 DWORD PTR [esi+24], xmm0

; 32   : 		m_fRangeMax		= 0.f;

  0001b	f3 0f 11 46 1c	 movss	 DWORD PTR [esi+28], xmm0

; 33   : 		m_fAngle		= 0.f;

  00020	f3 0f 11 46 20	 movss	 DWORD PTR [esi+32], xmm0

; 34   : 		m_fHeightMin	= 0.f;

  00025	f3 0f 11 46 24	 movss	 DWORD PTR [esi+36], xmm0

; 35   : 		m_fHeightMax	= 0.f;

  0002a	f3 0f 11 46 28	 movss	 DWORD PTR [esi+40], xmm0

; 36   : 
; 37   : 		m_fWeaponLookOffSet		= 0.f;

  0002f	f3 0f 11 46 2c	 movss	 DWORD PTR [esi+44], xmm0

; 38   : 		m_fWeaponHeighOffSet	= 0.f;

  00034	f3 0f 11 46 30	 movss	 DWORD PTR [esi+48], xmm0

; 39   : 		m_fWeaponSideOffSet		= 0.f;

  00039	f3 0f 11 46 34	 movss	 DWORD PTR [esi+52], xmm0

; 40   : 
; 41   : 		m_fTargetShootOffHeight = 0.f;

  0003e	f3 0f 11 46 38	 movss	 DWORD PTR [esi+56], xmm0

; 42   : 	}

  00043	8b c6		 mov	 eax, esi
  00045	5e		 pop	 esi
  00046	c3		 ret	 0
??0DummyTT13AttackInfo@@QAE@XZ ENDP			; DummyTT13AttackInfo::DummyTT13AttackInfo
_TEXT	ENDS
PUBLIC	?GetBaseCharList@ioPlayStage@@QBEABV?$vector@PAVioBaseChar@@V?$allocator@PAVioBaseChar@@@std@@@std@@XZ ; ioPlayStage::GetBaseCharList
; Function compile flags: /Ogsp
; File d:\lost saga for developer\youtube\tutorial\source\src\lsclient\ioplaystage.h
;	COMDAT ?GetBaseCharList@ioPlayStage@@QBEABV?$vector@PAVioBaseChar@@V?$allocator@PAVioBaseChar@@@std@@@std@@XZ
_TEXT	SEGMENT
?GetBaseCharList@ioPlayStage@@QBEABV?$vector@PAVioBaseChar@@V?$allocator@PAVioBaseChar@@@std@@@std@@XZ PROC ; ioPlayStage::GetBaseCharList, COMDAT
; _this$ = ecx

; 755  : 	const BaseCharList& GetBaseCharList() const { return m_BaseCharList; }

  00000	8d 41 2c	 lea	 eax, DWORD PTR [ecx+44]
  00003	c3		 ret	 0
?GetBaseCharList@ioPlayStage@@QBEABV?$vector@PAVioBaseChar@@V?$allocator@PAVioBaseChar@@@std@@@std@@XZ ENDP ; ioPlayStage::GetBaseCharList
_TEXT	ENDS
PUBLIC	?return5@@YAIXZ					; return5
; Function compile flags: /Ogsp
; File d:\lost saga for developer\youtube\tutorial\source\src\lsclient\stdafx.h
;	COMDAT ?return5@@YAIXZ
_TEXT	SEGMENT
?return5@@YAIXZ PROC					; return5, COMDAT

; 18   : 	__forceinline unsigned int return5() { __asm mov eax, 5 };

  00000	b8 05 00 00 00	 mov	 eax, 5
  00005	c3		 ret	 0
?return5@@YAIXZ ENDP					; return5
_TEXT	ENDS
PUBLIC	?return10@@YAIXZ				; return10
; Function compile flags: /Ogsp
;	COMDAT ?return10@@YAIXZ
_TEXT	SEGMENT
?return10@@YAIXZ PROC					; return10, COMDAT

; 21   : 	__forceinline unsigned int return10() { __asm mov eax, 10 };

  00000	b8 0a 00 00 00	 mov	 eax, 10			; 0000000aH
  00005	c3		 ret	 0
?return10@@YAIXZ ENDP					; return10
_TEXT	ENDS
PUBLIC	?GetState@ioBaseChar@@QBE?AW4CharState@@XZ	; ioBaseChar::GetState
; Function compile flags: /Ogsp
; File d:\lost saga for developer\youtube\tutorial\source\src\lsclient\iobasechar.h
;	COMDAT ?GetState@ioBaseChar@@QBE?AW4CharState@@XZ
_TEXT	SEGMENT
?GetState@ioBaseChar@@QBE?AW4CharState@@XZ PROC		; ioBaseChar::GetState, COMDAT
; _this$ = ecx

; 2156 : 	inline CharState GetState() const { return m_CharState; }	

  00000	8a 81 10 03 00
	00		 mov	 al, BYTE PTR [ecx+784]
  00006	c3		 ret	 0
?GetState@ioBaseChar@@QBE?AW4CharState@@XZ ENDP		; ioBaseChar::GetState
_TEXT	ENDS
PUBLIC	_fabsf
; Function compile flags: /Ogsp
; File c:\program files (x86)\microsoft visual studio 10.0\vc\include\math.h
;	COMDAT _fabsf
_TEXT	SEGMENT
tv129 = 8						; size = 4
__X$ = 8						; size = 4
_fabsf	PROC						; COMDAT

; 395  :         {return ((float)fabs((double)_X)); }

  00000	55		 push	 ebp
  00001	8b ec		 mov	 ebp, esp
  00003	d9 45 08	 fld	 DWORD PTR __X$[ebp]
  00006	d9 e1		 fabs
  00008	d9 5d 08	 fstp	 DWORD PTR tv129[ebp]
  0000b	d9 45 08	 fld	 DWORD PTR tv129[ebp]
  0000e	5d		 pop	 ebp
  0000f	c3		 ret	 0
_fabsf	ENDP
_TEXT	ENDS
PUBLIC	_acosf
EXTRN	__CIacos:PROC
; Function compile flags: /Ogsp
;	COMDAT _acosf
_TEXT	SEGMENT
tv69 = 8						; size = 4
__X$ = 8						; size = 4
_acosf	PROC						; COMDAT

; 400  :         {return ((float)acos((double)_X)); }

  00000	55		 push	 ebp
  00001	8b ec		 mov	 ebp, esp
  00003	d9 45 08	 fld	 DWORD PTR __X$[ebp]
  00006	e8 00 00 00 00	 call	 __CIacos
  0000b	d9 5d 08	 fstp	 DWORD PTR tv69[ebp]
  0000e	d9 45 08	 fld	 DWORD PTR tv69[ebp]
  00011	5d		 pop	 ebp
  00012	c3		 ret	 0
_acosf	ENDP
_TEXT	ENDS
PUBLIC	_cosf
EXTRN	__CIcos:PROC
; Function compile flags: /Ogsp
;	COMDAT _cosf
_TEXT	SEGMENT
tv69 = 8						; size = 4
__X$ = 8						; size = 4
_cosf	PROC						; COMDAT

; 410  :         {return ((float)cos((double)_X)); }

  00000	55		 push	 ebp
  00001	8b ec		 mov	 ebp, esp
  00003	d9 45 08	 fld	 DWORD PTR __X$[ebp]
  00006	e8 00 00 00 00	 call	 __CIcos
  0000b	d9 5d 08	 fstp	 DWORD PTR tv69[ebp]
  0000e	d9 45 08	 fld	 DWORD PTR tv69[ebp]
  00011	5d		 pop	 ebp
  00012	c3		 ret	 0
_cosf	ENDP
_TEXT	ENDS
PUBLIC	_sqrtf
EXTRN	__CIsqrt:PROC
; Function compile flags: /Ogsp
;	COMDAT _sqrtf
_TEXT	SEGMENT
tv69 = 8						; size = 4
__X$ = 8						; size = 4
_sqrtf	PROC						; COMDAT

; 434  :         {return ((float)sqrt((double)_X)); }

  00000	55		 push	 ebp
  00001	8b ec		 mov	 ebp, esp
  00003	d9 45 08	 fld	 DWORD PTR __X$[ebp]
  00006	e8 00 00 00 00	 call	 __CIsqrt
  0000b	d9 5d 08	 fstp	 DWORD PTR tv69[ebp]
  0000e	d9 45 08	 fld	 DWORD PTR tv69[ebp]
  00011	5d		 pop	 ebp
  00012	c3		 ret	 0
_sqrtf	ENDP
_TEXT	ENDS
PUBLIC	?GetCharName@ioBaseChar@@QBEABVioHashString@@XZ	; ioBaseChar::GetCharName
; Function compile flags: /Ogsp
; File d:\lost saga for developer\youtube\tutorial\source\src\lsclient\iobasechar.h
;	COMDAT ?GetCharName@ioBaseChar@@QBEABVioHashString@@XZ
_TEXT	SEGMENT
?GetCharName@ioBaseChar@@QBEABVioHashString@@XZ PROC	; ioBaseChar::GetCharName, COMDAT
; _this$ = ecx

; 2594 : 	inline const ioHashString& GetCharName() const { return m_Name; }

  00000	8d 81 d4 02 00
	00		 lea	 eax, DWORD PTR [ecx+724]
  00006	c3		 ret	 0
?GetCharName@ioBaseChar@@QBEABVioHashString@@XZ ENDP	; ioBaseChar::GetCharName
_TEXT	ENDS
PUBLIC	?GetTargetRot@ioBaseChar@@QBEABUD3DXQUATERNION@@XZ ; ioBaseChar::GetTargetRot
; Function compile flags: /Ogsp
;	COMDAT ?GetTargetRot@ioBaseChar@@QBEABUD3DXQUATERNION@@XZ
_TEXT	SEGMENT
?GetTargetRot@ioBaseChar@@QBEABUD3DXQUATERNION@@XZ PROC	; ioBaseChar::GetTargetRot, COMDAT
; _this$ = ecx

; 2599 : 	inline const D3DXQUATERNION& GetTargetRot() const { return m_qtTargetRot; }

  00000	8d 81 a4 06 00
	00		 lea	 eax, DWORD PTR [ecx+1700]
  00006	c3		 ret	 0
?GetTargetRot@ioBaseChar@@QBEABUD3DXQUATERNION@@XZ ENDP	; ioBaseChar::GetTargetRot
_TEXT	ENDS
PUBLIC	?fabs@@YAMM@Z					; fabs
; Function compile flags: /Ogsp
; File c:\program files (x86)\microsoft visual studio 10.0\vc\include\math.h
;	COMDAT ?fabs@@YAMM@Z
_TEXT	SEGMENT
tv131 = 8						; size = 4
__X$ = 8						; size = 4
?fabs@@YAMM@Z PROC					; fabs, COMDAT

; 518  :         {return (fabsf(_X)); }

  00000	55		 push	 ebp
  00001	8b ec		 mov	 ebp, esp
  00003	d9 45 08	 fld	 DWORD PTR __X$[ebp]
  00006	d9 e1		 fabs
  00008	d9 5d 08	 fstp	 DWORD PTR tv131[ebp]
  0000b	d9 45 08	 fld	 DWORD PTR tv131[ebp]
  0000e	5d		 pop	 ebp
  0000f	c3		 ret	 0
?fabs@@YAMM@Z ENDP					; fabs
_TEXT	ENDS
PUBLIC	??_7bad_alloc@std@@6B@				; std::bad_alloc::`vftable'
PUBLIC	??0bad_alloc@std@@QAE@PBD@Z			; std::bad_alloc::bad_alloc
PUBLIC	??_R4bad_alloc@std@@6B@				; std::bad_alloc::`RTTI Complete Object Locator'
PUBLIC	??_R0?AVbad_alloc@std@@@8			; std::bad_alloc `RTTI Type Descriptor'
PUBLIC	??_R3bad_alloc@std@@8				; std::bad_alloc::`RTTI Class Hierarchy Descriptor'
PUBLIC	??_R2bad_alloc@std@@8				; std::bad_alloc::`RTTI Base Class Array'
PUBLIC	??_R1A@?0A@EA@bad_alloc@std@@8			; std::bad_alloc::`RTTI Base Class Descriptor at (0,-1,0,64)'
PUBLIC	??_R1A@?0A@EA@exception@std@@8			; std::exception::`RTTI Base Class Descriptor at (0,-1,0,64)'
PUBLIC	??_R0?AVexception@std@@@8			; std::exception `RTTI Type Descriptor'
PUBLIC	??_R3exception@std@@8				; std::exception::`RTTI Class Hierarchy Descriptor'
PUBLIC	??_R2exception@std@@8				; std::exception::`RTTI Base Class Array'
EXTRN	__imp_??0exception@std@@QAE@ABQBD@Z:PROC
EXTRN	??_7type_info@@6B@:QWORD			; type_info::`vftable'
EXTRN	??_Ebad_alloc@std@@UAEPAXI@Z:PROC		; std::bad_alloc::`vector deleting destructor'
EXTRN	?what@exception@std@@UBEPBDXZ:PROC		; std::exception::what
;	COMDAT ??_R2exception@std@@8
; File c:\program files (x86)\microsoft visual studio 10.0\vc\include\exception
rdata$r	SEGMENT
??_R2exception@std@@8 DD FLAT:??_R1A@?0A@EA@exception@std@@8 ; std::exception::`RTTI Base Class Array'
rdata$r	ENDS
;	COMDAT ??_R3exception@std@@8
rdata$r	SEGMENT
??_R3exception@std@@8 DD 00H				; std::exception::`RTTI Class Hierarchy Descriptor'
	DD	00H
	DD	01H
	DD	FLAT:??_R2exception@std@@8
rdata$r	ENDS
;	COMDAT ??_R0?AVexception@std@@@8
_DATA	SEGMENT
??_R0?AVexception@std@@@8 DD FLAT:??_7type_info@@6B@	; std::exception `RTTI Type Descriptor'
	DD	00H
	DB	'.?AVexception@std@@', 00H
_DATA	ENDS
;	COMDAT ??_R1A@?0A@EA@exception@std@@8
rdata$r	SEGMENT
??_R1A@?0A@EA@exception@std@@8 DD FLAT:??_R0?AVexception@std@@@8 ; std::exception::`RTTI Base Class Descriptor at (0,-1,0,64)'
	DD	00H
	DD	00H
	DD	0ffffffffH
	DD	00H
	DD	040H
	DD	FLAT:??_R3exception@std@@8
rdata$r	ENDS
;	COMDAT ??_R1A@?0A@EA@bad_alloc@std@@8
rdata$r	SEGMENT
??_R1A@?0A@EA@bad_alloc@std@@8 DD FLAT:??_R0?AVbad_alloc@std@@@8 ; std::bad_alloc::`RTTI Base Class Descriptor at (0,-1,0,64)'
	DD	01H
	DD	00H
	DD	0ffffffffH
	DD	00H
	DD	040H
	DD	FLAT:??_R3bad_alloc@std@@8
rdata$r	ENDS
;	COMDAT ??_R2bad_alloc@std@@8
rdata$r	SEGMENT
??_R2bad_alloc@std@@8 DD FLAT:??_R1A@?0A@EA@bad_alloc@std@@8 ; std::bad_alloc::`RTTI Base Class Array'
	DD	FLAT:??_R1A@?0A@EA@exception@std@@8
rdata$r	ENDS
;	COMDAT ??_R3bad_alloc@std@@8
rdata$r	SEGMENT
??_R3bad_alloc@std@@8 DD 00H				; std::bad_alloc::`RTTI Class Hierarchy Descriptor'
	DD	00H
	DD	02H
	DD	FLAT:??_R2bad_alloc@std@@8
rdata$r	ENDS
;	COMDAT ??_R0?AVbad_alloc@std@@@8
_DATA	SEGMENT
??_R0?AVbad_alloc@std@@@8 DD FLAT:??_7type_info@@6B@	; std::bad_alloc `RTTI Type Descriptor'
	DD	00H
	DB	'.?AVbad_alloc@std@@', 00H
_DATA	ENDS
;	COMDAT ??_R4bad_alloc@std@@6B@
rdata$r	SEGMENT
??_R4bad_alloc@std@@6B@ DD 00H				; std::bad_alloc::`RTTI Complete Object Locator'
	DD	00H
	DD	00H
	DD	FLAT:??_R0?AVbad_alloc@std@@@8
	DD	FLAT:??_R3bad_alloc@std@@8
rdata$r	ENDS
;	COMDAT ??_7bad_alloc@std@@6B@
CONST	SEGMENT
??_7bad_alloc@std@@6B@ DD FLAT:??_R4bad_alloc@std@@6B@	; std::bad_alloc::`vftable'
	DD	FLAT:??_Ebad_alloc@std@@UAEPAXI@Z
	DD	FLAT:?what@exception@std@@UBEPBDXZ
; Function compile flags: /Ogsp
CONST	ENDS
;	COMDAT ??0bad_alloc@std@@QAE@PBD@Z
_TEXT	SEGMENT
__Message$ = 8						; size = 4
??0bad_alloc@std@@QAE@PBD@Z PROC			; std::bad_alloc::bad_alloc, COMDAT
; _this$ = ecx

; 345  : 		{	// construct from message string

  00000	55		 push	 ebp
  00001	8b ec		 mov	 ebp, esp
  00003	56		 push	 esi
  00004	8d 45 08	 lea	 eax, DWORD PTR __Message$[ebp]
  00007	50		 push	 eax
  00008	8b f1		 mov	 esi, ecx
  0000a	ff 15 00 00 00
	00		 call	 DWORD PTR __imp_??0exception@std@@QAE@ABQBD@Z
  00010	c7 06 00 00 00
	00		 mov	 DWORD PTR [esi], OFFSET ??_7bad_alloc@std@@6B@

; 346  : 		}

  00016	8b c6		 mov	 eax, esi
  00018	5e		 pop	 esi
  00019	5d		 pop	 ebp
  0001a	c2 04 00	 ret	 4
??0bad_alloc@std@@QAE@PBD@Z ENDP			; std::bad_alloc::bad_alloc
_TEXT	ENDS
PUBLIC	??1bad_alloc@std@@UAE@XZ			; std::bad_alloc::~bad_alloc
EXTRN	__imp_??1exception@std@@UAE@XZ:PROC
; Function compile flags: /Ogsp
;	COMDAT ??1bad_alloc@std@@UAE@XZ
_TEXT	SEGMENT
??1bad_alloc@std@@UAE@XZ PROC				; std::bad_alloc::~bad_alloc, COMDAT
; _this$ = ecx

; 354  : 		{	// destroy the object

  00000	c7 01 00 00 00
	00		 mov	 DWORD PTR [ecx], OFFSET ??_7bad_alloc@std@@6B@

; 355  : 		}

  00006	ff 25 00 00 00
	00		 jmp	 DWORD PTR __imp_??1exception@std@@UAE@XZ
??1bad_alloc@std@@UAE@XZ ENDP				; std::bad_alloc::~bad_alloc
_TEXT	ENDS
EXTRN	??3@YAXPAX@Z:PROC				; operator delete
; Function compile flags: /Ogsp
;	COMDAT ??_Gbad_alloc@std@@UAEPAXI@Z
_TEXT	SEGMENT
___flags$ = 8						; size = 4
??_Gbad_alloc@std@@UAEPAXI@Z PROC			; std::bad_alloc::`scalar deleting destructor', COMDAT
; _this$ = ecx
  00000	55		 push	 ebp
  00001	8b ec		 mov	 ebp, esp
  00003	56		 push	 esi
  00004	8b f1		 mov	 esi, ecx
  00006	c7 06 00 00 00
	00		 mov	 DWORD PTR [esi], OFFSET ??_7bad_alloc@std@@6B@
  0000c	ff 15 00 00 00
	00		 call	 DWORD PTR __imp_??1exception@std@@UAE@XZ
  00012	f6 45 08 01	 test	 BYTE PTR ___flags$[ebp], 1
  00016	74 07		 je	 SHORT $LN1@scalar
  00018	56		 push	 esi
  00019	e8 00 00 00 00	 call	 ??3@YAXPAX@Z		; operator delete
  0001e	59		 pop	 ecx
$LN1@scalar:
  0001f	8b c6		 mov	 eax, esi
  00021	5e		 pop	 esi
  00022	5d		 pop	 ebp
  00023	c2 04 00	 ret	 4
??_Gbad_alloc@std@@UAEPAXI@Z ENDP			; std::bad_alloc::`scalar deleting destructor'
_TEXT	ENDS
PUBLIC	??2@YAPAXIPAX@Z					; operator new
; Function compile flags: /Ogsp
; File c:\program files (x86)\microsoft visual studio 10.0\vc\include\new
;	COMDAT ??2@YAPAXIPAX@Z
_TEXT	SEGMENT
___formal$ = 8						; size = 4
__Where$ = 12						; size = 4
??2@YAPAXIPAX@Z PROC					; operator new, COMDAT

; 56   : 	{	// construct array with placement at _Where

  00000	55		 push	 ebp
  00001	8b ec		 mov	 ebp, esp

; 57   : 	return (_Where);

  00003	8b 45 0c	 mov	 eax, DWORD PTR __Where$[ebp]

; 58   : 	}

  00006	5d		 pop	 ebp
  00007	c3		 ret	 0
??2@YAPAXIPAX@Z ENDP					; operator new
_TEXT	ENDS
PUBLIC	??3@YAXPAX0@Z					; operator delete
; Function compile flags: /Ogsp
;	COMDAT ??3@YAXPAX0@Z
_TEXT	SEGMENT
___formal$ = 8						; size = 4
___formal$ = 12						; size = 4
??3@YAXPAX0@Z PROC					; operator delete, COMDAT

; 62   : 	}

  00000	c3		 ret	 0
??3@YAXPAX0@Z ENDP					; operator delete
_TEXT	ENDS
PUBLIC	?GetCreator@ioBaseChar@@QAEPAVioPlayStage@@XZ	; ioBaseChar::GetCreator
; Function compile flags: /Ogsp
; File d:\lost saga for developer\youtube\tutorial\source\src\lsclient\iobasechar.h
;	COMDAT ?GetCreator@ioBaseChar@@QAEPAVioPlayStage@@XZ
_TEXT	SEGMENT
?GetCreator@ioBaseChar@@QAEPAVioPlayStage@@XZ PROC	; ioBaseChar::GetCreator, COMDAT
; _this$ = ecx

; 4013 : 	inline ioPlayStage* GetCreator() { return m_pCreator; }

  00000	8b 81 44 03 00
	00		 mov	 eax, DWORD PTR [ecx+836]
  00006	c3		 ret	 0
?GetCreator@ioBaseChar@@QAEPAVioPlayStage@@XZ ENDP	; ioBaseChar::GetCreator
_TEXT	ENDS
PUBLIC	??_R0?AVioWeapon@@@8				; ioWeapon `RTTI Type Descriptor'
PUBLIC	??_R0?AVioZoneEffectWeapon@@@8			; ioZoneEffectWeapon `RTTI Type Descriptor'
PUBLIC	?ToZoneEffectWeapon@@YAPAVioZoneEffectWeapon@@PAVioWeapon@@@Z ; ToZoneEffectWeapon
EXTRN	___RTDynamicCast:PROC
;	COMDAT ??_R0?AVioWeapon@@@8
; File d:\lost saga for developer\youtube\tutorial\source\src\lsclient\iozoneeffectweapon.h
_DATA	SEGMENT
??_R0?AVioWeapon@@@8 DD FLAT:??_7type_info@@6B@		; ioWeapon `RTTI Type Descriptor'
	DD	00H
	DB	'.?AVioWeapon@@', 00H
_DATA	ENDS
;	COMDAT ??_R0?AVioZoneEffectWeapon@@@8
_DATA	SEGMENT
??_R0?AVioZoneEffectWeapon@@@8 DD FLAT:??_7type_info@@6B@ ; ioZoneEffectWeapon `RTTI Type Descriptor'
	DD	00H
	DB	'.?AVioZoneEffectWeapon@@', 00H
; Function compile flags: /Ogsp
_DATA	ENDS
;	COMDAT ?ToZoneEffectWeapon@@YAPAVioZoneEffectWeapon@@PAVioWeapon@@@Z
_TEXT	SEGMENT
_pWeapon$ = 8						; size = 4
?ToZoneEffectWeapon@@YAPAVioZoneEffectWeapon@@PAVioWeapon@@@Z PROC ; ToZoneEffectWeapon, COMDAT

; 217  : {

  00000	55		 push	 ebp
  00001	8b ec		 mov	 ebp, esp
  00003	56		 push	 esi

; 218  : 	if( !pWeapon || pWeapon->GetType() != ioWeapon::WT_ZONE_EFFECT )

  00004	8b 75 08	 mov	 esi, DWORD PTR _pWeapon$[ebp]
  00007	85 f6		 test	 esi, esi
  00009	74 28		 je	 SHORT $LN1@ToZoneEffe
  0000b	8b 06		 mov	 eax, DWORD PTR [esi]
  0000d	8b ce		 mov	 ecx, esi
  0000f	ff 90 10 01 00
	00		 call	 DWORD PTR [eax+272]
  00015	83 f8 08	 cmp	 eax, 8
  00018	75 19		 jne	 SHORT $LN1@ToZoneEffe

; 220  : 
; 221  : 	return dynamic_cast< ioZoneEffectWeapon* >( pWeapon );

  0001a	6a 00		 push	 0
  0001c	68 00 00 00 00	 push	 OFFSET ??_R0?AVioZoneEffectWeapon@@@8
  00021	68 00 00 00 00	 push	 OFFSET ??_R0?AVioWeapon@@@8
  00026	6a 00		 push	 0
  00028	56		 push	 esi
  00029	e8 00 00 00 00	 call	 ___RTDynamicCast
  0002e	83 c4 14	 add	 esp, 20			; 00000014H
  00031	eb 02		 jmp	 SHORT $LN3@ToZoneEffe
$LN1@ToZoneEffe:

; 219  : 		return NULL;

  00033	33 c0		 xor	 eax, eax
$LN3@ToZoneEffe:
  00035	5e		 pop	 esi

; 222  : }

  00036	5d		 pop	 ebp
  00037	c3		 ret	 0
?ToZoneEffectWeapon@@YAPAVioZoneEffectWeapon@@PAVioWeapon@@@Z ENDP ; ToZoneEffectWeapon
_TEXT	ENDS
PUBLIC	?_Adopt@_Iterator_base0@std@@QAEXPBX@Z		; std::_Iterator_base0::_Adopt
; Function compile flags: /Ogsp
; File c:\program files (x86)\microsoft visual studio 10.0\vc\include\xutility
;	COMDAT ?_Adopt@_Iterator_base0@std@@QAEXPBX@Z
_TEXT	SEGMENT
___formal$ = 8						; size = 4
?_Adopt@_Iterator_base0@std@@QAEXPBX@Z PROC		; std::_Iterator_base0::_Adopt, COMDAT
; _this$ = ecx

; 49   : 		}

  00000	c2 04 00	 ret	 4
?_Adopt@_Iterator_base0@std@@QAEXPBX@Z ENDP		; std::_Iterator_base0::_Adopt
_TEXT	ENDS
PUBLIC	??1DummyTT13AttackInfo@@QAE@XZ			; DummyTT13AttackInfo::~DummyTT13AttackInfo
EXTRN	__imp_??1ioHashString@@QAE@XZ:PROC
; Function compile flags: /Ogsp
;	COMDAT ??1DummyTT13AttackInfo@@QAE@XZ
_TEXT	SEGMENT
??1DummyTT13AttackInfo@@QAE@XZ PROC			; DummyTT13AttackInfo::~DummyTT13AttackInfo, COMDAT
; _this$ = ecx
  00000	83 c1 08	 add	 ecx, 8
  00003	ff 25 00 00 00
	00		 jmp	 DWORD PTR __imp_??1ioHashString@@QAE@XZ
??1DummyTT13AttackInfo@@QAE@XZ ENDP			; DummyTT13AttackInfo::~DummyTT13AttackInfo
_TEXT	ENDS
PUBLIC	__$ArrayPad$
PUBLIC	?InitDummyCharInfo@ioTargetTrace13Dummy@@UAEXHKABUD3DXVECTOR3@@0M_N@Z ; ioTargetTrace13Dummy::InitDummyCharInfo
EXTRN	?GetOwner@ioDummyChar@@QBEPAVioBaseChar@@XZ:PROC ; ioDummyChar::GetOwner
EXTRN	?InitDummyCharInfo@ioDummyChar@@UAEXHKABUD3DXVECTOR3@@0M_N@Z:PROC ; ioDummyChar::InitDummyCharInfo
EXTRN	___security_cookie:DWORD
EXTRN	@__security_check_cookie@4:PROC
; Function compile flags: /Ogsp
; File d:\lost saga for developer\youtube\tutorial\source\src\lsclient\iotargettrace13dummy.cpp
;	COMDAT ?InitDummyCharInfo@ioTargetTrace13Dummy@@UAEXHKABUD3DXVECTOR3@@0M_N@Z
_TEXT	SEGMENT
_vWorldPos$532220 = -16					; size = 12
__$ArrayPad$ = -4					; size = 4
_iIndex$ = 8						; size = 4
_dwCreateGapTime$ = 12					; size = 4
_vPos$ = 16						; size = 4
_vScale$ = 20						; size = 4
_fStartAngle$ = 24					; size = 4
_bNetWork$ = 28						; size = 1
?InitDummyCharInfo@ioTargetTrace13Dummy@@UAEXHKABUD3DXVECTOR3@@0M_N@Z PROC ; ioTargetTrace13Dummy::InitDummyCharInfo, COMDAT
; _this$ = ecx

; 131  : {

  00000	55		 push	 ebp
  00001	8b ec		 mov	 ebp, esp
  00003	83 ec 10	 sub	 esp, 16			; 00000010H
  00006	a1 00 00 00 00	 mov	 eax, DWORD PTR ___security_cookie
  0000b	33 c5		 xor	 eax, ebp
  0000d	89 45 fc	 mov	 DWORD PTR __$ArrayPad$[ebp], eax

; 132  : 	__super::InitDummyCharInfo( iIndex, dwCreateGapTime, vPos, vScale, fStartAngle, bNetWork );

  00010	f3 0f 10 45 18	 movss	 xmm0, DWORD PTR _fStartAngle$[ebp]
  00015	8b 45 10	 mov	 eax, DWORD PTR _vPos$[ebp]
  00018	53		 push	 ebx
  00019	ff 75 1c	 push	 DWORD PTR _bNetWork$[ebp]
  0001c	8b d9		 mov	 ebx, ecx
  0001e	8b 4d 14	 mov	 ecx, DWORD PTR _vScale$[ebp]
  00021	51		 push	 ecx
  00022	f3 0f 11 04 24	 movss	 DWORD PTR [esp], xmm0
  00027	51		 push	 ecx
  00028	50		 push	 eax
  00029	ff 75 0c	 push	 DWORD PTR _dwCreateGapTime$[ebp]
  0002c	8b cb		 mov	 ecx, ebx
  0002e	ff 75 08	 push	 DWORD PTR _iIndex$[ebp]
  00031	e8 00 00 00 00	 call	 ?InitDummyCharInfo@ioDummyChar@@UAEXHKABUD3DXVECTOR3@@0M_N@Z ; ioDummyChar::InitDummyCharInfo

; 133  : 
; 134  : 	ioBaseChar* pOwner = GetOwner();

  00036	8b cb		 mov	 ecx, ebx
  00038	e8 00 00 00 00	 call	 ?GetOwner@ioDummyChar@@QBEPAVioBaseChar@@XZ ; ioDummyChar::GetOwner

; 135  : 	if( pOwner )

  0003d	85 c0		 test	 eax, eax
  0003f	74 3e		 je	 SHORT $LN1@InitDummyC

; 136  : 	{
; 137  : 		D3DXVECTOR3 vWorldPos = pOwner->GetWorldPosition();

  00041	8b 10		 mov	 edx, DWORD PTR [eax]
  00043	56		 push	 esi
  00044	57		 push	 edi
  00045	8b c8		 mov	 ecx, eax
  00047	ff 52 70	 call	 DWORD PTR [edx+112]

; 138  : 		vWorldPos.y += m_fAddOffSetHeight;

  0004a	f3 0f 10 83 c0
	14 00 00	 movss	 xmm0, DWORD PTR [ebx+5312]
  00052	8b f0		 mov	 esi, eax

; 139  : 
; 140  : 		SetWorldPosition( vWorldPos );

  00054	8b 03		 mov	 eax, DWORD PTR [ebx]
  00056	8d 7d f0	 lea	 edi, DWORD PTR _vWorldPos$532220[ebp]
  00059	a5		 movsd
  0005a	a5		 movsd
  0005b	a5		 movsd
  0005c	f3 0f 10 4d f4	 movss	 xmm1, DWORD PTR _vWorldPos$532220[ebp+4]
  00061	0f 5a c0	 cvtps2pd xmm0, xmm0
  00064	8d 4d f0	 lea	 ecx, DWORD PTR _vWorldPos$532220[ebp]
  00067	0f 5a c9	 cvtps2pd xmm1, xmm1
  0006a	f2 0f 58 c1	 addsd	 xmm0, xmm1
  0006e	51		 push	 ecx
  0006f	66 0f 5a c0	 cvtpd2ps xmm0, xmm0
  00073	8b cb		 mov	 ecx, ebx
  00075	f3 0f 11 45 f4	 movss	 DWORD PTR _vWorldPos$532220[ebp+4], xmm0
  0007a	ff 50 44	 call	 DWORD PTR [eax+68]
  0007d	5f		 pop	 edi
  0007e	5e		 pop	 esi
$LN1@InitDummyC:

; 141  : 	}
; 142  : }

  0007f	8b 4d fc	 mov	 ecx, DWORD PTR __$ArrayPad$[ebp]
  00082	33 cd		 xor	 ecx, ebp
  00084	5b		 pop	 ebx
  00085	e8 00 00 00 00	 call	 @__security_check_cookie@4
  0008a	c9		 leave
  0008b	c2 18 00	 ret	 24			; 00000018H
?InitDummyCharInfo@ioTargetTrace13Dummy@@UAEXHKABUD3DXVECTOR3@@0M_N@Z ENDP ; ioTargetTrace13Dummy::InitDummyCharInfo
_TEXT	ENDS
PUBLIC	_pOwner$GSCopy$
PUBLIC	__$ArrayPad$
PUBLIC	?ProcessPosition@ioTargetTrace13Dummy@@IAEXPAVioBaseChar@@@Z ; ioTargetTrace13Dummy::ProcessPosition
; Function compile flags: /Ogsp
;	COMDAT ?ProcessPosition@ioTargetTrace13Dummy@@IAEXPAVioBaseChar@@@Z
_TEXT	SEGMENT
_pOwner$GSCopy$ = -20					; size = 4
_vPos$ = -16						; size = 12
__$ArrayPad$ = -4					; size = 4
_pOwner$ = 8						; size = 4
?ProcessPosition@ioTargetTrace13Dummy@@IAEXPAVioBaseChar@@@Z PROC ; ioTargetTrace13Dummy::ProcessPosition, COMDAT
; _this$ = ecx

; 312  : {

  00000	55		 push	 ebp
  00001	8b ec		 mov	 ebp, esp
  00003	83 ec 14	 sub	 esp, 20			; 00000014H
  00006	a1 00 00 00 00	 mov	 eax, DWORD PTR ___security_cookie
  0000b	33 c5		 xor	 eax, ebp
  0000d	89 45 fc	 mov	 DWORD PTR __$ArrayPad$[ebp], eax
  00010	53		 push	 ebx
  00011	8b d9		 mov	 ebx, ecx
  00013	8b 4d 08	 mov	 ecx, DWORD PTR _pOwner$[ebp]

; 313  : 	D3DXVECTOR3 vPos = pOwner->GetWorldPosition();

  00016	8b 01		 mov	 eax, DWORD PTR [ecx]
  00018	56		 push	 esi
  00019	57		 push	 edi
  0001a	89 4d ec	 mov	 DWORD PTR _pOwner$GSCopy$[ebp], ecx
  0001d	ff 50 70	 call	 DWORD PTR [eax+112]

; 314  : 	vPos.y += m_fAddOffSetHeight;

  00020	f3 0f 10 83 c0
	14 00 00	 movss	 xmm0, DWORD PTR [ebx+5312]
  00028	8b f0		 mov	 esi, eax

; 315  : 
; 316  : 	SetWorldPosition( vPos );

  0002a	8b 03		 mov	 eax, DWORD PTR [ebx]
  0002c	8d 7d f0	 lea	 edi, DWORD PTR _vPos$[ebp]
  0002f	a5		 movsd
  00030	a5		 movsd
  00031	a5		 movsd
  00032	f3 0f 10 4d f4	 movss	 xmm1, DWORD PTR _vPos$[ebp+4]
  00037	0f 5a c0	 cvtps2pd xmm0, xmm0
  0003a	8d 4d f0	 lea	 ecx, DWORD PTR _vPos$[ebp]
  0003d	0f 5a c9	 cvtps2pd xmm1, xmm1
  00040	f2 0f 58 c1	 addsd	 xmm0, xmm1
  00044	51		 push	 ecx
  00045	66 0f 5a c0	 cvtpd2ps xmm0, xmm0
  00049	8b cb		 mov	 ecx, ebx
  0004b	f3 0f 11 45 f4	 movss	 DWORD PTR _vPos$[ebp+4], xmm0
  00050	ff 50 44	 call	 DWORD PTR [eax+68]

; 317  : 	SetWorldOrientation( pOwner->GetTargetRot() );

  00053	8b 4d ec	 mov	 ecx, DWORD PTR _pOwner$GSCopy$[ebp]
  00056	8b 03		 mov	 eax, DWORD PTR [ebx]
  00058	81 c1 a4 06 00
	00		 add	 ecx, 1700		; 000006a4H
  0005e	51		 push	 ecx
  0005f	8b cb		 mov	 ecx, ebx
  00061	ff 50 48	 call	 DWORD PTR [eax+72]

; 318  : }

  00064	8b 4d fc	 mov	 ecx, DWORD PTR __$ArrayPad$[ebp]
  00067	5f		 pop	 edi
  00068	5e		 pop	 esi
  00069	33 cd		 xor	 ecx, ebp
  0006b	5b		 pop	 ebx
  0006c	e8 00 00 00 00	 call	 @__security_check_cookie@4
  00071	c9		 leave
  00072	c2 04 00	 ret	 4
?ProcessPosition@ioTargetTrace13Dummy@@IAEXPAVioBaseChar@@@Z ENDP ; ioTargetTrace13Dummy::ProcessPosition
_TEXT	ENDS
PUBLIC	??1FireTime@@QAE@XZ				; FireTime::~FireTime
EXTRN	___CxxFrameHandler3:PROC
EXTRN	__EH_epilog3:PROC
EXTRN	__EH_prolog3:PROC
;	COMDAT xdata$x
xdata$x	SEGMENT
__unwindtable$??1FireTime@@QAE@XZ DD 0ffffffffH
	DD	FLAT:__unwindfunclet$??1FireTime@@QAE@XZ$0
	DD	00H
	DD	FLAT:__unwindfunclet$??1FireTime@@QAE@XZ$1
__ehfuncinfo$??1FireTime@@QAE@XZ DD 019930522H
	DD	02H
	DD	FLAT:__unwindtable$??1FireTime@@QAE@XZ
	DD	2 DUP(00H)
	DD	2 DUP(00H)
	DD	00H
	DD	01H
; Function compile flags: /Ogsp
xdata$x	ENDS
;	COMDAT ??1FireTime@@QAE@XZ
_TEXT	SEGMENT
_this$ = -16						; size = 4
__$EHRec$ = -12						; size = 12
??1FireTime@@QAE@XZ PROC				; FireTime::~FireTime, COMDAT
; _this$ = ecx
  00000	6a 04		 push	 4
  00002	b8 00 00 00 00	 mov	 eax, __ehhandler$??1FireTime@@QAE@XZ
  00007	e8 00 00 00 00	 call	 __EH_prolog3
  0000c	8b f9		 mov	 edi, ecx
  0000e	89 7d f0	 mov	 DWORD PTR _this$[ebp], edi
  00011	8b 35 00 00 00
	00		 mov	 esi, DWORD PTR __imp_??1ioHashString@@QAE@XZ
  00017	8d 4f 44	 lea	 ecx, DWORD PTR [edi+68]
  0001a	c7 45 fc 01 00
	00 00		 mov	 DWORD PTR __$EHRec$[ebp+8], 1
  00021	ff d6		 call	 esi
  00023	8d 4f 30	 lea	 ecx, DWORD PTR [edi+48]
  00026	c6 45 fc 00	 mov	 BYTE PTR __$EHRec$[ebp+8], 0
  0002a	ff d6		 call	 esi
  0002c	83 4d fc ff	 or	 DWORD PTR __$EHRec$[ebp+8], -1
  00030	8d 4f 14	 lea	 ecx, DWORD PTR [edi+20]
  00033	ff d6		 call	 esi
  00035	e8 00 00 00 00	 call	 __EH_epilog3
  0003a	c3		 ret	 0
_TEXT	ENDS
;	COMDAT text$x
text$x	SEGMENT
__unwindfunclet$??1FireTime@@QAE@XZ$0:
  00000	8b 4d f0	 mov	 ecx, DWORD PTR _this$[ebp]
  00003	83 c1 14	 add	 ecx, 20			; 00000014H
  00006	ff 25 00 00 00
	00		 jmp	 DWORD PTR __imp_??1ioHashString@@QAE@XZ
__unwindfunclet$??1FireTime@@QAE@XZ$1:
  0000c	8b 4d f0	 mov	 ecx, DWORD PTR _this$[ebp]
  0000f	83 c1 30	 add	 ecx, 48			; 00000030H
  00012	ff 25 00 00 00
	00		 jmp	 DWORD PTR __imp_??1ioHashString@@QAE@XZ
__ehhandler$??1FireTime@@QAE@XZ:
  00018	8b 54 24 08	 mov	 edx, DWORD PTR [esp+8]
  0001c	8d 42 0c	 lea	 eax, DWORD PTR [edx+12]
  0001f	8b 4a ec	 mov	 ecx, DWORD PTR [edx-20]
  00022	33 c8		 xor	 ecx, eax
  00024	e8 00 00 00 00	 call	 @__security_check_cookie@4
  00029	b8 00 00 00 00	 mov	 eax, OFFSET __ehfuncinfo$??1FireTime@@QAE@XZ
  0002e	e9 00 00 00 00	 jmp	 ___CxxFrameHandler3
text$x	ENDS
??1FireTime@@QAE@XZ ENDP				; FireTime::~FireTime
PUBLIC	?OnProcessStartState@ioTargetTrace13Dummy@@IAEXXZ ; ioTargetTrace13Dummy::OnProcessStartState
EXTRN	__imp_?GetLoopSec@ioFrameTimer@@QBEKXZ:PROC
EXTRN	__imp_?GetSingleton@ioFrameTimer@@SAAAV1@XZ:PROC
; Function compile flags: /Ogsp
;	COMDAT ?OnProcessStartState@ioTargetTrace13Dummy@@IAEXXZ
_TEXT	SEGMENT
?OnProcessStartState@ioTargetTrace13Dummy@@IAEXXZ PROC	; ioTargetTrace13Dummy::OnProcessStartState, COMDAT
; _this$ = ecx

; 341  : {

  00000	56		 push	 esi
  00001	8b f1		 mov	 esi, ecx

; 342  : 	DWORD dwCurTime = FRAMEGETTIME();

  00003	ff 15 00 00 00
	00		 call	 DWORD PTR __imp_?GetSingleton@ioFrameTimer@@SAAAV1@XZ
  00009	8b c8		 mov	 ecx, eax
  0000b	ff 15 00 00 00
	00		 call	 DWORD PTR __imp_?GetLoopSec@ioFrameTimer@@QBEKXZ

; 343  : 	if( m_dwStartAniEndTime == 0 || m_dwStartAniEndTime < dwCurTime )

  00011	8b 8e e4 06 00
	00		 mov	 ecx, DWORD PTR [esi+1764]
  00017	85 c9		 test	 ecx, ecx
  00019	74 04		 je	 SHORT $LN2@OnProcessS
  0001b	3b c8		 cmp	 ecx, eax
  0001d	73 14		 jae	 SHORT $LN1@OnProcessS
$LN2@OnProcessS:

; 344  : 	{
; 345  : 		SetDelayState( false );

  0001f	8b 06		 mov	 eax, DWORD PTR [esi]
  00021	6a 00		 push	 0
  00023	8b ce		 mov	 ecx, esi
  00025	ff 90 14 01 00
	00		 call	 DWORD PTR [eax+276]

; 346  : 
; 347  : 		ioBaseChar *pOwner = GetOwner();

  0002b	8b ce		 mov	 ecx, esi
  0002d	5e		 pop	 esi
  0002e	e9 00 00 00 00	 jmp	 ?GetOwner@ioDummyChar@@QBEPAVioBaseChar@@XZ ; ioDummyChar::GetOwner
$LN1@OnProcessS:
  00033	5e		 pop	 esi

; 348  : 		if ( !pOwner )
; 349  : 			return;
; 350  : 	}
; 351  : }

  00034	c3		 ret	 0
?OnProcessStartState@ioTargetTrace13Dummy@@IAEXXZ ENDP	; ioTargetTrace13Dummy::OnProcessStartState
_TEXT	ENDS
PUBLIC	??4DummyTT13AttackInfo@@QAEAAU0@ABU0@@Z		; DummyTT13AttackInfo::operator=
EXTRN	__imp_??4ioHashString@@QAEAAV0@ABV0@@Z:PROC
; Function compile flags: /Ogsp
;	COMDAT ??4DummyTT13AttackInfo@@QAEAAU0@ABU0@@Z
_TEXT	SEGMENT
___that$ = 8						; size = 4
??4DummyTT13AttackInfo@@QAEAAU0@ABU0@@Z PROC		; DummyTT13AttackInfo::operator=, COMDAT
; _this$ = ecx
  00000	55		 push	 ebp
  00001	8b ec		 mov	 ebp, esp
  00003	56		 push	 esi
  00004	57		 push	 edi
  00005	8b 7d 08	 mov	 edi, DWORD PTR ___that$[ebp]
  00008	8b 07		 mov	 eax, DWORD PTR [edi]
  0000a	8b f1		 mov	 esi, ecx
  0000c	89 06		 mov	 DWORD PTR [esi], eax
  0000e	8b 47 04	 mov	 eax, DWORD PTR [edi+4]
  00011	89 46 04	 mov	 DWORD PTR [esi+4], eax
  00014	8d 47 08	 lea	 eax, DWORD PTR [edi+8]
  00017	50		 push	 eax
  00018	8d 4e 08	 lea	 ecx, DWORD PTR [esi+8]
  0001b	ff 15 00 00 00
	00		 call	 DWORD PTR __imp_??4ioHashString@@QAEAAV0@ABV0@@Z
  00021	d9 47 18	 fld	 DWORD PTR [edi+24]
  00024	d9 5e 18	 fstp	 DWORD PTR [esi+24]
  00027	8b c6		 mov	 eax, esi
  00029	d9 47 1c	 fld	 DWORD PTR [edi+28]
  0002c	d9 5e 1c	 fstp	 DWORD PTR [esi+28]
  0002f	d9 47 20	 fld	 DWORD PTR [edi+32]
  00032	d9 5e 20	 fstp	 DWORD PTR [esi+32]
  00035	d9 47 24	 fld	 DWORD PTR [edi+36]
  00038	d9 5e 24	 fstp	 DWORD PTR [esi+36]
  0003b	d9 47 28	 fld	 DWORD PTR [edi+40]
  0003e	d9 5e 28	 fstp	 DWORD PTR [esi+40]
  00041	d9 47 2c	 fld	 DWORD PTR [edi+44]
  00044	d9 5e 2c	 fstp	 DWORD PTR [esi+44]
  00047	d9 47 30	 fld	 DWORD PTR [edi+48]
  0004a	d9 5e 30	 fstp	 DWORD PTR [esi+48]
  0004d	d9 47 34	 fld	 DWORD PTR [edi+52]
  00050	d9 5e 34	 fstp	 DWORD PTR [esi+52]
  00053	d9 47 38	 fld	 DWORD PTR [edi+56]
  00056	5f		 pop	 edi
  00057	d9 5e 38	 fstp	 DWORD PTR [esi+56]
  0005a	5e		 pop	 esi
  0005b	5d		 pop	 ebp
  0005c	c2 04 00	 ret	 4
??4DummyTT13AttackInfo@@QAEAAU0@ABU0@@Z ENDP		; DummyTT13AttackInfo::operator=
_TEXT	ENDS
PUBLIC	?SetDieState@ioTargetTrace13Dummy@@UAEX_N@Z	; ioTargetTrace13Dummy::SetDieState
EXTRN	?SetDieState@ioDummyChar@@UAEX_N0@Z:PROC	; ioDummyChar::SetDieState
EXTRN	?RemoveSummonDummyInfo@ioPlayStage@@QAEXH_N@Z:PROC ; ioPlayStage::RemoveSummonDummyInfo
; Function compile flags: /Ogsp
;	COMDAT ?SetDieState@ioTargetTrace13Dummy@@UAEX_N@Z
_TEXT	SEGMENT
_bEffect$ = 8						; size = 1
?SetDieState@ioTargetTrace13Dummy@@UAEX_N@Z PROC	; ioTargetTrace13Dummy::SetDieState, COMDAT
; _this$ = ecx

; 964  : {

  00000	55		 push	 ebp
  00001	8b ec		 mov	 ebp, esp
  00003	56		 push	 esi
  00004	8b f1		 mov	 esi, ecx

; 965  : 	ioBaseChar *pOwner = GetOwner();

  00006	e8 00 00 00 00	 call	 ?GetOwner@ioDummyChar@@QBEPAVioBaseChar@@XZ ; ioDummyChar::GetOwner

; 966  : 	if( !pOwner ) 

  0000b	85 c0		 test	 eax, eax
  0000d	74 23		 je	 SHORT $LN3@SetDieStat

; 967  : 		return;
; 968  : 
; 969  : 	ioPlayStage *pStage = pOwner->GetCreator();

  0000f	8b 88 44 03 00
	00		 mov	 ecx, DWORD PTR [eax+836]

; 970  : 	if( !pStage ) 

  00015	85 c9		 test	 ecx, ecx
  00017	74 19		 je	 SHORT $LN3@SetDieStat

; 971  : 		return;
; 972  : 
; 973  : 	pStage->RemoveSummonDummyInfo( m_iCreateIndex, false );

  00019	6a 00		 push	 0
  0001b	ff b6 dc 01 00
	00		 push	 DWORD PTR [esi+476]
  00021	e8 00 00 00 00	 call	 ?RemoveSummonDummyInfo@ioPlayStage@@QAEXH_N@Z ; ioPlayStage::RemoveSummonDummyInfo

; 974  : 
; 975  : 	ioDummyChar::SetDieState( bEffect );

  00026	6a 00		 push	 0
  00028	ff 75 08	 push	 DWORD PTR _bEffect$[ebp]
  0002b	8b ce		 mov	 ecx, esi
  0002d	e8 00 00 00 00	 call	 ?SetDieState@ioDummyChar@@UAEX_N0@Z ; ioDummyChar::SetDieState
$LN3@SetDieStat:
  00032	5e		 pop	 esi

; 976  : }

  00033	5d		 pop	 ebp
  00034	c2 04 00	 ret	 4
?SetDieState@ioTargetTrace13Dummy@@UAEX_N@Z ENDP	; ioTargetTrace13Dummy::SetDieState
_TEXT	ENDS
PUBLIC	??A?$vector@VioHashString@@V?$allocator@VioHashString@@@std@@@std@@QAEAAVioHashString@@I@Z ; std::vector<ioHashString,std::allocator<ioHashString> >::operator[]
; Function compile flags: /Ogsp
; File c:\program files (x86)\microsoft visual studio 10.0\vc\include\vector
;	COMDAT ??A?$vector@VioHashString@@V?$allocator@VioHashString@@@std@@@std@@QAEAAVioHashString@@I@Z
_TEXT	SEGMENT
__Pos$ = 8						; size = 4
??A?$vector@VioHashString@@V?$allocator@VioHashString@@@std@@@std@@QAEAAVioHashString@@I@Z PROC ; std::vector<ioHashString,std::allocator<ioHashString> >::operator[], COMDAT
; _this$ = ecx

; 928  : 		{	// subscript mutable sequence

  00000	55		 push	 ebp
  00001	8b ec		 mov	 ebp, esp

; 929  :  #if _ITERATOR_DEBUG_LEVEL == 2
; 930  : 		if (size() <= _Pos)
; 931  : 			{	// report error
; 932  : 			_DEBUG_ERROR("vector subscript out of range");
; 933  : 			_SCL_SECURE_OUT_OF_RANGE;
; 934  : 			}
; 935  : 
; 936  :  #elif _ITERATOR_DEBUG_LEVEL == 1
; 937  : 		_SCL_SECURE_VALIDATE_RANGE(_Pos < size());
; 938  :  #endif /* _ITERATOR_DEBUG_LEVEL */
; 939  : 
; 940  : 		return (*(this->_Myfirst + _Pos));

  00003	8b 45 08	 mov	 eax, DWORD PTR __Pos$[ebp]
  00006	c1 e0 04	 shl	 eax, 4
  00009	03 01		 add	 eax, DWORD PTR [ecx]

; 941  : 		}

  0000b	5d		 pop	 ebp
  0000c	c2 04 00	 ret	 4
??A?$vector@VioHashString@@V?$allocator@VioHashString@@@std@@@std@@QAEAAVioHashString@@I@Z ENDP ; std::vector<ioHashString,std::allocator<ioHashString> >::operator[]
_TEXT	ENDS
PUBLIC	?size@?$vector@UDummyTT13AttackInfo@@V?$allocator@UDummyTT13AttackInfo@@@std@@@std@@QBEIXZ ; std::vector<DummyTT13AttackInfo,std::allocator<DummyTT13AttackInfo> >::size
; Function compile flags: /Ogsp
;	COMDAT ?size@?$vector@UDummyTT13AttackInfo@@V?$allocator@UDummyTT13AttackInfo@@@std@@@std@@QBEIXZ
_TEXT	SEGMENT
?size@?$vector@UDummyTT13AttackInfo@@V?$allocator@UDummyTT13AttackInfo@@@std@@@std@@QBEIXZ PROC ; std::vector<DummyTT13AttackInfo,std::allocator<DummyTT13AttackInfo> >::size, COMDAT
; _this$ = ecx

; 879  : 		return (this->_Mylast - this->_Myfirst);

  00000	8b 41 04	 mov	 eax, DWORD PTR [ecx+4]
  00003	2b 01		 sub	 eax, DWORD PTR [ecx]
  00005	6a 3c		 push	 60			; 0000003cH
  00007	99		 cdq
  00008	59		 pop	 ecx
  00009	f7 f9		 idiv	 ecx

; 880  : 		}

  0000b	c3		 ret	 0
?size@?$vector@UDummyTT13AttackInfo@@V?$allocator@UDummyTT13AttackInfo@@@std@@@std@@QBEIXZ ENDP ; std::vector<DummyTT13AttackInfo,std::allocator<DummyTT13AttackInfo> >::size
_TEXT	ENDS
PUBLIC	??A?$vector@UDummyTT13AttackInfo@@V?$allocator@UDummyTT13AttackInfo@@@std@@@std@@QAEAAUDummyTT13AttackInfo@@I@Z ; std::vector<DummyTT13AttackInfo,std::allocator<DummyTT13AttackInfo> >::operator[]
; Function compile flags: /Ogsp
;	COMDAT ??A?$vector@UDummyTT13AttackInfo@@V?$allocator@UDummyTT13AttackInfo@@@std@@@std@@QAEAAUDummyTT13AttackInfo@@I@Z
_TEXT	SEGMENT
__Pos$ = 8						; size = 4
??A?$vector@UDummyTT13AttackInfo@@V?$allocator@UDummyTT13AttackInfo@@@std@@@std@@QAEAAUDummyTT13AttackInfo@@I@Z PROC ; std::vector<DummyTT13AttackInfo,std::allocator<DummyTT13AttackInfo> >::operator[], COMDAT
; _this$ = ecx

; 928  : 		{	// subscript mutable sequence

  00000	55		 push	 ebp
  00001	8b ec		 mov	 ebp, esp

; 929  :  #if _ITERATOR_DEBUG_LEVEL == 2
; 930  : 		if (size() <= _Pos)
; 931  : 			{	// report error
; 932  : 			_DEBUG_ERROR("vector subscript out of range");
; 933  : 			_SCL_SECURE_OUT_OF_RANGE;
; 934  : 			}
; 935  : 
; 936  :  #elif _ITERATOR_DEBUG_LEVEL == 1
; 937  : 		_SCL_SECURE_VALIDATE_RANGE(_Pos < size());
; 938  :  #endif /* _ITERATOR_DEBUG_LEVEL */
; 939  : 
; 940  : 		return (*(this->_Myfirst + _Pos));

  00003	8b 45 08	 mov	 eax, DWORD PTR __Pos$[ebp]
  00006	6b c0 3c	 imul	 eax, 60			; 0000003cH
  00009	03 01		 add	 eax, DWORD PTR [ecx]

; 941  : 		}

  0000b	5d		 pop	 ebp
  0000c	c2 04 00	 ret	 4
??A?$vector@UDummyTT13AttackInfo@@V?$allocator@UDummyTT13AttackInfo@@@std@@@std@@QAEAAUDummyTT13AttackInfo@@I@Z ENDP ; std::vector<DummyTT13AttackInfo,std::allocator<DummyTT13AttackInfo> >::operator[]
_TEXT	ENDS
PUBLIC	??D?$_Vector_const_iterator@V?$_Vector_val@UDummyTT13AttackInfo@@V?$allocator@UDummyTT13AttackInfo@@@std@@@std@@@std@@QBEABUDummyTT13AttackInfo@@XZ ; std::_Vector_const_iterator<std::_Vector_val<DummyTT13AttackInfo,std::allocator<DummyTT13AttackInfo> > >::operator*
; Function compile flags: /Ogsp
;	COMDAT ??D?$_Vector_const_iterator@V?$_Vector_val@UDummyTT13AttackInfo@@V?$allocator@UDummyTT13AttackInfo@@@std@@@std@@@std@@QBEABUDummyTT13AttackInfo@@XZ
_TEXT	SEGMENT
??D?$_Vector_const_iterator@V?$_Vector_val@UDummyTT13AttackInfo@@V?$allocator@UDummyTT13AttackInfo@@@std@@@std@@@std@@QBEABUDummyTT13AttackInfo@@XZ PROC ; std::_Vector_const_iterator<std::_Vector_val<DummyTT13AttackInfo,std::allocator<DummyTT13AttackInfo> > >::operator*, COMDAT
; _this$ = ecx

; 64   :  #if _ITERATOR_DEBUG_LEVEL == 2
; 65   : 		if (this->_Getcont() == 0
; 66   : 			|| this->_Ptr == 0
; 67   : 			|| this->_Ptr < ((_Myvec *)this->_Getcont())->_Myfirst
; 68   : 			|| ((_Myvec *)this->_Getcont())->_Mylast <= this->_Ptr)
; 69   : 			{	// report error
; 70   : 			_DEBUG_ERROR("vector iterator not dereferencable");
; 71   : 			_SCL_SECURE_OUT_OF_RANGE;
; 72   : 			}
; 73   : 
; 74   :  #elif _ITERATOR_DEBUG_LEVEL == 1
; 75   : 		_SCL_SECURE_VALIDATE(this->_Getcont() != 0);
; 76   : 		_SCL_SECURE_VALIDATE_RANGE(
; 77   : 			this->_Ptr != 0
; 78   : 			&& ((_Myvec *)this->_Getcont())->_Myfirst <= this->_Ptr
; 79   : 			&& this->_Ptr < ((_Myvec *)this->_Getcont())->_Mylast);
; 80   :  #endif /* _ITERATOR_DEBUG_LEVEL */
; 81   : 
; 82   : 		__analysis_assume(this->_Ptr != 0);
; 83   : 
; 84   : 		return (*this->_Ptr);

  00000	8b 01		 mov	 eax, DWORD PTR [ecx]

; 85   : 		}

  00002	c3		 ret	 0
??D?$_Vector_const_iterator@V?$_Vector_val@UDummyTT13AttackInfo@@V?$allocator@UDummyTT13AttackInfo@@@std@@@std@@@std@@QBEABUDummyTT13AttackInfo@@XZ ENDP ; std::_Vector_const_iterator<std::_Vector_val<DummyTT13AttackInfo,std::allocator<DummyTT13AttackInfo> > >::operator*
_TEXT	ENDS
PUBLIC	??E?$_Vector_const_iterator@V?$_Vector_val@UDummyTT13AttackInfo@@V?$allocator@UDummyTT13AttackInfo@@@std@@@std@@@std@@QAEAAV01@XZ ; std::_Vector_const_iterator<std::_Vector_val<DummyTT13AttackInfo,std::allocator<DummyTT13AttackInfo> > >::operator++
; Function compile flags: /Ogsp
;	COMDAT ??E?$_Vector_const_iterator@V?$_Vector_val@UDummyTT13AttackInfo@@V?$allocator@UDummyTT13AttackInfo@@@std@@@std@@@std@@QAEAAV01@XZ
_TEXT	SEGMENT
??E?$_Vector_const_iterator@V?$_Vector_val@UDummyTT13AttackInfo@@V?$allocator@UDummyTT13AttackInfo@@@std@@@std@@@std@@QAEAAV01@XZ PROC ; std::_Vector_const_iterator<std::_Vector_val<DummyTT13AttackInfo,std::allocator<DummyTT13AttackInfo> > >::operator++, COMDAT
; _this$ = ecx

; 93   : 		{	// preincrement

  00000	8b c1		 mov	 eax, ecx

; 94   :  #if _ITERATOR_DEBUG_LEVEL == 2
; 95   : 		if (this->_Getcont() == 0
; 96   : 			|| this->_Ptr == 0
; 97   : 			|| ((_Myvec *)this->_Getcont())->_Mylast <= this->_Ptr)
; 98   : 			{	// report error
; 99   : 			_DEBUG_ERROR("vector iterator not incrementable");
; 100  : 			_SCL_SECURE_OUT_OF_RANGE;
; 101  : 			}
; 102  : 
; 103  :  #elif _ITERATOR_DEBUG_LEVEL == 1
; 104  : 		_SCL_SECURE_VALIDATE(this->_Getcont() != 0);
; 105  : 		_SCL_SECURE_VALIDATE_RANGE(
; 106  : 			this->_Ptr != 0
; 107  : 			&& this->_Ptr < ((_Myvec *)this->_Getcont())->_Mylast);
; 108  :  #endif /* _ITERATOR_DEBUG_LEVEL */
; 109  : 
; 110  : 		++this->_Ptr;

  00002	83 00 3c	 add	 DWORD PTR [eax], 60	; 0000003cH

; 111  : 		return (*this);
; 112  : 		}

  00005	c3		 ret	 0
??E?$_Vector_const_iterator@V?$_Vector_val@UDummyTT13AttackInfo@@V?$allocator@UDummyTT13AttackInfo@@@std@@@std@@@std@@QAEAAV01@XZ ENDP ; std::_Vector_const_iterator<std::_Vector_val<DummyTT13AttackInfo,std::allocator<DummyTT13AttackInfo> > >::operator++
_TEXT	ENDS
PUBLIC	??0?$_Vector_const_iterator@V?$_Vector_val@PAVioBaseChar@@V?$allocator@PAVioBaseChar@@@std@@@std@@@std@@QAE@XZ ; std::_Vector_const_iterator<std::_Vector_val<ioBaseChar *,std::allocator<ioBaseChar *> > >::_Vector_const_iterator<std::_Vector_val<ioBaseChar *,std::allocator<ioBaseChar *> > >
; Function compile flags: /Ogsp
;	COMDAT ??0?$_Vector_const_iterator@V?$_Vector_val@PAVioBaseChar@@V?$allocator@PAVioBaseChar@@@std@@@std@@@std@@QAE@XZ
_TEXT	SEGMENT
??0?$_Vector_const_iterator@V?$_Vector_val@PAVioBaseChar@@V?$allocator@PAVioBaseChar@@@std@@@std@@@std@@QAE@XZ PROC ; std::_Vector_const_iterator<std::_Vector_val<ioBaseChar *,std::allocator<ioBaseChar *> > >::_Vector_const_iterator<std::_Vector_val<ioBaseChar *,std::allocator<ioBaseChar *> > >, COMDAT
; _this$ = ecx

; 40   : 		{	// construct with null pointer

  00000	8b c1		 mov	 eax, ecx
  00002	83 20 00	 and	 DWORD PTR [eax], 0

; 41   : 		}

  00005	c3		 ret	 0
??0?$_Vector_const_iterator@V?$_Vector_val@PAVioBaseChar@@V?$allocator@PAVioBaseChar@@@std@@@std@@@std@@QAE@XZ ENDP ; std::_Vector_const_iterator<std::_Vector_val<ioBaseChar *,std::allocator<ioBaseChar *> > >::_Vector_const_iterator<std::_Vector_val<ioBaseChar *,std::allocator<ioBaseChar *> > >
_TEXT	ENDS
PUBLIC	??D?$_Vector_const_iterator@V?$_Vector_val@PAVioBaseChar@@V?$allocator@PAVioBaseChar@@@std@@@std@@@std@@QBEABQAVioBaseChar@@XZ ; std::_Vector_const_iterator<std::_Vector_val<ioBaseChar *,std::allocator<ioBaseChar *> > >::operator*
; Function compile flags: /Ogsp
;	COMDAT ??D?$_Vector_const_iterator@V?$_Vector_val@PAVioBaseChar@@V?$allocator@PAVioBaseChar@@@std@@@std@@@std@@QBEABQAVioBaseChar@@XZ
_TEXT	SEGMENT
??D?$_Vector_const_iterator@V?$_Vector_val@PAVioBaseChar@@V?$allocator@PAVioBaseChar@@@std@@@std@@@std@@QBEABQAVioBaseChar@@XZ PROC ; std::_Vector_const_iterator<std::_Vector_val<ioBaseChar *,std::allocator<ioBaseChar *> > >::operator*, COMDAT
; _this$ = ecx

; 64   :  #if _ITERATOR_DEBUG_LEVEL == 2
; 65   : 		if (this->_Getcont() == 0
; 66   : 			|| this->_Ptr == 0
; 67   : 			|| this->_Ptr < ((_Myvec *)this->_Getcont())->_Myfirst
; 68   : 			|| ((_Myvec *)this->_Getcont())->_Mylast <= this->_Ptr)
; 69   : 			{	// report error
; 70   : 			_DEBUG_ERROR("vector iterator not dereferencable");
; 71   : 			_SCL_SECURE_OUT_OF_RANGE;
; 72   : 			}
; 73   : 
; 74   :  #elif _ITERATOR_DEBUG_LEVEL == 1
; 75   : 		_SCL_SECURE_VALIDATE(this->_Getcont() != 0);
; 76   : 		_SCL_SECURE_VALIDATE_RANGE(
; 77   : 			this->_Ptr != 0
; 78   : 			&& ((_Myvec *)this->_Getcont())->_Myfirst <= this->_Ptr
; 79   : 			&& this->_Ptr < ((_Myvec *)this->_Getcont())->_Mylast);
; 80   :  #endif /* _ITERATOR_DEBUG_LEVEL */
; 81   : 
; 82   : 		__analysis_assume(this->_Ptr != 0);
; 83   : 
; 84   : 		return (*this->_Ptr);

  00000	8b 01		 mov	 eax, DWORD PTR [ecx]

; 85   : 		}

  00002	c3		 ret	 0
??D?$_Vector_const_iterator@V?$_Vector_val@PAVioBaseChar@@V?$allocator@PAVioBaseChar@@@std@@@std@@@std@@QBEABQAVioBaseChar@@XZ ENDP ; std::_Vector_const_iterator<std::_Vector_val<ioBaseChar *,std::allocator<ioBaseChar *> > >::operator*
_TEXT	ENDS
PUBLIC	??E?$_Vector_const_iterator@V?$_Vector_val@PAVioBaseChar@@V?$allocator@PAVioBaseChar@@@std@@@std@@@std@@QAEAAV01@XZ ; std::_Vector_const_iterator<std::_Vector_val<ioBaseChar *,std::allocator<ioBaseChar *> > >::operator++
; Function compile flags: /Ogsp
;	COMDAT ??E?$_Vector_const_iterator@V?$_Vector_val@PAVioBaseChar@@V?$allocator@PAVioBaseChar@@@std@@@std@@@std@@QAEAAV01@XZ
_TEXT	SEGMENT
??E?$_Vector_const_iterator@V?$_Vector_val@PAVioBaseChar@@V?$allocator@PAVioBaseChar@@@std@@@std@@@std@@QAEAAV01@XZ PROC ; std::_Vector_const_iterator<std::_Vector_val<ioBaseChar *,std::allocator<ioBaseChar *> > >::operator++, COMDAT
; _this$ = ecx

; 93   : 		{	// preincrement

  00000	8b c1		 mov	 eax, ecx

; 94   :  #if _ITERATOR_DEBUG_LEVEL == 2
; 95   : 		if (this->_Getcont() == 0
; 96   : 			|| this->_Ptr == 0
; 97   : 			|| ((_Myvec *)this->_Getcont())->_Mylast <= this->_Ptr)
; 98   : 			{	// report error
; 99   : 			_DEBUG_ERROR("vector iterator not incrementable");
; 100  : 			_SCL_SECURE_OUT_OF_RANGE;
; 101  : 			}
; 102  : 
; 103  :  #elif _ITERATOR_DEBUG_LEVEL == 1
; 104  : 		_SCL_SECURE_VALIDATE(this->_Getcont() != 0);
; 105  : 		_SCL_SECURE_VALIDATE_RANGE(
; 106  : 			this->_Ptr != 0
; 107  : 			&& this->_Ptr < ((_Myvec *)this->_Getcont())->_Mylast);
; 108  :  #endif /* _ITERATOR_DEBUG_LEVEL */
; 109  : 
; 110  : 		++this->_Ptr;

  00002	83 00 04	 add	 DWORD PTR [eax], 4

; 111  : 		return (*this);
; 112  : 		}

  00005	c3		 ret	 0
??E?$_Vector_const_iterator@V?$_Vector_val@PAVioBaseChar@@V?$allocator@PAVioBaseChar@@@std@@@std@@@std@@QAEAAV01@XZ ENDP ; std::_Vector_const_iterator<std::_Vector_val<ioBaseChar *,std::allocator<ioBaseChar *> > >::operator++
_TEXT	ENDS
PUBLIC	?_Nextnode@?$_List_val@UFireTime@@V?$allocator@UFireTime@@@std@@@std@@SAAAPAU_Node@?$_List_nod@UFireTime@@V?$allocator@UFireTime@@@std@@@2@PAU342@@Z ; std::_List_val<FireTime,std::allocator<FireTime> >::_Nextnode
; Function compile flags: /Ogsp
; File c:\program files (x86)\microsoft visual studio 10.0\vc\include\list
;	COMDAT ?_Nextnode@?$_List_val@UFireTime@@V?$allocator@UFireTime@@@std@@@std@@SAAAPAU_Node@?$_List_nod@UFireTime@@V?$allocator@UFireTime@@@std@@@2@PAU342@@Z
_TEXT	SEGMENT
__Pnode$ = 8						; size = 4
?_Nextnode@?$_List_val@UFireTime@@V?$allocator@UFireTime@@@std@@@std@@SAAAPAU_Node@?$_List_nod@UFireTime@@V?$allocator@UFireTime@@@std@@@2@PAU342@@Z PROC ; std::_List_val<FireTime,std::allocator<FireTime> >::_Nextnode, COMDAT

; 560  : 		{	// return reference to successor pointer in node

  00000	55		 push	 ebp
  00001	8b ec		 mov	 ebp, esp

; 561  : 		return ((_Nodepref)(*_Pnode)._Next);

  00003	8b 45 08	 mov	 eax, DWORD PTR __Pnode$[ebp]

; 562  : 		}

  00006	5d		 pop	 ebp
  00007	c3		 ret	 0
?_Nextnode@?$_List_val@UFireTime@@V?$allocator@UFireTime@@@std@@@std@@SAAAPAU_Node@?$_List_nod@UFireTime@@V?$allocator@UFireTime@@@std@@@2@PAU342@@Z ENDP ; std::_List_val<FireTime,std::allocator<FireTime> >::_Nextnode
_TEXT	ENDS
PUBLIC	?_Prevnode@?$_List_val@UFireTime@@V?$allocator@UFireTime@@@std@@@std@@SAAAPAU_Node@?$_List_nod@UFireTime@@V?$allocator@UFireTime@@@std@@@2@PAU342@@Z ; std::_List_val<FireTime,std::allocator<FireTime> >::_Prevnode
; Function compile flags: /Ogsp
;	COMDAT ?_Prevnode@?$_List_val@UFireTime@@V?$allocator@UFireTime@@@std@@@std@@SAAAPAU_Node@?$_List_nod@UFireTime@@V?$allocator@UFireTime@@@std@@@2@PAU342@@Z
_TEXT	SEGMENT
__Pnode$ = 8						; size = 4
?_Prevnode@?$_List_val@UFireTime@@V?$allocator@UFireTime@@@std@@@std@@SAAAPAU_Node@?$_List_nod@UFireTime@@V?$allocator@UFireTime@@@std@@@2@PAU342@@Z PROC ; std::_List_val<FireTime,std::allocator<FireTime> >::_Prevnode, COMDAT

; 565  : 		{	// return reference to predecessor pointer in node

  00000	55		 push	 ebp
  00001	8b ec		 mov	 ebp, esp

; 566  : 		return ((_Nodepref)(*_Pnode)._Prev);

  00003	8b 45 08	 mov	 eax, DWORD PTR __Pnode$[ebp]
  00006	83 c0 04	 add	 eax, 4

; 567  : 		}

  00009	5d		 pop	 ebp
  0000a	c3		 ret	 0
?_Prevnode@?$_List_val@UFireTime@@V?$allocator@UFireTime@@@std@@@std@@SAAAPAU_Node@?$_List_nod@UFireTime@@V?$allocator@UFireTime@@@std@@@2@PAU342@@Z ENDP ; std::_List_val<FireTime,std::allocator<FireTime> >::_Prevnode
_TEXT	ENDS
PUBLIC	?deallocate@?$allocator@U_Node@?$_List_nod@UFireTime@@V?$allocator@UFireTime@@@std@@@std@@@std@@QAEXPAU_Node@?$_List_nod@UFireTime@@V?$allocator@UFireTime@@@std@@@2@I@Z ; std::allocator<std::_List_nod<FireTime,std::allocator<FireTime> >::_Node>::deallocate
; Function compile flags: /Ogsp
; File c:\program files (x86)\microsoft visual studio 10.0\vc\include\xmemory
;	COMDAT ?deallocate@?$allocator@U_Node@?$_List_nod@UFireTime@@V?$allocator@UFireTime@@@std@@@std@@@std@@QAEXPAU_Node@?$_List_nod@UFireTime@@V?$allocator@UFireTime@@@std@@@2@I@Z
_TEXT	SEGMENT
__Ptr$ = 8						; size = 4
___formal$ = 12						; size = 4
?deallocate@?$allocator@U_Node@?$_List_nod@UFireTime@@V?$allocator@UFireTime@@@std@@@std@@@std@@QAEXPAU_Node@?$_List_nod@UFireTime@@V?$allocator@UFireTime@@@std@@@2@I@Z PROC ; std::allocator<std::_List_nod<FireTime,std::allocator<FireTime> >::_Node>::deallocate, COMDAT
; _this$ = ecx

; 181  : 		{	// deallocate object at _Ptr, ignore size

  00000	55		 push	 ebp
  00001	8b ec		 mov	 ebp, esp

; 182  : 		::operator delete(_Ptr);

  00003	ff 75 08	 push	 DWORD PTR __Ptr$[ebp]
  00006	e8 00 00 00 00	 call	 ??3@YAXPAX@Z		; operator delete
  0000b	59		 pop	 ecx

; 183  : 		}

  0000c	5d		 pop	 ebp
  0000d	c2 08 00	 ret	 8
?deallocate@?$allocator@U_Node@?$_List_nod@UFireTime@@V?$allocator@UFireTime@@@std@@@std@@@std@@QAEXPAU_Node@?$_List_nod@UFireTime@@V?$allocator@UFireTime@@@std@@@2@I@Z ENDP ; std::allocator<std::_List_nod<FireTime,std::allocator<FireTime> >::_Node>::deallocate
_TEXT	ENDS
PUBLIC	?_Inside@?$vector@UDummyTT13AttackInfo@@V?$allocator@UDummyTT13AttackInfo@@@std@@@std@@IBE_NPBUDummyTT13AttackInfo@@@Z ; std::vector<DummyTT13AttackInfo,std::allocator<DummyTT13AttackInfo> >::_Inside
; Function compile flags: /Ogsp
; File c:\program files (x86)\microsoft visual studio 10.0\vc\include\vector
;	COMDAT ?_Inside@?$vector@UDummyTT13AttackInfo@@V?$allocator@UDummyTT13AttackInfo@@@std@@@std@@IBE_NPBUDummyTT13AttackInfo@@@Z
_TEXT	SEGMENT
__Ptr$ = 8						; size = 4
?_Inside@?$vector@UDummyTT13AttackInfo@@V?$allocator@UDummyTT13AttackInfo@@@std@@@std@@IBE_NPBUDummyTT13AttackInfo@@@Z PROC ; std::vector<DummyTT13AttackInfo,std::allocator<DummyTT13AttackInfo> >::_Inside, COMDAT
; _this$ = ecx

; 1285 : 		{	// test if _Ptr points inside vector

  00000	55		 push	 ebp
  00001	8b ec		 mov	 ebp, esp

; 1286 : 		return (_Ptr < this->_Mylast && this->_Myfirst <= _Ptr);

  00003	8b 45 08	 mov	 eax, DWORD PTR __Ptr$[ebp]
  00006	3b 41 04	 cmp	 eax, DWORD PTR [ecx+4]
  00009	73 09		 jae	 SHORT $LN3@Inside
  0000b	39 01		 cmp	 DWORD PTR [ecx], eax
  0000d	77 05		 ja	 SHORT $LN3@Inside
  0000f	33 c0		 xor	 eax, eax
  00011	40		 inc	 eax
  00012	eb 02		 jmp	 SHORT $LN4@Inside
$LN3@Inside:
  00014	33 c0		 xor	 eax, eax
$LN4@Inside:

; 1287 : 		}

  00016	5d		 pop	 ebp
  00017	c2 04 00	 ret	 4
?_Inside@?$vector@UDummyTT13AttackInfo@@V?$allocator@UDummyTT13AttackInfo@@@std@@@std@@IBE_NPBUDummyTT13AttackInfo@@@Z ENDP ; std::vector<DummyTT13AttackInfo,std::allocator<DummyTT13AttackInfo> >::_Inside
_TEXT	ENDS
PUBLIC	?_Orphan_range@?$vector@UDummyTT13AttackInfo@@V?$allocator@UDummyTT13AttackInfo@@@std@@@std@@IBEXPAUDummyTT13AttackInfo@@0@Z ; std::vector<DummyTT13AttackInfo,std::allocator<DummyTT13AttackInfo> >::_Orphan_range
; Function compile flags: /Ogsp
;	COMDAT ?_Orphan_range@?$vector@UDummyTT13AttackInfo@@V?$allocator@UDummyTT13AttackInfo@@@std@@@std@@IBEXPAUDummyTT13AttackInfo@@0@Z
_TEXT	SEGMENT
___formal$ = 8						; size = 4
___formal$ = 12						; size = 4
?_Orphan_range@?$vector@UDummyTT13AttackInfo@@V?$allocator@UDummyTT13AttackInfo@@@std@@@std@@IBEXPAUDummyTT13AttackInfo@@0@Z PROC ; std::vector<DummyTT13AttackInfo,std::allocator<DummyTT13AttackInfo> >::_Orphan_range, COMDAT
; _this$ = ecx

; 1454 : 		}

  00000	c2 08 00	 ret	 8
?_Orphan_range@?$vector@UDummyTT13AttackInfo@@V?$allocator@UDummyTT13AttackInfo@@@std@@@std@@IBEXPAUDummyTT13AttackInfo@@0@Z ENDP ; std::vector<DummyTT13AttackInfo,std::allocator<DummyTT13AttackInfo> >::_Orphan_range
_TEXT	ENDS
PUBLIC	??1?$_Vector_val@UDummyTT13AttackInfo@@V?$allocator@UDummyTT13AttackInfo@@@std@@@std@@QAE@XZ ; std::_Vector_val<DummyTT13AttackInfo,std::allocator<DummyTT13AttackInfo> >::~_Vector_val<DummyTT13AttackInfo,std::allocator<DummyTT13AttackInfo> >
; Function compile flags: /Ogsp
;	COMDAT ??1?$_Vector_val@UDummyTT13AttackInfo@@V?$allocator@UDummyTT13AttackInfo@@@std@@@std@@QAE@XZ
_TEXT	SEGMENT
??1?$_Vector_val@UDummyTT13AttackInfo@@V?$allocator@UDummyTT13AttackInfo@@@std@@@std@@QAE@XZ PROC ; std::_Vector_val<DummyTT13AttackInfo,std::allocator<DummyTT13AttackInfo> >::~_Vector_val<DummyTT13AttackInfo,std::allocator<DummyTT13AttackInfo> >, COMDAT
; _this$ = ecx

; 434  : 		}

  00000	c3		 ret	 0
??1?$_Vector_val@UDummyTT13AttackInfo@@V?$allocator@UDummyTT13AttackInfo@@@std@@@std@@QAE@XZ ENDP ; std::_Vector_val<DummyTT13AttackInfo,std::allocator<DummyTT13AttackInfo> >::~_Vector_val<DummyTT13AttackInfo,std::allocator<DummyTT13AttackInfo> >
_TEXT	ENDS
PUBLIC	??0?$allocator@UDummyTT13AttackInfo@@@std@@QAE@XZ ; std::allocator<DummyTT13AttackInfo>::allocator<DummyTT13AttackInfo>
; Function compile flags: /Ogsp
; File c:\program files (x86)\microsoft visual studio 10.0\vc\include\xmemory
;	COMDAT ??0?$allocator@UDummyTT13AttackInfo@@@std@@QAE@XZ
_TEXT	SEGMENT
??0?$allocator@UDummyTT13AttackInfo@@@std@@QAE@XZ PROC	; std::allocator<DummyTT13AttackInfo>::allocator<DummyTT13AttackInfo>, COMDAT
; _this$ = ecx

; 161  : 	_ALLOCATOR() _THROW0()

  00000	8b c1		 mov	 eax, ecx

; 162  : 		{	// construct default allocator (do nothing)
; 163  : 		}

  00002	c3		 ret	 0
??0?$allocator@UDummyTT13AttackInfo@@@std@@QAE@XZ ENDP	; std::allocator<DummyTT13AttackInfo>::allocator<DummyTT13AttackInfo>
_TEXT	ENDS
PUBLIC	??0?$_Vector_const_iterator@V?$_Vector_val@PAVioBaseChar@@V?$allocator@PAVioBaseChar@@@std@@@std@@@std@@QAE@PAPAVioBaseChar@@PBU_Container_base0@1@@Z ; std::_Vector_const_iterator<std::_Vector_val<ioBaseChar *,std::allocator<ioBaseChar *> > >::_Vector_const_iterator<std::_Vector_val<ioBaseChar *,std::allocator<ioBaseChar *> > >
; Function compile flags: /Ogsp
; File c:\program files (x86)\microsoft visual studio 10.0\vc\include\vector
;	COMDAT ??0?$_Vector_const_iterator@V?$_Vector_val@PAVioBaseChar@@V?$allocator@PAVioBaseChar@@@std@@@std@@@std@@QAE@PAPAVioBaseChar@@PBU_Container_base0@1@@Z
_TEXT	SEGMENT
__Parg$ = 8						; size = 4
__Pvector$ = 12						; size = 4
??0?$_Vector_const_iterator@V?$_Vector_val@PAVioBaseChar@@V?$allocator@PAVioBaseChar@@@std@@@std@@@std@@QAE@PAPAVioBaseChar@@PBU_Container_base0@1@@Z PROC ; std::_Vector_const_iterator<std::_Vector_val<ioBaseChar *,std::allocator<ioBaseChar *> > >::_Vector_const_iterator<std::_Vector_val<ioBaseChar *,std::allocator<ioBaseChar *> > >, COMDAT
; _this$ = ecx

; 45   : 		{	// construct with pointer _Parg

  00000	55		 push	 ebp
  00001	8b ec		 mov	 ebp, esp
  00003	8b c1		 mov	 eax, ecx
  00005	8b 4d 08	 mov	 ecx, DWORD PTR __Parg$[ebp]
  00008	89 08		 mov	 DWORD PTR [eax], ecx

; 46   : 		this->_Adopt(_Pvector);
; 47   : 		}

  0000a	5d		 pop	 ebp
  0000b	c2 08 00	 ret	 8
??0?$_Vector_const_iterator@V?$_Vector_val@PAVioBaseChar@@V?$allocator@PAVioBaseChar@@@std@@@std@@@std@@QAE@PAPAVioBaseChar@@PBU_Container_base0@1@@Z ENDP ; std::_Vector_const_iterator<std::_Vector_val<ioBaseChar *,std::allocator<ioBaseChar *> > >::_Vector_const_iterator<std::_Vector_val<ioBaseChar *,std::allocator<ioBaseChar *> > >
_TEXT	ENDS
PUBLIC	??E?$_List_const_iterator@V?$_List_val@UFireTime@@V?$allocator@UFireTime@@@std@@@std@@@std@@QAEAAV01@XZ ; std::_List_const_iterator<std::_List_val<FireTime,std::allocator<FireTime> > >::operator++
; Function compile flags: /Ogsp
; File c:\program files (x86)\microsoft visual studio 10.0\vc\include\list
;	COMDAT ??E?$_List_const_iterator@V?$_List_val@UFireTime@@V?$allocator@UFireTime@@@std@@@std@@@std@@QAEAAV01@XZ
_TEXT	SEGMENT
??E?$_List_const_iterator@V?$_List_val@UFireTime@@V?$allocator@UFireTime@@@std@@@std@@@std@@QAEAAV01@XZ PROC ; std::_List_const_iterator<std::_List_val<FireTime,std::allocator<FireTime> > >::operator++, COMDAT
; _this$ = ecx

; 221  : 		{	// preincrement

  00000	8b c1		 mov	 eax, ecx

; 222  :  #if _ITERATOR_DEBUG_LEVEL == 2
; 223  : 		if (this->_Getcont() == 0
; 224  : 			|| this->_Ptr == 0
; 225  : 			|| this->_Ptr == ((_Mylist *)this->_Getcont())->_Myhead)
; 226  : 			{	// report error
; 227  : 			_DEBUG_ERROR("list iterator not incrementable");
; 228  : 			_SCL_SECURE_OUT_OF_RANGE;
; 229  : 			}
; 230  : 
; 231  :  #elif _ITERATOR_DEBUG_LEVEL == 1
; 232  : 		_SCL_SECURE_VALIDATE(this->_Getcont() != 0 && this->_Ptr != 0);
; 233  : 		_SCL_SECURE_VALIDATE_RANGE(this->_Ptr !=
; 234  : 			((_Mylist *)this->_Getcont())->_Myhead);
; 235  :  #endif /* _ITERATOR_DEBUG_LEVEL */
; 236  : 
; 237  : 		this->_Ptr = _Mylist::_Nextnode(this->_Ptr);

  00002	8b 08		 mov	 ecx, DWORD PTR [eax]
  00004	8b 09		 mov	 ecx, DWORD PTR [ecx]
  00006	89 08		 mov	 DWORD PTR [eax], ecx

; 238  : 		return (*this);
; 239  : 		}

  00008	c3		 ret	 0
??E?$_List_const_iterator@V?$_List_val@UFireTime@@V?$allocator@UFireTime@@@std@@@std@@@std@@QAEAAV01@XZ ENDP ; std::_List_const_iterator<std::_List_val<FireTime,std::allocator<FireTime> > >::operator++
_TEXT	ENDS
PUBLIC	??E?$_List_const_iterator@V?$_List_val@UFireTime@@V?$allocator@UFireTime@@@std@@@std@@@std@@QAE?AV01@H@Z ; std::_List_const_iterator<std::_List_val<FireTime,std::allocator<FireTime> > >::operator++
; Function compile flags: /Ogsp
;	COMDAT ??E?$_List_const_iterator@V?$_List_val@UFireTime@@V?$allocator@UFireTime@@@std@@@std@@@std@@QAE?AV01@H@Z
_TEXT	SEGMENT
___$ReturnUdt$ = 8					; size = 4
___formal$ = 12						; size = 4
??E?$_List_const_iterator@V?$_List_val@UFireTime@@V?$allocator@UFireTime@@@std@@@std@@@std@@QAE?AV01@H@Z PROC ; std::_List_const_iterator<std::_List_val<FireTime,std::allocator<FireTime> > >::operator++, COMDAT
; _this$ = ecx

; 242  : 		{	// postincrement

  00000	55		 push	 ebp
  00001	8b ec		 mov	 ebp, esp

; 243  : 		_Myiter _Tmp = *this;

  00003	8b 11		 mov	 edx, DWORD PTR [ecx]
  00005	8b 45 08	 mov	 eax, DWORD PTR ___$ReturnUdt$[ebp]
  00008	89 10		 mov	 DWORD PTR [eax], edx

; 244  : 		++*this;

  0000a	8b 12		 mov	 edx, DWORD PTR [edx]
  0000c	89 11		 mov	 DWORD PTR [ecx], edx

; 245  : 		return (_Tmp);
; 246  : 		}

  0000e	5d		 pop	 ebp
  0000f	c2 08 00	 ret	 8
??E?$_List_const_iterator@V?$_List_val@UFireTime@@V?$allocator@UFireTime@@@std@@@std@@@std@@QAE?AV01@H@Z ENDP ; std::_List_const_iterator<std::_List_val<FireTime,std::allocator<FireTime> > >::operator++
_TEXT	ENDS
PUBLIC	??8?$_List_const_iterator@V?$_List_val@UFireTime@@V?$allocator@UFireTime@@@std@@@std@@@std@@QBE_NABV01@@Z ; std::_List_const_iterator<std::_List_val<FireTime,std::allocator<FireTime> > >::operator==
; Function compile flags: /Ogsp
;	COMDAT ??8?$_List_const_iterator@V?$_List_val@UFireTime@@V?$allocator@UFireTime@@@std@@@std@@@std@@QBE_NABV01@@Z
_TEXT	SEGMENT
__Right$ = 8						; size = 4
??8?$_List_const_iterator@V?$_List_val@UFireTime@@V?$allocator@UFireTime@@@std@@@std@@@std@@QBE_NABV01@@Z PROC ; std::_List_const_iterator<std::_List_val<FireTime,std::allocator<FireTime> > >::operator==, COMDAT
; _this$ = ecx

; 281  : 		{	// test for iterator equality

  00000	55		 push	 ebp
  00001	8b ec		 mov	 ebp, esp

; 282  :  #if _ITERATOR_DEBUG_LEVEL == 2
; 283  : 		if (this->_Getcont() == 0
; 284  : 			|| this->_Getcont() != _Right._Getcont())
; 285  : 			{	// report error
; 286  : 			_DEBUG_ERROR("list iterators incompatible");
; 287  : 			_SCL_SECURE_INVALID_ARGUMENT;
; 288  : 			}
; 289  : 
; 290  :  #elif _ITERATOR_DEBUG_LEVEL == 1
; 291  : 		_SCL_SECURE_VALIDATE(this->_Getcont() != 0
; 292  : 			&& this->_Getcont() == _Right._Getcont());
; 293  :  #endif /* _ITERATOR_DEBUG_LEVEL */
; 294  : 
; 295  : 		return (this->_Ptr == _Right._Ptr);

  00003	8b 01		 mov	 eax, DWORD PTR [ecx]
  00005	8b 4d 08	 mov	 ecx, DWORD PTR __Right$[ebp]
  00008	2b 01		 sub	 eax, DWORD PTR [ecx]
  0000a	f7 d8		 neg	 eax
  0000c	1b c0		 sbb	 eax, eax
  0000e	40		 inc	 eax

; 296  : 		}

  0000f	5d		 pop	 ebp
  00010	c2 04 00	 ret	 4
??8?$_List_const_iterator@V?$_List_val@UFireTime@@V?$allocator@UFireTime@@@std@@@std@@@std@@QBE_NABV01@@Z ENDP ; std::_List_const_iterator<std::_List_val<FireTime,std::allocator<FireTime> > >::operator==
_TEXT	ENDS
PUBLIC	?_Mynode@?$_List_unchecked_const_iterator@V?$_List_val@UFireTime@@V?$allocator@UFireTime@@@std@@@std@@U_Iterator_base0@2@@std@@QBEPAU_Node@?$_List_nod@UFireTime@@V?$allocator@UFireTime@@@std@@@2@XZ ; std::_List_unchecked_const_iterator<std::_List_val<FireTime,std::allocator<FireTime> >,std::_Iterator_base0>::_Mynode
; Function compile flags: /Ogsp
;	COMDAT ?_Mynode@?$_List_unchecked_const_iterator@V?$_List_val@UFireTime@@V?$allocator@UFireTime@@@std@@@std@@U_Iterator_base0@2@@std@@QBEPAU_Node@?$_List_nod@UFireTime@@V?$allocator@UFireTime@@@std@@@2@XZ
_TEXT	SEGMENT
?_Mynode@?$_List_unchecked_const_iterator@V?$_List_val@UFireTime@@V?$allocator@UFireTime@@@std@@@std@@U_Iterator_base0@2@@std@@QBEPAU_Node@?$_List_nod@UFireTime@@V?$allocator@UFireTime@@@std@@@2@XZ PROC ; std::_List_unchecked_const_iterator<std::_List_val<FireTime,std::allocator<FireTime> >,std::_Iterator_base0>::_Mynode, COMDAT
; _this$ = ecx

; 93   : 		return (_Ptr);

  00000	8b 01		 mov	 eax, DWORD PTR [ecx]

; 94   : 		}

  00002	c3		 ret	 0
?_Mynode@?$_List_unchecked_const_iterator@V?$_List_val@UFireTime@@V?$allocator@UFireTime@@@std@@@std@@U_Iterator_base0@2@@std@@QBEPAU_Node@?$_List_nod@UFireTime@@V?$allocator@UFireTime@@@std@@@2@XZ ENDP ; std::_List_unchecked_const_iterator<std::_List_val<FireTime,std::allocator<FireTime> >,std::_Iterator_base0>::_Mynode
_TEXT	ENDS
PUBLIC	?_Myval@?$_List_val@UFireTime@@V?$allocator@UFireTime@@@std@@@std@@SAAAUFireTime@@PAU_Node@?$_List_nod@UFireTime@@V?$allocator@UFireTime@@@std@@@2@@Z ; std::_List_val<FireTime,std::allocator<FireTime> >::_Myval
; Function compile flags: /Ogsp
;	COMDAT ?_Myval@?$_List_val@UFireTime@@V?$allocator@UFireTime@@@std@@@std@@SAAAUFireTime@@PAU_Node@?$_List_nod@UFireTime@@V?$allocator@UFireTime@@@std@@@2@@Z
_TEXT	SEGMENT
__Pnode$ = 8						; size = 4
?_Myval@?$_List_val@UFireTime@@V?$allocator@UFireTime@@@std@@@std@@SAAAUFireTime@@PAU_Node@?$_List_nod@UFireTime@@V?$allocator@UFireTime@@@std@@@2@@Z PROC ; std::_List_val<FireTime,std::allocator<FireTime> >::_Myval, COMDAT

; 570  : 		{	// return reference to value in node

  00000	55		 push	 ebp
  00001	8b ec		 mov	 ebp, esp

; 571  : 		return ((reference)(*_Pnode)._Myval);

  00003	8b 45 08	 mov	 eax, DWORD PTR __Pnode$[ebp]
  00006	83 c0 08	 add	 eax, 8

; 572  : 		}

  00009	5d		 pop	 ebp
  0000a	c3		 ret	 0
?_Myval@?$_List_val@UFireTime@@V?$allocator@UFireTime@@@std@@@std@@SAAAUFireTime@@PAU_Node@?$_List_nod@UFireTime@@V?$allocator@UFireTime@@@std@@@2@@Z ENDP ; std::_List_val<FireTime,std::allocator<FireTime> >::_Myval
_TEXT	ENDS
PUBLIC	?capacity@?$vector@UDummyTT13AttackInfo@@V?$allocator@UDummyTT13AttackInfo@@@std@@@std@@QBEIXZ ; std::vector<DummyTT13AttackInfo,std::allocator<DummyTT13AttackInfo> >::capacity
; Function compile flags: /Ogsp
; File c:\program files (x86)\microsoft visual studio 10.0\vc\include\vector
;	COMDAT ?capacity@?$vector@UDummyTT13AttackInfo@@V?$allocator@UDummyTT13AttackInfo@@@std@@@std@@QBEIXZ
_TEXT	SEGMENT
?capacity@?$vector@UDummyTT13AttackInfo@@V?$allocator@UDummyTT13AttackInfo@@@std@@@std@@QBEIXZ PROC ; std::vector<DummyTT13AttackInfo,std::allocator<DummyTT13AttackInfo> >::capacity, COMDAT
; _this$ = ecx

; 777  : 		return (this->_Myend - this->_Myfirst);

  00000	8b 41 08	 mov	 eax, DWORD PTR [ecx+8]
  00003	2b 01		 sub	 eax, DWORD PTR [ecx]
  00005	6a 3c		 push	 60			; 0000003cH
  00007	99		 cdq
  00008	59		 pop	 ecx
  00009	f7 f9		 idiv	 ecx

; 778  : 		}

  0000b	c3		 ret	 0
?capacity@?$vector@UDummyTT13AttackInfo@@V?$allocator@UDummyTT13AttackInfo@@@std@@@std@@QBEIXZ ENDP ; std::vector<DummyTT13AttackInfo,std::allocator<DummyTT13AttackInfo> >::capacity
_TEXT	ENDS
PUBLIC	??_C@_0BD@OLBABOEK@vector?$DMT?$DO?5too?5long?$AA@ ; `string'
PUBLIC	?_Xlen@?$vector@UDummyTT13AttackInfo@@V?$allocator@UDummyTT13AttackInfo@@@std@@@std@@IBEXXZ ; std::vector<DummyTT13AttackInfo,std::allocator<DummyTT13AttackInfo> >::_Xlen
EXTRN	__imp_?_Xlength_error@std@@YAXPBD@Z:PROC
;	COMDAT ??_C@_0BD@OLBABOEK@vector?$DMT?$DO?5too?5long?$AA@
CONST	SEGMENT
??_C@_0BD@OLBABOEK@vector?$DMT?$DO?5too?5long?$AA@ DB 'vector<T> too long'
	DB	00H						; `string'
; Function compile flags: /Ogsp
CONST	ENDS
;	COMDAT ?_Xlen@?$vector@UDummyTT13AttackInfo@@V?$allocator@UDummyTT13AttackInfo@@@std@@@std@@IBEXXZ
_TEXT	SEGMENT
?_Xlen@?$vector@UDummyTT13AttackInfo@@V?$allocator@UDummyTT13AttackInfo@@@std@@@std@@IBEXXZ PROC ; std::vector<DummyTT13AttackInfo,std::allocator<DummyTT13AttackInfo> >::_Xlen, COMDAT
; _this$ = ecx

; 1427 : 		_Xlength_error("vector<T> too long");

  00000	68 00 00 00 00	 push	 OFFSET ??_C@_0BD@OLBABOEK@vector?$DMT?$DO?5too?5long?$AA@
  00005	ff 15 00 00 00
	00		 call	 DWORD PTR __imp_?_Xlength_error@std@@YAXPBD@Z
$LN4@Xlen:
$LN3@Xlen:
  0000b	cc		 int	 3
?_Xlen@?$vector@UDummyTT13AttackInfo@@V?$allocator@UDummyTT13AttackInfo@@@std@@@std@@IBEXXZ ENDP ; std::vector<DummyTT13AttackInfo,std::allocator<DummyTT13AttackInfo> >::_Xlen
_TEXT	ENDS
PUBLIC	??0?$allocator@UDummyTT13AttackInfo@@@std@@QAE@ABV01@@Z ; std::allocator<DummyTT13AttackInfo>::allocator<DummyTT13AttackInfo>
; Function compile flags: /Ogsp
; File c:\program files (x86)\microsoft visual studio 10.0\vc\include\xmemory
;	COMDAT ??0?$allocator@UDummyTT13AttackInfo@@@std@@QAE@ABV01@@Z
_TEXT	SEGMENT
___formal$ = 8						; size = 4
??0?$allocator@UDummyTT13AttackInfo@@@std@@QAE@ABV01@@Z PROC ; std::allocator<DummyTT13AttackInfo>::allocator<DummyTT13AttackInfo>, COMDAT
; _this$ = ecx

; 165  : 	_ALLOCATOR(const _ALLOCATOR<_Ty>&) _THROW0()

  00000	8b c1		 mov	 eax, ecx

; 166  : 		{	// construct by copying (do nothing)
; 167  : 		}

  00002	c2 04 00	 ret	 4
??0?$allocator@UDummyTT13AttackInfo@@@std@@QAE@ABV01@@Z ENDP ; std::allocator<DummyTT13AttackInfo>::allocator<DummyTT13AttackInfo>
_TEXT	ENDS
PUBLIC	?deallocate@?$allocator@UDummyTT13AttackInfo@@@std@@QAEXPAUDummyTT13AttackInfo@@I@Z ; std::allocator<DummyTT13AttackInfo>::deallocate
; Function compile flags: /Ogsp
;	COMDAT ?deallocate@?$allocator@UDummyTT13AttackInfo@@@std@@QAEXPAUDummyTT13AttackInfo@@I@Z
_TEXT	SEGMENT
__Ptr$ = 8						; size = 4
___formal$ = 12						; size = 4
?deallocate@?$allocator@UDummyTT13AttackInfo@@@std@@QAEXPAUDummyTT13AttackInfo@@I@Z PROC ; std::allocator<DummyTT13AttackInfo>::deallocate, COMDAT
; _this$ = ecx

; 181  : 		{	// deallocate object at _Ptr, ignore size

  00000	55		 push	 ebp
  00001	8b ec		 mov	 ebp, esp

; 182  : 		::operator delete(_Ptr);

  00003	ff 75 08	 push	 DWORD PTR __Ptr$[ebp]
  00006	e8 00 00 00 00	 call	 ??3@YAXPAX@Z		; operator delete
  0000b	59		 pop	 ecx

; 183  : 		}

  0000c	5d		 pop	 ebp
  0000d	c2 08 00	 ret	 8
?deallocate@?$allocator@UDummyTT13AttackInfo@@@std@@QAEXPAUDummyTT13AttackInfo@@I@Z ENDP ; std::allocator<DummyTT13AttackInfo>::deallocate
_TEXT	ENDS
PUBLIC	??0?$_Vector_const_iterator@V?$_Vector_val@UDummyTT13AttackInfo@@V?$allocator@UDummyTT13AttackInfo@@@std@@@std@@@std@@QAE@PAUDummyTT13AttackInfo@@PBU_Container_base0@1@@Z ; std::_Vector_const_iterator<std::_Vector_val<DummyTT13AttackInfo,std::allocator<DummyTT13AttackInfo> > >::_Vector_const_iterator<std::_Vector_val<DummyTT13AttackInfo,std::allocator<DummyTT13AttackInfo> > >
; Function compile flags: /Ogsp
; File c:\program files (x86)\microsoft visual studio 10.0\vc\include\vector
;	COMDAT ??0?$_Vector_const_iterator@V?$_Vector_val@UDummyTT13AttackInfo@@V?$allocator@UDummyTT13AttackInfo@@@std@@@std@@@std@@QAE@PAUDummyTT13AttackInfo@@PBU_Container_base0@1@@Z
_TEXT	SEGMENT
__Parg$ = 8						; size = 4
__Pvector$ = 12						; size = 4
??0?$_Vector_const_iterator@V?$_Vector_val@UDummyTT13AttackInfo@@V?$allocator@UDummyTT13AttackInfo@@@std@@@std@@@std@@QAE@PAUDummyTT13AttackInfo@@PBU_Container_base0@1@@Z PROC ; std::_Vector_const_iterator<std::_Vector_val<DummyTT13AttackInfo,std::allocator<DummyTT13AttackInfo> > >::_Vector_const_iterator<std::_Vector_val<DummyTT13AttackInfo,std::allocator<DummyTT13AttackInfo> > >, COMDAT
; _this$ = ecx

; 45   : 		{	// construct with pointer _Parg

  00000	55		 push	 ebp
  00001	8b ec		 mov	 ebp, esp
  00003	8b c1		 mov	 eax, ecx
  00005	8b 4d 08	 mov	 ecx, DWORD PTR __Parg$[ebp]
  00008	89 08		 mov	 DWORD PTR [eax], ecx

; 46   : 		this->_Adopt(_Pvector);
; 47   : 		}

  0000a	5d		 pop	 ebp
  0000b	c2 08 00	 ret	 8
??0?$_Vector_const_iterator@V?$_Vector_val@UDummyTT13AttackInfo@@V?$allocator@UDummyTT13AttackInfo@@@std@@@std@@@std@@QAE@PAUDummyTT13AttackInfo@@PBU_Container_base0@1@@Z ENDP ; std::_Vector_const_iterator<std::_Vector_val<DummyTT13AttackInfo,std::allocator<DummyTT13AttackInfo> > >::_Vector_const_iterator<std::_Vector_val<DummyTT13AttackInfo,std::allocator<DummyTT13AttackInfo> > >
_TEXT	ENDS
PUBLIC	?_Compat@?$_Vector_const_iterator@V?$_Vector_val@UDummyTT13AttackInfo@@V?$allocator@UDummyTT13AttackInfo@@@std@@@std@@@std@@QBEXABV12@@Z ; std::_Vector_const_iterator<std::_Vector_val<DummyTT13AttackInfo,std::allocator<DummyTT13AttackInfo> > >::_Compat
; Function compile flags: /Ogsp
;	COMDAT ?_Compat@?$_Vector_const_iterator@V?$_Vector_val@UDummyTT13AttackInfo@@V?$allocator@UDummyTT13AttackInfo@@@std@@@std@@@std@@QBEXABV12@@Z
_TEXT	SEGMENT
___formal$ = 8						; size = 4
?_Compat@?$_Vector_const_iterator@V?$_Vector_val@UDummyTT13AttackInfo@@V?$allocator@UDummyTT13AttackInfo@@@std@@@std@@@std@@QBEXABV12@@Z PROC ; std::_Vector_const_iterator<std::_Vector_val<DummyTT13AttackInfo,std::allocator<DummyTT13AttackInfo> > >::_Compat, COMDAT
; _this$ = ecx

; 253  : 		}

  00000	c2 04 00	 ret	 4
?_Compat@?$_Vector_const_iterator@V?$_Vector_val@UDummyTT13AttackInfo@@V?$allocator@UDummyTT13AttackInfo@@@std@@@std@@@std@@QBEXABV12@@Z ENDP ; std::_Vector_const_iterator<std::_Vector_val<DummyTT13AttackInfo,std::allocator<DummyTT13AttackInfo> > >::_Compat
_TEXT	ENDS
PUBLIC	?_Compat@?$_Vector_const_iterator@V?$_Vector_val@PAVioBaseChar@@V?$allocator@PAVioBaseChar@@@std@@@std@@@std@@QBEXABV12@@Z ; std::_Vector_const_iterator<std::_Vector_val<ioBaseChar *,std::allocator<ioBaseChar *> > >::_Compat
; Function compile flags: /Ogsp
;	COMDAT ?_Compat@?$_Vector_const_iterator@V?$_Vector_val@PAVioBaseChar@@V?$allocator@PAVioBaseChar@@@std@@@std@@@std@@QBEXABV12@@Z
_TEXT	SEGMENT
___formal$ = 8						; size = 4
?_Compat@?$_Vector_const_iterator@V?$_Vector_val@PAVioBaseChar@@V?$allocator@PAVioBaseChar@@@std@@@std@@@std@@QBEXABV12@@Z PROC ; std::_Vector_const_iterator<std::_Vector_val<ioBaseChar *,std::allocator<ioBaseChar *> > >::_Compat, COMDAT
; _this$ = ecx

; 253  : 		}

  00000	c2 04 00	 ret	 4
?_Compat@?$_Vector_const_iterator@V?$_Vector_val@PAVioBaseChar@@V?$allocator@PAVioBaseChar@@@std@@@std@@@std@@QBEXABV12@@Z ENDP ; std::_Vector_const_iterator<std::_Vector_val<ioBaseChar *,std::allocator<ioBaseChar *> > >::_Compat
_TEXT	ENDS
PUBLIC	?max_size@?$allocator@UDummyTT13AttackInfo@@@std@@QBEIXZ ; std::allocator<DummyTT13AttackInfo>::max_size
; Function compile flags: /Ogsp
; File c:\program files (x86)\microsoft visual studio 10.0\vc\include\xmemory
;	COMDAT ?max_size@?$allocator@UDummyTT13AttackInfo@@@std@@QBEIXZ
_TEXT	SEGMENT
?max_size@?$allocator@UDummyTT13AttackInfo@@@std@@QBEIXZ PROC ; std::allocator<DummyTT13AttackInfo>::max_size, COMDAT
; _this$ = ecx

; 218  : 		_SIZT _Count = (_SIZT)(-1) / sizeof (_Ty);
; 219  : 		return (0 < _Count ? _Count : 1);

  00000	b8 44 44 44 04	 mov	 eax, 71582788		; 04444444H

; 220  : 		}

  00005	c3		 ret	 0
?max_size@?$allocator@UDummyTT13AttackInfo@@@std@@QBEIXZ ENDP ; std::allocator<DummyTT13AttackInfo>::max_size
_TEXT	ENDS
PUBLIC	??0?$_List_unchecked_const_iterator@V?$_List_val@UFireTime@@V?$allocator@UFireTime@@@std@@@std@@U_Iterator_base0@2@@std@@QAE@PAU_Node@?$_List_nod@UFireTime@@V?$allocator@UFireTime@@@std@@@1@PBV?$_List_val@UFireTime@@V?$allocator@UFireTime@@@std@@@1@@Z ; std::_List_unchecked_const_iterator<std::_List_val<FireTime,std::allocator<FireTime> >,std::_Iterator_base0>::_List_unchecked_const_iterator<std::_List_val<FireTime,std::allocator<FireTime> >,std::_Iterator_base0>
; Function compile flags: /Ogsp
; File c:\program files (x86)\microsoft visual studio 10.0\vc\include\list
;	COMDAT ??0?$_List_unchecked_const_iterator@V?$_List_val@UFireTime@@V?$allocator@UFireTime@@@std@@@std@@U_Iterator_base0@2@@std@@QAE@PAU_Node@?$_List_nod@UFireTime@@V?$allocator@UFireTime@@@std@@@1@PBV?$_List_val@UFireTime@@V?$allocator@UFireTime@@@std@@@1@@Z
_TEXT	SEGMENT
__Pnode$ = 8						; size = 4
__Plist$ = 12						; size = 4
??0?$_List_unchecked_const_iterator@V?$_List_val@UFireTime@@V?$allocator@UFireTime@@@std@@@std@@U_Iterator_base0@2@@std@@QAE@PAU_Node@?$_List_nod@UFireTime@@V?$allocator@UFireTime@@@std@@@1@PBV?$_List_val@UFireTime@@V?$allocator@UFireTime@@@std@@@1@@Z PROC ; std::_List_unchecked_const_iterator<std::_List_val<FireTime,std::allocator<FireTime> >,std::_Iterator_base0>::_List_unchecked_const_iterator<std::_List_val<FireTime,std::allocator<FireTime> >,std::_Iterator_base0>, COMDAT
; _this$ = ecx

; 41   : 		{	// construct with node pointer _Pnode

  00000	55		 push	 ebp
  00001	8b ec		 mov	 ebp, esp
  00003	8b c1		 mov	 eax, ecx
  00005	8b 4d 08	 mov	 ecx, DWORD PTR __Pnode$[ebp]
  00008	89 08		 mov	 DWORD PTR [eax], ecx

; 42   : 		this->_Adopt(_Plist);
; 43   : 		}

  0000a	5d		 pop	 ebp
  0000b	c2 08 00	 ret	 8
??0?$_List_unchecked_const_iterator@V?$_List_val@UFireTime@@V?$allocator@UFireTime@@@std@@@std@@U_Iterator_base0@2@@std@@QAE@PAU_Node@?$_List_nod@UFireTime@@V?$allocator@UFireTime@@@std@@@1@PBV?$_List_val@UFireTime@@V?$allocator@UFireTime@@@std@@@1@@Z ENDP ; std::_List_unchecked_const_iterator<std::_List_val<FireTime,std::allocator<FireTime> >,std::_Iterator_base0>::_List_unchecked_const_iterator<std::_List_val<FireTime,std::allocator<FireTime> >,std::_Iterator_base0>
_TEXT	ENDS
PUBLIC	??0D3DXVECTOR3@@QAE@XZ				; D3DXVECTOR3::D3DXVECTOR3
; Function compile flags: /Ogsp
; File c:\program files (x86)\microsoft directx sdk (june 2010)\include\d3dx9math.h
;	COMDAT ??0D3DXVECTOR3@@QAE@XZ
_TEXT	SEGMENT
??0D3DXVECTOR3@@QAE@XZ PROC				; D3DXVECTOR3::D3DXVECTOR3, COMDAT
; _this$ = ecx

; 165  :     D3DXVECTOR3() {};

  00000	8b c1		 mov	 eax, ecx
  00002	c3		 ret	 0
??0D3DXVECTOR3@@QAE@XZ ENDP				; D3DXVECTOR3::D3DXVECTOR3
_TEXT	ENDS
PUBLIC	??0D3DXQUATERNION@@QAE@XZ			; D3DXQUATERNION::D3DXQUATERNION
; Function compile flags: /Ogsp
;	COMDAT ??0D3DXQUATERNION@@QAE@XZ
_TEXT	SEGMENT
??0D3DXQUATERNION@@QAE@XZ PROC				; D3DXQUATERNION::D3DXQUATERNION, COMDAT
; _this$ = ecx

; 429  :     D3DXQUATERNION() {}

  00000	8b c1		 mov	 eax, ecx
  00002	c3		 ret	 0
??0D3DXQUATERNION@@QAE@XZ ENDP				; D3DXQUATERNION::D3DXQUATERNION
_TEXT	ENDS
PUBLIC	??0D3DXVECTOR3@@QAE@MMM@Z			; D3DXVECTOR3::D3DXVECTOR3
; Function compile flags: /Ogsp
; File c:\program files (x86)\microsoft directx sdk (june 2010)\include\d3dx9math.inl
;	COMDAT ??0D3DXVECTOR3@@QAE@MMM@Z
_TEXT	SEGMENT
_fx$ = 8						; size = 4
_fy$ = 12						; size = 4
_fz$ = 16						; size = 4
??0D3DXVECTOR3@@QAE@MMM@Z PROC				; D3DXVECTOR3::D3DXVECTOR3, COMDAT
; _this$ = ecx

; 303  : {

  00000	55		 push	 ebp
  00001	8b ec		 mov	 ebp, esp

; 304  :     x = fx;

  00003	f3 0f 10 45 08	 movss	 xmm0, DWORD PTR _fx$[ebp]
  00008	8b c1		 mov	 eax, ecx
  0000a	f3 0f 11 00	 movss	 DWORD PTR [eax], xmm0

; 305  :     y = fy;

  0000e	f3 0f 10 45 0c	 movss	 xmm0, DWORD PTR _fy$[ebp]
  00013	f3 0f 11 40 04	 movss	 DWORD PTR [eax+4], xmm0

; 306  :     z = fz;

  00018	f3 0f 10 45 10	 movss	 xmm0, DWORD PTR _fz$[ebp]
  0001d	f3 0f 11 40 08	 movss	 DWORD PTR [eax+8], xmm0

; 307  : }

  00022	5d		 pop	 ebp
  00023	c2 0c 00	 ret	 12			; 0000000cH
??0D3DXVECTOR3@@QAE@MMM@Z ENDP				; D3DXVECTOR3::D3DXVECTOR3
_TEXT	ENDS
PUBLIC	__mask@@NegFloat@
PUBLIC	??GD3DXVECTOR3@@QBE?AU0@XZ			; D3DXVECTOR3::operator-
;	COMDAT __mask@@NegFloat@
CONST	SEGMENT
__mask@@NegFloat@ DB 00H, 00H, 00H, 080H, 00H, 00H, 00H, 080H, 00H, 00H, 00H
	DB	080H, 00H, 00H, 00H, 080H
; Function compile flags: /Ogsp
CONST	ENDS
;	COMDAT ??GD3DXVECTOR3@@QBE?AU0@XZ
_TEXT	SEGMENT
___$ReturnUdt$ = 8					; size = 4
??GD3DXVECTOR3@@QBE?AU0@XZ PROC				; D3DXVECTOR3::operator-, COMDAT
; _this$ = ecx

; 372  : {

  00000	55		 push	 ebp
  00001	8b ec		 mov	 ebp, esp

; 373  :     return D3DXVECTOR3(-x, -y, -z);

  00003	f3 0f 10 05 00
	00 00 00	 movss	 xmm0, DWORD PTR __mask@@NegFloat@
  0000b	8b 45 08	 mov	 eax, DWORD PTR ___$ReturnUdt$[ebp]
  0000e	f3 0f 10 09	 movss	 xmm1, DWORD PTR [ecx]
  00012	0f 57 c8	 xorps	 xmm1, xmm0
  00015	f3 0f 11 08	 movss	 DWORD PTR [eax], xmm1
  00019	f3 0f 10 49 04	 movss	 xmm1, DWORD PTR [ecx+4]
  0001e	0f 57 c8	 xorps	 xmm1, xmm0
  00021	f3 0f 11 48 04	 movss	 DWORD PTR [eax+4], xmm1
  00026	f3 0f 10 49 08	 movss	 xmm1, DWORD PTR [ecx+8]
  0002b	0f 57 c8	 xorps	 xmm1, xmm0
  0002e	f3 0f 11 48 08	 movss	 DWORD PTR [eax+8], xmm1

; 374  : }

  00033	5d		 pop	 ebp
  00034	c2 04 00	 ret	 4
??GD3DXVECTOR3@@QBE?AU0@XZ ENDP				; D3DXVECTOR3::operator-
_TEXT	ENDS
PUBLIC	??HD3DXVECTOR3@@QBE?AU0@ABU0@@Z			; D3DXVECTOR3::operator+
; Function compile flags: /Ogsp
;	COMDAT ??HD3DXVECTOR3@@QBE?AU0@ABU0@@Z
_TEXT	SEGMENT
___$ReturnUdt$ = 8					; size = 4
_v$ = 12						; size = 4
??HD3DXVECTOR3@@QBE?AU0@ABU0@@Z PROC			; D3DXVECTOR3::operator+, COMDAT
; _this$ = ecx

; 380  : {

  00000	55		 push	 ebp
  00001	8b ec		 mov	 ebp, esp

; 381  :     return D3DXVECTOR3(x + v.x, y + v.y, z + v.z);

  00003	8b 55 0c	 mov	 edx, DWORD PTR _v$[ebp]
  00006	f3 0f 10 02	 movss	 xmm0, DWORD PTR [edx]
  0000a	f3 0f 10 09	 movss	 xmm1, DWORD PTR [ecx]
  0000e	8b 45 08	 mov	 eax, DWORD PTR ___$ReturnUdt$[ebp]
  00011	0f 5a c0	 cvtps2pd xmm0, xmm0
  00014	0f 5a c9	 cvtps2pd xmm1, xmm1
  00017	f2 0f 58 c1	 addsd	 xmm0, xmm1
  0001b	f3 0f 10 49 04	 movss	 xmm1, DWORD PTR [ecx+4]
  00020	66 0f 5a c0	 cvtpd2ps xmm0, xmm0
  00024	f3 0f 11 00	 movss	 DWORD PTR [eax], xmm0
  00028	f3 0f 10 42 04	 movss	 xmm0, DWORD PTR [edx+4]
  0002d	0f 5a c0	 cvtps2pd xmm0, xmm0
  00030	0f 5a c9	 cvtps2pd xmm1, xmm1
  00033	f2 0f 58 c1	 addsd	 xmm0, xmm1
  00037	f3 0f 10 49 08	 movss	 xmm1, DWORD PTR [ecx+8]
  0003c	66 0f 5a c0	 cvtpd2ps xmm0, xmm0
  00040	f3 0f 11 40 04	 movss	 DWORD PTR [eax+4], xmm0
  00045	f3 0f 10 42 08	 movss	 xmm0, DWORD PTR [edx+8]
  0004a	0f 5a c0	 cvtps2pd xmm0, xmm0
  0004d	0f 5a c9	 cvtps2pd xmm1, xmm1
  00050	f2 0f 58 c1	 addsd	 xmm0, xmm1
  00054	66 0f 5a c0	 cvtpd2ps xmm0, xmm0
  00058	f3 0f 11 40 08	 movss	 DWORD PTR [eax+8], xmm0

; 382  : }

  0005d	5d		 pop	 ebp
  0005e	c2 08 00	 ret	 8
??HD3DXVECTOR3@@QBE?AU0@ABU0@@Z ENDP			; D3DXVECTOR3::operator+
_TEXT	ENDS
PUBLIC	??GD3DXVECTOR3@@QBE?AU0@ABU0@@Z			; D3DXVECTOR3::operator-
; Function compile flags: /Ogsp
;	COMDAT ??GD3DXVECTOR3@@QBE?AU0@ABU0@@Z
_TEXT	SEGMENT
___$ReturnUdt$ = 8					; size = 4
_v$ = 12						; size = 4
??GD3DXVECTOR3@@QBE?AU0@ABU0@@Z PROC			; D3DXVECTOR3::operator-, COMDAT
; _this$ = ecx

; 386  : {

  00000	55		 push	 ebp
  00001	8b ec		 mov	 ebp, esp

; 387  :     return D3DXVECTOR3(x - v.x, y - v.y, z - v.z);

  00003	8b 55 0c	 mov	 edx, DWORD PTR _v$[ebp]
  00006	f3 0f 10 01	 movss	 xmm0, DWORD PTR [ecx]
  0000a	f3 0f 10 0a	 movss	 xmm1, DWORD PTR [edx]
  0000e	8b 45 08	 mov	 eax, DWORD PTR ___$ReturnUdt$[ebp]
  00011	0f 5a c0	 cvtps2pd xmm0, xmm0
  00014	0f 5a c9	 cvtps2pd xmm1, xmm1
  00017	f2 0f 5c c1	 subsd	 xmm0, xmm1
  0001b	f3 0f 10 4a 04	 movss	 xmm1, DWORD PTR [edx+4]
  00020	66 0f 5a c0	 cvtpd2ps xmm0, xmm0
  00024	f3 0f 11 00	 movss	 DWORD PTR [eax], xmm0
  00028	f3 0f 10 41 04	 movss	 xmm0, DWORD PTR [ecx+4]
  0002d	0f 5a c0	 cvtps2pd xmm0, xmm0
  00030	0f 5a c9	 cvtps2pd xmm1, xmm1
  00033	f2 0f 5c c1	 subsd	 xmm0, xmm1
  00037	f3 0f 10 4a 08	 movss	 xmm1, DWORD PTR [edx+8]
  0003c	66 0f 5a c0	 cvtpd2ps xmm0, xmm0
  00040	f3 0f 11 40 04	 movss	 DWORD PTR [eax+4], xmm0
  00045	f3 0f 10 41 08	 movss	 xmm0, DWORD PTR [ecx+8]
  0004a	0f 5a c0	 cvtps2pd xmm0, xmm0
  0004d	0f 5a c9	 cvtps2pd xmm1, xmm1
  00050	f2 0f 5c c1	 subsd	 xmm0, xmm1
  00054	66 0f 5a c0	 cvtpd2ps xmm0, xmm0
  00058	f3 0f 11 40 08	 movss	 DWORD PTR [eax+8], xmm0

; 388  : }

  0005d	5d		 pop	 ebp
  0005e	c2 08 00	 ret	 8
??GD3DXVECTOR3@@QBE?AU0@ABU0@@Z ENDP			; D3DXVECTOR3::operator-
_TEXT	ENDS
PUBLIC	??DD3DXVECTOR3@@QBE?AU0@M@Z			; D3DXVECTOR3::operator*
; Function compile flags: /Ogsp
;	COMDAT ??DD3DXVECTOR3@@QBE?AU0@M@Z
_TEXT	SEGMENT
___$ReturnUdt$ = 8					; size = 4
_f$ = 12						; size = 4
??DD3DXVECTOR3@@QBE?AU0@M@Z PROC			; D3DXVECTOR3::operator*, COMDAT
; _this$ = ecx

; 392  : {

  00000	55		 push	 ebp
  00001	8b ec		 mov	 ebp, esp

; 393  :     return D3DXVECTOR3(x * f, y * f, z * f);

  00003	f3 0f 10 4d 0c	 movss	 xmm1, DWORD PTR _f$[ebp]
  00008	f3 0f 10 01	 movss	 xmm0, DWORD PTR [ecx]
  0000c	8b 45 08	 mov	 eax, DWORD PTR ___$ReturnUdt$[ebp]
  0000f	0f 5a c0	 cvtps2pd xmm0, xmm0
  00012	0f 5a c9	 cvtps2pd xmm1, xmm1
  00015	f2 0f 59 c1	 mulsd	 xmm0, xmm1
  00019	f3 0f 10 4d 0c	 movss	 xmm1, DWORD PTR _f$[ebp]
  0001e	66 0f 5a c0	 cvtpd2ps xmm0, xmm0
  00022	f3 0f 11 00	 movss	 DWORD PTR [eax], xmm0
  00026	f3 0f 10 41 04	 movss	 xmm0, DWORD PTR [ecx+4]
  0002b	0f 5a c0	 cvtps2pd xmm0, xmm0
  0002e	0f 5a c9	 cvtps2pd xmm1, xmm1
  00031	f2 0f 59 c1	 mulsd	 xmm0, xmm1
  00035	f3 0f 10 4d 0c	 movss	 xmm1, DWORD PTR _f$[ebp]
  0003a	66 0f 5a c0	 cvtpd2ps xmm0, xmm0
  0003e	f3 0f 11 40 04	 movss	 DWORD PTR [eax+4], xmm0
  00043	f3 0f 10 41 08	 movss	 xmm0, DWORD PTR [ecx+8]
  00048	0f 5a c0	 cvtps2pd xmm0, xmm0
  0004b	0f 5a c9	 cvtps2pd xmm1, xmm1
  0004e	f2 0f 59 c1	 mulsd	 xmm0, xmm1
  00052	66 0f 5a c0	 cvtpd2ps xmm0, xmm0
  00056	f3 0f 11 40 08	 movss	 DWORD PTR [eax+8], xmm0

; 394  : }

  0005b	5d		 pop	 ebp
  0005c	c2 08 00	 ret	 8
??DD3DXVECTOR3@@QBE?AU0@M@Z ENDP			; D3DXVECTOR3::operator*
_TEXT	ENDS
PUBLIC	__real@3f91df46a2526c7a
PUBLIC	??$DEGtoRAD@M@@YAMM@Z				; DEGtoRAD<float>
;	COMDAT __real@3f91df46a2526c7a
; File d:\lost saga for developer\youtube\tutorial\source\src\lsclient\veryoftenusedefine.h
CONST	SEGMENT
__real@3f91df46a2526c7a DQ 03f91df46a2526c7ar	; 0.0174533
; Function compile flags: /Ogsp
CONST	ENDS
;	COMDAT ??$DEGtoRAD@M@@YAMM@Z
_TEXT	SEGMENT
tv129 = 8						; size = 4
_val$ = 8						; size = 4
??$DEGtoRAD@M@@YAMM@Z PROC				; DEGtoRAD<float>, COMDAT

; 20   : type  DEGtoRAD (type val) {return (type) (val * 0.0174532925199);}

  00000	55		 push	 ebp
  00001	8b ec		 mov	 ebp, esp
  00003	d9 45 08	 fld	 DWORD PTR _val$[ebp]
  00006	dc 0d 00 00 00
	00		 fmul	 QWORD PTR __real@3f91df46a2526c7a
  0000c	d9 5d 08	 fstp	 DWORD PTR tv129[ebp]
  0000f	d9 45 08	 fld	 DWORD PTR tv129[ebp]
  00012	5d		 pop	 ebp
  00013	c3		 ret	 0
??$DEGtoRAD@M@@YAMM@Z ENDP				; DEGtoRAD<float>
_TEXT	ENDS
PUBLIC	??$addressof@$$CBUDummyTT13AttackInfo@@@std@@YAPBUDummyTT13AttackInfo@@ABU1@@Z ; std::addressof<DummyTT13AttackInfo const >
; Function compile flags: /Ogsp
; File c:\program files (x86)\microsoft visual studio 10.0\vc\include\xmemory
;	COMDAT ??$addressof@$$CBUDummyTT13AttackInfo@@@std@@YAPBUDummyTT13AttackInfo@@ABU1@@Z
_TEXT	SEGMENT
__Val$ = 8						; size = 4
??$addressof@$$CBUDummyTT13AttackInfo@@@std@@YAPBUDummyTT13AttackInfo@@ABU1@@Z PROC ; std::addressof<DummyTT13AttackInfo const >, COMDAT

; 110  : 	{	// return address of _Val

  00000	55		 push	 ebp
  00001	8b ec		 mov	 ebp, esp

; 111  : 	return ((_Ty *) &(char&)_Val);

  00003	8b 45 08	 mov	 eax, DWORD PTR __Val$[ebp]

; 112  : 	}

  00006	5d		 pop	 ebp
  00007	c3		 ret	 0
??$addressof@$$CBUDummyTT13AttackInfo@@@std@@YAPBUDummyTT13AttackInfo@@ABU1@@Z ENDP ; std::addressof<DummyTT13AttackInfo const >
_TEXT	ENDS
PUBLIC	__TI2?AVbad_alloc@std@@
PUBLIC	??$_Allocate@UDummyTT13AttackInfo@@@std@@YAPAUDummyTT13AttackInfo@@IPAU1@@Z ; std::_Allocate<DummyTT13AttackInfo>
PUBLIC	__CTA2?AVbad_alloc@std@@
PUBLIC	__CT??_R0?AVbad_alloc@std@@@8??0bad_alloc@std@@QAE@ABV01@@Z12
PUBLIC	??0bad_alloc@std@@QAE@ABV01@@Z			; std::bad_alloc::bad_alloc
PUBLIC	__CT??_R0?AVexception@std@@@8??0exception@std@@QAE@ABV01@@Z12
EXTRN	??2@YAPAXI@Z:PROC				; operator new
EXTRN	__CxxThrowException@8:PROC
EXTRN	??0exception@std@@QAE@ABV01@@Z:PROC		; std::exception::exception
;	COMDAT __CT??_R0?AVexception@std@@@8??0exception@std@@QAE@ABV01@@Z12
; File c:\program files (x86)\microsoft visual studio 10.0\vc\include\exception
xdata$x	SEGMENT
__CT??_R0?AVexception@std@@@8??0exception@std@@QAE@ABV01@@Z12 DD 00H
	DD	FLAT:??_R0?AVexception@std@@@8
	DD	00H
	DD	0ffffffffH
	ORG $+4
	DD	0cH
	DD	FLAT:??0exception@std@@QAE@ABV01@@Z
xdata$x	ENDS
;	COMDAT __CT??_R0?AVbad_alloc@std@@@8??0bad_alloc@std@@QAE@ABV01@@Z12
xdata$x	SEGMENT
__CT??_R0?AVbad_alloc@std@@@8??0bad_alloc@std@@QAE@ABV01@@Z12 DD 00H
	DD	FLAT:??_R0?AVbad_alloc@std@@@8
	DD	00H
	DD	0ffffffffH
	ORG $+4
	DD	0cH
	DD	FLAT:??0bad_alloc@std@@QAE@ABV01@@Z
xdata$x	ENDS
;	COMDAT __CTA2?AVbad_alloc@std@@
xdata$x	SEGMENT
__CTA2?AVbad_alloc@std@@ DD 02H
	DD	FLAT:__CT??_R0?AVbad_alloc@std@@@8??0bad_alloc@std@@QAE@ABV01@@Z12
	DD	FLAT:__CT??_R0?AVexception@std@@@8??0exception@std@@QAE@ABV01@@Z12
xdata$x	ENDS
;	COMDAT __TI2?AVbad_alloc@std@@
xdata$x	SEGMENT
__TI2?AVbad_alloc@std@@ DD 00H
	DD	FLAT:??1bad_alloc@std@@UAE@XZ
	DD	00H
	DD	FLAT:__CTA2?AVbad_alloc@std@@
; Function compile flags: /Ogsp
; File c:\program files (x86)\microsoft visual studio 10.0\vc\include\xmemory
xdata$x	ENDS
;	COMDAT ??$_Allocate@UDummyTT13AttackInfo@@@std@@YAPAUDummyTT13AttackInfo@@IPAU1@@Z
_TEXT	SEGMENT
$T536200 = -12						; size = 12
$T536205 = 8						; size = 4
__Count$ = 8						; size = 4
___formal$ = 12						; size = 4
??$_Allocate@UDummyTT13AttackInfo@@@std@@YAPAUDummyTT13AttackInfo@@IPAU1@@Z PROC ; std::_Allocate<DummyTT13AttackInfo>, COMDAT

; 30   : 	{	// allocate storage for _Count elements of type _Ty

  00000	55		 push	 ebp
  00001	8b ec		 mov	 ebp, esp

; 31   : 	void *_Ptr = 0;
; 32   : 
; 33   : 	if (_Count <= 0)

  00003	8b 4d 08	 mov	 ecx, DWORD PTR __Count$[ebp]
  00006	83 ec 0c	 sub	 esp, 12			; 0000000cH
  00009	33 c0		 xor	 eax, eax
  0000b	85 c9		 test	 ecx, ecx

; 34   : 		_Count = 0;
; 35   : 	else if (((_SIZT)(-1) / sizeof (_Ty) < _Count)

  0000d	74 3c		 je	 SHORT $LN5@Allocate

; 36   : 		|| (_Ptr = ::operator new(_Count * sizeof (_Ty))) == 0)

  0000f	81 f9 44 44 44
	04		 cmp	 ecx, 71582788		; 04444444H
  00015	77 0e		 ja	 SHORT $LN1@Allocate
  00017	6b c9 3c	 imul	 ecx, 60			; 0000003cH
  0001a	51		 push	 ecx
  0001b	e8 00 00 00 00	 call	 ??2@YAPAXI@Z		; operator new
  00020	59		 pop	 ecx
  00021	85 c0		 test	 eax, eax

; 38   : 
; 39   : 	return ((_Ty _FARQ *)_Ptr);

  00023	75 26		 jne	 SHORT $LN5@Allocate
$LN1@Allocate:

; 37   : 		_THROW_NCEE(bad_alloc, 0);

  00025	83 65 08 00	 and	 DWORD PTR $T536205[ebp], 0
  00029	8d 45 08	 lea	 eax, DWORD PTR $T536205[ebp]
  0002c	50		 push	 eax
  0002d	8d 4d f4	 lea	 ecx, DWORD PTR $T536200[ebp]
  00030	ff 15 00 00 00
	00		 call	 DWORD PTR __imp_??0exception@std@@QAE@ABQBD@Z
  00036	68 00 00 00 00	 push	 OFFSET __TI2?AVbad_alloc@std@@
  0003b	8d 45 f4	 lea	 eax, DWORD PTR $T536200[ebp]
  0003e	50		 push	 eax
  0003f	c7 45 f4 00 00
	00 00		 mov	 DWORD PTR $T536200[ebp], OFFSET ??_7bad_alloc@std@@6B@
  00046	e8 00 00 00 00	 call	 __CxxThrowException@8
$LN10@Allocate:
$LN5@Allocate:

; 40   : 	}

  0004b	c9		 leave
  0004c	c3		 ret	 0
$LN9@Allocate:
??$_Allocate@UDummyTT13AttackInfo@@@std@@YAPAUDummyTT13AttackInfo@@IPAU1@@Z ENDP ; std::_Allocate<DummyTT13AttackInfo>
_TEXT	ENDS
PUBLIC	??$forward@AAUDummyTT13AttackInfo@@@std@@YAAAUDummyTT13AttackInfo@@AAU1@@Z ; std::forward<DummyTT13AttackInfo &>
; Function compile flags: /Ogsp
; File c:\program files (x86)\microsoft visual studio 10.0\vc\include\utility
;	COMDAT ??$forward@AAUDummyTT13AttackInfo@@@std@@YAAAUDummyTT13AttackInfo@@AAU1@@Z
_TEXT	SEGMENT
__Arg$ = 8						; size = 4
??$forward@AAUDummyTT13AttackInfo@@@std@@YAAAUDummyTT13AttackInfo@@AAU1@@Z PROC ; std::forward<DummyTT13AttackInfo &>, COMDAT

; 78   : 	{	// forward _Arg, given explicitly specified type parameter

  00000	55		 push	 ebp
  00001	8b ec		 mov	 ebp, esp

; 79   : 	return ((_Ty&&)_Arg);

  00003	8b 45 08	 mov	 eax, DWORD PTR __Arg$[ebp]

; 80   : 	}

  00006	5d		 pop	 ebp
  00007	c3		 ret	 0
??$forward@AAUDummyTT13AttackInfo@@@std@@YAAAUDummyTT13AttackInfo@@AAU1@@Z ENDP ; std::forward<DummyTT13AttackInfo &>
_TEXT	ENDS
PUBLIC	??$forward@ABUDummyTT13AttackInfo@@@std@@YAABUDummyTT13AttackInfo@@ABU1@@Z ; std::forward<DummyTT13AttackInfo const &>
; Function compile flags: /Ogsp
;	COMDAT ??$forward@ABUDummyTT13AttackInfo@@@std@@YAABUDummyTT13AttackInfo@@ABU1@@Z
_TEXT	SEGMENT
__Arg$ = 8						; size = 4
??$forward@ABUDummyTT13AttackInfo@@@std@@YAABUDummyTT13AttackInfo@@ABU1@@Z PROC ; std::forward<DummyTT13AttackInfo const &>, COMDAT

; 78   : 	{	// forward _Arg, given explicitly specified type parameter

  00000	55		 push	 ebp
  00001	8b ec		 mov	 ebp, esp

; 79   : 	return ((_Ty&&)_Arg);

  00003	8b 45 08	 mov	 eax, DWORD PTR __Arg$[ebp]

; 80   : 	}

  00006	5d		 pop	 ebp
  00007	c3		 ret	 0
??$forward@ABUDummyTT13AttackInfo@@@std@@YAABUDummyTT13AttackInfo@@ABU1@@Z ENDP ; std::forward<DummyTT13AttackInfo const &>
_TEXT	ENDS
PUBLIC	??$_Ptr_cat@UDummyTT13AttackInfo@@U1@@std@@YA?AU_Nonscalar_ptr_iterator_tag@0@PAUDummyTT13AttackInfo@@0@Z ; std::_Ptr_cat<DummyTT13AttackInfo,DummyTT13AttackInfo>
; Function compile flags: /Ogsp
; File c:\program files (x86)\microsoft visual studio 10.0\vc\include\xutility
;	COMDAT ??$_Ptr_cat@UDummyTT13AttackInfo@@U1@@std@@YA?AU_Nonscalar_ptr_iterator_tag@0@PAUDummyTT13AttackInfo@@0@Z
_TEXT	SEGMENT
__Cat$ = -1						; size = 1
___formal$ = 8						; size = 4
___formal$ = 12						; size = 4
??$_Ptr_cat@UDummyTT13AttackInfo@@U1@@std@@YA?AU_Nonscalar_ptr_iterator_tag@0@PAUDummyTT13AttackInfo@@0@Z PROC ; std::_Ptr_cat<DummyTT13AttackInfo,DummyTT13AttackInfo>, COMDAT

; 516  : 	{	// return pointer category from pointers

  00000	55		 push	 ebp
  00001	8b ec		 mov	 ebp, esp
  00003	51		 push	 ecx

; 517  : 	typename _Ptr_cat_helper<_Elem1, _Elem2>::_Type _Cat;
; 518  : 	return (_Cat);

  00004	8a 45 ff	 mov	 al, BYTE PTR __Cat$[ebp]

; 519  : 	}

  00007	c9		 leave
  00008	c3		 ret	 0
??$_Ptr_cat@UDummyTT13AttackInfo@@U1@@std@@YA?AU_Nonscalar_ptr_iterator_tag@0@PAUDummyTT13AttackInfo@@0@Z ENDP ; std::_Ptr_cat<DummyTT13AttackInfo,DummyTT13AttackInfo>
_TEXT	ENDS
PUBLIC	??0DummyTT13AttackInfo@@QAE@ABU0@@Z		; DummyTT13AttackInfo::DummyTT13AttackInfo
EXTRN	__imp_??0ioHashString@@QAE@ABV0@@Z:PROC
; Function compile flags: /Ogsp
;	COMDAT ??0DummyTT13AttackInfo@@QAE@ABU0@@Z
_TEXT	SEGMENT
___that$ = 8						; size = 4
??0DummyTT13AttackInfo@@QAE@ABU0@@Z PROC		; DummyTT13AttackInfo::DummyTT13AttackInfo, COMDAT
; _this$ = ecx
  00000	55		 push	 ebp
  00001	8b ec		 mov	 ebp, esp
  00003	56		 push	 esi
  00004	57		 push	 edi
  00005	8b 7d 08	 mov	 edi, DWORD PTR ___that$[ebp]
  00008	8b 07		 mov	 eax, DWORD PTR [edi]
  0000a	8b f1		 mov	 esi, ecx
  0000c	89 06		 mov	 DWORD PTR [esi], eax
  0000e	8b 47 04	 mov	 eax, DWORD PTR [edi+4]
  00011	89 46 04	 mov	 DWORD PTR [esi+4], eax
  00014	8d 47 08	 lea	 eax, DWORD PTR [edi+8]
  00017	50		 push	 eax
  00018	8d 4e 08	 lea	 ecx, DWORD PTR [esi+8]
  0001b	ff 15 00 00 00
	00		 call	 DWORD PTR __imp_??0ioHashString@@QAE@ABV0@@Z
  00021	d9 47 18	 fld	 DWORD PTR [edi+24]
  00024	d9 5e 18	 fstp	 DWORD PTR [esi+24]
  00027	8b c6		 mov	 eax, esi
  00029	d9 47 1c	 fld	 DWORD PTR [edi+28]
  0002c	d9 5e 1c	 fstp	 DWORD PTR [esi+28]
  0002f	d9 47 20	 fld	 DWORD PTR [edi+32]
  00032	d9 5e 20	 fstp	 DWORD PTR [esi+32]
  00035	d9 47 24	 fld	 DWORD PTR [edi+36]
  00038	d9 5e 24	 fstp	 DWORD PTR [esi+36]
  0003b	d9 47 28	 fld	 DWORD PTR [edi+40]
  0003e	d9 5e 28	 fstp	 DWORD PTR [esi+40]
  00041	d9 47 2c	 fld	 DWORD PTR [edi+44]
  00044	d9 5e 2c	 fstp	 DWORD PTR [esi+44]
  00047	d9 47 30	 fld	 DWORD PTR [edi+48]
  0004a	d9 5e 30	 fstp	 DWORD PTR [esi+48]
  0004d	d9 47 34	 fld	 DWORD PTR [edi+52]
  00050	d9 5e 34	 fstp	 DWORD PTR [esi+52]
  00053	d9 47 38	 fld	 DWORD PTR [edi+56]
  00056	5f		 pop	 edi
  00057	d9 5e 38	 fstp	 DWORD PTR [esi+56]
  0005a	5e		 pop	 esi
  0005b	5d		 pop	 ebp
  0005c	c2 04 00	 ret	 4
??0DummyTT13AttackInfo@@QAE@ABU0@@Z ENDP		; DummyTT13AttackInfo::DummyTT13AttackInfo
_TEXT	ENDS
PUBLIC	??1_Node@?$_List_nod@UFireTime@@V?$allocator@UFireTime@@@std@@@std@@QAE@XZ ; std::_List_nod<FireTime,std::allocator<FireTime> >::_Node::~_Node
; Function compile flags: /Ogsp
;	COMDAT ??1_Node@?$_List_nod@UFireTime@@V?$allocator@UFireTime@@@std@@@std@@QAE@XZ
_TEXT	SEGMENT
??1_Node@?$_List_nod@UFireTime@@V?$allocator@UFireTime@@@std@@@std@@QAE@XZ PROC ; std::_List_nod<FireTime,std::allocator<FireTime> >::_Node::~_Node, COMDAT
; _this$ = ecx
  00000	83 c1 08	 add	 ecx, 8
  00003	e9 00 00 00 00	 jmp	 ??1FireTime@@QAE@XZ
??1_Node@?$_List_nod@UFireTime@@V?$allocator@UFireTime@@@std@@@std@@QAE@XZ ENDP ; std::_List_nod<FireTime,std::allocator<FireTime> >::_Node::~_Node
_TEXT	ENDS
PUBLIC	??$move@AAUDummyTT13AttackInfo@@@std@@YA$$QAUDummyTT13AttackInfo@@AAU1@@Z ; std::move<DummyTT13AttackInfo &>
; Function compile flags: /Ogsp
; File c:\program files (x86)\microsoft visual studio 10.0\vc\include\utility
;	COMDAT ??$move@AAUDummyTT13AttackInfo@@@std@@YA$$QAUDummyTT13AttackInfo@@AAU1@@Z
_TEXT	SEGMENT
__Arg$ = 8						; size = 4
??$move@AAUDummyTT13AttackInfo@@@std@@YA$$QAUDummyTT13AttackInfo@@AAU1@@Z PROC ; std::move<DummyTT13AttackInfo &>, COMDAT

; 86   : 	{	// forward _Arg as movable

  00000	55		 push	 ebp
  00001	8b ec		 mov	 ebp, esp

; 87   : 	return ((typename tr1::_Remove_reference<_Ty>::_Type&&)_Arg);

  00003	8b 45 08	 mov	 eax, DWORD PTR __Arg$[ebp]

; 88   : 	}

  00006	5d		 pop	 ebp
  00007	c3		 ret	 0
??$move@AAUDummyTT13AttackInfo@@@std@@YA$$QAUDummyTT13AttackInfo@@AAU1@@Z ENDP ; std::move<DummyTT13AttackInfo &>
_TEXT	ENDS
PUBLIC	??$_Val_type@PAUDummyTT13AttackInfo@@@std@@YAPAUDummyTT13AttackInfo@@PAU1@@Z ; std::_Val_type<DummyTT13AttackInfo *>
; Function compile flags: /Ogsp
; File c:\program files (x86)\microsoft visual studio 10.0\vc\include\xutility
;	COMDAT ??$_Val_type@PAUDummyTT13AttackInfo@@@std@@YAPAUDummyTT13AttackInfo@@PAU1@@Z
_TEXT	SEGMENT
___formal$ = 8						; size = 4
??$_Val_type@PAUDummyTT13AttackInfo@@@std@@YAPAUDummyTT13AttackInfo@@PAU1@@Z PROC ; std::_Val_type<DummyTT13AttackInfo *>, COMDAT

; 790  : 	return (0);

  00000	33 c0		 xor	 eax, eax

; 791  : 	}

  00002	c3		 ret	 0
??$_Val_type@PAUDummyTT13AttackInfo@@@std@@YAPAUDummyTT13AttackInfo@@PAU1@@Z ENDP ; std::_Val_type<DummyTT13AttackInfo *>
_TEXT	ENDS
PUBLIC	??_GDummyTT13AttackInfo@@QAEPAXI@Z		; DummyTT13AttackInfo::`scalar deleting destructor'
; Function compile flags: /Ogsp
;	COMDAT ??_GDummyTT13AttackInfo@@QAEPAXI@Z
_TEXT	SEGMENT
___flags$ = 8						; size = 4
??_GDummyTT13AttackInfo@@QAEPAXI@Z PROC			; DummyTT13AttackInfo::`scalar deleting destructor', COMDAT
; _this$ = ecx
  00000	55		 push	 ebp
  00001	8b ec		 mov	 ebp, esp
  00003	56		 push	 esi
  00004	8b f1		 mov	 esi, ecx
  00006	8d 4e 08	 lea	 ecx, DWORD PTR [esi+8]
  00009	ff 15 00 00 00
	00		 call	 DWORD PTR __imp_??1ioHashString@@QAE@XZ
  0000f	f6 45 08 01	 test	 BYTE PTR ___flags$[ebp], 1
  00013	74 07		 je	 SHORT $LN1@scalar@2
  00015	56		 push	 esi
  00016	e8 00 00 00 00	 call	 ??3@YAXPAX@Z		; operator delete
  0001b	59		 pop	 ecx
$LN1@scalar@2:
  0001c	8b c6		 mov	 eax, esi
  0001e	5e		 pop	 esi
  0001f	5d		 pop	 ebp
  00020	c2 04 00	 ret	 4
??_GDummyTT13AttackInfo@@QAEPAXI@Z ENDP			; DummyTT13AttackInfo::`scalar deleting destructor'
_TEXT	ENDS
PUBLIC	??$forward@UDummyTT13AttackInfo@@@std@@YA$$QAUDummyTT13AttackInfo@@AAU1@@Z ; std::forward<DummyTT13AttackInfo>
; Function compile flags: /Ogsp
; File c:\program files (x86)\microsoft visual studio 10.0\vc\include\utility
;	COMDAT ??$forward@UDummyTT13AttackInfo@@@std@@YA$$QAUDummyTT13AttackInfo@@AAU1@@Z
_TEXT	SEGMENT
__Arg$ = 8						; size = 4
??$forward@UDummyTT13AttackInfo@@@std@@YA$$QAUDummyTT13AttackInfo@@AAU1@@Z PROC ; std::forward<DummyTT13AttackInfo>, COMDAT

; 78   : 	{	// forward _Arg, given explicitly specified type parameter

  00000	55		 push	 ebp
  00001	8b ec		 mov	 ebp, esp

; 79   : 	return ((_Ty&&)_Arg);

  00003	8b 45 08	 mov	 eax, DWORD PTR __Arg$[ebp]

; 80   : 	}

  00006	5d		 pop	 ebp
  00007	c3		 ret	 0
??$forward@UDummyTT13AttackInfo@@@std@@YA$$QAUDummyTT13AttackInfo@@AAU1@@Z ENDP ; std::forward<DummyTT13AttackInfo>
_TEXT	ENDS
PUBLIC	?D3DXVec3Length@@YAMPBUD3DXVECTOR3@@@Z		; D3DXVec3Length
; Function compile flags: /Ogsp
; File c:\program files (x86)\microsoft directx sdk (june 2010)\include\d3dx9math.inl
;	COMDAT ?D3DXVec3Length@@YAMPBUD3DXVECTOR3@@@Z
_TEXT	SEGMENT
tv169 = 8						; size = 4
tv160 = 8						; size = 4
_pV$ = 8						; size = 4
?D3DXVec3Length@@YAMPBUD3DXVECTOR3@@@Z PROC		; D3DXVec3Length, COMDAT

; 1710 : {

  00000	55		 push	 ebp
  00001	8b ec		 mov	 ebp, esp

; 1711 : #ifdef D3DX_DEBUG
; 1712 :     if(!pV)
; 1713 :         return 0.0f;
; 1714 : #endif
; 1715 : 
; 1716 : #ifdef __cplusplus
; 1717 :     return sqrtf(pV->x * pV->x + pV->y * pV->y + pV->z * pV->z);

  00003	8b 45 08	 mov	 eax, DWORD PTR _pV$[ebp]
  00006	d9 40 04	 fld	 DWORD PTR [eax+4]
  00009	d9 00		 fld	 DWORD PTR [eax]
  0000b	d9 40 08	 fld	 DWORD PTR [eax+8]
  0000e	d9 c1		 fld	 ST(1)
  00010	de ca		 fmulp	 ST(2), ST(0)
  00012	d9 c2		 fld	 ST(2)
  00014	de cb		 fmulp	 ST(3), ST(0)
  00016	d9 c9		 fxch	 ST(1)
  00018	de c2		 faddp	 ST(2), ST(0)
  0001a	d9 c0		 fld	 ST(0)
  0001c	de c9		 fmulp	 ST(1), ST(0)
  0001e	de c1		 faddp	 ST(1), ST(0)
  00020	d9 5d 08	 fstp	 DWORD PTR tv169[ebp]
  00023	d9 45 08	 fld	 DWORD PTR tv169[ebp]
  00026	e8 00 00 00 00	 call	 __CIsqrt
  0002b	d9 5d 08	 fstp	 DWORD PTR tv160[ebp]
  0002e	d9 45 08	 fld	 DWORD PTR tv160[ebp]

; 1718 : #else
; 1719 :     return (FLOAT) sqrt(pV->x * pV->x + pV->y * pV->y + pV->z * pV->z);
; 1720 : #endif
; 1721 : }

  00031	5d		 pop	 ebp
  00032	c3		 ret	 0
?D3DXVec3Length@@YAMPBUD3DXVECTOR3@@@Z ENDP		; D3DXVec3Length
_TEXT	ENDS
PUBLIC	?D3DXVec3LengthSq@@YAMPBUD3DXVECTOR3@@@Z	; D3DXVec3LengthSq
; Function compile flags: /Ogsp
;	COMDAT ?D3DXVec3LengthSq@@YAMPBUD3DXVECTOR3@@@Z
_TEXT	SEGMENT
tv165 = 8						; size = 4
_pV$ = 8						; size = 4
?D3DXVec3LengthSq@@YAMPBUD3DXVECTOR3@@@Z PROC		; D3DXVec3LengthSq, COMDAT

; 1725 : {

  00000	55		 push	 ebp
  00001	8b ec		 mov	 ebp, esp

; 1726 : #ifdef D3DX_DEBUG
; 1727 :     if(!pV)
; 1728 :         return 0.0f;
; 1729 : #endif
; 1730 : 
; 1731 :     return pV->x * pV->x + pV->y * pV->y + pV->z * pV->z;

  00003	8b 45 08	 mov	 eax, DWORD PTR _pV$[ebp]
  00006	d9 40 04	 fld	 DWORD PTR [eax+4]
  00009	d9 00		 fld	 DWORD PTR [eax]
  0000b	d9 40 08	 fld	 DWORD PTR [eax+8]
  0000e	d9 c1		 fld	 ST(1)
  00010	de ca		 fmulp	 ST(2), ST(0)
  00012	d9 c2		 fld	 ST(2)
  00014	de cb		 fmulp	 ST(3), ST(0)
  00016	d9 c9		 fxch	 ST(1)
  00018	de c2		 faddp	 ST(2), ST(0)
  0001a	d9 c0		 fld	 ST(0)
  0001c	de c9		 fmulp	 ST(1), ST(0)
  0001e	de c1		 faddp	 ST(1), ST(0)
  00020	d9 5d 08	 fstp	 DWORD PTR tv165[ebp]
  00023	d9 45 08	 fld	 DWORD PTR tv165[ebp]

; 1732 : }

  00026	5d		 pop	 ebp
  00027	c3		 ret	 0
?D3DXVec3LengthSq@@YAMPBUD3DXVECTOR3@@@Z ENDP		; D3DXVec3LengthSq
_TEXT	ENDS
PUBLIC	?D3DXVec3Dot@@YAMPBUD3DXVECTOR3@@0@Z		; D3DXVec3Dot
; Function compile flags: /Ogsp
;	COMDAT ?D3DXVec3Dot@@YAMPBUD3DXVECTOR3@@0@Z
_TEXT	SEGMENT
tv188 = 8						; size = 4
_pV1$ = 8						; size = 4
_pV2$ = 12						; size = 4
?D3DXVec3Dot@@YAMPBUD3DXVECTOR3@@0@Z PROC		; D3DXVec3Dot, COMDAT

; 1736 : {

  00000	55		 push	 ebp
  00001	8b ec		 mov	 ebp, esp

; 1737 : #ifdef D3DX_DEBUG
; 1738 :     if(!pV1 || !pV2)
; 1739 :         return 0.0f;
; 1740 : #endif
; 1741 : 
; 1742 :     return pV1->x * pV2->x + pV1->y * pV2->y + pV1->z * pV2->z;

  00003	8b 45 08	 mov	 eax, DWORD PTR _pV1$[ebp]
  00006	8b 4d 0c	 mov	 ecx, DWORD PTR _pV2$[ebp]
  00009	d9 40 04	 fld	 DWORD PTR [eax+4]
  0000c	d8 49 04	 fmul	 DWORD PTR [ecx+4]
  0000f	d9 00		 fld	 DWORD PTR [eax]
  00011	d8 09		 fmul	 DWORD PTR [ecx]
  00013	de c1		 faddp	 ST(1), ST(0)
  00015	d9 40 08	 fld	 DWORD PTR [eax+8]
  00018	d8 49 08	 fmul	 DWORD PTR [ecx+8]
  0001b	de c1		 faddp	 ST(1), ST(0)
  0001d	d9 5d 08	 fstp	 DWORD PTR tv188[ebp]
  00020	d9 45 08	 fld	 DWORD PTR tv188[ebp]

; 1743 : }

  00023	5d		 pop	 ebp
  00024	c3		 ret	 0
?D3DXVec3Dot@@YAMPBUD3DXVECTOR3@@0@Z ENDP		; D3DXVec3Dot
_TEXT	ENDS
PUBLIC	?D3DXVec3Cross@@YAPAUD3DXVECTOR3@@PAU1@PBU1@1@Z	; D3DXVec3Cross
; Function compile flags: /Ogsp
;	COMDAT ?D3DXVec3Cross@@YAPAUD3DXVECTOR3@@PAU1@PBU1@1@Z
_TEXT	SEGMENT
_v$ = -12						; size = 12
_pOut$ = 8						; size = 4
_pV1$ = 12						; size = 4
_pV2$ = 16						; size = 4
?D3DXVec3Cross@@YAPAUD3DXVECTOR3@@PAU1@PBU1@1@Z PROC	; D3DXVec3Cross, COMDAT

; 1747 : {

  00000	55		 push	 ebp
  00001	8b ec		 mov	 ebp, esp
  00003	83 ec 0c	 sub	 esp, 12			; 0000000cH

; 1757 :     v.z = pV1->x * pV2->y - pV1->y * pV2->x;
; 1758 : 
; 1759 :     *pOut = v;

  00006	56		 push	 esi
  00007	57		 push	 edi

; 1748 :     D3DXVECTOR3 v;
; 1749 : 
; 1750 : #ifdef D3DX_DEBUG
; 1751 :     if(!pOut || !pV1 || !pV2)
; 1752 :         return NULL;
; 1753 : #endif
; 1754 : 
; 1755 :     v.x = pV1->y * pV2->z - pV1->z * pV2->y;

  00008	8b 45 0c	 mov	 eax, DWORD PTR _pV1$[ebp]
  0000b	f3 0f 10 40 04	 movss	 xmm0, DWORD PTR [eax+4]
  00010	f3 0f 10 50 08	 movss	 xmm2, DWORD PTR [eax+8]
  00015	8b 4d 10	 mov	 ecx, DWORD PTR _pV2$[ebp]
  00018	f3 0f 10 49 08	 movss	 xmm1, DWORD PTR [ecx+8]
  0001d	f3 0f 10 59 04	 movss	 xmm3, DWORD PTR [ecx+4]
  00022	0f 5a e8	 cvtps2pd xmm5, xmm0
  00025	0f 5a e1	 cvtps2pd xmm4, xmm1
  00028	0f 5a f2	 cvtps2pd xmm6, xmm2
  0002b	f2 0f 59 e5	 mulsd	 xmm4, xmm5

; 1756 :     v.y = pV1->z * pV2->x - pV1->x * pV2->z;

  0002f	0f 5a d2	 cvtps2pd xmm2, xmm2
  00032	0f 5a c9	 cvtps2pd xmm1, xmm1
  00035	0f 5a eb	 cvtps2pd xmm5, xmm3
  00038	f2 0f 59 ee	 mulsd	 xmm5, xmm6
  0003c	f2 0f 5c e5	 subsd	 xmm4, xmm5
  00040	f3 0f 10 28	 movss	 xmm5, DWORD PTR [eax]

; 1757 :     v.z = pV1->x * pV2->y - pV1->y * pV2->x;
; 1758 : 
; 1759 :     *pOut = v;

  00044	8b 45 08	 mov	 eax, DWORD PTR _pOut$[ebp]
  00047	66 0f 5a e4	 cvtpd2ps xmm4, xmm4
  0004b	f3 0f 11 65 f4	 movss	 DWORD PTR _v$[ebp], xmm4
  00050	f3 0f 10 21	 movss	 xmm4, DWORD PTR [ecx]
  00054	0f 5a f4	 cvtps2pd xmm6, xmm4
  00057	f2 0f 59 f2	 mulsd	 xmm6, xmm2
  0005b	0f 5a d5	 cvtps2pd xmm2, xmm5
  0005e	f2 0f 59 d1	 mulsd	 xmm2, xmm1
  00062	f2 0f 5c f2	 subsd	 xmm6, xmm2
  00066	66 0f 5a ce	 cvtpd2ps xmm1, xmm6
  0006a	f3 0f 11 4d f8	 movss	 DWORD PTR _v$[ebp+4], xmm1
  0006f	0f 5a c0	 cvtps2pd xmm0, xmm0
  00072	0f 5a d3	 cvtps2pd xmm2, xmm3
  00075	0f 5a cd	 cvtps2pd xmm1, xmm5
  00078	f2 0f 59 ca	 mulsd	 xmm1, xmm2
  0007c	8d 75 f4	 lea	 esi, DWORD PTR _v$[ebp]
  0007f	8b f8		 mov	 edi, eax
  00081	0f 5a d4	 cvtps2pd xmm2, xmm4
  00084	f2 0f 59 d0	 mulsd	 xmm2, xmm0
  00088	f2 0f 5c ca	 subsd	 xmm1, xmm2
  0008c	66 0f 5a c1	 cvtpd2ps xmm0, xmm1
  00090	f3 0f 11 45 fc	 movss	 DWORD PTR _v$[ebp+8], xmm0
  00095	a5		 movsd
  00096	a5		 movsd
  00097	a5		 movsd
  00098	5f		 pop	 edi
  00099	5e		 pop	 esi

; 1760 :     return pOut;
; 1761 : }

  0009a	c9		 leave
  0009b	c3		 ret	 0
?D3DXVec3Cross@@YAPAUD3DXVECTOR3@@PAU1@PBU1@1@Z ENDP	; D3DXVec3Cross
_TEXT	ENDS
PUBLIC	?_DECSTR@@YAXPADH@Z				; _DECSTR
; Function compile flags: /Ogsp
; File d:\lost saga for developer\youtube\tutorial\source\src\lsclient\stringprotect.h
;	COMDAT ?_DECSTR@@YAXPADH@Z
_TEXT	SEGMENT
_s$ = 8							; size = 4
_l$ = 12						; size = 4
?_DECSTR@@YAXPADH@Z PROC				; _DECSTR, COMDAT

; 40   : __forceinline void _DECSTR(char* s, int l){int i=0,l4=(l-1)/4,*p=(int*)s;s[l-1]=0;for(;i<l4;++i)*(p++)^=0xEAEBECED;for(i=l4*4;i<l-1;++i)s[i]^=0xED-i%4;}

  00000	55		 push	 ebp
  00001	8b ec		 mov	 ebp, esp
  00003	8b 4d 0c	 mov	 ecx, DWORD PTR _l$[ebp]
  00006	56		 push	 esi
  00007	8b 75 08	 mov	 esi, DWORD PTR _s$[ebp]
  0000a	57		 push	 edi
  0000b	8d 79 ff	 lea	 edi, DWORD PTR [ecx-1]
  0000e	8b c7		 mov	 eax, edi
  00010	99		 cdq
  00011	83 e2 03	 and	 edx, 3
  00014	03 c2		 add	 eax, edx
  00016	c1 f8 02	 sar	 eax, 2
  00019	8b d6		 mov	 edx, esi
  0001b	c6 44 0e ff 00	 mov	 BYTE PTR [esi+ecx-1], 0
  00020	85 c0		 test	 eax, eax
  00022	7e 0e		 jle	 SHORT $LN4@DECSTR
  00024	8b c8		 mov	 ecx, eax
$LL6@DECSTR:
  00026	81 32 ed ec eb
	ea		 xor	 DWORD PTR [edx], -353637139 ; eaebecedH
  0002c	83 c2 04	 add	 edx, 4
  0002f	49		 dec	 ecx
  00030	75 f4		 jne	 SHORT $LL6@DECSTR
$LN4@DECSTR:
  00032	c1 e0 02	 shl	 eax, 2
  00035	eb 17		 jmp	 SHORT $LN14@DECSTR
$LL3@DECSTR:
  00037	8b c8		 mov	 ecx, eax
  00039	81 e1 03 00 00
	80		 and	 ecx, -2147483645	; 80000003H
  0003f	79 05		 jns	 SHORT $LN13@DECSTR
  00041	49		 dec	 ecx
  00042	83 c9 fc	 or	 ecx, -4			; fffffffcH
  00045	41		 inc	 ecx
$LN13@DECSTR:
  00046	b2 ed		 mov	 dl, -19			; ffffffedH
  00048	2a d1		 sub	 dl, cl
  0004a	30 14 30	 xor	 BYTE PTR [eax+esi], dl
  0004d	40		 inc	 eax
$LN14@DECSTR:
  0004e	3b c7		 cmp	 eax, edi
  00050	7c e5		 jl	 SHORT $LL3@DECSTR
  00052	5f		 pop	 edi
  00053	5e		 pop	 esi
  00054	5d		 pop	 ebp
  00055	c3		 ret	 0
?_DECSTR@@YAXPADH@Z ENDP				; _DECSTR
_TEXT	ENDS
PUBLIC	?return57@@YAIXZ				; return57
; Function compile flags: /Ogsp
; File d:\lost saga for developer\youtube\tutorial\source\src\lsclient\veryoftenusedefine.h
;	COMDAT ?return57@@YAIXZ
_TEXT	SEGMENT
?return57@@YAIXZ PROC					; return57, COMDAT

; 15   : __forceinline unsigned int return57() { __asm mov eax, 57 };

  00000	b8 39 00 00 00	 mov	 eax, 57			; 00000039H
  00005	c3		 ret	 0
?return57@@YAIXZ ENDP					; return57
_TEXT	ENDS
PUBLIC	??0FireTime@@QAE@XZ				; FireTime::FireTime
;	COMDAT xdata$x
; File d:\lost saga for developer\youtube\tutorial\source\src\lsclient\playentityhelpstruct.h
xdata$x	SEGMENT
__unwindtable$??0FireTime@@QAE@XZ DD 0ffffffffH
	DD	FLAT:__unwindfunclet$??0FireTime@@QAE@XZ$0
	DD	00H
	DD	FLAT:__unwindfunclet$??0FireTime@@QAE@XZ$1
__ehfuncinfo$??0FireTime@@QAE@XZ DD 019930522H
	DD	02H
	DD	FLAT:__unwindtable$??0FireTime@@QAE@XZ
	DD	2 DUP(00H)
	DD	2 DUP(00H)
	DD	00H
	DD	01H
; Function compile flags: /Ogsp
xdata$x	ENDS
;	COMDAT ??0FireTime@@QAE@XZ
_TEXT	SEGMENT
_this$ = -16						; size = 4
__$EHRec$ = -12						; size = 12
??0FireTime@@QAE@XZ PROC				; FireTime::FireTime, COMDAT
; _this$ = ecx

; 219  : 	FireTime()

  00000	6a 04		 push	 4
  00002	b8 00 00 00 00	 mov	 eax, __ehhandler$??0FireTime@@QAE@XZ
  00007	e8 00 00 00 00	 call	 __EH_prolog3
  0000c	8b f1		 mov	 esi, ecx
  0000e	89 75 f0	 mov	 DWORD PTR _this$[ebp], esi
  00011	8b 3d 00 00 00
	00		 mov	 edi, DWORD PTR __imp_??0ioHashString@@QAE@XZ
  00017	8d 4e 14	 lea	 ecx, DWORD PTR [esi+20]
  0001a	ff d7		 call	 edi
  0001c	33 db		 xor	 ebx, ebx
  0001e	8d 4e 30	 lea	 ecx, DWORD PTR [esi+48]
  00021	89 5d fc	 mov	 DWORD PTR __$EHRec$[ebp+8], ebx
  00024	ff d7		 call	 edi
  00026	8d 4e 44	 lea	 ecx, DWORD PTR [esi+68]
  00029	c6 45 fc 01	 mov	 BYTE PTR __$EHRec$[ebp+8], 1
  0002d	ff d7		 call	 edi

; 220  : 	{
; 221  : 		dwStart = 0;

  0002f	89 1e		 mov	 DWORD PTR [esi], ebx

; 222  : 		dwDuration = 0;

  00031	89 5e 04	 mov	 DWORD PTR [esi+4], ebx

; 223  : 
; 224  : 		iAttributeIdx = 0;

  00034	89 5e 08	 mov	 DWORD PTR [esi+8], ebx

; 225  : 		iResistanceIdx = 0;

  00037	89 5e 0c	 mov	 DWORD PTR [esi+12], ebx

; 226  : 
; 227  : 		bLoopWoundedAni = false;

  0003a	88 5e 10	 mov	 BYTE PTR [esi+16], bl

; 228  : 		dwWoundedAniDuration = 0;

  0003d	89 5e 24	 mov	 DWORD PTR [esi+36], ebx

; 229  : 
; 230  : 		dwWeaponIdx = 0;

  00040	89 5e 28	 mov	 DWORD PTR [esi+40], ebx

; 231  : 		eCollisionType = ACT_NONE;

  00043	c7 46 2c 06 00
	00 00		 mov	 DWORD PTR [esi+44], 6

; 232  : 		eFireTimeType = FTT_NORMAL_ATTACK;

  0004a	89 5e 40	 mov	 DWORD PTR [esi+64], ebx

; 233  : 
; 234  : 		m_iExtraValue = 0;

  0004d	89 5e 54	 mov	 DWORD PTR [esi+84], ebx

; 235  : 	}

  00050	8b c6		 mov	 eax, esi
  00052	e8 00 00 00 00	 call	 __EH_epilog3
  00057	c3		 ret	 0
_TEXT	ENDS
;	COMDAT text$x
text$x	SEGMENT
__unwindfunclet$??0FireTime@@QAE@XZ$0:
  00000	8b 4d f0	 mov	 ecx, DWORD PTR _this$[ebp]
  00003	83 c1 14	 add	 ecx, 20			; 00000014H
  00006	ff 25 00 00 00
	00		 jmp	 DWORD PTR __imp_??1ioHashString@@QAE@XZ
__unwindfunclet$??0FireTime@@QAE@XZ$1:
  0000c	8b 4d f0	 mov	 ecx, DWORD PTR _this$[ebp]
  0000f	83 c1 30	 add	 ecx, 48			; 00000030H
  00012	ff 25 00 00 00
	00		 jmp	 DWORD PTR __imp_??1ioHashString@@QAE@XZ
__ehhandler$??0FireTime@@QAE@XZ:
  00018	8b 54 24 08	 mov	 edx, DWORD PTR [esp+8]
  0001c	8d 42 0c	 lea	 eax, DWORD PTR [edx+12]
  0001f	8b 4a ec	 mov	 ecx, DWORD PTR [edx-20]
  00022	33 c8		 xor	 ecx, eax
  00024	e8 00 00 00 00	 call	 @__security_check_cookie@4
  00029	b8 00 00 00 00	 mov	 eax, OFFSET __ehfuncinfo$??0FireTime@@QAE@XZ
  0002e	e9 00 00 00 00	 jmp	 ___CxxFrameHandler3
text$x	ENDS
??0FireTime@@QAE@XZ ENDP				; FireTime::FireTime
PUBLIC	?GetOwnerName@ioDummyChar@@QAEABVioHashString@@XZ ; ioDummyChar::GetOwnerName
; Function compile flags: /Ogsp
; File d:\lost saga for developer\youtube\tutorial\source\src\lsclient\iodummychar.h
;	COMDAT ?GetOwnerName@ioDummyChar@@QAEABVioHashString@@XZ
_TEXT	SEGMENT
?GetOwnerName@ioDummyChar@@QAEABVioHashString@@XZ PROC	; ioDummyChar::GetOwnerName, COMDAT
; _this$ = ecx

; 651  : 	inline const ioHashString& GetOwnerName() { return m_OwnerName; }

  00000	8d 81 cc 01 00
	00		 lea	 eax, DWORD PTR [ecx+460]
  00006	c3		 ret	 0
?GetOwnerName@ioDummyChar@@QAEABVioHashString@@XZ ENDP	; ioDummyChar::GetOwnerName
_TEXT	ENDS
PUBLIC	?size@?$vector@VioHashString@@V?$allocator@VioHashString@@@std@@@std@@QBEIXZ ; std::vector<ioHashString,std::allocator<ioHashString> >::size
; Function compile flags: /Ogsp
; File c:\program files (x86)\microsoft visual studio 10.0\vc\include\vector
;	COMDAT ?size@?$vector@VioHashString@@V?$allocator@VioHashString@@@std@@@std@@QBEIXZ
_TEXT	SEGMENT
?size@?$vector@VioHashString@@V?$allocator@VioHashString@@@std@@@std@@QBEIXZ PROC ; std::vector<ioHashString,std::allocator<ioHashString> >::size, COMDAT
; _this$ = ecx

; 879  : 		return (this->_Mylast - this->_Myfirst);

  00000	8b 41 04	 mov	 eax, DWORD PTR [ecx+4]
  00003	2b 01		 sub	 eax, DWORD PTR [ecx]
  00005	c1 f8 04	 sar	 eax, 4

; 880  : 		}

  00008	c3		 ret	 0
?size@?$vector@VioHashString@@V?$allocator@VioHashString@@@std@@@std@@QBEIXZ ENDP ; std::vector<ioHashString,std::allocator<ioHashString> >::size
_TEXT	ENDS
PUBLIC	?EncryptValueToPool@?$CEncrypt@M@@AAEXPBD@Z	; CEncrypt<float>::EncryptValueToPool
EXTRN	?EncryptByte@ccddaabb@@QAEXPBDPADH@Z:PROC	; ccddaabb::EncryptByte
; Function compile flags: /Ogsp
; File d:\lost saga for developer\youtube\tutorial\source\src\lsclient\encryptvalue.h
;	COMDAT ?EncryptValueToPool@?$CEncrypt@M@@AAEXPBD@Z
_TEXT	SEGMENT
_value$ = 8						; size = 4
?EncryptValueToPool@?$CEncrypt@M@@AAEXPBD@Z PROC	; CEncrypt<float>::EncryptValueToPool, COMDAT
; _this$ = ecx

; 67   : 	{

  00000	55		 push	 ebp
  00001	8b ec		 mov	 ebp, esp

; 68   : 		m_RC5.EncryptByte( value, m_MemPool, max(m_ValueSize, DEFAULT_ENCRYPT) );

  00003	0f b7 41 06	 movzx	 eax, WORD PTR [ecx+6]
  00007	83 f8 04	 cmp	 eax, 4
  0000a	77 03		 ja	 SHORT $LN4@EncryptVal
  0000c	6a 04		 push	 4
  0000e	58		 pop	 eax
$LN4@EncryptVal:
  0000f	50		 push	 eax
  00010	8d 41 1c	 lea	 eax, DWORD PTR [ecx+28]
  00013	50		 push	 eax
  00014	ff 75 08	 push	 DWORD PTR _value$[ebp]
  00017	83 c1 0c	 add	 ecx, 12			; 0000000cH
  0001a	e8 00 00 00 00	 call	 ?EncryptByte@ccddaabb@@QAEXPBDPADH@Z ; ccddaabb::EncryptByte

; 69   : 		
; 70   : 	}

  0001f	5d		 pop	 ebp
  00020	c2 04 00	 ret	 4
?EncryptValueToPool@?$CEncrypt@M@@AAEXPBD@Z ENDP	; CEncrypt<float>::EncryptValueToPool
_TEXT	ENDS
PUBLIC	?DecryptValueToPool@?$CEncrypt@M@@QAEXPAM@Z	; CEncrypt<float>::DecryptValueToPool
EXTRN	?DecryptByte@ccddaabb@@QBEXPBDPADH@Z:PROC	; ccddaabb::DecryptByte
; Function compile flags: /Ogsp
;	COMDAT ?DecryptValueToPool@?$CEncrypt@M@@QAEXPAM@Z
_TEXT	SEGMENT
_value$ = 8						; size = 4
?DecryptValueToPool@?$CEncrypt@M@@QAEXPAM@Z PROC	; CEncrypt<float>::DecryptValueToPool, COMDAT
; _this$ = ecx

; 1648 : 	{

  00000	55		 push	 ebp
  00001	8b ec		 mov	 ebp, esp
  00003	56		 push	 esi

; 1649 : 		m_RC5.DecryptByte( m_MemPool, m_TempMem, 4 );

  00004	8d 71 28	 lea	 esi, DWORD PTR [ecx+40]
  00007	6a 04		 push	 4
  00009	8d 41 1c	 lea	 eax, DWORD PTR [ecx+28]
  0000c	56		 push	 esi
  0000d	50		 push	 eax
  0000e	83 c1 0c	 add	 ecx, 12			; 0000000cH
  00011	e8 00 00 00 00	 call	 ?DecryptByte@ccddaabb@@QBEXPBDPADH@Z ; ccddaabb::DecryptByte

; 1650 : 		*value = *((float*)m_TempMem);

  00016	d9 06		 fld	 DWORD PTR [esi]
  00018	8b 45 08	 mov	 eax, DWORD PTR _value$[ebp]
  0001b	d9 18		 fstp	 DWORD PTR [eax]
  0001d	5e		 pop	 esi

; 1651 : 	}

  0001e	5d		 pop	 ebp
  0001f	c2 04 00	 ret	 4
?DecryptValueToPool@?$CEncrypt@M@@QAEXPAM@Z ENDP	; CEncrypt<float>::DecryptValueToPool
_TEXT	ENDS
PUBLIC	?DecryptValueToPool@?$CEncrypt@K@@QAEXPAK@Z	; CEncrypt<unsigned long>::DecryptValueToPool
; Function compile flags: /Ogsp
;	COMDAT ?DecryptValueToPool@?$CEncrypt@K@@QAEXPAK@Z
_TEXT	SEGMENT
_value$ = 8						; size = 4
?DecryptValueToPool@?$CEncrypt@K@@QAEXPAK@Z PROC	; CEncrypt<unsigned long>::DecryptValueToPool, COMDAT
; _this$ = ecx

; 1256 : 	{

  00000	55		 push	 ebp
  00001	8b ec		 mov	 ebp, esp
  00003	56		 push	 esi

; 1257 : 		m_RC5.DecryptByte( m_MemPool, m_TempMem, 4 );

  00004	8d 71 28	 lea	 esi, DWORD PTR [ecx+40]
  00007	6a 04		 push	 4
  00009	8d 41 1c	 lea	 eax, DWORD PTR [ecx+28]
  0000c	56		 push	 esi
  0000d	50		 push	 eax
  0000e	83 c1 0c	 add	 ecx, 12			; 0000000cH
  00011	e8 00 00 00 00	 call	 ?DecryptByte@ccddaabb@@QBEXPBDPADH@Z ; ccddaabb::DecryptByte

; 1258 : 		*value = *((DWORD*)m_TempMem);

  00016	8b 06		 mov	 eax, DWORD PTR [esi]
  00018	8b 4d 08	 mov	 ecx, DWORD PTR _value$[ebp]
  0001b	89 01		 mov	 DWORD PTR [ecx], eax
  0001d	5e		 pop	 esi

; 1259 : 	}

  0001e	5d		 pop	 ebp
  0001f	c2 04 00	 ret	 4
?DecryptValueToPool@?$CEncrypt@K@@QAEXPAK@Z ENDP	; CEncrypt<unsigned long>::DecryptValueToPool
_TEXT	ENDS
PUBLIC	?DecryptValueToPool@?$CEncrypt@_N@@QAEXPA_N@Z	; CEncrypt<bool>::DecryptValueToPool
; Function compile flags: /Ogsp
;	COMDAT ?DecryptValueToPool@?$CEncrypt@_N@@QAEXPA_N@Z
_TEXT	SEGMENT
_value$ = 8						; size = 4
?DecryptValueToPool@?$CEncrypt@_N@@QAEXPA_N@Z PROC	; CEncrypt<bool>::DecryptValueToPool, COMDAT
; _this$ = ecx

; 219  : 	{

  00000	55		 push	 ebp
  00001	8b ec		 mov	 ebp, esp
  00003	56		 push	 esi

; 220  : 		m_RC5.DecryptByte( m_MemPool, m_TempMem, 4 );

  00004	8d 71 28	 lea	 esi, DWORD PTR [ecx+40]
  00007	6a 04		 push	 4
  00009	8d 41 1c	 lea	 eax, DWORD PTR [ecx+28]
  0000c	56		 push	 esi
  0000d	50		 push	 eax
  0000e	83 c1 0c	 add	 ecx, 12			; 0000000cH
  00011	e8 00 00 00 00	 call	 ?DecryptByte@ccddaabb@@QBEXPBDPADH@Z ; ccddaabb::DecryptByte

; 221  : 		*value = *((bool*)m_TempMem);

  00016	8a 06		 mov	 al, BYTE PTR [esi]
  00018	8b 4d 08	 mov	 ecx, DWORD PTR _value$[ebp]
  0001b	88 01		 mov	 BYTE PTR [ecx], al
  0001d	5e		 pop	 esi

; 222  : 	}

  0001e	5d		 pop	 ebp
  0001f	c2 04 00	 ret	 4
?DecryptValueToPool@?$CEncrypt@_N@@QAEXPA_N@Z ENDP	; CEncrypt<bool>::DecryptValueToPool
_TEXT	ENDS
PUBLIC	?DecryptValueToPool@?$CEncrypt@W4TeamType@@@@QAEXPAW4TeamType@@@Z ; CEncrypt<enum TeamType>::DecryptValueToPool
; Function compile flags: /Ogsp
;	COMDAT ?DecryptValueToPool@?$CEncrypt@W4TeamType@@@@QAEXPAW4TeamType@@@Z
_TEXT	SEGMENT
_value$ = 8						; size = 4
?DecryptValueToPool@?$CEncrypt@W4TeamType@@@@QAEXPAW4TeamType@@@Z PROC ; CEncrypt<enum TeamType>::DecryptValueToPool, COMDAT
; _this$ = ecx

; 2959 : 	{

  00000	55		 push	 ebp
  00001	8b ec		 mov	 ebp, esp
  00003	56		 push	 esi

; 2960 : 		m_RC5.DecryptByte( m_MemPool, m_TempMem, sizeof(TeamType) );

  00004	8d 71 28	 lea	 esi, DWORD PTR [ecx+40]
  00007	6a 04		 push	 4
  00009	8d 41 1c	 lea	 eax, DWORD PTR [ecx+28]
  0000c	56		 push	 esi
  0000d	50		 push	 eax
  0000e	83 c1 0c	 add	 ecx, 12			; 0000000cH
  00011	e8 00 00 00 00	 call	 ?DecryptByte@ccddaabb@@QBEXPBDPADH@Z ; ccddaabb::DecryptByte

; 2961 : 		*value = *((TeamType*)m_TempMem);

  00016	8b 06		 mov	 eax, DWORD PTR [esi]
  00018	8b 4d 08	 mov	 ecx, DWORD PTR _value$[ebp]
  0001b	89 01		 mov	 DWORD PTR [ecx], eax
  0001d	5e		 pop	 esi

; 2962 : 	}

  0001e	5d		 pop	 ebp
  0001f	c2 04 00	 ret	 4
?DecryptValueToPool@?$CEncrypt@W4TeamType@@@@QAEXPAW4TeamType@@@Z ENDP ; CEncrypt<enum TeamType>::DecryptValueToPool
_TEXT	ENDS
PUBLIC	??0?$_Vector_const_iterator@V?$_Vector_val@VioHashString@@V?$allocator@VioHashString@@@std@@@std@@@std@@QAE@PAVioHashString@@PBU_Container_base0@1@@Z ; std::_Vector_const_iterator<std::_Vector_val<ioHashString,std::allocator<ioHashString> > >::_Vector_const_iterator<std::_Vector_val<ioHashString,std::allocator<ioHashString> > >
; Function compile flags: /Ogsp
; File c:\program files (x86)\microsoft visual studio 10.0\vc\include\vector
;	COMDAT ??0?$_Vector_const_iterator@V?$_Vector_val@VioHashString@@V?$allocator@VioHashString@@@std@@@std@@@std@@QAE@PAVioHashString@@PBU_Container_base0@1@@Z
_TEXT	SEGMENT
__Parg$ = 8						; size = 4
__Pvector$ = 12						; size = 4
??0?$_Vector_const_iterator@V?$_Vector_val@VioHashString@@V?$allocator@VioHashString@@@std@@@std@@@std@@QAE@PAVioHashString@@PBU_Container_base0@1@@Z PROC ; std::_Vector_const_iterator<std::_Vector_val<ioHashString,std::allocator<ioHashString> > >::_Vector_const_iterator<std::_Vector_val<ioHashString,std::allocator<ioHashString> > >, COMDAT
; _this$ = ecx

; 45   : 		{	// construct with pointer _Parg

  00000	55		 push	 ebp
  00001	8b ec		 mov	 ebp, esp
  00003	8b c1		 mov	 eax, ecx
  00005	8b 4d 08	 mov	 ecx, DWORD PTR __Parg$[ebp]
  00008	89 08		 mov	 DWORD PTR [eax], ecx

; 46   : 		this->_Adopt(_Pvector);
; 47   : 		}

  0000a	5d		 pop	 ebp
  0000b	c2 08 00	 ret	 8
??0?$_Vector_const_iterator@V?$_Vector_val@VioHashString@@V?$allocator@VioHashString@@@std@@@std@@@std@@QAE@PAVioHashString@@PBU_Container_base0@1@@Z ENDP ; std::_Vector_const_iterator<std::_Vector_val<ioHashString,std::allocator<ioHashString> > >::_Vector_const_iterator<std::_Vector_val<ioHashString,std::allocator<ioHashString> > >
_TEXT	ENDS
PUBLIC	??0?$_Vector_iterator@V?$_Vector_val@VioHashString@@V?$allocator@VioHashString@@@std@@@std@@@std@@QAE@PAVioHashString@@PBU_Container_base0@1@@Z ; std::_Vector_iterator<std::_Vector_val<ioHashString,std::allocator<ioHashString> > >::_Vector_iterator<std::_Vector_val<ioHashString,std::allocator<ioHashString> > >
; Function compile flags: /Ogsp
;	COMDAT ??0?$_Vector_iterator@V?$_Vector_val@VioHashString@@V?$allocator@VioHashString@@@std@@@std@@@std@@QAE@PAVioHashString@@PBU_Container_base0@1@@Z
_TEXT	SEGMENT
__Parg$ = 8						; size = 4
__Pvector$ = 12						; size = 4
??0?$_Vector_iterator@V?$_Vector_val@VioHashString@@V?$allocator@VioHashString@@@std@@@std@@@std@@QAE@PAVioHashString@@PBU_Container_base0@1@@Z PROC ; std::_Vector_iterator<std::_Vector_val<ioHashString,std::allocator<ioHashString> > >::_Vector_iterator<std::_Vector_val<ioHashString,std::allocator<ioHashString> > >, COMDAT
; _this$ = ecx

; 304  : 		{	// construct with pointer _Parg

  00000	55		 push	 ebp
  00001	8b ec		 mov	 ebp, esp
  00003	8b c1		 mov	 eax, ecx
  00005	8b 4d 08	 mov	 ecx, DWORD PTR __Parg$[ebp]
  00008	89 08		 mov	 DWORD PTR [eax], ecx

; 305  : 		}

  0000a	5d		 pop	 ebp
  0000b	c2 08 00	 ret	 8
??0?$_Vector_iterator@V?$_Vector_val@VioHashString@@V?$allocator@VioHashString@@@std@@@std@@@std@@QAE@PAVioHashString@@PBU_Container_base0@1@@Z ENDP ; std::_Vector_iterator<std::_Vector_val<ioHashString,std::allocator<ioHashString> > >::_Vector_iterator<std::_Vector_val<ioHashString,std::allocator<ioHashString> > >
_TEXT	ENDS
PUBLIC	?_Compat@?$_Vector_const_iterator@V?$_Vector_val@VioHashString@@V?$allocator@VioHashString@@@std@@@std@@@std@@QBEXABV12@@Z ; std::_Vector_const_iterator<std::_Vector_val<ioHashString,std::allocator<ioHashString> > >::_Compat
; Function compile flags: /Ogsp
;	COMDAT ?_Compat@?$_Vector_const_iterator@V?$_Vector_val@VioHashString@@V?$allocator@VioHashString@@@std@@@std@@@std@@QBEXABV12@@Z
_TEXT	SEGMENT
___formal$ = 8						; size = 4
?_Compat@?$_Vector_const_iterator@V?$_Vector_val@VioHashString@@V?$allocator@VioHashString@@@std@@@std@@@std@@QBEXABV12@@Z PROC ; std::_Vector_const_iterator<std::_Vector_val<ioHashString,std::allocator<ioHashString> > >::_Compat, COMDAT
; _this$ = ecx

; 253  : 		}

  00000	c2 04 00	 ret	 4
?_Compat@?$_Vector_const_iterator@V?$_Vector_val@VioHashString@@V?$allocator@VioHashString@@@std@@@std@@@std@@QBEXABV12@@Z ENDP ; std::_Vector_const_iterator<std::_Vector_val<ioHashString,std::allocator<ioHashString> > >::_Compat
_TEXT	ENDS
EXTRN	__imp_??0exception@std@@QAE@ABV01@@Z:PROC
; Function compile flags: /Ogsp
;	COMDAT ??0bad_alloc@std@@QAE@ABV01@@Z
_TEXT	SEGMENT
___that$ = 8						; size = 4
??0bad_alloc@std@@QAE@ABV01@@Z PROC			; std::bad_alloc::bad_alloc, COMDAT
; _this$ = ecx
  00000	55		 push	 ebp
  00001	8b ec		 mov	 ebp, esp
  00003	56		 push	 esi
  00004	ff 75 08	 push	 DWORD PTR ___that$[ebp]
  00007	8b f1		 mov	 esi, ecx
  00009	ff 15 00 00 00
	00		 call	 DWORD PTR __imp_??0exception@std@@QAE@ABV01@@Z
  0000f	c7 06 00 00 00
	00		 mov	 DWORD PTR [esi], OFFSET ??_7bad_alloc@std@@6B@
  00015	8b c6		 mov	 eax, esi
  00017	5e		 pop	 esi
  00018	5d		 pop	 ebp
  00019	c2 04 00	 ret	 4
??0bad_alloc@std@@QAE@ABV01@@Z ENDP			; std::bad_alloc::bad_alloc
_TEXT	ENDS
PUBLIC	??D?$_Vector_const_iterator@V?$_Vector_val@VioHashString@@V?$allocator@VioHashString@@@std@@@std@@@std@@QBEABVioHashString@@XZ ; std::_Vector_const_iterator<std::_Vector_val<ioHashString,std::allocator<ioHashString> > >::operator*
; Function compile flags: /Ogsp
;	COMDAT ??D?$_Vector_const_iterator@V?$_Vector_val@VioHashString@@V?$allocator@VioHashString@@@std@@@std@@@std@@QBEABVioHashString@@XZ
_TEXT	SEGMENT
??D?$_Vector_const_iterator@V?$_Vector_val@VioHashString@@V?$allocator@VioHashString@@@std@@@std@@@std@@QBEABVioHashString@@XZ PROC ; std::_Vector_const_iterator<std::_Vector_val<ioHashString,std::allocator<ioHashString> > >::operator*, COMDAT
; _this$ = ecx

; 64   :  #if _ITERATOR_DEBUG_LEVEL == 2
; 65   : 		if (this->_Getcont() == 0
; 66   : 			|| this->_Ptr == 0
; 67   : 			|| this->_Ptr < ((_Myvec *)this->_Getcont())->_Myfirst
; 68   : 			|| ((_Myvec *)this->_Getcont())->_Mylast <= this->_Ptr)
; 69   : 			{	// report error
; 70   : 			_DEBUG_ERROR("vector iterator not dereferencable");
; 71   : 			_SCL_SECURE_OUT_OF_RANGE;
; 72   : 			}
; 73   : 
; 74   :  #elif _ITERATOR_DEBUG_LEVEL == 1
; 75   : 		_SCL_SECURE_VALIDATE(this->_Getcont() != 0);
; 76   : 		_SCL_SECURE_VALIDATE_RANGE(
; 77   : 			this->_Ptr != 0
; 78   : 			&& ((_Myvec *)this->_Getcont())->_Myfirst <= this->_Ptr
; 79   : 			&& this->_Ptr < ((_Myvec *)this->_Getcont())->_Mylast);
; 80   :  #endif /* _ITERATOR_DEBUG_LEVEL */
; 81   : 
; 82   : 		__analysis_assume(this->_Ptr != 0);
; 83   : 
; 84   : 		return (*this->_Ptr);

  00000	8b 01		 mov	 eax, DWORD PTR [ecx]

; 85   : 		}

  00002	c3		 ret	 0
??D?$_Vector_const_iterator@V?$_Vector_val@VioHashString@@V?$allocator@VioHashString@@@std@@@std@@@std@@QBEABVioHashString@@XZ ENDP ; std::_Vector_const_iterator<std::_Vector_val<ioHashString,std::allocator<ioHashString> > >::operator*
_TEXT	ENDS
PUBLIC	??E?$_Vector_const_iterator@V?$_Vector_val@VioHashString@@V?$allocator@VioHashString@@@std@@@std@@@std@@QAEAAV01@XZ ; std::_Vector_const_iterator<std::_Vector_val<ioHashString,std::allocator<ioHashString> > >::operator++
; Function compile flags: /Ogsp
;	COMDAT ??E?$_Vector_const_iterator@V?$_Vector_val@VioHashString@@V?$allocator@VioHashString@@@std@@@std@@@std@@QAEAAV01@XZ
_TEXT	SEGMENT
??E?$_Vector_const_iterator@V?$_Vector_val@VioHashString@@V?$allocator@VioHashString@@@std@@@std@@@std@@QAEAAV01@XZ PROC ; std::_Vector_const_iterator<std::_Vector_val<ioHashString,std::allocator<ioHashString> > >::operator++, COMDAT
; _this$ = ecx

; 93   : 		{	// preincrement

  00000	8b c1		 mov	 eax, ecx

; 94   :  #if _ITERATOR_DEBUG_LEVEL == 2
; 95   : 		if (this->_Getcont() == 0
; 96   : 			|| this->_Ptr == 0
; 97   : 			|| ((_Myvec *)this->_Getcont())->_Mylast <= this->_Ptr)
; 98   : 			{	// report error
; 99   : 			_DEBUG_ERROR("vector iterator not incrementable");
; 100  : 			_SCL_SECURE_OUT_OF_RANGE;
; 101  : 			}
; 102  : 
; 103  :  #elif _ITERATOR_DEBUG_LEVEL == 1
; 104  : 		_SCL_SECURE_VALIDATE(this->_Getcont() != 0);
; 105  : 		_SCL_SECURE_VALIDATE_RANGE(
; 106  : 			this->_Ptr != 0
; 107  : 			&& this->_Ptr < ((_Myvec *)this->_Getcont())->_Mylast);
; 108  :  #endif /* _ITERATOR_DEBUG_LEVEL */
; 109  : 
; 110  : 		++this->_Ptr;

  00002	83 00 10	 add	 DWORD PTR [eax], 16	; 00000010H

; 111  : 		return (*this);
; 112  : 		}

  00005	c3		 ret	 0
??E?$_Vector_const_iterator@V?$_Vector_val@VioHashString@@V?$allocator@VioHashString@@@std@@@std@@@std@@QAEAAV01@XZ ENDP ; std::_Vector_const_iterator<std::_Vector_val<ioHashString,std::allocator<ioHashString> > >::operator++
_TEXT	ENDS
PUBLIC	??_C@_00CNPNBAHC@?$AA@				; `string'
PUBLIC	?CreateWeapon@ioTargetTrace13Dummy@@IAEPAVioWeapon@@PAVioBaseChar@@ABUD3DXVECTOR3@@KABUDummyTT13AttackInfo@@@Z ; ioTargetTrace13Dummy::CreateWeapon
EXTRN	?ExtendFireExplicit@ioBaseChar@@QAEPAVioWeapon@@ABUFireTime@@ABUD3DXVECTOR3@@1ABVioHashString@@@Z:PROC ; ioBaseChar::ExtendFireExplicit
EXTRN	__imp_??0ioHashString@@QAE@PBD@Z:PROC
EXTRN	__imp_??4ioHashString@@QAEAAV0@PBD@Z:PROC
;	COMDAT ??_C@_00CNPNBAHC@?$AA@
; File d:\lost saga for developer\youtube\tutorial\source\src\lsclient\iotargettrace13dummy.cpp
CONST	SEGMENT
??_C@_00CNPNBAHC@?$AA@ DB 00H				; `string'
CONST	ENDS
;	COMDAT xdata$x
xdata$x	SEGMENT
__unwindtable$?CreateWeapon@ioTargetTrace13Dummy@@IAEPAVioWeapon@@PAVioBaseChar@@ABUD3DXVECTOR3@@KABUDummyTT13AttackInfo@@@Z DD 0ffffffffH
	DD	FLAT:__unwindfunclet$?CreateWeapon@ioTargetTrace13Dummy@@IAEPAVioWeapon@@PAVioBaseChar@@ABUD3DXVECTOR3@@KABUDummyTT13AttackInfo@@@Z$0
	DD	00H
	DD	FLAT:__unwindfunclet$?CreateWeapon@ioTargetTrace13Dummy@@IAEPAVioWeapon@@PAVioBaseChar@@ABUD3DXVECTOR3@@KABUDummyTT13AttackInfo@@@Z$1
__ehfuncinfo$?CreateWeapon@ioTargetTrace13Dummy@@IAEPAVioWeapon@@PAVioBaseChar@@ABUD3DXVECTOR3@@KABUDummyTT13AttackInfo@@@Z DD 019930522H
	DD	02H
	DD	FLAT:__unwindtable$?CreateWeapon@ioTargetTrace13Dummy@@IAEPAVioWeapon@@PAVioBaseChar@@ABUD3DXVECTOR3@@KABUDummyTT13AttackInfo@@@Z
	DD	2 DUP(00H)
	DD	2 DUP(00H)
	DD	00H
	DD	01H
; Function compile flags: /Ogsp
xdata$x	ENDS
;	COMDAT ?CreateWeapon@ioTargetTrace13Dummy@@IAEPAVioWeapon@@PAVioBaseChar@@ABUD3DXVECTOR3@@KABUDummyTT13AttackInfo@@@Z
_TEXT	SEGMENT
_kFireTime$ = -116					; size = 88
$T536321 = -28						; size = 16
__$EHRec$ = -12						; size = 12
_pOwner$ = 8						; size = 4
_vFireDir$ = 12						; size = 4
_dwWeaponBaseIndex$ = 16				; size = 4
_Info$ = 20						; size = 4
?CreateWeapon@ioTargetTrace13Dummy@@IAEPAVioWeapon@@PAVioBaseChar@@ABUD3DXVECTOR3@@KABUDummyTT13AttackInfo@@@Z PROC ; ioTargetTrace13Dummy::CreateWeapon, COMDAT
; _this$ = ecx

; 322  : {

  00000	6a 68		 push	 104			; 00000068H
  00002	b8 00 00 00 00	 mov	 eax, __ehhandler$?CreateWeapon@ioTargetTrace13Dummy@@IAEPAVioWeapon@@PAVioBaseChar@@ABUD3DXVECTOR3@@KABUDummyTT13AttackInfo@@@Z
  00007	e8 00 00 00 00	 call	 __EH_prolog3
  0000c	8b f9		 mov	 edi, ecx

; 323  : 	if ( !pOwner )

  0000e	33 db		 xor	 ebx, ebx
  00010	39 5d 08	 cmp	 DWORD PTR _pOwner$[ebp], ebx
  00013	75 07		 jne	 SHORT $LN1@CreateWeap

; 324  : 		return NULL;

  00015	33 c0		 xor	 eax, eax
  00017	e9 8e 00 00 00	 jmp	 $LN2@CreateWeap
$LN1@CreateWeap:

; 325  : 
; 326  : 	FireTime kFireTime;

  0001c	8d 4d 8c	 lea	 ecx, DWORD PTR _kFireTime$[ebp]
  0001f	e8 00 00 00 00	 call	 ??0FireTime@@QAE@XZ	; FireTime::FireTime
  00024	89 5d fc	 mov	 DWORD PTR __$EHRec$[ebp+8], ebx

; 327  : 	kFireTime.dwStart				= FRAMEGETTIME();

  00027	ff 15 00 00 00
	00		 call	 DWORD PTR __imp_?GetSingleton@ioFrameTimer@@SAAAV1@XZ
  0002d	8b c8		 mov	 ecx, eax
  0002f	ff 15 00 00 00
	00		 call	 DWORD PTR __imp_?GetLoopSec@ioFrameTimer@@QBEKXZ
  00035	89 45 8c	 mov	 DWORD PTR _kFireTime$[ebp], eax

; 328  : 	kFireTime.iAttributeIdx			= Info.m_dwWeaponIndex;

  00038	8b 45 14	 mov	 eax, DWORD PTR _Info$[ebp]
  0003b	8b 00		 mov	 eax, DWORD PTR [eax]

; 329  : 	kFireTime.iResistanceIdx		= 0;
; 330  : 	kFireTime.szWoundedAni			= "";

  0003d	be 00 00 00 00	 mov	 esi, OFFSET ??_C@_00CNPNBAHC@?$AA@
  00042	56		 push	 esi
  00043	8d 4d a0	 lea	 ecx, DWORD PTR _kFireTime$[ebp+20]
  00046	89 45 94	 mov	 DWORD PTR _kFireTime$[ebp+8], eax
  00049	89 5d 98	 mov	 DWORD PTR _kFireTime$[ebp+12], ebx
  0004c	ff 15 00 00 00
	00		 call	 DWORD PTR __imp_??4ioHashString@@QAEAAV0@PBD@Z

; 331  : 	kFireTime.dwWoundedAniDuration	= 0;
; 332  : 	kFireTime.bLoopWoundedAni		= false;
; 333  : 	kFireTime.dwWeaponIdx			= dwWeaponBaseIndex;

  00052	8b 45 10	 mov	 eax, DWORD PTR _dwWeaponBaseIndex$[ebp]

; 334  : 	kFireTime.eFireTimeType			= FTT_DUMMY_CHAR_ATTACK;
; 335  : 
; 336  : 	return pOwner->ExtendFireExplicit( kFireTime, GetWorldPosition(), vFireDir, "" );

  00055	56		 push	 esi
  00056	8d 4d e4	 lea	 ecx, DWORD PTR $T536321[ebp]
  00059	89 5d b0	 mov	 DWORD PTR _kFireTime$[ebp+36], ebx
  0005c	88 5d 9c	 mov	 BYTE PTR _kFireTime$[ebp+16], bl
  0005f	89 45 b4	 mov	 DWORD PTR _kFireTime$[ebp+40], eax
  00062	c7 45 cc 0b 00
	00 00		 mov	 DWORD PTR _kFireTime$[ebp+64], 11 ; 0000000bH
  00069	ff 15 00 00 00
	00		 call	 DWORD PTR __imp_??0ioHashString@@QAE@PBD@Z
  0006f	8d 45 e4	 lea	 eax, DWORD PTR $T536321[ebp]
  00072	50		 push	 eax
  00073	ff 75 0c	 push	 DWORD PTR _vFireDir$[ebp]
  00076	8b 07		 mov	 eax, DWORD PTR [edi]
  00078	8b cf		 mov	 ecx, edi
  0007a	c6 45 fc 01	 mov	 BYTE PTR __$EHRec$[ebp+8], 1
  0007e	ff 50 70	 call	 DWORD PTR [eax+112]
  00081	8b 4d 08	 mov	 ecx, DWORD PTR _pOwner$[ebp]
  00084	50		 push	 eax
  00085	8d 45 8c	 lea	 eax, DWORD PTR _kFireTime$[ebp]
  00088	50		 push	 eax
  00089	e8 00 00 00 00	 call	 ?ExtendFireExplicit@ioBaseChar@@QAEPAVioWeapon@@ABUFireTime@@ABUD3DXVECTOR3@@1ABVioHashString@@@Z ; ioBaseChar::ExtendFireExplicit
  0008e	8d 4d e4	 lea	 ecx, DWORD PTR $T536321[ebp]
  00091	8b f0		 mov	 esi, eax
  00093	88 5d fc	 mov	 BYTE PTR __$EHRec$[ebp+8], bl
  00096	ff 15 00 00 00
	00		 call	 DWORD PTR __imp_??1ioHashString@@QAE@XZ
  0009c	83 4d fc ff	 or	 DWORD PTR __$EHRec$[ebp+8], -1
  000a0	8d 4d 8c	 lea	 ecx, DWORD PTR _kFireTime$[ebp]
  000a3	e8 00 00 00 00	 call	 ??1FireTime@@QAE@XZ
  000a8	8b c6		 mov	 eax, esi
$LN2@CreateWeap:

; 337  : }

  000aa	e8 00 00 00 00	 call	 __EH_epilog3
  000af	c2 10 00	 ret	 16			; 00000010H
_TEXT	ENDS
;	COMDAT text$x
text$x	SEGMENT
__unwindfunclet$?CreateWeapon@ioTargetTrace13Dummy@@IAEPAVioWeapon@@PAVioBaseChar@@ABUD3DXVECTOR3@@KABUDummyTT13AttackInfo@@@Z$0:
  00000	8d 4d 8c	 lea	 ecx, DWORD PTR _kFireTime$[ebp]
  00003	e9 00 00 00 00	 jmp	 ??1FireTime@@QAE@XZ
__unwindfunclet$?CreateWeapon@ioTargetTrace13Dummy@@IAEPAVioWeapon@@PAVioBaseChar@@ABUD3DXVECTOR3@@KABUDummyTT13AttackInfo@@@Z$1:
  00008	8d 4d e4	 lea	 ecx, DWORD PTR $T536321[ebp]
  0000b	ff 25 00 00 00
	00		 jmp	 DWORD PTR __imp_??1ioHashString@@QAE@XZ
__ehhandler$?CreateWeapon@ioTargetTrace13Dummy@@IAEPAVioWeapon@@PAVioBaseChar@@ABUD3DXVECTOR3@@KABUDummyTT13AttackInfo@@@Z:
  00011	8b 54 24 08	 mov	 edx, DWORD PTR [esp+8]
  00015	8d 42 0c	 lea	 eax, DWORD PTR [edx+12]
  00018	8b 4a 88	 mov	 ecx, DWORD PTR [edx-120]
  0001b	33 c8		 xor	 ecx, eax
  0001d	e8 00 00 00 00	 call	 @__security_check_cookie@4
  00022	b8 00 00 00 00	 mov	 eax, OFFSET __ehfuncinfo$?CreateWeapon@ioTargetTrace13Dummy@@IAEPAVioWeapon@@PAVioBaseChar@@ABUD3DXVECTOR3@@KABUDummyTT13AttackInfo@@@Z
  00027	e9 00 00 00 00	 jmp	 ___CxxFrameHandler3
text$x	ENDS
?CreateWeapon@ioTargetTrace13Dummy@@IAEPAVioWeapon@@PAVioBaseChar@@ABUD3DXVECTOR3@@KABUDummyTT13AttackInfo@@@Z ENDP ; ioTargetTrace13Dummy::CreateWeapon
PUBLIC	__real@bf800000
PUBLIC	_pOwner$GSCopy$
PUBLIC	__$ArrayPad$
PUBLIC	?SetOffsetPosAndDir@ioTargetTrace13Dummy@@IAEXPAVioBaseChar@@@Z ; ioTargetTrace13Dummy::SetOffsetPosAndDir
EXTRN	__imp_?UNIT_Y@ioMath@@2UD3DXVECTOR3@@A:BYTE
EXTRN	_D3DXVec3Normalize@8:PROC
EXTRN	__imp_??D@YA?AUD3DXVECTOR3@@ABUD3DXQUATERNION@@ABU0@@Z:PROC
;	COMDAT __real@bf800000
; File c:\program files (x86)\microsoft directx sdk (june 2010)\include\d3dx9math.inl
CONST	SEGMENT
__real@bf800000 DD 0bf800000r			; -1
; Function compile flags: /Ogsp
; File d:\lost saga for developer\youtube\tutorial\source\src\lsclient\iotargettrace13dummy.cpp
CONST	ENDS
;	COMDAT ?SetOffsetPosAndDir@ioTargetTrace13Dummy@@IAEXPAVioBaseChar@@@Z
_TEXT	SEGMENT
_qtOwnerRot$ = -72					; size = 16
_vOnwerPos$ = -56					; size = 12
_pOwner$GSCopy$ = -44					; size = 4
_vSideDir$ = -40					; size = 12
_vDir$ = -28						; size = 12
_v$536349 = -16						; size = 12
$T532561 = -16						; size = 12
$T532558 = -16						; size = 12
__$ArrayPad$ = -4					; size = 4
_pOwner$ = 8						; size = 4
?SetOffsetPosAndDir@ioTargetTrace13Dummy@@IAEXPAVioBaseChar@@@Z PROC ; ioTargetTrace13Dummy::SetOffsetPosAndDir, COMDAT
; _this$ = ecx

; 492  : {

  00000	55		 push	 ebp
  00001	8b ec		 mov	 ebp, esp
  00003	83 ec 48	 sub	 esp, 72			; 00000048H
  00006	a1 00 00 00 00	 mov	 eax, DWORD PTR ___security_cookie
  0000b	33 c5		 xor	 eax, ebp
  0000d	89 45 fc	 mov	 DWORD PTR __$ArrayPad$[ebp], eax
  00010	53		 push	 ebx
  00011	8b d9		 mov	 ebx, ecx
  00013	8b 4d 08	 mov	 ecx, DWORD PTR _pOwner$[ebp]

; 493  : 	if ( !pOwner )
; 494  : 		return;
; 495  : 
; 496  : 	D3DXQUATERNION qtOwnerRot = pOwner->GetWorldOrientation();

  00016	89 4d d4	 mov	 DWORD PTR _pOwner$GSCopy$[ebp], ecx
  00019	85 c9		 test	 ecx, ecx
  0001b	0f 84 a9 01 00
	00		 je	 $LN2@SetOffsetP
  00021	8b 01		 mov	 eax, DWORD PTR [ecx]
  00023	56		 push	 esi
  00024	57		 push	 edi
  00025	ff 50 74	 call	 DWORD PTR [eax+116]

; 497  : 	D3DXVECTOR3 vOnwerPos = pOwner->GetWorldPosition();

  00028	8b 4d d4	 mov	 ecx, DWORD PTR _pOwner$GSCopy$[ebp]
  0002b	8b f0		 mov	 esi, eax
  0002d	8b 01		 mov	 eax, DWORD PTR [ecx]
  0002f	8d 7d b8	 lea	 edi, DWORD PTR _qtOwnerRot$[ebp]
  00032	a5		 movsd
  00033	a5		 movsd
  00034	a5		 movsd
  00035	a5		 movsd
  00036	ff 50 70	 call	 DWORD PTR [eax+112]

; 498  : 
; 499  : 	D3DXVECTOR3 vDir = qtOwnerRot * D3DXVECTOR3( 0.0f, 0.0f, -1.0f );

  00039	0f 57 c0	 xorps	 xmm0, xmm0
  0003c	8b f0		 mov	 esi, eax
  0003e	8d 7d c8	 lea	 edi, DWORD PTR _vOnwerPos$[ebp]
  00041	a5		 movsd
  00042	8d 45 f0	 lea	 eax, DWORD PTR $T532558[ebp]
  00045	50		 push	 eax
  00046	8d 45 b8	 lea	 eax, DWORD PTR _qtOwnerRot$[ebp]
  00049	a5		 movsd
  0004a	50		 push	 eax
  0004b	8d 45 e4	 lea	 eax, DWORD PTR _vDir$[ebp]
  0004e	f3 0f 11 45 f0	 movss	 DWORD PTR $T532558[ebp], xmm0
  00053	f3 0f 11 45 f4	 movss	 DWORD PTR $T532558[ebp+4], xmm0
  00058	f3 0f 10 05 00
	00 00 00	 movss	 xmm0, DWORD PTR __real@bf800000
  00060	50		 push	 eax
  00061	a5		 movsd
  00062	f3 0f 11 45 f8	 movss	 DWORD PTR $T532558[ebp+8], xmm0
  00067	ff 15 00 00 00
	00		 call	 DWORD PTR __imp_??D@YA?AUD3DXVECTOR3@@ABUD3DXQUATERNION@@ABU0@@Z
  0006d	83 c4 0c	 add	 esp, 12			; 0000000cH

; 500  : 	D3DXVec3Normalize( &vDir, &vDir );

  00070	8d 45 e4	 lea	 eax, DWORD PTR _vDir$[ebp]
  00073	50		 push	 eax
  00074	50		 push	 eax
  00075	e8 00 00 00 00	 call	 _D3DXVec3Normalize@8

; 501  : 
; 502  : 	D3DXVECTOR3 vSideDir;
; 503  : 	D3DXVec3Cross( &vSideDir, &ioMath::UNIT_Y, &vDir );

  0007a	f3 0f 10 5d ec	 movss	 xmm3, DWORD PTR _vDir$[ebp+8]
  0007f	a1 00 00 00 00	 mov	 eax, DWORD PTR __imp_?UNIT_Y@ioMath@@2UD3DXVECTOR3@@A
  00084	f3 0f 10 40 04	 movss	 xmm0, DWORD PTR [eax+4]
  00089	f3 0f 10 48 08	 movss	 xmm1, DWORD PTR [eax+8]
  0008e	f3 0f 10 65 e8	 movss	 xmm4, DWORD PTR _vDir$[ebp+4]
  00093	0f 5a d0	 cvtps2pd xmm2, xmm0
  00096	0f 5a db	 cvtps2pd xmm3, xmm3
  00099	f2 0f 59 d3	 mulsd	 xmm2, xmm3
  0009d	0f 5a e4	 cvtps2pd xmm4, xmm4
  000a0	0f 5a c0	 cvtps2pd xmm0, xmm0
  000a3	8d 75 f0	 lea	 esi, DWORD PTR _v$536349[ebp]
  000a6	8d 7d d8	 lea	 edi, DWORD PTR _vSideDir$[ebp]
  000a9	0f 5a d9	 cvtps2pd xmm3, xmm1
  000ac	f2 0f 59 dc	 mulsd	 xmm3, xmm4
  000b0	f3 0f 10 65 ec	 movss	 xmm4, DWORD PTR _vDir$[ebp+8]
  000b5	f2 0f 5c d3	 subsd	 xmm2, xmm3
  000b9	f3 0f 10 5d e4	 movss	 xmm3, DWORD PTR _vDir$[ebp]
  000be	0f 5a db	 cvtps2pd xmm3, xmm3
  000c1	66 0f 5a d2	 cvtpd2ps xmm2, xmm2
  000c5	f3 0f 11 55 f0	 movss	 DWORD PTR _v$536349[ebp], xmm2
  000ca	f3 0f 10 10	 movss	 xmm2, DWORD PTR [eax]
  000ce	0f 5a c9	 cvtps2pd xmm1, xmm1
  000d1	f2 0f 59 cb	 mulsd	 xmm1, xmm3
  000d5	0f 5a da	 cvtps2pd xmm3, xmm2
  000d8	0f 5a e4	 cvtps2pd xmm4, xmm4
  000db	f2 0f 59 dc	 mulsd	 xmm3, xmm4
  000df	f2 0f 5c cb	 subsd	 xmm1, xmm3
  000e3	66 0f 5a c9	 cvtpd2ps xmm1, xmm1
  000e7	f3 0f 11 4d f4	 movss	 DWORD PTR _v$536349[ebp+4], xmm1

; 504  : 	D3DXVec3Normalize( &vSideDir, &vSideDir );

  000ec	8d 45 d8	 lea	 eax, DWORD PTR _vSideDir$[ebp]
  000ef	50		 push	 eax
  000f0	50		 push	 eax
  000f1	0f 5a ca	 cvtps2pd xmm1, xmm2
  000f4	f3 0f 10 55 e8	 movss	 xmm2, DWORD PTR _vDir$[ebp+4]
  000f9	0f 5a d2	 cvtps2pd xmm2, xmm2
  000fc	f2 0f 59 ca	 mulsd	 xmm1, xmm2
  00100	f3 0f 10 55 e4	 movss	 xmm2, DWORD PTR _vDir$[ebp]
  00105	0f 5a d2	 cvtps2pd xmm2, xmm2
  00108	f2 0f 59 c2	 mulsd	 xmm0, xmm2
  0010c	f2 0f 5c c8	 subsd	 xmm1, xmm0
  00110	0f 57 c0	 xorps	 xmm0, xmm0
  00113	66 0f 5a c1	 cvtpd2ps xmm0, xmm1
  00117	f3 0f 11 45 f8	 movss	 DWORD PTR _v$536349[ebp+8], xmm0
  0011c	a5		 movsd
  0011d	a5		 movsd
  0011e	a5		 movsd
  0011f	e8 00 00 00 00	 call	 _D3DXVec3Normalize@8

; 505  : 
; 506  : 	m_vOffsetPos = vOnwerPos;
; 507  : 	m_vOffsetPos.y += m_fAddOffSetHeight;

  00124	f3 0f 10 83 c0
	14 00 00	 movss	 xmm0, DWORD PTR [ebx+5312]

; 508  : 
; 509  : 	m_vMoveDir = m_vOffsetPos - GetWorldPosition();

  0012c	8b 03		 mov	 eax, DWORD PTR [ebx]
  0012e	8d bb cc 14 00
	00		 lea	 edi, DWORD PTR [ebx+5324]
  00134	8d 75 c8	 lea	 esi, DWORD PTR _vOnwerPos$[ebp]
  00137	a5		 movsd
  00138	a5		 movsd
  00139	a5		 movsd
  0013a	f3 0f 10 8b d0
	14 00 00	 movss	 xmm1, DWORD PTR [ebx+5328]
  00142	0f 5a c0	 cvtps2pd xmm0, xmm0
  00145	0f 5a c9	 cvtps2pd xmm1, xmm1
  00148	f2 0f 58 c1	 addsd	 xmm0, xmm1
  0014c	66 0f 5a c0	 cvtpd2ps xmm0, xmm0
  00150	8b cb		 mov	 ecx, ebx
  00152	f3 0f 11 83 d0
	14 00 00	 movss	 DWORD PTR [ebx+5328], xmm0
  0015a	ff 50 70	 call	 DWORD PTR [eax+112]
  0015d	f3 0f 10 83 cc
	14 00 00	 movss	 xmm0, DWORD PTR [ebx+5324]
  00165	f3 0f 10 08	 movss	 xmm1, DWORD PTR [eax]
  00169	0f 5a c0	 cvtps2pd xmm0, xmm0
  0016c	0f 5a c9	 cvtps2pd xmm1, xmm1
  0016f	f2 0f 5c c1	 subsd	 xmm0, xmm1
  00173	f3 0f 10 48 04	 movss	 xmm1, DWORD PTR [eax+4]
  00178	66 0f 5a c0	 cvtpd2ps xmm0, xmm0
  0017c	f3 0f 11 45 f0	 movss	 DWORD PTR $T532561[ebp], xmm0
  00181	f3 0f 10 83 d0
	14 00 00	 movss	 xmm0, DWORD PTR [ebx+5328]
  00189	0f 5a c0	 cvtps2pd xmm0, xmm0
  0018c	0f 5a c9	 cvtps2pd xmm1, xmm1
  0018f	f2 0f 5c c1	 subsd	 xmm0, xmm1
  00193	f3 0f 10 48 08	 movss	 xmm1, DWORD PTR [eax+8]
  00198	66 0f 5a c0	 cvtpd2ps xmm0, xmm0
  0019c	f3 0f 11 45 f4	 movss	 DWORD PTR $T532561[ebp+4], xmm0
  001a1	f3 0f 10 83 d4
	14 00 00	 movss	 xmm0, DWORD PTR [ebx+5332]
  001a9	0f 5a c0	 cvtps2pd xmm0, xmm0
  001ac	0f 5a c9	 cvtps2pd xmm1, xmm1
  001af	f2 0f 5c c1	 subsd	 xmm0, xmm1
  001b3	66 0f 5a c0	 cvtpd2ps xmm0, xmm0
  001b7	f3 0f 11 45 f8	 movss	 DWORD PTR $T532561[ebp+8], xmm0
  001bc	8d bb d8 14 00
	00		 lea	 edi, DWORD PTR [ebx+5336]
  001c2	8d 75 f0	 lea	 esi, DWORD PTR $T532561[ebp]
  001c5	a5		 movsd
  001c6	a5		 movsd
  001c7	a5		 movsd
  001c8	5f		 pop	 edi
  001c9	5e		 pop	 esi
$LN2@SetOffsetP:

; 510  : }

  001ca	8b 4d fc	 mov	 ecx, DWORD PTR __$ArrayPad$[ebp]
  001cd	33 cd		 xor	 ecx, ebp
  001cf	5b		 pop	 ebx
  001d0	e8 00 00 00 00	 call	 @__security_check_cookie@4
  001d5	c9		 leave
  001d6	c2 04 00	 ret	 4
?SetOffsetPosAndDir@ioTargetTrace13Dummy@@IAEXPAVioBaseChar@@@Z ENDP ; ioTargetTrace13Dummy::SetOffsetPosAndDir
_TEXT	ENDS
PUBLIC	??D?$CEncrypt@M@@QAEMABM@Z			; CEncrypt<float>::operator*
; Function compile flags: /Ogsp
; File d:\lost saga for developer\youtube\tutorial\source\src\lsclient\encryptvalue.h
;	COMDAT ??D?$CEncrypt@M@@QAEMABM@Z
_TEXT	SEGMENT
_value$ = -4						; size = 4
tv130 = 8						; size = 4
_inValue$ = 8						; size = 4
??D?$CEncrypt@M@@QAEMABM@Z PROC				; CEncrypt<float>::operator*, COMDAT
; _this$ = ecx

; 1685 : 	{	

  00000	55		 push	 ebp
  00001	8b ec		 mov	 ebp, esp
  00003	51		 push	 ecx

; 1686 : 		type value;
; 1687 : 		DecryptValueToPool(&value);

  00004	8d 45 fc	 lea	 eax, DWORD PTR _value$[ebp]
  00007	50		 push	 eax
  00008	e8 00 00 00 00	 call	 ?DecryptValueToPool@?$CEncrypt@M@@QAEXPAM@Z ; CEncrypt<float>::DecryptValueToPool

; 1688 : #ifdef _NOTUSE
; 1689 : 		Debug();
; 1690 : #endif
; 1691 : 		return value * inValue;

  0000d	8b 45 08	 mov	 eax, DWORD PTR _inValue$[ebp]
  00010	d9 00		 fld	 DWORD PTR [eax]
  00012	d8 4d fc	 fmul	 DWORD PTR _value$[ebp]
  00015	d9 5d 08	 fstp	 DWORD PTR tv130[ebp]
  00018	d9 45 08	 fld	 DWORD PTR tv130[ebp]

; 1692 : 	}

  0001b	c9		 leave
  0001c	c2 04 00	 ret	 4
??D?$CEncrypt@M@@QAEMABM@Z ENDP				; CEncrypt<float>::operator*
_TEXT	ENDS
PUBLIC	??K?$CEncrypt@M@@QAEMABM@Z			; CEncrypt<float>::operator/
; Function compile flags: /Ogsp
;	COMDAT ??K?$CEncrypt@M@@QAEMABM@Z
_TEXT	SEGMENT
_value$ = -4						; size = 4
tv130 = 8						; size = 4
_inValue$ = 8						; size = 4
??K?$CEncrypt@M@@QAEMABM@Z PROC				; CEncrypt<float>::operator/, COMDAT
; _this$ = ecx

; 1695 : 	{

  00000	55		 push	 ebp
  00001	8b ec		 mov	 ebp, esp
  00003	51		 push	 ecx

; 1696 : 		type value;
; 1697 : 		DecryptValueToPool(&value);

  00004	8d 45 fc	 lea	 eax, DWORD PTR _value$[ebp]
  00007	50		 push	 eax
  00008	e8 00 00 00 00	 call	 ?DecryptValueToPool@?$CEncrypt@M@@QAEXPAM@Z ; CEncrypt<float>::DecryptValueToPool

; 1698 : #ifdef _NOTUSE
; 1699 : 		Debug();
; 1700 : #endif
; 1701 : 		return value / inValue;

  0000d	d9 45 fc	 fld	 DWORD PTR _value$[ebp]
  00010	8b 45 08	 mov	 eax, DWORD PTR _inValue$[ebp]
  00013	d8 30		 fdiv	 DWORD PTR [eax]
  00015	d9 5d 08	 fstp	 DWORD PTR tv130[ebp]
  00018	d9 45 08	 fld	 DWORD PTR tv130[ebp]

; 1702 : 	}

  0001b	c9		 leave
  0001c	c2 04 00	 ret	 4
??K?$CEncrypt@M@@QAEMABM@Z ENDP				; CEncrypt<float>::operator/
_TEXT	ENDS
PUBLIC	??9?$CEncrypt@M@@QAE_NABM@Z			; CEncrypt<float>::operator!=
; Function compile flags: /Ogsp
;	COMDAT ??9?$CEncrypt@M@@QAE_NABM@Z
_TEXT	SEGMENT
_value$ = -4						; size = 4
_inValue$ = 8						; size = 4
??9?$CEncrypt@M@@QAE_NABM@Z PROC			; CEncrypt<float>::operator!=, COMDAT
; _this$ = ecx

; 1801 : 	{

  00000	55		 push	 ebp
  00001	8b ec		 mov	 ebp, esp
  00003	51		 push	 ecx

; 1802 : 		type value;
; 1803 : 		DecryptValueToPool(&value);

  00004	8d 45 fc	 lea	 eax, DWORD PTR _value$[ebp]
  00007	50		 push	 eax
  00008	e8 00 00 00 00	 call	 ?DecryptValueToPool@?$CEncrypt@M@@QAEXPAM@Z ; CEncrypt<float>::DecryptValueToPool

; 1804 : #ifdef _NOTUSE
; 1805 : 		Debug();
; 1806 : #endif
; 1807 : 		return (value != inValue);

  0000d	8b 45 08	 mov	 eax, DWORD PTR _inValue$[ebp]
  00010	f3 0f 10 08	 movss	 xmm1, DWORD PTR [eax]
  00014	f3 0f 10 45 fc	 movss	 xmm0, DWORD PTR _value$[ebp]
  00019	0f 5a c0	 cvtps2pd xmm0, xmm0
  0001c	0f 5a c9	 cvtps2pd xmm1, xmm1
  0001f	66 0f 2e c1	 ucomisd xmm0, xmm1
  00023	9f		 lahf
  00024	f6 c4 44	 test	 ah, 68			; 00000044H
  00027	7b 05		 jnp	 SHORT $LN3@operator
  00029	33 c0		 xor	 eax, eax
  0002b	40		 inc	 eax
  0002c	eb 02		 jmp	 SHORT $LN4@operator
$LN3@operator:
  0002e	33 c0		 xor	 eax, eax
$LN4@operator:

; 1808 : 	} 		

  00030	c9		 leave
  00031	c2 04 00	 ret	 4
??9?$CEncrypt@M@@QAE_NABM@Z ENDP			; CEncrypt<float>::operator!=
_TEXT	ENDS
PUBLIC	??O?$CEncrypt@K@@QAE_NABH@Z			; CEncrypt<unsigned long>::operator>
; Function compile flags: /Ogsp
;	COMDAT ??O?$CEncrypt@K@@QAE_NABH@Z
_TEXT	SEGMENT
_value$ = -4						; size = 4
_inValue$ = 8						; size = 4
??O?$CEncrypt@K@@QAE_NABH@Z PROC			; CEncrypt<unsigned long>::operator>, COMDAT
; _this$ = ecx

; 1009 : 	{

  00000	55		 push	 ebp
  00001	8b ec		 mov	 ebp, esp
  00003	51		 push	 ecx

; 1010 : 		
; 1011 : 		type value;
; 1012 : 		DecryptValueToPool(&value);

  00004	8d 45 fc	 lea	 eax, DWORD PTR _value$[ebp]
  00007	50		 push	 eax
  00008	e8 00 00 00 00	 call	 ?DecryptValueToPool@?$CEncrypt@K@@QAEXPAK@Z ; CEncrypt<unsigned long>::DecryptValueToPool

; 1013 : #ifdef _NOTUSE
; 1014 : 		Debug();
; 1015 : #endif
; 1016 : 		return (value > inValue);

  0000d	8b 45 08	 mov	 eax, DWORD PTR _inValue$[ebp]
  00010	8b 00		 mov	 eax, DWORD PTR [eax]
  00012	3b 45 fc	 cmp	 eax, DWORD PTR _value$[ebp]
  00015	1b c0		 sbb	 eax, eax
  00017	f7 d8		 neg	 eax

; 1017 : 	}		

  00019	c9		 leave
  0001a	c2 04 00	 ret	 4
??O?$CEncrypt@K@@QAE_NABH@Z ENDP			; CEncrypt<unsigned long>::operator>
_TEXT	ENDS
PUBLIC	??O?$CEncrypt@K@@QAE_NABK@Z			; CEncrypt<unsigned long>::operator>
; Function compile flags: /Ogsp
;	COMDAT ??O?$CEncrypt@K@@QAE_NABK@Z
_TEXT	SEGMENT
_value$ = -4						; size = 4
_inValue$ = 8						; size = 4
??O?$CEncrypt@K@@QAE_NABK@Z PROC			; CEncrypt<unsigned long>::operator>, COMDAT
; _this$ = ecx

; 1421 : 	{

  00000	55		 push	 ebp
  00001	8b ec		 mov	 ebp, esp
  00003	51		 push	 ecx

; 1422 : 		type value;
; 1423 : 		DecryptValueToPool(&value);

  00004	8d 45 fc	 lea	 eax, DWORD PTR _value$[ebp]
  00007	50		 push	 eax
  00008	e8 00 00 00 00	 call	 ?DecryptValueToPool@?$CEncrypt@K@@QAEXPAK@Z ; CEncrypt<unsigned long>::DecryptValueToPool

; 1424 : #ifdef _NOTUSE
; 1425 : 		Debug();
; 1426 : #endif
; 1427 : 		return (value > inValue);

  0000d	8b 45 08	 mov	 eax, DWORD PTR _inValue$[ebp]
  00010	8b 00		 mov	 eax, DWORD PTR [eax]
  00012	3b 45 fc	 cmp	 eax, DWORD PTR _value$[ebp]
  00015	1b c0		 sbb	 eax, eax
  00017	f7 d8		 neg	 eax

; 1428 : 	}		

  00019	c9		 leave
  0001a	c2 04 00	 ret	 4
??O?$CEncrypt@K@@QAE_NABK@Z ENDP			; CEncrypt<unsigned long>::operator>
_TEXT	ENDS
PUBLIC	?begin@?$vector@PAVioBaseChar@@V?$allocator@PAVioBaseChar@@@std@@@std@@QBE?AV?$_Vector_const_iterator@V?$_Vector_val@PAVioBaseChar@@V?$allocator@PAVioBaseChar@@@std@@@std@@@2@XZ ; std::vector<ioBaseChar *,std::allocator<ioBaseChar *> >::begin
; Function compile flags: /Ogsp
; File c:\program files (x86)\microsoft visual studio 10.0\vc\include\vector
;	COMDAT ?begin@?$vector@PAVioBaseChar@@V?$allocator@PAVioBaseChar@@@std@@@std@@QBE?AV?$_Vector_const_iterator@V?$_Vector_val@PAVioBaseChar@@V?$allocator@PAVioBaseChar@@@std@@@std@@@2@XZ
_TEXT	SEGMENT
___$ReturnUdt$ = 8					; size = 4
?begin@?$vector@PAVioBaseChar@@V?$allocator@PAVioBaseChar@@@std@@@std@@QBE?AV?$_Vector_const_iterator@V?$_Vector_val@PAVioBaseChar@@V?$allocator@PAVioBaseChar@@@std@@@std@@@2@XZ PROC ; std::vector<ioBaseChar *,std::allocator<ioBaseChar *> >::begin, COMDAT
; _this$ = ecx

; 786  : 		{	// return iterator for beginning of nonmutable sequence

  00000	55		 push	 ebp
  00001	8b ec		 mov	 ebp, esp

; 787  : 		return (const_iterator(this->_Myfirst, this));

  00003	8b 09		 mov	 ecx, DWORD PTR [ecx]
  00005	8b 45 08	 mov	 eax, DWORD PTR ___$ReturnUdt$[ebp]
  00008	89 08		 mov	 DWORD PTR [eax], ecx

; 788  : 		}

  0000a	5d		 pop	 ebp
  0000b	c2 04 00	 ret	 4
?begin@?$vector@PAVioBaseChar@@V?$allocator@PAVioBaseChar@@@std@@@std@@QBE?AV?$_Vector_const_iterator@V?$_Vector_val@PAVioBaseChar@@V?$allocator@PAVioBaseChar@@@std@@@std@@@2@XZ ENDP ; std::vector<ioBaseChar *,std::allocator<ioBaseChar *> >::begin
_TEXT	ENDS
PUBLIC	?end@?$vector@PAVioBaseChar@@V?$allocator@PAVioBaseChar@@@std@@@std@@QBE?AV?$_Vector_const_iterator@V?$_Vector_val@PAVioBaseChar@@V?$allocator@PAVioBaseChar@@@std@@@std@@@2@XZ ; std::vector<ioBaseChar *,std::allocator<ioBaseChar *> >::end
; Function compile flags: /Ogsp
;	COMDAT ?end@?$vector@PAVioBaseChar@@V?$allocator@PAVioBaseChar@@@std@@@std@@QBE?AV?$_Vector_const_iterator@V?$_Vector_val@PAVioBaseChar@@V?$allocator@PAVioBaseChar@@@std@@@std@@@2@XZ
_TEXT	SEGMENT
___$ReturnUdt$ = 8					; size = 4
?end@?$vector@PAVioBaseChar@@V?$allocator@PAVioBaseChar@@@std@@@std@@QBE?AV?$_Vector_const_iterator@V?$_Vector_val@PAVioBaseChar@@V?$allocator@PAVioBaseChar@@@std@@@std@@@2@XZ PROC ; std::vector<ioBaseChar *,std::allocator<ioBaseChar *> >::end, COMDAT
; _this$ = ecx

; 796  : 		{	// return iterator for end of nonmutable sequence

  00000	55		 push	 ebp
  00001	8b ec		 mov	 ebp, esp

; 797  : 		return (const_iterator(this->_Mylast, this));

  00003	8b 49 04	 mov	 ecx, DWORD PTR [ecx+4]
  00006	8b 45 08	 mov	 eax, DWORD PTR ___$ReturnUdt$[ebp]
  00009	89 08		 mov	 DWORD PTR [eax], ecx

; 798  : 		}

  0000b	5d		 pop	 ebp
  0000c	c2 04 00	 ret	 4
?end@?$vector@PAVioBaseChar@@V?$allocator@PAVioBaseChar@@@std@@@std@@QBE?AV?$_Vector_const_iterator@V?$_Vector_val@PAVioBaseChar@@V?$allocator@PAVioBaseChar@@@std@@@std@@@2@XZ ENDP ; std::vector<ioBaseChar *,std::allocator<ioBaseChar *> >::end
_TEXT	ENDS
PUBLIC	??D?$_Vector_iterator@V?$_Vector_val@VioHashString@@V?$allocator@VioHashString@@@std@@@std@@@std@@QBEAAVioHashString@@XZ ; std::_Vector_iterator<std::_Vector_val<ioHashString,std::allocator<ioHashString> > >::operator*
; Function compile flags: /Ogsp
;	COMDAT ??D?$_Vector_iterator@V?$_Vector_val@VioHashString@@V?$allocator@VioHashString@@@std@@@std@@@std@@QBEAAVioHashString@@XZ
_TEXT	SEGMENT
??D?$_Vector_iterator@V?$_Vector_val@VioHashString@@V?$allocator@VioHashString@@@std@@@std@@@std@@QBEAAVioHashString@@XZ PROC ; std::_Vector_iterator<std::_Vector_val<ioHashString,std::allocator<ioHashString> > >::operator*, COMDAT
; _this$ = ecx

; 322  : 		return ((reference)**(_Mybase *)this);

  00000	8b 01		 mov	 eax, DWORD PTR [ecx]

; 323  : 		}

  00002	c3		 ret	 0
??D?$_Vector_iterator@V?$_Vector_val@VioHashString@@V?$allocator@VioHashString@@@std@@@std@@@std@@QBEAAVioHashString@@XZ ENDP ; std::_Vector_iterator<std::_Vector_val<ioHashString,std::allocator<ioHashString> > >::operator*
_TEXT	ENDS
PUBLIC	??E?$_Vector_iterator@V?$_Vector_val@VioHashString@@V?$allocator@VioHashString@@@std@@@std@@@std@@QAEAAV01@XZ ; std::_Vector_iterator<std::_Vector_val<ioHashString,std::allocator<ioHashString> > >::operator++
; Function compile flags: /Ogsp
;	COMDAT ??E?$_Vector_iterator@V?$_Vector_val@VioHashString@@V?$allocator@VioHashString@@@std@@@std@@@std@@QAEAAV01@XZ
_TEXT	SEGMENT
??E?$_Vector_iterator@V?$_Vector_val@VioHashString@@V?$allocator@VioHashString@@@std@@@std@@@std@@QAEAAV01@XZ PROC ; std::_Vector_iterator<std::_Vector_val<ioHashString,std::allocator<ioHashString> > >::operator++, COMDAT
; _this$ = ecx

; 331  : 		{	// preincrement

  00000	8b c1		 mov	 eax, ecx

; 332  : 		++*(_Mybase *)this;

  00002	83 00 10	 add	 DWORD PTR [eax], 16	; 00000010H

; 333  : 		return (*this);
; 334  : 		}

  00005	c3		 ret	 0
??E?$_Vector_iterator@V?$_Vector_val@VioHashString@@V?$allocator@VioHashString@@@std@@@std@@@std@@QAEAAV01@XZ ENDP ; std::_Vector_iterator<std::_Vector_val<ioHashString,std::allocator<ioHashString> > >::operator++
_TEXT	ENDS
PUBLIC	??E?$_List_iterator@V?$_List_val@UFireTime@@V?$allocator@UFireTime@@@std@@@std@@@std@@QAEAAV01@XZ ; std::_List_iterator<std::_List_val<FireTime,std::allocator<FireTime> > >::operator++
; Function compile flags: /Ogsp
; File c:\program files (x86)\microsoft visual studio 10.0\vc\include\list
;	COMDAT ??E?$_List_iterator@V?$_List_val@UFireTime@@V?$allocator@UFireTime@@@std@@@std@@@std@@QAEAAV01@XZ
_TEXT	SEGMENT
??E?$_List_iterator@V?$_List_val@UFireTime@@V?$allocator@UFireTime@@@std@@@std@@@std@@QAEAAV01@XZ PROC ; std::_List_iterator<std::_List_val<FireTime,std::allocator<FireTime> > >::operator++, COMDAT
; _this$ = ecx

; 369  : 		{	// preincrement

  00000	8b c1		 mov	 eax, ecx

; 370  : 		++(*(_Mybase *)this);

  00002	8b 08		 mov	 ecx, DWORD PTR [eax]
  00004	8b 09		 mov	 ecx, DWORD PTR [ecx]
  00006	89 08		 mov	 DWORD PTR [eax], ecx

; 371  : 		return (*this);
; 372  : 		}

  00008	c3		 ret	 0
??E?$_List_iterator@V?$_List_val@UFireTime@@V?$allocator@UFireTime@@@std@@@std@@@std@@QAEAAV01@XZ ENDP ; std::_List_iterator<std::_List_val<FireTime,std::allocator<FireTime> > >::operator++
_TEXT	ENDS
PUBLIC	??9?$_List_const_iterator@V?$_List_val@UFireTime@@V?$allocator@UFireTime@@@std@@@std@@@std@@QBE_NABV01@@Z ; std::_List_const_iterator<std::_List_val<FireTime,std::allocator<FireTime> > >::operator!=
; Function compile flags: /Ogsp
;	COMDAT ??9?$_List_const_iterator@V?$_List_val@UFireTime@@V?$allocator@UFireTime@@@std@@@std@@@std@@QBE_NABV01@@Z
_TEXT	SEGMENT
__Right$ = 8						; size = 4
??9?$_List_const_iterator@V?$_List_val@UFireTime@@V?$allocator@UFireTime@@@std@@@std@@@std@@QBE_NABV01@@Z PROC ; std::_List_const_iterator<std::_List_val<FireTime,std::allocator<FireTime> > >::operator!=, COMDAT
; _this$ = ecx

; 299  : 		{	// test for iterator inequality

  00000	55		 push	 ebp
  00001	8b ec		 mov	 ebp, esp

; 300  : 		return (!(*this == _Right));

  00003	8b 01		 mov	 eax, DWORD PTR [ecx]
  00005	8b 55 08	 mov	 edx, DWORD PTR __Right$[ebp]
  00008	33 c9		 xor	 ecx, ecx
  0000a	3b 02		 cmp	 eax, DWORD PTR [edx]
  0000c	0f 95 c0	 setne	 al

; 301  : 		}

  0000f	5d		 pop	 ebp
  00010	c2 04 00	 ret	 4
??9?$_List_const_iterator@V?$_List_val@UFireTime@@V?$allocator@UFireTime@@@std@@@std@@@std@@QBE_NABV01@@Z ENDP ; std::_List_const_iterator<std::_List_val<FireTime,std::allocator<FireTime> > >::operator!=
_TEXT	ENDS
PUBLIC	??0?$_Vector_val@UDummyTT13AttackInfo@@V?$allocator@UDummyTT13AttackInfo@@@std@@@std@@QAE@V?$allocator@UDummyTT13AttackInfo@@@1@@Z ; std::_Vector_val<DummyTT13AttackInfo,std::allocator<DummyTT13AttackInfo> >::_Vector_val<DummyTT13AttackInfo,std::allocator<DummyTT13AttackInfo> >
; Function compile flags: /Ogsp
; File c:\program files (x86)\microsoft visual studio 10.0\vc\include\vector
;	COMDAT ??0?$_Vector_val@UDummyTT13AttackInfo@@V?$allocator@UDummyTT13AttackInfo@@@std@@@std@@QAE@V?$allocator@UDummyTT13AttackInfo@@@1@@Z
_TEXT	SEGMENT
__Al$ = 8						; size = 1
??0?$_Vector_val@UDummyTT13AttackInfo@@V?$allocator@UDummyTT13AttackInfo@@@std@@@std@@QAE@V?$allocator@UDummyTT13AttackInfo@@@1@@Z PROC ; std::_Vector_val<DummyTT13AttackInfo,std::allocator<DummyTT13AttackInfo> >::_Vector_val<DummyTT13AttackInfo,std::allocator<DummyTT13AttackInfo> >, COMDAT
; _this$ = ecx

; 426  : 		{	// construct allocator from _Al

  00000	8b c1		 mov	 eax, ecx

; 427  : 		_Myfirst = 0;

  00002	33 c9		 xor	 ecx, ecx
  00004	89 08		 mov	 DWORD PTR [eax], ecx

; 428  : 		_Mylast = 0;

  00006	89 48 04	 mov	 DWORD PTR [eax+4], ecx

; 429  : 		_Myend = 0;

  00009	89 48 08	 mov	 DWORD PTR [eax+8], ecx

; 430  : 		}

  0000c	c2 04 00	 ret	 4
??0?$_Vector_val@UDummyTT13AttackInfo@@V?$allocator@UDummyTT13AttackInfo@@@std@@@std@@QAE@V?$allocator@UDummyTT13AttackInfo@@@1@@Z ENDP ; std::_Vector_val<DummyTT13AttackInfo,std::allocator<DummyTT13AttackInfo> >::_Vector_val<DummyTT13AttackInfo,std::allocator<DummyTT13AttackInfo> >
_TEXT	ENDS
PUBLIC	??8?$_Vector_const_iterator@V?$_Vector_val@UDummyTT13AttackInfo@@V?$allocator@UDummyTT13AttackInfo@@@std@@@std@@@std@@QBE_NABV01@@Z ; std::_Vector_const_iterator<std::_Vector_val<DummyTT13AttackInfo,std::allocator<DummyTT13AttackInfo> > >::operator==
; Function compile flags: /Ogsp
;	COMDAT ??8?$_Vector_const_iterator@V?$_Vector_val@UDummyTT13AttackInfo@@V?$allocator@UDummyTT13AttackInfo@@@std@@@std@@@std@@QBE_NABV01@@Z
_TEXT	SEGMENT
__Right$ = 8						; size = 4
??8?$_Vector_const_iterator@V?$_Vector_val@UDummyTT13AttackInfo@@V?$allocator@UDummyTT13AttackInfo@@@std@@@std@@@std@@QBE_NABV01@@Z PROC ; std::_Vector_const_iterator<std::_Vector_val<DummyTT13AttackInfo,std::allocator<DummyTT13AttackInfo> > >::operator==, COMDAT
; _this$ = ecx

; 201  : 		{	// test for iterator equality

  00000	55		 push	 ebp
  00001	8b ec		 mov	 ebp, esp

; 202  : 		_Compat(_Right);
; 203  : 		return (this->_Ptr == _Right._Ptr);

  00003	8b 01		 mov	 eax, DWORD PTR [ecx]
  00005	8b 4d 08	 mov	 ecx, DWORD PTR __Right$[ebp]
  00008	2b 01		 sub	 eax, DWORD PTR [ecx]
  0000a	f7 d8		 neg	 eax
  0000c	1b c0		 sbb	 eax, eax
  0000e	40		 inc	 eax

; 204  : 		}

  0000f	5d		 pop	 ebp
  00010	c2 04 00	 ret	 4
??8?$_Vector_const_iterator@V?$_Vector_val@UDummyTT13AttackInfo@@V?$allocator@UDummyTT13AttackInfo@@@std@@@std@@@std@@QBE_NABV01@@Z ENDP ; std::_Vector_const_iterator<std::_Vector_val<DummyTT13AttackInfo,std::allocator<DummyTT13AttackInfo> > >::operator==
_TEXT	ENDS
PUBLIC	??0?$_Vector_iterator@V?$_Vector_val@UDummyTT13AttackInfo@@V?$allocator@UDummyTT13AttackInfo@@@std@@@std@@@std@@QAE@PAUDummyTT13AttackInfo@@PBU_Container_base0@1@@Z ; std::_Vector_iterator<std::_Vector_val<DummyTT13AttackInfo,std::allocator<DummyTT13AttackInfo> > >::_Vector_iterator<std::_Vector_val<DummyTT13AttackInfo,std::allocator<DummyTT13AttackInfo> > >
; Function compile flags: /Ogsp
;	COMDAT ??0?$_Vector_iterator@V?$_Vector_val@UDummyTT13AttackInfo@@V?$allocator@UDummyTT13AttackInfo@@@std@@@std@@@std@@QAE@PAUDummyTT13AttackInfo@@PBU_Container_base0@1@@Z
_TEXT	SEGMENT
__Parg$ = 8						; size = 4
__Pvector$ = 12						; size = 4
??0?$_Vector_iterator@V?$_Vector_val@UDummyTT13AttackInfo@@V?$allocator@UDummyTT13AttackInfo@@@std@@@std@@@std@@QAE@PAUDummyTT13AttackInfo@@PBU_Container_base0@1@@Z PROC ; std::_Vector_iterator<std::_Vector_val<DummyTT13AttackInfo,std::allocator<DummyTT13AttackInfo> > >::_Vector_iterator<std::_Vector_val<DummyTT13AttackInfo,std::allocator<DummyTT13AttackInfo> > >, COMDAT
; _this$ = ecx

; 304  : 		{	// construct with pointer _Parg

  00000	55		 push	 ebp
  00001	8b ec		 mov	 ebp, esp
  00003	8b c1		 mov	 eax, ecx
  00005	8b 4d 08	 mov	 ecx, DWORD PTR __Parg$[ebp]
  00008	89 08		 mov	 DWORD PTR [eax], ecx

; 305  : 		}

  0000a	5d		 pop	 ebp
  0000b	c2 08 00	 ret	 8
??0?$_Vector_iterator@V?$_Vector_val@UDummyTT13AttackInfo@@V?$allocator@UDummyTT13AttackInfo@@@std@@@std@@@std@@QAE@PAUDummyTT13AttackInfo@@PBU_Container_base0@1@@Z ENDP ; std::_Vector_iterator<std::_Vector_val<DummyTT13AttackInfo,std::allocator<DummyTT13AttackInfo> > >::_Vector_iterator<std::_Vector_val<DummyTT13AttackInfo,std::allocator<DummyTT13AttackInfo> > >
_TEXT	ENDS
PUBLIC	??8?$_Vector_const_iterator@V?$_Vector_val@PAVioBaseChar@@V?$allocator@PAVioBaseChar@@@std@@@std@@@std@@QBE_NABV01@@Z ; std::_Vector_const_iterator<std::_Vector_val<ioBaseChar *,std::allocator<ioBaseChar *> > >::operator==
; Function compile flags: /Ogsp
;	COMDAT ??8?$_Vector_const_iterator@V?$_Vector_val@PAVioBaseChar@@V?$allocator@PAVioBaseChar@@@std@@@std@@@std@@QBE_NABV01@@Z
_TEXT	SEGMENT
__Right$ = 8						; size = 4
??8?$_Vector_const_iterator@V?$_Vector_val@PAVioBaseChar@@V?$allocator@PAVioBaseChar@@@std@@@std@@@std@@QBE_NABV01@@Z PROC ; std::_Vector_const_iterator<std::_Vector_val<ioBaseChar *,std::allocator<ioBaseChar *> > >::operator==, COMDAT
; _this$ = ecx

; 201  : 		{	// test for iterator equality

  00000	55		 push	 ebp
  00001	8b ec		 mov	 ebp, esp

; 202  : 		_Compat(_Right);
; 203  : 		return (this->_Ptr == _Right._Ptr);

  00003	8b 01		 mov	 eax, DWORD PTR [ecx]
  00005	8b 4d 08	 mov	 ecx, DWORD PTR __Right$[ebp]
  00008	2b 01		 sub	 eax, DWORD PTR [ecx]
  0000a	f7 d8		 neg	 eax
  0000c	1b c0		 sbb	 eax, eax
  0000e	40		 inc	 eax

; 204  : 		}

  0000f	5d		 pop	 ebp
  00010	c2 04 00	 ret	 4
??8?$_Vector_const_iterator@V?$_Vector_val@PAVioBaseChar@@V?$allocator@PAVioBaseChar@@@std@@@std@@@std@@QBE_NABV01@@Z ENDP ; std::_Vector_const_iterator<std::_Vector_val<ioBaseChar *,std::allocator<ioBaseChar *> > >::operator==
_TEXT	ENDS
PUBLIC	??D?$_List_const_iterator@V?$_List_val@UFireTime@@V?$allocator@UFireTime@@@std@@@std@@@std@@QBEABUFireTime@@XZ ; std::_List_const_iterator<std::_List_val<FireTime,std::allocator<FireTime> > >::operator*
; Function compile flags: /Ogsp
; File c:\program files (x86)\microsoft visual studio 10.0\vc\include\list
;	COMDAT ??D?$_List_const_iterator@V?$_List_val@UFireTime@@V?$allocator@UFireTime@@@std@@@std@@@std@@QBEABUFireTime@@XZ
_TEXT	SEGMENT
??D?$_List_const_iterator@V?$_List_val@UFireTime@@V?$allocator@UFireTime@@@std@@@std@@@std@@QBEABUFireTime@@XZ PROC ; std::_List_const_iterator<std::_List_val<FireTime,std::allocator<FireTime> > >::operator*, COMDAT
; _this$ = ecx

; 202  :  #if _ITERATOR_DEBUG_LEVEL == 2
; 203  : 		if (this->_Getcont() == 0
; 204  : 			|| this->_Ptr == 0
; 205  : 			|| this->_Ptr == ((_Mylist *)this->_Getcont())->_Myhead)
; 206  : 			{	// report error
; 207  : 			_DEBUG_ERROR("list iterator not dereferencable");
; 208  : 			_SCL_SECURE_OUT_OF_RANGE;
; 209  : 			}
; 210  : 
; 211  :  #elif _ITERATOR_DEBUG_LEVEL == 1
; 212  : 		_SCL_SECURE_VALIDATE(this->_Getcont() != 0 && this->_Ptr != 0);
; 213  : 		_SCL_SECURE_VALIDATE_RANGE(this->_Ptr !=
; 214  : 			((_Mylist *)this->_Getcont())->_Myhead);
; 215  :  #endif /* _ITERATOR_DEBUG_LEVEL */
; 216  : 
; 217  : 		return (_Mylist::_Myval(this->_Ptr));

  00000	8b 01		 mov	 eax, DWORD PTR [ecx]
  00002	83 c0 08	 add	 eax, 8

; 218  : 		}

  00005	c3		 ret	 0
??D?$_List_const_iterator@V?$_List_val@UFireTime@@V?$allocator@UFireTime@@@std@@@std@@@std@@QBEABUFireTime@@XZ ENDP ; std::_List_const_iterator<std::_List_val<FireTime,std::allocator<FireTime> > >::operator*
_TEXT	ENDS
PUBLIC	?max_size@?$vector@UDummyTT13AttackInfo@@V?$allocator@UDummyTT13AttackInfo@@@std@@@std@@QBEIXZ ; std::vector<DummyTT13AttackInfo,std::allocator<DummyTT13AttackInfo> >::max_size
; Function compile flags: /Ogsp
; File c:\program files (x86)\microsoft visual studio 10.0\vc\include\vector
;	COMDAT ?max_size@?$vector@UDummyTT13AttackInfo@@V?$allocator@UDummyTT13AttackInfo@@@std@@@std@@QBEIXZ
_TEXT	SEGMENT
?max_size@?$vector@UDummyTT13AttackInfo@@V?$allocator@UDummyTT13AttackInfo@@@std@@@std@@QBEIXZ PROC ; std::vector<DummyTT13AttackInfo,std::allocator<DummyTT13AttackInfo> >::max_size, COMDAT
; _this$ = ecx

; 884  : 		return (this->_Alval.max_size());

  00000	b8 44 44 44 04	 mov	 eax, 71582788		; 04444444H

; 885  : 		}

  00005	c3		 ret	 0
?max_size@?$vector@UDummyTT13AttackInfo@@V?$allocator@UDummyTT13AttackInfo@@@std@@@std@@QBEIXZ ENDP ; std::vector<DummyTT13AttackInfo,std::allocator<DummyTT13AttackInfo> >::max_size
_TEXT	ENDS
PUBLIC	?_Grow_to@?$vector@UDummyTT13AttackInfo@@V?$allocator@UDummyTT13AttackInfo@@@std@@@std@@IBEII@Z ; std::vector<DummyTT13AttackInfo,std::allocator<DummyTT13AttackInfo> >::_Grow_to
; Function compile flags: /Ogsp
;	COMDAT ?_Grow_to@?$vector@UDummyTT13AttackInfo@@V?$allocator@UDummyTT13AttackInfo@@@std@@@std@@IBEII@Z
_TEXT	SEGMENT
__Count$ = 8						; size = 4
?_Grow_to@?$vector@UDummyTT13AttackInfo@@V?$allocator@UDummyTT13AttackInfo@@@std@@@std@@IBEII@Z PROC ; std::vector<DummyTT13AttackInfo,std::allocator<DummyTT13AttackInfo> >::_Grow_to, COMDAT
; _this$ = ecx

; 1274 : 		{	// grow by 50% or at least to _Count

  00000	55		 push	 ebp
  00001	8b ec		 mov	 ebp, esp

; 1275 : 		size_type _Capacity = capacity();

  00003	8b 41 08	 mov	 eax, DWORD PTR [ecx+8]
  00006	2b 01		 sub	 eax, DWORD PTR [ecx]
  00008	6a 3c		 push	 60			; 0000003cH
  0000a	99		 cdq
  0000b	59		 pop	 ecx
  0000c	f7 f9		 idiv	 ecx

; 1276 : 
; 1277 : 		_Capacity = max_size() - _Capacity / 2 < _Capacity
; 1278 : 			? 0 : _Capacity + _Capacity / 2;	// try to grow by 50%

  0000e	ba 44 44 44 04	 mov	 edx, 71582788		; 04444444H
  00013	8b c8		 mov	 ecx, eax
  00015	d1 e9		 shr	 ecx, 1
  00017	2b d1		 sub	 edx, ecx
  00019	3b d0		 cmp	 edx, eax
  0001b	73 04		 jae	 SHORT $LN4@Grow_to
  0001d	33 c0		 xor	 eax, eax
  0001f	eb 02		 jmp	 SHORT $LN5@Grow_to
$LN4@Grow_to:
  00021	03 c1		 add	 eax, ecx
$LN5@Grow_to:

; 1279 : 		if (_Capacity < _Count)

  00023	3b 45 08	 cmp	 eax, DWORD PTR __Count$[ebp]

; 1280 : 			_Capacity = _Count;

  00026	0f 42 45 08	 cmovb	 eax, DWORD PTR __Count$[ebp]

; 1281 : 		return (_Capacity);
; 1282 : 		}

  0002a	5d		 pop	 ebp
  0002b	c2 04 00	 ret	 4
?_Grow_to@?$vector@UDummyTT13AttackInfo@@V?$allocator@UDummyTT13AttackInfo@@@std@@@std@@IBEII@Z ENDP ; std::vector<DummyTT13AttackInfo,std::allocator<DummyTT13AttackInfo> >::_Grow_to
_TEXT	ENDS
PUBLIC	??0?$_List_const_iterator@V?$_List_val@UFireTime@@V?$allocator@UFireTime@@@std@@@std@@@std@@QAE@PAU_Node@?$_List_nod@UFireTime@@V?$allocator@UFireTime@@@std@@@1@PBV?$_List_val@UFireTime@@V?$allocator@UFireTime@@@std@@@1@@Z ; std::_List_const_iterator<std::_List_val<FireTime,std::allocator<FireTime> > >::_List_const_iterator<std::_List_val<FireTime,std::allocator<FireTime> > >
; Function compile flags: /Ogsp
; File c:\program files (x86)\microsoft visual studio 10.0\vc\include\list
;	COMDAT ??0?$_List_const_iterator@V?$_List_val@UFireTime@@V?$allocator@UFireTime@@@std@@@std@@@std@@QAE@PAU_Node@?$_List_nod@UFireTime@@V?$allocator@UFireTime@@@std@@@1@PBV?$_List_val@UFireTime@@V?$allocator@UFireTime@@@std@@@1@@Z
_TEXT	SEGMENT
__Pnode$ = 8						; size = 4
__Plist$ = 12						; size = 4
??0?$_List_const_iterator@V?$_List_val@UFireTime@@V?$allocator@UFireTime@@@std@@@std@@@std@@QAE@PAU_Node@?$_List_nod@UFireTime@@V?$allocator@UFireTime@@@std@@@1@PBV?$_List_val@UFireTime@@V?$allocator@UFireTime@@@std@@@1@@Z PROC ; std::_List_const_iterator<std::_List_val<FireTime,std::allocator<FireTime> > >::_List_const_iterator<std::_List_val<FireTime,std::allocator<FireTime> > >, COMDAT
; _this$ = ecx

; 184  : 		{	// construct with node pointer _Pnode

  00000	55		 push	 ebp
  00001	8b ec		 mov	 ebp, esp
  00003	8b c1		 mov	 eax, ecx
  00005	8b 4d 08	 mov	 ecx, DWORD PTR __Pnode$[ebp]
  00008	89 08		 mov	 DWORD PTR [eax], ecx

; 185  : 		}

  0000a	5d		 pop	 ebp
  0000b	c2 08 00	 ret	 8
??0?$_List_const_iterator@V?$_List_val@UFireTime@@V?$allocator@UFireTime@@@std@@@std@@@std@@QAE@PAU_Node@?$_List_nod@UFireTime@@V?$allocator@UFireTime@@@std@@@1@PBV?$_List_val@UFireTime@@V?$allocator@UFireTime@@@std@@@1@@Z ENDP ; std::_List_const_iterator<std::_List_val<FireTime,std::allocator<FireTime> > >::_List_const_iterator<std::_List_val<FireTime,std::allocator<FireTime> > >
_TEXT	ENDS
PUBLIC	?allocate@?$allocator@UDummyTT13AttackInfo@@@std@@QAEPAUDummyTT13AttackInfo@@I@Z ; std::allocator<DummyTT13AttackInfo>::allocate
; Function compile flags: /Ogsp
; File c:\program files (x86)\microsoft visual studio 10.0\vc\include\xmemory
;	COMDAT ?allocate@?$allocator@UDummyTT13AttackInfo@@@std@@QAEPAUDummyTT13AttackInfo@@I@Z
_TEXT	SEGMENT
__Count$ = 8						; size = 4
?allocate@?$allocator@UDummyTT13AttackInfo@@@std@@QAEPAUDummyTT13AttackInfo@@I@Z PROC ; std::allocator<DummyTT13AttackInfo>::allocate, COMDAT
; _this$ = ecx

; 186  : 		{	// allocate array of _Count elements

  00000	55		 push	 ebp
  00001	8b ec		 mov	 ebp, esp

; 187  : 		return (_Allocate(_Count, (pointer)0));

  00003	6a 00		 push	 0
  00005	ff 75 08	 push	 DWORD PTR __Count$[ebp]
  00008	e8 00 00 00 00	 call	 ??$_Allocate@UDummyTT13AttackInfo@@@std@@YAPAUDummyTT13AttackInfo@@IPAU1@@Z ; std::_Allocate<DummyTT13AttackInfo>
  0000d	59		 pop	 ecx
  0000e	59		 pop	 ecx

; 188  : 		}

  0000f	5d		 pop	 ebp
  00010	c2 04 00	 ret	 4
?allocate@?$allocator@UDummyTT13AttackInfo@@@std@@QAEPAUDummyTT13AttackInfo@@I@Z ENDP ; std::allocator<DummyTT13AttackInfo>::allocate
_TEXT	ENDS
PUBLIC	__$ArrayPad$
PUBLIC	??$LoadFloat_e@$0BC@@ioINILoader@@QAEMAAY0BC@$$CBDM@Z ; ioINILoader::LoadFloat_e<18>
EXTRN	__imp_?LoadFloat@ioINILoader@@QAEMPBDM@Z:PROC
; Function compile flags: /Ogsp
; File d:\lost saga for developer\youtube\tutorial\source\src\io3dengine\ioiniloader.h
;	COMDAT ??$LoadFloat_e@$0BC@@ioINILoader@@QAEMAAY0BC@$$CBDM@Z
_TEXT	SEGMENT
__k$ = -28						; size = 18
__$ArrayPad$ = -4					; size = 4
_k$ = 8							; size = 4
_f$ = 12						; size = 4
??$LoadFloat_e@$0BC@@ioINILoader@@QAEMAAY0BC@$$CBDM@Z PROC ; ioINILoader::LoadFloat_e<18>, COMDAT
; _this$ = ecx

; 135  : 	{

  00000	55		 push	 ebp
  00001	8b ec		 mov	 ebp, esp
  00003	83 ec 1c	 sub	 esp, 28			; 0000001cH
  00006	a1 00 00 00 00	 mov	 eax, DWORD PTR ___security_cookie
  0000b	33 c5		 xor	 eax, ebp
  0000d	89 45 fc	 mov	 DWORD PTR __$ArrayPad$[ebp], eax
  00010	8b 45 08	 mov	 eax, DWORD PTR _k$[ebp]

; 136  : 		_ENCSTR(k, _k);

  00013	8a 10		 mov	 dl, BYTE PTR [eax]
  00015	56		 push	 esi
  00016	8b f1		 mov	 esi, ecx
  00018	84 d2		 test	 dl, dl
  0001a	0f 84 be 01 00
	00		 je	 $LN96@LoadFloat_
  00020	80 f2 ed	 xor	 dl, -19			; ffffffedH
  00023	88 55 e4	 mov	 BYTE PTR __k$[ebp], dl
  00026	8a 50 01	 mov	 dl, BYTE PTR [eax+1]
  00029	84 d2		 test	 dl, dl
  0002b	0f 84 a7 01 00
	00		 je	 $LN95@LoadFloat_
  00031	80 f2 ec	 xor	 dl, -20			; ffffffecH
  00034	88 55 e5	 mov	 BYTE PTR __k$[ebp+1], dl
  00037	8a 50 02	 mov	 dl, BYTE PTR [eax+2]
  0003a	84 d2		 test	 dl, dl
  0003c	0f 84 90 01 00
	00		 je	 $LN94@LoadFloat_
  00042	b1 eb		 mov	 cl, -21			; ffffffebH
  00044	32 d1		 xor	 dl, cl
  00046	88 55 e6	 mov	 BYTE PTR __k$[ebp+2], dl
  00049	8a 50 03	 mov	 dl, BYTE PTR [eax+3]
  0004c	84 d2		 test	 dl, dl
  0004e	0f 84 78 01 00
	00		 je	 $LN93@LoadFloat_
  00054	80 f2 ea	 xor	 dl, -22			; ffffffeaH
  00057	88 55 e7	 mov	 BYTE PTR __k$[ebp+3], dl
  0005a	8a 50 04	 mov	 dl, BYTE PTR [eax+4]
  0005d	84 d2		 test	 dl, dl
  0005f	0f 84 61 01 00
	00		 je	 $LN92@LoadFloat_
  00065	80 f2 ed	 xor	 dl, -19			; ffffffedH
  00068	88 55 e8	 mov	 BYTE PTR __k$[ebp+4], dl
  0006b	8a 50 05	 mov	 dl, BYTE PTR [eax+5]
  0006e	84 d2		 test	 dl, dl
  00070	0f 84 4a 01 00
	00		 je	 $LN91@LoadFloat_
  00076	80 f2 ec	 xor	 dl, -20			; ffffffecH
  00079	88 55 e9	 mov	 BYTE PTR __k$[ebp+5], dl
  0007c	8a 50 06	 mov	 dl, BYTE PTR [eax+6]
  0007f	84 d2		 test	 dl, dl
  00081	0f 84 34 01 00
	00		 je	 $LN90@LoadFloat_
  00087	32 d1		 xor	 dl, cl
  00089	88 55 ea	 mov	 BYTE PTR __k$[ebp+6], dl
  0008c	8a 50 07	 mov	 dl, BYTE PTR [eax+7]
  0008f	84 d2		 test	 dl, dl
  00091	0f 84 1e 01 00
	00		 je	 $LN89@LoadFloat_
  00097	80 f2 ea	 xor	 dl, -22			; ffffffeaH
  0009a	88 55 eb	 mov	 BYTE PTR __k$[ebp+7], dl
  0009d	8a 50 08	 mov	 dl, BYTE PTR [eax+8]
  000a0	84 d2		 test	 dl, dl
  000a2	0f 84 07 01 00
	00		 je	 $LN88@LoadFloat_
  000a8	80 f2 ed	 xor	 dl, -19			; ffffffedH
  000ab	88 55 ec	 mov	 BYTE PTR __k$[ebp+8], dl
  000ae	8a 50 09	 mov	 dl, BYTE PTR [eax+9]
  000b1	84 d2		 test	 dl, dl
  000b3	0f 84 f0 00 00
	00		 je	 $LN87@LoadFloat_
  000b9	80 f2 ec	 xor	 dl, -20			; ffffffecH
  000bc	88 55 ed	 mov	 BYTE PTR __k$[ebp+9], dl
  000bf	8a 50 0a	 mov	 dl, BYTE PTR [eax+10]
  000c2	84 d2		 test	 dl, dl
  000c4	0f 84 da 00 00
	00		 je	 $LN86@LoadFloat_
  000ca	32 d1		 xor	 dl, cl
  000cc	88 55 ee	 mov	 BYTE PTR __k$[ebp+10], dl
  000cf	8a 50 0b	 mov	 dl, BYTE PTR [eax+11]
  000d2	84 d2		 test	 dl, dl
  000d4	0f 84 c4 00 00
	00		 je	 $LN85@LoadFloat_
  000da	80 f2 ea	 xor	 dl, -22			; ffffffeaH
  000dd	88 55 ef	 mov	 BYTE PTR __k$[ebp+11], dl
  000e0	8a 50 0c	 mov	 dl, BYTE PTR [eax+12]
  000e3	84 d2		 test	 dl, dl
  000e5	0f 84 ad 00 00
	00		 je	 $LN84@LoadFloat_
  000eb	80 f2 ed	 xor	 dl, -19			; ffffffedH
  000ee	88 55 f0	 mov	 BYTE PTR __k$[ebp+12], dl
  000f1	8a 50 0d	 mov	 dl, BYTE PTR [eax+13]
  000f4	84 d2		 test	 dl, dl
  000f6	0f 84 96 00 00
	00		 je	 $LN83@LoadFloat_
  000fc	80 f2 ec	 xor	 dl, -20			; ffffffecH
  000ff	88 55 f1	 mov	 BYTE PTR __k$[ebp+13], dl
  00102	8a 50 0e	 mov	 dl, BYTE PTR [eax+14]
  00105	84 d2		 test	 dl, dl
  00107	0f 84 80 00 00
	00		 je	 $LN82@LoadFloat_
  0010d	32 d1		 xor	 dl, cl
  0010f	88 55 f2	 mov	 BYTE PTR __k$[ebp+14], dl
  00112	8a 50 0f	 mov	 dl, BYTE PTR [eax+15]
  00115	84 d2		 test	 dl, dl
  00117	74 6e		 je	 SHORT $LN81@LoadFloat_
  00119	80 f2 ea	 xor	 dl, -22			; ffffffeaH
  0011c	88 55 f3	 mov	 BYTE PTR __k$[ebp+15], dl
  0011f	8a 50 10	 mov	 dl, BYTE PTR [eax+16]
  00122	84 d2		 test	 dl, dl
  00124	74 5b		 je	 SHORT $LN80@LoadFloat_
  00126	80 f2 ed	 xor	 dl, -19			; ffffffedH
  00129	80 78 11 00	 cmp	 BYTE PTR [eax+17], 0
  0012d	88 55 f4	 mov	 BYTE PTR __k$[ebp+16], dl
  00130	0f 84 ac 00 00
	00		 je	 $LN1@LoadFloat_
  00136	8a 50 12	 mov	 dl, BYTE PTR [eax+18]
  00139	84 d2		 test	 dl, dl
  0013b	74 3f		 je	 SHORT $LN78@LoadFloat_
  0013d	32 d1		 xor	 dl, cl
  0013f	88 55 f6	 mov	 BYTE PTR __k$[ebp+18], dl
  00142	8a 50 13	 mov	 dl, BYTE PTR [eax+19]
  00145	84 d2		 test	 dl, dl
  00147	74 2d		 je	 SHORT $LN77@LoadFloat_
  00149	80 f2 ea	 xor	 dl, -22			; ffffffeaH
  0014c	88 55 f7	 mov	 BYTE PTR __k$[ebp+19], dl
  0014f	8a 50 14	 mov	 dl, BYTE PTR [eax+20]
  00152	84 d2		 test	 dl, dl
  00154	74 1a		 je	 SHORT $LN76@LoadFloat_
  00156	8a 40 15	 mov	 al, BYTE PTR [eax+21]
  00159	80 f2 ed	 xor	 dl, -19			; ffffffedH
  0015c	88 55 f8	 mov	 BYTE PTR __k$[ebp+20], dl
  0015f	84 c0		 test	 al, al
  00161	74 07		 je	 SHORT $LN75@LoadFloat_
  00163	34 ec		 xor	 al, -20			; ffffffecH
  00165	88 45 f9	 mov	 BYTE PTR __k$[ebp+21], al
  00168	eb 78		 jmp	 SHORT $LN1@LoadFloat_
$LN75@LoadFloat_:
  0016a	c6 45 f9 ec	 mov	 BYTE PTR __k$[ebp+21], -20 ; ffffffecH
  0016e	eb 72		 jmp	 SHORT $LN1@LoadFloat_
$LN76@LoadFloat_:
  00170	c6 45 f8 ed	 mov	 BYTE PTR __k$[ebp+20], -19 ; ffffffedH
  00174	eb 6c		 jmp	 SHORT $LN1@LoadFloat_
$LN77@LoadFloat_:
  00176	c6 45 f7 ea	 mov	 BYTE PTR __k$[ebp+19], -22 ; ffffffeaH
  0017a	eb 66		 jmp	 SHORT $LN1@LoadFloat_
$LN78@LoadFloat_:
  0017c	88 4d f6	 mov	 BYTE PTR __k$[ebp+18], cl
  0017f	eb 61		 jmp	 SHORT $LN1@LoadFloat_
$LN80@LoadFloat_:
  00181	c6 45 f4 ed	 mov	 BYTE PTR __k$[ebp+16], -19 ; ffffffedH
  00185	eb 5b		 jmp	 SHORT $LN1@LoadFloat_
$LN81@LoadFloat_:
  00187	c6 45 f3 ea	 mov	 BYTE PTR __k$[ebp+15], -22 ; ffffffeaH
  0018b	eb 55		 jmp	 SHORT $LN1@LoadFloat_
$LN82@LoadFloat_:
  0018d	88 4d f2	 mov	 BYTE PTR __k$[ebp+14], cl
  00190	eb 50		 jmp	 SHORT $LN1@LoadFloat_
$LN83@LoadFloat_:
  00192	c6 45 f1 ec	 mov	 BYTE PTR __k$[ebp+13], -20 ; ffffffecH
  00196	eb 4a		 jmp	 SHORT $LN1@LoadFloat_
$LN84@LoadFloat_:
  00198	c6 45 f0 ed	 mov	 BYTE PTR __k$[ebp+12], -19 ; ffffffedH
  0019c	eb 44		 jmp	 SHORT $LN1@LoadFloat_
$LN85@LoadFloat_:
  0019e	c6 45 ef ea	 mov	 BYTE PTR __k$[ebp+11], -22 ; ffffffeaH
  001a2	eb 3e		 jmp	 SHORT $LN1@LoadFloat_
$LN86@LoadFloat_:
  001a4	88 4d ee	 mov	 BYTE PTR __k$[ebp+10], cl
  001a7	eb 39		 jmp	 SHORT $LN1@LoadFloat_
$LN87@LoadFloat_:
  001a9	c6 45 ed ec	 mov	 BYTE PTR __k$[ebp+9], -20 ; ffffffecH
  001ad	eb 33		 jmp	 SHORT $LN1@LoadFloat_
$LN88@LoadFloat_:
  001af	c6 45 ec ed	 mov	 BYTE PTR __k$[ebp+8], -19 ; ffffffedH
  001b3	eb 2d		 jmp	 SHORT $LN1@LoadFloat_
$LN89@LoadFloat_:
  001b5	c6 45 eb ea	 mov	 BYTE PTR __k$[ebp+7], -22 ; ffffffeaH
  001b9	eb 27		 jmp	 SHORT $LN1@LoadFloat_
$LN90@LoadFloat_:
  001bb	88 4d ea	 mov	 BYTE PTR __k$[ebp+6], cl
  001be	eb 22		 jmp	 SHORT $LN1@LoadFloat_
$LN91@LoadFloat_:
  001c0	c6 45 e9 ec	 mov	 BYTE PTR __k$[ebp+5], -20 ; ffffffecH
  001c4	eb 1c		 jmp	 SHORT $LN1@LoadFloat_
$LN92@LoadFloat_:
  001c6	c6 45 e8 ed	 mov	 BYTE PTR __k$[ebp+4], -19 ; ffffffedH
  001ca	eb 16		 jmp	 SHORT $LN1@LoadFloat_
$LN93@LoadFloat_:
  001cc	c6 45 e7 ea	 mov	 BYTE PTR __k$[ebp+3], -22 ; ffffffeaH
  001d0	eb 10		 jmp	 SHORT $LN1@LoadFloat_
$LN94@LoadFloat_:
  001d2	c6 45 e6 eb	 mov	 BYTE PTR __k$[ebp+2], -21 ; ffffffebH
  001d6	eb 0a		 jmp	 SHORT $LN1@LoadFloat_
$LN95@LoadFloat_:
  001d8	c6 45 e5 ec	 mov	 BYTE PTR __k$[ebp+1], -20 ; ffffffecH
  001dc	eb 04		 jmp	 SHORT $LN1@LoadFloat_
$LN96@LoadFloat_:
  001de	c6 45 e4 ed	 mov	 BYTE PTR __k$[ebp], -19	; ffffffedH
$LN1@LoadFloat_:
  001e2	6a 04		 push	 4
  001e4	8d 45 e4	 lea	 eax, DWORD PTR __k$[ebp]
  001e7	c6 45 f5 00	 mov	 BYTE PTR __k$[ebp+17], 0
  001eb	5a		 pop	 edx
$LL104@LoadFloat_:
  001ec	81 30 ed ec eb
	ea		 xor	 DWORD PTR [eax], -353637139 ; eaebecedH
  001f2	83 c0 04	 add	 eax, 4
  001f5	4a		 dec	 edx
  001f6	75 f4		 jne	 SHORT $LL104@LoadFloat_

; 137  : 		return LoadFloat(_k, f);

  001f8	f3 0f 10 45 0c	 movss	 xmm0, DWORD PTR _f$[ebp]
  001fd	80 75 f4 ed	 xor	 BYTE PTR __k$[ebp+16], -19 ; ffffffedH
  00201	51		 push	 ecx
  00202	8d 45 e4	 lea	 eax, DWORD PTR __k$[ebp]
  00205	f3 0f 11 04 24	 movss	 DWORD PTR [esp], xmm0
  0020a	50		 push	 eax
  0020b	8b ce		 mov	 ecx, esi
  0020d	ff 15 00 00 00
	00		 call	 DWORD PTR __imp_?LoadFloat@ioINILoader@@QAEMPBDM@Z

; 138  : 	}

  00213	8b 4d fc	 mov	 ecx, DWORD PTR __$ArrayPad$[ebp]
  00216	33 cd		 xor	 ecx, ebp
  00218	5e		 pop	 esi
  00219	e8 00 00 00 00	 call	 @__security_check_cookie@4
  0021e	c9		 leave
  0021f	c2 08 00	 ret	 8
??$LoadFloat_e@$0BC@@ioINILoader@@QAEMAAY0BC@$$CBDM@Z ENDP ; ioINILoader::LoadFloat_e<18>
_TEXT	ENDS
PUBLIC	__$ArrayPad$
PUBLIC	??$LoadInt_e@$0BG@@ioINILoader@@QAEHAAY0BG@$$CBDH@Z ; ioINILoader::LoadInt_e<22>
EXTRN	__imp_?LoadInt@ioINILoader@@QAEHPBDH@Z:PROC
; Function compile flags: /Ogsp
;	COMDAT ??$LoadInt_e@$0BG@@ioINILoader@@QAEHAAY0BG@$$CBDH@Z
_TEXT	SEGMENT
__k$ = -32						; size = 22
__$ArrayPad$ = -4					; size = 4
_k$ = 8							; size = 4
_i$ = 12						; size = 4
??$LoadInt_e@$0BG@@ioINILoader@@QAEHAAY0BG@$$CBDH@Z PROC ; ioINILoader::LoadInt_e<22>, COMDAT
; _this$ = ecx

; 118  : 	{

  00000	55		 push	 ebp
  00001	8b ec		 mov	 ebp, esp
  00003	83 ec 20	 sub	 esp, 32			; 00000020H
  00006	a1 00 00 00 00	 mov	 eax, DWORD PTR ___security_cookie
  0000b	33 c5		 xor	 eax, ebp
  0000d	89 45 fc	 mov	 DWORD PTR __$ArrayPad$[ebp], eax
  00010	8b 45 08	 mov	 eax, DWORD PTR _k$[ebp]

; 119  : 		_ENCSTR(k, _k);

  00013	8a 10		 mov	 dl, BYTE PTR [eax]
  00015	53		 push	 ebx
  00016	56		 push	 esi
  00017	8b f1		 mov	 esi, ecx
  00019	84 d2		 test	 dl, dl
  0001b	0f 84 15 02 00
	00		 je	 $LN96@LoadInt_e
  00021	80 f2 ed	 xor	 dl, -19			; ffffffedH
  00024	88 55 e0	 mov	 BYTE PTR __k$[ebp], dl
  00027	8a 50 01	 mov	 dl, BYTE PTR [eax+1]
  0002a	84 d2		 test	 dl, dl
  0002c	0f 84 fe 01 00
	00		 je	 $LN95@LoadInt_e
  00032	80 f2 ec	 xor	 dl, -20			; ffffffecH
  00035	88 55 e1	 mov	 BYTE PTR __k$[ebp+1], dl
  00038	8a 50 02	 mov	 dl, BYTE PTR [eax+2]
  0003b	84 d2		 test	 dl, dl
  0003d	0f 84 e7 01 00
	00		 je	 $LN94@LoadInt_e
  00043	b1 eb		 mov	 cl, -21			; ffffffebH
  00045	32 d1		 xor	 dl, cl
  00047	88 55 e2	 mov	 BYTE PTR __k$[ebp+2], dl
  0004a	8a 50 03	 mov	 dl, BYTE PTR [eax+3]
  0004d	84 d2		 test	 dl, dl
  0004f	0f 84 cf 01 00
	00		 je	 $LN93@LoadInt_e
  00055	b3 ea		 mov	 bl, -22			; ffffffeaH
  00057	32 d3		 xor	 dl, bl
  00059	88 55 e3	 mov	 BYTE PTR __k$[ebp+3], dl
  0005c	8a 50 04	 mov	 dl, BYTE PTR [eax+4]
  0005f	84 d2		 test	 dl, dl
  00061	0f 84 b7 01 00
	00		 je	 $LN92@LoadInt_e
  00067	80 f2 ed	 xor	 dl, -19			; ffffffedH
  0006a	88 55 e4	 mov	 BYTE PTR __k$[ebp+4], dl
  0006d	8a 50 05	 mov	 dl, BYTE PTR [eax+5]
  00070	84 d2		 test	 dl, dl
  00072	0f 84 a0 01 00
	00		 je	 $LN91@LoadInt_e
  00078	80 f2 ec	 xor	 dl, -20			; ffffffecH
  0007b	88 55 e5	 mov	 BYTE PTR __k$[ebp+5], dl
  0007e	8a 50 06	 mov	 dl, BYTE PTR [eax+6]
  00081	84 d2		 test	 dl, dl
  00083	0f 84 8a 01 00
	00		 je	 $LN90@LoadInt_e
  00089	32 d1		 xor	 dl, cl
  0008b	88 55 e6	 mov	 BYTE PTR __k$[ebp+6], dl
  0008e	8a 50 07	 mov	 dl, BYTE PTR [eax+7]
  00091	84 d2		 test	 dl, dl
  00093	0f 84 75 01 00
	00		 je	 $LN89@LoadInt_e
  00099	32 d3		 xor	 dl, bl
  0009b	88 55 e7	 mov	 BYTE PTR __k$[ebp+7], dl
  0009e	8a 50 08	 mov	 dl, BYTE PTR [eax+8]
  000a1	84 d2		 test	 dl, dl
  000a3	0f 84 5f 01 00
	00		 je	 $LN88@LoadInt_e
  000a9	80 f2 ed	 xor	 dl, -19			; ffffffedH
  000ac	88 55 e8	 mov	 BYTE PTR __k$[ebp+8], dl
  000af	8a 50 09	 mov	 dl, BYTE PTR [eax+9]
  000b2	84 d2		 test	 dl, dl
  000b4	0f 84 48 01 00
	00		 je	 $LN87@LoadInt_e
  000ba	80 f2 ec	 xor	 dl, -20			; ffffffecH
  000bd	88 55 e9	 mov	 BYTE PTR __k$[ebp+9], dl
  000c0	8a 50 0a	 mov	 dl, BYTE PTR [eax+10]
  000c3	84 d2		 test	 dl, dl
  000c5	0f 84 32 01 00
	00		 je	 $LN86@LoadInt_e
  000cb	32 d1		 xor	 dl, cl
  000cd	88 55 ea	 mov	 BYTE PTR __k$[ebp+10], dl
  000d0	8a 50 0b	 mov	 dl, BYTE PTR [eax+11]
  000d3	84 d2		 test	 dl, dl
  000d5	0f 84 1d 01 00
	00		 je	 $LN85@LoadInt_e
  000db	32 d3		 xor	 dl, bl
  000dd	88 55 eb	 mov	 BYTE PTR __k$[ebp+11], dl
  000e0	8a 50 0c	 mov	 dl, BYTE PTR [eax+12]
  000e3	84 d2		 test	 dl, dl
  000e5	0f 84 07 01 00
	00		 je	 $LN84@LoadInt_e
  000eb	80 f2 ed	 xor	 dl, -19			; ffffffedH
  000ee	88 55 ec	 mov	 BYTE PTR __k$[ebp+12], dl
  000f1	8a 50 0d	 mov	 dl, BYTE PTR [eax+13]
  000f4	84 d2		 test	 dl, dl
  000f6	0f 84 f0 00 00
	00		 je	 $LN83@LoadInt_e
  000fc	80 f2 ec	 xor	 dl, -20			; ffffffecH
  000ff	88 55 ed	 mov	 BYTE PTR __k$[ebp+13], dl
  00102	8a 50 0e	 mov	 dl, BYTE PTR [eax+14]
  00105	84 d2		 test	 dl, dl
  00107	0f 84 da 00 00
	00		 je	 $LN82@LoadInt_e
  0010d	32 d1		 xor	 dl, cl
  0010f	88 55 ee	 mov	 BYTE PTR __k$[ebp+14], dl
  00112	8a 50 0f	 mov	 dl, BYTE PTR [eax+15]
  00115	84 d2		 test	 dl, dl
  00117	0f 84 c5 00 00
	00		 je	 $LN81@LoadInt_e
  0011d	32 d3		 xor	 dl, bl
  0011f	88 55 ef	 mov	 BYTE PTR __k$[ebp+15], dl
  00122	8a 50 10	 mov	 dl, BYTE PTR [eax+16]
  00125	84 d2		 test	 dl, dl
  00127	0f 84 af 00 00
	00		 je	 $LN80@LoadInt_e
  0012d	80 f2 ed	 xor	 dl, -19			; ffffffedH
  00130	88 55 f0	 mov	 BYTE PTR __k$[ebp+16], dl
  00133	8a 50 11	 mov	 dl, BYTE PTR [eax+17]
  00136	84 d2		 test	 dl, dl
  00138	0f 84 98 00 00
	00		 je	 $LN79@LoadInt_e
  0013e	80 f2 ec	 xor	 dl, -20			; ffffffecH
  00141	88 55 f1	 mov	 BYTE PTR __k$[ebp+17], dl
  00144	8a 50 12	 mov	 dl, BYTE PTR [eax+18]
  00147	84 d2		 test	 dl, dl
  00149	0f 84 82 00 00
	00		 je	 $LN78@LoadInt_e
  0014f	32 d1		 xor	 dl, cl
  00151	88 55 f2	 mov	 BYTE PTR __k$[ebp+18], dl
  00154	8a 50 13	 mov	 dl, BYTE PTR [eax+19]
  00157	84 d2		 test	 dl, dl
  00159	74 71		 je	 SHORT $LN77@LoadInt_e
  0015b	32 d3		 xor	 dl, bl
  0015d	88 55 f3	 mov	 BYTE PTR __k$[ebp+19], dl
  00160	8a 50 14	 mov	 dl, BYTE PTR [eax+20]
  00163	84 d2		 test	 dl, dl
  00165	74 5f		 je	 SHORT $LN76@LoadInt_e
  00167	80 f2 ed	 xor	 dl, -19			; ffffffedH
  0016a	80 78 15 00	 cmp	 BYTE PTR [eax+21], 0
  0016e	88 55 f4	 mov	 BYTE PTR __k$[ebp+20], dl
  00171	0f 84 c3 00 00
	00		 je	 $LN1@LoadInt_e
  00177	8a 50 16	 mov	 dl, BYTE PTR [eax+22]
  0017a	84 d2		 test	 dl, dl
  0017c	74 43		 je	 SHORT $LN74@LoadInt_e
  0017e	32 d1		 xor	 dl, cl
  00180	88 55 f6	 mov	 BYTE PTR __k$[ebp+22], dl
  00183	8a 50 17	 mov	 dl, BYTE PTR [eax+23]
  00186	84 d2		 test	 dl, dl
  00188	74 32		 je	 SHORT $LN73@LoadInt_e
  0018a	32 d3		 xor	 dl, bl
  0018c	88 55 f7	 mov	 BYTE PTR __k$[ebp+23], dl
  0018f	8a 50 18	 mov	 dl, BYTE PTR [eax+24]
  00192	84 d2		 test	 dl, dl
  00194	74 20		 je	 SHORT $LN72@LoadInt_e
  00196	8a 40 19	 mov	 al, BYTE PTR [eax+25]
  00199	80 f2 ed	 xor	 dl, -19			; ffffffedH
  0019c	88 55 f8	 mov	 BYTE PTR __k$[ebp+24], dl
  0019f	84 c0		 test	 al, al
  001a1	74 0a		 je	 SHORT $LN71@LoadInt_e
  001a3	34 ec		 xor	 al, -20			; ffffffecH
  001a5	88 45 f9	 mov	 BYTE PTR __k$[ebp+25], al
  001a8	e9 8d 00 00 00	 jmp	 $LN1@LoadInt_e
$LN71@LoadInt_e:
  001ad	c6 45 f9 ec	 mov	 BYTE PTR __k$[ebp+25], -20 ; ffffffecH
  001b1	e9 84 00 00 00	 jmp	 $LN1@LoadInt_e
$LN72@LoadInt_e:
  001b6	c6 45 f8 ed	 mov	 BYTE PTR __k$[ebp+24], -19 ; ffffffedH
  001ba	eb 7e		 jmp	 SHORT $LN1@LoadInt_e
$LN73@LoadInt_e:
  001bc	88 5d f7	 mov	 BYTE PTR __k$[ebp+23], bl
  001bf	eb 79		 jmp	 SHORT $LN1@LoadInt_e
$LN74@LoadInt_e:
  001c1	88 4d f6	 mov	 BYTE PTR __k$[ebp+22], cl
  001c4	eb 74		 jmp	 SHORT $LN1@LoadInt_e
$LN76@LoadInt_e:
  001c6	c6 45 f4 ed	 mov	 BYTE PTR __k$[ebp+20], -19 ; ffffffedH
  001ca	eb 6e		 jmp	 SHORT $LN1@LoadInt_e
$LN77@LoadInt_e:
  001cc	88 5d f3	 mov	 BYTE PTR __k$[ebp+19], bl
  001cf	eb 69		 jmp	 SHORT $LN1@LoadInt_e
$LN78@LoadInt_e:
  001d1	88 4d f2	 mov	 BYTE PTR __k$[ebp+18], cl
  001d4	eb 64		 jmp	 SHORT $LN1@LoadInt_e
$LN79@LoadInt_e:
  001d6	c6 45 f1 ec	 mov	 BYTE PTR __k$[ebp+17], -20 ; ffffffecH
  001da	eb 5e		 jmp	 SHORT $LN1@LoadInt_e
$LN80@LoadInt_e:
  001dc	c6 45 f0 ed	 mov	 BYTE PTR __k$[ebp+16], -19 ; ffffffedH
  001e0	eb 58		 jmp	 SHORT $LN1@LoadInt_e
$LN81@LoadInt_e:
  001e2	88 5d ef	 mov	 BYTE PTR __k$[ebp+15], bl
  001e5	eb 53		 jmp	 SHORT $LN1@LoadInt_e
$LN82@LoadInt_e:
  001e7	88 4d ee	 mov	 BYTE PTR __k$[ebp+14], cl
  001ea	eb 4e		 jmp	 SHORT $LN1@LoadInt_e
$LN83@LoadInt_e:
  001ec	c6 45 ed ec	 mov	 BYTE PTR __k$[ebp+13], -20 ; ffffffecH
  001f0	eb 48		 jmp	 SHORT $LN1@LoadInt_e
$LN84@LoadInt_e:
  001f2	c6 45 ec ed	 mov	 BYTE PTR __k$[ebp+12], -19 ; ffffffedH
  001f6	eb 42		 jmp	 SHORT $LN1@LoadInt_e
$LN85@LoadInt_e:
  001f8	88 5d eb	 mov	 BYTE PTR __k$[ebp+11], bl
  001fb	eb 3d		 jmp	 SHORT $LN1@LoadInt_e
$LN86@LoadInt_e:
  001fd	88 4d ea	 mov	 BYTE PTR __k$[ebp+10], cl
  00200	eb 38		 jmp	 SHORT $LN1@LoadInt_e
$LN87@LoadInt_e:
  00202	c6 45 e9 ec	 mov	 BYTE PTR __k$[ebp+9], -20 ; ffffffecH
  00206	eb 32		 jmp	 SHORT $LN1@LoadInt_e
$LN88@LoadInt_e:
  00208	c6 45 e8 ed	 mov	 BYTE PTR __k$[ebp+8], -19 ; ffffffedH
  0020c	eb 2c		 jmp	 SHORT $LN1@LoadInt_e
$LN89@LoadInt_e:
  0020e	88 5d e7	 mov	 BYTE PTR __k$[ebp+7], bl
  00211	eb 27		 jmp	 SHORT $LN1@LoadInt_e
$LN90@LoadInt_e:
  00213	88 4d e6	 mov	 BYTE PTR __k$[ebp+6], cl
  00216	eb 22		 jmp	 SHORT $LN1@LoadInt_e
$LN91@LoadInt_e:
  00218	c6 45 e5 ec	 mov	 BYTE PTR __k$[ebp+5], -20 ; ffffffecH
  0021c	eb 1c		 jmp	 SHORT $LN1@LoadInt_e
$LN92@LoadInt_e:
  0021e	c6 45 e4 ed	 mov	 BYTE PTR __k$[ebp+4], -19 ; ffffffedH
  00222	eb 16		 jmp	 SHORT $LN1@LoadInt_e
$LN93@LoadInt_e:
  00224	c6 45 e3 ea	 mov	 BYTE PTR __k$[ebp+3], -22 ; ffffffeaH
  00228	eb 10		 jmp	 SHORT $LN1@LoadInt_e
$LN94@LoadInt_e:
  0022a	c6 45 e2 eb	 mov	 BYTE PTR __k$[ebp+2], -21 ; ffffffebH
  0022e	eb 0a		 jmp	 SHORT $LN1@LoadInt_e
$LN95@LoadInt_e:
  00230	c6 45 e1 ec	 mov	 BYTE PTR __k$[ebp+1], -20 ; ffffffecH
  00234	eb 04		 jmp	 SHORT $LN1@LoadInt_e
$LN96@LoadInt_e:
  00236	c6 45 e0 ed	 mov	 BYTE PTR __k$[ebp], -19	; ffffffedH
$LN1@LoadInt_e:
  0023a	6a 05		 push	 5
  0023c	8d 45 e0	 lea	 eax, DWORD PTR __k$[ebp]
  0023f	c6 45 f5 00	 mov	 BYTE PTR __k$[ebp+21], 0
  00243	5a		 pop	 edx
$LL104@LoadInt_e:
  00244	81 30 ed ec eb
	ea		 xor	 DWORD PTR [eax], -353637139 ; eaebecedH
  0024a	83 c0 04	 add	 eax, 4
  0024d	4a		 dec	 edx
  0024e	75 f4		 jne	 SHORT $LL104@LoadInt_e

; 120  : 		return LoadInt(_k, i);

  00250	ff 75 0c	 push	 DWORD PTR _i$[ebp]
  00253	80 75 f4 ed	 xor	 BYTE PTR __k$[ebp+20], -19 ; ffffffedH
  00257	8d 45 e0	 lea	 eax, DWORD PTR __k$[ebp]
  0025a	50		 push	 eax
  0025b	8b ce		 mov	 ecx, esi
  0025d	ff 15 00 00 00
	00		 call	 DWORD PTR __imp_?LoadInt@ioINILoader@@QAEHPBDH@Z

; 121  : 	}

  00263	8b 4d fc	 mov	 ecx, DWORD PTR __$ArrayPad$[ebp]
  00266	5e		 pop	 esi
  00267	33 cd		 xor	 ecx, ebp
  00269	5b		 pop	 ebx
  0026a	e8 00 00 00 00	 call	 @__security_check_cookie@4
  0026f	c9		 leave
  00270	c2 08 00	 ret	 8
??$LoadInt_e@$0BG@@ioINILoader@@QAEHAAY0BG@$$CBDH@Z ENDP ; ioINILoader::LoadInt_e<22>
_TEXT	ENDS
PUBLIC	__$ArrayPad$
PUBLIC	??$LoadFloat_e@$0BD@@ioINILoader@@QAEMAAY0BD@$$CBDM@Z ; ioINILoader::LoadFloat_e<19>
; Function compile flags: /Ogsp
;	COMDAT ??$LoadFloat_e@$0BD@@ioINILoader@@QAEMAAY0BD@$$CBDM@Z
_TEXT	SEGMENT
__k$ = -28						; size = 19
__$ArrayPad$ = -4					; size = 4
_k$ = 8							; size = 4
_f$ = 12						; size = 4
??$LoadFloat_e@$0BD@@ioINILoader@@QAEMAAY0BD@$$CBDM@Z PROC ; ioINILoader::LoadFloat_e<19>, COMDAT
; _this$ = ecx

; 135  : 	{

  00000	55		 push	 ebp
  00001	8b ec		 mov	 ebp, esp
  00003	83 ec 1c	 sub	 esp, 28			; 0000001cH
  00006	a1 00 00 00 00	 mov	 eax, DWORD PTR ___security_cookie
  0000b	33 c5		 xor	 eax, ebp
  0000d	89 45 fc	 mov	 DWORD PTR __$ArrayPad$[ebp], eax
  00010	8b 45 08	 mov	 eax, DWORD PTR _k$[ebp]

; 136  : 		_ENCSTR(k, _k);

  00013	8a 10		 mov	 dl, BYTE PTR [eax]
  00015	56		 push	 esi
  00016	8b f1		 mov	 esi, ecx
  00018	84 d2		 test	 dl, dl
  0001a	0f 84 cf 01 00
	00		 je	 $LN96@LoadFloat_@2
  00020	80 f2 ed	 xor	 dl, -19			; ffffffedH
  00023	88 55 e4	 mov	 BYTE PTR __k$[ebp], dl
  00026	8a 50 01	 mov	 dl, BYTE PTR [eax+1]
  00029	84 d2		 test	 dl, dl
  0002b	0f 84 b8 01 00
	00		 je	 $LN95@LoadFloat_@2
  00031	b1 ec		 mov	 cl, -20			; ffffffecH
  00033	32 d1		 xor	 dl, cl
  00035	88 55 e5	 mov	 BYTE PTR __k$[ebp+1], dl
  00038	8a 50 02	 mov	 dl, BYTE PTR [eax+2]
  0003b	84 d2		 test	 dl, dl
  0003d	0f 84 a0 01 00
	00		 je	 $LN94@LoadFloat_@2
  00043	80 f2 eb	 xor	 dl, -21			; ffffffebH
  00046	88 55 e6	 mov	 BYTE PTR __k$[ebp+2], dl
  00049	8a 50 03	 mov	 dl, BYTE PTR [eax+3]
  0004c	84 d2		 test	 dl, dl
  0004e	0f 84 89 01 00
	00		 je	 $LN93@LoadFloat_@2
  00054	80 f2 ea	 xor	 dl, -22			; ffffffeaH
  00057	88 55 e7	 mov	 BYTE PTR __k$[ebp+3], dl
  0005a	8a 50 04	 mov	 dl, BYTE PTR [eax+4]
  0005d	84 d2		 test	 dl, dl
  0005f	0f 84 72 01 00
	00		 je	 $LN92@LoadFloat_@2
  00065	80 f2 ed	 xor	 dl, -19			; ffffffedH
  00068	88 55 e8	 mov	 BYTE PTR __k$[ebp+4], dl
  0006b	8a 50 05	 mov	 dl, BYTE PTR [eax+5]
  0006e	84 d2		 test	 dl, dl
  00070	0f 84 5c 01 00
	00		 je	 $LN91@LoadFloat_@2
  00076	32 d1		 xor	 dl, cl
  00078	88 55 e9	 mov	 BYTE PTR __k$[ebp+5], dl
  0007b	8a 50 06	 mov	 dl, BYTE PTR [eax+6]
  0007e	84 d2		 test	 dl, dl
  00080	0f 84 46 01 00
	00		 je	 $LN90@LoadFloat_@2
  00086	80 f2 eb	 xor	 dl, -21			; ffffffebH
  00089	88 55 ea	 mov	 BYTE PTR __k$[ebp+6], dl
  0008c	8a 50 07	 mov	 dl, BYTE PTR [eax+7]
  0008f	84 d2		 test	 dl, dl
  00091	0f 84 2f 01 00
	00		 je	 $LN89@LoadFloat_@2
  00097	80 f2 ea	 xor	 dl, -22			; ffffffeaH
  0009a	88 55 eb	 mov	 BYTE PTR __k$[ebp+7], dl
  0009d	8a 50 08	 mov	 dl, BYTE PTR [eax+8]
  000a0	84 d2		 test	 dl, dl
  000a2	0f 84 18 01 00
	00		 je	 $LN88@LoadFloat_@2
  000a8	80 f2 ed	 xor	 dl, -19			; ffffffedH
  000ab	88 55 ec	 mov	 BYTE PTR __k$[ebp+8], dl
  000ae	8a 50 09	 mov	 dl, BYTE PTR [eax+9]
  000b1	84 d2		 test	 dl, dl
  000b3	0f 84 02 01 00
	00		 je	 $LN87@LoadFloat_@2
  000b9	32 d1		 xor	 dl, cl
  000bb	88 55 ed	 mov	 BYTE PTR __k$[ebp+9], dl
  000be	8a 50 0a	 mov	 dl, BYTE PTR [eax+10]
  000c1	84 d2		 test	 dl, dl
  000c3	0f 84 ec 00 00
	00		 je	 $LN86@LoadFloat_@2
  000c9	80 f2 eb	 xor	 dl, -21			; ffffffebH
  000cc	88 55 ee	 mov	 BYTE PTR __k$[ebp+10], dl
  000cf	8a 50 0b	 mov	 dl, BYTE PTR [eax+11]
  000d2	84 d2		 test	 dl, dl
  000d4	0f 84 d5 00 00
	00		 je	 $LN85@LoadFloat_@2
  000da	80 f2 ea	 xor	 dl, -22			; ffffffeaH
  000dd	88 55 ef	 mov	 BYTE PTR __k$[ebp+11], dl
  000e0	8a 50 0c	 mov	 dl, BYTE PTR [eax+12]
  000e3	84 d2		 test	 dl, dl
  000e5	0f 84 be 00 00
	00		 je	 $LN84@LoadFloat_@2
  000eb	80 f2 ed	 xor	 dl, -19			; ffffffedH
  000ee	88 55 f0	 mov	 BYTE PTR __k$[ebp+12], dl
  000f1	8a 50 0d	 mov	 dl, BYTE PTR [eax+13]
  000f4	84 d2		 test	 dl, dl
  000f6	0f 84 a8 00 00
	00		 je	 $LN83@LoadFloat_@2
  000fc	32 d1		 xor	 dl, cl
  000fe	88 55 f1	 mov	 BYTE PTR __k$[ebp+13], dl
  00101	8a 50 0e	 mov	 dl, BYTE PTR [eax+14]
  00104	84 d2		 test	 dl, dl
  00106	0f 84 92 00 00
	00		 je	 $LN82@LoadFloat_@2
  0010c	80 f2 eb	 xor	 dl, -21			; ffffffebH
  0010f	88 55 f2	 mov	 BYTE PTR __k$[ebp+14], dl
  00112	8a 50 0f	 mov	 dl, BYTE PTR [eax+15]
  00115	84 d2		 test	 dl, dl
  00117	74 7f		 je	 SHORT $LN81@LoadFloat_@2
  00119	80 f2 ea	 xor	 dl, -22			; ffffffeaH
  0011c	88 55 f3	 mov	 BYTE PTR __k$[ebp+15], dl
  0011f	8a 50 10	 mov	 dl, BYTE PTR [eax+16]
  00122	84 d2		 test	 dl, dl
  00124	74 6c		 je	 SHORT $LN80@LoadFloat_@2
  00126	80 f2 ed	 xor	 dl, -19			; ffffffedH
  00129	88 55 f4	 mov	 BYTE PTR __k$[ebp+16], dl
  0012c	8a 50 11	 mov	 dl, BYTE PTR [eax+17]
  0012f	84 d2		 test	 dl, dl
  00131	74 5a		 je	 SHORT $LN79@LoadFloat_@2
  00133	32 d1		 xor	 dl, cl
  00135	80 78 12 00	 cmp	 BYTE PTR [eax+18], 0
  00139	88 55 f5	 mov	 BYTE PTR __k$[ebp+17], dl
  0013c	0f 84 b1 00 00
	00		 je	 $LN1@LoadFloat_@2
  00142	8a 50 13	 mov	 dl, BYTE PTR [eax+19]
  00145	84 d2		 test	 dl, dl
  00147	74 3e		 je	 SHORT $LN77@LoadFloat_@2
  00149	80 f2 ea	 xor	 dl, -22			; ffffffeaH
  0014c	88 55 f7	 mov	 BYTE PTR __k$[ebp+19], dl
  0014f	8a 50 14	 mov	 dl, BYTE PTR [eax+20]
  00152	84 d2		 test	 dl, dl
  00154	74 2b		 je	 SHORT $LN76@LoadFloat_@2
  00156	80 f2 ed	 xor	 dl, -19			; ffffffedH
  00159	88 55 f8	 mov	 BYTE PTR __k$[ebp+20], dl
  0015c	8a 50 15	 mov	 dl, BYTE PTR [eax+21]
  0015f	84 d2		 test	 dl, dl
  00161	74 19		 je	 SHORT $LN75@LoadFloat_@2
  00163	8a 40 16	 mov	 al, BYTE PTR [eax+22]
  00166	32 d1		 xor	 dl, cl
  00168	88 55 f9	 mov	 BYTE PTR __k$[ebp+21], dl
  0016b	84 c0		 test	 al, al
  0016d	74 07		 je	 SHORT $LN74@LoadFloat_@2
  0016f	34 eb		 xor	 al, -21			; ffffffebH
  00171	88 45 fa	 mov	 BYTE PTR __k$[ebp+22], al
  00174	eb 7d		 jmp	 SHORT $LN1@LoadFloat_@2
$LN74@LoadFloat_@2:
  00176	c6 45 fa eb	 mov	 BYTE PTR __k$[ebp+22], -21 ; ffffffebH
  0017a	eb 77		 jmp	 SHORT $LN1@LoadFloat_@2
$LN75@LoadFloat_@2:
  0017c	88 4d f9	 mov	 BYTE PTR __k$[ebp+21], cl
  0017f	eb 72		 jmp	 SHORT $LN1@LoadFloat_@2
$LN76@LoadFloat_@2:
  00181	c6 45 f8 ed	 mov	 BYTE PTR __k$[ebp+20], -19 ; ffffffedH
  00185	eb 6c		 jmp	 SHORT $LN1@LoadFloat_@2
$LN77@LoadFloat_@2:
  00187	c6 45 f7 ea	 mov	 BYTE PTR __k$[ebp+19], -22 ; ffffffeaH
  0018b	eb 66		 jmp	 SHORT $LN1@LoadFloat_@2
$LN79@LoadFloat_@2:
  0018d	88 4d f5	 mov	 BYTE PTR __k$[ebp+17], cl
  00190	eb 61		 jmp	 SHORT $LN1@LoadFloat_@2
$LN80@LoadFloat_@2:
  00192	c6 45 f4 ed	 mov	 BYTE PTR __k$[ebp+16], -19 ; ffffffedH
  00196	eb 5b		 jmp	 SHORT $LN1@LoadFloat_@2
$LN81@LoadFloat_@2:
  00198	c6 45 f3 ea	 mov	 BYTE PTR __k$[ebp+15], -22 ; ffffffeaH
  0019c	eb 55		 jmp	 SHORT $LN1@LoadFloat_@2
$LN82@LoadFloat_@2:
  0019e	c6 45 f2 eb	 mov	 BYTE PTR __k$[ebp+14], -21 ; ffffffebH
  001a2	eb 4f		 jmp	 SHORT $LN1@LoadFloat_@2
$LN83@LoadFloat_@2:
  001a4	88 4d f1	 mov	 BYTE PTR __k$[ebp+13], cl
  001a7	eb 4a		 jmp	 SHORT $LN1@LoadFloat_@2
$LN84@LoadFloat_@2:
  001a9	c6 45 f0 ed	 mov	 BYTE PTR __k$[ebp+12], -19 ; ffffffedH
  001ad	eb 44		 jmp	 SHORT $LN1@LoadFloat_@2
$LN85@LoadFloat_@2:
  001af	c6 45 ef ea	 mov	 BYTE PTR __k$[ebp+11], -22 ; ffffffeaH
  001b3	eb 3e		 jmp	 SHORT $LN1@LoadFloat_@2
$LN86@LoadFloat_@2:
  001b5	c6 45 ee eb	 mov	 BYTE PTR __k$[ebp+10], -21 ; ffffffebH
  001b9	eb 38		 jmp	 SHORT $LN1@LoadFloat_@2
$LN87@LoadFloat_@2:
  001bb	88 4d ed	 mov	 BYTE PTR __k$[ebp+9], cl
  001be	eb 33		 jmp	 SHORT $LN1@LoadFloat_@2
$LN88@LoadFloat_@2:
  001c0	c6 45 ec ed	 mov	 BYTE PTR __k$[ebp+8], -19 ; ffffffedH
  001c4	eb 2d		 jmp	 SHORT $LN1@LoadFloat_@2
$LN89@LoadFloat_@2:
  001c6	c6 45 eb ea	 mov	 BYTE PTR __k$[ebp+7], -22 ; ffffffeaH
  001ca	eb 27		 jmp	 SHORT $LN1@LoadFloat_@2
$LN90@LoadFloat_@2:
  001cc	c6 45 ea eb	 mov	 BYTE PTR __k$[ebp+6], -21 ; ffffffebH
  001d0	eb 21		 jmp	 SHORT $LN1@LoadFloat_@2
$LN91@LoadFloat_@2:
  001d2	88 4d e9	 mov	 BYTE PTR __k$[ebp+5], cl
  001d5	eb 1c		 jmp	 SHORT $LN1@LoadFloat_@2
$LN92@LoadFloat_@2:
  001d7	c6 45 e8 ed	 mov	 BYTE PTR __k$[ebp+4], -19 ; ffffffedH
  001db	eb 16		 jmp	 SHORT $LN1@LoadFloat_@2
$LN93@LoadFloat_@2:
  001dd	c6 45 e7 ea	 mov	 BYTE PTR __k$[ebp+3], -22 ; ffffffeaH
  001e1	eb 10		 jmp	 SHORT $LN1@LoadFloat_@2
$LN94@LoadFloat_@2:
  001e3	c6 45 e6 eb	 mov	 BYTE PTR __k$[ebp+2], -21 ; ffffffebH
  001e7	eb 0a		 jmp	 SHORT $LN1@LoadFloat_@2
$LN95@LoadFloat_@2:
  001e9	c6 45 e5 ec	 mov	 BYTE PTR __k$[ebp+1], -20 ; ffffffecH
  001ed	eb 04		 jmp	 SHORT $LN1@LoadFloat_@2
$LN96@LoadFloat_@2:
  001ef	c6 45 e4 ed	 mov	 BYTE PTR __k$[ebp], -19	; ffffffedH
$LN1@LoadFloat_@2:
  001f3	6a 04		 push	 4
  001f5	8d 45 e4	 lea	 eax, DWORD PTR __k$[ebp]
  001f8	c6 45 f6 00	 mov	 BYTE PTR __k$[ebp+18], 0
  001fc	5a		 pop	 edx
$LL104@LoadFloat_@2:
  001fd	81 30 ed ec eb
	ea		 xor	 DWORD PTR [eax], -353637139 ; eaebecedH
  00203	83 c0 04	 add	 eax, 4
  00206	4a		 dec	 edx
  00207	75 f4		 jne	 SHORT $LL104@LoadFloat_@2
  00209	6a 10		 push	 16			; 00000010H
  0020b	58		 pop	 eax
$LL101@LoadFloat_@2:
  0020c	8b c8		 mov	 ecx, eax
  0020e	81 e1 03 00 00
	80		 and	 ecx, -2147483645	; 80000003H
  00214	79 05		 jns	 SHORT $LN111@LoadFloat_@2
  00216	49		 dec	 ecx
  00217	83 c9 fc	 or	 ecx, -4			; fffffffcH
  0021a	41		 inc	 ecx
$LN111@LoadFloat_@2:
  0021b	b2 ed		 mov	 dl, -19			; ffffffedH
  0021d	2a d1		 sub	 dl, cl
  0021f	30 54 05 e4	 xor	 BYTE PTR __k$[ebp+eax], dl
  00223	40		 inc	 eax
  00224	83 f8 12	 cmp	 eax, 18			; 00000012H
  00227	7c e3		 jl	 SHORT $LL101@LoadFloat_@2

; 137  : 		return LoadFloat(_k, f);

  00229	f3 0f 10 45 0c	 movss	 xmm0, DWORD PTR _f$[ebp]
  0022e	51		 push	 ecx
  0022f	8d 45 e4	 lea	 eax, DWORD PTR __k$[ebp]
  00232	f3 0f 11 04 24	 movss	 DWORD PTR [esp], xmm0
  00237	50		 push	 eax
  00238	8b ce		 mov	 ecx, esi
  0023a	ff 15 00 00 00
	00		 call	 DWORD PTR __imp_?LoadFloat@ioINILoader@@QAEMPBDM@Z

; 138  : 	}

  00240	8b 4d fc	 mov	 ecx, DWORD PTR __$ArrayPad$[ebp]
  00243	33 cd		 xor	 ecx, ebp
  00245	5e		 pop	 esi
  00246	e8 00 00 00 00	 call	 @__security_check_cookie@4
  0024b	c9		 leave
  0024c	c2 08 00	 ret	 8
??$LoadFloat_e@$0BD@@ioINILoader@@QAEMAAY0BD@$$CBDM@Z ENDP ; ioINILoader::LoadFloat_e<19>
_TEXT	ENDS
PUBLIC	__$ArrayPad$
PUBLIC	??$LoadFloat_e@$0BH@@ioINILoader@@QAEMAAY0BH@$$CBDM@Z ; ioINILoader::LoadFloat_e<23>
; Function compile flags: /Ogsp
;	COMDAT ??$LoadFloat_e@$0BH@@ioINILoader@@QAEMAAY0BH@$$CBDM@Z
_TEXT	SEGMENT
__k$ = -32						; size = 23
__$ArrayPad$ = -4					; size = 4
_k$ = 8							; size = 4
_f$ = 12						; size = 4
??$LoadFloat_e@$0BH@@ioINILoader@@QAEMAAY0BH@$$CBDM@Z PROC ; ioINILoader::LoadFloat_e<23>, COMDAT
; _this$ = ecx

; 135  : 	{

  00000	55		 push	 ebp
  00001	8b ec		 mov	 ebp, esp
  00003	83 ec 20	 sub	 esp, 32			; 00000020H
  00006	a1 00 00 00 00	 mov	 eax, DWORD PTR ___security_cookie
  0000b	33 c5		 xor	 eax, ebp
  0000d	89 45 fc	 mov	 DWORD PTR __$ArrayPad$[ebp], eax
  00010	8b 45 08	 mov	 eax, DWORD PTR _k$[ebp]

; 136  : 		_ENCSTR(k, _k);

  00013	8a 10		 mov	 dl, BYTE PTR [eax]
  00015	53		 push	 ebx
  00016	56		 push	 esi
  00017	8b f1		 mov	 esi, ecx
  00019	84 d2		 test	 dl, dl
  0001b	0f 84 2d 02 00
	00		 je	 $LN96@LoadFloat_@3
  00021	80 f2 ed	 xor	 dl, -19			; ffffffedH
  00024	88 55 e0	 mov	 BYTE PTR __k$[ebp], dl
  00027	8a 50 01	 mov	 dl, BYTE PTR [eax+1]
  0002a	84 d2		 test	 dl, dl
  0002c	0f 84 16 02 00
	00		 je	 $LN95@LoadFloat_@3
  00032	b1 ec		 mov	 cl, -20			; ffffffecH
  00034	32 d1		 xor	 dl, cl
  00036	88 55 e1	 mov	 BYTE PTR __k$[ebp+1], dl
  00039	8a 50 02	 mov	 dl, BYTE PTR [eax+2]
  0003c	84 d2		 test	 dl, dl
  0003e	0f 84 fe 01 00
	00		 je	 $LN94@LoadFloat_@3
  00044	80 f2 eb	 xor	 dl, -21			; ffffffebH
  00047	88 55 e2	 mov	 BYTE PTR __k$[ebp+2], dl
  0004a	8a 50 03	 mov	 dl, BYTE PTR [eax+3]
  0004d	84 d2		 test	 dl, dl
  0004f	0f 84 e7 01 00
	00		 je	 $LN93@LoadFloat_@3
  00055	b3 ea		 mov	 bl, -22			; ffffffeaH
  00057	32 d3		 xor	 dl, bl
  00059	88 55 e3	 mov	 BYTE PTR __k$[ebp+3], dl
  0005c	8a 50 04	 mov	 dl, BYTE PTR [eax+4]
  0005f	84 d2		 test	 dl, dl
  00061	0f 84 cf 01 00
	00		 je	 $LN92@LoadFloat_@3
  00067	80 f2 ed	 xor	 dl, -19			; ffffffedH
  0006a	88 55 e4	 mov	 BYTE PTR __k$[ebp+4], dl
  0006d	8a 50 05	 mov	 dl, BYTE PTR [eax+5]
  00070	84 d2		 test	 dl, dl
  00072	0f 84 b9 01 00
	00		 je	 $LN91@LoadFloat_@3
  00078	32 d1		 xor	 dl, cl
  0007a	88 55 e5	 mov	 BYTE PTR __k$[ebp+5], dl
  0007d	8a 50 06	 mov	 dl, BYTE PTR [eax+6]
  00080	84 d2		 test	 dl, dl
  00082	0f 84 a3 01 00
	00		 je	 $LN90@LoadFloat_@3
  00088	80 f2 eb	 xor	 dl, -21			; ffffffebH
  0008b	88 55 e6	 mov	 BYTE PTR __k$[ebp+6], dl
  0008e	8a 50 07	 mov	 dl, BYTE PTR [eax+7]
  00091	84 d2		 test	 dl, dl
  00093	0f 84 8d 01 00
	00		 je	 $LN89@LoadFloat_@3
  00099	32 d3		 xor	 dl, bl
  0009b	88 55 e7	 mov	 BYTE PTR __k$[ebp+7], dl
  0009e	8a 50 08	 mov	 dl, BYTE PTR [eax+8]
  000a1	84 d2		 test	 dl, dl
  000a3	0f 84 77 01 00
	00		 je	 $LN88@LoadFloat_@3
  000a9	80 f2 ed	 xor	 dl, -19			; ffffffedH
  000ac	88 55 e8	 mov	 BYTE PTR __k$[ebp+8], dl
  000af	8a 50 09	 mov	 dl, BYTE PTR [eax+9]
  000b2	84 d2		 test	 dl, dl
  000b4	0f 84 61 01 00
	00		 je	 $LN87@LoadFloat_@3
  000ba	32 d1		 xor	 dl, cl
  000bc	88 55 e9	 mov	 BYTE PTR __k$[ebp+9], dl
  000bf	8a 50 0a	 mov	 dl, BYTE PTR [eax+10]
  000c2	84 d2		 test	 dl, dl
  000c4	0f 84 4b 01 00
	00		 je	 $LN86@LoadFloat_@3
  000ca	80 f2 eb	 xor	 dl, -21			; ffffffebH
  000cd	88 55 ea	 mov	 BYTE PTR __k$[ebp+10], dl
  000d0	8a 50 0b	 mov	 dl, BYTE PTR [eax+11]
  000d3	84 d2		 test	 dl, dl
  000d5	0f 84 35 01 00
	00		 je	 $LN85@LoadFloat_@3
  000db	32 d3		 xor	 dl, bl
  000dd	88 55 eb	 mov	 BYTE PTR __k$[ebp+11], dl
  000e0	8a 50 0c	 mov	 dl, BYTE PTR [eax+12]
  000e3	84 d2		 test	 dl, dl
  000e5	0f 84 1f 01 00
	00		 je	 $LN84@LoadFloat_@3
  000eb	80 f2 ed	 xor	 dl, -19			; ffffffedH
  000ee	88 55 ec	 mov	 BYTE PTR __k$[ebp+12], dl
  000f1	8a 50 0d	 mov	 dl, BYTE PTR [eax+13]
  000f4	84 d2		 test	 dl, dl
  000f6	0f 84 09 01 00
	00		 je	 $LN83@LoadFloat_@3
  000fc	32 d1		 xor	 dl, cl
  000fe	88 55 ed	 mov	 BYTE PTR __k$[ebp+13], dl
  00101	8a 50 0e	 mov	 dl, BYTE PTR [eax+14]
  00104	84 d2		 test	 dl, dl
  00106	0f 84 f3 00 00
	00		 je	 $LN82@LoadFloat_@3
  0010c	80 f2 eb	 xor	 dl, -21			; ffffffebH
  0010f	88 55 ee	 mov	 BYTE PTR __k$[ebp+14], dl
  00112	8a 50 0f	 mov	 dl, BYTE PTR [eax+15]
  00115	84 d2		 test	 dl, dl
  00117	0f 84 dd 00 00
	00		 je	 $LN81@LoadFloat_@3
  0011d	32 d3		 xor	 dl, bl
  0011f	88 55 ef	 mov	 BYTE PTR __k$[ebp+15], dl
  00122	8a 50 10	 mov	 dl, BYTE PTR [eax+16]
  00125	84 d2		 test	 dl, dl
  00127	0f 84 c7 00 00
	00		 je	 $LN80@LoadFloat_@3
  0012d	80 f2 ed	 xor	 dl, -19			; ffffffedH
  00130	88 55 f0	 mov	 BYTE PTR __k$[ebp+16], dl
  00133	8a 50 11	 mov	 dl, BYTE PTR [eax+17]
  00136	84 d2		 test	 dl, dl
  00138	0f 84 b1 00 00
	00		 je	 $LN79@LoadFloat_@3
  0013e	32 d1		 xor	 dl, cl
  00140	88 55 f1	 mov	 BYTE PTR __k$[ebp+17], dl
  00143	8a 50 12	 mov	 dl, BYTE PTR [eax+18]
  00146	84 d2		 test	 dl, dl
  00148	0f 84 9b 00 00
	00		 je	 $LN78@LoadFloat_@3
  0014e	80 f2 eb	 xor	 dl, -21			; ffffffebH
  00151	88 55 f2	 mov	 BYTE PTR __k$[ebp+18], dl
  00154	8a 50 13	 mov	 dl, BYTE PTR [eax+19]
  00157	84 d2		 test	 dl, dl
  00159	0f 84 85 00 00
	00		 je	 $LN77@LoadFloat_@3
  0015f	32 d3		 xor	 dl, bl
  00161	88 55 f3	 mov	 BYTE PTR __k$[ebp+19], dl
  00164	8a 50 14	 mov	 dl, BYTE PTR [eax+20]
  00167	84 d2		 test	 dl, dl
  00169	74 73		 je	 SHORT $LN76@LoadFloat_@3
  0016b	80 f2 ed	 xor	 dl, -19			; ffffffedH
  0016e	88 55 f4	 mov	 BYTE PTR __k$[ebp+20], dl
  00171	8a 50 15	 mov	 dl, BYTE PTR [eax+21]
  00174	84 d2		 test	 dl, dl
  00176	74 61		 je	 SHORT $LN75@LoadFloat_@3
  00178	32 d1		 xor	 dl, cl
  0017a	80 78 16 00	 cmp	 BYTE PTR [eax+22], 0
  0017e	88 55 f5	 mov	 BYTE PTR __k$[ebp+21], dl
  00181	0f 84 cb 00 00
	00		 je	 $LN1@LoadFloat_@3
  00187	8a 50 17	 mov	 dl, BYTE PTR [eax+23]
  0018a	84 d2		 test	 dl, dl
  0018c	74 46		 je	 SHORT $LN73@LoadFloat_@3
  0018e	32 d3		 xor	 dl, bl
  00190	88 55 f7	 mov	 BYTE PTR __k$[ebp+23], dl
  00193	8a 50 18	 mov	 dl, BYTE PTR [eax+24]
  00196	84 d2		 test	 dl, dl
  00198	74 34		 je	 SHORT $LN72@LoadFloat_@3
  0019a	80 f2 ed	 xor	 dl, -19			; ffffffedH
  0019d	88 55 f8	 mov	 BYTE PTR __k$[ebp+24], dl
  001a0	8a 50 19	 mov	 dl, BYTE PTR [eax+25]
  001a3	84 d2		 test	 dl, dl
  001a5	74 1f		 je	 SHORT $LN71@LoadFloat_@3
  001a7	8a 40 1a	 mov	 al, BYTE PTR [eax+26]
  001aa	32 d1		 xor	 dl, cl
  001ac	88 55 f9	 mov	 BYTE PTR __k$[ebp+25], dl
  001af	84 c0		 test	 al, al
  001b1	74 0a		 je	 SHORT $LN70@LoadFloat_@3
  001b3	34 eb		 xor	 al, -21			; ffffffebH
  001b5	88 45 fa	 mov	 BYTE PTR __k$[ebp+26], al
  001b8	e9 95 00 00 00	 jmp	 $LN1@LoadFloat_@3
$LN70@LoadFloat_@3:
  001bd	c6 45 fa eb	 mov	 BYTE PTR __k$[ebp+26], -21 ; ffffffebH
  001c1	e9 8c 00 00 00	 jmp	 $LN1@LoadFloat_@3
$LN71@LoadFloat_@3:
  001c6	88 4d f9	 mov	 BYTE PTR __k$[ebp+25], cl
  001c9	e9 84 00 00 00	 jmp	 $LN1@LoadFloat_@3
$LN72@LoadFloat_@3:
  001ce	c6 45 f8 ed	 mov	 BYTE PTR __k$[ebp+24], -19 ; ffffffedH
  001d2	eb 7e		 jmp	 SHORT $LN1@LoadFloat_@3
$LN73@LoadFloat_@3:
  001d4	88 5d f7	 mov	 BYTE PTR __k$[ebp+23], bl
  001d7	eb 79		 jmp	 SHORT $LN1@LoadFloat_@3
$LN75@LoadFloat_@3:
  001d9	88 4d f5	 mov	 BYTE PTR __k$[ebp+21], cl
  001dc	eb 74		 jmp	 SHORT $LN1@LoadFloat_@3
$LN76@LoadFloat_@3:
  001de	c6 45 f4 ed	 mov	 BYTE PTR __k$[ebp+20], -19 ; ffffffedH
  001e2	eb 6e		 jmp	 SHORT $LN1@LoadFloat_@3
$LN77@LoadFloat_@3:
  001e4	88 5d f3	 mov	 BYTE PTR __k$[ebp+19], bl
  001e7	eb 69		 jmp	 SHORT $LN1@LoadFloat_@3
$LN78@LoadFloat_@3:
  001e9	c6 45 f2 eb	 mov	 BYTE PTR __k$[ebp+18], -21 ; ffffffebH
  001ed	eb 63		 jmp	 SHORT $LN1@LoadFloat_@3
$LN79@LoadFloat_@3:
  001ef	88 4d f1	 mov	 BYTE PTR __k$[ebp+17], cl
  001f2	eb 5e		 jmp	 SHORT $LN1@LoadFloat_@3
$LN80@LoadFloat_@3:
  001f4	c6 45 f0 ed	 mov	 BYTE PTR __k$[ebp+16], -19 ; ffffffedH
  001f8	eb 58		 jmp	 SHORT $LN1@LoadFloat_@3
$LN81@LoadFloat_@3:
  001fa	88 5d ef	 mov	 BYTE PTR __k$[ebp+15], bl
  001fd	eb 53		 jmp	 SHORT $LN1@LoadFloat_@3
$LN82@LoadFloat_@3:
  001ff	c6 45 ee eb	 mov	 BYTE PTR __k$[ebp+14], -21 ; ffffffebH
  00203	eb 4d		 jmp	 SHORT $LN1@LoadFloat_@3
$LN83@LoadFloat_@3:
  00205	88 4d ed	 mov	 BYTE PTR __k$[ebp+13], cl
  00208	eb 48		 jmp	 SHORT $LN1@LoadFloat_@3
$LN84@LoadFloat_@3:
  0020a	c6 45 ec ed	 mov	 BYTE PTR __k$[ebp+12], -19 ; ffffffedH
  0020e	eb 42		 jmp	 SHORT $LN1@LoadFloat_@3
$LN85@LoadFloat_@3:
  00210	88 5d eb	 mov	 BYTE PTR __k$[ebp+11], bl
  00213	eb 3d		 jmp	 SHORT $LN1@LoadFloat_@3
$LN86@LoadFloat_@3:
  00215	c6 45 ea eb	 mov	 BYTE PTR __k$[ebp+10], -21 ; ffffffebH
  00219	eb 37		 jmp	 SHORT $LN1@LoadFloat_@3
$LN87@LoadFloat_@3:
  0021b	88 4d e9	 mov	 BYTE PTR __k$[ebp+9], cl
  0021e	eb 32		 jmp	 SHORT $LN1@LoadFloat_@3
$LN88@LoadFloat_@3:
  00220	c6 45 e8 ed	 mov	 BYTE PTR __k$[ebp+8], -19 ; ffffffedH
  00224	eb 2c		 jmp	 SHORT $LN1@LoadFloat_@3
$LN89@LoadFloat_@3:
  00226	88 5d e7	 mov	 BYTE PTR __k$[ebp+7], bl
  00229	eb 27		 jmp	 SHORT $LN1@LoadFloat_@3
$LN90@LoadFloat_@3:
  0022b	c6 45 e6 eb	 mov	 BYTE PTR __k$[ebp+6], -21 ; ffffffebH
  0022f	eb 21		 jmp	 SHORT $LN1@LoadFloat_@3
$LN91@LoadFloat_@3:
  00231	88 4d e5	 mov	 BYTE PTR __k$[ebp+5], cl
  00234	eb 1c		 jmp	 SHORT $LN1@LoadFloat_@3
$LN92@LoadFloat_@3:
  00236	c6 45 e4 ed	 mov	 BYTE PTR __k$[ebp+4], -19 ; ffffffedH
  0023a	eb 16		 jmp	 SHORT $LN1@LoadFloat_@3
$LN93@LoadFloat_@3:
  0023c	c6 45 e3 ea	 mov	 BYTE PTR __k$[ebp+3], -22 ; ffffffeaH
  00240	eb 10		 jmp	 SHORT $LN1@LoadFloat_@3
$LN94@LoadFloat_@3:
  00242	c6 45 e2 eb	 mov	 BYTE PTR __k$[ebp+2], -21 ; ffffffebH
  00246	eb 0a		 jmp	 SHORT $LN1@LoadFloat_@3
$LN95@LoadFloat_@3:
  00248	c6 45 e1 ec	 mov	 BYTE PTR __k$[ebp+1], -20 ; ffffffecH
  0024c	eb 04		 jmp	 SHORT $LN1@LoadFloat_@3
$LN96@LoadFloat_@3:
  0024e	c6 45 e0 ed	 mov	 BYTE PTR __k$[ebp], -19	; ffffffedH
$LN1@LoadFloat_@3:
  00252	6a 05		 push	 5
  00254	8d 45 e0	 lea	 eax, DWORD PTR __k$[ebp]
  00257	c6 45 f6 00	 mov	 BYTE PTR __k$[ebp+22], 0
  0025b	5a		 pop	 edx
$LL104@LoadFloat_@3:
  0025c	81 30 ed ec eb
	ea		 xor	 DWORD PTR [eax], -353637139 ; eaebecedH
  00262	83 c0 04	 add	 eax, 4
  00265	4a		 dec	 edx
  00266	75 f4		 jne	 SHORT $LL104@LoadFloat_@3
  00268	6a 14		 push	 20			; 00000014H
  0026a	58		 pop	 eax
$LL101@LoadFloat_@3:
  0026b	8b c8		 mov	 ecx, eax
  0026d	81 e1 03 00 00
	80		 and	 ecx, -2147483645	; 80000003H
  00273	79 05		 jns	 SHORT $LN111@LoadFloat_@3
  00275	49		 dec	 ecx
  00276	83 c9 fc	 or	 ecx, -4			; fffffffcH
  00279	41		 inc	 ecx
$LN111@LoadFloat_@3:
  0027a	b2 ed		 mov	 dl, -19			; ffffffedH
  0027c	2a d1		 sub	 dl, cl
  0027e	30 54 05 e0	 xor	 BYTE PTR __k$[ebp+eax], dl
  00282	40		 inc	 eax
  00283	83 f8 16	 cmp	 eax, 22			; 00000016H
  00286	7c e3		 jl	 SHORT $LL101@LoadFloat_@3

; 137  : 		return LoadFloat(_k, f);

  00288	f3 0f 10 45 0c	 movss	 xmm0, DWORD PTR _f$[ebp]
  0028d	51		 push	 ecx
  0028e	8d 45 e0	 lea	 eax, DWORD PTR __k$[ebp]
  00291	f3 0f 11 04 24	 movss	 DWORD PTR [esp], xmm0
  00296	50		 push	 eax
  00297	8b ce		 mov	 ecx, esi
  00299	ff 15 00 00 00
	00		 call	 DWORD PTR __imp_?LoadFloat@ioINILoader@@QAEMPBDM@Z

; 138  : 	}

  0029f	8b 4d fc	 mov	 ecx, DWORD PTR __$ArrayPad$[ebp]
  002a2	5e		 pop	 esi
  002a3	33 cd		 xor	 ecx, ebp
  002a5	5b		 pop	 ebx
  002a6	e8 00 00 00 00	 call	 @__security_check_cookie@4
  002ab	c9		 leave
  002ac	c2 08 00	 ret	 8
??$LoadFloat_e@$0BH@@ioINILoader@@QAEMAAY0BH@$$CBDM@Z ENDP ; ioINILoader::LoadFloat_e<23>
_TEXT	ENDS
PUBLIC	__$ArrayPad$
PUBLIC	??$LoadFloat_e@$0BI@@ioINILoader@@QAEMAAY0BI@$$CBDM@Z ; ioINILoader::LoadFloat_e<24>
; Function compile flags: /Ogsp
;	COMDAT ??$LoadFloat_e@$0BI@@ioINILoader@@QAEMAAY0BI@$$CBDM@Z
_TEXT	SEGMENT
__k$ = -32						; size = 24
__$ArrayPad$ = -4					; size = 4
_k$ = 8							; size = 4
_f$ = 12						; size = 4
??$LoadFloat_e@$0BI@@ioINILoader@@QAEMAAY0BI@$$CBDM@Z PROC ; ioINILoader::LoadFloat_e<24>, COMDAT
; _this$ = ecx

; 135  : 	{

  00000	55		 push	 ebp
  00001	8b ec		 mov	 ebp, esp
  00003	83 ec 20	 sub	 esp, 32			; 00000020H
  00006	a1 00 00 00 00	 mov	 eax, DWORD PTR ___security_cookie
  0000b	33 c5		 xor	 eax, ebp
  0000d	89 45 fc	 mov	 DWORD PTR __$ArrayPad$[ebp], eax
  00010	8b 45 08	 mov	 eax, DWORD PTR _k$[ebp]

; 136  : 		_ENCSTR(k, _k);

  00013	8a 10		 mov	 dl, BYTE PTR [eax]
  00015	53		 push	 ebx
  00016	56		 push	 esi
  00017	8b f1		 mov	 esi, ecx
  00019	84 d2		 test	 dl, dl
  0001b	0f 84 45 02 00
	00		 je	 $LN96@LoadFloat_@4
  00021	80 f2 ed	 xor	 dl, -19			; ffffffedH
  00024	88 55 e0	 mov	 BYTE PTR __k$[ebp], dl
  00027	8a 50 01	 mov	 dl, BYTE PTR [eax+1]
  0002a	84 d2		 test	 dl, dl
  0002c	0f 84 2e 02 00
	00		 je	 $LN95@LoadFloat_@4
  00032	b3 ec		 mov	 bl, -20			; ffffffecH
  00034	32 d3		 xor	 dl, bl
  00036	88 55 e1	 mov	 BYTE PTR __k$[ebp+1], dl
  00039	8a 50 02	 mov	 dl, BYTE PTR [eax+2]
  0003c	84 d2		 test	 dl, dl
  0003e	0f 84 16 02 00
	00		 je	 $LN94@LoadFloat_@4
  00044	b1 eb		 mov	 cl, -21			; ffffffebH
  00046	32 d1		 xor	 dl, cl
  00048	88 55 e2	 mov	 BYTE PTR __k$[ebp+2], dl
  0004b	8a 50 03	 mov	 dl, BYTE PTR [eax+3]
  0004e	84 d2		 test	 dl, dl
  00050	0f 84 fe 01 00
	00		 je	 $LN93@LoadFloat_@4
  00056	80 f2 ea	 xor	 dl, -22			; ffffffeaH
  00059	88 55 e3	 mov	 BYTE PTR __k$[ebp+3], dl
  0005c	8a 50 04	 mov	 dl, BYTE PTR [eax+4]
  0005f	84 d2		 test	 dl, dl
  00061	0f 84 e7 01 00
	00		 je	 $LN92@LoadFloat_@4
  00067	80 f2 ed	 xor	 dl, -19			; ffffffedH
  0006a	88 55 e4	 mov	 BYTE PTR __k$[ebp+4], dl
  0006d	8a 50 05	 mov	 dl, BYTE PTR [eax+5]
  00070	84 d2		 test	 dl, dl
  00072	0f 84 d1 01 00
	00		 je	 $LN91@LoadFloat_@4
  00078	32 d3		 xor	 dl, bl
  0007a	88 55 e5	 mov	 BYTE PTR __k$[ebp+5], dl
  0007d	8a 50 06	 mov	 dl, BYTE PTR [eax+6]
  00080	84 d2		 test	 dl, dl
  00082	0f 84 bc 01 00
	00		 je	 $LN90@LoadFloat_@4
  00088	32 d1		 xor	 dl, cl
  0008a	88 55 e6	 mov	 BYTE PTR __k$[ebp+6], dl
  0008d	8a 50 07	 mov	 dl, BYTE PTR [eax+7]
  00090	84 d2		 test	 dl, dl
  00092	0f 84 a6 01 00
	00		 je	 $LN89@LoadFloat_@4
  00098	80 f2 ea	 xor	 dl, -22			; ffffffeaH
  0009b	88 55 e7	 mov	 BYTE PTR __k$[ebp+7], dl
  0009e	8a 50 08	 mov	 dl, BYTE PTR [eax+8]
  000a1	84 d2		 test	 dl, dl
  000a3	0f 84 8f 01 00
	00		 je	 $LN88@LoadFloat_@4
  000a9	80 f2 ed	 xor	 dl, -19			; ffffffedH
  000ac	88 55 e8	 mov	 BYTE PTR __k$[ebp+8], dl
  000af	8a 50 09	 mov	 dl, BYTE PTR [eax+9]
  000b2	84 d2		 test	 dl, dl
  000b4	0f 84 79 01 00
	00		 je	 $LN87@LoadFloat_@4
  000ba	32 d3		 xor	 dl, bl
  000bc	88 55 e9	 mov	 BYTE PTR __k$[ebp+9], dl
  000bf	8a 50 0a	 mov	 dl, BYTE PTR [eax+10]
  000c2	84 d2		 test	 dl, dl
  000c4	0f 84 64 01 00
	00		 je	 $LN86@LoadFloat_@4
  000ca	32 d1		 xor	 dl, cl
  000cc	88 55 ea	 mov	 BYTE PTR __k$[ebp+10], dl
  000cf	8a 50 0b	 mov	 dl, BYTE PTR [eax+11]
  000d2	84 d2		 test	 dl, dl
  000d4	0f 84 4e 01 00
	00		 je	 $LN85@LoadFloat_@4
  000da	80 f2 ea	 xor	 dl, -22			; ffffffeaH
  000dd	88 55 eb	 mov	 BYTE PTR __k$[ebp+11], dl
  000e0	8a 50 0c	 mov	 dl, BYTE PTR [eax+12]
  000e3	84 d2		 test	 dl, dl
  000e5	0f 84 37 01 00
	00		 je	 $LN84@LoadFloat_@4
  000eb	80 f2 ed	 xor	 dl, -19			; ffffffedH
  000ee	88 55 ec	 mov	 BYTE PTR __k$[ebp+12], dl
  000f1	8a 50 0d	 mov	 dl, BYTE PTR [eax+13]
  000f4	84 d2		 test	 dl, dl
  000f6	0f 84 21 01 00
	00		 je	 $LN83@LoadFloat_@4
  000fc	32 d3		 xor	 dl, bl
  000fe	88 55 ed	 mov	 BYTE PTR __k$[ebp+13], dl
  00101	8a 50 0e	 mov	 dl, BYTE PTR [eax+14]
  00104	84 d2		 test	 dl, dl
  00106	0f 84 0c 01 00
	00		 je	 $LN82@LoadFloat_@4
  0010c	32 d1		 xor	 dl, cl
  0010e	88 55 ee	 mov	 BYTE PTR __k$[ebp+14], dl
  00111	8a 50 0f	 mov	 dl, BYTE PTR [eax+15]
  00114	84 d2		 test	 dl, dl
  00116	0f 84 f6 00 00
	00		 je	 $LN81@LoadFloat_@4
  0011c	80 f2 ea	 xor	 dl, -22			; ffffffeaH
  0011f	88 55 ef	 mov	 BYTE PTR __k$[ebp+15], dl
  00122	8a 50 10	 mov	 dl, BYTE PTR [eax+16]
  00125	84 d2		 test	 dl, dl
  00127	0f 84 df 00 00
	00		 je	 $LN80@LoadFloat_@4
  0012d	80 f2 ed	 xor	 dl, -19			; ffffffedH
  00130	88 55 f0	 mov	 BYTE PTR __k$[ebp+16], dl
  00133	8a 50 11	 mov	 dl, BYTE PTR [eax+17]
  00136	84 d2		 test	 dl, dl
  00138	0f 84 c9 00 00
	00		 je	 $LN79@LoadFloat_@4
  0013e	32 d3		 xor	 dl, bl
  00140	88 55 f1	 mov	 BYTE PTR __k$[ebp+17], dl
  00143	8a 50 12	 mov	 dl, BYTE PTR [eax+18]
  00146	84 d2		 test	 dl, dl
  00148	0f 84 b4 00 00
	00		 je	 $LN78@LoadFloat_@4
  0014e	32 d1		 xor	 dl, cl
  00150	88 55 f2	 mov	 BYTE PTR __k$[ebp+18], dl
  00153	8a 50 13	 mov	 dl, BYTE PTR [eax+19]
  00156	84 d2		 test	 dl, dl
  00158	0f 84 9e 00 00
	00		 je	 $LN77@LoadFloat_@4
  0015e	80 f2 ea	 xor	 dl, -22			; ffffffeaH
  00161	88 55 f3	 mov	 BYTE PTR __k$[ebp+19], dl
  00164	8a 50 14	 mov	 dl, BYTE PTR [eax+20]
  00167	84 d2		 test	 dl, dl
  00169	0f 84 87 00 00
	00		 je	 $LN76@LoadFloat_@4
  0016f	80 f2 ed	 xor	 dl, -19			; ffffffedH
  00172	88 55 f4	 mov	 BYTE PTR __k$[ebp+20], dl
  00175	8a 50 15	 mov	 dl, BYTE PTR [eax+21]
  00178	84 d2		 test	 dl, dl
  0017a	74 75		 je	 SHORT $LN75@LoadFloat_@4
  0017c	32 d3		 xor	 dl, bl
  0017e	88 55 f5	 mov	 BYTE PTR __k$[ebp+21], dl
  00181	8a 50 16	 mov	 dl, BYTE PTR [eax+22]
  00184	84 d2		 test	 dl, dl
  00186	74 64		 je	 SHORT $LN74@LoadFloat_@4
  00188	32 d1		 xor	 dl, cl
  0018a	80 78 17 00	 cmp	 BYTE PTR [eax+23], 0
  0018e	88 55 f6	 mov	 BYTE PTR __k$[ebp+22], dl
  00191	0f 84 d3 00 00
	00		 je	 $LN1@LoadFloat_@4
  00197	8a 50 18	 mov	 dl, BYTE PTR [eax+24]
  0019a	84 d2		 test	 dl, dl
  0019c	74 48		 je	 SHORT $LN72@LoadFloat_@4
  0019e	80 f2 ed	 xor	 dl, -19			; ffffffedH
  001a1	88 55 f8	 mov	 BYTE PTR __k$[ebp+24], dl
  001a4	8a 50 19	 mov	 dl, BYTE PTR [eax+25]
  001a7	84 d2		 test	 dl, dl
  001a9	74 33		 je	 SHORT $LN71@LoadFloat_@4
  001ab	32 d3		 xor	 dl, bl
  001ad	88 55 f9	 mov	 BYTE PTR __k$[ebp+25], dl
  001b0	8a 50 1a	 mov	 dl, BYTE PTR [eax+26]
  001b3	84 d2		 test	 dl, dl
  001b5	74 1f		 je	 SHORT $LN70@LoadFloat_@4
  001b7	8a 40 1b	 mov	 al, BYTE PTR [eax+27]
  001ba	32 d1		 xor	 dl, cl
  001bc	88 55 fa	 mov	 BYTE PTR __k$[ebp+26], dl
  001bf	84 c0		 test	 al, al
  001c1	74 0a		 je	 SHORT $LN69@LoadFloat_@4
  001c3	34 ea		 xor	 al, -22			; ffffffeaH
  001c5	88 45 fb	 mov	 BYTE PTR __k$[ebp+27], al
  001c8	e9 9d 00 00 00	 jmp	 $LN1@LoadFloat_@4
$LN69@LoadFloat_@4:
  001cd	c6 45 fb ea	 mov	 BYTE PTR __k$[ebp+27], -22 ; ffffffeaH
  001d1	e9 94 00 00 00	 jmp	 $LN1@LoadFloat_@4
$LN70@LoadFloat_@4:
  001d6	88 4d fa	 mov	 BYTE PTR __k$[ebp+26], cl
  001d9	e9 8c 00 00 00	 jmp	 $LN1@LoadFloat_@4
$LN71@LoadFloat_@4:
  001de	88 5d f9	 mov	 BYTE PTR __k$[ebp+25], bl
  001e1	e9 84 00 00 00	 jmp	 $LN1@LoadFloat_@4
$LN72@LoadFloat_@4:
  001e6	c6 45 f8 ed	 mov	 BYTE PTR __k$[ebp+24], -19 ; ffffffedH
  001ea	eb 7e		 jmp	 SHORT $LN1@LoadFloat_@4
$LN74@LoadFloat_@4:
  001ec	88 4d f6	 mov	 BYTE PTR __k$[ebp+22], cl
  001ef	eb 79		 jmp	 SHORT $LN1@LoadFloat_@4
$LN75@LoadFloat_@4:
  001f1	88 5d f5	 mov	 BYTE PTR __k$[ebp+21], bl
  001f4	eb 74		 jmp	 SHORT $LN1@LoadFloat_@4
$LN76@LoadFloat_@4:
  001f6	c6 45 f4 ed	 mov	 BYTE PTR __k$[ebp+20], -19 ; ffffffedH
  001fa	eb 6e		 jmp	 SHORT $LN1@LoadFloat_@4
$LN77@LoadFloat_@4:
  001fc	c6 45 f3 ea	 mov	 BYTE PTR __k$[ebp+19], -22 ; ffffffeaH
  00200	eb 68		 jmp	 SHORT $LN1@LoadFloat_@4
$LN78@LoadFloat_@4:
  00202	88 4d f2	 mov	 BYTE PTR __k$[ebp+18], cl
  00205	eb 63		 jmp	 SHORT $LN1@LoadFloat_@4
$LN79@LoadFloat_@4:
  00207	88 5d f1	 mov	 BYTE PTR __k$[ebp+17], bl
  0020a	eb 5e		 jmp	 SHORT $LN1@LoadFloat_@4
$LN80@LoadFloat_@4:
  0020c	c6 45 f0 ed	 mov	 BYTE PTR __k$[ebp+16], -19 ; ffffffedH
  00210	eb 58		 jmp	 SHORT $LN1@LoadFloat_@4
$LN81@LoadFloat_@4:
  00212	c6 45 ef ea	 mov	 BYTE PTR __k$[ebp+15], -22 ; ffffffeaH
  00216	eb 52		 jmp	 SHORT $LN1@LoadFloat_@4
$LN82@LoadFloat_@4:
  00218	88 4d ee	 mov	 BYTE PTR __k$[ebp+14], cl
  0021b	eb 4d		 jmp	 SHORT $LN1@LoadFloat_@4
$LN83@LoadFloat_@4:
  0021d	88 5d ed	 mov	 BYTE PTR __k$[ebp+13], bl
  00220	eb 48		 jmp	 SHORT $LN1@LoadFloat_@4
$LN84@LoadFloat_@4:
  00222	c6 45 ec ed	 mov	 BYTE PTR __k$[ebp+12], -19 ; ffffffedH
  00226	eb 42		 jmp	 SHORT $LN1@LoadFloat_@4
$LN85@LoadFloat_@4:
  00228	c6 45 eb ea	 mov	 BYTE PTR __k$[ebp+11], -22 ; ffffffeaH
  0022c	eb 3c		 jmp	 SHORT $LN1@LoadFloat_@4
$LN86@LoadFloat_@4:
  0022e	88 4d ea	 mov	 BYTE PTR __k$[ebp+10], cl
  00231	eb 37		 jmp	 SHORT $LN1@LoadFloat_@4
$LN87@LoadFloat_@4:
  00233	88 5d e9	 mov	 BYTE PTR __k$[ebp+9], bl
  00236	eb 32		 jmp	 SHORT $LN1@LoadFloat_@4
$LN88@LoadFloat_@4:
  00238	c6 45 e8 ed	 mov	 BYTE PTR __k$[ebp+8], -19 ; ffffffedH
  0023c	eb 2c		 jmp	 SHORT $LN1@LoadFloat_@4
$LN89@LoadFloat_@4:
  0023e	c6 45 e7 ea	 mov	 BYTE PTR __k$[ebp+7], -22 ; ffffffeaH
  00242	eb 26		 jmp	 SHORT $LN1@LoadFloat_@4
$LN90@LoadFloat_@4:
  00244	88 4d e6	 mov	 BYTE PTR __k$[ebp+6], cl
  00247	eb 21		 jmp	 SHORT $LN1@LoadFloat_@4
$LN91@LoadFloat_@4:
  00249	88 5d e5	 mov	 BYTE PTR __k$[ebp+5], bl
  0024c	eb 1c		 jmp	 SHORT $LN1@LoadFloat_@4
$LN92@LoadFloat_@4:
  0024e	c6 45 e4 ed	 mov	 BYTE PTR __k$[ebp+4], -19 ; ffffffedH
  00252	eb 16		 jmp	 SHORT $LN1@LoadFloat_@4
$LN93@LoadFloat_@4:
  00254	c6 45 e3 ea	 mov	 BYTE PTR __k$[ebp+3], -22 ; ffffffeaH
  00258	eb 10		 jmp	 SHORT $LN1@LoadFloat_@4
$LN94@LoadFloat_@4:
  0025a	c6 45 e2 eb	 mov	 BYTE PTR __k$[ebp+2], -21 ; ffffffebH
  0025e	eb 0a		 jmp	 SHORT $LN1@LoadFloat_@4
$LN95@LoadFloat_@4:
  00260	c6 45 e1 ec	 mov	 BYTE PTR __k$[ebp+1], -20 ; ffffffecH
  00264	eb 04		 jmp	 SHORT $LN1@LoadFloat_@4
$LN96@LoadFloat_@4:
  00266	c6 45 e0 ed	 mov	 BYTE PTR __k$[ebp], -19	; ffffffedH
$LN1@LoadFloat_@4:
  0026a	6a 05		 push	 5
  0026c	8d 45 e0	 lea	 eax, DWORD PTR __k$[ebp]
  0026f	c6 45 f7 00	 mov	 BYTE PTR __k$[ebp+23], 0
  00273	5a		 pop	 edx
$LL104@LoadFloat_@4:
  00274	81 30 ed ec eb
	ea		 xor	 DWORD PTR [eax], -353637139 ; eaebecedH
  0027a	83 c0 04	 add	 eax, 4
  0027d	4a		 dec	 edx
  0027e	75 f4		 jne	 SHORT $LL104@LoadFloat_@4
  00280	6a 14		 push	 20			; 00000014H
  00282	58		 pop	 eax
$LL101@LoadFloat_@4:
  00283	8b c8		 mov	 ecx, eax
  00285	81 e1 03 00 00
	80		 and	 ecx, -2147483645	; 80000003H
  0028b	79 05		 jns	 SHORT $LN111@LoadFloat_@4
  0028d	49		 dec	 ecx
  0028e	83 c9 fc	 or	 ecx, -4			; fffffffcH
  00291	41		 inc	 ecx
$LN111@LoadFloat_@4:
  00292	b2 ed		 mov	 dl, -19			; ffffffedH
  00294	2a d1		 sub	 dl, cl
  00296	30 54 05 e0	 xor	 BYTE PTR __k$[ebp+eax], dl
  0029a	40		 inc	 eax
  0029b	83 f8 17	 cmp	 eax, 23			; 00000017H
  0029e	7c e3		 jl	 SHORT $LL101@LoadFloat_@4

; 137  : 		return LoadFloat(_k, f);

  002a0	f3 0f 10 45 0c	 movss	 xmm0, DWORD PTR _f$[ebp]
  002a5	51		 push	 ecx
  002a6	8d 45 e0	 lea	 eax, DWORD PTR __k$[ebp]
  002a9	f3 0f 11 04 24	 movss	 DWORD PTR [esp], xmm0
  002ae	50		 push	 eax
  002af	8b ce		 mov	 ecx, esi
  002b1	ff 15 00 00 00
	00		 call	 DWORD PTR __imp_?LoadFloat@ioINILoader@@QAEMPBDM@Z

; 138  : 	}

  002b7	8b 4d fc	 mov	 ecx, DWORD PTR __$ArrayPad$[ebp]
  002ba	5e		 pop	 esi
  002bb	33 cd		 xor	 ecx, ebp
  002bd	5b		 pop	 ebx
  002be	e8 00 00 00 00	 call	 @__security_check_cookie@4
  002c3	c9		 leave
  002c4	c2 08 00	 ret	 8
??$LoadFloat_e@$0BI@@ioINILoader@@QAEMAAY0BI@$$CBDM@Z ENDP ; ioINILoader::LoadFloat_e<24>
_TEXT	ENDS
PUBLIC	__$ArrayPad$
PUBLIC	??$LoadFloat_e@$0BM@@ioINILoader@@QAEMAAY0BM@$$CBDM@Z ; ioINILoader::LoadFloat_e<28>
; Function compile flags: /Ogsp
;	COMDAT ??$LoadFloat_e@$0BM@@ioINILoader@@QAEMAAY0BM@$$CBDM@Z
_TEXT	SEGMENT
__k$ = -36						; size = 28
__$ArrayPad$ = -4					; size = 4
_k$ = 8							; size = 4
_f$ = 12						; size = 4
??$LoadFloat_e@$0BM@@ioINILoader@@QAEMAAY0BM@$$CBDM@Z PROC ; ioINILoader::LoadFloat_e<28>, COMDAT
; _this$ = ecx

; 135  : 	{

  00000	55		 push	 ebp
  00001	8b ec		 mov	 ebp, esp
  00003	83 ec 24	 sub	 esp, 36			; 00000024H
  00006	a1 00 00 00 00	 mov	 eax, DWORD PTR ___security_cookie
  0000b	33 c5		 xor	 eax, ebp
  0000d	89 45 fc	 mov	 DWORD PTR __$ArrayPad$[ebp], eax
  00010	8b 45 08	 mov	 eax, DWORD PTR _k$[ebp]

; 136  : 		_ENCSTR(k, _k);

  00013	8a 10		 mov	 dl, BYTE PTR [eax]
  00015	53		 push	 ebx
  00016	56		 push	 esi
  00017	8b f1		 mov	 esi, ecx
  00019	84 d2		 test	 dl, dl
  0001b	0f 84 a9 02 00
	00		 je	 $LN96@LoadFloat_@5
  00021	80 f2 ed	 xor	 dl, -19			; ffffffedH
  00024	88 55 dc	 mov	 BYTE PTR __k$[ebp], dl
  00027	8a 50 01	 mov	 dl, BYTE PTR [eax+1]
  0002a	84 d2		 test	 dl, dl
  0002c	0f 84 92 02 00
	00		 je	 $LN95@LoadFloat_@5
  00032	b3 ec		 mov	 bl, -20			; ffffffecH
  00034	32 d3		 xor	 dl, bl
  00036	88 55 dd	 mov	 BYTE PTR __k$[ebp+1], dl
  00039	8a 50 02	 mov	 dl, BYTE PTR [eax+2]
  0003c	84 d2		 test	 dl, dl
  0003e	0f 84 7a 02 00
	00		 je	 $LN94@LoadFloat_@5
  00044	b1 eb		 mov	 cl, -21			; ffffffebH
  00046	32 d1		 xor	 dl, cl
  00048	88 55 de	 mov	 BYTE PTR __k$[ebp+2], dl
  0004b	8a 50 03	 mov	 dl, BYTE PTR [eax+3]
  0004e	84 d2		 test	 dl, dl
  00050	0f 84 62 02 00
	00		 je	 $LN93@LoadFloat_@5
  00056	80 f2 ea	 xor	 dl, -22			; ffffffeaH
  00059	88 55 df	 mov	 BYTE PTR __k$[ebp+3], dl
  0005c	8a 50 04	 mov	 dl, BYTE PTR [eax+4]
  0005f	84 d2		 test	 dl, dl
  00061	0f 84 4b 02 00
	00		 je	 $LN92@LoadFloat_@5
  00067	80 f2 ed	 xor	 dl, -19			; ffffffedH
  0006a	88 55 e0	 mov	 BYTE PTR __k$[ebp+4], dl
  0006d	8a 50 05	 mov	 dl, BYTE PTR [eax+5]
  00070	84 d2		 test	 dl, dl
  00072	0f 84 35 02 00
	00		 je	 $LN91@LoadFloat_@5
  00078	32 d3		 xor	 dl, bl
  0007a	88 55 e1	 mov	 BYTE PTR __k$[ebp+5], dl
  0007d	8a 50 06	 mov	 dl, BYTE PTR [eax+6]
  00080	84 d2		 test	 dl, dl
  00082	0f 84 20 02 00
	00		 je	 $LN90@LoadFloat_@5
  00088	32 d1		 xor	 dl, cl
  0008a	88 55 e2	 mov	 BYTE PTR __k$[ebp+6], dl
  0008d	8a 50 07	 mov	 dl, BYTE PTR [eax+7]
  00090	84 d2		 test	 dl, dl
  00092	0f 84 0a 02 00
	00		 je	 $LN89@LoadFloat_@5
  00098	80 f2 ea	 xor	 dl, -22			; ffffffeaH
  0009b	88 55 e3	 mov	 BYTE PTR __k$[ebp+7], dl
  0009e	8a 50 08	 mov	 dl, BYTE PTR [eax+8]
  000a1	84 d2		 test	 dl, dl
  000a3	0f 84 f3 01 00
	00		 je	 $LN88@LoadFloat_@5
  000a9	80 f2 ed	 xor	 dl, -19			; ffffffedH
  000ac	88 55 e4	 mov	 BYTE PTR __k$[ebp+8], dl
  000af	8a 50 09	 mov	 dl, BYTE PTR [eax+9]
  000b2	84 d2		 test	 dl, dl
  000b4	0f 84 dd 01 00
	00		 je	 $LN87@LoadFloat_@5
  000ba	32 d3		 xor	 dl, bl
  000bc	88 55 e5	 mov	 BYTE PTR __k$[ebp+9], dl
  000bf	8a 50 0a	 mov	 dl, BYTE PTR [eax+10]
  000c2	84 d2		 test	 dl, dl
  000c4	0f 84 c8 01 00
	00		 je	 $LN86@LoadFloat_@5
  000ca	32 d1		 xor	 dl, cl
  000cc	88 55 e6	 mov	 BYTE PTR __k$[ebp+10], dl
  000cf	8a 50 0b	 mov	 dl, BYTE PTR [eax+11]
  000d2	84 d2		 test	 dl, dl
  000d4	0f 84 b2 01 00
	00		 je	 $LN85@LoadFloat_@5
  000da	80 f2 ea	 xor	 dl, -22			; ffffffeaH
  000dd	88 55 e7	 mov	 BYTE PTR __k$[ebp+11], dl
  000e0	8a 50 0c	 mov	 dl, BYTE PTR [eax+12]
  000e3	84 d2		 test	 dl, dl
  000e5	0f 84 9b 01 00
	00		 je	 $LN84@LoadFloat_@5
  000eb	80 f2 ed	 xor	 dl, -19			; ffffffedH
  000ee	88 55 e8	 mov	 BYTE PTR __k$[ebp+12], dl
  000f1	8a 50 0d	 mov	 dl, BYTE PTR [eax+13]
  000f4	84 d2		 test	 dl, dl
  000f6	0f 84 85 01 00
	00		 je	 $LN83@LoadFloat_@5
  000fc	32 d3		 xor	 dl, bl
  000fe	88 55 e9	 mov	 BYTE PTR __k$[ebp+13], dl
  00101	8a 50 0e	 mov	 dl, BYTE PTR [eax+14]
  00104	84 d2		 test	 dl, dl
  00106	0f 84 70 01 00
	00		 je	 $LN82@LoadFloat_@5
  0010c	32 d1		 xor	 dl, cl
  0010e	88 55 ea	 mov	 BYTE PTR __k$[ebp+14], dl
  00111	8a 50 0f	 mov	 dl, BYTE PTR [eax+15]
  00114	84 d2		 test	 dl, dl
  00116	0f 84 5a 01 00
	00		 je	 $LN81@LoadFloat_@5
  0011c	80 f2 ea	 xor	 dl, -22			; ffffffeaH
  0011f	88 55 eb	 mov	 BYTE PTR __k$[ebp+15], dl
  00122	8a 50 10	 mov	 dl, BYTE PTR [eax+16]
  00125	84 d2		 test	 dl, dl
  00127	0f 84 43 01 00
	00		 je	 $LN80@LoadFloat_@5
  0012d	80 f2 ed	 xor	 dl, -19			; ffffffedH
  00130	88 55 ec	 mov	 BYTE PTR __k$[ebp+16], dl
  00133	8a 50 11	 mov	 dl, BYTE PTR [eax+17]
  00136	84 d2		 test	 dl, dl
  00138	0f 84 2d 01 00
	00		 je	 $LN79@LoadFloat_@5
  0013e	32 d3		 xor	 dl, bl
  00140	88 55 ed	 mov	 BYTE PTR __k$[ebp+17], dl
  00143	8a 50 12	 mov	 dl, BYTE PTR [eax+18]
  00146	84 d2		 test	 dl, dl
  00148	0f 84 18 01 00
	00		 je	 $LN78@LoadFloat_@5
  0014e	32 d1		 xor	 dl, cl
  00150	88 55 ee	 mov	 BYTE PTR __k$[ebp+18], dl
  00153	8a 50 13	 mov	 dl, BYTE PTR [eax+19]
  00156	84 d2		 test	 dl, dl
  00158	0f 84 02 01 00
	00		 je	 $LN77@LoadFloat_@5
  0015e	80 f2 ea	 xor	 dl, -22			; ffffffeaH
  00161	88 55 ef	 mov	 BYTE PTR __k$[ebp+19], dl
  00164	8a 50 14	 mov	 dl, BYTE PTR [eax+20]
  00167	84 d2		 test	 dl, dl
  00169	0f 84 eb 00 00
	00		 je	 $LN76@LoadFloat_@5
  0016f	80 f2 ed	 xor	 dl, -19			; ffffffedH
  00172	88 55 f0	 mov	 BYTE PTR __k$[ebp+20], dl
  00175	8a 50 15	 mov	 dl, BYTE PTR [eax+21]
  00178	84 d2		 test	 dl, dl
  0017a	0f 84 d5 00 00
	00		 je	 $LN75@LoadFloat_@5
  00180	32 d3		 xor	 dl, bl
  00182	88 55 f1	 mov	 BYTE PTR __k$[ebp+21], dl
  00185	8a 50 16	 mov	 dl, BYTE PTR [eax+22]
  00188	84 d2		 test	 dl, dl
  0018a	0f 84 c0 00 00
	00		 je	 $LN74@LoadFloat_@5
  00190	32 d1		 xor	 dl, cl
  00192	88 55 f2	 mov	 BYTE PTR __k$[ebp+22], dl
  00195	8a 50 17	 mov	 dl, BYTE PTR [eax+23]
  00198	84 d2		 test	 dl, dl
  0019a	0f 84 aa 00 00
	00		 je	 $LN73@LoadFloat_@5
  001a0	80 f2 ea	 xor	 dl, -22			; ffffffeaH
  001a3	88 55 f3	 mov	 BYTE PTR __k$[ebp+23], dl
  001a6	8a 50 18	 mov	 dl, BYTE PTR [eax+24]
  001a9	84 d2		 test	 dl, dl
  001ab	0f 84 90 00 00
	00		 je	 $LN72@LoadFloat_@5
  001b1	80 f2 ed	 xor	 dl, -19			; ffffffedH
  001b4	88 55 f4	 mov	 BYTE PTR __k$[ebp+24], dl
  001b7	8a 50 19	 mov	 dl, BYTE PTR [eax+25]
  001ba	84 d2		 test	 dl, dl
  001bc	74 7b		 je	 SHORT $LN71@LoadFloat_@5
  001be	32 d3		 xor	 dl, bl
  001c0	88 55 f5	 mov	 BYTE PTR __k$[ebp+25], dl
  001c3	8a 50 1a	 mov	 dl, BYTE PTR [eax+26]
  001c6	84 d2		 test	 dl, dl
  001c8	74 67		 je	 SHORT $LN70@LoadFloat_@5
  001ca	32 d1		 xor	 dl, cl
  001cc	80 78 1b 00	 cmp	 BYTE PTR [eax+27], 0
  001d0	88 55 f6	 mov	 BYTE PTR __k$[ebp+26], dl
  001d3	0f 84 f5 00 00
	00		 je	 $LN1@LoadFloat_@5
  001d9	8a 50 1c	 mov	 dl, BYTE PTR [eax+28]
  001dc	84 d2		 test	 dl, dl
  001de	74 48		 je	 SHORT $LN68@LoadFloat_@5
  001e0	80 f2 ed	 xor	 dl, -19			; ffffffedH
  001e3	88 55 f8	 mov	 BYTE PTR __k$[ebp+28], dl
  001e6	8a 50 1d	 mov	 dl, BYTE PTR [eax+29]
  001e9	84 d2		 test	 dl, dl
  001eb	74 33		 je	 SHORT $LN67@LoadFloat_@5
  001ed	32 d3		 xor	 dl, bl
  001ef	88 55 f9	 mov	 BYTE PTR __k$[ebp+29], dl
  001f2	8a 50 1e	 mov	 dl, BYTE PTR [eax+30]
  001f5	84 d2		 test	 dl, dl
  001f7	74 1f		 je	 SHORT $LN66@LoadFloat_@5
  001f9	8a 40 1f	 mov	 al, BYTE PTR [eax+31]
  001fc	32 d1		 xor	 dl, cl
  001fe	88 55 fa	 mov	 BYTE PTR __k$[ebp+30], dl
  00201	84 c0		 test	 al, al
  00203	74 0a		 je	 SHORT $LN65@LoadFloat_@5
  00205	34 ea		 xor	 al, -22			; ffffffeaH
  00207	88 45 fb	 mov	 BYTE PTR __k$[ebp+31], al
  0020a	e9 bf 00 00 00	 jmp	 $LN1@LoadFloat_@5
$LN65@LoadFloat_@5:
  0020f	c6 45 fb ea	 mov	 BYTE PTR __k$[ebp+31], -22 ; ffffffeaH
  00213	e9 b6 00 00 00	 jmp	 $LN1@LoadFloat_@5
$LN66@LoadFloat_@5:
  00218	88 4d fa	 mov	 BYTE PTR __k$[ebp+30], cl
  0021b	e9 ae 00 00 00	 jmp	 $LN1@LoadFloat_@5
$LN67@LoadFloat_@5:
  00220	88 5d f9	 mov	 BYTE PTR __k$[ebp+29], bl
  00223	e9 a6 00 00 00	 jmp	 $LN1@LoadFloat_@5
$LN68@LoadFloat_@5:
  00228	c6 45 f8 ed	 mov	 BYTE PTR __k$[ebp+28], -19 ; ffffffedH
  0022c	e9 9d 00 00 00	 jmp	 $LN1@LoadFloat_@5
$LN70@LoadFloat_@5:
  00231	88 4d f6	 mov	 BYTE PTR __k$[ebp+26], cl
  00234	e9 95 00 00 00	 jmp	 $LN1@LoadFloat_@5
$LN71@LoadFloat_@5:
  00239	88 5d f5	 mov	 BYTE PTR __k$[ebp+25], bl
  0023c	e9 8d 00 00 00	 jmp	 $LN1@LoadFloat_@5
$LN72@LoadFloat_@5:
  00241	c6 45 f4 ed	 mov	 BYTE PTR __k$[ebp+24], -19 ; ffffffedH
  00245	e9 84 00 00 00	 jmp	 $LN1@LoadFloat_@5
$LN73@LoadFloat_@5:
  0024a	c6 45 f3 ea	 mov	 BYTE PTR __k$[ebp+23], -22 ; ffffffeaH
  0024e	eb 7e		 jmp	 SHORT $LN1@LoadFloat_@5
$LN74@LoadFloat_@5:
  00250	88 4d f2	 mov	 BYTE PTR __k$[ebp+22], cl
  00253	eb 79		 jmp	 SHORT $LN1@LoadFloat_@5
$LN75@LoadFloat_@5:
  00255	88 5d f1	 mov	 BYTE PTR __k$[ebp+21], bl
  00258	eb 74		 jmp	 SHORT $LN1@LoadFloat_@5
$LN76@LoadFloat_@5:
  0025a	c6 45 f0 ed	 mov	 BYTE PTR __k$[ebp+20], -19 ; ffffffedH
  0025e	eb 6e		 jmp	 SHORT $LN1@LoadFloat_@5
$LN77@LoadFloat_@5:
  00260	c6 45 ef ea	 mov	 BYTE PTR __k$[ebp+19], -22 ; ffffffeaH
  00264	eb 68		 jmp	 SHORT $LN1@LoadFloat_@5
$LN78@LoadFloat_@5:
  00266	88 4d ee	 mov	 BYTE PTR __k$[ebp+18], cl
  00269	eb 63		 jmp	 SHORT $LN1@LoadFloat_@5
$LN79@LoadFloat_@5:
  0026b	88 5d ed	 mov	 BYTE PTR __k$[ebp+17], bl
  0026e	eb 5e		 jmp	 SHORT $LN1@LoadFloat_@5
$LN80@LoadFloat_@5:
  00270	c6 45 ec ed	 mov	 BYTE PTR __k$[ebp+16], -19 ; ffffffedH
  00274	eb 58		 jmp	 SHORT $LN1@LoadFloat_@5
$LN81@LoadFloat_@5:
  00276	c6 45 eb ea	 mov	 BYTE PTR __k$[ebp+15], -22 ; ffffffeaH
  0027a	eb 52		 jmp	 SHORT $LN1@LoadFloat_@5
$LN82@LoadFloat_@5:
  0027c	88 4d ea	 mov	 BYTE PTR __k$[ebp+14], cl
  0027f	eb 4d		 jmp	 SHORT $LN1@LoadFloat_@5
$LN83@LoadFloat_@5:
  00281	88 5d e9	 mov	 BYTE PTR __k$[ebp+13], bl
  00284	eb 48		 jmp	 SHORT $LN1@LoadFloat_@5
$LN84@LoadFloat_@5:
  00286	c6 45 e8 ed	 mov	 BYTE PTR __k$[ebp+12], -19 ; ffffffedH
  0028a	eb 42		 jmp	 SHORT $LN1@LoadFloat_@5
$LN85@LoadFloat_@5:
  0028c	c6 45 e7 ea	 mov	 BYTE PTR __k$[ebp+11], -22 ; ffffffeaH
  00290	eb 3c		 jmp	 SHORT $LN1@LoadFloat_@5
$LN86@LoadFloat_@5:
  00292	88 4d e6	 mov	 BYTE PTR __k$[ebp+10], cl
  00295	eb 37		 jmp	 SHORT $LN1@LoadFloat_@5
$LN87@LoadFloat_@5:
  00297	88 5d e5	 mov	 BYTE PTR __k$[ebp+9], bl
  0029a	eb 32		 jmp	 SHORT $LN1@LoadFloat_@5
$LN88@LoadFloat_@5:
  0029c	c6 45 e4 ed	 mov	 BYTE PTR __k$[ebp+8], -19 ; ffffffedH
  002a0	eb 2c		 jmp	 SHORT $LN1@LoadFloat_@5
$LN89@LoadFloat_@5:
  002a2	c6 45 e3 ea	 mov	 BYTE PTR __k$[ebp+7], -22 ; ffffffeaH
  002a6	eb 26		 jmp	 SHORT $LN1@LoadFloat_@5
$LN90@LoadFloat_@5:
  002a8	88 4d e2	 mov	 BYTE PTR __k$[ebp+6], cl
  002ab	eb 21		 jmp	 SHORT $LN1@LoadFloat_@5
$LN91@LoadFloat_@5:
  002ad	88 5d e1	 mov	 BYTE PTR __k$[ebp+5], bl
  002b0	eb 1c		 jmp	 SHORT $LN1@LoadFloat_@5
$LN92@LoadFloat_@5:
  002b2	c6 45 e0 ed	 mov	 BYTE PTR __k$[ebp+4], -19 ; ffffffedH
  002b6	eb 16		 jmp	 SHORT $LN1@LoadFloat_@5
$LN93@LoadFloat_@5:
  002b8	c6 45 df ea	 mov	 BYTE PTR __k$[ebp+3], -22 ; ffffffeaH
  002bc	eb 10		 jmp	 SHORT $LN1@LoadFloat_@5
$LN94@LoadFloat_@5:
  002be	c6 45 de eb	 mov	 BYTE PTR __k$[ebp+2], -21 ; ffffffebH
  002c2	eb 0a		 jmp	 SHORT $LN1@LoadFloat_@5
$LN95@LoadFloat_@5:
  002c4	c6 45 dd ec	 mov	 BYTE PTR __k$[ebp+1], -20 ; ffffffecH
  002c8	eb 04		 jmp	 SHORT $LN1@LoadFloat_@5
$LN96@LoadFloat_@5:
  002ca	c6 45 dc ed	 mov	 BYTE PTR __k$[ebp], -19	; ffffffedH
$LN1@LoadFloat_@5:
  002ce	6a 06		 push	 6
  002d0	8d 45 dc	 lea	 eax, DWORD PTR __k$[ebp]
  002d3	c6 45 f7 00	 mov	 BYTE PTR __k$[ebp+27], 0
  002d7	5a		 pop	 edx
$LL104@LoadFloat_@5:
  002d8	81 30 ed ec eb
	ea		 xor	 DWORD PTR [eax], -353637139 ; eaebecedH
  002de	83 c0 04	 add	 eax, 4
  002e1	4a		 dec	 edx
  002e2	75 f4		 jne	 SHORT $LL104@LoadFloat_@5
  002e4	6a 18		 push	 24			; 00000018H
  002e6	58		 pop	 eax
$LL101@LoadFloat_@5:
  002e7	8b c8		 mov	 ecx, eax
  002e9	81 e1 03 00 00
	80		 and	 ecx, -2147483645	; 80000003H
  002ef	79 05		 jns	 SHORT $LN111@LoadFloat_@5
  002f1	49		 dec	 ecx
  002f2	83 c9 fc	 or	 ecx, -4			; fffffffcH
  002f5	41		 inc	 ecx
$LN111@LoadFloat_@5:
  002f6	b2 ed		 mov	 dl, -19			; ffffffedH
  002f8	2a d1		 sub	 dl, cl
  002fa	30 54 05 dc	 xor	 BYTE PTR __k$[ebp+eax], dl
  002fe	40		 inc	 eax
  002ff	83 f8 1b	 cmp	 eax, 27			; 0000001bH
  00302	7c e3		 jl	 SHORT $LL101@LoadFloat_@5

; 137  : 		return LoadFloat(_k, f);

  00304	f3 0f 10 45 0c	 movss	 xmm0, DWORD PTR _f$[ebp]
  00309	51		 push	 ecx
  0030a	8d 45 dc	 lea	 eax, DWORD PTR __k$[ebp]
  0030d	f3 0f 11 04 24	 movss	 DWORD PTR [esp], xmm0
  00312	50		 push	 eax
  00313	8b ce		 mov	 ecx, esi
  00315	ff 15 00 00 00
	00		 call	 DWORD PTR __imp_?LoadFloat@ioINILoader@@QAEMPBDM@Z

; 138  : 	}

  0031b	8b 4d fc	 mov	 ecx, DWORD PTR __$ArrayPad$[ebp]
  0031e	5e		 pop	 esi
  0031f	33 cd		 xor	 ecx, ebp
  00321	5b		 pop	 ebx
  00322	e8 00 00 00 00	 call	 @__security_check_cookie@4
  00327	c9		 leave
  00328	c2 08 00	 ret	 8
??$LoadFloat_e@$0BM@@ioINILoader@@QAEMAAY0BM@$$CBDM@Z ENDP ; ioINILoader::LoadFloat_e<28>
_TEXT	ENDS
PUBLIC	__$ArrayPad$
PUBLIC	??$LoadFloat_e@$0BO@@ioINILoader@@QAEMAAY0BO@$$CBDM@Z ; ioINILoader::LoadFloat_e<30>
; Function compile flags: /Ogsp
;	COMDAT ??$LoadFloat_e@$0BO@@ioINILoader@@QAEMAAY0BO@$$CBDM@Z
_TEXT	SEGMENT
__k$ = -40						; size = 30
__$ArrayPad$ = -4					; size = 4
_k$ = 8							; size = 4
_f$ = 12						; size = 4
??$LoadFloat_e@$0BO@@ioINILoader@@QAEMAAY0BO@$$CBDM@Z PROC ; ioINILoader::LoadFloat_e<30>, COMDAT
; _this$ = ecx

; 135  : 	{

  00000	55		 push	 ebp
  00001	8b ec		 mov	 ebp, esp
  00003	83 ec 28	 sub	 esp, 40			; 00000028H
  00006	a1 00 00 00 00	 mov	 eax, DWORD PTR ___security_cookie
  0000b	33 c5		 xor	 eax, ebp
  0000d	89 45 fc	 mov	 DWORD PTR __$ArrayPad$[ebp], eax
  00010	8b 45 08	 mov	 eax, DWORD PTR _k$[ebp]

; 136  : 		_ENCSTR(k, _k);

  00013	8a 10		 mov	 dl, BYTE PTR [eax]
  00015	53		 push	 ebx
  00016	56		 push	 esi
  00017	8b f1		 mov	 esi, ecx
  00019	84 d2		 test	 dl, dl
  0001b	0f 84 dd 02 00
	00		 je	 $LN96@LoadFloat_@6
  00021	80 f2 ed	 xor	 dl, -19			; ffffffedH
  00024	88 55 d8	 mov	 BYTE PTR __k$[ebp], dl
  00027	8a 50 01	 mov	 dl, BYTE PTR [eax+1]
  0002a	84 d2		 test	 dl, dl
  0002c	0f 84 c6 02 00
	00		 je	 $LN95@LoadFloat_@6
  00032	80 f2 ec	 xor	 dl, -20			; ffffffecH
  00035	88 55 d9	 mov	 BYTE PTR __k$[ebp+1], dl
  00038	8a 50 02	 mov	 dl, BYTE PTR [eax+2]
  0003b	84 d2		 test	 dl, dl
  0003d	0f 84 af 02 00
	00		 je	 $LN94@LoadFloat_@6
  00043	b1 eb		 mov	 cl, -21			; ffffffebH
  00045	32 d1		 xor	 dl, cl
  00047	88 55 da	 mov	 BYTE PTR __k$[ebp+2], dl
  0004a	8a 50 03	 mov	 dl, BYTE PTR [eax+3]
  0004d	84 d2		 test	 dl, dl
  0004f	0f 84 97 02 00
	00		 je	 $LN93@LoadFloat_@6
  00055	b3 ea		 mov	 bl, -22			; ffffffeaH
  00057	32 d3		 xor	 dl, bl
  00059	88 55 db	 mov	 BYTE PTR __k$[ebp+3], dl
  0005c	8a 50 04	 mov	 dl, BYTE PTR [eax+4]
  0005f	84 d2		 test	 dl, dl
  00061	0f 84 7f 02 00
	00		 je	 $LN92@LoadFloat_@6
  00067	80 f2 ed	 xor	 dl, -19			; ffffffedH
  0006a	88 55 dc	 mov	 BYTE PTR __k$[ebp+4], dl
  0006d	8a 50 05	 mov	 dl, BYTE PTR [eax+5]
  00070	84 d2		 test	 dl, dl
  00072	0f 84 68 02 00
	00		 je	 $LN91@LoadFloat_@6
  00078	80 f2 ec	 xor	 dl, -20			; ffffffecH
  0007b	88 55 dd	 mov	 BYTE PTR __k$[ebp+5], dl
  0007e	8a 50 06	 mov	 dl, BYTE PTR [eax+6]
  00081	84 d2		 test	 dl, dl
  00083	0f 84 52 02 00
	00		 je	 $LN90@LoadFloat_@6
  00089	32 d1		 xor	 dl, cl
  0008b	88 55 de	 mov	 BYTE PTR __k$[ebp+6], dl
  0008e	8a 50 07	 mov	 dl, BYTE PTR [eax+7]
  00091	84 d2		 test	 dl, dl
  00093	0f 84 3d 02 00
	00		 je	 $LN89@LoadFloat_@6
  00099	32 d3		 xor	 dl, bl
  0009b	88 55 df	 mov	 BYTE PTR __k$[ebp+7], dl
  0009e	8a 50 08	 mov	 dl, BYTE PTR [eax+8]
  000a1	84 d2		 test	 dl, dl
  000a3	0f 84 27 02 00
	00		 je	 $LN88@LoadFloat_@6
  000a9	80 f2 ed	 xor	 dl, -19			; ffffffedH
  000ac	88 55 e0	 mov	 BYTE PTR __k$[ebp+8], dl
  000af	8a 50 09	 mov	 dl, BYTE PTR [eax+9]
  000b2	84 d2		 test	 dl, dl
  000b4	0f 84 10 02 00
	00		 je	 $LN87@LoadFloat_@6
  000ba	80 f2 ec	 xor	 dl, -20			; ffffffecH
  000bd	88 55 e1	 mov	 BYTE PTR __k$[ebp+9], dl
  000c0	8a 50 0a	 mov	 dl, BYTE PTR [eax+10]
  000c3	84 d2		 test	 dl, dl
  000c5	0f 84 fa 01 00
	00		 je	 $LN86@LoadFloat_@6
  000cb	32 d1		 xor	 dl, cl
  000cd	88 55 e2	 mov	 BYTE PTR __k$[ebp+10], dl
  000d0	8a 50 0b	 mov	 dl, BYTE PTR [eax+11]
  000d3	84 d2		 test	 dl, dl
  000d5	0f 84 e5 01 00
	00		 je	 $LN85@LoadFloat_@6
  000db	32 d3		 xor	 dl, bl
  000dd	88 55 e3	 mov	 BYTE PTR __k$[ebp+11], dl
  000e0	8a 50 0c	 mov	 dl, BYTE PTR [eax+12]
  000e3	84 d2		 test	 dl, dl
  000e5	0f 84 cf 01 00
	00		 je	 $LN84@LoadFloat_@6
  000eb	80 f2 ed	 xor	 dl, -19			; ffffffedH
  000ee	88 55 e4	 mov	 BYTE PTR __k$[ebp+12], dl
  000f1	8a 50 0d	 mov	 dl, BYTE PTR [eax+13]
  000f4	84 d2		 test	 dl, dl
  000f6	0f 84 b8 01 00
	00		 je	 $LN83@LoadFloat_@6
  000fc	80 f2 ec	 xor	 dl, -20			; ffffffecH
  000ff	88 55 e5	 mov	 BYTE PTR __k$[ebp+13], dl
  00102	8a 50 0e	 mov	 dl, BYTE PTR [eax+14]
  00105	84 d2		 test	 dl, dl
  00107	0f 84 a2 01 00
	00		 je	 $LN82@LoadFloat_@6
  0010d	32 d1		 xor	 dl, cl
  0010f	88 55 e6	 mov	 BYTE PTR __k$[ebp+14], dl
  00112	8a 50 0f	 mov	 dl, BYTE PTR [eax+15]
  00115	84 d2		 test	 dl, dl
  00117	0f 84 8d 01 00
	00		 je	 $LN81@LoadFloat_@6
  0011d	32 d3		 xor	 dl, bl
  0011f	88 55 e7	 mov	 BYTE PTR __k$[ebp+15], dl
  00122	8a 50 10	 mov	 dl, BYTE PTR [eax+16]
  00125	84 d2		 test	 dl, dl
  00127	0f 84 77 01 00
	00		 je	 $LN80@LoadFloat_@6
  0012d	80 f2 ed	 xor	 dl, -19			; ffffffedH
  00130	88 55 e8	 mov	 BYTE PTR __k$[ebp+16], dl
  00133	8a 50 11	 mov	 dl, BYTE PTR [eax+17]
  00136	84 d2		 test	 dl, dl
  00138	0f 84 60 01 00
	00		 je	 $LN79@LoadFloat_@6
  0013e	80 f2 ec	 xor	 dl, -20			; ffffffecH
  00141	88 55 e9	 mov	 BYTE PTR __k$[ebp+17], dl
  00144	8a 50 12	 mov	 dl, BYTE PTR [eax+18]
  00147	84 d2		 test	 dl, dl
  00149	0f 84 4a 01 00
	00		 je	 $LN78@LoadFloat_@6
  0014f	32 d1		 xor	 dl, cl
  00151	88 55 ea	 mov	 BYTE PTR __k$[ebp+18], dl
  00154	8a 50 13	 mov	 dl, BYTE PTR [eax+19]
  00157	84 d2		 test	 dl, dl
  00159	0f 84 35 01 00
	00		 je	 $LN77@LoadFloat_@6
  0015f	32 d3		 xor	 dl, bl
  00161	88 55 eb	 mov	 BYTE PTR __k$[ebp+19], dl
  00164	8a 50 14	 mov	 dl, BYTE PTR [eax+20]
  00167	84 d2		 test	 dl, dl
  00169	0f 84 1f 01 00
	00		 je	 $LN76@LoadFloat_@6
  0016f	80 f2 ed	 xor	 dl, -19			; ffffffedH
  00172	88 55 ec	 mov	 BYTE PTR __k$[ebp+20], dl
  00175	8a 50 15	 mov	 dl, BYTE PTR [eax+21]
  00178	84 d2		 test	 dl, dl
  0017a	0f 84 08 01 00
	00		 je	 $LN75@LoadFloat_@6
  00180	80 f2 ec	 xor	 dl, -20			; ffffffecH
  00183	88 55 ed	 mov	 BYTE PTR __k$[ebp+21], dl
  00186	8a 50 16	 mov	 dl, BYTE PTR [eax+22]
  00189	84 d2		 test	 dl, dl
  0018b	0f 84 f2 00 00
	00		 je	 $LN74@LoadFloat_@6
  00191	32 d1		 xor	 dl, cl
  00193	88 55 ee	 mov	 BYTE PTR __k$[ebp+22], dl
  00196	8a 50 17	 mov	 dl, BYTE PTR [eax+23]
  00199	84 d2		 test	 dl, dl
  0019b	0f 84 dd 00 00
	00		 je	 $LN73@LoadFloat_@6
  001a1	32 d3		 xor	 dl, bl
  001a3	88 55 ef	 mov	 BYTE PTR __k$[ebp+23], dl
  001a6	8a 50 18	 mov	 dl, BYTE PTR [eax+24]
  001a9	84 d2		 test	 dl, dl
  001ab	0f 84 c4 00 00
	00		 je	 $LN72@LoadFloat_@6
  001b1	80 f2 ed	 xor	 dl, -19			; ffffffedH
  001b4	88 55 f0	 mov	 BYTE PTR __k$[ebp+24], dl
  001b7	8a 50 19	 mov	 dl, BYTE PTR [eax+25]
  001ba	84 d2		 test	 dl, dl
  001bc	0f 84 aa 00 00
	00		 je	 $LN71@LoadFloat_@6
  001c2	80 f2 ec	 xor	 dl, -20			; ffffffecH
  001c5	88 55 f1	 mov	 BYTE PTR __k$[ebp+25], dl
  001c8	8a 50 1a	 mov	 dl, BYTE PTR [eax+26]
  001cb	84 d2		 test	 dl, dl
  001cd	0f 84 91 00 00
	00		 je	 $LN70@LoadFloat_@6
  001d3	32 d1		 xor	 dl, cl
  001d5	88 55 f2	 mov	 BYTE PTR __k$[ebp+26], dl
  001d8	8a 50 1b	 mov	 dl, BYTE PTR [eax+27]
  001db	84 d2		 test	 dl, dl
  001dd	74 7d		 je	 SHORT $LN69@LoadFloat_@6
  001df	32 d3		 xor	 dl, bl
  001e1	88 55 f3	 mov	 BYTE PTR __k$[ebp+27], dl
  001e4	8a 50 1c	 mov	 dl, BYTE PTR [eax+28]
  001e7	84 d2		 test	 dl, dl
  001e9	74 68		 je	 SHORT $LN68@LoadFloat_@6
  001eb	80 f2 ed	 xor	 dl, -19			; ffffffedH
  001ee	80 78 1d 00	 cmp	 BYTE PTR [eax+29], 0
  001f2	88 55 f4	 mov	 BYTE PTR __k$[ebp+28], dl
  001f5	0f 84 07 01 00
	00		 je	 $LN1@LoadFloat_@6
  001fb	8a 50 1e	 mov	 dl, BYTE PTR [eax+30]
  001fe	84 d2		 test	 dl, dl
  00200	74 49		 je	 SHORT $LN66@LoadFloat_@6
  00202	32 d1		 xor	 dl, cl
  00204	88 55 f6	 mov	 BYTE PTR __k$[ebp+30], dl
  00207	8a 50 1f	 mov	 dl, BYTE PTR [eax+31]
  0020a	84 d2		 test	 dl, dl
  0020c	74 35		 je	 SHORT $LN65@LoadFloat_@6
  0020e	32 d3		 xor	 dl, bl
  00210	88 55 f7	 mov	 BYTE PTR __k$[ebp+31], dl
  00213	8a 50 20	 mov	 dl, BYTE PTR [eax+32]
  00216	84 d2		 test	 dl, dl
  00218	74 20		 je	 SHORT $LN64@LoadFloat_@6
  0021a	8a 40 21	 mov	 al, BYTE PTR [eax+33]
  0021d	80 f2 ed	 xor	 dl, -19			; ffffffedH
  00220	88 55 f8	 mov	 BYTE PTR __k$[ebp+32], dl
  00223	84 c0		 test	 al, al
  00225	74 0a		 je	 SHORT $LN63@LoadFloat_@6
  00227	34 ec		 xor	 al, -20			; ffffffecH
  00229	88 45 f9	 mov	 BYTE PTR __k$[ebp+33], al
  0022c	e9 d1 00 00 00	 jmp	 $LN1@LoadFloat_@6
$LN63@LoadFloat_@6:
  00231	c6 45 f9 ec	 mov	 BYTE PTR __k$[ebp+33], -20 ; ffffffecH
  00235	e9 c8 00 00 00	 jmp	 $LN1@LoadFloat_@6
$LN64@LoadFloat_@6:
  0023a	c6 45 f8 ed	 mov	 BYTE PTR __k$[ebp+32], -19 ; ffffffedH
  0023e	e9 bf 00 00 00	 jmp	 $LN1@LoadFloat_@6
$LN65@LoadFloat_@6:
  00243	88 5d f7	 mov	 BYTE PTR __k$[ebp+31], bl
  00246	e9 b7 00 00 00	 jmp	 $LN1@LoadFloat_@6
$LN66@LoadFloat_@6:
  0024b	88 4d f6	 mov	 BYTE PTR __k$[ebp+30], cl
  0024e	e9 af 00 00 00	 jmp	 $LN1@LoadFloat_@6
$LN68@LoadFloat_@6:
  00253	c6 45 f4 ed	 mov	 BYTE PTR __k$[ebp+28], -19 ; ffffffedH
  00257	e9 a6 00 00 00	 jmp	 $LN1@LoadFloat_@6
$LN69@LoadFloat_@6:
  0025c	88 5d f3	 mov	 BYTE PTR __k$[ebp+27], bl
  0025f	e9 9e 00 00 00	 jmp	 $LN1@LoadFloat_@6
$LN70@LoadFloat_@6:
  00264	88 4d f2	 mov	 BYTE PTR __k$[ebp+26], cl
  00267	e9 96 00 00 00	 jmp	 $LN1@LoadFloat_@6
$LN71@LoadFloat_@6:
  0026c	c6 45 f1 ec	 mov	 BYTE PTR __k$[ebp+25], -20 ; ffffffecH
  00270	e9 8d 00 00 00	 jmp	 $LN1@LoadFloat_@6
$LN72@LoadFloat_@6:
  00275	c6 45 f0 ed	 mov	 BYTE PTR __k$[ebp+24], -19 ; ffffffedH
  00279	e9 84 00 00 00	 jmp	 $LN1@LoadFloat_@6
$LN73@LoadFloat_@6:
  0027e	88 5d ef	 mov	 BYTE PTR __k$[ebp+23], bl
  00281	eb 7f		 jmp	 SHORT $LN1@LoadFloat_@6
$LN74@LoadFloat_@6:
  00283	88 4d ee	 mov	 BYTE PTR __k$[ebp+22], cl
  00286	eb 7a		 jmp	 SHORT $LN1@LoadFloat_@6
$LN75@LoadFloat_@6:
  00288	c6 45 ed ec	 mov	 BYTE PTR __k$[ebp+21], -20 ; ffffffecH
  0028c	eb 74		 jmp	 SHORT $LN1@LoadFloat_@6
$LN76@LoadFloat_@6:
  0028e	c6 45 ec ed	 mov	 BYTE PTR __k$[ebp+20], -19 ; ffffffedH
  00292	eb 6e		 jmp	 SHORT $LN1@LoadFloat_@6
$LN77@LoadFloat_@6:
  00294	88 5d eb	 mov	 BYTE PTR __k$[ebp+19], bl
  00297	eb 69		 jmp	 SHORT $LN1@LoadFloat_@6
$LN78@LoadFloat_@6:
  00299	88 4d ea	 mov	 BYTE PTR __k$[ebp+18], cl
  0029c	eb 64		 jmp	 SHORT $LN1@LoadFloat_@6
$LN79@LoadFloat_@6:
  0029e	c6 45 e9 ec	 mov	 BYTE PTR __k$[ebp+17], -20 ; ffffffecH
  002a2	eb 5e		 jmp	 SHORT $LN1@LoadFloat_@6
$LN80@LoadFloat_@6:
  002a4	c6 45 e8 ed	 mov	 BYTE PTR __k$[ebp+16], -19 ; ffffffedH
  002a8	eb 58		 jmp	 SHORT $LN1@LoadFloat_@6
$LN81@LoadFloat_@6:
  002aa	88 5d e7	 mov	 BYTE PTR __k$[ebp+15], bl
  002ad	eb 53		 jmp	 SHORT $LN1@LoadFloat_@6
$LN82@LoadFloat_@6:
  002af	88 4d e6	 mov	 BYTE PTR __k$[ebp+14], cl
  002b2	eb 4e		 jmp	 SHORT $LN1@LoadFloat_@6
$LN83@LoadFloat_@6:
  002b4	c6 45 e5 ec	 mov	 BYTE PTR __k$[ebp+13], -20 ; ffffffecH
  002b8	eb 48		 jmp	 SHORT $LN1@LoadFloat_@6
$LN84@LoadFloat_@6:
  002ba	c6 45 e4 ed	 mov	 BYTE PTR __k$[ebp+12], -19 ; ffffffedH
  002be	eb 42		 jmp	 SHORT $LN1@LoadFloat_@6
$LN85@LoadFloat_@6:
  002c0	88 5d e3	 mov	 BYTE PTR __k$[ebp+11], bl
  002c3	eb 3d		 jmp	 SHORT $LN1@LoadFloat_@6
$LN86@LoadFloat_@6:
  002c5	88 4d e2	 mov	 BYTE PTR __k$[ebp+10], cl
  002c8	eb 38		 jmp	 SHORT $LN1@LoadFloat_@6
$LN87@LoadFloat_@6:
  002ca	c6 45 e1 ec	 mov	 BYTE PTR __k$[ebp+9], -20 ; ffffffecH
  002ce	eb 32		 jmp	 SHORT $LN1@LoadFloat_@6
$LN88@LoadFloat_@6:
  002d0	c6 45 e0 ed	 mov	 BYTE PTR __k$[ebp+8], -19 ; ffffffedH
  002d4	eb 2c		 jmp	 SHORT $LN1@LoadFloat_@6
$LN89@LoadFloat_@6:
  002d6	88 5d df	 mov	 BYTE PTR __k$[ebp+7], bl
  002d9	eb 27		 jmp	 SHORT $LN1@LoadFloat_@6
$LN90@LoadFloat_@6:
  002db	88 4d de	 mov	 BYTE PTR __k$[ebp+6], cl
  002de	eb 22		 jmp	 SHORT $LN1@LoadFloat_@6
$LN91@LoadFloat_@6:
  002e0	c6 45 dd ec	 mov	 BYTE PTR __k$[ebp+5], -20 ; ffffffecH
  002e4	eb 1c		 jmp	 SHORT $LN1@LoadFloat_@6
$LN92@LoadFloat_@6:
  002e6	c6 45 dc ed	 mov	 BYTE PTR __k$[ebp+4], -19 ; ffffffedH
  002ea	eb 16		 jmp	 SHORT $LN1@LoadFloat_@6
$LN93@LoadFloat_@6:
  002ec	c6 45 db ea	 mov	 BYTE PTR __k$[ebp+3], -22 ; ffffffeaH
  002f0	eb 10		 jmp	 SHORT $LN1@LoadFloat_@6
$LN94@LoadFloat_@6:
  002f2	c6 45 da eb	 mov	 BYTE PTR __k$[ebp+2], -21 ; ffffffebH
  002f6	eb 0a		 jmp	 SHORT $LN1@LoadFloat_@6
$LN95@LoadFloat_@6:
  002f8	c6 45 d9 ec	 mov	 BYTE PTR __k$[ebp+1], -20 ; ffffffecH
  002fc	eb 04		 jmp	 SHORT $LN1@LoadFloat_@6
$LN96@LoadFloat_@6:
  002fe	c6 45 d8 ed	 mov	 BYTE PTR __k$[ebp], -19	; ffffffedH
$LN1@LoadFloat_@6:
  00302	6a 07		 push	 7
  00304	8d 45 d8	 lea	 eax, DWORD PTR __k$[ebp]
  00307	c6 45 f5 00	 mov	 BYTE PTR __k$[ebp+29], 0
  0030b	5a		 pop	 edx
$LL104@LoadFloat_@6:
  0030c	81 30 ed ec eb
	ea		 xor	 DWORD PTR [eax], -353637139 ; eaebecedH
  00312	83 c0 04	 add	 eax, 4
  00315	4a		 dec	 edx
  00316	75 f4		 jne	 SHORT $LL104@LoadFloat_@6

; 137  : 		return LoadFloat(_k, f);

  00318	f3 0f 10 45 0c	 movss	 xmm0, DWORD PTR _f$[ebp]
  0031d	80 75 f4 ed	 xor	 BYTE PTR __k$[ebp+28], -19 ; ffffffedH
  00321	51		 push	 ecx
  00322	8d 45 d8	 lea	 eax, DWORD PTR __k$[ebp]
  00325	f3 0f 11 04 24	 movss	 DWORD PTR [esp], xmm0
  0032a	50		 push	 eax
  0032b	8b ce		 mov	 ecx, esi
  0032d	ff 15 00 00 00
	00		 call	 DWORD PTR __imp_?LoadFloat@ioINILoader@@QAEMPBDM@Z

; 138  : 	}

  00333	8b 4d fc	 mov	 ecx, DWORD PTR __$ArrayPad$[ebp]
  00336	5e		 pop	 esi
  00337	33 cd		 xor	 ecx, ebp
  00339	5b		 pop	 ebx
  0033a	e8 00 00 00 00	 call	 @__security_check_cookie@4
  0033f	c9		 leave
  00340	c2 08 00	 ret	 8
??$LoadFloat_e@$0BO@@ioINILoader@@QAEMAAY0BO@$$CBDM@Z ENDP ; ioINILoader::LoadFloat_e<30>
_TEXT	ENDS
PUBLIC	__$ArrayPad$
PUBLIC	??$LoadFloat_e@$0CB@@ioINILoader@@QAEMAAY0CB@$$CBDM@Z ; ioINILoader::LoadFloat_e<33>
; Function compile flags: /Ogsp
;	COMDAT ??$LoadFloat_e@$0CB@@ioINILoader@@QAEMAAY0CB@$$CBDM@Z
_TEXT	SEGMENT
__k$ = -44						; size = 33
__$ArrayPad$ = -4					; size = 4
_k$ = 8							; size = 4
_f$ = 12						; size = 4
??$LoadFloat_e@$0CB@@ioINILoader@@QAEMAAY0CB@$$CBDM@Z PROC ; ioINILoader::LoadFloat_e<33>, COMDAT
; _this$ = ecx

; 135  : 	{

  00000	55		 push	 ebp
  00001	8b ec		 mov	 ebp, esp
  00003	83 ec 2c	 sub	 esp, 44			; 0000002cH
  00006	a1 00 00 00 00	 mov	 eax, DWORD PTR ___security_cookie
  0000b	33 c5		 xor	 eax, ebp
  0000d	89 45 fc	 mov	 DWORD PTR __$ArrayPad$[ebp], eax
  00010	8b 45 08	 mov	 eax, DWORD PTR _k$[ebp]

; 136  : 		_ENCSTR(k, _k);

  00013	8a 10		 mov	 dl, BYTE PTR [eax]
  00015	53		 push	 ebx
  00016	56		 push	 esi
  00017	8b f1		 mov	 esi, ecx
  00019	84 d2		 test	 dl, dl
  0001b	0f 84 27 03 00
	00		 je	 $LN96@LoadFloat_@7
  00021	80 f2 ed	 xor	 dl, -19			; ffffffedH
  00024	88 55 d4	 mov	 BYTE PTR __k$[ebp], dl
  00027	8a 50 01	 mov	 dl, BYTE PTR [eax+1]
  0002a	84 d2		 test	 dl, dl
  0002c	0f 84 10 03 00
	00		 je	 $LN95@LoadFloat_@7
  00032	b1 ec		 mov	 cl, -20			; ffffffecH
  00034	32 d1		 xor	 dl, cl
  00036	88 55 d5	 mov	 BYTE PTR __k$[ebp+1], dl
  00039	8a 50 02	 mov	 dl, BYTE PTR [eax+2]
  0003c	84 d2		 test	 dl, dl
  0003e	0f 84 f8 02 00
	00		 je	 $LN94@LoadFloat_@7
  00044	b3 eb		 mov	 bl, -21			; ffffffebH
  00046	32 d3		 xor	 dl, bl
  00048	88 55 d6	 mov	 BYTE PTR __k$[ebp+2], dl
  0004b	8a 50 03	 mov	 dl, BYTE PTR [eax+3]
  0004e	84 d2		 test	 dl, dl
  00050	0f 84 e0 02 00
	00		 je	 $LN93@LoadFloat_@7
  00056	80 f2 ea	 xor	 dl, -22			; ffffffeaH
  00059	88 55 d7	 mov	 BYTE PTR __k$[ebp+3], dl
  0005c	8a 50 04	 mov	 dl, BYTE PTR [eax+4]
  0005f	84 d2		 test	 dl, dl
  00061	0f 84 c9 02 00
	00		 je	 $LN92@LoadFloat_@7
  00067	80 f2 ed	 xor	 dl, -19			; ffffffedH
  0006a	88 55 d8	 mov	 BYTE PTR __k$[ebp+4], dl
  0006d	8a 50 05	 mov	 dl, BYTE PTR [eax+5]
  00070	84 d2		 test	 dl, dl
  00072	0f 84 b3 02 00
	00		 je	 $LN91@LoadFloat_@7
  00078	32 d1		 xor	 dl, cl
  0007a	88 55 d9	 mov	 BYTE PTR __k$[ebp+5], dl
  0007d	8a 50 06	 mov	 dl, BYTE PTR [eax+6]
  00080	84 d2		 test	 dl, dl
  00082	0f 84 9e 02 00
	00		 je	 $LN90@LoadFloat_@7
  00088	32 d3		 xor	 dl, bl
  0008a	88 55 da	 mov	 BYTE PTR __k$[ebp+6], dl
  0008d	8a 50 07	 mov	 dl, BYTE PTR [eax+7]
  00090	84 d2		 test	 dl, dl
  00092	0f 84 88 02 00
	00		 je	 $LN89@LoadFloat_@7
  00098	80 f2 ea	 xor	 dl, -22			; ffffffeaH
  0009b	88 55 db	 mov	 BYTE PTR __k$[ebp+7], dl
  0009e	8a 50 08	 mov	 dl, BYTE PTR [eax+8]
  000a1	84 d2		 test	 dl, dl
  000a3	0f 84 71 02 00
	00		 je	 $LN88@LoadFloat_@7
  000a9	80 f2 ed	 xor	 dl, -19			; ffffffedH
  000ac	88 55 dc	 mov	 BYTE PTR __k$[ebp+8], dl
  000af	8a 50 09	 mov	 dl, BYTE PTR [eax+9]
  000b2	84 d2		 test	 dl, dl
  000b4	0f 84 5b 02 00
	00		 je	 $LN87@LoadFloat_@7
  000ba	32 d1		 xor	 dl, cl
  000bc	88 55 dd	 mov	 BYTE PTR __k$[ebp+9], dl
  000bf	8a 50 0a	 mov	 dl, BYTE PTR [eax+10]
  000c2	84 d2		 test	 dl, dl
  000c4	0f 84 46 02 00
	00		 je	 $LN86@LoadFloat_@7
  000ca	32 d3		 xor	 dl, bl
  000cc	88 55 de	 mov	 BYTE PTR __k$[ebp+10], dl
  000cf	8a 50 0b	 mov	 dl, BYTE PTR [eax+11]
  000d2	84 d2		 test	 dl, dl
  000d4	0f 84 30 02 00
	00		 je	 $LN85@LoadFloat_@7
  000da	80 f2 ea	 xor	 dl, -22			; ffffffeaH
  000dd	88 55 df	 mov	 BYTE PTR __k$[ebp+11], dl
  000e0	8a 50 0c	 mov	 dl, BYTE PTR [eax+12]
  000e3	84 d2		 test	 dl, dl
  000e5	0f 84 19 02 00
	00		 je	 $LN84@LoadFloat_@7
  000eb	80 f2 ed	 xor	 dl, -19			; ffffffedH
  000ee	88 55 e0	 mov	 BYTE PTR __k$[ebp+12], dl
  000f1	8a 50 0d	 mov	 dl, BYTE PTR [eax+13]
  000f4	84 d2		 test	 dl, dl
  000f6	0f 84 03 02 00
	00		 je	 $LN83@LoadFloat_@7
  000fc	32 d1		 xor	 dl, cl
  000fe	88 55 e1	 mov	 BYTE PTR __k$[ebp+13], dl
  00101	8a 50 0e	 mov	 dl, BYTE PTR [eax+14]
  00104	84 d2		 test	 dl, dl
  00106	0f 84 ee 01 00
	00		 je	 $LN82@LoadFloat_@7
  0010c	32 d3		 xor	 dl, bl
  0010e	88 55 e2	 mov	 BYTE PTR __k$[ebp+14], dl
  00111	8a 50 0f	 mov	 dl, BYTE PTR [eax+15]
  00114	84 d2		 test	 dl, dl
  00116	0f 84 d8 01 00
	00		 je	 $LN81@LoadFloat_@7
  0011c	80 f2 ea	 xor	 dl, -22			; ffffffeaH
  0011f	88 55 e3	 mov	 BYTE PTR __k$[ebp+15], dl
  00122	8a 50 10	 mov	 dl, BYTE PTR [eax+16]
  00125	84 d2		 test	 dl, dl
  00127	0f 84 c1 01 00
	00		 je	 $LN80@LoadFloat_@7
  0012d	80 f2 ed	 xor	 dl, -19			; ffffffedH
  00130	88 55 e4	 mov	 BYTE PTR __k$[ebp+16], dl
  00133	8a 50 11	 mov	 dl, BYTE PTR [eax+17]
  00136	84 d2		 test	 dl, dl
  00138	0f 84 ab 01 00
	00		 je	 $LN79@LoadFloat_@7
  0013e	32 d1		 xor	 dl, cl
  00140	88 55 e5	 mov	 BYTE PTR __k$[ebp+17], dl
  00143	8a 50 12	 mov	 dl, BYTE PTR [eax+18]
  00146	84 d2		 test	 dl, dl
  00148	0f 84 96 01 00
	00		 je	 $LN78@LoadFloat_@7
  0014e	32 d3		 xor	 dl, bl
  00150	88 55 e6	 mov	 BYTE PTR __k$[ebp+18], dl
  00153	8a 50 13	 mov	 dl, BYTE PTR [eax+19]
  00156	84 d2		 test	 dl, dl
  00158	0f 84 80 01 00
	00		 je	 $LN77@LoadFloat_@7
  0015e	80 f2 ea	 xor	 dl, -22			; ffffffeaH
  00161	88 55 e7	 mov	 BYTE PTR __k$[ebp+19], dl
  00164	8a 50 14	 mov	 dl, BYTE PTR [eax+20]
  00167	84 d2		 test	 dl, dl
  00169	0f 84 69 01 00
	00		 je	 $LN76@LoadFloat_@7
  0016f	80 f2 ed	 xor	 dl, -19			; ffffffedH
  00172	88 55 e8	 mov	 BYTE PTR __k$[ebp+20], dl
  00175	8a 50 15	 mov	 dl, BYTE PTR [eax+21]
  00178	84 d2		 test	 dl, dl
  0017a	0f 84 53 01 00
	00		 je	 $LN75@LoadFloat_@7
  00180	32 d1		 xor	 dl, cl
  00182	88 55 e9	 mov	 BYTE PTR __k$[ebp+21], dl
  00185	8a 50 16	 mov	 dl, BYTE PTR [eax+22]
  00188	84 d2		 test	 dl, dl
  0018a	0f 84 3e 01 00
	00		 je	 $LN74@LoadFloat_@7
  00190	32 d3		 xor	 dl, bl
  00192	88 55 ea	 mov	 BYTE PTR __k$[ebp+22], dl
  00195	8a 50 17	 mov	 dl, BYTE PTR [eax+23]
  00198	84 d2		 test	 dl, dl
  0019a	0f 84 28 01 00
	00		 je	 $LN73@LoadFloat_@7
  001a0	80 f2 ea	 xor	 dl, -22			; ffffffeaH
  001a3	88 55 eb	 mov	 BYTE PTR __k$[ebp+23], dl
  001a6	8a 50 18	 mov	 dl, BYTE PTR [eax+24]
  001a9	84 d2		 test	 dl, dl
  001ab	0f 84 0e 01 00
	00		 je	 $LN72@LoadFloat_@7
  001b1	80 f2 ed	 xor	 dl, -19			; ffffffedH
  001b4	88 55 ec	 mov	 BYTE PTR __k$[ebp+24], dl
  001b7	8a 50 19	 mov	 dl, BYTE PTR [eax+25]
  001ba	84 d2		 test	 dl, dl
  001bc	0f 84 f5 00 00
	00		 je	 $LN71@LoadFloat_@7
  001c2	32 d1		 xor	 dl, cl
  001c4	88 55 ed	 mov	 BYTE PTR __k$[ebp+25], dl
  001c7	8a 50 1a	 mov	 dl, BYTE PTR [eax+26]
  001ca	84 d2		 test	 dl, dl
  001cc	0f 84 dd 00 00
	00		 je	 $LN70@LoadFloat_@7
  001d2	32 d3		 xor	 dl, bl
  001d4	88 55 ee	 mov	 BYTE PTR __k$[ebp+26], dl
  001d7	8a 50 1b	 mov	 dl, BYTE PTR [eax+27]
  001da	84 d2		 test	 dl, dl
  001dc	0f 84 c4 00 00
	00		 je	 $LN69@LoadFloat_@7
  001e2	80 f2 ea	 xor	 dl, -22			; ffffffeaH
  001e5	88 55 ef	 mov	 BYTE PTR __k$[ebp+27], dl
  001e8	8a 50 1c	 mov	 dl, BYTE PTR [eax+28]
  001eb	84 d2		 test	 dl, dl
  001ed	0f 84 aa 00 00
	00		 je	 $LN68@LoadFloat_@7
  001f3	80 f2 ed	 xor	 dl, -19			; ffffffedH
  001f6	88 55 f0	 mov	 BYTE PTR __k$[ebp+28], dl
  001f9	8a 50 1d	 mov	 dl, BYTE PTR [eax+29]
  001fc	84 d2		 test	 dl, dl
  001fe	0f 84 91 00 00
	00		 je	 $LN67@LoadFloat_@7
  00204	32 d1		 xor	 dl, cl
  00206	88 55 f1	 mov	 BYTE PTR __k$[ebp+29], dl
  00209	8a 50 1e	 mov	 dl, BYTE PTR [eax+30]
  0020c	84 d2		 test	 dl, dl
  0020e	74 7d		 je	 SHORT $LN66@LoadFloat_@7
  00210	32 d3		 xor	 dl, bl
  00212	88 55 f2	 mov	 BYTE PTR __k$[ebp+30], dl
  00215	8a 50 1f	 mov	 dl, BYTE PTR [eax+31]
  00218	84 d2		 test	 dl, dl
  0021a	74 68		 je	 SHORT $LN65@LoadFloat_@7
  0021c	80 f2 ea	 xor	 dl, -22			; ffffffeaH
  0021f	80 78 20 00	 cmp	 BYTE PTR [eax+32], 0
  00223	88 55 f3	 mov	 BYTE PTR __k$[ebp+31], dl
  00226	0f 84 20 01 00
	00		 je	 $LN1@LoadFloat_@7
  0022c	8a 50 21	 mov	 dl, BYTE PTR [eax+33]
  0022f	84 d2		 test	 dl, dl
  00231	74 49		 je	 SHORT $LN63@LoadFloat_@7
  00233	32 d1		 xor	 dl, cl
  00235	88 55 f5	 mov	 BYTE PTR __k$[ebp+33], dl
  00238	8a 50 22	 mov	 dl, BYTE PTR [eax+34]
  0023b	84 d2		 test	 dl, dl
  0023d	74 35		 je	 SHORT $LN62@LoadFloat_@7
  0023f	32 d3		 xor	 dl, bl
  00241	88 55 f6	 mov	 BYTE PTR __k$[ebp+34], dl
  00244	8a 50 23	 mov	 dl, BYTE PTR [eax+35]
  00247	84 d2		 test	 dl, dl
  00249	74 20		 je	 SHORT $LN61@LoadFloat_@7
  0024b	8a 40 24	 mov	 al, BYTE PTR [eax+36]
  0024e	80 f2 ea	 xor	 dl, -22			; ffffffeaH
  00251	88 55 f7	 mov	 BYTE PTR __k$[ebp+35], dl
  00254	84 c0		 test	 al, al
  00256	74 0a		 je	 SHORT $LN60@LoadFloat_@7
  00258	34 ed		 xor	 al, -19			; ffffffedH
  0025a	88 45 f8	 mov	 BYTE PTR __k$[ebp+36], al
  0025d	e9 ea 00 00 00	 jmp	 $LN1@LoadFloat_@7
$LN60@LoadFloat_@7:
  00262	c6 45 f8 ed	 mov	 BYTE PTR __k$[ebp+36], -19 ; ffffffedH
  00266	e9 e1 00 00 00	 jmp	 $LN1@LoadFloat_@7
$LN61@LoadFloat_@7:
  0026b	c6 45 f7 ea	 mov	 BYTE PTR __k$[ebp+35], -22 ; ffffffeaH
  0026f	e9 d8 00 00 00	 jmp	 $LN1@LoadFloat_@7
$LN62@LoadFloat_@7:
  00274	88 5d f6	 mov	 BYTE PTR __k$[ebp+34], bl
  00277	e9 d0 00 00 00	 jmp	 $LN1@LoadFloat_@7
$LN63@LoadFloat_@7:
  0027c	88 4d f5	 mov	 BYTE PTR __k$[ebp+33], cl
  0027f	e9 c8 00 00 00	 jmp	 $LN1@LoadFloat_@7
$LN65@LoadFloat_@7:
  00284	c6 45 f3 ea	 mov	 BYTE PTR __k$[ebp+31], -22 ; ffffffeaH
  00288	e9 bf 00 00 00	 jmp	 $LN1@LoadFloat_@7
$LN66@LoadFloat_@7:
  0028d	88 5d f2	 mov	 BYTE PTR __k$[ebp+30], bl
  00290	e9 b7 00 00 00	 jmp	 $LN1@LoadFloat_@7
$LN67@LoadFloat_@7:
  00295	88 4d f1	 mov	 BYTE PTR __k$[ebp+29], cl
  00298	e9 af 00 00 00	 jmp	 $LN1@LoadFloat_@7
$LN68@LoadFloat_@7:
  0029d	c6 45 f0 ed	 mov	 BYTE PTR __k$[ebp+28], -19 ; ffffffedH
  002a1	e9 a6 00 00 00	 jmp	 $LN1@LoadFloat_@7
$LN69@LoadFloat_@7:
  002a6	c6 45 ef ea	 mov	 BYTE PTR __k$[ebp+27], -22 ; ffffffeaH
  002aa	e9 9d 00 00 00	 jmp	 $LN1@LoadFloat_@7
$LN70@LoadFloat_@7:
  002af	88 5d ee	 mov	 BYTE PTR __k$[ebp+26], bl
  002b2	e9 95 00 00 00	 jmp	 $LN1@LoadFloat_@7
$LN71@LoadFloat_@7:
  002b7	88 4d ed	 mov	 BYTE PTR __k$[ebp+25], cl
  002ba	e9 8d 00 00 00	 jmp	 $LN1@LoadFloat_@7
$LN72@LoadFloat_@7:
  002bf	c6 45 ec ed	 mov	 BYTE PTR __k$[ebp+24], -19 ; ffffffedH
  002c3	e9 84 00 00 00	 jmp	 $LN1@LoadFloat_@7
$LN73@LoadFloat_@7:
  002c8	c6 45 eb ea	 mov	 BYTE PTR __k$[ebp+23], -22 ; ffffffeaH
  002cc	eb 7e		 jmp	 SHORT $LN1@LoadFloat_@7
$LN74@LoadFloat_@7:
  002ce	88 5d ea	 mov	 BYTE PTR __k$[ebp+22], bl
  002d1	eb 79		 jmp	 SHORT $LN1@LoadFloat_@7
$LN75@LoadFloat_@7:
  002d3	88 4d e9	 mov	 BYTE PTR __k$[ebp+21], cl
  002d6	eb 74		 jmp	 SHORT $LN1@LoadFloat_@7
$LN76@LoadFloat_@7:
  002d8	c6 45 e8 ed	 mov	 BYTE PTR __k$[ebp+20], -19 ; ffffffedH
  002dc	eb 6e		 jmp	 SHORT $LN1@LoadFloat_@7
$LN77@LoadFloat_@7:
  002de	c6 45 e7 ea	 mov	 BYTE PTR __k$[ebp+19], -22 ; ffffffeaH
  002e2	eb 68		 jmp	 SHORT $LN1@LoadFloat_@7
$LN78@LoadFloat_@7:
  002e4	88 5d e6	 mov	 BYTE PTR __k$[ebp+18], bl
  002e7	eb 63		 jmp	 SHORT $LN1@LoadFloat_@7
$LN79@LoadFloat_@7:
  002e9	88 4d e5	 mov	 BYTE PTR __k$[ebp+17], cl
  002ec	eb 5e		 jmp	 SHORT $LN1@LoadFloat_@7
$LN80@LoadFloat_@7:
  002ee	c6 45 e4 ed	 mov	 BYTE PTR __k$[ebp+16], -19 ; ffffffedH
  002f2	eb 58		 jmp	 SHORT $LN1@LoadFloat_@7
$LN81@LoadFloat_@7:
  002f4	c6 45 e3 ea	 mov	 BYTE PTR __k$[ebp+15], -22 ; ffffffeaH
  002f8	eb 52		 jmp	 SHORT $LN1@LoadFloat_@7
$LN82@LoadFloat_@7:
  002fa	88 5d e2	 mov	 BYTE PTR __k$[ebp+14], bl
  002fd	eb 4d		 jmp	 SHORT $LN1@LoadFloat_@7
$LN83@LoadFloat_@7:
  002ff	88 4d e1	 mov	 BYTE PTR __k$[ebp+13], cl
  00302	eb 48		 jmp	 SHORT $LN1@LoadFloat_@7
$LN84@LoadFloat_@7:
  00304	c6 45 e0 ed	 mov	 BYTE PTR __k$[ebp+12], -19 ; ffffffedH
  00308	eb 42		 jmp	 SHORT $LN1@LoadFloat_@7
$LN85@LoadFloat_@7:
  0030a	c6 45 df ea	 mov	 BYTE PTR __k$[ebp+11], -22 ; ffffffeaH
  0030e	eb 3c		 jmp	 SHORT $LN1@LoadFloat_@7
$LN86@LoadFloat_@7:
  00310	88 5d de	 mov	 BYTE PTR __k$[ebp+10], bl
  00313	eb 37		 jmp	 SHORT $LN1@LoadFloat_@7
$LN87@LoadFloat_@7:
  00315	88 4d dd	 mov	 BYTE PTR __k$[ebp+9], cl
  00318	eb 32		 jmp	 SHORT $LN1@LoadFloat_@7
$LN88@LoadFloat_@7:
  0031a	c6 45 dc ed	 mov	 BYTE PTR __k$[ebp+8], -19 ; ffffffedH
  0031e	eb 2c		 jmp	 SHORT $LN1@LoadFloat_@7
$LN89@LoadFloat_@7:
  00320	c6 45 db ea	 mov	 BYTE PTR __k$[ebp+7], -22 ; ffffffeaH
  00324	eb 26		 jmp	 SHORT $LN1@LoadFloat_@7
$LN90@LoadFloat_@7:
  00326	88 5d da	 mov	 BYTE PTR __k$[ebp+6], bl
  00329	eb 21		 jmp	 SHORT $LN1@LoadFloat_@7
$LN91@LoadFloat_@7:
  0032b	88 4d d9	 mov	 BYTE PTR __k$[ebp+5], cl
  0032e	eb 1c		 jmp	 SHORT $LN1@LoadFloat_@7
$LN92@LoadFloat_@7:
  00330	c6 45 d8 ed	 mov	 BYTE PTR __k$[ebp+4], -19 ; ffffffedH
  00334	eb 16		 jmp	 SHORT $LN1@LoadFloat_@7
$LN93@LoadFloat_@7:
  00336	c6 45 d7 ea	 mov	 BYTE PTR __k$[ebp+3], -22 ; ffffffeaH
  0033a	eb 10		 jmp	 SHORT $LN1@LoadFloat_@7
$LN94@LoadFloat_@7:
  0033c	c6 45 d6 eb	 mov	 BYTE PTR __k$[ebp+2], -21 ; ffffffebH
  00340	eb 0a		 jmp	 SHORT $LN1@LoadFloat_@7
$LN95@LoadFloat_@7:
  00342	c6 45 d5 ec	 mov	 BYTE PTR __k$[ebp+1], -20 ; ffffffecH
  00346	eb 04		 jmp	 SHORT $LN1@LoadFloat_@7
$LN96@LoadFloat_@7:
  00348	c6 45 d4 ed	 mov	 BYTE PTR __k$[ebp], -19	; ffffffedH
$LN1@LoadFloat_@7:
  0034c	6a 08		 push	 8
  0034e	8d 45 d4	 lea	 eax, DWORD PTR __k$[ebp]
  00351	c6 45 f4 00	 mov	 BYTE PTR __k$[ebp+32], 0
  00355	5a		 pop	 edx
$LL104@LoadFloat_@7:
  00356	81 30 ed ec eb
	ea		 xor	 DWORD PTR [eax], -353637139 ; eaebecedH
  0035c	83 c0 04	 add	 eax, 4
  0035f	4a		 dec	 edx
  00360	75 f4		 jne	 SHORT $LL104@LoadFloat_@7

; 137  : 		return LoadFloat(_k, f);

  00362	f3 0f 10 45 0c	 movss	 xmm0, DWORD PTR _f$[ebp]
  00367	51		 push	 ecx
  00368	8d 45 d4	 lea	 eax, DWORD PTR __k$[ebp]
  0036b	f3 0f 11 04 24	 movss	 DWORD PTR [esp], xmm0
  00370	50		 push	 eax
  00371	8b ce		 mov	 ecx, esi
  00373	ff 15 00 00 00
	00		 call	 DWORD PTR __imp_?LoadFloat@ioINILoader@@QAEMPBDM@Z

; 138  : 	}

  00379	8b 4d fc	 mov	 ecx, DWORD PTR __$ArrayPad$[ebp]
  0037c	5e		 pop	 esi
  0037d	33 cd		 xor	 ecx, ebp
  0037f	5b		 pop	 ebx
  00380	e8 00 00 00 00	 call	 @__security_check_cookie@4
  00385	c9		 leave
  00386	c2 08 00	 ret	 8
??$LoadFloat_e@$0CB@@ioINILoader@@QAEMAAY0CB@$$CBDM@Z ENDP ; ioINILoader::LoadFloat_e<33>
_TEXT	ENDS
PUBLIC	__$ArrayPad$
PUBLIC	??$LoadInt_e@$0BC@@ioINILoader@@QAEHAAY0BC@$$CBDH@Z ; ioINILoader::LoadInt_e<18>
; Function compile flags: /Ogsp
;	COMDAT ??$LoadInt_e@$0BC@@ioINILoader@@QAEHAAY0BC@$$CBDH@Z
_TEXT	SEGMENT
__k$ = -28						; size = 18
__$ArrayPad$ = -4					; size = 4
_k$ = 8							; size = 4
_i$ = 12						; size = 4
??$LoadInt_e@$0BC@@ioINILoader@@QAEHAAY0BC@$$CBDH@Z PROC ; ioINILoader::LoadInt_e<18>, COMDAT
; _this$ = ecx

; 118  : 	{

  00000	55		 push	 ebp
  00001	8b ec		 mov	 ebp, esp
  00003	83 ec 1c	 sub	 esp, 28			; 0000001cH
  00006	a1 00 00 00 00	 mov	 eax, DWORD PTR ___security_cookie
  0000b	33 c5		 xor	 eax, ebp
  0000d	89 45 fc	 mov	 DWORD PTR __$ArrayPad$[ebp], eax
  00010	8b 45 08	 mov	 eax, DWORD PTR _k$[ebp]

; 119  : 		_ENCSTR(k, _k);

  00013	8a 10		 mov	 dl, BYTE PTR [eax]
  00015	56		 push	 esi
  00016	8b f1		 mov	 esi, ecx
  00018	84 d2		 test	 dl, dl
  0001a	0f 84 be 01 00
	00		 je	 $LN96@LoadInt_e@2
  00020	80 f2 ed	 xor	 dl, -19			; ffffffedH
  00023	88 55 e4	 mov	 BYTE PTR __k$[ebp], dl
  00026	8a 50 01	 mov	 dl, BYTE PTR [eax+1]
  00029	84 d2		 test	 dl, dl
  0002b	0f 84 a7 01 00
	00		 je	 $LN95@LoadInt_e@2
  00031	80 f2 ec	 xor	 dl, -20			; ffffffecH
  00034	88 55 e5	 mov	 BYTE PTR __k$[ebp+1], dl
  00037	8a 50 02	 mov	 dl, BYTE PTR [eax+2]
  0003a	84 d2		 test	 dl, dl
  0003c	0f 84 90 01 00
	00		 je	 $LN94@LoadInt_e@2
  00042	b1 eb		 mov	 cl, -21			; ffffffebH
  00044	32 d1		 xor	 dl, cl
  00046	88 55 e6	 mov	 BYTE PTR __k$[ebp+2], dl
  00049	8a 50 03	 mov	 dl, BYTE PTR [eax+3]
  0004c	84 d2		 test	 dl, dl
  0004e	0f 84 78 01 00
	00		 je	 $LN93@LoadInt_e@2
  00054	80 f2 ea	 xor	 dl, -22			; ffffffeaH
  00057	88 55 e7	 mov	 BYTE PTR __k$[ebp+3], dl
  0005a	8a 50 04	 mov	 dl, BYTE PTR [eax+4]
  0005d	84 d2		 test	 dl, dl
  0005f	0f 84 61 01 00
	00		 je	 $LN92@LoadInt_e@2
  00065	80 f2 ed	 xor	 dl, -19			; ffffffedH
  00068	88 55 e8	 mov	 BYTE PTR __k$[ebp+4], dl
  0006b	8a 50 05	 mov	 dl, BYTE PTR [eax+5]
  0006e	84 d2		 test	 dl, dl
  00070	0f 84 4a 01 00
	00		 je	 $LN91@LoadInt_e@2
  00076	80 f2 ec	 xor	 dl, -20			; ffffffecH
  00079	88 55 e9	 mov	 BYTE PTR __k$[ebp+5], dl
  0007c	8a 50 06	 mov	 dl, BYTE PTR [eax+6]
  0007f	84 d2		 test	 dl, dl
  00081	0f 84 34 01 00
	00		 je	 $LN90@LoadInt_e@2
  00087	32 d1		 xor	 dl, cl
  00089	88 55 ea	 mov	 BYTE PTR __k$[ebp+6], dl
  0008c	8a 50 07	 mov	 dl, BYTE PTR [eax+7]
  0008f	84 d2		 test	 dl, dl
  00091	0f 84 1e 01 00
	00		 je	 $LN89@LoadInt_e@2
  00097	80 f2 ea	 xor	 dl, -22			; ffffffeaH
  0009a	88 55 eb	 mov	 BYTE PTR __k$[ebp+7], dl
  0009d	8a 50 08	 mov	 dl, BYTE PTR [eax+8]
  000a0	84 d2		 test	 dl, dl
  000a2	0f 84 07 01 00
	00		 je	 $LN88@LoadInt_e@2
  000a8	80 f2 ed	 xor	 dl, -19			; ffffffedH
  000ab	88 55 ec	 mov	 BYTE PTR __k$[ebp+8], dl
  000ae	8a 50 09	 mov	 dl, BYTE PTR [eax+9]
  000b1	84 d2		 test	 dl, dl
  000b3	0f 84 f0 00 00
	00		 je	 $LN87@LoadInt_e@2
  000b9	80 f2 ec	 xor	 dl, -20			; ffffffecH
  000bc	88 55 ed	 mov	 BYTE PTR __k$[ebp+9], dl
  000bf	8a 50 0a	 mov	 dl, BYTE PTR [eax+10]
  000c2	84 d2		 test	 dl, dl
  000c4	0f 84 da 00 00
	00		 je	 $LN86@LoadInt_e@2
  000ca	32 d1		 xor	 dl, cl
  000cc	88 55 ee	 mov	 BYTE PTR __k$[ebp+10], dl
  000cf	8a 50 0b	 mov	 dl, BYTE PTR [eax+11]
  000d2	84 d2		 test	 dl, dl
  000d4	0f 84 c4 00 00
	00		 je	 $LN85@LoadInt_e@2
  000da	80 f2 ea	 xor	 dl, -22			; ffffffeaH
  000dd	88 55 ef	 mov	 BYTE PTR __k$[ebp+11], dl
  000e0	8a 50 0c	 mov	 dl, BYTE PTR [eax+12]
  000e3	84 d2		 test	 dl, dl
  000e5	0f 84 ad 00 00
	00		 je	 $LN84@LoadInt_e@2
  000eb	80 f2 ed	 xor	 dl, -19			; ffffffedH
  000ee	88 55 f0	 mov	 BYTE PTR __k$[ebp+12], dl
  000f1	8a 50 0d	 mov	 dl, BYTE PTR [eax+13]
  000f4	84 d2		 test	 dl, dl
  000f6	0f 84 96 00 00
	00		 je	 $LN83@LoadInt_e@2
  000fc	80 f2 ec	 xor	 dl, -20			; ffffffecH
  000ff	88 55 f1	 mov	 BYTE PTR __k$[ebp+13], dl
  00102	8a 50 0e	 mov	 dl, BYTE PTR [eax+14]
  00105	84 d2		 test	 dl, dl
  00107	0f 84 80 00 00
	00		 je	 $LN82@LoadInt_e@2
  0010d	32 d1		 xor	 dl, cl
  0010f	88 55 f2	 mov	 BYTE PTR __k$[ebp+14], dl
  00112	8a 50 0f	 mov	 dl, BYTE PTR [eax+15]
  00115	84 d2		 test	 dl, dl
  00117	74 6e		 je	 SHORT $LN81@LoadInt_e@2
  00119	80 f2 ea	 xor	 dl, -22			; ffffffeaH
  0011c	88 55 f3	 mov	 BYTE PTR __k$[ebp+15], dl
  0011f	8a 50 10	 mov	 dl, BYTE PTR [eax+16]
  00122	84 d2		 test	 dl, dl
  00124	74 5b		 je	 SHORT $LN80@LoadInt_e@2
  00126	80 f2 ed	 xor	 dl, -19			; ffffffedH
  00129	80 78 11 00	 cmp	 BYTE PTR [eax+17], 0
  0012d	88 55 f4	 mov	 BYTE PTR __k$[ebp+16], dl
  00130	0f 84 ac 00 00
	00		 je	 $LN1@LoadInt_e@2
  00136	8a 50 12	 mov	 dl, BYTE PTR [eax+18]
  00139	84 d2		 test	 dl, dl
  0013b	74 3f		 je	 SHORT $LN78@LoadInt_e@2
  0013d	32 d1		 xor	 dl, cl
  0013f	88 55 f6	 mov	 BYTE PTR __k$[ebp+18], dl
  00142	8a 50 13	 mov	 dl, BYTE PTR [eax+19]
  00145	84 d2		 test	 dl, dl
  00147	74 2d		 je	 SHORT $LN77@LoadInt_e@2
  00149	80 f2 ea	 xor	 dl, -22			; ffffffeaH
  0014c	88 55 f7	 mov	 BYTE PTR __k$[ebp+19], dl
  0014f	8a 50 14	 mov	 dl, BYTE PTR [eax+20]
  00152	84 d2		 test	 dl, dl
  00154	74 1a		 je	 SHORT $LN76@LoadInt_e@2
  00156	8a 40 15	 mov	 al, BYTE PTR [eax+21]
  00159	80 f2 ed	 xor	 dl, -19			; ffffffedH
  0015c	88 55 f8	 mov	 BYTE PTR __k$[ebp+20], dl
  0015f	84 c0		 test	 al, al
  00161	74 07		 je	 SHORT $LN75@LoadInt_e@2
  00163	34 ec		 xor	 al, -20			; ffffffecH
  00165	88 45 f9	 mov	 BYTE PTR __k$[ebp+21], al
  00168	eb 78		 jmp	 SHORT $LN1@LoadInt_e@2
$LN75@LoadInt_e@2:
  0016a	c6 45 f9 ec	 mov	 BYTE PTR __k$[ebp+21], -20 ; ffffffecH
  0016e	eb 72		 jmp	 SHORT $LN1@LoadInt_e@2
$LN76@LoadInt_e@2:
  00170	c6 45 f8 ed	 mov	 BYTE PTR __k$[ebp+20], -19 ; ffffffedH
  00174	eb 6c		 jmp	 SHORT $LN1@LoadInt_e@2
$LN77@LoadInt_e@2:
  00176	c6 45 f7 ea	 mov	 BYTE PTR __k$[ebp+19], -22 ; ffffffeaH
  0017a	eb 66		 jmp	 SHORT $LN1@LoadInt_e@2
$LN78@LoadInt_e@2:
  0017c	88 4d f6	 mov	 BYTE PTR __k$[ebp+18], cl
  0017f	eb 61		 jmp	 SHORT $LN1@LoadInt_e@2
$LN80@LoadInt_e@2:
  00181	c6 45 f4 ed	 mov	 BYTE PTR __k$[ebp+16], -19 ; ffffffedH
  00185	eb 5b		 jmp	 SHORT $LN1@LoadInt_e@2
$LN81@LoadInt_e@2:
  00187	c6 45 f3 ea	 mov	 BYTE PTR __k$[ebp+15], -22 ; ffffffeaH
  0018b	eb 55		 jmp	 SHORT $LN1@LoadInt_e@2
$LN82@LoadInt_e@2:
  0018d	88 4d f2	 mov	 BYTE PTR __k$[ebp+14], cl
  00190	eb 50		 jmp	 SHORT $LN1@LoadInt_e@2
$LN83@LoadInt_e@2:
  00192	c6 45 f1 ec	 mov	 BYTE PTR __k$[ebp+13], -20 ; ffffffecH
  00196	eb 4a		 jmp	 SHORT $LN1@LoadInt_e@2
$LN84@LoadInt_e@2:
  00198	c6 45 f0 ed	 mov	 BYTE PTR __k$[ebp+12], -19 ; ffffffedH
  0019c	eb 44		 jmp	 SHORT $LN1@LoadInt_e@2
$LN85@LoadInt_e@2:
  0019e	c6 45 ef ea	 mov	 BYTE PTR __k$[ebp+11], -22 ; ffffffeaH
  001a2	eb 3e		 jmp	 SHORT $LN1@LoadInt_e@2
$LN86@LoadInt_e@2:
  001a4	88 4d ee	 mov	 BYTE PTR __k$[ebp+10], cl
  001a7	eb 39		 jmp	 SHORT $LN1@LoadInt_e@2
$LN87@LoadInt_e@2:
  001a9	c6 45 ed ec	 mov	 BYTE PTR __k$[ebp+9], -20 ; ffffffecH
  001ad	eb 33		 jmp	 SHORT $LN1@LoadInt_e@2
$LN88@LoadInt_e@2:
  001af	c6 45 ec ed	 mov	 BYTE PTR __k$[ebp+8], -19 ; ffffffedH
  001b3	eb 2d		 jmp	 SHORT $LN1@LoadInt_e@2
$LN89@LoadInt_e@2:
  001b5	c6 45 eb ea	 mov	 BYTE PTR __k$[ebp+7], -22 ; ffffffeaH
  001b9	eb 27		 jmp	 SHORT $LN1@LoadInt_e@2
$LN90@LoadInt_e@2:
  001bb	88 4d ea	 mov	 BYTE PTR __k$[ebp+6], cl
  001be	eb 22		 jmp	 SHORT $LN1@LoadInt_e@2
$LN91@LoadInt_e@2:
  001c0	c6 45 e9 ec	 mov	 BYTE PTR __k$[ebp+5], -20 ; ffffffecH
  001c4	eb 1c		 jmp	 SHORT $LN1@LoadInt_e@2
$LN92@LoadInt_e@2:
  001c6	c6 45 e8 ed	 mov	 BYTE PTR __k$[ebp+4], -19 ; ffffffedH
  001ca	eb 16		 jmp	 SHORT $LN1@LoadInt_e@2
$LN93@LoadInt_e@2:
  001cc	c6 45 e7 ea	 mov	 BYTE PTR __k$[ebp+3], -22 ; ffffffeaH
  001d0	eb 10		 jmp	 SHORT $LN1@LoadInt_e@2
$LN94@LoadInt_e@2:
  001d2	c6 45 e6 eb	 mov	 BYTE PTR __k$[ebp+2], -21 ; ffffffebH
  001d6	eb 0a		 jmp	 SHORT $LN1@LoadInt_e@2
$LN95@LoadInt_e@2:
  001d8	c6 45 e5 ec	 mov	 BYTE PTR __k$[ebp+1], -20 ; ffffffecH
  001dc	eb 04		 jmp	 SHORT $LN1@LoadInt_e@2
$LN96@LoadInt_e@2:
  001de	c6 45 e4 ed	 mov	 BYTE PTR __k$[ebp], -19	; ffffffedH
$LN1@LoadInt_e@2:
  001e2	6a 04		 push	 4
  001e4	8d 45 e4	 lea	 eax, DWORD PTR __k$[ebp]
  001e7	c6 45 f5 00	 mov	 BYTE PTR __k$[ebp+17], 0
  001eb	5a		 pop	 edx
$LL104@LoadInt_e@2:
  001ec	81 30 ed ec eb
	ea		 xor	 DWORD PTR [eax], -353637139 ; eaebecedH
  001f2	83 c0 04	 add	 eax, 4
  001f5	4a		 dec	 edx
  001f6	75 f4		 jne	 SHORT $LL104@LoadInt_e@2

; 120  : 		return LoadInt(_k, i);

  001f8	ff 75 0c	 push	 DWORD PTR _i$[ebp]
  001fb	80 75 f4 ed	 xor	 BYTE PTR __k$[ebp+16], -19 ; ffffffedH
  001ff	8d 45 e4	 lea	 eax, DWORD PTR __k$[ebp]
  00202	50		 push	 eax
  00203	8b ce		 mov	 ecx, esi
  00205	ff 15 00 00 00
	00		 call	 DWORD PTR __imp_?LoadInt@ioINILoader@@QAEHPBDH@Z

; 121  : 	}

  0020b	8b 4d fc	 mov	 ecx, DWORD PTR __$ArrayPad$[ebp]
  0020e	33 cd		 xor	 ecx, ebp
  00210	5e		 pop	 esi
  00211	e8 00 00 00 00	 call	 @__security_check_cookie@4
  00216	c9		 leave
  00217	c2 08 00	 ret	 8
??$LoadInt_e@$0BC@@ioINILoader@@QAEHAAY0BC@$$CBDH@Z ENDP ; ioINILoader::LoadInt_e<18>
_TEXT	ENDS
PUBLIC	__real@3fd2ee0d320154cb
PUBLIC	__real@41f0000000000000
PUBLIC	??$RADtoDEG@M@@YAMM@Z				; RADtoDEG<float>
;	COMDAT __real@3fd2ee0d320154cb
; File d:\lost saga for developer\youtube\tutorial\source\src\lsclient\veryoftenusedefine.h
CONST	SEGMENT
__real@3fd2ee0d320154cb DQ 03fd2ee0d320154cbr	; 0.29578
CONST	ENDS
;	COMDAT __real@41f0000000000000
CONST	SEGMENT
__real@41f0000000000000 DQ 041f0000000000000r	; 4.29497e+009
; Function compile flags: /Ogsp
CONST	ENDS
;	COMDAT ??$RADtoDEG@M@@YAMM@Z
_TEXT	SEGMENT
tv130 = -4						; size = 4
tv75 = 8						; size = 4
_val$ = 8						; size = 4
??$RADtoDEG@M@@YAMM@Z PROC				; RADtoDEG<float>, COMDAT

; 18   : type  RADtoDEG (type val) {return (type) (val * (return57() + 0.2957795132)); }

  00000	55		 push	 ebp
  00001	8b ec		 mov	 ebp, esp
  00003	51		 push	 ecx
  00004	b8 39 00 00 00	 mov	 eax, 57			; 00000039H
  00009	89 45 fc	 mov	 DWORD PTR tv130[ebp], eax
  0000c	db 45 fc	 fild	 DWORD PTR tv130[ebp]
  0000f	85 c0		 test	 eax, eax
  00011	79 06		 jns	 SHORT $LN5@RADtoDEG
  00013	dc 05 00 00 00
	00		 fadd	 QWORD PTR __real@41f0000000000000
$LN5@RADtoDEG:
  00019	dc 05 00 00 00
	00		 fadd	 QWORD PTR __real@3fd2ee0d320154cb
  0001f	d8 4d 08	 fmul	 DWORD PTR _val$[ebp]
  00022	d9 5d 08	 fstp	 DWORD PTR tv75[ebp]
  00025	d9 45 08	 fld	 DWORD PTR tv75[ebp]
  00028	c9		 leave
  00029	c3		 ret	 0
??$RADtoDEG@M@@YAMM@Z ENDP				; RADtoDEG<float>
_TEXT	ENDS
PUBLIC	??$construct@AAUDummyTT13AttackInfo@@@?$allocator@UDummyTT13AttackInfo@@@std@@QAEXPAUDummyTT13AttackInfo@@AAU2@@Z ; std::allocator<DummyTT13AttackInfo>::construct<DummyTT13AttackInfo &>
;	COMDAT xdata$x
; File c:\program files (x86)\microsoft visual studio 10.0\vc\include\utility
xdata$x	SEGMENT
__unwindtable$??$construct@AAUDummyTT13AttackInfo@@@?$allocator@UDummyTT13AttackInfo@@@std@@QAEXPAUDummyTT13AttackInfo@@AAU2@@Z DD 0ffffffffH
	DD	FLAT:__unwindfunclet$??$construct@AAUDummyTT13AttackInfo@@@?$allocator@UDummyTT13AttackInfo@@@std@@QAEXPAUDummyTT13AttackInfo@@AAU2@@Z$0
__ehfuncinfo$??$construct@AAUDummyTT13AttackInfo@@@?$allocator@UDummyTT13AttackInfo@@@std@@QAEXPAUDummyTT13AttackInfo@@AAU2@@Z DD 019930522H
	DD	01H
	DD	FLAT:__unwindtable$??$construct@AAUDummyTT13AttackInfo@@@?$allocator@UDummyTT13AttackInfo@@@std@@QAEXPAUDummyTT13AttackInfo@@AAU2@@Z
	DD	2 DUP(00H)
	DD	2 DUP(00H)
	DD	00H
	DD	01H
; Function compile flags: /Ogsp
; File c:\program files (x86)\microsoft visual studio 10.0\vc\include\xmemory
xdata$x	ENDS
;	COMDAT ??$construct@AAUDummyTT13AttackInfo@@@?$allocator@UDummyTT13AttackInfo@@@std@@QAEXPAUDummyTT13AttackInfo@@AAU2@@Z
_TEXT	SEGMENT
$T536716 = -16						; size = 4
__$EHRec$ = -12						; size = 12
__Ptr$ = 8						; size = 4
__Val$ = 12						; size = 4
??$construct@AAUDummyTT13AttackInfo@@@?$allocator@UDummyTT13AttackInfo@@@std@@QAEXPAUDummyTT13AttackInfo@@AAU2@@Z PROC ; std::allocator<DummyTT13AttackInfo>::construct<DummyTT13AttackInfo &>, COMDAT
; _this$ = ecx

; 206  : 		void construct(pointer _Ptr, _Other&& _Val)

  00000	6a 04		 push	 4
  00002	b8 00 00 00 00	 mov	 eax, __ehhandler$??$construct@AAUDummyTT13AttackInfo@@@?$allocator@UDummyTT13AttackInfo@@@std@@QAEXPAUDummyTT13AttackInfo@@AAU2@@Z
  00007	e8 00 00 00 00	 call	 __EH_prolog3

; 207  : 		{	// construct object at _Ptr with value _Val
; 208  : 		::new ((void _FARQ *)_Ptr) _Ty(_STD forward<_Other>(_Val));

  0000c	8b 4d 08	 mov	 ecx, DWORD PTR __Ptr$[ebp]
  0000f	89 4d f0	 mov	 DWORD PTR $T536716[ebp], ecx
  00012	83 65 fc 00	 and	 DWORD PTR __$EHRec$[ebp+8], 0
  00016	85 c9		 test	 ecx, ecx
  00018	74 08		 je	 SHORT $LN3@construct
  0001a	ff 75 0c	 push	 DWORD PTR __Val$[ebp]
  0001d	e8 00 00 00 00	 call	 ??0DummyTT13AttackInfo@@QAE@ABU0@@Z
$LN3@construct:

; 209  : 		}

  00022	e8 00 00 00 00	 call	 __EH_epilog3
  00027	c2 08 00	 ret	 8
_TEXT	ENDS
;	COMDAT text$x
text$x	SEGMENT
__unwindfunclet$??$construct@AAUDummyTT13AttackInfo@@@?$allocator@UDummyTT13AttackInfo@@@std@@QAEXPAUDummyTT13AttackInfo@@AAU2@@Z$0:
  00000	ff 75 08	 push	 DWORD PTR __Ptr$[ebp]
  00003	ff 75 f0	 push	 DWORD PTR $T536716[ebp]
  00006	e8 00 00 00 00	 call	 ??3@YAXPAX0@Z		; operator delete
  0000b	59		 pop	 ecx
  0000c	59		 pop	 ecx
  0000d	c3		 ret	 0
__ehhandler$??$construct@AAUDummyTT13AttackInfo@@@?$allocator@UDummyTT13AttackInfo@@@std@@QAEXPAUDummyTT13AttackInfo@@AAU2@@Z:
  0000e	8b 54 24 08	 mov	 edx, DWORD PTR [esp+8]
  00012	8d 42 0c	 lea	 eax, DWORD PTR [edx+12]
  00015	8b 4a ec	 mov	 ecx, DWORD PTR [edx-20]
  00018	33 c8		 xor	 ecx, eax
  0001a	e8 00 00 00 00	 call	 @__security_check_cookie@4
  0001f	b8 00 00 00 00	 mov	 eax, OFFSET __ehfuncinfo$??$construct@AAUDummyTT13AttackInfo@@@?$allocator@UDummyTT13AttackInfo@@@std@@QAEXPAUDummyTT13AttackInfo@@AAU2@@Z
  00024	e9 00 00 00 00	 jmp	 ___CxxFrameHandler3
text$x	ENDS
??$construct@AAUDummyTT13AttackInfo@@@?$allocator@UDummyTT13AttackInfo@@@std@@QAEXPAUDummyTT13AttackInfo@@AAU2@@Z ENDP ; std::allocator<DummyTT13AttackInfo>::construct<DummyTT13AttackInfo &>
PUBLIC	??$_Move@PAUDummyTT13AttackInfo@@PAU1@@std@@YAPAUDummyTT13AttackInfo@@PAU1@00U_Nonscalar_ptr_iterator_tag@0@@Z ; std::_Move<DummyTT13AttackInfo *,DummyTT13AttackInfo *>
; Function compile flags: /Ogsp
; File c:\program files (x86)\microsoft visual studio 10.0\vc\include\xutility
;	COMDAT ??$_Move@PAUDummyTT13AttackInfo@@PAU1@@std@@YAPAUDummyTT13AttackInfo@@PAU1@00U_Nonscalar_ptr_iterator_tag@0@@Z
_TEXT	SEGMENT
__First$ = 8						; size = 4
__Last$ = 12						; size = 4
__Dest$ = 16						; size = 4
___formal$ = 20						; size = 1
??$_Move@PAUDummyTT13AttackInfo@@PAU1@@std@@YAPAUDummyTT13AttackInfo@@PAU1@00U_Nonscalar_ptr_iterator_tag@0@@Z PROC ; std::_Move<DummyTT13AttackInfo *,DummyTT13AttackInfo *>, COMDAT

; 2512 : 	{	// move [_First, _Last) to [_Dest, ...), arbitrary iterators

  00000	55		 push	 ebp
  00001	8b ec		 mov	 ebp, esp
  00003	56		 push	 esi

; 2513 : 	for (; _First != _Last; ++_Dest, ++_First)

  00004	8b 75 08	 mov	 esi, DWORD PTR __First$[ebp]
  00007	eb 10		 jmp	 SHORT $LN11@Move
$LL3@Move:

; 2514 : 		*_Dest = _STD move(*_First);

  00009	8b 4d 10	 mov	 ecx, DWORD PTR __Dest$[ebp]
  0000c	56		 push	 esi
  0000d	e8 00 00 00 00	 call	 ??4DummyTT13AttackInfo@@QAEAAU0@ABU0@@Z
  00012	83 45 10 3c	 add	 DWORD PTR __Dest$[ebp], 60 ; 0000003cH
  00016	83 c6 3c	 add	 esi, 60			; 0000003cH
$LN11@Move:

; 2513 : 	for (; _First != _Last; ++_Dest, ++_First)

  00019	3b 75 0c	 cmp	 esi, DWORD PTR __Last$[ebp]
  0001c	75 eb		 jne	 SHORT $LL3@Move

; 2515 : 	return (_Dest);

  0001e	8b 45 10	 mov	 eax, DWORD PTR __Dest$[ebp]
  00021	5e		 pop	 esi

; 2516 : 	}

  00022	5d		 pop	 ebp
  00023	c3		 ret	 0
??$_Move@PAUDummyTT13AttackInfo@@PAU1@@std@@YAPAUDummyTT13AttackInfo@@PAU1@00U_Nonscalar_ptr_iterator_tag@0@@Z ENDP ; std::_Move<DummyTT13AttackInfo *,DummyTT13AttackInfo *>
_TEXT	ENDS
PUBLIC	??$_Construct@UDummyTT13AttackInfo@@ABU1@@std@@YAXPAUDummyTT13AttackInfo@@ABU1@@Z ; std::_Construct<DummyTT13AttackInfo,DummyTT13AttackInfo const &>
;	COMDAT xdata$x
; File c:\program files (x86)\microsoft visual studio 10.0\vc\include\utility
xdata$x	SEGMENT
__unwindtable$??$_Construct@UDummyTT13AttackInfo@@ABU1@@std@@YAXPAUDummyTT13AttackInfo@@ABU1@@Z DD 0ffffffffH
	DD	FLAT:__unwindfunclet$??$_Construct@UDummyTT13AttackInfo@@ABU1@@std@@YAXPAUDummyTT13AttackInfo@@ABU1@@Z$0
__ehfuncinfo$??$_Construct@UDummyTT13AttackInfo@@ABU1@@std@@YAXPAUDummyTT13AttackInfo@@ABU1@@Z DD 019930522H
	DD	01H
	DD	FLAT:__unwindtable$??$_Construct@UDummyTT13AttackInfo@@ABU1@@std@@YAXPAUDummyTT13AttackInfo@@ABU1@@Z
	DD	2 DUP(00H)
	DD	2 DUP(00H)
	DD	00H
	DD	01H
; Function compile flags: /Ogsp
; File c:\program files (x86)\microsoft visual studio 10.0\vc\include\xmemory
xdata$x	ENDS
;	COMDAT ??$_Construct@UDummyTT13AttackInfo@@ABU1@@std@@YAXPAUDummyTT13AttackInfo@@ABU1@@Z
_TEXT	SEGMENT
$T536744 = -16						; size = 4
__$EHRec$ = -12						; size = 12
__Vptr$ = 8						; size = 4
__Ptr$ = 8						; size = 4
__Val$ = 12						; size = 4
??$_Construct@UDummyTT13AttackInfo@@ABU1@@std@@YAXPAUDummyTT13AttackInfo@@ABU1@@Z PROC ; std::_Construct<DummyTT13AttackInfo,DummyTT13AttackInfo const &>, COMDAT

; 46   : 	{	// construct object at _Ptr with value _Val

  00000	6a 04		 push	 4
  00002	b8 00 00 00 00	 mov	 eax, __ehhandler$??$_Construct@UDummyTT13AttackInfo@@ABU1@@std@@YAXPAUDummyTT13AttackInfo@@ABU1@@Z
  00007	e8 00 00 00 00	 call	 __EH_prolog3

; 47   : 	void _FARQ *_Vptr = _Ptr;

  0000c	8b 4d 08	 mov	 ecx, DWORD PTR __Ptr$[ebp]
  0000f	89 4d 08	 mov	 DWORD PTR __Vptr$[ebp], ecx

; 48   : 	::new (_Vptr) _Ty1(_STD forward<_Ty2>(_Val));

  00012	89 4d f0	 mov	 DWORD PTR $T536744[ebp], ecx
  00015	83 65 fc 00	 and	 DWORD PTR __$EHRec$[ebp+8], 0
  00019	85 c9		 test	 ecx, ecx
  0001b	74 08		 je	 SHORT $LN3@Construct
  0001d	ff 75 0c	 push	 DWORD PTR __Val$[ebp]
  00020	e8 00 00 00 00	 call	 ??0DummyTT13AttackInfo@@QAE@ABU0@@Z
$LN3@Construct:

; 49   : 	}

  00025	e8 00 00 00 00	 call	 __EH_epilog3
  0002a	c3		 ret	 0
_TEXT	ENDS
;	COMDAT text$x
text$x	SEGMENT
__unwindfunclet$??$_Construct@UDummyTT13AttackInfo@@ABU1@@std@@YAXPAUDummyTT13AttackInfo@@ABU1@@Z$0:
  00000	ff 75 08	 push	 DWORD PTR __Vptr$[ebp]
  00003	ff 75 f0	 push	 DWORD PTR $T536744[ebp]
  00006	e8 00 00 00 00	 call	 ??3@YAXPAX0@Z		; operator delete
  0000b	59		 pop	 ecx
  0000c	59		 pop	 ecx
  0000d	c3		 ret	 0
__ehhandler$??$_Construct@UDummyTT13AttackInfo@@ABU1@@std@@YAXPAUDummyTT13AttackInfo@@ABU1@@Z:
  0000e	8b 54 24 08	 mov	 edx, DWORD PTR [esp+8]
  00012	8d 42 0c	 lea	 eax, DWORD PTR [edx+12]
  00015	8b 4a ec	 mov	 ecx, DWORD PTR [edx-20]
  00018	33 c8		 xor	 ecx, eax
  0001a	e8 00 00 00 00	 call	 @__security_check_cookie@4
  0001f	b8 00 00 00 00	 mov	 eax, OFFSET __ehfuncinfo$??$_Construct@UDummyTT13AttackInfo@@ABU1@@std@@YAXPAUDummyTT13AttackInfo@@ABU1@@Z
  00024	e9 00 00 00 00	 jmp	 ___CxxFrameHandler3
text$x	ENDS
??$_Construct@UDummyTT13AttackInfo@@ABU1@@std@@YAXPAUDummyTT13AttackInfo@@ABU1@@Z ENDP ; std::_Construct<DummyTT13AttackInfo,DummyTT13AttackInfo const &>
PUBLIC	??_G_Node@?$_List_nod@UFireTime@@V?$allocator@UFireTime@@@std@@@std@@QAEPAXI@Z ; std::_List_nod<FireTime,std::allocator<FireTime> >::_Node::`scalar deleting destructor'
; Function compile flags: /Ogsp
;	COMDAT ??_G_Node@?$_List_nod@UFireTime@@V?$allocator@UFireTime@@@std@@@std@@QAEPAXI@Z
_TEXT	SEGMENT
___flags$ = 8						; size = 4
??_G_Node@?$_List_nod@UFireTime@@V?$allocator@UFireTime@@@std@@@std@@QAEPAXI@Z PROC ; std::_List_nod<FireTime,std::allocator<FireTime> >::_Node::`scalar deleting destructor', COMDAT
; _this$ = ecx
  00000	55		 push	 ebp
  00001	8b ec		 mov	 ebp, esp
  00003	56		 push	 esi
  00004	8b f1		 mov	 esi, ecx
  00006	8d 4e 08	 lea	 ecx, DWORD PTR [esi+8]
  00009	e8 00 00 00 00	 call	 ??1FireTime@@QAE@XZ
  0000e	f6 45 08 01	 test	 BYTE PTR ___flags$[ebp], 1
  00012	74 07		 je	 SHORT $LN1@scalar@3
  00014	56		 push	 esi
  00015	e8 00 00 00 00	 call	 ??3@YAXPAX@Z		; operator delete
  0001a	59		 pop	 ecx
$LN1@scalar@3:
  0001b	8b c6		 mov	 eax, esi
  0001d	5e		 pop	 esi
  0001e	5d		 pop	 ebp
  0001f	c2 04 00	 ret	 4
??_G_Node@?$_List_nod@UFireTime@@V?$allocator@UFireTime@@@std@@@std@@QAEPAXI@Z ENDP ; std::_List_nod<FireTime,std::allocator<FireTime> >::_Node::`scalar deleting destructor'
_TEXT	ENDS
PUBLIC	??$_Destroy@UDummyTT13AttackInfo@@@std@@YAXPAUDummyTT13AttackInfo@@@Z ; std::_Destroy<DummyTT13AttackInfo>
; Function compile flags: /Ogsp
;	COMDAT ??$_Destroy@UDummyTT13AttackInfo@@@std@@YAXPAUDummyTT13AttackInfo@@@Z
_TEXT	SEGMENT
__Ptr$ = 8						; size = 4
??$_Destroy@UDummyTT13AttackInfo@@@std@@YAXPAUDummyTT13AttackInfo@@@Z PROC ; std::_Destroy<DummyTT13AttackInfo>, COMDAT

; 62   : 	{	// destroy object at _Ptr

  00000	55		 push	 ebp
  00001	8b ec		 mov	 ebp, esp

; 63   : 	_Ptr->~_Ty();

  00003	8b 4d 08	 mov	 ecx, DWORD PTR __Ptr$[ebp]
  00006	83 c1 08	 add	 ecx, 8

; 64   : 	}

  00009	5d		 pop	 ebp

; 63   : 	_Ptr->~_Ty();

  0000a	ff 25 00 00 00
	00		 jmp	 DWORD PTR __imp_??1ioHashString@@QAE@XZ
??$_Destroy@UDummyTT13AttackInfo@@@std@@YAXPAUDummyTT13AttackInfo@@@Z ENDP ; std::_Destroy<DummyTT13AttackInfo>
_TEXT	ENDS
PUBLIC	?construct@?$allocator@UDummyTT13AttackInfo@@@std@@QAEXPAUDummyTT13AttackInfo@@$$QAU3@@Z ; std::allocator<DummyTT13AttackInfo>::construct
;	COMDAT xdata$x
; File c:\program files (x86)\microsoft visual studio 10.0\vc\include\utility
xdata$x	SEGMENT
__unwindtable$?construct@?$allocator@UDummyTT13AttackInfo@@@std@@QAEXPAUDummyTT13AttackInfo@@$$QAU3@@Z DD 0ffffffffH
	DD	FLAT:__unwindfunclet$?construct@?$allocator@UDummyTT13AttackInfo@@@std@@QAEXPAUDummyTT13AttackInfo@@$$QAU3@@Z$0
__ehfuncinfo$?construct@?$allocator@UDummyTT13AttackInfo@@@std@@QAEXPAUDummyTT13AttackInfo@@$$QAU3@@Z DD 019930522H
	DD	01H
	DD	FLAT:__unwindtable$?construct@?$allocator@UDummyTT13AttackInfo@@@std@@QAEXPAUDummyTT13AttackInfo@@$$QAU3@@Z
	DD	2 DUP(00H)
	DD	2 DUP(00H)
	DD	00H
	DD	01H
; Function compile flags: /Ogsp
; File c:\program files (x86)\microsoft visual studio 10.0\vc\include\xmemory
xdata$x	ENDS
;	COMDAT ?construct@?$allocator@UDummyTT13AttackInfo@@@std@@QAEXPAUDummyTT13AttackInfo@@$$QAU3@@Z
_TEXT	SEGMENT
$T536782 = -16						; size = 4
__$EHRec$ = -12						; size = 12
__Ptr$ = 8						; size = 4
__Val$ = 12						; size = 4
?construct@?$allocator@UDummyTT13AttackInfo@@@std@@QAEXPAUDummyTT13AttackInfo@@$$QAU3@@Z PROC ; std::allocator<DummyTT13AttackInfo>::construct, COMDAT
; _this$ = ecx

; 201  : 		{	// construct object at _Ptr with value _Val

  00000	6a 04		 push	 4
  00002	b8 00 00 00 00	 mov	 eax, __ehhandler$?construct@?$allocator@UDummyTT13AttackInfo@@@std@@QAEXPAUDummyTT13AttackInfo@@$$QAU3@@Z
  00007	e8 00 00 00 00	 call	 __EH_prolog3

; 202  : 		::new ((void _FARQ *)_Ptr) _Ty(_STD forward<_Ty>(_Val));

  0000c	8b 4d 08	 mov	 ecx, DWORD PTR __Ptr$[ebp]
  0000f	89 4d f0	 mov	 DWORD PTR $T536782[ebp], ecx
  00012	83 65 fc 00	 and	 DWORD PTR __$EHRec$[ebp+8], 0
  00016	85 c9		 test	 ecx, ecx
  00018	74 08		 je	 SHORT $LN3@construct@2
  0001a	ff 75 0c	 push	 DWORD PTR __Val$[ebp]
  0001d	e8 00 00 00 00	 call	 ??0DummyTT13AttackInfo@@QAE@ABU0@@Z
$LN3@construct@2:

; 203  : 		}

  00022	e8 00 00 00 00	 call	 __EH_epilog3
  00027	c2 08 00	 ret	 8
_TEXT	ENDS
;	COMDAT text$x
text$x	SEGMENT
__unwindfunclet$?construct@?$allocator@UDummyTT13AttackInfo@@@std@@QAEXPAUDummyTT13AttackInfo@@$$QAU3@@Z$0:
  00000	ff 75 08	 push	 DWORD PTR __Ptr$[ebp]
  00003	ff 75 f0	 push	 DWORD PTR $T536782[ebp]
  00006	e8 00 00 00 00	 call	 ??3@YAXPAX0@Z		; operator delete
  0000b	59		 pop	 ecx
  0000c	59		 pop	 ecx
  0000d	c3		 ret	 0
__ehhandler$?construct@?$allocator@UDummyTT13AttackInfo@@@std@@QAEXPAUDummyTT13AttackInfo@@$$QAU3@@Z:
  0000e	8b 54 24 08	 mov	 edx, DWORD PTR [esp+8]
  00012	8d 42 0c	 lea	 eax, DWORD PTR [edx+12]
  00015	8b 4a ec	 mov	 ecx, DWORD PTR [edx-20]
  00018	33 c8		 xor	 ecx, eax
  0001a	e8 00 00 00 00	 call	 @__security_check_cookie@4
  0001f	b8 00 00 00 00	 mov	 eax, OFFSET __ehfuncinfo$?construct@?$allocator@UDummyTT13AttackInfo@@@std@@QAEXPAUDummyTT13AttackInfo@@$$QAU3@@Z
  00024	e9 00 00 00 00	 jmp	 ___CxxFrameHandler3
text$x	ENDS
?construct@?$allocator@UDummyTT13AttackInfo@@@std@@QAEXPAUDummyTT13AttackInfo@@$$QAU3@@Z ENDP ; std::allocator<DummyTT13AttackInfo>::construct
PUBLIC	??B?$CEncrypt@M@@QAEMXZ				; CEncrypt<float>::operator float
; Function compile flags: /Ogsp
; File d:\lost saga for developer\youtube\tutorial\source\src\lsclient\encryptvalue.h
;	COMDAT ??B?$CEncrypt@M@@QAEMXZ
_TEXT	SEGMENT
_value$ = -4						; size = 4
??B?$CEncrypt@M@@QAEMXZ PROC				; CEncrypt<float>::operator float, COMDAT
; _this$ = ecx

; 134  : 	{

  00000	55		 push	 ebp
  00001	8b ec		 mov	 ebp, esp
  00003	51		 push	 ecx

; 135  : 		type value;
; 136  : 		DecryptValueToPool(&value);

  00004	8d 45 fc	 lea	 eax, DWORD PTR _value$[ebp]
  00007	50		 push	 eax
  00008	e8 00 00 00 00	 call	 ?DecryptValueToPool@?$CEncrypt@M@@QAEXPAM@Z ; CEncrypt<float>::DecryptValueToPool

; 137  : 
; 138  : #ifdef _NOTUSE
; 139  : 		Debug();
; 140  : #endif
; 141  : 		return value;

  0000d	d9 45 fc	 fld	 DWORD PTR _value$[ebp]

; 142  : 	}

  00010	c9		 leave
  00011	c3		 ret	 0
??B?$CEncrypt@M@@QAEMXZ ENDP				; CEncrypt<float>::operator float
_TEXT	ENDS
PUBLIC	??4?$CEncrypt@M@@QAEMM@Z			; CEncrypt<float>::operator=
; Function compile flags: /Ogsp
;	COMDAT ??4?$CEncrypt@M@@QAEMM@Z
_TEXT	SEGMENT
_value$ = 8						; size = 4
_inValue$ = 8						; size = 4
??4?$CEncrypt@M@@QAEMM@Z PROC				; CEncrypt<float>::operator=, COMDAT
; _this$ = ecx

; 1654 : 	{	

  00000	55		 push	 ebp
  00001	8b ec		 mov	 ebp, esp

; 1655 : 		type value = inValue;

  00003	d9 45 08	 fld	 DWORD PTR _inValue$[ebp]

; 1656 : 		EncryptValueToPool((char*)&value);

  00006	8d 45 08	 lea	 eax, DWORD PTR _value$[ebp]
  00009	50		 push	 eax
  0000a	d9 5d 08	 fstp	 DWORD PTR _value$[ebp]
  0000d	e8 00 00 00 00	 call	 ?EncryptValueToPool@?$CEncrypt@M@@AAEXPBD@Z ; CEncrypt<float>::EncryptValueToPool

; 1657 : #ifdef _NOTUSE
; 1658 : 		m_value = inValue;
; 1659 : 		Debug();
; 1660 : #endif
; 1661 : 		return value;

  00012	d9 45 08	 fld	 DWORD PTR _value$[ebp]

; 1662 : 	}

  00015	5d		 pop	 ebp
  00016	c2 04 00	 ret	 4
??4?$CEncrypt@M@@QAEMM@Z ENDP				; CEncrypt<float>::operator=
_TEXT	ENDS
PUBLIC	??B?$CEncrypt@K@@QAEKXZ				; CEncrypt<unsigned long>::operator unsigned long
; Function compile flags: /Ogsp
;	COMDAT ??B?$CEncrypt@K@@QAEKXZ
_TEXT	SEGMENT
_value$ = -4						; size = 4
??B?$CEncrypt@K@@QAEKXZ PROC				; CEncrypt<unsigned long>::operator unsigned long, COMDAT
; _this$ = ecx

; 134  : 	{

  00000	55		 push	 ebp
  00001	8b ec		 mov	 ebp, esp
  00003	51		 push	 ecx

; 135  : 		type value;
; 136  : 		DecryptValueToPool(&value);

  00004	8d 45 fc	 lea	 eax, DWORD PTR _value$[ebp]
  00007	50		 push	 eax
  00008	e8 00 00 00 00	 call	 ?DecryptValueToPool@?$CEncrypt@K@@QAEXPAK@Z ; CEncrypt<unsigned long>::DecryptValueToPool

; 137  : 
; 138  : #ifdef _NOTUSE
; 139  : 		Debug();
; 140  : #endif
; 141  : 		return value;

  0000d	8b 45 fc	 mov	 eax, DWORD PTR _value$[ebp]

; 142  : 	}

  00010	c9		 leave
  00011	c3		 ret	 0
??B?$CEncrypt@K@@QAEKXZ ENDP				; CEncrypt<unsigned long>::operator unsigned long
_TEXT	ENDS
PUBLIC	??B?$CEncrypt@K@@QBEKXZ				; CEncrypt<unsigned long>::operator unsigned long
; Function compile flags: /Ogsp
;	COMDAT ??B?$CEncrypt@K@@QBEKXZ
_TEXT	SEGMENT
_value$ = -4						; size = 4
??B?$CEncrypt@K@@QBEKXZ PROC				; CEncrypt<unsigned long>::operator unsigned long, COMDAT
; _this$ = ecx

; 145  : 	{

  00000	55		 push	 ebp
  00001	8b ec		 mov	 ebp, esp
  00003	51		 push	 ecx

; 146  : 		//UJ 130829, const    --start
; 147  : 		type value;
; 148  : 		CEncrypt<type>* pThis = const_cast<CEncrypt<type>*>(this);
; 149  : 		pThis->DecryptValueToPool(&value);

  00004	8d 45 fc	 lea	 eax, DWORD PTR _value$[ebp]
  00007	50		 push	 eax
  00008	e8 00 00 00 00	 call	 ?DecryptValueToPool@?$CEncrypt@K@@QAEXPAK@Z ; CEncrypt<unsigned long>::DecryptValueToPool

; 150  : 		//// const DecryptValueToPool     .
; 151  :  		//type value;
; 152  : 		//char szTempMem[MAX_ENCRYPT];
; 153  : 		//m_RC5.DecryptByte( m_MemPool, szTempMem, max(m_ValueSize, DEFAULT_ENCRYPT) );
; 154  : 		//memcpy( &value, szTempMem, m_ValueSize );
; 155  : 		//UJ --end
; 156  : 
; 157  : #ifdef _NOTUSE
; 158  : 		Debug();
; 159  : #endif
; 160  : 		return value;

  0000d	8b 45 fc	 mov	 eax, DWORD PTR _value$[ebp]

; 161  : 	}

  00010	c9		 leave
  00011	c3		 ret	 0
??B?$CEncrypt@K@@QBEKXZ ENDP				; CEncrypt<unsigned long>::operator unsigned long
_TEXT	ENDS
PUBLIC	??B?$CEncrypt@_N@@QAE_NXZ			; CEncrypt<bool>::operator bool
; Function compile flags: /Ogsp
;	COMDAT ??B?$CEncrypt@_N@@QAE_NXZ
_TEXT	SEGMENT
_value$ = -1						; size = 1
??B?$CEncrypt@_N@@QAE_NXZ PROC				; CEncrypt<bool>::operator bool, COMDAT
; _this$ = ecx

; 134  : 	{

  00000	55		 push	 ebp
  00001	8b ec		 mov	 ebp, esp
  00003	51		 push	 ecx

; 135  : 		type value;
; 136  : 		DecryptValueToPool(&value);

  00004	8d 45 ff	 lea	 eax, DWORD PTR _value$[ebp]
  00007	50		 push	 eax
  00008	e8 00 00 00 00	 call	 ?DecryptValueToPool@?$CEncrypt@_N@@QAEXPA_N@Z ; CEncrypt<bool>::DecryptValueToPool

; 137  : 
; 138  : #ifdef _NOTUSE
; 139  : 		Debug();
; 140  : #endif
; 141  : 		return value;

  0000d	8a 45 ff	 mov	 al, BYTE PTR _value$[ebp]

; 142  : 	}

  00010	c9		 leave
  00011	c3		 ret	 0
??B?$CEncrypt@_N@@QAE_NXZ ENDP				; CEncrypt<bool>::operator bool
_TEXT	ENDS
PUBLIC	??B?$CEncrypt@W4TeamType@@@@QBE?AW4TeamType@@XZ	; CEncrypt<enum TeamType>::operator enum TeamType
; Function compile flags: /Ogsp
;	COMDAT ??B?$CEncrypt@W4TeamType@@@@QBE?AW4TeamType@@XZ
_TEXT	SEGMENT
_value$ = -4						; size = 4
??B?$CEncrypt@W4TeamType@@@@QBE?AW4TeamType@@XZ PROC	; CEncrypt<enum TeamType>::operator enum TeamType, COMDAT
; _this$ = ecx

; 145  : 	{

  00000	55		 push	 ebp
  00001	8b ec		 mov	 ebp, esp
  00003	51		 push	 ecx

; 146  : 		//UJ 130829, const    --start
; 147  : 		type value;
; 148  : 		CEncrypt<type>* pThis = const_cast<CEncrypt<type>*>(this);
; 149  : 		pThis->DecryptValueToPool(&value);

  00004	8d 45 fc	 lea	 eax, DWORD PTR _value$[ebp]
  00007	50		 push	 eax
  00008	e8 00 00 00 00	 call	 ?DecryptValueToPool@?$CEncrypt@W4TeamType@@@@QAEXPAW4TeamType@@@Z ; CEncrypt<enum TeamType>::DecryptValueToPool

; 150  : 		//// const DecryptValueToPool     .
; 151  :  		//type value;
; 152  : 		//char szTempMem[MAX_ENCRYPT];
; 153  : 		//m_RC5.DecryptByte( m_MemPool, szTempMem, max(m_ValueSize, DEFAULT_ENCRYPT) );
; 154  : 		//memcpy( &value, szTempMem, m_ValueSize );
; 155  : 		//UJ --end
; 156  : 
; 157  : #ifdef _NOTUSE
; 158  : 		Debug();
; 159  : #endif
; 160  : 		return value;

  0000d	8b 45 fc	 mov	 eax, DWORD PTR _value$[ebp]

; 161  : 	}

  00010	c9		 leave
  00011	c3		 ret	 0
??B?$CEncrypt@W4TeamType@@@@QBE?AW4TeamType@@XZ ENDP	; CEncrypt<enum TeamType>::operator enum TeamType
_TEXT	ENDS
PUBLIC	?begin@?$vector@VioHashString@@V?$allocator@VioHashString@@@std@@@std@@QAE?AV?$_Vector_iterator@V?$_Vector_val@VioHashString@@V?$allocator@VioHashString@@@std@@@std@@@2@XZ ; std::vector<ioHashString,std::allocator<ioHashString> >::begin
; Function compile flags: /Ogsp
; File c:\program files (x86)\microsoft visual studio 10.0\vc\include\vector
;	COMDAT ?begin@?$vector@VioHashString@@V?$allocator@VioHashString@@@std@@@std@@QAE?AV?$_Vector_iterator@V?$_Vector_val@VioHashString@@V?$allocator@VioHashString@@@std@@@std@@@2@XZ
_TEXT	SEGMENT
___$ReturnUdt$ = 8					; size = 4
?begin@?$vector@VioHashString@@V?$allocator@VioHashString@@@std@@@std@@QAE?AV?$_Vector_iterator@V?$_Vector_val@VioHashString@@V?$allocator@VioHashString@@@std@@@std@@@2@XZ PROC ; std::vector<ioHashString,std::allocator<ioHashString> >::begin, COMDAT
; _this$ = ecx

; 781  : 		{	// return iterator for beginning of mutable sequence

  00000	55		 push	 ebp
  00001	8b ec		 mov	 ebp, esp

; 782  : 		return (iterator(this->_Myfirst, this));

  00003	8b 09		 mov	 ecx, DWORD PTR [ecx]
  00005	8b 45 08	 mov	 eax, DWORD PTR ___$ReturnUdt$[ebp]
  00008	89 08		 mov	 DWORD PTR [eax], ecx

; 783  : 		}

  0000a	5d		 pop	 ebp
  0000b	c2 04 00	 ret	 4
?begin@?$vector@VioHashString@@V?$allocator@VioHashString@@@std@@@std@@QAE?AV?$_Vector_iterator@V?$_Vector_val@VioHashString@@V?$allocator@VioHashString@@@std@@@std@@@2@XZ ENDP ; std::vector<ioHashString,std::allocator<ioHashString> >::begin
_TEXT	ENDS
PUBLIC	?end@?$vector@VioHashString@@V?$allocator@VioHashString@@@std@@@std@@QAE?AV?$_Vector_iterator@V?$_Vector_val@VioHashString@@V?$allocator@VioHashString@@@std@@@std@@@2@XZ ; std::vector<ioHashString,std::allocator<ioHashString> >::end
; Function compile flags: /Ogsp
;	COMDAT ?end@?$vector@VioHashString@@V?$allocator@VioHashString@@@std@@@std@@QAE?AV?$_Vector_iterator@V?$_Vector_val@VioHashString@@V?$allocator@VioHashString@@@std@@@std@@@2@XZ
_TEXT	SEGMENT
___$ReturnUdt$ = 8					; size = 4
?end@?$vector@VioHashString@@V?$allocator@VioHashString@@@std@@@std@@QAE?AV?$_Vector_iterator@V?$_Vector_val@VioHashString@@V?$allocator@VioHashString@@@std@@@std@@@2@XZ PROC ; std::vector<ioHashString,std::allocator<ioHashString> >::end, COMDAT
; _this$ = ecx

; 791  : 		{	// return iterator for end of mutable sequence

  00000	55		 push	 ebp
  00001	8b ec		 mov	 ebp, esp

; 792  : 		return (iterator(this->_Mylast, this));

  00003	8b 49 04	 mov	 ecx, DWORD PTR [ecx+4]
  00006	8b 45 08	 mov	 eax, DWORD PTR ___$ReturnUdt$[ebp]
  00009	89 08		 mov	 DWORD PTR [eax], ecx

; 793  : 		}

  0000b	5d		 pop	 ebp
  0000c	c2 04 00	 ret	 4
?end@?$vector@VioHashString@@V?$allocator@VioHashString@@@std@@@std@@QAE?AV?$_Vector_iterator@V?$_Vector_val@VioHashString@@V?$allocator@VioHashString@@@std@@@std@@@2@XZ ENDP ; std::vector<ioHashString,std::allocator<ioHashString> >::end
_TEXT	ENDS
PUBLIC	??8?$_Vector_const_iterator@V?$_Vector_val@VioHashString@@V?$allocator@VioHashString@@@std@@@std@@@std@@QBE_NABV01@@Z ; std::_Vector_const_iterator<std::_Vector_val<ioHashString,std::allocator<ioHashString> > >::operator==
; Function compile flags: /Ogsp
;	COMDAT ??8?$_Vector_const_iterator@V?$_Vector_val@VioHashString@@V?$allocator@VioHashString@@@std@@@std@@@std@@QBE_NABV01@@Z
_TEXT	SEGMENT
__Right$ = 8						; size = 4
??8?$_Vector_const_iterator@V?$_Vector_val@VioHashString@@V?$allocator@VioHashString@@@std@@@std@@@std@@QBE_NABV01@@Z PROC ; std::_Vector_const_iterator<std::_Vector_val<ioHashString,std::allocator<ioHashString> > >::operator==, COMDAT
; _this$ = ecx

; 201  : 		{	// test for iterator equality

  00000	55		 push	 ebp
  00001	8b ec		 mov	 ebp, esp

; 202  : 		_Compat(_Right);
; 203  : 		return (this->_Ptr == _Right._Ptr);

  00003	8b 01		 mov	 eax, DWORD PTR [ecx]
  00005	8b 4d 08	 mov	 ecx, DWORD PTR __Right$[ebp]
  00008	2b 01		 sub	 eax, DWORD PTR [ecx]
  0000a	f7 d8		 neg	 eax
  0000c	1b c0		 sbb	 eax, eax
  0000e	40		 inc	 eax

; 204  : 		}

  0000f	5d		 pop	 ebp
  00010	c2 04 00	 ret	 4
??8?$_Vector_const_iterator@V?$_Vector_val@VioHashString@@V?$allocator@VioHashString@@@std@@@std@@@std@@QBE_NABV01@@Z ENDP ; std::_Vector_const_iterator<std::_Vector_val<ioHashString,std::allocator<ioHashString> > >::operator==
_TEXT	ENDS
PUBLIC	?GetExperienceMode@ioBaseChar@@QBE?BKXZ		; ioBaseChar::GetExperienceMode
; Function compile flags: /Ogsp
; File d:\lost saga for developer\youtube\tutorial\source\src\lsclient\iobasechar.h
;	COMDAT ?GetExperienceMode@ioBaseChar@@QBE?BKXZ
_TEXT	SEGMENT
_value$536856 = -4					; size = 4
?GetExperienceMode@ioBaseChar@@QBE?BKXZ PROC		; ioBaseChar::GetExperienceMode, COMDAT
; _this$ = ecx

; 3193 : 	inline const DWORD GetExperienceMode() const { return m_ExperienceMode; }

  00000	55		 push	 ebp
  00001	8b ec		 mov	 ebp, esp
  00003	51		 push	 ecx
  00004	8d 45 fc	 lea	 eax, DWORD PTR _value$536856[ebp]
  00007	50		 push	 eax
  00008	81 c1 94 1d 00
	00		 add	 ecx, 7572		; 00001d94H
  0000e	e8 00 00 00 00	 call	 ?DecryptValueToPool@?$CEncrypt@K@@QAEXPAK@Z ; CEncrypt<unsigned long>::DecryptValueToPool
  00013	8b 45 fc	 mov	 eax, DWORD PTR _value$536856[ebp]
  00016	c9		 leave
  00017	c3		 ret	 0
?GetExperienceMode@ioBaseChar@@QBE?BKXZ ENDP		; ioBaseChar::GetExperienceMode
_TEXT	ENDS
PUBLIC	_fTimePerSec$GSCopy$
PUBLIC	__$ArrayPad$
PUBLIC	?FollowOwner@ioTargetTrace13Dummy@@IAEXPAVioBaseChar@@M@Z ; ioTargetTrace13Dummy::FollowOwner
EXTRN	?ConvertDirToQuaternion@Help@@YA?AUD3DXQUATERNION@@ABUD3DXVECTOR3@@@Z:PROC ; Help::ConvertDirToQuaternion
EXTRN	__imp_?VEC3_ZERO@ioMath@@2UD3DXVECTOR3@@A:BYTE
; Function compile flags: /Ogsp
; File d:\lost saga for developer\youtube\tutorial\source\src\lsclient\iotargettrace13dummy.cpp
;	COMDAT ?FollowOwner@ioTargetTrace13Dummy@@IAEXPAVioBaseChar@@M@Z
_TEXT	SEGMENT
_qtOwnerRot$532578 = -64				; size = 16
_qtRot$532575 = -64					; size = 16
_value$536878 = -48					; size = 4
_fTimePerSec$GSCopy$ = -44				; size = 4
_vRot$532574 = -40					; size = 12
$T532573 = -28						; size = 12
_vMoveDir$532571 = -16					; size = 12
__$ArrayPad$ = -4					; size = 4
_pOwner$ = 8						; size = 4
_fTimePerSec$ = 12					; size = 4
?FollowOwner@ioTargetTrace13Dummy@@IAEXPAVioBaseChar@@M@Z PROC ; ioTargetTrace13Dummy::FollowOwner, COMDAT
; _this$ = ecx

; 514  : {

  00000	55		 push	 ebp
  00001	8b ec		 mov	 ebp, esp
  00003	83 ec 40	 sub	 esp, 64			; 00000040H
  00006	a1 00 00 00 00	 mov	 eax, DWORD PTR ___security_cookie
  0000b	33 c5		 xor	 eax, ebp
  0000d	89 45 fc	 mov	 DWORD PTR __$ArrayPad$[ebp], eax
  00010	f3 0f 10 45 0c	 movss	 xmm0, DWORD PTR _fTimePerSec$[ebp]
  00015	53		 push	 ebx
  00016	56		 push	 esi
  00017	8b 75 08	 mov	 esi, DWORD PTR _pOwner$[ebp]
  0001a	8b d9		 mov	 ebx, ecx
  0001c	f3 0f 11 45 d4	 movss	 DWORD PTR _fTimePerSec$GSCopy$[ebp], xmm0

; 515  : 	if ( !pOwner )

  00021	85 f6		 test	 esi, esi
  00023	0f 84 6f 01 00
	00		 je	 $LN1@FollowOwne

; 516  : 		return;
; 517  : 
; 518  : 	ioPlayStage *pStage = pOwner->GetCreator();
; 519  : 	if ( !pStage )

  00029	83 be 44 03 00
	00 00		 cmp	 DWORD PTR [esi+836], 0
  00030	0f 84 62 01 00
	00		 je	 $LN1@FollowOwne

; 520  : 		return;
; 521  : 
; 522  : 	SetOffsetPosAndDir( pOwner );

  00036	57		 push	 edi
  00037	56		 push	 esi
  00038	e8 00 00 00 00	 call	 ?SetOffsetPosAndDir@ioTargetTrace13Dummy@@IAEXPAVioBaseChar@@@Z ; ioTargetTrace13Dummy::SetOffsetPosAndDir

; 523  : 
; 524  : 	if( D3DXVec3Length( &m_vMoveDir ) > m_fFollowLength )

  0003d	8d 83 d8 14 00
	00		 lea	 eax, DWORD PTR [ebx+5336]
  00043	f3 0f 10 40 04	 movss	 xmm0, DWORD PTR [eax+4]
  00048	f3 0f 10 08	 movss	 xmm1, DWORD PTR [eax]
  0004c	f3 0f 10 50 08	 movss	 xmm2, DWORD PTR [eax+8]
  00051	0f 5a c0	 cvtps2pd xmm0, xmm0
  00054	f2 0f 59 c0	 mulsd	 xmm0, xmm0
  00058	0f 5a c9	 cvtps2pd xmm1, xmm1
  0005b	f2 0f 59 c9	 mulsd	 xmm1, xmm1
  0005f	f2 0f 58 c8	 addsd	 xmm1, xmm0
  00063	0f 57 c0	 xorps	 xmm0, xmm0
  00066	0f 5a d2	 cvtps2pd xmm2, xmm2
  00069	f2 0f 59 d2	 mulsd	 xmm2, xmm2
  0006d	f2 0f 58 ca	 addsd	 xmm1, xmm2
  00071	66 0f 5a c1	 cvtpd2ps xmm0, xmm1
  00075	f3 0f 10 8b 7c
	15 00 00	 movss	 xmm1, DWORD PTR [ebx+5500]
  0007d	0f 5a c0	 cvtps2pd xmm0, xmm0
  00080	f2 0f 51 c0	 sqrtsd	 xmm0, xmm0
  00084	66 0f 5a c0	 cvtpd2ps xmm0, xmm0
  00088	f3 0f 5a c0	 cvtss2sd xmm0, xmm0
  0008c	0f 5a c9	 cvtps2pd xmm1, xmm1
  0008f	66 0f 2f c1	 comisd	 xmm0, xmm1
  00093	0f 86 e3 00 00
	00		 jbe	 $LN2@FollowOwne

; 525  : 	{
; 526  : 		D3DXVECTOR3 vMoveDir = ioMath::VEC3_ZERO;

  00099	8b 35 00 00 00
	00		 mov	 esi, DWORD PTR __imp_?VEC3_ZERO@ioMath@@2UD3DXVECTOR3@@A
  0009f	8d 7d f0	 lea	 edi, DWORD PTR _vMoveDir$532571[ebp]
  000a2	a5		 movsd
  000a3	a5		 movsd

; 527  : 		D3DXVec3Normalize( &vMoveDir, &m_vMoveDir);

  000a4	50		 push	 eax
  000a5	8d 45 f0	 lea	 eax, DWORD PTR _vMoveDir$532571[ebp]
  000a8	50		 push	 eax
  000a9	a5		 movsd
  000aa	e8 00 00 00 00	 call	 _D3DXVec3Normalize@8

; 528  : 
; 529  : 		Translate( vMoveDir * m_fMoveSpeed * fTimePerSec );

  000af	8d 45 d0	 lea	 eax, DWORD PTR _value$536878[ebp]
  000b2	50		 push	 eax
  000b3	8d 8b d8 0b 00
	00		 lea	 ecx, DWORD PTR [ebx+3032]
  000b9	e8 00 00 00 00	 call	 ?DecryptValueToPool@?$CEncrypt@M@@QAEXPAM@Z ; CEncrypt<float>::DecryptValueToPool
  000be	f3 0f 10 45 f0	 movss	 xmm0, DWORD PTR _vMoveDir$532571[ebp]
  000c3	f3 0f 10 4d d0	 movss	 xmm1, DWORD PTR _value$536878[ebp]
  000c8	f3 0f 10 55 d0	 movss	 xmm2, DWORD PTR _value$536878[ebp]
  000cd	f3 0f 10 5d d0	 movss	 xmm3, DWORD PTR _value$536878[ebp]
  000d2	0f 5a c0	 cvtps2pd xmm0, xmm0
  000d5	0f 5a c9	 cvtps2pd xmm1, xmm1
  000d8	f2 0f 59 c1	 mulsd	 xmm0, xmm1
  000dc	f3 0f 10 4d f4	 movss	 xmm1, DWORD PTR _vMoveDir$532571[ebp+4]
  000e1	8b 03		 mov	 eax, DWORD PTR [ebx]
  000e3	66 0f 5a c0	 cvtpd2ps xmm0, xmm0
  000e7	0f 5a c9	 cvtps2pd xmm1, xmm1
  000ea	0f 5a d2	 cvtps2pd xmm2, xmm2
  000ed	f2 0f 59 ca	 mulsd	 xmm1, xmm2
  000f1	f3 0f 10 55 f8	 movss	 xmm2, DWORD PTR _vMoveDir$532571[ebp+8]
  000f6	f3 0f 5a c0	 cvtss2sd xmm0, xmm0
  000fa	0f 5a db	 cvtps2pd xmm3, xmm3
  000fd	0f 5a d2	 cvtps2pd xmm2, xmm2
  00100	f2 0f 59 d3	 mulsd	 xmm2, xmm3
  00104	f3 0f 10 5d d4	 movss	 xmm3, DWORD PTR _fTimePerSec$GSCopy$[ebp]
  00109	66 0f 5a c9	 cvtpd2ps xmm1, xmm1
  0010d	0f 5a db	 cvtps2pd xmm3, xmm3
  00110	f2 0f 59 c3	 mulsd	 xmm0, xmm3
  00114	66 0f 5a c0	 cvtpd2ps xmm0, xmm0
  00118	f3 0f 11 45 e4	 movss	 DWORD PTR $T532573[ebp], xmm0
  0011d	0f 57 c0	 xorps	 xmm0, xmm0
  00120	f3 0f 5a c1	 cvtss2sd xmm0, xmm1
  00124	f3 0f 10 4d d4	 movss	 xmm1, DWORD PTR _fTimePerSec$GSCopy$[ebp]
  00129	0f 5a c9	 cvtps2pd xmm1, xmm1
  0012c	f2 0f 59 c1	 mulsd	 xmm0, xmm1
  00130	f3 0f 10 4d d4	 movss	 xmm1, DWORD PTR _fTimePerSec$GSCopy$[ebp]
  00135	66 0f 5a c0	 cvtpd2ps xmm0, xmm0
  00139	f3 0f 11 45 e8	 movss	 DWORD PTR $T532573[ebp+4], xmm0
  0013e	0f 57 c0	 xorps	 xmm0, xmm0
  00141	66 0f 5a d2	 cvtpd2ps xmm2, xmm2
  00145	f3 0f 5a c2	 cvtss2sd xmm0, xmm2
  00149	8d 4d e4	 lea	 ecx, DWORD PTR $T532573[ebp]
  0014c	0f 5a c9	 cvtps2pd xmm1, xmm1
  0014f	f2 0f 59 c1	 mulsd	 xmm0, xmm1
  00153	51		 push	 ecx
  00154	66 0f 5a c0	 cvtpd2ps xmm0, xmm0
  00158	8b cb		 mov	 ecx, ebx
  0015a	f3 0f 11 45 ec	 movss	 DWORD PTR $T532573[ebp+8], xmm0
  0015f	ff 50 50	 call	 DWORD PTR [eax+80]

; 530  : 
; 531  : 		D3DXVECTOR3 vRot = vMoveDir;

  00162	8d 75 f0	 lea	 esi, DWORD PTR _vMoveDir$532571[ebp]
  00165	8d 7d d8	 lea	 edi, DWORD PTR _vRot$532574[ebp]
  00168	a5		 movsd

; 532  : 		D3DXQUATERNION qtRot = Help::ConvertDirToQuaternion( vRot );

  00169	8d 45 d8	 lea	 eax, DWORD PTR _vRot$532574[ebp]
  0016c	a5		 movsd
  0016d	50		 push	 eax
  0016e	8d 45 c0	 lea	 eax, DWORD PTR _qtRot$532575[ebp]
  00171	50		 push	 eax
  00172	a5		 movsd
  00173	e8 00 00 00 00	 call	 ?ConvertDirToQuaternion@Help@@YA?AUD3DXQUATERNION@@ABUD3DXVECTOR3@@@Z ; Help::ConvertDirToQuaternion
  00178	59		 pop	 ecx
  00179	59		 pop	 ecx

; 533  : 		SetWorldOrientation( qtRot );
; 534  : 	}
; 535  : 	else

  0017a	eb 10		 jmp	 SHORT $LN24@FollowOwne
$LN2@FollowOwne:

; 536  : 	{
; 537  : 		D3DXQUATERNION qtOwnerRot = pOwner->GetWorldOrientation();

  0017c	8b 06		 mov	 eax, DWORD PTR [esi]
  0017e	8b ce		 mov	 ecx, esi
  00180	ff 50 74	 call	 DWORD PTR [eax+116]
  00183	8b f0		 mov	 esi, eax
  00185	8d 7d c0	 lea	 edi, DWORD PTR _qtOwnerRot$532578[ebp]
  00188	a5		 movsd
  00189	a5		 movsd
  0018a	a5		 movsd
  0018b	a5		 movsd
$LN24@FollowOwne:

; 538  : 		SetWorldOrientation( qtOwnerRot );

  0018c	8b 03		 mov	 eax, DWORD PTR [ebx]
  0018e	8d 4d c0	 lea	 ecx, DWORD PTR _qtOwnerRot$532578[ebp]
  00191	51		 push	 ecx
  00192	8b cb		 mov	 ecx, ebx
  00194	ff 50 48	 call	 DWORD PTR [eax+72]
  00197	5f		 pop	 edi
$LN1@FollowOwne:

; 539  : 	}
; 540  : }

  00198	8b 4d fc	 mov	 ecx, DWORD PTR __$ArrayPad$[ebp]
  0019b	5e		 pop	 esi
  0019c	33 cd		 xor	 ecx, ebp
  0019e	5b		 pop	 ebx
  0019f	e8 00 00 00 00	 call	 @__security_check_cookie@4
  001a4	c9		 leave
  001a5	c2 08 00	 ret	 8
?FollowOwner@ioTargetTrace13Dummy@@IAEXPAVioBaseChar@@M@Z ENDP ; ioTargetTrace13Dummy::FollowOwner
_TEXT	ENDS
PUBLIC	__real@4f800000
PUBLIC	_pStage$GSCopy$
PUBLIC	__$ArrayPad$
PUBLIC	?CheckTarget@ioTargetTrace13Dummy@@IAEXPAVioPlayStage@@@Z ; ioTargetTrace13Dummy::CheckTarget
EXTRN	??1SP2Packet@@UAE@XZ:PROC			; SP2Packet::~SP2Packet
EXTRN	?SendToAllPlayingUser@P2PNetwork@@YAXAAVSP2Packet@@PAVioBaseChar@@@Z:PROC ; P2PNetwork::SendToAllPlayingUser
EXTRN	??6SP2Packet@@QAEAAV0@_N@Z:PROC			; SP2Packet::operator<<
EXTRN	??6SP2Packet@@QAEAAV0@H@Z:PROC			; SP2Packet::operator<<
EXTRN	??6SP2Packet@@QAEAAV0@ABVioHashString@@@Z:PROC	; SP2Packet::operator<<
EXTRN	??0SP2Packet@@QAE@K@Z:PROC			; SP2Packet::SP2Packet
EXTRN	?IsNetworkMode@ioPlayStage@@QAE_NXZ:PROC	; ioPlayStage::IsNetworkMode
EXTRN	?IsNetworkPlaying@P2PNetwork@@YA_NXZ:PROC	; P2PNetwork::IsNetworkPlaying
EXTRN	?GetMidPositionByRate@ioGameEntity@@QBE?AUD3DXVECTOR3@@M@Z:PROC ; ioGameEntity::GetMidPositionByRate
EXTRN	?IsChatModeState@ioBaseChar@@QBE_N_N@Z:PROC	; ioBaseChar::IsChatModeState
EXTRN	?HasHideBuff@ioBaseChar@@QAE?B_NXZ:PROC		; ioBaseChar::HasHideBuff
EXTRN	__imp_?Clear@ioHashString@@QAEXXZ:PROC
EXTRN	?GetBaseChar@ioPlayStage@@QAEPAVioBaseChar@@ABVioHashString@@@Z:PROC ; ioPlayStage::GetBaseChar
EXTRN	__imp_?IsEmpty@ioHashString@@QBE_NXZ:PROC
EXTRN	__chkstk:PROC
;	COMDAT __real@4f800000
; File d:\lost saga for developer\youtube\tutorial\source\src\lsclient\encryptvalue.h
CONST	SEGMENT
__real@4f800000 DD 04f800000r			; 4.29497e+009
CONST	ENDS
;	COMDAT xdata$x
xdata$x	SEGMENT
__unwindtable$?CheckTarget@ioTargetTrace13Dummy@@IAEXPAVioPlayStage@@@Z DD 0ffffffffH
	DD	FLAT:__unwindfunclet$?CheckTarget@ioTargetTrace13Dummy@@IAEXPAVioPlayStage@@@Z$0
	DD	00H
	DD	FLAT:__unwindfunclet$?CheckTarget@ioTargetTrace13Dummy@@IAEXPAVioPlayStage@@@Z$1
__ehfuncinfo$?CheckTarget@ioTargetTrace13Dummy@@IAEXPAVioPlayStage@@@Z DD 019930522H
	DD	02H
	DD	FLAT:__unwindtable$?CheckTarget@ioTargetTrace13Dummy@@IAEXPAVioPlayStage@@@Z
	DD	2 DUP(00H)
	DD	2 DUP(00H)
	DD	00H
	DD	01H
; Function compile flags: /Ogsp
; File d:\lost saga for developer\youtube\tutorial\source\src\lsclient\iotargettrace13dummy.cpp
xdata$x	ENDS
;	COMDAT ?CheckTarget@ioTargetTrace13Dummy@@IAEXPAVioPlayStage@@@Z
_TEXT	SEGMENT
_szTarget$ = -32860					; size = 16
_pStage$GSCopy$ = -32844				; size = 4
$T532793 = -32840					; size = 12
_vPrePos$532790 = -32840				; size = 12
_fRange$532794 = -32828					; size = 4
_pTarget$ = -32828					; size = 4
tv576 = -32824						; size = 4
tv572 = -32824						; size = 4
tv568 = -32824						; size = 4
_value$536947 = -32824					; size = 4
_kPacket$532800 = -32820				; size = 32792
_vDiff$532791 = -28					; size = 12
__$ArrayPad$ = -16					; size = 4
__$EHRec$ = -12						; size = 12
_pStage$ = 8						; size = 4
?CheckTarget@ioTargetTrace13Dummy@@IAEXPAVioPlayStage@@@Z PROC ; ioTargetTrace13Dummy::CheckTarget, COMDAT
; _this$ = ecx

; 703  : {

  00000	55		 push	 ebp
  00001	8b ec		 mov	 ebp, esp
  00003	6a ff		 push	 -1
  00005	68 00 00 00 00	 push	 __ehhandler$?CheckTarget@ioTargetTrace13Dummy@@IAEXPAVioPlayStage@@@Z
  0000a	64 a1 00 00 00
	00		 mov	 eax, DWORD PTR fs:0
  00010	50		 push	 eax
  00011	b8 50 80 00 00	 mov	 eax, 32848		; 00008050H
  00016	e8 00 00 00 00	 call	 __chkstk
  0001b	a1 00 00 00 00	 mov	 eax, DWORD PTR ___security_cookie
  00020	33 c5		 xor	 eax, ebp
  00022	89 45 f0	 mov	 DWORD PTR __$ArrayPad$[ebp], eax
  00025	53		 push	 ebx
  00026	56		 push	 esi
  00027	57		 push	 edi
  00028	50		 push	 eax
  00029	8d 45 f4	 lea	 eax, DWORD PTR __$EHRec$[ebp]
  0002c	64 a3 00 00 00
	00		 mov	 DWORD PTR fs:0, eax
  00032	8b 7d 08	 mov	 edi, DWORD PTR _pStage$[ebp]
  00035	8b d9		 mov	 ebx, ecx

; 766  : 		{
; 767  : 			SP2Packet kPacket( CUPK_DUMMY_CHAR_SYNC );

  00037	89 bd b4 7f ff
	ff		 mov	 DWORD PTR _pStage$GSCopy$[ebp], edi
  0003d	85 ff		 test	 edi, edi
  0003f	0f 84 f4 02 00
	00		 je	 $LN16@CheckTarge

; 704  : 	if( !pStage ) return;
; 705  : 	if( m_TargetTraceName.IsEmpty() ) return;

  00045	8d b3 d8 0a 00
	00		 lea	 esi, DWORD PTR [ebx+2776]
  0004b	8b ce		 mov	 ecx, esi
  0004d	ff 15 00 00 00
	00		 call	 DWORD PTR __imp_?IsEmpty@ioHashString@@QBE_NXZ
  00053	84 c0		 test	 al, al
  00055	0f 85 de 02 00
	00		 jne	 $LN16@CheckTarge

; 706  : 
; 707  : 	ioHashString szTarget = m_TargetTraceName;

  0005b	56		 push	 esi
  0005c	8d 8d a4 7f ff
	ff		 lea	 ecx, DWORD PTR _szTarget$[ebp]
  00062	ff 15 00 00 00
	00		 call	 DWORD PTR __imp_??0ioHashString@@QAE@ABV0@@Z
  00068	83 65 fc 00	 and	 DWORD PTR __$EHRec$[ebp+8], 0

; 708  : 	bool bLost = false;
; 709  : 	ioBaseChar *pTarget = pStage->GetBaseChar( m_TargetTraceName );

  0006c	56		 push	 esi
  0006d	8b cf		 mov	 ecx, edi
  0006f	e8 00 00 00 00	 call	 ?GetBaseChar@ioPlayStage@@QAEPAVioBaseChar@@ABVioHashString@@@Z ; ioPlayStage::GetBaseChar
  00074	8b f8		 mov	 edi, eax
  00076	89 bd c4 7f ff
	ff		 mov	 DWORD PTR _pTarget$[ebp], edi

; 710  : 	if( pTarget )

  0007c	85 ff		 test	 edi, edi
  0007e	0f 84 ef 01 00
	00		 je	 $LN13@CheckTarge

; 711  : 	{
; 712  : 		CharState eState = pTarget->GetState();
; 713  : 		switch( eState )

  00084	0f b6 87 10 03
	00 00		 movzx	 eax, BYTE PTR [edi+784]
  0008b	83 f8 20	 cmp	 eax, 32			; 00000020H
  0008e	7f 1b		 jg	 SHORT $LN18@CheckTarge
  00090	74 37		 je	 SHORT $LN10@CheckTarge
  00092	83 e8 0e	 sub	 eax, 14			; 0000000eH
  00095	74 32		 je	 SHORT $LN10@CheckTarge
  00097	48		 dec	 eax
  00098	48		 dec	 eax
  00099	74 2e		 je	 SHORT $LN10@CheckTarge
  0009b	83 e8 03	 sub	 eax, 3
  0009e	74 29		 je	 SHORT $LN10@CheckTarge
  000a0	83 e8 05	 sub	 eax, 5
  000a3	74 24		 je	 SHORT $LN10@CheckTarge
  000a5	48		 dec	 eax
  000a6	48		 dec	 eax
  000a7	74 20		 je	 SHORT $LN10@CheckTarge
  000a9	eb 26		 jmp	 SHORT $LN11@CheckTarge
$LN18@CheckTarge:
  000ab	83 f8 22	 cmp	 eax, 34			; 00000022H
  000ae	74 19		 je	 SHORT $LN10@CheckTarge
  000b0	83 f8 24	 cmp	 eax, 36			; 00000024H
  000b3	74 14		 je	 SHORT $LN10@CheckTarge
  000b5	83 f8 29	 cmp	 eax, 41			; 00000029H
  000b8	7e 17		 jle	 SHORT $LN11@CheckTarge
  000ba	83 f8 2b	 cmp	 eax, 43			; 0000002bH
  000bd	7e 0a		 jle	 SHORT $LN10@CheckTarge
  000bf	83 f8 2f	 cmp	 eax, 47			; 0000002fH
  000c2	74 05		 je	 SHORT $LN10@CheckTarge
  000c4	83 f8 5d	 cmp	 eax, 93			; 0000005dH
  000c7	75 08		 jne	 SHORT $LN11@CheckTarge
$LN10@CheckTarge:

; 714  : 		{
; 715  : 		case CS_DIE:
; 716  : 		case CS_DROP_ZONE_DOWN:
; 717  : 		case CS_READY:
; 718  : 		case CS_VIEW:
; 719  : 		case CS_OBSERVER:
; 720  : 		case CS_LOADING:
; 721  : 		case CS_FISHING:
; 722  : 		case CS_STARTMOTION:
; 723  : 		case CS_ENDMOTION:
; 724  : 		case CS_WARP_STATE:
; 725  : 		case CS_EXCAVATING:
; 726  : 		case CS_ROULETTE:
; 727  : 			m_TargetTraceName.Clear();

  000c9	8b ce		 mov	 ecx, esi
  000cb	ff 15 00 00 00
	00		 call	 DWORD PTR __imp_?Clear@ioHashString@@QAEXXZ
$LN11@CheckTarge:

; 728  : 			break;
; 729  : 		}
; 730  : 
; 731  : 		if( !pTarget->IsNeedProcess() )

  000d1	8b 07		 mov	 eax, DWORD PTR [edi]
  000d3	8b cf		 mov	 ecx, edi
  000d5	ff 90 00 01 00
	00		 call	 DWORD PTR [eax+256]
  000db	84 c0		 test	 al, al

; 732  : 			return;

  000dd	0f 84 46 02 00
	00		 je	 $LN1@CheckTarge

; 733  : 
; 734  : 		if( !m_TargetTraceName.IsEmpty() && pTarget->HasHideBuff() )

  000e3	8b ce		 mov	 ecx, esi
  000e5	ff 15 00 00 00
	00		 call	 DWORD PTR __imp_?IsEmpty@ioHashString@@QBE_NXZ
  000eb	84 c0		 test	 al, al
  000ed	75 13		 jne	 SHORT $LN8@CheckTarge
  000ef	8b cf		 mov	 ecx, edi
  000f1	e8 00 00 00 00	 call	 ?HasHideBuff@ioBaseChar@@QAE?B_NXZ ; ioBaseChar::HasHideBuff
  000f6	84 c0		 test	 al, al
  000f8	74 08		 je	 SHORT $LN8@CheckTarge

; 735  : 			m_TargetTraceName.Clear();

  000fa	8b ce		 mov	 ecx, esi
  000fc	ff 15 00 00 00
	00		 call	 DWORD PTR __imp_?Clear@ioHashString@@QAEXXZ
$LN8@CheckTarge:

; 736  : 
; 737  : 		if( !m_TargetTraceName.IsEmpty() && pTarget->IsChatModeState( false ) )

  00102	8b ce		 mov	 ecx, esi
  00104	ff 15 00 00 00
	00		 call	 DWORD PTR __imp_?IsEmpty@ioHashString@@QBE_NXZ
  0010a	84 c0		 test	 al, al
  0010c	75 15		 jne	 SHORT $LN7@CheckTarge
  0010e	6a 00		 push	 0
  00110	8b cf		 mov	 ecx, edi
  00112	e8 00 00 00 00	 call	 ?IsChatModeState@ioBaseChar@@QBE_N_N@Z ; ioBaseChar::IsChatModeState
  00117	84 c0		 test	 al, al
  00119	74 08		 je	 SHORT $LN7@CheckTarge

; 738  : 			m_TargetTraceName.Clear();

  0011b	8b ce		 mov	 ecx, esi
  0011d	ff 15 00 00 00
	00		 call	 DWORD PTR __imp_?Clear@ioHashString@@QAEXXZ
$LN7@CheckTarge:

; 739  : 
; 740  : 		if( !m_TargetTraceName.IsEmpty() )

  00123	8b ce		 mov	 ecx, esi
  00125	ff 15 00 00 00
	00		 call	 DWORD PTR __imp_?IsEmpty@ioHashString@@QBE_NXZ
  0012b	84 c0		 test	 al, al
  0012d	0f 85 48 01 00
	00		 jne	 $LN4@CheckTarge

; 741  : 		{
; 742  : 			D3DXVECTOR3 vPrePos = GetWorldPosition();

  00133	8b 03		 mov	 eax, DWORD PTR [ebx]
  00135	8b cb		 mov	 ecx, ebx
  00137	ff 50 70	 call	 DWORD PTR [eax+112]
  0013a	8b f0		 mov	 esi, eax
  0013c	8d bd b8 7f ff
	ff		 lea	 edi, DWORD PTR _vPrePos$532790[ebp]
  00142	a5		 movsd
  00143	a5		 movsd
  00144	a5		 movsd

; 743  : 			vPrePos.y = 0.f;
; 744  : 
; 745  : 			D3DXVECTOR3 vDiff = pTarget->GetMidPositionByRate();

  00145	b8 05 00 00 00	 mov	 eax, 5
  0014a	8b c8		 mov	 ecx, eax
  0014c	b8 0a 00 00 00	 mov	 eax, 10			; 0000000aH
  00151	89 8d c8 7f ff
	ff		 mov	 DWORD PTR tv576[ebp], ecx
  00157	db 85 c8 7f ff
	ff		 fild	 DWORD PTR tv576[ebp]
  0015d	85 c9		 test	 ecx, ecx
  0015f	79 06		 jns	 SHORT $LN40@CheckTarge
  00161	d8 05 00 00 00
	00		 fadd	 DWORD PTR __real@4f800000
$LN40@CheckTarge:
  00167	89 85 c8 7f ff
	ff		 mov	 DWORD PTR tv572[ebp], eax
  0016d	db 85 c8 7f ff
	ff		 fild	 DWORD PTR tv572[ebp]
  00173	85 c0		 test	 eax, eax
  00175	79 06		 jns	 SHORT $LN41@CheckTarge
  00177	d8 05 00 00 00
	00		 fadd	 DWORD PTR __real@4f800000
$LN41@CheckTarge:
  0017d	de f9		 fdivp	 ST(1), ST(0)
  0017f	51		 push	 ecx
  00180	8b 8d c4 7f ff
	ff		 mov	 ecx, DWORD PTR _pTarget$[ebp]
  00186	8d 45 e4	 lea	 eax, DWORD PTR _vDiff$532791[ebp]
  00189	d9 9d c8 7f ff
	ff		 fstp	 DWORD PTR tv568[ebp]
  0018f	d9 85 c8 7f ff
	ff		 fld	 DWORD PTR tv568[ebp]
  00195	d9 1c 24	 fstp	 DWORD PTR [esp]
  00198	50		 push	 eax
  00199	e8 00 00 00 00	 call	 ?GetMidPositionByRate@ioGameEntity@@QBE?AUD3DXVECTOR3@@M@Z ; ioGameEntity::GetMidPositionByRate

; 746  : 			vDiff.y = 0.f;
; 747  : 			vDiff = vDiff - vPrePos;

  0019e	f3 0f 10 45 e4	 movss	 xmm0, DWORD PTR _vDiff$532791[ebp]
  001a3	f3 0f 10 8d b8
	7f ff ff	 movss	 xmm1, DWORD PTR _vPrePos$532790[ebp]
  001ab	f3 0f 10 55 ec	 movss	 xmm2, DWORD PTR _vDiff$532791[ebp+8]
  001b0	f3 0f 10 9d c0
	7f ff ff	 movss	 xmm3, DWORD PTR _vPrePos$532790[ebp+8]
  001b8	0f 5a c0	 cvtps2pd xmm0, xmm0
  001bb	0f 5a c9	 cvtps2pd xmm1, xmm1
  001be	f2 0f 5c c1	 subsd	 xmm0, xmm1
  001c2	0f 57 c9	 xorps	 xmm1, xmm1
  001c5	66 0f 5a c8	 cvtpd2ps xmm1, xmm0
  001c9	0f 57 c0	 xorps	 xmm0, xmm0
  001cc	f2 0f 5c c0	 subsd	 xmm0, xmm0
  001d0	66 0f 5a c0	 cvtpd2ps xmm0, xmm0
  001d4	f3 0f 11 85 bc
	7f ff ff	 movss	 DWORD PTR $T532793[ebp+4], xmm0
  001dc	0f 5a d2	 cvtps2pd xmm2, xmm2
  001df	f3 0f 11 8d b8
	7f ff ff	 movss	 DWORD PTR $T532793[ebp], xmm1
  001e7	0f 5a db	 cvtps2pd xmm3, xmm3
  001ea	f2 0f 5c d3	 subsd	 xmm2, xmm3
  001ee	66 0f 5a d2	 cvtpd2ps xmm2, xmm2
  001f2	f3 0f 11 95 c0
	7f ff ff	 movss	 DWORD PTR $T532793[ebp+8], xmm2

; 748  : 
; 749  : 			//float fRangeSq = D3DXVec3Length( & vDiff );
; 750  : 			float fRange = D3DXVec3Length( & vDiff );

  001fa	f3 0f 5a c0	 cvtss2sd xmm0, xmm0
  001fe	f2 0f 59 c0	 mulsd	 xmm0, xmm0
  00202	8d b5 b8 7f ff
	ff		 lea	 esi, DWORD PTR $T532793[ebp]
  00208	8d 7d e4	 lea	 edi, DWORD PTR _vDiff$532791[ebp]
  0020b	a5		 movsd
  0020c	0f 5a c9	 cvtps2pd xmm1, xmm1
  0020f	f3 0f 5a d2	 cvtss2sd xmm2, xmm2
  00213	f2 0f 59 c9	 mulsd	 xmm1, xmm1
  00217	f2 0f 58 c1	 addsd	 xmm0, xmm1
  0021b	f2 0f 59 d2	 mulsd	 xmm2, xmm2
  0021f	f2 0f 58 c2	 addsd	 xmm0, xmm2
  00223	66 0f 5a c0	 cvtpd2ps xmm0, xmm0
  00227	a5		 movsd
  00228	f3 0f 5a c0	 cvtss2sd xmm0, xmm0

; 751  : 			if( fRange >= m_fTraceRange )

  0022c	8d 85 c8 7f ff
	ff		 lea	 eax, DWORD PTR _value$536947[ebp]
  00232	f2 0f 51 c0	 sqrtsd	 xmm0, xmm0
  00236	66 0f 5a c0	 cvtpd2ps xmm0, xmm0
  0023a	50		 push	 eax
  0023b	8d 8b 1c 09 00
	00		 lea	 ecx, DWORD PTR [ebx+2332]
  00241	a5		 movsd
  00242	f3 0f 11 85 c4
	7f ff ff	 movss	 DWORD PTR _fRange$532794[ebp], xmm0
  0024a	e8 00 00 00 00	 call	 ?DecryptValueToPool@?$CEncrypt@M@@QAEXPAM@Z ; CEncrypt<float>::DecryptValueToPool
  0024f	f3 0f 10 85 c4
	7f ff ff	 movss	 xmm0, DWORD PTR _fRange$532794[ebp]
  00257	f3 0f 10 8d c8
	7f ff ff	 movss	 xmm1, DWORD PTR _value$536947[ebp]
  0025f	0f 5a c0	 cvtps2pd xmm0, xmm0
  00262	0f 5a c9	 cvtps2pd xmm1, xmm1
  00265	66 0f 2f c1	 comisd	 xmm0, xmm1
  00269	72 10		 jb	 SHORT $LN4@CheckTarge

; 752  : 				m_TargetTraceName.Clear();

  0026b	8d 8b d8 0a 00
	00		 lea	 ecx, DWORD PTR [ebx+2776]

; 753  : 		}
; 754  : 	}
; 755  : 	else

  00271	eb 02		 jmp	 SHORT $LN42@CheckTarge
$LN13@CheckTarge:

; 756  : 	{
; 757  : 		m_TargetTraceName.Clear();

  00273	8b ce		 mov	 ecx, esi
$LN42@CheckTarge:
  00275	ff 15 00 00 00
	00		 call	 DWORD PTR __imp_?Clear@ioHashString@@QAEXXZ
$LN4@CheckTarge:

; 758  : 	}
; 759  : 
; 760  : 	if( m_TargetTraceName.IsEmpty() )

  0027b	8d b3 d8 0a 00
	00		 lea	 esi, DWORD PTR [ebx+2776]
  00281	8b ce		 mov	 ecx, esi
  00283	ff 15 00 00 00
	00		 call	 DWORD PTR __imp_?IsEmpty@ioHashString@@QBE_NXZ
  00289	84 c0		 test	 al, al
  0028b	0f 84 98 00 00
	00		 je	 $LN1@CheckTarge

; 761  : 		bLost = true;
; 762  : 
; 763  : 	if( bLost )
; 764  : 	{
; 765  : 		if( P2PNetwork::IsNetworkPlaying() && pStage->IsNetworkMode() )

  00291	e8 00 00 00 00	 call	 ?IsNetworkPlaying@P2PNetwork@@YA_NXZ ; P2PNetwork::IsNetworkPlaying
  00296	84 c0		 test	 al, al
  00298	0f 84 8b 00 00
	00		 je	 $LN1@CheckTarge
  0029e	8b 8d b4 7f ff
	ff		 mov	 ecx, DWORD PTR _pStage$GSCopy$[ebp]
  002a4	e8 00 00 00 00	 call	 ?IsNetworkMode@ioPlayStage@@QAE_NXZ ; ioPlayStage::IsNetworkMode
  002a9	84 c0		 test	 al, al
  002ab	74 7c		 je	 SHORT $LN1@CheckTarge

; 766  : 		{
; 767  : 			SP2Packet kPacket( CUPK_DUMMY_CHAR_SYNC );

  002ad	68 21 42 00 00	 push	 16929			; 00004221H
  002b2	8d 8d cc 7f ff
	ff		 lea	 ecx, DWORD PTR _kPacket$532800[ebp]
  002b8	e8 00 00 00 00	 call	 ??0SP2Packet@@QAE@K@Z	; SP2Packet::SP2Packet

; 768  : 			kPacket << m_OwnerName;

  002bd	8d 83 cc 01 00
	00		 lea	 eax, DWORD PTR [ebx+460]
  002c3	50		 push	 eax
  002c4	8d 8d cc 7f ff
	ff		 lea	 ecx, DWORD PTR _kPacket$532800[ebp]
  002ca	c6 45 fc 01	 mov	 BYTE PTR __$EHRec$[ebp+8], 1
  002ce	e8 00 00 00 00	 call	 ??6SP2Packet@@QAEAAV0@ABVioHashString@@@Z ; SP2Packet::operator<<

; 769  : 			kPacket << m_iCreateIndex;

  002d3	ff b3 dc 01 00
	00		 push	 DWORD PTR [ebx+476]
  002d9	8d 8d cc 7f ff
	ff		 lea	 ecx, DWORD PTR _kPacket$532800[ebp]
  002df	e8 00 00 00 00	 call	 ??6SP2Packet@@QAEAAV0@H@Z ; SP2Packet::operator<<

; 770  : 			kPacket << DUMMY_CHAR_TRACE;

  002e4	6a 08		 push	 8
  002e6	8d 8d cc 7f ff
	ff		 lea	 ecx, DWORD PTR _kPacket$532800[ebp]
  002ec	e8 00 00 00 00	 call	 ??6SP2Packet@@QAEAAV0@H@Z ; SP2Packet::operator<<

; 771  : 			kPacket << m_TargetTraceName;

  002f1	56		 push	 esi
  002f2	8d 8d cc 7f ff
	ff		 lea	 ecx, DWORD PTR _kPacket$532800[ebp]
  002f8	e8 00 00 00 00	 call	 ??6SP2Packet@@QAEAAV0@ABVioHashString@@@Z ; SP2Packet::operator<<

; 772  : 			kPacket << false;

  002fd	6a 00		 push	 0
  002ff	8d 8d cc 7f ff
	ff		 lea	 ecx, DWORD PTR _kPacket$532800[ebp]
  00305	e8 00 00 00 00	 call	 ??6SP2Packet@@QAEAAV0@_N@Z ; SP2Packet::operator<<

; 773  : 			P2PNetwork::SendToAllPlayingUser( kPacket );

  0030a	8d 85 cc 7f ff
	ff		 lea	 eax, DWORD PTR _kPacket$532800[ebp]
  00310	6a 00		 push	 0
  00312	50		 push	 eax
  00313	e8 00 00 00 00	 call	 ?SendToAllPlayingUser@P2PNetwork@@YAXAAVSP2Packet@@PAVioBaseChar@@@Z ; P2PNetwork::SendToAllPlayingUser
  00318	59		 pop	 ecx
  00319	59		 pop	 ecx

; 774  : 		}

  0031a	8d 8d cc 7f ff
	ff		 lea	 ecx, DWORD PTR _kPacket$532800[ebp]
  00320	c6 45 fc 00	 mov	 BYTE PTR __$EHRec$[ebp+8], 0
  00324	e8 00 00 00 00	 call	 ??1SP2Packet@@UAE@XZ	; SP2Packet::~SP2Packet
$LN1@CheckTarge:

; 775  : 	}
; 776  : }

  00329	83 4d fc ff	 or	 DWORD PTR __$EHRec$[ebp+8], -1
  0032d	8d 8d a4 7f ff
	ff		 lea	 ecx, DWORD PTR _szTarget$[ebp]
  00333	ff 15 00 00 00
	00		 call	 DWORD PTR __imp_??1ioHashString@@QAE@XZ
$LN16@CheckTarge:
  00339	8b 4d f4	 mov	 ecx, DWORD PTR __$EHRec$[ebp]
  0033c	64 89 0d 00 00
	00 00		 mov	 DWORD PTR fs:0, ecx
  00343	59		 pop	 ecx
  00344	5f		 pop	 edi
  00345	5e		 pop	 esi
  00346	5b		 pop	 ebx
  00347	8b 4d f0	 mov	 ecx, DWORD PTR __$ArrayPad$[ebp]
  0034a	33 cd		 xor	 ecx, ebp
  0034c	e8 00 00 00 00	 call	 @__security_check_cookie@4
  00351	c9		 leave
  00352	c2 04 00	 ret	 4
_TEXT	ENDS
;	COMDAT text$x
text$x	SEGMENT
__unwindfunclet$?CheckTarget@ioTargetTrace13Dummy@@IAEXPAVioPlayStage@@@Z$0:
  00000	8d 8d a4 7f ff
	ff		 lea	 ecx, DWORD PTR _szTarget$[ebp]
  00006	ff 25 00 00 00
	00		 jmp	 DWORD PTR __imp_??1ioHashString@@QAE@XZ
__unwindfunclet$?CheckTarget@ioTargetTrace13Dummy@@IAEXPAVioPlayStage@@@Z$1:
  0000c	8d 8d cc 7f ff
	ff		 lea	 ecx, DWORD PTR _kPacket$532800[ebp]
  00012	e9 00 00 00 00	 jmp	 ??1SP2Packet@@UAE@XZ	; SP2Packet::~SP2Packet
__ehhandler$?CheckTarget@ioTargetTrace13Dummy@@IAEXPAVioPlayStage@@@Z:
  00017	8b 54 24 08	 mov	 edx, DWORD PTR [esp+8]
  0001b	8d 42 0c	 lea	 eax, DWORD PTR [edx+12]
  0001e	8b 8a a0 7f ff
	ff		 mov	 ecx, DWORD PTR [edx-32864]
  00024	33 c8		 xor	 ecx, eax
  00026	e8 00 00 00 00	 call	 @__security_check_cookie@4
  0002b	8b 4a fc	 mov	 ecx, DWORD PTR [edx-4]
  0002e	33 c8		 xor	 ecx, eax
  00030	e8 00 00 00 00	 call	 @__security_check_cookie@4
  00035	b8 00 00 00 00	 mov	 eax, OFFSET __ehfuncinfo$?CheckTarget@ioTargetTrace13Dummy@@IAEXPAVioPlayStage@@@Z
  0003a	e9 00 00 00 00	 jmp	 ___CxxFrameHandler3
text$x	ENDS
?CheckTarget@ioTargetTrace13Dummy@@IAEXPAVioPlayStage@@@Z ENDP ; ioTargetTrace13Dummy::CheckTarget
PUBLIC	__real@bff0000000000000
PUBLIC	__real@00000000
PUBLIC	__real@4076800000000000
PUBLIC	__real@408f400000000000
PUBLIC	__$ArrayPad$
PUBLIC	?OnProcessTraceTracing@ioTargetTrace13Dummy@@IAEXM@Z ; ioTargetTrace13Dummy::OnProcessTraceTracing
EXTRN	?SetTraceState@ioDummyChar@@QAEXW4DummyCharTraceState@1@@Z:PROC ; ioDummyChar::SetTraceState
EXTRN	?ProcessTraceMovingNoneTerrain@ioDummyChar@@IAEXPAVioPlayStage@@MM@Z:PROC ; ioDummyChar::ProcessTraceMovingNoneTerrain
EXTRN	_D3DXQuaternionRotationYawPitchRoll@16:PROC
EXTRN	__imp_?AngleGap@ioMath@@SAMMM@Z:PROC
EXTRN	__imp_?ArrangeHead@ioMath@@SAMM@Z:PROC
EXTRN	__imp_?QuaterToYaw@ioMath@@SAMABUD3DXQUATERNION@@@Z:PROC
EXTRN	__imp_?CalcDirectionQuaternion@ioMath@@SAXAAUD3DXQUATERNION@@ABUD3DXVECTOR3@@@Z:PROC
EXTRN	?SetTraceWaitState@ioDummyChar@@QAEXXZ:PROC	; ioDummyChar::SetTraceWaitState
EXTRN	?IsTargetWoundedState@ioDummyChar@@QAE_NPAVioBaseChar@@@Z:PROC ; ioDummyChar::IsTargetWoundedState
EXTRN	?FindTraceTarget@ioDummyChar@@IAEXPAVioPlayStage@@@Z:PROC ; ioDummyChar::FindTraceTarget
;	COMDAT __real@bff0000000000000
; File c:\program files (x86)\microsoft visual studio 10.0\vc\include\math.h
CONST	SEGMENT
__real@bff0000000000000 DQ 0bff0000000000000r	; -1
CONST	ENDS
;	COMDAT __real@00000000
CONST	SEGMENT
__real@00000000 DD 000000000r			; 0
CONST	ENDS
;	COMDAT __real@4076800000000000
CONST	SEGMENT
__real@4076800000000000 DQ 04076800000000000r	; 360
CONST	ENDS
;	COMDAT __real@408f400000000000
CONST	SEGMENT
__real@408f400000000000 DQ 0408f400000000000r	; 1000
; Function compile flags: /Ogsp
; File d:\lost saga for developer\youtube\tutorial\source\src\lsclient\iotargettrace13dummy.cpp
CONST	ENDS
;	COMDAT ?OnProcessTraceTracing@ioTargetTrace13Dummy@@IAEXM@Z
_TEXT	SEGMENT
_qtNewRot$532850 = -132					; size = 16
_qtRot$532829 = -116					; size = 16
_qtRotate$532841 = -100					; size = 16
_pStage$ = -84						; size = 4
_pTarget$ = -80						; size = 4
_fRotateAngle$532838 = -76				; size = 4
_value$537009 = -72					; size = 4
_fTargetYaw$532846 = -72				; size = 4
_fAngleGap$532832 = -72					; size = 4
tv1301 = -68						; size = 4
tv1296 = -68						; size = 4
tv1291 = -68						; size = 4
tv1228 = -68						; size = 4
tv1221 = -68						; size = 4
tv1212 = -68						; size = 4
tv1210 = -68						; size = 4
tv1143 = -68						; size = 4
_value$537072 = -68					; size = 4
_value$537043 = -68					; size = 4
_value$537017 = -68					; size = 4
_value$537013 = -68					; size = 4
_value$536988 = -68					; size = 4
$T537039 = -68						; size = 4
_fMoveDist$ = -68					; size = 4
_fCurYaw$532845 = -68					; size = 4
_vCurPos$ = -64						; size = 12
_vSrc$532858 = -52					; size = 12
$T532851 = -52						; size = 12
_vPrePos$532819 = -52					; size = 12
_vCurDir$ = -40						; size = 12
_vTargetDir$532826 = -28				; size = 12
_vTargetPos$532821 = -28				; size = 12
_vDest$532859 = -16					; size = 12
$T532842 = -16						; size = 12
$T532830 = -16						; size = 12
$T532822 = -16						; size = 12
$T532811 = -16						; size = 12
__$ArrayPad$ = -4					; size = 4
_fTimePerSec$ = 8					; size = 4
?OnProcessTraceTracing@ioTargetTrace13Dummy@@IAEXM@Z PROC ; ioTargetTrace13Dummy::OnProcessTraceTracing, COMDAT
; _this$ = ecx

; 779  : {

  00000	55		 push	 ebp
  00001	8b ec		 mov	 ebp, esp
  00003	81 ec 84 00 00
	00		 sub	 esp, 132		; 00000084H
  00009	a1 00 00 00 00	 mov	 eax, DWORD PTR ___security_cookie
  0000e	33 c5		 xor	 eax, ebp
  00010	89 45 fc	 mov	 DWORD PTR __$ArrayPad$[ebp], eax
  00013	53		 push	 ebx
  00014	8b d9		 mov	 ebx, ecx

; 780  : 	ioBaseChar *pOwner = GetOwner();

  00016	e8 00 00 00 00	 call	 ?GetOwner@ioDummyChar@@QBEPAVioBaseChar@@XZ ; ioDummyChar::GetOwner

; 781  : 	if( !pOwner ) 

  0001b	85 c0		 test	 eax, eax
  0001d	0f 84 93 05 00
	00		 je	 $LN1@OnProcessT

; 782  : 		return;
; 783  : 
; 784  : 	ioPlayStage *pStage = pOwner->GetCreator();

  00023	57		 push	 edi
  00024	8b b8 44 03 00
	00		 mov	 edi, DWORD PTR [eax+836]
  0002a	89 7d ac	 mov	 DWORD PTR _pStage$[ebp], edi

; 785  : 	if( !pStage ) 

  0002d	85 ff		 test	 edi, edi
  0002f	0f 84 80 05 00
	00		 je	 $LN81@OnProcessT

; 786  : 		return;
; 787  : 
; 788  : 	DWORD dwCurTime = FRAMEGETTIME();

  00035	56		 push	 esi
  00036	ff 15 00 00 00
	00		 call	 DWORD PTR __imp_?GetSingleton@ioFrameTimer@@SAAAV1@XZ
  0003c	8b c8		 mov	 ecx, eax
  0003e	ff 15 00 00 00
	00		 call	 DWORD PTR __imp_?GetLoopSec@ioFrameTimer@@QBEKXZ

; 789  : 
; 790  : 	D3DXVECTOR3 vCurDir = GetWorldOrientation() * D3DXVECTOR3( 0.0f, 0.0f, -1.0f );

  00044	0f 57 c0	 xorps	 xmm0, xmm0
  00047	8b f0		 mov	 esi, eax
  00049	8d 45 f0	 lea	 eax, DWORD PTR $T532811[ebp]
  0004c	f3 0f 11 45 f0	 movss	 DWORD PTR $T532811[ebp], xmm0
  00051	f3 0f 11 45 f4	 movss	 DWORD PTR $T532811[ebp+4], xmm0
  00056	f3 0f 10 05 00
	00 00 00	 movss	 xmm0, DWORD PTR __real@bf800000
  0005e	50		 push	 eax
  0005f	8b 03		 mov	 eax, DWORD PTR [ebx]
  00061	8b cb		 mov	 ecx, ebx
  00063	f3 0f 11 45 f8	 movss	 DWORD PTR $T532811[ebp+8], xmm0
  00068	ff 50 74	 call	 DWORD PTR [eax+116]
  0006b	50		 push	 eax
  0006c	8d 45 d8	 lea	 eax, DWORD PTR _vCurDir$[ebp]
  0006f	50		 push	 eax
  00070	ff 15 00 00 00
	00		 call	 DWORD PTR __imp_??D@YA?AUD3DXVECTOR3@@ABUD3DXQUATERNION@@ABU0@@Z
  00076	83 c4 0c	 add	 esp, 12			; 0000000cH

; 791  : 	D3DXVec3Normalize( &vCurDir, &vCurDir );

  00079	8d 45 d8	 lea	 eax, DWORD PTR _vCurDir$[ebp]
  0007c	50		 push	 eax
  0007d	50		 push	 eax
  0007e	e8 00 00 00 00	 call	 _D3DXVec3Normalize@8

; 792  : 
; 793  : 	D3DXVECTOR3 vCurPos = GetMidPositionByRate();

  00083	b8 05 00 00 00	 mov	 eax, 5
  00088	8b c8		 mov	 ecx, eax
  0008a	b8 0a 00 00 00	 mov	 eax, 10			; 0000000aH
  0008f	89 4d bc	 mov	 DWORD PTR tv1301[ebp], ecx
  00092	db 45 bc	 fild	 DWORD PTR tv1301[ebp]
  00095	85 c9		 test	 ecx, ecx
  00097	79 06		 jns	 SHORT $LN83@OnProcessT
  00099	d8 05 00 00 00
	00		 fadd	 DWORD PTR __real@4f800000
$LN83@OnProcessT:
  0009f	89 45 bc	 mov	 DWORD PTR tv1296[ebp], eax
  000a2	db 45 bc	 fild	 DWORD PTR tv1296[ebp]
  000a5	85 c0		 test	 eax, eax
  000a7	79 06		 jns	 SHORT $LN84@OnProcessT
  000a9	d8 05 00 00 00
	00		 fadd	 DWORD PTR __real@4f800000
$LN84@OnProcessT:
  000af	de f9		 fdivp	 ST(1), ST(0)
  000b1	51		 push	 ecx
  000b2	8d 45 c0	 lea	 eax, DWORD PTR _vCurPos$[ebp]
  000b5	8b cb		 mov	 ecx, ebx
  000b7	d9 5d bc	 fstp	 DWORD PTR tv1291[ebp]
  000ba	d9 45 bc	 fld	 DWORD PTR tv1291[ebp]
  000bd	d9 1c 24	 fstp	 DWORD PTR [esp]
  000c0	50		 push	 eax
  000c1	e8 00 00 00 00	 call	 ?GetMidPositionByRate@ioGameEntity@@QBE?AUD3DXVECTOR3@@M@Z ; ioGameEntity::GetMidPositionByRate

; 794  : 	ioBaseChar *pTarget = NULL;
; 795  : 	if( m_dwTracingEndTime > dwCurTime )

  000c6	8d 45 bc	 lea	 eax, DWORD PTR _value$536988[ebp]
  000c9	50		 push	 eax
  000ca	8d 8b a8 0a 00
	00		 lea	 ecx, DWORD PTR [ebx+2728]
  000d0	e8 00 00 00 00	 call	 ?DecryptValueToPool@?$CEncrypt@K@@QAEXPAK@Z ; CEncrypt<unsigned long>::DecryptValueToPool

; 796  : 	{
; 797  : 		CheckTarget( pStage );

  000d5	8b cb		 mov	 ecx, ebx
  000d7	39 75 bc	 cmp	 DWORD PTR _value$536988[ebp], esi
  000da	0f 86 cd 04 00
	00		 jbe	 $LN16@OnProcessT
  000e0	57		 push	 edi
  000e1	e8 00 00 00 00	 call	 ?CheckTarget@ioTargetTrace13Dummy@@IAEXPAVioPlayStage@@@Z ; ioTargetTrace13Dummy::CheckTarget

; 798  : 		FindTraceTarget( pStage );

  000e6	57		 push	 edi
  000e7	8b cb		 mov	 ecx, ebx
  000e9	e8 00 00 00 00	 call	 ?FindTraceTarget@ioDummyChar@@IAEXPAVioPlayStage@@@Z ; ioDummyChar::FindTraceTarget

; 799  : 
; 800  : 		pTarget = pStage->GetBaseChar( m_TargetTraceName );		

  000ee	8d b3 d8 0a 00
	00		 lea	 esi, DWORD PTR [ebx+2776]
  000f4	56		 push	 esi
  000f5	8b cf		 mov	 ecx, edi
  000f7	e8 00 00 00 00	 call	 ?GetBaseChar@ioPlayStage@@QAEPAVioBaseChar@@ABVioHashString@@@Z ; ioPlayStage::GetBaseChar

; 801  : 		if( !IsTargetWoundedState( pTarget ) )

  000fc	50		 push	 eax
  000fd	8b cb		 mov	 ecx, ebx
  000ff	89 45 b0	 mov	 DWORD PTR _pTarget$[ebp], eax
  00102	e8 00 00 00 00	 call	 ?IsTargetWoundedState@ioDummyChar@@QAE_NPAVioBaseChar@@@Z ; ioDummyChar::IsTargetWoundedState
  00107	84 c0		 test	 al, al
  00109	75 0c		 jne	 SHORT $LN15@OnProcessT

; 802  : 		{
; 803  : 			SetTraceWaitState();

  0010b	8b cb		 mov	 ecx, ebx
  0010d	e8 00 00 00 00	 call	 ?SetTraceWaitState@ioDummyChar@@QAEXXZ ; ioDummyChar::SetTraceWaitState

; 804  : 			return;

  00112	e9 9d 04 00 00	 jmp	 $LN82@OnProcessT
$LN15@OnProcessT:

; 805  : 		}
; 806  : 
; 807  : 		if( pTarget )

  00117	83 7d b0 00	 cmp	 DWORD PTR _pTarget$[ebp], 0
  0011b	0f 84 67 03 00
	00		 je	 $LN14@OnProcessT

; 808  : 		{
; 809  : 			D3DXVECTOR3 vPrePos = GetWorldPosition();

  00121	8b 03		 mov	 eax, DWORD PTR [ebx]
  00123	8b cb		 mov	 ecx, ebx
  00125	ff 50 70	 call	 DWORD PTR [eax+112]

; 810  : 			vPrePos.y = 0;
; 811  : 			D3DXVECTOR3 vDiff;
; 812  : 			D3DXVECTOR3 vTargetPos = pTarget->GetWorldPosition();

  00128	8b 4d b0	 mov	 ecx, DWORD PTR _pTarget$[ebp]
  0012b	8b f0		 mov	 esi, eax
  0012d	8b 01		 mov	 eax, DWORD PTR [ecx]
  0012f	8d 7d cc	 lea	 edi, DWORD PTR _vPrePos$532819[ebp]
  00132	a5		 movsd
  00133	a5		 movsd
  00134	a5		 movsd
  00135	ff 50 70	 call	 DWORD PTR [eax+112]

; 813  : 			vTargetPos.y = 0.f;
; 814  : 
; 815  : 			vDiff = vTargetPos - vPrePos;

  00138	f3 0f 10 4d cc	 movss	 xmm1, DWORD PTR _vPrePos$532819[ebp]
  0013d	8b f0		 mov	 esi, eax
  0013f	8d 7d e4	 lea	 edi, DWORD PTR _vTargetPos$532821[ebp]
  00142	a5		 movsd
  00143	a5		 movsd
  00144	a5		 movsd
  00145	f3 0f 10 45 e4	 movss	 xmm0, DWORD PTR _vTargetPos$532821[ebp]
  0014a	0f 5a c0	 cvtps2pd xmm0, xmm0
  0014d	0f 5a c9	 cvtps2pd xmm1, xmm1
  00150	f2 0f 5c c1	 subsd	 xmm0, xmm1
  00154	f3 0f 10 4d d4	 movss	 xmm1, DWORD PTR _vPrePos$532819[ebp+8]
  00159	66 0f 5a c0	 cvtpd2ps xmm0, xmm0
  0015d	f3 0f 11 45 f0	 movss	 DWORD PTR $T532822[ebp], xmm0
  00162	0f 57 c0	 xorps	 xmm0, xmm0
  00165	f2 0f 5c c0	 subsd	 xmm0, xmm0
  00169	66 0f 5a c0	 cvtpd2ps xmm0, xmm0
  0016d	f3 0f 11 45 f4	 movss	 DWORD PTR $T532822[ebp+4], xmm0
  00172	f3 0f 10 45 ec	 movss	 xmm0, DWORD PTR _vTargetPos$532821[ebp+8]
  00177	0f 5a c0	 cvtps2pd xmm0, xmm0
  0017a	0f 5a c9	 cvtps2pd xmm1, xmm1

; 816  : 
; 817  : 			float fRangeSq = D3DXVec3LengthSq( & vDiff );
; 818  : 			if( fRangeSq < m_fTraceRange * m_fTraceRange )

  0017d	8d 45 b8	 lea	 eax, DWORD PTR _value$537009[ebp]
  00180	f2 0f 5c c1	 subsd	 xmm0, xmm1
  00184	66 0f 5a c0	 cvtpd2ps xmm0, xmm0
  00188	50		 push	 eax
  00189	8d 8b 1c 09 00
	00		 lea	 ecx, DWORD PTR [ebx+2332]
  0018f	f3 0f 11 45 f8	 movss	 DWORD PTR $T532822[ebp+8], xmm0
  00194	e8 00 00 00 00	 call	 ?DecryptValueToPool@?$CEncrypt@M@@QAEXPAM@Z ; CEncrypt<float>::DecryptValueToPool
  00199	8d 45 bc	 lea	 eax, DWORD PTR _value$537013[ebp]
  0019c	50		 push	 eax
  0019d	8d 8b 1c 09 00
	00		 lea	 ecx, DWORD PTR [ebx+2332]
  001a3	e8 00 00 00 00	 call	 ?DecryptValueToPool@?$CEncrypt@M@@QAEXPAM@Z ; CEncrypt<float>::DecryptValueToPool
  001a8	f3 0f 10 45 f0	 movss	 xmm0, DWORD PTR $T532822[ebp]
  001ad	f3 0f 10 4d f4	 movss	 xmm1, DWORD PTR $T532822[ebp+4]
  001b2	f3 0f 10 55 f8	 movss	 xmm2, DWORD PTR $T532822[ebp+8]
  001b7	0f 5a c9	 cvtps2pd xmm1, xmm1
  001ba	f2 0f 59 c9	 mulsd	 xmm1, xmm1
  001be	0f 5a c0	 cvtps2pd xmm0, xmm0
  001c1	f2 0f 59 c0	 mulsd	 xmm0, xmm0
  001c5	f2 0f 58 c8	 addsd	 xmm1, xmm0
  001c9	0f 5a d2	 cvtps2pd xmm2, xmm2
  001cc	f2 0f 59 d2	 mulsd	 xmm2, xmm2
  001d0	f2 0f 58 ca	 addsd	 xmm1, xmm2
  001d4	f3 0f 10 55 b8	 movss	 xmm2, DWORD PTR _value$537009[ebp]
  001d9	0f 57 c0	 xorps	 xmm0, xmm0
  001dc	f2 0f 5a c1	 cvtsd2ss xmm0, xmm1
  001e0	f3 0f 10 4d bc	 movss	 xmm1, DWORD PTR _value$537013[ebp]
  001e5	0f 5a c9	 cvtps2pd xmm1, xmm1
  001e8	0f 5a d2	 cvtps2pd xmm2, xmm2
  001eb	f2 0f 59 ca	 mulsd	 xmm1, xmm2
  001ef	66 0f 5a c9	 cvtpd2ps xmm1, xmm1
  001f3	0f 5a c0	 cvtps2pd xmm0, xmm0
  001f6	f3 0f 5a c9	 cvtss2sd xmm1, xmm1
  001fa	66 0f 2f c8	 comisd	 xmm1, xmm0
  001fe	0f 86 8c 02 00
	00		 jbe	 $LN80@OnProcessT

; 819  : 			{
; 820  : 				D3DXVECTOR3 vTargetDir = vDiff;
; 821  : 				vTargetDir.y = 0;

  00204	0f 57 c0	 xorps	 xmm0, xmm0
  00207	8d 75 f0	 lea	 esi, DWORD PTR $T532822[ebp]
  0020a	8d 7d e4	 lea	 edi, DWORD PTR _vTargetDir$532826[ebp]
  0020d	a5		 movsd
  0020e	a5		 movsd

; 822  : 				D3DXVec3Normalize( &vTargetDir, &vTargetDir );

  0020f	8d 45 e4	 lea	 eax, DWORD PTR _vTargetDir$532826[ebp]
  00212	50		 push	 eax
  00213	a5		 movsd
  00214	50		 push	 eax
  00215	f3 0f 11 45 e8	 movss	 DWORD PTR _vTargetDir$532826[ebp+4], xmm0
  0021a	e8 00 00 00 00	 call	 _D3DXVec3Normalize@8

; 823  : 
; 824  : 				if( m_dwRotateSpeed > 0 )

  0021f	8d 45 bc	 lea	 eax, DWORD PTR _value$537017[ebp]
  00222	8d 8b 9c 07 00
	00		 lea	 ecx, DWORD PTR [ebx+1948]
  00228	50		 push	 eax
  00229	e8 00 00 00 00	 call	 ?DecryptValueToPool@?$CEncrypt@K@@QAEXPAK@Z ; CEncrypt<unsigned long>::DecryptValueToPool
  0022e	83 7d bc 00	 cmp	 DWORD PTR _value$537017[ebp], 0
  00232	0f 86 42 02 00
	00		 jbe	 $LN12@OnProcessT

; 825  : 				{
; 826  : 					D3DXQUATERNION	qtRot;
; 827  : 					ioMath::CalcDirectionQuaternion( qtRot, -vTargetDir );

  00238	f3 0f 10 05 00
	00 00 00	 movss	 xmm0, DWORD PTR __mask@@NegFloat@
  00240	f3 0f 10 4d e4	 movss	 xmm1, DWORD PTR _vTargetDir$532826[ebp]
  00245	8b 35 00 00 00
	00		 mov	 esi, DWORD PTR __imp_?CalcDirectionQuaternion@ioMath@@SAXAAUD3DXQUATERNION@@ABUD3DXVECTOR3@@@Z
  0024b	0f 57 c8	 xorps	 xmm1, xmm0
  0024e	f3 0f 11 4d f0	 movss	 DWORD PTR $T532830[ebp], xmm1
  00253	f3 0f 10 4d e8	 movss	 xmm1, DWORD PTR _vTargetDir$532826[ebp+4]
  00258	0f 57 c8	 xorps	 xmm1, xmm0
  0025b	8d 45 f0	 lea	 eax, DWORD PTR $T532830[ebp]
  0025e	50		 push	 eax
  0025f	f3 0f 11 4d f4	 movss	 DWORD PTR $T532830[ebp+4], xmm1
  00264	f3 0f 10 4d ec	 movss	 xmm1, DWORD PTR _vTargetDir$532826[ebp+8]
  00269	8d 45 8c	 lea	 eax, DWORD PTR _qtRot$532829[ebp]
  0026c	0f 57 c8	 xorps	 xmm1, xmm0
  0026f	50		 push	 eax
  00270	f3 0f 11 4d f8	 movss	 DWORD PTR $T532830[ebp+8], xmm1
  00275	ff d6		 call	 esi

; 828  : 
; 829  : 					float fAngle = D3DXVec3Dot( &vTargetDir, &m_vTracingMoveDir );

  00277	8d bb 6c 0a 00
	00		 lea	 edi, DWORD PTR [ebx+2668]

; 830  : 
; 831  : 					float fAngleGap = RADtoDEG( acosf(fAngle) );

  0027d	d9 07		 fld	 DWORD PTR [edi]
  0027f	59		 pop	 ecx
  00280	d8 4d e4	 fmul	 DWORD PTR _vTargetDir$532826[ebp]
  00283	59		 pop	 ecx
  00284	d9 47 04	 fld	 DWORD PTR [edi+4]
  00287	d8 4d e8	 fmul	 DWORD PTR _vTargetDir$532826[ebp+4]
  0028a	de c1		 faddp	 ST(1), ST(0)
  0028c	d9 47 08	 fld	 DWORD PTR [edi+8]
  0028f	d8 4d ec	 fmul	 DWORD PTR _vTargetDir$532826[ebp+8]
  00292	de c1		 faddp	 ST(1), ST(0)
  00294	d9 5d bc	 fstp	 DWORD PTR tv1228[ebp]
  00297	d9 45 bc	 fld	 DWORD PTR tv1228[ebp]
  0029a	e8 00 00 00 00	 call	 __CIacos
  0029f	d9 5d bc	 fstp	 DWORD PTR tv1221[ebp]
  002a2	d9 45 bc	 fld	 DWORD PTR tv1221[ebp]
  002a5	51		 push	 ecx
  002a6	d9 5d bc	 fstp	 DWORD PTR $T537039[ebp]
  002a9	f3 0f 10 45 bc	 movss	 xmm0, DWORD PTR $T537039[ebp]
  002ae	f3 0f 11 04 24	 movss	 DWORD PTR [esp], xmm0
  002b3	e8 00 00 00 00	 call	 ??$RADtoDEG@M@@YAMM@Z	; RADtoDEG<float>
  002b8	d9 5d b8	 fstp	 DWORD PTR _fAngleGap$532832[ebp]
  002bb	59		 pop	 ecx

; 832  : 					float fRate = (fTimePerSec*1000) / m_dwRotateSpeed;

  002bc	8d 45 bc	 lea	 eax, DWORD PTR _value$537043[ebp]
  002bf	50		 push	 eax
  002c0	8d 8b 9c 07 00
	00		 lea	 ecx, DWORD PTR [ebx+1948]
  002c6	e8 00 00 00 00	 call	 ?DecryptValueToPool@?$CEncrypt@K@@QAEXPAK@Z ; CEncrypt<unsigned long>::DecryptValueToPool

; 833  : 					float fRotateAngle = 360.0f * fRate;

  002cb	d9 45 08	 fld	 DWORD PTR _fTimePerSec$[ebp]
  002ce	8b 45 bc	 mov	 eax, DWORD PTR _value$537043[ebp]
  002d1	dc 0d 00 00 00
	00		 fmul	 QWORD PTR __real@408f400000000000
  002d7	db 45 bc	 fild	 DWORD PTR _value$537043[ebp]
  002da	85 c0		 test	 eax, eax
  002dc	79 06		 jns	 SHORT $LN85@OnProcessT
  002de	d8 05 00 00 00
	00		 fadd	 DWORD PTR __real@4f800000
$LN85@OnProcessT:

; 832  : 					float fRate = (fTimePerSec*1000) / m_dwRotateSpeed;

  002e4	de f9		 fdivp	 ST(1), ST(0)

; 833  : 					float fRotateAngle = 360.0f * fRate;

  002e6	d9 5d bc	 fstp	 DWORD PTR tv1210[ebp]
  002e9	d9 45 bc	 fld	 DWORD PTR tv1210[ebp]
  002ec	dc 0d 00 00 00
	00		 fmul	 QWORD PTR __real@4076800000000000
  002f2	d9 5d b4	 fstp	 DWORD PTR _fRotateAngle$532838[ebp]

; 834  : 
; 835  : 					if( fAngleGap < fRotateAngle )

  002f5	d9 45 b8	 fld	 DWORD PTR _fAngleGap$532832[ebp]
  002f8	d9 45 b4	 fld	 DWORD PTR _fRotateAngle$532838[ebp]
  002fb	df f1		 fcomip	 ST(1)
  002fd	dd d8		 fstp	 ST(0)

; 836  : 					{
; 837  : 						m_vTracingMoveDir = vTargetDir;
; 838  : 					}
; 839  : 					else

  002ff	0f 87 7b 01 00
	00		 ja	 $LN87@OnProcessT

; 840  : 					{
; 841  : 						D3DXQUATERNION qtRotate;
; 842  : 						ioMath::CalcDirectionQuaternion( qtRotate, -m_vTracingMoveDir );

  00305	f3 0f 10 05 00
	00 00 00	 movss	 xmm0, DWORD PTR __mask@@NegFloat@
  0030d	f3 0f 10 0f	 movss	 xmm1, DWORD PTR [edi]
  00311	0f 57 c8	 xorps	 xmm1, xmm0
  00314	f3 0f 11 4d f0	 movss	 DWORD PTR $T532842[ebp], xmm1
  00319	f3 0f 10 4f 04	 movss	 xmm1, DWORD PTR [edi+4]
  0031e	0f 57 c8	 xorps	 xmm1, xmm0
  00321	8d 45 f0	 lea	 eax, DWORD PTR $T532842[ebp]
  00324	50		 push	 eax
  00325	f3 0f 11 4d f4	 movss	 DWORD PTR $T532842[ebp+4], xmm1
  0032a	f3 0f 10 4f 08	 movss	 xmm1, DWORD PTR [edi+8]
  0032f	8d 45 9c	 lea	 eax, DWORD PTR _qtRotate$532841[ebp]
  00332	0f 57 c8	 xorps	 xmm1, xmm0
  00335	50		 push	 eax
  00336	f3 0f 11 4d f8	 movss	 DWORD PTR $T532842[ebp+8], xmm1
  0033b	ff d6		 call	 esi

; 843  : 
; 844  : 						bool bLeftRot = false;
; 845  : 						if( D3DXVec3Dot( &vTargetDir, &m_vTracingMoveDir ) > -1.0f )

  0033d	f3 0f 10 07	 movss	 xmm0, DWORD PTR [edi]
  00341	f3 0f 10 4d e4	 movss	 xmm1, DWORD PTR _vTargetDir$532826[ebp]
  00346	f3 0f 10 55 e8	 movss	 xmm2, DWORD PTR _vTargetDir$532826[ebp+4]
  0034b	0f 5a c9	 cvtps2pd xmm1, xmm1
  0034e	0f 5a c0	 cvtps2pd xmm0, xmm0
  00351	f2 0f 59 c1	 mulsd	 xmm0, xmm1
  00355	f3 0f 10 4f 04	 movss	 xmm1, DWORD PTR [edi+4]
  0035a	0f 5a c9	 cvtps2pd xmm1, xmm1
  0035d	0f 5a d2	 cvtps2pd xmm2, xmm2
  00360	f2 0f 59 ca	 mulsd	 xmm1, xmm2
  00364	f3 0f 10 55 ec	 movss	 xmm2, DWORD PTR _vTargetDir$532826[ebp+8]
  00369	f2 0f 58 c1	 addsd	 xmm0, xmm1
  0036d	f3 0f 10 4f 08	 movss	 xmm1, DWORD PTR [edi+8]
  00372	0f 5a c9	 cvtps2pd xmm1, xmm1
  00375	0f 5a d2	 cvtps2pd xmm2, xmm2
  00378	f2 0f 59 ca	 mulsd	 xmm1, xmm2
  0037c	f2 0f 58 c1	 addsd	 xmm0, xmm1
  00380	59		 pop	 ecx
  00381	66 0f 5a c0	 cvtpd2ps xmm0, xmm0
  00385	0f 2f 05 00 00
	00 00		 comiss	 xmm0, DWORD PTR __real@bf800000
  0038c	59		 pop	 ecx
  0038d	0f 86 8c 00 00
	00		 jbe	 $LN79@OnProcessT

; 846  : 						{
; 847  : 							float fCurYaw, fTargetYaw;
; 848  : 							fCurYaw = RADtoDEG( ioMath::QuaterToYaw( qtRotate ) );

  00393	8d 45 9c	 lea	 eax, DWORD PTR _qtRotate$532841[ebp]
  00396	50		 push	 eax
  00397	ff 15 00 00 00
	00		 call	 DWORD PTR __imp_?QuaterToYaw@ioMath@@SAMABUD3DXQUATERNION@@@Z
  0039d	d9 1c 24	 fstp	 DWORD PTR [esp]
  003a0	e8 00 00 00 00	 call	 ??$RADtoDEG@M@@YAMM@Z	; RADtoDEG<float>
  003a5	d9 5d bc	 fstp	 DWORD PTR _fCurYaw$532845[ebp]

; 849  : 							fTargetYaw = RADtoDEG( ioMath::QuaterToYaw( qtRot ) );

  003a8	8d 45 8c	 lea	 eax, DWORD PTR _qtRot$532829[ebp]
  003ab	50		 push	 eax
  003ac	ff 15 00 00 00
	00		 call	 DWORD PTR __imp_?QuaterToYaw@ioMath@@SAMABUD3DXQUATERNION@@@Z
  003b2	59		 pop	 ecx
  003b3	d9 1c 24	 fstp	 DWORD PTR [esp]
  003b6	e8 00 00 00 00	 call	 ??$RADtoDEG@M@@YAMM@Z	; RADtoDEG<float>

; 850  : 
; 851  : 							fCurYaw = ioMath::ArrangeHead( fCurYaw );

  003bb	f3 0f 10 45 bc	 movss	 xmm0, DWORD PTR _fCurYaw$532845[ebp]
  003c0	d9 5d b8	 fstp	 DWORD PTR _fTargetYaw$532846[ebp]
  003c3	f3 0f 11 04 24	 movss	 DWORD PTR [esp], xmm0
  003c8	ff 15 00 00 00
	00		 call	 DWORD PTR __imp_?ArrangeHead@ioMath@@SAMM@Z
  003ce	d9 5d bc	 fstp	 DWORD PTR _fCurYaw$532845[ebp]

; 852  : 							fTargetYaw = ioMath::ArrangeHead( fTargetYaw );

  003d1	f3 0f 10 45 b8	 movss	 xmm0, DWORD PTR _fTargetYaw$532846[ebp]
  003d6	f3 0f 11 04 24	 movss	 DWORD PTR [esp], xmm0
  003db	ff 15 00 00 00
	00		 call	 DWORD PTR __imp_?ArrangeHead@ioMath@@SAMM@Z
  003e1	d9 5d b8	 fstp	 DWORD PTR _fTargetYaw$532846[ebp]

; 853  : 
; 854  : 							float fRotAngle = ioMath::AngleGap( fCurYaw, fTargetYaw );

  003e4	f3 0f 10 45 b8	 movss	 xmm0, DWORD PTR _fTargetYaw$532846[ebp]
  003e9	f3 0f 11 04 24	 movss	 DWORD PTR [esp], xmm0
  003ee	f3 0f 10 45 bc	 movss	 xmm0, DWORD PTR _fCurYaw$532845[ebp]
  003f3	51		 push	 ecx
  003f4	f3 0f 11 04 24	 movss	 DWORD PTR [esp], xmm0
  003f9	ff 15 00 00 00
	00		 call	 DWORD PTR __imp_?AngleGap@ioMath@@SAMMM@Z

; 855  : 							if( fRotAngle < 0.0f )

  003ff	d9 ee		 fldz
  00401	59		 pop	 ecx
  00402	df f1		 fcomip	 ST(1)
  00404	dd d8		 fstp	 ST(0)
  00406	59		 pop	 ecx
  00407	76 16		 jbe	 SHORT $LN79@OnProcessT

; 856  : 								bLeftRot = true;
; 857  : 						}
; 858  : 
; 859  : 						if( bLeftRot )
; 860  : 							fRotateAngle *= -1;

  00409	f3 0f 10 45 b4	 movss	 xmm0, DWORD PTR _fRotateAngle$532838[ebp]
  0040e	0f 5a c0	 cvtps2pd xmm0, xmm0
  00411	f2 0f 59 05 00
	00 00 00	 mulsd	 xmm0, QWORD PTR __real@bff0000000000000
  00419	66 0f 5a c0	 cvtpd2ps xmm0, xmm0
  0041d	eb 05		 jmp	 SHORT $LN7@OnProcessT
$LN79@OnProcessT:
  0041f	f3 0f 10 45 b4	 movss	 xmm0, DWORD PTR _fRotateAngle$532838[ebp]
$LN7@OnProcessT:

; 861  : 
; 862  : 						fRotateAngle = ioMath::ArrangeHead( fRotateAngle );

  00424	51		 push	 ecx
  00425	f3 0f 11 04 24	 movss	 DWORD PTR [esp], xmm0
  0042a	ff 15 00 00 00
	00		 call	 DWORD PTR __imp_?ArrangeHead@ioMath@@SAMM@Z
  00430	d9 5d b4	 fstp	 DWORD PTR _fRotateAngle$532838[ebp]

; 863  : 
; 864  : 						D3DXQUATERNION	qtNewRot;
; 865  : 						D3DXQuaternionRotationYawPitchRoll( &qtNewRot, DEGtoRAD(fRotateAngle), 0.0f, 0.0f );

  00433	0f 57 c0	 xorps	 xmm0, xmm0
  00436	d9 45 b4	 fld	 DWORD PTR _fRotateAngle$532838[ebp]
  00439	dc 0d 00 00 00
	00		 fmul	 QWORD PTR __real@3f91df46a2526c7a
  0043f	f3 0f 11 04 24	 movss	 DWORD PTR [esp], xmm0
  00444	51		 push	 ecx
  00445	51		 push	 ecx
  00446	d9 5d bc	 fstp	 DWORD PTR tv1143[ebp]
  00449	f3 0f 11 44 24
	04		 movss	 DWORD PTR [esp+4], xmm0
  0044f	d9 45 bc	 fld	 DWORD PTR tv1143[ebp]
  00452	8d 85 7c ff ff
	ff		 lea	 eax, DWORD PTR _qtNewRot$532850[ebp]
  00458	d9 1c 24	 fstp	 DWORD PTR [esp]
  0045b	50		 push	 eax
  0045c	e8 00 00 00 00	 call	 _D3DXQuaternionRotationYawPitchRoll@16

; 866  : 						m_vTracingMoveDir = qtNewRot * m_vTracingMoveDir;

  00461	57		 push	 edi
  00462	8d 85 7c ff ff
	ff		 lea	 eax, DWORD PTR _qtNewRot$532850[ebp]
  00468	50		 push	 eax
  00469	8d 45 cc	 lea	 eax, DWORD PTR $T532851[ebp]
  0046c	50		 push	 eax
  0046d	ff 15 00 00 00
	00		 call	 DWORD PTR __imp_??D@YA?AUD3DXVECTOR3@@ABUD3DXQUATERNION@@ABU0@@Z
  00473	83 c4 0c	 add	 esp, 12			; 0000000cH
  00476	8b f0		 mov	 esi, eax

; 867  : 					}
; 868  : 				}
; 869  : 				else

  00478	eb 09		 jmp	 SHORT $LN86@OnProcessT
$LN12@OnProcessT:

; 870  : 				{
; 871  : 					m_vTracingMoveDir = vTargetDir;

  0047a	8d bb 6c 0a 00
	00		 lea	 edi, DWORD PTR [ebx+2668]
$LN87@OnProcessT:
  00480	8d 75 e4	 lea	 esi, DWORD PTR _vTargetDir$532826[ebp]
$LN86@OnProcessT:
  00483	a5		 movsd
  00484	a5		 movsd
  00485	a5		 movsd

; 872  : 				}
; 873  : 			}
; 874  : 		}
; 875  : 		else

  00486	eb 08		 jmp	 SHORT $LN80@OnProcessT
$LN14@OnProcessT:

; 876  : 		{
; 877  : 			m_TargetTraceName.Clear();

  00488	8b ce		 mov	 ecx, esi
  0048a	ff 15 00 00 00
	00		 call	 DWORD PTR __imp_?Clear@ioHashString@@QAEXXZ
$LN80@OnProcessT:

; 883  : 		return;
; 884  : 	}
; 885  : 
; 886  : 	float fMoveDist = m_fTraceSpeed * fTimePerSec;

  00490	8d 45 bc	 lea	 eax, DWORD PTR _value$537072[ebp]
  00493	50		 push	 eax
  00494	8d 8b ec 08 00
	00		 lea	 ecx, DWORD PTR [ebx+2284]
  0049a	e8 00 00 00 00	 call	 ?DecryptValueToPool@?$CEncrypt@M@@QAEXPAM@Z ; CEncrypt<float>::DecryptValueToPool

; 887  : 	//ProcessTraceMoving( pStage, fMoveDist, fTimePerSec );
; 888  : 	if( pTarget )

  0049f	83 7d b0 00	 cmp	 DWORD PTR _pTarget$[ebp], 0
  004a3	f3 0f 10 45 bc	 movss	 xmm0, DWORD PTR _value$537072[ebp]
  004a8	f3 0f 10 4d 08	 movss	 xmm1, DWORD PTR _fTimePerSec$[ebp]
  004ad	0f 5a c0	 cvtps2pd xmm0, xmm0
  004b0	0f 5a c9	 cvtps2pd xmm1, xmm1
  004b3	f2 0f 59 c1	 mulsd	 xmm0, xmm1
  004b7	66 0f 5a c0	 cvtpd2ps xmm0, xmm0
  004bb	f3 0f 11 45 bc	 movss	 DWORD PTR _fMoveDist$[ebp], xmm0
  004c0	0f 84 ee 00 00
	00		 je	 $LN82@OnProcessT

; 889  : 	{
; 890  : 		float fLength = 0.f;
; 891  : 		D3DXVECTOR3 vSrc = GetWorldPosition();

  004c6	8b 03		 mov	 eax, DWORD PTR [ebx]
  004c8	8b cb		 mov	 ecx, ebx
  004ca	ff 50 70	 call	 DWORD PTR [eax+112]

; 892  : 		D3DXVECTOR3 vDest = pTarget->GetWorldPosition();

  004cd	8b 4d b0	 mov	 ecx, DWORD PTR _pTarget$[ebp]
  004d0	8b f0		 mov	 esi, eax
  004d2	8b 01		 mov	 eax, DWORD PTR [ecx]
  004d4	8d 7d cc	 lea	 edi, DWORD PTR _vSrc$532858[ebp]
  004d7	a5		 movsd
  004d8	a5		 movsd
  004d9	a5		 movsd
  004da	ff 50 70	 call	 DWORD PTR [eax+112]

; 893  : 		
; 894  : 		vSrc.y = 0.f;
; 895  : 		vDest.y = 0.f;

  004dd	0f 57 c0	 xorps	 xmm0, xmm0

; 896  : 
; 897  : 		D3DXVECTOR3 vDiffLength = vDest - vSrc;

  004e0	f3 0f 10 4d cc	 movss	 xmm1, DWORD PTR _vSrc$532858[ebp]
  004e5	f3 0f 10 5d d4	 movss	 xmm3, DWORD PTR _vSrc$532858[ebp+8]
  004ea	8b f0		 mov	 esi, eax
  004ec	8d 7d f0	 lea	 edi, DWORD PTR _vDest$532859[ebp]
  004ef	a5		 movsd
  004f0	a5		 movsd
  004f1	0f 5a c9	 cvtps2pd xmm1, xmm1
  004f4	a5		 movsd
  004f5	f3 0f 10 55 f8	 movss	 xmm2, DWORD PTR _vDest$532859[ebp+8]
  004fa	f3 0f 11 45 f4	 movss	 DWORD PTR _vDest$532859[ebp+4], xmm0
  004ff	f3 0f 10 45 f0	 movss	 xmm0, DWORD PTR _vDest$532859[ebp]
  00504	0f 5a c0	 cvtps2pd xmm0, xmm0
  00507	f2 0f 5c c1	 subsd	 xmm0, xmm1
  0050b	0f 57 c9	 xorps	 xmm1, xmm1
  0050e	66 0f 5a c8	 cvtpd2ps xmm1, xmm0
  00512	0f 57 c0	 xorps	 xmm0, xmm0
  00515	f2 0f 5c c0	 subsd	 xmm0, xmm0
  00519	66 0f 5a c0	 cvtpd2ps xmm0, xmm0
  0051d	0f 5a d2	 cvtps2pd xmm2, xmm2
  00520	f3 0f 5a c0	 cvtss2sd xmm0, xmm0

; 898  : 		fLength = D3DXVec3Length( &vDiffLength );

  00524	f2 0f 59 c0	 mulsd	 xmm0, xmm0
  00528	0f 5a c9	 cvtps2pd xmm1, xmm1
  0052b	0f 5a db	 cvtps2pd xmm3, xmm3
  0052e	f2 0f 5c d3	 subsd	 xmm2, xmm3
  00532	66 0f 5a d2	 cvtpd2ps xmm2, xmm2
  00536	f2 0f 59 c9	 mulsd	 xmm1, xmm1
  0053a	f2 0f 58 c8	 addsd	 xmm1, xmm0

; 899  : 		if( fLength < fMoveDist )

  0053e	0f 57 c0	 xorps	 xmm0, xmm0
  00541	f3 0f 5a d2	 cvtss2sd xmm2, xmm2
  00545	f2 0f 59 d2	 mulsd	 xmm2, xmm2
  00549	f2 0f 58 ca	 addsd	 xmm1, xmm2
  0054d	66 0f 5a c1	 cvtpd2ps xmm0, xmm1
  00551	0f 5a c0	 cvtps2pd xmm0, xmm0
  00554	f2 0f 51 c0	 sqrtsd	 xmm0, xmm0
  00558	66 0f 5a c0	 cvtpd2ps xmm0, xmm0
  0055c	0f 57 c9	 xorps	 xmm1, xmm1
  0055f	f3 0f 5a c8	 cvtss2sd xmm1, xmm0
  00563	f3 0f 10 45 bc	 movss	 xmm0, DWORD PTR _fMoveDist$[ebp]
  00568	0f 5a d0	 cvtps2pd xmm2, xmm0
  0056b	66 0f 2f d1	 comisd	 xmm2, xmm1
  0056f	76 1e		 jbe	 SHORT $LN2@OnProcessT

; 900  : 		{
; 901  : 			vDest.y = GetWorldPosition().y;

  00571	8b 03		 mov	 eax, DWORD PTR [ebx]
  00573	8b cb		 mov	 ecx, ebx
  00575	ff 50 70	 call	 DWORD PTR [eax+112]
  00578	f3 0f 10 40 04	 movss	 xmm0, DWORD PTR [eax+4]

; 902  : 			SetWorldPosition( vDest );

  0057d	8b 03		 mov	 eax, DWORD PTR [ebx]
  0057f	8d 4d f0	 lea	 ecx, DWORD PTR _vDest$532859[ebp]
  00582	51		 push	 ecx
  00583	8b cb		 mov	 ecx, ebx
  00585	f3 0f 11 45 f4	 movss	 DWORD PTR _vDest$532859[ebp+4], xmm0
  0058a	ff 50 44	 call	 DWORD PTR [eax+68]

; 903  : 		}
; 904  : 		else

  0058d	eb 25		 jmp	 SHORT $LN82@OnProcessT
$LN2@OnProcessT:

; 905  : 			ProcessTraceMovingNoneTerrain( pStage, fMoveDist, fTimePerSec );

  0058f	f3 0f 10 4d 08	 movss	 xmm1, DWORD PTR _fTimePerSec$[ebp]
  00594	51		 push	 ecx
  00595	51		 push	 ecx
  00596	f3 0f 11 4c 24
	04		 movss	 DWORD PTR [esp+4], xmm1
  0059c	f3 0f 11 04 24	 movss	 DWORD PTR [esp], xmm0
  005a1	ff 75 ac	 push	 DWORD PTR _pStage$[ebp]
  005a4	8b cb		 mov	 ecx, ebx
  005a6	e8 00 00 00 00	 call	 ?ProcessTraceMovingNoneTerrain@ioDummyChar@@IAEXPAVioPlayStage@@MM@Z ; ioDummyChar::ProcessTraceMovingNoneTerrain
  005ab	eb 07		 jmp	 SHORT $LN82@OnProcessT
$LN16@OnProcessT:

; 878  : 		}
; 879  : 	}
; 880  : 	else
; 881  : 	{
; 882  : 		SetTraceState( DCTS_SENSING );

  005ad	6a 02		 push	 2
  005af	e8 00 00 00 00	 call	 ?SetTraceState@ioDummyChar@@QAEXW4DummyCharTraceState@1@@Z ; ioDummyChar::SetTraceState
$LN82@OnProcessT:
  005b4	5e		 pop	 esi
$LN81@OnProcessT:
  005b5	5f		 pop	 edi
$LN1@OnProcessT:

; 906  : 	}
; 907  : 	
; 908  : }

  005b6	8b 4d fc	 mov	 ecx, DWORD PTR __$ArrayPad$[ebp]
  005b9	33 cd		 xor	 ecx, ebp
  005bb	5b		 pop	 ebx
  005bc	e8 00 00 00 00	 call	 @__security_check_cookie@4
  005c1	c9		 leave
  005c2	c2 04 00	 ret	 4
?OnProcessTraceTracing@ioTargetTrace13Dummy@@IAEXM@Z ENDP ; ioTargetTrace13Dummy::OnProcessTraceTracing
_TEXT	ENDS
PUBLIC	??0?$vector@UDummyTT13AttackInfo@@V?$allocator@UDummyTT13AttackInfo@@@std@@@std@@QAE@XZ ; std::vector<DummyTT13AttackInfo,std::allocator<DummyTT13AttackInfo> >::vector<DummyTT13AttackInfo,std::allocator<DummyTT13AttackInfo> >
; Function compile flags: /Ogsp
; File c:\program files (x86)\microsoft visual studio 10.0\vc\include\vector
;	COMDAT ??0?$vector@UDummyTT13AttackInfo@@V?$allocator@UDummyTT13AttackInfo@@@std@@@std@@QAE@XZ
_TEXT	SEGMENT
??0?$vector@UDummyTT13AttackInfo@@V?$allocator@UDummyTT13AttackInfo@@@std@@@std@@QAE@XZ PROC ; std::vector<DummyTT13AttackInfo,std::allocator<DummyTT13AttackInfo> >::vector<DummyTT13AttackInfo,std::allocator<DummyTT13AttackInfo> >, COMDAT
; _this$ = ecx

; 507  : 		{	// construct empty vector

  00000	8b c1		 mov	 eax, ecx
  00002	33 c9		 xor	 ecx, ecx
  00004	89 08		 mov	 DWORD PTR [eax], ecx
  00006	89 48 04	 mov	 DWORD PTR [eax+4], ecx
  00009	89 48 08	 mov	 DWORD PTR [eax+8], ecx

; 508  : 		}

  0000c	c3		 ret	 0
??0?$vector@UDummyTT13AttackInfo@@V?$allocator@UDummyTT13AttackInfo@@@std@@@std@@QAE@XZ ENDP ; std::vector<DummyTT13AttackInfo,std::allocator<DummyTT13AttackInfo> >::vector<DummyTT13AttackInfo,std::allocator<DummyTT13AttackInfo> >
_TEXT	ENDS
PUBLIC	?begin@?$vector@UDummyTT13AttackInfo@@V?$allocator@UDummyTT13AttackInfo@@@std@@@std@@QAE?AV?$_Vector_iterator@V?$_Vector_val@UDummyTT13AttackInfo@@V?$allocator@UDummyTT13AttackInfo@@@std@@@std@@@2@XZ ; std::vector<DummyTT13AttackInfo,std::allocator<DummyTT13AttackInfo> >::begin
; Function compile flags: /Ogsp
;	COMDAT ?begin@?$vector@UDummyTT13AttackInfo@@V?$allocator@UDummyTT13AttackInfo@@@std@@@std@@QAE?AV?$_Vector_iterator@V?$_Vector_val@UDummyTT13AttackInfo@@V?$allocator@UDummyTT13AttackInfo@@@std@@@std@@@2@XZ
_TEXT	SEGMENT
___$ReturnUdt$ = 8					; size = 4
?begin@?$vector@UDummyTT13AttackInfo@@V?$allocator@UDummyTT13AttackInfo@@@std@@@std@@QAE?AV?$_Vector_iterator@V?$_Vector_val@UDummyTT13AttackInfo@@V?$allocator@UDummyTT13AttackInfo@@@std@@@std@@@2@XZ PROC ; std::vector<DummyTT13AttackInfo,std::allocator<DummyTT13AttackInfo> >::begin, COMDAT
; _this$ = ecx

; 781  : 		{	// return iterator for beginning of mutable sequence

  00000	55		 push	 ebp
  00001	8b ec		 mov	 ebp, esp

; 782  : 		return (iterator(this->_Myfirst, this));

  00003	8b 09		 mov	 ecx, DWORD PTR [ecx]
  00005	8b 45 08	 mov	 eax, DWORD PTR ___$ReturnUdt$[ebp]
  00008	89 08		 mov	 DWORD PTR [eax], ecx

; 783  : 		}

  0000a	5d		 pop	 ebp
  0000b	c2 04 00	 ret	 4
?begin@?$vector@UDummyTT13AttackInfo@@V?$allocator@UDummyTT13AttackInfo@@@std@@@std@@QAE?AV?$_Vector_iterator@V?$_Vector_val@UDummyTT13AttackInfo@@V?$allocator@UDummyTT13AttackInfo@@@std@@@std@@@2@XZ ENDP ; std::vector<DummyTT13AttackInfo,std::allocator<DummyTT13AttackInfo> >::begin
_TEXT	ENDS
PUBLIC	?end@?$vector@UDummyTT13AttackInfo@@V?$allocator@UDummyTT13AttackInfo@@@std@@@std@@QAE?AV?$_Vector_iterator@V?$_Vector_val@UDummyTT13AttackInfo@@V?$allocator@UDummyTT13AttackInfo@@@std@@@std@@@2@XZ ; std::vector<DummyTT13AttackInfo,std::allocator<DummyTT13AttackInfo> >::end
; Function compile flags: /Ogsp
;	COMDAT ?end@?$vector@UDummyTT13AttackInfo@@V?$allocator@UDummyTT13AttackInfo@@@std@@@std@@QAE?AV?$_Vector_iterator@V?$_Vector_val@UDummyTT13AttackInfo@@V?$allocator@UDummyTT13AttackInfo@@@std@@@std@@@2@XZ
_TEXT	SEGMENT
___$ReturnUdt$ = 8					; size = 4
?end@?$vector@UDummyTT13AttackInfo@@V?$allocator@UDummyTT13AttackInfo@@@std@@@std@@QAE?AV?$_Vector_iterator@V?$_Vector_val@UDummyTT13AttackInfo@@V?$allocator@UDummyTT13AttackInfo@@@std@@@std@@@2@XZ PROC ; std::vector<DummyTT13AttackInfo,std::allocator<DummyTT13AttackInfo> >::end, COMDAT
; _this$ = ecx

; 791  : 		{	// return iterator for end of mutable sequence

  00000	55		 push	 ebp
  00001	8b ec		 mov	 ebp, esp

; 792  : 		return (iterator(this->_Mylast, this));

  00003	8b 49 04	 mov	 ecx, DWORD PTR [ecx+4]
  00006	8b 45 08	 mov	 eax, DWORD PTR ___$ReturnUdt$[ebp]
  00009	89 08		 mov	 DWORD PTR [eax], ecx

; 793  : 		}

  0000b	5d		 pop	 ebp
  0000c	c2 04 00	 ret	 4
?end@?$vector@UDummyTT13AttackInfo@@V?$allocator@UDummyTT13AttackInfo@@@std@@@std@@QAE?AV?$_Vector_iterator@V?$_Vector_val@UDummyTT13AttackInfo@@V?$allocator@UDummyTT13AttackInfo@@@std@@@std@@@2@XZ ENDP ; std::vector<DummyTT13AttackInfo,std::allocator<DummyTT13AttackInfo> >::end
_TEXT	ENDS
PUBLIC	??9?$_Vector_const_iterator@V?$_Vector_val@UDummyTT13AttackInfo@@V?$allocator@UDummyTT13AttackInfo@@@std@@@std@@@std@@QBE_NABV01@@Z ; std::_Vector_const_iterator<std::_Vector_val<DummyTT13AttackInfo,std::allocator<DummyTT13AttackInfo> > >::operator!=
; Function compile flags: /Ogsp
;	COMDAT ??9?$_Vector_const_iterator@V?$_Vector_val@UDummyTT13AttackInfo@@V?$allocator@UDummyTT13AttackInfo@@@std@@@std@@@std@@QBE_NABV01@@Z
_TEXT	SEGMENT
__Right$ = 8						; size = 4
??9?$_Vector_const_iterator@V?$_Vector_val@UDummyTT13AttackInfo@@V?$allocator@UDummyTT13AttackInfo@@@std@@@std@@@std@@QBE_NABV01@@Z PROC ; std::_Vector_const_iterator<std::_Vector_val<DummyTT13AttackInfo,std::allocator<DummyTT13AttackInfo> > >::operator!=, COMDAT
; _this$ = ecx

; 207  : 		{	// test for iterator inequality

  00000	55		 push	 ebp
  00001	8b ec		 mov	 ebp, esp

; 208  : 		return (!(*this == _Right));

  00003	8b 01		 mov	 eax, DWORD PTR [ecx]
  00005	8b 55 08	 mov	 edx, DWORD PTR __Right$[ebp]
  00008	33 c9		 xor	 ecx, ecx
  0000a	3b 02		 cmp	 eax, DWORD PTR [edx]
  0000c	0f 95 c0	 setne	 al

; 209  : 		}

  0000f	5d		 pop	 ebp
  00010	c2 04 00	 ret	 4
??9?$_Vector_const_iterator@V?$_Vector_val@UDummyTT13AttackInfo@@V?$allocator@UDummyTT13AttackInfo@@@std@@@std@@@std@@QBE_NABV01@@Z ENDP ; std::_Vector_const_iterator<std::_Vector_val<DummyTT13AttackInfo,std::allocator<DummyTT13AttackInfo> > >::operator!=
_TEXT	ENDS
PUBLIC	??9?$_Vector_const_iterator@V?$_Vector_val@PAVioBaseChar@@V?$allocator@PAVioBaseChar@@@std@@@std@@@std@@QBE_NABV01@@Z ; std::_Vector_const_iterator<std::_Vector_val<ioBaseChar *,std::allocator<ioBaseChar *> > >::operator!=
; Function compile flags: /Ogsp
;	COMDAT ??9?$_Vector_const_iterator@V?$_Vector_val@PAVioBaseChar@@V?$allocator@PAVioBaseChar@@@std@@@std@@@std@@QBE_NABV01@@Z
_TEXT	SEGMENT
__Right$ = 8						; size = 4
??9?$_Vector_const_iterator@V?$_Vector_val@PAVioBaseChar@@V?$allocator@PAVioBaseChar@@@std@@@std@@@std@@QBE_NABV01@@Z PROC ; std::_Vector_const_iterator<std::_Vector_val<ioBaseChar *,std::allocator<ioBaseChar *> > >::operator!=, COMDAT
; _this$ = ecx

; 207  : 		{	// test for iterator inequality

  00000	55		 push	 ebp
  00001	8b ec		 mov	 ebp, esp

; 208  : 		return (!(*this == _Right));

  00003	8b 01		 mov	 eax, DWORD PTR [ecx]
  00005	8b 55 08	 mov	 edx, DWORD PTR __Right$[ebp]
  00008	33 c9		 xor	 ecx, ecx
  0000a	3b 02		 cmp	 eax, DWORD PTR [edx]
  0000c	0f 95 c0	 setne	 al

; 209  : 		}

  0000f	5d		 pop	 ebp
  00010	c2 04 00	 ret	 4
??9?$_Vector_const_iterator@V?$_Vector_val@PAVioBaseChar@@V?$allocator@PAVioBaseChar@@@std@@@std@@@std@@QBE_NABV01@@Z ENDP ; std::_Vector_const_iterator<std::_Vector_val<ioBaseChar *,std::allocator<ioBaseChar *> > >::operator!=
_TEXT	ENDS
PUBLIC	??D?$_List_iterator@V?$_List_val@UFireTime@@V?$allocator@UFireTime@@@std@@@std@@@std@@QBEAAUFireTime@@XZ ; std::_List_iterator<std::_List_val<FireTime,std::allocator<FireTime> > >::operator*
; Function compile flags: /Ogsp
; File c:\program files (x86)\microsoft visual studio 10.0\vc\include\list
;	COMDAT ??D?$_List_iterator@V?$_List_val@UFireTime@@V?$allocator@UFireTime@@@std@@@std@@@std@@QBEAAUFireTime@@XZ
_TEXT	SEGMENT
??D?$_List_iterator@V?$_List_val@UFireTime@@V?$allocator@UFireTime@@@std@@@std@@@std@@QBEAAUFireTime@@XZ PROC ; std::_List_iterator<std::_List_val<FireTime,std::allocator<FireTime> > >::operator*, COMDAT
; _this$ = ecx

; 360  : 		return ((reference)**(_Mybase *)this);

  00000	8b 01		 mov	 eax, DWORD PTR [ecx]
  00002	83 c0 08	 add	 eax, 8

; 361  : 		}

  00005	c3		 ret	 0
??D?$_List_iterator@V?$_List_val@UFireTime@@V?$allocator@UFireTime@@@std@@@std@@@std@@QBEAAUFireTime@@XZ ENDP ; std::_List_iterator<std::_List_val<FireTime,std::allocator<FireTime> > >::operator*
_TEXT	ENDS
PUBLIC	?_Make_iter@?$vector@UDummyTT13AttackInfo@@V?$allocator@UDummyTT13AttackInfo@@@std@@@std@@QBE?AV?$_Vector_iterator@V?$_Vector_val@UDummyTT13AttackInfo@@V?$allocator@UDummyTT13AttackInfo@@@std@@@std@@@2@V?$_Vector_const_iterator@V?$_Vector_val@UDummyTT13AttackInfo@@V?$allocator@UDummyTT13AttackInfo@@@std@@@std@@@2@@Z ; std::vector<DummyTT13AttackInfo,std::allocator<DummyTT13AttackInfo> >::_Make_iter
; Function compile flags: /Ogsp
; File c:\program files (x86)\microsoft visual studio 10.0\vc\include\vector
;	COMDAT ?_Make_iter@?$vector@UDummyTT13AttackInfo@@V?$allocator@UDummyTT13AttackInfo@@@std@@@std@@QBE?AV?$_Vector_iterator@V?$_Vector_val@UDummyTT13AttackInfo@@V?$allocator@UDummyTT13AttackInfo@@@std@@@std@@@2@V?$_Vector_const_iterator@V?$_Vector_val@UDummyTT13AttackInfo@@V?$allocator@UDummyTT13AttackInfo@@@std@@@std@@@2@@Z
_TEXT	SEGMENT
___$ReturnUdt$ = 8					; size = 4
__Where$ = 12						; size = 4
?_Make_iter@?$vector@UDummyTT13AttackInfo@@V?$allocator@UDummyTT13AttackInfo@@@std@@@std@@QBE?AV?$_Vector_iterator@V?$_Vector_val@UDummyTT13AttackInfo@@V?$allocator@UDummyTT13AttackInfo@@@std@@@std@@@2@V?$_Vector_const_iterator@V?$_Vector_val@UDummyTT13AttackInfo@@V?$allocator@UDummyTT13AttackInfo@@@std@@@std@@@2@@Z PROC ; std::vector<DummyTT13AttackInfo,std::allocator<DummyTT13AttackInfo> >::_Make_iter, COMDAT
; _this$ = ecx

; 801  : 		{	// make iterator from const_iterator

  00000	55		 push	 ebp
  00001	8b ec		 mov	 ebp, esp

; 802  : 		return (iterator(_Where._Ptr, this));

  00003	8b 45 08	 mov	 eax, DWORD PTR ___$ReturnUdt$[ebp]
  00006	8b 4d 0c	 mov	 ecx, DWORD PTR __Where$[ebp]
  00009	89 08		 mov	 DWORD PTR [eax], ecx

; 803  : 		}

  0000b	5d		 pop	 ebp
  0000c	c2 08 00	 ret	 8
?_Make_iter@?$vector@UDummyTT13AttackInfo@@V?$allocator@UDummyTT13AttackInfo@@@std@@@std@@QBE?AV?$_Vector_iterator@V?$_Vector_val@UDummyTT13AttackInfo@@V?$allocator@UDummyTT13AttackInfo@@@std@@@std@@@2@V?$_Vector_const_iterator@V?$_Vector_val@UDummyTT13AttackInfo@@V?$allocator@UDummyTT13AttackInfo@@@std@@@std@@@2@@Z ENDP ; std::vector<DummyTT13AttackInfo,std::allocator<DummyTT13AttackInfo> >::_Make_iter
_TEXT	ENDS
PUBLIC	??0?$_List_iterator@V?$_List_val@UFireTime@@V?$allocator@UFireTime@@@std@@@std@@@std@@QAE@PAU_Node@?$_List_nod@UFireTime@@V?$allocator@UFireTime@@@std@@@1@PBV?$_List_val@UFireTime@@V?$allocator@UFireTime@@@std@@@1@@Z ; std::_List_iterator<std::_List_val<FireTime,std::allocator<FireTime> > >::_List_iterator<std::_List_val<FireTime,std::allocator<FireTime> > >
; Function compile flags: /Ogsp
; File c:\program files (x86)\microsoft visual studio 10.0\vc\include\list
;	COMDAT ??0?$_List_iterator@V?$_List_val@UFireTime@@V?$allocator@UFireTime@@@std@@@std@@@std@@QAE@PAU_Node@?$_List_nod@UFireTime@@V?$allocator@UFireTime@@@std@@@1@PBV?$_List_val@UFireTime@@V?$allocator@UFireTime@@@std@@@1@@Z
_TEXT	SEGMENT
__Pnode$ = 8						; size = 4
__Plist$ = 12						; size = 4
??0?$_List_iterator@V?$_List_val@UFireTime@@V?$allocator@UFireTime@@@std@@@std@@@std@@QAE@PAU_Node@?$_List_nod@UFireTime@@V?$allocator@UFireTime@@@std@@@1@PBV?$_List_val@UFireTime@@V?$allocator@UFireTime@@@std@@@1@@Z PROC ; std::_List_iterator<std::_List_val<FireTime,std::allocator<FireTime> > >::_List_iterator<std::_List_val<FireTime,std::allocator<FireTime> > >, COMDAT
; _this$ = ecx

; 342  : 		{	// construct with node pointer _Pnode

  00000	55		 push	 ebp
  00001	8b ec		 mov	 ebp, esp
  00003	8b c1		 mov	 eax, ecx
  00005	8b 4d 08	 mov	 ecx, DWORD PTR __Pnode$[ebp]
  00008	89 08		 mov	 DWORD PTR [eax], ecx

; 343  : 		}

  0000a	5d		 pop	 ebp
  0000b	c2 08 00	 ret	 8
??0?$_List_iterator@V?$_List_val@UFireTime@@V?$allocator@UFireTime@@@std@@@std@@@std@@QAE@PAU_Node@?$_List_nod@UFireTime@@V?$allocator@UFireTime@@@std@@@1@PBV?$_List_val@UFireTime@@V?$allocator@UFireTime@@@std@@@1@@Z ENDP ; std::_List_iterator<std::_List_val<FireTime,std::allocator<FireTime> > >::_List_iterator<std::_List_val<FireTime,std::allocator<FireTime> > >
_TEXT	ENDS
PUBLIC	??$_Cons_val@V?$allocator@UDummyTT13AttackInfo@@@std@@UDummyTT13AttackInfo@@AAU3@@std@@YAXAAV?$allocator@UDummyTT13AttackInfo@@@0@PAUDummyTT13AttackInfo@@AAU2@@Z ; std::_Cons_val<std::allocator<DummyTT13AttackInfo>,DummyTT13AttackInfo,DummyTT13AttackInfo &>
;	COMDAT xdata$x
; File c:\program files (x86)\microsoft visual studio 10.0\vc\include\utility
xdata$x	SEGMENT
__unwindtable$??$_Cons_val@V?$allocator@UDummyTT13AttackInfo@@@std@@UDummyTT13AttackInfo@@AAU3@@std@@YAXAAV?$allocator@UDummyTT13AttackInfo@@@0@PAUDummyTT13AttackInfo@@AAU2@@Z DD 0ffffffffH
	DD	FLAT:__unwindfunclet$??$_Cons_val@V?$allocator@UDummyTT13AttackInfo@@@std@@UDummyTT13AttackInfo@@AAU3@@std@@YAXAAV?$allocator@UDummyTT13AttackInfo@@@0@PAUDummyTT13AttackInfo@@AAU2@@Z$0
__ehfuncinfo$??$_Cons_val@V?$allocator@UDummyTT13AttackInfo@@@std@@UDummyTT13AttackInfo@@AAU3@@std@@YAXAAV?$allocator@UDummyTT13AttackInfo@@@0@PAUDummyTT13AttackInfo@@AAU2@@Z DD 019930522H
	DD	01H
	DD	FLAT:__unwindtable$??$_Cons_val@V?$allocator@UDummyTT13AttackInfo@@@std@@UDummyTT13AttackInfo@@AAU3@@std@@YAXAAV?$allocator@UDummyTT13AttackInfo@@@0@PAUDummyTT13AttackInfo@@AAU2@@Z
	DD	2 DUP(00H)
	DD	2 DUP(00H)
	DD	00H
	DD	01H
; Function compile flags: /Ogsp
; File c:\program files (x86)\microsoft visual studio 10.0\vc\include\xmemory
xdata$x	ENDS
;	COMDAT ??$_Cons_val@V?$allocator@UDummyTT13AttackInfo@@@std@@UDummyTT13AttackInfo@@AAU3@@std@@YAXAAV?$allocator@UDummyTT13AttackInfo@@@0@PAUDummyTT13AttackInfo@@AAU2@@Z
_TEXT	SEGMENT
$T537246 = -16						; size = 4
__$EHRec$ = -12						; size = 12
__Alval$ = 8						; size = 4
__Pdest$ = 12						; size = 4
__Src$ = 16						; size = 4
??$_Cons_val@V?$allocator@UDummyTT13AttackInfo@@@std@@UDummyTT13AttackInfo@@AAU3@@std@@YAXAAV?$allocator@UDummyTT13AttackInfo@@@0@PAUDummyTT13AttackInfo@@AAU2@@Z PROC ; std::_Cons_val<std::allocator<DummyTT13AttackInfo>,DummyTT13AttackInfo,DummyTT13AttackInfo &>, COMDAT

; 279  : 	{	// construct using allocator

  00000	6a 04		 push	 4
  00002	b8 00 00 00 00	 mov	 eax, __ehhandler$??$_Cons_val@V?$allocator@UDummyTT13AttackInfo@@@std@@UDummyTT13AttackInfo@@AAU3@@std@@YAXAAV?$allocator@UDummyTT13AttackInfo@@@0@PAUDummyTT13AttackInfo@@AAU2@@Z
  00007	e8 00 00 00 00	 call	 __EH_prolog3

; 280  : 	_Alval.construct(_Pdest, _STD forward<_Ty2>(_Src));

  0000c	8b 4d 0c	 mov	 ecx, DWORD PTR __Pdest$[ebp]
  0000f	89 4d f0	 mov	 DWORD PTR $T537246[ebp], ecx
  00012	83 65 fc 00	 and	 DWORD PTR __$EHRec$[ebp+8], 0
  00016	85 c9		 test	 ecx, ecx
  00018	74 08		 je	 SHORT $LN7@Cons_val
  0001a	ff 75 10	 push	 DWORD PTR __Src$[ebp]
  0001d	e8 00 00 00 00	 call	 ??0DummyTT13AttackInfo@@QAE@ABU0@@Z
$LN7@Cons_val:

; 281  : 	}

  00022	e8 00 00 00 00	 call	 __EH_epilog3
  00027	c3		 ret	 0
_TEXT	ENDS
;	COMDAT text$x
text$x	SEGMENT
__unwindfunclet$??$_Cons_val@V?$allocator@UDummyTT13AttackInfo@@@std@@UDummyTT13AttackInfo@@AAU3@@std@@YAXAAV?$allocator@UDummyTT13AttackInfo@@@0@PAUDummyTT13AttackInfo@@AAU2@@Z$0:
  00000	ff 75 0c	 push	 DWORD PTR __Pdest$[ebp]
  00003	ff 75 f0	 push	 DWORD PTR $T537246[ebp]
  00006	e8 00 00 00 00	 call	 ??3@YAXPAX0@Z		; operator delete
  0000b	59		 pop	 ecx
  0000c	59		 pop	 ecx
  0000d	c3		 ret	 0
__ehhandler$??$_Cons_val@V?$allocator@UDummyTT13AttackInfo@@@std@@UDummyTT13AttackInfo@@AAU3@@std@@YAXAAV?$allocator@UDummyTT13AttackInfo@@@0@PAUDummyTT13AttackInfo@@AAU2@@Z:
  0000e	8b 54 24 08	 mov	 edx, DWORD PTR [esp+8]
  00012	8d 42 0c	 lea	 eax, DWORD PTR [edx+12]
  00015	8b 4a ec	 mov	 ecx, DWORD PTR [edx-20]
  00018	33 c8		 xor	 ecx, eax
  0001a	e8 00 00 00 00	 call	 @__security_check_cookie@4
  0001f	b8 00 00 00 00	 mov	 eax, OFFSET __ehfuncinfo$??$_Cons_val@V?$allocator@UDummyTT13AttackInfo@@@std@@UDummyTT13AttackInfo@@AAU3@@std@@YAXAAV?$allocator@UDummyTT13AttackInfo@@@0@PAUDummyTT13AttackInfo@@AAU2@@Z
  00024	e9 00 00 00 00	 jmp	 ___CxxFrameHandler3
text$x	ENDS
??$_Cons_val@V?$allocator@UDummyTT13AttackInfo@@@std@@UDummyTT13AttackInfo@@AAU3@@std@@YAXAAV?$allocator@UDummyTT13AttackInfo@@@0@PAUDummyTT13AttackInfo@@AAU2@@Z ENDP ; std::_Cons_val<std::allocator<DummyTT13AttackInfo>,DummyTT13AttackInfo,DummyTT13AttackInfo &>
PUBLIC	??$_Move@PAUDummyTT13AttackInfo@@PAU1@@std@@YAPAUDummyTT13AttackInfo@@PAU1@00@Z ; std::_Move<DummyTT13AttackInfo *,DummyTT13AttackInfo *>
; Function compile flags: /Ogsp
; File c:\program files (x86)\microsoft visual studio 10.0\vc\include\xutility
;	COMDAT ??$_Move@PAUDummyTT13AttackInfo@@PAU1@@std@@YAPAUDummyTT13AttackInfo@@PAU1@00@Z
_TEXT	SEGMENT
__Cat$537266 = -4					; size = 1
__First$ = 8						; size = 4
__Last$ = 12						; size = 4
__Dest$ = 16						; size = 4
??$_Move@PAUDummyTT13AttackInfo@@PAU1@@std@@YAPAUDummyTT13AttackInfo@@PAU1@00@Z PROC ; std::_Move<DummyTT13AttackInfo *,DummyTT13AttackInfo *>, COMDAT

; 2533 : 	{	// move [_First, _Last) to [_Dest, ...), unchecked

  00000	55		 push	 ebp
  00001	8b ec		 mov	 ebp, esp
  00003	51		 push	 ecx

; 2534 : 	return (_Move(_First, _Last,
; 2535 : 		_Dest, _Ptr_cat(_First, _Dest)));

  00004	ff 75 fc	 push	 DWORD PTR __Cat$537266[ebp]
  00007	ff 75 10	 push	 DWORD PTR __Dest$[ebp]
  0000a	ff 75 0c	 push	 DWORD PTR __Last$[ebp]
  0000d	ff 75 08	 push	 DWORD PTR __First$[ebp]
  00010	e8 00 00 00 00	 call	 ??$_Move@PAUDummyTT13AttackInfo@@PAU1@@std@@YAPAUDummyTT13AttackInfo@@PAU1@00U_Nonscalar_ptr_iterator_tag@0@@Z ; std::_Move<DummyTT13AttackInfo *,DummyTT13AttackInfo *>
  00015	83 c4 10	 add	 esp, 16			; 00000010H

; 2536 : 	}

  00018	c9		 leave
  00019	c3		 ret	 0
??$_Move@PAUDummyTT13AttackInfo@@PAU1@@std@@YAPAUDummyTT13AttackInfo@@PAU1@00@Z ENDP ; std::_Move<DummyTT13AttackInfo *,DummyTT13AttackInfo *>
_TEXT	ENDS
PUBLIC	?construct@?$allocator@UDummyTT13AttackInfo@@@std@@QAEXPAUDummyTT13AttackInfo@@ABU3@@Z ; std::allocator<DummyTT13AttackInfo>::construct
; Function compile flags: /Ogsp
; File c:\program files (x86)\microsoft visual studio 10.0\vc\include\xmemory
;	COMDAT ?construct@?$allocator@UDummyTT13AttackInfo@@@std@@QAEXPAUDummyTT13AttackInfo@@ABU3@@Z
_TEXT	SEGMENT
__Ptr$ = 8						; size = 4
__Val$ = 12						; size = 4
?construct@?$allocator@UDummyTT13AttackInfo@@@std@@QAEXPAUDummyTT13AttackInfo@@ABU3@@Z PROC ; std::allocator<DummyTT13AttackInfo>::construct, COMDAT
; _this$ = ecx

; 196  : 		{	// construct object at _Ptr with value _Val

  00000	55		 push	 ebp
  00001	8b ec		 mov	 ebp, esp

; 197  : 		_Construct(_Ptr, _Val);

  00003	ff 75 0c	 push	 DWORD PTR __Val$[ebp]
  00006	ff 75 08	 push	 DWORD PTR __Ptr$[ebp]
  00009	e8 00 00 00 00	 call	 ??$_Construct@UDummyTT13AttackInfo@@ABU1@@std@@YAXPAUDummyTT13AttackInfo@@ABU1@@Z ; std::_Construct<DummyTT13AttackInfo,DummyTT13AttackInfo const &>
  0000e	59		 pop	 ecx
  0000f	59		 pop	 ecx

; 198  : 		}

  00010	5d		 pop	 ebp
  00011	c2 08 00	 ret	 8
?construct@?$allocator@UDummyTT13AttackInfo@@@std@@QAEXPAUDummyTT13AttackInfo@@ABU3@@Z ENDP ; std::allocator<DummyTT13AttackInfo>::construct
_TEXT	ENDS
PUBLIC	??$_Destroy@U_Node@?$_List_nod@UFireTime@@V?$allocator@UFireTime@@@std@@@std@@@std@@YAXPAU_Node@?$_List_nod@UFireTime@@V?$allocator@UFireTime@@@std@@@0@@Z ; std::_Destroy<std::_List_nod<FireTime,std::allocator<FireTime> >::_Node>
; Function compile flags: /Ogsp
;	COMDAT ??$_Destroy@U_Node@?$_List_nod@UFireTime@@V?$allocator@UFireTime@@@std@@@std@@@std@@YAXPAU_Node@?$_List_nod@UFireTime@@V?$allocator@UFireTime@@@std@@@0@@Z
_TEXT	SEGMENT
__Ptr$ = 8						; size = 4
??$_Destroy@U_Node@?$_List_nod@UFireTime@@V?$allocator@UFireTime@@@std@@@std@@@std@@YAXPAU_Node@?$_List_nod@UFireTime@@V?$allocator@UFireTime@@@std@@@0@@Z PROC ; std::_Destroy<std::_List_nod<FireTime,std::allocator<FireTime> >::_Node>, COMDAT

; 62   : 	{	// destroy object at _Ptr

  00000	55		 push	 ebp
  00001	8b ec		 mov	 ebp, esp

; 63   : 	_Ptr->~_Ty();

  00003	8b 4d 08	 mov	 ecx, DWORD PTR __Ptr$[ebp]
  00006	83 c1 08	 add	 ecx, 8

; 64   : 	}

  00009	5d		 pop	 ebp

; 63   : 	_Ptr->~_Ty();

  0000a	e9 00 00 00 00	 jmp	 ??1FireTime@@QAE@XZ
??$_Destroy@U_Node@?$_List_nod@UFireTime@@V?$allocator@UFireTime@@@std@@@std@@@std@@YAXPAU_Node@?$_List_nod@UFireTime@@V?$allocator@UFireTime@@@std@@@0@@Z ENDP ; std::_Destroy<std::_List_nod<FireTime,std::allocator<FireTime> >::_Node>
_TEXT	ENDS
PUBLIC	?destroy@?$allocator@UDummyTT13AttackInfo@@@std@@QAEXPAUDummyTT13AttackInfo@@@Z ; std::allocator<DummyTT13AttackInfo>::destroy
; Function compile flags: /Ogsp
;	COMDAT ?destroy@?$allocator@UDummyTT13AttackInfo@@@std@@QAEXPAUDummyTT13AttackInfo@@@Z
_TEXT	SEGMENT
__Ptr$ = 8						; size = 4
?destroy@?$allocator@UDummyTT13AttackInfo@@@std@@QAEXPAUDummyTT13AttackInfo@@@Z PROC ; std::allocator<DummyTT13AttackInfo>::destroy, COMDAT
; _this$ = ecx

; 212  : 		{	// destroy object at _Ptr

  00000	55		 push	 ebp
  00001	8b ec		 mov	 ebp, esp

; 213  : 		_Destroy(_Ptr);

  00003	8b 4d 08	 mov	 ecx, DWORD PTR __Ptr$[ebp]
  00006	83 c1 08	 add	 ecx, 8
  00009	ff 15 00 00 00
	00		 call	 DWORD PTR __imp_??1ioHashString@@QAE@XZ

; 214  : 		}

  0000f	5d		 pop	 ebp
  00010	c2 04 00	 ret	 4
?destroy@?$allocator@UDummyTT13AttackInfo@@@std@@QAEXPAUDummyTT13AttackInfo@@@Z ENDP ; std::allocator<DummyTT13AttackInfo>::destroy
_TEXT	ENDS
PUBLIC	??$_Cons_val@V?$allocator@UDummyTT13AttackInfo@@@std@@UDummyTT13AttackInfo@@U3@@std@@YAXAAV?$allocator@UDummyTT13AttackInfo@@@0@PAUDummyTT13AttackInfo@@$$QAU2@@Z ; std::_Cons_val<std::allocator<DummyTT13AttackInfo>,DummyTT13AttackInfo,DummyTT13AttackInfo>
;	COMDAT xdata$x
; File c:\program files (x86)\microsoft visual studio 10.0\vc\include\utility
xdata$x	SEGMENT
__unwindtable$??$_Cons_val@V?$allocator@UDummyTT13AttackInfo@@@std@@UDummyTT13AttackInfo@@U3@@std@@YAXAAV?$allocator@UDummyTT13AttackInfo@@@0@PAUDummyTT13AttackInfo@@$$QAU2@@Z DD 0ffffffffH
	DD	FLAT:__unwindfunclet$??$_Cons_val@V?$allocator@UDummyTT13AttackInfo@@@std@@UDummyTT13AttackInfo@@U3@@std@@YAXAAV?$allocator@UDummyTT13AttackInfo@@@0@PAUDummyTT13AttackInfo@@$$QAU2@@Z$0
__ehfuncinfo$??$_Cons_val@V?$allocator@UDummyTT13AttackInfo@@@std@@UDummyTT13AttackInfo@@U3@@std@@YAXAAV?$allocator@UDummyTT13AttackInfo@@@0@PAUDummyTT13AttackInfo@@$$QAU2@@Z DD 019930522H
	DD	01H
	DD	FLAT:__unwindtable$??$_Cons_val@V?$allocator@UDummyTT13AttackInfo@@@std@@UDummyTT13AttackInfo@@U3@@std@@YAXAAV?$allocator@UDummyTT13AttackInfo@@@0@PAUDummyTT13AttackInfo@@$$QAU2@@Z
	DD	2 DUP(00H)
	DD	2 DUP(00H)
	DD	00H
	DD	01H
; Function compile flags: /Ogsp
; File c:\program files (x86)\microsoft visual studio 10.0\vc\include\xmemory
xdata$x	ENDS
;	COMDAT ??$_Cons_val@V?$allocator@UDummyTT13AttackInfo@@@std@@UDummyTT13AttackInfo@@U3@@std@@YAXAAV?$allocator@UDummyTT13AttackInfo@@@0@PAUDummyTT13AttackInfo@@$$QAU2@@Z
_TEXT	SEGMENT
$T537322 = -16						; size = 4
__$EHRec$ = -12						; size = 12
__Alval$ = 8						; size = 4
__Pdest$ = 12						; size = 4
__Src$ = 16						; size = 4
??$_Cons_val@V?$allocator@UDummyTT13AttackInfo@@@std@@UDummyTT13AttackInfo@@U3@@std@@YAXAAV?$allocator@UDummyTT13AttackInfo@@@0@PAUDummyTT13AttackInfo@@$$QAU2@@Z PROC ; std::_Cons_val<std::allocator<DummyTT13AttackInfo>,DummyTT13AttackInfo,DummyTT13AttackInfo>, COMDAT

; 279  : 	{	// construct using allocator

  00000	6a 04		 push	 4
  00002	b8 00 00 00 00	 mov	 eax, __ehhandler$??$_Cons_val@V?$allocator@UDummyTT13AttackInfo@@@std@@UDummyTT13AttackInfo@@U3@@std@@YAXAAV?$allocator@UDummyTT13AttackInfo@@@0@PAUDummyTT13AttackInfo@@$$QAU2@@Z
  00007	e8 00 00 00 00	 call	 __EH_prolog3

; 280  : 	_Alval.construct(_Pdest, _STD forward<_Ty2>(_Src));

  0000c	8b 4d 0c	 mov	 ecx, DWORD PTR __Pdest$[ebp]
  0000f	89 4d f0	 mov	 DWORD PTR $T537322[ebp], ecx
  00012	83 65 fc 00	 and	 DWORD PTR __$EHRec$[ebp+8], 0
  00016	85 c9		 test	 ecx, ecx
  00018	74 08		 je	 SHORT $LN7@Cons_val@2
  0001a	ff 75 10	 push	 DWORD PTR __Src$[ebp]
  0001d	e8 00 00 00 00	 call	 ??0DummyTT13AttackInfo@@QAE@ABU0@@Z
$LN7@Cons_val@2:

; 281  : 	}

  00022	e8 00 00 00 00	 call	 __EH_epilog3
  00027	c3		 ret	 0
_TEXT	ENDS
;	COMDAT text$x
text$x	SEGMENT
__unwindfunclet$??$_Cons_val@V?$allocator@UDummyTT13AttackInfo@@@std@@UDummyTT13AttackInfo@@U3@@std@@YAXAAV?$allocator@UDummyTT13AttackInfo@@@0@PAUDummyTT13AttackInfo@@$$QAU2@@Z$0:
  00000	ff 75 0c	 push	 DWORD PTR __Pdest$[ebp]
  00003	ff 75 f0	 push	 DWORD PTR $T537322[ebp]
  00006	e8 00 00 00 00	 call	 ??3@YAXPAX0@Z		; operator delete
  0000b	59		 pop	 ecx
  0000c	59		 pop	 ecx
  0000d	c3		 ret	 0
__ehhandler$??$_Cons_val@V?$allocator@UDummyTT13AttackInfo@@@std@@UDummyTT13AttackInfo@@U3@@std@@YAXAAV?$allocator@UDummyTT13AttackInfo@@@0@PAUDummyTT13AttackInfo@@$$QAU2@@Z:
  0000e	8b 54 24 08	 mov	 edx, DWORD PTR [esp+8]
  00012	8d 42 0c	 lea	 eax, DWORD PTR [edx+12]
  00015	8b 4a ec	 mov	 ecx, DWORD PTR [edx-20]
  00018	33 c8		 xor	 ecx, eax
  0001a	e8 00 00 00 00	 call	 @__security_check_cookie@4
  0001f	b8 00 00 00 00	 mov	 eax, OFFSET __ehfuncinfo$??$_Cons_val@V?$allocator@UDummyTT13AttackInfo@@@std@@UDummyTT13AttackInfo@@U3@@std@@YAXAAV?$allocator@UDummyTT13AttackInfo@@@0@PAUDummyTT13AttackInfo@@$$QAU2@@Z
  00024	e9 00 00 00 00	 jmp	 ___CxxFrameHandler3
text$x	ENDS
??$_Cons_val@V?$allocator@UDummyTT13AttackInfo@@@std@@UDummyTT13AttackInfo@@U3@@std@@YAXAAV?$allocator@UDummyTT13AttackInfo@@@0@PAUDummyTT13AttackInfo@@$$QAU2@@Z ENDP ; std::_Cons_val<std::allocator<DummyTT13AttackInfo>,DummyTT13AttackInfo,DummyTT13AttackInfo>
PUBLIC	?GetTeam@ioPlayEntity@@QBE?AW4TeamType@@XZ	; ioPlayEntity::GetTeam
; Function compile flags: /Ogsp
; File d:\lost saga for developer\youtube\tutorial\source\src\lsclient\ioplayentity.h
;	COMDAT ?GetTeam@ioPlayEntity@@QBE?AW4TeamType@@XZ
_TEXT	SEGMENT
_value$537341 = -4					; size = 4
?GetTeam@ioPlayEntity@@QBE?AW4TeamType@@XZ PROC		; ioPlayEntity::GetTeam, COMDAT
; _this$ = ecx

; 107  : 	inline TeamType GetTeam() const { return m_TeamType; }

  00000	55		 push	 ebp
  00001	8b ec		 mov	 ebp, esp
  00003	51		 push	 ecx
  00004	8d 45 fc	 lea	 eax, DWORD PTR _value$537341[ebp]
  00007	50		 push	 eax
  00008	81 c1 90 00 00
	00		 add	 ecx, 144		; 00000090H
  0000e	e8 00 00 00 00	 call	 ?DecryptValueToPool@?$CEncrypt@W4TeamType@@@@QAEXPAW4TeamType@@@Z ; CEncrypt<enum TeamType>::DecryptValueToPool
  00013	8b 45 fc	 mov	 eax, DWORD PTR _value$537341[ebp]
  00016	c9		 leave
  00017	c3		 ret	 0
?GetTeam@ioPlayEntity@@QBE?AW4TeamType@@XZ ENDP		; ioPlayEntity::GetTeam
_TEXT	ENDS
PUBLIC	??9?$_Vector_const_iterator@V?$_Vector_val@VioHashString@@V?$allocator@VioHashString@@@std@@@std@@@std@@QBE_NABV01@@Z ; std::_Vector_const_iterator<std::_Vector_val<ioHashString,std::allocator<ioHashString> > >::operator!=
; Function compile flags: /Ogsp
; File c:\program files (x86)\microsoft visual studio 10.0\vc\include\vector
;	COMDAT ??9?$_Vector_const_iterator@V?$_Vector_val@VioHashString@@V?$allocator@VioHashString@@@std@@@std@@@std@@QBE_NABV01@@Z
_TEXT	SEGMENT
__Right$ = 8						; size = 4
??9?$_Vector_const_iterator@V?$_Vector_val@VioHashString@@V?$allocator@VioHashString@@@std@@@std@@@std@@QBE_NABV01@@Z PROC ; std::_Vector_const_iterator<std::_Vector_val<ioHashString,std::allocator<ioHashString> > >::operator!=, COMDAT
; _this$ = ecx

; 207  : 		{	// test for iterator inequality

  00000	55		 push	 ebp
  00001	8b ec		 mov	 ebp, esp

; 208  : 		return (!(*this == _Right));

  00003	8b 01		 mov	 eax, DWORD PTR [ecx]
  00005	8b 55 08	 mov	 edx, DWORD PTR __Right$[ebp]
  00008	33 c9		 xor	 ecx, ecx
  0000a	3b 02		 cmp	 eax, DWORD PTR [edx]
  0000c	0f 95 c0	 setne	 al

; 209  : 		}

  0000f	5d		 pop	 ebp
  00010	c2 04 00	 ret	 4
??9?$_Vector_const_iterator@V?$_Vector_val@VioHashString@@V?$allocator@VioHashString@@@std@@@std@@@std@@QBE_NABV01@@Z ENDP ; std::_Vector_const_iterator<std::_Vector_val<ioHashString,std::allocator<ioHashString> > >::operator!=
_TEXT	ENDS
PUBLIC	__mask@@AbsDouble@
PUBLIC	__real@3fe0000000000000
PUBLIC	__$ArrayPad$
PUBLIC	?CheckFindedTarget@ioTargetTrace13Dummy@@IAE_NPAVioBaseChar@@MMMMMABVioHashString@@@Z ; ioTargetTrace13Dummy::CheckFindedTarget
EXTRN	?GetMapHeightOnlyTerrain@ioPlayStage@@QAEMMMM@Z:PROC ; ioPlayStage::GetMapHeightOnlyTerrain
EXTRN	?HasBuff@ioBaseChar@@QBE_NABVioHashString@@@Z:PROC ; ioBaseChar::HasBuff
EXTRN	?IsCanNoWound@ioBaseChar@@QAE_NXZ:PROC		; ioBaseChar::IsCanNoWound
EXTRN	?IsEnableTargetState@ioDummyChar@@IAE_NPAVioBaseChar@@@Z:PROC ; ioDummyChar::IsEnableTargetState
EXTRN	?GetBaseChar@ioBaseChar@@QAEPAV1@ABVioHashString@@@Z:PROC ; ioBaseChar::GetBaseChar
;	COMDAT __mask@@AbsDouble@
; File c:\program files (x86)\microsoft visual studio 10.0\vc\include\math.h
CONST	SEGMENT
__mask@@AbsDouble@ DB 0ffH, 0ffH, 0ffH, 0ffH, 0ffH, 0ffH, 0ffH, 07fH, 0ffH
	DB	0ffH, 0ffH, 0ffH, 0ffH, 0ffH, 0ffH, 07fH
CONST	ENDS
;	COMDAT __real@3fe0000000000000
CONST	SEGMENT
__real@3fe0000000000000 DQ 03fe0000000000000r	; 0.5
; Function compile flags: /Ogsp
; File d:\lost saga for developer\youtube\tutorial\source\src\lsclient\iotargettrace13dummy.cpp
CONST	ENDS
;	COMDAT ?CheckFindedTarget@ioTargetTrace13Dummy@@IAE_NPAVioBaseChar@@MMMMMABVioHashString@@@Z
_TEXT	SEGMENT
_qtRot$532470 = -112					; size = 16
_fHalfValue$ = -96					; size = 4
_pTarget$ = -92						; size = 4
_fTargetRangeSq_min$ = -88				; size = 4
_fCurAngle$ = -84					; size = 4
_fHeight$ = -80						; size = 4
_pStage$ = -80						; size = 4
tv854 = -76						; size = 4
tv850 = -76						; size = 4
_fTargetRangeSq_max$ = -76				; size = 4
_value$537376 = -69					; size = 1
tv846 = -68						; size = 4
tv838 = -68						; size = 4
tv835 = -68						; size = 4
tv829 = -68						; size = 4
tv807 = -68						; size = 4
tv803 = -68						; size = 4
tv799 = -68						; size = 4
_fDiffRangeSq$ = -68					; size = 4
$T532472 = -64						; size = 12
_vDir$532471 = -52					; size = 12
_vDiff2$532474 = -40					; size = 12
_vCurPos$ = -28						; size = 12
_vTargetPos$ = -16					; size = 12
__$ArrayPad$ = -4					; size = 4
_pOwner$ = 8						; size = 4
_fMinLength$ = 12					; size = 4
_fMaxLength$ = 16					; size = 4
_fAngle$ = 20						; size = 4
_fCheckHeightGapMin$ = 24				; size = 4
_fCheckHeightGapMax$ = 28				; size = 4
_stTargetName$ = 32					; size = 4
?CheckFindedTarget@ioTargetTrace13Dummy@@IAE_NPAVioBaseChar@@MMMMMABVioHashString@@@Z PROC ; ioTargetTrace13Dummy::CheckFindedTarget, COMDAT
; _this$ = ecx

; 242  : {

  00000	55		 push	 ebp
  00001	8b ec		 mov	 ebp, esp
  00003	83 ec 70	 sub	 esp, 112		; 00000070H
  00006	a1 00 00 00 00	 mov	 eax, DWORD PTR ___security_cookie
  0000b	33 c5		 xor	 eax, ebp
  0000d	89 45 fc	 mov	 DWORD PTR __$ArrayPad$[ebp], eax
  00010	8b 45 20	 mov	 eax, DWORD PTR _stTargetName$[ebp]
  00013	53		 push	 ebx
  00014	56		 push	 esi
  00015	8b 75 08	 mov	 esi, DWORD PTR _pOwner$[ebp]
  00018	8b d9		 mov	 ebx, ecx

; 243  : 	ioPlayStage *pStage = pOwner->GetCreator();

  0001a	8b 8e 44 03 00
	00		 mov	 ecx, DWORD PTR [esi+836]
  00020	89 4d b0	 mov	 DWORD PTR _pStage$[ebp], ecx

; 244  : 	if ( !pStage )

  00023	85 c9		 test	 ecx, ecx
  00025	75 07		 jne	 SHORT $LN15@CheckFinde

; 245  : 		return false;

  00027	32 c0		 xor	 al, al
  00029	e9 9e 03 00 00	 jmp	 $LN16@CheckFinde
$LN15@CheckFinde:
  0002e	57		 push	 edi

; 246  : 
; 247  : 	ioBaseChar *pTarget = pOwner->GetBaseChar( stTargetName );

  0002f	50		 push	 eax
  00030	8b ce		 mov	 ecx, esi
  00032	e8 00 00 00 00	 call	 ?GetBaseChar@ioBaseChar@@QAEPAV1@ABVioHashString@@@Z ; ioBaseChar::GetBaseChar
  00037	8b f8		 mov	 edi, eax
  00039	89 7d a4	 mov	 DWORD PTR _pTarget$[ebp], edi

; 248  : 	if( !pTarget )

  0003c	85 ff		 test	 edi, edi

; 249  : 		return false;

  0003e	0f 84 85 03 00
	00		 je	 $LN3@CheckFinde

; 250  : 
; 251  : 	D3DXVECTOR3 vCurPos = pOwner->GetMidPositionByRate();

  00044	b8 05 00 00 00	 mov	 eax, 5
  00049	8b c8		 mov	 ecx, eax
  0004b	b8 0a 00 00 00	 mov	 eax, 10			; 0000000aH
  00050	89 4d b4	 mov	 DWORD PTR tv854[ebp], ecx
  00053	db 45 b4	 fild	 DWORD PTR tv854[ebp]
  00056	85 c9		 test	 ecx, ecx
  00058	79 06		 jns	 SHORT $LN87@CheckFinde
  0005a	d8 05 00 00 00
	00		 fadd	 DWORD PTR __real@4f800000
$LN87@CheckFinde:
  00060	89 45 b4	 mov	 DWORD PTR tv850[ebp], eax
  00063	db 45 b4	 fild	 DWORD PTR tv850[ebp]
  00066	85 c0		 test	 eax, eax
  00068	79 06		 jns	 SHORT $LN88@CheckFinde
  0006a	d8 05 00 00 00
	00		 fadd	 DWORD PTR __real@4f800000
$LN88@CheckFinde:
  00070	de f9		 fdivp	 ST(1), ST(0)
  00072	51		 push	 ecx
  00073	8d 45 e4	 lea	 eax, DWORD PTR _vCurPos$[ebp]
  00076	8b ce		 mov	 ecx, esi
  00078	d9 5d bc	 fstp	 DWORD PTR tv846[ebp]
  0007b	d9 45 bc	 fld	 DWORD PTR tv846[ebp]
  0007e	d9 1c 24	 fstp	 DWORD PTR [esp]
  00081	50		 push	 eax
  00082	e8 00 00 00 00	 call	 ?GetMidPositionByRate@ioGameEntity@@QBE?AUD3DXVECTOR3@@M@Z ; ioGameEntity::GetMidPositionByRate

; 252  : 	D3DXVECTOR3 vDiff= ioMath::VEC3_ZERO;
; 253  : 
; 254  : 	float fCurAngle = ioMath::ArrangeHead( fAngle );

  00087	f3 0f 10 45 14	 movss	 xmm0, DWORD PTR _fAngle$[ebp]
  0008c	51		 push	 ecx
  0008d	f3 0f 11 04 24	 movss	 DWORD PTR [esp], xmm0
  00092	ff 15 00 00 00
	00		 call	 DWORD PTR __imp_?ArrangeHead@ioMath@@SAMM@Z
  00098	d9 5d ac	 fstp	 DWORD PTR _fCurAngle$[ebp]

; 255  : 	float fHalfValue = cosf( DEGtoRAD(fCurAngle*0.5f) );

  0009b	d9 45 ac	 fld	 DWORD PTR _fCurAngle$[ebp]
  0009e	59		 pop	 ecx
  0009f	dc 0d 00 00 00
	00		 fmul	 QWORD PTR __real@3fe0000000000000
  000a5	d9 5d bc	 fstp	 DWORD PTR tv838[ebp]
  000a8	d9 45 bc	 fld	 DWORD PTR tv838[ebp]
  000ab	dc 0d 00 00 00
	00		 fmul	 QWORD PTR __real@3f91df46a2526c7a
  000b1	d9 5d bc	 fstp	 DWORD PTR tv835[ebp]
  000b4	d9 45 bc	 fld	 DWORD PTR tv835[ebp]
  000b7	e8 00 00 00 00	 call	 __CIcos
  000bc	d9 5d bc	 fstp	 DWORD PTR tv829[ebp]

; 256  : 	float fTargetRangeSq_max = fMaxLength * fMaxLength;

  000bf	f3 0f 10 45 10	 movss	 xmm0, DWORD PTR _fMaxLength$[ebp]
  000c4	d9 45 bc	 fld	 DWORD PTR tv829[ebp]
  000c7	0f 5a c0	 cvtps2pd xmm0, xmm0
  000ca	d9 5d a0	 fstp	 DWORD PTR _fHalfValue$[ebp]
  000cd	f2 0f 59 c0	 mulsd	 xmm0, xmm0
  000d1	66 0f 5a c0	 cvtpd2ps xmm0, xmm0
  000d5	f3 0f 11 45 b4	 movss	 DWORD PTR _fTargetRangeSq_max$[ebp], xmm0

; 257  : 	float fTargetRangeSq_min = fMinLength * fMinLength;

  000da	f3 0f 10 45 0c	 movss	 xmm0, DWORD PTR _fMinLength$[ebp]
  000df	0f 5a c0	 cvtps2pd xmm0, xmm0
  000e2	f2 0f 59 c0	 mulsd	 xmm0, xmm0
  000e6	66 0f 5a c0	 cvtpd2ps xmm0, xmm0

; 258  : 
; 259  : 	if( !IsEnableTargetState( pTarget ) )

  000ea	57		 push	 edi
  000eb	8b cb		 mov	 ecx, ebx
  000ed	f3 0f 11 45 a8	 movss	 DWORD PTR _fTargetRangeSq_min$[ebp], xmm0
  000f2	e8 00 00 00 00	 call	 ?IsEnableTargetState@ioDummyChar@@IAE_NPAVioBaseChar@@@Z ; ioDummyChar::IsEnableTargetState
  000f7	84 c0		 test	 al, al

; 260  : 		return false;

  000f9	0f 84 ca 02 00
	00		 je	 $LN3@CheckFinde

; 261  : 
; 262  : 	if( pTarget->IsCanNoWound() )

  000ff	8b cf		 mov	 ecx, edi
  00101	e8 00 00 00 00	 call	 ?IsCanNoWound@ioBaseChar@@QAE_NXZ ; ioBaseChar::IsCanNoWound
  00106	84 c0		 test	 al, al

; 263  : 		return false;

  00108	0f 85 bb 02 00
	00		 jne	 $LN3@CheckFinde

; 264  : 
; 265  : 	if( m_bCheckWounedState && !IsTargetWoundedState( pTarget ) )

  0010e	8d 45 bb	 lea	 eax, DWORD PTR _value$537376[ebp]
  00111	50		 push	 eax
  00112	8d 8b e4 12 00
	00		 lea	 ecx, DWORD PTR [ebx+4836]
  00118	e8 00 00 00 00	 call	 ?DecryptValueToPool@?$CEncrypt@_N@@QAEXPA_N@Z ; CEncrypt<bool>::DecryptValueToPool
  0011d	80 7d bb 00	 cmp	 BYTE PTR _value$537376[ebp], 0
  00121	74 10		 je	 SHORT $LN11@CheckFinde
  00123	57		 push	 edi
  00124	8b cb		 mov	 ecx, ebx
  00126	e8 00 00 00 00	 call	 ?IsTargetWoundedState@ioDummyChar@@QAE_NPAVioBaseChar@@@Z ; ioDummyChar::IsTargetWoundedState
  0012b	84 c0		 test	 al, al

; 266  : 		return false;

  0012d	0f 84 96 02 00
	00		 je	 $LN3@CheckFinde
$LN11@CheckFinde:

; 267  : 
; 268  : 	auto SkipBuffIter = m_vSkipBuffList.begin();

  00133	8b b3 d4 12 00
	00		 mov	 esi, DWORD PTR [ebx+4820]
  00139	eb 13		 jmp	 SHORT $LN91@CheckFinde

; 269  : 	for ( ; SkipBuffIter != m_vSkipBuffList.end(); ++SkipBuffIter )

$LL40@CheckFinde:

; 270  : 	{
; 271  : 		ioHashString& szBuffName = *SkipBuffIter;
; 272  : 		if ( pTarget->HasBuff( szBuffName ) )

  0013b	56		 push	 esi
  0013c	8b cf		 mov	 ecx, edi
  0013e	e8 00 00 00 00	 call	 ?HasBuff@ioBaseChar@@QBE_NABVioHashString@@@Z ; ioBaseChar::HasBuff
  00143	84 c0		 test	 al, al
  00145	0f 85 7e 02 00
	00		 jne	 $LN3@CheckFinde

; 269  : 	for ( ; SkipBuffIter != m_vSkipBuffList.end(); ++SkipBuffIter )

  0014b	83 c6 10	 add	 esi, 16			; 00000010H
$LN91@CheckFinde:
  0014e	3b b3 d8 12 00
	00		 cmp	 esi, DWORD PTR [ebx+4824]
  00154	75 e5		 jne	 SHORT $LL40@CheckFinde

; 273  : 		{				
; 274  : 			return false;
; 275  : 		}
; 276  : 	}
; 277  : 
; 278  : 	D3DXVECTOR3 vTargetPos = pTarget->GetMidPositionByRate();

  00156	b8 05 00 00 00	 mov	 eax, 5
  0015b	8b c8		 mov	 ecx, eax
  0015d	b8 0a 00 00 00	 mov	 eax, 10			; 0000000aH
  00162	89 4d bc	 mov	 DWORD PTR tv807[ebp], ecx
  00165	db 45 bc	 fild	 DWORD PTR tv807[ebp]
  00168	85 c9		 test	 ecx, ecx
  0016a	79 06		 jns	 SHORT $LN89@CheckFinde
  0016c	d8 05 00 00 00
	00		 fadd	 DWORD PTR __real@4f800000
$LN89@CheckFinde:
  00172	89 45 bc	 mov	 DWORD PTR tv803[ebp], eax
  00175	db 45 bc	 fild	 DWORD PTR tv803[ebp]
  00178	85 c0		 test	 eax, eax
  0017a	79 06		 jns	 SHORT $LN90@CheckFinde
  0017c	d8 05 00 00 00
	00		 fadd	 DWORD PTR __real@4f800000
$LN90@CheckFinde:
  00182	de f9		 fdivp	 ST(1), ST(0)
  00184	51		 push	 ecx
  00185	8d 45 f0	 lea	 eax, DWORD PTR _vTargetPos$[ebp]
  00188	8b cf		 mov	 ecx, edi
  0018a	d9 5d bc	 fstp	 DWORD PTR tv799[ebp]
  0018d	d9 45 bc	 fld	 DWORD PTR tv799[ebp]
  00190	d9 1c 24	 fstp	 DWORD PTR [esp]
  00193	50		 push	 eax
  00194	e8 00 00 00 00	 call	 ?GetMidPositionByRate@ioGameEntity@@QBE?AUD3DXVECTOR3@@M@Z ; ioGameEntity::GetMidPositionByRate

; 279  : 	vDiff = vCurPos - vTargetPos;

  00199	f3 0f 10 45 e4	 movss	 xmm0, DWORD PTR _vCurPos$[ebp]
  0019e	f3 0f 10 4d f0	 movss	 xmm1, DWORD PTR _vTargetPos$[ebp]
  001a3	f3 0f 10 55 f4	 movss	 xmm2, DWORD PTR _vTargetPos$[ebp+4]
  001a8	f3 0f 10 5d f8	 movss	 xmm3, DWORD PTR _vTargetPos$[ebp+8]
  001ad	0f 5a c0	 cvtps2pd xmm0, xmm0
  001b0	0f 5a c9	 cvtps2pd xmm1, xmm1
  001b3	f2 0f 5c c1	 subsd	 xmm0, xmm1
  001b7	0f 57 c9	 xorps	 xmm1, xmm1
  001ba	66 0f 5a c8	 cvtpd2ps xmm1, xmm0
  001be	f3 0f 10 45 e8	 movss	 xmm0, DWORD PTR _vCurPos$[ebp+4]
  001c3	0f 5a c0	 cvtps2pd xmm0, xmm0
  001c6	0f 5a d2	 cvtps2pd xmm2, xmm2
  001c9	f2 0f 5c c2	 subsd	 xmm0, xmm2
  001cd	f3 0f 10 55 ec	 movss	 xmm2, DWORD PTR _vCurPos$[ebp+8]
  001d2	66 0f 5a c0	 cvtpd2ps xmm0, xmm0
  001d6	0f 5a d2	 cvtps2pd xmm2, xmm2

; 280  : 	float fDiffRangeSq = D3DXVec3LengthSq( &vDiff );

  001d9	f3 0f 5a c0	 cvtss2sd xmm0, xmm0
  001dd	0f 5a db	 cvtps2pd xmm3, xmm3
  001e0	f2 0f 5c d3	 subsd	 xmm2, xmm3
  001e4	0f 5a c9	 cvtps2pd xmm1, xmm1
  001e7	f2 0f 59 c0	 mulsd	 xmm0, xmm0
  001eb	66 0f 5a d2	 cvtpd2ps xmm2, xmm2
  001ef	f2 0f 59 c9	 mulsd	 xmm1, xmm1
  001f3	f2 0f 58 c8	 addsd	 xmm1, xmm0
  001f7	f3 0f 5a d2	 cvtss2sd xmm2, xmm2
  001fb	f2 0f 59 d2	 mulsd	 xmm2, xmm2
  001ff	0f 57 c0	 xorps	 xmm0, xmm0
  00202	f2 0f 58 ca	 addsd	 xmm1, xmm2
  00206	66 0f 5a c1	 cvtpd2ps xmm0, xmm1
  0020a	f3 0f 11 45 bc	 movss	 DWORD PTR _fDiffRangeSq$[ebp], xmm0

; 281  : 
; 282  : 	//  
; 283  : 	if( fCurAngle != 0.0f )

  0020f	f3 0f 10 45 ac	 movss	 xmm0, DWORD PTR _fCurAngle$[ebp]
  00214	0f 2e 05 00 00
	00 00		 ucomiss xmm0, DWORD PTR __real@00000000
  0021b	9f		 lahf
  0021c	f6 c4 44	 test	 ah, 68			; 00000044H
  0021f	0f 8b f2 00 00
	00		 jnp	 $LN5@CheckFinde

; 284  : 	{
; 285  : 		D3DXQUATERNION qtRot = GetWorldOrientation();

  00225	8b 03		 mov	 eax, DWORD PTR [ebx]
  00227	8b cb		 mov	 ecx, ebx
  00229	ff 50 74	 call	 DWORD PTR [eax+116]

; 286  : 		D3DXVECTOR3 vDir = qtRot * D3DXVECTOR3( 0.0f, 0.0f, -1.0f );

  0022c	0f 57 c0	 xorps	 xmm0, xmm0
  0022f	8b f0		 mov	 esi, eax
  00231	8d 7d 90	 lea	 edi, DWORD PTR _qtRot$532470[ebp]
  00234	a5		 movsd
  00235	a5		 movsd
  00236	8d 45 c0	 lea	 eax, DWORD PTR $T532472[ebp]
  00239	50		 push	 eax
  0023a	8d 45 90	 lea	 eax, DWORD PTR _qtRot$532470[ebp]
  0023d	a5		 movsd
  0023e	50		 push	 eax
  0023f	8d 45 cc	 lea	 eax, DWORD PTR _vDir$532471[ebp]
  00242	f3 0f 11 45 c0	 movss	 DWORD PTR $T532472[ebp], xmm0
  00247	f3 0f 11 45 c4	 movss	 DWORD PTR $T532472[ebp+4], xmm0
  0024c	f3 0f 10 05 00
	00 00 00	 movss	 xmm0, DWORD PTR __real@bf800000
  00254	50		 push	 eax
  00255	a5		 movsd
  00256	f3 0f 11 45 c8	 movss	 DWORD PTR $T532472[ebp+8], xmm0
  0025b	ff 15 00 00 00
	00		 call	 DWORD PTR __imp_??D@YA?AUD3DXVECTOR3@@ABUD3DXQUATERNION@@ABU0@@Z

; 287  : 
; 288  : 		D3DXVECTOR3 vDiff2 = vTargetPos - GetWorldPosition();

  00261	8b 03		 mov	 eax, DWORD PTR [ebx]
  00263	83 c4 0c	 add	 esp, 12			; 0000000cH
  00266	8b cb		 mov	 ecx, ebx
  00268	ff 50 70	 call	 DWORD PTR [eax+112]
  0026b	f3 0f 10 48 08	 movss	 xmm1, DWORD PTR [eax+8]
  00270	f3 0f 10 10	 movss	 xmm2, DWORD PTR [eax]
  00274	f3 0f 10 45 f8	 movss	 xmm0, DWORD PTR _vTargetPos$[ebp+8]
  00279	0f 5a c9	 cvtps2pd xmm1, xmm1
  0027c	0f 5a c0	 cvtps2pd xmm0, xmm0
  0027f	f2 0f 5c c1	 subsd	 xmm0, xmm1
  00283	f3 0f 10 4d f0	 movss	 xmm1, DWORD PTR _vTargetPos$[ebp]

; 289  : 		vDiff2.y = 0.0f;
; 290  : 		D3DXVec3Normalize( &vDiff2, &vDiff2 );

  00288	8d 45 d8	 lea	 eax, DWORD PTR _vDiff2$532474[ebp]
  0028b	66 0f 5a c0	 cvtpd2ps xmm0, xmm0
  0028f	0f 5a c9	 cvtps2pd xmm1, xmm1
  00292	0f 5a d2	 cvtps2pd xmm2, xmm2
  00295	50		 push	 eax
  00296	f2 0f 5c ca	 subsd	 xmm1, xmm2
  0029a	f3 0f 11 45 e0	 movss	 DWORD PTR _vDiff2$532474[ebp+8], xmm0
  0029f	0f 57 c0	 xorps	 xmm0, xmm0
  002a2	66 0f 5a c9	 cvtpd2ps xmm1, xmm1
  002a6	50		 push	 eax
  002a7	f3 0f 11 4d d8	 movss	 DWORD PTR _vDiff2$532474[ebp], xmm1
  002ac	f3 0f 11 45 dc	 movss	 DWORD PTR _vDiff2$532474[ebp+4], xmm0
  002b1	e8 00 00 00 00	 call	 _D3DXVec3Normalize@8

; 291  : 
; 292  : 		float fCurValue = D3DXVec3Dot( &vDir, &vDiff2 );
; 293  : 		if( fCurValue < fHalfValue )

  002b6	f3 0f 10 45 d8	 movss	 xmm0, DWORD PTR _vDiff2$532474[ebp]
  002bb	f3 0f 10 4d cc	 movss	 xmm1, DWORD PTR _vDir$532471[ebp]
  002c0	f3 0f 10 55 dc	 movss	 xmm2, DWORD PTR _vDiff2$532474[ebp+4]
  002c5	0f 5a c9	 cvtps2pd xmm1, xmm1
  002c8	0f 5a c0	 cvtps2pd xmm0, xmm0
  002cb	f2 0f 59 c1	 mulsd	 xmm0, xmm1
  002cf	f3 0f 10 4d d0	 movss	 xmm1, DWORD PTR _vDir$532471[ebp+4]
  002d4	0f 5a c9	 cvtps2pd xmm1, xmm1
  002d7	0f 5a d2	 cvtps2pd xmm2, xmm2
  002da	f2 0f 59 ca	 mulsd	 xmm1, xmm2
  002de	f3 0f 10 55 e0	 movss	 xmm2, DWORD PTR _vDiff2$532474[ebp+8]
  002e3	f2 0f 58 c1	 addsd	 xmm0, xmm1
  002e7	f3 0f 10 4d d4	 movss	 xmm1, DWORD PTR _vDir$532471[ebp+8]
  002ec	0f 5a c9	 cvtps2pd xmm1, xmm1
  002ef	0f 5a d2	 cvtps2pd xmm2, xmm2
  002f2	f2 0f 59 ca	 mulsd	 xmm1, xmm2
  002f6	f2 0f 58 c1	 addsd	 xmm0, xmm1
  002fa	f3 0f 10 4d a0	 movss	 xmm1, DWORD PTR _fHalfValue$[ebp]
  002ff	66 0f 5a c0	 cvtpd2ps xmm0, xmm0
  00303	f3 0f 5a c0	 cvtss2sd xmm0, xmm0
  00307	0f 5a c9	 cvtps2pd xmm1, xmm1
  0030a	66 0f 2f c8	 comisd	 xmm1, xmm0

; 294  : 			return false;;

  0030e	0f 87 b5 00 00
	00		 ja	 $LN3@CheckFinde
  00314	8b 7d a4	 mov	 edi, DWORD PTR _pTarget$[ebp]
$LN5@CheckFinde:

; 295  : 	}
; 296  : 
; 297  : 	//
; 298  : 	float fHeight = pStage->GetMapHeightOnlyTerrain( vTargetPos.x, vTargetPos.z );

  00317	0f 57 c0	 xorps	 xmm0, xmm0
  0031a	8b 4d b0	 mov	 ecx, DWORD PTR _pStage$[ebp]
  0031d	83 ec 0c	 sub	 esp, 12			; 0000000cH
  00320	f3 0f 11 44 24
	08		 movss	 DWORD PTR [esp+8], xmm0
  00326	f3 0f 10 45 f8	 movss	 xmm0, DWORD PTR _vTargetPos$[ebp+8]
  0032b	f3 0f 11 44 24
	04		 movss	 DWORD PTR [esp+4], xmm0
  00331	f3 0f 10 45 f0	 movss	 xmm0, DWORD PTR _vTargetPos$[ebp]
  00336	f3 0f 11 04 24	 movss	 DWORD PTR [esp], xmm0
  0033b	e8 00 00 00 00	 call	 ?GetMapHeightOnlyTerrain@ioPlayStage@@QAEMMMM@Z ; ioPlayStage::GetMapHeightOnlyTerrain
  00340	d9 5d b0	 fstp	 DWORD PTR _fHeight$[ebp]

; 299  : 	float fTerrainHeightGap = fabs( pTarget->GetWorldPosition().y - fHeight );

  00343	8b 07		 mov	 eax, DWORD PTR [edi]
  00345	8b cf		 mov	 ecx, edi
  00347	ff 50 70	 call	 DWORD PTR [eax+112]
  0034a	f3 0f 10 4d b0	 movss	 xmm1, DWORD PTR _fHeight$[ebp]
  0034f	f3 0f 10 40 04	 movss	 xmm0, DWORD PTR [eax+4]

; 300  : 	if( fTerrainHeightGap < fCheckHeightGapMin || fTerrainHeightGap > fCheckHeightGapMax)

  00354	f3 0f 10 55 18	 movss	 xmm2, DWORD PTR _fCheckHeightGapMin$[ebp]
  00359	0f 5a c0	 cvtps2pd xmm0, xmm0
  0035c	0f 5a c9	 cvtps2pd xmm1, xmm1
  0035f	f2 0f 5c c1	 subsd	 xmm0, xmm1
  00363	66 0f 5a c0	 cvtpd2ps xmm0, xmm0
  00367	f3 0f 5a c0	 cvtss2sd xmm0, xmm0
  0036b	66 0f 54 05 00
	00 00 00	 andpd	 xmm0, QWORD PTR __mask@@AbsDouble@
  00373	f2 0f 5a c0	 cvtsd2ss xmm0, xmm0
  00377	0f 57 c9	 xorps	 xmm1, xmm1
  0037a	f3 0f 5a c8	 cvtss2sd xmm1, xmm0
  0037e	0f 5a d2	 cvtps2pd xmm2, xmm2
  00381	66 0f 2f d1	 comisd	 xmm2, xmm1
  00385	77 42		 ja	 SHORT $LN3@CheckFinde
  00387	f3 0f 10 4d 1c	 movss	 xmm1, DWORD PTR _fCheckHeightGapMax$[ebp]
  0038c	f3 0f 5a c0	 cvtss2sd xmm0, xmm0
  00390	0f 5a c9	 cvtps2pd xmm1, xmm1
  00393	66 0f 2f c1	 comisd	 xmm0, xmm1
  00397	77 30		 ja	 SHORT $LN3@CheckFinde

; 302  : 
; 303  : 	//
; 304  : 	if( fDiffRangeSq < fTargetRangeSq_min || fDiffRangeSq > fTargetRangeSq_max )

  00399	f3 0f 10 45 bc	 movss	 xmm0, DWORD PTR _fDiffRangeSq$[ebp]
  0039e	f3 0f 10 4d a8	 movss	 xmm1, DWORD PTR _fTargetRangeSq_min$[ebp]
  003a3	0f 5a c0	 cvtps2pd xmm0, xmm0
  003a6	0f 5a c9	 cvtps2pd xmm1, xmm1
  003a9	66 0f 2f c8	 comisd	 xmm1, xmm0
  003ad	77 1a		 ja	 SHORT $LN3@CheckFinde
  003af	f3 0f 10 45 bc	 movss	 xmm0, DWORD PTR _fDiffRangeSq$[ebp]
  003b4	f3 0f 10 4d b4	 movss	 xmm1, DWORD PTR _fTargetRangeSq_max$[ebp]
  003b9	0f 5a c0	 cvtps2pd xmm0, xmm0
  003bc	0f 5a c9	 cvtps2pd xmm1, xmm1
  003bf	66 0f 2f c1	 comisd	 xmm0, xmm1
  003c3	77 04		 ja	 SHORT $LN3@CheckFinde

; 305  : 		return false;
; 306  : 
; 307  : 	return true;

  003c5	b0 01		 mov	 al, 1
  003c7	eb 02		 jmp	 SHORT $LN86@CheckFinde
$LN3@CheckFinde:

; 301  : 		return false;

  003c9	32 c0		 xor	 al, al
$LN86@CheckFinde:
  003cb	5f		 pop	 edi
$LN16@CheckFinde:

; 308  : }

  003cc	8b 4d fc	 mov	 ecx, DWORD PTR __$ArrayPad$[ebp]
  003cf	5e		 pop	 esi
  003d0	33 cd		 xor	 ecx, ebp
  003d2	5b		 pop	 ebx
  003d3	e8 00 00 00 00	 call	 @__security_check_cookie@4
  003d8	c9		 leave
  003d9	c2 1c 00	 ret	 28			; 0000001cH
?CheckFindedTarget@ioTargetTrace13Dummy@@IAE_NPAVioBaseChar@@MMMMMABVioHashString@@@Z ENDP ; ioTargetTrace13Dummy::CheckFindedTarget
_TEXT	ENDS
PUBLIC	_pOwner$GSCopy$
PUBLIC	_this$GSCopy$
PUBLIC	?FindTarget@ioTargetTrace13Dummy@@IAE_NPAVioBaseChar@@MMMMM@Z ; ioTargetTrace13Dummy::FindTarget
EXTRN	__imp_??8ioHashString@@QBE_NABV0@@Z:PROC
EXTRN	__EH_epilog3_GS:PROC
EXTRN	__EH_prolog3_GS:PROC
;	COMDAT xdata$x
; File d:\lost saga for developer\youtube\tutorial\source\src\lsclient\iobasechar.h
xdata$x	SEGMENT
__unwindtable$?FindTarget@ioTargetTrace13Dummy@@IAE_NPAVioBaseChar@@MMMMM@Z DD 0ffffffffH
	DD	FLAT:__unwindfunclet$?FindTarget@ioTargetTrace13Dummy@@IAE_NPAVioBaseChar@@MMMMM@Z$0
__ehfuncinfo$?FindTarget@ioTargetTrace13Dummy@@IAE_NPAVioBaseChar@@MMMMM@Z DD 019930522H
	DD	01H
	DD	FLAT:__unwindtable$?FindTarget@ioTargetTrace13Dummy@@IAE_NPAVioBaseChar@@MMMMM@Z
	DD	2 DUP(00H)
	DD	2 DUP(00H)
	DD	00H
	DD	01H
; Function compile flags: /Ogsp
; File d:\lost saga for developer\youtube\tutorial\source\src\lsclient\iotargettrace13dummy.cpp
xdata$x	ENDS
;	COMDAT ?FindTarget@ioTargetTrace13Dummy@@IAE_NPAVioBaseChar@@MMMMM@Z
_TEXT	SEGMENT
_qtRot$532716 = -184					; size = 16
$T532713 = -168						; size = 12
_value$537662 = -156					; size = 4
_value$537631 = -152					; size = 4
_fHalfValue$ = -148					; size = 4
_value$537644 = -144					; size = 4
_fTargetRangeSq_min$ = -140				; size = 4
_fDiffRangeSq$532714 = -136				; size = 4
_pOwner$GSCopy$ = -132					; size = 4
_szTarget$ = -128					; size = 16
_this$GSCopy$ = -112					; size = 4
_pStage$ = -108						; size = 4
_fCurAngle$ = -104					; size = 4
tv679 = -100						; size = 4
_iter$ = -96						; size = 4
_fCurGap$ = -92						; size = 4
tv838 = -88						; size = 4
tv834 = -88						; size = 4
_fTargetRangeSq_max$ = -88				; size = 4
tv795 = -84						; size = 4
tv791 = -84						; size = 4
tv787 = -84						; size = 4
_fHeight$532723 = -84					; size = 4
tv830 = -80						; size = 4
tv822 = -80						; size = 4
tv819 = -80						; size = 4
tv813 = -80						; size = 4
tv721 = -80						; size = 4
_value$537546 = -80					; size = 4
$T532718 = -76						; size = 12
_vDir$532717 = -64					; size = 12
_vDiff2$532720 = -52					; size = 12
_vTargetPos$532711 = -40				; size = 12
_vCurPos$ = -28						; size = 12
__$EHRec$ = -12						; size = 12
_pOwner$ = 8						; size = 4
_fMinLength$ = 12					; size = 4
_fMaxLength$ = 16					; size = 4
_fAngle$ = 20						; size = 4
_fCheckHeightGapMin$ = 24				; size = 4
_fCheckHeightGapMax$ = 28				; size = 4
?FindTarget@ioTargetTrace13Dummy@@IAE_NPAVioBaseChar@@MMMMM@Z PROC ; ioTargetTrace13Dummy::FindTarget, COMDAT
; _this$ = ecx

; 544  : {

  00000	68 ac 00 00 00	 push	 172			; 000000acH
  00005	b8 00 00 00 00	 mov	 eax, __ehhandler$?FindTarget@ioTargetTrace13Dummy@@IAE_NPAVioBaseChar@@MMMMM@Z
  0000a	e8 00 00 00 00	 call	 __EH_prolog3_GS
  0000f	8b 75 08	 mov	 esi, DWORD PTR _pOwner$[ebp]
  00012	8b d9		 mov	 ebx, ecx

; 600  : 				continue;
; 601  : 		}
; 602  : 
; 603  : 		float fHeight = pStage->GetMapHeightOnlyTerrain( vTargetPos.x, vTargetPos.z );

  00014	89 5d 90	 mov	 DWORD PTR _this$GSCopy$[ebp], ebx
  00017	89 b5 7c ff ff
	ff		 mov	 DWORD PTR _pOwner$GSCopy$[ebp], esi
  0001d	85 f6		 test	 esi, esi
  0001f	75 0a		 jne	 SHORT $LN19@FindTarget
$LN111@FindTarget:

; 545  : 	if( !pOwner )
; 546  : 		return false;

  00021	32 c0		 xor	 al, al
$LN20@FindTarget:

; 626  : 
; 627  : 	return false;
; 628  : }

  00023	e8 00 00 00 00	 call	 __EH_epilog3_GS
  00028	c2 18 00	 ret	 24			; 00000018H
$LN19@FindTarget:

; 547  : 
; 548  : 	ioPlayStage *pStage = pOwner->GetCreator();

  0002b	8b be 44 03 00
	00		 mov	 edi, DWORD PTR [esi+836]
  00031	89 7d 94	 mov	 DWORD PTR _pStage$[ebp], edi

; 549  : 	if( !pStage )

  00034	85 ff		 test	 edi, edi

; 550  : 		return false;

  00036	74 e9		 je	 SHORT $LN111@FindTarget

; 551  : 
; 552  : 	if( pOwner->GetExperienceMode() != EMS_NONE )

  00038	8d 45 b0	 lea	 eax, DWORD PTR _value$537546[ebp]
  0003b	8d 8e 94 1d 00
	00		 lea	 ecx, DWORD PTR [esi+7572]
  00041	50		 push	 eax
  00042	e8 00 00 00 00	 call	 ?DecryptValueToPool@?$CEncrypt@K@@QAEXPAK@Z ; CEncrypt<unsigned long>::DecryptValueToPool
  00047	83 7d b0 00	 cmp	 DWORD PTR _value$537546[ebp], 0

; 553  : 		return false;

  0004b	75 d4		 jne	 SHORT $LN111@FindTarget

; 554  : 
; 555  : 	m_szFindTarget.Clear();

  0004d	8d 8b 00 15 00
	00		 lea	 ecx, DWORD PTR [ebx+5376]
  00053	89 4d 9c	 mov	 DWORD PTR tv679[ebp], ecx
  00056	ff 15 00 00 00
	00		 call	 DWORD PTR __imp_?Clear@ioHashString@@QAEXXZ

; 556  : 
; 557  : 	D3DXVECTOR3 vCurPos = pOwner->GetMidPositionByRate();

  0005c	b8 05 00 00 00	 mov	 eax, 5
  00061	8b c8		 mov	 ecx, eax
  00063	b8 0a 00 00 00	 mov	 eax, 10			; 0000000aH
  00068	89 4d a8	 mov	 DWORD PTR tv838[ebp], ecx
  0006b	db 45 a8	 fild	 DWORD PTR tv838[ebp]
  0006e	85 c9		 test	 ecx, ecx
  00070	79 06		 jns	 SHORT $LN106@FindTarget
  00072	d8 05 00 00 00
	00		 fadd	 DWORD PTR __real@4f800000
$LN106@FindTarget:
  00078	89 45 a8	 mov	 DWORD PTR tv834[ebp], eax
  0007b	db 45 a8	 fild	 DWORD PTR tv834[ebp]
  0007e	85 c0		 test	 eax, eax
  00080	79 06		 jns	 SHORT $LN107@FindTarget
  00082	d8 05 00 00 00
	00		 fadd	 DWORD PTR __real@4f800000
$LN107@FindTarget:
  00088	de f9		 fdivp	 ST(1), ST(0)
  0008a	51		 push	 ecx
  0008b	8d 45 e4	 lea	 eax, DWORD PTR _vCurPos$[ebp]
  0008e	8b ce		 mov	 ecx, esi
  00090	d9 5d b0	 fstp	 DWORD PTR tv830[ebp]
  00093	d9 45 b0	 fld	 DWORD PTR tv830[ebp]
  00096	d9 1c 24	 fstp	 DWORD PTR [esp]
  00099	50		 push	 eax
  0009a	e8 00 00 00 00	 call	 ?GetMidPositionByRate@ioGameEntity@@QBE?AUD3DXVECTOR3@@M@Z ; ioGameEntity::GetMidPositionByRate

; 558  : 	D3DXVECTOR3 vDiff= ioMath::VEC3_ZERO;
; 559  : 
; 560  : 	float fCurAngle = ioMath::ArrangeHead( fAngle );

  0009f	f3 0f 10 45 14	 movss	 xmm0, DWORD PTR _fAngle$[ebp]
  000a4	51		 push	 ecx
  000a5	f3 0f 11 04 24	 movss	 DWORD PTR [esp], xmm0
  000aa	ff 15 00 00 00
	00		 call	 DWORD PTR __imp_?ArrangeHead@ioMath@@SAMM@Z
  000b0	d9 5d 98	 fstp	 DWORD PTR _fCurAngle$[ebp]

; 561  : 	float fHalfValue = cosf( DEGtoRAD(fCurAngle*0.5f) );

  000b3	d9 45 98	 fld	 DWORD PTR _fCurAngle$[ebp]
  000b6	59		 pop	 ecx
  000b7	dc 0d 00 00 00
	00		 fmul	 QWORD PTR __real@3fe0000000000000
  000bd	d9 5d b0	 fstp	 DWORD PTR tv822[ebp]
  000c0	d9 45 b0	 fld	 DWORD PTR tv822[ebp]
  000c3	dc 0d 00 00 00
	00		 fmul	 QWORD PTR __real@3f91df46a2526c7a
  000c9	d9 5d b0	 fstp	 DWORD PTR tv819[ebp]
  000cc	d9 45 b0	 fld	 DWORD PTR tv819[ebp]
  000cf	e8 00 00 00 00	 call	 __CIcos
  000d4	d9 5d b0	 fstp	 DWORD PTR tv813[ebp]

; 562  : 	float fTargetRangeSq_max = fMaxLength * fMaxLength;

  000d7	f3 0f 10 45 10	 movss	 xmm0, DWORD PTR _fMaxLength$[ebp]
  000dc	d9 45 b0	 fld	 DWORD PTR tv813[ebp]
  000df	0f 5a c0	 cvtps2pd xmm0, xmm0
  000e2	d9 9d 6c ff ff
	ff		 fstp	 DWORD PTR _fHalfValue$[ebp]
  000e8	f2 0f 59 c0	 mulsd	 xmm0, xmm0
  000ec	66 0f 5a c0	 cvtpd2ps xmm0, xmm0
  000f0	f3 0f 11 45 a8	 movss	 DWORD PTR _fTargetRangeSq_max$[ebp], xmm0

; 563  : 	float fTargetRangeSq_min = fMinLength * fMinLength;

  000f5	f3 0f 10 45 0c	 movss	 xmm0, DWORD PTR _fMinLength$[ebp]
  000fa	0f 5a c0	 cvtps2pd xmm0, xmm0
  000fd	f2 0f 59 c0	 mulsd	 xmm0, xmm0
  00101	66 0f 5a c0	 cvtpd2ps xmm0, xmm0

; 564  : 
; 565  : 	const BaseCharList &rkCharList = pStage->GetBaseCharList();
; 566  : 	BaseCharList::const_iterator iter;
; 567  : 
; 568  : 	ioHashString szTarget;

  00105	8d 4d 80	 lea	 ecx, DWORD PTR _szTarget$[ebp]
  00108	f3 0f 11 85 74
	ff ff ff	 movss	 DWORD PTR _fTargetRangeSq_min$[ebp], xmm0
  00110	ff 15 00 00 00
	00		 call	 DWORD PTR __imp_??0ioHashString@@QAE@XZ

; 569  : 	float fCurGap = -1.0f;

  00116	f3 0f 10 05 00
	00 00 00	 movss	 xmm0, DWORD PTR __real@bf800000
  0011e	83 65 fc 00	 and	 DWORD PTR __$EHRec$[ebp+8], 0

; 570  : 
; 571  : 	for( iter=rkCharList.begin() ; iter!=rkCharList.end() ; ++iter )

  00122	8b 77 2c	 mov	 esi, DWORD PTR [edi+44]
  00125	f3 0f 11 45 a4	 movss	 DWORD PTR _fCurGap$[ebp], xmm0
  0012a	e9 2e 03 00 00	 jmp	 $LN110@FindTarget
$LL47@FindTarget:

; 572  : 	{
; 573  : 		ioBaseChar *pTarget = *iter;

  0012f	8b 1e		 mov	 ebx, DWORD PTR [esi]

; 574  : 		if( !pTarget ) 

  00131	85 db		 test	 ebx, ebx
  00133	0f 84 21 03 00
	00		 je	 $LN15@FindTarget

; 575  : 			continue;
; 576  : 
; 577  : 		if( pTarget->GetTeam() == pOwner->GetTeam() ) 

  00139	8d 85 68 ff ff
	ff		 lea	 eax, DWORD PTR _value$537631[ebp]
  0013f	8d 8b 90 00 00
	00		 lea	 ecx, DWORD PTR [ebx+144]
  00145	50		 push	 eax
  00146	e8 00 00 00 00	 call	 ?DecryptValueToPool@?$CEncrypt@W4TeamType@@@@QAEXPAW4TeamType@@@Z ; CEncrypt<enum TeamType>::DecryptValueToPool
  0014b	8b 8d 7c ff ff
	ff		 mov	 ecx, DWORD PTR _pOwner$GSCopy$[ebp]
  00151	8d 85 70 ff ff
	ff		 lea	 eax, DWORD PTR _value$537644[ebp]
  00157	81 c1 90 00 00
	00		 add	 ecx, 144		; 00000090H
  0015d	50		 push	 eax
  0015e	e8 00 00 00 00	 call	 ?DecryptValueToPool@?$CEncrypt@W4TeamType@@@@QAEXPAW4TeamType@@@Z ; CEncrypt<enum TeamType>::DecryptValueToPool
  00163	8b 85 68 ff ff
	ff		 mov	 eax, DWORD PTR _value$537631[ebp]
  00169	3b 85 70 ff ff
	ff		 cmp	 eax, DWORD PTR _value$537644[ebp]
  0016f	0f 84 e5 02 00
	00		 je	 $LN15@FindTarget

; 578  : 			continue;
; 579  : 		if( pTarget->GetCharName() == GetOwnerName() ) 

  00175	8b 45 90	 mov	 eax, DWORD PTR _this$GSCopy$[ebp]
  00178	05 cc 01 00 00	 add	 eax, 460		; 000001ccH
  0017d	8d 8b d4 02 00
	00		 lea	 ecx, DWORD PTR [ebx+724]
  00183	50		 push	 eax
  00184	89 4d b0	 mov	 DWORD PTR tv721[ebp], ecx
  00187	ff 15 00 00 00
	00		 call	 DWORD PTR __imp_??8ioHashString@@QBE_NABV0@@Z
  0018d	84 c0		 test	 al, al
  0018f	0f 85 c5 02 00
	00		 jne	 $LN15@FindTarget

; 580  : 			continue;
; 581  : 		if( pTarget->GetExperienceMode() != EMS_NONE ) 

  00195	8d 85 64 ff ff
	ff		 lea	 eax, DWORD PTR _value$537662[ebp]
  0019b	8d 8b 94 1d 00
	00		 lea	 ecx, DWORD PTR [ebx+7572]
  001a1	50		 push	 eax
  001a2	e8 00 00 00 00	 call	 ?DecryptValueToPool@?$CEncrypt@K@@QAEXPAK@Z ; CEncrypt<unsigned long>::DecryptValueToPool
  001a7	83 bd 64 ff ff
	ff 00		 cmp	 DWORD PTR _value$537662[ebp], 0
  001ae	0f 85 a6 02 00
	00		 jne	 $LN15@FindTarget

; 582  : 			continue;
; 583  : 
; 584  : 		D3DXVECTOR3 vTargetPos = pTarget->GetMidPositionByRate();

  001b4	b8 05 00 00 00	 mov	 eax, 5
  001b9	8b c8		 mov	 ecx, eax
  001bb	b8 0a 00 00 00	 mov	 eax, 10			; 0000000aH
  001c0	89 4d ac	 mov	 DWORD PTR tv795[ebp], ecx
  001c3	db 45 ac	 fild	 DWORD PTR tv795[ebp]
  001c6	85 c9		 test	 ecx, ecx
  001c8	79 06		 jns	 SHORT $LN108@FindTarget
  001ca	d8 05 00 00 00
	00		 fadd	 DWORD PTR __real@4f800000
$LN108@FindTarget:
  001d0	89 45 ac	 mov	 DWORD PTR tv791[ebp], eax
  001d3	db 45 ac	 fild	 DWORD PTR tv791[ebp]
  001d6	85 c0		 test	 eax, eax
  001d8	79 06		 jns	 SHORT $LN109@FindTarget
  001da	d8 05 00 00 00
	00		 fadd	 DWORD PTR __real@4f800000
$LN109@FindTarget:
  001e0	de f9		 fdivp	 ST(1), ST(0)
  001e2	51		 push	 ecx
  001e3	8d 45 d8	 lea	 eax, DWORD PTR _vTargetPos$532711[ebp]
  001e6	8b cb		 mov	 ecx, ebx
  001e8	d9 5d ac	 fstp	 DWORD PTR tv787[ebp]
  001eb	d9 45 ac	 fld	 DWORD PTR tv787[ebp]
  001ee	d9 1c 24	 fstp	 DWORD PTR [esp]
  001f1	50		 push	 eax
  001f2	e8 00 00 00 00	 call	 ?GetMidPositionByRate@ioGameEntity@@QBE?AUD3DXVECTOR3@@M@Z ; ioGameEntity::GetMidPositionByRate

; 585  : 		vDiff = vTargetPos - vCurPos;

  001f7	f3 0f 10 45 d8	 movss	 xmm0, DWORD PTR _vTargetPos$532711[ebp]
  001fc	f3 0f 10 4d e4	 movss	 xmm1, DWORD PTR _vCurPos$[ebp]
  00201	f3 0f 10 55 e8	 movss	 xmm2, DWORD PTR _vCurPos$[ebp+4]
  00206	f3 0f 10 5d ec	 movss	 xmm3, DWORD PTR _vCurPos$[ebp+8]
  0020b	0f 5a c0	 cvtps2pd xmm0, xmm0
  0020e	0f 5a c9	 cvtps2pd xmm1, xmm1
  00211	f2 0f 5c c1	 subsd	 xmm0, xmm1
  00215	f3 0f 10 4d dc	 movss	 xmm1, DWORD PTR _vTargetPos$532711[ebp+4]
  0021a	0f 5a d2	 cvtps2pd xmm2, xmm2
  0021d	0f 5a c9	 cvtps2pd xmm1, xmm1
  00220	f2 0f 5c ca	 subsd	 xmm1, xmm2
  00224	f3 0f 10 55 e0	 movss	 xmm2, DWORD PTR _vTargetPos$532711[ebp+8]
  00229	f2 0f 5a c0	 cvtsd2ss xmm0, xmm0
  0022d	0f 5a d2	 cvtps2pd xmm2, xmm2
  00230	f3 0f 11 85 58
	ff ff ff	 movss	 DWORD PTR $T532713[ebp], xmm0
  00238	66 0f 5a c9	 cvtpd2ps xmm1, xmm1

; 586  : 		float fDiffRangeSq = D3DXVec3LengthSq( &vDiff );

  0023c	f3 0f 5a c0	 cvtss2sd xmm0, xmm0
  00240	0f 5a db	 cvtps2pd xmm3, xmm3
  00243	f2 0f 5c d3	 subsd	 xmm2, xmm3
  00247	f2 0f 5a d2	 cvtsd2ss xmm2, xmm2
  0024b	f3 0f 11 8d 5c
	ff ff ff	 movss	 DWORD PTR $T532713[ebp+4], xmm1
  00253	f2 0f 59 c0	 mulsd	 xmm0, xmm0
  00257	f3 0f 11 95 60
	ff ff ff	 movss	 DWORD PTR $T532713[ebp+8], xmm2
  0025f	f3 0f 5a c9	 cvtss2sd xmm1, xmm1
  00263	f3 0f 5a d2	 cvtss2sd xmm2, xmm2
  00267	f2 0f 59 c9	 mulsd	 xmm1, xmm1
  0026b	f2 0f 58 c1	 addsd	 xmm0, xmm1
  0026f	f2 0f 59 d2	 mulsd	 xmm2, xmm2
  00273	f2 0f 58 c2	 addsd	 xmm0, xmm2
  00277	f2 0f 5a c0	 cvtsd2ss xmm0, xmm0
  0027b	f3 0f 11 85 78
	ff ff ff	 movss	 DWORD PTR _fDiffRangeSq$532714[ebp], xmm0

; 587  : 
; 588  : 		//  
; 589  : 		if( fCurAngle != 0.0f )

  00283	f3 0f 10 45 98	 movss	 xmm0, DWORD PTR _fCurAngle$[ebp]
  00288	0f 2e 05 00 00
	00 00		 ucomiss xmm0, DWORD PTR __real@00000000
  0028f	9f		 lahf
  00290	f6 c4 44	 test	 ah, 68			; 00000044H
  00293	0f 8b d5 00 00
	00		 jnp	 $LN8@FindTarget

; 590  : 		{
; 591  : 			D3DXQUATERNION qtRot = GetWorldOrientation();//pOwner->GetTargetRot();

  00299	8b 4d 90	 mov	 ecx, DWORD PTR _this$GSCopy$[ebp]
  0029c	8b 01		 mov	 eax, DWORD PTR [ecx]
  0029e	ff 50 74	 call	 DWORD PTR [eax+116]

; 592  : 			D3DXVECTOR3 vDir = qtRot * D3DXVECTOR3( 0.0f, 0.0f, -1.0f );

  002a1	0f 57 c0	 xorps	 xmm0, xmm0
  002a4	8b f0		 mov	 esi, eax
  002a6	8d bd 48 ff ff
	ff		 lea	 edi, DWORD PTR _qtRot$532716[ebp]
  002ac	a5		 movsd
  002ad	a5		 movsd
  002ae	8d 45 b4	 lea	 eax, DWORD PTR $T532718[ebp]
  002b1	50		 push	 eax
  002b2	8d 85 48 ff ff
	ff		 lea	 eax, DWORD PTR _qtRot$532716[ebp]
  002b8	a5		 movsd
  002b9	50		 push	 eax
  002ba	8d 45 c0	 lea	 eax, DWORD PTR _vDir$532717[ebp]
  002bd	f3 0f 11 45 b4	 movss	 DWORD PTR $T532718[ebp], xmm0
  002c2	f3 0f 11 45 b8	 movss	 DWORD PTR $T532718[ebp+4], xmm0
  002c7	f3 0f 10 05 00
	00 00 00	 movss	 xmm0, DWORD PTR __real@bf800000
  002cf	50		 push	 eax
  002d0	a5		 movsd
  002d1	f3 0f 11 45 bc	 movss	 DWORD PTR $T532718[ebp+8], xmm0
  002d6	ff 15 00 00 00
	00		 call	 DWORD PTR __imp_??D@YA?AUD3DXVECTOR3@@ABUD3DXQUATERNION@@ABU0@@Z
  002dc	83 c4 0c	 add	 esp, 12			; 0000000cH

; 593  : 			D3DXVec3Normalize( &vDir, &vDir );

  002df	8d 45 c0	 lea	 eax, DWORD PTR _vDir$532717[ebp]
  002e2	50		 push	 eax
  002e3	50		 push	 eax
  002e4	e8 00 00 00 00	 call	 _D3DXVec3Normalize@8

; 594  : 			D3DXVECTOR3 vDiff2 = vDiff;
; 595  : 			vDiff2.y = 0.0f;

  002e9	0f 57 c0	 xorps	 xmm0, xmm0
  002ec	8d b5 58 ff ff
	ff		 lea	 esi, DWORD PTR $T532713[ebp]
  002f2	8d 7d cc	 lea	 edi, DWORD PTR _vDiff2$532720[ebp]
  002f5	a5		 movsd
  002f6	a5		 movsd

; 596  : 			D3DXVec3Normalize( &vDiff2, &vDiff2 );

  002f7	8d 45 cc	 lea	 eax, DWORD PTR _vDiff2$532720[ebp]
  002fa	50		 push	 eax
  002fb	a5		 movsd
  002fc	50		 push	 eax
  002fd	f3 0f 11 45 d0	 movss	 DWORD PTR _vDiff2$532720[ebp+4], xmm0
  00302	e8 00 00 00 00	 call	 _D3DXVec3Normalize@8

; 597  : 
; 598  : 			float fCurValue = D3DXVec3Dot( &vDir, &vDiff2 );

  00307	f3 0f 10 4d cc	 movss	 xmm1, DWORD PTR _vDiff2$532720[ebp]
  0030c	f3 0f 10 45 c0	 movss	 xmm0, DWORD PTR _vDir$532717[ebp]
  00311	f3 0f 10 55 d0	 movss	 xmm2, DWORD PTR _vDiff2$532720[ebp+4]

; 599  : 			if( fCurValue < fHalfValue )

  00316	8b 75 a0	 mov	 esi, DWORD PTR _iter$[ebp]
  00319	8b 7d 94	 mov	 edi, DWORD PTR _pStage$[ebp]
  0031c	0f 5a c9	 cvtps2pd xmm1, xmm1
  0031f	0f 5a c0	 cvtps2pd xmm0, xmm0
  00322	f2 0f 59 c1	 mulsd	 xmm0, xmm1
  00326	f3 0f 10 4d c4	 movss	 xmm1, DWORD PTR _vDir$532717[ebp+4]
  0032b	0f 5a c9	 cvtps2pd xmm1, xmm1
  0032e	0f 5a d2	 cvtps2pd xmm2, xmm2
  00331	f2 0f 59 ca	 mulsd	 xmm1, xmm2
  00335	f3 0f 10 55 d4	 movss	 xmm2, DWORD PTR _vDiff2$532720[ebp+8]
  0033a	f2 0f 58 c1	 addsd	 xmm0, xmm1
  0033e	f3 0f 10 4d c8	 movss	 xmm1, DWORD PTR _vDir$532717[ebp+8]
  00343	0f 5a c9	 cvtps2pd xmm1, xmm1
  00346	0f 5a d2	 cvtps2pd xmm2, xmm2
  00349	f2 0f 59 ca	 mulsd	 xmm1, xmm2
  0034d	f2 0f 58 c1	 addsd	 xmm0, xmm1
  00351	f3 0f 10 8d 6c
	ff ff ff	 movss	 xmm1, DWORD PTR _fHalfValue$[ebp]
  00359	66 0f 5a c0	 cvtpd2ps xmm0, xmm0
  0035d	f3 0f 5a c0	 cvtss2sd xmm0, xmm0
  00361	0f 5a c9	 cvtps2pd xmm1, xmm1
  00364	66 0f 2f c8	 comisd	 xmm1, xmm0
  00368	0f 87 ec 00 00
	00		 ja	 $LN15@FindTarget
$LN8@FindTarget:

; 600  : 				continue;
; 601  : 		}
; 602  : 
; 603  : 		float fHeight = pStage->GetMapHeightOnlyTerrain( vTargetPos.x, vTargetPos.z );

  0036e	0f 57 c0	 xorps	 xmm0, xmm0
  00371	83 ec 0c	 sub	 esp, 12			; 0000000cH
  00374	f3 0f 11 44 24
	08		 movss	 DWORD PTR [esp+8], xmm0
  0037a	f3 0f 10 45 e0	 movss	 xmm0, DWORD PTR _vTargetPos$532711[ebp+8]
  0037f	f3 0f 11 44 24
	04		 movss	 DWORD PTR [esp+4], xmm0
  00385	f3 0f 10 45 d8	 movss	 xmm0, DWORD PTR _vTargetPos$532711[ebp]
  0038a	8b cf		 mov	 ecx, edi
  0038c	f3 0f 11 04 24	 movss	 DWORD PTR [esp], xmm0
  00391	e8 00 00 00 00	 call	 ?GetMapHeightOnlyTerrain@ioPlayStage@@QAEMMMM@Z ; ioPlayStage::GetMapHeightOnlyTerrain
  00396	d9 5d ac	 fstp	 DWORD PTR _fHeight$532723[ebp]

; 604  : 		float fTerrainHeightGap = fabs( pTarget->GetWorldPosition().y - fHeight );

  00399	8b 03		 mov	 eax, DWORD PTR [ebx]
  0039b	8b cb		 mov	 ecx, ebx
  0039d	ff 50 70	 call	 DWORD PTR [eax+112]
  003a0	f3 0f 10 4d ac	 movss	 xmm1, DWORD PTR _fHeight$532723[ebp]
  003a5	f3 0f 10 40 04	 movss	 xmm0, DWORD PTR [eax+4]

; 605  : 		if( fTerrainHeightGap < fCheckHeightGapMin || fTerrainHeightGap > fCheckHeightGapMax)

  003aa	f3 0f 10 55 18	 movss	 xmm2, DWORD PTR _fCheckHeightGapMin$[ebp]
  003af	0f 5a c0	 cvtps2pd xmm0, xmm0
  003b2	0f 5a c9	 cvtps2pd xmm1, xmm1
  003b5	f2 0f 5c c1	 subsd	 xmm0, xmm1
  003b9	66 0f 5a c0	 cvtpd2ps xmm0, xmm0
  003bd	f3 0f 5a c0	 cvtss2sd xmm0, xmm0
  003c1	66 0f 54 05 00
	00 00 00	 andpd	 xmm0, QWORD PTR __mask@@AbsDouble@
  003c9	f2 0f 5a c0	 cvtsd2ss xmm0, xmm0
  003cd	0f 57 c9	 xorps	 xmm1, xmm1
  003d0	f3 0f 5a c8	 cvtss2sd xmm1, xmm0
  003d4	0f 5a d2	 cvtps2pd xmm2, xmm2
  003d7	66 0f 2f d1	 comisd	 xmm2, xmm1
  003db	77 7d		 ja	 SHORT $LN15@FindTarget
  003dd	f3 0f 10 4d 1c	 movss	 xmm1, DWORD PTR _fCheckHeightGapMax$[ebp]
  003e2	f3 0f 5a c0	 cvtss2sd xmm0, xmm0
  003e6	0f 5a c9	 cvtps2pd xmm1, xmm1
  003e9	66 0f 2f c1	 comisd	 xmm0, xmm1
  003ed	77 6b		 ja	 SHORT $LN15@FindTarget

; 606  : 			continue;
; 607  : 
; 608  : 		//  
; 609  : 		if( fDiffRangeSq > fTargetRangeSq_min && fDiffRangeSq < fTargetRangeSq_max )

  003ef	f3 0f 10 8d 78
	ff ff ff	 movss	 xmm1, DWORD PTR _fDiffRangeSq$532714[ebp]
  003f7	f3 0f 10 95 74
	ff ff ff	 movss	 xmm2, DWORD PTR _fTargetRangeSq_min$[ebp]
  003ff	0f 5a c1	 cvtps2pd xmm0, xmm1
  00402	0f 5a d2	 cvtps2pd xmm2, xmm2
  00405	66 0f 2f c2	 comisd	 xmm0, xmm2
  00409	76 4f		 jbe	 SHORT $LN15@FindTarget
  0040b	f3 0f 10 55 a8	 movss	 xmm2, DWORD PTR _fTargetRangeSq_max$[ebp]
  00410	0f 57 c0	 xorps	 xmm0, xmm0
  00413	0f 5a c1	 cvtps2pd xmm0, xmm1
  00416	0f 5a d2	 cvtps2pd xmm2, xmm2
  00419	66 0f 2f d0	 comisd	 xmm2, xmm0
  0041d	76 3b		 jbe	 SHORT $LN15@FindTarget

; 610  : 		{
; 611  : 			if( fCurGap == -1.0f )

  0041f	f3 0f 10 45 a4	 movss	 xmm0, DWORD PTR _fCurGap$[ebp]
  00424	0f 2e 05 00 00
	00 00		 ucomiss xmm0, DWORD PTR __real@bf800000
  0042b	9f		 lahf
  0042c	f6 c4 44	 test	 ah, 68			; 00000044H

; 612  : 			{
; 613  : 				fCurGap = fDiffRangeSq;
; 614  : 				m_szFindTarget = pTarget->GetCharName();

  0042f	7b 18		 jnp	 SHORT $LN112@FindTarget

; 615  : 			}
; 616  : 			else if( fCurGap >= 0.0f && fDiffRangeSq < fCurGap )

  00431	0f 2f 05 00 00
	00 00		 comiss	 xmm0, DWORD PTR __real@00000000
  00438	72 20		 jb	 SHORT $LN15@FindTarget
  0043a	0f 57 d2	 xorps	 xmm2, xmm2
  0043d	0f 5a d1	 cvtps2pd xmm2, xmm1
  00440	0f 5a c0	 cvtps2pd xmm0, xmm0
  00443	66 0f 2f c2	 comisd	 xmm0, xmm2
  00447	76 11		 jbe	 SHORT $LN15@FindTarget
$LN112@FindTarget:

; 617  : 			{
; 618  : 				fCurGap = fDiffRangeSq;
; 619  : 				m_szFindTarget = pTarget->GetCharName();

  00449	ff 75 b0	 push	 DWORD PTR tv721[ebp]
  0044c	8b 4d 9c	 mov	 ecx, DWORD PTR tv679[ebp]
  0044f	f3 0f 11 4d a4	 movss	 DWORD PTR _fCurGap$[ebp], xmm1
  00454	ff 15 00 00 00
	00		 call	 DWORD PTR __imp_??4ioHashString@@QAEAAV0@ABV0@@Z
$LN15@FindTarget:

; 570  : 
; 571  : 	for( iter=rkCharList.begin() ; iter!=rkCharList.end() ; ++iter )

  0045a	83 c6 04	 add	 esi, 4
$LN110@FindTarget:
  0045d	89 75 a0	 mov	 DWORD PTR _iter$[ebp], esi
  00460	3b 77 30	 cmp	 esi, DWORD PTR [edi+48]
  00463	0f 85 c6 fc ff
	ff		 jne	 $LL47@FindTarget

; 620  : 			}
; 621  : 		}
; 622  : 	}
; 623  : 
; 624  : 	if( !m_szFindTarget.IsEmpty() )

  00469	8b 4d 9c	 mov	 ecx, DWORD PTR tv679[ebp]
  0046c	ff 15 00 00 00
	00		 call	 DWORD PTR __imp_?IsEmpty@ioHashString@@QBE_NXZ
  00472	84 c0		 test	 al, al
  00474	75 16		 jne	 SHORT $LN1@FindTarget
  00476	b3 01		 mov	 bl, 1
$LN103@FindTarget:

; 625  : 		return true;

  00478	83 4d fc ff	 or	 DWORD PTR __$EHRec$[ebp+8], -1
  0047c	8d 4d 80	 lea	 ecx, DWORD PTR _szTarget$[ebp]
  0047f	ff 15 00 00 00
	00		 call	 DWORD PTR __imp_??1ioHashString@@QAE@XZ
  00485	8a c3		 mov	 al, bl
  00487	e9 97 fb ff ff	 jmp	 $LN20@FindTarget
$LN1@FindTarget:
  0048c	32 db		 xor	 bl, bl
  0048e	eb e8		 jmp	 SHORT $LN103@FindTarget
_TEXT	ENDS
;	COMDAT text$x
text$x	SEGMENT
__unwindfunclet$?FindTarget@ioTargetTrace13Dummy@@IAE_NPAVioBaseChar@@MMMMM@Z$0:
  00000	8d 4d 80	 lea	 ecx, DWORD PTR _szTarget$[ebp]
  00003	ff 25 00 00 00
	00		 jmp	 DWORD PTR __imp_??1ioHashString@@QAE@XZ
__ehhandler$?FindTarget@ioTargetTrace13Dummy@@IAE_NPAVioBaseChar@@MMMMM@Z:
  00009	8b 54 24 08	 mov	 edx, DWORD PTR [esp+8]
  0000d	8d 42 0c	 lea	 eax, DWORD PTR [edx+12]
  00010	8b 8a 44 ff ff
	ff		 mov	 ecx, DWORD PTR [edx-188]
  00016	33 c8		 xor	 ecx, eax
  00018	e8 00 00 00 00	 call	 @__security_check_cookie@4
  0001d	8b 4a fc	 mov	 ecx, DWORD PTR [edx-4]
  00020	33 c8		 xor	 ecx, eax
  00022	e8 00 00 00 00	 call	 @__security_check_cookie@4
  00027	b8 00 00 00 00	 mov	 eax, OFFSET __ehfuncinfo$?FindTarget@ioTargetTrace13Dummy@@IAE_NPAVioBaseChar@@MMMMM@Z
  0002c	e9 00 00 00 00	 jmp	 ___CxxFrameHandler3
text$x	ENDS
?FindTarget@ioTargetTrace13Dummy@@IAE_NPAVioBaseChar@@MMMMM@Z ENDP ; ioTargetTrace13Dummy::FindTarget
PUBLIC	_pStage$GSCopy$
PUBLIC	___$ReturnUdt$GSCopy$
PUBLIC	?GetSearchTarget@ioTargetTrace13Dummy@@IAE?AVioHashString@@PAVioPlayStage@@_N@Z ; ioTargetTrace13Dummy::GetSearchTarget
;	COMDAT xdata$x
; File d:\lost saga for developer\youtube\tutorial\source\src\lsclient\iobasechar.h
xdata$x	SEGMENT
__unwindtable$?GetSearchTarget@ioTargetTrace13Dummy@@IAE?AVioHashString@@PAVioPlayStage@@_N@Z DD 0ffffffffH
	DD	FLAT:__unwindfunclet$?GetSearchTarget@ioTargetTrace13Dummy@@IAE?AVioHashString@@PAVioPlayStage@@_N@Z$1
	DD	00H
	DD	FLAT:__unwindfunclet$?GetSearchTarget@ioTargetTrace13Dummy@@IAE?AVioHashString@@PAVioPlayStage@@_N@Z$0
__ehfuncinfo$?GetSearchTarget@ioTargetTrace13Dummy@@IAE?AVioHashString@@PAVioPlayStage@@_N@Z DD 019930522H
	DD	02H
	DD	FLAT:__unwindtable$?GetSearchTarget@ioTargetTrace13Dummy@@IAE?AVioHashString@@PAVioPlayStage@@_N@Z
	DD	2 DUP(00H)
	DD	2 DUP(00H)
	DD	00H
	DD	01H
; Function compile flags: /Ogsp
; File d:\lost saga for developer\youtube\tutorial\source\src\lsclient\iotargettrace13dummy.cpp
xdata$x	ENDS
;	COMDAT ?GetSearchTarget@ioTargetTrace13Dummy@@IAE?AVioHashString@@PAVioPlayStage@@_N@Z
_TEXT	SEGMENT
_qtRot$533119 = -172					; size = 16
_vCurPos$ = -156					; size = 12
_vTargetPos$533114 = -144				; size = 12
$T537738 = -132						; size = 4
_fDiffRangeSq$533116 = -128				; size = 4
_value$537840 = -124					; size = 4
_value$537871 = -120					; size = 4
_fHalfValue$ = -116					; size = 4
_pOwner$ = -112						; size = 4
_value$537853 = -108					; size = 4
_szTarget$ = -104					; size = 16
___$ReturnUdt$GSCopy$ = -88				; size = 4
tv978 = -84						; size = 4
_pStage$GSCopy$ = -80					; size = 4
_fCurGap$ = -76						; size = 4
_i$533107 = -72						; size = 4
$T537741 = -68						; size = 4
_value$537746 = -64					; size = 4
_value$537754 = -64					; size = 4
_fSensingRangeSq$ = -64					; size = 4
_value$537877 = -57					; size = 1
tv1155 = -56						; size = 4
tv1149 = -56						; size = 4
_value$537765 = -56					; size = 4
_value$537758 = -56					; size = 4
_iter$ = -56						; size = 4
_fSensingHalfAnigle$ = -56				; size = 4
_vDir$533120 = -52					; size = 12
$T533121 = -40						; size = 12
_vDiff2$533123 = -28					; size = 12
__$EHRec$ = -12						; size = 12
___$ReturnUdt$ = 8					; size = 4
_pStage$ = 12						; size = 4
_bSecond$ = 16						; size = 1
?GetSearchTarget@ioTargetTrace13Dummy@@IAE?AVioHashString@@PAVioPlayStage@@_N@Z PROC ; ioTargetTrace13Dummy::GetSearchTarget, COMDAT
; _this$ = ecx

; 979  : {

  00000	68 a0 00 00 00	 push	 160			; 000000a0H
  00005	b8 00 00 00 00	 mov	 eax, __ehhandler$?GetSearchTarget@ioTargetTrace13Dummy@@IAE?AVioHashString@@PAVioPlayStage@@_N@Z
  0000a	e8 00 00 00 00	 call	 __EH_prolog3_GS

; 992  : 		fSensingRangeSq = m_fSensingRange * m_fSensingRange;

  0000f	8b 45 0c	 mov	 eax, DWORD PTR _pStage$[ebp]
  00012	8b 7d 08	 mov	 edi, DWORD PTR ___$ReturnUdt$[ebp]
  00015	83 65 bc 00	 and	 DWORD PTR $T537741[ebp], 0
  00019	8b d9		 mov	 ebx, ecx
  0001b	8d 4d 98	 lea	 ecx, DWORD PTR _szTarget$[ebp]
  0001e	89 7d a8	 mov	 DWORD PTR ___$ReturnUdt$GSCopy$[ebp], edi
  00021	89 45 b0	 mov	 DWORD PTR _pStage$GSCopy$[ebp], eax
  00024	ff 15 00 00 00
	00		 call	 DWORD PTR __imp_??0ioHashString@@QAE@XZ
  0002a	33 f6		 xor	 esi, esi
  0002c	46		 inc	 esi
  0002d	8b cb		 mov	 ecx, ebx
  0002f	89 75 fc	 mov	 DWORD PTR __$EHRec$[ebp+8], esi
  00032	e8 00 00 00 00	 call	 ?GetOwner@ioDummyChar@@QBEPAVioBaseChar@@XZ ; ioDummyChar::GetOwner
  00037	89 45 90	 mov	 DWORD PTR _pOwner$[ebp], eax
  0003a	85 c0		 test	 eax, eax
  0003c	75 23		 jne	 SHORT $LN31@GetSearchT

; 980  : 	ioHashString szTarget;
; 981  : 
; 982  : 	ioBaseChar *pOwner = GetOwner();
; 983  : 	if( !pOwner )
; 984  : 		return szTarget;

  0003e	8d 45 98	 lea	 eax, DWORD PTR _szTarget$[ebp]
  00041	50		 push	 eax
  00042	8b cf		 mov	 ecx, edi
  00044	ff 15 00 00 00
	00		 call	 DWORD PTR __imp_??0ioHashString@@QAE@ABV0@@Z
$LN168@GetSearchT:
  0004a	8d 4d 98	 lea	 ecx, DWORD PTR _szTarget$[ebp]
  0004d	89 75 bc	 mov	 DWORD PTR $T537741[ebp], esi
  00050	c6 45 fc 00	 mov	 BYTE PTR __$EHRec$[ebp+8], 0
  00054	ff 15 00 00 00
	00		 call	 DWORD PTR __imp_??1ioHashString@@QAE@XZ
  0005a	8b c7		 mov	 eax, edi
  0005c	e9 4b 04 00 00	 jmp	 $LN32@GetSearchT
$LN31@GetSearchT:

; 985  : 	if( !pStage )

  00061	83 7d b0 00	 cmp	 DWORD PTR _pStage$GSCopy$[ebp], 0
  00065	75 0e		 jne	 SHORT $LN30@GetSearchT
$LN169@GetSearchT:

; 986  : 		return szTarget;

  00067	8d 45 98	 lea	 eax, DWORD PTR _szTarget$[ebp]
  0006a	50		 push	 eax
  0006b	8b cf		 mov	 ecx, edi
  0006d	ff 15 00 00 00
	00		 call	 DWORD PTR __imp_??0ioHashString@@QAE@ABV0@@Z
  00073	eb d5		 jmp	 SHORT $LN168@GetSearchT
$LN30@GetSearchT:

; 987  : 
; 988  : 	float fSensingRangeSq = 0.0f;
; 989  : 	if( bSecond )

  00075	80 7d 10 00	 cmp	 BYTE PTR _bSecond$[ebp], 0

; 990  : 		fSensingRangeSq = m_fSensingRange2 * m_fSensingRange2;

  00079	8d 45 c0	 lea	 eax, DWORD PTR _value$537746[ebp]
  0007c	50		 push	 eax
  0007d	74 13		 je	 SHORT $LN29@GetSearchT
  0007f	8d 8b 8c 08 00
	00		 lea	 ecx, DWORD PTR [ebx+2188]
  00085	e8 00 00 00 00	 call	 ?DecryptValueToPool@?$CEncrypt@M@@QAEXPAM@Z ; CEncrypt<float>::DecryptValueToPool
  0008a	8d 8b 8c 08 00
	00		 lea	 ecx, DWORD PTR [ebx+2188]

; 991  : 	else

  00090	eb 11		 jmp	 SHORT $LN164@GetSearchT
$LN29@GetSearchT:

; 992  : 		fSensingRangeSq = m_fSensingRange * m_fSensingRange;

  00092	8d 8b 5c 08 00
	00		 lea	 ecx, DWORD PTR [ebx+2140]
  00098	e8 00 00 00 00	 call	 ?DecryptValueToPool@?$CEncrypt@M@@QAEXPAM@Z ; CEncrypt<float>::DecryptValueToPool
  0009d	8d 8b 5c 08 00
	00		 lea	 ecx, DWORD PTR [ebx+2140]
$LN164@GetSearchT:
  000a3	8d 45 c8	 lea	 eax, DWORD PTR _value$537758[ebp]
  000a6	50		 push	 eax
  000a7	e8 00 00 00 00	 call	 ?DecryptValueToPool@?$CEncrypt@M@@QAEXPAM@Z ; CEncrypt<float>::DecryptValueToPool
  000ac	f3 0f 10 4d c0	 movss	 xmm1, DWORD PTR _value$537754[ebp]
  000b1	f3 0f 10 45 c8	 movss	 xmm0, DWORD PTR _value$537758[ebp]
  000b6	0f 5a c0	 cvtps2pd xmm0, xmm0
  000b9	0f 5a c9	 cvtps2pd xmm1, xmm1
  000bc	f2 0f 59 c1	 mulsd	 xmm0, xmm1
  000c0	66 0f 5a c0	 cvtpd2ps xmm0, xmm0

; 993  : 
; 994  : 	if( fSensingRangeSq == 0.0f )

  000c4	0f 2e 05 00 00
	00 00		 ucomiss xmm0, DWORD PTR __real@00000000
  000cb	9f		 lahf
  000cc	f3 0f 11 45 c0	 movss	 DWORD PTR _fSensingRangeSq$[ebp], xmm0
  000d1	f6 c4 44	 test	 ah, 68			; 00000044H

; 995  : 		return szTarget;

  000d4	7b 91		 jnp	 SHORT $LN169@GetSearchT

; 996  : 
; 997  : 	D3DXVECTOR3 vDiff;
; 998  : 	D3DXVECTOR3 vCurPos = GetWorldPosition();

  000d6	8b 03		 mov	 eax, DWORD PTR [ebx]
  000d8	8b cb		 mov	 ecx, ebx
  000da	ff 50 70	 call	 DWORD PTR [eax+112]
  000dd	8b f0		 mov	 esi, eax
  000df	8d bd 64 ff ff
	ff		 lea	 edi, DWORD PTR _vCurPos$[ebp]
  000e5	a5		 movsd
  000e6	a5		 movsd

; 999  : 	vCurPos.y = 0.f;
; 1000 : 
; 1001 : 	float fSensingHalfAnigle = m_fSensingAngle / 2.0f;

  000e7	8d 45 c8	 lea	 eax, DWORD PTR _value$537765[ebp]
  000ea	8d 8b bc 08 00
	00		 lea	 ecx, DWORD PTR [ebx+2236]
  000f0	50		 push	 eax
  000f1	a5		 movsd
  000f2	e8 00 00 00 00	 call	 ?DecryptValueToPool@?$CEncrypt@M@@QAEXPAM@Z ; CEncrypt<float>::DecryptValueToPool

; 1002 : 	fSensingHalfAnigle = ioMath::ArrangeHead(fSensingHalfAnigle);

  000f7	f3 0f 10 45 c8	 movss	 xmm0, DWORD PTR _value$537765[ebp]
  000fc	0f 5a c0	 cvtps2pd xmm0, xmm0
  000ff	f2 0f 59 05 00
	00 00 00	 mulsd	 xmm0, QWORD PTR __real@3fe0000000000000
  00107	51		 push	 ecx
  00108	66 0f 5a c0	 cvtpd2ps xmm0, xmm0
  0010c	f3 0f 11 04 24	 movss	 DWORD PTR [esp], xmm0
  00111	ff 15 00 00 00
	00		 call	 DWORD PTR __imp_?ArrangeHead@ioMath@@SAMM@Z
  00117	d9 5d c8	 fstp	 DWORD PTR _fSensingHalfAnigle$[ebp]

; 1003 : 	float fHalfValue = cosf( DEGtoRAD(fSensingHalfAnigle) );

  0011a	d9 45 c8	 fld	 DWORD PTR _fSensingHalfAnigle$[ebp]
  0011d	59		 pop	 ecx
  0011e	dc 0d 00 00 00
	00		 fmul	 QWORD PTR __real@3f91df46a2526c7a
  00124	d9 5d c8	 fstp	 DWORD PTR tv1155[ebp]
  00127	d9 45 c8	 fld	 DWORD PTR tv1155[ebp]
  0012a	e8 00 00 00 00	 call	 __CIcos
  0012f	d9 5d c8	 fstp	 DWORD PTR tv1149[ebp]
  00132	d9 45 c8	 fld	 DWORD PTR tv1149[ebp]

; 1004 : 
; 1005 : 	// Char Check
; 1006 : 	const BaseCharList &rkCharList = pStage->GetBaseCharList();
; 1007 : 	BaseCharList::const_iterator iter;
; 1008 : 
; 1009 : 	float fCurGap = -1.0f;
; 1010 : 	for( iter=rkCharList.begin() ; iter!=rkCharList.end() ; ++iter )

  00135	8b 4d b0	 mov	 ecx, DWORD PTR _pStage$GSCopy$[ebp]
  00138	f3 0f 10 05 00
	00 00 00	 movss	 xmm0, DWORD PTR __real@bf800000
  00140	d9 5d 8c	 fstp	 DWORD PTR _fHalfValue$[ebp]
  00143	8b 41 2c	 mov	 eax, DWORD PTR [ecx+44]
  00146	f3 0f 11 45 b4	 movss	 DWORD PTR _fCurGap$[ebp], xmm0
  0014b	e9 2c 03 00 00	 jmp	 $LN165@GetSearchT
$LL63@GetSearchT:

; 1011 : 	{
; 1012 : 		ioBaseChar *pChar = *iter;

  00150	8b 30		 mov	 esi, DWORD PTR [eax]

; 1013 : 
; 1014 : 		if( !pChar ) continue;

  00152	85 f6		 test	 esi, esi
  00154	0f 84 19 03 00
	00		 je	 $LN25@GetSearchT

; 1015 : 		if( pChar->GetTeam() == pOwner->GetTeam() ) continue;

  0015a	8d 45 84	 lea	 eax, DWORD PTR _value$537840[ebp]
  0015d	8d 8e 90 00 00
	00		 lea	 ecx, DWORD PTR [esi+144]
  00163	50		 push	 eax
  00164	e8 00 00 00 00	 call	 ?DecryptValueToPool@?$CEncrypt@W4TeamType@@@@QAEXPAW4TeamType@@@Z ; CEncrypt<enum TeamType>::DecryptValueToPool
  00169	8b 4d 90	 mov	 ecx, DWORD PTR _pOwner$[ebp]
  0016c	8d 45 94	 lea	 eax, DWORD PTR _value$537853[ebp]
  0016f	81 c1 90 00 00
	00		 add	 ecx, 144		; 00000090H
  00175	50		 push	 eax
  00176	e8 00 00 00 00	 call	 ?DecryptValueToPool@?$CEncrypt@W4TeamType@@@@QAEXPAW4TeamType@@@Z ; CEncrypt<enum TeamType>::DecryptValueToPool
  0017b	8b 45 84	 mov	 eax, DWORD PTR _value$537840[ebp]
  0017e	3b 45 94	 cmp	 eax, DWORD PTR _value$537853[ebp]
  00181	0f 84 ec 02 00
	00		 je	 $LN25@GetSearchT

; 1016 : 		if( pChar->GetCharName() == GetOwnerName() ) continue;

  00187	8d 83 cc 01 00
	00		 lea	 eax, DWORD PTR [ebx+460]
  0018d	8d 8e d4 02 00
	00		 lea	 ecx, DWORD PTR [esi+724]
  00193	50		 push	 eax
  00194	89 4d ac	 mov	 DWORD PTR tv978[ebp], ecx
  00197	ff 15 00 00 00
	00		 call	 DWORD PTR __imp_??8ioHashString@@QBE_NABV0@@Z
  0019d	84 c0		 test	 al, al
  0019f	0f 85 ce 02 00
	00		 jne	 $LN25@GetSearchT

; 1017 : 		if( pChar->GetExperienceMode() == EMS_EXPERIENCE ) continue;

  001a5	8d 45 88	 lea	 eax, DWORD PTR _value$537871[ebp]
  001a8	8d 8e 94 1d 00
	00		 lea	 ecx, DWORD PTR [esi+7572]
  001ae	50		 push	 eax
  001af	e8 00 00 00 00	 call	 ?DecryptValueToPool@?$CEncrypt@K@@QAEXPAK@Z ; CEncrypt<unsigned long>::DecryptValueToPool
  001b4	83 7d 88 02	 cmp	 DWORD PTR _value$537871[ebp], 2
  001b8	0f 84 b5 02 00
	00		 je	 $LN25@GetSearchT

; 1018 : 		if( !IsEnableTargetState( pChar ) )

  001be	56		 push	 esi
  001bf	8b cb		 mov	 ecx, ebx
  001c1	e8 00 00 00 00	 call	 ?IsEnableTargetState@ioDummyChar@@IAE_NPAVioBaseChar@@@Z ; ioDummyChar::IsEnableTargetState
  001c6	84 c0		 test	 al, al
  001c8	0f 84 a5 02 00
	00		 je	 $LN25@GetSearchT

; 1019 : 			continue;
; 1020 : 
; 1021 : 		if( pChar->IsCanNoWound() )

  001ce	8b ce		 mov	 ecx, esi
  001d0	e8 00 00 00 00	 call	 ?IsCanNoWound@ioBaseChar@@QAE_NXZ ; ioBaseChar::IsCanNoWound
  001d5	84 c0		 test	 al, al
  001d7	0f 85 96 02 00
	00		 jne	 $LN25@GetSearchT

; 1022 : 			continue;
; 1023 : 
; 1024 : 		if( m_bCheckWounedState && !IsTargetWoundedState( pChar ) )

  001dd	8d 45 c7	 lea	 eax, DWORD PTR _value$537877[ebp]
  001e0	50		 push	 eax
  001e1	8d 8b e4 12 00
	00		 lea	 ecx, DWORD PTR [ebx+4836]
  001e7	e8 00 00 00 00	 call	 ?DecryptValueToPool@?$CEncrypt@_N@@QAEXPA_N@Z ; CEncrypt<bool>::DecryptValueToPool
  001ec	80 7d c7 00	 cmp	 BYTE PTR _value$537877[ebp], 0
  001f0	74 10		 je	 SHORT $LN17@GetSearchT
  001f2	56		 push	 esi
  001f3	8b cb		 mov	 ecx, ebx
  001f5	e8 00 00 00 00	 call	 ?IsTargetWoundedState@ioDummyChar@@QAE_NPAVioBaseChar@@@Z ; ioDummyChar::IsTargetWoundedState
  001fa	84 c0		 test	 al, al
  001fc	0f 84 71 02 00
	00		 je	 $LN25@GetSearchT
$LN17@GetSearchT:

; 1025 : 			continue;
; 1026 : 
; 1027 : 		bool bPass = false;
; 1028 : 
; 1029 : 		auto SkipBuffIter = m_vSkipBuffList.begin();

  00202	8b bb d4 12 00
	00		 mov	 edi, DWORD PTR [ebx+4820]
  00208	eb 13		 jmp	 SHORT $LN166@GetSearchT

; 1030 : 		for ( ; SkipBuffIter != m_vSkipBuffList.end(); ++SkipBuffIter )

$LL107@GetSearchT:

; 1031 : 		{
; 1032 : 			ioHashString& szBuffName = *SkipBuffIter;
; 1033 : 			if ( pChar->HasBuff( szBuffName ) )

  0020a	57		 push	 edi
  0020b	8b ce		 mov	 ecx, esi
  0020d	e8 00 00 00 00	 call	 ?HasBuff@ioBaseChar@@QBE_NABVioHashString@@@Z ; ioBaseChar::HasBuff
  00212	84 c0		 test	 al, al
  00214	0f 85 59 02 00
	00		 jne	 $LN25@GetSearchT

; 1030 : 		for ( ; SkipBuffIter != m_vSkipBuffList.end(); ++SkipBuffIter )

  0021a	83 c7 10	 add	 edi, 16			; 00000010H
$LN166@GetSearchT:
  0021d	3b bb d8 12 00
	00		 cmp	 edi, DWORD PTR [ebx+4824]
  00223	75 e5		 jne	 SHORT $LL107@GetSearchT

; 1034 : 			{				
; 1035 : 				bPass = true;
; 1036 : 				break;
; 1037 : 			}
; 1038 : 		}
; 1039 : 
; 1040 : 		if( bPass )
; 1041 : 			continue;
; 1042 : 
; 1043 : 		bPass = false;
; 1044 : 		for( size_t i = 0; i < m_vTargetedChar.size(); i++ )

  00225	8b 83 18 0b 00
	00		 mov	 eax, DWORD PTR [ebx+2840]
  0022b	8b 8b 1c 0b 00
	00		 mov	 ecx, DWORD PTR [ebx+2844]
  00231	2b c8		 sub	 ecx, eax
  00233	33 ff		 xor	 edi, edi
  00235	c1 f9 04	 sar	 ecx, 4
  00238	89 7d b8	 mov	 DWORD PTR _i$533107[ebp], edi
  0023b	85 c9		 test	 ecx, ecx
  0023d	74 30		 je	 SHORT $LN160@GetSearchT
$LL11@GetSearchT:

; 1045 : 		{
; 1046 : 			const ioHashString& stTargetedName = m_vTargetedChar[i];
; 1047 : 			if( pChar->GetCharName() == stTargetedName )

  0023f	8b 4d ac	 mov	 ecx, DWORD PTR tv978[ebp]
  00242	03 c7		 add	 eax, edi
  00244	50		 push	 eax
  00245	ff 15 00 00 00
	00		 call	 DWORD PTR __imp_??8ioHashString@@QBE_NABV0@@Z
  0024b	84 c0		 test	 al, al
  0024d	0f 85 20 02 00
	00		 jne	 $LN25@GetSearchT

; 1034 : 			{				
; 1035 : 				bPass = true;
; 1036 : 				break;
; 1037 : 			}
; 1038 : 		}
; 1039 : 
; 1040 : 		if( bPass )
; 1041 : 			continue;
; 1042 : 
; 1043 : 		bPass = false;
; 1044 : 		for( size_t i = 0; i < m_vTargetedChar.size(); i++ )

  00253	8b 83 18 0b 00
	00		 mov	 eax, DWORD PTR [ebx+2840]
  00259	8b 8b 1c 0b 00
	00		 mov	 ecx, DWORD PTR [ebx+2844]
  0025f	ff 45 b8	 inc	 DWORD PTR _i$533107[ebp]
  00262	2b c8		 sub	 ecx, eax
  00264	c1 f9 04	 sar	 ecx, 4
  00267	83 c7 10	 add	 edi, 16			; 00000010H
  0026a	39 4d b8	 cmp	 DWORD PTR _i$533107[ebp], ecx
  0026d	72 d0		 jb	 SHORT $LL11@GetSearchT
$LN160@GetSearchT:

; 1048 : 			{
; 1049 : 				bPass = true;
; 1050 : 				break;
; 1051 : 			}
; 1052 : 		}
; 1053 : 
; 1054 : 		if( bPass )
; 1055 : 			continue;
; 1056 : 
; 1057 : 		D3DXVECTOR3 vTargetPos = pChar->GetWorldPosition();

  0026f	8b 06		 mov	 eax, DWORD PTR [esi]
  00271	8b ce		 mov	 ecx, esi
  00273	ff 50 70	 call	 DWORD PTR [eax+112]

; 1058 : 		vTargetPos.y = 0.f;
; 1059 : 
; 1060 : 		vDiff = vCurPos - vTargetPos;

  00276	f3 0f 10 85 64
	ff ff ff	 movss	 xmm0, DWORD PTR _vCurPos$[ebp]
  0027e	f3 0f 10 95 6c
	ff ff ff	 movss	 xmm2, DWORD PTR _vCurPos$[ebp+8]
  00286	8b f0		 mov	 esi, eax
  00288	8d bd 70 ff ff
	ff		 lea	 edi, DWORD PTR _vTargetPos$533114[ebp]
  0028e	a5		 movsd
  0028f	a5		 movsd
  00290	0f 5a c0	 cvtps2pd xmm0, xmm0
  00293	a5		 movsd
  00294	f3 0f 10 8d 70
	ff ff ff	 movss	 xmm1, DWORD PTR _vTargetPos$533114[ebp]
  0029c	f3 0f 10 9d 78
	ff ff ff	 movss	 xmm3, DWORD PTR _vTargetPos$533114[ebp+8]
  002a4	0f 5a c9	 cvtps2pd xmm1, xmm1
  002a7	f2 0f 5c c1	 subsd	 xmm0, xmm1
  002ab	0f 57 c9	 xorps	 xmm1, xmm1
  002ae	f2 0f 5a c8	 cvtsd2ss xmm1, xmm0
  002b2	0f 57 c0	 xorps	 xmm0, xmm0
  002b5	f2 0f 5c c0	 subsd	 xmm0, xmm0
  002b9	66 0f 5a c0	 cvtpd2ps xmm0, xmm0

; 1061 : 		float fDiffRangeSq = D3DXVec3LengthSq( &vDiff );

  002bd	f3 0f 5a c0	 cvtss2sd xmm0, xmm0
  002c1	0f 5a d2	 cvtps2pd xmm2, xmm2
  002c4	f2 0f 59 c0	 mulsd	 xmm0, xmm0
  002c8	0f 5a db	 cvtps2pd xmm3, xmm3
  002cb	f2 0f 5c d3	 subsd	 xmm2, xmm3
  002cf	0f 5a c9	 cvtps2pd xmm1, xmm1
  002d2	f2 0f 5a d2	 cvtsd2ss xmm2, xmm2
  002d6	f2 0f 59 c9	 mulsd	 xmm1, xmm1
  002da	f2 0f 58 c8	 addsd	 xmm1, xmm0
  002de	f3 0f 5a d2	 cvtss2sd xmm2, xmm2
  002e2	f2 0f 59 d2	 mulsd	 xmm2, xmm2
  002e6	f2 0f 58 ca	 addsd	 xmm1, xmm2
  002ea	66 0f 5a c1	 cvtpd2ps xmm0, xmm1

; 1062 : 
; 1063 : 		//  
; 1064 : 		if( m_fSensingAngle != 0.0f )

  002ee	8d 85 7c ff ff
	ff		 lea	 eax, DWORD PTR $T537738[ebp]
  002f4	f3 0f 11 45 80	 movss	 DWORD PTR _fDiffRangeSq$533116[ebp], xmm0
  002f9	0f 57 c0	 xorps	 xmm0, xmm0
  002fc	50		 push	 eax
  002fd	8d 8b bc 08 00
	00		 lea	 ecx, DWORD PTR [ebx+2236]
  00303	f3 0f 11 85 7c
	ff ff ff	 movss	 DWORD PTR $T537738[ebp], xmm0
  0030b	e8 00 00 00 00	 call	 ??9?$CEncrypt@M@@QAE_NABM@Z ; CEncrypt<float>::operator!=
  00310	84 c0		 test	 al, al
  00312	0f 84 0a 01 00
	00		 je	 $LN5@GetSearchT

; 1065 : 		{
; 1066 : 			D3DXQUATERNION qtRot = GetWorldOrientation();

  00318	8b 03		 mov	 eax, DWORD PTR [ebx]
  0031a	8b cb		 mov	 ecx, ebx
  0031c	ff 50 74	 call	 DWORD PTR [eax+116]

; 1067 : 			D3DXVECTOR3 vDir = qtRot * D3DXVECTOR3( 0.0f, 0.0f, -1.0f );

  0031f	0f 57 c0	 xorps	 xmm0, xmm0
  00322	8b f0		 mov	 esi, eax
  00324	8d bd 54 ff ff
	ff		 lea	 edi, DWORD PTR _qtRot$533119[ebp]
  0032a	a5		 movsd
  0032b	a5		 movsd
  0032c	8d 45 d8	 lea	 eax, DWORD PTR $T533121[ebp]
  0032f	50		 push	 eax
  00330	8d 85 54 ff ff
	ff		 lea	 eax, DWORD PTR _qtRot$533119[ebp]
  00336	a5		 movsd
  00337	50		 push	 eax
  00338	8d 45 cc	 lea	 eax, DWORD PTR _vDir$533120[ebp]
  0033b	f3 0f 11 45 d8	 movss	 DWORD PTR $T533121[ebp], xmm0
  00340	f3 0f 11 45 dc	 movss	 DWORD PTR $T533121[ebp+4], xmm0
  00345	f3 0f 10 05 00
	00 00 00	 movss	 xmm0, DWORD PTR __real@bf800000
  0034d	50		 push	 eax
  0034e	a5		 movsd
  0034f	f3 0f 11 45 e0	 movss	 DWORD PTR $T533121[ebp+8], xmm0
  00354	ff 15 00 00 00
	00		 call	 DWORD PTR __imp_??D@YA?AUD3DXVECTOR3@@ABUD3DXQUATERNION@@ABU0@@Z

; 1068 : 
; 1069 : 			D3DXVECTOR3 vDiff2 = vTargetPos - GetWorldPosition();

  0035a	8b 03		 mov	 eax, DWORD PTR [ebx]
  0035c	83 c4 0c	 add	 esp, 12			; 0000000cH
  0035f	8b cb		 mov	 ecx, ebx
  00361	ff 50 70	 call	 DWORD PTR [eax+112]
  00364	f3 0f 10 08	 movss	 xmm1, DWORD PTR [eax]
  00368	f3 0f 10 85 70
	ff ff ff	 movss	 xmm0, DWORD PTR _vTargetPos$533114[ebp]
  00370	f3 0f 10 58 08	 movss	 xmm3, DWORD PTR [eax+8]
  00375	0f 57 d2	 xorps	 xmm2, xmm2
  00378	0f 5a c9	 cvtps2pd xmm1, xmm1
  0037b	0f 5a c0	 cvtps2pd xmm0, xmm0
  0037e	f2 0f 5c c1	 subsd	 xmm0, xmm1
  00382	f3 0f 10 48 04	 movss	 xmm1, DWORD PTR [eax+4]
  00387	0f 5a c9	 cvtps2pd xmm1, xmm1
  0038a	f2 0f 5c d1	 subsd	 xmm2, xmm1
  0038e	0f 57 c9	 xorps	 xmm1, xmm1
  00391	66 0f 5a ca	 cvtpd2ps xmm1, xmm2
  00395	f3 0f 10 95 78
	ff ff ff	 movss	 xmm2, DWORD PTR _vTargetPos$533114[ebp+8]

; 1070 : 			D3DXVec3Normalize( &vDiff2, &vDiff2 );

  0039d	8d 45 e4	 lea	 eax, DWORD PTR _vDiff2$533123[ebp]
  003a0	0f 5a d2	 cvtps2pd xmm2, xmm2
  003a3	0f 5a db	 cvtps2pd xmm3, xmm3
  003a6	50		 push	 eax
  003a7	f2 0f 5c d3	 subsd	 xmm2, xmm3
  003ab	f2 0f 5a c0	 cvtsd2ss xmm0, xmm0
  003af	f2 0f 5a d2	 cvtsd2ss xmm2, xmm2
  003b3	50		 push	 eax
  003b4	f3 0f 11 45 e4	 movss	 DWORD PTR _vDiff2$533123[ebp], xmm0
  003b9	f3 0f 11 4d e8	 movss	 DWORD PTR _vDiff2$533123[ebp+4], xmm1
  003be	f3 0f 11 55 ec	 movss	 DWORD PTR _vDiff2$533123[ebp+8], xmm2
  003c3	e8 00 00 00 00	 call	 _D3DXVec3Normalize@8

; 1071 : 
; 1072 : 			float fCurValue = D3DXVec3Dot( &vDir, &vDiff2 );

  003c8	f3 0f 10 4d e8	 movss	 xmm1, DWORD PTR _vDiff2$533123[ebp+4]
  003cd	f3 0f 10 45 d0	 movss	 xmm0, DWORD PTR _vDir$533120[ebp+4]
  003d2	f3 0f 10 55 cc	 movss	 xmm2, DWORD PTR _vDir$533120[ebp]
  003d7	0f 5a c9	 cvtps2pd xmm1, xmm1
  003da	0f 5a c0	 cvtps2pd xmm0, xmm0
  003dd	f2 0f 59 c1	 mulsd	 xmm0, xmm1
  003e1	f3 0f 10 4d e4	 movss	 xmm1, DWORD PTR _vDiff2$533123[ebp]
  003e6	0f 5a c9	 cvtps2pd xmm1, xmm1
  003e9	0f 5a d2	 cvtps2pd xmm2, xmm2
  003ec	f2 0f 59 ca	 mulsd	 xmm1, xmm2
  003f0	f3 0f 10 55 ec	 movss	 xmm2, DWORD PTR _vDiff2$533123[ebp+8]
  003f5	f2 0f 58 c1	 addsd	 xmm0, xmm1
  003f9	f3 0f 10 4d d4	 movss	 xmm1, DWORD PTR _vDir$533120[ebp+8]
  003fe	0f 5a c9	 cvtps2pd xmm1, xmm1
  00401	0f 5a d2	 cvtps2pd xmm2, xmm2
  00404	f2 0f 59 ca	 mulsd	 xmm1, xmm2
  00408	f2 0f 58 c1	 addsd	 xmm0, xmm1

; 1073 : 			if( fCurValue < fHalfValue )

  0040c	f3 0f 10 4d 8c	 movss	 xmm1, DWORD PTR _fHalfValue$[ebp]
  00411	66 0f 5a c0	 cvtpd2ps xmm0, xmm0
  00415	f3 0f 5a c0	 cvtss2sd xmm0, xmm0
  00419	0f 5a c9	 cvtps2pd xmm1, xmm1
  0041c	66 0f 2f c8	 comisd	 xmm1, xmm0
  00420	77 51		 ja	 SHORT $LN25@GetSearchT
$LN5@GetSearchT:

; 1074 : 				continue;
; 1075 : 		}
; 1076 : 
; 1077 : 		//  
; 1078 : 		if( fDiffRangeSq < fSensingRangeSq )

  00422	f3 0f 10 4d 80	 movss	 xmm1, DWORD PTR _fDiffRangeSq$533116[ebp]
  00427	f3 0f 10 55 c0	 movss	 xmm2, DWORD PTR _fSensingRangeSq$[ebp]
  0042c	0f 57 c0	 xorps	 xmm0, xmm0
  0042f	0f 5a c1	 cvtps2pd xmm0, xmm1
  00432	0f 5a d2	 cvtps2pd xmm2, xmm2
  00435	66 0f 2f d0	 comisd	 xmm2, xmm0
  00439	76 38		 jbe	 SHORT $LN25@GetSearchT

; 1079 : 		{
; 1080 : 			if( fCurGap == -1.0f )

  0043b	f3 0f 10 45 b4	 movss	 xmm0, DWORD PTR _fCurGap$[ebp]
  00440	0f 2e 05 00 00
	00 00		 ucomiss xmm0, DWORD PTR __real@bf800000
  00447	9f		 lahf
  00448	f6 c4 44	 test	 ah, 68			; 00000044H

; 1081 : 			{
; 1082 : 				fCurGap = fDiffRangeSq;
; 1083 : 				szTarget = pChar->GetCharName();

  0044b	7b 15		 jnp	 SHORT $LN167@GetSearchT

; 1084 : 			}
; 1085 : 			else if( fCurGap >= 0.0f && fDiffRangeSq < fCurGap )

  0044d	0f 2f 05 00 00
	00 00		 comiss	 xmm0, DWORD PTR __real@00000000
  00454	72 1d		 jb	 SHORT $LN25@GetSearchT
  00456	0f 5a d1	 cvtps2pd xmm2, xmm1
  00459	0f 5a c0	 cvtps2pd xmm0, xmm0
  0045c	66 0f 2f c2	 comisd	 xmm0, xmm2
  00460	76 11		 jbe	 SHORT $LN25@GetSearchT
$LN167@GetSearchT:

; 1086 : 			{
; 1087 : 				fCurGap = fDiffRangeSq;
; 1088 : 				szTarget = pChar->GetCharName();

  00462	ff 75 ac	 push	 DWORD PTR tv978[ebp]
  00465	8d 4d 98	 lea	 ecx, DWORD PTR _szTarget$[ebp]
  00468	f3 0f 11 4d b4	 movss	 DWORD PTR _fCurGap$[ebp], xmm1
  0046d	ff 15 00 00 00
	00		 call	 DWORD PTR __imp_??4ioHashString@@QAEAAV0@ABV0@@Z
$LN25@GetSearchT:

; 1004 : 
; 1005 : 	// Char Check
; 1006 : 	const BaseCharList &rkCharList = pStage->GetBaseCharList();
; 1007 : 	BaseCharList::const_iterator iter;
; 1008 : 
; 1009 : 	float fCurGap = -1.0f;
; 1010 : 	for( iter=rkCharList.begin() ; iter!=rkCharList.end() ; ++iter )

  00473	8b 45 c8	 mov	 eax, DWORD PTR _iter$[ebp]
  00476	8b 4d b0	 mov	 ecx, DWORD PTR _pStage$GSCopy$[ebp]
  00479	83 c0 04	 add	 eax, 4
$LN165@GetSearchT:
  0047c	89 45 c8	 mov	 DWORD PTR _iter$[ebp], eax
  0047f	3b 41 30	 cmp	 eax, DWORD PTR [ecx+48]
  00482	0f 85 c8 fc ff
	ff		 jne	 $LL63@GetSearchT

; 1089 : 			}
; 1090 : 		}
; 1091 : 	}
; 1092 : 
; 1093 : 	return szTarget;

  00488	8b 4d a8	 mov	 ecx, DWORD PTR ___$ReturnUdt$GSCopy$[ebp]
  0048b	8d 45 98	 lea	 eax, DWORD PTR _szTarget$[ebp]
  0048e	50		 push	 eax
  0048f	ff 15 00 00 00
	00		 call	 DWORD PTR __imp_??0ioHashString@@QAE@ABV0@@Z
  00495	8d 4d 98	 lea	 ecx, DWORD PTR _szTarget$[ebp]
  00498	c7 45 bc 01 00
	00 00		 mov	 DWORD PTR $T537741[ebp], 1
  0049f	c6 45 fc 00	 mov	 BYTE PTR __$EHRec$[ebp+8], 0
  004a3	ff 15 00 00 00
	00		 call	 DWORD PTR __imp_??1ioHashString@@QAE@XZ
  004a9	8b 45 a8	 mov	 eax, DWORD PTR ___$ReturnUdt$GSCopy$[ebp]
$LN32@GetSearchT:

; 1094 : }

  004ac	e8 00 00 00 00	 call	 __EH_epilog3_GS
  004b1	c2 0c 00	 ret	 12			; 0000000cH
_TEXT	ENDS
;	COMDAT text$x
text$x	SEGMENT
__unwindfunclet$?GetSearchTarget@ioTargetTrace13Dummy@@IAE?AVioHashString@@PAVioPlayStage@@_N@Z$0:
  00000	8d 4d 98	 lea	 ecx, DWORD PTR _szTarget$[ebp]
  00003	ff 25 00 00 00
	00		 jmp	 DWORD PTR __imp_??1ioHashString@@QAE@XZ
__unwindfunclet$?GetSearchTarget@ioTargetTrace13Dummy@@IAE?AVioHashString@@PAVioPlayStage@@_N@Z$1:
  00009	8b 45 bc	 mov	 eax, DWORD PTR $T537741[ebp]
  0000c	83 e0 01	 and	 eax, 1
  0000f	0f 84 0d 00 00
	00		 je	 $LN36@GetSearchT
  00015	83 65 bc fe	 and	 DWORD PTR $T537741[ebp], -2 ; fffffffeH
  00019	8b 4d a8	 mov	 ecx, DWORD PTR ___$ReturnUdt$GSCopy$[ebp]
  0001c	ff 25 00 00 00
	00		 jmp	 DWORD PTR __imp_??1ioHashString@@QAE@XZ
$LN36@GetSearchT:
  00022	c3		 ret	 0
__ehhandler$?GetSearchTarget@ioTargetTrace13Dummy@@IAE?AVioHashString@@PAVioPlayStage@@_N@Z:
  00023	8b 54 24 08	 mov	 edx, DWORD PTR [esp+8]
  00027	8d 42 0c	 lea	 eax, DWORD PTR [edx+12]
  0002a	8b 8a 50 ff ff
	ff		 mov	 ecx, DWORD PTR [edx-176]
  00030	33 c8		 xor	 ecx, eax
  00032	e8 00 00 00 00	 call	 @__security_check_cookie@4
  00037	8b 4a fc	 mov	 ecx, DWORD PTR [edx-4]
  0003a	33 c8		 xor	 ecx, eax
  0003c	e8 00 00 00 00	 call	 @__security_check_cookie@4
  00041	b8 00 00 00 00	 mov	 eax, OFFSET __ehfuncinfo$?GetSearchTarget@ioTargetTrace13Dummy@@IAE?AVioHashString@@PAVioPlayStage@@_N@Z
  00046	e9 00 00 00 00	 jmp	 ___CxxFrameHandler3
text$x	ENDS
?GetSearchTarget@ioTargetTrace13Dummy@@IAE?AVioHashString@@PAVioPlayStage@@_N@Z ENDP ; ioTargetTrace13Dummy::GetSearchTarget
PUBLIC	__real@4082c00000000000
PUBLIC	?OnProcessTraceJumpAttack@ioTargetTrace13Dummy@@IAEXPAVioPlayStage@@M@Z ; ioTargetTrace13Dummy::OnProcessTraceJumpAttack
EXTRN	?SetJumpAttackState@ioDummyChar@@IAEXXZ:PROC	; ioDummyChar::SetJumpAttackState
EXTRN	?FindAttackTheTarget@ioDummyChar@@IAEXABVioHashString@@@Z:PROC ; ioDummyChar::FindAttackTheTarget
;	COMDAT __real@4082c00000000000
; File d:\lost saga for developer\youtube\tutorial\source\src\lsclient\encryptvalue.h
CONST	SEGMENT
__real@4082c00000000000 DQ 04082c00000000000r	; 600
CONST	ENDS
;	COMDAT xdata$x
xdata$x	SEGMENT
__unwindtable$?OnProcessTraceJumpAttack@ioTargetTrace13Dummy@@IAEXPAVioPlayStage@@M@Z DD 0ffffffffH
	DD	FLAT:__unwindfunclet$?OnProcessTraceJumpAttack@ioTargetTrace13Dummy@@IAEXPAVioPlayStage@@M@Z$0
__ehfuncinfo$?OnProcessTraceJumpAttack@ioTargetTrace13Dummy@@IAEXPAVioPlayStage@@M@Z DD 019930522H
	DD	01H
	DD	FLAT:__unwindtable$?OnProcessTraceJumpAttack@ioTargetTrace13Dummy@@IAEXPAVioPlayStage@@M@Z
	DD	2 DUP(00H)
	DD	2 DUP(00H)
	DD	00H
	DD	01H
; Function compile flags: /Ogsp
; File d:\lost saga for developer\youtube\tutorial\source\src\lsclient\iotargettrace13dummy.cpp
xdata$x	ENDS
;	COMDAT ?OnProcessTraceJumpAttack@ioTargetTrace13Dummy@@IAEXPAVioPlayStage@@M@Z
_TEXT	SEGMENT
_szTargetName$ = -36					; size = 16
_value$538044 = -20					; size = 4
_value$538040 = -16					; size = 4
__$EHRec$ = -12						; size = 12
_pStage$ = 8						; size = 4
_fTimePerSec$ = 12					; size = 4
?OnProcessTraceJumpAttack@ioTargetTrace13Dummy@@IAEXPAVioPlayStage@@M@Z PROC ; ioTargetTrace13Dummy::OnProcessTraceJumpAttack, COMDAT
; _this$ = ecx

; 1098 : {

  00000	6a 18		 push	 24			; 00000018H
  00002	b8 00 00 00 00	 mov	 eax, __ehhandler$?OnProcessTraceJumpAttack@ioTargetTrace13Dummy@@IAEXPAVioPlayStage@@M@Z
  00007	e8 00 00 00 00	 call	 __EH_prolog3
  0000c	8b f1		 mov	 esi, ecx

; 1099 : 	if ( !pStage )

  0000e	83 7d 08 00	 cmp	 DWORD PTR _pStage$[ebp], 0
  00012	74 6a		 je	 SHORT $LN2@OnProcessT@2

; 1100 : 		return;
; 1101 : 	m_fSensingRange = JUMP_RANGE * (float)m_fJumpAttackRate;

  00014	8d 45 f0	 lea	 eax, DWORD PTR _value$538040[ebp]
  00017	50		 push	 eax
  00018	8d 8e 44 12 00
	00		 lea	 ecx, DWORD PTR [esi+4676]
  0001e	e8 00 00 00 00	 call	 ?DecryptValueToPool@?$CEncrypt@M@@QAEXPAM@Z ; CEncrypt<float>::DecryptValueToPool
  00023	f3 0f 10 45 f0	 movss	 xmm0, DWORD PTR _value$538040[ebp]
  00028	0f 5a c0	 cvtps2pd xmm0, xmm0
  0002b	f2 0f 59 05 00
	00 00 00	 mulsd	 xmm0, QWORD PTR __real@4082c00000000000
  00033	8d 45 ec	 lea	 eax, DWORD PTR _value$538044[ebp]
  00036	66 0f 5a c0	 cvtpd2ps xmm0, xmm0
  0003a	50		 push	 eax
  0003b	8d 8e 5c 08 00
	00		 lea	 ecx, DWORD PTR [esi+2140]
  00041	f3 0f 11 45 ec	 movss	 DWORD PTR _value$538044[ebp], xmm0
  00046	e8 00 00 00 00	 call	 ?EncryptValueToPool@?$CEncrypt@M@@AAEXPBD@Z ; CEncrypt<float>::EncryptValueToPool

; 1102 : 	ioHashString szTargetName = GetSearchTarget( pStage, false );

  0004b	6a 00		 push	 0
  0004d	ff 75 08	 push	 DWORD PTR _pStage$[ebp]
  00050	8d 45 dc	 lea	 eax, DWORD PTR _szTargetName$[ebp]
  00053	50		 push	 eax
  00054	8b ce		 mov	 ecx, esi
  00056	e8 00 00 00 00	 call	 ?GetSearchTarget@ioTargetTrace13Dummy@@IAE?AVioHashString@@PAVioPlayStage@@_N@Z ; ioTargetTrace13Dummy::GetSearchTarget
  0005b	83 65 fc 00	 and	 DWORD PTR __$EHRec$[ebp+8], 0

; 1103 : 	FindAttackTheTarget( szTargetName );

  0005f	8d 45 dc	 lea	 eax, DWORD PTR _szTargetName$[ebp]
  00062	50		 push	 eax
  00063	8b ce		 mov	 ecx, esi
  00065	e8 00 00 00 00	 call	 ?FindAttackTheTarget@ioDummyChar@@IAEXABVioHashString@@@Z ; ioDummyChar::FindAttackTheTarget

; 1104 : 	SetJumpAttackState();

  0006a	8b ce		 mov	 ecx, esi
  0006c	e8 00 00 00 00	 call	 ?SetJumpAttackState@ioDummyChar@@IAEXXZ ; ioDummyChar::SetJumpAttackState

; 1105 : }

  00071	83 4d fc ff	 or	 DWORD PTR __$EHRec$[ebp+8], -1
  00075	8d 4d dc	 lea	 ecx, DWORD PTR _szTargetName$[ebp]
  00078	ff 15 00 00 00
	00		 call	 DWORD PTR __imp_??1ioHashString@@QAE@XZ
$LN2@OnProcessT@2:
  0007e	e8 00 00 00 00	 call	 __EH_epilog3
  00083	c2 08 00	 ret	 8
_TEXT	ENDS
;	COMDAT text$x
text$x	SEGMENT
__unwindfunclet$?OnProcessTraceJumpAttack@ioTargetTrace13Dummy@@IAEXPAVioPlayStage@@M@Z$0:
  00000	8d 4d dc	 lea	 ecx, DWORD PTR _szTargetName$[ebp]
  00003	ff 25 00 00 00
	00		 jmp	 DWORD PTR __imp_??1ioHashString@@QAE@XZ
__ehhandler$?OnProcessTraceJumpAttack@ioTargetTrace13Dummy@@IAEXPAVioPlayStage@@M@Z:
  00009	8b 54 24 08	 mov	 edx, DWORD PTR [esp+8]
  0000d	8d 42 0c	 lea	 eax, DWORD PTR [edx+12]
  00010	8b 4a d8	 mov	 ecx, DWORD PTR [edx-40]
  00013	33 c8		 xor	 ecx, eax
  00015	e8 00 00 00 00	 call	 @__security_check_cookie@4
  0001a	b8 00 00 00 00	 mov	 eax, OFFSET __ehfuncinfo$?OnProcessTraceJumpAttack@ioTargetTrace13Dummy@@IAEXPAVioPlayStage@@M@Z
  0001f	e9 00 00 00 00	 jmp	 ___CxxFrameHandler3
text$x	ENDS
?OnProcessTraceJumpAttack@ioTargetTrace13Dummy@@IAEXPAVioPlayStage@@M@Z ENDP ; ioTargetTrace13Dummy::OnProcessTraceJumpAttack
PUBLIC	?begin@?$list@UFireTime@@V?$allocator@UFireTime@@@std@@@std@@QAE?AV?$_List_iterator@V?$_List_val@UFireTime@@V?$allocator@UFireTime@@@std@@@std@@@2@XZ ; std::list<FireTime,std::allocator<FireTime> >::begin
; Function compile flags: /Ogsp
; File c:\program files (x86)\microsoft visual studio 10.0\vc\include\list
;	COMDAT ?begin@?$list@UFireTime@@V?$allocator@UFireTime@@@std@@@std@@QAE?AV?$_List_iterator@V?$_List_val@UFireTime@@V?$allocator@UFireTime@@@std@@@std@@@2@XZ
_TEXT	SEGMENT
___$ReturnUdt$ = 8					; size = 4
?begin@?$list@UFireTime@@V?$allocator@UFireTime@@@std@@@std@@QAE?AV?$_List_iterator@V?$_List_val@UFireTime@@V?$allocator@UFireTime@@@std@@@std@@@2@XZ PROC ; std::list<FireTime,std::allocator<FireTime> >::begin, COMDAT
; _this$ = ecx

; 781  : 		{	// return iterator for beginning of mutable sequence

  00000	55		 push	 ebp
  00001	8b ec		 mov	 ebp, esp

; 782  : 		return (iterator(this->_Nextnode(this->_Myhead), this));

  00003	8b 01		 mov	 eax, DWORD PTR [ecx]
  00005	8b 08		 mov	 ecx, DWORD PTR [eax]
  00007	8b 45 08	 mov	 eax, DWORD PTR ___$ReturnUdt$[ebp]
  0000a	89 08		 mov	 DWORD PTR [eax], ecx

; 783  : 		}

  0000c	5d		 pop	 ebp
  0000d	c2 04 00	 ret	 4
?begin@?$list@UFireTime@@V?$allocator@UFireTime@@@std@@@std@@QAE?AV?$_List_iterator@V?$_List_val@UFireTime@@V?$allocator@UFireTime@@@std@@@std@@@2@XZ ENDP ; std::list<FireTime,std::allocator<FireTime> >::begin
_TEXT	ENDS
PUBLIC	?end@?$list@UFireTime@@V?$allocator@UFireTime@@@std@@@std@@QAE?AV?$_List_iterator@V?$_List_val@UFireTime@@V?$allocator@UFireTime@@@std@@@std@@@2@XZ ; std::list<FireTime,std::allocator<FireTime> >::end
; Function compile flags: /Ogsp
;	COMDAT ?end@?$list@UFireTime@@V?$allocator@UFireTime@@@std@@@std@@QAE?AV?$_List_iterator@V?$_List_val@UFireTime@@V?$allocator@UFireTime@@@std@@@std@@@2@XZ
_TEXT	SEGMENT
___$ReturnUdt$ = 8					; size = 4
?end@?$list@UFireTime@@V?$allocator@UFireTime@@@std@@@std@@QAE?AV?$_List_iterator@V?$_List_val@UFireTime@@V?$allocator@UFireTime@@@std@@@std@@@2@XZ PROC ; std::list<FireTime,std::allocator<FireTime> >::end, COMDAT
; _this$ = ecx

; 791  : 		{	// return iterator for end of mutable sequence

  00000	55		 push	 ebp
  00001	8b ec		 mov	 ebp, esp

; 792  : 		return (iterator(this->_Myhead, this));

  00003	8b 09		 mov	 ecx, DWORD PTR [ecx]
  00005	8b 45 08	 mov	 eax, DWORD PTR ___$ReturnUdt$[ebp]
  00008	89 08		 mov	 DWORD PTR [eax], ecx

; 793  : 		}

  0000a	5d		 pop	 ebp
  0000b	c2 04 00	 ret	 4
?end@?$list@UFireTime@@V?$allocator@UFireTime@@@std@@@std@@QAE?AV?$_List_iterator@V?$_List_val@UFireTime@@V?$allocator@UFireTime@@@std@@@std@@@2@XZ ENDP ; std::list<FireTime,std::allocator<FireTime> >::end
_TEXT	ENDS
PUBLIC	?_Make_iter@?$list@UFireTime@@V?$allocator@UFireTime@@@std@@@std@@QBE?AV?$_List_iterator@V?$_List_val@UFireTime@@V?$allocator@UFireTime@@@std@@@std@@@2@V?$_List_const_iterator@V?$_List_val@UFireTime@@V?$allocator@UFireTime@@@std@@@std@@@2@@Z ; std::list<FireTime,std::allocator<FireTime> >::_Make_iter
; Function compile flags: /Ogsp
;	COMDAT ?_Make_iter@?$list@UFireTime@@V?$allocator@UFireTime@@@std@@@std@@QBE?AV?$_List_iterator@V?$_List_val@UFireTime@@V?$allocator@UFireTime@@@std@@@std@@@2@V?$_List_const_iterator@V?$_List_val@UFireTime@@V?$allocator@UFireTime@@@std@@@std@@@2@@Z
_TEXT	SEGMENT
___$ReturnUdt$ = 8					; size = 4
__Where$ = 12						; size = 4
?_Make_iter@?$list@UFireTime@@V?$allocator@UFireTime@@@std@@@std@@QBE?AV?$_List_iterator@V?$_List_val@UFireTime@@V?$allocator@UFireTime@@@std@@@std@@@2@V?$_List_const_iterator@V?$_List_val@UFireTime@@V?$allocator@UFireTime@@@std@@@std@@@2@@Z PROC ; std::list<FireTime,std::allocator<FireTime> >::_Make_iter, COMDAT
; _this$ = ecx

; 801  : 		{	// make iterator from const_iterator

  00000	55		 push	 ebp
  00001	8b ec		 mov	 ebp, esp

; 802  : 		return (iterator(_Where._Ptr, this));

  00003	8b 45 08	 mov	 eax, DWORD PTR ___$ReturnUdt$[ebp]
  00006	8b 4d 0c	 mov	 ecx, DWORD PTR __Where$[ebp]
  00009	89 08		 mov	 DWORD PTR [eax], ecx

; 803  : 		}

  0000b	5d		 pop	 ebp
  0000c	c2 08 00	 ret	 8
?_Make_iter@?$list@UFireTime@@V?$allocator@UFireTime@@@std@@@std@@QBE?AV?$_List_iterator@V?$_List_val@UFireTime@@V?$allocator@UFireTime@@@std@@@std@@@2@V?$_List_const_iterator@V?$_List_val@UFireTime@@V?$allocator@UFireTime@@@std@@@std@@@2@@Z ENDP ; std::list<FireTime,std::allocator<FireTime> >::_Make_iter
_TEXT	ENDS
PUBLIC	??$_Cons_val@V?$allocator@UDummyTT13AttackInfo@@@std@@UDummyTT13AttackInfo@@ABU3@@std@@YAXAAV?$allocator@UDummyTT13AttackInfo@@@0@PAUDummyTT13AttackInfo@@ABU2@@Z ; std::_Cons_val<std::allocator<DummyTT13AttackInfo>,DummyTT13AttackInfo,DummyTT13AttackInfo const &>
; Function compile flags: /Ogsp
; File c:\program files (x86)\microsoft visual studio 10.0\vc\include\xmemory
;	COMDAT ??$_Cons_val@V?$allocator@UDummyTT13AttackInfo@@@std@@UDummyTT13AttackInfo@@ABU3@@std@@YAXAAV?$allocator@UDummyTT13AttackInfo@@@0@PAUDummyTT13AttackInfo@@ABU2@@Z
_TEXT	SEGMENT
__Alval$ = 8						; size = 4
__Pdest$ = 12						; size = 4
__Src$ = 16						; size = 4
??$_Cons_val@V?$allocator@UDummyTT13AttackInfo@@@std@@UDummyTT13AttackInfo@@ABU3@@std@@YAXAAV?$allocator@UDummyTT13AttackInfo@@@0@PAUDummyTT13AttackInfo@@ABU2@@Z PROC ; std::_Cons_val<std::allocator<DummyTT13AttackInfo>,DummyTT13AttackInfo,DummyTT13AttackInfo const &>, COMDAT

; 279  : 	{	// construct using allocator

  00000	55		 push	 ebp
  00001	8b ec		 mov	 ebp, esp

; 280  : 	_Alval.construct(_Pdest, _STD forward<_Ty2>(_Src));

  00003	ff 75 10	 push	 DWORD PTR __Src$[ebp]
  00006	ff 75 0c	 push	 DWORD PTR __Pdest$[ebp]
  00009	e8 00 00 00 00	 call	 ??$_Construct@UDummyTT13AttackInfo@@ABU1@@std@@YAXPAUDummyTT13AttackInfo@@ABU1@@Z ; std::_Construct<DummyTT13AttackInfo,DummyTT13AttackInfo const &>
  0000e	59		 pop	 ecx
  0000f	59		 pop	 ecx

; 281  : 	}

  00010	5d		 pop	 ebp
  00011	c3		 ret	 0
??$_Cons_val@V?$allocator@UDummyTT13AttackInfo@@@std@@UDummyTT13AttackInfo@@ABU3@@std@@YAXAAV?$allocator@UDummyTT13AttackInfo@@@0@PAUDummyTT13AttackInfo@@ABU2@@Z ENDP ; std::_Cons_val<std::allocator<DummyTT13AttackInfo>,DummyTT13AttackInfo,DummyTT13AttackInfo const &>
_TEXT	ENDS
PUBLIC	?destroy@?$allocator@U_Node@?$_List_nod@UFireTime@@V?$allocator@UFireTime@@@std@@@std@@@std@@QAEXPAU_Node@?$_List_nod@UFireTime@@V?$allocator@UFireTime@@@std@@@2@@Z ; std::allocator<std::_List_nod<FireTime,std::allocator<FireTime> >::_Node>::destroy
; Function compile flags: /Ogsp
;	COMDAT ?destroy@?$allocator@U_Node@?$_List_nod@UFireTime@@V?$allocator@UFireTime@@@std@@@std@@@std@@QAEXPAU_Node@?$_List_nod@UFireTime@@V?$allocator@UFireTime@@@std@@@2@@Z
_TEXT	SEGMENT
__Ptr$ = 8						; size = 4
?destroy@?$allocator@U_Node@?$_List_nod@UFireTime@@V?$allocator@UFireTime@@@std@@@std@@@std@@QAEXPAU_Node@?$_List_nod@UFireTime@@V?$allocator@UFireTime@@@std@@@2@@Z PROC ; std::allocator<std::_List_nod<FireTime,std::allocator<FireTime> >::_Node>::destroy, COMDAT
; _this$ = ecx

; 212  : 		{	// destroy object at _Ptr

  00000	55		 push	 ebp
  00001	8b ec		 mov	 ebp, esp

; 213  : 		_Destroy(_Ptr);

  00003	8b 4d 08	 mov	 ecx, DWORD PTR __Ptr$[ebp]
  00006	83 c1 08	 add	 ecx, 8
  00009	e8 00 00 00 00	 call	 ??1FireTime@@QAE@XZ

; 214  : 		}

  0000e	5d		 pop	 ebp
  0000f	c2 04 00	 ret	 4
?destroy@?$allocator@U_Node@?$_List_nod@UFireTime@@V?$allocator@UFireTime@@@std@@@std@@@std@@QAEXPAU_Node@?$_List_nod@UFireTime@@V?$allocator@UFireTime@@@std@@@2@@Z ENDP ; std::allocator<std::_List_nod<FireTime,std::allocator<FireTime> >::_Node>::destroy
_TEXT	ENDS
PUBLIC	??$_Dest_val@V?$allocator@UDummyTT13AttackInfo@@@std@@UDummyTT13AttackInfo@@@std@@YAXAAV?$allocator@UDummyTT13AttackInfo@@@0@PAUDummyTT13AttackInfo@@@Z ; std::_Dest_val<std::allocator<DummyTT13AttackInfo>,DummyTT13AttackInfo>
; Function compile flags: /Ogsp
;	COMDAT ??$_Dest_val@V?$allocator@UDummyTT13AttackInfo@@@std@@UDummyTT13AttackInfo@@@std@@YAXAAV?$allocator@UDummyTT13AttackInfo@@@0@PAUDummyTT13AttackInfo@@@Z
_TEXT	SEGMENT
__Alval$ = 8						; size = 4
__Pdest$ = 12						; size = 4
??$_Dest_val@V?$allocator@UDummyTT13AttackInfo@@@std@@UDummyTT13AttackInfo@@@std@@YAXAAV?$allocator@UDummyTT13AttackInfo@@@0@PAUDummyTT13AttackInfo@@@Z PROC ; std::_Dest_val<std::allocator<DummyTT13AttackInfo>,DummyTT13AttackInfo>, COMDAT

; 286  : 	{	// destroy using allocator

  00000	55		 push	 ebp
  00001	8b ec		 mov	 ebp, esp

; 287  : 	_Alval.destroy(_Pdest);

  00003	8b 4d 0c	 mov	 ecx, DWORD PTR __Pdest$[ebp]
  00006	83 c1 08	 add	 ecx, 8

; 288  : 	}

  00009	5d		 pop	 ebp

; 287  : 	_Alval.destroy(_Pdest);

  0000a	ff 25 00 00 00
	00		 jmp	 DWORD PTR __imp_??1ioHashString@@QAE@XZ
??$_Dest_val@V?$allocator@UDummyTT13AttackInfo@@@std@@UDummyTT13AttackInfo@@@std@@YAXAAV?$allocator@UDummyTT13AttackInfo@@@0@PAUDummyTT13AttackInfo@@@Z ENDP ; std::_Dest_val<std::allocator<DummyTT13AttackInfo>,DummyTT13AttackInfo>
_TEXT	ENDS
PUBLIC	??$_Uninit_move@PAUDummyTT13AttackInfo@@PAU1@V?$allocator@UDummyTT13AttackInfo@@@std@@U1@@std@@YAPAUDummyTT13AttackInfo@@PAU1@00AAV?$allocator@UDummyTT13AttackInfo@@@0@0U_Nonscalar_ptr_iterator_tag@0@@Z ; std::_Uninit_move<DummyTT13AttackInfo *,DummyTT13AttackInfo *,std::allocator<DummyTT13AttackInfo>,DummyTT13AttackInfo>
EXTRN	__EH_prolog3_catch:PROC
;	COMDAT xdata$x
; File d:\lost saga for developer\youtube\tutorial\source\src\lsclient\iotargettrace13dummy.cpp
xdata$x	SEGMENT
__catchsym$??$_Uninit_move@PAUDummyTT13AttackInfo@@PAU1@V?$allocator@UDummyTT13AttackInfo@@@std@@U1@@std@@YAPAUDummyTT13AttackInfo@@PAU1@00AAV?$allocator@UDummyTT13AttackInfo@@@0@0U_Nonscalar_ptr_iterator_tag@0@@Z$3 DD 040H
	DD	00H
	DD	00H
	DD	FLAT:__catch$??$_Uninit_move@PAUDummyTT13AttackInfo@@PAU1@V?$allocator@UDummyTT13AttackInfo@@@std@@U1@@std@@YAPAUDummyTT13AttackInfo@@PAU1@00AAV?$allocator@UDummyTT13AttackInfo@@@0@0U_Nonscalar_ptr_iterator_tag@0@@Z$0
__unwindtable$??$_Uninit_move@PAUDummyTT13AttackInfo@@PAU1@V?$allocator@UDummyTT13AttackInfo@@@std@@U1@@std@@YAPAUDummyTT13AttackInfo@@PAU1@00AAV?$allocator@UDummyTT13AttackInfo@@@0@0U_Nonscalar_ptr_iterator_tag@0@@Z DD 0ffffffffH
	DD	00H
	DD	0ffffffffH
	DD	00H
__tryblocktable$??$_Uninit_move@PAUDummyTT13AttackInfo@@PAU1@V?$allocator@UDummyTT13AttackInfo@@@std@@U1@@std@@YAPAUDummyTT13AttackInfo@@PAU1@00AAV?$allocator@UDummyTT13AttackInfo@@@0@0U_Nonscalar_ptr_iterator_tag@0@@Z DD 00H
	DD	00H
	DD	01H
	DD	01H
	DD	FLAT:__catchsym$??$_Uninit_move@PAUDummyTT13AttackInfo@@PAU1@V?$allocator@UDummyTT13AttackInfo@@@std@@U1@@std@@YAPAUDummyTT13AttackInfo@@PAU1@00AAV?$allocator@UDummyTT13AttackInfo@@@0@0U_Nonscalar_ptr_iterator_tag@0@@Z$3
__ehfuncinfo$??$_Uninit_move@PAUDummyTT13AttackInfo@@PAU1@V?$allocator@UDummyTT13AttackInfo@@@std@@U1@@std@@YAPAUDummyTT13AttackInfo@@PAU1@00AAV?$allocator@UDummyTT13AttackInfo@@@0@0U_Nonscalar_ptr_iterator_tag@0@@Z DD 019930522H
	DD	02H
	DD	FLAT:__unwindtable$??$_Uninit_move@PAUDummyTT13AttackInfo@@PAU1@V?$allocator@UDummyTT13AttackInfo@@@std@@U1@@std@@YAPAUDummyTT13AttackInfo@@PAU1@00AAV?$allocator@UDummyTT13AttackInfo@@@0@0U_Nonscalar_ptr_iterator_tag@0@@Z
	DD	01H
	DD	FLAT:__tryblocktable$??$_Uninit_move@PAUDummyTT13AttackInfo@@PAU1@V?$allocator@UDummyTT13AttackInfo@@@std@@U1@@std@@YAPAUDummyTT13AttackInfo@@PAU1@00AAV?$allocator@UDummyTT13AttackInfo@@@0@0U_Nonscalar_ptr_iterator_tag@0@@Z
	DD	2 DUP(00H)
	DD	00H
	DD	01H
; Function compile flags: /Ogsp
; File c:\program files (x86)\microsoft visual studio 10.0\vc\include\memory
xdata$x	ENDS
;	COMDAT ??$_Uninit_move@PAUDummyTT13AttackInfo@@PAU1@V?$allocator@UDummyTT13AttackInfo@@@std@@U1@@std@@YAPAUDummyTT13AttackInfo@@PAU1@00AAV?$allocator@UDummyTT13AttackInfo@@@0@0U_Nonscalar_ptr_iterator_tag@0@@Z
_TEXT	SEGMENT
__Next$ = -20						; size = 4
__$EHRec$ = -16						; size = 16
__First$ = 8						; size = 4
__Last$ = 12						; size = 4
__Dest$ = 16						; size = 4
__Al$ = 20						; size = 4
___formal$ = 24						; size = 4
___formal$ = 28						; size = 1
??$_Uninit_move@PAUDummyTT13AttackInfo@@PAU1@V?$allocator@UDummyTT13AttackInfo@@@std@@U1@@std@@YAPAUDummyTT13AttackInfo@@PAU1@00AAV?$allocator@UDummyTT13AttackInfo@@@0@0U_Nonscalar_ptr_iterator_tag@0@@Z PROC ; std::_Uninit_move<DummyTT13AttackInfo *,DummyTT13AttackInfo *,std::allocator<DummyTT13AttackInfo>,DummyTT13AttackInfo>, COMDAT

; 424  : 	{	// move [_First, _Last) to raw _Dest, using _Al, arbitrary type

  00000	6a 08		 push	 8
  00002	b8 00 00 00 00	 mov	 eax, __ehhandler$??$_Uninit_move@PAUDummyTT13AttackInfo@@PAU1@V?$allocator@UDummyTT13AttackInfo@@@std@@U1@@std@@YAPAUDummyTT13AttackInfo@@PAU1@00AAV?$allocator@UDummyTT13AttackInfo@@@0@0U_Nonscalar_ptr_iterator_tag@0@@Z
  00007	e8 00 00 00 00	 call	 __EH_prolog3_catch

; 425  : 	_DEBUG_RANGE(_First, _Last);
; 426  : 	_DEBUG_POINTER(_Dest);
; 427  : 	_FwdIt _Next = _Dest;

  0000c	8b 45 10	 mov	 eax, DWORD PTR __Dest$[ebp]

; 428  : 
; 429  : 	_TRY_BEGIN

  0000f	83 65 fc 00	 and	 DWORD PTR __$EHRec$[ebp+12], 0
  00013	8b 75 08	 mov	 esi, DWORD PTR __First$[ebp]
  00016	89 45 ec	 mov	 DWORD PTR __Next$[ebp], eax
$LL6@Uninit_mov:

; 430  : 	for (; _First != _Last; ++_Dest, ++_First)

  00019	3b 75 0c	 cmp	 esi, DWORD PTR __Last$[ebp]
  0001c	74 37		 je	 SHORT $LN4@Uninit_mov

; 431  : 		_Cons_val(_Al, _Dest, (_Valty &&)*_First);

  0001e	56		 push	 esi
  0001f	ff 75 10	 push	 DWORD PTR __Dest$[ebp]
  00022	ff 75 14	 push	 DWORD PTR __Al$[ebp]
  00025	e8 00 00 00 00	 call	 ??$_Cons_val@V?$allocator@UDummyTT13AttackInfo@@@std@@UDummyTT13AttackInfo@@U3@@std@@YAXAAV?$allocator@UDummyTT13AttackInfo@@@0@PAUDummyTT13AttackInfo@@$$QAU2@@Z ; std::_Cons_val<std::allocator<DummyTT13AttackInfo>,DummyTT13AttackInfo,DummyTT13AttackInfo>
  0002a	83 45 10 3c	 add	 DWORD PTR __Dest$[ebp], 60 ; 0000003cH
  0002e	83 c4 0c	 add	 esp, 12			; 0000000cH
  00031	83 c6 3c	 add	 esi, 60			; 0000003cH
  00034	eb e3		 jmp	 SHORT $LL6@Uninit_mov
__catch$??$_Uninit_move@PAUDummyTT13AttackInfo@@PAU1@V?$allocator@UDummyTT13AttackInfo@@@std@@U1@@std@@YAPAUDummyTT13AttackInfo@@PAU1@00AAV?$allocator@UDummyTT13AttackInfo@@@0@0U_Nonscalar_ptr_iterator_tag@0@@Z$0:

; 432  : 	_CATCH_ALL
; 433  : 	for (; _Next != _Dest; ++_Next)

  00036	8b 75 ec	 mov	 esi, DWORD PTR __Next$[ebp]
  00039	eb 0c		 jmp	 SHORT $LN32@Uninit_mov
$LL3@Uninit_mov:

; 434  : 		_Dest_val(_Al, _Next);

  0003b	8d 4e 08	 lea	 ecx, DWORD PTR [esi+8]
  0003e	ff 15 00 00 00
	00		 call	 DWORD PTR __imp_??1ioHashString@@QAE@XZ
  00044	83 c6 3c	 add	 esi, 60			; 0000003cH
$LN32@Uninit_mov:

; 432  : 	_CATCH_ALL
; 433  : 	for (; _Next != _Dest; ++_Next)

  00047	3b 75 10	 cmp	 esi, DWORD PTR __Dest$[ebp]
  0004a	75 ef		 jne	 SHORT $LL3@Uninit_mov

; 435  : 	_RERAISE;

  0004c	6a 00		 push	 0
  0004e	6a 00		 push	 0
  00050	e8 00 00 00 00	 call	 __CxxThrowException@8
$LN33@Uninit_mov:
$LN4@Uninit_mov:

; 436  : 	_CATCH_END
; 437  : 	return (_Dest);

  00055	8b 45 10	 mov	 eax, DWORD PTR __Dest$[ebp]

; 438  : 	}

  00058	e8 00 00 00 00	 call	 __EH_epilog3
  0005d	c3		 ret	 0
$LN31@Uninit_mov:
_TEXT	ENDS
;	COMDAT text$x
text$x	SEGMENT
__ehhandler$??$_Uninit_move@PAUDummyTT13AttackInfo@@PAU1@V?$allocator@UDummyTT13AttackInfo@@@std@@U1@@std@@YAPAUDummyTT13AttackInfo@@PAU1@00AAV?$allocator@UDummyTT13AttackInfo@@@0@0U_Nonscalar_ptr_iterator_tag@0@@Z:
  00000	8b 54 24 08	 mov	 edx, DWORD PTR [esp+8]
  00004	8d 42 0c	 lea	 eax, DWORD PTR [edx+12]
  00007	8b 4a e8	 mov	 ecx, DWORD PTR [edx-24]
  0000a	33 c8		 xor	 ecx, eax
  0000c	e8 00 00 00 00	 call	 @__security_check_cookie@4
  00011	b8 00 00 00 00	 mov	 eax, OFFSET __ehfuncinfo$??$_Uninit_move@PAUDummyTT13AttackInfo@@PAU1@V?$allocator@UDummyTT13AttackInfo@@@std@@U1@@std@@YAPAUDummyTT13AttackInfo@@PAU1@00AAV?$allocator@UDummyTT13AttackInfo@@@0@0U_Nonscalar_ptr_iterator_tag@0@@Z
  00016	e9 00 00 00 00	 jmp	 ___CxxFrameHandler3
text$x	ENDS
??$_Uninit_move@PAUDummyTT13AttackInfo@@PAU1@V?$allocator@UDummyTT13AttackInfo@@@std@@U1@@std@@YAPAUDummyTT13AttackInfo@@PAU1@00AAV?$allocator@UDummyTT13AttackInfo@@@0@0U_Nonscalar_ptr_iterator_tag@0@@Z ENDP ; std::_Uninit_move<DummyTT13AttackInfo *,DummyTT13AttackInfo *,std::allocator<DummyTT13AttackInfo>,DummyTT13AttackInfo>
PUBLIC	?OnProcessTraceSensing@ioTargetTrace13Dummy@@IAEXM@Z ; ioTargetTrace13Dummy::OnProcessTraceSensing
EXTRN	?SetTracingState@ioDummyChar@@IAEXPAVioPlayStage@@_N@Z:PROC ; ioDummyChar::SetTracingState
;	COMDAT xdata$x
; File d:\lost saga for developer\youtube\tutorial\source\src\lsclient\encryptvalue.h
xdata$x	SEGMENT
__unwindtable$?OnProcessTraceSensing@ioTargetTrace13Dummy@@IAEXM@Z DD 0ffffffffH
	DD	FLAT:__unwindfunclet$?OnProcessTraceSensing@ioTargetTrace13Dummy@@IAEXM@Z$0
	DD	00H
	DD	FLAT:__unwindfunclet$?OnProcessTraceSensing@ioTargetTrace13Dummy@@IAEXM@Z$1
__ehfuncinfo$?OnProcessTraceSensing@ioTargetTrace13Dummy@@IAEXM@Z DD 019930522H
	DD	02H
	DD	FLAT:__unwindtable$?OnProcessTraceSensing@ioTargetTrace13Dummy@@IAEXM@Z
	DD	2 DUP(00H)
	DD	2 DUP(00H)
	DD	00H
	DD	01H
; Function compile flags: /Ogsp
; File d:\lost saga for developer\youtube\tutorial\source\src\lsclient\iotargettrace13dummy.cpp
xdata$x	ENDS
;	COMDAT ?OnProcessTraceSensing@ioTargetTrace13Dummy@@IAEXM@Z
_TEXT	SEGMENT
$T538261 = -52						; size = 16
_szTarget$ = -36					; size = 16
_value$538277 = -20					; size = 4
_this$ = -16						; size = 4
__$EHRec$ = -12						; size = 12
_fTimePerSec$ = 8					; size = 4
?OnProcessTraceSensing@ioTargetTrace13Dummy@@IAEXM@Z PROC ; ioTargetTrace13Dummy::OnProcessTraceSensing, COMDAT
; _this$ = ecx

; 670  : {

  00000	6a 28		 push	 40			; 00000028H
  00002	b8 00 00 00 00	 mov	 eax, __ehhandler$?OnProcessTraceSensing@ioTargetTrace13Dummy@@IAEXM@Z
  00007	e8 00 00 00 00	 call	 __EH_prolog3
  0000c	8b f1		 mov	 esi, ecx
  0000e	89 75 f0	 mov	 DWORD PTR _this$[ebp], esi

; 671  : 	ioBaseChar *pOwner = GetOwner();

  00011	e8 00 00 00 00	 call	 ?GetOwner@ioDummyChar@@QBEPAVioBaseChar@@XZ ; ioDummyChar::GetOwner

; 672  : 	if( !pOwner ) 

  00016	85 c0		 test	 eax, eax
  00018	0f 84 d8 00 00
	00		 je	 $LN7@OnProcessT@3

; 673  : 		return;
; 674  : 
; 675  : 	ioPlayStage *pStage = pOwner->GetCreator();

  0001e	8b 98 44 03 00
	00		 mov	 ebx, DWORD PTR [eax+836]

; 676  : 	if( !pStage ) 

  00024	85 db		 test	 ebx, ebx
  00026	0f 84 ca 00 00
	00		 je	 $LN7@OnProcessT@3

; 677  : 		return;
; 678  : 
; 679  : 	if( pOwner->GetExperienceMode() == EMS_EXPERIENCE )

  0002c	8d 88 94 1d 00
	00		 lea	 ecx, DWORD PTR [eax+7572]
  00032	8d 45 ec	 lea	 eax, DWORD PTR _value$538277[ebp]
  00035	50		 push	 eax
  00036	e8 00 00 00 00	 call	 ?DecryptValueToPool@?$CEncrypt@K@@QAEXPAK@Z ; CEncrypt<unsigned long>::DecryptValueToPool
  0003b	83 7d ec 02	 cmp	 DWORD PTR _value$538277[ebp], 2
  0003f	0f 84 b1 00 00
	00		 je	 $LN7@OnProcessT@3

; 680  : 		return;
; 681  : 
; 682  : 	DWORD dwCurTime = FRAMEGETTIME();

  00045	ff 15 00 00 00
	00		 call	 DWORD PTR __imp_?GetSingleton@ioFrameTimer@@SAAAV1@XZ
  0004b	8b c8		 mov	 ecx, eax
  0004d	ff 15 00 00 00
	00		 call	 DWORD PTR __imp_?GetLoopSec@ioFrameTimer@@QBEKXZ

; 683  : 
; 684  : 	if( !m_TargetTraceName.IsEmpty() )

  00053	8d 8e d8 0a 00
	00		 lea	 ecx, DWORD PTR [esi+2776]
  00059	ff 15 00 00 00
	00		 call	 DWORD PTR __imp_?IsEmpty@ioHashString@@QBE_NXZ
  0005f	84 c0		 test	 al, al
  00061	75 0c		 jne	 SHORT $LN3@OnProcessT@3

; 685  : 		m_TargetTraceName.Clear();

  00063	8d 8e d8 0a 00
	00		 lea	 ecx, DWORD PTR [esi+2776]
  00069	ff 15 00 00 00
	00		 call	 DWORD PTR __imp_?Clear@ioHashString@@QAEXXZ
$LN3@OnProcessT@3:

; 686  : 
; 687  : 	ioHashString szTarget;

  0006f	8d 4d dc	 lea	 ecx, DWORD PTR _szTarget$[ebp]
  00072	ff 15 00 00 00
	00		 call	 DWORD PTR __imp_??0ioHashString@@QAE@XZ
  00078	83 65 fc 00	 and	 DWORD PTR __$EHRec$[ebp+8], 0

; 688  : 	szTarget = GetSearchTarget( pStage, false );

  0007c	6a 00		 push	 0
  0007e	53		 push	 ebx
  0007f	8d 45 cc	 lea	 eax, DWORD PTR $T538261[ebp]
  00082	50		 push	 eax
  00083	8b ce		 mov	 ecx, esi
  00085	e8 00 00 00 00	 call	 ?GetSearchTarget@ioTargetTrace13Dummy@@IAE?AVioHashString@@PAVioPlayStage@@_N@Z ; ioTargetTrace13Dummy::GetSearchTarget
  0008a	8b 35 00 00 00
	00		 mov	 esi, DWORD PTR __imp_??4ioHashString@@QAEAAV0@ABV0@@Z
  00090	50		 push	 eax
  00091	8d 4d dc	 lea	 ecx, DWORD PTR _szTarget$[ebp]
  00094	c6 45 fc 01	 mov	 BYTE PTR __$EHRec$[ebp+8], 1
  00098	ff d6		 call	 esi
  0009a	8b 3d 00 00 00
	00		 mov	 edi, DWORD PTR __imp_??1ioHashString@@QAE@XZ
  000a0	8d 4d cc	 lea	 ecx, DWORD PTR $T538261[ebp]
  000a3	c6 45 fc 00	 mov	 BYTE PTR __$EHRec$[ebp+8], 0
  000a7	ff d7		 call	 edi

; 689  : 
; 690  : 	if( !szTarget.IsEmpty() )

  000a9	8d 4d dc	 lea	 ecx, DWORD PTR _szTarget$[ebp]
  000ac	ff 15 00 00 00
	00		 call	 DWORD PTR __imp_?IsEmpty@ioHashString@@QBE_NXZ
  000b2	84 c0		 test	 al, al
  000b4	75 37		 jne	 SHORT $LN1@OnProcessT@3

; 691  : 	{
; 692  : 		ioBaseChar *pTarget = pStage->GetBaseChar( szTarget );

  000b6	8d 45 dc	 lea	 eax, DWORD PTR _szTarget$[ebp]
  000b9	50		 push	 eax
  000ba	8b cb		 mov	 ecx, ebx
  000bc	e8 00 00 00 00	 call	 ?GetBaseChar@ioPlayStage@@QAEPAVioBaseChar@@ABVioHashString@@@Z ; ioPlayStage::GetBaseChar

; 693  : 		if( pTarget && pTarget->IsNeedProcess() )

  000c1	85 c0		 test	 eax, eax
  000c3	74 28		 je	 SHORT $LN1@OnProcessT@3
  000c5	8b 10		 mov	 edx, DWORD PTR [eax]
  000c7	8b c8		 mov	 ecx, eax
  000c9	ff 92 00 01 00
	00		 call	 DWORD PTR [edx+256]
  000cf	84 c0		 test	 al, al
  000d1	74 1a		 je	 SHORT $LN1@OnProcessT@3

; 694  : 		{
; 695  : 			m_TargetTraceName = szTarget;

  000d3	8b 4d f0	 mov	 ecx, DWORD PTR _this$[ebp]
  000d6	8d 45 dc	 lea	 eax, DWORD PTR _szTarget$[ebp]
  000d9	50		 push	 eax
  000da	81 c1 d8 0a 00
	00		 add	 ecx, 2776		; 00000ad8H
  000e0	ff d6		 call	 esi

; 696  : 			SetTracingState( pStage, true );

  000e2	8b 4d f0	 mov	 ecx, DWORD PTR _this$[ebp]
  000e5	6a 01		 push	 1
  000e7	53		 push	 ebx
  000e8	e8 00 00 00 00	 call	 ?SetTracingState@ioDummyChar@@IAEXPAVioPlayStage@@_N@Z ; ioDummyChar::SetTracingState
$LN1@OnProcessT@3:

; 697  : 		}
; 698  : 	}
; 699  : }

  000ed	83 4d fc ff	 or	 DWORD PTR __$EHRec$[ebp+8], -1
  000f1	8d 4d dc	 lea	 ecx, DWORD PTR _szTarget$[ebp]
  000f4	ff d7		 call	 edi
$LN7@OnProcessT@3:
  000f6	e8 00 00 00 00	 call	 __EH_epilog3
  000fb	c2 04 00	 ret	 4
_TEXT	ENDS
;	COMDAT text$x
text$x	SEGMENT
__unwindfunclet$?OnProcessTraceSensing@ioTargetTrace13Dummy@@IAEXM@Z$0:
  00000	8d 4d dc	 lea	 ecx, DWORD PTR _szTarget$[ebp]
  00003	ff 25 00 00 00
	00		 jmp	 DWORD PTR __imp_??1ioHashString@@QAE@XZ
__unwindfunclet$?OnProcessTraceSensing@ioTargetTrace13Dummy@@IAEXM@Z$1:
  00009	8d 4d cc	 lea	 ecx, DWORD PTR $T538261[ebp]
  0000c	ff 25 00 00 00
	00		 jmp	 DWORD PTR __imp_??1ioHashString@@QAE@XZ
__ehhandler$?OnProcessTraceSensing@ioTargetTrace13Dummy@@IAEXM@Z:
  00012	8b 54 24 08	 mov	 edx, DWORD PTR [esp+8]
  00016	8d 42 0c	 lea	 eax, DWORD PTR [edx+12]
  00019	8b 4a c8	 mov	 ecx, DWORD PTR [edx-56]
  0001c	33 c8		 xor	 ecx, eax
  0001e	e8 00 00 00 00	 call	 @__security_check_cookie@4
  00023	b8 00 00 00 00	 mov	 eax, OFFSET __ehfuncinfo$?OnProcessTraceSensing@ioTargetTrace13Dummy@@IAEXM@Z
  00028	e9 00 00 00 00	 jmp	 ___CxxFrameHandler3
text$x	ENDS
?OnProcessTraceSensing@ioTargetTrace13Dummy@@IAEXM@Z ENDP ; ioTargetTrace13Dummy::OnProcessTraceSensing
PUBLIC	??$_Dest_val@V?$allocator@U_Node@?$_List_nod@UFireTime@@V?$allocator@UFireTime@@@std@@@std@@@std@@U_Node@?$_List_nod@UFireTime@@V?$allocator@UFireTime@@@std@@@2@@std@@YAXAAV?$allocator@U_Node@?$_List_nod@UFireTime@@V?$allocator@UFireTime@@@std@@@std@@@0@PAU_Node@?$_List_nod@UFireTime@@V?$allocator@UFireTime@@@std@@@0@@Z ; std::_Dest_val<std::allocator<std::_List_nod<FireTime,std::allocator<FireTime> >::_Node>,std::_List_nod<FireTime,std::allocator<FireTime> >::_Node>
; Function compile flags: /Ogsp
; File c:\program files (x86)\microsoft visual studio 10.0\vc\include\xmemory
;	COMDAT ??$_Dest_val@V?$allocator@U_Node@?$_List_nod@UFireTime@@V?$allocator@UFireTime@@@std@@@std@@@std@@U_Node@?$_List_nod@UFireTime@@V?$allocator@UFireTime@@@std@@@2@@std@@YAXAAV?$allocator@U_Node@?$_List_nod@UFireTime@@V?$allocator@UFireTime@@@std@@@std@@@0@PAU_Node@?$_List_nod@UFireTime@@V?$allocator@UFireTime@@@std@@@0@@Z
_TEXT	SEGMENT
__Alval$ = 8						; size = 4
__Pdest$ = 12						; size = 4
??$_Dest_val@V?$allocator@U_Node@?$_List_nod@UFireTime@@V?$allocator@UFireTime@@@std@@@std@@@std@@U_Node@?$_List_nod@UFireTime@@V?$allocator@UFireTime@@@std@@@2@@std@@YAXAAV?$allocator@U_Node@?$_List_nod@UFireTime@@V?$allocator@UFireTime@@@std@@@std@@@0@PAU_Node@?$_List_nod@UFireTime@@V?$allocator@UFireTime@@@std@@@0@@Z PROC ; std::_Dest_val<std::allocator<std::_List_nod<FireTime,std::allocator<FireTime> >::_Node>,std::_List_nod<FireTime,std::allocator<FireTime> >::_Node>, COMDAT

; 286  : 	{	// destroy using allocator

  00000	55		 push	 ebp
  00001	8b ec		 mov	 ebp, esp

; 287  : 	_Alval.destroy(_Pdest);

  00003	8b 4d 0c	 mov	 ecx, DWORD PTR __Pdest$[ebp]
  00006	83 c1 08	 add	 ecx, 8

; 288  : 	}

  00009	5d		 pop	 ebp

; 287  : 	_Alval.destroy(_Pdest);

  0000a	e9 00 00 00 00	 jmp	 ??1FireTime@@QAE@XZ
??$_Dest_val@V?$allocator@U_Node@?$_List_nod@UFireTime@@V?$allocator@UFireTime@@@std@@@std@@@std@@U_Node@?$_List_nod@UFireTime@@V?$allocator@UFireTime@@@std@@@2@@std@@YAXAAV?$allocator@U_Node@?$_List_nod@UFireTime@@V?$allocator@UFireTime@@@std@@@std@@@0@PAU_Node@?$_List_nod@UFireTime@@V?$allocator@UFireTime@@@std@@@0@@Z ENDP ; std::_Dest_val<std::allocator<std::_List_nod<FireTime,std::allocator<FireTime> >::_Node>,std::_List_nod<FireTime,std::allocator<FireTime> >::_Node>
_TEXT	ENDS
PUBLIC	??$_Destroy_range@V?$allocator@UDummyTT13AttackInfo@@@std@@@std@@YAXPAUDummyTT13AttackInfo@@0AAV?$allocator@UDummyTT13AttackInfo@@@0@U_Nonscalar_ptr_iterator_tag@0@@Z ; std::_Destroy_range<std::allocator<DummyTT13AttackInfo> >
; Function compile flags: /Ogsp
;	COMDAT ??$_Destroy_range@V?$allocator@UDummyTT13AttackInfo@@@std@@@std@@YAXPAUDummyTT13AttackInfo@@0AAV?$allocator@UDummyTT13AttackInfo@@@0@U_Nonscalar_ptr_iterator_tag@0@@Z
_TEXT	SEGMENT
__First$ = 8						; size = 4
__Last$ = 12						; size = 4
__Al$ = 16						; size = 4
___formal$ = 20						; size = 1
??$_Destroy_range@V?$allocator@UDummyTT13AttackInfo@@@std@@@std@@YAXPAUDummyTT13AttackInfo@@0AAV?$allocator@UDummyTT13AttackInfo@@@0@U_Nonscalar_ptr_iterator_tag@0@@Z PROC ; std::_Destroy_range<std::allocator<DummyTT13AttackInfo> >, COMDAT

; 95   : 	{	// destroy [_First, _Last), arbitrary type

  00000	55		 push	 ebp
  00001	8b ec		 mov	 ebp, esp
  00003	56		 push	 esi

; 96   : 	for (; _First != _Last; ++_First)

  00004	8b 75 08	 mov	 esi, DWORD PTR __First$[ebp]
  00007	eb 0c		 jmp	 SHORT $LN20@Destroy_ra
$LL3@Destroy_ra:

; 97   : 		_Dest_val(_Al, _First);

  00009	8d 4e 08	 lea	 ecx, DWORD PTR [esi+8]
  0000c	ff 15 00 00 00
	00		 call	 DWORD PTR __imp_??1ioHashString@@QAE@XZ
  00012	83 c6 3c	 add	 esi, 60			; 0000003cH
$LN20@Destroy_ra:

; 96   : 	for (; _First != _Last; ++_First)

  00015	3b 75 0c	 cmp	 esi, DWORD PTR __Last$[ebp]
  00018	75 ef		 jne	 SHORT $LL3@Destroy_ra
  0001a	5e		 pop	 esi

; 98   : 	}

  0001b	5d		 pop	 ebp
  0001c	c3		 ret	 0
??$_Destroy_range@V?$allocator@UDummyTT13AttackInfo@@@std@@@std@@YAXPAUDummyTT13AttackInfo@@0AAV?$allocator@UDummyTT13AttackInfo@@@0@U_Nonscalar_ptr_iterator_tag@0@@Z ENDP ; std::_Destroy_range<std::allocator<DummyTT13AttackInfo> >
_TEXT	ENDS
PUBLIC	??$_Uninitialized_move@PAUDummyTT13AttackInfo@@PAU1@V?$allocator@UDummyTT13AttackInfo@@@std@@@std@@YAPAUDummyTT13AttackInfo@@PAU1@00AAV?$allocator@UDummyTT13AttackInfo@@@0@@Z ; std::_Uninitialized_move<DummyTT13AttackInfo *,DummyTT13AttackInfo *,std::allocator<DummyTT13AttackInfo> >
; Function compile flags: /Ogsp
; File c:\program files (x86)\microsoft visual studio 10.0\vc\include\memory
;	COMDAT ??$_Uninitialized_move@PAUDummyTT13AttackInfo@@PAU1@V?$allocator@UDummyTT13AttackInfo@@@std@@@std@@YAPAUDummyTT13AttackInfo@@PAU1@00AAV?$allocator@UDummyTT13AttackInfo@@@0@@Z
_TEXT	SEGMENT
__Cat$538367 = -4					; size = 1
__First$ = 8						; size = 4
__Last$ = 12						; size = 4
__Dest$ = 16						; size = 4
__Al$ = 20						; size = 4
??$_Uninitialized_move@PAUDummyTT13AttackInfo@@PAU1@V?$allocator@UDummyTT13AttackInfo@@@std@@@std@@YAPAUDummyTT13AttackInfo@@PAU1@00AAV?$allocator@UDummyTT13AttackInfo@@@0@@Z PROC ; std::_Uninitialized_move<DummyTT13AttackInfo *,DummyTT13AttackInfo *,std::allocator<DummyTT13AttackInfo> >, COMDAT

; 469  : 	{	// move [_First, _Last) to raw _Dest, using _Al

  00000	55		 push	 ebp
  00001	8b ec		 mov	 ebp, esp
  00003	51		 push	 ecx

; 470  : 	return (_Uninit_move(_First, _Last, _Dest, _Al,
; 471  : 		_Val_type(_First), _Ptr_cat(_First, _Dest)));

  00004	ff 75 fc	 push	 DWORD PTR __Cat$538367[ebp]
  00007	6a 00		 push	 0
  00009	ff 75 14	 push	 DWORD PTR __Al$[ebp]
  0000c	ff 75 10	 push	 DWORD PTR __Dest$[ebp]
  0000f	ff 75 0c	 push	 DWORD PTR __Last$[ebp]
  00012	ff 75 08	 push	 DWORD PTR __First$[ebp]
  00015	e8 00 00 00 00	 call	 ??$_Uninit_move@PAUDummyTT13AttackInfo@@PAU1@V?$allocator@UDummyTT13AttackInfo@@@std@@U1@@std@@YAPAUDummyTT13AttackInfo@@PAU1@00AAV?$allocator@UDummyTT13AttackInfo@@@0@0U_Nonscalar_ptr_iterator_tag@0@@Z ; std::_Uninit_move<DummyTT13AttackInfo *,DummyTT13AttackInfo *,std::allocator<DummyTT13AttackInfo>,DummyTT13AttackInfo>
  0001a	83 c4 18	 add	 esp, 24			; 00000018H

; 472  : 	}

  0001d	c9		 leave
  0001e	c3		 ret	 0
??$_Uninitialized_move@PAUDummyTT13AttackInfo@@PAU1@V?$allocator@UDummyTT13AttackInfo@@@std@@@std@@YAPAUDummyTT13AttackInfo@@PAU1@00AAV?$allocator@UDummyTT13AttackInfo@@@0@@Z ENDP ; std::_Uninitialized_move<DummyTT13AttackInfo *,DummyTT13AttackInfo *,std::allocator<DummyTT13AttackInfo> >
_TEXT	ENDS
PUBLIC	?erase@?$list@UFireTime@@V?$allocator@UFireTime@@@std@@@std@@QAE?AV?$_List_iterator@V?$_List_val@UFireTime@@V?$allocator@UFireTime@@@std@@@std@@@2@V?$_List_const_iterator@V?$_List_val@UFireTime@@V?$allocator@UFireTime@@@std@@@std@@@2@@Z ; std::list<FireTime,std::allocator<FireTime> >::erase
; Function compile flags: /Ogsp
; File c:\program files (x86)\microsoft visual studio 10.0\vc\include\list
;	COMDAT ?erase@?$list@UFireTime@@V?$allocator@UFireTime@@@std@@@std@@QAE?AV?$_List_iterator@V?$_List_val@UFireTime@@V?$allocator@UFireTime@@@std@@@std@@@2@V?$_List_const_iterator@V?$_List_val@UFireTime@@V?$allocator@UFireTime@@@std@@@std@@@2@@Z
_TEXT	SEGMENT
___$ReturnUdt$ = 8					; size = 4
__Where$ = 12						; size = 4
?erase@?$list@UFireTime@@V?$allocator@UFireTime@@@std@@@std@@QAE?AV?$_List_iterator@V?$_List_val@UFireTime@@V?$allocator@UFireTime@@@std@@@std@@@2@V?$_List_const_iterator@V?$_List_val@UFireTime@@V?$allocator@UFireTime@@@std@@@std@@@2@@Z PROC ; std::list<FireTime,std::allocator<FireTime> >::erase, COMDAT
; _this$ = ecx

; 1054 : 		{	// erase element at _Where

  00000	55		 push	 ebp
  00001	8b ec		 mov	 ebp, esp
  00003	56		 push	 esi

; 1055 :  #if _ITERATOR_DEBUG_LEVEL == 2
; 1056 : 		if (_Where._Getcont() != this || _Where._Ptr == this->_Myhead)
; 1057 : 			_DEBUG_ERROR("list erase iterator outside range");
; 1058 : 		_Nodeptr _Pnode = (_Where++)._Mynode();
; 1059 : 		_Orphan_ptr(*this, _Pnode);
; 1060 : 
; 1061 :  #else /* _ITERATOR_DEBUG_LEVEL == 2 */
; 1062 : 		_Nodeptr _Pnode = (_Where++)._Mynode();

  00004	8b 75 0c	 mov	 esi, DWORD PTR __Where$[ebp]
  00007	8b 06		 mov	 eax, DWORD PTR [esi]
  00009	57		 push	 edi
  0000a	8b f9		 mov	 edi, ecx
  0000c	89 45 0c	 mov	 DWORD PTR __Where$[ebp], eax

; 1063 :  #endif /* _ITERATOR_DEBUG_LEVEL == 2 */
; 1064 : 
; 1065 : 		if (_Pnode != this->_Myhead)

  0000f	3b 37		 cmp	 esi, DWORD PTR [edi]
  00011	74 21		 je	 SHORT $LN1@erase

; 1066 : 			{	// not list head, safe to erase
; 1067 : 			this->_Nextnode(this->_Prevnode(_Pnode)) =
; 1068 : 				this->_Nextnode(_Pnode);

  00013	8b 46 04	 mov	 eax, DWORD PTR [esi+4]
  00016	8b 0e		 mov	 ecx, DWORD PTR [esi]
  00018	89 08		 mov	 DWORD PTR [eax], ecx

; 1069 : 			this->_Prevnode(this->_Nextnode(_Pnode)) =
; 1070 : 				this->_Prevnode(_Pnode);

  0001a	8b 4e 04	 mov	 ecx, DWORD PTR [esi+4]
  0001d	8b 06		 mov	 eax, DWORD PTR [esi]
  0001f	89 48 04	 mov	 DWORD PTR [eax+4], ecx

; 1071 : 
; 1072 : 			_Dest_val(this->_Alnod, _Pnode);

  00022	8d 4e 08	 lea	 ecx, DWORD PTR [esi+8]
  00025	e8 00 00 00 00	 call	 ??1FireTime@@QAE@XZ

; 1073 : 			this->_Alnod.deallocate(_Pnode, 1);

  0002a	56		 push	 esi
  0002b	e8 00 00 00 00	 call	 ??3@YAXPAX@Z		; operator delete

; 1074 : 
; 1075 : 			--this->_Mysize;

  00030	ff 4f 04	 dec	 DWORD PTR [edi+4]
  00033	59		 pop	 ecx
$LN1@erase:

; 1076 : 			}
; 1077 : 		return (_Make_iter(_Where));

  00034	8b 45 08	 mov	 eax, DWORD PTR ___$ReturnUdt$[ebp]
  00037	8b 4d 0c	 mov	 ecx, DWORD PTR __Where$[ebp]
  0003a	5f		 pop	 edi
  0003b	89 08		 mov	 DWORD PTR [eax], ecx
  0003d	5e		 pop	 esi

; 1078 : 		}

  0003e	5d		 pop	 ebp
  0003f	c2 08 00	 ret	 8
?erase@?$list@UFireTime@@V?$allocator@UFireTime@@@std@@@std@@QAE?AV?$_List_iterator@V?$_List_val@UFireTime@@V?$allocator@UFireTime@@@std@@@std@@@2@V?$_List_const_iterator@V?$_List_val@UFireTime@@V?$allocator@UFireTime@@@std@@@std@@@2@@Z ENDP ; std::list<FireTime,std::allocator<FireTime> >::erase
_TEXT	ENDS
PUBLIC	??$_Destroy_range@V?$allocator@UDummyTT13AttackInfo@@@std@@@std@@YAXPAUDummyTT13AttackInfo@@0AAV?$allocator@UDummyTT13AttackInfo@@@0@@Z ; std::_Destroy_range<std::allocator<DummyTT13AttackInfo> >
; Function compile flags: /Ogsp
; File c:\program files (x86)\microsoft visual studio 10.0\vc\include\xmemory
;	COMDAT ??$_Destroy_range@V?$allocator@UDummyTT13AttackInfo@@@std@@@std@@YAXPAUDummyTT13AttackInfo@@0AAV?$allocator@UDummyTT13AttackInfo@@@0@@Z
_TEXT	SEGMENT
__First$ = 8						; size = 4
__Last$ = 12						; size = 4
__Al$ = 16						; size = 4
??$_Destroy_range@V?$allocator@UDummyTT13AttackInfo@@@std@@@std@@YAXPAUDummyTT13AttackInfo@@0AAV?$allocator@UDummyTT13AttackInfo@@@0@@Z PROC ; std::_Destroy_range<std::allocator<DummyTT13AttackInfo> >, COMDAT

; 87   : 	{	// destroy [_First, _Last)

  00000	55		 push	 ebp
  00001	8b ec		 mov	 ebp, esp
  00003	56		 push	 esi

; 88   : 	_Destroy_range(_First, _Last, _Al, _Ptr_cat(_First, _Last));

  00004	8b 75 08	 mov	 esi, DWORD PTR __First$[ebp]
  00007	eb 0c		 jmp	 SHORT $LN24@Destroy_ra@2
$LL7@Destroy_ra@2:
  00009	8d 4e 08	 lea	 ecx, DWORD PTR [esi+8]
  0000c	ff 15 00 00 00
	00		 call	 DWORD PTR __imp_??1ioHashString@@QAE@XZ
  00012	83 c6 3c	 add	 esi, 60			; 0000003cH
$LN24@Destroy_ra@2:
  00015	3b 75 0c	 cmp	 esi, DWORD PTR __Last$[ebp]
  00018	75 ef		 jne	 SHORT $LL7@Destroy_ra@2
  0001a	5e		 pop	 esi

; 89   : 	}

  0001b	5d		 pop	 ebp
  0001c	c3		 ret	 0
??$_Destroy_range@V?$allocator@UDummyTT13AttackInfo@@@std@@@std@@YAXPAUDummyTT13AttackInfo@@0AAV?$allocator@UDummyTT13AttackInfo@@@0@@Z ENDP ; std::_Destroy_range<std::allocator<DummyTT13AttackInfo> >
_TEXT	ENDS
PUBLIC	??$_Umove@PAUDummyTT13AttackInfo@@@?$vector@UDummyTT13AttackInfo@@V?$allocator@UDummyTT13AttackInfo@@@std@@@std@@IAEPAUDummyTT13AttackInfo@@PAU2@00@Z ; std::vector<DummyTT13AttackInfo,std::allocator<DummyTT13AttackInfo> >::_Umove<DummyTT13AttackInfo *>
; Function compile flags: /Ogsp
; File c:\program files (x86)\microsoft visual studio 10.0\vc\include\vector
;	COMDAT ??$_Umove@PAUDummyTT13AttackInfo@@@?$vector@UDummyTT13AttackInfo@@V?$allocator@UDummyTT13AttackInfo@@@std@@@std@@IAEPAUDummyTT13AttackInfo@@PAU2@00@Z
_TEXT	SEGMENT
__First$ = 8						; size = 4
__Last$ = 12						; size = 4
__Ptr$ = 16						; size = 4
??$_Umove@PAUDummyTT13AttackInfo@@@?$vector@UDummyTT13AttackInfo@@V?$allocator@UDummyTT13AttackInfo@@@std@@@std@@IAEPAUDummyTT13AttackInfo@@PAU2@00@Z PROC ; std::vector<DummyTT13AttackInfo,std::allocator<DummyTT13AttackInfo> >::_Umove<DummyTT13AttackInfo *>, COMDAT
; _this$ = ecx

; 1322 : 		pointer _Umove(_Iter _First, _Iter _Last, pointer _Ptr)

  00000	55		 push	 ebp
  00001	8b ec		 mov	 ebp, esp

; 1323 : 		{	// move initializing [_First, _Last), using allocator
; 1324 : 		return (_Uninitialized_move(_First, _Last,
; 1325 : 			_Ptr, this->_Alval));

  00003	83 c1 0c	 add	 ecx, 12			; 0000000cH
  00006	51		 push	 ecx
  00007	ff 75 10	 push	 DWORD PTR __Ptr$[ebp]
  0000a	ff 75 0c	 push	 DWORD PTR __Last$[ebp]
  0000d	ff 75 08	 push	 DWORD PTR __First$[ebp]
  00010	e8 00 00 00 00	 call	 ??$_Uninitialized_move@PAUDummyTT13AttackInfo@@PAU1@V?$allocator@UDummyTT13AttackInfo@@@std@@@std@@YAPAUDummyTT13AttackInfo@@PAU1@00AAV?$allocator@UDummyTT13AttackInfo@@@0@@Z ; std::_Uninitialized_move<DummyTT13AttackInfo *,DummyTT13AttackInfo *,std::allocator<DummyTT13AttackInfo> >
  00015	83 c4 10	 add	 esp, 16			; 00000010H

; 1326 : 		}

  00018	5d		 pop	 ebp
  00019	c2 0c 00	 ret	 12			; 0000000cH
??$_Umove@PAUDummyTT13AttackInfo@@@?$vector@UDummyTT13AttackInfo@@V?$allocator@UDummyTT13AttackInfo@@@std@@@std@@IAEPAUDummyTT13AttackInfo@@PAU2@00@Z ENDP ; std::vector<DummyTT13AttackInfo,std::allocator<DummyTT13AttackInfo> >::_Umove<DummyTT13AttackInfo *>
_TEXT	ENDS
PUBLIC	?OnProcessTraceAttack@ioTargetTrace13Dummy@@IAEXMK@Z ; ioTargetTrace13Dummy::OnProcessTraceAttack
EXTRN	?SetZoneValue@ioZoneEffectWeapon@@QAEX_N0@Z:PROC ; ioZoneEffectWeapon::SetZoneValue
EXTRN	?SetCollisionDir@ioZoneEffectWeapon@@QAEXAAUD3DXVECTOR3@@@Z:PROC ; ioZoneEffectWeapon::SetCollisionDir
;	COMDAT xdata$x
; File c:\program files (x86)\microsoft visual studio 10.0\vc\include\list
xdata$x	SEGMENT
__unwindtable$?OnProcessTraceAttack@ioTargetTrace13Dummy@@IAEXMK@Z DD 0ffffffffH
	DD	FLAT:__unwindfunclet$?OnProcessTraceAttack@ioTargetTrace13Dummy@@IAEXMK@Z$0
__ehfuncinfo$?OnProcessTraceAttack@ioTargetTrace13Dummy@@IAEXMK@Z DD 019930522H
	DD	01H
	DD	FLAT:__unwindtable$?OnProcessTraceAttack@ioTargetTrace13Dummy@@IAEXMK@Z
	DD	2 DUP(00H)
	DD	2 DUP(00H)
	DD	00H
	DD	01H
; Function compile flags: /Ogsp
; File d:\lost saga for developer\youtube\tutorial\source\src\lsclient\iotargettrace13dummy.cpp
xdata$x	ENDS
;	COMDAT ?OnProcessTraceAttack@ioTargetTrace13Dummy@@IAEXMK@Z
_TEXT	SEGMENT
$T538568 = -72						; size = 4
_pOwner$ = -68						; size = 4
_dwCurTime$ = -64					; size = 4
tv474 = -60						; size = 4
tv470 = -60						; size = 4
tv466 = -60						; size = 4
$T538566 = -56						; size = 16
$T532875 = -52						; size = 12
_vCurPos$ = -40						; size = 12
_vCurDir$ = -28						; size = 12
__$EHRec$ = -12						; size = 12
_fTimePerSec$ = 8					; size = 4
_dwPreTime$ = 12					; size = 4
?OnProcessTraceAttack@ioTargetTrace13Dummy@@IAEXMK@Z PROC ; ioTargetTrace13Dummy::OnProcessTraceAttack, COMDAT
; _this$ = ecx

; 911  : {

  00000	6a 3c		 push	 60			; 0000003cH
  00002	b8 00 00 00 00	 mov	 eax, __ehhandler$?OnProcessTraceAttack@ioTargetTrace13Dummy@@IAEXMK@Z
  00007	e8 00 00 00 00	 call	 __EH_prolog3_GS
  0000c	8b f1		 mov	 esi, ecx

; 912  : 	ioBaseChar *pOwner = GetOwner();

  0000e	e8 00 00 00 00	 call	 ?GetOwner@ioDummyChar@@QBEPAVioBaseChar@@XZ ; ioDummyChar::GetOwner
  00013	89 45 bc	 mov	 DWORD PTR _pOwner$[ebp], eax

; 913  : 	if( !pOwner ) 

  00016	85 c0		 test	 eax, eax
  00018	0f 84 6c 01 00
	00		 je	 $LN2@OnProcessT@4

; 914  : 		return;
; 915  : 
; 916  : 	ioPlayStage *pStage = pOwner->GetCreator();
; 917  : 	if( !pStage ) 

  0001e	83 b8 44 03 00
	00 00		 cmp	 DWORD PTR [eax+836], 0
  00025	0f 84 5f 01 00
	00		 je	 $LN2@OnProcessT@4

; 918  : 		return;
; 919  : 
; 920  : 	DWORD dwCurTime = FRAMEGETTIME();

  0002b	ff 15 00 00 00
	00		 call	 DWORD PTR __imp_?GetSingleton@ioFrameTimer@@SAAAV1@XZ
  00031	8b c8		 mov	 ecx, eax
  00033	ff 15 00 00 00
	00		 call	 DWORD PTR __imp_?GetLoopSec@ioFrameTimer@@QBEKXZ

; 921  : 
; 922  : 	D3DXVECTOR3 vCurDir = GetWorldOrientation() * D3DXVECTOR3( 0.0f, 0.0f, -1.0f );

  00039	0f 57 c0	 xorps	 xmm0, xmm0
  0003c	89 45 c0	 mov	 DWORD PTR _dwCurTime$[ebp], eax
  0003f	8d 45 cc	 lea	 eax, DWORD PTR $T532875[ebp]
  00042	f3 0f 11 45 cc	 movss	 DWORD PTR $T532875[ebp], xmm0
  00047	f3 0f 11 45 d0	 movss	 DWORD PTR $T532875[ebp+4], xmm0
  0004c	f3 0f 10 05 00
	00 00 00	 movss	 xmm0, DWORD PTR __real@bf800000
  00054	50		 push	 eax
  00055	8b 06		 mov	 eax, DWORD PTR [esi]
  00057	8b ce		 mov	 ecx, esi
  00059	f3 0f 11 45 d4	 movss	 DWORD PTR $T532875[ebp+8], xmm0
  0005e	ff 50 74	 call	 DWORD PTR [eax+116]
  00061	50		 push	 eax
  00062	8d 45 e4	 lea	 eax, DWORD PTR _vCurDir$[ebp]
  00065	50		 push	 eax
  00066	ff 15 00 00 00
	00		 call	 DWORD PTR __imp_??D@YA?AUD3DXVECTOR3@@ABUD3DXQUATERNION@@ABU0@@Z
  0006c	83 c4 0c	 add	 esp, 12			; 0000000cH

; 923  : 	D3DXVec3Normalize( &vCurDir, &vCurDir );

  0006f	8d 45 e4	 lea	 eax, DWORD PTR _vCurDir$[ebp]
  00072	50		 push	 eax
  00073	50		 push	 eax
  00074	e8 00 00 00 00	 call	 _D3DXVec3Normalize@8

; 924  : 
; 925  : 	D3DXVECTOR3 vCurPos = GetMidPositionByRate();

  00079	b8 05 00 00 00	 mov	 eax, 5
  0007e	8b c8		 mov	 ecx, eax
  00080	b8 0a 00 00 00	 mov	 eax, 10			; 0000000aH
  00085	89 4d c4	 mov	 DWORD PTR tv474[ebp], ecx
  00088	db 45 c4	 fild	 DWORD PTR tv474[ebp]
  0008b	85 c9		 test	 ecx, ecx
  0008d	79 06		 jns	 SHORT $LN62@OnProcessT@4
  0008f	d8 05 00 00 00
	00		 fadd	 DWORD PTR __real@4f800000
$LN62@OnProcessT@4:
  00095	89 45 c4	 mov	 DWORD PTR tv470[ebp], eax
  00098	db 45 c4	 fild	 DWORD PTR tv470[ebp]
  0009b	85 c0		 test	 eax, eax
  0009d	79 06		 jns	 SHORT $LN63@OnProcessT@4
  0009f	d8 05 00 00 00
	00		 fadd	 DWORD PTR __real@4f800000
$LN63@OnProcessT@4:
  000a5	de f9		 fdivp	 ST(1), ST(0)
  000a7	51		 push	 ecx
  000a8	8d 45 d8	 lea	 eax, DWORD PTR _vCurPos$[ebp]
  000ab	8b ce		 mov	 ecx, esi
  000ad	d9 5d c4	 fstp	 DWORD PTR tv466[ebp]
  000b0	d9 45 c4	 fld	 DWORD PTR tv466[ebp]
  000b3	d9 1c 24	 fstp	 DWORD PTR [esp]
  000b6	50		 push	 eax
  000b7	e8 00 00 00 00	 call	 ?GetMidPositionByRate@ioGameEntity@@QBE?AUD3DXVECTOR3@@M@Z ; ioGameEntity::GetMidPositionByRate

; 926  : 
; 927  : 	DWORD dwLastFireTime = dwPreTime;
; 928  : 	FireTimeList::iterator iter = m_vAttackFireTimeList.begin();

  000bc	8b 86 78 05 00
	00		 mov	 eax, DWORD PTR [esi+1400]
  000c2	8b 38		 mov	 edi, DWORD PTR [eax]

; 929  : 	while( iter != m_vAttackFireTimeList.end() )

  000c4	3b f8		 cmp	 edi, eax
  000c6	0f 84 90 00 00
	00		 je	 $LN7@OnProcessT@4
$LL8@OnProcessT@4:

; 930  : 	{
; 931  : 		const FireTime &rkFire = *iter;

  000cc	8d 5f 08	 lea	 ebx, DWORD PTR [edi+8]

; 932  : 
; 933  : 		DWORD dwFireTime = rkFire.dwStart;

  000cf	8b 03		 mov	 eax, DWORD PTR [ebx]

; 934  : 		if( COMPARE( dwFireTime, dwPreTime, dwCurTime ) )

  000d1	3b 45 0c	 cmp	 eax, DWORD PTR _dwPreTime$[ebp]
  000d4	72 78		 jb	 SHORT $LN6@OnProcessT@4
  000d6	3b 45 c0	 cmp	 eax, DWORD PTR _dwCurTime$[ebp]
  000d9	73 73		 jae	 SHORT $LN6@OnProcessT@4

; 935  : 		{
; 936  : 			if( rkFire.iAttributeIdx != NO_WEAPON_ATTRIBUTE )

  000db	83 7b 08 00	 cmp	 DWORD PTR [ebx+8], 0
  000df	74 59		 je	 SHORT $LN4@OnProcessT@4

; 937  : 			{
; 938  : 				ioWeapon* pWeapon = pOwner->ExtendFireExplicit( rkFire, vCurPos, vCurDir, "" );

  000e1	68 00 00 00 00	 push	 OFFSET ??_C@_00CNPNBAHC@?$AA@
  000e6	8d 4d c8	 lea	 ecx, DWORD PTR $T538566[ebp]
  000e9	ff 15 00 00 00
	00		 call	 DWORD PTR __imp_??0ioHashString@@QAE@PBD@Z
  000ef	8b 4d bc	 mov	 ecx, DWORD PTR _pOwner$[ebp]
  000f2	83 65 fc 00	 and	 DWORD PTR __$EHRec$[ebp+8], 0
  000f6	8d 45 c8	 lea	 eax, DWORD PTR $T538566[ebp]
  000f9	50		 push	 eax
  000fa	8d 45 e4	 lea	 eax, DWORD PTR _vCurDir$[ebp]
  000fd	50		 push	 eax
  000fe	8d 45 d8	 lea	 eax, DWORD PTR _vCurPos$[ebp]
  00101	50		 push	 eax
  00102	53		 push	 ebx
  00103	e8 00 00 00 00	 call	 ?ExtendFireExplicit@ioBaseChar@@QAEPAVioWeapon@@ABUFireTime@@ABUD3DXVECTOR3@@1ABVioHashString@@@Z ; ioBaseChar::ExtendFireExplicit
  00108	83 4d fc ff	 or	 DWORD PTR __$EHRec$[ebp+8], -1
  0010c	8d 4d c8	 lea	 ecx, DWORD PTR $T538566[ebp]
  0010f	8b d8		 mov	 ebx, eax
  00111	ff 15 00 00 00
	00		 call	 DWORD PTR __imp_??1ioHashString@@QAE@XZ

; 939  : 				ioZoneEffectWeapon *pZone = ToZoneEffectWeapon( pWeapon );

  00117	53		 push	 ebx
  00118	e8 00 00 00 00	 call	 ?ToZoneEffectWeapon@@YAPAVioZoneEffectWeapon@@PAVioWeapon@@@Z ; ToZoneEffectWeapon
  0011d	8b d8		 mov	 ebx, eax
  0011f	59		 pop	 ecx

; 940  : 				if( pZone )

  00120	85 db		 test	 ebx, ebx
  00122	74 16		 je	 SHORT $LN4@OnProcessT@4

; 941  : 				{
; 942  : 					pZone->SetCollisionDir( vCurDir );

  00124	8d 45 e4	 lea	 eax, DWORD PTR _vCurDir$[ebp]
  00127	50		 push	 eax
  00128	8b cb		 mov	 ecx, ebx
  0012a	e8 00 00 00 00	 call	 ?SetCollisionDir@ioZoneEffectWeapon@@QAEXAAUD3DXVECTOR3@@@Z ; ioZoneEffectWeapon::SetCollisionDir

; 943  : 					pZone->SetZoneValue( true, false );

  0012f	6a 00		 push	 0
  00131	6a 01		 push	 1
  00133	8b cb		 mov	 ecx, ebx
  00135	e8 00 00 00 00	 call	 ?SetZoneValue@ioZoneEffectWeapon@@QAEX_N0@Z ; ioZoneEffectWeapon::SetZoneValue
$LN4@OnProcessT@4:

; 944  : 				}
; 945  : 			}
; 946  : 
; 947  : 			iter = m_vAttackFireTimeList.erase( iter );

  0013a	57		 push	 edi
  0013b	8d 45 b8	 lea	 eax, DWORD PTR $T538568[ebp]
  0013e	50		 push	 eax
  0013f	8d 8e 78 05 00
	00		 lea	 ecx, DWORD PTR [esi+1400]
  00145	e8 00 00 00 00	 call	 ?erase@?$list@UFireTime@@V?$allocator@UFireTime@@@std@@@std@@QAE?AV?$_List_iterator@V?$_List_val@UFireTime@@V?$allocator@UFireTime@@@std@@@std@@@2@V?$_List_const_iterator@V?$_List_val@UFireTime@@V?$allocator@UFireTime@@@std@@@std@@@2@@Z ; std::list<FireTime,std::allocator<FireTime> >::erase
  0014a	8b 38		 mov	 edi, DWORD PTR [eax]

; 948  : 		}
; 949  : 		else

  0014c	eb 02		 jmp	 SHORT $LN56@OnProcessT@4
$LN6@OnProcessT@4:

; 950  : 		{
; 951  : 			++iter;

  0014e	8b 3f		 mov	 edi, DWORD PTR [edi]
$LN56@OnProcessT@4:

; 929  : 	while( iter != m_vAttackFireTimeList.end() )

  00150	3b be 78 05 00
	00		 cmp	 edi, DWORD PTR [esi+1400]
  00156	0f 85 70 ff ff
	ff		 jne	 $LL8@OnProcessT@4
$LN7@OnProcessT@4:

; 952  : 		}
; 953  : 	}
; 954  : 
; 955  : 	if( m_dwAttackAniEndTime == 0 || m_dwAttackAniEndTime < dwCurTime )

  0015c	8b 86 e8 06 00
	00		 mov	 eax, DWORD PTR [esi+1768]
  00162	85 c0		 test	 eax, eax
  00164	74 05		 je	 SHORT $LN1@OnProcessT@4
  00166	3b 45 c0	 cmp	 eax, DWORD PTR _dwCurTime$[ebp]
  00169	73 1f		 jae	 SHORT $LN2@OnProcessT@4
$LN1@OnProcessT@4:

; 956  : 	{
; 957  : 		m_LastAttacker = m_OwnerName;

  0016b	8d 86 cc 01 00
	00		 lea	 eax, DWORD PTR [esi+460]
  00171	50		 push	 eax
  00172	8d 8e 30 05 00
	00		 lea	 ecx, DWORD PTR [esi+1328]
  00178	ff 15 00 00 00
	00		 call	 DWORD PTR __imp_??4ioHashString@@QAEAAV0@ABV0@@Z

; 958  : 		SetDelayState( false );

  0017e	8b 06		 mov	 eax, DWORD PTR [esi]
  00180	6a 00		 push	 0
  00182	8b ce		 mov	 ecx, esi
  00184	ff 90 14 01 00
	00		 call	 DWORD PTR [eax+276]
$LN2@OnProcessT@4:

; 959  : 		return;
; 960  : 	}
; 961  : }

  0018a	e8 00 00 00 00	 call	 __EH_epilog3_GS
  0018f	c2 08 00	 ret	 8
_TEXT	ENDS
;	COMDAT text$x
text$x	SEGMENT
__unwindfunclet$?OnProcessTraceAttack@ioTargetTrace13Dummy@@IAEXMK@Z$0:
  00000	8d 4d c8	 lea	 ecx, DWORD PTR $T538566[ebp]
  00003	ff 25 00 00 00
	00		 jmp	 DWORD PTR __imp_??1ioHashString@@QAE@XZ
__ehhandler$?OnProcessTraceAttack@ioTargetTrace13Dummy@@IAEXMK@Z:
  00009	8b 54 24 08	 mov	 edx, DWORD PTR [esp+8]
  0000d	8d 42 0c	 lea	 eax, DWORD PTR [edx+12]
  00010	8b 4a b4	 mov	 ecx, DWORD PTR [edx-76]
  00013	33 c8		 xor	 ecx, eax
  00015	e8 00 00 00 00	 call	 @__security_check_cookie@4
  0001a	8b 4a fc	 mov	 ecx, DWORD PTR [edx-4]
  0001d	33 c8		 xor	 ecx, eax
  0001f	e8 00 00 00 00	 call	 @__security_check_cookie@4
  00024	b8 00 00 00 00	 mov	 eax, OFFSET __ehfuncinfo$?OnProcessTraceAttack@ioTargetTrace13Dummy@@IAEXMK@Z
  00029	e9 00 00 00 00	 jmp	 ___CxxFrameHandler3
text$x	ENDS
?OnProcessTraceAttack@ioTargetTrace13Dummy@@IAEXMK@Z ENDP ; ioTargetTrace13Dummy::OnProcessTraceAttack
PUBLIC	?_Destroy@?$vector@UDummyTT13AttackInfo@@V?$allocator@UDummyTT13AttackInfo@@@std@@@std@@IAEXPAUDummyTT13AttackInfo@@0@Z ; std::vector<DummyTT13AttackInfo,std::allocator<DummyTT13AttackInfo> >::_Destroy
; Function compile flags: /Ogsp
; File c:\program files (x86)\microsoft visual studio 10.0\vc\include\vector
;	COMDAT ?_Destroy@?$vector@UDummyTT13AttackInfo@@V?$allocator@UDummyTT13AttackInfo@@@std@@@std@@IAEXPAUDummyTT13AttackInfo@@0@Z
_TEXT	SEGMENT
__First$ = 8						; size = 4
__Last$ = 12						; size = 4
?_Destroy@?$vector@UDummyTT13AttackInfo@@V?$allocator@UDummyTT13AttackInfo@@@std@@@std@@IAEXPAUDummyTT13AttackInfo@@0@Z PROC ; std::vector<DummyTT13AttackInfo,std::allocator<DummyTT13AttackInfo> >::_Destroy, COMDAT
; _this$ = ecx

; 1269 : 		{	// destroy [_First, _Last) using allocator

  00000	55		 push	 ebp
  00001	8b ec		 mov	 ebp, esp

; 1270 : 		_Destroy_range(_First, _Last, this->_Alval);

  00003	83 c1 0c	 add	 ecx, 12			; 0000000cH
  00006	51		 push	 ecx
  00007	ff 75 0c	 push	 DWORD PTR __Last$[ebp]
  0000a	ff 75 08	 push	 DWORD PTR __First$[ebp]
  0000d	e8 00 00 00 00	 call	 ??$_Destroy_range@V?$allocator@UDummyTT13AttackInfo@@@std@@@std@@YAXPAUDummyTT13AttackInfo@@0AAV?$allocator@UDummyTT13AttackInfo@@@0@@Z ; std::_Destroy_range<std::allocator<DummyTT13AttackInfo> >
  00012	83 c4 0c	 add	 esp, 12			; 0000000cH

; 1271 : 		}

  00015	5d		 pop	 ebp
  00016	c2 08 00	 ret	 8
?_Destroy@?$vector@UDummyTT13AttackInfo@@V?$allocator@UDummyTT13AttackInfo@@@std@@@std@@IAEXPAUDummyTT13AttackInfo@@0@Z ENDP ; std::vector<DummyTT13AttackInfo,std::allocator<DummyTT13AttackInfo> >::_Destroy
_TEXT	ENDS
PUBLIC	?_Tidy@?$vector@UDummyTT13AttackInfo@@V?$allocator@UDummyTT13AttackInfo@@@std@@@std@@IAEXXZ ; std::vector<DummyTT13AttackInfo,std::allocator<DummyTT13AttackInfo> >::_Tidy
EXTRN	__imp_?_Orphan_all@_Container_base0@std@@QAEXXZ:PROC
; Function compile flags: /Ogsp
;	COMDAT ?_Tidy@?$vector@UDummyTT13AttackInfo@@V?$allocator@UDummyTT13AttackInfo@@@std@@@std@@IAEXXZ
_TEXT	SEGMENT
?_Tidy@?$vector@UDummyTT13AttackInfo@@V?$allocator@UDummyTT13AttackInfo@@@std@@@std@@IAEXXZ PROC ; std::vector<DummyTT13AttackInfo,std::allocator<DummyTT13AttackInfo> >::_Tidy, COMDAT
; _this$ = ecx

; 1301 : 		{	// free all storage

  00000	56		 push	 esi
  00001	8b f1		 mov	 esi, ecx

; 1302 : 		if (this->_Myfirst != 0)

  00003	83 3e 00	 cmp	 DWORD PTR [esi], 0
  00006	74 1e		 je	 SHORT $LN6@Tidy

; 1303 : 			{	// something to free, destroy and deallocate it
; 1304 : 			this->_Orphan_all();

  00008	ff 15 00 00 00
	00		 call	 DWORD PTR __imp_?_Orphan_all@_Container_base0@std@@QAEXXZ

; 1305 : 			_Destroy(this->_Myfirst, this->_Mylast);

  0000e	8d 46 0c	 lea	 eax, DWORD PTR [esi+12]
  00011	50		 push	 eax
  00012	ff 76 04	 push	 DWORD PTR [esi+4]
  00015	ff 36		 push	 DWORD PTR [esi]
  00017	e8 00 00 00 00	 call	 ??$_Destroy_range@V?$allocator@UDummyTT13AttackInfo@@@std@@@std@@YAXPAUDummyTT13AttackInfo@@0AAV?$allocator@UDummyTT13AttackInfo@@@0@@Z ; std::_Destroy_range<std::allocator<DummyTT13AttackInfo> >

; 1306 : 			this->_Alval.deallocate(this->_Myfirst,
; 1307 : 				this->_Myend - this->_Myfirst);

  0001c	ff 36		 push	 DWORD PTR [esi]
  0001e	e8 00 00 00 00	 call	 ??3@YAXPAX@Z		; operator delete
  00023	83 c4 10	 add	 esp, 16			; 00000010H
$LN6@Tidy:

; 1308 : 			}
; 1309 : 		this->_Myfirst = 0;

  00026	83 26 00	 and	 DWORD PTR [esi], 0

; 1310 : 		this->_Mylast = 0;

  00029	83 66 04 00	 and	 DWORD PTR [esi+4], 0

; 1311 : 		this->_Myend = 0;

  0002d	83 66 08 00	 and	 DWORD PTR [esi+8], 0
  00031	5e		 pop	 esi

; 1312 : 		}

  00032	c3		 ret	 0
?_Tidy@?$vector@UDummyTT13AttackInfo@@V?$allocator@UDummyTT13AttackInfo@@@std@@@std@@IAEXXZ ENDP ; std::vector<DummyTT13AttackInfo,std::allocator<DummyTT13AttackInfo> >::_Tidy
_TEXT	ENDS
PUBLIC	?reserve@?$vector@UDummyTT13AttackInfo@@V?$allocator@UDummyTT13AttackInfo@@@std@@@std@@QAEXI@Z ; std::vector<DummyTT13AttackInfo,std::allocator<DummyTT13AttackInfo> >::reserve
;	COMDAT xdata$x
; File c:\program files (x86)\microsoft visual studio 10.0\vc\include\xmemory
xdata$x	SEGMENT
__catchsym$?reserve@?$vector@UDummyTT13AttackInfo@@V?$allocator@UDummyTT13AttackInfo@@@std@@@std@@QAEXI@Z$2 DD 040H
	DD	00H
	DD	00H
	DD	FLAT:__catch$?reserve@?$vector@UDummyTT13AttackInfo@@V?$allocator@UDummyTT13AttackInfo@@@std@@@std@@QAEXI@Z$0
__unwindtable$?reserve@?$vector@UDummyTT13AttackInfo@@V?$allocator@UDummyTT13AttackInfo@@@std@@@std@@QAEXI@Z DD 0ffffffffH
	DD	00H
	DD	0ffffffffH
	DD	00H
__tryblocktable$?reserve@?$vector@UDummyTT13AttackInfo@@V?$allocator@UDummyTT13AttackInfo@@@std@@@std@@QAEXI@Z DD 00H
	DD	00H
	DD	01H
	DD	01H
	DD	FLAT:__catchsym$?reserve@?$vector@UDummyTT13AttackInfo@@V?$allocator@UDummyTT13AttackInfo@@@std@@@std@@QAEXI@Z$2
__ehfuncinfo$?reserve@?$vector@UDummyTT13AttackInfo@@V?$allocator@UDummyTT13AttackInfo@@@std@@@std@@QAEXI@Z DD 019930522H
	DD	02H
	DD	FLAT:__unwindtable$?reserve@?$vector@UDummyTT13AttackInfo@@V?$allocator@UDummyTT13AttackInfo@@@std@@@std@@QAEXI@Z
	DD	01H
	DD	FLAT:__tryblocktable$?reserve@?$vector@UDummyTT13AttackInfo@@V?$allocator@UDummyTT13AttackInfo@@@std@@@std@@QAEXI@Z
	DD	2 DUP(00H)
	DD	00H
	DD	01H
; Function compile flags: /Ogsp
; File c:\program files (x86)\microsoft visual studio 10.0\vc\include\vector
xdata$x	ENDS
;	COMDAT ?reserve@?$vector@UDummyTT13AttackInfo@@V?$allocator@UDummyTT13AttackInfo@@@std@@@std@@QAEXI@Z
_TEXT	SEGMENT
__$EHRec$ = -16						; size = 16
__Ptr$533527 = 8					; size = 4
__Count$ = 8						; size = 4
?reserve@?$vector@UDummyTT13AttackInfo@@V?$allocator@UDummyTT13AttackInfo@@@std@@@std@@QAEXI@Z PROC ; std::vector<DummyTT13AttackInfo,std::allocator<DummyTT13AttackInfo> >::reserve, COMDAT
; _this$ = ecx

; 746  : 		{	// determine new minimum length of allocated storage

  00000	6a 04		 push	 4
  00002	b8 00 00 00 00	 mov	 eax, __ehhandler$?reserve@?$vector@UDummyTT13AttackInfo@@V?$allocator@UDummyTT13AttackInfo@@@std@@@std@@QAEXI@Z
  00007	e8 00 00 00 00	 call	 __EH_prolog3_catch
  0000c	8b f1		 mov	 esi, ecx

; 747  : 		if (max_size() < _Count)

  0000e	8b 5d 08	 mov	 ebx, DWORD PTR __Count$[ebp]
  00011	81 fb 44 44 44
	04		 cmp	 ebx, 71582788		; 04444444H
  00017	76 0b		 jbe	 SHORT $LN5@reserve

; 748  : 			_Xlen();	// result too long

  00019	68 00 00 00 00	 push	 OFFSET ??_C@_0BD@OLBABOEK@vector?$DMT?$DO?5too?5long?$AA@
  0001e	ff 15 00 00 00
	00		 call	 DWORD PTR __imp_?_Xlength_error@std@@YAXPBD@Z
$LN38@reserve:
$LN5@reserve:

; 749  : 		else if (capacity() < _Count)

  00024	8b 46 08	 mov	 eax, DWORD PTR [esi+8]
  00027	2b 06		 sub	 eax, DWORD PTR [esi]
  00029	6a 3c		 push	 60			; 0000003cH
  0002b	99		 cdq
  0002c	59		 pop	 ecx
  0002d	f7 f9		 idiv	 ecx
  0002f	3b c3		 cmp	 eax, ebx
  00031	73 70		 jae	 SHORT $LN3@reserve

; 750  : 			{	// not enough room, reallocate
; 751  : 			pointer _Ptr = this->_Alval.allocate(_Count);

  00033	6a 00		 push	 0
  00035	53		 push	 ebx
  00036	e8 00 00 00 00	 call	 ??$_Allocate@UDummyTT13AttackInfo@@@std@@YAPAUDummyTT13AttackInfo@@IPAU1@@Z ; std::_Allocate<DummyTT13AttackInfo>

; 752  : 
; 753  : 			_TRY_BEGIN
; 754  : 			_Umove(this->_Myfirst, this->_Mylast, _Ptr);

  0003b	8b 0e		 mov	 ecx, DWORD PTR [esi]
  0003d	83 65 fc 00	 and	 DWORD PTR __$EHRec$[ebp+12], 0
  00041	8d 56 0c	 lea	 edx, DWORD PTR [esi+12]
  00044	52		 push	 edx
  00045	89 45 08	 mov	 DWORD PTR __Ptr$533527[ebp], eax
  00048	ff 75 08	 push	 DWORD PTR __Ptr$533527[ebp]
  0004b	8b 46 04	 mov	 eax, DWORD PTR [esi+4]
  0004e	50		 push	 eax
  0004f	51		 push	 ecx
  00050	e8 00 00 00 00	 call	 ??$_Uninitialized_move@PAUDummyTT13AttackInfo@@PAU1@V?$allocator@UDummyTT13AttackInfo@@@std@@@std@@YAPAUDummyTT13AttackInfo@@PAU1@00AAV?$allocator@UDummyTT13AttackInfo@@@0@@Z ; std::_Uninitialized_move<DummyTT13AttackInfo *,DummyTT13AttackInfo *,std::allocator<DummyTT13AttackInfo> >

; 758  : 			_CATCH_END
; 759  : 
; 760  : 			size_type _Size = size();

  00055	8b 0e		 mov	 ecx, DWORD PTR [esi]
  00057	8b 46 04	 mov	 eax, DWORD PTR [esi+4]
  0005a	83 c4 18	 add	 esp, 24			; 00000018H
  0005d	2b c1		 sub	 eax, ecx
  0005f	6a 3c		 push	 60			; 0000003cH
  00061	99		 cdq
  00062	5f		 pop	 edi
  00063	f7 ff		 idiv	 edi
  00065	83 4d fc ff	 or	 DWORD PTR __$EHRec$[ebp+12], -1
  00069	8b f8		 mov	 edi, eax
  0006b	85 c9		 test	 ecx, ecx
  0006d	74 17		 je	 SHORT $LN33@reserve

; 761  : 			if (this->_Myfirst != 0)
; 762  : 				{	// destroy and deallocate old array
; 763  : 				_Destroy(this->_Myfirst, this->_Mylast);

  0006f	8d 46 0c	 lea	 eax, DWORD PTR [esi+12]
  00072	50		 push	 eax
  00073	ff 76 04	 push	 DWORD PTR [esi+4]
  00076	51		 push	 ecx
  00077	e8 00 00 00 00	 call	 ??$_Destroy_range@V?$allocator@UDummyTT13AttackInfo@@@std@@@std@@YAXPAUDummyTT13AttackInfo@@0AAV?$allocator@UDummyTT13AttackInfo@@@0@@Z ; std::_Destroy_range<std::allocator<DummyTT13AttackInfo> >

; 764  : 				this->_Alval.deallocate(this->_Myfirst,
; 765  : 					this->_Myend - this->_Myfirst);

  0007c	ff 36		 push	 DWORD PTR [esi]
  0007e	e8 00 00 00 00	 call	 ??3@YAXPAX@Z		; operator delete
  00083	83 c4 10	 add	 esp, 16			; 00000010H
$LN33@reserve:

; 766  : 				}
; 767  : 
; 768  : 			this->_Orphan_all();

  00086	8b ce		 mov	 ecx, esi
  00088	ff 15 00 00 00
	00		 call	 DWORD PTR __imp_?_Orphan_all@_Container_base0@std@@QAEXXZ

; 769  : 			this->_Myend = _Ptr + _Count;

  0008e	6b db 3c	 imul	 ebx, 60			; 0000003cH

; 770  : 			this->_Mylast = _Ptr + _Size;

  00091	6b ff 3c	 imul	 edi, 60			; 0000003cH
  00094	8b 45 08	 mov	 eax, DWORD PTR __Ptr$533527[ebp]
  00097	03 d8		 add	 ebx, eax
  00099	03 f8		 add	 edi, eax
  0009b	89 5e 08	 mov	 DWORD PTR [esi+8], ebx
  0009e	89 7e 04	 mov	 DWORD PTR [esi+4], edi

; 771  : 			this->_Myfirst = _Ptr;

  000a1	89 06		 mov	 DWORD PTR [esi], eax
$LN3@reserve:

; 772  : 			}
; 773  : 		}

  000a3	e8 00 00 00 00	 call	 __EH_epilog3
  000a8	c2 04 00	 ret	 4
__catch$?reserve@?$vector@UDummyTT13AttackInfo@@V?$allocator@UDummyTT13AttackInfo@@@std@@@std@@QAEXI@Z$0:

; 755  : 			_CATCH_ALL
; 756  : 			this->_Alval.deallocate(_Ptr, _Count);

  000ab	ff 75 08	 push	 DWORD PTR __Ptr$533527[ebp]
  000ae	e8 00 00 00 00	 call	 ??3@YAXPAX@Z		; operator delete
  000b3	59		 pop	 ecx

; 757  : 			_RERAISE;

  000b4	6a 00		 push	 0
  000b6	6a 00		 push	 0
  000b8	e8 00 00 00 00	 call	 __CxxThrowException@8
$LN39@reserve:
$LN37@reserve:
  000bd	cc		 int	 3
_TEXT	ENDS
;	COMDAT text$x
text$x	SEGMENT
__ehhandler$?reserve@?$vector@UDummyTT13AttackInfo@@V?$allocator@UDummyTT13AttackInfo@@@std@@@std@@QAEXI@Z:
  00000	8b 54 24 08	 mov	 edx, DWORD PTR [esp+8]
  00004	8d 42 0c	 lea	 eax, DWORD PTR [edx+12]
  00007	8b 4a ec	 mov	 ecx, DWORD PTR [edx-20]
  0000a	33 c8		 xor	 ecx, eax
  0000c	e8 00 00 00 00	 call	 @__security_check_cookie@4
  00011	b8 00 00 00 00	 mov	 eax, OFFSET __ehfuncinfo$?reserve@?$vector@UDummyTT13AttackInfo@@V?$allocator@UDummyTT13AttackInfo@@@std@@@std@@QAEXI@Z
  00016	e9 00 00 00 00	 jmp	 ___CxxFrameHandler3
text$x	ENDS
?reserve@?$vector@UDummyTT13AttackInfo@@V?$allocator@UDummyTT13AttackInfo@@@std@@@std@@QAEXI@Z ENDP ; std::vector<DummyTT13AttackInfo,std::allocator<DummyTT13AttackInfo> >::reserve
PUBLIC	?OnProcessTraceState@ioTargetTrace13Dummy@@IAEXMK@Z ; ioTargetTrace13Dummy::OnProcessTraceState
EXTRN	?CheckExtraAniJump@ioDummyChar@@IAEXXZ:PROC	; ioDummyChar::CheckExtraAniJump
EXTRN	?CheckReservedSliding@ioDummyChar@@QAEXXZ:PROC	; ioDummyChar::CheckReservedSliding
EXTRN	?ProcessTraceTracingWait@ioDummyChar@@IAEXMK@Z:PROC ; ioDummyChar::ProcessTraceTracingWait
; Function compile flags: /Ogsp
; File d:\lost saga for developer\youtube\tutorial\source\src\lsclient\iotargettrace13dummy.cpp
;	COMDAT ?OnProcessTraceState@ioTargetTrace13Dummy@@IAEXMK@Z
_TEXT	SEGMENT
_fTimePerSec$ = 8					; size = 4
_dwPreTime$ = 12					; size = 4
?OnProcessTraceState@ioTargetTrace13Dummy@@IAEXMK@Z PROC ; ioTargetTrace13Dummy::OnProcessTraceState, COMDAT
; _this$ = ecx

; 632  : {

  00000	55		 push	 ebp
  00001	8b ec		 mov	 ebp, esp
  00003	56		 push	 esi
  00004	8b f1		 mov	 esi, ecx

; 633  : 	ioBaseChar *pOwner = GetOwner();

  00006	e8 00 00 00 00	 call	 ?GetOwner@ioDummyChar@@QBEPAVioBaseChar@@XZ ; ioDummyChar::GetOwner

; 634  : 	if( !pOwner ) 

  0000b	85 c0		 test	 eax, eax
  0000d	0f 84 ac 00 00
	00		 je	 $LN7@OnProcessT@5

; 635  : 		return;
; 636  : 
; 637  : 	ioPlayStage *pStage = pOwner->GetCreator();

  00013	57		 push	 edi
  00014	8b b8 44 03 00
	00		 mov	 edi, DWORD PTR [eax+836]

; 638  : 	if( !pStage ) 

  0001a	85 ff		 test	 edi, edi
  0001c	0f 84 9c 00 00
	00		 je	 $LN15@OnProcessT@5

; 639  : 		return;
; 640  : 
; 641  : 	DWORD dwCurTime = FRAMEGETTIME();

  00022	ff 15 00 00 00
	00		 call	 DWORD PTR __imp_?GetSingleton@ioFrameTimer@@SAAAV1@XZ
  00028	8b c8		 mov	 ecx, eax
  0002a	ff 15 00 00 00
	00		 call	 DWORD PTR __imp_?GetLoopSec@ioFrameTimer@@QBEKXZ

; 642  : 
; 643  : 	switch( m_TraceState )

  00030	8b 86 34 07 00
	00		 mov	 eax, DWORD PTR [esi+1844]
  00036	48		 dec	 eax
  00037	48		 dec	 eax
  00038	74 72		 je	 SHORT $LN5@OnProcessT@5
  0003a	48		 dec	 eax
  0003b	74 5b		 je	 SHORT $LN4@OnProcessT@5
  0003d	48		 dec	 eax
  0003e	74 33		 je	 SHORT $LN3@OnProcessT@5
  00040	48		 dec	 eax
  00041	74 1b		 je	 SHORT $LN1@OnProcessT@5
  00043	48		 dec	 eax
  00044	48		 dec	 eax
  00045	75 77		 jne	 SHORT $LN15@OnProcessT@5

; 658  : 	case DCTS_TRACING_WAIT:
; 659  : 		ProcessTraceTracingWait( fTimePerSec, dwPreTime );

  00047	ff 75 0c	 push	 DWORD PTR _dwPreTime$[ebp]
  0004a	f3 0f 10 45 08	 movss	 xmm0, DWORD PTR _fTimePerSec$[ebp]
  0004f	51		 push	 ecx
  00050	8b ce		 mov	 ecx, esi
  00052	f3 0f 11 04 24	 movss	 DWORD PTR [esp], xmm0
  00057	e8 00 00 00 00	 call	 ?ProcessTraceTracingWait@ioDummyChar@@IAEXMK@Z ; ioDummyChar::ProcessTraceTracingWait

; 660  : 		break;

  0005c	eb 60		 jmp	 SHORT $LN15@OnProcessT@5
$LN1@OnProcessT@5:

; 661  : 	case DCTS_TARGET_JUMP:
; 662  : 		OnProcessTraceJumpAttack( pStage, fTimePerSec );

  0005e	f3 0f 10 45 08	 movss	 xmm0, DWORD PTR _fTimePerSec$[ebp]
  00063	51		 push	 ecx
  00064	f3 0f 11 04 24	 movss	 DWORD PTR [esp], xmm0
  00069	57		 push	 edi
  0006a	8b ce		 mov	 ecx, esi
  0006c	e8 00 00 00 00	 call	 ?OnProcessTraceJumpAttack@ioTargetTrace13Dummy@@IAEXPAVioPlayStage@@M@Z ; ioTargetTrace13Dummy::OnProcessTraceJumpAttack

; 663  : 		break;

  00071	eb 4b		 jmp	 SHORT $LN15@OnProcessT@5
$LN3@OnProcessT@5:

; 653  : 	case DCTS_ATTACK:
; 654  : 		CheckReservedSliding();

  00073	8b ce		 mov	 ecx, esi
  00075	e8 00 00 00 00	 call	 ?CheckReservedSliding@ioDummyChar@@QAEXXZ ; ioDummyChar::CheckReservedSliding

; 655  : 		CheckExtraAniJump();

  0007a	8b ce		 mov	 ecx, esi
  0007c	e8 00 00 00 00	 call	 ?CheckExtraAniJump@ioDummyChar@@IAEXXZ ; ioDummyChar::CheckExtraAniJump

; 656  : 		OnProcessTraceAttack( fTimePerSec, dwPreTime );

  00081	ff 75 0c	 push	 DWORD PTR _dwPreTime$[ebp]
  00084	f3 0f 10 45 08	 movss	 xmm0, DWORD PTR _fTimePerSec$[ebp]
  00089	51		 push	 ecx
  0008a	8b ce		 mov	 ecx, esi
  0008c	f3 0f 11 04 24	 movss	 DWORD PTR [esp], xmm0
  00091	e8 00 00 00 00	 call	 ?OnProcessTraceAttack@ioTargetTrace13Dummy@@IAEXMK@Z ; ioTargetTrace13Dummy::OnProcessTraceAttack

; 657  : 		break;

  00096	eb 26		 jmp	 SHORT $LN15@OnProcessT@5
$LN4@OnProcessT@5:

; 649  : 		break;
; 650  : 	case DCTS_TRACING:
; 651  : 		OnProcessTraceTracing( fTimePerSec );

  00098	f3 0f 10 45 08	 movss	 xmm0, DWORD PTR _fTimePerSec$[ebp]
  0009d	51		 push	 ecx
  0009e	8b ce		 mov	 ecx, esi
  000a0	f3 0f 11 04 24	 movss	 DWORD PTR [esp], xmm0
  000a5	e8 00 00 00 00	 call	 ?OnProcessTraceTracing@ioTargetTrace13Dummy@@IAEXM@Z ; ioTargetTrace13Dummy::OnProcessTraceTracing

; 652  : 		break;

  000aa	eb 12		 jmp	 SHORT $LN15@OnProcessT@5
$LN5@OnProcessT@5:

; 644  : 	{
; 645  : 	case DCTS_NONE:
; 646  : 		break;
; 647  : 	case DCTS_SENSING:
; 648  : 		OnProcessTraceSensing( fTimePerSec );

  000ac	f3 0f 10 45 08	 movss	 xmm0, DWORD PTR _fTimePerSec$[ebp]
  000b1	51		 push	 ecx
  000b2	8b ce		 mov	 ecx, esi
  000b4	f3 0f 11 04 24	 movss	 DWORD PTR [esp], xmm0
  000b9	e8 00 00 00 00	 call	 ?OnProcessTraceSensing@ioTargetTrace13Dummy@@IAEXM@Z ; ioTargetTrace13Dummy::OnProcessTraceSensing
$LN15@OnProcessT@5:
  000be	5f		 pop	 edi
$LN7@OnProcessT@5:
  000bf	5e		 pop	 esi

; 664  : 	}
; 665  : 
; 666  : 	//CheckTraceAttack();
; 667  : }

  000c0	5d		 pop	 ebp
  000c1	c2 08 00	 ret	 8
?OnProcessTraceState@ioTargetTrace13Dummy@@IAEXMK@Z ENDP ; ioTargetTrace13Dummy::OnProcessTraceState
_TEXT	ENDS
PUBLIC	??1?$vector@UDummyTT13AttackInfo@@V?$allocator@UDummyTT13AttackInfo@@@std@@@std@@QAE@XZ ; std::vector<DummyTT13AttackInfo,std::allocator<DummyTT13AttackInfo> >::~vector<DummyTT13AttackInfo,std::allocator<DummyTT13AttackInfo> >
; Function compile flags: /Ogsp
; File c:\program files (x86)\microsoft visual studio 10.0\vc\include\vector
;	COMDAT ??1?$vector@UDummyTT13AttackInfo@@V?$allocator@UDummyTT13AttackInfo@@@std@@@std@@QAE@XZ
_TEXT	SEGMENT
??1?$vector@UDummyTT13AttackInfo@@V?$allocator@UDummyTT13AttackInfo@@@std@@@std@@QAE@XZ PROC ; std::vector<DummyTT13AttackInfo,std::allocator<DummyTT13AttackInfo> >::~vector<DummyTT13AttackInfo,std::allocator<DummyTT13AttackInfo> >, COMDAT
; _this$ = ecx

; 705  : 		_Tidy();

  00000	e9 00 00 00 00	 jmp	 ?_Tidy@?$vector@UDummyTT13AttackInfo@@V?$allocator@UDummyTT13AttackInfo@@@std@@@std@@IAEXXZ ; std::vector<DummyTT13AttackInfo,std::allocator<DummyTT13AttackInfo> >::_Tidy
??1?$vector@UDummyTT13AttackInfo@@V?$allocator@UDummyTT13AttackInfo@@@std@@@std@@QAE@XZ ENDP ; std::vector<DummyTT13AttackInfo,std::allocator<DummyTT13AttackInfo> >::~vector<DummyTT13AttackInfo,std::allocator<DummyTT13AttackInfo> >
_TEXT	ENDS
PUBLIC	?erase@?$vector@UDummyTT13AttackInfo@@V?$allocator@UDummyTT13AttackInfo@@@std@@@std@@QAE?AV?$_Vector_iterator@V?$_Vector_val@UDummyTT13AttackInfo@@V?$allocator@UDummyTT13AttackInfo@@@std@@@std@@@2@V?$_Vector_const_iterator@V?$_Vector_val@UDummyTT13AttackInfo@@V?$allocator@UDummyTT13AttackInfo@@@std@@@std@@@2@@Z ; std::vector<DummyTT13AttackInfo,std::allocator<DummyTT13AttackInfo> >::erase
; Function compile flags: /Ogsp
;	COMDAT ?erase@?$vector@UDummyTT13AttackInfo@@V?$allocator@UDummyTT13AttackInfo@@@std@@@std@@QAE?AV?$_Vector_iterator@V?$_Vector_val@UDummyTT13AttackInfo@@V?$allocator@UDummyTT13AttackInfo@@@std@@@std@@@2@V?$_Vector_const_iterator@V?$_Vector_val@UDummyTT13AttackInfo@@V?$allocator@UDummyTT13AttackInfo@@@std@@@std@@@2@@Z
_TEXT	SEGMENT
___$ReturnUdt$ = 8					; size = 4
__Cat$538815 = 12					; size = 1
__Where$ = 12						; size = 4
?erase@?$vector@UDummyTT13AttackInfo@@V?$allocator@UDummyTT13AttackInfo@@@std@@@std@@QAE?AV?$_Vector_iterator@V?$_Vector_val@UDummyTT13AttackInfo@@V?$allocator@UDummyTT13AttackInfo@@@std@@@std@@@2@V?$_Vector_const_iterator@V?$_Vector_val@UDummyTT13AttackInfo@@V?$allocator@UDummyTT13AttackInfo@@@std@@@std@@@2@@Z PROC ; std::vector<DummyTT13AttackInfo,std::allocator<DummyTT13AttackInfo> >::erase, COMDAT
; _this$ = ecx

; 1179 : 		{	// erase element at where

  00000	55		 push	 ebp
  00001	8b ec		 mov	 ebp, esp

; 1180 : 		_Move(_VIPTR(_Where) + 1, this->_Mylast,
; 1181 : 			_VIPTR(_Where));

  00003	8b 45 0c	 mov	 eax, DWORD PTR __Where$[ebp]
  00006	56		 push	 esi
  00007	ff 75 0c	 push	 DWORD PTR __Cat$538815[ebp]
  0000a	8b f1		 mov	 esi, ecx
  0000c	50		 push	 eax
  0000d	ff 76 04	 push	 DWORD PTR [esi+4]
  00010	83 c0 3c	 add	 eax, 60			; 0000003cH
  00013	50		 push	 eax
  00014	e8 00 00 00 00	 call	 ??$_Move@PAUDummyTT13AttackInfo@@PAU1@@std@@YAPAUDummyTT13AttackInfo@@PAU1@00U_Nonscalar_ptr_iterator_tag@0@@Z ; std::_Move<DummyTT13AttackInfo *,DummyTT13AttackInfo *>

; 1182 : 		_Destroy(this->_Mylast - 1, this->_Mylast);

  00019	8b 46 04	 mov	 eax, DWORD PTR [esi+4]
  0001c	8d 4e 0c	 lea	 ecx, DWORD PTR [esi+12]
  0001f	51		 push	 ecx
  00020	50		 push	 eax
  00021	83 c0 c4	 add	 eax, -60		; ffffffc4H
  00024	50		 push	 eax
  00025	e8 00 00 00 00	 call	 ??$_Destroy_range@V?$allocator@UDummyTT13AttackInfo@@@std@@@std@@YAXPAUDummyTT13AttackInfo@@0AAV?$allocator@UDummyTT13AttackInfo@@@0@@Z ; std::_Destroy_range<std::allocator<DummyTT13AttackInfo> >

; 1183 : 		--this->_Mylast;
; 1184 : 		return (_Make_iter(_Where));

  0002a	8b 45 08	 mov	 eax, DWORD PTR ___$ReturnUdt$[ebp]
  0002d	8b 4d 0c	 mov	 ecx, DWORD PTR __Where$[ebp]
  00030	83 c4 1c	 add	 esp, 28			; 0000001cH
  00033	83 46 04 c4	 add	 DWORD PTR [esi+4], -60	; ffffffc4H
  00037	89 08		 mov	 DWORD PTR [eax], ecx
  00039	5e		 pop	 esi

; 1185 : 		}

  0003a	5d		 pop	 ebp
  0003b	c2 08 00	 ret	 8
?erase@?$vector@UDummyTT13AttackInfo@@V?$allocator@UDummyTT13AttackInfo@@@std@@@std@@QAE?AV?$_Vector_iterator@V?$_Vector_val@UDummyTT13AttackInfo@@V?$allocator@UDummyTT13AttackInfo@@@std@@@std@@@2@V?$_Vector_const_iterator@V?$_Vector_val@UDummyTT13AttackInfo@@V?$allocator@UDummyTT13AttackInfo@@@std@@@std@@@2@@Z ENDP ; std::vector<DummyTT13AttackInfo,std::allocator<DummyTT13AttackInfo> >::erase
_TEXT	ENDS
PUBLIC	?_Reserve@?$vector@UDummyTT13AttackInfo@@V?$allocator@UDummyTT13AttackInfo@@@std@@@std@@IAEXI@Z ; std::vector<DummyTT13AttackInfo,std::allocator<DummyTT13AttackInfo> >::_Reserve
; Function compile flags: /Ogsp
;	COMDAT ?_Reserve@?$vector@UDummyTT13AttackInfo@@V?$allocator@UDummyTT13AttackInfo@@@std@@@std@@IAEXI@Z
_TEXT	SEGMENT
__Count$ = 8						; size = 4
?_Reserve@?$vector@UDummyTT13AttackInfo@@V?$allocator@UDummyTT13AttackInfo@@@std@@@std@@IAEXI@Z PROC ; std::vector<DummyTT13AttackInfo,std::allocator<DummyTT13AttackInfo> >::_Reserve, COMDAT
; _this$ = ecx

; 1290 : 		{	// ensure room for _Count new elements, grow exponentially

  00000	55		 push	 ebp
  00001	8b ec		 mov	 ebp, esp
  00003	56		 push	 esi
  00004	8b f1		 mov	 esi, ecx

; 1291 : 		size_type _Size = size();

  00006	8b 0e		 mov	 ecx, DWORD PTR [esi]
  00008	8b 46 04	 mov	 eax, DWORD PTR [esi+4]
  0000b	2b c1		 sub	 eax, ecx
  0000d	57		 push	 edi
  0000e	99		 cdq
  0000f	6a 3c		 push	 60			; 0000003cH
  00011	5f		 pop	 edi
  00012	f7 ff		 idiv	 edi
  00014	8b f8		 mov	 edi, eax

; 1292 : 		if (max_size() - _Count < _Size)

  00016	b8 44 44 44 04	 mov	 eax, 71582788		; 04444444H
  0001b	2b 45 08	 sub	 eax, DWORD PTR __Count$[ebp]
  0001e	3b c7		 cmp	 eax, edi
  00020	73 0b		 jae	 SHORT $LN4@Reserve

; 1293 : 			_Xlen();

  00022	68 00 00 00 00	 push	 OFFSET ??_C@_0BD@OLBABOEK@vector?$DMT?$DO?5too?5long?$AA@
  00027	ff 15 00 00 00
	00		 call	 DWORD PTR __imp_?_Xlength_error@std@@YAXPBD@Z
$LN21@Reserve:
$LN4@Reserve:

; 1294 : 		else if ((_Size += _Count) <= capacity())

  0002d	8b 46 08	 mov	 eax, DWORD PTR [esi+8]
  00030	2b c1		 sub	 eax, ecx
  00032	6a 3c		 push	 60			; 0000003cH
  00034	99		 cdq
  00035	59		 pop	 ecx
  00036	f7 f9		 idiv	 ecx
  00038	03 7d 08	 add	 edi, DWORD PTR __Count$[ebp]
  0003b	3b f8		 cmp	 edi, eax
  0003d	76 10		 jbe	 SHORT $LN1@Reserve

; 1295 : 			;
; 1296 : 		else
; 1297 : 			reserve(_Grow_to(_Size));

  0003f	57		 push	 edi
  00040	8b ce		 mov	 ecx, esi
  00042	e8 00 00 00 00	 call	 ?_Grow_to@?$vector@UDummyTT13AttackInfo@@V?$allocator@UDummyTT13AttackInfo@@@std@@@std@@IBEII@Z ; std::vector<DummyTT13AttackInfo,std::allocator<DummyTT13AttackInfo> >::_Grow_to
  00047	50		 push	 eax
  00048	8b ce		 mov	 ecx, esi
  0004a	e8 00 00 00 00	 call	 ?reserve@?$vector@UDummyTT13AttackInfo@@V?$allocator@UDummyTT13AttackInfo@@@std@@@std@@QAEXI@Z ; std::vector<DummyTT13AttackInfo,std::allocator<DummyTT13AttackInfo> >::reserve
$LN1@Reserve:
  0004f	5f		 pop	 edi
  00050	5e		 pop	 esi

; 1298 : 		}

  00051	5d		 pop	 ebp
  00052	c2 04 00	 ret	 4
$LN20@Reserve:
?_Reserve@?$vector@UDummyTT13AttackInfo@@V?$allocator@UDummyTT13AttackInfo@@@std@@@std@@IAEXI@Z ENDP ; std::vector<DummyTT13AttackInfo,std::allocator<DummyTT13AttackInfo> >::_Reserve
_TEXT	ENDS
PUBLIC	??_7ioTargetTrace13Dummy@@6BioWorldEventReceiver@@@ ; ioTargetTrace13Dummy::`vftable'
PUBLIC	??_7ioTargetTrace13Dummy@@6BioPlayEntity@@@	; ioTargetTrace13Dummy::`vftable'
PUBLIC	??0ioTargetTrace13Dummy@@QAE@PAVioEntityGroup@@PAVioPlayMode@@@Z ; ioTargetTrace13Dummy::ioTargetTrace13Dummy
PUBLIC	??_R4ioTargetTrace13Dummy@@6BioPlayEntity@@@	; ioTargetTrace13Dummy::`RTTI Complete Object Locator'
PUBLIC	??_R0?AVioTargetTrace13Dummy@@@8		; ioTargetTrace13Dummy `RTTI Type Descriptor'
PUBLIC	??_R3ioTargetTrace13Dummy@@8			; ioTargetTrace13Dummy::`RTTI Class Hierarchy Descriptor'
PUBLIC	??_R2ioTargetTrace13Dummy@@8			; ioTargetTrace13Dummy::`RTTI Base Class Array'
PUBLIC	??_R1A@?0A@EA@ioTargetTrace13Dummy@@8		; ioTargetTrace13Dummy::`RTTI Base Class Descriptor at (0,-1,0,64)'
PUBLIC	??_R1A@?0A@EA@ioDummyChar@@8			; ioDummyChar::`RTTI Base Class Descriptor at (0,-1,0,64)'
PUBLIC	??_R0?AVioDummyChar@@@8				; ioDummyChar `RTTI Type Descriptor'
PUBLIC	??_R3ioDummyChar@@8				; ioDummyChar::`RTTI Class Hierarchy Descriptor'
PUBLIC	??_R2ioDummyChar@@8				; ioDummyChar::`RTTI Base Class Array'
PUBLIC	??_R1A@?0A@EA@ioPlayEntity@@8			; ioPlayEntity::`RTTI Base Class Descriptor at (0,-1,0,64)'
PUBLIC	??_R0?AVioPlayEntity@@@8			; ioPlayEntity `RTTI Type Descriptor'
PUBLIC	??_R3ioPlayEntity@@8				; ioPlayEntity::`RTTI Class Hierarchy Descriptor'
PUBLIC	??_R2ioPlayEntity@@8				; ioPlayEntity::`RTTI Base Class Array'
PUBLIC	??_R1A@?0A@EA@ioGameEntity@@8			; ioGameEntity::`RTTI Base Class Descriptor at (0,-1,0,64)'
PUBLIC	??_R0?AVioGameEntity@@@8			; ioGameEntity `RTTI Type Descriptor'
PUBLIC	??_R3ioGameEntity@@8				; ioGameEntity::`RTTI Class Hierarchy Descriptor'
PUBLIC	??_R2ioGameEntity@@8				; ioGameEntity::`RTTI Base Class Array'
PUBLIC	??_R1A@?0A@EA@ioEntityEvent@@8			; ioEntityEvent::`RTTI Base Class Descriptor at (0,-1,0,64)'
PUBLIC	??_R0?AVioEntityEvent@@@8			; ioEntityEvent `RTTI Type Descriptor'
PUBLIC	??_R3ioEntityEvent@@8				; ioEntityEvent::`RTTI Class Hierarchy Descriptor'
PUBLIC	??_R2ioEntityEvent@@8				; ioEntityEvent::`RTTI Base Class Array'
PUBLIC	??_R1BMI@?0A@EA@ioWorldEventReceiver@@8		; ioWorldEventReceiver::`RTTI Base Class Descriptor at (456,-1,0,64)'
PUBLIC	??_R0?AVioWorldEventReceiver@@@8		; ioWorldEventReceiver `RTTI Type Descriptor'
PUBLIC	??_R3ioWorldEventReceiver@@8			; ioWorldEventReceiver::`RTTI Class Hierarchy Descriptor'
PUBLIC	??_R2ioWorldEventReceiver@@8			; ioWorldEventReceiver::`RTTI Base Class Array'
PUBLIC	??_R1A@?0A@EA@ioWorldEventReceiver@@8		; ioWorldEventReceiver::`RTTI Base Class Descriptor at (0,-1,0,64)'
PUBLIC	?LoadProperty@ioTargetTrace13Dummy@@UAEXAAVioINILoader@@@Z ; ioTargetTrace13Dummy::LoadProperty
PUBLIC	?SetTeam@ioPlayEntity@@UAEXW4TeamType@@@Z	; ioPlayEntity::SetTeam
PUBLIC	?ProcessState@ioTargetTrace13Dummy@@MAEXMK@Z	; ioTargetTrace13Dummy::ProcessState
PUBLIC	?ProcessDelayState@ioTargetTrace13Dummy@@MAEXM@Z ; ioTargetTrace13Dummy::ProcessDelayState
PUBLIC	?ApplyDummyCharSync@ioTargetTrace13Dummy@@UAEXPAVioPlayStage@@AAVSP2Packet@@@Z ; ioTargetTrace13Dummy::ApplyDummyCharSync
PUBLIC	?IsDummyCharMidSync@ioDummyChar@@UAE_NXZ	; ioDummyChar::IsDummyCharMidSync
PUBLIC	??_R4ioTargetTrace13Dummy@@6BioWorldEventReceiver@@@ ; ioTargetTrace13Dummy::`RTTI Complete Object Locator'
PUBLIC	??_EioTargetTrace13Dummy@@WBMI@AEPAXI@Z		; [thunk]:ioTargetTrace13Dummy::`vector deleting destructor'
EXTRN	??1ioDummyChar@@UAE@XZ:PROC			; ioDummyChar::~ioDummyChar
EXTRN	??0ioDummyChar@@QAE@PAVioEntityGroup@@PAVioPlayMode@@@Z:PROC ; ioDummyChar::ioDummyChar
EXTRN	?AddEntityEvent@ioDummyChar@@UAEXPAVioEntity@@@Z:PROC ; ioDummyChar::AddEntityEvent
EXTRN	??_EioTargetTrace13Dummy@@UAEPAXI@Z:PROC	; ioTargetTrace13Dummy::`vector deleting destructor'
EXTRN	?Update@ioDummyChar@@UAEXMKK@Z:PROC		; ioDummyChar::Update
EXTRN	?UpdateAfter@ioDummyChar@@UAEXM@Z:PROC		; ioDummyChar::UpdateAfter
EXTRN	?GetTypeID@ioPlayEntity@@UBEHXZ:PROC		; ioPlayEntity::GetTypeID
EXTRN	?IsNeedCheckMapCollision@ioDummyChar@@UBE_NXZ:PROC ; ioDummyChar::IsNeedCheckMapCollision
EXTRN	?IsMountAvailable@ioDummyChar@@UBE_NXZ:PROC	; ioDummyChar::IsMountAvailable
EXTRN	?IsMountingAvailable@ioDummyChar@@UBE_NXZ:PROC	; ioDummyChar::IsMountingAvailable
EXTRN	?IsNowMountEnable@ioDummyChar@@UBE_NXZ:PROC	; ioDummyChar::IsNowMountEnable
EXTRN	?IsAllWeaponDefence@ioGameEntity@@UBE_NXZ:PROC	; ioGameEntity::IsAllWeaponDefence
EXTRN	?HasEntity@ioGameEntity@@UAE_NABVioHashString@@@Z:PROC ; ioGameEntity::HasEntity
EXTRN	?AddEntity@ioGameEntity@@UAEPAVioEntity@@ABVioHashString@@@Z:PROC ; ioGameEntity::AddEntity
EXTRN	?DestroyEntity@ioGameEntity@@UAE_NABVioHashString@@@Z:PROC ; ioGameEntity::DestroyEntity
EXTRN	?GetEntity@ioGameEntity@@UAEPAVioEntity@@ABVioHashString@@@Z:PROC ; ioGameEntity::GetEntity
EXTRN	?UpdateBound@ioGameEntity@@MBEXXZ:PROC		; ioGameEntity::UpdateBound
EXTRN	?UpdateBottomHeight@ioDummyChar@@MBEXXZ:PROC	; ioDummyChar::UpdateBottomHeight
EXTRN	?NeedUpdateBottomHeight@ioDummyChar@@UAEXXZ:PROC ; ioDummyChar::NeedUpdateBottomHeight
EXTRN	?SetWorldPosition@ioGameEntity@@UAEXABUD3DXVECTOR3@@@Z:PROC ; ioGameEntity::SetWorldPosition
EXTRN	?SetWorldOrientation@ioGameEntity@@UAEXABUD3DXQUATERNION@@@Z:PROC ; ioGameEntity::SetWorldOrientation
EXTRN	?SetWorldScale@ioGameEntity@@UAEXABUD3DXVECTOR3@@@Z:PROC ; ioGameEntity::SetWorldScale
EXTRN	?Translate@ioDummyChar@@UAEXABUD3DXVECTOR3@@@Z:PROC ; ioDummyChar::Translate
EXTRN	?TranslateByConveyer@ioDummyChar@@UAEXABUD3DXVECTOR3@@@Z:PROC ; ioDummyChar::TranslateByConveyer
EXTRN	?TranslateByWorldEntity@ioDummyChar@@UAEXABUD3DXVECTOR3@@@Z:PROC ; ioDummyChar::TranslateByWorldEntity
EXTRN	?MapCollisionPushingTranslate@ioDummyChar@@UAEXABUD3DXVECTOR3@@@Z:PROC ; ioDummyChar::MapCollisionPushingTranslate
EXTRN	?DontMoveCollisionPushingTranslate@ioGameEntity@@UAEXPAV1@ABUD3DXVECTOR3@@@Z:PROC ; ioGameEntity::DontMoveCollisionPushingTranslate
EXTRN	?Rotate@ioGameEntity@@UAEXABUD3DXVECTOR3@@MW4TransformSpace@ioNode@@@Z:PROC ; ioGameEntity::Rotate
EXTRN	?Scale@ioGameEntity@@UAEXMMM@Z:PROC		; ioGameEntity::Scale
EXTRN	?Scale@ioGameEntity@@UAEXABUD3DXVECTOR3@@@Z:PROC ; ioGameEntity::Scale
EXTRN	?GetWorldPosition@ioGameEntity@@UBEABUD3DXVECTOR3@@XZ:PROC ; ioGameEntity::GetWorldPosition
EXTRN	?GetWorldOrientation@ioGameEntity@@UBEABUD3DXQUATERNION@@XZ:PROC ; ioGameEntity::GetWorldOrientation
EXTRN	?GetWorldScale@ioGameEntity@@UBEABUD3DXVECTOR3@@XZ:PROC ; ioGameEntity::GetWorldScale
EXTRN	?ApplyWeapon@ioDummyChar@@UAE?AW4ApplyWeaponExp@@PAVioWeapon@@@Z:PROC ; ioDummyChar::ApplyWeapon
EXTRN	?IsCollisionAvailableWeapon@ioDummyChar@@UAE_NPAVioWeapon@@@Z:PROC ; ioDummyChar::IsCollisionAvailableWeapon
EXTRN	?IsCollisionAvailableRange@ioPlayEntity@@UAE_NPAVioWeapon@@@Z:PROC ; ioPlayEntity::IsCollisionAvailableRange
EXTRN	?IsEntityCollisionSkipState@ioDummyChar@@UBE_NPAVioGameEntity@@@Z:PROC ; ioDummyChar::IsEntityCollisionSkipState
EXTRN	?IsCharCollisionSkipState@ioDummyChar@@UBE_NW4TeamType@@H@Z:PROC ; ioDummyChar::IsCharCollisionSkipState
EXTRN	?IsWoundedCollision@ioPlayEntity@@UBE_NABVioOrientBox@@PAUD3DXVECTOR3@@@Z:PROC ; ioPlayEntity::IsWoundedCollision
EXTRN	?GetAttackCollisionBox@ioDummyChar@@UAE?AVioOrientBox@@W4AniCollisionType@@_N@Z:PROC ; ioDummyChar::GetAttackCollisionBox
EXTRN	?CheckSphereDistance@ioPlayEntity@@UBE_NABUD3DXVECTOR3@@MAAM@Z:PROC ; ioPlayEntity::CheckSphereDistance
EXTRN	?CheckSpherePoint@ioPlayEntity@@UBE_NABUD3DXVECTOR3@@MAAU2@@Z:PROC ; ioPlayEntity::CheckSpherePoint
EXTRN	?CheckCylinderPoint@ioPlayEntity@@UBE_NABVioCylinder@@ABUD3DXVECTOR3@@AAU3@@Z:PROC ; ioPlayEntity::CheckCylinderPoint
EXTRN	?GetSubType@ioDummyChar@@UBE?AW4PlaySubType@ioPlayEntity@@XZ:PROC ; ioDummyChar::GetSubType
EXTRN	?GetArmorType@ioDummyChar@@UBE?AW4ArmorType@@XZ:PROC ; ioDummyChar::GetArmorType
EXTRN	?DontMoveEntityLevel@ioDummyChar@@UBEHXZ:PROC	; ioDummyChar::DontMoveEntityLevel
EXTRN	?NotifyDontMoveCollisionPushingSkip@ioPlayEntity@@UAEXPAVioGameEntity@@@Z:PROC ; ioPlayEntity::NotifyDontMoveCollisionPushingSkip
EXTRN	?GetWorldEventReceiver@ioDummyChar@@UAEPAVioWorldEventReceiver@@XZ:PROC ; ioDummyChar::GetWorldEventReceiver
EXTRN	?Revival@ioPlayEntity@@UAEXXZ:PROC		; ioPlayEntity::Revival
EXTRN	?UpdateGauge@ioDummyChar@@UAEXXZ:PROC		; ioDummyChar::UpdateGauge
EXTRN	?RenderGauge@ioDummyChar@@UAEXXZ:PROC		; ioDummyChar::RenderGauge
EXTRN	?FillMaxHP@ioPlayEntity@@UAEXXZ:PROC		; ioPlayEntity::FillMaxHP
EXTRN	?ProcessRecovery@ioPlayEntity@@MAEXXZ:PROC	; ioPlayEntity::ProcessRecovery
EXTRN	?AddHeadDamageInfo@ioPlayEntity@@UAEXH_N@Z:PROC	; ioPlayEntity::AddHeadDamageInfo
EXTRN	?RenderHeadInfoList@ioPlayEntity@@UAEXHH@Z:PROC	; ioPlayEntity::RenderHeadInfoList
EXTRN	?UpdateHeadInfoList@ioPlayEntity@@MAEXK@Z:PROC	; ioPlayEntity::UpdateHeadInfoList
EXTRN	?TestMapCollision@ioDummyChar@@UAE_NPAVioOpcodeShape@@PAVioPlayStage@@PBUD3DXMATRIX@@@Z:PROC ; ioDummyChar::TestMapCollision
EXTRN	?CheckEntityCollision@ioDummyChar@@UAEXPAVioPlayEntity@@@Z:PROC ; ioDummyChar::CheckEntityCollision
EXTRN	?GetDummyGrassType@ioDummyChar@@UAEHXZ:PROC	; ioDummyChar::GetDummyGrassType
EXTRN	?IsActivateWeapon@ioDummyChar@@UAE_NXZ:PROC	; ioDummyChar::IsActivateWeapon
EXTRN	?IsDummyVsDummyCollisionSkipState@ioDummyChar@@UAE_NPBV1@@Z:PROC ; ioDummyChar::IsDummyVsDummyCollisionSkipState
EXTRN	?ProcessPos@ioDummyChar@@MAEXM@Z:PROC		; ioDummyChar::ProcessPos
EXTRN	?ProcessMoveState@ioDummyChar@@MAEXM@Z:PROC	; ioDummyChar::ProcessMoveState
EXTRN	?ProcessDashState@ioDummyChar@@MAEXM@Z:PROC	; ioDummyChar::ProcessDashState
EXTRN	?ProcessAttackState@ioDummyChar@@MAEXMK@Z:PROC	; ioDummyChar::ProcessAttackState
EXTRN	?SetDelayState@ioDummyChar@@UAEX_N@Z:PROC	; ioDummyChar::SetDelayState
EXTRN	?SetMoveState@ioDummyChar@@UAEXXZ:PROC		; ioDummyChar::SetMoveState
EXTRN	?SetDashState@ioDummyChar@@UAEXXZ:PROC		; ioDummyChar::SetDashState
EXTRN	?SetAttackState@ioDummyChar@@UAEXXZ:PROC	; ioDummyChar::SetAttackState
EXTRN	?DropZoneCheck@ioDummyChar@@MAEXXZ:PROC		; ioDummyChar::DropZoneCheck
EXTRN	?SendAttackInfoToSkill@ioDummyChar@@MAEXXZ:PROC	; ioDummyChar::SendAttackInfoToSkill
EXTRN	?CheckCollisionWeapon@ioDummyChar@@UAEXPAVioBaseChar@@@Z:PROC ; ioDummyChar::CheckCollisionWeapon
EXTRN	?TranslateMountEntity@ioDummyChar@@MAEXABUD3DXVECTOR3@@@Z:PROC ; ioDummyChar::TranslateMountEntity
EXTRN	?ClearMountEntity@ioDummyChar@@MAEXXZ:PROC	; ioDummyChar::ClearMountEntity
EXTRN	?UpdateMountedEntityList@ioDummyChar@@MAEXXZ:PROC ; ioDummyChar::UpdateMountedEntityList
EXTRN	?UpdateMountedWeaponList@ioDummyChar@@MAEXXZ:PROC ; ioDummyChar::UpdateMountedWeaponList
EXTRN	?SetWorldPositionMountEntity@ioDummyChar@@MAEXM@Z:PROC ; ioDummyChar::SetWorldPositionMountEntity
EXTRN	?DummyDieClearMountEntity@ioDummyChar@@MAEXXZ:PROC ; ioDummyChar::DummyDieClearMountEntity
EXTRN	?FillDummyCharMidSync@ioDummyChar@@UAEXPAVioBaseChar@@AAVSP2Packet@@@Z:PROC ; ioDummyChar::FillDummyCharMidSync
EXTRN	?ApplyDummyCharMidSync@ioDummyChar@@UAEXPAVioBaseChar@@AAVSP2Packet@@@Z:PROC ; ioDummyChar::ApplyDummyCharMidSync
EXTRN	?GetSkillMaxActiveCnt@ioDummyChar@@UAEHXZ:PROC	; ioDummyChar::GetSkillMaxActiveCnt
EXTRN	?GetSkillCurActiveCnt@ioDummyChar@@UAEHXZ:PROC	; ioDummyChar::GetSkillCurActiveCnt
EXTRN	?OnTelepotation@ioDummyChar@@UAEXABUD3DXVECTOR3@@@Z:PROC ; ioDummyChar::OnTelepotation
EXTRN	?OnFireZoneDamage@ioDummyChar@@UAEXMABVioHashString@@@Z:PROC ; ioDummyChar::OnFireZoneDamage
EXTRN	?OnPoisonZoneDamage@ioDummyChar@@UAEXXZ:PROC	; ioDummyChar::OnPoisonZoneDamage
;	COMDAT ??_R4ioTargetTrace13Dummy@@6BioWorldEventReceiver@@@
; File c:\program files (x86)\microsoft directx sdk (june 2010)\include\d3dx9math.h
rdata$r	SEGMENT
??_R4ioTargetTrace13Dummy@@6BioWorldEventReceiver@@@ DD 00H ; ioTargetTrace13Dummy::`RTTI Complete Object Locator'
	DD	01c8H
	DD	00H
	DD	FLAT:??_R0?AVioTargetTrace13Dummy@@@8
	DD	FLAT:??_R3ioTargetTrace13Dummy@@8
rdata$r	ENDS
;	COMDAT ??_R1A@?0A@EA@ioWorldEventReceiver@@8
rdata$r	SEGMENT
??_R1A@?0A@EA@ioWorldEventReceiver@@8 DD FLAT:??_R0?AVioWorldEventReceiver@@@8 ; ioWorldEventReceiver::`RTTI Base Class Descriptor at (0,-1,0,64)'
	DD	00H
	DD	00H
	DD	0ffffffffH
	DD	00H
	DD	040H
	DD	FLAT:??_R3ioWorldEventReceiver@@8
rdata$r	ENDS
;	COMDAT ??_R2ioWorldEventReceiver@@8
rdata$r	SEGMENT
??_R2ioWorldEventReceiver@@8 DD FLAT:??_R1A@?0A@EA@ioWorldEventReceiver@@8 ; ioWorldEventReceiver::`RTTI Base Class Array'
rdata$r	ENDS
;	COMDAT ??_R3ioWorldEventReceiver@@8
rdata$r	SEGMENT
??_R3ioWorldEventReceiver@@8 DD 00H			; ioWorldEventReceiver::`RTTI Class Hierarchy Descriptor'
	DD	00H
	DD	01H
	DD	FLAT:??_R2ioWorldEventReceiver@@8
rdata$r	ENDS
;	COMDAT ??_R0?AVioWorldEventReceiver@@@8
_DATA	SEGMENT
??_R0?AVioWorldEventReceiver@@@8 DD FLAT:??_7type_info@@6B@ ; ioWorldEventReceiver `RTTI Type Descriptor'
	DD	00H
	DB	'.?AVioWorldEventReceiver@@', 00H
_DATA	ENDS
;	COMDAT ??_R1BMI@?0A@EA@ioWorldEventReceiver@@8
rdata$r	SEGMENT
??_R1BMI@?0A@EA@ioWorldEventReceiver@@8 DD FLAT:??_R0?AVioWorldEventReceiver@@@8 ; ioWorldEventReceiver::`RTTI Base Class Descriptor at (456,-1,0,64)'
	DD	00H
	DD	01c8H
	DD	0ffffffffH
	DD	00H
	DD	040H
	DD	FLAT:??_R3ioWorldEventReceiver@@8
rdata$r	ENDS
;	COMDAT ??_R2ioEntityEvent@@8
rdata$r	SEGMENT
??_R2ioEntityEvent@@8 DD FLAT:??_R1A@?0A@EA@ioEntityEvent@@8 ; ioEntityEvent::`RTTI Base Class Array'
rdata$r	ENDS
;	COMDAT ??_R3ioEntityEvent@@8
rdata$r	SEGMENT
??_R3ioEntityEvent@@8 DD 00H				; ioEntityEvent::`RTTI Class Hierarchy Descriptor'
	DD	00H
	DD	01H
	DD	FLAT:??_R2ioEntityEvent@@8
rdata$r	ENDS
;	COMDAT ??_R0?AVioEntityEvent@@@8
_DATA	SEGMENT
??_R0?AVioEntityEvent@@@8 DD FLAT:??_7type_info@@6B@	; ioEntityEvent `RTTI Type Descriptor'
	DD	00H
	DB	'.?AVioEntityEvent@@', 00H
_DATA	ENDS
;	COMDAT ??_R1A@?0A@EA@ioEntityEvent@@8
rdata$r	SEGMENT
??_R1A@?0A@EA@ioEntityEvent@@8 DD FLAT:??_R0?AVioEntityEvent@@@8 ; ioEntityEvent::`RTTI Base Class Descriptor at (0,-1,0,64)'
	DD	00H
	DD	00H
	DD	0ffffffffH
	DD	00H
	DD	040H
	DD	FLAT:??_R3ioEntityEvent@@8
rdata$r	ENDS
;	COMDAT ??_R2ioGameEntity@@8
rdata$r	SEGMENT
??_R2ioGameEntity@@8 DD FLAT:??_R1A@?0A@EA@ioGameEntity@@8 ; ioGameEntity::`RTTI Base Class Array'
	DD	FLAT:??_R1A@?0A@EA@ioEntityEvent@@8
rdata$r	ENDS
;	COMDAT ??_R3ioGameEntity@@8
rdata$r	SEGMENT
??_R3ioGameEntity@@8 DD 00H				; ioGameEntity::`RTTI Class Hierarchy Descriptor'
	DD	00H
	DD	02H
	DD	FLAT:??_R2ioGameEntity@@8
rdata$r	ENDS
;	COMDAT ??_R0?AVioGameEntity@@@8
_DATA	SEGMENT
??_R0?AVioGameEntity@@@8 DD FLAT:??_7type_info@@6B@	; ioGameEntity `RTTI Type Descriptor'
	DD	00H
	DB	'.?AVioGameEntity@@', 00H
_DATA	ENDS
;	COMDAT ??_R1A@?0A@EA@ioGameEntity@@8
rdata$r	SEGMENT
??_R1A@?0A@EA@ioGameEntity@@8 DD FLAT:??_R0?AVioGameEntity@@@8 ; ioGameEntity::`RTTI Base Class Descriptor at (0,-1,0,64)'
	DD	01H
	DD	00H
	DD	0ffffffffH
	DD	00H
	DD	040H
	DD	FLAT:??_R3ioGameEntity@@8
rdata$r	ENDS
;	COMDAT ??_R2ioPlayEntity@@8
rdata$r	SEGMENT
??_R2ioPlayEntity@@8 DD FLAT:??_R1A@?0A@EA@ioPlayEntity@@8 ; ioPlayEntity::`RTTI Base Class Array'
	DD	FLAT:??_R1A@?0A@EA@ioGameEntity@@8
	DD	FLAT:??_R1A@?0A@EA@ioEntityEvent@@8
rdata$r	ENDS
;	COMDAT ??_R3ioPlayEntity@@8
rdata$r	SEGMENT
??_R3ioPlayEntity@@8 DD 00H				; ioPlayEntity::`RTTI Class Hierarchy Descriptor'
	DD	00H
	DD	03H
	DD	FLAT:??_R2ioPlayEntity@@8
rdata$r	ENDS
;	COMDAT ??_R0?AVioPlayEntity@@@8
_DATA	SEGMENT
??_R0?AVioPlayEntity@@@8 DD FLAT:??_7type_info@@6B@	; ioPlayEntity `RTTI Type Descriptor'
	DD	00H
	DB	'.?AVioPlayEntity@@', 00H
_DATA	ENDS
;	COMDAT ??_R1A@?0A@EA@ioPlayEntity@@8
rdata$r	SEGMENT
??_R1A@?0A@EA@ioPlayEntity@@8 DD FLAT:??_R0?AVioPlayEntity@@@8 ; ioPlayEntity::`RTTI Base Class Descriptor at (0,-1,0,64)'
	DD	02H
	DD	00H
	DD	0ffffffffH
	DD	00H
	DD	040H
	DD	FLAT:??_R3ioPlayEntity@@8
rdata$r	ENDS
;	COMDAT ??_R2ioDummyChar@@8
rdata$r	SEGMENT
??_R2ioDummyChar@@8 DD FLAT:??_R1A@?0A@EA@ioDummyChar@@8 ; ioDummyChar::`RTTI Base Class Array'
	DD	FLAT:??_R1A@?0A@EA@ioPlayEntity@@8
	DD	FLAT:??_R1A@?0A@EA@ioGameEntity@@8
	DD	FLAT:??_R1A@?0A@EA@ioEntityEvent@@8
	DD	FLAT:??_R1BMI@?0A@EA@ioWorldEventReceiver@@8
rdata$r	ENDS
;	COMDAT ??_R3ioDummyChar@@8
rdata$r	SEGMENT
??_R3ioDummyChar@@8 DD 00H				; ioDummyChar::`RTTI Class Hierarchy Descriptor'
	DD	01H
	DD	05H
	DD	FLAT:??_R2ioDummyChar@@8
rdata$r	ENDS
;	COMDAT ??_R0?AVioDummyChar@@@8
_DATA	SEGMENT
??_R0?AVioDummyChar@@@8 DD FLAT:??_7type_info@@6B@	; ioDummyChar `RTTI Type Descriptor'
	DD	00H
	DB	'.?AVioDummyChar@@', 00H
_DATA	ENDS
;	COMDAT ??_R1A@?0A@EA@ioDummyChar@@8
rdata$r	SEGMENT
??_R1A@?0A@EA@ioDummyChar@@8 DD FLAT:??_R0?AVioDummyChar@@@8 ; ioDummyChar::`RTTI Base Class Descriptor at (0,-1,0,64)'
	DD	04H
	DD	00H
	DD	0ffffffffH
	DD	00H
	DD	040H
	DD	FLAT:??_R3ioDummyChar@@8
rdata$r	ENDS
;	COMDAT ??_R1A@?0A@EA@ioTargetTrace13Dummy@@8
rdata$r	SEGMENT
??_R1A@?0A@EA@ioTargetTrace13Dummy@@8 DD FLAT:??_R0?AVioTargetTrace13Dummy@@@8 ; ioTargetTrace13Dummy::`RTTI Base Class Descriptor at (0,-1,0,64)'
	DD	05H
	DD	00H
	DD	0ffffffffH
	DD	00H
	DD	040H
	DD	FLAT:??_R3ioTargetTrace13Dummy@@8
rdata$r	ENDS
;	COMDAT ??_R2ioTargetTrace13Dummy@@8
rdata$r	SEGMENT
??_R2ioTargetTrace13Dummy@@8 DD FLAT:??_R1A@?0A@EA@ioTargetTrace13Dummy@@8 ; ioTargetTrace13Dummy::`RTTI Base Class Array'
	DD	FLAT:??_R1A@?0A@EA@ioDummyChar@@8
	DD	FLAT:??_R1A@?0A@EA@ioPlayEntity@@8
	DD	FLAT:??_R1A@?0A@EA@ioGameEntity@@8
	DD	FLAT:??_R1A@?0A@EA@ioEntityEvent@@8
	DD	FLAT:??_R1BMI@?0A@EA@ioWorldEventReceiver@@8
rdata$r	ENDS
;	COMDAT ??_R3ioTargetTrace13Dummy@@8
rdata$r	SEGMENT
??_R3ioTargetTrace13Dummy@@8 DD 00H			; ioTargetTrace13Dummy::`RTTI Class Hierarchy Descriptor'
	DD	01H
	DD	06H
	DD	FLAT:??_R2ioTargetTrace13Dummy@@8
rdata$r	ENDS
;	COMDAT ??_R0?AVioTargetTrace13Dummy@@@8
_DATA	SEGMENT
??_R0?AVioTargetTrace13Dummy@@@8 DD FLAT:??_7type_info@@6B@ ; ioTargetTrace13Dummy `RTTI Type Descriptor'
	DD	00H
	DB	'.?AVioTargetTrace13Dummy@@', 00H
_DATA	ENDS
;	COMDAT ??_R4ioTargetTrace13Dummy@@6BioPlayEntity@@@
rdata$r	SEGMENT
??_R4ioTargetTrace13Dummy@@6BioPlayEntity@@@ DD 00H	; ioTargetTrace13Dummy::`RTTI Complete Object Locator'
	DD	00H
	DD	00H
	DD	FLAT:??_R0?AVioTargetTrace13Dummy@@@8
	DD	FLAT:??_R3ioTargetTrace13Dummy@@8
rdata$r	ENDS
;	COMDAT ??_7ioTargetTrace13Dummy@@6BioWorldEventReceiver@@@
CONST	SEGMENT
??_7ioTargetTrace13Dummy@@6BioWorldEventReceiver@@@ DD FLAT:??_R4ioTargetTrace13Dummy@@6BioWorldEventReceiver@@@ ; ioTargetTrace13Dummy::`vftable'
	DD	FLAT:?OnTelepotation@ioDummyChar@@UAEXABUD3DXVECTOR3@@@Z
	DD	FLAT:?OnFireZoneDamage@ioDummyChar@@UAEXMABVioHashString@@@Z
	DD	FLAT:?OnPoisonZoneDamage@ioDummyChar@@UAEXXZ
	DD	FLAT:??_EioTargetTrace13Dummy@@WBMI@AEPAXI@Z
CONST	ENDS
;	COMDAT ??_7ioTargetTrace13Dummy@@6BioPlayEntity@@@
CONST	SEGMENT
??_7ioTargetTrace13Dummy@@6BioPlayEntity@@@ DD FLAT:??_R4ioTargetTrace13Dummy@@6BioPlayEntity@@@ ; ioTargetTrace13Dummy::`vftable'
	DD	FLAT:?AddEntityEvent@ioDummyChar@@UAEXPAVioEntity@@@Z
	DD	FLAT:??_EioTargetTrace13Dummy@@UAEPAXI@Z
	DD	FLAT:?Update@ioDummyChar@@UAEXMKK@Z
	DD	FLAT:?UpdateAfter@ioDummyChar@@UAEXM@Z
	DD	FLAT:?GetTypeID@ioPlayEntity@@UBEHXZ
	DD	FLAT:?IsNeedCheckMapCollision@ioDummyChar@@UBE_NXZ
	DD	FLAT:?IsMountAvailable@ioDummyChar@@UBE_NXZ
	DD	FLAT:?IsMountingAvailable@ioDummyChar@@UBE_NXZ
	DD	FLAT:?IsNowMountEnable@ioDummyChar@@UBE_NXZ
	DD	FLAT:?IsAllWeaponDefence@ioGameEntity@@UBE_NXZ
	DD	FLAT:?HasEntity@ioGameEntity@@UAE_NABVioHashString@@@Z
	DD	FLAT:?AddEntity@ioGameEntity@@UAEPAVioEntity@@ABVioHashString@@@Z
	DD	FLAT:?DestroyEntity@ioGameEntity@@UAE_NABVioHashString@@@Z
	DD	FLAT:?GetEntity@ioGameEntity@@UAEPAVioEntity@@ABVioHashString@@@Z
	DD	FLAT:?UpdateBound@ioGameEntity@@MBEXXZ
	DD	FLAT:?UpdateBottomHeight@ioDummyChar@@MBEXXZ
	DD	FLAT:?NeedUpdateBottomHeight@ioDummyChar@@UAEXXZ
	DD	FLAT:?SetWorldPosition@ioGameEntity@@UAEXABUD3DXVECTOR3@@@Z
	DD	FLAT:?SetWorldOrientation@ioGameEntity@@UAEXABUD3DXQUATERNION@@@Z
	DD	FLAT:?SetWorldScale@ioGameEntity@@UAEXABUD3DXVECTOR3@@@Z
	DD	FLAT:?Translate@ioDummyChar@@UAEXABUD3DXVECTOR3@@@Z
	DD	FLAT:?TranslateByConveyer@ioDummyChar@@UAEXABUD3DXVECTOR3@@@Z
	DD	FLAT:?TranslateByWorldEntity@ioDummyChar@@UAEXABUD3DXVECTOR3@@@Z
	DD	FLAT:?MapCollisionPushingTranslate@ioDummyChar@@UAEXABUD3DXVECTOR3@@@Z
	DD	FLAT:?DontMoveCollisionPushingTranslate@ioGameEntity@@UAEXPAV1@ABUD3DXVECTOR3@@@Z
	DD	FLAT:?Rotate@ioGameEntity@@UAEXABUD3DXVECTOR3@@MW4TransformSpace@ioNode@@@Z
	DD	FLAT:?Scale@ioGameEntity@@UAEXMMM@Z
	DD	FLAT:?Scale@ioGameEntity@@UAEXABUD3DXVECTOR3@@@Z
	DD	FLAT:?GetWorldPosition@ioGameEntity@@UBEABUD3DXVECTOR3@@XZ
	DD	FLAT:?GetWorldOrientation@ioGameEntity@@UBEABUD3DXQUATERNION@@XZ
	DD	FLAT:?GetWorldScale@ioGameEntity@@UBEABUD3DXVECTOR3@@XZ
	DD	FLAT:?ApplyWeapon@ioDummyChar@@UAE?AW4ApplyWeaponExp@@PAVioWeapon@@@Z
	DD	FLAT:?IsCollisionAvailableWeapon@ioDummyChar@@UAE_NPAVioWeapon@@@Z
	DD	FLAT:?IsCollisionAvailableRange@ioPlayEntity@@UAE_NPAVioWeapon@@@Z
	DD	FLAT:?IsEntityCollisionSkipState@ioDummyChar@@UBE_NPAVioGameEntity@@@Z
	DD	FLAT:?IsCharCollisionSkipState@ioDummyChar@@UBE_NW4TeamType@@H@Z
	DD	FLAT:?IsWoundedCollision@ioPlayEntity@@UBE_NABVioOrientBox@@PAUD3DXVECTOR3@@@Z
	DD	FLAT:?GetAttackCollisionBox@ioDummyChar@@UAE?AVioOrientBox@@W4AniCollisionType@@_N@Z
	DD	FLAT:?CheckSphereDistance@ioPlayEntity@@UBE_NABUD3DXVECTOR3@@MAAM@Z
	DD	FLAT:?CheckSpherePoint@ioPlayEntity@@UBE_NABUD3DXVECTOR3@@MAAU2@@Z
	DD	FLAT:?CheckCylinderPoint@ioPlayEntity@@UBE_NABVioCylinder@@ABUD3DXVECTOR3@@AAU3@@Z
	DD	FLAT:?GetSubType@ioDummyChar@@UBE?AW4PlaySubType@ioPlayEntity@@XZ
	DD	FLAT:?GetArmorType@ioDummyChar@@UBE?AW4ArmorType@@XZ
	DD	FLAT:?DontMoveEntityLevel@ioDummyChar@@UBEHXZ
	DD	FLAT:?NotifyDontMoveCollisionPushingSkip@ioPlayEntity@@UAEXPAVioGameEntity@@@Z
	DD	FLAT:?LoadProperty@ioTargetTrace13Dummy@@UAEXAAVioINILoader@@@Z
	DD	FLAT:?GetWorldEventReceiver@ioDummyChar@@UAEPAVioWorldEventReceiver@@XZ
	DD	FLAT:?Revival@ioPlayEntity@@UAEXXZ
	DD	FLAT:?UpdateGauge@ioDummyChar@@UAEXXZ
	DD	FLAT:?RenderGauge@ioDummyChar@@UAEXXZ
	DD	FLAT:?FillMaxHP@ioPlayEntity@@UAEXXZ
	DD	FLAT:?ProcessRecovery@ioPlayEntity@@MAEXXZ
	DD	FLAT:?AddHeadDamageInfo@ioPlayEntity@@UAEXH_N@Z
	DD	FLAT:?RenderHeadInfoList@ioPlayEntity@@UAEXHH@Z
	DD	FLAT:?UpdateHeadInfoList@ioPlayEntity@@MAEXK@Z
	DD	FLAT:?SetTeam@ioPlayEntity@@UAEXW4TeamType@@@Z
	DD	FLAT:?InitDummyCharInfo@ioTargetTrace13Dummy@@UAEXHKABUD3DXVECTOR3@@0M_N@Z
	DD	FLAT:?TestMapCollision@ioDummyChar@@UAE_NPAVioOpcodeShape@@PAVioPlayStage@@PBUD3DXMATRIX@@@Z
	DD	FLAT:?CheckEntityCollision@ioDummyChar@@UAEXPAVioPlayEntity@@@Z
	DD	FLAT:?GetDummyGrassType@ioDummyChar@@UAEHXZ
	DD	FLAT:?IsActivateWeapon@ioDummyChar@@UAE_NXZ
	DD	FLAT:?IsDummyVsDummyCollisionSkipState@ioDummyChar@@UAE_NPBV1@@Z
	DD	FLAT:?ProcessState@ioTargetTrace13Dummy@@MAEXMK@Z
	DD	FLAT:?ProcessPos@ioDummyChar@@MAEXM@Z
	DD	FLAT:?ProcessDelayState@ioTargetTrace13Dummy@@MAEXM@Z
	DD	FLAT:?ProcessMoveState@ioDummyChar@@MAEXM@Z
	DD	FLAT:?ProcessDashState@ioDummyChar@@MAEXM@Z
	DD	FLAT:?ProcessAttackState@ioDummyChar@@MAEXMK@Z
	DD	FLAT:?ApplyDummyCharSync@ioTargetTrace13Dummy@@UAEXPAVioPlayStage@@AAVSP2Packet@@@Z
	DD	FLAT:?SetDelayState@ioDummyChar@@UAEX_N@Z
	DD	FLAT:?SetMoveState@ioDummyChar@@UAEXXZ
	DD	FLAT:?SetDieState@ioDummyChar@@UAEX_N0@Z
	DD	FLAT:?SetDashState@ioDummyChar@@UAEXXZ
	DD	FLAT:?SetAttackState@ioDummyChar@@UAEXXZ
	DD	FLAT:?DropZoneCheck@ioDummyChar@@MAEXXZ
	DD	FLAT:?SendAttackInfoToSkill@ioDummyChar@@MAEXXZ
	DD	FLAT:?CheckCollisionWeapon@ioDummyChar@@UAEXPAVioBaseChar@@@Z
	DD	FLAT:?TranslateMountEntity@ioDummyChar@@MAEXABUD3DXVECTOR3@@@Z
	DD	FLAT:?ClearMountEntity@ioDummyChar@@MAEXXZ
	DD	FLAT:?UpdateMountedEntityList@ioDummyChar@@MAEXXZ
	DD	FLAT:?UpdateMountedWeaponList@ioDummyChar@@MAEXXZ
	DD	FLAT:?SetWorldPositionMountEntity@ioDummyChar@@MAEXM@Z
	DD	FLAT:?DummyDieClearMountEntity@ioDummyChar@@MAEXXZ
	DD	FLAT:?IsDummyCharMidSync@ioDummyChar@@UAE_NXZ
	DD	FLAT:?FillDummyCharMidSync@ioDummyChar@@UAEXPAVioBaseChar@@AAVSP2Packet@@@Z
	DD	FLAT:?ApplyDummyCharMidSync@ioDummyChar@@UAEXPAVioBaseChar@@AAVSP2Packet@@@Z
	DD	FLAT:?GetSkillMaxActiveCnt@ioDummyChar@@UAEHXZ
	DD	FLAT:?GetSkillCurActiveCnt@ioDummyChar@@UAEHXZ
	DD	FLAT:?SetDieState@ioTargetTrace13Dummy@@UAEX_N@Z
CONST	ENDS
;	COMDAT xdata$x
xdata$x	SEGMENT
__ehfuncinfo$??0ioTargetTrace13Dummy@@QAE@PAVioEntityGroup@@PAVioPlayMode@@@Z DD 019930522H
	DD	06H
	DD	FLAT:__unwindtable$??0ioTargetTrace13Dummy@@QAE@PAVioEntityGroup@@PAVioPlayMode@@@Z
	DD	2 DUP(00H)
	DD	2 DUP(00H)
	DD	00H
	DD	01H
__unwindtable$??0ioTargetTrace13Dummy@@QAE@PAVioEntityGroup@@PAVioPlayMode@@@Z DD 0ffffffffH
	DD	FLAT:__unwindfunclet$??0ioTargetTrace13Dummy@@QAE@PAVioEntityGroup@@PAVioPlayMode@@@Z$0
	DD	00H
	DD	FLAT:__unwindfunclet$??0ioTargetTrace13Dummy@@QAE@PAVioEntityGroup@@PAVioPlayMode@@@Z$1
	DD	01H
	DD	FLAT:__unwindfunclet$??0ioTargetTrace13Dummy@@QAE@PAVioEntityGroup@@PAVioPlayMode@@@Z$2
	DD	02H
	DD	FLAT:__unwindfunclet$??0ioTargetTrace13Dummy@@QAE@PAVioEntityGroup@@PAVioPlayMode@@@Z$3
	DD	03H
	DD	FLAT:__unwindfunclet$??0ioTargetTrace13Dummy@@QAE@PAVioEntityGroup@@PAVioPlayMode@@@Z$4
	DD	04H
	DD	FLAT:__unwindfunclet$??0ioTargetTrace13Dummy@@QAE@PAVioEntityGroup@@PAVioPlayMode@@@Z$5
; Function compile flags: /Ogsp
; File d:\lost saga for developer\youtube\tutorial\source\src\lsclient\iotargettrace13dummy.cpp
xdata$x	ENDS
;	COMDAT ??0ioTargetTrace13Dummy@@QAE@PAVioEntityGroup@@PAVioPlayMode@@@Z
_TEXT	SEGMENT
_this$ = -16						; size = 4
__$EHRec$ = -12						; size = 12
_pGrp$ = 8						; size = 4
_pMode$ = 12						; size = 4
??0ioTargetTrace13Dummy@@QAE@PAVioEntityGroup@@PAVioPlayMode@@@Z PROC ; ioTargetTrace13Dummy::ioTargetTrace13Dummy, COMDAT
; _this$ = ecx

; 10   : {

  00000	6a 04		 push	 4
  00002	b8 00 00 00 00	 mov	 eax, __ehhandler$??0ioTargetTrace13Dummy@@QAE@PAVioEntityGroup@@PAVioPlayMode@@@Z
  00007	e8 00 00 00 00	 call	 __EH_prolog3
  0000c	8b f1		 mov	 esi, ecx
  0000e	89 75 f0	 mov	 DWORD PTR _this$[ebp], esi
  00011	ff 75 0c	 push	 DWORD PTR _pMode$[ebp]
  00014	ff 75 08	 push	 DWORD PTR _pGrp$[ebp]
  00017	e8 00 00 00 00	 call	 ??0ioDummyChar@@QAE@PAVioEntityGroup@@PAVioPlayMode@@@Z ; ioDummyChar::ioDummyChar
  0001c	33 ff		 xor	 edi, edi
  0001e	c7 06 00 00 00
	00		 mov	 DWORD PTR [esi], OFFSET ??_7ioTargetTrace13Dummy@@6BioPlayEntity@@@
  00024	c7 86 c8 01 00
	00 00 00 00 00	 mov	 DWORD PTR [esi+456], OFFSET ??_7ioTargetTrace13Dummy@@6BioWorldEventReceiver@@@
  0002e	89 7d fc	 mov	 DWORD PTR __$EHRec$[ebp+8], edi
  00031	89 be 80 14 00
	00		 mov	 DWORD PTR [esi+5248], edi
  00037	89 be 84 14 00
	00		 mov	 DWORD PTR [esi+5252], edi
  0003d	89 be 88 14 00
	00		 mov	 DWORD PTR [esi+5256], edi
  00043	89 be 90 14 00
	00		 mov	 DWORD PTR [esi+5264], edi
  00049	89 be 94 14 00
	00		 mov	 DWORD PTR [esi+5268], edi
  0004f	89 be 98 14 00
	00		 mov	 DWORD PTR [esi+5272], edi
  00055	89 be a0 14 00
	00		 mov	 DWORD PTR [esi+5280], edi
  0005b	89 be a4 14 00
	00		 mov	 DWORD PTR [esi+5284], edi
  00061	89 be a8 14 00
	00		 mov	 DWORD PTR [esi+5288], edi
  00067	89 be b0 14 00
	00		 mov	 DWORD PTR [esi+5296], edi
  0006d	89 be b4 14 00
	00		 mov	 DWORD PTR [esi+5300], edi
  00073	89 be b8 14 00
	00		 mov	 DWORD PTR [esi+5304], edi
  00079	8d 8e 00 15 00
	00		 lea	 ecx, DWORD PTR [esi+5376]
  0007f	c6 45 fc 04	 mov	 BYTE PTR __$EHRec$[ebp+8], 4
  00083	ff 15 00 00 00
	00		 call	 DWORD PTR __imp_??0ioHashString@@QAE@XZ

; 11   : 	m_dwNextFireTime = FRAMEGETTIME();

  00089	8b 1d 00 00 00
	00		 mov	 ebx, DWORD PTR __imp_?GetSingleton@ioFrameTimer@@SAAAV1@XZ
  0008f	c6 45 fc 05	 mov	 BYTE PTR __$EHRec$[ebp+8], 5
  00093	ff d3		 call	 ebx
  00095	8b c8		 mov	 ecx, eax
  00097	ff 15 00 00 00
	00		 call	 DWORD PTR __imp_?GetLoopSec@ioFrameTimer@@QBEKXZ
  0009d	89 86 0c 0f 00
	00		 mov	 DWORD PTR [esi+3852], eax

; 12   : 	m_dwCreateFireTime = FRAMEGETTIME();

  000a3	ff d3		 call	 ebx
  000a5	8b c8		 mov	 ecx, eax
  000a7	ff 15 00 00 00
	00		 call	 DWORD PTR __imp_?GetLoopSec@ioFrameTimer@@QBEKXZ

; 13   : 	m_nAttackAttributeIndex = 0;
; 14   : 
; 15   : 	m_dwAttack1FiredTime = 0;
; 16   : 	m_dwAttack2FiredTime = 0;
; 17   : 	m_dwAttack3FiredTime = 0;
; 18   : 	
; 19   : 	m_szFindTarget.Clear();

  000ad	8d 8e 00 15 00
	00		 lea	 ecx, DWORD PTR [esi+5376]
  000b3	89 86 c8 14 00
	00		 mov	 DWORD PTR [esi+5320], eax
  000b9	89 be c4 14 00
	00		 mov	 DWORD PTR [esi+5316], edi
  000bf	89 be e8 14 00
	00		 mov	 DWORD PTR [esi+5352], edi
  000c5	89 be ec 14 00
	00		 mov	 DWORD PTR [esi+5356], edi
  000cb	89 be f0 14 00
	00		 mov	 DWORD PTR [esi+5360], edi
  000d1	ff 15 00 00 00
	00		 call	 DWORD PTR __imp_?Clear@ioHashString@@QAEXXZ

; 20   : }

  000d7	8b c6		 mov	 eax, esi
  000d9	e8 00 00 00 00	 call	 __EH_epilog3
  000de	c2 08 00	 ret	 8
_TEXT	ENDS
;	COMDAT text$x
text$x	SEGMENT
__unwindfunclet$??0ioTargetTrace13Dummy@@QAE@PAVioEntityGroup@@PAVioPlayMode@@@Z$0:
  00000	8b 4d f0	 mov	 ecx, DWORD PTR _this$[ebp]
  00003	e9 00 00 00 00	 jmp	 ??1ioDummyChar@@UAE@XZ	; ioDummyChar::~ioDummyChar
__unwindfunclet$??0ioTargetTrace13Dummy@@QAE@PAVioEntityGroup@@PAVioPlayMode@@@Z$1:
  00008	8b 4d f0	 mov	 ecx, DWORD PTR _this$[ebp]
  0000b	81 c1 80 14 00
	00		 add	 ecx, 5248		; 00001480H
  00011	e9 00 00 00 00	 jmp	 ??1?$vector@UDummyTT13AttackInfo@@V?$allocator@UDummyTT13AttackInfo@@@std@@@std@@QAE@XZ ; std::vector<DummyTT13AttackInfo,std::allocator<DummyTT13AttackInfo> >::~vector<DummyTT13AttackInfo,std::allocator<DummyTT13AttackInfo> >
__unwindfunclet$??0ioTargetTrace13Dummy@@QAE@PAVioEntityGroup@@PAVioPlayMode@@@Z$2:
  00016	8b 4d f0	 mov	 ecx, DWORD PTR _this$[ebp]
  00019	81 c1 90 14 00
	00		 add	 ecx, 5264		; 00001490H
  0001f	e9 00 00 00 00	 jmp	 ??1?$vector@UDummyTT13AttackInfo@@V?$allocator@UDummyTT13AttackInfo@@@std@@@std@@QAE@XZ ; std::vector<DummyTT13AttackInfo,std::allocator<DummyTT13AttackInfo> >::~vector<DummyTT13AttackInfo,std::allocator<DummyTT13AttackInfo> >
__unwindfunclet$??0ioTargetTrace13Dummy@@QAE@PAVioEntityGroup@@PAVioPlayMode@@@Z$3:
  00024	8b 4d f0	 mov	 ecx, DWORD PTR _this$[ebp]
  00027	81 c1 a0 14 00
	00		 add	 ecx, 5280		; 000014a0H
  0002d	e9 00 00 00 00	 jmp	 ??1?$vector@UDummyTT13AttackInfo@@V?$allocator@UDummyTT13AttackInfo@@@std@@@std@@QAE@XZ ; std::vector<DummyTT13AttackInfo,std::allocator<DummyTT13AttackInfo> >::~vector<DummyTT13AttackInfo,std::allocator<DummyTT13AttackInfo> >
__unwindfunclet$??0ioTargetTrace13Dummy@@QAE@PAVioEntityGroup@@PAVioPlayMode@@@Z$4:
  00032	8b 4d f0	 mov	 ecx, DWORD PTR _this$[ebp]
  00035	81 c1 b0 14 00
	00		 add	 ecx, 5296		; 000014b0H
  0003b	e9 00 00 00 00	 jmp	 ??1?$vector@UDummyTT13AttackInfo@@V?$allocator@UDummyTT13AttackInfo@@@std@@@std@@QAE@XZ ; std::vector<DummyTT13AttackInfo,std::allocator<DummyTT13AttackInfo> >::~vector<DummyTT13AttackInfo,std::allocator<DummyTT13AttackInfo> >
__unwindfunclet$??0ioTargetTrace13Dummy@@QAE@PAVioEntityGroup@@PAVioPlayMode@@@Z$5:
  00040	8b 4d f0	 mov	 ecx, DWORD PTR _this$[ebp]
  00043	81 c1 00 15 00
	00		 add	 ecx, 5376		; 00001500H
  00049	ff 25 00 00 00
	00		 jmp	 DWORD PTR __imp_??1ioHashString@@QAE@XZ
__ehhandler$??0ioTargetTrace13Dummy@@QAE@PAVioEntityGroup@@PAVioPlayMode@@@Z:
  0004f	8b 54 24 08	 mov	 edx, DWORD PTR [esp+8]
  00053	8d 42 0c	 lea	 eax, DWORD PTR [edx+12]
  00056	8b 4a ec	 mov	 ecx, DWORD PTR [edx-20]
  00059	33 c8		 xor	 ecx, eax
  0005b	e8 00 00 00 00	 call	 @__security_check_cookie@4
  00060	b8 00 00 00 00	 mov	 eax, OFFSET __ehfuncinfo$??0ioTargetTrace13Dummy@@QAE@PAVioEntityGroup@@PAVioPlayMode@@@Z
  00065	e9 00 00 00 00	 jmp	 ___CxxFrameHandler3
text$x	ENDS
??0ioTargetTrace13Dummy@@QAE@PAVioEntityGroup@@PAVioPlayMode@@@Z ENDP ; ioTargetTrace13Dummy::ioTargetTrace13Dummy
; Function compile flags: /Odsp
;	COMDAT ??_EioTargetTrace13Dummy@@WBMI@AEPAXI@Z
_TEXT	SEGMENT
??_EioTargetTrace13Dummy@@WBMI@AEPAXI@Z PROC		; [thunk]:ioTargetTrace13Dummy::`vector deleting destructor', COMDAT
  00000	81 e9 c8 01 00
	00		 sub	 ecx, 456		; 000001c8H
  00006	e9 00 00 00 00	 jmp	 ??_EioTargetTrace13Dummy@@UAEPAXI@Z
??_EioTargetTrace13Dummy@@WBMI@AEPAXI@Z ENDP		; [thunk]:ioTargetTrace13Dummy::`vector deleting destructor'
; Function compile flags: /Ogsp
; File d:\lost saga for developer\youtube\tutorial\source\src\lsclient\iodummychar.h
_TEXT	ENDS
;	COMDAT ?IsDummyCharMidSync@ioDummyChar@@UAE_NXZ
_TEXT	SEGMENT
?IsDummyCharMidSync@ioDummyChar@@UAE_NXZ PROC		; ioDummyChar::IsDummyCharMidSync, COMDAT
; _this$ = ecx

; 742  : 	virtual bool IsDummyCharMidSync(){ return false; }

  00000	32 c0		 xor	 al, al
  00002	c3		 ret	 0
?IsDummyCharMidSync@ioDummyChar@@UAE_NXZ ENDP		; ioDummyChar::IsDummyCharMidSync
_TEXT	ENDS
PUBLIC	?EncryptValueToPool@?$CEncrypt@W4TeamType@@@@AAEXPBD@Z ; CEncrypt<enum TeamType>::EncryptValueToPool
; Function compile flags: /Ogsp
; File d:\lost saga for developer\youtube\tutorial\source\src\lsclient\encryptvalue.h
;	COMDAT ?EncryptValueToPool@?$CEncrypt@W4TeamType@@@@AAEXPBD@Z
_TEXT	SEGMENT
_value$ = 8						; size = 4
?EncryptValueToPool@?$CEncrypt@W4TeamType@@@@AAEXPBD@Z PROC ; CEncrypt<enum TeamType>::EncryptValueToPool, COMDAT
; _this$ = ecx

; 67   : 	{

  00000	55		 push	 ebp
  00001	8b ec		 mov	 ebp, esp

; 68   : 		m_RC5.EncryptByte( value, m_MemPool, max(m_ValueSize, DEFAULT_ENCRYPT) );

  00003	0f b7 41 06	 movzx	 eax, WORD PTR [ecx+6]
  00007	83 f8 04	 cmp	 eax, 4
  0000a	77 03		 ja	 SHORT $LN4@EncryptVal@2
  0000c	6a 04		 push	 4
  0000e	58		 pop	 eax
$LN4@EncryptVal@2:
  0000f	50		 push	 eax
  00010	8d 41 1c	 lea	 eax, DWORD PTR [ecx+28]
  00013	50		 push	 eax
  00014	ff 75 08	 push	 DWORD PTR _value$[ebp]
  00017	83 c1 0c	 add	 ecx, 12			; 0000000cH
  0001a	e8 00 00 00 00	 call	 ?EncryptByte@ccddaabb@@QAEXPBDPADH@Z ; ccddaabb::EncryptByte

; 69   : 		
; 70   : 	}

  0001f	5d		 pop	 ebp
  00020	c2 04 00	 ret	 4
?EncryptValueToPool@?$CEncrypt@W4TeamType@@@@AAEXPBD@Z ENDP ; CEncrypt<enum TeamType>::EncryptValueToPool
_TEXT	ENDS
PUBLIC	??4?$CEncrypt@W4TeamType@@@@QAE?AW4TeamType@@W41@@Z ; CEncrypt<enum TeamType>::operator=
; Function compile flags: /Ogsp
;	COMDAT ??4?$CEncrypt@W4TeamType@@@@QAE?AW4TeamType@@W41@@Z
_TEXT	SEGMENT
_value$ = 8						; size = 4
_inValue$ = 8						; size = 4
??4?$CEncrypt@W4TeamType@@@@QAE?AW4TeamType@@W41@@Z PROC ; CEncrypt<enum TeamType>::operator=, COMDAT
; _this$ = ecx

; 2965 : 	{

  00000	55		 push	 ebp
  00001	8b ec		 mov	 ebp, esp

; 2966 : 		type value = inValue;

  00003	8b 45 08	 mov	 eax, DWORD PTR _inValue$[ebp]
  00006	89 45 08	 mov	 DWORD PTR _value$[ebp], eax

; 2967 : 		EncryptValueToPool((char*)&value);

  00009	8d 45 08	 lea	 eax, DWORD PTR _value$[ebp]
  0000c	50		 push	 eax
  0000d	e8 00 00 00 00	 call	 ?EncryptValueToPool@?$CEncrypt@W4TeamType@@@@AAEXPBD@Z ; CEncrypt<enum TeamType>::EncryptValueToPool

; 2968 : #ifdef _NOTUSE
; 2969 : 		m_value = inValue;
; 2970 : 		Debug();
; 2971 : #endif
; 2972 : 		return value;

  00012	8b 45 08	 mov	 eax, DWORD PTR _value$[ebp]

; 2973 : 	}

  00015	5d		 pop	 ebp
  00016	c2 04 00	 ret	 4
??4?$CEncrypt@W4TeamType@@@@QAE?AW4TeamType@@W41@@Z ENDP ; CEncrypt<enum TeamType>::operator=
; Function compile flags: /Ogsp
; File d:\lost saga for developer\youtube\tutorial\source\src\lsclient\ioplayentity.h
_TEXT	ENDS
;	COMDAT ?SetTeam@ioPlayEntity@@UAEXW4TeamType@@@Z
_TEXT	SEGMENT
_value$539013 = 8					; size = 4
_eType$ = 8						; size = 4
?SetTeam@ioPlayEntity@@UAEXW4TeamType@@@Z PROC		; ioPlayEntity::SetTeam, COMDAT
; _this$ = ecx

; 106  : 	virtual void SetTeam( TeamType eType ) { m_TeamType = eType; }

  00000	55		 push	 ebp
  00001	8b ec		 mov	 ebp, esp
  00003	8b 45 08	 mov	 eax, DWORD PTR _eType$[ebp]
  00006	89 45 08	 mov	 DWORD PTR _value$539013[ebp], eax
  00009	8d 45 08	 lea	 eax, DWORD PTR _value$539013[ebp]
  0000c	50		 push	 eax
  0000d	81 c1 90 00 00
	00		 add	 ecx, 144		; 00000090H
  00013	e8 00 00 00 00	 call	 ?EncryptValueToPool@?$CEncrypt@W4TeamType@@@@AAEXPBD@Z ; CEncrypt<enum TeamType>::EncryptValueToPool
  00018	5d		 pop	 ebp
  00019	c2 04 00	 ret	 4
?SetTeam@ioPlayEntity@@UAEXW4TeamType@@@Z ENDP		; ioPlayEntity::SetTeam
_TEXT	ENDS
PUBLIC	??1ioTargetTrace13Dummy@@UAE@XZ			; ioTargetTrace13Dummy::~ioTargetTrace13Dummy
;	COMDAT xdata$x
; File c:\program files (x86)\microsoft visual studio 10.0\vc\include\vector
xdata$x	SEGMENT
__ehfuncinfo$??1ioTargetTrace13Dummy@@UAE@XZ DD 019930522H
	DD	05H
	DD	FLAT:__unwindtable$??1ioTargetTrace13Dummy@@UAE@XZ
	DD	2 DUP(00H)
	DD	2 DUP(00H)
	DD	00H
	DD	01H
__unwindtable$??1ioTargetTrace13Dummy@@UAE@XZ DD 0ffffffffH
	DD	FLAT:__unwindfunclet$??1ioTargetTrace13Dummy@@UAE@XZ$0
	DD	00H
	DD	FLAT:__unwindfunclet$??1ioTargetTrace13Dummy@@UAE@XZ$1
	DD	01H
	DD	FLAT:__unwindfunclet$??1ioTargetTrace13Dummy@@UAE@XZ$2
	DD	02H
	DD	FLAT:__unwindfunclet$??1ioTargetTrace13Dummy@@UAE@XZ$3
	DD	03H
	DD	FLAT:__unwindfunclet$??1ioTargetTrace13Dummy@@UAE@XZ$4
; Function compile flags: /Ogsp
; File d:\lost saga for developer\youtube\tutorial\source\src\lsclient\iotargettrace13dummy.cpp
xdata$x	ENDS
;	COMDAT ??1ioTargetTrace13Dummy@@UAE@XZ
_TEXT	SEGMENT
_this$ = -16						; size = 4
__$EHRec$ = -12						; size = 12
??1ioTargetTrace13Dummy@@UAE@XZ PROC			; ioTargetTrace13Dummy::~ioTargetTrace13Dummy, COMDAT
; _this$ = ecx

; 24   : {

  00000	6a 04		 push	 4
  00002	b8 00 00 00 00	 mov	 eax, __ehhandler$??1ioTargetTrace13Dummy@@UAE@XZ
  00007	e8 00 00 00 00	 call	 __EH_prolog3
  0000c	8b f1		 mov	 esi, ecx
  0000e	89 75 f0	 mov	 DWORD PTR _this$[ebp], esi
  00011	c7 06 00 00 00
	00		 mov	 DWORD PTR [esi], OFFSET ??_7ioTargetTrace13Dummy@@6BioPlayEntity@@@
  00017	c7 86 c8 01 00
	00 00 00 00 00	 mov	 DWORD PTR [esi+456], OFFSET ??_7ioTargetTrace13Dummy@@6BioWorldEventReceiver@@@

; 25   : }

  00021	8d 8e 00 15 00
	00		 lea	 ecx, DWORD PTR [esi+5376]
  00027	c7 45 fc 04 00
	00 00		 mov	 DWORD PTR __$EHRec$[ebp+8], 4
  0002e	ff 15 00 00 00
	00		 call	 DWORD PTR __imp_??1ioHashString@@QAE@XZ
  00034	8d 8e b0 14 00
	00		 lea	 ecx, DWORD PTR [esi+5296]
  0003a	c6 45 fc 03	 mov	 BYTE PTR __$EHRec$[ebp+8], 3
  0003e	e8 00 00 00 00	 call	 ?_Tidy@?$vector@UDummyTT13AttackInfo@@V?$allocator@UDummyTT13AttackInfo@@@std@@@std@@IAEXXZ ; std::vector<DummyTT13AttackInfo,std::allocator<DummyTT13AttackInfo> >::_Tidy
  00043	8d 8e a0 14 00
	00		 lea	 ecx, DWORD PTR [esi+5280]
  00049	c6 45 fc 02	 mov	 BYTE PTR __$EHRec$[ebp+8], 2
  0004d	e8 00 00 00 00	 call	 ?_Tidy@?$vector@UDummyTT13AttackInfo@@V?$allocator@UDummyTT13AttackInfo@@@std@@@std@@IAEXXZ ; std::vector<DummyTT13AttackInfo,std::allocator<DummyTT13AttackInfo> >::_Tidy
  00052	8d 8e 90 14 00
	00		 lea	 ecx, DWORD PTR [esi+5264]
  00058	c6 45 fc 01	 mov	 BYTE PTR __$EHRec$[ebp+8], 1
  0005c	e8 00 00 00 00	 call	 ?_Tidy@?$vector@UDummyTT13AttackInfo@@V?$allocator@UDummyTT13AttackInfo@@@std@@@std@@IAEXXZ ; std::vector<DummyTT13AttackInfo,std::allocator<DummyTT13AttackInfo> >::_Tidy
  00061	8d 8e 80 14 00
	00		 lea	 ecx, DWORD PTR [esi+5248]
  00067	c6 45 fc 00	 mov	 BYTE PTR __$EHRec$[ebp+8], 0
  0006b	e8 00 00 00 00	 call	 ?_Tidy@?$vector@UDummyTT13AttackInfo@@V?$allocator@UDummyTT13AttackInfo@@@std@@@std@@IAEXXZ ; std::vector<DummyTT13AttackInfo,std::allocator<DummyTT13AttackInfo> >::_Tidy
  00070	83 4d fc ff	 or	 DWORD PTR __$EHRec$[ebp+8], -1
  00074	8b ce		 mov	 ecx, esi
  00076	e8 00 00 00 00	 call	 ??1ioDummyChar@@UAE@XZ	; ioDummyChar::~ioDummyChar
  0007b	e8 00 00 00 00	 call	 __EH_epilog3
  00080	c3		 ret	 0
_TEXT	ENDS
;	COMDAT text$x
text$x	SEGMENT
__unwindfunclet$??1ioTargetTrace13Dummy@@UAE@XZ$0:
  00000	8b 4d f0	 mov	 ecx, DWORD PTR _this$[ebp]
  00003	e9 00 00 00 00	 jmp	 ??1ioDummyChar@@UAE@XZ	; ioDummyChar::~ioDummyChar
__unwindfunclet$??1ioTargetTrace13Dummy@@UAE@XZ$1:
  00008	8b 4d f0	 mov	 ecx, DWORD PTR _this$[ebp]
  0000b	81 c1 80 14 00
	00		 add	 ecx, 5248		; 00001480H
  00011	e9 00 00 00 00	 jmp	 ??1?$vector@UDummyTT13AttackInfo@@V?$allocator@UDummyTT13AttackInfo@@@std@@@std@@QAE@XZ ; std::vector<DummyTT13AttackInfo,std::allocator<DummyTT13AttackInfo> >::~vector<DummyTT13AttackInfo,std::allocator<DummyTT13AttackInfo> >
__unwindfunclet$??1ioTargetTrace13Dummy@@UAE@XZ$2:
  00016	8b 4d f0	 mov	 ecx, DWORD PTR _this$[ebp]
  00019	81 c1 90 14 00
	00		 add	 ecx, 5264		; 00001490H
  0001f	e9 00 00 00 00	 jmp	 ??1?$vector@UDummyTT13AttackInfo@@V?$allocator@UDummyTT13AttackInfo@@@std@@@std@@QAE@XZ ; std::vector<DummyTT13AttackInfo,std::allocator<DummyTT13AttackInfo> >::~vector<DummyTT13AttackInfo,std::allocator<DummyTT13AttackInfo> >
__unwindfunclet$??1ioTargetTrace13Dummy@@UAE@XZ$3:
  00024	8b 4d f0	 mov	 ecx, DWORD PTR _this$[ebp]
  00027	81 c1 a0 14 00
	00		 add	 ecx, 5280		; 000014a0H
  0002d	e9 00 00 00 00	 jmp	 ??1?$vector@UDummyTT13AttackInfo@@V?$allocator@UDummyTT13AttackInfo@@@std@@@std@@QAE@XZ ; std::vector<DummyTT13AttackInfo,std::allocator<DummyTT13AttackInfo> >::~vector<DummyTT13AttackInfo,std::allocator<DummyTT13AttackInfo> >
__unwindfunclet$??1ioTargetTrace13Dummy@@UAE@XZ$4:
  00032	8b 4d f0	 mov	 ecx, DWORD PTR _this$[ebp]
  00035	81 c1 b0 14 00
	00		 add	 ecx, 5296		; 000014b0H
  0003b	e9 00 00 00 00	 jmp	 ??1?$vector@UDummyTT13AttackInfo@@V?$allocator@UDummyTT13AttackInfo@@@std@@@std@@QAE@XZ ; std::vector<DummyTT13AttackInfo,std::allocator<DummyTT13AttackInfo> >::~vector<DummyTT13AttackInfo,std::allocator<DummyTT13AttackInfo> >
__ehhandler$??1ioTargetTrace13Dummy@@UAE@XZ:
  00040	8b 54 24 08	 mov	 edx, DWORD PTR [esp+8]
  00044	8d 42 0c	 lea	 eax, DWORD PTR [edx+12]
  00047	8b 4a ec	 mov	 ecx, DWORD PTR [edx-20]
  0004a	33 c8		 xor	 ecx, eax
  0004c	e8 00 00 00 00	 call	 @__security_check_cookie@4
  00051	b8 00 00 00 00	 mov	 eax, OFFSET __ehfuncinfo$??1ioTargetTrace13Dummy@@UAE@XZ
  00056	e9 00 00 00 00	 jmp	 ___CxxFrameHandler3
text$x	ENDS
??1ioTargetTrace13Dummy@@UAE@XZ ENDP			; ioTargetTrace13Dummy::~ioTargetTrace13Dummy
PUBLIC	__real@0000000000000000
PUBLIC	_pOwner$GSCopy$
PUBLIC	_this$GSCopy$
PUBLIC	__$ArrayPad$
PUBLIC	?ProcessWeaponCall@ioTargetTrace13Dummy@@IAEXPAVioBaseChar@@M@Z ; ioTargetTrace13Dummy::ProcessWeaponCall
EXTRN	?SetPosition@ioWeapon@@QAEXABUD3DXVECTOR3@@@Z:PROC ; ioWeapon::SetPosition
EXTRN	?GetWeaponIndexBase@ioBaseChar@@QBEKXZ:PROC	; ioBaseChar::GetWeaponIndexBase
EXTRN	?IncreaseWeaponIndexBase@ioBaseChar@@QAEKXZ:PROC ; ioBaseChar::IncreaseWeaponIndexBase
;	COMDAT __real@0000000000000000
; File c:\program files (x86)\microsoft visual studio 10.0\vc\include\vector
CONST	SEGMENT
__real@0000000000000000 DQ 00000000000000000r	; 0
; Function compile flags: /Ogsp
; File d:\lost saga for developer\youtube\tutorial\source\src\lsclient\iotargettrace13dummy.cpp
CONST	ENDS
;	COMDAT ?ProcessWeaponCall@ioTargetTrace13Dummy@@IAEXPAVioBaseChar@@M@Z
_TEXT	SEGMENT
$T532419 = -192						; size = 12
$T539065 = -180						; size = 4
$T532421 = -176						; size = 12
_v$539182 = -164					; size = 12
$T532403 = -152						; size = 12
_dwCurTime$ = -140					; size = 4
_vAddVector$532410 = -136				; size = 12
_pTarget$532397 = -124					; size = 4
_this$GSCopy$ = -120					; size = 4
_iWeaonBaseIndex$ = -116				; size = 4
_pOwner$GSCopy$ = -112					; size = 4
tv1385 = -108						; size = 4
tv1381 = -108						; size = 4
tv1377 = -108						; size = 4
tv1371 = -108						; size = 4
_pWeapon$532404 = -108					; size = 4
tv1367 = -104						; size = 4
tv1363 = -104						; size = 4
tv1270 = -104						; size = 4
tv1266 = -104						; size = 4
tv1262 = -104						; size = 4
$T539152 = -104						; size = 4
$T532407 = -100						; size = 12
$T532418 = -88						; size = 12
$T532401 = -76						; size = 12
$T532402 = -64						; size = 12
_vSide$532409 = -52					; size = 12
_vPos$532416 = -40					; size = 12
_vLookDir$532406 = -28					; size = 12
_vFireDir$532396 = -16					; size = 12
__$ArrayPad$ = -4					; size = 4
_pOwner$ = 8						; size = 4
_fTimePerSec$ = 12					; size = 4
?ProcessWeaponCall@ioTargetTrace13Dummy@@IAEXPAVioBaseChar@@M@Z PROC ; ioTargetTrace13Dummy::ProcessWeaponCall, COMDAT
; _this$ = ecx

; 185  : {

  00000	55		 push	 ebp
  00001	8b ec		 mov	 ebp, esp
  00003	81 ec c0 00 00
	00		 sub	 esp, 192		; 000000c0H
  00009	a1 00 00 00 00	 mov	 eax, DWORD PTR ___security_cookie
  0000e	33 c5		 xor	 eax, ebp
  00010	89 45 fc	 mov	 DWORD PTR __$ArrayPad$[ebp], eax

; 186  : 	int iWeaonBaseIndex = 0;
; 187  : 	DWORD dwCurTime = FRAMEGETTIME();
; 188  : 
; 189  : 	for( DummyTT13AttackInfoList::const_iterator iter = m_vAttackFireReserveInfo.begin(); iter != m_vAttackFireReserveInfo.end(); )

  00013	8b 45 08	 mov	 eax, DWORD PTR _pOwner$[ebp]
  00016	83 65 8c 00	 and	 DWORD PTR _iWeaonBaseIndex$[ebp], 0
  0001a	53		 push	 ebx
  0001b	56		 push	 esi
  0001c	8b f1		 mov	 esi, ecx
  0001e	89 75 88	 mov	 DWORD PTR _this$GSCopy$[ebp], esi
  00021	89 45 90	 mov	 DWORD PTR _pOwner$GSCopy$[ebp], eax
  00024	ff 15 00 00 00
	00		 call	 DWORD PTR __imp_?GetSingleton@ioFrameTimer@@SAAAV1@XZ
  0002a	8b c8		 mov	 ecx, eax
  0002c	ff 15 00 00 00
	00		 call	 DWORD PTR __imp_?GetLoopSec@ioFrameTimer@@QBEKXZ
  00032	8b 9e b0 14 00
	00		 mov	 ebx, DWORD PTR [esi+5296]
  00038	89 85 74 ff ff
	ff		 mov	 DWORD PTR _dwCurTime$[ebp], eax
  0003e	3b 9e b4 14 00
	00		 cmp	 ebx, DWORD PTR [esi+5300]
  00044	0f 84 4d 05 00
	00		 je	 $LN8@ProcessWea
  0004a	57		 push	 edi
$LL9@ProcessWea:

; 190  : 	{
; 191  : 		const DummyTT13AttackInfo& Info = *iter;
; 192  : 		if( Info.m_dwFireTime < dwCurTime )

  0004b	8b 85 74 ff ff
	ff		 mov	 eax, DWORD PTR _dwCurTime$[ebp]
  00051	39 43 04	 cmp	 DWORD PTR [ebx+4], eax
  00054	0f 83 2d 05 00
	00		 jae	 $LN7@ProcessWea

; 193  : 		{
; 194  : 			if( CheckFindedTarget( pOwner, Info.m_fRangeMin, Info.m_fRangeMax, Info.m_fAngle, Info.m_fHeightMin, Info.m_fHeightMax, Info.m_stTargetName ) )

  0005a	f3 0f 10 43 28	 movss	 xmm0, DWORD PTR [ebx+40]
  0005f	8d 7b 08	 lea	 edi, DWORD PTR [ebx+8]
  00062	57		 push	 edi
  00063	83 ec 14	 sub	 esp, 20			; 00000014H
  00066	f3 0f 11 44 24
	10		 movss	 DWORD PTR [esp+16], xmm0
  0006c	f3 0f 10 43 24	 movss	 xmm0, DWORD PTR [ebx+36]
  00071	f3 0f 11 44 24
	0c		 movss	 DWORD PTR [esp+12], xmm0
  00077	f3 0f 10 43 20	 movss	 xmm0, DWORD PTR [ebx+32]
  0007c	f3 0f 11 44 24
	08		 movss	 DWORD PTR [esp+8], xmm0
  00082	f3 0f 10 43 1c	 movss	 xmm0, DWORD PTR [ebx+28]
  00087	f3 0f 11 44 24
	04		 movss	 DWORD PTR [esp+4], xmm0
  0008d	f3 0f 10 43 18	 movss	 xmm0, DWORD PTR [ebx+24]
  00092	f3 0f 11 04 24	 movss	 DWORD PTR [esp], xmm0
  00097	ff 75 90	 push	 DWORD PTR _pOwner$GSCopy$[ebp]
  0009a	8b ce		 mov	 ecx, esi
  0009c	e8 00 00 00 00	 call	 ?CheckFindedTarget@ioTargetTrace13Dummy@@IAE_NPAVioBaseChar@@MMMMMABVioHashString@@@Z ; ioTargetTrace13Dummy::CheckFindedTarget
  000a1	84 c0		 test	 al, al
  000a3	0f 84 c7 04 00
	00		 je	 $LN2@ProcessWea

; 195  : 			{
; 196  : 				D3DXVECTOR3 vFireDir;
; 197  : 				ioBaseChar *pTarget = pOwner->GetBaseChar( Info.m_stTargetName );

  000a9	8b 4d 90	 mov	 ecx, DWORD PTR _pOwner$GSCopy$[ebp]
  000ac	57		 push	 edi
  000ad	e8 00 00 00 00	 call	 ?GetBaseChar@ioBaseChar@@QAEPAV1@ABVioHashString@@@Z ; ioBaseChar::GetBaseChar
  000b2	89 45 84	 mov	 DWORD PTR _pTarget$532397[ebp], eax

; 198  : 				if( pTarget )

  000b5	85 c0		 test	 eax, eax
  000b7	0f 84 b3 04 00
	00		 je	 $LN2@ProcessWea

; 199  : 				{
; 200  : 					if( iWeaonBaseIndex == 0 )

  000bd	83 7d 8c 00	 cmp	 DWORD PTR _iWeaonBaseIndex$[ebp], 0
  000c1	75 15		 jne	 SHORT $LN4@ProcessWea

; 201  : 					{
; 202  : 						pOwner->IncreaseWeaponIndexBase();

  000c3	8b 4d 90	 mov	 ecx, DWORD PTR _pOwner$GSCopy$[ebp]
  000c6	e8 00 00 00 00	 call	 ?IncreaseWeaponIndexBase@ioBaseChar@@QAEKXZ ; ioBaseChar::IncreaseWeaponIndexBase

; 203  : 						iWeaonBaseIndex = pOwner->GetWeaponIndexBase();

  000cb	8b 4d 90	 mov	 ecx, DWORD PTR _pOwner$GSCopy$[ebp]
  000ce	e8 00 00 00 00	 call	 ?GetWeaponIndexBase@ioBaseChar@@QBEKXZ ; ioBaseChar::GetWeaponIndexBase
  000d3	89 45 8c	 mov	 DWORD PTR _iWeaonBaseIndex$[ebp], eax

; 204  : 					}
; 205  : 					else

  000d6	eb 03		 jmp	 SHORT $LN3@ProcessWea
$LN4@ProcessWea:

; 206  : 						iWeaonBaseIndex++;

  000d8	ff 45 8c	 inc	 DWORD PTR _iWeaonBaseIndex$[ebp]
$LN3@ProcessWea:

; 207  : 
; 208  : 					vFireDir = pTarget->GetMidPositionByRate() - GetMidPositionByRate();

  000db	b8 05 00 00 00	 mov	 eax, 5
  000e0	8b c8		 mov	 ecx, eax
  000e2	b8 0a 00 00 00	 mov	 eax, 10			; 0000000aH
  000e7	8b d0		 mov	 edx, eax
  000e9	b8 05 00 00 00	 mov	 eax, 5
  000ee	8b f8		 mov	 edi, eax
  000f0	b8 0a 00 00 00	 mov	 eax, 10			; 0000000aH
  000f5	89 4d 94	 mov	 DWORD PTR tv1385[ebp], ecx
  000f8	db 45 94	 fild	 DWORD PTR tv1385[ebp]
  000fb	89 45 98	 mov	 DWORD PTR $T539152[ebp], eax
  000fe	85 c9		 test	 ecx, ecx
  00100	79 06		 jns	 SHORT $LN99@ProcessWea
  00102	d8 05 00 00 00
	00		 fadd	 DWORD PTR __real@4f800000
$LN99@ProcessWea:
  00108	89 55 94	 mov	 DWORD PTR tv1381[ebp], edx
  0010b	db 45 94	 fild	 DWORD PTR tv1381[ebp]
  0010e	85 d2		 test	 edx, edx
  00110	79 06		 jns	 SHORT $LN100@ProcessWea
  00112	d8 05 00 00 00
	00		 fadd	 DWORD PTR __real@4f800000
$LN100@ProcessWea:
  00118	de f9		 fdivp	 ST(1), ST(0)
  0011a	51		 push	 ecx
  0011b	8d 45 c0	 lea	 eax, DWORD PTR $T532402[ebp]
  0011e	8b ce		 mov	 ecx, esi
  00120	d9 5d 94	 fstp	 DWORD PTR tv1377[ebp]
  00123	d9 45 94	 fld	 DWORD PTR tv1377[ebp]
  00126	d9 1c 24	 fstp	 DWORD PTR [esp]
  00129	50		 push	 eax
  0012a	e8 00 00 00 00	 call	 ?GetMidPositionByRate@ioGameEntity@@QBE?AUD3DXVECTOR3@@M@Z ; ioGameEntity::GetMidPositionByRate
  0012f	89 7d 94	 mov	 DWORD PTR tv1371[ebp], edi
  00132	db 45 94	 fild	 DWORD PTR tv1371[ebp]
  00135	8b f0		 mov	 esi, eax
  00137	85 ff		 test	 edi, edi
  00139	79 06		 jns	 SHORT $LN101@ProcessWea
  0013b	d8 05 00 00 00
	00		 fadd	 DWORD PTR __real@4f800000
$LN101@ProcessWea:
  00141	8b 45 98	 mov	 eax, DWORD PTR $T539152[ebp]
  00144	db 45 98	 fild	 DWORD PTR $T539152[ebp]
  00147	85 c0		 test	 eax, eax
  00149	79 06		 jns	 SHORT $LN102@ProcessWea
  0014b	d8 05 00 00 00
	00		 fadd	 DWORD PTR __real@4f800000
$LN102@ProcessWea:
  00151	de f9		 fdivp	 ST(1), ST(0)
  00153	51		 push	 ecx
  00154	8b 4d 84	 mov	 ecx, DWORD PTR _pTarget$532397[ebp]
  00157	8d 45 b4	 lea	 eax, DWORD PTR $T532401[ebp]
  0015a	d9 5d 98	 fstp	 DWORD PTR tv1363[ebp]
  0015d	d9 45 98	 fld	 DWORD PTR tv1363[ebp]
  00160	d9 1c 24	 fstp	 DWORD PTR [esp]
  00163	50		 push	 eax
  00164	e8 00 00 00 00	 call	 ?GetMidPositionByRate@ioGameEntity@@QBE?AUD3DXVECTOR3@@M@Z ; ioGameEntity::GetMidPositionByRate
  00169	f3 0f 10 00	 movss	 xmm0, DWORD PTR [eax]
  0016d	f3 0f 10 0e	 movss	 xmm1, DWORD PTR [esi]
  00171	0f 5a c0	 cvtps2pd xmm0, xmm0
  00174	0f 5a c9	 cvtps2pd xmm1, xmm1
  00177	f2 0f 5c c1	 subsd	 xmm0, xmm1
  0017b	f3 0f 10 4e 04	 movss	 xmm1, DWORD PTR [esi+4]
  00180	66 0f 5a c0	 cvtpd2ps xmm0, xmm0
  00184	f3 0f 11 85 68
	ff ff ff	 movss	 DWORD PTR $T532403[ebp], xmm0
  0018c	f3 0f 10 40 04	 movss	 xmm0, DWORD PTR [eax+4]
  00191	0f 5a c0	 cvtps2pd xmm0, xmm0
  00194	0f 5a c9	 cvtps2pd xmm1, xmm1
  00197	f2 0f 5c c1	 subsd	 xmm0, xmm1
  0019b	f3 0f 10 4e 08	 movss	 xmm1, DWORD PTR [esi+8]
  001a0	66 0f 5a c0	 cvtpd2ps xmm0, xmm0
  001a4	f3 0f 11 85 6c
	ff ff ff	 movss	 DWORD PTR $T532403[ebp+4], xmm0
  001ac	f3 0f 10 40 08	 movss	 xmm0, DWORD PTR [eax+8]
  001b1	0f 5a c0	 cvtps2pd xmm0, xmm0
  001b4	0f 5a c9	 cvtps2pd xmm1, xmm1
  001b7	f2 0f 5c c1	 subsd	 xmm0, xmm1
  001bb	66 0f 5a c0	 cvtpd2ps xmm0, xmm0
  001bf	f3 0f 11 85 70
	ff ff ff	 movss	 DWORD PTR $T532403[ebp+8], xmm0
  001c7	8d b5 68 ff ff
	ff		 lea	 esi, DWORD PTR $T532403[ebp]
  001cd	8d 7d f0	 lea	 edi, DWORD PTR _vFireDir$532396[ebp]
  001d0	a5		 movsd

; 209  : 					D3DXVec3Normalize( &vFireDir, &vFireDir );

  001d1	8d 45 f0	 lea	 eax, DWORD PTR _vFireDir$532396[ebp]
  001d4	a5		 movsd
  001d5	50		 push	 eax
  001d6	50		 push	 eax
  001d7	a5		 movsd
  001d8	e8 00 00 00 00	 call	 _D3DXVec3Normalize@8

; 210  : 					ioWeapon* pWeapon = CreateWeapon( pOwner, vFireDir, iWeaonBaseIndex, Info );

  001dd	8b 4d 88	 mov	 ecx, DWORD PTR _this$GSCopy$[ebp]
  001e0	53		 push	 ebx
  001e1	ff 75 8c	 push	 DWORD PTR _iWeaonBaseIndex$[ebp]
  001e4	8d 45 f0	 lea	 eax, DWORD PTR _vFireDir$532396[ebp]
  001e7	50		 push	 eax
  001e8	ff 75 90	 push	 DWORD PTR _pOwner$GSCopy$[ebp]
  001eb	e8 00 00 00 00	 call	 ?CreateWeapon@ioTargetTrace13Dummy@@IAEPAVioWeapon@@PAVioBaseChar@@ABUD3DXVECTOR3@@KABUDummyTT13AttackInfo@@@Z ; ioTargetTrace13Dummy::CreateWeapon
  001f0	89 45 94	 mov	 DWORD PTR _pWeapon$532404[ebp], eax

; 211  : 
; 212  : 					if( pWeapon	)

  001f3	85 c0		 test	 eax, eax
  001f5	0f 84 72 03 00
	00		 je	 $LN97@ProcessWea

; 213  : 					{
; 214  : 						D3DXVECTOR3 vLookDir = GetWorldOrientation() * D3DXVECTOR3( 0.0f, 0.0f, -1.0f );

  001fb	0f 57 c0	 xorps	 xmm0, xmm0
  001fe	8b 4d 88	 mov	 ecx, DWORD PTR _this$GSCopy$[ebp]
  00201	8d 45 9c	 lea	 eax, DWORD PTR $T532407[ebp]
  00204	f3 0f 11 45 9c	 movss	 DWORD PTR $T532407[ebp], xmm0
  00209	f3 0f 11 45 a0	 movss	 DWORD PTR $T532407[ebp+4], xmm0
  0020e	f3 0f 10 05 00
	00 00 00	 movss	 xmm0, DWORD PTR __real@bf800000
  00216	50		 push	 eax
  00217	8b 01		 mov	 eax, DWORD PTR [ecx]
  00219	f3 0f 11 45 a4	 movss	 DWORD PTR $T532407[ebp+8], xmm0
  0021e	ff 50 74	 call	 DWORD PTR [eax+116]
  00221	50		 push	 eax
  00222	8d 45 e4	 lea	 eax, DWORD PTR _vLookDir$532406[ebp]
  00225	50		 push	 eax
  00226	ff 15 00 00 00
	00		 call	 DWORD PTR __imp_??D@YA?AUD3DXVECTOR3@@ABUD3DXQUATERNION@@ABU0@@Z
  0022c	83 c4 0c	 add	 esp, 12			; 0000000cH

; 215  : 						D3DXVec3Normalize( &vLookDir, &vLookDir );

  0022f	8d 45 e4	 lea	 eax, DWORD PTR _vLookDir$532406[ebp]
  00232	50		 push	 eax
  00233	50		 push	 eax
  00234	e8 00 00 00 00	 call	 _D3DXVec3Normalize@8

; 216  : 						D3DXVECTOR3 vSide;
; 217  : 						D3DXVec3Cross( &vSide, &vLookDir, &ioMath::UNIT_Y );

  00239	a1 00 00 00 00	 mov	 eax, DWORD PTR __imp_?UNIT_Y@ioMath@@2UD3DXVECTOR3@@A
  0023e	f3 0f 10 40 08	 movss	 xmm0, DWORD PTR [eax+8]
  00243	f3 0f 10 48 04	 movss	 xmm1, DWORD PTR [eax+4]
  00248	f3 0f 10 55 e8	 movss	 xmm2, DWORD PTR _vLookDir$532406[ebp+4]
  0024d	0f 5a d8	 cvtps2pd xmm3, xmm0
  00250	0f 5a e1	 cvtps2pd xmm4, xmm1
  00253	0f 5a d2	 cvtps2pd xmm2, xmm2
  00256	f2 0f 59 d3	 mulsd	 xmm2, xmm3
  0025a	f3 0f 10 5d ec	 movss	 xmm3, DWORD PTR _vLookDir$532406[ebp+8]
  0025f	0f 5a db	 cvtps2pd xmm3, xmm3
  00262	f2 0f 59 dc	 mulsd	 xmm3, xmm4
  00266	f2 0f 5c d3	 subsd	 xmm2, xmm3
  0026a	f3 0f 10 5d ec	 movss	 xmm3, DWORD PTR _vLookDir$532406[ebp+8]
  0026f	f2 0f 5a d2	 cvtsd2ss xmm2, xmm2
  00273	f3 0f 11 95 5c
	ff ff ff	 movss	 DWORD PTR _v$539182[ebp], xmm2
  0027b	f3 0f 10 10	 movss	 xmm2, DWORD PTR [eax]
  0027f	0f 5a e2	 cvtps2pd xmm4, xmm2
  00282	0f 5a c0	 cvtps2pd xmm0, xmm0
  00285	0f 5a db	 cvtps2pd xmm3, xmm3
  00288	f2 0f 59 dc	 mulsd	 xmm3, xmm4
  0028c	f3 0f 10 65 e4	 movss	 xmm4, DWORD PTR _vLookDir$532406[ebp]
  00291	0f 5a e4	 cvtps2pd xmm4, xmm4
  00294	f2 0f 59 c4	 mulsd	 xmm0, xmm4
  00298	f2 0f 5c d8	 subsd	 xmm3, xmm0
  0029c	0f 57 c0	 xorps	 xmm0, xmm0
  0029f	f2 0f 5a c3	 cvtsd2ss xmm0, xmm3
  002a3	f3 0f 11 85 60
	ff ff ff	 movss	 DWORD PTR _v$539182[ebp+4], xmm0
  002ab	0f 5a d2	 cvtps2pd xmm2, xmm2
  002ae	8d b5 5c ff ff
	ff		 lea	 esi, DWORD PTR _v$539182[ebp]
  002b4	8d 7d cc	 lea	 edi, DWORD PTR _vSide$532409[ebp]

; 218  : 						D3DXVec3Normalize( &vSide, &vSide );

  002b7	8d 45 cc	 lea	 eax, DWORD PTR _vSide$532409[ebp]
  002ba	0f 5a c1	 cvtps2pd xmm0, xmm1
  002bd	f3 0f 10 4d e4	 movss	 xmm1, DWORD PTR _vLookDir$532406[ebp]
  002c2	0f 5a c9	 cvtps2pd xmm1, xmm1
  002c5	f2 0f 59 c1	 mulsd	 xmm0, xmm1
  002c9	f3 0f 10 4d e8	 movss	 xmm1, DWORD PTR _vLookDir$532406[ebp+4]
  002ce	0f 5a c9	 cvtps2pd xmm1, xmm1
  002d1	f2 0f 59 ca	 mulsd	 xmm1, xmm2
  002d5	f2 0f 5c c1	 subsd	 xmm0, xmm1
  002d9	66 0f 5a c0	 cvtpd2ps xmm0, xmm0
  002dd	f3 0f 11 85 64
	ff ff ff	 movss	 DWORD PTR _v$539182[ebp+8], xmm0
  002e5	a5		 movsd
  002e6	a5		 movsd
  002e7	50		 push	 eax
  002e8	50		 push	 eax
  002e9	a5		 movsd
  002ea	e8 00 00 00 00	 call	 _D3DXVec3Normalize@8

; 219  : 
; 220  : 						D3DXVECTOR3 vAddVector = (vLookDir * Info.m_fWeaponLookOffSet) + (vSide * Info.m_fWeaponSideOffSet) + D3DXVECTOR3( 0.f, Info.m_fWeaponHeighOffSet, 0.f );

  002ef	f3 0f 10 43 34	 movss	 xmm0, DWORD PTR [ebx+52]
  002f4	f3 0f 10 55 cc	 movss	 xmm2, DWORD PTR _vSide$532409[ebp]
  002f9	f3 0f 10 4b 30	 movss	 xmm1, DWORD PTR [ebx+48]
  002fe	0f 5a d8	 cvtps2pd xmm3, xmm0
  00301	0f 5a d2	 cvtps2pd xmm2, xmm2
  00304	f2 0f 59 d3	 mulsd	 xmm2, xmm3
  00308	f3 0f 10 5d d0	 movss	 xmm3, DWORD PTR _vSide$532409[ebp+4]
  0030d	0f 5a e0	 cvtps2pd xmm4, xmm0
  00310	0f 5a db	 cvtps2pd xmm3, xmm3
  00313	f2 0f 59 dc	 mulsd	 xmm3, xmm4
  00317	f3 0f 10 65 d4	 movss	 xmm4, DWORD PTR _vSide$532409[ebp+8]
  0031c	66 0f 5a d2	 cvtpd2ps xmm2, xmm2
  00320	66 0f 5a db	 cvtpd2ps xmm3, xmm3
  00324	0f 5a e4	 cvtps2pd xmm4, xmm4
  00327	0f 5a c0	 cvtps2pd xmm0, xmm0
  0032a	f3 0f 10 75 e4	 movss	 xmm6, DWORD PTR _vLookDir$532406[ebp]
  0032f	f2 0f 59 e0	 mulsd	 xmm4, xmm0
  00333	f3 0f 10 43 2c	 movss	 xmm0, DWORD PTR [ebx+44]
  00338	0f 5a e8	 cvtps2pd xmm5, xmm0

; 221  : 						D3DXVECTOR3 vPos = GetWorldPosition() + vAddVector;

  0033b	8b 4d 88	 mov	 ecx, DWORD PTR _this$GSCopy$[ebp]
  0033e	0f 5a f6	 cvtps2pd xmm6, xmm6
  00341	f2 0f 59 ee	 mulsd	 xmm5, xmm6
  00345	f3 0f 10 75 e8	 movss	 xmm6, DWORD PTR _vLookDir$532406[ebp+4]
  0034a	f3 0f 5a d2	 cvtss2sd xmm2, xmm2
  0034e	8b 01		 mov	 eax, DWORD PTR [ecx]
  00350	66 0f 5a ed	 cvtpd2ps xmm5, xmm5
  00354	0f 5a f8	 cvtps2pd xmm7, xmm0
  00357	f3 0f 5a ed	 cvtss2sd xmm5, xmm5
  0035b	f2 0f 58 ea	 addsd	 xmm5, xmm2
  0035f	0f 57 d2	 xorps	 xmm2, xmm2
  00362	66 0f 5a d5	 cvtpd2ps xmm2, xmm5
  00366	0f 5a d2	 cvtps2pd xmm2, xmm2
  00369	f2 0f 58 15 00
	00 00 00	 addsd	 xmm2, QWORD PTR __real@0000000000000000
  00371	f3 0f 5a db	 cvtss2sd xmm3, xmm3
  00375	66 0f 5a d2	 cvtpd2ps xmm2, xmm2
  00379	0f 5a c9	 cvtps2pd xmm1, xmm1
  0037c	0f 5a f6	 cvtps2pd xmm6, xmm6
  0037f	f2 0f 59 f7	 mulsd	 xmm6, xmm7
  00383	f3 0f 10 7d ec	 movss	 xmm7, DWORD PTR _vLookDir$532406[ebp+8]
  00388	0f 57 ed	 xorps	 xmm5, xmm5
  0038b	66 0f 5a f6	 cvtpd2ps xmm6, xmm6
  0038f	0f 5a c0	 cvtps2pd xmm0, xmm0
  00392	f3 0f 5a ee	 cvtss2sd xmm5, xmm6
  00396	f2 0f 58 eb	 addsd	 xmm5, xmm3
  0039a	f3 0f 11 95 78
	ff ff ff	 movss	 DWORD PTR _vAddVector$532410[ebp], xmm2
  003a2	66 0f 5a e4	 cvtpd2ps xmm4, xmm4
  003a6	66 0f 5a dd	 cvtpd2ps xmm3, xmm5
  003aa	f3 0f 5a e4	 cvtss2sd xmm4, xmm4
  003ae	0f 5a d3	 cvtps2pd xmm2, xmm3
  003b1	f2 0f 58 d1	 addsd	 xmm2, xmm1
  003b5	66 0f 5a ca	 cvtpd2ps xmm1, xmm2
  003b9	0f 5a ff	 cvtps2pd xmm7, xmm7
  003bc	f2 0f 59 f8	 mulsd	 xmm7, xmm0
  003c0	0f 57 c0	 xorps	 xmm0, xmm0
  003c3	66 0f 5a c7	 cvtpd2ps xmm0, xmm7
  003c7	0f 5a c0	 cvtps2pd xmm0, xmm0
  003ca	f2 0f 58 c4	 addsd	 xmm0, xmm4
  003ce	66 0f 5a e0	 cvtpd2ps xmm4, xmm0
  003d2	f3 0f 11 8d 7c
	ff ff ff	 movss	 DWORD PTR _vAddVector$532410[ebp+4], xmm1
  003da	0f 5a cc	 cvtps2pd xmm1, xmm4
  003dd	f2 0f 58 0d 00
	00 00 00	 addsd	 xmm1, QWORD PTR __real@0000000000000000
  003e5	0f 57 c0	 xorps	 xmm0, xmm0
  003e8	66 0f 5a c1	 cvtpd2ps xmm0, xmm1
  003ec	f3 0f 11 45 80	 movss	 DWORD PTR _vAddVector$532410[ebp+8], xmm0
  003f1	ff 50 70	 call	 DWORD PTR [eax+112]
  003f4	f3 0f 10 40 04	 movss	 xmm0, DWORD PTR [eax+4]
  003f9	f3 0f 10 8d 7c
	ff ff ff	 movss	 xmm1, DWORD PTR _vAddVector$532410[ebp+4]
  00401	f3 0f 10 55 80	 movss	 xmm2, DWORD PTR _vAddVector$532410[ebp+8]
  00406	f3 0f 10 9d 78
	ff ff ff	 movss	 xmm3, DWORD PTR _vAddVector$532410[ebp]

; 222  : 						pWeapon->SetPosition( vPos );

  0040e	8b 4d 94	 mov	 ecx, DWORD PTR _pWeapon$532404[ebp]
  00411	0f 5a c9	 cvtps2pd xmm1, xmm1
  00414	0f 5a c0	 cvtps2pd xmm0, xmm0
  00417	f2 0f 58 c1	 addsd	 xmm0, xmm1
  0041b	f3 0f 10 48 08	 movss	 xmm1, DWORD PTR [eax+8]
  00420	0f 5a d2	 cvtps2pd xmm2, xmm2
  00423	0f 5a c9	 cvtps2pd xmm1, xmm1
  00426	f2 0f 58 ca	 addsd	 xmm1, xmm2
  0042a	f3 0f 10 10	 movss	 xmm2, DWORD PTR [eax]
  0042e	0f 5a d2	 cvtps2pd xmm2, xmm2
  00431	0f 5a db	 cvtps2pd xmm3, xmm3
  00434	8d 45 d8	 lea	 eax, DWORD PTR _vPos$532416[ebp]
  00437	f2 0f 58 d3	 addsd	 xmm2, xmm3
  0043b	66 0f 5a c0	 cvtpd2ps xmm0, xmm0
  0043f	66 0f 5a c9	 cvtpd2ps xmm1, xmm1
  00443	66 0f 5a d2	 cvtpd2ps xmm2, xmm2
  00447	50		 push	 eax
  00448	f3 0f 11 55 d8	 movss	 DWORD PTR _vPos$532416[ebp], xmm2
  0044d	f3 0f 11 45 dc	 movss	 DWORD PTR _vPos$532416[ebp+4], xmm0
  00452	f3 0f 11 4d e0	 movss	 DWORD PTR _vPos$532416[ebp+8], xmm1
  00457	e8 00 00 00 00	 call	 ?SetPosition@ioWeapon@@QAEXABUD3DXVECTOR3@@@Z ; ioWeapon::SetPosition

; 223  : 
; 224  : 						vFireDir = (pTarget->GetMidPositionByRate() + D3DXVECTOR3( 0.f, Info.m_fTargetShootOffHeight, 0.f) ) - vPos;

  0045c	f3 0f 10 43 38	 movss	 xmm0, DWORD PTR [ebx+56]
  00461	f3 0f 11 85 44
	ff ff ff	 movss	 DWORD PTR $T532419[ebp+4], xmm0
  00469	b8 05 00 00 00	 mov	 eax, 5
  0046e	8b c8		 mov	 ecx, eax
  00470	b8 0a 00 00 00	 mov	 eax, 10			; 0000000aH
  00475	89 4d 98	 mov	 DWORD PTR tv1270[ebp], ecx
  00478	db 45 98	 fild	 DWORD PTR tv1270[ebp]
  0047b	85 c9		 test	 ecx, ecx
  0047d	79 06		 jns	 SHORT $LN103@ProcessWea
  0047f	d8 05 00 00 00
	00		 fadd	 DWORD PTR __real@4f800000
$LN103@ProcessWea:
  00485	89 45 98	 mov	 DWORD PTR tv1266[ebp], eax
  00488	db 45 98	 fild	 DWORD PTR tv1266[ebp]
  0048b	85 c0		 test	 eax, eax
  0048d	79 06		 jns	 SHORT $LN104@ProcessWea
  0048f	d8 05 00 00 00
	00		 fadd	 DWORD PTR __real@4f800000
$LN104@ProcessWea:
  00495	de f9		 fdivp	 ST(1), ST(0)
  00497	51		 push	 ecx
  00498	8b 4d 84	 mov	 ecx, DWORD PTR _pTarget$532397[ebp]
  0049b	8d 45 a8	 lea	 eax, DWORD PTR $T532418[ebp]
  0049e	d9 5d 98	 fstp	 DWORD PTR tv1262[ebp]
  004a1	d9 45 98	 fld	 DWORD PTR tv1262[ebp]
  004a4	d9 1c 24	 fstp	 DWORD PTR [esp]
  004a7	50		 push	 eax
  004a8	e8 00 00 00 00	 call	 ?GetMidPositionByRate@ioGameEntity@@QBE?AUD3DXVECTOR3@@M@Z ; ioGameEntity::GetMidPositionByRate
  004ad	f3 0f 10 50 04	 movss	 xmm2, DWORD PTR [eax+4]
  004b2	f3 0f 10 00	 movss	 xmm0, DWORD PTR [eax]
  004b6	f3 0f 10 9d 44
	ff ff ff	 movss	 xmm3, DWORD PTR $T532419[ebp+4]
  004be	0f 5a c8	 cvtps2pd xmm1, xmm0
  004c1	f2 0f 58 0d 00
	00 00 00	 addsd	 xmm1, QWORD PTR __real@0000000000000000
  004c9	0f 5a db	 cvtps2pd xmm3, xmm3
  004cc	0f 5a d2	 cvtps2pd xmm2, xmm2
  004cf	f2 0f 58 d3	 addsd	 xmm2, xmm3
  004d3	f3 0f 10 58 08	 movss	 xmm3, DWORD PTR [eax+8]
  004d8	66 0f 5a c9	 cvtpd2ps xmm1, xmm1
  004dc	f3 0f 5a c9	 cvtss2sd xmm1, xmm1
  004e0	0f 5a db	 cvtps2pd xmm3, xmm3
  004e3	f2 0f 58 1d 00
	00 00 00	 addsd	 xmm3, QWORD PTR __real@0000000000000000
  004eb	0f 57 c0	 xorps	 xmm0, xmm0
  004ee	66 0f 5a c3	 cvtpd2ps xmm0, xmm3
  004f2	f3 0f 10 5d d8	 movss	 xmm3, DWORD PTR _vPos$532416[ebp]
  004f7	0f 5a db	 cvtps2pd xmm3, xmm3
  004fa	f2 0f 5c cb	 subsd	 xmm1, xmm3
  004fe	66 0f 5a c9	 cvtpd2ps xmm1, xmm1
  00502	f3 0f 11 8d 50
	ff ff ff	 movss	 DWORD PTR $T532421[ebp], xmm1
  0050a	0f 57 c9	 xorps	 xmm1, xmm1
  0050d	66 0f 5a d2	 cvtpd2ps xmm2, xmm2
  00511	f3 0f 5a ca	 cvtss2sd xmm1, xmm2
  00515	f3 0f 10 55 dc	 movss	 xmm2, DWORD PTR _vPos$532416[ebp+4]
  0051a	0f 5a d2	 cvtps2pd xmm2, xmm2
  0051d	f2 0f 5c ca	 subsd	 xmm1, xmm2
  00521	66 0f 5a c9	 cvtpd2ps xmm1, xmm1
  00525	f3 0f 11 8d 54
	ff ff ff	 movss	 DWORD PTR $T532421[ebp+4], xmm1
  0052d	f3 0f 10 4d e0	 movss	 xmm1, DWORD PTR _vPos$532416[ebp+8]
  00532	0f 5a c0	 cvtps2pd xmm0, xmm0
  00535	0f 5a c9	 cvtps2pd xmm1, xmm1
  00538	f2 0f 5c c1	 subsd	 xmm0, xmm1
  0053c	66 0f 5a c0	 cvtpd2ps xmm0, xmm0
  00540	f3 0f 11 85 58
	ff ff ff	 movss	 DWORD PTR $T532421[ebp+8], xmm0
  00548	8d b5 50 ff ff
	ff		 lea	 esi, DWORD PTR $T532421[ebp]
  0054e	8d 7d f0	 lea	 edi, DWORD PTR _vFireDir$532396[ebp]
  00551	a5		 movsd

; 225  : 						D3DXVec3Normalize( &vFireDir, &vFireDir );

  00552	8d 45 f0	 lea	 eax, DWORD PTR _vFireDir$532396[ebp]
  00555	a5		 movsd
  00556	50		 push	 eax
  00557	50		 push	 eax
  00558	a5		 movsd
  00559	e8 00 00 00 00	 call	 _D3DXVec3Normalize@8

; 226  : 						pWeapon->SetMoveDir( vFireDir );

  0055e	8b 4d 94	 mov	 ecx, DWORD PTR _pWeapon$532404[ebp]
  00561	8b 01		 mov	 eax, DWORD PTR [ecx]
  00563	8d 55 f0	 lea	 edx, DWORD PTR _vFireDir$532396[ebp]
  00566	52		 push	 edx
  00567	ff 90 b0 00 00
	00		 call	 DWORD PTR [eax+176]
$LN97@ProcessWea:
  0056d	8b 75 88	 mov	 esi, DWORD PTR _this$GSCopy$[ebp]
$LN2@ProcessWea:

; 227  : 					}
; 228  : 				}
; 229  : 			}
; 230  : 
; 231  : 			iter = m_vAttackFireReserveInfo.erase( iter );

  00570	53		 push	 ebx
  00571	8d 85 4c ff ff
	ff		 lea	 eax, DWORD PTR $T539065[ebp]
  00577	50		 push	 eax
  00578	8d 8e b0 14 00
	00		 lea	 ecx, DWORD PTR [esi+5296]
  0057e	e8 00 00 00 00	 call	 ?erase@?$vector@UDummyTT13AttackInfo@@V?$allocator@UDummyTT13AttackInfo@@@std@@@std@@QAE?AV?$_Vector_iterator@V?$_Vector_val@UDummyTT13AttackInfo@@V?$allocator@UDummyTT13AttackInfo@@@std@@@std@@@2@V?$_Vector_const_iterator@V?$_Vector_val@UDummyTT13AttackInfo@@V?$allocator@UDummyTT13AttackInfo@@@std@@@std@@@2@@Z ; std::vector<DummyTT13AttackInfo,std::allocator<DummyTT13AttackInfo> >::erase
  00583	8b 18		 mov	 ebx, DWORD PTR [eax]

; 232  : 		}
; 233  : 		else

  00585	eb 03		 jmp	 SHORT $LN94@ProcessWea
$LN7@ProcessWea:

; 234  : 		{
; 235  : 			++iter;

  00587	83 c3 3c	 add	 ebx, 60			; 0000003cH
$LN94@ProcessWea:

; 186  : 	int iWeaonBaseIndex = 0;
; 187  : 	DWORD dwCurTime = FRAMEGETTIME();
; 188  : 
; 189  : 	for( DummyTT13AttackInfoList::const_iterator iter = m_vAttackFireReserveInfo.begin(); iter != m_vAttackFireReserveInfo.end(); )

  0058a	3b 9e b4 14 00
	00		 cmp	 ebx, DWORD PTR [esi+5300]
  00590	0f 85 b5 fa ff
	ff		 jne	 $LL9@ProcessWea
  00596	5f		 pop	 edi
$LN8@ProcessWea:

; 236  : 		}
; 237  : 	}
; 238  : }

  00597	8b 4d fc	 mov	 ecx, DWORD PTR __$ArrayPad$[ebp]
  0059a	5e		 pop	 esi
  0059b	33 cd		 xor	 ecx, ebp
  0059d	5b		 pop	 ebx
  0059e	e8 00 00 00 00	 call	 @__security_check_cookie@4
  005a3	c9		 leave
  005a4	c2 08 00	 ret	 8
?ProcessWeaponCall@ioTargetTrace13Dummy@@IAEXPAVioBaseChar@@M@Z ENDP ; ioTargetTrace13Dummy::ProcessWeaponCall
_TEXT	ENDS
PUBLIC	?push_back@?$vector@UDummyTT13AttackInfo@@V?$allocator@UDummyTT13AttackInfo@@@std@@@std@@QAEXABUDummyTT13AttackInfo@@@Z ; std::vector<DummyTT13AttackInfo,std::allocator<DummyTT13AttackInfo> >::push_back
; Function compile flags: /Ogsp
; File c:\program files (x86)\microsoft visual studio 10.0\vc\include\vector
;	COMDAT ?push_back@?$vector@UDummyTT13AttackInfo@@V?$allocator@UDummyTT13AttackInfo@@@std@@@std@@QAEXABUDummyTT13AttackInfo@@@Z
_TEXT	SEGMENT
__Val$ = 8						; size = 4
?push_back@?$vector@UDummyTT13AttackInfo@@V?$allocator@UDummyTT13AttackInfo@@@std@@@std@@QAEXABUDummyTT13AttackInfo@@@Z PROC ; std::vector<DummyTT13AttackInfo,std::allocator<DummyTT13AttackInfo> >::push_back, COMDAT
; _this$ = ecx

; 976  : 		{	// insert element at end

  00000	55		 push	 ebp
  00001	8b ec		 mov	 ebp, esp
  00003	56		 push	 esi
  00004	8b f1		 mov	 esi, ecx

; 977  : 		if (_Inside(_STD addressof(_Val)))

  00006	8b 4e 04	 mov	 ecx, DWORD PTR [esi+4]
  00009	57		 push	 edi
  0000a	8b 7d 08	 mov	 edi, DWORD PTR __Val$[ebp]
  0000d	3b f9		 cmp	 edi, ecx
  0000f	73 37		 jae	 SHORT $LN4@push_back
  00011	8b 16		 mov	 edx, DWORD PTR [esi]
  00013	3b d7		 cmp	 edx, edi
  00015	77 31		 ja	 SHORT $LN4@push_back

; 978  : 			{	// push back an element
; 979  : 			size_type _Idx = _STD addressof(_Val) - this->_Myfirst;

  00017	8b c7		 mov	 eax, edi
  00019	2b c2		 sub	 eax, edx
  0001b	6a 3c		 push	 60			; 0000003cH
  0001d	99		 cdq
  0001e	5f		 pop	 edi
  0001f	f7 ff		 idiv	 edi
  00021	8b f8		 mov	 edi, eax

; 980  : 			if (this->_Mylast == this->_Myend)

  00023	3b 4e 08	 cmp	 ecx, DWORD PTR [esi+8]
  00026	75 09		 jne	 SHORT $LN3@push_back

; 981  : 				_Reserve(1);

  00028	6a 01		 push	 1
  0002a	8b ce		 mov	 ecx, esi
  0002c	e8 00 00 00 00	 call	 ?_Reserve@?$vector@UDummyTT13AttackInfo@@V?$allocator@UDummyTT13AttackInfo@@@std@@@std@@IAEXI@Z ; std::vector<DummyTT13AttackInfo,std::allocator<DummyTT13AttackInfo> >::_Reserve
$LN3@push_back:

; 982  : 			_Orphan_range(this->_Mylast, this->_Mylast);
; 983  : 			_Cons_val(this->_Alval,
; 984  : 				this->_Mylast,
; 985  : 				this->_Myfirst[_Idx]);

  00031	6b ff 3c	 imul	 edi, 60			; 0000003cH
  00034	03 3e		 add	 edi, DWORD PTR [esi]
  00036	8d 46 0c	 lea	 eax, DWORD PTR [esi+12]
  00039	57		 push	 edi
  0003a	ff 76 04	 push	 DWORD PTR [esi+4]
  0003d	50		 push	 eax
  0003e	e8 00 00 00 00	 call	 ??$_Cons_val@V?$allocator@UDummyTT13AttackInfo@@@std@@UDummyTT13AttackInfo@@AAU3@@std@@YAXAAV?$allocator@UDummyTT13AttackInfo@@@0@PAUDummyTT13AttackInfo@@AAU2@@Z ; std::_Cons_val<std::allocator<DummyTT13AttackInfo>,DummyTT13AttackInfo,DummyTT13AttackInfo &>
  00043	83 c4 0c	 add	 esp, 12			; 0000000cH

; 986  : 			++this->_Mylast;
; 987  : 			}
; 988  : 		else

  00046	eb 19		 jmp	 SHORT $LN26@push_back
$LN4@push_back:

; 989  : 			{	// push back a non-element
; 990  : 			if (this->_Mylast == this->_Myend)

  00048	3b 4e 08	 cmp	 ecx, DWORD PTR [esi+8]
  0004b	75 09		 jne	 SHORT $LN1@push_back

; 991  : 				_Reserve(1);

  0004d	6a 01		 push	 1
  0004f	8b ce		 mov	 ecx, esi
  00051	e8 00 00 00 00	 call	 ?_Reserve@?$vector@UDummyTT13AttackInfo@@V?$allocator@UDummyTT13AttackInfo@@@std@@@std@@IAEXI@Z ; std::vector<DummyTT13AttackInfo,std::allocator<DummyTT13AttackInfo> >::_Reserve
$LN1@push_back:

; 992  : 			_Orphan_range(this->_Mylast, this->_Mylast);
; 993  : 			_Cons_val(this->_Alval,
; 994  : 				this->_Mylast,
; 995  : 				_Val);

  00056	57		 push	 edi
  00057	ff 76 04	 push	 DWORD PTR [esi+4]
  0005a	e8 00 00 00 00	 call	 ??$_Construct@UDummyTT13AttackInfo@@ABU1@@std@@YAXPAUDummyTT13AttackInfo@@ABU1@@Z ; std::_Construct<DummyTT13AttackInfo,DummyTT13AttackInfo const &>
  0005f	59		 pop	 ecx
  00060	59		 pop	 ecx
$LN26@push_back:

; 996  : 			++this->_Mylast;

  00061	83 46 04 3c	 add	 DWORD PTR [esi+4], 60	; 0000003cH
  00065	5f		 pop	 edi
  00066	5e		 pop	 esi

; 997  : 			}
; 998  : 		}

  00067	5d		 pop	 ebp
  00068	c2 04 00	 ret	 4
?push_back@?$vector@UDummyTT13AttackInfo@@V?$allocator@UDummyTT13AttackInfo@@@std@@@std@@QAEXABUDummyTT13AttackInfo@@@Z ENDP ; std::vector<DummyTT13AttackInfo,std::allocator<DummyTT13AttackInfo> >::push_back
; Function compile flags: /Ogsp
_TEXT	ENDS
;	COMDAT ??_GioTargetTrace13Dummy@@UAEPAXI@Z
_TEXT	SEGMENT
___flags$ = 8						; size = 4
??_GioTargetTrace13Dummy@@UAEPAXI@Z PROC		; ioTargetTrace13Dummy::`scalar deleting destructor', COMDAT
; _this$ = ecx
  00000	55		 push	 ebp
  00001	8b ec		 mov	 ebp, esp
  00003	56		 push	 esi
  00004	8b f1		 mov	 esi, ecx
  00006	e8 00 00 00 00	 call	 ??1ioTargetTrace13Dummy@@UAE@XZ ; ioTargetTrace13Dummy::~ioTargetTrace13Dummy
  0000b	f6 45 08 01	 test	 BYTE PTR ___flags$[ebp], 1
  0000f	74 07		 je	 SHORT $LN1@scalar@4
  00011	56		 push	 esi
  00012	e8 00 00 00 00	 call	 ??3@YAXPAX@Z		; operator delete
  00017	59		 pop	 ecx
$LN1@scalar@4:
  00018	8b c6		 mov	 eax, esi
  0001a	5e		 pop	 esi
  0001b	5d		 pop	 ebp
  0001c	c2 04 00	 ret	 4
??_GioTargetTrace13Dummy@@UAEPAXI@Z ENDP		; ioTargetTrace13Dummy::`scalar deleting destructor'
_TEXT	ENDS
PUBLIC	??_C@_0O@FGGGOHPM@follow_length?$AA@		; `string'
PUBLIC	__real@3f800000
PUBLIC	__real@42c80000
EXTRN	__imp__wsprintfA:PROC
EXTRN	?LoadProperty@ioDummyChar@@UAEXAAVioINILoader@@@Z:PROC ; ioDummyChar::LoadProperty
;	COMDAT ??_C@_0O@FGGGOHPM@follow_length?$AA@
; File d:\lost saga for developer\youtube\tutorial\source\src\lsclient\iotargettrace13dummy.cpp
CONST	SEGMENT
??_C@_0O@FGGGOHPM@follow_length?$AA@ DB 'follow_length', 00H ; `string'
CONST	ENDS
;	COMDAT __real@3f800000
CONST	SEGMENT
__real@3f800000 DD 03f800000r			; 1
CONST	ENDS
;	COMDAT __real@42c80000
CONST	SEGMENT
__real@42c80000 DD 042c80000r			; 100
CONST	ENDS
;	COMDAT xdata$x
xdata$x	SEGMENT
__unwindtable$?LoadProperty@ioTargetTrace13Dummy@@UAEXAAVioINILoader@@@Z DD 0ffffffffH
	DD	FLAT:__unwindfunclet$?LoadProperty@ioTargetTrace13Dummy@@UAEXAAVioINILoader@@@Z$0
	DD	0ffffffffH
	DD	FLAT:__unwindfunclet$?LoadProperty@ioTargetTrace13Dummy@@UAEXAAVioINILoader@@@Z$1
	DD	0ffffffffH
	DD	FLAT:__unwindfunclet$?LoadProperty@ioTargetTrace13Dummy@@UAEXAAVioINILoader@@@Z$2
__ehfuncinfo$?LoadProperty@ioTargetTrace13Dummy@@UAEXAAVioINILoader@@@Z DD 019930522H
	DD	03H
	DD	FLAT:__unwindtable$?LoadProperty@ioTargetTrace13Dummy@@UAEXAAVioINILoader@@@Z
	DD	2 DUP(00H)
	DD	2 DUP(00H)
	DD	00H
	DD	01H
; Function compile flags: /Ogsp
xdata$x	ENDS
;	COMDAT ?LoadProperty@ioTargetTrace13Dummy@@UAEXAAVioINILoader@@@Z
_TEXT	SEGMENT
_info$531431 = -1628					; size = 60
_info$531742 = -1568					; size = 60
_info$532053 = -1508					; size = 60
tv11451 = -1448						; size = 4
tv10452 = -1448						; size = 4
tv9559 = -1448						; size = 4
tv37607 = -1444						; size = 4
tv37554 = -1444						; size = 4
tv37501 = -1444						; size = 4
_szBuf$ = -1440						; size = 260
___encStr$532057 = -1180				; size = 21
___encStr$531435 = -1152				; size = 21
___encStr$531746 = -1124				; size = 21
__k$540854 = -1096					; size = 33
__k$541979 = -1056					; size = 33
__k$543104 = -1016					; size = 33
__k$541789 = -976					; size = 30
__k$540117 = -940					; size = 23
__k$540664 = -912					; size = 30
__k$542104 = -876					; size = 19
__k$542992 = -852					; size = 28
__k$539479 = -820					; size = 22
__k$542737 = -792					; size = 28
__k$543382 = -760					; size = 18
__k$541867 = -736					; size = 28
__k$539742 = -704					; size = 22
__k$541604 = -676					; size = 28
___encStr$531593 = -644					; size = 19
__k$540742 = -620					; size = 28
__k$539867 = -588					; size = 19
__k$540484 = -564					; size = 28
__k$541117 = -532					; size = 23
__k$542604 = -504					; size = 24
__k$539992 = -476					; size = 23
__k$542479 = -448					; size = 24
__k$539604 = -420					; size = 22
__k$541479 = -392					; size = 24
___encStr$531904 = -364					; size = 19
__k$541358 = -340					; size = 24
___encStr$531281 = -312					; size = 19
__k$540354 = -288					; size = 24
__k$540992 = -260					; size = 19
__k$540242 = -236					; size = 24
__k$543535 = -208					; size = 18
__k$539354 = -184					; size = 18
__k$542914 = -160					; size = 30
__k$543229 = -124					; size = 18
__k$541229 = -100					; size = 23
__k$542354 = -72					; size = 23
__k$542232 = -44					; size = 23
__$EHRec$ = -12						; size = 12
_rkLoader$ = 8						; size = 4
?LoadProperty@ioTargetTrace13Dummy@@UAEXAAVioINILoader@@@Z PROC ; ioTargetTrace13Dummy::LoadProperty, COMDAT
; _this$ = ecx

; 28   : {

  00000	68 50 06 00 00	 push	 1616			; 00000650H
  00005	b8 00 00 00 00	 mov	 eax, __ehhandler$?LoadProperty@ioTargetTrace13Dummy@@UAEXAAVioINILoader@@@Z
  0000a	e8 00 00 00 00	 call	 __EH_prolog3_GS
  0000f	8b 7d 08	 mov	 edi, DWORD PTR _rkLoader$[ebp]

; 29   : 	ioDummyChar::LoadProperty( rkLoader );

  00012	57		 push	 edi
  00013	8b f1		 mov	 esi, ecx
  00015	e8 00 00 00 00	 call	 ?LoadProperty@ioDummyChar@@UAEXAAVioINILoader@@@Z ; ioDummyChar::LoadProperty

; 30   : 
; 31   : 	//char szKey[MAX_PATH];
; 32   : 	char szBuf[MAX_PATH];
; 33   : 	m_fAddOffSetHeight = rkLoader.LoadFloat_e( "add_offset_height", 100.f );

  0001a	6a 04		 push	 4
  0001c	c7 85 48 ff ff
	ff 8c 88 8f b5	 mov	 DWORD PTR __k$539354[ebp], -1248884596 ; b58f888cH
  00026	c7 85 4c ff ff
	ff 82 8a 8d 99	 mov	 DWORD PTR __k$539354[ebp+4], -1718777214 ; 998d8a82H
  00030	c7 85 50 ff ff
	ff 88 98 b4 82	 mov	 DWORD PTR __k$539354[ebp+8], -2102093688 ; 82b49888H
  0003a	c7 85 54 ff ff
	ff 88 85 8c 82	 mov	 DWORD PTR __k$539354[ebp+12], -2104719992 ; 828c8588H
  00044	8d 85 48 ff ff
	ff		 lea	 eax, DWORD PTR __k$539354[ebp]
  0004a	33 db		 xor	 ebx, ebx
  0004c	66 c7 85 58 ff
	ff ff 99 00	 mov	 WORD PTR __k$539354[ebp+16], 153 ; 00000099H
  00055	59		 pop	 ecx
$LL712@LoadProper:
  00056	81 30 ed ec eb
	ea		 xor	 DWORD PTR [eax], -353637139 ; eaebecedH
  0005c	83 c0 04	 add	 eax, 4
  0005f	49		 dec	 ecx
  00060	75 f4		 jne	 SHORT $LL712@LoadProper
  00062	f3 0f 10 05 00
	00 00 00	 movss	 xmm0, DWORD PTR __real@42c80000
  0006a	80 b5 58 ff ff
	ff ed		 xor	 BYTE PTR __k$539354[ebp+16], -19 ; ffffffedH
  00071	51		 push	 ecx
  00072	8d 85 48 ff ff
	ff		 lea	 eax, DWORD PTR __k$539354[ebp]
  00078	f3 0f 11 04 24	 movss	 DWORD PTR [esp], xmm0
  0007d	50		 push	 eax
  0007e	8b cf		 mov	 ecx, edi
  00080	ff 15 00 00 00
	00		 call	 DWORD PTR __imp_?LoadFloat@ioINILoader@@QAEMPBDM@Z
  00086	d9 9e c0 14 00
	00		 fstp	 DWORD PTR [esi+5312]
  0008c	6a 05		 push	 5

; 34   : 
; 35   : 	m_dwAttack1FireGapTime = (DWORD)rkLoader.LoadInt_e( "attack1_fire_gap_time", 30000 );

  0008e	c7 85 cc fc ff
	ff 8c 98 9f 8b	 mov	 DWORD PTR __k$539479[ebp], -1952474996 ; 8b9f988cH
  00098	c7 85 d0 fc ff
	ff 8e 87 da b5	 mov	 DWORD PTR __k$539479[ebp+4], -1243969650 ; b5da878eH
  000a2	c7 85 d4 fc ff
	ff 8b 85 99 8f	 mov	 DWORD PTR __k$539479[ebp+8], -1885764213 ; 8f99858bH
  000ac	c7 85 d8 fc ff
	ff b2 8b 8a 9a	 mov	 DWORD PTR __k$539479[ebp+12], -1702196302 ; 9a8a8bb2H
  000b6	c7 85 dc fc ff
	ff b2 98 82 87	 mov	 DWORD PTR __k$539479[ebp+16], -2021484366 ; 878298b2H
  000c0	8d 85 cc fc ff
	ff		 lea	 eax, DWORD PTR __k$539479[ebp]
  000c6	66 c7 85 e0 fc
	ff ff 88 00	 mov	 WORD PTR __k$539479[ebp+20], 136 ; 00000088H
  000cf	59		 pop	 ecx
$LL818@LoadProper:
  000d0	81 30 ed ec eb
	ea		 xor	 DWORD PTR [eax], -353637139 ; eaebecedH
  000d6	83 c0 04	 add	 eax, 4
  000d9	49		 dec	 ecx
  000da	75 f4		 jne	 SHORT $LL818@LoadProper
  000dc	80 b5 e0 fc ff
	ff ed		 xor	 BYTE PTR __k$539479[ebp+20], -19 ; ffffffedH
  000e3	68 30 75 00 00	 push	 30000			; 00007530H
  000e8	8d 85 cc fc ff
	ff		 lea	 eax, DWORD PTR __k$539479[ebp]
  000ee	50		 push	 eax
  000ef	8b cf		 mov	 ecx, edi
  000f1	ff 15 00 00 00
	00		 call	 DWORD PTR __imp_?LoadInt@ioINILoader@@QAEHPBDH@Z
  000f7	89 86 f4 14 00
	00		 mov	 DWORD PTR [esi+5364], eax
  000fd	6a 05		 push	 5

; 36   : 	m_dwAttack2FireGapTime = (DWORD)rkLoader.LoadInt_e( "attack2_fire_gap_time", 30000 );

  000ff	c7 85 5c fe ff
	ff 8c 98 9f 8b	 mov	 DWORD PTR __k$539604[ebp], -1952474996 ; 8b9f988cH
  00109	c7 85 60 fe ff
	ff 8e 87 d9 b5	 mov	 DWORD PTR __k$539604[ebp+4], -1244035186 ; b5d9878eH
  00113	c7 85 64 fe ff
	ff 8b 85 99 8f	 mov	 DWORD PTR __k$539604[ebp+8], -1885764213 ; 8f99858bH
  0011d	c7 85 68 fe ff
	ff b2 8b 8a 9a	 mov	 DWORD PTR __k$539604[ebp+12], -1702196302 ; 9a8a8bb2H
  00127	c7 85 6c fe ff
	ff b2 98 82 87	 mov	 DWORD PTR __k$539604[ebp+16], -2021484366 ; 878298b2H
  00131	8d 85 5c fe ff
	ff		 lea	 eax, DWORD PTR __k$539604[ebp]
  00137	66 c7 85 70 fe
	ff ff 88 00	 mov	 WORD PTR __k$539604[ebp+20], 136 ; 00000088H
  00140	59		 pop	 ecx
$LL924@LoadProper:
  00141	81 30 ed ec eb
	ea		 xor	 DWORD PTR [eax], -353637139 ; eaebecedH
  00147	83 c0 04	 add	 eax, 4
  0014a	49		 dec	 ecx
  0014b	75 f4		 jne	 SHORT $LL924@LoadProper
  0014d	80 b5 70 fe ff
	ff ed		 xor	 BYTE PTR __k$539604[ebp+20], -19 ; ffffffedH
  00154	68 30 75 00 00	 push	 30000			; 00007530H
  00159	8d 85 5c fe ff
	ff		 lea	 eax, DWORD PTR __k$539604[ebp]
  0015f	50		 push	 eax
  00160	8b cf		 mov	 ecx, edi
  00162	ff 15 00 00 00
	00		 call	 DWORD PTR __imp_?LoadInt@ioINILoader@@QAEHPBDH@Z
  00168	89 86 f8 14 00
	00		 mov	 DWORD PTR [esi+5368], eax
  0016e	6a 05		 push	 5

; 37   : 	m_dwAttack3FireGapTime = (DWORD)rkLoader.LoadInt_e( "attack3_fire_gap_time", 30000 );

  00170	c7 85 40 fd ff
	ff 8c 98 9f 8b	 mov	 DWORD PTR __k$539742[ebp], -1952474996 ; 8b9f988cH
  0017a	c7 85 44 fd ff
	ff 8e 87 d8 b5	 mov	 DWORD PTR __k$539742[ebp+4], -1244100722 ; b5d8878eH
  00184	c7 85 48 fd ff
	ff 8b 85 99 8f	 mov	 DWORD PTR __k$539742[ebp+8], -1885764213 ; 8f99858bH
  0018e	c7 85 4c fd ff
	ff b2 8b 8a 9a	 mov	 DWORD PTR __k$539742[ebp+12], -1702196302 ; 9a8a8bb2H
  00198	c7 85 50 fd ff
	ff b2 98 82 87	 mov	 DWORD PTR __k$539742[ebp+16], -2021484366 ; 878298b2H
  001a2	8d 85 40 fd ff
	ff		 lea	 eax, DWORD PTR __k$539742[ebp]
  001a8	66 c7 85 54 fd
	ff ff 88 00	 mov	 WORD PTR __k$539742[ebp+20], 136 ; 00000088H
  001b1	59		 pop	 ecx
$LL1030@LoadProper:
  001b2	81 30 ed ec eb
	ea		 xor	 DWORD PTR [eax], -353637139 ; eaebecedH
  001b8	83 c0 04	 add	 eax, 4
  001bb	49		 dec	 ecx
  001bc	75 f4		 jne	 SHORT $LL1030@LoadProper
  001be	80 b5 54 fd ff
	ff ed		 xor	 BYTE PTR __k$539742[ebp+20], -19 ; ffffffedH
  001c5	68 30 75 00 00	 push	 30000			; 00007530H
  001ca	8d 85 40 fd ff
	ff		 lea	 eax, DWORD PTR __k$539742[ebp]
  001d0	50		 push	 eax
  001d1	8b cf		 mov	 ecx, edi
  001d3	ff 15 00 00 00
	00		 call	 DWORD PTR __imp_?LoadInt@ioINILoader@@QAEHPBDH@Z
  001d9	89 86 fc 14 00
	00		 mov	 DWORD PTR [esi+5372], eax
  001df	6a 04		 push	 4

; 38   : 
; 39   : 	m_fFind_1_Angle = rkLoader.LoadFloat_e( "attack1_find_angle", 0.f );

  001e1	c7 85 b4 fd ff
	ff 8c 98 9f 8b	 mov	 DWORD PTR __k$539867[ebp], -1952474996 ; 8b9f988cH
  001eb	c7 85 b8 fd ff
	ff 8e 87 da b5	 mov	 DWORD PTR __k$539867[ebp+4], -1243969650 ; b5da878eH
  001f5	c7 85 bc fd ff
	ff 8b 85 85 8e	 mov	 DWORD PTR __k$539867[ebp+8], -1903852149 ; 8e85858bH
  001ff	c7 85 c0 fd ff
	ff b2 8d 85 8d	 mov	 DWORD PTR __k$539867[ebp+12], -1920627278 ; 8d858db2H
  00209	66 c7 85 c4 fd
	ff ff 81 89	 mov	 WORD PTR __k$539867[ebp+16], 35201 ; 00008981H
  00212	8d 85 b4 fd ff
	ff		 lea	 eax, DWORD PTR __k$539867[ebp]
  00218	88 9d c6 fd ff
	ff		 mov	 BYTE PTR __k$539867[ebp+18], bl
  0021e	59		 pop	 ecx
$LL1136@LoadProper:
  0021f	81 30 ed ec eb
	ea		 xor	 DWORD PTR [eax], -353637139 ; eaebecedH
  00225	83 c0 04	 add	 eax, 4
  00228	49		 dec	 ecx
  00229	75 f4		 jne	 SHORT $LL1136@LoadProper
  0022b	6a 10		 push	 16			; 00000010H
  0022d	58		 pop	 eax
$LL1133@LoadProper:
  0022e	8b c8		 mov	 ecx, eax
  00230	81 e1 03 00 00
	80		 and	 ecx, -2147483645	; 80000003H
  00236	79 05		 jns	 SHORT $LN4439@LoadProper
  00238	49		 dec	 ecx
  00239	83 c9 fc	 or	 ecx, -4			; fffffffcH
  0023c	41		 inc	 ecx
$LN4439@LoadProper:
  0023d	b2 ed		 mov	 dl, -19			; ffffffedH
  0023f	2a d1		 sub	 dl, cl
  00241	30 94 05 b4 fd
	ff ff		 xor	 BYTE PTR __k$539867[ebp+eax], dl
  00248	40		 inc	 eax
  00249	83 f8 12	 cmp	 eax, 18			; 00000012H
  0024c	7c e0		 jl	 SHORT $LL1133@LoadProper
  0024e	0f 57 c0	 xorps	 xmm0, xmm0
  00251	51		 push	 ecx
  00252	8d 85 b4 fd ff
	ff		 lea	 eax, DWORD PTR __k$539867[ebp]
  00258	f3 0f 11 04 24	 movss	 DWORD PTR [esp], xmm0
  0025d	50		 push	 eax
  0025e	8b cf		 mov	 ecx, edi
  00260	ff 15 00 00 00
	00		 call	 DWORD PTR __imp_?LoadFloat@ioINILoader@@QAEMPBDM@Z
  00266	d9 9e 10 15 00
	00		 fstp	 DWORD PTR [esi+5392]
  0026c	6a 05		 push	 5

; 40   : 	m_fFind_1_Range_min = rkLoader.LoadFloat_e( "attack1_find_range_min", 0.f );

  0026e	c7 85 24 fe ff
	ff 8c 98 9f 8b	 mov	 DWORD PTR __k$539992[ebp], -1952474996 ; 8b9f988cH
  00278	c7 85 28 fe ff
	ff 8e 87 da b5	 mov	 DWORD PTR __k$539992[ebp+4], -1243969650 ; b5da878eH
  00282	c7 85 2c fe ff
	ff 8b 85 85 8e	 mov	 DWORD PTR __k$539992[ebp+8], -1903852149 ; 8e85858bH
  0028c	c7 85 30 fe ff
	ff b2 9e 8a 84	 mov	 DWORD PTR __k$539992[ebp+12], -2071290190 ; 848a9eb2H
  00296	c7 85 34 fe ff
	ff 8a 89 b4 87	 mov	 DWORD PTR __k$539992[ebp+16], -2018211446 ; 87b4898aH
  002a0	66 c7 85 38 fe
	ff ff 84 82	 mov	 WORD PTR __k$539992[ebp+20], 33412 ; 00008284H
  002a9	8d 85 24 fe ff
	ff		 lea	 eax, DWORD PTR __k$539992[ebp]
  002af	88 9d 3a fe ff
	ff		 mov	 BYTE PTR __k$539992[ebp+22], bl
  002b5	59		 pop	 ecx
$LL1242@LoadProper:
  002b6	81 30 ed ec eb
	ea		 xor	 DWORD PTR [eax], -353637139 ; eaebecedH
  002bc	83 c0 04	 add	 eax, 4
  002bf	49		 dec	 ecx
  002c0	75 f4		 jne	 SHORT $LL1242@LoadProper
  002c2	6a 14		 push	 20			; 00000014H
  002c4	58		 pop	 eax
$LL1239@LoadProper:
  002c5	8b c8		 mov	 ecx, eax
  002c7	81 e1 03 00 00
	80		 and	 ecx, -2147483645	; 80000003H
  002cd	79 05		 jns	 SHORT $LN4440@LoadProper
  002cf	49		 dec	 ecx
  002d0	83 c9 fc	 or	 ecx, -4			; fffffffcH
  002d3	41		 inc	 ecx
$LN4440@LoadProper:
  002d4	b2 ed		 mov	 dl, -19			; ffffffedH
  002d6	2a d1		 sub	 dl, cl
  002d8	30 94 05 24 fe
	ff ff		 xor	 BYTE PTR __k$539992[ebp+eax], dl
  002df	40		 inc	 eax
  002e0	83 f8 16	 cmp	 eax, 22			; 00000016H
  002e3	7c e0		 jl	 SHORT $LL1239@LoadProper
  002e5	0f 57 c0	 xorps	 xmm0, xmm0
  002e8	51		 push	 ecx
  002e9	8d 85 24 fe ff
	ff		 lea	 eax, DWORD PTR __k$539992[ebp]
  002ef	f3 0f 11 04 24	 movss	 DWORD PTR [esp], xmm0
  002f4	50		 push	 eax
  002f5	8b cf		 mov	 ecx, edi
  002f7	ff 15 00 00 00
	00		 call	 DWORD PTR __imp_?LoadFloat@ioINILoader@@QAEMPBDM@Z
  002fd	d9 9e 14 15 00
	00		 fstp	 DWORD PTR [esi+5396]
  00303	6a 05		 push	 5

; 41   : 	m_fFind_1_Range_max = rkLoader.LoadFloat_e( "attack1_find_range_max", 0.f );

  00305	c7 85 54 fc ff
	ff 8c 98 9f 8b	 mov	 DWORD PTR __k$540117[ebp], -1952474996 ; 8b9f988cH
  0030f	c7 85 58 fc ff
	ff 8e 87 da b5	 mov	 DWORD PTR __k$540117[ebp+4], -1243969650 ; b5da878eH
  00319	c7 85 5c fc ff
	ff 8b 85 85 8e	 mov	 DWORD PTR __k$540117[ebp+8], -1903852149 ; 8e85858bH
  00323	c7 85 60 fc ff
	ff b2 9e 8a 84	 mov	 DWORD PTR __k$540117[ebp+12], -2071290190 ; 848a9eb2H
  0032d	c7 85 64 fc ff
	ff 8a 89 b4 87	 mov	 DWORD PTR __k$540117[ebp+16], -2018211446 ; 87b4898aH
  00337	66 c7 85 68 fc
	ff ff 8c 94	 mov	 WORD PTR __k$540117[ebp+20], 38028 ; 0000948cH
  00340	8d 85 54 fc ff
	ff		 lea	 eax, DWORD PTR __k$540117[ebp]
  00346	88 9d 6a fc ff
	ff		 mov	 BYTE PTR __k$540117[ebp+22], bl
  0034c	59		 pop	 ecx
$LL1348@LoadProper:
  0034d	81 30 ed ec eb
	ea		 xor	 DWORD PTR [eax], -353637139 ; eaebecedH
  00353	83 c0 04	 add	 eax, 4
  00356	49		 dec	 ecx
  00357	75 f4		 jne	 SHORT $LL1348@LoadProper
  00359	6a 14		 push	 20			; 00000014H
  0035b	58		 pop	 eax
$LL1345@LoadProper:
  0035c	8b c8		 mov	 ecx, eax
  0035e	81 e1 03 00 00
	80		 and	 ecx, -2147483645	; 80000003H
  00364	79 05		 jns	 SHORT $LN4441@LoadProper
  00366	49		 dec	 ecx
  00367	83 c9 fc	 or	 ecx, -4			; fffffffcH
  0036a	41		 inc	 ecx
$LN4441@LoadProper:
  0036b	b2 ed		 mov	 dl, -19			; ffffffedH
  0036d	2a d1		 sub	 dl, cl
  0036f	30 94 05 54 fc
	ff ff		 xor	 BYTE PTR __k$540117[ebp+eax], dl
  00376	40		 inc	 eax
  00377	83 f8 16	 cmp	 eax, 22			; 00000016H
  0037a	7c e0		 jl	 SHORT $LL1345@LoadProper
  0037c	0f 57 c0	 xorps	 xmm0, xmm0
  0037f	51		 push	 ecx
  00380	8d 85 54 fc ff
	ff		 lea	 eax, DWORD PTR __k$540117[ebp]
  00386	f3 0f 11 04 24	 movss	 DWORD PTR [esp], xmm0
  0038b	50		 push	 eax
  0038c	8b cf		 mov	 ecx, edi
  0038e	ff 15 00 00 00
	00		 call	 DWORD PTR __imp_?LoadFloat@ioINILoader@@QAEMPBDM@Z
  00394	d9 9e 18 15 00
	00		 fstp	 DWORD PTR [esi+5400]
  0039a	6a 05		 push	 5

; 42   : 	m_fFind_1_Height_min = rkLoader.LoadFloat_e( "attack1_find_height_min", 0.f );

  0039c	c7 85 14 ff ff
	ff 8c 98 9f 8b	 mov	 DWORD PTR __k$540242[ebp], -1952474996 ; 8b9f988cH
  003a6	c7 85 18 ff ff
	ff 8e 87 da b5	 mov	 DWORD PTR __k$540242[ebp+4], -1243969650 ; b5da878eH
  003b0	c7 85 1c ff ff
	ff 8b 85 85 8e	 mov	 DWORD PTR __k$540242[ebp+8], -1903852149 ; 8e85858bH
  003ba	c7 85 20 ff ff
	ff b2 84 8e 83	 mov	 DWORD PTR __k$540242[ebp+12], -2087811918 ; 838e84b2H
  003c4	c7 85 24 ff ff
	ff 8a 84 9f b5	 mov	 DWORD PTR __k$540242[ebp+16], -1247837046 ; b59f848aH
  003ce	8d 85 14 ff ff
	ff		 lea	 eax, DWORD PTR __k$540242[ebp]
  003d4	c7 85 28 ff ff
	ff 80 85 85 00	 mov	 DWORD PTR __k$540242[ebp+20], 8750464 ; 00858580H
  003de	59		 pop	 ecx
$LL1454@LoadProper:
  003df	81 30 ed ec eb
	ea		 xor	 DWORD PTR [eax], -353637139 ; eaebecedH
  003e5	83 c0 04	 add	 eax, 4
  003e8	49		 dec	 ecx
  003e9	75 f4		 jne	 SHORT $LL1454@LoadProper
  003eb	6a 14		 push	 20			; 00000014H
  003ed	58		 pop	 eax
$LL1451@LoadProper:
  003ee	8b c8		 mov	 ecx, eax
  003f0	81 e1 03 00 00
	80		 and	 ecx, -2147483645	; 80000003H
  003f6	79 05		 jns	 SHORT $LN4442@LoadProper
  003f8	49		 dec	 ecx
  003f9	83 c9 fc	 or	 ecx, -4			; fffffffcH
  003fc	41		 inc	 ecx
$LN4442@LoadProper:
  003fd	b2 ed		 mov	 dl, -19			; ffffffedH
  003ff	2a d1		 sub	 dl, cl
  00401	30 94 05 14 ff
	ff ff		 xor	 BYTE PTR __k$540242[ebp+eax], dl
  00408	40		 inc	 eax
  00409	83 f8 17	 cmp	 eax, 23			; 00000017H
  0040c	7c e0		 jl	 SHORT $LL1451@LoadProper
  0040e	0f 57 c0	 xorps	 xmm0, xmm0
  00411	51		 push	 ecx
  00412	8d 85 14 ff ff
	ff		 lea	 eax, DWORD PTR __k$540242[ebp]
  00418	f3 0f 11 04 24	 movss	 DWORD PTR [esp], xmm0
  0041d	50		 push	 eax
  0041e	8b cf		 mov	 ecx, edi
  00420	ff 15 00 00 00
	00		 call	 DWORD PTR __imp_?LoadFloat@ioINILoader@@QAEMPBDM@Z
  00426	d9 9e 1c 15 00
	00		 fstp	 DWORD PTR [esi+5404]
  0042c	6a 05		 push	 5

; 43   : 	m_fFind_1_Height_max = rkLoader.LoadFloat_e( "attack1_find_height_max", 0.f );

  0042e	c7 85 e0 fe ff
	ff 8c 98 9f 8b	 mov	 DWORD PTR __k$540354[ebp], -1952474996 ; 8b9f988cH
  00438	c7 85 e4 fe ff
	ff 8e 87 da b5	 mov	 DWORD PTR __k$540354[ebp+4], -1243969650 ; b5da878eH
  00442	c7 85 e8 fe ff
	ff 8b 85 85 8e	 mov	 DWORD PTR __k$540354[ebp+8], -1903852149 ; 8e85858bH
  0044c	c7 85 ec fe ff
	ff b2 84 8e 83	 mov	 DWORD PTR __k$540354[ebp+12], -2087811918 ; 838e84b2H
  00456	c7 85 f0 fe ff
	ff 8a 84 9f b5	 mov	 DWORD PTR __k$540354[ebp+16], -1247837046 ; b59f848aH
  00460	8d 85 e0 fe ff
	ff		 lea	 eax, DWORD PTR __k$540354[ebp]
  00466	c7 85 f4 fe ff
	ff 80 8d 93 00	 mov	 DWORD PTR __k$540354[ebp+20], 9670016 ; 00938d80H
  00470	59		 pop	 ecx
$LL1560@LoadProper:
  00471	81 30 ed ec eb
	ea		 xor	 DWORD PTR [eax], -353637139 ; eaebecedH
  00477	83 c0 04	 add	 eax, 4
  0047a	49		 dec	 ecx
  0047b	75 f4		 jne	 SHORT $LL1560@LoadProper
  0047d	6a 14		 push	 20			; 00000014H
  0047f	58		 pop	 eax
$LL1557@LoadProper:
  00480	8b c8		 mov	 ecx, eax
  00482	81 e1 03 00 00
	80		 and	 ecx, -2147483645	; 80000003H
  00488	79 05		 jns	 SHORT $LN4443@LoadProper
  0048a	49		 dec	 ecx
  0048b	83 c9 fc	 or	 ecx, -4			; fffffffcH
  0048e	41		 inc	 ecx
$LN4443@LoadProper:
  0048f	b2 ed		 mov	 dl, -19			; ffffffedH
  00491	2a d1		 sub	 dl, cl
  00493	30 94 05 e0 fe
	ff ff		 xor	 BYTE PTR __k$540354[ebp+eax], dl
  0049a	40		 inc	 eax
  0049b	83 f8 17	 cmp	 eax, 23			; 00000017H
  0049e	7c e0		 jl	 SHORT $LL1557@LoadProper
  004a0	0f 57 c0	 xorps	 xmm0, xmm0
  004a3	51		 push	 ecx
  004a4	8d 85 e0 fe ff
	ff		 lea	 eax, DWORD PTR __k$540354[ebp]
  004aa	f3 0f 11 04 24	 movss	 DWORD PTR [esp], xmm0
  004af	50		 push	 eax
  004b0	8b cf		 mov	 ecx, edi
  004b2	ff 15 00 00 00
	00		 call	 DWORD PTR __imp_?LoadFloat@ioINILoader@@QAEMPBDM@Z
  004b8	d9 9e 20 15 00
	00		 fstp	 DWORD PTR [esi+5408]
  004be	6a 06		 push	 6

; 44   : 
; 45   : 	m_fWeapon_1_LookOffSet = rkLoader.LoadFloat_e( "attack_1_weapon_look_offset", 0.f );

  004c0	c7 85 cc fd ff
	ff 8c 98 9f 8b	 mov	 DWORD PTR __k$540484[ebp], -1952474996 ; 8b9f988cH
  004ca	c7 85 d0 fd ff
	ff 8e 87 b4 db	 mov	 DWORD PTR __k$540484[ebp+4], -608925810 ; dbb4878eH
  004d4	c7 85 d4 fd ff
	ff b2 9b 8e 8b	 mov	 DWORD PTR __k$540484[ebp+8], -1953588302 ; 8b8e9bb2H
  004de	c7 85 d8 fd ff
	ff 9d 83 85 b5	 mov	 DWORD PTR __k$540484[ebp+12], -1249541219 ; b585839dH
  004e8	c7 85 dc fd ff
	ff 81 83 84 81	 mov	 DWORD PTR __k$540484[ebp+16], -2122022015 ; 81848381H
  004f2	c7 85 e0 fd ff
	ff b2 83 8d 8c	 mov	 DWORD PTR __k$540484[ebp+20], -1936882766 ; 8c8d83b2H
  004fc	8d 85 cc fd ff
	ff		 lea	 eax, DWORD PTR __k$540484[ebp]
  00502	c7 85 e4 fd ff
	ff 9e 89 9f 00	 mov	 DWORD PTR __k$540484[ebp+24], 10455454 ; 009f899eH
  0050c	59		 pop	 ecx
$LL1666@LoadProper:
  0050d	81 30 ed ec eb
	ea		 xor	 DWORD PTR [eax], -353637139 ; eaebecedH
  00513	83 c0 04	 add	 eax, 4
  00516	49		 dec	 ecx
  00517	75 f4		 jne	 SHORT $LL1666@LoadProper
  00519	6a 18		 push	 24			; 00000018H
  0051b	58		 pop	 eax
$LL1663@LoadProper:
  0051c	8b c8		 mov	 ecx, eax
  0051e	81 e1 03 00 00
	80		 and	 ecx, -2147483645	; 80000003H
  00524	79 05		 jns	 SHORT $LN4444@LoadProper
  00526	49		 dec	 ecx
  00527	83 c9 fc	 or	 ecx, -4			; fffffffcH
  0052a	41		 inc	 ecx
$LN4444@LoadProper:
  0052b	b2 ed		 mov	 dl, -19			; ffffffedH
  0052d	2a d1		 sub	 dl, cl
  0052f	30 94 05 cc fd
	ff ff		 xor	 BYTE PTR __k$540484[ebp+eax], dl
  00536	40		 inc	 eax
  00537	83 f8 1b	 cmp	 eax, 27			; 0000001bH
  0053a	7c e0		 jl	 SHORT $LL1663@LoadProper
  0053c	0f 57 c0	 xorps	 xmm0, xmm0
  0053f	51		 push	 ecx
  00540	8d 85 cc fd ff
	ff		 lea	 eax, DWORD PTR __k$540484[ebp]
  00546	f3 0f 11 04 24	 movss	 DWORD PTR [esp], xmm0
  0054b	50		 push	 eax
  0054c	8b cf		 mov	 ecx, edi
  0054e	ff 15 00 00 00
	00		 call	 DWORD PTR __imp_?LoadFloat@ioINILoader@@QAEMPBDM@Z
  00554	d9 9e 24 15 00
	00		 fstp	 DWORD PTR [esi+5412]
  0055a	6a 07		 push	 7

; 46   : 	m_fWeapon_1_height_OffSet = rkLoader.LoadFloat_e( "attack_1_weapon_height_offset", 0.f );

  0055c	c7 85 70 fc ff
	ff 8c 98 9f 8b	 mov	 DWORD PTR __k$540664[ebp], -1952474996 ; 8b9f988cH
  00566	c7 85 74 fc ff
	ff 8e 87 b4 db	 mov	 DWORD PTR __k$540664[ebp+4], -608925810 ; dbb4878eH
  00570	c7 85 78 fc ff
	ff b2 9b 8e 8b	 mov	 DWORD PTR __k$540664[ebp+8], -1953588302 ; 8b8e9bb2H
  0057a	c7 85 7c fc ff
	ff 9d 83 85 b5	 mov	 DWORD PTR __k$540664[ebp+12], -1249541219 ; b585839dH
  00584	c7 85 80 fc ff
	ff 85 89 82 8d	 mov	 DWORD PTR __k$540664[ebp+16], -1920824955 ; 8d828985H
  0058e	c7 85 84 fc ff
	ff 85 98 b4 85	 mov	 DWORD PTR __k$540664[ebp+20], -2051762043 ; 85b49885H
  00598	c7 85 88 fc ff
	ff 8b 8a 98 8f	 mov	 DWORD PTR __k$540664[ebp+24], -1885828469 ; 8f988a8bH
  005a2	8d 85 70 fc ff
	ff		 lea	 eax, DWORD PTR __k$540664[ebp]
  005a8	66 c7 85 8c fc
	ff ff 99 00	 mov	 WORD PTR __k$540664[ebp+28], 153 ; 00000099H
  005b1	59		 pop	 ecx
$LL1772@LoadProper:
  005b2	81 30 ed ec eb
	ea		 xor	 DWORD PTR [eax], -353637139 ; eaebecedH
  005b8	83 c0 04	 add	 eax, 4
  005bb	49		 dec	 ecx
  005bc	75 f4		 jne	 SHORT $LL1772@LoadProper
  005be	0f 57 c0	 xorps	 xmm0, xmm0
  005c1	80 b5 8c fc ff
	ff ed		 xor	 BYTE PTR __k$540664[ebp+28], -19 ; ffffffedH
  005c8	51		 push	 ecx
  005c9	8d 85 70 fc ff
	ff		 lea	 eax, DWORD PTR __k$540664[ebp]
  005cf	f3 0f 11 04 24	 movss	 DWORD PTR [esp], xmm0
  005d4	50		 push	 eax
  005d5	8b cf		 mov	 ecx, edi
  005d7	ff 15 00 00 00
	00		 call	 DWORD PTR __imp_?LoadFloat@ioINILoader@@QAEMPBDM@Z
  005dd	d9 9e 28 15 00
	00		 fstp	 DWORD PTR [esi+5416]
  005e3	6a 06		 push	 6

; 47   : 	m_fWeapon_1_Side_OffSet = rkLoader.LoadFloat_e( "attack_1_weapon_side_offset", 0.f );

  005e5	c7 85 94 fd ff
	ff 8c 98 9f 8b	 mov	 DWORD PTR __k$540742[ebp], -1952474996 ; 8b9f988cH
  005ef	c7 85 98 fd ff
	ff 8e 87 b4 db	 mov	 DWORD PTR __k$540742[ebp+4], -608925810 ; dbb4878eH
  005f9	c7 85 9c fd ff
	ff b2 9b 8e 8b	 mov	 DWORD PTR __k$540742[ebp+8], -1953588302 ; 8b8e9bb2H
  00603	c7 85 a0 fd ff
	ff 9d 83 85 b5	 mov	 DWORD PTR __k$540742[ebp+12], -1249541219 ; b585839dH
  0060d	c7 85 a4 fd ff
	ff 9e 85 8f 8f	 mov	 DWORD PTR __k$540742[ebp+16], -1886419554 ; 8f8f859eH
  00617	c7 85 a8 fd ff
	ff b2 83 8d 8c	 mov	 DWORD PTR __k$540742[ebp+20], -1936882766 ; 8c8d83b2H
  00621	8d 85 94 fd ff
	ff		 lea	 eax, DWORD PTR __k$540742[ebp]
  00627	c7 85 ac fd ff
	ff 9e 89 9f 00	 mov	 DWORD PTR __k$540742[ebp+24], 10455454 ; 009f899eH
  00631	59		 pop	 ecx
$LL1878@LoadProper:
  00632	81 30 ed ec eb
	ea		 xor	 DWORD PTR [eax], -353637139 ; eaebecedH
  00638	83 c0 04	 add	 eax, 4
  0063b	49		 dec	 ecx
  0063c	75 f4		 jne	 SHORT $LL1878@LoadProper
  0063e	6a 18		 push	 24			; 00000018H
  00640	58		 pop	 eax
$LL1875@LoadProper:
  00641	8b c8		 mov	 ecx, eax
  00643	81 e1 03 00 00
	80		 and	 ecx, -2147483645	; 80000003H
  00649	79 05		 jns	 SHORT $LN4445@LoadProper
  0064b	49		 dec	 ecx
  0064c	83 c9 fc	 or	 ecx, -4			; fffffffcH
  0064f	41		 inc	 ecx
$LN4445@LoadProper:
  00650	b2 ed		 mov	 dl, -19			; ffffffedH
  00652	2a d1		 sub	 dl, cl
  00654	30 94 05 94 fd
	ff ff		 xor	 BYTE PTR __k$540742[ebp+eax], dl
  0065b	40		 inc	 eax
  0065c	83 f8 1b	 cmp	 eax, 27			; 0000001bH
  0065f	7c e0		 jl	 SHORT $LL1875@LoadProper
  00661	0f 57 c0	 xorps	 xmm0, xmm0
  00664	51		 push	 ecx
  00665	8d 85 94 fd ff
	ff		 lea	 eax, DWORD PTR __k$540742[ebp]
  0066b	f3 0f 11 04 24	 movss	 DWORD PTR [esp], xmm0
  00670	50		 push	 eax
  00671	8b cf		 mov	 ecx, edi
  00673	ff 15 00 00 00
	00		 call	 DWORD PTR __imp_?LoadFloat@ioINILoader@@QAEMPBDM@Z
  00679	d9 9e 2c 15 00
	00		 fstp	 DWORD PTR [esi+5420]
  0067f	6a 08		 push	 8

; 48   : 
; 49   : 	m_fTarget_1_ShootOffHeight = rkLoader.LoadFloat_e( "attack_1_target_shoot_off_height", 0.f );

  00681	c7 85 b8 fb ff
	ff 8c 98 9f 8b	 mov	 DWORD PTR __k$540854[ebp], -1952474996 ; 8b9f988cH
  0068b	c7 85 bc fb ff
	ff 8e 87 b4 db	 mov	 DWORD PTR __k$540854[ebp+4], -608925810 ; dbb4878eH
  00695	c7 85 c0 fb ff
	ff b2 98 8a 98	 mov	 DWORD PTR __k$540854[ebp+8], -1735747406 ; 988a98b2H
  0069f	c7 85 c4 fb ff
	ff 8a 89 9f b5	 mov	 DWORD PTR __k$540854[ebp+12], -1247835766 ; b59f898aH
  006a9	c7 85 c8 fb ff
	ff 9e 84 84 85	 mov	 DWORD PTR __k$540854[ebp+16], -2054912866 ; 8584849eH
  006b3	c7 85 cc fb ff
	ff 99 b3 84 8c	 mov	 DWORD PTR __k$540854[ebp+20], -1937460327 ; 8c84b399H
  006bd	c7 85 d0 fb ff
	ff 8b b3 83 8f	 mov	 DWORD PTR __k$540854[ebp+24], -1887194229 ; 8f83b38bH
  006c7	c7 85 d4 fb ff
	ff 84 8b 83 9e	 mov	 DWORD PTR __k$540854[ebp+28], -1635546236 ; 9e838b84H
  006d1	8d 85 b8 fb ff
	ff		 lea	 eax, DWORD PTR __k$540854[ebp]
  006d7	88 9d d8 fb ff
	ff		 mov	 BYTE PTR __k$540854[ebp+32], bl
  006dd	59		 pop	 ecx
$LL1984@LoadProper:
  006de	81 30 ed ec eb
	ea		 xor	 DWORD PTR [eax], -353637139 ; eaebecedH
  006e4	83 c0 04	 add	 eax, 4
  006e7	49		 dec	 ecx
  006e8	75 f4		 jne	 SHORT $LL1984@LoadProper
  006ea	0f 57 c0	 xorps	 xmm0, xmm0
  006ed	51		 push	 ecx
  006ee	8d 85 b8 fb ff
	ff		 lea	 eax, DWORD PTR __k$540854[ebp]
  006f4	f3 0f 11 04 24	 movss	 DWORD PTR [esp], xmm0
  006f9	50		 push	 eax
  006fa	8b cf		 mov	 ecx, edi
  006fc	ff 15 00 00 00
	00		 call	 DWORD PTR __imp_?LoadFloat@ioINILoader@@QAEMPBDM@Z
  00702	d9 9e 30 15 00
	00		 fstp	 DWORD PTR [esi+5424]
  00708	6a 04		 push	 4

; 50   : 
; 51   : 	//////////////////////////////////////////////////////////////////////////
; 52   : 
; 53   : 	m_fFind_2_Angle = rkLoader.LoadFloat_e( "attack2_find_angle", 0.f );

  0070a	c7 85 fc fe ff
	ff 8c 98 9f 8b	 mov	 DWORD PTR __k$540992[ebp], -1952474996 ; 8b9f988cH
  00714	c7 85 00 ff ff
	ff 8e 87 d9 b5	 mov	 DWORD PTR __k$540992[ebp+4], -1244035186 ; b5d9878eH
  0071e	c7 85 04 ff ff
	ff 8b 85 85 8e	 mov	 DWORD PTR __k$540992[ebp+8], -1903852149 ; 8e85858bH
  00728	c7 85 08 ff ff
	ff b2 8d 85 8d	 mov	 DWORD PTR __k$540992[ebp+12], -1920627278 ; 8d858db2H
  00732	66 c7 85 0c ff
	ff ff 81 89	 mov	 WORD PTR __k$540992[ebp+16], 35201 ; 00008981H
  0073b	8d 85 fc fe ff
	ff		 lea	 eax, DWORD PTR __k$540992[ebp]
  00741	88 9d 0e ff ff
	ff		 mov	 BYTE PTR __k$540992[ebp+18], bl
  00747	59		 pop	 ecx
$LL2090@LoadProper:
  00748	81 30 ed ec eb
	ea		 xor	 DWORD PTR [eax], -353637139 ; eaebecedH
  0074e	83 c0 04	 add	 eax, 4
  00751	49		 dec	 ecx
  00752	75 f4		 jne	 SHORT $LL2090@LoadProper
  00754	6a 10		 push	 16			; 00000010H
  00756	58		 pop	 eax
$LL2087@LoadProper:
  00757	8b c8		 mov	 ecx, eax
  00759	81 e1 03 00 00
	80		 and	 ecx, -2147483645	; 80000003H
  0075f	79 05		 jns	 SHORT $LN4446@LoadProper
  00761	49		 dec	 ecx
  00762	83 c9 fc	 or	 ecx, -4			; fffffffcH
  00765	41		 inc	 ecx
$LN4446@LoadProper:
  00766	b2 ed		 mov	 dl, -19			; ffffffedH
  00768	2a d1		 sub	 dl, cl
  0076a	30 94 05 fc fe
	ff ff		 xor	 BYTE PTR __k$540992[ebp+eax], dl
  00771	40		 inc	 eax
  00772	83 f8 12	 cmp	 eax, 18			; 00000012H
  00775	7c e0		 jl	 SHORT $LL2087@LoadProper
  00777	0f 57 c0	 xorps	 xmm0, xmm0
  0077a	51		 push	 ecx
  0077b	8d 85 fc fe ff
	ff		 lea	 eax, DWORD PTR __k$540992[ebp]
  00781	f3 0f 11 04 24	 movss	 DWORD PTR [esp], xmm0
  00786	50		 push	 eax
  00787	8b cf		 mov	 ecx, edi
  00789	ff 15 00 00 00
	00		 call	 DWORD PTR __imp_?LoadFloat@ioINILoader@@QAEMPBDM@Z
  0078f	d9 9e 34 15 00
	00		 fstp	 DWORD PTR [esi+5428]
  00795	6a 05		 push	 5

; 54   : 	m_fFind_2_Range_min = rkLoader.LoadFloat_e( "attack2_find_range_min", 0.f );

  00797	c7 85 ec fd ff
	ff 8c 98 9f 8b	 mov	 DWORD PTR __k$541117[ebp], -1952474996 ; 8b9f988cH
  007a1	c7 85 f0 fd ff
	ff 8e 87 d9 b5	 mov	 DWORD PTR __k$541117[ebp+4], -1244035186 ; b5d9878eH
  007ab	c7 85 f4 fd ff
	ff 8b 85 85 8e	 mov	 DWORD PTR __k$541117[ebp+8], -1903852149 ; 8e85858bH
  007b5	c7 85 f8 fd ff
	ff b2 9e 8a 84	 mov	 DWORD PTR __k$541117[ebp+12], -2071290190 ; 848a9eb2H
  007bf	c7 85 fc fd ff
	ff 8a 89 b4 87	 mov	 DWORD PTR __k$541117[ebp+16], -2018211446 ; 87b4898aH
  007c9	66 c7 85 00 fe
	ff ff 84 82	 mov	 WORD PTR __k$541117[ebp+20], 33412 ; 00008284H
  007d2	8d 85 ec fd ff
	ff		 lea	 eax, DWORD PTR __k$541117[ebp]
  007d8	88 9d 02 fe ff
	ff		 mov	 BYTE PTR __k$541117[ebp+22], bl
  007de	59		 pop	 ecx
$LL2196@LoadProper:
  007df	81 30 ed ec eb
	ea		 xor	 DWORD PTR [eax], -353637139 ; eaebecedH
  007e5	83 c0 04	 add	 eax, 4
  007e8	49		 dec	 ecx
  007e9	75 f4		 jne	 SHORT $LL2196@LoadProper
  007eb	6a 14		 push	 20			; 00000014H
  007ed	58		 pop	 eax
$LL2193@LoadProper:
  007ee	8b c8		 mov	 ecx, eax
  007f0	81 e1 03 00 00
	80		 and	 ecx, -2147483645	; 80000003H
  007f6	79 05		 jns	 SHORT $LN4447@LoadProper
  007f8	49		 dec	 ecx
  007f9	83 c9 fc	 or	 ecx, -4			; fffffffcH
  007fc	41		 inc	 ecx
$LN4447@LoadProper:
  007fd	b2 ed		 mov	 dl, -19			; ffffffedH
  007ff	2a d1		 sub	 dl, cl
  00801	30 94 05 ec fd
	ff ff		 xor	 BYTE PTR __k$541117[ebp+eax], dl
  00808	40		 inc	 eax
  00809	83 f8 16	 cmp	 eax, 22			; 00000016H
  0080c	7c e0		 jl	 SHORT $LL2193@LoadProper
  0080e	0f 57 c0	 xorps	 xmm0, xmm0
  00811	51		 push	 ecx
  00812	8d 85 ec fd ff
	ff		 lea	 eax, DWORD PTR __k$541117[ebp]
  00818	f3 0f 11 04 24	 movss	 DWORD PTR [esp], xmm0
  0081d	50		 push	 eax
  0081e	8b cf		 mov	 ecx, edi
  00820	ff 15 00 00 00
	00		 call	 DWORD PTR __imp_?LoadFloat@ioINILoader@@QAEMPBDM@Z
  00826	d9 9e 38 15 00
	00		 fstp	 DWORD PTR [esi+5432]
  0082c	6a 05		 push	 5

; 55   : 	m_fFind_2_Range_max = rkLoader.LoadFloat_e( "attack2_find_range_max", 0.f );

  0082e	c7 45 9c 8c 98
	9f 8b		 mov	 DWORD PTR __k$541229[ebp], -1952474996 ; 8b9f988cH
  00835	c7 45 a0 8e 87
	d9 b5		 mov	 DWORD PTR __k$541229[ebp+4], -1244035186 ; b5d9878eH
  0083c	c7 45 a4 8b 85
	85 8e		 mov	 DWORD PTR __k$541229[ebp+8], -1903852149 ; 8e85858bH
  00843	c7 45 a8 b2 9e
	8a 84		 mov	 DWORD PTR __k$541229[ebp+12], -2071290190 ; 848a9eb2H
  0084a	c7 45 ac 8a 89
	b4 87		 mov	 DWORD PTR __k$541229[ebp+16], -2018211446 ; 87b4898aH
  00851	66 c7 45 b0 8c
	94		 mov	 WORD PTR __k$541229[ebp+20], 38028 ; 0000948cH
  00857	8d 45 9c	 lea	 eax, DWORD PTR __k$541229[ebp]
  0085a	88 5d b2	 mov	 BYTE PTR __k$541229[ebp+22], bl
  0085d	59		 pop	 ecx
$LL2302@LoadProper:
  0085e	81 30 ed ec eb
	ea		 xor	 DWORD PTR [eax], -353637139 ; eaebecedH
  00864	83 c0 04	 add	 eax, 4
  00867	49		 dec	 ecx
  00868	75 f4		 jne	 SHORT $LL2302@LoadProper
  0086a	6a 14		 push	 20			; 00000014H
  0086c	58		 pop	 eax
$LL2299@LoadProper:
  0086d	8b c8		 mov	 ecx, eax
  0086f	81 e1 03 00 00
	80		 and	 ecx, -2147483645	; 80000003H
  00875	79 05		 jns	 SHORT $LN4448@LoadProper
  00877	49		 dec	 ecx
  00878	83 c9 fc	 or	 ecx, -4			; fffffffcH
  0087b	41		 inc	 ecx
$LN4448@LoadProper:
  0087c	b2 ed		 mov	 dl, -19			; ffffffedH
  0087e	2a d1		 sub	 dl, cl
  00880	30 54 05 9c	 xor	 BYTE PTR __k$541229[ebp+eax], dl
  00884	40		 inc	 eax
  00885	83 f8 16	 cmp	 eax, 22			; 00000016H
  00888	7c e3		 jl	 SHORT $LL2299@LoadProper
  0088a	0f 57 c0	 xorps	 xmm0, xmm0
  0088d	51		 push	 ecx
  0088e	8d 45 9c	 lea	 eax, DWORD PTR __k$541229[ebp]
  00891	f3 0f 11 04 24	 movss	 DWORD PTR [esp], xmm0
  00896	50		 push	 eax
  00897	8b cf		 mov	 ecx, edi
  00899	ff 15 00 00 00
	00		 call	 DWORD PTR __imp_?LoadFloat@ioINILoader@@QAEMPBDM@Z
  0089f	d9 9e 3c 15 00
	00		 fstp	 DWORD PTR [esi+5436]
  008a5	6a 05		 push	 5

; 56   : 	m_fFind_2_Height_min = rkLoader.LoadFloat_e( "attack2_find_height_min", 0.f );

  008a7	c7 85 ac fe ff
	ff 8c 98 9f 8b	 mov	 DWORD PTR __k$541358[ebp], -1952474996 ; 8b9f988cH
  008b1	c7 85 b0 fe ff
	ff 8e 87 d9 b5	 mov	 DWORD PTR __k$541358[ebp+4], -1244035186 ; b5d9878eH
  008bb	c7 85 b4 fe ff
	ff 8b 85 85 8e	 mov	 DWORD PTR __k$541358[ebp+8], -1903852149 ; 8e85858bH
  008c5	c7 85 b8 fe ff
	ff b2 84 8e 83	 mov	 DWORD PTR __k$541358[ebp+12], -2087811918 ; 838e84b2H
  008cf	c7 85 bc fe ff
	ff 8a 84 9f b5	 mov	 DWORD PTR __k$541358[ebp+16], -1247837046 ; b59f848aH
  008d9	8d 85 ac fe ff
	ff		 lea	 eax, DWORD PTR __k$541358[ebp]
  008df	c7 85 c0 fe ff
	ff 80 85 85 00	 mov	 DWORD PTR __k$541358[ebp+20], 8750464 ; 00858580H
  008e9	59		 pop	 ecx
$LL2408@LoadProper:
  008ea	81 30 ed ec eb
	ea		 xor	 DWORD PTR [eax], -353637139 ; eaebecedH
  008f0	83 c0 04	 add	 eax, 4
  008f3	49		 dec	 ecx
  008f4	75 f4		 jne	 SHORT $LL2408@LoadProper
  008f6	6a 14		 push	 20			; 00000014H
  008f8	58		 pop	 eax
$LL2405@LoadProper:
  008f9	8b c8		 mov	 ecx, eax
  008fb	81 e1 03 00 00
	80		 and	 ecx, -2147483645	; 80000003H
  00901	79 05		 jns	 SHORT $LN4449@LoadProper
  00903	49		 dec	 ecx
  00904	83 c9 fc	 or	 ecx, -4			; fffffffcH
  00907	41		 inc	 ecx
$LN4449@LoadProper:
  00908	b2 ed		 mov	 dl, -19			; ffffffedH
  0090a	2a d1		 sub	 dl, cl
  0090c	30 94 05 ac fe
	ff ff		 xor	 BYTE PTR __k$541358[ebp+eax], dl
  00913	40		 inc	 eax
  00914	83 f8 17	 cmp	 eax, 23			; 00000017H
  00917	7c e0		 jl	 SHORT $LL2405@LoadProper
  00919	0f 57 c0	 xorps	 xmm0, xmm0
  0091c	51		 push	 ecx
  0091d	8d 85 ac fe ff
	ff		 lea	 eax, DWORD PTR __k$541358[ebp]
  00923	f3 0f 11 04 24	 movss	 DWORD PTR [esp], xmm0
  00928	50		 push	 eax
  00929	8b cf		 mov	 ecx, edi
  0092b	ff 15 00 00 00
	00		 call	 DWORD PTR __imp_?LoadFloat@ioINILoader@@QAEMPBDM@Z
  00931	d9 9e 40 15 00
	00		 fstp	 DWORD PTR [esi+5440]
  00937	6a 05		 push	 5

; 57   : 	m_fFind_2_Height_max = rkLoader.LoadFloat_e( "attack2_find_height_max", 0.f );

  00939	c7 85 78 fe ff
	ff 8c 98 9f 8b	 mov	 DWORD PTR __k$541479[ebp], -1952474996 ; 8b9f988cH
  00943	c7 85 7c fe ff
	ff 8e 87 d9 b5	 mov	 DWORD PTR __k$541479[ebp+4], -1244035186 ; b5d9878eH
  0094d	c7 85 80 fe ff
	ff 8b 85 85 8e	 mov	 DWORD PTR __k$541479[ebp+8], -1903852149 ; 8e85858bH
  00957	c7 85 84 fe ff
	ff b2 84 8e 83	 mov	 DWORD PTR __k$541479[ebp+12], -2087811918 ; 838e84b2H
  00961	c7 85 88 fe ff
	ff 8a 84 9f b5	 mov	 DWORD PTR __k$541479[ebp+16], -1247837046 ; b59f848aH
  0096b	8d 85 78 fe ff
	ff		 lea	 eax, DWORD PTR __k$541479[ebp]
  00971	c7 85 8c fe ff
	ff 80 8d 93 00	 mov	 DWORD PTR __k$541479[ebp+20], 9670016 ; 00938d80H
  0097b	59		 pop	 ecx
$LL2514@LoadProper:
  0097c	81 30 ed ec eb
	ea		 xor	 DWORD PTR [eax], -353637139 ; eaebecedH
  00982	83 c0 04	 add	 eax, 4
  00985	49		 dec	 ecx
  00986	75 f4		 jne	 SHORT $LL2514@LoadProper
  00988	6a 14		 push	 20			; 00000014H
  0098a	58		 pop	 eax
$LL2511@LoadProper:
  0098b	8b c8		 mov	 ecx, eax
  0098d	81 e1 03 00 00
	80		 and	 ecx, -2147483645	; 80000003H
  00993	79 05		 jns	 SHORT $LN4450@LoadProper
  00995	49		 dec	 ecx
  00996	83 c9 fc	 or	 ecx, -4			; fffffffcH
  00999	41		 inc	 ecx
$LN4450@LoadProper:
  0099a	b2 ed		 mov	 dl, -19			; ffffffedH
  0099c	2a d1		 sub	 dl, cl
  0099e	30 94 05 78 fe
	ff ff		 xor	 BYTE PTR __k$541479[ebp+eax], dl
  009a5	40		 inc	 eax
  009a6	83 f8 17	 cmp	 eax, 23			; 00000017H
  009a9	7c e0		 jl	 SHORT $LL2511@LoadProper
  009ab	0f 57 c0	 xorps	 xmm0, xmm0
  009ae	51		 push	 ecx
  009af	8d 85 78 fe ff
	ff		 lea	 eax, DWORD PTR __k$541479[ebp]
  009b5	f3 0f 11 04 24	 movss	 DWORD PTR [esp], xmm0
  009ba	50		 push	 eax
  009bb	8b cf		 mov	 ecx, edi
  009bd	ff 15 00 00 00
	00		 call	 DWORD PTR __imp_?LoadFloat@ioINILoader@@QAEMPBDM@Z
  009c3	d9 9e 44 15 00
	00		 fstp	 DWORD PTR [esi+5444]
  009c9	6a 06		 push	 6

; 58   : 
; 59   : 	m_fWeapon_2_LookOffSet = rkLoader.LoadFloat_e( "attack_2_weapon_look_offset", 0.f );

  009cb	c7 85 5c fd ff
	ff 8c 98 9f 8b	 mov	 DWORD PTR __k$541604[ebp], -1952474996 ; 8b9f988cH
  009d5	c7 85 60 fd ff
	ff 8e 87 b4 d8	 mov	 DWORD PTR __k$541604[ebp+4], -659257458 ; d8b4878eH
  009df	c7 85 64 fd ff
	ff b2 9b 8e 8b	 mov	 DWORD PTR __k$541604[ebp+8], -1953588302 ; 8b8e9bb2H
  009e9	c7 85 68 fd ff
	ff 9d 83 85 b5	 mov	 DWORD PTR __k$541604[ebp+12], -1249541219 ; b585839dH
  009f3	c7 85 6c fd ff
	ff 81 83 84 81	 mov	 DWORD PTR __k$541604[ebp+16], -2122022015 ; 81848381H
  009fd	c7 85 70 fd ff
	ff b2 83 8d 8c	 mov	 DWORD PTR __k$541604[ebp+20], -1936882766 ; 8c8d83b2H
  00a07	8d 85 5c fd ff
	ff		 lea	 eax, DWORD PTR __k$541604[ebp]
  00a0d	c7 85 74 fd ff
	ff 9e 89 9f 00	 mov	 DWORD PTR __k$541604[ebp+24], 10455454 ; 009f899eH
  00a17	59		 pop	 ecx
$LL2620@LoadProper:
  00a18	81 30 ed ec eb
	ea		 xor	 DWORD PTR [eax], -353637139 ; eaebecedH
  00a1e	83 c0 04	 add	 eax, 4
  00a21	49		 dec	 ecx
  00a22	75 f4		 jne	 SHORT $LL2620@LoadProper
  00a24	6a 18		 push	 24			; 00000018H
  00a26	58		 pop	 eax
$LL2617@LoadProper:
  00a27	8b c8		 mov	 ecx, eax
  00a29	81 e1 03 00 00
	80		 and	 ecx, -2147483645	; 80000003H
  00a2f	79 05		 jns	 SHORT $LN4451@LoadProper
  00a31	49		 dec	 ecx
  00a32	83 c9 fc	 or	 ecx, -4			; fffffffcH
  00a35	41		 inc	 ecx
$LN4451@LoadProper:
  00a36	b2 ed		 mov	 dl, -19			; ffffffedH
  00a38	2a d1		 sub	 dl, cl
  00a3a	30 94 05 5c fd
	ff ff		 xor	 BYTE PTR __k$541604[ebp+eax], dl
  00a41	40		 inc	 eax
  00a42	83 f8 1b	 cmp	 eax, 27			; 0000001bH
  00a45	7c e0		 jl	 SHORT $LL2617@LoadProper
  00a47	0f 57 c0	 xorps	 xmm0, xmm0
  00a4a	51		 push	 ecx
  00a4b	8d 85 5c fd ff
	ff		 lea	 eax, DWORD PTR __k$541604[ebp]
  00a51	f3 0f 11 04 24	 movss	 DWORD PTR [esp], xmm0
  00a56	50		 push	 eax
  00a57	8b cf		 mov	 ecx, edi
  00a59	ff 15 00 00 00
	00		 call	 DWORD PTR __imp_?LoadFloat@ioINILoader@@QAEMPBDM@Z
  00a5f	d9 9e 48 15 00
	00		 fstp	 DWORD PTR [esi+5448]
  00a65	6a 07		 push	 7

; 60   : 	m_fWeapon_2_height_OffSet = rkLoader.LoadFloat_e( "attack_2_weapon_height_offset", 0.f );

  00a67	c7 85 30 fc ff
	ff 8c 98 9f 8b	 mov	 DWORD PTR __k$541789[ebp], -1952474996 ; 8b9f988cH
  00a71	c7 85 34 fc ff
	ff 8e 87 b4 d8	 mov	 DWORD PTR __k$541789[ebp+4], -659257458 ; d8b4878eH
  00a7b	c7 85 38 fc ff
	ff b2 9b 8e 8b	 mov	 DWORD PTR __k$541789[ebp+8], -1953588302 ; 8b8e9bb2H
  00a85	c7 85 3c fc ff
	ff 9d 83 85 b5	 mov	 DWORD PTR __k$541789[ebp+12], -1249541219 ; b585839dH
  00a8f	c7 85 40 fc ff
	ff 85 89 82 8d	 mov	 DWORD PTR __k$541789[ebp+16], -1920824955 ; 8d828985H
  00a99	c7 85 44 fc ff
	ff 85 98 b4 85	 mov	 DWORD PTR __k$541789[ebp+20], -2051762043 ; 85b49885H
  00aa3	c7 85 48 fc ff
	ff 8b 8a 98 8f	 mov	 DWORD PTR __k$541789[ebp+24], -1885828469 ; 8f988a8bH
  00aad	8d 85 30 fc ff
	ff		 lea	 eax, DWORD PTR __k$541789[ebp]
  00ab3	66 c7 85 4c fc
	ff ff 99 00	 mov	 WORD PTR __k$541789[ebp+28], 153 ; 00000099H
  00abc	59		 pop	 ecx
$LL2726@LoadProper:
  00abd	81 30 ed ec eb
	ea		 xor	 DWORD PTR [eax], -353637139 ; eaebecedH
  00ac3	83 c0 04	 add	 eax, 4
  00ac6	49		 dec	 ecx
  00ac7	75 f4		 jne	 SHORT $LL2726@LoadProper
  00ac9	0f 57 c0	 xorps	 xmm0, xmm0
  00acc	80 b5 4c fc ff
	ff ed		 xor	 BYTE PTR __k$541789[ebp+28], -19 ; ffffffedH
  00ad3	51		 push	 ecx
  00ad4	8d 85 30 fc ff
	ff		 lea	 eax, DWORD PTR __k$541789[ebp]
  00ada	f3 0f 11 04 24	 movss	 DWORD PTR [esp], xmm0
  00adf	50		 push	 eax
  00ae0	8b cf		 mov	 ecx, edi
  00ae2	ff 15 00 00 00
	00		 call	 DWORD PTR __imp_?LoadFloat@ioINILoader@@QAEMPBDM@Z
  00ae8	d9 9e 4c 15 00
	00		 fstp	 DWORD PTR [esi+5452]
  00aee	6a 06		 push	 6

; 61   : 	m_fWeapon_2_Side_OffSet = rkLoader.LoadFloat_e( "attack_2_weapon_side_offset", 0.f );

  00af0	c7 85 20 fd ff
	ff 8c 98 9f 8b	 mov	 DWORD PTR __k$541867[ebp], -1952474996 ; 8b9f988cH
  00afa	c7 85 24 fd ff
	ff 8e 87 b4 d8	 mov	 DWORD PTR __k$541867[ebp+4], -659257458 ; d8b4878eH
  00b04	c7 85 28 fd ff
	ff b2 9b 8e 8b	 mov	 DWORD PTR __k$541867[ebp+8], -1953588302 ; 8b8e9bb2H
  00b0e	c7 85 2c fd ff
	ff 9d 83 85 b5	 mov	 DWORD PTR __k$541867[ebp+12], -1249541219 ; b585839dH
  00b18	c7 85 30 fd ff
	ff 9e 85 8f 8f	 mov	 DWORD PTR __k$541867[ebp+16], -1886419554 ; 8f8f859eH
  00b22	c7 85 34 fd ff
	ff b2 83 8d 8c	 mov	 DWORD PTR __k$541867[ebp+20], -1936882766 ; 8c8d83b2H
  00b2c	8d 85 20 fd ff
	ff		 lea	 eax, DWORD PTR __k$541867[ebp]
  00b32	c7 85 38 fd ff
	ff 9e 89 9f 00	 mov	 DWORD PTR __k$541867[ebp+24], 10455454 ; 009f899eH
  00b3c	59		 pop	 ecx
$LL2832@LoadProper:
  00b3d	81 30 ed ec eb
	ea		 xor	 DWORD PTR [eax], -353637139 ; eaebecedH
  00b43	83 c0 04	 add	 eax, 4
  00b46	49		 dec	 ecx
  00b47	75 f4		 jne	 SHORT $LL2832@LoadProper
  00b49	6a 18		 push	 24			; 00000018H
  00b4b	58		 pop	 eax
$LL2829@LoadProper:
  00b4c	8b c8		 mov	 ecx, eax
  00b4e	81 e1 03 00 00
	80		 and	 ecx, -2147483645	; 80000003H
  00b54	79 05		 jns	 SHORT $LN4452@LoadProper
  00b56	49		 dec	 ecx
  00b57	83 c9 fc	 or	 ecx, -4			; fffffffcH
  00b5a	41		 inc	 ecx
$LN4452@LoadProper:
  00b5b	b2 ed		 mov	 dl, -19			; ffffffedH
  00b5d	2a d1		 sub	 dl, cl
  00b5f	30 94 05 20 fd
	ff ff		 xor	 BYTE PTR __k$541867[ebp+eax], dl
  00b66	40		 inc	 eax
  00b67	83 f8 1b	 cmp	 eax, 27			; 0000001bH
  00b6a	7c e0		 jl	 SHORT $LL2829@LoadProper
  00b6c	0f 57 c0	 xorps	 xmm0, xmm0
  00b6f	51		 push	 ecx
  00b70	8d 85 20 fd ff
	ff		 lea	 eax, DWORD PTR __k$541867[ebp]
  00b76	f3 0f 11 04 24	 movss	 DWORD PTR [esp], xmm0
  00b7b	50		 push	 eax
  00b7c	8b cf		 mov	 ecx, edi
  00b7e	ff 15 00 00 00
	00		 call	 DWORD PTR __imp_?LoadFloat@ioINILoader@@QAEMPBDM@Z
  00b84	d9 9e 50 15 00
	00		 fstp	 DWORD PTR [esi+5456]
  00b8a	6a 08		 push	 8

; 62   : 
; 63   : 	m_fTarget_2_ShootOffHeight = rkLoader.LoadFloat_e( "attack_2_target_shoot_off_height", 0.f );

  00b8c	c7 85 e0 fb ff
	ff 8c 98 9f 8b	 mov	 DWORD PTR __k$541979[ebp], -1952474996 ; 8b9f988cH
  00b96	c7 85 e4 fb ff
	ff 8e 87 b4 d8	 mov	 DWORD PTR __k$541979[ebp+4], -659257458 ; d8b4878eH
  00ba0	c7 85 e8 fb ff
	ff b2 98 8a 98	 mov	 DWORD PTR __k$541979[ebp+8], -1735747406 ; 988a98b2H
  00baa	c7 85 ec fb ff
	ff 8a 89 9f b5	 mov	 DWORD PTR __k$541979[ebp+12], -1247835766 ; b59f898aH
  00bb4	c7 85 f0 fb ff
	ff 9e 84 84 85	 mov	 DWORD PTR __k$541979[ebp+16], -2054912866 ; 8584849eH
  00bbe	c7 85 f4 fb ff
	ff 99 b3 84 8c	 mov	 DWORD PTR __k$541979[ebp+20], -1937460327 ; 8c84b399H
  00bc8	c7 85 f8 fb ff
	ff 8b b3 83 8f	 mov	 DWORD PTR __k$541979[ebp+24], -1887194229 ; 8f83b38bH
  00bd2	c7 85 fc fb ff
	ff 84 8b 83 9e	 mov	 DWORD PTR __k$541979[ebp+28], -1635546236 ; 9e838b84H
  00bdc	8d 85 e0 fb ff
	ff		 lea	 eax, DWORD PTR __k$541979[ebp]
  00be2	88 9d 00 fc ff
	ff		 mov	 BYTE PTR __k$541979[ebp+32], bl
  00be8	59		 pop	 ecx
$LL2938@LoadProper:
  00be9	81 30 ed ec eb
	ea		 xor	 DWORD PTR [eax], -353637139 ; eaebecedH
  00bef	83 c0 04	 add	 eax, 4
  00bf2	49		 dec	 ecx
  00bf3	75 f4		 jne	 SHORT $LL2938@LoadProper
  00bf5	0f 57 c0	 xorps	 xmm0, xmm0
  00bf8	51		 push	 ecx
  00bf9	8d 85 e0 fb ff
	ff		 lea	 eax, DWORD PTR __k$541979[ebp]
  00bff	f3 0f 11 04 24	 movss	 DWORD PTR [esp], xmm0
  00c04	50		 push	 eax
  00c05	8b cf		 mov	 ecx, edi
  00c07	ff 15 00 00 00
	00		 call	 DWORD PTR __imp_?LoadFloat@ioINILoader@@QAEMPBDM@Z
  00c0d	d9 9e 54 15 00
	00		 fstp	 DWORD PTR [esi+5460]
  00c13	6a 04		 push	 4

; 64   : 
; 65   : 	//////////////////////////////////////////////////////////////////////////
; 66   : 
; 67   : 	m_fFind_3_Angle = rkLoader.LoadFloat_e( "attack3_find_angle", 0.f );

  00c15	c7 85 94 fc ff
	ff 8c 98 9f 8b	 mov	 DWORD PTR __k$542104[ebp], -1952474996 ; 8b9f988cH
  00c1f	c7 85 98 fc ff
	ff 8e 87 d8 b5	 mov	 DWORD PTR __k$542104[ebp+4], -1244100722 ; b5d8878eH
  00c29	c7 85 9c fc ff
	ff 8b 85 85 8e	 mov	 DWORD PTR __k$542104[ebp+8], -1903852149 ; 8e85858bH
  00c33	c7 85 a0 fc ff
	ff b2 8d 85 8d	 mov	 DWORD PTR __k$542104[ebp+12], -1920627278 ; 8d858db2H
  00c3d	66 c7 85 a4 fc
	ff ff 81 89	 mov	 WORD PTR __k$542104[ebp+16], 35201 ; 00008981H
  00c46	8d 85 94 fc ff
	ff		 lea	 eax, DWORD PTR __k$542104[ebp]
  00c4c	88 9d a6 fc ff
	ff		 mov	 BYTE PTR __k$542104[ebp+18], bl
  00c52	59		 pop	 ecx
$LL3044@LoadProper:
  00c53	81 30 ed ec eb
	ea		 xor	 DWORD PTR [eax], -353637139 ; eaebecedH
  00c59	83 c0 04	 add	 eax, 4
  00c5c	49		 dec	 ecx
  00c5d	75 f4		 jne	 SHORT $LL3044@LoadProper
  00c5f	6a 10		 push	 16			; 00000010H
  00c61	58		 pop	 eax
$LL3041@LoadProper:
  00c62	8b c8		 mov	 ecx, eax
  00c64	81 e1 03 00 00
	80		 and	 ecx, -2147483645	; 80000003H
  00c6a	79 05		 jns	 SHORT $LN4453@LoadProper
  00c6c	49		 dec	 ecx
  00c6d	83 c9 fc	 or	 ecx, -4			; fffffffcH
  00c70	41		 inc	 ecx
$LN4453@LoadProper:
  00c71	b2 ed		 mov	 dl, -19			; ffffffedH
  00c73	2a d1		 sub	 dl, cl
  00c75	30 94 05 94 fc
	ff ff		 xor	 BYTE PTR __k$542104[ebp+eax], dl
  00c7c	40		 inc	 eax
  00c7d	83 f8 12	 cmp	 eax, 18			; 00000012H
  00c80	7c e0		 jl	 SHORT $LL3041@LoadProper
  00c82	0f 57 c0	 xorps	 xmm0, xmm0
  00c85	51		 push	 ecx
  00c86	8d 85 94 fc ff
	ff		 lea	 eax, DWORD PTR __k$542104[ebp]
  00c8c	f3 0f 11 04 24	 movss	 DWORD PTR [esp], xmm0
  00c91	50		 push	 eax
  00c92	8b cf		 mov	 ecx, edi
  00c94	ff 15 00 00 00
	00		 call	 DWORD PTR __imp_?LoadFloat@ioINILoader@@QAEMPBDM@Z
  00c9a	d9 9e 58 15 00
	00		 fstp	 DWORD PTR [esi+5464]
  00ca0	6a 05		 push	 5

; 68   : 	m_fFind_3_Range_min = rkLoader.LoadFloat_e( "attack3_find_range_min", 0.f );

  00ca2	c7 45 d4 8c 98
	9f 8b		 mov	 DWORD PTR __k$542232[ebp], -1952474996 ; 8b9f988cH
  00ca9	c7 45 d8 8e 87
	d8 b5		 mov	 DWORD PTR __k$542232[ebp+4], -1244100722 ; b5d8878eH
  00cb0	c7 45 dc 8b 85
	85 8e		 mov	 DWORD PTR __k$542232[ebp+8], -1903852149 ; 8e85858bH
  00cb7	c7 45 e0 b2 9e
	8a 84		 mov	 DWORD PTR __k$542232[ebp+12], -2071290190 ; 848a9eb2H
  00cbe	c7 45 e4 8a 89
	b4 87		 mov	 DWORD PTR __k$542232[ebp+16], -2018211446 ; 87b4898aH
  00cc5	66 c7 45 e8 84
	82		 mov	 WORD PTR __k$542232[ebp+20], 33412 ; 00008284H
  00ccb	8d 45 d4	 lea	 eax, DWORD PTR __k$542232[ebp]
  00cce	88 5d ea	 mov	 BYTE PTR __k$542232[ebp+22], bl
  00cd1	59		 pop	 ecx
$LL3150@LoadProper:
  00cd2	81 30 ed ec eb
	ea		 xor	 DWORD PTR [eax], -353637139 ; eaebecedH
  00cd8	83 c0 04	 add	 eax, 4
  00cdb	49		 dec	 ecx
  00cdc	75 f4		 jne	 SHORT $LL3150@LoadProper
  00cde	6a 14		 push	 20			; 00000014H
  00ce0	58		 pop	 eax
$LL3147@LoadProper:
  00ce1	8b c8		 mov	 ecx, eax
  00ce3	81 e1 03 00 00
	80		 and	 ecx, -2147483645	; 80000003H
  00ce9	79 05		 jns	 SHORT $LN4454@LoadProper
  00ceb	49		 dec	 ecx
  00cec	83 c9 fc	 or	 ecx, -4			; fffffffcH
  00cef	41		 inc	 ecx
$LN4454@LoadProper:
  00cf0	b2 ed		 mov	 dl, -19			; ffffffedH
  00cf2	2a d1		 sub	 dl, cl
  00cf4	30 54 05 d4	 xor	 BYTE PTR __k$542232[ebp+eax], dl
  00cf8	40		 inc	 eax
  00cf9	83 f8 16	 cmp	 eax, 22			; 00000016H
  00cfc	7c e3		 jl	 SHORT $LL3147@LoadProper
  00cfe	0f 57 c0	 xorps	 xmm0, xmm0
  00d01	51		 push	 ecx
  00d02	8d 45 d4	 lea	 eax, DWORD PTR __k$542232[ebp]
  00d05	f3 0f 11 04 24	 movss	 DWORD PTR [esp], xmm0
  00d0a	50		 push	 eax
  00d0b	8b cf		 mov	 ecx, edi
  00d0d	ff 15 00 00 00
	00		 call	 DWORD PTR __imp_?LoadFloat@ioINILoader@@QAEMPBDM@Z
  00d13	d9 9e 5c 15 00
	00		 fstp	 DWORD PTR [esi+5468]
  00d19	6a 05		 push	 5

; 69   : 	m_fFind_3_Range_max = rkLoader.LoadFloat_e( "attack3_find_range_max", 0.f );

  00d1b	c7 45 b8 8c 98
	9f 8b		 mov	 DWORD PTR __k$542354[ebp], -1952474996 ; 8b9f988cH
  00d22	c7 45 bc 8e 87
	d8 b5		 mov	 DWORD PTR __k$542354[ebp+4], -1244100722 ; b5d8878eH
  00d29	c7 45 c0 8b 85
	85 8e		 mov	 DWORD PTR __k$542354[ebp+8], -1903852149 ; 8e85858bH
  00d30	c7 45 c4 b2 9e
	8a 84		 mov	 DWORD PTR __k$542354[ebp+12], -2071290190 ; 848a9eb2H
  00d37	c7 45 c8 8a 89
	b4 87		 mov	 DWORD PTR __k$542354[ebp+16], -2018211446 ; 87b4898aH
  00d3e	66 c7 45 cc 8c
	94		 mov	 WORD PTR __k$542354[ebp+20], 38028 ; 0000948cH
  00d44	8d 45 b8	 lea	 eax, DWORD PTR __k$542354[ebp]
  00d47	88 5d ce	 mov	 BYTE PTR __k$542354[ebp+22], bl
  00d4a	59		 pop	 ecx
$LL3256@LoadProper:
  00d4b	81 30 ed ec eb
	ea		 xor	 DWORD PTR [eax], -353637139 ; eaebecedH
  00d51	83 c0 04	 add	 eax, 4
  00d54	49		 dec	 ecx
  00d55	75 f4		 jne	 SHORT $LL3256@LoadProper
  00d57	6a 14		 push	 20			; 00000014H
  00d59	58		 pop	 eax
$LL3253@LoadProper:
  00d5a	8b c8		 mov	 ecx, eax
  00d5c	81 e1 03 00 00
	80		 and	 ecx, -2147483645	; 80000003H
  00d62	79 05		 jns	 SHORT $LN4455@LoadProper
  00d64	49		 dec	 ecx
  00d65	83 c9 fc	 or	 ecx, -4			; fffffffcH
  00d68	41		 inc	 ecx
$LN4455@LoadProper:
  00d69	b2 ed		 mov	 dl, -19			; ffffffedH
  00d6b	2a d1		 sub	 dl, cl
  00d6d	30 54 05 b8	 xor	 BYTE PTR __k$542354[ebp+eax], dl
  00d71	40		 inc	 eax
  00d72	83 f8 16	 cmp	 eax, 22			; 00000016H
  00d75	7c e3		 jl	 SHORT $LL3253@LoadProper
  00d77	0f 57 c0	 xorps	 xmm0, xmm0
  00d7a	51		 push	 ecx
  00d7b	8d 45 b8	 lea	 eax, DWORD PTR __k$542354[ebp]
  00d7e	f3 0f 11 04 24	 movss	 DWORD PTR [esp], xmm0
  00d83	50		 push	 eax
  00d84	8b cf		 mov	 ecx, edi
  00d86	ff 15 00 00 00
	00		 call	 DWORD PTR __imp_?LoadFloat@ioINILoader@@QAEMPBDM@Z
  00d8c	d9 9e 60 15 00
	00		 fstp	 DWORD PTR [esi+5472]
  00d92	6a 05		 push	 5

; 70   : 	m_fFind_3_Height_min = rkLoader.LoadFloat_e( "attack3_find_height_min", 0.f );

  00d94	c7 85 40 fe ff
	ff 8c 98 9f 8b	 mov	 DWORD PTR __k$542479[ebp], -1952474996 ; 8b9f988cH
  00d9e	c7 85 44 fe ff
	ff 8e 87 d8 b5	 mov	 DWORD PTR __k$542479[ebp+4], -1244100722 ; b5d8878eH
  00da8	c7 85 48 fe ff
	ff 8b 85 85 8e	 mov	 DWORD PTR __k$542479[ebp+8], -1903852149 ; 8e85858bH
  00db2	c7 85 4c fe ff
	ff b2 84 8e 83	 mov	 DWORD PTR __k$542479[ebp+12], -2087811918 ; 838e84b2H
  00dbc	c7 85 50 fe ff
	ff 8a 84 9f b5	 mov	 DWORD PTR __k$542479[ebp+16], -1247837046 ; b59f848aH
  00dc6	8d 85 40 fe ff
	ff		 lea	 eax, DWORD PTR __k$542479[ebp]
  00dcc	c7 85 54 fe ff
	ff 80 85 85 00	 mov	 DWORD PTR __k$542479[ebp+20], 8750464 ; 00858580H
  00dd6	59		 pop	 ecx
$LL3362@LoadProper:
  00dd7	81 30 ed ec eb
	ea		 xor	 DWORD PTR [eax], -353637139 ; eaebecedH
  00ddd	83 c0 04	 add	 eax, 4
  00de0	49		 dec	 ecx
  00de1	75 f4		 jne	 SHORT $LL3362@LoadProper
  00de3	6a 14		 push	 20			; 00000014H
  00de5	58		 pop	 eax
$LL3359@LoadProper:
  00de6	8b c8		 mov	 ecx, eax
  00de8	81 e1 03 00 00
	80		 and	 ecx, -2147483645	; 80000003H
  00dee	79 05		 jns	 SHORT $LN4456@LoadProper
  00df0	49		 dec	 ecx
  00df1	83 c9 fc	 or	 ecx, -4			; fffffffcH
  00df4	41		 inc	 ecx
$LN4456@LoadProper:
  00df5	b2 ed		 mov	 dl, -19			; ffffffedH
  00df7	2a d1		 sub	 dl, cl
  00df9	30 94 05 40 fe
	ff ff		 xor	 BYTE PTR __k$542479[ebp+eax], dl
  00e00	40		 inc	 eax
  00e01	83 f8 17	 cmp	 eax, 23			; 00000017H
  00e04	7c e0		 jl	 SHORT $LL3359@LoadProper
  00e06	0f 57 c0	 xorps	 xmm0, xmm0
  00e09	51		 push	 ecx
  00e0a	8d 85 40 fe ff
	ff		 lea	 eax, DWORD PTR __k$542479[ebp]
  00e10	f3 0f 11 04 24	 movss	 DWORD PTR [esp], xmm0
  00e15	50		 push	 eax
  00e16	8b cf		 mov	 ecx, edi
  00e18	ff 15 00 00 00
	00		 call	 DWORD PTR __imp_?LoadFloat@ioINILoader@@QAEMPBDM@Z
  00e1e	d9 9e 64 15 00
	00		 fstp	 DWORD PTR [esi+5476]
  00e24	6a 05		 push	 5

; 71   : 	m_fFind_3_Height_max = rkLoader.LoadFloat_e( "attack3_find_height_max", 0.f );

  00e26	c7 85 08 fe ff
	ff 8c 98 9f 8b	 mov	 DWORD PTR __k$542604[ebp], -1952474996 ; 8b9f988cH
  00e30	c7 85 0c fe ff
	ff 8e 87 d8 b5	 mov	 DWORD PTR __k$542604[ebp+4], -1244100722 ; b5d8878eH
  00e3a	c7 85 10 fe ff
	ff 8b 85 85 8e	 mov	 DWORD PTR __k$542604[ebp+8], -1903852149 ; 8e85858bH
  00e44	c7 85 14 fe ff
	ff b2 84 8e 83	 mov	 DWORD PTR __k$542604[ebp+12], -2087811918 ; 838e84b2H
  00e4e	c7 85 18 fe ff
	ff 8a 84 9f b5	 mov	 DWORD PTR __k$542604[ebp+16], -1247837046 ; b59f848aH
  00e58	8d 85 08 fe ff
	ff		 lea	 eax, DWORD PTR __k$542604[ebp]
  00e5e	c7 85 1c fe ff
	ff 80 8d 93 00	 mov	 DWORD PTR __k$542604[ebp+20], 9670016 ; 00938d80H
  00e68	59		 pop	 ecx
$LL3468@LoadProper:
  00e69	81 30 ed ec eb
	ea		 xor	 DWORD PTR [eax], -353637139 ; eaebecedH
  00e6f	83 c0 04	 add	 eax, 4
  00e72	49		 dec	 ecx
  00e73	75 f4		 jne	 SHORT $LL3468@LoadProper
  00e75	6a 14		 push	 20			; 00000014H
  00e77	58		 pop	 eax
$LL3465@LoadProper:
  00e78	8b c8		 mov	 ecx, eax
  00e7a	81 e1 03 00 00
	80		 and	 ecx, -2147483645	; 80000003H
  00e80	79 05		 jns	 SHORT $LN4457@LoadProper
  00e82	49		 dec	 ecx
  00e83	83 c9 fc	 or	 ecx, -4			; fffffffcH
  00e86	41		 inc	 ecx
$LN4457@LoadProper:
  00e87	b2 ed		 mov	 dl, -19			; ffffffedH
  00e89	2a d1		 sub	 dl, cl
  00e8b	30 94 05 08 fe
	ff ff		 xor	 BYTE PTR __k$542604[ebp+eax], dl
  00e92	40		 inc	 eax
  00e93	83 f8 17	 cmp	 eax, 23			; 00000017H
  00e96	7c e0		 jl	 SHORT $LL3465@LoadProper
  00e98	0f 57 c0	 xorps	 xmm0, xmm0
  00e9b	51		 push	 ecx
  00e9c	8d 85 08 fe ff
	ff		 lea	 eax, DWORD PTR __k$542604[ebp]
  00ea2	f3 0f 11 04 24	 movss	 DWORD PTR [esp], xmm0
  00ea7	50		 push	 eax
  00ea8	8b cf		 mov	 ecx, edi
  00eaa	ff 15 00 00 00
	00		 call	 DWORD PTR __imp_?LoadFloat@ioINILoader@@QAEMPBDM@Z
  00eb0	d9 9e 68 15 00
	00		 fstp	 DWORD PTR [esi+5480]
  00eb6	6a 06		 push	 6

; 72   : 
; 73   : 	m_fWeapon_3_LookOffSet = rkLoader.LoadFloat_e( "attack_3_weapon_look_offset", 0.f );

  00eb8	c7 85 e8 fc ff
	ff 8c 98 9f 8b	 mov	 DWORD PTR __k$542737[ebp], -1952474996 ; 8b9f988cH
  00ec2	c7 85 ec fc ff
	ff 8e 87 b4 d9	 mov	 DWORD PTR __k$542737[ebp+4], -642480242 ; d9b4878eH
  00ecc	c7 85 f0 fc ff
	ff b2 9b 8e 8b	 mov	 DWORD PTR __k$542737[ebp+8], -1953588302 ; 8b8e9bb2H
  00ed6	c7 85 f4 fc ff
	ff 9d 83 85 b5	 mov	 DWORD PTR __k$542737[ebp+12], -1249541219 ; b585839dH
  00ee0	c7 85 f8 fc ff
	ff 81 83 84 81	 mov	 DWORD PTR __k$542737[ebp+16], -2122022015 ; 81848381H
  00eea	c7 85 fc fc ff
	ff b2 83 8d 8c	 mov	 DWORD PTR __k$542737[ebp+20], -1936882766 ; 8c8d83b2H
  00ef4	8d 85 e8 fc ff
	ff		 lea	 eax, DWORD PTR __k$542737[ebp]
  00efa	c7 85 00 fd ff
	ff 9e 89 9f 00	 mov	 DWORD PTR __k$542737[ebp+24], 10455454 ; 009f899eH
  00f04	59		 pop	 ecx
$LL3574@LoadProper:
  00f05	81 30 ed ec eb
	ea		 xor	 DWORD PTR [eax], -353637139 ; eaebecedH
  00f0b	83 c0 04	 add	 eax, 4
  00f0e	49		 dec	 ecx
  00f0f	75 f4		 jne	 SHORT $LL3574@LoadProper
  00f11	6a 18		 push	 24			; 00000018H
  00f13	58		 pop	 eax
$LL3571@LoadProper:
  00f14	8b c8		 mov	 ecx, eax
  00f16	81 e1 03 00 00
	80		 and	 ecx, -2147483645	; 80000003H
  00f1c	79 05		 jns	 SHORT $LN4458@LoadProper
  00f1e	49		 dec	 ecx
  00f1f	83 c9 fc	 or	 ecx, -4			; fffffffcH
  00f22	41		 inc	 ecx
$LN4458@LoadProper:
  00f23	b2 ed		 mov	 dl, -19			; ffffffedH
  00f25	2a d1		 sub	 dl, cl
  00f27	30 94 05 e8 fc
	ff ff		 xor	 BYTE PTR __k$542737[ebp+eax], dl
  00f2e	40		 inc	 eax
  00f2f	83 f8 1b	 cmp	 eax, 27			; 0000001bH
  00f32	7c e0		 jl	 SHORT $LL3571@LoadProper
  00f34	0f 57 c0	 xorps	 xmm0, xmm0
  00f37	51		 push	 ecx
  00f38	8d 85 e8 fc ff
	ff		 lea	 eax, DWORD PTR __k$542737[ebp]
  00f3e	f3 0f 11 04 24	 movss	 DWORD PTR [esp], xmm0
  00f43	50		 push	 eax
  00f44	8b cf		 mov	 ecx, edi
  00f46	ff 15 00 00 00
	00		 call	 DWORD PTR __imp_?LoadFloat@ioINILoader@@QAEMPBDM@Z
  00f4c	d9 9e 6c 15 00
	00		 fstp	 DWORD PTR [esi+5484]
  00f52	6a 07		 push	 7

; 74   : 	m_fWeapon_3_height_OffSet = rkLoader.LoadFloat_e( "attack_3_weapon_height_offset", 0.f );

  00f54	c7 85 60 ff ff
	ff 8c 98 9f 8b	 mov	 DWORD PTR __k$542914[ebp], -1952474996 ; 8b9f988cH
  00f5e	c7 85 64 ff ff
	ff 8e 87 b4 d9	 mov	 DWORD PTR __k$542914[ebp+4], -642480242 ; d9b4878eH
  00f68	c7 85 68 ff ff
	ff b2 9b 8e 8b	 mov	 DWORD PTR __k$542914[ebp+8], -1953588302 ; 8b8e9bb2H
  00f72	c7 85 6c ff ff
	ff 9d 83 85 b5	 mov	 DWORD PTR __k$542914[ebp+12], -1249541219 ; b585839dH
  00f7c	c7 85 70 ff ff
	ff 85 89 82 8d	 mov	 DWORD PTR __k$542914[ebp+16], -1920824955 ; 8d828985H
  00f86	c7 85 74 ff ff
	ff 85 98 b4 85	 mov	 DWORD PTR __k$542914[ebp+20], -2051762043 ; 85b49885H
  00f90	c7 85 78 ff ff
	ff 8b 8a 98 8f	 mov	 DWORD PTR __k$542914[ebp+24], -1885828469 ; 8f988a8bH
  00f9a	8d 85 60 ff ff
	ff		 lea	 eax, DWORD PTR __k$542914[ebp]
  00fa0	66 c7 85 7c ff
	ff ff 99 00	 mov	 WORD PTR __k$542914[ebp+28], 153 ; 00000099H
  00fa9	59		 pop	 ecx
$LL3680@LoadProper:
  00faa	81 30 ed ec eb
	ea		 xor	 DWORD PTR [eax], -353637139 ; eaebecedH
  00fb0	83 c0 04	 add	 eax, 4
  00fb3	49		 dec	 ecx
  00fb4	75 f4		 jne	 SHORT $LL3680@LoadProper
  00fb6	0f 57 c0	 xorps	 xmm0, xmm0
  00fb9	80 b5 7c ff ff
	ff ed		 xor	 BYTE PTR __k$542914[ebp+28], -19 ; ffffffedH
  00fc0	51		 push	 ecx
  00fc1	8d 85 60 ff ff
	ff		 lea	 eax, DWORD PTR __k$542914[ebp]
  00fc7	f3 0f 11 04 24	 movss	 DWORD PTR [esp], xmm0
  00fcc	50		 push	 eax
  00fcd	8b cf		 mov	 ecx, edi
  00fcf	ff 15 00 00 00
	00		 call	 DWORD PTR __imp_?LoadFloat@ioINILoader@@QAEMPBDM@Z
  00fd5	d9 9e 70 15 00
	00		 fstp	 DWORD PTR [esi+5488]
  00fdb	6a 06		 push	 6

; 75   : 	m_fWeapon_3_Side_OffSet = rkLoader.LoadFloat_e( "attack_3_weapon_side_offset", 0.f );

  00fdd	c7 85 ac fc ff
	ff 8c 98 9f 8b	 mov	 DWORD PTR __k$542992[ebp], -1952474996 ; 8b9f988cH
  00fe7	c7 85 b0 fc ff
	ff 8e 87 b4 d9	 mov	 DWORD PTR __k$542992[ebp+4], -642480242 ; d9b4878eH
  00ff1	c7 85 b4 fc ff
	ff b2 9b 8e 8b	 mov	 DWORD PTR __k$542992[ebp+8], -1953588302 ; 8b8e9bb2H
  00ffb	c7 85 b8 fc ff
	ff 9d 83 85 b5	 mov	 DWORD PTR __k$542992[ebp+12], -1249541219 ; b585839dH
  01005	c7 85 bc fc ff
	ff 9e 85 8f 8f	 mov	 DWORD PTR __k$542992[ebp+16], -1886419554 ; 8f8f859eH
  0100f	c7 85 c0 fc ff
	ff b2 83 8d 8c	 mov	 DWORD PTR __k$542992[ebp+20], -1936882766 ; 8c8d83b2H
  01019	8d 85 ac fc ff
	ff		 lea	 eax, DWORD PTR __k$542992[ebp]
  0101f	c7 85 c4 fc ff
	ff 9e 89 9f 00	 mov	 DWORD PTR __k$542992[ebp+24], 10455454 ; 009f899eH
  01029	59		 pop	 ecx
$LL3786@LoadProper:
  0102a	81 30 ed ec eb
	ea		 xor	 DWORD PTR [eax], -353637139 ; eaebecedH
  01030	83 c0 04	 add	 eax, 4
  01033	49		 dec	 ecx
  01034	75 f4		 jne	 SHORT $LL3786@LoadProper
  01036	6a 18		 push	 24			; 00000018H
  01038	58		 pop	 eax
$LL3783@LoadProper:
  01039	8b c8		 mov	 ecx, eax
  0103b	81 e1 03 00 00
	80		 and	 ecx, -2147483645	; 80000003H
  01041	79 05		 jns	 SHORT $LN4459@LoadProper
  01043	49		 dec	 ecx
  01044	83 c9 fc	 or	 ecx, -4			; fffffffcH
  01047	41		 inc	 ecx
$LN4459@LoadProper:
  01048	b2 ed		 mov	 dl, -19			; ffffffedH
  0104a	2a d1		 sub	 dl, cl
  0104c	30 94 05 ac fc
	ff ff		 xor	 BYTE PTR __k$542992[ebp+eax], dl
  01053	40		 inc	 eax
  01054	83 f8 1b	 cmp	 eax, 27			; 0000001bH
  01057	7c e0		 jl	 SHORT $LL3783@LoadProper
  01059	0f 57 c0	 xorps	 xmm0, xmm0
  0105c	51		 push	 ecx
  0105d	8d 85 ac fc ff
	ff		 lea	 eax, DWORD PTR __k$542992[ebp]
  01063	f3 0f 11 04 24	 movss	 DWORD PTR [esp], xmm0
  01068	50		 push	 eax
  01069	8b cf		 mov	 ecx, edi
  0106b	ff 15 00 00 00
	00		 call	 DWORD PTR __imp_?LoadFloat@ioINILoader@@QAEMPBDM@Z
  01071	d9 9e 74 15 00
	00		 fstp	 DWORD PTR [esi+5492]
  01077	6a 08		 push	 8

; 76   : 
; 77   : 	m_fTarget_3_ShootOffHeight = rkLoader.LoadFloat_e( "attack_3_target_shoot_off_height", 0.f );

  01079	c7 85 08 fc ff
	ff 8c 98 9f 8b	 mov	 DWORD PTR __k$543104[ebp], -1952474996 ; 8b9f988cH
  01083	c7 85 0c fc ff
	ff 8e 87 b4 d9	 mov	 DWORD PTR __k$543104[ebp+4], -642480242 ; d9b4878eH
  0108d	c7 85 10 fc ff
	ff b2 98 8a 98	 mov	 DWORD PTR __k$543104[ebp+8], -1735747406 ; 988a98b2H
  01097	c7 85 14 fc ff
	ff 8a 89 9f b5	 mov	 DWORD PTR __k$543104[ebp+12], -1247835766 ; b59f898aH
  010a1	c7 85 18 fc ff
	ff 9e 84 84 85	 mov	 DWORD PTR __k$543104[ebp+16], -2054912866 ; 8584849eH
  010ab	c7 85 1c fc ff
	ff 99 b3 84 8c	 mov	 DWORD PTR __k$543104[ebp+20], -1937460327 ; 8c84b399H
  010b5	c7 85 20 fc ff
	ff 8b b3 83 8f	 mov	 DWORD PTR __k$543104[ebp+24], -1887194229 ; 8f83b38bH
  010bf	c7 85 24 fc ff
	ff 84 8b 83 9e	 mov	 DWORD PTR __k$543104[ebp+28], -1635546236 ; 9e838b84H
  010c9	8d 85 08 fc ff
	ff		 lea	 eax, DWORD PTR __k$543104[ebp]
  010cf	88 9d 28 fc ff
	ff		 mov	 BYTE PTR __k$543104[ebp+32], bl
  010d5	59		 pop	 ecx
$LL3892@LoadProper:
  010d6	81 30 ed ec eb
	ea		 xor	 DWORD PTR [eax], -353637139 ; eaebecedH
  010dc	83 c0 04	 add	 eax, 4
  010df	49		 dec	 ecx
  010e0	75 f4		 jne	 SHORT $LL3892@LoadProper
  010e2	0f 57 c0	 xorps	 xmm0, xmm0
  010e5	51		 push	 ecx
  010e6	8d 85 08 fc ff
	ff		 lea	 eax, DWORD PTR __k$543104[ebp]
  010ec	f3 0f 11 04 24	 movss	 DWORD PTR [esp], xmm0
  010f1	50		 push	 eax
  010f2	8b cf		 mov	 ecx, edi
  010f4	ff 15 00 00 00
	00		 call	 DWORD PTR __imp_?LoadFloat@ioINILoader@@QAEMPBDM@Z
  010fa	d9 9e 78 15 00
	00		 fstp	 DWORD PTR [esi+5496]
  01100	6a 04		 push	 4

; 78   : 
; 79   : 	//////////////////////////////////////////////////////////////////////////
; 80   : 
; 81   : 	//
; 82   : 	int nFire1Cnt = (DWORD)rkLoader.LoadInt_e( "attack_1_fire_cnt", 0 );

  01102	c7 45 84 8c 98
	9f 8b		 mov	 DWORD PTR __k$543229[ebp], -1952474996 ; 8b9f988cH
  01109	c7 45 88 8e 87
	b4 db		 mov	 DWORD PTR __k$543229[ebp+4], -608925810 ; dbb4878eH
  01110	c7 45 8c b2 8a
	82 98		 mov	 DWORD PTR __k$543229[ebp+8], -1736275278 ; 98828ab2H
  01117	c7 45 90 88 b3
	88 84		 mov	 DWORD PTR __k$543229[ebp+12], -2071415928 ; 8488b388H
  0111e	8d 45 84	 lea	 eax, DWORD PTR __k$543229[ebp]
  01121	66 c7 45 94 99
	00		 mov	 WORD PTR __k$543229[ebp+16], 153 ; 00000099H
  01127	59		 pop	 ecx
$LL3998@LoadProper:
  01128	81 30 ed ec eb
	ea		 xor	 DWORD PTR [eax], -353637139 ; eaebecedH
  0112e	83 c0 04	 add	 eax, 4
  01131	49		 dec	 ecx
  01132	75 f4		 jne	 SHORT $LL3998@LoadProper
  01134	80 75 94 ed	 xor	 BYTE PTR __k$543229[ebp+16], -19 ; ffffffedH
  01138	53		 push	 ebx
  01139	8d 45 84	 lea	 eax, DWORD PTR __k$543229[ebp]
  0113c	50		 push	 eax
  0113d	8b cf		 mov	 ecx, edi
  0113f	ff 15 00 00 00
	00		 call	 DWORD PTR __imp_?LoadInt@ioINILoader@@QAEHPBDH@Z

; 83   : 	int i = 0;
; 84   : 	for( i = 0; i < nFire1Cnt; i++ )

  01145	3b c3		 cmp	 eax, ebx
  01147	0f 8e 74 01 00
	00		 jle	 $LN601@LoadProper

; 78   : 
; 79   : 	//////////////////////////////////////////////////////////////////////////
; 80   : 
; 81   : 	//
; 82   : 	int nFire1Cnt = (DWORD)rkLoader.LoadInt_e( "attack_1_fire_cnt", 0 );

  0114d	c7 85 5c fa ff
	ff 01 00 00 00	 mov	 DWORD PTR tv37501[ebp], 1
  01157	89 85 58 fa ff
	ff		 mov	 DWORD PTR tv11451[ebp], eax
$LL603@LoadProper:

; 85   : 	{
; 86   : 		wsprintf_e( szBuf, "attack_1_%d_weapon", i+1 );

  0115d	6a 04		 push	 4
  0115f	c7 85 c8 fe ff
	ff 8c 98 9f 8b	 mov	 DWORD PTR ___encStr$531281[ebp], -1952474996 ; 8b9f988cH
  01169	c7 85 cc fe ff
	ff 8e 87 b4 db	 mov	 DWORD PTR ___encStr$531281[ebp+4], -608925810 ; dbb4878eH
  01173	c7 85 d0 fe ff
	ff b2 c9 8f b5	 mov	 DWORD PTR ___encStr$531281[ebp+8], -1248867918 ; b58fc9b2H
  0117d	c7 85 d4 fe ff
	ff 9a 89 8a 9a	 mov	 DWORD PTR ___encStr$531281[ebp+12], -1702196838 ; 9a8a899aH
  01187	66 c7 85 d8 fe
	ff ff 82 82	 mov	 WORD PTR ___encStr$531281[ebp+16], 33410 ; 00008282H
  01190	8d 85 c8 fe ff
	ff		 lea	 eax, DWORD PTR ___encStr$531281[ebp]
  01196	88 9d da fe ff
	ff		 mov	 BYTE PTR ___encStr$531281[ebp+18], bl
  0119c	59		 pop	 ecx
$LL4006@LoadProper:
  0119d	81 30 ed ec eb
	ea		 xor	 DWORD PTR [eax], -353637139 ; eaebecedH
  011a3	83 c0 04	 add	 eax, 4
  011a6	49		 dec	 ecx
  011a7	75 f4		 jne	 SHORT $LL4006@LoadProper
  011a9	6a 10		 push	 16			; 00000010H
  011ab	58		 pop	 eax
$LL4003@LoadProper:
  011ac	8b c8		 mov	 ecx, eax
  011ae	81 e1 03 00 00
	80		 and	 ecx, -2147483645	; 80000003H
  011b4	79 05		 jns	 SHORT $LN4460@LoadProper
  011b6	49		 dec	 ecx
  011b7	83 c9 fc	 or	 ecx, -4			; fffffffcH
  011ba	41		 inc	 ecx
$LN4460@LoadProper:
  011bb	b2 ed		 mov	 dl, -19			; ffffffedH
  011bd	2a d1		 sub	 dl, cl
  011bf	30 94 05 c8 fe
	ff ff		 xor	 BYTE PTR ___encStr$531281[ebp+eax], dl
  011c6	40		 inc	 eax
  011c7	83 f8 12	 cmp	 eax, 18			; 00000012H
  011ca	7c e0		 jl	 SHORT $LL4003@LoadProper
  011cc	ff b5 5c fa ff
	ff		 push	 DWORD PTR tv37501[ebp]
  011d2	8d 85 c8 fe ff
	ff		 lea	 eax, DWORD PTR ___encStr$531281[ebp]
  011d8	50		 push	 eax
  011d9	8d 85 60 fa ff
	ff		 lea	 eax, DWORD PTR _szBuf$[ebp]
  011df	50		 push	 eax
  011e0	ff 15 00 00 00
	00		 call	 DWORD PTR __imp__wsprintfA
  011e6	83 c4 0c	 add	 esp, 12			; 0000000cH

; 87   : 
; 88   : 		DummyTT13AttackInfo info;

  011e9	8d 8d a4 f9 ff
	ff		 lea	 ecx, DWORD PTR _info$531431[ebp]
  011ef	e8 00 00 00 00	 call	 ??0DummyTT13AttackInfo@@QAE@XZ ; DummyTT13AttackInfo::DummyTT13AttackInfo

; 89   : 		info.m_dwWeaponIndex = rkLoader.LoadInt( szBuf, 0 );

  011f4	53		 push	 ebx
  011f5	8d 85 60 fa ff
	ff		 lea	 eax, DWORD PTR _szBuf$[ebp]
  011fb	50		 push	 eax
  011fc	8b cf		 mov	 ecx, edi
  011fe	89 5d fc	 mov	 DWORD PTR __$EHRec$[ebp+8], ebx
  01201	ff 15 00 00 00
	00		 call	 DWORD PTR __imp_?LoadInt@ioINILoader@@QAEHPBDH@Z
  01207	6a 05		 push	 5
  01209	89 85 a4 f9 ff
	ff		 mov	 DWORD PTR _info$531431[ebp], eax

; 90   : 
; 91   : 		wsprintf_e( szBuf, "attack_1_%d_fire_gap", i+1 );

  0120f	c7 85 80 fb ff
	ff 8c 98 9f 8b	 mov	 DWORD PTR ___encStr$531435[ebp], -1952474996 ; 8b9f988cH
  01219	c7 85 84 fb ff
	ff 8e 87 b4 db	 mov	 DWORD PTR ___encStr$531435[ebp+4], -608925810 ; dbb4878eH
  01223	c7 85 88 fb ff
	ff b2 c9 8f b5	 mov	 DWORD PTR ___encStr$531435[ebp+8], -1248867918 ; b58fc9b2H
  0122d	c7 85 8c fb ff
	ff 8b 85 99 8f	 mov	 DWORD PTR ___encStr$531435[ebp+12], -1885764213 ; 8f99858bH
  01237	c7 85 90 fb ff
	ff b2 8b 8a 9a	 mov	 DWORD PTR ___encStr$531435[ebp+16], -1702196302 ; 9a8a8bb2H
  01241	8d 85 80 fb ff
	ff		 lea	 eax, DWORD PTR ___encStr$531435[ebp]
  01247	88 9d 94 fb ff
	ff		 mov	 BYTE PTR ___encStr$531435[ebp+20], bl
  0124d	59		 pop	 ecx
$LL4014@LoadProper:
  0124e	81 30 ed ec eb
	ea		 xor	 DWORD PTR [eax], -353637139 ; eaebecedH
  01254	83 c0 04	 add	 eax, 4
  01257	49		 dec	 ecx
  01258	75 f4		 jne	 SHORT $LL4014@LoadProper
  0125a	ff b5 5c fa ff
	ff		 push	 DWORD PTR tv37501[ebp]
  01260	8d 85 80 fb ff
	ff		 lea	 eax, DWORD PTR ___encStr$531435[ebp]
  01266	50		 push	 eax
  01267	8d 85 60 fa ff
	ff		 lea	 eax, DWORD PTR _szBuf$[ebp]
  0126d	50		 push	 eax
  0126e	ff 15 00 00 00
	00		 call	 DWORD PTR __imp__wsprintfA
  01274	83 c4 0c	 add	 esp, 12			; 0000000cH

; 92   : 		info.m_dwFireTime    = rkLoader.LoadInt( szBuf, 0 );

  01277	53		 push	 ebx
  01278	8d 85 60 fa ff
	ff		 lea	 eax, DWORD PTR _szBuf$[ebp]
  0127e	50		 push	 eax
  0127f	8b cf		 mov	 ecx, edi
  01281	ff 15 00 00 00
	00		 call	 DWORD PTR __imp_?LoadInt@ioINILoader@@QAEHPBDH@Z
  01287	89 85 a8 f9 ff
	ff		 mov	 DWORD PTR _info$531431[ebp+4], eax

; 93   : 
; 94   : 		m_vAttackFire1Info.push_back( info );

  0128d	8d 85 a4 f9 ff
	ff		 lea	 eax, DWORD PTR _info$531431[ebp]
  01293	50		 push	 eax
  01294	8d 8e 80 14 00
	00		 lea	 ecx, DWORD PTR [esi+5248]
  0129a	e8 00 00 00 00	 call	 ?push_back@?$vector@UDummyTT13AttackInfo@@V?$allocator@UDummyTT13AttackInfo@@@std@@@std@@QAEXABUDummyTT13AttackInfo@@@Z ; std::vector<DummyTT13AttackInfo,std::allocator<DummyTT13AttackInfo> >::push_back

; 95   : 	}

  0129f	83 4d fc ff	 or	 DWORD PTR __$EHRec$[ebp+8], -1
  012a3	8d 8d ac f9 ff
	ff		 lea	 ecx, DWORD PTR _info$531431[ebp+8]
  012a9	ff 15 00 00 00
	00		 call	 DWORD PTR __imp_??1ioHashString@@QAE@XZ
  012af	ff 85 5c fa ff
	ff		 inc	 DWORD PTR tv37501[ebp]
  012b5	ff 8d 58 fa ff
	ff		 dec	 DWORD PTR tv11451[ebp]
  012bb	0f 85 9c fe ff
	ff		 jne	 $LL603@LoadProper
$LN601@LoadProper:

; 96   : 
; 97   : 	int nFire2Cnt = (DWORD)rkLoader.LoadInt_e( "attack_2_fire_cnt", 0 );

  012c1	6a 04		 push	 4
  012c3	c7 85 08 fd ff
	ff 8c 98 9f 8b	 mov	 DWORD PTR __k$543382[ebp], -1952474996 ; 8b9f988cH
  012cd	c7 85 0c fd ff
	ff 8e 87 b4 d8	 mov	 DWORD PTR __k$543382[ebp+4], -659257458 ; d8b4878eH
  012d7	c7 85 10 fd ff
	ff b2 8a 82 98	 mov	 DWORD PTR __k$543382[ebp+8], -1736275278 ; 98828ab2H
  012e1	c7 85 14 fd ff
	ff 88 b3 88 84	 mov	 DWORD PTR __k$543382[ebp+12], -2071415928 ; 8488b388H
  012eb	8d 85 08 fd ff
	ff		 lea	 eax, DWORD PTR __k$543382[ebp]
  012f1	66 c7 85 18 fd
	ff ff 99 00	 mov	 WORD PTR __k$543382[ebp+16], 153 ; 00000099H
  012fa	59		 pop	 ecx
$LL4123@LoadProper:
  012fb	81 30 ed ec eb
	ea		 xor	 DWORD PTR [eax], -353637139 ; eaebecedH
  01301	83 c0 04	 add	 eax, 4
  01304	49		 dec	 ecx
  01305	75 f4		 jne	 SHORT $LL4123@LoadProper
  01307	80 b5 18 fd ff
	ff ed		 xor	 BYTE PTR __k$543382[ebp+16], -19 ; ffffffedH
  0130e	53		 push	 ebx
  0130f	8d 85 08 fd ff
	ff		 lea	 eax, DWORD PTR __k$543382[ebp]
  01315	50		 push	 eax
  01316	8b cf		 mov	 ecx, edi
  01318	ff 15 00 00 00
	00		 call	 DWORD PTR __imp_?LoadInt@ioINILoader@@QAEHPBDH@Z

; 98   : 	for( i = 0; i < nFire2Cnt; i++ )

  0131e	3b c3		 cmp	 eax, ebx
  01320	0f 8e 78 01 00
	00		 jle	 $LN400@LoadProper

; 96   : 
; 97   : 	int nFire2Cnt = (DWORD)rkLoader.LoadInt_e( "attack_2_fire_cnt", 0 );

  01326	c7 85 5c fa ff
	ff 01 00 00 00	 mov	 DWORD PTR tv37554[ebp], 1
  01330	89 85 58 fa ff
	ff		 mov	 DWORD PTR tv10452[ebp], eax
$LL402@LoadProper:

; 99   : 	{
; 100  : 		wsprintf_e( szBuf, "attack_2_%d_weapon", i+1 );

  01336	6a 04		 push	 4
  01338	c7 85 7c fd ff
	ff 8c 98 9f 8b	 mov	 DWORD PTR ___encStr$531593[ebp], -1952474996 ; 8b9f988cH
  01342	c7 85 80 fd ff
	ff 8e 87 b4 d8	 mov	 DWORD PTR ___encStr$531593[ebp+4], -659257458 ; d8b4878eH
  0134c	c7 85 84 fd ff
	ff b2 c9 8f b5	 mov	 DWORD PTR ___encStr$531593[ebp+8], -1248867918 ; b58fc9b2H
  01356	c7 85 88 fd ff
	ff 9a 89 8a 9a	 mov	 DWORD PTR ___encStr$531593[ebp+12], -1702196838 ; 9a8a899aH
  01360	66 c7 85 8c fd
	ff ff 82 82	 mov	 WORD PTR ___encStr$531593[ebp+16], 33410 ; 00008282H
  01369	8d 85 7c fd ff
	ff		 lea	 eax, DWORD PTR ___encStr$531593[ebp]
  0136f	88 9d 8e fd ff
	ff		 mov	 BYTE PTR ___encStr$531593[ebp+18], bl
  01375	59		 pop	 ecx
$LL4131@LoadProper:
  01376	81 30 ed ec eb
	ea		 xor	 DWORD PTR [eax], -353637139 ; eaebecedH
  0137c	83 c0 04	 add	 eax, 4
  0137f	49		 dec	 ecx
  01380	75 f4		 jne	 SHORT $LL4131@LoadProper
  01382	6a 10		 push	 16			; 00000010H
  01384	58		 pop	 eax
$LL4128@LoadProper:
  01385	8b c8		 mov	 ecx, eax
  01387	81 e1 03 00 00
	80		 and	 ecx, -2147483645	; 80000003H
  0138d	79 05		 jns	 SHORT $LN4461@LoadProper
  0138f	49		 dec	 ecx
  01390	83 c9 fc	 or	 ecx, -4			; fffffffcH
  01393	41		 inc	 ecx
$LN4461@LoadProper:
  01394	b2 ed		 mov	 dl, -19			; ffffffedH
  01396	2a d1		 sub	 dl, cl
  01398	30 94 05 7c fd
	ff ff		 xor	 BYTE PTR ___encStr$531593[ebp+eax], dl
  0139f	40		 inc	 eax
  013a0	83 f8 12	 cmp	 eax, 18			; 00000012H
  013a3	7c e0		 jl	 SHORT $LL4128@LoadProper
  013a5	ff b5 5c fa ff
	ff		 push	 DWORD PTR tv37554[ebp]
  013ab	8d 85 7c fd ff
	ff		 lea	 eax, DWORD PTR ___encStr$531593[ebp]
  013b1	50		 push	 eax
  013b2	8d 85 60 fa ff
	ff		 lea	 eax, DWORD PTR _szBuf$[ebp]
  013b8	50		 push	 eax
  013b9	ff 15 00 00 00
	00		 call	 DWORD PTR __imp__wsprintfA
  013bf	83 c4 0c	 add	 esp, 12			; 0000000cH

; 101  : 
; 102  : 		DummyTT13AttackInfo info;

  013c2	8d 8d e0 f9 ff
	ff		 lea	 ecx, DWORD PTR _info$531742[ebp]
  013c8	e8 00 00 00 00	 call	 ??0DummyTT13AttackInfo@@QAE@XZ ; DummyTT13AttackInfo::DummyTT13AttackInfo

; 103  : 		info.m_dwWeaponIndex = rkLoader.LoadInt( szBuf, 0 );

  013cd	53		 push	 ebx
  013ce	8d 85 60 fa ff
	ff		 lea	 eax, DWORD PTR _szBuf$[ebp]
  013d4	50		 push	 eax
  013d5	8b cf		 mov	 ecx, edi
  013d7	c7 45 fc 01 00
	00 00		 mov	 DWORD PTR __$EHRec$[ebp+8], 1
  013de	ff 15 00 00 00
	00		 call	 DWORD PTR __imp_?LoadInt@ioINILoader@@QAEHPBDH@Z
  013e4	6a 05		 push	 5
  013e6	89 85 e0 f9 ff
	ff		 mov	 DWORD PTR _info$531742[ebp], eax

; 104  : 
; 105  : 		wsprintf_e( szBuf, "attack_2_%d_fire_gap", i+1 );

  013ec	c7 85 9c fb ff
	ff 8c 98 9f 8b	 mov	 DWORD PTR ___encStr$531746[ebp], -1952474996 ; 8b9f988cH
  013f6	c7 85 a0 fb ff
	ff 8e 87 b4 d8	 mov	 DWORD PTR ___encStr$531746[ebp+4], -659257458 ; d8b4878eH
  01400	c7 85 a4 fb ff
	ff b2 c9 8f b5	 mov	 DWORD PTR ___encStr$531746[ebp+8], -1248867918 ; b58fc9b2H
  0140a	c7 85 a8 fb ff
	ff 8b 85 99 8f	 mov	 DWORD PTR ___encStr$531746[ebp+12], -1885764213 ; 8f99858bH
  01414	c7 85 ac fb ff
	ff b2 8b 8a 9a	 mov	 DWORD PTR ___encStr$531746[ebp+16], -1702196302 ; 9a8a8bb2H
  0141e	8d 85 9c fb ff
	ff		 lea	 eax, DWORD PTR ___encStr$531746[ebp]
  01424	88 9d b0 fb ff
	ff		 mov	 BYTE PTR ___encStr$531746[ebp+20], bl
  0142a	59		 pop	 ecx
$LL4139@LoadProper:
  0142b	81 30 ed ec eb
	ea		 xor	 DWORD PTR [eax], -353637139 ; eaebecedH
  01431	83 c0 04	 add	 eax, 4
  01434	49		 dec	 ecx
  01435	75 f4		 jne	 SHORT $LL4139@LoadProper
  01437	ff b5 5c fa ff
	ff		 push	 DWORD PTR tv37554[ebp]
  0143d	8d 85 9c fb ff
	ff		 lea	 eax, DWORD PTR ___encStr$531746[ebp]
  01443	50		 push	 eax
  01444	8d 85 60 fa ff
	ff		 lea	 eax, DWORD PTR _szBuf$[ebp]
  0144a	50		 push	 eax
  0144b	ff 15 00 00 00
	00		 call	 DWORD PTR __imp__wsprintfA
  01451	83 c4 0c	 add	 esp, 12			; 0000000cH

; 106  : 		info.m_dwFireTime    = rkLoader.LoadInt( szBuf, 0 );

  01454	53		 push	 ebx
  01455	8d 85 60 fa ff
	ff		 lea	 eax, DWORD PTR _szBuf$[ebp]
  0145b	50		 push	 eax
  0145c	8b cf		 mov	 ecx, edi
  0145e	ff 15 00 00 00
	00		 call	 DWORD PTR __imp_?LoadInt@ioINILoader@@QAEHPBDH@Z
  01464	89 85 e4 f9 ff
	ff		 mov	 DWORD PTR _info$531742[ebp+4], eax

; 107  : 
; 108  : 		m_vAttackFire2Info.push_back( info );

  0146a	8d 85 e0 f9 ff
	ff		 lea	 eax, DWORD PTR _info$531742[ebp]
  01470	50		 push	 eax
  01471	8d 8e 90 14 00
	00		 lea	 ecx, DWORD PTR [esi+5264]
  01477	e8 00 00 00 00	 call	 ?push_back@?$vector@UDummyTT13AttackInfo@@V?$allocator@UDummyTT13AttackInfo@@@std@@@std@@QAEXABUDummyTT13AttackInfo@@@Z ; std::vector<DummyTT13AttackInfo,std::allocator<DummyTT13AttackInfo> >::push_back

; 109  : 	}

  0147c	83 4d fc ff	 or	 DWORD PTR __$EHRec$[ebp+8], -1
  01480	8d 8d e8 f9 ff
	ff		 lea	 ecx, DWORD PTR _info$531742[ebp+8]
  01486	ff 15 00 00 00
	00		 call	 DWORD PTR __imp_??1ioHashString@@QAE@XZ
  0148c	ff 85 5c fa ff
	ff		 inc	 DWORD PTR tv37554[ebp]
  01492	ff 8d 58 fa ff
	ff		 dec	 DWORD PTR tv10452[ebp]
  01498	0f 85 98 fe ff
	ff		 jne	 $LL402@LoadProper
$LN400@LoadProper:

; 110  : 
; 111  : 	int nFire3Cnt = (DWORD)rkLoader.LoadInt_e( "attack_3_fire_cnt", 0 );

  0149e	6a 04		 push	 4
  014a0	c7 85 30 ff ff
	ff 8c 98 9f 8b	 mov	 DWORD PTR __k$543535[ebp], -1952474996 ; 8b9f988cH
  014aa	c7 85 34 ff ff
	ff 8e 87 b4 d9	 mov	 DWORD PTR __k$543535[ebp+4], -642480242 ; d9b4878eH
  014b4	c7 85 38 ff ff
	ff b2 8a 82 98	 mov	 DWORD PTR __k$543535[ebp+8], -1736275278 ; 98828ab2H
  014be	c7 85 3c ff ff
	ff 88 b3 88 84	 mov	 DWORD PTR __k$543535[ebp+12], -2071415928 ; 8488b388H
  014c8	8d 85 30 ff ff
	ff		 lea	 eax, DWORD PTR __k$543535[ebp]
  014ce	66 c7 85 40 ff
	ff ff 99 00	 mov	 WORD PTR __k$543535[ebp+16], 153 ; 00000099H
  014d7	59		 pop	 ecx
$LL4248@LoadProper:
  014d8	81 30 ed ec eb
	ea		 xor	 DWORD PTR [eax], -353637139 ; eaebecedH
  014de	83 c0 04	 add	 eax, 4
  014e1	49		 dec	 ecx
  014e2	75 f4		 jne	 SHORT $LL4248@LoadProper
  014e4	80 b5 40 ff ff
	ff ed		 xor	 BYTE PTR __k$543535[ebp+16], -19 ; ffffffedH
  014eb	53		 push	 ebx
  014ec	8d 85 30 ff ff
	ff		 lea	 eax, DWORD PTR __k$543535[ebp]
  014f2	50		 push	 eax
  014f3	8b cf		 mov	 ecx, edi
  014f5	ff 15 00 00 00
	00		 call	 DWORD PTR __imp_?LoadInt@ioINILoader@@QAEHPBDH@Z

; 112  : 	for( i = 0; i < nFire3Cnt; i++ )

  014fb	3b c3		 cmp	 eax, ebx
  014fd	0f 8e 78 01 00
	00		 jle	 $LN199@LoadProper

; 110  : 
; 111  : 	int nFire3Cnt = (DWORD)rkLoader.LoadInt_e( "attack_3_fire_cnt", 0 );

  01503	c7 85 5c fa ff
	ff 01 00 00 00	 mov	 DWORD PTR tv37607[ebp], 1
  0150d	89 85 58 fa ff
	ff		 mov	 DWORD PTR tv9559[ebp], eax
$LL201@LoadProper:

; 113  : 	{
; 114  : 		wsprintf_e( szBuf, "attack_3_%d_weapon", i+1 );

  01513	6a 04		 push	 4
  01515	c7 85 94 fe ff
	ff 8c 98 9f 8b	 mov	 DWORD PTR ___encStr$531904[ebp], -1952474996 ; 8b9f988cH
  0151f	c7 85 98 fe ff
	ff 8e 87 b4 d9	 mov	 DWORD PTR ___encStr$531904[ebp+4], -642480242 ; d9b4878eH
  01529	c7 85 9c fe ff
	ff b2 c9 8f b5	 mov	 DWORD PTR ___encStr$531904[ebp+8], -1248867918 ; b58fc9b2H
  01533	c7 85 a0 fe ff
	ff 9a 89 8a 9a	 mov	 DWORD PTR ___encStr$531904[ebp+12], -1702196838 ; 9a8a899aH
  0153d	66 c7 85 a4 fe
	ff ff 82 82	 mov	 WORD PTR ___encStr$531904[ebp+16], 33410 ; 00008282H
  01546	8d 85 94 fe ff
	ff		 lea	 eax, DWORD PTR ___encStr$531904[ebp]
  0154c	88 9d a6 fe ff
	ff		 mov	 BYTE PTR ___encStr$531904[ebp+18], bl
  01552	59		 pop	 ecx
$LL4256@LoadProper:
  01553	81 30 ed ec eb
	ea		 xor	 DWORD PTR [eax], -353637139 ; eaebecedH
  01559	83 c0 04	 add	 eax, 4
  0155c	49		 dec	 ecx
  0155d	75 f4		 jne	 SHORT $LL4256@LoadProper
  0155f	6a 10		 push	 16			; 00000010H
  01561	58		 pop	 eax
$LL4253@LoadProper:
  01562	8b c8		 mov	 ecx, eax
  01564	81 e1 03 00 00
	80		 and	 ecx, -2147483645	; 80000003H
  0156a	79 05		 jns	 SHORT $LN4462@LoadProper
  0156c	49		 dec	 ecx
  0156d	83 c9 fc	 or	 ecx, -4			; fffffffcH
  01570	41		 inc	 ecx
$LN4462@LoadProper:
  01571	b2 ed		 mov	 dl, -19			; ffffffedH
  01573	2a d1		 sub	 dl, cl
  01575	30 94 05 94 fe
	ff ff		 xor	 BYTE PTR ___encStr$531904[ebp+eax], dl
  0157c	40		 inc	 eax
  0157d	83 f8 12	 cmp	 eax, 18			; 00000012H
  01580	7c e0		 jl	 SHORT $LL4253@LoadProper
  01582	ff b5 5c fa ff
	ff		 push	 DWORD PTR tv37607[ebp]
  01588	8d 85 94 fe ff
	ff		 lea	 eax, DWORD PTR ___encStr$531904[ebp]
  0158e	50		 push	 eax
  0158f	8d 85 60 fa ff
	ff		 lea	 eax, DWORD PTR _szBuf$[ebp]
  01595	50		 push	 eax
  01596	ff 15 00 00 00
	00		 call	 DWORD PTR __imp__wsprintfA
  0159c	83 c4 0c	 add	 esp, 12			; 0000000cH

; 115  : 
; 116  : 		DummyTT13AttackInfo info;

  0159f	8d 8d 1c fa ff
	ff		 lea	 ecx, DWORD PTR _info$532053[ebp]
  015a5	e8 00 00 00 00	 call	 ??0DummyTT13AttackInfo@@QAE@XZ ; DummyTT13AttackInfo::DummyTT13AttackInfo

; 117  : 		info.m_dwWeaponIndex = rkLoader.LoadInt( szBuf, 0 );

  015aa	53		 push	 ebx
  015ab	8d 85 60 fa ff
	ff		 lea	 eax, DWORD PTR _szBuf$[ebp]
  015b1	50		 push	 eax
  015b2	8b cf		 mov	 ecx, edi
  015b4	c7 45 fc 02 00
	00 00		 mov	 DWORD PTR __$EHRec$[ebp+8], 2
  015bb	ff 15 00 00 00
	00		 call	 DWORD PTR __imp_?LoadInt@ioINILoader@@QAEHPBDH@Z
  015c1	6a 05		 push	 5
  015c3	89 85 1c fa ff
	ff		 mov	 DWORD PTR _info$532053[ebp], eax

; 118  : 
; 119  : 		wsprintf_e( szBuf, "attack_3_%d_fire_gap", i+1 );

  015c9	c7 85 64 fb ff
	ff 8c 98 9f 8b	 mov	 DWORD PTR ___encStr$532057[ebp], -1952474996 ; 8b9f988cH
  015d3	c7 85 68 fb ff
	ff 8e 87 b4 d9	 mov	 DWORD PTR ___encStr$532057[ebp+4], -642480242 ; d9b4878eH
  015dd	c7 85 6c fb ff
	ff b2 c9 8f b5	 mov	 DWORD PTR ___encStr$532057[ebp+8], -1248867918 ; b58fc9b2H
  015e7	c7 85 70 fb ff
	ff 8b 85 99 8f	 mov	 DWORD PTR ___encStr$532057[ebp+12], -1885764213 ; 8f99858bH
  015f1	c7 85 74 fb ff
	ff b2 8b 8a 9a	 mov	 DWORD PTR ___encStr$532057[ebp+16], -1702196302 ; 9a8a8bb2H
  015fb	8d 85 64 fb ff
	ff		 lea	 eax, DWORD PTR ___encStr$532057[ebp]
  01601	88 9d 78 fb ff
	ff		 mov	 BYTE PTR ___encStr$532057[ebp+20], bl
  01607	59		 pop	 ecx
$LL4264@LoadProper:
  01608	81 30 ed ec eb
	ea		 xor	 DWORD PTR [eax], -353637139 ; eaebecedH
  0160e	83 c0 04	 add	 eax, 4
  01611	49		 dec	 ecx
  01612	75 f4		 jne	 SHORT $LL4264@LoadProper
  01614	ff b5 5c fa ff
	ff		 push	 DWORD PTR tv37607[ebp]
  0161a	8d 85 64 fb ff
	ff		 lea	 eax, DWORD PTR ___encStr$532057[ebp]
  01620	50		 push	 eax
  01621	8d 85 60 fa ff
	ff		 lea	 eax, DWORD PTR _szBuf$[ebp]
  01627	50		 push	 eax
  01628	ff 15 00 00 00
	00		 call	 DWORD PTR __imp__wsprintfA
  0162e	83 c4 0c	 add	 esp, 12			; 0000000cH

; 120  : 		info.m_dwFireTime    = rkLoader.LoadInt( szBuf, 0 );

  01631	53		 push	 ebx
  01632	8d 85 60 fa ff
	ff		 lea	 eax, DWORD PTR _szBuf$[ebp]
  01638	50		 push	 eax
  01639	8b cf		 mov	 ecx, edi
  0163b	ff 15 00 00 00
	00		 call	 DWORD PTR __imp_?LoadInt@ioINILoader@@QAEHPBDH@Z
  01641	89 85 20 fa ff
	ff		 mov	 DWORD PTR _info$532053[ebp+4], eax

; 121  : 
; 122  : 		m_vAttackFire3Info.push_back( info );

  01647	8d 85 1c fa ff
	ff		 lea	 eax, DWORD PTR _info$532053[ebp]
  0164d	50		 push	 eax
  0164e	8d 8e a0 14 00
	00		 lea	 ecx, DWORD PTR [esi+5280]
  01654	e8 00 00 00 00	 call	 ?push_back@?$vector@UDummyTT13AttackInfo@@V?$allocator@UDummyTT13AttackInfo@@@std@@@std@@QAEXABUDummyTT13AttackInfo@@@Z ; std::vector<DummyTT13AttackInfo,std::allocator<DummyTT13AttackInfo> >::push_back

; 123  : 	}

  01659	83 4d fc ff	 or	 DWORD PTR __$EHRec$[ebp+8], -1
  0165d	8d 8d 24 fa ff
	ff		 lea	 ecx, DWORD PTR _info$532053[ebp+8]
  01663	ff 15 00 00 00
	00		 call	 DWORD PTR __imp_??1ioHashString@@QAE@XZ
  01669	ff 85 5c fa ff
	ff		 inc	 DWORD PTR tv37607[ebp]
  0166f	ff 8d 58 fa ff
	ff		 dec	 DWORD PTR tv9559[ebp]
  01675	0f 85 98 fe ff
	ff		 jne	 $LL201@LoadProper
$LN199@LoadProper:

; 124  : 
; 125  : 
; 126  : 	m_fFollowLength = rkLoader.LoadFloat( "follow_length", 1.f );

  0167b	f3 0f 10 05 00
	00 00 00	 movss	 xmm0, DWORD PTR __real@3f800000
  01683	51		 push	 ecx
  01684	f3 0f 11 04 24	 movss	 DWORD PTR [esp], xmm0
  01689	68 00 00 00 00	 push	 OFFSET ??_C@_0O@FGGGOHPM@follow_length?$AA@
  0168e	8b cf		 mov	 ecx, edi
  01690	ff 15 00 00 00
	00		 call	 DWORD PTR __imp_?LoadFloat@ioINILoader@@QAEMPBDM@Z
  01696	d9 9e 7c 15 00
	00		 fstp	 DWORD PTR [esi+5500]

; 127  : }

  0169c	e8 00 00 00 00	 call	 __EH_epilog3_GS
  016a1	c2 04 00	 ret	 4
_TEXT	ENDS
;	COMDAT text$x
text$x	SEGMENT
__unwindfunclet$?LoadProperty@ioTargetTrace13Dummy@@UAEXAAVioINILoader@@@Z$0:
  00000	8d 8d a4 f9 ff
	ff		 lea	 ecx, DWORD PTR _info$531431[ebp]
  00006	e9 00 00 00 00	 jmp	 ??1DummyTT13AttackInfo@@QAE@XZ
__unwindfunclet$?LoadProperty@ioTargetTrace13Dummy@@UAEXAAVioINILoader@@@Z$1:
  0000b	8d 8d e0 f9 ff
	ff		 lea	 ecx, DWORD PTR _info$531742[ebp]
  00011	e9 00 00 00 00	 jmp	 ??1DummyTT13AttackInfo@@QAE@XZ
__unwindfunclet$?LoadProperty@ioTargetTrace13Dummy@@UAEXAAVioINILoader@@@Z$2:
  00016	8d 8d 1c fa ff
	ff		 lea	 ecx, DWORD PTR _info$532053[ebp]
  0001c	e9 00 00 00 00	 jmp	 ??1DummyTT13AttackInfo@@QAE@XZ
__ehhandler$?LoadProperty@ioTargetTrace13Dummy@@UAEXAAVioINILoader@@@Z:
  00021	8b 54 24 08	 mov	 edx, DWORD PTR [esp+8]
  00025	8d 42 0c	 lea	 eax, DWORD PTR [edx+12]
  00028	8b 8a a0 f9 ff
	ff		 mov	 ecx, DWORD PTR [edx-1632]
  0002e	33 c8		 xor	 ecx, eax
  00030	e8 00 00 00 00	 call	 @__security_check_cookie@4
  00035	8b 4a fc	 mov	 ecx, DWORD PTR [edx-4]
  00038	33 c8		 xor	 ecx, eax
  0003a	e8 00 00 00 00	 call	 @__security_check_cookie@4
  0003f	b8 00 00 00 00	 mov	 eax, OFFSET __ehfuncinfo$?LoadProperty@ioTargetTrace13Dummy@@UAEXAAVioINILoader@@@Z
  00044	e9 00 00 00 00	 jmp	 ___CxxFrameHandler3
text$x	ENDS
?LoadProperty@ioTargetTrace13Dummy@@UAEXAAVioINILoader@@@Z ENDP ; ioTargetTrace13Dummy::LoadProperty
EXTRN	?ProcessEffectUpdate@ioDummyChar@@IAEXM@Z:PROC	; ioDummyChar::ProcessEffectUpdate
EXTRN	?SendDieState@ioDummyChar@@QAEX_N@Z:PROC	; ioDummyChar::SendDieState
; Function compile flags: /Ogsp
;	COMDAT ?ProcessState@ioTargetTrace13Dummy@@MAEXMK@Z
_TEXT	SEGMENT
_fTimerPerSec$ = 8					; size = 4
_dwPreTime$ = 12					; size = 4
?ProcessState@ioTargetTrace13Dummy@@MAEXMK@Z PROC	; ioTargetTrace13Dummy::ProcessState, COMDAT
; _this$ = ecx

; 146  : {

  00000	55		 push	 ebp
  00001	8b ec		 mov	 ebp, esp
  00003	53		 push	 ebx
  00004	56		 push	 esi
  00005	8b f1		 mov	 esi, ecx

; 147  : 	ioBaseChar* pOwner = GetOwner();

  00007	e8 00 00 00 00	 call	 ?GetOwner@ioDummyChar@@QBEPAVioBaseChar@@XZ ; ioDummyChar::GetOwner
  0000c	8b d8		 mov	 ebx, eax

; 148  : 	if( !pOwner )

  0000e	85 db		 test	 ebx, ebx
  00010	75 10		 jne	 SHORT $LN8@ProcessSta

; 149  : 	{
; 150  : 		SetDieState( false );

  00012	8b 06		 mov	 eax, DWORD PTR [esi]
  00014	53		 push	 ebx
  00015	8b ce		 mov	 ecx, esi
  00017	ff 90 60 01 00
	00		 call	 DWORD PTR [eax+352]

; 151  : 		return;

  0001d	e9 d1 00 00 00	 jmp	 $LN9@ProcessSta
$LN8@ProcessSta:

; 152  : 	}
; 153  : 
; 154  : 	switch( m_State )

  00022	8b 86 30 02 00
	00		 mov	 eax, DWORD PTR [esi+560]
  00028	48		 dec	 eax
  00029	74 28		 je	 SHORT $LN5@ProcessSta
  0002b	48		 dec	 eax
  0002c	75 2c		 jne	 SHORT $LN6@ProcessSta

; 158  : 		break;
; 159  : 	case DCS_DELAY:
; 160  : 		//    .
; 161  : 		if( pOwner->IsNeedProcess() )

  0002e	8b 03		 mov	 eax, DWORD PTR [ebx]
  00030	8b cb		 mov	 ecx, ebx
  00032	ff 90 00 01 00
	00		 call	 DWORD PTR [eax+256]
  00038	84 c0		 test	 al, al
  0003a	74 1e		 je	 SHORT $LN6@ProcessSta

; 162  : 			ProcessDelayState( fTimerPerSec );

  0003c	f3 0f 10 45 08	 movss	 xmm0, DWORD PTR _fTimerPerSec$[ebp]
  00041	8b 06		 mov	 eax, DWORD PTR [esi]
  00043	51		 push	 ecx
  00044	8b ce		 mov	 ecx, esi
  00046	f3 0f 11 04 24	 movss	 DWORD PTR [esp], xmm0
  0004b	ff 90 00 01 00
	00		 call	 DWORD PTR [eax+256]

; 163  : 
; 164  : 		break;

  00051	eb 07		 jmp	 SHORT $LN6@ProcessSta
$LN5@ProcessSta:

; 155  : 	{
; 156  : 	case DCS_START:
; 157  : 		OnProcessStartState();

  00053	8b ce		 mov	 ecx, esi
  00055	e8 00 00 00 00	 call	 ?OnProcessStartState@ioTargetTrace13Dummy@@IAEXXZ ; ioTargetTrace13Dummy::OnProcessStartState
$LN6@ProcessSta:

; 165  : 	}
; 166  : 
; 167  : 
; 168  : 	if( pOwner->IsNeedProcess() && m_dwLifeTime && (DWORD)(m_dwStartTime + m_dwLifeTime) < FRAMEGETTIME() && m_State != DCS_ATTACK )

  0005a	8b 03		 mov	 eax, DWORD PTR [ebx]
  0005c	57		 push	 edi
  0005d	8b cb		 mov	 ecx, ebx
  0005f	ff 90 00 01 00
	00		 call	 DWORD PTR [eax+256]
  00065	84 c0		 test	 al, al
  00067	74 3b		 je	 SHORT $LN2@ProcessSta
  00069	83 be 10 0b 00
	00 00		 cmp	 DWORD PTR [esi+2832], 0
  00070	74 32		 je	 SHORT $LN2@ProcessSta
  00072	ff 15 00 00 00
	00		 call	 DWORD PTR __imp_?GetSingleton@ioFrameTimer@@SAAAV1@XZ
  00078	8b c8		 mov	 ecx, eax
  0007a	ff 15 00 00 00
	00		 call	 DWORD PTR __imp_?GetLoopSec@ioFrameTimer@@QBEKXZ
  00080	8b 8e 14 0b 00
	00		 mov	 ecx, DWORD PTR [esi+2836]
  00086	03 8e 10 0b 00
	00		 add	 ecx, DWORD PTR [esi+2832]
  0008c	3b c8		 cmp	 ecx, eax
  0008e	73 14		 jae	 SHORT $LN2@ProcessSta
  00090	83 be 30 02 00
	00 05		 cmp	 DWORD PTR [esi+560], 5
  00097	74 0b		 je	 SHORT $LN2@ProcessSta

; 169  : 	{
; 170  : 		SendDieState( true );

  00099	6a 01		 push	 1
  0009b	8b ce		 mov	 ecx, esi
  0009d	e8 00 00 00 00	 call	 ?SendDieState@ioDummyChar@@QAEX_N@Z ; ioDummyChar::SendDieState

; 171  : 		return;

  000a2	eb 4e		 jmp	 SHORT $LN13@ProcessSta
$LN2@ProcessSta:

; 172  : 	}
; 173  : 
; 174  : 	ProcessEffectUpdate( fTimerPerSec );

  000a4	f3 0f 10 45 08	 movss	 xmm0, DWORD PTR _fTimerPerSec$[ebp]
  000a9	51		 push	 ecx
  000aa	8b ce		 mov	 ecx, esi
  000ac	f3 0f 11 04 24	 movss	 DWORD PTR [esp], xmm0
  000b1	e8 00 00 00 00	 call	 ?ProcessEffectUpdate@ioDummyChar@@IAEXM@Z ; ioDummyChar::ProcessEffectUpdate

; 175  : 
; 176  : 	//ProcessPosition( pOwner );
; 177  : 	if( m_vAttackFireReserveInfo.size() == 0 )

  000b6	8b 86 b4 14 00
	00		 mov	 eax, DWORD PTR [esi+5300]
  000bc	2b 86 b0 14 00
	00		 sub	 eax, DWORD PTR [esi+5296]
  000c2	6a 3c		 push	 60			; 0000003cH
  000c4	99		 cdq
  000c5	59		 pop	 ecx
  000c6	f7 f9		 idiv	 ecx
  000c8	85 c0		 test	 eax, eax
  000ca	75 13		 jne	 SHORT $LN1@ProcessSta

; 178  : 		FollowOwner( pOwner, fTimerPerSec );

  000cc	f3 0f 10 45 08	 movss	 xmm0, DWORD PTR _fTimerPerSec$[ebp]
  000d1	51		 push	 ecx
  000d2	f3 0f 11 04 24	 movss	 DWORD PTR [esp], xmm0
  000d7	53		 push	 ebx
  000d8	8b ce		 mov	 ecx, esi
  000da	e8 00 00 00 00	 call	 ?FollowOwner@ioTargetTrace13Dummy@@IAEXPAVioBaseChar@@M@Z ; ioTargetTrace13Dummy::FollowOwner
$LN1@ProcessSta:

; 179  : 
; 180  : 	ProcessWeaponCall( pOwner, fTimerPerSec );

  000df	f3 0f 10 45 08	 movss	 xmm0, DWORD PTR _fTimerPerSec$[ebp]
  000e4	51		 push	 ecx
  000e5	f3 0f 11 04 24	 movss	 DWORD PTR [esp], xmm0
  000ea	53		 push	 ebx
  000eb	8b ce		 mov	 ecx, esi
  000ed	e8 00 00 00 00	 call	 ?ProcessWeaponCall@ioTargetTrace13Dummy@@IAEXPAVioBaseChar@@M@Z ; ioTargetTrace13Dummy::ProcessWeaponCall
$LN13@ProcessSta:
  000f2	5f		 pop	 edi
$LN9@ProcessSta:
  000f3	5e		 pop	 esi
  000f4	5b		 pop	 ebx

; 181  : }

  000f5	5d		 pop	 ebp
  000f6	c2 08 00	 ret	 8
?ProcessState@ioTargetTrace13Dummy@@MAEXMK@Z ENDP	; ioTargetTrace13Dummy::ProcessState
_TEXT	ENDS
PUBLIC	__$ArrayPad$
EXTRN	??6SP2Packet@@QAEAAV0@ABUD3DXQUATERNION@@@Z:PROC ; SP2Packet::operator<<
EXTRN	??6SP2Packet@@QAEAAV0@ABUD3DXVECTOR3@@@Z:PROC	; SP2Packet::operator<<
;	COMDAT xdata$x
xdata$x	SEGMENT
__ehfuncinfo$?ProcessDelayState@ioTargetTrace13Dummy@@MAEXM@Z DD 019930522H
	DD	09H
	DD	FLAT:__unwindtable$?ProcessDelayState@ioTargetTrace13Dummy@@MAEXM@Z
	DD	2 DUP(00H)
	DD	2 DUP(00H)
	DD	00H
	DD	01H
__unwindtable$?ProcessDelayState@ioTargetTrace13Dummy@@MAEXM@Z DD 0ffffffffH
	DD	FLAT:__unwindfunclet$?ProcessDelayState@ioTargetTrace13Dummy@@MAEXM@Z$6
	DD	0ffffffffH
	DD	FLAT:__unwindfunclet$?ProcessDelayState@ioTargetTrace13Dummy@@MAEXM@Z$0
	DD	01H
	DD	FLAT:__unwindfunclet$?ProcessDelayState@ioTargetTrace13Dummy@@MAEXM@Z$1
	DD	0ffffffffH
	DD	FLAT:__unwindfunclet$?ProcessDelayState@ioTargetTrace13Dummy@@MAEXM@Z$8
	DD	0ffffffffH
	DD	FLAT:__unwindfunclet$?ProcessDelayState@ioTargetTrace13Dummy@@MAEXM@Z$2
	DD	04H
	DD	FLAT:__unwindfunclet$?ProcessDelayState@ioTargetTrace13Dummy@@MAEXM@Z$3
	DD	0ffffffffH
	DD	FLAT:__unwindfunclet$?ProcessDelayState@ioTargetTrace13Dummy@@MAEXM@Z$10
	DD	0ffffffffH
	DD	FLAT:__unwindfunclet$?ProcessDelayState@ioTargetTrace13Dummy@@MAEXM@Z$4
	DD	07H
	DD	FLAT:__unwindfunclet$?ProcessDelayState@ioTargetTrace13Dummy@@MAEXM@Z$5
; Function compile flags: /Ogsp
xdata$x	ENDS
;	COMDAT ?ProcessDelayState@ioTargetTrace13Dummy@@MAEXM@Z
_TEXT	SEGMENT
_info$532539 = -33104					; size = 60
_qtRot$544765 = -33044					; size = 16
_qtRot$544433 = -33044					; size = 16
_qtRot$544143 = -33044					; size = 16
_info$532529 = -33028					; size = 60
_info$532519 = -33028					; size = 60
_fDiffRangeSq$544763 = -32968				; size = 4
_fDiffRangeSq$544431 = -32968				; size = 4
_value$544183 = -32968					; size = 4
_fTargetRangeSq_min$544748 = -32964			; size = 4
_fTargetRangeSq_min$544416 = -32964			; size = 4
_value$544173 = -32964					; size = 4
_fHalfValue$544746 = -32960				; size = 4
_fHalfValue$544414 = -32960				; size = 4
$T544209 = -32960					; size = 4
_pTarget$544756 = -32956				; size = 4
_pTarget$544424 = -32956				; size = 4
_pTarget$544132 = -32956				; size = 4
$T544873 = -32952					; size = 4
$T544541 = -32952					; size = 4
_fHalfValue$544082 = -32952				; size = 4
_pOwner$ = -32948					; size = 4
_fTargetRangeSq_max$544747 = -32944			; size = 4
_fTargetRangeSq_max$544415 = -32944			; size = 4
_value$544167 = -32944					; size = 4
$T544212 = -32944					; size = 4
_szTarget$544751 = -32940				; size = 16
_szTarget$544419 = -32940				; size = 16
_szTarget$544116 = -32940				; size = 16
_fCurAngle$544745 = -32924				; size = 4
_fCurAngle$544413 = -32924				; size = 4
_pStage$544076 = -32924					; size = 4
_pStage$544740 = -32920					; size = 4
_pStage$544408 = -32920					; size = 4
_fCurAngle$544081 = -32920				; size = 4
tv3056 = -32916						; size = 4
tv3052 = -32916						; size = 4
tv3048 = -32916						; size = 4
$T544872 = -32916					; size = 4
$T544540 = -32916					; size = 4
_fHeight$544155 = -32916				; size = 4
_dwCurTime$ = -32912					; size = 4
_value$544837 = -32908					; size = 4
$T544874 = -32908					; size = 4
_value$544505 = -32908					; size = 4
$T544542 = -32908					; size = 4
_fTargetRangeSq_min$544084 = -32908			; size = 4
_value$544847 = -32904					; size = 4
$T544875 = -32904					; size = 4
_value$544516 = -32904					; size = 4
$T544543 = -32904					; size = 4
_fDiffRangeSq$544139 = -32904				; size = 4
tv2377 = -32900						; size = 4
_iter$544750 = -32900					; size = 4
_iter$544418 = -32900					; size = 4
$T544210 = -32900					; size = 4
tv2874 = -32896						; size = 4
tv2870 = -32896						; size = 4
tv2866 = -32896						; size = 4
tv2674 = -32896						; size = 4
tv2669 = -32896						; size = 4
tv2665 = -32896						; size = 4
_fHeight$544771 = -32896				; size = 4
$T544876 = -32896					; size = 4
_fHeight$544439 = -32896				; size = 4
$T544544 = -32896					; size = 4
$T544208 = -32896					; size = 4
tv3091 = -32892						; size = 4
tv3083 = -32892						; size = 4
tv3080 = -32892						; size = 4
tv3074 = -32892						; size = 4
tv2752 = -32892						; size = 4
tv2573 = -32892						; size = 4
_value$544097 = -32892					; size = 4
_iter$544114 = -32892					; size = 4
_fCurGap$544752 = -32888				; size = 4
_fCurGap$544420 = -32888				; size = 4
_fCurGap$544118 = -32888				; size = 4
$T544211 = -32888					; size = 4
_i$532540 = -32888					; size = 4
_i$532530 = -32888					; size = 4
_i$532520 = -32888					; size = 4
tv3099 = -32884						; size = 4
tv3095 = -32884						; size = 4
tv2917 = -32884						; size = 4
tv2913 = -32884						; size = 4
tv2909 = -32884						; size = 4
tv2901 = -32884						; size = 4
tv2898 = -32884						; size = 4
tv2892 = -32884						; size = 4
tv2726 = -32884						; size = 4
tv2722 = -32884						; size = 4
tv2718 = -32884						; size = 4
tv2710 = -32884						; size = 4
tv2706 = -32884						; size = 4
tv2697 = -32884						; size = 4
_value$544831 = -32884					; size = 4
_value$544791 = -32884					; size = 4
_value$544499 = -32884					; size = 4
_value$544460 = -32884					; size = 4
_fTargetRangeSq_max$544083 = -32884			; size = 4
_kPacket$532546 = -32880				; size = 32792
_kPacket$532536 = -32880				; size = 32792
_kPacket$532526 = -32880				; size = 32792
$T544762 = -88						; size = 12
$T544430 = -88						; size = 12
$T544147 = -88						; size = 12
$T544767 = -76						; size = 12
$T544435 = -76						; size = 12
$T544138 = -76						; size = 12
_vDir$544766 = -64					; size = 12
_vDir$544434 = -64					; size = 12
_vDir$544145 = -64					; size = 12
_vDiff2$544768 = -52					; size = 12
_vDiff2$544436 = -52					; size = 12
_vDiff2$544150 = -52					; size = 12
_vTargetPos$544761 = -40				; size = 12
_vTargetPos$544429 = -40				; size = 12
_vTargetPos$544137 = -40				; size = 12
_vCurPos$544743 = -28					; size = 12
_vCurPos$544411 = -28					; size = 12
_vCurPos$544079 = -28					; size = 12
__$ArrayPad$ = -16					; size = 4
__$EHRec$ = -12						; size = 12
_fTimePerSec$ = 8					; size = 4
?ProcessDelayState@ioTargetTrace13Dummy@@MAEXM@Z PROC	; ioTargetTrace13Dummy::ProcessDelayState, COMDAT
; _this$ = ecx

; 354  : {

  00000	55		 push	 ebp
  00001	8b ec		 mov	 ebp, esp
  00003	6a ff		 push	 -1
  00005	68 00 00 00 00	 push	 __ehhandler$?ProcessDelayState@ioTargetTrace13Dummy@@MAEXM@Z
  0000a	64 a1 00 00 00
	00		 mov	 eax, DWORD PTR fs:0
  00010	50		 push	 eax
  00011	b8 44 81 00 00	 mov	 eax, 33092		; 00008144H
  00016	e8 00 00 00 00	 call	 __chkstk
  0001b	a1 00 00 00 00	 mov	 eax, DWORD PTR ___security_cookie
  00020	33 c5		 xor	 eax, ebp
  00022	89 45 f0	 mov	 DWORD PTR __$ArrayPad$[ebp], eax
  00025	53		 push	 ebx
  00026	56		 push	 esi
  00027	57		 push	 edi
  00028	50		 push	 eax
  00029	8d 45 f4	 lea	 eax, DWORD PTR __$EHRec$[ebp]
  0002c	64 a3 00 00 00
	00		 mov	 DWORD PTR fs:0, eax
  00032	8b d9		 mov	 ebx, ecx

; 355  : 	DWORD dwCurTime = FRAMEGETTIME();

  00034	ff 15 00 00 00
	00		 call	 DWORD PTR __imp_?GetSingleton@ioFrameTimer@@SAAAV1@XZ
  0003a	8b c8		 mov	 ecx, eax
  0003c	ff 15 00 00 00
	00		 call	 DWORD PTR __imp_?GetLoopSec@ioFrameTimer@@QBEKXZ

; 356  : 	ioBaseChar* pOwner = GetOwner();

  00042	8b cb		 mov	 ecx, ebx
  00044	89 85 70 7f ff
	ff		 mov	 DWORD PTR _dwCurTime$[ebp], eax
  0004a	e8 00 00 00 00	 call	 ?GetOwner@ioDummyChar@@QBEPAVioBaseChar@@XZ ; ioDummyChar::GetOwner
  0004f	8b f8		 mov	 edi, eax
  00051	89 bd 4c 7f ff
	ff		 mov	 DWORD PTR _pOwner$[ebp], edi

; 357  : 	if( !pOwner )

  00057	85 ff		 test	 edi, edi
  00059	0f 84 20 16 00
	00		 je	 $LN5@ProcessDel

; 358  : 		return;
; 359  : 
; 360  : 	if( (m_dwAttack1FiredTime + m_dwAttack1FireGapTime) < dwCurTime )

  0005f	8b 83 f4 14 00
	00		 mov	 eax, DWORD PTR [ebx+5364]
  00065	03 83 e8 14 00
	00		 add	 eax, DWORD PTR [ebx+5352]
  0006b	3b 85 70 7f ff
	ff		 cmp	 eax, DWORD PTR _dwCurTime$[ebp]
  00071	0f 83 45 07 00
	00		 jae	 $LN17@ProcessDel

; 361  : 	{
; 362  : 		if( FindTarget( pOwner, m_fFind_1_Range_min, m_fFind_1_Range_max, m_fFind_1_Angle, m_fFind_1_Height_min, m_fFind_1_Height_max ) )

  00077	f3 0f 10 83 14
	15 00 00	 movss	 xmm0, DWORD PTR [ebx+5396]
  0007f	8b b7 44 03 00
	00		 mov	 esi, DWORD PTR [edi+836]
  00085	f3 0f 11 85 50
	7f ff ff	 movss	 DWORD PTR $T544212[ebp], xmm0
  0008d	f3 0f 10 83 18
	15 00 00	 movss	 xmm0, DWORD PTR [ebx+5400]
  00095	f3 0f 11 85 88
	7f ff ff	 movss	 DWORD PTR $T544211[ebp], xmm0
  0009d	f3 0f 10 83 10
	15 00 00	 movss	 xmm0, DWORD PTR [ebx+5392]
  000a5	f3 0f 11 85 7c
	7f ff ff	 movss	 DWORD PTR $T544210[ebp], xmm0
  000ad	f3 0f 10 83 1c
	15 00 00	 movss	 xmm0, DWORD PTR [ebx+5404]
  000b5	f3 0f 11 85 40
	7f ff ff	 movss	 DWORD PTR $T544209[ebp], xmm0
  000bd	f3 0f 10 83 20
	15 00 00	 movss	 xmm0, DWORD PTR [ebx+5408]
  000c5	f3 0f 11 85 80
	7f ff ff	 movss	 DWORD PTR $T544208[ebp], xmm0
  000cd	89 b5 64 7f ff
	ff		 mov	 DWORD PTR _pStage$544076[ebp], esi
  000d3	85 f6		 test	 esi, esi
  000d5	0f 84 e1 06 00
	00		 je	 $LN17@ProcessDel
  000db	8d 85 84 7f ff
	ff		 lea	 eax, DWORD PTR _value$544097[ebp]
  000e1	8d 8f 94 1d 00
	00		 lea	 ecx, DWORD PTR [edi+7572]
  000e7	50		 push	 eax
  000e8	e8 00 00 00 00	 call	 ?DecryptValueToPool@?$CEncrypt@K@@QAEXPAK@Z ; CEncrypt<unsigned long>::DecryptValueToPool
  000ed	83 bd 84 7f ff
	ff 00		 cmp	 DWORD PTR _value$544097[ebp], 0
  000f4	0f 85 c2 06 00
	00		 jne	 $LN17@ProcessDel
  000fa	8d 8b 00 15 00
	00		 lea	 ecx, DWORD PTR [ebx+5376]
  00100	ff 15 00 00 00
	00		 call	 DWORD PTR __imp_?Clear@ioHashString@@QAEXXZ
  00106	b8 05 00 00 00	 mov	 eax, 5
  0010b	8b c8		 mov	 ecx, eax
  0010d	b8 0a 00 00 00	 mov	 eax, 10			; 0000000aH
  00112	89 8d 8c 7f ff
	ff		 mov	 DWORD PTR tv3099[ebp], ecx
  00118	db 85 8c 7f ff
	ff		 fild	 DWORD PTR tv3099[ebp]
  0011e	85 c9		 test	 ecx, ecx
  00120	79 06		 jns	 SHORT $LN373@ProcessDel
  00122	d8 05 00 00 00
	00		 fadd	 DWORD PTR __real@4f800000
$LN373@ProcessDel:
  00128	89 85 8c 7f ff
	ff		 mov	 DWORD PTR tv3095[ebp], eax
  0012e	db 85 8c 7f ff
	ff		 fild	 DWORD PTR tv3095[ebp]
  00134	85 c0		 test	 eax, eax
  00136	79 06		 jns	 SHORT $LN374@ProcessDel
  00138	d8 05 00 00 00
	00		 fadd	 DWORD PTR __real@4f800000
$LN374@ProcessDel:
  0013e	de f9		 fdivp	 ST(1), ST(0)
  00140	51		 push	 ecx
  00141	8d 45 e4	 lea	 eax, DWORD PTR _vCurPos$544079[ebp]
  00144	8b cf		 mov	 ecx, edi
  00146	d9 9d 84 7f ff
	ff		 fstp	 DWORD PTR tv3091[ebp]
  0014c	d9 85 84 7f ff
	ff		 fld	 DWORD PTR tv3091[ebp]
  00152	d9 1c 24	 fstp	 DWORD PTR [esp]
  00155	50		 push	 eax
  00156	e8 00 00 00 00	 call	 ?GetMidPositionByRate@ioGameEntity@@QBE?AUD3DXVECTOR3@@M@Z ; ioGameEntity::GetMidPositionByRate
  0015b	f3 0f 10 85 7c
	7f ff ff	 movss	 xmm0, DWORD PTR $T544210[ebp]
  00163	51		 push	 ecx
  00164	f3 0f 11 04 24	 movss	 DWORD PTR [esp], xmm0
  00169	ff 15 00 00 00
	00		 call	 DWORD PTR __imp_?ArrangeHead@ioMath@@SAMM@Z
  0016f	d9 9d 68 7f ff
	ff		 fstp	 DWORD PTR _fCurAngle$544081[ebp]
  00175	d9 85 68 7f ff
	ff		 fld	 DWORD PTR _fCurAngle$544081[ebp]
  0017b	59		 pop	 ecx
  0017c	dc 0d 00 00 00
	00		 fmul	 QWORD PTR __real@3fe0000000000000
  00182	d9 9d 84 7f ff
	ff		 fstp	 DWORD PTR tv3083[ebp]
  00188	d9 85 84 7f ff
	ff		 fld	 DWORD PTR tv3083[ebp]
  0018e	dc 0d 00 00 00
	00		 fmul	 QWORD PTR __real@3f91df46a2526c7a
  00194	d9 9d 84 7f ff
	ff		 fstp	 DWORD PTR tv3080[ebp]
  0019a	d9 85 84 7f ff
	ff		 fld	 DWORD PTR tv3080[ebp]
  001a0	e8 00 00 00 00	 call	 __CIcos
  001a5	d9 9d 84 7f ff
	ff		 fstp	 DWORD PTR tv3074[ebp]
  001ab	f3 0f 10 85 88
	7f ff ff	 movss	 xmm0, DWORD PTR $T544211[ebp]
  001b3	d9 85 84 7f ff
	ff		 fld	 DWORD PTR tv3074[ebp]
  001b9	0f 5a c0	 cvtps2pd xmm0, xmm0
  001bc	d9 9d 48 7f ff
	ff		 fstp	 DWORD PTR _fHalfValue$544082[ebp]
  001c2	f2 0f 59 c0	 mulsd	 xmm0, xmm0
  001c6	f2 0f 5a c0	 cvtsd2ss xmm0, xmm0
  001ca	f3 0f 11 85 8c
	7f ff ff	 movss	 DWORD PTR _fTargetRangeSq_max$544083[ebp], xmm0
  001d2	f3 0f 10 85 50
	7f ff ff	 movss	 xmm0, DWORD PTR $T544212[ebp]
  001da	0f 5a c0	 cvtps2pd xmm0, xmm0
  001dd	f2 0f 59 c0	 mulsd	 xmm0, xmm0
  001e1	f2 0f 5a c0	 cvtsd2ss xmm0, xmm0
  001e5	8d 8d 54 7f ff
	ff		 lea	 ecx, DWORD PTR _szTarget$544116[ebp]
  001eb	f3 0f 11 85 74
	7f ff ff	 movss	 DWORD PTR _fTargetRangeSq_min$544084[ebp], xmm0
  001f3	ff 15 00 00 00
	00		 call	 DWORD PTR __imp_??0ioHashString@@QAE@XZ
  001f9	8b 46 2c	 mov	 eax, DWORD PTR [esi+44]
  001fc	83 65 fc 00	 and	 DWORD PTR __$EHRec$[ebp+8], 0
  00200	f3 0f 10 05 00
	00 00 00	 movss	 xmm0, DWORD PTR __real@bf800000
  00208	3b 46 30	 cmp	 eax, DWORD PTR [esi+48]
  0020b	f3 0f 11 85 88
	7f ff ff	 movss	 DWORD PTR _fCurGap$544118[ebp], xmm0
  00213	e9 6d 03 00 00	 jmp	 $LN388@ProcessDel
$LL74@ProcessDel:
  00218	8b 30		 mov	 esi, DWORD PTR [eax]
  0021a	89 b5 44 7f ff
	ff		 mov	 DWORD PTR _pTarget$544132[ebp], esi
  00220	85 f6		 test	 esi, esi
  00222	0f 84 45 03 00
	00		 je	 $LN42@ProcessDel
  00228	8d 85 50 7f ff
	ff		 lea	 eax, DWORD PTR _value$544167[ebp]
  0022e	8d 8e 90 00 00
	00		 lea	 ecx, DWORD PTR [esi+144]
  00234	50		 push	 eax
  00235	e8 00 00 00 00	 call	 ?DecryptValueToPool@?$CEncrypt@W4TeamType@@@@QAEXPAW4TeamType@@@Z ; CEncrypt<enum TeamType>::DecryptValueToPool
  0023a	8d 85 3c 7f ff
	ff		 lea	 eax, DWORD PTR _value$544173[ebp]
  00240	8d 8f 90 00 00
	00		 lea	 ecx, DWORD PTR [edi+144]
  00246	50		 push	 eax
  00247	e8 00 00 00 00	 call	 ?DecryptValueToPool@?$CEncrypt@W4TeamType@@@@QAEXPAW4TeamType@@@Z ; CEncrypt<enum TeamType>::DecryptValueToPool
  0024c	8b 85 50 7f ff
	ff		 mov	 eax, DWORD PTR _value$544167[ebp]
  00252	3b 85 3c 7f ff
	ff		 cmp	 eax, DWORD PTR _value$544173[ebp]
  00258	0f 84 0f 03 00
	00		 je	 $LN42@ProcessDel
  0025e	8d 83 cc 01 00
	00		 lea	 eax, DWORD PTR [ebx+460]
  00264	8d 8e d4 02 00
	00		 lea	 ecx, DWORD PTR [esi+724]
  0026a	50		 push	 eax
  0026b	89 8d 7c 7f ff
	ff		 mov	 DWORD PTR tv2377[ebp], ecx
  00271	ff 15 00 00 00
	00		 call	 DWORD PTR __imp_??8ioHashString@@QBE_NABV0@@Z
  00277	84 c0		 test	 al, al
  00279	0f 85 ee 02 00
	00		 jne	 $LN42@ProcessDel
  0027f	8d 85 38 7f ff
	ff		 lea	 eax, DWORD PTR _value$544183[ebp]
  00285	8d 8e 94 1d 00
	00		 lea	 ecx, DWORD PTR [esi+7572]
  0028b	50		 push	 eax
  0028c	e8 00 00 00 00	 call	 ?DecryptValueToPool@?$CEncrypt@K@@QAEXPAK@Z ; CEncrypt<unsigned long>::DecryptValueToPool
  00291	83 bd 38 7f ff
	ff 00		 cmp	 DWORD PTR _value$544183[ebp], 0
  00298	0f 85 cf 02 00
	00		 jne	 $LN42@ProcessDel
  0029e	b8 05 00 00 00	 mov	 eax, 5
  002a3	8b c8		 mov	 ecx, eax
  002a5	b8 0a 00 00 00	 mov	 eax, 10			; 0000000aH
  002aa	89 8d 6c 7f ff
	ff		 mov	 DWORD PTR tv3056[ebp], ecx
  002b0	db 85 6c 7f ff
	ff		 fild	 DWORD PTR tv3056[ebp]
  002b6	85 c9		 test	 ecx, ecx
  002b8	79 06		 jns	 SHORT $LN375@ProcessDel
  002ba	d8 05 00 00 00
	00		 fadd	 DWORD PTR __real@4f800000
$LN375@ProcessDel:
  002c0	89 85 6c 7f ff
	ff		 mov	 DWORD PTR tv3052[ebp], eax
  002c6	db 85 6c 7f ff
	ff		 fild	 DWORD PTR tv3052[ebp]
  002cc	85 c0		 test	 eax, eax
  002ce	79 06		 jns	 SHORT $LN376@ProcessDel
  002d0	d8 05 00 00 00
	00		 fadd	 DWORD PTR __real@4f800000
$LN376@ProcessDel:
  002d6	de f9		 fdivp	 ST(1), ST(0)
  002d8	51		 push	 ecx
  002d9	8d 45 d8	 lea	 eax, DWORD PTR _vTargetPos$544137[ebp]
  002dc	8b ce		 mov	 ecx, esi
  002de	d9 9d 6c 7f ff
	ff		 fstp	 DWORD PTR tv3048[ebp]
  002e4	d9 85 6c 7f ff
	ff		 fld	 DWORD PTR tv3048[ebp]
  002ea	d9 1c 24	 fstp	 DWORD PTR [esp]
  002ed	50		 push	 eax
  002ee	e8 00 00 00 00	 call	 ?GetMidPositionByRate@ioGameEntity@@QBE?AUD3DXVECTOR3@@M@Z ; ioGameEntity::GetMidPositionByRate
  002f3	f3 0f 10 45 d8	 movss	 xmm0, DWORD PTR _vTargetPos$544137[ebp]
  002f8	f3 0f 10 4d e4	 movss	 xmm1, DWORD PTR _vCurPos$544079[ebp]
  002fd	f3 0f 10 55 e8	 movss	 xmm2, DWORD PTR _vCurPos$544079[ebp+4]
  00302	f3 0f 10 5d ec	 movss	 xmm3, DWORD PTR _vCurPos$544079[ebp+8]
  00307	0f 5a c0	 cvtps2pd xmm0, xmm0
  0030a	0f 5a c9	 cvtps2pd xmm1, xmm1
  0030d	f2 0f 5c c1	 subsd	 xmm0, xmm1
  00311	f3 0f 10 4d dc	 movss	 xmm1, DWORD PTR _vTargetPos$544137[ebp+4]
  00316	0f 5a d2	 cvtps2pd xmm2, xmm2
  00319	0f 5a c9	 cvtps2pd xmm1, xmm1
  0031c	f2 0f 5c ca	 subsd	 xmm1, xmm2
  00320	f3 0f 10 55 e0	 movss	 xmm2, DWORD PTR _vTargetPos$544137[ebp+8]
  00325	f2 0f 5a c0	 cvtsd2ss xmm0, xmm0
  00329	0f 5a d2	 cvtps2pd xmm2, xmm2
  0032c	f3 0f 11 45 b4	 movss	 DWORD PTR $T544138[ebp], xmm0
  00331	66 0f 5a c9	 cvtpd2ps xmm1, xmm1
  00335	f3 0f 5a c0	 cvtss2sd xmm0, xmm0
  00339	0f 5a db	 cvtps2pd xmm3, xmm3
  0033c	f2 0f 5c d3	 subsd	 xmm2, xmm3
  00340	f2 0f 5a d2	 cvtsd2ss xmm2, xmm2
  00344	f3 0f 11 4d b8	 movss	 DWORD PTR $T544138[ebp+4], xmm1
  00349	f2 0f 59 c0	 mulsd	 xmm0, xmm0
  0034d	f3 0f 11 55 bc	 movss	 DWORD PTR $T544138[ebp+8], xmm2
  00352	f3 0f 5a c9	 cvtss2sd xmm1, xmm1
  00356	f3 0f 5a d2	 cvtss2sd xmm2, xmm2
  0035a	f2 0f 59 c9	 mulsd	 xmm1, xmm1
  0035e	f2 0f 58 c1	 addsd	 xmm0, xmm1
  00362	f2 0f 59 d2	 mulsd	 xmm2, xmm2
  00366	f2 0f 58 c2	 addsd	 xmm0, xmm2
  0036a	f2 0f 5a c0	 cvtsd2ss xmm0, xmm0
  0036e	f3 0f 11 85 78
	7f ff ff	 movss	 DWORD PTR _fDiffRangeSq$544139[ebp], xmm0
  00376	f3 0f 10 85 68
	7f ff ff	 movss	 xmm0, DWORD PTR _fCurAngle$544081[ebp]
  0037e	0f 2e 05 00 00
	00 00		 ucomiss xmm0, DWORD PTR __real@00000000
  00385	9f		 lahf
  00386	f6 c4 44	 test	 ah, 68			; 00000044H
  00389	0f 8b cb 00 00
	00		 jnp	 $LN35@ProcessDel
  0038f	8b 03		 mov	 eax, DWORD PTR [ebx]
  00391	8b cb		 mov	 ecx, ebx
  00393	ff 50 74	 call	 DWORD PTR [eax+116]
  00396	0f 57 c0	 xorps	 xmm0, xmm0
  00399	8b f0		 mov	 esi, eax
  0039b	8d bd ec 7e ff
	ff		 lea	 edi, DWORD PTR _qtRot$544143[ebp]
  003a1	a5		 movsd
  003a2	a5		 movsd
  003a3	8d 45 a8	 lea	 eax, DWORD PTR $T544147[ebp]
  003a6	50		 push	 eax
  003a7	8d 85 ec 7e ff
	ff		 lea	 eax, DWORD PTR _qtRot$544143[ebp]
  003ad	a5		 movsd
  003ae	50		 push	 eax
  003af	8d 45 c0	 lea	 eax, DWORD PTR _vDir$544145[ebp]
  003b2	f3 0f 11 45 a8	 movss	 DWORD PTR $T544147[ebp], xmm0
  003b7	f3 0f 11 45 ac	 movss	 DWORD PTR $T544147[ebp+4], xmm0
  003bc	f3 0f 10 05 00
	00 00 00	 movss	 xmm0, DWORD PTR __real@bf800000
  003c4	50		 push	 eax
  003c5	a5		 movsd
  003c6	f3 0f 11 45 b0	 movss	 DWORD PTR $T544147[ebp+8], xmm0
  003cb	ff 15 00 00 00
	00		 call	 DWORD PTR __imp_??D@YA?AUD3DXVECTOR3@@ABUD3DXQUATERNION@@ABU0@@Z
  003d1	83 c4 0c	 add	 esp, 12			; 0000000cH
  003d4	8d 45 c0	 lea	 eax, DWORD PTR _vDir$544145[ebp]
  003d7	50		 push	 eax
  003d8	50		 push	 eax
  003d9	e8 00 00 00 00	 call	 _D3DXVec3Normalize@8
  003de	0f 57 c0	 xorps	 xmm0, xmm0
  003e1	8d 75 b4	 lea	 esi, DWORD PTR $T544138[ebp]
  003e4	8d 7d cc	 lea	 edi, DWORD PTR _vDiff2$544150[ebp]
  003e7	a5		 movsd
  003e8	a5		 movsd
  003e9	8d 45 cc	 lea	 eax, DWORD PTR _vDiff2$544150[ebp]
  003ec	50		 push	 eax
  003ed	a5		 movsd
  003ee	50		 push	 eax
  003ef	f3 0f 11 45 d0	 movss	 DWORD PTR _vDiff2$544150[ebp+4], xmm0
  003f4	e8 00 00 00 00	 call	 _D3DXVec3Normalize@8
  003f9	f3 0f 10 4d d0	 movss	 xmm1, DWORD PTR _vDiff2$544150[ebp+4]
  003fe	f3 0f 10 45 c4	 movss	 xmm0, DWORD PTR _vDir$544145[ebp+4]
  00403	f3 0f 10 55 cc	 movss	 xmm2, DWORD PTR _vDiff2$544150[ebp]
  00408	0f 5a c9	 cvtps2pd xmm1, xmm1
  0040b	0f 5a c0	 cvtps2pd xmm0, xmm0
  0040e	f2 0f 59 c1	 mulsd	 xmm0, xmm1
  00412	f3 0f 10 4d c0	 movss	 xmm1, DWORD PTR _vDir$544145[ebp]
  00417	0f 5a c9	 cvtps2pd xmm1, xmm1
  0041a	0f 5a d2	 cvtps2pd xmm2, xmm2
  0041d	f2 0f 59 ca	 mulsd	 xmm1, xmm2
  00421	f3 0f 10 55 d4	 movss	 xmm2, DWORD PTR _vDiff2$544150[ebp+8]
  00426	f2 0f 58 c1	 addsd	 xmm0, xmm1
  0042a	f3 0f 10 4d c8	 movss	 xmm1, DWORD PTR _vDir$544145[ebp+8]
  0042f	0f 5a c9	 cvtps2pd xmm1, xmm1
  00432	0f 5a d2	 cvtps2pd xmm2, xmm2
  00435	f2 0f 59 ca	 mulsd	 xmm1, xmm2
  00439	f2 0f 58 c1	 addsd	 xmm0, xmm1
  0043d	f3 0f 10 8d 48
	7f ff ff	 movss	 xmm1, DWORD PTR _fHalfValue$544082[ebp]
  00445	66 0f 5a c0	 cvtpd2ps xmm0, xmm0
  00449	f3 0f 5a c0	 cvtss2sd xmm0, xmm0
  0044d	0f 5a c9	 cvtps2pd xmm1, xmm1
  00450	66 0f 2f c8	 comisd	 xmm1, xmm0
  00454	0f 87 13 01 00
	00		 ja	 $LN42@ProcessDel
$LN35@ProcessDel:
  0045a	0f 57 c0	 xorps	 xmm0, xmm0
  0045d	8b 8d 64 7f ff
	ff		 mov	 ecx, DWORD PTR _pStage$544076[ebp]
  00463	83 ec 0c	 sub	 esp, 12			; 0000000cH
  00466	f3 0f 11 44 24
	08		 movss	 DWORD PTR [esp+8], xmm0
  0046c	f3 0f 10 45 e0	 movss	 xmm0, DWORD PTR _vTargetPos$544137[ebp+8]
  00471	f3 0f 11 44 24
	04		 movss	 DWORD PTR [esp+4], xmm0
  00477	f3 0f 10 45 d8	 movss	 xmm0, DWORD PTR _vTargetPos$544137[ebp]
  0047c	f3 0f 11 04 24	 movss	 DWORD PTR [esp], xmm0
  00481	e8 00 00 00 00	 call	 ?GetMapHeightOnlyTerrain@ioPlayStage@@QAEMMMM@Z ; ioPlayStage::GetMapHeightOnlyTerrain
  00486	d9 9d 6c 7f ff
	ff		 fstp	 DWORD PTR _fHeight$544155[ebp]
  0048c	8b 8d 44 7f ff
	ff		 mov	 ecx, DWORD PTR _pTarget$544132[ebp]
  00492	8b 01		 mov	 eax, DWORD PTR [ecx]
  00494	ff 50 70	 call	 DWORD PTR [eax+112]
  00497	f3 0f 10 8d 6c
	7f ff ff	 movss	 xmm1, DWORD PTR _fHeight$544155[ebp]
  0049f	f3 0f 10 40 04	 movss	 xmm0, DWORD PTR [eax+4]
  004a4	f3 0f 10 95 40
	7f ff ff	 movss	 xmm2, DWORD PTR $T544209[ebp]
  004ac	0f 5a c0	 cvtps2pd xmm0, xmm0
  004af	0f 5a c9	 cvtps2pd xmm1, xmm1
  004b2	f2 0f 5c c1	 subsd	 xmm0, xmm1
  004b6	66 0f 5a c0	 cvtpd2ps xmm0, xmm0
  004ba	f3 0f 5a c0	 cvtss2sd xmm0, xmm0
  004be	66 0f 54 05 00
	00 00 00	 andpd	 xmm0, QWORD PTR __mask@@AbsDouble@
  004c6	f2 0f 5a c0	 cvtsd2ss xmm0, xmm0
  004ca	0f 57 c9	 xorps	 xmm1, xmm1
  004cd	f3 0f 5a c8	 cvtss2sd xmm1, xmm0
  004d1	0f 5a d2	 cvtps2pd xmm2, xmm2
  004d4	66 0f 2f d1	 comisd	 xmm2, xmm1
  004d8	0f 87 8f 00 00
	00		 ja	 $LN42@ProcessDel
  004de	f3 0f 10 8d 80
	7f ff ff	 movss	 xmm1, DWORD PTR $T544208[ebp]
  004e6	f3 0f 5a c0	 cvtss2sd xmm0, xmm0
  004ea	0f 5a c9	 cvtps2pd xmm1, xmm1
  004ed	66 0f 2f c1	 comisd	 xmm0, xmm1
  004f1	77 7a		 ja	 SHORT $LN42@ProcessDel
  004f3	f3 0f 10 8d 78
	7f ff ff	 movss	 xmm1, DWORD PTR _fDiffRangeSq$544139[ebp]
  004fb	f3 0f 10 95 74
	7f ff ff	 movss	 xmm2, DWORD PTR _fTargetRangeSq_min$544084[ebp]
  00503	0f 5a c1	 cvtps2pd xmm0, xmm1
  00506	0f 5a d2	 cvtps2pd xmm2, xmm2
  00509	66 0f 2f c2	 comisd	 xmm0, xmm2
  0050d	76 5e		 jbe	 SHORT $LN42@ProcessDel
  0050f	f3 0f 10 95 8c
	7f ff ff	 movss	 xmm2, DWORD PTR _fTargetRangeSq_max$544083[ebp]
  00517	0f 57 c0	 xorps	 xmm0, xmm0
  0051a	0f 5a c1	 cvtps2pd xmm0, xmm1
  0051d	0f 5a d2	 cvtps2pd xmm2, xmm2
  00520	66 0f 2f d0	 comisd	 xmm2, xmm0
  00524	76 47		 jbe	 SHORT $LN42@ProcessDel
  00526	f3 0f 10 85 88
	7f ff ff	 movss	 xmm0, DWORD PTR _fCurGap$544118[ebp]
  0052e	0f 2e 05 00 00
	00 00		 ucomiss xmm0, DWORD PTR __real@bf800000
  00535	9f		 lahf
  00536	f6 c4 44	 test	 ah, 68			; 00000044H
  00539	7b 18		 jnp	 SHORT $LN385@ProcessDel
  0053b	0f 2f 05 00 00
	00 00		 comiss	 xmm0, DWORD PTR __real@00000000
  00542	72 29		 jb	 SHORT $LN42@ProcessDel
  00544	0f 57 d2	 xorps	 xmm2, xmm2
  00547	0f 5a d1	 cvtps2pd xmm2, xmm1
  0054a	0f 5a c0	 cvtps2pd xmm0, xmm0
  0054d	66 0f 2f c2	 comisd	 xmm0, xmm2
  00551	76 1a		 jbe	 SHORT $LN42@ProcessDel
$LN385@ProcessDel:
  00553	ff b5 7c 7f ff
	ff		 push	 DWORD PTR tv2377[ebp]
  00559	8d 8b 00 15 00
	00		 lea	 ecx, DWORD PTR [ebx+5376]
  0055f	f3 0f 11 8d 88
	7f ff ff	 movss	 DWORD PTR _fCurGap$544118[ebp], xmm1
  00567	ff 15 00 00 00
	00		 call	 DWORD PTR __imp_??4ioHashString@@QAEAAV0@ABV0@@Z
$LN42@ProcessDel:
  0056d	8b 85 84 7f ff
	ff		 mov	 eax, DWORD PTR _iter$544114[ebp]
  00573	8b 8d 64 7f ff
	ff		 mov	 ecx, DWORD PTR _pStage$544076[ebp]
  00579	8b bd 4c 7f ff
	ff		 mov	 edi, DWORD PTR _pOwner$[ebp]
  0057f	83 c0 04	 add	 eax, 4
  00582	3b 41 30	 cmp	 eax, DWORD PTR [ecx+48]
$LN388@ProcessDel:
  00585	89 85 84 7f ff
	ff		 mov	 DWORD PTR _iter$544114[ebp], eax
  0058b	0f 85 87 fc ff
	ff		 jne	 $LL74@ProcessDel
  00591	8d 8b 00 15 00
	00		 lea	 ecx, DWORD PTR [ebx+5376]
  00597	ff 15 00 00 00
	00		 call	 DWORD PTR __imp_?IsEmpty@ioHashString@@QBE_NXZ
  0059d	83 4d fc ff	 or	 DWORD PTR __$EHRec$[ebp+8], -1
  005a1	8d 8d 54 7f ff
	ff		 lea	 ecx, DWORD PTR _szTarget$544116[ebp]
  005a7	84 c0		 test	 al, al
  005a9	0f 85 07 02 00
	00		 jne	 $LN28@ProcessDel
  005af	ff 15 00 00 00
	00		 call	 DWORD PTR __imp_??1ioHashString@@QAE@XZ

; 363  : 		{
; 364  : 			DummyTT13AttackInfo info;

  005b5	8d 8d fc 7e ff
	ff		 lea	 ecx, DWORD PTR _info$532519[ebp]
  005bb	e8 00 00 00 00	 call	 ??0DummyTT13AttackInfo@@QAE@XZ ; DummyTT13AttackInfo::DummyTT13AttackInfo

; 365  : 			for( int i = 0; i < (int)m_vAttackFire1Info.size(); i++ )

  005c0	8b 83 84 14 00
	00		 mov	 eax, DWORD PTR [ebx+5252]
  005c6	2b 83 80 14 00
	00		 sub	 eax, DWORD PTR [ebx+5248]
  005cc	6a 3c		 push	 60			; 0000003cH
  005ce	99		 cdq
  005cf	59		 pop	 ecx
  005d0	f7 f9		 idiv	 ecx
  005d2	83 a5 88 7f ff
	ff 00		 and	 DWORD PTR _i$532520[ebp], 0
  005d9	c7 45 fc 01 00
	00 00		 mov	 DWORD PTR __$EHRec$[ebp+8], 1
  005e0	85 c0		 test	 eax, eax
  005e2	0f 8e fe 00 00
	00		 jle	 $LN14@ProcessDel

; 363  : 		{
; 364  : 			DummyTT13AttackInfo info;

  005e8	33 f6		 xor	 esi, esi
$LL16@ProcessDel:

; 366  : 			{
; 367  : 				info = m_vAttackFire1Info[i];

  005ea	8b 83 80 14 00
	00		 mov	 eax, DWORD PTR [ebx+5248]
  005f0	03 c6		 add	 eax, esi
  005f2	50		 push	 eax
  005f3	8d 8d fc 7e ff
	ff		 lea	 ecx, DWORD PTR _info$532519[ebp]
  005f9	e8 00 00 00 00	 call	 ??4DummyTT13AttackInfo@@QAEAAU0@ABU0@@Z

; 368  : 				info.m_dwFireTime += dwCurTime;

  005fe	8b 85 70 7f ff
	ff		 mov	 eax, DWORD PTR _dwCurTime$[ebp]
  00604	01 85 00 7f ff
	ff		 add	 DWORD PTR _info$532519[ebp+4], eax

; 369  : 
; 370  : 				info.m_stTargetName = m_szFindTarget;

  0060a	8d 83 00 15 00
	00		 lea	 eax, DWORD PTR [ebx+5376]
  00610	50		 push	 eax
  00611	8d 8d 04 7f ff
	ff		 lea	 ecx, DWORD PTR _info$532519[ebp+8]
  00617	ff 15 00 00 00
	00		 call	 DWORD PTR __imp_??4ioHashString@@QAEAAV0@ABV0@@Z

; 371  : 				info.m_fAngle = m_fFind_1_Angle;

  0061d	f3 0f 10 83 10
	15 00 00	 movss	 xmm0, DWORD PTR [ebx+5392]
  00625	f3 0f 11 85 1c
	7f ff ff	 movss	 DWORD PTR _info$532519[ebp+32], xmm0

; 372  : 				info.m_fHeightMax = m_fFind_1_Height_max;

  0062d	f3 0f 10 83 20
	15 00 00	 movss	 xmm0, DWORD PTR [ebx+5408]
  00635	f3 0f 11 85 24
	7f ff ff	 movss	 DWORD PTR _info$532519[ebp+40], xmm0

; 373  : 				info.m_fHeightMin = m_fFind_1_Height_min;

  0063d	f3 0f 10 83 1c
	15 00 00	 movss	 xmm0, DWORD PTR [ebx+5404]
  00645	f3 0f 11 85 20
	7f ff ff	 movss	 DWORD PTR _info$532519[ebp+36], xmm0

; 374  : 				info.m_fRangeMax = m_fFind_1_Range_max;

  0064d	f3 0f 10 83 18
	15 00 00	 movss	 xmm0, DWORD PTR [ebx+5400]
  00655	f3 0f 11 85 18
	7f ff ff	 movss	 DWORD PTR _info$532519[ebp+28], xmm0

; 375  : 				info.m_fRangeMin = m_fFind_1_Range_min;

  0065d	f3 0f 10 83 14
	15 00 00	 movss	 xmm0, DWORD PTR [ebx+5396]
  00665	f3 0f 11 85 14
	7f ff ff	 movss	 DWORD PTR _info$532519[ebp+24], xmm0

; 376  : 
; 377  : 				info.m_fWeaponLookOffSet = m_fWeapon_1_LookOffSet;

  0066d	f3 0f 10 83 24
	15 00 00	 movss	 xmm0, DWORD PTR [ebx+5412]
  00675	f3 0f 11 85 28
	7f ff ff	 movss	 DWORD PTR _info$532519[ebp+44], xmm0

; 378  : 				info.m_fWeaponHeighOffSet = m_fWeapon_1_height_OffSet;

  0067d	f3 0f 10 83 28
	15 00 00	 movss	 xmm0, DWORD PTR [ebx+5416]
  00685	f3 0f 11 85 2c
	7f ff ff	 movss	 DWORD PTR _info$532519[ebp+48], xmm0

; 379  : 				info.m_fWeaponSideOffSet = m_fWeapon_1_Side_OffSet;

  0068d	f3 0f 10 83 2c
	15 00 00	 movss	 xmm0, DWORD PTR [ebx+5420]

; 380  : 
; 381  : 				info.m_fTargetShootOffHeight = m_fTarget_1_ShootOffHeight;
; 382  : 
; 383  : 				m_vAttackFireReserveInfo.push_back( info );

  00695	8d 85 fc 7e ff
	ff		 lea	 eax, DWORD PTR _info$532519[ebp]
  0069b	f3 0f 11 85 30
	7f ff ff	 movss	 DWORD PTR _info$532519[ebp+52], xmm0
  006a3	f3 0f 10 83 30
	15 00 00	 movss	 xmm0, DWORD PTR [ebx+5424]
  006ab	50		 push	 eax
  006ac	8d 8b b0 14 00
	00		 lea	 ecx, DWORD PTR [ebx+5296]
  006b2	f3 0f 11 85 34
	7f ff ff	 movss	 DWORD PTR _info$532519[ebp+56], xmm0
  006ba	e8 00 00 00 00	 call	 ?push_back@?$vector@UDummyTT13AttackInfo@@V?$allocator@UDummyTT13AttackInfo@@@std@@@std@@QAEXABUDummyTT13AttackInfo@@@Z ; std::vector<DummyTT13AttackInfo,std::allocator<DummyTT13AttackInfo> >::push_back
  006bf	8b 83 84 14 00
	00		 mov	 eax, DWORD PTR [ebx+5252]
  006c5	2b 83 80 14 00
	00		 sub	 eax, DWORD PTR [ebx+5248]
  006cb	6a 3c		 push	 60			; 0000003cH
  006cd	99		 cdq
  006ce	59		 pop	 ecx
  006cf	f7 f9		 idiv	 ecx
  006d1	ff 85 88 7f ff
	ff		 inc	 DWORD PTR _i$532520[ebp]
  006d7	83 c6 3c	 add	 esi, 60			; 0000003cH
  006da	39 85 88 7f ff
	ff		 cmp	 DWORD PTR _i$532520[ebp], eax
  006e0	0f 8c 04 ff ff
	ff		 jl	 $LL16@ProcessDel
$LN14@ProcessDel:

; 384  : 			}
; 385  : 
; 386  : 			if( pOwner->IsNeedSendNetwork() )

  006e6	8b 07		 mov	 eax, DWORD PTR [edi]
  006e8	8b cf		 mov	 ecx, edi
  006ea	ff 90 04 01 00
	00		 call	 DWORD PTR [eax+260]
  006f0	84 c0		 test	 al, al
  006f2	0f 84 a8 00 00
	00		 je	 $LN13@ProcessDel

; 387  : 			{
; 388  : 				SP2Packet kPacket( CUPK_DUMMY_CHAR_SYNC );

  006f8	68 21 42 00 00	 push	 16929			; 00004221H
  006fd	8d 8d 90 7f ff
	ff		 lea	 ecx, DWORD PTR _kPacket$532526[ebp]
  00703	e8 00 00 00 00	 call	 ??0SP2Packet@@QAE@K@Z	; SP2Packet::SP2Packet

; 389  : 				kPacket << m_OwnerName;

  00708	8d 83 cc 01 00
	00		 lea	 eax, DWORD PTR [ebx+460]
  0070e	50		 push	 eax
  0070f	8d 8d 90 7f ff
	ff		 lea	 ecx, DWORD PTR _kPacket$532526[ebp]
  00715	c6 45 fc 02	 mov	 BYTE PTR __$EHRec$[ebp+8], 2
  00719	e8 00 00 00 00	 call	 ??6SP2Packet@@QAEAAV0@ABVioHashString@@@Z ; SP2Packet::operator<<

; 390  : 				kPacket << m_iCreateIndex;

  0071e	ff b3 dc 01 00
	00		 push	 DWORD PTR [ebx+476]
  00724	8d 8d 90 7f ff
	ff		 lea	 ecx, DWORD PTR _kPacket$532526[ebp]
  0072a	e8 00 00 00 00	 call	 ??6SP2Packet@@QAEAAV0@H@Z ; SP2Packet::operator<<

; 391  : 				kPacket << DUMMY_CHAR_STRIDER_SD_SYNC;

  0072f	6a 12		 push	 18			; 00000012H
  00731	8d 8d 90 7f ff
	ff		 lea	 ecx, DWORD PTR _kPacket$532526[ebp]
  00737	e8 00 00 00 00	 call	 ??6SP2Packet@@QAEAAV0@H@Z ; SP2Packet::operator<<

; 392  : 				kPacket	<< 1;

  0073c	6a 01		 push	 1
  0073e	8d 8d 90 7f ff
	ff		 lea	 ecx, DWORD PTR _kPacket$532526[ebp]
  00744	e8 00 00 00 00	 call	 ??6SP2Packet@@QAEAAV0@H@Z ; SP2Packet::operator<<

; 393  : 				kPacket << m_szFindTarget;

  00749	8d 83 00 15 00
	00		 lea	 eax, DWORD PTR [ebx+5376]
  0074f	50		 push	 eax
  00750	8d 8d 90 7f ff
	ff		 lea	 ecx, DWORD PTR _kPacket$532526[ebp]
  00756	e8 00 00 00 00	 call	 ??6SP2Packet@@QAEAAV0@ABVioHashString@@@Z ; SP2Packet::operator<<

; 394  : 				kPacket << GetWorldPosition();

  0075b	8b 03		 mov	 eax, DWORD PTR [ebx]
  0075d	8b cb		 mov	 ecx, ebx
  0075f	ff 50 70	 call	 DWORD PTR [eax+112]
  00762	50		 push	 eax
  00763	8d 8d 90 7f ff
	ff		 lea	 ecx, DWORD PTR _kPacket$532526[ebp]
  00769	e8 00 00 00 00	 call	 ??6SP2Packet@@QAEAAV0@ABUD3DXVECTOR3@@@Z ; SP2Packet::operator<<

; 395  : 				kPacket << GetWorldOrientation();

  0076e	8b 03		 mov	 eax, DWORD PTR [ebx]
  00770	8b cb		 mov	 ecx, ebx
  00772	ff 50 74	 call	 DWORD PTR [eax+116]
  00775	50		 push	 eax
  00776	8d 8d 90 7f ff
	ff		 lea	 ecx, DWORD PTR _kPacket$532526[ebp]
  0077c	e8 00 00 00 00	 call	 ??6SP2Packet@@QAEAAV0@ABUD3DXQUATERNION@@@Z ; SP2Packet::operator<<

; 396  : 				P2PNetwork::SendToAllPlayingUser( kPacket );

  00781	8d 85 90 7f ff
	ff		 lea	 eax, DWORD PTR _kPacket$532526[ebp]
  00787	6a 00		 push	 0
  00789	50		 push	 eax
  0078a	e8 00 00 00 00	 call	 ?SendToAllPlayingUser@P2PNetwork@@YAXAAVSP2Packet@@PAVioBaseChar@@@Z ; P2PNetwork::SendToAllPlayingUser
  0078f	59		 pop	 ecx
  00790	59		 pop	 ecx

; 397  : 			}

  00791	8d 8d 90 7f ff
	ff		 lea	 ecx, DWORD PTR _kPacket$532526[ebp]
  00797	c6 45 fc 01	 mov	 BYTE PTR __$EHRec$[ebp+8], 1
  0079b	e8 00 00 00 00	 call	 ??1SP2Packet@@UAE@XZ	; SP2Packet::~SP2Packet
$LN13@ProcessDel:

; 398  : 
; 399  : 			m_dwAttack1FiredTime = dwCurTime;

  007a0	8b 85 70 7f ff
	ff		 mov	 eax, DWORD PTR _dwCurTime$[ebp]

; 400  : 		}

  007a6	83 4d fc ff	 or	 DWORD PTR __$EHRec$[ebp+8], -1
  007aa	89 83 e8 14 00
	00		 mov	 DWORD PTR [ebx+5352], eax
  007b0	8d 8d 04 7f ff
	ff		 lea	 ecx, DWORD PTR _info$532519[ebp+8]
$LN28@ProcessDel:
  007b6	ff 15 00 00 00
	00		 call	 DWORD PTR __imp_??1ioHashString@@QAE@XZ
$LN17@ProcessDel:

; 401  : 	}
; 402  : 
; 403  : 	if( (m_dwAttack2FiredTime + m_dwAttack2FireGapTime) < dwCurTime )

  007bc	8b 83 f8 14 00
	00		 mov	 eax, DWORD PTR [ebx+5368]
  007c2	03 83 ec 14 00
	00		 add	 eax, DWORD PTR [ebx+5356]
  007c8	3b 85 70 7f ff
	ff		 cmp	 eax, DWORD PTR _dwCurTime$[ebp]
  007ce	0f 83 4b 07 00
	00		 jae	 $LN11@ProcessDel

; 404  : 	{
; 405  : 		if( FindTarget( pOwner, m_fFind_2_Range_min, m_fFind_2_Range_max, m_fFind_2_Angle, m_fFind_2_Height_min, m_fFind_2_Height_max ) )

  007d4	f3 0f 10 83 38
	15 00 00	 movss	 xmm0, DWORD PTR [ebx+5432]
  007dc	8b b7 44 03 00
	00		 mov	 esi, DWORD PTR [edi+836]
  007e2	f3 0f 11 85 80
	7f ff ff	 movss	 DWORD PTR $T544544[ebp], xmm0
  007ea	f3 0f 10 83 3c
	15 00 00	 movss	 xmm0, DWORD PTR [ebx+5436]
  007f2	f3 0f 11 85 78
	7f ff ff	 movss	 DWORD PTR $T544543[ebp], xmm0
  007fa	f3 0f 10 83 34
	15 00 00	 movss	 xmm0, DWORD PTR [ebx+5428]
  00802	f3 0f 11 85 74
	7f ff ff	 movss	 DWORD PTR $T544542[ebp], xmm0
  0080a	f3 0f 10 83 40
	15 00 00	 movss	 xmm0, DWORD PTR [ebx+5440]
  00812	f3 0f 11 85 48
	7f ff ff	 movss	 DWORD PTR $T544541[ebp], xmm0
  0081a	f3 0f 10 83 44
	15 00 00	 movss	 xmm0, DWORD PTR [ebx+5444]
  00822	f3 0f 11 85 6c
	7f ff ff	 movss	 DWORD PTR $T544540[ebp], xmm0
  0082a	89 b5 68 7f ff
	ff		 mov	 DWORD PTR _pStage$544408[ebp], esi
  00830	85 f6		 test	 esi, esi
  00832	0f 84 e7 06 00
	00		 je	 $LN11@ProcessDel
  00838	8d 85 8c 7f ff
	ff		 lea	 eax, DWORD PTR _value$544460[ebp]
  0083e	8d 8f 94 1d 00
	00		 lea	 ecx, DWORD PTR [edi+7572]
  00844	50		 push	 eax
  00845	e8 00 00 00 00	 call	 ?DecryptValueToPool@?$CEncrypt@K@@QAEXPAK@Z ; CEncrypt<unsigned long>::DecryptValueToPool
  0084a	83 bd 8c 7f ff
	ff 00		 cmp	 DWORD PTR _value$544460[ebp], 0
  00851	0f 85 c8 06 00
	00		 jne	 $LN11@ProcessDel
  00857	8d 8b 00 15 00
	00		 lea	 ecx, DWORD PTR [ebx+5376]
  0085d	ff 15 00 00 00
	00		 call	 DWORD PTR __imp_?Clear@ioHashString@@QAEXXZ
  00863	b8 05 00 00 00	 mov	 eax, 5
  00868	8b c8		 mov	 ecx, eax
  0086a	b8 0a 00 00 00	 mov	 eax, 10			; 0000000aH
  0086f	89 8d 8c 7f ff
	ff		 mov	 DWORD PTR tv2917[ebp], ecx
  00875	db 85 8c 7f ff
	ff		 fild	 DWORD PTR tv2917[ebp]
  0087b	85 c9		 test	 ecx, ecx
  0087d	79 06		 jns	 SHORT $LN377@ProcessDel
  0087f	d8 05 00 00 00
	00		 fadd	 DWORD PTR __real@4f800000
$LN377@ProcessDel:
  00885	89 85 8c 7f ff
	ff		 mov	 DWORD PTR tv2913[ebp], eax
  0088b	db 85 8c 7f ff
	ff		 fild	 DWORD PTR tv2913[ebp]
  00891	85 c0		 test	 eax, eax
  00893	79 06		 jns	 SHORT $LN378@ProcessDel
  00895	d8 05 00 00 00
	00		 fadd	 DWORD PTR __real@4f800000
$LN378@ProcessDel:
  0089b	de f9		 fdivp	 ST(1), ST(0)
  0089d	51		 push	 ecx
  0089e	8d 45 e4	 lea	 eax, DWORD PTR _vCurPos$544411[ebp]
  008a1	8b cf		 mov	 ecx, edi
  008a3	d9 9d 8c 7f ff
	ff		 fstp	 DWORD PTR tv2909[ebp]
  008a9	d9 85 8c 7f ff
	ff		 fld	 DWORD PTR tv2909[ebp]
  008af	d9 1c 24	 fstp	 DWORD PTR [esp]
  008b2	50		 push	 eax
  008b3	e8 00 00 00 00	 call	 ?GetMidPositionByRate@ioGameEntity@@QBE?AUD3DXVECTOR3@@M@Z ; ioGameEntity::GetMidPositionByRate
  008b8	f3 0f 10 85 74
	7f ff ff	 movss	 xmm0, DWORD PTR $T544542[ebp]
  008c0	51		 push	 ecx
  008c1	f3 0f 11 04 24	 movss	 DWORD PTR [esp], xmm0
  008c6	ff 15 00 00 00
	00		 call	 DWORD PTR __imp_?ArrangeHead@ioMath@@SAMM@Z
  008cc	d9 9d 64 7f ff
	ff		 fstp	 DWORD PTR _fCurAngle$544413[ebp]
  008d2	d9 85 64 7f ff
	ff		 fld	 DWORD PTR _fCurAngle$544413[ebp]
  008d8	59		 pop	 ecx
  008d9	dc 0d 00 00 00
	00		 fmul	 QWORD PTR __real@3fe0000000000000
  008df	d9 9d 8c 7f ff
	ff		 fstp	 DWORD PTR tv2901[ebp]
  008e5	d9 85 8c 7f ff
	ff		 fld	 DWORD PTR tv2901[ebp]
  008eb	dc 0d 00 00 00
	00		 fmul	 QWORD PTR __real@3f91df46a2526c7a
  008f1	d9 9d 8c 7f ff
	ff		 fstp	 DWORD PTR tv2898[ebp]
  008f7	d9 85 8c 7f ff
	ff		 fld	 DWORD PTR tv2898[ebp]
  008fd	e8 00 00 00 00	 call	 __CIcos
  00902	d9 9d 8c 7f ff
	ff		 fstp	 DWORD PTR tv2892[ebp]
  00908	f3 0f 10 85 78
	7f ff ff	 movss	 xmm0, DWORD PTR $T544543[ebp]
  00910	d9 85 8c 7f ff
	ff		 fld	 DWORD PTR tv2892[ebp]
  00916	0f 5a c0	 cvtps2pd xmm0, xmm0
  00919	d9 9d 40 7f ff
	ff		 fstp	 DWORD PTR _fHalfValue$544414[ebp]
  0091f	f2 0f 59 c0	 mulsd	 xmm0, xmm0
  00923	f2 0f 5a c0	 cvtsd2ss xmm0, xmm0
  00927	f3 0f 11 85 50
	7f ff ff	 movss	 DWORD PTR _fTargetRangeSq_max$544415[ebp], xmm0
  0092f	f3 0f 10 85 80
	7f ff ff	 movss	 xmm0, DWORD PTR $T544544[ebp]
  00937	0f 5a c0	 cvtps2pd xmm0, xmm0
  0093a	f2 0f 59 c0	 mulsd	 xmm0, xmm0
  0093e	f2 0f 5a c0	 cvtsd2ss xmm0, xmm0
  00942	8d 8d 54 7f ff
	ff		 lea	 ecx, DWORD PTR _szTarget$544419[ebp]
  00948	f3 0f 11 85 3c
	7f ff ff	 movss	 DWORD PTR _fTargetRangeSq_min$544416[ebp], xmm0
  00950	ff 15 00 00 00
	00		 call	 DWORD PTR __imp_??0ioHashString@@QAE@XZ
  00956	8b 46 2c	 mov	 eax, DWORD PTR [esi+44]
  00959	f3 0f 10 05 00
	00 00 00	 movss	 xmm0, DWORD PTR __real@bf800000
  00961	3b 46 30	 cmp	 eax, DWORD PTR [esi+48]
  00964	c7 45 fc 03 00
	00 00		 mov	 DWORD PTR __$EHRec$[ebp+8], 3
  0096b	f3 0f 11 85 88
	7f ff ff	 movss	 DWORD PTR _fCurGap$544420[ebp], xmm0
  00973	e9 70 03 00 00	 jmp	 $LN389@ProcessDel
$LL181@ProcessDel:
  00978	8b 30		 mov	 esi, DWORD PTR [eax]
  0097a	89 b5 44 7f ff
	ff		 mov	 DWORD PTR _pTarget$544424[ebp], esi
  00980	85 f6		 test	 esi, esi
  00982	0f 84 48 03 00
	00		 je	 $LN149@ProcessDel
  00988	8d 85 8c 7f ff
	ff		 lea	 eax, DWORD PTR _value$544499[ebp]
  0098e	8d 8e 90 00 00
	00		 lea	 ecx, DWORD PTR [esi+144]
  00994	50		 push	 eax
  00995	e8 00 00 00 00	 call	 ?DecryptValueToPool@?$CEncrypt@W4TeamType@@@@QAEXPAW4TeamType@@@Z ; CEncrypt<enum TeamType>::DecryptValueToPool
  0099a	8d 85 74 7f ff
	ff		 lea	 eax, DWORD PTR _value$544505[ebp]
  009a0	8d 8f 90 00 00
	00		 lea	 ecx, DWORD PTR [edi+144]
  009a6	50		 push	 eax
  009a7	e8 00 00 00 00	 call	 ?DecryptValueToPool@?$CEncrypt@W4TeamType@@@@QAEXPAW4TeamType@@@Z ; CEncrypt<enum TeamType>::DecryptValueToPool
  009ac	8b 85 8c 7f ff
	ff		 mov	 eax, DWORD PTR _value$544499[ebp]
  009b2	3b 85 74 7f ff
	ff		 cmp	 eax, DWORD PTR _value$544505[ebp]
  009b8	0f 84 12 03 00
	00		 je	 $LN149@ProcessDel
  009be	8d 83 cc 01 00
	00		 lea	 eax, DWORD PTR [ebx+460]
  009c4	8d 8e d4 02 00
	00		 lea	 ecx, DWORD PTR [esi+724]
  009ca	50		 push	 eax
  009cb	89 8d 84 7f ff
	ff		 mov	 DWORD PTR tv2573[ebp], ecx
  009d1	ff 15 00 00 00
	00		 call	 DWORD PTR __imp_??8ioHashString@@QBE_NABV0@@Z
  009d7	84 c0		 test	 al, al
  009d9	0f 85 f1 02 00
	00		 jne	 $LN149@ProcessDel
  009df	8d 85 78 7f ff
	ff		 lea	 eax, DWORD PTR _value$544516[ebp]
  009e5	8d 8e 94 1d 00
	00		 lea	 ecx, DWORD PTR [esi+7572]
  009eb	50		 push	 eax
  009ec	e8 00 00 00 00	 call	 ?DecryptValueToPool@?$CEncrypt@K@@QAEXPAK@Z ; CEncrypt<unsigned long>::DecryptValueToPool
  009f1	83 bd 78 7f ff
	ff 00		 cmp	 DWORD PTR _value$544516[ebp], 0
  009f8	0f 85 d2 02 00
	00		 jne	 $LN149@ProcessDel
  009fe	b8 05 00 00 00	 mov	 eax, 5
  00a03	8b c8		 mov	 ecx, eax
  00a05	b8 0a 00 00 00	 mov	 eax, 10			; 0000000aH
  00a0a	89 8d 80 7f ff
	ff		 mov	 DWORD PTR tv2874[ebp], ecx
  00a10	db 85 80 7f ff
	ff		 fild	 DWORD PTR tv2874[ebp]
  00a16	85 c9		 test	 ecx, ecx
  00a18	79 06		 jns	 SHORT $LN379@ProcessDel
  00a1a	d8 05 00 00 00
	00		 fadd	 DWORD PTR __real@4f800000
$LN379@ProcessDel:
  00a20	89 85 80 7f ff
	ff		 mov	 DWORD PTR tv2870[ebp], eax
  00a26	db 85 80 7f ff
	ff		 fild	 DWORD PTR tv2870[ebp]
  00a2c	85 c0		 test	 eax, eax
  00a2e	79 06		 jns	 SHORT $LN380@ProcessDel
  00a30	d8 05 00 00 00
	00		 fadd	 DWORD PTR __real@4f800000
$LN380@ProcessDel:
  00a36	de f9		 fdivp	 ST(1), ST(0)
  00a38	51		 push	 ecx
  00a39	8d 45 d8	 lea	 eax, DWORD PTR _vTargetPos$544429[ebp]
  00a3c	8b ce		 mov	 ecx, esi
  00a3e	d9 9d 80 7f ff
	ff		 fstp	 DWORD PTR tv2866[ebp]
  00a44	d9 85 80 7f ff
	ff		 fld	 DWORD PTR tv2866[ebp]
  00a4a	d9 1c 24	 fstp	 DWORD PTR [esp]
  00a4d	50		 push	 eax
  00a4e	e8 00 00 00 00	 call	 ?GetMidPositionByRate@ioGameEntity@@QBE?AUD3DXVECTOR3@@M@Z ; ioGameEntity::GetMidPositionByRate
  00a53	f3 0f 10 45 d8	 movss	 xmm0, DWORD PTR _vTargetPos$544429[ebp]
  00a58	f3 0f 10 4d e4	 movss	 xmm1, DWORD PTR _vCurPos$544411[ebp]
  00a5d	f3 0f 10 55 e8	 movss	 xmm2, DWORD PTR _vCurPos$544411[ebp+4]
  00a62	f3 0f 10 5d ec	 movss	 xmm3, DWORD PTR _vCurPos$544411[ebp+8]
  00a67	0f 5a c9	 cvtps2pd xmm1, xmm1
  00a6a	0f 5a c0	 cvtps2pd xmm0, xmm0
  00a6d	f2 0f 5c c1	 subsd	 xmm0, xmm1
  00a71	f3 0f 10 4d dc	 movss	 xmm1, DWORD PTR _vTargetPos$544429[ebp+4]
  00a76	0f 5a d2	 cvtps2pd xmm2, xmm2
  00a79	0f 5a c9	 cvtps2pd xmm1, xmm1
  00a7c	f2 0f 5c ca	 subsd	 xmm1, xmm2
  00a80	f3 0f 10 55 e0	 movss	 xmm2, DWORD PTR _vTargetPos$544429[ebp+8]
  00a85	f2 0f 5a c0	 cvtsd2ss xmm0, xmm0
  00a89	66 0f 5a c9	 cvtpd2ps xmm1, xmm1
  00a8d	0f 5a d2	 cvtps2pd xmm2, xmm2
  00a90	f3 0f 11 45 a8	 movss	 DWORD PTR $T544430[ebp], xmm0
  00a95	f3 0f 11 4d ac	 movss	 DWORD PTR $T544430[ebp+4], xmm1
  00a9a	0f 5a db	 cvtps2pd xmm3, xmm3
  00a9d	f2 0f 5c d3	 subsd	 xmm2, xmm3
  00aa1	f2 0f 5a d2	 cvtsd2ss xmm2, xmm2
  00aa5	f3 0f 5a c0	 cvtss2sd xmm0, xmm0
  00aa9	f3 0f 5a c9	 cvtss2sd xmm1, xmm1
  00aad	f2 0f 59 c0	 mulsd	 xmm0, xmm0
  00ab1	f3 0f 11 55 b0	 movss	 DWORD PTR $T544430[ebp+8], xmm2
  00ab6	f2 0f 59 c9	 mulsd	 xmm1, xmm1
  00aba	f2 0f 58 c8	 addsd	 xmm1, xmm0
  00abe	f3 0f 5a d2	 cvtss2sd xmm2, xmm2
  00ac2	f2 0f 59 d2	 mulsd	 xmm2, xmm2
  00ac6	0f 57 c0	 xorps	 xmm0, xmm0
  00ac9	f2 0f 58 ca	 addsd	 xmm1, xmm2
  00acd	66 0f 5a c1	 cvtpd2ps xmm0, xmm1
  00ad1	f3 0f 11 85 38
	7f ff ff	 movss	 DWORD PTR _fDiffRangeSq$544431[ebp], xmm0
  00ad9	f3 0f 10 85 64
	7f ff ff	 movss	 xmm0, DWORD PTR _fCurAngle$544413[ebp]
  00ae1	0f 2e 05 00 00
	00 00		 ucomiss xmm0, DWORD PTR __real@00000000
  00ae8	9f		 lahf
  00ae9	f6 c4 44	 test	 ah, 68			; 00000044H
  00aec	0f 8b cb 00 00
	00		 jnp	 $LN142@ProcessDel
  00af2	8b 03		 mov	 eax, DWORD PTR [ebx]
  00af4	8b cb		 mov	 ecx, ebx
  00af6	ff 50 74	 call	 DWORD PTR [eax+116]
  00af9	0f 57 c0	 xorps	 xmm0, xmm0
  00afc	8b f0		 mov	 esi, eax
  00afe	8d bd ec 7e ff
	ff		 lea	 edi, DWORD PTR _qtRot$544433[ebp]
  00b04	a5		 movsd
  00b05	a5		 movsd
  00b06	8d 45 b4	 lea	 eax, DWORD PTR $T544435[ebp]
  00b09	50		 push	 eax
  00b0a	8d 85 ec 7e ff
	ff		 lea	 eax, DWORD PTR _qtRot$544433[ebp]
  00b10	a5		 movsd
  00b11	50		 push	 eax
  00b12	8d 45 c0	 lea	 eax, DWORD PTR _vDir$544434[ebp]
  00b15	f3 0f 11 45 b4	 movss	 DWORD PTR $T544435[ebp], xmm0
  00b1a	f3 0f 11 45 b8	 movss	 DWORD PTR $T544435[ebp+4], xmm0
  00b1f	f3 0f 10 05 00
	00 00 00	 movss	 xmm0, DWORD PTR __real@bf800000
  00b27	50		 push	 eax
  00b28	a5		 movsd
  00b29	f3 0f 11 45 bc	 movss	 DWORD PTR $T544435[ebp+8], xmm0
  00b2e	ff 15 00 00 00
	00		 call	 DWORD PTR __imp_??D@YA?AUD3DXVECTOR3@@ABUD3DXQUATERNION@@ABU0@@Z
  00b34	83 c4 0c	 add	 esp, 12			; 0000000cH
  00b37	8d 45 c0	 lea	 eax, DWORD PTR _vDir$544434[ebp]
  00b3a	50		 push	 eax
  00b3b	50		 push	 eax
  00b3c	e8 00 00 00 00	 call	 _D3DXVec3Normalize@8
  00b41	0f 57 c0	 xorps	 xmm0, xmm0
  00b44	8d 75 a8	 lea	 esi, DWORD PTR $T544430[ebp]
  00b47	8d 7d cc	 lea	 edi, DWORD PTR _vDiff2$544436[ebp]
  00b4a	a5		 movsd
  00b4b	a5		 movsd
  00b4c	8d 45 cc	 lea	 eax, DWORD PTR _vDiff2$544436[ebp]
  00b4f	50		 push	 eax
  00b50	a5		 movsd
  00b51	50		 push	 eax
  00b52	f3 0f 11 45 d0	 movss	 DWORD PTR _vDiff2$544436[ebp+4], xmm0
  00b57	e8 00 00 00 00	 call	 _D3DXVec3Normalize@8
  00b5c	f3 0f 10 4d cc	 movss	 xmm1, DWORD PTR _vDiff2$544436[ebp]
  00b61	f3 0f 10 45 c0	 movss	 xmm0, DWORD PTR _vDir$544434[ebp]
  00b66	f3 0f 10 55 d0	 movss	 xmm2, DWORD PTR _vDiff2$544436[ebp+4]
  00b6b	0f 5a c9	 cvtps2pd xmm1, xmm1
  00b6e	0f 5a c0	 cvtps2pd xmm0, xmm0
  00b71	f2 0f 59 c1	 mulsd	 xmm0, xmm1
  00b75	f3 0f 10 4d c4	 movss	 xmm1, DWORD PTR _vDir$544434[ebp+4]
  00b7a	0f 5a c9	 cvtps2pd xmm1, xmm1
  00b7d	0f 5a d2	 cvtps2pd xmm2, xmm2
  00b80	f2 0f 59 ca	 mulsd	 xmm1, xmm2
  00b84	f3 0f 10 55 d4	 movss	 xmm2, DWORD PTR _vDiff2$544436[ebp+8]
  00b89	f2 0f 58 c1	 addsd	 xmm0, xmm1
  00b8d	f3 0f 10 4d c8	 movss	 xmm1, DWORD PTR _vDir$544434[ebp+8]
  00b92	0f 5a c9	 cvtps2pd xmm1, xmm1
  00b95	0f 5a d2	 cvtps2pd xmm2, xmm2
  00b98	f2 0f 59 ca	 mulsd	 xmm1, xmm2
  00b9c	f2 0f 58 c1	 addsd	 xmm0, xmm1
  00ba0	f3 0f 10 8d 40
	7f ff ff	 movss	 xmm1, DWORD PTR _fHalfValue$544414[ebp]
  00ba8	66 0f 5a c0	 cvtpd2ps xmm0, xmm0
  00bac	f3 0f 5a c0	 cvtss2sd xmm0, xmm0
  00bb0	0f 5a c9	 cvtps2pd xmm1, xmm1
  00bb3	66 0f 2f c8	 comisd	 xmm1, xmm0
  00bb7	0f 87 13 01 00
	00		 ja	 $LN149@ProcessDel
$LN142@ProcessDel:
  00bbd	0f 57 c0	 xorps	 xmm0, xmm0
  00bc0	8b 8d 68 7f ff
	ff		 mov	 ecx, DWORD PTR _pStage$544408[ebp]
  00bc6	83 ec 0c	 sub	 esp, 12			; 0000000cH
  00bc9	f3 0f 11 44 24
	08		 movss	 DWORD PTR [esp+8], xmm0
  00bcf	f3 0f 10 45 e0	 movss	 xmm0, DWORD PTR _vTargetPos$544429[ebp+8]
  00bd4	f3 0f 11 44 24
	04		 movss	 DWORD PTR [esp+4], xmm0
  00bda	f3 0f 10 45 d8	 movss	 xmm0, DWORD PTR _vTargetPos$544429[ebp]
  00bdf	f3 0f 11 04 24	 movss	 DWORD PTR [esp], xmm0
  00be4	e8 00 00 00 00	 call	 ?GetMapHeightOnlyTerrain@ioPlayStage@@QAEMMMM@Z ; ioPlayStage::GetMapHeightOnlyTerrain
  00be9	d9 9d 80 7f ff
	ff		 fstp	 DWORD PTR _fHeight$544439[ebp]
  00bef	8b 8d 44 7f ff
	ff		 mov	 ecx, DWORD PTR _pTarget$544424[ebp]
  00bf5	8b 01		 mov	 eax, DWORD PTR [ecx]
  00bf7	ff 50 70	 call	 DWORD PTR [eax+112]
  00bfa	f3 0f 10 8d 80
	7f ff ff	 movss	 xmm1, DWORD PTR _fHeight$544439[ebp]
  00c02	f3 0f 10 40 04	 movss	 xmm0, DWORD PTR [eax+4]
  00c07	f3 0f 10 95 48
	7f ff ff	 movss	 xmm2, DWORD PTR $T544541[ebp]
  00c0f	0f 5a c0	 cvtps2pd xmm0, xmm0
  00c12	0f 5a c9	 cvtps2pd xmm1, xmm1
  00c15	f2 0f 5c c1	 subsd	 xmm0, xmm1
  00c19	66 0f 5a c0	 cvtpd2ps xmm0, xmm0
  00c1d	f3 0f 5a c0	 cvtss2sd xmm0, xmm0
  00c21	66 0f 54 05 00
	00 00 00	 andpd	 xmm0, QWORD PTR __mask@@AbsDouble@
  00c29	f2 0f 5a c0	 cvtsd2ss xmm0, xmm0
  00c2d	0f 57 c9	 xorps	 xmm1, xmm1
  00c30	f3 0f 5a c8	 cvtss2sd xmm1, xmm0
  00c34	0f 5a d2	 cvtps2pd xmm2, xmm2
  00c37	66 0f 2f d1	 comisd	 xmm2, xmm1
  00c3b	0f 87 8f 00 00
	00		 ja	 $LN149@ProcessDel
  00c41	f3 0f 10 8d 6c
	7f ff ff	 movss	 xmm1, DWORD PTR $T544540[ebp]
  00c49	f3 0f 5a c0	 cvtss2sd xmm0, xmm0
  00c4d	0f 5a c9	 cvtps2pd xmm1, xmm1
  00c50	66 0f 2f c1	 comisd	 xmm0, xmm1
  00c54	77 7a		 ja	 SHORT $LN149@ProcessDel
  00c56	f3 0f 10 8d 38
	7f ff ff	 movss	 xmm1, DWORD PTR _fDiffRangeSq$544431[ebp]
  00c5e	f3 0f 10 95 3c
	7f ff ff	 movss	 xmm2, DWORD PTR _fTargetRangeSq_min$544416[ebp]
  00c66	0f 5a c1	 cvtps2pd xmm0, xmm1
  00c69	0f 5a d2	 cvtps2pd xmm2, xmm2
  00c6c	66 0f 2f c2	 comisd	 xmm0, xmm2
  00c70	76 5e		 jbe	 SHORT $LN149@ProcessDel
  00c72	f3 0f 10 95 50
	7f ff ff	 movss	 xmm2, DWORD PTR _fTargetRangeSq_max$544415[ebp]
  00c7a	0f 57 c0	 xorps	 xmm0, xmm0
  00c7d	0f 5a c1	 cvtps2pd xmm0, xmm1
  00c80	0f 5a d2	 cvtps2pd xmm2, xmm2
  00c83	66 0f 2f d0	 comisd	 xmm2, xmm0
  00c87	76 47		 jbe	 SHORT $LN149@ProcessDel
  00c89	f3 0f 10 85 88
	7f ff ff	 movss	 xmm0, DWORD PTR _fCurGap$544420[ebp]
  00c91	0f 2e 05 00 00
	00 00		 ucomiss xmm0, DWORD PTR __real@bf800000
  00c98	9f		 lahf
  00c99	f6 c4 44	 test	 ah, 68			; 00000044H
  00c9c	7b 18		 jnp	 SHORT $LN386@ProcessDel
  00c9e	0f 2f 05 00 00
	00 00		 comiss	 xmm0, DWORD PTR __real@00000000
  00ca5	72 29		 jb	 SHORT $LN149@ProcessDel
  00ca7	0f 57 d2	 xorps	 xmm2, xmm2
  00caa	0f 5a d1	 cvtps2pd xmm2, xmm1
  00cad	0f 5a c0	 cvtps2pd xmm0, xmm0
  00cb0	66 0f 2f c2	 comisd	 xmm0, xmm2
  00cb4	76 1a		 jbe	 SHORT $LN149@ProcessDel
$LN386@ProcessDel:
  00cb6	ff b5 84 7f ff
	ff		 push	 DWORD PTR tv2573[ebp]
  00cbc	8d 8b 00 15 00
	00		 lea	 ecx, DWORD PTR [ebx+5376]
  00cc2	f3 0f 11 8d 88
	7f ff ff	 movss	 DWORD PTR _fCurGap$544420[ebp], xmm1
  00cca	ff 15 00 00 00
	00		 call	 DWORD PTR __imp_??4ioHashString@@QAEAAV0@ABV0@@Z
$LN149@ProcessDel:
  00cd0	8b 85 7c 7f ff
	ff		 mov	 eax, DWORD PTR _iter$544418[ebp]
  00cd6	8b 8d 68 7f ff
	ff		 mov	 ecx, DWORD PTR _pStage$544408[ebp]
  00cdc	8b bd 4c 7f ff
	ff		 mov	 edi, DWORD PTR _pOwner$[ebp]
  00ce2	83 c0 04	 add	 eax, 4
  00ce5	3b 41 30	 cmp	 eax, DWORD PTR [ecx+48]
$LN389@ProcessDel:
  00ce8	89 85 7c 7f ff
	ff		 mov	 DWORD PTR _iter$544418[ebp], eax
  00cee	0f 85 84 fc ff
	ff		 jne	 $LL181@ProcessDel
  00cf4	8d 8b 00 15 00
	00		 lea	 ecx, DWORD PTR [ebx+5376]
  00cfa	ff 15 00 00 00
	00		 call	 DWORD PTR __imp_?IsEmpty@ioHashString@@QBE_NXZ
  00d00	83 4d fc ff	 or	 DWORD PTR __$EHRec$[ebp+8], -1
  00d04	8d 8d 54 7f ff
	ff		 lea	 ecx, DWORD PTR _szTarget$544419[ebp]
  00d0a	84 c0		 test	 al, al
  00d0c	0f 85 07 02 00
	00		 jne	 $LN135@ProcessDel
  00d12	ff 15 00 00 00
	00		 call	 DWORD PTR __imp_??1ioHashString@@QAE@XZ

; 406  : 		{
; 407  : 			DummyTT13AttackInfo info;

  00d18	8d 8d fc 7e ff
	ff		 lea	 ecx, DWORD PTR _info$532529[ebp]
  00d1e	e8 00 00 00 00	 call	 ??0DummyTT13AttackInfo@@QAE@XZ ; DummyTT13AttackInfo::DummyTT13AttackInfo

; 408  : 			for( int i = 0; i < (int)m_vAttackFire2Info.size(); i++ )

  00d23	8b 83 94 14 00
	00		 mov	 eax, DWORD PTR [ebx+5268]
  00d29	2b 83 90 14 00
	00		 sub	 eax, DWORD PTR [ebx+5264]
  00d2f	6a 3c		 push	 60			; 0000003cH
  00d31	99		 cdq
  00d32	59		 pop	 ecx
  00d33	f7 f9		 idiv	 ecx
  00d35	83 a5 88 7f ff
	ff 00		 and	 DWORD PTR _i$532530[ebp], 0
  00d3c	c7 45 fc 04 00
	00 00		 mov	 DWORD PTR __$EHRec$[ebp+8], 4
  00d43	85 c0		 test	 eax, eax
  00d45	0f 8e fe 00 00
	00		 jle	 $LN8@ProcessDel

; 406  : 		{
; 407  : 			DummyTT13AttackInfo info;

  00d4b	33 f6		 xor	 esi, esi
$LL10@ProcessDel:

; 409  : 			{
; 410  : 				info = m_vAttackFire2Info[i];

  00d4d	8b 83 90 14 00
	00		 mov	 eax, DWORD PTR [ebx+5264]
  00d53	03 c6		 add	 eax, esi
  00d55	50		 push	 eax
  00d56	8d 8d fc 7e ff
	ff		 lea	 ecx, DWORD PTR _info$532529[ebp]
  00d5c	e8 00 00 00 00	 call	 ??4DummyTT13AttackInfo@@QAEAAU0@ABU0@@Z

; 411  : 				info.m_dwFireTime += dwCurTime;

  00d61	8b 85 70 7f ff
	ff		 mov	 eax, DWORD PTR _dwCurTime$[ebp]
  00d67	01 85 00 7f ff
	ff		 add	 DWORD PTR _info$532529[ebp+4], eax

; 412  : 				
; 413  : 				info.m_stTargetName = m_szFindTarget;

  00d6d	8d 83 00 15 00
	00		 lea	 eax, DWORD PTR [ebx+5376]
  00d73	50		 push	 eax
  00d74	8d 8d 04 7f ff
	ff		 lea	 ecx, DWORD PTR _info$532529[ebp+8]
  00d7a	ff 15 00 00 00
	00		 call	 DWORD PTR __imp_??4ioHashString@@QAEAAV0@ABV0@@Z

; 414  : 				info.m_fAngle = m_fFind_2_Angle;

  00d80	f3 0f 10 83 34
	15 00 00	 movss	 xmm0, DWORD PTR [ebx+5428]
  00d88	f3 0f 11 85 1c
	7f ff ff	 movss	 DWORD PTR _info$532529[ebp+32], xmm0

; 415  : 				info.m_fHeightMax = m_fFind_2_Height_max;

  00d90	f3 0f 10 83 44
	15 00 00	 movss	 xmm0, DWORD PTR [ebx+5444]
  00d98	f3 0f 11 85 24
	7f ff ff	 movss	 DWORD PTR _info$532529[ebp+40], xmm0

; 416  : 				info.m_fHeightMin = m_fFind_2_Height_min;

  00da0	f3 0f 10 83 40
	15 00 00	 movss	 xmm0, DWORD PTR [ebx+5440]
  00da8	f3 0f 11 85 20
	7f ff ff	 movss	 DWORD PTR _info$532529[ebp+36], xmm0

; 417  : 				info.m_fRangeMax = m_fFind_2_Range_max;

  00db0	f3 0f 10 83 3c
	15 00 00	 movss	 xmm0, DWORD PTR [ebx+5436]
  00db8	f3 0f 11 85 18
	7f ff ff	 movss	 DWORD PTR _info$532529[ebp+28], xmm0

; 418  : 				info.m_fRangeMin = m_fFind_2_Range_min;

  00dc0	f3 0f 10 83 38
	15 00 00	 movss	 xmm0, DWORD PTR [ebx+5432]
  00dc8	f3 0f 11 85 14
	7f ff ff	 movss	 DWORD PTR _info$532529[ebp+24], xmm0

; 419  : 
; 420  : 				info.m_fWeaponLookOffSet = m_fWeapon_2_LookOffSet;

  00dd0	f3 0f 10 83 48
	15 00 00	 movss	 xmm0, DWORD PTR [ebx+5448]
  00dd8	f3 0f 11 85 28
	7f ff ff	 movss	 DWORD PTR _info$532529[ebp+44], xmm0

; 421  : 				info.m_fWeaponHeighOffSet = m_fWeapon_2_height_OffSet;

  00de0	f3 0f 10 83 4c
	15 00 00	 movss	 xmm0, DWORD PTR [ebx+5452]
  00de8	f3 0f 11 85 2c
	7f ff ff	 movss	 DWORD PTR _info$532529[ebp+48], xmm0

; 422  : 				info.m_fWeaponSideOffSet = m_fWeapon_2_Side_OffSet;

  00df0	f3 0f 10 83 50
	15 00 00	 movss	 xmm0, DWORD PTR [ebx+5456]

; 423  : 
; 424  : 				info.m_fTargetShootOffHeight = m_fTarget_2_ShootOffHeight;
; 425  : 
; 426  : 				m_vAttackFireReserveInfo.push_back( info );

  00df8	8d 85 fc 7e ff
	ff		 lea	 eax, DWORD PTR _info$532529[ebp]
  00dfe	f3 0f 11 85 30
	7f ff ff	 movss	 DWORD PTR _info$532529[ebp+52], xmm0
  00e06	f3 0f 10 83 54
	15 00 00	 movss	 xmm0, DWORD PTR [ebx+5460]
  00e0e	50		 push	 eax
  00e0f	8d 8b b0 14 00
	00		 lea	 ecx, DWORD PTR [ebx+5296]
  00e15	f3 0f 11 85 34
	7f ff ff	 movss	 DWORD PTR _info$532529[ebp+56], xmm0
  00e1d	e8 00 00 00 00	 call	 ?push_back@?$vector@UDummyTT13AttackInfo@@V?$allocator@UDummyTT13AttackInfo@@@std@@@std@@QAEXABUDummyTT13AttackInfo@@@Z ; std::vector<DummyTT13AttackInfo,std::allocator<DummyTT13AttackInfo> >::push_back
  00e22	8b 83 94 14 00
	00		 mov	 eax, DWORD PTR [ebx+5268]
  00e28	2b 83 90 14 00
	00		 sub	 eax, DWORD PTR [ebx+5264]
  00e2e	6a 3c		 push	 60			; 0000003cH
  00e30	99		 cdq
  00e31	59		 pop	 ecx
  00e32	f7 f9		 idiv	 ecx
  00e34	ff 85 88 7f ff
	ff		 inc	 DWORD PTR _i$532530[ebp]
  00e3a	83 c6 3c	 add	 esi, 60			; 0000003cH
  00e3d	39 85 88 7f ff
	ff		 cmp	 DWORD PTR _i$532530[ebp], eax
  00e43	0f 8c 04 ff ff
	ff		 jl	 $LL10@ProcessDel
$LN8@ProcessDel:

; 427  : 			}
; 428  : 
; 429  : 			if( pOwner->IsNeedSendNetwork() )

  00e49	8b 07		 mov	 eax, DWORD PTR [edi]
  00e4b	8b cf		 mov	 ecx, edi
  00e4d	ff 90 04 01 00
	00		 call	 DWORD PTR [eax+260]
  00e53	84 c0		 test	 al, al
  00e55	0f 84 a8 00 00
	00		 je	 $LN7@ProcessDel

; 430  : 			{
; 431  : 				SP2Packet kPacket( CUPK_DUMMY_CHAR_SYNC );

  00e5b	68 21 42 00 00	 push	 16929			; 00004221H
  00e60	8d 8d 90 7f ff
	ff		 lea	 ecx, DWORD PTR _kPacket$532536[ebp]
  00e66	e8 00 00 00 00	 call	 ??0SP2Packet@@QAE@K@Z	; SP2Packet::SP2Packet

; 432  : 				kPacket << m_OwnerName;

  00e6b	8d 83 cc 01 00
	00		 lea	 eax, DWORD PTR [ebx+460]
  00e71	50		 push	 eax
  00e72	8d 8d 90 7f ff
	ff		 lea	 ecx, DWORD PTR _kPacket$532536[ebp]
  00e78	c6 45 fc 05	 mov	 BYTE PTR __$EHRec$[ebp+8], 5
  00e7c	e8 00 00 00 00	 call	 ??6SP2Packet@@QAEAAV0@ABVioHashString@@@Z ; SP2Packet::operator<<

; 433  : 				kPacket << m_iCreateIndex;

  00e81	ff b3 dc 01 00
	00		 push	 DWORD PTR [ebx+476]
  00e87	8d 8d 90 7f ff
	ff		 lea	 ecx, DWORD PTR _kPacket$532536[ebp]
  00e8d	e8 00 00 00 00	 call	 ??6SP2Packet@@QAEAAV0@H@Z ; SP2Packet::operator<<

; 434  : 				kPacket << DUMMY_CHAR_STRIDER_SD_SYNC;

  00e92	6a 12		 push	 18			; 00000012H
  00e94	8d 8d 90 7f ff
	ff		 lea	 ecx, DWORD PTR _kPacket$532536[ebp]
  00e9a	e8 00 00 00 00	 call	 ??6SP2Packet@@QAEAAV0@H@Z ; SP2Packet::operator<<

; 435  : 				kPacket	<< 2;

  00e9f	6a 02		 push	 2
  00ea1	8d 8d 90 7f ff
	ff		 lea	 ecx, DWORD PTR _kPacket$532536[ebp]
  00ea7	e8 00 00 00 00	 call	 ??6SP2Packet@@QAEAAV0@H@Z ; SP2Packet::operator<<

; 436  : 				kPacket << m_szFindTarget;

  00eac	8d 83 00 15 00
	00		 lea	 eax, DWORD PTR [ebx+5376]
  00eb2	50		 push	 eax
  00eb3	8d 8d 90 7f ff
	ff		 lea	 ecx, DWORD PTR _kPacket$532536[ebp]
  00eb9	e8 00 00 00 00	 call	 ??6SP2Packet@@QAEAAV0@ABVioHashString@@@Z ; SP2Packet::operator<<

; 437  : 				kPacket << GetWorldPosition();

  00ebe	8b 03		 mov	 eax, DWORD PTR [ebx]
  00ec0	8b cb		 mov	 ecx, ebx
  00ec2	ff 50 70	 call	 DWORD PTR [eax+112]
  00ec5	50		 push	 eax
  00ec6	8d 8d 90 7f ff
	ff		 lea	 ecx, DWORD PTR _kPacket$532536[ebp]
  00ecc	e8 00 00 00 00	 call	 ??6SP2Packet@@QAEAAV0@ABUD3DXVECTOR3@@@Z ; SP2Packet::operator<<

; 438  : 				kPacket << GetWorldOrientation();

  00ed1	8b 03		 mov	 eax, DWORD PTR [ebx]
  00ed3	8b cb		 mov	 ecx, ebx
  00ed5	ff 50 74	 call	 DWORD PTR [eax+116]
  00ed8	50		 push	 eax
  00ed9	8d 8d 90 7f ff
	ff		 lea	 ecx, DWORD PTR _kPacket$532536[ebp]
  00edf	e8 00 00 00 00	 call	 ??6SP2Packet@@QAEAAV0@ABUD3DXQUATERNION@@@Z ; SP2Packet::operator<<

; 439  : 				P2PNetwork::SendToAllPlayingUser( kPacket );

  00ee4	8d 85 90 7f ff
	ff		 lea	 eax, DWORD PTR _kPacket$532536[ebp]
  00eea	6a 00		 push	 0
  00eec	50		 push	 eax
  00eed	e8 00 00 00 00	 call	 ?SendToAllPlayingUser@P2PNetwork@@YAXAAVSP2Packet@@PAVioBaseChar@@@Z ; P2PNetwork::SendToAllPlayingUser
  00ef2	59		 pop	 ecx
  00ef3	59		 pop	 ecx

; 440  : 			}

  00ef4	8d 8d 90 7f ff
	ff		 lea	 ecx, DWORD PTR _kPacket$532536[ebp]
  00efa	c6 45 fc 04	 mov	 BYTE PTR __$EHRec$[ebp+8], 4
  00efe	e8 00 00 00 00	 call	 ??1SP2Packet@@UAE@XZ	; SP2Packet::~SP2Packet
$LN7@ProcessDel:

; 441  : 
; 442  : 			m_dwAttack2FiredTime = dwCurTime;

  00f03	8b 85 70 7f ff
	ff		 mov	 eax, DWORD PTR _dwCurTime$[ebp]

; 443  : 		}	

  00f09	83 4d fc ff	 or	 DWORD PTR __$EHRec$[ebp+8], -1
  00f0d	89 83 ec 14 00
	00		 mov	 DWORD PTR [ebx+5356], eax
  00f13	8d 8d 04 7f ff
	ff		 lea	 ecx, DWORD PTR _info$532529[ebp+8]
$LN135@ProcessDel:
  00f19	ff 15 00 00 00
	00		 call	 DWORD PTR __imp_??1ioHashString@@QAE@XZ
$LN11@ProcessDel:

; 444  : 	}
; 445  : 
; 446  : 	if( (m_dwAttack3FiredTime + m_dwAttack3FireGapTime) < dwCurTime )

  00f1f	8b 83 fc 14 00
	00		 mov	 eax, DWORD PTR [ebx+5372]
  00f25	03 83 f0 14 00
	00		 add	 eax, DWORD PTR [ebx+5360]
  00f2b	3b 85 70 7f ff
	ff		 cmp	 eax, DWORD PTR _dwCurTime$[ebp]
  00f31	0f 83 48 07 00
	00		 jae	 $LN5@ProcessDel

; 447  : 	{
; 448  : 		if( FindTarget( pOwner, m_fFind_3_Range_min, m_fFind_3_Range_max, m_fFind_3_Angle, m_fFind_3_Height_min, m_fFind_3_Height_max ) )

  00f37	f3 0f 10 83 5c
	15 00 00	 movss	 xmm0, DWORD PTR [ebx+5468]
  00f3f	8b b7 44 03 00
	00		 mov	 esi, DWORD PTR [edi+836]
  00f45	f3 0f 11 85 80
	7f ff ff	 movss	 DWORD PTR $T544876[ebp], xmm0
  00f4d	f3 0f 10 83 60
	15 00 00	 movss	 xmm0, DWORD PTR [ebx+5472]
  00f55	f3 0f 11 85 78
	7f ff ff	 movss	 DWORD PTR $T544875[ebp], xmm0
  00f5d	f3 0f 10 83 58
	15 00 00	 movss	 xmm0, DWORD PTR [ebx+5464]
  00f65	f3 0f 11 85 74
	7f ff ff	 movss	 DWORD PTR $T544874[ebp], xmm0
  00f6d	f3 0f 10 83 64
	15 00 00	 movss	 xmm0, DWORD PTR [ebx+5476]
  00f75	f3 0f 11 85 48
	7f ff ff	 movss	 DWORD PTR $T544873[ebp], xmm0
  00f7d	f3 0f 10 83 68
	15 00 00	 movss	 xmm0, DWORD PTR [ebx+5480]
  00f85	f3 0f 11 85 6c
	7f ff ff	 movss	 DWORD PTR $T544872[ebp], xmm0
  00f8d	89 b5 68 7f ff
	ff		 mov	 DWORD PTR _pStage$544740[ebp], esi
  00f93	85 f6		 test	 esi, esi
  00f95	0f 84 e4 06 00
	00		 je	 $LN5@ProcessDel
  00f9b	8d 85 8c 7f ff
	ff		 lea	 eax, DWORD PTR _value$544791[ebp]
  00fa1	8d 8f 94 1d 00
	00		 lea	 ecx, DWORD PTR [edi+7572]
  00fa7	50		 push	 eax
  00fa8	e8 00 00 00 00	 call	 ?DecryptValueToPool@?$CEncrypt@K@@QAEXPAK@Z ; CEncrypt<unsigned long>::DecryptValueToPool
  00fad	83 bd 8c 7f ff
	ff 00		 cmp	 DWORD PTR _value$544791[ebp], 0
  00fb4	0f 85 c5 06 00
	00		 jne	 $LN5@ProcessDel
  00fba	8d 8b 00 15 00
	00		 lea	 ecx, DWORD PTR [ebx+5376]
  00fc0	ff 15 00 00 00
	00		 call	 DWORD PTR __imp_?Clear@ioHashString@@QAEXXZ
  00fc6	b8 05 00 00 00	 mov	 eax, 5
  00fcb	8b c8		 mov	 ecx, eax
  00fcd	b8 0a 00 00 00	 mov	 eax, 10			; 0000000aH
  00fd2	89 8d 8c 7f ff
	ff		 mov	 DWORD PTR tv2726[ebp], ecx
  00fd8	db 85 8c 7f ff
	ff		 fild	 DWORD PTR tv2726[ebp]
  00fde	85 c9		 test	 ecx, ecx
  00fe0	79 06		 jns	 SHORT $LN381@ProcessDel
  00fe2	d8 05 00 00 00
	00		 fadd	 DWORD PTR __real@4f800000
$LN381@ProcessDel:
  00fe8	89 85 8c 7f ff
	ff		 mov	 DWORD PTR tv2722[ebp], eax
  00fee	db 85 8c 7f ff
	ff		 fild	 DWORD PTR tv2722[ebp]
  00ff4	85 c0		 test	 eax, eax
  00ff6	79 06		 jns	 SHORT $LN382@ProcessDel
  00ff8	d8 05 00 00 00
	00		 fadd	 DWORD PTR __real@4f800000
$LN382@ProcessDel:
  00ffe	de f9		 fdivp	 ST(1), ST(0)
  01000	51		 push	 ecx
  01001	8d 45 e4	 lea	 eax, DWORD PTR _vCurPos$544743[ebp]
  01004	8b cf		 mov	 ecx, edi
  01006	d9 9d 8c 7f ff
	ff		 fstp	 DWORD PTR tv2718[ebp]
  0100c	d9 85 8c 7f ff
	ff		 fld	 DWORD PTR tv2718[ebp]
  01012	d9 1c 24	 fstp	 DWORD PTR [esp]
  01015	50		 push	 eax
  01016	e8 00 00 00 00	 call	 ?GetMidPositionByRate@ioGameEntity@@QBE?AUD3DXVECTOR3@@M@Z ; ioGameEntity::GetMidPositionByRate
  0101b	f3 0f 10 85 74
	7f ff ff	 movss	 xmm0, DWORD PTR $T544874[ebp]
  01023	51		 push	 ecx
  01024	f3 0f 11 04 24	 movss	 DWORD PTR [esp], xmm0
  01029	ff 15 00 00 00
	00		 call	 DWORD PTR __imp_?ArrangeHead@ioMath@@SAMM@Z
  0102f	d9 9d 64 7f ff
	ff		 fstp	 DWORD PTR _fCurAngle$544745[ebp]
  01035	d9 85 64 7f ff
	ff		 fld	 DWORD PTR _fCurAngle$544745[ebp]
  0103b	59		 pop	 ecx
  0103c	dc 0d 00 00 00
	00		 fmul	 QWORD PTR __real@3fe0000000000000
  01042	d9 9d 8c 7f ff
	ff		 fstp	 DWORD PTR tv2710[ebp]
  01048	d9 85 8c 7f ff
	ff		 fld	 DWORD PTR tv2710[ebp]
  0104e	dc 0d 00 00 00
	00		 fmul	 QWORD PTR __real@3f91df46a2526c7a
  01054	d9 9d 8c 7f ff
	ff		 fstp	 DWORD PTR tv2706[ebp]
  0105a	d9 85 8c 7f ff
	ff		 fld	 DWORD PTR tv2706[ebp]
  01060	e8 00 00 00 00	 call	 __CIcos
  01065	d9 9d 8c 7f ff
	ff		 fstp	 DWORD PTR tv2697[ebp]
  0106b	f3 0f 10 85 78
	7f ff ff	 movss	 xmm0, DWORD PTR $T544875[ebp]
  01073	d9 85 8c 7f ff
	ff		 fld	 DWORD PTR tv2697[ebp]
  01079	0f 5a c0	 cvtps2pd xmm0, xmm0
  0107c	d9 9d 40 7f ff
	ff		 fstp	 DWORD PTR _fHalfValue$544746[ebp]
  01082	f2 0f 59 c0	 mulsd	 xmm0, xmm0
  01086	f2 0f 5a c0	 cvtsd2ss xmm0, xmm0
  0108a	f3 0f 11 85 50
	7f ff ff	 movss	 DWORD PTR _fTargetRangeSq_max$544747[ebp], xmm0
  01092	f3 0f 10 85 80
	7f ff ff	 movss	 xmm0, DWORD PTR $T544876[ebp]
  0109a	0f 5a c0	 cvtps2pd xmm0, xmm0
  0109d	f2 0f 59 c0	 mulsd	 xmm0, xmm0
  010a1	f2 0f 5a c0	 cvtsd2ss xmm0, xmm0
  010a5	8d 8d 54 7f ff
	ff		 lea	 ecx, DWORD PTR _szTarget$544751[ebp]
  010ab	f3 0f 11 85 3c
	7f ff ff	 movss	 DWORD PTR _fTargetRangeSq_min$544748[ebp], xmm0
  010b3	ff 15 00 00 00
	00		 call	 DWORD PTR __imp_??0ioHashString@@QAE@XZ
  010b9	8b 46 2c	 mov	 eax, DWORD PTR [esi+44]
  010bc	f3 0f 10 05 00
	00 00 00	 movss	 xmm0, DWORD PTR __real@bf800000
  010c4	3b 46 30	 cmp	 eax, DWORD PTR [esi+48]
  010c7	c7 45 fc 06 00
	00 00		 mov	 DWORD PTR __$EHRec$[ebp+8], 6
  010ce	f3 0f 11 85 88
	7f ff ff	 movss	 DWORD PTR _fCurGap$544752[ebp], xmm0
  010d6	e9 6d 03 00 00	 jmp	 $LN390@ProcessDel
$LL288@ProcessDel:
  010db	8b 30		 mov	 esi, DWORD PTR [eax]
  010dd	89 b5 44 7f ff
	ff		 mov	 DWORD PTR _pTarget$544756[ebp], esi
  010e3	85 f6		 test	 esi, esi
  010e5	0f 84 45 03 00
	00		 je	 $LN256@ProcessDel
  010eb	8d 85 8c 7f ff
	ff		 lea	 eax, DWORD PTR _value$544831[ebp]
  010f1	8d 8e 90 00 00
	00		 lea	 ecx, DWORD PTR [esi+144]
  010f7	50		 push	 eax
  010f8	e8 00 00 00 00	 call	 ?DecryptValueToPool@?$CEncrypt@W4TeamType@@@@QAEXPAW4TeamType@@@Z ; CEncrypt<enum TeamType>::DecryptValueToPool
  010fd	8d 85 74 7f ff
	ff		 lea	 eax, DWORD PTR _value$544837[ebp]
  01103	8d 8f 90 00 00
	00		 lea	 ecx, DWORD PTR [edi+144]
  01109	50		 push	 eax
  0110a	e8 00 00 00 00	 call	 ?DecryptValueToPool@?$CEncrypt@W4TeamType@@@@QAEXPAW4TeamType@@@Z ; CEncrypt<enum TeamType>::DecryptValueToPool
  0110f	8b 85 8c 7f ff
	ff		 mov	 eax, DWORD PTR _value$544831[ebp]
  01115	3b 85 74 7f ff
	ff		 cmp	 eax, DWORD PTR _value$544837[ebp]
  0111b	0f 84 0f 03 00
	00		 je	 $LN256@ProcessDel
  01121	8d 83 cc 01 00
	00		 lea	 eax, DWORD PTR [ebx+460]
  01127	8d 8e d4 02 00
	00		 lea	 ecx, DWORD PTR [esi+724]
  0112d	50		 push	 eax
  0112e	89 8d 84 7f ff
	ff		 mov	 DWORD PTR tv2752[ebp], ecx
  01134	ff 15 00 00 00
	00		 call	 DWORD PTR __imp_??8ioHashString@@QBE_NABV0@@Z
  0113a	84 c0		 test	 al, al
  0113c	0f 85 ee 02 00
	00		 jne	 $LN256@ProcessDel
  01142	8d 85 78 7f ff
	ff		 lea	 eax, DWORD PTR _value$544847[ebp]
  01148	8d 8e 94 1d 00
	00		 lea	 ecx, DWORD PTR [esi+7572]
  0114e	50		 push	 eax
  0114f	e8 00 00 00 00	 call	 ?DecryptValueToPool@?$CEncrypt@K@@QAEXPAK@Z ; CEncrypt<unsigned long>::DecryptValueToPool
  01154	83 bd 78 7f ff
	ff 00		 cmp	 DWORD PTR _value$544847[ebp], 0
  0115b	0f 85 cf 02 00
	00		 jne	 $LN256@ProcessDel
  01161	b8 05 00 00 00	 mov	 eax, 5
  01166	8b c8		 mov	 ecx, eax
  01168	b8 0a 00 00 00	 mov	 eax, 10			; 0000000aH
  0116d	89 8d 80 7f ff
	ff		 mov	 DWORD PTR tv2674[ebp], ecx
  01173	db 85 80 7f ff
	ff		 fild	 DWORD PTR tv2674[ebp]
  01179	85 c9		 test	 ecx, ecx
  0117b	79 06		 jns	 SHORT $LN383@ProcessDel
  0117d	d8 05 00 00 00
	00		 fadd	 DWORD PTR __real@4f800000
$LN383@ProcessDel:
  01183	89 85 80 7f ff
	ff		 mov	 DWORD PTR tv2669[ebp], eax
  01189	db 85 80 7f ff
	ff		 fild	 DWORD PTR tv2669[ebp]
  0118f	85 c0		 test	 eax, eax
  01191	79 06		 jns	 SHORT $LN384@ProcessDel
  01193	d8 05 00 00 00
	00		 fadd	 DWORD PTR __real@4f800000
$LN384@ProcessDel:
  01199	de f9		 fdivp	 ST(1), ST(0)
  0119b	51		 push	 ecx
  0119c	8d 45 d8	 lea	 eax, DWORD PTR _vTargetPos$544761[ebp]
  0119f	8b ce		 mov	 ecx, esi
  011a1	d9 9d 80 7f ff
	ff		 fstp	 DWORD PTR tv2665[ebp]
  011a7	d9 85 80 7f ff
	ff		 fld	 DWORD PTR tv2665[ebp]
  011ad	d9 1c 24	 fstp	 DWORD PTR [esp]
  011b0	50		 push	 eax
  011b1	e8 00 00 00 00	 call	 ?GetMidPositionByRate@ioGameEntity@@QBE?AUD3DXVECTOR3@@M@Z ; ioGameEntity::GetMidPositionByRate
  011b6	f3 0f 10 45 d8	 movss	 xmm0, DWORD PTR _vTargetPos$544761[ebp]
  011bb	f3 0f 10 4d e4	 movss	 xmm1, DWORD PTR _vCurPos$544743[ebp]
  011c0	f3 0f 10 55 e8	 movss	 xmm2, DWORD PTR _vCurPos$544743[ebp+4]
  011c5	f3 0f 10 5d ec	 movss	 xmm3, DWORD PTR _vCurPos$544743[ebp+8]
  011ca	0f 5a c0	 cvtps2pd xmm0, xmm0
  011cd	0f 5a c9	 cvtps2pd xmm1, xmm1
  011d0	f2 0f 5c c1	 subsd	 xmm0, xmm1
  011d4	f3 0f 10 4d dc	 movss	 xmm1, DWORD PTR _vTargetPos$544761[ebp+4]
  011d9	0f 5a d2	 cvtps2pd xmm2, xmm2
  011dc	0f 5a c9	 cvtps2pd xmm1, xmm1
  011df	f2 0f 5c ca	 subsd	 xmm1, xmm2
  011e3	f3 0f 10 55 e0	 movss	 xmm2, DWORD PTR _vTargetPos$544761[ebp+8]
  011e8	f2 0f 5a c0	 cvtsd2ss xmm0, xmm0
  011ec	0f 5a d2	 cvtps2pd xmm2, xmm2
  011ef	f3 0f 11 45 a8	 movss	 DWORD PTR $T544762[ebp], xmm0
  011f4	66 0f 5a c9	 cvtpd2ps xmm1, xmm1
  011f8	f3 0f 5a c0	 cvtss2sd xmm0, xmm0
  011fc	0f 5a db	 cvtps2pd xmm3, xmm3
  011ff	f2 0f 5c d3	 subsd	 xmm2, xmm3
  01203	f2 0f 5a d2	 cvtsd2ss xmm2, xmm2
  01207	f3 0f 11 4d ac	 movss	 DWORD PTR $T544762[ebp+4], xmm1
  0120c	f2 0f 59 c0	 mulsd	 xmm0, xmm0
  01210	f3 0f 11 55 b0	 movss	 DWORD PTR $T544762[ebp+8], xmm2
  01215	f3 0f 5a c9	 cvtss2sd xmm1, xmm1
  01219	f3 0f 5a d2	 cvtss2sd xmm2, xmm2
  0121d	f2 0f 59 c9	 mulsd	 xmm1, xmm1
  01221	f2 0f 58 c1	 addsd	 xmm0, xmm1
  01225	f2 0f 59 d2	 mulsd	 xmm2, xmm2
  01229	f2 0f 58 c2	 addsd	 xmm0, xmm2
  0122d	f2 0f 5a c0	 cvtsd2ss xmm0, xmm0
  01231	f3 0f 11 85 38
	7f ff ff	 movss	 DWORD PTR _fDiffRangeSq$544763[ebp], xmm0
  01239	f3 0f 10 85 64
	7f ff ff	 movss	 xmm0, DWORD PTR _fCurAngle$544745[ebp]
  01241	0f 2e 05 00 00
	00 00		 ucomiss xmm0, DWORD PTR __real@00000000
  01248	9f		 lahf
  01249	f6 c4 44	 test	 ah, 68			; 00000044H
  0124c	0f 8b cb 00 00
	00		 jnp	 $LN249@ProcessDel
  01252	8b 03		 mov	 eax, DWORD PTR [ebx]
  01254	8b cb		 mov	 ecx, ebx
  01256	ff 50 74	 call	 DWORD PTR [eax+116]
  01259	0f 57 c0	 xorps	 xmm0, xmm0
  0125c	8b f0		 mov	 esi, eax
  0125e	8d bd ec 7e ff
	ff		 lea	 edi, DWORD PTR _qtRot$544765[ebp]
  01264	a5		 movsd
  01265	a5		 movsd
  01266	8d 45 b4	 lea	 eax, DWORD PTR $T544767[ebp]
  01269	50		 push	 eax
  0126a	8d 85 ec 7e ff
	ff		 lea	 eax, DWORD PTR _qtRot$544765[ebp]
  01270	a5		 movsd
  01271	50		 push	 eax
  01272	8d 45 c0	 lea	 eax, DWORD PTR _vDir$544766[ebp]
  01275	f3 0f 11 45 b4	 movss	 DWORD PTR $T544767[ebp], xmm0
  0127a	f3 0f 11 45 b8	 movss	 DWORD PTR $T544767[ebp+4], xmm0
  0127f	f3 0f 10 05 00
	00 00 00	 movss	 xmm0, DWORD PTR __real@bf800000
  01287	50		 push	 eax
  01288	a5		 movsd
  01289	f3 0f 11 45 bc	 movss	 DWORD PTR $T544767[ebp+8], xmm0
  0128e	ff 15 00 00 00
	00		 call	 DWORD PTR __imp_??D@YA?AUD3DXVECTOR3@@ABUD3DXQUATERNION@@ABU0@@Z
  01294	83 c4 0c	 add	 esp, 12			; 0000000cH
  01297	8d 45 c0	 lea	 eax, DWORD PTR _vDir$544766[ebp]
  0129a	50		 push	 eax
  0129b	50		 push	 eax
  0129c	e8 00 00 00 00	 call	 _D3DXVec3Normalize@8
  012a1	0f 57 c0	 xorps	 xmm0, xmm0
  012a4	8d 75 a8	 lea	 esi, DWORD PTR $T544762[ebp]
  012a7	8d 7d cc	 lea	 edi, DWORD PTR _vDiff2$544768[ebp]
  012aa	a5		 movsd
  012ab	a5		 movsd
  012ac	8d 45 cc	 lea	 eax, DWORD PTR _vDiff2$544768[ebp]
  012af	50		 push	 eax
  012b0	a5		 movsd
  012b1	50		 push	 eax
  012b2	f3 0f 11 45 d0	 movss	 DWORD PTR _vDiff2$544768[ebp+4], xmm0
  012b7	e8 00 00 00 00	 call	 _D3DXVec3Normalize@8
  012bc	f3 0f 10 4d d0	 movss	 xmm1, DWORD PTR _vDiff2$544768[ebp+4]
  012c1	f3 0f 10 45 c4	 movss	 xmm0, DWORD PTR _vDir$544766[ebp+4]
  012c6	f3 0f 10 55 cc	 movss	 xmm2, DWORD PTR _vDiff2$544768[ebp]
  012cb	0f 5a c9	 cvtps2pd xmm1, xmm1
  012ce	0f 5a c0	 cvtps2pd xmm0, xmm0
  012d1	f2 0f 59 c1	 mulsd	 xmm0, xmm1
  012d5	f3 0f 10 4d c0	 movss	 xmm1, DWORD PTR _vDir$544766[ebp]
  012da	0f 5a c9	 cvtps2pd xmm1, xmm1
  012dd	0f 5a d2	 cvtps2pd xmm2, xmm2
  012e0	f2 0f 59 ca	 mulsd	 xmm1, xmm2
  012e4	f3 0f 10 55 d4	 movss	 xmm2, DWORD PTR _vDiff2$544768[ebp+8]
  012e9	f2 0f 58 c1	 addsd	 xmm0, xmm1
  012ed	f3 0f 10 4d c8	 movss	 xmm1, DWORD PTR _vDir$544766[ebp+8]
  012f2	0f 5a c9	 cvtps2pd xmm1, xmm1
  012f5	0f 5a d2	 cvtps2pd xmm2, xmm2
  012f8	f2 0f 59 ca	 mulsd	 xmm1, xmm2
  012fc	f2 0f 58 c1	 addsd	 xmm0, xmm1
  01300	f3 0f 10 8d 40
	7f ff ff	 movss	 xmm1, DWORD PTR _fHalfValue$544746[ebp]
  01308	66 0f 5a c0	 cvtpd2ps xmm0, xmm0
  0130c	f3 0f 5a c0	 cvtss2sd xmm0, xmm0
  01310	0f 5a c9	 cvtps2pd xmm1, xmm1
  01313	66 0f 2f c8	 comisd	 xmm1, xmm0
  01317	0f 87 13 01 00
	00		 ja	 $LN256@ProcessDel
$LN249@ProcessDel:
  0131d	0f 57 c0	 xorps	 xmm0, xmm0
  01320	8b 8d 68 7f ff
	ff		 mov	 ecx, DWORD PTR _pStage$544740[ebp]
  01326	83 ec 0c	 sub	 esp, 12			; 0000000cH
  01329	f3 0f 11 44 24
	08		 movss	 DWORD PTR [esp+8], xmm0
  0132f	f3 0f 10 45 e0	 movss	 xmm0, DWORD PTR _vTargetPos$544761[ebp+8]
  01334	f3 0f 11 44 24
	04		 movss	 DWORD PTR [esp+4], xmm0
  0133a	f3 0f 10 45 d8	 movss	 xmm0, DWORD PTR _vTargetPos$544761[ebp]
  0133f	f3 0f 11 04 24	 movss	 DWORD PTR [esp], xmm0
  01344	e8 00 00 00 00	 call	 ?GetMapHeightOnlyTerrain@ioPlayStage@@QAEMMMM@Z ; ioPlayStage::GetMapHeightOnlyTerrain
  01349	d9 9d 80 7f ff
	ff		 fstp	 DWORD PTR _fHeight$544771[ebp]
  0134f	8b 8d 44 7f ff
	ff		 mov	 ecx, DWORD PTR _pTarget$544756[ebp]
  01355	8b 01		 mov	 eax, DWORD PTR [ecx]
  01357	ff 50 70	 call	 DWORD PTR [eax+112]
  0135a	f3 0f 10 8d 80
	7f ff ff	 movss	 xmm1, DWORD PTR _fHeight$544771[ebp]
  01362	f3 0f 10 40 04	 movss	 xmm0, DWORD PTR [eax+4]
  01367	f3 0f 10 95 48
	7f ff ff	 movss	 xmm2, DWORD PTR $T544873[ebp]
  0136f	0f 5a c0	 cvtps2pd xmm0, xmm0
  01372	0f 5a c9	 cvtps2pd xmm1, xmm1
  01375	f2 0f 5c c1	 subsd	 xmm0, xmm1
  01379	66 0f 5a c0	 cvtpd2ps xmm0, xmm0
  0137d	f3 0f 5a c0	 cvtss2sd xmm0, xmm0
  01381	66 0f 54 05 00
	00 00 00	 andpd	 xmm0, QWORD PTR __mask@@AbsDouble@
  01389	f2 0f 5a c0	 cvtsd2ss xmm0, xmm0
  0138d	0f 57 c9	 xorps	 xmm1, xmm1
  01390	f3 0f 5a c8	 cvtss2sd xmm1, xmm0
  01394	0f 5a d2	 cvtps2pd xmm2, xmm2
  01397	66 0f 2f d1	 comisd	 xmm2, xmm1
  0139b	0f 87 8f 00 00
	00		 ja	 $LN256@ProcessDel
  013a1	f3 0f 10 8d 6c
	7f ff ff	 movss	 xmm1, DWORD PTR $T544872[ebp]
  013a9	f3 0f 5a c0	 cvtss2sd xmm0, xmm0
  013ad	0f 5a c9	 cvtps2pd xmm1, xmm1
  013b0	66 0f 2f c1	 comisd	 xmm0, xmm1
  013b4	77 7a		 ja	 SHORT $LN256@ProcessDel
  013b6	f3 0f 10 8d 38
	7f ff ff	 movss	 xmm1, DWORD PTR _fDiffRangeSq$544763[ebp]
  013be	f3 0f 10 95 3c
	7f ff ff	 movss	 xmm2, DWORD PTR _fTargetRangeSq_min$544748[ebp]
  013c6	0f 5a c1	 cvtps2pd xmm0, xmm1
  013c9	0f 5a d2	 cvtps2pd xmm2, xmm2
  013cc	66 0f 2f c2	 comisd	 xmm0, xmm2
  013d0	76 5e		 jbe	 SHORT $LN256@ProcessDel
  013d2	f3 0f 10 95 50
	7f ff ff	 movss	 xmm2, DWORD PTR _fTargetRangeSq_max$544747[ebp]
  013da	0f 57 c0	 xorps	 xmm0, xmm0
  013dd	0f 5a c1	 cvtps2pd xmm0, xmm1
  013e0	0f 5a d2	 cvtps2pd xmm2, xmm2
  013e3	66 0f 2f d0	 comisd	 xmm2, xmm0
  013e7	76 47		 jbe	 SHORT $LN256@ProcessDel
  013e9	f3 0f 10 85 88
	7f ff ff	 movss	 xmm0, DWORD PTR _fCurGap$544752[ebp]
  013f1	0f 2e 05 00 00
	00 00		 ucomiss xmm0, DWORD PTR __real@bf800000
  013f8	9f		 lahf
  013f9	f6 c4 44	 test	 ah, 68			; 00000044H
  013fc	7b 18		 jnp	 SHORT $LN387@ProcessDel
  013fe	0f 2f 05 00 00
	00 00		 comiss	 xmm0, DWORD PTR __real@00000000
  01405	72 29		 jb	 SHORT $LN256@ProcessDel
  01407	0f 57 d2	 xorps	 xmm2, xmm2
  0140a	0f 5a d1	 cvtps2pd xmm2, xmm1
  0140d	0f 5a c0	 cvtps2pd xmm0, xmm0
  01410	66 0f 2f c2	 comisd	 xmm0, xmm2
  01414	76 1a		 jbe	 SHORT $LN256@ProcessDel
$LN387@ProcessDel:
  01416	ff b5 84 7f ff
	ff		 push	 DWORD PTR tv2752[ebp]
  0141c	8d 8b 00 15 00
	00		 lea	 ecx, DWORD PTR [ebx+5376]
  01422	f3 0f 11 8d 88
	7f ff ff	 movss	 DWORD PTR _fCurGap$544752[ebp], xmm1
  0142a	ff 15 00 00 00
	00		 call	 DWORD PTR __imp_??4ioHashString@@QAEAAV0@ABV0@@Z
$LN256@ProcessDel:
  01430	8b 85 7c 7f ff
	ff		 mov	 eax, DWORD PTR _iter$544750[ebp]
  01436	8b 8d 68 7f ff
	ff		 mov	 ecx, DWORD PTR _pStage$544740[ebp]
  0143c	8b bd 4c 7f ff
	ff		 mov	 edi, DWORD PTR _pOwner$[ebp]
  01442	83 c0 04	 add	 eax, 4
  01445	3b 41 30	 cmp	 eax, DWORD PTR [ecx+48]
$LN390@ProcessDel:
  01448	89 85 7c 7f ff
	ff		 mov	 DWORD PTR _iter$544750[ebp], eax
  0144e	0f 85 87 fc ff
	ff		 jne	 $LL288@ProcessDel
  01454	8d 8b 00 15 00
	00		 lea	 ecx, DWORD PTR [ebx+5376]
  0145a	ff 15 00 00 00
	00		 call	 DWORD PTR __imp_?IsEmpty@ioHashString@@QBE_NXZ
  01460	83 4d fc ff	 or	 DWORD PTR __$EHRec$[ebp+8], -1
  01464	8d 8d 54 7f ff
	ff		 lea	 ecx, DWORD PTR _szTarget$544751[ebp]
  0146a	84 c0		 test	 al, al
  0146c	0f 85 07 02 00
	00		 jne	 $LN242@ProcessDel
  01472	ff 15 00 00 00
	00		 call	 DWORD PTR __imp_??1ioHashString@@QAE@XZ

; 449  : 		{
; 450  : 			DummyTT13AttackInfo info;

  01478	8d 8d b0 7e ff
	ff		 lea	 ecx, DWORD PTR _info$532539[ebp]
  0147e	e8 00 00 00 00	 call	 ??0DummyTT13AttackInfo@@QAE@XZ ; DummyTT13AttackInfo::DummyTT13AttackInfo

; 451  : 			for( int i = 0; i < (int)m_vAttackFire3Info.size(); i++ )

  01483	8b 83 a4 14 00
	00		 mov	 eax, DWORD PTR [ebx+5284]
  01489	2b 83 a0 14 00
	00		 sub	 eax, DWORD PTR [ebx+5280]
  0148f	6a 3c		 push	 60			; 0000003cH
  01491	99		 cdq
  01492	59		 pop	 ecx
  01493	f7 f9		 idiv	 ecx
  01495	83 a5 88 7f ff
	ff 00		 and	 DWORD PTR _i$532540[ebp], 0
  0149c	c7 45 fc 07 00
	00 00		 mov	 DWORD PTR __$EHRec$[ebp+8], 7
  014a3	85 c0		 test	 eax, eax
  014a5	0f 8e fe 00 00
	00		 jle	 $LN2@ProcessDel

; 449  : 		{
; 450  : 			DummyTT13AttackInfo info;

  014ab	33 f6		 xor	 esi, esi
$LL4@ProcessDel:

; 452  : 			{
; 453  : 				info = m_vAttackFire3Info[i];

  014ad	8b 83 a0 14 00
	00		 mov	 eax, DWORD PTR [ebx+5280]
  014b3	03 c6		 add	 eax, esi
  014b5	50		 push	 eax
  014b6	8d 8d b0 7e ff
	ff		 lea	 ecx, DWORD PTR _info$532539[ebp]
  014bc	e8 00 00 00 00	 call	 ??4DummyTT13AttackInfo@@QAEAAU0@ABU0@@Z

; 454  : 				info.m_dwFireTime += dwCurTime;

  014c1	8b 85 70 7f ff
	ff		 mov	 eax, DWORD PTR _dwCurTime$[ebp]
  014c7	01 85 b4 7e ff
	ff		 add	 DWORD PTR _info$532539[ebp+4], eax

; 455  : 				
; 456  : 				info.m_stTargetName = m_szFindTarget;

  014cd	8d 83 00 15 00
	00		 lea	 eax, DWORD PTR [ebx+5376]
  014d3	50		 push	 eax
  014d4	8d 8d b8 7e ff
	ff		 lea	 ecx, DWORD PTR _info$532539[ebp+8]
  014da	ff 15 00 00 00
	00		 call	 DWORD PTR __imp_??4ioHashString@@QAEAAV0@ABV0@@Z

; 457  : 				info.m_fAngle = m_fFind_3_Angle;

  014e0	f3 0f 10 83 58
	15 00 00	 movss	 xmm0, DWORD PTR [ebx+5464]
  014e8	f3 0f 11 85 d0
	7e ff ff	 movss	 DWORD PTR _info$532539[ebp+32], xmm0

; 458  : 				info.m_fHeightMax = m_fFind_3_Height_max;

  014f0	f3 0f 10 83 68
	15 00 00	 movss	 xmm0, DWORD PTR [ebx+5480]
  014f8	f3 0f 11 85 d8
	7e ff ff	 movss	 DWORD PTR _info$532539[ebp+40], xmm0

; 459  : 				info.m_fHeightMin = m_fFind_3_Height_min;

  01500	f3 0f 10 83 64
	15 00 00	 movss	 xmm0, DWORD PTR [ebx+5476]
  01508	f3 0f 11 85 d4
	7e ff ff	 movss	 DWORD PTR _info$532539[ebp+36], xmm0

; 460  : 				info.m_fRangeMax = m_fFind_3_Range_max;

  01510	f3 0f 10 83 60
	15 00 00	 movss	 xmm0, DWORD PTR [ebx+5472]
  01518	f3 0f 11 85 cc
	7e ff ff	 movss	 DWORD PTR _info$532539[ebp+28], xmm0

; 461  : 				info.m_fRangeMin = m_fFind_3_Range_min;

  01520	f3 0f 10 83 5c
	15 00 00	 movss	 xmm0, DWORD PTR [ebx+5468]
  01528	f3 0f 11 85 c8
	7e ff ff	 movss	 DWORD PTR _info$532539[ebp+24], xmm0

; 462  : 
; 463  : 				info.m_fWeaponLookOffSet = m_fWeapon_3_LookOffSet;

  01530	f3 0f 10 83 6c
	15 00 00	 movss	 xmm0, DWORD PTR [ebx+5484]
  01538	f3 0f 11 85 dc
	7e ff ff	 movss	 DWORD PTR _info$532539[ebp+44], xmm0

; 464  : 				info.m_fWeaponHeighOffSet = m_fWeapon_3_height_OffSet;

  01540	f3 0f 10 83 70
	15 00 00	 movss	 xmm0, DWORD PTR [ebx+5488]
  01548	f3 0f 11 85 e0
	7e ff ff	 movss	 DWORD PTR _info$532539[ebp+48], xmm0

; 465  : 				info.m_fWeaponSideOffSet = m_fWeapon_3_Side_OffSet;

  01550	f3 0f 10 83 74
	15 00 00	 movss	 xmm0, DWORD PTR [ebx+5492]

; 466  : 
; 467  : 				info.m_fTargetShootOffHeight = m_fTarget_3_ShootOffHeight;
; 468  : 
; 469  : 				m_vAttackFireReserveInfo.push_back( info );

  01558	8d 85 b0 7e ff
	ff		 lea	 eax, DWORD PTR _info$532539[ebp]
  0155e	f3 0f 11 85 e4
	7e ff ff	 movss	 DWORD PTR _info$532539[ebp+52], xmm0
  01566	f3 0f 10 83 78
	15 00 00	 movss	 xmm0, DWORD PTR [ebx+5496]
  0156e	50		 push	 eax
  0156f	8d 8b b0 14 00
	00		 lea	 ecx, DWORD PTR [ebx+5296]
  01575	f3 0f 11 85 e8
	7e ff ff	 movss	 DWORD PTR _info$532539[ebp+56], xmm0
  0157d	e8 00 00 00 00	 call	 ?push_back@?$vector@UDummyTT13AttackInfo@@V?$allocator@UDummyTT13AttackInfo@@@std@@@std@@QAEXABUDummyTT13AttackInfo@@@Z ; std::vector<DummyTT13AttackInfo,std::allocator<DummyTT13AttackInfo> >::push_back
  01582	8b 83 a4 14 00
	00		 mov	 eax, DWORD PTR [ebx+5284]
  01588	2b 83 a0 14 00
	00		 sub	 eax, DWORD PTR [ebx+5280]
  0158e	6a 3c		 push	 60			; 0000003cH
  01590	99		 cdq
  01591	59		 pop	 ecx
  01592	f7 f9		 idiv	 ecx
  01594	ff 85 88 7f ff
	ff		 inc	 DWORD PTR _i$532540[ebp]
  0159a	83 c6 3c	 add	 esi, 60			; 0000003cH
  0159d	39 85 88 7f ff
	ff		 cmp	 DWORD PTR _i$532540[ebp], eax
  015a3	0f 8c 04 ff ff
	ff		 jl	 $LL4@ProcessDel
$LN2@ProcessDel:

; 470  : 			}
; 471  : 
; 472  : 			if( pOwner->IsNeedSendNetwork() )

  015a9	8b 07		 mov	 eax, DWORD PTR [edi]
  015ab	8b cf		 mov	 ecx, edi
  015ad	ff 90 04 01 00
	00		 call	 DWORD PTR [eax+260]
  015b3	84 c0		 test	 al, al
  015b5	0f 84 a8 00 00
	00		 je	 $LN1@ProcessDel

; 473  : 			{
; 474  : 				SP2Packet kPacket( CUPK_DUMMY_CHAR_SYNC );

  015bb	68 21 42 00 00	 push	 16929			; 00004221H
  015c0	8d 8d 90 7f ff
	ff		 lea	 ecx, DWORD PTR _kPacket$532546[ebp]
  015c6	e8 00 00 00 00	 call	 ??0SP2Packet@@QAE@K@Z	; SP2Packet::SP2Packet

; 475  : 				kPacket << m_OwnerName;

  015cb	8d 83 cc 01 00
	00		 lea	 eax, DWORD PTR [ebx+460]
  015d1	50		 push	 eax
  015d2	8d 8d 90 7f ff
	ff		 lea	 ecx, DWORD PTR _kPacket$532546[ebp]
  015d8	c6 45 fc 08	 mov	 BYTE PTR __$EHRec$[ebp+8], 8
  015dc	e8 00 00 00 00	 call	 ??6SP2Packet@@QAEAAV0@ABVioHashString@@@Z ; SP2Packet::operator<<

; 476  : 				kPacket << m_iCreateIndex;

  015e1	ff b3 dc 01 00
	00		 push	 DWORD PTR [ebx+476]
  015e7	8d 8d 90 7f ff
	ff		 lea	 ecx, DWORD PTR _kPacket$532546[ebp]
  015ed	e8 00 00 00 00	 call	 ??6SP2Packet@@QAEAAV0@H@Z ; SP2Packet::operator<<

; 477  : 				kPacket << DUMMY_CHAR_STRIDER_SD_SYNC;

  015f2	6a 12		 push	 18			; 00000012H
  015f4	8d 8d 90 7f ff
	ff		 lea	 ecx, DWORD PTR _kPacket$532546[ebp]
  015fa	e8 00 00 00 00	 call	 ??6SP2Packet@@QAEAAV0@H@Z ; SP2Packet::operator<<

; 478  : 				kPacket	<< 3;

  015ff	6a 03		 push	 3
  01601	8d 8d 90 7f ff
	ff		 lea	 ecx, DWORD PTR _kPacket$532546[ebp]
  01607	e8 00 00 00 00	 call	 ??6SP2Packet@@QAEAAV0@H@Z ; SP2Packet::operator<<

; 479  : 				kPacket << m_szFindTarget;

  0160c	8d 83 00 15 00
	00		 lea	 eax, DWORD PTR [ebx+5376]
  01612	50		 push	 eax
  01613	8d 8d 90 7f ff
	ff		 lea	 ecx, DWORD PTR _kPacket$532546[ebp]
  01619	e8 00 00 00 00	 call	 ??6SP2Packet@@QAEAAV0@ABVioHashString@@@Z ; SP2Packet::operator<<

; 480  : 				kPacket << GetWorldPosition();

  0161e	8b 03		 mov	 eax, DWORD PTR [ebx]
  01620	8b cb		 mov	 ecx, ebx
  01622	ff 50 70	 call	 DWORD PTR [eax+112]
  01625	50		 push	 eax
  01626	8d 8d 90 7f ff
	ff		 lea	 ecx, DWORD PTR _kPacket$532546[ebp]
  0162c	e8 00 00 00 00	 call	 ??6SP2Packet@@QAEAAV0@ABUD3DXVECTOR3@@@Z ; SP2Packet::operator<<

; 481  : 				kPacket << GetWorldOrientation();

  01631	8b 03		 mov	 eax, DWORD PTR [ebx]
  01633	8b cb		 mov	 ecx, ebx
  01635	ff 50 74	 call	 DWORD PTR [eax+116]
  01638	50		 push	 eax
  01639	8d 8d 90 7f ff
	ff		 lea	 ecx, DWORD PTR _kPacket$532546[ebp]
  0163f	e8 00 00 00 00	 call	 ??6SP2Packet@@QAEAAV0@ABUD3DXQUATERNION@@@Z ; SP2Packet::operator<<

; 482  : 				P2PNetwork::SendToAllPlayingUser( kPacket );

  01644	8d 85 90 7f ff
	ff		 lea	 eax, DWORD PTR _kPacket$532546[ebp]
  0164a	6a 00		 push	 0
  0164c	50		 push	 eax
  0164d	e8 00 00 00 00	 call	 ?SendToAllPlayingUser@P2PNetwork@@YAXAAVSP2Packet@@PAVioBaseChar@@@Z ; P2PNetwork::SendToAllPlayingUser
  01652	59		 pop	 ecx
  01653	59		 pop	 ecx

; 483  : 			}

  01654	8d 8d 90 7f ff
	ff		 lea	 ecx, DWORD PTR _kPacket$532546[ebp]
  0165a	c6 45 fc 07	 mov	 BYTE PTR __$EHRec$[ebp+8], 7
  0165e	e8 00 00 00 00	 call	 ??1SP2Packet@@UAE@XZ	; SP2Packet::~SP2Packet
$LN1@ProcessDel:

; 484  : 
; 485  : 			m_dwAttack3FiredTime = dwCurTime;

  01663	8b 85 70 7f ff
	ff		 mov	 eax, DWORD PTR _dwCurTime$[ebp]

; 486  : 		}

  01669	83 4d fc ff	 or	 DWORD PTR __$EHRec$[ebp+8], -1
  0166d	89 83 f0 14 00
	00		 mov	 DWORD PTR [ebx+5360], eax
  01673	8d 8d b8 7e ff
	ff		 lea	 ecx, DWORD PTR _info$532539[ebp+8]
$LN242@ProcessDel:
  01679	ff 15 00 00 00
	00		 call	 DWORD PTR __imp_??1ioHashString@@QAE@XZ
$LN5@ProcessDel:

; 487  : 	}
; 488  : }

  0167f	8b 4d f4	 mov	 ecx, DWORD PTR __$EHRec$[ebp]
  01682	64 89 0d 00 00
	00 00		 mov	 DWORD PTR fs:0, ecx
  01689	59		 pop	 ecx
  0168a	5f		 pop	 edi
  0168b	5e		 pop	 esi
  0168c	5b		 pop	 ebx
  0168d	8b 4d f0	 mov	 ecx, DWORD PTR __$ArrayPad$[ebp]
  01690	33 cd		 xor	 ecx, ebp
  01692	e8 00 00 00 00	 call	 @__security_check_cookie@4
  01697	c9		 leave
  01698	c2 04 00	 ret	 4
_TEXT	ENDS
;	COMDAT text$x
text$x	SEGMENT
__unwindfunclet$?ProcessDelayState@ioTargetTrace13Dummy@@MAEXM@Z$6:
  00000	8d 8d 54 7f ff
	ff		 lea	 ecx, DWORD PTR _szTarget$544116[ebp]
  00006	ff 25 00 00 00
	00		 jmp	 DWORD PTR __imp_??1ioHashString@@QAE@XZ
__unwindfunclet$?ProcessDelayState@ioTargetTrace13Dummy@@MAEXM@Z$0:
  0000c	8d 8d fc 7e ff
	ff		 lea	 ecx, DWORD PTR _info$532519[ebp]
  00012	e9 00 00 00 00	 jmp	 ??1DummyTT13AttackInfo@@QAE@XZ
__unwindfunclet$?ProcessDelayState@ioTargetTrace13Dummy@@MAEXM@Z$1:
  00017	8d 8d 90 7f ff
	ff		 lea	 ecx, DWORD PTR _kPacket$532526[ebp]
  0001d	e9 00 00 00 00	 jmp	 ??1SP2Packet@@UAE@XZ	; SP2Packet::~SP2Packet
__unwindfunclet$?ProcessDelayState@ioTargetTrace13Dummy@@MAEXM@Z$8:
  00022	8d 8d 54 7f ff
	ff		 lea	 ecx, DWORD PTR _szTarget$544419[ebp]
  00028	ff 25 00 00 00
	00		 jmp	 DWORD PTR __imp_??1ioHashString@@QAE@XZ
__unwindfunclet$?ProcessDelayState@ioTargetTrace13Dummy@@MAEXM@Z$2:
  0002e	8d 8d fc 7e ff
	ff		 lea	 ecx, DWORD PTR _info$532529[ebp]
  00034	e9 00 00 00 00	 jmp	 ??1DummyTT13AttackInfo@@QAE@XZ
__unwindfunclet$?ProcessDelayState@ioTargetTrace13Dummy@@MAEXM@Z$3:
  00039	8d 8d 90 7f ff
	ff		 lea	 ecx, DWORD PTR _kPacket$532536[ebp]
  0003f	e9 00 00 00 00	 jmp	 ??1SP2Packet@@UAE@XZ	; SP2Packet::~SP2Packet
__unwindfunclet$?ProcessDelayState@ioTargetTrace13Dummy@@MAEXM@Z$10:
  00044	8d 8d 54 7f ff
	ff		 lea	 ecx, DWORD PTR _szTarget$544751[ebp]
  0004a	ff 25 00 00 00
	00		 jmp	 DWORD PTR __imp_??1ioHashString@@QAE@XZ
__unwindfunclet$?ProcessDelayState@ioTargetTrace13Dummy@@MAEXM@Z$4:
  00050	8d 8d b0 7e ff
	ff		 lea	 ecx, DWORD PTR _info$532539[ebp]
  00056	e9 00 00 00 00	 jmp	 ??1DummyTT13AttackInfo@@QAE@XZ
__unwindfunclet$?ProcessDelayState@ioTargetTrace13Dummy@@MAEXM@Z$5:
  0005b	8d 8d 90 7f ff
	ff		 lea	 ecx, DWORD PTR _kPacket$532546[ebp]
  00061	e9 00 00 00 00	 jmp	 ??1SP2Packet@@UAE@XZ	; SP2Packet::~SP2Packet
__ehhandler$?ProcessDelayState@ioTargetTrace13Dummy@@MAEXM@Z:
  00066	8b 54 24 08	 mov	 edx, DWORD PTR [esp+8]
  0006a	8d 42 0c	 lea	 eax, DWORD PTR [edx+12]
  0006d	8b 8a ac 7e ff
	ff		 mov	 ecx, DWORD PTR [edx-33108]
  00073	33 c8		 xor	 ecx, eax
  00075	e8 00 00 00 00	 call	 @__security_check_cookie@4
  0007a	8b 4a fc	 mov	 ecx, DWORD PTR [edx-4]
  0007d	33 c8		 xor	 ecx, eax
  0007f	e8 00 00 00 00	 call	 @__security_check_cookie@4
  00084	b8 00 00 00 00	 mov	 eax, OFFSET __ehfuncinfo$?ProcessDelayState@ioTargetTrace13Dummy@@MAEXM@Z
  00089	e9 00 00 00 00	 jmp	 ___CxxFrameHandler3
text$x	ENDS
?ProcessDelayState@ioTargetTrace13Dummy@@MAEXM@Z ENDP	; ioTargetTrace13Dummy::ProcessDelayState
EXTRN	??5SP2Packet@@QAEAAV0@AAUD3DXQUATERNION@@@Z:PROC ; SP2Packet::operator>>
EXTRN	??5SP2Packet@@QAEAAV0@AAUD3DXVECTOR3@@@Z:PROC	; SP2Packet::operator>>
EXTRN	??5SP2Packet@@QAEAAV0@AAVioHashString@@@Z:PROC	; SP2Packet::operator>>
EXTRN	?ApplyDummyCharSyncByType@ioDummyChar@@IAEXHAAVSP2Packet@@PAVioPlayStage@@@Z:PROC ; ioDummyChar::ApplyDummyCharSyncByType
EXTRN	??5SP2Packet@@QAEAAV0@AAH@Z:PROC		; SP2Packet::operator>>
;	COMDAT xdata$x
xdata$x	SEGMENT
__unwindtable$?ApplyDummyCharSync@ioTargetTrace13Dummy@@UAEXPAVioPlayStage@@AAVSP2Packet@@@Z DD 0ffffffffH
	DD	FLAT:__unwindfunclet$?ApplyDummyCharSync@ioTargetTrace13Dummy@@UAEXPAVioPlayStage@@AAVSP2Packet@@@Z$0
__ehfuncinfo$?ApplyDummyCharSync@ioTargetTrace13Dummy@@UAEXPAVioPlayStage@@AAVSP2Packet@@@Z DD 019930522H
	DD	01H
	DD	FLAT:__unwindtable$?ApplyDummyCharSync@ioTargetTrace13Dummy@@UAEXPAVioPlayStage@@AAVSP2Packet@@@Z
	DD	2 DUP(00H)
	DD	2 DUP(00H)
	DD	00H
	DD	01H
; Function compile flags: /Ogsp
xdata$x	ENDS
;	COMDAT ?ApplyDummyCharSync@ioTargetTrace13Dummy@@UAEXPAVioPlayStage@@AAVSP2Packet@@@Z
_TEXT	SEGMENT
_qtTargetRot$ = -120					; size = 16
_eType$ = -104						; size = 4
_info$ = -100						; size = 60
_ePacketType$ = -40					; size = 4
_dwCurTime$ = -36					; size = 4
_i$533170 = -32						; size = 4
_i$533164 = -32						; size = 4
_i$533158 = -32						; size = 4
_vPos$ = -28						; size = 12
__$EHRec$ = -12						; size = 12
_pStage$ = 8						; size = 4
_rkPacket$ = 12						; size = 4
?ApplyDummyCharSync@ioTargetTrace13Dummy@@UAEXPAVioPlayStage@@AAVSP2Packet@@@Z PROC ; ioTargetTrace13Dummy::ApplyDummyCharSync, COMDAT
; _this$ = ecx

; 1109 : {

  00000	6a 6c		 push	 108			; 0000006cH
  00002	b8 00 00 00 00	 mov	 eax, __ehhandler$?ApplyDummyCharSync@ioTargetTrace13Dummy@@UAEXPAVioPlayStage@@AAVSP2Packet@@@Z
  00007	e8 00 00 00 00	 call	 __EH_prolog3_GS
  0000c	8b 5d 08	 mov	 ebx, DWORD PTR _pStage$[ebp]
  0000f	8b 7d 0c	 mov	 edi, DWORD PTR _rkPacket$[ebp]
  00012	8b f1		 mov	 esi, ecx

; 1110 : 	if( !pStage )

  00014	85 db		 test	 ebx, ebx
  00016	0f 84 4a 03 00
	00		 je	 $LN17@ApplyDummy

; 1111 : 		return;	
; 1112 : 
; 1113 : 	DummyTT13AttackInfo info;

  0001c	8d 4d 9c	 lea	 ecx, DWORD PTR _info$[ebp]
  0001f	e8 00 00 00 00	 call	 ??0DummyTT13AttackInfo@@QAE@XZ ; DummyTT13AttackInfo::DummyTT13AttackInfo
  00024	83 65 fc 00	 and	 DWORD PTR __$EHRec$[ebp+8], 0

; 1114 : 	DWORD dwCurTime = FRAMEGETTIME();

  00028	ff 15 00 00 00
	00		 call	 DWORD PTR __imp_?GetSingleton@ioFrameTimer@@SAAAV1@XZ
  0002e	8b c8		 mov	 ecx, eax
  00030	ff 15 00 00 00
	00		 call	 DWORD PTR __imp_?GetLoopSec@ioFrameTimer@@QBEKXZ
  00036	89 45 dc	 mov	 DWORD PTR _dwCurTime$[ebp], eax

; 1115 : 	D3DXVECTOR3 vPos;
; 1116 : 	D3DXQUATERNION qtTargetRot;
; 1117 : 
; 1118 : 	int ePacketType;
; 1119 : 	rkPacket >> ePacketType;

  00039	8d 45 d8	 lea	 eax, DWORD PTR _ePacketType$[ebp]
  0003c	50		 push	 eax
  0003d	8b cf		 mov	 ecx, edi
  0003f	e8 00 00 00 00	 call	 ??5SP2Packet@@QAEAAV0@AAH@Z ; SP2Packet::operator>>

; 1120 : 	if( ePacketType != DUMMY_CHAR_STRIDER_SD_SYNC )

  00044	83 7d d8 12	 cmp	 DWORD PTR _ePacketType$[ebp], 18 ; 00000012H
  00048	74 11		 je	 SHORT $LN15@ApplyDummy

; 1121 : 	{
; 1122 : 		ioDummyChar::ApplyDummyCharSyncByType( ePacketType, rkPacket, pStage );

  0004a	53		 push	 ebx
  0004b	57		 push	 edi
  0004c	ff 75 d8	 push	 DWORD PTR _ePacketType$[ebp]
  0004f	8b ce		 mov	 ecx, esi
  00051	e8 00 00 00 00	 call	 ?ApplyDummyCharSyncByType@ioDummyChar@@IAEXHAAVSP2Packet@@PAVioPlayStage@@@Z ; ioDummyChar::ApplyDummyCharSyncByType

; 1123 : 		return;

  00056	e9 fe 02 00 00	 jmp	 $LN9@ApplyDummy
$LN15@ApplyDummy:

; 1124 : 	}
; 1125 : 
; 1126 : 	int eType;
; 1127 : 	rkPacket >> eType;

  0005b	8d 45 98	 lea	 eax, DWORD PTR _eType$[ebp]
  0005e	50		 push	 eax
  0005f	8b cf		 mov	 ecx, edi
  00061	e8 00 00 00 00	 call	 ??5SP2Packet@@QAEAAV0@AAH@Z ; SP2Packet::operator>>

; 1128 : 	rkPacket >> m_szFindTarget;

  00066	8d 86 00 15 00
	00		 lea	 eax, DWORD PTR [esi+5376]
  0006c	50		 push	 eax
  0006d	8b cf		 mov	 ecx, edi
  0006f	e8 00 00 00 00	 call	 ??5SP2Packet@@QAEAAV0@AAVioHashString@@@Z ; SP2Packet::operator>>

; 1129 : 	rkPacket >> vPos;

  00074	8d 45 e4	 lea	 eax, DWORD PTR _vPos$[ebp]
  00077	50		 push	 eax
  00078	8b cf		 mov	 ecx, edi
  0007a	e8 00 00 00 00	 call	 ??5SP2Packet@@QAEAAV0@AAUD3DXVECTOR3@@@Z ; SP2Packet::operator>>

; 1130 : 	rkPacket >> qtTargetRot;

  0007f	8d 45 88	 lea	 eax, DWORD PTR _qtTargetRot$[ebp]
  00082	50		 push	 eax
  00083	8b cf		 mov	 ecx, edi
  00085	e8 00 00 00 00	 call	 ??5SP2Packet@@QAEAAV0@AAUD3DXQUATERNION@@@Z ; SP2Packet::operator>>

; 1131 : 
; 1132 : 	SetWorldPosition( vPos );

  0008a	8b 06		 mov	 eax, DWORD PTR [esi]
  0008c	8d 4d e4	 lea	 ecx, DWORD PTR _vPos$[ebp]
  0008f	51		 push	 ecx
  00090	8b ce		 mov	 ecx, esi
  00092	ff 50 44	 call	 DWORD PTR [eax+68]

; 1133 : 	SetWorldOrientation( qtTargetRot );

  00095	8b 06		 mov	 eax, DWORD PTR [esi]
  00097	8d 4d 88	 lea	 ecx, DWORD PTR _qtTargetRot$[ebp]
  0009a	51		 push	 ecx
  0009b	8b ce		 mov	 ecx, esi
  0009d	ff 50 48	 call	 DWORD PTR [eax+72]

; 1134 : 
; 1135 : 	switch( eType )

  000a0	8b 45 98	 mov	 eax, DWORD PTR _eType$[ebp]
  000a3	48		 dec	 eax
  000a4	0f 84 d2 01 00
	00		 je	 $LN12@ApplyDummy
  000aa	48		 dec	 eax
  000ab	0f 84 e9 00 00
	00		 je	 $LN8@ApplyDummy
  000b1	48		 dec	 eax
  000b2	0f 85 a1 02 00
	00		 jne	 $LN9@ApplyDummy

; 1179 : 	case 3:
; 1180 : 		for( int i = 0; i < (int)m_vAttackFire3Info.size(); i++ )

  000b8	8b 8e a0 14 00
	00		 mov	 ecx, DWORD PTR [esi+5280]
  000be	8b 86 a4 14 00
	00		 mov	 eax, DWORD PTR [esi+5284]
  000c4	2b c1		 sub	 eax, ecx
  000c6	6a 3c		 push	 60			; 0000003cH
  000c8	99		 cdq
  000c9	5b		 pop	 ebx
  000ca	f7 fb		 idiv	 ebx
  000cc	33 ff		 xor	 edi, edi
  000ce	89 7d e0	 mov	 DWORD PTR _i$533170[ebp], edi
  000d1	85 c0		 test	 eax, eax
  000d3	0f 8e 80 02 00
	00		 jle	 $LN9@ApplyDummy
$LN3@ApplyDummy:

; 1181 : 		{
; 1182 : 			info = m_vAttackFire3Info[i];

  000d9	8d 04 0f	 lea	 eax, DWORD PTR [edi+ecx]
  000dc	50		 push	 eax
  000dd	8d 4d 9c	 lea	 ecx, DWORD PTR _info$[ebp]
  000e0	e8 00 00 00 00	 call	 ??4DummyTT13AttackInfo@@QAEAAU0@ABU0@@Z

; 1183 : 			info.m_dwFireTime += dwCurTime;

  000e5	8b 45 dc	 mov	 eax, DWORD PTR _dwCurTime$[ebp]
  000e8	01 45 a0	 add	 DWORD PTR _info$[ebp+4], eax

; 1184 : 
; 1185 : 			info.m_stTargetName = m_szFindTarget;

  000eb	8d 86 00 15 00
	00		 lea	 eax, DWORD PTR [esi+5376]
  000f1	50		 push	 eax
  000f2	8d 4d a4	 lea	 ecx, DWORD PTR _info$[ebp+8]
  000f5	ff 15 00 00 00
	00		 call	 DWORD PTR __imp_??4ioHashString@@QAEAAV0@ABV0@@Z

; 1186 : 			info.m_fAngle = m_fFind_3_Angle;

  000fb	f3 0f 10 86 58
	15 00 00	 movss	 xmm0, DWORD PTR [esi+5464]
  00103	f3 0f 11 45 bc	 movss	 DWORD PTR _info$[ebp+32], xmm0

; 1187 : 			info.m_fHeightMax = m_fFind_3_Height_max;

  00108	f3 0f 10 86 68
	15 00 00	 movss	 xmm0, DWORD PTR [esi+5480]
  00110	f3 0f 11 45 c4	 movss	 DWORD PTR _info$[ebp+40], xmm0

; 1188 : 			info.m_fHeightMin = m_fFind_3_Height_min;

  00115	f3 0f 10 86 64
	15 00 00	 movss	 xmm0, DWORD PTR [esi+5476]
  0011d	f3 0f 11 45 c0	 movss	 DWORD PTR _info$[ebp+36], xmm0

; 1189 : 			info.m_fRangeMax = m_fFind_3_Range_max;

  00122	f3 0f 10 86 60
	15 00 00	 movss	 xmm0, DWORD PTR [esi+5472]
  0012a	f3 0f 11 45 b8	 movss	 DWORD PTR _info$[ebp+28], xmm0

; 1190 : 			info.m_fRangeMin = m_fFind_3_Range_min;

  0012f	f3 0f 10 86 5c
	15 00 00	 movss	 xmm0, DWORD PTR [esi+5468]
  00137	f3 0f 11 45 b4	 movss	 DWORD PTR _info$[ebp+24], xmm0

; 1191 : 
; 1192 : 			info.m_fWeaponLookOffSet = m_fWeapon_3_LookOffSet;

  0013c	f3 0f 10 86 6c
	15 00 00	 movss	 xmm0, DWORD PTR [esi+5484]
  00144	f3 0f 11 45 c8	 movss	 DWORD PTR _info$[ebp+44], xmm0

; 1193 : 			info.m_fWeaponHeighOffSet = m_fWeapon_3_height_OffSet;

  00149	f3 0f 10 86 70
	15 00 00	 movss	 xmm0, DWORD PTR [esi+5488]

; 1194 : 			info.m_fWeaponSideOffSet = m_fWeapon_3_Side_OffSet;
; 1195 : 
; 1196 : 			m_vAttackFireReserveInfo.push_back( info );

  00151	8d 45 9c	 lea	 eax, DWORD PTR _info$[ebp]
  00154	f3 0f 11 45 cc	 movss	 DWORD PTR _info$[ebp+48], xmm0
  00159	f3 0f 10 86 74
	15 00 00	 movss	 xmm0, DWORD PTR [esi+5492]
  00161	50		 push	 eax
  00162	8d 8e b0 14 00
	00		 lea	 ecx, DWORD PTR [esi+5296]
  00168	f3 0f 11 45 d0	 movss	 DWORD PTR _info$[ebp+52], xmm0
  0016d	e8 00 00 00 00	 call	 ?push_back@?$vector@UDummyTT13AttackInfo@@V?$allocator@UDummyTT13AttackInfo@@@std@@@std@@QAEXABUDummyTT13AttackInfo@@@Z ; std::vector<DummyTT13AttackInfo,std::allocator<DummyTT13AttackInfo> >::push_back
  00172	8b 8e a0 14 00
	00		 mov	 ecx, DWORD PTR [esi+5280]
  00178	8b 86 a4 14 00
	00		 mov	 eax, DWORD PTR [esi+5284]
  0017e	2b c1		 sub	 eax, ecx
  00180	6a 3c		 push	 60			; 0000003cH
  00182	99		 cdq
  00183	5b		 pop	 ebx
  00184	f7 fb		 idiv	 ebx
  00186	ff 45 e0	 inc	 DWORD PTR _i$533170[ebp]
  00189	83 c7 3c	 add	 edi, 60			; 0000003cH
  0018c	39 45 e0	 cmp	 DWORD PTR _i$533170[ebp], eax
  0018f	0f 8c 44 ff ff
	ff		 jl	 $LN3@ApplyDummy

; 1197 : 		}
; 1198 : 		break;

  00195	e9 bf 01 00 00	 jmp	 $LN9@ApplyDummy
$LN8@ApplyDummy:

; 1156 : 			}
; 1157 : 		}
; 1158 : 		break;
; 1159 : 	case 2:
; 1160 : 		for( int i = 0; i < (int)m_vAttackFire2Info.size(); i++ )

  0019a	8b 8e 90 14 00
	00		 mov	 ecx, DWORD PTR [esi+5264]
  001a0	8b 86 94 14 00
	00		 mov	 eax, DWORD PTR [esi+5268]
  001a6	2b c1		 sub	 eax, ecx
  001a8	6a 3c		 push	 60			; 0000003cH
  001aa	99		 cdq
  001ab	5b		 pop	 ebx
  001ac	f7 fb		 idiv	 ebx
  001ae	33 ff		 xor	 edi, edi
  001b0	89 7d e0	 mov	 DWORD PTR _i$533164[ebp], edi
  001b3	85 c0		 test	 eax, eax
  001b5	0f 8e 9e 01 00
	00		 jle	 $LN9@ApplyDummy
$LN7@ApplyDummy:

; 1161 : 		{
; 1162 : 			info = m_vAttackFire2Info[i];

  001bb	8d 04 0f	 lea	 eax, DWORD PTR [edi+ecx]
  001be	50		 push	 eax
  001bf	8d 4d 9c	 lea	 ecx, DWORD PTR _info$[ebp]
  001c2	e8 00 00 00 00	 call	 ??4DummyTT13AttackInfo@@QAEAAU0@ABU0@@Z

; 1163 : 			info.m_dwFireTime += dwCurTime;

  001c7	8b 45 dc	 mov	 eax, DWORD PTR _dwCurTime$[ebp]
  001ca	01 45 a0	 add	 DWORD PTR _info$[ebp+4], eax

; 1164 : 
; 1165 : 			info.m_stTargetName = m_szFindTarget;

  001cd	8d 86 00 15 00
	00		 lea	 eax, DWORD PTR [esi+5376]
  001d3	50		 push	 eax
  001d4	8d 4d a4	 lea	 ecx, DWORD PTR _info$[ebp+8]
  001d7	ff 15 00 00 00
	00		 call	 DWORD PTR __imp_??4ioHashString@@QAEAAV0@ABV0@@Z

; 1166 : 			info.m_fAngle = m_fFind_2_Angle;

  001dd	f3 0f 10 86 34
	15 00 00	 movss	 xmm0, DWORD PTR [esi+5428]
  001e5	f3 0f 11 45 bc	 movss	 DWORD PTR _info$[ebp+32], xmm0

; 1167 : 			info.m_fHeightMax = m_fFind_2_Height_max;

  001ea	f3 0f 10 86 44
	15 00 00	 movss	 xmm0, DWORD PTR [esi+5444]
  001f2	f3 0f 11 45 c4	 movss	 DWORD PTR _info$[ebp+40], xmm0

; 1168 : 			info.m_fHeightMin = m_fFind_2_Height_min;

  001f7	f3 0f 10 86 40
	15 00 00	 movss	 xmm0, DWORD PTR [esi+5440]
  001ff	f3 0f 11 45 c0	 movss	 DWORD PTR _info$[ebp+36], xmm0

; 1169 : 			info.m_fRangeMax = m_fFind_2_Range_max;

  00204	f3 0f 10 86 3c
	15 00 00	 movss	 xmm0, DWORD PTR [esi+5436]
  0020c	f3 0f 11 45 b8	 movss	 DWORD PTR _info$[ebp+28], xmm0

; 1170 : 			info.m_fRangeMin = m_fFind_2_Range_min;

  00211	f3 0f 10 86 38
	15 00 00	 movss	 xmm0, DWORD PTR [esi+5432]
  00219	f3 0f 11 45 b4	 movss	 DWORD PTR _info$[ebp+24], xmm0

; 1171 : 
; 1172 : 			info.m_fWeaponLookOffSet = m_fWeapon_2_LookOffSet;

  0021e	f3 0f 10 86 48
	15 00 00	 movss	 xmm0, DWORD PTR [esi+5448]
  00226	f3 0f 11 45 c8	 movss	 DWORD PTR _info$[ebp+44], xmm0

; 1173 : 			info.m_fWeaponHeighOffSet = m_fWeapon_2_height_OffSet;

  0022b	f3 0f 10 86 4c
	15 00 00	 movss	 xmm0, DWORD PTR [esi+5452]

; 1174 : 			info.m_fWeaponSideOffSet = m_fWeapon_2_Side_OffSet;
; 1175 : 
; 1176 : 			m_vAttackFireReserveInfo.push_back( info );

  00233	8d 45 9c	 lea	 eax, DWORD PTR _info$[ebp]
  00236	f3 0f 11 45 cc	 movss	 DWORD PTR _info$[ebp+48], xmm0
  0023b	f3 0f 10 86 50
	15 00 00	 movss	 xmm0, DWORD PTR [esi+5456]
  00243	50		 push	 eax
  00244	8d 8e b0 14 00
	00		 lea	 ecx, DWORD PTR [esi+5296]
  0024a	f3 0f 11 45 d0	 movss	 DWORD PTR _info$[ebp+52], xmm0
  0024f	e8 00 00 00 00	 call	 ?push_back@?$vector@UDummyTT13AttackInfo@@V?$allocator@UDummyTT13AttackInfo@@@std@@@std@@QAEXABUDummyTT13AttackInfo@@@Z ; std::vector<DummyTT13AttackInfo,std::allocator<DummyTT13AttackInfo> >::push_back
  00254	8b 8e 90 14 00
	00		 mov	 ecx, DWORD PTR [esi+5264]
  0025a	8b 86 94 14 00
	00		 mov	 eax, DWORD PTR [esi+5268]
  00260	2b c1		 sub	 eax, ecx
  00262	6a 3c		 push	 60			; 0000003cH
  00264	99		 cdq
  00265	5b		 pop	 ebx
  00266	f7 fb		 idiv	 ebx
  00268	ff 45 e0	 inc	 DWORD PTR _i$533164[ebp]
  0026b	83 c7 3c	 add	 edi, 60			; 0000003cH
  0026e	39 45 e0	 cmp	 DWORD PTR _i$533164[ebp], eax
  00271	0f 8c 44 ff ff
	ff		 jl	 $LN7@ApplyDummy

; 1177 : 		}
; 1178 : 		break;

  00277	e9 dd 00 00 00	 jmp	 $LN9@ApplyDummy
$LN12@ApplyDummy:

; 1136 : 	{
; 1137 : 	case 1:
; 1138 : 		{
; 1139 : 			for( int i = 0; i < (int)m_vAttackFire1Info.size(); i++ )

  0027c	8b 8e 80 14 00
	00		 mov	 ecx, DWORD PTR [esi+5248]
  00282	8b 86 84 14 00
	00		 mov	 eax, DWORD PTR [esi+5252]
  00288	2b c1		 sub	 eax, ecx
  0028a	6a 3c		 push	 60			; 0000003cH
  0028c	99		 cdq
  0028d	5b		 pop	 ebx
  0028e	f7 fb		 idiv	 ebx
  00290	33 ff		 xor	 edi, edi
  00292	89 7d e0	 mov	 DWORD PTR _i$533158[ebp], edi
  00295	85 c0		 test	 eax, eax
  00297	0f 8e bc 00 00
	00		 jle	 $LN9@ApplyDummy
$LN11@ApplyDummy:

; 1140 : 			{
; 1141 : 				info = m_vAttackFire1Info[i];

  0029d	8d 04 0f	 lea	 eax, DWORD PTR [edi+ecx]
  002a0	50		 push	 eax
  002a1	8d 4d 9c	 lea	 ecx, DWORD PTR _info$[ebp]
  002a4	e8 00 00 00 00	 call	 ??4DummyTT13AttackInfo@@QAEAAU0@ABU0@@Z

; 1142 : 				info.m_dwFireTime += dwCurTime;

  002a9	8b 45 dc	 mov	 eax, DWORD PTR _dwCurTime$[ebp]
  002ac	01 45 a0	 add	 DWORD PTR _info$[ebp+4], eax

; 1143 : 
; 1144 : 				info.m_stTargetName = m_szFindTarget;

  002af	8d 86 00 15 00
	00		 lea	 eax, DWORD PTR [esi+5376]
  002b5	50		 push	 eax
  002b6	8d 4d a4	 lea	 ecx, DWORD PTR _info$[ebp+8]
  002b9	ff 15 00 00 00
	00		 call	 DWORD PTR __imp_??4ioHashString@@QAEAAV0@ABV0@@Z

; 1145 : 				info.m_fAngle = m_fFind_1_Angle;

  002bf	f3 0f 10 86 10
	15 00 00	 movss	 xmm0, DWORD PTR [esi+5392]
  002c7	f3 0f 11 45 bc	 movss	 DWORD PTR _info$[ebp+32], xmm0

; 1146 : 				info.m_fHeightMax = m_fFind_1_Height_max;

  002cc	f3 0f 10 86 20
	15 00 00	 movss	 xmm0, DWORD PTR [esi+5408]
  002d4	f3 0f 11 45 c4	 movss	 DWORD PTR _info$[ebp+40], xmm0

; 1147 : 				info.m_fHeightMin = m_fFind_1_Height_min;

  002d9	f3 0f 10 86 1c
	15 00 00	 movss	 xmm0, DWORD PTR [esi+5404]
  002e1	f3 0f 11 45 c0	 movss	 DWORD PTR _info$[ebp+36], xmm0

; 1148 : 				info.m_fRangeMax = m_fFind_1_Range_max;

  002e6	f3 0f 10 86 18
	15 00 00	 movss	 xmm0, DWORD PTR [esi+5400]
  002ee	f3 0f 11 45 b8	 movss	 DWORD PTR _info$[ebp+28], xmm0

; 1149 : 				info.m_fRangeMin = m_fFind_1_Range_min;

  002f3	f3 0f 10 86 14
	15 00 00	 movss	 xmm0, DWORD PTR [esi+5396]
  002fb	f3 0f 11 45 b4	 movss	 DWORD PTR _info$[ebp+24], xmm0

; 1150 : 				
; 1151 : 				info.m_fWeaponLookOffSet = m_fWeapon_1_LookOffSet;

  00300	f3 0f 10 86 24
	15 00 00	 movss	 xmm0, DWORD PTR [esi+5412]
  00308	f3 0f 11 45 c8	 movss	 DWORD PTR _info$[ebp+44], xmm0

; 1152 : 				info.m_fWeaponHeighOffSet = m_fWeapon_1_height_OffSet;

  0030d	f3 0f 10 86 28
	15 00 00	 movss	 xmm0, DWORD PTR [esi+5416]

; 1153 : 				info.m_fWeaponSideOffSet = m_fWeapon_1_Side_OffSet;
; 1154 : 
; 1155 : 				m_vAttackFireReserveInfo.push_back( info );

  00315	8d 45 9c	 lea	 eax, DWORD PTR _info$[ebp]
  00318	f3 0f 11 45 cc	 movss	 DWORD PTR _info$[ebp+48], xmm0
  0031d	f3 0f 10 86 2c
	15 00 00	 movss	 xmm0, DWORD PTR [esi+5420]
  00325	50		 push	 eax
  00326	8d 8e b0 14 00
	00		 lea	 ecx, DWORD PTR [esi+5296]
  0032c	f3 0f 11 45 d0	 movss	 DWORD PTR _info$[ebp+52], xmm0
  00331	e8 00 00 00 00	 call	 ?push_back@?$vector@UDummyTT13AttackInfo@@V?$allocator@UDummyTT13AttackInfo@@@std@@@std@@QAEXABUDummyTT13AttackInfo@@@Z ; std::vector<DummyTT13AttackInfo,std::allocator<DummyTT13AttackInfo> >::push_back
  00336	8b 8e 80 14 00
	00		 mov	 ecx, DWORD PTR [esi+5248]
  0033c	8b 86 84 14 00
	00		 mov	 eax, DWORD PTR [esi+5252]
  00342	2b c1		 sub	 eax, ecx
  00344	6a 3c		 push	 60			; 0000003cH
  00346	99		 cdq
  00347	5b		 pop	 ebx
  00348	f7 fb		 idiv	 ebx
  0034a	ff 45 e0	 inc	 DWORD PTR _i$533158[ebp]
  0034d	83 c7 3c	 add	 edi, 60			; 0000003cH
  00350	39 45 e0	 cmp	 DWORD PTR _i$533158[ebp], eax
  00353	0f 8c 44 ff ff
	ff		 jl	 $LN11@ApplyDummy
$LN9@ApplyDummy:

; 1199 : 	}
; 1200 : 
; 1201 : 	/*if( eType == DUMMY_CHAR_STRIDER_SYNC )
; 1202 : 	{
; 1203 : 		D3DXVECTOR3 vPos;
; 1204 : 		rkPacket >> m_nAttackAttributeIndex;
; 1205 : 		rkPacket >> vPos;
; 1206 : 		SetWorldPosition( vPos );
; 1207 : 		SetNextAttack();
; 1208 : 	}
; 1209 : 	else*/
; 1210 : 		//ApplyDummyCharSyncByType( eType, rkPacket, pStage );
; 1211 : 
; 1212 : 	/*if( pOwner->IsNeedSendNetwork() )
; 1213 : 	{
; 1214 : 		SP2Packet kPacket( CUPK_DUMMY_CHAR_SYNC );
; 1215 : 		kPacket << m_OwnerName;
; 1216 : 		kPacket << m_iCreateIndex;
; 1217 : 		kPacket	<< 1;
; 1218 : 		kPacket << m_szFindTarget;
; 1219 : 		kPacket << GetWorldPosition();
; 1220 : 		kPacket << GetWorldOrientation();
; 1221 : 		P2PNetwork::SendToAllPlayingUser( kPacket );
; 1222 : 	}*/
; 1223 : }

  00359	83 4d fc ff	 or	 DWORD PTR __$EHRec$[ebp+8], -1
  0035d	8d 4d a4	 lea	 ecx, DWORD PTR _info$[ebp+8]
  00360	ff 15 00 00 00
	00		 call	 DWORD PTR __imp_??1ioHashString@@QAE@XZ
$LN17@ApplyDummy:
  00366	e8 00 00 00 00	 call	 __EH_epilog3_GS
  0036b	c2 08 00	 ret	 8
_TEXT	ENDS
;	COMDAT text$x
text$x	SEGMENT
__unwindfunclet$?ApplyDummyCharSync@ioTargetTrace13Dummy@@UAEXPAVioPlayStage@@AAVSP2Packet@@@Z$0:
  00000	8d 4d 9c	 lea	 ecx, DWORD PTR _info$[ebp]
  00003	e9 00 00 00 00	 jmp	 ??1DummyTT13AttackInfo@@QAE@XZ
__ehhandler$?ApplyDummyCharSync@ioTargetTrace13Dummy@@UAEXPAVioPlayStage@@AAVSP2Packet@@@Z:
  00008	8b 54 24 08	 mov	 edx, DWORD PTR [esp+8]
  0000c	8d 42 0c	 lea	 eax, DWORD PTR [edx+12]
  0000f	8b 4a 84	 mov	 ecx, DWORD PTR [edx-124]
  00012	33 c8		 xor	 ecx, eax
  00014	e8 00 00 00 00	 call	 @__security_check_cookie@4
  00019	8b 4a fc	 mov	 ecx, DWORD PTR [edx-4]
  0001c	33 c8		 xor	 ecx, eax
  0001e	e8 00 00 00 00	 call	 @__security_check_cookie@4
  00023	b8 00 00 00 00	 mov	 eax, OFFSET __ehfuncinfo$?ApplyDummyCharSync@ioTargetTrace13Dummy@@UAEXPAVioPlayStage@@AAVSP2Packet@@@Z
  00028	e9 00 00 00 00	 jmp	 ___CxxFrameHandler3
text$x	ENDS
?ApplyDummyCharSync@ioTargetTrace13Dummy@@UAEXPAVioPlayStage@@AAVSP2Packet@@@Z ENDP ; ioTargetTrace13Dummy::ApplyDummyCharSync
END
