; Listing generated by Microsoft (R) Optimizing Compiler Version 16.00.30319.01 

	TITLE	D:\Lost Saga For Developer\Youtube\Tutorial\Source\src\LSClient\ioTargetTimingAttackSkill.cpp
	.686P
	.XMM
	include listing.inc
	.model	flat

INCLUDELIB MSVCRT
INCLUDELIB OLDNAMES

PUBLIC	?_EEM_DS@?$deque@UD3DXVECTOR3@@V?$allocator@UD3DXVECTOR3@@@std@@@std@@2HB ; std::deque<D3DXVECTOR3,std::allocator<D3DXVECTOR3> >::_EEM_DS
;	COMDAT ?_EEM_DS@?$deque@UD3DXVECTOR3@@V?$allocator@UD3DXVECTOR3@@@std@@@std@@2HB
CONST	SEGMENT
?_EEM_DS@?$deque@UD3DXVECTOR3@@V?$allocator@UD3DXVECTOR3@@@std@@@std@@2HB DD 01H ; std::deque<D3DXVECTOR3,std::allocator<D3DXVECTOR3> >::_EEM_DS
CONST	ENDS
PUBLIC	?GetBaseCharList@ioPlayStage@@QBEABV?$vector@PAVioBaseChar@@V?$allocator@PAVioBaseChar@@@std@@@std@@XZ ; ioPlayStage::GetBaseCharList
; Function compile flags: /Ogsp
; File d:\lost saga for developer\youtube\tutorial\source\src\lsclient\ioplaystage.h
;	COMDAT ?GetBaseCharList@ioPlayStage@@QBEABV?$vector@PAVioBaseChar@@V?$allocator@PAVioBaseChar@@@std@@@std@@XZ
_TEXT	SEGMENT
?GetBaseCharList@ioPlayStage@@QBEABV?$vector@PAVioBaseChar@@V?$allocator@PAVioBaseChar@@@std@@@std@@XZ PROC ; ioPlayStage::GetBaseCharList, COMDAT
; _this$ = ecx

; 755  : 	const BaseCharList& GetBaseCharList() const { return m_BaseCharList; }

  00000	8d 41 2c	 lea	 eax, DWORD PTR [ecx+44]
  00003	c3		 ret	 0
?GetBaseCharList@ioPlayStage@@QBEABV?$vector@PAVioBaseChar@@V?$allocator@PAVioBaseChar@@@std@@@std@@XZ ENDP ; ioPlayStage::GetBaseCharList
_TEXT	ENDS
PUBLIC	?return5@@YAIXZ					; return5
; Function compile flags: /Ogsp
; File d:\lost saga for developer\youtube\tutorial\source\src\lsclient\stdafx.h
;	COMDAT ?return5@@YAIXZ
_TEXT	SEGMENT
?return5@@YAIXZ PROC					; return5, COMDAT

; 18   : 	__forceinline unsigned int return5() { __asm mov eax, 5 };

  00000	b8 05 00 00 00	 mov	 eax, 5
  00005	c3		 ret	 0
?return5@@YAIXZ ENDP					; return5
_TEXT	ENDS
PUBLIC	?return10@@YAIXZ				; return10
; Function compile flags: /Ogsp
;	COMDAT ?return10@@YAIXZ
_TEXT	SEGMENT
?return10@@YAIXZ PROC					; return10, COMDAT

; 21   : 	__forceinline unsigned int return10() { __asm mov eax, 10 };

  00000	b8 0a 00 00 00	 mov	 eax, 10			; 0000000aH
  00005	c3		 ret	 0
?return10@@YAIXZ ENDP					; return10
_TEXT	ENDS
PUBLIC	?GetCharName@ioBaseChar@@QBEABVioHashString@@XZ	; ioBaseChar::GetCharName
; Function compile flags: /Ogsp
; File d:\lost saga for developer\youtube\tutorial\source\src\lsclient\iobasechar.h
;	COMDAT ?GetCharName@ioBaseChar@@QBEABVioHashString@@XZ
_TEXT	SEGMENT
?GetCharName@ioBaseChar@@QBEABVioHashString@@XZ PROC	; ioBaseChar::GetCharName, COMDAT
; _this$ = ecx

; 2594 : 	inline const ioHashString& GetCharName() const { return m_Name; }

  00000	8d 81 d4 02 00
	00		 lea	 eax, DWORD PTR [ecx+724]
  00006	c3		 ret	 0
?GetCharName@ioBaseChar@@QBEABVioHashString@@XZ ENDP	; ioBaseChar::GetCharName
_TEXT	ENDS
PUBLIC	?GetTargetRot@ioBaseChar@@QBEABUD3DXQUATERNION@@XZ ; ioBaseChar::GetTargetRot
; Function compile flags: /Ogsp
;	COMDAT ?GetTargetRot@ioBaseChar@@QBEABUD3DXQUATERNION@@XZ
_TEXT	SEGMENT
?GetTargetRot@ioBaseChar@@QBEABUD3DXQUATERNION@@XZ PROC	; ioBaseChar::GetTargetRot, COMDAT
; _this$ = ecx

; 2599 : 	inline const D3DXQUATERNION& GetTargetRot() const { return m_qtTargetRot; }

  00000	8d 81 a4 06 00
	00		 lea	 eax, DWORD PTR [ecx+1700]
  00006	c3		 ret	 0
?GetTargetRot@ioBaseChar@@QBEABUD3DXQUATERNION@@XZ ENDP	; ioBaseChar::GetTargetRot
_TEXT	ENDS
PUBLIC	??_7bad_alloc@std@@6B@				; std::bad_alloc::`vftable'
PUBLIC	??0bad_alloc@std@@QAE@PBD@Z			; std::bad_alloc::bad_alloc
PUBLIC	??_R4bad_alloc@std@@6B@				; std::bad_alloc::`RTTI Complete Object Locator'
PUBLIC	??_R0?AVbad_alloc@std@@@8			; std::bad_alloc `RTTI Type Descriptor'
PUBLIC	??_R3bad_alloc@std@@8				; std::bad_alloc::`RTTI Class Hierarchy Descriptor'
PUBLIC	??_R2bad_alloc@std@@8				; std::bad_alloc::`RTTI Base Class Array'
PUBLIC	??_R1A@?0A@EA@bad_alloc@std@@8			; std::bad_alloc::`RTTI Base Class Descriptor at (0,-1,0,64)'
PUBLIC	??_R1A@?0A@EA@exception@std@@8			; std::exception::`RTTI Base Class Descriptor at (0,-1,0,64)'
PUBLIC	??_R0?AVexception@std@@@8			; std::exception `RTTI Type Descriptor'
PUBLIC	??_R3exception@std@@8				; std::exception::`RTTI Class Hierarchy Descriptor'
PUBLIC	??_R2exception@std@@8				; std::exception::`RTTI Base Class Array'
EXTRN	__imp_??0exception@std@@QAE@ABQBD@Z:PROC
EXTRN	??_7type_info@@6B@:QWORD			; type_info::`vftable'
EXTRN	??_Ebad_alloc@std@@UAEPAXI@Z:PROC		; std::bad_alloc::`vector deleting destructor'
EXTRN	?what@exception@std@@UBEPBDXZ:PROC		; std::exception::what
;	COMDAT ??_R2exception@std@@8
; File c:\program files (x86)\microsoft visual studio 10.0\vc\include\exception
rdata$r	SEGMENT
??_R2exception@std@@8 DD FLAT:??_R1A@?0A@EA@exception@std@@8 ; std::exception::`RTTI Base Class Array'
rdata$r	ENDS
;	COMDAT ??_R3exception@std@@8
rdata$r	SEGMENT
??_R3exception@std@@8 DD 00H				; std::exception::`RTTI Class Hierarchy Descriptor'
	DD	00H
	DD	01H
	DD	FLAT:??_R2exception@std@@8
rdata$r	ENDS
;	COMDAT ??_R0?AVexception@std@@@8
_DATA	SEGMENT
??_R0?AVexception@std@@@8 DD FLAT:??_7type_info@@6B@	; std::exception `RTTI Type Descriptor'
	DD	00H
	DB	'.?AVexception@std@@', 00H
_DATA	ENDS
;	COMDAT ??_R1A@?0A@EA@exception@std@@8
rdata$r	SEGMENT
??_R1A@?0A@EA@exception@std@@8 DD FLAT:??_R0?AVexception@std@@@8 ; std::exception::`RTTI Base Class Descriptor at (0,-1,0,64)'
	DD	00H
	DD	00H
	DD	0ffffffffH
	DD	00H
	DD	040H
	DD	FLAT:??_R3exception@std@@8
rdata$r	ENDS
;	COMDAT ??_R1A@?0A@EA@bad_alloc@std@@8
rdata$r	SEGMENT
??_R1A@?0A@EA@bad_alloc@std@@8 DD FLAT:??_R0?AVbad_alloc@std@@@8 ; std::bad_alloc::`RTTI Base Class Descriptor at (0,-1,0,64)'
	DD	01H
	DD	00H
	DD	0ffffffffH
	DD	00H
	DD	040H
	DD	FLAT:??_R3bad_alloc@std@@8
rdata$r	ENDS
;	COMDAT ??_R2bad_alloc@std@@8
rdata$r	SEGMENT
??_R2bad_alloc@std@@8 DD FLAT:??_R1A@?0A@EA@bad_alloc@std@@8 ; std::bad_alloc::`RTTI Base Class Array'
	DD	FLAT:??_R1A@?0A@EA@exception@std@@8
rdata$r	ENDS
;	COMDAT ??_R3bad_alloc@std@@8
rdata$r	SEGMENT
??_R3bad_alloc@std@@8 DD 00H				; std::bad_alloc::`RTTI Class Hierarchy Descriptor'
	DD	00H
	DD	02H
	DD	FLAT:??_R2bad_alloc@std@@8
rdata$r	ENDS
;	COMDAT ??_R0?AVbad_alloc@std@@@8
_DATA	SEGMENT
??_R0?AVbad_alloc@std@@@8 DD FLAT:??_7type_info@@6B@	; std::bad_alloc `RTTI Type Descriptor'
	DD	00H
	DB	'.?AVbad_alloc@std@@', 00H
_DATA	ENDS
;	COMDAT ??_R4bad_alloc@std@@6B@
rdata$r	SEGMENT
??_R4bad_alloc@std@@6B@ DD 00H				; std::bad_alloc::`RTTI Complete Object Locator'
	DD	00H
	DD	00H
	DD	FLAT:??_R0?AVbad_alloc@std@@@8
	DD	FLAT:??_R3bad_alloc@std@@8
rdata$r	ENDS
;	COMDAT ??_7bad_alloc@std@@6B@
CONST	SEGMENT
??_7bad_alloc@std@@6B@ DD FLAT:??_R4bad_alloc@std@@6B@	; std::bad_alloc::`vftable'
	DD	FLAT:??_Ebad_alloc@std@@UAEPAXI@Z
	DD	FLAT:?what@exception@std@@UBEPBDXZ
; Function compile flags: /Ogsp
CONST	ENDS
;	COMDAT ??0bad_alloc@std@@QAE@PBD@Z
_TEXT	SEGMENT
__Message$ = 8						; size = 4
??0bad_alloc@std@@QAE@PBD@Z PROC			; std::bad_alloc::bad_alloc, COMDAT
; _this$ = ecx

; 345  : 		{	// construct from message string

  00000	55		 push	 ebp
  00001	8b ec		 mov	 ebp, esp
  00003	56		 push	 esi
  00004	8d 45 08	 lea	 eax, DWORD PTR __Message$[ebp]
  00007	50		 push	 eax
  00008	8b f1		 mov	 esi, ecx
  0000a	ff 15 00 00 00
	00		 call	 DWORD PTR __imp_??0exception@std@@QAE@ABQBD@Z
  00010	c7 06 00 00 00
	00		 mov	 DWORD PTR [esi], OFFSET ??_7bad_alloc@std@@6B@

; 346  : 		}

  00016	8b c6		 mov	 eax, esi
  00018	5e		 pop	 esi
  00019	5d		 pop	 ebp
  0001a	c2 04 00	 ret	 4
??0bad_alloc@std@@QAE@PBD@Z ENDP			; std::bad_alloc::bad_alloc
_TEXT	ENDS
PUBLIC	??1bad_alloc@std@@UAE@XZ			; std::bad_alloc::~bad_alloc
EXTRN	__imp_??1exception@std@@UAE@XZ:PROC
; Function compile flags: /Ogsp
;	COMDAT ??1bad_alloc@std@@UAE@XZ
_TEXT	SEGMENT
??1bad_alloc@std@@UAE@XZ PROC				; std::bad_alloc::~bad_alloc, COMDAT
; _this$ = ecx

; 354  : 		{	// destroy the object

  00000	c7 01 00 00 00
	00		 mov	 DWORD PTR [ecx], OFFSET ??_7bad_alloc@std@@6B@

; 355  : 		}

  00006	ff 25 00 00 00
	00		 jmp	 DWORD PTR __imp_??1exception@std@@UAE@XZ
??1bad_alloc@std@@UAE@XZ ENDP				; std::bad_alloc::~bad_alloc
_TEXT	ENDS
EXTRN	??3@YAXPAX@Z:PROC				; operator delete
; Function compile flags: /Ogsp
;	COMDAT ??_Gbad_alloc@std@@UAEPAXI@Z
_TEXT	SEGMENT
___flags$ = 8						; size = 4
??_Gbad_alloc@std@@UAEPAXI@Z PROC			; std::bad_alloc::`scalar deleting destructor', COMDAT
; _this$ = ecx
  00000	55		 push	 ebp
  00001	8b ec		 mov	 ebp, esp
  00003	56		 push	 esi
  00004	8b f1		 mov	 esi, ecx
  00006	c7 06 00 00 00
	00		 mov	 DWORD PTR [esi], OFFSET ??_7bad_alloc@std@@6B@
  0000c	ff 15 00 00 00
	00		 call	 DWORD PTR __imp_??1exception@std@@UAE@XZ
  00012	f6 45 08 01	 test	 BYTE PTR ___flags$[ebp], 1
  00016	74 07		 je	 SHORT $LN1@scalar
  00018	56		 push	 esi
  00019	e8 00 00 00 00	 call	 ??3@YAXPAX@Z		; operator delete
  0001e	59		 pop	 ecx
$LN1@scalar:
  0001f	8b c6		 mov	 eax, esi
  00021	5e		 pop	 esi
  00022	5d		 pop	 ebp
  00023	c2 04 00	 ret	 4
??_Gbad_alloc@std@@UAEPAXI@Z ENDP			; std::bad_alloc::`scalar deleting destructor'
_TEXT	ENDS
PUBLIC	??2@YAPAXIPAX@Z					; operator new
; Function compile flags: /Ogsp
; File c:\program files (x86)\microsoft visual studio 10.0\vc\include\new
;	COMDAT ??2@YAPAXIPAX@Z
_TEXT	SEGMENT
___formal$ = 8						; size = 4
__Where$ = 12						; size = 4
??2@YAPAXIPAX@Z PROC					; operator new, COMDAT

; 56   : 	{	// construct array with placement at _Where

  00000	55		 push	 ebp
  00001	8b ec		 mov	 ebp, esp

; 57   : 	return (_Where);

  00003	8b 45 0c	 mov	 eax, DWORD PTR __Where$[ebp]

; 58   : 	}

  00006	5d		 pop	 ebp
  00007	c3		 ret	 0
??2@YAPAXIPAX@Z ENDP					; operator new
_TEXT	ENDS
PUBLIC	??3@YAXPAX0@Z					; operator delete
; Function compile flags: /Ogsp
;	COMDAT ??3@YAXPAX0@Z
_TEXT	SEGMENT
___formal$ = 8						; size = 4
___formal$ = 12						; size = 4
??3@YAXPAX0@Z PROC					; operator delete, COMDAT

; 62   : 	}

  00000	c3		 ret	 0
??3@YAXPAX0@Z ENDP					; operator delete
_TEXT	ENDS
PUBLIC	?GetCreator@ioBaseChar@@QAEPAVioPlayStage@@XZ	; ioBaseChar::GetCreator
; Function compile flags: /Ogsp
; File d:\lost saga for developer\youtube\tutorial\source\src\lsclient\iobasechar.h
;	COMDAT ?GetCreator@ioBaseChar@@QAEPAVioPlayStage@@XZ
_TEXT	SEGMENT
?GetCreator@ioBaseChar@@QAEPAVioPlayStage@@XZ PROC	; ioBaseChar::GetCreator, COMDAT
; _this$ = ecx

; 4013 : 	inline ioPlayStage* GetCreator() { return m_pCreator; }

  00000	8b 81 44 03 00
	00		 mov	 eax, DWORD PTR [ecx+836]
  00006	c3		 ret	 0
?GetCreator@ioBaseChar@@QAEPAVioPlayStage@@XZ ENDP	; ioBaseChar::GetCreator
_TEXT	ENDS
PUBLIC	??_R0?AVioWeapon@@@8				; ioWeapon `RTTI Type Descriptor'
PUBLIC	??_R0?AVioZoneEffectWeapon@@@8			; ioZoneEffectWeapon `RTTI Type Descriptor'
PUBLIC	?ToZoneEffectWeapon@@YAPAVioZoneEffectWeapon@@PAVioWeapon@@@Z ; ToZoneEffectWeapon
EXTRN	___RTDynamicCast:PROC
;	COMDAT ??_R0?AVioWeapon@@@8
; File d:\lost saga for developer\youtube\tutorial\source\src\lsclient\iozoneeffectweapon.h
_DATA	SEGMENT
??_R0?AVioWeapon@@@8 DD FLAT:??_7type_info@@6B@		; ioWeapon `RTTI Type Descriptor'
	DD	00H
	DB	'.?AVioWeapon@@', 00H
_DATA	ENDS
;	COMDAT ??_R0?AVioZoneEffectWeapon@@@8
_DATA	SEGMENT
??_R0?AVioZoneEffectWeapon@@@8 DD FLAT:??_7type_info@@6B@ ; ioZoneEffectWeapon `RTTI Type Descriptor'
	DD	00H
	DB	'.?AVioZoneEffectWeapon@@', 00H
; Function compile flags: /Ogsp
_DATA	ENDS
;	COMDAT ?ToZoneEffectWeapon@@YAPAVioZoneEffectWeapon@@PAVioWeapon@@@Z
_TEXT	SEGMENT
_pWeapon$ = 8						; size = 4
?ToZoneEffectWeapon@@YAPAVioZoneEffectWeapon@@PAVioWeapon@@@Z PROC ; ToZoneEffectWeapon, COMDAT

; 217  : {

  00000	55		 push	 ebp
  00001	8b ec		 mov	 ebp, esp
  00003	56		 push	 esi

; 218  : 	if( !pWeapon || pWeapon->GetType() != ioWeapon::WT_ZONE_EFFECT )

  00004	8b 75 08	 mov	 esi, DWORD PTR _pWeapon$[ebp]
  00007	85 f6		 test	 esi, esi
  00009	74 28		 je	 SHORT $LN1@ToZoneEffe
  0000b	8b 06		 mov	 eax, DWORD PTR [esi]
  0000d	8b ce		 mov	 ecx, esi
  0000f	ff 90 10 01 00
	00		 call	 DWORD PTR [eax+272]
  00015	83 f8 08	 cmp	 eax, 8
  00018	75 19		 jne	 SHORT $LN1@ToZoneEffe

; 220  : 
; 221  : 	return dynamic_cast< ioZoneEffectWeapon* >( pWeapon );

  0001a	6a 00		 push	 0
  0001c	68 00 00 00 00	 push	 OFFSET ??_R0?AVioZoneEffectWeapon@@@8
  00021	68 00 00 00 00	 push	 OFFSET ??_R0?AVioWeapon@@@8
  00026	6a 00		 push	 0
  00028	56		 push	 esi
  00029	e8 00 00 00 00	 call	 ___RTDynamicCast
  0002e	83 c4 14	 add	 esp, 20			; 00000014H
  00031	eb 02		 jmp	 SHORT $LN3@ToZoneEffe
$LN1@ToZoneEffe:

; 219  : 		return NULL;

  00033	33 c0		 xor	 eax, eax
$LN3@ToZoneEffe:
  00035	5e		 pop	 esi

; 222  : }

  00036	5d		 pop	 ebp
  00037	c3		 ret	 0
?ToZoneEffectWeapon@@YAPAVioZoneEffectWeapon@@PAVioWeapon@@@Z ENDP ; ToZoneEffectWeapon
_TEXT	ENDS
PUBLIC	?_Adopt@_Iterator_base0@std@@QAEXPBX@Z		; std::_Iterator_base0::_Adopt
; Function compile flags: /Ogsp
; File c:\program files (x86)\microsoft visual studio 10.0\vc\include\xutility
;	COMDAT ?_Adopt@_Iterator_base0@std@@QAEXPBX@Z
_TEXT	SEGMENT
___formal$ = 8						; size = 4
?_Adopt@_Iterator_base0@std@@QAEXPBX@Z PROC		; std::_Iterator_base0::_Adopt, COMDAT
; _this$ = ecx

; 49   : 		}

  00000	c2 04 00	 ret	 4
?_Adopt@_Iterator_base0@std@@QAEXPBX@Z ENDP		; std::_Iterator_base0::_Adopt
_TEXT	ENDS
PUBLIC	__real@00000000
PUBLIC	?IsSkillMotionEnd@ioTargetTimingAttackSkill@@UBE_NKPAVioBaseChar@@@Z ; ioTargetTimingAttackSkill::IsSkillMotionEnd
EXTRN	__imp_?GetLoopSec@ioFrameTimer@@QBEKXZ:PROC
EXTRN	__imp_?GetSingleton@ioFrameTimer@@SAAAV1@XZ:PROC
EXTRN	__fltused:DWORD
;	COMDAT __real@00000000
; File d:\lost saga for developer\youtube\tutorial\source\src\lsclient\iotargettimingattackskill.cpp
CONST	SEGMENT
__real@00000000 DD 000000000r			; 0
; Function compile flags: /Ogsp
CONST	ENDS
;	COMDAT ?IsSkillMotionEnd@ioTargetTimingAttackSkill@@UBE_NKPAVioBaseChar@@@Z
_TEXT	SEGMENT
_dwActionStop$ = 8					; size = 4
_pOwner$ = 12						; size = 4
?IsSkillMotionEnd@ioTargetTimingAttackSkill@@UBE_NKPAVioBaseChar@@@Z PROC ; ioTargetTimingAttackSkill::IsSkillMotionEnd, COMDAT
; _this$ = ecx

; 261  : {	

  00000	55		 push	 ebp
  00001	8b ec		 mov	 ebp, esp
  00003	56		 push	 esi
  00004	8b f1		 mov	 esi, ecx

; 262  : 	if( m_dwPreDelayStartTime > 0 )

  00006	83 be 20 02 00
	00 00		 cmp	 DWORD PTR [esi+544], 0

; 263  : 		return false;

  0000d	77 45		 ja	 SHORT $LN5@IsSkillMot

; 264  : 
; 265  : 	switch( m_SkillState )

  0000f	8b 86 28 13 00
	00		 mov	 eax, DWORD PTR [esi+4904]
  00015	48		 dec	 eax
  00016	74 3c		 je	 SHORT $LN5@IsSkillMot
  00018	83 e8 06	 sub	 eax, 6
  0001b	74 1e		 je	 SHORT $LN4@IsSkillMot

; 272  : 		else
; 273  : 			return false;
; 274  : 	}
; 275  : 
; 276  : 	if( m_dwMotionEndTime + dwActionStop >= FRAMEGETTIME() )

  0001d	ff 15 00 00 00
	00		 call	 DWORD PTR __imp_?GetSingleton@ioFrameTimer@@SAAAV1@XZ
  00023	8b c8		 mov	 ecx, eax
  00025	ff 15 00 00 00
	00		 call	 DWORD PTR __imp_?GetLoopSec@ioFrameTimer@@QBEKXZ
  0002b	8b 8e 4c 13 00
	00		 mov	 ecx, DWORD PTR [esi+4940]
  00031	03 4d 08	 add	 ecx, DWORD PTR _dwActionStop$[ebp]
  00034	3b c8		 cmp	 ecx, eax
  00036	0f 92 c0	 setb	 al

; 277  : 		return false;
; 278  : 
; 279  : 	return true;

  00039	eb 1b		 jmp	 SHORT $LN9@IsSkillMot
$LN4@IsSkillMot:

; 269  : 	case SS_END:
; 270  : 		if( m_fSkillEndNextJumpAmt == 0.0f )

  0003b	f3 0f 10 86 4c
	05 00 00	 movss	 xmm0, DWORD PTR [esi+1356]
  00043	0f 2e 05 00 00
	00 00		 ucomiss xmm0, DWORD PTR __real@00000000
  0004a	9f		 lahf
  0004b	f6 c4 44	 test	 ah, 68			; 00000044H
  0004e	7a 04		 jp	 SHORT $LN5@IsSkillMot

; 271  : 			return true;

  00050	b0 01		 mov	 al, 1
  00052	eb 02		 jmp	 SHORT $LN9@IsSkillMot
$LN5@IsSkillMot:

; 266  : 	{
; 267  : 	case SS_AIM:
; 268  : 		return false;

  00054	32 c0		 xor	 al, al
$LN9@IsSkillMot:
  00056	5e		 pop	 esi

; 280  : }

  00057	5d		 pop	 ebp
  00058	c2 08 00	 ret	 8
?IsSkillMotionEnd@ioTargetTimingAttackSkill@@UBE_NKPAVioBaseChar@@@Z ENDP ; ioTargetTimingAttackSkill::IsSkillMotionEnd
_TEXT	ENDS
PUBLIC	?IsAttackEndState@ioTargetTimingAttackSkill@@UBE_NXZ ; ioTargetTimingAttackSkill::IsAttackEndState
; Function compile flags: /Ogsp
;	COMDAT ?IsAttackEndState@ioTargetTimingAttackSkill@@UBE_NXZ
_TEXT	SEGMENT
?IsAttackEndState@ioTargetTimingAttackSkill@@UBE_NXZ PROC ; ioTargetTimingAttackSkill::IsAttackEndState, COMDAT
; _this$ = ecx

; 284  : 	if( m_SkillState == SS_END )

  00000	83 b9 28 13 00
	00 07		 cmp	 DWORD PTR [ecx+4904], 7
  00007	0f 94 c0	 sete	 al

; 285  : 		return true;
; 286  : 
; 287  : 	return false;
; 288  : }

  0000a	c3		 ret	 0
?IsAttackEndState@ioTargetTimingAttackSkill@@UBE_NXZ ENDP ; ioTargetTimingAttackSkill::IsAttackEndState
_TEXT	ENDS
PUBLIC	?IsNoDropState@ioTargetTimingAttackSkill@@UBE_NXZ ; ioTargetTimingAttackSkill::IsNoDropState
; Function compile flags: /Ogsp
;	COMDAT ?IsNoDropState@ioTargetTimingAttackSkill@@UBE_NXZ
_TEXT	SEGMENT
?IsNoDropState@ioTargetTimingAttackSkill@@UBE_NXZ PROC	; ioTargetTimingAttackSkill::IsNoDropState, COMDAT
; _this$ = ecx

; 292  : 	switch( m_SkillState )

  00000	8b 81 28 13 00
	00		 mov	 eax, DWORD PTR [ecx+4904]
  00006	83 c0 fc	 add	 eax, -4			; fffffffcH
  00009	6a 02		 push	 2
  0000b	59		 pop	 ecx
  0000c	3b c8		 cmp	 ecx, eax
  0000e	1a c0		 sbb	 al, al
  00010	fe c0		 inc	 al

; 293  : 	{
; 294  : 	case SS_AIM_ATTACK:
; 295  : 	case SS_ZERO_AIM_ATTACK:
; 296  : 	case SS_ZERO_AIM_EXTRA_ATTACK:
; 297  : 		return true;
; 298  : 	}
; 299  : 
; 300  : 	return false;
; 301  : }

  00012	c3		 ret	 0
?IsNoDropState@ioTargetTimingAttackSkill@@UBE_NXZ ENDP	; ioTargetTimingAttackSkill::IsNoDropState
_TEXT	ENDS
PUBLIC	?InitData@ioTargetTimingAttackSkill@@IAEXXZ	; ioTargetTimingAttackSkill::InitData
EXTRN	__imp_?VEC3_ZERO@ioMath@@2UD3DXVECTOR3@@A:BYTE
EXTRN	__imp_?Clear@ioHashString@@QAEXXZ:PROC
; Function compile flags: /Ogsp
;	COMDAT ?InitData@ioTargetTimingAttackSkill@@IAEXXZ
_TEXT	SEGMENT
?InitData@ioTargetTimingAttackSkill@@IAEXXZ PROC	; ioTargetTimingAttackSkill::InitData, COMDAT
; _this$ = ecx

; 397  : {

  00000	53		 push	 ebx
  00001	8b d9		 mov	 ebx, ecx
  00003	56		 push	 esi

; 398  : 	m_SkillState = SS_NONE;	

  00004	33 f6		 xor	 esi, esi
  00006	57		 push	 edi

; 399  : 	m_bSetHandMesh = false;
; 400  : 	m_dwCurSkillProtectTime = 0;
; 401  : 	m_dwCheckLoopTime = 0;
; 402  : 
; 403  : 	m_szAimedTarget.Clear();

  00007	8d 8b 3c 13 00
	00		 lea	 ecx, DWORD PTR [ebx+4924]
  0000d	89 b3 28 13 00
	00		 mov	 DWORD PTR [ebx+4904], esi
  00013	c6 83 0a 0f 00
	00 00		 mov	 BYTE PTR [ebx+3850], 0
  0001a	89 b3 30 13 00
	00		 mov	 DWORD PTR [ebx+4912], esi
  00020	89 b3 78 13 00
	00		 mov	 DWORD PTR [ebx+4984], esi
  00026	ff 15 00 00 00
	00		 call	 DWORD PTR __imp_?Clear@ioHashString@@QAEXXZ

; 404  : 	m_dwMakerID = -1;

  0002c	83 8b 54 13 00
	00 ff		 or	 DWORD PTR [ebx+4948], -1

; 405  : 	m_dwCheckAimTime = 0;

  00033	89 b3 38 13 00
	00		 mov	 DWORD PTR [ebx+4920], esi

; 406  : 	m_bZeroAimed = false;
; 407  : 
; 408  : 	m_bChangeTargetPrev = false;

  00039	66 89 b3 74 13
	00 00		 mov	 WORD PTR [ebx+4980], si
  00040	c6 83 34 13 00
	00 00		 mov	 BYTE PTR [ebx+4916], 0

; 409  : 	m_bChangeTargetNext = false;
; 410  : 
; 411  : 	m_vAimDir = ioMath::VEC3_ZERO;

  00047	8b 35 00 00 00
	00		 mov	 esi, DWORD PTR __imp_?VEC3_ZERO@ioMath@@2UD3DXVECTOR3@@A
  0004d	8d bb 58 13 00
	00		 lea	 edi, DWORD PTR [ebx+4952]
  00053	a5		 movsd
  00054	a5		 movsd
  00055	a5		 movsd

; 412  : 
; 413  : 	m_dwCheckAttackTime = 0;

  00056	83 a3 cc 13 00
	00 00		 and	 DWORD PTR [ebx+5068], 0
  0005d	5f		 pop	 edi
  0005e	5e		 pop	 esi
  0005f	5b		 pop	 ebx

; 414  : }

  00060	c3		 ret	 0
?InitData@ioTargetTimingAttackSkill@@IAEXXZ ENDP	; ioTargetTimingAttackSkill::InitData
_TEXT	ENDS
PUBLIC	?CreateEffect@ioTargetTimingAttackSkill@@IAEKPAVioBaseChar@@PAVioPlayStage@@AAVioHashString@@AAUD3DXVECTOR3@@3@Z ; ioTargetTimingAttackSkill::CreateEffect
EXTRN	?GetUniqueID@ioMapEffect@@QBEKXZ:PROC		; ioMapEffect::GetUniqueID
EXTRN	?CreateMapEffect@ioPlayStage@@QAEPAVioMapEffect@@ABVioHashString@@ABUD3DXVECTOR3@@1@Z:PROC ; ioPlayStage::CreateMapEffect
EXTRN	__imp_?IsEmpty@ioHashString@@QBE_NXZ:PROC
; Function compile flags: /Ogsp
;	COMDAT ?CreateEffect@ioTargetTimingAttackSkill@@IAEKPAVioBaseChar@@PAVioPlayStage@@AAVioHashString@@AAUD3DXVECTOR3@@3@Z
_TEXT	SEGMENT
_pChar$ = 8						; size = 4
_pStage$ = 12						; size = 4
_szEffect$ = 16						; size = 4
_vPos$ = 20						; size = 4
_vScale$ = 24						; size = 4
?CreateEffect@ioTargetTimingAttackSkill@@IAEKPAVioBaseChar@@PAVioPlayStage@@AAVioHashString@@AAUD3DXVECTOR3@@3@Z PROC ; ioTargetTimingAttackSkill::CreateEffect, COMDAT
; _this$ = ecx

; 419  : {

  00000	55		 push	 ebp
  00001	8b ec		 mov	 ebp, esp

; 420  : 	if ( !pChar || !pStage || szEffect.IsEmpty() )

  00003	83 7d 08 00	 cmp	 DWORD PTR _pChar$[ebp], 0
  00007	74 31		 je	 SHORT $LN2@CreateEffe
  00009	83 7d 0c 00	 cmp	 DWORD PTR _pStage$[ebp], 0
  0000d	74 2b		 je	 SHORT $LN2@CreateEffe
  0000f	8b 4d 10	 mov	 ecx, DWORD PTR _szEffect$[ebp]
  00012	ff 15 00 00 00
	00		 call	 DWORD PTR __imp_?IsEmpty@ioHashString@@QBE_NXZ
  00018	84 c0		 test	 al, al
  0001a	75 1e		 jne	 SHORT $LN2@CreateEffe

; 422  : 
; 423  : 	ioMapEffect *pMaker = pStage->CreateMapEffect( szEffect, vPos, vScale );

  0001c	ff 75 18	 push	 DWORD PTR _vScale$[ebp]
  0001f	8b 4d 0c	 mov	 ecx, DWORD PTR _pStage$[ebp]
  00022	ff 75 14	 push	 DWORD PTR _vPos$[ebp]
  00025	ff 75 10	 push	 DWORD PTR _szEffect$[ebp]
  00028	e8 00 00 00 00	 call	 ?CreateMapEffect@ioPlayStage@@QAEPAVioMapEffect@@ABVioHashString@@ABUD3DXVECTOR3@@1@Z ; ioPlayStage::CreateMapEffect

; 424  : 	if ( pMaker )

  0002d	85 c0		 test	 eax, eax
  0002f	74 09		 je	 SHORT $LN2@CreateEffe

; 425  : 		return pMaker->GetUniqueID();

  00031	8b c8		 mov	 ecx, eax
  00033	e8 00 00 00 00	 call	 ?GetUniqueID@ioMapEffect@@QBEKXZ ; ioMapEffect::GetUniqueID
  00038	eb 03		 jmp	 SHORT $LN4@CreateEffe
$LN2@CreateEffe:

; 421  : 		return -1;

  0003a	83 c8 ff	 or	 eax, -1
$LN4@CreateEffe:

; 426  : 
; 427  : 	return -1;
; 428  : }

  0003d	5d		 pop	 ebp
  0003e	c2 14 00	 ret	 20			; 00000014H
?CreateEffect@ioTargetTimingAttackSkill@@IAEKPAVioBaseChar@@PAVioPlayStage@@AAVioHashString@@AAUD3DXVECTOR3@@3@Z ENDP ; ioTargetTimingAttackSkill::CreateEffect
_TEXT	ENDS
PUBLIC	?DestroyEffect@ioTargetTimingAttackSkill@@IAEXPAVioBaseChar@@PAVioPlayStage@@AAK@Z ; ioTargetTimingAttackSkill::DestroyEffect
EXTRN	?DestroyMapEffect@ioPlayStage@@QAEXK@Z:PROC	; ioPlayStage::DestroyMapEffect
; Function compile flags: /Ogsp
;	COMDAT ?DestroyEffect@ioTargetTimingAttackSkill@@IAEXPAVioBaseChar@@PAVioPlayStage@@AAK@Z
_TEXT	SEGMENT
_pChar$ = 8						; size = 4
_pStage$ = 12						; size = 4
_dwEffectID$ = 16					; size = 4
?DestroyEffect@ioTargetTimingAttackSkill@@IAEXPAVioBaseChar@@PAVioPlayStage@@AAK@Z PROC ; ioTargetTimingAttackSkill::DestroyEffect, COMDAT
; _this$ = ecx

; 431  : {

  00000	55		 push	 ebp
  00001	8b ec		 mov	 ebp, esp

; 432  : 	if ( !pChar || !pStage || dwEffectID == -1 )

  00003	83 7d 08 00	 cmp	 DWORD PTR _pChar$[ebp], 0
  00007	74 1c		 je	 SHORT $LN1@DestroyEff
  00009	8b 4d 0c	 mov	 ecx, DWORD PTR _pStage$[ebp]
  0000c	85 c9		 test	 ecx, ecx
  0000e	74 15		 je	 SHORT $LN1@DestroyEff
  00010	56		 push	 esi
  00011	8b 75 10	 mov	 esi, DWORD PTR _dwEffectID$[ebp]
  00014	8b 06		 mov	 eax, DWORD PTR [esi]
  00016	83 f8 ff	 cmp	 eax, -1
  00019	74 09		 je	 SHORT $LN5@DestroyEff

; 433  : 		return;
; 434  : 
; 435  : 	pStage->DestroyMapEffect( dwEffectID );

  0001b	50		 push	 eax
  0001c	e8 00 00 00 00	 call	 ?DestroyMapEffect@ioPlayStage@@QAEXK@Z ; ioPlayStage::DestroyMapEffect

; 436  : 	dwEffectID = -1;

  00021	83 0e ff	 or	 DWORD PTR [esi], -1
$LN5@DestroyEff:
  00024	5e		 pop	 esi
$LN1@DestroyEff:

; 437  : }

  00025	5d		 pop	 ebp
  00026	c2 0c 00	 ret	 12			; 0000000cH
?DestroyEffect@ioTargetTimingAttackSkill@@IAEXPAVioBaseChar@@PAVioPlayStage@@AAK@Z ENDP ; ioTargetTimingAttackSkill::DestroyEffect
_TEXT	ENDS
PUBLIC	??1tagBaseCharHP@@QAE@XZ			; tagBaseCharHP::~tagBaseCharHP
EXTRN	__imp_??1ioHashString@@QAE@XZ:PROC
; Function compile flags: /Ogsp
;	COMDAT ??1tagBaseCharHP@@QAE@XZ
_TEXT	SEGMENT
??1tagBaseCharHP@@QAE@XZ PROC				; tagBaseCharHP::~tagBaseCharHP, COMDAT
; _this$ = ecx
  00000	ff 25 00 00 00
	00		 jmp	 DWORD PTR __imp_??1ioHashString@@QAE@XZ
??1tagBaseCharHP@@QAE@XZ ENDP				; tagBaseCharHP::~tagBaseCharHP
_TEXT	ENDS
PUBLIC	?SetEndState@ioTargetTimingAttackSkill@@IAEXPAVioBaseChar@@@Z ; ioTargetTimingAttackSkill::SetEndState
; Function compile flags: /Ogsp
;	COMDAT ?SetEndState@ioTargetTimingAttackSkill@@IAEXPAVioBaseChar@@@Z
_TEXT	SEGMENT
_pChar$ = 8						; size = 4
?SetEndState@ioTargetTimingAttackSkill@@IAEXPAVioBaseChar@@@Z PROC ; ioTargetTimingAttackSkill::SetEndState, COMDAT
; _this$ = ecx

; 811  : {

  00000	55		 push	 ebp
  00001	8b ec		 mov	 ebp, esp

; 812  : 	if ( !pChar )

  00003	83 7d 08 00	 cmp	 DWORD PTR _pChar$[ebp], 0
  00007	74 0a		 je	 SHORT $LN2@SetEndStat

; 813  : 		return;
; 814  : 
; 815  : 	m_SkillState = SS_END;

  00009	c7 81 28 13 00
	00 07 00 00 00	 mov	 DWORD PTR [ecx+4904], 7
$LN2@SetEndStat:

; 816  : }

  00013	5d		 pop	 ebp
  00014	c2 04 00	 ret	 4
?SetEndState@ioTargetTimingAttackSkill@@IAEXPAVioBaseChar@@@Z ENDP ; ioTargetTimingAttackSkill::SetEndState
_TEXT	ENDS
PUBLIC	?CheckInputChangeTarget@ioTargetTimingAttackSkill@@IAE_NPAVioBaseChar@@@Z ; ioTargetTimingAttackSkill::CheckInputChangeTarget
EXTRN	?IsJumpKey@ioBaseChar@@QBE_NXZ:PROC		; ioBaseChar::IsJumpKey
EXTRN	?IsDefenseKey@ioBaseChar@@QBE_NXZ:PROC		; ioBaseChar::IsDefenseKey
; Function compile flags: /Ogsp
;	COMDAT ?CheckInputChangeTarget@ioTargetTimingAttackSkill@@IAE_NPAVioBaseChar@@@Z
_TEXT	SEGMENT
_pChar$ = 8						; size = 4
?CheckInputChangeTarget@ioTargetTimingAttackSkill@@IAE_NPAVioBaseChar@@@Z PROC ; ioTargetTimingAttackSkill::CheckInputChangeTarget, COMDAT
; _this$ = ecx

; 821  : {

  00000	55		 push	 ebp
  00001	8b ec		 mov	 ebp, esp
  00003	56		 push	 esi
  00004	57		 push	 edi

; 822  : 	if ( !pChar || !pChar->IsNeedProcess() )

  00005	8b 7d 08	 mov	 edi, DWORD PTR _pChar$[ebp]
  00008	8b f1		 mov	 esi, ecx
  0000a	85 ff		 test	 edi, edi
  0000c	74 38		 je	 SHORT $LN3@CheckInput
  0000e	8b 07		 mov	 eax, DWORD PTR [edi]
  00010	8b cf		 mov	 ecx, edi
  00012	ff 90 00 01 00
	00		 call	 DWORD PTR [eax+256]
  00018	84 c0		 test	 al, al
  0001a	74 2a		 je	 SHORT $LN3@CheckInput

; 824  : 
; 825  : 	if ( pChar->IsDefenseKey() )

  0001c	8b cf		 mov	 ecx, edi
  0001e	e8 00 00 00 00	 call	 ?IsDefenseKey@ioBaseChar@@QBE_NXZ ; ioBaseChar::IsDefenseKey
  00023	84 c0		 test	 al, al
  00025	74 0b		 je	 SHORT $LN2@CheckInput

; 826  : 	{
; 827  : 		m_bChangeTargetNext = true;

  00027	c6 86 75 13 00
	00 01		 mov	 BYTE PTR [esi+4981], 1
$LN7@CheckInput:

; 828  : 		return true;

  0002e	b0 01		 mov	 al, 1
  00030	eb 16		 jmp	 SHORT $LN5@CheckInput
$LN2@CheckInput:

; 829  : 	}
; 830  : 
; 831  : 	if ( pChar->IsJumpKey() )

  00032	8b cf		 mov	 ecx, edi
  00034	e8 00 00 00 00	 call	 ?IsJumpKey@ioBaseChar@@QBE_NXZ ; ioBaseChar::IsJumpKey
  00039	84 c0		 test	 al, al
  0003b	74 09		 je	 SHORT $LN3@CheckInput

; 832  : 	{
; 833  : 		m_bChangeTargetPrev = true;

  0003d	c6 86 74 13 00
	00 01		 mov	 BYTE PTR [esi+4980], 1

; 834  : 		return true;

  00044	eb e8		 jmp	 SHORT $LN7@CheckInput
$LN3@CheckInput:

; 823  : 		return false;

  00046	32 c0		 xor	 al, al
$LN5@CheckInput:
  00048	5f		 pop	 edi
  00049	5e		 pop	 esi

; 835  : 	}
; 836  : 
; 837  : 	return false;
; 838  : }

  0004a	5d		 pop	 ebp
  0004b	c2 04 00	 ret	 4
?CheckInputChangeTarget@ioTargetTimingAttackSkill@@IAE_NPAVioBaseChar@@@Z ENDP ; ioTargetTimingAttackSkill::CheckInputChangeTarget
_TEXT	ENDS
PUBLIC	?CheckInputAttack@ioTargetTimingAttackSkill@@IAE_NPAVioBaseChar@@@Z ; ioTargetTimingAttackSkill::CheckInputAttack
EXTRN	?IsAttackKey@ioBaseChar@@QBE_NXZ:PROC		; ioBaseChar::IsAttackKey
; Function compile flags: /Ogsp
;	COMDAT ?CheckInputAttack@ioTargetTimingAttackSkill@@IAE_NPAVioBaseChar@@@Z
_TEXT	SEGMENT
_pChar$ = 8						; size = 4
?CheckInputAttack@ioTargetTimingAttackSkill@@IAE_NPAVioBaseChar@@@Z PROC ; ioTargetTimingAttackSkill::CheckInputAttack, COMDAT
; _this$ = ecx

; 841  : {

  00000	55		 push	 ebp
  00001	8b ec		 mov	 ebp, esp
  00003	56		 push	 esi
  00004	57		 push	 edi

; 842  : 	if ( !pChar || !pChar->IsNeedProcess() )

  00005	8b 7d 08	 mov	 edi, DWORD PTR _pChar$[ebp]
  00008	8b f1		 mov	 esi, ecx
  0000a	85 ff		 test	 edi, edi
  0000c	74 3a		 je	 SHORT $LN3@CheckInput@2
  0000e	8b 07		 mov	 eax, DWORD PTR [edi]
  00010	8b cf		 mov	 ecx, edi
  00012	ff 90 00 01 00
	00		 call	 DWORD PTR [eax+256]
  00018	84 c0		 test	 al, al
  0001a	74 2c		 je	 SHORT $LN3@CheckInput@2

; 844  : 
; 845  : 	if ( m_dwCheckAttackTime + m_dwAttackTime > FRAMEGETTIME() )

  0001c	ff 15 00 00 00
	00		 call	 DWORD PTR __imp_?GetSingleton@ioFrameTimer@@SAAAV1@XZ
  00022	8b c8		 mov	 ecx, eax
  00024	ff 15 00 00 00
	00		 call	 DWORD PTR __imp_?GetLoopSec@ioFrameTimer@@QBEKXZ
  0002a	8b 8e cc 13 00
	00		 mov	 ecx, DWORD PTR [esi+5068]
  00030	03 8e 24 13 00
	00		 add	 ecx, DWORD PTR [esi+4900]
  00036	3b c8		 cmp	 ecx, eax

; 846  : 		return false;

  00038	77 0e		 ja	 SHORT $LN3@CheckInput@2

; 847  : 
; 848  : 	if ( pChar->IsAttackKey() )

  0003a	8b cf		 mov	 ecx, edi
  0003c	e8 00 00 00 00	 call	 ?IsAttackKey@ioBaseChar@@QBE_NXZ ; ioBaseChar::IsAttackKey
  00041	84 c0		 test	 al, al
  00043	0f 95 c0	 setne	 al

; 849  : 		return true;
; 850  : 
; 851  : 	return false;

  00046	eb 02		 jmp	 SHORT $LN5@CheckInput@2
$LN3@CheckInput@2:

; 843  : 		return false;

  00048	32 c0		 xor	 al, al
$LN5@CheckInput@2:
  0004a	5f		 pop	 edi
  0004b	5e		 pop	 esi

; 852  : }

  0004c	5d		 pop	 ebp
  0004d	c2 04 00	 ret	 4
?CheckInputAttack@ioTargetTimingAttackSkill@@IAE_NPAVioBaseChar@@@Z ENDP ; ioTargetTimingAttackSkill::CheckInputAttack
_TEXT	ENDS
PUBLIC	?CheckExceptionCamera@ioTargetTimingAttackSkill@@UAE_NXZ ; ioTargetTimingAttackSkill::CheckExceptionCamera
; Function compile flags: /Ogsp
;	COMDAT ?CheckExceptionCamera@ioTargetTimingAttackSkill@@UAE_NXZ
_TEXT	SEGMENT
?CheckExceptionCamera@ioTargetTimingAttackSkill@@UAE_NXZ PROC ; ioTargetTimingAttackSkill::CheckExceptionCamera, COMDAT
; _this$ = ecx

; 858  : 	if( !m_szAimedTarget.IsEmpty() )

  00000	81 c1 3c 13 00
	00		 add	 ecx, 4924		; 0000133cH
  00006	ff 15 00 00 00
	00		 call	 DWORD PTR __imp_?IsEmpty@ioHashString@@QBE_NXZ
  0000c	f6 d8		 neg	 al
  0000e	1a c0		 sbb	 al, al
  00010	fe c0		 inc	 al

; 859  : 		return true;
; 860  : 
; 861  : 	return false;
; 862  : }

  00012	c3		 ret	 0
?CheckExceptionCamera@ioTargetTimingAttackSkill@@UAE_NXZ ENDP ; ioTargetTimingAttackSkill::CheckExceptionCamera
_TEXT	ENDS
PUBLIC	?GetExceptionCameraPos@ioTargetTimingAttackSkill@@UAE?AUD3DXVECTOR3@@PAVioBaseChar@@@Z ; ioTargetTimingAttackSkill::GetExceptionCameraPos
EXTRN	?GetBaseChar@ioBaseChar@@QAEPAV1@ABVioHashString@@@Z:PROC ; ioBaseChar::GetBaseChar
; Function compile flags: /Ogsp
;	COMDAT ?GetExceptionCameraPos@ioTargetTimingAttackSkill@@UAE?AUD3DXVECTOR3@@PAVioBaseChar@@@Z
_TEXT	SEGMENT
___$ReturnUdt$ = 8					; size = 4
_pChar$ = 12						; size = 4
?GetExceptionCameraPos@ioTargetTimingAttackSkill@@UAE?AUD3DXVECTOR3@@PAVioBaseChar@@@Z PROC ; ioTargetTimingAttackSkill::GetExceptionCameraPos, COMDAT
; _this$ = ecx

; 865  : {

  00000	55		 push	 ebp
  00001	8b ec		 mov	 ebp, esp
  00003	56		 push	 esi

; 866  : 	if( !pChar )

  00004	8b 75 0c	 mov	 esi, DWORD PTR _pChar$[ebp]
  00007	57		 push	 edi
  00008	85 f6		 test	 esi, esi
  0000a	75 08		 jne	 SHORT $LN2@GetExcepti

; 867  : 		return ioMath::VEC3_ZERO;

  0000c	8b 35 00 00 00
	00		 mov	 esi, DWORD PTR __imp_?VEC3_ZERO@ioMath@@2UD3DXVECTOR3@@A
  00012	eb 24		 jmp	 SHORT $LN5@GetExcepti
$LN2@GetExcepti:

; 868  : 
; 869  : 	ioBaseChar *pTarget = pChar->GetBaseChar( m_szAimedTarget );

  00014	81 c1 3c 13 00
	00		 add	 ecx, 4924		; 0000133cH
  0001a	51		 push	 ecx
  0001b	8b ce		 mov	 ecx, esi
  0001d	e8 00 00 00 00	 call	 ?GetBaseChar@ioBaseChar@@QAEPAV1@ABVioHashString@@@Z ; ioBaseChar::GetBaseChar

; 870  : 	if( pTarget )

  00022	85 c0		 test	 eax, eax
  00024	74 09		 je	 SHORT $LN1@GetExcepti

; 871  : 		return pTarget->GetWorldPosition();

  00026	8b 10		 mov	 edx, DWORD PTR [eax]
  00028	8b c8		 mov	 ecx, eax
  0002a	ff 52 70	 call	 DWORD PTR [edx+112]
  0002d	eb 07		 jmp	 SHORT $LN6@GetExcepti
$LN1@GetExcepti:

; 872  : 
; 873  : 	return pChar->GetWorldPosition();

  0002f	8b 06		 mov	 eax, DWORD PTR [esi]
  00031	8b ce		 mov	 ecx, esi
  00033	ff 50 70	 call	 DWORD PTR [eax+112]
$LN6@GetExcepti:
  00036	8b f0		 mov	 esi, eax
$LN5@GetExcepti:
  00038	8b 45 08	 mov	 eax, DWORD PTR ___$ReturnUdt$[ebp]
  0003b	8b f8		 mov	 edi, eax
  0003d	a5		 movsd
  0003e	a5		 movsd
  0003f	a5		 movsd
  00040	5f		 pop	 edi
  00041	5e		 pop	 esi

; 874  : }

  00042	5d		 pop	 ebp
  00043	c2 08 00	 ret	 8
?GetExceptionCameraPos@ioTargetTimingAttackSkill@@UAE?AUD3DXVECTOR3@@PAVioBaseChar@@@Z ENDP ; ioTargetTimingAttackSkill::GetExceptionCameraPos
_TEXT	ENDS
PUBLIC	?size@?$vector@UtagBaseCharHP@@V?$allocator@UtagBaseCharHP@@@std@@@std@@QBEIXZ ; std::vector<tagBaseCharHP,std::allocator<tagBaseCharHP> >::size
; Function compile flags: /Ogsp
; File c:\program files (x86)\microsoft visual studio 10.0\vc\include\vector
;	COMDAT ?size@?$vector@UtagBaseCharHP@@V?$allocator@UtagBaseCharHP@@@std@@@std@@QBEIXZ
_TEXT	SEGMENT
?size@?$vector@UtagBaseCharHP@@V?$allocator@UtagBaseCharHP@@@std@@@std@@QBEIXZ PROC ; std::vector<tagBaseCharHP,std::allocator<tagBaseCharHP> >::size, COMDAT
; _this$ = ecx

; 879  : 		return (this->_Mylast - this->_Myfirst);

  00000	8b 41 04	 mov	 eax, DWORD PTR [ecx+4]
  00003	2b 01		 sub	 eax, DWORD PTR [ecx]
  00005	6a 18		 push	 24			; 00000018H
  00007	99		 cdq
  00008	59		 pop	 ecx
  00009	f7 f9		 idiv	 ecx

; 880  : 		}

  0000b	c3		 ret	 0
?size@?$vector@UtagBaseCharHP@@V?$allocator@UtagBaseCharHP@@@std@@@std@@QBEIXZ ENDP ; std::vector<tagBaseCharHP,std::allocator<tagBaseCharHP> >::size
_TEXT	ENDS
PUBLIC	?empty@?$vector@UtagBaseCharHP@@V?$allocator@UtagBaseCharHP@@@std@@@std@@QBE_NXZ ; std::vector<tagBaseCharHP,std::allocator<tagBaseCharHP> >::empty
; Function compile flags: /Ogsp
;	COMDAT ?empty@?$vector@UtagBaseCharHP@@V?$allocator@UtagBaseCharHP@@@std@@@std@@QBE_NXZ
_TEXT	SEGMENT
?empty@?$vector@UtagBaseCharHP@@V?$allocator@UtagBaseCharHP@@@std@@@std@@QBE_NXZ PROC ; std::vector<tagBaseCharHP,std::allocator<tagBaseCharHP> >::empty, COMDAT
; _this$ = ecx

; 889  : 		return (this->_Myfirst == this->_Mylast);

  00000	8b 01		 mov	 eax, DWORD PTR [ecx]
  00002	2b 41 04	 sub	 eax, DWORD PTR [ecx+4]
  00005	f7 d8		 neg	 eax
  00007	1b c0		 sbb	 eax, eax
  00009	40		 inc	 eax

; 890  : 		}

  0000a	c3		 ret	 0
?empty@?$vector@UtagBaseCharHP@@V?$allocator@UtagBaseCharHP@@@std@@@std@@QBE_NXZ ENDP ; std::vector<tagBaseCharHP,std::allocator<tagBaseCharHP> >::empty
_TEXT	ENDS
PUBLIC	??A?$vector@UtagBaseCharHP@@V?$allocator@UtagBaseCharHP@@@std@@@std@@QAEAAUtagBaseCharHP@@I@Z ; std::vector<tagBaseCharHP,std::allocator<tagBaseCharHP> >::operator[]
; Function compile flags: /Ogsp
;	COMDAT ??A?$vector@UtagBaseCharHP@@V?$allocator@UtagBaseCharHP@@@std@@@std@@QAEAAUtagBaseCharHP@@I@Z
_TEXT	SEGMENT
__Pos$ = 8						; size = 4
??A?$vector@UtagBaseCharHP@@V?$allocator@UtagBaseCharHP@@@std@@@std@@QAEAAUtagBaseCharHP@@I@Z PROC ; std::vector<tagBaseCharHP,std::allocator<tagBaseCharHP> >::operator[], COMDAT
; _this$ = ecx

; 928  : 		{	// subscript mutable sequence

  00000	55		 push	 ebp
  00001	8b ec		 mov	 ebp, esp

; 929  :  #if _ITERATOR_DEBUG_LEVEL == 2
; 930  : 		if (size() <= _Pos)
; 931  : 			{	// report error
; 932  : 			_DEBUG_ERROR("vector subscript out of range");
; 933  : 			_SCL_SECURE_OUT_OF_RANGE;
; 934  : 			}
; 935  : 
; 936  :  #elif _ITERATOR_DEBUG_LEVEL == 1
; 937  : 		_SCL_SECURE_VALIDATE_RANGE(_Pos < size());
; 938  :  #endif /* _ITERATOR_DEBUG_LEVEL */
; 939  : 
; 940  : 		return (*(this->_Myfirst + _Pos));

  00003	8b 45 08	 mov	 eax, DWORD PTR __Pos$[ebp]
  00006	6b c0 18	 imul	 eax, 24			; 00000018H
  00009	03 01		 add	 eax, DWORD PTR [ecx]

; 941  : 		}

  0000b	5d		 pop	 ebp
  0000c	c2 04 00	 ret	 4
??A?$vector@UtagBaseCharHP@@V?$allocator@UtagBaseCharHP@@@std@@@std@@QAEAAUtagBaseCharHP@@I@Z ENDP ; std::vector<tagBaseCharHP,std::allocator<tagBaseCharHP> >::operator[]
_TEXT	ENDS
PUBLIC	??0?$_Vector_const_iterator@V?$_Vector_val@PAVioBaseChar@@V?$allocator@PAVioBaseChar@@@std@@@std@@@std@@QAE@XZ ; std::_Vector_const_iterator<std::_Vector_val<ioBaseChar *,std::allocator<ioBaseChar *> > >::_Vector_const_iterator<std::_Vector_val<ioBaseChar *,std::allocator<ioBaseChar *> > >
; Function compile flags: /Ogsp
;	COMDAT ??0?$_Vector_const_iterator@V?$_Vector_val@PAVioBaseChar@@V?$allocator@PAVioBaseChar@@@std@@@std@@@std@@QAE@XZ
_TEXT	SEGMENT
??0?$_Vector_const_iterator@V?$_Vector_val@PAVioBaseChar@@V?$allocator@PAVioBaseChar@@@std@@@std@@@std@@QAE@XZ PROC ; std::_Vector_const_iterator<std::_Vector_val<ioBaseChar *,std::allocator<ioBaseChar *> > >::_Vector_const_iterator<std::_Vector_val<ioBaseChar *,std::allocator<ioBaseChar *> > >, COMDAT
; _this$ = ecx

; 40   : 		{	// construct with null pointer

  00000	8b c1		 mov	 eax, ecx
  00002	83 20 00	 and	 DWORD PTR [eax], 0

; 41   : 		}

  00005	c3		 ret	 0
??0?$_Vector_const_iterator@V?$_Vector_val@PAVioBaseChar@@V?$allocator@PAVioBaseChar@@@std@@@std@@@std@@QAE@XZ ENDP ; std::_Vector_const_iterator<std::_Vector_val<ioBaseChar *,std::allocator<ioBaseChar *> > >::_Vector_const_iterator<std::_Vector_val<ioBaseChar *,std::allocator<ioBaseChar *> > >
_TEXT	ENDS
PUBLIC	??D?$_Vector_const_iterator@V?$_Vector_val@PAVioBaseChar@@V?$allocator@PAVioBaseChar@@@std@@@std@@@std@@QBEABQAVioBaseChar@@XZ ; std::_Vector_const_iterator<std::_Vector_val<ioBaseChar *,std::allocator<ioBaseChar *> > >::operator*
; Function compile flags: /Ogsp
;	COMDAT ??D?$_Vector_const_iterator@V?$_Vector_val@PAVioBaseChar@@V?$allocator@PAVioBaseChar@@@std@@@std@@@std@@QBEABQAVioBaseChar@@XZ
_TEXT	SEGMENT
??D?$_Vector_const_iterator@V?$_Vector_val@PAVioBaseChar@@V?$allocator@PAVioBaseChar@@@std@@@std@@@std@@QBEABQAVioBaseChar@@XZ PROC ; std::_Vector_const_iterator<std::_Vector_val<ioBaseChar *,std::allocator<ioBaseChar *> > >::operator*, COMDAT
; _this$ = ecx

; 64   :  #if _ITERATOR_DEBUG_LEVEL == 2
; 65   : 		if (this->_Getcont() == 0
; 66   : 			|| this->_Ptr == 0
; 67   : 			|| this->_Ptr < ((_Myvec *)this->_Getcont())->_Myfirst
; 68   : 			|| ((_Myvec *)this->_Getcont())->_Mylast <= this->_Ptr)
; 69   : 			{	// report error
; 70   : 			_DEBUG_ERROR("vector iterator not dereferencable");
; 71   : 			_SCL_SECURE_OUT_OF_RANGE;
; 72   : 			}
; 73   : 
; 74   :  #elif _ITERATOR_DEBUG_LEVEL == 1
; 75   : 		_SCL_SECURE_VALIDATE(this->_Getcont() != 0);
; 76   : 		_SCL_SECURE_VALIDATE_RANGE(
; 77   : 			this->_Ptr != 0
; 78   : 			&& ((_Myvec *)this->_Getcont())->_Myfirst <= this->_Ptr
; 79   : 			&& this->_Ptr < ((_Myvec *)this->_Getcont())->_Mylast);
; 80   :  #endif /* _ITERATOR_DEBUG_LEVEL */
; 81   : 
; 82   : 		__analysis_assume(this->_Ptr != 0);
; 83   : 
; 84   : 		return (*this->_Ptr);

  00000	8b 01		 mov	 eax, DWORD PTR [ecx]

; 85   : 		}

  00002	c3		 ret	 0
??D?$_Vector_const_iterator@V?$_Vector_val@PAVioBaseChar@@V?$allocator@PAVioBaseChar@@@std@@@std@@@std@@QBEABQAVioBaseChar@@XZ ENDP ; std::_Vector_const_iterator<std::_Vector_val<ioBaseChar *,std::allocator<ioBaseChar *> > >::operator*
_TEXT	ENDS
PUBLIC	??E?$_Vector_const_iterator@V?$_Vector_val@PAVioBaseChar@@V?$allocator@PAVioBaseChar@@@std@@@std@@@std@@QAEAAV01@XZ ; std::_Vector_const_iterator<std::_Vector_val<ioBaseChar *,std::allocator<ioBaseChar *> > >::operator++
; Function compile flags: /Ogsp
;	COMDAT ??E?$_Vector_const_iterator@V?$_Vector_val@PAVioBaseChar@@V?$allocator@PAVioBaseChar@@@std@@@std@@@std@@QAEAAV01@XZ
_TEXT	SEGMENT
??E?$_Vector_const_iterator@V?$_Vector_val@PAVioBaseChar@@V?$allocator@PAVioBaseChar@@@std@@@std@@@std@@QAEAAV01@XZ PROC ; std::_Vector_const_iterator<std::_Vector_val<ioBaseChar *,std::allocator<ioBaseChar *> > >::operator++, COMDAT
; _this$ = ecx

; 93   : 		{	// preincrement

  00000	8b c1		 mov	 eax, ecx

; 94   :  #if _ITERATOR_DEBUG_LEVEL == 2
; 95   : 		if (this->_Getcont() == 0
; 96   : 			|| this->_Ptr == 0
; 97   : 			|| ((_Myvec *)this->_Getcont())->_Mylast <= this->_Ptr)
; 98   : 			{	// report error
; 99   : 			_DEBUG_ERROR("vector iterator not incrementable");
; 100  : 			_SCL_SECURE_OUT_OF_RANGE;
; 101  : 			}
; 102  : 
; 103  :  #elif _ITERATOR_DEBUG_LEVEL == 1
; 104  : 		_SCL_SECURE_VALIDATE(this->_Getcont() != 0);
; 105  : 		_SCL_SECURE_VALIDATE_RANGE(
; 106  : 			this->_Ptr != 0
; 107  : 			&& this->_Ptr < ((_Myvec *)this->_Getcont())->_Mylast);
; 108  :  #endif /* _ITERATOR_DEBUG_LEVEL */
; 109  : 
; 110  : 		++this->_Ptr;

  00002	83 00 04	 add	 DWORD PTR [eax], 4

; 111  : 		return (*this);
; 112  : 		}

  00005	c3		 ret	 0
??E?$_Vector_const_iterator@V?$_Vector_val@PAVioBaseChar@@V?$allocator@PAVioBaseChar@@@std@@@std@@@std@@QAEAAV01@XZ ENDP ; std::_Vector_const_iterator<std::_Vector_val<ioBaseChar *,std::allocator<ioBaseChar *> > >::operator++
_TEXT	ENDS
PUBLIC	?_Inside@?$vector@UtagBaseCharHP@@V?$allocator@UtagBaseCharHP@@@std@@@std@@IBE_NPBUtagBaseCharHP@@@Z ; std::vector<tagBaseCharHP,std::allocator<tagBaseCharHP> >::_Inside
; Function compile flags: /Ogsp
;	COMDAT ?_Inside@?$vector@UtagBaseCharHP@@V?$allocator@UtagBaseCharHP@@@std@@@std@@IBE_NPBUtagBaseCharHP@@@Z
_TEXT	SEGMENT
__Ptr$ = 8						; size = 4
?_Inside@?$vector@UtagBaseCharHP@@V?$allocator@UtagBaseCharHP@@@std@@@std@@IBE_NPBUtagBaseCharHP@@@Z PROC ; std::vector<tagBaseCharHP,std::allocator<tagBaseCharHP> >::_Inside, COMDAT
; _this$ = ecx

; 1285 : 		{	// test if _Ptr points inside vector

  00000	55		 push	 ebp
  00001	8b ec		 mov	 ebp, esp

; 1286 : 		return (_Ptr < this->_Mylast && this->_Myfirst <= _Ptr);

  00003	8b 45 08	 mov	 eax, DWORD PTR __Ptr$[ebp]
  00006	3b 41 04	 cmp	 eax, DWORD PTR [ecx+4]
  00009	73 09		 jae	 SHORT $LN3@Inside
  0000b	39 01		 cmp	 DWORD PTR [ecx], eax
  0000d	77 05		 ja	 SHORT $LN3@Inside
  0000f	33 c0		 xor	 eax, eax
  00011	40		 inc	 eax
  00012	eb 02		 jmp	 SHORT $LN4@Inside
$LN3@Inside:
  00014	33 c0		 xor	 eax, eax
$LN4@Inside:

; 1287 : 		}

  00016	5d		 pop	 ebp
  00017	c2 04 00	 ret	 4
?_Inside@?$vector@UtagBaseCharHP@@V?$allocator@UtagBaseCharHP@@@std@@@std@@IBE_NPBUtagBaseCharHP@@@Z ENDP ; std::vector<tagBaseCharHP,std::allocator<tagBaseCharHP> >::_Inside
_TEXT	ENDS
PUBLIC	?_Orphan_range@?$vector@UtagBaseCharHP@@V?$allocator@UtagBaseCharHP@@@std@@@std@@IBEXPAUtagBaseCharHP@@0@Z ; std::vector<tagBaseCharHP,std::allocator<tagBaseCharHP> >::_Orphan_range
; Function compile flags: /Ogsp
;	COMDAT ?_Orphan_range@?$vector@UtagBaseCharHP@@V?$allocator@UtagBaseCharHP@@@std@@@std@@IBEXPAUtagBaseCharHP@@0@Z
_TEXT	SEGMENT
___formal$ = 8						; size = 4
___formal$ = 12						; size = 4
?_Orphan_range@?$vector@UtagBaseCharHP@@V?$allocator@UtagBaseCharHP@@@std@@@std@@IBEXPAUtagBaseCharHP@@0@Z PROC ; std::vector<tagBaseCharHP,std::allocator<tagBaseCharHP> >::_Orphan_range, COMDAT
; _this$ = ecx

; 1454 : 		}

  00000	c2 08 00	 ret	 8
?_Orphan_range@?$vector@UtagBaseCharHP@@V?$allocator@UtagBaseCharHP@@@std@@@std@@IBEXPAUtagBaseCharHP@@0@Z ENDP ; std::vector<tagBaseCharHP,std::allocator<tagBaseCharHP> >::_Orphan_range
_TEXT	ENDS
PUBLIC	??1?$_Vector_val@UtagBaseCharHP@@V?$allocator@UtagBaseCharHP@@@std@@@std@@QAE@XZ ; std::_Vector_val<tagBaseCharHP,std::allocator<tagBaseCharHP> >::~_Vector_val<tagBaseCharHP,std::allocator<tagBaseCharHP> >
; Function compile flags: /Ogsp
;	COMDAT ??1?$_Vector_val@UtagBaseCharHP@@V?$allocator@UtagBaseCharHP@@@std@@@std@@QAE@XZ
_TEXT	SEGMENT
??1?$_Vector_val@UtagBaseCharHP@@V?$allocator@UtagBaseCharHP@@@std@@@std@@QAE@XZ PROC ; std::_Vector_val<tagBaseCharHP,std::allocator<tagBaseCharHP> >::~_Vector_val<tagBaseCharHP,std::allocator<tagBaseCharHP> >, COMDAT
; _this$ = ecx

; 434  : 		}

  00000	c3		 ret	 0
??1?$_Vector_val@UtagBaseCharHP@@V?$allocator@UtagBaseCharHP@@@std@@@std@@QAE@XZ ENDP ; std::_Vector_val<tagBaseCharHP,std::allocator<tagBaseCharHP> >::~_Vector_val<tagBaseCharHP,std::allocator<tagBaseCharHP> >
_TEXT	ENDS
PUBLIC	??0?$allocator@UtagBaseCharHP@@@std@@QAE@XZ	; std::allocator<tagBaseCharHP>::allocator<tagBaseCharHP>
; Function compile flags: /Ogsp
; File c:\program files (x86)\microsoft visual studio 10.0\vc\include\xmemory
;	COMDAT ??0?$allocator@UtagBaseCharHP@@@std@@QAE@XZ
_TEXT	SEGMENT
??0?$allocator@UtagBaseCharHP@@@std@@QAE@XZ PROC	; std::allocator<tagBaseCharHP>::allocator<tagBaseCharHP>, COMDAT
; _this$ = ecx

; 161  : 	_ALLOCATOR() _THROW0()

  00000	8b c1		 mov	 eax, ecx

; 162  : 		{	// construct default allocator (do nothing)
; 163  : 		}

  00002	c3		 ret	 0
??0?$allocator@UtagBaseCharHP@@@std@@QAE@XZ ENDP	; std::allocator<tagBaseCharHP>::allocator<tagBaseCharHP>
_TEXT	ENDS
PUBLIC	??0?$_Vector_const_iterator@V?$_Vector_val@PAVioBaseChar@@V?$allocator@PAVioBaseChar@@@std@@@std@@@std@@QAE@PAPAVioBaseChar@@PBU_Container_base0@1@@Z ; std::_Vector_const_iterator<std::_Vector_val<ioBaseChar *,std::allocator<ioBaseChar *> > >::_Vector_const_iterator<std::_Vector_val<ioBaseChar *,std::allocator<ioBaseChar *> > >
; Function compile flags: /Ogsp
; File c:\program files (x86)\microsoft visual studio 10.0\vc\include\vector
;	COMDAT ??0?$_Vector_const_iterator@V?$_Vector_val@PAVioBaseChar@@V?$allocator@PAVioBaseChar@@@std@@@std@@@std@@QAE@PAPAVioBaseChar@@PBU_Container_base0@1@@Z
_TEXT	SEGMENT
__Parg$ = 8						; size = 4
__Pvector$ = 12						; size = 4
??0?$_Vector_const_iterator@V?$_Vector_val@PAVioBaseChar@@V?$allocator@PAVioBaseChar@@@std@@@std@@@std@@QAE@PAPAVioBaseChar@@PBU_Container_base0@1@@Z PROC ; std::_Vector_const_iterator<std::_Vector_val<ioBaseChar *,std::allocator<ioBaseChar *> > >::_Vector_const_iterator<std::_Vector_val<ioBaseChar *,std::allocator<ioBaseChar *> > >, COMDAT
; _this$ = ecx

; 45   : 		{	// construct with pointer _Parg

  00000	55		 push	 ebp
  00001	8b ec		 mov	 ebp, esp
  00003	8b c1		 mov	 eax, ecx
  00005	8b 4d 08	 mov	 ecx, DWORD PTR __Parg$[ebp]
  00008	89 08		 mov	 DWORD PTR [eax], ecx

; 46   : 		this->_Adopt(_Pvector);
; 47   : 		}

  0000a	5d		 pop	 ebp
  0000b	c2 08 00	 ret	 8
??0?$_Vector_const_iterator@V?$_Vector_val@PAVioBaseChar@@V?$allocator@PAVioBaseChar@@@std@@@std@@@std@@QAE@PAPAVioBaseChar@@PBU_Container_base0@1@@Z ENDP ; std::_Vector_const_iterator<std::_Vector_val<ioBaseChar *,std::allocator<ioBaseChar *> > >::_Vector_const_iterator<std::_Vector_val<ioBaseChar *,std::allocator<ioBaseChar *> > >
_TEXT	ENDS
PUBLIC	?capacity@?$vector@UtagBaseCharHP@@V?$allocator@UtagBaseCharHP@@@std@@@std@@QBEIXZ ; std::vector<tagBaseCharHP,std::allocator<tagBaseCharHP> >::capacity
; Function compile flags: /Ogsp
;	COMDAT ?capacity@?$vector@UtagBaseCharHP@@V?$allocator@UtagBaseCharHP@@@std@@@std@@QBEIXZ
_TEXT	SEGMENT
?capacity@?$vector@UtagBaseCharHP@@V?$allocator@UtagBaseCharHP@@@std@@@std@@QBEIXZ PROC ; std::vector<tagBaseCharHP,std::allocator<tagBaseCharHP> >::capacity, COMDAT
; _this$ = ecx

; 777  : 		return (this->_Myend - this->_Myfirst);

  00000	8b 41 08	 mov	 eax, DWORD PTR [ecx+8]
  00003	2b 01		 sub	 eax, DWORD PTR [ecx]
  00005	6a 18		 push	 24			; 00000018H
  00007	99		 cdq
  00008	59		 pop	 ecx
  00009	f7 f9		 idiv	 ecx

; 778  : 		}

  0000b	c3		 ret	 0
?capacity@?$vector@UtagBaseCharHP@@V?$allocator@UtagBaseCharHP@@@std@@@std@@QBEIXZ ENDP ; std::vector<tagBaseCharHP,std::allocator<tagBaseCharHP> >::capacity
_TEXT	ENDS
PUBLIC	??_C@_0BD@OLBABOEK@vector?$DMT?$DO?5too?5long?$AA@ ; `string'
PUBLIC	?_Xlen@?$vector@UtagBaseCharHP@@V?$allocator@UtagBaseCharHP@@@std@@@std@@IBEXXZ ; std::vector<tagBaseCharHP,std::allocator<tagBaseCharHP> >::_Xlen
EXTRN	__imp_?_Xlength_error@std@@YAXPBD@Z:PROC
;	COMDAT ??_C@_0BD@OLBABOEK@vector?$DMT?$DO?5too?5long?$AA@
CONST	SEGMENT
??_C@_0BD@OLBABOEK@vector?$DMT?$DO?5too?5long?$AA@ DB 'vector<T> too long'
	DB	00H						; `string'
; Function compile flags: /Ogsp
CONST	ENDS
;	COMDAT ?_Xlen@?$vector@UtagBaseCharHP@@V?$allocator@UtagBaseCharHP@@@std@@@std@@IBEXXZ
_TEXT	SEGMENT
?_Xlen@?$vector@UtagBaseCharHP@@V?$allocator@UtagBaseCharHP@@@std@@@std@@IBEXXZ PROC ; std::vector<tagBaseCharHP,std::allocator<tagBaseCharHP> >::_Xlen, COMDAT
; _this$ = ecx

; 1427 : 		_Xlength_error("vector<T> too long");

  00000	68 00 00 00 00	 push	 OFFSET ??_C@_0BD@OLBABOEK@vector?$DMT?$DO?5too?5long?$AA@
  00005	ff 15 00 00 00
	00		 call	 DWORD PTR __imp_?_Xlength_error@std@@YAXPBD@Z
$LN4@Xlen:
$LN3@Xlen:
  0000b	cc		 int	 3
?_Xlen@?$vector@UtagBaseCharHP@@V?$allocator@UtagBaseCharHP@@@std@@@std@@IBEXXZ ENDP ; std::vector<tagBaseCharHP,std::allocator<tagBaseCharHP> >::_Xlen
_TEXT	ENDS
PUBLIC	??0?$allocator@UtagBaseCharHP@@@std@@QAE@ABV01@@Z ; std::allocator<tagBaseCharHP>::allocator<tagBaseCharHP>
; Function compile flags: /Ogsp
; File c:\program files (x86)\microsoft visual studio 10.0\vc\include\xmemory
;	COMDAT ??0?$allocator@UtagBaseCharHP@@@std@@QAE@ABV01@@Z
_TEXT	SEGMENT
___formal$ = 8						; size = 4
??0?$allocator@UtagBaseCharHP@@@std@@QAE@ABV01@@Z PROC	; std::allocator<tagBaseCharHP>::allocator<tagBaseCharHP>, COMDAT
; _this$ = ecx

; 165  : 	_ALLOCATOR(const _ALLOCATOR<_Ty>&) _THROW0()

  00000	8b c1		 mov	 eax, ecx

; 166  : 		{	// construct by copying (do nothing)
; 167  : 		}

  00002	c2 04 00	 ret	 4
??0?$allocator@UtagBaseCharHP@@@std@@QAE@ABV01@@Z ENDP	; std::allocator<tagBaseCharHP>::allocator<tagBaseCharHP>
_TEXT	ENDS
PUBLIC	?deallocate@?$allocator@UtagBaseCharHP@@@std@@QAEXPAUtagBaseCharHP@@I@Z ; std::allocator<tagBaseCharHP>::deallocate
; Function compile flags: /Ogsp
;	COMDAT ?deallocate@?$allocator@UtagBaseCharHP@@@std@@QAEXPAUtagBaseCharHP@@I@Z
_TEXT	SEGMENT
__Ptr$ = 8						; size = 4
___formal$ = 12						; size = 4
?deallocate@?$allocator@UtagBaseCharHP@@@std@@QAEXPAUtagBaseCharHP@@I@Z PROC ; std::allocator<tagBaseCharHP>::deallocate, COMDAT
; _this$ = ecx

; 181  : 		{	// deallocate object at _Ptr, ignore size

  00000	55		 push	 ebp
  00001	8b ec		 mov	 ebp, esp

; 182  : 		::operator delete(_Ptr);

  00003	ff 75 08	 push	 DWORD PTR __Ptr$[ebp]
  00006	e8 00 00 00 00	 call	 ??3@YAXPAX@Z		; operator delete
  0000b	59		 pop	 ecx

; 183  : 		}

  0000c	5d		 pop	 ebp
  0000d	c2 08 00	 ret	 8
?deallocate@?$allocator@UtagBaseCharHP@@@std@@QAEXPAUtagBaseCharHP@@I@Z ENDP ; std::allocator<tagBaseCharHP>::deallocate
_TEXT	ENDS
PUBLIC	?_Compat@?$_Vector_const_iterator@V?$_Vector_val@PAVioBaseChar@@V?$allocator@PAVioBaseChar@@@std@@@std@@@std@@QBEXABV12@@Z ; std::_Vector_const_iterator<std::_Vector_val<ioBaseChar *,std::allocator<ioBaseChar *> > >::_Compat
; Function compile flags: /Ogsp
; File c:\program files (x86)\microsoft visual studio 10.0\vc\include\vector
;	COMDAT ?_Compat@?$_Vector_const_iterator@V?$_Vector_val@PAVioBaseChar@@V?$allocator@PAVioBaseChar@@@std@@@std@@@std@@QBEXABV12@@Z
_TEXT	SEGMENT
___formal$ = 8						; size = 4
?_Compat@?$_Vector_const_iterator@V?$_Vector_val@PAVioBaseChar@@V?$allocator@PAVioBaseChar@@@std@@@std@@@std@@QBEXABV12@@Z PROC ; std::_Vector_const_iterator<std::_Vector_val<ioBaseChar *,std::allocator<ioBaseChar *> > >::_Compat, COMDAT
; _this$ = ecx

; 253  : 		}

  00000	c2 04 00	 ret	 4
?_Compat@?$_Vector_const_iterator@V?$_Vector_val@PAVioBaseChar@@V?$allocator@PAVioBaseChar@@@std@@@std@@@std@@QBEXABV12@@Z ENDP ; std::_Vector_const_iterator<std::_Vector_val<ioBaseChar *,std::allocator<ioBaseChar *> > >::_Compat
_TEXT	ENDS
PUBLIC	??0?$_Vector_const_iterator@V?$_Vector_val@UtagBaseCharHP@@V?$allocator@UtagBaseCharHP@@@std@@@std@@@std@@QAE@PAUtagBaseCharHP@@PBU_Container_base0@1@@Z ; std::_Vector_const_iterator<std::_Vector_val<tagBaseCharHP,std::allocator<tagBaseCharHP> > >::_Vector_const_iterator<std::_Vector_val<tagBaseCharHP,std::allocator<tagBaseCharHP> > >
; Function compile flags: /Ogsp
;	COMDAT ??0?$_Vector_const_iterator@V?$_Vector_val@UtagBaseCharHP@@V?$allocator@UtagBaseCharHP@@@std@@@std@@@std@@QAE@PAUtagBaseCharHP@@PBU_Container_base0@1@@Z
_TEXT	SEGMENT
__Parg$ = 8						; size = 4
__Pvector$ = 12						; size = 4
??0?$_Vector_const_iterator@V?$_Vector_val@UtagBaseCharHP@@V?$allocator@UtagBaseCharHP@@@std@@@std@@@std@@QAE@PAUtagBaseCharHP@@PBU_Container_base0@1@@Z PROC ; std::_Vector_const_iterator<std::_Vector_val<tagBaseCharHP,std::allocator<tagBaseCharHP> > >::_Vector_const_iterator<std::_Vector_val<tagBaseCharHP,std::allocator<tagBaseCharHP> > >, COMDAT
; _this$ = ecx

; 45   : 		{	// construct with pointer _Parg

  00000	55		 push	 ebp
  00001	8b ec		 mov	 ebp, esp
  00003	8b c1		 mov	 eax, ecx
  00005	8b 4d 08	 mov	 ecx, DWORD PTR __Parg$[ebp]
  00008	89 08		 mov	 DWORD PTR [eax], ecx

; 46   : 		this->_Adopt(_Pvector);
; 47   : 		}

  0000a	5d		 pop	 ebp
  0000b	c2 08 00	 ret	 8
??0?$_Vector_const_iterator@V?$_Vector_val@UtagBaseCharHP@@V?$allocator@UtagBaseCharHP@@@std@@@std@@@std@@QAE@PAUtagBaseCharHP@@PBU_Container_base0@1@@Z ENDP ; std::_Vector_const_iterator<std::_Vector_val<tagBaseCharHP,std::allocator<tagBaseCharHP> > >::_Vector_const_iterator<std::_Vector_val<tagBaseCharHP,std::allocator<tagBaseCharHP> > >
_TEXT	ENDS
PUBLIC	?max_size@?$allocator@UtagBaseCharHP@@@std@@QBEIXZ ; std::allocator<tagBaseCharHP>::max_size
; Function compile flags: /Ogsp
; File c:\program files (x86)\microsoft visual studio 10.0\vc\include\xmemory
;	COMDAT ?max_size@?$allocator@UtagBaseCharHP@@@std@@QBEIXZ
_TEXT	SEGMENT
?max_size@?$allocator@UtagBaseCharHP@@@std@@QBEIXZ PROC	; std::allocator<tagBaseCharHP>::max_size, COMDAT
; _this$ = ecx

; 218  : 		_SIZT _Count = (_SIZT)(-1) / sizeof (_Ty);
; 219  : 		return (0 < _Count ? _Count : 1);

  00000	b8 aa aa aa 0a	 mov	 eax, 178956970		; 0aaaaaaaH

; 220  : 		}

  00005	c3		 ret	 0
?max_size@?$allocator@UtagBaseCharHP@@@std@@QBEIXZ ENDP	; std::allocator<tagBaseCharHP>::max_size
_TEXT	ENDS
PUBLIC	?_Compat@?$_Vector_const_iterator@V?$_Vector_val@UtagBaseCharHP@@V?$allocator@UtagBaseCharHP@@@std@@@std@@@std@@QBEXABV12@@Z ; std::_Vector_const_iterator<std::_Vector_val<tagBaseCharHP,std::allocator<tagBaseCharHP> > >::_Compat
; Function compile flags: /Ogsp
; File c:\program files (x86)\microsoft visual studio 10.0\vc\include\vector
;	COMDAT ?_Compat@?$_Vector_const_iterator@V?$_Vector_val@UtagBaseCharHP@@V?$allocator@UtagBaseCharHP@@@std@@@std@@@std@@QBEXABV12@@Z
_TEXT	SEGMENT
___formal$ = 8						; size = 4
?_Compat@?$_Vector_const_iterator@V?$_Vector_val@UtagBaseCharHP@@V?$allocator@UtagBaseCharHP@@@std@@@std@@@std@@QBEXABV12@@Z PROC ; std::_Vector_const_iterator<std::_Vector_val<tagBaseCharHP,std::allocator<tagBaseCharHP> > >::_Compat, COMDAT
; _this$ = ecx

; 253  : 		}

  00000	c2 04 00	 ret	 4
?_Compat@?$_Vector_const_iterator@V?$_Vector_val@UtagBaseCharHP@@V?$allocator@UtagBaseCharHP@@@std@@@std@@@std@@QBEXABV12@@Z ENDP ; std::_Vector_const_iterator<std::_Vector_val<tagBaseCharHP,std::allocator<tagBaseCharHP> > >::_Compat
_TEXT	ENDS
PUBLIC	??0D3DXVECTOR3@@QAE@XZ				; D3DXVECTOR3::D3DXVECTOR3
; Function compile flags: /Ogsp
; File c:\program files (x86)\microsoft directx sdk (june 2010)\include\d3dx9math.h
;	COMDAT ??0D3DXVECTOR3@@QAE@XZ
_TEXT	SEGMENT
??0D3DXVECTOR3@@QAE@XZ PROC				; D3DXVECTOR3::D3DXVECTOR3, COMDAT
; _this$ = ecx

; 165  :     D3DXVECTOR3() {};

  00000	8b c1		 mov	 eax, ecx
  00002	c3		 ret	 0
??0D3DXVECTOR3@@QAE@XZ ENDP				; D3DXVECTOR3::D3DXVECTOR3
_TEXT	ENDS
PUBLIC	??0D3DXQUATERNION@@QAE@XZ			; D3DXQUATERNION::D3DXQUATERNION
; Function compile flags: /Ogsp
;	COMDAT ??0D3DXQUATERNION@@QAE@XZ
_TEXT	SEGMENT
??0D3DXQUATERNION@@QAE@XZ PROC				; D3DXQUATERNION::D3DXQUATERNION, COMDAT
; _this$ = ecx

; 429  :     D3DXQUATERNION() {}

  00000	8b c1		 mov	 eax, ecx
  00002	c3		 ret	 0
??0D3DXQUATERNION@@QAE@XZ ENDP				; D3DXQUATERNION::D3DXQUATERNION
_TEXT	ENDS
PUBLIC	??0D3DXVECTOR3@@QAE@MMM@Z			; D3DXVECTOR3::D3DXVECTOR3
; Function compile flags: /Ogsp
; File c:\program files (x86)\microsoft directx sdk (june 2010)\include\d3dx9math.inl
;	COMDAT ??0D3DXVECTOR3@@QAE@MMM@Z
_TEXT	SEGMENT
_fx$ = 8						; size = 4
_fy$ = 12						; size = 4
_fz$ = 16						; size = 4
??0D3DXVECTOR3@@QAE@MMM@Z PROC				; D3DXVECTOR3::D3DXVECTOR3, COMDAT
; _this$ = ecx

; 303  : {

  00000	55		 push	 ebp
  00001	8b ec		 mov	 ebp, esp

; 304  :     x = fx;

  00003	f3 0f 10 45 08	 movss	 xmm0, DWORD PTR _fx$[ebp]
  00008	8b c1		 mov	 eax, ecx
  0000a	f3 0f 11 00	 movss	 DWORD PTR [eax], xmm0

; 305  :     y = fy;

  0000e	f3 0f 10 45 0c	 movss	 xmm0, DWORD PTR _fy$[ebp]
  00013	f3 0f 11 40 04	 movss	 DWORD PTR [eax+4], xmm0

; 306  :     z = fz;

  00018	f3 0f 10 45 10	 movss	 xmm0, DWORD PTR _fz$[ebp]
  0001d	f3 0f 11 40 08	 movss	 DWORD PTR [eax+8], xmm0

; 307  : }

  00022	5d		 pop	 ebp
  00023	c2 0c 00	 ret	 12			; 0000000cH
??0D3DXVECTOR3@@QAE@MMM@Z ENDP				; D3DXVECTOR3::D3DXVECTOR3
_TEXT	ENDS
PUBLIC	??HD3DXVECTOR3@@QBE?AU0@ABU0@@Z			; D3DXVECTOR3::operator+
; Function compile flags: /Ogsp
;	COMDAT ??HD3DXVECTOR3@@QBE?AU0@ABU0@@Z
_TEXT	SEGMENT
___$ReturnUdt$ = 8					; size = 4
_v$ = 12						; size = 4
??HD3DXVECTOR3@@QBE?AU0@ABU0@@Z PROC			; D3DXVECTOR3::operator+, COMDAT
; _this$ = ecx

; 380  : {

  00000	55		 push	 ebp
  00001	8b ec		 mov	 ebp, esp

; 381  :     return D3DXVECTOR3(x + v.x, y + v.y, z + v.z);

  00003	8b 55 0c	 mov	 edx, DWORD PTR _v$[ebp]
  00006	f3 0f 10 02	 movss	 xmm0, DWORD PTR [edx]
  0000a	f3 0f 10 09	 movss	 xmm1, DWORD PTR [ecx]
  0000e	8b 45 08	 mov	 eax, DWORD PTR ___$ReturnUdt$[ebp]
  00011	0f 5a c0	 cvtps2pd xmm0, xmm0
  00014	0f 5a c9	 cvtps2pd xmm1, xmm1
  00017	f2 0f 58 c1	 addsd	 xmm0, xmm1
  0001b	f3 0f 10 49 04	 movss	 xmm1, DWORD PTR [ecx+4]
  00020	66 0f 5a c0	 cvtpd2ps xmm0, xmm0
  00024	f3 0f 11 00	 movss	 DWORD PTR [eax], xmm0
  00028	f3 0f 10 42 04	 movss	 xmm0, DWORD PTR [edx+4]
  0002d	0f 5a c0	 cvtps2pd xmm0, xmm0
  00030	0f 5a c9	 cvtps2pd xmm1, xmm1
  00033	f2 0f 58 c1	 addsd	 xmm0, xmm1
  00037	f3 0f 10 49 08	 movss	 xmm1, DWORD PTR [ecx+8]
  0003c	66 0f 5a c0	 cvtpd2ps xmm0, xmm0
  00040	f3 0f 11 40 04	 movss	 DWORD PTR [eax+4], xmm0
  00045	f3 0f 10 42 08	 movss	 xmm0, DWORD PTR [edx+8]
  0004a	0f 5a c0	 cvtps2pd xmm0, xmm0
  0004d	0f 5a c9	 cvtps2pd xmm1, xmm1
  00050	f2 0f 58 c1	 addsd	 xmm0, xmm1
  00054	66 0f 5a c0	 cvtpd2ps xmm0, xmm0
  00058	f3 0f 11 40 08	 movss	 DWORD PTR [eax+8], xmm0

; 382  : }

  0005d	5d		 pop	 ebp
  0005e	c2 08 00	 ret	 8
??HD3DXVECTOR3@@QBE?AU0@ABU0@@Z ENDP			; D3DXVECTOR3::operator+
_TEXT	ENDS
PUBLIC	??GD3DXVECTOR3@@QBE?AU0@ABU0@@Z			; D3DXVECTOR3::operator-
; Function compile flags: /Ogsp
;	COMDAT ??GD3DXVECTOR3@@QBE?AU0@ABU0@@Z
_TEXT	SEGMENT
___$ReturnUdt$ = 8					; size = 4
_v$ = 12						; size = 4
??GD3DXVECTOR3@@QBE?AU0@ABU0@@Z PROC			; D3DXVECTOR3::operator-, COMDAT
; _this$ = ecx

; 386  : {

  00000	55		 push	 ebp
  00001	8b ec		 mov	 ebp, esp

; 387  :     return D3DXVECTOR3(x - v.x, y - v.y, z - v.z);

  00003	8b 55 0c	 mov	 edx, DWORD PTR _v$[ebp]
  00006	f3 0f 10 01	 movss	 xmm0, DWORD PTR [ecx]
  0000a	f3 0f 10 0a	 movss	 xmm1, DWORD PTR [edx]
  0000e	8b 45 08	 mov	 eax, DWORD PTR ___$ReturnUdt$[ebp]
  00011	0f 5a c0	 cvtps2pd xmm0, xmm0
  00014	0f 5a c9	 cvtps2pd xmm1, xmm1
  00017	f2 0f 5c c1	 subsd	 xmm0, xmm1
  0001b	f3 0f 10 4a 04	 movss	 xmm1, DWORD PTR [edx+4]
  00020	66 0f 5a c0	 cvtpd2ps xmm0, xmm0
  00024	f3 0f 11 00	 movss	 DWORD PTR [eax], xmm0
  00028	f3 0f 10 41 04	 movss	 xmm0, DWORD PTR [ecx+4]
  0002d	0f 5a c0	 cvtps2pd xmm0, xmm0
  00030	0f 5a c9	 cvtps2pd xmm1, xmm1
  00033	f2 0f 5c c1	 subsd	 xmm0, xmm1
  00037	f3 0f 10 4a 08	 movss	 xmm1, DWORD PTR [edx+8]
  0003c	66 0f 5a c0	 cvtpd2ps xmm0, xmm0
  00040	f3 0f 11 40 04	 movss	 DWORD PTR [eax+4], xmm0
  00045	f3 0f 10 41 08	 movss	 xmm0, DWORD PTR [ecx+8]
  0004a	0f 5a c0	 cvtps2pd xmm0, xmm0
  0004d	0f 5a c9	 cvtps2pd xmm1, xmm1
  00050	f2 0f 5c c1	 subsd	 xmm0, xmm1
  00054	66 0f 5a c0	 cvtpd2ps xmm0, xmm0
  00058	f3 0f 11 40 08	 movss	 DWORD PTR [eax+8], xmm0

; 388  : }

  0005d	5d		 pop	 ebp
  0005e	c2 08 00	 ret	 8
??GD3DXVECTOR3@@QBE?AU0@ABU0@@Z ENDP			; D3DXVECTOR3::operator-
_TEXT	ENDS
PUBLIC	??DD3DXVECTOR3@@QBE?AU0@M@Z			; D3DXVECTOR3::operator*
; Function compile flags: /Ogsp
;	COMDAT ??DD3DXVECTOR3@@QBE?AU0@M@Z
_TEXT	SEGMENT
___$ReturnUdt$ = 8					; size = 4
_f$ = 12						; size = 4
??DD3DXVECTOR3@@QBE?AU0@M@Z PROC			; D3DXVECTOR3::operator*, COMDAT
; _this$ = ecx

; 392  : {

  00000	55		 push	 ebp
  00001	8b ec		 mov	 ebp, esp

; 393  :     return D3DXVECTOR3(x * f, y * f, z * f);

  00003	f3 0f 10 4d 0c	 movss	 xmm1, DWORD PTR _f$[ebp]
  00008	f3 0f 10 01	 movss	 xmm0, DWORD PTR [ecx]
  0000c	8b 45 08	 mov	 eax, DWORD PTR ___$ReturnUdt$[ebp]
  0000f	0f 5a c0	 cvtps2pd xmm0, xmm0
  00012	0f 5a c9	 cvtps2pd xmm1, xmm1
  00015	f2 0f 59 c1	 mulsd	 xmm0, xmm1
  00019	f3 0f 10 4d 0c	 movss	 xmm1, DWORD PTR _f$[ebp]
  0001e	66 0f 5a c0	 cvtpd2ps xmm0, xmm0
  00022	f3 0f 11 00	 movss	 DWORD PTR [eax], xmm0
  00026	f3 0f 10 41 04	 movss	 xmm0, DWORD PTR [ecx+4]
  0002b	0f 5a c0	 cvtps2pd xmm0, xmm0
  0002e	0f 5a c9	 cvtps2pd xmm1, xmm1
  00031	f2 0f 59 c1	 mulsd	 xmm0, xmm1
  00035	f3 0f 10 4d 0c	 movss	 xmm1, DWORD PTR _f$[ebp]
  0003a	66 0f 5a c0	 cvtpd2ps xmm0, xmm0
  0003e	f3 0f 11 40 04	 movss	 DWORD PTR [eax+4], xmm0
  00043	f3 0f 10 41 08	 movss	 xmm0, DWORD PTR [ecx+8]
  00048	0f 5a c0	 cvtps2pd xmm0, xmm0
  0004b	0f 5a c9	 cvtps2pd xmm1, xmm1
  0004e	f2 0f 59 c1	 mulsd	 xmm0, xmm1
  00052	66 0f 5a c0	 cvtpd2ps xmm0, xmm0
  00056	f3 0f 11 40 08	 movss	 DWORD PTR [eax+8], xmm0

; 394  : }

  0005b	5d		 pop	 ebp
  0005c	c2 08 00	 ret	 8
??DD3DXVECTOR3@@QBE?AU0@M@Z ENDP			; D3DXVECTOR3::operator*
_TEXT	ENDS
PUBLIC	??$addressof@$$CBUtagBaseCharHP@@@std@@YAPBUtagBaseCharHP@@ABU1@@Z ; std::addressof<tagBaseCharHP const >
; Function compile flags: /Ogsp
; File c:\program files (x86)\microsoft visual studio 10.0\vc\include\xmemory
;	COMDAT ??$addressof@$$CBUtagBaseCharHP@@@std@@YAPBUtagBaseCharHP@@ABU1@@Z
_TEXT	SEGMENT
__Val$ = 8						; size = 4
??$addressof@$$CBUtagBaseCharHP@@@std@@YAPBUtagBaseCharHP@@ABU1@@Z PROC ; std::addressof<tagBaseCharHP const >, COMDAT

; 110  : 	{	// return address of _Val

  00000	55		 push	 ebp
  00001	8b ec		 mov	 ebp, esp

; 111  : 	return ((_Ty *) &(char&)_Val);

  00003	8b 45 08	 mov	 eax, DWORD PTR __Val$[ebp]

; 112  : 	}

  00006	5d		 pop	 ebp
  00007	c3		 ret	 0
??$addressof@$$CBUtagBaseCharHP@@@std@@YAPBUtagBaseCharHP@@ABU1@@Z ENDP ; std::addressof<tagBaseCharHP const >
_TEXT	ENDS
PUBLIC	__TI2?AVbad_alloc@std@@
PUBLIC	??$_Allocate@UtagBaseCharHP@@@std@@YAPAUtagBaseCharHP@@IPAU1@@Z ; std::_Allocate<tagBaseCharHP>
PUBLIC	__CTA2?AVbad_alloc@std@@
PUBLIC	__CT??_R0?AVbad_alloc@std@@@8??0bad_alloc@std@@QAE@ABV01@@Z12
PUBLIC	??0bad_alloc@std@@QAE@ABV01@@Z			; std::bad_alloc::bad_alloc
PUBLIC	__CT??_R0?AVexception@std@@@8??0exception@std@@QAE@ABV01@@Z12
EXTRN	??2@YAPAXI@Z:PROC				; operator new
EXTRN	__CxxThrowException@8:PROC
EXTRN	??0exception@std@@QAE@ABV01@@Z:PROC		; std::exception::exception
;	COMDAT __CT??_R0?AVexception@std@@@8??0exception@std@@QAE@ABV01@@Z12
; File c:\program files (x86)\microsoft visual studio 10.0\vc\include\exception
xdata$x	SEGMENT
__CT??_R0?AVexception@std@@@8??0exception@std@@QAE@ABV01@@Z12 DD 00H
	DD	FLAT:??_R0?AVexception@std@@@8
	DD	00H
	DD	0ffffffffH
	ORG $+4
	DD	0cH
	DD	FLAT:??0exception@std@@QAE@ABV01@@Z
xdata$x	ENDS
;	COMDAT __CT??_R0?AVbad_alloc@std@@@8??0bad_alloc@std@@QAE@ABV01@@Z12
xdata$x	SEGMENT
__CT??_R0?AVbad_alloc@std@@@8??0bad_alloc@std@@QAE@ABV01@@Z12 DD 00H
	DD	FLAT:??_R0?AVbad_alloc@std@@@8
	DD	00H
	DD	0ffffffffH
	ORG $+4
	DD	0cH
	DD	FLAT:??0bad_alloc@std@@QAE@ABV01@@Z
xdata$x	ENDS
;	COMDAT __CTA2?AVbad_alloc@std@@
xdata$x	SEGMENT
__CTA2?AVbad_alloc@std@@ DD 02H
	DD	FLAT:__CT??_R0?AVbad_alloc@std@@@8??0bad_alloc@std@@QAE@ABV01@@Z12
	DD	FLAT:__CT??_R0?AVexception@std@@@8??0exception@std@@QAE@ABV01@@Z12
xdata$x	ENDS
;	COMDAT __TI2?AVbad_alloc@std@@
xdata$x	SEGMENT
__TI2?AVbad_alloc@std@@ DD 00H
	DD	FLAT:??1bad_alloc@std@@UAE@XZ
	DD	00H
	DD	FLAT:__CTA2?AVbad_alloc@std@@
; Function compile flags: /Ogsp
; File c:\program files (x86)\microsoft visual studio 10.0\vc\include\xmemory
xdata$x	ENDS
;	COMDAT ??$_Allocate@UtagBaseCharHP@@@std@@YAPAUtagBaseCharHP@@IPAU1@@Z
_TEXT	SEGMENT
$T554141 = -12						; size = 12
$T554146 = 8						; size = 4
__Count$ = 8						; size = 4
___formal$ = 12						; size = 4
??$_Allocate@UtagBaseCharHP@@@std@@YAPAUtagBaseCharHP@@IPAU1@@Z PROC ; std::_Allocate<tagBaseCharHP>, COMDAT

; 30   : 	{	// allocate storage for _Count elements of type _Ty

  00000	55		 push	 ebp
  00001	8b ec		 mov	 ebp, esp

; 31   : 	void *_Ptr = 0;
; 32   : 
; 33   : 	if (_Count <= 0)

  00003	8b 4d 08	 mov	 ecx, DWORD PTR __Count$[ebp]
  00006	83 ec 0c	 sub	 esp, 12			; 0000000cH
  00009	33 c0		 xor	 eax, eax
  0000b	85 c9		 test	 ecx, ecx

; 34   : 		_Count = 0;
; 35   : 	else if (((_SIZT)(-1) / sizeof (_Ty) < _Count)

  0000d	74 3c		 je	 SHORT $LN5@Allocate

; 36   : 		|| (_Ptr = ::operator new(_Count * sizeof (_Ty))) == 0)

  0000f	81 f9 aa aa aa
	0a		 cmp	 ecx, 178956970		; 0aaaaaaaH
  00015	77 0e		 ja	 SHORT $LN1@Allocate
  00017	6b c9 18	 imul	 ecx, 24			; 00000018H
  0001a	51		 push	 ecx
  0001b	e8 00 00 00 00	 call	 ??2@YAPAXI@Z		; operator new
  00020	59		 pop	 ecx
  00021	85 c0		 test	 eax, eax

; 38   : 
; 39   : 	return ((_Ty _FARQ *)_Ptr);

  00023	75 26		 jne	 SHORT $LN5@Allocate
$LN1@Allocate:

; 37   : 		_THROW_NCEE(bad_alloc, 0);

  00025	83 65 08 00	 and	 DWORD PTR $T554146[ebp], 0
  00029	8d 45 08	 lea	 eax, DWORD PTR $T554146[ebp]
  0002c	50		 push	 eax
  0002d	8d 4d f4	 lea	 ecx, DWORD PTR $T554141[ebp]
  00030	ff 15 00 00 00
	00		 call	 DWORD PTR __imp_??0exception@std@@QAE@ABQBD@Z
  00036	68 00 00 00 00	 push	 OFFSET __TI2?AVbad_alloc@std@@
  0003b	8d 45 f4	 lea	 eax, DWORD PTR $T554141[ebp]
  0003e	50		 push	 eax
  0003f	c7 45 f4 00 00
	00 00		 mov	 DWORD PTR $T554141[ebp], OFFSET ??_7bad_alloc@std@@6B@
  00046	e8 00 00 00 00	 call	 __CxxThrowException@8
$LN10@Allocate:
$LN5@Allocate:

; 40   : 	}

  0004b	c9		 leave
  0004c	c3		 ret	 0
$LN9@Allocate:
??$_Allocate@UtagBaseCharHP@@@std@@YAPAUtagBaseCharHP@@IPAU1@@Z ENDP ; std::_Allocate<tagBaseCharHP>
_TEXT	ENDS
PUBLIC	??G?$_Vector_const_iterator@V?$_Vector_val@UtagBaseCharHP@@V?$allocator@UtagBaseCharHP@@@std@@@std@@@std@@QBEHABV01@@Z ; std::_Vector_const_iterator<std::_Vector_val<tagBaseCharHP,std::allocator<tagBaseCharHP> > >::operator-
; Function compile flags: /Ogsp
; File c:\program files (x86)\microsoft visual studio 10.0\vc\include\vector
;	COMDAT ??G?$_Vector_const_iterator@V?$_Vector_val@UtagBaseCharHP@@V?$allocator@UtagBaseCharHP@@@std@@@std@@@std@@QBEHABV01@@Z
_TEXT	SEGMENT
__Right$ = 8						; size = 4
??G?$_Vector_const_iterator@V?$_Vector_val@UtagBaseCharHP@@V?$allocator@UtagBaseCharHP@@@std@@@std@@@std@@QBEHABV01@@Z PROC ; std::_Vector_const_iterator<std::_Vector_val<tagBaseCharHP,std::allocator<tagBaseCharHP> > >::operator-, COMDAT
; _this$ = ecx

; 190  : 		{	// return difference of iterators

  00000	55		 push	 ebp
  00001	8b ec		 mov	 ebp, esp

; 191  : 		_Compat(_Right);
; 192  : 		return (this->_Ptr - _Right._Ptr);

  00003	8b 01		 mov	 eax, DWORD PTR [ecx]
  00005	8b 4d 08	 mov	 ecx, DWORD PTR __Right$[ebp]
  00008	2b 01		 sub	 eax, DWORD PTR [ecx]
  0000a	6a 18		 push	 24			; 00000018H
  0000c	99		 cdq
  0000d	59		 pop	 ecx
  0000e	f7 f9		 idiv	 ecx

; 193  : 		}

  00010	5d		 pop	 ebp
  00011	c2 04 00	 ret	 4
??G?$_Vector_const_iterator@V?$_Vector_val@UtagBaseCharHP@@V?$allocator@UtagBaseCharHP@@@std@@@std@@@std@@QBEHABV01@@Z ENDP ; std::_Vector_const_iterator<std::_Vector_val<tagBaseCharHP,std::allocator<tagBaseCharHP> > >::operator-
_TEXT	ENDS
PUBLIC	??$forward@AAUtagBaseCharHP@@@std@@YAAAUtagBaseCharHP@@AAU1@@Z ; std::forward<tagBaseCharHP &>
; Function compile flags: /Ogsp
; File c:\program files (x86)\microsoft visual studio 10.0\vc\include\utility
;	COMDAT ??$forward@AAUtagBaseCharHP@@@std@@YAAAUtagBaseCharHP@@AAU1@@Z
_TEXT	SEGMENT
__Arg$ = 8						; size = 4
??$forward@AAUtagBaseCharHP@@@std@@YAAAUtagBaseCharHP@@AAU1@@Z PROC ; std::forward<tagBaseCharHP &>, COMDAT

; 78   : 	{	// forward _Arg, given explicitly specified type parameter

  00000	55		 push	 ebp
  00001	8b ec		 mov	 ebp, esp

; 79   : 	return ((_Ty&&)_Arg);

  00003	8b 45 08	 mov	 eax, DWORD PTR __Arg$[ebp]

; 80   : 	}

  00006	5d		 pop	 ebp
  00007	c3		 ret	 0
??$forward@AAUtagBaseCharHP@@@std@@YAAAUtagBaseCharHP@@AAU1@@Z ENDP ; std::forward<tagBaseCharHP &>
_TEXT	ENDS
PUBLIC	??$forward@ABUtagBaseCharHP@@@std@@YAABUtagBaseCharHP@@ABU1@@Z ; std::forward<tagBaseCharHP const &>
; Function compile flags: /Ogsp
;	COMDAT ??$forward@ABUtagBaseCharHP@@@std@@YAABUtagBaseCharHP@@ABU1@@Z
_TEXT	SEGMENT
__Arg$ = 8						; size = 4
??$forward@ABUtagBaseCharHP@@@std@@YAABUtagBaseCharHP@@ABU1@@Z PROC ; std::forward<tagBaseCharHP const &>, COMDAT

; 78   : 	{	// forward _Arg, given explicitly specified type parameter

  00000	55		 push	 ebp
  00001	8b ec		 mov	 ebp, esp

; 79   : 	return ((_Ty&&)_Arg);

  00003	8b 45 08	 mov	 eax, DWORD PTR __Arg$[ebp]

; 80   : 	}

  00006	5d		 pop	 ebp
  00007	c3		 ret	 0
??$forward@ABUtagBaseCharHP@@@std@@YAABUtagBaseCharHP@@ABU1@@Z ENDP ; std::forward<tagBaseCharHP const &>
_TEXT	ENDS
PUBLIC	??$_Ptr_cat@UtagBaseCharHP@@U1@@std@@YA?AU_Nonscalar_ptr_iterator_tag@0@PAUtagBaseCharHP@@0@Z ; std::_Ptr_cat<tagBaseCharHP,tagBaseCharHP>
; Function compile flags: /Ogsp
; File c:\program files (x86)\microsoft visual studio 10.0\vc\include\xutility
;	COMDAT ??$_Ptr_cat@UtagBaseCharHP@@U1@@std@@YA?AU_Nonscalar_ptr_iterator_tag@0@PAUtagBaseCharHP@@0@Z
_TEXT	SEGMENT
__Cat$ = -1						; size = 1
___formal$ = 8						; size = 4
___formal$ = 12						; size = 4
??$_Ptr_cat@UtagBaseCharHP@@U1@@std@@YA?AU_Nonscalar_ptr_iterator_tag@0@PAUtagBaseCharHP@@0@Z PROC ; std::_Ptr_cat<tagBaseCharHP,tagBaseCharHP>, COMDAT

; 516  : 	{	// return pointer category from pointers

  00000	55		 push	 ebp
  00001	8b ec		 mov	 ebp, esp
  00003	51		 push	 ecx

; 517  : 	typename _Ptr_cat_helper<_Elem1, _Elem2>::_Type _Cat;
; 518  : 	return (_Cat);

  00004	8a 45 ff	 mov	 al, BYTE PTR __Cat$[ebp]

; 519  : 	}

  00007	c9		 leave
  00008	c3		 ret	 0
??$_Ptr_cat@UtagBaseCharHP@@U1@@std@@YA?AU_Nonscalar_ptr_iterator_tag@0@PAUtagBaseCharHP@@0@Z ENDP ; std::_Ptr_cat<tagBaseCharHP,tagBaseCharHP>
_TEXT	ENDS
PUBLIC	??0tagBaseCharHP@@QAE@ABU0@@Z			; tagBaseCharHP::tagBaseCharHP
EXTRN	__imp_??0ioHashString@@QAE@ABV0@@Z:PROC
; Function compile flags: /Ogsp
;	COMDAT ??0tagBaseCharHP@@QAE@ABU0@@Z
_TEXT	SEGMENT
___that$ = 8						; size = 4
??0tagBaseCharHP@@QAE@ABU0@@Z PROC			; tagBaseCharHP::tagBaseCharHP, COMDAT
; _this$ = ecx
  00000	55		 push	 ebp
  00001	8b ec		 mov	 ebp, esp
  00003	56		 push	 esi
  00004	57		 push	 edi
  00005	8b 7d 08	 mov	 edi, DWORD PTR ___that$[ebp]
  00008	57		 push	 edi
  00009	8b f1		 mov	 esi, ecx
  0000b	ff 15 00 00 00
	00		 call	 DWORD PTR __imp_??0ioHashString@@QAE@ABV0@@Z
  00011	d9 47 10	 fld	 DWORD PTR [edi+16]
  00014	d9 5e 10	 fstp	 DWORD PTR [esi+16]
  00017	8a 47 14	 mov	 al, BYTE PTR [edi+20]
  0001a	88 46 14	 mov	 BYTE PTR [esi+20], al
  0001d	5f		 pop	 edi
  0001e	8b c6		 mov	 eax, esi
  00020	5e		 pop	 esi
  00021	5d		 pop	 ebp
  00022	c2 04 00	 ret	 4
??0tagBaseCharHP@@QAE@ABU0@@Z ENDP			; tagBaseCharHP::tagBaseCharHP
_TEXT	ENDS
PUBLIC	??4tagBaseCharHP@@QAEAAU0@ABU0@@Z		; tagBaseCharHP::operator=
EXTRN	__imp_??4ioHashString@@QAEAAV0@ABV0@@Z:PROC
; Function compile flags: /Ogsp
;	COMDAT ??4tagBaseCharHP@@QAEAAU0@ABU0@@Z
_TEXT	SEGMENT
___that$ = 8						; size = 4
??4tagBaseCharHP@@QAEAAU0@ABU0@@Z PROC			; tagBaseCharHP::operator=, COMDAT
; _this$ = ecx
  00000	55		 push	 ebp
  00001	8b ec		 mov	 ebp, esp
  00003	56		 push	 esi
  00004	57		 push	 edi
  00005	8b 7d 08	 mov	 edi, DWORD PTR ___that$[ebp]
  00008	57		 push	 edi
  00009	8b f1		 mov	 esi, ecx
  0000b	ff 15 00 00 00
	00		 call	 DWORD PTR __imp_??4ioHashString@@QAEAAV0@ABV0@@Z
  00011	d9 47 10	 fld	 DWORD PTR [edi+16]
  00014	d9 5e 10	 fstp	 DWORD PTR [esi+16]
  00017	8a 47 14	 mov	 al, BYTE PTR [edi+20]
  0001a	88 46 14	 mov	 BYTE PTR [esi+20], al
  0001d	5f		 pop	 edi
  0001e	8b c6		 mov	 eax, esi
  00020	5e		 pop	 esi
  00021	5d		 pop	 ebp
  00022	c2 04 00	 ret	 4
??4tagBaseCharHP@@QAEAAU0@ABU0@@Z ENDP			; tagBaseCharHP::operator=
_TEXT	ENDS
PUBLIC	?_Unchecked@?$_Vector_iterator@V?$_Vector_val@UtagBaseCharHP@@V?$allocator@UtagBaseCharHP@@@std@@@std@@@std@@QBEPAUtagBaseCharHP@@XZ ; std::_Vector_iterator<std::_Vector_val<tagBaseCharHP,std::allocator<tagBaseCharHP> > >::_Unchecked
; Function compile flags: /Ogsp
; File c:\program files (x86)\microsoft visual studio 10.0\vc\include\vector
;	COMDAT ?_Unchecked@?$_Vector_iterator@V?$_Vector_val@UtagBaseCharHP@@V?$allocator@UtagBaseCharHP@@@std@@@std@@@std@@QBEPAUtagBaseCharHP@@XZ
_TEXT	SEGMENT
?_Unchecked@?$_Vector_iterator@V?$_Vector_val@UtagBaseCharHP@@V?$allocator@UtagBaseCharHP@@@std@@@std@@@std@@QBEPAUtagBaseCharHP@@XZ PROC ; std::_Vector_iterator<std::_Vector_val<tagBaseCharHP,std::allocator<tagBaseCharHP> > >::_Unchecked, COMDAT
; _this$ = ecx

; 317  : 		return (_Unchecked_type(this->_Ptr));

  00000	8b 01		 mov	 eax, DWORD PTR [ecx]

; 318  : 		}

  00002	c3		 ret	 0
?_Unchecked@?$_Vector_iterator@V?$_Vector_val@UtagBaseCharHP@@V?$allocator@UtagBaseCharHP@@@std@@@std@@@std@@QBEPAUtagBaseCharHP@@XZ ENDP ; std::_Vector_iterator<std::_Vector_val<tagBaseCharHP,std::allocator<tagBaseCharHP> > >::_Unchecked
_TEXT	ENDS
PUBLIC	??$_Ptr_cat@V?$_Vector_const_iterator@V?$_Vector_val@UWeaponInfo@@V?$allocator@UWeaponInfo@@@std@@@std@@@std@@PAUWeaponInfo@@@std@@YA?AU_Nonscalar_ptr_iterator_tag@0@AAV?$_Vector_const_iterator@V?$_Vector_val@UWeaponInfo@@V?$allocator@UWeaponInfo@@@std@@@std@@@0@AAPAUWeaponInfo@@@Z ; std::_Ptr_cat<std::_Vector_const_iterator<std::_Vector_val<WeaponInfo,std::allocator<WeaponInfo> > >,WeaponInfo *>
; Function compile flags: /Ogsp
; File c:\program files (x86)\microsoft visual studio 10.0\vc\include\xutility
;	COMDAT ??$_Ptr_cat@V?$_Vector_const_iterator@V?$_Vector_val@UWeaponInfo@@V?$allocator@UWeaponInfo@@@std@@@std@@@std@@PAUWeaponInfo@@@std@@YA?AU_Nonscalar_ptr_iterator_tag@0@AAV?$_Vector_const_iterator@V?$_Vector_val@UWeaponInfo@@V?$allocator@UWeaponInfo@@@std@@@std@@@0@AAPAUWeaponInfo@@@Z
_TEXT	SEGMENT
__Cat$ = -1						; size = 1
___formal$ = 8						; size = 4
___formal$ = 12						; size = 4
??$_Ptr_cat@V?$_Vector_const_iterator@V?$_Vector_val@UWeaponInfo@@V?$allocator@UWeaponInfo@@@std@@@std@@@std@@PAUWeaponInfo@@@std@@YA?AU_Nonscalar_ptr_iterator_tag@0@AAV?$_Vector_const_iterator@V?$_Vector_val@UWeaponInfo@@V?$allocator@UWeaponInfo@@@std@@@std@@@0@AAPAUWeaponInfo@@@Z PROC ; std::_Ptr_cat<std::_Vector_const_iterator<std::_Vector_val<WeaponInfo,std::allocator<WeaponInfo> > >,WeaponInfo *>, COMDAT

; 485  : 	{	// return pointer category from arbitrary arguments

  00000	55		 push	 ebp
  00001	8b ec		 mov	 ebp, esp
  00003	51		 push	 ecx

; 486  : 	_Nonscalar_ptr_iterator_tag _Cat;
; 487  : 	return (_Cat);

  00004	8a 45 ff	 mov	 al, BYTE PTR __Cat$[ebp]

; 488  : 	}

  00007	c9		 leave
  00008	c3		 ret	 0
??$_Ptr_cat@V?$_Vector_const_iterator@V?$_Vector_val@UWeaponInfo@@V?$allocator@UWeaponInfo@@@std@@@std@@@std@@PAUWeaponInfo@@@std@@YA?AU_Nonscalar_ptr_iterator_tag@0@AAV?$_Vector_const_iterator@V?$_Vector_val@UWeaponInfo@@V?$allocator@UWeaponInfo@@@std@@@std@@@0@AAPAUWeaponInfo@@@Z ENDP ; std::_Ptr_cat<std::_Vector_const_iterator<std::_Vector_val<WeaponInfo,std::allocator<WeaponInfo> > >,WeaponInfo *>
_TEXT	ENDS
PUBLIC	??$_Ptr_cat@V?$_Vector_const_iterator@V?$_Vector_val@UForceInfo@@V?$allocator@UForceInfo@@@std@@@std@@@std@@PAUForceInfo@@@std@@YA?AU_Nonscalar_ptr_iterator_tag@0@AAV?$_Vector_const_iterator@V?$_Vector_val@UForceInfo@@V?$allocator@UForceInfo@@@std@@@std@@@0@AAPAUForceInfo@@@Z ; std::_Ptr_cat<std::_Vector_const_iterator<std::_Vector_val<ForceInfo,std::allocator<ForceInfo> > >,ForceInfo *>
; Function compile flags: /Ogsp
;	COMDAT ??$_Ptr_cat@V?$_Vector_const_iterator@V?$_Vector_val@UForceInfo@@V?$allocator@UForceInfo@@@std@@@std@@@std@@PAUForceInfo@@@std@@YA?AU_Nonscalar_ptr_iterator_tag@0@AAV?$_Vector_const_iterator@V?$_Vector_val@UForceInfo@@V?$allocator@UForceInfo@@@std@@@std@@@0@AAPAUForceInfo@@@Z
_TEXT	SEGMENT
__Cat$ = -1						; size = 1
___formal$ = 8						; size = 4
___formal$ = 12						; size = 4
??$_Ptr_cat@V?$_Vector_const_iterator@V?$_Vector_val@UForceInfo@@V?$allocator@UForceInfo@@@std@@@std@@@std@@PAUForceInfo@@@std@@YA?AU_Nonscalar_ptr_iterator_tag@0@AAV?$_Vector_const_iterator@V?$_Vector_val@UForceInfo@@V?$allocator@UForceInfo@@@std@@@std@@@0@AAPAUForceInfo@@@Z PROC ; std::_Ptr_cat<std::_Vector_const_iterator<std::_Vector_val<ForceInfo,std::allocator<ForceInfo> > >,ForceInfo *>, COMDAT

; 485  : 	{	// return pointer category from arbitrary arguments

  00000	55		 push	 ebp
  00001	8b ec		 mov	 ebp, esp
  00003	51		 push	 ecx

; 486  : 	_Nonscalar_ptr_iterator_tag _Cat;
; 487  : 	return (_Cat);

  00004	8a 45 ff	 mov	 al, BYTE PTR __Cat$[ebp]

; 488  : 	}

  00007	c9		 leave
  00008	c3		 ret	 0
??$_Ptr_cat@V?$_Vector_const_iterator@V?$_Vector_val@UForceInfo@@V?$allocator@UForceInfo@@@std@@@std@@@std@@PAUForceInfo@@@std@@YA?AU_Nonscalar_ptr_iterator_tag@0@AAV?$_Vector_const_iterator@V?$_Vector_val@UForceInfo@@V?$allocator@UForceInfo@@@std@@@std@@@0@AAPAUForceInfo@@@Z ENDP ; std::_Ptr_cat<std::_Vector_const_iterator<std::_Vector_val<ForceInfo,std::allocator<ForceInfo> > >,ForceInfo *>
_TEXT	ENDS
PUBLIC	??$move@AAUtagBaseCharHP@@@std@@YA$$QAUtagBaseCharHP@@AAU1@@Z ; std::move<tagBaseCharHP &>
; Function compile flags: /Ogsp
; File c:\program files (x86)\microsoft visual studio 10.0\vc\include\utility
;	COMDAT ??$move@AAUtagBaseCharHP@@@std@@YA$$QAUtagBaseCharHP@@AAU1@@Z
_TEXT	SEGMENT
__Arg$ = 8						; size = 4
??$move@AAUtagBaseCharHP@@@std@@YA$$QAUtagBaseCharHP@@AAU1@@Z PROC ; std::move<tagBaseCharHP &>, COMDAT

; 86   : 	{	// forward _Arg as movable

  00000	55		 push	 ebp
  00001	8b ec		 mov	 ebp, esp

; 87   : 	return ((typename tr1::_Remove_reference<_Ty>::_Type&&)_Arg);

  00003	8b 45 08	 mov	 eax, DWORD PTR __Arg$[ebp]

; 88   : 	}

  00006	5d		 pop	 ebp
  00007	c3		 ret	 0
??$move@AAUtagBaseCharHP@@@std@@YA$$QAUtagBaseCharHP@@AAU1@@Z ENDP ; std::move<tagBaseCharHP &>
_TEXT	ENDS
PUBLIC	??$_Val_type@PAUtagBaseCharHP@@@std@@YAPAUtagBaseCharHP@@PAU1@@Z ; std::_Val_type<tagBaseCharHP *>
; Function compile flags: /Ogsp
; File c:\program files (x86)\microsoft visual studio 10.0\vc\include\xutility
;	COMDAT ??$_Val_type@PAUtagBaseCharHP@@@std@@YAPAUtagBaseCharHP@@PAU1@@Z
_TEXT	SEGMENT
___formal$ = 8						; size = 4
??$_Val_type@PAUtagBaseCharHP@@@std@@YAPAUtagBaseCharHP@@PAU1@@Z PROC ; std::_Val_type<tagBaseCharHP *>, COMDAT

; 790  : 	return (0);

  00000	33 c0		 xor	 eax, eax

; 791  : 	}

  00002	c3		 ret	 0
??$_Val_type@PAUtagBaseCharHP@@@std@@YAPAUtagBaseCharHP@@PAU1@@Z ENDP ; std::_Val_type<tagBaseCharHP *>
_TEXT	ENDS
PUBLIC	??D?$_Vector_const_iterator@V?$_Vector_val@UWeaponInfo@@V?$allocator@UWeaponInfo@@@std@@@std@@@std@@QBEABUWeaponInfo@@XZ ; std::_Vector_const_iterator<std::_Vector_val<WeaponInfo,std::allocator<WeaponInfo> > >::operator*
; Function compile flags: /Ogsp
; File c:\program files (x86)\microsoft visual studio 10.0\vc\include\vector
;	COMDAT ??D?$_Vector_const_iterator@V?$_Vector_val@UWeaponInfo@@V?$allocator@UWeaponInfo@@@std@@@std@@@std@@QBEABUWeaponInfo@@XZ
_TEXT	SEGMENT
??D?$_Vector_const_iterator@V?$_Vector_val@UWeaponInfo@@V?$allocator@UWeaponInfo@@@std@@@std@@@std@@QBEABUWeaponInfo@@XZ PROC ; std::_Vector_const_iterator<std::_Vector_val<WeaponInfo,std::allocator<WeaponInfo> > >::operator*, COMDAT
; _this$ = ecx

; 64   :  #if _ITERATOR_DEBUG_LEVEL == 2
; 65   : 		if (this->_Getcont() == 0
; 66   : 			|| this->_Ptr == 0
; 67   : 			|| this->_Ptr < ((_Myvec *)this->_Getcont())->_Myfirst
; 68   : 			|| ((_Myvec *)this->_Getcont())->_Mylast <= this->_Ptr)
; 69   : 			{	// report error
; 70   : 			_DEBUG_ERROR("vector iterator not dereferencable");
; 71   : 			_SCL_SECURE_OUT_OF_RANGE;
; 72   : 			}
; 73   : 
; 74   :  #elif _ITERATOR_DEBUG_LEVEL == 1
; 75   : 		_SCL_SECURE_VALIDATE(this->_Getcont() != 0);
; 76   : 		_SCL_SECURE_VALIDATE_RANGE(
; 77   : 			this->_Ptr != 0
; 78   : 			&& ((_Myvec *)this->_Getcont())->_Myfirst <= this->_Ptr
; 79   : 			&& this->_Ptr < ((_Myvec *)this->_Getcont())->_Mylast);
; 80   :  #endif /* _ITERATOR_DEBUG_LEVEL */
; 81   : 
; 82   : 		__analysis_assume(this->_Ptr != 0);
; 83   : 
; 84   : 		return (*this->_Ptr);

  00000	8b 01		 mov	 eax, DWORD PTR [ecx]

; 85   : 		}

  00002	c3		 ret	 0
??D?$_Vector_const_iterator@V?$_Vector_val@UWeaponInfo@@V?$allocator@UWeaponInfo@@@std@@@std@@@std@@QBEABUWeaponInfo@@XZ ENDP ; std::_Vector_const_iterator<std::_Vector_val<WeaponInfo,std::allocator<WeaponInfo> > >::operator*
_TEXT	ENDS
PUBLIC	??E?$_Vector_const_iterator@V?$_Vector_val@UWeaponInfo@@V?$allocator@UWeaponInfo@@@std@@@std@@@std@@QAEAAV01@XZ ; std::_Vector_const_iterator<std::_Vector_val<WeaponInfo,std::allocator<WeaponInfo> > >::operator++
; Function compile flags: /Ogsp
;	COMDAT ??E?$_Vector_const_iterator@V?$_Vector_val@UWeaponInfo@@V?$allocator@UWeaponInfo@@@std@@@std@@@std@@QAEAAV01@XZ
_TEXT	SEGMENT
??E?$_Vector_const_iterator@V?$_Vector_val@UWeaponInfo@@V?$allocator@UWeaponInfo@@@std@@@std@@@std@@QAEAAV01@XZ PROC ; std::_Vector_const_iterator<std::_Vector_val<WeaponInfo,std::allocator<WeaponInfo> > >::operator++, COMDAT
; _this$ = ecx

; 93   : 		{	// preincrement

  00000	8b c1		 mov	 eax, ecx

; 94   :  #if _ITERATOR_DEBUG_LEVEL == 2
; 95   : 		if (this->_Getcont() == 0
; 96   : 			|| this->_Ptr == 0
; 97   : 			|| ((_Myvec *)this->_Getcont())->_Mylast <= this->_Ptr)
; 98   : 			{	// report error
; 99   : 			_DEBUG_ERROR("vector iterator not incrementable");
; 100  : 			_SCL_SECURE_OUT_OF_RANGE;
; 101  : 			}
; 102  : 
; 103  :  #elif _ITERATOR_DEBUG_LEVEL == 1
; 104  : 		_SCL_SECURE_VALIDATE(this->_Getcont() != 0);
; 105  : 		_SCL_SECURE_VALIDATE_RANGE(
; 106  : 			this->_Ptr != 0
; 107  : 			&& this->_Ptr < ((_Myvec *)this->_Getcont())->_Mylast);
; 108  :  #endif /* _ITERATOR_DEBUG_LEVEL */
; 109  : 
; 110  : 		++this->_Ptr;

  00002	83 00 28	 add	 DWORD PTR [eax], 40	; 00000028H

; 111  : 		return (*this);
; 112  : 		}

  00005	c3		 ret	 0
??E?$_Vector_const_iterator@V?$_Vector_val@UWeaponInfo@@V?$allocator@UWeaponInfo@@@std@@@std@@@std@@QAEAAV01@XZ ENDP ; std::_Vector_const_iterator<std::_Vector_val<WeaponInfo,std::allocator<WeaponInfo> > >::operator++
_TEXT	ENDS
PUBLIC	??D?$_Vector_const_iterator@V?$_Vector_val@UForceInfo@@V?$allocator@UForceInfo@@@std@@@std@@@std@@QBEABUForceInfo@@XZ ; std::_Vector_const_iterator<std::_Vector_val<ForceInfo,std::allocator<ForceInfo> > >::operator*
; Function compile flags: /Ogsp
;	COMDAT ??D?$_Vector_const_iterator@V?$_Vector_val@UForceInfo@@V?$allocator@UForceInfo@@@std@@@std@@@std@@QBEABUForceInfo@@XZ
_TEXT	SEGMENT
??D?$_Vector_const_iterator@V?$_Vector_val@UForceInfo@@V?$allocator@UForceInfo@@@std@@@std@@@std@@QBEABUForceInfo@@XZ PROC ; std::_Vector_const_iterator<std::_Vector_val<ForceInfo,std::allocator<ForceInfo> > >::operator*, COMDAT
; _this$ = ecx

; 64   :  #if _ITERATOR_DEBUG_LEVEL == 2
; 65   : 		if (this->_Getcont() == 0
; 66   : 			|| this->_Ptr == 0
; 67   : 			|| this->_Ptr < ((_Myvec *)this->_Getcont())->_Myfirst
; 68   : 			|| ((_Myvec *)this->_Getcont())->_Mylast <= this->_Ptr)
; 69   : 			{	// report error
; 70   : 			_DEBUG_ERROR("vector iterator not dereferencable");
; 71   : 			_SCL_SECURE_OUT_OF_RANGE;
; 72   : 			}
; 73   : 
; 74   :  #elif _ITERATOR_DEBUG_LEVEL == 1
; 75   : 		_SCL_SECURE_VALIDATE(this->_Getcont() != 0);
; 76   : 		_SCL_SECURE_VALIDATE_RANGE(
; 77   : 			this->_Ptr != 0
; 78   : 			&& ((_Myvec *)this->_Getcont())->_Myfirst <= this->_Ptr
; 79   : 			&& this->_Ptr < ((_Myvec *)this->_Getcont())->_Mylast);
; 80   :  #endif /* _ITERATOR_DEBUG_LEVEL */
; 81   : 
; 82   : 		__analysis_assume(this->_Ptr != 0);
; 83   : 
; 84   : 		return (*this->_Ptr);

  00000	8b 01		 mov	 eax, DWORD PTR [ecx]

; 85   : 		}

  00002	c3		 ret	 0
??D?$_Vector_const_iterator@V?$_Vector_val@UForceInfo@@V?$allocator@UForceInfo@@@std@@@std@@@std@@QBEABUForceInfo@@XZ ENDP ; std::_Vector_const_iterator<std::_Vector_val<ForceInfo,std::allocator<ForceInfo> > >::operator*
_TEXT	ENDS
PUBLIC	??E?$_Vector_const_iterator@V?$_Vector_val@UForceInfo@@V?$allocator@UForceInfo@@@std@@@std@@@std@@QAEAAV01@XZ ; std::_Vector_const_iterator<std::_Vector_val<ForceInfo,std::allocator<ForceInfo> > >::operator++
; Function compile flags: /Ogsp
;	COMDAT ??E?$_Vector_const_iterator@V?$_Vector_val@UForceInfo@@V?$allocator@UForceInfo@@@std@@@std@@@std@@QAEAAV01@XZ
_TEXT	SEGMENT
??E?$_Vector_const_iterator@V?$_Vector_val@UForceInfo@@V?$allocator@UForceInfo@@@std@@@std@@@std@@QAEAAV01@XZ PROC ; std::_Vector_const_iterator<std::_Vector_val<ForceInfo,std::allocator<ForceInfo> > >::operator++, COMDAT
; _this$ = ecx

; 93   : 		{	// preincrement

  00000	8b c1		 mov	 eax, ecx

; 94   :  #if _ITERATOR_DEBUG_LEVEL == 2
; 95   : 		if (this->_Getcont() == 0
; 96   : 			|| this->_Ptr == 0
; 97   : 			|| ((_Myvec *)this->_Getcont())->_Mylast <= this->_Ptr)
; 98   : 			{	// report error
; 99   : 			_DEBUG_ERROR("vector iterator not incrementable");
; 100  : 			_SCL_SECURE_OUT_OF_RANGE;
; 101  : 			}
; 102  : 
; 103  :  #elif _ITERATOR_DEBUG_LEVEL == 1
; 104  : 		_SCL_SECURE_VALIDATE(this->_Getcont() != 0);
; 105  : 		_SCL_SECURE_VALIDATE_RANGE(
; 106  : 			this->_Ptr != 0
; 107  : 			&& this->_Ptr < ((_Myvec *)this->_Getcont())->_Mylast);
; 108  :  #endif /* _ITERATOR_DEBUG_LEVEL */
; 109  : 
; 110  : 		++this->_Ptr;

  00002	83 00 0c	 add	 DWORD PTR [eax], 12	; 0000000cH

; 111  : 		return (*this);
; 112  : 		}

  00005	c3		 ret	 0
??E?$_Vector_const_iterator@V?$_Vector_val@UForceInfo@@V?$allocator@UForceInfo@@@std@@@std@@@std@@QAEAAV01@XZ ENDP ; std::_Vector_const_iterator<std::_Vector_val<ForceInfo,std::allocator<ForceInfo> > >::operator++
_TEXT	ENDS
PUBLIC	??$_Unchecked@PAUtagBaseCharHP@@@std@@YAPAUtagBaseCharHP@@PAU1@@Z ; std::_Unchecked<tagBaseCharHP *>
; Function compile flags: /Ogsp
; File c:\program files (x86)\microsoft visual studio 10.0\vc\include\xutility
;	COMDAT ??$_Unchecked@PAUtagBaseCharHP@@@std@@YAPAUtagBaseCharHP@@PAU1@@Z
_TEXT	SEGMENT
__Src$ = 8						; size = 4
??$_Unchecked@PAUtagBaseCharHP@@@std@@YAPAUtagBaseCharHP@@PAU1@@Z PROC ; std::_Unchecked<tagBaseCharHP *>, COMDAT

; 266  : 	{	// construct unchecked from checked, generic

  00000	55		 push	 ebp
  00001	8b ec		 mov	 ebp, esp

; 267  : 	return (_Src);

  00003	8b 45 08	 mov	 eax, DWORD PTR __Src$[ebp]

; 268  : 	}

  00006	5d		 pop	 ebp
  00007	c3		 ret	 0
??$_Unchecked@PAUtagBaseCharHP@@@std@@YAPAUtagBaseCharHP@@PAU1@@Z ENDP ; std::_Unchecked<tagBaseCharHP *>
_TEXT	ENDS
PUBLIC	??$_Dist_type@PAUtagBaseCharHP@@@std@@YAPAHPAUtagBaseCharHP@@@Z ; std::_Dist_type<tagBaseCharHP *>
; Function compile flags: /Ogsp
;	COMDAT ??$_Dist_type@PAUtagBaseCharHP@@@std@@YAPAHPAUtagBaseCharHP@@@Z
_TEXT	SEGMENT
___formal$ = 8						; size = 4
??$_Dist_type@PAUtagBaseCharHP@@@std@@YAPAHPAUtagBaseCharHP@@@Z PROC ; std::_Dist_type<tagBaseCharHP *>, COMDAT

; 850  : 	return (0);

  00000	33 c0		 xor	 eax, eax

; 851  : 	}

  00002	c3		 ret	 0
??$_Dist_type@PAUtagBaseCharHP@@@std@@YAPAHPAUtagBaseCharHP@@@Z ENDP ; std::_Dist_type<tagBaseCharHP *>
_TEXT	ENDS
PUBLIC	?D3DXVec3LengthSq@@YAMPBUD3DXVECTOR3@@@Z	; D3DXVec3LengthSq
; Function compile flags: /Ogsp
; File c:\program files (x86)\microsoft directx sdk (june 2010)\include\d3dx9math.inl
;	COMDAT ?D3DXVec3LengthSq@@YAMPBUD3DXVECTOR3@@@Z
_TEXT	SEGMENT
tv165 = 8						; size = 4
_pV$ = 8						; size = 4
?D3DXVec3LengthSq@@YAMPBUD3DXVECTOR3@@@Z PROC		; D3DXVec3LengthSq, COMDAT

; 1725 : {

  00000	55		 push	 ebp
  00001	8b ec		 mov	 ebp, esp

; 1726 : #ifdef D3DX_DEBUG
; 1727 :     if(!pV)
; 1728 :         return 0.0f;
; 1729 : #endif
; 1730 : 
; 1731 :     return pV->x * pV->x + pV->y * pV->y + pV->z * pV->z;

  00003	8b 45 08	 mov	 eax, DWORD PTR _pV$[ebp]
  00006	d9 40 04	 fld	 DWORD PTR [eax+4]
  00009	d9 00		 fld	 DWORD PTR [eax]
  0000b	d9 40 08	 fld	 DWORD PTR [eax+8]
  0000e	d9 c1		 fld	 ST(1)
  00010	de ca		 fmulp	 ST(2), ST(0)
  00012	d9 c2		 fld	 ST(2)
  00014	de cb		 fmulp	 ST(3), ST(0)
  00016	d9 c9		 fxch	 ST(1)
  00018	de c2		 faddp	 ST(2), ST(0)
  0001a	d9 c0		 fld	 ST(0)
  0001c	de c9		 fmulp	 ST(1), ST(0)
  0001e	de c1		 faddp	 ST(1), ST(0)
  00020	d9 5d 08	 fstp	 DWORD PTR tv165[ebp]
  00023	d9 45 08	 fld	 DWORD PTR tv165[ebp]

; 1732 : }

  00026	5d		 pop	 ebp
  00027	c3		 ret	 0
?D3DXVec3LengthSq@@YAMPBUD3DXVECTOR3@@@Z ENDP		; D3DXVec3LengthSq
_TEXT	ENDS
PUBLIC	??_GtagBaseCharHP@@QAEPAXI@Z			; tagBaseCharHP::`scalar deleting destructor'
; Function compile flags: /Ogsp
;	COMDAT ??_GtagBaseCharHP@@QAEPAXI@Z
_TEXT	SEGMENT
___flags$ = 8						; size = 4
??_GtagBaseCharHP@@QAEPAXI@Z PROC			; tagBaseCharHP::`scalar deleting destructor', COMDAT
; _this$ = ecx
  00000	55		 push	 ebp
  00001	8b ec		 mov	 ebp, esp
  00003	56		 push	 esi
  00004	8b f1		 mov	 esi, ecx
  00006	ff 15 00 00 00
	00		 call	 DWORD PTR __imp_??1ioHashString@@QAE@XZ
  0000c	f6 45 08 01	 test	 BYTE PTR ___flags$[ebp], 1
  00010	74 07		 je	 SHORT $LN1@scalar@2
  00012	56		 push	 esi
  00013	e8 00 00 00 00	 call	 ??3@YAXPAX@Z		; operator delete
  00018	59		 pop	 ecx
$LN1@scalar@2:
  00019	8b c6		 mov	 eax, esi
  0001b	5e		 pop	 esi
  0001c	5d		 pop	 ebp
  0001d	c2 04 00	 ret	 4
??_GtagBaseCharHP@@QAEPAXI@Z ENDP			; tagBaseCharHP::`scalar deleting destructor'
_TEXT	ENDS
PUBLIC	??$forward@AAPAUtagBaseCharHP@@@std@@YAAAPAUtagBaseCharHP@@AAPAU1@@Z ; std::forward<tagBaseCharHP * &>
; Function compile flags: /Ogsp
; File c:\program files (x86)\microsoft visual studio 10.0\vc\include\utility
;	COMDAT ??$forward@AAPAUtagBaseCharHP@@@std@@YAAAPAUtagBaseCharHP@@AAPAU1@@Z
_TEXT	SEGMENT
__Arg$ = 8						; size = 4
??$forward@AAPAUtagBaseCharHP@@@std@@YAAAPAUtagBaseCharHP@@AAPAU1@@Z PROC ; std::forward<tagBaseCharHP * &>, COMDAT

; 78   : 	{	// forward _Arg, given explicitly specified type parameter

  00000	55		 push	 ebp
  00001	8b ec		 mov	 ebp, esp

; 79   : 	return ((_Ty&&)_Arg);

  00003	8b 45 08	 mov	 eax, DWORD PTR __Arg$[ebp]

; 80   : 	}

  00006	5d		 pop	 ebp
  00007	c3		 ret	 0
??$forward@AAPAUtagBaseCharHP@@@std@@YAAAPAUtagBaseCharHP@@AAPAU1@@Z ENDP ; std::forward<tagBaseCharHP * &>
_TEXT	ENDS
PUBLIC	??$?0AAPAUtagBaseCharHP@@AAPAU0@@?$_Pair_base@PAUtagBaseCharHP@@PAU1@@std@@QAE@AAPAUtagBaseCharHP@@0@Z ; std::_Pair_base<tagBaseCharHP *,tagBaseCharHP *>::_Pair_base<tagBaseCharHP *,tagBaseCharHP *><tagBaseCharHP * &,tagBaseCharHP * &>
; Function compile flags: /Ogsp
;	COMDAT ??$?0AAPAUtagBaseCharHP@@AAPAU0@@?$_Pair_base@PAUtagBaseCharHP@@PAU1@@std@@QAE@AAPAUtagBaseCharHP@@0@Z
_TEXT	SEGMENT
__Val1$ = 8						; size = 4
__Val2$ = 12						; size = 4
??$?0AAPAUtagBaseCharHP@@AAPAU0@@?$_Pair_base@PAUtagBaseCharHP@@PAU1@@std@@QAE@AAPAUtagBaseCharHP@@0@Z PROC ; std::_Pair_base<tagBaseCharHP *,tagBaseCharHP *>::_Pair_base<tagBaseCharHP *,tagBaseCharHP *><tagBaseCharHP * &,tagBaseCharHP * &>, COMDAT
; _this$ = ecx

; 163  : 		{	// construct from moved values

  00000	55		 push	 ebp
  00001	8b ec		 mov	 ebp, esp
  00003	8b c1		 mov	 eax, ecx
  00005	8b 4d 08	 mov	 ecx, DWORD PTR __Val1$[ebp]
  00008	8b 09		 mov	 ecx, DWORD PTR [ecx]
  0000a	89 08		 mov	 DWORD PTR [eax], ecx
  0000c	8b 4d 0c	 mov	 ecx, DWORD PTR __Val2$[ebp]
  0000f	8b 09		 mov	 ecx, DWORD PTR [ecx]
  00011	89 48 04	 mov	 DWORD PTR [eax+4], ecx

; 164  : 		}

  00014	5d		 pop	 ebp
  00015	c2 08 00	 ret	 8
??$?0AAPAUtagBaseCharHP@@AAPAU0@@?$_Pair_base@PAUtagBaseCharHP@@PAU1@@std@@QAE@AAPAUtagBaseCharHP@@0@Z ENDP ; std::_Pair_base<tagBaseCharHP *,tagBaseCharHP *>::_Pair_base<tagBaseCharHP *,tagBaseCharHP *><tagBaseCharHP * &,tagBaseCharHP * &>
_TEXT	ENDS
PUBLIC	??$_Move@AAUtagBaseCharHP@@@std@@YA$$QAUtagBaseCharHP@@AAU1@@Z ; std::_Move<tagBaseCharHP &>
; Function compile flags: /Ogsp
;	COMDAT ??$_Move@AAUtagBaseCharHP@@@std@@YA$$QAUtagBaseCharHP@@AAU1@@Z
_TEXT	SEGMENT
__Arg$ = 8						; size = 4
??$_Move@AAUtagBaseCharHP@@@std@@YA$$QAUtagBaseCharHP@@AAU1@@Z PROC ; std::_Move<tagBaseCharHP &>, COMDAT

; 94   : 	{	// forward _Arg as movable

  00000	55		 push	 ebp
  00001	8b ec		 mov	 ebp, esp

; 95   : 	return ((typename tr1::_Remove_reference<_Ty>::_Type&&)_Arg);

  00003	8b 45 08	 mov	 eax, DWORD PTR __Arg$[ebp]

; 96   : 	}

  00006	5d		 pop	 ebp
  00007	c3		 ret	 0
??$_Move@AAUtagBaseCharHP@@@std@@YA$$QAUtagBaseCharHP@@AAU1@@Z ENDP ; std::_Move<tagBaseCharHP &>
_TEXT	ENDS
PUBLIC	??$forward@ABUWeaponInfo@@@std@@YAABUWeaponInfo@@ABU1@@Z ; std::forward<WeaponInfo const &>
; Function compile flags: /Ogsp
;	COMDAT ??$forward@ABUWeaponInfo@@@std@@YAABUWeaponInfo@@ABU1@@Z
_TEXT	SEGMENT
__Arg$ = 8						; size = 4
??$forward@ABUWeaponInfo@@@std@@YAABUWeaponInfo@@ABU1@@Z PROC ; std::forward<WeaponInfo const &>, COMDAT

; 78   : 	{	// forward _Arg, given explicitly specified type parameter

  00000	55		 push	 ebp
  00001	8b ec		 mov	 ebp, esp

; 79   : 	return ((_Ty&&)_Arg);

  00003	8b 45 08	 mov	 eax, DWORD PTR __Arg$[ebp]

; 80   : 	}

  00006	5d		 pop	 ebp
  00007	c3		 ret	 0
??$forward@ABUWeaponInfo@@@std@@YAABUWeaponInfo@@ABU1@@Z ENDP ; std::forward<WeaponInfo const &>
_TEXT	ENDS
PUBLIC	??$forward@ABUForceInfo@@@std@@YAABUForceInfo@@ABU1@@Z ; std::forward<ForceInfo const &>
; Function compile flags: /Ogsp
;	COMDAT ??$forward@ABUForceInfo@@@std@@YAABUForceInfo@@ABU1@@Z
_TEXT	SEGMENT
__Arg$ = 8						; size = 4
??$forward@ABUForceInfo@@@std@@YAABUForceInfo@@ABU1@@Z PROC ; std::forward<ForceInfo const &>, COMDAT

; 78   : 	{	// forward _Arg, given explicitly specified type parameter

  00000	55		 push	 ebp
  00001	8b ec		 mov	 ebp, esp

; 79   : 	return ((_Ty&&)_Arg);

  00003	8b 45 08	 mov	 eax, DWORD PTR __Arg$[ebp]

; 80   : 	}

  00006	5d		 pop	 ebp
  00007	c3		 ret	 0
??$forward@ABUForceInfo@@@std@@YAABUForceInfo@@ABU1@@Z ENDP ; std::forward<ForceInfo const &>
_TEXT	ENDS
PUBLIC	??$forward@UtagBaseCharHP@@@std@@YA$$QAUtagBaseCharHP@@AAU1@@Z ; std::forward<tagBaseCharHP>
; Function compile flags: /Ogsp
;	COMDAT ??$forward@UtagBaseCharHP@@@std@@YA$$QAUtagBaseCharHP@@AAU1@@Z
_TEXT	SEGMENT
__Arg$ = 8						; size = 4
??$forward@UtagBaseCharHP@@@std@@YA$$QAUtagBaseCharHP@@AAU1@@Z PROC ; std::forward<tagBaseCharHP>, COMDAT

; 78   : 	{	// forward _Arg, given explicitly specified type parameter

  00000	55		 push	 ebp
  00001	8b ec		 mov	 ebp, esp

; 79   : 	return ((_Ty&&)_Arg);

  00003	8b 45 08	 mov	 eax, DWORD PTR __Arg$[ebp]

; 80   : 	}

  00006	5d		 pop	 ebp
  00007	c3		 ret	 0
??$forward@UtagBaseCharHP@@@std@@YA$$QAUtagBaseCharHP@@AAU1@@Z ENDP ; std::forward<tagBaseCharHP>
_TEXT	ENDS
PUBLIC	??$_Construct@UForceInfo@@ABU1@@std@@YAXPAUForceInfo@@ABU1@@Z ; std::_Construct<ForceInfo,ForceInfo const &>
; Function compile flags: /Ogsp
; File c:\program files (x86)\microsoft visual studio 10.0\vc\include\xmemory
;	COMDAT ??$_Construct@UForceInfo@@ABU1@@std@@YAXPAUForceInfo@@ABU1@@Z
_TEXT	SEGMENT
__Ptr$ = 8						; size = 4
__Val$ = 12						; size = 4
??$_Construct@UForceInfo@@ABU1@@std@@YAXPAUForceInfo@@ABU1@@Z PROC ; std::_Construct<ForceInfo,ForceInfo const &>, COMDAT

; 46   : 	{	// construct object at _Ptr with value _Val

  00000	55		 push	 ebp
  00001	8b ec		 mov	 ebp, esp
  00003	57		 push	 edi

; 47   : 	void _FARQ *_Vptr = _Ptr;
; 48   : 	::new (_Vptr) _Ty1(_STD forward<_Ty2>(_Val));

  00004	8b 7d 08	 mov	 edi, DWORD PTR __Ptr$[ebp]
  00007	85 ff		 test	 edi, edi
  00009	74 08		 je	 SHORT $LN3@Construct
  0000b	56		 push	 esi
  0000c	8b 75 0c	 mov	 esi, DWORD PTR __Val$[ebp]
  0000f	a5		 movsd
  00010	a5		 movsd
  00011	a5		 movsd
  00012	5e		 pop	 esi
$LN3@Construct:
  00013	5f		 pop	 edi

; 49   : 	}

  00014	5d		 pop	 ebp
  00015	c3		 ret	 0
??$_Construct@UForceInfo@@ABU1@@std@@YAXPAUForceInfo@@ABU1@@Z ENDP ; std::_Construct<ForceInfo,ForceInfo const &>
_TEXT	ENDS
PUBLIC	??$_Move_backward@PAUtagBaseCharHP@@PAU1@@std@@YAPAUtagBaseCharHP@@PAU1@00U_Nonscalar_ptr_iterator_tag@0@@Z ; std::_Move_backward<tagBaseCharHP *,tagBaseCharHP *>
; Function compile flags: /Ogsp
; File c:\program files (x86)\microsoft visual studio 10.0\vc\include\xutility
;	COMDAT ??$_Move_backward@PAUtagBaseCharHP@@PAU1@@std@@YAPAUtagBaseCharHP@@PAU1@00U_Nonscalar_ptr_iterator_tag@0@@Z
_TEXT	SEGMENT
__First$ = 8						; size = 4
__Last$ = 12						; size = 4
__Dest$ = 16						; size = 4
___formal$ = 20						; size = 1
??$_Move_backward@PAUtagBaseCharHP@@PAU1@@std@@YAPAUtagBaseCharHP@@PAU1@00U_Nonscalar_ptr_iterator_tag@0@@Z PROC ; std::_Move_backward<tagBaseCharHP *,tagBaseCharHP *>, COMDAT

; 2617 : 	{	// move [_First, _Last) backwards to [..., _Dest), arbitrary iterators

  00000	55		 push	 ebp
  00001	8b ec		 mov	 ebp, esp
  00003	56		 push	 esi

; 2618 : 	while (_First != _Last)

  00004	8b 75 0c	 mov	 esi, DWORD PTR __Last$[ebp]
  00007	39 75 08	 cmp	 DWORD PTR __First$[ebp], esi
  0000a	74 15		 je	 SHORT $LN9@Move_backw
$LL2@Move_backw:

; 2619 : 		*--_Dest = _STD move(*--_Last);

  0000c	83 6d 10 18	 sub	 DWORD PTR __Dest$[ebp], 24 ; 00000018H
  00010	8b 4d 10	 mov	 ecx, DWORD PTR __Dest$[ebp]
  00013	83 ee 18	 sub	 esi, 24			; 00000018H
  00016	56		 push	 esi
  00017	e8 00 00 00 00	 call	 ??4tagBaseCharHP@@QAEAAU0@ABU0@@Z
  0001c	3b 75 08	 cmp	 esi, DWORD PTR __First$[ebp]
  0001f	75 eb		 jne	 SHORT $LL2@Move_backw
$LN9@Move_backw:

; 2620 : 	return (_Dest);

  00021	8b 45 10	 mov	 eax, DWORD PTR __Dest$[ebp]
  00024	5e		 pop	 esi

; 2621 : 	}

  00025	5d		 pop	 ebp
  00026	c3		 ret	 0
??$_Move_backward@PAUtagBaseCharHP@@PAU1@@std@@YAPAUtagBaseCharHP@@PAU1@00U_Nonscalar_ptr_iterator_tag@0@@Z ENDP ; std::_Move_backward<tagBaseCharHP *,tagBaseCharHP *>
_TEXT	ENDS
PUBLIC	?_DECSTR@@YAXPADH@Z				; _DECSTR
; Function compile flags: /Ogsp
; File d:\lost saga for developer\youtube\tutorial\source\src\lsclient\stringprotect.h
;	COMDAT ?_DECSTR@@YAXPADH@Z
_TEXT	SEGMENT
_s$ = 8							; size = 4
_l$ = 12						; size = 4
?_DECSTR@@YAXPADH@Z PROC				; _DECSTR, COMDAT

; 40   : __forceinline void _DECSTR(char* s, int l){int i=0,l4=(l-1)/4,*p=(int*)s;s[l-1]=0;for(;i<l4;++i)*(p++)^=0xEAEBECED;for(i=l4*4;i<l-1;++i)s[i]^=0xED-i%4;}

  00000	55		 push	 ebp
  00001	8b ec		 mov	 ebp, esp
  00003	8b 4d 0c	 mov	 ecx, DWORD PTR _l$[ebp]
  00006	56		 push	 esi
  00007	8b 75 08	 mov	 esi, DWORD PTR _s$[ebp]
  0000a	57		 push	 edi
  0000b	8d 79 ff	 lea	 edi, DWORD PTR [ecx-1]
  0000e	8b c7		 mov	 eax, edi
  00010	99		 cdq
  00011	83 e2 03	 and	 edx, 3
  00014	03 c2		 add	 eax, edx
  00016	c1 f8 02	 sar	 eax, 2
  00019	8b d6		 mov	 edx, esi
  0001b	c6 44 0e ff 00	 mov	 BYTE PTR [esi+ecx-1], 0
  00020	85 c0		 test	 eax, eax
  00022	7e 0e		 jle	 SHORT $LN4@DECSTR
  00024	8b c8		 mov	 ecx, eax
$LL6@DECSTR:
  00026	81 32 ed ec eb
	ea		 xor	 DWORD PTR [edx], -353637139 ; eaebecedH
  0002c	83 c2 04	 add	 edx, 4
  0002f	49		 dec	 ecx
  00030	75 f4		 jne	 SHORT $LL6@DECSTR
$LN4@DECSTR:
  00032	c1 e0 02	 shl	 eax, 2
  00035	eb 17		 jmp	 SHORT $LN14@DECSTR
$LL3@DECSTR:
  00037	8b c8		 mov	 ecx, eax
  00039	81 e1 03 00 00
	80		 and	 ecx, -2147483645	; 80000003H
  0003f	79 05		 jns	 SHORT $LN13@DECSTR
  00041	49		 dec	 ecx
  00042	83 c9 fc	 or	 ecx, -4			; fffffffcH
  00045	41		 inc	 ecx
$LN13@DECSTR:
  00046	b2 ed		 mov	 dl, -19			; ffffffedH
  00048	2a d1		 sub	 dl, cl
  0004a	30 14 30	 xor	 BYTE PTR [eax+esi], dl
  0004d	40		 inc	 eax
$LN14@DECSTR:
  0004e	3b c7		 cmp	 eax, edi
  00050	7c e5		 jl	 SHORT $LL3@DECSTR
  00052	5f		 pop	 edi
  00053	5e		 pop	 esi
  00054	5d		 pop	 ebp
  00055	c3		 ret	 0
?_DECSTR@@YAXPADH@Z ENDP				; _DECSTR
_TEXT	ENDS
PUBLIC	?GetGroup@ioGameEntity@@QBEPAVioEntityGroup@@XZ	; ioGameEntity::GetGroup
; Function compile flags: /Ogsp
; File d:\lost saga for developer\youtube\tutorial\source\src\lsclient\iogameentity.h
;	COMDAT ?GetGroup@ioGameEntity@@QBEPAVioEntityGroup@@XZ
_TEXT	SEGMENT
?GetGroup@ioGameEntity@@QBEPAVioEntityGroup@@XZ PROC	; ioGameEntity::GetGroup, COMDAT
; _this$ = ecx

; 166  : 	inline ioEntityGroup* GetGroup() const { return m_pGroup; }

  00000	8b 41 04	 mov	 eax, DWORD PTR [ecx+4]
  00003	c3		 ret	 0
?GetGroup@ioGameEntity@@QBEPAVioEntityGroup@@XZ ENDP	; ioGameEntity::GetGroup
_TEXT	ENDS
PUBLIC	??1WeaponInfo@@QAE@XZ				; WeaponInfo::~WeaponInfo
; Function compile flags: /Ogsp
;	COMDAT ??1WeaponInfo@@QAE@XZ
_TEXT	SEGMENT
??1WeaponInfo@@QAE@XZ PROC				; WeaponInfo::~WeaponInfo, COMDAT
; _this$ = ecx
  00000	83 c1 08	 add	 ecx, 8
  00003	ff 25 00 00 00
	00		 jmp	 DWORD PTR __imp_??1ioHashString@@QAE@XZ
??1WeaponInfo@@QAE@XZ ENDP				; WeaponInfo::~WeaponInfo
_TEXT	ENDS
PUBLIC	??0tagBaseCharHP@@QAE@XZ			; tagBaseCharHP::tagBaseCharHP
EXTRN	__imp_??0ioHashString@@QAE@XZ:PROC
; Function compile flags: /Ogsp
; File d:\lost saga for developer\youtube\tutorial\source\src\lsclient\playentityhelpstruct.h
;	COMDAT ??0tagBaseCharHP@@QAE@XZ
_TEXT	SEGMENT
??0tagBaseCharHP@@QAE@XZ PROC				; tagBaseCharHP::tagBaseCharHP, COMDAT
; _this$ = ecx

; 3045 : 	tagBaseCharHP()

  00000	56		 push	 esi
  00001	8b f1		 mov	 esi, ecx
  00003	ff 15 00 00 00
	00		 call	 DWORD PTR __imp_??0ioHashString@@QAE@XZ

; 3046 : 	{
; 3047 : 		m_fHP = 0.0f;

  00009	0f 57 c0	 xorps	 xmm0, xmm0
  0000c	f3 0f 11 46 10	 movss	 DWORD PTR [esi+16], xmm0

; 3048 : 		m_bPrisoner = false;

  00011	c6 46 14 00	 mov	 BYTE PTR [esi+20], 0

; 3049 : 	}

  00015	8b c6		 mov	 eax, esi
  00017	5e		 pop	 esi
  00018	c3		 ret	 0
??0tagBaseCharHP@@QAE@XZ ENDP				; tagBaseCharHP::tagBaseCharHP
_TEXT	ENDS
PUBLIC	??RBaseCharHPSort@@QBE_NABUtagBaseCharHP@@0@Z	; BaseCharHPSort::operator()
; Function compile flags: /Ogsp
;	COMDAT ??RBaseCharHPSort@@QBE_NABUtagBaseCharHP@@0@Z
_TEXT	SEGMENT
_lhs$ = 8						; size = 4
_rhs$ = 12						; size = 4
??RBaseCharHPSort@@QBE_NABUtagBaseCharHP@@0@Z PROC	; BaseCharHPSort::operator(), COMDAT
; _this$ = ecx

; 3059 : 	{

  00000	55		 push	 ebp
  00001	8b ec		 mov	 ebp, esp

; 3060 : 		if ( lhs.m_bPrisoner )

  00003	8b 45 08	 mov	 eax, DWORD PTR _lhs$[ebp]
  00006	80 78 14 00	 cmp	 BYTE PTR [eax+20], 0

; 3061 : 			return false;

  0000a	75 1d		 jne	 SHORT $LN1@operator

; 3062 : 
; 3063 : 		if( lhs.m_fHP < rhs.m_fHP )

  0000c	f3 0f 10 40 10	 movss	 xmm0, DWORD PTR [eax+16]
  00011	8b 45 0c	 mov	 eax, DWORD PTR _rhs$[ebp]
  00014	f3 0f 10 48 10	 movss	 xmm1, DWORD PTR [eax+16]
  00019	0f 5a c0	 cvtps2pd xmm0, xmm0
  0001c	0f 5a c9	 cvtps2pd xmm1, xmm1
  0001f	66 0f 2f c8	 comisd	 xmm1, xmm0
  00023	76 04		 jbe	 SHORT $LN1@operator

; 3064 : 		{
; 3065 : 			return true;

  00025	b0 01		 mov	 al, 1
  00027	eb 02		 jmp	 SHORT $LN3@operator
$LN1@operator:

; 3066 : 		}
; 3067 : 
; 3068 : 		return false;

  00029	32 c0		 xor	 al, al
$LN3@operator:

; 3069 : 	}

  0002b	5d		 pop	 ebp
  0002c	c2 08 00	 ret	 8
??RBaseCharHPSort@@QBE_NABUtagBaseCharHP@@0@Z ENDP	; BaseCharHPSort::operator()
_TEXT	ENDS
PUBLIC	?GetHP@ioPlayEntity@@QAEAAUStatusValue@@XZ	; ioPlayEntity::GetHP
; Function compile flags: /Ogsp
; File d:\lost saga for developer\youtube\tutorial\source\src\lsclient\ioplayentity.h
;	COMDAT ?GetHP@ioPlayEntity@@QAEAAUStatusValue@@XZ
_TEXT	SEGMENT
?GetHP@ioPlayEntity@@QAEAAUStatusValue@@XZ PROC		; ioPlayEntity::GetHP, COMDAT
; _this$ = ecx

; 96   : 	inline StatusValue& GetHP() { return m_HP; }

  00000	8d 81 c0 00 00
	00		 lea	 eax, DWORD PTR [ecx+192]
  00006	c3		 ret	 0
?GetHP@ioPlayEntity@@QAEAAUStatusValue@@XZ ENDP		; ioPlayEntity::GetHP
_TEXT	ENDS
PUBLIC	?GetName@ioSkill@@QBEABVioHashString@@XZ	; ioSkill::GetName
; Function compile flags: /Ogsp
; File d:\lost saga for developer\youtube\tutorial\source\src\lsclient\ioskill.h
;	COMDAT ?GetName@ioSkill@@QBEABVioHashString@@XZ
_TEXT	SEGMENT
?GetName@ioSkill@@QBEABVioHashString@@XZ PROC		; ioSkill::GetName, COMDAT
; _this$ = ecx

; 414  : 	inline const ioHashString& GetName() const { return m_Name; }

  00000	8d 41 24	 lea	 eax, DWORD PTR [ecx+36]
  00003	c3		 ret	 0
?GetName@ioSkill@@QBEABVioHashString@@XZ ENDP		; ioSkill::GetName
_TEXT	ENDS
PUBLIC	??1?$_Vector_val@UWeaponInfo@@V?$allocator@UWeaponInfo@@@std@@@std@@QAE@XZ ; std::_Vector_val<WeaponInfo,std::allocator<WeaponInfo> >::~_Vector_val<WeaponInfo,std::allocator<WeaponInfo> >
; Function compile flags: /Ogsp
; File c:\program files (x86)\microsoft visual studio 10.0\vc\include\vector
;	COMDAT ??1?$_Vector_val@UWeaponInfo@@V?$allocator@UWeaponInfo@@@std@@@std@@QAE@XZ
_TEXT	SEGMENT
??1?$_Vector_val@UWeaponInfo@@V?$allocator@UWeaponInfo@@@std@@@std@@QAE@XZ PROC ; std::_Vector_val<WeaponInfo,std::allocator<WeaponInfo> >::~_Vector_val<WeaponInfo,std::allocator<WeaponInfo> >, COMDAT
; _this$ = ecx

; 434  : 		}

  00000	c3		 ret	 0
??1?$_Vector_val@UWeaponInfo@@V?$allocator@UWeaponInfo@@@std@@@std@@QAE@XZ ENDP ; std::_Vector_val<WeaponInfo,std::allocator<WeaponInfo> >::~_Vector_val<WeaponInfo,std::allocator<WeaponInfo> >
_TEXT	ENDS
PUBLIC	??0?$allocator@UWeaponInfo@@@std@@QAE@XZ	; std::allocator<WeaponInfo>::allocator<WeaponInfo>
; Function compile flags: /Ogsp
; File c:\program files (x86)\microsoft visual studio 10.0\vc\include\xmemory
;	COMDAT ??0?$allocator@UWeaponInfo@@@std@@QAE@XZ
_TEXT	SEGMENT
??0?$allocator@UWeaponInfo@@@std@@QAE@XZ PROC		; std::allocator<WeaponInfo>::allocator<WeaponInfo>, COMDAT
; _this$ = ecx

; 161  : 	_ALLOCATOR() _THROW0()

  00000	8b c1		 mov	 eax, ecx

; 162  : 		{	// construct default allocator (do nothing)
; 163  : 		}

  00002	c3		 ret	 0
??0?$allocator@UWeaponInfo@@@std@@QAE@XZ ENDP		; std::allocator<WeaponInfo>::allocator<WeaponInfo>
_TEXT	ENDS
PUBLIC	??1?$_Vector_val@UForceInfo@@V?$allocator@UForceInfo@@@std@@@std@@QAE@XZ ; std::_Vector_val<ForceInfo,std::allocator<ForceInfo> >::~_Vector_val<ForceInfo,std::allocator<ForceInfo> >
; Function compile flags: /Ogsp
; File c:\program files (x86)\microsoft visual studio 10.0\vc\include\vector
;	COMDAT ??1?$_Vector_val@UForceInfo@@V?$allocator@UForceInfo@@@std@@@std@@QAE@XZ
_TEXT	SEGMENT
??1?$_Vector_val@UForceInfo@@V?$allocator@UForceInfo@@@std@@@std@@QAE@XZ PROC ; std::_Vector_val<ForceInfo,std::allocator<ForceInfo> >::~_Vector_val<ForceInfo,std::allocator<ForceInfo> >, COMDAT
; _this$ = ecx

; 434  : 		}

  00000	c3		 ret	 0
??1?$_Vector_val@UForceInfo@@V?$allocator@UForceInfo@@@std@@@std@@QAE@XZ ENDP ; std::_Vector_val<ForceInfo,std::allocator<ForceInfo> >::~_Vector_val<ForceInfo,std::allocator<ForceInfo> >
_TEXT	ENDS
PUBLIC	??0?$allocator@UForceInfo@@@std@@QAE@XZ		; std::allocator<ForceInfo>::allocator<ForceInfo>
; Function compile flags: /Ogsp
; File c:\program files (x86)\microsoft visual studio 10.0\vc\include\xmemory
;	COMDAT ??0?$allocator@UForceInfo@@@std@@QAE@XZ
_TEXT	SEGMENT
??0?$allocator@UForceInfo@@@std@@QAE@XZ PROC		; std::allocator<ForceInfo>::allocator<ForceInfo>, COMDAT
; _this$ = ecx

; 161  : 	_ALLOCATOR() _THROW0()

  00000	8b c1		 mov	 eax, ecx

; 162  : 		{	// construct default allocator (do nothing)
; 163  : 		}

  00002	c3		 ret	 0
??0?$allocator@UForceInfo@@@std@@QAE@XZ ENDP		; std::allocator<ForceInfo>::allocator<ForceInfo>
_TEXT	ENDS
PUBLIC	?DecryptValueToPool@?$CEncrypt@M@@QAEXPAM@Z	; CEncrypt<float>::DecryptValueToPool
EXTRN	?DecryptByte@ccddaabb@@QBEXPBDPADH@Z:PROC	; ccddaabb::DecryptByte
; Function compile flags: /Ogsp
; File d:\lost saga for developer\youtube\tutorial\source\src\lsclient\encryptvalue.h
;	COMDAT ?DecryptValueToPool@?$CEncrypt@M@@QAEXPAM@Z
_TEXT	SEGMENT
_value$ = 8						; size = 4
?DecryptValueToPool@?$CEncrypt@M@@QAEXPAM@Z PROC	; CEncrypt<float>::DecryptValueToPool, COMDAT
; _this$ = ecx

; 1648 : 	{

  00000	55		 push	 ebp
  00001	8b ec		 mov	 ebp, esp
  00003	56		 push	 esi

; 1649 : 		m_RC5.DecryptByte( m_MemPool, m_TempMem, 4 );

  00004	8d 71 28	 lea	 esi, DWORD PTR [ecx+40]
  00007	6a 04		 push	 4
  00009	8d 41 1c	 lea	 eax, DWORD PTR [ecx+28]
  0000c	56		 push	 esi
  0000d	50		 push	 eax
  0000e	83 c1 0c	 add	 ecx, 12			; 0000000cH
  00011	e8 00 00 00 00	 call	 ?DecryptByte@ccddaabb@@QBEXPBDPADH@Z ; ccddaabb::DecryptByte

; 1650 : 		*value = *((float*)m_TempMem);

  00016	d9 06		 fld	 DWORD PTR [esi]
  00018	8b 45 08	 mov	 eax, DWORD PTR _value$[ebp]
  0001b	d9 18		 fstp	 DWORD PTR [eax]
  0001d	5e		 pop	 esi

; 1651 : 	}

  0001e	5d		 pop	 ebp
  0001f	c2 04 00	 ret	 4
?DecryptValueToPool@?$CEncrypt@M@@QAEXPAM@Z ENDP	; CEncrypt<float>::DecryptValueToPool
_TEXT	ENDS
PUBLIC	?DecryptValueToPool@?$CEncrypt@_N@@QAEXPA_N@Z	; CEncrypt<bool>::DecryptValueToPool
; Function compile flags: /Ogsp
;	COMDAT ?DecryptValueToPool@?$CEncrypt@_N@@QAEXPA_N@Z
_TEXT	SEGMENT
_value$ = 8						; size = 4
?DecryptValueToPool@?$CEncrypt@_N@@QAEXPA_N@Z PROC	; CEncrypt<bool>::DecryptValueToPool, COMDAT
; _this$ = ecx

; 219  : 	{

  00000	55		 push	 ebp
  00001	8b ec		 mov	 ebp, esp
  00003	56		 push	 esi

; 220  : 		m_RC5.DecryptByte( m_MemPool, m_TempMem, 4 );

  00004	8d 71 28	 lea	 esi, DWORD PTR [ecx+40]
  00007	6a 04		 push	 4
  00009	8d 41 1c	 lea	 eax, DWORD PTR [ecx+28]
  0000c	56		 push	 esi
  0000d	50		 push	 eax
  0000e	83 c1 0c	 add	 ecx, 12			; 0000000cH
  00011	e8 00 00 00 00	 call	 ?DecryptByte@ccddaabb@@QBEXPBDPADH@Z ; ccddaabb::DecryptByte

; 221  : 		*value = *((bool*)m_TempMem);

  00016	8a 06		 mov	 al, BYTE PTR [esi]
  00018	8b 4d 08	 mov	 ecx, DWORD PTR _value$[ebp]
  0001b	88 01		 mov	 BYTE PTR [ecx], al
  0001d	5e		 pop	 esi

; 222  : 	}

  0001e	5d		 pop	 ebp
  0001f	c2 04 00	 ret	 4
?DecryptValueToPool@?$CEncrypt@_N@@QAEXPA_N@Z ENDP	; CEncrypt<bool>::DecryptValueToPool
_TEXT	ENDS
PUBLIC	?DecryptValueToPool@?$CEncrypt@W4TeamType@@@@QAEXPAW4TeamType@@@Z ; CEncrypt<enum TeamType>::DecryptValueToPool
; Function compile flags: /Ogsp
;	COMDAT ?DecryptValueToPool@?$CEncrypt@W4TeamType@@@@QAEXPAW4TeamType@@@Z
_TEXT	SEGMENT
_value$ = 8						; size = 4
?DecryptValueToPool@?$CEncrypt@W4TeamType@@@@QAEXPAW4TeamType@@@Z PROC ; CEncrypt<enum TeamType>::DecryptValueToPool, COMDAT
; _this$ = ecx

; 2959 : 	{

  00000	55		 push	 ebp
  00001	8b ec		 mov	 ebp, esp
  00003	56		 push	 esi

; 2960 : 		m_RC5.DecryptByte( m_MemPool, m_TempMem, sizeof(TeamType) );

  00004	8d 71 28	 lea	 esi, DWORD PTR [ecx+40]
  00007	6a 04		 push	 4
  00009	8d 41 1c	 lea	 eax, DWORD PTR [ecx+28]
  0000c	56		 push	 esi
  0000d	50		 push	 eax
  0000e	83 c1 0c	 add	 ecx, 12			; 0000000cH
  00011	e8 00 00 00 00	 call	 ?DecryptByte@ccddaabb@@QBEXPBDPADH@Z ; ccddaabb::DecryptByte

; 2961 : 		*value = *((TeamType*)m_TempMem);

  00016	8b 06		 mov	 eax, DWORD PTR [esi]
  00018	8b 4d 08	 mov	 ecx, DWORD PTR _value$[ebp]
  0001b	89 01		 mov	 DWORD PTR [ecx], eax
  0001d	5e		 pop	 esi

; 2962 : 	}

  0001e	5d		 pop	 ebp
  0001f	c2 04 00	 ret	 4
?DecryptValueToPool@?$CEncrypt@W4TeamType@@@@QAEXPAW4TeamType@@@Z ENDP ; CEncrypt<enum TeamType>::DecryptValueToPool
_TEXT	ENDS
PUBLIC	??0?$allocator@UWeaponInfo@@@std@@QAE@ABV01@@Z	; std::allocator<WeaponInfo>::allocator<WeaponInfo>
; Function compile flags: /Ogsp
; File c:\program files (x86)\microsoft visual studio 10.0\vc\include\xmemory
;	COMDAT ??0?$allocator@UWeaponInfo@@@std@@QAE@ABV01@@Z
_TEXT	SEGMENT
___formal$ = 8						; size = 4
??0?$allocator@UWeaponInfo@@@std@@QAE@ABV01@@Z PROC	; std::allocator<WeaponInfo>::allocator<WeaponInfo>, COMDAT
; _this$ = ecx

; 165  : 	_ALLOCATOR(const _ALLOCATOR<_Ty>&) _THROW0()

  00000	8b c1		 mov	 eax, ecx

; 166  : 		{	// construct by copying (do nothing)
; 167  : 		}

  00002	c2 04 00	 ret	 4
??0?$allocator@UWeaponInfo@@@std@@QAE@ABV01@@Z ENDP	; std::allocator<WeaponInfo>::allocator<WeaponInfo>
_TEXT	ENDS
PUBLIC	?deallocate@?$allocator@UWeaponInfo@@@std@@QAEXPAUWeaponInfo@@I@Z ; std::allocator<WeaponInfo>::deallocate
; Function compile flags: /Ogsp
;	COMDAT ?deallocate@?$allocator@UWeaponInfo@@@std@@QAEXPAUWeaponInfo@@I@Z
_TEXT	SEGMENT
__Ptr$ = 8						; size = 4
___formal$ = 12						; size = 4
?deallocate@?$allocator@UWeaponInfo@@@std@@QAEXPAUWeaponInfo@@I@Z PROC ; std::allocator<WeaponInfo>::deallocate, COMDAT
; _this$ = ecx

; 181  : 		{	// deallocate object at _Ptr, ignore size

  00000	55		 push	 ebp
  00001	8b ec		 mov	 ebp, esp

; 182  : 		::operator delete(_Ptr);

  00003	ff 75 08	 push	 DWORD PTR __Ptr$[ebp]
  00006	e8 00 00 00 00	 call	 ??3@YAXPAX@Z		; operator delete
  0000b	59		 pop	 ecx

; 183  : 		}

  0000c	5d		 pop	 ebp
  0000d	c2 08 00	 ret	 8
?deallocate@?$allocator@UWeaponInfo@@@std@@QAEXPAUWeaponInfo@@I@Z ENDP ; std::allocator<WeaponInfo>::deallocate
_TEXT	ENDS
PUBLIC	??0?$allocator@UForceInfo@@@std@@QAE@ABV01@@Z	; std::allocator<ForceInfo>::allocator<ForceInfo>
; Function compile flags: /Ogsp
;	COMDAT ??0?$allocator@UForceInfo@@@std@@QAE@ABV01@@Z
_TEXT	SEGMENT
___formal$ = 8						; size = 4
??0?$allocator@UForceInfo@@@std@@QAE@ABV01@@Z PROC	; std::allocator<ForceInfo>::allocator<ForceInfo>, COMDAT
; _this$ = ecx

; 165  : 	_ALLOCATOR(const _ALLOCATOR<_Ty>&) _THROW0()

  00000	8b c1		 mov	 eax, ecx

; 166  : 		{	// construct by copying (do nothing)
; 167  : 		}

  00002	c2 04 00	 ret	 4
??0?$allocator@UForceInfo@@@std@@QAE@ABV01@@Z ENDP	; std::allocator<ForceInfo>::allocator<ForceInfo>
_TEXT	ENDS
PUBLIC	?deallocate@?$allocator@UForceInfo@@@std@@QAEXPAUForceInfo@@I@Z ; std::allocator<ForceInfo>::deallocate
; Function compile flags: /Ogsp
;	COMDAT ?deallocate@?$allocator@UForceInfo@@@std@@QAEXPAUForceInfo@@I@Z
_TEXT	SEGMENT
__Ptr$ = 8						; size = 4
___formal$ = 12						; size = 4
?deallocate@?$allocator@UForceInfo@@@std@@QAEXPAUForceInfo@@I@Z PROC ; std::allocator<ForceInfo>::deallocate, COMDAT
; _this$ = ecx

; 181  : 		{	// deallocate object at _Ptr, ignore size

  00000	55		 push	 ebp
  00001	8b ec		 mov	 ebp, esp

; 182  : 		::operator delete(_Ptr);

  00003	ff 75 08	 push	 DWORD PTR __Ptr$[ebp]
  00006	e8 00 00 00 00	 call	 ??3@YAXPAX@Z		; operator delete
  0000b	59		 pop	 ecx

; 183  : 		}

  0000c	5d		 pop	 ebp
  0000d	c2 08 00	 ret	 8
?deallocate@?$allocator@UForceInfo@@@std@@QAEXPAUForceInfo@@I@Z ENDP ; std::allocator<ForceInfo>::deallocate
_TEXT	ENDS
EXTRN	__imp_??0exception@std@@QAE@ABV01@@Z:PROC
; Function compile flags: /Ogsp
;	COMDAT ??0bad_alloc@std@@QAE@ABV01@@Z
_TEXT	SEGMENT
___that$ = 8						; size = 4
??0bad_alloc@std@@QAE@ABV01@@Z PROC			; std::bad_alloc::bad_alloc, COMDAT
; _this$ = ecx
  00000	55		 push	 ebp
  00001	8b ec		 mov	 ebp, esp
  00003	56		 push	 esi
  00004	ff 75 08	 push	 DWORD PTR ___that$[ebp]
  00007	8b f1		 mov	 esi, ecx
  00009	ff 15 00 00 00
	00		 call	 DWORD PTR __imp_??0exception@std@@QAE@ABV01@@Z
  0000f	c7 06 00 00 00
	00		 mov	 DWORD PTR [esi], OFFSET ??_7bad_alloc@std@@6B@
  00015	8b c6		 mov	 eax, esi
  00017	5e		 pop	 esi
  00018	5d		 pop	 ebp
  00019	c2 04 00	 ret	 4
??0bad_alloc@std@@QAE@ABV01@@Z ENDP			; std::bad_alloc::bad_alloc
_TEXT	ENDS
PUBLIC	??$_Ptr_cat@UWeaponInfo@@U1@@std@@YA?AU_Nonscalar_ptr_iterator_tag@0@PAUWeaponInfo@@0@Z ; std::_Ptr_cat<WeaponInfo,WeaponInfo>
; Function compile flags: /Ogsp
; File c:\program files (x86)\microsoft visual studio 10.0\vc\include\xutility
;	COMDAT ??$_Ptr_cat@UWeaponInfo@@U1@@std@@YA?AU_Nonscalar_ptr_iterator_tag@0@PAUWeaponInfo@@0@Z
_TEXT	SEGMENT
__Cat$ = -1						; size = 1
___formal$ = 8						; size = 4
___formal$ = 12						; size = 4
??$_Ptr_cat@UWeaponInfo@@U1@@std@@YA?AU_Nonscalar_ptr_iterator_tag@0@PAUWeaponInfo@@0@Z PROC ; std::_Ptr_cat<WeaponInfo,WeaponInfo>, COMDAT

; 516  : 	{	// return pointer category from pointers

  00000	55		 push	 ebp
  00001	8b ec		 mov	 ebp, esp
  00003	51		 push	 ecx

; 517  : 	typename _Ptr_cat_helper<_Elem1, _Elem2>::_Type _Cat;
; 518  : 	return (_Cat);

  00004	8a 45 ff	 mov	 al, BYTE PTR __Cat$[ebp]

; 519  : 	}

  00007	c9		 leave
  00008	c3		 ret	 0
??$_Ptr_cat@UWeaponInfo@@U1@@std@@YA?AU_Nonscalar_ptr_iterator_tag@0@PAUWeaponInfo@@0@Z ENDP ; std::_Ptr_cat<WeaponInfo,WeaponInfo>
_TEXT	ENDS
PUBLIC	??$_Ptr_cat@UForceInfo@@U1@@std@@YA?AU_Nonscalar_ptr_iterator_tag@0@PAUForceInfo@@0@Z ; std::_Ptr_cat<ForceInfo,ForceInfo>
; Function compile flags: /Ogsp
;	COMDAT ??$_Ptr_cat@UForceInfo@@U1@@std@@YA?AU_Nonscalar_ptr_iterator_tag@0@PAUForceInfo@@0@Z
_TEXT	SEGMENT
__Cat$ = -1						; size = 1
___formal$ = 8						; size = 4
___formal$ = 12						; size = 4
??$_Ptr_cat@UForceInfo@@U1@@std@@YA?AU_Nonscalar_ptr_iterator_tag@0@PAUForceInfo@@0@Z PROC ; std::_Ptr_cat<ForceInfo,ForceInfo>, COMDAT

; 516  : 	{	// return pointer category from pointers

  00000	55		 push	 ebp
  00001	8b ec		 mov	 ebp, esp
  00003	51		 push	 ecx

; 517  : 	typename _Ptr_cat_helper<_Elem1, _Elem2>::_Type _Cat;
; 518  : 	return (_Cat);

  00004	8a 45 ff	 mov	 al, BYTE PTR __Cat$[ebp]

; 519  : 	}

  00007	c9		 leave
  00008	c3		 ret	 0
??$_Ptr_cat@UForceInfo@@U1@@std@@YA?AU_Nonscalar_ptr_iterator_tag@0@PAUForceInfo@@0@Z ENDP ; std::_Ptr_cat<ForceInfo,ForceInfo>
_TEXT	ENDS
PUBLIC	?capacity@?$vector@UWeaponInfo@@V?$allocator@UWeaponInfo@@@std@@@std@@QBEIXZ ; std::vector<WeaponInfo,std::allocator<WeaponInfo> >::capacity
; Function compile flags: /Ogsp
; File c:\program files (x86)\microsoft visual studio 10.0\vc\include\vector
;	COMDAT ?capacity@?$vector@UWeaponInfo@@V?$allocator@UWeaponInfo@@@std@@@std@@QBEIXZ
_TEXT	SEGMENT
?capacity@?$vector@UWeaponInfo@@V?$allocator@UWeaponInfo@@@std@@@std@@QBEIXZ PROC ; std::vector<WeaponInfo,std::allocator<WeaponInfo> >::capacity, COMDAT
; _this$ = ecx

; 777  : 		return (this->_Myend - this->_Myfirst);

  00000	8b 41 08	 mov	 eax, DWORD PTR [ecx+8]
  00003	2b 01		 sub	 eax, DWORD PTR [ecx]
  00005	6a 28		 push	 40			; 00000028H
  00007	99		 cdq
  00008	59		 pop	 ecx
  00009	f7 f9		 idiv	 ecx

; 778  : 		}

  0000b	c3		 ret	 0
?capacity@?$vector@UWeaponInfo@@V?$allocator@UWeaponInfo@@@std@@@std@@QBEIXZ ENDP ; std::vector<WeaponInfo,std::allocator<WeaponInfo> >::capacity
_TEXT	ENDS
PUBLIC	?size@?$vector@UWeaponInfo@@V?$allocator@UWeaponInfo@@@std@@@std@@QBEIXZ ; std::vector<WeaponInfo,std::allocator<WeaponInfo> >::size
; Function compile flags: /Ogsp
;	COMDAT ?size@?$vector@UWeaponInfo@@V?$allocator@UWeaponInfo@@@std@@@std@@QBEIXZ
_TEXT	SEGMENT
?size@?$vector@UWeaponInfo@@V?$allocator@UWeaponInfo@@@std@@@std@@QBEIXZ PROC ; std::vector<WeaponInfo,std::allocator<WeaponInfo> >::size, COMDAT
; _this$ = ecx

; 879  : 		return (this->_Mylast - this->_Myfirst);

  00000	8b 41 04	 mov	 eax, DWORD PTR [ecx+4]
  00003	2b 01		 sub	 eax, DWORD PTR [ecx]
  00005	6a 28		 push	 40			; 00000028H
  00007	99		 cdq
  00008	59		 pop	 ecx
  00009	f7 f9		 idiv	 ecx

; 880  : 		}

  0000b	c3		 ret	 0
?size@?$vector@UWeaponInfo@@V?$allocator@UWeaponInfo@@@std@@@std@@QBEIXZ ENDP ; std::vector<WeaponInfo,std::allocator<WeaponInfo> >::size
_TEXT	ENDS
PUBLIC	?capacity@?$vector@UForceInfo@@V?$allocator@UForceInfo@@@std@@@std@@QBEIXZ ; std::vector<ForceInfo,std::allocator<ForceInfo> >::capacity
; Function compile flags: /Ogsp
;	COMDAT ?capacity@?$vector@UForceInfo@@V?$allocator@UForceInfo@@@std@@@std@@QBEIXZ
_TEXT	SEGMENT
?capacity@?$vector@UForceInfo@@V?$allocator@UForceInfo@@@std@@@std@@QBEIXZ PROC ; std::vector<ForceInfo,std::allocator<ForceInfo> >::capacity, COMDAT
; _this$ = ecx

; 777  : 		return (this->_Myend - this->_Myfirst);

  00000	8b 41 08	 mov	 eax, DWORD PTR [ecx+8]
  00003	2b 01		 sub	 eax, DWORD PTR [ecx]
  00005	6a 0c		 push	 12			; 0000000cH
  00007	99		 cdq
  00008	59		 pop	 ecx
  00009	f7 f9		 idiv	 ecx

; 778  : 		}

  0000b	c3		 ret	 0
?capacity@?$vector@UForceInfo@@V?$allocator@UForceInfo@@@std@@@std@@QBEIXZ ENDP ; std::vector<ForceInfo,std::allocator<ForceInfo> >::capacity
_TEXT	ENDS
PUBLIC	?size@?$vector@UForceInfo@@V?$allocator@UForceInfo@@@std@@@std@@QBEIXZ ; std::vector<ForceInfo,std::allocator<ForceInfo> >::size
; Function compile flags: /Ogsp
;	COMDAT ?size@?$vector@UForceInfo@@V?$allocator@UForceInfo@@@std@@@std@@QBEIXZ
_TEXT	SEGMENT
?size@?$vector@UForceInfo@@V?$allocator@UForceInfo@@@std@@@std@@QBEIXZ PROC ; std::vector<ForceInfo,std::allocator<ForceInfo> >::size, COMDAT
; _this$ = ecx

; 879  : 		return (this->_Mylast - this->_Myfirst);

  00000	8b 41 04	 mov	 eax, DWORD PTR [ecx+4]
  00003	2b 01		 sub	 eax, DWORD PTR [ecx]
  00005	6a 0c		 push	 12			; 0000000cH
  00007	99		 cdq
  00008	59		 pop	 ecx
  00009	f7 f9		 idiv	 ecx

; 880  : 		}

  0000b	c3		 ret	 0
?size@?$vector@UForceInfo@@V?$allocator@UForceInfo@@@std@@@std@@QBEIXZ ENDP ; std::vector<ForceInfo,std::allocator<ForceInfo> >::size
_TEXT	ENDS
PUBLIC	?_Xlen@?$vector@UWeaponInfo@@V?$allocator@UWeaponInfo@@@std@@@std@@IBEXXZ ; std::vector<WeaponInfo,std::allocator<WeaponInfo> >::_Xlen
; Function compile flags: /Ogsp
;	COMDAT ?_Xlen@?$vector@UWeaponInfo@@V?$allocator@UWeaponInfo@@@std@@@std@@IBEXXZ
_TEXT	SEGMENT
?_Xlen@?$vector@UWeaponInfo@@V?$allocator@UWeaponInfo@@@std@@@std@@IBEXXZ PROC ; std::vector<WeaponInfo,std::allocator<WeaponInfo> >::_Xlen, COMDAT
; _this$ = ecx

; 1427 : 		_Xlength_error("vector<T> too long");

  00000	68 00 00 00 00	 push	 OFFSET ??_C@_0BD@OLBABOEK@vector?$DMT?$DO?5too?5long?$AA@
  00005	ff 15 00 00 00
	00		 call	 DWORD PTR __imp_?_Xlength_error@std@@YAXPBD@Z
$LN4@Xlen@2:
$LN3@Xlen@2:
  0000b	cc		 int	 3
?_Xlen@?$vector@UWeaponInfo@@V?$allocator@UWeaponInfo@@@std@@@std@@IBEXXZ ENDP ; std::vector<WeaponInfo,std::allocator<WeaponInfo> >::_Xlen
_TEXT	ENDS
PUBLIC	?_Xlen@?$vector@UForceInfo@@V?$allocator@UForceInfo@@@std@@@std@@IBEXXZ ; std::vector<ForceInfo,std::allocator<ForceInfo> >::_Xlen
; Function compile flags: /Ogsp
;	COMDAT ?_Xlen@?$vector@UForceInfo@@V?$allocator@UForceInfo@@@std@@@std@@IBEXXZ
_TEXT	SEGMENT
?_Xlen@?$vector@UForceInfo@@V?$allocator@UForceInfo@@@std@@@std@@IBEXXZ PROC ; std::vector<ForceInfo,std::allocator<ForceInfo> >::_Xlen, COMDAT
; _this$ = ecx

; 1427 : 		_Xlength_error("vector<T> too long");

  00000	68 00 00 00 00	 push	 OFFSET ??_C@_0BD@OLBABOEK@vector?$DMT?$DO?5too?5long?$AA@
  00005	ff 15 00 00 00
	00		 call	 DWORD PTR __imp_?_Xlength_error@std@@YAXPBD@Z
$LN4@Xlen@3:
$LN3@Xlen@3:
  0000b	cc		 int	 3
?_Xlen@?$vector@UForceInfo@@V?$allocator@UForceInfo@@@std@@@std@@IBEXXZ ENDP ; std::vector<ForceInfo,std::allocator<ForceInfo> >::_Xlen
_TEXT	ENDS
PUBLIC	?max_size@?$allocator@UWeaponInfo@@@std@@QBEIXZ	; std::allocator<WeaponInfo>::max_size
; Function compile flags: /Ogsp
; File c:\program files (x86)\microsoft visual studio 10.0\vc\include\xmemory
;	COMDAT ?max_size@?$allocator@UWeaponInfo@@@std@@QBEIXZ
_TEXT	SEGMENT
?max_size@?$allocator@UWeaponInfo@@@std@@QBEIXZ PROC	; std::allocator<WeaponInfo>::max_size, COMDAT
; _this$ = ecx

; 218  : 		_SIZT _Count = (_SIZT)(-1) / sizeof (_Ty);
; 219  : 		return (0 < _Count ? _Count : 1);

  00000	b8 66 66 66 06	 mov	 eax, 107374182		; 06666666H

; 220  : 		}

  00005	c3		 ret	 0
?max_size@?$allocator@UWeaponInfo@@@std@@QBEIXZ ENDP	; std::allocator<WeaponInfo>::max_size
_TEXT	ENDS
PUBLIC	?max_size@?$allocator@UForceInfo@@@std@@QBEIXZ	; std::allocator<ForceInfo>::max_size
; Function compile flags: /Ogsp
;	COMDAT ?max_size@?$allocator@UForceInfo@@@std@@QBEIXZ
_TEXT	SEGMENT
?max_size@?$allocator@UForceInfo@@@std@@QBEIXZ PROC	; std::allocator<ForceInfo>::max_size, COMDAT
; _this$ = ecx

; 218  : 		_SIZT _Count = (_SIZT)(-1) / sizeof (_Ty);
; 219  : 		return (0 < _Count ? _Count : 1);

  00000	b8 55 55 55 15	 mov	 eax, 357913941		; 15555555H

; 220  : 		}

  00005	c3		 ret	 0
?max_size@?$allocator@UForceInfo@@@std@@QBEIXZ ENDP	; std::allocator<ForceInfo>::max_size
_TEXT	ENDS
PUBLIC	??0?$_Vector_const_iterator@V?$_Vector_val@UWeaponInfo@@V?$allocator@UWeaponInfo@@@std@@@std@@@std@@QAE@PAUWeaponInfo@@PBU_Container_base0@1@@Z ; std::_Vector_const_iterator<std::_Vector_val<WeaponInfo,std::allocator<WeaponInfo> > >::_Vector_const_iterator<std::_Vector_val<WeaponInfo,std::allocator<WeaponInfo> > >
; Function compile flags: /Ogsp
; File c:\program files (x86)\microsoft visual studio 10.0\vc\include\vector
;	COMDAT ??0?$_Vector_const_iterator@V?$_Vector_val@UWeaponInfo@@V?$allocator@UWeaponInfo@@@std@@@std@@@std@@QAE@PAUWeaponInfo@@PBU_Container_base0@1@@Z
_TEXT	SEGMENT
__Parg$ = 8						; size = 4
__Pvector$ = 12						; size = 4
??0?$_Vector_const_iterator@V?$_Vector_val@UWeaponInfo@@V?$allocator@UWeaponInfo@@@std@@@std@@@std@@QAE@PAUWeaponInfo@@PBU_Container_base0@1@@Z PROC ; std::_Vector_const_iterator<std::_Vector_val<WeaponInfo,std::allocator<WeaponInfo> > >::_Vector_const_iterator<std::_Vector_val<WeaponInfo,std::allocator<WeaponInfo> > >, COMDAT
; _this$ = ecx

; 45   : 		{	// construct with pointer _Parg

  00000	55		 push	 ebp
  00001	8b ec		 mov	 ebp, esp
  00003	8b c1		 mov	 eax, ecx
  00005	8b 4d 08	 mov	 ecx, DWORD PTR __Parg$[ebp]
  00008	89 08		 mov	 DWORD PTR [eax], ecx

; 46   : 		this->_Adopt(_Pvector);
; 47   : 		}

  0000a	5d		 pop	 ebp
  0000b	c2 08 00	 ret	 8
??0?$_Vector_const_iterator@V?$_Vector_val@UWeaponInfo@@V?$allocator@UWeaponInfo@@@std@@@std@@@std@@QAE@PAUWeaponInfo@@PBU_Container_base0@1@@Z ENDP ; std::_Vector_const_iterator<std::_Vector_val<WeaponInfo,std::allocator<WeaponInfo> > >::_Vector_const_iterator<std::_Vector_val<WeaponInfo,std::allocator<WeaponInfo> > >
_TEXT	ENDS
PUBLIC	??0?$_Vector_const_iterator@V?$_Vector_val@UForceInfo@@V?$allocator@UForceInfo@@@std@@@std@@@std@@QAE@PAUForceInfo@@PBU_Container_base0@1@@Z ; std::_Vector_const_iterator<std::_Vector_val<ForceInfo,std::allocator<ForceInfo> > >::_Vector_const_iterator<std::_Vector_val<ForceInfo,std::allocator<ForceInfo> > >
; Function compile flags: /Ogsp
;	COMDAT ??0?$_Vector_const_iterator@V?$_Vector_val@UForceInfo@@V?$allocator@UForceInfo@@@std@@@std@@@std@@QAE@PAUForceInfo@@PBU_Container_base0@1@@Z
_TEXT	SEGMENT
__Parg$ = 8						; size = 4
__Pvector$ = 12						; size = 4
??0?$_Vector_const_iterator@V?$_Vector_val@UForceInfo@@V?$allocator@UForceInfo@@@std@@@std@@@std@@QAE@PAUForceInfo@@PBU_Container_base0@1@@Z PROC ; std::_Vector_const_iterator<std::_Vector_val<ForceInfo,std::allocator<ForceInfo> > >::_Vector_const_iterator<std::_Vector_val<ForceInfo,std::allocator<ForceInfo> > >, COMDAT
; _this$ = ecx

; 45   : 		{	// construct with pointer _Parg

  00000	55		 push	 ebp
  00001	8b ec		 mov	 ebp, esp
  00003	8b c1		 mov	 eax, ecx
  00005	8b 4d 08	 mov	 ecx, DWORD PTR __Parg$[ebp]
  00008	89 08		 mov	 DWORD PTR [eax], ecx

; 46   : 		this->_Adopt(_Pvector);
; 47   : 		}

  0000a	5d		 pop	 ebp
  0000b	c2 08 00	 ret	 8
??0?$_Vector_const_iterator@V?$_Vector_val@UForceInfo@@V?$allocator@UForceInfo@@@std@@@std@@@std@@QAE@PAUForceInfo@@PBU_Container_base0@1@@Z ENDP ; std::_Vector_const_iterator<std::_Vector_val<ForceInfo,std::allocator<ForceInfo> > >::_Vector_const_iterator<std::_Vector_val<ForceInfo,std::allocator<ForceInfo> > >
_TEXT	ENDS
PUBLIC	?_Compat@?$_Vector_const_iterator@V?$_Vector_val@UWeaponInfo@@V?$allocator@UWeaponInfo@@@std@@@std@@@std@@QBEXABV12@@Z ; std::_Vector_const_iterator<std::_Vector_val<WeaponInfo,std::allocator<WeaponInfo> > >::_Compat
; Function compile flags: /Ogsp
;	COMDAT ?_Compat@?$_Vector_const_iterator@V?$_Vector_val@UWeaponInfo@@V?$allocator@UWeaponInfo@@@std@@@std@@@std@@QBEXABV12@@Z
_TEXT	SEGMENT
___formal$ = 8						; size = 4
?_Compat@?$_Vector_const_iterator@V?$_Vector_val@UWeaponInfo@@V?$allocator@UWeaponInfo@@@std@@@std@@@std@@QBEXABV12@@Z PROC ; std::_Vector_const_iterator<std::_Vector_val<WeaponInfo,std::allocator<WeaponInfo> > >::_Compat, COMDAT
; _this$ = ecx

; 253  : 		}

  00000	c2 04 00	 ret	 4
?_Compat@?$_Vector_const_iterator@V?$_Vector_val@UWeaponInfo@@V?$allocator@UWeaponInfo@@@std@@@std@@@std@@QBEXABV12@@Z ENDP ; std::_Vector_const_iterator<std::_Vector_val<WeaponInfo,std::allocator<WeaponInfo> > >::_Compat
_TEXT	ENDS
PUBLIC	?_Compat@?$_Vector_const_iterator@V?$_Vector_val@UForceInfo@@V?$allocator@UForceInfo@@@std@@@std@@@std@@QBEXABV12@@Z ; std::_Vector_const_iterator<std::_Vector_val<ForceInfo,std::allocator<ForceInfo> > >::_Compat
; Function compile flags: /Ogsp
;	COMDAT ?_Compat@?$_Vector_const_iterator@V?$_Vector_val@UForceInfo@@V?$allocator@UForceInfo@@@std@@@std@@@std@@QBEXABV12@@Z
_TEXT	SEGMENT
___formal$ = 8						; size = 4
?_Compat@?$_Vector_const_iterator@V?$_Vector_val@UForceInfo@@V?$allocator@UForceInfo@@@std@@@std@@@std@@QBEXABV12@@Z PROC ; std::_Vector_const_iterator<std::_Vector_val<ForceInfo,std::allocator<ForceInfo> > >::_Compat, COMDAT
; _this$ = ecx

; 253  : 		}

  00000	c2 04 00	 ret	 4
?_Compat@?$_Vector_const_iterator@V?$_Vector_val@UForceInfo@@V?$allocator@UForceInfo@@@std@@@std@@@std@@QBEXABV12@@Z ENDP ; std::_Vector_const_iterator<std::_Vector_val<ForceInfo,std::allocator<ForceInfo> > >::_Compat
_TEXT	ENDS
PUBLIC	??$_Allocate@UWeaponInfo@@@std@@YAPAUWeaponInfo@@IPAU1@@Z ; std::_Allocate<WeaponInfo>
; Function compile flags: /Ogsp
; File c:\program files (x86)\microsoft visual studio 10.0\vc\include\xmemory
;	COMDAT ??$_Allocate@UWeaponInfo@@@std@@YAPAUWeaponInfo@@IPAU1@@Z
_TEXT	SEGMENT
$T554353 = -12						; size = 12
$T554357 = 8						; size = 4
__Count$ = 8						; size = 4
___formal$ = 12						; size = 4
??$_Allocate@UWeaponInfo@@@std@@YAPAUWeaponInfo@@IPAU1@@Z PROC ; std::_Allocate<WeaponInfo>, COMDAT

; 30   : 	{	// allocate storage for _Count elements of type _Ty

  00000	55		 push	 ebp
  00001	8b ec		 mov	 ebp, esp

; 31   : 	void *_Ptr = 0;
; 32   : 
; 33   : 	if (_Count <= 0)

  00003	8b 4d 08	 mov	 ecx, DWORD PTR __Count$[ebp]
  00006	83 ec 0c	 sub	 esp, 12			; 0000000cH
  00009	33 c0		 xor	 eax, eax
  0000b	85 c9		 test	 ecx, ecx

; 34   : 		_Count = 0;
; 35   : 	else if (((_SIZT)(-1) / sizeof (_Ty) < _Count)

  0000d	74 3c		 je	 SHORT $LN5@Allocate@2

; 36   : 		|| (_Ptr = ::operator new(_Count * sizeof (_Ty))) == 0)

  0000f	81 f9 66 66 66
	06		 cmp	 ecx, 107374182		; 06666666H
  00015	77 0e		 ja	 SHORT $LN1@Allocate@2
  00017	6b c9 28	 imul	 ecx, 40			; 00000028H
  0001a	51		 push	 ecx
  0001b	e8 00 00 00 00	 call	 ??2@YAPAXI@Z		; operator new
  00020	59		 pop	 ecx
  00021	85 c0		 test	 eax, eax

; 38   : 
; 39   : 	return ((_Ty _FARQ *)_Ptr);

  00023	75 26		 jne	 SHORT $LN5@Allocate@2
$LN1@Allocate@2:

; 37   : 		_THROW_NCEE(bad_alloc, 0);

  00025	83 65 08 00	 and	 DWORD PTR $T554357[ebp], 0
  00029	8d 45 08	 lea	 eax, DWORD PTR $T554357[ebp]
  0002c	50		 push	 eax
  0002d	8d 4d f4	 lea	 ecx, DWORD PTR $T554353[ebp]
  00030	ff 15 00 00 00
	00		 call	 DWORD PTR __imp_??0exception@std@@QAE@ABQBD@Z
  00036	68 00 00 00 00	 push	 OFFSET __TI2?AVbad_alloc@std@@
  0003b	8d 45 f4	 lea	 eax, DWORD PTR $T554353[ebp]
  0003e	50		 push	 eax
  0003f	c7 45 f4 00 00
	00 00		 mov	 DWORD PTR $T554353[ebp], OFFSET ??_7bad_alloc@std@@6B@
  00046	e8 00 00 00 00	 call	 __CxxThrowException@8
$LN10@Allocate@2:
$LN5@Allocate@2:

; 40   : 	}

  0004b	c9		 leave
  0004c	c3		 ret	 0
$LN9@Allocate@2:
??$_Allocate@UWeaponInfo@@@std@@YAPAUWeaponInfo@@IPAU1@@Z ENDP ; std::_Allocate<WeaponInfo>
_TEXT	ENDS
PUBLIC	??$_Allocate@UForceInfo@@@std@@YAPAUForceInfo@@IPAU1@@Z ; std::_Allocate<ForceInfo>
; Function compile flags: /Ogsp
;	COMDAT ??$_Allocate@UForceInfo@@@std@@YAPAUForceInfo@@IPAU1@@Z
_TEXT	SEGMENT
$T554362 = -12						; size = 12
$T554366 = 8						; size = 4
__Count$ = 8						; size = 4
___formal$ = 12						; size = 4
??$_Allocate@UForceInfo@@@std@@YAPAUForceInfo@@IPAU1@@Z PROC ; std::_Allocate<ForceInfo>, COMDAT

; 30   : 	{	// allocate storage for _Count elements of type _Ty

  00000	55		 push	 ebp
  00001	8b ec		 mov	 ebp, esp

; 31   : 	void *_Ptr = 0;
; 32   : 
; 33   : 	if (_Count <= 0)

  00003	8b 4d 08	 mov	 ecx, DWORD PTR __Count$[ebp]
  00006	83 ec 0c	 sub	 esp, 12			; 0000000cH
  00009	33 c0		 xor	 eax, eax
  0000b	85 c9		 test	 ecx, ecx

; 34   : 		_Count = 0;
; 35   : 	else if (((_SIZT)(-1) / sizeof (_Ty) < _Count)

  0000d	74 3c		 je	 SHORT $LN5@Allocate@3

; 36   : 		|| (_Ptr = ::operator new(_Count * sizeof (_Ty))) == 0)

  0000f	81 f9 55 55 55
	15		 cmp	 ecx, 357913941		; 15555555H
  00015	77 0e		 ja	 SHORT $LN1@Allocate@3
  00017	6b c9 0c	 imul	 ecx, 12			; 0000000cH
  0001a	51		 push	 ecx
  0001b	e8 00 00 00 00	 call	 ??2@YAPAXI@Z		; operator new
  00020	59		 pop	 ecx
  00021	85 c0		 test	 eax, eax

; 38   : 
; 39   : 	return ((_Ty _FARQ *)_Ptr);

  00023	75 26		 jne	 SHORT $LN5@Allocate@3
$LN1@Allocate@3:

; 37   : 		_THROW_NCEE(bad_alloc, 0);

  00025	83 65 08 00	 and	 DWORD PTR $T554366[ebp], 0
  00029	8d 45 08	 lea	 eax, DWORD PTR $T554366[ebp]
  0002c	50		 push	 eax
  0002d	8d 4d f4	 lea	 ecx, DWORD PTR $T554362[ebp]
  00030	ff 15 00 00 00
	00		 call	 DWORD PTR __imp_??0exception@std@@QAE@ABQBD@Z
  00036	68 00 00 00 00	 push	 OFFSET __TI2?AVbad_alloc@std@@
  0003b	8d 45 f4	 lea	 eax, DWORD PTR $T554362[ebp]
  0003e	50		 push	 eax
  0003f	c7 45 f4 00 00
	00 00		 mov	 DWORD PTR $T554362[ebp], OFFSET ??_7bad_alloc@std@@6B@
  00046	e8 00 00 00 00	 call	 __CxxThrowException@8
$LN10@Allocate@3:
$LN5@Allocate@3:

; 40   : 	}

  0004b	c9		 leave
  0004c	c3		 ret	 0
$LN9@Allocate@3:
??$_Allocate@UForceInfo@@@std@@YAPAUForceInfo@@IPAU1@@Z ENDP ; std::_Allocate<ForceInfo>
_TEXT	ENDS
PUBLIC	??$_Copy_impl@PAUForceInfo@@PAU1@@std@@YAPAUForceInfo@@PAU1@00U_Nonscalar_ptr_iterator_tag@0@@Z ; std::_Copy_impl<ForceInfo *,ForceInfo *>
; Function compile flags: /Ogsp
; File c:\program files (x86)\microsoft visual studio 10.0\vc\include\xutility
;	COMDAT ??$_Copy_impl@PAUForceInfo@@PAU1@@std@@YAPAUForceInfo@@PAU1@00U_Nonscalar_ptr_iterator_tag@0@@Z
_TEXT	SEGMENT
__First$ = 8						; size = 4
__Last$ = 12						; size = 4
__Dest$ = 16						; size = 4
___formal$ = 20						; size = 1
??$_Copy_impl@PAUForceInfo@@PAU1@@std@@YAPAUForceInfo@@PAU1@00U_Nonscalar_ptr_iterator_tag@0@@Z PROC ; std::_Copy_impl<ForceInfo *,ForceInfo *>, COMDAT

; 2142 : 	{	// copy [_First, _Last) to [_Dest, ...), arbitrary iterators

  00000	55		 push	 ebp
  00001	8b ec		 mov	 ebp, esp

; 2143 : 	for (; _First != _Last; ++_Dest, ++_First)

  00003	8b 45 08	 mov	 eax, DWORD PTR __First$[ebp]
  00006	3b 45 0c	 cmp	 eax, DWORD PTR __Last$[ebp]
  00009	74 18		 je	 SHORT $LN8@Copy_impl
  0000b	56		 push	 esi
  0000c	57		 push	 edi
$LL3@Copy_impl:

; 2144 : 		*_Dest = *_First;

  0000d	8b 7d 10	 mov	 edi, DWORD PTR __Dest$[ebp]
  00010	83 45 10 0c	 add	 DWORD PTR __Dest$[ebp], 12 ; 0000000cH
  00014	8b f0		 mov	 esi, eax
  00016	a5		 movsd
  00017	a5		 movsd
  00018	83 c0 0c	 add	 eax, 12			; 0000000cH
  0001b	a5		 movsd
  0001c	3b 45 0c	 cmp	 eax, DWORD PTR __Last$[ebp]
  0001f	75 ec		 jne	 SHORT $LL3@Copy_impl
  00021	5f		 pop	 edi
  00022	5e		 pop	 esi
$LN8@Copy_impl:

; 2145 : 	return (_Dest);

  00023	8b 45 10	 mov	 eax, DWORD PTR __Dest$[ebp]

; 2146 : 	}

  00026	5d		 pop	 ebp
  00027	c3		 ret	 0
??$_Copy_impl@PAUForceInfo@@PAU1@@std@@YAPAUForceInfo@@PAU1@00U_Nonscalar_ptr_iterator_tag@0@@Z ENDP ; std::_Copy_impl<ForceInfo *,ForceInfo *>
_TEXT	ENDS
PUBLIC	??$_Destroy@UForceInfo@@@std@@YAXPAUForceInfo@@@Z ; std::_Destroy<ForceInfo>
; Function compile flags: /Ogsp
; File c:\program files (x86)\microsoft visual studio 10.0\vc\include\xmemory
;	COMDAT ??$_Destroy@UForceInfo@@@std@@YAXPAUForceInfo@@@Z
_TEXT	SEGMENT
__Ptr$ = 8						; size = 4
??$_Destroy@UForceInfo@@@std@@YAXPAUForceInfo@@@Z PROC	; std::_Destroy<ForceInfo>, COMDAT

; 63   : 	_Ptr->~_Ty();
; 64   : 	}

  00000	c3		 ret	 0
??$_Destroy@UForceInfo@@@std@@YAXPAUForceInfo@@@Z ENDP	; std::_Destroy<ForceInfo>
_TEXT	ENDS
PUBLIC	??4WeaponInfo@@QAEAAU0@ABU0@@Z			; WeaponInfo::operator=
; Function compile flags: /Ogsp
;	COMDAT ??4WeaponInfo@@QAEAAU0@ABU0@@Z
_TEXT	SEGMENT
___that$ = 8						; size = 4
??4WeaponInfo@@QAEAAU0@ABU0@@Z PROC			; WeaponInfo::operator=, COMDAT
; _this$ = ecx
  00000	55		 push	 ebp
  00001	8b ec		 mov	 ebp, esp
  00003	56		 push	 esi
  00004	57		 push	 edi
  00005	8b 7d 08	 mov	 edi, DWORD PTR ___that$[ebp]
  00008	8b 07		 mov	 eax, DWORD PTR [edi]
  0000a	8b f1		 mov	 esi, ecx
  0000c	89 06		 mov	 DWORD PTR [esi], eax
  0000e	8b 47 04	 mov	 eax, DWORD PTR [edi+4]
  00011	89 46 04	 mov	 DWORD PTR [esi+4], eax
  00014	8d 47 08	 lea	 eax, DWORD PTR [edi+8]
  00017	50		 push	 eax
  00018	8d 4e 08	 lea	 ecx, DWORD PTR [esi+8]
  0001b	ff 15 00 00 00
	00		 call	 DWORD PTR __imp_??4ioHashString@@QAEAAV0@ABV0@@Z
  00021	8b 47 18	 mov	 eax, DWORD PTR [edi+24]
  00024	89 46 18	 mov	 DWORD PTR [esi+24], eax
  00027	8b 47 1c	 mov	 eax, DWORD PTR [edi+28]
  0002a	89 46 1c	 mov	 DWORD PTR [esi+28], eax
  0002d	8a 47 20	 mov	 al, BYTE PTR [edi+32]
  00030	88 46 20	 mov	 BYTE PTR [esi+32], al
  00033	8b 47 24	 mov	 eax, DWORD PTR [edi+36]
  00036	89 46 24	 mov	 DWORD PTR [esi+36], eax
  00039	5f		 pop	 edi
  0003a	8b c6		 mov	 eax, esi
  0003c	5e		 pop	 esi
  0003d	5d		 pop	 ebp
  0003e	c2 04 00	 ret	 4
??4WeaponInfo@@QAEAAU0@ABU0@@Z ENDP			; WeaponInfo::operator=
_TEXT	ENDS
PUBLIC	??_GWeaponInfo@@QAEPAXI@Z			; WeaponInfo::`scalar deleting destructor'
; Function compile flags: /Ogsp
;	COMDAT ??_GWeaponInfo@@QAEPAXI@Z
_TEXT	SEGMENT
___flags$ = 8						; size = 4
??_GWeaponInfo@@QAEPAXI@Z PROC				; WeaponInfo::`scalar deleting destructor', COMDAT
; _this$ = ecx
  00000	55		 push	 ebp
  00001	8b ec		 mov	 ebp, esp
  00003	56		 push	 esi
  00004	8b f1		 mov	 esi, ecx
  00006	8d 4e 08	 lea	 ecx, DWORD PTR [esi+8]
  00009	ff 15 00 00 00
	00		 call	 DWORD PTR __imp_??1ioHashString@@QAE@XZ
  0000f	f6 45 08 01	 test	 BYTE PTR ___flags$[ebp], 1
  00013	74 07		 je	 SHORT $LN1@scalar@3
  00015	56		 push	 esi
  00016	e8 00 00 00 00	 call	 ??3@YAXPAX@Z		; operator delete
  0001b	59		 pop	 ecx
$LN1@scalar@3:
  0001c	8b c6		 mov	 eax, esi
  0001e	5e		 pop	 esi
  0001f	5d		 pop	 ebp
  00020	c2 04 00	 ret	 4
??_GWeaponInfo@@QAEPAXI@Z ENDP				; WeaponInfo::`scalar deleting destructor'
_TEXT	ENDS
PUBLIC	??$move@AAUWeaponInfo@@@std@@YA$$QAUWeaponInfo@@AAU1@@Z ; std::move<WeaponInfo &>
; Function compile flags: /Ogsp
; File c:\program files (x86)\microsoft visual studio 10.0\vc\include\utility
;	COMDAT ??$move@AAUWeaponInfo@@@std@@YA$$QAUWeaponInfo@@AAU1@@Z
_TEXT	SEGMENT
__Arg$ = 8						; size = 4
??$move@AAUWeaponInfo@@@std@@YA$$QAUWeaponInfo@@AAU1@@Z PROC ; std::move<WeaponInfo &>, COMDAT

; 86   : 	{	// forward _Arg as movable

  00000	55		 push	 ebp
  00001	8b ec		 mov	 ebp, esp

; 87   : 	return ((typename tr1::_Remove_reference<_Ty>::_Type&&)_Arg);

  00003	8b 45 08	 mov	 eax, DWORD PTR __Arg$[ebp]

; 88   : 	}

  00006	5d		 pop	 ebp
  00007	c3		 ret	 0
??$move@AAUWeaponInfo@@@std@@YA$$QAUWeaponInfo@@AAU1@@Z ENDP ; std::move<WeaponInfo &>
_TEXT	ENDS
PUBLIC	??$move@AAUForceInfo@@@std@@YA$$QAUForceInfo@@AAU1@@Z ; std::move<ForceInfo &>
; Function compile flags: /Ogsp
;	COMDAT ??$move@AAUForceInfo@@@std@@YA$$QAUForceInfo@@AAU1@@Z
_TEXT	SEGMENT
__Arg$ = 8						; size = 4
??$move@AAUForceInfo@@@std@@YA$$QAUForceInfo@@AAU1@@Z PROC ; std::move<ForceInfo &>, COMDAT

; 86   : 	{	// forward _Arg as movable

  00000	55		 push	 ebp
  00001	8b ec		 mov	 ebp, esp

; 87   : 	return ((typename tr1::_Remove_reference<_Ty>::_Type&&)_Arg);

  00003	8b 45 08	 mov	 eax, DWORD PTR __Arg$[ebp]

; 88   : 	}

  00006	5d		 pop	 ebp
  00007	c3		 ret	 0
??$move@AAUForceInfo@@@std@@YA$$QAUForceInfo@@AAU1@@Z ENDP ; std::move<ForceInfo &>
_TEXT	ENDS
PUBLIC	??$forward@AAUWeaponInfo@@@std@@YAAAUWeaponInfo@@AAU1@@Z ; std::forward<WeaponInfo &>
; Function compile flags: /Ogsp
;	COMDAT ??$forward@AAUWeaponInfo@@@std@@YAAAUWeaponInfo@@AAU1@@Z
_TEXT	SEGMENT
__Arg$ = 8						; size = 4
??$forward@AAUWeaponInfo@@@std@@YAAAUWeaponInfo@@AAU1@@Z PROC ; std::forward<WeaponInfo &>, COMDAT

; 78   : 	{	// forward _Arg, given explicitly specified type parameter

  00000	55		 push	 ebp
  00001	8b ec		 mov	 ebp, esp

; 79   : 	return ((_Ty&&)_Arg);

  00003	8b 45 08	 mov	 eax, DWORD PTR __Arg$[ebp]

; 80   : 	}

  00006	5d		 pop	 ebp
  00007	c3		 ret	 0
??$forward@AAUWeaponInfo@@@std@@YAAAUWeaponInfo@@AAU1@@Z ENDP ; std::forward<WeaponInfo &>
_TEXT	ENDS
PUBLIC	??$forward@AAUForceInfo@@@std@@YAAAUForceInfo@@AAU1@@Z ; std::forward<ForceInfo &>
; Function compile flags: /Ogsp
;	COMDAT ??$forward@AAUForceInfo@@@std@@YAAAUForceInfo@@AAU1@@Z
_TEXT	SEGMENT
__Arg$ = 8						; size = 4
??$forward@AAUForceInfo@@@std@@YAAAUForceInfo@@AAU1@@Z PROC ; std::forward<ForceInfo &>, COMDAT

; 78   : 	{	// forward _Arg, given explicitly specified type parameter

  00000	55		 push	 ebp
  00001	8b ec		 mov	 ebp, esp

; 79   : 	return ((_Ty&&)_Arg);

  00003	8b 45 08	 mov	 eax, DWORD PTR __Arg$[ebp]

; 80   : 	}

  00006	5d		 pop	 ebp
  00007	c3		 ret	 0
??$forward@AAUForceInfo@@@std@@YAAAUForceInfo@@AAU1@@Z ENDP ; std::forward<ForceInfo &>
_TEXT	ENDS
PUBLIC	??$construct@AAUForceInfo@@@?$allocator@UForceInfo@@@std@@QAEXPAUForceInfo@@AAU2@@Z ; std::allocator<ForceInfo>::construct<ForceInfo &>
; Function compile flags: /Ogsp
; File c:\program files (x86)\microsoft visual studio 10.0\vc\include\xmemory
;	COMDAT ??$construct@AAUForceInfo@@@?$allocator@UForceInfo@@@std@@QAEXPAUForceInfo@@AAU2@@Z
_TEXT	SEGMENT
__Ptr$ = 8						; size = 4
__Val$ = 12						; size = 4
??$construct@AAUForceInfo@@@?$allocator@UForceInfo@@@std@@QAEXPAUForceInfo@@AAU2@@Z PROC ; std::allocator<ForceInfo>::construct<ForceInfo &>, COMDAT
; _this$ = ecx

; 206  : 		void construct(pointer _Ptr, _Other&& _Val)

  00000	55		 push	 ebp
  00001	8b ec		 mov	 ebp, esp
  00003	57		 push	 edi

; 207  : 		{	// construct object at _Ptr with value _Val
; 208  : 		::new ((void _FARQ *)_Ptr) _Ty(_STD forward<_Other>(_Val));

  00004	8b 7d 08	 mov	 edi, DWORD PTR __Ptr$[ebp]
  00007	85 ff		 test	 edi, edi
  00009	74 08		 je	 SHORT $LN3@construct
  0000b	56		 push	 esi
  0000c	8b 75 0c	 mov	 esi, DWORD PTR __Val$[ebp]
  0000f	a5		 movsd
  00010	a5		 movsd
  00011	a5		 movsd
  00012	5e		 pop	 esi
$LN3@construct:
  00013	5f		 pop	 edi

; 209  : 		}

  00014	5d		 pop	 ebp
  00015	c2 08 00	 ret	 8
??$construct@AAUForceInfo@@@?$allocator@UForceInfo@@@std@@QAEXPAUForceInfo@@AAU2@@Z ENDP ; std::allocator<ForceInfo>::construct<ForceInfo &>
_TEXT	ENDS
PUBLIC	??0WeaponInfo@@QAE@ABU0@@Z			; WeaponInfo::WeaponInfo
; Function compile flags: /Ogsp
;	COMDAT ??0WeaponInfo@@QAE@ABU0@@Z
_TEXT	SEGMENT
___that$ = 8						; size = 4
??0WeaponInfo@@QAE@ABU0@@Z PROC				; WeaponInfo::WeaponInfo, COMDAT
; _this$ = ecx
  00000	55		 push	 ebp
  00001	8b ec		 mov	 ebp, esp
  00003	56		 push	 esi
  00004	57		 push	 edi
  00005	8b 7d 08	 mov	 edi, DWORD PTR ___that$[ebp]
  00008	8b 07		 mov	 eax, DWORD PTR [edi]
  0000a	8b f1		 mov	 esi, ecx
  0000c	89 06		 mov	 DWORD PTR [esi], eax
  0000e	8b 47 04	 mov	 eax, DWORD PTR [edi+4]
  00011	89 46 04	 mov	 DWORD PTR [esi+4], eax
  00014	8d 47 08	 lea	 eax, DWORD PTR [edi+8]
  00017	50		 push	 eax
  00018	8d 4e 08	 lea	 ecx, DWORD PTR [esi+8]
  0001b	ff 15 00 00 00
	00		 call	 DWORD PTR __imp_??0ioHashString@@QAE@ABV0@@Z
  00021	8b 47 18	 mov	 eax, DWORD PTR [edi+24]
  00024	89 46 18	 mov	 DWORD PTR [esi+24], eax
  00027	8b 47 1c	 mov	 eax, DWORD PTR [edi+28]
  0002a	89 46 1c	 mov	 DWORD PTR [esi+28], eax
  0002d	8a 47 20	 mov	 al, BYTE PTR [edi+32]
  00030	88 46 20	 mov	 BYTE PTR [esi+32], al
  00033	8b 47 24	 mov	 eax, DWORD PTR [edi+36]
  00036	89 46 24	 mov	 DWORD PTR [esi+36], eax
  00039	5f		 pop	 edi
  0003a	8b c6		 mov	 eax, esi
  0003c	5e		 pop	 esi
  0003d	5d		 pop	 ebp
  0003e	c2 04 00	 ret	 4
??0WeaponInfo@@QAE@ABU0@@Z ENDP				; WeaponInfo::WeaponInfo
_TEXT	ENDS
PUBLIC	?OnSkillStart@ioTargetTimingAttackSkill@@UAE_NPAVioBaseChar@@@Z ; ioTargetTimingAttackSkill::OnSkillStart
EXTRN	?ReduceNeedGaugeBySkill@ioBaseChar@@QAEMPAVioSkill@@M@Z:PROC ; ioBaseChar::ReduceNeedGaugeBySkill
EXTRN	?GetNeedGauge@ioSkill@@QAEMABVioHashString@@@Z:PROC ; ioSkill::GetNeedGauge
EXTRN	?ChangeSkillWeaponMesh@ioBaseChar@@QAE_NPAVioSkill@@ABVioHashString@@_N@Z:PROC ; ioBaseChar::ChangeSkillWeaponMesh
EXTRN	?ShowWeaponItemMesh@ioBaseChar@@QAEX_N0@Z:PROC	; ioBaseChar::ShowWeaponItemMesh
EXTRN	?SetCameraBuff@ioSkill@@IAEXPAVioBaseChar@@@Z:PROC ; ioSkill::SetCameraBuff
EXTRN	?OnSkillStart@ioAttackSkill@@UAE_NPAVioBaseChar@@@Z:PROC ; ioAttackSkill::OnSkillStart
; Function compile flags: /Ogsp
; File d:\lost saga for developer\youtube\tutorial\source\src\lsclient\iotargettimingattackskill.cpp
;	COMDAT ?OnSkillStart@ioTargetTimingAttackSkill@@UAE_NPAVioBaseChar@@@Z
_TEXT	SEGMENT
_pChar$ = 8						; size = 4
?OnSkillStart@ioTargetTimingAttackSkill@@UAE_NPAVioBaseChar@@@Z PROC ; ioTargetTimingAttackSkill::OnSkillStart, COMDAT
; _this$ = ecx

; 100  : {	

  00000	55		 push	 ebp
  00001	8b ec		 mov	 ebp, esp
  00003	56		 push	 esi
  00004	57		 push	 edi
  00005	8b f1		 mov	 esi, ecx

; 101  : 	InitData();

  00007	e8 00 00 00 00	 call	 ?InitData@ioTargetTimingAttackSkill@@IAEXXZ ; ioTargetTimingAttackSkill::InitData

; 102  : 	
; 103  : 	DWORD dwCurTime = FRAMEGETTIME();

  0000c	ff 15 00 00 00
	00		 call	 DWORD PTR __imp_?GetSingleton@ioFrameTimer@@SAAAV1@XZ
  00012	8b c8		 mov	 ecx, eax
  00014	ff 15 00 00 00
	00		 call	 DWORD PTR __imp_?GetLoopSec@ioFrameTimer@@QBEKXZ

; 104  : 	if( m_dwSkillProtectTime > 0 )

  0001a	8b 8e 2c 13 00
	00		 mov	 ecx, DWORD PTR [esi+4908]
  00020	85 c9		 test	 ecx, ecx
  00022	74 08		 je	 SHORT $LN6@OnSkillSta

; 105  : 		m_dwCurSkillProtectTime = dwCurTime + m_dwSkillProtectTime;

  00024	03 c8		 add	 ecx, eax
  00026	89 8e 30 13 00
	00		 mov	 DWORD PTR [esi+4912], ecx
$LN6@OnSkillSta:

; 106  : 
; 107  : 	if ( m_dwLoopTime > 0)

  0002c	8b 8e 08 13 00
	00		 mov	 ecx, DWORD PTR [esi+4872]
  00032	85 c9		 test	 ecx, ecx
  00034	74 08		 je	 SHORT $LN5@OnSkillSta

; 108  : 		m_dwCheckLoopTime = dwCurTime + m_dwLoopTime;

  00036	03 c8		 add	 ecx, eax
  00038	89 8e 78 13 00
	00		 mov	 DWORD PTR [esi+4984], ecx
$LN5@OnSkillSta:

; 109  : 
; 110  : 	if( !ioAttackSkill::OnSkillStart( pChar ) )

  0003e	8b 7d 08	 mov	 edi, DWORD PTR _pChar$[ebp]
  00041	57		 push	 edi
  00042	8b ce		 mov	 ecx, esi
  00044	e8 00 00 00 00	 call	 ?OnSkillStart@ioAttackSkill@@UAE_NPAVioBaseChar@@@Z ; ioAttackSkill::OnSkillStart
  00049	84 c0		 test	 al, al
  0004b	0f 84 88 00 00
	00		 je	 $LN7@OnSkillSta
$LN4@OnSkillSta:

; 111  : 		return false;
; 112  : 	
; 113  : 	SetCameraBuff( pChar );

  00051	57		 push	 edi
  00052	8b ce		 mov	 ecx, esi
  00054	e8 00 00 00 00	 call	 ?SetCameraBuff@ioSkill@@IAEXPAVioBaseChar@@@Z ; ioSkill::SetCameraBuff

; 114  : 
; 115  : 	//    
; 116  : 	if( m_bUseItemMesh )

  00059	80 be 08 0f 00
	00 00		 cmp	 BYTE PTR [esi+3848], 0
  00060	74 0b		 je	 SHORT $LN3@OnSkillSta

; 117  : 		pChar->ShowWeaponItemMesh( false );

  00062	6a 00		 push	 0
  00064	6a 00		 push	 0
  00066	8b cf		 mov	 ecx, edi
  00068	e8 00 00 00 00	 call	 ?ShowWeaponItemMesh@ioBaseChar@@QAEX_N0@Z ; ioBaseChar::ShowWeaponItemMesh
$LN3@OnSkillSta:

; 118  : 
; 119  : 	//   
; 120  : 	if( !m_bSetHandMesh && m_bUseItemMesh && !m_HandMesh.IsEmpty() )

  0006d	80 be 0a 0f 00
	00 00		 cmp	 BYTE PTR [esi+3850], 0
  00074	75 35		 jne	 SHORT $LN2@OnSkillSta
  00076	80 be 08 0f 00
	00 00		 cmp	 BYTE PTR [esi+3848], 0
  0007d	74 2c		 je	 SHORT $LN2@OnSkillSta
  0007f	53		 push	 ebx
  00080	8d 9e f8 0e 00
	00		 lea	 ebx, DWORD PTR [esi+3832]
  00086	8b cb		 mov	 ecx, ebx
  00088	ff 15 00 00 00
	00		 call	 DWORD PTR __imp_?IsEmpty@ioHashString@@QBE_NXZ
  0008e	84 c0		 test	 al, al
  00090	75 18		 jne	 SHORT $LN11@OnSkillSta

; 121  : 	{
; 122  : 		pChar->ChangeSkillWeaponMesh( this, m_HandMesh, m_bVisibleEquipMesh );

  00092	0f b6 86 09 0f
	00 00		 movzx	 eax, BYTE PTR [esi+3849]
  00099	50		 push	 eax
  0009a	53		 push	 ebx
  0009b	56		 push	 esi
  0009c	8b cf		 mov	 ecx, edi
  0009e	e8 00 00 00 00	 call	 ?ChangeSkillWeaponMesh@ioBaseChar@@QAE_NPAVioSkill@@ABVioHashString@@_N@Z ; ioBaseChar::ChangeSkillWeaponMesh

; 123  : 		m_bSetHandMesh = true;

  000a3	c6 86 0a 0f 00
	00 01		 mov	 BYTE PTR [esi+3850], 1
$LN11@OnSkillSta:
  000aa	5b		 pop	 ebx
$LN2@OnSkillSta:

; 124  : 	}	
; 125  : 	
; 126  : 	if( !m_bReduceGauge )

  000ab	80 be 50 03 00
	00 00		 cmp	 BYTE PTR [esi+848], 0
  000b2	75 23		 jne	 SHORT $LN1@OnSkillSta

; 127  : 	{
; 128  : 		pChar->ReduceNeedGaugeBySkill( this, GetNeedGauge( pChar->GetCharName() ) );

  000b4	8d 87 d4 02 00
	00		 lea	 eax, DWORD PTR [edi+724]
  000ba	50		 push	 eax
  000bb	8b ce		 mov	 ecx, esi
  000bd	e8 00 00 00 00	 call	 ?GetNeedGauge@ioSkill@@QAEMABVioHashString@@@Z ; ioSkill::GetNeedGauge
  000c2	51		 push	 ecx
  000c3	d9 1c 24	 fstp	 DWORD PTR [esp]
  000c6	56		 push	 esi
  000c7	8b cf		 mov	 ecx, edi
  000c9	e8 00 00 00 00	 call	 ?ReduceNeedGaugeBySkill@ioBaseChar@@QAEMPAVioSkill@@M@Z ; ioBaseChar::ReduceNeedGaugeBySkill
  000ce	dd d8		 fstp	 ST(0)

; 129  : 		m_bReduceGauge = true;

  000d0	c6 86 50 03 00
	00 01		 mov	 BYTE PTR [esi+848], 1
$LN1@OnSkillSta:

; 130  : 	}
; 131  : 
; 132  : 	return true;

  000d7	b0 01		 mov	 al, 1
$LN7@OnSkillSta:
  000d9	5f		 pop	 edi
  000da	5e		 pop	 esi

; 133  : }

  000db	5d		 pop	 ebp
  000dc	c2 04 00	 ret	 4
?OnSkillStart@ioTargetTimingAttackSkill@@UAE_NPAVioBaseChar@@@Z ENDP ; ioTargetTimingAttackSkill::OnSkillStart
_TEXT	ENDS
PUBLIC	?OnSkillEnd@ioTargetTimingAttackSkill@@UAEXPAVioBaseChar@@@Z ; ioTargetTimingAttackSkill::OnSkillEnd
EXTRN	?RestoreSkillWeaponMesh@ioBaseChar@@QAE_NPAVioSkill@@ABVioHashString@@_N2@Z:PROC ; ioBaseChar::RestoreSkillWeaponMesh
EXTRN	?EndCameraBuff@ioSkill@@IAEXPAVioBaseChar@@@Z:PROC ; ioSkill::EndCameraBuff
EXTRN	?OnSkillEnd@ioAttackSkill@@UAEXPAVioBaseChar@@@Z:PROC ; ioAttackSkill::OnSkillEnd
EXTRN	?ClearReservedSliding@ioBaseChar@@QAEXXZ:PROC	; ioBaseChar::ClearReservedSliding
; Function compile flags: /Ogsp
;	COMDAT ?OnSkillEnd@ioTargetTimingAttackSkill@@UAEXPAVioBaseChar@@@Z
_TEXT	SEGMENT
_pChar$ = 8						; size = 4
?OnSkillEnd@ioTargetTimingAttackSkill@@UAEXPAVioBaseChar@@@Z PROC ; ioTargetTimingAttackSkill::OnSkillEnd, COMDAT
; _this$ = ecx

; 205  : {

  00000	55		 push	 ebp
  00001	8b ec		 mov	 ebp, esp
  00003	53		 push	 ebx
  00004	56		 push	 esi
  00005	57		 push	 edi

; 206  : 	pChar->ClearReservedSliding();

  00006	8b 7d 08	 mov	 edi, DWORD PTR _pChar$[ebp]
  00009	8b f1		 mov	 esi, ecx
  0000b	8b cf		 mov	 ecx, edi
  0000d	e8 00 00 00 00	 call	 ?ClearReservedSliding@ioBaseChar@@QAEXXZ ; ioBaseChar::ClearReservedSliding

; 207  : 
; 208  : 	ioPlayStage *pStage = pChar->GetCreator();

  00012	8b 87 44 03 00
	00		 mov	 eax, DWORD PTR [edi+836]

; 209  : 	if ( pStage )

  00018	85 c0		 test	 eax, eax
  0001a	74 10		 je	 SHORT $LN3@OnSkillEnd

; 210  : 	{
; 211  : 		DestroyEffect( pChar, pStage, m_dwMakerID );

  0001c	8d 8e 54 13 00
	00		 lea	 ecx, DWORD PTR [esi+4948]
  00022	51		 push	 ecx
  00023	50		 push	 eax
  00024	57		 push	 edi
  00025	8b ce		 mov	 ecx, esi
  00027	e8 00 00 00 00	 call	 ?DestroyEffect@ioTargetTimingAttackSkill@@IAEXPAVioBaseChar@@PAVioPlayStage@@AAK@Z ; ioTargetTimingAttackSkill::DestroyEffect
$LN3@OnSkillEnd:

; 212  : 	}
; 213  : 
; 214  : 	ioAttackSkill::OnSkillEnd( pChar );

  0002c	57		 push	 edi
  0002d	8b ce		 mov	 ecx, esi
  0002f	e8 00 00 00 00	 call	 ?OnSkillEnd@ioAttackSkill@@UAEXPAVioBaseChar@@@Z ; ioAttackSkill::OnSkillEnd

; 215  : 
; 216  : 	EndCameraBuff( pChar );

  00034	57		 push	 edi
  00035	8b ce		 mov	 ecx, esi
  00037	e8 00 00 00 00	 call	 ?EndCameraBuff@ioSkill@@IAEXPAVioBaseChar@@@Z ; ioSkill::EndCameraBuff

; 217  : 
; 218  : 	//  
; 219  : 	if( m_bUseItemMesh )

  0003c	80 be 08 0f 00
	00 00		 cmp	 BYTE PTR [esi+3848], 0
  00043	74 0b		 je	 SHORT $LN2@OnSkillEnd

; 220  : 		pChar->ShowWeaponItemMesh( true );

  00045	6a 00		 push	 0
  00047	6a 01		 push	 1
  00049	8b cf		 mov	 ecx, edi
  0004b	e8 00 00 00 00	 call	 ?ShowWeaponItemMesh@ioBaseChar@@QAEX_N0@Z ; ioBaseChar::ShowWeaponItemMesh
$LN2@OnSkillEnd:

; 221  : 
; 222  : 	if( !m_HandMesh.IsEmpty() )

  00050	8d 9e f8 0e 00
	00		 lea	 ebx, DWORD PTR [esi+3832]
  00056	8b cb		 mov	 ecx, ebx
  00058	ff 15 00 00 00
	00		 call	 DWORD PTR __imp_?IsEmpty@ioHashString@@QBE_NXZ
  0005e	84 c0		 test	 al, al
  00060	75 13		 jne	 SHORT $LN1@OnSkillEnd

; 223  : 		pChar->RestoreSkillWeaponMesh( this, m_HandMesh, m_bVisibleEquipMesh );

  00062	0f b6 86 09 0f
	00 00		 movzx	 eax, BYTE PTR [esi+3849]
  00069	6a 00		 push	 0
  0006b	50		 push	 eax
  0006c	53		 push	 ebx
  0006d	56		 push	 esi
  0006e	8b cf		 mov	 ecx, edi
  00070	e8 00 00 00 00	 call	 ?RestoreSkillWeaponMesh@ioBaseChar@@QAE_NPAVioSkill@@ABVioHashString@@_N2@Z ; ioBaseChar::RestoreSkillWeaponMesh
$LN1@OnSkillEnd:

; 224  : 
; 225  : 	m_bSetHandMesh = false;

  00075	5f		 pop	 edi
  00076	c6 86 0a 0f 00
	00 00		 mov	 BYTE PTR [esi+3850], 0
  0007d	5e		 pop	 esi
  0007e	5b		 pop	 ebx

; 226  : }

  0007f	5d		 pop	 ebp
  00080	c2 04 00	 ret	 4
?OnSkillEnd@ioTargetTimingAttackSkill@@UAEXPAVioBaseChar@@@Z ENDP ; ioTargetTimingAttackSkill::OnSkillEnd
_TEXT	ENDS
PUBLIC	__real@bf800000
PUBLIC	__$ArrayPad$
PUBLIC	?ApplyAttributeToWeapon@ioTargetTimingAttackSkill@@UAEXPAVioWeapon@@PAVioPlayStage@@@Z ; ioTargetTimingAttackSkill::ApplyAttributeToWeapon
EXTRN	?SetZoneValue@ioZoneEffectWeapon@@QAEX_N0@Z:PROC ; ioZoneEffectWeapon::SetZoneValue
EXTRN	?SetCollisionDir@ioZoneEffectWeapon@@QAEXAAUD3DXVECTOR3@@@Z:PROC ; ioZoneEffectWeapon::SetCollisionDir
EXTRN	__imp_??D@YA?AUD3DXVECTOR3@@ABUD3DXQUATERNION@@ABU0@@Z:PROC
EXTRN	?GetOwner@ioWeapon@@QBEPAVioBaseChar@@XZ:PROC	; ioWeapon::GetOwner
EXTRN	?ApplyAttributeToWeapon@ioSkill@@UAEXPAVioWeapon@@PAVioPlayStage@@@Z:PROC ; ioSkill::ApplyAttributeToWeapon
EXTRN	___security_cookie:DWORD
EXTRN	@__security_check_cookie@4:PROC
;	COMDAT __real@bf800000
; File d:\lost saga for developer\youtube\tutorial\source\src\lsclient\iobasechar.h
CONST	SEGMENT
__real@bf800000 DD 0bf800000r			; -1
; Function compile flags: /Ogsp
; File d:\lost saga for developer\youtube\tutorial\source\src\lsclient\iotargettimingattackskill.cpp
CONST	ENDS
;	COMDAT ?ApplyAttributeToWeapon@ioTargetTimingAttackSkill@@UAEXPAVioWeapon@@PAVioPlayStage@@@Z
_TEXT	SEGMENT
_vDir$548634 = -28					; size = 12
$T548635 = -16						; size = 12
__$ArrayPad$ = -4					; size = 4
_pWeapon$ = 8						; size = 4
_pStage$ = 12						; size = 4
?ApplyAttributeToWeapon@ioTargetTimingAttackSkill@@UAEXPAVioWeapon@@PAVioPlayStage@@@Z PROC ; ioTargetTimingAttackSkill::ApplyAttributeToWeapon, COMDAT
; _this$ = ecx

; 306  : {

  00000	55		 push	 ebp
  00001	8b ec		 mov	 ebp, esp
  00003	83 ec 1c	 sub	 esp, 28			; 0000001cH
  00006	a1 00 00 00 00	 mov	 eax, DWORD PTR ___security_cookie
  0000b	33 c5		 xor	 eax, ebp
  0000d	89 45 fc	 mov	 DWORD PTR __$ArrayPad$[ebp], eax
  00010	8b 45 0c	 mov	 eax, DWORD PTR _pStage$[ebp]
  00013	56		 push	 esi
  00014	8b 75 08	 mov	 esi, DWORD PTR _pWeapon$[ebp]

; 307  : 	ioSkill::ApplyAttributeToWeapon( pWeapon, pStage );	

  00017	50		 push	 eax
  00018	56		 push	 esi
  00019	e8 00 00 00 00	 call	 ?ApplyAttributeToWeapon@ioSkill@@UAEXPAVioWeapon@@PAVioPlayStage@@@Z ; ioSkill::ApplyAttributeToWeapon

; 308  : 
; 309  : 	ioZoneEffectWeapon *pZone = ToZoneEffectWeapon( pWeapon );

  0001e	56		 push	 esi
  0001f	e8 00 00 00 00	 call	 ?ToZoneEffectWeapon@@YAPAVioZoneEffectWeapon@@PAVioWeapon@@@Z ; ToZoneEffectWeapon
  00024	8b f0		 mov	 esi, eax
  00026	59		 pop	 ecx

; 310  : 	if( pZone )

  00027	85 f6		 test	 esi, esi
  00029	74 52		 je	 SHORT $LN1@ApplyAttri

; 311  : 	{
; 312  : 		ioBaseChar *pChar = pZone->GetOwner();

  0002b	8b ce		 mov	 ecx, esi
  0002d	e8 00 00 00 00	 call	 ?GetOwner@ioWeapon@@QBEPAVioBaseChar@@XZ ; ioWeapon::GetOwner

; 313  : 		if( pChar )

  00032	85 c0		 test	 eax, eax
  00034	74 47		 je	 SHORT $LN1@ApplyAttri

; 314  : 		{				
; 315  : 			D3DXVECTOR3 vDir = pChar->GetTargetRot() * D3DXVECTOR3( 0.0f, 0.0f, -1.0f );

  00036	0f 57 c0	 xorps	 xmm0, xmm0
  00039	8d 4d f0	 lea	 ecx, DWORD PTR $T548635[ebp]
  0003c	51		 push	 ecx
  0003d	05 a4 06 00 00	 add	 eax, 1700		; 000006a4H
  00042	50		 push	 eax
  00043	8d 45 e4	 lea	 eax, DWORD PTR _vDir$548634[ebp]
  00046	f3 0f 11 45 f0	 movss	 DWORD PTR $T548635[ebp], xmm0
  0004b	f3 0f 11 45 f4	 movss	 DWORD PTR $T548635[ebp+4], xmm0
  00050	f3 0f 10 05 00
	00 00 00	 movss	 xmm0, DWORD PTR __real@bf800000
  00058	50		 push	 eax
  00059	f3 0f 11 45 f8	 movss	 DWORD PTR $T548635[ebp+8], xmm0
  0005e	ff 15 00 00 00
	00		 call	 DWORD PTR __imp_??D@YA?AUD3DXVECTOR3@@ABUD3DXQUATERNION@@ABU0@@Z
  00064	83 c4 0c	 add	 esp, 12			; 0000000cH

; 316  : 			pZone->SetCollisionDir( vDir );

  00067	8d 45 e4	 lea	 eax, DWORD PTR _vDir$548634[ebp]
  0006a	50		 push	 eax
  0006b	8b ce		 mov	 ecx, esi
  0006d	e8 00 00 00 00	 call	 ?SetCollisionDir@ioZoneEffectWeapon@@QAEXAAUD3DXVECTOR3@@@Z ; ioZoneEffectWeapon::SetCollisionDir

; 317  : 			pZone->SetZoneValue( true, true );

  00072	6a 01		 push	 1
  00074	6a 01		 push	 1
  00076	8b ce		 mov	 ecx, esi
  00078	e8 00 00 00 00	 call	 ?SetZoneValue@ioZoneEffectWeapon@@QAEX_N0@Z ; ioZoneEffectWeapon::SetZoneValue
$LN1@ApplyAttri:

; 318  : 		}		
; 319  : 	}
; 320  : }

  0007d	8b 4d fc	 mov	 ecx, DWORD PTR __$ArrayPad$[ebp]
  00080	33 cd		 xor	 ecx, ebp
  00082	5e		 pop	 esi
  00083	e8 00 00 00 00	 call	 @__security_check_cookie@4
  00088	c9		 leave
  00089	c2 08 00	 ret	 8
?ApplyAttributeToWeapon@ioTargetTimingAttackSkill@@UAEXPAVioWeapon@@PAVioPlayStage@@@Z ENDP ; ioTargetTimingAttackSkill::ApplyAttributeToWeapon
_TEXT	ENDS
PUBLIC	__real@4f800000
PUBLIC	_this$GSCopy$
PUBLIC	__$ArrayPad$
PUBLIC	?SetTargetRotation@ioTargetTimingAttackSkill@@IAEXPAVioBaseChar@@@Z ; ioTargetTimingAttackSkill::SetTargetRotation
EXTRN	_D3DXVec3Normalize@8:PROC
EXTRN	?SetTargetRotToDir@ioBaseChar@@QAEXABUD3DXVECTOR3@@_N1@Z:PROC ; ioBaseChar::SetTargetRotToDir
EXTRN	?GetMidPositionByRate@ioGameEntity@@QBE?AUD3DXVECTOR3@@M@Z:PROC ; ioGameEntity::GetMidPositionByRate
;	COMDAT __real@4f800000
; File d:\lost saga for developer\youtube\tutorial\source\src\lsclient\iobasechar.h
CONST	SEGMENT
__real@4f800000 DD 04f800000r			; 4.29497e+009
; Function compile flags: /Ogsp
; File d:\lost saga for developer\youtube\tutorial\source\src\lsclient\iotargettimingattackskill.cpp
CONST	ENDS
;	COMDAT ?SetTargetRotation@ioTargetTimingAttackSkill@@IAEXPAVioBaseChar@@@Z
_TEXT	SEGMENT
_pTarget$ = -68						; size = 4
_this$GSCopy$ = -64					; size = 4
tv322 = -60						; size = 4
tv318 = -60						; size = 4
$T554460 = -60						; size = 4
tv340 = -56						; size = 4
tv336 = -56						; size = 4
tv332 = -56						; size = 4
tv326 = -56						; size = 4
$T549000 = -52						; size = 12
$T548998 = -52						; size = 12
$T548997 = -40						; size = 12
$T549001 = -28						; size = 12
$T548996 = -28						; size = 12
_vAimedDir$ = -16					; size = 12
__$ArrayPad$ = -4					; size = 4
_pChar$ = 8						; size = 4
?SetTargetRotation@ioTargetTimingAttackSkill@@IAEXPAVioBaseChar@@@Z PROC ; ioTargetTimingAttackSkill::SetTargetRotation, COMDAT
; _this$ = ecx

; 564  : {

  00000	55		 push	 ebp
  00001	8b ec		 mov	 ebp, esp
  00003	83 ec 44	 sub	 esp, 68			; 00000044H
  00006	a1 00 00 00 00	 mov	 eax, DWORD PTR ___security_cookie
  0000b	33 c5		 xor	 eax, ebp
  0000d	89 45 fc	 mov	 DWORD PTR __$ArrayPad$[ebp], eax
  00010	53		 push	 ebx
  00011	8b 5d 08	 mov	 ebx, DWORD PTR _pChar$[ebp]
  00014	8b c1		 mov	 eax, ecx

; 580  : 		vAimedDir = pChar->GetTargetRot() * D3DXVECTOR3( 0.0f, 0.0f, -1.0f );

  00016	89 45 c0	 mov	 DWORD PTR _this$GSCopy$[ebp], eax
  00019	85 db		 test	 ebx, ebx
  0001b	0f 84 76 01 00
	00		 je	 $LN5@SetTargetR

; 565  : 	if ( !pChar )
; 566  : 		return;
; 567  : 	
; 568  : 	ioEntityGroup *pGrp = pChar->GetGroup();
; 569  : 	if ( !pGrp )

  00021	83 7b 04 00	 cmp	 DWORD PTR [ebx+4], 0
  00025	0f 84 6c 01 00
	00		 je	 $LN5@SetTargetR

; 570  : 		return;
; 571  : 	
; 572  : 	ioBaseChar *pTarget = pChar->GetBaseChar( m_szAimedTarget );

  0002b	56		 push	 esi
  0002c	57		 push	 edi
  0002d	05 3c 13 00 00	 add	 eax, 4924		; 0000133cH
  00032	50		 push	 eax
  00033	8b cb		 mov	 ecx, ebx
  00035	e8 00 00 00 00	 call	 ?GetBaseChar@ioBaseChar@@QAEPAV1@ABVioHashString@@@Z ; ioBaseChar::GetBaseChar
  0003a	89 45 bc	 mov	 DWORD PTR _pTarget$[ebp], eax

; 573  : 	D3DXVECTOR3 vAimedDir;
; 574  : 	if( pTarget )

  0003d	85 c0		 test	 eax, eax
  0003f	0f 84 fd 00 00
	00		 je	 $LN2@SetTargetR

; 575  : 	{
; 576  : 		vAimedDir = pTarget->GetMidPositionByRate() - pChar->GetMidPositionByRate();

  00045	b8 05 00 00 00	 mov	 eax, 5
  0004a	8b c8		 mov	 ecx, eax
  0004c	b8 0a 00 00 00	 mov	 eax, 10			; 0000000aH
  00051	8b d0		 mov	 edx, eax
  00053	b8 05 00 00 00	 mov	 eax, 5
  00058	8b f8		 mov	 edi, eax
  0005a	b8 0a 00 00 00	 mov	 eax, 10			; 0000000aH
  0005f	89 4d c8	 mov	 DWORD PTR tv340[ebp], ecx
  00062	db 45 c8	 fild	 DWORD PTR tv340[ebp]
  00065	89 45 c4	 mov	 DWORD PTR $T554460[ebp], eax
  00068	85 c9		 test	 ecx, ecx
  0006a	79 06		 jns	 SHORT $LN27@SetTargetR
  0006c	d8 05 00 00 00
	00		 fadd	 DWORD PTR __real@4f800000
$LN27@SetTargetR:
  00072	89 55 c8	 mov	 DWORD PTR tv336[ebp], edx
  00075	db 45 c8	 fild	 DWORD PTR tv336[ebp]
  00078	85 d2		 test	 edx, edx
  0007a	79 06		 jns	 SHORT $LN28@SetTargetR
  0007c	d8 05 00 00 00
	00		 fadd	 DWORD PTR __real@4f800000
$LN28@SetTargetR:
  00082	de f9		 fdivp	 ST(1), ST(0)
  00084	51		 push	 ecx
  00085	8d 45 d8	 lea	 eax, DWORD PTR $T548997[ebp]
  00088	8b cb		 mov	 ecx, ebx
  0008a	d9 5d c8	 fstp	 DWORD PTR tv332[ebp]
  0008d	d9 45 c8	 fld	 DWORD PTR tv332[ebp]
  00090	d9 1c 24	 fstp	 DWORD PTR [esp]
  00093	50		 push	 eax
  00094	e8 00 00 00 00	 call	 ?GetMidPositionByRate@ioGameEntity@@QBE?AUD3DXVECTOR3@@M@Z ; ioGameEntity::GetMidPositionByRate
  00099	89 7d c8	 mov	 DWORD PTR tv326[ebp], edi
  0009c	db 45 c8	 fild	 DWORD PTR tv326[ebp]
  0009f	8b f0		 mov	 esi, eax
  000a1	85 ff		 test	 edi, edi
  000a3	79 06		 jns	 SHORT $LN29@SetTargetR
  000a5	d8 05 00 00 00
	00		 fadd	 DWORD PTR __real@4f800000
$LN29@SetTargetR:
  000ab	8b 45 c4	 mov	 eax, DWORD PTR $T554460[ebp]
  000ae	db 45 c4	 fild	 DWORD PTR $T554460[ebp]
  000b1	85 c0		 test	 eax, eax
  000b3	79 06		 jns	 SHORT $LN30@SetTargetR
  000b5	d8 05 00 00 00
	00		 fadd	 DWORD PTR __real@4f800000
$LN30@SetTargetR:
  000bb	de f9		 fdivp	 ST(1), ST(0)
  000bd	51		 push	 ecx
  000be	8b 4d bc	 mov	 ecx, DWORD PTR _pTarget$[ebp]
  000c1	8d 45 e4	 lea	 eax, DWORD PTR $T548996[ebp]
  000c4	d9 5d c4	 fstp	 DWORD PTR tv318[ebp]
  000c7	d9 45 c4	 fld	 DWORD PTR tv318[ebp]
  000ca	d9 1c 24	 fstp	 DWORD PTR [esp]
  000cd	50		 push	 eax
  000ce	e8 00 00 00 00	 call	 ?GetMidPositionByRate@ioGameEntity@@QBE?AUD3DXVECTOR3@@M@Z ; ioGameEntity::GetMidPositionByRate
  000d3	f3 0f 10 00	 movss	 xmm0, DWORD PTR [eax]
  000d7	f3 0f 10 0e	 movss	 xmm1, DWORD PTR [esi]
  000db	0f 5a c0	 cvtps2pd xmm0, xmm0
  000de	0f 5a c9	 cvtps2pd xmm1, xmm1
  000e1	f2 0f 5c c1	 subsd	 xmm0, xmm1
  000e5	f3 0f 10 4e 04	 movss	 xmm1, DWORD PTR [esi+4]
  000ea	66 0f 5a c0	 cvtpd2ps xmm0, xmm0
  000ee	f3 0f 11 45 cc	 movss	 DWORD PTR $T548998[ebp], xmm0
  000f3	f3 0f 10 40 04	 movss	 xmm0, DWORD PTR [eax+4]
  000f8	0f 5a c0	 cvtps2pd xmm0, xmm0
  000fb	0f 5a c9	 cvtps2pd xmm1, xmm1
  000fe	f2 0f 5c c1	 subsd	 xmm0, xmm1
  00102	f3 0f 10 4e 08	 movss	 xmm1, DWORD PTR [esi+8]
  00107	66 0f 5a c0	 cvtpd2ps xmm0, xmm0
  0010b	f3 0f 11 45 d0	 movss	 DWORD PTR $T548998[ebp+4], xmm0
  00110	f3 0f 10 40 08	 movss	 xmm0, DWORD PTR [eax+8]
  00115	0f 5a c0	 cvtps2pd xmm0, xmm0
  00118	0f 5a c9	 cvtps2pd xmm1, xmm1
  0011b	f2 0f 5c c1	 subsd	 xmm0, xmm1
  0011f	66 0f 5a c0	 cvtpd2ps xmm0, xmm0
  00123	f3 0f 11 45 d4	 movss	 DWORD PTR $T548998[ebp+8], xmm0
  00128	8d 75 cc	 lea	 esi, DWORD PTR $T548998[ebp]
  0012b	8d 7d f0	 lea	 edi, DWORD PTR _vAimedDir$[ebp]
  0012e	a5		 movsd

; 577  : 		pChar->SetTargetRotToDir( vAimedDir, true );		

  0012f	6a 00		 push	 0
  00131	a5		 movsd
  00132	6a 01		 push	 1
  00134	8d 45 f0	 lea	 eax, DWORD PTR _vAimedDir$[ebp]
  00137	50		 push	 eax
  00138	8b cb		 mov	 ecx, ebx
  0013a	a5		 movsd
  0013b	e8 00 00 00 00	 call	 ?SetTargetRotToDir@ioBaseChar@@QAEXABUD3DXVECTOR3@@_N1@Z ; ioBaseChar::SetTargetRotToDir

; 578  : 	}
; 579  : 	else

  00140	eb 3a		 jmp	 SHORT $LN1@SetTargetR
$LN2@SetTargetR:

; 580  : 		vAimedDir = pChar->GetTargetRot() * D3DXVECTOR3( 0.0f, 0.0f, -1.0f );

  00142	0f 57 c0	 xorps	 xmm0, xmm0
  00145	8d 45 cc	 lea	 eax, DWORD PTR $T549000[ebp]
  00148	50		 push	 eax
  00149	81 c3 a4 06 00
	00		 add	 ebx, 1700		; 000006a4H
  0014f	8d 45 e4	 lea	 eax, DWORD PTR $T549001[ebp]
  00152	f3 0f 11 45 cc	 movss	 DWORD PTR $T549000[ebp], xmm0
  00157	f3 0f 11 45 d0	 movss	 DWORD PTR $T549000[ebp+4], xmm0
  0015c	f3 0f 10 05 00
	00 00 00	 movss	 xmm0, DWORD PTR __real@bf800000
  00164	53		 push	 ebx
  00165	50		 push	 eax
  00166	f3 0f 11 45 d4	 movss	 DWORD PTR $T549000[ebp+8], xmm0
  0016b	ff 15 00 00 00
	00		 call	 DWORD PTR __imp_??D@YA?AUD3DXVECTOR3@@ABUD3DXQUATERNION@@ABU0@@Z
  00171	8b f0		 mov	 esi, eax
  00173	8d 7d f0	 lea	 edi, DWORD PTR _vAimedDir$[ebp]
  00176	a5		 movsd
  00177	a5		 movsd
  00178	83 c4 0c	 add	 esp, 12			; 0000000cH
  0017b	a5		 movsd
$LN1@SetTargetR:

; 581  : 
; 582  : 	D3DXVec3Normalize( &vAimedDir, &vAimedDir );

  0017c	8d 45 f0	 lea	 eax, DWORD PTR _vAimedDir$[ebp]
  0017f	50		 push	 eax
  00180	50		 push	 eax
  00181	e8 00 00 00 00	 call	 _D3DXVec3Normalize@8

; 583  : 	m_vAimDir = vAimedDir;

  00186	8b 7d c0	 mov	 edi, DWORD PTR _this$GSCopy$[ebp]
  00189	81 c7 58 13 00
	00		 add	 edi, 4952		; 00001358H
  0018f	8d 75 f0	 lea	 esi, DWORD PTR _vAimedDir$[ebp]
  00192	a5		 movsd
  00193	a5		 movsd
  00194	a5		 movsd
  00195	5f		 pop	 edi
  00196	5e		 pop	 esi
$LN5@SetTargetR:

; 584  : }

  00197	8b 4d fc	 mov	 ecx, DWORD PTR __$ArrayPad$[ebp]
  0019a	33 cd		 xor	 ecx, ebp
  0019c	5b		 pop	 ebx
  0019d	e8 00 00 00 00	 call	 @__security_check_cookie@4
  001a2	c9		 leave
  001a3	c2 04 00	 ret	 4
?SetTargetRotation@ioTargetTimingAttackSkill@@IAEXPAVioBaseChar@@@Z ENDP ; ioTargetTimingAttackSkill::SetTargetRotation
_TEXT	ENDS
PUBLIC	__real@3f800000
PUBLIC	_pStage$GSCopy$
PUBLIC	__$ArrayPad$
PUBLIC	?SetAimedMaker@ioTargetTimingAttackSkill@@IAEXPAVioBaseChar@@PAVioPlayStage@@UD3DXVECTOR3@@@Z ; ioTargetTimingAttackSkill::SetAimedMaker
EXTRN	??1SP2Packet@@UAE@XZ:PROC			; SP2Packet::~SP2Packet
EXTRN	?SendToAllPlayingUser@P2PNetwork@@YAXAAVSP2Packet@@PAVioBaseChar@@@Z:PROC ; P2PNetwork::SendToAllPlayingUser
EXTRN	??6SP2Packet@@QAEAAV0@_N@Z:PROC			; SP2Packet::operator<<
EXTRN	??6SP2Packet@@QAEAAV0@H@Z:PROC			; SP2Packet::operator<<
EXTRN	??6SP2Packet@@QAEAAV0@ABVioHashString@@@Z:PROC	; SP2Packet::operator<<
EXTRN	??0SP2Packet@@QAE@K@Z:PROC			; SP2Packet::SP2Packet
EXTRN	___CxxFrameHandler3:PROC
EXTRN	__chkstk:PROC
;	COMDAT __real@3f800000
; File d:\lost saga for developer\youtube\tutorial\source\src\lsclient\ioskill.h
CONST	SEGMENT
__real@3f800000 DD 03f800000r			; 1
CONST	ENDS
;	COMDAT xdata$x
xdata$x	SEGMENT
__unwindtable$?SetAimedMaker@ioTargetTimingAttackSkill@@IAEXPAVioBaseChar@@PAVioPlayStage@@UD3DXVECTOR3@@@Z DD 0ffffffffH
	DD	FLAT:__unwindfunclet$?SetAimedMaker@ioTargetTimingAttackSkill@@IAEXPAVioBaseChar@@PAVioPlayStage@@UD3DXVECTOR3@@@Z$0
__ehfuncinfo$?SetAimedMaker@ioTargetTimingAttackSkill@@IAEXPAVioBaseChar@@PAVioPlayStage@@UD3DXVECTOR3@@@Z DD 019930522H
	DD	01H
	DD	FLAT:__unwindtable$?SetAimedMaker@ioTargetTimingAttackSkill@@IAEXPAVioBaseChar@@PAVioPlayStage@@UD3DXVECTOR3@@@Z
	DD	2 DUP(00H)
	DD	2 DUP(00H)
	DD	00H
	DD	01H
; Function compile flags: /Ogsp
; File d:\lost saga for developer\youtube\tutorial\source\src\lsclient\iotargettimingattackskill.cpp
xdata$x	ENDS
;	COMDAT ?SetAimedMaker@ioTargetTimingAttackSkill@@IAEXPAVioBaseChar@@PAVioPlayStage@@UD3DXVECTOR3@@@Z
_TEXT	SEGMENT
_pStage$GSCopy$ = -32828				; size = 4
_dwCurTime$ = -32824					; size = 4
_kPacket$549022 = -32820				; size = 32792
$T549020 = -28						; size = 12
$T549015 = -28						; size = 12
__$ArrayPad$ = -16					; size = 4
__$EHRec$ = -12						; size = 12
_pChar$ = 8						; size = 4
_pStage$ = 12						; size = 4
_vPos$ = 16						; size = 12
?SetAimedMaker@ioTargetTimingAttackSkill@@IAEXPAVioBaseChar@@PAVioPlayStage@@UD3DXVECTOR3@@@Z PROC ; ioTargetTimingAttackSkill::SetAimedMaker, COMDAT
; _this$ = ecx

; 587  : {

  00000	55		 push	 ebp
  00001	8b ec		 mov	 ebp, esp
  00003	6a ff		 push	 -1
  00005	68 00 00 00 00	 push	 __ehhandler$?SetAimedMaker@ioTargetTimingAttackSkill@@IAEXPAVioBaseChar@@PAVioPlayStage@@UD3DXVECTOR3@@@Z
  0000a	64 a1 00 00 00
	00		 mov	 eax, DWORD PTR fs:0
  00010	50		 push	 eax
  00011	b8 30 80 00 00	 mov	 eax, 32816		; 00008030H
  00016	e8 00 00 00 00	 call	 __chkstk
  0001b	a1 00 00 00 00	 mov	 eax, DWORD PTR ___security_cookie
  00020	33 c5		 xor	 eax, ebp
  00022	89 45 f0	 mov	 DWORD PTR __$ArrayPad$[ebp], eax
  00025	53		 push	 ebx
  00026	56		 push	 esi
  00027	57		 push	 edi
  00028	50		 push	 eax
  00029	8d 45 f4	 lea	 eax, DWORD PTR __$EHRec$[ebp]
  0002c	64 a3 00 00 00
	00		 mov	 DWORD PTR fs:0, eax
  00032	8b 5d 08	 mov	 ebx, DWORD PTR _pChar$[ebp]
  00035	8b 7d 0c	 mov	 edi, DWORD PTR _pStage$[ebp]
  00038	8b f1		 mov	 esi, ecx

; 624  : 	{
; 625  : 		SP2Packet kPacket( CUPK_SKILL_EXTRA_INFO );

  0003a	89 bd c4 7f ff
	ff		 mov	 DWORD PTR _pStage$GSCopy$[ebp], edi
  00040	85 db		 test	 ebx, ebx
  00042	0f 84 81 01 00
	00		 je	 $LN8@SetAimedMa

; 588  : 	if ( !pChar || !pChar->IsNeedProcess() || !pStage )

  00048	8b 03		 mov	 eax, DWORD PTR [ebx]
  0004a	8b cb		 mov	 ecx, ebx
  0004c	ff 90 00 01 00
	00		 call	 DWORD PTR [eax+256]
  00052	84 c0		 test	 al, al
  00054	0f 84 6f 01 00
	00		 je	 $LN8@SetAimedMa
  0005a	85 ff		 test	 edi, edi
  0005c	0f 84 67 01 00
	00		 je	 $LN8@SetAimedMa

; 589  : 		return;
; 590  : 
; 591  : 	bool bSendNetwork = false;
; 592  : 
; 593  : 	DWORD dwCurTime = FRAMEGETTIME();		

  00062	ff 15 00 00 00
	00		 call	 DWORD PTR __imp_?GetSingleton@ioFrameTimer@@SAAAV1@XZ
  00068	8b c8		 mov	 ecx, eax
  0006a	ff 15 00 00 00
	00		 call	 DWORD PTR __imp_?GetLoopSec@ioFrameTimer@@QBEKXZ

; 594  : 	if ( m_dwMakerID != -1 )

  00070	8d be 54 13 00
	00		 lea	 edi, DWORD PTR [esi+4948]
  00076	83 3f ff	 cmp	 DWORD PTR [edi], -1
  00079	89 85 c8 7f ff
	ff		 mov	 DWORD PTR _dwCurTime$[ebp], eax
  0007f	74 77		 je	 SHORT $LN7@SetAimedMa

; 595  : 	{
; 596  : 		if ( m_dwCheckAimTime > 0 && m_dwCheckAimTime < dwCurTime )

  00081	8b 86 38 13 00
	00		 mov	 eax, DWORD PTR [esi+4920]
  00087	85 c0		 test	 eax, eax
  00089	0f 84 3a 01 00
	00		 je	 $LN8@SetAimedMa
  0008f	3b 85 c8 7f ff
	ff		 cmp	 eax, DWORD PTR _dwCurTime$[ebp]
  00095	0f 83 2e 01 00
	00		 jae	 $LN8@SetAimedMa

; 597  : 		{
; 598  : 			bSendNetwork = true;
; 599  : 			DestroyEffect( pChar, pStage, m_dwMakerID );

  0009b	57		 push	 edi
  0009c	ff b5 c4 7f ff
	ff		 push	 DWORD PTR _pStage$GSCopy$[ebp]
  000a2	8b ce		 mov	 ecx, esi
  000a4	53		 push	 ebx
  000a5	e8 00 00 00 00	 call	 ?DestroyEffect@ioTargetTimingAttackSkill@@IAEXPAVioBaseChar@@PAVioPlayStage@@AAK@Z ; ioTargetTimingAttackSkill::DestroyEffect

; 600  : 
; 601  : 			if ( !m_bZeroAimed )

  000aa	80 be 34 13 00
	00 00		 cmp	 BYTE PTR [esi+4916], 0

; 602  : 			{
; 603  : 				m_dwMakerID = CreateEffect( pChar, pStage, m_szZeroAimedMarker, vPos, D3DXVECTOR3(1.0f,1.0f,1.0f) );

  000b1	f3 0f 10 05 00
	00 00 00	 movss	 xmm0, DWORD PTR __real@3f800000
  000b9	8d 45 e4	 lea	 eax, DWORD PTR $T549015[ebp]
  000bc	50		 push	 eax
  000bd	8d 45 10	 lea	 eax, DWORD PTR _vPos$[ebp]
  000c0	8b ce		 mov	 ecx, esi
  000c2	f3 0f 11 45 e4	 movss	 DWORD PTR $T549015[ebp], xmm0
  000c7	f3 0f 11 45 e8	 movss	 DWORD PTR $T549015[ebp+4], xmm0
  000cc	f3 0f 11 45 ec	 movss	 DWORD PTR $T549015[ebp+8], xmm0
  000d1	50		 push	 eax
  000d2	75 45		 jne	 SHORT $LN5@SetAimedMa
  000d4	8d 86 fc 10 00
	00		 lea	 eax, DWORD PTR [esi+4348]
  000da	50		 push	 eax
  000db	ff b5 c4 7f ff
	ff		 push	 DWORD PTR _pStage$GSCopy$[ebp]
  000e1	53		 push	 ebx
  000e2	e8 00 00 00 00	 call	 ?CreateEffect@ioTargetTimingAttackSkill@@IAEKPAVioBaseChar@@PAVioPlayStage@@AAVioHashString@@AAUD3DXVECTOR3@@3@Z ; ioTargetTimingAttackSkill::CreateEffect
  000e7	89 07		 mov	 DWORD PTR [edi], eax

; 604  : 				m_bZeroAimed = true;
; 605  : 				m_dwCheckAimTime = m_dwZeroAimedTime + dwCurTime;

  000e9	8b 86 0c 11 00
	00		 mov	 eax, DWORD PTR [esi+4364]
  000ef	c6 86 34 13 00
	00 01		 mov	 BYTE PTR [esi+4916], 1

; 606  : 			}
; 607  : 			else

  000f6	eb 43		 jmp	 SHORT $LN25@SetAimedMa
$LN7@SetAimedMa:

; 608  : 			{
; 609  : 				m_dwMakerID = CreateEffect( pChar, pStage, m_szAimedMarker, vPos, D3DXVECTOR3(1.0f,1.0f,1.0f) );
; 610  : 				m_bZeroAimed = false;
; 611  : 				m_dwCheckAimTime = m_dwAimedTime + dwCurTime;
; 612  : 			}
; 613  : 		}
; 614  : 	}
; 615  : 	else if ( m_dwMakerID == -1 )
; 616  : 	{
; 617  : 		bSendNetwork = true;
; 618  : 		m_dwMakerID = CreateEffect( pChar, pStage, m_szAimedMarker, vPos, D3DXVECTOR3(1.0f,1.0f,1.0f) );

  000f8	f3 0f 10 05 00
	00 00 00	 movss	 xmm0, DWORD PTR __real@3f800000
  00100	8d 45 e4	 lea	 eax, DWORD PTR $T549020[ebp]
  00103	50		 push	 eax
  00104	8d 45 10	 lea	 eax, DWORD PTR _vPos$[ebp]
  00107	f3 0f 11 45 e4	 movss	 DWORD PTR $T549020[ebp], xmm0
  0010c	f3 0f 11 45 e8	 movss	 DWORD PTR $T549020[ebp+4], xmm0
  00111	f3 0f 11 45 ec	 movss	 DWORD PTR $T549020[ebp+8], xmm0
  00116	50		 push	 eax
  00117	8b ce		 mov	 ecx, esi
$LN5@SetAimedMa:
  00119	8d 86 e8 10 00
	00		 lea	 eax, DWORD PTR [esi+4328]
  0011f	50		 push	 eax
  00120	ff b5 c4 7f ff
	ff		 push	 DWORD PTR _pStage$GSCopy$[ebp]
  00126	53		 push	 ebx
  00127	e8 00 00 00 00	 call	 ?CreateEffect@ioTargetTimingAttackSkill@@IAEKPAVioBaseChar@@PAVioPlayStage@@AAVioHashString@@AAUD3DXVECTOR3@@3@Z ; ioTargetTimingAttackSkill::CreateEffect
  0012c	89 07		 mov	 DWORD PTR [edi], eax

; 619  : 		m_bZeroAimed = false;
; 620  : 		m_dwCheckAimTime = m_dwAimedTime + dwCurTime;

  0012e	8b 86 f8 10 00
	00		 mov	 eax, DWORD PTR [esi+4344]
  00134	c6 86 34 13 00
	00 00		 mov	 BYTE PTR [esi+4916], 0
$LN25@SetAimedMa:
  0013b	03 85 c8 7f ff
	ff		 add	 eax, DWORD PTR _dwCurTime$[ebp]

; 621  : 	}
; 622  : 
; 623  : 	if ( bSendNetwork && pChar->IsNeedSendNetwork() )

  00141	8b cb		 mov	 ecx, ebx
  00143	89 86 38 13 00
	00		 mov	 DWORD PTR [esi+4920], eax
  00149	8b 03		 mov	 eax, DWORD PTR [ebx]
  0014b	ff 90 04 01 00
	00		 call	 DWORD PTR [eax+260]
  00151	84 c0		 test	 al, al
  00153	74 74		 je	 SHORT $LN8@SetAimedMa

; 624  : 	{
; 625  : 		SP2Packet kPacket( CUPK_SKILL_EXTRA_INFO );

  00155	68 39 41 00 00	 push	 16697			; 00004139H
  0015a	8d 8d cc 7f ff
	ff		 lea	 ecx, DWORD PTR _kPacket$549022[ebp]
  00160	e8 00 00 00 00	 call	 ??0SP2Packet@@QAE@K@Z	; SP2Packet::SP2Packet
  00165	83 65 fc 00	 and	 DWORD PTR __$EHRec$[ebp+8], 0

; 626  : 		kPacket << pChar->GetCharName();

  00169	81 c3 d4 02 00
	00		 add	 ebx, 724		; 000002d4H
  0016f	53		 push	 ebx
  00170	8d 8d cc 7f ff
	ff		 lea	 ecx, DWORD PTR _kPacket$549022[ebp]
  00176	e8 00 00 00 00	 call	 ??6SP2Packet@@QAEAAV0@ABVioHashString@@@Z ; SP2Packet::operator<<

; 627  : 		kPacket << GetName();

  0017b	8d 46 24	 lea	 eax, DWORD PTR [esi+36]
  0017e	50		 push	 eax
  0017f	8d 8d cc 7f ff
	ff		 lea	 ecx, DWORD PTR _kPacket$549022[ebp]
  00185	e8 00 00 00 00	 call	 ??6SP2Packet@@QAEAAV0@ABVioHashString@@@Z ; SP2Packet::operator<<

; 628  : 		kPacket << SS_AIM_MARK;

  0018a	6a 02		 push	 2
  0018c	8d 8d cc 7f ff
	ff		 lea	 ecx, DWORD PTR _kPacket$549022[ebp]
  00192	e8 00 00 00 00	 call	 ??6SP2Packet@@QAEAAV0@H@Z ; SP2Packet::operator<<

; 629  : 		kPacket << m_bZeroAimed;

  00197	0f b6 86 34 13
	00 00		 movzx	 eax, BYTE PTR [esi+4916]
  0019e	50		 push	 eax
  0019f	8d 8d cc 7f ff
	ff		 lea	 ecx, DWORD PTR _kPacket$549022[ebp]
  001a5	e8 00 00 00 00	 call	 ??6SP2Packet@@QAEAAV0@_N@Z ; SP2Packet::operator<<

; 630  : 		P2PNetwork::SendToAllPlayingUser( kPacket );

  001aa	8d 85 cc 7f ff
	ff		 lea	 eax, DWORD PTR _kPacket$549022[ebp]
  001b0	6a 00		 push	 0
  001b2	50		 push	 eax
  001b3	e8 00 00 00 00	 call	 ?SendToAllPlayingUser@P2PNetwork@@YAXAAVSP2Packet@@PAVioBaseChar@@@Z ; P2PNetwork::SendToAllPlayingUser

; 631  : 	}

  001b8	83 4d fc ff	 or	 DWORD PTR __$EHRec$[ebp+8], -1
  001bc	59		 pop	 ecx
  001bd	59		 pop	 ecx
  001be	8d 8d cc 7f ff
	ff		 lea	 ecx, DWORD PTR _kPacket$549022[ebp]
  001c4	e8 00 00 00 00	 call	 ??1SP2Packet@@UAE@XZ	; SP2Packet::~SP2Packet
$LN8@SetAimedMa:

; 632  : }

  001c9	8b 4d f4	 mov	 ecx, DWORD PTR __$EHRec$[ebp]
  001cc	64 89 0d 00 00
	00 00		 mov	 DWORD PTR fs:0, ecx
  001d3	59		 pop	 ecx
  001d4	5f		 pop	 edi
  001d5	5e		 pop	 esi
  001d6	5b		 pop	 ebx
  001d7	8b 4d f0	 mov	 ecx, DWORD PTR __$ArrayPad$[ebp]
  001da	33 cd		 xor	 ecx, ebp
  001dc	e8 00 00 00 00	 call	 @__security_check_cookie@4
  001e1	c9		 leave
  001e2	c2 14 00	 ret	 20			; 00000014H
_TEXT	ENDS
;	COMDAT text$x
text$x	SEGMENT
__unwindfunclet$?SetAimedMaker@ioTargetTimingAttackSkill@@IAEXPAVioBaseChar@@PAVioPlayStage@@UD3DXVECTOR3@@@Z$0:
  00000	8d 8d cc 7f ff
	ff		 lea	 ecx, DWORD PTR _kPacket$549022[ebp]
  00006	e9 00 00 00 00	 jmp	 ??1SP2Packet@@UAE@XZ	; SP2Packet::~SP2Packet
__ehhandler$?SetAimedMaker@ioTargetTimingAttackSkill@@IAEXPAVioBaseChar@@PAVioPlayStage@@UD3DXVECTOR3@@@Z:
  0000b	8b 54 24 08	 mov	 edx, DWORD PTR [esp+8]
  0000f	8d 42 0c	 lea	 eax, DWORD PTR [edx+12]
  00012	8b 8a c0 7f ff
	ff		 mov	 ecx, DWORD PTR [edx-32832]
  00018	33 c8		 xor	 ecx, eax
  0001a	e8 00 00 00 00	 call	 @__security_check_cookie@4
  0001f	8b 4a fc	 mov	 ecx, DWORD PTR [edx-4]
  00022	33 c8		 xor	 ecx, eax
  00024	e8 00 00 00 00	 call	 @__security_check_cookie@4
  00029	b8 00 00 00 00	 mov	 eax, OFFSET __ehfuncinfo$?SetAimedMaker@ioTargetTimingAttackSkill@@IAEXPAVioBaseChar@@PAVioPlayStage@@UD3DXVECTOR3@@@Z
  0002e	e9 00 00 00 00	 jmp	 ___CxxFrameHandler3
text$x	ENDS
?SetAimedMaker@ioTargetTimingAttackSkill@@IAEXPAVioBaseChar@@PAVioPlayStage@@UD3DXVECTOR3@@@Z ENDP ; ioTargetTimingAttackSkill::SetAimedMaker
PUBLIC	_pStage$GSCopy$
PUBLIC	_pChar$GSCopy$
PUBLIC	__$ArrayPad$
PUBLIC	?UpdateMaker@ioTargetTimingAttackSkill@@IAEXPAVioBaseChar@@PAVioPlayStage@@@Z ; ioTargetTimingAttackSkill::UpdateMaker
EXTRN	?SetWorldPosition@ioMapEffect@@QAEXABUD3DXVECTOR3@@@Z:PROC ; ioMapEffect::SetWorldPosition
EXTRN	?FindMapEffect@ioPlayStage@@QAEPAVioMapEffect@@K@Z:PROC ; ioPlayStage::FindMapEffect
EXTRN	?GetBaseChar@ioPlayStage@@QAEPAVioBaseChar@@ABVioHashString@@@Z:PROC ; ioPlayStage::GetBaseChar
; Function compile flags: /Ogsp
;	COMDAT ?UpdateMaker@ioTargetTimingAttackSkill@@IAEXPAVioBaseChar@@PAVioPlayStage@@@Z
_TEXT	SEGMENT
$T549032 = -52						; size = 12
_pChar$GSCopy$ = -40					; size = 4
_pStage$GSCopy$ = -36					; size = 4
tv407 = -32						; size = 4
tv402 = -32						; size = 4
tv398 = -32						; size = 4
tv380 = -32						; size = 4
tv376 = -32						; size = 4
tv372 = -32						; size = 4
$T549037 = -28						; size = 12
$T549031 = -28						; size = 12
_vPos$ = -16						; size = 12
__$ArrayPad$ = -4					; size = 4
_pChar$ = 8						; size = 4
_pStage$ = 12						; size = 4
?UpdateMaker@ioTargetTimingAttackSkill@@IAEXPAVioBaseChar@@PAVioPlayStage@@@Z PROC ; ioTargetTimingAttackSkill::UpdateMaker, COMDAT
; _this$ = ecx

; 635  : {

  00000	55		 push	 ebp
  00001	8b ec		 mov	 ebp, esp
  00003	83 ec 34	 sub	 esp, 52			; 00000034H
  00006	a1 00 00 00 00	 mov	 eax, DWORD PTR ___security_cookie
  0000b	33 c5		 xor	 eax, ebp
  0000d	89 45 fc	 mov	 DWORD PTR __$ArrayPad$[ebp], eax
  00010	53		 push	 ebx
  00011	56		 push	 esi
  00012	8b d9		 mov	 ebx, ecx
  00014	8b 4d 08	 mov	 ecx, DWORD PTR _pChar$[ebp]
  00017	57		 push	 edi
  00018	8b 7d 0c	 mov	 edi, DWORD PTR _pStage$[ebp]

; 646  : 	}
; 647  : 
; 648  : 	SetAimedMaker( pChar, pStage, vPos );

  0001b	89 4d d8	 mov	 DWORD PTR _pChar$GSCopy$[ebp], ecx
  0001e	89 7d dc	 mov	 DWORD PTR _pStage$GSCopy$[ebp], edi
  00021	85 c9		 test	 ecx, ecx
  00023	0f 84 99 01 00
	00		 je	 $LN4@UpdateMake

; 636  : 	if ( !pChar || !pStage )

  00029	85 ff		 test	 edi, edi
  0002b	0f 84 91 01 00
	00		 je	 $LN4@UpdateMake

; 637  : 		return;
; 638  : 	
; 639  : 	D3DXVECTOR3 vPos = pChar->GetMidPositionByRate() + m_vAimDir * m_fAimRange;

  00031	f3 0f 10 83 e4
	10 00 00	 movss	 xmm0, DWORD PTR [ebx+4324]
  00039	f3 0f 10 8b 58
	13 00 00	 movss	 xmm1, DWORD PTR [ebx+4952]
  00041	0f 5a c9	 cvtps2pd xmm1, xmm1
  00044	0f 5a d0	 cvtps2pd xmm2, xmm0
  00047	f2 0f 59 ca	 mulsd	 xmm1, xmm2
  0004b	66 0f 5a c9	 cvtpd2ps xmm1, xmm1
  0004f	f3 0f 11 4d cc	 movss	 DWORD PTR $T549032[ebp], xmm1
  00054	f3 0f 10 8b 5c
	13 00 00	 movss	 xmm1, DWORD PTR [ebx+4956]
  0005c	0f 5a c9	 cvtps2pd xmm1, xmm1
  0005f	0f 5a d0	 cvtps2pd xmm2, xmm0
  00062	f2 0f 59 ca	 mulsd	 xmm1, xmm2
  00066	66 0f 5a c9	 cvtpd2ps xmm1, xmm1
  0006a	f3 0f 11 4d d0	 movss	 DWORD PTR $T549032[ebp+4], xmm1
  0006f	f3 0f 10 8b 60
	13 00 00	 movss	 xmm1, DWORD PTR [ebx+4960]
  00077	0f 5a c0	 cvtps2pd xmm0, xmm0
  0007a	0f 5a c9	 cvtps2pd xmm1, xmm1
  0007d	f2 0f 59 c8	 mulsd	 xmm1, xmm0
  00081	0f 57 c0	 xorps	 xmm0, xmm0
  00084	66 0f 5a c1	 cvtpd2ps xmm0, xmm1
  00088	f3 0f 11 45 d4	 movss	 DWORD PTR $T549032[ebp+8], xmm0
  0008d	b8 05 00 00 00	 mov	 eax, 5
  00092	8b d0		 mov	 edx, eax
  00094	b8 0a 00 00 00	 mov	 eax, 10			; 0000000aH
  00099	89 55 e0	 mov	 DWORD PTR tv407[ebp], edx
  0009c	db 45 e0	 fild	 DWORD PTR tv407[ebp]
  0009f	85 d2		 test	 edx, edx
  000a1	79 06		 jns	 SHORT $LN24@UpdateMake
  000a3	d8 05 00 00 00
	00		 fadd	 DWORD PTR __real@4f800000
$LN24@UpdateMake:
  000a9	89 45 e0	 mov	 DWORD PTR tv402[ebp], eax
  000ac	db 45 e0	 fild	 DWORD PTR tv402[ebp]
  000af	85 c0		 test	 eax, eax
  000b1	79 06		 jns	 SHORT $LN25@UpdateMake
  000b3	d8 05 00 00 00
	00		 fadd	 DWORD PTR __real@4f800000
$LN25@UpdateMake:
  000b9	de f9		 fdivp	 ST(1), ST(0)
  000bb	51		 push	 ecx
  000bc	8d 45 e4	 lea	 eax, DWORD PTR $T549031[ebp]
  000bf	d9 5d e0	 fstp	 DWORD PTR tv398[ebp]
  000c2	d9 45 e0	 fld	 DWORD PTR tv398[ebp]
  000c5	d9 1c 24	 fstp	 DWORD PTR [esp]
  000c8	50		 push	 eax
  000c9	e8 00 00 00 00	 call	 ?GetMidPositionByRate@ioGameEntity@@QBE?AUD3DXVECTOR3@@M@Z ; ioGameEntity::GetMidPositionByRate
  000ce	f3 0f 10 40 04	 movss	 xmm0, DWORD PTR [eax+4]
  000d3	f3 0f 10 4d d0	 movss	 xmm1, DWORD PTR $T549032[ebp+4]
  000d8	f3 0f 10 55 d4	 movss	 xmm2, DWORD PTR $T549032[ebp+8]
  000dd	f3 0f 10 5d cc	 movss	 xmm3, DWORD PTR $T549032[ebp]
  000e2	0f 5a c9	 cvtps2pd xmm1, xmm1
  000e5	0f 5a c0	 cvtps2pd xmm0, xmm0
  000e8	f2 0f 58 c1	 addsd	 xmm0, xmm1
  000ec	f3 0f 10 48 08	 movss	 xmm1, DWORD PTR [eax+8]
  000f1	0f 5a d2	 cvtps2pd xmm2, xmm2
  000f4	0f 5a c9	 cvtps2pd xmm1, xmm1
  000f7	f2 0f 58 ca	 addsd	 xmm1, xmm2
  000fb	f3 0f 10 10	 movss	 xmm2, DWORD PTR [eax]
  000ff	0f 5a d2	 cvtps2pd xmm2, xmm2
  00102	0f 5a db	 cvtps2pd xmm3, xmm3
  00105	f2 0f 58 d3	 addsd	 xmm2, xmm3

; 640  : 
; 641  : 	if ( !m_szAimedTarget.IsEmpty() )

  00109	8d b3 3c 13 00
	00		 lea	 esi, DWORD PTR [ebx+4924]
  0010f	66 0f 5a c0	 cvtpd2ps xmm0, xmm0
  00113	66 0f 5a c9	 cvtpd2ps xmm1, xmm1
  00117	66 0f 5a d2	 cvtpd2ps xmm2, xmm2
  0011b	8b ce		 mov	 ecx, esi
  0011d	f3 0f 11 55 f0	 movss	 DWORD PTR _vPos$[ebp], xmm2
  00122	f3 0f 11 45 f4	 movss	 DWORD PTR _vPos$[ebp+4], xmm0
  00127	f3 0f 11 4d f8	 movss	 DWORD PTR _vPos$[ebp+8], xmm1
  0012c	ff 15 00 00 00
	00		 call	 DWORD PTR __imp_?IsEmpty@ioHashString@@QBE_NXZ
  00132	84 c0		 test	 al, al
  00134	75 57		 jne	 SHORT $LN2@UpdateMake

; 642  : 	{
; 643  : 		ioBaseChar *pTarget = pStage->GetBaseChar( m_szAimedTarget );

  00136	56		 push	 esi
  00137	8b cf		 mov	 ecx, edi
  00139	e8 00 00 00 00	 call	 ?GetBaseChar@ioPlayStage@@QAEPAVioBaseChar@@ABVioHashString@@@Z ; ioPlayStage::GetBaseChar
  0013e	8b c8		 mov	 ecx, eax

; 644  : 		if ( pTarget )

  00140	85 c9		 test	 ecx, ecx
  00142	74 49		 je	 SHORT $LN2@UpdateMake

; 645  : 			vPos = pTarget->GetMidPositionByRate();

  00144	b8 05 00 00 00	 mov	 eax, 5
  00149	8b d0		 mov	 edx, eax
  0014b	b8 0a 00 00 00	 mov	 eax, 10			; 0000000aH
  00150	89 55 e0	 mov	 DWORD PTR tv380[ebp], edx
  00153	db 45 e0	 fild	 DWORD PTR tv380[ebp]
  00156	85 d2		 test	 edx, edx
  00158	79 06		 jns	 SHORT $LN26@UpdateMake
  0015a	d8 05 00 00 00
	00		 fadd	 DWORD PTR __real@4f800000
$LN26@UpdateMake:
  00160	89 45 e0	 mov	 DWORD PTR tv376[ebp], eax
  00163	db 45 e0	 fild	 DWORD PTR tv376[ebp]
  00166	85 c0		 test	 eax, eax
  00168	79 06		 jns	 SHORT $LN27@UpdateMake
  0016a	d8 05 00 00 00
	00		 fadd	 DWORD PTR __real@4f800000
$LN27@UpdateMake:
  00170	de f9		 fdivp	 ST(1), ST(0)
  00172	51		 push	 ecx
  00173	8d 45 e4	 lea	 eax, DWORD PTR $T549037[ebp]
  00176	d9 5d e0	 fstp	 DWORD PTR tv372[ebp]
  00179	d9 45 e0	 fld	 DWORD PTR tv372[ebp]
  0017c	d9 1c 24	 fstp	 DWORD PTR [esp]
  0017f	50		 push	 eax
  00180	e8 00 00 00 00	 call	 ?GetMidPositionByRate@ioGameEntity@@QBE?AUD3DXVECTOR3@@M@Z ; ioGameEntity::GetMidPositionByRate
  00185	8b f0		 mov	 esi, eax
  00187	8d 7d f0	 lea	 edi, DWORD PTR _vPos$[ebp]
  0018a	a5		 movsd
  0018b	a5		 movsd
  0018c	a5		 movsd
$LN2@UpdateMake:

; 646  : 	}
; 647  : 
; 648  : 	SetAimedMaker( pChar, pStage, vPos );

  0018d	83 ec 0c	 sub	 esp, 12			; 0000000cH
  00190	8b fc		 mov	 edi, esp
  00192	ff 75 dc	 push	 DWORD PTR _pStage$GSCopy$[ebp]
  00195	8d 75 f0	 lea	 esi, DWORD PTR _vPos$[ebp]
  00198	ff 75 d8	 push	 DWORD PTR _pChar$GSCopy$[ebp]
  0019b	a5		 movsd
  0019c	a5		 movsd
  0019d	8b cb		 mov	 ecx, ebx
  0019f	a5		 movsd
  001a0	e8 00 00 00 00	 call	 ?SetAimedMaker@ioTargetTimingAttackSkill@@IAEXPAVioBaseChar@@PAVioPlayStage@@UD3DXVECTOR3@@@Z ; ioTargetTimingAttackSkill::SetAimedMaker

; 649  : 
; 650  : 	ioMapEffect *pEffect = pStage->FindMapEffect( m_dwMakerID );

  001a5	ff b3 54 13 00
	00		 push	 DWORD PTR [ebx+4948]
  001ab	8b 4d dc	 mov	 ecx, DWORD PTR _pStage$GSCopy$[ebp]
  001ae	e8 00 00 00 00	 call	 ?FindMapEffect@ioPlayStage@@QAEPAVioMapEffect@@K@Z ; ioPlayStage::FindMapEffect

; 651  : 	if ( pEffect )		

  001b3	85 c0		 test	 eax, eax
  001b5	74 0b		 je	 SHORT $LN4@UpdateMake

; 652  : 		pEffect->SetWorldPosition( vPos );

  001b7	8d 4d f0	 lea	 ecx, DWORD PTR _vPos$[ebp]
  001ba	51		 push	 ecx
  001bb	8b c8		 mov	 ecx, eax
  001bd	e8 00 00 00 00	 call	 ?SetWorldPosition@ioMapEffect@@QAEXABUD3DXVECTOR3@@@Z ; ioMapEffect::SetWorldPosition
$LN4@UpdateMake:

; 653  : }

  001c2	8b 4d fc	 mov	 ecx, DWORD PTR __$ArrayPad$[ebp]
  001c5	5f		 pop	 edi
  001c6	5e		 pop	 esi
  001c7	33 cd		 xor	 ecx, ebp
  001c9	5b		 pop	 ebx
  001ca	e8 00 00 00 00	 call	 @__security_check_cookie@4
  001cf	c9		 leave
  001d0	c2 08 00	 ret	 8
?UpdateMaker@ioTargetTimingAttackSkill@@IAEXPAVioBaseChar@@PAVioPlayStage@@@Z ENDP ; ioTargetTimingAttackSkill::UpdateMaker
_TEXT	ENDS
PUBLIC	__real@3ff0000000000000
PUBLIC	__real@42c80000
PUBLIC	?SetAimState@ioTargetTimingAttackSkill@@IAEXPAVioBaseChar@@@Z ; ioTargetTimingAttackSkill::SetAimState
EXTRN	__imp_?SetLoopAni@ioEntityGroup@@QAE_NHMMMM@Z:PROC
EXTRN	__imp_?ClearAllActionAni@ioEntityGroup@@QAEXM_N@Z:PROC
EXTRN	__imp_?ClearAllLoopAni@ioEntityGroup@@QAEXM_N@Z:PROC
EXTRN	__imp_?GetAnimationIdx@ioEntityGroup@@QAEHABVioHashString@@@Z:PROC
;	COMDAT __real@3ff0000000000000
; File d:\lost saga for developer\youtube\tutorial\source\src\lsclient\iogameentity.h
CONST	SEGMENT
__real@3ff0000000000000 DQ 03ff0000000000000r	; 1
CONST	ENDS
;	COMDAT __real@42c80000
CONST	SEGMENT
__real@42c80000 DD 042c80000r			; 100
; Function compile flags: /Ogsp
; File d:\lost saga for developer\youtube\tutorial\source\src\lsclient\iotargettimingattackskill.cpp
CONST	ENDS
;	COMDAT ?SetAimState@ioTargetTimingAttackSkill@@IAEXPAVioBaseChar@@@Z
_TEXT	SEGMENT
_nAniID$ = 8						; size = 4
_pChar$ = 8						; size = 4
?SetAimState@ioTargetTimingAttackSkill@@IAEXPAVioBaseChar@@@Z PROC ; ioTargetTimingAttackSkill::SetAimState, COMDAT
; _this$ = ecx

; 658  : {

  00000	55		 push	 ebp
  00001	8b ec		 mov	 ebp, esp

; 659  : 	if ( !pChar )

  00003	8b 45 08	 mov	 eax, DWORD PTR _pChar$[ebp]
  00006	56		 push	 esi
  00007	8b f1		 mov	 esi, ecx
  00009	85 c0		 test	 eax, eax
  0000b	0f 84 c1 00 00
	00		 je	 $LN3@SetAimStat

; 660  : 		return;
; 661  : 
; 662  : 	ioEntityGroup *pGrp = pChar->GetGroup();

  00011	57		 push	 edi
  00012	8b 78 04	 mov	 edi, DWORD PTR [eax+4]

; 663  : 
; 664  : 	int nAniID = pGrp->GetAnimationIdx( m_szAimLoopAni );

  00015	8d 86 10 11 00
	00		 lea	 eax, DWORD PTR [esi+4368]
  0001b	50		 push	 eax
  0001c	8b cf		 mov	 ecx, edi
  0001e	ff 15 00 00 00
	00		 call	 DWORD PTR __imp_?GetAnimationIdx@ioEntityGroup@@QAEHABVioHashString@@@Z
  00024	89 45 08	 mov	 DWORD PTR _nAniID$[ebp], eax

; 665  : 	if( nAniID == -1 )	

  00027	83 f8 ff	 cmp	 eax, -1
  0002a	0f 84 a1 00 00
	00		 je	 $LN7@SetAimStat

; 666  : 		return;
; 667  : 
; 668  : 	pGrp->ClearAllLoopAni( 100.f, true );

  00030	f3 0f 10 05 00
	00 00 00	 movss	 xmm0, DWORD PTR __real@42c80000
  00038	6a 01		 push	 1
  0003a	51		 push	 ecx
  0003b	8b cf		 mov	 ecx, edi
  0003d	f3 0f 11 04 24	 movss	 DWORD PTR [esp], xmm0
  00042	ff 15 00 00 00
	00		 call	 DWORD PTR __imp_?ClearAllLoopAni@ioEntityGroup@@QAEXM_N@Z

; 669  : 	pGrp->ClearAllActionAni( 100.f, true );

  00048	f3 0f 10 05 00
	00 00 00	 movss	 xmm0, DWORD PTR __real@42c80000
  00050	6a 01		 push	 1
  00052	51		 push	 ecx
  00053	8b cf		 mov	 ecx, edi
  00055	f3 0f 11 04 24	 movss	 DWORD PTR [esp], xmm0
  0005a	ff 15 00 00 00
	00		 call	 DWORD PTR __imp_?ClearAllActionAni@ioEntityGroup@@QAEXM_N@Z

; 670  : 
; 671  : 	pGrp->SetLoopAni( nAniID, 100.0f, 1.0f, 1.0f/m_fAimLoopAniRate );

  00060	0f 57 c0	 xorps	 xmm0, xmm0
  00063	f2 0f 10 0d 00
	00 00 00	 movsd	 xmm1, QWORD PTR __real@3ff0000000000000
  0006b	83 ec 10	 sub	 esp, 16			; 00000010H
  0006e	f3 0f 11 44 24
	0c		 movss	 DWORD PTR [esp+12], xmm0
  00074	f3 0f 10 86 20
	11 00 00	 movss	 xmm0, DWORD PTR [esi+4384]
  0007c	0f 5a c0	 cvtps2pd xmm0, xmm0
  0007f	f2 0f 5e c8	 divsd	 xmm1, xmm0
  00083	8b cf		 mov	 ecx, edi
  00085	66 0f 5a c1	 cvtpd2ps xmm0, xmm1
  00089	f3 0f 11 44 24
	08		 movss	 DWORD PTR [esp+8], xmm0
  0008f	f3 0f 10 05 00
	00 00 00	 movss	 xmm0, DWORD PTR __real@3f800000
  00097	f3 0f 11 44 24
	04		 movss	 DWORD PTR [esp+4], xmm0
  0009d	f3 0f 10 05 00
	00 00 00	 movss	 xmm0, DWORD PTR __real@42c80000
  000a5	f3 0f 11 04 24	 movss	 DWORD PTR [esp], xmm0
  000aa	ff 75 08	 push	 DWORD PTR _nAniID$[ebp]
  000ad	ff 15 00 00 00
	00		 call	 DWORD PTR __imp_?SetLoopAni@ioEntityGroup@@QAE_NHMMMM@Z

; 672  : 
; 673  : 	m_SkillState = SS_AIM;

  000b3	c7 86 28 13 00
	00 01 00 00 00	 mov	 DWORD PTR [esi+4904], 1

; 674  : 
; 675  : 	m_dwCheckAttackTime = FRAMEGETTIME();

  000bd	ff 15 00 00 00
	00		 call	 DWORD PTR __imp_?GetSingleton@ioFrameTimer@@SAAAV1@XZ
  000c3	8b c8		 mov	 ecx, eax
  000c5	ff 15 00 00 00
	00		 call	 DWORD PTR __imp_?GetLoopSec@ioFrameTimer@@QBEKXZ
  000cb	89 86 cc 13 00
	00		 mov	 DWORD PTR [esi+5068], eax
$LN7@SetAimStat:
  000d1	5f		 pop	 edi
$LN3@SetAimStat:
  000d2	5e		 pop	 esi

; 676  : }

  000d3	5d		 pop	 ebp
  000d4	c2 04 00	 ret	 4
?SetAimState@ioTargetTimingAttackSkill@@IAEXPAVioBaseChar@@@Z ENDP ; ioTargetTimingAttackSkill::SetAimState
_TEXT	ENDS
PUBLIC	_pStage$GSCopy$
PUBLIC	_this$GSCopy$
PUBLIC	__$ArrayPad$
PUBLIC	?SetTeleport@ioTargetTimingAttackSkill@@IAEXPAVioBaseChar@@PAVioPlayStage@@@Z ; ioTargetTimingAttackSkill::SetTeleport
EXTRN	?GetMapHeightOnlyTerrain@ioPlayStage@@QAEMMMM@Z:PROC ; ioPlayStage::GetMapHeightOnlyTerrain
; Function compile flags: /Ogsp
;	COMDAT ?SetTeleport@ioTargetTimingAttackSkill@@IAEXPAVioBaseChar@@PAVioPlayStage@@@Z
_TEXT	SEGMENT
_pStage$GSCopy$ = -48					; size = 4
_this$GSCopy$ = -44					; size = 4
_fMapHeight$ = -44					; size = 4
$T549060 = -40						; size = 12
$T549061 = -28						; size = 12
$T549056 = -28						; size = 12
_vNewPos$ = -16						; size = 12
__$ArrayPad$ = -4					; size = 4
_pChar$ = 8						; size = 4
_pStage$ = 12						; size = 4
?SetTeleport@ioTargetTimingAttackSkill@@IAEXPAVioBaseChar@@PAVioPlayStage@@@Z PROC ; ioTargetTimingAttackSkill::SetTeleport, COMDAT
; _this$ = ecx

; 679  : {

  00000	55		 push	 ebp
  00001	8b ec		 mov	 ebp, esp
  00003	83 ec 30	 sub	 esp, 48			; 00000030H
  00006	a1 00 00 00 00	 mov	 eax, DWORD PTR ___security_cookie
  0000b	33 c5		 xor	 eax, ebp
  0000d	89 45 fc	 mov	 DWORD PTR __$ArrayPad$[ebp], eax
  00010	8b 45 0c	 mov	 eax, DWORD PTR _pStage$[ebp]
  00013	53		 push	 ebx
  00014	8b 5d 08	 mov	 ebx, DWORD PTR _pChar$[ebp]
  00017	56		 push	 esi
  00018	8b f1		 mov	 esi, ecx

; 693  : 
; 694  : 	pChar->SetWorldPosition( vNewPos );

  0001a	89 75 d4	 mov	 DWORD PTR _this$GSCopy$[ebp], esi
  0001d	89 45 d0	 mov	 DWORD PTR _pStage$GSCopy$[ebp], eax
  00020	85 db		 test	 ebx, ebx
  00022	0f 84 87 01 00
	00		 je	 $LN3@SetTelepor

; 680  : 	if ( !pChar || !pStage )

  00028	85 c0		 test	 eax, eax
  0002a	0f 84 7f 01 00
	00		 je	 $LN3@SetTelepor

; 681  : 		return;
; 682  : 	
; 683  : 	DestroyEffect( pChar, pStage, m_dwMakerID );

  00030	57		 push	 edi
  00031	8d 8e 54 13 00
	00		 lea	 ecx, DWORD PTR [esi+4948]
  00037	51		 push	 ecx
  00038	50		 push	 eax
  00039	53		 push	 ebx
  0003a	8b ce		 mov	 ecx, esi
  0003c	e8 00 00 00 00	 call	 ?DestroyEffect@ioTargetTimingAttackSkill@@IAEXPAVioBaseChar@@PAVioPlayStage@@AAK@Z ; ioTargetTimingAttackSkill::DestroyEffect

; 684  : 
; 685  : 	D3DXVECTOR3 vNewPos = pChar->GetWorldPosition() + pChar->GetWorldOrientation() * m_vNoTargetTeleportOffset;

  00041	8d 86 0c 13 00
	00		 lea	 eax, DWORD PTR [esi+4876]
  00047	50		 push	 eax
  00048	8b 03		 mov	 eax, DWORD PTR [ebx]
  0004a	8b cb		 mov	 ecx, ebx
  0004c	ff 50 74	 call	 DWORD PTR [eax+116]
  0004f	50		 push	 eax
  00050	8d 45 e4	 lea	 eax, DWORD PTR $T549056[ebp]
  00053	50		 push	 eax
  00054	ff 15 00 00 00
	00		 call	 DWORD PTR __imp_??D@YA?AUD3DXVECTOR3@@ABUD3DXQUATERNION@@ABU0@@Z
  0005a	8b f8		 mov	 edi, eax
  0005c	8b 03		 mov	 eax, DWORD PTR [ebx]
  0005e	83 c4 0c	 add	 esp, 12			; 0000000cH
  00061	8b cb		 mov	 ecx, ebx
  00063	ff 50 70	 call	 DWORD PTR [eax+112]
  00066	f3 0f 10 48 04	 movss	 xmm1, DWORD PTR [eax+4]
  0006b	f3 0f 10 47 04	 movss	 xmm0, DWORD PTR [edi+4]
  00070	f3 0f 10 50 08	 movss	 xmm2, DWORD PTR [eax+8]
  00075	f3 0f 10 18	 movss	 xmm3, DWORD PTR [eax]
  00079	0f 5a c9	 cvtps2pd xmm1, xmm1
  0007c	0f 5a c0	 cvtps2pd xmm0, xmm0
  0007f	f2 0f 58 c1	 addsd	 xmm0, xmm1
  00083	f3 0f 10 4f 08	 movss	 xmm1, DWORD PTR [edi+8]
  00088	0f 5a d2	 cvtps2pd xmm2, xmm2
  0008b	0f 5a c9	 cvtps2pd xmm1, xmm1
  0008e	f2 0f 58 ca	 addsd	 xmm1, xmm2
  00092	f3 0f 10 17	 movss	 xmm2, DWORD PTR [edi]
  00096	0f 5a d2	 cvtps2pd xmm2, xmm2
  00099	0f 5a db	 cvtps2pd xmm3, xmm3

; 686  : 	ioBaseChar *pTarget = pChar->GetBaseChar( m_szAimedTarget );

  0009c	8d 86 3c 13 00
	00		 lea	 eax, DWORD PTR [esi+4924]
  000a2	f2 0f 58 d3	 addsd	 xmm2, xmm3
  000a6	66 0f 5a c0	 cvtpd2ps xmm0, xmm0
  000aa	66 0f 5a c9	 cvtpd2ps xmm1, xmm1
  000ae	66 0f 5a d2	 cvtpd2ps xmm2, xmm2
  000b2	50		 push	 eax
  000b3	8b cb		 mov	 ecx, ebx
  000b5	f3 0f 11 55 f0	 movss	 DWORD PTR _vNewPos$[ebp], xmm2
  000ba	f3 0f 11 45 f4	 movss	 DWORD PTR _vNewPos$[ebp+4], xmm0
  000bf	f3 0f 11 4d f8	 movss	 DWORD PTR _vNewPos$[ebp+8], xmm1
  000c4	e8 00 00 00 00	 call	 ?GetBaseChar@ioBaseChar@@QAEPAV1@ABVioHashString@@@Z ; ioBaseChar::GetBaseChar
  000c9	8b f8		 mov	 edi, eax

; 687  : 	if( pTarget )

  000cb	85 ff		 test	 edi, edi
  000cd	0f 84 86 00 00
	00		 je	 $LN2@SetTelepor

; 688  : 		vNewPos = pTarget->GetWorldPosition() + pChar->GetWorldOrientation() * m_vTargetTeleportOffset;

  000d3	8b 03		 mov	 eax, DWORD PTR [ebx]
  000d5	81 c6 18 13 00
	00		 add	 esi, 4888		; 00001318H
  000db	56		 push	 esi
  000dc	8b cb		 mov	 ecx, ebx
  000de	ff 50 74	 call	 DWORD PTR [eax+116]
  000e1	50		 push	 eax
  000e2	8d 45 d8	 lea	 eax, DWORD PTR $T549060[ebp]
  000e5	50		 push	 eax
  000e6	ff 15 00 00 00
	00		 call	 DWORD PTR __imp_??D@YA?AUD3DXVECTOR3@@ABUD3DXQUATERNION@@ABU0@@Z
  000ec	8b f0		 mov	 esi, eax
  000ee	8b 07		 mov	 eax, DWORD PTR [edi]
  000f0	83 c4 0c	 add	 esp, 12			; 0000000cH
  000f3	8b cf		 mov	 ecx, edi
  000f5	ff 50 70	 call	 DWORD PTR [eax+112]
  000f8	f3 0f 10 06	 movss	 xmm0, DWORD PTR [esi]
  000fc	f3 0f 10 08	 movss	 xmm1, DWORD PTR [eax]
  00100	0f 5a c0	 cvtps2pd xmm0, xmm0
  00103	0f 5a c9	 cvtps2pd xmm1, xmm1
  00106	f2 0f 58 c1	 addsd	 xmm0, xmm1
  0010a	f3 0f 10 48 04	 movss	 xmm1, DWORD PTR [eax+4]
  0010f	66 0f 5a c0	 cvtpd2ps xmm0, xmm0
  00113	f3 0f 11 45 e4	 movss	 DWORD PTR $T549061[ebp], xmm0
  00118	f3 0f 10 46 04	 movss	 xmm0, DWORD PTR [esi+4]
  0011d	0f 5a c0	 cvtps2pd xmm0, xmm0
  00120	0f 5a c9	 cvtps2pd xmm1, xmm1
  00123	f2 0f 58 c1	 addsd	 xmm0, xmm1
  00127	f3 0f 10 48 08	 movss	 xmm1, DWORD PTR [eax+8]
  0012c	66 0f 5a c0	 cvtpd2ps xmm0, xmm0
  00130	f3 0f 11 45 e8	 movss	 DWORD PTR $T549061[ebp+4], xmm0
  00135	f3 0f 10 46 08	 movss	 xmm0, DWORD PTR [esi+8]
  0013a	0f 5a c0	 cvtps2pd xmm0, xmm0
  0013d	0f 5a c9	 cvtps2pd xmm1, xmm1
  00140	f2 0f 58 c1	 addsd	 xmm0, xmm1
  00144	66 0f 5a c0	 cvtpd2ps xmm0, xmm0
  00148	f3 0f 11 45 ec	 movss	 DWORD PTR $T549061[ebp+8], xmm0
  0014d	8d 75 e4	 lea	 esi, DWORD PTR $T549061[ebp]
  00150	8d 7d f0	 lea	 edi, DWORD PTR _vNewPos$[ebp]
  00153	a5		 movsd
  00154	a5		 movsd
  00155	a5		 movsd
  00156	8b 75 d4	 mov	 esi, DWORD PTR _this$GSCopy$[ebp]
$LN2@SetTelepor:

; 689  : 
; 690  : 	float fMapHeight = pStage->GetMapHeightOnlyTerrain( vNewPos.x, vNewPos.z );

  00159	0f 57 c0	 xorps	 xmm0, xmm0
  0015c	8b 4d d0	 mov	 ecx, DWORD PTR _pStage$GSCopy$[ebp]
  0015f	83 ec 0c	 sub	 esp, 12			; 0000000cH
  00162	f3 0f 11 44 24
	08		 movss	 DWORD PTR [esp+8], xmm0
  00168	f3 0f 10 45 f8	 movss	 xmm0, DWORD PTR _vNewPos$[ebp+8]
  0016d	f3 0f 11 44 24
	04		 movss	 DWORD PTR [esp+4], xmm0
  00173	f3 0f 10 45 f0	 movss	 xmm0, DWORD PTR _vNewPos$[ebp]
  00178	f3 0f 11 04 24	 movss	 DWORD PTR [esp], xmm0
  0017d	e8 00 00 00 00	 call	 ?GetMapHeightOnlyTerrain@ioPlayStage@@QAEMMMM@Z ; ioPlayStage::GetMapHeightOnlyTerrain
  00182	d9 5d d4	 fstp	 DWORD PTR _fMapHeight$[ebp]

; 691  : 	if ( vNewPos.y <= fMapHeight )

  00185	d9 45 f4	 fld	 DWORD PTR _vNewPos$[ebp+4]
  00188	5f		 pop	 edi
  00189	d9 45 d4	 fld	 DWORD PTR _fMapHeight$[ebp]
  0018c	df f1		 fcomip	 ST(1)
  0018e	dd d8		 fstp	 ST(0)
  00190	72 0a		 jb	 SHORT $LN1@SetTelepor

; 692  : 		vNewPos.y = fMapHeight;

  00192	f3 0f 10 45 d4	 movss	 xmm0, DWORD PTR _fMapHeight$[ebp]
  00197	f3 0f 11 45 f4	 movss	 DWORD PTR _vNewPos$[ebp+4], xmm0
$LN1@SetTelepor:

; 693  : 
; 694  : 	pChar->SetWorldPosition( vNewPos );

  0019c	8b 03		 mov	 eax, DWORD PTR [ebx]
  0019e	8d 4d f0	 lea	 ecx, DWORD PTR _vNewPos$[ebp]
  001a1	51		 push	 ecx
  001a2	8b cb		 mov	 ecx, ebx
  001a4	ff 50 44	 call	 DWORD PTR [eax+68]

; 695  : 
; 696  : 	SetTargetRotation( pChar );

  001a7	53		 push	 ebx
  001a8	8b ce		 mov	 ecx, esi
  001aa	e8 00 00 00 00	 call	 ?SetTargetRotation@ioTargetTimingAttackSkill@@IAEXPAVioBaseChar@@@Z ; ioTargetTimingAttackSkill::SetTargetRotation
$LN3@SetTelepor:

; 697  : }

  001af	8b 4d fc	 mov	 ecx, DWORD PTR __$ArrayPad$[ebp]
  001b2	5e		 pop	 esi
  001b3	33 cd		 xor	 ecx, ebp
  001b5	5b		 pop	 ebx
  001b6	e8 00 00 00 00	 call	 @__security_check_cookie@4
  001bb	c9		 leave
  001bc	c2 08 00	 ret	 8
?SetTeleport@ioTargetTimingAttackSkill@@IAEXPAVioBaseChar@@PAVioPlayStage@@@Z ENDP ; ioTargetTimingAttackSkill::SetTeleport
_TEXT	ENDS
PUBLIC	?begin@?$vector@PAVioBaseChar@@V?$allocator@PAVioBaseChar@@@std@@@std@@QBE?AV?$_Vector_const_iterator@V?$_Vector_val@PAVioBaseChar@@V?$allocator@PAVioBaseChar@@@std@@@std@@@2@XZ ; std::vector<ioBaseChar *,std::allocator<ioBaseChar *> >::begin
; Function compile flags: /Ogsp
; File c:\program files (x86)\microsoft visual studio 10.0\vc\include\vector
;	COMDAT ?begin@?$vector@PAVioBaseChar@@V?$allocator@PAVioBaseChar@@@std@@@std@@QBE?AV?$_Vector_const_iterator@V?$_Vector_val@PAVioBaseChar@@V?$allocator@PAVioBaseChar@@@std@@@std@@@2@XZ
_TEXT	SEGMENT
___$ReturnUdt$ = 8					; size = 4
?begin@?$vector@PAVioBaseChar@@V?$allocator@PAVioBaseChar@@@std@@@std@@QBE?AV?$_Vector_const_iterator@V?$_Vector_val@PAVioBaseChar@@V?$allocator@PAVioBaseChar@@@std@@@std@@@2@XZ PROC ; std::vector<ioBaseChar *,std::allocator<ioBaseChar *> >::begin, COMDAT
; _this$ = ecx

; 786  : 		{	// return iterator for beginning of nonmutable sequence

  00000	55		 push	 ebp
  00001	8b ec		 mov	 ebp, esp

; 787  : 		return (const_iterator(this->_Myfirst, this));

  00003	8b 09		 mov	 ecx, DWORD PTR [ecx]
  00005	8b 45 08	 mov	 eax, DWORD PTR ___$ReturnUdt$[ebp]
  00008	89 08		 mov	 DWORD PTR [eax], ecx

; 788  : 		}

  0000a	5d		 pop	 ebp
  0000b	c2 04 00	 ret	 4
?begin@?$vector@PAVioBaseChar@@V?$allocator@PAVioBaseChar@@@std@@@std@@QBE?AV?$_Vector_const_iterator@V?$_Vector_val@PAVioBaseChar@@V?$allocator@PAVioBaseChar@@@std@@@std@@@2@XZ ENDP ; std::vector<ioBaseChar *,std::allocator<ioBaseChar *> >::begin
_TEXT	ENDS
PUBLIC	?end@?$vector@PAVioBaseChar@@V?$allocator@PAVioBaseChar@@@std@@@std@@QBE?AV?$_Vector_const_iterator@V?$_Vector_val@PAVioBaseChar@@V?$allocator@PAVioBaseChar@@@std@@@std@@@2@XZ ; std::vector<ioBaseChar *,std::allocator<ioBaseChar *> >::end
; Function compile flags: /Ogsp
;	COMDAT ?end@?$vector@PAVioBaseChar@@V?$allocator@PAVioBaseChar@@@std@@@std@@QBE?AV?$_Vector_const_iterator@V?$_Vector_val@PAVioBaseChar@@V?$allocator@PAVioBaseChar@@@std@@@std@@@2@XZ
_TEXT	SEGMENT
___$ReturnUdt$ = 8					; size = 4
?end@?$vector@PAVioBaseChar@@V?$allocator@PAVioBaseChar@@@std@@@std@@QBE?AV?$_Vector_const_iterator@V?$_Vector_val@PAVioBaseChar@@V?$allocator@PAVioBaseChar@@@std@@@std@@@2@XZ PROC ; std::vector<ioBaseChar *,std::allocator<ioBaseChar *> >::end, COMDAT
; _this$ = ecx

; 796  : 		{	// return iterator for end of nonmutable sequence

  00000	55		 push	 ebp
  00001	8b ec		 mov	 ebp, esp

; 797  : 		return (const_iterator(this->_Mylast, this));

  00003	8b 49 04	 mov	 ecx, DWORD PTR [ecx+4]
  00006	8b 45 08	 mov	 eax, DWORD PTR ___$ReturnUdt$[ebp]
  00009	89 08		 mov	 DWORD PTR [eax], ecx

; 798  : 		}

  0000b	5d		 pop	 ebp
  0000c	c2 04 00	 ret	 4
?end@?$vector@PAVioBaseChar@@V?$allocator@PAVioBaseChar@@@std@@@std@@QBE?AV?$_Vector_const_iterator@V?$_Vector_val@PAVioBaseChar@@V?$allocator@PAVioBaseChar@@@std@@@std@@@2@XZ ENDP ; std::vector<ioBaseChar *,std::allocator<ioBaseChar *> >::end
_TEXT	ENDS
PUBLIC	?begin@?$vector@UWeaponInfo@@V?$allocator@UWeaponInfo@@@std@@@std@@QBE?AV?$_Vector_const_iterator@V?$_Vector_val@UWeaponInfo@@V?$allocator@UWeaponInfo@@@std@@@std@@@2@XZ ; std::vector<WeaponInfo,std::allocator<WeaponInfo> >::begin
; Function compile flags: /Ogsp
;	COMDAT ?begin@?$vector@UWeaponInfo@@V?$allocator@UWeaponInfo@@@std@@@std@@QBE?AV?$_Vector_const_iterator@V?$_Vector_val@UWeaponInfo@@V?$allocator@UWeaponInfo@@@std@@@std@@@2@XZ
_TEXT	SEGMENT
___$ReturnUdt$ = 8					; size = 4
?begin@?$vector@UWeaponInfo@@V?$allocator@UWeaponInfo@@@std@@@std@@QBE?AV?$_Vector_const_iterator@V?$_Vector_val@UWeaponInfo@@V?$allocator@UWeaponInfo@@@std@@@std@@@2@XZ PROC ; std::vector<WeaponInfo,std::allocator<WeaponInfo> >::begin, COMDAT
; _this$ = ecx

; 786  : 		{	// return iterator for beginning of nonmutable sequence

  00000	55		 push	 ebp
  00001	8b ec		 mov	 ebp, esp

; 787  : 		return (const_iterator(this->_Myfirst, this));

  00003	8b 09		 mov	 ecx, DWORD PTR [ecx]
  00005	8b 45 08	 mov	 eax, DWORD PTR ___$ReturnUdt$[ebp]
  00008	89 08		 mov	 DWORD PTR [eax], ecx

; 788  : 		}

  0000a	5d		 pop	 ebp
  0000b	c2 04 00	 ret	 4
?begin@?$vector@UWeaponInfo@@V?$allocator@UWeaponInfo@@@std@@@std@@QBE?AV?$_Vector_const_iterator@V?$_Vector_val@UWeaponInfo@@V?$allocator@UWeaponInfo@@@std@@@std@@@2@XZ ENDP ; std::vector<WeaponInfo,std::allocator<WeaponInfo> >::begin
_TEXT	ENDS
PUBLIC	?end@?$vector@UWeaponInfo@@V?$allocator@UWeaponInfo@@@std@@@std@@QBE?AV?$_Vector_const_iterator@V?$_Vector_val@UWeaponInfo@@V?$allocator@UWeaponInfo@@@std@@@std@@@2@XZ ; std::vector<WeaponInfo,std::allocator<WeaponInfo> >::end
; Function compile flags: /Ogsp
;	COMDAT ?end@?$vector@UWeaponInfo@@V?$allocator@UWeaponInfo@@@std@@@std@@QBE?AV?$_Vector_const_iterator@V?$_Vector_val@UWeaponInfo@@V?$allocator@UWeaponInfo@@@std@@@std@@@2@XZ
_TEXT	SEGMENT
___$ReturnUdt$ = 8					; size = 4
?end@?$vector@UWeaponInfo@@V?$allocator@UWeaponInfo@@@std@@@std@@QBE?AV?$_Vector_const_iterator@V?$_Vector_val@UWeaponInfo@@V?$allocator@UWeaponInfo@@@std@@@std@@@2@XZ PROC ; std::vector<WeaponInfo,std::allocator<WeaponInfo> >::end, COMDAT
; _this$ = ecx

; 796  : 		{	// return iterator for end of nonmutable sequence

  00000	55		 push	 ebp
  00001	8b ec		 mov	 ebp, esp

; 797  : 		return (const_iterator(this->_Mylast, this));

  00003	8b 49 04	 mov	 ecx, DWORD PTR [ecx+4]
  00006	8b 45 08	 mov	 eax, DWORD PTR ___$ReturnUdt$[ebp]
  00009	89 08		 mov	 DWORD PTR [eax], ecx

; 798  : 		}

  0000b	5d		 pop	 ebp
  0000c	c2 04 00	 ret	 4
?end@?$vector@UWeaponInfo@@V?$allocator@UWeaponInfo@@@std@@@std@@QBE?AV?$_Vector_const_iterator@V?$_Vector_val@UWeaponInfo@@V?$allocator@UWeaponInfo@@@std@@@std@@@2@XZ ENDP ; std::vector<WeaponInfo,std::allocator<WeaponInfo> >::end
_TEXT	ENDS
PUBLIC	?begin@?$vector@UForceInfo@@V?$allocator@UForceInfo@@@std@@@std@@QBE?AV?$_Vector_const_iterator@V?$_Vector_val@UForceInfo@@V?$allocator@UForceInfo@@@std@@@std@@@2@XZ ; std::vector<ForceInfo,std::allocator<ForceInfo> >::begin
; Function compile flags: /Ogsp
;	COMDAT ?begin@?$vector@UForceInfo@@V?$allocator@UForceInfo@@@std@@@std@@QBE?AV?$_Vector_const_iterator@V?$_Vector_val@UForceInfo@@V?$allocator@UForceInfo@@@std@@@std@@@2@XZ
_TEXT	SEGMENT
___$ReturnUdt$ = 8					; size = 4
?begin@?$vector@UForceInfo@@V?$allocator@UForceInfo@@@std@@@std@@QBE?AV?$_Vector_const_iterator@V?$_Vector_val@UForceInfo@@V?$allocator@UForceInfo@@@std@@@std@@@2@XZ PROC ; std::vector<ForceInfo,std::allocator<ForceInfo> >::begin, COMDAT
; _this$ = ecx

; 786  : 		{	// return iterator for beginning of nonmutable sequence

  00000	55		 push	 ebp
  00001	8b ec		 mov	 ebp, esp

; 787  : 		return (const_iterator(this->_Myfirst, this));

  00003	8b 09		 mov	 ecx, DWORD PTR [ecx]
  00005	8b 45 08	 mov	 eax, DWORD PTR ___$ReturnUdt$[ebp]
  00008	89 08		 mov	 DWORD PTR [eax], ecx

; 788  : 		}

  0000a	5d		 pop	 ebp
  0000b	c2 04 00	 ret	 4
?begin@?$vector@UForceInfo@@V?$allocator@UForceInfo@@@std@@@std@@QBE?AV?$_Vector_const_iterator@V?$_Vector_val@UForceInfo@@V?$allocator@UForceInfo@@@std@@@std@@@2@XZ ENDP ; std::vector<ForceInfo,std::allocator<ForceInfo> >::begin
_TEXT	ENDS
PUBLIC	?end@?$vector@UForceInfo@@V?$allocator@UForceInfo@@@std@@@std@@QBE?AV?$_Vector_const_iterator@V?$_Vector_val@UForceInfo@@V?$allocator@UForceInfo@@@std@@@std@@@2@XZ ; std::vector<ForceInfo,std::allocator<ForceInfo> >::end
; Function compile flags: /Ogsp
;	COMDAT ?end@?$vector@UForceInfo@@V?$allocator@UForceInfo@@@std@@@std@@QBE?AV?$_Vector_const_iterator@V?$_Vector_val@UForceInfo@@V?$allocator@UForceInfo@@@std@@@std@@@2@XZ
_TEXT	SEGMENT
___$ReturnUdt$ = 8					; size = 4
?end@?$vector@UForceInfo@@V?$allocator@UForceInfo@@@std@@@std@@QBE?AV?$_Vector_const_iterator@V?$_Vector_val@UForceInfo@@V?$allocator@UForceInfo@@@std@@@std@@@2@XZ PROC ; std::vector<ForceInfo,std::allocator<ForceInfo> >::end, COMDAT
; _this$ = ecx

; 796  : 		{	// return iterator for end of nonmutable sequence

  00000	55		 push	 ebp
  00001	8b ec		 mov	 ebp, esp

; 797  : 		return (const_iterator(this->_Mylast, this));

  00003	8b 49 04	 mov	 ecx, DWORD PTR [ecx+4]
  00006	8b 45 08	 mov	 eax, DWORD PTR ___$ReturnUdt$[ebp]
  00009	89 08		 mov	 DWORD PTR [eax], ecx

; 798  : 		}

  0000b	5d		 pop	 ebp
  0000c	c2 04 00	 ret	 4
?end@?$vector@UForceInfo@@V?$allocator@UForceInfo@@@std@@@std@@QBE?AV?$_Vector_const_iterator@V?$_Vector_val@UForceInfo@@V?$allocator@UForceInfo@@@std@@@std@@@2@XZ ENDP ; std::vector<ForceInfo,std::allocator<ForceInfo> >::end
_TEXT	ENDS
PUBLIC	??0?$_Vector_val@UtagBaseCharHP@@V?$allocator@UtagBaseCharHP@@@std@@@std@@QAE@V?$allocator@UtagBaseCharHP@@@1@@Z ; std::_Vector_val<tagBaseCharHP,std::allocator<tagBaseCharHP> >::_Vector_val<tagBaseCharHP,std::allocator<tagBaseCharHP> >
; Function compile flags: /Ogsp
;	COMDAT ??0?$_Vector_val@UtagBaseCharHP@@V?$allocator@UtagBaseCharHP@@@std@@@std@@QAE@V?$allocator@UtagBaseCharHP@@@1@@Z
_TEXT	SEGMENT
__Al$ = 8						; size = 1
??0?$_Vector_val@UtagBaseCharHP@@V?$allocator@UtagBaseCharHP@@@std@@@std@@QAE@V?$allocator@UtagBaseCharHP@@@1@@Z PROC ; std::_Vector_val<tagBaseCharHP,std::allocator<tagBaseCharHP> >::_Vector_val<tagBaseCharHP,std::allocator<tagBaseCharHP> >, COMDAT
; _this$ = ecx

; 426  : 		{	// construct allocator from _Al

  00000	8b c1		 mov	 eax, ecx

; 427  : 		_Myfirst = 0;

  00002	33 c9		 xor	 ecx, ecx
  00004	89 08		 mov	 DWORD PTR [eax], ecx

; 428  : 		_Mylast = 0;

  00006	89 48 04	 mov	 DWORD PTR [eax+4], ecx

; 429  : 		_Myend = 0;

  00009	89 48 08	 mov	 DWORD PTR [eax+8], ecx

; 430  : 		}

  0000c	c2 04 00	 ret	 4
??0?$_Vector_val@UtagBaseCharHP@@V?$allocator@UtagBaseCharHP@@@std@@@std@@QAE@V?$allocator@UtagBaseCharHP@@@1@@Z ENDP ; std::_Vector_val<tagBaseCharHP,std::allocator<tagBaseCharHP> >::_Vector_val<tagBaseCharHP,std::allocator<tagBaseCharHP> >
_TEXT	ENDS
PUBLIC	??8?$_Vector_const_iterator@V?$_Vector_val@PAVioBaseChar@@V?$allocator@PAVioBaseChar@@@std@@@std@@@std@@QBE_NABV01@@Z ; std::_Vector_const_iterator<std::_Vector_val<ioBaseChar *,std::allocator<ioBaseChar *> > >::operator==
; Function compile flags: /Ogsp
;	COMDAT ??8?$_Vector_const_iterator@V?$_Vector_val@PAVioBaseChar@@V?$allocator@PAVioBaseChar@@@std@@@std@@@std@@QBE_NABV01@@Z
_TEXT	SEGMENT
__Right$ = 8						; size = 4
??8?$_Vector_const_iterator@V?$_Vector_val@PAVioBaseChar@@V?$allocator@PAVioBaseChar@@@std@@@std@@@std@@QBE_NABV01@@Z PROC ; std::_Vector_const_iterator<std::_Vector_val<ioBaseChar *,std::allocator<ioBaseChar *> > >::operator==, COMDAT
; _this$ = ecx

; 201  : 		{	// test for iterator equality

  00000	55		 push	 ebp
  00001	8b ec		 mov	 ebp, esp

; 202  : 		_Compat(_Right);
; 203  : 		return (this->_Ptr == _Right._Ptr);

  00003	8b 01		 mov	 eax, DWORD PTR [ecx]
  00005	8b 4d 08	 mov	 ecx, DWORD PTR __Right$[ebp]
  00008	2b 01		 sub	 eax, DWORD PTR [ecx]
  0000a	f7 d8		 neg	 eax
  0000c	1b c0		 sbb	 eax, eax
  0000e	40		 inc	 eax

; 204  : 		}

  0000f	5d		 pop	 ebp
  00010	c2 04 00	 ret	 4
??8?$_Vector_const_iterator@V?$_Vector_val@PAVioBaseChar@@V?$allocator@PAVioBaseChar@@@std@@@std@@@std@@QBE_NABV01@@Z ENDP ; std::_Vector_const_iterator<std::_Vector_val<ioBaseChar *,std::allocator<ioBaseChar *> > >::operator==
_TEXT	ENDS
PUBLIC	??0?$_Vector_iterator@V?$_Vector_val@UtagBaseCharHP@@V?$allocator@UtagBaseCharHP@@@std@@@std@@@std@@QAE@PAUtagBaseCharHP@@PBU_Container_base0@1@@Z ; std::_Vector_iterator<std::_Vector_val<tagBaseCharHP,std::allocator<tagBaseCharHP> > >::_Vector_iterator<std::_Vector_val<tagBaseCharHP,std::allocator<tagBaseCharHP> > >
; Function compile flags: /Ogsp
;	COMDAT ??0?$_Vector_iterator@V?$_Vector_val@UtagBaseCharHP@@V?$allocator@UtagBaseCharHP@@@std@@@std@@@std@@QAE@PAUtagBaseCharHP@@PBU_Container_base0@1@@Z
_TEXT	SEGMENT
__Parg$ = 8						; size = 4
__Pvector$ = 12						; size = 4
??0?$_Vector_iterator@V?$_Vector_val@UtagBaseCharHP@@V?$allocator@UtagBaseCharHP@@@std@@@std@@@std@@QAE@PAUtagBaseCharHP@@PBU_Container_base0@1@@Z PROC ; std::_Vector_iterator<std::_Vector_val<tagBaseCharHP,std::allocator<tagBaseCharHP> > >::_Vector_iterator<std::_Vector_val<tagBaseCharHP,std::allocator<tagBaseCharHP> > >, COMDAT
; _this$ = ecx

; 304  : 		{	// construct with pointer _Parg

  00000	55		 push	 ebp
  00001	8b ec		 mov	 ebp, esp
  00003	8b c1		 mov	 eax, ecx
  00005	8b 4d 08	 mov	 ecx, DWORD PTR __Parg$[ebp]
  00008	89 08		 mov	 DWORD PTR [eax], ecx

; 305  : 		}

  0000a	5d		 pop	 ebp
  0000b	c2 08 00	 ret	 8
??0?$_Vector_iterator@V?$_Vector_val@UtagBaseCharHP@@V?$allocator@UtagBaseCharHP@@@std@@@std@@@std@@QAE@PAUtagBaseCharHP@@PBU_Container_base0@1@@Z ENDP ; std::_Vector_iterator<std::_Vector_val<tagBaseCharHP,std::allocator<tagBaseCharHP> > >::_Vector_iterator<std::_Vector_val<tagBaseCharHP,std::allocator<tagBaseCharHP> > >
_TEXT	ENDS
PUBLIC	?_Make_iter@?$vector@UtagBaseCharHP@@V?$allocator@UtagBaseCharHP@@@std@@@std@@QBE?AV?$_Vector_iterator@V?$_Vector_val@UtagBaseCharHP@@V?$allocator@UtagBaseCharHP@@@std@@@std@@@2@V?$_Vector_const_iterator@V?$_Vector_val@UtagBaseCharHP@@V?$allocator@UtagBaseCharHP@@@std@@@std@@@2@@Z ; std::vector<tagBaseCharHP,std::allocator<tagBaseCharHP> >::_Make_iter
; Function compile flags: /Ogsp
;	COMDAT ?_Make_iter@?$vector@UtagBaseCharHP@@V?$allocator@UtagBaseCharHP@@@std@@@std@@QBE?AV?$_Vector_iterator@V?$_Vector_val@UtagBaseCharHP@@V?$allocator@UtagBaseCharHP@@@std@@@std@@@2@V?$_Vector_const_iterator@V?$_Vector_val@UtagBaseCharHP@@V?$allocator@UtagBaseCharHP@@@std@@@std@@@2@@Z
_TEXT	SEGMENT
___$ReturnUdt$ = 8					; size = 4
__Where$ = 12						; size = 4
?_Make_iter@?$vector@UtagBaseCharHP@@V?$allocator@UtagBaseCharHP@@@std@@@std@@QBE?AV?$_Vector_iterator@V?$_Vector_val@UtagBaseCharHP@@V?$allocator@UtagBaseCharHP@@@std@@@std@@@2@V?$_Vector_const_iterator@V?$_Vector_val@UtagBaseCharHP@@V?$allocator@UtagBaseCharHP@@@std@@@std@@@2@@Z PROC ; std::vector<tagBaseCharHP,std::allocator<tagBaseCharHP> >::_Make_iter, COMDAT
; _this$ = ecx

; 801  : 		{	// make iterator from const_iterator

  00000	55		 push	 ebp
  00001	8b ec		 mov	 ebp, esp

; 802  : 		return (iterator(_Where._Ptr, this));

  00003	8b 45 08	 mov	 eax, DWORD PTR ___$ReturnUdt$[ebp]
  00006	8b 4d 0c	 mov	 ecx, DWORD PTR __Where$[ebp]
  00009	89 08		 mov	 DWORD PTR [eax], ecx

; 803  : 		}

  0000b	5d		 pop	 ebp
  0000c	c2 08 00	 ret	 8
?_Make_iter@?$vector@UtagBaseCharHP@@V?$allocator@UtagBaseCharHP@@@std@@@std@@QBE?AV?$_Vector_iterator@V?$_Vector_val@UtagBaseCharHP@@V?$allocator@UtagBaseCharHP@@@std@@@std@@@2@V?$_Vector_const_iterator@V?$_Vector_val@UtagBaseCharHP@@V?$allocator@UtagBaseCharHP@@@std@@@std@@@2@@Z ENDP ; std::vector<tagBaseCharHP,std::allocator<tagBaseCharHP> >::_Make_iter
_TEXT	ENDS
PUBLIC	?max_size@?$vector@UtagBaseCharHP@@V?$allocator@UtagBaseCharHP@@@std@@@std@@QBEIXZ ; std::vector<tagBaseCharHP,std::allocator<tagBaseCharHP> >::max_size
; Function compile flags: /Ogsp
;	COMDAT ?max_size@?$vector@UtagBaseCharHP@@V?$allocator@UtagBaseCharHP@@@std@@@std@@QBEIXZ
_TEXT	SEGMENT
?max_size@?$vector@UtagBaseCharHP@@V?$allocator@UtagBaseCharHP@@@std@@@std@@QBEIXZ PROC ; std::vector<tagBaseCharHP,std::allocator<tagBaseCharHP> >::max_size, COMDAT
; _this$ = ecx

; 884  : 		return (this->_Alval.max_size());

  00000	b8 aa aa aa 0a	 mov	 eax, 178956970		; 0aaaaaaaH

; 885  : 		}

  00005	c3		 ret	 0
?max_size@?$vector@UtagBaseCharHP@@V?$allocator@UtagBaseCharHP@@@std@@@std@@QBEIXZ ENDP ; std::vector<tagBaseCharHP,std::allocator<tagBaseCharHP> >::max_size
_TEXT	ENDS
PUBLIC	?_Grow_to@?$vector@UtagBaseCharHP@@V?$allocator@UtagBaseCharHP@@@std@@@std@@IBEII@Z ; std::vector<tagBaseCharHP,std::allocator<tagBaseCharHP> >::_Grow_to
; Function compile flags: /Ogsp
;	COMDAT ?_Grow_to@?$vector@UtagBaseCharHP@@V?$allocator@UtagBaseCharHP@@@std@@@std@@IBEII@Z
_TEXT	SEGMENT
__Count$ = 8						; size = 4
?_Grow_to@?$vector@UtagBaseCharHP@@V?$allocator@UtagBaseCharHP@@@std@@@std@@IBEII@Z PROC ; std::vector<tagBaseCharHP,std::allocator<tagBaseCharHP> >::_Grow_to, COMDAT
; _this$ = ecx

; 1274 : 		{	// grow by 50% or at least to _Count

  00000	55		 push	 ebp
  00001	8b ec		 mov	 ebp, esp

; 1275 : 		size_type _Capacity = capacity();

  00003	8b 41 08	 mov	 eax, DWORD PTR [ecx+8]
  00006	2b 01		 sub	 eax, DWORD PTR [ecx]
  00008	6a 18		 push	 24			; 00000018H
  0000a	99		 cdq
  0000b	59		 pop	 ecx
  0000c	f7 f9		 idiv	 ecx

; 1276 : 
; 1277 : 		_Capacity = max_size() - _Capacity / 2 < _Capacity
; 1278 : 			? 0 : _Capacity + _Capacity / 2;	// try to grow by 50%

  0000e	ba aa aa aa 0a	 mov	 edx, 178956970		; 0aaaaaaaH
  00013	8b c8		 mov	 ecx, eax
  00015	d1 e9		 shr	 ecx, 1
  00017	2b d1		 sub	 edx, ecx
  00019	3b d0		 cmp	 edx, eax
  0001b	73 04		 jae	 SHORT $LN4@Grow_to
  0001d	33 c0		 xor	 eax, eax
  0001f	eb 02		 jmp	 SHORT $LN5@Grow_to
$LN4@Grow_to:
  00021	03 c1		 add	 eax, ecx
$LN5@Grow_to:

; 1279 : 		if (_Capacity < _Count)

  00023	3b 45 08	 cmp	 eax, DWORD PTR __Count$[ebp]

; 1280 : 			_Capacity = _Count;

  00026	0f 42 45 08	 cmovb	 eax, DWORD PTR __Count$[ebp]

; 1281 : 		return (_Capacity);
; 1282 : 		}

  0002a	5d		 pop	 ebp
  0002b	c2 04 00	 ret	 4
?_Grow_to@?$vector@UtagBaseCharHP@@V?$allocator@UtagBaseCharHP@@@std@@@std@@IBEII@Z ENDP ; std::vector<tagBaseCharHP,std::allocator<tagBaseCharHP> >::_Grow_to
_TEXT	ENDS
PUBLIC	?allocate@?$allocator@UtagBaseCharHP@@@std@@QAEPAUtagBaseCharHP@@I@Z ; std::allocator<tagBaseCharHP>::allocate
; Function compile flags: /Ogsp
; File c:\program files (x86)\microsoft visual studio 10.0\vc\include\xmemory
;	COMDAT ?allocate@?$allocator@UtagBaseCharHP@@@std@@QAEPAUtagBaseCharHP@@I@Z
_TEXT	SEGMENT
__Count$ = 8						; size = 4
?allocate@?$allocator@UtagBaseCharHP@@@std@@QAEPAUtagBaseCharHP@@I@Z PROC ; std::allocator<tagBaseCharHP>::allocate, COMDAT
; _this$ = ecx

; 186  : 		{	// allocate array of _Count elements

  00000	55		 push	 ebp
  00001	8b ec		 mov	 ebp, esp

; 187  : 		return (_Allocate(_Count, (pointer)0));

  00003	6a 00		 push	 0
  00005	ff 75 08	 push	 DWORD PTR __Count$[ebp]
  00008	e8 00 00 00 00	 call	 ??$_Allocate@UtagBaseCharHP@@@std@@YAPAUtagBaseCharHP@@IPAU1@@Z ; std::_Allocate<tagBaseCharHP>
  0000d	59		 pop	 ecx
  0000e	59		 pop	 ecx

; 188  : 		}

  0000f	5d		 pop	 ebp
  00010	c2 04 00	 ret	 4
?allocate@?$allocator@UtagBaseCharHP@@@std@@QAEPAUtagBaseCharHP@@I@Z ENDP ; std::allocator<tagBaseCharHP>::allocate
_TEXT	ENDS
PUBLIC	??8?$_Vector_const_iterator@V?$_Vector_val@UtagBaseCharHP@@V?$allocator@UtagBaseCharHP@@@std@@@std@@@std@@QBE_NABV01@@Z ; std::_Vector_const_iterator<std::_Vector_val<tagBaseCharHP,std::allocator<tagBaseCharHP> > >::operator==
; Function compile flags: /Ogsp
; File c:\program files (x86)\microsoft visual studio 10.0\vc\include\vector
;	COMDAT ??8?$_Vector_const_iterator@V?$_Vector_val@UtagBaseCharHP@@V?$allocator@UtagBaseCharHP@@@std@@@std@@@std@@QBE_NABV01@@Z
_TEXT	SEGMENT
__Right$ = 8						; size = 4
??8?$_Vector_const_iterator@V?$_Vector_val@UtagBaseCharHP@@V?$allocator@UtagBaseCharHP@@@std@@@std@@@std@@QBE_NABV01@@Z PROC ; std::_Vector_const_iterator<std::_Vector_val<tagBaseCharHP,std::allocator<tagBaseCharHP> > >::operator==, COMDAT
; _this$ = ecx

; 201  : 		{	// test for iterator equality

  00000	55		 push	 ebp
  00001	8b ec		 mov	 ebp, esp

; 202  : 		_Compat(_Right);
; 203  : 		return (this->_Ptr == _Right._Ptr);

  00003	8b 01		 mov	 eax, DWORD PTR [ecx]
  00005	8b 4d 08	 mov	 ecx, DWORD PTR __Right$[ebp]
  00008	2b 01		 sub	 eax, DWORD PTR [ecx]
  0000a	f7 d8		 neg	 eax
  0000c	1b c0		 sbb	 eax, eax
  0000e	40		 inc	 eax

; 204  : 		}

  0000f	5d		 pop	 ebp
  00010	c2 04 00	 ret	 4
??8?$_Vector_const_iterator@V?$_Vector_val@UtagBaseCharHP@@V?$allocator@UtagBaseCharHP@@@std@@@std@@@std@@QBE_NABV01@@Z ENDP ; std::_Vector_const_iterator<std::_Vector_val<tagBaseCharHP,std::allocator<tagBaseCharHP> > >::operator==
_TEXT	ENDS
PUBLIC	__$ArrayPad$
PUBLIC	??$LoadInt_e@$0BD@@ioINILoader@@QAEHAAY0BD@$$CBDH@Z ; ioINILoader::LoadInt_e<19>
EXTRN	__imp_?LoadInt@ioINILoader@@QAEHPBDH@Z:PROC
; Function compile flags: /Ogsp
; File d:\lost saga for developer\youtube\tutorial\source\src\io3dengine\ioiniloader.h
;	COMDAT ??$LoadInt_e@$0BD@@ioINILoader@@QAEHAAY0BD@$$CBDH@Z
_TEXT	SEGMENT
__k$ = -28						; size = 19
__$ArrayPad$ = -4					; size = 4
_k$ = 8							; size = 4
_i$ = 12						; size = 4
??$LoadInt_e@$0BD@@ioINILoader@@QAEHAAY0BD@$$CBDH@Z PROC ; ioINILoader::LoadInt_e<19>, COMDAT
; _this$ = ecx

; 118  : 	{

  00000	55		 push	 ebp
  00001	8b ec		 mov	 ebp, esp
  00003	83 ec 1c	 sub	 esp, 28			; 0000001cH
  00006	a1 00 00 00 00	 mov	 eax, DWORD PTR ___security_cookie
  0000b	33 c5		 xor	 eax, ebp
  0000d	89 45 fc	 mov	 DWORD PTR __$ArrayPad$[ebp], eax
  00010	8b 45 08	 mov	 eax, DWORD PTR _k$[ebp]

; 119  : 		_ENCSTR(k, _k);

  00013	8a 10		 mov	 dl, BYTE PTR [eax]
  00015	56		 push	 esi
  00016	8b f1		 mov	 esi, ecx
  00018	84 d2		 test	 dl, dl
  0001a	0f 84 cf 01 00
	00		 je	 $LN96@LoadInt_e
  00020	80 f2 ed	 xor	 dl, -19			; ffffffedH
  00023	88 55 e4	 mov	 BYTE PTR __k$[ebp], dl
  00026	8a 50 01	 mov	 dl, BYTE PTR [eax+1]
  00029	84 d2		 test	 dl, dl
  0002b	0f 84 b8 01 00
	00		 je	 $LN95@LoadInt_e
  00031	b1 ec		 mov	 cl, -20			; ffffffecH
  00033	32 d1		 xor	 dl, cl
  00035	88 55 e5	 mov	 BYTE PTR __k$[ebp+1], dl
  00038	8a 50 02	 mov	 dl, BYTE PTR [eax+2]
  0003b	84 d2		 test	 dl, dl
  0003d	0f 84 a0 01 00
	00		 je	 $LN94@LoadInt_e
  00043	80 f2 eb	 xor	 dl, -21			; ffffffebH
  00046	88 55 e6	 mov	 BYTE PTR __k$[ebp+2], dl
  00049	8a 50 03	 mov	 dl, BYTE PTR [eax+3]
  0004c	84 d2		 test	 dl, dl
  0004e	0f 84 89 01 00
	00		 je	 $LN93@LoadInt_e
  00054	80 f2 ea	 xor	 dl, -22			; ffffffeaH
  00057	88 55 e7	 mov	 BYTE PTR __k$[ebp+3], dl
  0005a	8a 50 04	 mov	 dl, BYTE PTR [eax+4]
  0005d	84 d2		 test	 dl, dl
  0005f	0f 84 72 01 00
	00		 je	 $LN92@LoadInt_e
  00065	80 f2 ed	 xor	 dl, -19			; ffffffedH
  00068	88 55 e8	 mov	 BYTE PTR __k$[ebp+4], dl
  0006b	8a 50 05	 mov	 dl, BYTE PTR [eax+5]
  0006e	84 d2		 test	 dl, dl
  00070	0f 84 5c 01 00
	00		 je	 $LN91@LoadInt_e
  00076	32 d1		 xor	 dl, cl
  00078	88 55 e9	 mov	 BYTE PTR __k$[ebp+5], dl
  0007b	8a 50 06	 mov	 dl, BYTE PTR [eax+6]
  0007e	84 d2		 test	 dl, dl
  00080	0f 84 46 01 00
	00		 je	 $LN90@LoadInt_e
  00086	80 f2 eb	 xor	 dl, -21			; ffffffebH
  00089	88 55 ea	 mov	 BYTE PTR __k$[ebp+6], dl
  0008c	8a 50 07	 mov	 dl, BYTE PTR [eax+7]
  0008f	84 d2		 test	 dl, dl
  00091	0f 84 2f 01 00
	00		 je	 $LN89@LoadInt_e
  00097	80 f2 ea	 xor	 dl, -22			; ffffffeaH
  0009a	88 55 eb	 mov	 BYTE PTR __k$[ebp+7], dl
  0009d	8a 50 08	 mov	 dl, BYTE PTR [eax+8]
  000a0	84 d2		 test	 dl, dl
  000a2	0f 84 18 01 00
	00		 je	 $LN88@LoadInt_e
  000a8	80 f2 ed	 xor	 dl, -19			; ffffffedH
  000ab	88 55 ec	 mov	 BYTE PTR __k$[ebp+8], dl
  000ae	8a 50 09	 mov	 dl, BYTE PTR [eax+9]
  000b1	84 d2		 test	 dl, dl
  000b3	0f 84 02 01 00
	00		 je	 $LN87@LoadInt_e
  000b9	32 d1		 xor	 dl, cl
  000bb	88 55 ed	 mov	 BYTE PTR __k$[ebp+9], dl
  000be	8a 50 0a	 mov	 dl, BYTE PTR [eax+10]
  000c1	84 d2		 test	 dl, dl
  000c3	0f 84 ec 00 00
	00		 je	 $LN86@LoadInt_e
  000c9	80 f2 eb	 xor	 dl, -21			; ffffffebH
  000cc	88 55 ee	 mov	 BYTE PTR __k$[ebp+10], dl
  000cf	8a 50 0b	 mov	 dl, BYTE PTR [eax+11]
  000d2	84 d2		 test	 dl, dl
  000d4	0f 84 d5 00 00
	00		 je	 $LN85@LoadInt_e
  000da	80 f2 ea	 xor	 dl, -22			; ffffffeaH
  000dd	88 55 ef	 mov	 BYTE PTR __k$[ebp+11], dl
  000e0	8a 50 0c	 mov	 dl, BYTE PTR [eax+12]
  000e3	84 d2		 test	 dl, dl
  000e5	0f 84 be 00 00
	00		 je	 $LN84@LoadInt_e
  000eb	80 f2 ed	 xor	 dl, -19			; ffffffedH
  000ee	88 55 f0	 mov	 BYTE PTR __k$[ebp+12], dl
  000f1	8a 50 0d	 mov	 dl, BYTE PTR [eax+13]
  000f4	84 d2		 test	 dl, dl
  000f6	0f 84 a8 00 00
	00		 je	 $LN83@LoadInt_e
  000fc	32 d1		 xor	 dl, cl
  000fe	88 55 f1	 mov	 BYTE PTR __k$[ebp+13], dl
  00101	8a 50 0e	 mov	 dl, BYTE PTR [eax+14]
  00104	84 d2		 test	 dl, dl
  00106	0f 84 92 00 00
	00		 je	 $LN82@LoadInt_e
  0010c	80 f2 eb	 xor	 dl, -21			; ffffffebH
  0010f	88 55 f2	 mov	 BYTE PTR __k$[ebp+14], dl
  00112	8a 50 0f	 mov	 dl, BYTE PTR [eax+15]
  00115	84 d2		 test	 dl, dl
  00117	74 7f		 je	 SHORT $LN81@LoadInt_e
  00119	80 f2 ea	 xor	 dl, -22			; ffffffeaH
  0011c	88 55 f3	 mov	 BYTE PTR __k$[ebp+15], dl
  0011f	8a 50 10	 mov	 dl, BYTE PTR [eax+16]
  00122	84 d2		 test	 dl, dl
  00124	74 6c		 je	 SHORT $LN80@LoadInt_e
  00126	80 f2 ed	 xor	 dl, -19			; ffffffedH
  00129	88 55 f4	 mov	 BYTE PTR __k$[ebp+16], dl
  0012c	8a 50 11	 mov	 dl, BYTE PTR [eax+17]
  0012f	84 d2		 test	 dl, dl
  00131	74 5a		 je	 SHORT $LN79@LoadInt_e
  00133	32 d1		 xor	 dl, cl
  00135	80 78 12 00	 cmp	 BYTE PTR [eax+18], 0
  00139	88 55 f5	 mov	 BYTE PTR __k$[ebp+17], dl
  0013c	0f 84 b1 00 00
	00		 je	 $LN1@LoadInt_e
  00142	8a 50 13	 mov	 dl, BYTE PTR [eax+19]
  00145	84 d2		 test	 dl, dl
  00147	74 3e		 je	 SHORT $LN77@LoadInt_e
  00149	80 f2 ea	 xor	 dl, -22			; ffffffeaH
  0014c	88 55 f7	 mov	 BYTE PTR __k$[ebp+19], dl
  0014f	8a 50 14	 mov	 dl, BYTE PTR [eax+20]
  00152	84 d2		 test	 dl, dl
  00154	74 2b		 je	 SHORT $LN76@LoadInt_e
  00156	80 f2 ed	 xor	 dl, -19			; ffffffedH
  00159	88 55 f8	 mov	 BYTE PTR __k$[ebp+20], dl
  0015c	8a 50 15	 mov	 dl, BYTE PTR [eax+21]
  0015f	84 d2		 test	 dl, dl
  00161	74 19		 je	 SHORT $LN75@LoadInt_e
  00163	8a 40 16	 mov	 al, BYTE PTR [eax+22]
  00166	32 d1		 xor	 dl, cl
  00168	88 55 f9	 mov	 BYTE PTR __k$[ebp+21], dl
  0016b	84 c0		 test	 al, al
  0016d	74 07		 je	 SHORT $LN74@LoadInt_e
  0016f	34 eb		 xor	 al, -21			; ffffffebH
  00171	88 45 fa	 mov	 BYTE PTR __k$[ebp+22], al
  00174	eb 7d		 jmp	 SHORT $LN1@LoadInt_e
$LN74@LoadInt_e:
  00176	c6 45 fa eb	 mov	 BYTE PTR __k$[ebp+22], -21 ; ffffffebH
  0017a	eb 77		 jmp	 SHORT $LN1@LoadInt_e
$LN75@LoadInt_e:
  0017c	88 4d f9	 mov	 BYTE PTR __k$[ebp+21], cl
  0017f	eb 72		 jmp	 SHORT $LN1@LoadInt_e
$LN76@LoadInt_e:
  00181	c6 45 f8 ed	 mov	 BYTE PTR __k$[ebp+20], -19 ; ffffffedH
  00185	eb 6c		 jmp	 SHORT $LN1@LoadInt_e
$LN77@LoadInt_e:
  00187	c6 45 f7 ea	 mov	 BYTE PTR __k$[ebp+19], -22 ; ffffffeaH
  0018b	eb 66		 jmp	 SHORT $LN1@LoadInt_e
$LN79@LoadInt_e:
  0018d	88 4d f5	 mov	 BYTE PTR __k$[ebp+17], cl
  00190	eb 61		 jmp	 SHORT $LN1@LoadInt_e
$LN80@LoadInt_e:
  00192	c6 45 f4 ed	 mov	 BYTE PTR __k$[ebp+16], -19 ; ffffffedH
  00196	eb 5b		 jmp	 SHORT $LN1@LoadInt_e
$LN81@LoadInt_e:
  00198	c6 45 f3 ea	 mov	 BYTE PTR __k$[ebp+15], -22 ; ffffffeaH
  0019c	eb 55		 jmp	 SHORT $LN1@LoadInt_e
$LN82@LoadInt_e:
  0019e	c6 45 f2 eb	 mov	 BYTE PTR __k$[ebp+14], -21 ; ffffffebH
  001a2	eb 4f		 jmp	 SHORT $LN1@LoadInt_e
$LN83@LoadInt_e:
  001a4	88 4d f1	 mov	 BYTE PTR __k$[ebp+13], cl
  001a7	eb 4a		 jmp	 SHORT $LN1@LoadInt_e
$LN84@LoadInt_e:
  001a9	c6 45 f0 ed	 mov	 BYTE PTR __k$[ebp+12], -19 ; ffffffedH
  001ad	eb 44		 jmp	 SHORT $LN1@LoadInt_e
$LN85@LoadInt_e:
  001af	c6 45 ef ea	 mov	 BYTE PTR __k$[ebp+11], -22 ; ffffffeaH
  001b3	eb 3e		 jmp	 SHORT $LN1@LoadInt_e
$LN86@LoadInt_e:
  001b5	c6 45 ee eb	 mov	 BYTE PTR __k$[ebp+10], -21 ; ffffffebH
  001b9	eb 38		 jmp	 SHORT $LN1@LoadInt_e
$LN87@LoadInt_e:
  001bb	88 4d ed	 mov	 BYTE PTR __k$[ebp+9], cl
  001be	eb 33		 jmp	 SHORT $LN1@LoadInt_e
$LN88@LoadInt_e:
  001c0	c6 45 ec ed	 mov	 BYTE PTR __k$[ebp+8], -19 ; ffffffedH
  001c4	eb 2d		 jmp	 SHORT $LN1@LoadInt_e
$LN89@LoadInt_e:
  001c6	c6 45 eb ea	 mov	 BYTE PTR __k$[ebp+7], -22 ; ffffffeaH
  001ca	eb 27		 jmp	 SHORT $LN1@LoadInt_e
$LN90@LoadInt_e:
  001cc	c6 45 ea eb	 mov	 BYTE PTR __k$[ebp+6], -21 ; ffffffebH
  001d0	eb 21		 jmp	 SHORT $LN1@LoadInt_e
$LN91@LoadInt_e:
  001d2	88 4d e9	 mov	 BYTE PTR __k$[ebp+5], cl
  001d5	eb 1c		 jmp	 SHORT $LN1@LoadInt_e
$LN92@LoadInt_e:
  001d7	c6 45 e8 ed	 mov	 BYTE PTR __k$[ebp+4], -19 ; ffffffedH
  001db	eb 16		 jmp	 SHORT $LN1@LoadInt_e
$LN93@LoadInt_e:
  001dd	c6 45 e7 ea	 mov	 BYTE PTR __k$[ebp+3], -22 ; ffffffeaH
  001e1	eb 10		 jmp	 SHORT $LN1@LoadInt_e
$LN94@LoadInt_e:
  001e3	c6 45 e6 eb	 mov	 BYTE PTR __k$[ebp+2], -21 ; ffffffebH
  001e7	eb 0a		 jmp	 SHORT $LN1@LoadInt_e
$LN95@LoadInt_e:
  001e9	c6 45 e5 ec	 mov	 BYTE PTR __k$[ebp+1], -20 ; ffffffecH
  001ed	eb 04		 jmp	 SHORT $LN1@LoadInt_e
$LN96@LoadInt_e:
  001ef	c6 45 e4 ed	 mov	 BYTE PTR __k$[ebp], -19	; ffffffedH
$LN1@LoadInt_e:
  001f3	6a 04		 push	 4
  001f5	8d 45 e4	 lea	 eax, DWORD PTR __k$[ebp]
  001f8	c6 45 f6 00	 mov	 BYTE PTR __k$[ebp+18], 0
  001fc	5a		 pop	 edx
$LL104@LoadInt_e:
  001fd	81 30 ed ec eb
	ea		 xor	 DWORD PTR [eax], -353637139 ; eaebecedH
  00203	83 c0 04	 add	 eax, 4
  00206	4a		 dec	 edx
  00207	75 f4		 jne	 SHORT $LL104@LoadInt_e
  00209	6a 10		 push	 16			; 00000010H
  0020b	58		 pop	 eax
$LL101@LoadInt_e:
  0020c	8b c8		 mov	 ecx, eax
  0020e	81 e1 03 00 00
	80		 and	 ecx, -2147483645	; 80000003H
  00214	79 05		 jns	 SHORT $LN111@LoadInt_e
  00216	49		 dec	 ecx
  00217	83 c9 fc	 or	 ecx, -4			; fffffffcH
  0021a	41		 inc	 ecx
$LN111@LoadInt_e:
  0021b	b2 ed		 mov	 dl, -19			; ffffffedH
  0021d	2a d1		 sub	 dl, cl
  0021f	30 54 05 e4	 xor	 BYTE PTR __k$[ebp+eax], dl
  00223	40		 inc	 eax
  00224	83 f8 12	 cmp	 eax, 18			; 00000012H
  00227	7c e3		 jl	 SHORT $LL101@LoadInt_e

; 120  : 		return LoadInt(_k, i);

  00229	ff 75 0c	 push	 DWORD PTR _i$[ebp]
  0022c	8d 45 e4	 lea	 eax, DWORD PTR __k$[ebp]
  0022f	50		 push	 eax
  00230	8b ce		 mov	 ecx, esi
  00232	ff 15 00 00 00
	00		 call	 DWORD PTR __imp_?LoadInt@ioINILoader@@QAEHPBDH@Z

; 121  : 	}

  00238	8b 4d fc	 mov	 ecx, DWORD PTR __$ArrayPad$[ebp]
  0023b	33 cd		 xor	 ecx, ebp
  0023d	5e		 pop	 esi
  0023e	e8 00 00 00 00	 call	 @__security_check_cookie@4
  00243	c9		 leave
  00244	c2 08 00	 ret	 8
??$LoadInt_e@$0BD@@ioINILoader@@QAEHAAY0BD@$$CBDH@Z ENDP ; ioINILoader::LoadInt_e<19>
_TEXT	ENDS
PUBLIC	_this$GSCopy$
PUBLIC	__$ArrayPad$
PUBLIC	??$LoadString_e@$0N@@ioINILoader@@QAEXAAY0N@$$CBDAAY00$$CBDPADH@Z ; ioINILoader::LoadString_e<13>
EXTRN	__imp_?LoadStringA@ioINILoader@@QAEXPBD0PADH@Z:PROC
; Function compile flags: /Ogsp
;	COMDAT ??$LoadString_e@$0N@@ioINILoader@@QAEXAAY0N@$$CBDAAY00$$CBDPADH@Z
_TEXT	SEGMENT
_this$GSCopy$ = -28					; size = 4
__k$ = -24						; size = 13
__$ArrayPad$ = -4					; size = 4
_k$ = 8							; size = 4
_d$ = 12						; size = 4
_b$ = 16						; size = 4
_i$ = 20						; size = 4
??$LoadString_e@$0N@@ioINILoader@@QAEXAAY0N@$$CBDAAY00$$CBDPADH@Z PROC ; ioINILoader::LoadString_e<13>, COMDAT
; _this$ = ecx

; 161  : 	{

  00000	55		 push	 ebp
  00001	8b ec		 mov	 ebp, esp
  00003	83 ec 1c	 sub	 esp, 28			; 0000001cH
  00006	a1 00 00 00 00	 mov	 eax, DWORD PTR ___security_cookie
  0000b	33 c5		 xor	 eax, ebp
  0000d	89 45 fc	 mov	 DWORD PTR __$ArrayPad$[ebp], eax
  00010	8b 45 08	 mov	 eax, DWORD PTR _k$[ebp]

; 162  : 		_ENCSTR(k, _k);

  00013	8a 10		 mov	 dl, BYTE PTR [eax]
  00015	56		 push	 esi
  00016	8b 75 0c	 mov	 esi, DWORD PTR _d$[ebp]
  00019	57		 push	 edi
  0001a	8b 7d 10	 mov	 edi, DWORD PTR _b$[ebp]
  0001d	89 4d e4	 mov	 DWORD PTR _this$GSCopy$[ebp], ecx
  00020	84 d2		 test	 dl, dl
  00022	0f 84 4d 01 00
	00		 je	 $LN96@LoadString
  00028	80 f2 ed	 xor	 dl, -19			; ffffffedH
  0002b	88 55 e8	 mov	 BYTE PTR __k$[ebp], dl
  0002e	8a 50 01	 mov	 dl, BYTE PTR [eax+1]
  00031	84 d2		 test	 dl, dl
  00033	0f 84 36 01 00
	00		 je	 $LN95@LoadString
  00039	b1 ec		 mov	 cl, -20			; ffffffecH
  0003b	32 d1		 xor	 dl, cl
  0003d	88 55 e9	 mov	 BYTE PTR __k$[ebp+1], dl
  00040	8a 50 02	 mov	 dl, BYTE PTR [eax+2]
  00043	84 d2		 test	 dl, dl
  00045	0f 84 1e 01 00
	00		 je	 $LN94@LoadString
  0004b	80 f2 eb	 xor	 dl, -21			; ffffffebH
  0004e	88 55 ea	 mov	 BYTE PTR __k$[ebp+2], dl
  00051	8a 50 03	 mov	 dl, BYTE PTR [eax+3]
  00054	84 d2		 test	 dl, dl
  00056	0f 84 07 01 00
	00		 je	 $LN93@LoadString
  0005c	80 f2 ea	 xor	 dl, -22			; ffffffeaH
  0005f	88 55 eb	 mov	 BYTE PTR __k$[ebp+3], dl
  00062	8a 50 04	 mov	 dl, BYTE PTR [eax+4]
  00065	84 d2		 test	 dl, dl
  00067	0f 84 f0 00 00
	00		 je	 $LN92@LoadString
  0006d	80 f2 ed	 xor	 dl, -19			; ffffffedH
  00070	88 55 ec	 mov	 BYTE PTR __k$[ebp+4], dl
  00073	8a 50 05	 mov	 dl, BYTE PTR [eax+5]
  00076	84 d2		 test	 dl, dl
  00078	0f 84 da 00 00
	00		 je	 $LN91@LoadString
  0007e	32 d1		 xor	 dl, cl
  00080	88 55 ed	 mov	 BYTE PTR __k$[ebp+5], dl
  00083	8a 50 06	 mov	 dl, BYTE PTR [eax+6]
  00086	84 d2		 test	 dl, dl
  00088	0f 84 c4 00 00
	00		 je	 $LN90@LoadString
  0008e	80 f2 eb	 xor	 dl, -21			; ffffffebH
  00091	88 55 ee	 mov	 BYTE PTR __k$[ebp+6], dl
  00094	8a 50 07	 mov	 dl, BYTE PTR [eax+7]
  00097	84 d2		 test	 dl, dl
  00099	0f 84 ad 00 00
	00		 je	 $LN89@LoadString
  0009f	80 f2 ea	 xor	 dl, -22			; ffffffeaH
  000a2	88 55 ef	 mov	 BYTE PTR __k$[ebp+7], dl
  000a5	8a 50 08	 mov	 dl, BYTE PTR [eax+8]
  000a8	84 d2		 test	 dl, dl
  000aa	0f 84 96 00 00
	00		 je	 $LN88@LoadString
  000b0	80 f2 ed	 xor	 dl, -19			; ffffffedH
  000b3	88 55 f0	 mov	 BYTE PTR __k$[ebp+8], dl
  000b6	8a 50 09	 mov	 dl, BYTE PTR [eax+9]
  000b9	84 d2		 test	 dl, dl
  000bb	0f 84 80 00 00
	00		 je	 $LN87@LoadString
  000c1	32 d1		 xor	 dl, cl
  000c3	88 55 f1	 mov	 BYTE PTR __k$[ebp+9], dl
  000c6	8a 50 0a	 mov	 dl, BYTE PTR [eax+10]
  000c9	84 d2		 test	 dl, dl
  000cb	74 6e		 je	 SHORT $LN86@LoadString
  000cd	80 f2 eb	 xor	 dl, -21			; ffffffebH
  000d0	88 55 f2	 mov	 BYTE PTR __k$[ebp+10], dl
  000d3	8a 50 0b	 mov	 dl, BYTE PTR [eax+11]
  000d6	84 d2		 test	 dl, dl
  000d8	74 5b		 je	 SHORT $LN85@LoadString
  000da	80 f2 ea	 xor	 dl, -22			; ffffffeaH
  000dd	80 78 0c 00	 cmp	 BYTE PTR [eax+12], 0
  000e1	88 55 f3	 mov	 BYTE PTR __k$[ebp+11], dl
  000e4	0f 84 8f 00 00
	00		 je	 $LN111@LoadString
  000ea	8a 50 0d	 mov	 dl, BYTE PTR [eax+13]
  000ed	84 d2		 test	 dl, dl
  000ef	74 3f		 je	 SHORT $LN83@LoadString
  000f1	32 d1		 xor	 dl, cl
  000f3	88 55 f5	 mov	 BYTE PTR __k$[ebp+13], dl
  000f6	8a 50 0e	 mov	 dl, BYTE PTR [eax+14]
  000f9	84 d2		 test	 dl, dl
  000fb	74 2d		 je	 SHORT $LN82@LoadString
  000fd	80 f2 eb	 xor	 dl, -21			; ffffffebH
  00100	88 55 f6	 mov	 BYTE PTR __k$[ebp+14], dl
  00103	8a 50 0f	 mov	 dl, BYTE PTR [eax+15]
  00106	84 d2		 test	 dl, dl
  00108	74 1a		 je	 SHORT $LN81@LoadString
  0010a	8a 40 10	 mov	 al, BYTE PTR [eax+16]
  0010d	80 f2 ea	 xor	 dl, -22			; ffffffeaH
  00110	88 55 f7	 mov	 BYTE PTR __k$[ebp+15], dl
  00113	84 c0		 test	 al, al
  00115	74 07		 je	 SHORT $LN80@LoadString
  00117	34 ed		 xor	 al, -19			; ffffffedH
  00119	88 45 f8	 mov	 BYTE PTR __k$[ebp+16], al
  0011c	eb 5b		 jmp	 SHORT $LN111@LoadString
$LN80@LoadString:
  0011e	c6 45 f8 ed	 mov	 BYTE PTR __k$[ebp+16], -19 ; ffffffedH
  00122	eb 55		 jmp	 SHORT $LN111@LoadString
$LN81@LoadString:
  00124	c6 45 f7 ea	 mov	 BYTE PTR __k$[ebp+15], -22 ; ffffffeaH
  00128	eb 4f		 jmp	 SHORT $LN111@LoadString
$LN82@LoadString:
  0012a	c6 45 f6 eb	 mov	 BYTE PTR __k$[ebp+14], -21 ; ffffffebH
  0012e	eb 49		 jmp	 SHORT $LN111@LoadString
$LN83@LoadString:
  00130	88 4d f5	 mov	 BYTE PTR __k$[ebp+13], cl
  00133	eb 44		 jmp	 SHORT $LN111@LoadString
$LN85@LoadString:
  00135	c6 45 f3 ea	 mov	 BYTE PTR __k$[ebp+11], -22 ; ffffffeaH
  00139	eb 3e		 jmp	 SHORT $LN111@LoadString
$LN86@LoadString:
  0013b	c6 45 f2 eb	 mov	 BYTE PTR __k$[ebp+10], -21 ; ffffffebH
  0013f	eb 38		 jmp	 SHORT $LN111@LoadString
$LN87@LoadString:
  00141	88 4d f1	 mov	 BYTE PTR __k$[ebp+9], cl
  00144	eb 33		 jmp	 SHORT $LN111@LoadString
$LN88@LoadString:
  00146	c6 45 f0 ed	 mov	 BYTE PTR __k$[ebp+8], -19 ; ffffffedH
  0014a	eb 2d		 jmp	 SHORT $LN111@LoadString
$LN89@LoadString:
  0014c	c6 45 ef ea	 mov	 BYTE PTR __k$[ebp+7], -22 ; ffffffeaH
  00150	eb 27		 jmp	 SHORT $LN111@LoadString
$LN90@LoadString:
  00152	c6 45 ee eb	 mov	 BYTE PTR __k$[ebp+6], -21 ; ffffffebH
  00156	eb 21		 jmp	 SHORT $LN111@LoadString
$LN91@LoadString:
  00158	88 4d ed	 mov	 BYTE PTR __k$[ebp+5], cl
  0015b	eb 1c		 jmp	 SHORT $LN111@LoadString
$LN92@LoadString:
  0015d	c6 45 ec ed	 mov	 BYTE PTR __k$[ebp+4], -19 ; ffffffedH
  00161	eb 16		 jmp	 SHORT $LN111@LoadString
$LN93@LoadString:
  00163	c6 45 eb ea	 mov	 BYTE PTR __k$[ebp+3], -22 ; ffffffeaH
  00167	eb 10		 jmp	 SHORT $LN111@LoadString
$LN94@LoadString:
  00169	c6 45 ea eb	 mov	 BYTE PTR __k$[ebp+2], -21 ; ffffffebH
  0016d	eb 0a		 jmp	 SHORT $LN111@LoadString
$LN95@LoadString:
  0016f	c6 45 e9 ec	 mov	 BYTE PTR __k$[ebp+1], -20 ; ffffffecH
  00173	eb 04		 jmp	 SHORT $LN111@LoadString
$LN96@LoadString:
  00175	c6 45 e8 ed	 mov	 BYTE PTR __k$[ebp], -19	; ffffffedH
$LN111@LoadString:
  00179	6a 03		 push	 3
  0017b	8d 45 e8	 lea	 eax, DWORD PTR __k$[ebp]
  0017e	c6 45 f4 00	 mov	 BYTE PTR __k$[ebp+12], 0
  00182	5a		 pop	 edx
$LL104@LoadString:
  00183	81 30 ed ec eb
	ea		 xor	 DWORD PTR [eax], -353637139 ; eaebecedH
  00189	83 c0 04	 add	 eax, 4
  0018c	4a		 dec	 edx
  0018d	75 f4		 jne	 SHORT $LL104@LoadString

; 163  : 		LoadString(_k, d, b, i);

  0018f	ff 75 14	 push	 DWORD PTR _i$[ebp]
  00192	8b 4d e4	 mov	 ecx, DWORD PTR _this$GSCopy$[ebp]
  00195	57		 push	 edi
  00196	56		 push	 esi
  00197	8d 45 e8	 lea	 eax, DWORD PTR __k$[ebp]
  0019a	50		 push	 eax
  0019b	ff 15 00 00 00
	00		 call	 DWORD PTR __imp_?LoadStringA@ioINILoader@@QAEXPBD0PADH@Z

; 164  : 	}

  001a1	8b 4d fc	 mov	 ecx, DWORD PTR __$ArrayPad$[ebp]
  001a4	5f		 pop	 edi
  001a5	33 cd		 xor	 ecx, ebp
  001a7	5e		 pop	 esi
  001a8	e8 00 00 00 00	 call	 @__security_check_cookie@4
  001ad	c9		 leave
  001ae	c2 10 00	 ret	 16			; 00000010H
??$LoadString_e@$0N@@ioINILoader@@QAEXAAY0N@$$CBDAAY00$$CBDPADH@Z ENDP ; ioINILoader::LoadString_e<13>
_TEXT	ENDS
PUBLIC	__$ArrayPad$
PUBLIC	??$LoadInt_e@$0L@@ioINILoader@@QAEHAAY0L@$$CBDH@Z ; ioINILoader::LoadInt_e<11>
; Function compile flags: /Ogsp
;	COMDAT ??$LoadInt_e@$0L@@ioINILoader@@QAEHAAY0L@$$CBDH@Z
_TEXT	SEGMENT
__k$ = -20						; size = 11
__$ArrayPad$ = -4					; size = 4
_k$ = 8							; size = 4
_i$ = 12						; size = 4
??$LoadInt_e@$0L@@ioINILoader@@QAEHAAY0L@$$CBDH@Z PROC	; ioINILoader::LoadInt_e<11>, COMDAT
; _this$ = ecx

; 118  : 	{

  00000	55		 push	 ebp
  00001	8b ec		 mov	 ebp, esp
  00003	83 ec 14	 sub	 esp, 20			; 00000014H
  00006	a1 00 00 00 00	 mov	 eax, DWORD PTR ___security_cookie
  0000b	33 c5		 xor	 eax, ebp
  0000d	89 45 fc	 mov	 DWORD PTR __$ArrayPad$[ebp], eax
  00010	8b 45 08	 mov	 eax, DWORD PTR _k$[ebp]

; 119  : 		_ENCSTR(k, _k);

  00013	8a 10		 mov	 dl, BYTE PTR [eax]
  00015	56		 push	 esi
  00016	8b f1		 mov	 esi, ecx
  00018	84 d2		 test	 dl, dl
  0001a	0f 84 24 01 00
	00		 je	 $LN96@LoadInt_e@2
  00020	80 f2 ed	 xor	 dl, -19			; ffffffedH
  00023	88 55 ec	 mov	 BYTE PTR __k$[ebp], dl
  00026	8a 50 01	 mov	 dl, BYTE PTR [eax+1]
  00029	84 d2		 test	 dl, dl
  0002b	0f 84 0d 01 00
	00		 je	 $LN95@LoadInt_e@2
  00031	80 f2 ec	 xor	 dl, -20			; ffffffecH
  00034	88 55 ed	 mov	 BYTE PTR __k$[ebp+1], dl
  00037	8a 50 02	 mov	 dl, BYTE PTR [eax+2]
  0003a	84 d2		 test	 dl, dl
  0003c	0f 84 f6 00 00
	00		 je	 $LN94@LoadInt_e@2
  00042	80 f2 eb	 xor	 dl, -21			; ffffffebH
  00045	88 55 ee	 mov	 BYTE PTR __k$[ebp+2], dl
  00048	8a 50 03	 mov	 dl, BYTE PTR [eax+3]
  0004b	84 d2		 test	 dl, dl
  0004d	0f 84 df 00 00
	00		 je	 $LN93@LoadInt_e@2
  00053	80 f2 ea	 xor	 dl, -22			; ffffffeaH
  00056	88 55 ef	 mov	 BYTE PTR __k$[ebp+3], dl
  00059	8a 50 04	 mov	 dl, BYTE PTR [eax+4]
  0005c	84 d2		 test	 dl, dl
  0005e	0f 84 c8 00 00
	00		 je	 $LN92@LoadInt_e@2
  00064	80 f2 ed	 xor	 dl, -19			; ffffffedH
  00067	88 55 f0	 mov	 BYTE PTR __k$[ebp+4], dl
  0006a	8a 50 05	 mov	 dl, BYTE PTR [eax+5]
  0006d	84 d2		 test	 dl, dl
  0006f	0f 84 b1 00 00
	00		 je	 $LN91@LoadInt_e@2
  00075	80 f2 ec	 xor	 dl, -20			; ffffffecH
  00078	88 55 f1	 mov	 BYTE PTR __k$[ebp+5], dl
  0007b	8a 50 06	 mov	 dl, BYTE PTR [eax+6]
  0007e	84 d2		 test	 dl, dl
  00080	0f 84 9a 00 00
	00		 je	 $LN90@LoadInt_e@2
  00086	80 f2 eb	 xor	 dl, -21			; ffffffebH
  00089	88 55 f2	 mov	 BYTE PTR __k$[ebp+6], dl
  0008c	8a 50 07	 mov	 dl, BYTE PTR [eax+7]
  0008f	84 d2		 test	 dl, dl
  00091	0f 84 83 00 00
	00		 je	 $LN89@LoadInt_e@2
  00097	80 f2 ea	 xor	 dl, -22			; ffffffeaH
  0009a	88 55 f3	 mov	 BYTE PTR __k$[ebp+7], dl
  0009d	8a 50 08	 mov	 dl, BYTE PTR [eax+8]
  000a0	84 d2		 test	 dl, dl
  000a2	74 70		 je	 SHORT $LN88@LoadInt_e@2
  000a4	80 f2 ed	 xor	 dl, -19			; ffffffedH
  000a7	88 55 f4	 mov	 BYTE PTR __k$[ebp+8], dl
  000aa	8a 50 09	 mov	 dl, BYTE PTR [eax+9]
  000ad	84 d2		 test	 dl, dl
  000af	74 5d		 je	 SHORT $LN87@LoadInt_e@2
  000b1	80 f2 ec	 xor	 dl, -20			; ffffffecH
  000b4	80 78 0a 00	 cmp	 BYTE PTR [eax+10], 0
  000b8	88 55 f5	 mov	 BYTE PTR __k$[ebp+9], dl
  000bb	0f 84 87 00 00
	00		 je	 $LN1@LoadInt_e@2
  000c1	8a 50 0b	 mov	 dl, BYTE PTR [eax+11]
  000c4	84 d2		 test	 dl, dl
  000c6	74 40		 je	 SHORT $LN85@LoadInt_e@2
  000c8	80 f2 ea	 xor	 dl, -22			; ffffffeaH
  000cb	88 55 f7	 mov	 BYTE PTR __k$[ebp+11], dl
  000ce	8a 50 0c	 mov	 dl, BYTE PTR [eax+12]
  000d1	84 d2		 test	 dl, dl
  000d3	74 2d		 je	 SHORT $LN84@LoadInt_e@2
  000d5	80 f2 ed	 xor	 dl, -19			; ffffffedH
  000d8	88 55 f8	 mov	 BYTE PTR __k$[ebp+12], dl
  000db	8a 50 0d	 mov	 dl, BYTE PTR [eax+13]
  000de	84 d2		 test	 dl, dl
  000e0	74 1a		 je	 SHORT $LN83@LoadInt_e@2
  000e2	8a 40 0e	 mov	 al, BYTE PTR [eax+14]
  000e5	80 f2 ec	 xor	 dl, -20			; ffffffecH
  000e8	88 55 f9	 mov	 BYTE PTR __k$[ebp+13], dl
  000eb	84 c0		 test	 al, al
  000ed	74 07		 je	 SHORT $LN82@LoadInt_e@2
  000ef	34 eb		 xor	 al, -21			; ffffffebH
  000f1	88 45 fa	 mov	 BYTE PTR __k$[ebp+14], al
  000f4	eb 52		 jmp	 SHORT $LN1@LoadInt_e@2
$LN82@LoadInt_e@2:
  000f6	c6 45 fa eb	 mov	 BYTE PTR __k$[ebp+14], -21 ; ffffffebH
  000fa	eb 4c		 jmp	 SHORT $LN1@LoadInt_e@2
$LN83@LoadInt_e@2:
  000fc	c6 45 f9 ec	 mov	 BYTE PTR __k$[ebp+13], -20 ; ffffffecH
  00100	eb 46		 jmp	 SHORT $LN1@LoadInt_e@2
$LN84@LoadInt_e@2:
  00102	c6 45 f8 ed	 mov	 BYTE PTR __k$[ebp+12], -19 ; ffffffedH
  00106	eb 40		 jmp	 SHORT $LN1@LoadInt_e@2
$LN85@LoadInt_e@2:
  00108	c6 45 f7 ea	 mov	 BYTE PTR __k$[ebp+11], -22 ; ffffffeaH
  0010c	eb 3a		 jmp	 SHORT $LN1@LoadInt_e@2
$LN87@LoadInt_e@2:
  0010e	c6 45 f5 ec	 mov	 BYTE PTR __k$[ebp+9], -20 ; ffffffecH
  00112	eb 34		 jmp	 SHORT $LN1@LoadInt_e@2
$LN88@LoadInt_e@2:
  00114	c6 45 f4 ed	 mov	 BYTE PTR __k$[ebp+8], -19 ; ffffffedH
  00118	eb 2e		 jmp	 SHORT $LN1@LoadInt_e@2
$LN89@LoadInt_e@2:
  0011a	c6 45 f3 ea	 mov	 BYTE PTR __k$[ebp+7], -22 ; ffffffeaH
  0011e	eb 28		 jmp	 SHORT $LN1@LoadInt_e@2
$LN90@LoadInt_e@2:
  00120	c6 45 f2 eb	 mov	 BYTE PTR __k$[ebp+6], -21 ; ffffffebH
  00124	eb 22		 jmp	 SHORT $LN1@LoadInt_e@2
$LN91@LoadInt_e@2:
  00126	c6 45 f1 ec	 mov	 BYTE PTR __k$[ebp+5], -20 ; ffffffecH
  0012a	eb 1c		 jmp	 SHORT $LN1@LoadInt_e@2
$LN92@LoadInt_e@2:
  0012c	c6 45 f0 ed	 mov	 BYTE PTR __k$[ebp+4], -19 ; ffffffedH
  00130	eb 16		 jmp	 SHORT $LN1@LoadInt_e@2
$LN93@LoadInt_e@2:
  00132	c6 45 ef ea	 mov	 BYTE PTR __k$[ebp+3], -22 ; ffffffeaH
  00136	eb 10		 jmp	 SHORT $LN1@LoadInt_e@2
$LN94@LoadInt_e@2:
  00138	c6 45 ee eb	 mov	 BYTE PTR __k$[ebp+2], -21 ; ffffffebH
  0013c	eb 0a		 jmp	 SHORT $LN1@LoadInt_e@2
$LN95@LoadInt_e@2:
  0013e	c6 45 ed ec	 mov	 BYTE PTR __k$[ebp+1], -20 ; ffffffecH
  00142	eb 04		 jmp	 SHORT $LN1@LoadInt_e@2
$LN96@LoadInt_e@2:
  00144	c6 45 ec ed	 mov	 BYTE PTR __k$[ebp], -19	; ffffffedH
$LN1@LoadInt_e@2:
  00148	6a 02		 push	 2
  0014a	8d 45 ec	 lea	 eax, DWORD PTR __k$[ebp]
  0014d	c6 45 f6 00	 mov	 BYTE PTR __k$[ebp+10], 0
  00151	5a		 pop	 edx
$LL104@LoadInt_e@2:
  00152	81 30 ed ec eb
	ea		 xor	 DWORD PTR [eax], -353637139 ; eaebecedH
  00158	83 c0 04	 add	 eax, 4
  0015b	4a		 dec	 edx
  0015c	75 f4		 jne	 SHORT $LL104@LoadInt_e@2
  0015e	6a 08		 push	 8
  00160	58		 pop	 eax
$LL101@LoadInt_e@2:
  00161	8b c8		 mov	 ecx, eax
  00163	81 e1 03 00 00
	80		 and	 ecx, -2147483645	; 80000003H
  00169	79 05		 jns	 SHORT $LN111@LoadInt_e@2
  0016b	49		 dec	 ecx
  0016c	83 c9 fc	 or	 ecx, -4			; fffffffcH
  0016f	41		 inc	 ecx
$LN111@LoadInt_e@2:
  00170	b2 ed		 mov	 dl, -19			; ffffffedH
  00172	2a d1		 sub	 dl, cl
  00174	30 54 05 ec	 xor	 BYTE PTR __k$[ebp+eax], dl
  00178	40		 inc	 eax
  00179	83 f8 0a	 cmp	 eax, 10			; 0000000aH
  0017c	7c e3		 jl	 SHORT $LL101@LoadInt_e@2

; 120  : 		return LoadInt(_k, i);

  0017e	ff 75 0c	 push	 DWORD PTR _i$[ebp]
  00181	8d 45 ec	 lea	 eax, DWORD PTR __k$[ebp]
  00184	50		 push	 eax
  00185	8b ce		 mov	 ecx, esi
  00187	ff 15 00 00 00
	00		 call	 DWORD PTR __imp_?LoadInt@ioINILoader@@QAEHPBDH@Z

; 121  : 	}

  0018d	8b 4d fc	 mov	 ecx, DWORD PTR __$ArrayPad$[ebp]
  00190	33 cd		 xor	 ecx, ebp
  00192	5e		 pop	 esi
  00193	e8 00 00 00 00	 call	 @__security_check_cookie@4
  00198	c9		 leave
  00199	c2 08 00	 ret	 8
??$LoadInt_e@$0L@@ioINILoader@@QAEHAAY0L@$$CBDH@Z ENDP	; ioINILoader::LoadInt_e<11>
_TEXT	ENDS
PUBLIC	_this$GSCopy$
PUBLIC	__$ArrayPad$
PUBLIC	??$LoadString_e@$0BC@@ioINILoader@@QAEXAAY0BC@$$CBDAAY00$$CBDPADH@Z ; ioINILoader::LoadString_e<18>
; Function compile flags: /Ogsp
;	COMDAT ??$LoadString_e@$0BC@@ioINILoader@@QAEXAAY0BC@$$CBDAAY00$$CBDPADH@Z
_TEXT	SEGMENT
_this$GSCopy$ = -32					; size = 4
__k$ = -28						; size = 18
__$ArrayPad$ = -4					; size = 4
_k$ = 8							; size = 4
_d$ = 12						; size = 4
_b$ = 16						; size = 4
_i$ = 20						; size = 4
??$LoadString_e@$0BC@@ioINILoader@@QAEXAAY0BC@$$CBDAAY00$$CBDPADH@Z PROC ; ioINILoader::LoadString_e<18>, COMDAT
; _this$ = ecx

; 161  : 	{

  00000	55		 push	 ebp
  00001	8b ec		 mov	 ebp, esp
  00003	83 ec 20	 sub	 esp, 32			; 00000020H
  00006	a1 00 00 00 00	 mov	 eax, DWORD PTR ___security_cookie
  0000b	33 c5		 xor	 eax, ebp
  0000d	89 45 fc	 mov	 DWORD PTR __$ArrayPad$[ebp], eax
  00010	8b 45 08	 mov	 eax, DWORD PTR _k$[ebp]

; 162  : 		_ENCSTR(k, _k);

  00013	8a 10		 mov	 dl, BYTE PTR [eax]
  00015	56		 push	 esi
  00016	8b 75 0c	 mov	 esi, DWORD PTR _d$[ebp]
  00019	57		 push	 edi
  0001a	8b 7d 10	 mov	 edi, DWORD PTR _b$[ebp]
  0001d	89 4d e0	 mov	 DWORD PTR _this$GSCopy$[ebp], ecx
  00020	84 d2		 test	 dl, dl
  00022	0f 84 be 01 00
	00		 je	 $LN96@LoadString@2
  00028	80 f2 ed	 xor	 dl, -19			; ffffffedH
  0002b	88 55 e4	 mov	 BYTE PTR __k$[ebp], dl
  0002e	8a 50 01	 mov	 dl, BYTE PTR [eax+1]
  00031	84 d2		 test	 dl, dl
  00033	0f 84 a7 01 00
	00		 je	 $LN95@LoadString@2
  00039	80 f2 ec	 xor	 dl, -20			; ffffffecH
  0003c	88 55 e5	 mov	 BYTE PTR __k$[ebp+1], dl
  0003f	8a 50 02	 mov	 dl, BYTE PTR [eax+2]
  00042	84 d2		 test	 dl, dl
  00044	0f 84 90 01 00
	00		 je	 $LN94@LoadString@2
  0004a	b1 eb		 mov	 cl, -21			; ffffffebH
  0004c	32 d1		 xor	 dl, cl
  0004e	88 55 e6	 mov	 BYTE PTR __k$[ebp+2], dl
  00051	8a 50 03	 mov	 dl, BYTE PTR [eax+3]
  00054	84 d2		 test	 dl, dl
  00056	0f 84 78 01 00
	00		 je	 $LN93@LoadString@2
  0005c	80 f2 ea	 xor	 dl, -22			; ffffffeaH
  0005f	88 55 e7	 mov	 BYTE PTR __k$[ebp+3], dl
  00062	8a 50 04	 mov	 dl, BYTE PTR [eax+4]
  00065	84 d2		 test	 dl, dl
  00067	0f 84 61 01 00
	00		 je	 $LN92@LoadString@2
  0006d	80 f2 ed	 xor	 dl, -19			; ffffffedH
  00070	88 55 e8	 mov	 BYTE PTR __k$[ebp+4], dl
  00073	8a 50 05	 mov	 dl, BYTE PTR [eax+5]
  00076	84 d2		 test	 dl, dl
  00078	0f 84 4a 01 00
	00		 je	 $LN91@LoadString@2
  0007e	80 f2 ec	 xor	 dl, -20			; ffffffecH
  00081	88 55 e9	 mov	 BYTE PTR __k$[ebp+5], dl
  00084	8a 50 06	 mov	 dl, BYTE PTR [eax+6]
  00087	84 d2		 test	 dl, dl
  00089	0f 84 34 01 00
	00		 je	 $LN90@LoadString@2
  0008f	32 d1		 xor	 dl, cl
  00091	88 55 ea	 mov	 BYTE PTR __k$[ebp+6], dl
  00094	8a 50 07	 mov	 dl, BYTE PTR [eax+7]
  00097	84 d2		 test	 dl, dl
  00099	0f 84 1e 01 00
	00		 je	 $LN89@LoadString@2
  0009f	80 f2 ea	 xor	 dl, -22			; ffffffeaH
  000a2	88 55 eb	 mov	 BYTE PTR __k$[ebp+7], dl
  000a5	8a 50 08	 mov	 dl, BYTE PTR [eax+8]
  000a8	84 d2		 test	 dl, dl
  000aa	0f 84 07 01 00
	00		 je	 $LN88@LoadString@2
  000b0	80 f2 ed	 xor	 dl, -19			; ffffffedH
  000b3	88 55 ec	 mov	 BYTE PTR __k$[ebp+8], dl
  000b6	8a 50 09	 mov	 dl, BYTE PTR [eax+9]
  000b9	84 d2		 test	 dl, dl
  000bb	0f 84 f0 00 00
	00		 je	 $LN87@LoadString@2
  000c1	80 f2 ec	 xor	 dl, -20			; ffffffecH
  000c4	88 55 ed	 mov	 BYTE PTR __k$[ebp+9], dl
  000c7	8a 50 0a	 mov	 dl, BYTE PTR [eax+10]
  000ca	84 d2		 test	 dl, dl
  000cc	0f 84 da 00 00
	00		 je	 $LN86@LoadString@2
  000d2	32 d1		 xor	 dl, cl
  000d4	88 55 ee	 mov	 BYTE PTR __k$[ebp+10], dl
  000d7	8a 50 0b	 mov	 dl, BYTE PTR [eax+11]
  000da	84 d2		 test	 dl, dl
  000dc	0f 84 c4 00 00
	00		 je	 $LN85@LoadString@2
  000e2	80 f2 ea	 xor	 dl, -22			; ffffffeaH
  000e5	88 55 ef	 mov	 BYTE PTR __k$[ebp+11], dl
  000e8	8a 50 0c	 mov	 dl, BYTE PTR [eax+12]
  000eb	84 d2		 test	 dl, dl
  000ed	0f 84 ad 00 00
	00		 je	 $LN84@LoadString@2
  000f3	80 f2 ed	 xor	 dl, -19			; ffffffedH
  000f6	88 55 f0	 mov	 BYTE PTR __k$[ebp+12], dl
  000f9	8a 50 0d	 mov	 dl, BYTE PTR [eax+13]
  000fc	84 d2		 test	 dl, dl
  000fe	0f 84 96 00 00
	00		 je	 $LN83@LoadString@2
  00104	80 f2 ec	 xor	 dl, -20			; ffffffecH
  00107	88 55 f1	 mov	 BYTE PTR __k$[ebp+13], dl
  0010a	8a 50 0e	 mov	 dl, BYTE PTR [eax+14]
  0010d	84 d2		 test	 dl, dl
  0010f	0f 84 80 00 00
	00		 je	 $LN82@LoadString@2
  00115	32 d1		 xor	 dl, cl
  00117	88 55 f2	 mov	 BYTE PTR __k$[ebp+14], dl
  0011a	8a 50 0f	 mov	 dl, BYTE PTR [eax+15]
  0011d	84 d2		 test	 dl, dl
  0011f	74 6e		 je	 SHORT $LN81@LoadString@2
  00121	80 f2 ea	 xor	 dl, -22			; ffffffeaH
  00124	88 55 f3	 mov	 BYTE PTR __k$[ebp+15], dl
  00127	8a 50 10	 mov	 dl, BYTE PTR [eax+16]
  0012a	84 d2		 test	 dl, dl
  0012c	74 5b		 je	 SHORT $LN80@LoadString@2
  0012e	80 f2 ed	 xor	 dl, -19			; ffffffedH
  00131	80 78 11 00	 cmp	 BYTE PTR [eax+17], 0
  00135	88 55 f4	 mov	 BYTE PTR __k$[ebp+16], dl
  00138	0f 84 ac 00 00
	00		 je	 $LN111@LoadString@2
  0013e	8a 50 12	 mov	 dl, BYTE PTR [eax+18]
  00141	84 d2		 test	 dl, dl
  00143	74 3f		 je	 SHORT $LN78@LoadString@2
  00145	32 d1		 xor	 dl, cl
  00147	88 55 f6	 mov	 BYTE PTR __k$[ebp+18], dl
  0014a	8a 50 13	 mov	 dl, BYTE PTR [eax+19]
  0014d	84 d2		 test	 dl, dl
  0014f	74 2d		 je	 SHORT $LN77@LoadString@2
  00151	80 f2 ea	 xor	 dl, -22			; ffffffeaH
  00154	88 55 f7	 mov	 BYTE PTR __k$[ebp+19], dl
  00157	8a 50 14	 mov	 dl, BYTE PTR [eax+20]
  0015a	84 d2		 test	 dl, dl
  0015c	74 1a		 je	 SHORT $LN76@LoadString@2
  0015e	8a 40 15	 mov	 al, BYTE PTR [eax+21]
  00161	80 f2 ed	 xor	 dl, -19			; ffffffedH
  00164	88 55 f8	 mov	 BYTE PTR __k$[ebp+20], dl
  00167	84 c0		 test	 al, al
  00169	74 07		 je	 SHORT $LN75@LoadString@2
  0016b	34 ec		 xor	 al, -20			; ffffffecH
  0016d	88 45 f9	 mov	 BYTE PTR __k$[ebp+21], al
  00170	eb 78		 jmp	 SHORT $LN111@LoadString@2
$LN75@LoadString@2:
  00172	c6 45 f9 ec	 mov	 BYTE PTR __k$[ebp+21], -20 ; ffffffecH
  00176	eb 72		 jmp	 SHORT $LN111@LoadString@2
$LN76@LoadString@2:
  00178	c6 45 f8 ed	 mov	 BYTE PTR __k$[ebp+20], -19 ; ffffffedH
  0017c	eb 6c		 jmp	 SHORT $LN111@LoadString@2
$LN77@LoadString@2:
  0017e	c6 45 f7 ea	 mov	 BYTE PTR __k$[ebp+19], -22 ; ffffffeaH
  00182	eb 66		 jmp	 SHORT $LN111@LoadString@2
$LN78@LoadString@2:
  00184	88 4d f6	 mov	 BYTE PTR __k$[ebp+18], cl
  00187	eb 61		 jmp	 SHORT $LN111@LoadString@2
$LN80@LoadString@2:
  00189	c6 45 f4 ed	 mov	 BYTE PTR __k$[ebp+16], -19 ; ffffffedH
  0018d	eb 5b		 jmp	 SHORT $LN111@LoadString@2
$LN81@LoadString@2:
  0018f	c6 45 f3 ea	 mov	 BYTE PTR __k$[ebp+15], -22 ; ffffffeaH
  00193	eb 55		 jmp	 SHORT $LN111@LoadString@2
$LN82@LoadString@2:
  00195	88 4d f2	 mov	 BYTE PTR __k$[ebp+14], cl
  00198	eb 50		 jmp	 SHORT $LN111@LoadString@2
$LN83@LoadString@2:
  0019a	c6 45 f1 ec	 mov	 BYTE PTR __k$[ebp+13], -20 ; ffffffecH
  0019e	eb 4a		 jmp	 SHORT $LN111@LoadString@2
$LN84@LoadString@2:
  001a0	c6 45 f0 ed	 mov	 BYTE PTR __k$[ebp+12], -19 ; ffffffedH
  001a4	eb 44		 jmp	 SHORT $LN111@LoadString@2
$LN85@LoadString@2:
  001a6	c6 45 ef ea	 mov	 BYTE PTR __k$[ebp+11], -22 ; ffffffeaH
  001aa	eb 3e		 jmp	 SHORT $LN111@LoadString@2
$LN86@LoadString@2:
  001ac	88 4d ee	 mov	 BYTE PTR __k$[ebp+10], cl
  001af	eb 39		 jmp	 SHORT $LN111@LoadString@2
$LN87@LoadString@2:
  001b1	c6 45 ed ec	 mov	 BYTE PTR __k$[ebp+9], -20 ; ffffffecH
  001b5	eb 33		 jmp	 SHORT $LN111@LoadString@2
$LN88@LoadString@2:
  001b7	c6 45 ec ed	 mov	 BYTE PTR __k$[ebp+8], -19 ; ffffffedH
  001bb	eb 2d		 jmp	 SHORT $LN111@LoadString@2
$LN89@LoadString@2:
  001bd	c6 45 eb ea	 mov	 BYTE PTR __k$[ebp+7], -22 ; ffffffeaH
  001c1	eb 27		 jmp	 SHORT $LN111@LoadString@2
$LN90@LoadString@2:
  001c3	88 4d ea	 mov	 BYTE PTR __k$[ebp+6], cl
  001c6	eb 22		 jmp	 SHORT $LN111@LoadString@2
$LN91@LoadString@2:
  001c8	c6 45 e9 ec	 mov	 BYTE PTR __k$[ebp+5], -20 ; ffffffecH
  001cc	eb 1c		 jmp	 SHORT $LN111@LoadString@2
$LN92@LoadString@2:
  001ce	c6 45 e8 ed	 mov	 BYTE PTR __k$[ebp+4], -19 ; ffffffedH
  001d2	eb 16		 jmp	 SHORT $LN111@LoadString@2
$LN93@LoadString@2:
  001d4	c6 45 e7 ea	 mov	 BYTE PTR __k$[ebp+3], -22 ; ffffffeaH
  001d8	eb 10		 jmp	 SHORT $LN111@LoadString@2
$LN94@LoadString@2:
  001da	c6 45 e6 eb	 mov	 BYTE PTR __k$[ebp+2], -21 ; ffffffebH
  001de	eb 0a		 jmp	 SHORT $LN111@LoadString@2
$LN95@LoadString@2:
  001e0	c6 45 e5 ec	 mov	 BYTE PTR __k$[ebp+1], -20 ; ffffffecH
  001e4	eb 04		 jmp	 SHORT $LN111@LoadString@2
$LN96@LoadString@2:
  001e6	c6 45 e4 ed	 mov	 BYTE PTR __k$[ebp], -19	; ffffffedH
$LN111@LoadString@2:
  001ea	6a 04		 push	 4
  001ec	8d 45 e4	 lea	 eax, DWORD PTR __k$[ebp]
  001ef	c6 45 f5 00	 mov	 BYTE PTR __k$[ebp+17], 0
  001f3	5a		 pop	 edx
$LL104@LoadString@2:
  001f4	81 30 ed ec eb
	ea		 xor	 DWORD PTR [eax], -353637139 ; eaebecedH
  001fa	83 c0 04	 add	 eax, 4
  001fd	4a		 dec	 edx
  001fe	75 f4		 jne	 SHORT $LL104@LoadString@2

; 163  : 		LoadString(_k, d, b, i);

  00200	ff 75 14	 push	 DWORD PTR _i$[ebp]
  00203	8b 4d e0	 mov	 ecx, DWORD PTR _this$GSCopy$[ebp]
  00206	80 75 f4 ed	 xor	 BYTE PTR __k$[ebp+16], -19 ; ffffffedH
  0020a	57		 push	 edi
  0020b	56		 push	 esi
  0020c	8d 45 e4	 lea	 eax, DWORD PTR __k$[ebp]
  0020f	50		 push	 eax
  00210	ff 15 00 00 00
	00		 call	 DWORD PTR __imp_?LoadStringA@ioINILoader@@QAEXPBD0PADH@Z

; 164  : 	}

  00216	8b 4d fc	 mov	 ecx, DWORD PTR __$ArrayPad$[ebp]
  00219	5f		 pop	 edi
  0021a	33 cd		 xor	 ecx, ebp
  0021c	5e		 pop	 esi
  0021d	e8 00 00 00 00	 call	 @__security_check_cookie@4
  00222	c9		 leave
  00223	c2 10 00	 ret	 16			; 00000010H
??$LoadString_e@$0BC@@ioINILoader@@QAEXAAY0BC@$$CBDAAY00$$CBDPADH@Z ENDP ; ioINILoader::LoadString_e<18>
_TEXT	ENDS
PUBLIC	__$ArrayPad$
PUBLIC	??$LoadInt_e@$0BA@@ioINILoader@@QAEHAAY0BA@$$CBDH@Z ; ioINILoader::LoadInt_e<16>
; Function compile flags: /Ogsp
;	COMDAT ??$LoadInt_e@$0BA@@ioINILoader@@QAEHAAY0BA@$$CBDH@Z
_TEXT	SEGMENT
__k$ = -24						; size = 16
__$ArrayPad$ = -4					; size = 4
_k$ = 8							; size = 4
_i$ = 12						; size = 4
??$LoadInt_e@$0BA@@ioINILoader@@QAEHAAY0BA@$$CBDH@Z PROC ; ioINILoader::LoadInt_e<16>, COMDAT
; _this$ = ecx

; 118  : 	{

  00000	55		 push	 ebp
  00001	8b ec		 mov	 ebp, esp
  00003	83 ec 18	 sub	 esp, 24			; 00000018H
  00006	a1 00 00 00 00	 mov	 eax, DWORD PTR ___security_cookie
  0000b	33 c5		 xor	 eax, ebp
  0000d	89 45 fc	 mov	 DWORD PTR __$ArrayPad$[ebp], eax
  00010	8b 45 08	 mov	 eax, DWORD PTR _k$[ebp]

; 119  : 		_ENCSTR(k, _k);

  00013	8a 10		 mov	 dl, BYTE PTR [eax]
  00015	56		 push	 esi
  00016	8b f1		 mov	 esi, ecx
  00018	84 d2		 test	 dl, dl
  0001a	0f 84 8c 01 00
	00		 je	 $LN96@LoadInt_e@3
  00020	80 f2 ed	 xor	 dl, -19			; ffffffedH
  00023	88 55 e8	 mov	 BYTE PTR __k$[ebp], dl
  00026	8a 50 01	 mov	 dl, BYTE PTR [eax+1]
  00029	84 d2		 test	 dl, dl
  0002b	0f 84 75 01 00
	00		 je	 $LN95@LoadInt_e@3
  00031	80 f2 ec	 xor	 dl, -20			; ffffffecH
  00034	88 55 e9	 mov	 BYTE PTR __k$[ebp+1], dl
  00037	8a 50 02	 mov	 dl, BYTE PTR [eax+2]
  0003a	84 d2		 test	 dl, dl
  0003c	0f 84 5e 01 00
	00		 je	 $LN94@LoadInt_e@3
  00042	b1 eb		 mov	 cl, -21			; ffffffebH
  00044	32 d1		 xor	 dl, cl
  00046	88 55 ea	 mov	 BYTE PTR __k$[ebp+2], dl
  00049	8a 50 03	 mov	 dl, BYTE PTR [eax+3]
  0004c	84 d2		 test	 dl, dl
  0004e	0f 84 46 01 00
	00		 je	 $LN93@LoadInt_e@3
  00054	80 f2 ea	 xor	 dl, -22			; ffffffeaH
  00057	88 55 eb	 mov	 BYTE PTR __k$[ebp+3], dl
  0005a	8a 50 04	 mov	 dl, BYTE PTR [eax+4]
  0005d	84 d2		 test	 dl, dl
  0005f	0f 84 2f 01 00
	00		 je	 $LN92@LoadInt_e@3
  00065	80 f2 ed	 xor	 dl, -19			; ffffffedH
  00068	88 55 ec	 mov	 BYTE PTR __k$[ebp+4], dl
  0006b	8a 50 05	 mov	 dl, BYTE PTR [eax+5]
  0006e	84 d2		 test	 dl, dl
  00070	0f 84 18 01 00
	00		 je	 $LN91@LoadInt_e@3
  00076	80 f2 ec	 xor	 dl, -20			; ffffffecH
  00079	88 55 ed	 mov	 BYTE PTR __k$[ebp+5], dl
  0007c	8a 50 06	 mov	 dl, BYTE PTR [eax+6]
  0007f	84 d2		 test	 dl, dl
  00081	0f 84 02 01 00
	00		 je	 $LN90@LoadInt_e@3
  00087	32 d1		 xor	 dl, cl
  00089	88 55 ee	 mov	 BYTE PTR __k$[ebp+6], dl
  0008c	8a 50 07	 mov	 dl, BYTE PTR [eax+7]
  0008f	84 d2		 test	 dl, dl
  00091	0f 84 ec 00 00
	00		 je	 $LN89@LoadInt_e@3
  00097	80 f2 ea	 xor	 dl, -22			; ffffffeaH
  0009a	88 55 ef	 mov	 BYTE PTR __k$[ebp+7], dl
  0009d	8a 50 08	 mov	 dl, BYTE PTR [eax+8]
  000a0	84 d2		 test	 dl, dl
  000a2	0f 84 d5 00 00
	00		 je	 $LN88@LoadInt_e@3
  000a8	80 f2 ed	 xor	 dl, -19			; ffffffedH
  000ab	88 55 f0	 mov	 BYTE PTR __k$[ebp+8], dl
  000ae	8a 50 09	 mov	 dl, BYTE PTR [eax+9]
  000b1	84 d2		 test	 dl, dl
  000b3	0f 84 be 00 00
	00		 je	 $LN87@LoadInt_e@3
  000b9	80 f2 ec	 xor	 dl, -20			; ffffffecH
  000bc	88 55 f1	 mov	 BYTE PTR __k$[ebp+9], dl
  000bf	8a 50 0a	 mov	 dl, BYTE PTR [eax+10]
  000c2	84 d2		 test	 dl, dl
  000c4	0f 84 a8 00 00
	00		 je	 $LN86@LoadInt_e@3
  000ca	32 d1		 xor	 dl, cl
  000cc	88 55 f2	 mov	 BYTE PTR __k$[ebp+10], dl
  000cf	8a 50 0b	 mov	 dl, BYTE PTR [eax+11]
  000d2	84 d2		 test	 dl, dl
  000d4	0f 84 92 00 00
	00		 je	 $LN85@LoadInt_e@3
  000da	80 f2 ea	 xor	 dl, -22			; ffffffeaH
  000dd	88 55 f3	 mov	 BYTE PTR __k$[ebp+11], dl
  000e0	8a 50 0c	 mov	 dl, BYTE PTR [eax+12]
  000e3	84 d2		 test	 dl, dl
  000e5	74 7f		 je	 SHORT $LN84@LoadInt_e@3
  000e7	80 f2 ed	 xor	 dl, -19			; ffffffedH
  000ea	88 55 f4	 mov	 BYTE PTR __k$[ebp+12], dl
  000ed	8a 50 0d	 mov	 dl, BYTE PTR [eax+13]
  000f0	84 d2		 test	 dl, dl
  000f2	74 6c		 je	 SHORT $LN83@LoadInt_e@3
  000f4	80 f2 ec	 xor	 dl, -20			; ffffffecH
  000f7	88 55 f5	 mov	 BYTE PTR __k$[ebp+13], dl
  000fa	8a 50 0e	 mov	 dl, BYTE PTR [eax+14]
  000fd	84 d2		 test	 dl, dl
  000ff	74 5a		 je	 SHORT $LN82@LoadInt_e@3
  00101	32 d1		 xor	 dl, cl
  00103	80 78 0f 00	 cmp	 BYTE PTR [eax+15], 0
  00107	88 55 f6	 mov	 BYTE PTR __k$[ebp+14], dl
  0010a	0f 84 a0 00 00
	00		 je	 $LN1@LoadInt_e@3
  00110	8a 50 10	 mov	 dl, BYTE PTR [eax+16]
  00113	84 d2		 test	 dl, dl
  00115	74 3e		 je	 SHORT $LN80@LoadInt_e@3
  00117	80 f2 ed	 xor	 dl, -19			; ffffffedH
  0011a	88 55 f8	 mov	 BYTE PTR __k$[ebp+16], dl
  0011d	8a 50 11	 mov	 dl, BYTE PTR [eax+17]
  00120	84 d2		 test	 dl, dl
  00122	74 2b		 je	 SHORT $LN79@LoadInt_e@3
  00124	80 f2 ec	 xor	 dl, -20			; ffffffecH
  00127	88 55 f9	 mov	 BYTE PTR __k$[ebp+17], dl
  0012a	8a 50 12	 mov	 dl, BYTE PTR [eax+18]
  0012d	84 d2		 test	 dl, dl
  0012f	74 19		 je	 SHORT $LN78@LoadInt_e@3
  00131	8a 40 13	 mov	 al, BYTE PTR [eax+19]
  00134	32 d1		 xor	 dl, cl
  00136	88 55 fa	 mov	 BYTE PTR __k$[ebp+18], dl
  00139	84 c0		 test	 al, al
  0013b	74 07		 je	 SHORT $LN77@LoadInt_e@3
  0013d	34 ea		 xor	 al, -22			; ffffffeaH
  0013f	88 45 fb	 mov	 BYTE PTR __k$[ebp+19], al
  00142	eb 6c		 jmp	 SHORT $LN1@LoadInt_e@3
$LN77@LoadInt_e@3:
  00144	c6 45 fb ea	 mov	 BYTE PTR __k$[ebp+19], -22 ; ffffffeaH
  00148	eb 66		 jmp	 SHORT $LN1@LoadInt_e@3
$LN78@LoadInt_e@3:
  0014a	88 4d fa	 mov	 BYTE PTR __k$[ebp+18], cl
  0014d	eb 61		 jmp	 SHORT $LN1@LoadInt_e@3
$LN79@LoadInt_e@3:
  0014f	c6 45 f9 ec	 mov	 BYTE PTR __k$[ebp+17], -20 ; ffffffecH
  00153	eb 5b		 jmp	 SHORT $LN1@LoadInt_e@3
$LN80@LoadInt_e@3:
  00155	c6 45 f8 ed	 mov	 BYTE PTR __k$[ebp+16], -19 ; ffffffedH
  00159	eb 55		 jmp	 SHORT $LN1@LoadInt_e@3
$LN82@LoadInt_e@3:
  0015b	88 4d f6	 mov	 BYTE PTR __k$[ebp+14], cl
  0015e	eb 50		 jmp	 SHORT $LN1@LoadInt_e@3
$LN83@LoadInt_e@3:
  00160	c6 45 f5 ec	 mov	 BYTE PTR __k$[ebp+13], -20 ; ffffffecH
  00164	eb 4a		 jmp	 SHORT $LN1@LoadInt_e@3
$LN84@LoadInt_e@3:
  00166	c6 45 f4 ed	 mov	 BYTE PTR __k$[ebp+12], -19 ; ffffffedH
  0016a	eb 44		 jmp	 SHORT $LN1@LoadInt_e@3
$LN85@LoadInt_e@3:
  0016c	c6 45 f3 ea	 mov	 BYTE PTR __k$[ebp+11], -22 ; ffffffeaH
  00170	eb 3e		 jmp	 SHORT $LN1@LoadInt_e@3
$LN86@LoadInt_e@3:
  00172	88 4d f2	 mov	 BYTE PTR __k$[ebp+10], cl
  00175	eb 39		 jmp	 SHORT $LN1@LoadInt_e@3
$LN87@LoadInt_e@3:
  00177	c6 45 f1 ec	 mov	 BYTE PTR __k$[ebp+9], -20 ; ffffffecH
  0017b	eb 33		 jmp	 SHORT $LN1@LoadInt_e@3
$LN88@LoadInt_e@3:
  0017d	c6 45 f0 ed	 mov	 BYTE PTR __k$[ebp+8], -19 ; ffffffedH
  00181	eb 2d		 jmp	 SHORT $LN1@LoadInt_e@3
$LN89@LoadInt_e@3:
  00183	c6 45 ef ea	 mov	 BYTE PTR __k$[ebp+7], -22 ; ffffffeaH
  00187	eb 27		 jmp	 SHORT $LN1@LoadInt_e@3
$LN90@LoadInt_e@3:
  00189	88 4d ee	 mov	 BYTE PTR __k$[ebp+6], cl
  0018c	eb 22		 jmp	 SHORT $LN1@LoadInt_e@3
$LN91@LoadInt_e@3:
  0018e	c6 45 ed ec	 mov	 BYTE PTR __k$[ebp+5], -20 ; ffffffecH
  00192	eb 1c		 jmp	 SHORT $LN1@LoadInt_e@3
$LN92@LoadInt_e@3:
  00194	c6 45 ec ed	 mov	 BYTE PTR __k$[ebp+4], -19 ; ffffffedH
  00198	eb 16		 jmp	 SHORT $LN1@LoadInt_e@3
$LN93@LoadInt_e@3:
  0019a	c6 45 eb ea	 mov	 BYTE PTR __k$[ebp+3], -22 ; ffffffeaH
  0019e	eb 10		 jmp	 SHORT $LN1@LoadInt_e@3
$LN94@LoadInt_e@3:
  001a0	c6 45 ea eb	 mov	 BYTE PTR __k$[ebp+2], -21 ; ffffffebH
  001a4	eb 0a		 jmp	 SHORT $LN1@LoadInt_e@3
$LN95@LoadInt_e@3:
  001a6	c6 45 e9 ec	 mov	 BYTE PTR __k$[ebp+1], -20 ; ffffffecH
  001aa	eb 04		 jmp	 SHORT $LN1@LoadInt_e@3
$LN96@LoadInt_e@3:
  001ac	c6 45 e8 ed	 mov	 BYTE PTR __k$[ebp], -19	; ffffffedH
$LN1@LoadInt_e@3:
  001b0	6a 03		 push	 3
  001b2	8d 45 e8	 lea	 eax, DWORD PTR __k$[ebp]
  001b5	c6 45 f7 00	 mov	 BYTE PTR __k$[ebp+15], 0
  001b9	5a		 pop	 edx
$LL104@LoadInt_e@3:
  001ba	81 30 ed ec eb
	ea		 xor	 DWORD PTR [eax], -353637139 ; eaebecedH
  001c0	83 c0 04	 add	 eax, 4
  001c3	4a		 dec	 edx
  001c4	75 f4		 jne	 SHORT $LL104@LoadInt_e@3
  001c6	6a 0c		 push	 12			; 0000000cH
  001c8	58		 pop	 eax
$LL101@LoadInt_e@3:
  001c9	8b c8		 mov	 ecx, eax
  001cb	81 e1 03 00 00
	80		 and	 ecx, -2147483645	; 80000003H
  001d1	79 05		 jns	 SHORT $LN111@LoadInt_e@3
  001d3	49		 dec	 ecx
  001d4	83 c9 fc	 or	 ecx, -4			; fffffffcH
  001d7	41		 inc	 ecx
$LN111@LoadInt_e@3:
  001d8	b2 ed		 mov	 dl, -19			; ffffffedH
  001da	2a d1		 sub	 dl, cl
  001dc	30 54 05 e8	 xor	 BYTE PTR __k$[ebp+eax], dl
  001e0	40		 inc	 eax
  001e1	83 f8 0f	 cmp	 eax, 15			; 0000000fH
  001e4	7c e3		 jl	 SHORT $LL101@LoadInt_e@3

; 120  : 		return LoadInt(_k, i);

  001e6	ff 75 0c	 push	 DWORD PTR _i$[ebp]
  001e9	8d 45 e8	 lea	 eax, DWORD PTR __k$[ebp]
  001ec	50		 push	 eax
  001ed	8b ce		 mov	 ecx, esi
  001ef	ff 15 00 00 00
	00		 call	 DWORD PTR __imp_?LoadInt@ioINILoader@@QAEHPBDH@Z

; 121  : 	}

  001f5	8b 4d fc	 mov	 ecx, DWORD PTR __$ArrayPad$[ebp]
  001f8	33 cd		 xor	 ecx, ebp
  001fa	5e		 pop	 esi
  001fb	e8 00 00 00 00	 call	 @__security_check_cookie@4
  00200	c9		 leave
  00201	c2 08 00	 ret	 8
??$LoadInt_e@$0BA@@ioINILoader@@QAEHAAY0BA@$$CBDH@Z ENDP ; ioINILoader::LoadInt_e<16>
_TEXT	ENDS
PUBLIC	__$ArrayPad$
PUBLIC	??$LoadFloat_e@$09@ioINILoader@@QAEMAAY09$$CBDM@Z ; ioINILoader::LoadFloat_e<10>
EXTRN	__imp_?LoadFloat@ioINILoader@@QAEMPBDM@Z:PROC
; Function compile flags: /Ogsp
;	COMDAT ??$LoadFloat_e@$09@ioINILoader@@QAEMAAY09$$CBDM@Z
_TEXT	SEGMENT
__k$ = -20						; size = 10
__$ArrayPad$ = -4					; size = 4
_k$ = 8							; size = 4
_f$ = 12						; size = 4
??$LoadFloat_e@$09@ioINILoader@@QAEMAAY09$$CBDM@Z PROC	; ioINILoader::LoadFloat_e<10>, COMDAT
; _this$ = ecx

; 135  : 	{

  00000	55		 push	 ebp
  00001	8b ec		 mov	 ebp, esp
  00003	83 ec 14	 sub	 esp, 20			; 00000014H
  00006	a1 00 00 00 00	 mov	 eax, DWORD PTR ___security_cookie
  0000b	33 c5		 xor	 eax, ebp
  0000d	89 45 fc	 mov	 DWORD PTR __$ArrayPad$[ebp], eax
  00010	8b 45 08	 mov	 eax, DWORD PTR _k$[ebp]

; 136  : 		_ENCSTR(k, _k);

  00013	8a 10		 mov	 dl, BYTE PTR [eax]
  00015	84 d2		 test	 dl, dl
  00017	0f 84 0d 01 00
	00		 je	 $LN96@LoadFloat_
  0001d	80 f2 ed	 xor	 dl, -19			; ffffffedH
  00020	88 55 ec	 mov	 BYTE PTR __k$[ebp], dl
  00023	8a 50 01	 mov	 dl, BYTE PTR [eax+1]
  00026	84 d2		 test	 dl, dl
  00028	0f 84 f6 00 00
	00		 je	 $LN95@LoadFloat_
  0002e	80 f2 ec	 xor	 dl, -20			; ffffffecH
  00031	88 55 ed	 mov	 BYTE PTR __k$[ebp+1], dl
  00034	8a 50 02	 mov	 dl, BYTE PTR [eax+2]
  00037	84 d2		 test	 dl, dl
  00039	0f 84 df 00 00
	00		 je	 $LN94@LoadFloat_
  0003f	80 f2 eb	 xor	 dl, -21			; ffffffebH
  00042	88 55 ee	 mov	 BYTE PTR __k$[ebp+2], dl
  00045	8a 50 03	 mov	 dl, BYTE PTR [eax+3]
  00048	84 d2		 test	 dl, dl
  0004a	0f 84 c8 00 00
	00		 je	 $LN93@LoadFloat_
  00050	80 f2 ea	 xor	 dl, -22			; ffffffeaH
  00053	88 55 ef	 mov	 BYTE PTR __k$[ebp+3], dl
  00056	8a 50 04	 mov	 dl, BYTE PTR [eax+4]
  00059	84 d2		 test	 dl, dl
  0005b	0f 84 b1 00 00
	00		 je	 $LN92@LoadFloat_
  00061	80 f2 ed	 xor	 dl, -19			; ffffffedH
  00064	88 55 f0	 mov	 BYTE PTR __k$[ebp+4], dl
  00067	8a 50 05	 mov	 dl, BYTE PTR [eax+5]
  0006a	84 d2		 test	 dl, dl
  0006c	0f 84 9a 00 00
	00		 je	 $LN91@LoadFloat_
  00072	80 f2 ec	 xor	 dl, -20			; ffffffecH
  00075	88 55 f1	 mov	 BYTE PTR __k$[ebp+5], dl
  00078	8a 50 06	 mov	 dl, BYTE PTR [eax+6]
  0007b	84 d2		 test	 dl, dl
  0007d	0f 84 83 00 00
	00		 je	 $LN90@LoadFloat_
  00083	80 f2 eb	 xor	 dl, -21			; ffffffebH
  00086	88 55 f2	 mov	 BYTE PTR __k$[ebp+6], dl
  00089	8a 50 07	 mov	 dl, BYTE PTR [eax+7]
  0008c	84 d2		 test	 dl, dl
  0008e	74 70		 je	 SHORT $LN89@LoadFloat_
  00090	80 f2 ea	 xor	 dl, -22			; ffffffeaH
  00093	88 55 f3	 mov	 BYTE PTR __k$[ebp+7], dl
  00096	8a 50 08	 mov	 dl, BYTE PTR [eax+8]
  00099	84 d2		 test	 dl, dl
  0009b	74 5d		 je	 SHORT $LN88@LoadFloat_
  0009d	80 f2 ed	 xor	 dl, -19			; ffffffedH
  000a0	80 78 09 00	 cmp	 BYTE PTR [eax+9], 0
  000a4	88 55 f4	 mov	 BYTE PTR __k$[ebp+8], dl
  000a7	0f 84 81 00 00
	00		 je	 $LN1@LoadFloat_
  000ad	8a 50 0a	 mov	 dl, BYTE PTR [eax+10]
  000b0	84 d2		 test	 dl, dl
  000b2	74 40		 je	 SHORT $LN86@LoadFloat_
  000b4	80 f2 eb	 xor	 dl, -21			; ffffffebH
  000b7	88 55 f6	 mov	 BYTE PTR __k$[ebp+10], dl
  000ba	8a 50 0b	 mov	 dl, BYTE PTR [eax+11]
  000bd	84 d2		 test	 dl, dl
  000bf	74 2d		 je	 SHORT $LN85@LoadFloat_
  000c1	80 f2 ea	 xor	 dl, -22			; ffffffeaH
  000c4	88 55 f7	 mov	 BYTE PTR __k$[ebp+11], dl
  000c7	8a 50 0c	 mov	 dl, BYTE PTR [eax+12]
  000ca	84 d2		 test	 dl, dl
  000cc	74 1a		 je	 SHORT $LN84@LoadFloat_
  000ce	8a 40 0d	 mov	 al, BYTE PTR [eax+13]
  000d1	80 f2 ed	 xor	 dl, -19			; ffffffedH
  000d4	88 55 f8	 mov	 BYTE PTR __k$[ebp+12], dl
  000d7	84 c0		 test	 al, al
  000d9	74 07		 je	 SHORT $LN83@LoadFloat_
  000db	34 ec		 xor	 al, -20			; ffffffecH
  000dd	88 45 f9	 mov	 BYTE PTR __k$[ebp+13], al
  000e0	eb 4c		 jmp	 SHORT $LN1@LoadFloat_
$LN83@LoadFloat_:
  000e2	c6 45 f9 ec	 mov	 BYTE PTR __k$[ebp+13], -20 ; ffffffecH
  000e6	eb 46		 jmp	 SHORT $LN1@LoadFloat_
$LN84@LoadFloat_:
  000e8	c6 45 f8 ed	 mov	 BYTE PTR __k$[ebp+12], -19 ; ffffffedH
  000ec	eb 40		 jmp	 SHORT $LN1@LoadFloat_
$LN85@LoadFloat_:
  000ee	c6 45 f7 ea	 mov	 BYTE PTR __k$[ebp+11], -22 ; ffffffeaH
  000f2	eb 3a		 jmp	 SHORT $LN1@LoadFloat_
$LN86@LoadFloat_:
  000f4	c6 45 f6 eb	 mov	 BYTE PTR __k$[ebp+10], -21 ; ffffffebH
  000f8	eb 34		 jmp	 SHORT $LN1@LoadFloat_
$LN88@LoadFloat_:
  000fa	c6 45 f4 ed	 mov	 BYTE PTR __k$[ebp+8], -19 ; ffffffedH
  000fe	eb 2e		 jmp	 SHORT $LN1@LoadFloat_
$LN89@LoadFloat_:
  00100	c6 45 f3 ea	 mov	 BYTE PTR __k$[ebp+7], -22 ; ffffffeaH
  00104	eb 28		 jmp	 SHORT $LN1@LoadFloat_
$LN90@LoadFloat_:
  00106	c6 45 f2 eb	 mov	 BYTE PTR __k$[ebp+6], -21 ; ffffffebH
  0010a	eb 22		 jmp	 SHORT $LN1@LoadFloat_
$LN91@LoadFloat_:
  0010c	c6 45 f1 ec	 mov	 BYTE PTR __k$[ebp+5], -20 ; ffffffecH
  00110	eb 1c		 jmp	 SHORT $LN1@LoadFloat_
$LN92@LoadFloat_:
  00112	c6 45 f0 ed	 mov	 BYTE PTR __k$[ebp+4], -19 ; ffffffedH
  00116	eb 16		 jmp	 SHORT $LN1@LoadFloat_
$LN93@LoadFloat_:
  00118	c6 45 ef ea	 mov	 BYTE PTR __k$[ebp+3], -22 ; ffffffeaH
  0011c	eb 10		 jmp	 SHORT $LN1@LoadFloat_
$LN94@LoadFloat_:
  0011e	c6 45 ee eb	 mov	 BYTE PTR __k$[ebp+2], -21 ; ffffffebH
  00122	eb 0a		 jmp	 SHORT $LN1@LoadFloat_
$LN95@LoadFloat_:
  00124	c6 45 ed ec	 mov	 BYTE PTR __k$[ebp+1], -20 ; ffffffecH
  00128	eb 04		 jmp	 SHORT $LN1@LoadFloat_
$LN96@LoadFloat_:
  0012a	c6 45 ec ed	 mov	 BYTE PTR __k$[ebp], -19	; ffffffedH
$LN1@LoadFloat_:
  0012e	6a 02		 push	 2
  00130	8d 45 ec	 lea	 eax, DWORD PTR __k$[ebp]
  00133	c6 45 f5 00	 mov	 BYTE PTR __k$[ebp+9], 0
  00137	5a		 pop	 edx
$LL104@LoadFloat_:
  00138	81 30 ed ec eb
	ea		 xor	 DWORD PTR [eax], -353637139 ; eaebecedH
  0013e	83 c0 04	 add	 eax, 4
  00141	4a		 dec	 edx
  00142	75 f4		 jne	 SHORT $LL104@LoadFloat_

; 137  : 		return LoadFloat(_k, f);

  00144	f3 0f 10 45 0c	 movss	 xmm0, DWORD PTR _f$[ebp]
  00149	80 75 f4 ed	 xor	 BYTE PTR __k$[ebp+8], -19 ; ffffffedH
  0014d	51		 push	 ecx
  0014e	8d 45 ec	 lea	 eax, DWORD PTR __k$[ebp]
  00151	f3 0f 11 04 24	 movss	 DWORD PTR [esp], xmm0
  00156	50		 push	 eax
  00157	ff 15 00 00 00
	00		 call	 DWORD PTR __imp_?LoadFloat@ioINILoader@@QAEMPBDM@Z

; 138  : 	}

  0015d	8b 4d fc	 mov	 ecx, DWORD PTR __$ArrayPad$[ebp]
  00160	33 cd		 xor	 ecx, ebp
  00162	e8 00 00 00 00	 call	 @__security_check_cookie@4
  00167	c9		 leave
  00168	c2 08 00	 ret	 8
??$LoadFloat_e@$09@ioINILoader@@QAEMAAY09$$CBDM@Z ENDP	; ioINILoader::LoadFloat_e<10>
_TEXT	ENDS
PUBLIC	__$ArrayPad$
PUBLIC	??$LoadFloat_e@$0BC@@ioINILoader@@QAEMAAY0BC@$$CBDM@Z ; ioINILoader::LoadFloat_e<18>
; Function compile flags: /Ogsp
;	COMDAT ??$LoadFloat_e@$0BC@@ioINILoader@@QAEMAAY0BC@$$CBDM@Z
_TEXT	SEGMENT
__k$ = -28						; size = 18
__$ArrayPad$ = -4					; size = 4
_k$ = 8							; size = 4
_f$ = 12						; size = 4
??$LoadFloat_e@$0BC@@ioINILoader@@QAEMAAY0BC@$$CBDM@Z PROC ; ioINILoader::LoadFloat_e<18>, COMDAT
; _this$ = ecx

; 135  : 	{

  00000	55		 push	 ebp
  00001	8b ec		 mov	 ebp, esp
  00003	83 ec 1c	 sub	 esp, 28			; 0000001cH
  00006	a1 00 00 00 00	 mov	 eax, DWORD PTR ___security_cookie
  0000b	33 c5		 xor	 eax, ebp
  0000d	89 45 fc	 mov	 DWORD PTR __$ArrayPad$[ebp], eax
  00010	8b 45 08	 mov	 eax, DWORD PTR _k$[ebp]

; 136  : 		_ENCSTR(k, _k);

  00013	8a 10		 mov	 dl, BYTE PTR [eax]
  00015	56		 push	 esi
  00016	8b f1		 mov	 esi, ecx
  00018	84 d2		 test	 dl, dl
  0001a	0f 84 be 01 00
	00		 je	 $LN96@LoadFloat_@2
  00020	80 f2 ed	 xor	 dl, -19			; ffffffedH
  00023	88 55 e4	 mov	 BYTE PTR __k$[ebp], dl
  00026	8a 50 01	 mov	 dl, BYTE PTR [eax+1]
  00029	84 d2		 test	 dl, dl
  0002b	0f 84 a7 01 00
	00		 je	 $LN95@LoadFloat_@2
  00031	80 f2 ec	 xor	 dl, -20			; ffffffecH
  00034	88 55 e5	 mov	 BYTE PTR __k$[ebp+1], dl
  00037	8a 50 02	 mov	 dl, BYTE PTR [eax+2]
  0003a	84 d2		 test	 dl, dl
  0003c	0f 84 90 01 00
	00		 je	 $LN94@LoadFloat_@2
  00042	b1 eb		 mov	 cl, -21			; ffffffebH
  00044	32 d1		 xor	 dl, cl
  00046	88 55 e6	 mov	 BYTE PTR __k$[ebp+2], dl
  00049	8a 50 03	 mov	 dl, BYTE PTR [eax+3]
  0004c	84 d2		 test	 dl, dl
  0004e	0f 84 78 01 00
	00		 je	 $LN93@LoadFloat_@2
  00054	80 f2 ea	 xor	 dl, -22			; ffffffeaH
  00057	88 55 e7	 mov	 BYTE PTR __k$[ebp+3], dl
  0005a	8a 50 04	 mov	 dl, BYTE PTR [eax+4]
  0005d	84 d2		 test	 dl, dl
  0005f	0f 84 61 01 00
	00		 je	 $LN92@LoadFloat_@2
  00065	80 f2 ed	 xor	 dl, -19			; ffffffedH
  00068	88 55 e8	 mov	 BYTE PTR __k$[ebp+4], dl
  0006b	8a 50 05	 mov	 dl, BYTE PTR [eax+5]
  0006e	84 d2		 test	 dl, dl
  00070	0f 84 4a 01 00
	00		 je	 $LN91@LoadFloat_@2
  00076	80 f2 ec	 xor	 dl, -20			; ffffffecH
  00079	88 55 e9	 mov	 BYTE PTR __k$[ebp+5], dl
  0007c	8a 50 06	 mov	 dl, BYTE PTR [eax+6]
  0007f	84 d2		 test	 dl, dl
  00081	0f 84 34 01 00
	00		 je	 $LN90@LoadFloat_@2
  00087	32 d1		 xor	 dl, cl
  00089	88 55 ea	 mov	 BYTE PTR __k$[ebp+6], dl
  0008c	8a 50 07	 mov	 dl, BYTE PTR [eax+7]
  0008f	84 d2		 test	 dl, dl
  00091	0f 84 1e 01 00
	00		 je	 $LN89@LoadFloat_@2
  00097	80 f2 ea	 xor	 dl, -22			; ffffffeaH
  0009a	88 55 eb	 mov	 BYTE PTR __k$[ebp+7], dl
  0009d	8a 50 08	 mov	 dl, BYTE PTR [eax+8]
  000a0	84 d2		 test	 dl, dl
  000a2	0f 84 07 01 00
	00		 je	 $LN88@LoadFloat_@2
  000a8	80 f2 ed	 xor	 dl, -19			; ffffffedH
  000ab	88 55 ec	 mov	 BYTE PTR __k$[ebp+8], dl
  000ae	8a 50 09	 mov	 dl, BYTE PTR [eax+9]
  000b1	84 d2		 test	 dl, dl
  000b3	0f 84 f0 00 00
	00		 je	 $LN87@LoadFloat_@2
  000b9	80 f2 ec	 xor	 dl, -20			; ffffffecH
  000bc	88 55 ed	 mov	 BYTE PTR __k$[ebp+9], dl
  000bf	8a 50 0a	 mov	 dl, BYTE PTR [eax+10]
  000c2	84 d2		 test	 dl, dl
  000c4	0f 84 da 00 00
	00		 je	 $LN86@LoadFloat_@2
  000ca	32 d1		 xor	 dl, cl
  000cc	88 55 ee	 mov	 BYTE PTR __k$[ebp+10], dl
  000cf	8a 50 0b	 mov	 dl, BYTE PTR [eax+11]
  000d2	84 d2		 test	 dl, dl
  000d4	0f 84 c4 00 00
	00		 je	 $LN85@LoadFloat_@2
  000da	80 f2 ea	 xor	 dl, -22			; ffffffeaH
  000dd	88 55 ef	 mov	 BYTE PTR __k$[ebp+11], dl
  000e0	8a 50 0c	 mov	 dl, BYTE PTR [eax+12]
  000e3	84 d2		 test	 dl, dl
  000e5	0f 84 ad 00 00
	00		 je	 $LN84@LoadFloat_@2
  000eb	80 f2 ed	 xor	 dl, -19			; ffffffedH
  000ee	88 55 f0	 mov	 BYTE PTR __k$[ebp+12], dl
  000f1	8a 50 0d	 mov	 dl, BYTE PTR [eax+13]
  000f4	84 d2		 test	 dl, dl
  000f6	0f 84 96 00 00
	00		 je	 $LN83@LoadFloat_@2
  000fc	80 f2 ec	 xor	 dl, -20			; ffffffecH
  000ff	88 55 f1	 mov	 BYTE PTR __k$[ebp+13], dl
  00102	8a 50 0e	 mov	 dl, BYTE PTR [eax+14]
  00105	84 d2		 test	 dl, dl
  00107	0f 84 80 00 00
	00		 je	 $LN82@LoadFloat_@2
  0010d	32 d1		 xor	 dl, cl
  0010f	88 55 f2	 mov	 BYTE PTR __k$[ebp+14], dl
  00112	8a 50 0f	 mov	 dl, BYTE PTR [eax+15]
  00115	84 d2		 test	 dl, dl
  00117	74 6e		 je	 SHORT $LN81@LoadFloat_@2
  00119	80 f2 ea	 xor	 dl, -22			; ffffffeaH
  0011c	88 55 f3	 mov	 BYTE PTR __k$[ebp+15], dl
  0011f	8a 50 10	 mov	 dl, BYTE PTR [eax+16]
  00122	84 d2		 test	 dl, dl
  00124	74 5b		 je	 SHORT $LN80@LoadFloat_@2
  00126	80 f2 ed	 xor	 dl, -19			; ffffffedH
  00129	80 78 11 00	 cmp	 BYTE PTR [eax+17], 0
  0012d	88 55 f4	 mov	 BYTE PTR __k$[ebp+16], dl
  00130	0f 84 ac 00 00
	00		 je	 $LN1@LoadFloat_@2
  00136	8a 50 12	 mov	 dl, BYTE PTR [eax+18]
  00139	84 d2		 test	 dl, dl
  0013b	74 3f		 je	 SHORT $LN78@LoadFloat_@2
  0013d	32 d1		 xor	 dl, cl
  0013f	88 55 f6	 mov	 BYTE PTR __k$[ebp+18], dl
  00142	8a 50 13	 mov	 dl, BYTE PTR [eax+19]
  00145	84 d2		 test	 dl, dl
  00147	74 2d		 je	 SHORT $LN77@LoadFloat_@2
  00149	80 f2 ea	 xor	 dl, -22			; ffffffeaH
  0014c	88 55 f7	 mov	 BYTE PTR __k$[ebp+19], dl
  0014f	8a 50 14	 mov	 dl, BYTE PTR [eax+20]
  00152	84 d2		 test	 dl, dl
  00154	74 1a		 je	 SHORT $LN76@LoadFloat_@2
  00156	8a 40 15	 mov	 al, BYTE PTR [eax+21]
  00159	80 f2 ed	 xor	 dl, -19			; ffffffedH
  0015c	88 55 f8	 mov	 BYTE PTR __k$[ebp+20], dl
  0015f	84 c0		 test	 al, al
  00161	74 07		 je	 SHORT $LN75@LoadFloat_@2
  00163	34 ec		 xor	 al, -20			; ffffffecH
  00165	88 45 f9	 mov	 BYTE PTR __k$[ebp+21], al
  00168	eb 78		 jmp	 SHORT $LN1@LoadFloat_@2
$LN75@LoadFloat_@2:
  0016a	c6 45 f9 ec	 mov	 BYTE PTR __k$[ebp+21], -20 ; ffffffecH
  0016e	eb 72		 jmp	 SHORT $LN1@LoadFloat_@2
$LN76@LoadFloat_@2:
  00170	c6 45 f8 ed	 mov	 BYTE PTR __k$[ebp+20], -19 ; ffffffedH
  00174	eb 6c		 jmp	 SHORT $LN1@LoadFloat_@2
$LN77@LoadFloat_@2:
  00176	c6 45 f7 ea	 mov	 BYTE PTR __k$[ebp+19], -22 ; ffffffeaH
  0017a	eb 66		 jmp	 SHORT $LN1@LoadFloat_@2
$LN78@LoadFloat_@2:
  0017c	88 4d f6	 mov	 BYTE PTR __k$[ebp+18], cl
  0017f	eb 61		 jmp	 SHORT $LN1@LoadFloat_@2
$LN80@LoadFloat_@2:
  00181	c6 45 f4 ed	 mov	 BYTE PTR __k$[ebp+16], -19 ; ffffffedH
  00185	eb 5b		 jmp	 SHORT $LN1@LoadFloat_@2
$LN81@LoadFloat_@2:
  00187	c6 45 f3 ea	 mov	 BYTE PTR __k$[ebp+15], -22 ; ffffffeaH
  0018b	eb 55		 jmp	 SHORT $LN1@LoadFloat_@2
$LN82@LoadFloat_@2:
  0018d	88 4d f2	 mov	 BYTE PTR __k$[ebp+14], cl
  00190	eb 50		 jmp	 SHORT $LN1@LoadFloat_@2
$LN83@LoadFloat_@2:
  00192	c6 45 f1 ec	 mov	 BYTE PTR __k$[ebp+13], -20 ; ffffffecH
  00196	eb 4a		 jmp	 SHORT $LN1@LoadFloat_@2
$LN84@LoadFloat_@2:
  00198	c6 45 f0 ed	 mov	 BYTE PTR __k$[ebp+12], -19 ; ffffffedH
  0019c	eb 44		 jmp	 SHORT $LN1@LoadFloat_@2
$LN85@LoadFloat_@2:
  0019e	c6 45 ef ea	 mov	 BYTE PTR __k$[ebp+11], -22 ; ffffffeaH
  001a2	eb 3e		 jmp	 SHORT $LN1@LoadFloat_@2
$LN86@LoadFloat_@2:
  001a4	88 4d ee	 mov	 BYTE PTR __k$[ebp+10], cl
  001a7	eb 39		 jmp	 SHORT $LN1@LoadFloat_@2
$LN87@LoadFloat_@2:
  001a9	c6 45 ed ec	 mov	 BYTE PTR __k$[ebp+9], -20 ; ffffffecH
  001ad	eb 33		 jmp	 SHORT $LN1@LoadFloat_@2
$LN88@LoadFloat_@2:
  001af	c6 45 ec ed	 mov	 BYTE PTR __k$[ebp+8], -19 ; ffffffedH
  001b3	eb 2d		 jmp	 SHORT $LN1@LoadFloat_@2
$LN89@LoadFloat_@2:
  001b5	c6 45 eb ea	 mov	 BYTE PTR __k$[ebp+7], -22 ; ffffffeaH
  001b9	eb 27		 jmp	 SHORT $LN1@LoadFloat_@2
$LN90@LoadFloat_@2:
  001bb	88 4d ea	 mov	 BYTE PTR __k$[ebp+6], cl
  001be	eb 22		 jmp	 SHORT $LN1@LoadFloat_@2
$LN91@LoadFloat_@2:
  001c0	c6 45 e9 ec	 mov	 BYTE PTR __k$[ebp+5], -20 ; ffffffecH
  001c4	eb 1c		 jmp	 SHORT $LN1@LoadFloat_@2
$LN92@LoadFloat_@2:
  001c6	c6 45 e8 ed	 mov	 BYTE PTR __k$[ebp+4], -19 ; ffffffedH
  001ca	eb 16		 jmp	 SHORT $LN1@LoadFloat_@2
$LN93@LoadFloat_@2:
  001cc	c6 45 e7 ea	 mov	 BYTE PTR __k$[ebp+3], -22 ; ffffffeaH
  001d0	eb 10		 jmp	 SHORT $LN1@LoadFloat_@2
$LN94@LoadFloat_@2:
  001d2	c6 45 e6 eb	 mov	 BYTE PTR __k$[ebp+2], -21 ; ffffffebH
  001d6	eb 0a		 jmp	 SHORT $LN1@LoadFloat_@2
$LN95@LoadFloat_@2:
  001d8	c6 45 e5 ec	 mov	 BYTE PTR __k$[ebp+1], -20 ; ffffffecH
  001dc	eb 04		 jmp	 SHORT $LN1@LoadFloat_@2
$LN96@LoadFloat_@2:
  001de	c6 45 e4 ed	 mov	 BYTE PTR __k$[ebp], -19	; ffffffedH
$LN1@LoadFloat_@2:
  001e2	6a 04		 push	 4
  001e4	8d 45 e4	 lea	 eax, DWORD PTR __k$[ebp]
  001e7	c6 45 f5 00	 mov	 BYTE PTR __k$[ebp+17], 0
  001eb	5a		 pop	 edx
$LL104@LoadFloat_@2:
  001ec	81 30 ed ec eb
	ea		 xor	 DWORD PTR [eax], -353637139 ; eaebecedH
  001f2	83 c0 04	 add	 eax, 4
  001f5	4a		 dec	 edx
  001f6	75 f4		 jne	 SHORT $LL104@LoadFloat_@2

; 137  : 		return LoadFloat(_k, f);

  001f8	f3 0f 10 45 0c	 movss	 xmm0, DWORD PTR _f$[ebp]
  001fd	80 75 f4 ed	 xor	 BYTE PTR __k$[ebp+16], -19 ; ffffffedH
  00201	51		 push	 ecx
  00202	8d 45 e4	 lea	 eax, DWORD PTR __k$[ebp]
  00205	f3 0f 11 04 24	 movss	 DWORD PTR [esp], xmm0
  0020a	50		 push	 eax
  0020b	8b ce		 mov	 ecx, esi
  0020d	ff 15 00 00 00
	00		 call	 DWORD PTR __imp_?LoadFloat@ioINILoader@@QAEMPBDM@Z

; 138  : 	}

  00213	8b 4d fc	 mov	 ecx, DWORD PTR __$ArrayPad$[ebp]
  00216	33 cd		 xor	 ecx, ebp
  00218	5e		 pop	 esi
  00219	e8 00 00 00 00	 call	 @__security_check_cookie@4
  0021e	c9		 leave
  0021f	c2 08 00	 ret	 8
??$LoadFloat_e@$0BC@@ioINILoader@@QAEMAAY0BC@$$CBDM@Z ENDP ; ioINILoader::LoadFloat_e<18>
_TEXT	ENDS
PUBLIC	__$ArrayPad$
PUBLIC	??$LoadBool_e@$0BA@@ioINILoader@@QAE_NAAY0BA@$$CBD_N@Z ; ioINILoader::LoadBool_e<16>
EXTRN	__imp_?LoadBool@ioINILoader@@QAE_NPBD_N@Z:PROC
; Function compile flags: /Ogsp
;	COMDAT ??$LoadBool_e@$0BA@@ioINILoader@@QAE_NAAY0BA@$$CBD_N@Z
_TEXT	SEGMENT
__k$ = -24						; size = 16
__$ArrayPad$ = -4					; size = 4
_k$ = 8							; size = 4
_b$ = 12						; size = 1
??$LoadBool_e@$0BA@@ioINILoader@@QAE_NAAY0BA@$$CBD_N@Z PROC ; ioINILoader::LoadBool_e<16>, COMDAT
; _this$ = ecx

; 101  : 	{

  00000	55		 push	 ebp
  00001	8b ec		 mov	 ebp, esp
  00003	83 ec 18	 sub	 esp, 24			; 00000018H
  00006	a1 00 00 00 00	 mov	 eax, DWORD PTR ___security_cookie
  0000b	33 c5		 xor	 eax, ebp
  0000d	89 45 fc	 mov	 DWORD PTR __$ArrayPad$[ebp], eax
  00010	8b 45 08	 mov	 eax, DWORD PTR _k$[ebp]

; 102  : 		_ENCSTR(k, _k);

  00013	8a 10		 mov	 dl, BYTE PTR [eax]
  00015	56		 push	 esi
  00016	8b f1		 mov	 esi, ecx
  00018	84 d2		 test	 dl, dl
  0001a	0f 84 8c 01 00
	00		 je	 $LN96@LoadBool_e
  00020	80 f2 ed	 xor	 dl, -19			; ffffffedH
  00023	88 55 e8	 mov	 BYTE PTR __k$[ebp], dl
  00026	8a 50 01	 mov	 dl, BYTE PTR [eax+1]
  00029	84 d2		 test	 dl, dl
  0002b	0f 84 75 01 00
	00		 je	 $LN95@LoadBool_e
  00031	80 f2 ec	 xor	 dl, -20			; ffffffecH
  00034	88 55 e9	 mov	 BYTE PTR __k$[ebp+1], dl
  00037	8a 50 02	 mov	 dl, BYTE PTR [eax+2]
  0003a	84 d2		 test	 dl, dl
  0003c	0f 84 5e 01 00
	00		 je	 $LN94@LoadBool_e
  00042	b1 eb		 mov	 cl, -21			; ffffffebH
  00044	32 d1		 xor	 dl, cl
  00046	88 55 ea	 mov	 BYTE PTR __k$[ebp+2], dl
  00049	8a 50 03	 mov	 dl, BYTE PTR [eax+3]
  0004c	84 d2		 test	 dl, dl
  0004e	0f 84 46 01 00
	00		 je	 $LN93@LoadBool_e
  00054	80 f2 ea	 xor	 dl, -22			; ffffffeaH
  00057	88 55 eb	 mov	 BYTE PTR __k$[ebp+3], dl
  0005a	8a 50 04	 mov	 dl, BYTE PTR [eax+4]
  0005d	84 d2		 test	 dl, dl
  0005f	0f 84 2f 01 00
	00		 je	 $LN92@LoadBool_e
  00065	80 f2 ed	 xor	 dl, -19			; ffffffedH
  00068	88 55 ec	 mov	 BYTE PTR __k$[ebp+4], dl
  0006b	8a 50 05	 mov	 dl, BYTE PTR [eax+5]
  0006e	84 d2		 test	 dl, dl
  00070	0f 84 18 01 00
	00		 je	 $LN91@LoadBool_e
  00076	80 f2 ec	 xor	 dl, -20			; ffffffecH
  00079	88 55 ed	 mov	 BYTE PTR __k$[ebp+5], dl
  0007c	8a 50 06	 mov	 dl, BYTE PTR [eax+6]
  0007f	84 d2		 test	 dl, dl
  00081	0f 84 02 01 00
	00		 je	 $LN90@LoadBool_e
  00087	32 d1		 xor	 dl, cl
  00089	88 55 ee	 mov	 BYTE PTR __k$[ebp+6], dl
  0008c	8a 50 07	 mov	 dl, BYTE PTR [eax+7]
  0008f	84 d2		 test	 dl, dl
  00091	0f 84 ec 00 00
	00		 je	 $LN89@LoadBool_e
  00097	80 f2 ea	 xor	 dl, -22			; ffffffeaH
  0009a	88 55 ef	 mov	 BYTE PTR __k$[ebp+7], dl
  0009d	8a 50 08	 mov	 dl, BYTE PTR [eax+8]
  000a0	84 d2		 test	 dl, dl
  000a2	0f 84 d5 00 00
	00		 je	 $LN88@LoadBool_e
  000a8	80 f2 ed	 xor	 dl, -19			; ffffffedH
  000ab	88 55 f0	 mov	 BYTE PTR __k$[ebp+8], dl
  000ae	8a 50 09	 mov	 dl, BYTE PTR [eax+9]
  000b1	84 d2		 test	 dl, dl
  000b3	0f 84 be 00 00
	00		 je	 $LN87@LoadBool_e
  000b9	80 f2 ec	 xor	 dl, -20			; ffffffecH
  000bc	88 55 f1	 mov	 BYTE PTR __k$[ebp+9], dl
  000bf	8a 50 0a	 mov	 dl, BYTE PTR [eax+10]
  000c2	84 d2		 test	 dl, dl
  000c4	0f 84 a8 00 00
	00		 je	 $LN86@LoadBool_e
  000ca	32 d1		 xor	 dl, cl
  000cc	88 55 f2	 mov	 BYTE PTR __k$[ebp+10], dl
  000cf	8a 50 0b	 mov	 dl, BYTE PTR [eax+11]
  000d2	84 d2		 test	 dl, dl
  000d4	0f 84 92 00 00
	00		 je	 $LN85@LoadBool_e
  000da	80 f2 ea	 xor	 dl, -22			; ffffffeaH
  000dd	88 55 f3	 mov	 BYTE PTR __k$[ebp+11], dl
  000e0	8a 50 0c	 mov	 dl, BYTE PTR [eax+12]
  000e3	84 d2		 test	 dl, dl
  000e5	74 7f		 je	 SHORT $LN84@LoadBool_e
  000e7	80 f2 ed	 xor	 dl, -19			; ffffffedH
  000ea	88 55 f4	 mov	 BYTE PTR __k$[ebp+12], dl
  000ed	8a 50 0d	 mov	 dl, BYTE PTR [eax+13]
  000f0	84 d2		 test	 dl, dl
  000f2	74 6c		 je	 SHORT $LN83@LoadBool_e
  000f4	80 f2 ec	 xor	 dl, -20			; ffffffecH
  000f7	88 55 f5	 mov	 BYTE PTR __k$[ebp+13], dl
  000fa	8a 50 0e	 mov	 dl, BYTE PTR [eax+14]
  000fd	84 d2		 test	 dl, dl
  000ff	74 5a		 je	 SHORT $LN82@LoadBool_e
  00101	32 d1		 xor	 dl, cl
  00103	80 78 0f 00	 cmp	 BYTE PTR [eax+15], 0
  00107	88 55 f6	 mov	 BYTE PTR __k$[ebp+14], dl
  0010a	0f 84 a0 00 00
	00		 je	 $LN1@LoadBool_e
  00110	8a 50 10	 mov	 dl, BYTE PTR [eax+16]
  00113	84 d2		 test	 dl, dl
  00115	74 3e		 je	 SHORT $LN80@LoadBool_e
  00117	80 f2 ed	 xor	 dl, -19			; ffffffedH
  0011a	88 55 f8	 mov	 BYTE PTR __k$[ebp+16], dl
  0011d	8a 50 11	 mov	 dl, BYTE PTR [eax+17]
  00120	84 d2		 test	 dl, dl
  00122	74 2b		 je	 SHORT $LN79@LoadBool_e
  00124	80 f2 ec	 xor	 dl, -20			; ffffffecH
  00127	88 55 f9	 mov	 BYTE PTR __k$[ebp+17], dl
  0012a	8a 50 12	 mov	 dl, BYTE PTR [eax+18]
  0012d	84 d2		 test	 dl, dl
  0012f	74 19		 je	 SHORT $LN78@LoadBool_e
  00131	8a 40 13	 mov	 al, BYTE PTR [eax+19]
  00134	32 d1		 xor	 dl, cl
  00136	88 55 fa	 mov	 BYTE PTR __k$[ebp+18], dl
  00139	84 c0		 test	 al, al
  0013b	74 07		 je	 SHORT $LN77@LoadBool_e
  0013d	34 ea		 xor	 al, -22			; ffffffeaH
  0013f	88 45 fb	 mov	 BYTE PTR __k$[ebp+19], al
  00142	eb 6c		 jmp	 SHORT $LN1@LoadBool_e
$LN77@LoadBool_e:
  00144	c6 45 fb ea	 mov	 BYTE PTR __k$[ebp+19], -22 ; ffffffeaH
  00148	eb 66		 jmp	 SHORT $LN1@LoadBool_e
$LN78@LoadBool_e:
  0014a	88 4d fa	 mov	 BYTE PTR __k$[ebp+18], cl
  0014d	eb 61		 jmp	 SHORT $LN1@LoadBool_e
$LN79@LoadBool_e:
  0014f	c6 45 f9 ec	 mov	 BYTE PTR __k$[ebp+17], -20 ; ffffffecH
  00153	eb 5b		 jmp	 SHORT $LN1@LoadBool_e
$LN80@LoadBool_e:
  00155	c6 45 f8 ed	 mov	 BYTE PTR __k$[ebp+16], -19 ; ffffffedH
  00159	eb 55		 jmp	 SHORT $LN1@LoadBool_e
$LN82@LoadBool_e:
  0015b	88 4d f6	 mov	 BYTE PTR __k$[ebp+14], cl
  0015e	eb 50		 jmp	 SHORT $LN1@LoadBool_e
$LN83@LoadBool_e:
  00160	c6 45 f5 ec	 mov	 BYTE PTR __k$[ebp+13], -20 ; ffffffecH
  00164	eb 4a		 jmp	 SHORT $LN1@LoadBool_e
$LN84@LoadBool_e:
  00166	c6 45 f4 ed	 mov	 BYTE PTR __k$[ebp+12], -19 ; ffffffedH
  0016a	eb 44		 jmp	 SHORT $LN1@LoadBool_e
$LN85@LoadBool_e:
  0016c	c6 45 f3 ea	 mov	 BYTE PTR __k$[ebp+11], -22 ; ffffffeaH
  00170	eb 3e		 jmp	 SHORT $LN1@LoadBool_e
$LN86@LoadBool_e:
  00172	88 4d f2	 mov	 BYTE PTR __k$[ebp+10], cl
  00175	eb 39		 jmp	 SHORT $LN1@LoadBool_e
$LN87@LoadBool_e:
  00177	c6 45 f1 ec	 mov	 BYTE PTR __k$[ebp+9], -20 ; ffffffecH
  0017b	eb 33		 jmp	 SHORT $LN1@LoadBool_e
$LN88@LoadBool_e:
  0017d	c6 45 f0 ed	 mov	 BYTE PTR __k$[ebp+8], -19 ; ffffffedH
  00181	eb 2d		 jmp	 SHORT $LN1@LoadBool_e
$LN89@LoadBool_e:
  00183	c6 45 ef ea	 mov	 BYTE PTR __k$[ebp+7], -22 ; ffffffeaH
  00187	eb 27		 jmp	 SHORT $LN1@LoadBool_e
$LN90@LoadBool_e:
  00189	88 4d ee	 mov	 BYTE PTR __k$[ebp+6], cl
  0018c	eb 22		 jmp	 SHORT $LN1@LoadBool_e
$LN91@LoadBool_e:
  0018e	c6 45 ed ec	 mov	 BYTE PTR __k$[ebp+5], -20 ; ffffffecH
  00192	eb 1c		 jmp	 SHORT $LN1@LoadBool_e
$LN92@LoadBool_e:
  00194	c6 45 ec ed	 mov	 BYTE PTR __k$[ebp+4], -19 ; ffffffedH
  00198	eb 16		 jmp	 SHORT $LN1@LoadBool_e
$LN93@LoadBool_e:
  0019a	c6 45 eb ea	 mov	 BYTE PTR __k$[ebp+3], -22 ; ffffffeaH
  0019e	eb 10		 jmp	 SHORT $LN1@LoadBool_e
$LN94@LoadBool_e:
  001a0	c6 45 ea eb	 mov	 BYTE PTR __k$[ebp+2], -21 ; ffffffebH
  001a4	eb 0a		 jmp	 SHORT $LN1@LoadBool_e
$LN95@LoadBool_e:
  001a6	c6 45 e9 ec	 mov	 BYTE PTR __k$[ebp+1], -20 ; ffffffecH
  001aa	eb 04		 jmp	 SHORT $LN1@LoadBool_e
$LN96@LoadBool_e:
  001ac	c6 45 e8 ed	 mov	 BYTE PTR __k$[ebp], -19	; ffffffedH
$LN1@LoadBool_e:
  001b0	6a 03		 push	 3
  001b2	8d 45 e8	 lea	 eax, DWORD PTR __k$[ebp]
  001b5	c6 45 f7 00	 mov	 BYTE PTR __k$[ebp+15], 0
  001b9	5a		 pop	 edx
$LL104@LoadBool_e:
  001ba	81 30 ed ec eb
	ea		 xor	 DWORD PTR [eax], -353637139 ; eaebecedH
  001c0	83 c0 04	 add	 eax, 4
  001c3	4a		 dec	 edx
  001c4	75 f4		 jne	 SHORT $LL104@LoadBool_e
  001c6	6a 0c		 push	 12			; 0000000cH
  001c8	58		 pop	 eax
$LL101@LoadBool_e:
  001c9	8b c8		 mov	 ecx, eax
  001cb	81 e1 03 00 00
	80		 and	 ecx, -2147483645	; 80000003H
  001d1	79 05		 jns	 SHORT $LN111@LoadBool_e
  001d3	49		 dec	 ecx
  001d4	83 c9 fc	 or	 ecx, -4			; fffffffcH
  001d7	41		 inc	 ecx
$LN111@LoadBool_e:
  001d8	b2 ed		 mov	 dl, -19			; ffffffedH
  001da	2a d1		 sub	 dl, cl
  001dc	30 54 05 e8	 xor	 BYTE PTR __k$[ebp+eax], dl
  001e0	40		 inc	 eax
  001e1	83 f8 0f	 cmp	 eax, 15			; 0000000fH
  001e4	7c e3		 jl	 SHORT $LL101@LoadBool_e

; 103  : 		return LoadBool(_k, b);

  001e6	ff 75 0c	 push	 DWORD PTR _b$[ebp]
  001e9	8d 45 e8	 lea	 eax, DWORD PTR __k$[ebp]
  001ec	50		 push	 eax
  001ed	8b ce		 mov	 ecx, esi
  001ef	ff 15 00 00 00
	00		 call	 DWORD PTR __imp_?LoadBool@ioINILoader@@QAE_NPBD_N@Z

; 104  : 	}

  001f5	8b 4d fc	 mov	 ecx, DWORD PTR __$ArrayPad$[ebp]
  001f8	33 cd		 xor	 ecx, ebp
  001fa	5e		 pop	 esi
  001fb	e8 00 00 00 00	 call	 @__security_check_cookie@4
  00200	c9		 leave
  00201	c2 08 00	 ret	 8
??$LoadBool_e@$0BA@@ioINILoader@@QAE_NAAY0BA@$$CBD_N@Z ENDP ; ioINILoader::LoadBool_e<16>
_TEXT	ENDS
PUBLIC	__$ArrayPad$
PUBLIC	??$LoadInt_e@$09@ioINILoader@@QAEHAAY09$$CBDH@Z	; ioINILoader::LoadInt_e<10>
; Function compile flags: /Ogsp
;	COMDAT ??$LoadInt_e@$09@ioINILoader@@QAEHAAY09$$CBDH@Z
_TEXT	SEGMENT
__k$ = -20						; size = 10
__$ArrayPad$ = -4					; size = 4
_k$ = 8							; size = 4
_i$ = 12						; size = 4
??$LoadInt_e@$09@ioINILoader@@QAEHAAY09$$CBDH@Z PROC	; ioINILoader::LoadInt_e<10>, COMDAT
; _this$ = ecx

; 118  : 	{

  00000	55		 push	 ebp
  00001	8b ec		 mov	 ebp, esp
  00003	83 ec 14	 sub	 esp, 20			; 00000014H
  00006	a1 00 00 00 00	 mov	 eax, DWORD PTR ___security_cookie
  0000b	33 c5		 xor	 eax, ebp
  0000d	89 45 fc	 mov	 DWORD PTR __$ArrayPad$[ebp], eax
  00010	8b 45 08	 mov	 eax, DWORD PTR _k$[ebp]

; 119  : 		_ENCSTR(k, _k);

  00013	8a 10		 mov	 dl, BYTE PTR [eax]
  00015	84 d2		 test	 dl, dl
  00017	0f 84 0d 01 00
	00		 je	 $LN96@LoadInt_e@4
  0001d	80 f2 ed	 xor	 dl, -19			; ffffffedH
  00020	88 55 ec	 mov	 BYTE PTR __k$[ebp], dl
  00023	8a 50 01	 mov	 dl, BYTE PTR [eax+1]
  00026	84 d2		 test	 dl, dl
  00028	0f 84 f6 00 00
	00		 je	 $LN95@LoadInt_e@4
  0002e	80 f2 ec	 xor	 dl, -20			; ffffffecH
  00031	88 55 ed	 mov	 BYTE PTR __k$[ebp+1], dl
  00034	8a 50 02	 mov	 dl, BYTE PTR [eax+2]
  00037	84 d2		 test	 dl, dl
  00039	0f 84 df 00 00
	00		 je	 $LN94@LoadInt_e@4
  0003f	80 f2 eb	 xor	 dl, -21			; ffffffebH
  00042	88 55 ee	 mov	 BYTE PTR __k$[ebp+2], dl
  00045	8a 50 03	 mov	 dl, BYTE PTR [eax+3]
  00048	84 d2		 test	 dl, dl
  0004a	0f 84 c8 00 00
	00		 je	 $LN93@LoadInt_e@4
  00050	80 f2 ea	 xor	 dl, -22			; ffffffeaH
  00053	88 55 ef	 mov	 BYTE PTR __k$[ebp+3], dl
  00056	8a 50 04	 mov	 dl, BYTE PTR [eax+4]
  00059	84 d2		 test	 dl, dl
  0005b	0f 84 b1 00 00
	00		 je	 $LN92@LoadInt_e@4
  00061	80 f2 ed	 xor	 dl, -19			; ffffffedH
  00064	88 55 f0	 mov	 BYTE PTR __k$[ebp+4], dl
  00067	8a 50 05	 mov	 dl, BYTE PTR [eax+5]
  0006a	84 d2		 test	 dl, dl
  0006c	0f 84 9a 00 00
	00		 je	 $LN91@LoadInt_e@4
  00072	80 f2 ec	 xor	 dl, -20			; ffffffecH
  00075	88 55 f1	 mov	 BYTE PTR __k$[ebp+5], dl
  00078	8a 50 06	 mov	 dl, BYTE PTR [eax+6]
  0007b	84 d2		 test	 dl, dl
  0007d	0f 84 83 00 00
	00		 je	 $LN90@LoadInt_e@4
  00083	80 f2 eb	 xor	 dl, -21			; ffffffebH
  00086	88 55 f2	 mov	 BYTE PTR __k$[ebp+6], dl
  00089	8a 50 07	 mov	 dl, BYTE PTR [eax+7]
  0008c	84 d2		 test	 dl, dl
  0008e	74 70		 je	 SHORT $LN89@LoadInt_e@4
  00090	80 f2 ea	 xor	 dl, -22			; ffffffeaH
  00093	88 55 f3	 mov	 BYTE PTR __k$[ebp+7], dl
  00096	8a 50 08	 mov	 dl, BYTE PTR [eax+8]
  00099	84 d2		 test	 dl, dl
  0009b	74 5d		 je	 SHORT $LN88@LoadInt_e@4
  0009d	80 f2 ed	 xor	 dl, -19			; ffffffedH
  000a0	80 78 09 00	 cmp	 BYTE PTR [eax+9], 0
  000a4	88 55 f4	 mov	 BYTE PTR __k$[ebp+8], dl
  000a7	0f 84 81 00 00
	00		 je	 $LN1@LoadInt_e@4
  000ad	8a 50 0a	 mov	 dl, BYTE PTR [eax+10]
  000b0	84 d2		 test	 dl, dl
  000b2	74 40		 je	 SHORT $LN86@LoadInt_e@4
  000b4	80 f2 eb	 xor	 dl, -21			; ffffffebH
  000b7	88 55 f6	 mov	 BYTE PTR __k$[ebp+10], dl
  000ba	8a 50 0b	 mov	 dl, BYTE PTR [eax+11]
  000bd	84 d2		 test	 dl, dl
  000bf	74 2d		 je	 SHORT $LN85@LoadInt_e@4
  000c1	80 f2 ea	 xor	 dl, -22			; ffffffeaH
  000c4	88 55 f7	 mov	 BYTE PTR __k$[ebp+11], dl
  000c7	8a 50 0c	 mov	 dl, BYTE PTR [eax+12]
  000ca	84 d2		 test	 dl, dl
  000cc	74 1a		 je	 SHORT $LN84@LoadInt_e@4
  000ce	8a 40 0d	 mov	 al, BYTE PTR [eax+13]
  000d1	80 f2 ed	 xor	 dl, -19			; ffffffedH
  000d4	88 55 f8	 mov	 BYTE PTR __k$[ebp+12], dl
  000d7	84 c0		 test	 al, al
  000d9	74 07		 je	 SHORT $LN83@LoadInt_e@4
  000db	34 ec		 xor	 al, -20			; ffffffecH
  000dd	88 45 f9	 mov	 BYTE PTR __k$[ebp+13], al
  000e0	eb 4c		 jmp	 SHORT $LN1@LoadInt_e@4
$LN83@LoadInt_e@4:
  000e2	c6 45 f9 ec	 mov	 BYTE PTR __k$[ebp+13], -20 ; ffffffecH
  000e6	eb 46		 jmp	 SHORT $LN1@LoadInt_e@4
$LN84@LoadInt_e@4:
  000e8	c6 45 f8 ed	 mov	 BYTE PTR __k$[ebp+12], -19 ; ffffffedH
  000ec	eb 40		 jmp	 SHORT $LN1@LoadInt_e@4
$LN85@LoadInt_e@4:
  000ee	c6 45 f7 ea	 mov	 BYTE PTR __k$[ebp+11], -22 ; ffffffeaH
  000f2	eb 3a		 jmp	 SHORT $LN1@LoadInt_e@4
$LN86@LoadInt_e@4:
  000f4	c6 45 f6 eb	 mov	 BYTE PTR __k$[ebp+10], -21 ; ffffffebH
  000f8	eb 34		 jmp	 SHORT $LN1@LoadInt_e@4
$LN88@LoadInt_e@4:
  000fa	c6 45 f4 ed	 mov	 BYTE PTR __k$[ebp+8], -19 ; ffffffedH
  000fe	eb 2e		 jmp	 SHORT $LN1@LoadInt_e@4
$LN89@LoadInt_e@4:
  00100	c6 45 f3 ea	 mov	 BYTE PTR __k$[ebp+7], -22 ; ffffffeaH
  00104	eb 28		 jmp	 SHORT $LN1@LoadInt_e@4
$LN90@LoadInt_e@4:
  00106	c6 45 f2 eb	 mov	 BYTE PTR __k$[ebp+6], -21 ; ffffffebH
  0010a	eb 22		 jmp	 SHORT $LN1@LoadInt_e@4
$LN91@LoadInt_e@4:
  0010c	c6 45 f1 ec	 mov	 BYTE PTR __k$[ebp+5], -20 ; ffffffecH
  00110	eb 1c		 jmp	 SHORT $LN1@LoadInt_e@4
$LN92@LoadInt_e@4:
  00112	c6 45 f0 ed	 mov	 BYTE PTR __k$[ebp+4], -19 ; ffffffedH
  00116	eb 16		 jmp	 SHORT $LN1@LoadInt_e@4
$LN93@LoadInt_e@4:
  00118	c6 45 ef ea	 mov	 BYTE PTR __k$[ebp+3], -22 ; ffffffeaH
  0011c	eb 10		 jmp	 SHORT $LN1@LoadInt_e@4
$LN94@LoadInt_e@4:
  0011e	c6 45 ee eb	 mov	 BYTE PTR __k$[ebp+2], -21 ; ffffffebH
  00122	eb 0a		 jmp	 SHORT $LN1@LoadInt_e@4
$LN95@LoadInt_e@4:
  00124	c6 45 ed ec	 mov	 BYTE PTR __k$[ebp+1], -20 ; ffffffecH
  00128	eb 04		 jmp	 SHORT $LN1@LoadInt_e@4
$LN96@LoadInt_e@4:
  0012a	c6 45 ec ed	 mov	 BYTE PTR __k$[ebp], -19	; ffffffedH
$LN1@LoadInt_e@4:
  0012e	6a 02		 push	 2
  00130	8d 45 ec	 lea	 eax, DWORD PTR __k$[ebp]
  00133	c6 45 f5 00	 mov	 BYTE PTR __k$[ebp+9], 0
  00137	5a		 pop	 edx
$LL104@LoadInt_e@4:
  00138	81 30 ed ec eb
	ea		 xor	 DWORD PTR [eax], -353637139 ; eaebecedH
  0013e	83 c0 04	 add	 eax, 4
  00141	4a		 dec	 edx
  00142	75 f4		 jne	 SHORT $LL104@LoadInt_e@4

; 120  : 		return LoadInt(_k, i);

  00144	ff 75 0c	 push	 DWORD PTR _i$[ebp]
  00147	80 75 f4 ed	 xor	 BYTE PTR __k$[ebp+8], -19 ; ffffffedH
  0014b	8d 45 ec	 lea	 eax, DWORD PTR __k$[ebp]
  0014e	50		 push	 eax
  0014f	ff 15 00 00 00
	00		 call	 DWORD PTR __imp_?LoadInt@ioINILoader@@QAEHPBDH@Z

; 121  : 	}

  00155	8b 4d fc	 mov	 ecx, DWORD PTR __$ArrayPad$[ebp]
  00158	33 cd		 xor	 ecx, ebp
  0015a	e8 00 00 00 00	 call	 @__security_check_cookie@4
  0015f	c9		 leave
  00160	c2 08 00	 ret	 8
??$LoadInt_e@$09@ioINILoader@@QAEHAAY09$$CBDH@Z ENDP	; ioINILoader::LoadInt_e<10>
_TEXT	ENDS
PUBLIC	__$ArrayPad$
PUBLIC	??$LoadFloat_e@$0BM@@ioINILoader@@QAEMAAY0BM@$$CBDM@Z ; ioINILoader::LoadFloat_e<28>
; Function compile flags: /Ogsp
;	COMDAT ??$LoadFloat_e@$0BM@@ioINILoader@@QAEMAAY0BM@$$CBDM@Z
_TEXT	SEGMENT
__k$ = -36						; size = 28
__$ArrayPad$ = -4					; size = 4
_k$ = 8							; size = 4
_f$ = 12						; size = 4
??$LoadFloat_e@$0BM@@ioINILoader@@QAEMAAY0BM@$$CBDM@Z PROC ; ioINILoader::LoadFloat_e<28>, COMDAT
; _this$ = ecx

; 135  : 	{

  00000	55		 push	 ebp
  00001	8b ec		 mov	 ebp, esp
  00003	83 ec 24	 sub	 esp, 36			; 00000024H
  00006	a1 00 00 00 00	 mov	 eax, DWORD PTR ___security_cookie
  0000b	33 c5		 xor	 eax, ebp
  0000d	89 45 fc	 mov	 DWORD PTR __$ArrayPad$[ebp], eax
  00010	8b 45 08	 mov	 eax, DWORD PTR _k$[ebp]

; 136  : 		_ENCSTR(k, _k);

  00013	8a 10		 mov	 dl, BYTE PTR [eax]
  00015	53		 push	 ebx
  00016	56		 push	 esi
  00017	8b f1		 mov	 esi, ecx
  00019	84 d2		 test	 dl, dl
  0001b	0f 84 a9 02 00
	00		 je	 $LN96@LoadFloat_@3
  00021	80 f2 ed	 xor	 dl, -19			; ffffffedH
  00024	88 55 dc	 mov	 BYTE PTR __k$[ebp], dl
  00027	8a 50 01	 mov	 dl, BYTE PTR [eax+1]
  0002a	84 d2		 test	 dl, dl
  0002c	0f 84 92 02 00
	00		 je	 $LN95@LoadFloat_@3
  00032	b3 ec		 mov	 bl, -20			; ffffffecH
  00034	32 d3		 xor	 dl, bl
  00036	88 55 dd	 mov	 BYTE PTR __k$[ebp+1], dl
  00039	8a 50 02	 mov	 dl, BYTE PTR [eax+2]
  0003c	84 d2		 test	 dl, dl
  0003e	0f 84 7a 02 00
	00		 je	 $LN94@LoadFloat_@3
  00044	b1 eb		 mov	 cl, -21			; ffffffebH
  00046	32 d1		 xor	 dl, cl
  00048	88 55 de	 mov	 BYTE PTR __k$[ebp+2], dl
  0004b	8a 50 03	 mov	 dl, BYTE PTR [eax+3]
  0004e	84 d2		 test	 dl, dl
  00050	0f 84 62 02 00
	00		 je	 $LN93@LoadFloat_@3
  00056	80 f2 ea	 xor	 dl, -22			; ffffffeaH
  00059	88 55 df	 mov	 BYTE PTR __k$[ebp+3], dl
  0005c	8a 50 04	 mov	 dl, BYTE PTR [eax+4]
  0005f	84 d2		 test	 dl, dl
  00061	0f 84 4b 02 00
	00		 je	 $LN92@LoadFloat_@3
  00067	80 f2 ed	 xor	 dl, -19			; ffffffedH
  0006a	88 55 e0	 mov	 BYTE PTR __k$[ebp+4], dl
  0006d	8a 50 05	 mov	 dl, BYTE PTR [eax+5]
  00070	84 d2		 test	 dl, dl
  00072	0f 84 35 02 00
	00		 je	 $LN91@LoadFloat_@3
  00078	32 d3		 xor	 dl, bl
  0007a	88 55 e1	 mov	 BYTE PTR __k$[ebp+5], dl
  0007d	8a 50 06	 mov	 dl, BYTE PTR [eax+6]
  00080	84 d2		 test	 dl, dl
  00082	0f 84 20 02 00
	00		 je	 $LN90@LoadFloat_@3
  00088	32 d1		 xor	 dl, cl
  0008a	88 55 e2	 mov	 BYTE PTR __k$[ebp+6], dl
  0008d	8a 50 07	 mov	 dl, BYTE PTR [eax+7]
  00090	84 d2		 test	 dl, dl
  00092	0f 84 0a 02 00
	00		 je	 $LN89@LoadFloat_@3
  00098	80 f2 ea	 xor	 dl, -22			; ffffffeaH
  0009b	88 55 e3	 mov	 BYTE PTR __k$[ebp+7], dl
  0009e	8a 50 08	 mov	 dl, BYTE PTR [eax+8]
  000a1	84 d2		 test	 dl, dl
  000a3	0f 84 f3 01 00
	00		 je	 $LN88@LoadFloat_@3
  000a9	80 f2 ed	 xor	 dl, -19			; ffffffedH
  000ac	88 55 e4	 mov	 BYTE PTR __k$[ebp+8], dl
  000af	8a 50 09	 mov	 dl, BYTE PTR [eax+9]
  000b2	84 d2		 test	 dl, dl
  000b4	0f 84 dd 01 00
	00		 je	 $LN87@LoadFloat_@3
  000ba	32 d3		 xor	 dl, bl
  000bc	88 55 e5	 mov	 BYTE PTR __k$[ebp+9], dl
  000bf	8a 50 0a	 mov	 dl, BYTE PTR [eax+10]
  000c2	84 d2		 test	 dl, dl
  000c4	0f 84 c8 01 00
	00		 je	 $LN86@LoadFloat_@3
  000ca	32 d1		 xor	 dl, cl
  000cc	88 55 e6	 mov	 BYTE PTR __k$[ebp+10], dl
  000cf	8a 50 0b	 mov	 dl, BYTE PTR [eax+11]
  000d2	84 d2		 test	 dl, dl
  000d4	0f 84 b2 01 00
	00		 je	 $LN85@LoadFloat_@3
  000da	80 f2 ea	 xor	 dl, -22			; ffffffeaH
  000dd	88 55 e7	 mov	 BYTE PTR __k$[ebp+11], dl
  000e0	8a 50 0c	 mov	 dl, BYTE PTR [eax+12]
  000e3	84 d2		 test	 dl, dl
  000e5	0f 84 9b 01 00
	00		 je	 $LN84@LoadFloat_@3
  000eb	80 f2 ed	 xor	 dl, -19			; ffffffedH
  000ee	88 55 e8	 mov	 BYTE PTR __k$[ebp+12], dl
  000f1	8a 50 0d	 mov	 dl, BYTE PTR [eax+13]
  000f4	84 d2		 test	 dl, dl
  000f6	0f 84 85 01 00
	00		 je	 $LN83@LoadFloat_@3
  000fc	32 d3		 xor	 dl, bl
  000fe	88 55 e9	 mov	 BYTE PTR __k$[ebp+13], dl
  00101	8a 50 0e	 mov	 dl, BYTE PTR [eax+14]
  00104	84 d2		 test	 dl, dl
  00106	0f 84 70 01 00
	00		 je	 $LN82@LoadFloat_@3
  0010c	32 d1		 xor	 dl, cl
  0010e	88 55 ea	 mov	 BYTE PTR __k$[ebp+14], dl
  00111	8a 50 0f	 mov	 dl, BYTE PTR [eax+15]
  00114	84 d2		 test	 dl, dl
  00116	0f 84 5a 01 00
	00		 je	 $LN81@LoadFloat_@3
  0011c	80 f2 ea	 xor	 dl, -22			; ffffffeaH
  0011f	88 55 eb	 mov	 BYTE PTR __k$[ebp+15], dl
  00122	8a 50 10	 mov	 dl, BYTE PTR [eax+16]
  00125	84 d2		 test	 dl, dl
  00127	0f 84 43 01 00
	00		 je	 $LN80@LoadFloat_@3
  0012d	80 f2 ed	 xor	 dl, -19			; ffffffedH
  00130	88 55 ec	 mov	 BYTE PTR __k$[ebp+16], dl
  00133	8a 50 11	 mov	 dl, BYTE PTR [eax+17]
  00136	84 d2		 test	 dl, dl
  00138	0f 84 2d 01 00
	00		 je	 $LN79@LoadFloat_@3
  0013e	32 d3		 xor	 dl, bl
  00140	88 55 ed	 mov	 BYTE PTR __k$[ebp+17], dl
  00143	8a 50 12	 mov	 dl, BYTE PTR [eax+18]
  00146	84 d2		 test	 dl, dl
  00148	0f 84 18 01 00
	00		 je	 $LN78@LoadFloat_@3
  0014e	32 d1		 xor	 dl, cl
  00150	88 55 ee	 mov	 BYTE PTR __k$[ebp+18], dl
  00153	8a 50 13	 mov	 dl, BYTE PTR [eax+19]
  00156	84 d2		 test	 dl, dl
  00158	0f 84 02 01 00
	00		 je	 $LN77@LoadFloat_@3
  0015e	80 f2 ea	 xor	 dl, -22			; ffffffeaH
  00161	88 55 ef	 mov	 BYTE PTR __k$[ebp+19], dl
  00164	8a 50 14	 mov	 dl, BYTE PTR [eax+20]
  00167	84 d2		 test	 dl, dl
  00169	0f 84 eb 00 00
	00		 je	 $LN76@LoadFloat_@3
  0016f	80 f2 ed	 xor	 dl, -19			; ffffffedH
  00172	88 55 f0	 mov	 BYTE PTR __k$[ebp+20], dl
  00175	8a 50 15	 mov	 dl, BYTE PTR [eax+21]
  00178	84 d2		 test	 dl, dl
  0017a	0f 84 d5 00 00
	00		 je	 $LN75@LoadFloat_@3
  00180	32 d3		 xor	 dl, bl
  00182	88 55 f1	 mov	 BYTE PTR __k$[ebp+21], dl
  00185	8a 50 16	 mov	 dl, BYTE PTR [eax+22]
  00188	84 d2		 test	 dl, dl
  0018a	0f 84 c0 00 00
	00		 je	 $LN74@LoadFloat_@3
  00190	32 d1		 xor	 dl, cl
  00192	88 55 f2	 mov	 BYTE PTR __k$[ebp+22], dl
  00195	8a 50 17	 mov	 dl, BYTE PTR [eax+23]
  00198	84 d2		 test	 dl, dl
  0019a	0f 84 aa 00 00
	00		 je	 $LN73@LoadFloat_@3
  001a0	80 f2 ea	 xor	 dl, -22			; ffffffeaH
  001a3	88 55 f3	 mov	 BYTE PTR __k$[ebp+23], dl
  001a6	8a 50 18	 mov	 dl, BYTE PTR [eax+24]
  001a9	84 d2		 test	 dl, dl
  001ab	0f 84 90 00 00
	00		 je	 $LN72@LoadFloat_@3
  001b1	80 f2 ed	 xor	 dl, -19			; ffffffedH
  001b4	88 55 f4	 mov	 BYTE PTR __k$[ebp+24], dl
  001b7	8a 50 19	 mov	 dl, BYTE PTR [eax+25]
  001ba	84 d2		 test	 dl, dl
  001bc	74 7b		 je	 SHORT $LN71@LoadFloat_@3
  001be	32 d3		 xor	 dl, bl
  001c0	88 55 f5	 mov	 BYTE PTR __k$[ebp+25], dl
  001c3	8a 50 1a	 mov	 dl, BYTE PTR [eax+26]
  001c6	84 d2		 test	 dl, dl
  001c8	74 67		 je	 SHORT $LN70@LoadFloat_@3
  001ca	32 d1		 xor	 dl, cl
  001cc	80 78 1b 00	 cmp	 BYTE PTR [eax+27], 0
  001d0	88 55 f6	 mov	 BYTE PTR __k$[ebp+26], dl
  001d3	0f 84 f5 00 00
	00		 je	 $LN1@LoadFloat_@3
  001d9	8a 50 1c	 mov	 dl, BYTE PTR [eax+28]
  001dc	84 d2		 test	 dl, dl
  001de	74 48		 je	 SHORT $LN68@LoadFloat_@3
  001e0	80 f2 ed	 xor	 dl, -19			; ffffffedH
  001e3	88 55 f8	 mov	 BYTE PTR __k$[ebp+28], dl
  001e6	8a 50 1d	 mov	 dl, BYTE PTR [eax+29]
  001e9	84 d2		 test	 dl, dl
  001eb	74 33		 je	 SHORT $LN67@LoadFloat_@3
  001ed	32 d3		 xor	 dl, bl
  001ef	88 55 f9	 mov	 BYTE PTR __k$[ebp+29], dl
  001f2	8a 50 1e	 mov	 dl, BYTE PTR [eax+30]
  001f5	84 d2		 test	 dl, dl
  001f7	74 1f		 je	 SHORT $LN66@LoadFloat_@3
  001f9	8a 40 1f	 mov	 al, BYTE PTR [eax+31]
  001fc	32 d1		 xor	 dl, cl
  001fe	88 55 fa	 mov	 BYTE PTR __k$[ebp+30], dl
  00201	84 c0		 test	 al, al
  00203	74 0a		 je	 SHORT $LN65@LoadFloat_@3
  00205	34 ea		 xor	 al, -22			; ffffffeaH
  00207	88 45 fb	 mov	 BYTE PTR __k$[ebp+31], al
  0020a	e9 bf 00 00 00	 jmp	 $LN1@LoadFloat_@3
$LN65@LoadFloat_@3:
  0020f	c6 45 fb ea	 mov	 BYTE PTR __k$[ebp+31], -22 ; ffffffeaH
  00213	e9 b6 00 00 00	 jmp	 $LN1@LoadFloat_@3
$LN66@LoadFloat_@3:
  00218	88 4d fa	 mov	 BYTE PTR __k$[ebp+30], cl
  0021b	e9 ae 00 00 00	 jmp	 $LN1@LoadFloat_@3
$LN67@LoadFloat_@3:
  00220	88 5d f9	 mov	 BYTE PTR __k$[ebp+29], bl
  00223	e9 a6 00 00 00	 jmp	 $LN1@LoadFloat_@3
$LN68@LoadFloat_@3:
  00228	c6 45 f8 ed	 mov	 BYTE PTR __k$[ebp+28], -19 ; ffffffedH
  0022c	e9 9d 00 00 00	 jmp	 $LN1@LoadFloat_@3
$LN70@LoadFloat_@3:
  00231	88 4d f6	 mov	 BYTE PTR __k$[ebp+26], cl
  00234	e9 95 00 00 00	 jmp	 $LN1@LoadFloat_@3
$LN71@LoadFloat_@3:
  00239	88 5d f5	 mov	 BYTE PTR __k$[ebp+25], bl
  0023c	e9 8d 00 00 00	 jmp	 $LN1@LoadFloat_@3
$LN72@LoadFloat_@3:
  00241	c6 45 f4 ed	 mov	 BYTE PTR __k$[ebp+24], -19 ; ffffffedH
  00245	e9 84 00 00 00	 jmp	 $LN1@LoadFloat_@3
$LN73@LoadFloat_@3:
  0024a	c6 45 f3 ea	 mov	 BYTE PTR __k$[ebp+23], -22 ; ffffffeaH
  0024e	eb 7e		 jmp	 SHORT $LN1@LoadFloat_@3
$LN74@LoadFloat_@3:
  00250	88 4d f2	 mov	 BYTE PTR __k$[ebp+22], cl
  00253	eb 79		 jmp	 SHORT $LN1@LoadFloat_@3
$LN75@LoadFloat_@3:
  00255	88 5d f1	 mov	 BYTE PTR __k$[ebp+21], bl
  00258	eb 74		 jmp	 SHORT $LN1@LoadFloat_@3
$LN76@LoadFloat_@3:
  0025a	c6 45 f0 ed	 mov	 BYTE PTR __k$[ebp+20], -19 ; ffffffedH
  0025e	eb 6e		 jmp	 SHORT $LN1@LoadFloat_@3
$LN77@LoadFloat_@3:
  00260	c6 45 ef ea	 mov	 BYTE PTR __k$[ebp+19], -22 ; ffffffeaH
  00264	eb 68		 jmp	 SHORT $LN1@LoadFloat_@3
$LN78@LoadFloat_@3:
  00266	88 4d ee	 mov	 BYTE PTR __k$[ebp+18], cl
  00269	eb 63		 jmp	 SHORT $LN1@LoadFloat_@3
$LN79@LoadFloat_@3:
  0026b	88 5d ed	 mov	 BYTE PTR __k$[ebp+17], bl
  0026e	eb 5e		 jmp	 SHORT $LN1@LoadFloat_@3
$LN80@LoadFloat_@3:
  00270	c6 45 ec ed	 mov	 BYTE PTR __k$[ebp+16], -19 ; ffffffedH
  00274	eb 58		 jmp	 SHORT $LN1@LoadFloat_@3
$LN81@LoadFloat_@3:
  00276	c6 45 eb ea	 mov	 BYTE PTR __k$[ebp+15], -22 ; ffffffeaH
  0027a	eb 52		 jmp	 SHORT $LN1@LoadFloat_@3
$LN82@LoadFloat_@3:
  0027c	88 4d ea	 mov	 BYTE PTR __k$[ebp+14], cl
  0027f	eb 4d		 jmp	 SHORT $LN1@LoadFloat_@3
$LN83@LoadFloat_@3:
  00281	88 5d e9	 mov	 BYTE PTR __k$[ebp+13], bl
  00284	eb 48		 jmp	 SHORT $LN1@LoadFloat_@3
$LN84@LoadFloat_@3:
  00286	c6 45 e8 ed	 mov	 BYTE PTR __k$[ebp+12], -19 ; ffffffedH
  0028a	eb 42		 jmp	 SHORT $LN1@LoadFloat_@3
$LN85@LoadFloat_@3:
  0028c	c6 45 e7 ea	 mov	 BYTE PTR __k$[ebp+11], -22 ; ffffffeaH
  00290	eb 3c		 jmp	 SHORT $LN1@LoadFloat_@3
$LN86@LoadFloat_@3:
  00292	88 4d e6	 mov	 BYTE PTR __k$[ebp+10], cl
  00295	eb 37		 jmp	 SHORT $LN1@LoadFloat_@3
$LN87@LoadFloat_@3:
  00297	88 5d e5	 mov	 BYTE PTR __k$[ebp+9], bl
  0029a	eb 32		 jmp	 SHORT $LN1@LoadFloat_@3
$LN88@LoadFloat_@3:
  0029c	c6 45 e4 ed	 mov	 BYTE PTR __k$[ebp+8], -19 ; ffffffedH
  002a0	eb 2c		 jmp	 SHORT $LN1@LoadFloat_@3
$LN89@LoadFloat_@3:
  002a2	c6 45 e3 ea	 mov	 BYTE PTR __k$[ebp+7], -22 ; ffffffeaH
  002a6	eb 26		 jmp	 SHORT $LN1@LoadFloat_@3
$LN90@LoadFloat_@3:
  002a8	88 4d e2	 mov	 BYTE PTR __k$[ebp+6], cl
  002ab	eb 21		 jmp	 SHORT $LN1@LoadFloat_@3
$LN91@LoadFloat_@3:
  002ad	88 5d e1	 mov	 BYTE PTR __k$[ebp+5], bl
  002b0	eb 1c		 jmp	 SHORT $LN1@LoadFloat_@3
$LN92@LoadFloat_@3:
  002b2	c6 45 e0 ed	 mov	 BYTE PTR __k$[ebp+4], -19 ; ffffffedH
  002b6	eb 16		 jmp	 SHORT $LN1@LoadFloat_@3
$LN93@LoadFloat_@3:
  002b8	c6 45 df ea	 mov	 BYTE PTR __k$[ebp+3], -22 ; ffffffeaH
  002bc	eb 10		 jmp	 SHORT $LN1@LoadFloat_@3
$LN94@LoadFloat_@3:
  002be	c6 45 de eb	 mov	 BYTE PTR __k$[ebp+2], -21 ; ffffffebH
  002c2	eb 0a		 jmp	 SHORT $LN1@LoadFloat_@3
$LN95@LoadFloat_@3:
  002c4	c6 45 dd ec	 mov	 BYTE PTR __k$[ebp+1], -20 ; ffffffecH
  002c8	eb 04		 jmp	 SHORT $LN1@LoadFloat_@3
$LN96@LoadFloat_@3:
  002ca	c6 45 dc ed	 mov	 BYTE PTR __k$[ebp], -19	; ffffffedH
$LN1@LoadFloat_@3:
  002ce	6a 06		 push	 6
  002d0	8d 45 dc	 lea	 eax, DWORD PTR __k$[ebp]
  002d3	c6 45 f7 00	 mov	 BYTE PTR __k$[ebp+27], 0
  002d7	5a		 pop	 edx
$LL104@LoadFloat_@3:
  002d8	81 30 ed ec eb
	ea		 xor	 DWORD PTR [eax], -353637139 ; eaebecedH
  002de	83 c0 04	 add	 eax, 4
  002e1	4a		 dec	 edx
  002e2	75 f4		 jne	 SHORT $LL104@LoadFloat_@3
  002e4	6a 18		 push	 24			; 00000018H
  002e6	58		 pop	 eax
$LL101@LoadFloat_@3:
  002e7	8b c8		 mov	 ecx, eax
  002e9	81 e1 03 00 00
	80		 and	 ecx, -2147483645	; 80000003H
  002ef	79 05		 jns	 SHORT $LN111@LoadFloat_@3
  002f1	49		 dec	 ecx
  002f2	83 c9 fc	 or	 ecx, -4			; fffffffcH
  002f5	41		 inc	 ecx
$LN111@LoadFloat_@3:
  002f6	b2 ed		 mov	 dl, -19			; ffffffedH
  002f8	2a d1		 sub	 dl, cl
  002fa	30 54 05 dc	 xor	 BYTE PTR __k$[ebp+eax], dl
  002fe	40		 inc	 eax
  002ff	83 f8 1b	 cmp	 eax, 27			; 0000001bH
  00302	7c e3		 jl	 SHORT $LL101@LoadFloat_@3

; 137  : 		return LoadFloat(_k, f);

  00304	f3 0f 10 45 0c	 movss	 xmm0, DWORD PTR _f$[ebp]
  00309	51		 push	 ecx
  0030a	8d 45 dc	 lea	 eax, DWORD PTR __k$[ebp]
  0030d	f3 0f 11 04 24	 movss	 DWORD PTR [esp], xmm0
  00312	50		 push	 eax
  00313	8b ce		 mov	 ecx, esi
  00315	ff 15 00 00 00
	00		 call	 DWORD PTR __imp_?LoadFloat@ioINILoader@@QAEMPBDM@Z

; 138  : 	}

  0031b	8b 4d fc	 mov	 ecx, DWORD PTR __$ArrayPad$[ebp]
  0031e	5e		 pop	 esi
  0031f	33 cd		 xor	 ecx, ebp
  00321	5b		 pop	 ebx
  00322	e8 00 00 00 00	 call	 @__security_check_cookie@4
  00327	c9		 leave
  00328	c2 08 00	 ret	 8
??$LoadFloat_e@$0BM@@ioINILoader@@QAEMAAY0BM@$$CBDM@Z ENDP ; ioINILoader::LoadFloat_e<28>
_TEXT	ENDS
PUBLIC	__$ArrayPad$
PUBLIC	??$LoadFloat_e@$0BJ@@ioINILoader@@QAEMAAY0BJ@$$CBDM@Z ; ioINILoader::LoadFloat_e<25>
; Function compile flags: /Ogsp
;	COMDAT ??$LoadFloat_e@$0BJ@@ioINILoader@@QAEMAAY0BJ@$$CBDM@Z
_TEXT	SEGMENT
__k$ = -36						; size = 25
__$ArrayPad$ = -4					; size = 4
_k$ = 8							; size = 4
_f$ = 12						; size = 4
??$LoadFloat_e@$0BJ@@ioINILoader@@QAEMAAY0BJ@$$CBDM@Z PROC ; ioINILoader::LoadFloat_e<25>, COMDAT
; _this$ = ecx

; 135  : 	{

  00000	55		 push	 ebp
  00001	8b ec		 mov	 ebp, esp
  00003	83 ec 24	 sub	 esp, 36			; 00000024H
  00006	a1 00 00 00 00	 mov	 eax, DWORD PTR ___security_cookie
  0000b	33 c5		 xor	 eax, ebp
  0000d	89 45 fc	 mov	 DWORD PTR __$ArrayPad$[ebp], eax
  00010	8b 45 08	 mov	 eax, DWORD PTR _k$[ebp]

; 136  : 		_ENCSTR(k, _k);

  00013	8a 10		 mov	 dl, BYTE PTR [eax]
  00015	53		 push	 ebx
  00016	56		 push	 esi
  00017	8b f1		 mov	 esi, ecx
  00019	84 d2		 test	 dl, dl
  0001b	0f 84 5f 02 00
	00		 je	 $LN96@LoadFloat_@4
  00021	80 f2 ed	 xor	 dl, -19			; ffffffedH
  00024	88 55 dc	 mov	 BYTE PTR __k$[ebp], dl
  00027	8a 50 01	 mov	 dl, BYTE PTR [eax+1]
  0002a	84 d2		 test	 dl, dl
  0002c	0f 84 48 02 00
	00		 je	 $LN95@LoadFloat_@4
  00032	b1 ec		 mov	 cl, -20			; ffffffecH
  00034	32 d1		 xor	 dl, cl
  00036	88 55 dd	 mov	 BYTE PTR __k$[ebp+1], dl
  00039	8a 50 02	 mov	 dl, BYTE PTR [eax+2]
  0003c	84 d2		 test	 dl, dl
  0003e	0f 84 30 02 00
	00		 je	 $LN94@LoadFloat_@4
  00044	b3 eb		 mov	 bl, -21			; ffffffebH
  00046	32 d3		 xor	 dl, bl
  00048	88 55 de	 mov	 BYTE PTR __k$[ebp+2], dl
  0004b	8a 50 03	 mov	 dl, BYTE PTR [eax+3]
  0004e	84 d2		 test	 dl, dl
  00050	0f 84 18 02 00
	00		 je	 $LN93@LoadFloat_@4
  00056	80 f2 ea	 xor	 dl, -22			; ffffffeaH
  00059	88 55 df	 mov	 BYTE PTR __k$[ebp+3], dl
  0005c	8a 50 04	 mov	 dl, BYTE PTR [eax+4]
  0005f	84 d2		 test	 dl, dl
  00061	0f 84 01 02 00
	00		 je	 $LN92@LoadFloat_@4
  00067	80 f2 ed	 xor	 dl, -19			; ffffffedH
  0006a	88 55 e0	 mov	 BYTE PTR __k$[ebp+4], dl
  0006d	8a 50 05	 mov	 dl, BYTE PTR [eax+5]
  00070	84 d2		 test	 dl, dl
  00072	0f 84 eb 01 00
	00		 je	 $LN91@LoadFloat_@4
  00078	32 d1		 xor	 dl, cl
  0007a	88 55 e1	 mov	 BYTE PTR __k$[ebp+5], dl
  0007d	8a 50 06	 mov	 dl, BYTE PTR [eax+6]
  00080	84 d2		 test	 dl, dl
  00082	0f 84 d6 01 00
	00		 je	 $LN90@LoadFloat_@4
  00088	32 d3		 xor	 dl, bl
  0008a	88 55 e2	 mov	 BYTE PTR __k$[ebp+6], dl
  0008d	8a 50 07	 mov	 dl, BYTE PTR [eax+7]
  00090	84 d2		 test	 dl, dl
  00092	0f 84 c0 01 00
	00		 je	 $LN89@LoadFloat_@4
  00098	80 f2 ea	 xor	 dl, -22			; ffffffeaH
  0009b	88 55 e3	 mov	 BYTE PTR __k$[ebp+7], dl
  0009e	8a 50 08	 mov	 dl, BYTE PTR [eax+8]
  000a1	84 d2		 test	 dl, dl
  000a3	0f 84 a9 01 00
	00		 je	 $LN88@LoadFloat_@4
  000a9	80 f2 ed	 xor	 dl, -19			; ffffffedH
  000ac	88 55 e4	 mov	 BYTE PTR __k$[ebp+8], dl
  000af	8a 50 09	 mov	 dl, BYTE PTR [eax+9]
  000b2	84 d2		 test	 dl, dl
  000b4	0f 84 93 01 00
	00		 je	 $LN87@LoadFloat_@4
  000ba	32 d1		 xor	 dl, cl
  000bc	88 55 e5	 mov	 BYTE PTR __k$[ebp+9], dl
  000bf	8a 50 0a	 mov	 dl, BYTE PTR [eax+10]
  000c2	84 d2		 test	 dl, dl
  000c4	0f 84 7e 01 00
	00		 je	 $LN86@LoadFloat_@4
  000ca	32 d3		 xor	 dl, bl
  000cc	88 55 e6	 mov	 BYTE PTR __k$[ebp+10], dl
  000cf	8a 50 0b	 mov	 dl, BYTE PTR [eax+11]
  000d2	84 d2		 test	 dl, dl
  000d4	0f 84 68 01 00
	00		 je	 $LN85@LoadFloat_@4
  000da	80 f2 ea	 xor	 dl, -22			; ffffffeaH
  000dd	88 55 e7	 mov	 BYTE PTR __k$[ebp+11], dl
  000e0	8a 50 0c	 mov	 dl, BYTE PTR [eax+12]
  000e3	84 d2		 test	 dl, dl
  000e5	0f 84 51 01 00
	00		 je	 $LN84@LoadFloat_@4
  000eb	80 f2 ed	 xor	 dl, -19			; ffffffedH
  000ee	88 55 e8	 mov	 BYTE PTR __k$[ebp+12], dl
  000f1	8a 50 0d	 mov	 dl, BYTE PTR [eax+13]
  000f4	84 d2		 test	 dl, dl
  000f6	0f 84 3b 01 00
	00		 je	 $LN83@LoadFloat_@4
  000fc	32 d1		 xor	 dl, cl
  000fe	88 55 e9	 mov	 BYTE PTR __k$[ebp+13], dl
  00101	8a 50 0e	 mov	 dl, BYTE PTR [eax+14]
  00104	84 d2		 test	 dl, dl
  00106	0f 84 26 01 00
	00		 je	 $LN82@LoadFloat_@4
  0010c	32 d3		 xor	 dl, bl
  0010e	88 55 ea	 mov	 BYTE PTR __k$[ebp+14], dl
  00111	8a 50 0f	 mov	 dl, BYTE PTR [eax+15]
  00114	84 d2		 test	 dl, dl
  00116	0f 84 10 01 00
	00		 je	 $LN81@LoadFloat_@4
  0011c	80 f2 ea	 xor	 dl, -22			; ffffffeaH
  0011f	88 55 eb	 mov	 BYTE PTR __k$[ebp+15], dl
  00122	8a 50 10	 mov	 dl, BYTE PTR [eax+16]
  00125	84 d2		 test	 dl, dl
  00127	0f 84 f9 00 00
	00		 je	 $LN80@LoadFloat_@4
  0012d	80 f2 ed	 xor	 dl, -19			; ffffffedH
  00130	88 55 ec	 mov	 BYTE PTR __k$[ebp+16], dl
  00133	8a 50 11	 mov	 dl, BYTE PTR [eax+17]
  00136	84 d2		 test	 dl, dl
  00138	0f 84 e3 00 00
	00		 je	 $LN79@LoadFloat_@4
  0013e	32 d1		 xor	 dl, cl
  00140	88 55 ed	 mov	 BYTE PTR __k$[ebp+17], dl
  00143	8a 50 12	 mov	 dl, BYTE PTR [eax+18]
  00146	84 d2		 test	 dl, dl
  00148	0f 84 ce 00 00
	00		 je	 $LN78@LoadFloat_@4
  0014e	32 d3		 xor	 dl, bl
  00150	88 55 ee	 mov	 BYTE PTR __k$[ebp+18], dl
  00153	8a 50 13	 mov	 dl, BYTE PTR [eax+19]
  00156	84 d2		 test	 dl, dl
  00158	0f 84 b8 00 00
	00		 je	 $LN77@LoadFloat_@4
  0015e	80 f2 ea	 xor	 dl, -22			; ffffffeaH
  00161	88 55 ef	 mov	 BYTE PTR __k$[ebp+19], dl
  00164	8a 50 14	 mov	 dl, BYTE PTR [eax+20]
  00167	84 d2		 test	 dl, dl
  00169	0f 84 a1 00 00
	00		 je	 $LN76@LoadFloat_@4
  0016f	80 f2 ed	 xor	 dl, -19			; ffffffedH
  00172	88 55 f0	 mov	 BYTE PTR __k$[ebp+20], dl
  00175	8a 50 15	 mov	 dl, BYTE PTR [eax+21]
  00178	84 d2		 test	 dl, dl
  0017a	0f 84 8b 00 00
	00		 je	 $LN75@LoadFloat_@4
  00180	32 d1		 xor	 dl, cl
  00182	88 55 f1	 mov	 BYTE PTR __k$[ebp+21], dl
  00185	8a 50 16	 mov	 dl, BYTE PTR [eax+22]
  00188	84 d2		 test	 dl, dl
  0018a	74 7a		 je	 SHORT $LN74@LoadFloat_@4
  0018c	32 d3		 xor	 dl, bl
  0018e	88 55 f2	 mov	 BYTE PTR __k$[ebp+22], dl
  00191	8a 50 17	 mov	 dl, BYTE PTR [eax+23]
  00194	84 d2		 test	 dl, dl
  00196	74 68		 je	 SHORT $LN73@LoadFloat_@4
  00198	80 f2 ea	 xor	 dl, -22			; ffffffeaH
  0019b	80 78 18 00	 cmp	 BYTE PTR [eax+24], 0
  0019f	88 55 f3	 mov	 BYTE PTR __k$[ebp+23], dl
  001a2	0f 84 dc 00 00
	00		 je	 $LN1@LoadFloat_@4
  001a8	8a 50 19	 mov	 dl, BYTE PTR [eax+25]
  001ab	84 d2		 test	 dl, dl
  001ad	74 49		 je	 SHORT $LN71@LoadFloat_@4
  001af	32 d1		 xor	 dl, cl
  001b1	88 55 f5	 mov	 BYTE PTR __k$[ebp+25], dl
  001b4	8a 50 1a	 mov	 dl, BYTE PTR [eax+26]
  001b7	84 d2		 test	 dl, dl
  001b9	74 35		 je	 SHORT $LN70@LoadFloat_@4
  001bb	32 d3		 xor	 dl, bl
  001bd	88 55 f6	 mov	 BYTE PTR __k$[ebp+26], dl
  001c0	8a 50 1b	 mov	 dl, BYTE PTR [eax+27]
  001c3	84 d2		 test	 dl, dl
  001c5	74 20		 je	 SHORT $LN69@LoadFloat_@4
  001c7	8a 40 1c	 mov	 al, BYTE PTR [eax+28]
  001ca	80 f2 ea	 xor	 dl, -22			; ffffffeaH
  001cd	88 55 f7	 mov	 BYTE PTR __k$[ebp+27], dl
  001d0	84 c0		 test	 al, al
  001d2	74 0a		 je	 SHORT $LN68@LoadFloat_@4
  001d4	34 ed		 xor	 al, -19			; ffffffedH
  001d6	88 45 f8	 mov	 BYTE PTR __k$[ebp+28], al
  001d9	e9 a6 00 00 00	 jmp	 $LN1@LoadFloat_@4
$LN68@LoadFloat_@4:
  001de	c6 45 f8 ed	 mov	 BYTE PTR __k$[ebp+28], -19 ; ffffffedH
  001e2	e9 9d 00 00 00	 jmp	 $LN1@LoadFloat_@4
$LN69@LoadFloat_@4:
  001e7	c6 45 f7 ea	 mov	 BYTE PTR __k$[ebp+27], -22 ; ffffffeaH
  001eb	e9 94 00 00 00	 jmp	 $LN1@LoadFloat_@4
$LN70@LoadFloat_@4:
  001f0	88 5d f6	 mov	 BYTE PTR __k$[ebp+26], bl
  001f3	e9 8c 00 00 00	 jmp	 $LN1@LoadFloat_@4
$LN71@LoadFloat_@4:
  001f8	88 4d f5	 mov	 BYTE PTR __k$[ebp+25], cl
  001fb	e9 84 00 00 00	 jmp	 $LN1@LoadFloat_@4
$LN73@LoadFloat_@4:
  00200	c6 45 f3 ea	 mov	 BYTE PTR __k$[ebp+23], -22 ; ffffffeaH
  00204	eb 7e		 jmp	 SHORT $LN1@LoadFloat_@4
$LN74@LoadFloat_@4:
  00206	88 5d f2	 mov	 BYTE PTR __k$[ebp+22], bl
  00209	eb 79		 jmp	 SHORT $LN1@LoadFloat_@4
$LN75@LoadFloat_@4:
  0020b	88 4d f1	 mov	 BYTE PTR __k$[ebp+21], cl
  0020e	eb 74		 jmp	 SHORT $LN1@LoadFloat_@4
$LN76@LoadFloat_@4:
  00210	c6 45 f0 ed	 mov	 BYTE PTR __k$[ebp+20], -19 ; ffffffedH
  00214	eb 6e		 jmp	 SHORT $LN1@LoadFloat_@4
$LN77@LoadFloat_@4:
  00216	c6 45 ef ea	 mov	 BYTE PTR __k$[ebp+19], -22 ; ffffffeaH
  0021a	eb 68		 jmp	 SHORT $LN1@LoadFloat_@4
$LN78@LoadFloat_@4:
  0021c	88 5d ee	 mov	 BYTE PTR __k$[ebp+18], bl
  0021f	eb 63		 jmp	 SHORT $LN1@LoadFloat_@4
$LN79@LoadFloat_@4:
  00221	88 4d ed	 mov	 BYTE PTR __k$[ebp+17], cl
  00224	eb 5e		 jmp	 SHORT $LN1@LoadFloat_@4
$LN80@LoadFloat_@4:
  00226	c6 45 ec ed	 mov	 BYTE PTR __k$[ebp+16], -19 ; ffffffedH
  0022a	eb 58		 jmp	 SHORT $LN1@LoadFloat_@4
$LN81@LoadFloat_@4:
  0022c	c6 45 eb ea	 mov	 BYTE PTR __k$[ebp+15], -22 ; ffffffeaH
  00230	eb 52		 jmp	 SHORT $LN1@LoadFloat_@4
$LN82@LoadFloat_@4:
  00232	88 5d ea	 mov	 BYTE PTR __k$[ebp+14], bl
  00235	eb 4d		 jmp	 SHORT $LN1@LoadFloat_@4
$LN83@LoadFloat_@4:
  00237	88 4d e9	 mov	 BYTE PTR __k$[ebp+13], cl
  0023a	eb 48		 jmp	 SHORT $LN1@LoadFloat_@4
$LN84@LoadFloat_@4:
  0023c	c6 45 e8 ed	 mov	 BYTE PTR __k$[ebp+12], -19 ; ffffffedH
  00240	eb 42		 jmp	 SHORT $LN1@LoadFloat_@4
$LN85@LoadFloat_@4:
  00242	c6 45 e7 ea	 mov	 BYTE PTR __k$[ebp+11], -22 ; ffffffeaH
  00246	eb 3c		 jmp	 SHORT $LN1@LoadFloat_@4
$LN86@LoadFloat_@4:
  00248	88 5d e6	 mov	 BYTE PTR __k$[ebp+10], bl
  0024b	eb 37		 jmp	 SHORT $LN1@LoadFloat_@4
$LN87@LoadFloat_@4:
  0024d	88 4d e5	 mov	 BYTE PTR __k$[ebp+9], cl
  00250	eb 32		 jmp	 SHORT $LN1@LoadFloat_@4
$LN88@LoadFloat_@4:
  00252	c6 45 e4 ed	 mov	 BYTE PTR __k$[ebp+8], -19 ; ffffffedH
  00256	eb 2c		 jmp	 SHORT $LN1@LoadFloat_@4
$LN89@LoadFloat_@4:
  00258	c6 45 e3 ea	 mov	 BYTE PTR __k$[ebp+7], -22 ; ffffffeaH
  0025c	eb 26		 jmp	 SHORT $LN1@LoadFloat_@4
$LN90@LoadFloat_@4:
  0025e	88 5d e2	 mov	 BYTE PTR __k$[ebp+6], bl
  00261	eb 21		 jmp	 SHORT $LN1@LoadFloat_@4
$LN91@LoadFloat_@4:
  00263	88 4d e1	 mov	 BYTE PTR __k$[ebp+5], cl
  00266	eb 1c		 jmp	 SHORT $LN1@LoadFloat_@4
$LN92@LoadFloat_@4:
  00268	c6 45 e0 ed	 mov	 BYTE PTR __k$[ebp+4], -19 ; ffffffedH
  0026c	eb 16		 jmp	 SHORT $LN1@LoadFloat_@4
$LN93@LoadFloat_@4:
  0026e	c6 45 df ea	 mov	 BYTE PTR __k$[ebp+3], -22 ; ffffffeaH
  00272	eb 10		 jmp	 SHORT $LN1@LoadFloat_@4
$LN94@LoadFloat_@4:
  00274	c6 45 de eb	 mov	 BYTE PTR __k$[ebp+2], -21 ; ffffffebH
  00278	eb 0a		 jmp	 SHORT $LN1@LoadFloat_@4
$LN95@LoadFloat_@4:
  0027a	c6 45 dd ec	 mov	 BYTE PTR __k$[ebp+1], -20 ; ffffffecH
  0027e	eb 04		 jmp	 SHORT $LN1@LoadFloat_@4
$LN96@LoadFloat_@4:
  00280	c6 45 dc ed	 mov	 BYTE PTR __k$[ebp], -19	; ffffffedH
$LN1@LoadFloat_@4:
  00284	6a 06		 push	 6
  00286	8d 45 dc	 lea	 eax, DWORD PTR __k$[ebp]
  00289	c6 45 f4 00	 mov	 BYTE PTR __k$[ebp+24], 0
  0028d	5a		 pop	 edx
$LL104@LoadFloat_@4:
  0028e	81 30 ed ec eb
	ea		 xor	 DWORD PTR [eax], -353637139 ; eaebecedH
  00294	83 c0 04	 add	 eax, 4
  00297	4a		 dec	 edx
  00298	75 f4		 jne	 SHORT $LL104@LoadFloat_@4

; 137  : 		return LoadFloat(_k, f);

  0029a	f3 0f 10 45 0c	 movss	 xmm0, DWORD PTR _f$[ebp]
  0029f	51		 push	 ecx
  002a0	8d 45 dc	 lea	 eax, DWORD PTR __k$[ebp]
  002a3	f3 0f 11 04 24	 movss	 DWORD PTR [esp], xmm0
  002a8	50		 push	 eax
  002a9	8b ce		 mov	 ecx, esi
  002ab	ff 15 00 00 00
	00		 call	 DWORD PTR __imp_?LoadFloat@ioINILoader@@QAEMPBDM@Z

; 138  : 	}

  002b1	8b 4d fc	 mov	 ecx, DWORD PTR __$ArrayPad$[ebp]
  002b4	5e		 pop	 esi
  002b5	33 cd		 xor	 ecx, ebp
  002b7	5b		 pop	 ebx
  002b8	e8 00 00 00 00	 call	 @__security_check_cookie@4
  002bd	c9		 leave
  002be	c2 08 00	 ret	 8
??$LoadFloat_e@$0BJ@@ioINILoader@@QAEMAAY0BJ@$$CBDM@Z ENDP ; ioINILoader::LoadFloat_e<25>
_TEXT	ENDS
PUBLIC	__$ArrayPad$
PUBLIC	??$LoadInt_e@$0M@@ioINILoader@@QAEHAAY0M@$$CBDH@Z ; ioINILoader::LoadInt_e<12>
; Function compile flags: /Ogsp
;	COMDAT ??$LoadInt_e@$0M@@ioINILoader@@QAEHAAY0M@$$CBDH@Z
_TEXT	SEGMENT
__k$ = -20						; size = 12
__$ArrayPad$ = -4					; size = 4
_k$ = 8							; size = 4
_i$ = 12						; size = 4
??$LoadInt_e@$0M@@ioINILoader@@QAEHAAY0M@$$CBDH@Z PROC	; ioINILoader::LoadInt_e<12>, COMDAT
; _this$ = ecx

; 118  : 	{

  00000	55		 push	 ebp
  00001	8b ec		 mov	 ebp, esp
  00003	83 ec 14	 sub	 esp, 20			; 00000014H
  00006	a1 00 00 00 00	 mov	 eax, DWORD PTR ___security_cookie
  0000b	33 c5		 xor	 eax, ebp
  0000d	89 45 fc	 mov	 DWORD PTR __$ArrayPad$[ebp], eax
  00010	8b 45 08	 mov	 eax, DWORD PTR _k$[ebp]

; 119  : 		_ENCSTR(k, _k);

  00013	8a 10		 mov	 dl, BYTE PTR [eax]
  00015	56		 push	 esi
  00016	8b f1		 mov	 esi, ecx
  00018	84 d2		 test	 dl, dl
  0001a	0f 84 32 01 00
	00		 je	 $LN96@LoadInt_e@5
  00020	80 f2 ed	 xor	 dl, -19			; ffffffedH
  00023	88 55 ec	 mov	 BYTE PTR __k$[ebp], dl
  00026	8a 50 01	 mov	 dl, BYTE PTR [eax+1]
  00029	84 d2		 test	 dl, dl
  0002b	0f 84 1b 01 00
	00		 je	 $LN95@LoadInt_e@5
  00031	80 f2 ec	 xor	 dl, -20			; ffffffecH
  00034	88 55 ed	 mov	 BYTE PTR __k$[ebp+1], dl
  00037	8a 50 02	 mov	 dl, BYTE PTR [eax+2]
  0003a	84 d2		 test	 dl, dl
  0003c	0f 84 04 01 00
	00		 je	 $LN94@LoadInt_e@5
  00042	b1 eb		 mov	 cl, -21			; ffffffebH
  00044	32 d1		 xor	 dl, cl
  00046	88 55 ee	 mov	 BYTE PTR __k$[ebp+2], dl
  00049	8a 50 03	 mov	 dl, BYTE PTR [eax+3]
  0004c	84 d2		 test	 dl, dl
  0004e	0f 84 ec 00 00
	00		 je	 $LN93@LoadInt_e@5
  00054	80 f2 ea	 xor	 dl, -22			; ffffffeaH
  00057	88 55 ef	 mov	 BYTE PTR __k$[ebp+3], dl
  0005a	8a 50 04	 mov	 dl, BYTE PTR [eax+4]
  0005d	84 d2		 test	 dl, dl
  0005f	0f 84 d5 00 00
	00		 je	 $LN92@LoadInt_e@5
  00065	80 f2 ed	 xor	 dl, -19			; ffffffedH
  00068	88 55 f0	 mov	 BYTE PTR __k$[ebp+4], dl
  0006b	8a 50 05	 mov	 dl, BYTE PTR [eax+5]
  0006e	84 d2		 test	 dl, dl
  00070	0f 84 be 00 00
	00		 je	 $LN91@LoadInt_e@5
  00076	80 f2 ec	 xor	 dl, -20			; ffffffecH
  00079	88 55 f1	 mov	 BYTE PTR __k$[ebp+5], dl
  0007c	8a 50 06	 mov	 dl, BYTE PTR [eax+6]
  0007f	84 d2		 test	 dl, dl
  00081	0f 84 a8 00 00
	00		 je	 $LN90@LoadInt_e@5
  00087	32 d1		 xor	 dl, cl
  00089	88 55 f2	 mov	 BYTE PTR __k$[ebp+6], dl
  0008c	8a 50 07	 mov	 dl, BYTE PTR [eax+7]
  0008f	84 d2		 test	 dl, dl
  00091	0f 84 92 00 00
	00		 je	 $LN89@LoadInt_e@5
  00097	80 f2 ea	 xor	 dl, -22			; ffffffeaH
  0009a	88 55 f3	 mov	 BYTE PTR __k$[ebp+7], dl
  0009d	8a 50 08	 mov	 dl, BYTE PTR [eax+8]
  000a0	84 d2		 test	 dl, dl
  000a2	74 7f		 je	 SHORT $LN88@LoadInt_e@5
  000a4	80 f2 ed	 xor	 dl, -19			; ffffffedH
  000a7	88 55 f4	 mov	 BYTE PTR __k$[ebp+8], dl
  000aa	8a 50 09	 mov	 dl, BYTE PTR [eax+9]
  000ad	84 d2		 test	 dl, dl
  000af	74 6c		 je	 SHORT $LN87@LoadInt_e@5
  000b1	80 f2 ec	 xor	 dl, -20			; ffffffecH
  000b4	88 55 f5	 mov	 BYTE PTR __k$[ebp+9], dl
  000b7	8a 50 0a	 mov	 dl, BYTE PTR [eax+10]
  000ba	84 d2		 test	 dl, dl
  000bc	74 5a		 je	 SHORT $LN86@LoadInt_e@5
  000be	32 d1		 xor	 dl, cl
  000c0	80 78 0b 00	 cmp	 BYTE PTR [eax+11], 0
  000c4	88 55 f6	 mov	 BYTE PTR __k$[ebp+10], dl
  000c7	0f 84 89 00 00
	00		 je	 $LN1@LoadInt_e@5
  000cd	8a 50 0c	 mov	 dl, BYTE PTR [eax+12]
  000d0	84 d2		 test	 dl, dl
  000d2	74 3e		 je	 SHORT $LN84@LoadInt_e@5
  000d4	80 f2 ed	 xor	 dl, -19			; ffffffedH
  000d7	88 55 f8	 mov	 BYTE PTR __k$[ebp+12], dl
  000da	8a 50 0d	 mov	 dl, BYTE PTR [eax+13]
  000dd	84 d2		 test	 dl, dl
  000df	74 2b		 je	 SHORT $LN83@LoadInt_e@5
  000e1	80 f2 ec	 xor	 dl, -20			; ffffffecH
  000e4	88 55 f9	 mov	 BYTE PTR __k$[ebp+13], dl
  000e7	8a 50 0e	 mov	 dl, BYTE PTR [eax+14]
  000ea	84 d2		 test	 dl, dl
  000ec	74 19		 je	 SHORT $LN82@LoadInt_e@5
  000ee	8a 40 0f	 mov	 al, BYTE PTR [eax+15]
  000f1	32 d1		 xor	 dl, cl
  000f3	88 55 fa	 mov	 BYTE PTR __k$[ebp+14], dl
  000f6	84 c0		 test	 al, al
  000f8	74 07		 je	 SHORT $LN81@LoadInt_e@5
  000fa	34 ea		 xor	 al, -22			; ffffffeaH
  000fc	88 45 fb	 mov	 BYTE PTR __k$[ebp+15], al
  000ff	eb 55		 jmp	 SHORT $LN1@LoadInt_e@5
$LN81@LoadInt_e@5:
  00101	c6 45 fb ea	 mov	 BYTE PTR __k$[ebp+15], -22 ; ffffffeaH
  00105	eb 4f		 jmp	 SHORT $LN1@LoadInt_e@5
$LN82@LoadInt_e@5:
  00107	88 4d fa	 mov	 BYTE PTR __k$[ebp+14], cl
  0010a	eb 4a		 jmp	 SHORT $LN1@LoadInt_e@5
$LN83@LoadInt_e@5:
  0010c	c6 45 f9 ec	 mov	 BYTE PTR __k$[ebp+13], -20 ; ffffffecH
  00110	eb 44		 jmp	 SHORT $LN1@LoadInt_e@5
$LN84@LoadInt_e@5:
  00112	c6 45 f8 ed	 mov	 BYTE PTR __k$[ebp+12], -19 ; ffffffedH
  00116	eb 3e		 jmp	 SHORT $LN1@LoadInt_e@5
$LN86@LoadInt_e@5:
  00118	88 4d f6	 mov	 BYTE PTR __k$[ebp+10], cl
  0011b	eb 39		 jmp	 SHORT $LN1@LoadInt_e@5
$LN87@LoadInt_e@5:
  0011d	c6 45 f5 ec	 mov	 BYTE PTR __k$[ebp+9], -20 ; ffffffecH
  00121	eb 33		 jmp	 SHORT $LN1@LoadInt_e@5
$LN88@LoadInt_e@5:
  00123	c6 45 f4 ed	 mov	 BYTE PTR __k$[ebp+8], -19 ; ffffffedH
  00127	eb 2d		 jmp	 SHORT $LN1@LoadInt_e@5
$LN89@LoadInt_e@5:
  00129	c6 45 f3 ea	 mov	 BYTE PTR __k$[ebp+7], -22 ; ffffffeaH
  0012d	eb 27		 jmp	 SHORT $LN1@LoadInt_e@5
$LN90@LoadInt_e@5:
  0012f	88 4d f2	 mov	 BYTE PTR __k$[ebp+6], cl
  00132	eb 22		 jmp	 SHORT $LN1@LoadInt_e@5
$LN91@LoadInt_e@5:
  00134	c6 45 f1 ec	 mov	 BYTE PTR __k$[ebp+5], -20 ; ffffffecH
  00138	eb 1c		 jmp	 SHORT $LN1@LoadInt_e@5
$LN92@LoadInt_e@5:
  0013a	c6 45 f0 ed	 mov	 BYTE PTR __k$[ebp+4], -19 ; ffffffedH
  0013e	eb 16		 jmp	 SHORT $LN1@LoadInt_e@5
$LN93@LoadInt_e@5:
  00140	c6 45 ef ea	 mov	 BYTE PTR __k$[ebp+3], -22 ; ffffffeaH
  00144	eb 10		 jmp	 SHORT $LN1@LoadInt_e@5
$LN94@LoadInt_e@5:
  00146	c6 45 ee eb	 mov	 BYTE PTR __k$[ebp+2], -21 ; ffffffebH
  0014a	eb 0a		 jmp	 SHORT $LN1@LoadInt_e@5
$LN95@LoadInt_e@5:
  0014c	c6 45 ed ec	 mov	 BYTE PTR __k$[ebp+1], -20 ; ffffffecH
  00150	eb 04		 jmp	 SHORT $LN1@LoadInt_e@5
$LN96@LoadInt_e@5:
  00152	c6 45 ec ed	 mov	 BYTE PTR __k$[ebp], -19	; ffffffedH
$LN1@LoadInt_e@5:
  00156	6a 02		 push	 2
  00158	8d 45 ec	 lea	 eax, DWORD PTR __k$[ebp]
  0015b	c6 45 f7 00	 mov	 BYTE PTR __k$[ebp+11], 0
  0015f	5a		 pop	 edx
$LL104@LoadInt_e@5:
  00160	81 30 ed ec eb
	ea		 xor	 DWORD PTR [eax], -353637139 ; eaebecedH
  00166	83 c0 04	 add	 eax, 4
  00169	4a		 dec	 edx
  0016a	75 f4		 jne	 SHORT $LL104@LoadInt_e@5
  0016c	6a 08		 push	 8
  0016e	58		 pop	 eax
$LL101@LoadInt_e@5:
  0016f	8b c8		 mov	 ecx, eax
  00171	81 e1 03 00 00
	80		 and	 ecx, -2147483645	; 80000003H
  00177	79 05		 jns	 SHORT $LN111@LoadInt_e@5
  00179	49		 dec	 ecx
  0017a	83 c9 fc	 or	 ecx, -4			; fffffffcH
  0017d	41		 inc	 ecx
$LN111@LoadInt_e@5:
  0017e	b2 ed		 mov	 dl, -19			; ffffffedH
  00180	2a d1		 sub	 dl, cl
  00182	30 54 05 ec	 xor	 BYTE PTR __k$[ebp+eax], dl
  00186	40		 inc	 eax
  00187	83 f8 0b	 cmp	 eax, 11			; 0000000bH
  0018a	7c e3		 jl	 SHORT $LL101@LoadInt_e@5

; 120  : 		return LoadInt(_k, i);

  0018c	ff 75 0c	 push	 DWORD PTR _i$[ebp]
  0018f	8d 45 ec	 lea	 eax, DWORD PTR __k$[ebp]
  00192	50		 push	 eax
  00193	8b ce		 mov	 ecx, esi
  00195	ff 15 00 00 00
	00		 call	 DWORD PTR __imp_?LoadInt@ioINILoader@@QAEHPBDH@Z

; 121  : 	}

  0019b	8b 4d fc	 mov	 ecx, DWORD PTR __$ArrayPad$[ebp]
  0019e	33 cd		 xor	 ecx, ebp
  001a0	5e		 pop	 esi
  001a1	e8 00 00 00 00	 call	 @__security_check_cookie@4
  001a6	c9		 leave
  001a7	c2 08 00	 ret	 8
??$LoadInt_e@$0M@@ioINILoader@@QAEHAAY0M@$$CBDH@Z ENDP	; ioINILoader::LoadInt_e<12>
_TEXT	ENDS
PUBLIC	??$GetAnimationEventTime_e@$0N@@ioEntityGroup@@QAEMHAAY0N@$$CBD@Z ; ioEntityGroup::GetAnimationEventTime_e<13>
EXTRN	__imp_?GetAnimationEventTime@ioEntityGroup@@QAEMHABVioHashString@@@Z:PROC
EXTRN	__imp_??0ioHashString@@QAE@PBD@Z:PROC
EXTRN	__EH_epilog3_GS:PROC
EXTRN	__EH_prolog3_GS:PROC
;	COMDAT xdata$x
; File d:\lost saga for developer\youtube\tutorial\source\src\lsclient\stringprotect.h
xdata$x	SEGMENT
__unwindtable$??$GetAnimationEventTime_e@$0N@@ioEntityGroup@@QAEMHAAY0N@$$CBD@Z DD 0ffffffffH
	DD	FLAT:__unwindfunclet$??$GetAnimationEventTime_e@$0N@@ioEntityGroup@@QAEMHAAY0N@$$CBD@Z$0
__ehfuncinfo$??$GetAnimationEventTime_e@$0N@@ioEntityGroup@@QAEMHAAY0N@$$CBD@Z DD 019930522H
	DD	01H
	DD	FLAT:__unwindtable$??$GetAnimationEventTime_e@$0N@@ioEntityGroup@@QAEMHAAY0N@$$CBD@Z
	DD	2 DUP(00H)
	DD	2 DUP(00H)
	DD	00H
	DD	01H
; Function compile flags: /Ogsp
; File d:\lost saga for developer\youtube\tutorial\source\src\io3dengine\ioentitygroup.h
xdata$x	ENDS
;	COMDAT ??$GetAnimationEventTime_e@$0N@@ioEntityGroup@@QAEMHAAY0N@$$CBD@Z
_TEXT	SEGMENT
$T555030 = -56						; size = 16
$T555029 = -40						; size = 4
_szEncEventType$ = -36					; size = 13
__$EHRec$ = -12						; size = 12
_id$ = 8						; size = 4
_szEventType$ = 12					; size = 4
??$GetAnimationEventTime_e@$0N@@ioEntityGroup@@QAEMHAAY0N@$$CBD@Z PROC ; ioEntityGroup::GetAnimationEventTime_e<13>, COMDAT
; _this$ = ecx

; 414  : 	{

  00000	6a 2c		 push	 44			; 0000002cH
  00002	b8 00 00 00 00	 mov	 eax, __ehhandler$??$GetAnimationEventTime_e@$0N@@ioEntityGroup@@QAEMHAAY0N@$$CBD@Z
  00007	e8 00 00 00 00	 call	 __EH_prolog3_GS
  0000c	8b 45 0c	 mov	 eax, DWORD PTR _szEventType$[ebp]
  0000f	8b f1		 mov	 esi, ecx

; 415  : 		_ENCSTR(szEventType, szEncEventType);

  00011	8a 08		 mov	 cl, BYTE PTR [eax]
  00013	84 c9		 test	 cl, cl
  00015	0f 84 49 01 00
	00		 je	 $LN96@GetAnimati
  0001b	80 f1 ed	 xor	 cl, -19			; ffffffedH
  0001e	88 4d dc	 mov	 BYTE PTR _szEncEventType$[ebp], cl
  00021	8a 48 01	 mov	 cl, BYTE PTR [eax+1]
  00024	84 c9		 test	 cl, cl
  00026	0f 84 32 01 00
	00		 je	 $LN95@GetAnimati
  0002c	80 f1 ec	 xor	 cl, -20			; ffffffecH
  0002f	88 4d dd	 mov	 BYTE PTR _szEncEventType$[ebp+1], cl
  00032	8a 48 02	 mov	 cl, BYTE PTR [eax+2]
  00035	84 c9		 test	 cl, cl
  00037	0f 84 1b 01 00
	00		 je	 $LN94@GetAnimati
  0003d	b2 eb		 mov	 dl, -21			; ffffffebH
  0003f	32 ca		 xor	 cl, dl
  00041	88 4d de	 mov	 BYTE PTR _szEncEventType$[ebp+2], cl
  00044	8a 48 03	 mov	 cl, BYTE PTR [eax+3]
  00047	84 c9		 test	 cl, cl
  00049	0f 84 03 01 00
	00		 je	 $LN93@GetAnimati
  0004f	80 f1 ea	 xor	 cl, -22			; ffffffeaH
  00052	88 4d df	 mov	 BYTE PTR _szEncEventType$[ebp+3], cl
  00055	8a 48 04	 mov	 cl, BYTE PTR [eax+4]
  00058	84 c9		 test	 cl, cl
  0005a	0f 84 ec 00 00
	00		 je	 $LN92@GetAnimati
  00060	80 f1 ed	 xor	 cl, -19			; ffffffedH
  00063	88 4d e0	 mov	 BYTE PTR _szEncEventType$[ebp+4], cl
  00066	8a 48 05	 mov	 cl, BYTE PTR [eax+5]
  00069	84 c9		 test	 cl, cl
  0006b	0f 84 d5 00 00
	00		 je	 $LN91@GetAnimati
  00071	80 f1 ec	 xor	 cl, -20			; ffffffecH
  00074	88 4d e1	 mov	 BYTE PTR _szEncEventType$[ebp+5], cl
  00077	8a 48 06	 mov	 cl, BYTE PTR [eax+6]
  0007a	84 c9		 test	 cl, cl
  0007c	0f 84 bf 00 00
	00		 je	 $LN90@GetAnimati
  00082	32 ca		 xor	 cl, dl
  00084	88 4d e2	 mov	 BYTE PTR _szEncEventType$[ebp+6], cl
  00087	8a 48 07	 mov	 cl, BYTE PTR [eax+7]
  0008a	84 c9		 test	 cl, cl
  0008c	0f 84 a9 00 00
	00		 je	 $LN89@GetAnimati
  00092	80 f1 ea	 xor	 cl, -22			; ffffffeaH
  00095	88 4d e3	 mov	 BYTE PTR _szEncEventType$[ebp+7], cl
  00098	8a 48 08	 mov	 cl, BYTE PTR [eax+8]
  0009b	84 c9		 test	 cl, cl
  0009d	0f 84 92 00 00
	00		 je	 $LN88@GetAnimati
  000a3	80 f1 ed	 xor	 cl, -19			; ffffffedH
  000a6	88 4d e4	 mov	 BYTE PTR _szEncEventType$[ebp+8], cl
  000a9	8a 48 09	 mov	 cl, BYTE PTR [eax+9]
  000ac	84 c9		 test	 cl, cl
  000ae	74 7f		 je	 SHORT $LN87@GetAnimati
  000b0	80 f1 ec	 xor	 cl, -20			; ffffffecH
  000b3	88 4d e5	 mov	 BYTE PTR _szEncEventType$[ebp+9], cl
  000b6	8a 48 0a	 mov	 cl, BYTE PTR [eax+10]
  000b9	84 c9		 test	 cl, cl
  000bb	74 6d		 je	 SHORT $LN86@GetAnimati
  000bd	32 ca		 xor	 cl, dl
  000bf	88 4d e6	 mov	 BYTE PTR _szEncEventType$[ebp+10], cl
  000c2	8a 48 0b	 mov	 cl, BYTE PTR [eax+11]
  000c5	84 c9		 test	 cl, cl
  000c7	74 5b		 je	 SHORT $LN85@GetAnimati
  000c9	80 f1 ea	 xor	 cl, -22			; ffffffeaH
  000cc	80 78 0c 00	 cmp	 BYTE PTR [eax+12], 0
  000d0	88 4d e7	 mov	 BYTE PTR _szEncEventType$[ebp+11], cl
  000d3	0f 84 8f 00 00
	00		 je	 $LN1@GetAnimati
  000d9	8a 48 0d	 mov	 cl, BYTE PTR [eax+13]
  000dc	84 c9		 test	 cl, cl
  000de	74 3e		 je	 SHORT $LN83@GetAnimati
  000e0	80 f1 ec	 xor	 cl, -20			; ffffffecH
  000e3	88 4d e9	 mov	 BYTE PTR _szEncEventType$[ebp+13], cl
  000e6	8a 48 0e	 mov	 cl, BYTE PTR [eax+14]
  000e9	84 c9		 test	 cl, cl
  000eb	74 2c		 je	 SHORT $LN82@GetAnimati
  000ed	32 ca		 xor	 cl, dl
  000ef	88 4d ea	 mov	 BYTE PTR _szEncEventType$[ebp+14], cl
  000f2	8a 48 0f	 mov	 cl, BYTE PTR [eax+15]
  000f5	84 c9		 test	 cl, cl
  000f7	74 1a		 je	 SHORT $LN81@GetAnimati
  000f9	8a 40 10	 mov	 al, BYTE PTR [eax+16]
  000fc	80 f1 ea	 xor	 cl, -22			; ffffffeaH
  000ff	88 4d eb	 mov	 BYTE PTR _szEncEventType$[ebp+15], cl
  00102	84 c0		 test	 al, al
  00104	74 07		 je	 SHORT $LN80@GetAnimati
  00106	34 ed		 xor	 al, -19			; ffffffedH
  00108	88 45 ec	 mov	 BYTE PTR _szEncEventType$[ebp+16], al
  0010b	eb 5b		 jmp	 SHORT $LN1@GetAnimati
$LN80@GetAnimati:
  0010d	c6 45 ec ed	 mov	 BYTE PTR _szEncEventType$[ebp+16], -19 ; ffffffedH
  00111	eb 55		 jmp	 SHORT $LN1@GetAnimati
$LN81@GetAnimati:
  00113	c6 45 eb ea	 mov	 BYTE PTR _szEncEventType$[ebp+15], -22 ; ffffffeaH
  00117	eb 4f		 jmp	 SHORT $LN1@GetAnimati
$LN82@GetAnimati:
  00119	88 55 ea	 mov	 BYTE PTR _szEncEventType$[ebp+14], dl
  0011c	eb 4a		 jmp	 SHORT $LN1@GetAnimati
$LN83@GetAnimati:
  0011e	c6 45 e9 ec	 mov	 BYTE PTR _szEncEventType$[ebp+13], -20 ; ffffffecH
  00122	eb 44		 jmp	 SHORT $LN1@GetAnimati
$LN85@GetAnimati:
  00124	c6 45 e7 ea	 mov	 BYTE PTR _szEncEventType$[ebp+11], -22 ; ffffffeaH
  00128	eb 3e		 jmp	 SHORT $LN1@GetAnimati
$LN86@GetAnimati:
  0012a	88 55 e6	 mov	 BYTE PTR _szEncEventType$[ebp+10], dl
  0012d	eb 39		 jmp	 SHORT $LN1@GetAnimati
$LN87@GetAnimati:
  0012f	c6 45 e5 ec	 mov	 BYTE PTR _szEncEventType$[ebp+9], -20 ; ffffffecH
  00133	eb 33		 jmp	 SHORT $LN1@GetAnimati
$LN88@GetAnimati:
  00135	c6 45 e4 ed	 mov	 BYTE PTR _szEncEventType$[ebp+8], -19 ; ffffffedH
  00139	eb 2d		 jmp	 SHORT $LN1@GetAnimati
$LN89@GetAnimati:
  0013b	c6 45 e3 ea	 mov	 BYTE PTR _szEncEventType$[ebp+7], -22 ; ffffffeaH
  0013f	eb 27		 jmp	 SHORT $LN1@GetAnimati
$LN90@GetAnimati:
  00141	88 55 e2	 mov	 BYTE PTR _szEncEventType$[ebp+6], dl
  00144	eb 22		 jmp	 SHORT $LN1@GetAnimati
$LN91@GetAnimati:
  00146	c6 45 e1 ec	 mov	 BYTE PTR _szEncEventType$[ebp+5], -20 ; ffffffecH
  0014a	eb 1c		 jmp	 SHORT $LN1@GetAnimati
$LN92@GetAnimati:
  0014c	c6 45 e0 ed	 mov	 BYTE PTR _szEncEventType$[ebp+4], -19 ; ffffffedH
  00150	eb 16		 jmp	 SHORT $LN1@GetAnimati
$LN93@GetAnimati:
  00152	c6 45 df ea	 mov	 BYTE PTR _szEncEventType$[ebp+3], -22 ; ffffffeaH
  00156	eb 10		 jmp	 SHORT $LN1@GetAnimati
$LN94@GetAnimati:
  00158	c6 45 de eb	 mov	 BYTE PTR _szEncEventType$[ebp+2], -21 ; ffffffebH
  0015c	eb 0a		 jmp	 SHORT $LN1@GetAnimati
$LN95@GetAnimati:
  0015e	c6 45 dd ec	 mov	 BYTE PTR _szEncEventType$[ebp+1], -20 ; ffffffecH
  00162	eb 04		 jmp	 SHORT $LN1@GetAnimati
$LN96@GetAnimati:
  00164	c6 45 dc ed	 mov	 BYTE PTR _szEncEventType$[ebp], -19 ; ffffffedH
$LN1@GetAnimati:
  00168	6a 03		 push	 3
  0016a	8d 45 dc	 lea	 eax, DWORD PTR _szEncEventType$[ebp]
  0016d	c6 45 e8 00	 mov	 BYTE PTR _szEncEventType$[ebp+12], 0
  00171	59		 pop	 ecx
$LL105@GetAnimati:
  00172	81 30 ed ec eb
	ea		 xor	 DWORD PTR [eax], -353637139 ; eaebecedH
  00178	83 c0 04	 add	 eax, 4
  0017b	49		 dec	 ecx
  0017c	75 f4		 jne	 SHORT $LL105@GetAnimati

; 416  : 		return GetAnimationEventTime(id, szEncEventType);

  0017e	8d 45 dc	 lea	 eax, DWORD PTR _szEncEventType$[ebp]
  00181	50		 push	 eax
  00182	8d 4d c8	 lea	 ecx, DWORD PTR $T555030[ebp]
  00185	ff 15 00 00 00
	00		 call	 DWORD PTR __imp_??0ioHashString@@QAE@PBD@Z
  0018b	83 65 fc 00	 and	 DWORD PTR __$EHRec$[ebp+8], 0
  0018f	8d 45 c8	 lea	 eax, DWORD PTR $T555030[ebp]
  00192	50		 push	 eax
  00193	ff 75 08	 push	 DWORD PTR _id$[ebp]
  00196	8b ce		 mov	 ecx, esi
  00198	ff 15 00 00 00
	00		 call	 DWORD PTR __imp_?GetAnimationEventTime@ioEntityGroup@@QAEMHABVioHashString@@@Z
  0019e	d9 5d d8	 fstp	 DWORD PTR $T555029[ebp]
  001a1	83 4d fc ff	 or	 DWORD PTR __$EHRec$[ebp+8], -1
  001a5	8d 4d c8	 lea	 ecx, DWORD PTR $T555030[ebp]
  001a8	ff 15 00 00 00
	00		 call	 DWORD PTR __imp_??1ioHashString@@QAE@XZ
  001ae	d9 45 d8	 fld	 DWORD PTR $T555029[ebp]

; 417  : 	}

  001b1	e8 00 00 00 00	 call	 __EH_epilog3_GS
  001b6	c2 08 00	 ret	 8
_TEXT	ENDS
;	COMDAT text$x
text$x	SEGMENT
__unwindfunclet$??$GetAnimationEventTime_e@$0N@@ioEntityGroup@@QAEMHAAY0N@$$CBD@Z$0:
  00000	8d 4d c8	 lea	 ecx, DWORD PTR $T555030[ebp]
  00003	ff 25 00 00 00
	00		 jmp	 DWORD PTR __imp_??1ioHashString@@QAE@XZ
__ehhandler$??$GetAnimationEventTime_e@$0N@@ioEntityGroup@@QAEMHAAY0N@$$CBD@Z:
  00009	8b 54 24 08	 mov	 edx, DWORD PTR [esp+8]
  0000d	8d 42 0c	 lea	 eax, DWORD PTR [edx+12]
  00010	8b 4a c4	 mov	 ecx, DWORD PTR [edx-60]
  00013	33 c8		 xor	 ecx, eax
  00015	e8 00 00 00 00	 call	 @__security_check_cookie@4
  0001a	8b 4a fc	 mov	 ecx, DWORD PTR [edx-4]
  0001d	33 c8		 xor	 ecx, eax
  0001f	e8 00 00 00 00	 call	 @__security_check_cookie@4
  00024	b8 00 00 00 00	 mov	 eax, OFFSET __ehfuncinfo$??$GetAnimationEventTime_e@$0N@@ioEntityGroup@@QAEMHAAY0N@$$CBD@Z
  00029	e9 00 00 00 00	 jmp	 ___CxxFrameHandler3
text$x	ENDS
??$GetAnimationEventTime_e@$0N@@ioEntityGroup@@QAEMHAAY0N@$$CBD@Z ENDP ; ioEntityGroup::GetAnimationEventTime_e<13>
PUBLIC	??$GetAnimationEventTime_e@$0M@@ioEntityGroup@@QAEMHAAY0M@$$CBD@Z ; ioEntityGroup::GetAnimationEventTime_e<12>
;	COMDAT xdata$x
; File d:\lost saga for developer\youtube\tutorial\source\src\lsclient\stringprotect.h
xdata$x	SEGMENT
__unwindtable$??$GetAnimationEventTime_e@$0M@@ioEntityGroup@@QAEMHAAY0M@$$CBD@Z DD 0ffffffffH
	DD	FLAT:__unwindfunclet$??$GetAnimationEventTime_e@$0M@@ioEntityGroup@@QAEMHAAY0M@$$CBD@Z$0
__ehfuncinfo$??$GetAnimationEventTime_e@$0M@@ioEntityGroup@@QAEMHAAY0M@$$CBD@Z DD 019930522H
	DD	01H
	DD	FLAT:__unwindtable$??$GetAnimationEventTime_e@$0M@@ioEntityGroup@@QAEMHAAY0M@$$CBD@Z
	DD	2 DUP(00H)
	DD	2 DUP(00H)
	DD	00H
	DD	01H
; Function compile flags: /Ogsp
; File d:\lost saga for developer\youtube\tutorial\source\src\io3dengine\ioentitygroup.h
xdata$x	ENDS
;	COMDAT ??$GetAnimationEventTime_e@$0M@@ioEntityGroup@@QAEMHAAY0M@$$CBD@Z
_TEXT	SEGMENT
$T555062 = -52						; size = 16
$T555061 = -36						; size = 4
_szEncEventType$ = -32					; size = 12
__$EHRec$ = -12						; size = 12
_id$ = 8						; size = 4
_szEventType$ = 12					; size = 4
??$GetAnimationEventTime_e@$0M@@ioEntityGroup@@QAEMHAAY0M@$$CBD@Z PROC ; ioEntityGroup::GetAnimationEventTime_e<12>, COMDAT
; _this$ = ecx

; 414  : 	{

  00000	6a 28		 push	 40			; 00000028H
  00002	b8 00 00 00 00	 mov	 eax, __ehhandler$??$GetAnimationEventTime_e@$0M@@ioEntityGroup@@QAEMHAAY0M@$$CBD@Z
  00007	e8 00 00 00 00	 call	 __EH_prolog3_GS
  0000c	8b 45 0c	 mov	 eax, DWORD PTR _szEventType$[ebp]
  0000f	8b f1		 mov	 esi, ecx

; 415  : 		_ENCSTR(szEventType, szEncEventType);

  00011	8a 08		 mov	 cl, BYTE PTR [eax]
  00013	84 c9		 test	 cl, cl
  00015	0f 84 36 01 00
	00		 je	 $LN96@GetAnimati@2
  0001b	b2 ed		 mov	 dl, -19			; ffffffedH
  0001d	32 ca		 xor	 cl, dl
  0001f	88 4d e0	 mov	 BYTE PTR _szEncEventType$[ebp], cl
  00022	8a 48 01	 mov	 cl, BYTE PTR [eax+1]
  00025	84 c9		 test	 cl, cl
  00027	0f 84 1e 01 00
	00		 je	 $LN95@GetAnimati@2
  0002d	80 f1 ec	 xor	 cl, -20			; ffffffecH
  00030	88 4d e1	 mov	 BYTE PTR _szEncEventType$[ebp+1], cl
  00033	8a 48 02	 mov	 cl, BYTE PTR [eax+2]
  00036	84 c9		 test	 cl, cl
  00038	0f 84 07 01 00
	00		 je	 $LN94@GetAnimati@2
  0003e	80 f1 eb	 xor	 cl, -21			; ffffffebH
  00041	88 4d e2	 mov	 BYTE PTR _szEncEventType$[ebp+2], cl
  00044	8a 48 03	 mov	 cl, BYTE PTR [eax+3]
  00047	84 c9		 test	 cl, cl
  00049	0f 84 f0 00 00
	00		 je	 $LN93@GetAnimati@2
  0004f	80 f1 ea	 xor	 cl, -22			; ffffffeaH
  00052	88 4d e3	 mov	 BYTE PTR _szEncEventType$[ebp+3], cl
  00055	8a 48 04	 mov	 cl, BYTE PTR [eax+4]
  00058	84 c9		 test	 cl, cl
  0005a	0f 84 da 00 00
	00		 je	 $LN92@GetAnimati@2
  00060	32 ca		 xor	 cl, dl
  00062	88 4d e4	 mov	 BYTE PTR _szEncEventType$[ebp+4], cl
  00065	8a 48 05	 mov	 cl, BYTE PTR [eax+5]
  00068	84 c9		 test	 cl, cl
  0006a	0f 84 c4 00 00
	00		 je	 $LN91@GetAnimati@2
  00070	80 f1 ec	 xor	 cl, -20			; ffffffecH
  00073	88 4d e5	 mov	 BYTE PTR _szEncEventType$[ebp+5], cl
  00076	8a 48 06	 mov	 cl, BYTE PTR [eax+6]
  00079	84 c9		 test	 cl, cl
  0007b	0f 84 ad 00 00
	00		 je	 $LN90@GetAnimati@2
  00081	80 f1 eb	 xor	 cl, -21			; ffffffebH
  00084	88 4d e6	 mov	 BYTE PTR _szEncEventType$[ebp+6], cl
  00087	8a 48 07	 mov	 cl, BYTE PTR [eax+7]
  0008a	84 c9		 test	 cl, cl
  0008c	0f 84 96 00 00
	00		 je	 $LN89@GetAnimati@2
  00092	80 f1 ea	 xor	 cl, -22			; ffffffeaH
  00095	88 4d e7	 mov	 BYTE PTR _szEncEventType$[ebp+7], cl
  00098	8a 48 08	 mov	 cl, BYTE PTR [eax+8]
  0009b	84 c9		 test	 cl, cl
  0009d	0f 84 80 00 00
	00		 je	 $LN88@GetAnimati@2
  000a3	32 ca		 xor	 cl, dl
  000a5	88 4d e8	 mov	 BYTE PTR _szEncEventType$[ebp+8], cl
  000a8	8a 48 09	 mov	 cl, BYTE PTR [eax+9]
  000ab	84 c9		 test	 cl, cl
  000ad	74 6e		 je	 SHORT $LN87@GetAnimati@2
  000af	80 f1 ec	 xor	 cl, -20			; ffffffecH
  000b2	88 4d e9	 mov	 BYTE PTR _szEncEventType$[ebp+9], cl
  000b5	8a 48 0a	 mov	 cl, BYTE PTR [eax+10]
  000b8	84 c9		 test	 cl, cl
  000ba	74 5b		 je	 SHORT $LN86@GetAnimati@2
  000bc	80 f1 eb	 xor	 cl, -21			; ffffffebH
  000bf	80 78 0b 00	 cmp	 BYTE PTR [eax+11], 0
  000c3	88 4d ea	 mov	 BYTE PTR _szEncEventType$[ebp+10], cl
  000c6	0f 84 89 00 00
	00		 je	 $LN1@GetAnimati@2
  000cc	8a 48 0c	 mov	 cl, BYTE PTR [eax+12]
  000cf	84 c9		 test	 cl, cl
  000d1	74 3f		 je	 SHORT $LN84@GetAnimati@2
  000d3	32 ca		 xor	 cl, dl
  000d5	88 4d ec	 mov	 BYTE PTR _szEncEventType$[ebp+12], cl
  000d8	8a 48 0d	 mov	 cl, BYTE PTR [eax+13]
  000db	84 c9		 test	 cl, cl
  000dd	74 2d		 je	 SHORT $LN83@GetAnimati@2
  000df	80 f1 ec	 xor	 cl, -20			; ffffffecH
  000e2	88 4d ed	 mov	 BYTE PTR _szEncEventType$[ebp+13], cl
  000e5	8a 48 0e	 mov	 cl, BYTE PTR [eax+14]
  000e8	84 c9		 test	 cl, cl
  000ea	74 1a		 je	 SHORT $LN82@GetAnimati@2
  000ec	8a 40 0f	 mov	 al, BYTE PTR [eax+15]
  000ef	80 f1 eb	 xor	 cl, -21			; ffffffebH
  000f2	88 4d ee	 mov	 BYTE PTR _szEncEventType$[ebp+14], cl
  000f5	84 c0		 test	 al, al
  000f7	74 07		 je	 SHORT $LN81@GetAnimati@2
  000f9	34 ea		 xor	 al, -22			; ffffffeaH
  000fb	88 45 ef	 mov	 BYTE PTR _szEncEventType$[ebp+15], al
  000fe	eb 55		 jmp	 SHORT $LN1@GetAnimati@2
$LN81@GetAnimati@2:
  00100	c6 45 ef ea	 mov	 BYTE PTR _szEncEventType$[ebp+15], -22 ; ffffffeaH
  00104	eb 4f		 jmp	 SHORT $LN1@GetAnimati@2
$LN82@GetAnimati@2:
  00106	c6 45 ee eb	 mov	 BYTE PTR _szEncEventType$[ebp+14], -21 ; ffffffebH
  0010a	eb 49		 jmp	 SHORT $LN1@GetAnimati@2
$LN83@GetAnimati@2:
  0010c	c6 45 ed ec	 mov	 BYTE PTR _szEncEventType$[ebp+13], -20 ; ffffffecH
  00110	eb 43		 jmp	 SHORT $LN1@GetAnimati@2
$LN84@GetAnimati@2:
  00112	88 55 ec	 mov	 BYTE PTR _szEncEventType$[ebp+12], dl
  00115	eb 3e		 jmp	 SHORT $LN1@GetAnimati@2
$LN86@GetAnimati@2:
  00117	c6 45 ea eb	 mov	 BYTE PTR _szEncEventType$[ebp+10], -21 ; ffffffebH
  0011b	eb 38		 jmp	 SHORT $LN1@GetAnimati@2
$LN87@GetAnimati@2:
  0011d	c6 45 e9 ec	 mov	 BYTE PTR _szEncEventType$[ebp+9], -20 ; ffffffecH
  00121	eb 32		 jmp	 SHORT $LN1@GetAnimati@2
$LN88@GetAnimati@2:
  00123	88 55 e8	 mov	 BYTE PTR _szEncEventType$[ebp+8], dl
  00126	eb 2d		 jmp	 SHORT $LN1@GetAnimati@2
$LN89@GetAnimati@2:
  00128	c6 45 e7 ea	 mov	 BYTE PTR _szEncEventType$[ebp+7], -22 ; ffffffeaH
  0012c	eb 27		 jmp	 SHORT $LN1@GetAnimati@2
$LN90@GetAnimati@2:
  0012e	c6 45 e6 eb	 mov	 BYTE PTR _szEncEventType$[ebp+6], -21 ; ffffffebH
  00132	eb 21		 jmp	 SHORT $LN1@GetAnimati@2
$LN91@GetAnimati@2:
  00134	c6 45 e5 ec	 mov	 BYTE PTR _szEncEventType$[ebp+5], -20 ; ffffffecH
  00138	eb 1b		 jmp	 SHORT $LN1@GetAnimati@2
$LN92@GetAnimati@2:
  0013a	88 55 e4	 mov	 BYTE PTR _szEncEventType$[ebp+4], dl
  0013d	eb 16		 jmp	 SHORT $LN1@GetAnimati@2
$LN93@GetAnimati@2:
  0013f	c6 45 e3 ea	 mov	 BYTE PTR _szEncEventType$[ebp+3], -22 ; ffffffeaH
  00143	eb 10		 jmp	 SHORT $LN1@GetAnimati@2
$LN94@GetAnimati@2:
  00145	c6 45 e2 eb	 mov	 BYTE PTR _szEncEventType$[ebp+2], -21 ; ffffffebH
  00149	eb 0a		 jmp	 SHORT $LN1@GetAnimati@2
$LN95@GetAnimati@2:
  0014b	c6 45 e1 ec	 mov	 BYTE PTR _szEncEventType$[ebp+1], -20 ; ffffffecH
  0014f	eb 04		 jmp	 SHORT $LN1@GetAnimati@2
$LN96@GetAnimati@2:
  00151	c6 45 e0 ed	 mov	 BYTE PTR _szEncEventType$[ebp], -19 ; ffffffedH
$LN1@GetAnimati@2:
  00155	6a 02		 push	 2
  00157	8d 45 e0	 lea	 eax, DWORD PTR _szEncEventType$[ebp]
  0015a	c6 45 eb 00	 mov	 BYTE PTR _szEncEventType$[ebp+11], 0
  0015e	59		 pop	 ecx
$LL105@GetAnimati@2:
  0015f	81 30 ed ec eb
	ea		 xor	 DWORD PTR [eax], -353637139 ; eaebecedH
  00165	83 c0 04	 add	 eax, 4
  00168	49		 dec	 ecx
  00169	75 f4		 jne	 SHORT $LL105@GetAnimati@2
  0016b	6a 08		 push	 8
  0016d	58		 pop	 eax
$LL102@GetAnimati@2:
  0016e	8b c8		 mov	 ecx, eax
  00170	81 e1 03 00 00
	80		 and	 ecx, -2147483645	; 80000003H
  00176	79 05		 jns	 SHORT $LN113@GetAnimati@2
  00178	49		 dec	 ecx
  00179	83 c9 fc	 or	 ecx, -4			; fffffffcH
  0017c	41		 inc	 ecx
$LN113@GetAnimati@2:
  0017d	b2 ed		 mov	 dl, -19			; ffffffedH
  0017f	2a d1		 sub	 dl, cl
  00181	30 54 05 e0	 xor	 BYTE PTR _szEncEventType$[ebp+eax], dl
  00185	40		 inc	 eax
  00186	83 f8 0b	 cmp	 eax, 11			; 0000000bH
  00189	7c e3		 jl	 SHORT $LL102@GetAnimati@2

; 416  : 		return GetAnimationEventTime(id, szEncEventType);

  0018b	8d 45 e0	 lea	 eax, DWORD PTR _szEncEventType$[ebp]
  0018e	50		 push	 eax
  0018f	8d 4d cc	 lea	 ecx, DWORD PTR $T555062[ebp]
  00192	ff 15 00 00 00
	00		 call	 DWORD PTR __imp_??0ioHashString@@QAE@PBD@Z
  00198	83 65 fc 00	 and	 DWORD PTR __$EHRec$[ebp+8], 0
  0019c	8d 45 cc	 lea	 eax, DWORD PTR $T555062[ebp]
  0019f	50		 push	 eax
  001a0	ff 75 08	 push	 DWORD PTR _id$[ebp]
  001a3	8b ce		 mov	 ecx, esi
  001a5	ff 15 00 00 00
	00		 call	 DWORD PTR __imp_?GetAnimationEventTime@ioEntityGroup@@QAEMHABVioHashString@@@Z
  001ab	d9 5d dc	 fstp	 DWORD PTR $T555061[ebp]
  001ae	83 4d fc ff	 or	 DWORD PTR __$EHRec$[ebp+8], -1
  001b2	8d 4d cc	 lea	 ecx, DWORD PTR $T555062[ebp]
  001b5	ff 15 00 00 00
	00		 call	 DWORD PTR __imp_??1ioHashString@@QAE@XZ
  001bb	d9 45 dc	 fld	 DWORD PTR $T555061[ebp]

; 417  : 	}

  001be	e8 00 00 00 00	 call	 __EH_epilog3_GS
  001c3	c2 08 00	 ret	 8
_TEXT	ENDS
;	COMDAT text$x
text$x	SEGMENT
__unwindfunclet$??$GetAnimationEventTime_e@$0M@@ioEntityGroup@@QAEMHAAY0M@$$CBD@Z$0:
  00000	8d 4d cc	 lea	 ecx, DWORD PTR $T555062[ebp]
  00003	ff 25 00 00 00
	00		 jmp	 DWORD PTR __imp_??1ioHashString@@QAE@XZ
__ehhandler$??$GetAnimationEventTime_e@$0M@@ioEntityGroup@@QAEMHAAY0M@$$CBD@Z:
  00009	8b 54 24 08	 mov	 edx, DWORD PTR [esp+8]
  0000d	8d 42 0c	 lea	 eax, DWORD PTR [edx+12]
  00010	8b 4a c8	 mov	 ecx, DWORD PTR [edx-56]
  00013	33 c8		 xor	 ecx, eax
  00015	e8 00 00 00 00	 call	 @__security_check_cookie@4
  0001a	8b 4a fc	 mov	 ecx, DWORD PTR [edx-4]
  0001d	33 c8		 xor	 ecx, eax
  0001f	e8 00 00 00 00	 call	 @__security_check_cookie@4
  00024	b8 00 00 00 00	 mov	 eax, OFFSET __ehfuncinfo$??$GetAnimationEventTime_e@$0M@@ioEntityGroup@@QAEMHAAY0M@$$CBD@Z
  00029	e9 00 00 00 00	 jmp	 ___CxxFrameHandler3
text$x	ENDS
??$GetAnimationEventTime_e@$0M@@ioEntityGroup@@QAEMHAAY0M@$$CBD@Z ENDP ; ioEntityGroup::GetAnimationEventTime_e<12>
PUBLIC	??G?$_Vector_iterator@V?$_Vector_val@UtagBaseCharHP@@V?$allocator@UtagBaseCharHP@@@std@@@std@@@std@@QBEHABV?$_Vector_const_iterator@V?$_Vector_val@UtagBaseCharHP@@V?$allocator@UtagBaseCharHP@@@std@@@std@@@1@@Z ; std::_Vector_iterator<std::_Vector_val<tagBaseCharHP,std::allocator<tagBaseCharHP> > >::operator-
; Function compile flags: /Ogsp
; File c:\program files (x86)\microsoft visual studio 10.0\vc\include\vector
;	COMDAT ??G?$_Vector_iterator@V?$_Vector_val@UtagBaseCharHP@@V?$allocator@UtagBaseCharHP@@@std@@@std@@@std@@QBEHABV?$_Vector_const_iterator@V?$_Vector_val@UtagBaseCharHP@@V?$allocator@UtagBaseCharHP@@@std@@@std@@@1@@Z
_TEXT	SEGMENT
__Right$ = 8						; size = 4
??G?$_Vector_iterator@V?$_Vector_val@UtagBaseCharHP@@V?$allocator@UtagBaseCharHP@@@std@@@std@@@std@@QBEHABV?$_Vector_const_iterator@V?$_Vector_val@UtagBaseCharHP@@V?$allocator@UtagBaseCharHP@@@std@@@std@@@1@@Z PROC ; std::_Vector_iterator<std::_Vector_val<tagBaseCharHP,std::allocator<tagBaseCharHP> > >::operator-, COMDAT
; _this$ = ecx

; 380  : 		{	// return difference of iterators

  00000	55		 push	 ebp
  00001	8b ec		 mov	 ebp, esp

; 381  : 		return (*(_Mybase *)this - _Right);

  00003	8b 01		 mov	 eax, DWORD PTR [ecx]
  00005	8b 4d 08	 mov	 ecx, DWORD PTR __Right$[ebp]
  00008	2b 01		 sub	 eax, DWORD PTR [ecx]
  0000a	6a 18		 push	 24			; 00000018H
  0000c	99		 cdq
  0000d	59		 pop	 ecx
  0000e	f7 f9		 idiv	 ecx

; 382  : 		}

  00010	5d		 pop	 ebp
  00011	c2 04 00	 ret	 4
??G?$_Vector_iterator@V?$_Vector_val@UtagBaseCharHP@@V?$allocator@UtagBaseCharHP@@@std@@@std@@@std@@QBEHABV?$_Vector_const_iterator@V?$_Vector_val@UtagBaseCharHP@@V?$allocator@UtagBaseCharHP@@@std@@@std@@@1@@Z ENDP ; std::_Vector_iterator<std::_Vector_val<tagBaseCharHP,std::allocator<tagBaseCharHP> > >::operator-
_TEXT	ENDS
PUBLIC	??$_Unchecked@V?$_Vector_val@UtagBaseCharHP@@V?$allocator@UtagBaseCharHP@@@std@@@std@@@std@@YAPAUtagBaseCharHP@@V?$_Vector_iterator@V?$_Vector_val@UtagBaseCharHP@@V?$allocator@UtagBaseCharHP@@@std@@@std@@@0@@Z ; std::_Unchecked<std::_Vector_val<tagBaseCharHP,std::allocator<tagBaseCharHP> > >
; Function compile flags: /Ogsp
;	COMDAT ??$_Unchecked@V?$_Vector_val@UtagBaseCharHP@@V?$allocator@UtagBaseCharHP@@@std@@@std@@@std@@YAPAUtagBaseCharHP@@V?$_Vector_iterator@V?$_Vector_val@UtagBaseCharHP@@V?$allocator@UtagBaseCharHP@@@std@@@std@@@0@@Z
_TEXT	SEGMENT
__Iter$ = 8						; size = 4
??$_Unchecked@V?$_Vector_val@UtagBaseCharHP@@V?$allocator@UtagBaseCharHP@@@std@@@std@@@std@@YAPAUtagBaseCharHP@@V?$_Vector_iterator@V?$_Vector_val@UtagBaseCharHP@@V?$allocator@UtagBaseCharHP@@@std@@@std@@@0@@Z PROC ; std::_Unchecked<std::_Vector_val<tagBaseCharHP,std::allocator<tagBaseCharHP> > >, COMDAT

; 393  : 	{	// convert to unchecked

  00000	55		 push	 ebp
  00001	8b ec		 mov	 ebp, esp

; 394  : 	return (_Iter._Unchecked());

  00003	8b 45 08	 mov	 eax, DWORD PTR __Iter$[ebp]

; 395  : 	}

  00006	5d		 pop	 ebp
  00007	c3		 ret	 0
??$_Unchecked@V?$_Vector_val@UtagBaseCharHP@@V?$allocator@UtagBaseCharHP@@@std@@@std@@@std@@YAPAUtagBaseCharHP@@V?$_Vector_iterator@V?$_Vector_val@UtagBaseCharHP@@V?$allocator@UtagBaseCharHP@@@std@@@std@@@0@@Z ENDP ; std::_Unchecked<std::_Vector_val<tagBaseCharHP,std::allocator<tagBaseCharHP> > >
_TEXT	ENDS
PUBLIC	??$construct@AAUtagBaseCharHP@@@?$allocator@UtagBaseCharHP@@@std@@QAEXPAUtagBaseCharHP@@AAU2@@Z ; std::allocator<tagBaseCharHP>::construct<tagBaseCharHP &>
EXTRN	__EH_epilog3:PROC
EXTRN	__EH_prolog3:PROC
;	COMDAT xdata$x
; File c:\program files (x86)\microsoft visual studio 10.0\vc\include\utility
xdata$x	SEGMENT
__unwindtable$??$construct@AAUtagBaseCharHP@@@?$allocator@UtagBaseCharHP@@@std@@QAEXPAUtagBaseCharHP@@AAU2@@Z DD 0ffffffffH
	DD	FLAT:__unwindfunclet$??$construct@AAUtagBaseCharHP@@@?$allocator@UtagBaseCharHP@@@std@@QAEXPAUtagBaseCharHP@@AAU2@@Z$0
__ehfuncinfo$??$construct@AAUtagBaseCharHP@@@?$allocator@UtagBaseCharHP@@@std@@QAEXPAUtagBaseCharHP@@AAU2@@Z DD 019930522H
	DD	01H
	DD	FLAT:__unwindtable$??$construct@AAUtagBaseCharHP@@@?$allocator@UtagBaseCharHP@@@std@@QAEXPAUtagBaseCharHP@@AAU2@@Z
	DD	2 DUP(00H)
	DD	2 DUP(00H)
	DD	00H
	DD	01H
; Function compile flags: /Ogsp
; File c:\program files (x86)\microsoft visual studio 10.0\vc\include\xmemory
xdata$x	ENDS
;	COMDAT ??$construct@AAUtagBaseCharHP@@@?$allocator@UtagBaseCharHP@@@std@@QAEXPAUtagBaseCharHP@@AAU2@@Z
_TEXT	SEGMENT
$T555107 = -16						; size = 4
__$EHRec$ = -12						; size = 12
__Ptr$ = 8						; size = 4
__Val$ = 12						; size = 4
??$construct@AAUtagBaseCharHP@@@?$allocator@UtagBaseCharHP@@@std@@QAEXPAUtagBaseCharHP@@AAU2@@Z PROC ; std::allocator<tagBaseCharHP>::construct<tagBaseCharHP &>, COMDAT
; _this$ = ecx

; 206  : 		void construct(pointer _Ptr, _Other&& _Val)

  00000	6a 04		 push	 4
  00002	b8 00 00 00 00	 mov	 eax, __ehhandler$??$construct@AAUtagBaseCharHP@@@?$allocator@UtagBaseCharHP@@@std@@QAEXPAUtagBaseCharHP@@AAU2@@Z
  00007	e8 00 00 00 00	 call	 __EH_prolog3

; 207  : 		{	// construct object at _Ptr with value _Val
; 208  : 		::new ((void _FARQ *)_Ptr) _Ty(_STD forward<_Other>(_Val));

  0000c	8b 4d 08	 mov	 ecx, DWORD PTR __Ptr$[ebp]
  0000f	89 4d f0	 mov	 DWORD PTR $T555107[ebp], ecx
  00012	83 65 fc 00	 and	 DWORD PTR __$EHRec$[ebp+8], 0
  00016	85 c9		 test	 ecx, ecx
  00018	74 08		 je	 SHORT $LN3@construct@2
  0001a	ff 75 0c	 push	 DWORD PTR __Val$[ebp]
  0001d	e8 00 00 00 00	 call	 ??0tagBaseCharHP@@QAE@ABU0@@Z
$LN3@construct@2:

; 209  : 		}

  00022	e8 00 00 00 00	 call	 __EH_epilog3
  00027	c2 08 00	 ret	 8
_TEXT	ENDS
;	COMDAT text$x
text$x	SEGMENT
__unwindfunclet$??$construct@AAUtagBaseCharHP@@@?$allocator@UtagBaseCharHP@@@std@@QAEXPAUtagBaseCharHP@@AAU2@@Z$0:
  00000	ff 75 08	 push	 DWORD PTR __Ptr$[ebp]
  00003	ff 75 f0	 push	 DWORD PTR $T555107[ebp]
  00006	e8 00 00 00 00	 call	 ??3@YAXPAX0@Z		; operator delete
  0000b	59		 pop	 ecx
  0000c	59		 pop	 ecx
  0000d	c3		 ret	 0
__ehhandler$??$construct@AAUtagBaseCharHP@@@?$allocator@UtagBaseCharHP@@@std@@QAEXPAUtagBaseCharHP@@AAU2@@Z:
  0000e	8b 54 24 08	 mov	 edx, DWORD PTR [esp+8]
  00012	8d 42 0c	 lea	 eax, DWORD PTR [edx+12]
  00015	8b 4a ec	 mov	 ecx, DWORD PTR [edx-20]
  00018	33 c8		 xor	 ecx, eax
  0001a	e8 00 00 00 00	 call	 @__security_check_cookie@4
  0001f	b8 00 00 00 00	 mov	 eax, OFFSET __ehfuncinfo$??$construct@AAUtagBaseCharHP@@@?$allocator@UtagBaseCharHP@@@std@@QAEXPAUtagBaseCharHP@@AAU2@@Z
  00024	e9 00 00 00 00	 jmp	 ___CxxFrameHandler3
text$x	ENDS
??$construct@AAUtagBaseCharHP@@@?$allocator@UtagBaseCharHP@@@std@@QAEXPAUtagBaseCharHP@@AAU2@@Z ENDP ; std::allocator<tagBaseCharHP>::construct<tagBaseCharHP &>
PUBLIC	??$_Move@PAUtagBaseCharHP@@PAU1@@std@@YAPAUtagBaseCharHP@@PAU1@00U_Nonscalar_ptr_iterator_tag@0@@Z ; std::_Move<tagBaseCharHP *,tagBaseCharHP *>
; Function compile flags: /Ogsp
; File c:\program files (x86)\microsoft visual studio 10.0\vc\include\xutility
;	COMDAT ??$_Move@PAUtagBaseCharHP@@PAU1@@std@@YAPAUtagBaseCharHP@@PAU1@00U_Nonscalar_ptr_iterator_tag@0@@Z
_TEXT	SEGMENT
__First$ = 8						; size = 4
__Last$ = 12						; size = 4
__Dest$ = 16						; size = 4
___formal$ = 20						; size = 1
??$_Move@PAUtagBaseCharHP@@PAU1@@std@@YAPAUtagBaseCharHP@@PAU1@00U_Nonscalar_ptr_iterator_tag@0@@Z PROC ; std::_Move<tagBaseCharHP *,tagBaseCharHP *>, COMDAT

; 2512 : 	{	// move [_First, _Last) to [_Dest, ...), arbitrary iterators

  00000	55		 push	 ebp
  00001	8b ec		 mov	 ebp, esp
  00003	56		 push	 esi

; 2513 : 	for (; _First != _Last; ++_Dest, ++_First)

  00004	8b 75 08	 mov	 esi, DWORD PTR __First$[ebp]
  00007	eb 10		 jmp	 SHORT $LN11@Move
$LL3@Move:

; 2514 : 		*_Dest = _STD move(*_First);

  00009	8b 4d 10	 mov	 ecx, DWORD PTR __Dest$[ebp]
  0000c	56		 push	 esi
  0000d	e8 00 00 00 00	 call	 ??4tagBaseCharHP@@QAEAAU0@ABU0@@Z
  00012	83 45 10 18	 add	 DWORD PTR __Dest$[ebp], 24 ; 00000018H
  00016	83 c6 18	 add	 esi, 24			; 00000018H
$LN11@Move:

; 2513 : 	for (; _First != _Last; ++_Dest, ++_First)

  00019	3b 75 0c	 cmp	 esi, DWORD PTR __Last$[ebp]
  0001c	75 eb		 jne	 SHORT $LL3@Move

; 2515 : 	return (_Dest);

  0001e	8b 45 10	 mov	 eax, DWORD PTR __Dest$[ebp]
  00021	5e		 pop	 esi

; 2516 : 	}

  00022	5d		 pop	 ebp
  00023	c3		 ret	 0
??$_Move@PAUtagBaseCharHP@@PAU1@@std@@YAPAUtagBaseCharHP@@PAU1@00U_Nonscalar_ptr_iterator_tag@0@@Z ENDP ; std::_Move<tagBaseCharHP *,tagBaseCharHP *>
_TEXT	ENDS
PUBLIC	??$_Construct@UtagBaseCharHP@@ABU1@@std@@YAXPAUtagBaseCharHP@@ABU1@@Z ; std::_Construct<tagBaseCharHP,tagBaseCharHP const &>
;	COMDAT xdata$x
; File c:\program files (x86)\microsoft visual studio 10.0\vc\include\utility
xdata$x	SEGMENT
__unwindtable$??$_Construct@UtagBaseCharHP@@ABU1@@std@@YAXPAUtagBaseCharHP@@ABU1@@Z DD 0ffffffffH
	DD	FLAT:__unwindfunclet$??$_Construct@UtagBaseCharHP@@ABU1@@std@@YAXPAUtagBaseCharHP@@ABU1@@Z$0
__ehfuncinfo$??$_Construct@UtagBaseCharHP@@ABU1@@std@@YAXPAUtagBaseCharHP@@ABU1@@Z DD 019930522H
	DD	01H
	DD	FLAT:__unwindtable$??$_Construct@UtagBaseCharHP@@ABU1@@std@@YAXPAUtagBaseCharHP@@ABU1@@Z
	DD	2 DUP(00H)
	DD	2 DUP(00H)
	DD	00H
	DD	01H
; Function compile flags: /Ogsp
; File c:\program files (x86)\microsoft visual studio 10.0\vc\include\xmemory
xdata$x	ENDS
;	COMDAT ??$_Construct@UtagBaseCharHP@@ABU1@@std@@YAXPAUtagBaseCharHP@@ABU1@@Z
_TEXT	SEGMENT
$T555137 = -16						; size = 4
__$EHRec$ = -12						; size = 12
__Vptr$ = 8						; size = 4
__Ptr$ = 8						; size = 4
__Val$ = 12						; size = 4
??$_Construct@UtagBaseCharHP@@ABU1@@std@@YAXPAUtagBaseCharHP@@ABU1@@Z PROC ; std::_Construct<tagBaseCharHP,tagBaseCharHP const &>, COMDAT

; 46   : 	{	// construct object at _Ptr with value _Val

  00000	6a 04		 push	 4
  00002	b8 00 00 00 00	 mov	 eax, __ehhandler$??$_Construct@UtagBaseCharHP@@ABU1@@std@@YAXPAUtagBaseCharHP@@ABU1@@Z
  00007	e8 00 00 00 00	 call	 __EH_prolog3

; 47   : 	void _FARQ *_Vptr = _Ptr;

  0000c	8b 4d 08	 mov	 ecx, DWORD PTR __Ptr$[ebp]
  0000f	89 4d 08	 mov	 DWORD PTR __Vptr$[ebp], ecx

; 48   : 	::new (_Vptr) _Ty1(_STD forward<_Ty2>(_Val));

  00012	89 4d f0	 mov	 DWORD PTR $T555137[ebp], ecx
  00015	83 65 fc 00	 and	 DWORD PTR __$EHRec$[ebp+8], 0
  00019	85 c9		 test	 ecx, ecx
  0001b	74 08		 je	 SHORT $LN3@Construct@2
  0001d	ff 75 0c	 push	 DWORD PTR __Val$[ebp]
  00020	e8 00 00 00 00	 call	 ??0tagBaseCharHP@@QAE@ABU0@@Z
$LN3@Construct@2:

; 49   : 	}

  00025	e8 00 00 00 00	 call	 __EH_epilog3
  0002a	c3		 ret	 0
_TEXT	ENDS
;	COMDAT text$x
text$x	SEGMENT
__unwindfunclet$??$_Construct@UtagBaseCharHP@@ABU1@@std@@YAXPAUtagBaseCharHP@@ABU1@@Z$0:
  00000	ff 75 08	 push	 DWORD PTR __Vptr$[ebp]
  00003	ff 75 f0	 push	 DWORD PTR $T555137[ebp]
  00006	e8 00 00 00 00	 call	 ??3@YAXPAX0@Z		; operator delete
  0000b	59		 pop	 ecx
  0000c	59		 pop	 ecx
  0000d	c3		 ret	 0
__ehhandler$??$_Construct@UtagBaseCharHP@@ABU1@@std@@YAXPAUtagBaseCharHP@@ABU1@@Z:
  0000e	8b 54 24 08	 mov	 edx, DWORD PTR [esp+8]
  00012	8d 42 0c	 lea	 eax, DWORD PTR [edx+12]
  00015	8b 4a ec	 mov	 ecx, DWORD PTR [edx-20]
  00018	33 c8		 xor	 ecx, eax
  0001a	e8 00 00 00 00	 call	 @__security_check_cookie@4
  0001f	b8 00 00 00 00	 mov	 eax, OFFSET __ehfuncinfo$??$_Construct@UtagBaseCharHP@@ABU1@@std@@YAXPAUtagBaseCharHP@@ABU1@@Z
  00024	e9 00 00 00 00	 jmp	 ___CxxFrameHandler3
text$x	ENDS
??$_Construct@UtagBaseCharHP@@ABU1@@std@@YAXPAUtagBaseCharHP@@ABU1@@Z ENDP ; std::_Construct<tagBaseCharHP,tagBaseCharHP const &>
PUBLIC	??$?0AAPAUtagBaseCharHP@@AAPAU0@@?$pair@PAUtagBaseCharHP@@PAU1@@std@@QAE@AAPAUtagBaseCharHP@@0@Z ; std::pair<tagBaseCharHP *,tagBaseCharHP *>::pair<tagBaseCharHP *,tagBaseCharHP *><tagBaseCharHP * &,tagBaseCharHP * &>
; Function compile flags: /Ogsp
; File c:\program files (x86)\microsoft visual studio 10.0\vc\include\utility
;	COMDAT ??$?0AAPAUtagBaseCharHP@@AAPAU0@@?$pair@PAUtagBaseCharHP@@PAU1@@std@@QAE@AAPAUtagBaseCharHP@@0@Z
_TEXT	SEGMENT
__Val1$ = 8						; size = 4
__Val2$ = 12						; size = 4
??$?0AAPAUtagBaseCharHP@@AAPAU0@@?$pair@PAUtagBaseCharHP@@PAU1@@std@@QAE@AAPAUtagBaseCharHP@@0@Z PROC ; std::pair<tagBaseCharHP *,tagBaseCharHP *>::pair<tagBaseCharHP *,tagBaseCharHP *><tagBaseCharHP * &,tagBaseCharHP * &>, COMDAT
; _this$ = ecx

; 247  : 		{	// construct from moved values

  00000	55		 push	 ebp
  00001	8b ec		 mov	 ebp, esp
  00003	8b c1		 mov	 eax, ecx
  00005	8b 4d 08	 mov	 ecx, DWORD PTR __Val1$[ebp]
  00008	8b 09		 mov	 ecx, DWORD PTR [ecx]
  0000a	89 08		 mov	 DWORD PTR [eax], ecx
  0000c	8b 4d 0c	 mov	 ecx, DWORD PTR __Val2$[ebp]
  0000f	8b 09		 mov	 ecx, DWORD PTR [ecx]
  00011	89 48 04	 mov	 DWORD PTR [eax+4], ecx

; 248  : 		}

  00014	5d		 pop	 ebp
  00015	c2 08 00	 ret	 8
??$?0AAPAUtagBaseCharHP@@AAPAU0@@?$pair@PAUtagBaseCharHP@@PAU1@@std@@QAE@AAPAUtagBaseCharHP@@0@Z ENDP ; std::pair<tagBaseCharHP *,tagBaseCharHP *>::pair<tagBaseCharHP *,tagBaseCharHP *><tagBaseCharHP * &,tagBaseCharHP * &>
_TEXT	ENDS
PUBLIC	??$_Destroy@UtagBaseCharHP@@@std@@YAXPAUtagBaseCharHP@@@Z ; std::_Destroy<tagBaseCharHP>
; Function compile flags: /Ogsp
; File c:\program files (x86)\microsoft visual studio 10.0\vc\include\xmemory
;	COMDAT ??$_Destroy@UtagBaseCharHP@@@std@@YAXPAUtagBaseCharHP@@@Z
_TEXT	SEGMENT
__Ptr$ = 8						; size = 4
??$_Destroy@UtagBaseCharHP@@@std@@YAXPAUtagBaseCharHP@@@Z PROC ; std::_Destroy<tagBaseCharHP>, COMDAT

; 62   : 	{	// destroy object at _Ptr

  00000	55		 push	 ebp
  00001	8b ec		 mov	 ebp, esp

; 63   : 	_Ptr->~_Ty();

  00003	8b 4d 08	 mov	 ecx, DWORD PTR __Ptr$[ebp]

; 64   : 	}

  00006	5d		 pop	 ebp

; 63   : 	_Ptr->~_Ty();

  00007	ff 25 00 00 00
	00		 jmp	 DWORD PTR __imp_??1ioHashString@@QAE@XZ
??$_Destroy@UtagBaseCharHP@@@std@@YAXPAUtagBaseCharHP@@@Z ENDP ; std::_Destroy<tagBaseCharHP>
_TEXT	ENDS
PUBLIC	?construct@?$allocator@UForceInfo@@@std@@QAEXPAUForceInfo@@ABU3@@Z ; std::allocator<ForceInfo>::construct
; Function compile flags: /Ogsp
;	COMDAT ?construct@?$allocator@UForceInfo@@@std@@QAEXPAUForceInfo@@ABU3@@Z
_TEXT	SEGMENT
__Ptr$ = 8						; size = 4
__Val$ = 12						; size = 4
?construct@?$allocator@UForceInfo@@@std@@QAEXPAUForceInfo@@ABU3@@Z PROC ; std::allocator<ForceInfo>::construct, COMDAT
; _this$ = ecx

; 196  : 		{	// construct object at _Ptr with value _Val

  00000	55		 push	 ebp
  00001	8b ec		 mov	 ebp, esp
  00003	57		 push	 edi

; 197  : 		_Construct(_Ptr, _Val);

  00004	8b 7d 08	 mov	 edi, DWORD PTR __Ptr$[ebp]
  00007	85 ff		 test	 edi, edi
  00009	74 08		 je	 SHORT $LN5@construct@3
  0000b	56		 push	 esi
  0000c	8b 75 0c	 mov	 esi, DWORD PTR __Val$[ebp]
  0000f	a5		 movsd
  00010	a5		 movsd
  00011	a5		 movsd
  00012	5e		 pop	 esi
$LN5@construct@3:
  00013	5f		 pop	 edi

; 198  : 		}

  00014	5d		 pop	 ebp
  00015	c2 08 00	 ret	 8
?construct@?$allocator@UForceInfo@@@std@@QAEXPAUForceInfo@@ABU3@@Z ENDP ; std::allocator<ForceInfo>::construct
_TEXT	ENDS
PUBLIC	?construct@?$allocator@UtagBaseCharHP@@@std@@QAEXPAUtagBaseCharHP@@$$QAU3@@Z ; std::allocator<tagBaseCharHP>::construct
;	COMDAT xdata$x
; File c:\program files (x86)\microsoft visual studio 10.0\vc\include\utility
xdata$x	SEGMENT
__unwindtable$?construct@?$allocator@UtagBaseCharHP@@@std@@QAEXPAUtagBaseCharHP@@$$QAU3@@Z DD 0ffffffffH
	DD	FLAT:__unwindfunclet$?construct@?$allocator@UtagBaseCharHP@@@std@@QAEXPAUtagBaseCharHP@@$$QAU3@@Z$0
__ehfuncinfo$?construct@?$allocator@UtagBaseCharHP@@@std@@QAEXPAUtagBaseCharHP@@$$QAU3@@Z DD 019930522H
	DD	01H
	DD	FLAT:__unwindtable$?construct@?$allocator@UtagBaseCharHP@@@std@@QAEXPAUtagBaseCharHP@@$$QAU3@@Z
	DD	2 DUP(00H)
	DD	2 DUP(00H)
	DD	00H
	DD	01H
; Function compile flags: /Ogsp
; File c:\program files (x86)\microsoft visual studio 10.0\vc\include\xmemory
xdata$x	ENDS
;	COMDAT ?construct@?$allocator@UtagBaseCharHP@@@std@@QAEXPAUtagBaseCharHP@@$$QAU3@@Z
_TEXT	SEGMENT
$T555214 = -16						; size = 4
__$EHRec$ = -12						; size = 12
__Ptr$ = 8						; size = 4
__Val$ = 12						; size = 4
?construct@?$allocator@UtagBaseCharHP@@@std@@QAEXPAUtagBaseCharHP@@$$QAU3@@Z PROC ; std::allocator<tagBaseCharHP>::construct, COMDAT
; _this$ = ecx

; 201  : 		{	// construct object at _Ptr with value _Val

  00000	6a 04		 push	 4
  00002	b8 00 00 00 00	 mov	 eax, __ehhandler$?construct@?$allocator@UtagBaseCharHP@@@std@@QAEXPAUtagBaseCharHP@@$$QAU3@@Z
  00007	e8 00 00 00 00	 call	 __EH_prolog3

; 202  : 		::new ((void _FARQ *)_Ptr) _Ty(_STD forward<_Ty>(_Val));

  0000c	8b 4d 08	 mov	 ecx, DWORD PTR __Ptr$[ebp]
  0000f	89 4d f0	 mov	 DWORD PTR $T555214[ebp], ecx
  00012	83 65 fc 00	 and	 DWORD PTR __$EHRec$[ebp+8], 0
  00016	85 c9		 test	 ecx, ecx
  00018	74 08		 je	 SHORT $LN3@construct@4
  0001a	ff 75 0c	 push	 DWORD PTR __Val$[ebp]
  0001d	e8 00 00 00 00	 call	 ??0tagBaseCharHP@@QAE@ABU0@@Z
$LN3@construct@4:

; 203  : 		}

  00022	e8 00 00 00 00	 call	 __EH_epilog3
  00027	c2 08 00	 ret	 8
_TEXT	ENDS
;	COMDAT text$x
text$x	SEGMENT
__unwindfunclet$?construct@?$allocator@UtagBaseCharHP@@@std@@QAEXPAUtagBaseCharHP@@$$QAU3@@Z$0:
  00000	ff 75 08	 push	 DWORD PTR __Ptr$[ebp]
  00003	ff 75 f0	 push	 DWORD PTR $T555214[ebp]
  00006	e8 00 00 00 00	 call	 ??3@YAXPAX0@Z		; operator delete
  0000b	59		 pop	 ecx
  0000c	59		 pop	 ecx
  0000d	c3		 ret	 0
__ehhandler$?construct@?$allocator@UtagBaseCharHP@@@std@@QAEXPAUtagBaseCharHP@@$$QAU3@@Z:
  0000e	8b 54 24 08	 mov	 edx, DWORD PTR [esp+8]
  00012	8d 42 0c	 lea	 eax, DWORD PTR [edx+12]
  00015	8b 4a ec	 mov	 ecx, DWORD PTR [edx-20]
  00018	33 c8		 xor	 ecx, eax
  0001a	e8 00 00 00 00	 call	 @__security_check_cookie@4
  0001f	b8 00 00 00 00	 mov	 eax, OFFSET __ehfuncinfo$?construct@?$allocator@UtagBaseCharHP@@@std@@QAEXPAUtagBaseCharHP@@$$QAU3@@Z
  00024	e9 00 00 00 00	 jmp	 ___CxxFrameHandler3
text$x	ENDS
?construct@?$allocator@UtagBaseCharHP@@@std@@QAEXPAUtagBaseCharHP@@$$QAU3@@Z ENDP ; std::allocator<tagBaseCharHP>::construct
PUBLIC	??$swap@UtagBaseCharHP@@@std@@YAXAAUtagBaseCharHP@@0@Z ; std::swap<tagBaseCharHP>
;	COMDAT xdata$x
; File d:\lost saga for developer\youtube\tutorial\source\src\lsclient\iotargettimingattackskill.cpp
xdata$x	SEGMENT
__unwindtable$??$swap@UtagBaseCharHP@@@std@@YAXAAUtagBaseCharHP@@0@Z DD 0ffffffffH
	DD	FLAT:__unwindfunclet$??$swap@UtagBaseCharHP@@@std@@YAXAAUtagBaseCharHP@@0@Z$0
__ehfuncinfo$??$swap@UtagBaseCharHP@@@std@@YAXAAUtagBaseCharHP@@0@Z DD 019930522H
	DD	01H
	DD	FLAT:__unwindtable$??$swap@UtagBaseCharHP@@@std@@YAXAAUtagBaseCharHP@@0@Z
	DD	2 DUP(00H)
	DD	2 DUP(00H)
	DD	00H
	DD	01H
; Function compile flags: /Ogsp
; File c:\program files (x86)\microsoft visual studio 10.0\vc\include\utility
xdata$x	ENDS
;	COMDAT ??$swap@UtagBaseCharHP@@@std@@YAXAAUtagBaseCharHP@@0@Z
_TEXT	SEGMENT
__Tmp$ = -36						; size = 24
__$EHRec$ = -12						; size = 12
__Left$ = 8						; size = 4
__Right$ = 12						; size = 4
??$swap@UtagBaseCharHP@@@std@@YAXAAUtagBaseCharHP@@0@Z PROC ; std::swap<tagBaseCharHP>, COMDAT

; 101  : 	{	// exchange values stored at _Left and _Right

  00000	6a 18		 push	 24			; 00000018H
  00002	b8 00 00 00 00	 mov	 eax, __ehhandler$??$swap@UtagBaseCharHP@@@std@@YAXAAUtagBaseCharHP@@0@Z
  00007	e8 00 00 00 00	 call	 __EH_prolog3

; 102  : 	_Ty _Tmp = _Move(_Left);

  0000c	8b 75 08	 mov	 esi, DWORD PTR __Left$[ebp]
  0000f	56		 push	 esi
  00010	8d 4d dc	 lea	 ecx, DWORD PTR __Tmp$[ebp]
  00013	ff 15 00 00 00
	00		 call	 DWORD PTR __imp_??0ioHashString@@QAE@ABV0@@Z
  00019	8a 46 14	 mov	 al, BYTE PTR [esi+20]
  0001c	f3 0f 10 46 10	 movss	 xmm0, DWORD PTR [esi+16]
  00021	f3 0f 11 45 ec	 movss	 DWORD PTR __Tmp$[ebp+16], xmm0
  00026	88 45 f0	 mov	 BYTE PTR __Tmp$[ebp+20], al

; 103  : 	_Left = _Move(_Right);

  00029	8b 7d 0c	 mov	 edi, DWORD PTR __Right$[ebp]
  0002c	83 65 fc 00	 and	 DWORD PTR __$EHRec$[ebp+8], 0
  00030	57		 push	 edi
  00031	8b ce		 mov	 ecx, esi
  00033	e8 00 00 00 00	 call	 ??4tagBaseCharHP@@QAEAAU0@ABU0@@Z

; 104  : 	_Right = _Move(_Tmp);

  00038	8d 45 dc	 lea	 eax, DWORD PTR __Tmp$[ebp]
  0003b	50		 push	 eax
  0003c	8b cf		 mov	 ecx, edi
  0003e	ff 15 00 00 00
	00		 call	 DWORD PTR __imp_??4ioHashString@@QAEAAV0@ABV0@@Z
  00044	8a 45 f0	 mov	 al, BYTE PTR __Tmp$[ebp+20]
  00047	f3 0f 10 45 ec	 movss	 xmm0, DWORD PTR __Tmp$[ebp+16]

; 105  : 	}

  0004c	83 4d fc ff	 or	 DWORD PTR __$EHRec$[ebp+8], -1
  00050	8d 4d dc	 lea	 ecx, DWORD PTR __Tmp$[ebp]
  00053	f3 0f 11 47 10	 movss	 DWORD PTR [edi+16], xmm0
  00058	88 47 14	 mov	 BYTE PTR [edi+20], al
  0005b	ff 15 00 00 00
	00		 call	 DWORD PTR __imp_??1ioHashString@@QAE@XZ
  00061	e8 00 00 00 00	 call	 __EH_epilog3
  00066	c3		 ret	 0
_TEXT	ENDS
;	COMDAT text$x
text$x	SEGMENT
__unwindfunclet$??$swap@UtagBaseCharHP@@@std@@YAXAAUtagBaseCharHP@@0@Z$0:
  00000	8d 4d dc	 lea	 ecx, DWORD PTR __Tmp$[ebp]
  00003	e9 00 00 00 00	 jmp	 ??1tagBaseCharHP@@QAE@XZ
__ehhandler$??$swap@UtagBaseCharHP@@@std@@YAXAAUtagBaseCharHP@@0@Z:
  00008	8b 54 24 08	 mov	 edx, DWORD PTR [esp+8]
  0000c	8d 42 0c	 lea	 eax, DWORD PTR [edx+12]
  0000f	8b 4a d8	 mov	 ecx, DWORD PTR [edx-40]
  00012	33 c8		 xor	 ecx, eax
  00014	e8 00 00 00 00	 call	 @__security_check_cookie@4
  00019	b8 00 00 00 00	 mov	 eax, OFFSET __ehfuncinfo$??$swap@UtagBaseCharHP@@@std@@YAXAAUtagBaseCharHP@@0@Z
  0001e	e9 00 00 00 00	 jmp	 ___CxxFrameHandler3
text$x	ENDS
??$swap@UtagBaseCharHP@@@std@@YAXAAUtagBaseCharHP@@0@Z ENDP ; std::swap<tagBaseCharHP>
PUBLIC	??$_Move_backward@PAUtagBaseCharHP@@PAU1@@std@@YAPAUtagBaseCharHP@@PAU1@00@Z ; std::_Move_backward<tagBaseCharHP *,tagBaseCharHP *>
; Function compile flags: /Ogsp
; File c:\program files (x86)\microsoft visual studio 10.0\vc\include\xutility
;	COMDAT ??$_Move_backward@PAUtagBaseCharHP@@PAU1@@std@@YAPAUtagBaseCharHP@@PAU1@00@Z
_TEXT	SEGMENT
__Cat$555265 = -4					; size = 1
__First$ = 8						; size = 4
__Last$ = 12						; size = 4
__Dest$ = 16						; size = 4
??$_Move_backward@PAUtagBaseCharHP@@PAU1@@std@@YAPAUtagBaseCharHP@@PAU1@00@Z PROC ; std::_Move_backward<tagBaseCharHP *,tagBaseCharHP *>, COMDAT

; 2638 : 	{	// move [_First, _Last) backwards to [..., _Dest), unchecked

  00000	55		 push	 ebp
  00001	8b ec		 mov	 ebp, esp
  00003	51		 push	 ecx

; 2639 : 	return (_Move_backward(_First, _Last,
; 2640 : 		_Dest, _Ptr_cat(_First, _Dest)));

  00004	ff 75 fc	 push	 DWORD PTR __Cat$555265[ebp]
  00007	ff 75 10	 push	 DWORD PTR __Dest$[ebp]
  0000a	ff 75 0c	 push	 DWORD PTR __Last$[ebp]
  0000d	ff 75 08	 push	 DWORD PTR __First$[ebp]
  00010	e8 00 00 00 00	 call	 ??$_Move_backward@PAUtagBaseCharHP@@PAU1@@std@@YAPAUtagBaseCharHP@@PAU1@00U_Nonscalar_ptr_iterator_tag@0@@Z ; std::_Move_backward<tagBaseCharHP *,tagBaseCharHP *>
  00015	83 c4 10	 add	 esp, 16			; 00000010H

; 2641 : 	}

  00018	c9		 leave
  00019	c3		 ret	 0
??$_Move_backward@PAUtagBaseCharHP@@PAU1@@std@@YAPAUtagBaseCharHP@@PAU1@00@Z ENDP ; std::_Move_backward<tagBaseCharHP *,tagBaseCharHP *>
_TEXT	ENDS
PUBLIC	??$_Construct@UWeaponInfo@@ABU1@@std@@YAXPAUWeaponInfo@@ABU1@@Z ; std::_Construct<WeaponInfo,WeaponInfo const &>
;	COMDAT xdata$x
; File c:\program files (x86)\microsoft visual studio 10.0\vc\include\utility
xdata$x	SEGMENT
__unwindtable$??$_Construct@UWeaponInfo@@ABU1@@std@@YAXPAUWeaponInfo@@ABU1@@Z DD 0ffffffffH
	DD	FLAT:__unwindfunclet$??$_Construct@UWeaponInfo@@ABU1@@std@@YAXPAUWeaponInfo@@ABU1@@Z$0
__ehfuncinfo$??$_Construct@UWeaponInfo@@ABU1@@std@@YAXPAUWeaponInfo@@ABU1@@Z DD 019930522H
	DD	01H
	DD	FLAT:__unwindtable$??$_Construct@UWeaponInfo@@ABU1@@std@@YAXPAUWeaponInfo@@ABU1@@Z
	DD	2 DUP(00H)
	DD	2 DUP(00H)
	DD	00H
	DD	01H
; Function compile flags: /Ogsp
; File c:\program files (x86)\microsoft visual studio 10.0\vc\include\xmemory
xdata$x	ENDS
;	COMDAT ??$_Construct@UWeaponInfo@@ABU1@@std@@YAXPAUWeaponInfo@@ABU1@@Z
_TEXT	SEGMENT
$T555269 = -16						; size = 4
__$EHRec$ = -12						; size = 12
__Vptr$ = 8						; size = 4
__Ptr$ = 8						; size = 4
__Val$ = 12						; size = 4
??$_Construct@UWeaponInfo@@ABU1@@std@@YAXPAUWeaponInfo@@ABU1@@Z PROC ; std::_Construct<WeaponInfo,WeaponInfo const &>, COMDAT

; 46   : 	{	// construct object at _Ptr with value _Val

  00000	6a 04		 push	 4
  00002	b8 00 00 00 00	 mov	 eax, __ehhandler$??$_Construct@UWeaponInfo@@ABU1@@std@@YAXPAUWeaponInfo@@ABU1@@Z
  00007	e8 00 00 00 00	 call	 __EH_prolog3

; 47   : 	void _FARQ *_Vptr = _Ptr;

  0000c	8b 4d 08	 mov	 ecx, DWORD PTR __Ptr$[ebp]
  0000f	89 4d 08	 mov	 DWORD PTR __Vptr$[ebp], ecx

; 48   : 	::new (_Vptr) _Ty1(_STD forward<_Ty2>(_Val));

  00012	89 4d f0	 mov	 DWORD PTR $T555269[ebp], ecx
  00015	83 65 fc 00	 and	 DWORD PTR __$EHRec$[ebp+8], 0
  00019	85 c9		 test	 ecx, ecx
  0001b	74 08		 je	 SHORT $LN3@Construct@3
  0001d	ff 75 0c	 push	 DWORD PTR __Val$[ebp]
  00020	e8 00 00 00 00	 call	 ??0WeaponInfo@@QAE@ABU0@@Z
$LN3@Construct@3:

; 49   : 	}

  00025	e8 00 00 00 00	 call	 __EH_epilog3
  0002a	c3		 ret	 0
_TEXT	ENDS
;	COMDAT text$x
text$x	SEGMENT
__unwindfunclet$??$_Construct@UWeaponInfo@@ABU1@@std@@YAXPAUWeaponInfo@@ABU1@@Z$0:
  00000	ff 75 08	 push	 DWORD PTR __Vptr$[ebp]
  00003	ff 75 f0	 push	 DWORD PTR $T555269[ebp]
  00006	e8 00 00 00 00	 call	 ??3@YAXPAX0@Z		; operator delete
  0000b	59		 pop	 ecx
  0000c	59		 pop	 ecx
  0000d	c3		 ret	 0
__ehhandler$??$_Construct@UWeaponInfo@@ABU1@@std@@YAXPAUWeaponInfo@@ABU1@@Z:
  0000e	8b 54 24 08	 mov	 edx, DWORD PTR [esp+8]
  00012	8d 42 0c	 lea	 eax, DWORD PTR [edx+12]
  00015	8b 4a ec	 mov	 ecx, DWORD PTR [edx-20]
  00018	33 c8		 xor	 ecx, eax
  0001a	e8 00 00 00 00	 call	 @__security_check_cookie@4
  0001f	b8 00 00 00 00	 mov	 eax, OFFSET __ehfuncinfo$??$_Construct@UWeaponInfo@@ABU1@@std@@YAXPAUWeaponInfo@@ABU1@@Z
  00024	e9 00 00 00 00	 jmp	 ___CxxFrameHandler3
text$x	ENDS
??$_Construct@UWeaponInfo@@ABU1@@std@@YAXPAUWeaponInfo@@ABU1@@Z ENDP ; std::_Construct<WeaponInfo,WeaponInfo const &>
PUBLIC	??$_Push_heap@PAUtagBaseCharHP@@HU1@VBaseCharHPSort@@@std@@YAXPAUtagBaseCharHP@@HH$$QAU1@VBaseCharHPSort@@@Z ; std::_Push_heap<tagBaseCharHP *,int,tagBaseCharHP,BaseCharHPSort>
; Function compile flags: /Ogsp
; File c:\program files (x86)\microsoft visual studio 10.0\vc\include\algorithm
;	COMDAT ??$_Push_heap@PAUtagBaseCharHP@@HU1@VBaseCharHPSort@@@std@@YAXPAUtagBaseCharHP@@HH$$QAU1@VBaseCharHPSort@@@Z
_TEXT	SEGMENT
__First$ = 8						; size = 4
__Hole$ = 12						; size = 4
__Top$ = 16						; size = 4
__Val$ = 20						; size = 4
__Pred$ = 24						; size = 1
??$_Push_heap@PAUtagBaseCharHP@@HU1@VBaseCharHPSort@@@std@@YAXPAUtagBaseCharHP@@HH$$QAU1@VBaseCharHPSort@@@Z PROC ; std::_Push_heap<tagBaseCharHP *,int,tagBaseCharHP,BaseCharHPSort>, COMDAT

; 2455 : 	{	// percolate _Hole to _Top or where _Val belongs, using operator<

  00000	55		 push	 ebp
  00001	8b ec		 mov	 ebp, esp

; 2456 : 	for (_Diff _Idx = (_Hole - 1) / 2;

  00003	8b 4d 0c	 mov	 ecx, DWORD PTR __Hole$[ebp]
  00006	8d 41 ff	 lea	 eax, DWORD PTR [ecx-1]
  00009	53		 push	 ebx

; 2457 : 		_Top < _Hole && _DEBUG_LT_PRED(_Pred, *(_First + _Idx), _Val);
; 2458 : 		_Idx = (_Hole - 1) / 2)

  0000a	8b 5d 14	 mov	 ebx, DWORD PTR __Val$[ebp]
  0000d	99		 cdq
  0000e	56		 push	 esi
  0000f	2b c2		 sub	 eax, edx
  00011	8b f0		 mov	 esi, eax
  00013	57		 push	 edi
  00014	8b 7d 08	 mov	 edi, DWORD PTR __First$[ebp]
  00017	d1 fe		 sar	 esi, 1
  00019	eb 3a		 jmp	 SHORT $LN18@Push_heap
$LL3@Push_heap:
  0001b	8b c6		 mov	 eax, esi
  0001d	6b c0 18	 imul	 eax, 24			; 00000018H
  00020	03 c7		 add	 eax, edi
  00022	80 78 14 00	 cmp	 BYTE PTR [eax+20], 0
  00026	75 32		 jne	 SHORT $LN17@Push_heap
  00028	f3 0f 10 40 10	 movss	 xmm0, DWORD PTR [eax+16]
  0002d	f3 0f 10 4b 10	 movss	 xmm1, DWORD PTR [ebx+16]
  00032	0f 5a c0	 cvtps2pd xmm0, xmm0
  00035	0f 5a c9	 cvtps2pd xmm1, xmm1
  00038	66 0f 2f c8	 comisd	 xmm1, xmm0
  0003c	76 1c		 jbe	 SHORT $LN17@Push_heap

; 2459 : 		{	// move _Hole up to parent
; 2460 : 		*(_First + _Hole) = _Move(*(_First + _Idx));

  0003e	6b c9 18	 imul	 ecx, 24			; 00000018H
  00041	50		 push	 eax
  00042	03 cf		 add	 ecx, edi
  00044	e8 00 00 00 00	 call	 ??4tagBaseCharHP@@QAEAAU0@ABU0@@Z
  00049	8d 46 ff	 lea	 eax, DWORD PTR [esi-1]
  0004c	99		 cdq
  0004d	2b c2		 sub	 eax, edx
  0004f	d1 f8		 sar	 eax, 1

; 2461 : 		_Hole = _Idx;

  00051	8b ce		 mov	 ecx, esi
  00053	8b f0		 mov	 esi, eax
$LN18@Push_heap:

; 2457 : 		_Top < _Hole && _DEBUG_LT_PRED(_Pred, *(_First + _Idx), _Val);
; 2458 : 		_Idx = (_Hole - 1) / 2)

  00055	39 4d 10	 cmp	 DWORD PTR __Top$[ebp], ecx
  00058	7c c1		 jl	 SHORT $LL3@Push_heap
$LN17@Push_heap:

; 2462 : 		}
; 2463 : 
; 2464 : 	*(_First + _Hole) = _Move(_Val);	// drop _Val into final hole

  0005a	6b c9 18	 imul	 ecx, 24			; 00000018H
  0005d	53		 push	 ebx
  0005e	03 cf		 add	 ecx, edi
  00060	e8 00 00 00 00	 call	 ??4tagBaseCharHP@@QAEAAU0@ABU0@@Z
  00065	5f		 pop	 edi
  00066	5e		 pop	 esi
  00067	5b		 pop	 ebx

; 2465 : 	}

  00068	5d		 pop	 ebp
  00069	c3		 ret	 0
??$_Push_heap@PAUtagBaseCharHP@@HU1@VBaseCharHPSort@@@std@@YAXPAUtagBaseCharHP@@HH$$QAU1@VBaseCharHPSort@@@Z ENDP ; std::_Push_heap<tagBaseCharHP *,int,tagBaseCharHP,BaseCharHPSort>
_TEXT	ENDS
PUBLIC	??B?$CEncrypt@M@@QAEMXZ				; CEncrypt<float>::operator float
; Function compile flags: /Ogsp
; File d:\lost saga for developer\youtube\tutorial\source\src\lsclient\encryptvalue.h
;	COMDAT ??B?$CEncrypt@M@@QAEMXZ
_TEXT	SEGMENT
_value$ = -4						; size = 4
??B?$CEncrypt@M@@QAEMXZ PROC				; CEncrypt<float>::operator float, COMDAT
; _this$ = ecx

; 134  : 	{

  00000	55		 push	 ebp
  00001	8b ec		 mov	 ebp, esp
  00003	51		 push	 ecx

; 135  : 		type value;
; 136  : 		DecryptValueToPool(&value);

  00004	8d 45 fc	 lea	 eax, DWORD PTR _value$[ebp]
  00007	50		 push	 eax
  00008	e8 00 00 00 00	 call	 ?DecryptValueToPool@?$CEncrypt@M@@QAEXPAM@Z ; CEncrypt<float>::DecryptValueToPool

; 137  : 
; 138  : #ifdef _NOTUSE
; 139  : 		Debug();
; 140  : #endif
; 141  : 		return value;

  0000d	d9 45 fc	 fld	 DWORD PTR _value$[ebp]

; 142  : 	}

  00010	c9		 leave
  00011	c3		 ret	 0
??B?$CEncrypt@M@@QAEMXZ ENDP				; CEncrypt<float>::operator float
_TEXT	ENDS
PUBLIC	??B?$CEncrypt@_N@@QBE_NXZ			; CEncrypt<bool>::operator bool
; Function compile flags: /Ogsp
;	COMDAT ??B?$CEncrypt@_N@@QBE_NXZ
_TEXT	SEGMENT
_value$ = -1						; size = 1
??B?$CEncrypt@_N@@QBE_NXZ PROC				; CEncrypt<bool>::operator bool, COMDAT
; _this$ = ecx

; 145  : 	{

  00000	55		 push	 ebp
  00001	8b ec		 mov	 ebp, esp
  00003	51		 push	 ecx

; 146  : 		//UJ 130829, const    --start
; 147  : 		type value;
; 148  : 		CEncrypt<type>* pThis = const_cast<CEncrypt<type>*>(this);
; 149  : 		pThis->DecryptValueToPool(&value);

  00004	8d 45 ff	 lea	 eax, DWORD PTR _value$[ebp]
  00007	50		 push	 eax
  00008	e8 00 00 00 00	 call	 ?DecryptValueToPool@?$CEncrypt@_N@@QAEXPA_N@Z ; CEncrypt<bool>::DecryptValueToPool

; 150  : 		//// const DecryptValueToPool     .
; 151  :  		//type value;
; 152  : 		//char szTempMem[MAX_ENCRYPT];
; 153  : 		//m_RC5.DecryptByte( m_MemPool, szTempMem, max(m_ValueSize, DEFAULT_ENCRYPT) );
; 154  : 		//memcpy( &value, szTempMem, m_ValueSize );
; 155  : 		//UJ --end
; 156  : 
; 157  : #ifdef _NOTUSE
; 158  : 		Debug();
; 159  : #endif
; 160  : 		return value;

  0000d	8a 45 ff	 mov	 al, BYTE PTR _value$[ebp]

; 161  : 	}

  00010	c9		 leave
  00011	c3		 ret	 0
??B?$CEncrypt@_N@@QBE_NXZ ENDP				; CEncrypt<bool>::operator bool
_TEXT	ENDS
PUBLIC	??B?$CEncrypt@W4TeamType@@@@QBE?AW4TeamType@@XZ	; CEncrypt<enum TeamType>::operator enum TeamType
; Function compile flags: /Ogsp
;	COMDAT ??B?$CEncrypt@W4TeamType@@@@QBE?AW4TeamType@@XZ
_TEXT	SEGMENT
_value$ = -4						; size = 4
??B?$CEncrypt@W4TeamType@@@@QBE?AW4TeamType@@XZ PROC	; CEncrypt<enum TeamType>::operator enum TeamType, COMDAT
; _this$ = ecx

; 145  : 	{

  00000	55		 push	 ebp
  00001	8b ec		 mov	 ebp, esp
  00003	51		 push	 ecx

; 146  : 		//UJ 130829, const    --start
; 147  : 		type value;
; 148  : 		CEncrypt<type>* pThis = const_cast<CEncrypt<type>*>(this);
; 149  : 		pThis->DecryptValueToPool(&value);

  00004	8d 45 fc	 lea	 eax, DWORD PTR _value$[ebp]
  00007	50		 push	 eax
  00008	e8 00 00 00 00	 call	 ?DecryptValueToPool@?$CEncrypt@W4TeamType@@@@QAEXPAW4TeamType@@@Z ; CEncrypt<enum TeamType>::DecryptValueToPool

; 150  : 		//// const DecryptValueToPool     .
; 151  :  		//type value;
; 152  : 		//char szTempMem[MAX_ENCRYPT];
; 153  : 		//m_RC5.DecryptByte( m_MemPool, szTempMem, max(m_ValueSize, DEFAULT_ENCRYPT) );
; 154  : 		//memcpy( &value, szTempMem, m_ValueSize );
; 155  : 		//UJ --end
; 156  : 
; 157  : #ifdef _NOTUSE
; 158  : 		Debug();
; 159  : #endif
; 160  : 		return value;

  0000d	8b 45 fc	 mov	 eax, DWORD PTR _value$[ebp]

; 161  : 	}

  00010	c9		 leave
  00011	c3		 ret	 0
??B?$CEncrypt@W4TeamType@@@@QBE?AW4TeamType@@XZ ENDP	; CEncrypt<enum TeamType>::operator enum TeamType
_TEXT	ENDS
PUBLIC	??0?$_Vector_val@UWeaponInfo@@V?$allocator@UWeaponInfo@@@std@@@std@@QAE@V?$allocator@UWeaponInfo@@@1@@Z ; std::_Vector_val<WeaponInfo,std::allocator<WeaponInfo> >::_Vector_val<WeaponInfo,std::allocator<WeaponInfo> >
; Function compile flags: /Ogsp
; File c:\program files (x86)\microsoft visual studio 10.0\vc\include\vector
;	COMDAT ??0?$_Vector_val@UWeaponInfo@@V?$allocator@UWeaponInfo@@@std@@@std@@QAE@V?$allocator@UWeaponInfo@@@1@@Z
_TEXT	SEGMENT
__Al$ = 8						; size = 1
??0?$_Vector_val@UWeaponInfo@@V?$allocator@UWeaponInfo@@@std@@@std@@QAE@V?$allocator@UWeaponInfo@@@1@@Z PROC ; std::_Vector_val<WeaponInfo,std::allocator<WeaponInfo> >::_Vector_val<WeaponInfo,std::allocator<WeaponInfo> >, COMDAT
; _this$ = ecx

; 426  : 		{	// construct allocator from _Al

  00000	8b c1		 mov	 eax, ecx

; 427  : 		_Myfirst = 0;

  00002	33 c9		 xor	 ecx, ecx
  00004	89 08		 mov	 DWORD PTR [eax], ecx

; 428  : 		_Mylast = 0;

  00006	89 48 04	 mov	 DWORD PTR [eax+4], ecx

; 429  : 		_Myend = 0;

  00009	89 48 08	 mov	 DWORD PTR [eax+8], ecx

; 430  : 		}

  0000c	c2 04 00	 ret	 4
??0?$_Vector_val@UWeaponInfo@@V?$allocator@UWeaponInfo@@@std@@@std@@QAE@V?$allocator@UWeaponInfo@@@1@@Z ENDP ; std::_Vector_val<WeaponInfo,std::allocator<WeaponInfo> >::_Vector_val<WeaponInfo,std::allocator<WeaponInfo> >
_TEXT	ENDS
PUBLIC	??0?$_Vector_val@UForceInfo@@V?$allocator@UForceInfo@@@std@@@std@@QAE@V?$allocator@UForceInfo@@@1@@Z ; std::_Vector_val<ForceInfo,std::allocator<ForceInfo> >::_Vector_val<ForceInfo,std::allocator<ForceInfo> >
; Function compile flags: /Ogsp
;	COMDAT ??0?$_Vector_val@UForceInfo@@V?$allocator@UForceInfo@@@std@@@std@@QAE@V?$allocator@UForceInfo@@@1@@Z
_TEXT	SEGMENT
__Al$ = 8						; size = 1
??0?$_Vector_val@UForceInfo@@V?$allocator@UForceInfo@@@std@@@std@@QAE@V?$allocator@UForceInfo@@@1@@Z PROC ; std::_Vector_val<ForceInfo,std::allocator<ForceInfo> >::_Vector_val<ForceInfo,std::allocator<ForceInfo> >, COMDAT
; _this$ = ecx

; 426  : 		{	// construct allocator from _Al

  00000	8b c1		 mov	 eax, ecx

; 427  : 		_Myfirst = 0;

  00002	33 c9		 xor	 ecx, ecx
  00004	89 08		 mov	 DWORD PTR [eax], ecx

; 428  : 		_Mylast = 0;

  00006	89 48 04	 mov	 DWORD PTR [eax+4], ecx

; 429  : 		_Myend = 0;

  00009	89 48 08	 mov	 DWORD PTR [eax+8], ecx

; 430  : 		}

  0000c	c2 04 00	 ret	 4
??0?$_Vector_val@UForceInfo@@V?$allocator@UForceInfo@@@std@@@std@@QAE@V?$allocator@UForceInfo@@@1@@Z ENDP ; std::_Vector_val<ForceInfo,std::allocator<ForceInfo> >::_Vector_val<ForceInfo,std::allocator<ForceInfo> >
_TEXT	ENDS
PUBLIC	?max_size@?$vector@UWeaponInfo@@V?$allocator@UWeaponInfo@@@std@@@std@@QBEIXZ ; std::vector<WeaponInfo,std::allocator<WeaponInfo> >::max_size
; Function compile flags: /Ogsp
;	COMDAT ?max_size@?$vector@UWeaponInfo@@V?$allocator@UWeaponInfo@@@std@@@std@@QBEIXZ
_TEXT	SEGMENT
?max_size@?$vector@UWeaponInfo@@V?$allocator@UWeaponInfo@@@std@@@std@@QBEIXZ PROC ; std::vector<WeaponInfo,std::allocator<WeaponInfo> >::max_size, COMDAT
; _this$ = ecx

; 884  : 		return (this->_Alval.max_size());

  00000	b8 66 66 66 06	 mov	 eax, 107374182		; 06666666H

; 885  : 		}

  00005	c3		 ret	 0
?max_size@?$vector@UWeaponInfo@@V?$allocator@UWeaponInfo@@@std@@@std@@QBEIXZ ENDP ; std::vector<WeaponInfo,std::allocator<WeaponInfo> >::max_size
_TEXT	ENDS
PUBLIC	?allocate@?$allocator@UWeaponInfo@@@std@@QAEPAUWeaponInfo@@I@Z ; std::allocator<WeaponInfo>::allocate
; Function compile flags: /Ogsp
; File c:\program files (x86)\microsoft visual studio 10.0\vc\include\xmemory
;	COMDAT ?allocate@?$allocator@UWeaponInfo@@@std@@QAEPAUWeaponInfo@@I@Z
_TEXT	SEGMENT
__Count$ = 8						; size = 4
?allocate@?$allocator@UWeaponInfo@@@std@@QAEPAUWeaponInfo@@I@Z PROC ; std::allocator<WeaponInfo>::allocate, COMDAT
; _this$ = ecx

; 186  : 		{	// allocate array of _Count elements

  00000	55		 push	 ebp
  00001	8b ec		 mov	 ebp, esp

; 187  : 		return (_Allocate(_Count, (pointer)0));

  00003	6a 00		 push	 0
  00005	ff 75 08	 push	 DWORD PTR __Count$[ebp]
  00008	e8 00 00 00 00	 call	 ??$_Allocate@UWeaponInfo@@@std@@YAPAUWeaponInfo@@IPAU1@@Z ; std::_Allocate<WeaponInfo>
  0000d	59		 pop	 ecx
  0000e	59		 pop	 ecx

; 188  : 		}

  0000f	5d		 pop	 ebp
  00010	c2 04 00	 ret	 4
?allocate@?$allocator@UWeaponInfo@@@std@@QAEPAUWeaponInfo@@I@Z ENDP ; std::allocator<WeaponInfo>::allocate
_TEXT	ENDS
PUBLIC	?max_size@?$vector@UForceInfo@@V?$allocator@UForceInfo@@@std@@@std@@QBEIXZ ; std::vector<ForceInfo,std::allocator<ForceInfo> >::max_size
; Function compile flags: /Ogsp
; File c:\program files (x86)\microsoft visual studio 10.0\vc\include\vector
;	COMDAT ?max_size@?$vector@UForceInfo@@V?$allocator@UForceInfo@@@std@@@std@@QBEIXZ
_TEXT	SEGMENT
?max_size@?$vector@UForceInfo@@V?$allocator@UForceInfo@@@std@@@std@@QBEIXZ PROC ; std::vector<ForceInfo,std::allocator<ForceInfo> >::max_size, COMDAT
; _this$ = ecx

; 884  : 		return (this->_Alval.max_size());

  00000	b8 55 55 55 15	 mov	 eax, 357913941		; 15555555H

; 885  : 		}

  00005	c3		 ret	 0
?max_size@?$vector@UForceInfo@@V?$allocator@UForceInfo@@@std@@@std@@QBEIXZ ENDP ; std::vector<ForceInfo,std::allocator<ForceInfo> >::max_size
_TEXT	ENDS
PUBLIC	?allocate@?$allocator@UForceInfo@@@std@@QAEPAUForceInfo@@I@Z ; std::allocator<ForceInfo>::allocate
; Function compile flags: /Ogsp
; File c:\program files (x86)\microsoft visual studio 10.0\vc\include\xmemory
;	COMDAT ?allocate@?$allocator@UForceInfo@@@std@@QAEPAUForceInfo@@I@Z
_TEXT	SEGMENT
__Count$ = 8						; size = 4
?allocate@?$allocator@UForceInfo@@@std@@QAEPAUForceInfo@@I@Z PROC ; std::allocator<ForceInfo>::allocate, COMDAT
; _this$ = ecx

; 186  : 		{	// allocate array of _Count elements

  00000	55		 push	 ebp
  00001	8b ec		 mov	 ebp, esp

; 187  : 		return (_Allocate(_Count, (pointer)0));

  00003	6a 00		 push	 0
  00005	ff 75 08	 push	 DWORD PTR __Count$[ebp]
  00008	e8 00 00 00 00	 call	 ??$_Allocate@UForceInfo@@@std@@YAPAUForceInfo@@IPAU1@@Z ; std::_Allocate<ForceInfo>
  0000d	59		 pop	 ecx
  0000e	59		 pop	 ecx

; 188  : 		}

  0000f	5d		 pop	 ebp
  00010	c2 04 00	 ret	 4
?allocate@?$allocator@UForceInfo@@@std@@QAEPAUForceInfo@@I@Z ENDP ; std::allocator<ForceInfo>::allocate
_TEXT	ENDS
PUBLIC	??0?$_Vector_iterator@V?$_Vector_val@UWeaponInfo@@V?$allocator@UWeaponInfo@@@std@@@std@@@std@@QAE@PAUWeaponInfo@@PBU_Container_base0@1@@Z ; std::_Vector_iterator<std::_Vector_val<WeaponInfo,std::allocator<WeaponInfo> > >::_Vector_iterator<std::_Vector_val<WeaponInfo,std::allocator<WeaponInfo> > >
; Function compile flags: /Ogsp
; File c:\program files (x86)\microsoft visual studio 10.0\vc\include\vector
;	COMDAT ??0?$_Vector_iterator@V?$_Vector_val@UWeaponInfo@@V?$allocator@UWeaponInfo@@@std@@@std@@@std@@QAE@PAUWeaponInfo@@PBU_Container_base0@1@@Z
_TEXT	SEGMENT
__Parg$ = 8						; size = 4
__Pvector$ = 12						; size = 4
??0?$_Vector_iterator@V?$_Vector_val@UWeaponInfo@@V?$allocator@UWeaponInfo@@@std@@@std@@@std@@QAE@PAUWeaponInfo@@PBU_Container_base0@1@@Z PROC ; std::_Vector_iterator<std::_Vector_val<WeaponInfo,std::allocator<WeaponInfo> > >::_Vector_iterator<std::_Vector_val<WeaponInfo,std::allocator<WeaponInfo> > >, COMDAT
; _this$ = ecx

; 304  : 		{	// construct with pointer _Parg

  00000	55		 push	 ebp
  00001	8b ec		 mov	 ebp, esp
  00003	8b c1		 mov	 eax, ecx
  00005	8b 4d 08	 mov	 ecx, DWORD PTR __Parg$[ebp]
  00008	89 08		 mov	 DWORD PTR [eax], ecx

; 305  : 		}

  0000a	5d		 pop	 ebp
  0000b	c2 08 00	 ret	 8
??0?$_Vector_iterator@V?$_Vector_val@UWeaponInfo@@V?$allocator@UWeaponInfo@@@std@@@std@@@std@@QAE@PAUWeaponInfo@@PBU_Container_base0@1@@Z ENDP ; std::_Vector_iterator<std::_Vector_val<WeaponInfo,std::allocator<WeaponInfo> > >::_Vector_iterator<std::_Vector_val<WeaponInfo,std::allocator<WeaponInfo> > >
_TEXT	ENDS
PUBLIC	??0?$_Vector_iterator@V?$_Vector_val@UForceInfo@@V?$allocator@UForceInfo@@@std@@@std@@@std@@QAE@PAUForceInfo@@PBU_Container_base0@1@@Z ; std::_Vector_iterator<std::_Vector_val<ForceInfo,std::allocator<ForceInfo> > >::_Vector_iterator<std::_Vector_val<ForceInfo,std::allocator<ForceInfo> > >
; Function compile flags: /Ogsp
;	COMDAT ??0?$_Vector_iterator@V?$_Vector_val@UForceInfo@@V?$allocator@UForceInfo@@@std@@@std@@@std@@QAE@PAUForceInfo@@PBU_Container_base0@1@@Z
_TEXT	SEGMENT
__Parg$ = 8						; size = 4
__Pvector$ = 12						; size = 4
??0?$_Vector_iterator@V?$_Vector_val@UForceInfo@@V?$allocator@UForceInfo@@@std@@@std@@@std@@QAE@PAUForceInfo@@PBU_Container_base0@1@@Z PROC ; std::_Vector_iterator<std::_Vector_val<ForceInfo,std::allocator<ForceInfo> > >::_Vector_iterator<std::_Vector_val<ForceInfo,std::allocator<ForceInfo> > >, COMDAT
; _this$ = ecx

; 304  : 		{	// construct with pointer _Parg

  00000	55		 push	 ebp
  00001	8b ec		 mov	 ebp, esp
  00003	8b c1		 mov	 eax, ecx
  00005	8b 4d 08	 mov	 ecx, DWORD PTR __Parg$[ebp]
  00008	89 08		 mov	 DWORD PTR [eax], ecx

; 305  : 		}

  0000a	5d		 pop	 ebp
  0000b	c2 08 00	 ret	 8
??0?$_Vector_iterator@V?$_Vector_val@UForceInfo@@V?$allocator@UForceInfo@@@std@@@std@@@std@@QAE@PAUForceInfo@@PBU_Container_base0@1@@Z ENDP ; std::_Vector_iterator<std::_Vector_val<ForceInfo,std::allocator<ForceInfo> > >::_Vector_iterator<std::_Vector_val<ForceInfo,std::allocator<ForceInfo> > >
_TEXT	ENDS
PUBLIC	??8?$_Vector_const_iterator@V?$_Vector_val@UWeaponInfo@@V?$allocator@UWeaponInfo@@@std@@@std@@@std@@QBE_NABV01@@Z ; std::_Vector_const_iterator<std::_Vector_val<WeaponInfo,std::allocator<WeaponInfo> > >::operator==
; Function compile flags: /Ogsp
;	COMDAT ??8?$_Vector_const_iterator@V?$_Vector_val@UWeaponInfo@@V?$allocator@UWeaponInfo@@@std@@@std@@@std@@QBE_NABV01@@Z
_TEXT	SEGMENT
__Right$ = 8						; size = 4
??8?$_Vector_const_iterator@V?$_Vector_val@UWeaponInfo@@V?$allocator@UWeaponInfo@@@std@@@std@@@std@@QBE_NABV01@@Z PROC ; std::_Vector_const_iterator<std::_Vector_val<WeaponInfo,std::allocator<WeaponInfo> > >::operator==, COMDAT
; _this$ = ecx

; 201  : 		{	// test for iterator equality

  00000	55		 push	 ebp
  00001	8b ec		 mov	 ebp, esp

; 202  : 		_Compat(_Right);
; 203  : 		return (this->_Ptr == _Right._Ptr);

  00003	8b 01		 mov	 eax, DWORD PTR [ecx]
  00005	8b 4d 08	 mov	 ecx, DWORD PTR __Right$[ebp]
  00008	2b 01		 sub	 eax, DWORD PTR [ecx]
  0000a	f7 d8		 neg	 eax
  0000c	1b c0		 sbb	 eax, eax
  0000e	40		 inc	 eax

; 204  : 		}

  0000f	5d		 pop	 ebp
  00010	c2 04 00	 ret	 4
??8?$_Vector_const_iterator@V?$_Vector_val@UWeaponInfo@@V?$allocator@UWeaponInfo@@@std@@@std@@@std@@QBE_NABV01@@Z ENDP ; std::_Vector_const_iterator<std::_Vector_val<WeaponInfo,std::allocator<WeaponInfo> > >::operator==
_TEXT	ENDS
PUBLIC	??8?$_Vector_const_iterator@V?$_Vector_val@UForceInfo@@V?$allocator@UForceInfo@@@std@@@std@@@std@@QBE_NABV01@@Z ; std::_Vector_const_iterator<std::_Vector_val<ForceInfo,std::allocator<ForceInfo> > >::operator==
; Function compile flags: /Ogsp
;	COMDAT ??8?$_Vector_const_iterator@V?$_Vector_val@UForceInfo@@V?$allocator@UForceInfo@@@std@@@std@@@std@@QBE_NABV01@@Z
_TEXT	SEGMENT
__Right$ = 8						; size = 4
??8?$_Vector_const_iterator@V?$_Vector_val@UForceInfo@@V?$allocator@UForceInfo@@@std@@@std@@@std@@QBE_NABV01@@Z PROC ; std::_Vector_const_iterator<std::_Vector_val<ForceInfo,std::allocator<ForceInfo> > >::operator==, COMDAT
; _this$ = ecx

; 201  : 		{	// test for iterator equality

  00000	55		 push	 ebp
  00001	8b ec		 mov	 ebp, esp

; 202  : 		_Compat(_Right);
; 203  : 		return (this->_Ptr == _Right._Ptr);

  00003	8b 01		 mov	 eax, DWORD PTR [ecx]
  00005	8b 4d 08	 mov	 ecx, DWORD PTR __Right$[ebp]
  00008	2b 01		 sub	 eax, DWORD PTR [ecx]
  0000a	f7 d8		 neg	 eax
  0000c	1b c0		 sbb	 eax, eax
  0000e	40		 inc	 eax

; 204  : 		}

  0000f	5d		 pop	 ebp
  00010	c2 04 00	 ret	 4
??8?$_Vector_const_iterator@V?$_Vector_val@UForceInfo@@V?$allocator@UForceInfo@@@std@@@std@@@std@@QBE_NABV01@@Z ENDP ; std::_Vector_const_iterator<std::_Vector_val<ForceInfo,std::allocator<ForceInfo> > >::operator==
_TEXT	ENDS
PUBLIC	??$_Copy_impl@PAUForceInfo@@PAU1@@std@@YAPAUForceInfo@@PAU1@00@Z ; std::_Copy_impl<ForceInfo *,ForceInfo *>
; Function compile flags: /Ogsp
; File c:\program files (x86)\microsoft visual studio 10.0\vc\include\xutility
;	COMDAT ??$_Copy_impl@PAUForceInfo@@PAU1@@std@@YAPAUForceInfo@@PAU1@00@Z
_TEXT	SEGMENT
__Cat$555385 = -4					; size = 1
__First$ = 8						; size = 4
__Last$ = 12						; size = 4
__Dest$ = 16						; size = 4
??$_Copy_impl@PAUForceInfo@@PAU1@@std@@YAPAUForceInfo@@PAU1@00@Z PROC ; std::_Copy_impl<ForceInfo *,ForceInfo *>, COMDAT

; 2163 : 	{	// copy [_First, _Last) to [_Dest, ...)

  00000	55		 push	 ebp
  00001	8b ec		 mov	 ebp, esp
  00003	51		 push	 ecx

; 2164 : 	return (_Copy_impl(_First, _Last,
; 2165 : 		_Dest, _Ptr_cat(_First, _Dest)));

  00004	ff 75 fc	 push	 DWORD PTR __Cat$555385[ebp]
  00007	ff 75 10	 push	 DWORD PTR __Dest$[ebp]
  0000a	ff 75 0c	 push	 DWORD PTR __Last$[ebp]
  0000d	ff 75 08	 push	 DWORD PTR __First$[ebp]
  00010	e8 00 00 00 00	 call	 ??$_Copy_impl@PAUForceInfo@@PAU1@@std@@YAPAUForceInfo@@PAU1@00U_Nonscalar_ptr_iterator_tag@0@@Z ; std::_Copy_impl<ForceInfo *,ForceInfo *>
  00015	83 c4 10	 add	 esp, 16			; 00000010H

; 2166 : 	}

  00018	c9		 leave
  00019	c3		 ret	 0
??$_Copy_impl@PAUForceInfo@@PAU1@@std@@YAPAUForceInfo@@PAU1@00@Z ENDP ; std::_Copy_impl<ForceInfo *,ForceInfo *>
_TEXT	ENDS
PUBLIC	?destroy@?$allocator@UForceInfo@@@std@@QAEXPAUForceInfo@@@Z ; std::allocator<ForceInfo>::destroy
; Function compile flags: /Ogsp
; File c:\program files (x86)\microsoft visual studio 10.0\vc\include\xmemory
;	COMDAT ?destroy@?$allocator@UForceInfo@@@std@@QAEXPAUForceInfo@@@Z
_TEXT	SEGMENT
__Ptr$ = 8						; size = 4
?destroy@?$allocator@UForceInfo@@@std@@QAEXPAUForceInfo@@@Z PROC ; std::allocator<ForceInfo>::destroy, COMDAT
; _this$ = ecx

; 213  : 		_Destroy(_Ptr);
; 214  : 		}

  00000	c2 04 00	 ret	 4
?destroy@?$allocator@UForceInfo@@@std@@QAEXPAUForceInfo@@@Z ENDP ; std::allocator<ForceInfo>::destroy
_TEXT	ENDS
PUBLIC	??$_Copy_impl@PAUWeaponInfo@@PAU1@@std@@YAPAUWeaponInfo@@PAU1@00U_Nonscalar_ptr_iterator_tag@0@@Z ; std::_Copy_impl<WeaponInfo *,WeaponInfo *>
; Function compile flags: /Ogsp
; File c:\program files (x86)\microsoft visual studio 10.0\vc\include\xutility
;	COMDAT ??$_Copy_impl@PAUWeaponInfo@@PAU1@@std@@YAPAUWeaponInfo@@PAU1@00U_Nonscalar_ptr_iterator_tag@0@@Z
_TEXT	SEGMENT
__First$ = 8						; size = 4
__Last$ = 12						; size = 4
__Dest$ = 16						; size = 4
___formal$ = 20						; size = 1
??$_Copy_impl@PAUWeaponInfo@@PAU1@@std@@YAPAUWeaponInfo@@PAU1@00U_Nonscalar_ptr_iterator_tag@0@@Z PROC ; std::_Copy_impl<WeaponInfo *,WeaponInfo *>, COMDAT

; 2142 : 	{	// copy [_First, _Last) to [_Dest, ...), arbitrary iterators

  00000	55		 push	 ebp
  00001	8b ec		 mov	 ebp, esp
  00003	56		 push	 esi

; 2143 : 	for (; _First != _Last; ++_Dest, ++_First)

  00004	8b 75 08	 mov	 esi, DWORD PTR __First$[ebp]
  00007	eb 10		 jmp	 SHORT $LN9@Copy_impl@2
$LL3@Copy_impl@2:

; 2144 : 		*_Dest = *_First;

  00009	8b 4d 10	 mov	 ecx, DWORD PTR __Dest$[ebp]
  0000c	56		 push	 esi
  0000d	e8 00 00 00 00	 call	 ??4WeaponInfo@@QAEAAU0@ABU0@@Z
  00012	83 45 10 28	 add	 DWORD PTR __Dest$[ebp], 40 ; 00000028H
  00016	83 c6 28	 add	 esi, 40			; 00000028H
$LN9@Copy_impl@2:

; 2143 : 	for (; _First != _Last; ++_Dest, ++_First)

  00019	3b 75 0c	 cmp	 esi, DWORD PTR __Last$[ebp]
  0001c	75 eb		 jne	 SHORT $LL3@Copy_impl@2

; 2145 : 	return (_Dest);

  0001e	8b 45 10	 mov	 eax, DWORD PTR __Dest$[ebp]
  00021	5e		 pop	 esi

; 2146 : 	}

  00022	5d		 pop	 ebp
  00023	c3		 ret	 0
??$_Copy_impl@PAUWeaponInfo@@PAU1@@std@@YAPAUWeaponInfo@@PAU1@00U_Nonscalar_ptr_iterator_tag@0@@Z ENDP ; std::_Copy_impl<WeaponInfo *,WeaponInfo *>
_TEXT	ENDS
PUBLIC	??$_Move@PAUWeaponInfo@@PAU1@@std@@YAPAUWeaponInfo@@PAU1@00U_Nonscalar_ptr_iterator_tag@0@@Z ; std::_Move<WeaponInfo *,WeaponInfo *>
; Function compile flags: /Ogsp
;	COMDAT ??$_Move@PAUWeaponInfo@@PAU1@@std@@YAPAUWeaponInfo@@PAU1@00U_Nonscalar_ptr_iterator_tag@0@@Z
_TEXT	SEGMENT
__First$ = 8						; size = 4
__Last$ = 12						; size = 4
__Dest$ = 16						; size = 4
___formal$ = 20						; size = 1
??$_Move@PAUWeaponInfo@@PAU1@@std@@YAPAUWeaponInfo@@PAU1@00U_Nonscalar_ptr_iterator_tag@0@@Z PROC ; std::_Move<WeaponInfo *,WeaponInfo *>, COMDAT

; 2512 : 	{	// move [_First, _Last) to [_Dest, ...), arbitrary iterators

  00000	55		 push	 ebp
  00001	8b ec		 mov	 ebp, esp
  00003	56		 push	 esi

; 2513 : 	for (; _First != _Last; ++_Dest, ++_First)

  00004	8b 75 08	 mov	 esi, DWORD PTR __First$[ebp]
  00007	eb 10		 jmp	 SHORT $LN11@Move@2
$LL3@Move@2:

; 2514 : 		*_Dest = _STD move(*_First);

  00009	8b 4d 10	 mov	 ecx, DWORD PTR __Dest$[ebp]
  0000c	56		 push	 esi
  0000d	e8 00 00 00 00	 call	 ??4WeaponInfo@@QAEAAU0@ABU0@@Z
  00012	83 45 10 28	 add	 DWORD PTR __Dest$[ebp], 40 ; 00000028H
  00016	83 c6 28	 add	 esi, 40			; 00000028H
$LN11@Move@2:

; 2513 : 	for (; _First != _Last; ++_Dest, ++_First)

  00019	3b 75 0c	 cmp	 esi, DWORD PTR __Last$[ebp]
  0001c	75 eb		 jne	 SHORT $LL3@Move@2

; 2515 : 	return (_Dest);

  0001e	8b 45 10	 mov	 eax, DWORD PTR __Dest$[ebp]
  00021	5e		 pop	 esi

; 2516 : 	}

  00022	5d		 pop	 ebp
  00023	c3		 ret	 0
??$_Move@PAUWeaponInfo@@PAU1@@std@@YAPAUWeaponInfo@@PAU1@00U_Nonscalar_ptr_iterator_tag@0@@Z ENDP ; std::_Move<WeaponInfo *,WeaponInfo *>
_TEXT	ENDS
PUBLIC	??$_Move@PAUForceInfo@@PAU1@@std@@YAPAUForceInfo@@PAU1@00U_Nonscalar_ptr_iterator_tag@0@@Z ; std::_Move<ForceInfo *,ForceInfo *>
; Function compile flags: /Ogsp
;	COMDAT ??$_Move@PAUForceInfo@@PAU1@@std@@YAPAUForceInfo@@PAU1@00U_Nonscalar_ptr_iterator_tag@0@@Z
_TEXT	SEGMENT
__First$ = 8						; size = 4
__Last$ = 12						; size = 4
__Dest$ = 16						; size = 4
___formal$ = 20						; size = 1
??$_Move@PAUForceInfo@@PAU1@@std@@YAPAUForceInfo@@PAU1@00U_Nonscalar_ptr_iterator_tag@0@@Z PROC ; std::_Move<ForceInfo *,ForceInfo *>, COMDAT

; 2512 : 	{	// move [_First, _Last) to [_Dest, ...), arbitrary iterators

  00000	55		 push	 ebp
  00001	8b ec		 mov	 ebp, esp

; 2513 : 	for (; _First != _Last; ++_Dest, ++_First)

  00003	8b 45 08	 mov	 eax, DWORD PTR __First$[ebp]
  00006	3b 45 0c	 cmp	 eax, DWORD PTR __Last$[ebp]
  00009	74 18		 je	 SHORT $LN10@Move@3
  0000b	56		 push	 esi
  0000c	57		 push	 edi
$LL3@Move@3:

; 2514 : 		*_Dest = _STD move(*_First);

  0000d	8b 7d 10	 mov	 edi, DWORD PTR __Dest$[ebp]
  00010	83 45 10 0c	 add	 DWORD PTR __Dest$[ebp], 12 ; 0000000cH
  00014	8b f0		 mov	 esi, eax
  00016	a5		 movsd
  00017	a5		 movsd
  00018	83 c0 0c	 add	 eax, 12			; 0000000cH
  0001b	a5		 movsd
  0001c	3b 45 0c	 cmp	 eax, DWORD PTR __Last$[ebp]
  0001f	75 ec		 jne	 SHORT $LL3@Move@3
  00021	5f		 pop	 edi
  00022	5e		 pop	 esi
$LN10@Move@3:

; 2515 : 	return (_Dest);

  00023	8b 45 10	 mov	 eax, DWORD PTR __Dest$[ebp]

; 2516 : 	}

  00026	5d		 pop	 ebp
  00027	c3		 ret	 0
??$_Move@PAUForceInfo@@PAU1@@std@@YAPAUForceInfo@@PAU1@00U_Nonscalar_ptr_iterator_tag@0@@Z ENDP ; std::_Move<ForceInfo *,ForceInfo *>
_TEXT	ENDS
PUBLIC	??$_Destroy@UWeaponInfo@@@std@@YAXPAUWeaponInfo@@@Z ; std::_Destroy<WeaponInfo>
; Function compile flags: /Ogsp
; File c:\program files (x86)\microsoft visual studio 10.0\vc\include\xmemory
;	COMDAT ??$_Destroy@UWeaponInfo@@@std@@YAXPAUWeaponInfo@@@Z
_TEXT	SEGMENT
__Ptr$ = 8						; size = 4
??$_Destroy@UWeaponInfo@@@std@@YAXPAUWeaponInfo@@@Z PROC ; std::_Destroy<WeaponInfo>, COMDAT

; 62   : 	{	// destroy object at _Ptr

  00000	55		 push	 ebp
  00001	8b ec		 mov	 ebp, esp

; 63   : 	_Ptr->~_Ty();

  00003	8b 4d 08	 mov	 ecx, DWORD PTR __Ptr$[ebp]
  00006	83 c1 08	 add	 ecx, 8

; 64   : 	}

  00009	5d		 pop	 ebp

; 63   : 	_Ptr->~_Ty();

  0000a	ff 25 00 00 00
	00		 jmp	 DWORD PTR __imp_??1ioHashString@@QAE@XZ
??$_Destroy@UWeaponInfo@@@std@@YAXPAUWeaponInfo@@@Z ENDP ; std::_Destroy<WeaponInfo>
_TEXT	ENDS
PUBLIC	??$_Cons_val@V?$allocator@UForceInfo@@@std@@UForceInfo@@AAU3@@std@@YAXAAV?$allocator@UForceInfo@@@0@PAUForceInfo@@AAU2@@Z ; std::_Cons_val<std::allocator<ForceInfo>,ForceInfo,ForceInfo &>
; Function compile flags: /Ogsp
;	COMDAT ??$_Cons_val@V?$allocator@UForceInfo@@@std@@UForceInfo@@AAU3@@std@@YAXAAV?$allocator@UForceInfo@@@0@PAUForceInfo@@AAU2@@Z
_TEXT	SEGMENT
__Alval$ = 8						; size = 4
__Pdest$ = 12						; size = 4
__Src$ = 16						; size = 4
??$_Cons_val@V?$allocator@UForceInfo@@@std@@UForceInfo@@AAU3@@std@@YAXAAV?$allocator@UForceInfo@@@0@PAUForceInfo@@AAU2@@Z PROC ; std::_Cons_val<std::allocator<ForceInfo>,ForceInfo,ForceInfo &>, COMDAT

; 279  : 	{	// construct using allocator

  00000	55		 push	 ebp
  00001	8b ec		 mov	 ebp, esp
  00003	57		 push	 edi

; 280  : 	_Alval.construct(_Pdest, _STD forward<_Ty2>(_Src));

  00004	8b 7d 0c	 mov	 edi, DWORD PTR __Pdest$[ebp]
  00007	85 ff		 test	 edi, edi
  00009	74 08		 je	 SHORT $LN7@Cons_val
  0000b	56		 push	 esi
  0000c	8b 75 10	 mov	 esi, DWORD PTR __Src$[ebp]
  0000f	a5		 movsd
  00010	a5		 movsd
  00011	a5		 movsd
  00012	5e		 pop	 esi
$LN7@Cons_val:
  00013	5f		 pop	 edi

; 281  : 	}

  00014	5d		 pop	 ebp
  00015	c3		 ret	 0
??$_Cons_val@V?$allocator@UForceInfo@@@std@@UForceInfo@@AAU3@@std@@YAXAAV?$allocator@UForceInfo@@@0@PAUForceInfo@@AAU2@@Z ENDP ; std::_Cons_val<std::allocator<ForceInfo>,ForceInfo,ForceInfo &>
_TEXT	ENDS
PUBLIC	??$construct@AAUWeaponInfo@@@?$allocator@UWeaponInfo@@@std@@QAEXPAUWeaponInfo@@AAU2@@Z ; std::allocator<WeaponInfo>::construct<WeaponInfo &>
;	COMDAT xdata$x
; File c:\program files (x86)\microsoft visual studio 10.0\vc\include\utility
xdata$x	SEGMENT
__unwindtable$??$construct@AAUWeaponInfo@@@?$allocator@UWeaponInfo@@@std@@QAEXPAUWeaponInfo@@AAU2@@Z DD 0ffffffffH
	DD	FLAT:__unwindfunclet$??$construct@AAUWeaponInfo@@@?$allocator@UWeaponInfo@@@std@@QAEXPAUWeaponInfo@@AAU2@@Z$0
__ehfuncinfo$??$construct@AAUWeaponInfo@@@?$allocator@UWeaponInfo@@@std@@QAEXPAUWeaponInfo@@AAU2@@Z DD 019930522H
	DD	01H
	DD	FLAT:__unwindtable$??$construct@AAUWeaponInfo@@@?$allocator@UWeaponInfo@@@std@@QAEXPAUWeaponInfo@@AAU2@@Z
	DD	2 DUP(00H)
	DD	2 DUP(00H)
	DD	00H
	DD	01H
; Function compile flags: /Ogsp
; File c:\program files (x86)\microsoft visual studio 10.0\vc\include\xmemory
xdata$x	ENDS
;	COMDAT ??$construct@AAUWeaponInfo@@@?$allocator@UWeaponInfo@@@std@@QAEXPAUWeaponInfo@@AAU2@@Z
_TEXT	SEGMENT
$T555457 = -16						; size = 4
__$EHRec$ = -12						; size = 12
__Ptr$ = 8						; size = 4
__Val$ = 12						; size = 4
??$construct@AAUWeaponInfo@@@?$allocator@UWeaponInfo@@@std@@QAEXPAUWeaponInfo@@AAU2@@Z PROC ; std::allocator<WeaponInfo>::construct<WeaponInfo &>, COMDAT
; _this$ = ecx

; 206  : 		void construct(pointer _Ptr, _Other&& _Val)

  00000	6a 04		 push	 4
  00002	b8 00 00 00 00	 mov	 eax, __ehhandler$??$construct@AAUWeaponInfo@@@?$allocator@UWeaponInfo@@@std@@QAEXPAUWeaponInfo@@AAU2@@Z
  00007	e8 00 00 00 00	 call	 __EH_prolog3

; 207  : 		{	// construct object at _Ptr with value _Val
; 208  : 		::new ((void _FARQ *)_Ptr) _Ty(_STD forward<_Other>(_Val));

  0000c	8b 4d 08	 mov	 ecx, DWORD PTR __Ptr$[ebp]
  0000f	89 4d f0	 mov	 DWORD PTR $T555457[ebp], ecx
  00012	83 65 fc 00	 and	 DWORD PTR __$EHRec$[ebp+8], 0
  00016	85 c9		 test	 ecx, ecx
  00018	74 08		 je	 SHORT $LN3@construct@5
  0001a	ff 75 0c	 push	 DWORD PTR __Val$[ebp]
  0001d	e8 00 00 00 00	 call	 ??0WeaponInfo@@QAE@ABU0@@Z
$LN3@construct@5:

; 209  : 		}

  00022	e8 00 00 00 00	 call	 __EH_epilog3
  00027	c2 08 00	 ret	 8
_TEXT	ENDS
;	COMDAT text$x
text$x	SEGMENT
__unwindfunclet$??$construct@AAUWeaponInfo@@@?$allocator@UWeaponInfo@@@std@@QAEXPAUWeaponInfo@@AAU2@@Z$0:
  00000	ff 75 08	 push	 DWORD PTR __Ptr$[ebp]
  00003	ff 75 f0	 push	 DWORD PTR $T555457[ebp]
  00006	e8 00 00 00 00	 call	 ??3@YAXPAX0@Z		; operator delete
  0000b	59		 pop	 ecx
  0000c	59		 pop	 ecx
  0000d	c3		 ret	 0
__ehhandler$??$construct@AAUWeaponInfo@@@?$allocator@UWeaponInfo@@@std@@QAEXPAUWeaponInfo@@AAU2@@Z:
  0000e	8b 54 24 08	 mov	 edx, DWORD PTR [esp+8]
  00012	8d 42 0c	 lea	 eax, DWORD PTR [edx+12]
  00015	8b 4a ec	 mov	 ecx, DWORD PTR [edx-20]
  00018	33 c8		 xor	 ecx, eax
  0001a	e8 00 00 00 00	 call	 @__security_check_cookie@4
  0001f	b8 00 00 00 00	 mov	 eax, OFFSET __ehfuncinfo$??$construct@AAUWeaponInfo@@@?$allocator@UWeaponInfo@@@std@@QAEXPAUWeaponInfo@@AAU2@@Z
  00024	e9 00 00 00 00	 jmp	 ___CxxFrameHandler3
text$x	ENDS
??$construct@AAUWeaponInfo@@@?$allocator@UWeaponInfo@@@std@@QAEXPAUWeaponInfo@@AAU2@@Z ENDP ; std::allocator<WeaponInfo>::construct<WeaponInfo &>
PUBLIC	?IsPrisonerMode@ioBaseChar@@QBE_NXZ		; ioBaseChar::IsPrisonerMode
; Function compile flags: /Ogsp
; File d:\lost saga for developer\youtube\tutorial\source\src\lsclient\iobasechar.h
;	COMDAT ?IsPrisonerMode@ioBaseChar@@QBE_NXZ
_TEXT	SEGMENT
_value$555478 = -1					; size = 1
?IsPrisonerMode@ioBaseChar@@QBE_NXZ PROC		; ioBaseChar::IsPrisonerMode, COMDAT
; _this$ = ecx

; 2130 : 	inline bool IsPrisonerMode() const { return m_bPrisonerMode; }

  00000	55		 push	 ebp
  00001	8b ec		 mov	 ebp, esp
  00003	51		 push	 ecx
  00004	8d 45 ff	 lea	 eax, DWORD PTR _value$555478[ebp]
  00007	50		 push	 eax
  00008	81 c1 cc 14 00
	00		 add	 ecx, 5324		; 000014ccH
  0000e	e8 00 00 00 00	 call	 ?DecryptValueToPool@?$CEncrypt@_N@@QAEXPA_N@Z ; CEncrypt<bool>::DecryptValueToPool
  00013	8a 45 ff	 mov	 al, BYTE PTR _value$555478[ebp]
  00016	c9		 leave
  00017	c3		 ret	 0
?IsPrisonerMode@ioBaseChar@@QBE_NXZ ENDP		; ioBaseChar::IsPrisonerMode
_TEXT	ENDS
PUBLIC	??_C@_0BN@LHIIJKIC@jump_zero_aimed_extra_attack?$AA@ ; `string'
PUBLIC	??_C@_0BH@EONECKM@jump_zero_aimed_attack?$AA@	; `string'
PUBLIC	??_C@_0BC@DMDBMPK@jump_aimed_attack?$AA@	; `string'
PUBLIC	??_C@_0BP@LAKLPGOH@normal_zero_aimed_extra_attack?$AA@ ; `string'
PUBLIC	??_C@_0BJ@PNMKHPHN@normal_zero_aimed_attack?$AA@ ; `string'
PUBLIC	??_C@_0BE@BLOEDOCG@normal_aimed_attack?$AA@	; `string'
PUBLIC	??_C@_00CNPNBAHC@?$AA@				; `string'
PUBLIC	__$ArrayPad$
PUBLIC	?LoadProperty@ioTargetTimingAttackSkill@@UAEXAAVioINILoader@@@Z ; ioTargetTimingAttackSkill::LoadProperty
EXTRN	?LoadAttackAttribute@@YAXPBDAAUAttackAttribute@@AAVioINILoader@@@Z:PROC ; LoadAttackAttribute
EXTRN	__imp_??4ioHashString@@QAEAAV0@PBD@Z:PROC
EXTRN	?LoadProperty@ioAttackSkill@@UAEXAAVioINILoader@@@Z:PROC ; ioAttackSkill::LoadProperty
;	COMDAT ??_C@_0BN@LHIIJKIC@jump_zero_aimed_extra_attack?$AA@
; File d:\lost saga for developer\youtube\tutorial\source\src\lsclient\stringprotect.h
CONST	SEGMENT
??_C@_0BN@LHIIJKIC@jump_zero_aimed_extra_attack?$AA@ DB 'jump_zero_aimed_'
	DB	'extra_attack', 00H				; `string'
CONST	ENDS
;	COMDAT ??_C@_0BH@EONECKM@jump_zero_aimed_attack?$AA@
CONST	SEGMENT
??_C@_0BH@EONECKM@jump_zero_aimed_attack?$AA@ DB 'jump_zero_aimed_attack', 00H ; `string'
CONST	ENDS
;	COMDAT ??_C@_0BC@DMDBMPK@jump_aimed_attack?$AA@
CONST	SEGMENT
??_C@_0BC@DMDBMPK@jump_aimed_attack?$AA@ DB 'jump_aimed_attack', 00H ; `string'
CONST	ENDS
;	COMDAT ??_C@_0BP@LAKLPGOH@normal_zero_aimed_extra_attack?$AA@
CONST	SEGMENT
??_C@_0BP@LAKLPGOH@normal_zero_aimed_extra_attack?$AA@ DB 'normal_zero_ai'
	DB	'med_extra_attack', 00H			; `string'
CONST	ENDS
;	COMDAT ??_C@_0BJ@PNMKHPHN@normal_zero_aimed_attack?$AA@
CONST	SEGMENT
??_C@_0BJ@PNMKHPHN@normal_zero_aimed_attack?$AA@ DB 'normal_zero_aimed_at'
	DB	'tack', 00H					; `string'
CONST	ENDS
;	COMDAT ??_C@_0BE@BLOEDOCG@normal_aimed_attack?$AA@
CONST	SEGMENT
??_C@_0BE@BLOEDOCG@normal_aimed_attack?$AA@ DB 'normal_aimed_attack', 00H ; `string'
CONST	ENDS
;	COMDAT ??_C@_00CNPNBAHC@?$AA@
CONST	SEGMENT
??_C@_00CNPNBAHC@?$AA@ DB 00H				; `string'
; Function compile flags: /Ogsp
; File d:\lost saga for developer\youtube\tutorial\source\src\lsclient\iotargettimingattackskill.cpp
CONST	ENDS
;	COMDAT ?LoadProperty@ioTargetTimingAttackSkill@@UAEXAAVioINILoader@@@Z
_TEXT	SEGMENT
_szBuf$ = -296						; size = 260
__k$557373 = -36					; size = 25
__k$557248 = -36					; size = 25
__k$557136 = -36					; size = 25
__k$556998 = -36					; size = 28
__k$556873 = -36					; size = 28
__k$556748 = -36					; size = 28
__k$556386 = -28					; size = 18
__k$555873 = -28					; size = 18
__k$555511 = -28					; size = 19
__k$556511 = -24					; size = 16
__k$556261 = -24					; size = 13
__k$555998 = -24					; size = 16
__k$555636 = -24					; size = 13
__k$557498 = -20					; size = 12
__k$556641 = -20					; size = 10
__k$556136 = -20					; size = 10
__k$555847 = -20					; size = 11
__$ArrayPad$ = -4					; size = 4
_rkLoader$ = 8						; size = 4
?LoadProperty@ioTargetTimingAttackSkill@@UAEXAAVioINILoader@@@Z PROC ; ioTargetTimingAttackSkill::LoadProperty, COMDAT
; _this$ = ecx

; 46   : {

  00000	55		 push	 ebp
  00001	8b ec		 mov	 ebp, esp
  00003	81 ec 28 01 00
	00		 sub	 esp, 296		; 00000128H
  00009	a1 00 00 00 00	 mov	 eax, DWORD PTR ___security_cookie
  0000e	33 c5		 xor	 eax, ebp
  00010	89 45 fc	 mov	 DWORD PTR __$ArrayPad$[ebp], eax
  00013	53		 push	 ebx
  00014	56		 push	 esi
  00015	57		 push	 edi
  00016	8b 7d 08	 mov	 edi, DWORD PTR _rkLoader$[ebp]

; 47   : 	ioAttackSkill::LoadProperty( rkLoader );

  00019	57		 push	 edi
  0001a	8b f1		 mov	 esi, ecx
  0001c	e8 00 00 00 00	 call	 ?LoadProperty@ioAttackSkill@@UAEXAAVioINILoader@@@Z ; ioAttackSkill::LoadProperty

; 48   : 		
; 49   : 	char szBuf[MAX_PATH];
; 50   : 
; 51   : 	//  
; 52   : 	m_dwSkillProtectTime = (DWORD)rkLoader.LoadInt_e( "skill_protect_time", 0 );

  00021	33 db		 xor	 ebx, ebx
  00023	6a 04		 push	 4
  00025	c7 45 e4 9e 87
	82 86		 mov	 DWORD PTR __k$555511[ebp], -2038265954 ; 8682879eH
  0002c	c7 45 e8 81 b3
	9b 98		 mov	 DWORD PTR __k$555511[ebp+4], -1734626431 ; 989bb381H
  00033	c7 45 ec 82 98
	8e 89		 mov	 DWORD PTR __k$555511[ebp+8], -1987143550 ; 898e9882H
  0003a	c7 45 f0 99 b3
	9f 83		 mov	 DWORD PTR __k$555511[ebp+12], -2086685799 ; 839fb399H
  00041	66 c7 45 f4 80
	89		 mov	 WORD PTR __k$555511[ebp+16], 35200 ; 00008980H
  00047	8d 45 e4	 lea	 eax, DWORD PTR __k$555511[ebp]
  0004a	88 5d f6	 mov	 BYTE PTR __k$555511[ebp+18], bl
  0004d	59		 pop	 ecx
$LL106@LoadProper:
  0004e	81 30 ed ec eb
	ea		 xor	 DWORD PTR [eax], -353637139 ; eaebecedH
  00054	83 c0 04	 add	 eax, 4
  00057	49		 dec	 ecx
  00058	75 f4		 jne	 SHORT $LL106@LoadProper
  0005a	6a 10		 push	 16			; 00000010H
  0005c	58		 pop	 eax
$LL103@LoadProper:
  0005d	8b c8		 mov	 ecx, eax
  0005f	81 e1 03 00 00
	80		 and	 ecx, -2147483645	; 80000003H
  00065	79 05		 jns	 SHORT $LN1873@LoadProper
  00067	49		 dec	 ecx
  00068	83 c9 fc	 or	 ecx, -4			; fffffffcH
  0006b	41		 inc	 ecx
$LN1873@LoadProper:
  0006c	b2 ed		 mov	 dl, -19			; ffffffedH
  0006e	2a d1		 sub	 dl, cl
  00070	30 54 05 e4	 xor	 BYTE PTR __k$555511[ebp+eax], dl
  00074	40		 inc	 eax
  00075	83 f8 12	 cmp	 eax, 18			; 00000012H
  00078	7c e3		 jl	 SHORT $LL103@LoadProper
  0007a	53		 push	 ebx
  0007b	8d 45 e4	 lea	 eax, DWORD PTR __k$555511[ebp]
  0007e	50		 push	 eax
  0007f	8b cf		 mov	 ecx, edi
  00081	ff 15 00 00 00
	00		 call	 DWORD PTR __imp_?LoadInt@ioINILoader@@QAEHPBDH@Z
  00087	6a 03		 push	 3
  00089	89 86 2c 13 00
	00		 mov	 DWORD PTR [esi+4908], eax

; 53   : 	
; 54   : 	rkLoader.LoadString_e( "aimed_marker", "", szBuf, MAX_PATH );

  0008f	c7 45 e8 8c 85
	86 8f		 mov	 DWORD PTR __k$555636[ebp], -1887009396 ; 8f86858cH
  00096	c7 45 ec 89 b3
	86 8b		 mov	 DWORD PTR __k$555636[ebp+4], -1954106487 ; 8b86b389H
  0009d	c7 45 f0 9f 87
	8e 98		 mov	 DWORD PTR __k$555636[ebp+8], -1735489633 ; 988e879fH
  000a4	8d 45 e8	 lea	 eax, DWORD PTR __k$555636[ebp]
  000a7	88 5d f4	 mov	 BYTE PTR __k$555636[ebp+12], bl
  000aa	59		 pop	 ecx
$LL212@LoadProper:
  000ab	81 30 ed ec eb
	ea		 xor	 DWORD PTR [eax], -353637139 ; eaebecedH
  000b1	83 c0 04	 add	 eax, 4
  000b4	49		 dec	 ecx
  000b5	75 f4		 jne	 SHORT $LL212@LoadProper
  000b7	68 04 01 00 00	 push	 260			; 00000104H
  000bc	8d 85 d8 fe ff
	ff		 lea	 eax, DWORD PTR _szBuf$[ebp]
  000c2	50		 push	 eax
  000c3	68 00 00 00 00	 push	 OFFSET ??_C@_00CNPNBAHC@?$AA@
  000c8	8d 45 e8	 lea	 eax, DWORD PTR __k$555636[ebp]
  000cb	50		 push	 eax
  000cc	8b cf		 mov	 ecx, edi
  000ce	ff 15 00 00 00
	00		 call	 DWORD PTR __imp_?LoadStringA@ioINILoader@@QAEXPBD0PADH@Z

; 55   : 	m_szAimedMarker = szBuf;

  000d4	8d 85 d8 fe ff
	ff		 lea	 eax, DWORD PTR _szBuf$[ebp]
  000da	50		 push	 eax
  000db	8d 8e e8 10 00
	00		 lea	 ecx, DWORD PTR [esi+4328]
  000e1	ff 15 00 00 00
	00		 call	 DWORD PTR __imp_??4ioHashString@@QAEAAV0@PBD@Z
  000e7	6a 02		 push	 2

; 56   : 	m_dwAimedTime = rkLoader.LoadInt_e( "aimed_time", 0 );

  000e9	c7 45 ec 8c 85
	86 8f		 mov	 DWORD PTR __k$555847[ebp], -1887009396 ; 8f86858cH
  000f0	c7 45 f0 89 b3
	9f 83		 mov	 DWORD PTR __k$555847[ebp+4], -2086685815 ; 839fb389H
  000f7	66 c7 45 f4 80
	89		 mov	 WORD PTR __k$555847[ebp+8], 35200 ; 00008980H
  000fd	8d 45 ec	 lea	 eax, DWORD PTR __k$555847[ebp]
  00100	88 5d f6	 mov	 BYTE PTR __k$555847[ebp+10], bl
  00103	59		 pop	 ecx
$LL318@LoadProper:
  00104	81 30 ed ec eb
	ea		 xor	 DWORD PTR [eax], -353637139 ; eaebecedH
  0010a	83 c0 04	 add	 eax, 4
  0010d	49		 dec	 ecx
  0010e	75 f4		 jne	 SHORT $LL318@LoadProper
  00110	6a 08		 push	 8
  00112	58		 pop	 eax
$LL315@LoadProper:
  00113	8b c8		 mov	 ecx, eax
  00115	81 e1 03 00 00
	80		 and	 ecx, -2147483645	; 80000003H
  0011b	79 05		 jns	 SHORT $LN1874@LoadProper
  0011d	49		 dec	 ecx
  0011e	83 c9 fc	 or	 ecx, -4			; fffffffcH
  00121	41		 inc	 ecx
$LN1874@LoadProper:
  00122	b2 ed		 mov	 dl, -19			; ffffffedH
  00124	2a d1		 sub	 dl, cl
  00126	30 54 05 ec	 xor	 BYTE PTR __k$555847[ebp+eax], dl
  0012a	40		 inc	 eax
  0012b	83 f8 0a	 cmp	 eax, 10			; 0000000aH
  0012e	7c e3		 jl	 SHORT $LL315@LoadProper
  00130	53		 push	 ebx
  00131	8d 45 ec	 lea	 eax, DWORD PTR __k$555847[ebp]
  00134	50		 push	 eax
  00135	8b cf		 mov	 ecx, edi
  00137	ff 15 00 00 00
	00		 call	 DWORD PTR __imp_?LoadInt@ioINILoader@@QAEHPBDH@Z
  0013d	6a 04		 push	 4
  0013f	89 86 f8 10 00
	00		 mov	 DWORD PTR [esi+4344], eax

; 57   : 
; 58   : 	rkLoader.LoadString_e( "zero_aimed_marker", "", szBuf, MAX_PATH );

  00145	c7 45 e4 97 89
	99 85		 mov	 DWORD PTR __k$555873[ebp], -2053535337 ; 85998997H
  0014c	c7 45 e8 b2 8d
	82 87		 mov	 DWORD PTR __k$555873[ebp+4], -2021487182 ; 87828db2H
  00153	c7 45 ec 88 88
	b4 87		 mov	 DWORD PTR __k$555873[ebp+8], -2018211704 ; 87b48888H
  0015a	c7 45 f0 8c 9e
	80 8f		 mov	 DWORD PTR __k$555873[ebp+12], -1887396212 ; 8f809e8cH
  00161	8d 45 e4	 lea	 eax, DWORD PTR __k$555873[ebp]
  00164	66 c7 45 f4 9f
	00		 mov	 WORD PTR __k$555873[ebp+16], 159 ; 0000009fH
  0016a	59		 pop	 ecx
$LL424@LoadProper:
  0016b	81 30 ed ec eb
	ea		 xor	 DWORD PTR [eax], -353637139 ; eaebecedH
  00171	83 c0 04	 add	 eax, 4
  00174	49		 dec	 ecx
  00175	75 f4		 jne	 SHORT $LL424@LoadProper
  00177	80 75 f4 ed	 xor	 BYTE PTR __k$555873[ebp+16], -19 ; ffffffedH
  0017b	68 04 01 00 00	 push	 260			; 00000104H
  00180	8d 85 d8 fe ff
	ff		 lea	 eax, DWORD PTR _szBuf$[ebp]
  00186	50		 push	 eax
  00187	68 00 00 00 00	 push	 OFFSET ??_C@_00CNPNBAHC@?$AA@
  0018c	8d 45 e4	 lea	 eax, DWORD PTR __k$555873[ebp]
  0018f	50		 push	 eax
  00190	8b cf		 mov	 ecx, edi
  00192	ff 15 00 00 00
	00		 call	 DWORD PTR __imp_?LoadStringA@ioINILoader@@QAEXPBD0PADH@Z

; 59   : 	m_szZeroAimedMarker = szBuf;

  00198	8d 85 d8 fe ff
	ff		 lea	 eax, DWORD PTR _szBuf$[ebp]
  0019e	50		 push	 eax
  0019f	8d 8e fc 10 00
	00		 lea	 ecx, DWORD PTR [esi+4348]
  001a5	ff 15 00 00 00
	00		 call	 DWORD PTR __imp_??4ioHashString@@QAEAAV0@PBD@Z
  001ab	6a 03		 push	 3

; 60   : 	m_dwZeroAimedTime = rkLoader.LoadInt_e( "zero_aimed_time", 0 );

  001ad	c7 45 e8 97 89
	99 85		 mov	 DWORD PTR __k$555998[ebp], -2053535337 ; 85998997H
  001b4	c7 45 ec b2 8d
	82 87		 mov	 DWORD PTR __k$555998[ebp+4], -2021487182 ; 87828db2H
  001bb	c7 45 f0 88 88
	b4 9e		 mov	 DWORD PTR __k$555998[ebp+8], -1632335736 ; 9eb48888H
  001c2	8d 45 e8	 lea	 eax, DWORD PTR __k$555998[ebp]
  001c5	c7 45 f4 84 81
	8e 00		 mov	 DWORD PTR __k$555998[ebp+12], 9339268 ; 008e8184H
  001cc	59		 pop	 ecx
$LL530@LoadProper:
  001cd	81 30 ed ec eb
	ea		 xor	 DWORD PTR [eax], -353637139 ; eaebecedH
  001d3	83 c0 04	 add	 eax, 4
  001d6	49		 dec	 ecx
  001d7	75 f4		 jne	 SHORT $LL530@LoadProper
  001d9	6a 0c		 push	 12			; 0000000cH
  001db	58		 pop	 eax
$LL527@LoadProper:
  001dc	8b c8		 mov	 ecx, eax
  001de	81 e1 03 00 00
	80		 and	 ecx, -2147483645	; 80000003H
  001e4	79 05		 jns	 SHORT $LN1875@LoadProper
  001e6	49		 dec	 ecx
  001e7	83 c9 fc	 or	 ecx, -4			; fffffffcH
  001ea	41		 inc	 ecx
$LN1875@LoadProper:
  001eb	b2 ed		 mov	 dl, -19			; ffffffedH
  001ed	2a d1		 sub	 dl, cl
  001ef	30 54 05 e8	 xor	 BYTE PTR __k$555998[ebp+eax], dl
  001f3	40		 inc	 eax
  001f4	83 f8 0f	 cmp	 eax, 15			; 0000000fH
  001f7	7c e3		 jl	 SHORT $LL527@LoadProper
  001f9	53		 push	 ebx
  001fa	8d 45 e8	 lea	 eax, DWORD PTR __k$555998[ebp]
  001fd	50		 push	 eax
  001fe	8b cf		 mov	 ecx, edi
  00200	ff 15 00 00 00
	00		 call	 DWORD PTR __imp_?LoadInt@ioINILoader@@QAEHPBDH@Z
  00206	6a 02		 push	 2
  00208	89 86 0c 11 00
	00		 mov	 DWORD PTR [esi+4364], eax

; 61   : 
; 62   : 	m_fAimRange = rkLoader.LoadFloat_e( "aim_range", 0.0f );

  0020e	c7 45 ec 8c 85
	86 b5		 mov	 DWORD PTR __k$556136[ebp], -1249475188 ; b586858cH
  00215	c7 45 f0 9f 8d
	85 8d		 mov	 DWORD PTR __k$556136[ebp+4], -1920627297 ; 8d858d9fH
  0021c	8d 45 ec	 lea	 eax, DWORD PTR __k$556136[ebp]
  0021f	66 c7 45 f4 88
	00		 mov	 WORD PTR __k$556136[ebp+8], 136 ; 00000088H
  00225	59		 pop	 ecx
$LL636@LoadProper:
  00226	81 30 ed ec eb
	ea		 xor	 DWORD PTR [eax], -353637139 ; eaebecedH
  0022c	83 c0 04	 add	 eax, 4
  0022f	49		 dec	 ecx
  00230	75 f4		 jne	 SHORT $LL636@LoadProper
  00232	0f 57 c0	 xorps	 xmm0, xmm0
  00235	80 75 f4 ed	 xor	 BYTE PTR __k$556136[ebp+8], -19 ; ffffffedH
  00239	51		 push	 ecx
  0023a	8d 45 ec	 lea	 eax, DWORD PTR __k$556136[ebp]
  0023d	f3 0f 11 04 24	 movss	 DWORD PTR [esp], xmm0
  00242	50		 push	 eax
  00243	8b cf		 mov	 ecx, edi
  00245	ff 15 00 00 00
	00		 call	 DWORD PTR __imp_?LoadFloat@ioINILoader@@QAEMPBDM@Z
  0024b	d9 9e e4 10 00
	00		 fstp	 DWORD PTR [esi+4324]
  00251	6a 03		 push	 3

; 63   : 
; 64   : 	rkLoader.LoadString_e( "aim_loop_ani", "", szBuf, MAX_PATH );

  00253	c7 45 e8 8c 85
	86 b5		 mov	 DWORD PTR __k$556261[ebp], -1249475188 ; b586858cH
  0025a	c7 45 ec 81 83
	84 9a		 mov	 DWORD PTR __k$556261[ebp+4], -1702591615 ; 9a848381H
  00261	c7 45 f0 b2 8d
	85 83		 mov	 DWORD PTR __k$556261[ebp+8], -2088399438 ; 83858db2H
  00268	8d 45 e8	 lea	 eax, DWORD PTR __k$556261[ebp]
  0026b	88 5d f4	 mov	 BYTE PTR __k$556261[ebp+12], bl
  0026e	59		 pop	 ecx
$LL742@LoadProper:
  0026f	81 30 ed ec eb
	ea		 xor	 DWORD PTR [eax], -353637139 ; eaebecedH
  00275	83 c0 04	 add	 eax, 4
  00278	49		 dec	 ecx
  00279	75 f4		 jne	 SHORT $LL742@LoadProper
  0027b	68 04 01 00 00	 push	 260			; 00000104H
  00280	8d 85 d8 fe ff
	ff		 lea	 eax, DWORD PTR _szBuf$[ebp]
  00286	50		 push	 eax
  00287	68 00 00 00 00	 push	 OFFSET ??_C@_00CNPNBAHC@?$AA@
  0028c	8d 45 e8	 lea	 eax, DWORD PTR __k$556261[ebp]
  0028f	50		 push	 eax
  00290	8b cf		 mov	 ecx, edi
  00292	ff 15 00 00 00
	00		 call	 DWORD PTR __imp_?LoadStringA@ioINILoader@@QAEXPBD0PADH@Z

; 65   : 	m_szAimLoopAni = szBuf;

  00298	8d 85 d8 fe ff
	ff		 lea	 eax, DWORD PTR _szBuf$[ebp]
  0029e	50		 push	 eax
  0029f	8d 8e 10 11 00
	00		 lea	 ecx, DWORD PTR [esi+4368]
  002a5	ff 15 00 00 00
	00		 call	 DWORD PTR __imp_??4ioHashString@@QAEAAV0@PBD@Z
  002ab	6a 04		 push	 4

; 66   : 
; 67   : 	m_fAimLoopAniRate = rkLoader.LoadFloat_e( "aim_loop_ani_rate", 1.0f );

  002ad	c7 45 e4 8c 85
	86 b5		 mov	 DWORD PTR __k$556386[ebp], -1249475188 ; b586858cH
  002b4	c7 45 e8 81 83
	84 9a		 mov	 DWORD PTR __k$556386[ebp+4], -1702591615 ; 9a848381H
  002bb	c7 45 ec b2 8d
	85 83		 mov	 DWORD PTR __k$556386[ebp+8], -2088399438 ; 83858db2H
  002c2	c7 45 f0 b2 9e
	8a 9e		 mov	 DWORD PTR __k$556386[ebp+12], -1635082574 ; 9e8a9eb2H
  002c9	8d 45 e4	 lea	 eax, DWORD PTR __k$556386[ebp]
  002cc	66 c7 45 f4 88
	00		 mov	 WORD PTR __k$556386[ebp+16], 136 ; 00000088H
  002d2	59		 pop	 ecx
$LL848@LoadProper:
  002d3	81 30 ed ec eb
	ea		 xor	 DWORD PTR [eax], -353637139 ; eaebecedH
  002d9	83 c0 04	 add	 eax, 4
  002dc	49		 dec	 ecx
  002dd	75 f4		 jne	 SHORT $LL848@LoadProper
  002df	f3 0f 10 05 00
	00 00 00	 movss	 xmm0, DWORD PTR __real@3f800000
  002e7	80 75 f4 ed	 xor	 BYTE PTR __k$556386[ebp+16], -19 ; ffffffedH
  002eb	51		 push	 ecx
  002ec	8d 45 e4	 lea	 eax, DWORD PTR __k$556386[ebp]
  002ef	f3 0f 11 04 24	 movss	 DWORD PTR [esp], xmm0
  002f4	50		 push	 eax
  002f5	8b cf		 mov	 ecx, edi
  002f7	ff 15 00 00 00
	00		 call	 DWORD PTR __imp_?LoadFloat@ioINILoader@@QAEMPBDM@Z
  002fd	d9 9e 20 11 00
	00		 fstp	 DWORD PTR [esi+4384]

; 68   : 
; 69   : 	LoadAttackAttribute( "normal_aimed_attack", m_NormalAimedAttack, rkLoader );

  00303	57		 push	 edi
  00304	8d 86 24 11 00
	00		 lea	 eax, DWORD PTR [esi+4388]
  0030a	50		 push	 eax
  0030b	68 00 00 00 00	 push	 OFFSET ??_C@_0BE@BLOEDOCG@normal_aimed_attack?$AA@
  00310	e8 00 00 00 00	 call	 ?LoadAttackAttribute@@YAXPBDAAUAttackAttribute@@AAVioINILoader@@@Z ; LoadAttackAttribute

; 70   : 	LoadAttackAttribute( "normal_zero_aimed_attack", m_NormalZeroAimedAttack, rkLoader );

  00315	57		 push	 edi
  00316	8d 86 74 11 00
	00		 lea	 eax, DWORD PTR [esi+4468]
  0031c	50		 push	 eax
  0031d	68 00 00 00 00	 push	 OFFSET ??_C@_0BJ@PNMKHPHN@normal_zero_aimed_attack?$AA@
  00322	e8 00 00 00 00	 call	 ?LoadAttackAttribute@@YAXPBDAAUAttackAttribute@@AAVioINILoader@@@Z ; LoadAttackAttribute

; 71   : 	LoadAttackAttribute( "normal_zero_aimed_extra_attack", m_NormalZeroAimedExtraAttack, rkLoader );

  00327	57		 push	 edi
  00328	8d 86 c4 11 00
	00		 lea	 eax, DWORD PTR [esi+4548]
  0032e	50		 push	 eax
  0032f	68 00 00 00 00	 push	 OFFSET ??_C@_0BP@LAKLPGOH@normal_zero_aimed_extra_attack?$AA@
  00334	e8 00 00 00 00	 call	 ?LoadAttackAttribute@@YAXPBDAAUAttackAttribute@@AAVioINILoader@@@Z ; LoadAttackAttribute

; 72   : 
; 73   : 	LoadAttackAttribute( "jump_aimed_attack", m_JumpAimedAttack, rkLoader );

  00339	57		 push	 edi
  0033a	8d 86 14 12 00
	00		 lea	 eax, DWORD PTR [esi+4628]
  00340	50		 push	 eax
  00341	68 00 00 00 00	 push	 OFFSET ??_C@_0BC@DMDBMPK@jump_aimed_attack?$AA@
  00346	e8 00 00 00 00	 call	 ?LoadAttackAttribute@@YAXPBDAAUAttackAttribute@@AAVioINILoader@@@Z ; LoadAttackAttribute

; 74   : 	LoadAttackAttribute( "jump_zero_aimed_attack", m_JumpZeroAimedAttack, rkLoader );

  0034b	57		 push	 edi
  0034c	8d 86 64 12 00
	00		 lea	 eax, DWORD PTR [esi+4708]
  00352	50		 push	 eax
  00353	68 00 00 00 00	 push	 OFFSET ??_C@_0BH@EONECKM@jump_zero_aimed_attack?$AA@
  00358	e8 00 00 00 00	 call	 ?LoadAttackAttribute@@YAXPBDAAUAttackAttribute@@AAVioINILoader@@@Z ; LoadAttackAttribute

; 75   : 	LoadAttackAttribute( "jump_zero_aimed_extra_attack", m_JumpZeroAimedExtraAttack, rkLoader );

  0035d	57		 push	 edi
  0035e	8d 86 b4 12 00
	00		 lea	 eax, DWORD PTR [esi+4788]
  00364	50		 push	 eax
  00365	68 00 00 00 00	 push	 OFFSET ??_C@_0BN@LHIIJKIC@jump_zero_aimed_extra_attack?$AA@
  0036a	e8 00 00 00 00	 call	 ?LoadAttackAttribute@@YAXPBDAAUAttackAttribute@@AAVioINILoader@@@Z ; LoadAttackAttribute
  0036f	83 c4 48	 add	 esp, 72			; 00000048H
  00372	6a 03		 push	 3

; 76   : 	
; 77   : 	m_bEnableDownAim = rkLoader.LoadBool_e( "enable_down_aim", false );

  00374	c7 45 e8 88 82
	8a 88		 mov	 DWORD PTR __k$556511[ebp], -2004188536 ; 888a8288H
  0037b	c7 45 ec 81 89
	b4 8e		 mov	 DWORD PTR __k$556511[ebp+4], -1900770943 ; 8eb48981H
  00382	c7 45 f0 82 9b
	85 b5		 mov	 DWORD PTR __k$556511[ebp+8], -1249535102 ; b5859b82H
  00389	8d 45 e8	 lea	 eax, DWORD PTR __k$556511[ebp]
  0038c	c7 45 f4 8c 85
	86 00		 mov	 DWORD PTR __k$556511[ebp+12], 8816012 ; 0086858cH
  00393	59		 pop	 ecx
$LL954@LoadProper:
  00394	81 30 ed ec eb
	ea		 xor	 DWORD PTR [eax], -353637139 ; eaebecedH
  0039a	83 c0 04	 add	 eax, 4
  0039d	49		 dec	 ecx
  0039e	75 f4		 jne	 SHORT $LL954@LoadProper
  003a0	6a 0c		 push	 12			; 0000000cH
  003a2	58		 pop	 eax
$LL951@LoadProper:
  003a3	8b c8		 mov	 ecx, eax
  003a5	81 e1 03 00 00
	80		 and	 ecx, -2147483645	; 80000003H
  003ab	79 05		 jns	 SHORT $LN1876@LoadProper
  003ad	49		 dec	 ecx
  003ae	83 c9 fc	 or	 ecx, -4			; fffffffcH
  003b1	41		 inc	 ecx
$LN1876@LoadProper:
  003b2	b2 ed		 mov	 dl, -19			; ffffffedH
  003b4	2a d1		 sub	 dl, cl
  003b6	30 54 05 e8	 xor	 BYTE PTR __k$556511[ebp+eax], dl
  003ba	40		 inc	 eax
  003bb	83 f8 0f	 cmp	 eax, 15			; 0000000fH
  003be	7c e3		 jl	 SHORT $LL951@LoadProper
  003c0	53		 push	 ebx
  003c1	8d 45 e8	 lea	 eax, DWORD PTR __k$556511[ebp]
  003c4	50		 push	 eax
  003c5	8b cf		 mov	 ecx, edi
  003c7	ff 15 00 00 00
	00		 call	 DWORD PTR __imp_?LoadBool@ioINILoader@@QAE_NPBD_N@Z
  003cd	6a 02		 push	 2
  003cf	88 86 04 13 00
	00		 mov	 BYTE PTR [esi+4868], al

; 78   : 
; 79   : 	m_dwLoopTime = rkLoader.LoadInt_e( "loop_time", 0 );

  003d5	c7 45 ec 81 83
	84 9a		 mov	 DWORD PTR __k$556641[ebp], -1702591615 ; 9a848381H
  003dc	c7 45 f0 b2 98
	82 87		 mov	 DWORD PTR __k$556641[ebp+4], -2021484366 ; 878298b2H
  003e3	8d 45 ec	 lea	 eax, DWORD PTR __k$556641[ebp]
  003e6	66 c7 45 f4 88
	00		 mov	 WORD PTR __k$556641[ebp+8], 136 ; 00000088H
  003ec	59		 pop	 ecx
$LL1060@LoadProper:
  003ed	81 30 ed ec eb
	ea		 xor	 DWORD PTR [eax], -353637139 ; eaebecedH
  003f3	83 c0 04	 add	 eax, 4
  003f6	49		 dec	 ecx
  003f7	75 f4		 jne	 SHORT $LL1060@LoadProper
  003f9	80 75 f4 ed	 xor	 BYTE PTR __k$556641[ebp+8], -19 ; ffffffedH
  003fd	53		 push	 ebx
  003fe	8d 45 ec	 lea	 eax, DWORD PTR __k$556641[ebp]
  00401	50		 push	 eax
  00402	8b cf		 mov	 ecx, edi
  00404	ff 15 00 00 00
	00		 call	 DWORD PTR __imp_?LoadInt@ioINILoader@@QAEHPBDH@Z
  0040a	6a 06		 push	 6
  0040c	89 86 08 13 00
	00		 mov	 DWORD PTR [esi+4872], eax

; 80   : 
; 81   : 	m_vNoTargetTeleportOffset.x = rkLoader.LoadFloat_e( "no_target_teleport_offset_x", 0.0f );

  00412	c7 45 dc 83 83
	b4 9e		 mov	 DWORD PTR __k$556748[ebp], -1632337021 ; 9eb48383H
  00419	c7 45 e0 8c 9e
	8c 8f		 mov	 DWORD PTR __k$556748[ebp+4], -1886609780 ; 8f8c9e8cH
  00420	c7 45 e4 99 b3
	9f 8f		 mov	 DWORD PTR __k$556748[ebp+8], -1885359207 ; 8f9fb399H
  00427	c7 45 e8 81 89
	9b 85		 mov	 DWORD PTR __k$556748[ebp+12], -2053404287 ; 859b8981H
  0042e	c7 45 ec 9f 98
	b4 85		 mov	 DWORD PTR __k$556748[ebp+16], -2051762017 ; 85b4989fH
  00435	c7 45 f0 8b 8a
	98 8f		 mov	 DWORD PTR __k$556748[ebp+20], -1885828469 ; 8f988a8bH
  0043c	8d 45 dc	 lea	 eax, DWORD PTR __k$556748[ebp]
  0043f	c7 45 f4 99 b3
	93 00		 mov	 DWORD PTR __k$556748[ebp+24], 9679769 ; 0093b399H
  00446	59		 pop	 ecx
$LL1166@LoadProper:
  00447	81 30 ed ec eb
	ea		 xor	 DWORD PTR [eax], -353637139 ; eaebecedH
  0044d	83 c0 04	 add	 eax, 4
  00450	49		 dec	 ecx
  00451	75 f4		 jne	 SHORT $LL1166@LoadProper
  00453	6a 18		 push	 24			; 00000018H
  00455	58		 pop	 eax
$LL1163@LoadProper:
  00456	8b c8		 mov	 ecx, eax
  00458	81 e1 03 00 00
	80		 and	 ecx, -2147483645	; 80000003H
  0045e	79 05		 jns	 SHORT $LN1877@LoadProper
  00460	49		 dec	 ecx
  00461	83 c9 fc	 or	 ecx, -4			; fffffffcH
  00464	41		 inc	 ecx
$LN1877@LoadProper:
  00465	b2 ed		 mov	 dl, -19			; ffffffedH
  00467	2a d1		 sub	 dl, cl
  00469	30 54 05 dc	 xor	 BYTE PTR __k$556748[ebp+eax], dl
  0046d	40		 inc	 eax
  0046e	83 f8 1b	 cmp	 eax, 27			; 0000001bH
  00471	7c e3		 jl	 SHORT $LL1163@LoadProper
  00473	0f 57 c0	 xorps	 xmm0, xmm0
  00476	51		 push	 ecx
  00477	8d 45 dc	 lea	 eax, DWORD PTR __k$556748[ebp]
  0047a	f3 0f 11 04 24	 movss	 DWORD PTR [esp], xmm0
  0047f	50		 push	 eax
  00480	8b cf		 mov	 ecx, edi
  00482	ff 15 00 00 00
	00		 call	 DWORD PTR __imp_?LoadFloat@ioINILoader@@QAEMPBDM@Z
  00488	d9 9e 0c 13 00
	00		 fstp	 DWORD PTR [esi+4876]
  0048e	6a 06		 push	 6

; 82   : 	m_vNoTargetTeleportOffset.y = rkLoader.LoadFloat_e( "no_target_teleport_offset_y", 0.0f );

  00490	c7 45 dc 83 83
	b4 9e		 mov	 DWORD PTR __k$556873[ebp], -1632337021 ; 9eb48383H
  00497	c7 45 e0 8c 9e
	8c 8f		 mov	 DWORD PTR __k$556873[ebp+4], -1886609780 ; 8f8c9e8cH
  0049e	c7 45 e4 99 b3
	9f 8f		 mov	 DWORD PTR __k$556873[ebp+8], -1885359207 ; 8f9fb399H
  004a5	c7 45 e8 81 89
	9b 85		 mov	 DWORD PTR __k$556873[ebp+12], -2053404287 ; 859b8981H
  004ac	c7 45 ec 9f 98
	b4 85		 mov	 DWORD PTR __k$556873[ebp+16], -2051762017 ; 85b4989fH
  004b3	c7 45 f0 8b 8a
	98 8f		 mov	 DWORD PTR __k$556873[ebp+20], -1885828469 ; 8f988a8bH
  004ba	8d 45 dc	 lea	 eax, DWORD PTR __k$556873[ebp]
  004bd	c7 45 f4 99 b3
	92 00		 mov	 DWORD PTR __k$556873[ebp+24], 9614233 ; 0092b399H
  004c4	59		 pop	 ecx
$LL1272@LoadProper:
  004c5	81 30 ed ec eb
	ea		 xor	 DWORD PTR [eax], -353637139 ; eaebecedH
  004cb	83 c0 04	 add	 eax, 4
  004ce	49		 dec	 ecx
  004cf	75 f4		 jne	 SHORT $LL1272@LoadProper
  004d1	6a 18		 push	 24			; 00000018H
  004d3	58		 pop	 eax
$LL1269@LoadProper:
  004d4	8b c8		 mov	 ecx, eax
  004d6	81 e1 03 00 00
	80		 and	 ecx, -2147483645	; 80000003H
  004dc	79 05		 jns	 SHORT $LN1878@LoadProper
  004de	49		 dec	 ecx
  004df	83 c9 fc	 or	 ecx, -4			; fffffffcH
  004e2	41		 inc	 ecx
$LN1878@LoadProper:
  004e3	b2 ed		 mov	 dl, -19			; ffffffedH
  004e5	2a d1		 sub	 dl, cl
  004e7	30 54 05 dc	 xor	 BYTE PTR __k$556873[ebp+eax], dl
  004eb	40		 inc	 eax
  004ec	83 f8 1b	 cmp	 eax, 27			; 0000001bH
  004ef	7c e3		 jl	 SHORT $LL1269@LoadProper
  004f1	0f 57 c0	 xorps	 xmm0, xmm0
  004f4	51		 push	 ecx
  004f5	8d 45 dc	 lea	 eax, DWORD PTR __k$556873[ebp]
  004f8	f3 0f 11 04 24	 movss	 DWORD PTR [esp], xmm0
  004fd	50		 push	 eax
  004fe	8b cf		 mov	 ecx, edi
  00500	ff 15 00 00 00
	00		 call	 DWORD PTR __imp_?LoadFloat@ioINILoader@@QAEMPBDM@Z
  00506	d9 9e 10 13 00
	00		 fstp	 DWORD PTR [esi+4880]
  0050c	6a 06		 push	 6

; 83   : 	m_vNoTargetTeleportOffset.z = rkLoader.LoadFloat_e( "no_target_teleport_offset_z", 0.0f );

  0050e	c7 45 dc 83 83
	b4 9e		 mov	 DWORD PTR __k$556998[ebp], -1632337021 ; 9eb48383H
  00515	c7 45 e0 8c 9e
	8c 8f		 mov	 DWORD PTR __k$556998[ebp+4], -1886609780 ; 8f8c9e8cH
  0051c	c7 45 e4 99 b3
	9f 8f		 mov	 DWORD PTR __k$556998[ebp+8], -1885359207 ; 8f9fb399H
  00523	c7 45 e8 81 89
	9b 85		 mov	 DWORD PTR __k$556998[ebp+12], -2053404287 ; 859b8981H
  0052a	c7 45 ec 9f 98
	b4 85		 mov	 DWORD PTR __k$556998[ebp+16], -2051762017 ; 85b4989fH
  00531	c7 45 f0 8b 8a
	98 8f		 mov	 DWORD PTR __k$556998[ebp+20], -1885828469 ; 8f988a8bH
  00538	8d 45 dc	 lea	 eax, DWORD PTR __k$556998[ebp]
  0053b	c7 45 f4 99 b3
	91 00		 mov	 DWORD PTR __k$556998[ebp+24], 9548697 ; 0091b399H
  00542	59		 pop	 ecx
$LL1378@LoadProper:
  00543	81 30 ed ec eb
	ea		 xor	 DWORD PTR [eax], -353637139 ; eaebecedH
  00549	83 c0 04	 add	 eax, 4
  0054c	49		 dec	 ecx
  0054d	75 f4		 jne	 SHORT $LL1378@LoadProper
  0054f	6a 18		 push	 24			; 00000018H
  00551	58		 pop	 eax
$LL1375@LoadProper:
  00552	8b c8		 mov	 ecx, eax
  00554	81 e1 03 00 00
	80		 and	 ecx, -2147483645	; 80000003H
  0055a	79 05		 jns	 SHORT $LN1879@LoadProper
  0055c	49		 dec	 ecx
  0055d	83 c9 fc	 or	 ecx, -4			; fffffffcH
  00560	41		 inc	 ecx
$LN1879@LoadProper:
  00561	b2 ed		 mov	 dl, -19			; ffffffedH
  00563	2a d1		 sub	 dl, cl
  00565	30 54 05 dc	 xor	 BYTE PTR __k$556998[ebp+eax], dl
  00569	40		 inc	 eax
  0056a	83 f8 1b	 cmp	 eax, 27			; 0000001bH
  0056d	7c e3		 jl	 SHORT $LL1375@LoadProper
  0056f	0f 57 c0	 xorps	 xmm0, xmm0
  00572	51		 push	 ecx
  00573	8d 45 dc	 lea	 eax, DWORD PTR __k$556998[ebp]
  00576	f3 0f 11 04 24	 movss	 DWORD PTR [esp], xmm0
  0057b	50		 push	 eax
  0057c	8b cf		 mov	 ecx, edi
  0057e	ff 15 00 00 00
	00		 call	 DWORD PTR __imp_?LoadFloat@ioINILoader@@QAEMPBDM@Z
  00584	d9 9e 14 13 00
	00		 fstp	 DWORD PTR [esi+4884]
  0058a	6a 06		 push	 6

; 84   : 
; 85   : 	m_vTargetTeleportOffset.x = rkLoader.LoadFloat_e( "target_teleport_offset_x", 0.0f );

  0058c	c7 45 dc 99 8d
	99 8d		 mov	 DWORD PTR __k$557136[ebp], -1919316583 ; 8d998d99H
  00593	c7 45 e0 88 98
	b4 9e		 mov	 DWORD PTR __k$557136[ebp+4], -1632331640 ; 9eb49888H
  0059a	c7 45 e4 88 80
	8e 9a		 mov	 DWORD PTR __k$557136[ebp+8], -1701937016 ; 9a8e8088H
  005a1	c7 45 e8 82 9e
	9f b5		 mov	 DWORD PTR __k$557136[ebp+12], -1247830398 ; b59f9e82H
  005a8	c7 45 ec 82 8a
	8d 99		 mov	 DWORD PTR __k$557136[ebp+16], -1718777214 ; 998d8a82H
  005af	c7 45 f0 88 98
	b4 92		 mov	 DWORD PTR __k$557136[ebp+20], -1833658232 ; 92b49888H
  005b6	8d 45 dc	 lea	 eax, DWORD PTR __k$557136[ebp]
  005b9	88 5d f4	 mov	 BYTE PTR __k$557136[ebp+24], bl
  005bc	59		 pop	 ecx
$LL1484@LoadProper:
  005bd	81 30 ed ec eb
	ea		 xor	 DWORD PTR [eax], -353637139 ; eaebecedH
  005c3	83 c0 04	 add	 eax, 4
  005c6	49		 dec	 ecx
  005c7	75 f4		 jne	 SHORT $LL1484@LoadProper
  005c9	0f 57 c0	 xorps	 xmm0, xmm0
  005cc	51		 push	 ecx
  005cd	8d 45 dc	 lea	 eax, DWORD PTR __k$557136[ebp]
  005d0	f3 0f 11 04 24	 movss	 DWORD PTR [esp], xmm0
  005d5	50		 push	 eax
  005d6	8b cf		 mov	 ecx, edi
  005d8	ff 15 00 00 00
	00		 call	 DWORD PTR __imp_?LoadFloat@ioINILoader@@QAEMPBDM@Z
  005de	d9 9e 18 13 00
	00		 fstp	 DWORD PTR [esi+4888]
  005e4	6a 06		 push	 6

; 86   : 	m_vTargetTeleportOffset.y = rkLoader.LoadFloat_e( "target_teleport_offset_y", 0.0f );

  005e6	c7 45 dc 99 8d
	99 8d		 mov	 DWORD PTR __k$557248[ebp], -1919316583 ; 8d998d99H
  005ed	c7 45 e0 88 98
	b4 9e		 mov	 DWORD PTR __k$557248[ebp+4], -1632331640 ; 9eb49888H
  005f4	c7 45 e4 88 80
	8e 9a		 mov	 DWORD PTR __k$557248[ebp+8], -1701937016 ; 9a8e8088H
  005fb	c7 45 e8 82 9e
	9f b5		 mov	 DWORD PTR __k$557248[ebp+12], -1247830398 ; b59f9e82H
  00602	c7 45 ec 82 8a
	8d 99		 mov	 DWORD PTR __k$557248[ebp+16], -1718777214 ; 998d8a82H
  00609	c7 45 f0 88 98
	b4 93		 mov	 DWORD PTR __k$557248[ebp+20], -1816881016 ; 93b49888H
  00610	8d 45 dc	 lea	 eax, DWORD PTR __k$557248[ebp]
  00613	88 5d f4	 mov	 BYTE PTR __k$557248[ebp+24], bl
  00616	59		 pop	 ecx
$LL1590@LoadProper:
  00617	81 30 ed ec eb
	ea		 xor	 DWORD PTR [eax], -353637139 ; eaebecedH
  0061d	83 c0 04	 add	 eax, 4
  00620	49		 dec	 ecx
  00621	75 f4		 jne	 SHORT $LL1590@LoadProper
  00623	0f 57 c0	 xorps	 xmm0, xmm0
  00626	51		 push	 ecx
  00627	8d 45 dc	 lea	 eax, DWORD PTR __k$557248[ebp]
  0062a	f3 0f 11 04 24	 movss	 DWORD PTR [esp], xmm0
  0062f	50		 push	 eax
  00630	8b cf		 mov	 ecx, edi
  00632	ff 15 00 00 00
	00		 call	 DWORD PTR __imp_?LoadFloat@ioINILoader@@QAEMPBDM@Z
  00638	d9 9e 1c 13 00
	00		 fstp	 DWORD PTR [esi+4892]
  0063e	6a 06		 push	 6

; 87   : 	m_vTargetTeleportOffset.z = rkLoader.LoadFloat_e( "target_teleport_offset_z", 0.0f );

  00640	c7 45 dc 99 8d
	99 8d		 mov	 DWORD PTR __k$557373[ebp], -1919316583 ; 8d998d99H
  00647	c7 45 e0 88 98
	b4 9e		 mov	 DWORD PTR __k$557373[ebp+4], -1632331640 ; 9eb49888H
  0064e	c7 45 e4 88 80
	8e 9a		 mov	 DWORD PTR __k$557373[ebp+8], -1701937016 ; 9a8e8088H
  00655	c7 45 e8 82 9e
	9f b5		 mov	 DWORD PTR __k$557373[ebp+12], -1247830398 ; b59f9e82H
  0065c	c7 45 ec 82 8a
	8d 99		 mov	 DWORD PTR __k$557373[ebp+16], -1718777214 ; 998d8a82H
  00663	c7 45 f0 88 98
	b4 90		 mov	 DWORD PTR __k$557373[ebp+20], -1867212664 ; 90b49888H
  0066a	8d 45 dc	 lea	 eax, DWORD PTR __k$557373[ebp]
  0066d	88 5d f4	 mov	 BYTE PTR __k$557373[ebp+24], bl
  00670	59		 pop	 ecx
$LL1696@LoadProper:
  00671	81 30 ed ec eb
	ea		 xor	 DWORD PTR [eax], -353637139 ; eaebecedH
  00677	83 c0 04	 add	 eax, 4
  0067a	49		 dec	 ecx
  0067b	75 f4		 jne	 SHORT $LL1696@LoadProper
  0067d	0f 57 c0	 xorps	 xmm0, xmm0
  00680	51		 push	 ecx
  00681	8d 45 dc	 lea	 eax, DWORD PTR __k$557373[ebp]
  00684	f3 0f 11 04 24	 movss	 DWORD PTR [esp], xmm0
  00689	50		 push	 eax
  0068a	8b cf		 mov	 ecx, edi
  0068c	ff 15 00 00 00
	00		 call	 DWORD PTR __imp_?LoadFloat@ioINILoader@@QAEMPBDM@Z
  00692	d9 9e 20 13 00
	00		 fstp	 DWORD PTR [esi+4896]
  00698	6a 02		 push	 2

; 88   : 
; 89   : 	m_dwAttackTime = rkLoader.LoadInt_e( "attack_time", 0 );

  0069a	c7 45 ec 8c 98
	9f 8b		 mov	 DWORD PTR __k$557498[ebp], -1952474996 ; 8b9f988cH
  006a1	c7 45 f0 8e 87
	b4 9e		 mov	 DWORD PTR __k$557498[ebp+4], -1632335986 ; 9eb4878eH
  006a8	8d 45 ec	 lea	 eax, DWORD PTR __k$557498[ebp]
  006ab	c7 45 f4 84 81
	8e 00		 mov	 DWORD PTR __k$557498[ebp+8], 9339268 ; 008e8184H
  006b2	59		 pop	 ecx
$LL1802@LoadProper:
  006b3	81 30 ed ec eb
	ea		 xor	 DWORD PTR [eax], -353637139 ; eaebecedH
  006b9	83 c0 04	 add	 eax, 4
  006bc	49		 dec	 ecx
  006bd	75 f4		 jne	 SHORT $LL1802@LoadProper
  006bf	6a 08		 push	 8
  006c1	58		 pop	 eax
$LL1799@LoadProper:
  006c2	8b c8		 mov	 ecx, eax
  006c4	81 e1 03 00 00
	80		 and	 ecx, -2147483645	; 80000003H
  006ca	79 05		 jns	 SHORT $LN1880@LoadProper
  006cc	49		 dec	 ecx
  006cd	83 c9 fc	 or	 ecx, -4			; fffffffcH
  006d0	41		 inc	 ecx
$LN1880@LoadProper:
  006d1	b2 ed		 mov	 dl, -19			; ffffffedH
  006d3	2a d1		 sub	 dl, cl
  006d5	30 54 05 ec	 xor	 BYTE PTR __k$557498[ebp+eax], dl
  006d9	40		 inc	 eax
  006da	83 f8 0b	 cmp	 eax, 11			; 0000000bH
  006dd	7c e3		 jl	 SHORT $LL1799@LoadProper
  006df	53		 push	 ebx
  006e0	8d 45 ec	 lea	 eax, DWORD PTR __k$557498[ebp]
  006e3	50		 push	 eax
  006e4	8b cf		 mov	 ecx, edi
  006e6	ff 15 00 00 00
	00		 call	 DWORD PTR __imp_?LoadInt@ioINILoader@@QAEHPBDH@Z

; 90   : }

  006ec	8b 4d fc	 mov	 ecx, DWORD PTR __$ArrayPad$[ebp]
  006ef	5f		 pop	 edi
  006f0	89 86 24 13 00
	00		 mov	 DWORD PTR [esi+4900], eax
  006f6	5e		 pop	 esi
  006f7	33 cd		 xor	 ecx, ebp
  006f9	5b		 pop	 ebx
  006fa	e8 00 00 00 00	 call	 @__security_check_cookie@4
  006ff	c9		 leave
  00700	c2 04 00	 ret	 4
?LoadProperty@ioTargetTimingAttackSkill@@UAEXAAVioINILoader@@@Z ENDP ; ioTargetTimingAttackSkill::LoadProperty
_TEXT	ENDS
PUBLIC	?IsProtected@ioTargetTimingAttackSkill@@UBE_NH@Z ; ioTargetTimingAttackSkill::IsProtected
; Function compile flags: /Ogsp
;	COMDAT ?IsProtected@ioTargetTimingAttackSkill@@UBE_NH@Z
_TEXT	SEGMENT
_value$557691 = -1					; size = 1
_iDefenseBreakType$ = 8					; size = 4
?IsProtected@ioTargetTimingAttackSkill@@UBE_NH@Z PROC	; ioTargetTimingAttackSkill::IsProtected, COMDAT
; _this$ = ecx

; 231  : {

  00000	55		 push	 ebp
  00001	8b ec		 mov	 ebp, esp
  00003	51		 push	 ecx
  00004	56		 push	 esi
  00005	8b f1		 mov	 esi, ecx

; 232  : 	if( m_bDisableSkillProtect )

  00007	8d 45 ff	 lea	 eax, DWORD PTR _value$557691[ebp]
  0000a	50		 push	 eax
  0000b	8d 8e a8 00 00
	00		 lea	 ecx, DWORD PTR [esi+168]
  00011	e8 00 00 00 00	 call	 ?DecryptValueToPool@?$CEncrypt@_N@@QAEXPA_N@Z ; CEncrypt<bool>::DecryptValueToPool
  00016	80 7d ff 00	 cmp	 BYTE PTR _value$557691[ebp], 0
  0001a	74 04		 je	 SHORT $LN8@IsProtecte
$LN17@IsProtecte:

; 233  : 		return false;

  0001c	32 c0		 xor	 al, al
  0001e	eb 5f		 jmp	 SHORT $LN9@IsProtecte
$LN8@IsProtecte:

; 234  : 
; 235  : 	if( DBT_NONE != (DefenseBreakType)m_ProtectCancelType )

  00020	8b 86 a4 00 00
	00		 mov	 eax, DWORD PTR [esi+164]
  00026	85 c0		 test	 eax, eax
  00028	74 05		 je	 SHORT $LN6@IsProtecte

; 236  : 	{
; 237  : 		if( iDefenseBreakType == m_ProtectCancelType )   //   

  0002a	39 45 08	 cmp	 DWORD PTR _iDefenseBreakType$[ebp], eax

; 238  : 			return false;

  0002d	74 ed		 je	 SHORT $LN17@IsProtecte
$LN6@IsProtecte:
  0002f	57		 push	 edi

; 239  : 	}
; 240  : 	DWORD dwCurTime = FRAMEGETTIME();

  00030	ff 15 00 00 00
	00		 call	 DWORD PTR __imp_?GetSingleton@ioFrameTimer@@SAAAV1@XZ
  00036	8b c8		 mov	 ecx, eax
  00038	ff 15 00 00 00
	00		 call	 DWORD PTR __imp_?GetLoopSec@ioFrameTimer@@QBEKXZ
  0003e	8b f8		 mov	 edi, eax

; 241  : 
; 242  : 	if( IsPreDelayProtect() )

  00040	8b 06		 mov	 eax, DWORD PTR [esi]
  00042	8b ce		 mov	 ecx, esi
  00044	ff 90 2c 01 00
	00		 call	 DWORD PTR [eax+300]
  0004a	84 c0		 test	 al, al
  0004c	74 0b		 je	 SHORT $LN4@IsProtecte

; 243  : 	{
; 244  : 		if( m_dwPreDelayStartTime != 0 )

  0004e	83 be 20 02 00
	00 00		 cmp	 DWORD PTR [esi+544], 0
  00055	74 0b		 je	 SHORT $LN15@IsProtecte

; 245  : 			return true;

  00057	eb 1f		 jmp	 SHORT $LN16@IsProtecte
$LN4@IsProtecte:

; 246  : 	}
; 247  : 
; 248  : 	if( m_dwPreDelayStartTime == 0 )

  00059	83 be 20 02 00
	00 00		 cmp	 DWORD PTR [esi+544], 0
  00060	75 08		 jne	 SHORT $LN2@IsProtecte
$LN15@IsProtecte:

; 249  : 	{		
; 250  : 		if( m_dwCurSkillProtectTime > dwCurTime )

  00062	39 be 30 13 00
	00		 cmp	 DWORD PTR [esi+4912], edi

; 251  : 			return true;

  00068	77 0e		 ja	 SHORT $LN16@IsProtecte
$LN2@IsProtecte:

; 252  : 	}
; 253  : 
; 254  : 	if( m_dwFireMotionEndTime > 0 && m_dwFireMotionEndTime > dwCurTime )

  0006a	8b b6 24 02 00
	00		 mov	 esi, DWORD PTR [esi+548]
  00070	85 f6		 test	 esi, esi
  00072	74 08		 je	 SHORT $LN1@IsProtecte
  00074	3b f7		 cmp	 esi, edi
  00076	76 04		 jbe	 SHORT $LN1@IsProtecte
$LN16@IsProtecte:

; 255  : 		return true;

  00078	b0 01		 mov	 al, 1
  0007a	eb 02		 jmp	 SHORT $LN13@IsProtecte
$LN1@IsProtecte:

; 256  : 
; 257  : 	return false;

  0007c	32 c0		 xor	 al, al
$LN13@IsProtecte:
  0007e	5f		 pop	 edi
$LN9@IsProtecte:
  0007f	5e		 pop	 esi

; 258  : }

  00080	c9		 leave
  00081	c2 04 00	 ret	 4
?IsProtected@ioTargetTimingAttackSkill@@UBE_NH@Z ENDP	; ioTargetTimingAttackSkill::IsProtected
_TEXT	ENDS
PUBLIC	??0?$vector@UtagBaseCharHP@@V?$allocator@UtagBaseCharHP@@@std@@@std@@QAE@XZ ; std::vector<tagBaseCharHP,std::allocator<tagBaseCharHP> >::vector<tagBaseCharHP,std::allocator<tagBaseCharHP> >
; Function compile flags: /Ogsp
; File c:\program files (x86)\microsoft visual studio 10.0\vc\include\vector
;	COMDAT ??0?$vector@UtagBaseCharHP@@V?$allocator@UtagBaseCharHP@@@std@@@std@@QAE@XZ
_TEXT	SEGMENT
??0?$vector@UtagBaseCharHP@@V?$allocator@UtagBaseCharHP@@@std@@@std@@QAE@XZ PROC ; std::vector<tagBaseCharHP,std::allocator<tagBaseCharHP> >::vector<tagBaseCharHP,std::allocator<tagBaseCharHP> >, COMDAT
; _this$ = ecx

; 507  : 		{	// construct empty vector

  00000	8b c1		 mov	 eax, ecx
  00002	33 c9		 xor	 ecx, ecx
  00004	89 08		 mov	 DWORD PTR [eax], ecx
  00006	89 48 04	 mov	 DWORD PTR [eax+4], ecx
  00009	89 48 08	 mov	 DWORD PTR [eax+8], ecx

; 508  : 		}

  0000c	c3		 ret	 0
??0?$vector@UtagBaseCharHP@@V?$allocator@UtagBaseCharHP@@@std@@@std@@QAE@XZ ENDP ; std::vector<tagBaseCharHP,std::allocator<tagBaseCharHP> >::vector<tagBaseCharHP,std::allocator<tagBaseCharHP> >
_TEXT	ENDS
PUBLIC	?begin@?$vector@UtagBaseCharHP@@V?$allocator@UtagBaseCharHP@@@std@@@std@@QAE?AV?$_Vector_iterator@V?$_Vector_val@UtagBaseCharHP@@V?$allocator@UtagBaseCharHP@@@std@@@std@@@2@XZ ; std::vector<tagBaseCharHP,std::allocator<tagBaseCharHP> >::begin
; Function compile flags: /Ogsp
;	COMDAT ?begin@?$vector@UtagBaseCharHP@@V?$allocator@UtagBaseCharHP@@@std@@@std@@QAE?AV?$_Vector_iterator@V?$_Vector_val@UtagBaseCharHP@@V?$allocator@UtagBaseCharHP@@@std@@@std@@@2@XZ
_TEXT	SEGMENT
___$ReturnUdt$ = 8					; size = 4
?begin@?$vector@UtagBaseCharHP@@V?$allocator@UtagBaseCharHP@@@std@@@std@@QAE?AV?$_Vector_iterator@V?$_Vector_val@UtagBaseCharHP@@V?$allocator@UtagBaseCharHP@@@std@@@std@@@2@XZ PROC ; std::vector<tagBaseCharHP,std::allocator<tagBaseCharHP> >::begin, COMDAT
; _this$ = ecx

; 781  : 		{	// return iterator for beginning of mutable sequence

  00000	55		 push	 ebp
  00001	8b ec		 mov	 ebp, esp

; 782  : 		return (iterator(this->_Myfirst, this));

  00003	8b 09		 mov	 ecx, DWORD PTR [ecx]
  00005	8b 45 08	 mov	 eax, DWORD PTR ___$ReturnUdt$[ebp]
  00008	89 08		 mov	 DWORD PTR [eax], ecx

; 783  : 		}

  0000a	5d		 pop	 ebp
  0000b	c2 04 00	 ret	 4
?begin@?$vector@UtagBaseCharHP@@V?$allocator@UtagBaseCharHP@@@std@@@std@@QAE?AV?$_Vector_iterator@V?$_Vector_val@UtagBaseCharHP@@V?$allocator@UtagBaseCharHP@@@std@@@std@@@2@XZ ENDP ; std::vector<tagBaseCharHP,std::allocator<tagBaseCharHP> >::begin
_TEXT	ENDS
PUBLIC	?end@?$vector@UtagBaseCharHP@@V?$allocator@UtagBaseCharHP@@@std@@@std@@QAE?AV?$_Vector_iterator@V?$_Vector_val@UtagBaseCharHP@@V?$allocator@UtagBaseCharHP@@@std@@@std@@@2@XZ ; std::vector<tagBaseCharHP,std::allocator<tagBaseCharHP> >::end
; Function compile flags: /Ogsp
;	COMDAT ?end@?$vector@UtagBaseCharHP@@V?$allocator@UtagBaseCharHP@@@std@@@std@@QAE?AV?$_Vector_iterator@V?$_Vector_val@UtagBaseCharHP@@V?$allocator@UtagBaseCharHP@@@std@@@std@@@2@XZ
_TEXT	SEGMENT
___$ReturnUdt$ = 8					; size = 4
?end@?$vector@UtagBaseCharHP@@V?$allocator@UtagBaseCharHP@@@std@@@std@@QAE?AV?$_Vector_iterator@V?$_Vector_val@UtagBaseCharHP@@V?$allocator@UtagBaseCharHP@@@std@@@std@@@2@XZ PROC ; std::vector<tagBaseCharHP,std::allocator<tagBaseCharHP> >::end, COMDAT
; _this$ = ecx

; 791  : 		{	// return iterator for end of mutable sequence

  00000	55		 push	 ebp
  00001	8b ec		 mov	 ebp, esp

; 792  : 		return (iterator(this->_Mylast, this));

  00003	8b 49 04	 mov	 ecx, DWORD PTR [ecx+4]
  00006	8b 45 08	 mov	 eax, DWORD PTR ___$ReturnUdt$[ebp]
  00009	89 08		 mov	 DWORD PTR [eax], ecx

; 793  : 		}

  0000b	5d		 pop	 ebp
  0000c	c2 04 00	 ret	 4
?end@?$vector@UtagBaseCharHP@@V?$allocator@UtagBaseCharHP@@@std@@@std@@QAE?AV?$_Vector_iterator@V?$_Vector_val@UtagBaseCharHP@@V?$allocator@UtagBaseCharHP@@@std@@@std@@@2@XZ ENDP ; std::vector<tagBaseCharHP,std::allocator<tagBaseCharHP> >::end
_TEXT	ENDS
PUBLIC	??9?$_Vector_const_iterator@V?$_Vector_val@PAVioBaseChar@@V?$allocator@PAVioBaseChar@@@std@@@std@@@std@@QBE_NABV01@@Z ; std::_Vector_const_iterator<std::_Vector_val<ioBaseChar *,std::allocator<ioBaseChar *> > >::operator!=
; Function compile flags: /Ogsp
;	COMDAT ??9?$_Vector_const_iterator@V?$_Vector_val@PAVioBaseChar@@V?$allocator@PAVioBaseChar@@@std@@@std@@@std@@QBE_NABV01@@Z
_TEXT	SEGMENT
__Right$ = 8						; size = 4
??9?$_Vector_const_iterator@V?$_Vector_val@PAVioBaseChar@@V?$allocator@PAVioBaseChar@@@std@@@std@@@std@@QBE_NABV01@@Z PROC ; std::_Vector_const_iterator<std::_Vector_val<ioBaseChar *,std::allocator<ioBaseChar *> > >::operator!=, COMDAT
; _this$ = ecx

; 207  : 		{	// test for iterator inequality

  00000	55		 push	 ebp
  00001	8b ec		 mov	 ebp, esp

; 208  : 		return (!(*this == _Right));

  00003	8b 01		 mov	 eax, DWORD PTR [ecx]
  00005	8b 55 08	 mov	 edx, DWORD PTR __Right$[ebp]
  00008	33 c9		 xor	 ecx, ecx
  0000a	3b 02		 cmp	 eax, DWORD PTR [edx]
  0000c	0f 95 c0	 setne	 al

; 209  : 		}

  0000f	5d		 pop	 ebp
  00010	c2 04 00	 ret	 4
??9?$_Vector_const_iterator@V?$_Vector_val@PAVioBaseChar@@V?$allocator@PAVioBaseChar@@@std@@@std@@@std@@QBE_NABV01@@Z ENDP ; std::_Vector_const_iterator<std::_Vector_val<ioBaseChar *,std::allocator<ioBaseChar *> > >::operator!=
_TEXT	ENDS
PUBLIC	??9?$_Vector_const_iterator@V?$_Vector_val@UtagBaseCharHP@@V?$allocator@UtagBaseCharHP@@@std@@@std@@@std@@QBE_NABV01@@Z ; std::_Vector_const_iterator<std::_Vector_val<tagBaseCharHP,std::allocator<tagBaseCharHP> > >::operator!=
; Function compile flags: /Ogsp
;	COMDAT ??9?$_Vector_const_iterator@V?$_Vector_val@UtagBaseCharHP@@V?$allocator@UtagBaseCharHP@@@std@@@std@@@std@@QBE_NABV01@@Z
_TEXT	SEGMENT
__Right$ = 8						; size = 4
??9?$_Vector_const_iterator@V?$_Vector_val@UtagBaseCharHP@@V?$allocator@UtagBaseCharHP@@@std@@@std@@@std@@QBE_NABV01@@Z PROC ; std::_Vector_const_iterator<std::_Vector_val<tagBaseCharHP,std::allocator<tagBaseCharHP> > >::operator!=, COMDAT
; _this$ = ecx

; 207  : 		{	// test for iterator inequality

  00000	55		 push	 ebp
  00001	8b ec		 mov	 ebp, esp

; 208  : 		return (!(*this == _Right));

  00003	8b 01		 mov	 eax, DWORD PTR [ecx]
  00005	8b 55 08	 mov	 edx, DWORD PTR __Right$[ebp]
  00008	33 c9		 xor	 ecx, ecx
  0000a	3b 02		 cmp	 eax, DWORD PTR [edx]
  0000c	0f 95 c0	 setne	 al

; 209  : 		}

  0000f	5d		 pop	 ebp
  00010	c2 04 00	 ret	 4
??9?$_Vector_const_iterator@V?$_Vector_val@UtagBaseCharHP@@V?$allocator@UtagBaseCharHP@@@std@@@std@@@std@@QBE_NABV01@@Z ENDP ; std::_Vector_const_iterator<std::_Vector_val<tagBaseCharHP,std::allocator<tagBaseCharHP> > >::operator!=
_TEXT	ENDS
PUBLIC	??$_Cons_val@V?$allocator@UtagBaseCharHP@@@std@@UtagBaseCharHP@@AAU3@@std@@YAXAAV?$allocator@UtagBaseCharHP@@@0@PAUtagBaseCharHP@@AAU2@@Z ; std::_Cons_val<std::allocator<tagBaseCharHP>,tagBaseCharHP,tagBaseCharHP &>
;	COMDAT xdata$x
; File c:\program files (x86)\microsoft visual studio 10.0\vc\include\utility
xdata$x	SEGMENT
__unwindtable$??$_Cons_val@V?$allocator@UtagBaseCharHP@@@std@@UtagBaseCharHP@@AAU3@@std@@YAXAAV?$allocator@UtagBaseCharHP@@@0@PAUtagBaseCharHP@@AAU2@@Z DD 0ffffffffH
	DD	FLAT:__unwindfunclet$??$_Cons_val@V?$allocator@UtagBaseCharHP@@@std@@UtagBaseCharHP@@AAU3@@std@@YAXAAV?$allocator@UtagBaseCharHP@@@0@PAUtagBaseCharHP@@AAU2@@Z$0
__ehfuncinfo$??$_Cons_val@V?$allocator@UtagBaseCharHP@@@std@@UtagBaseCharHP@@AAU3@@std@@YAXAAV?$allocator@UtagBaseCharHP@@@0@PAUtagBaseCharHP@@AAU2@@Z DD 019930522H
	DD	01H
	DD	FLAT:__unwindtable$??$_Cons_val@V?$allocator@UtagBaseCharHP@@@std@@UtagBaseCharHP@@AAU3@@std@@YAXAAV?$allocator@UtagBaseCharHP@@@0@PAUtagBaseCharHP@@AAU2@@Z
	DD	2 DUP(00H)
	DD	2 DUP(00H)
	DD	00H
	DD	01H
; Function compile flags: /Ogsp
; File c:\program files (x86)\microsoft visual studio 10.0\vc\include\xmemory
xdata$x	ENDS
;	COMDAT ??$_Cons_val@V?$allocator@UtagBaseCharHP@@@std@@UtagBaseCharHP@@AAU3@@std@@YAXAAV?$allocator@UtagBaseCharHP@@@0@PAUtagBaseCharHP@@AAU2@@Z
_TEXT	SEGMENT
$T557791 = -16						; size = 4
__$EHRec$ = -12						; size = 12
__Alval$ = 8						; size = 4
__Pdest$ = 12						; size = 4
__Src$ = 16						; size = 4
??$_Cons_val@V?$allocator@UtagBaseCharHP@@@std@@UtagBaseCharHP@@AAU3@@std@@YAXAAV?$allocator@UtagBaseCharHP@@@0@PAUtagBaseCharHP@@AAU2@@Z PROC ; std::_Cons_val<std::allocator<tagBaseCharHP>,tagBaseCharHP,tagBaseCharHP &>, COMDAT

; 279  : 	{	// construct using allocator

  00000	6a 04		 push	 4
  00002	b8 00 00 00 00	 mov	 eax, __ehhandler$??$_Cons_val@V?$allocator@UtagBaseCharHP@@@std@@UtagBaseCharHP@@AAU3@@std@@YAXAAV?$allocator@UtagBaseCharHP@@@0@PAUtagBaseCharHP@@AAU2@@Z
  00007	e8 00 00 00 00	 call	 __EH_prolog3

; 280  : 	_Alval.construct(_Pdest, _STD forward<_Ty2>(_Src));

  0000c	8b 4d 0c	 mov	 ecx, DWORD PTR __Pdest$[ebp]
  0000f	89 4d f0	 mov	 DWORD PTR $T557791[ebp], ecx
  00012	83 65 fc 00	 and	 DWORD PTR __$EHRec$[ebp+8], 0
  00016	85 c9		 test	 ecx, ecx
  00018	74 08		 je	 SHORT $LN7@Cons_val@2
  0001a	ff 75 10	 push	 DWORD PTR __Src$[ebp]
  0001d	e8 00 00 00 00	 call	 ??0tagBaseCharHP@@QAE@ABU0@@Z
$LN7@Cons_val@2:

; 281  : 	}

  00022	e8 00 00 00 00	 call	 __EH_epilog3
  00027	c3		 ret	 0
_TEXT	ENDS
;	COMDAT text$x
text$x	SEGMENT
__unwindfunclet$??$_Cons_val@V?$allocator@UtagBaseCharHP@@@std@@UtagBaseCharHP@@AAU3@@std@@YAXAAV?$allocator@UtagBaseCharHP@@@0@PAUtagBaseCharHP@@AAU2@@Z$0:
  00000	ff 75 0c	 push	 DWORD PTR __Pdest$[ebp]
  00003	ff 75 f0	 push	 DWORD PTR $T557791[ebp]
  00006	e8 00 00 00 00	 call	 ??3@YAXPAX0@Z		; operator delete
  0000b	59		 pop	 ecx
  0000c	59		 pop	 ecx
  0000d	c3		 ret	 0
__ehhandler$??$_Cons_val@V?$allocator@UtagBaseCharHP@@@std@@UtagBaseCharHP@@AAU3@@std@@YAXAAV?$allocator@UtagBaseCharHP@@@0@PAUtagBaseCharHP@@AAU2@@Z:
  0000e	8b 54 24 08	 mov	 edx, DWORD PTR [esp+8]
  00012	8d 42 0c	 lea	 eax, DWORD PTR [edx+12]
  00015	8b 4a ec	 mov	 ecx, DWORD PTR [edx-20]
  00018	33 c8		 xor	 ecx, eax
  0001a	e8 00 00 00 00	 call	 @__security_check_cookie@4
  0001f	b8 00 00 00 00	 mov	 eax, OFFSET __ehfuncinfo$??$_Cons_val@V?$allocator@UtagBaseCharHP@@@std@@UtagBaseCharHP@@AAU3@@std@@YAXAAV?$allocator@UtagBaseCharHP@@@0@PAUtagBaseCharHP@@AAU2@@Z
  00024	e9 00 00 00 00	 jmp	 ___CxxFrameHandler3
text$x	ENDS
??$_Cons_val@V?$allocator@UtagBaseCharHP@@@std@@UtagBaseCharHP@@AAU3@@std@@YAXAAV?$allocator@UtagBaseCharHP@@@0@PAUtagBaseCharHP@@AAU2@@Z ENDP ; std::_Cons_val<std::allocator<tagBaseCharHP>,tagBaseCharHP,tagBaseCharHP &>
PUBLIC	??$_Move@PAUtagBaseCharHP@@PAU1@@std@@YAPAUtagBaseCharHP@@PAU1@00@Z ; std::_Move<tagBaseCharHP *,tagBaseCharHP *>
; Function compile flags: /Ogsp
; File c:\program files (x86)\microsoft visual studio 10.0\vc\include\xutility
;	COMDAT ??$_Move@PAUtagBaseCharHP@@PAU1@@std@@YAPAUtagBaseCharHP@@PAU1@00@Z
_TEXT	SEGMENT
__Cat$557809 = -4					; size = 1
__First$ = 8						; size = 4
__Last$ = 12						; size = 4
__Dest$ = 16						; size = 4
??$_Move@PAUtagBaseCharHP@@PAU1@@std@@YAPAUtagBaseCharHP@@PAU1@00@Z PROC ; std::_Move<tagBaseCharHP *,tagBaseCharHP *>, COMDAT

; 2533 : 	{	// move [_First, _Last) to [_Dest, ...), unchecked

  00000	55		 push	 ebp
  00001	8b ec		 mov	 ebp, esp
  00003	51		 push	 ecx

; 2534 : 	return (_Move(_First, _Last,
; 2535 : 		_Dest, _Ptr_cat(_First, _Dest)));

  00004	ff 75 fc	 push	 DWORD PTR __Cat$557809[ebp]
  00007	ff 75 10	 push	 DWORD PTR __Dest$[ebp]
  0000a	ff 75 0c	 push	 DWORD PTR __Last$[ebp]
  0000d	ff 75 08	 push	 DWORD PTR __First$[ebp]
  00010	e8 00 00 00 00	 call	 ??$_Move@PAUtagBaseCharHP@@PAU1@@std@@YAPAUtagBaseCharHP@@PAU1@00U_Nonscalar_ptr_iterator_tag@0@@Z ; std::_Move<tagBaseCharHP *,tagBaseCharHP *>
  00015	83 c4 10	 add	 esp, 16			; 00000010H

; 2536 : 	}

  00018	c9		 leave
  00019	c3		 ret	 0
??$_Move@PAUtagBaseCharHP@@PAU1@@std@@YAPAUtagBaseCharHP@@PAU1@00@Z ENDP ; std::_Move<tagBaseCharHP *,tagBaseCharHP *>
_TEXT	ENDS
PUBLIC	?construct@?$allocator@UtagBaseCharHP@@@std@@QAEXPAUtagBaseCharHP@@ABU3@@Z ; std::allocator<tagBaseCharHP>::construct
; Function compile flags: /Ogsp
; File c:\program files (x86)\microsoft visual studio 10.0\vc\include\xmemory
;	COMDAT ?construct@?$allocator@UtagBaseCharHP@@@std@@QAEXPAUtagBaseCharHP@@ABU3@@Z
_TEXT	SEGMENT
__Ptr$ = 8						; size = 4
__Val$ = 12						; size = 4
?construct@?$allocator@UtagBaseCharHP@@@std@@QAEXPAUtagBaseCharHP@@ABU3@@Z PROC ; std::allocator<tagBaseCharHP>::construct, COMDAT
; _this$ = ecx

; 196  : 		{	// construct object at _Ptr with value _Val

  00000	55		 push	 ebp
  00001	8b ec		 mov	 ebp, esp

; 197  : 		_Construct(_Ptr, _Val);

  00003	ff 75 0c	 push	 DWORD PTR __Val$[ebp]
  00006	ff 75 08	 push	 DWORD PTR __Ptr$[ebp]
  00009	e8 00 00 00 00	 call	 ??$_Construct@UtagBaseCharHP@@ABU1@@std@@YAXPAUtagBaseCharHP@@ABU1@@Z ; std::_Construct<tagBaseCharHP,tagBaseCharHP const &>
  0000e	59		 pop	 ecx
  0000f	59		 pop	 ecx

; 198  : 		}

  00010	5d		 pop	 ebp
  00011	c2 08 00	 ret	 8
?construct@?$allocator@UtagBaseCharHP@@@std@@QAEXPAUtagBaseCharHP@@ABU3@@Z ENDP ; std::allocator<tagBaseCharHP>::construct
_TEXT	ENDS
PUBLIC	?destroy@?$allocator@UtagBaseCharHP@@@std@@QAEXPAUtagBaseCharHP@@@Z ; std::allocator<tagBaseCharHP>::destroy
; Function compile flags: /Ogsp
;	COMDAT ?destroy@?$allocator@UtagBaseCharHP@@@std@@QAEXPAUtagBaseCharHP@@@Z
_TEXT	SEGMENT
__Ptr$ = 8						; size = 4
?destroy@?$allocator@UtagBaseCharHP@@@std@@QAEXPAUtagBaseCharHP@@@Z PROC ; std::allocator<tagBaseCharHP>::destroy, COMDAT
; _this$ = ecx

; 212  : 		{	// destroy object at _Ptr

  00000	55		 push	 ebp
  00001	8b ec		 mov	 ebp, esp

; 213  : 		_Destroy(_Ptr);

  00003	8b 4d 08	 mov	 ecx, DWORD PTR __Ptr$[ebp]
  00006	ff 15 00 00 00
	00		 call	 DWORD PTR __imp_??1ioHashString@@QAE@XZ

; 214  : 		}

  0000c	5d		 pop	 ebp
  0000d	c2 04 00	 ret	 4
?destroy@?$allocator@UtagBaseCharHP@@@std@@QAEXPAUtagBaseCharHP@@@Z ENDP ; std::allocator<tagBaseCharHP>::destroy
_TEXT	ENDS
PUBLIC	??$iter_swap@PAUtagBaseCharHP@@PAU1@@std@@YAXPAUtagBaseCharHP@@0@Z ; std::iter_swap<tagBaseCharHP *,tagBaseCharHP *>
; Function compile flags: /Ogsp
; File c:\program files (x86)\microsoft visual studio 10.0\vc\include\xutility
;	COMDAT ??$iter_swap@PAUtagBaseCharHP@@PAU1@@std@@YAXPAUtagBaseCharHP@@0@Z
_TEXT	SEGMENT
__Left$ = 8						; size = 4
__Right$ = 12						; size = 4
??$iter_swap@PAUtagBaseCharHP@@PAU1@@std@@YAXPAUtagBaseCharHP@@0@Z PROC ; std::iter_swap<tagBaseCharHP *,tagBaseCharHP *>, COMDAT

; 2133 : 	{	// swap *_Left and *_Right

  00000	55		 push	 ebp
  00001	8b ec		 mov	 ebp, esp

; 2135 : 	}

  00003	5d		 pop	 ebp

; 2134 : 	swap(*_Left, *_Right);

  00004	e9 00 00 00 00	 jmp	 ??$swap@UtagBaseCharHP@@@std@@YAXAAUtagBaseCharHP@@0@Z ; std::swap<tagBaseCharHP>
??$iter_swap@PAUtagBaseCharHP@@PAU1@@std@@YAXPAUtagBaseCharHP@@0@Z ENDP ; std::iter_swap<tagBaseCharHP *,tagBaseCharHP *>
_TEXT	ENDS
PUBLIC	??$_Insertion_sort1@PAUtagBaseCharHP@@VBaseCharHPSort@@U1@@std@@YAXPAUtagBaseCharHP@@0VBaseCharHPSort@@0@Z ; std::_Insertion_sort1<tagBaseCharHP *,BaseCharHPSort,tagBaseCharHP>
;	COMDAT xdata$x
; File d:\lost saga for developer\youtube\tutorial\source\src\lsclient\iotargettimingattackskill.cpp
xdata$x	SEGMENT
__unwindtable$??$_Insertion_sort1@PAUtagBaseCharHP@@VBaseCharHPSort@@U1@@std@@YAXPAUtagBaseCharHP@@0VBaseCharHPSort@@0@Z DD 0ffffffffH
	DD	FLAT:__unwindfunclet$??$_Insertion_sort1@PAUtagBaseCharHP@@VBaseCharHPSort@@U1@@std@@YAXPAUtagBaseCharHP@@0VBaseCharHPSort@@0@Z$0
__ehfuncinfo$??$_Insertion_sort1@PAUtagBaseCharHP@@VBaseCharHPSort@@U1@@std@@YAXPAUtagBaseCharHP@@0VBaseCharHPSort@@0@Z DD 019930522H
	DD	01H
	DD	FLAT:__unwindtable$??$_Insertion_sort1@PAUtagBaseCharHP@@VBaseCharHPSort@@U1@@std@@YAXPAUtagBaseCharHP@@0VBaseCharHPSort@@0@Z
	DD	2 DUP(00H)
	DD	2 DUP(00H)
	DD	00H
	DD	01H
; Function compile flags: /Ogsp
; File c:\program files (x86)\microsoft visual studio 10.0\vc\include\algorithm
xdata$x	ENDS
;	COMDAT ??$_Insertion_sort1@PAUtagBaseCharHP@@VBaseCharHPSort@@U1@@std@@YAXPAUtagBaseCharHP@@0VBaseCharHPSort@@0@Z
_TEXT	SEGMENT
__Val$552972 = -36					; size = 24
__$EHRec$ = -12						; size = 12
__First1$552982 = 8					; size = 4
__First$ = 8						; size = 4
__Cat$557863 = 12					; size = 1
__Last$ = 12						; size = 4
__Pred$ = 16						; size = 1
___formal$ = 20						; size = 4
??$_Insertion_sort1@PAUtagBaseCharHP@@VBaseCharHPSort@@U1@@std@@YAXPAUtagBaseCharHP@@0VBaseCharHPSort@@0@Z PROC ; std::_Insertion_sort1<tagBaseCharHP *,BaseCharHPSort,tagBaseCharHP>, COMDAT

; 3650 : 	{	// insertion sort [_First, _Last), using _Pred

  00000	6a 18		 push	 24			; 00000018H
  00002	b8 00 00 00 00	 mov	 eax, __ehhandler$??$_Insertion_sort1@PAUtagBaseCharHP@@VBaseCharHPSort@@U1@@std@@YAXPAUtagBaseCharHP@@0VBaseCharHPSort@@0@Z
  00007	e8 00 00 00 00	 call	 __EH_prolog3

; 3651 : 	if (_First != _Last)

  0000c	8b 7d 08	 mov	 edi, DWORD PTR __First$[ebp]
  0000f	3b 7d 0c	 cmp	 edi, DWORD PTR __Last$[ebp]
  00012	0f 84 d4 00 00
	00		 je	 $LN6@Insertion_

; 3652 : 		for (_BidIt _Next = _First; ++_Next != _Last; )

  00018	8d 77 18	 lea	 esi, DWORD PTR [edi+24]
  0001b	e9 c3 00 00 00	 jmp	 $LN49@Insertion_
$LL7@Insertion_:

; 3653 : 			{	// order next element
; 3654 : 			_BidIt _Next1 = _Next;
; 3655 : 			_Ty _Val = _Move(*_Next);

  00020	56		 push	 esi
  00021	8d 4d dc	 lea	 ecx, DWORD PTR __Val$552972[ebp]
  00024	8b de		 mov	 ebx, esi
  00026	ff 15 00 00 00
	00		 call	 DWORD PTR __imp_??0ioHashString@@QAE@ABV0@@Z
  0002c	8a 46 14	 mov	 al, BYTE PTR [esi+20]
  0002f	f3 0f 10 46 10	 movss	 xmm0, DWORD PTR [esi+16]
  00034	f3 0f 11 45 ec	 movss	 DWORD PTR __Val$552972[ebp+16], xmm0
  00039	88 45 f0	 mov	 BYTE PTR __Val$552972[ebp+20], al
  0003c	83 65 fc 00	 and	 DWORD PTR __$EHRec$[ebp+8], 0

; 3656 : 
; 3657 : 			if (_DEBUG_LT_PRED(_Pred, _Val, *_First))

  00040	84 c0		 test	 al, al
  00042	75 40		 jne	 SHORT $LN5@Insertion_
  00044	f3 0f 10 4f 10	 movss	 xmm1, DWORD PTR [edi+16]
  00049	0f 5a c0	 cvtps2pd xmm0, xmm0
  0004c	0f 5a c9	 cvtps2pd xmm1, xmm1
  0004f	66 0f 2f c8	 comisd	 xmm1, xmm0
  00053	76 2f		 jbe	 SHORT $LN5@Insertion_

; 3658 : 				{	// found new earliest element, move to front
; 3659 : 				_Move_backward(_First, _Next, ++_Next1);

  00055	ff 75 0c	 push	 DWORD PTR __Cat$557863[ebp]
  00058	8d 46 18	 lea	 eax, DWORD PTR [esi+24]
  0005b	50		 push	 eax
  0005c	56		 push	 esi
  0005d	57		 push	 edi
  0005e	e8 00 00 00 00	 call	 ??$_Move_backward@PAUtagBaseCharHP@@PAU1@@std@@YAPAUtagBaseCharHP@@PAU1@00U_Nonscalar_ptr_iterator_tag@0@@Z ; std::_Move_backward<tagBaseCharHP *,tagBaseCharHP *>
  00063	83 c4 10	 add	 esp, 16			; 00000010H

; 3660 : 				*_First = _Move(_Val);

  00066	8d 45 dc	 lea	 eax, DWORD PTR __Val$552972[ebp]
  00069	50		 push	 eax
  0006a	8b cf		 mov	 ecx, edi
  0006c	ff 15 00 00 00
	00		 call	 DWORD PTR __imp_??4ioHashString@@QAEAAV0@ABV0@@Z
  00072	8a 45 f0	 mov	 al, BYTE PTR __Val$552972[ebp+20]
  00075	f3 0f 10 45 ec	 movss	 xmm0, DWORD PTR __Val$552972[ebp+16]
  0007a	f3 0f 11 47 10	 movss	 DWORD PTR [edi+16], xmm0
  0007f	88 47 14	 mov	 BYTE PTR [edi+20], al

; 3661 : 				}
; 3662 : 			else

  00082	eb 4f		 jmp	 SHORT $LN37@Insertion_
$LN5@Insertion_:

; 3663 : 				{	// look for insertion point after first
; 3664 : 				for (_BidIt _First1 = _Next1;

  00084	89 75 08	 mov	 DWORD PTR __First1$552982[ebp], esi
$LL3@Insertion_:

; 3665 : 					_DEBUG_LT_PRED(_Pred, _Val, *--_First1);
; 3666 : 					_Next1 = _First1)

  00087	83 6d 08 18	 sub	 DWORD PTR __First1$552982[ebp], 24 ; 00000018H
  0008b	80 7d f0 00	 cmp	 BYTE PTR __Val$552972[ebp+20], 0
  0008f	75 26		 jne	 SHORT $LN47@Insertion_
  00091	8b 45 08	 mov	 eax, DWORD PTR __First1$552982[ebp]
  00094	f3 0f 10 45 ec	 movss	 xmm0, DWORD PTR __Val$552972[ebp+16]
  00099	f3 0f 10 48 10	 movss	 xmm1, DWORD PTR [eax+16]
  0009e	0f 5a c0	 cvtps2pd xmm0, xmm0
  000a1	0f 5a c9	 cvtps2pd xmm1, xmm1
  000a4	66 0f 2f c8	 comisd	 xmm1, xmm0
  000a8	76 0d		 jbe	 SHORT $LN47@Insertion_

; 3667 : 					*_Next1 = _Move(*_First1);	// move hole down

  000aa	50		 push	 eax
  000ab	8b cb		 mov	 ecx, ebx
  000ad	e8 00 00 00 00	 call	 ??4tagBaseCharHP@@QAEAAU0@ABU0@@Z
  000b2	8b 5d 08	 mov	 ebx, DWORD PTR __First1$552982[ebp]
  000b5	eb d0		 jmp	 SHORT $LL3@Insertion_
$LN47@Insertion_:

; 3668 : 				*_Next1 = _Move(_Val);	// insert element in hole

  000b7	8d 45 dc	 lea	 eax, DWORD PTR __Val$552972[ebp]
  000ba	50		 push	 eax
  000bb	8b cb		 mov	 ecx, ebx
  000bd	ff 15 00 00 00
	00		 call	 DWORD PTR __imp_??4ioHashString@@QAEAAV0@ABV0@@Z
  000c3	8a 45 f0	 mov	 al, BYTE PTR __Val$552972[ebp+20]
  000c6	f3 0f 10 45 ec	 movss	 xmm0, DWORD PTR __Val$552972[ebp+16]
  000cb	f3 0f 11 43 10	 movss	 DWORD PTR [ebx+16], xmm0
  000d0	88 43 14	 mov	 BYTE PTR [ebx+20], al
$LN37@Insertion_:

; 3669 : 				}
; 3670 : 			}

  000d3	83 4d fc ff	 or	 DWORD PTR __$EHRec$[ebp+8], -1
  000d7	8d 4d dc	 lea	 ecx, DWORD PTR __Val$552972[ebp]
  000da	ff 15 00 00 00
	00		 call	 DWORD PTR __imp_??1ioHashString@@QAE@XZ
  000e0	83 c6 18	 add	 esi, 24			; 00000018H
$LN49@Insertion_:

; 3652 : 		for (_BidIt _Next = _First; ++_Next != _Last; )

  000e3	3b 75 0c	 cmp	 esi, DWORD PTR __Last$[ebp]
  000e6	0f 85 34 ff ff
	ff		 jne	 $LL7@Insertion_
$LN6@Insertion_:

; 3671 : 	}

  000ec	e8 00 00 00 00	 call	 __EH_epilog3
  000f1	c3		 ret	 0
_TEXT	ENDS
;	COMDAT text$x
text$x	SEGMENT
__unwindfunclet$??$_Insertion_sort1@PAUtagBaseCharHP@@VBaseCharHPSort@@U1@@std@@YAXPAUtagBaseCharHP@@0VBaseCharHPSort@@0@Z$0:
  00000	8d 4d dc	 lea	 ecx, DWORD PTR __Val$552972[ebp]
  00003	e9 00 00 00 00	 jmp	 ??1tagBaseCharHP@@QAE@XZ
__ehhandler$??$_Insertion_sort1@PAUtagBaseCharHP@@VBaseCharHPSort@@U1@@std@@YAXPAUtagBaseCharHP@@0VBaseCharHPSort@@0@Z:
  00008	8b 54 24 08	 mov	 edx, DWORD PTR [esp+8]
  0000c	8d 42 0c	 lea	 eax, DWORD PTR [edx+12]
  0000f	8b 4a d8	 mov	 ecx, DWORD PTR [edx-40]
  00012	33 c8		 xor	 ecx, eax
  00014	e8 00 00 00 00	 call	 @__security_check_cookie@4
  00019	b8 00 00 00 00	 mov	 eax, OFFSET __ehfuncinfo$??$_Insertion_sort1@PAUtagBaseCharHP@@VBaseCharHPSort@@U1@@std@@YAXPAUtagBaseCharHP@@0VBaseCharHPSort@@0@Z
  0001e	e9 00 00 00 00	 jmp	 ___CxxFrameHandler3
text$x	ENDS
??$_Insertion_sort1@PAUtagBaseCharHP@@VBaseCharHPSort@@U1@@std@@YAXPAUtagBaseCharHP@@0VBaseCharHPSort@@0@Z ENDP ; std::_Insertion_sort1<tagBaseCharHP *,BaseCharHPSort,tagBaseCharHP>
PUBLIC	??$_Cons_val@V?$allocator@UForceInfo@@@std@@UForceInfo@@ABU3@@std@@YAXAAV?$allocator@UForceInfo@@@0@PAUForceInfo@@ABU2@@Z ; std::_Cons_val<std::allocator<ForceInfo>,ForceInfo,ForceInfo const &>
; Function compile flags: /Ogsp
; File c:\program files (x86)\microsoft visual studio 10.0\vc\include\xmemory
;	COMDAT ??$_Cons_val@V?$allocator@UForceInfo@@@std@@UForceInfo@@ABU3@@std@@YAXAAV?$allocator@UForceInfo@@@0@PAUForceInfo@@ABU2@@Z
_TEXT	SEGMENT
__Alval$ = 8						; size = 4
__Pdest$ = 12						; size = 4
__Src$ = 16						; size = 4
??$_Cons_val@V?$allocator@UForceInfo@@@std@@UForceInfo@@ABU3@@std@@YAXAAV?$allocator@UForceInfo@@@0@PAUForceInfo@@ABU2@@Z PROC ; std::_Cons_val<std::allocator<ForceInfo>,ForceInfo,ForceInfo const &>, COMDAT

; 279  : 	{	// construct using allocator

  00000	55		 push	 ebp
  00001	8b ec		 mov	 ebp, esp
  00003	57		 push	 edi

; 280  : 	_Alval.construct(_Pdest, _STD forward<_Ty2>(_Src));

  00004	8b 7d 0c	 mov	 edi, DWORD PTR __Pdest$[ebp]
  00007	85 ff		 test	 edi, edi
  00009	74 08		 je	 SHORT $LN9@Cons_val@3
  0000b	56		 push	 esi
  0000c	8b 75 10	 mov	 esi, DWORD PTR __Src$[ebp]
  0000f	a5		 movsd
  00010	a5		 movsd
  00011	a5		 movsd
  00012	5e		 pop	 esi
$LN9@Cons_val@3:
  00013	5f		 pop	 edi

; 281  : 	}

  00014	5d		 pop	 ebp
  00015	c3		 ret	 0
??$_Cons_val@V?$allocator@UForceInfo@@@std@@UForceInfo@@ABU3@@std@@YAXAAV?$allocator@UForceInfo@@@0@PAUForceInfo@@ABU2@@Z ENDP ; std::_Cons_val<std::allocator<ForceInfo>,ForceInfo,ForceInfo const &>
_TEXT	ENDS
PUBLIC	??$_Cons_val@V?$allocator@UtagBaseCharHP@@@std@@UtagBaseCharHP@@U3@@std@@YAXAAV?$allocator@UtagBaseCharHP@@@0@PAUtagBaseCharHP@@$$QAU2@@Z ; std::_Cons_val<std::allocator<tagBaseCharHP>,tagBaseCharHP,tagBaseCharHP>
;	COMDAT xdata$x
; File c:\program files (x86)\microsoft visual studio 10.0\vc\include\utility
xdata$x	SEGMENT
__unwindtable$??$_Cons_val@V?$allocator@UtagBaseCharHP@@@std@@UtagBaseCharHP@@U3@@std@@YAXAAV?$allocator@UtagBaseCharHP@@@0@PAUtagBaseCharHP@@$$QAU2@@Z DD 0ffffffffH
	DD	FLAT:__unwindfunclet$??$_Cons_val@V?$allocator@UtagBaseCharHP@@@std@@UtagBaseCharHP@@U3@@std@@YAXAAV?$allocator@UtagBaseCharHP@@@0@PAUtagBaseCharHP@@$$QAU2@@Z$0
__ehfuncinfo$??$_Cons_val@V?$allocator@UtagBaseCharHP@@@std@@UtagBaseCharHP@@U3@@std@@YAXAAV?$allocator@UtagBaseCharHP@@@0@PAUtagBaseCharHP@@$$QAU2@@Z DD 019930522H
	DD	01H
	DD	FLAT:__unwindtable$??$_Cons_val@V?$allocator@UtagBaseCharHP@@@std@@UtagBaseCharHP@@U3@@std@@YAXAAV?$allocator@UtagBaseCharHP@@@0@PAUtagBaseCharHP@@$$QAU2@@Z
	DD	2 DUP(00H)
	DD	2 DUP(00H)
	DD	00H
	DD	01H
; Function compile flags: /Ogsp
; File c:\program files (x86)\microsoft visual studio 10.0\vc\include\xmemory
xdata$x	ENDS
;	COMDAT ??$_Cons_val@V?$allocator@UtagBaseCharHP@@@std@@UtagBaseCharHP@@U3@@std@@YAXAAV?$allocator@UtagBaseCharHP@@@0@PAUtagBaseCharHP@@$$QAU2@@Z
_TEXT	SEGMENT
$T557964 = -16						; size = 4
__$EHRec$ = -12						; size = 12
__Alval$ = 8						; size = 4
__Pdest$ = 12						; size = 4
__Src$ = 16						; size = 4
??$_Cons_val@V?$allocator@UtagBaseCharHP@@@std@@UtagBaseCharHP@@U3@@std@@YAXAAV?$allocator@UtagBaseCharHP@@@0@PAUtagBaseCharHP@@$$QAU2@@Z PROC ; std::_Cons_val<std::allocator<tagBaseCharHP>,tagBaseCharHP,tagBaseCharHP>, COMDAT

; 279  : 	{	// construct using allocator

  00000	6a 04		 push	 4
  00002	b8 00 00 00 00	 mov	 eax, __ehhandler$??$_Cons_val@V?$allocator@UtagBaseCharHP@@@std@@UtagBaseCharHP@@U3@@std@@YAXAAV?$allocator@UtagBaseCharHP@@@0@PAUtagBaseCharHP@@$$QAU2@@Z
  00007	e8 00 00 00 00	 call	 __EH_prolog3

; 280  : 	_Alval.construct(_Pdest, _STD forward<_Ty2>(_Src));

  0000c	8b 4d 0c	 mov	 ecx, DWORD PTR __Pdest$[ebp]
  0000f	89 4d f0	 mov	 DWORD PTR $T557964[ebp], ecx
  00012	83 65 fc 00	 and	 DWORD PTR __$EHRec$[ebp+8], 0
  00016	85 c9		 test	 ecx, ecx
  00018	74 08		 je	 SHORT $LN7@Cons_val@4
  0001a	ff 75 10	 push	 DWORD PTR __Src$[ebp]
  0001d	e8 00 00 00 00	 call	 ??0tagBaseCharHP@@QAE@ABU0@@Z
$LN7@Cons_val@4:

; 281  : 	}

  00022	e8 00 00 00 00	 call	 __EH_epilog3
  00027	c3		 ret	 0
_TEXT	ENDS
;	COMDAT text$x
text$x	SEGMENT
__unwindfunclet$??$_Cons_val@V?$allocator@UtagBaseCharHP@@@std@@UtagBaseCharHP@@U3@@std@@YAXAAV?$allocator@UtagBaseCharHP@@@0@PAUtagBaseCharHP@@$$QAU2@@Z$0:
  00000	ff 75 0c	 push	 DWORD PTR __Pdest$[ebp]
  00003	ff 75 f0	 push	 DWORD PTR $T557964[ebp]
  00006	e8 00 00 00 00	 call	 ??3@YAXPAX0@Z		; operator delete
  0000b	59		 pop	 ecx
  0000c	59		 pop	 ecx
  0000d	c3		 ret	 0
__ehhandler$??$_Cons_val@V?$allocator@UtagBaseCharHP@@@std@@UtagBaseCharHP@@U3@@std@@YAXAAV?$allocator@UtagBaseCharHP@@@0@PAUtagBaseCharHP@@$$QAU2@@Z:
  0000e	8b 54 24 08	 mov	 edx, DWORD PTR [esp+8]
  00012	8d 42 0c	 lea	 eax, DWORD PTR [edx+12]
  00015	8b 4a ec	 mov	 ecx, DWORD PTR [edx-20]
  00018	33 c8		 xor	 ecx, eax
  0001a	e8 00 00 00 00	 call	 @__security_check_cookie@4
  0001f	b8 00 00 00 00	 mov	 eax, OFFSET __ehfuncinfo$??$_Cons_val@V?$allocator@UtagBaseCharHP@@@std@@UtagBaseCharHP@@U3@@std@@YAXAAV?$allocator@UtagBaseCharHP@@@0@PAUtagBaseCharHP@@$$QAU2@@Z
  00024	e9 00 00 00 00	 jmp	 ___CxxFrameHandler3
text$x	ENDS
??$_Cons_val@V?$allocator@UtagBaseCharHP@@@std@@UtagBaseCharHP@@U3@@std@@YAXAAV?$allocator@UtagBaseCharHP@@@0@PAUtagBaseCharHP@@$$QAU2@@Z ENDP ; std::_Cons_val<std::allocator<tagBaseCharHP>,tagBaseCharHP,tagBaseCharHP>
PUBLIC	?construct@?$allocator@UWeaponInfo@@@std@@QAEXPAUWeaponInfo@@ABU3@@Z ; std::allocator<WeaponInfo>::construct
; Function compile flags: /Ogsp
;	COMDAT ?construct@?$allocator@UWeaponInfo@@@std@@QAEXPAUWeaponInfo@@ABU3@@Z
_TEXT	SEGMENT
__Ptr$ = 8						; size = 4
__Val$ = 12						; size = 4
?construct@?$allocator@UWeaponInfo@@@std@@QAEXPAUWeaponInfo@@ABU3@@Z PROC ; std::allocator<WeaponInfo>::construct, COMDAT
; _this$ = ecx

; 196  : 		{	// construct object at _Ptr with value _Val

  00000	55		 push	 ebp
  00001	8b ec		 mov	 ebp, esp

; 197  : 		_Construct(_Ptr, _Val);

  00003	ff 75 0c	 push	 DWORD PTR __Val$[ebp]
  00006	ff 75 08	 push	 DWORD PTR __Ptr$[ebp]
  00009	e8 00 00 00 00	 call	 ??$_Construct@UWeaponInfo@@ABU1@@std@@YAXPAUWeaponInfo@@ABU1@@Z ; std::_Construct<WeaponInfo,WeaponInfo const &>
  0000e	59		 pop	 ecx
  0000f	59		 pop	 ecx

; 198  : 		}

  00010	5d		 pop	 ebp
  00011	c2 08 00	 ret	 8
?construct@?$allocator@UWeaponInfo@@@std@@QAEXPAUWeaponInfo@@ABU3@@Z ENDP ; std::allocator<WeaponInfo>::construct
_TEXT	ENDS
PUBLIC	??$_Med3@PAUtagBaseCharHP@@VBaseCharHPSort@@@std@@YAXPAUtagBaseCharHP@@00VBaseCharHPSort@@@Z ; std::_Med3<tagBaseCharHP *,BaseCharHPSort>
; Function compile flags: /Ogsp
; File c:\program files (x86)\microsoft visual studio 10.0\vc\include\algorithm
;	COMDAT ??$_Med3@PAUtagBaseCharHP@@VBaseCharHPSort@@@std@@YAXPAUtagBaseCharHP@@00VBaseCharHPSort@@@Z
_TEXT	SEGMENT
__First$ = 8						; size = 4
__Mid$ = 12						; size = 4
__Last$ = 16						; size = 4
__Pred$ = 20						; size = 1
??$_Med3@PAUtagBaseCharHP@@VBaseCharHPSort@@@std@@YAXPAUtagBaseCharHP@@00VBaseCharHPSort@@@Z PROC ; std::_Med3<tagBaseCharHP *,BaseCharHPSort>, COMDAT

; 3683 : 	{	// sort median of three elements to middle

  00000	55		 push	 ebp
  00001	8b ec		 mov	 ebp, esp
  00003	56		 push	 esi

; 3684 : 	if (_DEBUG_LT_PRED(_Pred, *_Mid, *_First))

  00004	8b 75 0c	 mov	 esi, DWORD PTR __Mid$[ebp]
  00007	80 7e 14 00	 cmp	 BYTE PTR [esi+20], 0
  0000b	57		 push	 edi
  0000c	8b 7d 08	 mov	 edi, DWORD PTR __First$[ebp]
  0000f	75 1f		 jne	 SHORT $LN10@Med3
  00011	f3 0f 10 46 10	 movss	 xmm0, DWORD PTR [esi+16]
  00016	f3 0f 10 4f 10	 movss	 xmm1, DWORD PTR [edi+16]
  0001b	0f 5a c0	 cvtps2pd xmm0, xmm0
  0001e	0f 5a c9	 cvtps2pd xmm1, xmm1
  00021	66 0f 2f c8	 comisd	 xmm1, xmm0
  00025	76 09		 jbe	 SHORT $LN10@Med3

; 3685 : 		_STD iter_swap(_Mid, _First);

  00027	57		 push	 edi
  00028	56		 push	 esi
  00029	e8 00 00 00 00	 call	 ??$swap@UtagBaseCharHP@@@std@@YAXAAUtagBaseCharHP@@0@Z ; std::swap<tagBaseCharHP>
  0002e	59		 pop	 ecx
  0002f	59		 pop	 ecx
$LN10@Med3:

; 3686 : 	if (_DEBUG_LT_PRED(_Pred, *_Last, *_Mid))

  00030	8b 45 10	 mov	 eax, DWORD PTR __Last$[ebp]
  00033	80 78 14 00	 cmp	 BYTE PTR [eax+20], 0
  00037	75 1f		 jne	 SHORT $LN16@Med3
  00039	f3 0f 10 40 10	 movss	 xmm0, DWORD PTR [eax+16]
  0003e	f3 0f 10 4e 10	 movss	 xmm1, DWORD PTR [esi+16]
  00043	0f 5a c0	 cvtps2pd xmm0, xmm0
  00046	0f 5a c9	 cvtps2pd xmm1, xmm1
  00049	66 0f 2f c8	 comisd	 xmm1, xmm0
  0004d	76 09		 jbe	 SHORT $LN16@Med3

; 3687 : 		_STD iter_swap(_Last, _Mid);

  0004f	56		 push	 esi
  00050	50		 push	 eax
  00051	e8 00 00 00 00	 call	 ??$swap@UtagBaseCharHP@@@std@@YAXAAUtagBaseCharHP@@0@Z ; std::swap<tagBaseCharHP>
  00056	59		 pop	 ecx
  00057	59		 pop	 ecx
$LN16@Med3:

; 3688 : 	if (_DEBUG_LT_PRED(_Pred, *_Mid, *_First))

  00058	80 7e 14 00	 cmp	 BYTE PTR [esi+20], 0
  0005c	75 1f		 jne	 SHORT $LN22@Med3
  0005e	f3 0f 10 46 10	 movss	 xmm0, DWORD PTR [esi+16]
  00063	f3 0f 10 4f 10	 movss	 xmm1, DWORD PTR [edi+16]
  00068	0f 5a c0	 cvtps2pd xmm0, xmm0
  0006b	0f 5a c9	 cvtps2pd xmm1, xmm1
  0006e	66 0f 2f c8	 comisd	 xmm1, xmm0
  00072	76 09		 jbe	 SHORT $LN22@Med3

; 3689 : 		_STD iter_swap(_Mid, _First);

  00074	57		 push	 edi
  00075	56		 push	 esi
  00076	e8 00 00 00 00	 call	 ??$swap@UtagBaseCharHP@@@std@@YAXAAUtagBaseCharHP@@0@Z ; std::swap<tagBaseCharHP>
  0007b	59		 pop	 ecx
  0007c	59		 pop	 ecx
$LN22@Med3:
  0007d	5f		 pop	 edi
  0007e	5e		 pop	 esi

; 3690 : 	}

  0007f	5d		 pop	 ebp
  00080	c3		 ret	 0
??$_Med3@PAUtagBaseCharHP@@VBaseCharHPSort@@@std@@YAXPAUtagBaseCharHP@@00VBaseCharHPSort@@@Z ENDP ; std::_Med3<tagBaseCharHP *,BaseCharHPSort>
_TEXT	ENDS
PUBLIC	??$_Adjust_heap@PAUtagBaseCharHP@@HU1@VBaseCharHPSort@@@std@@YAXPAUtagBaseCharHP@@HH$$QAU1@VBaseCharHPSort@@@Z ; std::_Adjust_heap<tagBaseCharHP *,int,tagBaseCharHP,BaseCharHPSort>
; Function compile flags: /Ogsp
;	COMDAT ??$_Adjust_heap@PAUtagBaseCharHP@@HU1@VBaseCharHPSort@@@std@@YAXPAUtagBaseCharHP@@HH$$QAU1@VBaseCharHPSort@@@Z
_TEXT	SEGMENT
__First$ = 8						; size = 4
__Top$ = 12						; size = 4
__Hole$ = 12						; size = 4
__Bottom$ = 16						; size = 4
__Val$ = 20						; size = 4
__Pred$ = 24						; size = 1
??$_Adjust_heap@PAUtagBaseCharHP@@HU1@VBaseCharHPSort@@@std@@YAXPAUtagBaseCharHP@@HH$$QAU1@VBaseCharHPSort@@@Z PROC ; std::_Adjust_heap<tagBaseCharHP *,int,tagBaseCharHP,BaseCharHPSort>, COMDAT

; 2565 : 	{	// percolate _Hole to _Bottom, then push _Val, using _Pred

  00000	55		 push	 ebp
  00001	8b ec		 mov	 ebp, esp

; 2566 : 	_Diff _Top = _Hole;

  00003	8b 4d 0c	 mov	 ecx, DWORD PTR __Hole$[ebp]
  00006	53		 push	 ebx

; 2567 : 	_Diff _Idx = 2 * _Hole + 2;
; 2568 : 
; 2569 : 	for (; _Idx < _Bottom; _Idx = 2 * _Idx + 2)

  00007	8b 5d 10	 mov	 ebx, DWORD PTR __Bottom$[ebp]
  0000a	56		 push	 esi
  0000b	57		 push	 edi
  0000c	8b 7d 08	 mov	 edi, DWORD PTR __First$[ebp]
  0000f	89 4d 0c	 mov	 DWORD PTR __Top$[ebp], ecx
  00012	8d 74 09 02	 lea	 esi, DWORD PTR [ecx+ecx+2]
  00016	eb 3d		 jmp	 SHORT $LN21@Adjust_hea
$LL5@Adjust_hea:

; 2570 : 		{	// move _Hole down to larger child
; 2571 : 		if (_DEBUG_LT_PRED(_Pred, *(_First + _Idx), *(_First + (_Idx - 1))))

  00018	8b c6		 mov	 eax, esi
  0001a	6b c0 18	 imul	 eax, 24			; 00000018H
  0001d	80 7c 38 14 00	 cmp	 BYTE PTR [eax+edi+20], 0
  00022	75 19		 jne	 SHORT $LN2@Adjust_hea
  00024	f3 0f 10 44 38
	10		 movss	 xmm0, DWORD PTR [eax+edi+16]
  0002a	f3 0f 10 4c 38
	f8		 movss	 xmm1, DWORD PTR [eax+edi-8]
  00030	0f 5a c0	 cvtps2pd xmm0, xmm0
  00033	0f 5a c9	 cvtps2pd xmm1, xmm1
  00036	66 0f 2f c8	 comisd	 xmm1, xmm0
  0003a	76 01		 jbe	 SHORT $LN2@Adjust_hea

; 2572 : 			--_Idx;

  0003c	4e		 dec	 esi
$LN2@Adjust_hea:

; 2573 : 		*(_First + _Hole) = _Move(*(_First + _Idx));

  0003d	8b c6		 mov	 eax, esi
  0003f	6b c9 18	 imul	 ecx, 24			; 00000018H
  00042	6b c0 18	 imul	 eax, 24			; 00000018H
  00045	03 c7		 add	 eax, edi
  00047	50		 push	 eax
  00048	03 cf		 add	 ecx, edi
  0004a	e8 00 00 00 00	 call	 ??4tagBaseCharHP@@QAEAAU0@ABU0@@Z

; 2574 : 		_Hole = _Idx;

  0004f	8b ce		 mov	 ecx, esi
  00051	8d 74 36 02	 lea	 esi, DWORD PTR [esi+esi+2]
$LN21@Adjust_hea:

; 2567 : 	_Diff _Idx = 2 * _Hole + 2;
; 2568 : 
; 2569 : 	for (; _Idx < _Bottom; _Idx = 2 * _Idx + 2)

  00055	3b f3		 cmp	 esi, ebx
  00057	7c bf		 jl	 SHORT $LL5@Adjust_hea

; 2575 : 		}
; 2576 : 
; 2577 : 	if (_Idx == _Bottom)

  00059	75 17		 jne	 SHORT $LN1@Adjust_hea

; 2578 : 		{	// only child at bottom, move _Hole down to it
; 2579 : 		*(_First + _Hole) = _Move(*(_First + (_Bottom - 1)));

  0005b	8b c3		 mov	 eax, ebx
  0005d	6b c9 18	 imul	 ecx, 24			; 00000018H
  00060	6b c0 18	 imul	 eax, 24			; 00000018H
  00063	8d 44 38 e8	 lea	 eax, DWORD PTR [eax+edi-24]
  00067	50		 push	 eax
  00068	03 cf		 add	 ecx, edi
  0006a	e8 00 00 00 00	 call	 ??4tagBaseCharHP@@QAEAAU0@ABU0@@Z

; 2580 : 		_Hole = _Bottom - 1;

  0006f	8d 4b ff	 lea	 ecx, DWORD PTR [ebx-1]
$LN1@Adjust_hea:

; 2581 : 		}
; 2582 : 	_Push_heap(_First, _Hole, _Top, _Move(_Val), _Pred);

  00072	ff 75 18	 push	 DWORD PTR __Pred$[ebp]
  00075	ff 75 14	 push	 DWORD PTR __Val$[ebp]
  00078	ff 75 0c	 push	 DWORD PTR __Top$[ebp]
  0007b	51		 push	 ecx
  0007c	57		 push	 edi
  0007d	e8 00 00 00 00	 call	 ??$_Push_heap@PAUtagBaseCharHP@@HU1@VBaseCharHPSort@@@std@@YAXPAUtagBaseCharHP@@HH$$QAU1@VBaseCharHPSort@@@Z ; std::_Push_heap<tagBaseCharHP *,int,tagBaseCharHP,BaseCharHPSort>
  00082	83 c4 14	 add	 esp, 20			; 00000014H
  00085	5f		 pop	 edi
  00086	5e		 pop	 esi
  00087	5b		 pop	 ebx

; 2583 : 	}

  00088	5d		 pop	 ebp
  00089	c3		 ret	 0
??$_Adjust_heap@PAUtagBaseCharHP@@HU1@VBaseCharHPSort@@@std@@YAXPAUtagBaseCharHP@@HH$$QAU1@VBaseCharHPSort@@@Z ENDP ; std::_Adjust_heap<tagBaseCharHP *,int,tagBaseCharHP,BaseCharHPSort>
_TEXT	ENDS
PUBLIC	??$_Pop_heap@PAUtagBaseCharHP@@HU1@VBaseCharHPSort@@@std@@YAXPAUtagBaseCharHP@@00$$QAU1@VBaseCharHPSort@@PAH@Z ; std::_Pop_heap<tagBaseCharHP *,int,tagBaseCharHP,BaseCharHPSort>
; Function compile flags: /Ogsp
;	COMDAT ??$_Pop_heap@PAUtagBaseCharHP@@HU1@VBaseCharHPSort@@@std@@YAXPAUtagBaseCharHP@@00$$QAU1@VBaseCharHPSort@@PAH@Z
_TEXT	SEGMENT
__First$ = 8						; size = 4
__Last$ = 12						; size = 4
__Dest$ = 16						; size = 4
__Val$ = 20						; size = 4
__Pred$ = 24						; size = 1
___formal$ = 28						; size = 4
??$_Pop_heap@PAUtagBaseCharHP@@HU1@VBaseCharHPSort@@@std@@YAXPAUtagBaseCharHP@@00$$QAU1@VBaseCharHPSort@@PAH@Z PROC ; std::_Pop_heap<tagBaseCharHP *,int,tagBaseCharHP,BaseCharHPSort>, COMDAT

; 2591 : 	{	// pop *_First to *_Dest and reheap, using _Pred

  00000	55		 push	 ebp
  00001	8b ec		 mov	 ebp, esp

; 2592 : 	*_Dest = _Move(*_First);

  00003	ff 75 08	 push	 DWORD PTR __First$[ebp]
  00006	8b 4d 10	 mov	 ecx, DWORD PTR __Dest$[ebp]
  00009	e8 00 00 00 00	 call	 ??4tagBaseCharHP@@QAEAAU0@ABU0@@Z

; 2593 : 	_Adjust_heap(_First, _Diff(0), _Diff(_Last - _First),
; 2594 : 		_Move(_Val), _Pred);

  0000e	ff 75 18	 push	 DWORD PTR __Pred$[ebp]
  00011	8b 45 0c	 mov	 eax, DWORD PTR __Last$[ebp]
  00014	ff 75 14	 push	 DWORD PTR __Val$[ebp]
  00017	2b 45 08	 sub	 eax, DWORD PTR __First$[ebp]
  0001a	6a 18		 push	 24			; 00000018H
  0001c	59		 pop	 ecx
  0001d	99		 cdq
  0001e	f7 f9		 idiv	 ecx
  00020	50		 push	 eax
  00021	6a 00		 push	 0
  00023	ff 75 08	 push	 DWORD PTR __First$[ebp]
  00026	e8 00 00 00 00	 call	 ??$_Adjust_heap@PAUtagBaseCharHP@@HU1@VBaseCharHPSort@@@std@@YAXPAUtagBaseCharHP@@HH$$QAU1@VBaseCharHPSort@@@Z ; std::_Adjust_heap<tagBaseCharHP *,int,tagBaseCharHP,BaseCharHPSort>
  0002b	83 c4 14	 add	 esp, 20			; 00000014H

; 2595 : 	}

  0002e	5d		 pop	 ebp
  0002f	c3		 ret	 0
??$_Pop_heap@PAUtagBaseCharHP@@HU1@VBaseCharHPSort@@@std@@YAXPAUtagBaseCharHP@@00$$QAU1@VBaseCharHPSort@@PAH@Z ENDP ; std::_Pop_heap<tagBaseCharHP *,int,tagBaseCharHP,BaseCharHPSort>
_TEXT	ENDS
PUBLIC	?GetTeam@ioPlayEntity@@QBE?AW4TeamType@@XZ	; ioPlayEntity::GetTeam
; Function compile flags: /Ogsp
; File d:\lost saga for developer\youtube\tutorial\source\src\lsclient\ioplayentity.h
;	COMDAT ?GetTeam@ioPlayEntity@@QBE?AW4TeamType@@XZ
_TEXT	SEGMENT
_value$558045 = -4					; size = 4
?GetTeam@ioPlayEntity@@QBE?AW4TeamType@@XZ PROC		; ioPlayEntity::GetTeam, COMDAT
; _this$ = ecx

; 107  : 	inline TeamType GetTeam() const { return m_TeamType; }

  00000	55		 push	 ebp
  00001	8b ec		 mov	 ebp, esp
  00003	51		 push	 ecx
  00004	8d 45 fc	 lea	 eax, DWORD PTR _value$558045[ebp]
  00007	50		 push	 eax
  00008	81 c1 90 00 00
	00		 add	 ecx, 144		; 00000090H
  0000e	e8 00 00 00 00	 call	 ?DecryptValueToPool@?$CEncrypt@W4TeamType@@@@QAEXPAW4TeamType@@@Z ; CEncrypt<enum TeamType>::DecryptValueToPool
  00013	8b 45 fc	 mov	 eax, DWORD PTR _value$558045[ebp]
  00016	c9		 leave
  00017	c3		 ret	 0
?GetTeam@ioPlayEntity@@QBE?AW4TeamType@@XZ ENDP		; ioPlayEntity::GetTeam
_TEXT	ENDS
PUBLIC	??0?$vector@UWeaponInfo@@V?$allocator@UWeaponInfo@@@std@@@std@@QAE@XZ ; std::vector<WeaponInfo,std::allocator<WeaponInfo> >::vector<WeaponInfo,std::allocator<WeaponInfo> >
; Function compile flags: /Ogsp
; File c:\program files (x86)\microsoft visual studio 10.0\vc\include\vector
;	COMDAT ??0?$vector@UWeaponInfo@@V?$allocator@UWeaponInfo@@@std@@@std@@QAE@XZ
_TEXT	SEGMENT
??0?$vector@UWeaponInfo@@V?$allocator@UWeaponInfo@@@std@@@std@@QAE@XZ PROC ; std::vector<WeaponInfo,std::allocator<WeaponInfo> >::vector<WeaponInfo,std::allocator<WeaponInfo> >, COMDAT
; _this$ = ecx

; 507  : 		{	// construct empty vector

  00000	8b c1		 mov	 eax, ecx
  00002	33 c9		 xor	 ecx, ecx
  00004	89 08		 mov	 DWORD PTR [eax], ecx
  00006	89 48 04	 mov	 DWORD PTR [eax+4], ecx
  00009	89 48 08	 mov	 DWORD PTR [eax+8], ecx

; 508  : 		}

  0000c	c3		 ret	 0
??0?$vector@UWeaponInfo@@V?$allocator@UWeaponInfo@@@std@@@std@@QAE@XZ ENDP ; std::vector<WeaponInfo,std::allocator<WeaponInfo> >::vector<WeaponInfo,std::allocator<WeaponInfo> >
_TEXT	ENDS
PUBLIC	??0?$vector@UForceInfo@@V?$allocator@UForceInfo@@@std@@@std@@QAE@XZ ; std::vector<ForceInfo,std::allocator<ForceInfo> >::vector<ForceInfo,std::allocator<ForceInfo> >
; Function compile flags: /Ogsp
;	COMDAT ??0?$vector@UForceInfo@@V?$allocator@UForceInfo@@@std@@@std@@QAE@XZ
_TEXT	SEGMENT
??0?$vector@UForceInfo@@V?$allocator@UForceInfo@@@std@@@std@@QAE@XZ PROC ; std::vector<ForceInfo,std::allocator<ForceInfo> >::vector<ForceInfo,std::allocator<ForceInfo> >, COMDAT
; _this$ = ecx

; 507  : 		{	// construct empty vector

  00000	8b c1		 mov	 eax, ecx
  00002	33 c9		 xor	 ecx, ecx
  00004	89 08		 mov	 DWORD PTR [eax], ecx
  00006	89 48 04	 mov	 DWORD PTR [eax+4], ecx
  00009	89 48 08	 mov	 DWORD PTR [eax+8], ecx

; 508  : 		}

  0000c	c3		 ret	 0
??0?$vector@UForceInfo@@V?$allocator@UForceInfo@@@std@@@std@@QAE@XZ ENDP ; std::vector<ForceInfo,std::allocator<ForceInfo> >::vector<ForceInfo,std::allocator<ForceInfo> >
_TEXT	ENDS
PUBLIC	?_Buy@?$vector@UWeaponInfo@@V?$allocator@UWeaponInfo@@@std@@@std@@IAE_NI@Z ; std::vector<WeaponInfo,std::allocator<WeaponInfo> >::_Buy
; Function compile flags: /Ogsp
;	COMDAT ?_Buy@?$vector@UWeaponInfo@@V?$allocator@UWeaponInfo@@@std@@@std@@IAE_NI@Z
_TEXT	SEGMENT
__Capacity$ = 8						; size = 4
?_Buy@?$vector@UWeaponInfo@@V?$allocator@UWeaponInfo@@@std@@@std@@IAE_NI@Z PROC ; std::vector<WeaponInfo,std::allocator<WeaponInfo> >::_Buy, COMDAT
; _this$ = ecx

; 1250 : 		{	// allocate array with _Capacity elements

  00000	55		 push	 ebp
  00001	8b ec		 mov	 ebp, esp
  00003	56		 push	 esi

; 1251 : 		this->_Myfirst = 0;

  00004	33 c0		 xor	 eax, eax
  00006	57		 push	 edi

; 1252 : 		this->_Mylast = 0;
; 1253 : 		this->_Myend = 0;
; 1254 : 
; 1255 : 		if (_Capacity == 0)

  00007	8b 7d 08	 mov	 edi, DWORD PTR __Capacity$[ebp]
  0000a	8b f1		 mov	 esi, ecx
  0000c	89 06		 mov	 DWORD PTR [esi], eax
  0000e	89 46 04	 mov	 DWORD PTR [esi+4], eax
  00011	89 46 08	 mov	 DWORD PTR [esi+8], eax
  00014	3b f8		 cmp	 edi, eax
  00016	75 04		 jne	 SHORT $LN4@Buy

; 1256 : 			return (false);

  00018	32 c0		 xor	 al, al
  0001a	eb 2b		 jmp	 SHORT $LN5@Buy
$LN4@Buy:

; 1257 : 		else if (max_size() < _Capacity)

  0001c	81 ff 66 66 66
	06		 cmp	 edi, 107374182		; 06666666H
  00022	76 0b		 jbe	 SHORT $LN2@Buy

; 1258 : 			_Xlen();	// result too long

  00024	68 00 00 00 00	 push	 OFFSET ??_C@_0BD@OLBABOEK@vector?$DMT?$DO?5too?5long?$AA@
  00029	ff 15 00 00 00
	00		 call	 DWORD PTR __imp_?_Xlength_error@std@@YAXPBD@Z
$LN19@Buy:
$LN2@Buy:

; 1259 : 		else
; 1260 : 			{	// nonempty array, allocate storage
; 1261 : 			this->_Myfirst = this->_Alval.allocate(_Capacity);

  0002f	50		 push	 eax
  00030	57		 push	 edi
  00031	e8 00 00 00 00	 call	 ??$_Allocate@UWeaponInfo@@@std@@YAPAUWeaponInfo@@IPAU1@@Z ; std::_Allocate<WeaponInfo>

; 1262 : 			this->_Mylast = this->_Myfirst;
; 1263 : 			this->_Myend = this->_Myfirst + _Capacity;

  00036	6b ff 28	 imul	 edi, 40			; 00000028H
  00039	03 f8		 add	 edi, eax
  0003b	59		 pop	 ecx
  0003c	89 06		 mov	 DWORD PTR [esi], eax
  0003e	89 46 04	 mov	 DWORD PTR [esi+4], eax
  00041	59		 pop	 ecx
  00042	89 7e 08	 mov	 DWORD PTR [esi+8], edi

; 1264 : 			}
; 1265 : 		return (true);

  00045	b0 01		 mov	 al, 1
$LN5@Buy:
  00047	5f		 pop	 edi
  00048	5e		 pop	 esi

; 1266 : 		}

  00049	5d		 pop	 ebp
  0004a	c2 04 00	 ret	 4
$LN18@Buy:
?_Buy@?$vector@UWeaponInfo@@V?$allocator@UWeaponInfo@@@std@@@std@@IAE_NI@Z ENDP ; std::vector<WeaponInfo,std::allocator<WeaponInfo> >::_Buy
_TEXT	ENDS
PUBLIC	?_Buy@?$vector@UForceInfo@@V?$allocator@UForceInfo@@@std@@@std@@IAE_NI@Z ; std::vector<ForceInfo,std::allocator<ForceInfo> >::_Buy
; Function compile flags: /Ogsp
;	COMDAT ?_Buy@?$vector@UForceInfo@@V?$allocator@UForceInfo@@@std@@@std@@IAE_NI@Z
_TEXT	SEGMENT
__Capacity$ = 8						; size = 4
?_Buy@?$vector@UForceInfo@@V?$allocator@UForceInfo@@@std@@@std@@IAE_NI@Z PROC ; std::vector<ForceInfo,std::allocator<ForceInfo> >::_Buy, COMDAT
; _this$ = ecx

; 1250 : 		{	// allocate array with _Capacity elements

  00000	55		 push	 ebp
  00001	8b ec		 mov	 ebp, esp
  00003	56		 push	 esi

; 1251 : 		this->_Myfirst = 0;

  00004	33 c0		 xor	 eax, eax
  00006	57		 push	 edi

; 1252 : 		this->_Mylast = 0;
; 1253 : 		this->_Myend = 0;
; 1254 : 
; 1255 : 		if (_Capacity == 0)

  00007	8b 7d 08	 mov	 edi, DWORD PTR __Capacity$[ebp]
  0000a	8b f1		 mov	 esi, ecx
  0000c	89 06		 mov	 DWORD PTR [esi], eax
  0000e	89 46 04	 mov	 DWORD PTR [esi+4], eax
  00011	89 46 08	 mov	 DWORD PTR [esi+8], eax
  00014	3b f8		 cmp	 edi, eax
  00016	75 04		 jne	 SHORT $LN4@Buy@2

; 1256 : 			return (false);

  00018	32 c0		 xor	 al, al
  0001a	eb 2b		 jmp	 SHORT $LN5@Buy@2
$LN4@Buy@2:

; 1257 : 		else if (max_size() < _Capacity)

  0001c	81 ff 55 55 55
	15		 cmp	 edi, 357913941		; 15555555H
  00022	76 0b		 jbe	 SHORT $LN2@Buy@2

; 1258 : 			_Xlen();	// result too long

  00024	68 00 00 00 00	 push	 OFFSET ??_C@_0BD@OLBABOEK@vector?$DMT?$DO?5too?5long?$AA@
  00029	ff 15 00 00 00
	00		 call	 DWORD PTR __imp_?_Xlength_error@std@@YAXPBD@Z
$LN19@Buy@2:
$LN2@Buy@2:

; 1259 : 		else
; 1260 : 			{	// nonempty array, allocate storage
; 1261 : 			this->_Myfirst = this->_Alval.allocate(_Capacity);

  0002f	50		 push	 eax
  00030	57		 push	 edi
  00031	e8 00 00 00 00	 call	 ??$_Allocate@UForceInfo@@@std@@YAPAUForceInfo@@IPAU1@@Z ; std::_Allocate<ForceInfo>

; 1262 : 			this->_Mylast = this->_Myfirst;
; 1263 : 			this->_Myend = this->_Myfirst + _Capacity;

  00036	6b ff 0c	 imul	 edi, 12			; 0000000cH
  00039	03 f8		 add	 edi, eax
  0003b	59		 pop	 ecx
  0003c	89 06		 mov	 DWORD PTR [esi], eax
  0003e	89 46 04	 mov	 DWORD PTR [esi+4], eax
  00041	59		 pop	 ecx
  00042	89 7e 08	 mov	 DWORD PTR [esi+8], edi

; 1264 : 			}
; 1265 : 		return (true);

  00045	b0 01		 mov	 al, 1
$LN5@Buy@2:
  00047	5f		 pop	 edi
  00048	5e		 pop	 esi

; 1266 : 		}

  00049	5d		 pop	 ebp
  0004a	c2 04 00	 ret	 4
$LN18@Buy@2:
?_Buy@?$vector@UForceInfo@@V?$allocator@UForceInfo@@@std@@@std@@IAE_NI@Z ENDP ; std::vector<ForceInfo,std::allocator<ForceInfo> >::_Buy
_TEXT	ENDS
PUBLIC	?begin@?$vector@UWeaponInfo@@V?$allocator@UWeaponInfo@@@std@@@std@@QAE?AV?$_Vector_iterator@V?$_Vector_val@UWeaponInfo@@V?$allocator@UWeaponInfo@@@std@@@std@@@2@XZ ; std::vector<WeaponInfo,std::allocator<WeaponInfo> >::begin
; Function compile flags: /Ogsp
;	COMDAT ?begin@?$vector@UWeaponInfo@@V?$allocator@UWeaponInfo@@@std@@@std@@QAE?AV?$_Vector_iterator@V?$_Vector_val@UWeaponInfo@@V?$allocator@UWeaponInfo@@@std@@@std@@@2@XZ
_TEXT	SEGMENT
___$ReturnUdt$ = 8					; size = 4
?begin@?$vector@UWeaponInfo@@V?$allocator@UWeaponInfo@@@std@@@std@@QAE?AV?$_Vector_iterator@V?$_Vector_val@UWeaponInfo@@V?$allocator@UWeaponInfo@@@std@@@std@@@2@XZ PROC ; std::vector<WeaponInfo,std::allocator<WeaponInfo> >::begin, COMDAT
; _this$ = ecx

; 781  : 		{	// return iterator for beginning of mutable sequence

  00000	55		 push	 ebp
  00001	8b ec		 mov	 ebp, esp

; 782  : 		return (iterator(this->_Myfirst, this));

  00003	8b 09		 mov	 ecx, DWORD PTR [ecx]
  00005	8b 45 08	 mov	 eax, DWORD PTR ___$ReturnUdt$[ebp]
  00008	89 08		 mov	 DWORD PTR [eax], ecx

; 783  : 		}

  0000a	5d		 pop	 ebp
  0000b	c2 04 00	 ret	 4
?begin@?$vector@UWeaponInfo@@V?$allocator@UWeaponInfo@@@std@@@std@@QAE?AV?$_Vector_iterator@V?$_Vector_val@UWeaponInfo@@V?$allocator@UWeaponInfo@@@std@@@std@@@2@XZ ENDP ; std::vector<WeaponInfo,std::allocator<WeaponInfo> >::begin
_TEXT	ENDS
PUBLIC	?end@?$vector@UWeaponInfo@@V?$allocator@UWeaponInfo@@@std@@@std@@QAE?AV?$_Vector_iterator@V?$_Vector_val@UWeaponInfo@@V?$allocator@UWeaponInfo@@@std@@@std@@@2@XZ ; std::vector<WeaponInfo,std::allocator<WeaponInfo> >::end
; Function compile flags: /Ogsp
;	COMDAT ?end@?$vector@UWeaponInfo@@V?$allocator@UWeaponInfo@@@std@@@std@@QAE?AV?$_Vector_iterator@V?$_Vector_val@UWeaponInfo@@V?$allocator@UWeaponInfo@@@std@@@std@@@2@XZ
_TEXT	SEGMENT
___$ReturnUdt$ = 8					; size = 4
?end@?$vector@UWeaponInfo@@V?$allocator@UWeaponInfo@@@std@@@std@@QAE?AV?$_Vector_iterator@V?$_Vector_val@UWeaponInfo@@V?$allocator@UWeaponInfo@@@std@@@std@@@2@XZ PROC ; std::vector<WeaponInfo,std::allocator<WeaponInfo> >::end, COMDAT
; _this$ = ecx

; 791  : 		{	// return iterator for end of mutable sequence

  00000	55		 push	 ebp
  00001	8b ec		 mov	 ebp, esp

; 792  : 		return (iterator(this->_Mylast, this));

  00003	8b 49 04	 mov	 ecx, DWORD PTR [ecx+4]
  00006	8b 45 08	 mov	 eax, DWORD PTR ___$ReturnUdt$[ebp]
  00009	89 08		 mov	 DWORD PTR [eax], ecx

; 793  : 		}

  0000b	5d		 pop	 ebp
  0000c	c2 04 00	 ret	 4
?end@?$vector@UWeaponInfo@@V?$allocator@UWeaponInfo@@@std@@@std@@QAE?AV?$_Vector_iterator@V?$_Vector_val@UWeaponInfo@@V?$allocator@UWeaponInfo@@@std@@@std@@@2@XZ ENDP ; std::vector<WeaponInfo,std::allocator<WeaponInfo> >::end
_TEXT	ENDS
PUBLIC	?begin@?$vector@UForceInfo@@V?$allocator@UForceInfo@@@std@@@std@@QAE?AV?$_Vector_iterator@V?$_Vector_val@UForceInfo@@V?$allocator@UForceInfo@@@std@@@std@@@2@XZ ; std::vector<ForceInfo,std::allocator<ForceInfo> >::begin
; Function compile flags: /Ogsp
;	COMDAT ?begin@?$vector@UForceInfo@@V?$allocator@UForceInfo@@@std@@@std@@QAE?AV?$_Vector_iterator@V?$_Vector_val@UForceInfo@@V?$allocator@UForceInfo@@@std@@@std@@@2@XZ
_TEXT	SEGMENT
___$ReturnUdt$ = 8					; size = 4
?begin@?$vector@UForceInfo@@V?$allocator@UForceInfo@@@std@@@std@@QAE?AV?$_Vector_iterator@V?$_Vector_val@UForceInfo@@V?$allocator@UForceInfo@@@std@@@std@@@2@XZ PROC ; std::vector<ForceInfo,std::allocator<ForceInfo> >::begin, COMDAT
; _this$ = ecx

; 781  : 		{	// return iterator for beginning of mutable sequence

  00000	55		 push	 ebp
  00001	8b ec		 mov	 ebp, esp

; 782  : 		return (iterator(this->_Myfirst, this));

  00003	8b 09		 mov	 ecx, DWORD PTR [ecx]
  00005	8b 45 08	 mov	 eax, DWORD PTR ___$ReturnUdt$[ebp]
  00008	89 08		 mov	 DWORD PTR [eax], ecx

; 783  : 		}

  0000a	5d		 pop	 ebp
  0000b	c2 04 00	 ret	 4
?begin@?$vector@UForceInfo@@V?$allocator@UForceInfo@@@std@@@std@@QAE?AV?$_Vector_iterator@V?$_Vector_val@UForceInfo@@V?$allocator@UForceInfo@@@std@@@std@@@2@XZ ENDP ; std::vector<ForceInfo,std::allocator<ForceInfo> >::begin
_TEXT	ENDS
PUBLIC	?end@?$vector@UForceInfo@@V?$allocator@UForceInfo@@@std@@@std@@QAE?AV?$_Vector_iterator@V?$_Vector_val@UForceInfo@@V?$allocator@UForceInfo@@@std@@@std@@@2@XZ ; std::vector<ForceInfo,std::allocator<ForceInfo> >::end
; Function compile flags: /Ogsp
;	COMDAT ?end@?$vector@UForceInfo@@V?$allocator@UForceInfo@@@std@@@std@@QAE?AV?$_Vector_iterator@V?$_Vector_val@UForceInfo@@V?$allocator@UForceInfo@@@std@@@std@@@2@XZ
_TEXT	SEGMENT
___$ReturnUdt$ = 8					; size = 4
?end@?$vector@UForceInfo@@V?$allocator@UForceInfo@@@std@@@std@@QAE?AV?$_Vector_iterator@V?$_Vector_val@UForceInfo@@V?$allocator@UForceInfo@@@std@@@std@@@2@XZ PROC ; std::vector<ForceInfo,std::allocator<ForceInfo> >::end, COMDAT
; _this$ = ecx

; 791  : 		{	// return iterator for end of mutable sequence

  00000	55		 push	 ebp
  00001	8b ec		 mov	 ebp, esp

; 792  : 		return (iterator(this->_Mylast, this));

  00003	8b 49 04	 mov	 ecx, DWORD PTR [ecx+4]
  00006	8b 45 08	 mov	 eax, DWORD PTR ___$ReturnUdt$[ebp]
  00009	89 08		 mov	 DWORD PTR [eax], ecx

; 793  : 		}

  0000b	5d		 pop	 ebp
  0000c	c2 04 00	 ret	 4
?end@?$vector@UForceInfo@@V?$allocator@UForceInfo@@@std@@@std@@QAE?AV?$_Vector_iterator@V?$_Vector_val@UForceInfo@@V?$allocator@UForceInfo@@@std@@@std@@@2@XZ ENDP ; std::vector<ForceInfo,std::allocator<ForceInfo> >::end
_TEXT	ENDS
PUBLIC	?_Make_iter@?$vector@UWeaponInfo@@V?$allocator@UWeaponInfo@@@std@@@std@@QBE?AV?$_Vector_iterator@V?$_Vector_val@UWeaponInfo@@V?$allocator@UWeaponInfo@@@std@@@std@@@2@V?$_Vector_const_iterator@V?$_Vector_val@UWeaponInfo@@V?$allocator@UWeaponInfo@@@std@@@std@@@2@@Z ; std::vector<WeaponInfo,std::allocator<WeaponInfo> >::_Make_iter
; Function compile flags: /Ogsp
;	COMDAT ?_Make_iter@?$vector@UWeaponInfo@@V?$allocator@UWeaponInfo@@@std@@@std@@QBE?AV?$_Vector_iterator@V?$_Vector_val@UWeaponInfo@@V?$allocator@UWeaponInfo@@@std@@@std@@@2@V?$_Vector_const_iterator@V?$_Vector_val@UWeaponInfo@@V?$allocator@UWeaponInfo@@@std@@@std@@@2@@Z
_TEXT	SEGMENT
___$ReturnUdt$ = 8					; size = 4
__Where$ = 12						; size = 4
?_Make_iter@?$vector@UWeaponInfo@@V?$allocator@UWeaponInfo@@@std@@@std@@QBE?AV?$_Vector_iterator@V?$_Vector_val@UWeaponInfo@@V?$allocator@UWeaponInfo@@@std@@@std@@@2@V?$_Vector_const_iterator@V?$_Vector_val@UWeaponInfo@@V?$allocator@UWeaponInfo@@@std@@@std@@@2@@Z PROC ; std::vector<WeaponInfo,std::allocator<WeaponInfo> >::_Make_iter, COMDAT
; _this$ = ecx

; 801  : 		{	// make iterator from const_iterator

  00000	55		 push	 ebp
  00001	8b ec		 mov	 ebp, esp

; 802  : 		return (iterator(_Where._Ptr, this));

  00003	8b 45 08	 mov	 eax, DWORD PTR ___$ReturnUdt$[ebp]
  00006	8b 4d 0c	 mov	 ecx, DWORD PTR __Where$[ebp]
  00009	89 08		 mov	 DWORD PTR [eax], ecx

; 803  : 		}

  0000b	5d		 pop	 ebp
  0000c	c2 08 00	 ret	 8
?_Make_iter@?$vector@UWeaponInfo@@V?$allocator@UWeaponInfo@@@std@@@std@@QBE?AV?$_Vector_iterator@V?$_Vector_val@UWeaponInfo@@V?$allocator@UWeaponInfo@@@std@@@std@@@2@V?$_Vector_const_iterator@V?$_Vector_val@UWeaponInfo@@V?$allocator@UWeaponInfo@@@std@@@std@@@2@@Z ENDP ; std::vector<WeaponInfo,std::allocator<WeaponInfo> >::_Make_iter
_TEXT	ENDS
PUBLIC	?_Make_iter@?$vector@UForceInfo@@V?$allocator@UForceInfo@@@std@@@std@@QBE?AV?$_Vector_iterator@V?$_Vector_val@UForceInfo@@V?$allocator@UForceInfo@@@std@@@std@@@2@V?$_Vector_const_iterator@V?$_Vector_val@UForceInfo@@V?$allocator@UForceInfo@@@std@@@std@@@2@@Z ; std::vector<ForceInfo,std::allocator<ForceInfo> >::_Make_iter
; Function compile flags: /Ogsp
;	COMDAT ?_Make_iter@?$vector@UForceInfo@@V?$allocator@UForceInfo@@@std@@@std@@QBE?AV?$_Vector_iterator@V?$_Vector_val@UForceInfo@@V?$allocator@UForceInfo@@@std@@@std@@@2@V?$_Vector_const_iterator@V?$_Vector_val@UForceInfo@@V?$allocator@UForceInfo@@@std@@@std@@@2@@Z
_TEXT	SEGMENT
___$ReturnUdt$ = 8					; size = 4
__Where$ = 12						; size = 4
?_Make_iter@?$vector@UForceInfo@@V?$allocator@UForceInfo@@@std@@@std@@QBE?AV?$_Vector_iterator@V?$_Vector_val@UForceInfo@@V?$allocator@UForceInfo@@@std@@@std@@@2@V?$_Vector_const_iterator@V?$_Vector_val@UForceInfo@@V?$allocator@UForceInfo@@@std@@@std@@@2@@Z PROC ; std::vector<ForceInfo,std::allocator<ForceInfo> >::_Make_iter, COMDAT
; _this$ = ecx

; 801  : 		{	// make iterator from const_iterator

  00000	55		 push	 ebp
  00001	8b ec		 mov	 ebp, esp

; 802  : 		return (iterator(_Where._Ptr, this));

  00003	8b 45 08	 mov	 eax, DWORD PTR ___$ReturnUdt$[ebp]
  00006	8b 4d 0c	 mov	 ecx, DWORD PTR __Where$[ebp]
  00009	89 08		 mov	 DWORD PTR [eax], ecx

; 803  : 		}

  0000b	5d		 pop	 ebp
  0000c	c2 08 00	 ret	 8
?_Make_iter@?$vector@UForceInfo@@V?$allocator@UForceInfo@@@std@@@std@@QBE?AV?$_Vector_iterator@V?$_Vector_val@UForceInfo@@V?$allocator@UForceInfo@@@std@@@std@@@2@V?$_Vector_const_iterator@V?$_Vector_val@UForceInfo@@V?$allocator@UForceInfo@@@std@@@std@@@2@@Z ENDP ; std::vector<ForceInfo,std::allocator<ForceInfo> >::_Make_iter
_TEXT	ENDS
PUBLIC	??9?$_Vector_const_iterator@V?$_Vector_val@UWeaponInfo@@V?$allocator@UWeaponInfo@@@std@@@std@@@std@@QBE_NABV01@@Z ; std::_Vector_const_iterator<std::_Vector_val<WeaponInfo,std::allocator<WeaponInfo> > >::operator!=
; Function compile flags: /Ogsp
;	COMDAT ??9?$_Vector_const_iterator@V?$_Vector_val@UWeaponInfo@@V?$allocator@UWeaponInfo@@@std@@@std@@@std@@QBE_NABV01@@Z
_TEXT	SEGMENT
__Right$ = 8						; size = 4
??9?$_Vector_const_iterator@V?$_Vector_val@UWeaponInfo@@V?$allocator@UWeaponInfo@@@std@@@std@@@std@@QBE_NABV01@@Z PROC ; std::_Vector_const_iterator<std::_Vector_val<WeaponInfo,std::allocator<WeaponInfo> > >::operator!=, COMDAT
; _this$ = ecx

; 207  : 		{	// test for iterator inequality

  00000	55		 push	 ebp
  00001	8b ec		 mov	 ebp, esp

; 208  : 		return (!(*this == _Right));

  00003	8b 01		 mov	 eax, DWORD PTR [ecx]
  00005	8b 55 08	 mov	 edx, DWORD PTR __Right$[ebp]
  00008	33 c9		 xor	 ecx, ecx
  0000a	3b 02		 cmp	 eax, DWORD PTR [edx]
  0000c	0f 95 c0	 setne	 al

; 209  : 		}

  0000f	5d		 pop	 ebp
  00010	c2 04 00	 ret	 4
??9?$_Vector_const_iterator@V?$_Vector_val@UWeaponInfo@@V?$allocator@UWeaponInfo@@@std@@@std@@@std@@QBE_NABV01@@Z ENDP ; std::_Vector_const_iterator<std::_Vector_val<WeaponInfo,std::allocator<WeaponInfo> > >::operator!=
_TEXT	ENDS
PUBLIC	??9?$_Vector_const_iterator@V?$_Vector_val@UForceInfo@@V?$allocator@UForceInfo@@@std@@@std@@@std@@QBE_NABV01@@Z ; std::_Vector_const_iterator<std::_Vector_val<ForceInfo,std::allocator<ForceInfo> > >::operator!=
; Function compile flags: /Ogsp
;	COMDAT ??9?$_Vector_const_iterator@V?$_Vector_val@UForceInfo@@V?$allocator@UForceInfo@@@std@@@std@@@std@@QBE_NABV01@@Z
_TEXT	SEGMENT
__Right$ = 8						; size = 4
??9?$_Vector_const_iterator@V?$_Vector_val@UForceInfo@@V?$allocator@UForceInfo@@@std@@@std@@@std@@QBE_NABV01@@Z PROC ; std::_Vector_const_iterator<std::_Vector_val<ForceInfo,std::allocator<ForceInfo> > >::operator!=, COMDAT
; _this$ = ecx

; 207  : 		{	// test for iterator inequality

  00000	55		 push	 ebp
  00001	8b ec		 mov	 ebp, esp

; 208  : 		return (!(*this == _Right));

  00003	8b 01		 mov	 eax, DWORD PTR [ecx]
  00005	8b 55 08	 mov	 edx, DWORD PTR __Right$[ebp]
  00008	33 c9		 xor	 ecx, ecx
  0000a	3b 02		 cmp	 eax, DWORD PTR [edx]
  0000c	0f 95 c0	 setne	 al

; 209  : 		}

  0000f	5d		 pop	 ebp
  00010	c2 04 00	 ret	 4
??9?$_Vector_const_iterator@V?$_Vector_val@UForceInfo@@V?$allocator@UForceInfo@@@std@@@std@@@std@@QBE_NABV01@@Z ENDP ; std::_Vector_const_iterator<std::_Vector_val<ForceInfo,std::allocator<ForceInfo> > >::operator!=
_TEXT	ENDS
PUBLIC	??$_Dest_val@V?$allocator@UForceInfo@@@std@@UForceInfo@@@std@@YAXAAV?$allocator@UForceInfo@@@0@PAUForceInfo@@@Z ; std::_Dest_val<std::allocator<ForceInfo>,ForceInfo>
; Function compile flags: /Ogsp
; File c:\program files (x86)\microsoft visual studio 10.0\vc\include\xmemory
;	COMDAT ??$_Dest_val@V?$allocator@UForceInfo@@@std@@UForceInfo@@@std@@YAXAAV?$allocator@UForceInfo@@@0@PAUForceInfo@@@Z
_TEXT	SEGMENT
__Alval$ = 8						; size = 4
__Pdest$ = 12						; size = 4
??$_Dest_val@V?$allocator@UForceInfo@@@std@@UForceInfo@@@std@@YAXAAV?$allocator@UForceInfo@@@0@PAUForceInfo@@@Z PROC ; std::_Dest_val<std::allocator<ForceInfo>,ForceInfo>, COMDAT

; 287  : 	_Alval.destroy(_Pdest);
; 288  : 	}

  00000	c3		 ret	 0
??$_Dest_val@V?$allocator@UForceInfo@@@std@@UForceInfo@@@std@@YAXAAV?$allocator@UForceInfo@@@0@PAUForceInfo@@@Z ENDP ; std::_Dest_val<std::allocator<ForceInfo>,ForceInfo>
_TEXT	ENDS
PUBLIC	??$_Copy_impl@PAUWeaponInfo@@PAU1@@std@@YAPAUWeaponInfo@@PAU1@00@Z ; std::_Copy_impl<WeaponInfo *,WeaponInfo *>
; Function compile flags: /Ogsp
; File c:\program files (x86)\microsoft visual studio 10.0\vc\include\xutility
;	COMDAT ??$_Copy_impl@PAUWeaponInfo@@PAU1@@std@@YAPAUWeaponInfo@@PAU1@00@Z
_TEXT	SEGMENT
__Cat$558279 = -4					; size = 1
__First$ = 8						; size = 4
__Last$ = 12						; size = 4
__Dest$ = 16						; size = 4
??$_Copy_impl@PAUWeaponInfo@@PAU1@@std@@YAPAUWeaponInfo@@PAU1@00@Z PROC ; std::_Copy_impl<WeaponInfo *,WeaponInfo *>, COMDAT

; 2163 : 	{	// copy [_First, _Last) to [_Dest, ...)

  00000	55		 push	 ebp
  00001	8b ec		 mov	 ebp, esp
  00003	51		 push	 ecx

; 2164 : 	return (_Copy_impl(_First, _Last,
; 2165 : 		_Dest, _Ptr_cat(_First, _Dest)));

  00004	ff 75 fc	 push	 DWORD PTR __Cat$558279[ebp]
  00007	ff 75 10	 push	 DWORD PTR __Dest$[ebp]
  0000a	ff 75 0c	 push	 DWORD PTR __Last$[ebp]
  0000d	ff 75 08	 push	 DWORD PTR __First$[ebp]
  00010	e8 00 00 00 00	 call	 ??$_Copy_impl@PAUWeaponInfo@@PAU1@@std@@YAPAUWeaponInfo@@PAU1@00U_Nonscalar_ptr_iterator_tag@0@@Z ; std::_Copy_impl<WeaponInfo *,WeaponInfo *>
  00015	83 c4 10	 add	 esp, 16			; 00000010H

; 2166 : 	}

  00018	c9		 leave
  00019	c3		 ret	 0
??$_Copy_impl@PAUWeaponInfo@@PAU1@@std@@YAPAUWeaponInfo@@PAU1@00@Z ENDP ; std::_Copy_impl<WeaponInfo *,WeaponInfo *>
_TEXT	ENDS
PUBLIC	??$_Move@PAUWeaponInfo@@PAU1@@std@@YAPAUWeaponInfo@@PAU1@00@Z ; std::_Move<WeaponInfo *,WeaponInfo *>
; Function compile flags: /Ogsp
;	COMDAT ??$_Move@PAUWeaponInfo@@PAU1@@std@@YAPAUWeaponInfo@@PAU1@00@Z
_TEXT	SEGMENT
__Cat$558286 = -4					; size = 1
__First$ = 8						; size = 4
__Last$ = 12						; size = 4
__Dest$ = 16						; size = 4
??$_Move@PAUWeaponInfo@@PAU1@@std@@YAPAUWeaponInfo@@PAU1@00@Z PROC ; std::_Move<WeaponInfo *,WeaponInfo *>, COMDAT

; 2533 : 	{	// move [_First, _Last) to [_Dest, ...), unchecked

  00000	55		 push	 ebp
  00001	8b ec		 mov	 ebp, esp
  00003	51		 push	 ecx

; 2534 : 	return (_Move(_First, _Last,
; 2535 : 		_Dest, _Ptr_cat(_First, _Dest)));

  00004	ff 75 fc	 push	 DWORD PTR __Cat$558286[ebp]
  00007	ff 75 10	 push	 DWORD PTR __Dest$[ebp]
  0000a	ff 75 0c	 push	 DWORD PTR __Last$[ebp]
  0000d	ff 75 08	 push	 DWORD PTR __First$[ebp]
  00010	e8 00 00 00 00	 call	 ??$_Move@PAUWeaponInfo@@PAU1@@std@@YAPAUWeaponInfo@@PAU1@00U_Nonscalar_ptr_iterator_tag@0@@Z ; std::_Move<WeaponInfo *,WeaponInfo *>
  00015	83 c4 10	 add	 esp, 16			; 00000010H

; 2536 : 	}

  00018	c9		 leave
  00019	c3		 ret	 0
??$_Move@PAUWeaponInfo@@PAU1@@std@@YAPAUWeaponInfo@@PAU1@00@Z ENDP ; std::_Move<WeaponInfo *,WeaponInfo *>
_TEXT	ENDS
PUBLIC	??$_Move@PAUForceInfo@@PAU1@@std@@YAPAUForceInfo@@PAU1@00@Z ; std::_Move<ForceInfo *,ForceInfo *>
; Function compile flags: /Ogsp
;	COMDAT ??$_Move@PAUForceInfo@@PAU1@@std@@YAPAUForceInfo@@PAU1@00@Z
_TEXT	SEGMENT
__Cat$558293 = -4					; size = 1
__First$ = 8						; size = 4
__Last$ = 12						; size = 4
__Dest$ = 16						; size = 4
??$_Move@PAUForceInfo@@PAU1@@std@@YAPAUForceInfo@@PAU1@00@Z PROC ; std::_Move<ForceInfo *,ForceInfo *>, COMDAT

; 2533 : 	{	// move [_First, _Last) to [_Dest, ...), unchecked

  00000	55		 push	 ebp
  00001	8b ec		 mov	 ebp, esp
  00003	51		 push	 ecx

; 2534 : 	return (_Move(_First, _Last,
; 2535 : 		_Dest, _Ptr_cat(_First, _Dest)));

  00004	ff 75 fc	 push	 DWORD PTR __Cat$558293[ebp]
  00007	ff 75 10	 push	 DWORD PTR __Dest$[ebp]
  0000a	ff 75 0c	 push	 DWORD PTR __Last$[ebp]
  0000d	ff 75 08	 push	 DWORD PTR __First$[ebp]
  00010	e8 00 00 00 00	 call	 ??$_Move@PAUForceInfo@@PAU1@@std@@YAPAUForceInfo@@PAU1@00U_Nonscalar_ptr_iterator_tag@0@@Z ; std::_Move<ForceInfo *,ForceInfo *>
  00015	83 c4 10	 add	 esp, 16			; 00000010H

; 2536 : 	}

  00018	c9		 leave
  00019	c3		 ret	 0
??$_Move@PAUForceInfo@@PAU1@@std@@YAPAUForceInfo@@PAU1@00@Z ENDP ; std::_Move<ForceInfo *,ForceInfo *>
_TEXT	ENDS
PUBLIC	?destroy@?$allocator@UWeaponInfo@@@std@@QAEXPAUWeaponInfo@@@Z ; std::allocator<WeaponInfo>::destroy
; Function compile flags: /Ogsp
; File c:\program files (x86)\microsoft visual studio 10.0\vc\include\xmemory
;	COMDAT ?destroy@?$allocator@UWeaponInfo@@@std@@QAEXPAUWeaponInfo@@@Z
_TEXT	SEGMENT
__Ptr$ = 8						; size = 4
?destroy@?$allocator@UWeaponInfo@@@std@@QAEXPAUWeaponInfo@@@Z PROC ; std::allocator<WeaponInfo>::destroy, COMDAT
; _this$ = ecx

; 212  : 		{	// destroy object at _Ptr

  00000	55		 push	 ebp
  00001	8b ec		 mov	 ebp, esp

; 213  : 		_Destroy(_Ptr);

  00003	8b 4d 08	 mov	 ecx, DWORD PTR __Ptr$[ebp]
  00006	83 c1 08	 add	 ecx, 8
  00009	ff 15 00 00 00
	00		 call	 DWORD PTR __imp_??1ioHashString@@QAE@XZ

; 214  : 		}

  0000f	5d		 pop	 ebp
  00010	c2 04 00	 ret	 4
?destroy@?$allocator@UWeaponInfo@@@std@@QAEXPAUWeaponInfo@@@Z ENDP ; std::allocator<WeaponInfo>::destroy
_TEXT	ENDS
PUBLIC	??$_Uninit_copy@PAUForceInfo@@PAU1@V?$allocator@UForceInfo@@@std@@@std@@YAPAUForceInfo@@PAU1@00AAV?$allocator@UForceInfo@@@0@U_Nonscalar_ptr_iterator_tag@0@@Z ; std::_Uninit_copy<ForceInfo *,ForceInfo *,std::allocator<ForceInfo> >
; Function compile flags: /Ogsp
; File c:\program files (x86)\microsoft visual studio 10.0\vc\include\memory
;	COMDAT ??$_Uninit_copy@PAUForceInfo@@PAU1@V?$allocator@UForceInfo@@@std@@@std@@YAPAUForceInfo@@PAU1@00AAV?$allocator@UForceInfo@@@0@U_Nonscalar_ptr_iterator_tag@0@@Z
_TEXT	SEGMENT
__First$ = 8						; size = 4
__Last$ = 12						; size = 4
__Dest$ = 16						; size = 4
__Al$ = 20						; size = 4
___formal$ = 24						; size = 1
??$_Uninit_copy@PAUForceInfo@@PAU1@V?$allocator@UForceInfo@@@std@@@std@@YAPAUForceInfo@@PAU1@00AAV?$allocator@UForceInfo@@@0@U_Nonscalar_ptr_iterator_tag@0@@Z PROC ; std::_Uninit_copy<ForceInfo *,ForceInfo *,std::allocator<ForceInfo> >, COMDAT

; 369  : 	{	// copy [_First, _Last) to raw _Dest, using _Al, arbitrary type

  00000	55		 push	 ebp
  00001	8b ec		 mov	 ebp, esp
  00003	56		 push	 esi

; 370  : 	_DEBUG_RANGE(_First, _Last);
; 371  : 	_DEBUG_POINTER(_Dest);
; 372  : 	_FwdIt _Next = _Dest;
; 373  : 
; 374  : 	_TRY_BEGIN
; 375  : 	for (; _First != _Last; ++_Dest, ++_First)

  00004	8b 75 08	 mov	 esi, DWORD PTR __First$[ebp]
  00007	eb 16		 jmp	 SHORT $LN24@Uninit_cop
$LL6@Uninit_cop:

; 376  : 		_Cons_val(_Al, _Dest, *_First);

  00009	56		 push	 esi
  0000a	ff 75 10	 push	 DWORD PTR __Dest$[ebp]
  0000d	ff 75 14	 push	 DWORD PTR __Al$[ebp]
  00010	e8 00 00 00 00	 call	 ??$_Cons_val@V?$allocator@UForceInfo@@@std@@UForceInfo@@AAU3@@std@@YAXAAV?$allocator@UForceInfo@@@0@PAUForceInfo@@AAU2@@Z ; std::_Cons_val<std::allocator<ForceInfo>,ForceInfo,ForceInfo &>
  00015	83 45 10 0c	 add	 DWORD PTR __Dest$[ebp], 12 ; 0000000cH
  00019	83 c4 0c	 add	 esp, 12			; 0000000cH
  0001c	83 c6 0c	 add	 esi, 12			; 0000000cH
$LN24@Uninit_cop:

; 370  : 	_DEBUG_RANGE(_First, _Last);
; 371  : 	_DEBUG_POINTER(_Dest);
; 372  : 	_FwdIt _Next = _Dest;
; 373  : 
; 374  : 	_TRY_BEGIN
; 375  : 	for (; _First != _Last; ++_Dest, ++_First)

  0001f	3b 75 0c	 cmp	 esi, DWORD PTR __Last$[ebp]
  00022	75 e5		 jne	 SHORT $LL6@Uninit_cop

; 377  : 	_CATCH_ALL
; 378  : 	for (; _Next != _Dest; ++_Next)
; 379  : 		_Dest_val(_Al, _Next);
; 380  : 	_RERAISE;
; 381  : 	_CATCH_END
; 382  : 	return (_Dest);

  00024	8b 45 10	 mov	 eax, DWORD PTR __Dest$[ebp]
  00027	5e		 pop	 esi

; 383  : 	}

  00028	5d		 pop	 ebp
  00029	c3		 ret	 0
??$_Uninit_copy@PAUForceInfo@@PAU1@V?$allocator@UForceInfo@@@std@@@std@@YAPAUForceInfo@@PAU1@00AAV?$allocator@UForceInfo@@@0@U_Nonscalar_ptr_iterator_tag@0@@Z ENDP ; std::_Uninit_copy<ForceInfo *,ForceInfo *,std::allocator<ForceInfo> >
_TEXT	ENDS
PUBLIC	??$_Cons_val@V?$allocator@UWeaponInfo@@@std@@UWeaponInfo@@AAU3@@std@@YAXAAV?$allocator@UWeaponInfo@@@0@PAUWeaponInfo@@AAU2@@Z ; std::_Cons_val<std::allocator<WeaponInfo>,WeaponInfo,WeaponInfo &>
;	COMDAT xdata$x
; File c:\program files (x86)\microsoft visual studio 10.0\vc\include\utility
xdata$x	SEGMENT
__unwindtable$??$_Cons_val@V?$allocator@UWeaponInfo@@@std@@UWeaponInfo@@AAU3@@std@@YAXAAV?$allocator@UWeaponInfo@@@0@PAUWeaponInfo@@AAU2@@Z DD 0ffffffffH
	DD	FLAT:__unwindfunclet$??$_Cons_val@V?$allocator@UWeaponInfo@@@std@@UWeaponInfo@@AAU3@@std@@YAXAAV?$allocator@UWeaponInfo@@@0@PAUWeaponInfo@@AAU2@@Z$0
__ehfuncinfo$??$_Cons_val@V?$allocator@UWeaponInfo@@@std@@UWeaponInfo@@AAU3@@std@@YAXAAV?$allocator@UWeaponInfo@@@0@PAUWeaponInfo@@AAU2@@Z DD 019930522H
	DD	01H
	DD	FLAT:__unwindtable$??$_Cons_val@V?$allocator@UWeaponInfo@@@std@@UWeaponInfo@@AAU3@@std@@YAXAAV?$allocator@UWeaponInfo@@@0@PAUWeaponInfo@@AAU2@@Z
	DD	2 DUP(00H)
	DD	2 DUP(00H)
	DD	00H
	DD	01H
; Function compile flags: /Ogsp
; File c:\program files (x86)\microsoft visual studio 10.0\vc\include\xmemory
xdata$x	ENDS
;	COMDAT ??$_Cons_val@V?$allocator@UWeaponInfo@@@std@@UWeaponInfo@@AAU3@@std@@YAXAAV?$allocator@UWeaponInfo@@@0@PAUWeaponInfo@@AAU2@@Z
_TEXT	SEGMENT
$T558362 = -16						; size = 4
__$EHRec$ = -12						; size = 12
__Alval$ = 8						; size = 4
__Pdest$ = 12						; size = 4
__Src$ = 16						; size = 4
??$_Cons_val@V?$allocator@UWeaponInfo@@@std@@UWeaponInfo@@AAU3@@std@@YAXAAV?$allocator@UWeaponInfo@@@0@PAUWeaponInfo@@AAU2@@Z PROC ; std::_Cons_val<std::allocator<WeaponInfo>,WeaponInfo,WeaponInfo &>, COMDAT

; 279  : 	{	// construct using allocator

  00000	6a 04		 push	 4
  00002	b8 00 00 00 00	 mov	 eax, __ehhandler$??$_Cons_val@V?$allocator@UWeaponInfo@@@std@@UWeaponInfo@@AAU3@@std@@YAXAAV?$allocator@UWeaponInfo@@@0@PAUWeaponInfo@@AAU2@@Z
  00007	e8 00 00 00 00	 call	 __EH_prolog3

; 280  : 	_Alval.construct(_Pdest, _STD forward<_Ty2>(_Src));

  0000c	8b 4d 0c	 mov	 ecx, DWORD PTR __Pdest$[ebp]
  0000f	89 4d f0	 mov	 DWORD PTR $T558362[ebp], ecx
  00012	83 65 fc 00	 and	 DWORD PTR __$EHRec$[ebp+8], 0
  00016	85 c9		 test	 ecx, ecx
  00018	74 08		 je	 SHORT $LN7@Cons_val@5
  0001a	ff 75 10	 push	 DWORD PTR __Src$[ebp]
  0001d	e8 00 00 00 00	 call	 ??0WeaponInfo@@QAE@ABU0@@Z
$LN7@Cons_val@5:

; 281  : 	}

  00022	e8 00 00 00 00	 call	 __EH_epilog3
  00027	c3		 ret	 0
_TEXT	ENDS
;	COMDAT text$x
text$x	SEGMENT
__unwindfunclet$??$_Cons_val@V?$allocator@UWeaponInfo@@@std@@UWeaponInfo@@AAU3@@std@@YAXAAV?$allocator@UWeaponInfo@@@0@PAUWeaponInfo@@AAU2@@Z$0:
  00000	ff 75 0c	 push	 DWORD PTR __Pdest$[ebp]
  00003	ff 75 f0	 push	 DWORD PTR $T558362[ebp]
  00006	e8 00 00 00 00	 call	 ??3@YAXPAX0@Z		; operator delete
  0000b	59		 pop	 ecx
  0000c	59		 pop	 ecx
  0000d	c3		 ret	 0
__ehhandler$??$_Cons_val@V?$allocator@UWeaponInfo@@@std@@UWeaponInfo@@AAU3@@std@@YAXAAV?$allocator@UWeaponInfo@@@0@PAUWeaponInfo@@AAU2@@Z:
  0000e	8b 54 24 08	 mov	 edx, DWORD PTR [esp+8]
  00012	8d 42 0c	 lea	 eax, DWORD PTR [edx+12]
  00015	8b 4a ec	 mov	 ecx, DWORD PTR [edx-20]
  00018	33 c8		 xor	 ecx, eax
  0001a	e8 00 00 00 00	 call	 @__security_check_cookie@4
  0001f	b8 00 00 00 00	 mov	 eax, OFFSET __ehfuncinfo$??$_Cons_val@V?$allocator@UWeaponInfo@@@std@@UWeaponInfo@@AAU3@@std@@YAXAAV?$allocator@UWeaponInfo@@@0@PAUWeaponInfo@@AAU2@@Z
  00024	e9 00 00 00 00	 jmp	 ___CxxFrameHandler3
text$x	ENDS
??$_Cons_val@V?$allocator@UWeaponInfo@@@std@@UWeaponInfo@@AAU3@@std@@YAXAAV?$allocator@UWeaponInfo@@@0@PAUWeaponInfo@@AAU2@@Z ENDP ; std::_Cons_val<std::allocator<WeaponInfo>,WeaponInfo,WeaponInfo &>
PUBLIC	??$_Cons_val@V?$allocator@UtagBaseCharHP@@@std@@UtagBaseCharHP@@ABU3@@std@@YAXAAV?$allocator@UtagBaseCharHP@@@0@PAUtagBaseCharHP@@ABU2@@Z ; std::_Cons_val<std::allocator<tagBaseCharHP>,tagBaseCharHP,tagBaseCharHP const &>
; Function compile flags: /Ogsp
;	COMDAT ??$_Cons_val@V?$allocator@UtagBaseCharHP@@@std@@UtagBaseCharHP@@ABU3@@std@@YAXAAV?$allocator@UtagBaseCharHP@@@0@PAUtagBaseCharHP@@ABU2@@Z
_TEXT	SEGMENT
__Alval$ = 8						; size = 4
__Pdest$ = 12						; size = 4
__Src$ = 16						; size = 4
??$_Cons_val@V?$allocator@UtagBaseCharHP@@@std@@UtagBaseCharHP@@ABU3@@std@@YAXAAV?$allocator@UtagBaseCharHP@@@0@PAUtagBaseCharHP@@ABU2@@Z PROC ; std::_Cons_val<std::allocator<tagBaseCharHP>,tagBaseCharHP,tagBaseCharHP const &>, COMDAT

; 279  : 	{	// construct using allocator

  00000	55		 push	 ebp
  00001	8b ec		 mov	 ebp, esp

; 280  : 	_Alval.construct(_Pdest, _STD forward<_Ty2>(_Src));

  00003	ff 75 10	 push	 DWORD PTR __Src$[ebp]
  00006	ff 75 0c	 push	 DWORD PTR __Pdest$[ebp]
  00009	e8 00 00 00 00	 call	 ??$_Construct@UtagBaseCharHP@@ABU1@@std@@YAXPAUtagBaseCharHP@@ABU1@@Z ; std::_Construct<tagBaseCharHP,tagBaseCharHP const &>
  0000e	59		 pop	 ecx
  0000f	59		 pop	 ecx

; 281  : 	}

  00010	5d		 pop	 ebp
  00011	c3		 ret	 0
??$_Cons_val@V?$allocator@UtagBaseCharHP@@@std@@UtagBaseCharHP@@ABU3@@std@@YAXAAV?$allocator@UtagBaseCharHP@@@0@PAUtagBaseCharHP@@ABU2@@Z ENDP ; std::_Cons_val<std::allocator<tagBaseCharHP>,tagBaseCharHP,tagBaseCharHP const &>
_TEXT	ENDS
PUBLIC	??$_Insertion_sort@PAUtagBaseCharHP@@VBaseCharHPSort@@@std@@YAXPAUtagBaseCharHP@@0VBaseCharHPSort@@@Z ; std::_Insertion_sort<tagBaseCharHP *,BaseCharHPSort>
; Function compile flags: /Ogsp
; File c:\program files (x86)\microsoft visual studio 10.0\vc\include\algorithm
;	COMDAT ??$_Insertion_sort@PAUtagBaseCharHP@@VBaseCharHPSort@@@std@@YAXPAUtagBaseCharHP@@0VBaseCharHPSort@@@Z
_TEXT	SEGMENT
__First$ = 8						; size = 4
__Last$ = 12						; size = 4
__Pred$ = 16						; size = 1
??$_Insertion_sort@PAUtagBaseCharHP@@VBaseCharHPSort@@@std@@YAXPAUtagBaseCharHP@@0VBaseCharHPSort@@@Z PROC ; std::_Insertion_sort<tagBaseCharHP *,BaseCharHPSort>, COMDAT

; 3676 : 	{	// insertion sort [_First, _Last), using _Pred

  00000	55		 push	 ebp
  00001	8b ec		 mov	 ebp, esp

; 3677 : 	_Insertion_sort1(_First, _Last, _Pred, _Val_type(_First));

  00003	6a 00		 push	 0
  00005	ff 75 10	 push	 DWORD PTR __Pred$[ebp]
  00008	ff 75 0c	 push	 DWORD PTR __Last$[ebp]
  0000b	ff 75 08	 push	 DWORD PTR __First$[ebp]
  0000e	e8 00 00 00 00	 call	 ??$_Insertion_sort1@PAUtagBaseCharHP@@VBaseCharHPSort@@U1@@std@@YAXPAUtagBaseCharHP@@0VBaseCharHPSort@@0@Z ; std::_Insertion_sort1<tagBaseCharHP *,BaseCharHPSort,tagBaseCharHP>
  00013	83 c4 10	 add	 esp, 16			; 00000010H

; 3678 : 	}

  00016	5d		 pop	 ebp
  00017	c3		 ret	 0
??$_Insertion_sort@PAUtagBaseCharHP@@VBaseCharHPSort@@@std@@YAXPAUtagBaseCharHP@@0VBaseCharHPSort@@@Z ENDP ; std::_Insertion_sort<tagBaseCharHP *,BaseCharHPSort>
_TEXT	ENDS
PUBLIC	??$_Uninit_copy@V?$_Vector_const_iterator@V?$_Vector_val@UForceInfo@@V?$allocator@UForceInfo@@@std@@@std@@@std@@PAUForceInfo@@V?$allocator@UForceInfo@@@2@@std@@YAPAUForceInfo@@V?$_Vector_const_iterator@V?$_Vector_val@UForceInfo@@V?$allocator@UForceInfo@@@std@@@std@@@0@0PAU1@AAV?$allocator@UForceInfo@@@0@U_Nonscalar_ptr_iterator_tag@0@@Z ; std::_Uninit_copy<std::_Vector_const_iterator<std::_Vector_val<ForceInfo,std::allocator<ForceInfo> > >,ForceInfo *,std::allocator<ForceInfo> >
; Function compile flags: /Ogsp
; File c:\program files (x86)\microsoft visual studio 10.0\vc\include\memory
;	COMDAT ??$_Uninit_copy@V?$_Vector_const_iterator@V?$_Vector_val@UForceInfo@@V?$allocator@UForceInfo@@@std@@@std@@@std@@PAUForceInfo@@V?$allocator@UForceInfo@@@2@@std@@YAPAUForceInfo@@V?$_Vector_const_iterator@V?$_Vector_val@UForceInfo@@V?$allocator@UForceInfo@@@std@@@std@@@0@0PAU1@AAV?$allocator@UForceInfo@@@0@U_Nonscalar_ptr_iterator_tag@0@@Z
_TEXT	SEGMENT
__First$ = 8						; size = 4
__Last$ = 12						; size = 4
__Dest$ = 16						; size = 4
__Al$ = 20						; size = 4
___formal$ = 24						; size = 1
??$_Uninit_copy@V?$_Vector_const_iterator@V?$_Vector_val@UForceInfo@@V?$allocator@UForceInfo@@@std@@@std@@@std@@PAUForceInfo@@V?$allocator@UForceInfo@@@2@@std@@YAPAUForceInfo@@V?$_Vector_const_iterator@V?$_Vector_val@UForceInfo@@V?$allocator@UForceInfo@@@std@@@std@@@0@0PAU1@AAV?$allocator@UForceInfo@@@0@U_Nonscalar_ptr_iterator_tag@0@@Z PROC ; std::_Uninit_copy<std::_Vector_const_iterator<std::_Vector_val<ForceInfo,std::allocator<ForceInfo> > >,ForceInfo *,std::allocator<ForceInfo> >, COMDAT

; 369  : 	{	// copy [_First, _Last) to raw _Dest, using _Al, arbitrary type

  00000	55		 push	 ebp
  00001	8b ec		 mov	 ebp, esp

; 370  : 	_DEBUG_RANGE(_First, _Last);
; 371  : 	_DEBUG_POINTER(_Dest);
; 372  : 	_FwdIt _Next = _Dest;
; 373  : 
; 374  : 	_TRY_BEGIN
; 375  : 	for (; _First != _Last; ++_Dest, ++_First)

  00003	eb 19		 jmp	 SHORT $LN35@Uninit_cop@2
$LL14@Uninit_cop@2:

; 376  : 		_Cons_val(_Al, _Dest, *_First);

  00005	ff 75 08	 push	 DWORD PTR __First$[ebp]
  00008	ff 75 10	 push	 DWORD PTR __Dest$[ebp]
  0000b	ff 75 14	 push	 DWORD PTR __Al$[ebp]
  0000e	e8 00 00 00 00	 call	 ??$_Cons_val@V?$allocator@UForceInfo@@@std@@UForceInfo@@ABU3@@std@@YAXAAV?$allocator@UForceInfo@@@0@PAUForceInfo@@ABU2@@Z ; std::_Cons_val<std::allocator<ForceInfo>,ForceInfo,ForceInfo const &>
  00013	83 45 10 0c	 add	 DWORD PTR __Dest$[ebp], 12 ; 0000000cH
  00017	83 c4 0c	 add	 esp, 12			; 0000000cH
  0001a	83 45 08 0c	 add	 DWORD PTR __First$[ebp], 12 ; 0000000cH
$LN35@Uninit_cop@2:

; 370  : 	_DEBUG_RANGE(_First, _Last);
; 371  : 	_DEBUG_POINTER(_Dest);
; 372  : 	_FwdIt _Next = _Dest;
; 373  : 
; 374  : 	_TRY_BEGIN
; 375  : 	for (; _First != _Last; ++_Dest, ++_First)

  0001e	8b 45 08	 mov	 eax, DWORD PTR __First$[ebp]
  00021	3b 45 0c	 cmp	 eax, DWORD PTR __Last$[ebp]
  00024	75 df		 jne	 SHORT $LL14@Uninit_cop@2

; 377  : 	_CATCH_ALL
; 378  : 	for (; _Next != _Dest; ++_Next)
; 379  : 		_Dest_val(_Al, _Next);
; 380  : 	_RERAISE;
; 381  : 	_CATCH_END
; 382  : 	return (_Dest);

  00026	8b 45 10	 mov	 eax, DWORD PTR __Dest$[ebp]

; 383  : 	}

  00029	5d		 pop	 ebp
  0002a	c3		 ret	 0
??$_Uninit_copy@V?$_Vector_const_iterator@V?$_Vector_val@UForceInfo@@V?$allocator@UForceInfo@@@std@@@std@@@std@@PAUForceInfo@@V?$allocator@UForceInfo@@@2@@std@@YAPAUForceInfo@@V?$_Vector_const_iterator@V?$_Vector_val@UForceInfo@@V?$allocator@UForceInfo@@@std@@@std@@@0@0PAU1@AAV?$allocator@UForceInfo@@@0@U_Nonscalar_ptr_iterator_tag@0@@Z ENDP ; std::_Uninit_copy<std::_Vector_const_iterator<std::_Vector_val<ForceInfo,std::allocator<ForceInfo> > >,ForceInfo *,std::allocator<ForceInfo> >
_TEXT	ENDS
PUBLIC	??$_Dest_val@V?$allocator@UtagBaseCharHP@@@std@@UtagBaseCharHP@@@std@@YAXAAV?$allocator@UtagBaseCharHP@@@0@PAUtagBaseCharHP@@@Z ; std::_Dest_val<std::allocator<tagBaseCharHP>,tagBaseCharHP>
; Function compile flags: /Ogsp
; File c:\program files (x86)\microsoft visual studio 10.0\vc\include\xmemory
;	COMDAT ??$_Dest_val@V?$allocator@UtagBaseCharHP@@@std@@UtagBaseCharHP@@@std@@YAXAAV?$allocator@UtagBaseCharHP@@@0@PAUtagBaseCharHP@@@Z
_TEXT	SEGMENT
__Alval$ = 8						; size = 4
__Pdest$ = 12						; size = 4
??$_Dest_val@V?$allocator@UtagBaseCharHP@@@std@@UtagBaseCharHP@@@std@@YAXAAV?$allocator@UtagBaseCharHP@@@0@PAUtagBaseCharHP@@@Z PROC ; std::_Dest_val<std::allocator<tagBaseCharHP>,tagBaseCharHP>, COMDAT

; 286  : 	{	// destroy using allocator

  00000	55		 push	 ebp
  00001	8b ec		 mov	 ebp, esp

; 287  : 	_Alval.destroy(_Pdest);

  00003	8b 4d 0c	 mov	 ecx, DWORD PTR __Pdest$[ebp]

; 288  : 	}

  00006	5d		 pop	 ebp

; 287  : 	_Alval.destroy(_Pdest);

  00007	ff 25 00 00 00
	00		 jmp	 DWORD PTR __imp_??1ioHashString@@QAE@XZ
??$_Dest_val@V?$allocator@UtagBaseCharHP@@@std@@UtagBaseCharHP@@@std@@YAXAAV?$allocator@UtagBaseCharHP@@@0@PAUtagBaseCharHP@@@Z ENDP ; std::_Dest_val<std::allocator<tagBaseCharHP>,tagBaseCharHP>
_TEXT	ENDS
PUBLIC	??$_Median@PAUtagBaseCharHP@@VBaseCharHPSort@@@std@@YAXPAUtagBaseCharHP@@00VBaseCharHPSort@@@Z ; std::_Median<tagBaseCharHP *,BaseCharHPSort>
; Function compile flags: /Ogsp
; File c:\program files (x86)\microsoft visual studio 10.0\vc\include\algorithm
;	COMDAT ??$_Median@PAUtagBaseCharHP@@VBaseCharHPSort@@@std@@YAXPAUtagBaseCharHP@@00VBaseCharHPSort@@@Z
_TEXT	SEGMENT
tv200 = 8						; size = 4
__First$ = 8						; size = 4
__Mid$ = 12						; size = 4
tv203 = 16						; size = 4
__Last$ = 16						; size = 4
__Pred$ = 20						; size = 1
??$_Median@PAUtagBaseCharHP@@VBaseCharHPSort@@@std@@YAXPAUtagBaseCharHP@@00VBaseCharHPSort@@@Z PROC ; std::_Median<tagBaseCharHP *,BaseCharHPSort>, COMDAT

; 3695 : 	{	// sort median element to middle

  00000	55		 push	 ebp
  00001	8b ec		 mov	 ebp, esp

; 3696 : 	if (40 < _Last - _First)

  00003	8b 4d 08	 mov	 ecx, DWORD PTR __First$[ebp]
  00006	53		 push	 ebx
  00007	8b 5d 10	 mov	 ebx, DWORD PTR __Last$[ebp]
  0000a	56		 push	 esi
  0000b	8b c3		 mov	 eax, ebx
  0000d	2b c1		 sub	 eax, ecx
  0000f	6a 18		 push	 24			; 00000018H
  00011	99		 cdq
  00012	5e		 pop	 esi
  00013	f7 fe		 idiv	 esi
  00015	83 f8 28	 cmp	 eax, 40			; 00000028H
  00018	7e 68		 jle	 SHORT $LN2@Median

; 3697 : 		{	// median of nine
; 3698 : 		size_t _Step = (_Last - _First + 1) / 8;

  0001a	40		 inc	 eax
  0001b	99		 cdq
  0001c	83 e2 07	 and	 edx, 7
  0001f	03 c2		 add	 eax, edx
  00021	57		 push	 edi

; 3699 : 		_Med3(_First, _First + _Step, _First + 2 * _Step, _Pred);

  00022	ff 75 14	 push	 DWORD PTR __Pred$[ebp]
  00025	c1 f8 03	 sar	 eax, 3
  00028	8b f8		 mov	 edi, eax
  0002a	8b f0		 mov	 esi, eax
  0002c	6b ff 30	 imul	 edi, 48			; 00000030H
  0002f	6b f6 18	 imul	 esi, 24			; 00000018H
  00032	8d 14 0f	 lea	 edx, DWORD PTR [edi+ecx]
  00035	8d 04 0e	 lea	 eax, DWORD PTR [esi+ecx]
  00038	52		 push	 edx
  00039	50		 push	 eax
  0003a	51		 push	 ecx
  0003b	89 45 08	 mov	 DWORD PTR tv200[ebp], eax
  0003e	e8 00 00 00 00	 call	 ??$_Med3@PAUtagBaseCharHP@@VBaseCharHPSort@@@std@@YAXPAUtagBaseCharHP@@00VBaseCharHPSort@@@Z ; std::_Med3<tagBaseCharHP *,BaseCharHPSort>

; 3700 : 		_Med3(_Mid - _Step, _Mid, _Mid + _Step, _Pred);

  00043	ff 75 14	 push	 DWORD PTR __Pred$[ebp]
  00046	8b 45 0c	 mov	 eax, DWORD PTR __Mid$[ebp]
  00049	8d 0c 06	 lea	 ecx, DWORD PTR [esi+eax]
  0004c	51		 push	 ecx
  0004d	50		 push	 eax
  0004e	2b c6		 sub	 eax, esi
  00050	50		 push	 eax
  00051	e8 00 00 00 00	 call	 ??$_Med3@PAUtagBaseCharHP@@VBaseCharHPSort@@@std@@YAXPAUtagBaseCharHP@@00VBaseCharHPSort@@@Z ; std::_Med3<tagBaseCharHP *,BaseCharHPSort>

; 3701 : 		_Med3(_Last - 2 * _Step, _Last - _Step, _Last, _Pred);

  00056	ff 75 14	 push	 DWORD PTR __Pred$[ebp]
  00059	89 5d 10	 mov	 DWORD PTR tv203[ebp], ebx
  0005c	29 75 10	 sub	 DWORD PTR tv203[ebp], esi
  0005f	53		 push	 ebx
  00060	ff 75 10	 push	 DWORD PTR tv203[ebp]
  00063	2b df		 sub	 ebx, edi
  00065	53		 push	 ebx
  00066	e8 00 00 00 00	 call	 ??$_Med3@PAUtagBaseCharHP@@VBaseCharHPSort@@@std@@YAXPAUtagBaseCharHP@@00VBaseCharHPSort@@@Z ; std::_Med3<tagBaseCharHP *,BaseCharHPSort>

; 3702 : 		_Med3(_First + _Step, _Mid, _Last - _Step, _Pred);

  0006b	ff 75 14	 push	 DWORD PTR __Pred$[ebp]
  0006e	ff 75 10	 push	 DWORD PTR tv203[ebp]
  00071	ff 75 0c	 push	 DWORD PTR __Mid$[ebp]
  00074	ff 75 08	 push	 DWORD PTR tv200[ebp]
  00077	e8 00 00 00 00	 call	 ??$_Med3@PAUtagBaseCharHP@@VBaseCharHPSort@@@std@@YAXPAUtagBaseCharHP@@00VBaseCharHPSort@@@Z ; std::_Med3<tagBaseCharHP *,BaseCharHPSort>
  0007c	83 c4 40	 add	 esp, 64			; 00000040H
  0007f	5f		 pop	 edi

; 3703 : 		}
; 3704 : 	else

  00080	eb 10		 jmp	 SHORT $LN1@Median
$LN2@Median:

; 3705 : 		_Med3(_First, _Mid, _Last, _Pred);

  00082	ff 75 14	 push	 DWORD PTR __Pred$[ebp]
  00085	53		 push	 ebx
  00086	ff 75 0c	 push	 DWORD PTR __Mid$[ebp]
  00089	51		 push	 ecx
  0008a	e8 00 00 00 00	 call	 ??$_Med3@PAUtagBaseCharHP@@VBaseCharHPSort@@@std@@YAXPAUtagBaseCharHP@@00VBaseCharHPSort@@@Z ; std::_Med3<tagBaseCharHP *,BaseCharHPSort>
  0008f	83 c4 10	 add	 esp, 16			; 00000010H
$LN1@Median:
  00092	5e		 pop	 esi
  00093	5b		 pop	 ebx

; 3706 : 	}

  00094	5d		 pop	 ebp
  00095	c3		 ret	 0
??$_Median@PAUtagBaseCharHP@@VBaseCharHPSort@@@std@@YAXPAUtagBaseCharHP@@00VBaseCharHPSort@@@Z ENDP ; std::_Median<tagBaseCharHP *,BaseCharHPSort>
_TEXT	ENDS
PUBLIC	??$_Make_heap@PAUtagBaseCharHP@@HU1@VBaseCharHPSort@@@std@@YAXPAUtagBaseCharHP@@0VBaseCharHPSort@@PAH0@Z ; std::_Make_heap<tagBaseCharHP *,int,tagBaseCharHP,BaseCharHPSort>
;	COMDAT xdata$x
; File d:\lost saga for developer\youtube\tutorial\source\src\lsclient\iotargettimingattackskill.cpp
xdata$x	SEGMENT
__unwindtable$??$_Make_heap@PAUtagBaseCharHP@@HU1@VBaseCharHPSort@@@std@@YAXPAUtagBaseCharHP@@0VBaseCharHPSort@@PAH0@Z DD 0ffffffffH
	DD	FLAT:__unwindfunclet$??$_Make_heap@PAUtagBaseCharHP@@HU1@VBaseCharHPSort@@@std@@YAXPAUtagBaseCharHP@@0VBaseCharHPSort@@PAH0@Z$0
__ehfuncinfo$??$_Make_heap@PAUtagBaseCharHP@@HU1@VBaseCharHPSort@@@std@@YAXPAUtagBaseCharHP@@0VBaseCharHPSort@@PAH0@Z DD 019930522H
	DD	01H
	DD	FLAT:__unwindtable$??$_Make_heap@PAUtagBaseCharHP@@HU1@VBaseCharHPSort@@@std@@YAXPAUtagBaseCharHP@@0VBaseCharHPSort@@PAH0@Z
	DD	2 DUP(00H)
	DD	2 DUP(00H)
	DD	00H
	DD	01H
; Function compile flags: /Ogsp
; File c:\program files (x86)\microsoft visual studio 10.0\vc\include\algorithm
xdata$x	ENDS
;	COMDAT ??$_Make_heap@PAUtagBaseCharHP@@HU1@VBaseCharHPSort@@@std@@YAXPAUtagBaseCharHP@@0VBaseCharHPSort@@PAH0@Z
_TEXT	SEGMENT
__Val$552937 = -36					; size = 24
__$EHRec$ = -12						; size = 12
__First$ = 8						; size = 4
__Bottom$ = 12						; size = 4
__Last$ = 12						; size = 4
__Pred$ = 16						; size = 1
___formal$ = 20						; size = 4
___formal$ = 24						; size = 4
??$_Make_heap@PAUtagBaseCharHP@@HU1@VBaseCharHPSort@@@std@@YAXPAUtagBaseCharHP@@0VBaseCharHPSort@@PAH0@Z PROC ; std::_Make_heap<tagBaseCharHP *,int,tagBaseCharHP,BaseCharHPSort>, COMDAT

; 2658 : 	{	// make nontrivial [_First, _Last) into a heap, using _Pred

  00000	6a 18		 push	 24			; 00000018H
  00002	b8 00 00 00 00	 mov	 eax, __ehhandler$??$_Make_heap@PAUtagBaseCharHP@@HU1@VBaseCharHPSort@@@std@@YAXPAUtagBaseCharHP@@0VBaseCharHPSort@@PAH0@Z
  00007	e8 00 00 00 00	 call	 __EH_prolog3

; 2659 : 	_Diff _Bottom = _Last - _First;

  0000c	8b 45 0c	 mov	 eax, DWORD PTR __Last$[ebp]
  0000f	8b 5d 08	 mov	 ebx, DWORD PTR __First$[ebp]
  00012	2b c3		 sub	 eax, ebx
  00014	99		 cdq
  00015	6a 18		 push	 24			; 00000018H
  00017	59		 pop	 ecx
  00018	f7 f9		 idiv	 ecx
  0001a	89 45 0c	 mov	 DWORD PTR __Bottom$[ebp], eax

; 2660 : 	for (_Diff _Hole = _Bottom / 2; 0 < _Hole; )

  0001d	99		 cdq
  0001e	2b c2		 sub	 eax, edx
  00020	8b f8		 mov	 edi, eax
  00022	d1 ff		 sar	 edi, 1
  00024	85 ff		 test	 edi, edi
  00026	7e 52		 jle	 SHORT $LN1@Make_heap

; 2659 : 	_Diff _Bottom = _Last - _First;

  00028	8b c7		 mov	 eax, edi
  0002a	6b c0 18	 imul	 eax, 24			; 00000018H
  0002d	8d 74 18 14	 lea	 esi, DWORD PTR [eax+ebx+20]
$LN2@Make_heap:

; 2661 : 		{	// reheap top half, bottom to top
; 2662 : 		--_Hole;

  00031	83 ee 18	 sub	 esi, 24			; 00000018H

; 2663 : 		_Ty _Val = _Move(*(_First + _Hole));

  00034	8d 46 ec	 lea	 eax, DWORD PTR [esi-20]
  00037	50		 push	 eax
  00038	8d 4d dc	 lea	 ecx, DWORD PTR __Val$552937[ebp]
  0003b	4f		 dec	 edi
  0003c	ff 15 00 00 00
	00		 call	 DWORD PTR __imp_??0ioHashString@@QAE@ABV0@@Z
  00042	8a 06		 mov	 al, BYTE PTR [esi]
  00044	f3 0f 10 46 fc	 movss	 xmm0, DWORD PTR [esi-4]
  00049	f3 0f 11 45 ec	 movss	 DWORD PTR __Val$552937[ebp+16], xmm0
  0004e	88 45 f0	 mov	 BYTE PTR __Val$552937[ebp+20], al

; 2664 : 		_Adjust_heap(_First, _Hole, _Bottom,
; 2665 : 			_Move(_Val), _Pred);

  00051	ff 75 10	 push	 DWORD PTR __Pred$[ebp]
  00054	83 65 fc 00	 and	 DWORD PTR __$EHRec$[ebp+8], 0
  00058	8d 45 dc	 lea	 eax, DWORD PTR __Val$552937[ebp]
  0005b	50		 push	 eax
  0005c	ff 75 0c	 push	 DWORD PTR __Bottom$[ebp]
  0005f	57		 push	 edi
  00060	53		 push	 ebx
  00061	e8 00 00 00 00	 call	 ??$_Adjust_heap@PAUtagBaseCharHP@@HU1@VBaseCharHPSort@@@std@@YAXPAUtagBaseCharHP@@HH$$QAU1@VBaseCharHPSort@@@Z ; std::_Adjust_heap<tagBaseCharHP *,int,tagBaseCharHP,BaseCharHPSort>

; 2666 : 		}

  00066	83 4d fc ff	 or	 DWORD PTR __$EHRec$[ebp+8], -1
  0006a	83 c4 14	 add	 esp, 20			; 00000014H
  0006d	8d 4d dc	 lea	 ecx, DWORD PTR __Val$552937[ebp]
  00070	ff 15 00 00 00
	00		 call	 DWORD PTR __imp_??1ioHashString@@QAE@XZ
  00076	85 ff		 test	 edi, edi
  00078	7f b7		 jg	 SHORT $LN2@Make_heap
$LN1@Make_heap:

; 2667 : 	}

  0007a	e8 00 00 00 00	 call	 __EH_epilog3
  0007f	c3		 ret	 0
_TEXT	ENDS
;	COMDAT text$x
text$x	SEGMENT
__unwindfunclet$??$_Make_heap@PAUtagBaseCharHP@@HU1@VBaseCharHPSort@@@std@@YAXPAUtagBaseCharHP@@0VBaseCharHPSort@@PAH0@Z$0:
  00000	8d 4d dc	 lea	 ecx, DWORD PTR __Val$552937[ebp]
  00003	e9 00 00 00 00	 jmp	 ??1tagBaseCharHP@@QAE@XZ
__ehhandler$??$_Make_heap@PAUtagBaseCharHP@@HU1@VBaseCharHPSort@@@std@@YAXPAUtagBaseCharHP@@0VBaseCharHPSort@@PAH0@Z:
  00008	8b 54 24 08	 mov	 edx, DWORD PTR [esp+8]
  0000c	8d 42 0c	 lea	 eax, DWORD PTR [edx+12]
  0000f	8b 4a d8	 mov	 ecx, DWORD PTR [edx-40]
  00012	33 c8		 xor	 ecx, eax
  00014	e8 00 00 00 00	 call	 @__security_check_cookie@4
  00019	b8 00 00 00 00	 mov	 eax, OFFSET __ehfuncinfo$??$_Make_heap@PAUtagBaseCharHP@@HU1@VBaseCharHPSort@@@std@@YAXPAUtagBaseCharHP@@0VBaseCharHPSort@@PAH0@Z
  0001e	e9 00 00 00 00	 jmp	 ___CxxFrameHandler3
text$x	ENDS
??$_Make_heap@PAUtagBaseCharHP@@HU1@VBaseCharHPSort@@@std@@YAXPAUtagBaseCharHP@@0VBaseCharHPSort@@PAH0@Z ENDP ; std::_Make_heap<tagBaseCharHP *,int,tagBaseCharHP,BaseCharHPSort>
PUBLIC	??$_Cons_val@V?$allocator@UWeaponInfo@@@std@@UWeaponInfo@@ABU3@@std@@YAXAAV?$allocator@UWeaponInfo@@@0@PAUWeaponInfo@@ABU2@@Z ; std::_Cons_val<std::allocator<WeaponInfo>,WeaponInfo,WeaponInfo const &>
; Function compile flags: /Ogsp
; File c:\program files (x86)\microsoft visual studio 10.0\vc\include\xmemory
;	COMDAT ??$_Cons_val@V?$allocator@UWeaponInfo@@@std@@UWeaponInfo@@ABU3@@std@@YAXAAV?$allocator@UWeaponInfo@@@0@PAUWeaponInfo@@ABU2@@Z
_TEXT	SEGMENT
__Alval$ = 8						; size = 4
__Pdest$ = 12						; size = 4
__Src$ = 16						; size = 4
??$_Cons_val@V?$allocator@UWeaponInfo@@@std@@UWeaponInfo@@ABU3@@std@@YAXAAV?$allocator@UWeaponInfo@@@0@PAUWeaponInfo@@ABU2@@Z PROC ; std::_Cons_val<std::allocator<WeaponInfo>,WeaponInfo,WeaponInfo const &>, COMDAT

; 279  : 	{	// construct using allocator

  00000	55		 push	 ebp
  00001	8b ec		 mov	 ebp, esp

; 280  : 	_Alval.construct(_Pdest, _STD forward<_Ty2>(_Src));

  00003	ff 75 10	 push	 DWORD PTR __Src$[ebp]
  00006	ff 75 0c	 push	 DWORD PTR __Pdest$[ebp]
  00009	e8 00 00 00 00	 call	 ??$_Construct@UWeaponInfo@@ABU1@@std@@YAXPAUWeaponInfo@@ABU1@@Z ; std::_Construct<WeaponInfo,WeaponInfo const &>
  0000e	59		 pop	 ecx
  0000f	59		 pop	 ecx

; 281  : 	}

  00010	5d		 pop	 ebp
  00011	c3		 ret	 0
??$_Cons_val@V?$allocator@UWeaponInfo@@@std@@UWeaponInfo@@ABU3@@std@@YAXAAV?$allocator@UWeaponInfo@@@0@PAUWeaponInfo@@ABU2@@Z ENDP ; std::_Cons_val<std::allocator<WeaponInfo>,WeaponInfo,WeaponInfo const &>
_TEXT	ENDS
PUBLIC	??$_Pop_heap_0@PAUtagBaseCharHP@@U1@VBaseCharHPSort@@@std@@YAXPAUtagBaseCharHP@@0VBaseCharHPSort@@0@Z ; std::_Pop_heap_0<tagBaseCharHP *,tagBaseCharHP,BaseCharHPSort>
;	COMDAT xdata$x
; File d:\lost saga for developer\youtube\tutorial\source\src\lsclient\iotargettimingattackskill.cpp
xdata$x	SEGMENT
__unwindtable$??$_Pop_heap_0@PAUtagBaseCharHP@@U1@VBaseCharHPSort@@@std@@YAXPAUtagBaseCharHP@@0VBaseCharHPSort@@0@Z DD 0ffffffffH
	DD	FLAT:__unwindfunclet$??$_Pop_heap_0@PAUtagBaseCharHP@@U1@VBaseCharHPSort@@@std@@YAXPAUtagBaseCharHP@@0VBaseCharHPSort@@0@Z$0
__ehfuncinfo$??$_Pop_heap_0@PAUtagBaseCharHP@@U1@VBaseCharHPSort@@@std@@YAXPAUtagBaseCharHP@@0VBaseCharHPSort@@0@Z DD 019930522H
	DD	01H
	DD	FLAT:__unwindtable$??$_Pop_heap_0@PAUtagBaseCharHP@@U1@VBaseCharHPSort@@@std@@YAXPAUtagBaseCharHP@@0VBaseCharHPSort@@0@Z
	DD	2 DUP(00H)
	DD	2 DUP(00H)
	DD	00H
	DD	01H
; Function compile flags: /Ogsp
; File c:\program files (x86)\microsoft visual studio 10.0\vc\include\algorithm
xdata$x	ENDS
;	COMDAT ??$_Pop_heap_0@PAUtagBaseCharHP@@U1@VBaseCharHPSort@@@std@@YAXPAUtagBaseCharHP@@0VBaseCharHPSort@@0@Z
_TEXT	SEGMENT
__Val$ = -36						; size = 24
__$EHRec$ = -12						; size = 12
__First$ = 8						; size = 4
__Last$ = 12						; size = 4
__Pred$ = 16						; size = 1
___formal$ = 20						; size = 4
??$_Pop_heap_0@PAUtagBaseCharHP@@U1@VBaseCharHPSort@@@std@@YAXPAUtagBaseCharHP@@0VBaseCharHPSort@@0@Z PROC ; std::_Pop_heap_0<tagBaseCharHP *,tagBaseCharHP,BaseCharHPSort>, COMDAT

; 2601 : 	{	// pop *_First to *(_Last - 1) and reheap, using _Pred

  00000	6a 18		 push	 24			; 00000018H
  00002	b8 00 00 00 00	 mov	 eax, __ehhandler$??$_Pop_heap_0@PAUtagBaseCharHP@@U1@VBaseCharHPSort@@@std@@YAXPAUtagBaseCharHP@@0VBaseCharHPSort@@0@Z
  00007	e8 00 00 00 00	 call	 __EH_prolog3

; 2602 : 	_Ty _Val = _Move(*(_Last - 1));

  0000c	8b 75 0c	 mov	 esi, DWORD PTR __Last$[ebp]
  0000f	83 c6 e8	 add	 esi, -24		; ffffffe8H
  00012	56		 push	 esi
  00013	8d 4d dc	 lea	 ecx, DWORD PTR __Val$[ebp]
  00016	ff 15 00 00 00
	00		 call	 DWORD PTR __imp_??0ioHashString@@QAE@ABV0@@Z
  0001c	8a 46 14	 mov	 al, BYTE PTR [esi+20]
  0001f	f3 0f 10 46 10	 movss	 xmm0, DWORD PTR [esi+16]
  00024	f3 0f 11 45 ec	 movss	 DWORD PTR __Val$[ebp+16], xmm0
  00029	88 45 f0	 mov	 BYTE PTR __Val$[ebp+20], al
  0002c	83 65 fc 00	 and	 DWORD PTR __$EHRec$[ebp+8], 0

; 2603 : 	_Pop_heap(_First, _Last - 1, _Last - 1,
; 2604 : 		_Move(_Val), _Pred, _Dist_type(_First));

  00030	6a 00		 push	 0
  00032	ff 75 10	 push	 DWORD PTR __Pred$[ebp]
  00035	8d 45 dc	 lea	 eax, DWORD PTR __Val$[ebp]
  00038	50		 push	 eax
  00039	56		 push	 esi
  0003a	56		 push	 esi
  0003b	ff 75 08	 push	 DWORD PTR __First$[ebp]
  0003e	e8 00 00 00 00	 call	 ??$_Pop_heap@PAUtagBaseCharHP@@HU1@VBaseCharHPSort@@@std@@YAXPAUtagBaseCharHP@@00$$QAU1@VBaseCharHPSort@@PAH@Z ; std::_Pop_heap<tagBaseCharHP *,int,tagBaseCharHP,BaseCharHPSort>

; 2605 : 	}

  00043	83 4d fc ff	 or	 DWORD PTR __$EHRec$[ebp+8], -1
  00047	83 c4 18	 add	 esp, 24			; 00000018H
  0004a	8d 4d dc	 lea	 ecx, DWORD PTR __Val$[ebp]
  0004d	ff 15 00 00 00
	00		 call	 DWORD PTR __imp_??1ioHashString@@QAE@XZ
  00053	e8 00 00 00 00	 call	 __EH_epilog3
  00058	c3		 ret	 0
_TEXT	ENDS
;	COMDAT text$x
text$x	SEGMENT
__unwindfunclet$??$_Pop_heap_0@PAUtagBaseCharHP@@U1@VBaseCharHPSort@@@std@@YAXPAUtagBaseCharHP@@0VBaseCharHPSort@@0@Z$0:
  00000	8d 4d dc	 lea	 ecx, DWORD PTR __Val$[ebp]
  00003	e9 00 00 00 00	 jmp	 ??1tagBaseCharHP@@QAE@XZ
__ehhandler$??$_Pop_heap_0@PAUtagBaseCharHP@@U1@VBaseCharHPSort@@@std@@YAXPAUtagBaseCharHP@@0VBaseCharHPSort@@0@Z:
  00008	8b 54 24 08	 mov	 edx, DWORD PTR [esp+8]
  0000c	8d 42 0c	 lea	 eax, DWORD PTR [edx+12]
  0000f	8b 4a d8	 mov	 ecx, DWORD PTR [edx-40]
  00012	33 c8		 xor	 ecx, eax
  00014	e8 00 00 00 00	 call	 @__security_check_cookie@4
  00019	b8 00 00 00 00	 mov	 eax, OFFSET __ehfuncinfo$??$_Pop_heap_0@PAUtagBaseCharHP@@U1@VBaseCharHPSort@@@std@@YAXPAUtagBaseCharHP@@0VBaseCharHPSort@@0@Z
  0001e	e9 00 00 00 00	 jmp	 ___CxxFrameHandler3
text$x	ENDS
??$_Pop_heap_0@PAUtagBaseCharHP@@U1@VBaseCharHPSort@@@std@@YAXPAUtagBaseCharHP@@0VBaseCharHPSort@@0@Z ENDP ; std::_Pop_heap_0<tagBaseCharHP *,tagBaseCharHP,BaseCharHPSort>
PUBLIC	??$_Destroy_range@V?$allocator@UForceInfo@@@std@@@std@@YAXPAUForceInfo@@0AAV?$allocator@UForceInfo@@@0@U_Nonscalar_ptr_iterator_tag@0@@Z ; std::_Destroy_range<std::allocator<ForceInfo> >
; Function compile flags: /Ogsp
; File c:\program files (x86)\microsoft visual studio 10.0\vc\include\xmemory
;	COMDAT ??$_Destroy_range@V?$allocator@UForceInfo@@@std@@@std@@YAXPAUForceInfo@@0AAV?$allocator@UForceInfo@@@0@U_Nonscalar_ptr_iterator_tag@0@@Z
_TEXT	SEGMENT
__First$ = 8						; size = 4
__Last$ = 12						; size = 4
__Al$ = 16						; size = 4
___formal$ = 20						; size = 1
??$_Destroy_range@V?$allocator@UForceInfo@@@std@@@std@@YAXPAUForceInfo@@0AAV?$allocator@UForceInfo@@@0@U_Nonscalar_ptr_iterator_tag@0@@Z PROC ; std::_Destroy_range<std::allocator<ForceInfo> >, COMDAT

; 96   : 	for (; _First != _Last; ++_First)
; 97   : 		_Dest_val(_Al, _First);
; 98   : 	}

  00000	c3		 ret	 0
??$_Destroy_range@V?$allocator@UForceInfo@@@std@@@std@@YAXPAUForceInfo@@0AAV?$allocator@UForceInfo@@@0@U_Nonscalar_ptr_iterator_tag@0@@Z ENDP ; std::_Destroy_range<std::allocator<ForceInfo> >
_TEXT	ENDS
PUBLIC	??$_Dest_val@V?$allocator@UWeaponInfo@@@std@@UWeaponInfo@@@std@@YAXAAV?$allocator@UWeaponInfo@@@0@PAUWeaponInfo@@@Z ; std::_Dest_val<std::allocator<WeaponInfo>,WeaponInfo>
; Function compile flags: /Ogsp
;	COMDAT ??$_Dest_val@V?$allocator@UWeaponInfo@@@std@@UWeaponInfo@@@std@@YAXAAV?$allocator@UWeaponInfo@@@0@PAUWeaponInfo@@@Z
_TEXT	SEGMENT
__Alval$ = 8						; size = 4
__Pdest$ = 12						; size = 4
??$_Dest_val@V?$allocator@UWeaponInfo@@@std@@UWeaponInfo@@@std@@YAXAAV?$allocator@UWeaponInfo@@@0@PAUWeaponInfo@@@Z PROC ; std::_Dest_val<std::allocator<WeaponInfo>,WeaponInfo>, COMDAT

; 286  : 	{	// destroy using allocator

  00000	55		 push	 ebp
  00001	8b ec		 mov	 ebp, esp

; 287  : 	_Alval.destroy(_Pdest);

  00003	8b 4d 0c	 mov	 ecx, DWORD PTR __Pdest$[ebp]
  00006	83 c1 08	 add	 ecx, 8

; 288  : 	}

  00009	5d		 pop	 ebp

; 287  : 	_Alval.destroy(_Pdest);

  0000a	ff 25 00 00 00
	00		 jmp	 DWORD PTR __imp_??1ioHashString@@QAE@XZ
??$_Dest_val@V?$allocator@UWeaponInfo@@@std@@UWeaponInfo@@@std@@YAXAAV?$allocator@UWeaponInfo@@@0@PAUWeaponInfo@@@Z ENDP ; std::_Dest_val<std::allocator<WeaponInfo>,WeaponInfo>
_TEXT	ENDS
PUBLIC	??$_Uninitialized_copy@PAUForceInfo@@PAU1@V?$allocator@UForceInfo@@@std@@@std@@YAPAUForceInfo@@PAU1@00AAV?$allocator@UForceInfo@@@0@@Z ; std::_Uninitialized_copy<ForceInfo *,ForceInfo *,std::allocator<ForceInfo> >
; Function compile flags: /Ogsp
; File c:\program files (x86)\microsoft visual studio 10.0\vc\include\memory
;	COMDAT ??$_Uninitialized_copy@PAUForceInfo@@PAU1@V?$allocator@UForceInfo@@@std@@@std@@YAPAUForceInfo@@PAU1@00AAV?$allocator@UForceInfo@@@0@@Z
_TEXT	SEGMENT
__Cat$558590 = -4					; size = 1
__First$ = 8						; size = 4
__Last$ = 12						; size = 4
__Dest$ = 16						; size = 4
__Al$ = 20						; size = 4
??$_Uninitialized_copy@PAUForceInfo@@PAU1@V?$allocator@UForceInfo@@@std@@@std@@YAPAUForceInfo@@PAU1@00AAV?$allocator@UForceInfo@@@0@@Z PROC ; std::_Uninitialized_copy<ForceInfo *,ForceInfo *,std::allocator<ForceInfo> >, COMDAT

; 412  : 	{	// copy [_First, _Last) to raw _Dest, using _Al

  00000	55		 push	 ebp
  00001	8b ec		 mov	 ebp, esp
  00003	51		 push	 ecx

; 413  : 	return (_Uninit_copy(_First, _Last, _Dest, _Al,
; 414  : 		_Ptr_cat(_First, _Dest)));

  00004	ff 75 fc	 push	 DWORD PTR __Cat$558590[ebp]
  00007	ff 75 14	 push	 DWORD PTR __Al$[ebp]
  0000a	ff 75 10	 push	 DWORD PTR __Dest$[ebp]
  0000d	ff 75 0c	 push	 DWORD PTR __Last$[ebp]
  00010	ff 75 08	 push	 DWORD PTR __First$[ebp]
  00013	e8 00 00 00 00	 call	 ??$_Uninit_copy@PAUForceInfo@@PAU1@V?$allocator@UForceInfo@@@std@@@std@@YAPAUForceInfo@@PAU1@00AAV?$allocator@UForceInfo@@@0@U_Nonscalar_ptr_iterator_tag@0@@Z ; std::_Uninit_copy<ForceInfo *,ForceInfo *,std::allocator<ForceInfo> >
  00018	83 c4 14	 add	 esp, 20			; 00000014H

; 415  : 	}

  0001b	c9		 leave
  0001c	c3		 ret	 0
??$_Uninitialized_copy@PAUForceInfo@@PAU1@V?$allocator@UForceInfo@@@std@@@std@@YAPAUForceInfo@@PAU1@00AAV?$allocator@UForceInfo@@@0@@Z ENDP ; std::_Uninitialized_copy<ForceInfo *,ForceInfo *,std::allocator<ForceInfo> >
_TEXT	ENDS
PUBLIC	??$_Uninit_copy@PAUWeaponInfo@@PAU1@V?$allocator@UWeaponInfo@@@std@@@std@@YAPAUWeaponInfo@@PAU1@00AAV?$allocator@UWeaponInfo@@@0@U_Nonscalar_ptr_iterator_tag@0@@Z ; std::_Uninit_copy<WeaponInfo *,WeaponInfo *,std::allocator<WeaponInfo> >
EXTRN	__EH_prolog3_catch:PROC
;	COMDAT xdata$x
; File d:\lost saga for developer\youtube\tutorial\source\src\lsclient\playentityhelpstruct.h
xdata$x	SEGMENT
__catchsym$??$_Uninit_copy@PAUWeaponInfo@@PAU1@V?$allocator@UWeaponInfo@@@std@@@std@@YAPAUWeaponInfo@@PAU1@00AAV?$allocator@UWeaponInfo@@@0@U_Nonscalar_ptr_iterator_tag@0@@Z$3 DD 040H
	DD	00H
	DD	00H
	DD	FLAT:__catch$??$_Uninit_copy@PAUWeaponInfo@@PAU1@V?$allocator@UWeaponInfo@@@std@@@std@@YAPAUWeaponInfo@@PAU1@00AAV?$allocator@UWeaponInfo@@@0@U_Nonscalar_ptr_iterator_tag@0@@Z$0
__unwindtable$??$_Uninit_copy@PAUWeaponInfo@@PAU1@V?$allocator@UWeaponInfo@@@std@@@std@@YAPAUWeaponInfo@@PAU1@00AAV?$allocator@UWeaponInfo@@@0@U_Nonscalar_ptr_iterator_tag@0@@Z DD 0ffffffffH
	DD	00H
	DD	0ffffffffH
	DD	00H
__tryblocktable$??$_Uninit_copy@PAUWeaponInfo@@PAU1@V?$allocator@UWeaponInfo@@@std@@@std@@YAPAUWeaponInfo@@PAU1@00AAV?$allocator@UWeaponInfo@@@0@U_Nonscalar_ptr_iterator_tag@0@@Z DD 00H
	DD	00H
	DD	01H
	DD	01H
	DD	FLAT:__catchsym$??$_Uninit_copy@PAUWeaponInfo@@PAU1@V?$allocator@UWeaponInfo@@@std@@@std@@YAPAUWeaponInfo@@PAU1@00AAV?$allocator@UWeaponInfo@@@0@U_Nonscalar_ptr_iterator_tag@0@@Z$3
__ehfuncinfo$??$_Uninit_copy@PAUWeaponInfo@@PAU1@V?$allocator@UWeaponInfo@@@std@@@std@@YAPAUWeaponInfo@@PAU1@00AAV?$allocator@UWeaponInfo@@@0@U_Nonscalar_ptr_iterator_tag@0@@Z DD 019930522H
	DD	02H
	DD	FLAT:__unwindtable$??$_Uninit_copy@PAUWeaponInfo@@PAU1@V?$allocator@UWeaponInfo@@@std@@@std@@YAPAUWeaponInfo@@PAU1@00AAV?$allocator@UWeaponInfo@@@0@U_Nonscalar_ptr_iterator_tag@0@@Z
	DD	01H
	DD	FLAT:__tryblocktable$??$_Uninit_copy@PAUWeaponInfo@@PAU1@V?$allocator@UWeaponInfo@@@std@@@std@@YAPAUWeaponInfo@@PAU1@00AAV?$allocator@UWeaponInfo@@@0@U_Nonscalar_ptr_iterator_tag@0@@Z
	DD	2 DUP(00H)
	DD	00H
	DD	01H
; Function compile flags: /Ogsp
; File c:\program files (x86)\microsoft visual studio 10.0\vc\include\memory
xdata$x	ENDS
;	COMDAT ??$_Uninit_copy@PAUWeaponInfo@@PAU1@V?$allocator@UWeaponInfo@@@std@@@std@@YAPAUWeaponInfo@@PAU1@00AAV?$allocator@UWeaponInfo@@@0@U_Nonscalar_ptr_iterator_tag@0@@Z
_TEXT	SEGMENT
__Next$ = -20						; size = 4
__$EHRec$ = -16						; size = 16
__First$ = 8						; size = 4
__Last$ = 12						; size = 4
__Dest$ = 16						; size = 4
__Al$ = 20						; size = 4
___formal$ = 24						; size = 1
??$_Uninit_copy@PAUWeaponInfo@@PAU1@V?$allocator@UWeaponInfo@@@std@@@std@@YAPAUWeaponInfo@@PAU1@00AAV?$allocator@UWeaponInfo@@@0@U_Nonscalar_ptr_iterator_tag@0@@Z PROC ; std::_Uninit_copy<WeaponInfo *,WeaponInfo *,std::allocator<WeaponInfo> >, COMDAT

; 369  : 	{	// copy [_First, _Last) to raw _Dest, using _Al, arbitrary type

  00000	6a 08		 push	 8
  00002	b8 00 00 00 00	 mov	 eax, __ehhandler$??$_Uninit_copy@PAUWeaponInfo@@PAU1@V?$allocator@UWeaponInfo@@@std@@@std@@YAPAUWeaponInfo@@PAU1@00AAV?$allocator@UWeaponInfo@@@0@U_Nonscalar_ptr_iterator_tag@0@@Z
  00007	e8 00 00 00 00	 call	 __EH_prolog3_catch

; 370  : 	_DEBUG_RANGE(_First, _Last);
; 371  : 	_DEBUG_POINTER(_Dest);
; 372  : 	_FwdIt _Next = _Dest;

  0000c	8b 45 10	 mov	 eax, DWORD PTR __Dest$[ebp]

; 373  : 
; 374  : 	_TRY_BEGIN

  0000f	83 65 fc 00	 and	 DWORD PTR __$EHRec$[ebp+12], 0
  00013	8b 75 08	 mov	 esi, DWORD PTR __First$[ebp]
  00016	89 45 ec	 mov	 DWORD PTR __Next$[ebp], eax
$LL6@Uninit_cop@3:

; 375  : 	for (; _First != _Last; ++_Dest, ++_First)

  00019	3b 75 0c	 cmp	 esi, DWORD PTR __Last$[ebp]
  0001c	74 37		 je	 SHORT $LN4@Uninit_cop@3

; 376  : 		_Cons_val(_Al, _Dest, *_First);

  0001e	56		 push	 esi
  0001f	ff 75 10	 push	 DWORD PTR __Dest$[ebp]
  00022	ff 75 14	 push	 DWORD PTR __Al$[ebp]
  00025	e8 00 00 00 00	 call	 ??$_Cons_val@V?$allocator@UWeaponInfo@@@std@@UWeaponInfo@@AAU3@@std@@YAXAAV?$allocator@UWeaponInfo@@@0@PAUWeaponInfo@@AAU2@@Z ; std::_Cons_val<std::allocator<WeaponInfo>,WeaponInfo,WeaponInfo &>
  0002a	83 45 10 28	 add	 DWORD PTR __Dest$[ebp], 40 ; 00000028H
  0002e	83 c4 0c	 add	 esp, 12			; 0000000cH
  00031	83 c6 28	 add	 esi, 40			; 00000028H
  00034	eb e3		 jmp	 SHORT $LL6@Uninit_cop@3
__catch$??$_Uninit_copy@PAUWeaponInfo@@PAU1@V?$allocator@UWeaponInfo@@@std@@@std@@YAPAUWeaponInfo@@PAU1@00AAV?$allocator@UWeaponInfo@@@0@U_Nonscalar_ptr_iterator_tag@0@@Z$0:

; 377  : 	_CATCH_ALL
; 378  : 	for (; _Next != _Dest; ++_Next)

  00036	8b 75 ec	 mov	 esi, DWORD PTR __Next$[ebp]
  00039	eb 0c		 jmp	 SHORT $LN32@Uninit_cop@3
$LL3@Uninit_cop@3:

; 379  : 		_Dest_val(_Al, _Next);

  0003b	8d 4e 08	 lea	 ecx, DWORD PTR [esi+8]
  0003e	ff 15 00 00 00
	00		 call	 DWORD PTR __imp_??1ioHashString@@QAE@XZ
  00044	83 c6 28	 add	 esi, 40			; 00000028H
$LN32@Uninit_cop@3:

; 377  : 	_CATCH_ALL
; 378  : 	for (; _Next != _Dest; ++_Next)

  00047	3b 75 10	 cmp	 esi, DWORD PTR __Dest$[ebp]
  0004a	75 ef		 jne	 SHORT $LL3@Uninit_cop@3

; 380  : 	_RERAISE;

  0004c	6a 00		 push	 0
  0004e	6a 00		 push	 0
  00050	e8 00 00 00 00	 call	 __CxxThrowException@8
$LN33@Uninit_cop@3:
$LN4@Uninit_cop@3:

; 381  : 	_CATCH_END
; 382  : 	return (_Dest);

  00055	8b 45 10	 mov	 eax, DWORD PTR __Dest$[ebp]

; 383  : 	}

  00058	e8 00 00 00 00	 call	 __EH_epilog3
  0005d	c3		 ret	 0
$LN31@Uninit_cop@3:
_TEXT	ENDS
;	COMDAT text$x
text$x	SEGMENT
__ehhandler$??$_Uninit_copy@PAUWeaponInfo@@PAU1@V?$allocator@UWeaponInfo@@@std@@@std@@YAPAUWeaponInfo@@PAU1@00AAV?$allocator@UWeaponInfo@@@0@U_Nonscalar_ptr_iterator_tag@0@@Z:
  00000	8b 54 24 08	 mov	 edx, DWORD PTR [esp+8]
  00004	8d 42 0c	 lea	 eax, DWORD PTR [edx+12]
  00007	8b 4a e8	 mov	 ecx, DWORD PTR [edx-24]
  0000a	33 c8		 xor	 ecx, eax
  0000c	e8 00 00 00 00	 call	 @__security_check_cookie@4
  00011	b8 00 00 00 00	 mov	 eax, OFFSET __ehfuncinfo$??$_Uninit_copy@PAUWeaponInfo@@PAU1@V?$allocator@UWeaponInfo@@@std@@@std@@YAPAUWeaponInfo@@PAU1@00AAV?$allocator@UWeaponInfo@@@0@U_Nonscalar_ptr_iterator_tag@0@@Z
  00016	e9 00 00 00 00	 jmp	 ___CxxFrameHandler3
text$x	ENDS
??$_Uninit_copy@PAUWeaponInfo@@PAU1@V?$allocator@UWeaponInfo@@@std@@@std@@YAPAUWeaponInfo@@PAU1@00AAV?$allocator@UWeaponInfo@@@0@U_Nonscalar_ptr_iterator_tag@0@@Z ENDP ; std::_Uninit_copy<WeaponInfo *,WeaponInfo *,std::allocator<WeaponInfo> >
PUBLIC	??$_Uninitialized_copy@V?$_Vector_const_iterator@V?$_Vector_val@UForceInfo@@V?$allocator@UForceInfo@@@std@@@std@@@std@@PAUForceInfo@@V?$allocator@UForceInfo@@@2@@std@@YAPAUForceInfo@@V?$_Vector_const_iterator@V?$_Vector_val@UForceInfo@@V?$allocator@UForceInfo@@@std@@@std@@@0@0PAU1@AAV?$allocator@UForceInfo@@@0@@Z ; std::_Uninitialized_copy<std::_Vector_const_iterator<std::_Vector_val<ForceInfo,std::allocator<ForceInfo> > >,ForceInfo *,std::allocator<ForceInfo> >
; Function compile flags: /Ogsp
;	COMDAT ??$_Uninitialized_copy@V?$_Vector_const_iterator@V?$_Vector_val@UForceInfo@@V?$allocator@UForceInfo@@@std@@@std@@@std@@PAUForceInfo@@V?$allocator@UForceInfo@@@2@@std@@YAPAUForceInfo@@V?$_Vector_const_iterator@V?$_Vector_val@UForceInfo@@V?$allocator@UForceInfo@@@std@@@std@@@0@0PAU1@AAV?$allocator@UForceInfo@@@0@@Z
_TEXT	SEGMENT
__Cat$558659 = -4					; size = 1
__First$ = 8						; size = 4
__Last$ = 12						; size = 4
__Dest$ = 16						; size = 4
__Al$ = 20						; size = 4
??$_Uninitialized_copy@V?$_Vector_const_iterator@V?$_Vector_val@UForceInfo@@V?$allocator@UForceInfo@@@std@@@std@@@std@@PAUForceInfo@@V?$allocator@UForceInfo@@@2@@std@@YAPAUForceInfo@@V?$_Vector_const_iterator@V?$_Vector_val@UForceInfo@@V?$allocator@UForceInfo@@@std@@@std@@@0@0PAU1@AAV?$allocator@UForceInfo@@@0@@Z PROC ; std::_Uninitialized_copy<std::_Vector_const_iterator<std::_Vector_val<ForceInfo,std::allocator<ForceInfo> > >,ForceInfo *,std::allocator<ForceInfo> >, COMDAT

; 412  : 	{	// copy [_First, _Last) to raw _Dest, using _Al

  00000	55		 push	 ebp
  00001	8b ec		 mov	 ebp, esp
  00003	51		 push	 ecx

; 413  : 	return (_Uninit_copy(_First, _Last, _Dest, _Al,
; 414  : 		_Ptr_cat(_First, _Dest)));

  00004	ff 75 fc	 push	 DWORD PTR __Cat$558659[ebp]
  00007	ff 75 14	 push	 DWORD PTR __Al$[ebp]
  0000a	ff 75 10	 push	 DWORD PTR __Dest$[ebp]
  0000d	ff 75 0c	 push	 DWORD PTR __Last$[ebp]
  00010	ff 75 08	 push	 DWORD PTR __First$[ebp]
  00013	e8 00 00 00 00	 call	 ??$_Uninit_copy@V?$_Vector_const_iterator@V?$_Vector_val@UForceInfo@@V?$allocator@UForceInfo@@@std@@@std@@@std@@PAUForceInfo@@V?$allocator@UForceInfo@@@2@@std@@YAPAUForceInfo@@V?$_Vector_const_iterator@V?$_Vector_val@UForceInfo@@V?$allocator@UForceInfo@@@std@@@std@@@0@0PAU1@AAV?$allocator@UForceInfo@@@0@U_Nonscalar_ptr_iterator_tag@0@@Z ; std::_Uninit_copy<std::_Vector_const_iterator<std::_Vector_val<ForceInfo,std::allocator<ForceInfo> > >,ForceInfo *,std::allocator<ForceInfo> >
  00018	83 c4 14	 add	 esp, 20			; 00000014H

; 415  : 	}

  0001b	c9		 leave
  0001c	c3		 ret	 0
??$_Uninitialized_copy@V?$_Vector_const_iterator@V?$_Vector_val@UForceInfo@@V?$allocator@UForceInfo@@@std@@@std@@@std@@PAUForceInfo@@V?$allocator@UForceInfo@@@2@@std@@YAPAUForceInfo@@V?$_Vector_const_iterator@V?$_Vector_val@UForceInfo@@V?$allocator@UForceInfo@@@std@@@std@@@0@0PAU1@AAV?$allocator@UForceInfo@@@0@@Z ENDP ; std::_Uninitialized_copy<std::_Vector_const_iterator<std::_Vector_val<ForceInfo,std::allocator<ForceInfo> > >,ForceInfo *,std::allocator<ForceInfo> >
_TEXT	ENDS
PUBLIC	??$_Destroy_range@V?$allocator@UtagBaseCharHP@@@std@@@std@@YAXPAUtagBaseCharHP@@0AAV?$allocator@UtagBaseCharHP@@@0@U_Nonscalar_ptr_iterator_tag@0@@Z ; std::_Destroy_range<std::allocator<tagBaseCharHP> >
; Function compile flags: /Ogsp
; File c:\program files (x86)\microsoft visual studio 10.0\vc\include\xmemory
;	COMDAT ??$_Destroy_range@V?$allocator@UtagBaseCharHP@@@std@@@std@@YAXPAUtagBaseCharHP@@0AAV?$allocator@UtagBaseCharHP@@@0@U_Nonscalar_ptr_iterator_tag@0@@Z
_TEXT	SEGMENT
__First$ = 8						; size = 4
__Last$ = 12						; size = 4
__Al$ = 16						; size = 4
___formal$ = 20						; size = 1
??$_Destroy_range@V?$allocator@UtagBaseCharHP@@@std@@@std@@YAXPAUtagBaseCharHP@@0AAV?$allocator@UtagBaseCharHP@@@0@U_Nonscalar_ptr_iterator_tag@0@@Z PROC ; std::_Destroy_range<std::allocator<tagBaseCharHP> >, COMDAT

; 95   : 	{	// destroy [_First, _Last), arbitrary type

  00000	55		 push	 ebp
  00001	8b ec		 mov	 ebp, esp
  00003	56		 push	 esi

; 96   : 	for (; _First != _Last; ++_First)

  00004	8b 75 08	 mov	 esi, DWORD PTR __First$[ebp]
  00007	eb 0b		 jmp	 SHORT $LN20@Destroy_ra
$LL3@Destroy_ra:

; 97   : 		_Dest_val(_Al, _First);

  00009	8b ce		 mov	 ecx, esi
  0000b	ff 15 00 00 00
	00		 call	 DWORD PTR __imp_??1ioHashString@@QAE@XZ
  00011	83 c6 18	 add	 esi, 24			; 00000018H
$LN20@Destroy_ra:

; 96   : 	for (; _First != _Last; ++_First)

  00014	3b 75 0c	 cmp	 esi, DWORD PTR __Last$[ebp]
  00017	75 f0		 jne	 SHORT $LL3@Destroy_ra
  00019	5e		 pop	 esi

; 98   : 	}

  0001a	5d		 pop	 ebp
  0001b	c3		 ret	 0
??$_Destroy_range@V?$allocator@UtagBaseCharHP@@@std@@@std@@YAXPAUtagBaseCharHP@@0AAV?$allocator@UtagBaseCharHP@@@0@U_Nonscalar_ptr_iterator_tag@0@@Z ENDP ; std::_Destroy_range<std::allocator<tagBaseCharHP> >
_TEXT	ENDS
PUBLIC	??$_Unguarded_partition@PAUtagBaseCharHP@@VBaseCharHPSort@@@std@@YA?AU?$pair@PAUtagBaseCharHP@@PAU1@@0@PAUtagBaseCharHP@@0VBaseCharHPSort@@@Z ; std::_Unguarded_partition<tagBaseCharHP *,BaseCharHPSort>
; Function compile flags: /Ogsp
; File c:\program files (x86)\microsoft visual studio 10.0\vc\include\algorithm
;	COMDAT ??$_Unguarded_partition@PAUtagBaseCharHP@@VBaseCharHPSort@@@std@@YA?AU?$pair@PAUtagBaseCharHP@@PAU1@@0@PAUtagBaseCharHP@@0VBaseCharHPSort@@@Z
_TEXT	SEGMENT
__Glast$ = -8						; size = 4
__Plast$ = -4						; size = 4
___$ReturnUdt$ = 8					; size = 4
__First$ = 12						; size = 4
__Last$ = 16						; size = 4
__Pred$ = 20						; size = 1
??$_Unguarded_partition@PAUtagBaseCharHP@@VBaseCharHPSort@@@std@@YA?AU?$pair@PAUtagBaseCharHP@@PAU1@@0@PAUtagBaseCharHP@@0VBaseCharHPSort@@@Z PROC ; std::_Unguarded_partition<tagBaseCharHP *,BaseCharHPSort>, COMDAT

; 3712 : 	{	// partition [_First, _Last), using _Pred

  00000	55		 push	 ebp
  00001	8b ec		 mov	 ebp, esp
  00003	51		 push	 ecx
  00004	51		 push	 ecx

; 3713 : 	_RanIt _Mid = _First + (_Last - _First) / 2;

  00005	8b 4d 10	 mov	 ecx, DWORD PTR __Last$[ebp]
  00008	53		 push	 ebx
  00009	8b 5d 0c	 mov	 ebx, DWORD PTR __First$[ebp]
  0000c	56		 push	 esi
  0000d	57		 push	 edi
  0000e	6a 18		 push	 24			; 00000018H
  00010	8b c1		 mov	 eax, ecx
  00012	2b c3		 sub	 eax, ebx
  00014	5f		 pop	 edi
  00015	99		 cdq
  00016	8b f7		 mov	 esi, edi
  00018	f7 fe		 idiv	 esi

; 3714 : 	_Median(_First, _Mid, _Last - 1, _Pred);

  0001a	ff 75 14	 push	 DWORD PTR __Pred$[ebp]
  0001d	83 c1 e8	 add	 ecx, -24		; ffffffe8H
  00020	51		 push	 ecx
  00021	99		 cdq
  00022	2b c2		 sub	 eax, edx
  00024	8b f0		 mov	 esi, eax
  00026	d1 fe		 sar	 esi, 1
  00028	6b f6 18	 imul	 esi, 24			; 00000018H
  0002b	03 f3		 add	 esi, ebx
  0002d	56		 push	 esi
  0002e	53		 push	 ebx
  0002f	e8 00 00 00 00	 call	 ??$_Median@PAUtagBaseCharHP@@VBaseCharHPSort@@@std@@YAXPAUtagBaseCharHP@@00VBaseCharHPSort@@@Z ; std::_Median<tagBaseCharHP *,BaseCharHPSort>
  00034	83 c4 10	 add	 esp, 16			; 00000010H

; 3715 : 	_RanIt _Pfirst = _Mid;
; 3716 : 	_RanIt _Plast = _Pfirst + 1;

  00037	8d 4e 18	 lea	 ecx, DWORD PTR [esi+24]
  0003a	89 4d fc	 mov	 DWORD PTR __Plast$[ebp], ecx

; 3717 : 
; 3718 : 	while (_First < _Pfirst
; 3719 : 		&& !_DEBUG_LT_PRED(_Pred, *(_Pfirst - 1), *_Pfirst)
; 3720 : 		&& !_Pred(*_Pfirst, *(_Pfirst - 1)))

  0003d	3b de		 cmp	 ebx, esi
  0003f	0f 83 80 00 00
	00		 jae	 $LN116@Unguarded_

; 3713 : 	_RanIt _Mid = _First + (_Last - _First) / 2;

  00045	8d 46 f8	 lea	 eax, DWORD PTR [esi-8]
$LL27@Unguarded_:

; 3717 : 
; 3718 : 	while (_First < _Pfirst
; 3719 : 		&& !_DEBUG_LT_PRED(_Pred, *(_Pfirst - 1), *_Pfirst)
; 3720 : 		&& !_Pred(*_Pfirst, *(_Pfirst - 1)))

  00048	80 78 04 00	 cmp	 BYTE PTR [eax+4], 0
  0004c	75 15		 jne	 SHORT $LN32@Unguarded_
  0004e	f3 0f 10 00	 movss	 xmm0, DWORD PTR [eax]
  00052	f3 0f 10 48 18	 movss	 xmm1, DWORD PTR [eax+24]
  00057	0f 5a c0	 cvtps2pd xmm0, xmm0
  0005a	0f 5a c9	 cvtps2pd xmm1, xmm1
  0005d	66 0f 2f c8	 comisd	 xmm1, xmm0
  00061	77 62		 ja	 SHORT $LN116@Unguarded_
$LN32@Unguarded_:
  00063	80 78 1c 00	 cmp	 BYTE PTR [eax+28], 0
  00067	75 15		 jne	 SHORT $LN36@Unguarded_
  00069	f3 0f 10 40 18	 movss	 xmm0, DWORD PTR [eax+24]
  0006e	f3 0f 10 08	 movss	 xmm1, DWORD PTR [eax]
  00072	0f 5a c0	 cvtps2pd xmm0, xmm0
  00075	0f 5a c9	 cvtps2pd xmm1, xmm1
  00078	66 0f 2f c8	 comisd	 xmm1, xmm0
  0007c	77 47		 ja	 SHORT $LN116@Unguarded_
$LN36@Unguarded_:

; 3721 : 		--_Pfirst;

  0007e	2b f7		 sub	 esi, edi
  00080	2b c7		 sub	 eax, edi
  00082	3b de		 cmp	 ebx, esi
  00084	72 c2		 jb	 SHORT $LL27@Unguarded_

; 3725 : 		++_Plast;

  00086	eb 3d		 jmp	 SHORT $LN116@Unguarded_
$LL25@Unguarded_:

; 3722 : 	while (_Plast < _Last
; 3723 : 		&& !_DEBUG_LT_PRED(_Pred, *_Plast, *_Pfirst)
; 3724 : 		&& !_Pred(*_Pfirst, *_Plast))

  00088	80 79 14 00	 cmp	 BYTE PTR [ecx+20], 0
  0008c	75 16		 jne	 SHORT $LN40@Unguarded_
  0008e	f3 0f 10 41 10	 movss	 xmm0, DWORD PTR [ecx+16]
  00093	f3 0f 10 4e 10	 movss	 xmm1, DWORD PTR [esi+16]
  00098	0f 5a c0	 cvtps2pd xmm0, xmm0
  0009b	0f 5a c9	 cvtps2pd xmm1, xmm1
  0009e	66 0f 2f c8	 comisd	 xmm1, xmm0
  000a2	77 26		 ja	 SHORT $LN112@Unguarded_
$LN40@Unguarded_:
  000a4	80 7e 14 00	 cmp	 BYTE PTR [esi+20], 0
  000a8	75 16		 jne	 SHORT $LN44@Unguarded_
  000aa	f3 0f 10 46 10	 movss	 xmm0, DWORD PTR [esi+16]
  000af	f3 0f 10 49 10	 movss	 xmm1, DWORD PTR [ecx+16]
  000b4	0f 5a c0	 cvtps2pd xmm0, xmm0
  000b7	0f 5a c9	 cvtps2pd xmm1, xmm1
  000ba	66 0f 2f c8	 comisd	 xmm1, xmm0
  000be	77 0a		 ja	 SHORT $LN112@Unguarded_
$LN44@Unguarded_:

; 3725 : 		++_Plast;

  000c0	03 cf		 add	 ecx, edi
  000c2	89 4d fc	 mov	 DWORD PTR __Plast$[ebp], ecx
$LN116@Unguarded_:

; 3722 : 	while (_Plast < _Last
; 3723 : 		&& !_DEBUG_LT_PRED(_Pred, *_Plast, *_Pfirst)
; 3724 : 		&& !_Pred(*_Pfirst, *_Plast))

  000c5	3b 4d 10	 cmp	 ecx, DWORD PTR __Last$[ebp]
  000c8	72 be		 jb	 SHORT $LL25@Unguarded_
$LN112@Unguarded_:

; 3726 : 
; 3727 : 	_RanIt _Gfirst = _Plast;

  000ca	8b d9		 mov	 ebx, ecx

; 3728 : 	_RanIt _Glast = _Pfirst;

  000cc	89 75 f8	 mov	 DWORD PTR __Glast$[ebp], esi

; 3729 : 
; 3730 : 	for (; ; )
; 3731 : 		{	// partition
; 3732 : 		for (; _Gfirst < _Last; ++_Gfirst)

  000cf	eb 49		 jmp	 SHORT $LN118@Unguarded_
$LL21@Unguarded_:

; 3733 : 			if (_DEBUG_LT_PRED(_Pred, *_Pfirst, *_Gfirst))

  000d1	80 7e 14 00	 cmp	 BYTE PTR [esi+20], 0
  000d5	75 16		 jne	 SHORT $LN46@Unguarded_
  000d7	f3 0f 10 46 10	 movss	 xmm0, DWORD PTR [esi+16]
  000dc	f3 0f 10 4b 10	 movss	 xmm1, DWORD PTR [ebx+16]
  000e1	0f 5a c0	 cvtps2pd xmm0, xmm0
  000e4	0f 5a c9	 cvtps2pd xmm1, xmm1
  000e7	66 0f 2f c8	 comisd	 xmm1, xmm0
  000eb	77 2b		 ja	 SHORT $LN20@Unguarded_
$LN46@Unguarded_:

; 3734 : 				;
; 3735 : 			else if (_Pred(*_Gfirst, *_Pfirst))

  000ed	80 7b 14 00	 cmp	 BYTE PTR [ebx+20], 0
  000f1	75 16		 jne	 SHORT $LN52@Unguarded_
  000f3	f3 0f 10 43 10	 movss	 xmm0, DWORD PTR [ebx+16]
  000f8	f3 0f 10 4e 10	 movss	 xmm1, DWORD PTR [esi+16]
  000fd	0f 5a c0	 cvtps2pd xmm0, xmm0
  00100	0f 5a c9	 cvtps2pd xmm1, xmm1
  00103	66 0f 2f c8	 comisd	 xmm1, xmm0
  00107	77 16		 ja	 SHORT $LN113@Unguarded_
$LN52@Unguarded_:

; 3736 : 				break;
; 3737 : 			else
; 3738 : 				_STD iter_swap(_Plast++, _Gfirst);

  00109	8b 45 fc	 mov	 eax, DWORD PTR __Plast$[ebp]
  0010c	01 7d fc	 add	 DWORD PTR __Plast$[ebp], edi
  0010f	53		 push	 ebx
  00110	50		 push	 eax
$LN120@Unguarded_:
  00111	e8 00 00 00 00	 call	 ??$swap@UtagBaseCharHP@@@std@@YAXAAUtagBaseCharHP@@0@Z ; std::swap<tagBaseCharHP>
  00116	59		 pop	 ecx
  00117	59		 pop	 ecx
$LN20@Unguarded_:

; 3729 : 
; 3730 : 	for (; ; )
; 3731 : 		{	// partition
; 3732 : 		for (; _Gfirst < _Last; ++_Gfirst)

  00118	03 df		 add	 ebx, edi
$LN118@Unguarded_:
  0011a	3b 5d 10	 cmp	 ebx, DWORD PTR __Last$[ebp]
  0011d	72 b2		 jb	 SHORT $LL21@Unguarded_
$LN113@Unguarded_:

; 3739 : 		for (; _First < _Glast; --_Glast)

  0011f	8b 45 f8	 mov	 eax, DWORD PTR __Glast$[ebp]
  00122	3b 45 0c	 cmp	 eax, DWORD PTR __First$[ebp]
  00125	76 5f		 jbe	 SHORT $LN119@Unguarded_
  00127	8d 78 f8	 lea	 edi, DWORD PTR [eax-8]
$LL14@Unguarded_:

; 3740 : 			if (_DEBUG_LT_PRED(_Pred, *(_Glast - 1), *_Pfirst))

  0012a	80 7f 04 00	 cmp	 BYTE PTR [edi+4], 0
  0012e	75 15		 jne	 SHORT $LN56@Unguarded_
  00130	f3 0f 10 07	 movss	 xmm0, DWORD PTR [edi]
  00134	f3 0f 10 4e 10	 movss	 xmm1, DWORD PTR [esi+16]
  00139	0f 5a c0	 cvtps2pd xmm0, xmm0
  0013c	0f 5a c9	 cvtps2pd xmm1, xmm1
  0013f	66 0f 2f c8	 comisd	 xmm1, xmm0
  00143	77 2a		 ja	 SHORT $LN13@Unguarded_
$LN56@Unguarded_:

; 3741 : 				;
; 3742 : 			else if (_Pred(*_Pfirst, *(_Glast - 1)))

  00145	80 7e 14 00	 cmp	 BYTE PTR [esi+20], 0
  00149	75 15		 jne	 SHORT $LN62@Unguarded_
  0014b	f3 0f 10 46 10	 movss	 xmm0, DWORD PTR [esi+16]
  00150	f3 0f 10 0f	 movss	 xmm1, DWORD PTR [edi]
  00154	0f 5a c0	 cvtps2pd xmm0, xmm0
  00157	0f 5a c9	 cvtps2pd xmm1, xmm1
  0015a	66 0f 2f c8	 comisd	 xmm1, xmm0
  0015e	77 20		 ja	 SHORT $LN115@Unguarded_
$LN62@Unguarded_:

; 3743 : 				break;
; 3744 : 			else
; 3745 : 				_STD iter_swap(--_Pfirst, _Glast - 1);

  00160	8d 47 f0	 lea	 eax, DWORD PTR [edi-16]
  00163	83 ee 18	 sub	 esi, 24			; 00000018H
  00166	50		 push	 eax
  00167	56		 push	 esi
  00168	e8 00 00 00 00	 call	 ??$swap@UtagBaseCharHP@@@std@@YAXAAUtagBaseCharHP@@0@Z ; std::swap<tagBaseCharHP>
  0016d	59		 pop	 ecx
  0016e	59		 pop	 ecx
$LN13@Unguarded_:

; 3739 : 		for (; _First < _Glast; --_Glast)

  0016f	8b 45 f8	 mov	 eax, DWORD PTR __Glast$[ebp]
  00172	83 e8 18	 sub	 eax, 24			; 00000018H
  00175	83 ef 18	 sub	 edi, 24			; 00000018H
  00178	89 45 f8	 mov	 DWORD PTR __Glast$[ebp], eax
  0017b	39 45 0c	 cmp	 DWORD PTR __First$[ebp], eax
  0017e	72 aa		 jb	 SHORT $LL14@Unguarded_
$LN115@Unguarded_:

; 3746 : 		if (_Glast == _First && _Gfirst == _Last)

  00180	3b 45 0c	 cmp	 eax, DWORD PTR __First$[ebp]
  00183	6a 18		 push	 24			; 00000018H
  00185	5f		 pop	 edi
$LN119@Unguarded_:
  00186	75 20		 jne	 SHORT $LN6@Unguarded_
  00188	3b 5d 10	 cmp	 ebx, DWORD PTR __Last$[ebp]
  0018b	74 4e		 je	 SHORT $LN96@Unguarded_

; 3748 : 
; 3749 : 		if (_Glast == _First)
; 3750 : 			{	// no room at bottom, rotate pivot upward
; 3751 : 			if (_Plast != _Gfirst)

  0018d	39 5d fc	 cmp	 DWORD PTR __Plast$[ebp], ebx
  00190	74 0b		 je	 SHORT $LN78@Unguarded_

; 3752 : 				_STD iter_swap(_Pfirst, _Plast);

  00192	ff 75 fc	 push	 DWORD PTR __Plast$[ebp]
  00195	56		 push	 esi
  00196	e8 00 00 00 00	 call	 ??$swap@UtagBaseCharHP@@@std@@YAXAAUtagBaseCharHP@@0@Z ; std::swap<tagBaseCharHP>
  0019b	59		 pop	 ecx
  0019c	59		 pop	 ecx
$LN78@Unguarded_:

; 3753 : 			++_Plast;

  0019d	01 7d fc	 add	 DWORD PTR __Plast$[ebp], edi

; 3754 : 			_STD iter_swap(_Pfirst++, _Gfirst++);

  001a0	53		 push	 ebx
  001a1	56		 push	 esi
  001a2	03 f7		 add	 esi, edi
  001a4	03 df		 add	 ebx, edi
  001a6	eb 20		 jmp	 SHORT $LN117@Unguarded_
$LN6@Unguarded_:

; 3755 : 			}
; 3756 : 		else if (_Gfirst == _Last)
; 3757 : 			{	// no room at top, rotate pivot downward
; 3758 : 			if (--_Glast != --_Pfirst)

  001a8	2b c7		 sub	 eax, edi
  001aa	89 45 f8	 mov	 DWORD PTR __Glast$[ebp], eax
  001ad	3b 5d 10	 cmp	 ebx, DWORD PTR __Last$[ebp]
  001b0	75 22		 jne	 SHORT $LN3@Unguarded_
  001b2	2b f7		 sub	 esi, edi
  001b4	3b c6		 cmp	 eax, esi
  001b6	74 09		 je	 SHORT $LN82@Unguarded_

; 3759 : 				_STD iter_swap(_Glast, _Pfirst);

  001b8	56		 push	 esi
  001b9	50		 push	 eax
  001ba	e8 00 00 00 00	 call	 ??$swap@UtagBaseCharHP@@@std@@YAXAAUtagBaseCharHP@@0@Z ; std::swap<tagBaseCharHP>
  001bf	59		 pop	 ecx
  001c0	59		 pop	 ecx
$LN82@Unguarded_:

; 3760 : 			_STD iter_swap(_Pfirst, --_Plast);

  001c1	29 7d fc	 sub	 DWORD PTR __Plast$[ebp], edi
  001c4	ff 75 fc	 push	 DWORD PTR __Plast$[ebp]
  001c7	56		 push	 esi
$LN117@Unguarded_:
  001c8	e8 00 00 00 00	 call	 ??$swap@UtagBaseCharHP@@@std@@YAXAAUtagBaseCharHP@@0@Z ; std::swap<tagBaseCharHP>
  001cd	59		 pop	 ecx
  001ce	59		 pop	 ecx

; 3761 : 			}
; 3762 : 		else

  001cf	e9 46 ff ff ff	 jmp	 $LN118@Unguarded_
$LN3@Unguarded_:

; 3763 : 			_STD iter_swap(_Gfirst++, --_Glast);

  001d4	50		 push	 eax
  001d5	53		 push	 ebx

; 3764 : 		}

  001d6	e9 36 ff ff ff	 jmp	 $LN120@Unguarded_
$LN96@Unguarded_:

; 3747 : 			return (_STD pair<_RanIt, _RanIt>(_Pfirst, _Plast));

  001db	8b 45 08	 mov	 eax, DWORD PTR ___$ReturnUdt$[ebp]
  001de	8b 4d fc	 mov	 ecx, DWORD PTR __Plast$[ebp]
  001e1	5f		 pop	 edi
  001e2	89 30		 mov	 DWORD PTR [eax], esi
  001e4	5e		 pop	 esi
  001e5	89 48 04	 mov	 DWORD PTR [eax+4], ecx
  001e8	5b		 pop	 ebx

; 3765 : 	}

  001e9	c9		 leave
  001ea	c3		 ret	 0
??$_Unguarded_partition@PAUtagBaseCharHP@@VBaseCharHPSort@@@std@@YA?AU?$pair@PAUtagBaseCharHP@@PAU1@@0@PAUtagBaseCharHP@@0VBaseCharHPSort@@@Z ENDP ; std::_Unguarded_partition<tagBaseCharHP *,BaseCharHPSort>
_TEXT	ENDS
PUBLIC	??$make_heap@PAUtagBaseCharHP@@VBaseCharHPSort@@@std@@YAXPAUtagBaseCharHP@@0VBaseCharHPSort@@@Z ; std::make_heap<tagBaseCharHP *,BaseCharHPSort>
; Function compile flags: /Ogsp
;	COMDAT ??$make_heap@PAUtagBaseCharHP@@VBaseCharHPSort@@@std@@YAXPAUtagBaseCharHP@@0VBaseCharHPSort@@@Z
_TEXT	SEGMENT
__First$ = 8						; size = 4
__Last$ = 12						; size = 4
__Pred$ = 16						; size = 1
??$make_heap@PAUtagBaseCharHP@@VBaseCharHPSort@@@std@@YAXPAUtagBaseCharHP@@0VBaseCharHPSort@@@Z PROC ; std::make_heap<tagBaseCharHP *,BaseCharHPSort>, COMDAT

; 2672 : 	{	// make [_First, _Last) into a heap, using _Pred

  00000	55		 push	 ebp
  00001	8b ec		 mov	 ebp, esp

; 2673 : 	_DEBUG_RANGE(_First, _Last);
; 2674 : 	_DEBUG_POINTER(_Pred);
; 2675 : 	if (1 < _Last - _First)

  00003	8b 45 0c	 mov	 eax, DWORD PTR __Last$[ebp]
  00006	2b 45 08	 sub	 eax, DWORD PTR __First$[ebp]
  00009	6a 18		 push	 24			; 00000018H
  0000b	99		 cdq
  0000c	59		 pop	 ecx
  0000d	f7 f9		 idiv	 ecx
  0000f	83 f8 01	 cmp	 eax, 1
  00012	7e 15		 jle	 SHORT $LN1@make_heap

; 2676 : 		_Make_heap(_Unchecked(_First), _Unchecked(_Last), _Pred,
; 2677 : 			_Dist_type(_First), _Val_type(_First));

  00014	6a 00		 push	 0
  00016	6a 00		 push	 0
  00018	ff 75 10	 push	 DWORD PTR __Pred$[ebp]
  0001b	ff 75 0c	 push	 DWORD PTR __Last$[ebp]
  0001e	ff 75 08	 push	 DWORD PTR __First$[ebp]
  00021	e8 00 00 00 00	 call	 ??$_Make_heap@PAUtagBaseCharHP@@HU1@VBaseCharHPSort@@@std@@YAXPAUtagBaseCharHP@@0VBaseCharHPSort@@PAH0@Z ; std::_Make_heap<tagBaseCharHP *,int,tagBaseCharHP,BaseCharHPSort>
  00026	83 c4 14	 add	 esp, 20			; 00000014H
$LN1@make_heap:

; 2678 : 	}

  00029	5d		 pop	 ebp
  0002a	c3		 ret	 0
??$make_heap@PAUtagBaseCharHP@@VBaseCharHPSort@@@std@@YAXPAUtagBaseCharHP@@0VBaseCharHPSort@@@Z ENDP ; std::make_heap<tagBaseCharHP *,BaseCharHPSort>
_TEXT	ENDS
PUBLIC	??$_Uninit_copy@V?$_Vector_const_iterator@V?$_Vector_val@UWeaponInfo@@V?$allocator@UWeaponInfo@@@std@@@std@@@std@@PAUWeaponInfo@@V?$allocator@UWeaponInfo@@@2@@std@@YAPAUWeaponInfo@@V?$_Vector_const_iterator@V?$_Vector_val@UWeaponInfo@@V?$allocator@UWeaponInfo@@@std@@@std@@@0@0PAU1@AAV?$allocator@UWeaponInfo@@@0@U_Nonscalar_ptr_iterator_tag@0@@Z ; std::_Uninit_copy<std::_Vector_const_iterator<std::_Vector_val<WeaponInfo,std::allocator<WeaponInfo> > >,WeaponInfo *,std::allocator<WeaponInfo> >
;	COMDAT xdata$x
; File d:\lost saga for developer\youtube\tutorial\source\src\lsclient\playentityhelpstruct.h
xdata$x	SEGMENT
__catchsym$??$_Uninit_copy@V?$_Vector_const_iterator@V?$_Vector_val@UWeaponInfo@@V?$allocator@UWeaponInfo@@@std@@@std@@@std@@PAUWeaponInfo@@V?$allocator@UWeaponInfo@@@2@@std@@YAPAUWeaponInfo@@V?$_Vector_const_iterator@V?$_Vector_val@UWeaponInfo@@V?$allocator@UWeaponInfo@@@std@@@std@@@0@0PAU1@AAV?$allocator@UWeaponInfo@@@0@U_Nonscalar_ptr_iterator_tag@0@@Z$3 DD 040H
	DD	00H
	DD	00H
	DD	FLAT:__catch$??$_Uninit_copy@V?$_Vector_const_iterator@V?$_Vector_val@UWeaponInfo@@V?$allocator@UWeaponInfo@@@std@@@std@@@std@@PAUWeaponInfo@@V?$allocator@UWeaponInfo@@@2@@std@@YAPAUWeaponInfo@@V?$_Vector_const_iterator@V?$_Vector_val@UWeaponInfo@@V?$allocator@UWeaponInfo@@@std@@@std@@@0@0PAU1@AAV?$allocator@UWeaponInfo@@@0@U_Nonscalar_ptr_iterator_tag@0@@Z$0
__unwindtable$??$_Uninit_copy@V?$_Vector_const_iterator@V?$_Vector_val@UWeaponInfo@@V?$allocator@UWeaponInfo@@@std@@@std@@@std@@PAUWeaponInfo@@V?$allocator@UWeaponInfo@@@2@@std@@YAPAUWeaponInfo@@V?$_Vector_const_iterator@V?$_Vector_val@UWeaponInfo@@V?$allocator@UWeaponInfo@@@std@@@std@@@0@0PAU1@AAV?$allocator@UWeaponInfo@@@0@U_Nonscalar_ptr_iterator_tag@0@@Z DD 0ffffffffH
	DD	00H
	DD	0ffffffffH
	DD	00H
__tryblocktable$??$_Uninit_copy@V?$_Vector_const_iterator@V?$_Vector_val@UWeaponInfo@@V?$allocator@UWeaponInfo@@@std@@@std@@@std@@PAUWeaponInfo@@V?$allocator@UWeaponInfo@@@2@@std@@YAPAUWeaponInfo@@V?$_Vector_const_iterator@V?$_Vector_val@UWeaponInfo@@V?$allocator@UWeaponInfo@@@std@@@std@@@0@0PAU1@AAV?$allocator@UWeaponInfo@@@0@U_Nonscalar_ptr_iterator_tag@0@@Z DD 00H
	DD	00H
	DD	01H
	DD	01H
	DD	FLAT:__catchsym$??$_Uninit_copy@V?$_Vector_const_iterator@V?$_Vector_val@UWeaponInfo@@V?$allocator@UWeaponInfo@@@std@@@std@@@std@@PAUWeaponInfo@@V?$allocator@UWeaponInfo@@@2@@std@@YAPAUWeaponInfo@@V?$_Vector_const_iterator@V?$_Vector_val@UWeaponInfo@@V?$allocator@UWeaponInfo@@@std@@@std@@@0@0PAU1@AAV?$allocator@UWeaponInfo@@@0@U_Nonscalar_ptr_iterator_tag@0@@Z$3
__ehfuncinfo$??$_Uninit_copy@V?$_Vector_const_iterator@V?$_Vector_val@UWeaponInfo@@V?$allocator@UWeaponInfo@@@std@@@std@@@std@@PAUWeaponInfo@@V?$allocator@UWeaponInfo@@@2@@std@@YAPAUWeaponInfo@@V?$_Vector_const_iterator@V?$_Vector_val@UWeaponInfo@@V?$allocator@UWeaponInfo@@@std@@@std@@@0@0PAU1@AAV?$allocator@UWeaponInfo@@@0@U_Nonscalar_ptr_iterator_tag@0@@Z DD 019930522H
	DD	02H
	DD	FLAT:__unwindtable$??$_Uninit_copy@V?$_Vector_const_iterator@V?$_Vector_val@UWeaponInfo@@V?$allocator@UWeaponInfo@@@std@@@std@@@std@@PAUWeaponInfo@@V?$allocator@UWeaponInfo@@@2@@std@@YAPAUWeaponInfo@@V?$_Vector_const_iterator@V?$_Vector_val@UWeaponInfo@@V?$allocator@UWeaponInfo@@@std@@@std@@@0@0PAU1@AAV?$allocator@UWeaponInfo@@@0@U_Nonscalar_ptr_iterator_tag@0@@Z
	DD	01H
	DD	FLAT:__tryblocktable$??$_Uninit_copy@V?$_Vector_const_iterator@V?$_Vector_val@UWeaponInfo@@V?$allocator@UWeaponInfo@@@std@@@std@@@std@@PAUWeaponInfo@@V?$allocator@UWeaponInfo@@@2@@std@@YAPAUWeaponInfo@@V?$_Vector_const_iterator@V?$_Vector_val@UWeaponInfo@@V?$allocator@UWeaponInfo@@@std@@@std@@@0@0PAU1@AAV?$allocator@UWeaponInfo@@@0@U_Nonscalar_ptr_iterator_tag@0@@Z
	DD	2 DUP(00H)
	DD	00H
	DD	01H
; Function compile flags: /Ogsp
; File c:\program files (x86)\microsoft visual studio 10.0\vc\include\memory
xdata$x	ENDS
;	COMDAT ??$_Uninit_copy@V?$_Vector_const_iterator@V?$_Vector_val@UWeaponInfo@@V?$allocator@UWeaponInfo@@@std@@@std@@@std@@PAUWeaponInfo@@V?$allocator@UWeaponInfo@@@2@@std@@YAPAUWeaponInfo@@V?$_Vector_const_iterator@V?$_Vector_val@UWeaponInfo@@V?$allocator@UWeaponInfo@@@std@@@std@@@0@0PAU1@AAV?$allocator@UWeaponInfo@@@0@U_Nonscalar_ptr_iterator_tag@0@@Z
_TEXT	SEGMENT
__Next$ = -20						; size = 4
__$EHRec$ = -16						; size = 16
__First$ = 8						; size = 4
__Last$ = 12						; size = 4
__Dest$ = 16						; size = 4
__Al$ = 20						; size = 4
___formal$ = 24						; size = 1
??$_Uninit_copy@V?$_Vector_const_iterator@V?$_Vector_val@UWeaponInfo@@V?$allocator@UWeaponInfo@@@std@@@std@@@std@@PAUWeaponInfo@@V?$allocator@UWeaponInfo@@@2@@std@@YAPAUWeaponInfo@@V?$_Vector_const_iterator@V?$_Vector_val@UWeaponInfo@@V?$allocator@UWeaponInfo@@@std@@@std@@@0@0PAU1@AAV?$allocator@UWeaponInfo@@@0@U_Nonscalar_ptr_iterator_tag@0@@Z PROC ; std::_Uninit_copy<std::_Vector_const_iterator<std::_Vector_val<WeaponInfo,std::allocator<WeaponInfo> > >,WeaponInfo *,std::allocator<WeaponInfo> >, COMDAT

; 369  : 	{	// copy [_First, _Last) to raw _Dest, using _Al, arbitrary type

  00000	6a 08		 push	 8
  00002	b8 00 00 00 00	 mov	 eax, __ehhandler$??$_Uninit_copy@V?$_Vector_const_iterator@V?$_Vector_val@UWeaponInfo@@V?$allocator@UWeaponInfo@@@std@@@std@@@std@@PAUWeaponInfo@@V?$allocator@UWeaponInfo@@@2@@std@@YAPAUWeaponInfo@@V?$_Vector_const_iterator@V?$_Vector_val@UWeaponInfo@@V?$allocator@UWeaponInfo@@@std@@@std@@@0@0PAU1@AAV?$allocator@UWeaponInfo@@@0@U_Nonscalar_ptr_iterator_tag@0@@Z
  00007	e8 00 00 00 00	 call	 __EH_prolog3_catch

; 370  : 	_DEBUG_RANGE(_First, _Last);
; 371  : 	_DEBUG_POINTER(_Dest);
; 372  : 	_FwdIt _Next = _Dest;

  0000c	8b 45 10	 mov	 eax, DWORD PTR __Dest$[ebp]

; 373  : 
; 374  : 	_TRY_BEGIN

  0000f	83 65 fc 00	 and	 DWORD PTR __$EHRec$[ebp+12], 0
  00013	89 45 ec	 mov	 DWORD PTR __Next$[ebp], eax

; 375  : 	for (; _First != _Last; ++_Dest, ++_First)

$LL14@Uninit_cop@4:
  00016	8b 45 08	 mov	 eax, DWORD PTR __First$[ebp]
  00019	3b 45 0c	 cmp	 eax, DWORD PTR __Last$[ebp]
  0001c	74 34		 je	 SHORT $LN4@Uninit_cop@4

; 376  : 		_Cons_val(_Al, _Dest, *_First);

  0001e	50		 push	 eax
  0001f	ff 75 10	 push	 DWORD PTR __Dest$[ebp]
  00022	e8 00 00 00 00	 call	 ??$_Construct@UWeaponInfo@@ABU1@@std@@YAXPAUWeaponInfo@@ABU1@@Z ; std::_Construct<WeaponInfo,WeaponInfo const &>
  00027	83 45 10 28	 add	 DWORD PTR __Dest$[ebp], 40 ; 00000028H
  0002b	83 45 08 28	 add	 DWORD PTR __First$[ebp], 40 ; 00000028H
  0002f	59		 pop	 ecx
  00030	59		 pop	 ecx
  00031	eb e3		 jmp	 SHORT $LL14@Uninit_cop@4
__catch$??$_Uninit_copy@V?$_Vector_const_iterator@V?$_Vector_val@UWeaponInfo@@V?$allocator@UWeaponInfo@@@std@@@std@@@std@@PAUWeaponInfo@@V?$allocator@UWeaponInfo@@@2@@std@@YAPAUWeaponInfo@@V?$_Vector_const_iterator@V?$_Vector_val@UWeaponInfo@@V?$allocator@UWeaponInfo@@@std@@@std@@@0@0PAU1@AAV?$allocator@UWeaponInfo@@@0@U_Nonscalar_ptr_iterator_tag@0@@Z$0:

; 377  : 	_CATCH_ALL
; 378  : 	for (; _Next != _Dest; ++_Next)

  00033	8b 75 ec	 mov	 esi, DWORD PTR __Next$[ebp]
  00036	eb 0c		 jmp	 SHORT $LN48@Uninit_cop@4
$LL3@Uninit_cop@4:

; 379  : 		_Dest_val(_Al, _Next);

  00038	8d 4e 08	 lea	 ecx, DWORD PTR [esi+8]
  0003b	ff 15 00 00 00
	00		 call	 DWORD PTR __imp_??1ioHashString@@QAE@XZ
  00041	83 c6 28	 add	 esi, 40			; 00000028H
$LN48@Uninit_cop@4:

; 377  : 	_CATCH_ALL
; 378  : 	for (; _Next != _Dest; ++_Next)

  00044	3b 75 10	 cmp	 esi, DWORD PTR __Dest$[ebp]
  00047	75 ef		 jne	 SHORT $LL3@Uninit_cop@4

; 380  : 	_RERAISE;

  00049	6a 00		 push	 0
  0004b	6a 00		 push	 0
  0004d	e8 00 00 00 00	 call	 __CxxThrowException@8
$LN49@Uninit_cop@4:
$LN4@Uninit_cop@4:

; 381  : 	_CATCH_END
; 382  : 	return (_Dest);

  00052	8b 45 10	 mov	 eax, DWORD PTR __Dest$[ebp]

; 383  : 	}

  00055	e8 00 00 00 00	 call	 __EH_epilog3
  0005a	c3		 ret	 0
$LN47@Uninit_cop@4:
_TEXT	ENDS
;	COMDAT text$x
text$x	SEGMENT
__ehhandler$??$_Uninit_copy@V?$_Vector_const_iterator@V?$_Vector_val@UWeaponInfo@@V?$allocator@UWeaponInfo@@@std@@@std@@@std@@PAUWeaponInfo@@V?$allocator@UWeaponInfo@@@2@@std@@YAPAUWeaponInfo@@V?$_Vector_const_iterator@V?$_Vector_val@UWeaponInfo@@V?$allocator@UWeaponInfo@@@std@@@std@@@0@0PAU1@AAV?$allocator@UWeaponInfo@@@0@U_Nonscalar_ptr_iterator_tag@0@@Z:
  00000	8b 54 24 08	 mov	 edx, DWORD PTR [esp+8]
  00004	8d 42 0c	 lea	 eax, DWORD PTR [edx+12]
  00007	8b 4a e8	 mov	 ecx, DWORD PTR [edx-24]
  0000a	33 c8		 xor	 ecx, eax
  0000c	e8 00 00 00 00	 call	 @__security_check_cookie@4
  00011	b8 00 00 00 00	 mov	 eax, OFFSET __ehfuncinfo$??$_Uninit_copy@V?$_Vector_const_iterator@V?$_Vector_val@UWeaponInfo@@V?$allocator@UWeaponInfo@@@std@@@std@@@std@@PAUWeaponInfo@@V?$allocator@UWeaponInfo@@@2@@std@@YAPAUWeaponInfo@@V?$_Vector_const_iterator@V?$_Vector_val@UWeaponInfo@@V?$allocator@UWeaponInfo@@@std@@@std@@@0@0PAU1@AAV?$allocator@UWeaponInfo@@@0@U_Nonscalar_ptr_iterator_tag@0@@Z
  00016	e9 00 00 00 00	 jmp	 ___CxxFrameHandler3
text$x	ENDS
??$_Uninit_copy@V?$_Vector_const_iterator@V?$_Vector_val@UWeaponInfo@@V?$allocator@UWeaponInfo@@@std@@@std@@@std@@PAUWeaponInfo@@V?$allocator@UWeaponInfo@@@2@@std@@YAPAUWeaponInfo@@V?$_Vector_const_iterator@V?$_Vector_val@UWeaponInfo@@V?$allocator@UWeaponInfo@@@std@@@std@@@0@0PAU1@AAV?$allocator@UWeaponInfo@@@0@U_Nonscalar_ptr_iterator_tag@0@@Z ENDP ; std::_Uninit_copy<std::_Vector_const_iterator<std::_Vector_val<WeaponInfo,std::allocator<WeaponInfo> > >,WeaponInfo *,std::allocator<WeaponInfo> >
PUBLIC	??$_Uninit_move@PAUtagBaseCharHP@@PAU1@V?$allocator@UtagBaseCharHP@@@std@@U1@@std@@YAPAUtagBaseCharHP@@PAU1@00AAV?$allocator@UtagBaseCharHP@@@0@0U_Nonscalar_ptr_iterator_tag@0@@Z ; std::_Uninit_move<tagBaseCharHP *,tagBaseCharHP *,std::allocator<tagBaseCharHP>,tagBaseCharHP>
;	COMDAT xdata$x
; File d:\lost saga for developer\youtube\tutorial\source\src\lsclient\iotargettimingattackskill.cpp
xdata$x	SEGMENT
__catchsym$??$_Uninit_move@PAUtagBaseCharHP@@PAU1@V?$allocator@UtagBaseCharHP@@@std@@U1@@std@@YAPAUtagBaseCharHP@@PAU1@00AAV?$allocator@UtagBaseCharHP@@@0@0U_Nonscalar_ptr_iterator_tag@0@@Z$3 DD 040H
	DD	00H
	DD	00H
	DD	FLAT:__catch$??$_Uninit_move@PAUtagBaseCharHP@@PAU1@V?$allocator@UtagBaseCharHP@@@std@@U1@@std@@YAPAUtagBaseCharHP@@PAU1@00AAV?$allocator@UtagBaseCharHP@@@0@0U_Nonscalar_ptr_iterator_tag@0@@Z$0
__unwindtable$??$_Uninit_move@PAUtagBaseCharHP@@PAU1@V?$allocator@UtagBaseCharHP@@@std@@U1@@std@@YAPAUtagBaseCharHP@@PAU1@00AAV?$allocator@UtagBaseCharHP@@@0@0U_Nonscalar_ptr_iterator_tag@0@@Z DD 0ffffffffH
	DD	00H
	DD	0ffffffffH
	DD	00H
__tryblocktable$??$_Uninit_move@PAUtagBaseCharHP@@PAU1@V?$allocator@UtagBaseCharHP@@@std@@U1@@std@@YAPAUtagBaseCharHP@@PAU1@00AAV?$allocator@UtagBaseCharHP@@@0@0U_Nonscalar_ptr_iterator_tag@0@@Z DD 00H
	DD	00H
	DD	01H
	DD	01H
	DD	FLAT:__catchsym$??$_Uninit_move@PAUtagBaseCharHP@@PAU1@V?$allocator@UtagBaseCharHP@@@std@@U1@@std@@YAPAUtagBaseCharHP@@PAU1@00AAV?$allocator@UtagBaseCharHP@@@0@0U_Nonscalar_ptr_iterator_tag@0@@Z$3
__ehfuncinfo$??$_Uninit_move@PAUtagBaseCharHP@@PAU1@V?$allocator@UtagBaseCharHP@@@std@@U1@@std@@YAPAUtagBaseCharHP@@PAU1@00AAV?$allocator@UtagBaseCharHP@@@0@0U_Nonscalar_ptr_iterator_tag@0@@Z DD 019930522H
	DD	02H
	DD	FLAT:__unwindtable$??$_Uninit_move@PAUtagBaseCharHP@@PAU1@V?$allocator@UtagBaseCharHP@@@std@@U1@@std@@YAPAUtagBaseCharHP@@PAU1@00AAV?$allocator@UtagBaseCharHP@@@0@0U_Nonscalar_ptr_iterator_tag@0@@Z
	DD	01H
	DD	FLAT:__tryblocktable$??$_Uninit_move@PAUtagBaseCharHP@@PAU1@V?$allocator@UtagBaseCharHP@@@std@@U1@@std@@YAPAUtagBaseCharHP@@PAU1@00AAV?$allocator@UtagBaseCharHP@@@0@0U_Nonscalar_ptr_iterator_tag@0@@Z
	DD	2 DUP(00H)
	DD	00H
	DD	01H
; Function compile flags: /Ogsp
; File c:\program files (x86)\microsoft visual studio 10.0\vc\include\memory
xdata$x	ENDS
;	COMDAT ??$_Uninit_move@PAUtagBaseCharHP@@PAU1@V?$allocator@UtagBaseCharHP@@@std@@U1@@std@@YAPAUtagBaseCharHP@@PAU1@00AAV?$allocator@UtagBaseCharHP@@@0@0U_Nonscalar_ptr_iterator_tag@0@@Z
_TEXT	SEGMENT
__Next$ = -20						; size = 4
__$EHRec$ = -16						; size = 16
__First$ = 8						; size = 4
__Last$ = 12						; size = 4
__Dest$ = 16						; size = 4
__Al$ = 20						; size = 4
___formal$ = 24						; size = 4
___formal$ = 28						; size = 1
??$_Uninit_move@PAUtagBaseCharHP@@PAU1@V?$allocator@UtagBaseCharHP@@@std@@U1@@std@@YAPAUtagBaseCharHP@@PAU1@00AAV?$allocator@UtagBaseCharHP@@@0@0U_Nonscalar_ptr_iterator_tag@0@@Z PROC ; std::_Uninit_move<tagBaseCharHP *,tagBaseCharHP *,std::allocator<tagBaseCharHP>,tagBaseCharHP>, COMDAT

; 424  : 	{	// move [_First, _Last) to raw _Dest, using _Al, arbitrary type

  00000	6a 08		 push	 8
  00002	b8 00 00 00 00	 mov	 eax, __ehhandler$??$_Uninit_move@PAUtagBaseCharHP@@PAU1@V?$allocator@UtagBaseCharHP@@@std@@U1@@std@@YAPAUtagBaseCharHP@@PAU1@00AAV?$allocator@UtagBaseCharHP@@@0@0U_Nonscalar_ptr_iterator_tag@0@@Z
  00007	e8 00 00 00 00	 call	 __EH_prolog3_catch

; 425  : 	_DEBUG_RANGE(_First, _Last);
; 426  : 	_DEBUG_POINTER(_Dest);
; 427  : 	_FwdIt _Next = _Dest;

  0000c	8b 45 10	 mov	 eax, DWORD PTR __Dest$[ebp]

; 428  : 
; 429  : 	_TRY_BEGIN

  0000f	83 65 fc 00	 and	 DWORD PTR __$EHRec$[ebp+12], 0
  00013	8b 75 08	 mov	 esi, DWORD PTR __First$[ebp]
  00016	89 45 ec	 mov	 DWORD PTR __Next$[ebp], eax
$LL6@Uninit_mov:

; 430  : 	for (; _First != _Last; ++_Dest, ++_First)

  00019	3b 75 0c	 cmp	 esi, DWORD PTR __Last$[ebp]
  0001c	74 36		 je	 SHORT $LN4@Uninit_mov

; 431  : 		_Cons_val(_Al, _Dest, (_Valty &&)*_First);

  0001e	56		 push	 esi
  0001f	ff 75 10	 push	 DWORD PTR __Dest$[ebp]
  00022	ff 75 14	 push	 DWORD PTR __Al$[ebp]
  00025	e8 00 00 00 00	 call	 ??$_Cons_val@V?$allocator@UtagBaseCharHP@@@std@@UtagBaseCharHP@@U3@@std@@YAXAAV?$allocator@UtagBaseCharHP@@@0@PAUtagBaseCharHP@@$$QAU2@@Z ; std::_Cons_val<std::allocator<tagBaseCharHP>,tagBaseCharHP,tagBaseCharHP>
  0002a	83 45 10 18	 add	 DWORD PTR __Dest$[ebp], 24 ; 00000018H
  0002e	83 c4 0c	 add	 esp, 12			; 0000000cH
  00031	83 c6 18	 add	 esi, 24			; 00000018H
  00034	eb e3		 jmp	 SHORT $LL6@Uninit_mov
__catch$??$_Uninit_move@PAUtagBaseCharHP@@PAU1@V?$allocator@UtagBaseCharHP@@@std@@U1@@std@@YAPAUtagBaseCharHP@@PAU1@00AAV?$allocator@UtagBaseCharHP@@@0@0U_Nonscalar_ptr_iterator_tag@0@@Z$0:

; 432  : 	_CATCH_ALL
; 433  : 	for (; _Next != _Dest; ++_Next)

  00036	8b 75 ec	 mov	 esi, DWORD PTR __Next$[ebp]
  00039	eb 0b		 jmp	 SHORT $LN32@Uninit_mov
$LL3@Uninit_mov:

; 434  : 		_Dest_val(_Al, _Next);

  0003b	8b ce		 mov	 ecx, esi
  0003d	ff 15 00 00 00
	00		 call	 DWORD PTR __imp_??1ioHashString@@QAE@XZ
  00043	83 c6 18	 add	 esi, 24			; 00000018H
$LN32@Uninit_mov:

; 432  : 	_CATCH_ALL
; 433  : 	for (; _Next != _Dest; ++_Next)

  00046	3b 75 10	 cmp	 esi, DWORD PTR __Dest$[ebp]
  00049	75 f0		 jne	 SHORT $LL3@Uninit_mov

; 435  : 	_RERAISE;

  0004b	6a 00		 push	 0
  0004d	6a 00		 push	 0
  0004f	e8 00 00 00 00	 call	 __CxxThrowException@8
$LN33@Uninit_mov:
$LN4@Uninit_mov:

; 436  : 	_CATCH_END
; 437  : 	return (_Dest);

  00054	8b 45 10	 mov	 eax, DWORD PTR __Dest$[ebp]

; 438  : 	}

  00057	e8 00 00 00 00	 call	 __EH_epilog3
  0005c	c3		 ret	 0
$LN31@Uninit_mov:
_TEXT	ENDS
;	COMDAT text$x
text$x	SEGMENT
__ehhandler$??$_Uninit_move@PAUtagBaseCharHP@@PAU1@V?$allocator@UtagBaseCharHP@@@std@@U1@@std@@YAPAUtagBaseCharHP@@PAU1@00AAV?$allocator@UtagBaseCharHP@@@0@0U_Nonscalar_ptr_iterator_tag@0@@Z:
  00000	8b 54 24 08	 mov	 edx, DWORD PTR [esp+8]
  00004	8d 42 0c	 lea	 eax, DWORD PTR [edx+12]
  00007	8b 4a e8	 mov	 ecx, DWORD PTR [edx-24]
  0000a	33 c8		 xor	 ecx, eax
  0000c	e8 00 00 00 00	 call	 @__security_check_cookie@4
  00011	b8 00 00 00 00	 mov	 eax, OFFSET __ehfuncinfo$??$_Uninit_move@PAUtagBaseCharHP@@PAU1@V?$allocator@UtagBaseCharHP@@@std@@U1@@std@@YAPAUtagBaseCharHP@@PAU1@00AAV?$allocator@UtagBaseCharHP@@@0@0U_Nonscalar_ptr_iterator_tag@0@@Z
  00016	e9 00 00 00 00	 jmp	 ___CxxFrameHandler3
text$x	ENDS
??$_Uninit_move@PAUtagBaseCharHP@@PAU1@V?$allocator@UtagBaseCharHP@@@std@@U1@@std@@YAPAUtagBaseCharHP@@PAU1@00AAV?$allocator@UtagBaseCharHP@@@0@0U_Nonscalar_ptr_iterator_tag@0@@Z ENDP ; std::_Uninit_move<tagBaseCharHP *,tagBaseCharHP *,std::allocator<tagBaseCharHP>,tagBaseCharHP>
PUBLIC	??$_Pop_heap@PAUtagBaseCharHP@@VBaseCharHPSort@@@std@@YAXPAUtagBaseCharHP@@0VBaseCharHPSort@@@Z ; std::_Pop_heap<tagBaseCharHP *,BaseCharHPSort>
; Function compile flags: /Ogsp
; File c:\program files (x86)\microsoft visual studio 10.0\vc\include\algorithm
;	COMDAT ??$_Pop_heap@PAUtagBaseCharHP@@VBaseCharHPSort@@@std@@YAXPAUtagBaseCharHP@@0VBaseCharHPSort@@@Z
_TEXT	SEGMENT
__First$ = 8						; size = 4
__Last$ = 12						; size = 4
__Pred$ = 16						; size = 1
??$_Pop_heap@PAUtagBaseCharHP@@VBaseCharHPSort@@@std@@YAXPAUtagBaseCharHP@@0VBaseCharHPSort@@@Z PROC ; std::_Pop_heap<tagBaseCharHP *,BaseCharHPSort>, COMDAT

; 2610 : 	{	// pop *_First to *(_Last - 1) and reheap, using _Pred

  00000	55		 push	 ebp
  00001	8b ec		 mov	 ebp, esp

; 2611 : 	_Pop_heap_0(_Unchecked(_First), _Unchecked(_Last), _Pred,
; 2612 : 		_Val_type(_First));

  00003	6a 00		 push	 0
  00005	ff 75 10	 push	 DWORD PTR __Pred$[ebp]
  00008	ff 75 0c	 push	 DWORD PTR __Last$[ebp]
  0000b	ff 75 08	 push	 DWORD PTR __First$[ebp]
  0000e	e8 00 00 00 00	 call	 ??$_Pop_heap_0@PAUtagBaseCharHP@@U1@VBaseCharHPSort@@@std@@YAXPAUtagBaseCharHP@@0VBaseCharHPSort@@0@Z ; std::_Pop_heap_0<tagBaseCharHP *,tagBaseCharHP,BaseCharHPSort>
  00013	83 c4 10	 add	 esp, 16			; 00000010H

; 2613 : 	}

  00016	5d		 pop	 ebp
  00017	c3		 ret	 0
??$_Pop_heap@PAUtagBaseCharHP@@VBaseCharHPSort@@@std@@YAXPAUtagBaseCharHP@@0VBaseCharHPSort@@@Z ENDP ; std::_Pop_heap<tagBaseCharHP *,BaseCharHPSort>
_TEXT	ENDS
PUBLIC	??$_Destroy_range@V?$allocator@UForceInfo@@@std@@@std@@YAXPAUForceInfo@@0AAV?$allocator@UForceInfo@@@0@@Z ; std::_Destroy_range<std::allocator<ForceInfo> >
; Function compile flags: /Ogsp
; File c:\program files (x86)\microsoft visual studio 10.0\vc\include\xmemory
;	COMDAT ??$_Destroy_range@V?$allocator@UForceInfo@@@std@@@std@@YAXPAUForceInfo@@0AAV?$allocator@UForceInfo@@@0@@Z
_TEXT	SEGMENT
__First$ = 8						; size = 4
__Last$ = 12						; size = 4
__Al$ = 16						; size = 4
??$_Destroy_range@V?$allocator@UForceInfo@@@std@@@std@@YAXPAUForceInfo@@0AAV?$allocator@UForceInfo@@@0@@Z PROC ; std::_Destroy_range<std::allocator<ForceInfo> >, COMDAT

; 88   : 	_Destroy_range(_First, _Last, _Al, _Ptr_cat(_First, _Last));
; 89   : 	}

  00000	c3		 ret	 0
??$_Destroy_range@V?$allocator@UForceInfo@@@std@@@std@@YAXPAUForceInfo@@0AAV?$allocator@UForceInfo@@@0@@Z ENDP ; std::_Destroy_range<std::allocator<ForceInfo> >
_TEXT	ENDS
PUBLIC	??$_Destroy_range@V?$allocator@UWeaponInfo@@@std@@@std@@YAXPAUWeaponInfo@@0AAV?$allocator@UWeaponInfo@@@0@U_Nonscalar_ptr_iterator_tag@0@@Z ; std::_Destroy_range<std::allocator<WeaponInfo> >
; Function compile flags: /Ogsp
;	COMDAT ??$_Destroy_range@V?$allocator@UWeaponInfo@@@std@@@std@@YAXPAUWeaponInfo@@0AAV?$allocator@UWeaponInfo@@@0@U_Nonscalar_ptr_iterator_tag@0@@Z
_TEXT	SEGMENT
__First$ = 8						; size = 4
__Last$ = 12						; size = 4
__Al$ = 16						; size = 4
___formal$ = 20						; size = 1
??$_Destroy_range@V?$allocator@UWeaponInfo@@@std@@@std@@YAXPAUWeaponInfo@@0AAV?$allocator@UWeaponInfo@@@0@U_Nonscalar_ptr_iterator_tag@0@@Z PROC ; std::_Destroy_range<std::allocator<WeaponInfo> >, COMDAT

; 95   : 	{	// destroy [_First, _Last), arbitrary type

  00000	55		 push	 ebp
  00001	8b ec		 mov	 ebp, esp
  00003	56		 push	 esi

; 96   : 	for (; _First != _Last; ++_First)

  00004	8b 75 08	 mov	 esi, DWORD PTR __First$[ebp]
  00007	eb 0c		 jmp	 SHORT $LN20@Destroy_ra@2
$LL3@Destroy_ra@2:

; 97   : 		_Dest_val(_Al, _First);

  00009	8d 4e 08	 lea	 ecx, DWORD PTR [esi+8]
  0000c	ff 15 00 00 00
	00		 call	 DWORD PTR __imp_??1ioHashString@@QAE@XZ
  00012	83 c6 28	 add	 esi, 40			; 00000028H
$LN20@Destroy_ra@2:

; 96   : 	for (; _First != _Last; ++_First)

  00015	3b 75 0c	 cmp	 esi, DWORD PTR __Last$[ebp]
  00018	75 ef		 jne	 SHORT $LL3@Destroy_ra@2
  0001a	5e		 pop	 esi

; 98   : 	}

  0001b	5d		 pop	 ebp
  0001c	c3		 ret	 0
??$_Destroy_range@V?$allocator@UWeaponInfo@@@std@@@std@@YAXPAUWeaponInfo@@0AAV?$allocator@UWeaponInfo@@@0@U_Nonscalar_ptr_iterator_tag@0@@Z ENDP ; std::_Destroy_range<std::allocator<WeaponInfo> >
_TEXT	ENDS
PUBLIC	??$_Ucopy@PAUForceInfo@@@?$vector@UForceInfo@@V?$allocator@UForceInfo@@@std@@@std@@IAEPAUForceInfo@@PAU2@00@Z ; std::vector<ForceInfo,std::allocator<ForceInfo> >::_Ucopy<ForceInfo *>
; Function compile flags: /Ogsp
; File c:\program files (x86)\microsoft visual studio 10.0\vc\include\vector
;	COMDAT ??$_Ucopy@PAUForceInfo@@@?$vector@UForceInfo@@V?$allocator@UForceInfo@@@std@@@std@@IAEPAUForceInfo@@PAU2@00@Z
_TEXT	SEGMENT
__First$ = 8						; size = 4
__Last$ = 12						; size = 4
__Cat$559130 = 16					; size = 1
__Ptr$ = 16						; size = 4
??$_Ucopy@PAUForceInfo@@@?$vector@UForceInfo@@V?$allocator@UForceInfo@@@std@@@std@@IAEPAUForceInfo@@PAU2@00@Z PROC ; std::vector<ForceInfo,std::allocator<ForceInfo> >::_Ucopy<ForceInfo *>, COMDAT
; _this$ = ecx

; 1315 : 		pointer _Ucopy(_Iter _First, _Iter _Last, pointer _Ptr)

  00000	55		 push	 ebp
  00001	8b ec		 mov	 ebp, esp

; 1316 : 		{	// copy initializing [_First, _Last), using allocator
; 1317 : 		return (_Uninitialized_copy(_First, _Last,
; 1318 : 			_Ptr, this->_Alval));

  00003	ff 75 10	 push	 DWORD PTR __Cat$559130[ebp]
  00006	83 c1 0c	 add	 ecx, 12			; 0000000cH
  00009	51		 push	 ecx
  0000a	ff 75 10	 push	 DWORD PTR __Ptr$[ebp]
  0000d	ff 75 0c	 push	 DWORD PTR __Last$[ebp]
  00010	ff 75 08	 push	 DWORD PTR __First$[ebp]
  00013	e8 00 00 00 00	 call	 ??$_Uninit_copy@PAUForceInfo@@PAU1@V?$allocator@UForceInfo@@@std@@@std@@YAPAUForceInfo@@PAU1@00AAV?$allocator@UForceInfo@@@0@U_Nonscalar_ptr_iterator_tag@0@@Z ; std::_Uninit_copy<ForceInfo *,ForceInfo *,std::allocator<ForceInfo> >
  00018	83 c4 14	 add	 esp, 20			; 00000014H

; 1319 : 		}

  0001b	5d		 pop	 ebp
  0001c	c2 0c 00	 ret	 12			; 0000000cH
??$_Ucopy@PAUForceInfo@@@?$vector@UForceInfo@@V?$allocator@UForceInfo@@@std@@@std@@IAEPAUForceInfo@@PAU2@00@Z ENDP ; std::vector<ForceInfo,std::allocator<ForceInfo> >::_Ucopy<ForceInfo *>
_TEXT	ENDS
PUBLIC	??$_Uninitialized_copy@PAUWeaponInfo@@PAU1@V?$allocator@UWeaponInfo@@@std@@@std@@YAPAUWeaponInfo@@PAU1@00AAV?$allocator@UWeaponInfo@@@0@@Z ; std::_Uninitialized_copy<WeaponInfo *,WeaponInfo *,std::allocator<WeaponInfo> >
; Function compile flags: /Ogsp
; File c:\program files (x86)\microsoft visual studio 10.0\vc\include\memory
;	COMDAT ??$_Uninitialized_copy@PAUWeaponInfo@@PAU1@V?$allocator@UWeaponInfo@@@std@@@std@@YAPAUWeaponInfo@@PAU1@00AAV?$allocator@UWeaponInfo@@@0@@Z
_TEXT	SEGMENT
__Cat$559138 = -4					; size = 1
__First$ = 8						; size = 4
__Last$ = 12						; size = 4
__Dest$ = 16						; size = 4
__Al$ = 20						; size = 4
??$_Uninitialized_copy@PAUWeaponInfo@@PAU1@V?$allocator@UWeaponInfo@@@std@@@std@@YAPAUWeaponInfo@@PAU1@00AAV?$allocator@UWeaponInfo@@@0@@Z PROC ; std::_Uninitialized_copy<WeaponInfo *,WeaponInfo *,std::allocator<WeaponInfo> >, COMDAT

; 412  : 	{	// copy [_First, _Last) to raw _Dest, using _Al

  00000	55		 push	 ebp
  00001	8b ec		 mov	 ebp, esp
  00003	51		 push	 ecx

; 413  : 	return (_Uninit_copy(_First, _Last, _Dest, _Al,
; 414  : 		_Ptr_cat(_First, _Dest)));

  00004	ff 75 fc	 push	 DWORD PTR __Cat$559138[ebp]
  00007	ff 75 14	 push	 DWORD PTR __Al$[ebp]
  0000a	ff 75 10	 push	 DWORD PTR __Dest$[ebp]
  0000d	ff 75 0c	 push	 DWORD PTR __Last$[ebp]
  00010	ff 75 08	 push	 DWORD PTR __First$[ebp]
  00013	e8 00 00 00 00	 call	 ??$_Uninit_copy@PAUWeaponInfo@@PAU1@V?$allocator@UWeaponInfo@@@std@@@std@@YAPAUWeaponInfo@@PAU1@00AAV?$allocator@UWeaponInfo@@@0@U_Nonscalar_ptr_iterator_tag@0@@Z ; std::_Uninit_copy<WeaponInfo *,WeaponInfo *,std::allocator<WeaponInfo> >
  00018	83 c4 14	 add	 esp, 20			; 00000014H

; 415  : 	}

  0001b	c9		 leave
  0001c	c3		 ret	 0
??$_Uninitialized_copy@PAUWeaponInfo@@PAU1@V?$allocator@UWeaponInfo@@@std@@@std@@YAPAUWeaponInfo@@PAU1@00AAV?$allocator@UWeaponInfo@@@0@@Z ENDP ; std::_Uninitialized_copy<WeaponInfo *,WeaponInfo *,std::allocator<WeaponInfo> >
_TEXT	ENDS
PUBLIC	??$_Ucopy@V?$_Vector_const_iterator@V?$_Vector_val@UForceInfo@@V?$allocator@UForceInfo@@@std@@@std@@@std@@@?$vector@UForceInfo@@V?$allocator@UForceInfo@@@std@@@std@@IAEPAUForceInfo@@V?$_Vector_const_iterator@V?$_Vector_val@UForceInfo@@V?$allocator@UForceInfo@@@std@@@std@@@1@0PAU2@@Z ; std::vector<ForceInfo,std::allocator<ForceInfo> >::_Ucopy<std::_Vector_const_iterator<std::_Vector_val<ForceInfo,std::allocator<ForceInfo> > > >
; Function compile flags: /Ogsp
; File c:\program files (x86)\microsoft visual studio 10.0\vc\include\vector
;	COMDAT ??$_Ucopy@V?$_Vector_const_iterator@V?$_Vector_val@UForceInfo@@V?$allocator@UForceInfo@@@std@@@std@@@std@@@?$vector@UForceInfo@@V?$allocator@UForceInfo@@@std@@@std@@IAEPAUForceInfo@@V?$_Vector_const_iterator@V?$_Vector_val@UForceInfo@@V?$allocator@UForceInfo@@@std@@@std@@@1@0PAU2@@Z
_TEXT	SEGMENT
__First$ = 8						; size = 4
__Last$ = 12						; size = 4
__Cat$559151 = 16					; size = 1
__Ptr$ = 16						; size = 4
??$_Ucopy@V?$_Vector_const_iterator@V?$_Vector_val@UForceInfo@@V?$allocator@UForceInfo@@@std@@@std@@@std@@@?$vector@UForceInfo@@V?$allocator@UForceInfo@@@std@@@std@@IAEPAUForceInfo@@V?$_Vector_const_iterator@V?$_Vector_val@UForceInfo@@V?$allocator@UForceInfo@@@std@@@std@@@1@0PAU2@@Z PROC ; std::vector<ForceInfo,std::allocator<ForceInfo> >::_Ucopy<std::_Vector_const_iterator<std::_Vector_val<ForceInfo,std::allocator<ForceInfo> > > >, COMDAT
; _this$ = ecx

; 1315 : 		pointer _Ucopy(_Iter _First, _Iter _Last, pointer _Ptr)

  00000	55		 push	 ebp
  00001	8b ec		 mov	 ebp, esp

; 1316 : 		{	// copy initializing [_First, _Last), using allocator
; 1317 : 		return (_Uninitialized_copy(_First, _Last,
; 1318 : 			_Ptr, this->_Alval));

  00003	ff 75 10	 push	 DWORD PTR __Cat$559151[ebp]
  00006	83 c1 0c	 add	 ecx, 12			; 0000000cH
  00009	51		 push	 ecx
  0000a	ff 75 10	 push	 DWORD PTR __Ptr$[ebp]
  0000d	ff 75 0c	 push	 DWORD PTR __Last$[ebp]
  00010	ff 75 08	 push	 DWORD PTR __First$[ebp]
  00013	e8 00 00 00 00	 call	 ??$_Uninit_copy@V?$_Vector_const_iterator@V?$_Vector_val@UForceInfo@@V?$allocator@UForceInfo@@@std@@@std@@@std@@PAUForceInfo@@V?$allocator@UForceInfo@@@2@@std@@YAPAUForceInfo@@V?$_Vector_const_iterator@V?$_Vector_val@UForceInfo@@V?$allocator@UForceInfo@@@std@@@std@@@0@0PAU1@AAV?$allocator@UForceInfo@@@0@U_Nonscalar_ptr_iterator_tag@0@@Z ; std::_Uninit_copy<std::_Vector_const_iterator<std::_Vector_val<ForceInfo,std::allocator<ForceInfo> > >,ForceInfo *,std::allocator<ForceInfo> >
  00018	83 c4 14	 add	 esp, 20			; 00000014H

; 1319 : 		}

  0001b	5d		 pop	 ebp
  0001c	c2 0c 00	 ret	 12			; 0000000cH
??$_Ucopy@V?$_Vector_const_iterator@V?$_Vector_val@UForceInfo@@V?$allocator@UForceInfo@@@std@@@std@@@std@@@?$vector@UForceInfo@@V?$allocator@UForceInfo@@@std@@@std@@IAEPAUForceInfo@@V?$_Vector_const_iterator@V?$_Vector_val@UForceInfo@@V?$allocator@UForceInfo@@@std@@@std@@@1@0PAU2@@Z ENDP ; std::vector<ForceInfo,std::allocator<ForceInfo> >::_Ucopy<std::_Vector_const_iterator<std::_Vector_val<ForceInfo,std::allocator<ForceInfo> > > >
_TEXT	ENDS
PUBLIC	??$_Destroy_range@V?$allocator@UtagBaseCharHP@@@std@@@std@@YAXPAUtagBaseCharHP@@0AAV?$allocator@UtagBaseCharHP@@@0@@Z ; std::_Destroy_range<std::allocator<tagBaseCharHP> >
; Function compile flags: /Ogsp
; File c:\program files (x86)\microsoft visual studio 10.0\vc\include\xmemory
;	COMDAT ??$_Destroy_range@V?$allocator@UtagBaseCharHP@@@std@@@std@@YAXPAUtagBaseCharHP@@0AAV?$allocator@UtagBaseCharHP@@@0@@Z
_TEXT	SEGMENT
__First$ = 8						; size = 4
__Last$ = 12						; size = 4
__Al$ = 16						; size = 4
??$_Destroy_range@V?$allocator@UtagBaseCharHP@@@std@@@std@@YAXPAUtagBaseCharHP@@0AAV?$allocator@UtagBaseCharHP@@@0@@Z PROC ; std::_Destroy_range<std::allocator<tagBaseCharHP> >, COMDAT

; 87   : 	{	// destroy [_First, _Last)

  00000	55		 push	 ebp
  00001	8b ec		 mov	 ebp, esp
  00003	56		 push	 esi

; 88   : 	_Destroy_range(_First, _Last, _Al, _Ptr_cat(_First, _Last));

  00004	8b 75 08	 mov	 esi, DWORD PTR __First$[ebp]
  00007	eb 0b		 jmp	 SHORT $LN24@Destroy_ra@3
$LL7@Destroy_ra@3:
  00009	8b ce		 mov	 ecx, esi
  0000b	ff 15 00 00 00
	00		 call	 DWORD PTR __imp_??1ioHashString@@QAE@XZ
  00011	83 c6 18	 add	 esi, 24			; 00000018H
$LN24@Destroy_ra@3:
  00014	3b 75 0c	 cmp	 esi, DWORD PTR __Last$[ebp]
  00017	75 f0		 jne	 SHORT $LL7@Destroy_ra@3
  00019	5e		 pop	 esi

; 89   : 	}

  0001a	5d		 pop	 ebp
  0001b	c3		 ret	 0
??$_Destroy_range@V?$allocator@UtagBaseCharHP@@@std@@@std@@YAXPAUtagBaseCharHP@@0AAV?$allocator@UtagBaseCharHP@@@0@@Z ENDP ; std::_Destroy_range<std::allocator<tagBaseCharHP> >
_TEXT	ENDS
PUBLIC	??$_Uninitialized_copy@V?$_Vector_const_iterator@V?$_Vector_val@UWeaponInfo@@V?$allocator@UWeaponInfo@@@std@@@std@@@std@@PAUWeaponInfo@@V?$allocator@UWeaponInfo@@@2@@std@@YAPAUWeaponInfo@@V?$_Vector_const_iterator@V?$_Vector_val@UWeaponInfo@@V?$allocator@UWeaponInfo@@@std@@@std@@@0@0PAU1@AAV?$allocator@UWeaponInfo@@@0@@Z ; std::_Uninitialized_copy<std::_Vector_const_iterator<std::_Vector_val<WeaponInfo,std::allocator<WeaponInfo> > >,WeaponInfo *,std::allocator<WeaponInfo> >
; Function compile flags: /Ogsp
; File c:\program files (x86)\microsoft visual studio 10.0\vc\include\memory
;	COMDAT ??$_Uninitialized_copy@V?$_Vector_const_iterator@V?$_Vector_val@UWeaponInfo@@V?$allocator@UWeaponInfo@@@std@@@std@@@std@@PAUWeaponInfo@@V?$allocator@UWeaponInfo@@@2@@std@@YAPAUWeaponInfo@@V?$_Vector_const_iterator@V?$_Vector_val@UWeaponInfo@@V?$allocator@UWeaponInfo@@@std@@@std@@@0@0PAU1@AAV?$allocator@UWeaponInfo@@@0@@Z
_TEXT	SEGMENT
__Cat$559229 = -4					; size = 1
__First$ = 8						; size = 4
__Last$ = 12						; size = 4
__Dest$ = 16						; size = 4
__Al$ = 20						; size = 4
??$_Uninitialized_copy@V?$_Vector_const_iterator@V?$_Vector_val@UWeaponInfo@@V?$allocator@UWeaponInfo@@@std@@@std@@@std@@PAUWeaponInfo@@V?$allocator@UWeaponInfo@@@2@@std@@YAPAUWeaponInfo@@V?$_Vector_const_iterator@V?$_Vector_val@UWeaponInfo@@V?$allocator@UWeaponInfo@@@std@@@std@@@0@0PAU1@AAV?$allocator@UWeaponInfo@@@0@@Z PROC ; std::_Uninitialized_copy<std::_Vector_const_iterator<std::_Vector_val<WeaponInfo,std::allocator<WeaponInfo> > >,WeaponInfo *,std::allocator<WeaponInfo> >, COMDAT

; 412  : 	{	// copy [_First, _Last) to raw _Dest, using _Al

  00000	55		 push	 ebp
  00001	8b ec		 mov	 ebp, esp
  00003	51		 push	 ecx

; 413  : 	return (_Uninit_copy(_First, _Last, _Dest, _Al,
; 414  : 		_Ptr_cat(_First, _Dest)));

  00004	ff 75 fc	 push	 DWORD PTR __Cat$559229[ebp]
  00007	ff 75 14	 push	 DWORD PTR __Al$[ebp]
  0000a	ff 75 10	 push	 DWORD PTR __Dest$[ebp]
  0000d	ff 75 0c	 push	 DWORD PTR __Last$[ebp]
  00010	ff 75 08	 push	 DWORD PTR __First$[ebp]
  00013	e8 00 00 00 00	 call	 ??$_Uninit_copy@V?$_Vector_const_iterator@V?$_Vector_val@UWeaponInfo@@V?$allocator@UWeaponInfo@@@std@@@std@@@std@@PAUWeaponInfo@@V?$allocator@UWeaponInfo@@@2@@std@@YAPAUWeaponInfo@@V?$_Vector_const_iterator@V?$_Vector_val@UWeaponInfo@@V?$allocator@UWeaponInfo@@@std@@@std@@@0@0PAU1@AAV?$allocator@UWeaponInfo@@@0@U_Nonscalar_ptr_iterator_tag@0@@Z ; std::_Uninit_copy<std::_Vector_const_iterator<std::_Vector_val<WeaponInfo,std::allocator<WeaponInfo> > >,WeaponInfo *,std::allocator<WeaponInfo> >
  00018	83 c4 14	 add	 esp, 20			; 00000014H

; 415  : 	}

  0001b	c9		 leave
  0001c	c3		 ret	 0
??$_Uninitialized_copy@V?$_Vector_const_iterator@V?$_Vector_val@UWeaponInfo@@V?$allocator@UWeaponInfo@@@std@@@std@@@std@@PAUWeaponInfo@@V?$allocator@UWeaponInfo@@@2@@std@@YAPAUWeaponInfo@@V?$_Vector_const_iterator@V?$_Vector_val@UWeaponInfo@@V?$allocator@UWeaponInfo@@@std@@@std@@@0@0PAU1@AAV?$allocator@UWeaponInfo@@@0@@Z ENDP ; std::_Uninitialized_copy<std::_Vector_const_iterator<std::_Vector_val<WeaponInfo,std::allocator<WeaponInfo> > >,WeaponInfo *,std::allocator<WeaponInfo> >
_TEXT	ENDS
PUBLIC	??$_Uninitialized_move@PAUtagBaseCharHP@@PAU1@V?$allocator@UtagBaseCharHP@@@std@@@std@@YAPAUtagBaseCharHP@@PAU1@00AAV?$allocator@UtagBaseCharHP@@@0@@Z ; std::_Uninitialized_move<tagBaseCharHP *,tagBaseCharHP *,std::allocator<tagBaseCharHP> >
; Function compile flags: /Ogsp
;	COMDAT ??$_Uninitialized_move@PAUtagBaseCharHP@@PAU1@V?$allocator@UtagBaseCharHP@@@std@@@std@@YAPAUtagBaseCharHP@@PAU1@00AAV?$allocator@UtagBaseCharHP@@@0@@Z
_TEXT	SEGMENT
__Cat$559236 = -4					; size = 1
__First$ = 8						; size = 4
__Last$ = 12						; size = 4
__Dest$ = 16						; size = 4
__Al$ = 20						; size = 4
??$_Uninitialized_move@PAUtagBaseCharHP@@PAU1@V?$allocator@UtagBaseCharHP@@@std@@@std@@YAPAUtagBaseCharHP@@PAU1@00AAV?$allocator@UtagBaseCharHP@@@0@@Z PROC ; std::_Uninitialized_move<tagBaseCharHP *,tagBaseCharHP *,std::allocator<tagBaseCharHP> >, COMDAT

; 469  : 	{	// move [_First, _Last) to raw _Dest, using _Al

  00000	55		 push	 ebp
  00001	8b ec		 mov	 ebp, esp
  00003	51		 push	 ecx

; 470  : 	return (_Uninit_move(_First, _Last, _Dest, _Al,
; 471  : 		_Val_type(_First), _Ptr_cat(_First, _Dest)));

  00004	ff 75 fc	 push	 DWORD PTR __Cat$559236[ebp]
  00007	6a 00		 push	 0
  00009	ff 75 14	 push	 DWORD PTR __Al$[ebp]
  0000c	ff 75 10	 push	 DWORD PTR __Dest$[ebp]
  0000f	ff 75 0c	 push	 DWORD PTR __Last$[ebp]
  00012	ff 75 08	 push	 DWORD PTR __First$[ebp]
  00015	e8 00 00 00 00	 call	 ??$_Uninit_move@PAUtagBaseCharHP@@PAU1@V?$allocator@UtagBaseCharHP@@@std@@U1@@std@@YAPAUtagBaseCharHP@@PAU1@00AAV?$allocator@UtagBaseCharHP@@@0@0U_Nonscalar_ptr_iterator_tag@0@@Z ; std::_Uninit_move<tagBaseCharHP *,tagBaseCharHP *,std::allocator<tagBaseCharHP>,tagBaseCharHP>
  0001a	83 c4 18	 add	 esp, 24			; 00000018H

; 472  : 	}

  0001d	c9		 leave
  0001e	c3		 ret	 0
??$_Uninitialized_move@PAUtagBaseCharHP@@PAU1@V?$allocator@UtagBaseCharHP@@@std@@@std@@YAPAUtagBaseCharHP@@PAU1@00AAV?$allocator@UtagBaseCharHP@@@0@@Z ENDP ; std::_Uninitialized_move<tagBaseCharHP *,tagBaseCharHP *,std::allocator<tagBaseCharHP> >
_TEXT	ENDS
PUBLIC	??$_Sort_heap@PAUtagBaseCharHP@@VBaseCharHPSort@@@std@@YAXPAUtagBaseCharHP@@0VBaseCharHPSort@@@Z ; std::_Sort_heap<tagBaseCharHP *,BaseCharHPSort>
; Function compile flags: /Ogsp
; File c:\program files (x86)\microsoft visual studio 10.0\vc\include\algorithm
;	COMDAT ??$_Sort_heap@PAUtagBaseCharHP@@VBaseCharHPSort@@@std@@YAXPAUtagBaseCharHP@@0VBaseCharHPSort@@@Z
_TEXT	SEGMENT
__First$ = 8						; size = 4
__Last$ = 12						; size = 4
__Pred$ = 16						; size = 1
??$_Sort_heap@PAUtagBaseCharHP@@VBaseCharHPSort@@@std@@YAXPAUtagBaseCharHP@@0VBaseCharHPSort@@@Z PROC ; std::_Sort_heap<tagBaseCharHP *,BaseCharHPSort>, COMDAT

; 2700 : 	{	// order heap by repeatedly popping, using _Pred

  00000	55		 push	 ebp
  00001	8b ec		 mov	 ebp, esp

; 2701 : 	for (; 1 < _Last - _First; --_Last)

  00003	8b 4d 0c	 mov	 ecx, DWORD PTR __Last$[ebp]
  00006	2b 4d 08	 sub	 ecx, DWORD PTR __First$[ebp]
  00009	57		 push	 edi
  0000a	8b c1		 mov	 eax, ecx
  0000c	6a 18		 push	 24			; 00000018H
  0000e	99		 cdq
  0000f	5f		 pop	 edi
  00010	f7 ff		 idiv	 edi
  00012	83 f8 01	 cmp	 eax, 1
  00015	7e 29		 jle	 SHORT $LN1@Sort_heap
  00017	8b f9		 mov	 edi, ecx
$LL3@Sort_heap:

; 2702 : 		_Pop_heap(_First, _Last, _Pred);

  00019	6a 00		 push	 0
  0001b	ff 75 10	 push	 DWORD PTR __Pred$[ebp]
  0001e	ff 75 0c	 push	 DWORD PTR __Last$[ebp]
  00021	ff 75 08	 push	 DWORD PTR __First$[ebp]
  00024	e8 00 00 00 00	 call	 ??$_Pop_heap_0@PAUtagBaseCharHP@@U1@VBaseCharHPSort@@@std@@YAXPAUtagBaseCharHP@@0VBaseCharHPSort@@0@Z ; std::_Pop_heap_0<tagBaseCharHP *,tagBaseCharHP,BaseCharHPSort>
  00029	83 c4 10	 add	 esp, 16			; 00000010H
  0002c	83 ef 18	 sub	 edi, 24			; 00000018H
  0002f	8b c7		 mov	 eax, edi
  00031	6a 18		 push	 24			; 00000018H
  00033	99		 cdq
  00034	59		 pop	 ecx
  00035	f7 f9		 idiv	 ecx
  00037	83 6d 0c 18	 sub	 DWORD PTR __Last$[ebp], 24 ; 00000018H
  0003b	83 f8 01	 cmp	 eax, 1
  0003e	7f d9		 jg	 SHORT $LL3@Sort_heap
$LN1@Sort_heap:
  00040	5f		 pop	 edi

; 2703 : 	}

  00041	5d		 pop	 ebp
  00042	c3		 ret	 0
??$_Sort_heap@PAUtagBaseCharHP@@VBaseCharHPSort@@@std@@YAXPAUtagBaseCharHP@@0VBaseCharHPSort@@@Z ENDP ; std::_Sort_heap<tagBaseCharHP *,BaseCharHPSort>
_TEXT	ENDS
PUBLIC	?_Destroy@?$vector@UForceInfo@@V?$allocator@UForceInfo@@@std@@@std@@IAEXPAUForceInfo@@0@Z ; std::vector<ForceInfo,std::allocator<ForceInfo> >::_Destroy
; Function compile flags: /Ogsp
; File c:\program files (x86)\microsoft visual studio 10.0\vc\include\vector
;	COMDAT ?_Destroy@?$vector@UForceInfo@@V?$allocator@UForceInfo@@@std@@@std@@IAEXPAUForceInfo@@0@Z
_TEXT	SEGMENT
__First$ = 8						; size = 4
__Last$ = 12						; size = 4
?_Destroy@?$vector@UForceInfo@@V?$allocator@UForceInfo@@@std@@@std@@IAEXPAUForceInfo@@0@Z PROC ; std::vector<ForceInfo,std::allocator<ForceInfo> >::_Destroy, COMDAT
; _this$ = ecx

; 1270 : 		_Destroy_range(_First, _Last, this->_Alval);
; 1271 : 		}

  00000	c2 08 00	 ret	 8
?_Destroy@?$vector@UForceInfo@@V?$allocator@UForceInfo@@@std@@@std@@IAEXPAUForceInfo@@0@Z ENDP ; std::vector<ForceInfo,std::allocator<ForceInfo> >::_Destroy
_TEXT	ENDS
PUBLIC	??$_Destroy_range@V?$allocator@UWeaponInfo@@@std@@@std@@YAXPAUWeaponInfo@@0AAV?$allocator@UWeaponInfo@@@0@@Z ; std::_Destroy_range<std::allocator<WeaponInfo> >
; Function compile flags: /Ogsp
; File c:\program files (x86)\microsoft visual studio 10.0\vc\include\xmemory
;	COMDAT ??$_Destroy_range@V?$allocator@UWeaponInfo@@@std@@@std@@YAXPAUWeaponInfo@@0AAV?$allocator@UWeaponInfo@@@0@@Z
_TEXT	SEGMENT
__First$ = 8						; size = 4
__Last$ = 12						; size = 4
__Al$ = 16						; size = 4
??$_Destroy_range@V?$allocator@UWeaponInfo@@@std@@@std@@YAXPAUWeaponInfo@@0AAV?$allocator@UWeaponInfo@@@0@@Z PROC ; std::_Destroy_range<std::allocator<WeaponInfo> >, COMDAT

; 87   : 	{	// destroy [_First, _Last)

  00000	55		 push	 ebp
  00001	8b ec		 mov	 ebp, esp
  00003	56		 push	 esi

; 88   : 	_Destroy_range(_First, _Last, _Al, _Ptr_cat(_First, _Last));

  00004	8b 75 08	 mov	 esi, DWORD PTR __First$[ebp]
  00007	eb 0c		 jmp	 SHORT $LN24@Destroy_ra@4
$LL7@Destroy_ra@4:
  00009	8d 4e 08	 lea	 ecx, DWORD PTR [esi+8]
  0000c	ff 15 00 00 00
	00		 call	 DWORD PTR __imp_??1ioHashString@@QAE@XZ
  00012	83 c6 28	 add	 esi, 40			; 00000028H
$LN24@Destroy_ra@4:
  00015	3b 75 0c	 cmp	 esi, DWORD PTR __Last$[ebp]
  00018	75 ef		 jne	 SHORT $LL7@Destroy_ra@4
  0001a	5e		 pop	 esi

; 89   : 	}

  0001b	5d		 pop	 ebp
  0001c	c3		 ret	 0
??$_Destroy_range@V?$allocator@UWeaponInfo@@@std@@@std@@YAXPAUWeaponInfo@@0AAV?$allocator@UWeaponInfo@@@0@@Z ENDP ; std::_Destroy_range<std::allocator<WeaponInfo> >
_TEXT	ENDS
PUBLIC	?erase@?$vector@UForceInfo@@V?$allocator@UForceInfo@@@std@@@std@@QAE?AV?$_Vector_iterator@V?$_Vector_val@UForceInfo@@V?$allocator@UForceInfo@@@std@@@std@@@2@V?$_Vector_const_iterator@V?$_Vector_val@UForceInfo@@V?$allocator@UForceInfo@@@std@@@std@@@2@0@Z ; std::vector<ForceInfo,std::allocator<ForceInfo> >::erase
; Function compile flags: /Ogsp
; File c:\program files (x86)\microsoft visual studio 10.0\vc\include\vector
;	COMDAT ?erase@?$vector@UForceInfo@@V?$allocator@UForceInfo@@@std@@@std@@QAE?AV?$_Vector_iterator@V?$_Vector_val@UForceInfo@@V?$allocator@UForceInfo@@@std@@@std@@@2@V?$_Vector_const_iterator@V?$_Vector_val@UForceInfo@@V?$allocator@UForceInfo@@@std@@@std@@@2@0@Z
_TEXT	SEGMENT
___$ReturnUdt$ = 8					; size = 4
__First_arg$ = 12					; size = 4
__Cat$559461 = 16					; size = 1
__Last_arg$ = 16					; size = 4
?erase@?$vector@UForceInfo@@V?$allocator@UForceInfo@@@std@@@std@@QAE?AV?$_Vector_iterator@V?$_Vector_val@UForceInfo@@V?$allocator@UForceInfo@@@std@@@std@@@2@V?$_Vector_const_iterator@V?$_Vector_val@UForceInfo@@V?$allocator@UForceInfo@@@std@@@std@@@2@0@Z PROC ; std::vector<ForceInfo,std::allocator<ForceInfo> >::erase, COMDAT
; _this$ = ecx

; 1190 : 		{	// erase [_First, _Last)

  00000	55		 push	 ebp
  00001	8b ec		 mov	 ebp, esp

; 1191 : 		iterator _First = _Make_iter(_First_arg);

  00003	8b 45 0c	 mov	 eax, DWORD PTR __First_arg$[ebp]
  00006	56		 push	 esi
  00007	57		 push	 edi
  00008	8b 7d 08	 mov	 edi, DWORD PTR ___$ReturnUdt$[ebp]
  0000b	8b f1		 mov	 esi, ecx
  0000d	89 07		 mov	 DWORD PTR [edi], eax

; 1192 : 		iterator _Last = _Make_iter(_Last_arg);
; 1193 : 
; 1194 : 		if (_First != _Last)

  0000f	3b 45 10	 cmp	 eax, DWORD PTR __Last_arg$[ebp]
  00012	74 16		 je	 SHORT $LN1@erase

; 1195 : 			{	// worth doing, copy down over hole
; 1196 :  #if _ITERATOR_DEBUG_LEVEL == 2
; 1197 : 			if (_Last < _First || _VICONT(_First) != this
; 1198 : 				|| _VIPTR(_First) < this->_Myfirst
; 1199 : 				|| this->_Mylast < _VIPTR(_Last))
; 1200 : 				_DEBUG_ERROR("vector erase iterator outside range");
; 1201 : 			pointer _Ptr = _Move(_VIPTR(_Last), this->_Mylast,
; 1202 : 				_VIPTR(_First));
; 1203 : 			_Orphan_range(_VIPTR(_First), this->_Mylast);
; 1204 : 
; 1205 :  #else /* _ITERATOR_DEBUG_LEVEL == 2 */
; 1206 : 			pointer _Ptr = _Move(_VIPTR(_Last), this->_Mylast,
; 1207 : 				_VIPTR(_First));

  00014	ff 75 10	 push	 DWORD PTR __Cat$559461[ebp]
  00017	8b 4e 04	 mov	 ecx, DWORD PTR [esi+4]
  0001a	50		 push	 eax
  0001b	51		 push	 ecx
  0001c	ff 75 10	 push	 DWORD PTR __Last_arg$[ebp]
  0001f	e8 00 00 00 00	 call	 ??$_Move@PAUForceInfo@@PAU1@@std@@YAPAUForceInfo@@PAU1@00U_Nonscalar_ptr_iterator_tag@0@@Z ; std::_Move<ForceInfo *,ForceInfo *>
  00024	83 c4 10	 add	 esp, 16			; 00000010H

; 1208 :  #endif /* _ITERATOR_DEBUG_LEVEL == 2 */
; 1209 : 
; 1210 : 			_Destroy(_Ptr, this->_Mylast);
; 1211 : 			this->_Mylast = _Ptr;

  00027	89 46 04	 mov	 DWORD PTR [esi+4], eax
$LN1@erase:

; 1212 : 			}
; 1213 : 		return (_First);

  0002a	8b c7		 mov	 eax, edi
  0002c	5f		 pop	 edi
  0002d	5e		 pop	 esi

; 1214 : 		}

  0002e	5d		 pop	 ebp
  0002f	c2 0c 00	 ret	 12			; 0000000cH
?erase@?$vector@UForceInfo@@V?$allocator@UForceInfo@@@std@@@std@@QAE?AV?$_Vector_iterator@V?$_Vector_val@UForceInfo@@V?$allocator@UForceInfo@@@std@@@std@@@2@V?$_Vector_const_iterator@V?$_Vector_val@UForceInfo@@V?$allocator@UForceInfo@@@std@@@std@@@2@0@Z ENDP ; std::vector<ForceInfo,std::allocator<ForceInfo> >::erase
_TEXT	ENDS
PUBLIC	??$_Ucopy@PAUWeaponInfo@@@?$vector@UWeaponInfo@@V?$allocator@UWeaponInfo@@@std@@@std@@IAEPAUWeaponInfo@@PAU2@00@Z ; std::vector<WeaponInfo,std::allocator<WeaponInfo> >::_Ucopy<WeaponInfo *>
; Function compile flags: /Ogsp
;	COMDAT ??$_Ucopy@PAUWeaponInfo@@@?$vector@UWeaponInfo@@V?$allocator@UWeaponInfo@@@std@@@std@@IAEPAUWeaponInfo@@PAU2@00@Z
_TEXT	SEGMENT
__First$ = 8						; size = 4
__Last$ = 12						; size = 4
__Cat$559551 = 16					; size = 1
__Ptr$ = 16						; size = 4
??$_Ucopy@PAUWeaponInfo@@@?$vector@UWeaponInfo@@V?$allocator@UWeaponInfo@@@std@@@std@@IAEPAUWeaponInfo@@PAU2@00@Z PROC ; std::vector<WeaponInfo,std::allocator<WeaponInfo> >::_Ucopy<WeaponInfo *>, COMDAT
; _this$ = ecx

; 1315 : 		pointer _Ucopy(_Iter _First, _Iter _Last, pointer _Ptr)

  00000	55		 push	 ebp
  00001	8b ec		 mov	 ebp, esp

; 1316 : 		{	// copy initializing [_First, _Last), using allocator
; 1317 : 		return (_Uninitialized_copy(_First, _Last,
; 1318 : 			_Ptr, this->_Alval));

  00003	ff 75 10	 push	 DWORD PTR __Cat$559551[ebp]
  00006	83 c1 0c	 add	 ecx, 12			; 0000000cH
  00009	51		 push	 ecx
  0000a	ff 75 10	 push	 DWORD PTR __Ptr$[ebp]
  0000d	ff 75 0c	 push	 DWORD PTR __Last$[ebp]
  00010	ff 75 08	 push	 DWORD PTR __First$[ebp]
  00013	e8 00 00 00 00	 call	 ??$_Uninit_copy@PAUWeaponInfo@@PAU1@V?$allocator@UWeaponInfo@@@std@@@std@@YAPAUWeaponInfo@@PAU1@00AAV?$allocator@UWeaponInfo@@@0@U_Nonscalar_ptr_iterator_tag@0@@Z ; std::_Uninit_copy<WeaponInfo *,WeaponInfo *,std::allocator<WeaponInfo> >
  00018	83 c4 14	 add	 esp, 20			; 00000014H

; 1319 : 		}

  0001b	5d		 pop	 ebp
  0001c	c2 0c 00	 ret	 12			; 0000000cH
??$_Ucopy@PAUWeaponInfo@@@?$vector@UWeaponInfo@@V?$allocator@UWeaponInfo@@@std@@@std@@IAEPAUWeaponInfo@@PAU2@00@Z ENDP ; std::vector<WeaponInfo,std::allocator<WeaponInfo> >::_Ucopy<WeaponInfo *>
_TEXT	ENDS
PUBLIC	?_Destroy@?$vector@UtagBaseCharHP@@V?$allocator@UtagBaseCharHP@@@std@@@std@@IAEXPAUtagBaseCharHP@@0@Z ; std::vector<tagBaseCharHP,std::allocator<tagBaseCharHP> >::_Destroy
; Function compile flags: /Ogsp
;	COMDAT ?_Destroy@?$vector@UtagBaseCharHP@@V?$allocator@UtagBaseCharHP@@@std@@@std@@IAEXPAUtagBaseCharHP@@0@Z
_TEXT	SEGMENT
__First$ = 8						; size = 4
__Last$ = 12						; size = 4
?_Destroy@?$vector@UtagBaseCharHP@@V?$allocator@UtagBaseCharHP@@@std@@@std@@IAEXPAUtagBaseCharHP@@0@Z PROC ; std::vector<tagBaseCharHP,std::allocator<tagBaseCharHP> >::_Destroy, COMDAT
; _this$ = ecx

; 1269 : 		{	// destroy [_First, _Last) using allocator

  00000	55		 push	 ebp
  00001	8b ec		 mov	 ebp, esp
  00003	56		 push	 esi

; 1270 : 		_Destroy_range(_First, _Last, this->_Alval);

  00004	8b 75 08	 mov	 esi, DWORD PTR __First$[ebp]
  00007	eb 0b		 jmp	 SHORT $LN26@Destroy
$LL9@Destroy:
  00009	8b ce		 mov	 ecx, esi
  0000b	ff 15 00 00 00
	00		 call	 DWORD PTR __imp_??1ioHashString@@QAE@XZ
  00011	83 c6 18	 add	 esi, 24			; 00000018H
$LN26@Destroy:
  00014	3b 75 0c	 cmp	 esi, DWORD PTR __Last$[ebp]
  00017	75 f0		 jne	 SHORT $LL9@Destroy
  00019	5e		 pop	 esi

; 1271 : 		}

  0001a	5d		 pop	 ebp
  0001b	c2 08 00	 ret	 8
?_Destroy@?$vector@UtagBaseCharHP@@V?$allocator@UtagBaseCharHP@@@std@@@std@@IAEXPAUtagBaseCharHP@@0@Z ENDP ; std::vector<tagBaseCharHP,std::allocator<tagBaseCharHP> >::_Destroy
_TEXT	ENDS
PUBLIC	??$_Ucopy@V?$_Vector_const_iterator@V?$_Vector_val@UWeaponInfo@@V?$allocator@UWeaponInfo@@@std@@@std@@@std@@@?$vector@UWeaponInfo@@V?$allocator@UWeaponInfo@@@std@@@std@@IAEPAUWeaponInfo@@V?$_Vector_const_iterator@V?$_Vector_val@UWeaponInfo@@V?$allocator@UWeaponInfo@@@std@@@std@@@1@0PAU2@@Z ; std::vector<WeaponInfo,std::allocator<WeaponInfo> >::_Ucopy<std::_Vector_const_iterator<std::_Vector_val<WeaponInfo,std::allocator<WeaponInfo> > > >
; Function compile flags: /Ogsp
;	COMDAT ??$_Ucopy@V?$_Vector_const_iterator@V?$_Vector_val@UWeaponInfo@@V?$allocator@UWeaponInfo@@@std@@@std@@@std@@@?$vector@UWeaponInfo@@V?$allocator@UWeaponInfo@@@std@@@std@@IAEPAUWeaponInfo@@V?$_Vector_const_iterator@V?$_Vector_val@UWeaponInfo@@V?$allocator@UWeaponInfo@@@std@@@std@@@1@0PAU2@@Z
_TEXT	SEGMENT
__First$ = 8						; size = 4
__Last$ = 12						; size = 4
__Cat$559656 = 16					; size = 1
__Ptr$ = 16						; size = 4
??$_Ucopy@V?$_Vector_const_iterator@V?$_Vector_val@UWeaponInfo@@V?$allocator@UWeaponInfo@@@std@@@std@@@std@@@?$vector@UWeaponInfo@@V?$allocator@UWeaponInfo@@@std@@@std@@IAEPAUWeaponInfo@@V?$_Vector_const_iterator@V?$_Vector_val@UWeaponInfo@@V?$allocator@UWeaponInfo@@@std@@@std@@@1@0PAU2@@Z PROC ; std::vector<WeaponInfo,std::allocator<WeaponInfo> >::_Ucopy<std::_Vector_const_iterator<std::_Vector_val<WeaponInfo,std::allocator<WeaponInfo> > > >, COMDAT
; _this$ = ecx

; 1315 : 		pointer _Ucopy(_Iter _First, _Iter _Last, pointer _Ptr)

  00000	55		 push	 ebp
  00001	8b ec		 mov	 ebp, esp

; 1316 : 		{	// copy initializing [_First, _Last), using allocator
; 1317 : 		return (_Uninitialized_copy(_First, _Last,
; 1318 : 			_Ptr, this->_Alval));

  00003	ff 75 10	 push	 DWORD PTR __Cat$559656[ebp]
  00006	83 c1 0c	 add	 ecx, 12			; 0000000cH
  00009	51		 push	 ecx
  0000a	ff 75 10	 push	 DWORD PTR __Ptr$[ebp]
  0000d	ff 75 0c	 push	 DWORD PTR __Last$[ebp]
  00010	ff 75 08	 push	 DWORD PTR __First$[ebp]
  00013	e8 00 00 00 00	 call	 ??$_Uninit_copy@V?$_Vector_const_iterator@V?$_Vector_val@UWeaponInfo@@V?$allocator@UWeaponInfo@@@std@@@std@@@std@@PAUWeaponInfo@@V?$allocator@UWeaponInfo@@@2@@std@@YAPAUWeaponInfo@@V?$_Vector_const_iterator@V?$_Vector_val@UWeaponInfo@@V?$allocator@UWeaponInfo@@@std@@@std@@@0@0PAU1@AAV?$allocator@UWeaponInfo@@@0@U_Nonscalar_ptr_iterator_tag@0@@Z ; std::_Uninit_copy<std::_Vector_const_iterator<std::_Vector_val<WeaponInfo,std::allocator<WeaponInfo> > >,WeaponInfo *,std::allocator<WeaponInfo> >
  00018	83 c4 14	 add	 esp, 20			; 00000014H

; 1319 : 		}

  0001b	5d		 pop	 ebp
  0001c	c2 0c 00	 ret	 12			; 0000000cH
??$_Ucopy@V?$_Vector_const_iterator@V?$_Vector_val@UWeaponInfo@@V?$allocator@UWeaponInfo@@@std@@@std@@@std@@@?$vector@UWeaponInfo@@V?$allocator@UWeaponInfo@@@std@@@std@@IAEPAUWeaponInfo@@V?$_Vector_const_iterator@V?$_Vector_val@UWeaponInfo@@V?$allocator@UWeaponInfo@@@std@@@std@@@1@0PAU2@@Z ENDP ; std::vector<WeaponInfo,std::allocator<WeaponInfo> >::_Ucopy<std::_Vector_const_iterator<std::_Vector_val<WeaponInfo,std::allocator<WeaponInfo> > > >
_TEXT	ENDS
PUBLIC	??$_Umove@PAUtagBaseCharHP@@@?$vector@UtagBaseCharHP@@V?$allocator@UtagBaseCharHP@@@std@@@std@@IAEPAUtagBaseCharHP@@PAU2@00@Z ; std::vector<tagBaseCharHP,std::allocator<tagBaseCharHP> >::_Umove<tagBaseCharHP *>
; Function compile flags: /Ogsp
;	COMDAT ??$_Umove@PAUtagBaseCharHP@@@?$vector@UtagBaseCharHP@@V?$allocator@UtagBaseCharHP@@@std@@@std@@IAEPAUtagBaseCharHP@@PAU2@00@Z
_TEXT	SEGMENT
__First$ = 8						; size = 4
__Last$ = 12						; size = 4
__Ptr$ = 16						; size = 4
??$_Umove@PAUtagBaseCharHP@@@?$vector@UtagBaseCharHP@@V?$allocator@UtagBaseCharHP@@@std@@@std@@IAEPAUtagBaseCharHP@@PAU2@00@Z PROC ; std::vector<tagBaseCharHP,std::allocator<tagBaseCharHP> >::_Umove<tagBaseCharHP *>, COMDAT
; _this$ = ecx

; 1322 : 		pointer _Umove(_Iter _First, _Iter _Last, pointer _Ptr)

  00000	55		 push	 ebp
  00001	8b ec		 mov	 ebp, esp

; 1323 : 		{	// move initializing [_First, _Last), using allocator
; 1324 : 		return (_Uninitialized_move(_First, _Last,
; 1325 : 			_Ptr, this->_Alval));

  00003	83 c1 0c	 add	 ecx, 12			; 0000000cH
  00006	51		 push	 ecx
  00007	ff 75 10	 push	 DWORD PTR __Ptr$[ebp]
  0000a	ff 75 0c	 push	 DWORD PTR __Last$[ebp]
  0000d	ff 75 08	 push	 DWORD PTR __First$[ebp]
  00010	e8 00 00 00 00	 call	 ??$_Uninitialized_move@PAUtagBaseCharHP@@PAU1@V?$allocator@UtagBaseCharHP@@@std@@@std@@YAPAUtagBaseCharHP@@PAU1@00AAV?$allocator@UtagBaseCharHP@@@0@@Z ; std::_Uninitialized_move<tagBaseCharHP *,tagBaseCharHP *,std::allocator<tagBaseCharHP> >
  00015	83 c4 10	 add	 esp, 16			; 00000010H

; 1326 : 		}

  00018	5d		 pop	 ebp
  00019	c2 0c 00	 ret	 12			; 0000000cH
??$_Umove@PAUtagBaseCharHP@@@?$vector@UtagBaseCharHP@@V?$allocator@UtagBaseCharHP@@@std@@@std@@IAEPAUtagBaseCharHP@@PAU2@00@Z ENDP ; std::vector<tagBaseCharHP,std::allocator<tagBaseCharHP> >::_Umove<tagBaseCharHP *>
_TEXT	ENDS
PUBLIC	??$sort_heap@PAUtagBaseCharHP@@VBaseCharHPSort@@@std@@YAXPAUtagBaseCharHP@@0VBaseCharHPSort@@@Z ; std::sort_heap<tagBaseCharHP *,BaseCharHPSort>
; Function compile flags: /Ogsp
; File c:\program files (x86)\microsoft visual studio 10.0\vc\include\algorithm
;	COMDAT ??$sort_heap@PAUtagBaseCharHP@@VBaseCharHPSort@@@std@@YAXPAUtagBaseCharHP@@0VBaseCharHPSort@@@Z
_TEXT	SEGMENT
__First$ = 8						; size = 4
__Last$ = 12						; size = 4
__Pred$ = 16						; size = 1
??$sort_heap@PAUtagBaseCharHP@@VBaseCharHPSort@@@std@@YAXPAUtagBaseCharHP@@0VBaseCharHPSort@@@Z PROC ; std::sort_heap<tagBaseCharHP *,BaseCharHPSort>, COMDAT

; 2708 : 	{	// order heap by repeatedly popping, using _Pred

  00000	55		 push	 ebp
  00001	8b ec		 mov	 ebp, esp

; 2709 : 	_DEBUG_RANGE(_First, _Last);
; 2710 : 	_DEBUG_POINTER(_Pred);
; 2711 : 	_DEBUG_HEAP_PRED(_First, _Last, _Pred);
; 2712 : 	_Sort_heap(_Unchecked(_First), _Unchecked(_Last), _Pred);

  00003	ff 75 10	 push	 DWORD PTR __Pred$[ebp]
  00006	ff 75 0c	 push	 DWORD PTR __Last$[ebp]
  00009	ff 75 08	 push	 DWORD PTR __First$[ebp]
  0000c	e8 00 00 00 00	 call	 ??$_Sort_heap@PAUtagBaseCharHP@@VBaseCharHPSort@@@std@@YAXPAUtagBaseCharHP@@0VBaseCharHPSort@@@Z ; std::_Sort_heap<tagBaseCharHP *,BaseCharHPSort>
  00011	83 c4 0c	 add	 esp, 12			; 0000000cH

; 2713 : 	}

  00014	5d		 pop	 ebp
  00015	c3		 ret	 0
??$sort_heap@PAUtagBaseCharHP@@VBaseCharHPSort@@@std@@YAXPAUtagBaseCharHP@@0VBaseCharHPSort@@@Z ENDP ; std::sort_heap<tagBaseCharHP *,BaseCharHPSort>
_TEXT	ENDS
PUBLIC	?_Tidy@?$vector@UForceInfo@@V?$allocator@UForceInfo@@@std@@@std@@IAEXXZ ; std::vector<ForceInfo,std::allocator<ForceInfo> >::_Tidy
EXTRN	__imp_?_Orphan_all@_Container_base0@std@@QAEXXZ:PROC
; Function compile flags: /Ogsp
; File c:\program files (x86)\microsoft visual studio 10.0\vc\include\vector
;	COMDAT ?_Tidy@?$vector@UForceInfo@@V?$allocator@UForceInfo@@@std@@@std@@IAEXXZ
_TEXT	SEGMENT
?_Tidy@?$vector@UForceInfo@@V?$allocator@UForceInfo@@@std@@@std@@IAEXXZ PROC ; std::vector<ForceInfo,std::allocator<ForceInfo> >::_Tidy, COMDAT
; _this$ = ecx

; 1301 : 		{	// free all storage

  00000	56		 push	 esi
  00001	8b f1		 mov	 esi, ecx

; 1302 : 		if (this->_Myfirst != 0)

  00003	83 3e 00	 cmp	 DWORD PTR [esi], 0
  00006	74 0e		 je	 SHORT $LN21@Tidy

; 1303 : 			{	// something to free, destroy and deallocate it
; 1304 : 			this->_Orphan_all();

  00008	ff 15 00 00 00
	00		 call	 DWORD PTR __imp_?_Orphan_all@_Container_base0@std@@QAEXXZ

; 1305 : 			_Destroy(this->_Myfirst, this->_Mylast);
; 1306 : 			this->_Alval.deallocate(this->_Myfirst,
; 1307 : 				this->_Myend - this->_Myfirst);

  0000e	ff 36		 push	 DWORD PTR [esi]
  00010	e8 00 00 00 00	 call	 ??3@YAXPAX@Z		; operator delete
  00015	59		 pop	 ecx
$LN21@Tidy:

; 1308 : 			}
; 1309 : 		this->_Myfirst = 0;

  00016	83 26 00	 and	 DWORD PTR [esi], 0

; 1310 : 		this->_Mylast = 0;

  00019	83 66 04 00	 and	 DWORD PTR [esi+4], 0

; 1311 : 		this->_Myend = 0;

  0001d	83 66 08 00	 and	 DWORD PTR [esi+8], 0
  00021	5e		 pop	 esi

; 1312 : 		}

  00022	c3		 ret	 0
?_Tidy@?$vector@UForceInfo@@V?$allocator@UForceInfo@@@std@@@std@@IAEXXZ ENDP ; std::vector<ForceInfo,std::allocator<ForceInfo> >::_Tidy
_TEXT	ENDS
PUBLIC	?_Destroy@?$vector@UWeaponInfo@@V?$allocator@UWeaponInfo@@@std@@@std@@IAEXPAUWeaponInfo@@0@Z ; std::vector<WeaponInfo,std::allocator<WeaponInfo> >::_Destroy
; Function compile flags: /Ogsp
;	COMDAT ?_Destroy@?$vector@UWeaponInfo@@V?$allocator@UWeaponInfo@@@std@@@std@@IAEXPAUWeaponInfo@@0@Z
_TEXT	SEGMENT
__First$ = 8						; size = 4
__Last$ = 12						; size = 4
?_Destroy@?$vector@UWeaponInfo@@V?$allocator@UWeaponInfo@@@std@@@std@@IAEXPAUWeaponInfo@@0@Z PROC ; std::vector<WeaponInfo,std::allocator<WeaponInfo> >::_Destroy, COMDAT
; _this$ = ecx

; 1269 : 		{	// destroy [_First, _Last) using allocator

  00000	55		 push	 ebp
  00001	8b ec		 mov	 ebp, esp

; 1270 : 		_Destroy_range(_First, _Last, this->_Alval);

  00003	83 c1 0c	 add	 ecx, 12			; 0000000cH
  00006	51		 push	 ecx
  00007	ff 75 0c	 push	 DWORD PTR __Last$[ebp]
  0000a	ff 75 08	 push	 DWORD PTR __First$[ebp]
  0000d	e8 00 00 00 00	 call	 ??$_Destroy_range@V?$allocator@UWeaponInfo@@@std@@@std@@YAXPAUWeaponInfo@@0AAV?$allocator@UWeaponInfo@@@0@@Z ; std::_Destroy_range<std::allocator<WeaponInfo> >
  00012	83 c4 0c	 add	 esp, 12			; 0000000cH

; 1271 : 		}

  00015	5d		 pop	 ebp
  00016	c2 08 00	 ret	 8
?_Destroy@?$vector@UWeaponInfo@@V?$allocator@UWeaponInfo@@@std@@@std@@IAEXPAUWeaponInfo@@0@Z ENDP ; std::vector<WeaponInfo,std::allocator<WeaponInfo> >::_Destroy
_TEXT	ENDS
PUBLIC	?clear@?$vector@UForceInfo@@V?$allocator@UForceInfo@@@std@@@std@@QAEXXZ ; std::vector<ForceInfo,std::allocator<ForceInfo> >::clear
; Function compile flags: /Ogsp
;	COMDAT ?clear@?$vector@UForceInfo@@V?$allocator@UForceInfo@@@std@@@std@@QAEXXZ
_TEXT	SEGMENT
$T559759 = -4						; size = 4
?clear@?$vector@UForceInfo@@V?$allocator@UForceInfo@@@std@@@std@@QAEXXZ PROC ; std::vector<ForceInfo,std::allocator<ForceInfo> >::clear, COMDAT
; _this$ = ecx

; 1217 : 		{	// erase all

  00000	55		 push	 ebp
  00001	8b ec		 mov	 ebp, esp
  00003	51		 push	 ecx

; 1218 : 		erase(begin(), end());

  00004	8b 41 04	 mov	 eax, DWORD PTR [ecx+4]
  00007	8b 11		 mov	 edx, DWORD PTR [ecx]
  00009	50		 push	 eax
  0000a	52		 push	 edx
  0000b	8d 45 fc	 lea	 eax, DWORD PTR $T559759[ebp]
  0000e	50		 push	 eax
  0000f	e8 00 00 00 00	 call	 ?erase@?$vector@UForceInfo@@V?$allocator@UForceInfo@@@std@@@std@@QAE?AV?$_Vector_iterator@V?$_Vector_val@UForceInfo@@V?$allocator@UForceInfo@@@std@@@std@@@2@V?$_Vector_const_iterator@V?$_Vector_val@UForceInfo@@V?$allocator@UForceInfo@@@std@@@std@@@2@0@Z ; std::vector<ForceInfo,std::allocator<ForceInfo> >::erase

; 1219 : 		}

  00014	c9		 leave
  00015	c3		 ret	 0
?clear@?$vector@UForceInfo@@V?$allocator@UForceInfo@@@std@@@std@@QAEXXZ ENDP ; std::vector<ForceInfo,std::allocator<ForceInfo> >::clear
_TEXT	ENDS
PUBLIC	?erase@?$vector@UWeaponInfo@@V?$allocator@UWeaponInfo@@@std@@@std@@QAE?AV?$_Vector_iterator@V?$_Vector_val@UWeaponInfo@@V?$allocator@UWeaponInfo@@@std@@@std@@@2@V?$_Vector_const_iterator@V?$_Vector_val@UWeaponInfo@@V?$allocator@UWeaponInfo@@@std@@@std@@@2@0@Z ; std::vector<WeaponInfo,std::allocator<WeaponInfo> >::erase
; Function compile flags: /Ogsp
;	COMDAT ?erase@?$vector@UWeaponInfo@@V?$allocator@UWeaponInfo@@@std@@@std@@QAE?AV?$_Vector_iterator@V?$_Vector_val@UWeaponInfo@@V?$allocator@UWeaponInfo@@@std@@@std@@@2@V?$_Vector_const_iterator@V?$_Vector_val@UWeaponInfo@@V?$allocator@UWeaponInfo@@@std@@@std@@@2@0@Z
_TEXT	SEGMENT
___$ReturnUdt$ = 8					; size = 4
__First_arg$ = 12					; size = 4
__Cat$559886 = 16					; size = 1
__Last_arg$ = 16					; size = 4
?erase@?$vector@UWeaponInfo@@V?$allocator@UWeaponInfo@@@std@@@std@@QAE?AV?$_Vector_iterator@V?$_Vector_val@UWeaponInfo@@V?$allocator@UWeaponInfo@@@std@@@std@@@2@V?$_Vector_const_iterator@V?$_Vector_val@UWeaponInfo@@V?$allocator@UWeaponInfo@@@std@@@std@@@2@0@Z PROC ; std::vector<WeaponInfo,std::allocator<WeaponInfo> >::erase, COMDAT
; _this$ = ecx

; 1190 : 		{	// erase [_First, _Last)

  00000	55		 push	 ebp
  00001	8b ec		 mov	 ebp, esp

; 1191 : 		iterator _First = _Make_iter(_First_arg);

  00003	8b 45 0c	 mov	 eax, DWORD PTR __First_arg$[ebp]
  00006	53		 push	 ebx
  00007	8b 5d 08	 mov	 ebx, DWORD PTR ___$ReturnUdt$[ebp]
  0000a	56		 push	 esi
  0000b	8b f1		 mov	 esi, ecx
  0000d	89 03		 mov	 DWORD PTR [ebx], eax

; 1192 : 		iterator _Last = _Make_iter(_Last_arg);
; 1193 : 
; 1194 : 		if (_First != _Last)

  0000f	3b 45 10	 cmp	 eax, DWORD PTR __Last_arg$[ebp]
  00012	74 27		 je	 SHORT $LN1@erase@2

; 1195 : 			{	// worth doing, copy down over hole
; 1196 :  #if _ITERATOR_DEBUG_LEVEL == 2
; 1197 : 			if (_Last < _First || _VICONT(_First) != this
; 1198 : 				|| _VIPTR(_First) < this->_Myfirst
; 1199 : 				|| this->_Mylast < _VIPTR(_Last))
; 1200 : 				_DEBUG_ERROR("vector erase iterator outside range");
; 1201 : 			pointer _Ptr = _Move(_VIPTR(_Last), this->_Mylast,
; 1202 : 				_VIPTR(_First));
; 1203 : 			_Orphan_range(_VIPTR(_First), this->_Mylast);
; 1204 : 
; 1205 :  #else /* _ITERATOR_DEBUG_LEVEL == 2 */
; 1206 : 			pointer _Ptr = _Move(_VIPTR(_Last), this->_Mylast,
; 1207 : 				_VIPTR(_First));

  00014	8b 4e 04	 mov	 ecx, DWORD PTR [esi+4]
  00017	57		 push	 edi
  00018	ff 75 10	 push	 DWORD PTR __Cat$559886[ebp]
  0001b	50		 push	 eax
  0001c	51		 push	 ecx
  0001d	ff 75 10	 push	 DWORD PTR __Last_arg$[ebp]
  00020	e8 00 00 00 00	 call	 ??$_Move@PAUWeaponInfo@@PAU1@@std@@YAPAUWeaponInfo@@PAU1@00U_Nonscalar_ptr_iterator_tag@0@@Z ; std::_Move<WeaponInfo *,WeaponInfo *>
  00025	8b f8		 mov	 edi, eax

; 1208 :  #endif /* _ITERATOR_DEBUG_LEVEL == 2 */
; 1209 : 
; 1210 : 			_Destroy(_Ptr, this->_Mylast);

  00027	8d 46 0c	 lea	 eax, DWORD PTR [esi+12]
  0002a	50		 push	 eax
  0002b	ff 76 04	 push	 DWORD PTR [esi+4]
  0002e	57		 push	 edi
  0002f	e8 00 00 00 00	 call	 ??$_Destroy_range@V?$allocator@UWeaponInfo@@@std@@@std@@YAXPAUWeaponInfo@@0AAV?$allocator@UWeaponInfo@@@0@@Z ; std::_Destroy_range<std::allocator<WeaponInfo> >
  00034	83 c4 1c	 add	 esp, 28			; 0000001cH

; 1211 : 			this->_Mylast = _Ptr;

  00037	89 7e 04	 mov	 DWORD PTR [esi+4], edi
  0003a	5f		 pop	 edi
$LN1@erase@2:

; 1212 : 			}
; 1213 : 		return (_First);

  0003b	5e		 pop	 esi
  0003c	8b c3		 mov	 eax, ebx
  0003e	5b		 pop	 ebx

; 1214 : 		}

  0003f	5d		 pop	 ebp
  00040	c2 0c 00	 ret	 12			; 0000000cH
?erase@?$vector@UWeaponInfo@@V?$allocator@UWeaponInfo@@@std@@@std@@QAE?AV?$_Vector_iterator@V?$_Vector_val@UWeaponInfo@@V?$allocator@UWeaponInfo@@@std@@@std@@@2@V?$_Vector_const_iterator@V?$_Vector_val@UWeaponInfo@@V?$allocator@UWeaponInfo@@@std@@@std@@@2@0@Z ENDP ; std::vector<WeaponInfo,std::allocator<WeaponInfo> >::erase
_TEXT	ENDS
PUBLIC	??0?$vector@UForceInfo@@V?$allocator@UForceInfo@@@std@@@std@@QAE@ABV01@@Z ; std::vector<ForceInfo,std::allocator<ForceInfo> >::vector<ForceInfo,std::allocator<ForceInfo> >
;	COMDAT xdata$x
; File c:\program files (x86)\microsoft visual studio 10.0\vc\include\xutility
xdata$x	SEGMENT
__catchsym$??0?$vector@UForceInfo@@V?$allocator@UForceInfo@@@std@@@std@@QAE@ABV01@@Z$2 DD 040H
	DD	00H
	DD	00H
	DD	FLAT:__catch$??0?$vector@UForceInfo@@V?$allocator@UForceInfo@@@std@@@std@@QAE@ABV01@@Z$0
__unwindtable$??0?$vector@UForceInfo@@V?$allocator@UForceInfo@@@std@@@std@@QAE@ABV01@@Z DD 0ffffffffH
	DD	00H
	DD	0ffffffffH
	DD	00H
__tryblocktable$??0?$vector@UForceInfo@@V?$allocator@UForceInfo@@@std@@@std@@QAE@ABV01@@Z DD 00H
	DD	00H
	DD	01H
	DD	01H
	DD	FLAT:__catchsym$??0?$vector@UForceInfo@@V?$allocator@UForceInfo@@@std@@@std@@QAE@ABV01@@Z$2
__ehfuncinfo$??0?$vector@UForceInfo@@V?$allocator@UForceInfo@@@std@@@std@@QAE@ABV01@@Z DD 019930522H
	DD	02H
	DD	FLAT:__unwindtable$??0?$vector@UForceInfo@@V?$allocator@UForceInfo@@@std@@@std@@QAE@ABV01@@Z
	DD	01H
	DD	FLAT:__tryblocktable$??0?$vector@UForceInfo@@V?$allocator@UForceInfo@@@std@@@std@@QAE@ABV01@@Z
	DD	2 DUP(00H)
	DD	00H
	DD	01H
; Function compile flags: /Ogsp
; File c:\program files (x86)\microsoft visual studio 10.0\vc\include\vector
xdata$x	ENDS
;	COMDAT ??0?$vector@UForceInfo@@V?$allocator@UForceInfo@@@std@@@std@@QAE@ABV01@@Z
_TEXT	SEGMENT
_this$ = -20						; size = 4
__$EHRec$ = -16						; size = 16
__Cat$559974 = 8					; size = 1
__Right$ = 8						; size = 4
??0?$vector@UForceInfo@@V?$allocator@UForceInfo@@@std@@@std@@QAE@ABV01@@Z PROC ; std::vector<ForceInfo,std::allocator<ForceInfo> >::vector<ForceInfo,std::allocator<ForceInfo> >, COMDAT
; _this$ = ecx

; 535  : 		{	// construct by copying _Right

  00000	6a 08		 push	 8
  00002	b8 00 00 00 00	 mov	 eax, __ehhandler$??0?$vector@UForceInfo@@V?$allocator@UForceInfo@@@std@@@std@@QAE@ABV01@@Z
  00007	e8 00 00 00 00	 call	 __EH_prolog3_catch
  0000c	8b f1		 mov	 esi, ecx
  0000e	89 75 ec	 mov	 DWORD PTR _this$[ebp], esi

; 536  : 		if (_Buy(_Right.size()))

  00011	8b 7d 08	 mov	 edi, DWORD PTR __Right$[ebp]
  00014	33 db		 xor	 ebx, ebx
  00016	89 1e		 mov	 DWORD PTR [esi], ebx
  00018	89 5e 04	 mov	 DWORD PTR [esi+4], ebx
  0001b	89 5e 08	 mov	 DWORD PTR [esi+8], ebx
  0001e	8b 47 04	 mov	 eax, DWORD PTR [edi+4]
  00021	2b 07		 sub	 eax, DWORD PTR [edi]
  00023	6a 0c		 push	 12			; 0000000cH
  00025	59		 pop	 ecx
  00026	99		 cdq
  00027	f7 f9		 idiv	 ecx
  00029	8b ce		 mov	 ecx, esi
  0002b	50		 push	 eax
  0002c	e8 00 00 00 00	 call	 ?_Buy@?$vector@UForceInfo@@V?$allocator@UForceInfo@@@std@@@std@@IAE_NI@Z ; std::vector<ForceInfo,std::allocator<ForceInfo> >::_Buy
  00031	84 c0		 test	 al, al
  00033	74 1f		 je	 SHORT $LN7@vector

; 537  : 			_TRY_BEGIN
; 538  : 			this->_Mylast = _Ucopy(_Right.begin(), _Right.end(),
; 539  : 				this->_Myfirst);

  00035	ff 75 08	 push	 DWORD PTR __Cat$559974[ebp]
  00038	8b 0e		 mov	 ecx, DWORD PTR [esi]
  0003a	8b 47 04	 mov	 eax, DWORD PTR [edi+4]
  0003d	8b 3f		 mov	 edi, DWORD PTR [edi]
  0003f	8d 56 0c	 lea	 edx, DWORD PTR [esi+12]
  00042	52		 push	 edx
  00043	51		 push	 ecx
  00044	50		 push	 eax
  00045	57		 push	 edi
  00046	89 5d fc	 mov	 DWORD PTR __$EHRec$[ebp+12], ebx
  00049	e8 00 00 00 00	 call	 ??$_Uninit_copy@V?$_Vector_const_iterator@V?$_Vector_val@UForceInfo@@V?$allocator@UForceInfo@@@std@@@std@@@std@@PAUForceInfo@@V?$allocator@UForceInfo@@@2@@std@@YAPAUForceInfo@@V?$_Vector_const_iterator@V?$_Vector_val@UForceInfo@@V?$allocator@UForceInfo@@@std@@@std@@@0@0PAU1@AAV?$allocator@UForceInfo@@@0@U_Nonscalar_ptr_iterator_tag@0@@Z ; std::_Uninit_copy<std::_Vector_const_iterator<std::_Vector_val<ForceInfo,std::allocator<ForceInfo> > >,ForceInfo *,std::allocator<ForceInfo> >
  0004e	83 c4 14	 add	 esp, 20			; 00000014H
  00051	89 46 04	 mov	 DWORD PTR [esi+4], eax
$LN7@vector:

; 543  : 			_CATCH_END
; 544  : 		}

  00054	8b c6		 mov	 eax, esi
  00056	e8 00 00 00 00	 call	 __EH_epilog3
  0005b	c2 04 00	 ret	 4
__catch$??0?$vector@UForceInfo@@V?$allocator@UForceInfo@@@std@@@std@@QAE@ABV01@@Z$0:

; 540  : 			_CATCH_ALL
; 541  : 			_Tidy();

  0005e	8b 4d ec	 mov	 ecx, DWORD PTR _this$[ebp]
  00061	e8 00 00 00 00	 call	 ?_Tidy@?$vector@UForceInfo@@V?$allocator@UForceInfo@@@std@@@std@@IAEXXZ ; std::vector<ForceInfo,std::allocator<ForceInfo> >::_Tidy

; 542  : 			_RERAISE;

  00066	33 db		 xor	 ebx, ebx
  00068	53		 push	 ebx
  00069	53		 push	 ebx
  0006a	e8 00 00 00 00	 call	 __CxxThrowException@8
$LN38@vector:
$LN37@vector:
  0006f	cc		 int	 3
_TEXT	ENDS
;	COMDAT text$x
text$x	SEGMENT
__ehhandler$??0?$vector@UForceInfo@@V?$allocator@UForceInfo@@@std@@@std@@QAE@ABV01@@Z:
  00000	8b 54 24 08	 mov	 edx, DWORD PTR [esp+8]
  00004	8d 42 0c	 lea	 eax, DWORD PTR [edx+12]
  00007	8b 4a e8	 mov	 ecx, DWORD PTR [edx-24]
  0000a	33 c8		 xor	 ecx, eax
  0000c	e8 00 00 00 00	 call	 @__security_check_cookie@4
  00011	b8 00 00 00 00	 mov	 eax, OFFSET __ehfuncinfo$??0?$vector@UForceInfo@@V?$allocator@UForceInfo@@@std@@@std@@QAE@ABV01@@Z
  00016	e9 00 00 00 00	 jmp	 ___CxxFrameHandler3
text$x	ENDS
??0?$vector@UForceInfo@@V?$allocator@UForceInfo@@@std@@@std@@QAE@ABV01@@Z ENDP ; std::vector<ForceInfo,std::allocator<ForceInfo> >::vector<ForceInfo,std::allocator<ForceInfo> >
PUBLIC	?erase@?$vector@UtagBaseCharHP@@V?$allocator@UtagBaseCharHP@@@std@@@std@@QAE?AV?$_Vector_iterator@V?$_Vector_val@UtagBaseCharHP@@V?$allocator@UtagBaseCharHP@@@std@@@std@@@2@V?$_Vector_const_iterator@V?$_Vector_val@UtagBaseCharHP@@V?$allocator@UtagBaseCharHP@@@std@@@std@@@2@0@Z ; std::vector<tagBaseCharHP,std::allocator<tagBaseCharHP> >::erase
; Function compile flags: /Ogsp
;	COMDAT ?erase@?$vector@UtagBaseCharHP@@V?$allocator@UtagBaseCharHP@@@std@@@std@@QAE?AV?$_Vector_iterator@V?$_Vector_val@UtagBaseCharHP@@V?$allocator@UtagBaseCharHP@@@std@@@std@@@2@V?$_Vector_const_iterator@V?$_Vector_val@UtagBaseCharHP@@V?$allocator@UtagBaseCharHP@@@std@@@std@@@2@0@Z
_TEXT	SEGMENT
$T560133 = -4						; size = 4
___$ReturnUdt$ = 8					; size = 4
__First_arg$ = 12					; size = 4
__Cat$560064 = 16					; size = 1
__Last_arg$ = 16					; size = 4
?erase@?$vector@UtagBaseCharHP@@V?$allocator@UtagBaseCharHP@@@std@@@std@@QAE?AV?$_Vector_iterator@V?$_Vector_val@UtagBaseCharHP@@V?$allocator@UtagBaseCharHP@@@std@@@std@@@2@V?$_Vector_const_iterator@V?$_Vector_val@UtagBaseCharHP@@V?$allocator@UtagBaseCharHP@@@std@@@std@@@2@0@Z PROC ; std::vector<tagBaseCharHP,std::allocator<tagBaseCharHP> >::erase, COMDAT
; _this$ = ecx

; 1190 : 		{	// erase [_First, _Last)

  00000	55		 push	 ebp
  00001	8b ec		 mov	 ebp, esp
  00003	51		 push	 ecx

; 1191 : 		iterator _First = _Make_iter(_First_arg);

  00004	8b 45 08	 mov	 eax, DWORD PTR ___$ReturnUdt$[ebp]
  00007	56		 push	 esi
  00008	8b f1		 mov	 esi, ecx
  0000a	8b 4d 0c	 mov	 ecx, DWORD PTR __First_arg$[ebp]
  0000d	89 08		 mov	 DWORD PTR [eax], ecx

; 1192 : 		iterator _Last = _Make_iter(_Last_arg);
; 1193 : 
; 1194 : 		if (_First != _Last)

  0000f	3b 4d 10	 cmp	 ecx, DWORD PTR __Last_arg$[ebp]
  00012	74 38		 je	 SHORT $LN1@erase@3

; 1195 : 			{	// worth doing, copy down over hole
; 1196 :  #if _ITERATOR_DEBUG_LEVEL == 2
; 1197 : 			if (_Last < _First || _VICONT(_First) != this
; 1198 : 				|| _VIPTR(_First) < this->_Myfirst
; 1199 : 				|| this->_Mylast < _VIPTR(_Last))
; 1200 : 				_DEBUG_ERROR("vector erase iterator outside range");
; 1201 : 			pointer _Ptr = _Move(_VIPTR(_Last), this->_Mylast,
; 1202 : 				_VIPTR(_First));
; 1203 : 			_Orphan_range(_VIPTR(_First), this->_Mylast);
; 1204 : 
; 1205 :  #else /* _ITERATOR_DEBUG_LEVEL == 2 */
; 1206 : 			pointer _Ptr = _Move(_VIPTR(_Last), this->_Mylast,
; 1207 : 				_VIPTR(_First));

  00014	8b 46 04	 mov	 eax, DWORD PTR [esi+4]
  00017	53		 push	 ebx
  00018	57		 push	 edi
  00019	ff 75 10	 push	 DWORD PTR __Cat$560064[ebp]
  0001c	51		 push	 ecx
  0001d	50		 push	 eax
  0001e	ff 75 10	 push	 DWORD PTR __Last_arg$[ebp]
  00021	e8 00 00 00 00	 call	 ??$_Move@PAUtagBaseCharHP@@PAU1@@std@@YAPAUtagBaseCharHP@@PAU1@00U_Nonscalar_ptr_iterator_tag@0@@Z ; std::_Move<tagBaseCharHP *,tagBaseCharHP *>

; 1208 :  #endif /* _ITERATOR_DEBUG_LEVEL == 2 */
; 1209 : 
; 1210 : 			_Destroy(_Ptr, this->_Mylast);

  00026	8b 7e 04	 mov	 edi, DWORD PTR [esi+4]
  00029	8b d8		 mov	 ebx, eax
  0002b	83 c4 10	 add	 esp, 16			; 00000010H
  0002e	89 5d fc	 mov	 DWORD PTR $T560133[ebp], ebx
  00031	3b df		 cmp	 ebx, edi
  00033	74 12		 je	 SHORT $LN36@erase@3
$LL55@erase@3:
  00035	8b 4d fc	 mov	 ecx, DWORD PTR $T560133[ebp]
  00038	ff 15 00 00 00
	00		 call	 DWORD PTR __imp_??1ioHashString@@QAE@XZ
  0003e	83 45 fc 18	 add	 DWORD PTR $T560133[ebp], 24 ; 00000018H
  00042	39 7d fc	 cmp	 DWORD PTR $T560133[ebp], edi
  00045	75 ee		 jne	 SHORT $LL55@erase@3
$LN36@erase@3:

; 1211 : 			this->_Mylast = _Ptr;

  00047	5f		 pop	 edi
  00048	89 5e 04	 mov	 DWORD PTR [esi+4], ebx
  0004b	5b		 pop	 ebx
$LN1@erase@3:

; 1212 : 			}
; 1213 : 		return (_First);

  0004c	8b 45 08	 mov	 eax, DWORD PTR ___$ReturnUdt$[ebp]
  0004f	5e		 pop	 esi

; 1214 : 		}

  00050	c9		 leave
  00051	c2 0c 00	 ret	 12			; 0000000cH
?erase@?$vector@UtagBaseCharHP@@V?$allocator@UtagBaseCharHP@@@std@@@std@@QAE?AV?$_Vector_iterator@V?$_Vector_val@UtagBaseCharHP@@V?$allocator@UtagBaseCharHP@@@std@@@std@@@2@V?$_Vector_const_iterator@V?$_Vector_val@UtagBaseCharHP@@V?$allocator@UtagBaseCharHP@@@std@@@std@@@2@0@Z ENDP ; std::vector<tagBaseCharHP,std::allocator<tagBaseCharHP> >::erase
_TEXT	ENDS
PUBLIC	?_Tidy@?$vector@UtagBaseCharHP@@V?$allocator@UtagBaseCharHP@@@std@@@std@@IAEXXZ ; std::vector<tagBaseCharHP,std::allocator<tagBaseCharHP> >::_Tidy
; Function compile flags: /Ogsp
;	COMDAT ?_Tidy@?$vector@UtagBaseCharHP@@V?$allocator@UtagBaseCharHP@@@std@@@std@@IAEXXZ
_TEXT	SEGMENT
?_Tidy@?$vector@UtagBaseCharHP@@V?$allocator@UtagBaseCharHP@@@std@@@std@@IAEXXZ PROC ; std::vector<tagBaseCharHP,std::allocator<tagBaseCharHP> >::_Tidy, COMDAT
; _this$ = ecx

; 1301 : 		{	// free all storage

  00000	56		 push	 esi
  00001	8b f1		 mov	 esi, ecx

; 1302 : 		if (this->_Myfirst != 0)

  00003	83 3e 00	 cmp	 DWORD PTR [esi], 0
  00006	74 28		 je	 SHORT $LN27@Tidy@2

; 1303 : 			{	// something to free, destroy and deallocate it
; 1304 : 			this->_Orphan_all();

  00008	53		 push	 ebx
  00009	57		 push	 edi
  0000a	ff 15 00 00 00
	00		 call	 DWORD PTR __imp_?_Orphan_all@_Container_base0@std@@QAEXXZ

; 1305 : 			_Destroy(this->_Myfirst, this->_Mylast);

  00010	8b 5e 04	 mov	 ebx, DWORD PTR [esi+4]
  00013	8b 3e		 mov	 edi, DWORD PTR [esi]
  00015	eb 0b		 jmp	 SHORT $LN31@Tidy@2
$LL12@Tidy@2:
  00017	8b cf		 mov	 ecx, edi
  00019	ff 15 00 00 00
	00		 call	 DWORD PTR __imp_??1ioHashString@@QAE@XZ
  0001f	83 c7 18	 add	 edi, 24			; 00000018H
$LN31@Tidy@2:
  00022	3b fb		 cmp	 edi, ebx
  00024	75 f1		 jne	 SHORT $LL12@Tidy@2

; 1306 : 			this->_Alval.deallocate(this->_Myfirst,
; 1307 : 				this->_Myend - this->_Myfirst);

  00026	ff 36		 push	 DWORD PTR [esi]
  00028	e8 00 00 00 00	 call	 ??3@YAXPAX@Z		; operator delete
  0002d	59		 pop	 ecx
  0002e	5f		 pop	 edi
  0002f	5b		 pop	 ebx
$LN27@Tidy@2:

; 1308 : 			}
; 1309 : 		this->_Myfirst = 0;

  00030	33 c0		 xor	 eax, eax
  00032	89 06		 mov	 DWORD PTR [esi], eax

; 1310 : 		this->_Mylast = 0;

  00034	89 46 04	 mov	 DWORD PTR [esi+4], eax

; 1311 : 		this->_Myend = 0;

  00037	89 46 08	 mov	 DWORD PTR [esi+8], eax
  0003a	5e		 pop	 esi

; 1312 : 		}

  0003b	c3		 ret	 0
?_Tidy@?$vector@UtagBaseCharHP@@V?$allocator@UtagBaseCharHP@@@std@@@std@@IAEXXZ ENDP ; std::vector<tagBaseCharHP,std::allocator<tagBaseCharHP> >::_Tidy
_TEXT	ENDS
PUBLIC	?reserve@?$vector@UtagBaseCharHP@@V?$allocator@UtagBaseCharHP@@@std@@@std@@QAEXI@Z ; std::vector<tagBaseCharHP,std::allocator<tagBaseCharHP> >::reserve
;	COMDAT xdata$x
; File c:\program files (x86)\microsoft visual studio 10.0\vc\include\xmemory
xdata$x	SEGMENT
__catchsym$?reserve@?$vector@UtagBaseCharHP@@V?$allocator@UtagBaseCharHP@@@std@@@std@@QAEXI@Z$3 DD 040H
	DD	00H
	DD	00H
	DD	FLAT:__catch$?reserve@?$vector@UtagBaseCharHP@@V?$allocator@UtagBaseCharHP@@@std@@@std@@QAEXI@Z$0
__unwindtable$?reserve@?$vector@UtagBaseCharHP@@V?$allocator@UtagBaseCharHP@@@std@@@std@@QAEXI@Z DD 0ffffffffH
	DD	00H
	DD	0ffffffffH
	DD	00H
__tryblocktable$?reserve@?$vector@UtagBaseCharHP@@V?$allocator@UtagBaseCharHP@@@std@@@std@@QAEXI@Z DD 00H
	DD	00H
	DD	01H
	DD	01H
	DD	FLAT:__catchsym$?reserve@?$vector@UtagBaseCharHP@@V?$allocator@UtagBaseCharHP@@@std@@@std@@QAEXI@Z$3
__ehfuncinfo$?reserve@?$vector@UtagBaseCharHP@@V?$allocator@UtagBaseCharHP@@@std@@@std@@QAEXI@Z DD 019930522H
	DD	02H
	DD	FLAT:__unwindtable$?reserve@?$vector@UtagBaseCharHP@@V?$allocator@UtagBaseCharHP@@@std@@@std@@QAEXI@Z
	DD	01H
	DD	FLAT:__tryblocktable$?reserve@?$vector@UtagBaseCharHP@@V?$allocator@UtagBaseCharHP@@@std@@@std@@QAEXI@Z
	DD	2 DUP(00H)
	DD	00H
	DD	01H
; Function compile flags: /Ogsp
; File c:\program files (x86)\microsoft visual studio 10.0\vc\include\vector
xdata$x	ENDS
;	COMDAT ?reserve@?$vector@UtagBaseCharHP@@V?$allocator@UtagBaseCharHP@@@std@@@std@@QAEXI@Z
_TEXT	SEGMENT
__Ptr$549485 = -24					; size = 4
$T560415 = -20						; size = 4
__$EHRec$ = -16						; size = 16
__Count$ = 8						; size = 4
?reserve@?$vector@UtagBaseCharHP@@V?$allocator@UtagBaseCharHP@@@std@@@std@@QAEXI@Z PROC ; std::vector<tagBaseCharHP,std::allocator<tagBaseCharHP> >::reserve, COMDAT
; _this$ = ecx

; 746  : 		{	// determine new minimum length of allocated storage

  00000	6a 0c		 push	 12			; 0000000cH
  00002	b8 00 00 00 00	 mov	 eax, __ehhandler$?reserve@?$vector@UtagBaseCharHP@@V?$allocator@UtagBaseCharHP@@@std@@@std@@QAEXI@Z
  00007	e8 00 00 00 00	 call	 __EH_prolog3_catch
  0000c	8b f1		 mov	 esi, ecx

; 747  : 		if (max_size() < _Count)

  0000e	81 7d 08 aa aa
	aa 0a		 cmp	 DWORD PTR __Count$[ebp], 178956970 ; 0aaaaaaaH
  00015	76 0b		 jbe	 SHORT $LN5@reserve

; 748  : 			_Xlen();	// result too long

  00017	68 00 00 00 00	 push	 OFFSET ??_C@_0BD@OLBABOEK@vector?$DMT?$DO?5too?5long?$AA@
  0001c	ff 15 00 00 00
	00		 call	 DWORD PTR __imp_?_Xlength_error@std@@YAXPBD@Z
$LN62@reserve:
$LN5@reserve:

; 749  : 		else if (capacity() < _Count)

  00022	8b 46 08	 mov	 eax, DWORD PTR [esi+8]
  00025	2b 06		 sub	 eax, DWORD PTR [esi]
  00027	6a 18		 push	 24			; 00000018H
  00029	99		 cdq
  0002a	59		 pop	 ecx
  0002b	f7 f9		 idiv	 ecx
  0002d	3b 45 08	 cmp	 eax, DWORD PTR __Count$[ebp]
  00030	0f 83 81 00 00
	00		 jae	 $LN3@reserve

; 750  : 			{	// not enough room, reallocate
; 751  : 			pointer _Ptr = this->_Alval.allocate(_Count);

  00036	6a 00		 push	 0
  00038	ff 75 08	 push	 DWORD PTR __Count$[ebp]
  0003b	e8 00 00 00 00	 call	 ??$_Allocate@UtagBaseCharHP@@@std@@YAPAUtagBaseCharHP@@IPAU1@@Z ; std::_Allocate<tagBaseCharHP>

; 752  : 
; 753  : 			_TRY_BEGIN
; 754  : 			_Umove(this->_Myfirst, this->_Mylast, _Ptr);

  00040	8b 0e		 mov	 ecx, DWORD PTR [esi]
  00042	83 65 fc 00	 and	 DWORD PTR __$EHRec$[ebp+12], 0
  00046	8d 56 0c	 lea	 edx, DWORD PTR [esi+12]
  00049	52		 push	 edx
  0004a	89 45 e8	 mov	 DWORD PTR __Ptr$549485[ebp], eax
  0004d	ff 75 e8	 push	 DWORD PTR __Ptr$549485[ebp]
  00050	8b 46 04	 mov	 eax, DWORD PTR [esi+4]
  00053	50		 push	 eax
  00054	51		 push	 ecx
  00055	e8 00 00 00 00	 call	 ??$_Uninitialized_move@PAUtagBaseCharHP@@PAU1@V?$allocator@UtagBaseCharHP@@@std@@@std@@YAPAUtagBaseCharHP@@PAU1@00AAV?$allocator@UtagBaseCharHP@@@0@@Z ; std::_Uninitialized_move<tagBaseCharHP *,tagBaseCharHP *,std::allocator<tagBaseCharHP> >

; 758  : 			_CATCH_END
; 759  : 
; 760  : 			size_type _Size = size();

  0005a	8b 5e 04	 mov	 ebx, DWORD PTR [esi+4]
  0005d	8b 0e		 mov	 ecx, DWORD PTR [esi]
  0005f	83 c4 18	 add	 esp, 24			; 00000018H
  00062	8b c3		 mov	 eax, ebx
  00064	2b c1		 sub	 eax, ecx
  00066	6a 18		 push	 24			; 00000018H
  00068	99		 cdq
  00069	5f		 pop	 edi
  0006a	f7 ff		 idiv	 edi
  0006c	83 4d fc ff	 or	 DWORD PTR __$EHRec$[ebp+12], -1
  00070	8b f8		 mov	 edi, eax
  00072	85 c9		 test	 ecx, ecx
  00074	74 21		 je	 SHORT $LN54@reserve

; 761  : 			if (this->_Myfirst != 0)
; 762  : 				{	// destroy and deallocate old array
; 763  : 				_Destroy(this->_Myfirst, this->_Mylast);

  00076	89 4d ec	 mov	 DWORD PTR $T560415[ebp], ecx
  00079	3b cb		 cmp	 ecx, ebx
  0007b	74 12		 je	 SHORT $LN37@reserve
$LN39@reserve:
  0007d	8b 4d ec	 mov	 ecx, DWORD PTR $T560415[ebp]
  00080	ff 15 00 00 00
	00		 call	 DWORD PTR __imp_??1ioHashString@@QAE@XZ
  00086	83 45 ec 18	 add	 DWORD PTR $T560415[ebp], 24 ; 00000018H
  0008a	39 5d ec	 cmp	 DWORD PTR $T560415[ebp], ebx
  0008d	75 ee		 jne	 SHORT $LN39@reserve
$LN37@reserve:

; 764  : 				this->_Alval.deallocate(this->_Myfirst,
; 765  : 					this->_Myend - this->_Myfirst);

  0008f	ff 36		 push	 DWORD PTR [esi]
  00091	e8 00 00 00 00	 call	 ??3@YAXPAX@Z		; operator delete
  00096	59		 pop	 ecx
$LN54@reserve:

; 766  : 				}
; 767  : 
; 768  : 			this->_Orphan_all();

  00097	8b ce		 mov	 ecx, esi
  00099	ff 15 00 00 00
	00		 call	 DWORD PTR __imp_?_Orphan_all@_Container_base0@std@@QAEXXZ

; 769  : 			this->_Myend = _Ptr + _Count;
; 770  : 			this->_Mylast = _Ptr + _Size;

  0009f	6b ff 18	 imul	 edi, 24			; 00000018H
  000a2	8b 45 08	 mov	 eax, DWORD PTR __Count$[ebp]
  000a5	8b 4d e8	 mov	 ecx, DWORD PTR __Ptr$549485[ebp]
  000a8	6b c0 18	 imul	 eax, 24			; 00000018H
  000ab	03 c1		 add	 eax, ecx
  000ad	03 f9		 add	 edi, ecx
  000af	89 46 08	 mov	 DWORD PTR [esi+8], eax
  000b2	89 7e 04	 mov	 DWORD PTR [esi+4], edi

; 771  : 			this->_Myfirst = _Ptr;

  000b5	89 0e		 mov	 DWORD PTR [esi], ecx
$LN3@reserve:

; 772  : 			}
; 773  : 		}

  000b7	e8 00 00 00 00	 call	 __EH_epilog3
  000bc	c2 04 00	 ret	 4
__catch$?reserve@?$vector@UtagBaseCharHP@@V?$allocator@UtagBaseCharHP@@@std@@@std@@QAEXI@Z$0:

; 755  : 			_CATCH_ALL
; 756  : 			this->_Alval.deallocate(_Ptr, _Count);

  000bf	ff 75 e8	 push	 DWORD PTR __Ptr$549485[ebp]
  000c2	e8 00 00 00 00	 call	 ??3@YAXPAX@Z		; operator delete
  000c7	59		 pop	 ecx

; 757  : 			_RERAISE;

  000c8	6a 00		 push	 0
  000ca	6a 00		 push	 0
  000cc	e8 00 00 00 00	 call	 __CxxThrowException@8
$LN63@reserve:
$LN61@reserve:
  000d1	cc		 int	 3
_TEXT	ENDS
;	COMDAT text$x
text$x	SEGMENT
__ehhandler$?reserve@?$vector@UtagBaseCharHP@@V?$allocator@UtagBaseCharHP@@@std@@@std@@QAEXI@Z:
  00000	8b 54 24 08	 mov	 edx, DWORD PTR [esp+8]
  00004	8d 42 0c	 lea	 eax, DWORD PTR [edx+12]
  00007	8b 4a e4	 mov	 ecx, DWORD PTR [edx-28]
  0000a	33 c8		 xor	 ecx, eax
  0000c	e8 00 00 00 00	 call	 @__security_check_cookie@4
  00011	b8 00 00 00 00	 mov	 eax, OFFSET __ehfuncinfo$?reserve@?$vector@UtagBaseCharHP@@V?$allocator@UtagBaseCharHP@@@std@@@std@@QAEXI@Z
  00016	e9 00 00 00 00	 jmp	 ___CxxFrameHandler3
text$x	ENDS
?reserve@?$vector@UtagBaseCharHP@@V?$allocator@UtagBaseCharHP@@@std@@@std@@QAEXI@Z ENDP ; std::vector<tagBaseCharHP,std::allocator<tagBaseCharHP> >::reserve
PUBLIC	??$_Sort@PAUtagBaseCharHP@@HVBaseCharHPSort@@@std@@YAXPAUtagBaseCharHP@@0HVBaseCharHPSort@@@Z ; std::_Sort<tagBaseCharHP *,int,BaseCharHPSort>
; Function compile flags: /Ogsp
; File c:\program files (x86)\microsoft visual studio 10.0\vc\include\algorithm
;	COMDAT ??$_Sort@PAUtagBaseCharHP@@HVBaseCharHPSort@@@std@@YAXPAUtagBaseCharHP@@0HVBaseCharHPSort@@@Z
_TEXT	SEGMENT
__Mid$552403 = -8					; size = 8
__First$ = 8						; size = 4
__Last$ = 12						; size = 4
__Ideal$ = 16						; size = 4
__Pred$ = 20						; size = 1
??$_Sort@PAUtagBaseCharHP@@HVBaseCharHPSort@@@std@@YAXPAUtagBaseCharHP@@0HVBaseCharHPSort@@@Z PROC ; std::_Sort<tagBaseCharHP *,int,BaseCharHPSort>, COMDAT

; 3771 : 	{	// order [_First, _Last), using _Pred

  00000	55		 push	 ebp
  00001	8b ec		 mov	 ebp, esp
  00003	51		 push	 ecx
  00004	51		 push	 ecx
  00005	53		 push	 ebx

; 3772 : 	_Diff _Count;
; 3773 : 	for (; _ISORT_MAX < (_Count = _Last - _First) && 0 < _Ideal; )

  00006	8b 5d 08	 mov	 ebx, DWORD PTR __First$[ebp]
  00009	57		 push	 edi
  0000a	8b 7d 0c	 mov	 edi, DWORD PTR __Last$[ebp]
  0000d	8b c7		 mov	 eax, edi
  0000f	2b c3		 sub	 eax, ebx
  00011	6a 18		 push	 24			; 00000018H
  00013	99		 cdq
  00014	59		 pop	 ecx
  00015	f7 f9		 idiv	 ecx
  00017	83 f8 20	 cmp	 eax, 32			; 00000020H
  0001a	0f 8e 9c 00 00
	00		 jle	 $LN22@Sort
  00020	56		 push	 esi
  00021	8b 75 10	 mov	 esi, DWORD PTR __Ideal$[ebp]
$LL7@Sort:
  00024	85 f6		 test	 esi, esi
  00026	7e 75		 jle	 SHORT $LN6@Sort

; 3774 : 		{	// divide and conquer by quicksort
; 3775 : 		_STD pair<_RanIt, _RanIt> _Mid =
; 3776 : 			_Unguarded_partition(_First, _Last, _Pred);

  00028	ff 75 14	 push	 DWORD PTR __Pred$[ebp]
  0002b	8d 45 f8	 lea	 eax, DWORD PTR __Mid$552403[ebp]
  0002e	57		 push	 edi
  0002f	53		 push	 ebx
  00030	50		 push	 eax
  00031	e8 00 00 00 00	 call	 ??$_Unguarded_partition@PAUtagBaseCharHP@@VBaseCharHPSort@@@std@@YA?AU?$pair@PAUtagBaseCharHP@@PAU1@@0@PAUtagBaseCharHP@@0VBaseCharHPSort@@@Z ; std::_Unguarded_partition<tagBaseCharHP *,BaseCharHPSort>

; 3777 : 		_Ideal /= 2, _Ideal += _Ideal / 2;	// allow 1.5 log2(N) divisions

  00036	8b c6		 mov	 eax, esi
  00038	99		 cdq
  00039	2b c2		 sub	 eax, edx
  0003b	d1 f8		 sar	 eax, 1
  0003d	8b f0		 mov	 esi, eax
  0003f	99		 cdq
  00040	2b c2		 sub	 eax, edx
  00042	d1 f8		 sar	 eax, 1
  00044	03 f0		 add	 esi, eax
  00046	83 c4 10	 add	 esp, 16			; 00000010H

; 3778 : 
; 3779 : 		if (_Mid.first - _First < _Last - _Mid.second)

  00049	8b c7		 mov	 eax, edi
  0004b	2b 45 fc	 sub	 eax, DWORD PTR __Mid$552403[ebp+4]
  0004e	6a 18		 push	 24			; 00000018H
  00050	99		 cdq
  00051	59		 pop	 ecx
  00052	f7 f9		 idiv	 ecx
  00054	6a 18		 push	 24			; 00000018H
  00056	8b c8		 mov	 ecx, eax
  00058	8b 45 f8	 mov	 eax, DWORD PTR __Mid$552403[ebp]
  0005b	2b c3		 sub	 eax, ebx
  0005d	5b		 pop	 ebx
  0005e	99		 cdq
  0005f	f7 fb		 idiv	 ebx

; 3780 : 			{	// loop on second half
; 3781 : 			_Sort(_First, _Mid.first, _Ideal, _Pred);

  00061	ff 75 14	 push	 DWORD PTR __Pred$[ebp]
  00064	56		 push	 esi
  00065	3b c1		 cmp	 eax, ecx
  00067	7d 13		 jge	 SHORT $LN5@Sort
  00069	ff 75 f8	 push	 DWORD PTR __Mid$552403[ebp]
  0006c	ff 75 08	 push	 DWORD PTR __First$[ebp]
  0006f	e8 00 00 00 00	 call	 ??$_Sort@PAUtagBaseCharHP@@HVBaseCharHPSort@@@std@@YAXPAUtagBaseCharHP@@0HVBaseCharHPSort@@@Z ; std::_Sort<tagBaseCharHP *,int,BaseCharHPSort>

; 3782 : 			_First = _Mid.second;

  00074	8b 5d fc	 mov	 ebx, DWORD PTR __Mid$552403[ebp+4]
  00077	89 5d 08	 mov	 DWORD PTR __First$[ebp], ebx

; 3783 : 			}
; 3784 : 		else

  0007a	eb 0f		 jmp	 SHORT $LN23@Sort
$LN5@Sort:

; 3785 : 			{	// loop on first half
; 3786 : 			_Sort(_Mid.second, _Last, _Ideal, _Pred);

  0007c	57		 push	 edi
  0007d	ff 75 fc	 push	 DWORD PTR __Mid$552403[ebp+4]
  00080	e8 00 00 00 00	 call	 ??$_Sort@PAUtagBaseCharHP@@HVBaseCharHPSort@@@std@@YAXPAUtagBaseCharHP@@0HVBaseCharHPSort@@@Z ; std::_Sort<tagBaseCharHP *,int,BaseCharHPSort>

; 3787 : 			_Last = _Mid.first;

  00085	8b 7d f8	 mov	 edi, DWORD PTR __Mid$552403[ebp]
  00088	8b 5d 08	 mov	 ebx, DWORD PTR __First$[ebp]
$LN23@Sort:

; 3772 : 	_Diff _Count;
; 3773 : 	for (; _ISORT_MAX < (_Count = _Last - _First) && 0 < _Ideal; )

  0008b	83 c4 10	 add	 esp, 16			; 00000010H
  0008e	8b c7		 mov	 eax, edi
  00090	2b c3		 sub	 eax, ebx
  00092	6a 18		 push	 24			; 00000018H
  00094	99		 cdq
  00095	59		 pop	 ecx
  00096	f7 f9		 idiv	 ecx
  00098	83 f8 20	 cmp	 eax, 32			; 00000020H
  0009b	7f 87		 jg	 SHORT $LL7@Sort
$LN6@Sort:
  0009d	5e		 pop	 esi

; 3788 : 			}
; 3789 : 		}
; 3790 : 
; 3791 : 	if (_ISORT_MAX < _Count)

  0009e	83 f8 20	 cmp	 eax, 32			; 00000020H
  000a1	7e 19		 jle	 SHORT $LN22@Sort

; 3792 : 		{	// heap sort if too many divisions
; 3793 : 		_STD make_heap(_First, _Last, _Pred);

  000a3	ff 75 14	 push	 DWORD PTR __Pred$[ebp]
  000a6	57		 push	 edi
  000a7	53		 push	 ebx
  000a8	e8 00 00 00 00	 call	 ??$make_heap@PAUtagBaseCharHP@@VBaseCharHPSort@@@std@@YAXPAUtagBaseCharHP@@0VBaseCharHPSort@@@Z ; std::make_heap<tagBaseCharHP *,BaseCharHPSort>

; 3794 : 		_STD sort_heap(_First, _Last, _Pred);

  000ad	ff 75 14	 push	 DWORD PTR __Pred$[ebp]
  000b0	57		 push	 edi
  000b1	53		 push	 ebx
  000b2	e8 00 00 00 00	 call	 ??$_Sort_heap@PAUtagBaseCharHP@@VBaseCharHPSort@@@std@@YAXPAUtagBaseCharHP@@0VBaseCharHPSort@@@Z ; std::_Sort_heap<tagBaseCharHP *,BaseCharHPSort>
  000b7	83 c4 18	 add	 esp, 24			; 00000018H
  000ba	eb 14		 jmp	 SHORT $LN16@Sort
$LN22@Sort:

; 3795 : 		}
; 3796 : 	else if (1 < _Count)

  000bc	83 f8 01	 cmp	 eax, 1
  000bf	7e 0f		 jle	 SHORT $LN16@Sort

; 3797 : 		_Insertion_sort(_First, _Last, _Pred);	// small

  000c1	6a 00		 push	 0
  000c3	ff 75 14	 push	 DWORD PTR __Pred$[ebp]
  000c6	57		 push	 edi
  000c7	53		 push	 ebx
  000c8	e8 00 00 00 00	 call	 ??$_Insertion_sort1@PAUtagBaseCharHP@@VBaseCharHPSort@@U1@@std@@YAXPAUtagBaseCharHP@@0VBaseCharHPSort@@0@Z ; std::_Insertion_sort1<tagBaseCharHP *,BaseCharHPSort,tagBaseCharHP>
  000cd	83 c4 10	 add	 esp, 16			; 00000010H
$LN16@Sort:
  000d0	5f		 pop	 edi
  000d1	5b		 pop	 ebx

; 3798 : 	}

  000d2	c9		 leave
  000d3	c3		 ret	 0
??$_Sort@PAUtagBaseCharHP@@HVBaseCharHPSort@@@std@@YAXPAUtagBaseCharHP@@0HVBaseCharHPSort@@@Z ENDP ; std::_Sort<tagBaseCharHP *,int,BaseCharHPSort>
_TEXT	ENDS
PUBLIC	??1?$vector@UForceInfo@@V?$allocator@UForceInfo@@@std@@@std@@QAE@XZ ; std::vector<ForceInfo,std::allocator<ForceInfo> >::~vector<ForceInfo,std::allocator<ForceInfo> >
; Function compile flags: /Ogsp
; File c:\program files (x86)\microsoft visual studio 10.0\vc\include\vector
;	COMDAT ??1?$vector@UForceInfo@@V?$allocator@UForceInfo@@@std@@@std@@QAE@XZ
_TEXT	SEGMENT
??1?$vector@UForceInfo@@V?$allocator@UForceInfo@@@std@@@std@@QAE@XZ PROC ; std::vector<ForceInfo,std::allocator<ForceInfo> >::~vector<ForceInfo,std::allocator<ForceInfo> >, COMDAT
; _this$ = ecx

; 705  : 		_Tidy();

  00000	e9 00 00 00 00	 jmp	 ?_Tidy@?$vector@UForceInfo@@V?$allocator@UForceInfo@@@std@@@std@@IAEXXZ ; std::vector<ForceInfo,std::allocator<ForceInfo> >::_Tidy
??1?$vector@UForceInfo@@V?$allocator@UForceInfo@@@std@@@std@@QAE@XZ ENDP ; std::vector<ForceInfo,std::allocator<ForceInfo> >::~vector<ForceInfo,std::allocator<ForceInfo> >
_TEXT	ENDS
PUBLIC	?_Tidy@?$vector@UWeaponInfo@@V?$allocator@UWeaponInfo@@@std@@@std@@IAEXXZ ; std::vector<WeaponInfo,std::allocator<WeaponInfo> >::_Tidy
; Function compile flags: /Ogsp
;	COMDAT ?_Tidy@?$vector@UWeaponInfo@@V?$allocator@UWeaponInfo@@@std@@@std@@IAEXXZ
_TEXT	SEGMENT
?_Tidy@?$vector@UWeaponInfo@@V?$allocator@UWeaponInfo@@@std@@@std@@IAEXXZ PROC ; std::vector<WeaponInfo,std::allocator<WeaponInfo> >::_Tidy, COMDAT
; _this$ = ecx

; 1301 : 		{	// free all storage

  00000	56		 push	 esi
  00001	8b f1		 mov	 esi, ecx

; 1302 : 		if (this->_Myfirst != 0)

  00003	83 3e 00	 cmp	 DWORD PTR [esi], 0
  00006	74 1e		 je	 SHORT $LN6@Tidy@3

; 1303 : 			{	// something to free, destroy and deallocate it
; 1304 : 			this->_Orphan_all();

  00008	ff 15 00 00 00
	00		 call	 DWORD PTR __imp_?_Orphan_all@_Container_base0@std@@QAEXXZ

; 1305 : 			_Destroy(this->_Myfirst, this->_Mylast);

  0000e	8d 46 0c	 lea	 eax, DWORD PTR [esi+12]
  00011	50		 push	 eax
  00012	ff 76 04	 push	 DWORD PTR [esi+4]
  00015	ff 36		 push	 DWORD PTR [esi]
  00017	e8 00 00 00 00	 call	 ??$_Destroy_range@V?$allocator@UWeaponInfo@@@std@@@std@@YAXPAUWeaponInfo@@0AAV?$allocator@UWeaponInfo@@@0@@Z ; std::_Destroy_range<std::allocator<WeaponInfo> >

; 1306 : 			this->_Alval.deallocate(this->_Myfirst,
; 1307 : 				this->_Myend - this->_Myfirst);

  0001c	ff 36		 push	 DWORD PTR [esi]
  0001e	e8 00 00 00 00	 call	 ??3@YAXPAX@Z		; operator delete
  00023	83 c4 10	 add	 esp, 16			; 00000010H
$LN6@Tidy@3:

; 1308 : 			}
; 1309 : 		this->_Myfirst = 0;

  00026	83 26 00	 and	 DWORD PTR [esi], 0

; 1310 : 		this->_Mylast = 0;

  00029	83 66 04 00	 and	 DWORD PTR [esi+4], 0

; 1311 : 		this->_Myend = 0;

  0002d	83 66 08 00	 and	 DWORD PTR [esi+8], 0
  00031	5e		 pop	 esi

; 1312 : 		}

  00032	c3		 ret	 0
?_Tidy@?$vector@UWeaponInfo@@V?$allocator@UWeaponInfo@@@std@@@std@@IAEXXZ ENDP ; std::vector<WeaponInfo,std::allocator<WeaponInfo> >::_Tidy
_TEXT	ENDS
PUBLIC	??4?$vector@UForceInfo@@V?$allocator@UForceInfo@@@std@@@std@@QAEAAV01@ABV01@@Z ; std::vector<ForceInfo,std::allocator<ForceInfo> >::operator=
; Function compile flags: /Ogsp
;	COMDAT ??4?$vector@UForceInfo@@V?$allocator@UForceInfo@@@std@@@std@@QAEAAV01@ABV01@@Z
_TEXT	SEGMENT
tv551 = 8						; size = 4
__Cat$560855 = 8					; size = 1
__Cat$560752 = 8					; size = 1
__Cat$560730 = 8					; size = 1
__Cat$560632 = 8					; size = 1
$T560597 = 8						; size = 4
__Right$ = 8						; size = 4
??4?$vector@UForceInfo@@V?$allocator@UForceInfo@@@std@@@std@@QAEAAV01@ABV01@@Z PROC ; std::vector<ForceInfo,std::allocator<ForceInfo> >::operator=, COMDAT
; _this$ = ecx

; 709  : 		{	// assign _Right

  00000	55		 push	 ebp
  00001	8b ec		 mov	 ebp, esp
  00003	56		 push	 esi
  00004	57		 push	 edi

; 710  : 		if (this != &_Right)

  00005	8b 7d 08	 mov	 edi, DWORD PTR __Right$[ebp]
  00008	8b f1		 mov	 esi, ecx
  0000a	3b f7		 cmp	 esi, edi
  0000c	0f 84 e2 00 00
	00		 je	 $LN1@operator@2

; 711  : 			{	// worth doing
; 712  : 			this->_Orphan_all();

  00012	53		 push	 ebx
  00013	ff 15 00 00 00
	00		 call	 DWORD PTR __imp_?_Orphan_all@_Container_base0@std@@QAEXXZ

; 713  : 
; 714  : 			if (_Right.size() == 0)

  00019	8b 5f 04	 mov	 ebx, DWORD PTR [edi+4]
  0001c	8b c3		 mov	 eax, ebx
  0001e	2b 07		 sub	 eax, DWORD PTR [edi]
  00020	6a 0c		 push	 12			; 0000000cH
  00022	99		 cdq
  00023	59		 pop	 ecx
  00024	f7 f9		 idiv	 ecx
  00026	89 45 08	 mov	 DWORD PTR tv551[ebp], eax
  00029	85 c0		 test	 eax, eax

; 715  : 				clear();	// new sequence empty, erase existing sequence

  0002b	8b 46 04	 mov	 eax, DWORD PTR [esi+4]
  0002e	75 14		 jne	 SHORT $LN8@operator@2
  00030	8b 0e		 mov	 ecx, DWORD PTR [esi]
  00032	50		 push	 eax
  00033	51		 push	 ecx
  00034	8d 45 08	 lea	 eax, DWORD PTR $T560597[ebp]
  00037	50		 push	 eax
  00038	8b ce		 mov	 ecx, esi
  0003a	e8 00 00 00 00	 call	 ?erase@?$vector@UForceInfo@@V?$allocator@UForceInfo@@@std@@@std@@QAE?AV?$_Vector_iterator@V?$_Vector_val@UForceInfo@@V?$allocator@UForceInfo@@@std@@@std@@@2@V?$_Vector_const_iterator@V?$_Vector_val@UForceInfo@@V?$allocator@UForceInfo@@@std@@@std@@@2@0@Z ; std::vector<ForceInfo,std::allocator<ForceInfo> >::erase

; 716  : 			else if (_Right.size() <= size())

  0003f	e9 af 00 00 00	 jmp	 $LN106@operator@2
$LN8@operator@2:
  00044	2b 06		 sub	 eax, DWORD PTR [esi]
  00046	6a 0c		 push	 12			; 0000000cH
  00048	99		 cdq
  00049	59		 pop	 ecx
  0004a	f7 f9		 idiv	 ecx
  0004c	8b c8		 mov	 ecx, eax
  0004e	39 4d 08	 cmp	 DWORD PTR tv551[ebp], ecx
  00051	77 22		 ja	 SHORT $LN6@operator@2

; 717  : 				{	// enough elements, copy new and destroy old
; 718  : 				pointer _Ptr = _STD _Copy_impl(_Right._Myfirst, _Right._Mylast,
; 719  : 					this->_Myfirst);	// copy new

  00053	ff 75 08	 push	 DWORD PTR __Cat$560632[ebp]
  00056	ff 36		 push	 DWORD PTR [esi]
  00058	53		 push	 ebx
  00059	ff 37		 push	 DWORD PTR [edi]
  0005b	e8 00 00 00 00	 call	 ??$_Copy_impl@PAUForceInfo@@PAU1@@std@@YAPAUForceInfo@@PAU1@00U_Nonscalar_ptr_iterator_tag@0@@Z ; std::_Copy_impl<ForceInfo *,ForceInfo *>

; 720  : 				_Destroy(_Ptr, this->_Mylast);	// destroy old
; 721  : 				this->_Mylast = this->_Myfirst + _Right.size();

  00060	8b 47 04	 mov	 eax, DWORD PTR [edi+4]
  00063	2b 07		 sub	 eax, DWORD PTR [edi]
  00065	83 c4 10	 add	 esp, 16			; 00000010H
  00068	99		 cdq
  00069	6a 0c		 push	 12			; 0000000cH
  0006b	59		 pop	 ecx
  0006c	f7 f9		 idiv	 ecx
  0006e	6b c0 0c	 imul	 eax, 12			; 0000000cH
  00071	03 06		 add	 eax, DWORD PTR [esi]

; 722  : 				}
; 723  : 			else if (_Right.size() <= capacity())

  00073	eb 7b		 jmp	 SHORT $LN107@operator@2
$LN6@operator@2:
  00075	8b 46 08	 mov	 eax, DWORD PTR [esi+8]
  00078	2b 06		 sub	 eax, DWORD PTR [esi]
  0007a	6a 0c		 push	 12			; 0000000cH
  0007c	99		 cdq
  0007d	5b		 pop	 ebx
  0007e	f7 fb		 idiv	 ebx
  00080	39 45 08	 cmp	 DWORD PTR tv551[ebp], eax
  00083	77 2e		 ja	 SHORT $LN4@operator@2

; 724  : 				{	// enough room, copy and construct new
; 725  : 				pointer _Ptr = _Right._Myfirst + size();
; 726  : 				_STD _Copy_impl(_Right._Myfirst, _Ptr, this->_Myfirst);

  00085	ff 75 08	 push	 DWORD PTR __Cat$560730[ebp]
  00088	6b c9 0c	 imul	 ecx, 12			; 0000000cH
  0008b	8b 07		 mov	 eax, DWORD PTR [edi]
  0008d	ff 36		 push	 DWORD PTR [esi]
  0008f	8d 1c 08	 lea	 ebx, DWORD PTR [eax+ecx]
  00092	53		 push	 ebx
  00093	50		 push	 eax
  00094	e8 00 00 00 00	 call	 ??$_Copy_impl@PAUForceInfo@@PAU1@@std@@YAPAUForceInfo@@PAU1@00U_Nonscalar_ptr_iterator_tag@0@@Z ; std::_Copy_impl<ForceInfo *,ForceInfo *>

; 727  : 				this->_Mylast = _Ucopy(_Ptr, _Right._Mylast, this->_Mylast);

  00099	ff 75 08	 push	 DWORD PTR __Cat$560752[ebp]
  0009c	8b 46 04	 mov	 eax, DWORD PTR [esi+4]
  0009f	8b 7f 04	 mov	 edi, DWORD PTR [edi+4]
  000a2	8d 4e 0c	 lea	 ecx, DWORD PTR [esi+12]
  000a5	51		 push	 ecx
  000a6	50		 push	 eax
  000a7	57		 push	 edi
  000a8	53		 push	 ebx
  000a9	e8 00 00 00 00	 call	 ??$_Uninit_copy@PAUForceInfo@@PAU1@V?$allocator@UForceInfo@@@std@@@std@@YAPAUForceInfo@@PAU1@00AAV?$allocator@UForceInfo@@@0@U_Nonscalar_ptr_iterator_tag@0@@Z ; std::_Uninit_copy<ForceInfo *,ForceInfo *,std::allocator<ForceInfo> >
  000ae	83 c4 24	 add	 esp, 36			; 00000024H

; 728  : 				}
; 729  : 			else

  000b1	eb 3d		 jmp	 SHORT $LN107@operator@2
$LN4@operator@2:

; 730  : 				{	// not enough room, allocate new array and construct new
; 731  : 				if (this->_Myfirst != 0)

  000b3	8b 06		 mov	 eax, DWORD PTR [esi]
  000b5	85 c0		 test	 eax, eax
  000b7	74 07		 je	 SHORT $LN92@operator@2

; 732  : 					{	// discard old array
; 733  : 					_Destroy(this->_Myfirst, this->_Mylast);
; 734  : 					this->_Alval.deallocate(this->_Myfirst,
; 735  : 						this->_Myend - this->_Myfirst);

  000b9	50		 push	 eax
  000ba	e8 00 00 00 00	 call	 ??3@YAXPAX@Z		; operator delete
  000bf	59		 pop	 ecx
$LN92@operator@2:

; 736  : 					}
; 737  : 				if (_Buy(_Right.size()))

  000c0	8b 47 04	 mov	 eax, DWORD PTR [edi+4]
  000c3	2b 07		 sub	 eax, DWORD PTR [edi]
  000c5	6a 0c		 push	 12			; 0000000cH
  000c7	59		 pop	 ecx
  000c8	99		 cdq
  000c9	f7 f9		 idiv	 ecx
  000cb	8b ce		 mov	 ecx, esi
  000cd	50		 push	 eax
  000ce	e8 00 00 00 00	 call	 ?_Buy@?$vector@UForceInfo@@V?$allocator@UForceInfo@@@std@@@std@@IAE_NI@Z ; std::vector<ForceInfo,std::allocator<ForceInfo> >::_Buy
  000d3	84 c0		 test	 al, al
  000d5	74 1c		 je	 SHORT $LN106@operator@2

; 738  : 					this->_Mylast = _Ucopy(_Right._Myfirst, _Right._Mylast,
; 739  : 						this->_Myfirst);

  000d7	ff 75 08	 push	 DWORD PTR __Cat$560855[ebp]
  000da	8b 06		 mov	 eax, DWORD PTR [esi]
  000dc	8b 4f 04	 mov	 ecx, DWORD PTR [edi+4]
  000df	8b 3f		 mov	 edi, DWORD PTR [edi]
  000e1	8d 56 0c	 lea	 edx, DWORD PTR [esi+12]
  000e4	52		 push	 edx
  000e5	50		 push	 eax
  000e6	51		 push	 ecx
  000e7	57		 push	 edi
  000e8	e8 00 00 00 00	 call	 ??$_Uninit_copy@PAUForceInfo@@PAU1@V?$allocator@UForceInfo@@@std@@@std@@YAPAUForceInfo@@PAU1@00AAV?$allocator@UForceInfo@@@0@U_Nonscalar_ptr_iterator_tag@0@@Z ; std::_Uninit_copy<ForceInfo *,ForceInfo *,std::allocator<ForceInfo> >
  000ed	83 c4 14	 add	 esp, 20			; 00000014H
$LN107@operator@2:
  000f0	89 46 04	 mov	 DWORD PTR [esi+4], eax
$LN106@operator@2:
  000f3	5b		 pop	 ebx
$LN1@operator@2:
  000f4	5f		 pop	 edi

; 740  : 				}
; 741  : 			}
; 742  : 		return (*this);

  000f5	8b c6		 mov	 eax, esi
  000f7	5e		 pop	 esi

; 743  : 		}

  000f8	5d		 pop	 ebp
  000f9	c2 04 00	 ret	 4
??4?$vector@UForceInfo@@V?$allocator@UForceInfo@@@std@@@std@@QAEAAV01@ABV01@@Z ENDP ; std::vector<ForceInfo,std::allocator<ForceInfo> >::operator=
_TEXT	ENDS
PUBLIC	?clear@?$vector@UWeaponInfo@@V?$allocator@UWeaponInfo@@@std@@@std@@QAEXXZ ; std::vector<WeaponInfo,std::allocator<WeaponInfo> >::clear
; Function compile flags: /Ogsp
;	COMDAT ?clear@?$vector@UWeaponInfo@@V?$allocator@UWeaponInfo@@@std@@@std@@QAEXXZ
_TEXT	SEGMENT
$T560872 = -4						; size = 4
?clear@?$vector@UWeaponInfo@@V?$allocator@UWeaponInfo@@@std@@@std@@QAEXXZ PROC ; std::vector<WeaponInfo,std::allocator<WeaponInfo> >::clear, COMDAT
; _this$ = ecx

; 1217 : 		{	// erase all

  00000	55		 push	 ebp
  00001	8b ec		 mov	 ebp, esp
  00003	51		 push	 ecx

; 1218 : 		erase(begin(), end());

  00004	8b 41 04	 mov	 eax, DWORD PTR [ecx+4]
  00007	8b 11		 mov	 edx, DWORD PTR [ecx]
  00009	50		 push	 eax
  0000a	52		 push	 edx
  0000b	8d 45 fc	 lea	 eax, DWORD PTR $T560872[ebp]
  0000e	50		 push	 eax
  0000f	e8 00 00 00 00	 call	 ?erase@?$vector@UWeaponInfo@@V?$allocator@UWeaponInfo@@@std@@@std@@QAE?AV?$_Vector_iterator@V?$_Vector_val@UWeaponInfo@@V?$allocator@UWeaponInfo@@@std@@@std@@@2@V?$_Vector_const_iterator@V?$_Vector_val@UWeaponInfo@@V?$allocator@UWeaponInfo@@@std@@@std@@@2@0@Z ; std::vector<WeaponInfo,std::allocator<WeaponInfo> >::erase

; 1219 : 		}

  00014	c9		 leave
  00015	c3		 ret	 0
?clear@?$vector@UWeaponInfo@@V?$allocator@UWeaponInfo@@@std@@@std@@QAEXXZ ENDP ; std::vector<WeaponInfo,std::allocator<WeaponInfo> >::clear
_TEXT	ENDS
PUBLIC	??0?$vector@UWeaponInfo@@V?$allocator@UWeaponInfo@@@std@@@std@@QAE@ABV01@@Z ; std::vector<WeaponInfo,std::allocator<WeaponInfo> >::vector<WeaponInfo,std::allocator<WeaponInfo> >
;	COMDAT xdata$x
; File c:\program files (x86)\microsoft visual studio 10.0\vc\include\xutility
xdata$x	SEGMENT
__catchsym$??0?$vector@UWeaponInfo@@V?$allocator@UWeaponInfo@@@std@@@std@@QAE@ABV01@@Z$2 DD 040H
	DD	00H
	DD	00H
	DD	FLAT:__catch$??0?$vector@UWeaponInfo@@V?$allocator@UWeaponInfo@@@std@@@std@@QAE@ABV01@@Z$0
__unwindtable$??0?$vector@UWeaponInfo@@V?$allocator@UWeaponInfo@@@std@@@std@@QAE@ABV01@@Z DD 0ffffffffH
	DD	00H
	DD	0ffffffffH
	DD	00H
__tryblocktable$??0?$vector@UWeaponInfo@@V?$allocator@UWeaponInfo@@@std@@@std@@QAE@ABV01@@Z DD 00H
	DD	00H
	DD	01H
	DD	01H
	DD	FLAT:__catchsym$??0?$vector@UWeaponInfo@@V?$allocator@UWeaponInfo@@@std@@@std@@QAE@ABV01@@Z$2
__ehfuncinfo$??0?$vector@UWeaponInfo@@V?$allocator@UWeaponInfo@@@std@@@std@@QAE@ABV01@@Z DD 019930522H
	DD	02H
	DD	FLAT:__unwindtable$??0?$vector@UWeaponInfo@@V?$allocator@UWeaponInfo@@@std@@@std@@QAE@ABV01@@Z
	DD	01H
	DD	FLAT:__tryblocktable$??0?$vector@UWeaponInfo@@V?$allocator@UWeaponInfo@@@std@@@std@@QAE@ABV01@@Z
	DD	2 DUP(00H)
	DD	00H
	DD	01H
; Function compile flags: /Ogsp
; File c:\program files (x86)\microsoft visual studio 10.0\vc\include\vector
xdata$x	ENDS
;	COMDAT ??0?$vector@UWeaponInfo@@V?$allocator@UWeaponInfo@@@std@@@std@@QAE@ABV01@@Z
_TEXT	SEGMENT
_this$ = -20						; size = 4
__$EHRec$ = -16						; size = 16
__Cat$561003 = 8					; size = 1
__Right$ = 8						; size = 4
??0?$vector@UWeaponInfo@@V?$allocator@UWeaponInfo@@@std@@@std@@QAE@ABV01@@Z PROC ; std::vector<WeaponInfo,std::allocator<WeaponInfo> >::vector<WeaponInfo,std::allocator<WeaponInfo> >, COMDAT
; _this$ = ecx

; 535  : 		{	// construct by copying _Right

  00000	6a 08		 push	 8
  00002	b8 00 00 00 00	 mov	 eax, __ehhandler$??0?$vector@UWeaponInfo@@V?$allocator@UWeaponInfo@@@std@@@std@@QAE@ABV01@@Z
  00007	e8 00 00 00 00	 call	 __EH_prolog3_catch
  0000c	8b f1		 mov	 esi, ecx
  0000e	89 75 ec	 mov	 DWORD PTR _this$[ebp], esi

; 536  : 		if (_Buy(_Right.size()))

  00011	8b 7d 08	 mov	 edi, DWORD PTR __Right$[ebp]
  00014	33 db		 xor	 ebx, ebx
  00016	89 1e		 mov	 DWORD PTR [esi], ebx
  00018	89 5e 04	 mov	 DWORD PTR [esi+4], ebx
  0001b	89 5e 08	 mov	 DWORD PTR [esi+8], ebx
  0001e	8b 47 04	 mov	 eax, DWORD PTR [edi+4]
  00021	2b 07		 sub	 eax, DWORD PTR [edi]
  00023	6a 28		 push	 40			; 00000028H
  00025	59		 pop	 ecx
  00026	99		 cdq
  00027	f7 f9		 idiv	 ecx
  00029	8b ce		 mov	 ecx, esi
  0002b	50		 push	 eax
  0002c	e8 00 00 00 00	 call	 ?_Buy@?$vector@UWeaponInfo@@V?$allocator@UWeaponInfo@@@std@@@std@@IAE_NI@Z ; std::vector<WeaponInfo,std::allocator<WeaponInfo> >::_Buy
  00031	84 c0		 test	 al, al
  00033	74 1f		 je	 SHORT $LN7@vector@2

; 537  : 			_TRY_BEGIN
; 538  : 			this->_Mylast = _Ucopy(_Right.begin(), _Right.end(),
; 539  : 				this->_Myfirst);

  00035	ff 75 08	 push	 DWORD PTR __Cat$561003[ebp]
  00038	8b 0e		 mov	 ecx, DWORD PTR [esi]
  0003a	8b 47 04	 mov	 eax, DWORD PTR [edi+4]
  0003d	8b 3f		 mov	 edi, DWORD PTR [edi]
  0003f	8d 56 0c	 lea	 edx, DWORD PTR [esi+12]
  00042	52		 push	 edx
  00043	51		 push	 ecx
  00044	50		 push	 eax
  00045	57		 push	 edi
  00046	89 5d fc	 mov	 DWORD PTR __$EHRec$[ebp+12], ebx
  00049	e8 00 00 00 00	 call	 ??$_Uninit_copy@V?$_Vector_const_iterator@V?$_Vector_val@UWeaponInfo@@V?$allocator@UWeaponInfo@@@std@@@std@@@std@@PAUWeaponInfo@@V?$allocator@UWeaponInfo@@@2@@std@@YAPAUWeaponInfo@@V?$_Vector_const_iterator@V?$_Vector_val@UWeaponInfo@@V?$allocator@UWeaponInfo@@@std@@@std@@@0@0PAU1@AAV?$allocator@UWeaponInfo@@@0@U_Nonscalar_ptr_iterator_tag@0@@Z ; std::_Uninit_copy<std::_Vector_const_iterator<std::_Vector_val<WeaponInfo,std::allocator<WeaponInfo> > >,WeaponInfo *,std::allocator<WeaponInfo> >
  0004e	83 c4 14	 add	 esp, 20			; 00000014H
  00051	89 46 04	 mov	 DWORD PTR [esi+4], eax
$LN7@vector@2:

; 543  : 			_CATCH_END
; 544  : 		}

  00054	8b c6		 mov	 eax, esi
  00056	e8 00 00 00 00	 call	 __EH_epilog3
  0005b	c2 04 00	 ret	 4
__catch$??0?$vector@UWeaponInfo@@V?$allocator@UWeaponInfo@@@std@@@std@@QAE@ABV01@@Z$0:

; 540  : 			_CATCH_ALL
; 541  : 			_Tidy();

  0005e	8b 4d ec	 mov	 ecx, DWORD PTR _this$[ebp]
  00061	e8 00 00 00 00	 call	 ?_Tidy@?$vector@UWeaponInfo@@V?$allocator@UWeaponInfo@@@std@@@std@@IAEXXZ ; std::vector<WeaponInfo,std::allocator<WeaponInfo> >::_Tidy

; 542  : 			_RERAISE;

  00066	33 db		 xor	 ebx, ebx
  00068	53		 push	 ebx
  00069	53		 push	 ebx
  0006a	e8 00 00 00 00	 call	 __CxxThrowException@8
$LN38@vector@2:
$LN37@vector@2:
  0006f	cc		 int	 3
_TEXT	ENDS
;	COMDAT text$x
text$x	SEGMENT
__ehhandler$??0?$vector@UWeaponInfo@@V?$allocator@UWeaponInfo@@@std@@@std@@QAE@ABV01@@Z:
  00000	8b 54 24 08	 mov	 edx, DWORD PTR [esp+8]
  00004	8d 42 0c	 lea	 eax, DWORD PTR [edx+12]
  00007	8b 4a e8	 mov	 ecx, DWORD PTR [edx-24]
  0000a	33 c8		 xor	 ecx, eax
  0000c	e8 00 00 00 00	 call	 @__security_check_cookie@4
  00011	b8 00 00 00 00	 mov	 eax, OFFSET __ehfuncinfo$??0?$vector@UWeaponInfo@@V?$allocator@UWeaponInfo@@@std@@@std@@QAE@ABV01@@Z
  00016	e9 00 00 00 00	 jmp	 ___CxxFrameHandler3
text$x	ENDS
??0?$vector@UWeaponInfo@@V?$allocator@UWeaponInfo@@@std@@@std@@QAE@ABV01@@Z ENDP ; std::vector<WeaponInfo,std::allocator<WeaponInfo> >::vector<WeaponInfo,std::allocator<WeaponInfo> >
PUBLIC	??1?$vector@UtagBaseCharHP@@V?$allocator@UtagBaseCharHP@@@std@@@std@@QAE@XZ ; std::vector<tagBaseCharHP,std::allocator<tagBaseCharHP> >::~vector<tagBaseCharHP,std::allocator<tagBaseCharHP> >
; Function compile flags: /Ogsp
;	COMDAT ??1?$vector@UtagBaseCharHP@@V?$allocator@UtagBaseCharHP@@@std@@@std@@QAE@XZ
_TEXT	SEGMENT
??1?$vector@UtagBaseCharHP@@V?$allocator@UtagBaseCharHP@@@std@@@std@@QAE@XZ PROC ; std::vector<tagBaseCharHP,std::allocator<tagBaseCharHP> >::~vector<tagBaseCharHP,std::allocator<tagBaseCharHP> >, COMDAT
; _this$ = ecx

; 705  : 		_Tidy();

  00000	e9 00 00 00 00	 jmp	 ?_Tidy@?$vector@UtagBaseCharHP@@V?$allocator@UtagBaseCharHP@@@std@@@std@@IAEXXZ ; std::vector<tagBaseCharHP,std::allocator<tagBaseCharHP> >::_Tidy
??1?$vector@UtagBaseCharHP@@V?$allocator@UtagBaseCharHP@@@std@@@std@@QAE@XZ ENDP ; std::vector<tagBaseCharHP,std::allocator<tagBaseCharHP> >::~vector<tagBaseCharHP,std::allocator<tagBaseCharHP> >
_TEXT	ENDS
PUBLIC	?clear@?$vector@UtagBaseCharHP@@V?$allocator@UtagBaseCharHP@@@std@@@std@@QAEXXZ ; std::vector<tagBaseCharHP,std::allocator<tagBaseCharHP> >::clear
; Function compile flags: /Ogsp
;	COMDAT ?clear@?$vector@UtagBaseCharHP@@V?$allocator@UtagBaseCharHP@@@std@@@std@@QAEXXZ
_TEXT	SEGMENT
$T561031 = -4						; size = 4
?clear@?$vector@UtagBaseCharHP@@V?$allocator@UtagBaseCharHP@@@std@@@std@@QAEXXZ PROC ; std::vector<tagBaseCharHP,std::allocator<tagBaseCharHP> >::clear, COMDAT
; _this$ = ecx

; 1217 : 		{	// erase all

  00000	55		 push	 ebp
  00001	8b ec		 mov	 ebp, esp
  00003	51		 push	 ecx

; 1218 : 		erase(begin(), end());

  00004	8b 41 04	 mov	 eax, DWORD PTR [ecx+4]
  00007	8b 11		 mov	 edx, DWORD PTR [ecx]
  00009	50		 push	 eax
  0000a	52		 push	 edx
  0000b	8d 45 fc	 lea	 eax, DWORD PTR $T561031[ebp]
  0000e	50		 push	 eax
  0000f	e8 00 00 00 00	 call	 ?erase@?$vector@UtagBaseCharHP@@V?$allocator@UtagBaseCharHP@@@std@@@std@@QAE?AV?$_Vector_iterator@V?$_Vector_val@UtagBaseCharHP@@V?$allocator@UtagBaseCharHP@@@std@@@std@@@2@V?$_Vector_const_iterator@V?$_Vector_val@UtagBaseCharHP@@V?$allocator@UtagBaseCharHP@@@std@@@std@@@2@0@Z ; std::vector<tagBaseCharHP,std::allocator<tagBaseCharHP> >::erase

; 1219 : 		}

  00014	c9		 leave
  00015	c3		 ret	 0
?clear@?$vector@UtagBaseCharHP@@V?$allocator@UtagBaseCharHP@@@std@@@std@@QAEXXZ ENDP ; std::vector<tagBaseCharHP,std::allocator<tagBaseCharHP> >::clear
_TEXT	ENDS
PUBLIC	?_Reserve@?$vector@UtagBaseCharHP@@V?$allocator@UtagBaseCharHP@@@std@@@std@@IAEXI@Z ; std::vector<tagBaseCharHP,std::allocator<tagBaseCharHP> >::_Reserve
; Function compile flags: /Ogsp
;	COMDAT ?_Reserve@?$vector@UtagBaseCharHP@@V?$allocator@UtagBaseCharHP@@@std@@@std@@IAEXI@Z
_TEXT	SEGMENT
__Count$ = 8						; size = 4
?_Reserve@?$vector@UtagBaseCharHP@@V?$allocator@UtagBaseCharHP@@@std@@@std@@IAEXI@Z PROC ; std::vector<tagBaseCharHP,std::allocator<tagBaseCharHP> >::_Reserve, COMDAT
; _this$ = ecx

; 1290 : 		{	// ensure room for _Count new elements, grow exponentially

  00000	55		 push	 ebp
  00001	8b ec		 mov	 ebp, esp
  00003	56		 push	 esi
  00004	8b f1		 mov	 esi, ecx

; 1291 : 		size_type _Size = size();

  00006	8b 0e		 mov	 ecx, DWORD PTR [esi]
  00008	8b 46 04	 mov	 eax, DWORD PTR [esi+4]
  0000b	2b c1		 sub	 eax, ecx
  0000d	57		 push	 edi
  0000e	99		 cdq
  0000f	6a 18		 push	 24			; 00000018H
  00011	5f		 pop	 edi
  00012	f7 ff		 idiv	 edi
  00014	8b f8		 mov	 edi, eax

; 1292 : 		if (max_size() - _Count < _Size)

  00016	b8 aa aa aa 0a	 mov	 eax, 178956970		; 0aaaaaaaH
  0001b	2b 45 08	 sub	 eax, DWORD PTR __Count$[ebp]
  0001e	3b c7		 cmp	 eax, edi
  00020	73 0b		 jae	 SHORT $LN4@Reserve

; 1293 : 			_Xlen();

  00022	68 00 00 00 00	 push	 OFFSET ??_C@_0BD@OLBABOEK@vector?$DMT?$DO?5too?5long?$AA@
  00027	ff 15 00 00 00
	00		 call	 DWORD PTR __imp_?_Xlength_error@std@@YAXPBD@Z
$LN21@Reserve:
$LN4@Reserve:

; 1294 : 		else if ((_Size += _Count) <= capacity())

  0002d	8b 46 08	 mov	 eax, DWORD PTR [esi+8]
  00030	2b c1		 sub	 eax, ecx
  00032	6a 18		 push	 24			; 00000018H
  00034	99		 cdq
  00035	59		 pop	 ecx
  00036	f7 f9		 idiv	 ecx
  00038	03 7d 08	 add	 edi, DWORD PTR __Count$[ebp]
  0003b	3b f8		 cmp	 edi, eax
  0003d	76 10		 jbe	 SHORT $LN1@Reserve

; 1295 : 			;
; 1296 : 		else
; 1297 : 			reserve(_Grow_to(_Size));

  0003f	57		 push	 edi
  00040	8b ce		 mov	 ecx, esi
  00042	e8 00 00 00 00	 call	 ?_Grow_to@?$vector@UtagBaseCharHP@@V?$allocator@UtagBaseCharHP@@@std@@@std@@IBEII@Z ; std::vector<tagBaseCharHP,std::allocator<tagBaseCharHP> >::_Grow_to
  00047	50		 push	 eax
  00048	8b ce		 mov	 ecx, esi
  0004a	e8 00 00 00 00	 call	 ?reserve@?$vector@UtagBaseCharHP@@V?$allocator@UtagBaseCharHP@@@std@@@std@@QAEXI@Z ; std::vector<tagBaseCharHP,std::allocator<tagBaseCharHP> >::reserve
$LN1@Reserve:
  0004f	5f		 pop	 edi
  00050	5e		 pop	 esi

; 1298 : 		}

  00051	5d		 pop	 ebp
  00052	c2 04 00	 ret	 4
$LN20@Reserve:
?_Reserve@?$vector@UtagBaseCharHP@@V?$allocator@UtagBaseCharHP@@@std@@@std@@IAEXI@Z ENDP ; std::vector<tagBaseCharHP,std::allocator<tagBaseCharHP> >::_Reserve
_TEXT	ENDS
PUBLIC	??$sort@V?$_Vector_iterator@V?$_Vector_val@UtagBaseCharHP@@V?$allocator@UtagBaseCharHP@@@std@@@std@@@std@@VBaseCharHPSort@@@std@@YAXV?$_Vector_iterator@V?$_Vector_val@UtagBaseCharHP@@V?$allocator@UtagBaseCharHP@@@std@@@std@@@0@0VBaseCharHPSort@@@Z ; std::sort<std::_Vector_iterator<std::_Vector_val<tagBaseCharHP,std::allocator<tagBaseCharHP> > >,BaseCharHPSort>
; Function compile flags: /Ogsp
; File c:\program files (x86)\microsoft visual studio 10.0\vc\include\algorithm
;	COMDAT ??$sort@V?$_Vector_iterator@V?$_Vector_val@UtagBaseCharHP@@V?$allocator@UtagBaseCharHP@@@std@@@std@@@std@@VBaseCharHPSort@@@std@@YAXV?$_Vector_iterator@V?$_Vector_val@UtagBaseCharHP@@V?$allocator@UtagBaseCharHP@@@std@@@std@@@0@0VBaseCharHPSort@@@Z
_TEXT	SEGMENT
__First$ = 8						; size = 4
__Last$ = 12						; size = 4
__Pred$ = 16						; size = 1
??$sort@V?$_Vector_iterator@V?$_Vector_val@UtagBaseCharHP@@V?$allocator@UtagBaseCharHP@@@std@@@std@@@std@@VBaseCharHPSort@@@std@@YAXV?$_Vector_iterator@V?$_Vector_val@UtagBaseCharHP@@V?$allocator@UtagBaseCharHP@@@std@@@std@@@0@0VBaseCharHPSort@@@Z PROC ; std::sort<std::_Vector_iterator<std::_Vector_val<tagBaseCharHP,std::allocator<tagBaseCharHP> > >,BaseCharHPSort>, COMDAT

; 3803 : 	{	// order [_First, _Last), using _Pred

  00000	55		 push	 ebp
  00001	8b ec		 mov	 ebp, esp

; 3804 : 	_DEBUG_RANGE(_First, _Last);
; 3805 : 	_DEBUG_POINTER(_Pred);
; 3806 : 	_Sort(_Unchecked(_First), _Unchecked(_Last), _Last - _First, _Pred);

  00003	ff 75 10	 push	 DWORD PTR __Pred$[ebp]
  00006	8b 45 0c	 mov	 eax, DWORD PTR __Last$[ebp]
  00009	2b 45 08	 sub	 eax, DWORD PTR __First$[ebp]
  0000c	6a 18		 push	 24			; 00000018H
  0000e	59		 pop	 ecx
  0000f	99		 cdq
  00010	f7 f9		 idiv	 ecx
  00012	50		 push	 eax
  00013	ff 75 0c	 push	 DWORD PTR __Last$[ebp]
  00016	ff 75 08	 push	 DWORD PTR __First$[ebp]
  00019	e8 00 00 00 00	 call	 ??$_Sort@PAUtagBaseCharHP@@HVBaseCharHPSort@@@std@@YAXPAUtagBaseCharHP@@0HVBaseCharHPSort@@@Z ; std::_Sort<tagBaseCharHP *,int,BaseCharHPSort>
  0001e	83 c4 10	 add	 esp, 16			; 00000010H

; 3807 : 	}

  00021	5d		 pop	 ebp
  00022	c3		 ret	 0
??$sort@V?$_Vector_iterator@V?$_Vector_val@UtagBaseCharHP@@V?$allocator@UtagBaseCharHP@@@std@@@std@@@std@@VBaseCharHPSort@@@std@@YAXV?$_Vector_iterator@V?$_Vector_val@UtagBaseCharHP@@V?$allocator@UtagBaseCharHP@@@std@@@std@@@0@0VBaseCharHPSort@@@Z ENDP ; std::sort<std::_Vector_iterator<std::_Vector_val<tagBaseCharHP,std::allocator<tagBaseCharHP> > >,BaseCharHPSort>
_TEXT	ENDS
PUBLIC	??1?$vector@UWeaponInfo@@V?$allocator@UWeaponInfo@@@std@@@std@@QAE@XZ ; std::vector<WeaponInfo,std::allocator<WeaponInfo> >::~vector<WeaponInfo,std::allocator<WeaponInfo> >
; Function compile flags: /Ogsp
; File c:\program files (x86)\microsoft visual studio 10.0\vc\include\vector
;	COMDAT ??1?$vector@UWeaponInfo@@V?$allocator@UWeaponInfo@@@std@@@std@@QAE@XZ
_TEXT	SEGMENT
??1?$vector@UWeaponInfo@@V?$allocator@UWeaponInfo@@@std@@@std@@QAE@XZ PROC ; std::vector<WeaponInfo,std::allocator<WeaponInfo> >::~vector<WeaponInfo,std::allocator<WeaponInfo> >, COMDAT
; _this$ = ecx

; 705  : 		_Tidy();

  00000	e9 00 00 00 00	 jmp	 ?_Tidy@?$vector@UWeaponInfo@@V?$allocator@UWeaponInfo@@@std@@@std@@IAEXXZ ; std::vector<WeaponInfo,std::allocator<WeaponInfo> >::_Tidy
??1?$vector@UWeaponInfo@@V?$allocator@UWeaponInfo@@@std@@@std@@QAE@XZ ENDP ; std::vector<WeaponInfo,std::allocator<WeaponInfo> >::~vector<WeaponInfo,std::allocator<WeaponInfo> >
_TEXT	ENDS
PUBLIC	??4?$vector@UWeaponInfo@@V?$allocator@UWeaponInfo@@@std@@@std@@QAEAAV01@ABV01@@Z ; std::vector<WeaponInfo,std::allocator<WeaponInfo> >::operator=
; Function compile flags: /Ogsp
;	COMDAT ??4?$vector@UWeaponInfo@@V?$allocator@UWeaponInfo@@@std@@@std@@QAEAAV01@ABV01@@Z
_TEXT	SEGMENT
tv551 = 8						; size = 4
__Cat$561344 = 8					; size = 1
__Cat$561307 = 8					; size = 1
__Cat$561285 = 8					; size = 1
__Cat$561254 = 8					; size = 1
$T561220 = 8						; size = 4
__Right$ = 8						; size = 4
??4?$vector@UWeaponInfo@@V?$allocator@UWeaponInfo@@@std@@@std@@QAEAAV01@ABV01@@Z PROC ; std::vector<WeaponInfo,std::allocator<WeaponInfo> >::operator=, COMDAT
; _this$ = ecx

; 709  : 		{	// assign _Right

  00000	55		 push	 ebp
  00001	8b ec		 mov	 ebp, esp
  00003	56		 push	 esi
  00004	57		 push	 edi

; 710  : 		if (this != &_Right)

  00005	8b 7d 08	 mov	 edi, DWORD PTR __Right$[ebp]
  00008	8b f1		 mov	 esi, ecx
  0000a	3b f7		 cmp	 esi, edi
  0000c	0f 84 03 01 00
	00		 je	 $LN1@operator@3

; 711  : 			{	// worth doing
; 712  : 			this->_Orphan_all();

  00012	ff 15 00 00 00
	00		 call	 DWORD PTR __imp_?_Orphan_all@_Container_base0@std@@QAEXXZ

; 713  : 
; 714  : 			if (_Right.size() == 0)

  00018	8b 47 04	 mov	 eax, DWORD PTR [edi+4]
  0001b	2b 07		 sub	 eax, DWORD PTR [edi]
  0001d	6a 28		 push	 40			; 00000028H
  0001f	99		 cdq
  00020	59		 pop	 ecx
  00021	f7 f9		 idiv	 ecx
  00023	89 45 08	 mov	 DWORD PTR tv551[ebp], eax
  00026	85 c0		 test	 eax, eax

; 715  : 				clear();	// new sequence empty, erase existing sequence

  00028	8b 46 04	 mov	 eax, DWORD PTR [esi+4]
  0002b	75 14		 jne	 SHORT $LN8@operator@3
  0002d	8b 0e		 mov	 ecx, DWORD PTR [esi]
  0002f	50		 push	 eax
  00030	51		 push	 ecx
  00031	8d 45 08	 lea	 eax, DWORD PTR $T561220[ebp]
  00034	50		 push	 eax
  00035	8b ce		 mov	 ecx, esi
  00037	e8 00 00 00 00	 call	 ?erase@?$vector@UWeaponInfo@@V?$allocator@UWeaponInfo@@@std@@@std@@QAE?AV?$_Vector_iterator@V?$_Vector_val@UWeaponInfo@@V?$allocator@UWeaponInfo@@@std@@@std@@@2@V?$_Vector_const_iterator@V?$_Vector_val@UWeaponInfo@@V?$allocator@UWeaponInfo@@@std@@@std@@@2@0@Z ; std::vector<WeaponInfo,std::allocator<WeaponInfo> >::erase

; 716  : 			else if (_Right.size() <= size())

  0003c	e9 d4 00 00 00	 jmp	 $LN1@operator@3
$LN8@operator@3:
  00041	53		 push	 ebx
  00042	8b 1e		 mov	 ebx, DWORD PTR [esi]
  00044	2b c3		 sub	 eax, ebx
  00046	6a 28		 push	 40			; 00000028H
  00048	99		 cdq
  00049	59		 pop	 ecx
  0004a	f7 f9		 idiv	 ecx
  0004c	8b c8		 mov	 ecx, eax
  0004e	39 4d 08	 cmp	 DWORD PTR tv551[ebp], ecx
  00051	77 33		 ja	 SHORT $LN6@operator@3

; 717  : 				{	// enough elements, copy new and destroy old
; 718  : 				pointer _Ptr = _STD _Copy_impl(_Right._Myfirst, _Right._Mylast,
; 719  : 					this->_Myfirst);	// copy new

  00053	ff 75 08	 push	 DWORD PTR __Cat$561254[ebp]
  00056	53		 push	 ebx
  00057	ff 77 04	 push	 DWORD PTR [edi+4]
  0005a	ff 37		 push	 DWORD PTR [edi]
  0005c	e8 00 00 00 00	 call	 ??$_Copy_impl@PAUWeaponInfo@@PAU1@@std@@YAPAUWeaponInfo@@PAU1@00U_Nonscalar_ptr_iterator_tag@0@@Z ; std::_Copy_impl<WeaponInfo *,WeaponInfo *>

; 720  : 				_Destroy(_Ptr, this->_Mylast);	// destroy old

  00061	8d 4e 0c	 lea	 ecx, DWORD PTR [esi+12]
  00064	51		 push	 ecx
  00065	ff 76 04	 push	 DWORD PTR [esi+4]
  00068	50		 push	 eax
  00069	e8 00 00 00 00	 call	 ??$_Destroy_range@V?$allocator@UWeaponInfo@@@std@@@std@@YAXPAUWeaponInfo@@0AAV?$allocator@UWeaponInfo@@@0@@Z ; std::_Destroy_range<std::allocator<WeaponInfo> >

; 721  : 				this->_Mylast = this->_Myfirst + _Right.size();

  0006e	8b 47 04	 mov	 eax, DWORD PTR [edi+4]
  00071	2b 07		 sub	 eax, DWORD PTR [edi]
  00073	83 c4 1c	 add	 esp, 28			; 0000001cH
  00076	99		 cdq
  00077	6a 28		 push	 40			; 00000028H
  00079	59		 pop	 ecx
  0007a	f7 f9		 idiv	 ecx
  0007c	6b c0 28	 imul	 eax, 40			; 00000028H
  0007f	03 06		 add	 eax, DWORD PTR [esi]

; 722  : 				}
; 723  : 			else if (_Right.size() <= capacity())

  00081	e9 8b 00 00 00	 jmp	 $LN73@operator@3
$LN6@operator@3:
  00086	8b 46 08	 mov	 eax, DWORD PTR [esi+8]
  00089	2b c3		 sub	 eax, ebx
  0008b	6a 28		 push	 40			; 00000028H
  0008d	99		 cdq
  0008e	5b		 pop	 ebx
  0008f	f7 fb		 idiv	 ebx
  00091	39 45 08	 cmp	 DWORD PTR tv551[ebp], eax
  00094	77 2e		 ja	 SHORT $LN4@operator@3

; 724  : 				{	// enough room, copy and construct new
; 725  : 				pointer _Ptr = _Right._Myfirst + size();
; 726  : 				_STD _Copy_impl(_Right._Myfirst, _Ptr, this->_Myfirst);

  00096	ff 75 08	 push	 DWORD PTR __Cat$561285[ebp]
  00099	6b c9 28	 imul	 ecx, 40			; 00000028H
  0009c	8b 07		 mov	 eax, DWORD PTR [edi]
  0009e	ff 36		 push	 DWORD PTR [esi]
  000a0	8d 1c 08	 lea	 ebx, DWORD PTR [eax+ecx]
  000a3	53		 push	 ebx
  000a4	50		 push	 eax
  000a5	e8 00 00 00 00	 call	 ??$_Copy_impl@PAUWeaponInfo@@PAU1@@std@@YAPAUWeaponInfo@@PAU1@00U_Nonscalar_ptr_iterator_tag@0@@Z ; std::_Copy_impl<WeaponInfo *,WeaponInfo *>

; 727  : 				this->_Mylast = _Ucopy(_Ptr, _Right._Mylast, this->_Mylast);

  000aa	ff 75 08	 push	 DWORD PTR __Cat$561307[ebp]
  000ad	8b 46 04	 mov	 eax, DWORD PTR [esi+4]
  000b0	8b 7f 04	 mov	 edi, DWORD PTR [edi+4]
  000b3	8d 4e 0c	 lea	 ecx, DWORD PTR [esi+12]
  000b6	51		 push	 ecx
  000b7	50		 push	 eax
  000b8	57		 push	 edi
  000b9	53		 push	 ebx
  000ba	e8 00 00 00 00	 call	 ??$_Uninit_copy@PAUWeaponInfo@@PAU1@V?$allocator@UWeaponInfo@@@std@@@std@@YAPAUWeaponInfo@@PAU1@00AAV?$allocator@UWeaponInfo@@@0@U_Nonscalar_ptr_iterator_tag@0@@Z ; std::_Uninit_copy<WeaponInfo *,WeaponInfo *,std::allocator<WeaponInfo> >
  000bf	83 c4 24	 add	 esp, 36			; 00000024H

; 728  : 				}
; 729  : 			else

  000c2	eb 4d		 jmp	 SHORT $LN73@operator@3
$LN4@operator@3:

; 730  : 				{	// not enough room, allocate new array and construct new
; 731  : 				if (this->_Myfirst != 0)

  000c4	8b 06		 mov	 eax, DWORD PTR [esi]
  000c6	85 c0		 test	 eax, eax
  000c8	74 17		 je	 SHORT $LN62@operator@3

; 732  : 					{	// discard old array
; 733  : 					_Destroy(this->_Myfirst, this->_Mylast);

  000ca	8d 4e 0c	 lea	 ecx, DWORD PTR [esi+12]
  000cd	51		 push	 ecx
  000ce	ff 76 04	 push	 DWORD PTR [esi+4]
  000d1	50		 push	 eax
  000d2	e8 00 00 00 00	 call	 ??$_Destroy_range@V?$allocator@UWeaponInfo@@@std@@@std@@YAXPAUWeaponInfo@@0AAV?$allocator@UWeaponInfo@@@0@@Z ; std::_Destroy_range<std::allocator<WeaponInfo> >

; 734  : 					this->_Alval.deallocate(this->_Myfirst,
; 735  : 						this->_Myend - this->_Myfirst);

  000d7	ff 36		 push	 DWORD PTR [esi]
  000d9	e8 00 00 00 00	 call	 ??3@YAXPAX@Z		; operator delete
  000de	83 c4 10	 add	 esp, 16			; 00000010H
$LN62@operator@3:

; 736  : 					}
; 737  : 				if (_Buy(_Right.size()))

  000e1	8b 47 04	 mov	 eax, DWORD PTR [edi+4]
  000e4	2b 07		 sub	 eax, DWORD PTR [edi]
  000e6	6a 28		 push	 40			; 00000028H
  000e8	59		 pop	 ecx
  000e9	99		 cdq
  000ea	f7 f9		 idiv	 ecx
  000ec	8b ce		 mov	 ecx, esi
  000ee	50		 push	 eax
  000ef	e8 00 00 00 00	 call	 ?_Buy@?$vector@UWeaponInfo@@V?$allocator@UWeaponInfo@@@std@@@std@@IAE_NI@Z ; std::vector<WeaponInfo,std::allocator<WeaponInfo> >::_Buy
  000f4	84 c0		 test	 al, al
  000f6	74 1c		 je	 SHORT $LN72@operator@3

; 738  : 					this->_Mylast = _Ucopy(_Right._Myfirst, _Right._Mylast,
; 739  : 						this->_Myfirst);

  000f8	ff 75 08	 push	 DWORD PTR __Cat$561344[ebp]
  000fb	8b 06		 mov	 eax, DWORD PTR [esi]
  000fd	8b 4f 04	 mov	 ecx, DWORD PTR [edi+4]
  00100	8b 3f		 mov	 edi, DWORD PTR [edi]
  00102	8d 56 0c	 lea	 edx, DWORD PTR [esi+12]
  00105	52		 push	 edx
  00106	50		 push	 eax
  00107	51		 push	 ecx
  00108	57		 push	 edi
  00109	e8 00 00 00 00	 call	 ??$_Uninit_copy@PAUWeaponInfo@@PAU1@V?$allocator@UWeaponInfo@@@std@@@std@@YAPAUWeaponInfo@@PAU1@00AAV?$allocator@UWeaponInfo@@@0@U_Nonscalar_ptr_iterator_tag@0@@Z ; std::_Uninit_copy<WeaponInfo *,WeaponInfo *,std::allocator<WeaponInfo> >
  0010e	83 c4 14	 add	 esp, 20			; 00000014H
$LN73@operator@3:
  00111	89 46 04	 mov	 DWORD PTR [esi+4], eax
$LN72@operator@3:
  00114	5b		 pop	 ebx
$LN1@operator@3:
  00115	5f		 pop	 edi

; 740  : 				}
; 741  : 			}
; 742  : 		return (*this);

  00116	8b c6		 mov	 eax, esi
  00118	5e		 pop	 esi

; 743  : 		}

  00119	5d		 pop	 ebp
  0011a	c2 04 00	 ret	 4
??4?$vector@UWeaponInfo@@V?$allocator@UWeaponInfo@@@std@@@std@@QAEAAV01@ABV01@@Z ENDP ; std::vector<WeaponInfo,std::allocator<WeaponInfo> >::operator=
_TEXT	ENDS
PUBLIC	??0AttackAttribute@@QAE@ABU0@@Z			; AttackAttribute::AttackAttribute
;	COMDAT xdata$x
xdata$x	SEGMENT
__unwindtable$??0AttackAttribute@@QAE@ABU0@@Z DD 0ffffffffH
	DD	FLAT:__unwindfunclet$??0AttackAttribute@@QAE@ABU0@@Z$0
	DD	00H
	DD	FLAT:__unwindfunclet$??0AttackAttribute@@QAE@ABU0@@Z$1
	DD	01H
	DD	FLAT:__unwindfunclet$??0AttackAttribute@@QAE@ABU0@@Z$2
__ehfuncinfo$??0AttackAttribute@@QAE@ABU0@@Z DD 019930522H
	DD	03H
	DD	FLAT:__unwindtable$??0AttackAttribute@@QAE@ABU0@@Z
	DD	2 DUP(00H)
	DD	2 DUP(00H)
	DD	00H
	DD	01H
; Function compile flags: /Ogsp
xdata$x	ENDS
;	COMDAT ??0AttackAttribute@@QAE@ABU0@@Z
_TEXT	SEGMENT
_this$ = -16						; size = 4
__$EHRec$ = -12						; size = 12
___that$ = 8						; size = 4
??0AttackAttribute@@QAE@ABU0@@Z PROC			; AttackAttribute::AttackAttribute, COMDAT
; _this$ = ecx
  00000	6a 04		 push	 4
  00002	b8 00 00 00 00	 mov	 eax, __ehhandler$??0AttackAttribute@@QAE@ABU0@@Z
  00007	e8 00 00 00 00	 call	 __EH_prolog3
  0000c	8b f1		 mov	 esi, ecx
  0000e	89 75 f0	 mov	 DWORD PTR _this$[ebp], esi
  00011	8b 7d 08	 mov	 edi, DWORD PTR ___that$[ebp]
  00014	8b 1d 00 00 00
	00		 mov	 ebx, DWORD PTR __imp_??0ioHashString@@QAE@ABV0@@Z
  0001a	57		 push	 edi
  0001b	ff d3		 call	 ebx
  0001d	d9 47 10	 fld	 DWORD PTR [edi+16]
  00020	83 65 fc 00	 and	 DWORD PTR __$EHRec$[ebp+8], 0
  00024	d9 5e 10	 fstp	 DWORD PTR [esi+16]
  00027	8d 47 14	 lea	 eax, DWORD PTR [edi+20]
  0002a	50		 push	 eax
  0002b	8d 4e 14	 lea	 ecx, DWORD PTR [esi+20]
  0002e	ff d3		 call	 ebx
  00030	d9 47 24	 fld	 DWORD PTR [edi+36]
  00033	8d 47 28	 lea	 eax, DWORD PTR [edi+40]
  00036	d9 5e 24	 fstp	 DWORD PTR [esi+36]
  00039	50		 push	 eax
  0003a	8d 4e 28	 lea	 ecx, DWORD PTR [esi+40]
  0003d	c6 45 fc 01	 mov	 BYTE PTR __$EHRec$[ebp+8], 1
  00041	e8 00 00 00 00	 call	 ??0?$vector@UWeaponInfo@@V?$allocator@UWeaponInfo@@@std@@@std@@QAE@ABV01@@Z ; std::vector<WeaponInfo,std::allocator<WeaponInfo> >::vector<WeaponInfo,std::allocator<WeaponInfo> >
  00046	8d 47 38	 lea	 eax, DWORD PTR [edi+56]
  00049	50		 push	 eax
  0004a	8d 4e 38	 lea	 ecx, DWORD PTR [esi+56]
  0004d	c6 45 fc 02	 mov	 BYTE PTR __$EHRec$[ebp+8], 2
  00051	e8 00 00 00 00	 call	 ??0?$vector@UForceInfo@@V?$allocator@UForceInfo@@@std@@@std@@QAE@ABV01@@Z ; std::vector<ForceInfo,std::allocator<ForceInfo> >::vector<ForceInfo,std::allocator<ForceInfo> >
  00056	8b 47 48	 mov	 eax, DWORD PTR [edi+72]
  00059	89 46 48	 mov	 DWORD PTR [esi+72], eax
  0005c	8b 47 4c	 mov	 eax, DWORD PTR [edi+76]
  0005f	89 46 4c	 mov	 DWORD PTR [esi+76], eax
  00062	8b c6		 mov	 eax, esi
  00064	e8 00 00 00 00	 call	 __EH_epilog3
  00069	c2 04 00	 ret	 4
_TEXT	ENDS
;	COMDAT text$x
text$x	SEGMENT
__unwindfunclet$??0AttackAttribute@@QAE@ABU0@@Z$0:
  00000	8b 4d f0	 mov	 ecx, DWORD PTR _this$[ebp]
  00003	ff 25 00 00 00
	00		 jmp	 DWORD PTR __imp_??1ioHashString@@QAE@XZ
__unwindfunclet$??0AttackAttribute@@QAE@ABU0@@Z$1:
  00009	8b 4d f0	 mov	 ecx, DWORD PTR _this$[ebp]
  0000c	83 c1 14	 add	 ecx, 20			; 00000014H
  0000f	ff 25 00 00 00
	00		 jmp	 DWORD PTR __imp_??1ioHashString@@QAE@XZ
__unwindfunclet$??0AttackAttribute@@QAE@ABU0@@Z$2:
  00015	8b 4d f0	 mov	 ecx, DWORD PTR _this$[ebp]
  00018	83 c1 28	 add	 ecx, 40			; 00000028H
  0001b	e9 00 00 00 00	 jmp	 ??1?$vector@UWeaponInfo@@V?$allocator@UWeaponInfo@@@std@@@std@@QAE@XZ ; std::vector<WeaponInfo,std::allocator<WeaponInfo> >::~vector<WeaponInfo,std::allocator<WeaponInfo> >
__ehhandler$??0AttackAttribute@@QAE@ABU0@@Z:
  00020	8b 54 24 08	 mov	 edx, DWORD PTR [esp+8]
  00024	8d 42 0c	 lea	 eax, DWORD PTR [edx+12]
  00027	8b 4a ec	 mov	 ecx, DWORD PTR [edx-20]
  0002a	33 c8		 xor	 ecx, eax
  0002c	e8 00 00 00 00	 call	 @__security_check_cookie@4
  00031	b8 00 00 00 00	 mov	 eax, OFFSET __ehfuncinfo$??0AttackAttribute@@QAE@ABU0@@Z
  00036	e9 00 00 00 00	 jmp	 ___CxxFrameHandler3
text$x	ENDS
??0AttackAttribute@@QAE@ABU0@@Z ENDP			; AttackAttribute::AttackAttribute
PUBLIC	?push_back@?$vector@UtagBaseCharHP@@V?$allocator@UtagBaseCharHP@@@std@@@std@@QAEXABUtagBaseCharHP@@@Z ; std::vector<tagBaseCharHP,std::allocator<tagBaseCharHP> >::push_back
; Function compile flags: /Ogsp
;	COMDAT ?push_back@?$vector@UtagBaseCharHP@@V?$allocator@UtagBaseCharHP@@@std@@@std@@QAEXABUtagBaseCharHP@@@Z
_TEXT	SEGMENT
__Val$ = 8						; size = 4
?push_back@?$vector@UtagBaseCharHP@@V?$allocator@UtagBaseCharHP@@@std@@@std@@QAEXABUtagBaseCharHP@@@Z PROC ; std::vector<tagBaseCharHP,std::allocator<tagBaseCharHP> >::push_back, COMDAT
; _this$ = ecx

; 976  : 		{	// insert element at end

  00000	55		 push	 ebp
  00001	8b ec		 mov	 ebp, esp
  00003	56		 push	 esi
  00004	8b f1		 mov	 esi, ecx

; 977  : 		if (_Inside(_STD addressof(_Val)))

  00006	8b 4e 04	 mov	 ecx, DWORD PTR [esi+4]
  00009	57		 push	 edi
  0000a	8b 7d 08	 mov	 edi, DWORD PTR __Val$[ebp]
  0000d	3b f9		 cmp	 edi, ecx
  0000f	73 37		 jae	 SHORT $LN4@push_back
  00011	8b 16		 mov	 edx, DWORD PTR [esi]
  00013	3b d7		 cmp	 edx, edi
  00015	77 31		 ja	 SHORT $LN4@push_back

; 978  : 			{	// push back an element
; 979  : 			size_type _Idx = _STD addressof(_Val) - this->_Myfirst;

  00017	8b c7		 mov	 eax, edi
  00019	2b c2		 sub	 eax, edx
  0001b	6a 18		 push	 24			; 00000018H
  0001d	99		 cdq
  0001e	5f		 pop	 edi
  0001f	f7 ff		 idiv	 edi
  00021	8b f8		 mov	 edi, eax

; 980  : 			if (this->_Mylast == this->_Myend)

  00023	3b 4e 08	 cmp	 ecx, DWORD PTR [esi+8]
  00026	75 09		 jne	 SHORT $LN3@push_back

; 981  : 				_Reserve(1);

  00028	6a 01		 push	 1
  0002a	8b ce		 mov	 ecx, esi
  0002c	e8 00 00 00 00	 call	 ?_Reserve@?$vector@UtagBaseCharHP@@V?$allocator@UtagBaseCharHP@@@std@@@std@@IAEXI@Z ; std::vector<tagBaseCharHP,std::allocator<tagBaseCharHP> >::_Reserve
$LN3@push_back:

; 982  : 			_Orphan_range(this->_Mylast, this->_Mylast);
; 983  : 			_Cons_val(this->_Alval,
; 984  : 				this->_Mylast,
; 985  : 				this->_Myfirst[_Idx]);

  00031	6b ff 18	 imul	 edi, 24			; 00000018H
  00034	03 3e		 add	 edi, DWORD PTR [esi]
  00036	8d 46 0c	 lea	 eax, DWORD PTR [esi+12]
  00039	57		 push	 edi
  0003a	ff 76 04	 push	 DWORD PTR [esi+4]
  0003d	50		 push	 eax
  0003e	e8 00 00 00 00	 call	 ??$_Cons_val@V?$allocator@UtagBaseCharHP@@@std@@UtagBaseCharHP@@AAU3@@std@@YAXAAV?$allocator@UtagBaseCharHP@@@0@PAUtagBaseCharHP@@AAU2@@Z ; std::_Cons_val<std::allocator<tagBaseCharHP>,tagBaseCharHP,tagBaseCharHP &>
  00043	83 c4 0c	 add	 esp, 12			; 0000000cH

; 986  : 			++this->_Mylast;
; 987  : 			}
; 988  : 		else

  00046	eb 19		 jmp	 SHORT $LN26@push_back
$LN4@push_back:

; 989  : 			{	// push back a non-element
; 990  : 			if (this->_Mylast == this->_Myend)

  00048	3b 4e 08	 cmp	 ecx, DWORD PTR [esi+8]
  0004b	75 09		 jne	 SHORT $LN1@push_back

; 991  : 				_Reserve(1);

  0004d	6a 01		 push	 1
  0004f	8b ce		 mov	 ecx, esi
  00051	e8 00 00 00 00	 call	 ?_Reserve@?$vector@UtagBaseCharHP@@V?$allocator@UtagBaseCharHP@@@std@@@std@@IAEXI@Z ; std::vector<tagBaseCharHP,std::allocator<tagBaseCharHP> >::_Reserve
$LN1@push_back:

; 992  : 			_Orphan_range(this->_Mylast, this->_Mylast);
; 993  : 			_Cons_val(this->_Alval,
; 994  : 				this->_Mylast,
; 995  : 				_Val);

  00056	57		 push	 edi
  00057	ff 76 04	 push	 DWORD PTR [esi+4]
  0005a	e8 00 00 00 00	 call	 ??$_Construct@UtagBaseCharHP@@ABU1@@std@@YAXPAUtagBaseCharHP@@ABU1@@Z ; std::_Construct<tagBaseCharHP,tagBaseCharHP const &>
  0005f	59		 pop	 ecx
  00060	59		 pop	 ecx
$LN26@push_back:

; 996  : 			++this->_Mylast;

  00061	83 46 04 18	 add	 DWORD PTR [esi+4], 24	; 00000018H
  00065	5f		 pop	 edi
  00066	5e		 pop	 esi

; 997  : 			}
; 998  : 		}

  00067	5d		 pop	 ebp
  00068	c2 04 00	 ret	 4
?push_back@?$vector@UtagBaseCharHP@@V?$allocator@UtagBaseCharHP@@@std@@@std@@QAEXABUtagBaseCharHP@@@Z ENDP ; std::vector<tagBaseCharHP,std::allocator<tagBaseCharHP> >::push_back
_TEXT	ENDS
PUBLIC	??0AttackAttribute@@QAE@XZ			; AttackAttribute::AttackAttribute
EXTRN	?Init@AttackAttribute@@QAEXXZ:PROC		; AttackAttribute::Init
;	COMDAT xdata$x
; File c:\program files (x86)\microsoft visual studio 10.0\vc\include\xmemory
xdata$x	SEGMENT
__unwindtable$??0AttackAttribute@@QAE@XZ DD 0ffffffffH
	DD	FLAT:__unwindfunclet$??0AttackAttribute@@QAE@XZ$0
	DD	00H
	DD	FLAT:__unwindfunclet$??0AttackAttribute@@QAE@XZ$1
	DD	01H
	DD	FLAT:__unwindfunclet$??0AttackAttribute@@QAE@XZ$2
	DD	02H
	DD	FLAT:__unwindfunclet$??0AttackAttribute@@QAE@XZ$3
__ehfuncinfo$??0AttackAttribute@@QAE@XZ DD 019930522H
	DD	04H
	DD	FLAT:__unwindtable$??0AttackAttribute@@QAE@XZ
	DD	2 DUP(00H)
	DD	2 DUP(00H)
	DD	00H
	DD	01H
; Function compile flags: /Ogsp
; File d:\lost saga for developer\youtube\tutorial\source\src\lsclient\ioattackattribute.h
xdata$x	ENDS
;	COMDAT ??0AttackAttribute@@QAE@XZ
_TEXT	SEGMENT
_this$ = -16						; size = 4
__$EHRec$ = -12						; size = 12
??0AttackAttribute@@QAE@XZ PROC				; AttackAttribute::AttackAttribute, COMDAT
; _this$ = ecx

; 107  : 	AttackAttribute()

  00000	6a 04		 push	 4
  00002	b8 00 00 00 00	 mov	 eax, __ehhandler$??0AttackAttribute@@QAE@XZ
  00007	e8 00 00 00 00	 call	 __EH_prolog3
  0000c	8b f1		 mov	 esi, ecx
  0000e	89 75 f0	 mov	 DWORD PTR _this$[ebp], esi
  00011	8b 3d 00 00 00
	00		 mov	 edi, DWORD PTR __imp_??0ioHashString@@QAE@XZ
  00017	ff d7		 call	 edi
  00019	33 db		 xor	 ebx, ebx
  0001b	8d 4e 14	 lea	 ecx, DWORD PTR [esi+20]
  0001e	89 5d fc	 mov	 DWORD PTR __$EHRec$[ebp+8], ebx
  00021	ff d7		 call	 edi
  00023	89 5e 28	 mov	 DWORD PTR [esi+40], ebx
  00026	89 5e 2c	 mov	 DWORD PTR [esi+44], ebx
  00029	89 5e 30	 mov	 DWORD PTR [esi+48], ebx
  0002c	89 5e 38	 mov	 DWORD PTR [esi+56], ebx
  0002f	89 5e 3c	 mov	 DWORD PTR [esi+60], ebx
  00032	89 5e 40	 mov	 DWORD PTR [esi+64], ebx

; 108  : 	{
; 109  : 		Init();

  00035	8b ce		 mov	 ecx, esi
  00037	c6 45 fc 03	 mov	 BYTE PTR __$EHRec$[ebp+8], 3
  0003b	e8 00 00 00 00	 call	 ?Init@AttackAttribute@@QAEXXZ ; AttackAttribute::Init

; 110  : 	}

  00040	8b c6		 mov	 eax, esi
  00042	e8 00 00 00 00	 call	 __EH_epilog3
  00047	c3		 ret	 0
_TEXT	ENDS
;	COMDAT text$x
text$x	SEGMENT
__unwindfunclet$??0AttackAttribute@@QAE@XZ$0:
  00000	8b 4d f0	 mov	 ecx, DWORD PTR _this$[ebp]
  00003	ff 25 00 00 00
	00		 jmp	 DWORD PTR __imp_??1ioHashString@@QAE@XZ
__unwindfunclet$??0AttackAttribute@@QAE@XZ$1:
  00009	8b 4d f0	 mov	 ecx, DWORD PTR _this$[ebp]
  0000c	83 c1 14	 add	 ecx, 20			; 00000014H
  0000f	ff 25 00 00 00
	00		 jmp	 DWORD PTR __imp_??1ioHashString@@QAE@XZ
__unwindfunclet$??0AttackAttribute@@QAE@XZ$2:
  00015	8b 4d f0	 mov	 ecx, DWORD PTR _this$[ebp]
  00018	83 c1 28	 add	 ecx, 40			; 00000028H
  0001b	e9 00 00 00 00	 jmp	 ??1?$vector@UWeaponInfo@@V?$allocator@UWeaponInfo@@@std@@@std@@QAE@XZ ; std::vector<WeaponInfo,std::allocator<WeaponInfo> >::~vector<WeaponInfo,std::allocator<WeaponInfo> >
__unwindfunclet$??0AttackAttribute@@QAE@XZ$3:
  00020	8b 4d f0	 mov	 ecx, DWORD PTR _this$[ebp]
  00023	83 c1 38	 add	 ecx, 56			; 00000038H
  00026	e9 00 00 00 00	 jmp	 ??1?$vector@UForceInfo@@V?$allocator@UForceInfo@@@std@@@std@@QAE@XZ ; std::vector<ForceInfo,std::allocator<ForceInfo> >::~vector<ForceInfo,std::allocator<ForceInfo> >
__ehhandler$??0AttackAttribute@@QAE@XZ:
  0002b	8b 54 24 08	 mov	 edx, DWORD PTR [esp+8]
  0002f	8d 42 0c	 lea	 eax, DWORD PTR [edx+12]
  00032	8b 4a ec	 mov	 ecx, DWORD PTR [edx-20]
  00035	33 c8		 xor	 ecx, eax
  00037	e8 00 00 00 00	 call	 @__security_check_cookie@4
  0003c	b8 00 00 00 00	 mov	 eax, OFFSET __ehfuncinfo$??0AttackAttribute@@QAE@XZ
  00041	e9 00 00 00 00	 jmp	 ___CxxFrameHandler3
text$x	ENDS
??0AttackAttribute@@QAE@XZ ENDP				; AttackAttribute::AttackAttribute
PUBLIC	??1AttackAttribute@@QAE@XZ			; AttackAttribute::~AttackAttribute
;	COMDAT xdata$x
xdata$x	SEGMENT
__unwindtable$??1AttackAttribute@@QAE@XZ DD 0ffffffffH
	DD	FLAT:__unwindfunclet$??1AttackAttribute@@QAE@XZ$0
	DD	00H
	DD	FLAT:__unwindfunclet$??1AttackAttribute@@QAE@XZ$1
	DD	01H
	DD	FLAT:__unwindfunclet$??1AttackAttribute@@QAE@XZ$2
__ehfuncinfo$??1AttackAttribute@@QAE@XZ DD 019930522H
	DD	03H
	DD	FLAT:__unwindtable$??1AttackAttribute@@QAE@XZ
	DD	2 DUP(00H)
	DD	2 DUP(00H)
	DD	00H
	DD	01H
; Function compile flags: /Ogsp
xdata$x	ENDS
;	COMDAT ??1AttackAttribute@@QAE@XZ
_TEXT	SEGMENT
_this$ = -16						; size = 4
__$EHRec$ = -12						; size = 12
??1AttackAttribute@@QAE@XZ PROC				; AttackAttribute::~AttackAttribute, COMDAT
; _this$ = ecx
  00000	6a 04		 push	 4
  00002	b8 00 00 00 00	 mov	 eax, __ehhandler$??1AttackAttribute@@QAE@XZ
  00007	e8 00 00 00 00	 call	 __EH_prolog3
  0000c	8b f1		 mov	 esi, ecx
  0000e	89 75 f0	 mov	 DWORD PTR _this$[ebp], esi
  00011	8d 4e 38	 lea	 ecx, DWORD PTR [esi+56]
  00014	c7 45 fc 02 00
	00 00		 mov	 DWORD PTR __$EHRec$[ebp+8], 2
  0001b	e8 00 00 00 00	 call	 ?_Tidy@?$vector@UForceInfo@@V?$allocator@UForceInfo@@@std@@@std@@IAEXXZ ; std::vector<ForceInfo,std::allocator<ForceInfo> >::_Tidy
  00020	8d 4e 28	 lea	 ecx, DWORD PTR [esi+40]
  00023	c6 45 fc 01	 mov	 BYTE PTR __$EHRec$[ebp+8], 1
  00027	e8 00 00 00 00	 call	 ?_Tidy@?$vector@UWeaponInfo@@V?$allocator@UWeaponInfo@@@std@@@std@@IAEXXZ ; std::vector<WeaponInfo,std::allocator<WeaponInfo> >::_Tidy
  0002c	8b 3d 00 00 00
	00		 mov	 edi, DWORD PTR __imp_??1ioHashString@@QAE@XZ
  00032	8d 4e 14	 lea	 ecx, DWORD PTR [esi+20]
  00035	c6 45 fc 00	 mov	 BYTE PTR __$EHRec$[ebp+8], 0
  00039	ff d7		 call	 edi
  0003b	83 4d fc ff	 or	 DWORD PTR __$EHRec$[ebp+8], -1
  0003f	8b ce		 mov	 ecx, esi
  00041	ff d7		 call	 edi
  00043	e8 00 00 00 00	 call	 __EH_epilog3
  00048	c3		 ret	 0
_TEXT	ENDS
;	COMDAT text$x
text$x	SEGMENT
__unwindfunclet$??1AttackAttribute@@QAE@XZ$0:
  00000	8b 4d f0	 mov	 ecx, DWORD PTR _this$[ebp]
  00003	ff 25 00 00 00
	00		 jmp	 DWORD PTR __imp_??1ioHashString@@QAE@XZ
__unwindfunclet$??1AttackAttribute@@QAE@XZ$1:
  00009	8b 4d f0	 mov	 ecx, DWORD PTR _this$[ebp]
  0000c	83 c1 14	 add	 ecx, 20			; 00000014H
  0000f	ff 25 00 00 00
	00		 jmp	 DWORD PTR __imp_??1ioHashString@@QAE@XZ
__unwindfunclet$??1AttackAttribute@@QAE@XZ$2:
  00015	8b 4d f0	 mov	 ecx, DWORD PTR _this$[ebp]
  00018	83 c1 28	 add	 ecx, 40			; 00000028H
  0001b	e9 00 00 00 00	 jmp	 ??1?$vector@UWeaponInfo@@V?$allocator@UWeaponInfo@@@std@@@std@@QAE@XZ ; std::vector<WeaponInfo,std::allocator<WeaponInfo> >::~vector<WeaponInfo,std::allocator<WeaponInfo> >
__ehhandler$??1AttackAttribute@@QAE@XZ:
  00020	8b 54 24 08	 mov	 edx, DWORD PTR [esp+8]
  00024	8d 42 0c	 lea	 eax, DWORD PTR [edx+12]
  00027	8b 4a ec	 mov	 ecx, DWORD PTR [edx-20]
  0002a	33 c8		 xor	 ecx, eax
  0002c	e8 00 00 00 00	 call	 @__security_check_cookie@4
  00031	b8 00 00 00 00	 mov	 eax, OFFSET __ehfuncinfo$??1AttackAttribute@@QAE@XZ
  00036	e9 00 00 00 00	 jmp	 ___CxxFrameHandler3
text$x	ENDS
??1AttackAttribute@@QAE@XZ ENDP				; AttackAttribute::~AttackAttribute
PUBLIC	??4AttackAttribute@@QAEAAU0@ABU0@@Z		; AttackAttribute::operator=
; Function compile flags: /Ogsp
;	COMDAT ??4AttackAttribute@@QAEAAU0@ABU0@@Z
_TEXT	SEGMENT
___that$ = 8						; size = 4
??4AttackAttribute@@QAEAAU0@ABU0@@Z PROC		; AttackAttribute::operator=, COMDAT
; _this$ = ecx
  00000	55		 push	 ebp
  00001	8b ec		 mov	 ebp, esp
  00003	53		 push	 ebx
  00004	8b 1d 00 00 00
	00		 mov	 ebx, DWORD PTR __imp_??4ioHashString@@QAEAAV0@ABV0@@Z
  0000a	56		 push	 esi
  0000b	57		 push	 edi
  0000c	8b 7d 08	 mov	 edi, DWORD PTR ___that$[ebp]
  0000f	57		 push	 edi
  00010	8b f1		 mov	 esi, ecx
  00012	ff d3		 call	 ebx
  00014	d9 47 10	 fld	 DWORD PTR [edi+16]
  00017	8d 47 14	 lea	 eax, DWORD PTR [edi+20]
  0001a	d9 5e 10	 fstp	 DWORD PTR [esi+16]
  0001d	50		 push	 eax
  0001e	8d 4e 14	 lea	 ecx, DWORD PTR [esi+20]
  00021	ff d3		 call	 ebx
  00023	d9 47 24	 fld	 DWORD PTR [edi+36]
  00026	8d 47 28	 lea	 eax, DWORD PTR [edi+40]
  00029	d9 5e 24	 fstp	 DWORD PTR [esi+36]
  0002c	50		 push	 eax
  0002d	8d 4e 28	 lea	 ecx, DWORD PTR [esi+40]
  00030	e8 00 00 00 00	 call	 ??4?$vector@UWeaponInfo@@V?$allocator@UWeaponInfo@@@std@@@std@@QAEAAV01@ABV01@@Z ; std::vector<WeaponInfo,std::allocator<WeaponInfo> >::operator=
  00035	8d 47 38	 lea	 eax, DWORD PTR [edi+56]
  00038	50		 push	 eax
  00039	8d 4e 38	 lea	 ecx, DWORD PTR [esi+56]
  0003c	e8 00 00 00 00	 call	 ??4?$vector@UForceInfo@@V?$allocator@UForceInfo@@@std@@@std@@QAEAAV01@ABV01@@Z ; std::vector<ForceInfo,std::allocator<ForceInfo> >::operator=
  00041	8b 47 48	 mov	 eax, DWORD PTR [edi+72]
  00044	89 46 48	 mov	 DWORD PTR [esi+72], eax
  00047	8b 47 4c	 mov	 eax, DWORD PTR [edi+76]
  0004a	89 46 4c	 mov	 DWORD PTR [esi+76], eax
  0004d	5f		 pop	 edi
  0004e	8b c6		 mov	 eax, esi
  00050	5e		 pop	 esi
  00051	5b		 pop	 ebx
  00052	5d		 pop	 ebp
  00053	c2 04 00	 ret	 4
??4AttackAttribute@@QAEAAU0@ABU0@@Z ENDP		; AttackAttribute::operator=
_TEXT	ENDS
PUBLIC	??_7ioTargetTimingAttackSkill@@6B@		; ioTargetTimingAttackSkill::`vftable'
PUBLIC	??0ioTargetTimingAttackSkill@@QAE@XZ		; ioTargetTimingAttackSkill::ioTargetTimingAttackSkill
PUBLIC	??_R4ioTargetTimingAttackSkill@@6B@		; ioTargetTimingAttackSkill::`RTTI Complete Object Locator'
PUBLIC	??_R0?AVioTargetTimingAttackSkill@@@8		; ioTargetTimingAttackSkill `RTTI Type Descriptor'
PUBLIC	??_R3ioTargetTimingAttackSkill@@8		; ioTargetTimingAttackSkill::`RTTI Class Hierarchy Descriptor'
PUBLIC	??_R2ioTargetTimingAttackSkill@@8		; ioTargetTimingAttackSkill::`RTTI Base Class Array'
PUBLIC	??_R1A@?0A@EA@ioTargetTimingAttackSkill@@8	; ioTargetTimingAttackSkill::`RTTI Base Class Descriptor at (0,-1,0,64)'
PUBLIC	??_R1A@?0A@EA@ioAttackSkill@@8			; ioAttackSkill::`RTTI Base Class Descriptor at (0,-1,0,64)'
PUBLIC	??_R0?AVioAttackSkill@@@8			; ioAttackSkill `RTTI Type Descriptor'
PUBLIC	??_R3ioAttackSkill@@8				; ioAttackSkill::`RTTI Class Hierarchy Descriptor'
PUBLIC	??_R2ioAttackSkill@@8				; ioAttackSkill::`RTTI Base Class Array'
PUBLIC	??_R1A@?0A@EA@ioSkill@@8			; ioSkill::`RTTI Base Class Descriptor at (0,-1,0,64)'
PUBLIC	??_R0?AVioSkill@@@8				; ioSkill `RTTI Type Descriptor'
PUBLIC	??_R3ioSkill@@8					; ioSkill::`RTTI Class Hierarchy Descriptor'
PUBLIC	??_R2ioSkill@@8					; ioSkill::`RTTI Base Class Array'
PUBLIC	?Clone@ioTargetTimingAttackSkill@@UAEPAVioSkill@@XZ ; ioTargetTimingAttackSkill::Clone
PUBLIC	?GetDefenseSkillBreakeType@ioSkill@@UBE?AW4DefenseBreakType@@XZ ; ioSkill::GetDefenseSkillBreakeType
PUBLIC	?GetSkillEndNextJumpAmt@ioSkill@@UBEMXZ		; ioSkill::GetSkillEndNextJumpAmt
PUBLIC	?GetSkillEndNextLandRate@ioSkill@@UBEMXZ	; ioSkill::GetSkillEndNextLandRate
PUBLIC	?GetSkillEndNextJumpMustEnable@ioSkill@@UAE?AW4SkillEndJumpType@@XZ ; ioSkill::GetSkillEndNextJumpMustEnable
PUBLIC	?EnableChangeGrapplingTargetPos@ioSkill@@UBE_NXZ ; ioSkill::EnableChangeGrapplingTargetPos
PUBLIC	?OnProcessState@ioTargetTimingAttackSkill@@UAEXPAVioBaseChar@@PAVioPlayStage@@@Z ; ioTargetTimingAttackSkill::OnProcessState
PUBLIC	?ApplyExtraSkillInfo@ioTargetTimingAttackSkill@@UAEXPAVioBaseChar@@PAVioPlayStage@@AAVSP2Packet@@@Z ; ioTargetTimingAttackSkill::ApplyExtraSkillInfo
PUBLIC	?IsInvisibleBottomCircle@ioSkill@@UAE_NPAVioBaseChar@@@Z ; ioSkill::IsInvisibleBottomCircle
PUBLIC	?IsCanJumpingSkill@ioSkill@@UBE_NXZ		; ioSkill::IsCanJumpingSkill
PUBLIC	?IsCanJumpingSkillOnBlowWound@ioSkill@@UBE_NXZ	; ioSkill::IsCanJumpingSkillOnBlowWound
PUBLIC	?IsCanDownSkill@ioSkill@@UBE_NXZ		; ioSkill::IsCanDownSkill
PUBLIC	?IsCanBlowWoundSkill@ioSkill@@UBE_NXZ		; ioSkill::IsCanBlowWoundSkill
PUBLIC	?IsCanWoundSkill@ioSkill@@UBE_NXZ		; ioSkill::IsCanWoundSkill
PUBLIC	?IsUseActiveCnt@ioSkill@@UBE_NXZ		; ioSkill::IsUseActiveCnt
PUBLIC	?GetMaxActiveCnt@ioSkill@@UBEHPAVioBaseChar@@@Z	; ioSkill::GetMaxActiveCnt
PUBLIC	?GetCurActiveCnt@ioSkill@@UBEHPAVioBaseChar@@@Z	; ioSkill::GetCurActiveCnt
EXTRN	??1ioAttackSkill@@UAE@XZ:PROC			; ioAttackSkill::~ioAttackSkill
EXTRN	??0ioAttackSkill@@QAE@XZ:PROC			; ioAttackSkill::ioAttackSkill
EXTRN	?GetTypeID@ioAttackSkill@@UBEHXZ:PROC		; ioAttackSkill::GetTypeID
EXTRN	?IsCanSwitchSkill@ioSkill@@UBE_NXZ:PROC		; ioSkill::IsCanSwitchSkill
EXTRN	?IsCanSemiSwitchSkill@ioSkill@@UBE_NXZ:PROC	; ioSkill::IsCanSemiSwitchSkill
EXTRN	?IsCanCancelBySkill@ioSkill@@UBE_NPAVioBaseChar@@AAH@Z:PROC ; ioSkill::IsCanCancelBySkill
EXTRN	?IsCanUseZeroHP@ioSkill@@UBE_NPAVioBaseChar@@@Z:PROC ; ioSkill::IsCanUseZeroHP
EXTRN	?IsCanUseSkillWithCrown@ioSkill@@UAE_NPAVioBaseChar@@@Z:PROC ; ioSkill::IsCanUseSkillWithCrown
EXTRN	?IsCanUseBoss@ioSkill@@UBE_NPAVioBaseChar@@@Z:PROC ; ioSkill::IsCanUseBoss
EXTRN	?IsCanUseFootball@ioSkill@@UBE_NXZ:PROC		; ioSkill::IsCanUseFootball
EXTRN	?IsCanUseGangSiMode@ioSkill@@UBE_NXZ:PROC	; ioSkill::IsCanUseGangSiMode
EXTRN	?IsCanUseByWeaponType@ioSkill@@UBE_NPAVioBaseChar@@@Z:PROC ; ioSkill::IsCanUseByWeaponType
EXTRN	?IsCanUseThunderBirdHold@ioSkill@@UBE_NPAVioBaseChar@@@Z:PROC ; ioSkill::IsCanUseThunderBirdHold
EXTRN	?IsCanUseLimitHP@ioSkill@@UBE_NPAVioBaseChar@@@Z:PROC ; ioSkill::IsCanUseLimitHP
EXTRN	?IsCanUseSkill@ioAttackSkill@@UAE_NPAVioBaseChar@@_N@Z:PROC ; ioAttackSkill::IsCanUseSkill
EXTRN	?IsOnOffEnable@ioSkill@@UAE_NXZ:PROC		; ioSkill::IsOnOffEnable
EXTRN	?IsCanDefenseStateSkill@ioSkill@@UAE_NXZ:PROC	; ioSkill::IsCanDefenseStateSkill
EXTRN	?SetDefenseStateSkill@ioSkill@@UAEXPAVioBaseChar@@@Z:PROC ; ioSkill::SetDefenseStateSkill
EXTRN	?HasBuff@ioSkill@@UBE_NH@Z:PROC			; ioSkill::HasBuff
EXTRN	?GetBuffType@ioSkill@@UAEHH@Z:PROC		; ioSkill::GetBuffType
EXTRN	?IsEnableReserve@ioSkill@@UBE_NXZ:PROC		; ioSkill::IsEnableReserve
EXTRN	?IsCharSkipState@ioSkill@@UBE?AW4SkillCharColType@@XZ:PROC ; ioSkill::IsCharSkipState
EXTRN	?IsEntityCollisionSkipState@ioSkill@@UBE_NXZ:PROC ; ioSkill::IsEntityCollisionSkipState
EXTRN	?IsEndState@ioSkill@@UBE_NXZ:PROC		; ioSkill::IsEndState
EXTRN	?IsJumpState@ioSkill@@UBE_NXZ:PROC		; ioSkill::IsJumpState
EXTRN	?IsDownState@ioSkill@@UBE_NXZ:PROC		; ioSkill::IsDownState
EXTRN	?IsCanSendControl@ioSkill@@UBE_NXZ:PROC		; ioSkill::IsCanSendControl
EXTRN	?IsSkipState@ioSkill@@UBE_NXZ:PROC		; ioSkill::IsSkipState
EXTRN	?GetSkillMoveRate@ioSkill@@UBEMXZ:PROC		; ioSkill::GetSkillMoveRate
EXTRN	?SetSkillGrapplingState@ioSkill@@UAE_NPAVioBaseChar@@ABVioHashString@@@Z:PROC ; ioSkill::SetSkillGrapplingState
EXTRN	?GetGrapplingTargetPos@ioSkill@@UAE?AUD3DXVECTOR3@@PAVioBaseChar@@0@Z:PROC ; ioSkill::GetGrapplingTargetPos
EXTRN	?GetGrapplingTargetPos@ioSkill@@UAE?AUD3DXVECTOR3@@PAVioBaseChar@@@Z:PROC ; ioSkill::GetGrapplingTargetPos
EXTRN	?GetSkillWoundGrapplingInfo@ioSkill@@UAE?AUGrapplingSkillWoundedInfo@@XZ:PROC ; ioSkill::GetSkillWoundGrapplingInfo
EXTRN	?SetCreateWeaponDependency@ioSkill@@UAEXPAVioBaseChar@@PAVioPlayStage@@@Z:PROC ; ioSkill::SetCreateWeaponDependency
EXTRN	?SetNextSkillState@ioSkill@@UAEXPAVioBaseChar@@PAVioWeapon@@@Z:PROC ; ioSkill::SetNextSkillState
EXTRN	?OnSkillEndByWounded@ioSkill@@UAEXPAVioBaseChar@@@Z:PROC ; ioSkill::OnSkillEndByWounded
EXTRN	?OnProcessNotUseSkill@ioSkill@@UAEXPAVioBaseChar@@PAVioPlayStage@@@Z:PROC ; ioSkill::OnProcessNotUseSkill
EXTRN	?OnSkillItemRelease@ioSkill@@UAEXPAVioBaseChar@@@Z:PROC ; ioSkill::OnSkillItemRelease
EXTRN	?ApplyEquipSlotSkillExtraInfo@ioSkill@@UAEXPAVioBaseChar@@PAVioPlayStage@@AAVSP2Packet@@@Z:PROC ; ioSkill::ApplyEquipSlotSkillExtraInfo
EXTRN	?ApplyExtraPassiveSkillInfo@ioSkill@@UAEXPAVioBaseChar@@PAVioPlayStage@@AAVSP2Packet@@@Z:PROC ; ioSkill::ApplyExtraPassiveSkillInfo
EXTRN	?StartPreDelayEffect@ioAttackSkill@@UAEXPAVioBaseChar@@@Z:PROC ; ioAttackSkill::StartPreDelayEffect
EXTRN	?EndPreDelayEffect@ioAttackSkill@@UAEXPAVioBaseChar@@@Z:PROC ; ioAttackSkill::EndPreDelayEffect
EXTRN	?IsUseAutoTargetValue@ioAttackSkill@@UAE_NXZ:PROC ; ioAttackSkill::IsUseAutoTargetValue
EXTRN	?IsAutoTargetDownState@ioSkill@@UAE_NXZ:PROC	; ioSkill::IsAutoTargetDownState
EXTRN	?CheckUseBuff@ioSkill@@UAE_NPAVioBaseChar@@@Z:PROC ; ioSkill::CheckUseBuff
EXTRN	?CheckUseItemMesh@ioSkill@@UAE_NXZ:PROC		; ioSkill::CheckUseItemMesh
EXTRN	?CheckUseActiveCount@ioSkill@@UAE_NXZ:PROC	; ioSkill::CheckUseActiveCount
EXTRN	?CheckAniRotate@ioSkill@@UAEXPAVioBaseChar@@@Z:PROC ; ioSkill::CheckAniRotate
EXTRN	?IsEnableDashCheck@ioSkill@@UAE_NPAVioBaseChar@@@Z:PROC ; ioSkill::IsEnableDashCheck
EXTRN	?IsEnableMultiActive@ioSkill@@UAE_NPAVioBaseChar@@@Z:PROC ; ioSkill::IsEnableMultiActive
EXTRN	?GetAutoTargetValue@ioSkill@@UAEXAAM00@Z:PROC	; ioSkill::GetAutoTargetValue
EXTRN	?GetSkillGravityRate@ioSkill@@UAEMXZ:PROC	; ioSkill::GetSkillGravityRate
EXTRN	?GetSkillMotionName@ioSkill@@UBEABVioHashString@@XZ:PROC ; ioSkill::GetSkillMotionName
EXTRN	?HasSkillMotion@ioSkill@@UBE_NXZ:PROC		; ioSkill::HasSkillMotion
EXTRN	?GetSkillMotionRate@ioSkill@@UBEMXZ:PROC	; ioSkill::GetSkillMotionRate
EXTRN	?IsPreDelayProtect@ioSkill@@UBE_NXZ:PROC	; ioSkill::IsPreDelayProtect
EXTRN	?GetPreDelayAniName@ioSkill@@UBEABVioHashString@@XZ:PROC ; ioSkill::GetPreDelayAniName
EXTRN	?GetPreDelayTime@ioSkill@@UBEKXZ:PROC		; ioSkill::GetPreDelayTime
EXTRN	?GetPreDelayOwnerEffect@ioSkill@@UBEABVioHashString@@XZ:PROC ; ioSkill::GetPreDelayOwnerEffect
EXTRN	?GetPreDelayOtherEffect@ioSkill@@UBEABVioHashString@@XZ:PROC ; ioSkill::GetPreDelayOtherEffect
EXTRN	?SetCancelSkill@ioSkill@@UAEXPAVioBaseChar@@@Z:PROC ; ioSkill::SetCancelSkill
EXTRN	?ClearAirJump@ioSkill@@MAEXXZ:PROC		; ioSkill::ClearAirJump
EXTRN	?SetAirJump@ioSkill@@MAEXPAVioBaseChar@@HM@Z:PROC ; ioSkill::SetAirJump
EXTRN	?CheckAirJump@ioSkill@@MAEXPAVioBaseChar@@@Z:PROC ; ioSkill::CheckAirJump
EXTRN	?UseActiveCount@ioSkill@@UAE_NPAVioBaseChar@@@Z:PROC ; ioSkill::UseActiveCount
EXTRN	?GetMaxActiveCount@ioSkill@@UAEHPAVioBaseChar@@@Z:PROC ; ioSkill::GetMaxActiveCount
EXTRN	?GetCurActiveCount@ioSkill@@UAEHPAVioBaseChar@@@Z:PROC ; ioSkill::GetCurActiveCount
EXTRN	?HideHPGauge@ioSkill@@UAE_NXZ:PROC		; ioSkill::HideHPGauge
EXTRN	?SetInfoByApplyWeapon@ioSkill@@UAEXPAVioBaseChar@@0K_N@Z:PROC ; ioSkill::SetInfoByApplyWeapon
EXTRN	?SetCollisionByApplySkill@ioSkill@@UAEXXZ:PROC	; ioSkill::SetCollisionByApplySkill
EXTRN	?SetChargingRateForWeapon@ioSkill@@UAEXPAVioWeapon@@@Z:PROC ; ioSkill::SetChargingRateForWeapon
EXTRN	?IsFixedExceptionCamera@ioSkill@@UAE_NXZ:PROC	; ioSkill::IsFixedExceptionCamera
EXTRN	??_EioTargetTimingAttackSkill@@UAEPAXI@Z:PROC	; ioTargetTimingAttackSkill::`vector deleting destructor'
EXTRN	?StartPreDelayAnimation@ioAttackSkill@@MAE_NPAVioBaseChar@@@Z:PROC ; ioAttackSkill::StartPreDelayAnimation
EXTRN	?AttackSkillFire@ioAttackSkill@@MAEXPAVioBaseChar@@@Z:PROC ; ioAttackSkill::AttackSkillFire
EXTRN	?GetAttackTimeRate@ioAttackSkill@@MBEMXZ:PROC	; ioAttackSkill::GetAttackTimeRate
EXTRN	?GetAttackEndTimeRate@ioAttackSkill@@MBEMXZ:PROC ; ioAttackSkill::GetAttackEndTimeRate
EXTRN	?LoadNormalAttribute@ioAttackSkill@@MAEXAAVioINILoader@@@Z:PROC ; ioAttackSkill::LoadNormalAttribute
EXTRN	?LoadDownAttribute@ioAttackSkill@@MAEXAAVioINILoader@@@Z:PROC ; ioAttackSkill::LoadDownAttribute
EXTRN	?LoadJumpAttribute@ioAttackSkill@@MAEXAAVioINILoader@@@Z:PROC ; ioAttackSkill::LoadJumpAttribute
EXTRN	?GetAttribute@ioAttackSkill@@UAEAAUAttackAttribute@@XZ:PROC ; ioAttackSkill::GetAttribute
EXTRN	?GetAttributeConst@ioAttackSkill@@UBEABUAttackAttribute@@XZ:PROC ; ioAttackSkill::GetAttributeConst
EXTRN	?IsCanStateEscape@ioAttackSkill@@UBE_NXZ:PROC	; ioAttackSkill::IsCanStateEscape
EXTRN	?IsCanStateEscapeOnStand@ioAttackSkill@@UBE_NPAVioBaseChar@@@Z:PROC ; ioAttackSkill::IsCanStateEscapeOnStand
EXTRN	?IsCanStateEscapeOnAir@ioAttackSkill@@UBE_NPAVioBaseChar@@@Z:PROC ; ioAttackSkill::IsCanStateEscapeOnAir
EXTRN	?IsCanStateEscapeOnDown@ioAttackSkill@@UBE_NPAVioBaseChar@@@Z:PROC ; ioAttackSkill::IsCanStateEscapeOnDown
;	COMDAT ??_R2ioSkill@@8
; File c:\program files (x86)\microsoft visual studio 10.0\vc\include\xmemory
rdata$r	SEGMENT
??_R2ioSkill@@8 DD FLAT:??_R1A@?0A@EA@ioSkill@@8	; ioSkill::`RTTI Base Class Array'
rdata$r	ENDS
;	COMDAT ??_R3ioSkill@@8
rdata$r	SEGMENT
??_R3ioSkill@@8 DD 00H					; ioSkill::`RTTI Class Hierarchy Descriptor'
	DD	00H
	DD	01H
	DD	FLAT:??_R2ioSkill@@8
rdata$r	ENDS
;	COMDAT ??_R0?AVioSkill@@@8
_DATA	SEGMENT
??_R0?AVioSkill@@@8 DD FLAT:??_7type_info@@6B@		; ioSkill `RTTI Type Descriptor'
	DD	00H
	DB	'.?AVioSkill@@', 00H
_DATA	ENDS
;	COMDAT ??_R1A@?0A@EA@ioSkill@@8
rdata$r	SEGMENT
??_R1A@?0A@EA@ioSkill@@8 DD FLAT:??_R0?AVioSkill@@@8	; ioSkill::`RTTI Base Class Descriptor at (0,-1,0,64)'
	DD	00H
	DD	00H
	DD	0ffffffffH
	DD	00H
	DD	040H
	DD	FLAT:??_R3ioSkill@@8
rdata$r	ENDS
;	COMDAT ??_R2ioAttackSkill@@8
rdata$r	SEGMENT
??_R2ioAttackSkill@@8 DD FLAT:??_R1A@?0A@EA@ioAttackSkill@@8 ; ioAttackSkill::`RTTI Base Class Array'
	DD	FLAT:??_R1A@?0A@EA@ioSkill@@8
rdata$r	ENDS
;	COMDAT ??_R3ioAttackSkill@@8
rdata$r	SEGMENT
??_R3ioAttackSkill@@8 DD 00H				; ioAttackSkill::`RTTI Class Hierarchy Descriptor'
	DD	00H
	DD	02H
	DD	FLAT:??_R2ioAttackSkill@@8
rdata$r	ENDS
;	COMDAT ??_R0?AVioAttackSkill@@@8
_DATA	SEGMENT
??_R0?AVioAttackSkill@@@8 DD FLAT:??_7type_info@@6B@	; ioAttackSkill `RTTI Type Descriptor'
	DD	00H
	DB	'.?AVioAttackSkill@@', 00H
_DATA	ENDS
;	COMDAT ??_R1A@?0A@EA@ioAttackSkill@@8
rdata$r	SEGMENT
??_R1A@?0A@EA@ioAttackSkill@@8 DD FLAT:??_R0?AVioAttackSkill@@@8 ; ioAttackSkill::`RTTI Base Class Descriptor at (0,-1,0,64)'
	DD	01H
	DD	00H
	DD	0ffffffffH
	DD	00H
	DD	040H
	DD	FLAT:??_R3ioAttackSkill@@8
rdata$r	ENDS
;	COMDAT ??_R1A@?0A@EA@ioTargetTimingAttackSkill@@8
rdata$r	SEGMENT
??_R1A@?0A@EA@ioTargetTimingAttackSkill@@8 DD FLAT:??_R0?AVioTargetTimingAttackSkill@@@8 ; ioTargetTimingAttackSkill::`RTTI Base Class Descriptor at (0,-1,0,64)'
	DD	02H
	DD	00H
	DD	0ffffffffH
	DD	00H
	DD	040H
	DD	FLAT:??_R3ioTargetTimingAttackSkill@@8
rdata$r	ENDS
;	COMDAT ??_R2ioTargetTimingAttackSkill@@8
rdata$r	SEGMENT
??_R2ioTargetTimingAttackSkill@@8 DD FLAT:??_R1A@?0A@EA@ioTargetTimingAttackSkill@@8 ; ioTargetTimingAttackSkill::`RTTI Base Class Array'
	DD	FLAT:??_R1A@?0A@EA@ioAttackSkill@@8
	DD	FLAT:??_R1A@?0A@EA@ioSkill@@8
rdata$r	ENDS
;	COMDAT ??_R3ioTargetTimingAttackSkill@@8
rdata$r	SEGMENT
??_R3ioTargetTimingAttackSkill@@8 DD 00H		; ioTargetTimingAttackSkill::`RTTI Class Hierarchy Descriptor'
	DD	00H
	DD	03H
	DD	FLAT:??_R2ioTargetTimingAttackSkill@@8
rdata$r	ENDS
;	COMDAT ??_R0?AVioTargetTimingAttackSkill@@@8
_DATA	SEGMENT
??_R0?AVioTargetTimingAttackSkill@@@8 DD FLAT:??_7type_info@@6B@ ; ioTargetTimingAttackSkill `RTTI Type Descriptor'
	DD	00H
	DB	'.?AVioTargetTimingAttackSkill@@', 00H
_DATA	ENDS
;	COMDAT ??_R4ioTargetTimingAttackSkill@@6B@
rdata$r	SEGMENT
??_R4ioTargetTimingAttackSkill@@6B@ DD 00H		; ioTargetTimingAttackSkill::`RTTI Complete Object Locator'
	DD	00H
	DD	00H
	DD	FLAT:??_R0?AVioTargetTimingAttackSkill@@@8
	DD	FLAT:??_R3ioTargetTimingAttackSkill@@8
rdata$r	ENDS
;	COMDAT ??_7ioTargetTimingAttackSkill@@6B@
CONST	SEGMENT
??_7ioTargetTimingAttackSkill@@6B@ DD FLAT:??_R4ioTargetTimingAttackSkill@@6B@ ; ioTargetTimingAttackSkill::`vftable'
	DD	FLAT:?LoadProperty@ioTargetTimingAttackSkill@@UAEXAAVioINILoader@@@Z
	DD	FLAT:?Clone@ioTargetTimingAttackSkill@@UAEPAVioSkill@@XZ
	DD	FLAT:?GetTypeID@ioAttackSkill@@UBEHXZ
	DD	FLAT:?IsProtected@ioTargetTimingAttackSkill@@UBE_NH@Z
	DD	FLAT:?IsCanSwitchSkill@ioSkill@@UBE_NXZ
	DD	FLAT:?IsCanSemiSwitchSkill@ioSkill@@UBE_NXZ
	DD	FLAT:?IsCanCancelBySkill@ioSkill@@UBE_NPAVioBaseChar@@AAH@Z
	DD	FLAT:?IsCanUseZeroHP@ioSkill@@UBE_NPAVioBaseChar@@@Z
	DD	FLAT:?IsCanUseSkillWithCrown@ioSkill@@UAE_NPAVioBaseChar@@@Z
	DD	FLAT:?IsCanUseBoss@ioSkill@@UBE_NPAVioBaseChar@@@Z
	DD	FLAT:?IsCanUseFootball@ioSkill@@UBE_NXZ
	DD	FLAT:?IsCanUseGangSiMode@ioSkill@@UBE_NXZ
	DD	FLAT:?IsCanUseByWeaponType@ioSkill@@UBE_NPAVioBaseChar@@@Z
	DD	FLAT:?IsCanUseThunderBirdHold@ioSkill@@UBE_NPAVioBaseChar@@@Z
	DD	FLAT:?IsCanUseLimitHP@ioSkill@@UBE_NPAVioBaseChar@@@Z
	DD	FLAT:?IsCanUseSkill@ioAttackSkill@@UAE_NPAVioBaseChar@@_N@Z
	DD	FLAT:?IsOnOffEnable@ioSkill@@UAE_NXZ
	DD	FLAT:?IsCanDefenseStateSkill@ioSkill@@UAE_NXZ
	DD	FLAT:?SetDefenseStateSkill@ioSkill@@UAEXPAVioBaseChar@@@Z
	DD	FLAT:?GetDefenseSkillBreakeType@ioSkill@@UBE?AW4DefenseBreakType@@XZ
	DD	FLAT:?HasBuff@ioSkill@@UBE_NH@Z
	DD	FLAT:?GetBuffType@ioSkill@@UAEHH@Z
	DD	FLAT:?IsEnableReserve@ioSkill@@UBE_NXZ
	DD	FLAT:?IsSkillMotionEnd@ioTargetTimingAttackSkill@@UBE_NKPAVioBaseChar@@@Z
	DD	FLAT:?IsCharSkipState@ioSkill@@UBE?AW4SkillCharColType@@XZ
	DD	FLAT:?IsEntityCollisionSkipState@ioSkill@@UBE_NXZ
	DD	FLAT:?GetSkillEndNextJumpAmt@ioSkill@@UBEMXZ
	DD	FLAT:?GetSkillEndNextLandRate@ioSkill@@UBEMXZ
	DD	FLAT:?GetSkillEndNextJumpMustEnable@ioSkill@@UAE?AW4SkillEndJumpType@@XZ
	DD	FLAT:?IsEndState@ioSkill@@UBE_NXZ
	DD	FLAT:?IsAttackEndState@ioTargetTimingAttackSkill@@UBE_NXZ
	DD	FLAT:?IsJumpState@ioSkill@@UBE_NXZ
	DD	FLAT:?IsDownState@ioSkill@@UBE_NXZ
	DD	FLAT:?IsNoDropState@ioTargetTimingAttackSkill@@UBE_NXZ
	DD	FLAT:?IsCanSendControl@ioSkill@@UBE_NXZ
	DD	FLAT:?IsSkipState@ioSkill@@UBE_NXZ
	DD	FLAT:?GetSkillMoveRate@ioSkill@@UBEMXZ
	DD	FLAT:?SetSkillGrapplingState@ioSkill@@UAE_NPAVioBaseChar@@ABVioHashString@@@Z
	DD	FLAT:?GetGrapplingTargetPos@ioSkill@@UAE?AUD3DXVECTOR3@@PAVioBaseChar@@0@Z
	DD	FLAT:?GetGrapplingTargetPos@ioSkill@@UAE?AUD3DXVECTOR3@@PAVioBaseChar@@@Z
	DD	FLAT:?EnableChangeGrapplingTargetPos@ioSkill@@UBE_NXZ
	DD	FLAT:?GetSkillWoundGrapplingInfo@ioSkill@@UAE?AUGrapplingSkillWoundedInfo@@XZ
	DD	FLAT:?SetCreateWeaponDependency@ioSkill@@UAEXPAVioBaseChar@@PAVioPlayStage@@@Z
	DD	FLAT:?SetNextSkillState@ioSkill@@UAEXPAVioBaseChar@@PAVioWeapon@@@Z
	DD	FLAT:?OnSkillStart@ioTargetTimingAttackSkill@@UAE_NPAVioBaseChar@@@Z
	DD	FLAT:?OnProcessState@ioTargetTimingAttackSkill@@UAEXPAVioBaseChar@@PAVioPlayStage@@@Z
	DD	FLAT:?OnSkillEndByWounded@ioSkill@@UAEXPAVioBaseChar@@@Z
	DD	FLAT:?OnSkillEnd@ioTargetTimingAttackSkill@@UAEXPAVioBaseChar@@@Z
	DD	FLAT:?OnProcessNotUseSkill@ioSkill@@UAEXPAVioBaseChar@@PAVioPlayStage@@@Z
	DD	FLAT:?OnSkillItemRelease@ioSkill@@UAEXPAVioBaseChar@@@Z
	DD	FLAT:?ApplyAttributeToWeapon@ioTargetTimingAttackSkill@@UAEXPAVioWeapon@@PAVioPlayStage@@@Z
	DD	FLAT:?ApplyExtraSkillInfo@ioTargetTimingAttackSkill@@UAEXPAVioBaseChar@@PAVioPlayStage@@AAVSP2Packet@@@Z
	DD	FLAT:?ApplyEquipSlotSkillExtraInfo@ioSkill@@UAEXPAVioBaseChar@@PAVioPlayStage@@AAVSP2Packet@@@Z
	DD	FLAT:?ApplyExtraPassiveSkillInfo@ioSkill@@UAEXPAVioBaseChar@@PAVioPlayStage@@AAVSP2Packet@@@Z
	DD	FLAT:?StartPreDelayEffect@ioAttackSkill@@UAEXPAVioBaseChar@@@Z
	DD	FLAT:?EndPreDelayEffect@ioAttackSkill@@UAEXPAVioBaseChar@@@Z
	DD	FLAT:?IsUseAutoTargetValue@ioAttackSkill@@UAE_NXZ
	DD	FLAT:?IsAutoTargetDownState@ioSkill@@UAE_NXZ
	DD	FLAT:?CheckUseBuff@ioSkill@@UAE_NPAVioBaseChar@@@Z
	DD	FLAT:?CheckUseItemMesh@ioSkill@@UAE_NXZ
	DD	FLAT:?CheckUseActiveCount@ioSkill@@UAE_NXZ
	DD	FLAT:?CheckAniRotate@ioSkill@@UAEXPAVioBaseChar@@@Z
	DD	FLAT:?IsEnableDashCheck@ioSkill@@UAE_NPAVioBaseChar@@@Z
	DD	FLAT:?IsEnableMultiActive@ioSkill@@UAE_NPAVioBaseChar@@@Z
	DD	FLAT:?IsInvisibleBottomCircle@ioSkill@@UAE_NPAVioBaseChar@@@Z
	DD	FLAT:?GetAutoTargetValue@ioSkill@@UAEXAAM00@Z
	DD	FLAT:?IsCanJumpingSkill@ioSkill@@UBE_NXZ
	DD	FLAT:?IsCanJumpingSkillOnBlowWound@ioSkill@@UBE_NXZ
	DD	FLAT:?IsCanDownSkill@ioSkill@@UBE_NXZ
	DD	FLAT:?IsCanBlowWoundSkill@ioSkill@@UBE_NXZ
	DD	FLAT:?IsCanWoundSkill@ioSkill@@UBE_NXZ
	DD	FLAT:?GetSkillGravityRate@ioSkill@@UAEMXZ
	DD	FLAT:?GetSkillMotionName@ioSkill@@UBEABVioHashString@@XZ
	DD	FLAT:?HasSkillMotion@ioSkill@@UBE_NXZ
	DD	FLAT:?GetSkillMotionRate@ioSkill@@UBEMXZ
	DD	FLAT:?IsPreDelayProtect@ioSkill@@UBE_NXZ
	DD	FLAT:?GetPreDelayAniName@ioSkill@@UBEABVioHashString@@XZ
	DD	FLAT:?GetPreDelayTime@ioSkill@@UBEKXZ
	DD	FLAT:?GetPreDelayOwnerEffect@ioSkill@@UBEABVioHashString@@XZ
	DD	FLAT:?GetPreDelayOtherEffect@ioSkill@@UBEABVioHashString@@XZ
	DD	FLAT:?SetCancelSkill@ioSkill@@UAEXPAVioBaseChar@@@Z
	DD	FLAT:?ClearAirJump@ioSkill@@MAEXXZ
	DD	FLAT:?SetAirJump@ioSkill@@MAEXPAVioBaseChar@@HM@Z
	DD	FLAT:?CheckAirJump@ioSkill@@MAEXPAVioBaseChar@@@Z
	DD	FLAT:?UseActiveCount@ioSkill@@UAE_NPAVioBaseChar@@@Z
	DD	FLAT:?GetMaxActiveCount@ioSkill@@UAEHPAVioBaseChar@@@Z
	DD	FLAT:?GetCurActiveCount@ioSkill@@UAEHPAVioBaseChar@@@Z
	DD	FLAT:?HideHPGauge@ioSkill@@UAE_NXZ
	DD	FLAT:?SetInfoByApplyWeapon@ioSkill@@UAEXPAVioBaseChar@@0K_N@Z
	DD	FLAT:?SetCollisionByApplySkill@ioSkill@@UAEXXZ
	DD	FLAT:?SetChargingRateForWeapon@ioSkill@@UAEXPAVioWeapon@@@Z
	DD	FLAT:?CheckExceptionCamera@ioTargetTimingAttackSkill@@UAE_NXZ
	DD	FLAT:?GetExceptionCameraPos@ioTargetTimingAttackSkill@@UAE?AUD3DXVECTOR3@@PAVioBaseChar@@@Z
	DD	FLAT:?IsFixedExceptionCamera@ioSkill@@UAE_NXZ
	DD	FLAT:?IsUseActiveCnt@ioSkill@@UBE_NXZ
	DD	FLAT:?GetMaxActiveCnt@ioSkill@@UBEHPAVioBaseChar@@@Z
	DD	FLAT:?GetCurActiveCnt@ioSkill@@UBEHPAVioBaseChar@@@Z
	DD	FLAT:??_EioTargetTimingAttackSkill@@UAEPAXI@Z
	DD	FLAT:?StartPreDelayAnimation@ioAttackSkill@@MAE_NPAVioBaseChar@@@Z
	DD	FLAT:?AttackSkillFire@ioAttackSkill@@MAEXPAVioBaseChar@@@Z
	DD	FLAT:?GetAttackTimeRate@ioAttackSkill@@MBEMXZ
	DD	FLAT:?GetAttackEndTimeRate@ioAttackSkill@@MBEMXZ
	DD	FLAT:?LoadNormalAttribute@ioAttackSkill@@MAEXAAVioINILoader@@@Z
	DD	FLAT:?LoadDownAttribute@ioAttackSkill@@MAEXAAVioINILoader@@@Z
	DD	FLAT:?LoadJumpAttribute@ioAttackSkill@@MAEXAAVioINILoader@@@Z
	DD	FLAT:?GetAttribute@ioAttackSkill@@UAEAAUAttackAttribute@@XZ
	DD	FLAT:?GetAttributeConst@ioAttackSkill@@UBEABUAttackAttribute@@XZ
	DD	FLAT:?IsCanStateEscape@ioAttackSkill@@UBE_NXZ
	DD	FLAT:?IsCanStateEscapeOnStand@ioAttackSkill@@UBE_NPAVioBaseChar@@@Z
	DD	FLAT:?IsCanStateEscapeOnAir@ioAttackSkill@@UBE_NPAVioBaseChar@@@Z
	DD	FLAT:?IsCanStateEscapeOnDown@ioAttackSkill@@UBE_NPAVioBaseChar@@@Z
CONST	ENDS
;	COMDAT xdata$x
xdata$x	SEGMENT
__ehfuncinfo$??0ioTargetTimingAttackSkill@@QAE@XZ DD 019930522H
	DD	0dH
	DD	FLAT:__unwindtable$??0ioTargetTimingAttackSkill@@QAE@XZ
	DD	2 DUP(00H)
	DD	2 DUP(00H)
	DD	00H
	DD	01H
__unwindtable$??0ioTargetTimingAttackSkill@@QAE@XZ DD 0ffffffffH
	DD	FLAT:__unwindfunclet$??0ioTargetTimingAttackSkill@@QAE@XZ$0
	DD	00H
	DD	FLAT:__unwindfunclet$??0ioTargetTimingAttackSkill@@QAE@XZ$1
	DD	01H
	DD	FLAT:__unwindfunclet$??0ioTargetTimingAttackSkill@@QAE@XZ$2
	DD	02H
	DD	FLAT:__unwindfunclet$??0ioTargetTimingAttackSkill@@QAE@XZ$3
	DD	03H
	DD	FLAT:__unwindfunclet$??0ioTargetTimingAttackSkill@@QAE@XZ$4
	DD	04H
	DD	FLAT:__unwindfunclet$??0ioTargetTimingAttackSkill@@QAE@XZ$5
	DD	05H
	DD	FLAT:__unwindfunclet$??0ioTargetTimingAttackSkill@@QAE@XZ$6
	DD	06H
	DD	FLAT:__unwindfunclet$??0ioTargetTimingAttackSkill@@QAE@XZ$7
	DD	07H
	DD	FLAT:__unwindfunclet$??0ioTargetTimingAttackSkill@@QAE@XZ$8
	DD	08H
	DD	FLAT:__unwindfunclet$??0ioTargetTimingAttackSkill@@QAE@XZ$9
	DD	09H
	DD	FLAT:__unwindfunclet$??0ioTargetTimingAttackSkill@@QAE@XZ$10
	DD	0aH
	DD	FLAT:__unwindfunclet$??0ioTargetTimingAttackSkill@@QAE@XZ$11
	DD	0bH
	DD	FLAT:__unwindfunclet$??0ioTargetTimingAttackSkill@@QAE@XZ$12
; Function compile flags: /Ogsp
; File d:\lost saga for developer\youtube\tutorial\source\src\lsclient\iotargettimingattackskill.cpp
xdata$x	ENDS
;	COMDAT ??0ioTargetTimingAttackSkill@@QAE@XZ
_TEXT	SEGMENT
_this$ = -16						; size = 4
__$EHRec$ = -12						; size = 12
??0ioTargetTimingAttackSkill@@QAE@XZ PROC		; ioTargetTimingAttackSkill::ioTargetTimingAttackSkill, COMDAT
; _this$ = ecx

; 12   : {

  00000	6a 04		 push	 4
  00002	b8 00 00 00 00	 mov	 eax, __ehhandler$??0ioTargetTimingAttackSkill@@QAE@XZ
  00007	e8 00 00 00 00	 call	 __EH_prolog3
  0000c	8b f1		 mov	 esi, ecx
  0000e	89 75 f0	 mov	 DWORD PTR _this$[ebp], esi
  00011	e8 00 00 00 00	 call	 ??0ioAttackSkill@@QAE@XZ ; ioAttackSkill::ioAttackSkill
  00016	8b 3d 00 00 00
	00		 mov	 edi, DWORD PTR __imp_??0ioHashString@@QAE@XZ
  0001c	83 65 fc 00	 and	 DWORD PTR __$EHRec$[ebp+8], 0
  00020	8d 8e e8 10 00
	00		 lea	 ecx, DWORD PTR [esi+4328]
  00026	c7 06 00 00 00
	00		 mov	 DWORD PTR [esi], OFFSET ??_7ioTargetTimingAttackSkill@@6B@
  0002c	ff d7		 call	 edi
  0002e	8d 8e fc 10 00
	00		 lea	 ecx, DWORD PTR [esi+4348]
  00034	c6 45 fc 01	 mov	 BYTE PTR __$EHRec$[ebp+8], 1
  00038	ff d7		 call	 edi
  0003a	8d 8e 10 11 00
	00		 lea	 ecx, DWORD PTR [esi+4368]
  00040	c6 45 fc 02	 mov	 BYTE PTR __$EHRec$[ebp+8], 2
  00044	ff d7		 call	 edi
  00046	8d 8e 24 11 00
	00		 lea	 ecx, DWORD PTR [esi+4388]
  0004c	c6 45 fc 03	 mov	 BYTE PTR __$EHRec$[ebp+8], 3
  00050	e8 00 00 00 00	 call	 ??0AttackAttribute@@QAE@XZ ; AttackAttribute::AttackAttribute
  00055	8d 8e 74 11 00
	00		 lea	 ecx, DWORD PTR [esi+4468]
  0005b	c6 45 fc 04	 mov	 BYTE PTR __$EHRec$[ebp+8], 4
  0005f	e8 00 00 00 00	 call	 ??0AttackAttribute@@QAE@XZ ; AttackAttribute::AttackAttribute
  00064	8d 8e c4 11 00
	00		 lea	 ecx, DWORD PTR [esi+4548]
  0006a	c6 45 fc 05	 mov	 BYTE PTR __$EHRec$[ebp+8], 5
  0006e	e8 00 00 00 00	 call	 ??0AttackAttribute@@QAE@XZ ; AttackAttribute::AttackAttribute
  00073	8d 8e 14 12 00
	00		 lea	 ecx, DWORD PTR [esi+4628]
  00079	c6 45 fc 06	 mov	 BYTE PTR __$EHRec$[ebp+8], 6
  0007d	e8 00 00 00 00	 call	 ??0AttackAttribute@@QAE@XZ ; AttackAttribute::AttackAttribute
  00082	8d 8e 64 12 00
	00		 lea	 ecx, DWORD PTR [esi+4708]
  00088	c6 45 fc 07	 mov	 BYTE PTR __$EHRec$[ebp+8], 7
  0008c	e8 00 00 00 00	 call	 ??0AttackAttribute@@QAE@XZ ; AttackAttribute::AttackAttribute
  00091	8d 8e b4 12 00
	00		 lea	 ecx, DWORD PTR [esi+4788]
  00097	c6 45 fc 08	 mov	 BYTE PTR __$EHRec$[ebp+8], 8
  0009b	e8 00 00 00 00	 call	 ??0AttackAttribute@@QAE@XZ ; AttackAttribute::AttackAttribute
  000a0	8d 8e 3c 13 00
	00		 lea	 ecx, DWORD PTR [esi+4924]
  000a6	c6 45 fc 09	 mov	 BYTE PTR __$EHRec$[ebp+8], 9
  000aa	ff d7		 call	 edi
  000ac	83 a6 64 13 00
	00 00		 and	 DWORD PTR [esi+4964], 0
  000b3	83 a6 68 13 00
	00 00		 and	 DWORD PTR [esi+4968], 0
  000ba	83 a6 6c 13 00
	00 00		 and	 DWORD PTR [esi+4972], 0
  000c1	8d 8e 7c 13 00
	00		 lea	 ecx, DWORD PTR [esi+4988]
  000c7	c6 45 fc 0b	 mov	 BYTE PTR __$EHRec$[ebp+8], 11 ; 0000000bH
  000cb	e8 00 00 00 00	 call	 ??0AttackAttribute@@QAE@XZ ; AttackAttribute::AttackAttribute

; 13   : 	InitData();

  000d0	8b ce		 mov	 ecx, esi
  000d2	c6 45 fc 0c	 mov	 BYTE PTR __$EHRec$[ebp+8], 12 ; 0000000cH
  000d6	e8 00 00 00 00	 call	 ?InitData@ioTargetTimingAttackSkill@@IAEXXZ ; ioTargetTimingAttackSkill::InitData

; 14   : }

  000db	8b c6		 mov	 eax, esi
  000dd	e8 00 00 00 00	 call	 __EH_epilog3
  000e2	c3		 ret	 0
_TEXT	ENDS
;	COMDAT text$x
text$x	SEGMENT
__unwindfunclet$??0ioTargetTimingAttackSkill@@QAE@XZ$0:
  00000	8b 4d f0	 mov	 ecx, DWORD PTR _this$[ebp]
  00003	e9 00 00 00 00	 jmp	 ??1ioAttackSkill@@UAE@XZ ; ioAttackSkill::~ioAttackSkill
__unwindfunclet$??0ioTargetTimingAttackSkill@@QAE@XZ$1:
  00008	8b 4d f0	 mov	 ecx, DWORD PTR _this$[ebp]
  0000b	81 c1 e8 10 00
	00		 add	 ecx, 4328		; 000010e8H
  00011	ff 25 00 00 00
	00		 jmp	 DWORD PTR __imp_??1ioHashString@@QAE@XZ
__unwindfunclet$??0ioTargetTimingAttackSkill@@QAE@XZ$2:
  00017	8b 4d f0	 mov	 ecx, DWORD PTR _this$[ebp]
  0001a	81 c1 fc 10 00
	00		 add	 ecx, 4348		; 000010fcH
  00020	ff 25 00 00 00
	00		 jmp	 DWORD PTR __imp_??1ioHashString@@QAE@XZ
__unwindfunclet$??0ioTargetTimingAttackSkill@@QAE@XZ$3:
  00026	8b 4d f0	 mov	 ecx, DWORD PTR _this$[ebp]
  00029	81 c1 10 11 00
	00		 add	 ecx, 4368		; 00001110H
  0002f	ff 25 00 00 00
	00		 jmp	 DWORD PTR __imp_??1ioHashString@@QAE@XZ
__unwindfunclet$??0ioTargetTimingAttackSkill@@QAE@XZ$4:
  00035	8b 4d f0	 mov	 ecx, DWORD PTR _this$[ebp]
  00038	81 c1 24 11 00
	00		 add	 ecx, 4388		; 00001124H
  0003e	e9 00 00 00 00	 jmp	 ??1AttackAttribute@@QAE@XZ
__unwindfunclet$??0ioTargetTimingAttackSkill@@QAE@XZ$5:
  00043	8b 4d f0	 mov	 ecx, DWORD PTR _this$[ebp]
  00046	81 c1 74 11 00
	00		 add	 ecx, 4468		; 00001174H
  0004c	e9 00 00 00 00	 jmp	 ??1AttackAttribute@@QAE@XZ
__unwindfunclet$??0ioTargetTimingAttackSkill@@QAE@XZ$6:
  00051	8b 4d f0	 mov	 ecx, DWORD PTR _this$[ebp]
  00054	81 c1 c4 11 00
	00		 add	 ecx, 4548		; 000011c4H
  0005a	e9 00 00 00 00	 jmp	 ??1AttackAttribute@@QAE@XZ
__unwindfunclet$??0ioTargetTimingAttackSkill@@QAE@XZ$7:
  0005f	8b 4d f0	 mov	 ecx, DWORD PTR _this$[ebp]
  00062	81 c1 14 12 00
	00		 add	 ecx, 4628		; 00001214H
  00068	e9 00 00 00 00	 jmp	 ??1AttackAttribute@@QAE@XZ
__unwindfunclet$??0ioTargetTimingAttackSkill@@QAE@XZ$8:
  0006d	8b 4d f0	 mov	 ecx, DWORD PTR _this$[ebp]
  00070	81 c1 64 12 00
	00		 add	 ecx, 4708		; 00001264H
  00076	e9 00 00 00 00	 jmp	 ??1AttackAttribute@@QAE@XZ
__unwindfunclet$??0ioTargetTimingAttackSkill@@QAE@XZ$9:
  0007b	8b 4d f0	 mov	 ecx, DWORD PTR _this$[ebp]
  0007e	81 c1 b4 12 00
	00		 add	 ecx, 4788		; 000012b4H
  00084	e9 00 00 00 00	 jmp	 ??1AttackAttribute@@QAE@XZ
__unwindfunclet$??0ioTargetTimingAttackSkill@@QAE@XZ$10:
  00089	8b 4d f0	 mov	 ecx, DWORD PTR _this$[ebp]
  0008c	81 c1 3c 13 00
	00		 add	 ecx, 4924		; 0000133cH
  00092	ff 25 00 00 00
	00		 jmp	 DWORD PTR __imp_??1ioHashString@@QAE@XZ
__unwindfunclet$??0ioTargetTimingAttackSkill@@QAE@XZ$11:
  00098	8b 4d f0	 mov	 ecx, DWORD PTR _this$[ebp]
  0009b	81 c1 64 13 00
	00		 add	 ecx, 4964		; 00001364H
  000a1	e9 00 00 00 00	 jmp	 ??1?$vector@UtagBaseCharHP@@V?$allocator@UtagBaseCharHP@@@std@@@std@@QAE@XZ ; std::vector<tagBaseCharHP,std::allocator<tagBaseCharHP> >::~vector<tagBaseCharHP,std::allocator<tagBaseCharHP> >
__unwindfunclet$??0ioTargetTimingAttackSkill@@QAE@XZ$12:
  000a6	8b 4d f0	 mov	 ecx, DWORD PTR _this$[ebp]
  000a9	81 c1 7c 13 00
	00		 add	 ecx, 4988		; 0000137cH
  000af	e9 00 00 00 00	 jmp	 ??1AttackAttribute@@QAE@XZ
__ehhandler$??0ioTargetTimingAttackSkill@@QAE@XZ:
  000b4	8b 54 24 08	 mov	 edx, DWORD PTR [esp+8]
  000b8	8d 42 0c	 lea	 eax, DWORD PTR [edx+12]
  000bb	8b 4a ec	 mov	 ecx, DWORD PTR [edx-20]
  000be	33 c8		 xor	 ecx, eax
  000c0	e8 00 00 00 00	 call	 @__security_check_cookie@4
  000c5	b8 00 00 00 00	 mov	 eax, OFFSET __ehfuncinfo$??0ioTargetTimingAttackSkill@@QAE@XZ
  000ca	e9 00 00 00 00	 jmp	 ___CxxFrameHandler3
text$x	ENDS
??0ioTargetTimingAttackSkill@@QAE@XZ ENDP		; ioTargetTimingAttackSkill::ioTargetTimingAttackSkill
; Function compile flags: /Ogsp
; File d:\lost saga for developer\youtube\tutorial\source\src\lsclient\ioskill.h
;	COMDAT ?GetDefenseSkillBreakeType@ioSkill@@UBE?AW4DefenseBreakType@@XZ
_TEXT	SEGMENT
?GetDefenseSkillBreakeType@ioSkill@@UBE?AW4DefenseBreakType@@XZ PROC ; ioSkill::GetDefenseSkillBreakeType, COMDAT
; _this$ = ecx

; 327  : 	virtual DefenseBreakType GetDefenseSkillBreakeType() const { return m_eDefenseSkillBreakType; }

  00000	8b 81 30 0e 00
	00		 mov	 eax, DWORD PTR [ecx+3632]
  00006	c3		 ret	 0
?GetDefenseSkillBreakeType@ioSkill@@UBE?AW4DefenseBreakType@@XZ ENDP ; ioSkill::GetDefenseSkillBreakeType
; Function compile flags: /Ogsp
_TEXT	ENDS
;	COMDAT ?GetSkillEndNextJumpAmt@ioSkill@@UBEMXZ
_TEXT	SEGMENT
?GetSkillEndNextJumpAmt@ioSkill@@UBEMXZ PROC		; ioSkill::GetSkillEndNextJumpAmt, COMDAT
; _this$ = ecx

; 335  : 	virtual float GetSkillEndNextJumpAmt() const { return m_fSkillEndNextJumpAmt; }

  00000	d9 81 4c 05 00
	00		 fld	 DWORD PTR [ecx+1356]
  00006	c3		 ret	 0
?GetSkillEndNextJumpAmt@ioSkill@@UBEMXZ ENDP		; ioSkill::GetSkillEndNextJumpAmt
; Function compile flags: /Ogsp
_TEXT	ENDS
;	COMDAT ?GetSkillEndNextLandRate@ioSkill@@UBEMXZ
_TEXT	SEGMENT
?GetSkillEndNextLandRate@ioSkill@@UBEMXZ PROC		; ioSkill::GetSkillEndNextLandRate, COMDAT
; _this$ = ecx

; 336  : 	virtual float GetSkillEndNextLandRate() const { return m_fSkillEndNextLandRate; }

  00000	d9 81 50 05 00
	00		 fld	 DWORD PTR [ecx+1360]
  00006	c3		 ret	 0
?GetSkillEndNextLandRate@ioSkill@@UBEMXZ ENDP		; ioSkill::GetSkillEndNextLandRate
; Function compile flags: /Ogsp
_TEXT	ENDS
;	COMDAT ?GetSkillEndNextJumpMustEnable@ioSkill@@UAE?AW4SkillEndJumpType@@XZ
_TEXT	SEGMENT
?GetSkillEndNextJumpMustEnable@ioSkill@@UAE?AW4SkillEndJumpType@@XZ PROC ; ioSkill::GetSkillEndNextJumpMustEnable, COMDAT
; _this$ = ecx

; 337  : 	virtual SkillEndJumpType GetSkillEndNextJumpMustEnable(){ return SEJT_DEFAULT; }

  00000	33 c0		 xor	 eax, eax
  00002	c3		 ret	 0
?GetSkillEndNextJumpMustEnable@ioSkill@@UAE?AW4SkillEndJumpType@@XZ ENDP ; ioSkill::GetSkillEndNextJumpMustEnable
; Function compile flags: /Ogsp
_TEXT	ENDS
;	COMDAT ?EnableChangeGrapplingTargetPos@ioSkill@@UBE_NXZ
_TEXT	SEGMENT
?EnableChangeGrapplingTargetPos@ioSkill@@UBE_NXZ PROC	; ioSkill::EnableChangeGrapplingTargetPos, COMDAT
; _this$ = ecx

; 355  : 	virtual bool EnableChangeGrapplingTargetPos() const { return m_bChangeGrapplingTargetPos; }

  00000	8a 81 40 09 00
	00		 mov	 al, BYTE PTR [ecx+2368]
  00006	c3		 ret	 0
?EnableChangeGrapplingTargetPos@ioSkill@@UBE_NXZ ENDP	; ioSkill::EnableChangeGrapplingTargetPos
; Function compile flags: /Ogsp
_TEXT	ENDS
;	COMDAT ?IsInvisibleBottomCircle@ioSkill@@UAE_NPAVioBaseChar@@@Z
_TEXT	SEGMENT
_pChar$ = 8						; size = 4
?IsInvisibleBottomCircle@ioSkill@@UAE_NPAVioBaseChar@@@Z PROC ; ioSkill::IsInvisibleBottomCircle, COMDAT
; _this$ = ecx

; 393  : 	virtual bool IsInvisibleBottomCircle( ioBaseChar *pChar ) { return false; }

  00000	32 c0		 xor	 al, al
  00002	c2 04 00	 ret	 4
?IsInvisibleBottomCircle@ioSkill@@UAE_NPAVioBaseChar@@@Z ENDP ; ioSkill::IsInvisibleBottomCircle
; Function compile flags: /Ogsp
_TEXT	ENDS
;	COMDAT ?IsUseActiveCnt@ioSkill@@UBE_NXZ
_TEXT	SEGMENT
?IsUseActiveCnt@ioSkill@@UBE_NXZ PROC			; ioSkill::IsUseActiveCnt, COMDAT
; _this$ = ecx

; 544  : 	virtual bool IsUseActiveCnt() const { return false; }

  00000	32 c0		 xor	 al, al
  00002	c3		 ret	 0
?IsUseActiveCnt@ioSkill@@UBE_NXZ ENDP			; ioSkill::IsUseActiveCnt
; Function compile flags: /Ogsp
_TEXT	ENDS
;	COMDAT ?GetMaxActiveCnt@ioSkill@@UBEHPAVioBaseChar@@@Z
_TEXT	SEGMENT
_pChar$ = 8						; size = 4
?GetMaxActiveCnt@ioSkill@@UBEHPAVioBaseChar@@@Z PROC	; ioSkill::GetMaxActiveCnt, COMDAT
; _this$ = ecx

; 545  : 	virtual int GetMaxActiveCnt( ioBaseChar *pChar ) const { return 0; }

  00000	33 c0		 xor	 eax, eax
  00002	c2 04 00	 ret	 4
?GetMaxActiveCnt@ioSkill@@UBEHPAVioBaseChar@@@Z ENDP	; ioSkill::GetMaxActiveCnt
; Function compile flags: /Ogsp
_TEXT	ENDS
;	COMDAT ?GetCurActiveCnt@ioSkill@@UBEHPAVioBaseChar@@@Z
_TEXT	SEGMENT
_pChar$ = 8						; size = 4
?GetCurActiveCnt@ioSkill@@UBEHPAVioBaseChar@@@Z PROC	; ioSkill::GetCurActiveCnt, COMDAT
; _this$ = ecx

; 546  : 	virtual int GetCurActiveCnt( ioBaseChar *pChar ) const { return 0; }

  00000	33 c0		 xor	 eax, eax
  00002	c2 04 00	 ret	 4
?GetCurActiveCnt@ioSkill@@UBEHPAVioBaseChar@@@Z ENDP	; ioSkill::GetCurActiveCnt
; Function compile flags: /Ogsp
_TEXT	ENDS
;	COMDAT ?IsCanJumpingSkill@ioSkill@@UBE_NXZ
_TEXT	SEGMENT
_value$561580 = -1					; size = 1
?IsCanJumpingSkill@ioSkill@@UBE_NXZ PROC		; ioSkill::IsCanJumpingSkill, COMDAT
; _this$ = ecx

; 431  : 	virtual bool IsCanJumpingSkill() const { return m_bEnableJumpingSkill; }

  00000	55		 push	 ebp
  00001	8b ec		 mov	 ebp, esp
  00003	51		 push	 ecx
  00004	8d 45 ff	 lea	 eax, DWORD PTR _value$561580[ebp]
  00007	50		 push	 eax
  00008	81 c1 9c 03 00
	00		 add	 ecx, 924		; 0000039cH
  0000e	e8 00 00 00 00	 call	 ?DecryptValueToPool@?$CEncrypt@_N@@QAEXPA_N@Z ; CEncrypt<bool>::DecryptValueToPool
  00013	8a 45 ff	 mov	 al, BYTE PTR _value$561580[ebp]
  00016	c9		 leave
  00017	c3		 ret	 0
?IsCanJumpingSkill@ioSkill@@UBE_NXZ ENDP		; ioSkill::IsCanJumpingSkill
; Function compile flags: /Ogsp
_TEXT	ENDS
;	COMDAT ?IsCanJumpingSkillOnBlowWound@ioSkill@@UBE_NXZ
_TEXT	SEGMENT
_value$561587 = -1					; size = 1
?IsCanJumpingSkillOnBlowWound@ioSkill@@UBE_NXZ PROC	; ioSkill::IsCanJumpingSkillOnBlowWound, COMDAT
; _this$ = ecx

; 432  : 	virtual bool IsCanJumpingSkillOnBlowWound() const { return m_bEnableJumpingSkillOnBlowWound; }

  00000	55		 push	 ebp
  00001	8b ec		 mov	 ebp, esp
  00003	51		 push	 ecx
  00004	8d 45 ff	 lea	 eax, DWORD PTR _value$561587[ebp]
  00007	50		 push	 eax
  00008	81 c1 cc 03 00
	00		 add	 ecx, 972		; 000003ccH
  0000e	e8 00 00 00 00	 call	 ?DecryptValueToPool@?$CEncrypt@_N@@QAEXPA_N@Z ; CEncrypt<bool>::DecryptValueToPool
  00013	8a 45 ff	 mov	 al, BYTE PTR _value$561587[ebp]
  00016	c9		 leave
  00017	c3		 ret	 0
?IsCanJumpingSkillOnBlowWound@ioSkill@@UBE_NXZ ENDP	; ioSkill::IsCanJumpingSkillOnBlowWound
; Function compile flags: /Ogsp
_TEXT	ENDS
;	COMDAT ?IsCanDownSkill@ioSkill@@UBE_NXZ
_TEXT	SEGMENT
_value$561594 = -1					; size = 1
?IsCanDownSkill@ioSkill@@UBE_NXZ PROC			; ioSkill::IsCanDownSkill, COMDAT
; _this$ = ecx

; 437  : 	virtual bool IsCanDownSkill() const { return m_bEnableDownSkill; }

  00000	55		 push	 ebp
  00001	8b ec		 mov	 ebp, esp
  00003	51		 push	 ecx
  00004	8d 45 ff	 lea	 eax, DWORD PTR _value$561594[ebp]
  00007	50		 push	 eax
  00008	81 c1 5c 04 00
	00		 add	 ecx, 1116		; 0000045cH
  0000e	e8 00 00 00 00	 call	 ?DecryptValueToPool@?$CEncrypt@_N@@QAEXPA_N@Z ; CEncrypt<bool>::DecryptValueToPool
  00013	8a 45 ff	 mov	 al, BYTE PTR _value$561594[ebp]
  00016	c9		 leave
  00017	c3		 ret	 0
?IsCanDownSkill@ioSkill@@UBE_NXZ ENDP			; ioSkill::IsCanDownSkill
; Function compile flags: /Ogsp
_TEXT	ENDS
;	COMDAT ?IsCanBlowWoundSkill@ioSkill@@UBE_NXZ
_TEXT	SEGMENT
_value$561601 = -1					; size = 1
?IsCanBlowWoundSkill@ioSkill@@UBE_NXZ PROC		; ioSkill::IsCanBlowWoundSkill, COMDAT
; _this$ = ecx

; 440  : 	virtual bool IsCanBlowWoundSkill() const { return m_bEnableBlowWoundSkill; }

  00000	55		 push	 ebp
  00001	8b ec		 mov	 ebp, esp
  00003	51		 push	 ecx
  00004	8d 45 ff	 lea	 eax, DWORD PTR _value$561601[ebp]
  00007	50		 push	 eax
  00008	81 c1 8c 04 00
	00		 add	 ecx, 1164		; 0000048cH
  0000e	e8 00 00 00 00	 call	 ?DecryptValueToPool@?$CEncrypt@_N@@QAEXPA_N@Z ; CEncrypt<bool>::DecryptValueToPool
  00013	8a 45 ff	 mov	 al, BYTE PTR _value$561601[ebp]
  00016	c9		 leave
  00017	c3		 ret	 0
?IsCanBlowWoundSkill@ioSkill@@UBE_NXZ ENDP		; ioSkill::IsCanBlowWoundSkill
; Function compile flags: /Ogsp
_TEXT	ENDS
;	COMDAT ?IsCanWoundSkill@ioSkill@@UBE_NXZ
_TEXT	SEGMENT
_value$561608 = -1					; size = 1
?IsCanWoundSkill@ioSkill@@UBE_NXZ PROC			; ioSkill::IsCanWoundSkill, COMDAT
; _this$ = ecx

; 446  : 	virtual bool IsCanWoundSkill() const { return m_bEnableWoundSkill; }

  00000	55		 push	 ebp
  00001	8b ec		 mov	 ebp, esp
  00003	51		 push	 ecx
  00004	8d 45 ff	 lea	 eax, DWORD PTR _value$561608[ebp]
  00007	50		 push	 eax
  00008	81 c1 54 05 00
	00		 add	 ecx, 1364		; 00000554H
  0000e	e8 00 00 00 00	 call	 ?DecryptValueToPool@?$CEncrypt@_N@@QAEXPA_N@Z ; CEncrypt<bool>::DecryptValueToPool
  00013	8a 45 ff	 mov	 al, BYTE PTR _value$561608[ebp]
  00016	c9		 leave
  00017	c3		 ret	 0
?IsCanWoundSkill@ioSkill@@UBE_NXZ ENDP			; ioSkill::IsCanWoundSkill
_TEXT	ENDS
PUBLIC	??0ioTargetTimingAttackSkill@@QAE@ABV0@@Z	; ioTargetTimingAttackSkill::ioTargetTimingAttackSkill
EXTRN	??0ioAttackSkill@@QAE@ABV0@@Z:PROC		; ioAttackSkill::ioAttackSkill
;	COMDAT xdata$x
; File c:\program files (x86)\microsoft visual studio 10.0\vc\include\xmemory
xdata$x	SEGMENT
__ehfuncinfo$??0ioTargetTimingAttackSkill@@QAE@ABV0@@Z DD 019930522H
	DD	0dH
	DD	FLAT:__unwindtable$??0ioTargetTimingAttackSkill@@QAE@ABV0@@Z
	DD	2 DUP(00H)
	DD	2 DUP(00H)
	DD	00H
	DD	01H
__unwindtable$??0ioTargetTimingAttackSkill@@QAE@ABV0@@Z DD 0ffffffffH
	DD	FLAT:__unwindfunclet$??0ioTargetTimingAttackSkill@@QAE@ABV0@@Z$0
	DD	00H
	DD	FLAT:__unwindfunclet$??0ioTargetTimingAttackSkill@@QAE@ABV0@@Z$1
	DD	01H
	DD	FLAT:__unwindfunclet$??0ioTargetTimingAttackSkill@@QAE@ABV0@@Z$2
	DD	02H
	DD	FLAT:__unwindfunclet$??0ioTargetTimingAttackSkill@@QAE@ABV0@@Z$3
	DD	03H
	DD	FLAT:__unwindfunclet$??0ioTargetTimingAttackSkill@@QAE@ABV0@@Z$4
	DD	04H
	DD	FLAT:__unwindfunclet$??0ioTargetTimingAttackSkill@@QAE@ABV0@@Z$5
	DD	05H
	DD	FLAT:__unwindfunclet$??0ioTargetTimingAttackSkill@@QAE@ABV0@@Z$6
	DD	06H
	DD	FLAT:__unwindfunclet$??0ioTargetTimingAttackSkill@@QAE@ABV0@@Z$7
	DD	07H
	DD	FLAT:__unwindfunclet$??0ioTargetTimingAttackSkill@@QAE@ABV0@@Z$8
	DD	08H
	DD	FLAT:__unwindfunclet$??0ioTargetTimingAttackSkill@@QAE@ABV0@@Z$9
	DD	09H
	DD	FLAT:__unwindfunclet$??0ioTargetTimingAttackSkill@@QAE@ABV0@@Z$10
	DD	0aH
	DD	FLAT:__unwindfunclet$??0ioTargetTimingAttackSkill@@QAE@ABV0@@Z$11
	DD	0bH
	DD	FLAT:__unwindfunclet$??0ioTargetTimingAttackSkill@@QAE@ABV0@@Z$12
; Function compile flags: /Ogsp
; File d:\lost saga for developer\youtube\tutorial\source\src\lsclient\iotargettimingattackskill.cpp
xdata$x	ENDS
;	COMDAT ??0ioTargetTimingAttackSkill@@QAE@ABV0@@Z
_TEXT	SEGMENT
_this$ = -16						; size = 4
__$EHRec$ = -12						; size = 12
_rhs$ = 8						; size = 4
??0ioTargetTimingAttackSkill@@QAE@ABV0@@Z PROC		; ioTargetTimingAttackSkill::ioTargetTimingAttackSkill, COMDAT
; _this$ = ecx

; 37   : {

  00000	6a 04		 push	 4
  00002	b8 00 00 00 00	 mov	 eax, __ehhandler$??0ioTargetTimingAttackSkill@@QAE@ABV0@@Z
  00007	e8 00 00 00 00	 call	 __EH_prolog3
  0000c	8b d9		 mov	 ebx, ecx
  0000e	89 5d f0	 mov	 DWORD PTR _this$[ebp], ebx
  00011	8b 75 08	 mov	 esi, DWORD PTR _rhs$[ebp]
  00014	56		 push	 esi
  00015	e8 00 00 00 00	 call	 ??0ioAttackSkill@@QAE@ABV0@@Z ; ioAttackSkill::ioAttackSkill
  0001a	8b 3d 00 00 00
	00		 mov	 edi, DWORD PTR __imp_??0ioHashString@@QAE@ABV0@@Z
  00020	83 65 fc 00	 and	 DWORD PTR __$EHRec$[ebp+8], 0
  00024	c7 03 00 00 00
	00		 mov	 DWORD PTR [ebx], OFFSET ??_7ioTargetTimingAttackSkill@@6B@
  0002a	d9 86 e4 10 00
	00		 fld	 DWORD PTR [esi+4324]
  00030	8d 86 e8 10 00
	00		 lea	 eax, DWORD PTR [esi+4328]
  00036	d9 9b e4 10 00
	00		 fstp	 DWORD PTR [ebx+4324]
  0003c	50		 push	 eax
  0003d	8d 8b e8 10 00
	00		 lea	 ecx, DWORD PTR [ebx+4328]
  00043	ff d7		 call	 edi
  00045	8b 86 f8 10 00
	00		 mov	 eax, DWORD PTR [esi+4344]
  0004b	89 83 f8 10 00
	00		 mov	 DWORD PTR [ebx+4344], eax
  00051	8d 86 fc 10 00
	00		 lea	 eax, DWORD PTR [esi+4348]
  00057	50		 push	 eax
  00058	8d 8b fc 10 00
	00		 lea	 ecx, DWORD PTR [ebx+4348]
  0005e	c6 45 fc 01	 mov	 BYTE PTR __$EHRec$[ebp+8], 1
  00062	ff d7		 call	 edi
  00064	8b 86 0c 11 00
	00		 mov	 eax, DWORD PTR [esi+4364]
  0006a	89 83 0c 11 00
	00		 mov	 DWORD PTR [ebx+4364], eax
  00070	8d 86 10 11 00
	00		 lea	 eax, DWORD PTR [esi+4368]
  00076	50		 push	 eax
  00077	8d 8b 10 11 00
	00		 lea	 ecx, DWORD PTR [ebx+4368]
  0007d	c6 45 fc 02	 mov	 BYTE PTR __$EHRec$[ebp+8], 2
  00081	ff d7		 call	 edi
  00083	d9 86 20 11 00
	00		 fld	 DWORD PTR [esi+4384]
  00089	8d 86 24 11 00
	00		 lea	 eax, DWORD PTR [esi+4388]
  0008f	d9 9b 20 11 00
	00		 fstp	 DWORD PTR [ebx+4384]
  00095	50		 push	 eax
  00096	8d 8b 24 11 00
	00		 lea	 ecx, DWORD PTR [ebx+4388]
  0009c	c6 45 fc 03	 mov	 BYTE PTR __$EHRec$[ebp+8], 3
  000a0	e8 00 00 00 00	 call	 ??0AttackAttribute@@QAE@ABU0@@Z
  000a5	8d 86 74 11 00
	00		 lea	 eax, DWORD PTR [esi+4468]
  000ab	50		 push	 eax
  000ac	8d 8b 74 11 00
	00		 lea	 ecx, DWORD PTR [ebx+4468]
  000b2	c6 45 fc 04	 mov	 BYTE PTR __$EHRec$[ebp+8], 4
  000b6	e8 00 00 00 00	 call	 ??0AttackAttribute@@QAE@ABU0@@Z
  000bb	8d 86 c4 11 00
	00		 lea	 eax, DWORD PTR [esi+4548]
  000c1	50		 push	 eax
  000c2	8d 8b c4 11 00
	00		 lea	 ecx, DWORD PTR [ebx+4548]
  000c8	c6 45 fc 05	 mov	 BYTE PTR __$EHRec$[ebp+8], 5
  000cc	e8 00 00 00 00	 call	 ??0AttackAttribute@@QAE@ABU0@@Z
  000d1	8d 86 14 12 00
	00		 lea	 eax, DWORD PTR [esi+4628]
  000d7	50		 push	 eax
  000d8	8d 8b 14 12 00
	00		 lea	 ecx, DWORD PTR [ebx+4628]
  000de	c6 45 fc 06	 mov	 BYTE PTR __$EHRec$[ebp+8], 6
  000e2	e8 00 00 00 00	 call	 ??0AttackAttribute@@QAE@ABU0@@Z
  000e7	8d 86 64 12 00
	00		 lea	 eax, DWORD PTR [esi+4708]
  000ed	50		 push	 eax
  000ee	8d 8b 64 12 00
	00		 lea	 ecx, DWORD PTR [ebx+4708]
  000f4	c6 45 fc 07	 mov	 BYTE PTR __$EHRec$[ebp+8], 7
  000f8	e8 00 00 00 00	 call	 ??0AttackAttribute@@QAE@ABU0@@Z
  000fd	8d 86 b4 12 00
	00		 lea	 eax, DWORD PTR [esi+4788]
  00103	50		 push	 eax
  00104	8d 8b b4 12 00
	00		 lea	 ecx, DWORD PTR [ebx+4788]
  0010a	c6 45 fc 08	 mov	 BYTE PTR __$EHRec$[ebp+8], 8
  0010e	e8 00 00 00 00	 call	 ??0AttackAttribute@@QAE@ABU0@@Z
  00113	8a 86 04 13 00
	00		 mov	 al, BYTE PTR [esi+4868]
  00119	88 83 04 13 00
	00		 mov	 BYTE PTR [ebx+4868], al
  0011f	8b 86 08 13 00
	00		 mov	 eax, DWORD PTR [esi+4872]
  00125	81 c6 0c 13 00
	00		 add	 esi, 4876		; 0000130cH
  0012b	89 83 08 13 00
	00		 mov	 DWORD PTR [ebx+4872], eax
  00131	8b 45 08	 mov	 eax, DWORD PTR _rhs$[ebp]
  00134	8d bb 0c 13 00
	00		 lea	 edi, DWORD PTR [ebx+4876]
  0013a	a5		 movsd
  0013b	a5		 movsd
  0013c	a5		 movsd
  0013d	c6 45 fc 09	 mov	 BYTE PTR __$EHRec$[ebp+8], 9
  00141	8d b0 18 13 00
	00		 lea	 esi, DWORD PTR [eax+4888]
  00147	8d bb 18 13 00
	00		 lea	 edi, DWORD PTR [ebx+4888]
  0014d	a5		 movsd
  0014e	a5		 movsd
  0014f	a5		 movsd
  00150	8b 88 24 13 00
	00		 mov	 ecx, DWORD PTR [eax+4900]
  00156	89 8b 24 13 00
	00		 mov	 DWORD PTR [ebx+4900], ecx
  0015c	8b 80 2c 13 00
	00		 mov	 eax, DWORD PTR [eax+4908]
  00162	8d 8b 3c 13 00
	00		 lea	 ecx, DWORD PTR [ebx+4924]
  00168	89 83 2c 13 00
	00		 mov	 DWORD PTR [ebx+4908], eax
  0016e	ff 15 00 00 00
	00		 call	 DWORD PTR __imp_??0ioHashString@@QAE@XZ
  00174	33 c9		 xor	 ecx, ecx
  00176	89 8b 64 13 00
	00		 mov	 DWORD PTR [ebx+4964], ecx
  0017c	89 8b 68 13 00
	00		 mov	 DWORD PTR [ebx+4968], ecx
  00182	89 8b 6c 13 00
	00		 mov	 DWORD PTR [ebx+4972], ecx
  00188	8d 8b 7c 13 00
	00		 lea	 ecx, DWORD PTR [ebx+4988]
  0018e	c6 45 fc 0b	 mov	 BYTE PTR __$EHRec$[ebp+8], 11 ; 0000000bH
  00192	e8 00 00 00 00	 call	 ??0AttackAttribute@@QAE@XZ ; AttackAttribute::AttackAttribute

; 38   : 	InitData();

  00197	8b cb		 mov	 ecx, ebx
  00199	c6 45 fc 0c	 mov	 BYTE PTR __$EHRec$[ebp+8], 12 ; 0000000cH
  0019d	e8 00 00 00 00	 call	 ?InitData@ioTargetTimingAttackSkill@@IAEXXZ ; ioTargetTimingAttackSkill::InitData

; 39   : }

  001a2	8b c3		 mov	 eax, ebx
  001a4	e8 00 00 00 00	 call	 __EH_epilog3
  001a9	c2 04 00	 ret	 4
_TEXT	ENDS
;	COMDAT text$x
text$x	SEGMENT
__unwindfunclet$??0ioTargetTimingAttackSkill@@QAE@ABV0@@Z$0:
  00000	8b 4d f0	 mov	 ecx, DWORD PTR _this$[ebp]
  00003	e9 00 00 00 00	 jmp	 ??1ioAttackSkill@@UAE@XZ ; ioAttackSkill::~ioAttackSkill
__unwindfunclet$??0ioTargetTimingAttackSkill@@QAE@ABV0@@Z$1:
  00008	8b 4d f0	 mov	 ecx, DWORD PTR _this$[ebp]
  0000b	81 c1 e8 10 00
	00		 add	 ecx, 4328		; 000010e8H
  00011	ff 25 00 00 00
	00		 jmp	 DWORD PTR __imp_??1ioHashString@@QAE@XZ
__unwindfunclet$??0ioTargetTimingAttackSkill@@QAE@ABV0@@Z$2:
  00017	8b 4d f0	 mov	 ecx, DWORD PTR _this$[ebp]
  0001a	81 c1 fc 10 00
	00		 add	 ecx, 4348		; 000010fcH
  00020	ff 25 00 00 00
	00		 jmp	 DWORD PTR __imp_??1ioHashString@@QAE@XZ
__unwindfunclet$??0ioTargetTimingAttackSkill@@QAE@ABV0@@Z$3:
  00026	8b 4d f0	 mov	 ecx, DWORD PTR _this$[ebp]
  00029	81 c1 10 11 00
	00		 add	 ecx, 4368		; 00001110H
  0002f	ff 25 00 00 00
	00		 jmp	 DWORD PTR __imp_??1ioHashString@@QAE@XZ
__unwindfunclet$??0ioTargetTimingAttackSkill@@QAE@ABV0@@Z$4:
  00035	8b 4d f0	 mov	 ecx, DWORD PTR _this$[ebp]
  00038	81 c1 24 11 00
	00		 add	 ecx, 4388		; 00001124H
  0003e	e9 00 00 00 00	 jmp	 ??1AttackAttribute@@QAE@XZ
__unwindfunclet$??0ioTargetTimingAttackSkill@@QAE@ABV0@@Z$5:
  00043	8b 4d f0	 mov	 ecx, DWORD PTR _this$[ebp]
  00046	81 c1 74 11 00
	00		 add	 ecx, 4468		; 00001174H
  0004c	e9 00 00 00 00	 jmp	 ??1AttackAttribute@@QAE@XZ
__unwindfunclet$??0ioTargetTimingAttackSkill@@QAE@ABV0@@Z$6:
  00051	8b 4d f0	 mov	 ecx, DWORD PTR _this$[ebp]
  00054	81 c1 c4 11 00
	00		 add	 ecx, 4548		; 000011c4H
  0005a	e9 00 00 00 00	 jmp	 ??1AttackAttribute@@QAE@XZ
__unwindfunclet$??0ioTargetTimingAttackSkill@@QAE@ABV0@@Z$7:
  0005f	8b 4d f0	 mov	 ecx, DWORD PTR _this$[ebp]
  00062	81 c1 14 12 00
	00		 add	 ecx, 4628		; 00001214H
  00068	e9 00 00 00 00	 jmp	 ??1AttackAttribute@@QAE@XZ
__unwindfunclet$??0ioTargetTimingAttackSkill@@QAE@ABV0@@Z$8:
  0006d	8b 4d f0	 mov	 ecx, DWORD PTR _this$[ebp]
  00070	81 c1 64 12 00
	00		 add	 ecx, 4708		; 00001264H
  00076	e9 00 00 00 00	 jmp	 ??1AttackAttribute@@QAE@XZ
__unwindfunclet$??0ioTargetTimingAttackSkill@@QAE@ABV0@@Z$9:
  0007b	8b 4d f0	 mov	 ecx, DWORD PTR _this$[ebp]
  0007e	81 c1 b4 12 00
	00		 add	 ecx, 4788		; 000012b4H
  00084	e9 00 00 00 00	 jmp	 ??1AttackAttribute@@QAE@XZ
__unwindfunclet$??0ioTargetTimingAttackSkill@@QAE@ABV0@@Z$10:
  00089	8b 4d f0	 mov	 ecx, DWORD PTR _this$[ebp]
  0008c	81 c1 3c 13 00
	00		 add	 ecx, 4924		; 0000133cH
  00092	ff 25 00 00 00
	00		 jmp	 DWORD PTR __imp_??1ioHashString@@QAE@XZ
__unwindfunclet$??0ioTargetTimingAttackSkill@@QAE@ABV0@@Z$11:
  00098	8b 4d f0	 mov	 ecx, DWORD PTR _this$[ebp]
  0009b	81 c1 64 13 00
	00		 add	 ecx, 4964		; 00001364H
  000a1	e9 00 00 00 00	 jmp	 ??1?$vector@UtagBaseCharHP@@V?$allocator@UtagBaseCharHP@@@std@@@std@@QAE@XZ ; std::vector<tagBaseCharHP,std::allocator<tagBaseCharHP> >::~vector<tagBaseCharHP,std::allocator<tagBaseCharHP> >
__unwindfunclet$??0ioTargetTimingAttackSkill@@QAE@ABV0@@Z$12:
  000a6	8b 4d f0	 mov	 ecx, DWORD PTR _this$[ebp]
  000a9	81 c1 7c 13 00
	00		 add	 ecx, 4988		; 0000137cH
  000af	e9 00 00 00 00	 jmp	 ??1AttackAttribute@@QAE@XZ
__ehhandler$??0ioTargetTimingAttackSkill@@QAE@ABV0@@Z:
  000b4	8b 54 24 08	 mov	 edx, DWORD PTR [esp+8]
  000b8	8d 42 0c	 lea	 eax, DWORD PTR [edx+12]
  000bb	8b 4a ec	 mov	 ecx, DWORD PTR [edx-20]
  000be	33 c8		 xor	 ecx, eax
  000c0	e8 00 00 00 00	 call	 @__security_check_cookie@4
  000c5	b8 00 00 00 00	 mov	 eax, OFFSET __ehfuncinfo$??0ioTargetTimingAttackSkill@@QAE@ABV0@@Z
  000ca	e9 00 00 00 00	 jmp	 ___CxxFrameHandler3
text$x	ENDS
??0ioTargetTimingAttackSkill@@QAE@ABV0@@Z ENDP		; ioTargetTimingAttackSkill::ioTargetTimingAttackSkill
PUBLIC	??1ioTargetTimingAttackSkill@@UAE@XZ		; ioTargetTimingAttackSkill::~ioTargetTimingAttackSkill
;	COMDAT xdata$x
; File c:\program files (x86)\microsoft visual studio 10.0\vc\include\vector
xdata$x	SEGMENT
__ehfuncinfo$??1ioTargetTimingAttackSkill@@UAE@XZ DD 019930522H
	DD	0cH
	DD	FLAT:__unwindtable$??1ioTargetTimingAttackSkill@@UAE@XZ
	DD	2 DUP(00H)
	DD	2 DUP(00H)
	DD	00H
	DD	01H
__unwindtable$??1ioTargetTimingAttackSkill@@UAE@XZ DD 0ffffffffH
	DD	FLAT:__unwindfunclet$??1ioTargetTimingAttackSkill@@UAE@XZ$0
	DD	00H
	DD	FLAT:__unwindfunclet$??1ioTargetTimingAttackSkill@@UAE@XZ$1
	DD	01H
	DD	FLAT:__unwindfunclet$??1ioTargetTimingAttackSkill@@UAE@XZ$2
	DD	02H
	DD	FLAT:__unwindfunclet$??1ioTargetTimingAttackSkill@@UAE@XZ$3
	DD	03H
	DD	FLAT:__unwindfunclet$??1ioTargetTimingAttackSkill@@UAE@XZ$4
	DD	04H
	DD	FLAT:__unwindfunclet$??1ioTargetTimingAttackSkill@@UAE@XZ$5
	DD	05H
	DD	FLAT:__unwindfunclet$??1ioTargetTimingAttackSkill@@UAE@XZ$6
	DD	06H
	DD	FLAT:__unwindfunclet$??1ioTargetTimingAttackSkill@@UAE@XZ$7
	DD	07H
	DD	FLAT:__unwindfunclet$??1ioTargetTimingAttackSkill@@UAE@XZ$8
	DD	08H
	DD	FLAT:__unwindfunclet$??1ioTargetTimingAttackSkill@@UAE@XZ$9
	DD	09H
	DD	FLAT:__unwindfunclet$??1ioTargetTimingAttackSkill@@UAE@XZ$10
	DD	0aH
	DD	FLAT:__unwindfunclet$??1ioTargetTimingAttackSkill@@UAE@XZ$11
; Function compile flags: /Ogsp
; File d:\lost saga for developer\youtube\tutorial\source\src\lsclient\iotargettimingattackskill.cpp
xdata$x	ENDS
;	COMDAT ??1ioTargetTimingAttackSkill@@UAE@XZ
_TEXT	SEGMENT
_this$ = -16						; size = 4
__$EHRec$ = -12						; size = 12
??1ioTargetTimingAttackSkill@@UAE@XZ PROC		; ioTargetTimingAttackSkill::~ioTargetTimingAttackSkill, COMDAT
; _this$ = ecx

; 42   : {

  00000	6a 04		 push	 4
  00002	b8 00 00 00 00	 mov	 eax, __ehhandler$??1ioTargetTimingAttackSkill@@UAE@XZ
  00007	e8 00 00 00 00	 call	 __EH_prolog3
  0000c	8b f1		 mov	 esi, ecx
  0000e	89 75 f0	 mov	 DWORD PTR _this$[ebp], esi
  00011	c7 06 00 00 00
	00		 mov	 DWORD PTR [esi], OFFSET ??_7ioTargetTimingAttackSkill@@6B@

; 43   : }

  00017	8d 8e 7c 13 00
	00		 lea	 ecx, DWORD PTR [esi+4988]
  0001d	c7 45 fc 0b 00
	00 00		 mov	 DWORD PTR __$EHRec$[ebp+8], 11 ; 0000000bH
  00024	e8 00 00 00 00	 call	 ??1AttackAttribute@@QAE@XZ
  00029	8d 8e 64 13 00
	00		 lea	 ecx, DWORD PTR [esi+4964]
  0002f	c6 45 fc 0a	 mov	 BYTE PTR __$EHRec$[ebp+8], 10 ; 0000000aH
  00033	e8 00 00 00 00	 call	 ?_Tidy@?$vector@UtagBaseCharHP@@V?$allocator@UtagBaseCharHP@@@std@@@std@@IAEXXZ ; std::vector<tagBaseCharHP,std::allocator<tagBaseCharHP> >::_Tidy
  00038	8b 3d 00 00 00
	00		 mov	 edi, DWORD PTR __imp_??1ioHashString@@QAE@XZ
  0003e	8d 8e 3c 13 00
	00		 lea	 ecx, DWORD PTR [esi+4924]
  00044	c6 45 fc 09	 mov	 BYTE PTR __$EHRec$[ebp+8], 9
  00048	ff d7		 call	 edi
  0004a	8d 8e b4 12 00
	00		 lea	 ecx, DWORD PTR [esi+4788]
  00050	c6 45 fc 08	 mov	 BYTE PTR __$EHRec$[ebp+8], 8
  00054	e8 00 00 00 00	 call	 ??1AttackAttribute@@QAE@XZ
  00059	8d 8e 64 12 00
	00		 lea	 ecx, DWORD PTR [esi+4708]
  0005f	c6 45 fc 07	 mov	 BYTE PTR __$EHRec$[ebp+8], 7
  00063	e8 00 00 00 00	 call	 ??1AttackAttribute@@QAE@XZ
  00068	8d 8e 14 12 00
	00		 lea	 ecx, DWORD PTR [esi+4628]
  0006e	c6 45 fc 06	 mov	 BYTE PTR __$EHRec$[ebp+8], 6
  00072	e8 00 00 00 00	 call	 ??1AttackAttribute@@QAE@XZ
  00077	8d 8e c4 11 00
	00		 lea	 ecx, DWORD PTR [esi+4548]
  0007d	c6 45 fc 05	 mov	 BYTE PTR __$EHRec$[ebp+8], 5
  00081	e8 00 00 00 00	 call	 ??1AttackAttribute@@QAE@XZ
  00086	8d 8e 74 11 00
	00		 lea	 ecx, DWORD PTR [esi+4468]
  0008c	c6 45 fc 04	 mov	 BYTE PTR __$EHRec$[ebp+8], 4
  00090	e8 00 00 00 00	 call	 ??1AttackAttribute@@QAE@XZ
  00095	8d 8e 24 11 00
	00		 lea	 ecx, DWORD PTR [esi+4388]
  0009b	c6 45 fc 03	 mov	 BYTE PTR __$EHRec$[ebp+8], 3
  0009f	e8 00 00 00 00	 call	 ??1AttackAttribute@@QAE@XZ
  000a4	8d 8e 10 11 00
	00		 lea	 ecx, DWORD PTR [esi+4368]
  000aa	c6 45 fc 02	 mov	 BYTE PTR __$EHRec$[ebp+8], 2
  000ae	ff d7		 call	 edi
  000b0	8d 8e fc 10 00
	00		 lea	 ecx, DWORD PTR [esi+4348]
  000b6	c6 45 fc 01	 mov	 BYTE PTR __$EHRec$[ebp+8], 1
  000ba	ff d7		 call	 edi
  000bc	8d 8e e8 10 00
	00		 lea	 ecx, DWORD PTR [esi+4328]
  000c2	c6 45 fc 00	 mov	 BYTE PTR __$EHRec$[ebp+8], 0
  000c6	ff d7		 call	 edi
  000c8	83 4d fc ff	 or	 DWORD PTR __$EHRec$[ebp+8], -1
  000cc	8b ce		 mov	 ecx, esi
  000ce	e8 00 00 00 00	 call	 ??1ioAttackSkill@@UAE@XZ ; ioAttackSkill::~ioAttackSkill
  000d3	e8 00 00 00 00	 call	 __EH_epilog3
  000d8	c3		 ret	 0
_TEXT	ENDS
;	COMDAT text$x
text$x	SEGMENT
__unwindfunclet$??1ioTargetTimingAttackSkill@@UAE@XZ$0:
  00000	8b 4d f0	 mov	 ecx, DWORD PTR _this$[ebp]
  00003	e9 00 00 00 00	 jmp	 ??1ioAttackSkill@@UAE@XZ ; ioAttackSkill::~ioAttackSkill
__unwindfunclet$??1ioTargetTimingAttackSkill@@UAE@XZ$1:
  00008	8b 4d f0	 mov	 ecx, DWORD PTR _this$[ebp]
  0000b	81 c1 e8 10 00
	00		 add	 ecx, 4328		; 000010e8H
  00011	ff 25 00 00 00
	00		 jmp	 DWORD PTR __imp_??1ioHashString@@QAE@XZ
__unwindfunclet$??1ioTargetTimingAttackSkill@@UAE@XZ$2:
  00017	8b 4d f0	 mov	 ecx, DWORD PTR _this$[ebp]
  0001a	81 c1 fc 10 00
	00		 add	 ecx, 4348		; 000010fcH
  00020	ff 25 00 00 00
	00		 jmp	 DWORD PTR __imp_??1ioHashString@@QAE@XZ
__unwindfunclet$??1ioTargetTimingAttackSkill@@UAE@XZ$3:
  00026	8b 4d f0	 mov	 ecx, DWORD PTR _this$[ebp]
  00029	81 c1 10 11 00
	00		 add	 ecx, 4368		; 00001110H
  0002f	ff 25 00 00 00
	00		 jmp	 DWORD PTR __imp_??1ioHashString@@QAE@XZ
__unwindfunclet$??1ioTargetTimingAttackSkill@@UAE@XZ$4:
  00035	8b 4d f0	 mov	 ecx, DWORD PTR _this$[ebp]
  00038	81 c1 24 11 00
	00		 add	 ecx, 4388		; 00001124H
  0003e	e9 00 00 00 00	 jmp	 ??1AttackAttribute@@QAE@XZ
__unwindfunclet$??1ioTargetTimingAttackSkill@@UAE@XZ$5:
  00043	8b 4d f0	 mov	 ecx, DWORD PTR _this$[ebp]
  00046	81 c1 74 11 00
	00		 add	 ecx, 4468		; 00001174H
  0004c	e9 00 00 00 00	 jmp	 ??1AttackAttribute@@QAE@XZ
__unwindfunclet$??1ioTargetTimingAttackSkill@@UAE@XZ$6:
  00051	8b 4d f0	 mov	 ecx, DWORD PTR _this$[ebp]
  00054	81 c1 c4 11 00
	00		 add	 ecx, 4548		; 000011c4H
  0005a	e9 00 00 00 00	 jmp	 ??1AttackAttribute@@QAE@XZ
__unwindfunclet$??1ioTargetTimingAttackSkill@@UAE@XZ$7:
  0005f	8b 4d f0	 mov	 ecx, DWORD PTR _this$[ebp]
  00062	81 c1 14 12 00
	00		 add	 ecx, 4628		; 00001214H
  00068	e9 00 00 00 00	 jmp	 ??1AttackAttribute@@QAE@XZ
__unwindfunclet$??1ioTargetTimingAttackSkill@@UAE@XZ$8:
  0006d	8b 4d f0	 mov	 ecx, DWORD PTR _this$[ebp]
  00070	81 c1 64 12 00
	00		 add	 ecx, 4708		; 00001264H
  00076	e9 00 00 00 00	 jmp	 ??1AttackAttribute@@QAE@XZ
__unwindfunclet$??1ioTargetTimingAttackSkill@@UAE@XZ$9:
  0007b	8b 4d f0	 mov	 ecx, DWORD PTR _this$[ebp]
  0007e	81 c1 b4 12 00
	00		 add	 ecx, 4788		; 000012b4H
  00084	e9 00 00 00 00	 jmp	 ??1AttackAttribute@@QAE@XZ
__unwindfunclet$??1ioTargetTimingAttackSkill@@UAE@XZ$10:
  00089	8b 4d f0	 mov	 ecx, DWORD PTR _this$[ebp]
  0008c	81 c1 3c 13 00
	00		 add	 ecx, 4924		; 0000133cH
  00092	ff 25 00 00 00
	00		 jmp	 DWORD PTR __imp_??1ioHashString@@QAE@XZ
__unwindfunclet$??1ioTargetTimingAttackSkill@@UAE@XZ$11:
  00098	8b 4d f0	 mov	 ecx, DWORD PTR _this$[ebp]
  0009b	81 c1 64 13 00
	00		 add	 ecx, 4964		; 00001364H
  000a1	e9 00 00 00 00	 jmp	 ??1?$vector@UtagBaseCharHP@@V?$allocator@UtagBaseCharHP@@@std@@@std@@QAE@XZ ; std::vector<tagBaseCharHP,std::allocator<tagBaseCharHP> >::~vector<tagBaseCharHP,std::allocator<tagBaseCharHP> >
__ehhandler$??1ioTargetTimingAttackSkill@@UAE@XZ:
  000a6	8b 54 24 08	 mov	 edx, DWORD PTR [esp+8]
  000aa	8d 42 0c	 lea	 eax, DWORD PTR [edx+12]
  000ad	8b 4a ec	 mov	 ecx, DWORD PTR [edx-20]
  000b0	33 c8		 xor	 ecx, eax
  000b2	e8 00 00 00 00	 call	 @__security_check_cookie@4
  000b7	b8 00 00 00 00	 mov	 eax, OFFSET __ehfuncinfo$??1ioTargetTimingAttackSkill@@UAE@XZ
  000bc	e9 00 00 00 00	 jmp	 ___CxxFrameHandler3
text$x	ENDS
??1ioTargetTimingAttackSkill@@UAE@XZ ENDP		; ioTargetTimingAttackSkill::~ioTargetTimingAttackSkill
;	COMDAT xdata$x
xdata$x	SEGMENT
__unwindtable$?Clone@ioTargetTimingAttackSkill@@UAEPAVioSkill@@XZ DD 0ffffffffH
	DD	FLAT:__unwindfunclet$?Clone@ioTargetTimingAttackSkill@@UAEPAVioSkill@@XZ$0
__ehfuncinfo$?Clone@ioTargetTimingAttackSkill@@UAEPAVioSkill@@XZ DD 019930522H
	DD	01H
	DD	FLAT:__unwindtable$?Clone@ioTargetTimingAttackSkill@@UAEPAVioSkill@@XZ
	DD	2 DUP(00H)
	DD	2 DUP(00H)
	DD	00H
	DD	01H
; Function compile flags: /Ogsp
xdata$x	ENDS
;	COMDAT ?Clone@ioTargetTimingAttackSkill@@UAEPAVioSkill@@XZ
_TEXT	SEGMENT
$T561691 = -16						; size = 4
__$EHRec$ = -12						; size = 12
?Clone@ioTargetTimingAttackSkill@@UAEPAVioSkill@@XZ PROC ; ioTargetTimingAttackSkill::Clone, COMDAT
; _this$ = ecx

; 93   : {

  00000	6a 04		 push	 4
  00002	b8 00 00 00 00	 mov	 eax, __ehhandler$?Clone@ioTargetTimingAttackSkill@@UAEPAVioSkill@@XZ
  00007	e8 00 00 00 00	 call	 __EH_prolog3
  0000c	8b f1		 mov	 esi, ecx

; 94   : 	return new ioTargetTimingAttackSkill( *this );

  0000e	68 d0 13 00 00	 push	 5072			; 000013d0H
  00013	e8 00 00 00 00	 call	 ??2@YAPAXI@Z		; operator new
  00018	59		 pop	 ecx
  00019	8b c8		 mov	 ecx, eax
  0001b	89 4d f0	 mov	 DWORD PTR $T561691[ebp], ecx
  0001e	33 c0		 xor	 eax, eax
  00020	89 45 fc	 mov	 DWORD PTR __$EHRec$[ebp+8], eax
  00023	3b c8		 cmp	 ecx, eax
  00025	74 06		 je	 SHORT $LN3@Clone
  00027	56		 push	 esi
  00028	e8 00 00 00 00	 call	 ??0ioTargetTimingAttackSkill@@QAE@ABV0@@Z ; ioTargetTimingAttackSkill::ioTargetTimingAttackSkill
$LN3@Clone:

; 95   : }

  0002d	e8 00 00 00 00	 call	 __EH_epilog3
  00032	c3		 ret	 0
_TEXT	ENDS
;	COMDAT text$x
text$x	SEGMENT
__unwindfunclet$?Clone@ioTargetTimingAttackSkill@@UAEPAVioSkill@@XZ$0:
  00000	ff 75 f0	 push	 DWORD PTR $T561691[ebp]
  00003	e8 00 00 00 00	 call	 ??3@YAXPAX@Z		; operator delete
  00008	59		 pop	 ecx
  00009	c3		 ret	 0
__ehhandler$?Clone@ioTargetTimingAttackSkill@@UAEPAVioSkill@@XZ:
  0000a	8b 54 24 08	 mov	 edx, DWORD PTR [esp+8]
  0000e	8d 42 0c	 lea	 eax, DWORD PTR [edx+12]
  00011	8b 4a ec	 mov	 ecx, DWORD PTR [edx-20]
  00014	33 c8		 xor	 ecx, eax
  00016	e8 00 00 00 00	 call	 @__security_check_cookie@4
  0001b	b8 00 00 00 00	 mov	 eax, OFFSET __ehfuncinfo$?Clone@ioTargetTimingAttackSkill@@UAEPAVioSkill@@XZ
  00020	e9 00 00 00 00	 jmp	 ___CxxFrameHandler3
text$x	ENDS
?Clone@ioTargetTimingAttackSkill@@UAEPAVioSkill@@XZ ENDP ; ioTargetTimingAttackSkill::Clone
PUBLIC	_pStage$GSCopy$
PUBLIC	_pChar$GSCopy$
PUBLIC	__$ArrayPad$
PUBLIC	?GetTargetList@ioTargetTimingAttackSkill@@IAEXPAVioBaseChar@@PAVioPlayStage@@@Z ; ioTargetTimingAttackSkill::GetTargetList
EXTRN	__imp_??9ioHashString@@QBE_NABV0@@Z:PROC
EXTRN	?IsEnableTarget@ioBaseChar@@QAE_N_N0@Z:PROC	; ioBaseChar::IsEnableTarget
EXTRN	?IsSystemState@ioBaseChar@@QAE_NXZ:PROC		; ioBaseChar::IsSystemState
EXTRN	?IsApplyDownState@ioBaseChar@@QAE_N_N@Z:PROC	; ioBaseChar::IsApplyDownState
EXTRN	__imp_??8ioHashString@@QBE_NABV0@@Z:PROC
;	COMDAT xdata$x
; File d:\lost saga for developer\youtube\tutorial\source\src\lsclient\ioskill.h
xdata$x	SEGMENT
__unwindtable$?GetTargetList@ioTargetTimingAttackSkill@@IAEXPAVioBaseChar@@PAVioPlayStage@@@Z DD 0ffffffffH
	DD	FLAT:__unwindfunclet$?GetTargetList@ioTargetTimingAttackSkill@@IAEXPAVioBaseChar@@PAVioPlayStage@@@Z$0
	DD	0ffffffffH
	DD	FLAT:__unwindfunclet$?GetTargetList@ioTargetTimingAttackSkill@@IAEXPAVioBaseChar@@PAVioPlayStage@@@Z$1
__ehfuncinfo$?GetTargetList@ioTargetTimingAttackSkill@@IAEXPAVioBaseChar@@PAVioPlayStage@@@Z DD 019930522H
	DD	02H
	DD	FLAT:__unwindtable$?GetTargetList@ioTargetTimingAttackSkill@@IAEXPAVioBaseChar@@PAVioPlayStage@@@Z
	DD	2 DUP(00H)
	DD	2 DUP(00H)
	DD	00H
	DD	01H
; Function compile flags: /Ogsp
; File d:\lost saga for developer\youtube\tutorial\source\src\lsclient\iotargettimingattackskill.cpp
xdata$x	ENDS
;	COMDAT ?GetTargetList@ioTargetTimingAttackSkill@@IAEXPAVioBaseChar@@PAVioPlayStage@@@Z
_TEXT	SEGMENT
_kInfo$548822 = -32864					; size = 24
_value$561909 = -32840					; size = 4
$T561773 = -32840					; size = 4
$T561706 = -32836					; size = 1
_pStage$GSCopy$ = -32836				; size = 4
_pChar$GSCopy$ = -32832					; size = 4
tv1036 = -32828						; size = 4
_value$561865 = -32828					; size = 4
_nCnt$548965 = -32824					; size = 4
_iter$ = -32824						; size = 4
_value$561878 = -32820					; size = 4
_i$548966 = -32820					; size = 4
_value$561921 = -32813					; size = 1
tv837 = -32812						; size = 4
$T561893 = -32812					; size = 4
_kPacket$548983 = -32808				; size = 32792
__$ArrayPad$ = -16					; size = 4
__$EHRec$ = -12						; size = 12
_pChar$ = 8						; size = 4
_pStage$ = 12						; size = 4
?GetTargetList@ioTargetTimingAttackSkill@@IAEXPAVioBaseChar@@PAVioPlayStage@@@Z PROC ; ioTargetTimingAttackSkill::GetTargetList, COMDAT
; _this$ = ecx

; 442  : {

  00000	55		 push	 ebp
  00001	8b ec		 mov	 ebp, esp
  00003	6a ff		 push	 -1
  00005	68 00 00 00 00	 push	 __ehhandler$?GetTargetList@ioTargetTimingAttackSkill@@IAEXPAVioBaseChar@@PAVioPlayStage@@@Z
  0000a	64 a1 00 00 00
	00		 mov	 eax, DWORD PTR fs:0
  00010	50		 push	 eax
  00011	b8 54 80 00 00	 mov	 eax, 32852		; 00008054H
  00016	e8 00 00 00 00	 call	 __chkstk
  0001b	a1 00 00 00 00	 mov	 eax, DWORD PTR ___security_cookie
  00020	33 c5		 xor	 eax, ebp
  00022	89 45 f0	 mov	 DWORD PTR __$ArrayPad$[ebp], eax
  00025	53		 push	 ebx
  00026	56		 push	 esi
  00027	57		 push	 edi
  00028	50		 push	 eax
  00029	8d 45 f4	 lea	 eax, DWORD PTR __$EHRec$[ebp]
  0002c	64 a3 00 00 00
	00		 mov	 DWORD PTR fs:0, eax
  00032	8b 7d 0c	 mov	 edi, DWORD PTR _pStage$[ebp]
  00035	8b d9		 mov	 ebx, ecx
  00037	8b 4d 08	 mov	 ecx, DWORD PTR _pChar$[ebp]

; 553  : 	{
; 554  : 		SP2Packet kPacket( CUPK_SKILL_EXTRA_INFO );

  0003a	89 8d c0 7f ff
	ff		 mov	 DWORD PTR _pChar$GSCopy$[ebp], ecx
  00040	89 bd bc 7f ff
	ff		 mov	 DWORD PTR _pStage$GSCopy$[ebp], edi
  00046	85 c9		 test	 ecx, ecx
  00048	0f 84 47 04 00
	00		 je	 $LN31@GetTargetL

; 443  : 	if ( !pChar || !pChar->IsNeedProcess() || !pStage )

  0004e	8b 01		 mov	 eax, DWORD PTR [ecx]
  00050	ff 90 00 01 00
	00		 call	 DWORD PTR [eax+256]
  00056	84 c0		 test	 al, al
  00058	0f 84 37 04 00
	00		 je	 $LN31@GetTargetL
  0005e	85 ff		 test	 edi, edi
  00060	0f 84 2f 04 00
	00		 je	 $LN31@GetTargetL

; 444  : 		return;
; 445  : 
; 446  : 	m_vTargetInfoList.clear();

  00066	8b 83 68 13 00
	00		 mov	 eax, DWORD PTR [ebx+4968]
  0006c	8b 8b 64 13 00
	00		 mov	 ecx, DWORD PTR [ebx+4964]
  00072	50		 push	 eax
  00073	51		 push	 ecx
  00074	8d 85 b8 7f ff
	ff		 lea	 eax, DWORD PTR $T561773[ebp]
  0007a	50		 push	 eax
  0007b	8d 8b 64 13 00
	00		 lea	 ecx, DWORD PTR [ebx+4964]
  00081	e8 00 00 00 00	 call	 ?erase@?$vector@UtagBaseCharHP@@V?$allocator@UtagBaseCharHP@@@std@@@std@@QAE?AV?$_Vector_iterator@V?$_Vector_val@UtagBaseCharHP@@V?$allocator@UtagBaseCharHP@@@std@@@std@@@2@V?$_Vector_const_iterator@V?$_Vector_val@UtagBaseCharHP@@V?$allocator@UtagBaseCharHP@@@std@@@std@@@2@0@Z ; std::vector<tagBaseCharHP,std::allocator<tagBaseCharHP> >::erase

; 447  : 
; 448  : 	const BaseCharList &rkTargetList = pStage->GetBaseCharList();
; 449  : 
; 450  : 	BaseCharList::const_iterator iter;
; 451  : 	for( iter = rkTargetList.begin(); iter != rkTargetList.end(); ++iter )

  00086	8b 47 2c	 mov	 eax, DWORD PTR [edi+44]
  00089	8b 7f 30	 mov	 edi, DWORD PTR [edi+48]
  0008c	3b c7		 cmp	 eax, edi
  0008e	e9 f5 01 00 00	 jmp	 $LN158@GetTargetL
$LL65@GetTargetL:

; 452  : 	{
; 453  : 		ioBaseChar *pTarget = (*iter);

  00093	8b 38		 mov	 edi, DWORD PTR [eax]

; 454  : 
; 455  : 		if( !pTarget ) 

  00095	85 ff		 test	 edi, edi
  00097	0f 84 d9 01 00
	00		 je	 $LN29@GetTargetL

; 456  : 			continue;
; 457  : 
; 458  : 		if( pChar->GetCharName() == pTarget->GetCharName() )

  0009d	8b 8d c0 7f ff
	ff		 mov	 ecx, DWORD PTR _pChar$GSCopy$[ebp]
  000a3	8d 87 d4 02 00
	00		 lea	 eax, DWORD PTR [edi+724]
  000a9	50		 push	 eax
  000aa	81 c1 d4 02 00
	00		 add	 ecx, 724		; 000002d4H
  000b0	ff 15 00 00 00
	00		 call	 DWORD PTR __imp_??8ioHashString@@QBE_NABV0@@Z
  000b6	84 c0		 test	 al, al
  000b8	0f 85 b8 01 00
	00		 jne	 $LN29@GetTargetL

; 459  : 			continue;
; 460  : 
; 461  : 		if( pChar->GetTeam() == pTarget->GetTeam() )	

  000be	8b 8d c0 7f ff
	ff		 mov	 ecx, DWORD PTR _pChar$GSCopy$[ebp]
  000c4	8d 85 c4 7f ff
	ff		 lea	 eax, DWORD PTR _value$561865[ebp]
  000ca	81 c1 90 00 00
	00		 add	 ecx, 144		; 00000090H
  000d0	50		 push	 eax
  000d1	e8 00 00 00 00	 call	 ?DecryptValueToPool@?$CEncrypt@W4TeamType@@@@QAEXPAW4TeamType@@@Z ; CEncrypt<enum TeamType>::DecryptValueToPool
  000d6	8d 85 cc 7f ff
	ff		 lea	 eax, DWORD PTR _value$561878[ebp]
  000dc	8d 8f 90 00 00
	00		 lea	 ecx, DWORD PTR [edi+144]
  000e2	50		 push	 eax
  000e3	e8 00 00 00 00	 call	 ?DecryptValueToPool@?$CEncrypt@W4TeamType@@@@QAEXPAW4TeamType@@@Z ; CEncrypt<enum TeamType>::DecryptValueToPool
  000e8	8b 85 c4 7f ff
	ff		 mov	 eax, DWORD PTR _value$561865[ebp]
  000ee	3b 85 cc 7f ff
	ff		 cmp	 eax, DWORD PTR _value$561878[ebp]
  000f4	0f 84 7c 01 00
	00		 je	 $LN29@GetTargetL

; 462  : 			continue;
; 463  : 
; 464  : 		if( !m_bEnableDownAim && pTarget->IsApplyDownState() )

  000fa	80 bb 04 13 00
	00 00		 cmp	 BYTE PTR [ebx+4868], 0
  00101	75 11		 jne	 SHORT $LN24@GetTargetL
  00103	6a 01		 push	 1
  00105	8b cf		 mov	 ecx, edi
  00107	e8 00 00 00 00	 call	 ?IsApplyDownState@ioBaseChar@@QAE_N_N@Z ; ioBaseChar::IsApplyDownState
  0010c	84 c0		 test	 al, al
  0010e	0f 85 62 01 00
	00		 jne	 $LN29@GetTargetL
$LN24@GetTargetL:

; 465  : 			continue;
; 466  : 
; 467  : 		if( pTarget->IsSystemState() )

  00114	8b cf		 mov	 ecx, edi
  00116	e8 00 00 00 00	 call	 ?IsSystemState@ioBaseChar@@QAE_NXZ ; ioBaseChar::IsSystemState
  0011b	84 c0		 test	 al, al
  0011d	0f 85 53 01 00
	00		 jne	 $LN29@GetTargetL

; 468  : 			continue;
; 469  : 			
; 470  : 		if( !pTarget->IsEnableTarget() )

  00123	6a 01		 push	 1
  00125	6a 01		 push	 1
  00127	8b cf		 mov	 ecx, edi
  00129	e8 00 00 00 00	 call	 ?IsEnableTarget@ioBaseChar@@QAE_N_N0@Z ; ioBaseChar::IsEnableTarget
  0012e	84 c0		 test	 al, al
  00130	0f 84 40 01 00
	00		 je	 $LN29@GetTargetL

; 471  : 			continue;
; 472  : 
; 473  : 		D3DXVECTOR3 vDiff = pTarget->GetWorldPosition() - pChar->GetWorldPosition();

  00136	8b 8d c0 7f ff
	ff		 mov	 ecx, DWORD PTR _pChar$GSCopy$[ebp]
  0013c	8b 01		 mov	 eax, DWORD PTR [ecx]
  0013e	ff 50 70	 call	 DWORD PTR [eax+112]
  00141	89 85 d4 7f ff
	ff		 mov	 DWORD PTR $T561893[ebp], eax
  00147	8b 07		 mov	 eax, DWORD PTR [edi]
  00149	8b cf		 mov	 ecx, edi
  0014b	ff 50 70	 call	 DWORD PTR [eax+112]
  0014e	8b 8d d4 7f ff
	ff		 mov	 ecx, DWORD PTR $T561893[ebp]
  00154	f3 0f 10 00	 movss	 xmm0, DWORD PTR [eax]
  00158	f3 0f 10 09	 movss	 xmm1, DWORD PTR [ecx]
  0015c	f3 0f 10 51 04	 movss	 xmm2, DWORD PTR [ecx+4]
  00161	f3 0f 10 59 08	 movss	 xmm3, DWORD PTR [ecx+8]
  00166	0f 5a c0	 cvtps2pd xmm0, xmm0
  00169	0f 5a c9	 cvtps2pd xmm1, xmm1
  0016c	f2 0f 5c c1	 subsd	 xmm0, xmm1
  00170	0f 57 c9	 xorps	 xmm1, xmm1
  00173	66 0f 5a c8	 cvtpd2ps xmm1, xmm0
  00177	f3 0f 10 40 04	 movss	 xmm0, DWORD PTR [eax+4]
  0017c	0f 5a c0	 cvtps2pd xmm0, xmm0
  0017f	0f 5a d2	 cvtps2pd xmm2, xmm2
  00182	f2 0f 5c c2	 subsd	 xmm0, xmm2
  00186	f3 0f 10 50 08	 movss	 xmm2, DWORD PTR [eax+8]
  0018b	66 0f 5a c0	 cvtpd2ps xmm0, xmm0
  0018f	0f 5a d2	 cvtps2pd xmm2, xmm2
  00192	0f 5a db	 cvtps2pd xmm3, xmm3
  00195	f2 0f 5c d3	 subsd	 xmm2, xmm3

; 474  : 		if( D3DXVec3LengthSq( &vDiff ) < m_fAimRange * m_fAimRange )

  00199	f3 0f 10 9b e4
	10 00 00	 movss	 xmm3, DWORD PTR [ebx+4324]
  001a1	f3 0f 5a c0	 cvtss2sd xmm0, xmm0
  001a5	0f 5a c9	 cvtps2pd xmm1, xmm1
  001a8	f2 0f 59 c0	 mulsd	 xmm0, xmm0
  001ac	66 0f 5a d2	 cvtpd2ps xmm2, xmm2
  001b0	f2 0f 59 c9	 mulsd	 xmm1, xmm1
  001b4	f2 0f 58 c8	 addsd	 xmm1, xmm0
  001b8	f3 0f 5a d2	 cvtss2sd xmm2, xmm2
  001bc	f2 0f 59 d2	 mulsd	 xmm2, xmm2
  001c0	0f 57 c0	 xorps	 xmm0, xmm0
  001c3	f2 0f 58 ca	 addsd	 xmm1, xmm2
  001c7	0f 5a db	 cvtps2pd xmm3, xmm3
  001ca	66 0f 5a c1	 cvtpd2ps xmm0, xmm1
  001ce	0f 5a c0	 cvtps2pd xmm0, xmm0
  001d1	f2 0f 59 db	 mulsd	 xmm3, xmm3
  001d5	66 0f 2f d8	 comisd	 xmm3, xmm0
  001d9	0f 86 97 00 00
	00		 jbe	 $LN29@GetTargetL

; 475  : 		{
; 476  : 			BaseCharHP kInfo;

  001df	8d 8d a0 7f ff
	ff		 lea	 ecx, DWORD PTR _kInfo$548822[ebp]
  001e5	ff 15 00 00 00
	00		 call	 DWORD PTR __imp_??0ioHashString@@QAE@XZ
  001eb	0f 57 c0	 xorps	 xmm0, xmm0
  001ee	f3 0f 11 85 b0
	7f ff ff	 movss	 DWORD PTR _kInfo$548822[ebp+16], xmm0
  001f6	c6 85 b4 7f ff
	ff 00		 mov	 BYTE PTR _kInfo$548822[ebp+20], 0
  001fd	83 65 fc 00	 and	 DWORD PTR __$EHRec$[ebp+8], 0

; 477  : 			kInfo.m_Name = pTarget->GetCharName();

  00201	8d 87 d4 02 00
	00		 lea	 eax, DWORD PTR [edi+724]
  00207	50		 push	 eax
  00208	8d 8d a0 7f ff
	ff		 lea	 ecx, DWORD PTR _kInfo$548822[ebp]
  0020e	ff 15 00 00 00
	00		 call	 DWORD PTR __imp_??4ioHashString@@QAEAAV0@ABV0@@Z

; 478  : 			kInfo.m_fHP = pTarget->GetHP().m_fCurValue;

  00214	8d 85 b8 7f ff
	ff		 lea	 eax, DWORD PTR _value$561909[ebp]
  0021a	50		 push	 eax
  0021b	8d 8f c0 00 00
	00		 lea	 ecx, DWORD PTR [edi+192]
  00221	e8 00 00 00 00	 call	 ?DecryptValueToPool@?$CEncrypt@M@@QAEXPAM@Z ; CEncrypt<float>::DecryptValueToPool
  00226	f3 0f 10 85 b8
	7f ff ff	 movss	 xmm0, DWORD PTR _value$561909[ebp]

; 479  : 			kInfo.m_bPrisoner = pTarget->IsPrisonerMode();

  0022e	8d 85 d3 7f ff
	ff		 lea	 eax, DWORD PTR _value$561921[ebp]
  00234	8d 8f cc 14 00
	00		 lea	 ecx, DWORD PTR [edi+5324]
  0023a	50		 push	 eax
  0023b	f3 0f 11 85 b0
	7f ff ff	 movss	 DWORD PTR _kInfo$548822[ebp+16], xmm0
  00243	e8 00 00 00 00	 call	 ?DecryptValueToPool@?$CEncrypt@_N@@QAEXPA_N@Z ; CEncrypt<bool>::DecryptValueToPool
  00248	8a 85 d3 7f ff
	ff		 mov	 al, BYTE PTR _value$561921[ebp]
  0024e	88 85 b4 7f ff
	ff		 mov	 BYTE PTR _kInfo$548822[ebp+20], al

; 480  : 
; 481  : 			m_vTargetInfoList.push_back(kInfo);

  00254	8d 85 a0 7f ff
	ff		 lea	 eax, DWORD PTR _kInfo$548822[ebp]
  0025a	50		 push	 eax
  0025b	8d 8b 64 13 00
	00		 lea	 ecx, DWORD PTR [ebx+4964]
  00261	e8 00 00 00 00	 call	 ?push_back@?$vector@UtagBaseCharHP@@V?$allocator@UtagBaseCharHP@@@std@@@std@@QAEXABUtagBaseCharHP@@@Z ; std::vector<tagBaseCharHP,std::allocator<tagBaseCharHP> >::push_back

; 482  : 		}

  00266	83 4d fc ff	 or	 DWORD PTR __$EHRec$[ebp+8], -1
  0026a	8d 8d a0 7f ff
	ff		 lea	 ecx, DWORD PTR _kInfo$548822[ebp]
  00270	ff 15 00 00 00
	00		 call	 DWORD PTR __imp_??1ioHashString@@QAE@XZ
$LN29@GetTargetL:

; 447  : 
; 448  : 	const BaseCharList &rkTargetList = pStage->GetBaseCharList();
; 449  : 
; 450  : 	BaseCharList::const_iterator iter;
; 451  : 	for( iter = rkTargetList.begin(); iter != rkTargetList.end(); ++iter )

  00276	8b 85 c8 7f ff
	ff		 mov	 eax, DWORD PTR _iter$[ebp]
  0027c	8b 8d bc 7f ff
	ff		 mov	 ecx, DWORD PTR _pStage$GSCopy$[ebp]
  00282	83 c0 04	 add	 eax, 4
  00285	3b 41 30	 cmp	 eax, DWORD PTR [ecx+48]
$LN158@GetTargetL:
  00288	89 85 c8 7f ff
	ff		 mov	 DWORD PTR _iter$[ebp], eax
  0028e	0f 85 ff fd ff
	ff		 jne	 $LL65@GetTargetL

; 483  : 	}
; 484  : 
; 485  : 	std::sort( m_vTargetInfoList.begin(), m_vTargetInfoList.end(), BaseCharHPSort() );	

  00294	ff b5 bc 7f ff
	ff		 push	 DWORD PTR $T561706[ebp]
  0029a	8b 83 68 13 00
	00		 mov	 eax, DWORD PTR [ebx+4968]
  002a0	8b 8b 64 13 00
	00		 mov	 ecx, DWORD PTR [ebx+4964]
  002a6	50		 push	 eax
  002a7	51		 push	 ecx
  002a8	e8 00 00 00 00	 call	 ??$sort@V?$_Vector_iterator@V?$_Vector_val@UtagBaseCharHP@@V?$allocator@UtagBaseCharHP@@@std@@@std@@@std@@VBaseCharHPSort@@@std@@YAXV?$_Vector_iterator@V?$_Vector_val@UtagBaseCharHP@@V?$allocator@UtagBaseCharHP@@@std@@@std@@@0@0VBaseCharHPSort@@@Z ; std::sort<std::_Vector_iterator<std::_Vector_val<tagBaseCharHP,std::allocator<tagBaseCharHP> > >,BaseCharHPSort>

; 486  : 
; 487  : 	bool bSendPacket = false;
; 488  : 	if ( m_szAimedTarget.IsEmpty() )

  002ad	8d bb 3c 13 00
	00		 lea	 edi, DWORD PTR [ebx+4924]
  002b3	83 c4 0c	 add	 esp, 12			; 0000000cH
  002b6	8b cf		 mov	 ecx, edi
  002b8	89 bd d4 7f ff
	ff		 mov	 DWORD PTR tv837[ebp], edi
  002be	ff 15 00 00 00
	00		 call	 DWORD PTR __imp_?IsEmpty@ioHashString@@QBE_NXZ
  002c4	84 c0		 test	 al, al
  002c6	74 20		 je	 SHORT $LN20@GetTargetL

; 489  : 	{
; 490  : 		if( !m_vTargetInfoList.empty() )

  002c8	8b 83 64 13 00
	00		 mov	 eax, DWORD PTR [ebx+4964]
  002ce	3b 83 68 13 00
	00		 cmp	 eax, DWORD PTR [ebx+4968]
  002d4	0f 84 bb 01 00
	00		 je	 $LN31@GetTargetL

; 491  : 		{
; 492  : 			m_szAimedTarget = m_vTargetInfoList[0].m_Name;

  002da	8b cf		 mov	 ecx, edi
$LN161@GetTargetL:
  002dc	50		 push	 eax
  002dd	ff 15 00 00 00
	00		 call	 DWORD PTR __imp_??4ioHashString@@QAEAAV0@ABV0@@Z

; 493  : 			bSendPacket = true;
; 494  : 		}		
; 495  : 	}

  002e3	e9 24 01 00 00	 jmp	 $LN2@GetTargetL
$LN20@GetTargetL:

; 496  : 	else if ( !m_vTargetInfoList.empty() )

  002e8	8b 8b 64 13 00
	00		 mov	 ecx, DWORD PTR [ebx+4964]
  002ee	8b 83 68 13 00
	00		 mov	 eax, DWORD PTR [ebx+4968]
  002f4	3b c8		 cmp	 ecx, eax
  002f6	0f 84 ef 00 00
	00		 je	 $LN17@GetTargetL

; 499  : 
; 500  : 		int nCnt = m_vTargetInfoList.size();

  002fc	2b c1		 sub	 eax, ecx
  002fe	6a 18		 push	 24			; 00000018H
  00300	99		 cdq
  00301	59		 pop	 ecx
  00302	f7 f9		 idiv	 ecx

; 501  : 		for( int i=0; i<nCnt; ++i )

  00304	83 a5 cc 7f ff
	ff 00		 and	 DWORD PTR _i$548966[ebp], 0
  0030b	83 cf ff	 or	 edi, -1
  0030e	89 85 c8 7f ff
	ff		 mov	 DWORD PTR _nCnt$548965[ebp], eax
  00314	85 c0		 test	 eax, eax
  00316	0f 8e b3 00 00
	00		 jle	 $LN12@GetTargetL

; 497  : 	{
; 498  : 		int nCurTarget = -1;

  0031c	83 a5 c4 7f ff
	ff 00		 and	 DWORD PTR tv1036[ebp], 0
$LN16@GetTargetL:

; 502  : 		{
; 503  : 			if( m_szAimedTarget == m_vTargetInfoList[i].m_Name )

  00323	8b 83 64 13 00
	00		 mov	 eax, DWORD PTR [ebx+4964]
  00329	03 85 c4 7f ff
	ff		 add	 eax, DWORD PTR tv1036[ebp]
  0032f	8b 8d d4 7f ff
	ff		 mov	 ecx, DWORD PTR tv837[ebp]
  00335	50		 push	 eax
  00336	ff 15 00 00 00
	00		 call	 DWORD PTR __imp_??8ioHashString@@QBE_NABV0@@Z
  0033c	84 c0		 test	 al, al

; 504  : 				nCurTarget = i;

  0033e	0f 45 bd cc 7f
	ff ff		 cmovne	 edi, DWORD PTR _i$548966[ebp]
  00345	ff 85 cc 7f ff
	ff		 inc	 DWORD PTR _i$548966[ebp]
  0034b	8b 85 cc 7f ff
	ff		 mov	 eax, DWORD PTR _i$548966[ebp]
  00351	83 85 c4 7f ff
	ff 18		 add	 DWORD PTR tv1036[ebp], 24 ; 00000018H
  00358	3b 85 c8 7f ff
	ff		 cmp	 eax, DWORD PTR _nCnt$548965[ebp]
  0035e	7c c3		 jl	 SHORT $LN16@GetTargetL

; 505  : 		}
; 506  : 
; 507  : 		if ( nCurTarget != -1 )

  00360	83 ff ff	 cmp	 edi, -1
  00363	74 6a		 je	 SHORT $LN12@GetTargetL

; 508  : 		{
; 509  : 			if( m_bChangeTargetPrev )

  00365	80 bb 74 13 00
	00 00		 cmp	 BYTE PTR [ebx+4980], 0
  0036c	74 13		 je	 SHORT $LN11@GetTargetL

; 510  : 			{
; 511  : 				nCurTarget--;

  0036e	4f		 dec	 edi

; 512  : 				m_bChangeTargetPrev = false;

  0036f	c6 83 74 13 00
	00 00		 mov	 BYTE PTR [ebx+4980], 0

; 513  : 
; 514  : 				if( nCurTarget < 0 )

  00376	79 24		 jns	 SHORT $LN7@GetTargetL

; 515  : 					nCurTarget = nCnt-1;

  00378	8b bd c8 7f ff
	ff		 mov	 edi, DWORD PTR _nCnt$548965[ebp]
  0037e	4f		 dec	 edi

; 516  : 			}

  0037f	eb 1b		 jmp	 SHORT $LN7@GetTargetL
$LN11@GetTargetL:

; 517  : 			else if( m_bChangeTargetNext )

  00381	80 bb 75 13 00
	00 00		 cmp	 BYTE PTR [ebx+4981], 0
  00388	74 12		 je	 SHORT $LN7@GetTargetL

; 518  : 			{
; 519  : 				nCurTarget++;

  0038a	47		 inc	 edi

; 520  : 				m_bChangeTargetNext = false;

  0038b	c6 83 75 13 00
	00 00		 mov	 BYTE PTR [ebx+4981], 0

; 521  : 
; 522  : 				if( nCurTarget >= nCnt )

  00392	3b bd c8 7f ff
	ff		 cmp	 edi, DWORD PTR _nCnt$548965[ebp]
  00398	7c 02		 jl	 SHORT $LN7@GetTargetL

; 523  : 					nCurTarget = 0;

  0039a	33 ff		 xor	 edi, edi
$LN7@GetTargetL:

; 524  : 			}
; 525  : 
; 526  : 			if( m_szAimedTarget != m_vTargetInfoList[nCurTarget].m_Name )

  0039c	8b 83 64 13 00
	00		 mov	 eax, DWORD PTR [ebx+4964]
  003a2	6b ff 18	 imul	 edi, 24			; 00000018H
  003a5	8b 8d d4 7f ff
	ff		 mov	 ecx, DWORD PTR tv837[ebp]
  003ab	03 c7		 add	 eax, edi
  003ad	50		 push	 eax
  003ae	ff 15 00 00 00
	00		 call	 DWORD PTR __imp_??9ioHashString@@QBE_NABV0@@Z
  003b4	84 c0		 test	 al, al
  003b6	0f 84 d9 00 00
	00		 je	 $LN31@GetTargetL

; 527  : 			{
; 528  : 				m_szAimedTarget = m_vTargetInfoList[nCurTarget].m_Name;

  003bc	8b 83 64 13 00
	00		 mov	 eax, DWORD PTR [ebx+4964]
  003c2	8b 8d d4 7f ff
	ff		 mov	 ecx, DWORD PTR tv837[ebp]
  003c8	03 c7		 add	 eax, edi

; 529  : 				bSendPacket = true;
; 530  : 			}
; 531  : 		}

  003ca	e9 0d ff ff ff	 jmp	 $LN161@GetTargetL
$LN12@GetTargetL:

; 532  : 		else if ( !m_szAimedTarget.IsEmpty() )

  003cf	8b 8d d4 7f ff
	ff		 mov	 ecx, DWORD PTR tv837[ebp]
  003d5	ff 15 00 00 00
	00		 call	 DWORD PTR __imp_?IsEmpty@ioHashString@@QBE_NXZ
  003db	84 c0		 test	 al, al
  003dd	0f 85 b2 00 00
	00		 jne	 $LN31@GetTargetL

; 533  : 		{
; 534  : 			m_szAimedTarget.Clear();

  003e3	8b 8d d4 7f ff
	ff		 mov	 ecx, DWORD PTR tv837[ebp]

; 535  : 			bSendPacket = true;
; 536  : 			m_bChangeTargetPrev = false;
; 537  : 			m_bChangeTargetNext = false;
; 538  : 		}
; 539  : 
; 540  : 	}
; 541  : 	else

  003e9	eb 12		 jmp	 SHORT $LN159@GetTargetL
$LN17@GetTargetL:

; 542  : 	{
; 543  : 		if ( !m_szAimedTarget.IsEmpty() )

  003eb	8b cf		 mov	 ecx, edi
  003ed	ff 15 00 00 00
	00		 call	 DWORD PTR __imp_?IsEmpty@ioHashString@@QBE_NXZ
  003f3	84 c0		 test	 al, al
  003f5	0f 85 9a 00 00
	00		 jne	 $LN31@GetTargetL

; 544  : 		{
; 545  : 			m_szAimedTarget.Clear();

  003fb	8b cf		 mov	 ecx, edi
$LN159@GetTargetL:
  003fd	ff 15 00 00 00
	00		 call	 DWORD PTR __imp_?Clear@ioHashString@@QAEXXZ

; 546  : 			bSendPacket = true;
; 547  : 			m_bChangeTargetPrev = false;

  00403	66 c7 83 74 13
	00 00 00 00	 mov	 WORD PTR [ebx+4980], 0
$LN2@GetTargetL:

; 548  : 			m_bChangeTargetNext = false;
; 549  : 		}
; 550  : 	}
; 551  : 
; 552  : 	if ( bSendPacket && pChar->IsNeedSendNetwork() )

  0040c	8b b5 c0 7f ff
	ff		 mov	 esi, DWORD PTR _pChar$GSCopy$[ebp]
  00412	8b 06		 mov	 eax, DWORD PTR [esi]
  00414	8b ce		 mov	 ecx, esi
  00416	ff 90 04 01 00
	00		 call	 DWORD PTR [eax+260]
  0041c	84 c0		 test	 al, al
  0041e	74 75		 je	 SHORT $LN31@GetTargetL

; 553  : 	{
; 554  : 		SP2Packet kPacket( CUPK_SKILL_EXTRA_INFO );

  00420	68 39 41 00 00	 push	 16697			; 00004139H
  00425	8d 8d d8 7f ff
	ff		 lea	 ecx, DWORD PTR _kPacket$548983[ebp]
  0042b	e8 00 00 00 00	 call	 ??0SP2Packet@@QAE@K@Z	; SP2Packet::SP2Packet

; 555  : 		kPacket << pChar->GetCharName();

  00430	81 c6 d4 02 00
	00		 add	 esi, 724		; 000002d4H
  00436	56		 push	 esi
  00437	8d 8d d8 7f ff
	ff		 lea	 ecx, DWORD PTR _kPacket$548983[ebp]
  0043d	c7 45 fc 01 00
	00 00		 mov	 DWORD PTR __$EHRec$[ebp+8], 1
  00444	e8 00 00 00 00	 call	 ??6SP2Packet@@QAEAAV0@ABVioHashString@@@Z ; SP2Packet::operator<<

; 556  : 		kPacket << GetName();

  00449	83 c3 24	 add	 ebx, 36			; 00000024H
  0044c	53		 push	 ebx
  0044d	8d 8d d8 7f ff
	ff		 lea	 ecx, DWORD PTR _kPacket$548983[ebp]
  00453	e8 00 00 00 00	 call	 ??6SP2Packet@@QAEAAV0@ABVioHashString@@@Z ; SP2Packet::operator<<

; 557  : 		kPacket << SS_TARGET;

  00458	6a 03		 push	 3
  0045a	8d 8d d8 7f ff
	ff		 lea	 ecx, DWORD PTR _kPacket$548983[ebp]
  00460	e8 00 00 00 00	 call	 ??6SP2Packet@@QAEAAV0@H@Z ; SP2Packet::operator<<

; 558  : 		kPacket << m_szAimedTarget;

  00465	ff b5 d4 7f ff
	ff		 push	 DWORD PTR tv837[ebp]
  0046b	8d 8d d8 7f ff
	ff		 lea	 ecx, DWORD PTR _kPacket$548983[ebp]
  00471	e8 00 00 00 00	 call	 ??6SP2Packet@@QAEAAV0@ABVioHashString@@@Z ; SP2Packet::operator<<

; 559  : 		P2PNetwork::SendToAllPlayingUser( kPacket );

  00476	8d 85 d8 7f ff
	ff		 lea	 eax, DWORD PTR _kPacket$548983[ebp]
  0047c	6a 00		 push	 0
  0047e	50		 push	 eax
  0047f	e8 00 00 00 00	 call	 ?SendToAllPlayingUser@P2PNetwork@@YAXAAVSP2Packet@@PAVioBaseChar@@@Z ; P2PNetwork::SendToAllPlayingUser

; 560  : 	}

  00484	83 4d fc ff	 or	 DWORD PTR __$EHRec$[ebp+8], -1
  00488	59		 pop	 ecx
  00489	59		 pop	 ecx
  0048a	8d 8d d8 7f ff
	ff		 lea	 ecx, DWORD PTR _kPacket$548983[ebp]
  00490	e8 00 00 00 00	 call	 ??1SP2Packet@@UAE@XZ	; SP2Packet::~SP2Packet
$LN31@GetTargetL:

; 561  : }

  00495	8b 4d f4	 mov	 ecx, DWORD PTR __$EHRec$[ebp]
  00498	64 89 0d 00 00
	00 00		 mov	 DWORD PTR fs:0, ecx
  0049f	59		 pop	 ecx
  004a0	5f		 pop	 edi
  004a1	5e		 pop	 esi
  004a2	5b		 pop	 ebx
  004a3	8b 4d f0	 mov	 ecx, DWORD PTR __$ArrayPad$[ebp]
  004a6	33 cd		 xor	 ecx, ebp
  004a8	e8 00 00 00 00	 call	 @__security_check_cookie@4
  004ad	c9		 leave
  004ae	c2 08 00	 ret	 8
_TEXT	ENDS
;	COMDAT text$x
text$x	SEGMENT
__unwindfunclet$?GetTargetList@ioTargetTimingAttackSkill@@IAEXPAVioBaseChar@@PAVioPlayStage@@@Z$0:
  00000	8d 8d a0 7f ff
	ff		 lea	 ecx, DWORD PTR _kInfo$548822[ebp]
  00006	e9 00 00 00 00	 jmp	 ??1tagBaseCharHP@@QAE@XZ
__unwindfunclet$?GetTargetList@ioTargetTimingAttackSkill@@IAEXPAVioBaseChar@@PAVioPlayStage@@@Z$1:
  0000b	8d 8d d8 7f ff
	ff		 lea	 ecx, DWORD PTR _kPacket$548983[ebp]
  00011	e9 00 00 00 00	 jmp	 ??1SP2Packet@@UAE@XZ	; SP2Packet::~SP2Packet
__ehhandler$?GetTargetList@ioTargetTimingAttackSkill@@IAEXPAVioBaseChar@@PAVioPlayStage@@@Z:
  00016	8b 54 24 08	 mov	 edx, DWORD PTR [esp+8]
  0001a	8d 42 0c	 lea	 eax, DWORD PTR [edx+12]
  0001d	8b 8a 9c 7f ff
	ff		 mov	 ecx, DWORD PTR [edx-32868]
  00023	33 c8		 xor	 ecx, eax
  00025	e8 00 00 00 00	 call	 @__security_check_cookie@4
  0002a	8b 4a fc	 mov	 ecx, DWORD PTR [edx-4]
  0002d	33 c8		 xor	 ecx, eax
  0002f	e8 00 00 00 00	 call	 @__security_check_cookie@4
  00034	b8 00 00 00 00	 mov	 eax, OFFSET __ehfuncinfo$?GetTargetList@ioTargetTimingAttackSkill@@IAEXPAVioBaseChar@@PAVioPlayStage@@@Z
  00039	e9 00 00 00 00	 jmp	 ___CxxFrameHandler3
text$x	ENDS
?GetTargetList@ioTargetTimingAttackSkill@@IAEXPAVioBaseChar@@PAVioPlayStage@@@Z ENDP ; ioTargetTimingAttackSkill::GetTargetList
PUBLIC	__real@41f0000000000000
PUBLIC	__$ArrayPad$
PUBLIC	?SetAttackState@ioTargetTimingAttackSkill@@IAEXPAVioBaseChar@@W4SkillState@1@@Z ; ioTargetTimingAttackSkill::SetAttackState
EXTRN	??6SP2Packet@@QAEAAV0@ABUD3DXVECTOR3@@@Z:PROC	; SP2Packet::operator<<
EXTRN	??6SP2Packet@@QAEAAV0@ABUD3DXQUATERNION@@@Z:PROC ; SP2Packet::operator<<
EXTRN	__imp_?GetAnimationFullTime@ioEntityGroup@@QAEMH@Z:PROC
EXTRN	?RefreshFireTimeList@ioBaseChar@@QAEXHABV?$vector@UWeaponInfo@@V?$allocator@UWeaponInfo@@@std@@@std@@W4FireTimeType@@MK_N@Z:PROC ; ioBaseChar::RefreshFireTimeList
EXTRN	?CheckCharColSkipSkillTime@ioBaseChar@@QAEXHMK@Z:PROC ; ioBaseChar::CheckCharColSkipSkillTime
EXTRN	?SetReservedSliding@ioBaseChar@@QAEXABV?$vector@UForceInfo@@V?$allocator@UForceInfo@@@std@@@std@@HMKM_N@Z:PROC ; ioBaseChar::SetReservedSliding
EXTRN	__imp_?SetActionAni@ioEntityGroup@@QAE_NHMMMMMM_N0@Z:PROC
EXTRN	?IsFloating@ioBaseChar@@QAE_NXZ:PROC		; ioBaseChar::IsFloating
EXTRN	__ftol2:PROC
;	COMDAT __real@41f0000000000000
; File d:\lost saga for developer\youtube\tutorial\source\src\lsclient\ioskill.h
CONST	SEGMENT
__real@41f0000000000000 DQ 041f0000000000000r	; 4.29497e+009
CONST	ENDS
;	COMDAT xdata$x
xdata$x	SEGMENT
__unwindtable$?SetAttackState@ioTargetTimingAttackSkill@@IAEXPAVioBaseChar@@W4SkillState@1@@Z DD 0ffffffffH
	DD	FLAT:__unwindfunclet$?SetAttackState@ioTargetTimingAttackSkill@@IAEXPAVioBaseChar@@W4SkillState@1@@Z$1
	DD	0ffffffffH
	DD	FLAT:__unwindfunclet$?SetAttackState@ioTargetTimingAttackSkill@@IAEXPAVioBaseChar@@W4SkillState@1@@Z$2
	DD	0ffffffffH
	DD	FLAT:__unwindfunclet$?SetAttackState@ioTargetTimingAttackSkill@@IAEXPAVioBaseChar@@W4SkillState@1@@Z$0
__ehfuncinfo$?SetAttackState@ioTargetTimingAttackSkill@@IAEXPAVioBaseChar@@W4SkillState@1@@Z DD 019930522H
	DD	03H
	DD	FLAT:__unwindtable$?SetAttackState@ioTargetTimingAttackSkill@@IAEXPAVioBaseChar@@W4SkillState@1@@Z
	DD	2 DUP(00H)
	DD	2 DUP(00H)
	DD	00H
	DD	01H
; Function compile flags: /Ogsp
; File d:\lost saga for developer\youtube\tutorial\source\src\lsclient\iotargettimingattackskill.cpp
xdata$x	ENDS
;	COMDAT ?SetAttackState@ioTargetTimingAttackSkill@@IAEXPAVioBaseChar@@W4SkillState@1@@Z
_TEXT	SEGMENT
tv2124 = -32872						; size = 4
tv2114 = -32872						; size = 4
tv2103 = -32872						; size = 4
_bFloating$ = -32868					; size = 1
tv2153 = -32864						; size = 4
_dwCurTime$ = -32864					; size = 4
$T562292 = -32860					; size = 4
$T562154 = -32860					; size = 4
_pGrp$ = -32856						; size = 4
_fTimeRate$ = -32852					; size = 4
_nAniID$ = -32848					; size = 4
_kPacket$549097 = -32844				; size = 32792
$T562293 = -52						; size = 16
_szEncEventType$562055 = -52				; size = 13
_szEncEventType$562193 = -32				; size = 12
$T562155 = -32						; size = 16
__$ArrayPad$ = -16					; size = 4
__$EHRec$ = -12						; size = 12
_pChar$ = 8						; size = 4
_eState$ = 12						; size = 4
?SetAttackState@ioTargetTimingAttackSkill@@IAEXPAVioBaseChar@@W4SkillState@1@@Z PROC ; ioTargetTimingAttackSkill::SetAttackState, COMDAT
; _this$ = ecx

; 700  : {

  00000	55		 push	 ebp
  00001	8b ec		 mov	 ebp, esp
  00003	6a ff		 push	 -1
  00005	68 00 00 00 00	 push	 __ehhandler$?SetAttackState@ioTargetTimingAttackSkill@@IAEXPAVioBaseChar@@W4SkillState@1@@Z
  0000a	64 a1 00 00 00
	00		 mov	 eax, DWORD PTR fs:0
  00010	50		 push	 eax
  00011	b8 5c 80 00 00	 mov	 eax, 32860		; 0000805cH
  00016	e8 00 00 00 00	 call	 __chkstk
  0001b	a1 00 00 00 00	 mov	 eax, DWORD PTR ___security_cookie
  00020	33 c5		 xor	 eax, ebp
  00022	89 45 f0	 mov	 DWORD PTR __$ArrayPad$[ebp], eax
  00025	53		 push	 ebx
  00026	56		 push	 esi
  00027	57		 push	 edi
  00028	50		 push	 eax
  00029	8d 45 f4	 lea	 eax, DWORD PTR __$EHRec$[ebp]
  0002c	64 a3 00 00 00
	00		 mov	 DWORD PTR fs:0, eax
  00032	8b 5d 08	 mov	 ebx, DWORD PTR _pChar$[ebp]
  00035	8b f1		 mov	 esi, ecx

; 701  : 	if ( !pChar )

  00037	85 db		 test	 ebx, ebx
  00039	0f 84 43 04 00
	00		 je	 $LN1@SetAttackS

; 702  : 		return;
; 703  : 	
; 704  : 	bool bFloating = false;
; 705  : 	if ( pChar->IsNeedProcess() )

  0003f	8b 03		 mov	 eax, DWORD PTR [ebx]
  00041	8b cb		 mov	 ecx, ebx
  00043	c6 85 9c 7f ff
	ff 00		 mov	 BYTE PTR _bFloating$[ebp], 0
  0004a	ff 90 00 01 00
	00		 call	 DWORD PTR [eax+256]
  00050	84 c0		 test	 al, al
  00052	74 60		 je	 SHORT $LN3@SetAttackS

; 706  : 	{
; 707  : 		if ( pChar->IsFloating() )

  00054	8b cb		 mov	 ecx, ebx
  00056	e8 00 00 00 00	 call	 ?IsFloating@ioBaseChar@@QAE_NXZ ; ioBaseChar::IsFloating
  0005b	84 c0		 test	 al, al
  0005d	74 2f		 je	 SHORT $LN10@SetAttackS

; 708  : 		{
; 709  : 			if ( eState == SS_AIM_ATTACK )

  0005f	83 7d 0c 04	 cmp	 DWORD PTR _eState$[ebp], 4
  00063	75 08		 jne	 SHORT $LN9@SetAttackS

; 710  : 				m_CurAttack = m_JumpAimedAttack;

  00065	8d 86 14 12 00
	00		 lea	 eax, DWORD PTR [esi+4628]
  0006b	eb 0c		 jmp	 SHORT $LN251@SetAttackS
$LN9@SetAttackS:

; 711  : 			else if ( eState == SS_ZERO_AIM_ATTACK )

  0006d	83 7d 0c 05	 cmp	 DWORD PTR _eState$[ebp], 5
  00071	75 12		 jne	 SHORT $LN7@SetAttackS

; 712  : 				m_CurAttack = m_JumpZeroAimedAttack;

  00073	8d 86 64 12 00
	00		 lea	 eax, DWORD PTR [esi+4708]
$LN251@SetAttackS:
  00079	50		 push	 eax
  0007a	8d 8e 7c 13 00
	00		 lea	 ecx, DWORD PTR [esi+4988]
  00080	e8 00 00 00 00	 call	 ??4AttackAttribute@@QAEAAU0@ABU0@@Z
$LN7@SetAttackS:

; 713  : 			bFloating = true;

  00085	c6 85 9c 7f ff
	ff 01		 mov	 BYTE PTR _bFloating$[ebp], 1

; 714  : 		}
; 715  : 		else

  0008c	eb 26		 jmp	 SHORT $LN3@SetAttackS
$LN10@SetAttackS:

; 716  : 		{
; 717  : 			if ( eState == SS_AIM_ATTACK )

  0008e	83 7d 0c 04	 cmp	 DWORD PTR _eState$[ebp], 4
  00092	75 08		 jne	 SHORT $LN5@SetAttackS

; 718  : 				m_CurAttack = m_NormalAimedAttack;

  00094	8d 86 24 11 00
	00		 lea	 eax, DWORD PTR [esi+4388]
  0009a	eb 0c		 jmp	 SHORT $LN252@SetAttackS
$LN5@SetAttackS:

; 719  : 			else if ( eState == SS_ZERO_AIM_ATTACK )

  0009c	83 7d 0c 05	 cmp	 DWORD PTR _eState$[ebp], 5
  000a0	75 12		 jne	 SHORT $LN3@SetAttackS

; 720  : 				m_CurAttack = m_NormalZeroAimedAttack;

  000a2	8d 86 74 11 00
	00		 lea	 eax, DWORD PTR [esi+4468]
$LN252@SetAttackS:
  000a8	50		 push	 eax
  000a9	8d 8e 7c 13 00
	00		 lea	 ecx, DWORD PTR [esi+4988]
  000af	e8 00 00 00 00	 call	 ??4AttackAttribute@@QAEAAU0@ABU0@@Z
$LN3@SetAttackS:

; 721  : 		}
; 722  : 	}
; 723  : 
; 724  : 	ioEntityGroup *pGrp = pChar->GetGroup();

  000b4	8b 4b 04	 mov	 ecx, DWORD PTR [ebx+4]

; 725  : 
; 726  : 	int nAniID = pGrp->GetAnimationIdx( m_CurAttack.m_AttackAnimation );

  000b7	8d 86 7c 13 00
	00		 lea	 eax, DWORD PTR [esi+4988]
  000bd	50		 push	 eax
  000be	89 8d a8 7f ff
	ff		 mov	 DWORD PTR _pGrp$[ebp], ecx
  000c4	ff 15 00 00 00
	00		 call	 DWORD PTR __imp_?GetAnimationIdx@ioEntityGroup@@QAEHABVioHashString@@@Z
  000ca	89 85 b0 7f ff
	ff		 mov	 DWORD PTR _nAniID$[ebp], eax

; 727  : 	if( nAniID == -1 )	

  000d0	83 f8 ff	 cmp	 eax, -1
  000d3	0f 84 a9 03 00
	00		 je	 $LN1@SetAttackS

; 728  : 		return;
; 729  : 
; 730  : 	float fTimeRate  = m_CurAttack.m_fAttackAniRate;

  000d9	f3 0f 10 86 8c
	13 00 00	 movss	 xmm0, DWORD PTR [esi+5004]

; 731  : 	DWORD dwPreDelay = m_CurAttack.m_dwPreDelay;

  000e1	8b be c4 13 00
	00		 mov	 edi, DWORD PTR [esi+5060]

; 732  : 
; 733  : 	pGrp->ClearAllLoopAni( 100.0f, true );

  000e7	6a 01		 push	 1
  000e9	51		 push	 ecx
  000ea	8b 8d a8 7f ff
	ff		 mov	 ecx, DWORD PTR _pGrp$[ebp]
  000f0	f3 0f 11 85 ac
	7f ff ff	 movss	 DWORD PTR _fTimeRate$[ebp], xmm0
  000f8	f3 0f 10 05 00
	00 00 00	 movss	 xmm0, DWORD PTR __real@42c80000
  00100	f3 0f 11 04 24	 movss	 DWORD PTR [esp], xmm0
  00105	ff 15 00 00 00
	00		 call	 DWORD PTR __imp_?ClearAllLoopAni@ioEntityGroup@@QAEXM_N@Z

; 734  : 	pGrp->ClearAllActionAni( 100.0f, true );

  0010b	f3 0f 10 05 00
	00 00 00	 movss	 xmm0, DWORD PTR __real@42c80000
  00113	6a 01		 push	 1
  00115	51		 push	 ecx
  00116	8b 8d a8 7f ff
	ff		 mov	 ecx, DWORD PTR _pGrp$[ebp]
  0011c	f3 0f 11 04 24	 movss	 DWORD PTR [esp], xmm0
  00121	ff 15 00 00 00
	00		 call	 DWORD PTR __imp_?ClearAllActionAni@ioEntityGroup@@QAEXM_N@Z

; 735  : 
; 736  : 	pGrp->SetActionAni( nAniID, 100.0f, 100.0f, 1.0f, 1.0f/fTimeRate, 0.0f, dwPreDelay );

  00127	8b c7		 mov	 eax, edi
  00129	6a 01		 push	 1
  0012b	89 85 a0 7f ff
	ff		 mov	 DWORD PTR tv2153[ebp], eax
  00131	db 85 a0 7f ff
	ff		 fild	 DWORD PTR tv2153[ebp]
  00137	6a 00		 push	 0
  00139	85 c0		 test	 eax, eax
  0013b	79 06		 jns	 SHORT $LN246@SetAttackS
  0013d	d8 05 00 00 00
	00		 fadd	 DWORD PTR __real@4f800000
$LN246@SetAttackS:
  00143	0f 57 c0	 xorps	 xmm0, xmm0
  00146	f2 0f 10 0d 00
	00 00 00	 movsd	 xmm1, QWORD PTR __real@3ff0000000000000
  0014e	8b 8d a8 7f ff
	ff		 mov	 ecx, DWORD PTR _pGrp$[ebp]
  00154	83 ec 18	 sub	 esp, 24			; 00000018H
  00157	d9 5c 24 14	 fstp	 DWORD PTR [esp+20]
  0015b	f3 0f 11 44 24
	10		 movss	 DWORD PTR [esp+16], xmm0
  00161	f3 0f 10 85 ac
	7f ff ff	 movss	 xmm0, DWORD PTR _fTimeRate$[ebp]
  00169	0f 5a c0	 cvtps2pd xmm0, xmm0
  0016c	f2 0f 5e c8	 divsd	 xmm1, xmm0
  00170	66 0f 5a c1	 cvtpd2ps xmm0, xmm1
  00174	f3 0f 11 44 24
	0c		 movss	 DWORD PTR [esp+12], xmm0
  0017a	f3 0f 10 05 00
	00 00 00	 movss	 xmm0, DWORD PTR __real@3f800000
  00182	f3 0f 11 44 24
	08		 movss	 DWORD PTR [esp+8], xmm0
  00188	f3 0f 10 05 00
	00 00 00	 movss	 xmm0, DWORD PTR __real@42c80000
  00190	f3 0f 11 44 24
	04		 movss	 DWORD PTR [esp+4], xmm0
  00196	f3 0f 11 04 24	 movss	 DWORD PTR [esp], xmm0
  0019b	ff b5 b0 7f ff
	ff		 push	 DWORD PTR _nAniID$[ebp]
  001a1	ff 15 00 00 00
	00		 call	 DWORD PTR __imp_?SetActionAni@ioEntityGroup@@QAE_NHMMMMMM_N0@Z

; 737  : 
; 738  : 	pChar->ClearReservedSliding();

  001a7	8b cb		 mov	 ecx, ebx
  001a9	e8 00 00 00 00	 call	 ?ClearReservedSliding@ioBaseChar@@QAEXXZ ; ioBaseChar::ClearReservedSliding

; 739  : 	pChar->SetReservedSliding( m_CurAttack.m_vForceInfoList, nAniID, fTimeRate, dwPreDelay );

  001ae	f3 0f 10 05 00
	00 00 00	 movss	 xmm0, DWORD PTR __real@3f800000
  001b6	6a 01		 push	 1
  001b8	51		 push	 ecx
  001b9	f3 0f 11 04 24	 movss	 DWORD PTR [esp], xmm0
  001be	f3 0f 10 85 ac
	7f ff ff	 movss	 xmm0, DWORD PTR _fTimeRate$[ebp]
  001c6	57		 push	 edi
  001c7	51		 push	 ecx
  001c8	f3 0f 11 04 24	 movss	 DWORD PTR [esp], xmm0
  001cd	ff b5 b0 7f ff
	ff		 push	 DWORD PTR _nAniID$[ebp]
  001d3	8d 86 b4 13 00
	00		 lea	 eax, DWORD PTR [esi+5044]
  001d9	50		 push	 eax
  001da	8b cb		 mov	 ecx, ebx
  001dc	e8 00 00 00 00	 call	 ?SetReservedSliding@ioBaseChar@@QAEXABV?$vector@UForceInfo@@V?$allocator@UForceInfo@@@std@@@std@@HMKM_N@Z ; ioBaseChar::SetReservedSliding

; 740  : 	pChar->CheckCharColSkipSkillTime( nAniID, fTimeRate, dwPreDelay );

  001e1	f3 0f 10 85 ac
	7f ff ff	 movss	 xmm0, DWORD PTR _fTimeRate$[ebp]
  001e9	57		 push	 edi
  001ea	51		 push	 ecx
  001eb	f3 0f 11 04 24	 movss	 DWORD PTR [esp], xmm0
  001f0	ff b5 b0 7f ff
	ff		 push	 DWORD PTR _nAniID$[ebp]
  001f6	8b cb		 mov	 ecx, ebx
  001f8	e8 00 00 00 00	 call	 ?CheckCharColSkipSkillTime@ioBaseChar@@QAEXHMK@Z ; ioBaseChar::CheckCharColSkipSkillTime

; 741  : 
; 742  : 	pChar->RefreshFireTimeList( nAniID, m_CurAttack.m_vWeaponInfoList, FTT_SKILL_ATTACK, fTimeRate, dwPreDelay );

  001fd	f3 0f 10 85 ac
	7f ff ff	 movss	 xmm0, DWORD PTR _fTimeRate$[ebp]
  00205	6a 00		 push	 0
  00207	57		 push	 edi
  00208	51		 push	 ecx
  00209	f3 0f 11 04 24	 movss	 DWORD PTR [esp], xmm0
  0020e	6a 04		 push	 4
  00210	8d 86 a4 13 00
	00		 lea	 eax, DWORD PTR [esi+5028]
  00216	50		 push	 eax
  00217	ff b5 b0 7f ff
	ff		 push	 DWORD PTR _nAniID$[ebp]
  0021d	8b cb		 mov	 ecx, ebx
  0021f	e8 00 00 00 00	 call	 ?RefreshFireTimeList@ioBaseChar@@QAEXHABV?$vector@UWeaponInfo@@V?$allocator@UWeaponInfo@@@std@@@std@@W4FireTimeType@@MK_N@Z ; ioBaseChar::RefreshFireTimeList

; 743  : 
; 744  : 	DWORD dwCurTime = FRAMEGETTIME();

  00224	ff 15 00 00 00
	00		 call	 DWORD PTR __imp_?GetSingleton@ioFrameTimer@@SAAAV1@XZ
  0022a	8b c8		 mov	 ecx, eax
  0022c	ff 15 00 00 00
	00		 call	 DWORD PTR __imp_?GetLoopSec@ioFrameTimer@@QBEKXZ

; 745  : 	m_dwMotionEndTime = dwCurTime;
; 746  : 	m_dwMotionEndTime += pGrp->GetAnimationFullTime( nAniID ) * fTimeRate;

  00232	ff b5 b0 7f ff
	ff		 push	 DWORD PTR _nAniID$[ebp]
  00238	8b 8d a8 7f ff
	ff		 mov	 ecx, DWORD PTR _pGrp$[ebp]
  0023e	89 85 a0 7f ff
	ff		 mov	 DWORD PTR _dwCurTime$[ebp], eax
  00244	89 86 4c 13 00
	00		 mov	 DWORD PTR [esi+4940], eax
  0024a	ff 15 00 00 00
	00		 call	 DWORD PTR __imp_?GetAnimationFullTime@ioEntityGroup@@QAEMH@Z

; 747  : 	m_dwMotionEndTime += dwPreDelay;	

  00250	d8 8d ac 7f ff
	ff		 fmul	 DWORD PTR _fTimeRate$[ebp]
  00256	8b 86 4c 13 00
	00		 mov	 eax, DWORD PTR [esi+4940]
  0025c	db 86 4c 13 00
	00		 fild	 DWORD PTR [esi+4940]
  00262	85 c0		 test	 eax, eax
  00264	79 06		 jns	 SHORT $LN247@SetAttackS
  00266	dc 05 00 00 00
	00		 fadd	 QWORD PTR __real@41f0000000000000
$LN247@SetAttackS:

; 745  : 	m_dwMotionEndTime = dwCurTime;
; 746  : 	m_dwMotionEndTime += pGrp->GetAnimationFullTime( nAniID ) * fTimeRate;

  0026c	de c1		 faddp	 ST(1), ST(0)

; 747  : 	m_dwMotionEndTime += dwPreDelay;	

  0026e	e8 00 00 00 00	 call	 __ftol2
  00273	03 c7		 add	 eax, edi
  00275	89 86 4c 13 00
	00		 mov	 DWORD PTR [esi+4940], eax

; 748  : 
; 749  : 	m_dwFireMotionEndTime = dwCurTime;

  0027b	8b 85 a0 7f ff
	ff		 mov	 eax, DWORD PTR _dwCurTime$[ebp]
  00281	6a 03		 push	 3
  00283	89 86 24 02 00
	00		 mov	 DWORD PTR [esi+548], eax

; 750  : 	m_dwFireMotionEndTime += pGrp->GetAnimationEventTime_e( nAniID, "firemotion_e" ) * fTimeRate;

  00289	c7 45 cc 8b 85
	99 8f		 mov	 DWORD PTR _szEncEventType$562055[ebp], -1885764213 ; 8f99858bH
  00290	c7 45 d0 80 83
	9f 83		 mov	 DWORD PTR _szEncEventType$562055[ebp+4], -2086698112 ; 839f8380H
  00297	c7 45 d4 82 82
	b4 8f		 mov	 DWORD PTR _szEncEventType$562055[ebp+8], -1883995518 ; 8fb48282H
  0029e	8d 45 cc	 lea	 eax, DWORD PTR _szEncEventType$562055[ebp]
  002a1	c6 45 d8 00	 mov	 BYTE PTR _szEncEventType$562055[ebp+12], 0
  002a5	59		 pop	 ecx
$LL122@SetAttackS:
  002a6	81 30 ed ec eb
	ea		 xor	 DWORD PTR [eax], -353637139 ; eaebecedH
  002ac	83 c0 04	 add	 eax, 4
  002af	49		 dec	 ecx
  002b0	75 f4		 jne	 SHORT $LL122@SetAttackS
  002b2	8d 45 cc	 lea	 eax, DWORD PTR _szEncEventType$562055[ebp]
  002b5	50		 push	 eax
  002b6	8d 4d e0	 lea	 ecx, DWORD PTR $T562155[ebp]
  002b9	ff 15 00 00 00
	00		 call	 DWORD PTR __imp_??0ioHashString@@QAE@PBD@Z
  002bf	8b 8d a8 7f ff
	ff		 mov	 ecx, DWORD PTR _pGrp$[ebp]
  002c5	83 65 fc 00	 and	 DWORD PTR __$EHRec$[ebp+8], 0
  002c9	8d 45 e0	 lea	 eax, DWORD PTR $T562155[ebp]
  002cc	50		 push	 eax
  002cd	ff b5 b0 7f ff
	ff		 push	 DWORD PTR _nAniID$[ebp]
  002d3	ff 15 00 00 00
	00		 call	 DWORD PTR __imp_?GetAnimationEventTime@ioEntityGroup@@QAEMHABVioHashString@@@Z
  002d9	d9 9d a4 7f ff
	ff		 fstp	 DWORD PTR $T562154[ebp]
  002df	83 4d fc ff	 or	 DWORD PTR __$EHRec$[ebp+8], -1
  002e3	8d 4d e0	 lea	 ecx, DWORD PTR $T562155[ebp]
  002e6	ff 15 00 00 00
	00		 call	 DWORD PTR __imp_??1ioHashString@@QAE@XZ
  002ec	d9 85 a4 7f ff
	ff		 fld	 DWORD PTR $T562154[ebp]
  002f2	8b 86 24 02 00
	00		 mov	 eax, DWORD PTR [esi+548]
  002f8	d8 8d ac 7f ff
	ff		 fmul	 DWORD PTR _fTimeRate$[ebp]
  002fe	db 86 24 02 00
	00		 fild	 DWORD PTR [esi+548]
  00304	85 c0		 test	 eax, eax
  00306	79 06		 jns	 SHORT $LN248@SetAttackS
  00308	dc 05 00 00 00
	00		 fadd	 QWORD PTR __real@41f0000000000000
$LN248@SetAttackS:
  0030e	de c1		 faddp	 ST(1), ST(0)
  00310	e8 00 00 00 00	 call	 __ftol2
  00315	6a 02		 push	 2
  00317	89 86 24 02 00
	00		 mov	 DWORD PTR [esi+548], eax

; 751  : 
; 752  : 	m_dwEnableKeyReserve = dwCurTime + pGrp->GetAnimationEventTime_e( nAniID, "key_reserve" ) * fTimeRate;

  0031d	c7 45 e0 86 89
	92 b5		 mov	 DWORD PTR _szEncEventType$562193[ebp], -1248687738 ; b5928986H
  00324	c7 45 e4 9f 89
	98 8f		 mov	 DWORD PTR _szEncEventType$562193[ebp+4], -1885828705 ; 8f98899fH
  0032b	8d 45 e0	 lea	 eax, DWORD PTR _szEncEventType$562193[ebp]
  0032e	c7 45 e8 9f 9a
	8e 00		 mov	 DWORD PTR _szEncEventType$562193[ebp+8], 9345695 ; 008e9a9fH
  00335	59		 pop	 ecx
$LL229@SetAttackS:
  00336	81 30 ed ec eb
	ea		 xor	 DWORD PTR [eax], -353637139 ; eaebecedH
  0033c	83 c0 04	 add	 eax, 4
  0033f	49		 dec	 ecx
  00340	75 f4		 jne	 SHORT $LL229@SetAttackS
  00342	6a 08		 push	 8
  00344	5f		 pop	 edi
$LL226@SetAttackS:
  00345	8b c7		 mov	 eax, edi
  00347	25 03 00 00 80	 and	 eax, -2147483645	; 80000003H
  0034c	79 05		 jns	 SHORT $LN249@SetAttackS
  0034e	48		 dec	 eax
  0034f	83 c8 fc	 or	 eax, -4			; fffffffcH
  00352	40		 inc	 eax
$LN249@SetAttackS:
  00353	b1 ed		 mov	 cl, -19			; ffffffedH
  00355	2a c8		 sub	 cl, al
  00357	30 4c 3d e0	 xor	 BYTE PTR _szEncEventType$562193[ebp+edi], cl
  0035b	47		 inc	 edi
  0035c	83 ff 0b	 cmp	 edi, 11			; 0000000bH
  0035f	7c e4		 jl	 SHORT $LL226@SetAttackS
  00361	8d 45 e0	 lea	 eax, DWORD PTR _szEncEventType$562193[ebp]
  00364	50		 push	 eax
  00365	8d 4d cc	 lea	 ecx, DWORD PTR $T562293[ebp]
  00368	ff 15 00 00 00
	00		 call	 DWORD PTR __imp_??0ioHashString@@QAE@PBD@Z
  0036e	8b 8d a8 7f ff
	ff		 mov	 ecx, DWORD PTR _pGrp$[ebp]
  00374	8d 45 cc	 lea	 eax, DWORD PTR $T562293[ebp]
  00377	50		 push	 eax
  00378	ff b5 b0 7f ff
	ff		 push	 DWORD PTR _nAniID$[ebp]
  0037e	c7 45 fc 01 00
	00 00		 mov	 DWORD PTR __$EHRec$[ebp+8], 1
  00385	ff 15 00 00 00
	00		 call	 DWORD PTR __imp_?GetAnimationEventTime@ioEntityGroup@@QAEMHABVioHashString@@@Z
  0038b	d9 9d a4 7f ff
	ff		 fstp	 DWORD PTR $T562292[ebp]
  00391	83 4d fc ff	 or	 DWORD PTR __$EHRec$[ebp+8], -1
  00395	8d 4d cc	 lea	 ecx, DWORD PTR $T562293[ebp]
  00398	ff 15 00 00 00
	00		 call	 DWORD PTR __imp_??1ioHashString@@QAE@XZ
  0039e	d9 85 a4 7f ff
	ff		 fld	 DWORD PTR $T562292[ebp]
  003a4	8b 85 a0 7f ff
	ff		 mov	 eax, DWORD PTR _dwCurTime$[ebp]
  003aa	d8 8d ac 7f ff
	ff		 fmul	 DWORD PTR _fTimeRate$[ebp]
  003b0	db 85 a0 7f ff
	ff		 fild	 DWORD PTR _dwCurTime$[ebp]
  003b6	85 c0		 test	 eax, eax
  003b8	79 06		 jns	 SHORT $LN250@SetAttackS
  003ba	d8 05 00 00 00
	00		 fadd	 DWORD PTR __real@4f800000
$LN250@SetAttackS:
  003c0	de c1		 faddp	 ST(1), ST(0)
  003c2	e8 00 00 00 00	 call	 __ftol2

; 753  : 
; 754  : 	m_SkillState = eState;

  003c7	8b 7d 0c	 mov	 edi, DWORD PTR _eState$[ebp]
  003ca	89 86 50 13 00
	00		 mov	 DWORD PTR [esi+4944], eax
  003d0	89 be 28 13 00
	00		 mov	 DWORD PTR [esi+4904], edi

; 755  : 
; 756  : 	if ( pChar->IsNeedSendNetwork() )

  003d6	8b 03		 mov	 eax, DWORD PTR [ebx]
  003d8	8b cb		 mov	 ecx, ebx
  003da	ff 90 04 01 00
	00		 call	 DWORD PTR [eax+260]
  003e0	84 c0		 test	 al, al
  003e2	0f 84 9a 00 00
	00		 je	 $LN1@SetAttackS

; 757  : 	{
; 758  : 		SP2Packet kPacket( CUPK_SKILL_EXTRA_INFO );

  003e8	68 39 41 00 00	 push	 16697			; 00004139H
  003ed	8d 8d b4 7f ff
	ff		 lea	 ecx, DWORD PTR _kPacket$549097[ebp]
  003f3	e8 00 00 00 00	 call	 ??0SP2Packet@@QAE@K@Z	; SP2Packet::SP2Packet

; 759  : 		kPacket << pChar->GetCharName();

  003f8	8d 83 d4 02 00
	00		 lea	 eax, DWORD PTR [ebx+724]
  003fe	50		 push	 eax
  003ff	8d 8d b4 7f ff
	ff		 lea	 ecx, DWORD PTR _kPacket$549097[ebp]
  00405	c7 45 fc 02 00
	00 00		 mov	 DWORD PTR __$EHRec$[ebp+8], 2
  0040c	e8 00 00 00 00	 call	 ??6SP2Packet@@QAEAAV0@ABVioHashString@@@Z ; SP2Packet::operator<<

; 760  : 		kPacket << GetName();

  00411	83 c6 24	 add	 esi, 36			; 00000024H
  00414	56		 push	 esi
  00415	8d 8d b4 7f ff
	ff		 lea	 ecx, DWORD PTR _kPacket$549097[ebp]
  0041b	e8 00 00 00 00	 call	 ??6SP2Packet@@QAEAAV0@ABVioHashString@@@Z ; SP2Packet::operator<<

; 761  : 		kPacket << eState;

  00420	57		 push	 edi
  00421	8d 8d b4 7f ff
	ff		 lea	 ecx, DWORD PTR _kPacket$549097[ebp]
  00427	e8 00 00 00 00	 call	 ??6SP2Packet@@QAEAAV0@H@Z ; SP2Packet::operator<<

; 762  : 		kPacket << pChar->GetWorldOrientation();

  0042c	8b 03		 mov	 eax, DWORD PTR [ebx]
  0042e	8b cb		 mov	 ecx, ebx
  00430	ff 50 74	 call	 DWORD PTR [eax+116]
  00433	50		 push	 eax
  00434	8d 8d b4 7f ff
	ff		 lea	 ecx, DWORD PTR _kPacket$549097[ebp]
  0043a	e8 00 00 00 00	 call	 ??6SP2Packet@@QAEAAV0@ABUD3DXQUATERNION@@@Z ; SP2Packet::operator<<

; 763  : 		kPacket << pChar->GetWorldPosition();

  0043f	8b 03		 mov	 eax, DWORD PTR [ebx]
  00441	8b cb		 mov	 ecx, ebx
  00443	ff 50 70	 call	 DWORD PTR [eax+112]
  00446	50		 push	 eax
  00447	8d 8d b4 7f ff
	ff		 lea	 ecx, DWORD PTR _kPacket$549097[ebp]
  0044d	e8 00 00 00 00	 call	 ??6SP2Packet@@QAEAAV0@ABUD3DXVECTOR3@@@Z ; SP2Packet::operator<<

; 764  : 		kPacket << bFloating;

  00452	ff b5 9c 7f ff
	ff		 push	 DWORD PTR _bFloating$[ebp]
  00458	8d 8d b4 7f ff
	ff		 lea	 ecx, DWORD PTR _kPacket$549097[ebp]
  0045e	e8 00 00 00 00	 call	 ??6SP2Packet@@QAEAAV0@_N@Z ; SP2Packet::operator<<

; 765  : 		P2PNetwork::SendToAllPlayingUser( kPacket );

  00463	8d 85 b4 7f ff
	ff		 lea	 eax, DWORD PTR _kPacket$549097[ebp]
  00469	6a 00		 push	 0
  0046b	50		 push	 eax
  0046c	e8 00 00 00 00	 call	 ?SendToAllPlayingUser@P2PNetwork@@YAXAAVSP2Packet@@PAVioBaseChar@@@Z ; P2PNetwork::SendToAllPlayingUser

; 766  : 	}

  00471	83 4d fc ff	 or	 DWORD PTR __$EHRec$[ebp+8], -1
  00475	59		 pop	 ecx
  00476	59		 pop	 ecx
  00477	8d 8d b4 7f ff
	ff		 lea	 ecx, DWORD PTR _kPacket$549097[ebp]
  0047d	e8 00 00 00 00	 call	 ??1SP2Packet@@UAE@XZ	; SP2Packet::~SP2Packet
$LN1@SetAttackS:

; 767  : }

  00482	8b 4d f4	 mov	 ecx, DWORD PTR __$EHRec$[ebp]
  00485	64 89 0d 00 00
	00 00		 mov	 DWORD PTR fs:0, ecx
  0048c	59		 pop	 ecx
  0048d	5f		 pop	 edi
  0048e	5e		 pop	 esi
  0048f	5b		 pop	 ebx
  00490	8b 4d f0	 mov	 ecx, DWORD PTR __$ArrayPad$[ebp]
  00493	33 cd		 xor	 ecx, ebp
  00495	e8 00 00 00 00	 call	 @__security_check_cookie@4
  0049a	c9		 leave
  0049b	c2 08 00	 ret	 8
_TEXT	ENDS
;	COMDAT text$x
text$x	SEGMENT
__unwindfunclet$?SetAttackState@ioTargetTimingAttackSkill@@IAEXPAVioBaseChar@@W4SkillState@1@@Z$1:
  00000	8d 4d e0	 lea	 ecx, DWORD PTR $T562155[ebp]
  00003	ff 25 00 00 00
	00		 jmp	 DWORD PTR __imp_??1ioHashString@@QAE@XZ
__unwindfunclet$?SetAttackState@ioTargetTimingAttackSkill@@IAEXPAVioBaseChar@@W4SkillState@1@@Z$2:
  00009	8d 4d cc	 lea	 ecx, DWORD PTR $T562293[ebp]
  0000c	ff 25 00 00 00
	00		 jmp	 DWORD PTR __imp_??1ioHashString@@QAE@XZ
__unwindfunclet$?SetAttackState@ioTargetTimingAttackSkill@@IAEXPAVioBaseChar@@W4SkillState@1@@Z$0:
  00012	8d 8d b4 7f ff
	ff		 lea	 ecx, DWORD PTR _kPacket$549097[ebp]
  00018	e9 00 00 00 00	 jmp	 ??1SP2Packet@@UAE@XZ	; SP2Packet::~SP2Packet
__ehhandler$?SetAttackState@ioTargetTimingAttackSkill@@IAEXPAVioBaseChar@@W4SkillState@1@@Z:
  0001d	8b 54 24 08	 mov	 edx, DWORD PTR [esp+8]
  00021	8d 42 0c	 lea	 eax, DWORD PTR [edx+12]
  00024	8b 8a 94 7f ff
	ff		 mov	 ecx, DWORD PTR [edx-32876]
  0002a	33 c8		 xor	 ecx, eax
  0002c	e8 00 00 00 00	 call	 @__security_check_cookie@4
  00031	8b 4a fc	 mov	 ecx, DWORD PTR [edx-4]
  00034	33 c8		 xor	 ecx, eax
  00036	e8 00 00 00 00	 call	 @__security_check_cookie@4
  0003b	b8 00 00 00 00	 mov	 eax, OFFSET __ehfuncinfo$?SetAttackState@ioTargetTimingAttackSkill@@IAEXPAVioBaseChar@@W4SkillState@1@@Z
  00040	e9 00 00 00 00	 jmp	 ___CxxFrameHandler3
text$x	ENDS
?SetAttackState@ioTargetTimingAttackSkill@@IAEXPAVioBaseChar@@W4SkillState@1@@Z ENDP ; ioTargetTimingAttackSkill::SetAttackState
PUBLIC	?SetZeroAimedExtraAttackState@ioTargetTimingAttackSkill@@IAEXPAVioBaseChar@@@Z ; ioTargetTimingAttackSkill::SetZeroAimedExtraAttackState
;	COMDAT xdata$x
; File d:\lost saga for developer\youtube\tutorial\source\src\lsclient\stringprotect.h
xdata$x	SEGMENT
__unwindtable$?SetZeroAimedExtraAttackState@ioTargetTimingAttackSkill@@IAEXPAVioBaseChar@@@Z DD 0ffffffffH
	DD	FLAT:__unwindfunclet$?SetZeroAimedExtraAttackState@ioTargetTimingAttackSkill@@IAEXPAVioBaseChar@@@Z$0
__ehfuncinfo$?SetZeroAimedExtraAttackState@ioTargetTimingAttackSkill@@IAEXPAVioBaseChar@@@Z DD 019930522H
	DD	01H
	DD	FLAT:__unwindtable$?SetZeroAimedExtraAttackState@ioTargetTimingAttackSkill@@IAEXPAVioBaseChar@@@Z
	DD	2 DUP(00H)
	DD	2 DUP(00H)
	DD	00H
	DD	01H
; Function compile flags: /Ogsp
; File d:\lost saga for developer\youtube\tutorial\source\src\lsclient\iotargettimingattackskill.cpp
xdata$x	ENDS
;	COMDAT ?SetZeroAimedExtraAttackState@ioTargetTimingAttackSkill@@IAEXPAVioBaseChar@@@Z
_TEXT	SEGMENT
$T562355 = -72						; size = 16
tv1100 = -56						; size = 4
tv1090 = -56						; size = 4
tv1129 = -52						; size = 4
$T562354 = -52						; size = 4
_dwCurTime$ = -52					; size = 4
_pGrp$ = -48						; size = 4
_nAniID$ = -44						; size = 4
_fTimeRate$ = -40					; size = 4
_szEncEventType$562368 = -36				; size = 13
__$EHRec$ = -12						; size = 12
_pChar$ = 8						; size = 4
?SetZeroAimedExtraAttackState@ioTargetTimingAttackSkill@@IAEXPAVioBaseChar@@@Z PROC ; ioTargetTimingAttackSkill::SetZeroAimedExtraAttackState, COMDAT
; _this$ = ecx

; 770  : {

  00000	6a 3c		 push	 60			; 0000003cH
  00002	b8 00 00 00 00	 mov	 eax, __ehhandler$?SetZeroAimedExtraAttackState@ioTargetTimingAttackSkill@@IAEXPAVioBaseChar@@@Z
  00007	e8 00 00 00 00	 call	 __EH_prolog3_GS
  0000c	8b 7d 08	 mov	 edi, DWORD PTR _pChar$[ebp]
  0000f	8b f1		 mov	 esi, ecx

; 771  : 	if ( !pChar )

  00011	85 ff		 test	 edi, edi
  00013	0f 84 42 02 00
	00		 je	 $LN5@SetZeroAim

; 772  : 		return;
; 773  : 
; 774  : 	if ( pChar->IsFloating() )

  00019	8b cf		 mov	 ecx, edi
  0001b	e8 00 00 00 00	 call	 ?IsFloating@ioBaseChar@@QAE_NXZ ; ioBaseChar::IsFloating

; 775  : 		m_CurAttack = m_JumpZeroAimedExtraAttack;

  00020	8d 9e 7c 13 00
	00		 lea	 ebx, DWORD PTR [esi+4988]
  00026	84 c0		 test	 al, al
  00028	8b cb		 mov	 ecx, ebx
  0002a	8d 86 b4 12 00
	00		 lea	 eax, DWORD PTR [esi+4788]
  00030	75 06		 jne	 SHORT $LN124@SetZeroAim

; 776  : 	else
; 777  : 		m_CurAttack = m_NormalZeroAimedExtraAttack;

  00032	8d 86 c4 11 00
	00		 lea	 eax, DWORD PTR [esi+4548]
$LN124@SetZeroAim:
  00038	50		 push	 eax
  00039	e8 00 00 00 00	 call	 ??4AttackAttribute@@QAEAAU0@ABU0@@Z

; 778  : 
; 779  : 	ioEntityGroup *pGrp = pChar->GetGroup();

  0003e	8b 4f 04	 mov	 ecx, DWORD PTR [edi+4]

; 780  : 
; 781  : 	int nAniID = pGrp->GetAnimationIdx( m_CurAttack.m_AttackAnimation );

  00041	53		 push	 ebx
  00042	89 4d d0	 mov	 DWORD PTR _pGrp$[ebp], ecx
  00045	ff 15 00 00 00
	00		 call	 DWORD PTR __imp_?GetAnimationIdx@ioEntityGroup@@QAEHABVioHashString@@@Z
  0004b	89 45 d4	 mov	 DWORD PTR _nAniID$[ebp], eax

; 782  : 	if( nAniID == -1 )	

  0004e	83 f8 ff	 cmp	 eax, -1
  00051	0f 84 04 02 00
	00		 je	 $LN5@SetZeroAim

; 783  : 		return;
; 784  : 
; 785  : 	float fTimeRate  = m_CurAttack.m_fAttackAniRate;

  00057	f3 0f 10 86 8c
	13 00 00	 movss	 xmm0, DWORD PTR [esi+5004]

; 786  : 	DWORD dwPreDelay = m_CurAttack.m_dwPreDelay;

  0005f	8b 9e c4 13 00
	00		 mov	 ebx, DWORD PTR [esi+5060]

; 787  : 
; 788  : 	pGrp->ClearAllLoopAni( 100.0f, true );

  00065	6a 01		 push	 1
  00067	51		 push	 ecx
  00068	8b 4d d0	 mov	 ecx, DWORD PTR _pGrp$[ebp]
  0006b	f3 0f 11 45 d8	 movss	 DWORD PTR _fTimeRate$[ebp], xmm0
  00070	f3 0f 10 05 00
	00 00 00	 movss	 xmm0, DWORD PTR __real@42c80000
  00078	f3 0f 11 04 24	 movss	 DWORD PTR [esp], xmm0
  0007d	ff 15 00 00 00
	00		 call	 DWORD PTR __imp_?ClearAllLoopAni@ioEntityGroup@@QAEXM_N@Z

; 789  : 	pGrp->ClearAllActionAni( 100.0f, true );

  00083	f3 0f 10 05 00
	00 00 00	 movss	 xmm0, DWORD PTR __real@42c80000
  0008b	6a 01		 push	 1
  0008d	51		 push	 ecx
  0008e	8b 4d d0	 mov	 ecx, DWORD PTR _pGrp$[ebp]
  00091	f3 0f 11 04 24	 movss	 DWORD PTR [esp], xmm0
  00096	ff 15 00 00 00
	00		 call	 DWORD PTR __imp_?ClearAllActionAni@ioEntityGroup@@QAEXM_N@Z

; 790  : 
; 791  : 	pGrp->SetActionAni( nAniID, 100.0f, 100.0f, 1.0f, 1.0f/fTimeRate, 0.0f, dwPreDelay );

  0009c	8b c3		 mov	 eax, ebx
  0009e	6a 01		 push	 1
  000a0	89 45 cc	 mov	 DWORD PTR tv1129[ebp], eax
  000a3	db 45 cc	 fild	 DWORD PTR tv1129[ebp]
  000a6	6a 00		 push	 0
  000a8	85 c0		 test	 eax, eax
  000aa	79 06		 jns	 SHORT $LN121@SetZeroAim
  000ac	d8 05 00 00 00
	00		 fadd	 DWORD PTR __real@4f800000
$LN121@SetZeroAim:
  000b2	0f 57 c0	 xorps	 xmm0, xmm0
  000b5	f2 0f 10 0d 00
	00 00 00	 movsd	 xmm1, QWORD PTR __real@3ff0000000000000
  000bd	8b 4d d0	 mov	 ecx, DWORD PTR _pGrp$[ebp]
  000c0	83 ec 18	 sub	 esp, 24			; 00000018H
  000c3	d9 5c 24 14	 fstp	 DWORD PTR [esp+20]
  000c7	f3 0f 11 44 24
	10		 movss	 DWORD PTR [esp+16], xmm0
  000cd	f3 0f 10 45 d8	 movss	 xmm0, DWORD PTR _fTimeRate$[ebp]
  000d2	0f 5a c0	 cvtps2pd xmm0, xmm0
  000d5	f2 0f 5e c8	 divsd	 xmm1, xmm0
  000d9	66 0f 5a c1	 cvtpd2ps xmm0, xmm1
  000dd	f3 0f 11 44 24
	0c		 movss	 DWORD PTR [esp+12], xmm0
  000e3	f3 0f 10 05 00
	00 00 00	 movss	 xmm0, DWORD PTR __real@3f800000
  000eb	f3 0f 11 44 24
	08		 movss	 DWORD PTR [esp+8], xmm0
  000f1	f3 0f 10 05 00
	00 00 00	 movss	 xmm0, DWORD PTR __real@42c80000
  000f9	f3 0f 11 44 24
	04		 movss	 DWORD PTR [esp+4], xmm0
  000ff	f3 0f 11 04 24	 movss	 DWORD PTR [esp], xmm0
  00104	ff 75 d4	 push	 DWORD PTR _nAniID$[ebp]
  00107	ff 15 00 00 00
	00		 call	 DWORD PTR __imp_?SetActionAni@ioEntityGroup@@QAE_NHMMMMMM_N0@Z

; 792  : 
; 793  : 	pChar->ClearReservedSliding();

  0010d	8b cf		 mov	 ecx, edi
  0010f	e8 00 00 00 00	 call	 ?ClearReservedSliding@ioBaseChar@@QAEXXZ ; ioBaseChar::ClearReservedSliding

; 794  : 	pChar->SetReservedSliding( m_CurAttack.m_vForceInfoList, nAniID, fTimeRate, dwPreDelay );

  00114	f3 0f 10 05 00
	00 00 00	 movss	 xmm0, DWORD PTR __real@3f800000
  0011c	6a 01		 push	 1
  0011e	51		 push	 ecx
  0011f	f3 0f 11 04 24	 movss	 DWORD PTR [esp], xmm0
  00124	f3 0f 10 45 d8	 movss	 xmm0, DWORD PTR _fTimeRate$[ebp]
  00129	53		 push	 ebx
  0012a	51		 push	 ecx
  0012b	f3 0f 11 04 24	 movss	 DWORD PTR [esp], xmm0
  00130	ff 75 d4	 push	 DWORD PTR _nAniID$[ebp]
  00133	8d 86 b4 13 00
	00		 lea	 eax, DWORD PTR [esi+5044]
  00139	50		 push	 eax
  0013a	8b cf		 mov	 ecx, edi
  0013c	e8 00 00 00 00	 call	 ?SetReservedSliding@ioBaseChar@@QAEXABV?$vector@UForceInfo@@V?$allocator@UForceInfo@@@std@@@std@@HMKM_N@Z ; ioBaseChar::SetReservedSliding

; 795  : 	pChar->CheckCharColSkipSkillTime( nAniID, fTimeRate, dwPreDelay );

  00141	f3 0f 10 45 d8	 movss	 xmm0, DWORD PTR _fTimeRate$[ebp]
  00146	53		 push	 ebx
  00147	51		 push	 ecx
  00148	f3 0f 11 04 24	 movss	 DWORD PTR [esp], xmm0
  0014d	ff 75 d4	 push	 DWORD PTR _nAniID$[ebp]
  00150	8b cf		 mov	 ecx, edi
  00152	e8 00 00 00 00	 call	 ?CheckCharColSkipSkillTime@ioBaseChar@@QAEXHMK@Z ; ioBaseChar::CheckCharColSkipSkillTime

; 796  : 
; 797  : 	pChar->RefreshFireTimeList( nAniID, m_CurAttack.m_vWeaponInfoList, FTT_SKILL_ATTACK, fTimeRate, dwPreDelay );

  00157	f3 0f 10 45 d8	 movss	 xmm0, DWORD PTR _fTimeRate$[ebp]
  0015c	6a 00		 push	 0
  0015e	53		 push	 ebx
  0015f	51		 push	 ecx
  00160	f3 0f 11 04 24	 movss	 DWORD PTR [esp], xmm0
  00165	6a 04		 push	 4
  00167	8d 86 a4 13 00
	00		 lea	 eax, DWORD PTR [esi+5028]
  0016d	50		 push	 eax
  0016e	ff 75 d4	 push	 DWORD PTR _nAniID$[ebp]
  00171	8b cf		 mov	 ecx, edi
  00173	e8 00 00 00 00	 call	 ?RefreshFireTimeList@ioBaseChar@@QAEXHABV?$vector@UWeaponInfo@@V?$allocator@UWeaponInfo@@@std@@@std@@W4FireTimeType@@MK_N@Z ; ioBaseChar::RefreshFireTimeList

; 798  : 
; 799  : 	DWORD dwCurTime = FRAMEGETTIME();

  00178	ff 15 00 00 00
	00		 call	 DWORD PTR __imp_?GetSingleton@ioFrameTimer@@SAAAV1@XZ
  0017e	8b c8		 mov	 ecx, eax
  00180	ff 15 00 00 00
	00		 call	 DWORD PTR __imp_?GetLoopSec@ioFrameTimer@@QBEKXZ

; 800  : 	m_dwMotionEndTime = dwCurTime;
; 801  : 	m_dwMotionEndTime += pGrp->GetAnimationFullTime( nAniID ) * fTimeRate;

  00186	ff 75 d4	 push	 DWORD PTR _nAniID$[ebp]
  00189	8b 4d d0	 mov	 ecx, DWORD PTR _pGrp$[ebp]
  0018c	89 45 cc	 mov	 DWORD PTR _dwCurTime$[ebp], eax
  0018f	89 86 4c 13 00
	00		 mov	 DWORD PTR [esi+4940], eax
  00195	ff 15 00 00 00
	00		 call	 DWORD PTR __imp_?GetAnimationFullTime@ioEntityGroup@@QAEMH@Z

; 802  : 	m_dwMotionEndTime += dwPreDelay;	

  0019b	d8 4d d8	 fmul	 DWORD PTR _fTimeRate$[ebp]
  0019e	8b 86 4c 13 00
	00		 mov	 eax, DWORD PTR [esi+4940]
  001a4	db 86 4c 13 00
	00		 fild	 DWORD PTR [esi+4940]
  001aa	85 c0		 test	 eax, eax
  001ac	79 06		 jns	 SHORT $LN122@SetZeroAim
  001ae	dc 05 00 00 00
	00		 fadd	 QWORD PTR __real@41f0000000000000
$LN122@SetZeroAim:

; 800  : 	m_dwMotionEndTime = dwCurTime;
; 801  : 	m_dwMotionEndTime += pGrp->GetAnimationFullTime( nAniID ) * fTimeRate;

  001b4	de c1		 faddp	 ST(1), ST(0)

; 802  : 	m_dwMotionEndTime += dwPreDelay;	

  001b6	e8 00 00 00 00	 call	 __ftol2
  001bb	03 c3		 add	 eax, ebx
  001bd	89 86 4c 13 00
	00		 mov	 DWORD PTR [esi+4940], eax

; 803  : 
; 804  : 	m_dwFireMotionEndTime = dwCurTime;

  001c3	8b 45 cc	 mov	 eax, DWORD PTR _dwCurTime$[ebp]
  001c6	6a 03		 push	 3
  001c8	89 86 24 02 00
	00		 mov	 DWORD PTR [esi+548], eax

; 805  : 	m_dwFireMotionEndTime += pGrp->GetAnimationEventTime_e( nAniID, "firemotion_e" ) * fTimeRate;

  001ce	c7 45 dc 8b 85
	99 8f		 mov	 DWORD PTR _szEncEventType$562368[ebp], -1885764213 ; 8f99858bH
  001d5	c7 45 e0 80 83
	9f 83		 mov	 DWORD PTR _szEncEventType$562368[ebp+4], -2086698112 ; 839f8380H
  001dc	c7 45 e4 82 82
	b4 8f		 mov	 DWORD PTR _szEncEventType$562368[ebp+8], -1883995518 ; 8fb48282H
  001e3	8d 45 dc	 lea	 eax, DWORD PTR _szEncEventType$562368[ebp]
  001e6	c6 45 e8 00	 mov	 BYTE PTR _szEncEventType$562368[ebp+12], 0
  001ea	59		 pop	 ecx
$LL113@SetZeroAim:
  001eb	81 30 ed ec eb
	ea		 xor	 DWORD PTR [eax], -353637139 ; eaebecedH
  001f1	83 c0 04	 add	 eax, 4
  001f4	49		 dec	 ecx
  001f5	75 f4		 jne	 SHORT $LL113@SetZeroAim
  001f7	8d 45 dc	 lea	 eax, DWORD PTR _szEncEventType$562368[ebp]
  001fa	50		 push	 eax
  001fb	8d 4d b8	 lea	 ecx, DWORD PTR $T562355[ebp]
  001fe	ff 15 00 00 00
	00		 call	 DWORD PTR __imp_??0ioHashString@@QAE@PBD@Z
  00204	8b 4d d0	 mov	 ecx, DWORD PTR _pGrp$[ebp]
  00207	83 65 fc 00	 and	 DWORD PTR __$EHRec$[ebp+8], 0
  0020b	8d 45 b8	 lea	 eax, DWORD PTR $T562355[ebp]
  0020e	50		 push	 eax
  0020f	ff 75 d4	 push	 DWORD PTR _nAniID$[ebp]
  00212	ff 15 00 00 00
	00		 call	 DWORD PTR __imp_?GetAnimationEventTime@ioEntityGroup@@QAEMHABVioHashString@@@Z
  00218	d9 5d cc	 fstp	 DWORD PTR $T562354[ebp]
  0021b	83 4d fc ff	 or	 DWORD PTR __$EHRec$[ebp+8], -1
  0021f	8d 4d b8	 lea	 ecx, DWORD PTR $T562355[ebp]
  00222	ff 15 00 00 00
	00		 call	 DWORD PTR __imp_??1ioHashString@@QAE@XZ
  00228	d9 45 cc	 fld	 DWORD PTR $T562354[ebp]
  0022b	8b 86 24 02 00
	00		 mov	 eax, DWORD PTR [esi+548]
  00231	d8 4d d8	 fmul	 DWORD PTR _fTimeRate$[ebp]
  00234	db 86 24 02 00
	00		 fild	 DWORD PTR [esi+548]
  0023a	85 c0		 test	 eax, eax
  0023c	79 06		 jns	 SHORT $LN123@SetZeroAim
  0023e	dc 05 00 00 00
	00		 fadd	 QWORD PTR __real@41f0000000000000
$LN123@SetZeroAim:
  00244	de c1		 faddp	 ST(1), ST(0)
  00246	e8 00 00 00 00	 call	 __ftol2
  0024b	89 86 24 02 00
	00		 mov	 DWORD PTR [esi+548], eax

; 806  : 
; 807  : 	m_SkillState = SS_ZERO_AIM_EXTRA_ATTACK;

  00251	c7 86 28 13 00
	00 06 00 00 00	 mov	 DWORD PTR [esi+4904], 6
$LN5@SetZeroAim:

; 808  : }

  0025b	e8 00 00 00 00	 call	 __EH_epilog3_GS
  00260	c2 04 00	 ret	 4
_TEXT	ENDS
;	COMDAT text$x
text$x	SEGMENT
__unwindfunclet$?SetZeroAimedExtraAttackState@ioTargetTimingAttackSkill@@IAEXPAVioBaseChar@@@Z$0:
  00000	8d 4d b8	 lea	 ecx, DWORD PTR $T562355[ebp]
  00003	ff 25 00 00 00
	00		 jmp	 DWORD PTR __imp_??1ioHashString@@QAE@XZ
__ehhandler$?SetZeroAimedExtraAttackState@ioTargetTimingAttackSkill@@IAEXPAVioBaseChar@@@Z:
  00009	8b 54 24 08	 mov	 edx, DWORD PTR [esp+8]
  0000d	8d 42 0c	 lea	 eax, DWORD PTR [edx+12]
  00010	8b 4a b4	 mov	 ecx, DWORD PTR [edx-76]
  00013	33 c8		 xor	 ecx, eax
  00015	e8 00 00 00 00	 call	 @__security_check_cookie@4
  0001a	8b 4a fc	 mov	 ecx, DWORD PTR [edx-4]
  0001d	33 c8		 xor	 ecx, eax
  0001f	e8 00 00 00 00	 call	 @__security_check_cookie@4
  00024	b8 00 00 00 00	 mov	 eax, OFFSET __ehfuncinfo$?SetZeroAimedExtraAttackState@ioTargetTimingAttackSkill@@IAEXPAVioBaseChar@@@Z
  00029	e9 00 00 00 00	 jmp	 ___CxxFrameHandler3
text$x	ENDS
?SetZeroAimedExtraAttackState@ioTargetTimingAttackSkill@@IAEXPAVioBaseChar@@@Z ENDP ; ioTargetTimingAttackSkill::SetZeroAimedExtraAttackState
; Function compile flags: /Ogsp
;	COMDAT ??_GioTargetTimingAttackSkill@@UAEPAXI@Z
_TEXT	SEGMENT
___flags$ = 8						; size = 4
??_GioTargetTimingAttackSkill@@UAEPAXI@Z PROC		; ioTargetTimingAttackSkill::`scalar deleting destructor', COMDAT
; _this$ = ecx
  00000	55		 push	 ebp
  00001	8b ec		 mov	 ebp, esp
  00003	56		 push	 esi
  00004	8b f1		 mov	 esi, ecx
  00006	e8 00 00 00 00	 call	 ??1ioTargetTimingAttackSkill@@UAE@XZ ; ioTargetTimingAttackSkill::~ioTargetTimingAttackSkill
  0000b	f6 45 08 01	 test	 BYTE PTR ___flags$[ebp], 1
  0000f	74 07		 je	 SHORT $LN1@scalar@4
  00011	56		 push	 esi
  00012	e8 00 00 00 00	 call	 ??3@YAXPAX@Z		; operator delete
  00017	59		 pop	 ecx
$LN1@scalar@4:
  00018	8b c6		 mov	 eax, esi
  0001a	5e		 pop	 esi
  0001b	5d		 pop	 ebp
  0001c	c2 04 00	 ret	 4
??_GioTargetTimingAttackSkill@@UAEPAXI@Z ENDP		; ioTargetTimingAttackSkill::`scalar deleting destructor'
; Function compile flags: /Ogsp
_TEXT	ENDS
;	COMDAT ?OnProcessState@ioTargetTimingAttackSkill@@UAEXPAVioBaseChar@@PAVioPlayStage@@@Z
_TEXT	SEGMENT
_pChar$ = 8						; size = 4
_pStage$ = 12						; size = 4
?OnProcessState@ioTargetTimingAttackSkill@@UAEXPAVioBaseChar@@PAVioPlayStage@@@Z PROC ; ioTargetTimingAttackSkill::OnProcessState, COMDAT
; _this$ = ecx

; 136  : {

  00000	55		 push	 ebp
  00001	8b ec		 mov	 ebp, esp
  00003	53		 push	 ebx
  00004	56		 push	 esi
  00005	57		 push	 edi
  00006	8b f1		 mov	 esi, ecx

; 137  : 	DWORD dwCurTime = FRAMEGETTIME();

  00008	ff 15 00 00 00
	00		 call	 DWORD PTR __imp_?GetSingleton@ioFrameTimer@@SAAAV1@XZ
  0000e	8b c8		 mov	 ecx, eax
  00010	ff 15 00 00 00
	00		 call	 DWORD PTR __imp_?GetLoopSec@ioFrameTimer@@QBEKXZ
  00016	8b f8		 mov	 edi, eax

; 138  : 
; 139  : 	if ( m_dwCheckLoopTime > 0 && m_dwCheckLoopTime < dwCurTime )

  00018	8b 86 78 13 00
	00		 mov	 eax, DWORD PTR [esi+4984]
  0001e	85 c0		 test	 eax, eax
  00020	74 13		 je	 SHORT $LN16@OnProcessS
  00022	3b c7		 cmp	 eax, edi
  00024	73 0f		 jae	 SHORT $LN16@OnProcessS
$LN1@OnProcessS:

; 140  : 	{
; 141  : 		SetEndState( pChar );

  00026	ff 75 08	 push	 DWORD PTR _pChar$[ebp]
  00029	8b ce		 mov	 ecx, esi
  0002b	e8 00 00 00 00	 call	 ?SetEndState@ioTargetTimingAttackSkill@@IAEXPAVioBaseChar@@@Z ; ioTargetTimingAttackSkill::SetEndState

; 142  : 		return;

  00030	e9 f7 00 00 00	 jmp	 $LN12@OnProcessS
$LN16@OnProcessS:

; 143  : 	}
; 144  : 
; 145  : 	switch( m_SkillState )

  00035	8b 8e 28 13 00
	00		 mov	 ecx, DWORD PTR [esi+4904]
  0003b	85 c9		 test	 ecx, ecx
  0003d	0f 84 b5 00 00
	00		 je	 $LN13@OnProcessS
  00043	83 f9 01	 cmp	 ecx, 1
  00046	74 46		 je	 SHORT $LN11@OnProcessS
  00048	8d 41 fc	 lea	 eax, DWORD PTR [ecx-4]
  0004b	83 f8 02	 cmp	 eax, 2
  0004e	0f 87 d8 00 00
	00		 ja	 $LN12@OnProcessS

; 179  : 			}
; 180  : 		}
; 181  : 		break;
; 182  : 	case SS_AIM_ATTACK:
; 183  : 	case SS_ZERO_AIM_ATTACK:
; 184  : 	case SS_ZERO_AIM_EXTRA_ATTACK:
; 185  : 		{
; 186  : 			if ( m_dwMotionEndTime > 0 && m_dwMotionEndTime < dwCurTime )

  00054	8b 86 4c 13 00
	00		 mov	 eax, DWORD PTR [esi+4940]
  0005a	85 c0		 test	 eax, eax
  0005c	0f 84 ca 00 00
	00		 je	 $LN12@OnProcessS
  00062	3b c7		 cmp	 eax, edi
  00064	0f 83 c2 00 00
	00		 jae	 $LN12@OnProcessS

; 187  : 			{
; 188  : 				if ( m_SkillState == SS_ZERO_AIM_ATTACK )

  0006a	83 f9 05	 cmp	 ecx, 5
  0006d	75 0f		 jne	 SHORT $LN4@OnProcessS

; 189  : 				{
; 190  : 					SetZeroAimedExtraAttackState( pChar );

  0006f	ff 75 08	 push	 DWORD PTR _pChar$[ebp]
  00072	8b ce		 mov	 ecx, esi
  00074	e8 00 00 00 00	 call	 ?SetZeroAimedExtraAttackState@ioTargetTimingAttackSkill@@IAEXPAVioBaseChar@@@Z ; ioTargetTimingAttackSkill::SetZeroAimedExtraAttackState

; 191  : 					return;

  00079	e9 ae 00 00 00	 jmp	 $LN12@OnProcessS
$LN4@OnProcessS:

; 192  : 				}
; 193  : 				else if ( m_SkillState == SS_AIM_ATTACK || m_SkillState == SS_ZERO_AIM_EXTRA_ATTACK )

  0007e	83 f9 04	 cmp	 ecx, 4
  00081	74 a3		 je	 SHORT $LN1@OnProcessS
  00083	83 f9 06	 cmp	 ecx, 6
  00086	0f 85 a0 00 00
	00		 jne	 $LN12@OnProcessS

; 194  : 				{
; 195  : 					SetEndState( pChar );
; 196  : 					return;

  0008c	eb 98		 jmp	 SHORT $LN1@OnProcessS
$LN11@OnProcessS:

; 155  : 			}
; 156  : 		}
; 157  : 		break;
; 158  : 	case SS_AIM:
; 159  : 		{
; 160  : 			GetTargetList( pChar, pStage );

  0008e	8b 5d 0c	 mov	 ebx, DWORD PTR _pStage$[ebp]
  00091	8b 7d 08	 mov	 edi, DWORD PTR _pChar$[ebp]
  00094	53		 push	 ebx
  00095	57		 push	 edi
  00096	8b ce		 mov	 ecx, esi
  00098	e8 00 00 00 00	 call	 ?GetTargetList@ioTargetTimingAttackSkill@@IAEXPAVioBaseChar@@PAVioPlayStage@@@Z ; ioTargetTimingAttackSkill::GetTargetList

; 161  : 			SetTargetRotation( pChar );

  0009d	57		 push	 edi
  0009e	8b ce		 mov	 ecx, esi
  000a0	e8 00 00 00 00	 call	 ?SetTargetRotation@ioTargetTimingAttackSkill@@IAEXPAVioBaseChar@@@Z ; ioTargetTimingAttackSkill::SetTargetRotation

; 162  : 			UpdateMaker( pChar, pStage );

  000a5	53		 push	 ebx
  000a6	57		 push	 edi
  000a7	8b ce		 mov	 ecx, esi
  000a9	e8 00 00 00 00	 call	 ?UpdateMaker@ioTargetTimingAttackSkill@@IAEXPAVioBaseChar@@PAVioPlayStage@@@Z ; ioTargetTimingAttackSkill::UpdateMaker

; 163  : 
; 164  : 			if ( CheckInputChangeTarget( pChar ) )

  000ae	57		 push	 edi
  000af	8b ce		 mov	 ecx, esi
  000b1	e8 00 00 00 00	 call	 ?CheckInputChangeTarget@ioTargetTimingAttackSkill@@IAE_NPAVioBaseChar@@@Z ; ioTargetTimingAttackSkill::CheckInputChangeTarget

; 165  : 			{
; 166  : 				DestroyEffect( pChar, pStage, m_dwMakerID );

  000b6	8b ce		 mov	 ecx, esi
  000b8	84 c0		 test	 al, al
  000ba	74 10		 je	 SHORT $LN10@OnProcessS
  000bc	8d 86 54 13 00
	00		 lea	 eax, DWORD PTR [esi+4948]
  000c2	50		 push	 eax
  000c3	53		 push	 ebx
  000c4	57		 push	 edi
  000c5	e8 00 00 00 00	 call	 ?DestroyEffect@ioTargetTimingAttackSkill@@IAEXPAVioBaseChar@@PAVioPlayStage@@AAK@Z ; ioTargetTimingAttackSkill::DestroyEffect

; 167  : 				return;

  000ca	eb 60		 jmp	 SHORT $LN12@OnProcessS
$LN10@OnProcessS:

; 168  : 			}
; 169  : 			
; 170  : 			if ( CheckInputAttack( pChar ) )

  000cc	57		 push	 edi
  000cd	e8 00 00 00 00	 call	 ?CheckInputAttack@ioTargetTimingAttackSkill@@IAE_NPAVioBaseChar@@@Z ; ioTargetTimingAttackSkill::CheckInputAttack
  000d2	84 c0		 test	 al, al
  000d4	74 56		 je	 SHORT $LN12@OnProcessS

; 171  : 			{
; 172  : 				SetTeleport( pChar, pStage );

  000d6	53		 push	 ebx
  000d7	57		 push	 edi
  000d8	8b ce		 mov	 ecx, esi
  000da	e8 00 00 00 00	 call	 ?SetTeleport@ioTargetTimingAttackSkill@@IAEXPAVioBaseChar@@PAVioPlayStage@@@Z ; ioTargetTimingAttackSkill::SetTeleport

; 173  : 
; 174  : 				if ( m_bZeroAimed )

  000df	80 be 34 13 00
	00 00		 cmp	 BYTE PTR [esi+4916], 0

; 175  : 					SetAttackState( pChar, SS_ZERO_AIM_ATTACK );

  000e6	8b ce		 mov	 ecx, esi
  000e8	74 04		 je	 SHORT $LN8@OnProcessS
  000ea	6a 05		 push	 5

; 176  : 				else

  000ec	eb 02		 jmp	 SHORT $LN19@OnProcessS
$LN8@OnProcessS:

; 177  : 					SetAttackState( pChar, SS_AIM_ATTACK );

  000ee	6a 04		 push	 4
$LN19@OnProcessS:
  000f0	57		 push	 edi
  000f1	e8 00 00 00 00	 call	 ?SetAttackState@ioTargetTimingAttackSkill@@IAEXPAVioBaseChar@@W4SkillState@1@@Z ; ioTargetTimingAttackSkill::SetAttackState

; 178  : 				return;

  000f6	eb 34		 jmp	 SHORT $LN12@OnProcessS
$LN13@OnProcessS:

; 146  : 	{
; 147  : 	case SS_NONE:
; 148  : 		{
; 149  : 			DWORD dwPreDelay = GetPreDelayTime();

  000f8	8b 06		 mov	 eax, DWORD PTR [esi]
  000fa	8b ce		 mov	 ecx, esi
  000fc	ff 90 34 01 00
	00		 call	 DWORD PTR [eax+308]

; 150  : 			if( m_dwPreDelayStartTime + dwPreDelay < dwCurTime )

  00102	8b 96 20 02 00
	00		 mov	 edx, DWORD PTR [esi+544]
  00108	03 d0		 add	 edx, eax
  0010a	3b d7		 cmp	 edx, edi
  0010c	73 1e		 jae	 SHORT $LN12@OnProcessS

; 151  : 			{
; 152  : 				m_dwPreDelayStartTime = 0;
; 153  : 				EndPreDelayEffect( pChar );

  0010e	ff 75 08	 push	 DWORD PTR _pChar$[ebp]
  00111	8b 06		 mov	 eax, DWORD PTR [esi]
  00113	83 a6 20 02 00
	00 00		 and	 DWORD PTR [esi+544], 0
  0011a	8b ce		 mov	 ecx, esi
  0011c	ff 90 dc 00 00
	00		 call	 DWORD PTR [eax+220]

; 154  : 				SetAimState( pChar );

  00122	ff 75 08	 push	 DWORD PTR _pChar$[ebp]
  00125	8b ce		 mov	 ecx, esi
  00127	e8 00 00 00 00	 call	 ?SetAimState@ioTargetTimingAttackSkill@@IAEXPAVioBaseChar@@@Z ; ioTargetTimingAttackSkill::SetAimState
$LN12@OnProcessS:
  0012c	5f		 pop	 edi
  0012d	5e		 pop	 esi
  0012e	5b		 pop	 ebx

; 197  : 				}
; 198  : 			}
; 199  : 		}
; 200  : 		break;
; 201  : 	}
; 202  : }

  0012f	5d		 pop	 ebp
  00130	c2 08 00	 ret	 8
?OnProcessState@ioTargetTimingAttackSkill@@UAEXPAVioBaseChar@@PAVioPlayStage@@@Z ENDP ; ioTargetTimingAttackSkill::OnProcessState
_TEXT	ENDS
PUBLIC	_pStage$GSCopy$
PUBLIC	_pChar$GSCopy$
PUBLIC	__$ArrayPad$
EXTRN	??5SP2Packet@@QAEAAV0@AAVioHashString@@@Z:PROC	; SP2Packet::operator>>
EXTRN	??5SP2Packet@@QAEAAV0@AA_N@Z:PROC		; SP2Packet::operator>>
EXTRN	??5SP2Packet@@QAEAAV0@AAUD3DXVECTOR3@@@Z:PROC	; SP2Packet::operator>>
EXTRN	?SetTargetRotAndMoveDirChange@ioBaseChar@@QAEXABUD3DXQUATERNION@@_N@Z:PROC ; ioBaseChar::SetTargetRotAndMoveDirChange
EXTRN	??5SP2Packet@@QAEAAV0@AAUD3DXQUATERNION@@@Z:PROC ; SP2Packet::operator>>
EXTRN	??5SP2Packet@@QAEAAV0@AAH@Z:PROC		; SP2Packet::operator>>
; Function compile flags: /Ogsp
;	COMDAT ?ApplyExtraSkillInfo@ioTargetTimingAttackSkill@@UAEXPAVioBaseChar@@PAVioPlayStage@@AAVSP2Packet@@@Z
_TEXT	SEGMENT
tv469 = -104						; size = 4
_pChar$GSCopy$ = -100					; size = 4
_pStage$GSCopy$ = -96					; size = 4
tv555 = -92						; size = 4
tv551 = -92						; size = 4
tv547 = -92						; size = 4
tv529 = -92						; size = 4
tv525 = -92						; size = 4
tv521 = -92						; size = 4
_bFloating$548667 = -85					; size = 1
_nState$ = -84						; size = 4
_vPos$548666 = -80					; size = 12
$T548654 = -80						; size = 12
$T548653 = -68						; size = 12
$T548659 = -56						; size = 12
$T548661 = -44						; size = 12
$T548663 = -32						; size = 12
_qtRot$548665 = -20					; size = 16
_vPos$548652 = -16					; size = 12
__$ArrayPad$ = -4					; size = 4
_pChar$ = 8						; size = 4
_pStage$ = 12						; size = 4
_rkPacket$ = 16						; size = 4
?ApplyExtraSkillInfo@ioTargetTimingAttackSkill@@UAEXPAVioBaseChar@@PAVioPlayStage@@AAVSP2Packet@@@Z PROC ; ioTargetTimingAttackSkill::ApplyExtraSkillInfo, COMDAT
; _this$ = ecx

; 323  : {

  00000	55		 push	 ebp
  00001	8b ec		 mov	 ebp, esp
  00003	83 ec 68	 sub	 esp, 104		; 00000068H
  00006	a1 00 00 00 00	 mov	 eax, DWORD PTR ___security_cookie
  0000b	33 c5		 xor	 eax, ebp
  0000d	89 45 fc	 mov	 DWORD PTR __$ArrayPad$[ebp], eax
  00010	8b 45 0c	 mov	 eax, DWORD PTR _pStage$[ebp]
  00013	53		 push	 ebx
  00014	56		 push	 esi
  00015	8b 75 10	 mov	 esi, DWORD PTR _rkPacket$[ebp]
  00018	57		 push	 edi
  00019	8b 7d 08	 mov	 edi, DWORD PTR _pChar$[ebp]
  0001c	8b d9		 mov	 ebx, ecx

; 354  : 				m_dwMakerID = CreateEffect( pChar, pStage, m_szAimedMarker, vPos, D3DXVECTOR3(1.0f,1.0f,1.0f) );			

  0001e	89 7d 9c	 mov	 DWORD PTR _pChar$GSCopy$[ebp], edi
  00021	89 45 a0	 mov	 DWORD PTR _pStage$GSCopy$[ebp], eax
  00024	85 ff		 test	 edi, edi
  00026	0f 84 bd 02 00
	00		 je	 $LN10@ApplyExtra

; 324  : 	if( !pChar || !pStage ) 

  0002c	85 c0		 test	 eax, eax
  0002e	0f 84 b5 02 00
	00		 je	 $LN10@ApplyExtra

; 325  : 		return;
; 326  : 
; 327  : 	int nState;
; 328  : 	rkPacket >> nState;

  00034	8d 45 ac	 lea	 eax, DWORD PTR _nState$[ebp]
  00037	50		 push	 eax
  00038	8b ce		 mov	 ecx, esi
  0003a	e8 00 00 00 00	 call	 ??5SP2Packet@@QAEAAV0@AAH@Z ; SP2Packet::operator>>

; 329  : 
; 330  : 	switch ( nState )

  0003f	8b 45 ac	 mov	 eax, DWORD PTR _nState$[ebp]
  00042	83 f8 02	 cmp	 eax, 2
  00045	0f 84 bc 00 00
	00		 je	 $LN14@ApplyExtra
  0004b	83 f8 03	 cmp	 eax, 3
  0004e	0f 84 a0 00 00
	00		 je	 $LN15@ApplyExtra
  00054	0f 8e 8f 02 00
	00		 jle	 $LN10@ApplyExtra
  0005a	83 f8 05	 cmp	 eax, 5
  0005d	0f 8f 86 02 00
	00		 jg	 $LN10@ApplyExtra

; 355  : 		}
; 356  : 		break;
; 357  : 	case SS_AIM_ATTACK:
; 358  : 	case SS_ZERO_AIM_ATTACK:
; 359  : 		{
; 360  : 			D3DXQUATERNION qtRot;
; 361  : 			rkPacket >> qtRot;

  00063	8d 45 ec	 lea	 eax, DWORD PTR _qtRot$548665[ebp]
  00066	50		 push	 eax
  00067	8b ce		 mov	 ecx, esi
  00069	e8 00 00 00 00	 call	 ??5SP2Packet@@QAEAAV0@AAUD3DXQUATERNION@@@Z ; SP2Packet::operator>>

; 362  : 
; 363  : 			pChar->SetTargetRotAndMoveDirChange( qtRot );

  0006e	6a 00		 push	 0
  00070	8d 45 ec	 lea	 eax, DWORD PTR _qtRot$548665[ebp]
  00073	50		 push	 eax
  00074	8b cf		 mov	 ecx, edi
  00076	e8 00 00 00 00	 call	 ?SetTargetRotAndMoveDirChange@ioBaseChar@@QAEXABUD3DXQUATERNION@@_N@Z ; ioBaseChar::SetTargetRotAndMoveDirChange

; 364  : 
; 365  : 			D3DXVECTOR3 vPos;
; 366  : 			rkPacket >> vPos;

  0007b	8d 45 b0	 lea	 eax, DWORD PTR _vPos$548666[ebp]
  0007e	50		 push	 eax
  0007f	8b ce		 mov	 ecx, esi
  00081	e8 00 00 00 00	 call	 ??5SP2Packet@@QAEAAV0@AAUD3DXVECTOR3@@@Z ; SP2Packet::operator>>

; 367  : 
; 368  : 			pChar->SetWorldPosition( vPos );

  00086	8b 07		 mov	 eax, DWORD PTR [edi]
  00088	8d 4d b0	 lea	 ecx, DWORD PTR _vPos$548666[ebp]
  0008b	51		 push	 ecx
  0008c	8b cf		 mov	 ecx, edi
  0008e	ff 50 44	 call	 DWORD PTR [eax+68]

; 369  : 
; 370  : 			bool bFloating;
; 371  : 			rkPacket >> bFloating;

  00091	8d 45 ab	 lea	 eax, DWORD PTR _bFloating$548667[ebp]
  00094	50		 push	 eax
  00095	8b ce		 mov	 ecx, esi
  00097	e8 00 00 00 00	 call	 ??5SP2Packet@@QAEAAV0@AA_N@Z ; SP2Packet::operator>>

; 372  : 
; 373  : 			if ( bFloating )

  0009c	80 7d ab 00	 cmp	 BYTE PTR _bFloating$548667[ebp], 0
  000a0	74 1c		 je	 SHORT $LN8@ApplyExtra

; 374  : 			{
; 375  : 				if ( nState == SS_AIM_ATTACK )

  000a2	83 7d ac 04	 cmp	 DWORD PTR _nState$[ebp], 4
  000a6	75 08		 jne	 SHORT $LN7@ApplyExtra

; 376  : 					m_CurAttack = m_JumpAimedAttack;

  000a8	8d 83 14 12 00
	00		 lea	 eax, DWORD PTR [ebx+4628]
  000ae	eb 28		 jmp	 SHORT $LN51@ApplyExtra
$LN7@ApplyExtra:

; 377  : 				else if ( nState == SS_ZERO_AIM_ATTACK )

  000b0	83 7d ac 05	 cmp	 DWORD PTR _nState$[ebp], 5
  000b4	75 2e		 jne	 SHORT $LN1@ApplyExtra

; 378  : 					m_CurAttack = m_JumpZeroAimedAttack;

  000b6	8d 83 64 12 00
	00		 lea	 eax, DWORD PTR [ebx+4708]

; 379  : 			}
; 380  : 			else

  000bc	eb 1a		 jmp	 SHORT $LN51@ApplyExtra
$LN8@ApplyExtra:

; 381  : 			{
; 382  : 				if ( nState == SS_AIM_ATTACK )

  000be	83 7d ac 04	 cmp	 DWORD PTR _nState$[ebp], 4
  000c2	75 08		 jne	 SHORT $LN3@ApplyExtra

; 383  : 					m_CurAttack = m_NormalAimedAttack;

  000c4	8d 83 24 11 00
	00		 lea	 eax, DWORD PTR [ebx+4388]
  000ca	eb 0c		 jmp	 SHORT $LN51@ApplyExtra
$LN3@ApplyExtra:

; 384  : 				else if ( nState == SS_ZERO_AIM_ATTACK )

  000cc	83 7d ac 05	 cmp	 DWORD PTR _nState$[ebp], 5
  000d0	75 12		 jne	 SHORT $LN1@ApplyExtra

; 385  : 					m_CurAttack = m_NormalZeroAimedAttack;

  000d2	8d 83 74 11 00
	00		 lea	 eax, DWORD PTR [ebx+4468]
$LN51@ApplyExtra:
  000d8	50		 push	 eax
  000d9	8d 8b 7c 13 00
	00		 lea	 ecx, DWORD PTR [ebx+4988]
  000df	e8 00 00 00 00	 call	 ??4AttackAttribute@@QAEAAU0@ABU0@@Z
$LN1@ApplyExtra:

; 386  : 			}
; 387  : 
; 388  : 			SetAttackState( pChar, (SkillState)nState );

  000e4	ff 75 ac	 push	 DWORD PTR _nState$[ebp]
  000e7	8b cb		 mov	 ecx, ebx
  000e9	57		 push	 edi
  000ea	e8 00 00 00 00	 call	 ?SetAttackState@ioTargetTimingAttackSkill@@IAEXPAVioBaseChar@@W4SkillState@1@@Z ; ioTargetTimingAttackSkill::SetAttackState

; 389  : 		}
; 390  : 		break;

  000ef	e9 f5 01 00 00	 jmp	 $LN10@ApplyExtra
$LN15@ApplyExtra:

; 331  : 	{		
; 332  : 	case SS_TARGET:
; 333  : 		{
; 334  : 			rkPacket >> m_szAimedTarget;

  000f4	81 c3 3c 13 00
	00		 add	 ebx, 4924		; 0000133cH
  000fa	53		 push	 ebx
  000fb	8b ce		 mov	 ecx, esi
  000fd	e8 00 00 00 00	 call	 ??5SP2Packet@@QAEAAV0@AAVioHashString@@@Z ; SP2Packet::operator>>

; 335  : 		}
; 336  : 		break;

  00102	e9 e2 01 00 00	 jmp	 $LN10@ApplyExtra
$LN14@ApplyExtra:

; 337  : 	case SS_AIM_MARK:
; 338  : 		{
; 339  : 			rkPacket >> m_bZeroAimed;

  00107	8d 83 34 13 00
	00		 lea	 eax, DWORD PTR [ebx+4916]
  0010d	50		 push	 eax
  0010e	8b ce		 mov	 ecx, esi
  00110	e8 00 00 00 00	 call	 ??5SP2Packet@@QAEAAV0@AA_N@Z ; SP2Packet::operator>>

; 340  : 
; 341  : 			DestroyEffect( pChar, pStage, m_dwMakerID );

  00115	8d b3 54 13 00
	00		 lea	 esi, DWORD PTR [ebx+4948]
  0011b	56		 push	 esi
  0011c	ff 75 a0	 push	 DWORD PTR _pStage$GSCopy$[ebp]
  0011f	8b cb		 mov	 ecx, ebx
  00121	57		 push	 edi
  00122	89 75 98	 mov	 DWORD PTR tv469[ebp], esi
  00125	e8 00 00 00 00	 call	 ?DestroyEffect@ioTargetTimingAttackSkill@@IAEXPAVioBaseChar@@PAVioPlayStage@@AAK@Z ; ioTargetTimingAttackSkill::DestroyEffect

; 342  : 
; 343  : 			D3DXVECTOR3 vPos = pChar->GetMidPositionByRate() + m_vAimDir * m_fAimRange;

  0012a	f3 0f 10 83 e4
	10 00 00	 movss	 xmm0, DWORD PTR [ebx+4324]
  00132	f3 0f 10 8b 58
	13 00 00	 movss	 xmm1, DWORD PTR [ebx+4952]
  0013a	0f 5a c9	 cvtps2pd xmm1, xmm1
  0013d	0f 5a d0	 cvtps2pd xmm2, xmm0
  00140	f2 0f 59 ca	 mulsd	 xmm1, xmm2
  00144	66 0f 5a c9	 cvtpd2ps xmm1, xmm1
  00148	f3 0f 11 4d b0	 movss	 DWORD PTR $T548654[ebp], xmm1
  0014d	f3 0f 10 8b 5c
	13 00 00	 movss	 xmm1, DWORD PTR [ebx+4956]
  00155	0f 5a c9	 cvtps2pd xmm1, xmm1
  00158	0f 5a d0	 cvtps2pd xmm2, xmm0
  0015b	f2 0f 59 ca	 mulsd	 xmm1, xmm2
  0015f	66 0f 5a c9	 cvtpd2ps xmm1, xmm1
  00163	f3 0f 11 4d b4	 movss	 DWORD PTR $T548654[ebp+4], xmm1
  00168	f3 0f 10 8b 60
	13 00 00	 movss	 xmm1, DWORD PTR [ebx+4960]
  00170	0f 5a c0	 cvtps2pd xmm0, xmm0
  00173	0f 5a c9	 cvtps2pd xmm1, xmm1
  00176	f2 0f 59 c8	 mulsd	 xmm1, xmm0
  0017a	0f 57 c0	 xorps	 xmm0, xmm0
  0017d	66 0f 5a c1	 cvtpd2ps xmm0, xmm1
  00181	f3 0f 11 45 b8	 movss	 DWORD PTR $T548654[ebp+8], xmm0
  00186	b8 05 00 00 00	 mov	 eax, 5
  0018b	8b c8		 mov	 ecx, eax
  0018d	b8 0a 00 00 00	 mov	 eax, 10			; 0000000aH
  00192	89 4d a4	 mov	 DWORD PTR tv555[ebp], ecx
  00195	db 45 a4	 fild	 DWORD PTR tv555[ebp]
  00198	85 c9		 test	 ecx, ecx
  0019a	79 06		 jns	 SHORT $LN47@ApplyExtra
  0019c	d8 05 00 00 00
	00		 fadd	 DWORD PTR __real@4f800000
$LN47@ApplyExtra:
  001a2	89 45 a4	 mov	 DWORD PTR tv551[ebp], eax
  001a5	db 45 a4	 fild	 DWORD PTR tv551[ebp]
  001a8	85 c0		 test	 eax, eax
  001aa	79 06		 jns	 SHORT $LN48@ApplyExtra
  001ac	d8 05 00 00 00
	00		 fadd	 DWORD PTR __real@4f800000
$LN48@ApplyExtra:
  001b2	de f9		 fdivp	 ST(1), ST(0)
  001b4	51		 push	 ecx
  001b5	8d 45 bc	 lea	 eax, DWORD PTR $T548653[ebp]
  001b8	8b cf		 mov	 ecx, edi
  001ba	d9 5d a4	 fstp	 DWORD PTR tv547[ebp]
  001bd	d9 45 a4	 fld	 DWORD PTR tv547[ebp]
  001c0	d9 1c 24	 fstp	 DWORD PTR [esp]
  001c3	50		 push	 eax
  001c4	e8 00 00 00 00	 call	 ?GetMidPositionByRate@ioGameEntity@@QBE?AUD3DXVECTOR3@@M@Z ; ioGameEntity::GetMidPositionByRate
  001c9	f3 0f 10 40 04	 movss	 xmm0, DWORD PTR [eax+4]
  001ce	f3 0f 10 4d b4	 movss	 xmm1, DWORD PTR $T548654[ebp+4]
  001d3	f3 0f 10 55 b8	 movss	 xmm2, DWORD PTR $T548654[ebp+8]
  001d8	f3 0f 10 5d b0	 movss	 xmm3, DWORD PTR $T548654[ebp]
  001dd	0f 5a c9	 cvtps2pd xmm1, xmm1
  001e0	0f 5a c0	 cvtps2pd xmm0, xmm0
  001e3	f2 0f 58 c1	 addsd	 xmm0, xmm1
  001e7	f3 0f 10 48 08	 movss	 xmm1, DWORD PTR [eax+8]
  001ec	0f 5a d2	 cvtps2pd xmm2, xmm2
  001ef	0f 5a c9	 cvtps2pd xmm1, xmm1
  001f2	f2 0f 58 ca	 addsd	 xmm1, xmm2
  001f6	f3 0f 10 10	 movss	 xmm2, DWORD PTR [eax]
  001fa	0f 5a d2	 cvtps2pd xmm2, xmm2
  001fd	0f 5a db	 cvtps2pd xmm3, xmm3
  00200	f2 0f 58 d3	 addsd	 xmm2, xmm3

; 344  : 			if ( !m_szAimedTarget.IsEmpty() )

  00204	8d bb 3c 13 00
	00		 lea	 edi, DWORD PTR [ebx+4924]
  0020a	66 0f 5a c0	 cvtpd2ps xmm0, xmm0
  0020e	66 0f 5a c9	 cvtpd2ps xmm1, xmm1
  00212	66 0f 5a d2	 cvtpd2ps xmm2, xmm2
  00216	8b cf		 mov	 ecx, edi
  00218	f3 0f 11 55 f0	 movss	 DWORD PTR _vPos$548652[ebp], xmm2
  0021d	f3 0f 11 45 f4	 movss	 DWORD PTR _vPos$548652[ebp+4], xmm0
  00222	f3 0f 11 4d f8	 movss	 DWORD PTR _vPos$548652[ebp+8], xmm1
  00227	ff 15 00 00 00
	00		 call	 DWORD PTR __imp_?IsEmpty@ioHashString@@QBE_NXZ
  0022d	84 c0		 test	 al, al
  0022f	75 5b		 jne	 SHORT $LN46@ApplyExtra

; 345  : 			{
; 346  : 				ioBaseChar *pTarget = pStage->GetBaseChar( m_szAimedTarget );

  00231	8b 4d a0	 mov	 ecx, DWORD PTR _pStage$GSCopy$[ebp]
  00234	57		 push	 edi
  00235	e8 00 00 00 00	 call	 ?GetBaseChar@ioPlayStage@@QAEPAVioBaseChar@@ABVioHashString@@@Z ; ioPlayStage::GetBaseChar
  0023a	8b c8		 mov	 ecx, eax

; 347  : 				if ( pTarget )

  0023c	85 c9		 test	 ecx, ecx
  0023e	74 4c		 je	 SHORT $LN46@ApplyExtra

; 348  : 					vPos = pTarget->GetMidPositionByRate();

  00240	b8 05 00 00 00	 mov	 eax, 5
  00245	8b d0		 mov	 edx, eax
  00247	b8 0a 00 00 00	 mov	 eax, 10			; 0000000aH
  0024c	89 55 a4	 mov	 DWORD PTR tv529[ebp], edx
  0024f	db 45 a4	 fild	 DWORD PTR tv529[ebp]
  00252	85 d2		 test	 edx, edx
  00254	79 06		 jns	 SHORT $LN49@ApplyExtra
  00256	d8 05 00 00 00
	00		 fadd	 DWORD PTR __real@4f800000
$LN49@ApplyExtra:
  0025c	89 45 a4	 mov	 DWORD PTR tv525[ebp], eax
  0025f	db 45 a4	 fild	 DWORD PTR tv525[ebp]
  00262	85 c0		 test	 eax, eax
  00264	79 06		 jns	 SHORT $LN50@ApplyExtra
  00266	d8 05 00 00 00
	00		 fadd	 DWORD PTR __real@4f800000
$LN50@ApplyExtra:
  0026c	de f9		 fdivp	 ST(1), ST(0)
  0026e	51		 push	 ecx
  0026f	8d 45 c8	 lea	 eax, DWORD PTR $T548659[ebp]
  00272	d9 5d a4	 fstp	 DWORD PTR tv521[ebp]
  00275	d9 45 a4	 fld	 DWORD PTR tv521[ebp]
  00278	d9 1c 24	 fstp	 DWORD PTR [esp]
  0027b	50		 push	 eax
  0027c	e8 00 00 00 00	 call	 ?GetMidPositionByRate@ioGameEntity@@QBE?AUD3DXVECTOR3@@M@Z ; ioGameEntity::GetMidPositionByRate
  00281	8b f0		 mov	 esi, eax
  00283	8d 7d f0	 lea	 edi, DWORD PTR _vPos$548652[ebp]
  00286	a5		 movsd
  00287	a5		 movsd
  00288	a5		 movsd
  00289	8b 75 98	 mov	 esi, DWORD PTR tv469[ebp]
$LN46@ApplyExtra:

; 349  : 			}
; 350  : 
; 351  : 			if ( m_bZeroAimed )

  0028c	80 bb 34 13 00
	00 00		 cmp	 BYTE PTR [ebx+4916], 0

; 352  : 				m_dwMakerID = CreateEffect( pChar, pStage, m_szZeroAimedMarker, vPos, D3DXVECTOR3(1.0f,1.0f,1.0f) );

  00293	f3 0f 10 05 00
	00 00 00	 movss	 xmm0, DWORD PTR __real@3f800000
  0029b	8b cb		 mov	 ecx, ebx
  0029d	74 1f		 je	 SHORT $LN11@ApplyExtra
  0029f	8d 45 d4	 lea	 eax, DWORD PTR $T548661[ebp]
  002a2	50		 push	 eax
  002a3	8d 45 f0	 lea	 eax, DWORD PTR _vPos$548652[ebp]
  002a6	50		 push	 eax
  002a7	f3 0f 11 45 d4	 movss	 DWORD PTR $T548661[ebp], xmm0
  002ac	f3 0f 11 45 d8	 movss	 DWORD PTR $T548661[ebp+4], xmm0
  002b1	f3 0f 11 45 dc	 movss	 DWORD PTR $T548661[ebp+8], xmm0
  002b6	8d 83 fc 10 00
	00		 lea	 eax, DWORD PTR [ebx+4348]

; 353  : 			else

  002bc	eb 1d		 jmp	 SHORT $LN52@ApplyExtra
$LN11@ApplyExtra:

; 354  : 				m_dwMakerID = CreateEffect( pChar, pStage, m_szAimedMarker, vPos, D3DXVECTOR3(1.0f,1.0f,1.0f) );			

  002be	8d 45 e0	 lea	 eax, DWORD PTR $T548663[ebp]
  002c1	50		 push	 eax
  002c2	8d 45 f0	 lea	 eax, DWORD PTR _vPos$548652[ebp]
  002c5	50		 push	 eax
  002c6	f3 0f 11 45 e0	 movss	 DWORD PTR $T548663[ebp], xmm0
  002cb	f3 0f 11 45 e4	 movss	 DWORD PTR $T548663[ebp+4], xmm0
  002d0	f3 0f 11 45 e8	 movss	 DWORD PTR $T548663[ebp+8], xmm0
  002d5	8d 83 e8 10 00
	00		 lea	 eax, DWORD PTR [ebx+4328]
$LN52@ApplyExtra:
  002db	50		 push	 eax
  002dc	ff 75 a0	 push	 DWORD PTR _pStage$GSCopy$[ebp]
  002df	ff 75 9c	 push	 DWORD PTR _pChar$GSCopy$[ebp]
  002e2	e8 00 00 00 00	 call	 ?CreateEffect@ioTargetTimingAttackSkill@@IAEKPAVioBaseChar@@PAVioPlayStage@@AAVioHashString@@AAUD3DXVECTOR3@@3@Z ; ioTargetTimingAttackSkill::CreateEffect
  002e7	89 06		 mov	 DWORD PTR [esi], eax
$LN10@ApplyExtra:

; 391  : 	}
; 392  : }

  002e9	8b 4d fc	 mov	 ecx, DWORD PTR __$ArrayPad$[ebp]
  002ec	5f		 pop	 edi
  002ed	5e		 pop	 esi
  002ee	33 cd		 xor	 ecx, ebp
  002f0	5b		 pop	 ebx
  002f1	e8 00 00 00 00	 call	 @__security_check_cookie@4
  002f6	c9		 leave
  002f7	c2 0c 00	 ret	 12			; 0000000cH
?ApplyExtraSkillInfo@ioTargetTimingAttackSkill@@UAEXPAVioBaseChar@@PAVioPlayStage@@AAVSP2Packet@@@Z ENDP ; ioTargetTimingAttackSkill::ApplyExtraSkillInfo
_TEXT	ENDS
END
