; Listing generated by Microsoft (R) Optimizing Compiler Version 16.00.30319.01 

	TITLE	D:\Lost Saga For Developer\Youtube\Tutorial\Source\src\LSClient\ioTargetFlowAttackSkill.cpp
	.686P
	.XMM
	include listing.inc
	.model	flat

INCLUDELIB MSVCRT
INCLUDELIB OLDNAMES

PUBLIC	?_EEM_DS@?$deque@UD3DXVECTOR3@@V?$allocator@UD3DXVECTOR3@@@std@@@std@@2HB ; std::deque<D3DXVECTOR3,std::allocator<D3DXVECTOR3> >::_EEM_DS
;	COMDAT ?_EEM_DS@?$deque@UD3DXVECTOR3@@V?$allocator@UD3DXVECTOR3@@@std@@@std@@2HB
CONST	SEGMENT
?_EEM_DS@?$deque@UD3DXVECTOR3@@V?$allocator@UD3DXVECTOR3@@@std@@@std@@2HB DD 01H ; std::deque<D3DXVECTOR3,std::allocator<D3DXVECTOR3> >::_EEM_DS
CONST	ENDS
PUBLIC	?GetCharName@ioBaseChar@@QBEABVioHashString@@XZ	; ioBaseChar::GetCharName
; Function compile flags: /Ogsp
; File d:\lost saga for developer\youtube\tutorial\source\src\lsclient\iobasechar.h
;	COMDAT ?GetCharName@ioBaseChar@@QBEABVioHashString@@XZ
_TEXT	SEGMENT
?GetCharName@ioBaseChar@@QBEABVioHashString@@XZ PROC	; ioBaseChar::GetCharName, COMDAT
; _this$ = ecx

; 2594 : 	inline const ioHashString& GetCharName() const { return m_Name; }

  00000	8d 81 d4 02 00
	00		 lea	 eax, DWORD PTR [ecx+724]
  00006	c3		 ret	 0
?GetCharName@ioBaseChar@@QBEABVioHashString@@XZ ENDP	; ioBaseChar::GetCharName
_TEXT	ENDS
PUBLIC	?GetTargetRot@ioBaseChar@@QBEABUD3DXQUATERNION@@XZ ; ioBaseChar::GetTargetRot
; Function compile flags: /Ogsp
;	COMDAT ?GetTargetRot@ioBaseChar@@QBEABUD3DXQUATERNION@@XZ
_TEXT	SEGMENT
?GetTargetRot@ioBaseChar@@QBEABUD3DXQUATERNION@@XZ PROC	; ioBaseChar::GetTargetRot, COMDAT
; _this$ = ecx

; 2599 : 	inline const D3DXQUATERNION& GetTargetRot() const { return m_qtTargetRot; }

  00000	8d 81 a4 06 00
	00		 lea	 eax, DWORD PTR [ecx+1700]
  00006	c3		 ret	 0
?GetTargetRot@ioBaseChar@@QBEABUD3DXQUATERNION@@XZ ENDP	; ioBaseChar::GetTargetRot
_TEXT	ENDS
PUBLIC	??_7bad_alloc@std@@6B@				; std::bad_alloc::`vftable'
PUBLIC	??0bad_alloc@std@@QAE@PBD@Z			; std::bad_alloc::bad_alloc
PUBLIC	??_R4bad_alloc@std@@6B@				; std::bad_alloc::`RTTI Complete Object Locator'
PUBLIC	??_R0?AVbad_alloc@std@@@8			; std::bad_alloc `RTTI Type Descriptor'
PUBLIC	??_R3bad_alloc@std@@8				; std::bad_alloc::`RTTI Class Hierarchy Descriptor'
PUBLIC	??_R2bad_alloc@std@@8				; std::bad_alloc::`RTTI Base Class Array'
PUBLIC	??_R1A@?0A@EA@bad_alloc@std@@8			; std::bad_alloc::`RTTI Base Class Descriptor at (0,-1,0,64)'
PUBLIC	??_R1A@?0A@EA@exception@std@@8			; std::exception::`RTTI Base Class Descriptor at (0,-1,0,64)'
PUBLIC	??_R0?AVexception@std@@@8			; std::exception `RTTI Type Descriptor'
PUBLIC	??_R3exception@std@@8				; std::exception::`RTTI Class Hierarchy Descriptor'
PUBLIC	??_R2exception@std@@8				; std::exception::`RTTI Base Class Array'
EXTRN	__imp_??0exception@std@@QAE@ABQBD@Z:PROC
EXTRN	??_7type_info@@6B@:QWORD			; type_info::`vftable'
EXTRN	??_Ebad_alloc@std@@UAEPAXI@Z:PROC		; std::bad_alloc::`vector deleting destructor'
EXTRN	?what@exception@std@@UBEPBDXZ:PROC		; std::exception::what
;	COMDAT ??_R2exception@std@@8
; File c:\program files (x86)\microsoft visual studio 10.0\vc\include\exception
rdata$r	SEGMENT
??_R2exception@std@@8 DD FLAT:??_R1A@?0A@EA@exception@std@@8 ; std::exception::`RTTI Base Class Array'
rdata$r	ENDS
;	COMDAT ??_R3exception@std@@8
rdata$r	SEGMENT
??_R3exception@std@@8 DD 00H				; std::exception::`RTTI Class Hierarchy Descriptor'
	DD	00H
	DD	01H
	DD	FLAT:??_R2exception@std@@8
rdata$r	ENDS
;	COMDAT ??_R0?AVexception@std@@@8
_DATA	SEGMENT
??_R0?AVexception@std@@@8 DD FLAT:??_7type_info@@6B@	; std::exception `RTTI Type Descriptor'
	DD	00H
	DB	'.?AVexception@std@@', 00H
_DATA	ENDS
;	COMDAT ??_R1A@?0A@EA@exception@std@@8
rdata$r	SEGMENT
??_R1A@?0A@EA@exception@std@@8 DD FLAT:??_R0?AVexception@std@@@8 ; std::exception::`RTTI Base Class Descriptor at (0,-1,0,64)'
	DD	00H
	DD	00H
	DD	0ffffffffH
	DD	00H
	DD	040H
	DD	FLAT:??_R3exception@std@@8
rdata$r	ENDS
;	COMDAT ??_R1A@?0A@EA@bad_alloc@std@@8
rdata$r	SEGMENT
??_R1A@?0A@EA@bad_alloc@std@@8 DD FLAT:??_R0?AVbad_alloc@std@@@8 ; std::bad_alloc::`RTTI Base Class Descriptor at (0,-1,0,64)'
	DD	01H
	DD	00H
	DD	0ffffffffH
	DD	00H
	DD	040H
	DD	FLAT:??_R3bad_alloc@std@@8
rdata$r	ENDS
;	COMDAT ??_R2bad_alloc@std@@8
rdata$r	SEGMENT
??_R2bad_alloc@std@@8 DD FLAT:??_R1A@?0A@EA@bad_alloc@std@@8 ; std::bad_alloc::`RTTI Base Class Array'
	DD	FLAT:??_R1A@?0A@EA@exception@std@@8
rdata$r	ENDS
;	COMDAT ??_R3bad_alloc@std@@8
rdata$r	SEGMENT
??_R3bad_alloc@std@@8 DD 00H				; std::bad_alloc::`RTTI Class Hierarchy Descriptor'
	DD	00H
	DD	02H
	DD	FLAT:??_R2bad_alloc@std@@8
rdata$r	ENDS
;	COMDAT ??_R0?AVbad_alloc@std@@@8
_DATA	SEGMENT
??_R0?AVbad_alloc@std@@@8 DD FLAT:??_7type_info@@6B@	; std::bad_alloc `RTTI Type Descriptor'
	DD	00H
	DB	'.?AVbad_alloc@std@@', 00H
_DATA	ENDS
;	COMDAT ??_R4bad_alloc@std@@6B@
rdata$r	SEGMENT
??_R4bad_alloc@std@@6B@ DD 00H				; std::bad_alloc::`RTTI Complete Object Locator'
	DD	00H
	DD	00H
	DD	FLAT:??_R0?AVbad_alloc@std@@@8
	DD	FLAT:??_R3bad_alloc@std@@8
rdata$r	ENDS
;	COMDAT ??_7bad_alloc@std@@6B@
CONST	SEGMENT
??_7bad_alloc@std@@6B@ DD FLAT:??_R4bad_alloc@std@@6B@	; std::bad_alloc::`vftable'
	DD	FLAT:??_Ebad_alloc@std@@UAEPAXI@Z
	DD	FLAT:?what@exception@std@@UBEPBDXZ
; Function compile flags: /Ogsp
CONST	ENDS
;	COMDAT ??0bad_alloc@std@@QAE@PBD@Z
_TEXT	SEGMENT
__Message$ = 8						; size = 4
??0bad_alloc@std@@QAE@PBD@Z PROC			; std::bad_alloc::bad_alloc, COMDAT
; _this$ = ecx

; 345  : 		{	// construct from message string

  00000	55		 push	 ebp
  00001	8b ec		 mov	 ebp, esp
  00003	56		 push	 esi
  00004	8d 45 08	 lea	 eax, DWORD PTR __Message$[ebp]
  00007	50		 push	 eax
  00008	8b f1		 mov	 esi, ecx
  0000a	ff 15 00 00 00
	00		 call	 DWORD PTR __imp_??0exception@std@@QAE@ABQBD@Z
  00010	c7 06 00 00 00
	00		 mov	 DWORD PTR [esi], OFFSET ??_7bad_alloc@std@@6B@

; 346  : 		}

  00016	8b c6		 mov	 eax, esi
  00018	5e		 pop	 esi
  00019	5d		 pop	 ebp
  0001a	c2 04 00	 ret	 4
??0bad_alloc@std@@QAE@PBD@Z ENDP			; std::bad_alloc::bad_alloc
_TEXT	ENDS
PUBLIC	??1bad_alloc@std@@UAE@XZ			; std::bad_alloc::~bad_alloc
EXTRN	__imp_??1exception@std@@UAE@XZ:PROC
; Function compile flags: /Ogsp
;	COMDAT ??1bad_alloc@std@@UAE@XZ
_TEXT	SEGMENT
??1bad_alloc@std@@UAE@XZ PROC				; std::bad_alloc::~bad_alloc, COMDAT
; _this$ = ecx

; 354  : 		{	// destroy the object

  00000	c7 01 00 00 00
	00		 mov	 DWORD PTR [ecx], OFFSET ??_7bad_alloc@std@@6B@

; 355  : 		}

  00006	ff 25 00 00 00
	00		 jmp	 DWORD PTR __imp_??1exception@std@@UAE@XZ
??1bad_alloc@std@@UAE@XZ ENDP				; std::bad_alloc::~bad_alloc
_TEXT	ENDS
EXTRN	??3@YAXPAX@Z:PROC				; operator delete
; Function compile flags: /Ogsp
;	COMDAT ??_Gbad_alloc@std@@UAEPAXI@Z
_TEXT	SEGMENT
___flags$ = 8						; size = 4
??_Gbad_alloc@std@@UAEPAXI@Z PROC			; std::bad_alloc::`scalar deleting destructor', COMDAT
; _this$ = ecx
  00000	55		 push	 ebp
  00001	8b ec		 mov	 ebp, esp
  00003	56		 push	 esi
  00004	8b f1		 mov	 esi, ecx
  00006	c7 06 00 00 00
	00		 mov	 DWORD PTR [esi], OFFSET ??_7bad_alloc@std@@6B@
  0000c	ff 15 00 00 00
	00		 call	 DWORD PTR __imp_??1exception@std@@UAE@XZ
  00012	f6 45 08 01	 test	 BYTE PTR ___flags$[ebp], 1
  00016	74 07		 je	 SHORT $LN1@scalar
  00018	56		 push	 esi
  00019	e8 00 00 00 00	 call	 ??3@YAXPAX@Z		; operator delete
  0001e	59		 pop	 ecx
$LN1@scalar:
  0001f	8b c6		 mov	 eax, esi
  00021	5e		 pop	 esi
  00022	5d		 pop	 ebp
  00023	c2 04 00	 ret	 4
??_Gbad_alloc@std@@UAEPAXI@Z ENDP			; std::bad_alloc::`scalar deleting destructor'
_TEXT	ENDS
PUBLIC	??2@YAPAXIPAX@Z					; operator new
; Function compile flags: /Ogsp
; File c:\program files (x86)\microsoft visual studio 10.0\vc\include\new
;	COMDAT ??2@YAPAXIPAX@Z
_TEXT	SEGMENT
___formal$ = 8						; size = 4
__Where$ = 12						; size = 4
??2@YAPAXIPAX@Z PROC					; operator new, COMDAT

; 56   : 	{	// construct array with placement at _Where

  00000	55		 push	 ebp
  00001	8b ec		 mov	 ebp, esp

; 57   : 	return (_Where);

  00003	8b 45 0c	 mov	 eax, DWORD PTR __Where$[ebp]

; 58   : 	}

  00006	5d		 pop	 ebp
  00007	c3		 ret	 0
??2@YAPAXIPAX@Z ENDP					; operator new
_TEXT	ENDS
PUBLIC	??3@YAXPAX0@Z					; operator delete
; Function compile flags: /Ogsp
;	COMDAT ??3@YAXPAX0@Z
_TEXT	SEGMENT
___formal$ = 8						; size = 4
___formal$ = 12						; size = 4
??3@YAXPAX0@Z PROC					; operator delete, COMDAT

; 62   : 	}

  00000	c3		 ret	 0
??3@YAXPAX0@Z ENDP					; operator delete
_TEXT	ENDS
PUBLIC	?GetCreator@ioBaseChar@@QAEPAVioPlayStage@@XZ	; ioBaseChar::GetCreator
; Function compile flags: /Ogsp
; File d:\lost saga for developer\youtube\tutorial\source\src\lsclient\iobasechar.h
;	COMDAT ?GetCreator@ioBaseChar@@QAEPAVioPlayStage@@XZ
_TEXT	SEGMENT
?GetCreator@ioBaseChar@@QAEPAVioPlayStage@@XZ PROC	; ioBaseChar::GetCreator, COMDAT
; _this$ = ecx

; 4013 : 	inline ioPlayStage* GetCreator() { return m_pCreator; }

  00000	8b 81 44 03 00
	00		 mov	 eax, DWORD PTR [ecx+836]
  00006	c3		 ret	 0
?GetCreator@ioBaseChar@@QAEPAVioPlayStage@@XZ ENDP	; ioBaseChar::GetCreator
_TEXT	ENDS
PUBLIC	?_Adopt@_Iterator_base0@std@@QAEXPBX@Z		; std::_Iterator_base0::_Adopt
; Function compile flags: /Ogsp
; File c:\program files (x86)\microsoft visual studio 10.0\vc\include\xutility
;	COMDAT ?_Adopt@_Iterator_base0@std@@QAEXPBX@Z
_TEXT	SEGMENT
___formal$ = 8						; size = 4
?_Adopt@_Iterator_base0@std@@QAEXPBX@Z PROC		; std::_Iterator_base0::_Adopt, COMDAT
; _this$ = ecx

; 49   : 		}

  00000	c2 04 00	 ret	 4
?_Adopt@_Iterator_base0@std@@QAEXPBX@Z ENDP		; std::_Iterator_base0::_Adopt
_TEXT	ENDS
PUBLIC	?Init@ioTargetFlowAttackSkill@@QAEXXZ		; ioTargetFlowAttackSkill::Init
EXTRN	__imp_?VEC3_ZERO@ioMath@@2UD3DXVECTOR3@@A:BYTE
; Function compile flags: /Ogsp
; File d:\lost saga for developer\youtube\tutorial\source\src\lsclient\iotargetflowattackskill.cpp
;	COMDAT ?Init@ioTargetFlowAttackSkill@@QAEXXZ
_TEXT	SEGMENT
?Init@ioTargetFlowAttackSkill@@QAEXXZ PROC		; ioTargetFlowAttackSkill::Init, COMDAT
; _this$ = ecx

; 37   : {

  00000	56		 push	 esi

; 38   : 	m_bNextLinerCombo	= false;

  00001	33 c0		 xor	 eax, eax
  00003	57		 push	 edi
  00004	66 89 81 08 11
	00 00		 mov	 WORD PTR [ecx+4360], ax

; 39   : 	m_bFinish			= false;
; 40   : 	m_SkillState		= SS_PRE;

  0000b	89 81 e4 10 00
	00		 mov	 DWORD PTR [ecx+4324], eax

; 41   : 	m_iLinerComoboIndex = 0;

  00011	89 81 80 11 00
	00		 mov	 DWORD PTR [ecx+4480], eax

; 42   : 	m_vFirePos			= ioMath::VEC3_ZERO;

  00017	8b 35 00 00 00
	00		 mov	 esi, DWORD PTR __imp_?VEC3_ZERO@ioMath@@2UD3DXVECTOR3@@A
  0001d	8d b9 10 11 00
	00		 lea	 edi, DWORD PTR [ecx+4368]
  00023	a5		 movsd
  00024	a5		 movsd
  00025	a5		 movsd
  00026	5f		 pop	 edi

; 43   : 	m_pCurAttribute		= NULL;

  00027	89 81 7c 11 00
	00		 mov	 DWORD PTR [ecx+4476], eax

; 44   : 	m_eCurrDirKey		= ioUserKeyInput::DKI_NONE;

  0002d	89 81 84 11 00
	00		 mov	 DWORD PTR [ecx+4484], eax
  00033	5e		 pop	 esi

; 45   : }

  00034	c3		 ret	 0
?Init@ioTargetFlowAttackSkill@@QAEXXZ ENDP		; ioTargetFlowAttackSkill::Init
_TEXT	ENDS
PUBLIC	?GetAttribute@ioTargetFlowAttackSkill@@UAEAAUAttackAttribute@@XZ ; ioTargetFlowAttackSkill::GetAttribute
EXTRN	?GetAttribute@ioAttackSkill@@UAEAAUAttackAttribute@@XZ:PROC ; ioAttackSkill::GetAttribute
; Function compile flags: /Ogsp
;	COMDAT ?GetAttribute@ioTargetFlowAttackSkill@@UAEAAUAttackAttribute@@XZ
_TEXT	SEGMENT
?GetAttribute@ioTargetFlowAttackSkill@@UAEAAUAttackAttribute@@XZ PROC ; ioTargetFlowAttackSkill::GetAttribute, COMDAT
; _this$ = ecx

; 296  : 	if( m_SkillState != SS_PRE && m_pCurAttribute )

  00000	83 b9 e4 10 00
	00 00		 cmp	 DWORD PTR [ecx+4324], 0
  00007	74 0a		 je	 SHORT $LN1@GetAttribu
  00009	8b 81 7c 11 00
	00		 mov	 eax, DWORD PTR [ecx+4476]
  0000f	85 c0		 test	 eax, eax

; 297  : 	{
; 298  : 		return *m_pCurAttribute;

  00011	75 05		 jne	 SHORT $LN2@GetAttribu
$LN1@GetAttribu:

; 299  : 	}
; 300  : 
; 301  : 	return ioAttackSkill::GetAttribute();

  00013	e9 00 00 00 00	 jmp	 ?GetAttribute@ioAttackSkill@@UAEAAUAttackAttribute@@XZ ; ioAttackSkill::GetAttribute
$LN2@GetAttribu:

; 302  : }

  00018	c3		 ret	 0
?GetAttribute@ioTargetFlowAttackSkill@@UAEAAUAttackAttribute@@XZ ENDP ; ioTargetFlowAttackSkill::GetAttribute
_TEXT	ENDS
PUBLIC	?GetAttributeConst@ioTargetFlowAttackSkill@@UBEABUAttackAttribute@@XZ ; ioTargetFlowAttackSkill::GetAttributeConst
EXTRN	?GetAttributeConst@ioAttackSkill@@UBEABUAttackAttribute@@XZ:PROC ; ioAttackSkill::GetAttributeConst
; Function compile flags: /Ogsp
;	COMDAT ?GetAttributeConst@ioTargetFlowAttackSkill@@UBEABUAttackAttribute@@XZ
_TEXT	SEGMENT
?GetAttributeConst@ioTargetFlowAttackSkill@@UBEABUAttackAttribute@@XZ PROC ; ioTargetFlowAttackSkill::GetAttributeConst, COMDAT
; _this$ = ecx

; 306  : 	if( m_SkillState != SS_PRE && m_pCurAttribute )

  00000	83 b9 e4 10 00
	00 00		 cmp	 DWORD PTR [ecx+4324], 0
  00007	74 0a		 je	 SHORT $LN1@GetAttribu@2
  00009	8b 81 7c 11 00
	00		 mov	 eax, DWORD PTR [ecx+4476]
  0000f	85 c0		 test	 eax, eax

; 307  : 	{
; 308  : 		return *m_pCurAttribute;

  00011	75 05		 jne	 SHORT $LN2@GetAttribu@2
$LN1@GetAttribu@2:

; 309  : 	}
; 310  : 
; 311  : 	return ioAttackSkill::GetAttributeConst();

  00013	e9 00 00 00 00	 jmp	 ?GetAttributeConst@ioAttackSkill@@UBEABUAttackAttribute@@XZ ; ioAttackSkill::GetAttributeConst
$LN2@GetAttribu@2:

; 312  : }

  00018	c3		 ret	 0
?GetAttributeConst@ioTargetFlowAttackSkill@@UBEABUAttackAttribute@@XZ ENDP ; ioTargetFlowAttackSkill::GetAttributeConst
_TEXT	ENDS
PUBLIC	__real@0000000000000000
PUBLIC	?IsEndState@ioTargetFlowAttackSkill@@UBE_NXZ	; ioTargetFlowAttackSkill::IsEndState
EXTRN	__fltused:DWORD
;	COMDAT __real@0000000000000000
CONST	SEGMENT
__real@0000000000000000 DQ 00000000000000000r	; 0
; Function compile flags: /Ogsp
CONST	ENDS
;	COMDAT ?IsEndState@ioTargetFlowAttackSkill@@UBE_NXZ
_TEXT	SEGMENT
?IsEndState@ioTargetFlowAttackSkill@@UBE_NXZ PROC	; ioTargetFlowAttackSkill::IsEndState, COMDAT
; _this$ = ecx

; 337  : 	if( 0.0f < m_fSkillEndNextJumpAmt )

  00000	f3 0f 10 81 4c
	05 00 00	 movss	 xmm0, DWORD PTR [ecx+1356]
  00008	0f 5a c0	 cvtps2pd xmm0, xmm0
  0000b	66 0f 2f 05 00
	00 00 00	 comisd	 xmm0, QWORD PTR __real@0000000000000000
  00013	76 03		 jbe	 SHORT $LN2@IsEndState

; 338  : 		return false;

  00015	32 c0		 xor	 al, al

; 341  : 		return true;
; 342  : 
; 343  : 	return false;
; 344  : }

  00017	c3		 ret	 0
$LN2@IsEndState:

; 339  : 
; 340  : 	if( m_SkillState == SS_END )

  00018	83 b9 e4 10 00
	00 04		 cmp	 DWORD PTR [ecx+4324], 4
  0001f	0f 94 c0	 sete	 al

; 341  : 		return true;
; 342  : 
; 343  : 	return false;
; 344  : }

  00022	c3		 ret	 0
?IsEndState@ioTargetFlowAttackSkill@@UBE_NXZ ENDP	; ioTargetFlowAttackSkill::IsEndState
_TEXT	ENDS
PUBLIC	__real@00000000
PUBLIC	?IsSkillMotionEnd@ioTargetFlowAttackSkill@@UBE_NKPAVioBaseChar@@@Z ; ioTargetFlowAttackSkill::IsSkillMotionEnd
;	COMDAT __real@00000000
CONST	SEGMENT
__real@00000000 DD 000000000r			; 0
; Function compile flags: /Ogsp
CONST	ENDS
;	COMDAT ?IsSkillMotionEnd@ioTargetFlowAttackSkill@@UBE_NKPAVioBaseChar@@@Z
_TEXT	SEGMENT
_dwActionStop$ = 8					; size = 4
_pOwner$ = 12						; size = 4
?IsSkillMotionEnd@ioTargetFlowAttackSkill@@UBE_NKPAVioBaseChar@@@Z PROC ; ioTargetFlowAttackSkill::IsSkillMotionEnd, COMDAT
; _this$ = ecx

; 348  : 	if( m_dwPreDelayStartTime > 0 )

  00000	83 b9 20 02 00
	00 00		 cmp	 DWORD PTR [ecx+544], 0

; 349  : 		return false;

  00007	77 22		 ja	 SHORT $LN1@IsSkillMot

; 350  : 
; 351  : 	switch( m_SkillState )

  00009	83 b9 e4 10 00
	00 03		 cmp	 DWORD PTR [ecx+4324], 3

; 352  : 	{
; 353  : 	case SS_PRE:
; 354  : 	case SS_TARGET_FLOW:
; 355  : 	case SS_TELEPORT:
; 356  : 	case SS_ATTACK:
; 357  : 		return false;

  00010	76 19		 jbe	 SHORT $LN1@IsSkillMot

; 358  : 	}
; 359  : 
; 360  : 	if( m_fSkillEndNextJumpAmt == 0.0f )

  00012	f3 0f 10 81 4c
	05 00 00	 movss	 xmm0, DWORD PTR [ecx+1356]
  0001a	0f 2e 05 00 00
	00 00		 ucomiss xmm0, DWORD PTR __real@00000000
  00021	9f		 lahf
  00022	f6 c4 44	 test	 ah, 68			; 00000044H
  00025	7a 04		 jp	 SHORT $LN1@IsSkillMot

; 361  : 		return true;

  00027	b0 01		 mov	 al, 1
  00029	eb 02		 jmp	 SHORT $LN6@IsSkillMot
$LN1@IsSkillMot:

; 362  : 	
; 363  : 	return false;

  0002b	32 c0		 xor	 al, al
$LN6@IsSkillMot:

; 364  : }

  0002d	c2 08 00	 ret	 8
?IsSkillMotionEnd@ioTargetFlowAttackSkill@@UBE_NKPAVioBaseChar@@@Z ENDP ; ioTargetFlowAttackSkill::IsSkillMotionEnd
_TEXT	ENDS
PUBLIC	?IsAttackEndState@ioTargetFlowAttackSkill@@UBE_NXZ ; ioTargetFlowAttackSkill::IsAttackEndState
; Function compile flags: /Ogsp
;	COMDAT ?IsAttackEndState@ioTargetFlowAttackSkill@@UBE_NXZ
_TEXT	SEGMENT
?IsAttackEndState@ioTargetFlowAttackSkill@@UBE_NXZ PROC	; ioTargetFlowAttackSkill::IsAttackEndState, COMDAT
; _this$ = ecx

; 368  : 	if( m_fSkillEndNextJumpAmt == 0.0f )

  00000	f3 0f 10 81 4c
	05 00 00	 movss	 xmm0, DWORD PTR [ecx+1356]
  00008	0f 2e 05 00 00
	00 00		 ucomiss xmm0, DWORD PTR __real@00000000
  0000f	9f		 lahf
  00010	f6 c4 44	 test	 ah, 68			; 00000044H
  00013	7a 03		 jp	 SHORT $LN4@IsAttackEn

; 369  : 		return false;

  00015	32 c0		 xor	 al, al

; 372  : 	{
; 373  : 	case SS_PRE:
; 374  : 	case SS_TARGET_FLOW:
; 375  : 	case SS_TELEPORT:
; 376  : 	case SS_ATTACK:
; 377  : 		return false;
; 378  : 	}
; 379  : 
; 380  : 	return true;
; 381  : }

  00017	c3		 ret	 0
$LN4@IsAttackEn:

; 370  : 
; 371  : 	switch( m_SkillState )

  00018	83 b9 e4 10 00
	00 03		 cmp	 DWORD PTR [ecx+4324], 3
  0001f	0f 97 c0	 seta	 al

; 372  : 	{
; 373  : 	case SS_PRE:
; 374  : 	case SS_TARGET_FLOW:
; 375  : 	case SS_TELEPORT:
; 376  : 	case SS_ATTACK:
; 377  : 		return false;
; 378  : 	}
; 379  : 
; 380  : 	return true;
; 381  : }

  00022	c3		 ret	 0
?IsAttackEndState@ioTargetFlowAttackSkill@@UBE_NXZ ENDP	; ioTargetFlowAttackSkill::IsAttackEndState
_TEXT	ENDS
PUBLIC	?IsNoDropState@ioTargetFlowAttackSkill@@UBE_NXZ	; ioTargetFlowAttackSkill::IsNoDropState
; Function compile flags: /Ogsp
;	COMDAT ?IsNoDropState@ioTargetFlowAttackSkill@@UBE_NXZ
_TEXT	SEGMENT
?IsNoDropState@ioTargetFlowAttackSkill@@UBE_NXZ PROC	; ioTargetFlowAttackSkill::IsNoDropState, COMDAT
; _this$ = ecx

; 386  : 	switch( m_SkillState )

  00000	8b 81 e4 10 00
	00		 mov	 eax, DWORD PTR [ecx+4324]
  00006	83 c0 fe	 add	 eax, -2			; fffffffeH
  00009	83 f8 02	 cmp	 eax, 2
  0000c	77 03		 ja	 SHORT $LN4@IsNoDropSt
$LN8@IsNoDropSt:

; 387  : 	{
; 388  : 	case SS_TELEPORT:
; 389  : 	case SS_ATTACK:
; 390  : 	case SS_END:
; 391  : 		return true;

  0000e	b0 01		 mov	 al, 1

; 398  : }

  00010	c3		 ret	 0
$LN4@IsNoDropSt:

; 392  : 	}
; 393  : 
; 394  : 	if( 0 < m_fSkillEndNextJumpAmt )

  00011	f3 0f 10 81 4c
	05 00 00	 movss	 xmm0, DWORD PTR [ecx+1356]
  00019	0f 5a c0	 cvtps2pd xmm0, xmm0
  0001c	66 0f 2f 05 00
	00 00 00	 comisd	 xmm0, QWORD PTR __real@0000000000000000

; 395  : 		return true;

  00024	77 e8		 ja	 SHORT $LN8@IsNoDropSt

; 396  : 	else
; 397  : 		return false;

  00026	32 c0		 xor	 al, al

; 398  : }

  00028	c3		 ret	 0
?IsNoDropState@ioTargetFlowAttackSkill@@UBE_NXZ ENDP	; ioTargetFlowAttackSkill::IsNoDropState
_TEXT	ENDS
PUBLIC	?GetSkillEndNextJumpMustEnable@ioTargetFlowAttackSkill@@UAE?AW4SkillEndJumpType@@XZ ; ioTargetFlowAttackSkill::GetSkillEndNextJumpMustEnable
; Function compile flags: /Ogsp
;	COMDAT ?GetSkillEndNextJumpMustEnable@ioTargetFlowAttackSkill@@UAE?AW4SkillEndJumpType@@XZ
_TEXT	SEGMENT
?GetSkillEndNextJumpMustEnable@ioTargetFlowAttackSkill@@UAE?AW4SkillEndJumpType@@XZ PROC ; ioTargetFlowAttackSkill::GetSkillEndNextJumpMustEnable, COMDAT
; _this$ = ecx

; 402  : 	switch( m_SkillState )

  00000	8b 81 e4 10 00
	00		 mov	 eax, DWORD PTR [ecx+4324]
  00006	83 c0 fe	 add	 eax, -2			; fffffffeH
  00009	6a 02		 push	 2
  0000b	59		 pop	 ecx
  0000c	3b c8		 cmp	 ecx, eax
  0000e	1b c0		 sbb	 eax, eax
  00010	f7 d8		 neg	 eax

; 403  : 	{
; 404  : 	case SS_TELEPORT:
; 405  : 	case SS_ATTACK:
; 406  : 	case SS_END:		
; 407  : 		return SEJT_DEFAULT;
; 408  : 	}
; 409  : 
; 410  : 	return SEJT_NOT_JUMP;
; 411  : }

  00012	c3		 ret	 0
?GetSkillEndNextJumpMustEnable@ioTargetFlowAttackSkill@@UAE?AW4SkillEndJumpType@@XZ ENDP ; ioTargetFlowAttackSkill::GetSkillEndNextJumpMustEnable
_TEXT	ENDS
PUBLIC	?CheckUseItemMesh@ioTargetFlowAttackSkill@@UAE_NXZ ; ioTargetFlowAttackSkill::CheckUseItemMesh
; Function compile flags: /Ogsp
;	COMDAT ?CheckUseItemMesh@ioTargetFlowAttackSkill@@UAE_NXZ
_TEXT	SEGMENT
?CheckUseItemMesh@ioTargetFlowAttackSkill@@UAE_NXZ PROC	; ioTargetFlowAttackSkill::CheckUseItemMesh, COMDAT
; _this$ = ecx

; 415  : 	return m_bUseItemMesh;

  00000	8a 81 08 0f 00
	00		 mov	 al, BYTE PTR [ecx+3848]

; 416  : }

  00006	c3		 ret	 0
?CheckUseItemMesh@ioTargetFlowAttackSkill@@UAE_NXZ ENDP	; ioTargetFlowAttackSkill::CheckUseItemMesh
_TEXT	ENDS
PUBLIC	?ApplyAttributeToWeapon@ioTargetFlowAttackSkill@@UAEXPAVioWeapon@@PAVioPlayStage@@@Z ; ioTargetFlowAttackSkill::ApplyAttributeToWeapon
EXTRN	?ApplyAttributeToWeapon@ioSkill@@UAEXPAVioWeapon@@PAVioPlayStage@@@Z:PROC ; ioSkill::ApplyAttributeToWeapon
; Function compile flags: /Ogsp
;	COMDAT ?ApplyAttributeToWeapon@ioTargetFlowAttackSkill@@UAEXPAVioWeapon@@PAVioPlayStage@@@Z
_TEXT	SEGMENT
_pWeapon$ = 8						; size = 4
_pStage$ = 12						; size = 4
?ApplyAttributeToWeapon@ioTargetFlowAttackSkill@@UAEXPAVioWeapon@@PAVioPlayStage@@@Z PROC ; ioTargetFlowAttackSkill::ApplyAttributeToWeapon, COMDAT
; _this$ = ecx

; 419  : {

  00000	55		 push	 ebp
  00001	8b ec		 mov	 ebp, esp

; 421  : }

  00003	5d		 pop	 ebp

; 420  : 	ioAttackSkill::ApplyAttributeToWeapon( pWeapon, pStage );

  00004	e9 00 00 00 00	 jmp	 ?ApplyAttributeToWeapon@ioSkill@@UAEXPAVioWeapon@@PAVioPlayStage@@@Z ; ioSkill::ApplyAttributeToWeapon
?ApplyAttributeToWeapon@ioTargetFlowAttackSkill@@UAEXPAVioWeapon@@PAVioPlayStage@@@Z ENDP ; ioTargetFlowAttackSkill::ApplyAttributeToWeapon
_TEXT	ENDS
PUBLIC	?size@?$vector@UAttackAttribute@@V?$allocator@UAttackAttribute@@@std@@@std@@QBEIXZ ; std::vector<AttackAttribute,std::allocator<AttackAttribute> >::size
; Function compile flags: /Ogsp
; File c:\program files (x86)\microsoft visual studio 10.0\vc\include\vector
;	COMDAT ?size@?$vector@UAttackAttribute@@V?$allocator@UAttackAttribute@@@std@@@std@@QBEIXZ
_TEXT	SEGMENT
?size@?$vector@UAttackAttribute@@V?$allocator@UAttackAttribute@@@std@@@std@@QBEIXZ PROC ; std::vector<AttackAttribute,std::allocator<AttackAttribute> >::size, COMDAT
; _this$ = ecx

; 879  : 		return (this->_Mylast - this->_Myfirst);

  00000	8b 41 04	 mov	 eax, DWORD PTR [ecx+4]
  00003	2b 01		 sub	 eax, DWORD PTR [ecx]
  00005	6a 50		 push	 80			; 00000050H
  00007	99		 cdq
  00008	59		 pop	 ecx
  00009	f7 f9		 idiv	 ecx

; 880  : 		}

  0000b	c3		 ret	 0
?size@?$vector@UAttackAttribute@@V?$allocator@UAttackAttribute@@@std@@@std@@QBEIXZ ENDP ; std::vector<AttackAttribute,std::allocator<AttackAttribute> >::size
_TEXT	ENDS
PUBLIC	??A?$vector@UAttackAttribute@@V?$allocator@UAttackAttribute@@@std@@@std@@QAEAAUAttackAttribute@@I@Z ; std::vector<AttackAttribute,std::allocator<AttackAttribute> >::operator[]
; Function compile flags: /Ogsp
;	COMDAT ??A?$vector@UAttackAttribute@@V?$allocator@UAttackAttribute@@@std@@@std@@QAEAAUAttackAttribute@@I@Z
_TEXT	SEGMENT
__Pos$ = 8						; size = 4
??A?$vector@UAttackAttribute@@V?$allocator@UAttackAttribute@@@std@@@std@@QAEAAUAttackAttribute@@I@Z PROC ; std::vector<AttackAttribute,std::allocator<AttackAttribute> >::operator[], COMDAT
; _this$ = ecx

; 928  : 		{	// subscript mutable sequence

  00000	55		 push	 ebp
  00001	8b ec		 mov	 ebp, esp

; 929  :  #if _ITERATOR_DEBUG_LEVEL == 2
; 930  : 		if (size() <= _Pos)
; 931  : 			{	// report error
; 932  : 			_DEBUG_ERROR("vector subscript out of range");
; 933  : 			_SCL_SECURE_OUT_OF_RANGE;
; 934  : 			}
; 935  : 
; 936  :  #elif _ITERATOR_DEBUG_LEVEL == 1
; 937  : 		_SCL_SECURE_VALIDATE_RANGE(_Pos < size());
; 938  :  #endif /* _ITERATOR_DEBUG_LEVEL */
; 939  : 
; 940  : 		return (*(this->_Myfirst + _Pos));

  00003	8b 45 08	 mov	 eax, DWORD PTR __Pos$[ebp]
  00006	6b c0 50	 imul	 eax, 80			; 00000050H
  00009	03 01		 add	 eax, DWORD PTR [ecx]

; 941  : 		}

  0000b	5d		 pop	 ebp
  0000c	c2 04 00	 ret	 4
??A?$vector@UAttackAttribute@@V?$allocator@UAttackAttribute@@@std@@@std@@QAEAAUAttackAttribute@@I@Z ENDP ; std::vector<AttackAttribute,std::allocator<AttackAttribute> >::operator[]
_TEXT	ENDS
PUBLIC	?_Inside@?$vector@UAttackAttribute@@V?$allocator@UAttackAttribute@@@std@@@std@@IBE_NPBUAttackAttribute@@@Z ; std::vector<AttackAttribute,std::allocator<AttackAttribute> >::_Inside
; Function compile flags: /Ogsp
;	COMDAT ?_Inside@?$vector@UAttackAttribute@@V?$allocator@UAttackAttribute@@@std@@@std@@IBE_NPBUAttackAttribute@@@Z
_TEXT	SEGMENT
__Ptr$ = 8						; size = 4
?_Inside@?$vector@UAttackAttribute@@V?$allocator@UAttackAttribute@@@std@@@std@@IBE_NPBUAttackAttribute@@@Z PROC ; std::vector<AttackAttribute,std::allocator<AttackAttribute> >::_Inside, COMDAT
; _this$ = ecx

; 1285 : 		{	// test if _Ptr points inside vector

  00000	55		 push	 ebp
  00001	8b ec		 mov	 ebp, esp

; 1286 : 		return (_Ptr < this->_Mylast && this->_Myfirst <= _Ptr);

  00003	8b 45 08	 mov	 eax, DWORD PTR __Ptr$[ebp]
  00006	3b 41 04	 cmp	 eax, DWORD PTR [ecx+4]
  00009	73 09		 jae	 SHORT $LN3@Inside
  0000b	39 01		 cmp	 DWORD PTR [ecx], eax
  0000d	77 05		 ja	 SHORT $LN3@Inside
  0000f	33 c0		 xor	 eax, eax
  00011	40		 inc	 eax
  00012	eb 02		 jmp	 SHORT $LN4@Inside
$LN3@Inside:
  00014	33 c0		 xor	 eax, eax
$LN4@Inside:

; 1287 : 		}

  00016	5d		 pop	 ebp
  00017	c2 04 00	 ret	 4
?_Inside@?$vector@UAttackAttribute@@V?$allocator@UAttackAttribute@@@std@@@std@@IBE_NPBUAttackAttribute@@@Z ENDP ; std::vector<AttackAttribute,std::allocator<AttackAttribute> >::_Inside
_TEXT	ENDS
PUBLIC	?_Orphan_range@?$vector@UAttackAttribute@@V?$allocator@UAttackAttribute@@@std@@@std@@IBEXPAUAttackAttribute@@0@Z ; std::vector<AttackAttribute,std::allocator<AttackAttribute> >::_Orphan_range
; Function compile flags: /Ogsp
;	COMDAT ?_Orphan_range@?$vector@UAttackAttribute@@V?$allocator@UAttackAttribute@@@std@@@std@@IBEXPAUAttackAttribute@@0@Z
_TEXT	SEGMENT
___formal$ = 8						; size = 4
___formal$ = 12						; size = 4
?_Orphan_range@?$vector@UAttackAttribute@@V?$allocator@UAttackAttribute@@@std@@@std@@IBEXPAUAttackAttribute@@0@Z PROC ; std::vector<AttackAttribute,std::allocator<AttackAttribute> >::_Orphan_range, COMDAT
; _this$ = ecx

; 1454 : 		}

  00000	c2 08 00	 ret	 8
?_Orphan_range@?$vector@UAttackAttribute@@V?$allocator@UAttackAttribute@@@std@@@std@@IBEXPAUAttackAttribute@@0@Z ENDP ; std::vector<AttackAttribute,std::allocator<AttackAttribute> >::_Orphan_range
_TEXT	ENDS
PUBLIC	?capacity@?$vector@UAttackAttribute@@V?$allocator@UAttackAttribute@@@std@@@std@@QBEIXZ ; std::vector<AttackAttribute,std::allocator<AttackAttribute> >::capacity
; Function compile flags: /Ogsp
;	COMDAT ?capacity@?$vector@UAttackAttribute@@V?$allocator@UAttackAttribute@@@std@@@std@@QBEIXZ
_TEXT	SEGMENT
?capacity@?$vector@UAttackAttribute@@V?$allocator@UAttackAttribute@@@std@@@std@@QBEIXZ PROC ; std::vector<AttackAttribute,std::allocator<AttackAttribute> >::capacity, COMDAT
; _this$ = ecx

; 777  : 		return (this->_Myend - this->_Myfirst);

  00000	8b 41 08	 mov	 eax, DWORD PTR [ecx+8]
  00003	2b 01		 sub	 eax, DWORD PTR [ecx]
  00005	6a 50		 push	 80			; 00000050H
  00007	99		 cdq
  00008	59		 pop	 ecx
  00009	f7 f9		 idiv	 ecx

; 778  : 		}

  0000b	c3		 ret	 0
?capacity@?$vector@UAttackAttribute@@V?$allocator@UAttackAttribute@@@std@@@std@@QBEIXZ ENDP ; std::vector<AttackAttribute,std::allocator<AttackAttribute> >::capacity
_TEXT	ENDS
PUBLIC	??_C@_0BD@OLBABOEK@vector?$DMT?$DO?5too?5long?$AA@ ; `string'
PUBLIC	?_Xlen@?$vector@UAttackAttribute@@V?$allocator@UAttackAttribute@@@std@@@std@@IBEXXZ ; std::vector<AttackAttribute,std::allocator<AttackAttribute> >::_Xlen
EXTRN	__imp_?_Xlength_error@std@@YAXPBD@Z:PROC
;	COMDAT ??_C@_0BD@OLBABOEK@vector?$DMT?$DO?5too?5long?$AA@
CONST	SEGMENT
??_C@_0BD@OLBABOEK@vector?$DMT?$DO?5too?5long?$AA@ DB 'vector<T> too long'
	DB	00H						; `string'
; Function compile flags: /Ogsp
CONST	ENDS
;	COMDAT ?_Xlen@?$vector@UAttackAttribute@@V?$allocator@UAttackAttribute@@@std@@@std@@IBEXXZ
_TEXT	SEGMENT
?_Xlen@?$vector@UAttackAttribute@@V?$allocator@UAttackAttribute@@@std@@@std@@IBEXXZ PROC ; std::vector<AttackAttribute,std::allocator<AttackAttribute> >::_Xlen, COMDAT
; _this$ = ecx

; 1427 : 		_Xlength_error("vector<T> too long");

  00000	68 00 00 00 00	 push	 OFFSET ??_C@_0BD@OLBABOEK@vector?$DMT?$DO?5too?5long?$AA@
  00005	ff 15 00 00 00
	00		 call	 DWORD PTR __imp_?_Xlength_error@std@@YAXPBD@Z
$LN4@Xlen:
$LN3@Xlen:
  0000b	cc		 int	 3
?_Xlen@?$vector@UAttackAttribute@@V?$allocator@UAttackAttribute@@@std@@@std@@IBEXXZ ENDP ; std::vector<AttackAttribute,std::allocator<AttackAttribute> >::_Xlen
_TEXT	ENDS
PUBLIC	?max_size@?$allocator@UAttackAttribute@@@std@@QBEIXZ ; std::allocator<AttackAttribute>::max_size
; Function compile flags: /Ogsp
; File c:\program files (x86)\microsoft visual studio 10.0\vc\include\xmemory
;	COMDAT ?max_size@?$allocator@UAttackAttribute@@@std@@QBEIXZ
_TEXT	SEGMENT
?max_size@?$allocator@UAttackAttribute@@@std@@QBEIXZ PROC ; std::allocator<AttackAttribute>::max_size, COMDAT
; _this$ = ecx

; 218  : 		_SIZT _Count = (_SIZT)(-1) / sizeof (_Ty);
; 219  : 		return (0 < _Count ? _Count : 1);

  00000	b8 33 33 33 03	 mov	 eax, 53687091		; 03333333H

; 220  : 		}

  00005	c3		 ret	 0
?max_size@?$allocator@UAttackAttribute@@@std@@QBEIXZ ENDP ; std::allocator<AttackAttribute>::max_size
_TEXT	ENDS
PUBLIC	??$addressof@$$CBUAttackAttribute@@@std@@YAPBUAttackAttribute@@ABU1@@Z ; std::addressof<AttackAttribute const >
; Function compile flags: /Ogsp
;	COMDAT ??$addressof@$$CBUAttackAttribute@@@std@@YAPBUAttackAttribute@@ABU1@@Z
_TEXT	SEGMENT
__Val$ = 8						; size = 4
??$addressof@$$CBUAttackAttribute@@@std@@YAPBUAttackAttribute@@ABU1@@Z PROC ; std::addressof<AttackAttribute const >, COMDAT

; 110  : 	{	// return address of _Val

  00000	55		 push	 ebp
  00001	8b ec		 mov	 ebp, esp

; 111  : 	return ((_Ty *) &(char&)_Val);

  00003	8b 45 08	 mov	 eax, DWORD PTR __Val$[ebp]

; 112  : 	}

  00006	5d		 pop	 ebp
  00007	c3		 ret	 0
??$addressof@$$CBUAttackAttribute@@@std@@YAPBUAttackAttribute@@ABU1@@Z ENDP ; std::addressof<AttackAttribute const >
_TEXT	ENDS
PUBLIC	__TI2?AVbad_alloc@std@@
PUBLIC	??$_Allocate@UAttackAttribute@@@std@@YAPAUAttackAttribute@@IPAU1@@Z ; std::_Allocate<AttackAttribute>
PUBLIC	__CTA2?AVbad_alloc@std@@
PUBLIC	__CT??_R0?AVbad_alloc@std@@@8??0bad_alloc@std@@QAE@ABV01@@Z12
PUBLIC	??0bad_alloc@std@@QAE@ABV01@@Z			; std::bad_alloc::bad_alloc
PUBLIC	__CT??_R0?AVexception@std@@@8??0exception@std@@QAE@ABV01@@Z12
EXTRN	??2@YAPAXI@Z:PROC				; operator new
EXTRN	__CxxThrowException@8:PROC
EXTRN	??0exception@std@@QAE@ABV01@@Z:PROC		; std::exception::exception
;	COMDAT __CT??_R0?AVexception@std@@@8??0exception@std@@QAE@ABV01@@Z12
; File c:\program files (x86)\microsoft visual studio 10.0\vc\include\exception
xdata$x	SEGMENT
__CT??_R0?AVexception@std@@@8??0exception@std@@QAE@ABV01@@Z12 DD 00H
	DD	FLAT:??_R0?AVexception@std@@@8
	DD	00H
	DD	0ffffffffH
	ORG $+4
	DD	0cH
	DD	FLAT:??0exception@std@@QAE@ABV01@@Z
xdata$x	ENDS
;	COMDAT __CT??_R0?AVbad_alloc@std@@@8??0bad_alloc@std@@QAE@ABV01@@Z12
xdata$x	SEGMENT
__CT??_R0?AVbad_alloc@std@@@8??0bad_alloc@std@@QAE@ABV01@@Z12 DD 00H
	DD	FLAT:??_R0?AVbad_alloc@std@@@8
	DD	00H
	DD	0ffffffffH
	ORG $+4
	DD	0cH
	DD	FLAT:??0bad_alloc@std@@QAE@ABV01@@Z
xdata$x	ENDS
;	COMDAT __CTA2?AVbad_alloc@std@@
xdata$x	SEGMENT
__CTA2?AVbad_alloc@std@@ DD 02H
	DD	FLAT:__CT??_R0?AVbad_alloc@std@@@8??0bad_alloc@std@@QAE@ABV01@@Z12
	DD	FLAT:__CT??_R0?AVexception@std@@@8??0exception@std@@QAE@ABV01@@Z12
xdata$x	ENDS
;	COMDAT __TI2?AVbad_alloc@std@@
xdata$x	SEGMENT
__TI2?AVbad_alloc@std@@ DD 00H
	DD	FLAT:??1bad_alloc@std@@UAE@XZ
	DD	00H
	DD	FLAT:__CTA2?AVbad_alloc@std@@
; Function compile flags: /Ogsp
; File c:\program files (x86)\microsoft visual studio 10.0\vc\include\xmemory
xdata$x	ENDS
;	COMDAT ??$_Allocate@UAttackAttribute@@@std@@YAPAUAttackAttribute@@IPAU1@@Z
_TEXT	SEGMENT
$T551407 = -12						; size = 12
$T551412 = 8						; size = 4
__Count$ = 8						; size = 4
___formal$ = 12						; size = 4
??$_Allocate@UAttackAttribute@@@std@@YAPAUAttackAttribute@@IPAU1@@Z PROC ; std::_Allocate<AttackAttribute>, COMDAT

; 30   : 	{	// allocate storage for _Count elements of type _Ty

  00000	55		 push	 ebp
  00001	8b ec		 mov	 ebp, esp

; 31   : 	void *_Ptr = 0;
; 32   : 
; 33   : 	if (_Count <= 0)

  00003	8b 4d 08	 mov	 ecx, DWORD PTR __Count$[ebp]
  00006	83 ec 0c	 sub	 esp, 12			; 0000000cH
  00009	33 c0		 xor	 eax, eax
  0000b	85 c9		 test	 ecx, ecx

; 34   : 		_Count = 0;
; 35   : 	else if (((_SIZT)(-1) / sizeof (_Ty) < _Count)

  0000d	74 3c		 je	 SHORT $LN5@Allocate

; 36   : 		|| (_Ptr = ::operator new(_Count * sizeof (_Ty))) == 0)

  0000f	81 f9 33 33 33
	03		 cmp	 ecx, 53687091		; 03333333H
  00015	77 0e		 ja	 SHORT $LN1@Allocate
  00017	6b c9 50	 imul	 ecx, 80			; 00000050H
  0001a	51		 push	 ecx
  0001b	e8 00 00 00 00	 call	 ??2@YAPAXI@Z		; operator new
  00020	59		 pop	 ecx
  00021	85 c0		 test	 eax, eax

; 38   : 
; 39   : 	return ((_Ty _FARQ *)_Ptr);

  00023	75 26		 jne	 SHORT $LN5@Allocate
$LN1@Allocate:

; 37   : 		_THROW_NCEE(bad_alloc, 0);

  00025	83 65 08 00	 and	 DWORD PTR $T551412[ebp], 0
  00029	8d 45 08	 lea	 eax, DWORD PTR $T551412[ebp]
  0002c	50		 push	 eax
  0002d	8d 4d f4	 lea	 ecx, DWORD PTR $T551407[ebp]
  00030	ff 15 00 00 00
	00		 call	 DWORD PTR __imp_??0exception@std@@QAE@ABQBD@Z
  00036	68 00 00 00 00	 push	 OFFSET __TI2?AVbad_alloc@std@@
  0003b	8d 45 f4	 lea	 eax, DWORD PTR $T551407[ebp]
  0003e	50		 push	 eax
  0003f	c7 45 f4 00 00
	00 00		 mov	 DWORD PTR $T551407[ebp], OFFSET ??_7bad_alloc@std@@6B@
  00046	e8 00 00 00 00	 call	 __CxxThrowException@8
$LN10@Allocate:
$LN5@Allocate:

; 40   : 	}

  0004b	c9		 leave
  0004c	c3		 ret	 0
$LN9@Allocate:
??$_Allocate@UAttackAttribute@@@std@@YAPAUAttackAttribute@@IPAU1@@Z ENDP ; std::_Allocate<AttackAttribute>
_TEXT	ENDS
PUBLIC	??$forward@AAUAttackAttribute@@@std@@YAAAUAttackAttribute@@AAU1@@Z ; std::forward<AttackAttribute &>
; Function compile flags: /Ogsp
; File c:\program files (x86)\microsoft visual studio 10.0\vc\include\utility
;	COMDAT ??$forward@AAUAttackAttribute@@@std@@YAAAUAttackAttribute@@AAU1@@Z
_TEXT	SEGMENT
__Arg$ = 8						; size = 4
??$forward@AAUAttackAttribute@@@std@@YAAAUAttackAttribute@@AAU1@@Z PROC ; std::forward<AttackAttribute &>, COMDAT

; 78   : 	{	// forward _Arg, given explicitly specified type parameter

  00000	55		 push	 ebp
  00001	8b ec		 mov	 ebp, esp

; 79   : 	return ((_Ty&&)_Arg);

  00003	8b 45 08	 mov	 eax, DWORD PTR __Arg$[ebp]

; 80   : 	}

  00006	5d		 pop	 ebp
  00007	c3		 ret	 0
??$forward@AAUAttackAttribute@@@std@@YAAAUAttackAttribute@@AAU1@@Z ENDP ; std::forward<AttackAttribute &>
_TEXT	ENDS
PUBLIC	??$forward@ABUAttackAttribute@@@std@@YAABUAttackAttribute@@ABU1@@Z ; std::forward<AttackAttribute const &>
; Function compile flags: /Ogsp
;	COMDAT ??$forward@ABUAttackAttribute@@@std@@YAABUAttackAttribute@@ABU1@@Z
_TEXT	SEGMENT
__Arg$ = 8						; size = 4
??$forward@ABUAttackAttribute@@@std@@YAABUAttackAttribute@@ABU1@@Z PROC ; std::forward<AttackAttribute const &>, COMDAT

; 78   : 	{	// forward _Arg, given explicitly specified type parameter

  00000	55		 push	 ebp
  00001	8b ec		 mov	 ebp, esp

; 79   : 	return ((_Ty&&)_Arg);

  00003	8b 45 08	 mov	 eax, DWORD PTR __Arg$[ebp]

; 80   : 	}

  00006	5d		 pop	 ebp
  00007	c3		 ret	 0
??$forward@ABUAttackAttribute@@@std@@YAABUAttackAttribute@@ABU1@@Z ENDP ; std::forward<AttackAttribute const &>
_TEXT	ENDS
PUBLIC	??$_Ptr_cat@V?$_Vector_const_iterator@V?$_Vector_val@UWeaponInfo@@V?$allocator@UWeaponInfo@@@std@@@std@@@std@@PAUWeaponInfo@@@std@@YA?AU_Nonscalar_ptr_iterator_tag@0@AAV?$_Vector_const_iterator@V?$_Vector_val@UWeaponInfo@@V?$allocator@UWeaponInfo@@@std@@@std@@@0@AAPAUWeaponInfo@@@Z ; std::_Ptr_cat<std::_Vector_const_iterator<std::_Vector_val<WeaponInfo,std::allocator<WeaponInfo> > >,WeaponInfo *>
; Function compile flags: /Ogsp
; File c:\program files (x86)\microsoft visual studio 10.0\vc\include\xutility
;	COMDAT ??$_Ptr_cat@V?$_Vector_const_iterator@V?$_Vector_val@UWeaponInfo@@V?$allocator@UWeaponInfo@@@std@@@std@@@std@@PAUWeaponInfo@@@std@@YA?AU_Nonscalar_ptr_iterator_tag@0@AAV?$_Vector_const_iterator@V?$_Vector_val@UWeaponInfo@@V?$allocator@UWeaponInfo@@@std@@@std@@@0@AAPAUWeaponInfo@@@Z
_TEXT	SEGMENT
__Cat$ = -1						; size = 1
___formal$ = 8						; size = 4
___formal$ = 12						; size = 4
??$_Ptr_cat@V?$_Vector_const_iterator@V?$_Vector_val@UWeaponInfo@@V?$allocator@UWeaponInfo@@@std@@@std@@@std@@PAUWeaponInfo@@@std@@YA?AU_Nonscalar_ptr_iterator_tag@0@AAV?$_Vector_const_iterator@V?$_Vector_val@UWeaponInfo@@V?$allocator@UWeaponInfo@@@std@@@std@@@0@AAPAUWeaponInfo@@@Z PROC ; std::_Ptr_cat<std::_Vector_const_iterator<std::_Vector_val<WeaponInfo,std::allocator<WeaponInfo> > >,WeaponInfo *>, COMDAT

; 485  : 	{	// return pointer category from arbitrary arguments

  00000	55		 push	 ebp
  00001	8b ec		 mov	 ebp, esp
  00003	51		 push	 ecx

; 486  : 	_Nonscalar_ptr_iterator_tag _Cat;
; 487  : 	return (_Cat);

  00004	8a 45 ff	 mov	 al, BYTE PTR __Cat$[ebp]

; 488  : 	}

  00007	c9		 leave
  00008	c3		 ret	 0
??$_Ptr_cat@V?$_Vector_const_iterator@V?$_Vector_val@UWeaponInfo@@V?$allocator@UWeaponInfo@@@std@@@std@@@std@@PAUWeaponInfo@@@std@@YA?AU_Nonscalar_ptr_iterator_tag@0@AAV?$_Vector_const_iterator@V?$_Vector_val@UWeaponInfo@@V?$allocator@UWeaponInfo@@@std@@@std@@@0@AAPAUWeaponInfo@@@Z ENDP ; std::_Ptr_cat<std::_Vector_const_iterator<std::_Vector_val<WeaponInfo,std::allocator<WeaponInfo> > >,WeaponInfo *>
_TEXT	ENDS
PUBLIC	??$_Ptr_cat@V?$_Vector_const_iterator@V?$_Vector_val@UForceInfo@@V?$allocator@UForceInfo@@@std@@@std@@@std@@PAUForceInfo@@@std@@YA?AU_Nonscalar_ptr_iterator_tag@0@AAV?$_Vector_const_iterator@V?$_Vector_val@UForceInfo@@V?$allocator@UForceInfo@@@std@@@std@@@0@AAPAUForceInfo@@@Z ; std::_Ptr_cat<std::_Vector_const_iterator<std::_Vector_val<ForceInfo,std::allocator<ForceInfo> > >,ForceInfo *>
; Function compile flags: /Ogsp
;	COMDAT ??$_Ptr_cat@V?$_Vector_const_iterator@V?$_Vector_val@UForceInfo@@V?$allocator@UForceInfo@@@std@@@std@@@std@@PAUForceInfo@@@std@@YA?AU_Nonscalar_ptr_iterator_tag@0@AAV?$_Vector_const_iterator@V?$_Vector_val@UForceInfo@@V?$allocator@UForceInfo@@@std@@@std@@@0@AAPAUForceInfo@@@Z
_TEXT	SEGMENT
__Cat$ = -1						; size = 1
___formal$ = 8						; size = 4
___formal$ = 12						; size = 4
??$_Ptr_cat@V?$_Vector_const_iterator@V?$_Vector_val@UForceInfo@@V?$allocator@UForceInfo@@@std@@@std@@@std@@PAUForceInfo@@@std@@YA?AU_Nonscalar_ptr_iterator_tag@0@AAV?$_Vector_const_iterator@V?$_Vector_val@UForceInfo@@V?$allocator@UForceInfo@@@std@@@std@@@0@AAPAUForceInfo@@@Z PROC ; std::_Ptr_cat<std::_Vector_const_iterator<std::_Vector_val<ForceInfo,std::allocator<ForceInfo> > >,ForceInfo *>, COMDAT

; 485  : 	{	// return pointer category from arbitrary arguments

  00000	55		 push	 ebp
  00001	8b ec		 mov	 ebp, esp
  00003	51		 push	 ecx

; 486  : 	_Nonscalar_ptr_iterator_tag _Cat;
; 487  : 	return (_Cat);

  00004	8a 45 ff	 mov	 al, BYTE PTR __Cat$[ebp]

; 488  : 	}

  00007	c9		 leave
  00008	c3		 ret	 0
??$_Ptr_cat@V?$_Vector_const_iterator@V?$_Vector_val@UForceInfo@@V?$allocator@UForceInfo@@@std@@@std@@@std@@PAUForceInfo@@@std@@YA?AU_Nonscalar_ptr_iterator_tag@0@AAV?$_Vector_const_iterator@V?$_Vector_val@UForceInfo@@V?$allocator@UForceInfo@@@std@@@std@@@0@AAPAUForceInfo@@@Z ENDP ; std::_Ptr_cat<std::_Vector_const_iterator<std::_Vector_val<ForceInfo,std::allocator<ForceInfo> > >,ForceInfo *>
_TEXT	ENDS
PUBLIC	??$_Ptr_cat@V?$_Vector_const_iterator@V?$_Vector_val@UAttackAttribute@@V?$allocator@UAttackAttribute@@@std@@@std@@@std@@PAUAttackAttribute@@@std@@YA?AU_Nonscalar_ptr_iterator_tag@0@AAV?$_Vector_const_iterator@V?$_Vector_val@UAttackAttribute@@V?$allocator@UAttackAttribute@@@std@@@std@@@0@AAPAUAttackAttribute@@@Z ; std::_Ptr_cat<std::_Vector_const_iterator<std::_Vector_val<AttackAttribute,std::allocator<AttackAttribute> > >,AttackAttribute *>
; Function compile flags: /Ogsp
;	COMDAT ??$_Ptr_cat@V?$_Vector_const_iterator@V?$_Vector_val@UAttackAttribute@@V?$allocator@UAttackAttribute@@@std@@@std@@@std@@PAUAttackAttribute@@@std@@YA?AU_Nonscalar_ptr_iterator_tag@0@AAV?$_Vector_const_iterator@V?$_Vector_val@UAttackAttribute@@V?$allocator@UAttackAttribute@@@std@@@std@@@0@AAPAUAttackAttribute@@@Z
_TEXT	SEGMENT
__Cat$ = -1						; size = 1
___formal$ = 8						; size = 4
___formal$ = 12						; size = 4
??$_Ptr_cat@V?$_Vector_const_iterator@V?$_Vector_val@UAttackAttribute@@V?$allocator@UAttackAttribute@@@std@@@std@@@std@@PAUAttackAttribute@@@std@@YA?AU_Nonscalar_ptr_iterator_tag@0@AAV?$_Vector_const_iterator@V?$_Vector_val@UAttackAttribute@@V?$allocator@UAttackAttribute@@@std@@@std@@@0@AAPAUAttackAttribute@@@Z PROC ; std::_Ptr_cat<std::_Vector_const_iterator<std::_Vector_val<AttackAttribute,std::allocator<AttackAttribute> > >,AttackAttribute *>, COMDAT

; 485  : 	{	// return pointer category from arbitrary arguments

  00000	55		 push	 ebp
  00001	8b ec		 mov	 ebp, esp
  00003	51		 push	 ecx

; 486  : 	_Nonscalar_ptr_iterator_tag _Cat;
; 487  : 	return (_Cat);

  00004	8a 45 ff	 mov	 al, BYTE PTR __Cat$[ebp]

; 488  : 	}

  00007	c9		 leave
  00008	c3		 ret	 0
??$_Ptr_cat@V?$_Vector_const_iterator@V?$_Vector_val@UAttackAttribute@@V?$allocator@UAttackAttribute@@@std@@@std@@@std@@PAUAttackAttribute@@@std@@YA?AU_Nonscalar_ptr_iterator_tag@0@AAV?$_Vector_const_iterator@V?$_Vector_val@UAttackAttribute@@V?$allocator@UAttackAttribute@@@std@@@std@@@0@AAPAUAttackAttribute@@@Z ENDP ; std::_Ptr_cat<std::_Vector_const_iterator<std::_Vector_val<AttackAttribute,std::allocator<AttackAttribute> > >,AttackAttribute *>
_TEXT	ENDS
PUBLIC	??$_Val_type@PAUAttackAttribute@@@std@@YAPAUAttackAttribute@@PAU1@@Z ; std::_Val_type<AttackAttribute *>
; Function compile flags: /Ogsp
;	COMDAT ??$_Val_type@PAUAttackAttribute@@@std@@YAPAUAttackAttribute@@PAU1@@Z
_TEXT	SEGMENT
___formal$ = 8						; size = 4
??$_Val_type@PAUAttackAttribute@@@std@@YAPAUAttackAttribute@@PAU1@@Z PROC ; std::_Val_type<AttackAttribute *>, COMDAT

; 790  : 	return (0);

  00000	33 c0		 xor	 eax, eax

; 791  : 	}

  00002	c3		 ret	 0
??$_Val_type@PAUAttackAttribute@@@std@@YAPAUAttackAttribute@@PAU1@@Z ENDP ; std::_Val_type<AttackAttribute *>
_TEXT	ENDS
PUBLIC	??D?$_Vector_const_iterator@V?$_Vector_val@UAttackAttribute@@V?$allocator@UAttackAttribute@@@std@@@std@@@std@@QBEABUAttackAttribute@@XZ ; std::_Vector_const_iterator<std::_Vector_val<AttackAttribute,std::allocator<AttackAttribute> > >::operator*
; Function compile flags: /Ogsp
; File c:\program files (x86)\microsoft visual studio 10.0\vc\include\vector
;	COMDAT ??D?$_Vector_const_iterator@V?$_Vector_val@UAttackAttribute@@V?$allocator@UAttackAttribute@@@std@@@std@@@std@@QBEABUAttackAttribute@@XZ
_TEXT	SEGMENT
??D?$_Vector_const_iterator@V?$_Vector_val@UAttackAttribute@@V?$allocator@UAttackAttribute@@@std@@@std@@@std@@QBEABUAttackAttribute@@XZ PROC ; std::_Vector_const_iterator<std::_Vector_val<AttackAttribute,std::allocator<AttackAttribute> > >::operator*, COMDAT
; _this$ = ecx

; 64   :  #if _ITERATOR_DEBUG_LEVEL == 2
; 65   : 		if (this->_Getcont() == 0
; 66   : 			|| this->_Ptr == 0
; 67   : 			|| this->_Ptr < ((_Myvec *)this->_Getcont())->_Myfirst
; 68   : 			|| ((_Myvec *)this->_Getcont())->_Mylast <= this->_Ptr)
; 69   : 			{	// report error
; 70   : 			_DEBUG_ERROR("vector iterator not dereferencable");
; 71   : 			_SCL_SECURE_OUT_OF_RANGE;
; 72   : 			}
; 73   : 
; 74   :  #elif _ITERATOR_DEBUG_LEVEL == 1
; 75   : 		_SCL_SECURE_VALIDATE(this->_Getcont() != 0);
; 76   : 		_SCL_SECURE_VALIDATE_RANGE(
; 77   : 			this->_Ptr != 0
; 78   : 			&& ((_Myvec *)this->_Getcont())->_Myfirst <= this->_Ptr
; 79   : 			&& this->_Ptr < ((_Myvec *)this->_Getcont())->_Mylast);
; 80   :  #endif /* _ITERATOR_DEBUG_LEVEL */
; 81   : 
; 82   : 		__analysis_assume(this->_Ptr != 0);
; 83   : 
; 84   : 		return (*this->_Ptr);

  00000	8b 01		 mov	 eax, DWORD PTR [ecx]

; 85   : 		}

  00002	c3		 ret	 0
??D?$_Vector_const_iterator@V?$_Vector_val@UAttackAttribute@@V?$allocator@UAttackAttribute@@@std@@@std@@@std@@QBEABUAttackAttribute@@XZ ENDP ; std::_Vector_const_iterator<std::_Vector_val<AttackAttribute,std::allocator<AttackAttribute> > >::operator*
_TEXT	ENDS
PUBLIC	??E?$_Vector_const_iterator@V?$_Vector_val@UAttackAttribute@@V?$allocator@UAttackAttribute@@@std@@@std@@@std@@QAEAAV01@XZ ; std::_Vector_const_iterator<std::_Vector_val<AttackAttribute,std::allocator<AttackAttribute> > >::operator++
; Function compile flags: /Ogsp
;	COMDAT ??E?$_Vector_const_iterator@V?$_Vector_val@UAttackAttribute@@V?$allocator@UAttackAttribute@@@std@@@std@@@std@@QAEAAV01@XZ
_TEXT	SEGMENT
??E?$_Vector_const_iterator@V?$_Vector_val@UAttackAttribute@@V?$allocator@UAttackAttribute@@@std@@@std@@@std@@QAEAAV01@XZ PROC ; std::_Vector_const_iterator<std::_Vector_val<AttackAttribute,std::allocator<AttackAttribute> > >::operator++, COMDAT
; _this$ = ecx

; 93   : 		{	// preincrement

  00000	8b c1		 mov	 eax, ecx

; 94   :  #if _ITERATOR_DEBUG_LEVEL == 2
; 95   : 		if (this->_Getcont() == 0
; 96   : 			|| this->_Ptr == 0
; 97   : 			|| ((_Myvec *)this->_Getcont())->_Mylast <= this->_Ptr)
; 98   : 			{	// report error
; 99   : 			_DEBUG_ERROR("vector iterator not incrementable");
; 100  : 			_SCL_SECURE_OUT_OF_RANGE;
; 101  : 			}
; 102  : 
; 103  :  #elif _ITERATOR_DEBUG_LEVEL == 1
; 104  : 		_SCL_SECURE_VALIDATE(this->_Getcont() != 0);
; 105  : 		_SCL_SECURE_VALIDATE_RANGE(
; 106  : 			this->_Ptr != 0
; 107  : 			&& this->_Ptr < ((_Myvec *)this->_Getcont())->_Mylast);
; 108  :  #endif /* _ITERATOR_DEBUG_LEVEL */
; 109  : 
; 110  : 		++this->_Ptr;

  00002	83 00 50	 add	 DWORD PTR [eax], 80	; 00000050H

; 111  : 		return (*this);
; 112  : 		}

  00005	c3		 ret	 0
??E?$_Vector_const_iterator@V?$_Vector_val@UAttackAttribute@@V?$allocator@UAttackAttribute@@@std@@@std@@@std@@QAEAAV01@XZ ENDP ; std::_Vector_const_iterator<std::_Vector_val<AttackAttribute,std::allocator<AttackAttribute> > >::operator++
_TEXT	ENDS
PUBLIC	??D?$_Vector_const_iterator@V?$_Vector_val@UWeaponInfo@@V?$allocator@UWeaponInfo@@@std@@@std@@@std@@QBEABUWeaponInfo@@XZ ; std::_Vector_const_iterator<std::_Vector_val<WeaponInfo,std::allocator<WeaponInfo> > >::operator*
; Function compile flags: /Ogsp
;	COMDAT ??D?$_Vector_const_iterator@V?$_Vector_val@UWeaponInfo@@V?$allocator@UWeaponInfo@@@std@@@std@@@std@@QBEABUWeaponInfo@@XZ
_TEXT	SEGMENT
??D?$_Vector_const_iterator@V?$_Vector_val@UWeaponInfo@@V?$allocator@UWeaponInfo@@@std@@@std@@@std@@QBEABUWeaponInfo@@XZ PROC ; std::_Vector_const_iterator<std::_Vector_val<WeaponInfo,std::allocator<WeaponInfo> > >::operator*, COMDAT
; _this$ = ecx

; 64   :  #if _ITERATOR_DEBUG_LEVEL == 2
; 65   : 		if (this->_Getcont() == 0
; 66   : 			|| this->_Ptr == 0
; 67   : 			|| this->_Ptr < ((_Myvec *)this->_Getcont())->_Myfirst
; 68   : 			|| ((_Myvec *)this->_Getcont())->_Mylast <= this->_Ptr)
; 69   : 			{	// report error
; 70   : 			_DEBUG_ERROR("vector iterator not dereferencable");
; 71   : 			_SCL_SECURE_OUT_OF_RANGE;
; 72   : 			}
; 73   : 
; 74   :  #elif _ITERATOR_DEBUG_LEVEL == 1
; 75   : 		_SCL_SECURE_VALIDATE(this->_Getcont() != 0);
; 76   : 		_SCL_SECURE_VALIDATE_RANGE(
; 77   : 			this->_Ptr != 0
; 78   : 			&& ((_Myvec *)this->_Getcont())->_Myfirst <= this->_Ptr
; 79   : 			&& this->_Ptr < ((_Myvec *)this->_Getcont())->_Mylast);
; 80   :  #endif /* _ITERATOR_DEBUG_LEVEL */
; 81   : 
; 82   : 		__analysis_assume(this->_Ptr != 0);
; 83   : 
; 84   : 		return (*this->_Ptr);

  00000	8b 01		 mov	 eax, DWORD PTR [ecx]

; 85   : 		}

  00002	c3		 ret	 0
??D?$_Vector_const_iterator@V?$_Vector_val@UWeaponInfo@@V?$allocator@UWeaponInfo@@@std@@@std@@@std@@QBEABUWeaponInfo@@XZ ENDP ; std::_Vector_const_iterator<std::_Vector_val<WeaponInfo,std::allocator<WeaponInfo> > >::operator*
_TEXT	ENDS
PUBLIC	??E?$_Vector_const_iterator@V?$_Vector_val@UWeaponInfo@@V?$allocator@UWeaponInfo@@@std@@@std@@@std@@QAEAAV01@XZ ; std::_Vector_const_iterator<std::_Vector_val<WeaponInfo,std::allocator<WeaponInfo> > >::operator++
; Function compile flags: /Ogsp
;	COMDAT ??E?$_Vector_const_iterator@V?$_Vector_val@UWeaponInfo@@V?$allocator@UWeaponInfo@@@std@@@std@@@std@@QAEAAV01@XZ
_TEXT	SEGMENT
??E?$_Vector_const_iterator@V?$_Vector_val@UWeaponInfo@@V?$allocator@UWeaponInfo@@@std@@@std@@@std@@QAEAAV01@XZ PROC ; std::_Vector_const_iterator<std::_Vector_val<WeaponInfo,std::allocator<WeaponInfo> > >::operator++, COMDAT
; _this$ = ecx

; 93   : 		{	// preincrement

  00000	8b c1		 mov	 eax, ecx

; 94   :  #if _ITERATOR_DEBUG_LEVEL == 2
; 95   : 		if (this->_Getcont() == 0
; 96   : 			|| this->_Ptr == 0
; 97   : 			|| ((_Myvec *)this->_Getcont())->_Mylast <= this->_Ptr)
; 98   : 			{	// report error
; 99   : 			_DEBUG_ERROR("vector iterator not incrementable");
; 100  : 			_SCL_SECURE_OUT_OF_RANGE;
; 101  : 			}
; 102  : 
; 103  :  #elif _ITERATOR_DEBUG_LEVEL == 1
; 104  : 		_SCL_SECURE_VALIDATE(this->_Getcont() != 0);
; 105  : 		_SCL_SECURE_VALIDATE_RANGE(
; 106  : 			this->_Ptr != 0
; 107  : 			&& this->_Ptr < ((_Myvec *)this->_Getcont())->_Mylast);
; 108  :  #endif /* _ITERATOR_DEBUG_LEVEL */
; 109  : 
; 110  : 		++this->_Ptr;

  00002	83 00 28	 add	 DWORD PTR [eax], 40	; 00000028H

; 111  : 		return (*this);
; 112  : 		}

  00005	c3		 ret	 0
??E?$_Vector_const_iterator@V?$_Vector_val@UWeaponInfo@@V?$allocator@UWeaponInfo@@@std@@@std@@@std@@QAEAAV01@XZ ENDP ; std::_Vector_const_iterator<std::_Vector_val<WeaponInfo,std::allocator<WeaponInfo> > >::operator++
_TEXT	ENDS
PUBLIC	??D?$_Vector_const_iterator@V?$_Vector_val@UForceInfo@@V?$allocator@UForceInfo@@@std@@@std@@@std@@QBEABUForceInfo@@XZ ; std::_Vector_const_iterator<std::_Vector_val<ForceInfo,std::allocator<ForceInfo> > >::operator*
; Function compile flags: /Ogsp
;	COMDAT ??D?$_Vector_const_iterator@V?$_Vector_val@UForceInfo@@V?$allocator@UForceInfo@@@std@@@std@@@std@@QBEABUForceInfo@@XZ
_TEXT	SEGMENT
??D?$_Vector_const_iterator@V?$_Vector_val@UForceInfo@@V?$allocator@UForceInfo@@@std@@@std@@@std@@QBEABUForceInfo@@XZ PROC ; std::_Vector_const_iterator<std::_Vector_val<ForceInfo,std::allocator<ForceInfo> > >::operator*, COMDAT
; _this$ = ecx

; 64   :  #if _ITERATOR_DEBUG_LEVEL == 2
; 65   : 		if (this->_Getcont() == 0
; 66   : 			|| this->_Ptr == 0
; 67   : 			|| this->_Ptr < ((_Myvec *)this->_Getcont())->_Myfirst
; 68   : 			|| ((_Myvec *)this->_Getcont())->_Mylast <= this->_Ptr)
; 69   : 			{	// report error
; 70   : 			_DEBUG_ERROR("vector iterator not dereferencable");
; 71   : 			_SCL_SECURE_OUT_OF_RANGE;
; 72   : 			}
; 73   : 
; 74   :  #elif _ITERATOR_DEBUG_LEVEL == 1
; 75   : 		_SCL_SECURE_VALIDATE(this->_Getcont() != 0);
; 76   : 		_SCL_SECURE_VALIDATE_RANGE(
; 77   : 			this->_Ptr != 0
; 78   : 			&& ((_Myvec *)this->_Getcont())->_Myfirst <= this->_Ptr
; 79   : 			&& this->_Ptr < ((_Myvec *)this->_Getcont())->_Mylast);
; 80   :  #endif /* _ITERATOR_DEBUG_LEVEL */
; 81   : 
; 82   : 		__analysis_assume(this->_Ptr != 0);
; 83   : 
; 84   : 		return (*this->_Ptr);

  00000	8b 01		 mov	 eax, DWORD PTR [ecx]

; 85   : 		}

  00002	c3		 ret	 0
??D?$_Vector_const_iterator@V?$_Vector_val@UForceInfo@@V?$allocator@UForceInfo@@@std@@@std@@@std@@QBEABUForceInfo@@XZ ENDP ; std::_Vector_const_iterator<std::_Vector_val<ForceInfo,std::allocator<ForceInfo> > >::operator*
_TEXT	ENDS
PUBLIC	??E?$_Vector_const_iterator@V?$_Vector_val@UForceInfo@@V?$allocator@UForceInfo@@@std@@@std@@@std@@QAEAAV01@XZ ; std::_Vector_const_iterator<std::_Vector_val<ForceInfo,std::allocator<ForceInfo> > >::operator++
; Function compile flags: /Ogsp
;	COMDAT ??E?$_Vector_const_iterator@V?$_Vector_val@UForceInfo@@V?$allocator@UForceInfo@@@std@@@std@@@std@@QAEAAV01@XZ
_TEXT	SEGMENT
??E?$_Vector_const_iterator@V?$_Vector_val@UForceInfo@@V?$allocator@UForceInfo@@@std@@@std@@@std@@QAEAAV01@XZ PROC ; std::_Vector_const_iterator<std::_Vector_val<ForceInfo,std::allocator<ForceInfo> > >::operator++, COMDAT
; _this$ = ecx

; 93   : 		{	// preincrement

  00000	8b c1		 mov	 eax, ecx

; 94   :  #if _ITERATOR_DEBUG_LEVEL == 2
; 95   : 		if (this->_Getcont() == 0
; 96   : 			|| this->_Ptr == 0
; 97   : 			|| ((_Myvec *)this->_Getcont())->_Mylast <= this->_Ptr)
; 98   : 			{	// report error
; 99   : 			_DEBUG_ERROR("vector iterator not incrementable");
; 100  : 			_SCL_SECURE_OUT_OF_RANGE;
; 101  : 			}
; 102  : 
; 103  :  #elif _ITERATOR_DEBUG_LEVEL == 1
; 104  : 		_SCL_SECURE_VALIDATE(this->_Getcont() != 0);
; 105  : 		_SCL_SECURE_VALIDATE_RANGE(
; 106  : 			this->_Ptr != 0
; 107  : 			&& this->_Ptr < ((_Myvec *)this->_Getcont())->_Mylast);
; 108  :  #endif /* _ITERATOR_DEBUG_LEVEL */
; 109  : 
; 110  : 		++this->_Ptr;

  00002	83 00 0c	 add	 DWORD PTR [eax], 12	; 0000000cH

; 111  : 		return (*this);
; 112  : 		}

  00005	c3		 ret	 0
??E?$_Vector_const_iterator@V?$_Vector_val@UForceInfo@@V?$allocator@UForceInfo@@@std@@@std@@@std@@QAEAAV01@XZ ENDP ; std::_Vector_const_iterator<std::_Vector_val<ForceInfo,std::allocator<ForceInfo> > >::operator++
_TEXT	ENDS
PUBLIC	??$forward@ABUWeaponInfo@@@std@@YAABUWeaponInfo@@ABU1@@Z ; std::forward<WeaponInfo const &>
; Function compile flags: /Ogsp
; File c:\program files (x86)\microsoft visual studio 10.0\vc\include\utility
;	COMDAT ??$forward@ABUWeaponInfo@@@std@@YAABUWeaponInfo@@ABU1@@Z
_TEXT	SEGMENT
__Arg$ = 8						; size = 4
??$forward@ABUWeaponInfo@@@std@@YAABUWeaponInfo@@ABU1@@Z PROC ; std::forward<WeaponInfo const &>, COMDAT

; 78   : 	{	// forward _Arg, given explicitly specified type parameter

  00000	55		 push	 ebp
  00001	8b ec		 mov	 ebp, esp

; 79   : 	return ((_Ty&&)_Arg);

  00003	8b 45 08	 mov	 eax, DWORD PTR __Arg$[ebp]

; 80   : 	}

  00006	5d		 pop	 ebp
  00007	c3		 ret	 0
??$forward@ABUWeaponInfo@@@std@@YAABUWeaponInfo@@ABU1@@Z ENDP ; std::forward<WeaponInfo const &>
_TEXT	ENDS
PUBLIC	??$forward@ABUForceInfo@@@std@@YAABUForceInfo@@ABU1@@Z ; std::forward<ForceInfo const &>
; Function compile flags: /Ogsp
;	COMDAT ??$forward@ABUForceInfo@@@std@@YAABUForceInfo@@ABU1@@Z
_TEXT	SEGMENT
__Arg$ = 8						; size = 4
??$forward@ABUForceInfo@@@std@@YAABUForceInfo@@ABU1@@Z PROC ; std::forward<ForceInfo const &>, COMDAT

; 78   : 	{	// forward _Arg, given explicitly specified type parameter

  00000	55		 push	 ebp
  00001	8b ec		 mov	 ebp, esp

; 79   : 	return ((_Ty&&)_Arg);

  00003	8b 45 08	 mov	 eax, DWORD PTR __Arg$[ebp]

; 80   : 	}

  00006	5d		 pop	 ebp
  00007	c3		 ret	 0
??$forward@ABUForceInfo@@@std@@YAABUForceInfo@@ABU1@@Z ENDP ; std::forward<ForceInfo const &>
_TEXT	ENDS
PUBLIC	??$forward@UAttackAttribute@@@std@@YA$$QAUAttackAttribute@@AAU1@@Z ; std::forward<AttackAttribute>
; Function compile flags: /Ogsp
;	COMDAT ??$forward@UAttackAttribute@@@std@@YA$$QAUAttackAttribute@@AAU1@@Z
_TEXT	SEGMENT
__Arg$ = 8						; size = 4
??$forward@UAttackAttribute@@@std@@YA$$QAUAttackAttribute@@AAU1@@Z PROC ; std::forward<AttackAttribute>, COMDAT

; 78   : 	{	// forward _Arg, given explicitly specified type parameter

  00000	55		 push	 ebp
  00001	8b ec		 mov	 ebp, esp

; 79   : 	return ((_Ty&&)_Arg);

  00003	8b 45 08	 mov	 eax, DWORD PTR __Arg$[ebp]

; 80   : 	}

  00006	5d		 pop	 ebp
  00007	c3		 ret	 0
??$forward@UAttackAttribute@@@std@@YA$$QAUAttackAttribute@@AAU1@@Z ENDP ; std::forward<AttackAttribute>
_TEXT	ENDS
PUBLIC	??$_Construct@UForceInfo@@ABU1@@std@@YAXPAUForceInfo@@ABU1@@Z ; std::_Construct<ForceInfo,ForceInfo const &>
; Function compile flags: /Ogsp
; File c:\program files (x86)\microsoft visual studio 10.0\vc\include\xmemory
;	COMDAT ??$_Construct@UForceInfo@@ABU1@@std@@YAXPAUForceInfo@@ABU1@@Z
_TEXT	SEGMENT
__Ptr$ = 8						; size = 4
__Val$ = 12						; size = 4
??$_Construct@UForceInfo@@ABU1@@std@@YAXPAUForceInfo@@ABU1@@Z PROC ; std::_Construct<ForceInfo,ForceInfo const &>, COMDAT

; 46   : 	{	// construct object at _Ptr with value _Val

  00000	55		 push	 ebp
  00001	8b ec		 mov	 ebp, esp
  00003	57		 push	 edi

; 47   : 	void _FARQ *_Vptr = _Ptr;
; 48   : 	::new (_Vptr) _Ty1(_STD forward<_Ty2>(_Val));

  00004	8b 7d 08	 mov	 edi, DWORD PTR __Ptr$[ebp]
  00007	85 ff		 test	 edi, edi
  00009	74 08		 je	 SHORT $LN3@Construct
  0000b	56		 push	 esi
  0000c	8b 75 0c	 mov	 esi, DWORD PTR __Val$[ebp]
  0000f	a5		 movsd
  00010	a5		 movsd
  00011	a5		 movsd
  00012	5e		 pop	 esi
$LN3@Construct:
  00013	5f		 pop	 edi

; 49   : 	}

  00014	5d		 pop	 ebp
  00015	c3		 ret	 0
??$_Construct@UForceInfo@@ABU1@@std@@YAXPAUForceInfo@@ABU1@@Z ENDP ; std::_Construct<ForceInfo,ForceInfo const &>
_TEXT	ENDS
PUBLIC	??0D3DXVECTOR3@@QAE@XZ				; D3DXVECTOR3::D3DXVECTOR3
; Function compile flags: /Ogsp
; File c:\program files (x86)\microsoft directx sdk (june 2010)\include\d3dx9math.h
;	COMDAT ??0D3DXVECTOR3@@QAE@XZ
_TEXT	SEGMENT
??0D3DXVECTOR3@@QAE@XZ PROC				; D3DXVECTOR3::D3DXVECTOR3, COMDAT
; _this$ = ecx

; 165  :     D3DXVECTOR3() {};

  00000	8b c1		 mov	 eax, ecx
  00002	c3		 ret	 0
??0D3DXVECTOR3@@QAE@XZ ENDP				; D3DXVECTOR3::D3DXVECTOR3
_TEXT	ENDS
PUBLIC	??0D3DXQUATERNION@@QAE@XZ			; D3DXQUATERNION::D3DXQUATERNION
; Function compile flags: /Ogsp
;	COMDAT ??0D3DXQUATERNION@@QAE@XZ
_TEXT	SEGMENT
??0D3DXQUATERNION@@QAE@XZ PROC				; D3DXQUATERNION::D3DXQUATERNION, COMDAT
; _this$ = ecx

; 429  :     D3DXQUATERNION() {}

  00000	8b c1		 mov	 eax, ecx
  00002	c3		 ret	 0
??0D3DXQUATERNION@@QAE@XZ ENDP				; D3DXQUATERNION::D3DXQUATERNION
_TEXT	ENDS
PUBLIC	??0D3DXVECTOR3@@QAE@MMM@Z			; D3DXVECTOR3::D3DXVECTOR3
; Function compile flags: /Ogsp
; File c:\program files (x86)\microsoft directx sdk (june 2010)\include\d3dx9math.inl
;	COMDAT ??0D3DXVECTOR3@@QAE@MMM@Z
_TEXT	SEGMENT
_fx$ = 8						; size = 4
_fy$ = 12						; size = 4
_fz$ = 16						; size = 4
??0D3DXVECTOR3@@QAE@MMM@Z PROC				; D3DXVECTOR3::D3DXVECTOR3, COMDAT
; _this$ = ecx

; 303  : {

  00000	55		 push	 ebp
  00001	8b ec		 mov	 ebp, esp

; 304  :     x = fx;

  00003	f3 0f 10 45 08	 movss	 xmm0, DWORD PTR _fx$[ebp]
  00008	8b c1		 mov	 eax, ecx
  0000a	f3 0f 11 00	 movss	 DWORD PTR [eax], xmm0

; 305  :     y = fy;

  0000e	f3 0f 10 45 0c	 movss	 xmm0, DWORD PTR _fy$[ebp]
  00013	f3 0f 11 40 04	 movss	 DWORD PTR [eax+4], xmm0

; 306  :     z = fz;

  00018	f3 0f 10 45 10	 movss	 xmm0, DWORD PTR _fz$[ebp]
  0001d	f3 0f 11 40 08	 movss	 DWORD PTR [eax+8], xmm0

; 307  : }

  00022	5d		 pop	 ebp
  00023	c2 0c 00	 ret	 12			; 0000000cH
??0D3DXVECTOR3@@QAE@MMM@Z ENDP				; D3DXVECTOR3::D3DXVECTOR3
_TEXT	ENDS
PUBLIC	??YD3DXVECTOR3@@QAEAAU0@ABU0@@Z			; D3DXVECTOR3::operator+=
; Function compile flags: /Ogsp
;	COMDAT ??YD3DXVECTOR3@@QAEAAU0@ABU0@@Z
_TEXT	SEGMENT
_v$ = 8							; size = 4
??YD3DXVECTOR3@@QAEAAU0@ABU0@@Z PROC			; D3DXVECTOR3::operator+=, COMDAT
; _this$ = ecx

; 327  : {

  00000	55		 push	 ebp
  00001	8b ec		 mov	 ebp, esp
  00003	8b c1		 mov	 eax, ecx

; 328  :     x += v.x;

  00005	8b 4d 08	 mov	 ecx, DWORD PTR _v$[ebp]
  00008	f3 0f 10 01	 movss	 xmm0, DWORD PTR [ecx]
  0000c	f3 0f 10 08	 movss	 xmm1, DWORD PTR [eax]
  00010	0f 5a c0	 cvtps2pd xmm0, xmm0
  00013	0f 5a c9	 cvtps2pd xmm1, xmm1
  00016	f2 0f 58 c1	 addsd	 xmm0, xmm1

; 329  :     y += v.y;

  0001a	f3 0f 10 48 04	 movss	 xmm1, DWORD PTR [eax+4]
  0001f	66 0f 5a c0	 cvtpd2ps xmm0, xmm0
  00023	f3 0f 11 00	 movss	 DWORD PTR [eax], xmm0
  00027	f3 0f 10 41 04	 movss	 xmm0, DWORD PTR [ecx+4]
  0002c	0f 5a c0	 cvtps2pd xmm0, xmm0
  0002f	0f 5a c9	 cvtps2pd xmm1, xmm1
  00032	f2 0f 58 c1	 addsd	 xmm0, xmm1

; 330  :     z += v.z;

  00036	f3 0f 10 48 08	 movss	 xmm1, DWORD PTR [eax+8]
  0003b	66 0f 5a c0	 cvtpd2ps xmm0, xmm0
  0003f	f3 0f 11 40 04	 movss	 DWORD PTR [eax+4], xmm0
  00044	f3 0f 10 41 08	 movss	 xmm0, DWORD PTR [ecx+8]
  00049	0f 5a c0	 cvtps2pd xmm0, xmm0
  0004c	0f 5a c9	 cvtps2pd xmm1, xmm1
  0004f	f2 0f 58 c1	 addsd	 xmm0, xmm1
  00053	66 0f 5a c0	 cvtpd2ps xmm0, xmm0
  00057	f3 0f 11 40 08	 movss	 DWORD PTR [eax+8], xmm0

; 331  :     return *this;
; 332  : }

  0005c	5d		 pop	 ebp
  0005d	c2 04 00	 ret	 4
??YD3DXVECTOR3@@QAEAAU0@ABU0@@Z ENDP			; D3DXVECTOR3::operator+=
_TEXT	ENDS
PUBLIC	??HD3DXVECTOR3@@QBE?AU0@ABU0@@Z			; D3DXVECTOR3::operator+
; Function compile flags: /Ogsp
;	COMDAT ??HD3DXVECTOR3@@QBE?AU0@ABU0@@Z
_TEXT	SEGMENT
___$ReturnUdt$ = 8					; size = 4
_v$ = 12						; size = 4
??HD3DXVECTOR3@@QBE?AU0@ABU0@@Z PROC			; D3DXVECTOR3::operator+, COMDAT
; _this$ = ecx

; 380  : {

  00000	55		 push	 ebp
  00001	8b ec		 mov	 ebp, esp

; 381  :     return D3DXVECTOR3(x + v.x, y + v.y, z + v.z);

  00003	8b 55 0c	 mov	 edx, DWORD PTR _v$[ebp]
  00006	f3 0f 10 02	 movss	 xmm0, DWORD PTR [edx]
  0000a	f3 0f 10 09	 movss	 xmm1, DWORD PTR [ecx]
  0000e	8b 45 08	 mov	 eax, DWORD PTR ___$ReturnUdt$[ebp]
  00011	0f 5a c0	 cvtps2pd xmm0, xmm0
  00014	0f 5a c9	 cvtps2pd xmm1, xmm1
  00017	f2 0f 58 c1	 addsd	 xmm0, xmm1
  0001b	f3 0f 10 49 04	 movss	 xmm1, DWORD PTR [ecx+4]
  00020	66 0f 5a c0	 cvtpd2ps xmm0, xmm0
  00024	f3 0f 11 00	 movss	 DWORD PTR [eax], xmm0
  00028	f3 0f 10 42 04	 movss	 xmm0, DWORD PTR [edx+4]
  0002d	0f 5a c0	 cvtps2pd xmm0, xmm0
  00030	0f 5a c9	 cvtps2pd xmm1, xmm1
  00033	f2 0f 58 c1	 addsd	 xmm0, xmm1
  00037	f3 0f 10 49 08	 movss	 xmm1, DWORD PTR [ecx+8]
  0003c	66 0f 5a c0	 cvtpd2ps xmm0, xmm0
  00040	f3 0f 11 40 04	 movss	 DWORD PTR [eax+4], xmm0
  00045	f3 0f 10 42 08	 movss	 xmm0, DWORD PTR [edx+8]
  0004a	0f 5a c0	 cvtps2pd xmm0, xmm0
  0004d	0f 5a c9	 cvtps2pd xmm1, xmm1
  00050	f2 0f 58 c1	 addsd	 xmm0, xmm1
  00054	66 0f 5a c0	 cvtpd2ps xmm0, xmm0
  00058	f3 0f 11 40 08	 movss	 DWORD PTR [eax+8], xmm0

; 382  : }

  0005d	5d		 pop	 ebp
  0005e	c2 08 00	 ret	 8
??HD3DXVECTOR3@@QBE?AU0@ABU0@@Z ENDP			; D3DXVECTOR3::operator+
_TEXT	ENDS
PUBLIC	??DD3DXVECTOR3@@QBE?AU0@M@Z			; D3DXVECTOR3::operator*
; Function compile flags: /Ogsp
;	COMDAT ??DD3DXVECTOR3@@QBE?AU0@M@Z
_TEXT	SEGMENT
___$ReturnUdt$ = 8					; size = 4
_f$ = 12						; size = 4
??DD3DXVECTOR3@@QBE?AU0@M@Z PROC			; D3DXVECTOR3::operator*, COMDAT
; _this$ = ecx

; 392  : {

  00000	55		 push	 ebp
  00001	8b ec		 mov	 ebp, esp

; 393  :     return D3DXVECTOR3(x * f, y * f, z * f);

  00003	f3 0f 10 4d 0c	 movss	 xmm1, DWORD PTR _f$[ebp]
  00008	f3 0f 10 01	 movss	 xmm0, DWORD PTR [ecx]
  0000c	8b 45 08	 mov	 eax, DWORD PTR ___$ReturnUdt$[ebp]
  0000f	0f 5a c0	 cvtps2pd xmm0, xmm0
  00012	0f 5a c9	 cvtps2pd xmm1, xmm1
  00015	f2 0f 59 c1	 mulsd	 xmm0, xmm1
  00019	f3 0f 10 4d 0c	 movss	 xmm1, DWORD PTR _f$[ebp]
  0001e	66 0f 5a c0	 cvtpd2ps xmm0, xmm0
  00022	f3 0f 11 00	 movss	 DWORD PTR [eax], xmm0
  00026	f3 0f 10 41 04	 movss	 xmm0, DWORD PTR [ecx+4]
  0002b	0f 5a c0	 cvtps2pd xmm0, xmm0
  0002e	0f 5a c9	 cvtps2pd xmm1, xmm1
  00031	f2 0f 59 c1	 mulsd	 xmm0, xmm1
  00035	f3 0f 10 4d 0c	 movss	 xmm1, DWORD PTR _f$[ebp]
  0003a	66 0f 5a c0	 cvtpd2ps xmm0, xmm0
  0003e	f3 0f 11 40 04	 movss	 DWORD PTR [eax+4], xmm0
  00043	f3 0f 10 41 08	 movss	 xmm0, DWORD PTR [ecx+8]
  00048	0f 5a c0	 cvtps2pd xmm0, xmm0
  0004b	0f 5a c9	 cvtps2pd xmm1, xmm1
  0004e	f2 0f 59 c1	 mulsd	 xmm0, xmm1
  00052	66 0f 5a c0	 cvtpd2ps xmm0, xmm0
  00056	f3 0f 11 40 08	 movss	 DWORD PTR [eax+8], xmm0

; 394  : }

  0005b	5d		 pop	 ebp
  0005c	c2 08 00	 ret	 8
??DD3DXVECTOR3@@QBE?AU0@M@Z ENDP			; D3DXVECTOR3::operator*
_TEXT	ENDS
PUBLIC	??D@YA?AUD3DXVECTOR3@@MABU0@@Z			; operator*
; Function compile flags: /Ogsp
;	COMDAT ??D@YA?AUD3DXVECTOR3@@MABU0@@Z
_TEXT	SEGMENT
___$ReturnUdt$ = 8					; size = 4
_f$ = 12						; size = 4
_v$ = 16						; size = 4
??D@YA?AUD3DXVECTOR3@@MABU0@@Z PROC			; operator*, COMDAT

; 406  : {

  00000	55		 push	 ebp
  00001	8b ec		 mov	 ebp, esp

; 407  :     return D3DXVECTOR3(f * v.x, f * v.y, f * v.z);

  00003	8b 4d 10	 mov	 ecx, DWORD PTR _v$[ebp]
  00006	f3 0f 10 4d 0c	 movss	 xmm1, DWORD PTR _f$[ebp]
  0000b	f3 0f 10 01	 movss	 xmm0, DWORD PTR [ecx]
  0000f	8b 45 08	 mov	 eax, DWORD PTR ___$ReturnUdt$[ebp]
  00012	0f 5a c0	 cvtps2pd xmm0, xmm0
  00015	0f 5a c9	 cvtps2pd xmm1, xmm1
  00018	f2 0f 59 c1	 mulsd	 xmm0, xmm1
  0001c	f3 0f 10 4d 0c	 movss	 xmm1, DWORD PTR _f$[ebp]
  00021	66 0f 5a c0	 cvtpd2ps xmm0, xmm0
  00025	f3 0f 11 00	 movss	 DWORD PTR [eax], xmm0
  00029	f3 0f 10 41 04	 movss	 xmm0, DWORD PTR [ecx+4]
  0002e	0f 5a c0	 cvtps2pd xmm0, xmm0
  00031	0f 5a c9	 cvtps2pd xmm1, xmm1
  00034	f2 0f 59 c1	 mulsd	 xmm0, xmm1
  00038	f3 0f 10 4d 0c	 movss	 xmm1, DWORD PTR _f$[ebp]
  0003d	66 0f 5a c0	 cvtpd2ps xmm0, xmm0
  00041	f3 0f 11 40 04	 movss	 DWORD PTR [eax+4], xmm0
  00046	f3 0f 10 41 08	 movss	 xmm0, DWORD PTR [ecx+8]
  0004b	0f 5a c0	 cvtps2pd xmm0, xmm0
  0004e	0f 5a c9	 cvtps2pd xmm1, xmm1
  00051	f2 0f 59 c1	 mulsd	 xmm0, xmm1
  00055	66 0f 5a c0	 cvtpd2ps xmm0, xmm0
  00059	f3 0f 11 40 08	 movss	 DWORD PTR [eax+8], xmm0

; 408  : }

  0005e	5d		 pop	 ebp
  0005f	c3		 ret	 0
??D@YA?AUD3DXVECTOR3@@MABU0@@Z ENDP			; operator*
_TEXT	ENDS
PUBLIC	?_DECSTR@@YAXPADH@Z				; _DECSTR
; Function compile flags: /Ogsp
; File d:\lost saga for developer\youtube\tutorial\source\src\lsclient\stringprotect.h
;	COMDAT ?_DECSTR@@YAXPADH@Z
_TEXT	SEGMENT
_s$ = 8							; size = 4
_l$ = 12						; size = 4
?_DECSTR@@YAXPADH@Z PROC				; _DECSTR, COMDAT

; 40   : __forceinline void _DECSTR(char* s, int l){int i=0,l4=(l-1)/4,*p=(int*)s;s[l-1]=0;for(;i<l4;++i)*(p++)^=0xEAEBECED;for(i=l4*4;i<l-1;++i)s[i]^=0xED-i%4;}

  00000	55		 push	 ebp
  00001	8b ec		 mov	 ebp, esp
  00003	8b 4d 0c	 mov	 ecx, DWORD PTR _l$[ebp]
  00006	56		 push	 esi
  00007	8b 75 08	 mov	 esi, DWORD PTR _s$[ebp]
  0000a	57		 push	 edi
  0000b	8d 79 ff	 lea	 edi, DWORD PTR [ecx-1]
  0000e	8b c7		 mov	 eax, edi
  00010	99		 cdq
  00011	83 e2 03	 and	 edx, 3
  00014	03 c2		 add	 eax, edx
  00016	c1 f8 02	 sar	 eax, 2
  00019	8b d6		 mov	 edx, esi
  0001b	c6 44 0e ff 00	 mov	 BYTE PTR [esi+ecx-1], 0
  00020	85 c0		 test	 eax, eax
  00022	7e 0e		 jle	 SHORT $LN4@DECSTR
  00024	8b c8		 mov	 ecx, eax
$LL6@DECSTR:
  00026	81 32 ed ec eb
	ea		 xor	 DWORD PTR [edx], -353637139 ; eaebecedH
  0002c	83 c2 04	 add	 edx, 4
  0002f	49		 dec	 ecx
  00030	75 f4		 jne	 SHORT $LL6@DECSTR
$LN4@DECSTR:
  00032	c1 e0 02	 shl	 eax, 2
  00035	eb 17		 jmp	 SHORT $LN14@DECSTR
$LL3@DECSTR:
  00037	8b c8		 mov	 ecx, eax
  00039	81 e1 03 00 00
	80		 and	 ecx, -2147483645	; 80000003H
  0003f	79 05		 jns	 SHORT $LN13@DECSTR
  00041	49		 dec	 ecx
  00042	83 c9 fc	 or	 ecx, -4			; fffffffcH
  00045	41		 inc	 ecx
$LN13@DECSTR:
  00046	b2 ed		 mov	 dl, -19			; ffffffedH
  00048	2a d1		 sub	 dl, cl
  0004a	30 14 30	 xor	 BYTE PTR [eax+esi], dl
  0004d	40		 inc	 eax
$LN14@DECSTR:
  0004e	3b c7		 cmp	 eax, edi
  00050	7c e5		 jl	 SHORT $LL3@DECSTR
  00052	5f		 pop	 edi
  00053	5e		 pop	 esi
  00054	5d		 pop	 ebp
  00055	c3		 ret	 0
?_DECSTR@@YAXPADH@Z ENDP				; _DECSTR
_TEXT	ENDS
PUBLIC	??1WeaponInfo@@QAE@XZ				; WeaponInfo::~WeaponInfo
EXTRN	__imp_??1ioHashString@@QAE@XZ:PROC
; Function compile flags: /Ogsp
;	COMDAT ??1WeaponInfo@@QAE@XZ
_TEXT	SEGMENT
??1WeaponInfo@@QAE@XZ PROC				; WeaponInfo::~WeaponInfo, COMDAT
; _this$ = ecx
  00000	83 c1 08	 add	 ecx, 8
  00003	ff 25 00 00 00
	00		 jmp	 DWORD PTR __imp_??1ioHashString@@QAE@XZ
??1WeaponInfo@@QAE@XZ ENDP				; WeaponInfo::~WeaponInfo
_TEXT	ENDS
PUBLIC	?GetOwnerItem@ioSkill@@QBEPAVioItem@@XZ		; ioSkill::GetOwnerItem
; Function compile flags: /Ogsp
; File d:\lost saga for developer\youtube\tutorial\source\src\lsclient\ioskill.h
;	COMDAT ?GetOwnerItem@ioSkill@@QBEPAVioItem@@XZ
_TEXT	SEGMENT
?GetOwnerItem@ioSkill@@QBEPAVioItem@@XZ PROC		; ioSkill::GetOwnerItem, COMDAT
; _this$ = ecx

; 397  : 	inline ioItem *GetOwnerItem() const { return m_pOwnerItem; }

  00000	8b 81 a4 02 00
	00		 mov	 eax, DWORD PTR [ecx+676]
  00006	c3		 ret	 0
?GetOwnerItem@ioSkill@@QBEPAVioItem@@XZ ENDP		; ioSkill::GetOwnerItem
_TEXT	ENDS
PUBLIC	?GetName@ioSkill@@QBEABVioHashString@@XZ	; ioSkill::GetName
; Function compile flags: /Ogsp
;	COMDAT ?GetName@ioSkill@@QBEABVioHashString@@XZ
_TEXT	SEGMENT
?GetName@ioSkill@@QBEABVioHashString@@XZ PROC		; ioSkill::GetName, COMDAT
; _this$ = ecx

; 414  : 	inline const ioHashString& GetName() const { return m_Name; }

  00000	8d 41 24	 lea	 eax, DWORD PTR [ecx+36]
  00003	c3		 ret	 0
?GetName@ioSkill@@QBEABVioHashString@@XZ ENDP		; ioSkill::GetName
_TEXT	ENDS
PUBLIC	??1?$_Vector_val@UWeaponInfo@@V?$allocator@UWeaponInfo@@@std@@@std@@QAE@XZ ; std::_Vector_val<WeaponInfo,std::allocator<WeaponInfo> >::~_Vector_val<WeaponInfo,std::allocator<WeaponInfo> >
; Function compile flags: /Ogsp
; File c:\program files (x86)\microsoft visual studio 10.0\vc\include\vector
;	COMDAT ??1?$_Vector_val@UWeaponInfo@@V?$allocator@UWeaponInfo@@@std@@@std@@QAE@XZ
_TEXT	SEGMENT
??1?$_Vector_val@UWeaponInfo@@V?$allocator@UWeaponInfo@@@std@@@std@@QAE@XZ PROC ; std::_Vector_val<WeaponInfo,std::allocator<WeaponInfo> >::~_Vector_val<WeaponInfo,std::allocator<WeaponInfo> >, COMDAT
; _this$ = ecx

; 434  : 		}

  00000	c3		 ret	 0
??1?$_Vector_val@UWeaponInfo@@V?$allocator@UWeaponInfo@@@std@@@std@@QAE@XZ ENDP ; std::_Vector_val<WeaponInfo,std::allocator<WeaponInfo> >::~_Vector_val<WeaponInfo,std::allocator<WeaponInfo> >
_TEXT	ENDS
PUBLIC	??0?$allocator@UWeaponInfo@@@std@@QAE@XZ	; std::allocator<WeaponInfo>::allocator<WeaponInfo>
; Function compile flags: /Ogsp
; File c:\program files (x86)\microsoft visual studio 10.0\vc\include\xmemory
;	COMDAT ??0?$allocator@UWeaponInfo@@@std@@QAE@XZ
_TEXT	SEGMENT
??0?$allocator@UWeaponInfo@@@std@@QAE@XZ PROC		; std::allocator<WeaponInfo>::allocator<WeaponInfo>, COMDAT
; _this$ = ecx

; 161  : 	_ALLOCATOR() _THROW0()

  00000	8b c1		 mov	 eax, ecx

; 162  : 		{	// construct default allocator (do nothing)
; 163  : 		}

  00002	c3		 ret	 0
??0?$allocator@UWeaponInfo@@@std@@QAE@XZ ENDP		; std::allocator<WeaponInfo>::allocator<WeaponInfo>
_TEXT	ENDS
PUBLIC	??1?$_Vector_val@UForceInfo@@V?$allocator@UForceInfo@@@std@@@std@@QAE@XZ ; std::_Vector_val<ForceInfo,std::allocator<ForceInfo> >::~_Vector_val<ForceInfo,std::allocator<ForceInfo> >
; Function compile flags: /Ogsp
; File c:\program files (x86)\microsoft visual studio 10.0\vc\include\vector
;	COMDAT ??1?$_Vector_val@UForceInfo@@V?$allocator@UForceInfo@@@std@@@std@@QAE@XZ
_TEXT	SEGMENT
??1?$_Vector_val@UForceInfo@@V?$allocator@UForceInfo@@@std@@@std@@QAE@XZ PROC ; std::_Vector_val<ForceInfo,std::allocator<ForceInfo> >::~_Vector_val<ForceInfo,std::allocator<ForceInfo> >, COMDAT
; _this$ = ecx

; 434  : 		}

  00000	c3		 ret	 0
??1?$_Vector_val@UForceInfo@@V?$allocator@UForceInfo@@@std@@@std@@QAE@XZ ENDP ; std::_Vector_val<ForceInfo,std::allocator<ForceInfo> >::~_Vector_val<ForceInfo,std::allocator<ForceInfo> >
_TEXT	ENDS
PUBLIC	??0?$allocator@UForceInfo@@@std@@QAE@XZ		; std::allocator<ForceInfo>::allocator<ForceInfo>
; Function compile flags: /Ogsp
; File c:\program files (x86)\microsoft visual studio 10.0\vc\include\xmemory
;	COMDAT ??0?$allocator@UForceInfo@@@std@@QAE@XZ
_TEXT	SEGMENT
??0?$allocator@UForceInfo@@@std@@QAE@XZ PROC		; std::allocator<ForceInfo>::allocator<ForceInfo>, COMDAT
; _this$ = ecx

; 161  : 	_ALLOCATOR() _THROW0()

  00000	8b c1		 mov	 eax, ecx

; 162  : 		{	// construct default allocator (do nothing)
; 163  : 		}

  00002	c3		 ret	 0
??0?$allocator@UForceInfo@@@std@@QAE@XZ ENDP		; std::allocator<ForceInfo>::allocator<ForceInfo>
_TEXT	ENDS
PUBLIC	?EncryptValueToPool@?$CEncrypt@K@@AAEXPBD@Z	; CEncrypt<unsigned long>::EncryptValueToPool
EXTRN	?EncryptByte@ccddaabb@@QAEXPBDPADH@Z:PROC	; ccddaabb::EncryptByte
; Function compile flags: /Ogsp
; File d:\lost saga for developer\youtube\tutorial\source\src\lsclient\encryptvalue.h
;	COMDAT ?EncryptValueToPool@?$CEncrypt@K@@AAEXPBD@Z
_TEXT	SEGMENT
_value$ = 8						; size = 4
?EncryptValueToPool@?$CEncrypt@K@@AAEXPBD@Z PROC	; CEncrypt<unsigned long>::EncryptValueToPool, COMDAT
; _this$ = ecx

; 67   : 	{

  00000	55		 push	 ebp
  00001	8b ec		 mov	 ebp, esp

; 68   : 		m_RC5.EncryptByte( value, m_MemPool, max(m_ValueSize, DEFAULT_ENCRYPT) );

  00003	0f b7 41 06	 movzx	 eax, WORD PTR [ecx+6]
  00007	83 f8 04	 cmp	 eax, 4
  0000a	77 03		 ja	 SHORT $LN4@EncryptVal
  0000c	6a 04		 push	 4
  0000e	58		 pop	 eax
$LN4@EncryptVal:
  0000f	50		 push	 eax
  00010	8d 41 1c	 lea	 eax, DWORD PTR [ecx+28]
  00013	50		 push	 eax
  00014	ff 75 08	 push	 DWORD PTR _value$[ebp]
  00017	83 c1 0c	 add	 ecx, 12			; 0000000cH
  0001a	e8 00 00 00 00	 call	 ?EncryptByte@ccddaabb@@QAEXPBDPADH@Z ; ccddaabb::EncryptByte

; 69   : 		
; 70   : 	}

  0001f	5d		 pop	 ebp
  00020	c2 04 00	 ret	 4
?EncryptValueToPool@?$CEncrypt@K@@AAEXPBD@Z ENDP	; CEncrypt<unsigned long>::EncryptValueToPool
_TEXT	ENDS
PUBLIC	?DecryptValueToPool@?$CEncrypt@K@@QAEXPAK@Z	; CEncrypt<unsigned long>::DecryptValueToPool
EXTRN	?DecryptByte@ccddaabb@@QBEXPBDPADH@Z:PROC	; ccddaabb::DecryptByte
; Function compile flags: /Ogsp
;	COMDAT ?DecryptValueToPool@?$CEncrypt@K@@QAEXPAK@Z
_TEXT	SEGMENT
_value$ = 8						; size = 4
?DecryptValueToPool@?$CEncrypt@K@@QAEXPAK@Z PROC	; CEncrypt<unsigned long>::DecryptValueToPool, COMDAT
; _this$ = ecx

; 1256 : 	{

  00000	55		 push	 ebp
  00001	8b ec		 mov	 ebp, esp
  00003	56		 push	 esi

; 1257 : 		m_RC5.DecryptByte( m_MemPool, m_TempMem, 4 );

  00004	8d 71 28	 lea	 esi, DWORD PTR [ecx+40]
  00007	6a 04		 push	 4
  00009	8d 41 1c	 lea	 eax, DWORD PTR [ecx+28]
  0000c	56		 push	 esi
  0000d	50		 push	 eax
  0000e	83 c1 0c	 add	 ecx, 12			; 0000000cH
  00011	e8 00 00 00 00	 call	 ?DecryptByte@ccddaabb@@QBEXPBDPADH@Z ; ccddaabb::DecryptByte

; 1258 : 		*value = *((DWORD*)m_TempMem);

  00016	8b 06		 mov	 eax, DWORD PTR [esi]
  00018	8b 4d 08	 mov	 ecx, DWORD PTR _value$[ebp]
  0001b	89 01		 mov	 DWORD PTR [ecx], eax
  0001d	5e		 pop	 esi

; 1259 : 	}

  0001e	5d		 pop	 ebp
  0001f	c2 04 00	 ret	 4
?DecryptValueToPool@?$CEncrypt@K@@QAEXPAK@Z ENDP	; CEncrypt<unsigned long>::DecryptValueToPool
_TEXT	ENDS
PUBLIC	?DecryptValueToPool@?$CEncrypt@_N@@QAEXPA_N@Z	; CEncrypt<bool>::DecryptValueToPool
; Function compile flags: /Ogsp
;	COMDAT ?DecryptValueToPool@?$CEncrypt@_N@@QAEXPA_N@Z
_TEXT	SEGMENT
_value$ = 8						; size = 4
?DecryptValueToPool@?$CEncrypt@_N@@QAEXPA_N@Z PROC	; CEncrypt<bool>::DecryptValueToPool, COMDAT
; _this$ = ecx

; 219  : 	{

  00000	55		 push	 ebp
  00001	8b ec		 mov	 ebp, esp
  00003	56		 push	 esi

; 220  : 		m_RC5.DecryptByte( m_MemPool, m_TempMem, 4 );

  00004	8d 71 28	 lea	 esi, DWORD PTR [ecx+40]
  00007	6a 04		 push	 4
  00009	8d 41 1c	 lea	 eax, DWORD PTR [ecx+28]
  0000c	56		 push	 esi
  0000d	50		 push	 eax
  0000e	83 c1 0c	 add	 ecx, 12			; 0000000cH
  00011	e8 00 00 00 00	 call	 ?DecryptByte@ccddaabb@@QBEXPBDPADH@Z ; ccddaabb::DecryptByte

; 221  : 		*value = *((bool*)m_TempMem);

  00016	8a 06		 mov	 al, BYTE PTR [esi]
  00018	8b 4d 08	 mov	 ecx, DWORD PTR _value$[ebp]
  0001b	88 01		 mov	 BYTE PTR [ecx], al
  0001d	5e		 pop	 esi

; 222  : 	}

  0001e	5d		 pop	 ebp
  0001f	c2 04 00	 ret	 4
?DecryptValueToPool@?$CEncrypt@_N@@QAEXPA_N@Z ENDP	; CEncrypt<bool>::DecryptValueToPool
_TEXT	ENDS
PUBLIC	??1?$_Vector_val@UAttackAttribute@@V?$allocator@UAttackAttribute@@@std@@@std@@QAE@XZ ; std::_Vector_val<AttackAttribute,std::allocator<AttackAttribute> >::~_Vector_val<AttackAttribute,std::allocator<AttackAttribute> >
; Function compile flags: /Ogsp
; File c:\program files (x86)\microsoft visual studio 10.0\vc\include\vector
;	COMDAT ??1?$_Vector_val@UAttackAttribute@@V?$allocator@UAttackAttribute@@@std@@@std@@QAE@XZ
_TEXT	SEGMENT
??1?$_Vector_val@UAttackAttribute@@V?$allocator@UAttackAttribute@@@std@@@std@@QAE@XZ PROC ; std::_Vector_val<AttackAttribute,std::allocator<AttackAttribute> >::~_Vector_val<AttackAttribute,std::allocator<AttackAttribute> >, COMDAT
; _this$ = ecx

; 434  : 		}

  00000	c3		 ret	 0
??1?$_Vector_val@UAttackAttribute@@V?$allocator@UAttackAttribute@@@std@@@std@@QAE@XZ ENDP ; std::_Vector_val<AttackAttribute,std::allocator<AttackAttribute> >::~_Vector_val<AttackAttribute,std::allocator<AttackAttribute> >
_TEXT	ENDS
PUBLIC	??0?$allocator@UAttackAttribute@@@std@@QAE@XZ	; std::allocator<AttackAttribute>::allocator<AttackAttribute>
; Function compile flags: /Ogsp
; File c:\program files (x86)\microsoft visual studio 10.0\vc\include\xmemory
;	COMDAT ??0?$allocator@UAttackAttribute@@@std@@QAE@XZ
_TEXT	SEGMENT
??0?$allocator@UAttackAttribute@@@std@@QAE@XZ PROC	; std::allocator<AttackAttribute>::allocator<AttackAttribute>, COMDAT
; _this$ = ecx

; 161  : 	_ALLOCATOR() _THROW0()

  00000	8b c1		 mov	 eax, ecx

; 162  : 		{	// construct default allocator (do nothing)
; 163  : 		}

  00002	c3		 ret	 0
??0?$allocator@UAttackAttribute@@@std@@QAE@XZ ENDP	; std::allocator<AttackAttribute>::allocator<AttackAttribute>
_TEXT	ENDS
PUBLIC	??0?$allocator@UWeaponInfo@@@std@@QAE@ABV01@@Z	; std::allocator<WeaponInfo>::allocator<WeaponInfo>
; Function compile flags: /Ogsp
;	COMDAT ??0?$allocator@UWeaponInfo@@@std@@QAE@ABV01@@Z
_TEXT	SEGMENT
___formal$ = 8						; size = 4
??0?$allocator@UWeaponInfo@@@std@@QAE@ABV01@@Z PROC	; std::allocator<WeaponInfo>::allocator<WeaponInfo>, COMDAT
; _this$ = ecx

; 165  : 	_ALLOCATOR(const _ALLOCATOR<_Ty>&) _THROW0()

  00000	8b c1		 mov	 eax, ecx

; 166  : 		{	// construct by copying (do nothing)
; 167  : 		}

  00002	c2 04 00	 ret	 4
??0?$allocator@UWeaponInfo@@@std@@QAE@ABV01@@Z ENDP	; std::allocator<WeaponInfo>::allocator<WeaponInfo>
_TEXT	ENDS
PUBLIC	?deallocate@?$allocator@UWeaponInfo@@@std@@QAEXPAUWeaponInfo@@I@Z ; std::allocator<WeaponInfo>::deallocate
; Function compile flags: /Ogsp
;	COMDAT ?deallocate@?$allocator@UWeaponInfo@@@std@@QAEXPAUWeaponInfo@@I@Z
_TEXT	SEGMENT
__Ptr$ = 8						; size = 4
___formal$ = 12						; size = 4
?deallocate@?$allocator@UWeaponInfo@@@std@@QAEXPAUWeaponInfo@@I@Z PROC ; std::allocator<WeaponInfo>::deallocate, COMDAT
; _this$ = ecx

; 181  : 		{	// deallocate object at _Ptr, ignore size

  00000	55		 push	 ebp
  00001	8b ec		 mov	 ebp, esp

; 182  : 		::operator delete(_Ptr);

  00003	ff 75 08	 push	 DWORD PTR __Ptr$[ebp]
  00006	e8 00 00 00 00	 call	 ??3@YAXPAX@Z		; operator delete
  0000b	59		 pop	 ecx

; 183  : 		}

  0000c	5d		 pop	 ebp
  0000d	c2 08 00	 ret	 8
?deallocate@?$allocator@UWeaponInfo@@@std@@QAEXPAUWeaponInfo@@I@Z ENDP ; std::allocator<WeaponInfo>::deallocate
_TEXT	ENDS
PUBLIC	??0?$allocator@UForceInfo@@@std@@QAE@ABV01@@Z	; std::allocator<ForceInfo>::allocator<ForceInfo>
; Function compile flags: /Ogsp
;	COMDAT ??0?$allocator@UForceInfo@@@std@@QAE@ABV01@@Z
_TEXT	SEGMENT
___formal$ = 8						; size = 4
??0?$allocator@UForceInfo@@@std@@QAE@ABV01@@Z PROC	; std::allocator<ForceInfo>::allocator<ForceInfo>, COMDAT
; _this$ = ecx

; 165  : 	_ALLOCATOR(const _ALLOCATOR<_Ty>&) _THROW0()

  00000	8b c1		 mov	 eax, ecx

; 166  : 		{	// construct by copying (do nothing)
; 167  : 		}

  00002	c2 04 00	 ret	 4
??0?$allocator@UForceInfo@@@std@@QAE@ABV01@@Z ENDP	; std::allocator<ForceInfo>::allocator<ForceInfo>
_TEXT	ENDS
PUBLIC	?deallocate@?$allocator@UForceInfo@@@std@@QAEXPAUForceInfo@@I@Z ; std::allocator<ForceInfo>::deallocate
; Function compile flags: /Ogsp
;	COMDAT ?deallocate@?$allocator@UForceInfo@@@std@@QAEXPAUForceInfo@@I@Z
_TEXT	SEGMENT
__Ptr$ = 8						; size = 4
___formal$ = 12						; size = 4
?deallocate@?$allocator@UForceInfo@@@std@@QAEXPAUForceInfo@@I@Z PROC ; std::allocator<ForceInfo>::deallocate, COMDAT
; _this$ = ecx

; 181  : 		{	// deallocate object at _Ptr, ignore size

  00000	55		 push	 ebp
  00001	8b ec		 mov	 ebp, esp

; 182  : 		::operator delete(_Ptr);

  00003	ff 75 08	 push	 DWORD PTR __Ptr$[ebp]
  00006	e8 00 00 00 00	 call	 ??3@YAXPAX@Z		; operator delete
  0000b	59		 pop	 ecx

; 183  : 		}

  0000c	5d		 pop	 ebp
  0000d	c2 08 00	 ret	 8
?deallocate@?$allocator@UForceInfo@@@std@@QAEXPAUForceInfo@@I@Z ENDP ; std::allocator<ForceInfo>::deallocate
_TEXT	ENDS
PUBLIC	??0?$allocator@UAttackAttribute@@@std@@QAE@ABV01@@Z ; std::allocator<AttackAttribute>::allocator<AttackAttribute>
; Function compile flags: /Ogsp
;	COMDAT ??0?$allocator@UAttackAttribute@@@std@@QAE@ABV01@@Z
_TEXT	SEGMENT
___formal$ = 8						; size = 4
??0?$allocator@UAttackAttribute@@@std@@QAE@ABV01@@Z PROC ; std::allocator<AttackAttribute>::allocator<AttackAttribute>, COMDAT
; _this$ = ecx

; 165  : 	_ALLOCATOR(const _ALLOCATOR<_Ty>&) _THROW0()

  00000	8b c1		 mov	 eax, ecx

; 166  : 		{	// construct by copying (do nothing)
; 167  : 		}

  00002	c2 04 00	 ret	 4
??0?$allocator@UAttackAttribute@@@std@@QAE@ABV01@@Z ENDP ; std::allocator<AttackAttribute>::allocator<AttackAttribute>
_TEXT	ENDS
PUBLIC	?deallocate@?$allocator@UAttackAttribute@@@std@@QAEXPAUAttackAttribute@@I@Z ; std::allocator<AttackAttribute>::deallocate
; Function compile flags: /Ogsp
;	COMDAT ?deallocate@?$allocator@UAttackAttribute@@@std@@QAEXPAUAttackAttribute@@I@Z
_TEXT	SEGMENT
__Ptr$ = 8						; size = 4
___formal$ = 12						; size = 4
?deallocate@?$allocator@UAttackAttribute@@@std@@QAEXPAUAttackAttribute@@I@Z PROC ; std::allocator<AttackAttribute>::deallocate, COMDAT
; _this$ = ecx

; 181  : 		{	// deallocate object at _Ptr, ignore size

  00000	55		 push	 ebp
  00001	8b ec		 mov	 ebp, esp

; 182  : 		::operator delete(_Ptr);

  00003	ff 75 08	 push	 DWORD PTR __Ptr$[ebp]
  00006	e8 00 00 00 00	 call	 ??3@YAXPAX@Z		; operator delete
  0000b	59		 pop	 ecx

; 183  : 		}

  0000c	5d		 pop	 ebp
  0000d	c2 08 00	 ret	 8
?deallocate@?$allocator@UAttackAttribute@@@std@@QAEXPAUAttackAttribute@@I@Z ENDP ; std::allocator<AttackAttribute>::deallocate
_TEXT	ENDS
PUBLIC	??0?$_Vector_const_iterator@V?$_Vector_val@UAttackAttribute@@V?$allocator@UAttackAttribute@@@std@@@std@@@std@@QAE@PAUAttackAttribute@@PBU_Container_base0@1@@Z ; std::_Vector_const_iterator<std::_Vector_val<AttackAttribute,std::allocator<AttackAttribute> > >::_Vector_const_iterator<std::_Vector_val<AttackAttribute,std::allocator<AttackAttribute> > >
; Function compile flags: /Ogsp
; File c:\program files (x86)\microsoft visual studio 10.0\vc\include\vector
;	COMDAT ??0?$_Vector_const_iterator@V?$_Vector_val@UAttackAttribute@@V?$allocator@UAttackAttribute@@@std@@@std@@@std@@QAE@PAUAttackAttribute@@PBU_Container_base0@1@@Z
_TEXT	SEGMENT
__Parg$ = 8						; size = 4
__Pvector$ = 12						; size = 4
??0?$_Vector_const_iterator@V?$_Vector_val@UAttackAttribute@@V?$allocator@UAttackAttribute@@@std@@@std@@@std@@QAE@PAUAttackAttribute@@PBU_Container_base0@1@@Z PROC ; std::_Vector_const_iterator<std::_Vector_val<AttackAttribute,std::allocator<AttackAttribute> > >::_Vector_const_iterator<std::_Vector_val<AttackAttribute,std::allocator<AttackAttribute> > >, COMDAT
; _this$ = ecx

; 45   : 		{	// construct with pointer _Parg

  00000	55		 push	 ebp
  00001	8b ec		 mov	 ebp, esp
  00003	8b c1		 mov	 eax, ecx
  00005	8b 4d 08	 mov	 ecx, DWORD PTR __Parg$[ebp]
  00008	89 08		 mov	 DWORD PTR [eax], ecx

; 46   : 		this->_Adopt(_Pvector);
; 47   : 		}

  0000a	5d		 pop	 ebp
  0000b	c2 08 00	 ret	 8
??0?$_Vector_const_iterator@V?$_Vector_val@UAttackAttribute@@V?$allocator@UAttackAttribute@@@std@@@std@@@std@@QAE@PAUAttackAttribute@@PBU_Container_base0@1@@Z ENDP ; std::_Vector_const_iterator<std::_Vector_val<AttackAttribute,std::allocator<AttackAttribute> > >::_Vector_const_iterator<std::_Vector_val<AttackAttribute,std::allocator<AttackAttribute> > >
_TEXT	ENDS
PUBLIC	?_Compat@?$_Vector_const_iterator@V?$_Vector_val@UAttackAttribute@@V?$allocator@UAttackAttribute@@@std@@@std@@@std@@QBEXABV12@@Z ; std::_Vector_const_iterator<std::_Vector_val<AttackAttribute,std::allocator<AttackAttribute> > >::_Compat
; Function compile flags: /Ogsp
;	COMDAT ?_Compat@?$_Vector_const_iterator@V?$_Vector_val@UAttackAttribute@@V?$allocator@UAttackAttribute@@@std@@@std@@@std@@QBEXABV12@@Z
_TEXT	SEGMENT
___formal$ = 8						; size = 4
?_Compat@?$_Vector_const_iterator@V?$_Vector_val@UAttackAttribute@@V?$allocator@UAttackAttribute@@@std@@@std@@@std@@QBEXABV12@@Z PROC ; std::_Vector_const_iterator<std::_Vector_val<AttackAttribute,std::allocator<AttackAttribute> > >::_Compat, COMDAT
; _this$ = ecx

; 253  : 		}

  00000	c2 04 00	 ret	 4
?_Compat@?$_Vector_const_iterator@V?$_Vector_val@UAttackAttribute@@V?$allocator@UAttackAttribute@@@std@@@std@@@std@@QBEXABV12@@Z ENDP ; std::_Vector_const_iterator<std::_Vector_val<AttackAttribute,std::allocator<AttackAttribute> > >::_Compat
_TEXT	ENDS
EXTRN	__imp_??0exception@std@@QAE@ABV01@@Z:PROC
; Function compile flags: /Ogsp
;	COMDAT ??0bad_alloc@std@@QAE@ABV01@@Z
_TEXT	SEGMENT
___that$ = 8						; size = 4
??0bad_alloc@std@@QAE@ABV01@@Z PROC			; std::bad_alloc::bad_alloc, COMDAT
; _this$ = ecx
  00000	55		 push	 ebp
  00001	8b ec		 mov	 ebp, esp
  00003	56		 push	 esi
  00004	ff 75 08	 push	 DWORD PTR ___that$[ebp]
  00007	8b f1		 mov	 esi, ecx
  00009	ff 15 00 00 00
	00		 call	 DWORD PTR __imp_??0exception@std@@QAE@ABV01@@Z
  0000f	c7 06 00 00 00
	00		 mov	 DWORD PTR [esi], OFFSET ??_7bad_alloc@std@@6B@
  00015	8b c6		 mov	 eax, esi
  00017	5e		 pop	 esi
  00018	5d		 pop	 ebp
  00019	c2 04 00	 ret	 4
??0bad_alloc@std@@QAE@ABV01@@Z ENDP			; std::bad_alloc::bad_alloc
_TEXT	ENDS
PUBLIC	??$_Ptr_cat@UAttackAttribute@@U1@@std@@YA?AU_Nonscalar_ptr_iterator_tag@0@PAUAttackAttribute@@0@Z ; std::_Ptr_cat<AttackAttribute,AttackAttribute>
; Function compile flags: /Ogsp
; File c:\program files (x86)\microsoft visual studio 10.0\vc\include\xutility
;	COMDAT ??$_Ptr_cat@UAttackAttribute@@U1@@std@@YA?AU_Nonscalar_ptr_iterator_tag@0@PAUAttackAttribute@@0@Z
_TEXT	SEGMENT
__Cat$ = -1						; size = 1
___formal$ = 8						; size = 4
___formal$ = 12						; size = 4
??$_Ptr_cat@UAttackAttribute@@U1@@std@@YA?AU_Nonscalar_ptr_iterator_tag@0@PAUAttackAttribute@@0@Z PROC ; std::_Ptr_cat<AttackAttribute,AttackAttribute>, COMDAT

; 516  : 	{	// return pointer category from pointers

  00000	55		 push	 ebp
  00001	8b ec		 mov	 ebp, esp
  00003	51		 push	 ecx

; 517  : 	typename _Ptr_cat_helper<_Elem1, _Elem2>::_Type _Cat;
; 518  : 	return (_Cat);

  00004	8a 45 ff	 mov	 al, BYTE PTR __Cat$[ebp]

; 519  : 	}

  00007	c9		 leave
  00008	c3		 ret	 0
??$_Ptr_cat@UAttackAttribute@@U1@@std@@YA?AU_Nonscalar_ptr_iterator_tag@0@PAUAttackAttribute@@0@Z ENDP ; std::_Ptr_cat<AttackAttribute,AttackAttribute>
_TEXT	ENDS
PUBLIC	??$_Ptr_cat@UWeaponInfo@@U1@@std@@YA?AU_Nonscalar_ptr_iterator_tag@0@PAUWeaponInfo@@0@Z ; std::_Ptr_cat<WeaponInfo,WeaponInfo>
; Function compile flags: /Ogsp
;	COMDAT ??$_Ptr_cat@UWeaponInfo@@U1@@std@@YA?AU_Nonscalar_ptr_iterator_tag@0@PAUWeaponInfo@@0@Z
_TEXT	SEGMENT
__Cat$ = -1						; size = 1
___formal$ = 8						; size = 4
___formal$ = 12						; size = 4
??$_Ptr_cat@UWeaponInfo@@U1@@std@@YA?AU_Nonscalar_ptr_iterator_tag@0@PAUWeaponInfo@@0@Z PROC ; std::_Ptr_cat<WeaponInfo,WeaponInfo>, COMDAT

; 516  : 	{	// return pointer category from pointers

  00000	55		 push	 ebp
  00001	8b ec		 mov	 ebp, esp
  00003	51		 push	 ecx

; 517  : 	typename _Ptr_cat_helper<_Elem1, _Elem2>::_Type _Cat;
; 518  : 	return (_Cat);

  00004	8a 45 ff	 mov	 al, BYTE PTR __Cat$[ebp]

; 519  : 	}

  00007	c9		 leave
  00008	c3		 ret	 0
??$_Ptr_cat@UWeaponInfo@@U1@@std@@YA?AU_Nonscalar_ptr_iterator_tag@0@PAUWeaponInfo@@0@Z ENDP ; std::_Ptr_cat<WeaponInfo,WeaponInfo>
_TEXT	ENDS
PUBLIC	??$_Ptr_cat@UForceInfo@@U1@@std@@YA?AU_Nonscalar_ptr_iterator_tag@0@PAUForceInfo@@0@Z ; std::_Ptr_cat<ForceInfo,ForceInfo>
; Function compile flags: /Ogsp
;	COMDAT ??$_Ptr_cat@UForceInfo@@U1@@std@@YA?AU_Nonscalar_ptr_iterator_tag@0@PAUForceInfo@@0@Z
_TEXT	SEGMENT
__Cat$ = -1						; size = 1
___formal$ = 8						; size = 4
___formal$ = 12						; size = 4
??$_Ptr_cat@UForceInfo@@U1@@std@@YA?AU_Nonscalar_ptr_iterator_tag@0@PAUForceInfo@@0@Z PROC ; std::_Ptr_cat<ForceInfo,ForceInfo>, COMDAT

; 516  : 	{	// return pointer category from pointers

  00000	55		 push	 ebp
  00001	8b ec		 mov	 ebp, esp
  00003	51		 push	 ecx

; 517  : 	typename _Ptr_cat_helper<_Elem1, _Elem2>::_Type _Cat;
; 518  : 	return (_Cat);

  00004	8a 45 ff	 mov	 al, BYTE PTR __Cat$[ebp]

; 519  : 	}

  00007	c9		 leave
  00008	c3		 ret	 0
??$_Ptr_cat@UForceInfo@@U1@@std@@YA?AU_Nonscalar_ptr_iterator_tag@0@PAUForceInfo@@0@Z ENDP ; std::_Ptr_cat<ForceInfo,ForceInfo>
_TEXT	ENDS
PUBLIC	?capacity@?$vector@UWeaponInfo@@V?$allocator@UWeaponInfo@@@std@@@std@@QBEIXZ ; std::vector<WeaponInfo,std::allocator<WeaponInfo> >::capacity
; Function compile flags: /Ogsp
; File c:\program files (x86)\microsoft visual studio 10.0\vc\include\vector
;	COMDAT ?capacity@?$vector@UWeaponInfo@@V?$allocator@UWeaponInfo@@@std@@@std@@QBEIXZ
_TEXT	SEGMENT
?capacity@?$vector@UWeaponInfo@@V?$allocator@UWeaponInfo@@@std@@@std@@QBEIXZ PROC ; std::vector<WeaponInfo,std::allocator<WeaponInfo> >::capacity, COMDAT
; _this$ = ecx

; 777  : 		return (this->_Myend - this->_Myfirst);

  00000	8b 41 08	 mov	 eax, DWORD PTR [ecx+8]
  00003	2b 01		 sub	 eax, DWORD PTR [ecx]
  00005	6a 28		 push	 40			; 00000028H
  00007	99		 cdq
  00008	59		 pop	 ecx
  00009	f7 f9		 idiv	 ecx

; 778  : 		}

  0000b	c3		 ret	 0
?capacity@?$vector@UWeaponInfo@@V?$allocator@UWeaponInfo@@@std@@@std@@QBEIXZ ENDP ; std::vector<WeaponInfo,std::allocator<WeaponInfo> >::capacity
_TEXT	ENDS
PUBLIC	?size@?$vector@UWeaponInfo@@V?$allocator@UWeaponInfo@@@std@@@std@@QBEIXZ ; std::vector<WeaponInfo,std::allocator<WeaponInfo> >::size
; Function compile flags: /Ogsp
;	COMDAT ?size@?$vector@UWeaponInfo@@V?$allocator@UWeaponInfo@@@std@@@std@@QBEIXZ
_TEXT	SEGMENT
?size@?$vector@UWeaponInfo@@V?$allocator@UWeaponInfo@@@std@@@std@@QBEIXZ PROC ; std::vector<WeaponInfo,std::allocator<WeaponInfo> >::size, COMDAT
; _this$ = ecx

; 879  : 		return (this->_Mylast - this->_Myfirst);

  00000	8b 41 04	 mov	 eax, DWORD PTR [ecx+4]
  00003	2b 01		 sub	 eax, DWORD PTR [ecx]
  00005	6a 28		 push	 40			; 00000028H
  00007	99		 cdq
  00008	59		 pop	 ecx
  00009	f7 f9		 idiv	 ecx

; 880  : 		}

  0000b	c3		 ret	 0
?size@?$vector@UWeaponInfo@@V?$allocator@UWeaponInfo@@@std@@@std@@QBEIXZ ENDP ; std::vector<WeaponInfo,std::allocator<WeaponInfo> >::size
_TEXT	ENDS
PUBLIC	?capacity@?$vector@UForceInfo@@V?$allocator@UForceInfo@@@std@@@std@@QBEIXZ ; std::vector<ForceInfo,std::allocator<ForceInfo> >::capacity
; Function compile flags: /Ogsp
;	COMDAT ?capacity@?$vector@UForceInfo@@V?$allocator@UForceInfo@@@std@@@std@@QBEIXZ
_TEXT	SEGMENT
?capacity@?$vector@UForceInfo@@V?$allocator@UForceInfo@@@std@@@std@@QBEIXZ PROC ; std::vector<ForceInfo,std::allocator<ForceInfo> >::capacity, COMDAT
; _this$ = ecx

; 777  : 		return (this->_Myend - this->_Myfirst);

  00000	8b 41 08	 mov	 eax, DWORD PTR [ecx+8]
  00003	2b 01		 sub	 eax, DWORD PTR [ecx]
  00005	6a 0c		 push	 12			; 0000000cH
  00007	99		 cdq
  00008	59		 pop	 ecx
  00009	f7 f9		 idiv	 ecx

; 778  : 		}

  0000b	c3		 ret	 0
?capacity@?$vector@UForceInfo@@V?$allocator@UForceInfo@@@std@@@std@@QBEIXZ ENDP ; std::vector<ForceInfo,std::allocator<ForceInfo> >::capacity
_TEXT	ENDS
PUBLIC	?size@?$vector@UForceInfo@@V?$allocator@UForceInfo@@@std@@@std@@QBEIXZ ; std::vector<ForceInfo,std::allocator<ForceInfo> >::size
; Function compile flags: /Ogsp
;	COMDAT ?size@?$vector@UForceInfo@@V?$allocator@UForceInfo@@@std@@@std@@QBEIXZ
_TEXT	SEGMENT
?size@?$vector@UForceInfo@@V?$allocator@UForceInfo@@@std@@@std@@QBEIXZ PROC ; std::vector<ForceInfo,std::allocator<ForceInfo> >::size, COMDAT
; _this$ = ecx

; 879  : 		return (this->_Mylast - this->_Myfirst);

  00000	8b 41 04	 mov	 eax, DWORD PTR [ecx+4]
  00003	2b 01		 sub	 eax, DWORD PTR [ecx]
  00005	6a 0c		 push	 12			; 0000000cH
  00007	99		 cdq
  00008	59		 pop	 ecx
  00009	f7 f9		 idiv	 ecx

; 880  : 		}

  0000b	c3		 ret	 0
?size@?$vector@UForceInfo@@V?$allocator@UForceInfo@@@std@@@std@@QBEIXZ ENDP ; std::vector<ForceInfo,std::allocator<ForceInfo> >::size
_TEXT	ENDS
PUBLIC	?_Xlen@?$vector@UWeaponInfo@@V?$allocator@UWeaponInfo@@@std@@@std@@IBEXXZ ; std::vector<WeaponInfo,std::allocator<WeaponInfo> >::_Xlen
; Function compile flags: /Ogsp
;	COMDAT ?_Xlen@?$vector@UWeaponInfo@@V?$allocator@UWeaponInfo@@@std@@@std@@IBEXXZ
_TEXT	SEGMENT
?_Xlen@?$vector@UWeaponInfo@@V?$allocator@UWeaponInfo@@@std@@@std@@IBEXXZ PROC ; std::vector<WeaponInfo,std::allocator<WeaponInfo> >::_Xlen, COMDAT
; _this$ = ecx

; 1427 : 		_Xlength_error("vector<T> too long");

  00000	68 00 00 00 00	 push	 OFFSET ??_C@_0BD@OLBABOEK@vector?$DMT?$DO?5too?5long?$AA@
  00005	ff 15 00 00 00
	00		 call	 DWORD PTR __imp_?_Xlength_error@std@@YAXPBD@Z
$LN4@Xlen@2:
$LN3@Xlen@2:
  0000b	cc		 int	 3
?_Xlen@?$vector@UWeaponInfo@@V?$allocator@UWeaponInfo@@@std@@@std@@IBEXXZ ENDP ; std::vector<WeaponInfo,std::allocator<WeaponInfo> >::_Xlen
_TEXT	ENDS
PUBLIC	?_Xlen@?$vector@UForceInfo@@V?$allocator@UForceInfo@@@std@@@std@@IBEXXZ ; std::vector<ForceInfo,std::allocator<ForceInfo> >::_Xlen
; Function compile flags: /Ogsp
;	COMDAT ?_Xlen@?$vector@UForceInfo@@V?$allocator@UForceInfo@@@std@@@std@@IBEXXZ
_TEXT	SEGMENT
?_Xlen@?$vector@UForceInfo@@V?$allocator@UForceInfo@@@std@@@std@@IBEXXZ PROC ; std::vector<ForceInfo,std::allocator<ForceInfo> >::_Xlen, COMDAT
; _this$ = ecx

; 1427 : 		_Xlength_error("vector<T> too long");

  00000	68 00 00 00 00	 push	 OFFSET ??_C@_0BD@OLBABOEK@vector?$DMT?$DO?5too?5long?$AA@
  00005	ff 15 00 00 00
	00		 call	 DWORD PTR __imp_?_Xlength_error@std@@YAXPBD@Z
$LN4@Xlen@3:
$LN3@Xlen@3:
  0000b	cc		 int	 3
?_Xlen@?$vector@UForceInfo@@V?$allocator@UForceInfo@@@std@@@std@@IBEXXZ ENDP ; std::vector<ForceInfo,std::allocator<ForceInfo> >::_Xlen
_TEXT	ENDS
PUBLIC	?max_size@?$allocator@UWeaponInfo@@@std@@QBEIXZ	; std::allocator<WeaponInfo>::max_size
; Function compile flags: /Ogsp
; File c:\program files (x86)\microsoft visual studio 10.0\vc\include\xmemory
;	COMDAT ?max_size@?$allocator@UWeaponInfo@@@std@@QBEIXZ
_TEXT	SEGMENT
?max_size@?$allocator@UWeaponInfo@@@std@@QBEIXZ PROC	; std::allocator<WeaponInfo>::max_size, COMDAT
; _this$ = ecx

; 218  : 		_SIZT _Count = (_SIZT)(-1) / sizeof (_Ty);
; 219  : 		return (0 < _Count ? _Count : 1);

  00000	b8 66 66 66 06	 mov	 eax, 107374182		; 06666666H

; 220  : 		}

  00005	c3		 ret	 0
?max_size@?$allocator@UWeaponInfo@@@std@@QBEIXZ ENDP	; std::allocator<WeaponInfo>::max_size
_TEXT	ENDS
PUBLIC	?max_size@?$allocator@UForceInfo@@@std@@QBEIXZ	; std::allocator<ForceInfo>::max_size
; Function compile flags: /Ogsp
;	COMDAT ?max_size@?$allocator@UForceInfo@@@std@@QBEIXZ
_TEXT	SEGMENT
?max_size@?$allocator@UForceInfo@@@std@@QBEIXZ PROC	; std::allocator<ForceInfo>::max_size, COMDAT
; _this$ = ecx

; 218  : 		_SIZT _Count = (_SIZT)(-1) / sizeof (_Ty);
; 219  : 		return (0 < _Count ? _Count : 1);

  00000	b8 55 55 55 15	 mov	 eax, 357913941		; 15555555H

; 220  : 		}

  00005	c3		 ret	 0
?max_size@?$allocator@UForceInfo@@@std@@QBEIXZ ENDP	; std::allocator<ForceInfo>::max_size
_TEXT	ENDS
PUBLIC	??0?$_Vector_const_iterator@V?$_Vector_val@UWeaponInfo@@V?$allocator@UWeaponInfo@@@std@@@std@@@std@@QAE@PAUWeaponInfo@@PBU_Container_base0@1@@Z ; std::_Vector_const_iterator<std::_Vector_val<WeaponInfo,std::allocator<WeaponInfo> > >::_Vector_const_iterator<std::_Vector_val<WeaponInfo,std::allocator<WeaponInfo> > >
; Function compile flags: /Ogsp
; File c:\program files (x86)\microsoft visual studio 10.0\vc\include\vector
;	COMDAT ??0?$_Vector_const_iterator@V?$_Vector_val@UWeaponInfo@@V?$allocator@UWeaponInfo@@@std@@@std@@@std@@QAE@PAUWeaponInfo@@PBU_Container_base0@1@@Z
_TEXT	SEGMENT
__Parg$ = 8						; size = 4
__Pvector$ = 12						; size = 4
??0?$_Vector_const_iterator@V?$_Vector_val@UWeaponInfo@@V?$allocator@UWeaponInfo@@@std@@@std@@@std@@QAE@PAUWeaponInfo@@PBU_Container_base0@1@@Z PROC ; std::_Vector_const_iterator<std::_Vector_val<WeaponInfo,std::allocator<WeaponInfo> > >::_Vector_const_iterator<std::_Vector_val<WeaponInfo,std::allocator<WeaponInfo> > >, COMDAT
; _this$ = ecx

; 45   : 		{	// construct with pointer _Parg

  00000	55		 push	 ebp
  00001	8b ec		 mov	 ebp, esp
  00003	8b c1		 mov	 eax, ecx
  00005	8b 4d 08	 mov	 ecx, DWORD PTR __Parg$[ebp]
  00008	89 08		 mov	 DWORD PTR [eax], ecx

; 46   : 		this->_Adopt(_Pvector);
; 47   : 		}

  0000a	5d		 pop	 ebp
  0000b	c2 08 00	 ret	 8
??0?$_Vector_const_iterator@V?$_Vector_val@UWeaponInfo@@V?$allocator@UWeaponInfo@@@std@@@std@@@std@@QAE@PAUWeaponInfo@@PBU_Container_base0@1@@Z ENDP ; std::_Vector_const_iterator<std::_Vector_val<WeaponInfo,std::allocator<WeaponInfo> > >::_Vector_const_iterator<std::_Vector_val<WeaponInfo,std::allocator<WeaponInfo> > >
_TEXT	ENDS
PUBLIC	??0?$_Vector_const_iterator@V?$_Vector_val@UForceInfo@@V?$allocator@UForceInfo@@@std@@@std@@@std@@QAE@PAUForceInfo@@PBU_Container_base0@1@@Z ; std::_Vector_const_iterator<std::_Vector_val<ForceInfo,std::allocator<ForceInfo> > >::_Vector_const_iterator<std::_Vector_val<ForceInfo,std::allocator<ForceInfo> > >
; Function compile flags: /Ogsp
;	COMDAT ??0?$_Vector_const_iterator@V?$_Vector_val@UForceInfo@@V?$allocator@UForceInfo@@@std@@@std@@@std@@QAE@PAUForceInfo@@PBU_Container_base0@1@@Z
_TEXT	SEGMENT
__Parg$ = 8						; size = 4
__Pvector$ = 12						; size = 4
??0?$_Vector_const_iterator@V?$_Vector_val@UForceInfo@@V?$allocator@UForceInfo@@@std@@@std@@@std@@QAE@PAUForceInfo@@PBU_Container_base0@1@@Z PROC ; std::_Vector_const_iterator<std::_Vector_val<ForceInfo,std::allocator<ForceInfo> > >::_Vector_const_iterator<std::_Vector_val<ForceInfo,std::allocator<ForceInfo> > >, COMDAT
; _this$ = ecx

; 45   : 		{	// construct with pointer _Parg

  00000	55		 push	 ebp
  00001	8b ec		 mov	 ebp, esp
  00003	8b c1		 mov	 eax, ecx
  00005	8b 4d 08	 mov	 ecx, DWORD PTR __Parg$[ebp]
  00008	89 08		 mov	 DWORD PTR [eax], ecx

; 46   : 		this->_Adopt(_Pvector);
; 47   : 		}

  0000a	5d		 pop	 ebp
  0000b	c2 08 00	 ret	 8
??0?$_Vector_const_iterator@V?$_Vector_val@UForceInfo@@V?$allocator@UForceInfo@@@std@@@std@@@std@@QAE@PAUForceInfo@@PBU_Container_base0@1@@Z ENDP ; std::_Vector_const_iterator<std::_Vector_val<ForceInfo,std::allocator<ForceInfo> > >::_Vector_const_iterator<std::_Vector_val<ForceInfo,std::allocator<ForceInfo> > >
_TEXT	ENDS
PUBLIC	?_Compat@?$_Vector_const_iterator@V?$_Vector_val@UWeaponInfo@@V?$allocator@UWeaponInfo@@@std@@@std@@@std@@QBEXABV12@@Z ; std::_Vector_const_iterator<std::_Vector_val<WeaponInfo,std::allocator<WeaponInfo> > >::_Compat
; Function compile flags: /Ogsp
;	COMDAT ?_Compat@?$_Vector_const_iterator@V?$_Vector_val@UWeaponInfo@@V?$allocator@UWeaponInfo@@@std@@@std@@@std@@QBEXABV12@@Z
_TEXT	SEGMENT
___formal$ = 8						; size = 4
?_Compat@?$_Vector_const_iterator@V?$_Vector_val@UWeaponInfo@@V?$allocator@UWeaponInfo@@@std@@@std@@@std@@QBEXABV12@@Z PROC ; std::_Vector_const_iterator<std::_Vector_val<WeaponInfo,std::allocator<WeaponInfo> > >::_Compat, COMDAT
; _this$ = ecx

; 253  : 		}

  00000	c2 04 00	 ret	 4
?_Compat@?$_Vector_const_iterator@V?$_Vector_val@UWeaponInfo@@V?$allocator@UWeaponInfo@@@std@@@std@@@std@@QBEXABV12@@Z ENDP ; std::_Vector_const_iterator<std::_Vector_val<WeaponInfo,std::allocator<WeaponInfo> > >::_Compat
_TEXT	ENDS
PUBLIC	?_Compat@?$_Vector_const_iterator@V?$_Vector_val@UForceInfo@@V?$allocator@UForceInfo@@@std@@@std@@@std@@QBEXABV12@@Z ; std::_Vector_const_iterator<std::_Vector_val<ForceInfo,std::allocator<ForceInfo> > >::_Compat
; Function compile flags: /Ogsp
;	COMDAT ?_Compat@?$_Vector_const_iterator@V?$_Vector_val@UForceInfo@@V?$allocator@UForceInfo@@@std@@@std@@@std@@QBEXABV12@@Z
_TEXT	SEGMENT
___formal$ = 8						; size = 4
?_Compat@?$_Vector_const_iterator@V?$_Vector_val@UForceInfo@@V?$allocator@UForceInfo@@@std@@@std@@@std@@QBEXABV12@@Z PROC ; std::_Vector_const_iterator<std::_Vector_val<ForceInfo,std::allocator<ForceInfo> > >::_Compat, COMDAT
; _this$ = ecx

; 253  : 		}

  00000	c2 04 00	 ret	 4
?_Compat@?$_Vector_const_iterator@V?$_Vector_val@UForceInfo@@V?$allocator@UForceInfo@@@std@@@std@@@std@@QBEXABV12@@Z ENDP ; std::_Vector_const_iterator<std::_Vector_val<ForceInfo,std::allocator<ForceInfo> > >::_Compat
_TEXT	ENDS
PUBLIC	??$move@AAUAttackAttribute@@@std@@YA$$QAUAttackAttribute@@AAU1@@Z ; std::move<AttackAttribute &>
; Function compile flags: /Ogsp
; File c:\program files (x86)\microsoft visual studio 10.0\vc\include\utility
;	COMDAT ??$move@AAUAttackAttribute@@@std@@YA$$QAUAttackAttribute@@AAU1@@Z
_TEXT	SEGMENT
__Arg$ = 8						; size = 4
??$move@AAUAttackAttribute@@@std@@YA$$QAUAttackAttribute@@AAU1@@Z PROC ; std::move<AttackAttribute &>, COMDAT

; 86   : 	{	// forward _Arg as movable

  00000	55		 push	 ebp
  00001	8b ec		 mov	 ebp, esp

; 87   : 	return ((typename tr1::_Remove_reference<_Ty>::_Type&&)_Arg);

  00003	8b 45 08	 mov	 eax, DWORD PTR __Arg$[ebp]

; 88   : 	}

  00006	5d		 pop	 ebp
  00007	c3		 ret	 0
??$move@AAUAttackAttribute@@@std@@YA$$QAUAttackAttribute@@AAU1@@Z ENDP ; std::move<AttackAttribute &>
_TEXT	ENDS
PUBLIC	??$_Allocate@UWeaponInfo@@@std@@YAPAUWeaponInfo@@IPAU1@@Z ; std::_Allocate<WeaponInfo>
; Function compile flags: /Ogsp
; File c:\program files (x86)\microsoft visual studio 10.0\vc\include\xmemory
;	COMDAT ??$_Allocate@UWeaponInfo@@@std@@YAPAUWeaponInfo@@IPAU1@@Z
_TEXT	SEGMENT
$T551627 = -12						; size = 12
$T551631 = 8						; size = 4
__Count$ = 8						; size = 4
___formal$ = 12						; size = 4
??$_Allocate@UWeaponInfo@@@std@@YAPAUWeaponInfo@@IPAU1@@Z PROC ; std::_Allocate<WeaponInfo>, COMDAT

; 30   : 	{	// allocate storage for _Count elements of type _Ty

  00000	55		 push	 ebp
  00001	8b ec		 mov	 ebp, esp

; 31   : 	void *_Ptr = 0;
; 32   : 
; 33   : 	if (_Count <= 0)

  00003	8b 4d 08	 mov	 ecx, DWORD PTR __Count$[ebp]
  00006	83 ec 0c	 sub	 esp, 12			; 0000000cH
  00009	33 c0		 xor	 eax, eax
  0000b	85 c9		 test	 ecx, ecx

; 34   : 		_Count = 0;
; 35   : 	else if (((_SIZT)(-1) / sizeof (_Ty) < _Count)

  0000d	74 3c		 je	 SHORT $LN5@Allocate@2

; 36   : 		|| (_Ptr = ::operator new(_Count * sizeof (_Ty))) == 0)

  0000f	81 f9 66 66 66
	06		 cmp	 ecx, 107374182		; 06666666H
  00015	77 0e		 ja	 SHORT $LN1@Allocate@2
  00017	6b c9 28	 imul	 ecx, 40			; 00000028H
  0001a	51		 push	 ecx
  0001b	e8 00 00 00 00	 call	 ??2@YAPAXI@Z		; operator new
  00020	59		 pop	 ecx
  00021	85 c0		 test	 eax, eax

; 38   : 
; 39   : 	return ((_Ty _FARQ *)_Ptr);

  00023	75 26		 jne	 SHORT $LN5@Allocate@2
$LN1@Allocate@2:

; 37   : 		_THROW_NCEE(bad_alloc, 0);

  00025	83 65 08 00	 and	 DWORD PTR $T551631[ebp], 0
  00029	8d 45 08	 lea	 eax, DWORD PTR $T551631[ebp]
  0002c	50		 push	 eax
  0002d	8d 4d f4	 lea	 ecx, DWORD PTR $T551627[ebp]
  00030	ff 15 00 00 00
	00		 call	 DWORD PTR __imp_??0exception@std@@QAE@ABQBD@Z
  00036	68 00 00 00 00	 push	 OFFSET __TI2?AVbad_alloc@std@@
  0003b	8d 45 f4	 lea	 eax, DWORD PTR $T551627[ebp]
  0003e	50		 push	 eax
  0003f	c7 45 f4 00 00
	00 00		 mov	 DWORD PTR $T551627[ebp], OFFSET ??_7bad_alloc@std@@6B@
  00046	e8 00 00 00 00	 call	 __CxxThrowException@8
$LN10@Allocate@2:
$LN5@Allocate@2:

; 40   : 	}

  0004b	c9		 leave
  0004c	c3		 ret	 0
$LN9@Allocate@2:
??$_Allocate@UWeaponInfo@@@std@@YAPAUWeaponInfo@@IPAU1@@Z ENDP ; std::_Allocate<WeaponInfo>
_TEXT	ENDS
PUBLIC	??$_Allocate@UForceInfo@@@std@@YAPAUForceInfo@@IPAU1@@Z ; std::_Allocate<ForceInfo>
; Function compile flags: /Ogsp
;	COMDAT ??$_Allocate@UForceInfo@@@std@@YAPAUForceInfo@@IPAU1@@Z
_TEXT	SEGMENT
$T551636 = -12						; size = 12
$T551640 = 8						; size = 4
__Count$ = 8						; size = 4
___formal$ = 12						; size = 4
??$_Allocate@UForceInfo@@@std@@YAPAUForceInfo@@IPAU1@@Z PROC ; std::_Allocate<ForceInfo>, COMDAT

; 30   : 	{	// allocate storage for _Count elements of type _Ty

  00000	55		 push	 ebp
  00001	8b ec		 mov	 ebp, esp

; 31   : 	void *_Ptr = 0;
; 32   : 
; 33   : 	if (_Count <= 0)

  00003	8b 4d 08	 mov	 ecx, DWORD PTR __Count$[ebp]
  00006	83 ec 0c	 sub	 esp, 12			; 0000000cH
  00009	33 c0		 xor	 eax, eax
  0000b	85 c9		 test	 ecx, ecx

; 34   : 		_Count = 0;
; 35   : 	else if (((_SIZT)(-1) / sizeof (_Ty) < _Count)

  0000d	74 3c		 je	 SHORT $LN5@Allocate@3

; 36   : 		|| (_Ptr = ::operator new(_Count * sizeof (_Ty))) == 0)

  0000f	81 f9 55 55 55
	15		 cmp	 ecx, 357913941		; 15555555H
  00015	77 0e		 ja	 SHORT $LN1@Allocate@3
  00017	6b c9 0c	 imul	 ecx, 12			; 0000000cH
  0001a	51		 push	 ecx
  0001b	e8 00 00 00 00	 call	 ??2@YAPAXI@Z		; operator new
  00020	59		 pop	 ecx
  00021	85 c0		 test	 eax, eax

; 38   : 
; 39   : 	return ((_Ty _FARQ *)_Ptr);

  00023	75 26		 jne	 SHORT $LN5@Allocate@3
$LN1@Allocate@3:

; 37   : 		_THROW_NCEE(bad_alloc, 0);

  00025	83 65 08 00	 and	 DWORD PTR $T551640[ebp], 0
  00029	8d 45 08	 lea	 eax, DWORD PTR $T551640[ebp]
  0002c	50		 push	 eax
  0002d	8d 4d f4	 lea	 ecx, DWORD PTR $T551636[ebp]
  00030	ff 15 00 00 00
	00		 call	 DWORD PTR __imp_??0exception@std@@QAE@ABQBD@Z
  00036	68 00 00 00 00	 push	 OFFSET __TI2?AVbad_alloc@std@@
  0003b	8d 45 f4	 lea	 eax, DWORD PTR $T551636[ebp]
  0003e	50		 push	 eax
  0003f	c7 45 f4 00 00
	00 00		 mov	 DWORD PTR $T551636[ebp], OFFSET ??_7bad_alloc@std@@6B@
  00046	e8 00 00 00 00	 call	 __CxxThrowException@8
$LN10@Allocate@3:
$LN5@Allocate@3:

; 40   : 	}

  0004b	c9		 leave
  0004c	c3		 ret	 0
$LN9@Allocate@3:
??$_Allocate@UForceInfo@@@std@@YAPAUForceInfo@@IPAU1@@Z ENDP ; std::_Allocate<ForceInfo>
_TEXT	ENDS
PUBLIC	??$_Copy_impl@PAUForceInfo@@PAU1@@std@@YAPAUForceInfo@@PAU1@00U_Nonscalar_ptr_iterator_tag@0@@Z ; std::_Copy_impl<ForceInfo *,ForceInfo *>
; Function compile flags: /Ogsp
; File c:\program files (x86)\microsoft visual studio 10.0\vc\include\xutility
;	COMDAT ??$_Copy_impl@PAUForceInfo@@PAU1@@std@@YAPAUForceInfo@@PAU1@00U_Nonscalar_ptr_iterator_tag@0@@Z
_TEXT	SEGMENT
__First$ = 8						; size = 4
__Last$ = 12						; size = 4
__Dest$ = 16						; size = 4
___formal$ = 20						; size = 1
??$_Copy_impl@PAUForceInfo@@PAU1@@std@@YAPAUForceInfo@@PAU1@00U_Nonscalar_ptr_iterator_tag@0@@Z PROC ; std::_Copy_impl<ForceInfo *,ForceInfo *>, COMDAT

; 2142 : 	{	// copy [_First, _Last) to [_Dest, ...), arbitrary iterators

  00000	55		 push	 ebp
  00001	8b ec		 mov	 ebp, esp

; 2143 : 	for (; _First != _Last; ++_Dest, ++_First)

  00003	8b 45 08	 mov	 eax, DWORD PTR __First$[ebp]
  00006	3b 45 0c	 cmp	 eax, DWORD PTR __Last$[ebp]
  00009	74 18		 je	 SHORT $LN8@Copy_impl
  0000b	56		 push	 esi
  0000c	57		 push	 edi
$LL3@Copy_impl:

; 2144 : 		*_Dest = *_First;

  0000d	8b 7d 10	 mov	 edi, DWORD PTR __Dest$[ebp]
  00010	83 45 10 0c	 add	 DWORD PTR __Dest$[ebp], 12 ; 0000000cH
  00014	8b f0		 mov	 esi, eax
  00016	a5		 movsd
  00017	a5		 movsd
  00018	83 c0 0c	 add	 eax, 12			; 0000000cH
  0001b	a5		 movsd
  0001c	3b 45 0c	 cmp	 eax, DWORD PTR __Last$[ebp]
  0001f	75 ec		 jne	 SHORT $LL3@Copy_impl
  00021	5f		 pop	 edi
  00022	5e		 pop	 esi
$LN8@Copy_impl:

; 2145 : 	return (_Dest);

  00023	8b 45 10	 mov	 eax, DWORD PTR __Dest$[ebp]

; 2146 : 	}

  00026	5d		 pop	 ebp
  00027	c3		 ret	 0
??$_Copy_impl@PAUForceInfo@@PAU1@@std@@YAPAUForceInfo@@PAU1@00U_Nonscalar_ptr_iterator_tag@0@@Z ENDP ; std::_Copy_impl<ForceInfo *,ForceInfo *>
_TEXT	ENDS
PUBLIC	??$_Destroy@UForceInfo@@@std@@YAXPAUForceInfo@@@Z ; std::_Destroy<ForceInfo>
; Function compile flags: /Ogsp
; File c:\program files (x86)\microsoft visual studio 10.0\vc\include\xmemory
;	COMDAT ??$_Destroy@UForceInfo@@@std@@YAXPAUForceInfo@@@Z
_TEXT	SEGMENT
__Ptr$ = 8						; size = 4
??$_Destroy@UForceInfo@@@std@@YAXPAUForceInfo@@@Z PROC	; std::_Destroy<ForceInfo>, COMDAT

; 63   : 	_Ptr->~_Ty();
; 64   : 	}

  00000	c3		 ret	 0
??$_Destroy@UForceInfo@@@std@@YAXPAUForceInfo@@@Z ENDP	; std::_Destroy<ForceInfo>
_TEXT	ENDS
PUBLIC	??4WeaponInfo@@QAEAAU0@ABU0@@Z			; WeaponInfo::operator=
EXTRN	__imp_??4ioHashString@@QAEAAV0@ABV0@@Z:PROC
; Function compile flags: /Ogsp
;	COMDAT ??4WeaponInfo@@QAEAAU0@ABU0@@Z
_TEXT	SEGMENT
___that$ = 8						; size = 4
??4WeaponInfo@@QAEAAU0@ABU0@@Z PROC			; WeaponInfo::operator=, COMDAT
; _this$ = ecx
  00000	55		 push	 ebp
  00001	8b ec		 mov	 ebp, esp
  00003	56		 push	 esi
  00004	57		 push	 edi
  00005	8b 7d 08	 mov	 edi, DWORD PTR ___that$[ebp]
  00008	8b 07		 mov	 eax, DWORD PTR [edi]
  0000a	8b f1		 mov	 esi, ecx
  0000c	89 06		 mov	 DWORD PTR [esi], eax
  0000e	8b 47 04	 mov	 eax, DWORD PTR [edi+4]
  00011	89 46 04	 mov	 DWORD PTR [esi+4], eax
  00014	8d 47 08	 lea	 eax, DWORD PTR [edi+8]
  00017	50		 push	 eax
  00018	8d 4e 08	 lea	 ecx, DWORD PTR [esi+8]
  0001b	ff 15 00 00 00
	00		 call	 DWORD PTR __imp_??4ioHashString@@QAEAAV0@ABV0@@Z
  00021	8b 47 18	 mov	 eax, DWORD PTR [edi+24]
  00024	89 46 18	 mov	 DWORD PTR [esi+24], eax
  00027	8b 47 1c	 mov	 eax, DWORD PTR [edi+28]
  0002a	89 46 1c	 mov	 DWORD PTR [esi+28], eax
  0002d	8a 47 20	 mov	 al, BYTE PTR [edi+32]
  00030	88 46 20	 mov	 BYTE PTR [esi+32], al
  00033	8b 47 24	 mov	 eax, DWORD PTR [edi+36]
  00036	89 46 24	 mov	 DWORD PTR [esi+36], eax
  00039	5f		 pop	 edi
  0003a	8b c6		 mov	 eax, esi
  0003c	5e		 pop	 esi
  0003d	5d		 pop	 ebp
  0003e	c2 04 00	 ret	 4
??4WeaponInfo@@QAEAAU0@ABU0@@Z ENDP			; WeaponInfo::operator=
_TEXT	ENDS
PUBLIC	??_GWeaponInfo@@QAEPAXI@Z			; WeaponInfo::`scalar deleting destructor'
; Function compile flags: /Ogsp
;	COMDAT ??_GWeaponInfo@@QAEPAXI@Z
_TEXT	SEGMENT
___flags$ = 8						; size = 4
??_GWeaponInfo@@QAEPAXI@Z PROC				; WeaponInfo::`scalar deleting destructor', COMDAT
; _this$ = ecx
  00000	55		 push	 ebp
  00001	8b ec		 mov	 ebp, esp
  00003	56		 push	 esi
  00004	8b f1		 mov	 esi, ecx
  00006	8d 4e 08	 lea	 ecx, DWORD PTR [esi+8]
  00009	ff 15 00 00 00
	00		 call	 DWORD PTR __imp_??1ioHashString@@QAE@XZ
  0000f	f6 45 08 01	 test	 BYTE PTR ___flags$[ebp], 1
  00013	74 07		 je	 SHORT $LN1@scalar@2
  00015	56		 push	 esi
  00016	e8 00 00 00 00	 call	 ??3@YAXPAX@Z		; operator delete
  0001b	59		 pop	 ecx
$LN1@scalar@2:
  0001c	8b c6		 mov	 eax, esi
  0001e	5e		 pop	 esi
  0001f	5d		 pop	 ebp
  00020	c2 04 00	 ret	 4
??_GWeaponInfo@@QAEPAXI@Z ENDP				; WeaponInfo::`scalar deleting destructor'
_TEXT	ENDS
PUBLIC	??$move@AAUWeaponInfo@@@std@@YA$$QAUWeaponInfo@@AAU1@@Z ; std::move<WeaponInfo &>
; Function compile flags: /Ogsp
; File c:\program files (x86)\microsoft visual studio 10.0\vc\include\utility
;	COMDAT ??$move@AAUWeaponInfo@@@std@@YA$$QAUWeaponInfo@@AAU1@@Z
_TEXT	SEGMENT
__Arg$ = 8						; size = 4
??$move@AAUWeaponInfo@@@std@@YA$$QAUWeaponInfo@@AAU1@@Z PROC ; std::move<WeaponInfo &>, COMDAT

; 86   : 	{	// forward _Arg as movable

  00000	55		 push	 ebp
  00001	8b ec		 mov	 ebp, esp

; 87   : 	return ((typename tr1::_Remove_reference<_Ty>::_Type&&)_Arg);

  00003	8b 45 08	 mov	 eax, DWORD PTR __Arg$[ebp]

; 88   : 	}

  00006	5d		 pop	 ebp
  00007	c3		 ret	 0
??$move@AAUWeaponInfo@@@std@@YA$$QAUWeaponInfo@@AAU1@@Z ENDP ; std::move<WeaponInfo &>
_TEXT	ENDS
PUBLIC	??$move@AAUForceInfo@@@std@@YA$$QAUForceInfo@@AAU1@@Z ; std::move<ForceInfo &>
; Function compile flags: /Ogsp
;	COMDAT ??$move@AAUForceInfo@@@std@@YA$$QAUForceInfo@@AAU1@@Z
_TEXT	SEGMENT
__Arg$ = 8						; size = 4
??$move@AAUForceInfo@@@std@@YA$$QAUForceInfo@@AAU1@@Z PROC ; std::move<ForceInfo &>, COMDAT

; 86   : 	{	// forward _Arg as movable

  00000	55		 push	 ebp
  00001	8b ec		 mov	 ebp, esp

; 87   : 	return ((typename tr1::_Remove_reference<_Ty>::_Type&&)_Arg);

  00003	8b 45 08	 mov	 eax, DWORD PTR __Arg$[ebp]

; 88   : 	}

  00006	5d		 pop	 ebp
  00007	c3		 ret	 0
??$move@AAUForceInfo@@@std@@YA$$QAUForceInfo@@AAU1@@Z ENDP ; std::move<ForceInfo &>
_TEXT	ENDS
PUBLIC	??$forward@AAUWeaponInfo@@@std@@YAAAUWeaponInfo@@AAU1@@Z ; std::forward<WeaponInfo &>
; Function compile flags: /Ogsp
;	COMDAT ??$forward@AAUWeaponInfo@@@std@@YAAAUWeaponInfo@@AAU1@@Z
_TEXT	SEGMENT
__Arg$ = 8						; size = 4
??$forward@AAUWeaponInfo@@@std@@YAAAUWeaponInfo@@AAU1@@Z PROC ; std::forward<WeaponInfo &>, COMDAT

; 78   : 	{	// forward _Arg, given explicitly specified type parameter

  00000	55		 push	 ebp
  00001	8b ec		 mov	 ebp, esp

; 79   : 	return ((_Ty&&)_Arg);

  00003	8b 45 08	 mov	 eax, DWORD PTR __Arg$[ebp]

; 80   : 	}

  00006	5d		 pop	 ebp
  00007	c3		 ret	 0
??$forward@AAUWeaponInfo@@@std@@YAAAUWeaponInfo@@AAU1@@Z ENDP ; std::forward<WeaponInfo &>
_TEXT	ENDS
PUBLIC	??$forward@AAUForceInfo@@@std@@YAAAUForceInfo@@AAU1@@Z ; std::forward<ForceInfo &>
; Function compile flags: /Ogsp
;	COMDAT ??$forward@AAUForceInfo@@@std@@YAAAUForceInfo@@AAU1@@Z
_TEXT	SEGMENT
__Arg$ = 8						; size = 4
??$forward@AAUForceInfo@@@std@@YAAAUForceInfo@@AAU1@@Z PROC ; std::forward<ForceInfo &>, COMDAT

; 78   : 	{	// forward _Arg, given explicitly specified type parameter

  00000	55		 push	 ebp
  00001	8b ec		 mov	 ebp, esp

; 79   : 	return ((_Ty&&)_Arg);

  00003	8b 45 08	 mov	 eax, DWORD PTR __Arg$[ebp]

; 80   : 	}

  00006	5d		 pop	 ebp
  00007	c3		 ret	 0
??$forward@AAUForceInfo@@@std@@YAAAUForceInfo@@AAU1@@Z ENDP ; std::forward<ForceInfo &>
_TEXT	ENDS
PUBLIC	??$construct@AAUForceInfo@@@?$allocator@UForceInfo@@@std@@QAEXPAUForceInfo@@AAU2@@Z ; std::allocator<ForceInfo>::construct<ForceInfo &>
; Function compile flags: /Ogsp
; File c:\program files (x86)\microsoft visual studio 10.0\vc\include\xmemory
;	COMDAT ??$construct@AAUForceInfo@@@?$allocator@UForceInfo@@@std@@QAEXPAUForceInfo@@AAU2@@Z
_TEXT	SEGMENT
__Ptr$ = 8						; size = 4
__Val$ = 12						; size = 4
??$construct@AAUForceInfo@@@?$allocator@UForceInfo@@@std@@QAEXPAUForceInfo@@AAU2@@Z PROC ; std::allocator<ForceInfo>::construct<ForceInfo &>, COMDAT
; _this$ = ecx

; 206  : 		void construct(pointer _Ptr, _Other&& _Val)

  00000	55		 push	 ebp
  00001	8b ec		 mov	 ebp, esp
  00003	57		 push	 edi

; 207  : 		{	// construct object at _Ptr with value _Val
; 208  : 		::new ((void _FARQ *)_Ptr) _Ty(_STD forward<_Other>(_Val));

  00004	8b 7d 08	 mov	 edi, DWORD PTR __Ptr$[ebp]
  00007	85 ff		 test	 edi, edi
  00009	74 08		 je	 SHORT $LN3@construct
  0000b	56		 push	 esi
  0000c	8b 75 0c	 mov	 esi, DWORD PTR __Val$[ebp]
  0000f	a5		 movsd
  00010	a5		 movsd
  00011	a5		 movsd
  00012	5e		 pop	 esi
$LN3@construct:
  00013	5f		 pop	 edi

; 209  : 		}

  00014	5d		 pop	 ebp
  00015	c2 08 00	 ret	 8
??$construct@AAUForceInfo@@@?$allocator@UForceInfo@@@std@@QAEXPAUForceInfo@@AAU2@@Z ENDP ; std::allocator<ForceInfo>::construct<ForceInfo &>
_TEXT	ENDS
PUBLIC	??0WeaponInfo@@QAE@ABU0@@Z			; WeaponInfo::WeaponInfo
EXTRN	__imp_??0ioHashString@@QAE@ABV0@@Z:PROC
; Function compile flags: /Ogsp
;	COMDAT ??0WeaponInfo@@QAE@ABU0@@Z
_TEXT	SEGMENT
___that$ = 8						; size = 4
??0WeaponInfo@@QAE@ABU0@@Z PROC				; WeaponInfo::WeaponInfo, COMDAT
; _this$ = ecx
  00000	55		 push	 ebp
  00001	8b ec		 mov	 ebp, esp
  00003	56		 push	 esi
  00004	57		 push	 edi
  00005	8b 7d 08	 mov	 edi, DWORD PTR ___that$[ebp]
  00008	8b 07		 mov	 eax, DWORD PTR [edi]
  0000a	8b f1		 mov	 esi, ecx
  0000c	89 06		 mov	 DWORD PTR [esi], eax
  0000e	8b 47 04	 mov	 eax, DWORD PTR [edi+4]
  00011	89 46 04	 mov	 DWORD PTR [esi+4], eax
  00014	8d 47 08	 lea	 eax, DWORD PTR [edi+8]
  00017	50		 push	 eax
  00018	8d 4e 08	 lea	 ecx, DWORD PTR [esi+8]
  0001b	ff 15 00 00 00
	00		 call	 DWORD PTR __imp_??0ioHashString@@QAE@ABV0@@Z
  00021	8b 47 18	 mov	 eax, DWORD PTR [edi+24]
  00024	89 46 18	 mov	 DWORD PTR [esi+24], eax
  00027	8b 47 1c	 mov	 eax, DWORD PTR [edi+28]
  0002a	89 46 1c	 mov	 DWORD PTR [esi+28], eax
  0002d	8a 47 20	 mov	 al, BYTE PTR [edi+32]
  00030	88 46 20	 mov	 BYTE PTR [esi+32], al
  00033	8b 47 24	 mov	 eax, DWORD PTR [edi+36]
  00036	89 46 24	 mov	 DWORD PTR [esi+36], eax
  00039	5f		 pop	 edi
  0003a	8b c6		 mov	 eax, esi
  0003c	5e		 pop	 esi
  0003d	5d		 pop	 ebp
  0003e	c2 04 00	 ret	 4
??0WeaponInfo@@QAE@ABU0@@Z ENDP				; WeaponInfo::WeaponInfo
_TEXT	ENDS
PUBLIC	__real@4049000000000000
PUBLIC	__real@bf800000
PUBLIC	_pChar$GSCopy$
PUBLIC	__$ArrayPad$
PUBLIC	?SetSkillActionState@ioTargetFlowAttackSkill@@IAEXPAVioBaseChar@@PAVioPlayStage@@@Z ; ioTargetFlowAttackSkill::SetSkillActionState
EXTRN	?AttackSkillFire@ioAttackSkill@@MAEXPAVioBaseChar@@@Z:PROC ; ioAttackSkill::AttackSkillFire
EXTRN	_D3DXVec3Normalize@8:PROC
EXTRN	__imp_??D@YA?AUD3DXVECTOR3@@ABUD3DXQUATERNION@@ABU0@@Z:PROC
EXTRN	?ChangeSkillWeaponMesh@ioBaseChar@@QAE_NPAVioSkill@@ABVioHashString@@_N@Z:PROC ; ioBaseChar::ChangeSkillWeaponMesh
EXTRN	__imp_?IsEmpty@ioHashString@@QBE_NXZ:PROC
EXTRN	___security_cookie:DWORD
EXTRN	@__security_check_cookie@4:PROC
;	COMDAT __real@4049000000000000
; File c:\program files (x86)\microsoft directx sdk (june 2010)\include\d3dx9math.inl
CONST	SEGMENT
__real@4049000000000000 DQ 04049000000000000r	; 50
CONST	ENDS
;	COMDAT __real@bf800000
CONST	SEGMENT
__real@bf800000 DD 0bf800000r			; -1
; Function compile flags: /Ogsp
; File d:\lost saga for developer\youtube\tutorial\source\src\lsclient\iotargetflowattackskill.cpp
CONST	ENDS
;	COMDAT ?SetSkillActionState@ioTargetFlowAttackSkill@@IAEXPAVioBaseChar@@PAVioPlayStage@@@Z
_TEXT	SEGMENT
$T548648 = -44						; size = 12
_pChar$GSCopy$ = -32					; size = 4
_vDir$ = -28						; size = 12
$T548647 = -16						; size = 12
$T548645 = -16						; size = 12
__$ArrayPad$ = -4					; size = 4
_pChar$ = 8						; size = 4
_pStage$ = 12						; size = 4
?SetSkillActionState@ioTargetFlowAttackSkill@@IAEXPAVioBaseChar@@PAVioPlayStage@@@Z PROC ; ioTargetFlowAttackSkill::SetSkillActionState, COMDAT
; _this$ = ecx

; 191  : {

  00000	55		 push	 ebp
  00001	8b ec		 mov	 ebp, esp
  00003	83 ec 2c	 sub	 esp, 44			; 0000002cH
  00006	a1 00 00 00 00	 mov	 eax, DWORD PTR ___security_cookie
  0000b	33 c5		 xor	 eax, ebp
  0000d	89 45 fc	 mov	 DWORD PTR __$ArrayPad$[ebp], eax
  00010	53		 push	 ebx
  00011	56		 push	 esi
  00012	8b 75 08	 mov	 esi, DWORD PTR _pChar$[ebp]
  00015	8b d9		 mov	 ebx, ecx

; 192  : 	if( !m_bSetHandMesh && m_bUseItemMesh && !m_HandMesh.IsEmpty() )

  00017	80 bb 0a 0f 00
	00 00		 cmp	 BYTE PTR [ebx+3850], 0
  0001e	57		 push	 edi

; 196  : 	}
; 197  : 
; 198  : 	D3DXVECTOR3 vDir = pChar->GetTargetRot() * D3DXVECTOR3(0.0f, 0.0f, -1.0f);

  0001f	89 75 e0	 mov	 DWORD PTR _pChar$GSCopy$[ebp], esi
  00022	75 33		 jne	 SHORT $LN1@SetSkillAc

; 192  : 	if( !m_bSetHandMesh && m_bUseItemMesh && !m_HandMesh.IsEmpty() )

  00024	80 bb 08 0f 00
	00 00		 cmp	 BYTE PTR [ebx+3848], 0
  0002b	74 2a		 je	 SHORT $LN1@SetSkillAc
  0002d	8d bb f8 0e 00
	00		 lea	 edi, DWORD PTR [ebx+3832]
  00033	8b cf		 mov	 ecx, edi
  00035	ff 15 00 00 00
	00		 call	 DWORD PTR __imp_?IsEmpty@ioHashString@@QBE_NXZ
  0003b	84 c0		 test	 al, al
  0003d	75 18		 jne	 SHORT $LN1@SetSkillAc

; 193  : 	{
; 194  : 		pChar->ChangeSkillWeaponMesh( this, m_HandMesh, m_bVisibleEquipMesh );

  0003f	0f b6 83 09 0f
	00 00		 movzx	 eax, BYTE PTR [ebx+3849]
  00046	50		 push	 eax
  00047	57		 push	 edi
  00048	53		 push	 ebx
  00049	8b ce		 mov	 ecx, esi
  0004b	e8 00 00 00 00	 call	 ?ChangeSkillWeaponMesh@ioBaseChar@@QAE_NPAVioSkill@@ABVioHashString@@_N@Z ; ioBaseChar::ChangeSkillWeaponMesh

; 195  : 		m_bSetHandMesh = true;

  00050	c6 83 0a 0f 00
	00 01		 mov	 BYTE PTR [ebx+3850], 1
$LN1@SetSkillAc:

; 196  : 	}
; 197  : 
; 198  : 	D3DXVECTOR3 vDir = pChar->GetTargetRot() * D3DXVECTOR3(0.0f, 0.0f, -1.0f);

  00057	0f 57 c0	 xorps	 xmm0, xmm0
  0005a	8d 45 f0	 lea	 eax, DWORD PTR $T548645[ebp]
  0005d	50		 push	 eax
  0005e	8d 86 a4 06 00
	00		 lea	 eax, DWORD PTR [esi+1700]
  00064	50		 push	 eax
  00065	8d 45 e4	 lea	 eax, DWORD PTR _vDir$[ebp]
  00068	f3 0f 11 45 f0	 movss	 DWORD PTR $T548645[ebp], xmm0
  0006d	f3 0f 11 45 f4	 movss	 DWORD PTR $T548645[ebp+4], xmm0
  00072	f3 0f 10 05 00
	00 00 00	 movss	 xmm0, DWORD PTR __real@bf800000
  0007a	50		 push	 eax
  0007b	f3 0f 11 45 f8	 movss	 DWORD PTR $T548645[ebp+8], xmm0
  00080	ff 15 00 00 00
	00		 call	 DWORD PTR __imp_??D@YA?AUD3DXVECTOR3@@ABUD3DXQUATERNION@@ABU0@@Z
  00086	83 c4 0c	 add	 esp, 12			; 0000000cH

; 199  : 	D3DXVec3Normalize( &vDir, &vDir );

  00089	8d 45 e4	 lea	 eax, DWORD PTR _vDir$[ebp]
  0008c	50		 push	 eax
  0008d	50		 push	 eax
  0008e	e8 00 00 00 00	 call	 _D3DXVec3Normalize@8

; 200  : 	m_vFirePos = pChar->GetWorldPosition() + 50.0f * vDir;

  00093	f3 0f 10 45 e4	 movss	 xmm0, DWORD PTR _vDir$[ebp]
  00098	8b 06		 mov	 eax, DWORD PTR [esi]
  0009a	0f 5a c8	 cvtps2pd xmm1, xmm0
  0009d	f2 0f 10 05 00
	00 00 00	 movsd	 xmm0, QWORD PTR __real@4049000000000000
  000a5	f2 0f 59 c8	 mulsd	 xmm1, xmm0
  000a9	66 0f 5a c9	 cvtpd2ps xmm1, xmm1
  000ad	f3 0f 11 4d f0	 movss	 DWORD PTR $T548647[ebp], xmm1
  000b2	f3 0f 10 4d e8	 movss	 xmm1, DWORD PTR _vDir$[ebp+4]
  000b7	0f 5a c9	 cvtps2pd xmm1, xmm1
  000ba	f2 0f 59 c8	 mulsd	 xmm1, xmm0
  000be	66 0f 5a c9	 cvtpd2ps xmm1, xmm1
  000c2	f3 0f 11 4d f4	 movss	 DWORD PTR $T548647[ebp+4], xmm1
  000c7	f3 0f 10 4d ec	 movss	 xmm1, DWORD PTR _vDir$[ebp+8]
  000cc	0f 5a c9	 cvtps2pd xmm1, xmm1
  000cf	f2 0f 59 c8	 mulsd	 xmm1, xmm0
  000d3	0f 57 c0	 xorps	 xmm0, xmm0
  000d6	66 0f 5a c1	 cvtpd2ps xmm0, xmm1
  000da	8b ce		 mov	 ecx, esi
  000dc	f3 0f 11 45 f8	 movss	 DWORD PTR $T548647[ebp+8], xmm0
  000e1	ff 50 70	 call	 DWORD PTR [eax+112]
  000e4	f3 0f 10 00	 movss	 xmm0, DWORD PTR [eax]
  000e8	f3 0f 10 4d f0	 movss	 xmm1, DWORD PTR $T548647[ebp]
  000ed	0f 5a c0	 cvtps2pd xmm0, xmm0

; 201  : 
; 202  : 	ioAttackSkill::AttackSkillFire( pChar );

  000f0	ff 75 e0	 push	 DWORD PTR _pChar$GSCopy$[ebp]
  000f3	0f 5a c9	 cvtps2pd xmm1, xmm1
  000f6	f2 0f 58 c1	 addsd	 xmm0, xmm1
  000fa	f3 0f 10 4d f4	 movss	 xmm1, DWORD PTR $T548647[ebp+4]
  000ff	66 0f 5a c0	 cvtpd2ps xmm0, xmm0
  00103	f3 0f 11 45 d4	 movss	 DWORD PTR $T548648[ebp], xmm0
  00108	f3 0f 10 40 04	 movss	 xmm0, DWORD PTR [eax+4]
  0010d	0f 5a c0	 cvtps2pd xmm0, xmm0
  00110	0f 5a c9	 cvtps2pd xmm1, xmm1
  00113	f2 0f 58 c1	 addsd	 xmm0, xmm1
  00117	f3 0f 10 4d f8	 movss	 xmm1, DWORD PTR $T548647[ebp+8]
  0011c	66 0f 5a c0	 cvtpd2ps xmm0, xmm0
  00120	f3 0f 11 45 d8	 movss	 DWORD PTR $T548648[ebp+4], xmm0
  00125	f3 0f 10 40 08	 movss	 xmm0, DWORD PTR [eax+8]
  0012a	0f 5a c0	 cvtps2pd xmm0, xmm0
  0012d	0f 5a c9	 cvtps2pd xmm1, xmm1
  00130	f2 0f 58 c1	 addsd	 xmm0, xmm1
  00134	66 0f 5a c0	 cvtpd2ps xmm0, xmm0
  00138	f3 0f 11 45 dc	 movss	 DWORD PTR $T548648[ebp+8], xmm0
  0013d	8d bb 10 11 00
	00		 lea	 edi, DWORD PTR [ebx+4368]
  00143	8d 75 d4	 lea	 esi, DWORD PTR $T548648[ebp]
  00146	a5		 movsd
  00147	a5		 movsd
  00148	8b cb		 mov	 ecx, ebx
  0014a	a5		 movsd
  0014b	e8 00 00 00 00	 call	 ?AttackSkillFire@ioAttackSkill@@MAEXPAVioBaseChar@@@Z ; ioAttackSkill::AttackSkillFire

; 203  : 	m_SkillState = SS_TARGET_FLOW;
; 204  : }

  00150	8b 4d fc	 mov	 ecx, DWORD PTR __$ArrayPad$[ebp]
  00153	5f		 pop	 edi
  00154	5e		 pop	 esi
  00155	c7 83 e4 10 00
	00 01 00 00 00	 mov	 DWORD PTR [ebx+4324], 1
  0015f	33 cd		 xor	 ecx, ebp
  00161	5b		 pop	 ebx
  00162	e8 00 00 00 00	 call	 @__security_check_cookie@4
  00167	c9		 leave
  00168	c2 08 00	 ret	 8
?SetSkillActionState@ioTargetFlowAttackSkill@@IAEXPAVioBaseChar@@PAVioPlayStage@@@Z ENDP ; ioTargetFlowAttackSkill::SetSkillActionState
_TEXT	ENDS
PUBLIC	_this$GSCopy$
PUBLIC	__$ArrayPad$
PUBLIC	?SetTeleportState@ioTargetFlowAttackSkill@@IAEXPAVioBaseChar@@PAVioPlayStage@@@Z ; ioTargetFlowAttackSkill::SetTeleportState
EXTRN	??1FD_BuffHasTarget@@UAE@XZ:PROC		; FD_BuffHasTarget::~FD_BuffHasTarget
EXTRN	??1SP2Packet@@UAE@XZ:PROC			; SP2Packet::~SP2Packet
EXTRN	?SendToAllPlayingUser@P2PNetwork@@YAXAAVSP2Packet@@PAVioBaseChar@@@Z:PROC ; P2PNetwork::SendToAllPlayingUser
EXTRN	??6SP2Packet@@QAEAAV0@ABUD3DXQUATERNION@@@Z:PROC ; SP2Packet::operator<<
EXTRN	??6SP2Packet@@QAEAAV0@ABUD3DXVECTOR3@@@Z:PROC	; SP2Packet::operator<<
EXTRN	??6SP2Packet@@QAEAAV0@H@Z:PROC			; SP2Packet::operator<<
EXTRN	??6SP2Packet@@QAEAAV0@ABVioHashString@@@Z:PROC	; SP2Packet::operator<<
EXTRN	??0SP2Packet@@QAE@K@Z:PROC			; SP2Packet::SP2Packet
EXTRN	?FindUser@ioPlayStage@@QAEPAVioBaseChar@@AAVFindPredicate@@@Z:PROC ; ioPlayStage::FindUser
EXTRN	??0FD_BuffHasTarget@@QAE@PBVioBaseChar@@ABVioHashString@@MM_N2@Z:PROC ; FD_BuffHasTarget::FD_BuffHasTarget
EXTRN	___CxxFrameHandler3:PROC
EXTRN	__chkstk:PROC
;	COMDAT xdata$x
; File d:\lost saga for developer\youtube\tutorial\source\src\lsclient\iobasechar.h
xdata$x	SEGMENT
__unwindtable$?SetTeleportState@ioTargetFlowAttackSkill@@IAEXPAVioBaseChar@@PAVioPlayStage@@@Z DD 0ffffffffH
	DD	FLAT:__unwindfunclet$?SetTeleportState@ioTargetFlowAttackSkill@@IAEXPAVioBaseChar@@PAVioPlayStage@@@Z$0
	DD	00H
	DD	FLAT:__unwindfunclet$?SetTeleportState@ioTargetFlowAttackSkill@@IAEXPAVioBaseChar@@PAVioPlayStage@@@Z$1
	DD	00H
	DD	FLAT:__unwindfunclet$?SetTeleportState@ioTargetFlowAttackSkill@@IAEXPAVioBaseChar@@PAVioPlayStage@@@Z$2
__ehfuncinfo$?SetTeleportState@ioTargetFlowAttackSkill@@IAEXPAVioBaseChar@@PAVioPlayStage@@@Z DD 019930522H
	DD	03H
	DD	FLAT:__unwindtable$?SetTeleportState@ioTargetFlowAttackSkill@@IAEXPAVioBaseChar@@PAVioPlayStage@@@Z
	DD	2 DUP(00H)
	DD	2 DUP(00H)
	DD	00H
	DD	01H
; Function compile flags: /Ogsp
; File d:\lost saga for developer\youtube\tutorial\source\src\lsclient\iotargetflowattackskill.cpp
xdata$x	ENDS
;	COMDAT ?SetTeleportState@ioTargetFlowAttackSkill@@IAEXPAVioBaseChar@@PAVioPlayStage@@@Z
_TEXT	SEGMENT
_kFindPred$ = -32888					; size = 36
_this$GSCopy$ = -32852					; size = 4
tv429 = -32848						; size = 4
_kPacket$548669 = -32844				; size = 32792
_kPacket$548665 = -32844				; size = 32792
$T548660 = -52						; size = 12
_vDir$548659 = -40					; size = 12
_vPos$548662 = -28					; size = 12
__$ArrayPad$ = -16					; size = 4
__$EHRec$ = -12						; size = 12
_pChar$ = 8						; size = 4
_pStage$ = 12						; size = 4
?SetTeleportState@ioTargetFlowAttackSkill@@IAEXPAVioBaseChar@@PAVioPlayStage@@@Z PROC ; ioTargetFlowAttackSkill::SetTeleportState, COMDAT
; _this$ = ecx

; 207  : {

  00000	55		 push	 ebp
  00001	8b ec		 mov	 ebp, esp
  00003	6a ff		 push	 -1
  00005	68 00 00 00 00	 push	 __ehhandler$?SetTeleportState@ioTargetFlowAttackSkill@@IAEXPAVioBaseChar@@PAVioPlayStage@@@Z
  0000a	64 a1 00 00 00
	00		 mov	 eax, DWORD PTR fs:0
  00010	50		 push	 eax
  00011	b8 6c 80 00 00	 mov	 eax, 32876		; 0000806cH
  00016	e8 00 00 00 00	 call	 __chkstk
  0001b	a1 00 00 00 00	 mov	 eax, DWORD PTR ___security_cookie
  00020	33 c5		 xor	 eax, ebp
  00022	89 45 f0	 mov	 DWORD PTR __$ArrayPad$[ebp], eax
  00025	53		 push	 ebx
  00026	56		 push	 esi
  00027	57		 push	 edi
  00028	50		 push	 eax
  00029	8d 45 f4	 lea	 eax, DWORD PTR __$EHRec$[ebp]
  0002c	64 a3 00 00 00
	00		 mov	 DWORD PTR fs:0, eax
  00032	8b 5d 08	 mov	 ebx, DWORD PTR _pChar$[ebp]

; 208  : 	if( !pChar )

  00035	33 ff		 xor	 edi, edi
  00037	8b f1		 mov	 esi, ecx

; 243  : 		{
; 244  : 			SP2Packet kPacket( CUPK_SKILL_EXTRA_INFO );

  00039	89 b5 ac 7f ff
	ff		 mov	 DWORD PTR _this$GSCopy$[ebp], esi
  0003f	3b df		 cmp	 ebx, edi
  00041	0f 84 a1 02 00
	00		 je	 $LN7@SetTelepor

; 209  : 		return;
; 210  : 
; 211  : 	if( !pStage )

  00047	39 7d 0c	 cmp	 DWORD PTR _pStage$[ebp], edi
  0004a	0f 84 98 02 00
	00		 je	 $LN7@SetTelepor

; 212  : 		return;
; 213  : 
; 214  : 	FD_BuffHasTarget kFindPred( pChar, m_szTargetBuff, m_fTargetMaxRange, m_fTargetMinRange, false );

  00050	f3 0f 10 86 fc
	10 00 00	 movss	 xmm0, DWORD PTR [esi+4348]
  00058	6a 01		 push	 1
  0005a	57		 push	 edi
  0005b	51		 push	 ecx
  0005c	51		 push	 ecx
  0005d	f3 0f 11 44 24
	04		 movss	 DWORD PTR [esp+4], xmm0
  00063	f3 0f 10 86 f8
	10 00 00	 movss	 xmm0, DWORD PTR [esi+4344]
  0006b	f3 0f 11 04 24	 movss	 DWORD PTR [esp], xmm0
  00070	8d 86 e8 10 00
	00		 lea	 eax, DWORD PTR [esi+4328]
  00076	50		 push	 eax
  00077	53		 push	 ebx
  00078	8d 8d 88 7f ff
	ff		 lea	 ecx, DWORD PTR _kFindPred$[ebp]
  0007e	e8 00 00 00 00	 call	 ??0FD_BuffHasTarget@@QAE@PBVioBaseChar@@ABVioHashString@@MM_N2@Z ; FD_BuffHasTarget::FD_BuffHasTarget

; 215  : 	ioBaseChar *pTarget = pChar->GetCreator()->FindUser( kFindPred );

  00083	8b 8b 44 03 00
	00		 mov	 ecx, DWORD PTR [ebx+836]
  00089	8d 85 88 7f ff
	ff		 lea	 eax, DWORD PTR _kFindPred$[ebp]
  0008f	50		 push	 eax
  00090	89 7d fc	 mov	 DWORD PTR __$EHRec$[ebp+8], edi
  00093	e8 00 00 00 00	 call	 ?FindUser@ioPlayStage@@QAEPAVioBaseChar@@AAVFindPredicate@@@Z ; ioPlayStage::FindUser

; 216  : 	if( pTarget )

  00098	3b c7		 cmp	 eax, edi
  0009a	0f 84 98 01 00
	00		 je	 $LN4@SetTelepor

; 217  : 	{
; 218  : 		D3DXVECTOR3 vDir = pChar->GetTargetRot() * D3DXVECTOR3(0.0f, 0.0f, -1.0f);

  000a0	0f 57 c0	 xorps	 xmm0, xmm0
  000a3	8d 4d cc	 lea	 ecx, DWORD PTR $T548660[ebp]
  000a6	8d 83 a4 06 00
	00		 lea	 eax, DWORD PTR [ebx+1700]
  000ac	51		 push	 ecx
  000ad	50		 push	 eax
  000ae	89 85 b0 7f ff
	ff		 mov	 DWORD PTR tv429[ebp], eax
  000b4	8d 45 d8	 lea	 eax, DWORD PTR _vDir$548659[ebp]
  000b7	f3 0f 11 45 cc	 movss	 DWORD PTR $T548660[ebp], xmm0
  000bc	f3 0f 11 45 d0	 movss	 DWORD PTR $T548660[ebp+4], xmm0
  000c1	f3 0f 10 05 00
	00 00 00	 movss	 xmm0, DWORD PTR __real@bf800000
  000c9	50		 push	 eax
  000ca	f3 0f 11 45 d4	 movss	 DWORD PTR $T548660[ebp+8], xmm0
  000cf	ff 15 00 00 00
	00		 call	 DWORD PTR __imp_??D@YA?AUD3DXVECTOR3@@ABUD3DXQUATERNION@@ABU0@@Z
  000d5	83 c4 0c	 add	 esp, 12			; 0000000cH

; 219  : 		D3DXVec3Normalize( &vDir, &vDir );

  000d8	8d 45 d8	 lea	 eax, DWORD PTR _vDir$548659[ebp]
  000db	50		 push	 eax
  000dc	50		 push	 eax
  000dd	e8 00 00 00 00	 call	 _D3DXVec3Normalize@8

; 220  : 
; 221  : 		D3DXVECTOR3 vPos = pChar->GetWorldPosition();

  000e2	8b 03		 mov	 eax, DWORD PTR [ebx]
  000e4	8b cb		 mov	 ecx, ebx
  000e6	ff 50 70	 call	 DWORD PTR [eax+112]

; 222  : 		vPos.y	+= m_fTeleportOffsetYRange;		
; 223  : 		vPos	+= vDir * m_fTeleportOffsetZRange;

  000e9	f3 0f 10 5d d8	 movss	 xmm3, DWORD PTR _vDir$548659[ebp]
  000ee	8b f0		 mov	 esi, eax
  000f0	8d 7d e4	 lea	 edi, DWORD PTR _vPos$548662[ebp]
  000f3	a5		 movsd
  000f4	a5		 movsd
  000f5	a5		 movsd
  000f6	8b b5 ac 7f ff
	ff		 mov	 esi, DWORD PTR _this$GSCopy$[ebp]
  000fc	f3 0f 10 4d e8	 movss	 xmm1, DWORD PTR _vPos$548662[ebp+4]
  00101	f3 0f 10 86 00
	11 00 00	 movss	 xmm0, DWORD PTR [esi+4352]
  00109	0f 5a c9	 cvtps2pd xmm1, xmm1
  0010c	0f 5a c0	 cvtps2pd xmm0, xmm0
  0010f	f2 0f 58 c1	 addsd	 xmm0, xmm1
  00113	0f 57 c9	 xorps	 xmm1, xmm1
  00116	66 0f 5a c8	 cvtpd2ps xmm1, xmm0
  0011a	f3 0f 10 86 04
	11 00 00	 movss	 xmm0, DWORD PTR [esi+4356]
  00122	0f 5a d0	 cvtps2pd xmm2, xmm0
  00125	0f 5a e0	 cvtps2pd xmm4, xmm0

; 224  : 		pChar->SetWorldPosition( vPos );

  00128	8b 03		 mov	 eax, DWORD PTR [ebx]
  0012a	0f 5a db	 cvtps2pd xmm3, xmm3
  0012d	f2 0f 59 d3	 mulsd	 xmm2, xmm3
  00131	f3 0f 10 5d dc	 movss	 xmm3, DWORD PTR _vDir$548659[ebp+4]
  00136	0f 5a db	 cvtps2pd xmm3, xmm3
  00139	f2 0f 59 dc	 mulsd	 xmm3, xmm4
  0013d	f3 0f 10 65 e0	 movss	 xmm4, DWORD PTR _vDir$548659[ebp+8]
  00142	0f 5a c0	 cvtps2pd xmm0, xmm0
  00145	0f 5a e4	 cvtps2pd xmm4, xmm4
  00148	f2 0f 59 e0	 mulsd	 xmm4, xmm0
  0014c	66 0f 5a d2	 cvtpd2ps xmm2, xmm2
  00150	0f 57 c0	 xorps	 xmm0, xmm0
  00153	66 0f 5a c4	 cvtpd2ps xmm0, xmm4
  00157	f3 0f 10 65 e4	 movss	 xmm4, DWORD PTR _vPos$548662[ebp]
  0015c	f3 0f 5a d2	 cvtss2sd xmm2, xmm2
  00160	0f 5a e4	 cvtps2pd xmm4, xmm4
  00163	f2 0f 58 d4	 addsd	 xmm2, xmm4
  00167	66 0f 5a d2	 cvtpd2ps xmm2, xmm2
  0016b	0f 5a c9	 cvtps2pd xmm1, xmm1
  0016e	f3 0f 11 55 e4	 movss	 DWORD PTR _vPos$548662[ebp], xmm2
  00173	0f 57 d2	 xorps	 xmm2, xmm2
  00176	66 0f 5a db	 cvtpd2ps xmm3, xmm3
  0017a	f3 0f 5a d3	 cvtss2sd xmm2, xmm3
  0017e	f2 0f 58 d1	 addsd	 xmm2, xmm1
  00182	0f 57 c9	 xorps	 xmm1, xmm1
  00185	66 0f 5a ca	 cvtpd2ps xmm1, xmm2
  00189	0f 5a c0	 cvtps2pd xmm0, xmm0
  0018c	f3 0f 11 4d e8	 movss	 DWORD PTR _vPos$548662[ebp+4], xmm1
  00191	f3 0f 10 4d ec	 movss	 xmm1, DWORD PTR _vPos$548662[ebp+8]
  00196	8d 4d e4	 lea	 ecx, DWORD PTR _vPos$548662[ebp]
  00199	0f 5a c9	 cvtps2pd xmm1, xmm1
  0019c	f2 0f 58 c8	 addsd	 xmm1, xmm0
  001a0	51		 push	 ecx
  001a1	66 0f 5a c1	 cvtpd2ps xmm0, xmm1
  001a5	8b cb		 mov	 ecx, ebx
  001a7	f3 0f 11 45 ec	 movss	 DWORD PTR _vPos$548662[ebp+8], xmm0
  001ac	ff 50 44	 call	 DWORD PTR [eax+68]

; 225  : 		m_SkillState = SS_TELEPORT;

  001af	c7 86 e4 10 00
	00 02 00 00 00	 mov	 DWORD PTR [esi+4324], 2

; 226  : 
; 227  : 		if( pChar->IsNeedSendNetwork() )

  001b9	8b 03		 mov	 eax, DWORD PTR [ebx]
  001bb	8b cb		 mov	 ecx, ebx
  001bd	ff 90 04 01 00
	00		 call	 DWORD PTR [eax+260]
  001c3	84 c0		 test	 al, al
  001c5	0f 84 0e 01 00
	00		 je	 $LN1@SetTelepor

; 228  : 		{
; 229  : 			SP2Packet kPacket( CUPK_SKILL_EXTRA_INFO );

  001cb	68 39 41 00 00	 push	 16697			; 00004139H
  001d0	8d 8d b4 7f ff
	ff		 lea	 ecx, DWORD PTR _kPacket$548665[ebp]
  001d6	e8 00 00 00 00	 call	 ??0SP2Packet@@QAE@K@Z	; SP2Packet::SP2Packet

; 230  : 			kPacket << pChar->GetCharName();

  001db	8d 83 d4 02 00
	00		 lea	 eax, DWORD PTR [ebx+724]
  001e1	50		 push	 eax
  001e2	8d 8d b4 7f ff
	ff		 lea	 ecx, DWORD PTR _kPacket$548665[ebp]
  001e8	c6 45 fc 01	 mov	 BYTE PTR __$EHRec$[ebp+8], 1
  001ec	e8 00 00 00 00	 call	 ??6SP2Packet@@QAEAAV0@ABVioHashString@@@Z ; SP2Packet::operator<<

; 231  : 			kPacket << GetName();

  001f1	83 c6 24	 add	 esi, 36			; 00000024H
  001f4	56		 push	 esi
  001f5	8d 8d b4 7f ff
	ff		 lea	 ecx, DWORD PTR _kPacket$548665[ebp]
  001fb	e8 00 00 00 00	 call	 ??6SP2Packet@@QAEAAV0@ABVioHashString@@@Z ; SP2Packet::operator<<

; 232  : 			kPacket << (int)SSS_TELEPORT;

  00200	6a 00		 push	 0
  00202	8d 8d b4 7f ff
	ff		 lea	 ecx, DWORD PTR _kPacket$548665[ebp]
  00208	e8 00 00 00 00	 call	 ??6SP2Packet@@QAEAAV0@H@Z ; SP2Packet::operator<<

; 233  : 			kPacket << pChar->GetWorldPosition();

  0020d	8b 03		 mov	 eax, DWORD PTR [ebx]
  0020f	8b cb		 mov	 ecx, ebx
  00211	ff 50 70	 call	 DWORD PTR [eax+112]
  00214	50		 push	 eax
  00215	8d 8d b4 7f ff
	ff		 lea	 ecx, DWORD PTR _kPacket$548665[ebp]
  0021b	e8 00 00 00 00	 call	 ??6SP2Packet@@QAEAAV0@ABUD3DXVECTOR3@@@Z ; SP2Packet::operator<<

; 234  : 			kPacket << pChar->GetTargetRot();

  00220	ff b5 b0 7f ff
	ff		 push	 DWORD PTR tv429[ebp]
  00226	8d 8d b4 7f ff
	ff		 lea	 ecx, DWORD PTR _kPacket$548665[ebp]
  0022c	e8 00 00 00 00	 call	 ??6SP2Packet@@QAEAAV0@ABUD3DXQUATERNION@@@Z ; SP2Packet::operator<<

; 235  : 			P2PNetwork::SendToAllPlayingUser( kPacket );

  00231	6a 00		 push	 0

; 236  : 		}
; 237  : 	}
; 238  : 	else

  00233	e9 84 00 00 00	 jmp	 $LN37@SetTelepor
$LN4@SetTelepor:

; 239  : 	{
; 240  : 		m_SkillState = SS_END;

  00238	c7 86 e4 10 00
	00 04 00 00 00	 mov	 DWORD PTR [esi+4324], 4

; 241  : 
; 242  : 		if( pChar->IsNeedSendNetwork() )

  00242	8b 03		 mov	 eax, DWORD PTR [ebx]
  00244	8b cb		 mov	 ecx, ebx
  00246	ff 90 04 01 00
	00		 call	 DWORD PTR [eax+260]
  0024c	84 c0		 test	 al, al
  0024e	0f 84 85 00 00
	00		 je	 $LN1@SetTelepor

; 243  : 		{
; 244  : 			SP2Packet kPacket( CUPK_SKILL_EXTRA_INFO );

  00254	68 39 41 00 00	 push	 16697			; 00004139H
  00259	8d 8d b4 7f ff
	ff		 lea	 ecx, DWORD PTR _kPacket$548669[ebp]
  0025f	e8 00 00 00 00	 call	 ??0SP2Packet@@QAE@K@Z	; SP2Packet::SP2Packet

; 245  : 			kPacket << pChar->GetCharName();

  00264	8d 83 d4 02 00
	00		 lea	 eax, DWORD PTR [ebx+724]
  0026a	50		 push	 eax
  0026b	8d 8d b4 7f ff
	ff		 lea	 ecx, DWORD PTR _kPacket$548669[ebp]
  00271	c6 45 fc 02	 mov	 BYTE PTR __$EHRec$[ebp+8], 2
  00275	e8 00 00 00 00	 call	 ??6SP2Packet@@QAEAAV0@ABVioHashString@@@Z ; SP2Packet::operator<<

; 246  : 			kPacket << GetName();

  0027a	83 c6 24	 add	 esi, 36			; 00000024H
  0027d	56		 push	 esi
  0027e	8d 8d b4 7f ff
	ff		 lea	 ecx, DWORD PTR _kPacket$548669[ebp]
  00284	e8 00 00 00 00	 call	 ??6SP2Packet@@QAEAAV0@ABVioHashString@@@Z ; SP2Packet::operator<<

; 247  : 			kPacket << (int)SSS_END;

  00289	6a 02		 push	 2
  0028b	8d 8d b4 7f ff
	ff		 lea	 ecx, DWORD PTR _kPacket$548669[ebp]
  00291	e8 00 00 00 00	 call	 ??6SP2Packet@@QAEAAV0@H@Z ; SP2Packet::operator<<

; 248  : 			kPacket << pChar->GetWorldPosition();

  00296	8b 03		 mov	 eax, DWORD PTR [ebx]
  00298	8b cb		 mov	 ecx, ebx
  0029a	ff 50 70	 call	 DWORD PTR [eax+112]
  0029d	50		 push	 eax
  0029e	8d 8d b4 7f ff
	ff		 lea	 ecx, DWORD PTR _kPacket$548669[ebp]
  002a4	e8 00 00 00 00	 call	 ??6SP2Packet@@QAEAAV0@ABUD3DXVECTOR3@@@Z ; SP2Packet::operator<<

; 249  : 			kPacket << pChar->GetTargetRot();

  002a9	81 c3 a4 06 00
	00		 add	 ebx, 1700		; 000006a4H
  002af	53		 push	 ebx
  002b0	8d 8d b4 7f ff
	ff		 lea	 ecx, DWORD PTR _kPacket$548669[ebp]
  002b6	e8 00 00 00 00	 call	 ??6SP2Packet@@QAEAAV0@ABUD3DXQUATERNION@@@Z ; SP2Packet::operator<<

; 250  : 			P2PNetwork::SendToAllPlayingUser( kPacket );

  002bb	57		 push	 edi
$LN37@SetTelepor:
  002bc	8d 85 b4 7f ff
	ff		 lea	 eax, DWORD PTR _kPacket$548669[ebp]
  002c2	50		 push	 eax
  002c3	e8 00 00 00 00	 call	 ?SendToAllPlayingUser@P2PNetwork@@YAXAAVSP2Packet@@PAVioBaseChar@@@Z ; P2PNetwork::SendToAllPlayingUser
  002c8	59		 pop	 ecx
  002c9	59		 pop	 ecx

; 251  : 		}

  002ca	8d 8d b4 7f ff
	ff		 lea	 ecx, DWORD PTR _kPacket$548669[ebp]
  002d0	c6 45 fc 00	 mov	 BYTE PTR __$EHRec$[ebp+8], 0
  002d4	e8 00 00 00 00	 call	 ??1SP2Packet@@UAE@XZ	; SP2Packet::~SP2Packet
$LN1@SetTelepor:

; 252  : 	}
; 253  : }

  002d9	83 4d fc ff	 or	 DWORD PTR __$EHRec$[ebp+8], -1
  002dd	8d 8d 88 7f ff
	ff		 lea	 ecx, DWORD PTR _kFindPred$[ebp]
  002e3	e8 00 00 00 00	 call	 ??1FD_BuffHasTarget@@UAE@XZ ; FD_BuffHasTarget::~FD_BuffHasTarget
$LN7@SetTelepor:
  002e8	8b 4d f4	 mov	 ecx, DWORD PTR __$EHRec$[ebp]
  002eb	64 89 0d 00 00
	00 00		 mov	 DWORD PTR fs:0, ecx
  002f2	59		 pop	 ecx
  002f3	5f		 pop	 edi
  002f4	5e		 pop	 esi
  002f5	5b		 pop	 ebx
  002f6	8b 4d f0	 mov	 ecx, DWORD PTR __$ArrayPad$[ebp]
  002f9	33 cd		 xor	 ecx, ebp
  002fb	e8 00 00 00 00	 call	 @__security_check_cookie@4
  00300	c9		 leave
  00301	c2 08 00	 ret	 8
_TEXT	ENDS
;	COMDAT text$x
text$x	SEGMENT
__unwindfunclet$?SetTeleportState@ioTargetFlowAttackSkill@@IAEXPAVioBaseChar@@PAVioPlayStage@@@Z$0:
  00000	8d 8d 88 7f ff
	ff		 lea	 ecx, DWORD PTR _kFindPred$[ebp]
  00006	e9 00 00 00 00	 jmp	 ??1FD_BuffHasTarget@@UAE@XZ ; FD_BuffHasTarget::~FD_BuffHasTarget
__unwindfunclet$?SetTeleportState@ioTargetFlowAttackSkill@@IAEXPAVioBaseChar@@PAVioPlayStage@@@Z$1:
  0000b	8d 8d b4 7f ff
	ff		 lea	 ecx, DWORD PTR _kPacket$548665[ebp]
  00011	e9 00 00 00 00	 jmp	 ??1SP2Packet@@UAE@XZ	; SP2Packet::~SP2Packet
__unwindfunclet$?SetTeleportState@ioTargetFlowAttackSkill@@IAEXPAVioBaseChar@@PAVioPlayStage@@@Z$2:
  00016	8d 8d b4 7f ff
	ff		 lea	 ecx, DWORD PTR _kPacket$548669[ebp]
  0001c	e9 00 00 00 00	 jmp	 ??1SP2Packet@@UAE@XZ	; SP2Packet::~SP2Packet
__ehhandler$?SetTeleportState@ioTargetFlowAttackSkill@@IAEXPAVioBaseChar@@PAVioPlayStage@@@Z:
  00021	8b 54 24 08	 mov	 edx, DWORD PTR [esp+8]
  00025	8d 42 0c	 lea	 eax, DWORD PTR [edx+12]
  00028	8b 8a 84 7f ff
	ff		 mov	 ecx, DWORD PTR [edx-32892]
  0002e	33 c8		 xor	 ecx, eax
  00030	e8 00 00 00 00	 call	 @__security_check_cookie@4
  00035	8b 4a fc	 mov	 ecx, DWORD PTR [edx-4]
  00038	33 c8		 xor	 ecx, eax
  0003a	e8 00 00 00 00	 call	 @__security_check_cookie@4
  0003f	b8 00 00 00 00	 mov	 eax, OFFSET __ehfuncinfo$?SetTeleportState@ioTargetFlowAttackSkill@@IAEXPAVioBaseChar@@PAVioPlayStage@@@Z
  00044	e9 00 00 00 00	 jmp	 ___CxxFrameHandler3
text$x	ENDS
?SetTeleportState@ioTargetFlowAttackSkill@@IAEXPAVioBaseChar@@PAVioPlayStage@@@Z ENDP ; ioTargetFlowAttackSkill::SetTeleportState
PUBLIC	__$ArrayPad$
PUBLIC	?SetLinerComoboState@ioTargetFlowAttackSkill@@IAEXPAVioBaseChar@@PAVioPlayStage@@@Z ; ioTargetFlowAttackSkill::SetLinerComoboState
EXTRN	?SetTargetRotToDirKey@ioBaseChar@@QAEXW4DirKeyInput@ioUserKeyInput@@@Z:PROC ; ioBaseChar::SetTargetRotToDirKey
;	COMDAT xdata$x
; File d:\lost saga for developer\youtube\tutorial\source\src\lsclient\iobasechar.h
xdata$x	SEGMENT
__unwindtable$?SetLinerComoboState@ioTargetFlowAttackSkill@@IAEXPAVioBaseChar@@PAVioPlayStage@@@Z DD 0ffffffffH
	DD	FLAT:__unwindfunclet$?SetLinerComoboState@ioTargetFlowAttackSkill@@IAEXPAVioBaseChar@@PAVioPlayStage@@@Z$0
__ehfuncinfo$?SetLinerComoboState@ioTargetFlowAttackSkill@@IAEXPAVioBaseChar@@PAVioPlayStage@@@Z DD 019930522H
	DD	01H
	DD	FLAT:__unwindtable$?SetLinerComoboState@ioTargetFlowAttackSkill@@IAEXPAVioBaseChar@@PAVioPlayStage@@@Z
	DD	2 DUP(00H)
	DD	2 DUP(00H)
	DD	00H
	DD	01H
; Function compile flags: /Ogsp
; File d:\lost saga for developer\youtube\tutorial\source\src\lsclient\iotargetflowattackskill.cpp
xdata$x	ENDS
;	COMDAT ?SetLinerComoboState@ioTargetFlowAttackSkill@@IAEXPAVioBaseChar@@PAVioPlayStage@@@Z
_TEXT	SEGMENT
_kPacket$548683 = -32808				; size = 32792
__$ArrayPad$ = -16					; size = 4
__$EHRec$ = -12						; size = 12
_pChar$ = 8						; size = 4
_pStage$ = 12						; size = 4
?SetLinerComoboState@ioTargetFlowAttackSkill@@IAEXPAVioBaseChar@@PAVioPlayStage@@@Z PROC ; ioTargetFlowAttackSkill::SetLinerComoboState, COMDAT
; _this$ = ecx

; 256  : {

  00000	55		 push	 ebp
  00001	8b ec		 mov	 ebp, esp
  00003	6a ff		 push	 -1
  00005	68 00 00 00 00	 push	 __ehhandler$?SetLinerComoboState@ioTargetFlowAttackSkill@@IAEXPAVioBaseChar@@PAVioPlayStage@@@Z
  0000a	64 a1 00 00 00
	00		 mov	 eax, DWORD PTR fs:0
  00010	50		 push	 eax
  00011	b8 1c 80 00 00	 mov	 eax, 32796		; 0000801cH
  00016	e8 00 00 00 00	 call	 __chkstk
  0001b	a1 00 00 00 00	 mov	 eax, DWORD PTR ___security_cookie
  00020	33 c5		 xor	 eax, ebp
  00022	89 45 f0	 mov	 DWORD PTR __$ArrayPad$[ebp], eax
  00025	53		 push	 ebx
  00026	56		 push	 esi
  00027	57		 push	 edi
  00028	50		 push	 eax
  00029	8d 45 f4	 lea	 eax, DWORD PTR __$EHRec$[ebp]
  0002c	64 a3 00 00 00
	00		 mov	 DWORD PTR fs:0, eax
  00032	8b 7d 08	 mov	 edi, DWORD PTR _pChar$[ebp]
  00035	8b f1		 mov	 esi, ecx

; 257  : 	m_SkillState		= SS_ATTACK;
; 258  : 	m_bNextLinerCombo	= false;
; 259  : 
; 260  : 	if( COMPARE( m_iLinerComoboIndex, 0, (int)m_AttackAttributeList.size() ) )

  00037	8b 8e 80 11 00
	00		 mov	 ecx, DWORD PTR [esi+4480]
  0003d	c7 86 e4 10 00
	00 03 00 00 00	 mov	 DWORD PTR [esi+4324], 3
  00047	c6 86 08 11 00
	00 00		 mov	 BYTE PTR [esi+4360], 0
  0004e	85 c9		 test	 ecx, ecx
  00050	78 4e		 js	 SHORT $LN5@SetLinerCo
  00052	8b 86 20 11 00
	00		 mov	 eax, DWORD PTR [esi+4384]
  00058	2b 86 1c 11 00
	00		 sub	 eax, DWORD PTR [esi+4380]
  0005e	6a 50		 push	 80			; 00000050H
  00060	99		 cdq
  00061	5b		 pop	 ebx
  00062	f7 fb		 idiv	 ebx
  00064	3b c8		 cmp	 ecx, eax
  00066	7d 38		 jge	 SHORT $LN5@SetLinerCo

; 261  : 	{
; 262  : 		if( m_eCurrDirKey != ioUserKeyInput::DKI_NONE && m_iLinerComoboIndex + 1 == (int)m_AttackAttributeList.size() )

  00068	8b 96 84 11 00
	00		 mov	 edx, DWORD PTR [esi+4484]
  0006e	85 d2		 test	 edx, edx
  00070	74 1d		 je	 SHORT $LN4@SetLinerCo
  00072	8d 59 01	 lea	 ebx, DWORD PTR [ecx+1]
  00075	3b d8		 cmp	 ebx, eax
  00077	75 16		 jne	 SHORT $LN4@SetLinerCo

; 263  : 		{
; 264  : 			m_pCurAttribute = &m_FinishAttribute;

  00079	8d 86 2c 11 00
	00		 lea	 eax, DWORD PTR [esi+4396]

; 265  : 			pChar->SetTargetRotToDirKey( m_eCurrDirKey );

  0007f	52		 push	 edx
  00080	8b cf		 mov	 ecx, edi
  00082	89 86 7c 11 00
	00		 mov	 DWORD PTR [esi+4476], eax
  00088	e8 00 00 00 00	 call	 ?SetTargetRotToDirKey@ioBaseChar@@QAEXW4DirKeyInput@ioUserKeyInput@@@Z ; ioBaseChar::SetTargetRotToDirKey

; 266  : 		}
; 267  : 		else

  0008d	eb 18		 jmp	 SHORT $LN2@SetLinerCo
$LN4@SetLinerCo:

; 268  : 		{
; 269  : 			m_pCurAttribute = &m_AttackAttributeList[m_iLinerComoboIndex];

  0008f	6b c9 50	 imul	 ecx, 80			; 00000050H
  00092	03 8e 1c 11 00
	00		 add	 ecx, DWORD PTR [esi+4380]
  00098	89 8e 7c 11 00
	00		 mov	 DWORD PTR [esi+4476], ecx

; 270  : 		}
; 271  : 	}
; 272  : 	else

  0009e	eb 07		 jmp	 SHORT $LN2@SetLinerCo
$LN5@SetLinerCo:

; 273  : 	{
; 274  : 		m_pCurAttribute = NULL;

  000a0	83 a6 7c 11 00
	00 00		 and	 DWORD PTR [esi+4476], 0
$LN2@SetLinerCo:

; 275  : 	}
; 276  : 
; 277  : 	ioAttackSkill::AttackSkillFire( pChar );

  000a7	57		 push	 edi
  000a8	8b ce		 mov	 ecx, esi
  000aa	e8 00 00 00 00	 call	 ?AttackSkillFire@ioAttackSkill@@MAEXPAVioBaseChar@@@Z ; ioAttackSkill::AttackSkillFire

; 278  : 
; 279  : 	if( pChar->IsNeedSendNetwork() )

  000af	8b 07		 mov	 eax, DWORD PTR [edi]
  000b1	8b cf		 mov	 ecx, edi
  000b3	ff 90 04 01 00
	00		 call	 DWORD PTR [eax+260]
  000b9	84 c0		 test	 al, al
  000bb	0f 84 a8 00 00
	00		 je	 $LN1@SetLinerCo

; 280  : 	{
; 281  : 		SP2Packet kPacket( CUPK_SKILL_EXTRA_INFO );

  000c1	68 39 41 00 00	 push	 16697			; 00004139H
  000c6	8d 8d d8 7f ff
	ff		 lea	 ecx, DWORD PTR _kPacket$548683[ebp]
  000cc	e8 00 00 00 00	 call	 ??0SP2Packet@@QAE@K@Z	; SP2Packet::SP2Packet
  000d1	83 65 fc 00	 and	 DWORD PTR __$EHRec$[ebp+8], 0

; 282  : 		kPacket << pChar->GetCharName();

  000d5	8d 87 d4 02 00
	00		 lea	 eax, DWORD PTR [edi+724]
  000db	50		 push	 eax
  000dc	8d 8d d8 7f ff
	ff		 lea	 ecx, DWORD PTR _kPacket$548683[ebp]
  000e2	e8 00 00 00 00	 call	 ??6SP2Packet@@QAEAAV0@ABVioHashString@@@Z ; SP2Packet::operator<<

; 283  : 		kPacket << GetName();

  000e7	8d 46 24	 lea	 eax, DWORD PTR [esi+36]
  000ea	50		 push	 eax
  000eb	8d 8d d8 7f ff
	ff		 lea	 ecx, DWORD PTR _kPacket$548683[ebp]
  000f1	e8 00 00 00 00	 call	 ??6SP2Packet@@QAEAAV0@ABVioHashString@@@Z ; SP2Packet::operator<<

; 284  : 		kPacket << (int)SSS_ATTACK;

  000f6	6a 01		 push	 1
  000f8	8d 8d d8 7f ff
	ff		 lea	 ecx, DWORD PTR _kPacket$548683[ebp]
  000fe	e8 00 00 00 00	 call	 ??6SP2Packet@@QAEAAV0@H@Z ; SP2Packet::operator<<

; 285  : 		kPacket << pChar->GetWorldPosition();

  00103	8b 07		 mov	 eax, DWORD PTR [edi]
  00105	8b cf		 mov	 ecx, edi
  00107	ff 50 70	 call	 DWORD PTR [eax+112]
  0010a	50		 push	 eax
  0010b	8d 8d d8 7f ff
	ff		 lea	 ecx, DWORD PTR _kPacket$548683[ebp]
  00111	e8 00 00 00 00	 call	 ??6SP2Packet@@QAEAAV0@ABUD3DXVECTOR3@@@Z ; SP2Packet::operator<<

; 286  : 		kPacket << pChar->GetTargetRot();

  00116	81 c7 a4 06 00
	00		 add	 edi, 1700		; 000006a4H
  0011c	57		 push	 edi
  0011d	8d 8d d8 7f ff
	ff		 lea	 ecx, DWORD PTR _kPacket$548683[ebp]
  00123	e8 00 00 00 00	 call	 ??6SP2Packet@@QAEAAV0@ABUD3DXQUATERNION@@@Z ; SP2Packet::operator<<

; 287  : 		kPacket << m_iLinerComoboIndex;

  00128	ff b6 80 11 00
	00		 push	 DWORD PTR [esi+4480]
  0012e	8d 8d d8 7f ff
	ff		 lea	 ecx, DWORD PTR _kPacket$548683[ebp]
  00134	e8 00 00 00 00	 call	 ??6SP2Packet@@QAEAAV0@H@Z ; SP2Packet::operator<<

; 288  : 		kPacket << (int)m_eCurrDirKey;

  00139	ff b6 84 11 00
	00		 push	 DWORD PTR [esi+4484]
  0013f	8d 8d d8 7f ff
	ff		 lea	 ecx, DWORD PTR _kPacket$548683[ebp]
  00145	e8 00 00 00 00	 call	 ??6SP2Packet@@QAEAAV0@H@Z ; SP2Packet::operator<<

; 289  : 		P2PNetwork::SendToAllPlayingUser( kPacket );		

  0014a	8d 85 d8 7f ff
	ff		 lea	 eax, DWORD PTR _kPacket$548683[ebp]
  00150	6a 00		 push	 0
  00152	50		 push	 eax
  00153	e8 00 00 00 00	 call	 ?SendToAllPlayingUser@P2PNetwork@@YAXAAVSP2Packet@@PAVioBaseChar@@@Z ; P2PNetwork::SendToAllPlayingUser

; 290  : 	}

  00158	83 4d fc ff	 or	 DWORD PTR __$EHRec$[ebp+8], -1
  0015c	59		 pop	 ecx
  0015d	59		 pop	 ecx
  0015e	8d 8d d8 7f ff
	ff		 lea	 ecx, DWORD PTR _kPacket$548683[ebp]
  00164	e8 00 00 00 00	 call	 ??1SP2Packet@@UAE@XZ	; SP2Packet::~SP2Packet
$LN1@SetLinerCo:

; 291  : 	m_iLinerComoboIndex++;

  00169	ff 86 80 11 00
	00		 inc	 DWORD PTR [esi+4480]

; 292  : }

  0016f	8b 4d f4	 mov	 ecx, DWORD PTR __$EHRec$[ebp]
  00172	64 89 0d 00 00
	00 00		 mov	 DWORD PTR fs:0, ecx
  00179	59		 pop	 ecx
  0017a	5f		 pop	 edi
  0017b	5e		 pop	 esi
  0017c	5b		 pop	 ebx
  0017d	8b 4d f0	 mov	 ecx, DWORD PTR __$ArrayPad$[ebp]
  00180	33 cd		 xor	 ecx, ebp
  00182	e8 00 00 00 00	 call	 @__security_check_cookie@4
  00187	c9		 leave
  00188	c2 08 00	 ret	 8
_TEXT	ENDS
;	COMDAT text$x
text$x	SEGMENT
__unwindfunclet$?SetLinerComoboState@ioTargetFlowAttackSkill@@IAEXPAVioBaseChar@@PAVioPlayStage@@@Z$0:
  00000	8d 8d d8 7f ff
	ff		 lea	 ecx, DWORD PTR _kPacket$548683[ebp]
  00006	e9 00 00 00 00	 jmp	 ??1SP2Packet@@UAE@XZ	; SP2Packet::~SP2Packet
__ehhandler$?SetLinerComoboState@ioTargetFlowAttackSkill@@IAEXPAVioBaseChar@@PAVioPlayStage@@@Z:
  0000b	8b 54 24 08	 mov	 edx, DWORD PTR [esp+8]
  0000f	8d 42 0c	 lea	 eax, DWORD PTR [edx+12]
  00012	8b 8a d4 7f ff
	ff		 mov	 ecx, DWORD PTR [edx-32812]
  00018	33 c8		 xor	 ecx, eax
  0001a	e8 00 00 00 00	 call	 @__security_check_cookie@4
  0001f	8b 4a fc	 mov	 ecx, DWORD PTR [edx-4]
  00022	33 c8		 xor	 ecx, eax
  00024	e8 00 00 00 00	 call	 @__security_check_cookie@4
  00029	b8 00 00 00 00	 mov	 eax, OFFSET __ehfuncinfo$?SetLinerComoboState@ioTargetFlowAttackSkill@@IAEXPAVioBaseChar@@PAVioPlayStage@@@Z
  0002e	e9 00 00 00 00	 jmp	 ___CxxFrameHandler3
text$x	ENDS
?SetLinerComoboState@ioTargetFlowAttackSkill@@IAEXPAVioBaseChar@@PAVioPlayStage@@@Z ENDP ; ioTargetFlowAttackSkill::SetLinerComoboState
PUBLIC	?OnSkillEnd@ioTargetFlowAttackSkill@@UAEXPAVioBaseChar@@@Z ; ioTargetFlowAttackSkill::OnSkillEnd
EXTRN	?RestoreSkillWeaponMesh@ioBaseChar@@QAE_NPAVioSkill@@ABVioHashString@@_N2@Z:PROC ; ioBaseChar::RestoreSkillWeaponMesh
EXTRN	?ShowWeaponItemMesh@ioBaseChar@@QAEX_N0@Z:PROC	; ioBaseChar::ShowWeaponItemMesh
EXTRN	?OnSkillEnd@ioAttackSkill@@UAEXPAVioBaseChar@@@Z:PROC ; ioAttackSkill::OnSkillEnd
; Function compile flags: /Ogsp
;	COMDAT ?OnSkillEnd@ioTargetFlowAttackSkill@@UAEXPAVioBaseChar@@@Z
_TEXT	SEGMENT
_pChar$ = 8						; size = 4
?OnSkillEnd@ioTargetFlowAttackSkill@@UAEXPAVioBaseChar@@@Z PROC ; ioTargetFlowAttackSkill::OnSkillEnd, COMDAT
; _this$ = ecx

; 315  : {

  00000	55		 push	 ebp
  00001	8b ec		 mov	 ebp, esp
  00003	56		 push	 esi
  00004	57		 push	 edi

; 316  : 	ioAttackSkill::OnSkillEnd( pChar );

  00005	ff 75 08	 push	 DWORD PTR _pChar$[ebp]
  00008	8b f1		 mov	 esi, ecx
  0000a	e8 00 00 00 00	 call	 ?OnSkillEnd@ioAttackSkill@@UAEXPAVioBaseChar@@@Z ; ioAttackSkill::OnSkillEnd

; 317  : 
; 318  : 	if( GetOwnerItem() )

  0000f	8b 8e a4 02 00
	00		 mov	 ecx, DWORD PTR [esi+676]
  00015	85 c9		 test	 ecx, ecx
  00017	74 08		 je	 SHORT $LN3@OnSkillEnd

; 319  : 		GetOwnerItem()->ClearCurChargeRateForSkill();

  00019	8b 01		 mov	 eax, DWORD PTR [ecx]
  0001b	ff 90 84 00 00
	00		 call	 DWORD PTR [eax+132]
$LN3@OnSkillEnd:

; 320  : 
; 321  : 	//  
; 322  : 	if( m_bUseItemMesh )

  00021	80 be 08 0f 00
	00 00		 cmp	 BYTE PTR [esi+3848], 0
  00028	74 0c		 je	 SHORT $LN2@OnSkillEnd

; 323  : 	{
; 324  : 		pChar->ShowWeaponItemMesh( true );

  0002a	8b 4d 08	 mov	 ecx, DWORD PTR _pChar$[ebp]
  0002d	6a 00		 push	 0
  0002f	6a 01		 push	 1
  00031	e8 00 00 00 00	 call	 ?ShowWeaponItemMesh@ioBaseChar@@QAEX_N0@Z ; ioBaseChar::ShowWeaponItemMesh
$LN2@OnSkillEnd:

; 325  : 	}
; 326  : 
; 327  : 	if( !m_HandMesh.IsEmpty() )

  00036	8d be f8 0e 00
	00		 lea	 edi, DWORD PTR [esi+3832]
  0003c	8b cf		 mov	 ecx, edi
  0003e	ff 15 00 00 00
	00		 call	 DWORD PTR __imp_?IsEmpty@ioHashString@@QBE_NXZ
  00044	84 c0		 test	 al, al
  00046	75 14		 jne	 SHORT $LN1@OnSkillEnd

; 328  : 	{
; 329  : 		pChar->RestoreSkillWeaponMesh( this, m_HandMesh, m_bVisibleEquipMesh );

  00048	0f b6 86 09 0f
	00 00		 movzx	 eax, BYTE PTR [esi+3849]
  0004f	8b 4d 08	 mov	 ecx, DWORD PTR _pChar$[ebp]
  00052	6a 00		 push	 0
  00054	50		 push	 eax
  00055	57		 push	 edi
  00056	56		 push	 esi
  00057	e8 00 00 00 00	 call	 ?RestoreSkillWeaponMesh@ioBaseChar@@QAE_NPAVioSkill@@ABVioHashString@@_N2@Z ; ioBaseChar::RestoreSkillWeaponMesh
$LN1@OnSkillEnd:

; 330  : 	}
; 331  : 
; 332  : 	Init();

  0005c	8b ce		 mov	 ecx, esi
  0005e	e8 00 00 00 00	 call	 ?Init@ioTargetFlowAttackSkill@@QAEXXZ ; ioTargetFlowAttackSkill::Init
  00063	5f		 pop	 edi
  00064	5e		 pop	 esi

; 333  : }

  00065	5d		 pop	 ebp
  00066	c2 04 00	 ret	 4
?OnSkillEnd@ioTargetFlowAttackSkill@@UAEXPAVioBaseChar@@@Z ENDP ; ioTargetFlowAttackSkill::OnSkillEnd
_TEXT	ENDS
PUBLIC	__$ArrayPad$
PUBLIC	?ApplyExtraSkillInfo@ioTargetFlowAttackSkill@@UAEXPAVioBaseChar@@PAVioPlayStage@@AAVSP2Packet@@@Z ; ioTargetFlowAttackSkill::ApplyExtraSkillInfo
EXTRN	?SetTargetRotToRotate@ioBaseChar@@QAEXABUD3DXQUATERNION@@_N1@Z:PROC ; ioBaseChar::SetTargetRotToRotate
EXTRN	??5SP2Packet@@QAEAAV0@AAUD3DXQUATERNION@@@Z:PROC ; SP2Packet::operator>>
EXTRN	??5SP2Packet@@QAEAAV0@AAUD3DXVECTOR3@@@Z:PROC	; SP2Packet::operator>>
EXTRN	??5SP2Packet@@QAEAAV0@AAH@Z:PROC		; SP2Packet::operator>>
; Function compile flags: /Ogsp
;	COMDAT ?ApplyExtraSkillInfo@ioTargetFlowAttackSkill@@UAEXPAVioBaseChar@@PAVioPlayStage@@AAVSP2Packet@@@Z
_TEXT	SEGMENT
_qtRot$ = -40						; size = 16
_eKey$548765 = -24					; size = 4
_eState$ = -20						; size = 4
_vPos$ = -16						; size = 12
__$ArrayPad$ = -4					; size = 4
_pChar$ = 8						; size = 4
_pStage$ = 12						; size = 4
_rkPacket$ = 16						; size = 4
?ApplyExtraSkillInfo@ioTargetFlowAttackSkill@@UAEXPAVioBaseChar@@PAVioPlayStage@@AAVSP2Packet@@@Z PROC ; ioTargetFlowAttackSkill::ApplyExtraSkillInfo, COMDAT
; _this$ = ecx

; 424  : {

  00000	55		 push	 ebp
  00001	8b ec		 mov	 ebp, esp
  00003	83 ec 28	 sub	 esp, 40			; 00000028H
  00006	a1 00 00 00 00	 mov	 eax, DWORD PTR ___security_cookie
  0000b	33 c5		 xor	 eax, ebp
  0000d	89 45 fc	 mov	 DWORD PTR __$ArrayPad$[ebp], eax
  00010	53		 push	 ebx
  00011	56		 push	 esi
  00012	8b 75 08	 mov	 esi, DWORD PTR _pChar$[ebp]
  00015	57		 push	 edi
  00016	8b 7d 10	 mov	 edi, DWORD PTR _rkPacket$[ebp]

; 425  : 	int eState;
; 426  : 	rkPacket >> eState;

  00019	8d 45 ec	 lea	 eax, DWORD PTR _eState$[ebp]
  0001c	8b d9		 mov	 ebx, ecx
  0001e	50		 push	 eax
  0001f	8b cf		 mov	 ecx, edi
  00021	e8 00 00 00 00	 call	 ??5SP2Packet@@QAEAAV0@AAH@Z ; SP2Packet::operator>>

; 427  : 
; 428  : 	D3DXVECTOR3 vPos;
; 429  : 	rkPacket >> vPos;

  00026	8d 45 f0	 lea	 eax, DWORD PTR _vPos$[ebp]
  00029	50		 push	 eax
  0002a	8b cf		 mov	 ecx, edi
  0002c	e8 00 00 00 00	 call	 ??5SP2Packet@@QAEAAV0@AAUD3DXVECTOR3@@@Z ; SP2Packet::operator>>

; 430  : 
; 431  : 	D3DXQUATERNION qtRot;
; 432  : 	rkPacket >> qtRot;

  00031	8d 45 d8	 lea	 eax, DWORD PTR _qtRot$[ebp]
  00034	50		 push	 eax
  00035	8b cf		 mov	 ecx, edi
  00037	e8 00 00 00 00	 call	 ??5SP2Packet@@QAEAAV0@AAUD3DXQUATERNION@@@Z ; SP2Packet::operator>>

; 433  : 
; 434  : 	pChar->SetTargetRotToRotate( qtRot, true, true );

  0003c	6a 01		 push	 1
  0003e	6a 01		 push	 1
  00040	8d 45 d8	 lea	 eax, DWORD PTR _qtRot$[ebp]
  00043	50		 push	 eax
  00044	8b ce		 mov	 ecx, esi
  00046	e8 00 00 00 00	 call	 ?SetTargetRotToRotate@ioBaseChar@@QAEXABUD3DXQUATERNION@@_N1@Z ; ioBaseChar::SetTargetRotToRotate

; 435  : 	pChar->SetWorldPosition( vPos );

  0004b	8b 06		 mov	 eax, DWORD PTR [esi]
  0004d	8d 4d f0	 lea	 ecx, DWORD PTR _vPos$[ebp]
  00050	51		 push	 ecx
  00051	8b ce		 mov	 ecx, esi
  00053	ff 50 44	 call	 DWORD PTR [eax+68]

; 436  : 
; 437  : 	if( eState == SSS_TELEPORT )

  00056	83 7d ec 00	 cmp	 DWORD PTR _eState$[ebp], 0
  0005a	75 0c		 jne	 SHORT $LN5@ApplyExtra

; 438  : 	{
; 439  : 		m_SkillState = SS_TELEPORT;

  0005c	c7 83 e4 10 00
	00 02 00 00 00	 mov	 DWORD PTR [ebx+4324], 2
  00066	eb 49		 jmp	 SHORT $LN1@ApplyExtra
$LN5@ApplyExtra:

; 440  : 	}
; 441  : 	else if( eState == SSS_ATTACK )

  00068	83 7d ec 01	 cmp	 DWORD PTR _eState$[ebp], 1
  0006c	75 33		 jne	 SHORT $LN3@ApplyExtra

; 442  : 	{
; 443  : 		int eKey = ioUserKeyInput::AKI_NONE;

  0006e	83 65 e8 00	 and	 DWORD PTR _eKey$548765[ebp], 0

; 444  : 		rkPacket >> m_iLinerComoboIndex;

  00072	8d 83 80 11 00
	00		 lea	 eax, DWORD PTR [ebx+4480]
  00078	50		 push	 eax
  00079	8b cf		 mov	 ecx, edi
  0007b	e8 00 00 00 00	 call	 ??5SP2Packet@@QAEAAV0@AAH@Z ; SP2Packet::operator>>

; 445  : 		rkPacket >> eKey;

  00080	8d 45 e8	 lea	 eax, DWORD PTR _eKey$548765[ebp]
  00083	50		 push	 eax
  00084	8b cf		 mov	 ecx, edi
  00086	e8 00 00 00 00	 call	 ??5SP2Packet@@QAEAAV0@AAH@Z ; SP2Packet::operator>>

; 446  : 		m_eCurrDirKey = (ioUserKeyInput::DirKeyInput)eKey;
; 447  : 
; 448  : 		SetLinerComoboState( pChar, pStage );

  0008b	ff 75 0c	 push	 DWORD PTR _pStage$[ebp]
  0008e	8b 45 e8	 mov	 eax, DWORD PTR _eKey$548765[ebp]
  00091	56		 push	 esi
  00092	8b cb		 mov	 ecx, ebx
  00094	89 83 84 11 00
	00		 mov	 DWORD PTR [ebx+4484], eax
  0009a	e8 00 00 00 00	 call	 ?SetLinerComoboState@ioTargetFlowAttackSkill@@IAEXPAVioBaseChar@@PAVioPlayStage@@@Z ; ioTargetFlowAttackSkill::SetLinerComoboState
  0009f	eb 10		 jmp	 SHORT $LN1@ApplyExtra
$LN3@ApplyExtra:

; 449  : 	}
; 450  : 	else if( eState == SSS_END )

  000a1	83 7d ec 02	 cmp	 DWORD PTR _eState$[ebp], 2
  000a5	75 0a		 jne	 SHORT $LN1@ApplyExtra

; 451  : 	{
; 452  : 		m_SkillState = SS_END;

  000a7	c7 83 e4 10 00
	00 04 00 00 00	 mov	 DWORD PTR [ebx+4324], 4
$LN1@ApplyExtra:

; 453  : 	}
; 454  : }

  000b1	8b 4d fc	 mov	 ecx, DWORD PTR __$ArrayPad$[ebp]
  000b4	5f		 pop	 edi
  000b5	5e		 pop	 esi
  000b6	33 cd		 xor	 ecx, ebp
  000b8	5b		 pop	 ebx
  000b9	e8 00 00 00 00	 call	 @__security_check_cookie@4
  000be	c9		 leave
  000bf	c2 0c 00	 ret	 12			; 0000000cH
?ApplyExtraSkillInfo@ioTargetFlowAttackSkill@@UAEXPAVioBaseChar@@PAVioPlayStage@@AAVSP2Packet@@@Z ENDP ; ioTargetFlowAttackSkill::ApplyExtraSkillInfo
_TEXT	ENDS
PUBLIC	?begin@?$vector@UWeaponInfo@@V?$allocator@UWeaponInfo@@@std@@@std@@QBE?AV?$_Vector_const_iterator@V?$_Vector_val@UWeaponInfo@@V?$allocator@UWeaponInfo@@@std@@@std@@@2@XZ ; std::vector<WeaponInfo,std::allocator<WeaponInfo> >::begin
; Function compile flags: /Ogsp
; File c:\program files (x86)\microsoft visual studio 10.0\vc\include\vector
;	COMDAT ?begin@?$vector@UWeaponInfo@@V?$allocator@UWeaponInfo@@@std@@@std@@QBE?AV?$_Vector_const_iterator@V?$_Vector_val@UWeaponInfo@@V?$allocator@UWeaponInfo@@@std@@@std@@@2@XZ
_TEXT	SEGMENT
___$ReturnUdt$ = 8					; size = 4
?begin@?$vector@UWeaponInfo@@V?$allocator@UWeaponInfo@@@std@@@std@@QBE?AV?$_Vector_const_iterator@V?$_Vector_val@UWeaponInfo@@V?$allocator@UWeaponInfo@@@std@@@std@@@2@XZ PROC ; std::vector<WeaponInfo,std::allocator<WeaponInfo> >::begin, COMDAT
; _this$ = ecx

; 786  : 		{	// return iterator for beginning of nonmutable sequence

  00000	55		 push	 ebp
  00001	8b ec		 mov	 ebp, esp

; 787  : 		return (const_iterator(this->_Myfirst, this));

  00003	8b 09		 mov	 ecx, DWORD PTR [ecx]
  00005	8b 45 08	 mov	 eax, DWORD PTR ___$ReturnUdt$[ebp]
  00008	89 08		 mov	 DWORD PTR [eax], ecx

; 788  : 		}

  0000a	5d		 pop	 ebp
  0000b	c2 04 00	 ret	 4
?begin@?$vector@UWeaponInfo@@V?$allocator@UWeaponInfo@@@std@@@std@@QBE?AV?$_Vector_const_iterator@V?$_Vector_val@UWeaponInfo@@V?$allocator@UWeaponInfo@@@std@@@std@@@2@XZ ENDP ; std::vector<WeaponInfo,std::allocator<WeaponInfo> >::begin
_TEXT	ENDS
PUBLIC	?end@?$vector@UWeaponInfo@@V?$allocator@UWeaponInfo@@@std@@@std@@QBE?AV?$_Vector_const_iterator@V?$_Vector_val@UWeaponInfo@@V?$allocator@UWeaponInfo@@@std@@@std@@@2@XZ ; std::vector<WeaponInfo,std::allocator<WeaponInfo> >::end
; Function compile flags: /Ogsp
;	COMDAT ?end@?$vector@UWeaponInfo@@V?$allocator@UWeaponInfo@@@std@@@std@@QBE?AV?$_Vector_const_iterator@V?$_Vector_val@UWeaponInfo@@V?$allocator@UWeaponInfo@@@std@@@std@@@2@XZ
_TEXT	SEGMENT
___$ReturnUdt$ = 8					; size = 4
?end@?$vector@UWeaponInfo@@V?$allocator@UWeaponInfo@@@std@@@std@@QBE?AV?$_Vector_const_iterator@V?$_Vector_val@UWeaponInfo@@V?$allocator@UWeaponInfo@@@std@@@std@@@2@XZ PROC ; std::vector<WeaponInfo,std::allocator<WeaponInfo> >::end, COMDAT
; _this$ = ecx

; 796  : 		{	// return iterator for end of nonmutable sequence

  00000	55		 push	 ebp
  00001	8b ec		 mov	 ebp, esp

; 797  : 		return (const_iterator(this->_Mylast, this));

  00003	8b 49 04	 mov	 ecx, DWORD PTR [ecx+4]
  00006	8b 45 08	 mov	 eax, DWORD PTR ___$ReturnUdt$[ebp]
  00009	89 08		 mov	 DWORD PTR [eax], ecx

; 798  : 		}

  0000b	5d		 pop	 ebp
  0000c	c2 04 00	 ret	 4
?end@?$vector@UWeaponInfo@@V?$allocator@UWeaponInfo@@@std@@@std@@QBE?AV?$_Vector_const_iterator@V?$_Vector_val@UWeaponInfo@@V?$allocator@UWeaponInfo@@@std@@@std@@@2@XZ ENDP ; std::vector<WeaponInfo,std::allocator<WeaponInfo> >::end
_TEXT	ENDS
PUBLIC	?begin@?$vector@UForceInfo@@V?$allocator@UForceInfo@@@std@@@std@@QBE?AV?$_Vector_const_iterator@V?$_Vector_val@UForceInfo@@V?$allocator@UForceInfo@@@std@@@std@@@2@XZ ; std::vector<ForceInfo,std::allocator<ForceInfo> >::begin
; Function compile flags: /Ogsp
;	COMDAT ?begin@?$vector@UForceInfo@@V?$allocator@UForceInfo@@@std@@@std@@QBE?AV?$_Vector_const_iterator@V?$_Vector_val@UForceInfo@@V?$allocator@UForceInfo@@@std@@@std@@@2@XZ
_TEXT	SEGMENT
___$ReturnUdt$ = 8					; size = 4
?begin@?$vector@UForceInfo@@V?$allocator@UForceInfo@@@std@@@std@@QBE?AV?$_Vector_const_iterator@V?$_Vector_val@UForceInfo@@V?$allocator@UForceInfo@@@std@@@std@@@2@XZ PROC ; std::vector<ForceInfo,std::allocator<ForceInfo> >::begin, COMDAT
; _this$ = ecx

; 786  : 		{	// return iterator for beginning of nonmutable sequence

  00000	55		 push	 ebp
  00001	8b ec		 mov	 ebp, esp

; 787  : 		return (const_iterator(this->_Myfirst, this));

  00003	8b 09		 mov	 ecx, DWORD PTR [ecx]
  00005	8b 45 08	 mov	 eax, DWORD PTR ___$ReturnUdt$[ebp]
  00008	89 08		 mov	 DWORD PTR [eax], ecx

; 788  : 		}

  0000a	5d		 pop	 ebp
  0000b	c2 04 00	 ret	 4
?begin@?$vector@UForceInfo@@V?$allocator@UForceInfo@@@std@@@std@@QBE?AV?$_Vector_const_iterator@V?$_Vector_val@UForceInfo@@V?$allocator@UForceInfo@@@std@@@std@@@2@XZ ENDP ; std::vector<ForceInfo,std::allocator<ForceInfo> >::begin
_TEXT	ENDS
PUBLIC	?end@?$vector@UForceInfo@@V?$allocator@UForceInfo@@@std@@@std@@QBE?AV?$_Vector_const_iterator@V?$_Vector_val@UForceInfo@@V?$allocator@UForceInfo@@@std@@@std@@@2@XZ ; std::vector<ForceInfo,std::allocator<ForceInfo> >::end
; Function compile flags: /Ogsp
;	COMDAT ?end@?$vector@UForceInfo@@V?$allocator@UForceInfo@@@std@@@std@@QBE?AV?$_Vector_const_iterator@V?$_Vector_val@UForceInfo@@V?$allocator@UForceInfo@@@std@@@std@@@2@XZ
_TEXT	SEGMENT
___$ReturnUdt$ = 8					; size = 4
?end@?$vector@UForceInfo@@V?$allocator@UForceInfo@@@std@@@std@@QBE?AV?$_Vector_const_iterator@V?$_Vector_val@UForceInfo@@V?$allocator@UForceInfo@@@std@@@std@@@2@XZ PROC ; std::vector<ForceInfo,std::allocator<ForceInfo> >::end, COMDAT
; _this$ = ecx

; 796  : 		{	// return iterator for end of nonmutable sequence

  00000	55		 push	 ebp
  00001	8b ec		 mov	 ebp, esp

; 797  : 		return (const_iterator(this->_Mylast, this));

  00003	8b 49 04	 mov	 ecx, DWORD PTR [ecx+4]
  00006	8b 45 08	 mov	 eax, DWORD PTR ___$ReturnUdt$[ebp]
  00009	89 08		 mov	 DWORD PTR [eax], ecx

; 798  : 		}

  0000b	5d		 pop	 ebp
  0000c	c2 04 00	 ret	 4
?end@?$vector@UForceInfo@@V?$allocator@UForceInfo@@@std@@@std@@QBE?AV?$_Vector_const_iterator@V?$_Vector_val@UForceInfo@@V?$allocator@UForceInfo@@@std@@@std@@@2@XZ ENDP ; std::vector<ForceInfo,std::allocator<ForceInfo> >::end
_TEXT	ENDS
PUBLIC	?begin@?$vector@UAttackAttribute@@V?$allocator@UAttackAttribute@@@std@@@std@@QBE?AV?$_Vector_const_iterator@V?$_Vector_val@UAttackAttribute@@V?$allocator@UAttackAttribute@@@std@@@std@@@2@XZ ; std::vector<AttackAttribute,std::allocator<AttackAttribute> >::begin
; Function compile flags: /Ogsp
;	COMDAT ?begin@?$vector@UAttackAttribute@@V?$allocator@UAttackAttribute@@@std@@@std@@QBE?AV?$_Vector_const_iterator@V?$_Vector_val@UAttackAttribute@@V?$allocator@UAttackAttribute@@@std@@@std@@@2@XZ
_TEXT	SEGMENT
___$ReturnUdt$ = 8					; size = 4
?begin@?$vector@UAttackAttribute@@V?$allocator@UAttackAttribute@@@std@@@std@@QBE?AV?$_Vector_const_iterator@V?$_Vector_val@UAttackAttribute@@V?$allocator@UAttackAttribute@@@std@@@std@@@2@XZ PROC ; std::vector<AttackAttribute,std::allocator<AttackAttribute> >::begin, COMDAT
; _this$ = ecx

; 786  : 		{	// return iterator for beginning of nonmutable sequence

  00000	55		 push	 ebp
  00001	8b ec		 mov	 ebp, esp

; 787  : 		return (const_iterator(this->_Myfirst, this));

  00003	8b 09		 mov	 ecx, DWORD PTR [ecx]
  00005	8b 45 08	 mov	 eax, DWORD PTR ___$ReturnUdt$[ebp]
  00008	89 08		 mov	 DWORD PTR [eax], ecx

; 788  : 		}

  0000a	5d		 pop	 ebp
  0000b	c2 04 00	 ret	 4
?begin@?$vector@UAttackAttribute@@V?$allocator@UAttackAttribute@@@std@@@std@@QBE?AV?$_Vector_const_iterator@V?$_Vector_val@UAttackAttribute@@V?$allocator@UAttackAttribute@@@std@@@std@@@2@XZ ENDP ; std::vector<AttackAttribute,std::allocator<AttackAttribute> >::begin
_TEXT	ENDS
PUBLIC	?end@?$vector@UAttackAttribute@@V?$allocator@UAttackAttribute@@@std@@@std@@QBE?AV?$_Vector_const_iterator@V?$_Vector_val@UAttackAttribute@@V?$allocator@UAttackAttribute@@@std@@@std@@@2@XZ ; std::vector<AttackAttribute,std::allocator<AttackAttribute> >::end
; Function compile flags: /Ogsp
;	COMDAT ?end@?$vector@UAttackAttribute@@V?$allocator@UAttackAttribute@@@std@@@std@@QBE?AV?$_Vector_const_iterator@V?$_Vector_val@UAttackAttribute@@V?$allocator@UAttackAttribute@@@std@@@std@@@2@XZ
_TEXT	SEGMENT
___$ReturnUdt$ = 8					; size = 4
?end@?$vector@UAttackAttribute@@V?$allocator@UAttackAttribute@@@std@@@std@@QBE?AV?$_Vector_const_iterator@V?$_Vector_val@UAttackAttribute@@V?$allocator@UAttackAttribute@@@std@@@std@@@2@XZ PROC ; std::vector<AttackAttribute,std::allocator<AttackAttribute> >::end, COMDAT
; _this$ = ecx

; 796  : 		{	// return iterator for end of nonmutable sequence

  00000	55		 push	 ebp
  00001	8b ec		 mov	 ebp, esp

; 797  : 		return (const_iterator(this->_Mylast, this));

  00003	8b 49 04	 mov	 ecx, DWORD PTR [ecx+4]
  00006	8b 45 08	 mov	 eax, DWORD PTR ___$ReturnUdt$[ebp]
  00009	89 08		 mov	 DWORD PTR [eax], ecx

; 798  : 		}

  0000b	5d		 pop	 ebp
  0000c	c2 04 00	 ret	 4
?end@?$vector@UAttackAttribute@@V?$allocator@UAttackAttribute@@@std@@@std@@QBE?AV?$_Vector_const_iterator@V?$_Vector_val@UAttackAttribute@@V?$allocator@UAttackAttribute@@@std@@@std@@@2@XZ ENDP ; std::vector<AttackAttribute,std::allocator<AttackAttribute> >::end
_TEXT	ENDS
PUBLIC	?max_size@?$vector@UAttackAttribute@@V?$allocator@UAttackAttribute@@@std@@@std@@QBEIXZ ; std::vector<AttackAttribute,std::allocator<AttackAttribute> >::max_size
; Function compile flags: /Ogsp
;	COMDAT ?max_size@?$vector@UAttackAttribute@@V?$allocator@UAttackAttribute@@@std@@@std@@QBEIXZ
_TEXT	SEGMENT
?max_size@?$vector@UAttackAttribute@@V?$allocator@UAttackAttribute@@@std@@@std@@QBEIXZ PROC ; std::vector<AttackAttribute,std::allocator<AttackAttribute> >::max_size, COMDAT
; _this$ = ecx

; 884  : 		return (this->_Alval.max_size());

  00000	b8 33 33 33 03	 mov	 eax, 53687091		; 03333333H

; 885  : 		}

  00005	c3		 ret	 0
?max_size@?$vector@UAttackAttribute@@V?$allocator@UAttackAttribute@@@std@@@std@@QBEIXZ ENDP ; std::vector<AttackAttribute,std::allocator<AttackAttribute> >::max_size
_TEXT	ENDS
PUBLIC	?_Grow_to@?$vector@UAttackAttribute@@V?$allocator@UAttackAttribute@@@std@@@std@@IBEII@Z ; std::vector<AttackAttribute,std::allocator<AttackAttribute> >::_Grow_to
; Function compile flags: /Ogsp
;	COMDAT ?_Grow_to@?$vector@UAttackAttribute@@V?$allocator@UAttackAttribute@@@std@@@std@@IBEII@Z
_TEXT	SEGMENT
__Count$ = 8						; size = 4
?_Grow_to@?$vector@UAttackAttribute@@V?$allocator@UAttackAttribute@@@std@@@std@@IBEII@Z PROC ; std::vector<AttackAttribute,std::allocator<AttackAttribute> >::_Grow_to, COMDAT
; _this$ = ecx

; 1274 : 		{	// grow by 50% or at least to _Count

  00000	55		 push	 ebp
  00001	8b ec		 mov	 ebp, esp

; 1275 : 		size_type _Capacity = capacity();

  00003	8b 41 08	 mov	 eax, DWORD PTR [ecx+8]
  00006	2b 01		 sub	 eax, DWORD PTR [ecx]
  00008	6a 50		 push	 80			; 00000050H
  0000a	99		 cdq
  0000b	59		 pop	 ecx
  0000c	f7 f9		 idiv	 ecx

; 1276 : 
; 1277 : 		_Capacity = max_size() - _Capacity / 2 < _Capacity
; 1278 : 			? 0 : _Capacity + _Capacity / 2;	// try to grow by 50%

  0000e	ba 33 33 33 03	 mov	 edx, 53687091		; 03333333H
  00013	8b c8		 mov	 ecx, eax
  00015	d1 e9		 shr	 ecx, 1
  00017	2b d1		 sub	 edx, ecx
  00019	3b d0		 cmp	 edx, eax
  0001b	73 04		 jae	 SHORT $LN4@Grow_to
  0001d	33 c0		 xor	 eax, eax
  0001f	eb 02		 jmp	 SHORT $LN5@Grow_to
$LN4@Grow_to:
  00021	03 c1		 add	 eax, ecx
$LN5@Grow_to:

; 1279 : 		if (_Capacity < _Count)

  00023	3b 45 08	 cmp	 eax, DWORD PTR __Count$[ebp]

; 1280 : 			_Capacity = _Count;

  00026	0f 42 45 08	 cmovb	 eax, DWORD PTR __Count$[ebp]

; 1281 : 		return (_Capacity);
; 1282 : 		}

  0002a	5d		 pop	 ebp
  0002b	c2 04 00	 ret	 4
?_Grow_to@?$vector@UAttackAttribute@@V?$allocator@UAttackAttribute@@@std@@@std@@IBEII@Z ENDP ; std::vector<AttackAttribute,std::allocator<AttackAttribute> >::_Grow_to
_TEXT	ENDS
PUBLIC	?allocate@?$allocator@UAttackAttribute@@@std@@QAEPAUAttackAttribute@@I@Z ; std::allocator<AttackAttribute>::allocate
; Function compile flags: /Ogsp
; File c:\program files (x86)\microsoft visual studio 10.0\vc\include\xmemory
;	COMDAT ?allocate@?$allocator@UAttackAttribute@@@std@@QAEPAUAttackAttribute@@I@Z
_TEXT	SEGMENT
__Count$ = 8						; size = 4
?allocate@?$allocator@UAttackAttribute@@@std@@QAEPAUAttackAttribute@@I@Z PROC ; std::allocator<AttackAttribute>::allocate, COMDAT
; _this$ = ecx

; 186  : 		{	// allocate array of _Count elements

  00000	55		 push	 ebp
  00001	8b ec		 mov	 ebp, esp

; 187  : 		return (_Allocate(_Count, (pointer)0));

  00003	6a 00		 push	 0
  00005	ff 75 08	 push	 DWORD PTR __Count$[ebp]
  00008	e8 00 00 00 00	 call	 ??$_Allocate@UAttackAttribute@@@std@@YAPAUAttackAttribute@@IPAU1@@Z ; std::_Allocate<AttackAttribute>
  0000d	59		 pop	 ecx
  0000e	59		 pop	 ecx

; 188  : 		}

  0000f	5d		 pop	 ebp
  00010	c2 04 00	 ret	 4
?allocate@?$allocator@UAttackAttribute@@@std@@QAEPAUAttackAttribute@@I@Z ENDP ; std::allocator<AttackAttribute>::allocate
_TEXT	ENDS
PUBLIC	_this$GSCopy$
PUBLIC	__$ArrayPad$
PUBLIC	??$LoadString_e@$0M@@ioINILoader@@QAEXAAY0M@$$CBDAAY00$$CBDPADH@Z ; ioINILoader::LoadString_e<12>
EXTRN	__imp_?LoadStringA@ioINILoader@@QAEXPBD0PADH@Z:PROC
; Function compile flags: /Ogsp
; File d:\lost saga for developer\youtube\tutorial\source\src\io3dengine\ioiniloader.h
;	COMDAT ??$LoadString_e@$0M@@ioINILoader@@QAEXAAY0M@$$CBDAAY00$$CBDPADH@Z
_TEXT	SEGMENT
_this$GSCopy$ = -24					; size = 4
__k$ = -20						; size = 12
__$ArrayPad$ = -4					; size = 4
_k$ = 8							; size = 4
_d$ = 12						; size = 4
_b$ = 16						; size = 4
_i$ = 20						; size = 4
??$LoadString_e@$0M@@ioINILoader@@QAEXAAY0M@$$CBDAAY00$$CBDPADH@Z PROC ; ioINILoader::LoadString_e<12>, COMDAT
; _this$ = ecx

; 161  : 	{

  00000	55		 push	 ebp
  00001	8b ec		 mov	 ebp, esp
  00003	83 ec 18	 sub	 esp, 24			; 00000018H
  00006	a1 00 00 00 00	 mov	 eax, DWORD PTR ___security_cookie
  0000b	33 c5		 xor	 eax, ebp
  0000d	89 45 fc	 mov	 DWORD PTR __$ArrayPad$[ebp], eax
  00010	8b 45 08	 mov	 eax, DWORD PTR _k$[ebp]

; 162  : 		_ENCSTR(k, _k);

  00013	8a 10		 mov	 dl, BYTE PTR [eax]
  00015	56		 push	 esi
  00016	8b 75 0c	 mov	 esi, DWORD PTR _d$[ebp]
  00019	57		 push	 edi
  0001a	8b 7d 10	 mov	 edi, DWORD PTR _b$[ebp]
  0001d	89 4d e8	 mov	 DWORD PTR _this$GSCopy$[ebp], ecx
  00020	84 d2		 test	 dl, dl
  00022	0f 84 32 01 00
	00		 je	 $LN96@LoadString
  00028	80 f2 ed	 xor	 dl, -19			; ffffffedH
  0002b	88 55 ec	 mov	 BYTE PTR __k$[ebp], dl
  0002e	8a 50 01	 mov	 dl, BYTE PTR [eax+1]
  00031	84 d2		 test	 dl, dl
  00033	0f 84 1b 01 00
	00		 je	 $LN95@LoadString
  00039	80 f2 ec	 xor	 dl, -20			; ffffffecH
  0003c	88 55 ed	 mov	 BYTE PTR __k$[ebp+1], dl
  0003f	8a 50 02	 mov	 dl, BYTE PTR [eax+2]
  00042	84 d2		 test	 dl, dl
  00044	0f 84 04 01 00
	00		 je	 $LN94@LoadString
  0004a	b1 eb		 mov	 cl, -21			; ffffffebH
  0004c	32 d1		 xor	 dl, cl
  0004e	88 55 ee	 mov	 BYTE PTR __k$[ebp+2], dl
  00051	8a 50 03	 mov	 dl, BYTE PTR [eax+3]
  00054	84 d2		 test	 dl, dl
  00056	0f 84 ec 00 00
	00		 je	 $LN93@LoadString
  0005c	80 f2 ea	 xor	 dl, -22			; ffffffeaH
  0005f	88 55 ef	 mov	 BYTE PTR __k$[ebp+3], dl
  00062	8a 50 04	 mov	 dl, BYTE PTR [eax+4]
  00065	84 d2		 test	 dl, dl
  00067	0f 84 d5 00 00
	00		 je	 $LN92@LoadString
  0006d	80 f2 ed	 xor	 dl, -19			; ffffffedH
  00070	88 55 f0	 mov	 BYTE PTR __k$[ebp+4], dl
  00073	8a 50 05	 mov	 dl, BYTE PTR [eax+5]
  00076	84 d2		 test	 dl, dl
  00078	0f 84 be 00 00
	00		 je	 $LN91@LoadString
  0007e	80 f2 ec	 xor	 dl, -20			; ffffffecH
  00081	88 55 f1	 mov	 BYTE PTR __k$[ebp+5], dl
  00084	8a 50 06	 mov	 dl, BYTE PTR [eax+6]
  00087	84 d2		 test	 dl, dl
  00089	0f 84 a8 00 00
	00		 je	 $LN90@LoadString
  0008f	32 d1		 xor	 dl, cl
  00091	88 55 f2	 mov	 BYTE PTR __k$[ebp+6], dl
  00094	8a 50 07	 mov	 dl, BYTE PTR [eax+7]
  00097	84 d2		 test	 dl, dl
  00099	0f 84 92 00 00
	00		 je	 $LN89@LoadString
  0009f	80 f2 ea	 xor	 dl, -22			; ffffffeaH
  000a2	88 55 f3	 mov	 BYTE PTR __k$[ebp+7], dl
  000a5	8a 50 08	 mov	 dl, BYTE PTR [eax+8]
  000a8	84 d2		 test	 dl, dl
  000aa	74 7f		 je	 SHORT $LN88@LoadString
  000ac	80 f2 ed	 xor	 dl, -19			; ffffffedH
  000af	88 55 f4	 mov	 BYTE PTR __k$[ebp+8], dl
  000b2	8a 50 09	 mov	 dl, BYTE PTR [eax+9]
  000b5	84 d2		 test	 dl, dl
  000b7	74 6c		 je	 SHORT $LN87@LoadString
  000b9	80 f2 ec	 xor	 dl, -20			; ffffffecH
  000bc	88 55 f5	 mov	 BYTE PTR __k$[ebp+9], dl
  000bf	8a 50 0a	 mov	 dl, BYTE PTR [eax+10]
  000c2	84 d2		 test	 dl, dl
  000c4	74 5a		 je	 SHORT $LN86@LoadString
  000c6	32 d1		 xor	 dl, cl
  000c8	80 78 0b 00	 cmp	 BYTE PTR [eax+11], 0
  000cc	88 55 f6	 mov	 BYTE PTR __k$[ebp+10], dl
  000cf	0f 84 89 00 00
	00		 je	 $LN111@LoadString
  000d5	8a 50 0c	 mov	 dl, BYTE PTR [eax+12]
  000d8	84 d2		 test	 dl, dl
  000da	74 3e		 je	 SHORT $LN84@LoadString
  000dc	80 f2 ed	 xor	 dl, -19			; ffffffedH
  000df	88 55 f8	 mov	 BYTE PTR __k$[ebp+12], dl
  000e2	8a 50 0d	 mov	 dl, BYTE PTR [eax+13]
  000e5	84 d2		 test	 dl, dl
  000e7	74 2b		 je	 SHORT $LN83@LoadString
  000e9	80 f2 ec	 xor	 dl, -20			; ffffffecH
  000ec	88 55 f9	 mov	 BYTE PTR __k$[ebp+13], dl
  000ef	8a 50 0e	 mov	 dl, BYTE PTR [eax+14]
  000f2	84 d2		 test	 dl, dl
  000f4	74 19		 je	 SHORT $LN82@LoadString
  000f6	8a 40 0f	 mov	 al, BYTE PTR [eax+15]
  000f9	32 d1		 xor	 dl, cl
  000fb	88 55 fa	 mov	 BYTE PTR __k$[ebp+14], dl
  000fe	84 c0		 test	 al, al
  00100	74 07		 je	 SHORT $LN81@LoadString
  00102	34 ea		 xor	 al, -22			; ffffffeaH
  00104	88 45 fb	 mov	 BYTE PTR __k$[ebp+15], al
  00107	eb 55		 jmp	 SHORT $LN111@LoadString
$LN81@LoadString:
  00109	c6 45 fb ea	 mov	 BYTE PTR __k$[ebp+15], -22 ; ffffffeaH
  0010d	eb 4f		 jmp	 SHORT $LN111@LoadString
$LN82@LoadString:
  0010f	88 4d fa	 mov	 BYTE PTR __k$[ebp+14], cl
  00112	eb 4a		 jmp	 SHORT $LN111@LoadString
$LN83@LoadString:
  00114	c6 45 f9 ec	 mov	 BYTE PTR __k$[ebp+13], -20 ; ffffffecH
  00118	eb 44		 jmp	 SHORT $LN111@LoadString
$LN84@LoadString:
  0011a	c6 45 f8 ed	 mov	 BYTE PTR __k$[ebp+12], -19 ; ffffffedH
  0011e	eb 3e		 jmp	 SHORT $LN111@LoadString
$LN86@LoadString:
  00120	88 4d f6	 mov	 BYTE PTR __k$[ebp+10], cl
  00123	eb 39		 jmp	 SHORT $LN111@LoadString
$LN87@LoadString:
  00125	c6 45 f5 ec	 mov	 BYTE PTR __k$[ebp+9], -20 ; ffffffecH
  00129	eb 33		 jmp	 SHORT $LN111@LoadString
$LN88@LoadString:
  0012b	c6 45 f4 ed	 mov	 BYTE PTR __k$[ebp+8], -19 ; ffffffedH
  0012f	eb 2d		 jmp	 SHORT $LN111@LoadString
$LN89@LoadString:
  00131	c6 45 f3 ea	 mov	 BYTE PTR __k$[ebp+7], -22 ; ffffffeaH
  00135	eb 27		 jmp	 SHORT $LN111@LoadString
$LN90@LoadString:
  00137	88 4d f2	 mov	 BYTE PTR __k$[ebp+6], cl
  0013a	eb 22		 jmp	 SHORT $LN111@LoadString
$LN91@LoadString:
  0013c	c6 45 f1 ec	 mov	 BYTE PTR __k$[ebp+5], -20 ; ffffffecH
  00140	eb 1c		 jmp	 SHORT $LN111@LoadString
$LN92@LoadString:
  00142	c6 45 f0 ed	 mov	 BYTE PTR __k$[ebp+4], -19 ; ffffffedH
  00146	eb 16		 jmp	 SHORT $LN111@LoadString
$LN93@LoadString:
  00148	c6 45 ef ea	 mov	 BYTE PTR __k$[ebp+3], -22 ; ffffffeaH
  0014c	eb 10		 jmp	 SHORT $LN111@LoadString
$LN94@LoadString:
  0014e	c6 45 ee eb	 mov	 BYTE PTR __k$[ebp+2], -21 ; ffffffebH
  00152	eb 0a		 jmp	 SHORT $LN111@LoadString
$LN95@LoadString:
  00154	c6 45 ed ec	 mov	 BYTE PTR __k$[ebp+1], -20 ; ffffffecH
  00158	eb 04		 jmp	 SHORT $LN111@LoadString
$LN96@LoadString:
  0015a	c6 45 ec ed	 mov	 BYTE PTR __k$[ebp], -19	; ffffffedH
$LN111@LoadString:
  0015e	6a 02		 push	 2
  00160	8d 45 ec	 lea	 eax, DWORD PTR __k$[ebp]
  00163	c6 45 f7 00	 mov	 BYTE PTR __k$[ebp+11], 0
  00167	5a		 pop	 edx
$LL104@LoadString:
  00168	81 30 ed ec eb
	ea		 xor	 DWORD PTR [eax], -353637139 ; eaebecedH
  0016e	83 c0 04	 add	 eax, 4
  00171	4a		 dec	 edx
  00172	75 f4		 jne	 SHORT $LL104@LoadString
  00174	6a 08		 push	 8
  00176	58		 pop	 eax
$LL101@LoadString:
  00177	8b c8		 mov	 ecx, eax
  00179	81 e1 03 00 00
	80		 and	 ecx, -2147483645	; 80000003H
  0017f	79 05		 jns	 SHORT $LN112@LoadString
  00181	49		 dec	 ecx
  00182	83 c9 fc	 or	 ecx, -4			; fffffffcH
  00185	41		 inc	 ecx
$LN112@LoadString:
  00186	b2 ed		 mov	 dl, -19			; ffffffedH
  00188	2a d1		 sub	 dl, cl
  0018a	30 54 05 ec	 xor	 BYTE PTR __k$[ebp+eax], dl
  0018e	40		 inc	 eax
  0018f	83 f8 0b	 cmp	 eax, 11			; 0000000bH
  00192	7c e3		 jl	 SHORT $LL101@LoadString

; 163  : 		LoadString(_k, d, b, i);

  00194	ff 75 14	 push	 DWORD PTR _i$[ebp]
  00197	8b 4d e8	 mov	 ecx, DWORD PTR _this$GSCopy$[ebp]
  0019a	57		 push	 edi
  0019b	56		 push	 esi
  0019c	8d 45 ec	 lea	 eax, DWORD PTR __k$[ebp]
  0019f	50		 push	 eax
  001a0	ff 15 00 00 00
	00		 call	 DWORD PTR __imp_?LoadStringA@ioINILoader@@QAEXPBD0PADH@Z

; 164  : 	}

  001a6	8b 4d fc	 mov	 ecx, DWORD PTR __$ArrayPad$[ebp]
  001a9	5f		 pop	 edi
  001aa	33 cd		 xor	 ecx, ebp
  001ac	5e		 pop	 esi
  001ad	e8 00 00 00 00	 call	 @__security_check_cookie@4
  001b2	c9		 leave
  001b3	c2 10 00	 ret	 16			; 00000010H
??$LoadString_e@$0M@@ioINILoader@@QAEXAAY0M@$$CBDAAY00$$CBDPADH@Z ENDP ; ioINILoader::LoadString_e<12>
_TEXT	ENDS
PUBLIC	__$ArrayPad$
PUBLIC	??$LoadFloat_e@$0BB@@ioINILoader@@QAEMAAY0BB@$$CBDM@Z ; ioINILoader::LoadFloat_e<17>
EXTRN	__imp_?LoadFloat@ioINILoader@@QAEMPBDM@Z:PROC
; Function compile flags: /Ogsp
;	COMDAT ??$LoadFloat_e@$0BB@@ioINILoader@@QAEMAAY0BB@$$CBDM@Z
_TEXT	SEGMENT
__k$ = -28						; size = 17
__$ArrayPad$ = -4					; size = 4
_k$ = 8							; size = 4
_f$ = 12						; size = 4
??$LoadFloat_e@$0BB@@ioINILoader@@QAEMAAY0BB@$$CBDM@Z PROC ; ioINILoader::LoadFloat_e<17>, COMDAT
; _this$ = ecx

; 135  : 	{

  00000	55		 push	 ebp
  00001	8b ec		 mov	 ebp, esp
  00003	83 ec 1c	 sub	 esp, 28			; 0000001cH
  00006	a1 00 00 00 00	 mov	 eax, DWORD PTR ___security_cookie
  0000b	33 c5		 xor	 eax, ebp
  0000d	89 45 fc	 mov	 DWORD PTR __$ArrayPad$[ebp], eax
  00010	8b 45 08	 mov	 eax, DWORD PTR _k$[ebp]

; 136  : 		_ENCSTR(k, _k);

  00013	8a 10		 mov	 dl, BYTE PTR [eax]
  00015	56		 push	 esi
  00016	8b f1		 mov	 esi, ecx
  00018	84 d2		 test	 dl, dl
  0001a	0f 84 a7 01 00
	00		 je	 $LN96@LoadFloat_
  00020	80 f2 ed	 xor	 dl, -19			; ffffffedH
  00023	88 55 e4	 mov	 BYTE PTR __k$[ebp], dl
  00026	8a 50 01	 mov	 dl, BYTE PTR [eax+1]
  00029	84 d2		 test	 dl, dl
  0002b	0f 84 90 01 00
	00		 je	 $LN95@LoadFloat_
  00031	b1 ec		 mov	 cl, -20			; ffffffecH
  00033	32 d1		 xor	 dl, cl
  00035	88 55 e5	 mov	 BYTE PTR __k$[ebp+1], dl
  00038	8a 50 02	 mov	 dl, BYTE PTR [eax+2]
  0003b	84 d2		 test	 dl, dl
  0003d	0f 84 78 01 00
	00		 je	 $LN94@LoadFloat_
  00043	80 f2 eb	 xor	 dl, -21			; ffffffebH
  00046	88 55 e6	 mov	 BYTE PTR __k$[ebp+2], dl
  00049	8a 50 03	 mov	 dl, BYTE PTR [eax+3]
  0004c	84 d2		 test	 dl, dl
  0004e	0f 84 61 01 00
	00		 je	 $LN93@LoadFloat_
  00054	80 f2 ea	 xor	 dl, -22			; ffffffeaH
  00057	88 55 e7	 mov	 BYTE PTR __k$[ebp+3], dl
  0005a	8a 50 04	 mov	 dl, BYTE PTR [eax+4]
  0005d	84 d2		 test	 dl, dl
  0005f	0f 84 4a 01 00
	00		 je	 $LN92@LoadFloat_
  00065	80 f2 ed	 xor	 dl, -19			; ffffffedH
  00068	88 55 e8	 mov	 BYTE PTR __k$[ebp+4], dl
  0006b	8a 50 05	 mov	 dl, BYTE PTR [eax+5]
  0006e	84 d2		 test	 dl, dl
  00070	0f 84 34 01 00
	00		 je	 $LN91@LoadFloat_
  00076	32 d1		 xor	 dl, cl
  00078	88 55 e9	 mov	 BYTE PTR __k$[ebp+5], dl
  0007b	8a 50 06	 mov	 dl, BYTE PTR [eax+6]
  0007e	84 d2		 test	 dl, dl
  00080	0f 84 1e 01 00
	00		 je	 $LN90@LoadFloat_
  00086	80 f2 eb	 xor	 dl, -21			; ffffffebH
  00089	88 55 ea	 mov	 BYTE PTR __k$[ebp+6], dl
  0008c	8a 50 07	 mov	 dl, BYTE PTR [eax+7]
  0008f	84 d2		 test	 dl, dl
  00091	0f 84 07 01 00
	00		 je	 $LN89@LoadFloat_
  00097	80 f2 ea	 xor	 dl, -22			; ffffffeaH
  0009a	88 55 eb	 mov	 BYTE PTR __k$[ebp+7], dl
  0009d	8a 50 08	 mov	 dl, BYTE PTR [eax+8]
  000a0	84 d2		 test	 dl, dl
  000a2	0f 84 f0 00 00
	00		 je	 $LN88@LoadFloat_
  000a8	80 f2 ed	 xor	 dl, -19			; ffffffedH
  000ab	88 55 ec	 mov	 BYTE PTR __k$[ebp+8], dl
  000ae	8a 50 09	 mov	 dl, BYTE PTR [eax+9]
  000b1	84 d2		 test	 dl, dl
  000b3	0f 84 da 00 00
	00		 je	 $LN87@LoadFloat_
  000b9	32 d1		 xor	 dl, cl
  000bb	88 55 ed	 mov	 BYTE PTR __k$[ebp+9], dl
  000be	8a 50 0a	 mov	 dl, BYTE PTR [eax+10]
  000c1	84 d2		 test	 dl, dl
  000c3	0f 84 c4 00 00
	00		 je	 $LN86@LoadFloat_
  000c9	80 f2 eb	 xor	 dl, -21			; ffffffebH
  000cc	88 55 ee	 mov	 BYTE PTR __k$[ebp+10], dl
  000cf	8a 50 0b	 mov	 dl, BYTE PTR [eax+11]
  000d2	84 d2		 test	 dl, dl
  000d4	0f 84 ad 00 00
	00		 je	 $LN85@LoadFloat_
  000da	80 f2 ea	 xor	 dl, -22			; ffffffeaH
  000dd	88 55 ef	 mov	 BYTE PTR __k$[ebp+11], dl
  000e0	8a 50 0c	 mov	 dl, BYTE PTR [eax+12]
  000e3	84 d2		 test	 dl, dl
  000e5	0f 84 96 00 00
	00		 je	 $LN84@LoadFloat_
  000eb	80 f2 ed	 xor	 dl, -19			; ffffffedH
  000ee	88 55 f0	 mov	 BYTE PTR __k$[ebp+12], dl
  000f1	8a 50 0d	 mov	 dl, BYTE PTR [eax+13]
  000f4	84 d2		 test	 dl, dl
  000f6	0f 84 80 00 00
	00		 je	 $LN83@LoadFloat_
  000fc	32 d1		 xor	 dl, cl
  000fe	88 55 f1	 mov	 BYTE PTR __k$[ebp+13], dl
  00101	8a 50 0e	 mov	 dl, BYTE PTR [eax+14]
  00104	84 d2		 test	 dl, dl
  00106	74 6e		 je	 SHORT $LN82@LoadFloat_
  00108	80 f2 eb	 xor	 dl, -21			; ffffffebH
  0010b	88 55 f2	 mov	 BYTE PTR __k$[ebp+14], dl
  0010e	8a 50 0f	 mov	 dl, BYTE PTR [eax+15]
  00111	84 d2		 test	 dl, dl
  00113	74 5b		 je	 SHORT $LN81@LoadFloat_
  00115	80 f2 ea	 xor	 dl, -22			; ffffffeaH
  00118	80 78 10 00	 cmp	 BYTE PTR [eax+16], 0
  0011c	88 55 f3	 mov	 BYTE PTR __k$[ebp+15], dl
  0011f	0f 84 a6 00 00
	00		 je	 $LN1@LoadFloat_
  00125	8a 50 11	 mov	 dl, BYTE PTR [eax+17]
  00128	84 d2		 test	 dl, dl
  0012a	74 3f		 je	 SHORT $LN79@LoadFloat_
  0012c	32 d1		 xor	 dl, cl
  0012e	88 55 f5	 mov	 BYTE PTR __k$[ebp+17], dl
  00131	8a 50 12	 mov	 dl, BYTE PTR [eax+18]
  00134	84 d2		 test	 dl, dl
  00136	74 2d		 je	 SHORT $LN78@LoadFloat_
  00138	80 f2 eb	 xor	 dl, -21			; ffffffebH
  0013b	88 55 f6	 mov	 BYTE PTR __k$[ebp+18], dl
  0013e	8a 50 13	 mov	 dl, BYTE PTR [eax+19]
  00141	84 d2		 test	 dl, dl
  00143	74 1a		 je	 SHORT $LN77@LoadFloat_
  00145	8a 40 14	 mov	 al, BYTE PTR [eax+20]
  00148	80 f2 ea	 xor	 dl, -22			; ffffffeaH
  0014b	88 55 f7	 mov	 BYTE PTR __k$[ebp+19], dl
  0014e	84 c0		 test	 al, al
  00150	74 07		 je	 SHORT $LN76@LoadFloat_
  00152	34 ed		 xor	 al, -19			; ffffffedH
  00154	88 45 f8	 mov	 BYTE PTR __k$[ebp+20], al
  00157	eb 72		 jmp	 SHORT $LN1@LoadFloat_
$LN76@LoadFloat_:
  00159	c6 45 f8 ed	 mov	 BYTE PTR __k$[ebp+20], -19 ; ffffffedH
  0015d	eb 6c		 jmp	 SHORT $LN1@LoadFloat_
$LN77@LoadFloat_:
  0015f	c6 45 f7 ea	 mov	 BYTE PTR __k$[ebp+19], -22 ; ffffffeaH
  00163	eb 66		 jmp	 SHORT $LN1@LoadFloat_
$LN78@LoadFloat_:
  00165	c6 45 f6 eb	 mov	 BYTE PTR __k$[ebp+18], -21 ; ffffffebH
  00169	eb 60		 jmp	 SHORT $LN1@LoadFloat_
$LN79@LoadFloat_:
  0016b	88 4d f5	 mov	 BYTE PTR __k$[ebp+17], cl
  0016e	eb 5b		 jmp	 SHORT $LN1@LoadFloat_
$LN81@LoadFloat_:
  00170	c6 45 f3 ea	 mov	 BYTE PTR __k$[ebp+15], -22 ; ffffffeaH
  00174	eb 55		 jmp	 SHORT $LN1@LoadFloat_
$LN82@LoadFloat_:
  00176	c6 45 f2 eb	 mov	 BYTE PTR __k$[ebp+14], -21 ; ffffffebH
  0017a	eb 4f		 jmp	 SHORT $LN1@LoadFloat_
$LN83@LoadFloat_:
  0017c	88 4d f1	 mov	 BYTE PTR __k$[ebp+13], cl
  0017f	eb 4a		 jmp	 SHORT $LN1@LoadFloat_
$LN84@LoadFloat_:
  00181	c6 45 f0 ed	 mov	 BYTE PTR __k$[ebp+12], -19 ; ffffffedH
  00185	eb 44		 jmp	 SHORT $LN1@LoadFloat_
$LN85@LoadFloat_:
  00187	c6 45 ef ea	 mov	 BYTE PTR __k$[ebp+11], -22 ; ffffffeaH
  0018b	eb 3e		 jmp	 SHORT $LN1@LoadFloat_
$LN86@LoadFloat_:
  0018d	c6 45 ee eb	 mov	 BYTE PTR __k$[ebp+10], -21 ; ffffffebH
  00191	eb 38		 jmp	 SHORT $LN1@LoadFloat_
$LN87@LoadFloat_:
  00193	88 4d ed	 mov	 BYTE PTR __k$[ebp+9], cl
  00196	eb 33		 jmp	 SHORT $LN1@LoadFloat_
$LN88@LoadFloat_:
  00198	c6 45 ec ed	 mov	 BYTE PTR __k$[ebp+8], -19 ; ffffffedH
  0019c	eb 2d		 jmp	 SHORT $LN1@LoadFloat_
$LN89@LoadFloat_:
  0019e	c6 45 eb ea	 mov	 BYTE PTR __k$[ebp+7], -22 ; ffffffeaH
  001a2	eb 27		 jmp	 SHORT $LN1@LoadFloat_
$LN90@LoadFloat_:
  001a4	c6 45 ea eb	 mov	 BYTE PTR __k$[ebp+6], -21 ; ffffffebH
  001a8	eb 21		 jmp	 SHORT $LN1@LoadFloat_
$LN91@LoadFloat_:
  001aa	88 4d e9	 mov	 BYTE PTR __k$[ebp+5], cl
  001ad	eb 1c		 jmp	 SHORT $LN1@LoadFloat_
$LN92@LoadFloat_:
  001af	c6 45 e8 ed	 mov	 BYTE PTR __k$[ebp+4], -19 ; ffffffedH
  001b3	eb 16		 jmp	 SHORT $LN1@LoadFloat_
$LN93@LoadFloat_:
  001b5	c6 45 e7 ea	 mov	 BYTE PTR __k$[ebp+3], -22 ; ffffffeaH
  001b9	eb 10		 jmp	 SHORT $LN1@LoadFloat_
$LN94@LoadFloat_:
  001bb	c6 45 e6 eb	 mov	 BYTE PTR __k$[ebp+2], -21 ; ffffffebH
  001bf	eb 0a		 jmp	 SHORT $LN1@LoadFloat_
$LN95@LoadFloat_:
  001c1	c6 45 e5 ec	 mov	 BYTE PTR __k$[ebp+1], -20 ; ffffffecH
  001c5	eb 04		 jmp	 SHORT $LN1@LoadFloat_
$LN96@LoadFloat_:
  001c7	c6 45 e4 ed	 mov	 BYTE PTR __k$[ebp], -19	; ffffffedH
$LN1@LoadFloat_:
  001cb	6a 04		 push	 4
  001cd	8d 45 e4	 lea	 eax, DWORD PTR __k$[ebp]
  001d0	c6 45 f4 00	 mov	 BYTE PTR __k$[ebp+16], 0
  001d4	5a		 pop	 edx
$LL104@LoadFloat_:
  001d5	81 30 ed ec eb
	ea		 xor	 DWORD PTR [eax], -353637139 ; eaebecedH
  001db	83 c0 04	 add	 eax, 4
  001de	4a		 dec	 edx
  001df	75 f4		 jne	 SHORT $LL104@LoadFloat_

; 137  : 		return LoadFloat(_k, f);

  001e1	f3 0f 10 45 0c	 movss	 xmm0, DWORD PTR _f$[ebp]
  001e6	51		 push	 ecx
  001e7	8d 45 e4	 lea	 eax, DWORD PTR __k$[ebp]
  001ea	f3 0f 11 04 24	 movss	 DWORD PTR [esp], xmm0
  001ef	50		 push	 eax
  001f0	8b ce		 mov	 ecx, esi
  001f2	ff 15 00 00 00
	00		 call	 DWORD PTR __imp_?LoadFloat@ioINILoader@@QAEMPBDM@Z

; 138  : 	}

  001f8	8b 4d fc	 mov	 ecx, DWORD PTR __$ArrayPad$[ebp]
  001fb	33 cd		 xor	 ecx, ebp
  001fd	5e		 pop	 esi
  001fe	e8 00 00 00 00	 call	 @__security_check_cookie@4
  00203	c9		 leave
  00204	c2 08 00	 ret	 8
??$LoadFloat_e@$0BB@@ioINILoader@@QAEMAAY0BB@$$CBDM@Z ENDP ; ioINILoader::LoadFloat_e<17>
_TEXT	ENDS
PUBLIC	__$ArrayPad$
PUBLIC	??$LoadFloat_e@$0BI@@ioINILoader@@QAEMAAY0BI@$$CBDM@Z ; ioINILoader::LoadFloat_e<24>
; Function compile flags: /Ogsp
;	COMDAT ??$LoadFloat_e@$0BI@@ioINILoader@@QAEMAAY0BI@$$CBDM@Z
_TEXT	SEGMENT
__k$ = -32						; size = 24
__$ArrayPad$ = -4					; size = 4
_k$ = 8							; size = 4
_f$ = 12						; size = 4
??$LoadFloat_e@$0BI@@ioINILoader@@QAEMAAY0BI@$$CBDM@Z PROC ; ioINILoader::LoadFloat_e<24>, COMDAT
; _this$ = ecx

; 135  : 	{

  00000	55		 push	 ebp
  00001	8b ec		 mov	 ebp, esp
  00003	83 ec 20	 sub	 esp, 32			; 00000020H
  00006	a1 00 00 00 00	 mov	 eax, DWORD PTR ___security_cookie
  0000b	33 c5		 xor	 eax, ebp
  0000d	89 45 fc	 mov	 DWORD PTR __$ArrayPad$[ebp], eax
  00010	8b 45 08	 mov	 eax, DWORD PTR _k$[ebp]

; 136  : 		_ENCSTR(k, _k);

  00013	8a 10		 mov	 dl, BYTE PTR [eax]
  00015	53		 push	 ebx
  00016	56		 push	 esi
  00017	8b f1		 mov	 esi, ecx
  00019	84 d2		 test	 dl, dl
  0001b	0f 84 45 02 00
	00		 je	 $LN96@LoadFloat_@2
  00021	80 f2 ed	 xor	 dl, -19			; ffffffedH
  00024	88 55 e0	 mov	 BYTE PTR __k$[ebp], dl
  00027	8a 50 01	 mov	 dl, BYTE PTR [eax+1]
  0002a	84 d2		 test	 dl, dl
  0002c	0f 84 2e 02 00
	00		 je	 $LN95@LoadFloat_@2
  00032	b3 ec		 mov	 bl, -20			; ffffffecH
  00034	32 d3		 xor	 dl, bl
  00036	88 55 e1	 mov	 BYTE PTR __k$[ebp+1], dl
  00039	8a 50 02	 mov	 dl, BYTE PTR [eax+2]
  0003c	84 d2		 test	 dl, dl
  0003e	0f 84 16 02 00
	00		 je	 $LN94@LoadFloat_@2
  00044	b1 eb		 mov	 cl, -21			; ffffffebH
  00046	32 d1		 xor	 dl, cl
  00048	88 55 e2	 mov	 BYTE PTR __k$[ebp+2], dl
  0004b	8a 50 03	 mov	 dl, BYTE PTR [eax+3]
  0004e	84 d2		 test	 dl, dl
  00050	0f 84 fe 01 00
	00		 je	 $LN93@LoadFloat_@2
  00056	80 f2 ea	 xor	 dl, -22			; ffffffeaH
  00059	88 55 e3	 mov	 BYTE PTR __k$[ebp+3], dl
  0005c	8a 50 04	 mov	 dl, BYTE PTR [eax+4]
  0005f	84 d2		 test	 dl, dl
  00061	0f 84 e7 01 00
	00		 je	 $LN92@LoadFloat_@2
  00067	80 f2 ed	 xor	 dl, -19			; ffffffedH
  0006a	88 55 e4	 mov	 BYTE PTR __k$[ebp+4], dl
  0006d	8a 50 05	 mov	 dl, BYTE PTR [eax+5]
  00070	84 d2		 test	 dl, dl
  00072	0f 84 d1 01 00
	00		 je	 $LN91@LoadFloat_@2
  00078	32 d3		 xor	 dl, bl
  0007a	88 55 e5	 mov	 BYTE PTR __k$[ebp+5], dl
  0007d	8a 50 06	 mov	 dl, BYTE PTR [eax+6]
  00080	84 d2		 test	 dl, dl
  00082	0f 84 bc 01 00
	00		 je	 $LN90@LoadFloat_@2
  00088	32 d1		 xor	 dl, cl
  0008a	88 55 e6	 mov	 BYTE PTR __k$[ebp+6], dl
  0008d	8a 50 07	 mov	 dl, BYTE PTR [eax+7]
  00090	84 d2		 test	 dl, dl
  00092	0f 84 a6 01 00
	00		 je	 $LN89@LoadFloat_@2
  00098	80 f2 ea	 xor	 dl, -22			; ffffffeaH
  0009b	88 55 e7	 mov	 BYTE PTR __k$[ebp+7], dl
  0009e	8a 50 08	 mov	 dl, BYTE PTR [eax+8]
  000a1	84 d2		 test	 dl, dl
  000a3	0f 84 8f 01 00
	00		 je	 $LN88@LoadFloat_@2
  000a9	80 f2 ed	 xor	 dl, -19			; ffffffedH
  000ac	88 55 e8	 mov	 BYTE PTR __k$[ebp+8], dl
  000af	8a 50 09	 mov	 dl, BYTE PTR [eax+9]
  000b2	84 d2		 test	 dl, dl
  000b4	0f 84 79 01 00
	00		 je	 $LN87@LoadFloat_@2
  000ba	32 d3		 xor	 dl, bl
  000bc	88 55 e9	 mov	 BYTE PTR __k$[ebp+9], dl
  000bf	8a 50 0a	 mov	 dl, BYTE PTR [eax+10]
  000c2	84 d2		 test	 dl, dl
  000c4	0f 84 64 01 00
	00		 je	 $LN86@LoadFloat_@2
  000ca	32 d1		 xor	 dl, cl
  000cc	88 55 ea	 mov	 BYTE PTR __k$[ebp+10], dl
  000cf	8a 50 0b	 mov	 dl, BYTE PTR [eax+11]
  000d2	84 d2		 test	 dl, dl
  000d4	0f 84 4e 01 00
	00		 je	 $LN85@LoadFloat_@2
  000da	80 f2 ea	 xor	 dl, -22			; ffffffeaH
  000dd	88 55 eb	 mov	 BYTE PTR __k$[ebp+11], dl
  000e0	8a 50 0c	 mov	 dl, BYTE PTR [eax+12]
  000e3	84 d2		 test	 dl, dl
  000e5	0f 84 37 01 00
	00		 je	 $LN84@LoadFloat_@2
  000eb	80 f2 ed	 xor	 dl, -19			; ffffffedH
  000ee	88 55 ec	 mov	 BYTE PTR __k$[ebp+12], dl
  000f1	8a 50 0d	 mov	 dl, BYTE PTR [eax+13]
  000f4	84 d2		 test	 dl, dl
  000f6	0f 84 21 01 00
	00		 je	 $LN83@LoadFloat_@2
  000fc	32 d3		 xor	 dl, bl
  000fe	88 55 ed	 mov	 BYTE PTR __k$[ebp+13], dl
  00101	8a 50 0e	 mov	 dl, BYTE PTR [eax+14]
  00104	84 d2		 test	 dl, dl
  00106	0f 84 0c 01 00
	00		 je	 $LN82@LoadFloat_@2
  0010c	32 d1		 xor	 dl, cl
  0010e	88 55 ee	 mov	 BYTE PTR __k$[ebp+14], dl
  00111	8a 50 0f	 mov	 dl, BYTE PTR [eax+15]
  00114	84 d2		 test	 dl, dl
  00116	0f 84 f6 00 00
	00		 je	 $LN81@LoadFloat_@2
  0011c	80 f2 ea	 xor	 dl, -22			; ffffffeaH
  0011f	88 55 ef	 mov	 BYTE PTR __k$[ebp+15], dl
  00122	8a 50 10	 mov	 dl, BYTE PTR [eax+16]
  00125	84 d2		 test	 dl, dl
  00127	0f 84 df 00 00
	00		 je	 $LN80@LoadFloat_@2
  0012d	80 f2 ed	 xor	 dl, -19			; ffffffedH
  00130	88 55 f0	 mov	 BYTE PTR __k$[ebp+16], dl
  00133	8a 50 11	 mov	 dl, BYTE PTR [eax+17]
  00136	84 d2		 test	 dl, dl
  00138	0f 84 c9 00 00
	00		 je	 $LN79@LoadFloat_@2
  0013e	32 d3		 xor	 dl, bl
  00140	88 55 f1	 mov	 BYTE PTR __k$[ebp+17], dl
  00143	8a 50 12	 mov	 dl, BYTE PTR [eax+18]
  00146	84 d2		 test	 dl, dl
  00148	0f 84 b4 00 00
	00		 je	 $LN78@LoadFloat_@2
  0014e	32 d1		 xor	 dl, cl
  00150	88 55 f2	 mov	 BYTE PTR __k$[ebp+18], dl
  00153	8a 50 13	 mov	 dl, BYTE PTR [eax+19]
  00156	84 d2		 test	 dl, dl
  00158	0f 84 9e 00 00
	00		 je	 $LN77@LoadFloat_@2
  0015e	80 f2 ea	 xor	 dl, -22			; ffffffeaH
  00161	88 55 f3	 mov	 BYTE PTR __k$[ebp+19], dl
  00164	8a 50 14	 mov	 dl, BYTE PTR [eax+20]
  00167	84 d2		 test	 dl, dl
  00169	0f 84 87 00 00
	00		 je	 $LN76@LoadFloat_@2
  0016f	80 f2 ed	 xor	 dl, -19			; ffffffedH
  00172	88 55 f4	 mov	 BYTE PTR __k$[ebp+20], dl
  00175	8a 50 15	 mov	 dl, BYTE PTR [eax+21]
  00178	84 d2		 test	 dl, dl
  0017a	74 75		 je	 SHORT $LN75@LoadFloat_@2
  0017c	32 d3		 xor	 dl, bl
  0017e	88 55 f5	 mov	 BYTE PTR __k$[ebp+21], dl
  00181	8a 50 16	 mov	 dl, BYTE PTR [eax+22]
  00184	84 d2		 test	 dl, dl
  00186	74 64		 je	 SHORT $LN74@LoadFloat_@2
  00188	32 d1		 xor	 dl, cl
  0018a	80 78 17 00	 cmp	 BYTE PTR [eax+23], 0
  0018e	88 55 f6	 mov	 BYTE PTR __k$[ebp+22], dl
  00191	0f 84 d3 00 00
	00		 je	 $LN1@LoadFloat_@2
  00197	8a 50 18	 mov	 dl, BYTE PTR [eax+24]
  0019a	84 d2		 test	 dl, dl
  0019c	74 48		 je	 SHORT $LN72@LoadFloat_@2
  0019e	80 f2 ed	 xor	 dl, -19			; ffffffedH
  001a1	88 55 f8	 mov	 BYTE PTR __k$[ebp+24], dl
  001a4	8a 50 19	 mov	 dl, BYTE PTR [eax+25]
  001a7	84 d2		 test	 dl, dl
  001a9	74 33		 je	 SHORT $LN71@LoadFloat_@2
  001ab	32 d3		 xor	 dl, bl
  001ad	88 55 f9	 mov	 BYTE PTR __k$[ebp+25], dl
  001b0	8a 50 1a	 mov	 dl, BYTE PTR [eax+26]
  001b3	84 d2		 test	 dl, dl
  001b5	74 1f		 je	 SHORT $LN70@LoadFloat_@2
  001b7	8a 40 1b	 mov	 al, BYTE PTR [eax+27]
  001ba	32 d1		 xor	 dl, cl
  001bc	88 55 fa	 mov	 BYTE PTR __k$[ebp+26], dl
  001bf	84 c0		 test	 al, al
  001c1	74 0a		 je	 SHORT $LN69@LoadFloat_@2
  001c3	34 ea		 xor	 al, -22			; ffffffeaH
  001c5	88 45 fb	 mov	 BYTE PTR __k$[ebp+27], al
  001c8	e9 9d 00 00 00	 jmp	 $LN1@LoadFloat_@2
$LN69@LoadFloat_@2:
  001cd	c6 45 fb ea	 mov	 BYTE PTR __k$[ebp+27], -22 ; ffffffeaH
  001d1	e9 94 00 00 00	 jmp	 $LN1@LoadFloat_@2
$LN70@LoadFloat_@2:
  001d6	88 4d fa	 mov	 BYTE PTR __k$[ebp+26], cl
  001d9	e9 8c 00 00 00	 jmp	 $LN1@LoadFloat_@2
$LN71@LoadFloat_@2:
  001de	88 5d f9	 mov	 BYTE PTR __k$[ebp+25], bl
  001e1	e9 84 00 00 00	 jmp	 $LN1@LoadFloat_@2
$LN72@LoadFloat_@2:
  001e6	c6 45 f8 ed	 mov	 BYTE PTR __k$[ebp+24], -19 ; ffffffedH
  001ea	eb 7e		 jmp	 SHORT $LN1@LoadFloat_@2
$LN74@LoadFloat_@2:
  001ec	88 4d f6	 mov	 BYTE PTR __k$[ebp+22], cl
  001ef	eb 79		 jmp	 SHORT $LN1@LoadFloat_@2
$LN75@LoadFloat_@2:
  001f1	88 5d f5	 mov	 BYTE PTR __k$[ebp+21], bl
  001f4	eb 74		 jmp	 SHORT $LN1@LoadFloat_@2
$LN76@LoadFloat_@2:
  001f6	c6 45 f4 ed	 mov	 BYTE PTR __k$[ebp+20], -19 ; ffffffedH
  001fa	eb 6e		 jmp	 SHORT $LN1@LoadFloat_@2
$LN77@LoadFloat_@2:
  001fc	c6 45 f3 ea	 mov	 BYTE PTR __k$[ebp+19], -22 ; ffffffeaH
  00200	eb 68		 jmp	 SHORT $LN1@LoadFloat_@2
$LN78@LoadFloat_@2:
  00202	88 4d f2	 mov	 BYTE PTR __k$[ebp+18], cl
  00205	eb 63		 jmp	 SHORT $LN1@LoadFloat_@2
$LN79@LoadFloat_@2:
  00207	88 5d f1	 mov	 BYTE PTR __k$[ebp+17], bl
  0020a	eb 5e		 jmp	 SHORT $LN1@LoadFloat_@2
$LN80@LoadFloat_@2:
  0020c	c6 45 f0 ed	 mov	 BYTE PTR __k$[ebp+16], -19 ; ffffffedH
  00210	eb 58		 jmp	 SHORT $LN1@LoadFloat_@2
$LN81@LoadFloat_@2:
  00212	c6 45 ef ea	 mov	 BYTE PTR __k$[ebp+15], -22 ; ffffffeaH
  00216	eb 52		 jmp	 SHORT $LN1@LoadFloat_@2
$LN82@LoadFloat_@2:
  00218	88 4d ee	 mov	 BYTE PTR __k$[ebp+14], cl
  0021b	eb 4d		 jmp	 SHORT $LN1@LoadFloat_@2
$LN83@LoadFloat_@2:
  0021d	88 5d ed	 mov	 BYTE PTR __k$[ebp+13], bl
  00220	eb 48		 jmp	 SHORT $LN1@LoadFloat_@2
$LN84@LoadFloat_@2:
  00222	c6 45 ec ed	 mov	 BYTE PTR __k$[ebp+12], -19 ; ffffffedH
  00226	eb 42		 jmp	 SHORT $LN1@LoadFloat_@2
$LN85@LoadFloat_@2:
  00228	c6 45 eb ea	 mov	 BYTE PTR __k$[ebp+11], -22 ; ffffffeaH
  0022c	eb 3c		 jmp	 SHORT $LN1@LoadFloat_@2
$LN86@LoadFloat_@2:
  0022e	88 4d ea	 mov	 BYTE PTR __k$[ebp+10], cl
  00231	eb 37		 jmp	 SHORT $LN1@LoadFloat_@2
$LN87@LoadFloat_@2:
  00233	88 5d e9	 mov	 BYTE PTR __k$[ebp+9], bl
  00236	eb 32		 jmp	 SHORT $LN1@LoadFloat_@2
$LN88@LoadFloat_@2:
  00238	c6 45 e8 ed	 mov	 BYTE PTR __k$[ebp+8], -19 ; ffffffedH
  0023c	eb 2c		 jmp	 SHORT $LN1@LoadFloat_@2
$LN89@LoadFloat_@2:
  0023e	c6 45 e7 ea	 mov	 BYTE PTR __k$[ebp+7], -22 ; ffffffeaH
  00242	eb 26		 jmp	 SHORT $LN1@LoadFloat_@2
$LN90@LoadFloat_@2:
  00244	88 4d e6	 mov	 BYTE PTR __k$[ebp+6], cl
  00247	eb 21		 jmp	 SHORT $LN1@LoadFloat_@2
$LN91@LoadFloat_@2:
  00249	88 5d e5	 mov	 BYTE PTR __k$[ebp+5], bl
  0024c	eb 1c		 jmp	 SHORT $LN1@LoadFloat_@2
$LN92@LoadFloat_@2:
  0024e	c6 45 e4 ed	 mov	 BYTE PTR __k$[ebp+4], -19 ; ffffffedH
  00252	eb 16		 jmp	 SHORT $LN1@LoadFloat_@2
$LN93@LoadFloat_@2:
  00254	c6 45 e3 ea	 mov	 BYTE PTR __k$[ebp+3], -22 ; ffffffeaH
  00258	eb 10		 jmp	 SHORT $LN1@LoadFloat_@2
$LN94@LoadFloat_@2:
  0025a	c6 45 e2 eb	 mov	 BYTE PTR __k$[ebp+2], -21 ; ffffffebH
  0025e	eb 0a		 jmp	 SHORT $LN1@LoadFloat_@2
$LN95@LoadFloat_@2:
  00260	c6 45 e1 ec	 mov	 BYTE PTR __k$[ebp+1], -20 ; ffffffecH
  00264	eb 04		 jmp	 SHORT $LN1@LoadFloat_@2
$LN96@LoadFloat_@2:
  00266	c6 45 e0 ed	 mov	 BYTE PTR __k$[ebp], -19	; ffffffedH
$LN1@LoadFloat_@2:
  0026a	6a 05		 push	 5
  0026c	8d 45 e0	 lea	 eax, DWORD PTR __k$[ebp]
  0026f	c6 45 f7 00	 mov	 BYTE PTR __k$[ebp+23], 0
  00273	5a		 pop	 edx
$LL104@LoadFloat_@2:
  00274	81 30 ed ec eb
	ea		 xor	 DWORD PTR [eax], -353637139 ; eaebecedH
  0027a	83 c0 04	 add	 eax, 4
  0027d	4a		 dec	 edx
  0027e	75 f4		 jne	 SHORT $LL104@LoadFloat_@2
  00280	6a 14		 push	 20			; 00000014H
  00282	58		 pop	 eax
$LL101@LoadFloat_@2:
  00283	8b c8		 mov	 ecx, eax
  00285	81 e1 03 00 00
	80		 and	 ecx, -2147483645	; 80000003H
  0028b	79 05		 jns	 SHORT $LN111@LoadFloat_@2
  0028d	49		 dec	 ecx
  0028e	83 c9 fc	 or	 ecx, -4			; fffffffcH
  00291	41		 inc	 ecx
$LN111@LoadFloat_@2:
  00292	b2 ed		 mov	 dl, -19			; ffffffedH
  00294	2a d1		 sub	 dl, cl
  00296	30 54 05 e0	 xor	 BYTE PTR __k$[ebp+eax], dl
  0029a	40		 inc	 eax
  0029b	83 f8 17	 cmp	 eax, 23			; 00000017H
  0029e	7c e3		 jl	 SHORT $LL101@LoadFloat_@2

; 137  : 		return LoadFloat(_k, f);

  002a0	f3 0f 10 45 0c	 movss	 xmm0, DWORD PTR _f$[ebp]
  002a5	51		 push	 ecx
  002a6	8d 45 e0	 lea	 eax, DWORD PTR __k$[ebp]
  002a9	f3 0f 11 04 24	 movss	 DWORD PTR [esp], xmm0
  002ae	50		 push	 eax
  002af	8b ce		 mov	 ecx, esi
  002b1	ff 15 00 00 00
	00		 call	 DWORD PTR __imp_?LoadFloat@ioINILoader@@QAEMPBDM@Z

; 138  : 	}

  002b7	8b 4d fc	 mov	 ecx, DWORD PTR __$ArrayPad$[ebp]
  002ba	5e		 pop	 esi
  002bb	33 cd		 xor	 ecx, ebp
  002bd	5b		 pop	 ebx
  002be	e8 00 00 00 00	 call	 @__security_check_cookie@4
  002c3	c9		 leave
  002c4	c2 08 00	 ret	 8
??$LoadFloat_e@$0BI@@ioINILoader@@QAEMAAY0BI@$$CBDM@Z ENDP ; ioINILoader::LoadFloat_e<24>
_TEXT	ENDS
PUBLIC	__$ArrayPad$
PUBLIC	??$LoadInt_e@$0BD@@ioINILoader@@QAEHAAY0BD@$$CBDH@Z ; ioINILoader::LoadInt_e<19>
EXTRN	__imp_?LoadInt@ioINILoader@@QAEHPBDH@Z:PROC
; Function compile flags: /Ogsp
;	COMDAT ??$LoadInt_e@$0BD@@ioINILoader@@QAEHAAY0BD@$$CBDH@Z
_TEXT	SEGMENT
__k$ = -28						; size = 19
__$ArrayPad$ = -4					; size = 4
_k$ = 8							; size = 4
_i$ = 12						; size = 4
??$LoadInt_e@$0BD@@ioINILoader@@QAEHAAY0BD@$$CBDH@Z PROC ; ioINILoader::LoadInt_e<19>, COMDAT
; _this$ = ecx

; 118  : 	{

  00000	55		 push	 ebp
  00001	8b ec		 mov	 ebp, esp
  00003	83 ec 1c	 sub	 esp, 28			; 0000001cH
  00006	a1 00 00 00 00	 mov	 eax, DWORD PTR ___security_cookie
  0000b	33 c5		 xor	 eax, ebp
  0000d	89 45 fc	 mov	 DWORD PTR __$ArrayPad$[ebp], eax
  00010	8b 45 08	 mov	 eax, DWORD PTR _k$[ebp]

; 119  : 		_ENCSTR(k, _k);

  00013	8a 10		 mov	 dl, BYTE PTR [eax]
  00015	56		 push	 esi
  00016	8b f1		 mov	 esi, ecx
  00018	84 d2		 test	 dl, dl
  0001a	0f 84 cf 01 00
	00		 je	 $LN96@LoadInt_e
  00020	80 f2 ed	 xor	 dl, -19			; ffffffedH
  00023	88 55 e4	 mov	 BYTE PTR __k$[ebp], dl
  00026	8a 50 01	 mov	 dl, BYTE PTR [eax+1]
  00029	84 d2		 test	 dl, dl
  0002b	0f 84 b8 01 00
	00		 je	 $LN95@LoadInt_e
  00031	b1 ec		 mov	 cl, -20			; ffffffecH
  00033	32 d1		 xor	 dl, cl
  00035	88 55 e5	 mov	 BYTE PTR __k$[ebp+1], dl
  00038	8a 50 02	 mov	 dl, BYTE PTR [eax+2]
  0003b	84 d2		 test	 dl, dl
  0003d	0f 84 a0 01 00
	00		 je	 $LN94@LoadInt_e
  00043	80 f2 eb	 xor	 dl, -21			; ffffffebH
  00046	88 55 e6	 mov	 BYTE PTR __k$[ebp+2], dl
  00049	8a 50 03	 mov	 dl, BYTE PTR [eax+3]
  0004c	84 d2		 test	 dl, dl
  0004e	0f 84 89 01 00
	00		 je	 $LN93@LoadInt_e
  00054	80 f2 ea	 xor	 dl, -22			; ffffffeaH
  00057	88 55 e7	 mov	 BYTE PTR __k$[ebp+3], dl
  0005a	8a 50 04	 mov	 dl, BYTE PTR [eax+4]
  0005d	84 d2		 test	 dl, dl
  0005f	0f 84 72 01 00
	00		 je	 $LN92@LoadInt_e
  00065	80 f2 ed	 xor	 dl, -19			; ffffffedH
  00068	88 55 e8	 mov	 BYTE PTR __k$[ebp+4], dl
  0006b	8a 50 05	 mov	 dl, BYTE PTR [eax+5]
  0006e	84 d2		 test	 dl, dl
  00070	0f 84 5c 01 00
	00		 je	 $LN91@LoadInt_e
  00076	32 d1		 xor	 dl, cl
  00078	88 55 e9	 mov	 BYTE PTR __k$[ebp+5], dl
  0007b	8a 50 06	 mov	 dl, BYTE PTR [eax+6]
  0007e	84 d2		 test	 dl, dl
  00080	0f 84 46 01 00
	00		 je	 $LN90@LoadInt_e
  00086	80 f2 eb	 xor	 dl, -21			; ffffffebH
  00089	88 55 ea	 mov	 BYTE PTR __k$[ebp+6], dl
  0008c	8a 50 07	 mov	 dl, BYTE PTR [eax+7]
  0008f	84 d2		 test	 dl, dl
  00091	0f 84 2f 01 00
	00		 je	 $LN89@LoadInt_e
  00097	80 f2 ea	 xor	 dl, -22			; ffffffeaH
  0009a	88 55 eb	 mov	 BYTE PTR __k$[ebp+7], dl
  0009d	8a 50 08	 mov	 dl, BYTE PTR [eax+8]
  000a0	84 d2		 test	 dl, dl
  000a2	0f 84 18 01 00
	00		 je	 $LN88@LoadInt_e
  000a8	80 f2 ed	 xor	 dl, -19			; ffffffedH
  000ab	88 55 ec	 mov	 BYTE PTR __k$[ebp+8], dl
  000ae	8a 50 09	 mov	 dl, BYTE PTR [eax+9]
  000b1	84 d2		 test	 dl, dl
  000b3	0f 84 02 01 00
	00		 je	 $LN87@LoadInt_e
  000b9	32 d1		 xor	 dl, cl
  000bb	88 55 ed	 mov	 BYTE PTR __k$[ebp+9], dl
  000be	8a 50 0a	 mov	 dl, BYTE PTR [eax+10]
  000c1	84 d2		 test	 dl, dl
  000c3	0f 84 ec 00 00
	00		 je	 $LN86@LoadInt_e
  000c9	80 f2 eb	 xor	 dl, -21			; ffffffebH
  000cc	88 55 ee	 mov	 BYTE PTR __k$[ebp+10], dl
  000cf	8a 50 0b	 mov	 dl, BYTE PTR [eax+11]
  000d2	84 d2		 test	 dl, dl
  000d4	0f 84 d5 00 00
	00		 je	 $LN85@LoadInt_e
  000da	80 f2 ea	 xor	 dl, -22			; ffffffeaH
  000dd	88 55 ef	 mov	 BYTE PTR __k$[ebp+11], dl
  000e0	8a 50 0c	 mov	 dl, BYTE PTR [eax+12]
  000e3	84 d2		 test	 dl, dl
  000e5	0f 84 be 00 00
	00		 je	 $LN84@LoadInt_e
  000eb	80 f2 ed	 xor	 dl, -19			; ffffffedH
  000ee	88 55 f0	 mov	 BYTE PTR __k$[ebp+12], dl
  000f1	8a 50 0d	 mov	 dl, BYTE PTR [eax+13]
  000f4	84 d2		 test	 dl, dl
  000f6	0f 84 a8 00 00
	00		 je	 $LN83@LoadInt_e
  000fc	32 d1		 xor	 dl, cl
  000fe	88 55 f1	 mov	 BYTE PTR __k$[ebp+13], dl
  00101	8a 50 0e	 mov	 dl, BYTE PTR [eax+14]
  00104	84 d2		 test	 dl, dl
  00106	0f 84 92 00 00
	00		 je	 $LN82@LoadInt_e
  0010c	80 f2 eb	 xor	 dl, -21			; ffffffebH
  0010f	88 55 f2	 mov	 BYTE PTR __k$[ebp+14], dl
  00112	8a 50 0f	 mov	 dl, BYTE PTR [eax+15]
  00115	84 d2		 test	 dl, dl
  00117	74 7f		 je	 SHORT $LN81@LoadInt_e
  00119	80 f2 ea	 xor	 dl, -22			; ffffffeaH
  0011c	88 55 f3	 mov	 BYTE PTR __k$[ebp+15], dl
  0011f	8a 50 10	 mov	 dl, BYTE PTR [eax+16]
  00122	84 d2		 test	 dl, dl
  00124	74 6c		 je	 SHORT $LN80@LoadInt_e
  00126	80 f2 ed	 xor	 dl, -19			; ffffffedH
  00129	88 55 f4	 mov	 BYTE PTR __k$[ebp+16], dl
  0012c	8a 50 11	 mov	 dl, BYTE PTR [eax+17]
  0012f	84 d2		 test	 dl, dl
  00131	74 5a		 je	 SHORT $LN79@LoadInt_e
  00133	32 d1		 xor	 dl, cl
  00135	80 78 12 00	 cmp	 BYTE PTR [eax+18], 0
  00139	88 55 f5	 mov	 BYTE PTR __k$[ebp+17], dl
  0013c	0f 84 b1 00 00
	00		 je	 $LN1@LoadInt_e
  00142	8a 50 13	 mov	 dl, BYTE PTR [eax+19]
  00145	84 d2		 test	 dl, dl
  00147	74 3e		 je	 SHORT $LN77@LoadInt_e
  00149	80 f2 ea	 xor	 dl, -22			; ffffffeaH
  0014c	88 55 f7	 mov	 BYTE PTR __k$[ebp+19], dl
  0014f	8a 50 14	 mov	 dl, BYTE PTR [eax+20]
  00152	84 d2		 test	 dl, dl
  00154	74 2b		 je	 SHORT $LN76@LoadInt_e
  00156	80 f2 ed	 xor	 dl, -19			; ffffffedH
  00159	88 55 f8	 mov	 BYTE PTR __k$[ebp+20], dl
  0015c	8a 50 15	 mov	 dl, BYTE PTR [eax+21]
  0015f	84 d2		 test	 dl, dl
  00161	74 19		 je	 SHORT $LN75@LoadInt_e
  00163	8a 40 16	 mov	 al, BYTE PTR [eax+22]
  00166	32 d1		 xor	 dl, cl
  00168	88 55 f9	 mov	 BYTE PTR __k$[ebp+21], dl
  0016b	84 c0		 test	 al, al
  0016d	74 07		 je	 SHORT $LN74@LoadInt_e
  0016f	34 eb		 xor	 al, -21			; ffffffebH
  00171	88 45 fa	 mov	 BYTE PTR __k$[ebp+22], al
  00174	eb 7d		 jmp	 SHORT $LN1@LoadInt_e
$LN74@LoadInt_e:
  00176	c6 45 fa eb	 mov	 BYTE PTR __k$[ebp+22], -21 ; ffffffebH
  0017a	eb 77		 jmp	 SHORT $LN1@LoadInt_e
$LN75@LoadInt_e:
  0017c	88 4d f9	 mov	 BYTE PTR __k$[ebp+21], cl
  0017f	eb 72		 jmp	 SHORT $LN1@LoadInt_e
$LN76@LoadInt_e:
  00181	c6 45 f8 ed	 mov	 BYTE PTR __k$[ebp+20], -19 ; ffffffedH
  00185	eb 6c		 jmp	 SHORT $LN1@LoadInt_e
$LN77@LoadInt_e:
  00187	c6 45 f7 ea	 mov	 BYTE PTR __k$[ebp+19], -22 ; ffffffeaH
  0018b	eb 66		 jmp	 SHORT $LN1@LoadInt_e
$LN79@LoadInt_e:
  0018d	88 4d f5	 mov	 BYTE PTR __k$[ebp+17], cl
  00190	eb 61		 jmp	 SHORT $LN1@LoadInt_e
$LN80@LoadInt_e:
  00192	c6 45 f4 ed	 mov	 BYTE PTR __k$[ebp+16], -19 ; ffffffedH
  00196	eb 5b		 jmp	 SHORT $LN1@LoadInt_e
$LN81@LoadInt_e:
  00198	c6 45 f3 ea	 mov	 BYTE PTR __k$[ebp+15], -22 ; ffffffeaH
  0019c	eb 55		 jmp	 SHORT $LN1@LoadInt_e
$LN82@LoadInt_e:
  0019e	c6 45 f2 eb	 mov	 BYTE PTR __k$[ebp+14], -21 ; ffffffebH
  001a2	eb 4f		 jmp	 SHORT $LN1@LoadInt_e
$LN83@LoadInt_e:
  001a4	88 4d f1	 mov	 BYTE PTR __k$[ebp+13], cl
  001a7	eb 4a		 jmp	 SHORT $LN1@LoadInt_e
$LN84@LoadInt_e:
  001a9	c6 45 f0 ed	 mov	 BYTE PTR __k$[ebp+12], -19 ; ffffffedH
  001ad	eb 44		 jmp	 SHORT $LN1@LoadInt_e
$LN85@LoadInt_e:
  001af	c6 45 ef ea	 mov	 BYTE PTR __k$[ebp+11], -22 ; ffffffeaH
  001b3	eb 3e		 jmp	 SHORT $LN1@LoadInt_e
$LN86@LoadInt_e:
  001b5	c6 45 ee eb	 mov	 BYTE PTR __k$[ebp+10], -21 ; ffffffebH
  001b9	eb 38		 jmp	 SHORT $LN1@LoadInt_e
$LN87@LoadInt_e:
  001bb	88 4d ed	 mov	 BYTE PTR __k$[ebp+9], cl
  001be	eb 33		 jmp	 SHORT $LN1@LoadInt_e
$LN88@LoadInt_e:
  001c0	c6 45 ec ed	 mov	 BYTE PTR __k$[ebp+8], -19 ; ffffffedH
  001c4	eb 2d		 jmp	 SHORT $LN1@LoadInt_e
$LN89@LoadInt_e:
  001c6	c6 45 eb ea	 mov	 BYTE PTR __k$[ebp+7], -22 ; ffffffeaH
  001ca	eb 27		 jmp	 SHORT $LN1@LoadInt_e
$LN90@LoadInt_e:
  001cc	c6 45 ea eb	 mov	 BYTE PTR __k$[ebp+6], -21 ; ffffffebH
  001d0	eb 21		 jmp	 SHORT $LN1@LoadInt_e
$LN91@LoadInt_e:
  001d2	88 4d e9	 mov	 BYTE PTR __k$[ebp+5], cl
  001d5	eb 1c		 jmp	 SHORT $LN1@LoadInt_e
$LN92@LoadInt_e:
  001d7	c6 45 e8 ed	 mov	 BYTE PTR __k$[ebp+4], -19 ; ffffffedH
  001db	eb 16		 jmp	 SHORT $LN1@LoadInt_e
$LN93@LoadInt_e:
  001dd	c6 45 e7 ea	 mov	 BYTE PTR __k$[ebp+3], -22 ; ffffffeaH
  001e1	eb 10		 jmp	 SHORT $LN1@LoadInt_e
$LN94@LoadInt_e:
  001e3	c6 45 e6 eb	 mov	 BYTE PTR __k$[ebp+2], -21 ; ffffffebH
  001e7	eb 0a		 jmp	 SHORT $LN1@LoadInt_e
$LN95@LoadInt_e:
  001e9	c6 45 e5 ec	 mov	 BYTE PTR __k$[ebp+1], -20 ; ffffffecH
  001ed	eb 04		 jmp	 SHORT $LN1@LoadInt_e
$LN96@LoadInt_e:
  001ef	c6 45 e4 ed	 mov	 BYTE PTR __k$[ebp], -19	; ffffffedH
$LN1@LoadInt_e:
  001f3	6a 04		 push	 4
  001f5	8d 45 e4	 lea	 eax, DWORD PTR __k$[ebp]
  001f8	c6 45 f6 00	 mov	 BYTE PTR __k$[ebp+18], 0
  001fc	5a		 pop	 edx
$LL104@LoadInt_e:
  001fd	81 30 ed ec eb
	ea		 xor	 DWORD PTR [eax], -353637139 ; eaebecedH
  00203	83 c0 04	 add	 eax, 4
  00206	4a		 dec	 edx
  00207	75 f4		 jne	 SHORT $LL104@LoadInt_e
  00209	6a 10		 push	 16			; 00000010H
  0020b	58		 pop	 eax
$LL101@LoadInt_e:
  0020c	8b c8		 mov	 ecx, eax
  0020e	81 e1 03 00 00
	80		 and	 ecx, -2147483645	; 80000003H
  00214	79 05		 jns	 SHORT $LN111@LoadInt_e
  00216	49		 dec	 ecx
  00217	83 c9 fc	 or	 ecx, -4			; fffffffcH
  0021a	41		 inc	 ecx
$LN111@LoadInt_e:
  0021b	b2 ed		 mov	 dl, -19			; ffffffedH
  0021d	2a d1		 sub	 dl, cl
  0021f	30 54 05 e4	 xor	 BYTE PTR __k$[ebp+eax], dl
  00223	40		 inc	 eax
  00224	83 f8 12	 cmp	 eax, 18			; 00000012H
  00227	7c e3		 jl	 SHORT $LL101@LoadInt_e

; 120  : 		return LoadInt(_k, i);

  00229	ff 75 0c	 push	 DWORD PTR _i$[ebp]
  0022c	8d 45 e4	 lea	 eax, DWORD PTR __k$[ebp]
  0022f	50		 push	 eax
  00230	8b ce		 mov	 ecx, esi
  00232	ff 15 00 00 00
	00		 call	 DWORD PTR __imp_?LoadInt@ioINILoader@@QAEHPBDH@Z

; 121  : 	}

  00238	8b 4d fc	 mov	 ecx, DWORD PTR __$ArrayPad$[ebp]
  0023b	33 cd		 xor	 ecx, ebp
  0023d	5e		 pop	 esi
  0023e	e8 00 00 00 00	 call	 @__security_check_cookie@4
  00243	c9		 leave
  00244	c2 08 00	 ret	 8
??$LoadInt_e@$0BD@@ioINILoader@@QAEHAAY0BD@$$CBDH@Z ENDP ; ioINILoader::LoadInt_e<19>
_TEXT	ENDS
PUBLIC	__$ArrayPad$
PUBLIC	??$LoadInt_e@$0BE@@ioINILoader@@QAEHAAY0BE@$$CBDH@Z ; ioINILoader::LoadInt_e<20>
; Function compile flags: /Ogsp
;	COMDAT ??$LoadInt_e@$0BE@@ioINILoader@@QAEHAAY0BE@$$CBDH@Z
_TEXT	SEGMENT
__k$ = -28						; size = 20
__$ArrayPad$ = -4					; size = 4
_k$ = 8							; size = 4
_i$ = 12						; size = 4
??$LoadInt_e@$0BE@@ioINILoader@@QAEHAAY0BE@$$CBDH@Z PROC ; ioINILoader::LoadInt_e<20>, COMDAT
; _this$ = ecx

; 118  : 	{

  00000	55		 push	 ebp
  00001	8b ec		 mov	 ebp, esp
  00003	83 ec 1c	 sub	 esp, 28			; 0000001cH
  00006	a1 00 00 00 00	 mov	 eax, DWORD PTR ___security_cookie
  0000b	33 c5		 xor	 eax, ebp
  0000d	89 45 fc	 mov	 DWORD PTR __$ArrayPad$[ebp], eax
  00010	8b 45 08	 mov	 eax, DWORD PTR _k$[ebp]

; 119  : 		_ENCSTR(k, _k);

  00013	8a 10		 mov	 dl, BYTE PTR [eax]
  00015	53		 push	 ebx
  00016	56		 push	 esi
  00017	8b f1		 mov	 esi, ecx
  00019	84 d2		 test	 dl, dl
  0001b	0f 84 dd 01 00
	00		 je	 $LN96@LoadInt_e@2
  00021	80 f2 ed	 xor	 dl, -19			; ffffffedH
  00024	88 55 e4	 mov	 BYTE PTR __k$[ebp], dl
  00027	8a 50 01	 mov	 dl, BYTE PTR [eax+1]
  0002a	84 d2		 test	 dl, dl
  0002c	0f 84 c6 01 00
	00		 je	 $LN95@LoadInt_e@2
  00032	b3 ec		 mov	 bl, -20			; ffffffecH
  00034	32 d3		 xor	 dl, bl
  00036	88 55 e5	 mov	 BYTE PTR __k$[ebp+1], dl
  00039	8a 50 02	 mov	 dl, BYTE PTR [eax+2]
  0003c	84 d2		 test	 dl, dl
  0003e	0f 84 ae 01 00
	00		 je	 $LN94@LoadInt_e@2
  00044	b1 eb		 mov	 cl, -21			; ffffffebH
  00046	32 d1		 xor	 dl, cl
  00048	88 55 e6	 mov	 BYTE PTR __k$[ebp+2], dl
  0004b	8a 50 03	 mov	 dl, BYTE PTR [eax+3]
  0004e	84 d2		 test	 dl, dl
  00050	0f 84 96 01 00
	00		 je	 $LN93@LoadInt_e@2
  00056	80 f2 ea	 xor	 dl, -22			; ffffffeaH
  00059	88 55 e7	 mov	 BYTE PTR __k$[ebp+3], dl
  0005c	8a 50 04	 mov	 dl, BYTE PTR [eax+4]
  0005f	84 d2		 test	 dl, dl
  00061	0f 84 7f 01 00
	00		 je	 $LN92@LoadInt_e@2
  00067	80 f2 ed	 xor	 dl, -19			; ffffffedH
  0006a	88 55 e8	 mov	 BYTE PTR __k$[ebp+4], dl
  0006d	8a 50 05	 mov	 dl, BYTE PTR [eax+5]
  00070	84 d2		 test	 dl, dl
  00072	0f 84 69 01 00
	00		 je	 $LN91@LoadInt_e@2
  00078	32 d3		 xor	 dl, bl
  0007a	88 55 e9	 mov	 BYTE PTR __k$[ebp+5], dl
  0007d	8a 50 06	 mov	 dl, BYTE PTR [eax+6]
  00080	84 d2		 test	 dl, dl
  00082	0f 84 54 01 00
	00		 je	 $LN90@LoadInt_e@2
  00088	32 d1		 xor	 dl, cl
  0008a	88 55 ea	 mov	 BYTE PTR __k$[ebp+6], dl
  0008d	8a 50 07	 mov	 dl, BYTE PTR [eax+7]
  00090	84 d2		 test	 dl, dl
  00092	0f 84 3e 01 00
	00		 je	 $LN89@LoadInt_e@2
  00098	80 f2 ea	 xor	 dl, -22			; ffffffeaH
  0009b	88 55 eb	 mov	 BYTE PTR __k$[ebp+7], dl
  0009e	8a 50 08	 mov	 dl, BYTE PTR [eax+8]
  000a1	84 d2		 test	 dl, dl
  000a3	0f 84 27 01 00
	00		 je	 $LN88@LoadInt_e@2
  000a9	80 f2 ed	 xor	 dl, -19			; ffffffedH
  000ac	88 55 ec	 mov	 BYTE PTR __k$[ebp+8], dl
  000af	8a 50 09	 mov	 dl, BYTE PTR [eax+9]
  000b2	84 d2		 test	 dl, dl
  000b4	0f 84 11 01 00
	00		 je	 $LN87@LoadInt_e@2
  000ba	32 d3		 xor	 dl, bl
  000bc	88 55 ed	 mov	 BYTE PTR __k$[ebp+9], dl
  000bf	8a 50 0a	 mov	 dl, BYTE PTR [eax+10]
  000c2	84 d2		 test	 dl, dl
  000c4	0f 84 fc 00 00
	00		 je	 $LN86@LoadInt_e@2
  000ca	32 d1		 xor	 dl, cl
  000cc	88 55 ee	 mov	 BYTE PTR __k$[ebp+10], dl
  000cf	8a 50 0b	 mov	 dl, BYTE PTR [eax+11]
  000d2	84 d2		 test	 dl, dl
  000d4	0f 84 e6 00 00
	00		 je	 $LN85@LoadInt_e@2
  000da	80 f2 ea	 xor	 dl, -22			; ffffffeaH
  000dd	88 55 ef	 mov	 BYTE PTR __k$[ebp+11], dl
  000e0	8a 50 0c	 mov	 dl, BYTE PTR [eax+12]
  000e3	84 d2		 test	 dl, dl
  000e5	0f 84 cf 00 00
	00		 je	 $LN84@LoadInt_e@2
  000eb	80 f2 ed	 xor	 dl, -19			; ffffffedH
  000ee	88 55 f0	 mov	 BYTE PTR __k$[ebp+12], dl
  000f1	8a 50 0d	 mov	 dl, BYTE PTR [eax+13]
  000f4	84 d2		 test	 dl, dl
  000f6	0f 84 b9 00 00
	00		 je	 $LN83@LoadInt_e@2
  000fc	32 d3		 xor	 dl, bl
  000fe	88 55 f1	 mov	 BYTE PTR __k$[ebp+13], dl
  00101	8a 50 0e	 mov	 dl, BYTE PTR [eax+14]
  00104	84 d2		 test	 dl, dl
  00106	0f 84 a4 00 00
	00		 je	 $LN82@LoadInt_e@2
  0010c	32 d1		 xor	 dl, cl
  0010e	88 55 f2	 mov	 BYTE PTR __k$[ebp+14], dl
  00111	8a 50 0f	 mov	 dl, BYTE PTR [eax+15]
  00114	84 d2		 test	 dl, dl
  00116	0f 84 8e 00 00
	00		 je	 $LN81@LoadInt_e@2
  0011c	80 f2 ea	 xor	 dl, -22			; ffffffeaH
  0011f	88 55 f3	 mov	 BYTE PTR __k$[ebp+15], dl
  00122	8a 50 10	 mov	 dl, BYTE PTR [eax+16]
  00125	84 d2		 test	 dl, dl
  00127	74 7b		 je	 SHORT $LN80@LoadInt_e@2
  00129	80 f2 ed	 xor	 dl, -19			; ffffffedH
  0012c	88 55 f4	 mov	 BYTE PTR __k$[ebp+16], dl
  0012f	8a 50 11	 mov	 dl, BYTE PTR [eax+17]
  00132	84 d2		 test	 dl, dl
  00134	74 69		 je	 SHORT $LN79@LoadInt_e@2
  00136	32 d3		 xor	 dl, bl
  00138	88 55 f5	 mov	 BYTE PTR __k$[ebp+17], dl
  0013b	8a 50 12	 mov	 dl, BYTE PTR [eax+18]
  0013e	84 d2		 test	 dl, dl
  00140	74 58		 je	 SHORT $LN78@LoadInt_e@2
  00142	32 d1		 xor	 dl, cl
  00144	80 78 13 00	 cmp	 BYTE PTR [eax+19], 0
  00148	88 55 f6	 mov	 BYTE PTR __k$[ebp+18], dl
  0014b	0f 84 b1 00 00
	00		 je	 $LN1@LoadInt_e@2
  00151	8a 50 14	 mov	 dl, BYTE PTR [eax+20]
  00154	84 d2		 test	 dl, dl
  00156	74 3c		 je	 SHORT $LN76@LoadInt_e@2
  00158	80 f2 ed	 xor	 dl, -19			; ffffffedH
  0015b	88 55 f8	 mov	 BYTE PTR __k$[ebp+20], dl
  0015e	8a 50 15	 mov	 dl, BYTE PTR [eax+21]
  00161	84 d2		 test	 dl, dl
  00163	74 2a		 je	 SHORT $LN75@LoadInt_e@2
  00165	32 d3		 xor	 dl, bl
  00167	88 55 f9	 mov	 BYTE PTR __k$[ebp+21], dl
  0016a	8a 50 16	 mov	 dl, BYTE PTR [eax+22]
  0016d	84 d2		 test	 dl, dl
  0016f	74 19		 je	 SHORT $LN74@LoadInt_e@2
  00171	8a 40 17	 mov	 al, BYTE PTR [eax+23]
  00174	32 d1		 xor	 dl, cl
  00176	88 55 fa	 mov	 BYTE PTR __k$[ebp+22], dl
  00179	84 c0		 test	 al, al
  0017b	74 07		 je	 SHORT $LN73@LoadInt_e@2
  0017d	34 ea		 xor	 al, -22			; ffffffeaH
  0017f	88 45 fb	 mov	 BYTE PTR __k$[ebp+23], al
  00182	eb 7e		 jmp	 SHORT $LN1@LoadInt_e@2
$LN73@LoadInt_e@2:
  00184	c6 45 fb ea	 mov	 BYTE PTR __k$[ebp+23], -22 ; ffffffeaH
  00188	eb 78		 jmp	 SHORT $LN1@LoadInt_e@2
$LN74@LoadInt_e@2:
  0018a	88 4d fa	 mov	 BYTE PTR __k$[ebp+22], cl
  0018d	eb 73		 jmp	 SHORT $LN1@LoadInt_e@2
$LN75@LoadInt_e@2:
  0018f	88 5d f9	 mov	 BYTE PTR __k$[ebp+21], bl
  00192	eb 6e		 jmp	 SHORT $LN1@LoadInt_e@2
$LN76@LoadInt_e@2:
  00194	c6 45 f8 ed	 mov	 BYTE PTR __k$[ebp+20], -19 ; ffffffedH
  00198	eb 68		 jmp	 SHORT $LN1@LoadInt_e@2
$LN78@LoadInt_e@2:
  0019a	88 4d f6	 mov	 BYTE PTR __k$[ebp+18], cl
  0019d	eb 63		 jmp	 SHORT $LN1@LoadInt_e@2
$LN79@LoadInt_e@2:
  0019f	88 5d f5	 mov	 BYTE PTR __k$[ebp+17], bl
  001a2	eb 5e		 jmp	 SHORT $LN1@LoadInt_e@2
$LN80@LoadInt_e@2:
  001a4	c6 45 f4 ed	 mov	 BYTE PTR __k$[ebp+16], -19 ; ffffffedH
  001a8	eb 58		 jmp	 SHORT $LN1@LoadInt_e@2
$LN81@LoadInt_e@2:
  001aa	c6 45 f3 ea	 mov	 BYTE PTR __k$[ebp+15], -22 ; ffffffeaH
  001ae	eb 52		 jmp	 SHORT $LN1@LoadInt_e@2
$LN82@LoadInt_e@2:
  001b0	88 4d f2	 mov	 BYTE PTR __k$[ebp+14], cl
  001b3	eb 4d		 jmp	 SHORT $LN1@LoadInt_e@2
$LN83@LoadInt_e@2:
  001b5	88 5d f1	 mov	 BYTE PTR __k$[ebp+13], bl
  001b8	eb 48		 jmp	 SHORT $LN1@LoadInt_e@2
$LN84@LoadInt_e@2:
  001ba	c6 45 f0 ed	 mov	 BYTE PTR __k$[ebp+12], -19 ; ffffffedH
  001be	eb 42		 jmp	 SHORT $LN1@LoadInt_e@2
$LN85@LoadInt_e@2:
  001c0	c6 45 ef ea	 mov	 BYTE PTR __k$[ebp+11], -22 ; ffffffeaH
  001c4	eb 3c		 jmp	 SHORT $LN1@LoadInt_e@2
$LN86@LoadInt_e@2:
  001c6	88 4d ee	 mov	 BYTE PTR __k$[ebp+10], cl
  001c9	eb 37		 jmp	 SHORT $LN1@LoadInt_e@2
$LN87@LoadInt_e@2:
  001cb	88 5d ed	 mov	 BYTE PTR __k$[ebp+9], bl
  001ce	eb 32		 jmp	 SHORT $LN1@LoadInt_e@2
$LN88@LoadInt_e@2:
  001d0	c6 45 ec ed	 mov	 BYTE PTR __k$[ebp+8], -19 ; ffffffedH
  001d4	eb 2c		 jmp	 SHORT $LN1@LoadInt_e@2
$LN89@LoadInt_e@2:
  001d6	c6 45 eb ea	 mov	 BYTE PTR __k$[ebp+7], -22 ; ffffffeaH
  001da	eb 26		 jmp	 SHORT $LN1@LoadInt_e@2
$LN90@LoadInt_e@2:
  001dc	88 4d ea	 mov	 BYTE PTR __k$[ebp+6], cl
  001df	eb 21		 jmp	 SHORT $LN1@LoadInt_e@2
$LN91@LoadInt_e@2:
  001e1	88 5d e9	 mov	 BYTE PTR __k$[ebp+5], bl
  001e4	eb 1c		 jmp	 SHORT $LN1@LoadInt_e@2
$LN92@LoadInt_e@2:
  001e6	c6 45 e8 ed	 mov	 BYTE PTR __k$[ebp+4], -19 ; ffffffedH
  001ea	eb 16		 jmp	 SHORT $LN1@LoadInt_e@2
$LN93@LoadInt_e@2:
  001ec	c6 45 e7 ea	 mov	 BYTE PTR __k$[ebp+3], -22 ; ffffffeaH
  001f0	eb 10		 jmp	 SHORT $LN1@LoadInt_e@2
$LN94@LoadInt_e@2:
  001f2	c6 45 e6 eb	 mov	 BYTE PTR __k$[ebp+2], -21 ; ffffffebH
  001f6	eb 0a		 jmp	 SHORT $LN1@LoadInt_e@2
$LN95@LoadInt_e@2:
  001f8	c6 45 e5 ec	 mov	 BYTE PTR __k$[ebp+1], -20 ; ffffffecH
  001fc	eb 04		 jmp	 SHORT $LN1@LoadInt_e@2
$LN96@LoadInt_e@2:
  001fe	c6 45 e4 ed	 mov	 BYTE PTR __k$[ebp], -19	; ffffffedH
$LN1@LoadInt_e@2:
  00202	6a 04		 push	 4
  00204	8d 45 e4	 lea	 eax, DWORD PTR __k$[ebp]
  00207	c6 45 f7 00	 mov	 BYTE PTR __k$[ebp+19], 0
  0020b	5a		 pop	 edx
$LL104@LoadInt_e@2:
  0020c	81 30 ed ec eb
	ea		 xor	 DWORD PTR [eax], -353637139 ; eaebecedH
  00212	83 c0 04	 add	 eax, 4
  00215	4a		 dec	 edx
  00216	75 f4		 jne	 SHORT $LL104@LoadInt_e@2
  00218	6a 10		 push	 16			; 00000010H
  0021a	58		 pop	 eax
$LL101@LoadInt_e@2:
  0021b	8b c8		 mov	 ecx, eax
  0021d	81 e1 03 00 00
	80		 and	 ecx, -2147483645	; 80000003H
  00223	79 05		 jns	 SHORT $LN111@LoadInt_e@2
  00225	49		 dec	 ecx
  00226	83 c9 fc	 or	 ecx, -4			; fffffffcH
  00229	41		 inc	 ecx
$LN111@LoadInt_e@2:
  0022a	b2 ed		 mov	 dl, -19			; ffffffedH
  0022c	2a d1		 sub	 dl, cl
  0022e	30 54 05 e4	 xor	 BYTE PTR __k$[ebp+eax], dl
  00232	40		 inc	 eax
  00233	83 f8 13	 cmp	 eax, 19			; 00000013H
  00236	7c e3		 jl	 SHORT $LL101@LoadInt_e@2

; 120  : 		return LoadInt(_k, i);

  00238	ff 75 0c	 push	 DWORD PTR _i$[ebp]
  0023b	8d 45 e4	 lea	 eax, DWORD PTR __k$[ebp]
  0023e	50		 push	 eax
  0023f	8b ce		 mov	 ecx, esi
  00241	ff 15 00 00 00
	00		 call	 DWORD PTR __imp_?LoadInt@ioINILoader@@QAEHPBDH@Z

; 121  : 	}

  00247	8b 4d fc	 mov	 ecx, DWORD PTR __$ArrayPad$[ebp]
  0024a	5e		 pop	 esi
  0024b	33 cd		 xor	 ecx, ebp
  0024d	5b		 pop	 ebx
  0024e	e8 00 00 00 00	 call	 @__security_check_cookie@4
  00253	c9		 leave
  00254	c2 08 00	 ret	 8
??$LoadInt_e@$0BE@@ioINILoader@@QAEHAAY0BE@$$CBDH@Z ENDP ; ioINILoader::LoadInt_e<20>
_TEXT	ENDS
PUBLIC	?construct@?$allocator@UForceInfo@@@std@@QAEXPAUForceInfo@@ABU3@@Z ; std::allocator<ForceInfo>::construct
; Function compile flags: /Ogsp
; File c:\program files (x86)\microsoft visual studio 10.0\vc\include\xmemory
;	COMDAT ?construct@?$allocator@UForceInfo@@@std@@QAEXPAUForceInfo@@ABU3@@Z
_TEXT	SEGMENT
__Ptr$ = 8						; size = 4
__Val$ = 12						; size = 4
?construct@?$allocator@UForceInfo@@@std@@QAEXPAUForceInfo@@ABU3@@Z PROC ; std::allocator<ForceInfo>::construct, COMDAT
; _this$ = ecx

; 196  : 		{	// construct object at _Ptr with value _Val

  00000	55		 push	 ebp
  00001	8b ec		 mov	 ebp, esp
  00003	57		 push	 edi

; 197  : 		_Construct(_Ptr, _Val);

  00004	8b 7d 08	 mov	 edi, DWORD PTR __Ptr$[ebp]
  00007	85 ff		 test	 edi, edi
  00009	74 08		 je	 SHORT $LN5@construct@2
  0000b	56		 push	 esi
  0000c	8b 75 0c	 mov	 esi, DWORD PTR __Val$[ebp]
  0000f	a5		 movsd
  00010	a5		 movsd
  00011	a5		 movsd
  00012	5e		 pop	 esi
$LN5@construct@2:
  00013	5f		 pop	 edi

; 198  : 		}

  00014	5d		 pop	 ebp
  00015	c2 08 00	 ret	 8
?construct@?$allocator@UForceInfo@@@std@@QAEXPAUForceInfo@@ABU3@@Z ENDP ; std::allocator<ForceInfo>::construct
_TEXT	ENDS
PUBLIC	??$_Construct@UWeaponInfo@@ABU1@@std@@YAXPAUWeaponInfo@@ABU1@@Z ; std::_Construct<WeaponInfo,WeaponInfo const &>
EXTRN	__EH_epilog3:PROC
EXTRN	__EH_prolog3:PROC
;	COMDAT xdata$x
; File c:\program files (x86)\microsoft visual studio 10.0\vc\include\utility
xdata$x	SEGMENT
__unwindtable$??$_Construct@UWeaponInfo@@ABU1@@std@@YAXPAUWeaponInfo@@ABU1@@Z DD 0ffffffffH
	DD	FLAT:__unwindfunclet$??$_Construct@UWeaponInfo@@ABU1@@std@@YAXPAUWeaponInfo@@ABU1@@Z$0
__ehfuncinfo$??$_Construct@UWeaponInfo@@ABU1@@std@@YAXPAUWeaponInfo@@ABU1@@Z DD 019930522H
	DD	01H
	DD	FLAT:__unwindtable$??$_Construct@UWeaponInfo@@ABU1@@std@@YAXPAUWeaponInfo@@ABU1@@Z
	DD	2 DUP(00H)
	DD	2 DUP(00H)
	DD	00H
	DD	01H
; Function compile flags: /Ogsp
; File c:\program files (x86)\microsoft visual studio 10.0\vc\include\xmemory
xdata$x	ENDS
;	COMDAT ??$_Construct@UWeaponInfo@@ABU1@@std@@YAXPAUWeaponInfo@@ABU1@@Z
_TEXT	SEGMENT
$T552082 = -16						; size = 4
__$EHRec$ = -12						; size = 12
__Vptr$ = 8						; size = 4
__Ptr$ = 8						; size = 4
__Val$ = 12						; size = 4
??$_Construct@UWeaponInfo@@ABU1@@std@@YAXPAUWeaponInfo@@ABU1@@Z PROC ; std::_Construct<WeaponInfo,WeaponInfo const &>, COMDAT

; 46   : 	{	// construct object at _Ptr with value _Val

  00000	6a 04		 push	 4
  00002	b8 00 00 00 00	 mov	 eax, __ehhandler$??$_Construct@UWeaponInfo@@ABU1@@std@@YAXPAUWeaponInfo@@ABU1@@Z
  00007	e8 00 00 00 00	 call	 __EH_prolog3

; 47   : 	void _FARQ *_Vptr = _Ptr;

  0000c	8b 4d 08	 mov	 ecx, DWORD PTR __Ptr$[ebp]
  0000f	89 4d 08	 mov	 DWORD PTR __Vptr$[ebp], ecx

; 48   : 	::new (_Vptr) _Ty1(_STD forward<_Ty2>(_Val));

  00012	89 4d f0	 mov	 DWORD PTR $T552082[ebp], ecx
  00015	83 65 fc 00	 and	 DWORD PTR __$EHRec$[ebp+8], 0
  00019	85 c9		 test	 ecx, ecx
  0001b	74 08		 je	 SHORT $LN3@Construct@2
  0001d	ff 75 0c	 push	 DWORD PTR __Val$[ebp]
  00020	e8 00 00 00 00	 call	 ??0WeaponInfo@@QAE@ABU0@@Z
$LN3@Construct@2:

; 49   : 	}

  00025	e8 00 00 00 00	 call	 __EH_epilog3
  0002a	c3		 ret	 0
_TEXT	ENDS
;	COMDAT text$x
text$x	SEGMENT
__unwindfunclet$??$_Construct@UWeaponInfo@@ABU1@@std@@YAXPAUWeaponInfo@@ABU1@@Z$0:
  00000	ff 75 08	 push	 DWORD PTR __Vptr$[ebp]
  00003	ff 75 f0	 push	 DWORD PTR $T552082[ebp]
  00006	e8 00 00 00 00	 call	 ??3@YAXPAX0@Z		; operator delete
  0000b	59		 pop	 ecx
  0000c	59		 pop	 ecx
  0000d	c3		 ret	 0
__ehhandler$??$_Construct@UWeaponInfo@@ABU1@@std@@YAXPAUWeaponInfo@@ABU1@@Z:
  0000e	8b 54 24 08	 mov	 edx, DWORD PTR [esp+8]
  00012	8d 42 0c	 lea	 eax, DWORD PTR [edx+12]
  00015	8b 4a ec	 mov	 ecx, DWORD PTR [edx-20]
  00018	33 c8		 xor	 ecx, eax
  0001a	e8 00 00 00 00	 call	 @__security_check_cookie@4
  0001f	b8 00 00 00 00	 mov	 eax, OFFSET __ehfuncinfo$??$_Construct@UWeaponInfo@@ABU1@@std@@YAXPAUWeaponInfo@@ABU1@@Z
  00024	e9 00 00 00 00	 jmp	 ___CxxFrameHandler3
text$x	ENDS
??$_Construct@UWeaponInfo@@ABU1@@std@@YAXPAUWeaponInfo@@ABU1@@Z ENDP ; std::_Construct<WeaponInfo,WeaponInfo const &>
PUBLIC	??B?$CEncrypt@K@@QBEKXZ				; CEncrypt<unsigned long>::operator unsigned long
; Function compile flags: /Ogsp
; File d:\lost saga for developer\youtube\tutorial\source\src\lsclient\encryptvalue.h
;	COMDAT ??B?$CEncrypt@K@@QBEKXZ
_TEXT	SEGMENT
_value$ = -4						; size = 4
??B?$CEncrypt@K@@QBEKXZ PROC				; CEncrypt<unsigned long>::operator unsigned long, COMDAT
; _this$ = ecx

; 145  : 	{

  00000	55		 push	 ebp
  00001	8b ec		 mov	 ebp, esp
  00003	51		 push	 ecx

; 146  : 		//UJ 130829, const    --start
; 147  : 		type value;
; 148  : 		CEncrypt<type>* pThis = const_cast<CEncrypt<type>*>(this);
; 149  : 		pThis->DecryptValueToPool(&value);

  00004	8d 45 fc	 lea	 eax, DWORD PTR _value$[ebp]
  00007	50		 push	 eax
  00008	e8 00 00 00 00	 call	 ?DecryptValueToPool@?$CEncrypt@K@@QAEXPAK@Z ; CEncrypt<unsigned long>::DecryptValueToPool

; 150  : 		//// const DecryptValueToPool     .
; 151  :  		//type value;
; 152  : 		//char szTempMem[MAX_ENCRYPT];
; 153  : 		//m_RC5.DecryptByte( m_MemPool, szTempMem, max(m_ValueSize, DEFAULT_ENCRYPT) );
; 154  : 		//memcpy( &value, szTempMem, m_ValueSize );
; 155  : 		//UJ --end
; 156  : 
; 157  : #ifdef _NOTUSE
; 158  : 		Debug();
; 159  : #endif
; 160  : 		return value;

  0000d	8b 45 fc	 mov	 eax, DWORD PTR _value$[ebp]

; 161  : 	}

  00010	c9		 leave
  00011	c3		 ret	 0
??B?$CEncrypt@K@@QBEKXZ ENDP				; CEncrypt<unsigned long>::operator unsigned long
_TEXT	ENDS
PUBLIC	??4?$CEncrypt@K@@QAEKK@Z			; CEncrypt<unsigned long>::operator=
; Function compile flags: /Ogsp
;	COMDAT ??4?$CEncrypt@K@@QAEKK@Z
_TEXT	SEGMENT
_value$ = 8						; size = 4
_inValue$ = 8						; size = 4
??4?$CEncrypt@K@@QAEKK@Z PROC				; CEncrypt<unsigned long>::operator=, COMDAT
; _this$ = ecx

; 1262 : 	{

  00000	55		 push	 ebp
  00001	8b ec		 mov	 ebp, esp

; 1263 : 		
; 1264 : 		type value = inValue;

  00003	8b 45 08	 mov	 eax, DWORD PTR _inValue$[ebp]
  00006	89 45 08	 mov	 DWORD PTR _value$[ebp], eax

; 1265 : 		EncryptValueToPool((char*)&value);

  00009	8d 45 08	 lea	 eax, DWORD PTR _value$[ebp]
  0000c	50		 push	 eax
  0000d	e8 00 00 00 00	 call	 ?EncryptValueToPool@?$CEncrypt@K@@AAEXPBD@Z ; CEncrypt<unsigned long>::EncryptValueToPool

; 1266 : #ifdef _NOTUSE
; 1267 : 		m_value = inValue;
; 1268 : 		Debug();
; 1269 : #endif
; 1270 : 		return value;

  00012	8b 45 08	 mov	 eax, DWORD PTR _value$[ebp]

; 1271 : 	}

  00015	5d		 pop	 ebp
  00016	c2 04 00	 ret	 4
??4?$CEncrypt@K@@QAEKK@Z ENDP				; CEncrypt<unsigned long>::operator=
_TEXT	ENDS
PUBLIC	??B?$CEncrypt@_N@@QBE_NXZ			; CEncrypt<bool>::operator bool
; Function compile flags: /Ogsp
;	COMDAT ??B?$CEncrypt@_N@@QBE_NXZ
_TEXT	SEGMENT
_value$ = -1						; size = 1
??B?$CEncrypt@_N@@QBE_NXZ PROC				; CEncrypt<bool>::operator bool, COMDAT
; _this$ = ecx

; 145  : 	{

  00000	55		 push	 ebp
  00001	8b ec		 mov	 ebp, esp
  00003	51		 push	 ecx

; 146  : 		//UJ 130829, const    --start
; 147  : 		type value;
; 148  : 		CEncrypt<type>* pThis = const_cast<CEncrypt<type>*>(this);
; 149  : 		pThis->DecryptValueToPool(&value);

  00004	8d 45 ff	 lea	 eax, DWORD PTR _value$[ebp]
  00007	50		 push	 eax
  00008	e8 00 00 00 00	 call	 ?DecryptValueToPool@?$CEncrypt@_N@@QAEXPA_N@Z ; CEncrypt<bool>::DecryptValueToPool

; 150  : 		//// const DecryptValueToPool     .
; 151  :  		//type value;
; 152  : 		//char szTempMem[MAX_ENCRYPT];
; 153  : 		//m_RC5.DecryptByte( m_MemPool, szTempMem, max(m_ValueSize, DEFAULT_ENCRYPT) );
; 154  : 		//memcpy( &value, szTempMem, m_ValueSize );
; 155  : 		//UJ --end
; 156  : 
; 157  : #ifdef _NOTUSE
; 158  : 		Debug();
; 159  : #endif
; 160  : 		return value;

  0000d	8a 45 ff	 mov	 al, BYTE PTR _value$[ebp]

; 161  : 	}

  00010	c9		 leave
  00011	c3		 ret	 0
??B?$CEncrypt@_N@@QBE_NXZ ENDP				; CEncrypt<bool>::operator bool
_TEXT	ENDS
PUBLIC	??0?$_Vector_val@UWeaponInfo@@V?$allocator@UWeaponInfo@@@std@@@std@@QAE@V?$allocator@UWeaponInfo@@@1@@Z ; std::_Vector_val<WeaponInfo,std::allocator<WeaponInfo> >::_Vector_val<WeaponInfo,std::allocator<WeaponInfo> >
; Function compile flags: /Ogsp
; File c:\program files (x86)\microsoft visual studio 10.0\vc\include\vector
;	COMDAT ??0?$_Vector_val@UWeaponInfo@@V?$allocator@UWeaponInfo@@@std@@@std@@QAE@V?$allocator@UWeaponInfo@@@1@@Z
_TEXT	SEGMENT
__Al$ = 8						; size = 1
??0?$_Vector_val@UWeaponInfo@@V?$allocator@UWeaponInfo@@@std@@@std@@QAE@V?$allocator@UWeaponInfo@@@1@@Z PROC ; std::_Vector_val<WeaponInfo,std::allocator<WeaponInfo> >::_Vector_val<WeaponInfo,std::allocator<WeaponInfo> >, COMDAT
; _this$ = ecx

; 426  : 		{	// construct allocator from _Al

  00000	8b c1		 mov	 eax, ecx

; 427  : 		_Myfirst = 0;

  00002	33 c9		 xor	 ecx, ecx
  00004	89 08		 mov	 DWORD PTR [eax], ecx

; 428  : 		_Mylast = 0;

  00006	89 48 04	 mov	 DWORD PTR [eax+4], ecx

; 429  : 		_Myend = 0;

  00009	89 48 08	 mov	 DWORD PTR [eax+8], ecx

; 430  : 		}

  0000c	c2 04 00	 ret	 4
??0?$_Vector_val@UWeaponInfo@@V?$allocator@UWeaponInfo@@@std@@@std@@QAE@V?$allocator@UWeaponInfo@@@1@@Z ENDP ; std::_Vector_val<WeaponInfo,std::allocator<WeaponInfo> >::_Vector_val<WeaponInfo,std::allocator<WeaponInfo> >
_TEXT	ENDS
PUBLIC	??0?$_Vector_val@UForceInfo@@V?$allocator@UForceInfo@@@std@@@std@@QAE@V?$allocator@UForceInfo@@@1@@Z ; std::_Vector_val<ForceInfo,std::allocator<ForceInfo> >::_Vector_val<ForceInfo,std::allocator<ForceInfo> >
; Function compile flags: /Ogsp
;	COMDAT ??0?$_Vector_val@UForceInfo@@V?$allocator@UForceInfo@@@std@@@std@@QAE@V?$allocator@UForceInfo@@@1@@Z
_TEXT	SEGMENT
__Al$ = 8						; size = 1
??0?$_Vector_val@UForceInfo@@V?$allocator@UForceInfo@@@std@@@std@@QAE@V?$allocator@UForceInfo@@@1@@Z PROC ; std::_Vector_val<ForceInfo,std::allocator<ForceInfo> >::_Vector_val<ForceInfo,std::allocator<ForceInfo> >, COMDAT
; _this$ = ecx

; 426  : 		{	// construct allocator from _Al

  00000	8b c1		 mov	 eax, ecx

; 427  : 		_Myfirst = 0;

  00002	33 c9		 xor	 ecx, ecx
  00004	89 08		 mov	 DWORD PTR [eax], ecx

; 428  : 		_Mylast = 0;

  00006	89 48 04	 mov	 DWORD PTR [eax+4], ecx

; 429  : 		_Myend = 0;

  00009	89 48 08	 mov	 DWORD PTR [eax+8], ecx

; 430  : 		}

  0000c	c2 04 00	 ret	 4
??0?$_Vector_val@UForceInfo@@V?$allocator@UForceInfo@@@std@@@std@@QAE@V?$allocator@UForceInfo@@@1@@Z ENDP ; std::_Vector_val<ForceInfo,std::allocator<ForceInfo> >::_Vector_val<ForceInfo,std::allocator<ForceInfo> >
_TEXT	ENDS
PUBLIC	??0?$_Vector_val@UAttackAttribute@@V?$allocator@UAttackAttribute@@@std@@@std@@QAE@V?$allocator@UAttackAttribute@@@1@@Z ; std::_Vector_val<AttackAttribute,std::allocator<AttackAttribute> >::_Vector_val<AttackAttribute,std::allocator<AttackAttribute> >
; Function compile flags: /Ogsp
;	COMDAT ??0?$_Vector_val@UAttackAttribute@@V?$allocator@UAttackAttribute@@@std@@@std@@QAE@V?$allocator@UAttackAttribute@@@1@@Z
_TEXT	SEGMENT
__Al$ = 8						; size = 1
??0?$_Vector_val@UAttackAttribute@@V?$allocator@UAttackAttribute@@@std@@@std@@QAE@V?$allocator@UAttackAttribute@@@1@@Z PROC ; std::_Vector_val<AttackAttribute,std::allocator<AttackAttribute> >::_Vector_val<AttackAttribute,std::allocator<AttackAttribute> >, COMDAT
; _this$ = ecx

; 426  : 		{	// construct allocator from _Al

  00000	8b c1		 mov	 eax, ecx

; 427  : 		_Myfirst = 0;

  00002	33 c9		 xor	 ecx, ecx
  00004	89 08		 mov	 DWORD PTR [eax], ecx

; 428  : 		_Mylast = 0;

  00006	89 48 04	 mov	 DWORD PTR [eax+4], ecx

; 429  : 		_Myend = 0;

  00009	89 48 08	 mov	 DWORD PTR [eax+8], ecx

; 430  : 		}

  0000c	c2 04 00	 ret	 4
??0?$_Vector_val@UAttackAttribute@@V?$allocator@UAttackAttribute@@@std@@@std@@QAE@V?$allocator@UAttackAttribute@@@1@@Z ENDP ; std::_Vector_val<AttackAttribute,std::allocator<AttackAttribute> >::_Vector_val<AttackAttribute,std::allocator<AttackAttribute> >
_TEXT	ENDS
PUBLIC	??0?$_Vector_iterator@V?$_Vector_val@UAttackAttribute@@V?$allocator@UAttackAttribute@@@std@@@std@@@std@@QAE@PAUAttackAttribute@@PBU_Container_base0@1@@Z ; std::_Vector_iterator<std::_Vector_val<AttackAttribute,std::allocator<AttackAttribute> > >::_Vector_iterator<std::_Vector_val<AttackAttribute,std::allocator<AttackAttribute> > >
; Function compile flags: /Ogsp
;	COMDAT ??0?$_Vector_iterator@V?$_Vector_val@UAttackAttribute@@V?$allocator@UAttackAttribute@@@std@@@std@@@std@@QAE@PAUAttackAttribute@@PBU_Container_base0@1@@Z
_TEXT	SEGMENT
__Parg$ = 8						; size = 4
__Pvector$ = 12						; size = 4
??0?$_Vector_iterator@V?$_Vector_val@UAttackAttribute@@V?$allocator@UAttackAttribute@@@std@@@std@@@std@@QAE@PAUAttackAttribute@@PBU_Container_base0@1@@Z PROC ; std::_Vector_iterator<std::_Vector_val<AttackAttribute,std::allocator<AttackAttribute> > >::_Vector_iterator<std::_Vector_val<AttackAttribute,std::allocator<AttackAttribute> > >, COMDAT
; _this$ = ecx

; 304  : 		{	// construct with pointer _Parg

  00000	55		 push	 ebp
  00001	8b ec		 mov	 ebp, esp
  00003	8b c1		 mov	 eax, ecx
  00005	8b 4d 08	 mov	 ecx, DWORD PTR __Parg$[ebp]
  00008	89 08		 mov	 DWORD PTR [eax], ecx

; 305  : 		}

  0000a	5d		 pop	 ebp
  0000b	c2 08 00	 ret	 8
??0?$_Vector_iterator@V?$_Vector_val@UAttackAttribute@@V?$allocator@UAttackAttribute@@@std@@@std@@@std@@QAE@PAUAttackAttribute@@PBU_Container_base0@1@@Z ENDP ; std::_Vector_iterator<std::_Vector_val<AttackAttribute,std::allocator<AttackAttribute> > >::_Vector_iterator<std::_Vector_val<AttackAttribute,std::allocator<AttackAttribute> > >
_TEXT	ENDS
PUBLIC	??8?$_Vector_const_iterator@V?$_Vector_val@UAttackAttribute@@V?$allocator@UAttackAttribute@@@std@@@std@@@std@@QBE_NABV01@@Z ; std::_Vector_const_iterator<std::_Vector_val<AttackAttribute,std::allocator<AttackAttribute> > >::operator==
; Function compile flags: /Ogsp
;	COMDAT ??8?$_Vector_const_iterator@V?$_Vector_val@UAttackAttribute@@V?$allocator@UAttackAttribute@@@std@@@std@@@std@@QBE_NABV01@@Z
_TEXT	SEGMENT
__Right$ = 8						; size = 4
??8?$_Vector_const_iterator@V?$_Vector_val@UAttackAttribute@@V?$allocator@UAttackAttribute@@@std@@@std@@@std@@QBE_NABV01@@Z PROC ; std::_Vector_const_iterator<std::_Vector_val<AttackAttribute,std::allocator<AttackAttribute> > >::operator==, COMDAT
; _this$ = ecx

; 201  : 		{	// test for iterator equality

  00000	55		 push	 ebp
  00001	8b ec		 mov	 ebp, esp

; 202  : 		_Compat(_Right);
; 203  : 		return (this->_Ptr == _Right._Ptr);

  00003	8b 01		 mov	 eax, DWORD PTR [ecx]
  00005	8b 4d 08	 mov	 ecx, DWORD PTR __Right$[ebp]
  00008	2b 01		 sub	 eax, DWORD PTR [ecx]
  0000a	f7 d8		 neg	 eax
  0000c	1b c0		 sbb	 eax, eax
  0000e	40		 inc	 eax

; 204  : 		}

  0000f	5d		 pop	 ebp
  00010	c2 04 00	 ret	 4
??8?$_Vector_const_iterator@V?$_Vector_val@UAttackAttribute@@V?$allocator@UAttackAttribute@@@std@@@std@@@std@@QBE_NABV01@@Z ENDP ; std::_Vector_const_iterator<std::_Vector_val<AttackAttribute,std::allocator<AttackAttribute> > >::operator==
_TEXT	ENDS
PUBLIC	?max_size@?$vector@UWeaponInfo@@V?$allocator@UWeaponInfo@@@std@@@std@@QBEIXZ ; std::vector<WeaponInfo,std::allocator<WeaponInfo> >::max_size
; Function compile flags: /Ogsp
;	COMDAT ?max_size@?$vector@UWeaponInfo@@V?$allocator@UWeaponInfo@@@std@@@std@@QBEIXZ
_TEXT	SEGMENT
?max_size@?$vector@UWeaponInfo@@V?$allocator@UWeaponInfo@@@std@@@std@@QBEIXZ PROC ; std::vector<WeaponInfo,std::allocator<WeaponInfo> >::max_size, COMDAT
; _this$ = ecx

; 884  : 		return (this->_Alval.max_size());

  00000	b8 66 66 66 06	 mov	 eax, 107374182		; 06666666H

; 885  : 		}

  00005	c3		 ret	 0
?max_size@?$vector@UWeaponInfo@@V?$allocator@UWeaponInfo@@@std@@@std@@QBEIXZ ENDP ; std::vector<WeaponInfo,std::allocator<WeaponInfo> >::max_size
_TEXT	ENDS
PUBLIC	?allocate@?$allocator@UWeaponInfo@@@std@@QAEPAUWeaponInfo@@I@Z ; std::allocator<WeaponInfo>::allocate
; Function compile flags: /Ogsp
; File c:\program files (x86)\microsoft visual studio 10.0\vc\include\xmemory
;	COMDAT ?allocate@?$allocator@UWeaponInfo@@@std@@QAEPAUWeaponInfo@@I@Z
_TEXT	SEGMENT
__Count$ = 8						; size = 4
?allocate@?$allocator@UWeaponInfo@@@std@@QAEPAUWeaponInfo@@I@Z PROC ; std::allocator<WeaponInfo>::allocate, COMDAT
; _this$ = ecx

; 186  : 		{	// allocate array of _Count elements

  00000	55		 push	 ebp
  00001	8b ec		 mov	 ebp, esp

; 187  : 		return (_Allocate(_Count, (pointer)0));

  00003	6a 00		 push	 0
  00005	ff 75 08	 push	 DWORD PTR __Count$[ebp]
  00008	e8 00 00 00 00	 call	 ??$_Allocate@UWeaponInfo@@@std@@YAPAUWeaponInfo@@IPAU1@@Z ; std::_Allocate<WeaponInfo>
  0000d	59		 pop	 ecx
  0000e	59		 pop	 ecx

; 188  : 		}

  0000f	5d		 pop	 ebp
  00010	c2 04 00	 ret	 4
?allocate@?$allocator@UWeaponInfo@@@std@@QAEPAUWeaponInfo@@I@Z ENDP ; std::allocator<WeaponInfo>::allocate
_TEXT	ENDS
PUBLIC	?max_size@?$vector@UForceInfo@@V?$allocator@UForceInfo@@@std@@@std@@QBEIXZ ; std::vector<ForceInfo,std::allocator<ForceInfo> >::max_size
; Function compile flags: /Ogsp
; File c:\program files (x86)\microsoft visual studio 10.0\vc\include\vector
;	COMDAT ?max_size@?$vector@UForceInfo@@V?$allocator@UForceInfo@@@std@@@std@@QBEIXZ
_TEXT	SEGMENT
?max_size@?$vector@UForceInfo@@V?$allocator@UForceInfo@@@std@@@std@@QBEIXZ PROC ; std::vector<ForceInfo,std::allocator<ForceInfo> >::max_size, COMDAT
; _this$ = ecx

; 884  : 		return (this->_Alval.max_size());

  00000	b8 55 55 55 15	 mov	 eax, 357913941		; 15555555H

; 885  : 		}

  00005	c3		 ret	 0
?max_size@?$vector@UForceInfo@@V?$allocator@UForceInfo@@@std@@@std@@QBEIXZ ENDP ; std::vector<ForceInfo,std::allocator<ForceInfo> >::max_size
_TEXT	ENDS
PUBLIC	?allocate@?$allocator@UForceInfo@@@std@@QAEPAUForceInfo@@I@Z ; std::allocator<ForceInfo>::allocate
; Function compile flags: /Ogsp
; File c:\program files (x86)\microsoft visual studio 10.0\vc\include\xmemory
;	COMDAT ?allocate@?$allocator@UForceInfo@@@std@@QAEPAUForceInfo@@I@Z
_TEXT	SEGMENT
__Count$ = 8						; size = 4
?allocate@?$allocator@UForceInfo@@@std@@QAEPAUForceInfo@@I@Z PROC ; std::allocator<ForceInfo>::allocate, COMDAT
; _this$ = ecx

; 186  : 		{	// allocate array of _Count elements

  00000	55		 push	 ebp
  00001	8b ec		 mov	 ebp, esp

; 187  : 		return (_Allocate(_Count, (pointer)0));

  00003	6a 00		 push	 0
  00005	ff 75 08	 push	 DWORD PTR __Count$[ebp]
  00008	e8 00 00 00 00	 call	 ??$_Allocate@UForceInfo@@@std@@YAPAUForceInfo@@IPAU1@@Z ; std::_Allocate<ForceInfo>
  0000d	59		 pop	 ecx
  0000e	59		 pop	 ecx

; 188  : 		}

  0000f	5d		 pop	 ebp
  00010	c2 04 00	 ret	 4
?allocate@?$allocator@UForceInfo@@@std@@QAEPAUForceInfo@@I@Z ENDP ; std::allocator<ForceInfo>::allocate
_TEXT	ENDS
PUBLIC	??0?$_Vector_iterator@V?$_Vector_val@UWeaponInfo@@V?$allocator@UWeaponInfo@@@std@@@std@@@std@@QAE@PAUWeaponInfo@@PBU_Container_base0@1@@Z ; std::_Vector_iterator<std::_Vector_val<WeaponInfo,std::allocator<WeaponInfo> > >::_Vector_iterator<std::_Vector_val<WeaponInfo,std::allocator<WeaponInfo> > >
; Function compile flags: /Ogsp
; File c:\program files (x86)\microsoft visual studio 10.0\vc\include\vector
;	COMDAT ??0?$_Vector_iterator@V?$_Vector_val@UWeaponInfo@@V?$allocator@UWeaponInfo@@@std@@@std@@@std@@QAE@PAUWeaponInfo@@PBU_Container_base0@1@@Z
_TEXT	SEGMENT
__Parg$ = 8						; size = 4
__Pvector$ = 12						; size = 4
??0?$_Vector_iterator@V?$_Vector_val@UWeaponInfo@@V?$allocator@UWeaponInfo@@@std@@@std@@@std@@QAE@PAUWeaponInfo@@PBU_Container_base0@1@@Z PROC ; std::_Vector_iterator<std::_Vector_val<WeaponInfo,std::allocator<WeaponInfo> > >::_Vector_iterator<std::_Vector_val<WeaponInfo,std::allocator<WeaponInfo> > >, COMDAT
; _this$ = ecx

; 304  : 		{	// construct with pointer _Parg

  00000	55		 push	 ebp
  00001	8b ec		 mov	 ebp, esp
  00003	8b c1		 mov	 eax, ecx
  00005	8b 4d 08	 mov	 ecx, DWORD PTR __Parg$[ebp]
  00008	89 08		 mov	 DWORD PTR [eax], ecx

; 305  : 		}

  0000a	5d		 pop	 ebp
  0000b	c2 08 00	 ret	 8
??0?$_Vector_iterator@V?$_Vector_val@UWeaponInfo@@V?$allocator@UWeaponInfo@@@std@@@std@@@std@@QAE@PAUWeaponInfo@@PBU_Container_base0@1@@Z ENDP ; std::_Vector_iterator<std::_Vector_val<WeaponInfo,std::allocator<WeaponInfo> > >::_Vector_iterator<std::_Vector_val<WeaponInfo,std::allocator<WeaponInfo> > >
_TEXT	ENDS
PUBLIC	??0?$_Vector_iterator@V?$_Vector_val@UForceInfo@@V?$allocator@UForceInfo@@@std@@@std@@@std@@QAE@PAUForceInfo@@PBU_Container_base0@1@@Z ; std::_Vector_iterator<std::_Vector_val<ForceInfo,std::allocator<ForceInfo> > >::_Vector_iterator<std::_Vector_val<ForceInfo,std::allocator<ForceInfo> > >
; Function compile flags: /Ogsp
;	COMDAT ??0?$_Vector_iterator@V?$_Vector_val@UForceInfo@@V?$allocator@UForceInfo@@@std@@@std@@@std@@QAE@PAUForceInfo@@PBU_Container_base0@1@@Z
_TEXT	SEGMENT
__Parg$ = 8						; size = 4
__Pvector$ = 12						; size = 4
??0?$_Vector_iterator@V?$_Vector_val@UForceInfo@@V?$allocator@UForceInfo@@@std@@@std@@@std@@QAE@PAUForceInfo@@PBU_Container_base0@1@@Z PROC ; std::_Vector_iterator<std::_Vector_val<ForceInfo,std::allocator<ForceInfo> > >::_Vector_iterator<std::_Vector_val<ForceInfo,std::allocator<ForceInfo> > >, COMDAT
; _this$ = ecx

; 304  : 		{	// construct with pointer _Parg

  00000	55		 push	 ebp
  00001	8b ec		 mov	 ebp, esp
  00003	8b c1		 mov	 eax, ecx
  00005	8b 4d 08	 mov	 ecx, DWORD PTR __Parg$[ebp]
  00008	89 08		 mov	 DWORD PTR [eax], ecx

; 305  : 		}

  0000a	5d		 pop	 ebp
  0000b	c2 08 00	 ret	 8
??0?$_Vector_iterator@V?$_Vector_val@UForceInfo@@V?$allocator@UForceInfo@@@std@@@std@@@std@@QAE@PAUForceInfo@@PBU_Container_base0@1@@Z ENDP ; std::_Vector_iterator<std::_Vector_val<ForceInfo,std::allocator<ForceInfo> > >::_Vector_iterator<std::_Vector_val<ForceInfo,std::allocator<ForceInfo> > >
_TEXT	ENDS
PUBLIC	??8?$_Vector_const_iterator@V?$_Vector_val@UWeaponInfo@@V?$allocator@UWeaponInfo@@@std@@@std@@@std@@QBE_NABV01@@Z ; std::_Vector_const_iterator<std::_Vector_val<WeaponInfo,std::allocator<WeaponInfo> > >::operator==
; Function compile flags: /Ogsp
;	COMDAT ??8?$_Vector_const_iterator@V?$_Vector_val@UWeaponInfo@@V?$allocator@UWeaponInfo@@@std@@@std@@@std@@QBE_NABV01@@Z
_TEXT	SEGMENT
__Right$ = 8						; size = 4
??8?$_Vector_const_iterator@V?$_Vector_val@UWeaponInfo@@V?$allocator@UWeaponInfo@@@std@@@std@@@std@@QBE_NABV01@@Z PROC ; std::_Vector_const_iterator<std::_Vector_val<WeaponInfo,std::allocator<WeaponInfo> > >::operator==, COMDAT
; _this$ = ecx

; 201  : 		{	// test for iterator equality

  00000	55		 push	 ebp
  00001	8b ec		 mov	 ebp, esp

; 202  : 		_Compat(_Right);
; 203  : 		return (this->_Ptr == _Right._Ptr);

  00003	8b 01		 mov	 eax, DWORD PTR [ecx]
  00005	8b 4d 08	 mov	 ecx, DWORD PTR __Right$[ebp]
  00008	2b 01		 sub	 eax, DWORD PTR [ecx]
  0000a	f7 d8		 neg	 eax
  0000c	1b c0		 sbb	 eax, eax
  0000e	40		 inc	 eax

; 204  : 		}

  0000f	5d		 pop	 ebp
  00010	c2 04 00	 ret	 4
??8?$_Vector_const_iterator@V?$_Vector_val@UWeaponInfo@@V?$allocator@UWeaponInfo@@@std@@@std@@@std@@QBE_NABV01@@Z ENDP ; std::_Vector_const_iterator<std::_Vector_val<WeaponInfo,std::allocator<WeaponInfo> > >::operator==
_TEXT	ENDS
PUBLIC	??8?$_Vector_const_iterator@V?$_Vector_val@UForceInfo@@V?$allocator@UForceInfo@@@std@@@std@@@std@@QBE_NABV01@@Z ; std::_Vector_const_iterator<std::_Vector_val<ForceInfo,std::allocator<ForceInfo> > >::operator==
; Function compile flags: /Ogsp
;	COMDAT ??8?$_Vector_const_iterator@V?$_Vector_val@UForceInfo@@V?$allocator@UForceInfo@@@std@@@std@@@std@@QBE_NABV01@@Z
_TEXT	SEGMENT
__Right$ = 8						; size = 4
??8?$_Vector_const_iterator@V?$_Vector_val@UForceInfo@@V?$allocator@UForceInfo@@@std@@@std@@@std@@QBE_NABV01@@Z PROC ; std::_Vector_const_iterator<std::_Vector_val<ForceInfo,std::allocator<ForceInfo> > >::operator==, COMDAT
; _this$ = ecx

; 201  : 		{	// test for iterator equality

  00000	55		 push	 ebp
  00001	8b ec		 mov	 ebp, esp

; 202  : 		_Compat(_Right);
; 203  : 		return (this->_Ptr == _Right._Ptr);

  00003	8b 01		 mov	 eax, DWORD PTR [ecx]
  00005	8b 4d 08	 mov	 ecx, DWORD PTR __Right$[ebp]
  00008	2b 01		 sub	 eax, DWORD PTR [ecx]
  0000a	f7 d8		 neg	 eax
  0000c	1b c0		 sbb	 eax, eax
  0000e	40		 inc	 eax

; 204  : 		}

  0000f	5d		 pop	 ebp
  00010	c2 04 00	 ret	 4
??8?$_Vector_const_iterator@V?$_Vector_val@UForceInfo@@V?$allocator@UForceInfo@@@std@@@std@@@std@@QBE_NABV01@@Z ENDP ; std::_Vector_const_iterator<std::_Vector_val<ForceInfo,std::allocator<ForceInfo> > >::operator==
_TEXT	ENDS
PUBLIC	??$_Copy_impl@PAUForceInfo@@PAU1@@std@@YAPAUForceInfo@@PAU1@00@Z ; std::_Copy_impl<ForceInfo *,ForceInfo *>
; Function compile flags: /Ogsp
; File c:\program files (x86)\microsoft visual studio 10.0\vc\include\xutility
;	COMDAT ??$_Copy_impl@PAUForceInfo@@PAU1@@std@@YAPAUForceInfo@@PAU1@00@Z
_TEXT	SEGMENT
__Cat$552201 = -4					; size = 1
__First$ = 8						; size = 4
__Last$ = 12						; size = 4
__Dest$ = 16						; size = 4
??$_Copy_impl@PAUForceInfo@@PAU1@@std@@YAPAUForceInfo@@PAU1@00@Z PROC ; std::_Copy_impl<ForceInfo *,ForceInfo *>, COMDAT

; 2163 : 	{	// copy [_First, _Last) to [_Dest, ...)

  00000	55		 push	 ebp
  00001	8b ec		 mov	 ebp, esp
  00003	51		 push	 ecx

; 2164 : 	return (_Copy_impl(_First, _Last,
; 2165 : 		_Dest, _Ptr_cat(_First, _Dest)));

  00004	ff 75 fc	 push	 DWORD PTR __Cat$552201[ebp]
  00007	ff 75 10	 push	 DWORD PTR __Dest$[ebp]
  0000a	ff 75 0c	 push	 DWORD PTR __Last$[ebp]
  0000d	ff 75 08	 push	 DWORD PTR __First$[ebp]
  00010	e8 00 00 00 00	 call	 ??$_Copy_impl@PAUForceInfo@@PAU1@@std@@YAPAUForceInfo@@PAU1@00U_Nonscalar_ptr_iterator_tag@0@@Z ; std::_Copy_impl<ForceInfo *,ForceInfo *>
  00015	83 c4 10	 add	 esp, 16			; 00000010H

; 2166 : 	}

  00018	c9		 leave
  00019	c3		 ret	 0
??$_Copy_impl@PAUForceInfo@@PAU1@@std@@YAPAUForceInfo@@PAU1@00@Z ENDP ; std::_Copy_impl<ForceInfo *,ForceInfo *>
_TEXT	ENDS
PUBLIC	?destroy@?$allocator@UForceInfo@@@std@@QAEXPAUForceInfo@@@Z ; std::allocator<ForceInfo>::destroy
; Function compile flags: /Ogsp
; File c:\program files (x86)\microsoft visual studio 10.0\vc\include\xmemory
;	COMDAT ?destroy@?$allocator@UForceInfo@@@std@@QAEXPAUForceInfo@@@Z
_TEXT	SEGMENT
__Ptr$ = 8						; size = 4
?destroy@?$allocator@UForceInfo@@@std@@QAEXPAUForceInfo@@@Z PROC ; std::allocator<ForceInfo>::destroy, COMDAT
; _this$ = ecx

; 213  : 		_Destroy(_Ptr);
; 214  : 		}

  00000	c2 04 00	 ret	 4
?destroy@?$allocator@UForceInfo@@@std@@QAEXPAUForceInfo@@@Z ENDP ; std::allocator<ForceInfo>::destroy
_TEXT	ENDS
PUBLIC	??$_Copy_impl@PAUWeaponInfo@@PAU1@@std@@YAPAUWeaponInfo@@PAU1@00U_Nonscalar_ptr_iterator_tag@0@@Z ; std::_Copy_impl<WeaponInfo *,WeaponInfo *>
; Function compile flags: /Ogsp
; File c:\program files (x86)\microsoft visual studio 10.0\vc\include\xutility
;	COMDAT ??$_Copy_impl@PAUWeaponInfo@@PAU1@@std@@YAPAUWeaponInfo@@PAU1@00U_Nonscalar_ptr_iterator_tag@0@@Z
_TEXT	SEGMENT
__First$ = 8						; size = 4
__Last$ = 12						; size = 4
__Dest$ = 16						; size = 4
___formal$ = 20						; size = 1
??$_Copy_impl@PAUWeaponInfo@@PAU1@@std@@YAPAUWeaponInfo@@PAU1@00U_Nonscalar_ptr_iterator_tag@0@@Z PROC ; std::_Copy_impl<WeaponInfo *,WeaponInfo *>, COMDAT

; 2142 : 	{	// copy [_First, _Last) to [_Dest, ...), arbitrary iterators

  00000	55		 push	 ebp
  00001	8b ec		 mov	 ebp, esp
  00003	56		 push	 esi

; 2143 : 	for (; _First != _Last; ++_Dest, ++_First)

  00004	8b 75 08	 mov	 esi, DWORD PTR __First$[ebp]
  00007	eb 10		 jmp	 SHORT $LN9@Copy_impl@2
$LL3@Copy_impl@2:

; 2144 : 		*_Dest = *_First;

  00009	8b 4d 10	 mov	 ecx, DWORD PTR __Dest$[ebp]
  0000c	56		 push	 esi
  0000d	e8 00 00 00 00	 call	 ??4WeaponInfo@@QAEAAU0@ABU0@@Z
  00012	83 45 10 28	 add	 DWORD PTR __Dest$[ebp], 40 ; 00000028H
  00016	83 c6 28	 add	 esi, 40			; 00000028H
$LN9@Copy_impl@2:

; 2143 : 	for (; _First != _Last; ++_Dest, ++_First)

  00019	3b 75 0c	 cmp	 esi, DWORD PTR __Last$[ebp]
  0001c	75 eb		 jne	 SHORT $LL3@Copy_impl@2

; 2145 : 	return (_Dest);

  0001e	8b 45 10	 mov	 eax, DWORD PTR __Dest$[ebp]
  00021	5e		 pop	 esi

; 2146 : 	}

  00022	5d		 pop	 ebp
  00023	c3		 ret	 0
??$_Copy_impl@PAUWeaponInfo@@PAU1@@std@@YAPAUWeaponInfo@@PAU1@00U_Nonscalar_ptr_iterator_tag@0@@Z ENDP ; std::_Copy_impl<WeaponInfo *,WeaponInfo *>
_TEXT	ENDS
PUBLIC	??$_Move@PAUWeaponInfo@@PAU1@@std@@YAPAUWeaponInfo@@PAU1@00U_Nonscalar_ptr_iterator_tag@0@@Z ; std::_Move<WeaponInfo *,WeaponInfo *>
; Function compile flags: /Ogsp
;	COMDAT ??$_Move@PAUWeaponInfo@@PAU1@@std@@YAPAUWeaponInfo@@PAU1@00U_Nonscalar_ptr_iterator_tag@0@@Z
_TEXT	SEGMENT
__First$ = 8						; size = 4
__Last$ = 12						; size = 4
__Dest$ = 16						; size = 4
___formal$ = 20						; size = 1
??$_Move@PAUWeaponInfo@@PAU1@@std@@YAPAUWeaponInfo@@PAU1@00U_Nonscalar_ptr_iterator_tag@0@@Z PROC ; std::_Move<WeaponInfo *,WeaponInfo *>, COMDAT

; 2512 : 	{	// move [_First, _Last) to [_Dest, ...), arbitrary iterators

  00000	55		 push	 ebp
  00001	8b ec		 mov	 ebp, esp
  00003	56		 push	 esi

; 2513 : 	for (; _First != _Last; ++_Dest, ++_First)

  00004	8b 75 08	 mov	 esi, DWORD PTR __First$[ebp]
  00007	eb 10		 jmp	 SHORT $LN11@Move
$LL3@Move:

; 2514 : 		*_Dest = _STD move(*_First);

  00009	8b 4d 10	 mov	 ecx, DWORD PTR __Dest$[ebp]
  0000c	56		 push	 esi
  0000d	e8 00 00 00 00	 call	 ??4WeaponInfo@@QAEAAU0@ABU0@@Z
  00012	83 45 10 28	 add	 DWORD PTR __Dest$[ebp], 40 ; 00000028H
  00016	83 c6 28	 add	 esi, 40			; 00000028H
$LN11@Move:

; 2513 : 	for (; _First != _Last; ++_Dest, ++_First)

  00019	3b 75 0c	 cmp	 esi, DWORD PTR __Last$[ebp]
  0001c	75 eb		 jne	 SHORT $LL3@Move

; 2515 : 	return (_Dest);

  0001e	8b 45 10	 mov	 eax, DWORD PTR __Dest$[ebp]
  00021	5e		 pop	 esi

; 2516 : 	}

  00022	5d		 pop	 ebp
  00023	c3		 ret	 0
??$_Move@PAUWeaponInfo@@PAU1@@std@@YAPAUWeaponInfo@@PAU1@00U_Nonscalar_ptr_iterator_tag@0@@Z ENDP ; std::_Move<WeaponInfo *,WeaponInfo *>
_TEXT	ENDS
PUBLIC	??$_Move@PAUForceInfo@@PAU1@@std@@YAPAUForceInfo@@PAU1@00U_Nonscalar_ptr_iterator_tag@0@@Z ; std::_Move<ForceInfo *,ForceInfo *>
; Function compile flags: /Ogsp
;	COMDAT ??$_Move@PAUForceInfo@@PAU1@@std@@YAPAUForceInfo@@PAU1@00U_Nonscalar_ptr_iterator_tag@0@@Z
_TEXT	SEGMENT
__First$ = 8						; size = 4
__Last$ = 12						; size = 4
__Dest$ = 16						; size = 4
___formal$ = 20						; size = 1
??$_Move@PAUForceInfo@@PAU1@@std@@YAPAUForceInfo@@PAU1@00U_Nonscalar_ptr_iterator_tag@0@@Z PROC ; std::_Move<ForceInfo *,ForceInfo *>, COMDAT

; 2512 : 	{	// move [_First, _Last) to [_Dest, ...), arbitrary iterators

  00000	55		 push	 ebp
  00001	8b ec		 mov	 ebp, esp

; 2513 : 	for (; _First != _Last; ++_Dest, ++_First)

  00003	8b 45 08	 mov	 eax, DWORD PTR __First$[ebp]
  00006	3b 45 0c	 cmp	 eax, DWORD PTR __Last$[ebp]
  00009	74 18		 je	 SHORT $LN10@Move@2
  0000b	56		 push	 esi
  0000c	57		 push	 edi
$LL3@Move@2:

; 2514 : 		*_Dest = _STD move(*_First);

  0000d	8b 7d 10	 mov	 edi, DWORD PTR __Dest$[ebp]
  00010	83 45 10 0c	 add	 DWORD PTR __Dest$[ebp], 12 ; 0000000cH
  00014	8b f0		 mov	 esi, eax
  00016	a5		 movsd
  00017	a5		 movsd
  00018	83 c0 0c	 add	 eax, 12			; 0000000cH
  0001b	a5		 movsd
  0001c	3b 45 0c	 cmp	 eax, DWORD PTR __Last$[ebp]
  0001f	75 ec		 jne	 SHORT $LL3@Move@2
  00021	5f		 pop	 edi
  00022	5e		 pop	 esi
$LN10@Move@2:

; 2515 : 	return (_Dest);

  00023	8b 45 10	 mov	 eax, DWORD PTR __Dest$[ebp]

; 2516 : 	}

  00026	5d		 pop	 ebp
  00027	c3		 ret	 0
??$_Move@PAUForceInfo@@PAU1@@std@@YAPAUForceInfo@@PAU1@00U_Nonscalar_ptr_iterator_tag@0@@Z ENDP ; std::_Move<ForceInfo *,ForceInfo *>
_TEXT	ENDS
PUBLIC	??$_Destroy@UWeaponInfo@@@std@@YAXPAUWeaponInfo@@@Z ; std::_Destroy<WeaponInfo>
; Function compile flags: /Ogsp
; File c:\program files (x86)\microsoft visual studio 10.0\vc\include\xmemory
;	COMDAT ??$_Destroy@UWeaponInfo@@@std@@YAXPAUWeaponInfo@@@Z
_TEXT	SEGMENT
__Ptr$ = 8						; size = 4
??$_Destroy@UWeaponInfo@@@std@@YAXPAUWeaponInfo@@@Z PROC ; std::_Destroy<WeaponInfo>, COMDAT

; 62   : 	{	// destroy object at _Ptr

  00000	55		 push	 ebp
  00001	8b ec		 mov	 ebp, esp

; 63   : 	_Ptr->~_Ty();

  00003	8b 4d 08	 mov	 ecx, DWORD PTR __Ptr$[ebp]
  00006	83 c1 08	 add	 ecx, 8

; 64   : 	}

  00009	5d		 pop	 ebp

; 63   : 	_Ptr->~_Ty();

  0000a	ff 25 00 00 00
	00		 jmp	 DWORD PTR __imp_??1ioHashString@@QAE@XZ
??$_Destroy@UWeaponInfo@@@std@@YAXPAUWeaponInfo@@@Z ENDP ; std::_Destroy<WeaponInfo>
_TEXT	ENDS
PUBLIC	??$_Cons_val@V?$allocator@UForceInfo@@@std@@UForceInfo@@AAU3@@std@@YAXAAV?$allocator@UForceInfo@@@0@PAUForceInfo@@AAU2@@Z ; std::_Cons_val<std::allocator<ForceInfo>,ForceInfo,ForceInfo &>
; Function compile flags: /Ogsp
;	COMDAT ??$_Cons_val@V?$allocator@UForceInfo@@@std@@UForceInfo@@AAU3@@std@@YAXAAV?$allocator@UForceInfo@@@0@PAUForceInfo@@AAU2@@Z
_TEXT	SEGMENT
__Alval$ = 8						; size = 4
__Pdest$ = 12						; size = 4
__Src$ = 16						; size = 4
??$_Cons_val@V?$allocator@UForceInfo@@@std@@UForceInfo@@AAU3@@std@@YAXAAV?$allocator@UForceInfo@@@0@PAUForceInfo@@AAU2@@Z PROC ; std::_Cons_val<std::allocator<ForceInfo>,ForceInfo,ForceInfo &>, COMDAT

; 279  : 	{	// construct using allocator

  00000	55		 push	 ebp
  00001	8b ec		 mov	 ebp, esp
  00003	57		 push	 edi

; 280  : 	_Alval.construct(_Pdest, _STD forward<_Ty2>(_Src));

  00004	8b 7d 0c	 mov	 edi, DWORD PTR __Pdest$[ebp]
  00007	85 ff		 test	 edi, edi
  00009	74 08		 je	 SHORT $LN7@Cons_val
  0000b	56		 push	 esi
  0000c	8b 75 10	 mov	 esi, DWORD PTR __Src$[ebp]
  0000f	a5		 movsd
  00010	a5		 movsd
  00011	a5		 movsd
  00012	5e		 pop	 esi
$LN7@Cons_val:
  00013	5f		 pop	 edi

; 281  : 	}

  00014	5d		 pop	 ebp
  00015	c3		 ret	 0
??$_Cons_val@V?$allocator@UForceInfo@@@std@@UForceInfo@@AAU3@@std@@YAXAAV?$allocator@UForceInfo@@@0@PAUForceInfo@@AAU2@@Z ENDP ; std::_Cons_val<std::allocator<ForceInfo>,ForceInfo,ForceInfo &>
_TEXT	ENDS
PUBLIC	??$construct@AAUWeaponInfo@@@?$allocator@UWeaponInfo@@@std@@QAEXPAUWeaponInfo@@AAU2@@Z ; std::allocator<WeaponInfo>::construct<WeaponInfo &>
;	COMDAT xdata$x
; File c:\program files (x86)\microsoft visual studio 10.0\vc\include\utility
xdata$x	SEGMENT
__unwindtable$??$construct@AAUWeaponInfo@@@?$allocator@UWeaponInfo@@@std@@QAEXPAUWeaponInfo@@AAU2@@Z DD 0ffffffffH
	DD	FLAT:__unwindfunclet$??$construct@AAUWeaponInfo@@@?$allocator@UWeaponInfo@@@std@@QAEXPAUWeaponInfo@@AAU2@@Z$0
__ehfuncinfo$??$construct@AAUWeaponInfo@@@?$allocator@UWeaponInfo@@@std@@QAEXPAUWeaponInfo@@AAU2@@Z DD 019930522H
	DD	01H
	DD	FLAT:__unwindtable$??$construct@AAUWeaponInfo@@@?$allocator@UWeaponInfo@@@std@@QAEXPAUWeaponInfo@@AAU2@@Z
	DD	2 DUP(00H)
	DD	2 DUP(00H)
	DD	00H
	DD	01H
; Function compile flags: /Ogsp
; File c:\program files (x86)\microsoft visual studio 10.0\vc\include\xmemory
xdata$x	ENDS
;	COMDAT ??$construct@AAUWeaponInfo@@@?$allocator@UWeaponInfo@@@std@@QAEXPAUWeaponInfo@@AAU2@@Z
_TEXT	SEGMENT
$T552273 = -16						; size = 4
__$EHRec$ = -12						; size = 12
__Ptr$ = 8						; size = 4
__Val$ = 12						; size = 4
??$construct@AAUWeaponInfo@@@?$allocator@UWeaponInfo@@@std@@QAEXPAUWeaponInfo@@AAU2@@Z PROC ; std::allocator<WeaponInfo>::construct<WeaponInfo &>, COMDAT
; _this$ = ecx

; 206  : 		void construct(pointer _Ptr, _Other&& _Val)

  00000	6a 04		 push	 4
  00002	b8 00 00 00 00	 mov	 eax, __ehhandler$??$construct@AAUWeaponInfo@@@?$allocator@UWeaponInfo@@@std@@QAEXPAUWeaponInfo@@AAU2@@Z
  00007	e8 00 00 00 00	 call	 __EH_prolog3

; 207  : 		{	// construct object at _Ptr with value _Val
; 208  : 		::new ((void _FARQ *)_Ptr) _Ty(_STD forward<_Other>(_Val));

  0000c	8b 4d 08	 mov	 ecx, DWORD PTR __Ptr$[ebp]
  0000f	89 4d f0	 mov	 DWORD PTR $T552273[ebp], ecx
  00012	83 65 fc 00	 and	 DWORD PTR __$EHRec$[ebp+8], 0
  00016	85 c9		 test	 ecx, ecx
  00018	74 08		 je	 SHORT $LN3@construct@3
  0001a	ff 75 0c	 push	 DWORD PTR __Val$[ebp]
  0001d	e8 00 00 00 00	 call	 ??0WeaponInfo@@QAE@ABU0@@Z
$LN3@construct@3:

; 209  : 		}

  00022	e8 00 00 00 00	 call	 __EH_epilog3
  00027	c2 08 00	 ret	 8
_TEXT	ENDS
;	COMDAT text$x
text$x	SEGMENT
__unwindfunclet$??$construct@AAUWeaponInfo@@@?$allocator@UWeaponInfo@@@std@@QAEXPAUWeaponInfo@@AAU2@@Z$0:
  00000	ff 75 08	 push	 DWORD PTR __Ptr$[ebp]
  00003	ff 75 f0	 push	 DWORD PTR $T552273[ebp]
  00006	e8 00 00 00 00	 call	 ??3@YAXPAX0@Z		; operator delete
  0000b	59		 pop	 ecx
  0000c	59		 pop	 ecx
  0000d	c3		 ret	 0
__ehhandler$??$construct@AAUWeaponInfo@@@?$allocator@UWeaponInfo@@@std@@QAEXPAUWeaponInfo@@AAU2@@Z:
  0000e	8b 54 24 08	 mov	 edx, DWORD PTR [esp+8]
  00012	8d 42 0c	 lea	 eax, DWORD PTR [edx+12]
  00015	8b 4a ec	 mov	 ecx, DWORD PTR [edx-20]
  00018	33 c8		 xor	 ecx, eax
  0001a	e8 00 00 00 00	 call	 @__security_check_cookie@4
  0001f	b8 00 00 00 00	 mov	 eax, OFFSET __ehfuncinfo$??$construct@AAUWeaponInfo@@@?$allocator@UWeaponInfo@@@std@@QAEXPAUWeaponInfo@@AAU2@@Z
  00024	e9 00 00 00 00	 jmp	 ___CxxFrameHandler3
text$x	ENDS
??$construct@AAUWeaponInfo@@@?$allocator@UWeaponInfo@@@std@@QAEXPAUWeaponInfo@@AAU2@@Z ENDP ; std::allocator<WeaponInfo>::construct<WeaponInfo &>
PUBLIC	?OnSkillStart@ioTargetFlowAttackSkill@@UAE_NPAVioBaseChar@@@Z ; ioTargetFlowAttackSkill::OnSkillStart
EXTRN	__imp_?GetLoopSec@ioFrameTimer@@QBEKXZ:PROC
EXTRN	__imp_?GetSingleton@ioFrameTimer@@SAAAV1@XZ:PROC
EXTRN	?OnSkillStart@ioAttackSkill@@UAE_NPAVioBaseChar@@@Z:PROC ; ioAttackSkill::OnSkillStart
; Function compile flags: /Ogsp
; File d:\lost saga for developer\youtube\tutorial\source\src\lsclient\iotargetflowattackskill.cpp
;	COMDAT ?OnSkillStart@ioTargetFlowAttackSkill@@UAE_NPAVioBaseChar@@@Z
_TEXT	SEGMENT
_value$552294 = 8					; size = 4
_pChar$ = 8						; size = 4
?OnSkillStart@ioTargetFlowAttackSkill@@UAE_NPAVioBaseChar@@@Z PROC ; ioTargetFlowAttackSkill::OnSkillStart, COMDAT
; _this$ = ecx

; 83   : {

  00000	55		 push	 ebp
  00001	8b ec		 mov	 ebp, esp
  00003	56		 push	 esi

; 84   : 	if( !ioAttackSkill::OnSkillStart( pChar ) )

  00004	ff 75 08	 push	 DWORD PTR _pChar$[ebp]
  00007	8b f1		 mov	 esi, ecx
  00009	e8 00 00 00 00	 call	 ?OnSkillStart@ioAttackSkill@@UAE_NPAVioBaseChar@@@Z ; ioAttackSkill::OnSkillStart
  0000e	84 c0		 test	 al, al
  00010	74 3d		 je	 SHORT $LN3@OnSkillSta
$LN2@OnSkillSta:

; 85   : 		return false;
; 86   : 
; 87   : 	Init();

  00012	8b ce		 mov	 ecx, esi
  00014	e8 00 00 00 00	 call	 ?Init@ioTargetFlowAttackSkill@@QAEXXZ ; ioTargetFlowAttackSkill::Init

; 88   : 
; 89   : 	//    
; 90   : 	if( m_bUseItemMesh )

  00019	33 c0		 xor	 eax, eax
  0001b	38 86 08 0f 00
	00		 cmp	 BYTE PTR [esi+3848], al
  00021	74 0a		 je	 SHORT $LN1@OnSkillSta

; 91   : 	{
; 92   : 		pChar->ShowWeaponItemMesh( false );

  00023	8b 4d 08	 mov	 ecx, DWORD PTR _pChar$[ebp]
  00026	50		 push	 eax
  00027	50		 push	 eax
  00028	e8 00 00 00 00	 call	 ?ShowWeaponItemMesh@ioBaseChar@@QAEX_N0@Z ; ioBaseChar::ShowWeaponItemMesh
$LN1@OnSkillSta:

; 93   : 	}
; 94   : 
; 95   : 	m_dwSkillStartTime = FRAMEGETTIME();

  0002d	ff 15 00 00 00
	00		 call	 DWORD PTR __imp_?GetSingleton@ioFrameTimer@@SAAAV1@XZ
  00033	8b c8		 mov	 ecx, eax
  00035	ff 15 00 00 00
	00		 call	 DWORD PTR __imp_?GetLoopSec@ioFrameTimer@@QBEKXZ
  0003b	89 45 08	 mov	 DWORD PTR _value$552294[ebp], eax
  0003e	8d 45 08	 lea	 eax, DWORD PTR _value$552294[ebp]
  00041	50		 push	 eax
  00042	8d 8e 94 0e 00
	00		 lea	 ecx, DWORD PTR [esi+3732]
  00048	e8 00 00 00 00	 call	 ?EncryptValueToPool@?$CEncrypt@K@@AAEXPBD@Z ; CEncrypt<unsigned long>::EncryptValueToPool

; 96   : 
; 97   : 	return true;

  0004d	b0 01		 mov	 al, 1
$LN3@OnSkillSta:
  0004f	5e		 pop	 esi

; 98   : }

  00050	5d		 pop	 ebp
  00051	c2 04 00	 ret	 4
?OnSkillStart@ioTargetFlowAttackSkill@@UAE_NPAVioBaseChar@@@Z ENDP ; ioTargetFlowAttackSkill::OnSkillStart
_TEXT	ENDS
PUBLIC	?CheckPreState@ioTargetFlowAttackSkill@@IAEXPAVioBaseChar@@PAVioPlayStage@@@Z ; ioTargetFlowAttackSkill::CheckPreState
; Function compile flags: /Ogsp
;	COMDAT ?CheckPreState@ioTargetFlowAttackSkill@@IAEXPAVioBaseChar@@PAVioPlayStage@@@Z
_TEXT	SEGMENT
_pChar$ = 8						; size = 4
_pStage$ = 12						; size = 4
?CheckPreState@ioTargetFlowAttackSkill@@IAEXPAVioBaseChar@@PAVioPlayStage@@@Z PROC ; ioTargetFlowAttackSkill::CheckPreState, COMDAT
; _this$ = ecx

; 132  : {

  00000	55		 push	 ebp
  00001	8b ec		 mov	 ebp, esp
  00003	56		 push	 esi
  00004	57		 push	 edi
  00005	8b f1		 mov	 esi, ecx

; 133  : 	DWORD dwCurTime = FRAMEGETTIME();

  00007	ff 15 00 00 00
	00		 call	 DWORD PTR __imp_?GetSingleton@ioFrameTimer@@SAAAV1@XZ
  0000d	8b c8		 mov	 ecx, eax
  0000f	ff 15 00 00 00
	00		 call	 DWORD PTR __imp_?GetLoopSec@ioFrameTimer@@QBEKXZ
  00015	8b f8		 mov	 edi, eax

; 134  : 	DWORD dwPreDelay = GetPreDelayTime();

  00017	8b 06		 mov	 eax, DWORD PTR [esi]
  00019	8b ce		 mov	 ecx, esi
  0001b	ff 90 34 01 00
	00		 call	 DWORD PTR [eax+308]

; 135  : 
; 136  : 	if( m_dwPreDelayStartTime + dwPreDelay < dwCurTime )

  00021	8b 96 20 02 00
	00		 mov	 edx, DWORD PTR [esi+544]
  00027	03 d0		 add	 edx, eax
  00029	3b d7		 cmp	 edx, edi
  0002b	73 21		 jae	 SHORT $LN1@CheckPreSt

; 137  : 	{
; 138  : 		m_dwPreDelayStartTime = 0;
; 139  : 		EndPreDelayEffect( pChar );

  0002d	ff 75 08	 push	 DWORD PTR _pChar$[ebp]
  00030	8b 06		 mov	 eax, DWORD PTR [esi]
  00032	83 a6 20 02 00
	00 00		 and	 DWORD PTR [esi+544], 0
  00039	8b ce		 mov	 ecx, esi
  0003b	ff 90 dc 00 00
	00		 call	 DWORD PTR [eax+220]

; 140  : 		SetSkillActionState( pChar, pStage );

  00041	ff 75 0c	 push	 DWORD PTR _pStage$[ebp]
  00044	8b ce		 mov	 ecx, esi
  00046	ff 75 08	 push	 DWORD PTR _pChar$[ebp]
  00049	e8 00 00 00 00	 call	 ?SetSkillActionState@ioTargetFlowAttackSkill@@IAEXPAVioBaseChar@@PAVioPlayStage@@@Z ; ioTargetFlowAttackSkill::SetSkillActionState
$LN1@CheckPreSt:
  0004e	5f		 pop	 edi
  0004f	5e		 pop	 esi

; 141  : 	}
; 142  : }

  00050	5d		 pop	 ebp
  00051	c2 08 00	 ret	 8
?CheckPreState@ioTargetFlowAttackSkill@@IAEXPAVioBaseChar@@PAVioPlayStage@@@Z ENDP ; ioTargetFlowAttackSkill::CheckPreState
_TEXT	ENDS
PUBLIC	?CheckTargetComoboState@ioTargetFlowAttackSkill@@IAEXPAVioBaseChar@@PAVioPlayStage@@@Z ; ioTargetFlowAttackSkill::CheckTargetComoboState
; Function compile flags: /Ogsp
;	COMDAT ?CheckTargetComoboState@ioTargetFlowAttackSkill@@IAEXPAVioBaseChar@@PAVioPlayStage@@@Z
_TEXT	SEGMENT
_pChar$ = 8						; size = 4
_pStage$ = 12						; size = 4
?CheckTargetComoboState@ioTargetFlowAttackSkill@@IAEXPAVioBaseChar@@PAVioPlayStage@@@Z PROC ; ioTargetFlowAttackSkill::CheckTargetComoboState, COMDAT
; _this$ = ecx

; 145  : {	

  00000	55		 push	 ebp
  00001	8b ec		 mov	 ebp, esp
  00003	56		 push	 esi
  00004	57		 push	 edi
  00005	8b f9		 mov	 edi, ecx

; 146  : 	if( 0 < m_dwMotionEndTime && m_dwMotionEndTime < FRAMEGETTIME() )

  00007	83 bf d8 02 00
	00 00		 cmp	 DWORD PTR [edi+728], 0
  0000e	76 32		 jbe	 SHORT $LN1@CheckTarge
  00010	ff 15 00 00 00
	00		 call	 DWORD PTR __imp_?GetSingleton@ioFrameTimer@@SAAAV1@XZ
  00016	8b c8		 mov	 ecx, eax
  00018	ff 15 00 00 00
	00		 call	 DWORD PTR __imp_?GetLoopSec@ioFrameTimer@@QBEKXZ
  0001e	39 87 d8 02 00
	00		 cmp	 DWORD PTR [edi+728], eax
  00024	73 1c		 jae	 SHORT $LN1@CheckTarge

; 147  : 	{
; 148  : 		if( pChar->IsNeedProcess() )

  00026	8b 75 08	 mov	 esi, DWORD PTR _pChar$[ebp]
  00029	8b 06		 mov	 eax, DWORD PTR [esi]
  0002b	8b ce		 mov	 ecx, esi
  0002d	ff 90 00 01 00
	00		 call	 DWORD PTR [eax+256]
  00033	84 c0		 test	 al, al
  00035	74 0b		 je	 SHORT $LN1@CheckTarge

; 149  : 		{
; 150  : 			SetTeleportState( pChar, pStage );

  00037	ff 75 0c	 push	 DWORD PTR _pStage$[ebp]
  0003a	8b cf		 mov	 ecx, edi
  0003c	56		 push	 esi
  0003d	e8 00 00 00 00	 call	 ?SetTeleportState@ioTargetFlowAttackSkill@@IAEXPAVioBaseChar@@PAVioPlayStage@@@Z ; ioTargetFlowAttackSkill::SetTeleportState
$LN1@CheckTarge:
  00042	5f		 pop	 edi
  00043	5e		 pop	 esi

; 151  : 		}
; 152  : 	}
; 153  : }

  00044	5d		 pop	 ebp
  00045	c2 08 00	 ret	 8
?CheckTargetComoboState@ioTargetFlowAttackSkill@@IAEXPAVioBaseChar@@PAVioPlayStage@@@Z ENDP ; ioTargetFlowAttackSkill::CheckTargetComoboState
_TEXT	ENDS
PUBLIC	?CheckLinerComoboState@ioTargetFlowAttackSkill@@IAEXPAVioBaseChar@@PAVioPlayStage@@@Z ; ioTargetFlowAttackSkill::CheckLinerComoboState
EXTRN	?CheckCurDirKey@ioBaseChar@@QAE?AW4DirKeyInput@ioUserKeyInput@@XZ:PROC ; ioBaseChar::CheckCurDirKey
EXTRN	?IsAttackKey@ioBaseChar@@QBE_NXZ:PROC		; ioBaseChar::IsAttackKey
EXTRN	?GetSkillKeyInput@ioBaseChar@@QAEHXZ:PROC	; ioBaseChar::GetSkillKeyInput
; Function compile flags: /Ogsp
;	COMDAT ?CheckLinerComoboState@ioTargetFlowAttackSkill@@IAEXPAVioBaseChar@@PAVioPlayStage@@@Z
_TEXT	SEGMENT
_pChar$ = 8						; size = 4
_pStage$ = 12						; size = 4
?CheckLinerComoboState@ioTargetFlowAttackSkill@@IAEXPAVioBaseChar@@PAVioPlayStage@@@Z PROC ; ioTargetFlowAttackSkill::CheckLinerComoboState, COMDAT
; _this$ = ecx

; 156  : {

  00000	55		 push	 ebp
  00001	8b ec		 mov	 ebp, esp
  00003	56		 push	 esi
  00004	8b f1		 mov	 esi, ecx

; 157  : 	if( 0 < m_dwMotionEndTime && m_dwMotionEndTime < FRAMEGETTIME() )

  00006	83 be d8 02 00
	00 00		 cmp	 DWORD PTR [esi+728], 0
  0000d	57		 push	 edi
  0000e	76 3a		 jbe	 SHORT $LN7@CheckLiner
  00010	ff 15 00 00 00
	00		 call	 DWORD PTR __imp_?GetSingleton@ioFrameTimer@@SAAAV1@XZ
  00016	8b c8		 mov	 ecx, eax
  00018	ff 15 00 00 00
	00		 call	 DWORD PTR __imp_?GetLoopSec@ioFrameTimer@@QBEKXZ
  0001e	39 86 d8 02 00
	00		 cmp	 DWORD PTR [esi+728], eax
  00024	73 24		 jae	 SHORT $LN7@CheckLiner

; 158  : 	{
; 159  : 		if( m_bNextLinerCombo )

  00026	80 be 08 11 00
	00 00		 cmp	 BYTE PTR [esi+4360], 0
  0002d	74 0f		 je	 SHORT $LN6@CheckLiner

; 160  : 		{
; 161  : 			SetLinerComoboState( pChar, pStage );

  0002f	ff 75 0c	 push	 DWORD PTR _pStage$[ebp]
  00032	8b ce		 mov	 ecx, esi
  00034	ff 75 08	 push	 DWORD PTR _pChar$[ebp]
  00037	e8 00 00 00 00	 call	 ?SetLinerComoboState@ioTargetFlowAttackSkill@@IAEXPAVioBaseChar@@PAVioPlayStage@@@Z ; ioTargetFlowAttackSkill::SetLinerComoboState

; 162  : 		}
; 163  : 		else

  0003c	eb 61		 jmp	 SHORT $LN1@CheckLiner
$LN6@CheckLiner:

; 164  : 		{
; 165  : 			m_SkillState = SS_END;

  0003e	c7 86 e4 10 00
	00 04 00 00 00	 mov	 DWORD PTR [esi+4324], 4

; 166  : 		}
; 167  : 	}
; 168  : 	else

  00048	eb 55		 jmp	 SHORT $LN1@CheckLiner
$LN7@CheckLiner:

; 169  : 	{
; 170  : 		bool bReserveSkill = false;
; 171  : 		int iSkillNum = pChar->GetSkillKeyInput();

  0004a	8b 4d 08	 mov	 ecx, DWORD PTR _pChar$[ebp]
  0004d	53		 push	 ebx
  0004e	32 db		 xor	 bl, bl
  00050	e8 00 00 00 00	 call	 ?GetSkillKeyInput@ioBaseChar@@QAEHXZ ; ioBaseChar::GetSkillKeyInput

; 172  : 		if( iSkillNum >= 0 )

  00055	85 c0		 test	 eax, eax
  00057	78 02		 js	 SHORT $LN3@CheckLiner

; 173  : 		{
; 174  : 			bReserveSkill = true;

  00059	fe c3		 inc	 bl
$LN3@CheckLiner:

; 175  : 		}
; 176  : 
; 177  : 		if( m_iLinerComoboIndex < (int)m_AttackAttributeList.size() && !bReserveSkill && pChar->IsAttackKey() )

  0005b	8b 86 20 11 00
	00		 mov	 eax, DWORD PTR [esi+4384]
  00061	2b 86 1c 11 00
	00		 sub	 eax, DWORD PTR [esi+4380]
  00067	6a 50		 push	 80			; 00000050H
  00069	99		 cdq
  0006a	59		 pop	 ecx
  0006b	f7 f9		 idiv	 ecx
  0006d	39 86 80 11 00
	00		 cmp	 DWORD PTR [esi+4480], eax
  00073	7d 17		 jge	 SHORT $LN2@CheckLiner
  00075	84 db		 test	 bl, bl
  00077	75 13		 jne	 SHORT $LN2@CheckLiner
  00079	8b 4d 08	 mov	 ecx, DWORD PTR _pChar$[ebp]
  0007c	e8 00 00 00 00	 call	 ?IsAttackKey@ioBaseChar@@QBE_NXZ ; ioBaseChar::IsAttackKey
  00081	84 c0		 test	 al, al
  00083	74 07		 je	 SHORT $LN2@CheckLiner

; 178  : 		{
; 179  : 			m_bNextLinerCombo = true;

  00085	c6 86 08 11 00
	00 01		 mov	 BYTE PTR [esi+4360], 1
$LN2@CheckLiner:

; 180  : 		}
; 181  : 
; 182  : 		ioUserKeyInput::DirKeyInput eDir = pChar->CheckCurDirKey();

  0008c	8b 4d 08	 mov	 ecx, DWORD PTR _pChar$[ebp]
  0008f	e8 00 00 00 00	 call	 ?CheckCurDirKey@ioBaseChar@@QAE?AW4DirKeyInput@ioUserKeyInput@@XZ ; ioBaseChar::CheckCurDirKey
  00094	5b		 pop	 ebx

; 183  : 		if( eDir != ioUserKeyInput::DKI_NONE )

  00095	85 c0		 test	 eax, eax
  00097	74 06		 je	 SHORT $LN1@CheckLiner

; 184  : 		{
; 185  : 			m_eCurrDirKey = eDir;

  00099	89 86 84 11 00
	00		 mov	 DWORD PTR [esi+4484], eax
$LN1@CheckLiner:
  0009f	5f		 pop	 edi
  000a0	5e		 pop	 esi

; 186  : 		}
; 187  : 	}
; 188  : }

  000a1	5d		 pop	 ebp
  000a2	c2 08 00	 ret	 8
?CheckLinerComoboState@ioTargetFlowAttackSkill@@IAEXPAVioBaseChar@@PAVioPlayStage@@@Z ENDP ; ioTargetFlowAttackSkill::CheckLinerComoboState
_TEXT	ENDS
PUBLIC	?IsProtected@ioTargetFlowAttackSkill@@UBE_NH@Z	; ioTargetFlowAttackSkill::IsProtected
; Function compile flags: /Ogsp
;	COMDAT ?IsProtected@ioTargetFlowAttackSkill@@UBE_NH@Z
_TEXT	SEGMENT
_value$552311 = -1					; size = 1
_value$552316 = 8					; size = 4
_iDefenseBreakType$ = 8					; size = 4
?IsProtected@ioTargetFlowAttackSkill@@UBE_NH@Z PROC	; ioTargetFlowAttackSkill::IsProtected, COMDAT
; _this$ = ecx

; 457  : {

  00000	55		 push	 ebp
  00001	8b ec		 mov	 ebp, esp
  00003	51		 push	 ecx
  00004	56		 push	 esi
  00005	8b f1		 mov	 esi, ecx

; 458  : 	if( m_bDisableSkillProtect )

  00007	8d 45 ff	 lea	 eax, DWORD PTR _value$552311[ebp]
  0000a	50		 push	 eax
  0000b	8d 8e a8 00 00
	00		 lea	 ecx, DWORD PTR [esi+168]
  00011	e8 00 00 00 00	 call	 ?DecryptValueToPool@?$CEncrypt@_N@@QAEXPA_N@Z ; CEncrypt<bool>::DecryptValueToPool
  00016	80 7d ff 00	 cmp	 BYTE PTR _value$552311[ebp], 0

; 459  : 		return false;

  0001a	75 46		 jne	 SHORT $LN1@IsProtecte

; 460  : 
; 461  : 	//   
; 462  : 	if( DBT_NONE != (DefenseBreakType)m_ProtectCancelType )

  0001c	8b 86 a4 00 00
	00		 mov	 eax, DWORD PTR [esi+164]
  00022	85 c0		 test	 eax, eax
  00024	74 05		 je	 SHORT $LN2@IsProtecte

; 463  : 	{		
; 464  : 		if( iDefenseBreakType == m_ProtectCancelType )

  00026	39 45 08	 cmp	 DWORD PTR _iDefenseBreakType$[ebp], eax

; 465  : 			return false;

  00029	74 37		 je	 SHORT $LN1@IsProtecte
$LN2@IsProtecte:

; 466  : 	}
; 467  : 
; 468  : 	if( 0 < m_dwSkillProtectTime && FRAMEGETTIME() < m_dwSkillStartTime + m_dwSkillProtectTime )

  0002b	83 be 0c 11 00
	00 00		 cmp	 DWORD PTR [esi+4364], 0
  00032	76 2e		 jbe	 SHORT $LN1@IsProtecte
  00034	8d 45 08	 lea	 eax, DWORD PTR _value$552316[ebp]
  00037	50		 push	 eax
  00038	8d 8e 94 0e 00
	00		 lea	 ecx, DWORD PTR [esi+3732]
  0003e	e8 00 00 00 00	 call	 ?DecryptValueToPool@?$CEncrypt@K@@QAEXPAK@Z ; CEncrypt<unsigned long>::DecryptValueToPool
  00043	ff 15 00 00 00
	00		 call	 DWORD PTR __imp_?GetSingleton@ioFrameTimer@@SAAAV1@XZ
  00049	8b c8		 mov	 ecx, eax
  0004b	ff 15 00 00 00
	00		 call	 DWORD PTR __imp_?GetLoopSec@ioFrameTimer@@QBEKXZ
  00051	8b 8e 0c 11 00
	00		 mov	 ecx, DWORD PTR [esi+4364]
  00057	03 4d 08	 add	 ecx, DWORD PTR _value$552316[ebp]
  0005a	3b c1		 cmp	 eax, ecx
  0005c	73 04		 jae	 SHORT $LN1@IsProtecte

; 469  : 		return true;

  0005e	b0 01		 mov	 al, 1
  00060	eb 02		 jmp	 SHORT $LN5@IsProtecte
$LN1@IsProtecte:

; 470  : 
; 471  : 	return false;

  00062	32 c0		 xor	 al, al
$LN5@IsProtecte:
  00064	5e		 pop	 esi

; 472  : }

  00065	c9		 leave
  00066	c2 04 00	 ret	 4
?IsProtected@ioTargetFlowAttackSkill@@UBE_NH@Z ENDP	; ioTargetFlowAttackSkill::IsProtected
_TEXT	ENDS
PUBLIC	?_Buy@?$vector@UAttackAttribute@@V?$allocator@UAttackAttribute@@@std@@@std@@IAE_NI@Z ; std::vector<AttackAttribute,std::allocator<AttackAttribute> >::_Buy
; Function compile flags: /Ogsp
; File c:\program files (x86)\microsoft visual studio 10.0\vc\include\vector
;	COMDAT ?_Buy@?$vector@UAttackAttribute@@V?$allocator@UAttackAttribute@@@std@@@std@@IAE_NI@Z
_TEXT	SEGMENT
__Capacity$ = 8						; size = 4
?_Buy@?$vector@UAttackAttribute@@V?$allocator@UAttackAttribute@@@std@@@std@@IAE_NI@Z PROC ; std::vector<AttackAttribute,std::allocator<AttackAttribute> >::_Buy, COMDAT
; _this$ = ecx

; 1250 : 		{	// allocate array with _Capacity elements

  00000	55		 push	 ebp
  00001	8b ec		 mov	 ebp, esp
  00003	56		 push	 esi

; 1251 : 		this->_Myfirst = 0;

  00004	33 c0		 xor	 eax, eax
  00006	57		 push	 edi

; 1252 : 		this->_Mylast = 0;
; 1253 : 		this->_Myend = 0;
; 1254 : 
; 1255 : 		if (_Capacity == 0)

  00007	8b 7d 08	 mov	 edi, DWORD PTR __Capacity$[ebp]
  0000a	8b f1		 mov	 esi, ecx
  0000c	89 06		 mov	 DWORD PTR [esi], eax
  0000e	89 46 04	 mov	 DWORD PTR [esi+4], eax
  00011	89 46 08	 mov	 DWORD PTR [esi+8], eax
  00014	3b f8		 cmp	 edi, eax
  00016	75 04		 jne	 SHORT $LN4@Buy

; 1256 : 			return (false);

  00018	32 c0		 xor	 al, al
  0001a	eb 2b		 jmp	 SHORT $LN5@Buy
$LN4@Buy:

; 1257 : 		else if (max_size() < _Capacity)

  0001c	81 ff 33 33 33
	03		 cmp	 edi, 53687091		; 03333333H
  00022	76 0b		 jbe	 SHORT $LN2@Buy

; 1258 : 			_Xlen();	// result too long

  00024	68 00 00 00 00	 push	 OFFSET ??_C@_0BD@OLBABOEK@vector?$DMT?$DO?5too?5long?$AA@
  00029	ff 15 00 00 00
	00		 call	 DWORD PTR __imp_?_Xlength_error@std@@YAXPBD@Z
$LN19@Buy:
$LN2@Buy:

; 1259 : 		else
; 1260 : 			{	// nonempty array, allocate storage
; 1261 : 			this->_Myfirst = this->_Alval.allocate(_Capacity);

  0002f	50		 push	 eax
  00030	57		 push	 edi
  00031	e8 00 00 00 00	 call	 ??$_Allocate@UAttackAttribute@@@std@@YAPAUAttackAttribute@@IPAU1@@Z ; std::_Allocate<AttackAttribute>

; 1262 : 			this->_Mylast = this->_Myfirst;
; 1263 : 			this->_Myend = this->_Myfirst + _Capacity;

  00036	6b ff 50	 imul	 edi, 80			; 00000050H
  00039	03 f8		 add	 edi, eax
  0003b	59		 pop	 ecx
  0003c	89 06		 mov	 DWORD PTR [esi], eax
  0003e	89 46 04	 mov	 DWORD PTR [esi+4], eax
  00041	59		 pop	 ecx
  00042	89 7e 08	 mov	 DWORD PTR [esi+8], edi

; 1264 : 			}
; 1265 : 		return (true);

  00045	b0 01		 mov	 al, 1
$LN5@Buy:
  00047	5f		 pop	 edi
  00048	5e		 pop	 esi

; 1266 : 		}

  00049	5d		 pop	 ebp
  0004a	c2 04 00	 ret	 4
$LN18@Buy:
?_Buy@?$vector@UAttackAttribute@@V?$allocator@UAttackAttribute@@@std@@@std@@IAE_NI@Z ENDP ; std::vector<AttackAttribute,std::allocator<AttackAttribute> >::_Buy
_TEXT	ENDS
PUBLIC	??$_Cons_val@V?$allocator@UForceInfo@@@std@@UForceInfo@@ABU3@@std@@YAXAAV?$allocator@UForceInfo@@@0@PAUForceInfo@@ABU2@@Z ; std::_Cons_val<std::allocator<ForceInfo>,ForceInfo,ForceInfo const &>
; Function compile flags: /Ogsp
; File c:\program files (x86)\microsoft visual studio 10.0\vc\include\xmemory
;	COMDAT ??$_Cons_val@V?$allocator@UForceInfo@@@std@@UForceInfo@@ABU3@@std@@YAXAAV?$allocator@UForceInfo@@@0@PAUForceInfo@@ABU2@@Z
_TEXT	SEGMENT
__Alval$ = 8						; size = 4
__Pdest$ = 12						; size = 4
__Src$ = 16						; size = 4
??$_Cons_val@V?$allocator@UForceInfo@@@std@@UForceInfo@@ABU3@@std@@YAXAAV?$allocator@UForceInfo@@@0@PAUForceInfo@@ABU2@@Z PROC ; std::_Cons_val<std::allocator<ForceInfo>,ForceInfo,ForceInfo const &>, COMDAT

; 279  : 	{	// construct using allocator

  00000	55		 push	 ebp
  00001	8b ec		 mov	 ebp, esp
  00003	57		 push	 edi

; 280  : 	_Alval.construct(_Pdest, _STD forward<_Ty2>(_Src));

  00004	8b 7d 0c	 mov	 edi, DWORD PTR __Pdest$[ebp]
  00007	85 ff		 test	 edi, edi
  00009	74 08		 je	 SHORT $LN9@Cons_val@2
  0000b	56		 push	 esi
  0000c	8b 75 10	 mov	 esi, DWORD PTR __Src$[ebp]
  0000f	a5		 movsd
  00010	a5		 movsd
  00011	a5		 movsd
  00012	5e		 pop	 esi
$LN9@Cons_val@2:
  00013	5f		 pop	 edi

; 281  : 	}

  00014	5d		 pop	 ebp
  00015	c3		 ret	 0
??$_Cons_val@V?$allocator@UForceInfo@@@std@@UForceInfo@@ABU3@@std@@YAXAAV?$allocator@UForceInfo@@@0@PAUForceInfo@@ABU2@@Z ENDP ; std::_Cons_val<std::allocator<ForceInfo>,ForceInfo,ForceInfo const &>
_TEXT	ENDS
PUBLIC	?construct@?$allocator@UWeaponInfo@@@std@@QAEXPAUWeaponInfo@@ABU3@@Z ; std::allocator<WeaponInfo>::construct
; Function compile flags: /Ogsp
;	COMDAT ?construct@?$allocator@UWeaponInfo@@@std@@QAEXPAUWeaponInfo@@ABU3@@Z
_TEXT	SEGMENT
__Ptr$ = 8						; size = 4
__Val$ = 12						; size = 4
?construct@?$allocator@UWeaponInfo@@@std@@QAEXPAUWeaponInfo@@ABU3@@Z PROC ; std::allocator<WeaponInfo>::construct, COMDAT
; _this$ = ecx

; 196  : 		{	// construct object at _Ptr with value _Val

  00000	55		 push	 ebp
  00001	8b ec		 mov	 ebp, esp

; 197  : 		_Construct(_Ptr, _Val);

  00003	ff 75 0c	 push	 DWORD PTR __Val$[ebp]
  00006	ff 75 08	 push	 DWORD PTR __Ptr$[ebp]
  00009	e8 00 00 00 00	 call	 ??$_Construct@UWeaponInfo@@ABU1@@std@@YAXPAUWeaponInfo@@ABU1@@Z ; std::_Construct<WeaponInfo,WeaponInfo const &>
  0000e	59		 pop	 ecx
  0000f	59		 pop	 ecx

; 198  : 		}

  00010	5d		 pop	 ebp
  00011	c2 08 00	 ret	 8
?construct@?$allocator@UWeaponInfo@@@std@@QAEXPAUWeaponInfo@@ABU3@@Z ENDP ; std::allocator<WeaponInfo>::construct
_TEXT	ENDS
PUBLIC	??0?$vector@UWeaponInfo@@V?$allocator@UWeaponInfo@@@std@@@std@@QAE@XZ ; std::vector<WeaponInfo,std::allocator<WeaponInfo> >::vector<WeaponInfo,std::allocator<WeaponInfo> >
; Function compile flags: /Ogsp
; File c:\program files (x86)\microsoft visual studio 10.0\vc\include\vector
;	COMDAT ??0?$vector@UWeaponInfo@@V?$allocator@UWeaponInfo@@@std@@@std@@QAE@XZ
_TEXT	SEGMENT
??0?$vector@UWeaponInfo@@V?$allocator@UWeaponInfo@@@std@@@std@@QAE@XZ PROC ; std::vector<WeaponInfo,std::allocator<WeaponInfo> >::vector<WeaponInfo,std::allocator<WeaponInfo> >, COMDAT
; _this$ = ecx

; 507  : 		{	// construct empty vector

  00000	8b c1		 mov	 eax, ecx
  00002	33 c9		 xor	 ecx, ecx
  00004	89 08		 mov	 DWORD PTR [eax], ecx
  00006	89 48 04	 mov	 DWORD PTR [eax+4], ecx
  00009	89 48 08	 mov	 DWORD PTR [eax+8], ecx

; 508  : 		}

  0000c	c3		 ret	 0
??0?$vector@UWeaponInfo@@V?$allocator@UWeaponInfo@@@std@@@std@@QAE@XZ ENDP ; std::vector<WeaponInfo,std::allocator<WeaponInfo> >::vector<WeaponInfo,std::allocator<WeaponInfo> >
_TEXT	ENDS
PUBLIC	??0?$vector@UForceInfo@@V?$allocator@UForceInfo@@@std@@@std@@QAE@XZ ; std::vector<ForceInfo,std::allocator<ForceInfo> >::vector<ForceInfo,std::allocator<ForceInfo> >
; Function compile flags: /Ogsp
;	COMDAT ??0?$vector@UForceInfo@@V?$allocator@UForceInfo@@@std@@@std@@QAE@XZ
_TEXT	SEGMENT
??0?$vector@UForceInfo@@V?$allocator@UForceInfo@@@std@@@std@@QAE@XZ PROC ; std::vector<ForceInfo,std::allocator<ForceInfo> >::vector<ForceInfo,std::allocator<ForceInfo> >, COMDAT
; _this$ = ecx

; 507  : 		{	// construct empty vector

  00000	8b c1		 mov	 eax, ecx
  00002	33 c9		 xor	 ecx, ecx
  00004	89 08		 mov	 DWORD PTR [eax], ecx
  00006	89 48 04	 mov	 DWORD PTR [eax+4], ecx
  00009	89 48 08	 mov	 DWORD PTR [eax+8], ecx

; 508  : 		}

  0000c	c3		 ret	 0
??0?$vector@UForceInfo@@V?$allocator@UForceInfo@@@std@@@std@@QAE@XZ ENDP ; std::vector<ForceInfo,std::allocator<ForceInfo> >::vector<ForceInfo,std::allocator<ForceInfo> >
_TEXT	ENDS
PUBLIC	??0?$vector@UAttackAttribute@@V?$allocator@UAttackAttribute@@@std@@@std@@QAE@XZ ; std::vector<AttackAttribute,std::allocator<AttackAttribute> >::vector<AttackAttribute,std::allocator<AttackAttribute> >
; Function compile flags: /Ogsp
;	COMDAT ??0?$vector@UAttackAttribute@@V?$allocator@UAttackAttribute@@@std@@@std@@QAE@XZ
_TEXT	SEGMENT
??0?$vector@UAttackAttribute@@V?$allocator@UAttackAttribute@@@std@@@std@@QAE@XZ PROC ; std::vector<AttackAttribute,std::allocator<AttackAttribute> >::vector<AttackAttribute,std::allocator<AttackAttribute> >, COMDAT
; _this$ = ecx

; 507  : 		{	// construct empty vector

  00000	8b c1		 mov	 eax, ecx
  00002	33 c9		 xor	 ecx, ecx
  00004	89 08		 mov	 DWORD PTR [eax], ecx
  00006	89 48 04	 mov	 DWORD PTR [eax+4], ecx
  00009	89 48 08	 mov	 DWORD PTR [eax+8], ecx

; 508  : 		}

  0000c	c3		 ret	 0
??0?$vector@UAttackAttribute@@V?$allocator@UAttackAttribute@@@std@@@std@@QAE@XZ ENDP ; std::vector<AttackAttribute,std::allocator<AttackAttribute> >::vector<AttackAttribute,std::allocator<AttackAttribute> >
_TEXT	ENDS
PUBLIC	?begin@?$vector@UAttackAttribute@@V?$allocator@UAttackAttribute@@@std@@@std@@QAE?AV?$_Vector_iterator@V?$_Vector_val@UAttackAttribute@@V?$allocator@UAttackAttribute@@@std@@@std@@@2@XZ ; std::vector<AttackAttribute,std::allocator<AttackAttribute> >::begin
; Function compile flags: /Ogsp
;	COMDAT ?begin@?$vector@UAttackAttribute@@V?$allocator@UAttackAttribute@@@std@@@std@@QAE?AV?$_Vector_iterator@V?$_Vector_val@UAttackAttribute@@V?$allocator@UAttackAttribute@@@std@@@std@@@2@XZ
_TEXT	SEGMENT
___$ReturnUdt$ = 8					; size = 4
?begin@?$vector@UAttackAttribute@@V?$allocator@UAttackAttribute@@@std@@@std@@QAE?AV?$_Vector_iterator@V?$_Vector_val@UAttackAttribute@@V?$allocator@UAttackAttribute@@@std@@@std@@@2@XZ PROC ; std::vector<AttackAttribute,std::allocator<AttackAttribute> >::begin, COMDAT
; _this$ = ecx

; 781  : 		{	// return iterator for beginning of mutable sequence

  00000	55		 push	 ebp
  00001	8b ec		 mov	 ebp, esp

; 782  : 		return (iterator(this->_Myfirst, this));

  00003	8b 09		 mov	 ecx, DWORD PTR [ecx]
  00005	8b 45 08	 mov	 eax, DWORD PTR ___$ReturnUdt$[ebp]
  00008	89 08		 mov	 DWORD PTR [eax], ecx

; 783  : 		}

  0000a	5d		 pop	 ebp
  0000b	c2 04 00	 ret	 4
?begin@?$vector@UAttackAttribute@@V?$allocator@UAttackAttribute@@@std@@@std@@QAE?AV?$_Vector_iterator@V?$_Vector_val@UAttackAttribute@@V?$allocator@UAttackAttribute@@@std@@@std@@@2@XZ ENDP ; std::vector<AttackAttribute,std::allocator<AttackAttribute> >::begin
_TEXT	ENDS
PUBLIC	?end@?$vector@UAttackAttribute@@V?$allocator@UAttackAttribute@@@std@@@std@@QAE?AV?$_Vector_iterator@V?$_Vector_val@UAttackAttribute@@V?$allocator@UAttackAttribute@@@std@@@std@@@2@XZ ; std::vector<AttackAttribute,std::allocator<AttackAttribute> >::end
; Function compile flags: /Ogsp
;	COMDAT ?end@?$vector@UAttackAttribute@@V?$allocator@UAttackAttribute@@@std@@@std@@QAE?AV?$_Vector_iterator@V?$_Vector_val@UAttackAttribute@@V?$allocator@UAttackAttribute@@@std@@@std@@@2@XZ
_TEXT	SEGMENT
___$ReturnUdt$ = 8					; size = 4
?end@?$vector@UAttackAttribute@@V?$allocator@UAttackAttribute@@@std@@@std@@QAE?AV?$_Vector_iterator@V?$_Vector_val@UAttackAttribute@@V?$allocator@UAttackAttribute@@@std@@@std@@@2@XZ PROC ; std::vector<AttackAttribute,std::allocator<AttackAttribute> >::end, COMDAT
; _this$ = ecx

; 791  : 		{	// return iterator for end of mutable sequence

  00000	55		 push	 ebp
  00001	8b ec		 mov	 ebp, esp

; 792  : 		return (iterator(this->_Mylast, this));

  00003	8b 49 04	 mov	 ecx, DWORD PTR [ecx+4]
  00006	8b 45 08	 mov	 eax, DWORD PTR ___$ReturnUdt$[ebp]
  00009	89 08		 mov	 DWORD PTR [eax], ecx

; 793  : 		}

  0000b	5d		 pop	 ebp
  0000c	c2 04 00	 ret	 4
?end@?$vector@UAttackAttribute@@V?$allocator@UAttackAttribute@@@std@@@std@@QAE?AV?$_Vector_iterator@V?$_Vector_val@UAttackAttribute@@V?$allocator@UAttackAttribute@@@std@@@std@@@2@XZ ENDP ; std::vector<AttackAttribute,std::allocator<AttackAttribute> >::end
_TEXT	ENDS
PUBLIC	?_Make_iter@?$vector@UAttackAttribute@@V?$allocator@UAttackAttribute@@@std@@@std@@QBE?AV?$_Vector_iterator@V?$_Vector_val@UAttackAttribute@@V?$allocator@UAttackAttribute@@@std@@@std@@@2@V?$_Vector_const_iterator@V?$_Vector_val@UAttackAttribute@@V?$allocator@UAttackAttribute@@@std@@@std@@@2@@Z ; std::vector<AttackAttribute,std::allocator<AttackAttribute> >::_Make_iter
; Function compile flags: /Ogsp
;	COMDAT ?_Make_iter@?$vector@UAttackAttribute@@V?$allocator@UAttackAttribute@@@std@@@std@@QBE?AV?$_Vector_iterator@V?$_Vector_val@UAttackAttribute@@V?$allocator@UAttackAttribute@@@std@@@std@@@2@V?$_Vector_const_iterator@V?$_Vector_val@UAttackAttribute@@V?$allocator@UAttackAttribute@@@std@@@std@@@2@@Z
_TEXT	SEGMENT
___$ReturnUdt$ = 8					; size = 4
__Where$ = 12						; size = 4
?_Make_iter@?$vector@UAttackAttribute@@V?$allocator@UAttackAttribute@@@std@@@std@@QBE?AV?$_Vector_iterator@V?$_Vector_val@UAttackAttribute@@V?$allocator@UAttackAttribute@@@std@@@std@@@2@V?$_Vector_const_iterator@V?$_Vector_val@UAttackAttribute@@V?$allocator@UAttackAttribute@@@std@@@std@@@2@@Z PROC ; std::vector<AttackAttribute,std::allocator<AttackAttribute> >::_Make_iter, COMDAT
; _this$ = ecx

; 801  : 		{	// make iterator from const_iterator

  00000	55		 push	 ebp
  00001	8b ec		 mov	 ebp, esp

; 802  : 		return (iterator(_Where._Ptr, this));

  00003	8b 45 08	 mov	 eax, DWORD PTR ___$ReturnUdt$[ebp]
  00006	8b 4d 0c	 mov	 ecx, DWORD PTR __Where$[ebp]
  00009	89 08		 mov	 DWORD PTR [eax], ecx

; 803  : 		}

  0000b	5d		 pop	 ebp
  0000c	c2 08 00	 ret	 8
?_Make_iter@?$vector@UAttackAttribute@@V?$allocator@UAttackAttribute@@@std@@@std@@QBE?AV?$_Vector_iterator@V?$_Vector_val@UAttackAttribute@@V?$allocator@UAttackAttribute@@@std@@@std@@@2@V?$_Vector_const_iterator@V?$_Vector_val@UAttackAttribute@@V?$allocator@UAttackAttribute@@@std@@@std@@@2@@Z ENDP ; std::vector<AttackAttribute,std::allocator<AttackAttribute> >::_Make_iter
_TEXT	ENDS
PUBLIC	??9?$_Vector_const_iterator@V?$_Vector_val@UAttackAttribute@@V?$allocator@UAttackAttribute@@@std@@@std@@@std@@QBE_NABV01@@Z ; std::_Vector_const_iterator<std::_Vector_val<AttackAttribute,std::allocator<AttackAttribute> > >::operator!=
; Function compile flags: /Ogsp
;	COMDAT ??9?$_Vector_const_iterator@V?$_Vector_val@UAttackAttribute@@V?$allocator@UAttackAttribute@@@std@@@std@@@std@@QBE_NABV01@@Z
_TEXT	SEGMENT
__Right$ = 8						; size = 4
??9?$_Vector_const_iterator@V?$_Vector_val@UAttackAttribute@@V?$allocator@UAttackAttribute@@@std@@@std@@@std@@QBE_NABV01@@Z PROC ; std::_Vector_const_iterator<std::_Vector_val<AttackAttribute,std::allocator<AttackAttribute> > >::operator!=, COMDAT
; _this$ = ecx

; 207  : 		{	// test for iterator inequality

  00000	55		 push	 ebp
  00001	8b ec		 mov	 ebp, esp

; 208  : 		return (!(*this == _Right));

  00003	8b 01		 mov	 eax, DWORD PTR [ecx]
  00005	8b 55 08	 mov	 edx, DWORD PTR __Right$[ebp]
  00008	33 c9		 xor	 ecx, ecx
  0000a	3b 02		 cmp	 eax, DWORD PTR [edx]
  0000c	0f 95 c0	 setne	 al

; 209  : 		}

  0000f	5d		 pop	 ebp
  00010	c2 04 00	 ret	 4
??9?$_Vector_const_iterator@V?$_Vector_val@UAttackAttribute@@V?$allocator@UAttackAttribute@@@std@@@std@@@std@@QBE_NABV01@@Z ENDP ; std::_Vector_const_iterator<std::_Vector_val<AttackAttribute,std::allocator<AttackAttribute> > >::operator!=
_TEXT	ENDS
PUBLIC	?_Buy@?$vector@UWeaponInfo@@V?$allocator@UWeaponInfo@@@std@@@std@@IAE_NI@Z ; std::vector<WeaponInfo,std::allocator<WeaponInfo> >::_Buy
; Function compile flags: /Ogsp
;	COMDAT ?_Buy@?$vector@UWeaponInfo@@V?$allocator@UWeaponInfo@@@std@@@std@@IAE_NI@Z
_TEXT	SEGMENT
__Capacity$ = 8						; size = 4
?_Buy@?$vector@UWeaponInfo@@V?$allocator@UWeaponInfo@@@std@@@std@@IAE_NI@Z PROC ; std::vector<WeaponInfo,std::allocator<WeaponInfo> >::_Buy, COMDAT
; _this$ = ecx

; 1250 : 		{	// allocate array with _Capacity elements

  00000	55		 push	 ebp
  00001	8b ec		 mov	 ebp, esp
  00003	56		 push	 esi

; 1251 : 		this->_Myfirst = 0;

  00004	33 c0		 xor	 eax, eax
  00006	57		 push	 edi

; 1252 : 		this->_Mylast = 0;
; 1253 : 		this->_Myend = 0;
; 1254 : 
; 1255 : 		if (_Capacity == 0)

  00007	8b 7d 08	 mov	 edi, DWORD PTR __Capacity$[ebp]
  0000a	8b f1		 mov	 esi, ecx
  0000c	89 06		 mov	 DWORD PTR [esi], eax
  0000e	89 46 04	 mov	 DWORD PTR [esi+4], eax
  00011	89 46 08	 mov	 DWORD PTR [esi+8], eax
  00014	3b f8		 cmp	 edi, eax
  00016	75 04		 jne	 SHORT $LN4@Buy@2

; 1256 : 			return (false);

  00018	32 c0		 xor	 al, al
  0001a	eb 2b		 jmp	 SHORT $LN5@Buy@2
$LN4@Buy@2:

; 1257 : 		else if (max_size() < _Capacity)

  0001c	81 ff 66 66 66
	06		 cmp	 edi, 107374182		; 06666666H
  00022	76 0b		 jbe	 SHORT $LN2@Buy@2

; 1258 : 			_Xlen();	// result too long

  00024	68 00 00 00 00	 push	 OFFSET ??_C@_0BD@OLBABOEK@vector?$DMT?$DO?5too?5long?$AA@
  00029	ff 15 00 00 00
	00		 call	 DWORD PTR __imp_?_Xlength_error@std@@YAXPBD@Z
$LN19@Buy@2:
$LN2@Buy@2:

; 1259 : 		else
; 1260 : 			{	// nonempty array, allocate storage
; 1261 : 			this->_Myfirst = this->_Alval.allocate(_Capacity);

  0002f	50		 push	 eax
  00030	57		 push	 edi
  00031	e8 00 00 00 00	 call	 ??$_Allocate@UWeaponInfo@@@std@@YAPAUWeaponInfo@@IPAU1@@Z ; std::_Allocate<WeaponInfo>

; 1262 : 			this->_Mylast = this->_Myfirst;
; 1263 : 			this->_Myend = this->_Myfirst + _Capacity;

  00036	6b ff 28	 imul	 edi, 40			; 00000028H
  00039	03 f8		 add	 edi, eax
  0003b	59		 pop	 ecx
  0003c	89 06		 mov	 DWORD PTR [esi], eax
  0003e	89 46 04	 mov	 DWORD PTR [esi+4], eax
  00041	59		 pop	 ecx
  00042	89 7e 08	 mov	 DWORD PTR [esi+8], edi

; 1264 : 			}
; 1265 : 		return (true);

  00045	b0 01		 mov	 al, 1
$LN5@Buy@2:
  00047	5f		 pop	 edi
  00048	5e		 pop	 esi

; 1266 : 		}

  00049	5d		 pop	 ebp
  0004a	c2 04 00	 ret	 4
$LN18@Buy@2:
?_Buy@?$vector@UWeaponInfo@@V?$allocator@UWeaponInfo@@@std@@@std@@IAE_NI@Z ENDP ; std::vector<WeaponInfo,std::allocator<WeaponInfo> >::_Buy
_TEXT	ENDS
PUBLIC	?_Buy@?$vector@UForceInfo@@V?$allocator@UForceInfo@@@std@@@std@@IAE_NI@Z ; std::vector<ForceInfo,std::allocator<ForceInfo> >::_Buy
; Function compile flags: /Ogsp
;	COMDAT ?_Buy@?$vector@UForceInfo@@V?$allocator@UForceInfo@@@std@@@std@@IAE_NI@Z
_TEXT	SEGMENT
__Capacity$ = 8						; size = 4
?_Buy@?$vector@UForceInfo@@V?$allocator@UForceInfo@@@std@@@std@@IAE_NI@Z PROC ; std::vector<ForceInfo,std::allocator<ForceInfo> >::_Buy, COMDAT
; _this$ = ecx

; 1250 : 		{	// allocate array with _Capacity elements

  00000	55		 push	 ebp
  00001	8b ec		 mov	 ebp, esp
  00003	56		 push	 esi

; 1251 : 		this->_Myfirst = 0;

  00004	33 c0		 xor	 eax, eax
  00006	57		 push	 edi

; 1252 : 		this->_Mylast = 0;
; 1253 : 		this->_Myend = 0;
; 1254 : 
; 1255 : 		if (_Capacity == 0)

  00007	8b 7d 08	 mov	 edi, DWORD PTR __Capacity$[ebp]
  0000a	8b f1		 mov	 esi, ecx
  0000c	89 06		 mov	 DWORD PTR [esi], eax
  0000e	89 46 04	 mov	 DWORD PTR [esi+4], eax
  00011	89 46 08	 mov	 DWORD PTR [esi+8], eax
  00014	3b f8		 cmp	 edi, eax
  00016	75 04		 jne	 SHORT $LN4@Buy@3

; 1256 : 			return (false);

  00018	32 c0		 xor	 al, al
  0001a	eb 2b		 jmp	 SHORT $LN5@Buy@3
$LN4@Buy@3:

; 1257 : 		else if (max_size() < _Capacity)

  0001c	81 ff 55 55 55
	15		 cmp	 edi, 357913941		; 15555555H
  00022	76 0b		 jbe	 SHORT $LN2@Buy@3

; 1258 : 			_Xlen();	// result too long

  00024	68 00 00 00 00	 push	 OFFSET ??_C@_0BD@OLBABOEK@vector?$DMT?$DO?5too?5long?$AA@
  00029	ff 15 00 00 00
	00		 call	 DWORD PTR __imp_?_Xlength_error@std@@YAXPBD@Z
$LN19@Buy@3:
$LN2@Buy@3:

; 1259 : 		else
; 1260 : 			{	// nonempty array, allocate storage
; 1261 : 			this->_Myfirst = this->_Alval.allocate(_Capacity);

  0002f	50		 push	 eax
  00030	57		 push	 edi
  00031	e8 00 00 00 00	 call	 ??$_Allocate@UForceInfo@@@std@@YAPAUForceInfo@@IPAU1@@Z ; std::_Allocate<ForceInfo>

; 1262 : 			this->_Mylast = this->_Myfirst;
; 1263 : 			this->_Myend = this->_Myfirst + _Capacity;

  00036	6b ff 0c	 imul	 edi, 12			; 0000000cH
  00039	03 f8		 add	 edi, eax
  0003b	59		 pop	 ecx
  0003c	89 06		 mov	 DWORD PTR [esi], eax
  0003e	89 46 04	 mov	 DWORD PTR [esi+4], eax
  00041	59		 pop	 ecx
  00042	89 7e 08	 mov	 DWORD PTR [esi+8], edi

; 1264 : 			}
; 1265 : 		return (true);

  00045	b0 01		 mov	 al, 1
$LN5@Buy@3:
  00047	5f		 pop	 edi
  00048	5e		 pop	 esi

; 1266 : 		}

  00049	5d		 pop	 ebp
  0004a	c2 04 00	 ret	 4
$LN18@Buy@3:
?_Buy@?$vector@UForceInfo@@V?$allocator@UForceInfo@@@std@@@std@@IAE_NI@Z ENDP ; std::vector<ForceInfo,std::allocator<ForceInfo> >::_Buy
_TEXT	ENDS
PUBLIC	?begin@?$vector@UWeaponInfo@@V?$allocator@UWeaponInfo@@@std@@@std@@QAE?AV?$_Vector_iterator@V?$_Vector_val@UWeaponInfo@@V?$allocator@UWeaponInfo@@@std@@@std@@@2@XZ ; std::vector<WeaponInfo,std::allocator<WeaponInfo> >::begin
; Function compile flags: /Ogsp
;	COMDAT ?begin@?$vector@UWeaponInfo@@V?$allocator@UWeaponInfo@@@std@@@std@@QAE?AV?$_Vector_iterator@V?$_Vector_val@UWeaponInfo@@V?$allocator@UWeaponInfo@@@std@@@std@@@2@XZ
_TEXT	SEGMENT
___$ReturnUdt$ = 8					; size = 4
?begin@?$vector@UWeaponInfo@@V?$allocator@UWeaponInfo@@@std@@@std@@QAE?AV?$_Vector_iterator@V?$_Vector_val@UWeaponInfo@@V?$allocator@UWeaponInfo@@@std@@@std@@@2@XZ PROC ; std::vector<WeaponInfo,std::allocator<WeaponInfo> >::begin, COMDAT
; _this$ = ecx

; 781  : 		{	// return iterator for beginning of mutable sequence

  00000	55		 push	 ebp
  00001	8b ec		 mov	 ebp, esp

; 782  : 		return (iterator(this->_Myfirst, this));

  00003	8b 09		 mov	 ecx, DWORD PTR [ecx]
  00005	8b 45 08	 mov	 eax, DWORD PTR ___$ReturnUdt$[ebp]
  00008	89 08		 mov	 DWORD PTR [eax], ecx

; 783  : 		}

  0000a	5d		 pop	 ebp
  0000b	c2 04 00	 ret	 4
?begin@?$vector@UWeaponInfo@@V?$allocator@UWeaponInfo@@@std@@@std@@QAE?AV?$_Vector_iterator@V?$_Vector_val@UWeaponInfo@@V?$allocator@UWeaponInfo@@@std@@@std@@@2@XZ ENDP ; std::vector<WeaponInfo,std::allocator<WeaponInfo> >::begin
_TEXT	ENDS
PUBLIC	?end@?$vector@UWeaponInfo@@V?$allocator@UWeaponInfo@@@std@@@std@@QAE?AV?$_Vector_iterator@V?$_Vector_val@UWeaponInfo@@V?$allocator@UWeaponInfo@@@std@@@std@@@2@XZ ; std::vector<WeaponInfo,std::allocator<WeaponInfo> >::end
; Function compile flags: /Ogsp
;	COMDAT ?end@?$vector@UWeaponInfo@@V?$allocator@UWeaponInfo@@@std@@@std@@QAE?AV?$_Vector_iterator@V?$_Vector_val@UWeaponInfo@@V?$allocator@UWeaponInfo@@@std@@@std@@@2@XZ
_TEXT	SEGMENT
___$ReturnUdt$ = 8					; size = 4
?end@?$vector@UWeaponInfo@@V?$allocator@UWeaponInfo@@@std@@@std@@QAE?AV?$_Vector_iterator@V?$_Vector_val@UWeaponInfo@@V?$allocator@UWeaponInfo@@@std@@@std@@@2@XZ PROC ; std::vector<WeaponInfo,std::allocator<WeaponInfo> >::end, COMDAT
; _this$ = ecx

; 791  : 		{	// return iterator for end of mutable sequence

  00000	55		 push	 ebp
  00001	8b ec		 mov	 ebp, esp

; 792  : 		return (iterator(this->_Mylast, this));

  00003	8b 49 04	 mov	 ecx, DWORD PTR [ecx+4]
  00006	8b 45 08	 mov	 eax, DWORD PTR ___$ReturnUdt$[ebp]
  00009	89 08		 mov	 DWORD PTR [eax], ecx

; 793  : 		}

  0000b	5d		 pop	 ebp
  0000c	c2 04 00	 ret	 4
?end@?$vector@UWeaponInfo@@V?$allocator@UWeaponInfo@@@std@@@std@@QAE?AV?$_Vector_iterator@V?$_Vector_val@UWeaponInfo@@V?$allocator@UWeaponInfo@@@std@@@std@@@2@XZ ENDP ; std::vector<WeaponInfo,std::allocator<WeaponInfo> >::end
_TEXT	ENDS
PUBLIC	?begin@?$vector@UForceInfo@@V?$allocator@UForceInfo@@@std@@@std@@QAE?AV?$_Vector_iterator@V?$_Vector_val@UForceInfo@@V?$allocator@UForceInfo@@@std@@@std@@@2@XZ ; std::vector<ForceInfo,std::allocator<ForceInfo> >::begin
; Function compile flags: /Ogsp
;	COMDAT ?begin@?$vector@UForceInfo@@V?$allocator@UForceInfo@@@std@@@std@@QAE?AV?$_Vector_iterator@V?$_Vector_val@UForceInfo@@V?$allocator@UForceInfo@@@std@@@std@@@2@XZ
_TEXT	SEGMENT
___$ReturnUdt$ = 8					; size = 4
?begin@?$vector@UForceInfo@@V?$allocator@UForceInfo@@@std@@@std@@QAE?AV?$_Vector_iterator@V?$_Vector_val@UForceInfo@@V?$allocator@UForceInfo@@@std@@@std@@@2@XZ PROC ; std::vector<ForceInfo,std::allocator<ForceInfo> >::begin, COMDAT
; _this$ = ecx

; 781  : 		{	// return iterator for beginning of mutable sequence

  00000	55		 push	 ebp
  00001	8b ec		 mov	 ebp, esp

; 782  : 		return (iterator(this->_Myfirst, this));

  00003	8b 09		 mov	 ecx, DWORD PTR [ecx]
  00005	8b 45 08	 mov	 eax, DWORD PTR ___$ReturnUdt$[ebp]
  00008	89 08		 mov	 DWORD PTR [eax], ecx

; 783  : 		}

  0000a	5d		 pop	 ebp
  0000b	c2 04 00	 ret	 4
?begin@?$vector@UForceInfo@@V?$allocator@UForceInfo@@@std@@@std@@QAE?AV?$_Vector_iterator@V?$_Vector_val@UForceInfo@@V?$allocator@UForceInfo@@@std@@@std@@@2@XZ ENDP ; std::vector<ForceInfo,std::allocator<ForceInfo> >::begin
_TEXT	ENDS
PUBLIC	?end@?$vector@UForceInfo@@V?$allocator@UForceInfo@@@std@@@std@@QAE?AV?$_Vector_iterator@V?$_Vector_val@UForceInfo@@V?$allocator@UForceInfo@@@std@@@std@@@2@XZ ; std::vector<ForceInfo,std::allocator<ForceInfo> >::end
; Function compile flags: /Ogsp
;	COMDAT ?end@?$vector@UForceInfo@@V?$allocator@UForceInfo@@@std@@@std@@QAE?AV?$_Vector_iterator@V?$_Vector_val@UForceInfo@@V?$allocator@UForceInfo@@@std@@@std@@@2@XZ
_TEXT	SEGMENT
___$ReturnUdt$ = 8					; size = 4
?end@?$vector@UForceInfo@@V?$allocator@UForceInfo@@@std@@@std@@QAE?AV?$_Vector_iterator@V?$_Vector_val@UForceInfo@@V?$allocator@UForceInfo@@@std@@@std@@@2@XZ PROC ; std::vector<ForceInfo,std::allocator<ForceInfo> >::end, COMDAT
; _this$ = ecx

; 791  : 		{	// return iterator for end of mutable sequence

  00000	55		 push	 ebp
  00001	8b ec		 mov	 ebp, esp

; 792  : 		return (iterator(this->_Mylast, this));

  00003	8b 49 04	 mov	 ecx, DWORD PTR [ecx+4]
  00006	8b 45 08	 mov	 eax, DWORD PTR ___$ReturnUdt$[ebp]
  00009	89 08		 mov	 DWORD PTR [eax], ecx

; 793  : 		}

  0000b	5d		 pop	 ebp
  0000c	c2 04 00	 ret	 4
?end@?$vector@UForceInfo@@V?$allocator@UForceInfo@@@std@@@std@@QAE?AV?$_Vector_iterator@V?$_Vector_val@UForceInfo@@V?$allocator@UForceInfo@@@std@@@std@@@2@XZ ENDP ; std::vector<ForceInfo,std::allocator<ForceInfo> >::end
_TEXT	ENDS
PUBLIC	?_Make_iter@?$vector@UWeaponInfo@@V?$allocator@UWeaponInfo@@@std@@@std@@QBE?AV?$_Vector_iterator@V?$_Vector_val@UWeaponInfo@@V?$allocator@UWeaponInfo@@@std@@@std@@@2@V?$_Vector_const_iterator@V?$_Vector_val@UWeaponInfo@@V?$allocator@UWeaponInfo@@@std@@@std@@@2@@Z ; std::vector<WeaponInfo,std::allocator<WeaponInfo> >::_Make_iter
; Function compile flags: /Ogsp
;	COMDAT ?_Make_iter@?$vector@UWeaponInfo@@V?$allocator@UWeaponInfo@@@std@@@std@@QBE?AV?$_Vector_iterator@V?$_Vector_val@UWeaponInfo@@V?$allocator@UWeaponInfo@@@std@@@std@@@2@V?$_Vector_const_iterator@V?$_Vector_val@UWeaponInfo@@V?$allocator@UWeaponInfo@@@std@@@std@@@2@@Z
_TEXT	SEGMENT
___$ReturnUdt$ = 8					; size = 4
__Where$ = 12						; size = 4
?_Make_iter@?$vector@UWeaponInfo@@V?$allocator@UWeaponInfo@@@std@@@std@@QBE?AV?$_Vector_iterator@V?$_Vector_val@UWeaponInfo@@V?$allocator@UWeaponInfo@@@std@@@std@@@2@V?$_Vector_const_iterator@V?$_Vector_val@UWeaponInfo@@V?$allocator@UWeaponInfo@@@std@@@std@@@2@@Z PROC ; std::vector<WeaponInfo,std::allocator<WeaponInfo> >::_Make_iter, COMDAT
; _this$ = ecx

; 801  : 		{	// make iterator from const_iterator

  00000	55		 push	 ebp
  00001	8b ec		 mov	 ebp, esp

; 802  : 		return (iterator(_Where._Ptr, this));

  00003	8b 45 08	 mov	 eax, DWORD PTR ___$ReturnUdt$[ebp]
  00006	8b 4d 0c	 mov	 ecx, DWORD PTR __Where$[ebp]
  00009	89 08		 mov	 DWORD PTR [eax], ecx

; 803  : 		}

  0000b	5d		 pop	 ebp
  0000c	c2 08 00	 ret	 8
?_Make_iter@?$vector@UWeaponInfo@@V?$allocator@UWeaponInfo@@@std@@@std@@QBE?AV?$_Vector_iterator@V?$_Vector_val@UWeaponInfo@@V?$allocator@UWeaponInfo@@@std@@@std@@@2@V?$_Vector_const_iterator@V?$_Vector_val@UWeaponInfo@@V?$allocator@UWeaponInfo@@@std@@@std@@@2@@Z ENDP ; std::vector<WeaponInfo,std::allocator<WeaponInfo> >::_Make_iter
_TEXT	ENDS
PUBLIC	?_Make_iter@?$vector@UForceInfo@@V?$allocator@UForceInfo@@@std@@@std@@QBE?AV?$_Vector_iterator@V?$_Vector_val@UForceInfo@@V?$allocator@UForceInfo@@@std@@@std@@@2@V?$_Vector_const_iterator@V?$_Vector_val@UForceInfo@@V?$allocator@UForceInfo@@@std@@@std@@@2@@Z ; std::vector<ForceInfo,std::allocator<ForceInfo> >::_Make_iter
; Function compile flags: /Ogsp
;	COMDAT ?_Make_iter@?$vector@UForceInfo@@V?$allocator@UForceInfo@@@std@@@std@@QBE?AV?$_Vector_iterator@V?$_Vector_val@UForceInfo@@V?$allocator@UForceInfo@@@std@@@std@@@2@V?$_Vector_const_iterator@V?$_Vector_val@UForceInfo@@V?$allocator@UForceInfo@@@std@@@std@@@2@@Z
_TEXT	SEGMENT
___$ReturnUdt$ = 8					; size = 4
__Where$ = 12						; size = 4
?_Make_iter@?$vector@UForceInfo@@V?$allocator@UForceInfo@@@std@@@std@@QBE?AV?$_Vector_iterator@V?$_Vector_val@UForceInfo@@V?$allocator@UForceInfo@@@std@@@std@@@2@V?$_Vector_const_iterator@V?$_Vector_val@UForceInfo@@V?$allocator@UForceInfo@@@std@@@std@@@2@@Z PROC ; std::vector<ForceInfo,std::allocator<ForceInfo> >::_Make_iter, COMDAT
; _this$ = ecx

; 801  : 		{	// make iterator from const_iterator

  00000	55		 push	 ebp
  00001	8b ec		 mov	 ebp, esp

; 802  : 		return (iterator(_Where._Ptr, this));

  00003	8b 45 08	 mov	 eax, DWORD PTR ___$ReturnUdt$[ebp]
  00006	8b 4d 0c	 mov	 ecx, DWORD PTR __Where$[ebp]
  00009	89 08		 mov	 DWORD PTR [eax], ecx

; 803  : 		}

  0000b	5d		 pop	 ebp
  0000c	c2 08 00	 ret	 8
?_Make_iter@?$vector@UForceInfo@@V?$allocator@UForceInfo@@@std@@@std@@QBE?AV?$_Vector_iterator@V?$_Vector_val@UForceInfo@@V?$allocator@UForceInfo@@@std@@@std@@@2@V?$_Vector_const_iterator@V?$_Vector_val@UForceInfo@@V?$allocator@UForceInfo@@@std@@@std@@@2@@Z ENDP ; std::vector<ForceInfo,std::allocator<ForceInfo> >::_Make_iter
_TEXT	ENDS
PUBLIC	??9?$_Vector_const_iterator@V?$_Vector_val@UWeaponInfo@@V?$allocator@UWeaponInfo@@@std@@@std@@@std@@QBE_NABV01@@Z ; std::_Vector_const_iterator<std::_Vector_val<WeaponInfo,std::allocator<WeaponInfo> > >::operator!=
; Function compile flags: /Ogsp
;	COMDAT ??9?$_Vector_const_iterator@V?$_Vector_val@UWeaponInfo@@V?$allocator@UWeaponInfo@@@std@@@std@@@std@@QBE_NABV01@@Z
_TEXT	SEGMENT
__Right$ = 8						; size = 4
??9?$_Vector_const_iterator@V?$_Vector_val@UWeaponInfo@@V?$allocator@UWeaponInfo@@@std@@@std@@@std@@QBE_NABV01@@Z PROC ; std::_Vector_const_iterator<std::_Vector_val<WeaponInfo,std::allocator<WeaponInfo> > >::operator!=, COMDAT
; _this$ = ecx

; 207  : 		{	// test for iterator inequality

  00000	55		 push	 ebp
  00001	8b ec		 mov	 ebp, esp

; 208  : 		return (!(*this == _Right));

  00003	8b 01		 mov	 eax, DWORD PTR [ecx]
  00005	8b 55 08	 mov	 edx, DWORD PTR __Right$[ebp]
  00008	33 c9		 xor	 ecx, ecx
  0000a	3b 02		 cmp	 eax, DWORD PTR [edx]
  0000c	0f 95 c0	 setne	 al

; 209  : 		}

  0000f	5d		 pop	 ebp
  00010	c2 04 00	 ret	 4
??9?$_Vector_const_iterator@V?$_Vector_val@UWeaponInfo@@V?$allocator@UWeaponInfo@@@std@@@std@@@std@@QBE_NABV01@@Z ENDP ; std::_Vector_const_iterator<std::_Vector_val<WeaponInfo,std::allocator<WeaponInfo> > >::operator!=
_TEXT	ENDS
PUBLIC	??9?$_Vector_const_iterator@V?$_Vector_val@UForceInfo@@V?$allocator@UForceInfo@@@std@@@std@@@std@@QBE_NABV01@@Z ; std::_Vector_const_iterator<std::_Vector_val<ForceInfo,std::allocator<ForceInfo> > >::operator!=
; Function compile flags: /Ogsp
;	COMDAT ??9?$_Vector_const_iterator@V?$_Vector_val@UForceInfo@@V?$allocator@UForceInfo@@@std@@@std@@@std@@QBE_NABV01@@Z
_TEXT	SEGMENT
__Right$ = 8						; size = 4
??9?$_Vector_const_iterator@V?$_Vector_val@UForceInfo@@V?$allocator@UForceInfo@@@std@@@std@@@std@@QBE_NABV01@@Z PROC ; std::_Vector_const_iterator<std::_Vector_val<ForceInfo,std::allocator<ForceInfo> > >::operator!=, COMDAT
; _this$ = ecx

; 207  : 		{	// test for iterator inequality

  00000	55		 push	 ebp
  00001	8b ec		 mov	 ebp, esp

; 208  : 		return (!(*this == _Right));

  00003	8b 01		 mov	 eax, DWORD PTR [ecx]
  00005	8b 55 08	 mov	 edx, DWORD PTR __Right$[ebp]
  00008	33 c9		 xor	 ecx, ecx
  0000a	3b 02		 cmp	 eax, DWORD PTR [edx]
  0000c	0f 95 c0	 setne	 al

; 209  : 		}

  0000f	5d		 pop	 ebp
  00010	c2 04 00	 ret	 4
??9?$_Vector_const_iterator@V?$_Vector_val@UForceInfo@@V?$allocator@UForceInfo@@@std@@@std@@@std@@QBE_NABV01@@Z ENDP ; std::_Vector_const_iterator<std::_Vector_val<ForceInfo,std::allocator<ForceInfo> > >::operator!=
_TEXT	ENDS
PUBLIC	??$_Dest_val@V?$allocator@UForceInfo@@@std@@UForceInfo@@@std@@YAXAAV?$allocator@UForceInfo@@@0@PAUForceInfo@@@Z ; std::_Dest_val<std::allocator<ForceInfo>,ForceInfo>
; Function compile flags: /Ogsp
; File c:\program files (x86)\microsoft visual studio 10.0\vc\include\xmemory
;	COMDAT ??$_Dest_val@V?$allocator@UForceInfo@@@std@@UForceInfo@@@std@@YAXAAV?$allocator@UForceInfo@@@0@PAUForceInfo@@@Z
_TEXT	SEGMENT
__Alval$ = 8						; size = 4
__Pdest$ = 12						; size = 4
??$_Dest_val@V?$allocator@UForceInfo@@@std@@UForceInfo@@@std@@YAXAAV?$allocator@UForceInfo@@@0@PAUForceInfo@@@Z PROC ; std::_Dest_val<std::allocator<ForceInfo>,ForceInfo>, COMDAT

; 287  : 	_Alval.destroy(_Pdest);
; 288  : 	}

  00000	c3		 ret	 0
??$_Dest_val@V?$allocator@UForceInfo@@@std@@UForceInfo@@@std@@YAXAAV?$allocator@UForceInfo@@@0@PAUForceInfo@@@Z ENDP ; std::_Dest_val<std::allocator<ForceInfo>,ForceInfo>
_TEXT	ENDS
PUBLIC	??$_Copy_impl@PAUWeaponInfo@@PAU1@@std@@YAPAUWeaponInfo@@PAU1@00@Z ; std::_Copy_impl<WeaponInfo *,WeaponInfo *>
; Function compile flags: /Ogsp
; File c:\program files (x86)\microsoft visual studio 10.0\vc\include\xutility
;	COMDAT ??$_Copy_impl@PAUWeaponInfo@@PAU1@@std@@YAPAUWeaponInfo@@PAU1@00@Z
_TEXT	SEGMENT
__Cat$552700 = -4					; size = 1
__First$ = 8						; size = 4
__Last$ = 12						; size = 4
__Dest$ = 16						; size = 4
??$_Copy_impl@PAUWeaponInfo@@PAU1@@std@@YAPAUWeaponInfo@@PAU1@00@Z PROC ; std::_Copy_impl<WeaponInfo *,WeaponInfo *>, COMDAT

; 2163 : 	{	// copy [_First, _Last) to [_Dest, ...)

  00000	55		 push	 ebp
  00001	8b ec		 mov	 ebp, esp
  00003	51		 push	 ecx

; 2164 : 	return (_Copy_impl(_First, _Last,
; 2165 : 		_Dest, _Ptr_cat(_First, _Dest)));

  00004	ff 75 fc	 push	 DWORD PTR __Cat$552700[ebp]
  00007	ff 75 10	 push	 DWORD PTR __Dest$[ebp]
  0000a	ff 75 0c	 push	 DWORD PTR __Last$[ebp]
  0000d	ff 75 08	 push	 DWORD PTR __First$[ebp]
  00010	e8 00 00 00 00	 call	 ??$_Copy_impl@PAUWeaponInfo@@PAU1@@std@@YAPAUWeaponInfo@@PAU1@00U_Nonscalar_ptr_iterator_tag@0@@Z ; std::_Copy_impl<WeaponInfo *,WeaponInfo *>
  00015	83 c4 10	 add	 esp, 16			; 00000010H

; 2166 : 	}

  00018	c9		 leave
  00019	c3		 ret	 0
??$_Copy_impl@PAUWeaponInfo@@PAU1@@std@@YAPAUWeaponInfo@@PAU1@00@Z ENDP ; std::_Copy_impl<WeaponInfo *,WeaponInfo *>
_TEXT	ENDS
PUBLIC	??$_Move@PAUWeaponInfo@@PAU1@@std@@YAPAUWeaponInfo@@PAU1@00@Z ; std::_Move<WeaponInfo *,WeaponInfo *>
; Function compile flags: /Ogsp
;	COMDAT ??$_Move@PAUWeaponInfo@@PAU1@@std@@YAPAUWeaponInfo@@PAU1@00@Z
_TEXT	SEGMENT
__Cat$552707 = -4					; size = 1
__First$ = 8						; size = 4
__Last$ = 12						; size = 4
__Dest$ = 16						; size = 4
??$_Move@PAUWeaponInfo@@PAU1@@std@@YAPAUWeaponInfo@@PAU1@00@Z PROC ; std::_Move<WeaponInfo *,WeaponInfo *>, COMDAT

; 2533 : 	{	// move [_First, _Last) to [_Dest, ...), unchecked

  00000	55		 push	 ebp
  00001	8b ec		 mov	 ebp, esp
  00003	51		 push	 ecx

; 2534 : 	return (_Move(_First, _Last,
; 2535 : 		_Dest, _Ptr_cat(_First, _Dest)));

  00004	ff 75 fc	 push	 DWORD PTR __Cat$552707[ebp]
  00007	ff 75 10	 push	 DWORD PTR __Dest$[ebp]
  0000a	ff 75 0c	 push	 DWORD PTR __Last$[ebp]
  0000d	ff 75 08	 push	 DWORD PTR __First$[ebp]
  00010	e8 00 00 00 00	 call	 ??$_Move@PAUWeaponInfo@@PAU1@@std@@YAPAUWeaponInfo@@PAU1@00U_Nonscalar_ptr_iterator_tag@0@@Z ; std::_Move<WeaponInfo *,WeaponInfo *>
  00015	83 c4 10	 add	 esp, 16			; 00000010H

; 2536 : 	}

  00018	c9		 leave
  00019	c3		 ret	 0
??$_Move@PAUWeaponInfo@@PAU1@@std@@YAPAUWeaponInfo@@PAU1@00@Z ENDP ; std::_Move<WeaponInfo *,WeaponInfo *>
_TEXT	ENDS
PUBLIC	??$_Move@PAUForceInfo@@PAU1@@std@@YAPAUForceInfo@@PAU1@00@Z ; std::_Move<ForceInfo *,ForceInfo *>
; Function compile flags: /Ogsp
;	COMDAT ??$_Move@PAUForceInfo@@PAU1@@std@@YAPAUForceInfo@@PAU1@00@Z
_TEXT	SEGMENT
__Cat$552714 = -4					; size = 1
__First$ = 8						; size = 4
__Last$ = 12						; size = 4
__Dest$ = 16						; size = 4
??$_Move@PAUForceInfo@@PAU1@@std@@YAPAUForceInfo@@PAU1@00@Z PROC ; std::_Move<ForceInfo *,ForceInfo *>, COMDAT

; 2533 : 	{	// move [_First, _Last) to [_Dest, ...), unchecked

  00000	55		 push	 ebp
  00001	8b ec		 mov	 ebp, esp
  00003	51		 push	 ecx

; 2534 : 	return (_Move(_First, _Last,
; 2535 : 		_Dest, _Ptr_cat(_First, _Dest)));

  00004	ff 75 fc	 push	 DWORD PTR __Cat$552714[ebp]
  00007	ff 75 10	 push	 DWORD PTR __Dest$[ebp]
  0000a	ff 75 0c	 push	 DWORD PTR __Last$[ebp]
  0000d	ff 75 08	 push	 DWORD PTR __First$[ebp]
  00010	e8 00 00 00 00	 call	 ??$_Move@PAUForceInfo@@PAU1@@std@@YAPAUForceInfo@@PAU1@00U_Nonscalar_ptr_iterator_tag@0@@Z ; std::_Move<ForceInfo *,ForceInfo *>
  00015	83 c4 10	 add	 esp, 16			; 00000010H

; 2536 : 	}

  00018	c9		 leave
  00019	c3		 ret	 0
??$_Move@PAUForceInfo@@PAU1@@std@@YAPAUForceInfo@@PAU1@00@Z ENDP ; std::_Move<ForceInfo *,ForceInfo *>
_TEXT	ENDS
PUBLIC	?destroy@?$allocator@UWeaponInfo@@@std@@QAEXPAUWeaponInfo@@@Z ; std::allocator<WeaponInfo>::destroy
; Function compile flags: /Ogsp
; File c:\program files (x86)\microsoft visual studio 10.0\vc\include\xmemory
;	COMDAT ?destroy@?$allocator@UWeaponInfo@@@std@@QAEXPAUWeaponInfo@@@Z
_TEXT	SEGMENT
__Ptr$ = 8						; size = 4
?destroy@?$allocator@UWeaponInfo@@@std@@QAEXPAUWeaponInfo@@@Z PROC ; std::allocator<WeaponInfo>::destroy, COMDAT
; _this$ = ecx

; 212  : 		{	// destroy object at _Ptr

  00000	55		 push	 ebp
  00001	8b ec		 mov	 ebp, esp

; 213  : 		_Destroy(_Ptr);

  00003	8b 4d 08	 mov	 ecx, DWORD PTR __Ptr$[ebp]
  00006	83 c1 08	 add	 ecx, 8
  00009	ff 15 00 00 00
	00		 call	 DWORD PTR __imp_??1ioHashString@@QAE@XZ

; 214  : 		}

  0000f	5d		 pop	 ebp
  00010	c2 04 00	 ret	 4
?destroy@?$allocator@UWeaponInfo@@@std@@QAEXPAUWeaponInfo@@@Z ENDP ; std::allocator<WeaponInfo>::destroy
_TEXT	ENDS
PUBLIC	??$_Uninit_copy@PAUForceInfo@@PAU1@V?$allocator@UForceInfo@@@std@@@std@@YAPAUForceInfo@@PAU1@00AAV?$allocator@UForceInfo@@@0@U_Nonscalar_ptr_iterator_tag@0@@Z ; std::_Uninit_copy<ForceInfo *,ForceInfo *,std::allocator<ForceInfo> >
; Function compile flags: /Ogsp
; File c:\program files (x86)\microsoft visual studio 10.0\vc\include\memory
;	COMDAT ??$_Uninit_copy@PAUForceInfo@@PAU1@V?$allocator@UForceInfo@@@std@@@std@@YAPAUForceInfo@@PAU1@00AAV?$allocator@UForceInfo@@@0@U_Nonscalar_ptr_iterator_tag@0@@Z
_TEXT	SEGMENT
__First$ = 8						; size = 4
__Last$ = 12						; size = 4
__Dest$ = 16						; size = 4
__Al$ = 20						; size = 4
___formal$ = 24						; size = 1
??$_Uninit_copy@PAUForceInfo@@PAU1@V?$allocator@UForceInfo@@@std@@@std@@YAPAUForceInfo@@PAU1@00AAV?$allocator@UForceInfo@@@0@U_Nonscalar_ptr_iterator_tag@0@@Z PROC ; std::_Uninit_copy<ForceInfo *,ForceInfo *,std::allocator<ForceInfo> >, COMDAT

; 369  : 	{	// copy [_First, _Last) to raw _Dest, using _Al, arbitrary type

  00000	55		 push	 ebp
  00001	8b ec		 mov	 ebp, esp
  00003	56		 push	 esi

; 370  : 	_DEBUG_RANGE(_First, _Last);
; 371  : 	_DEBUG_POINTER(_Dest);
; 372  : 	_FwdIt _Next = _Dest;
; 373  : 
; 374  : 	_TRY_BEGIN
; 375  : 	for (; _First != _Last; ++_Dest, ++_First)

  00004	8b 75 08	 mov	 esi, DWORD PTR __First$[ebp]
  00007	eb 16		 jmp	 SHORT $LN24@Uninit_cop
$LL6@Uninit_cop:

; 376  : 		_Cons_val(_Al, _Dest, *_First);

  00009	56		 push	 esi
  0000a	ff 75 10	 push	 DWORD PTR __Dest$[ebp]
  0000d	ff 75 14	 push	 DWORD PTR __Al$[ebp]
  00010	e8 00 00 00 00	 call	 ??$_Cons_val@V?$allocator@UForceInfo@@@std@@UForceInfo@@AAU3@@std@@YAXAAV?$allocator@UForceInfo@@@0@PAUForceInfo@@AAU2@@Z ; std::_Cons_val<std::allocator<ForceInfo>,ForceInfo,ForceInfo &>
  00015	83 45 10 0c	 add	 DWORD PTR __Dest$[ebp], 12 ; 0000000cH
  00019	83 c4 0c	 add	 esp, 12			; 0000000cH
  0001c	83 c6 0c	 add	 esi, 12			; 0000000cH
$LN24@Uninit_cop:

; 370  : 	_DEBUG_RANGE(_First, _Last);
; 371  : 	_DEBUG_POINTER(_Dest);
; 372  : 	_FwdIt _Next = _Dest;
; 373  : 
; 374  : 	_TRY_BEGIN
; 375  : 	for (; _First != _Last; ++_Dest, ++_First)

  0001f	3b 75 0c	 cmp	 esi, DWORD PTR __Last$[ebp]
  00022	75 e5		 jne	 SHORT $LL6@Uninit_cop

; 377  : 	_CATCH_ALL
; 378  : 	for (; _Next != _Dest; ++_Next)
; 379  : 		_Dest_val(_Al, _Next);
; 380  : 	_RERAISE;
; 381  : 	_CATCH_END
; 382  : 	return (_Dest);

  00024	8b 45 10	 mov	 eax, DWORD PTR __Dest$[ebp]
  00027	5e		 pop	 esi

; 383  : 	}

  00028	5d		 pop	 ebp
  00029	c3		 ret	 0
??$_Uninit_copy@PAUForceInfo@@PAU1@V?$allocator@UForceInfo@@@std@@@std@@YAPAUForceInfo@@PAU1@00AAV?$allocator@UForceInfo@@@0@U_Nonscalar_ptr_iterator_tag@0@@Z ENDP ; std::_Uninit_copy<ForceInfo *,ForceInfo *,std::allocator<ForceInfo> >
_TEXT	ENDS
PUBLIC	??$_Cons_val@V?$allocator@UWeaponInfo@@@std@@UWeaponInfo@@AAU3@@std@@YAXAAV?$allocator@UWeaponInfo@@@0@PAUWeaponInfo@@AAU2@@Z ; std::_Cons_val<std::allocator<WeaponInfo>,WeaponInfo,WeaponInfo &>
;	COMDAT xdata$x
; File c:\program files (x86)\microsoft visual studio 10.0\vc\include\utility
xdata$x	SEGMENT
__unwindtable$??$_Cons_val@V?$allocator@UWeaponInfo@@@std@@UWeaponInfo@@AAU3@@std@@YAXAAV?$allocator@UWeaponInfo@@@0@PAUWeaponInfo@@AAU2@@Z DD 0ffffffffH
	DD	FLAT:__unwindfunclet$??$_Cons_val@V?$allocator@UWeaponInfo@@@std@@UWeaponInfo@@AAU3@@std@@YAXAAV?$allocator@UWeaponInfo@@@0@PAUWeaponInfo@@AAU2@@Z$0
__ehfuncinfo$??$_Cons_val@V?$allocator@UWeaponInfo@@@std@@UWeaponInfo@@AAU3@@std@@YAXAAV?$allocator@UWeaponInfo@@@0@PAUWeaponInfo@@AAU2@@Z DD 019930522H
	DD	01H
	DD	FLAT:__unwindtable$??$_Cons_val@V?$allocator@UWeaponInfo@@@std@@UWeaponInfo@@AAU3@@std@@YAXAAV?$allocator@UWeaponInfo@@@0@PAUWeaponInfo@@AAU2@@Z
	DD	2 DUP(00H)
	DD	2 DUP(00H)
	DD	00H
	DD	01H
; Function compile flags: /Ogsp
; File c:\program files (x86)\microsoft visual studio 10.0\vc\include\xmemory
xdata$x	ENDS
;	COMDAT ??$_Cons_val@V?$allocator@UWeaponInfo@@@std@@UWeaponInfo@@AAU3@@std@@YAXAAV?$allocator@UWeaponInfo@@@0@PAUWeaponInfo@@AAU2@@Z
_TEXT	SEGMENT
$T552783 = -16						; size = 4
__$EHRec$ = -12						; size = 12
__Alval$ = 8						; size = 4
__Pdest$ = 12						; size = 4
__Src$ = 16						; size = 4
??$_Cons_val@V?$allocator@UWeaponInfo@@@std@@UWeaponInfo@@AAU3@@std@@YAXAAV?$allocator@UWeaponInfo@@@0@PAUWeaponInfo@@AAU2@@Z PROC ; std::_Cons_val<std::allocator<WeaponInfo>,WeaponInfo,WeaponInfo &>, COMDAT

; 279  : 	{	// construct using allocator

  00000	6a 04		 push	 4
  00002	b8 00 00 00 00	 mov	 eax, __ehhandler$??$_Cons_val@V?$allocator@UWeaponInfo@@@std@@UWeaponInfo@@AAU3@@std@@YAXAAV?$allocator@UWeaponInfo@@@0@PAUWeaponInfo@@AAU2@@Z
  00007	e8 00 00 00 00	 call	 __EH_prolog3

; 280  : 	_Alval.construct(_Pdest, _STD forward<_Ty2>(_Src));

  0000c	8b 4d 0c	 mov	 ecx, DWORD PTR __Pdest$[ebp]
  0000f	89 4d f0	 mov	 DWORD PTR $T552783[ebp], ecx
  00012	83 65 fc 00	 and	 DWORD PTR __$EHRec$[ebp+8], 0
  00016	85 c9		 test	 ecx, ecx
  00018	74 08		 je	 SHORT $LN7@Cons_val@3
  0001a	ff 75 10	 push	 DWORD PTR __Src$[ebp]
  0001d	e8 00 00 00 00	 call	 ??0WeaponInfo@@QAE@ABU0@@Z
$LN7@Cons_val@3:

; 281  : 	}

  00022	e8 00 00 00 00	 call	 __EH_epilog3
  00027	c3		 ret	 0
_TEXT	ENDS
;	COMDAT text$x
text$x	SEGMENT
__unwindfunclet$??$_Cons_val@V?$allocator@UWeaponInfo@@@std@@UWeaponInfo@@AAU3@@std@@YAXAAV?$allocator@UWeaponInfo@@@0@PAUWeaponInfo@@AAU2@@Z$0:
  00000	ff 75 0c	 push	 DWORD PTR __Pdest$[ebp]
  00003	ff 75 f0	 push	 DWORD PTR $T552783[ebp]
  00006	e8 00 00 00 00	 call	 ??3@YAXPAX0@Z		; operator delete
  0000b	59		 pop	 ecx
  0000c	59		 pop	 ecx
  0000d	c3		 ret	 0
__ehhandler$??$_Cons_val@V?$allocator@UWeaponInfo@@@std@@UWeaponInfo@@AAU3@@std@@YAXAAV?$allocator@UWeaponInfo@@@0@PAUWeaponInfo@@AAU2@@Z:
  0000e	8b 54 24 08	 mov	 edx, DWORD PTR [esp+8]
  00012	8d 42 0c	 lea	 eax, DWORD PTR [edx+12]
  00015	8b 4a ec	 mov	 ecx, DWORD PTR [edx-20]
  00018	33 c8		 xor	 ecx, eax
  0001a	e8 00 00 00 00	 call	 @__security_check_cookie@4
  0001f	b8 00 00 00 00	 mov	 eax, OFFSET __ehfuncinfo$??$_Cons_val@V?$allocator@UWeaponInfo@@@std@@UWeaponInfo@@AAU3@@std@@YAXAAV?$allocator@UWeaponInfo@@@0@PAUWeaponInfo@@AAU2@@Z
  00024	e9 00 00 00 00	 jmp	 ___CxxFrameHandler3
text$x	ENDS
??$_Cons_val@V?$allocator@UWeaponInfo@@@std@@UWeaponInfo@@AAU3@@std@@YAXAAV?$allocator@UWeaponInfo@@@0@PAUWeaponInfo@@AAU2@@Z ENDP ; std::_Cons_val<std::allocator<WeaponInfo>,WeaponInfo,WeaponInfo &>
PUBLIC	?OnProcessState@ioTargetFlowAttackSkill@@UAEXPAVioBaseChar@@PAVioPlayStage@@@Z ; ioTargetFlowAttackSkill::OnProcessState
; Function compile flags: /Ogsp
; File d:\lost saga for developer\youtube\tutorial\source\src\lsclient\iotargetflowattackskill.cpp
;	COMDAT ?OnProcessState@ioTargetFlowAttackSkill@@UAEXPAVioBaseChar@@PAVioPlayStage@@@Z
_TEXT	SEGMENT
_pChar$ = 8						; size = 4
_pStage$ = 12						; size = 4
?OnProcessState@ioTargetFlowAttackSkill@@UAEXPAVioBaseChar@@PAVioPlayStage@@@Z PROC ; ioTargetFlowAttackSkill::OnProcessState, COMDAT
; _this$ = ecx

; 101  : {

  00000	55		 push	 ebp
  00001	8b ec		 mov	 ebp, esp

; 102  : 	switch( m_SkillState )

  00003	8b 81 e4 10 00
	00		 mov	 eax, DWORD PTR [ecx+4324]
  00009	83 e8 00	 sub	 eax, 0
  0000c	74 1b		 je	 SHORT $LN5@OnProcessS
  0000e	48		 dec	 eax
  0000f	74 12		 je	 SHORT $LN4@OnProcessS
  00011	48		 dec	 eax
  00012	74 09		 je	 SHORT $LN3@OnProcessS
  00014	48		 dec	 eax
  00015	75 18		 jne	 SHORT $LN6@OnProcessS

; 122  : 		}
; 123  : 		break;
; 124  : 	case SS_END:
; 125  : 		{
; 126  : 		}
; 127  : 		break;
; 128  : 	}
; 129  : }

  00017	5d		 pop	 ebp

; 117  : 		}
; 118  : 		break;
; 119  : 	case SS_ATTACK:
; 120  : 		{
; 121  : 			CheckLinerComoboState( pChar, pStage );

  00018	e9 00 00 00 00	 jmp	 ?CheckLinerComoboState@ioTargetFlowAttackSkill@@IAEXPAVioBaseChar@@PAVioPlayStage@@@Z ; ioTargetFlowAttackSkill::CheckLinerComoboState
$LN3@OnProcessS:

; 122  : 		}
; 123  : 		break;
; 124  : 	case SS_END:
; 125  : 		{
; 126  : 		}
; 127  : 		break;
; 128  : 	}
; 129  : }

  0001d	5d		 pop	 ebp

; 112  : 		}
; 113  : 		break;
; 114  : 	case SS_TELEPORT:
; 115  : 		{
; 116  : 			SetLinerComoboState( pChar, pStage );

  0001e	e9 00 00 00 00	 jmp	 ?SetLinerComoboState@ioTargetFlowAttackSkill@@IAEXPAVioBaseChar@@PAVioPlayStage@@@Z ; ioTargetFlowAttackSkill::SetLinerComoboState
$LN4@OnProcessS:

; 122  : 		}
; 123  : 		break;
; 124  : 	case SS_END:
; 125  : 		{
; 126  : 		}
; 127  : 		break;
; 128  : 	}
; 129  : }

  00023	5d		 pop	 ebp

; 107  : 		}
; 108  : 		break;
; 109  : 	case SS_TARGET_FLOW:
; 110  : 		{
; 111  : 			CheckTargetComoboState( pChar, pStage );

  00024	e9 00 00 00 00	 jmp	 ?CheckTargetComoboState@ioTargetFlowAttackSkill@@IAEXPAVioBaseChar@@PAVioPlayStage@@@Z ; ioTargetFlowAttackSkill::CheckTargetComoboState
$LN5@OnProcessS:

; 122  : 		}
; 123  : 		break;
; 124  : 	case SS_END:
; 125  : 		{
; 126  : 		}
; 127  : 		break;
; 128  : 	}
; 129  : }

  00029	5d		 pop	 ebp

; 103  : 	{
; 104  : 	case SS_PRE: 
; 105  : 		{
; 106  : 			CheckPreState( pChar, pStage );

  0002a	e9 00 00 00 00	 jmp	 ?CheckPreState@ioTargetFlowAttackSkill@@IAEXPAVioBaseChar@@PAVioPlayStage@@@Z ; ioTargetFlowAttackSkill::CheckPreState
$LN6@OnProcessS:

; 122  : 		}
; 123  : 		break;
; 124  : 	case SS_END:
; 125  : 		{
; 126  : 		}
; 127  : 		break;
; 128  : 	}
; 129  : }

  0002f	5d		 pop	 ebp
  00030	c2 08 00	 ret	 8
?OnProcessState@ioTargetFlowAttackSkill@@UAEXPAVioBaseChar@@PAVioPlayStage@@@Z ENDP ; ioTargetFlowAttackSkill::OnProcessState
_TEXT	ENDS
PUBLIC	??$_Uninit_copy@V?$_Vector_const_iterator@V?$_Vector_val@UForceInfo@@V?$allocator@UForceInfo@@@std@@@std@@@std@@PAUForceInfo@@V?$allocator@UForceInfo@@@2@@std@@YAPAUForceInfo@@V?$_Vector_const_iterator@V?$_Vector_val@UForceInfo@@V?$allocator@UForceInfo@@@std@@@std@@@0@0PAU1@AAV?$allocator@UForceInfo@@@0@U_Nonscalar_ptr_iterator_tag@0@@Z ; std::_Uninit_copy<std::_Vector_const_iterator<std::_Vector_val<ForceInfo,std::allocator<ForceInfo> > >,ForceInfo *,std::allocator<ForceInfo> >
; Function compile flags: /Ogsp
; File c:\program files (x86)\microsoft visual studio 10.0\vc\include\memory
;	COMDAT ??$_Uninit_copy@V?$_Vector_const_iterator@V?$_Vector_val@UForceInfo@@V?$allocator@UForceInfo@@@std@@@std@@@std@@PAUForceInfo@@V?$allocator@UForceInfo@@@2@@std@@YAPAUForceInfo@@V?$_Vector_const_iterator@V?$_Vector_val@UForceInfo@@V?$allocator@UForceInfo@@@std@@@std@@@0@0PAU1@AAV?$allocator@UForceInfo@@@0@U_Nonscalar_ptr_iterator_tag@0@@Z
_TEXT	SEGMENT
__First$ = 8						; size = 4
__Last$ = 12						; size = 4
__Dest$ = 16						; size = 4
__Al$ = 20						; size = 4
___formal$ = 24						; size = 1
??$_Uninit_copy@V?$_Vector_const_iterator@V?$_Vector_val@UForceInfo@@V?$allocator@UForceInfo@@@std@@@std@@@std@@PAUForceInfo@@V?$allocator@UForceInfo@@@2@@std@@YAPAUForceInfo@@V?$_Vector_const_iterator@V?$_Vector_val@UForceInfo@@V?$allocator@UForceInfo@@@std@@@std@@@0@0PAU1@AAV?$allocator@UForceInfo@@@0@U_Nonscalar_ptr_iterator_tag@0@@Z PROC ; std::_Uninit_copy<std::_Vector_const_iterator<std::_Vector_val<ForceInfo,std::allocator<ForceInfo> > >,ForceInfo *,std::allocator<ForceInfo> >, COMDAT

; 369  : 	{	// copy [_First, _Last) to raw _Dest, using _Al, arbitrary type

  00000	55		 push	 ebp
  00001	8b ec		 mov	 ebp, esp

; 370  : 	_DEBUG_RANGE(_First, _Last);
; 371  : 	_DEBUG_POINTER(_Dest);
; 372  : 	_FwdIt _Next = _Dest;
; 373  : 
; 374  : 	_TRY_BEGIN
; 375  : 	for (; _First != _Last; ++_Dest, ++_First)

  00003	eb 19		 jmp	 SHORT $LN35@Uninit_cop@2
$LL14@Uninit_cop@2:

; 376  : 		_Cons_val(_Al, _Dest, *_First);

  00005	ff 75 08	 push	 DWORD PTR __First$[ebp]
  00008	ff 75 10	 push	 DWORD PTR __Dest$[ebp]
  0000b	ff 75 14	 push	 DWORD PTR __Al$[ebp]
  0000e	e8 00 00 00 00	 call	 ??$_Cons_val@V?$allocator@UForceInfo@@@std@@UForceInfo@@ABU3@@std@@YAXAAV?$allocator@UForceInfo@@@0@PAUForceInfo@@ABU2@@Z ; std::_Cons_val<std::allocator<ForceInfo>,ForceInfo,ForceInfo const &>
  00013	83 45 10 0c	 add	 DWORD PTR __Dest$[ebp], 12 ; 0000000cH
  00017	83 c4 0c	 add	 esp, 12			; 0000000cH
  0001a	83 45 08 0c	 add	 DWORD PTR __First$[ebp], 12 ; 0000000cH
$LN35@Uninit_cop@2:

; 370  : 	_DEBUG_RANGE(_First, _Last);
; 371  : 	_DEBUG_POINTER(_Dest);
; 372  : 	_FwdIt _Next = _Dest;
; 373  : 
; 374  : 	_TRY_BEGIN
; 375  : 	for (; _First != _Last; ++_Dest, ++_First)

  0001e	8b 45 08	 mov	 eax, DWORD PTR __First$[ebp]
  00021	3b 45 0c	 cmp	 eax, DWORD PTR __Last$[ebp]
  00024	75 df		 jne	 SHORT $LL14@Uninit_cop@2

; 377  : 	_CATCH_ALL
; 378  : 	for (; _Next != _Dest; ++_Next)
; 379  : 		_Dest_val(_Al, _Next);
; 380  : 	_RERAISE;
; 381  : 	_CATCH_END
; 382  : 	return (_Dest);

  00026	8b 45 10	 mov	 eax, DWORD PTR __Dest$[ebp]

; 383  : 	}

  00029	5d		 pop	 ebp
  0002a	c3		 ret	 0
??$_Uninit_copy@V?$_Vector_const_iterator@V?$_Vector_val@UForceInfo@@V?$allocator@UForceInfo@@@std@@@std@@@std@@PAUForceInfo@@V?$allocator@UForceInfo@@@2@@std@@YAPAUForceInfo@@V?$_Vector_const_iterator@V?$_Vector_val@UForceInfo@@V?$allocator@UForceInfo@@@std@@@std@@@0@0PAU1@AAV?$allocator@UForceInfo@@@0@U_Nonscalar_ptr_iterator_tag@0@@Z ENDP ; std::_Uninit_copy<std::_Vector_const_iterator<std::_Vector_val<ForceInfo,std::allocator<ForceInfo> > >,ForceInfo *,std::allocator<ForceInfo> >
_TEXT	ENDS
PUBLIC	??$_Cons_val@V?$allocator@UWeaponInfo@@@std@@UWeaponInfo@@ABU3@@std@@YAXAAV?$allocator@UWeaponInfo@@@0@PAUWeaponInfo@@ABU2@@Z ; std::_Cons_val<std::allocator<WeaponInfo>,WeaponInfo,WeaponInfo const &>
; Function compile flags: /Ogsp
; File c:\program files (x86)\microsoft visual studio 10.0\vc\include\xmemory
;	COMDAT ??$_Cons_val@V?$allocator@UWeaponInfo@@@std@@UWeaponInfo@@ABU3@@std@@YAXAAV?$allocator@UWeaponInfo@@@0@PAUWeaponInfo@@ABU2@@Z
_TEXT	SEGMENT
__Alval$ = 8						; size = 4
__Pdest$ = 12						; size = 4
__Src$ = 16						; size = 4
??$_Cons_val@V?$allocator@UWeaponInfo@@@std@@UWeaponInfo@@ABU3@@std@@YAXAAV?$allocator@UWeaponInfo@@@0@PAUWeaponInfo@@ABU2@@Z PROC ; std::_Cons_val<std::allocator<WeaponInfo>,WeaponInfo,WeaponInfo const &>, COMDAT

; 279  : 	{	// construct using allocator

  00000	55		 push	 ebp
  00001	8b ec		 mov	 ebp, esp

; 280  : 	_Alval.construct(_Pdest, _STD forward<_Ty2>(_Src));

  00003	ff 75 10	 push	 DWORD PTR __Src$[ebp]
  00006	ff 75 0c	 push	 DWORD PTR __Pdest$[ebp]
  00009	e8 00 00 00 00	 call	 ??$_Construct@UWeaponInfo@@ABU1@@std@@YAXPAUWeaponInfo@@ABU1@@Z ; std::_Construct<WeaponInfo,WeaponInfo const &>
  0000e	59		 pop	 ecx
  0000f	59		 pop	 ecx

; 281  : 	}

  00010	5d		 pop	 ebp
  00011	c3		 ret	 0
??$_Cons_val@V?$allocator@UWeaponInfo@@@std@@UWeaponInfo@@ABU3@@std@@YAXAAV?$allocator@UWeaponInfo@@@0@PAUWeaponInfo@@ABU2@@Z ENDP ; std::_Cons_val<std::allocator<WeaponInfo>,WeaponInfo,WeaponInfo const &>
_TEXT	ENDS
PUBLIC	??$_Destroy_range@V?$allocator@UForceInfo@@@std@@@std@@YAXPAUForceInfo@@0AAV?$allocator@UForceInfo@@@0@U_Nonscalar_ptr_iterator_tag@0@@Z ; std::_Destroy_range<std::allocator<ForceInfo> >
; Function compile flags: /Ogsp
;	COMDAT ??$_Destroy_range@V?$allocator@UForceInfo@@@std@@@std@@YAXPAUForceInfo@@0AAV?$allocator@UForceInfo@@@0@U_Nonscalar_ptr_iterator_tag@0@@Z
_TEXT	SEGMENT
__First$ = 8						; size = 4
__Last$ = 12						; size = 4
__Al$ = 16						; size = 4
___formal$ = 20						; size = 1
??$_Destroy_range@V?$allocator@UForceInfo@@@std@@@std@@YAXPAUForceInfo@@0AAV?$allocator@UForceInfo@@@0@U_Nonscalar_ptr_iterator_tag@0@@Z PROC ; std::_Destroy_range<std::allocator<ForceInfo> >, COMDAT

; 96   : 	for (; _First != _Last; ++_First)
; 97   : 		_Dest_val(_Al, _First);
; 98   : 	}

  00000	c3		 ret	 0
??$_Destroy_range@V?$allocator@UForceInfo@@@std@@@std@@YAXPAUForceInfo@@0AAV?$allocator@UForceInfo@@@0@U_Nonscalar_ptr_iterator_tag@0@@Z ENDP ; std::_Destroy_range<std::allocator<ForceInfo> >
_TEXT	ENDS
PUBLIC	??$_Dest_val@V?$allocator@UWeaponInfo@@@std@@UWeaponInfo@@@std@@YAXAAV?$allocator@UWeaponInfo@@@0@PAUWeaponInfo@@@Z ; std::_Dest_val<std::allocator<WeaponInfo>,WeaponInfo>
; Function compile flags: /Ogsp
;	COMDAT ??$_Dest_val@V?$allocator@UWeaponInfo@@@std@@UWeaponInfo@@@std@@YAXAAV?$allocator@UWeaponInfo@@@0@PAUWeaponInfo@@@Z
_TEXT	SEGMENT
__Alval$ = 8						; size = 4
__Pdest$ = 12						; size = 4
??$_Dest_val@V?$allocator@UWeaponInfo@@@std@@UWeaponInfo@@@std@@YAXAAV?$allocator@UWeaponInfo@@@0@PAUWeaponInfo@@@Z PROC ; std::_Dest_val<std::allocator<WeaponInfo>,WeaponInfo>, COMDAT

; 286  : 	{	// destroy using allocator

  00000	55		 push	 ebp
  00001	8b ec		 mov	 ebp, esp

; 287  : 	_Alval.destroy(_Pdest);

  00003	8b 4d 0c	 mov	 ecx, DWORD PTR __Pdest$[ebp]
  00006	83 c1 08	 add	 ecx, 8

; 288  : 	}

  00009	5d		 pop	 ebp

; 287  : 	_Alval.destroy(_Pdest);

  0000a	ff 25 00 00 00
	00		 jmp	 DWORD PTR __imp_??1ioHashString@@QAE@XZ
??$_Dest_val@V?$allocator@UWeaponInfo@@@std@@UWeaponInfo@@@std@@YAXAAV?$allocator@UWeaponInfo@@@0@PAUWeaponInfo@@@Z ENDP ; std::_Dest_val<std::allocator<WeaponInfo>,WeaponInfo>
_TEXT	ENDS
PUBLIC	??$_Uninitialized_copy@PAUForceInfo@@PAU1@V?$allocator@UForceInfo@@@std@@@std@@YAPAUForceInfo@@PAU1@00AAV?$allocator@UForceInfo@@@0@@Z ; std::_Uninitialized_copy<ForceInfo *,ForceInfo *,std::allocator<ForceInfo> >
; Function compile flags: /Ogsp
; File c:\program files (x86)\microsoft visual studio 10.0\vc\include\memory
;	COMDAT ??$_Uninitialized_copy@PAUForceInfo@@PAU1@V?$allocator@UForceInfo@@@std@@@std@@YAPAUForceInfo@@PAU1@00AAV?$allocator@UForceInfo@@@0@@Z
_TEXT	SEGMENT
__Cat$552914 = -4					; size = 1
__First$ = 8						; size = 4
__Last$ = 12						; size = 4
__Dest$ = 16						; size = 4
__Al$ = 20						; size = 4
??$_Uninitialized_copy@PAUForceInfo@@PAU1@V?$allocator@UForceInfo@@@std@@@std@@YAPAUForceInfo@@PAU1@00AAV?$allocator@UForceInfo@@@0@@Z PROC ; std::_Uninitialized_copy<ForceInfo *,ForceInfo *,std::allocator<ForceInfo> >, COMDAT

; 412  : 	{	// copy [_First, _Last) to raw _Dest, using _Al

  00000	55		 push	 ebp
  00001	8b ec		 mov	 ebp, esp
  00003	51		 push	 ecx

; 413  : 	return (_Uninit_copy(_First, _Last, _Dest, _Al,
; 414  : 		_Ptr_cat(_First, _Dest)));

  00004	ff 75 fc	 push	 DWORD PTR __Cat$552914[ebp]
  00007	ff 75 14	 push	 DWORD PTR __Al$[ebp]
  0000a	ff 75 10	 push	 DWORD PTR __Dest$[ebp]
  0000d	ff 75 0c	 push	 DWORD PTR __Last$[ebp]
  00010	ff 75 08	 push	 DWORD PTR __First$[ebp]
  00013	e8 00 00 00 00	 call	 ??$_Uninit_copy@PAUForceInfo@@PAU1@V?$allocator@UForceInfo@@@std@@@std@@YAPAUForceInfo@@PAU1@00AAV?$allocator@UForceInfo@@@0@U_Nonscalar_ptr_iterator_tag@0@@Z ; std::_Uninit_copy<ForceInfo *,ForceInfo *,std::allocator<ForceInfo> >
  00018	83 c4 14	 add	 esp, 20			; 00000014H

; 415  : 	}

  0001b	c9		 leave
  0001c	c3		 ret	 0
??$_Uninitialized_copy@PAUForceInfo@@PAU1@V?$allocator@UForceInfo@@@std@@@std@@YAPAUForceInfo@@PAU1@00AAV?$allocator@UForceInfo@@@0@@Z ENDP ; std::_Uninitialized_copy<ForceInfo *,ForceInfo *,std::allocator<ForceInfo> >
_TEXT	ENDS
PUBLIC	??$_Uninit_copy@PAUWeaponInfo@@PAU1@V?$allocator@UWeaponInfo@@@std@@@std@@YAPAUWeaponInfo@@PAU1@00AAV?$allocator@UWeaponInfo@@@0@U_Nonscalar_ptr_iterator_tag@0@@Z ; std::_Uninit_copy<WeaponInfo *,WeaponInfo *,std::allocator<WeaponInfo> >
EXTRN	__EH_prolog3_catch:PROC
;	COMDAT xdata$x
; File d:\lost saga for developer\youtube\tutorial\source\src\lsclient\playentityhelpstruct.h
xdata$x	SEGMENT
__catchsym$??$_Uninit_copy@PAUWeaponInfo@@PAU1@V?$allocator@UWeaponInfo@@@std@@@std@@YAPAUWeaponInfo@@PAU1@00AAV?$allocator@UWeaponInfo@@@0@U_Nonscalar_ptr_iterator_tag@0@@Z$3 DD 040H
	DD	00H
	DD	00H
	DD	FLAT:__catch$??$_Uninit_copy@PAUWeaponInfo@@PAU1@V?$allocator@UWeaponInfo@@@std@@@std@@YAPAUWeaponInfo@@PAU1@00AAV?$allocator@UWeaponInfo@@@0@U_Nonscalar_ptr_iterator_tag@0@@Z$0
__unwindtable$??$_Uninit_copy@PAUWeaponInfo@@PAU1@V?$allocator@UWeaponInfo@@@std@@@std@@YAPAUWeaponInfo@@PAU1@00AAV?$allocator@UWeaponInfo@@@0@U_Nonscalar_ptr_iterator_tag@0@@Z DD 0ffffffffH
	DD	00H
	DD	0ffffffffH
	DD	00H
__tryblocktable$??$_Uninit_copy@PAUWeaponInfo@@PAU1@V?$allocator@UWeaponInfo@@@std@@@std@@YAPAUWeaponInfo@@PAU1@00AAV?$allocator@UWeaponInfo@@@0@U_Nonscalar_ptr_iterator_tag@0@@Z DD 00H
	DD	00H
	DD	01H
	DD	01H
	DD	FLAT:__catchsym$??$_Uninit_copy@PAUWeaponInfo@@PAU1@V?$allocator@UWeaponInfo@@@std@@@std@@YAPAUWeaponInfo@@PAU1@00AAV?$allocator@UWeaponInfo@@@0@U_Nonscalar_ptr_iterator_tag@0@@Z$3
__ehfuncinfo$??$_Uninit_copy@PAUWeaponInfo@@PAU1@V?$allocator@UWeaponInfo@@@std@@@std@@YAPAUWeaponInfo@@PAU1@00AAV?$allocator@UWeaponInfo@@@0@U_Nonscalar_ptr_iterator_tag@0@@Z DD 019930522H
	DD	02H
	DD	FLAT:__unwindtable$??$_Uninit_copy@PAUWeaponInfo@@PAU1@V?$allocator@UWeaponInfo@@@std@@@std@@YAPAUWeaponInfo@@PAU1@00AAV?$allocator@UWeaponInfo@@@0@U_Nonscalar_ptr_iterator_tag@0@@Z
	DD	01H
	DD	FLAT:__tryblocktable$??$_Uninit_copy@PAUWeaponInfo@@PAU1@V?$allocator@UWeaponInfo@@@std@@@std@@YAPAUWeaponInfo@@PAU1@00AAV?$allocator@UWeaponInfo@@@0@U_Nonscalar_ptr_iterator_tag@0@@Z
	DD	2 DUP(00H)
	DD	00H
	DD	01H
; Function compile flags: /Ogsp
; File c:\program files (x86)\microsoft visual studio 10.0\vc\include\memory
xdata$x	ENDS
;	COMDAT ??$_Uninit_copy@PAUWeaponInfo@@PAU1@V?$allocator@UWeaponInfo@@@std@@@std@@YAPAUWeaponInfo@@PAU1@00AAV?$allocator@UWeaponInfo@@@0@U_Nonscalar_ptr_iterator_tag@0@@Z
_TEXT	SEGMENT
__Next$ = -20						; size = 4
__$EHRec$ = -16						; size = 16
__First$ = 8						; size = 4
__Last$ = 12						; size = 4
__Dest$ = 16						; size = 4
__Al$ = 20						; size = 4
___formal$ = 24						; size = 1
??$_Uninit_copy@PAUWeaponInfo@@PAU1@V?$allocator@UWeaponInfo@@@std@@@std@@YAPAUWeaponInfo@@PAU1@00AAV?$allocator@UWeaponInfo@@@0@U_Nonscalar_ptr_iterator_tag@0@@Z PROC ; std::_Uninit_copy<WeaponInfo *,WeaponInfo *,std::allocator<WeaponInfo> >, COMDAT

; 369  : 	{	// copy [_First, _Last) to raw _Dest, using _Al, arbitrary type

  00000	6a 08		 push	 8
  00002	b8 00 00 00 00	 mov	 eax, __ehhandler$??$_Uninit_copy@PAUWeaponInfo@@PAU1@V?$allocator@UWeaponInfo@@@std@@@std@@YAPAUWeaponInfo@@PAU1@00AAV?$allocator@UWeaponInfo@@@0@U_Nonscalar_ptr_iterator_tag@0@@Z
  00007	e8 00 00 00 00	 call	 __EH_prolog3_catch

; 370  : 	_DEBUG_RANGE(_First, _Last);
; 371  : 	_DEBUG_POINTER(_Dest);
; 372  : 	_FwdIt _Next = _Dest;

  0000c	8b 45 10	 mov	 eax, DWORD PTR __Dest$[ebp]

; 373  : 
; 374  : 	_TRY_BEGIN

  0000f	83 65 fc 00	 and	 DWORD PTR __$EHRec$[ebp+12], 0
  00013	8b 75 08	 mov	 esi, DWORD PTR __First$[ebp]
  00016	89 45 ec	 mov	 DWORD PTR __Next$[ebp], eax
$LL6@Uninit_cop@3:

; 375  : 	for (; _First != _Last; ++_Dest, ++_First)

  00019	3b 75 0c	 cmp	 esi, DWORD PTR __Last$[ebp]
  0001c	74 37		 je	 SHORT $LN4@Uninit_cop@3

; 376  : 		_Cons_val(_Al, _Dest, *_First);

  0001e	56		 push	 esi
  0001f	ff 75 10	 push	 DWORD PTR __Dest$[ebp]
  00022	ff 75 14	 push	 DWORD PTR __Al$[ebp]
  00025	e8 00 00 00 00	 call	 ??$_Cons_val@V?$allocator@UWeaponInfo@@@std@@UWeaponInfo@@AAU3@@std@@YAXAAV?$allocator@UWeaponInfo@@@0@PAUWeaponInfo@@AAU2@@Z ; std::_Cons_val<std::allocator<WeaponInfo>,WeaponInfo,WeaponInfo &>
  0002a	83 45 10 28	 add	 DWORD PTR __Dest$[ebp], 40 ; 00000028H
  0002e	83 c4 0c	 add	 esp, 12			; 0000000cH
  00031	83 c6 28	 add	 esi, 40			; 00000028H
  00034	eb e3		 jmp	 SHORT $LL6@Uninit_cop@3
__catch$??$_Uninit_copy@PAUWeaponInfo@@PAU1@V?$allocator@UWeaponInfo@@@std@@@std@@YAPAUWeaponInfo@@PAU1@00AAV?$allocator@UWeaponInfo@@@0@U_Nonscalar_ptr_iterator_tag@0@@Z$0:

; 377  : 	_CATCH_ALL
; 378  : 	for (; _Next != _Dest; ++_Next)

  00036	8b 75 ec	 mov	 esi, DWORD PTR __Next$[ebp]
  00039	eb 0c		 jmp	 SHORT $LN32@Uninit_cop@3
$LL3@Uninit_cop@3:

; 379  : 		_Dest_val(_Al, _Next);

  0003b	8d 4e 08	 lea	 ecx, DWORD PTR [esi+8]
  0003e	ff 15 00 00 00
	00		 call	 DWORD PTR __imp_??1ioHashString@@QAE@XZ
  00044	83 c6 28	 add	 esi, 40			; 00000028H
$LN32@Uninit_cop@3:

; 377  : 	_CATCH_ALL
; 378  : 	for (; _Next != _Dest; ++_Next)

  00047	3b 75 10	 cmp	 esi, DWORD PTR __Dest$[ebp]
  0004a	75 ef		 jne	 SHORT $LL3@Uninit_cop@3

; 380  : 	_RERAISE;

  0004c	6a 00		 push	 0
  0004e	6a 00		 push	 0
  00050	e8 00 00 00 00	 call	 __CxxThrowException@8
$LN33@Uninit_cop@3:
$LN4@Uninit_cop@3:

; 381  : 	_CATCH_END
; 382  : 	return (_Dest);

  00055	8b 45 10	 mov	 eax, DWORD PTR __Dest$[ebp]

; 383  : 	}

  00058	e8 00 00 00 00	 call	 __EH_epilog3
  0005d	c3		 ret	 0
$LN31@Uninit_cop@3:
_TEXT	ENDS
;	COMDAT text$x
text$x	SEGMENT
__ehhandler$??$_Uninit_copy@PAUWeaponInfo@@PAU1@V?$allocator@UWeaponInfo@@@std@@@std@@YAPAUWeaponInfo@@PAU1@00AAV?$allocator@UWeaponInfo@@@0@U_Nonscalar_ptr_iterator_tag@0@@Z:
  00000	8b 54 24 08	 mov	 edx, DWORD PTR [esp+8]
  00004	8d 42 0c	 lea	 eax, DWORD PTR [edx+12]
  00007	8b 4a e8	 mov	 ecx, DWORD PTR [edx-24]
  0000a	33 c8		 xor	 ecx, eax
  0000c	e8 00 00 00 00	 call	 @__security_check_cookie@4
  00011	b8 00 00 00 00	 mov	 eax, OFFSET __ehfuncinfo$??$_Uninit_copy@PAUWeaponInfo@@PAU1@V?$allocator@UWeaponInfo@@@std@@@std@@YAPAUWeaponInfo@@PAU1@00AAV?$allocator@UWeaponInfo@@@0@U_Nonscalar_ptr_iterator_tag@0@@Z
  00016	e9 00 00 00 00	 jmp	 ___CxxFrameHandler3
text$x	ENDS
??$_Uninit_copy@PAUWeaponInfo@@PAU1@V?$allocator@UWeaponInfo@@@std@@@std@@YAPAUWeaponInfo@@PAU1@00AAV?$allocator@UWeaponInfo@@@0@U_Nonscalar_ptr_iterator_tag@0@@Z ENDP ; std::_Uninit_copy<WeaponInfo *,WeaponInfo *,std::allocator<WeaponInfo> >
PUBLIC	??$_Uninitialized_copy@V?$_Vector_const_iterator@V?$_Vector_val@UForceInfo@@V?$allocator@UForceInfo@@@std@@@std@@@std@@PAUForceInfo@@V?$allocator@UForceInfo@@@2@@std@@YAPAUForceInfo@@V?$_Vector_const_iterator@V?$_Vector_val@UForceInfo@@V?$allocator@UForceInfo@@@std@@@std@@@0@0PAU1@AAV?$allocator@UForceInfo@@@0@@Z ; std::_Uninitialized_copy<std::_Vector_const_iterator<std::_Vector_val<ForceInfo,std::allocator<ForceInfo> > >,ForceInfo *,std::allocator<ForceInfo> >
; Function compile flags: /Ogsp
;	COMDAT ??$_Uninitialized_copy@V?$_Vector_const_iterator@V?$_Vector_val@UForceInfo@@V?$allocator@UForceInfo@@@std@@@std@@@std@@PAUForceInfo@@V?$allocator@UForceInfo@@@2@@std@@YAPAUForceInfo@@V?$_Vector_const_iterator@V?$_Vector_val@UForceInfo@@V?$allocator@UForceInfo@@@std@@@std@@@0@0PAU1@AAV?$allocator@UForceInfo@@@0@@Z
_TEXT	SEGMENT
__Cat$552984 = -4					; size = 1
__First$ = 8						; size = 4
__Last$ = 12						; size = 4
__Dest$ = 16						; size = 4
__Al$ = 20						; size = 4
??$_Uninitialized_copy@V?$_Vector_const_iterator@V?$_Vector_val@UForceInfo@@V?$allocator@UForceInfo@@@std@@@std@@@std@@PAUForceInfo@@V?$allocator@UForceInfo@@@2@@std@@YAPAUForceInfo@@V?$_Vector_const_iterator@V?$_Vector_val@UForceInfo@@V?$allocator@UForceInfo@@@std@@@std@@@0@0PAU1@AAV?$allocator@UForceInfo@@@0@@Z PROC ; std::_Uninitialized_copy<std::_Vector_const_iterator<std::_Vector_val<ForceInfo,std::allocator<ForceInfo> > >,ForceInfo *,std::allocator<ForceInfo> >, COMDAT

; 412  : 	{	// copy [_First, _Last) to raw _Dest, using _Al

  00000	55		 push	 ebp
  00001	8b ec		 mov	 ebp, esp
  00003	51		 push	 ecx

; 413  : 	return (_Uninit_copy(_First, _Last, _Dest, _Al,
; 414  : 		_Ptr_cat(_First, _Dest)));

  00004	ff 75 fc	 push	 DWORD PTR __Cat$552984[ebp]
  00007	ff 75 14	 push	 DWORD PTR __Al$[ebp]
  0000a	ff 75 10	 push	 DWORD PTR __Dest$[ebp]
  0000d	ff 75 0c	 push	 DWORD PTR __Last$[ebp]
  00010	ff 75 08	 push	 DWORD PTR __First$[ebp]
  00013	e8 00 00 00 00	 call	 ??$_Uninit_copy@V?$_Vector_const_iterator@V?$_Vector_val@UForceInfo@@V?$allocator@UForceInfo@@@std@@@std@@@std@@PAUForceInfo@@V?$allocator@UForceInfo@@@2@@std@@YAPAUForceInfo@@V?$_Vector_const_iterator@V?$_Vector_val@UForceInfo@@V?$allocator@UForceInfo@@@std@@@std@@@0@0PAU1@AAV?$allocator@UForceInfo@@@0@U_Nonscalar_ptr_iterator_tag@0@@Z ; std::_Uninit_copy<std::_Vector_const_iterator<std::_Vector_val<ForceInfo,std::allocator<ForceInfo> > >,ForceInfo *,std::allocator<ForceInfo> >
  00018	83 c4 14	 add	 esp, 20			; 00000014H

; 415  : 	}

  0001b	c9		 leave
  0001c	c3		 ret	 0
??$_Uninitialized_copy@V?$_Vector_const_iterator@V?$_Vector_val@UForceInfo@@V?$allocator@UForceInfo@@@std@@@std@@@std@@PAUForceInfo@@V?$allocator@UForceInfo@@@2@@std@@YAPAUForceInfo@@V?$_Vector_const_iterator@V?$_Vector_val@UForceInfo@@V?$allocator@UForceInfo@@@std@@@std@@@0@0PAU1@AAV?$allocator@UForceInfo@@@0@@Z ENDP ; std::_Uninitialized_copy<std::_Vector_const_iterator<std::_Vector_val<ForceInfo,std::allocator<ForceInfo> > >,ForceInfo *,std::allocator<ForceInfo> >
_TEXT	ENDS
PUBLIC	??$_Uninit_copy@V?$_Vector_const_iterator@V?$_Vector_val@UWeaponInfo@@V?$allocator@UWeaponInfo@@@std@@@std@@@std@@PAUWeaponInfo@@V?$allocator@UWeaponInfo@@@2@@std@@YAPAUWeaponInfo@@V?$_Vector_const_iterator@V?$_Vector_val@UWeaponInfo@@V?$allocator@UWeaponInfo@@@std@@@std@@@0@0PAU1@AAV?$allocator@UWeaponInfo@@@0@U_Nonscalar_ptr_iterator_tag@0@@Z ; std::_Uninit_copy<std::_Vector_const_iterator<std::_Vector_val<WeaponInfo,std::allocator<WeaponInfo> > >,WeaponInfo *,std::allocator<WeaponInfo> >
;	COMDAT xdata$x
; File d:\lost saga for developer\youtube\tutorial\source\src\lsclient\playentityhelpstruct.h
xdata$x	SEGMENT
__catchsym$??$_Uninit_copy@V?$_Vector_const_iterator@V?$_Vector_val@UWeaponInfo@@V?$allocator@UWeaponInfo@@@std@@@std@@@std@@PAUWeaponInfo@@V?$allocator@UWeaponInfo@@@2@@std@@YAPAUWeaponInfo@@V?$_Vector_const_iterator@V?$_Vector_val@UWeaponInfo@@V?$allocator@UWeaponInfo@@@std@@@std@@@0@0PAU1@AAV?$allocator@UWeaponInfo@@@0@U_Nonscalar_ptr_iterator_tag@0@@Z$3 DD 040H
	DD	00H
	DD	00H
	DD	FLAT:__catch$??$_Uninit_copy@V?$_Vector_const_iterator@V?$_Vector_val@UWeaponInfo@@V?$allocator@UWeaponInfo@@@std@@@std@@@std@@PAUWeaponInfo@@V?$allocator@UWeaponInfo@@@2@@std@@YAPAUWeaponInfo@@V?$_Vector_const_iterator@V?$_Vector_val@UWeaponInfo@@V?$allocator@UWeaponInfo@@@std@@@std@@@0@0PAU1@AAV?$allocator@UWeaponInfo@@@0@U_Nonscalar_ptr_iterator_tag@0@@Z$0
__unwindtable$??$_Uninit_copy@V?$_Vector_const_iterator@V?$_Vector_val@UWeaponInfo@@V?$allocator@UWeaponInfo@@@std@@@std@@@std@@PAUWeaponInfo@@V?$allocator@UWeaponInfo@@@2@@std@@YAPAUWeaponInfo@@V?$_Vector_const_iterator@V?$_Vector_val@UWeaponInfo@@V?$allocator@UWeaponInfo@@@std@@@std@@@0@0PAU1@AAV?$allocator@UWeaponInfo@@@0@U_Nonscalar_ptr_iterator_tag@0@@Z DD 0ffffffffH
	DD	00H
	DD	0ffffffffH
	DD	00H
__tryblocktable$??$_Uninit_copy@V?$_Vector_const_iterator@V?$_Vector_val@UWeaponInfo@@V?$allocator@UWeaponInfo@@@std@@@std@@@std@@PAUWeaponInfo@@V?$allocator@UWeaponInfo@@@2@@std@@YAPAUWeaponInfo@@V?$_Vector_const_iterator@V?$_Vector_val@UWeaponInfo@@V?$allocator@UWeaponInfo@@@std@@@std@@@0@0PAU1@AAV?$allocator@UWeaponInfo@@@0@U_Nonscalar_ptr_iterator_tag@0@@Z DD 00H
	DD	00H
	DD	01H
	DD	01H
	DD	FLAT:__catchsym$??$_Uninit_copy@V?$_Vector_const_iterator@V?$_Vector_val@UWeaponInfo@@V?$allocator@UWeaponInfo@@@std@@@std@@@std@@PAUWeaponInfo@@V?$allocator@UWeaponInfo@@@2@@std@@YAPAUWeaponInfo@@V?$_Vector_const_iterator@V?$_Vector_val@UWeaponInfo@@V?$allocator@UWeaponInfo@@@std@@@std@@@0@0PAU1@AAV?$allocator@UWeaponInfo@@@0@U_Nonscalar_ptr_iterator_tag@0@@Z$3
__ehfuncinfo$??$_Uninit_copy@V?$_Vector_const_iterator@V?$_Vector_val@UWeaponInfo@@V?$allocator@UWeaponInfo@@@std@@@std@@@std@@PAUWeaponInfo@@V?$allocator@UWeaponInfo@@@2@@std@@YAPAUWeaponInfo@@V?$_Vector_const_iterator@V?$_Vector_val@UWeaponInfo@@V?$allocator@UWeaponInfo@@@std@@@std@@@0@0PAU1@AAV?$allocator@UWeaponInfo@@@0@U_Nonscalar_ptr_iterator_tag@0@@Z DD 019930522H
	DD	02H
	DD	FLAT:__unwindtable$??$_Uninit_copy@V?$_Vector_const_iterator@V?$_Vector_val@UWeaponInfo@@V?$allocator@UWeaponInfo@@@std@@@std@@@std@@PAUWeaponInfo@@V?$allocator@UWeaponInfo@@@2@@std@@YAPAUWeaponInfo@@V?$_Vector_const_iterator@V?$_Vector_val@UWeaponInfo@@V?$allocator@UWeaponInfo@@@std@@@std@@@0@0PAU1@AAV?$allocator@UWeaponInfo@@@0@U_Nonscalar_ptr_iterator_tag@0@@Z
	DD	01H
	DD	FLAT:__tryblocktable$??$_Uninit_copy@V?$_Vector_const_iterator@V?$_Vector_val@UWeaponInfo@@V?$allocator@UWeaponInfo@@@std@@@std@@@std@@PAUWeaponInfo@@V?$allocator@UWeaponInfo@@@2@@std@@YAPAUWeaponInfo@@V?$_Vector_const_iterator@V?$_Vector_val@UWeaponInfo@@V?$allocator@UWeaponInfo@@@std@@@std@@@0@0PAU1@AAV?$allocator@UWeaponInfo@@@0@U_Nonscalar_ptr_iterator_tag@0@@Z
	DD	2 DUP(00H)
	DD	00H
	DD	01H
; Function compile flags: /Ogsp
; File c:\program files (x86)\microsoft visual studio 10.0\vc\include\memory
xdata$x	ENDS
;	COMDAT ??$_Uninit_copy@V?$_Vector_const_iterator@V?$_Vector_val@UWeaponInfo@@V?$allocator@UWeaponInfo@@@std@@@std@@@std@@PAUWeaponInfo@@V?$allocator@UWeaponInfo@@@2@@std@@YAPAUWeaponInfo@@V?$_Vector_const_iterator@V?$_Vector_val@UWeaponInfo@@V?$allocator@UWeaponInfo@@@std@@@std@@@0@0PAU1@AAV?$allocator@UWeaponInfo@@@0@U_Nonscalar_ptr_iterator_tag@0@@Z
_TEXT	SEGMENT
__Next$ = -20						; size = 4
__$EHRec$ = -16						; size = 16
__First$ = 8						; size = 4
__Last$ = 12						; size = 4
__Dest$ = 16						; size = 4
__Al$ = 20						; size = 4
___formal$ = 24						; size = 1
??$_Uninit_copy@V?$_Vector_const_iterator@V?$_Vector_val@UWeaponInfo@@V?$allocator@UWeaponInfo@@@std@@@std@@@std@@PAUWeaponInfo@@V?$allocator@UWeaponInfo@@@2@@std@@YAPAUWeaponInfo@@V?$_Vector_const_iterator@V?$_Vector_val@UWeaponInfo@@V?$allocator@UWeaponInfo@@@std@@@std@@@0@0PAU1@AAV?$allocator@UWeaponInfo@@@0@U_Nonscalar_ptr_iterator_tag@0@@Z PROC ; std::_Uninit_copy<std::_Vector_const_iterator<std::_Vector_val<WeaponInfo,std::allocator<WeaponInfo> > >,WeaponInfo *,std::allocator<WeaponInfo> >, COMDAT

; 369  : 	{	// copy [_First, _Last) to raw _Dest, using _Al, arbitrary type

  00000	6a 08		 push	 8
  00002	b8 00 00 00 00	 mov	 eax, __ehhandler$??$_Uninit_copy@V?$_Vector_const_iterator@V?$_Vector_val@UWeaponInfo@@V?$allocator@UWeaponInfo@@@std@@@std@@@std@@PAUWeaponInfo@@V?$allocator@UWeaponInfo@@@2@@std@@YAPAUWeaponInfo@@V?$_Vector_const_iterator@V?$_Vector_val@UWeaponInfo@@V?$allocator@UWeaponInfo@@@std@@@std@@@0@0PAU1@AAV?$allocator@UWeaponInfo@@@0@U_Nonscalar_ptr_iterator_tag@0@@Z
  00007	e8 00 00 00 00	 call	 __EH_prolog3_catch

; 370  : 	_DEBUG_RANGE(_First, _Last);
; 371  : 	_DEBUG_POINTER(_Dest);
; 372  : 	_FwdIt _Next = _Dest;

  0000c	8b 45 10	 mov	 eax, DWORD PTR __Dest$[ebp]

; 373  : 
; 374  : 	_TRY_BEGIN

  0000f	83 65 fc 00	 and	 DWORD PTR __$EHRec$[ebp+12], 0
  00013	89 45 ec	 mov	 DWORD PTR __Next$[ebp], eax

; 375  : 	for (; _First != _Last; ++_Dest, ++_First)

$LL14@Uninit_cop@4:
  00016	8b 45 08	 mov	 eax, DWORD PTR __First$[ebp]
  00019	3b 45 0c	 cmp	 eax, DWORD PTR __Last$[ebp]
  0001c	74 34		 je	 SHORT $LN4@Uninit_cop@4

; 376  : 		_Cons_val(_Al, _Dest, *_First);

  0001e	50		 push	 eax
  0001f	ff 75 10	 push	 DWORD PTR __Dest$[ebp]
  00022	e8 00 00 00 00	 call	 ??$_Construct@UWeaponInfo@@ABU1@@std@@YAXPAUWeaponInfo@@ABU1@@Z ; std::_Construct<WeaponInfo,WeaponInfo const &>
  00027	83 45 10 28	 add	 DWORD PTR __Dest$[ebp], 40 ; 00000028H
  0002b	83 45 08 28	 add	 DWORD PTR __First$[ebp], 40 ; 00000028H
  0002f	59		 pop	 ecx
  00030	59		 pop	 ecx
  00031	eb e3		 jmp	 SHORT $LL14@Uninit_cop@4
__catch$??$_Uninit_copy@V?$_Vector_const_iterator@V?$_Vector_val@UWeaponInfo@@V?$allocator@UWeaponInfo@@@std@@@std@@@std@@PAUWeaponInfo@@V?$allocator@UWeaponInfo@@@2@@std@@YAPAUWeaponInfo@@V?$_Vector_const_iterator@V?$_Vector_val@UWeaponInfo@@V?$allocator@UWeaponInfo@@@std@@@std@@@0@0PAU1@AAV?$allocator@UWeaponInfo@@@0@U_Nonscalar_ptr_iterator_tag@0@@Z$0:

; 377  : 	_CATCH_ALL
; 378  : 	for (; _Next != _Dest; ++_Next)

  00033	8b 75 ec	 mov	 esi, DWORD PTR __Next$[ebp]
  00036	eb 0c		 jmp	 SHORT $LN48@Uninit_cop@4
$LL3@Uninit_cop@4:

; 379  : 		_Dest_val(_Al, _Next);

  00038	8d 4e 08	 lea	 ecx, DWORD PTR [esi+8]
  0003b	ff 15 00 00 00
	00		 call	 DWORD PTR __imp_??1ioHashString@@QAE@XZ
  00041	83 c6 28	 add	 esi, 40			; 00000028H
$LN48@Uninit_cop@4:

; 377  : 	_CATCH_ALL
; 378  : 	for (; _Next != _Dest; ++_Next)

  00044	3b 75 10	 cmp	 esi, DWORD PTR __Dest$[ebp]
  00047	75 ef		 jne	 SHORT $LL3@Uninit_cop@4

; 380  : 	_RERAISE;

  00049	6a 00		 push	 0
  0004b	6a 00		 push	 0
  0004d	e8 00 00 00 00	 call	 __CxxThrowException@8
$LN49@Uninit_cop@4:
$LN4@Uninit_cop@4:

; 381  : 	_CATCH_END
; 382  : 	return (_Dest);

  00052	8b 45 10	 mov	 eax, DWORD PTR __Dest$[ebp]

; 383  : 	}

  00055	e8 00 00 00 00	 call	 __EH_epilog3
  0005a	c3		 ret	 0
$LN47@Uninit_cop@4:
_TEXT	ENDS
;	COMDAT text$x
text$x	SEGMENT
__ehhandler$??$_Uninit_copy@V?$_Vector_const_iterator@V?$_Vector_val@UWeaponInfo@@V?$allocator@UWeaponInfo@@@std@@@std@@@std@@PAUWeaponInfo@@V?$allocator@UWeaponInfo@@@2@@std@@YAPAUWeaponInfo@@V?$_Vector_const_iterator@V?$_Vector_val@UWeaponInfo@@V?$allocator@UWeaponInfo@@@std@@@std@@@0@0PAU1@AAV?$allocator@UWeaponInfo@@@0@U_Nonscalar_ptr_iterator_tag@0@@Z:
  00000	8b 54 24 08	 mov	 edx, DWORD PTR [esp+8]
  00004	8d 42 0c	 lea	 eax, DWORD PTR [edx+12]
  00007	8b 4a e8	 mov	 ecx, DWORD PTR [edx-24]
  0000a	33 c8		 xor	 ecx, eax
  0000c	e8 00 00 00 00	 call	 @__security_check_cookie@4
  00011	b8 00 00 00 00	 mov	 eax, OFFSET __ehfuncinfo$??$_Uninit_copy@V?$_Vector_const_iterator@V?$_Vector_val@UWeaponInfo@@V?$allocator@UWeaponInfo@@@std@@@std@@@std@@PAUWeaponInfo@@V?$allocator@UWeaponInfo@@@2@@std@@YAPAUWeaponInfo@@V?$_Vector_const_iterator@V?$_Vector_val@UWeaponInfo@@V?$allocator@UWeaponInfo@@@std@@@std@@@0@0PAU1@AAV?$allocator@UWeaponInfo@@@0@U_Nonscalar_ptr_iterator_tag@0@@Z
  00016	e9 00 00 00 00	 jmp	 ___CxxFrameHandler3
text$x	ENDS
??$_Uninit_copy@V?$_Vector_const_iterator@V?$_Vector_val@UWeaponInfo@@V?$allocator@UWeaponInfo@@@std@@@std@@@std@@PAUWeaponInfo@@V?$allocator@UWeaponInfo@@@2@@std@@YAPAUWeaponInfo@@V?$_Vector_const_iterator@V?$_Vector_val@UWeaponInfo@@V?$allocator@UWeaponInfo@@@std@@@std@@@0@0PAU1@AAV?$allocator@UWeaponInfo@@@0@U_Nonscalar_ptr_iterator_tag@0@@Z ENDP ; std::_Uninit_copy<std::_Vector_const_iterator<std::_Vector_val<WeaponInfo,std::allocator<WeaponInfo> > >,WeaponInfo *,std::allocator<WeaponInfo> >
PUBLIC	??$_Destroy_range@V?$allocator@UForceInfo@@@std@@@std@@YAXPAUForceInfo@@0AAV?$allocator@UForceInfo@@@0@@Z ; std::_Destroy_range<std::allocator<ForceInfo> >
; Function compile flags: /Ogsp
; File c:\program files (x86)\microsoft visual studio 10.0\vc\include\xmemory
;	COMDAT ??$_Destroy_range@V?$allocator@UForceInfo@@@std@@@std@@YAXPAUForceInfo@@0AAV?$allocator@UForceInfo@@@0@@Z
_TEXT	SEGMENT
__First$ = 8						; size = 4
__Last$ = 12						; size = 4
__Al$ = 16						; size = 4
??$_Destroy_range@V?$allocator@UForceInfo@@@std@@@std@@YAXPAUForceInfo@@0AAV?$allocator@UForceInfo@@@0@@Z PROC ; std::_Destroy_range<std::allocator<ForceInfo> >, COMDAT

; 88   : 	_Destroy_range(_First, _Last, _Al, _Ptr_cat(_First, _Last));
; 89   : 	}

  00000	c3		 ret	 0
??$_Destroy_range@V?$allocator@UForceInfo@@@std@@@std@@YAXPAUForceInfo@@0AAV?$allocator@UForceInfo@@@0@@Z ENDP ; std::_Destroy_range<std::allocator<ForceInfo> >
_TEXT	ENDS
PUBLIC	??$_Destroy_range@V?$allocator@UWeaponInfo@@@std@@@std@@YAXPAUWeaponInfo@@0AAV?$allocator@UWeaponInfo@@@0@U_Nonscalar_ptr_iterator_tag@0@@Z ; std::_Destroy_range<std::allocator<WeaponInfo> >
; Function compile flags: /Ogsp
;	COMDAT ??$_Destroy_range@V?$allocator@UWeaponInfo@@@std@@@std@@YAXPAUWeaponInfo@@0AAV?$allocator@UWeaponInfo@@@0@U_Nonscalar_ptr_iterator_tag@0@@Z
_TEXT	SEGMENT
__First$ = 8						; size = 4
__Last$ = 12						; size = 4
__Al$ = 16						; size = 4
___formal$ = 20						; size = 1
??$_Destroy_range@V?$allocator@UWeaponInfo@@@std@@@std@@YAXPAUWeaponInfo@@0AAV?$allocator@UWeaponInfo@@@0@U_Nonscalar_ptr_iterator_tag@0@@Z PROC ; std::_Destroy_range<std::allocator<WeaponInfo> >, COMDAT

; 95   : 	{	// destroy [_First, _Last), arbitrary type

  00000	55		 push	 ebp
  00001	8b ec		 mov	 ebp, esp
  00003	56		 push	 esi

; 96   : 	for (; _First != _Last; ++_First)

  00004	8b 75 08	 mov	 esi, DWORD PTR __First$[ebp]
  00007	eb 0c		 jmp	 SHORT $LN20@Destroy_ra
$LL3@Destroy_ra:

; 97   : 		_Dest_val(_Al, _First);

  00009	8d 4e 08	 lea	 ecx, DWORD PTR [esi+8]
  0000c	ff 15 00 00 00
	00		 call	 DWORD PTR __imp_??1ioHashString@@QAE@XZ
  00012	83 c6 28	 add	 esi, 40			; 00000028H
$LN20@Destroy_ra:

; 96   : 	for (; _First != _Last; ++_First)

  00015	3b 75 0c	 cmp	 esi, DWORD PTR __Last$[ebp]
  00018	75 ef		 jne	 SHORT $LL3@Destroy_ra
  0001a	5e		 pop	 esi

; 98   : 	}

  0001b	5d		 pop	 ebp
  0001c	c3		 ret	 0
??$_Destroy_range@V?$allocator@UWeaponInfo@@@std@@@std@@YAXPAUWeaponInfo@@0AAV?$allocator@UWeaponInfo@@@0@U_Nonscalar_ptr_iterator_tag@0@@Z ENDP ; std::_Destroy_range<std::allocator<WeaponInfo> >
_TEXT	ENDS
PUBLIC	??$_Ucopy@PAUForceInfo@@@?$vector@UForceInfo@@V?$allocator@UForceInfo@@@std@@@std@@IAEPAUForceInfo@@PAU2@00@Z ; std::vector<ForceInfo,std::allocator<ForceInfo> >::_Ucopy<ForceInfo *>
; Function compile flags: /Ogsp
; File c:\program files (x86)\microsoft visual studio 10.0\vc\include\vector
;	COMDAT ??$_Ucopy@PAUForceInfo@@@?$vector@UForceInfo@@V?$allocator@UForceInfo@@@std@@@std@@IAEPAUForceInfo@@PAU2@00@Z
_TEXT	SEGMENT
__First$ = 8						; size = 4
__Last$ = 12						; size = 4
__Cat$553176 = 16					; size = 1
__Ptr$ = 16						; size = 4
??$_Ucopy@PAUForceInfo@@@?$vector@UForceInfo@@V?$allocator@UForceInfo@@@std@@@std@@IAEPAUForceInfo@@PAU2@00@Z PROC ; std::vector<ForceInfo,std::allocator<ForceInfo> >::_Ucopy<ForceInfo *>, COMDAT
; _this$ = ecx

; 1315 : 		pointer _Ucopy(_Iter _First, _Iter _Last, pointer _Ptr)

  00000	55		 push	 ebp
  00001	8b ec		 mov	 ebp, esp

; 1316 : 		{	// copy initializing [_First, _Last), using allocator
; 1317 : 		return (_Uninitialized_copy(_First, _Last,
; 1318 : 			_Ptr, this->_Alval));

  00003	ff 75 10	 push	 DWORD PTR __Cat$553176[ebp]
  00006	83 c1 0c	 add	 ecx, 12			; 0000000cH
  00009	51		 push	 ecx
  0000a	ff 75 10	 push	 DWORD PTR __Ptr$[ebp]
  0000d	ff 75 0c	 push	 DWORD PTR __Last$[ebp]
  00010	ff 75 08	 push	 DWORD PTR __First$[ebp]
  00013	e8 00 00 00 00	 call	 ??$_Uninit_copy@PAUForceInfo@@PAU1@V?$allocator@UForceInfo@@@std@@@std@@YAPAUForceInfo@@PAU1@00AAV?$allocator@UForceInfo@@@0@U_Nonscalar_ptr_iterator_tag@0@@Z ; std::_Uninit_copy<ForceInfo *,ForceInfo *,std::allocator<ForceInfo> >
  00018	83 c4 14	 add	 esp, 20			; 00000014H

; 1319 : 		}

  0001b	5d		 pop	 ebp
  0001c	c2 0c 00	 ret	 12			; 0000000cH
??$_Ucopy@PAUForceInfo@@@?$vector@UForceInfo@@V?$allocator@UForceInfo@@@std@@@std@@IAEPAUForceInfo@@PAU2@00@Z ENDP ; std::vector<ForceInfo,std::allocator<ForceInfo> >::_Ucopy<ForceInfo *>
_TEXT	ENDS
PUBLIC	??$_Uninitialized_copy@PAUWeaponInfo@@PAU1@V?$allocator@UWeaponInfo@@@std@@@std@@YAPAUWeaponInfo@@PAU1@00AAV?$allocator@UWeaponInfo@@@0@@Z ; std::_Uninitialized_copy<WeaponInfo *,WeaponInfo *,std::allocator<WeaponInfo> >
; Function compile flags: /Ogsp
; File c:\program files (x86)\microsoft visual studio 10.0\vc\include\memory
;	COMDAT ??$_Uninitialized_copy@PAUWeaponInfo@@PAU1@V?$allocator@UWeaponInfo@@@std@@@std@@YAPAUWeaponInfo@@PAU1@00AAV?$allocator@UWeaponInfo@@@0@@Z
_TEXT	SEGMENT
__Cat$553184 = -4					; size = 1
__First$ = 8						; size = 4
__Last$ = 12						; size = 4
__Dest$ = 16						; size = 4
__Al$ = 20						; size = 4
??$_Uninitialized_copy@PAUWeaponInfo@@PAU1@V?$allocator@UWeaponInfo@@@std@@@std@@YAPAUWeaponInfo@@PAU1@00AAV?$allocator@UWeaponInfo@@@0@@Z PROC ; std::_Uninitialized_copy<WeaponInfo *,WeaponInfo *,std::allocator<WeaponInfo> >, COMDAT

; 412  : 	{	// copy [_First, _Last) to raw _Dest, using _Al

  00000	55		 push	 ebp
  00001	8b ec		 mov	 ebp, esp
  00003	51		 push	 ecx

; 413  : 	return (_Uninit_copy(_First, _Last, _Dest, _Al,
; 414  : 		_Ptr_cat(_First, _Dest)));

  00004	ff 75 fc	 push	 DWORD PTR __Cat$553184[ebp]
  00007	ff 75 14	 push	 DWORD PTR __Al$[ebp]
  0000a	ff 75 10	 push	 DWORD PTR __Dest$[ebp]
  0000d	ff 75 0c	 push	 DWORD PTR __Last$[ebp]
  00010	ff 75 08	 push	 DWORD PTR __First$[ebp]
  00013	e8 00 00 00 00	 call	 ??$_Uninit_copy@PAUWeaponInfo@@PAU1@V?$allocator@UWeaponInfo@@@std@@@std@@YAPAUWeaponInfo@@PAU1@00AAV?$allocator@UWeaponInfo@@@0@U_Nonscalar_ptr_iterator_tag@0@@Z ; std::_Uninit_copy<WeaponInfo *,WeaponInfo *,std::allocator<WeaponInfo> >
  00018	83 c4 14	 add	 esp, 20			; 00000014H

; 415  : 	}

  0001b	c9		 leave
  0001c	c3		 ret	 0
??$_Uninitialized_copy@PAUWeaponInfo@@PAU1@V?$allocator@UWeaponInfo@@@std@@@std@@YAPAUWeaponInfo@@PAU1@00AAV?$allocator@UWeaponInfo@@@0@@Z ENDP ; std::_Uninitialized_copy<WeaponInfo *,WeaponInfo *,std::allocator<WeaponInfo> >
_TEXT	ENDS
PUBLIC	??$_Ucopy@V?$_Vector_const_iterator@V?$_Vector_val@UForceInfo@@V?$allocator@UForceInfo@@@std@@@std@@@std@@@?$vector@UForceInfo@@V?$allocator@UForceInfo@@@std@@@std@@IAEPAUForceInfo@@V?$_Vector_const_iterator@V?$_Vector_val@UForceInfo@@V?$allocator@UForceInfo@@@std@@@std@@@1@0PAU2@@Z ; std::vector<ForceInfo,std::allocator<ForceInfo> >::_Ucopy<std::_Vector_const_iterator<std::_Vector_val<ForceInfo,std::allocator<ForceInfo> > > >
; Function compile flags: /Ogsp
; File c:\program files (x86)\microsoft visual studio 10.0\vc\include\vector
;	COMDAT ??$_Ucopy@V?$_Vector_const_iterator@V?$_Vector_val@UForceInfo@@V?$allocator@UForceInfo@@@std@@@std@@@std@@@?$vector@UForceInfo@@V?$allocator@UForceInfo@@@std@@@std@@IAEPAUForceInfo@@V?$_Vector_const_iterator@V?$_Vector_val@UForceInfo@@V?$allocator@UForceInfo@@@std@@@std@@@1@0PAU2@@Z
_TEXT	SEGMENT
__First$ = 8						; size = 4
__Last$ = 12						; size = 4
__Cat$553197 = 16					; size = 1
__Ptr$ = 16						; size = 4
??$_Ucopy@V?$_Vector_const_iterator@V?$_Vector_val@UForceInfo@@V?$allocator@UForceInfo@@@std@@@std@@@std@@@?$vector@UForceInfo@@V?$allocator@UForceInfo@@@std@@@std@@IAEPAUForceInfo@@V?$_Vector_const_iterator@V?$_Vector_val@UForceInfo@@V?$allocator@UForceInfo@@@std@@@std@@@1@0PAU2@@Z PROC ; std::vector<ForceInfo,std::allocator<ForceInfo> >::_Ucopy<std::_Vector_const_iterator<std::_Vector_val<ForceInfo,std::allocator<ForceInfo> > > >, COMDAT
; _this$ = ecx

; 1315 : 		pointer _Ucopy(_Iter _First, _Iter _Last, pointer _Ptr)

  00000	55		 push	 ebp
  00001	8b ec		 mov	 ebp, esp

; 1316 : 		{	// copy initializing [_First, _Last), using allocator
; 1317 : 		return (_Uninitialized_copy(_First, _Last,
; 1318 : 			_Ptr, this->_Alval));

  00003	ff 75 10	 push	 DWORD PTR __Cat$553197[ebp]
  00006	83 c1 0c	 add	 ecx, 12			; 0000000cH
  00009	51		 push	 ecx
  0000a	ff 75 10	 push	 DWORD PTR __Ptr$[ebp]
  0000d	ff 75 0c	 push	 DWORD PTR __Last$[ebp]
  00010	ff 75 08	 push	 DWORD PTR __First$[ebp]
  00013	e8 00 00 00 00	 call	 ??$_Uninit_copy@V?$_Vector_const_iterator@V?$_Vector_val@UForceInfo@@V?$allocator@UForceInfo@@@std@@@std@@@std@@PAUForceInfo@@V?$allocator@UForceInfo@@@2@@std@@YAPAUForceInfo@@V?$_Vector_const_iterator@V?$_Vector_val@UForceInfo@@V?$allocator@UForceInfo@@@std@@@std@@@0@0PAU1@AAV?$allocator@UForceInfo@@@0@U_Nonscalar_ptr_iterator_tag@0@@Z ; std::_Uninit_copy<std::_Vector_const_iterator<std::_Vector_val<ForceInfo,std::allocator<ForceInfo> > >,ForceInfo *,std::allocator<ForceInfo> >
  00018	83 c4 14	 add	 esp, 20			; 00000014H

; 1319 : 		}

  0001b	5d		 pop	 ebp
  0001c	c2 0c 00	 ret	 12			; 0000000cH
??$_Ucopy@V?$_Vector_const_iterator@V?$_Vector_val@UForceInfo@@V?$allocator@UForceInfo@@@std@@@std@@@std@@@?$vector@UForceInfo@@V?$allocator@UForceInfo@@@std@@@std@@IAEPAUForceInfo@@V?$_Vector_const_iterator@V?$_Vector_val@UForceInfo@@V?$allocator@UForceInfo@@@std@@@std@@@1@0PAU2@@Z ENDP ; std::vector<ForceInfo,std::allocator<ForceInfo> >::_Ucopy<std::_Vector_const_iterator<std::_Vector_val<ForceInfo,std::allocator<ForceInfo> > > >
_TEXT	ENDS
PUBLIC	??$_Uninitialized_copy@V?$_Vector_const_iterator@V?$_Vector_val@UWeaponInfo@@V?$allocator@UWeaponInfo@@@std@@@std@@@std@@PAUWeaponInfo@@V?$allocator@UWeaponInfo@@@2@@std@@YAPAUWeaponInfo@@V?$_Vector_const_iterator@V?$_Vector_val@UWeaponInfo@@V?$allocator@UWeaponInfo@@@std@@@std@@@0@0PAU1@AAV?$allocator@UWeaponInfo@@@0@@Z ; std::_Uninitialized_copy<std::_Vector_const_iterator<std::_Vector_val<WeaponInfo,std::allocator<WeaponInfo> > >,WeaponInfo *,std::allocator<WeaponInfo> >
; Function compile flags: /Ogsp
; File c:\program files (x86)\microsoft visual studio 10.0\vc\include\memory
;	COMDAT ??$_Uninitialized_copy@V?$_Vector_const_iterator@V?$_Vector_val@UWeaponInfo@@V?$allocator@UWeaponInfo@@@std@@@std@@@std@@PAUWeaponInfo@@V?$allocator@UWeaponInfo@@@2@@std@@YAPAUWeaponInfo@@V?$_Vector_const_iterator@V?$_Vector_val@UWeaponInfo@@V?$allocator@UWeaponInfo@@@std@@@std@@@0@0PAU1@AAV?$allocator@UWeaponInfo@@@0@@Z
_TEXT	SEGMENT
__Cat$553207 = -4					; size = 1
__First$ = 8						; size = 4
__Last$ = 12						; size = 4
__Dest$ = 16						; size = 4
__Al$ = 20						; size = 4
??$_Uninitialized_copy@V?$_Vector_const_iterator@V?$_Vector_val@UWeaponInfo@@V?$allocator@UWeaponInfo@@@std@@@std@@@std@@PAUWeaponInfo@@V?$allocator@UWeaponInfo@@@2@@std@@YAPAUWeaponInfo@@V?$_Vector_const_iterator@V?$_Vector_val@UWeaponInfo@@V?$allocator@UWeaponInfo@@@std@@@std@@@0@0PAU1@AAV?$allocator@UWeaponInfo@@@0@@Z PROC ; std::_Uninitialized_copy<std::_Vector_const_iterator<std::_Vector_val<WeaponInfo,std::allocator<WeaponInfo> > >,WeaponInfo *,std::allocator<WeaponInfo> >, COMDAT

; 412  : 	{	// copy [_First, _Last) to raw _Dest, using _Al

  00000	55		 push	 ebp
  00001	8b ec		 mov	 ebp, esp
  00003	51		 push	 ecx

; 413  : 	return (_Uninit_copy(_First, _Last, _Dest, _Al,
; 414  : 		_Ptr_cat(_First, _Dest)));

  00004	ff 75 fc	 push	 DWORD PTR __Cat$553207[ebp]
  00007	ff 75 14	 push	 DWORD PTR __Al$[ebp]
  0000a	ff 75 10	 push	 DWORD PTR __Dest$[ebp]
  0000d	ff 75 0c	 push	 DWORD PTR __Last$[ebp]
  00010	ff 75 08	 push	 DWORD PTR __First$[ebp]
  00013	e8 00 00 00 00	 call	 ??$_Uninit_copy@V?$_Vector_const_iterator@V?$_Vector_val@UWeaponInfo@@V?$allocator@UWeaponInfo@@@std@@@std@@@std@@PAUWeaponInfo@@V?$allocator@UWeaponInfo@@@2@@std@@YAPAUWeaponInfo@@V?$_Vector_const_iterator@V?$_Vector_val@UWeaponInfo@@V?$allocator@UWeaponInfo@@@std@@@std@@@0@0PAU1@AAV?$allocator@UWeaponInfo@@@0@U_Nonscalar_ptr_iterator_tag@0@@Z ; std::_Uninit_copy<std::_Vector_const_iterator<std::_Vector_val<WeaponInfo,std::allocator<WeaponInfo> > >,WeaponInfo *,std::allocator<WeaponInfo> >
  00018	83 c4 14	 add	 esp, 20			; 00000014H

; 415  : 	}

  0001b	c9		 leave
  0001c	c3		 ret	 0
??$_Uninitialized_copy@V?$_Vector_const_iterator@V?$_Vector_val@UWeaponInfo@@V?$allocator@UWeaponInfo@@@std@@@std@@@std@@PAUWeaponInfo@@V?$allocator@UWeaponInfo@@@2@@std@@YAPAUWeaponInfo@@V?$_Vector_const_iterator@V?$_Vector_val@UWeaponInfo@@V?$allocator@UWeaponInfo@@@std@@@std@@@0@0PAU1@AAV?$allocator@UWeaponInfo@@@0@@Z ENDP ; std::_Uninitialized_copy<std::_Vector_const_iterator<std::_Vector_val<WeaponInfo,std::allocator<WeaponInfo> > >,WeaponInfo *,std::allocator<WeaponInfo> >
_TEXT	ENDS
PUBLIC	?_Destroy@?$vector@UForceInfo@@V?$allocator@UForceInfo@@@std@@@std@@IAEXPAUForceInfo@@0@Z ; std::vector<ForceInfo,std::allocator<ForceInfo> >::_Destroy
; Function compile flags: /Ogsp
; File c:\program files (x86)\microsoft visual studio 10.0\vc\include\vector
;	COMDAT ?_Destroy@?$vector@UForceInfo@@V?$allocator@UForceInfo@@@std@@@std@@IAEXPAUForceInfo@@0@Z
_TEXT	SEGMENT
__First$ = 8						; size = 4
__Last$ = 12						; size = 4
?_Destroy@?$vector@UForceInfo@@V?$allocator@UForceInfo@@@std@@@std@@IAEXPAUForceInfo@@0@Z PROC ; std::vector<ForceInfo,std::allocator<ForceInfo> >::_Destroy, COMDAT
; _this$ = ecx

; 1270 : 		_Destroy_range(_First, _Last, this->_Alval);
; 1271 : 		}

  00000	c2 08 00	 ret	 8
?_Destroy@?$vector@UForceInfo@@V?$allocator@UForceInfo@@@std@@@std@@IAEXPAUForceInfo@@0@Z ENDP ; std::vector<ForceInfo,std::allocator<ForceInfo> >::_Destroy
_TEXT	ENDS
PUBLIC	??$_Destroy_range@V?$allocator@UWeaponInfo@@@std@@@std@@YAXPAUWeaponInfo@@0AAV?$allocator@UWeaponInfo@@@0@@Z ; std::_Destroy_range<std::allocator<WeaponInfo> >
; Function compile flags: /Ogsp
; File c:\program files (x86)\microsoft visual studio 10.0\vc\include\xmemory
;	COMDAT ??$_Destroy_range@V?$allocator@UWeaponInfo@@@std@@@std@@YAXPAUWeaponInfo@@0AAV?$allocator@UWeaponInfo@@@0@@Z
_TEXT	SEGMENT
__First$ = 8						; size = 4
__Last$ = 12						; size = 4
__Al$ = 16						; size = 4
??$_Destroy_range@V?$allocator@UWeaponInfo@@@std@@@std@@YAXPAUWeaponInfo@@0AAV?$allocator@UWeaponInfo@@@0@@Z PROC ; std::_Destroy_range<std::allocator<WeaponInfo> >, COMDAT

; 87   : 	{	// destroy [_First, _Last)

  00000	55		 push	 ebp
  00001	8b ec		 mov	 ebp, esp
  00003	56		 push	 esi

; 88   : 	_Destroy_range(_First, _Last, _Al, _Ptr_cat(_First, _Last));

  00004	8b 75 08	 mov	 esi, DWORD PTR __First$[ebp]
  00007	eb 0c		 jmp	 SHORT $LN24@Destroy_ra@2
$LL7@Destroy_ra@2:
  00009	8d 4e 08	 lea	 ecx, DWORD PTR [esi+8]
  0000c	ff 15 00 00 00
	00		 call	 DWORD PTR __imp_??1ioHashString@@QAE@XZ
  00012	83 c6 28	 add	 esi, 40			; 00000028H
$LN24@Destroy_ra@2:
  00015	3b 75 0c	 cmp	 esi, DWORD PTR __Last$[ebp]
  00018	75 ef		 jne	 SHORT $LL7@Destroy_ra@2
  0001a	5e		 pop	 esi

; 89   : 	}

  0001b	5d		 pop	 ebp
  0001c	c3		 ret	 0
??$_Destroy_range@V?$allocator@UWeaponInfo@@@std@@@std@@YAXPAUWeaponInfo@@0AAV?$allocator@UWeaponInfo@@@0@@Z ENDP ; std::_Destroy_range<std::allocator<WeaponInfo> >
_TEXT	ENDS
PUBLIC	?erase@?$vector@UForceInfo@@V?$allocator@UForceInfo@@@std@@@std@@QAE?AV?$_Vector_iterator@V?$_Vector_val@UForceInfo@@V?$allocator@UForceInfo@@@std@@@std@@@2@V?$_Vector_const_iterator@V?$_Vector_val@UForceInfo@@V?$allocator@UForceInfo@@@std@@@std@@@2@0@Z ; std::vector<ForceInfo,std::allocator<ForceInfo> >::erase
; Function compile flags: /Ogsp
; File c:\program files (x86)\microsoft visual studio 10.0\vc\include\vector
;	COMDAT ?erase@?$vector@UForceInfo@@V?$allocator@UForceInfo@@@std@@@std@@QAE?AV?$_Vector_iterator@V?$_Vector_val@UForceInfo@@V?$allocator@UForceInfo@@@std@@@std@@@2@V?$_Vector_const_iterator@V?$_Vector_val@UForceInfo@@V?$allocator@UForceInfo@@@std@@@std@@@2@0@Z
_TEXT	SEGMENT
___$ReturnUdt$ = 8					; size = 4
__First_arg$ = 12					; size = 4
__Cat$553407 = 16					; size = 1
__Last_arg$ = 16					; size = 4
?erase@?$vector@UForceInfo@@V?$allocator@UForceInfo@@@std@@@std@@QAE?AV?$_Vector_iterator@V?$_Vector_val@UForceInfo@@V?$allocator@UForceInfo@@@std@@@std@@@2@V?$_Vector_const_iterator@V?$_Vector_val@UForceInfo@@V?$allocator@UForceInfo@@@std@@@std@@@2@0@Z PROC ; std::vector<ForceInfo,std::allocator<ForceInfo> >::erase, COMDAT
; _this$ = ecx

; 1190 : 		{	// erase [_First, _Last)

  00000	55		 push	 ebp
  00001	8b ec		 mov	 ebp, esp

; 1191 : 		iterator _First = _Make_iter(_First_arg);

  00003	8b 45 0c	 mov	 eax, DWORD PTR __First_arg$[ebp]
  00006	56		 push	 esi
  00007	57		 push	 edi
  00008	8b 7d 08	 mov	 edi, DWORD PTR ___$ReturnUdt$[ebp]
  0000b	8b f1		 mov	 esi, ecx
  0000d	89 07		 mov	 DWORD PTR [edi], eax

; 1192 : 		iterator _Last = _Make_iter(_Last_arg);
; 1193 : 
; 1194 : 		if (_First != _Last)

  0000f	3b 45 10	 cmp	 eax, DWORD PTR __Last_arg$[ebp]
  00012	74 16		 je	 SHORT $LN1@erase

; 1195 : 			{	// worth doing, copy down over hole
; 1196 :  #if _ITERATOR_DEBUG_LEVEL == 2
; 1197 : 			if (_Last < _First || _VICONT(_First) != this
; 1198 : 				|| _VIPTR(_First) < this->_Myfirst
; 1199 : 				|| this->_Mylast < _VIPTR(_Last))
; 1200 : 				_DEBUG_ERROR("vector erase iterator outside range");
; 1201 : 			pointer _Ptr = _Move(_VIPTR(_Last), this->_Mylast,
; 1202 : 				_VIPTR(_First));
; 1203 : 			_Orphan_range(_VIPTR(_First), this->_Mylast);
; 1204 : 
; 1205 :  #else /* _ITERATOR_DEBUG_LEVEL == 2 */
; 1206 : 			pointer _Ptr = _Move(_VIPTR(_Last), this->_Mylast,
; 1207 : 				_VIPTR(_First));

  00014	ff 75 10	 push	 DWORD PTR __Cat$553407[ebp]
  00017	8b 4e 04	 mov	 ecx, DWORD PTR [esi+4]
  0001a	50		 push	 eax
  0001b	51		 push	 ecx
  0001c	ff 75 10	 push	 DWORD PTR __Last_arg$[ebp]
  0001f	e8 00 00 00 00	 call	 ??$_Move@PAUForceInfo@@PAU1@@std@@YAPAUForceInfo@@PAU1@00U_Nonscalar_ptr_iterator_tag@0@@Z ; std::_Move<ForceInfo *,ForceInfo *>
  00024	83 c4 10	 add	 esp, 16			; 00000010H

; 1208 :  #endif /* _ITERATOR_DEBUG_LEVEL == 2 */
; 1209 : 
; 1210 : 			_Destroy(_Ptr, this->_Mylast);
; 1211 : 			this->_Mylast = _Ptr;

  00027	89 46 04	 mov	 DWORD PTR [esi+4], eax
$LN1@erase:

; 1212 : 			}
; 1213 : 		return (_First);

  0002a	8b c7		 mov	 eax, edi
  0002c	5f		 pop	 edi
  0002d	5e		 pop	 esi

; 1214 : 		}

  0002e	5d		 pop	 ebp
  0002f	c2 0c 00	 ret	 12			; 0000000cH
?erase@?$vector@UForceInfo@@V?$allocator@UForceInfo@@@std@@@std@@QAE?AV?$_Vector_iterator@V?$_Vector_val@UForceInfo@@V?$allocator@UForceInfo@@@std@@@std@@@2@V?$_Vector_const_iterator@V?$_Vector_val@UForceInfo@@V?$allocator@UForceInfo@@@std@@@std@@@2@0@Z ENDP ; std::vector<ForceInfo,std::allocator<ForceInfo> >::erase
_TEXT	ENDS
PUBLIC	??$_Ucopy@PAUWeaponInfo@@@?$vector@UWeaponInfo@@V?$allocator@UWeaponInfo@@@std@@@std@@IAEPAUWeaponInfo@@PAU2@00@Z ; std::vector<WeaponInfo,std::allocator<WeaponInfo> >::_Ucopy<WeaponInfo *>
; Function compile flags: /Ogsp
;	COMDAT ??$_Ucopy@PAUWeaponInfo@@@?$vector@UWeaponInfo@@V?$allocator@UWeaponInfo@@@std@@@std@@IAEPAUWeaponInfo@@PAU2@00@Z
_TEXT	SEGMENT
__First$ = 8						; size = 4
__Last$ = 12						; size = 4
__Cat$553497 = 16					; size = 1
__Ptr$ = 16						; size = 4
??$_Ucopy@PAUWeaponInfo@@@?$vector@UWeaponInfo@@V?$allocator@UWeaponInfo@@@std@@@std@@IAEPAUWeaponInfo@@PAU2@00@Z PROC ; std::vector<WeaponInfo,std::allocator<WeaponInfo> >::_Ucopy<WeaponInfo *>, COMDAT
; _this$ = ecx

; 1315 : 		pointer _Ucopy(_Iter _First, _Iter _Last, pointer _Ptr)

  00000	55		 push	 ebp
  00001	8b ec		 mov	 ebp, esp

; 1316 : 		{	// copy initializing [_First, _Last), using allocator
; 1317 : 		return (_Uninitialized_copy(_First, _Last,
; 1318 : 			_Ptr, this->_Alval));

  00003	ff 75 10	 push	 DWORD PTR __Cat$553497[ebp]
  00006	83 c1 0c	 add	 ecx, 12			; 0000000cH
  00009	51		 push	 ecx
  0000a	ff 75 10	 push	 DWORD PTR __Ptr$[ebp]
  0000d	ff 75 0c	 push	 DWORD PTR __Last$[ebp]
  00010	ff 75 08	 push	 DWORD PTR __First$[ebp]
  00013	e8 00 00 00 00	 call	 ??$_Uninit_copy@PAUWeaponInfo@@PAU1@V?$allocator@UWeaponInfo@@@std@@@std@@YAPAUWeaponInfo@@PAU1@00AAV?$allocator@UWeaponInfo@@@0@U_Nonscalar_ptr_iterator_tag@0@@Z ; std::_Uninit_copy<WeaponInfo *,WeaponInfo *,std::allocator<WeaponInfo> >
  00018	83 c4 14	 add	 esp, 20			; 00000014H

; 1319 : 		}

  0001b	5d		 pop	 ebp
  0001c	c2 0c 00	 ret	 12			; 0000000cH
??$_Ucopy@PAUWeaponInfo@@@?$vector@UWeaponInfo@@V?$allocator@UWeaponInfo@@@std@@@std@@IAEPAUWeaponInfo@@PAU2@00@Z ENDP ; std::vector<WeaponInfo,std::allocator<WeaponInfo> >::_Ucopy<WeaponInfo *>
_TEXT	ENDS
PUBLIC	??$_Ucopy@V?$_Vector_const_iterator@V?$_Vector_val@UWeaponInfo@@V?$allocator@UWeaponInfo@@@std@@@std@@@std@@@?$vector@UWeaponInfo@@V?$allocator@UWeaponInfo@@@std@@@std@@IAEPAUWeaponInfo@@V?$_Vector_const_iterator@V?$_Vector_val@UWeaponInfo@@V?$allocator@UWeaponInfo@@@std@@@std@@@1@0PAU2@@Z ; std::vector<WeaponInfo,std::allocator<WeaponInfo> >::_Ucopy<std::_Vector_const_iterator<std::_Vector_val<WeaponInfo,std::allocator<WeaponInfo> > > >
; Function compile flags: /Ogsp
;	COMDAT ??$_Ucopy@V?$_Vector_const_iterator@V?$_Vector_val@UWeaponInfo@@V?$allocator@UWeaponInfo@@@std@@@std@@@std@@@?$vector@UWeaponInfo@@V?$allocator@UWeaponInfo@@@std@@@std@@IAEPAUWeaponInfo@@V?$_Vector_const_iterator@V?$_Vector_val@UWeaponInfo@@V?$allocator@UWeaponInfo@@@std@@@std@@@1@0PAU2@@Z
_TEXT	SEGMENT
__First$ = 8						; size = 4
__Last$ = 12						; size = 4
__Cat$553511 = 16					; size = 1
__Ptr$ = 16						; size = 4
??$_Ucopy@V?$_Vector_const_iterator@V?$_Vector_val@UWeaponInfo@@V?$allocator@UWeaponInfo@@@std@@@std@@@std@@@?$vector@UWeaponInfo@@V?$allocator@UWeaponInfo@@@std@@@std@@IAEPAUWeaponInfo@@V?$_Vector_const_iterator@V?$_Vector_val@UWeaponInfo@@V?$allocator@UWeaponInfo@@@std@@@std@@@1@0PAU2@@Z PROC ; std::vector<WeaponInfo,std::allocator<WeaponInfo> >::_Ucopy<std::_Vector_const_iterator<std::_Vector_val<WeaponInfo,std::allocator<WeaponInfo> > > >, COMDAT
; _this$ = ecx

; 1315 : 		pointer _Ucopy(_Iter _First, _Iter _Last, pointer _Ptr)

  00000	55		 push	 ebp
  00001	8b ec		 mov	 ebp, esp

; 1316 : 		{	// copy initializing [_First, _Last), using allocator
; 1317 : 		return (_Uninitialized_copy(_First, _Last,
; 1318 : 			_Ptr, this->_Alval));

  00003	ff 75 10	 push	 DWORD PTR __Cat$553511[ebp]
  00006	83 c1 0c	 add	 ecx, 12			; 0000000cH
  00009	51		 push	 ecx
  0000a	ff 75 10	 push	 DWORD PTR __Ptr$[ebp]
  0000d	ff 75 0c	 push	 DWORD PTR __Last$[ebp]
  00010	ff 75 08	 push	 DWORD PTR __First$[ebp]
  00013	e8 00 00 00 00	 call	 ??$_Uninit_copy@V?$_Vector_const_iterator@V?$_Vector_val@UWeaponInfo@@V?$allocator@UWeaponInfo@@@std@@@std@@@std@@PAUWeaponInfo@@V?$allocator@UWeaponInfo@@@2@@std@@YAPAUWeaponInfo@@V?$_Vector_const_iterator@V?$_Vector_val@UWeaponInfo@@V?$allocator@UWeaponInfo@@@std@@@std@@@0@0PAU1@AAV?$allocator@UWeaponInfo@@@0@U_Nonscalar_ptr_iterator_tag@0@@Z ; std::_Uninit_copy<std::_Vector_const_iterator<std::_Vector_val<WeaponInfo,std::allocator<WeaponInfo> > >,WeaponInfo *,std::allocator<WeaponInfo> >
  00018	83 c4 14	 add	 esp, 20			; 00000014H

; 1319 : 		}

  0001b	5d		 pop	 ebp
  0001c	c2 0c 00	 ret	 12			; 0000000cH
??$_Ucopy@V?$_Vector_const_iterator@V?$_Vector_val@UWeaponInfo@@V?$allocator@UWeaponInfo@@@std@@@std@@@std@@@?$vector@UWeaponInfo@@V?$allocator@UWeaponInfo@@@std@@@std@@IAEPAUWeaponInfo@@V?$_Vector_const_iterator@V?$_Vector_val@UWeaponInfo@@V?$allocator@UWeaponInfo@@@std@@@std@@@1@0PAU2@@Z ENDP ; std::vector<WeaponInfo,std::allocator<WeaponInfo> >::_Ucopy<std::_Vector_const_iterator<std::_Vector_val<WeaponInfo,std::allocator<WeaponInfo> > > >
_TEXT	ENDS
PUBLIC	?_Tidy@?$vector@UForceInfo@@V?$allocator@UForceInfo@@@std@@@std@@IAEXXZ ; std::vector<ForceInfo,std::allocator<ForceInfo> >::_Tidy
EXTRN	__imp_?_Orphan_all@_Container_base0@std@@QAEXXZ:PROC
; Function compile flags: /Ogsp
;	COMDAT ?_Tidy@?$vector@UForceInfo@@V?$allocator@UForceInfo@@@std@@@std@@IAEXXZ
_TEXT	SEGMENT
?_Tidy@?$vector@UForceInfo@@V?$allocator@UForceInfo@@@std@@@std@@IAEXXZ PROC ; std::vector<ForceInfo,std::allocator<ForceInfo> >::_Tidy, COMDAT
; _this$ = ecx

; 1301 : 		{	// free all storage

  00000	56		 push	 esi
  00001	8b f1		 mov	 esi, ecx

; 1302 : 		if (this->_Myfirst != 0)

  00003	83 3e 00	 cmp	 DWORD PTR [esi], 0
  00006	74 0e		 je	 SHORT $LN21@Tidy

; 1303 : 			{	// something to free, destroy and deallocate it
; 1304 : 			this->_Orphan_all();

  00008	ff 15 00 00 00
	00		 call	 DWORD PTR __imp_?_Orphan_all@_Container_base0@std@@QAEXXZ

; 1305 : 			_Destroy(this->_Myfirst, this->_Mylast);
; 1306 : 			this->_Alval.deallocate(this->_Myfirst,
; 1307 : 				this->_Myend - this->_Myfirst);

  0000e	ff 36		 push	 DWORD PTR [esi]
  00010	e8 00 00 00 00	 call	 ??3@YAXPAX@Z		; operator delete
  00015	59		 pop	 ecx
$LN21@Tidy:

; 1308 : 			}
; 1309 : 		this->_Myfirst = 0;

  00016	83 26 00	 and	 DWORD PTR [esi], 0

; 1310 : 		this->_Mylast = 0;

  00019	83 66 04 00	 and	 DWORD PTR [esi+4], 0

; 1311 : 		this->_Myend = 0;

  0001d	83 66 08 00	 and	 DWORD PTR [esi+8], 0
  00021	5e		 pop	 esi

; 1312 : 		}

  00022	c3		 ret	 0
?_Tidy@?$vector@UForceInfo@@V?$allocator@UForceInfo@@@std@@@std@@IAEXXZ ENDP ; std::vector<ForceInfo,std::allocator<ForceInfo> >::_Tidy
_TEXT	ENDS
PUBLIC	?_Destroy@?$vector@UWeaponInfo@@V?$allocator@UWeaponInfo@@@std@@@std@@IAEXPAUWeaponInfo@@0@Z ; std::vector<WeaponInfo,std::allocator<WeaponInfo> >::_Destroy
; Function compile flags: /Ogsp
;	COMDAT ?_Destroy@?$vector@UWeaponInfo@@V?$allocator@UWeaponInfo@@@std@@@std@@IAEXPAUWeaponInfo@@0@Z
_TEXT	SEGMENT
__First$ = 8						; size = 4
__Last$ = 12						; size = 4
?_Destroy@?$vector@UWeaponInfo@@V?$allocator@UWeaponInfo@@@std@@@std@@IAEXPAUWeaponInfo@@0@Z PROC ; std::vector<WeaponInfo,std::allocator<WeaponInfo> >::_Destroy, COMDAT
; _this$ = ecx

; 1269 : 		{	// destroy [_First, _Last) using allocator

  00000	55		 push	 ebp
  00001	8b ec		 mov	 ebp, esp

; 1270 : 		_Destroy_range(_First, _Last, this->_Alval);

  00003	83 c1 0c	 add	 ecx, 12			; 0000000cH
  00006	51		 push	 ecx
  00007	ff 75 0c	 push	 DWORD PTR __Last$[ebp]
  0000a	ff 75 08	 push	 DWORD PTR __First$[ebp]
  0000d	e8 00 00 00 00	 call	 ??$_Destroy_range@V?$allocator@UWeaponInfo@@@std@@@std@@YAXPAUWeaponInfo@@0AAV?$allocator@UWeaponInfo@@@0@@Z ; std::_Destroy_range<std::allocator<WeaponInfo> >
  00012	83 c4 0c	 add	 esp, 12			; 0000000cH

; 1271 : 		}

  00015	5d		 pop	 ebp
  00016	c2 08 00	 ret	 8
?_Destroy@?$vector@UWeaponInfo@@V?$allocator@UWeaponInfo@@@std@@@std@@IAEXPAUWeaponInfo@@0@Z ENDP ; std::vector<WeaponInfo,std::allocator<WeaponInfo> >::_Destroy
_TEXT	ENDS
PUBLIC	?clear@?$vector@UForceInfo@@V?$allocator@UForceInfo@@@std@@@std@@QAEXXZ ; std::vector<ForceInfo,std::allocator<ForceInfo> >::clear
; Function compile flags: /Ogsp
;	COMDAT ?clear@?$vector@UForceInfo@@V?$allocator@UForceInfo@@@std@@@std@@QAEXXZ
_TEXT	SEGMENT
$T553604 = -4						; size = 4
?clear@?$vector@UForceInfo@@V?$allocator@UForceInfo@@@std@@@std@@QAEXXZ PROC ; std::vector<ForceInfo,std::allocator<ForceInfo> >::clear, COMDAT
; _this$ = ecx

; 1217 : 		{	// erase all

  00000	55		 push	 ebp
  00001	8b ec		 mov	 ebp, esp
  00003	51		 push	 ecx

; 1218 : 		erase(begin(), end());

  00004	8b 41 04	 mov	 eax, DWORD PTR [ecx+4]
  00007	8b 11		 mov	 edx, DWORD PTR [ecx]
  00009	50		 push	 eax
  0000a	52		 push	 edx
  0000b	8d 45 fc	 lea	 eax, DWORD PTR $T553604[ebp]
  0000e	50		 push	 eax
  0000f	e8 00 00 00 00	 call	 ?erase@?$vector@UForceInfo@@V?$allocator@UForceInfo@@@std@@@std@@QAE?AV?$_Vector_iterator@V?$_Vector_val@UForceInfo@@V?$allocator@UForceInfo@@@std@@@std@@@2@V?$_Vector_const_iterator@V?$_Vector_val@UForceInfo@@V?$allocator@UForceInfo@@@std@@@std@@@2@0@Z ; std::vector<ForceInfo,std::allocator<ForceInfo> >::erase

; 1219 : 		}

  00014	c9		 leave
  00015	c3		 ret	 0
?clear@?$vector@UForceInfo@@V?$allocator@UForceInfo@@@std@@@std@@QAEXXZ ENDP ; std::vector<ForceInfo,std::allocator<ForceInfo> >::clear
_TEXT	ENDS
PUBLIC	?erase@?$vector@UWeaponInfo@@V?$allocator@UWeaponInfo@@@std@@@std@@QAE?AV?$_Vector_iterator@V?$_Vector_val@UWeaponInfo@@V?$allocator@UWeaponInfo@@@std@@@std@@@2@V?$_Vector_const_iterator@V?$_Vector_val@UWeaponInfo@@V?$allocator@UWeaponInfo@@@std@@@std@@@2@0@Z ; std::vector<WeaponInfo,std::allocator<WeaponInfo> >::erase
; Function compile flags: /Ogsp
;	COMDAT ?erase@?$vector@UWeaponInfo@@V?$allocator@UWeaponInfo@@@std@@@std@@QAE?AV?$_Vector_iterator@V?$_Vector_val@UWeaponInfo@@V?$allocator@UWeaponInfo@@@std@@@std@@@2@V?$_Vector_const_iterator@V?$_Vector_val@UWeaponInfo@@V?$allocator@UWeaponInfo@@@std@@@std@@@2@0@Z
_TEXT	SEGMENT
___$ReturnUdt$ = 8					; size = 4
__First_arg$ = 12					; size = 4
__Cat$553731 = 16					; size = 1
__Last_arg$ = 16					; size = 4
?erase@?$vector@UWeaponInfo@@V?$allocator@UWeaponInfo@@@std@@@std@@QAE?AV?$_Vector_iterator@V?$_Vector_val@UWeaponInfo@@V?$allocator@UWeaponInfo@@@std@@@std@@@2@V?$_Vector_const_iterator@V?$_Vector_val@UWeaponInfo@@V?$allocator@UWeaponInfo@@@std@@@std@@@2@0@Z PROC ; std::vector<WeaponInfo,std::allocator<WeaponInfo> >::erase, COMDAT
; _this$ = ecx

; 1190 : 		{	// erase [_First, _Last)

  00000	55		 push	 ebp
  00001	8b ec		 mov	 ebp, esp

; 1191 : 		iterator _First = _Make_iter(_First_arg);

  00003	8b 45 0c	 mov	 eax, DWORD PTR __First_arg$[ebp]
  00006	53		 push	 ebx
  00007	8b 5d 08	 mov	 ebx, DWORD PTR ___$ReturnUdt$[ebp]
  0000a	56		 push	 esi
  0000b	8b f1		 mov	 esi, ecx
  0000d	89 03		 mov	 DWORD PTR [ebx], eax

; 1192 : 		iterator _Last = _Make_iter(_Last_arg);
; 1193 : 
; 1194 : 		if (_First != _Last)

  0000f	3b 45 10	 cmp	 eax, DWORD PTR __Last_arg$[ebp]
  00012	74 27		 je	 SHORT $LN1@erase@2

; 1195 : 			{	// worth doing, copy down over hole
; 1196 :  #if _ITERATOR_DEBUG_LEVEL == 2
; 1197 : 			if (_Last < _First || _VICONT(_First) != this
; 1198 : 				|| _VIPTR(_First) < this->_Myfirst
; 1199 : 				|| this->_Mylast < _VIPTR(_Last))
; 1200 : 				_DEBUG_ERROR("vector erase iterator outside range");
; 1201 : 			pointer _Ptr = _Move(_VIPTR(_Last), this->_Mylast,
; 1202 : 				_VIPTR(_First));
; 1203 : 			_Orphan_range(_VIPTR(_First), this->_Mylast);
; 1204 : 
; 1205 :  #else /* _ITERATOR_DEBUG_LEVEL == 2 */
; 1206 : 			pointer _Ptr = _Move(_VIPTR(_Last), this->_Mylast,
; 1207 : 				_VIPTR(_First));

  00014	8b 4e 04	 mov	 ecx, DWORD PTR [esi+4]
  00017	57		 push	 edi
  00018	ff 75 10	 push	 DWORD PTR __Cat$553731[ebp]
  0001b	50		 push	 eax
  0001c	51		 push	 ecx
  0001d	ff 75 10	 push	 DWORD PTR __Last_arg$[ebp]
  00020	e8 00 00 00 00	 call	 ??$_Move@PAUWeaponInfo@@PAU1@@std@@YAPAUWeaponInfo@@PAU1@00U_Nonscalar_ptr_iterator_tag@0@@Z ; std::_Move<WeaponInfo *,WeaponInfo *>
  00025	8b f8		 mov	 edi, eax

; 1208 :  #endif /* _ITERATOR_DEBUG_LEVEL == 2 */
; 1209 : 
; 1210 : 			_Destroy(_Ptr, this->_Mylast);

  00027	8d 46 0c	 lea	 eax, DWORD PTR [esi+12]
  0002a	50		 push	 eax
  0002b	ff 76 04	 push	 DWORD PTR [esi+4]
  0002e	57		 push	 edi
  0002f	e8 00 00 00 00	 call	 ??$_Destroy_range@V?$allocator@UWeaponInfo@@@std@@@std@@YAXPAUWeaponInfo@@0AAV?$allocator@UWeaponInfo@@@0@@Z ; std::_Destroy_range<std::allocator<WeaponInfo> >
  00034	83 c4 1c	 add	 esp, 28			; 0000001cH

; 1211 : 			this->_Mylast = _Ptr;

  00037	89 7e 04	 mov	 DWORD PTR [esi+4], edi
  0003a	5f		 pop	 edi
$LN1@erase@2:

; 1212 : 			}
; 1213 : 		return (_First);

  0003b	5e		 pop	 esi
  0003c	8b c3		 mov	 eax, ebx
  0003e	5b		 pop	 ebx

; 1214 : 		}

  0003f	5d		 pop	 ebp
  00040	c2 0c 00	 ret	 12			; 0000000cH
?erase@?$vector@UWeaponInfo@@V?$allocator@UWeaponInfo@@@std@@@std@@QAE?AV?$_Vector_iterator@V?$_Vector_val@UWeaponInfo@@V?$allocator@UWeaponInfo@@@std@@@std@@@2@V?$_Vector_const_iterator@V?$_Vector_val@UWeaponInfo@@V?$allocator@UWeaponInfo@@@std@@@std@@@2@0@Z ENDP ; std::vector<WeaponInfo,std::allocator<WeaponInfo> >::erase
_TEXT	ENDS
PUBLIC	??0?$vector@UForceInfo@@V?$allocator@UForceInfo@@@std@@@std@@QAE@ABV01@@Z ; std::vector<ForceInfo,std::allocator<ForceInfo> >::vector<ForceInfo,std::allocator<ForceInfo> >
;	COMDAT xdata$x
; File c:\program files (x86)\microsoft visual studio 10.0\vc\include\xutility
xdata$x	SEGMENT
__catchsym$??0?$vector@UForceInfo@@V?$allocator@UForceInfo@@@std@@@std@@QAE@ABV01@@Z$2 DD 040H
	DD	00H
	DD	00H
	DD	FLAT:__catch$??0?$vector@UForceInfo@@V?$allocator@UForceInfo@@@std@@@std@@QAE@ABV01@@Z$0
__unwindtable$??0?$vector@UForceInfo@@V?$allocator@UForceInfo@@@std@@@std@@QAE@ABV01@@Z DD 0ffffffffH
	DD	00H
	DD	0ffffffffH
	DD	00H
__tryblocktable$??0?$vector@UForceInfo@@V?$allocator@UForceInfo@@@std@@@std@@QAE@ABV01@@Z DD 00H
	DD	00H
	DD	01H
	DD	01H
	DD	FLAT:__catchsym$??0?$vector@UForceInfo@@V?$allocator@UForceInfo@@@std@@@std@@QAE@ABV01@@Z$2
__ehfuncinfo$??0?$vector@UForceInfo@@V?$allocator@UForceInfo@@@std@@@std@@QAE@ABV01@@Z DD 019930522H
	DD	02H
	DD	FLAT:__unwindtable$??0?$vector@UForceInfo@@V?$allocator@UForceInfo@@@std@@@std@@QAE@ABV01@@Z
	DD	01H
	DD	FLAT:__tryblocktable$??0?$vector@UForceInfo@@V?$allocator@UForceInfo@@@std@@@std@@QAE@ABV01@@Z
	DD	2 DUP(00H)
	DD	00H
	DD	01H
; Function compile flags: /Ogsp
; File c:\program files (x86)\microsoft visual studio 10.0\vc\include\vector
xdata$x	ENDS
;	COMDAT ??0?$vector@UForceInfo@@V?$allocator@UForceInfo@@@std@@@std@@QAE@ABV01@@Z
_TEXT	SEGMENT
_this$ = -20						; size = 4
__$EHRec$ = -16						; size = 16
__Cat$553818 = 8					; size = 1
__Right$ = 8						; size = 4
??0?$vector@UForceInfo@@V?$allocator@UForceInfo@@@std@@@std@@QAE@ABV01@@Z PROC ; std::vector<ForceInfo,std::allocator<ForceInfo> >::vector<ForceInfo,std::allocator<ForceInfo> >, COMDAT
; _this$ = ecx

; 535  : 		{	// construct by copying _Right

  00000	6a 08		 push	 8
  00002	b8 00 00 00 00	 mov	 eax, __ehhandler$??0?$vector@UForceInfo@@V?$allocator@UForceInfo@@@std@@@std@@QAE@ABV01@@Z
  00007	e8 00 00 00 00	 call	 __EH_prolog3_catch
  0000c	8b f1		 mov	 esi, ecx
  0000e	89 75 ec	 mov	 DWORD PTR _this$[ebp], esi

; 536  : 		if (_Buy(_Right.size()))

  00011	8b 7d 08	 mov	 edi, DWORD PTR __Right$[ebp]
  00014	33 db		 xor	 ebx, ebx
  00016	89 1e		 mov	 DWORD PTR [esi], ebx
  00018	89 5e 04	 mov	 DWORD PTR [esi+4], ebx
  0001b	89 5e 08	 mov	 DWORD PTR [esi+8], ebx
  0001e	8b 47 04	 mov	 eax, DWORD PTR [edi+4]
  00021	2b 07		 sub	 eax, DWORD PTR [edi]
  00023	6a 0c		 push	 12			; 0000000cH
  00025	59		 pop	 ecx
  00026	99		 cdq
  00027	f7 f9		 idiv	 ecx
  00029	8b ce		 mov	 ecx, esi
  0002b	50		 push	 eax
  0002c	e8 00 00 00 00	 call	 ?_Buy@?$vector@UForceInfo@@V?$allocator@UForceInfo@@@std@@@std@@IAE_NI@Z ; std::vector<ForceInfo,std::allocator<ForceInfo> >::_Buy
  00031	84 c0		 test	 al, al
  00033	74 1f		 je	 SHORT $LN7@vector

; 537  : 			_TRY_BEGIN
; 538  : 			this->_Mylast = _Ucopy(_Right.begin(), _Right.end(),
; 539  : 				this->_Myfirst);

  00035	ff 75 08	 push	 DWORD PTR __Cat$553818[ebp]
  00038	8b 0e		 mov	 ecx, DWORD PTR [esi]
  0003a	8b 47 04	 mov	 eax, DWORD PTR [edi+4]
  0003d	8b 3f		 mov	 edi, DWORD PTR [edi]
  0003f	8d 56 0c	 lea	 edx, DWORD PTR [esi+12]
  00042	52		 push	 edx
  00043	51		 push	 ecx
  00044	50		 push	 eax
  00045	57		 push	 edi
  00046	89 5d fc	 mov	 DWORD PTR __$EHRec$[ebp+12], ebx
  00049	e8 00 00 00 00	 call	 ??$_Uninit_copy@V?$_Vector_const_iterator@V?$_Vector_val@UForceInfo@@V?$allocator@UForceInfo@@@std@@@std@@@std@@PAUForceInfo@@V?$allocator@UForceInfo@@@2@@std@@YAPAUForceInfo@@V?$_Vector_const_iterator@V?$_Vector_val@UForceInfo@@V?$allocator@UForceInfo@@@std@@@std@@@0@0PAU1@AAV?$allocator@UForceInfo@@@0@U_Nonscalar_ptr_iterator_tag@0@@Z ; std::_Uninit_copy<std::_Vector_const_iterator<std::_Vector_val<ForceInfo,std::allocator<ForceInfo> > >,ForceInfo *,std::allocator<ForceInfo> >
  0004e	83 c4 14	 add	 esp, 20			; 00000014H
  00051	89 46 04	 mov	 DWORD PTR [esi+4], eax
$LN7@vector:

; 543  : 			_CATCH_END
; 544  : 		}

  00054	8b c6		 mov	 eax, esi
  00056	e8 00 00 00 00	 call	 __EH_epilog3
  0005b	c2 04 00	 ret	 4
__catch$??0?$vector@UForceInfo@@V?$allocator@UForceInfo@@@std@@@std@@QAE@ABV01@@Z$0:

; 540  : 			_CATCH_ALL
; 541  : 			_Tidy();

  0005e	8b 4d ec	 mov	 ecx, DWORD PTR _this$[ebp]
  00061	e8 00 00 00 00	 call	 ?_Tidy@?$vector@UForceInfo@@V?$allocator@UForceInfo@@@std@@@std@@IAEXXZ ; std::vector<ForceInfo,std::allocator<ForceInfo> >::_Tidy

; 542  : 			_RERAISE;

  00066	33 db		 xor	 ebx, ebx
  00068	53		 push	 ebx
  00069	53		 push	 ebx
  0006a	e8 00 00 00 00	 call	 __CxxThrowException@8
$LN38@vector:
$LN37@vector:
  0006f	cc		 int	 3
_TEXT	ENDS
;	COMDAT text$x
text$x	SEGMENT
__ehhandler$??0?$vector@UForceInfo@@V?$allocator@UForceInfo@@@std@@@std@@QAE@ABV01@@Z:
  00000	8b 54 24 08	 mov	 edx, DWORD PTR [esp+8]
  00004	8d 42 0c	 lea	 eax, DWORD PTR [edx+12]
  00007	8b 4a e8	 mov	 ecx, DWORD PTR [edx-24]
  0000a	33 c8		 xor	 ecx, eax
  0000c	e8 00 00 00 00	 call	 @__security_check_cookie@4
  00011	b8 00 00 00 00	 mov	 eax, OFFSET __ehfuncinfo$??0?$vector@UForceInfo@@V?$allocator@UForceInfo@@@std@@@std@@QAE@ABV01@@Z
  00016	e9 00 00 00 00	 jmp	 ___CxxFrameHandler3
text$x	ENDS
??0?$vector@UForceInfo@@V?$allocator@UForceInfo@@@std@@@std@@QAE@ABV01@@Z ENDP ; std::vector<ForceInfo,std::allocator<ForceInfo> >::vector<ForceInfo,std::allocator<ForceInfo> >
PUBLIC	??1?$vector@UForceInfo@@V?$allocator@UForceInfo@@@std@@@std@@QAE@XZ ; std::vector<ForceInfo,std::allocator<ForceInfo> >::~vector<ForceInfo,std::allocator<ForceInfo> >
; Function compile flags: /Ogsp
;	COMDAT ??1?$vector@UForceInfo@@V?$allocator@UForceInfo@@@std@@@std@@QAE@XZ
_TEXT	SEGMENT
??1?$vector@UForceInfo@@V?$allocator@UForceInfo@@@std@@@std@@QAE@XZ PROC ; std::vector<ForceInfo,std::allocator<ForceInfo> >::~vector<ForceInfo,std::allocator<ForceInfo> >, COMDAT
; _this$ = ecx

; 705  : 		_Tidy();

  00000	e9 00 00 00 00	 jmp	 ?_Tidy@?$vector@UForceInfo@@V?$allocator@UForceInfo@@@std@@@std@@IAEXXZ ; std::vector<ForceInfo,std::allocator<ForceInfo> >::_Tidy
??1?$vector@UForceInfo@@V?$allocator@UForceInfo@@@std@@@std@@QAE@XZ ENDP ; std::vector<ForceInfo,std::allocator<ForceInfo> >::~vector<ForceInfo,std::allocator<ForceInfo> >
_TEXT	ENDS
PUBLIC	?_Tidy@?$vector@UWeaponInfo@@V?$allocator@UWeaponInfo@@@std@@@std@@IAEXXZ ; std::vector<WeaponInfo,std::allocator<WeaponInfo> >::_Tidy
; Function compile flags: /Ogsp
;	COMDAT ?_Tidy@?$vector@UWeaponInfo@@V?$allocator@UWeaponInfo@@@std@@@std@@IAEXXZ
_TEXT	SEGMENT
?_Tidy@?$vector@UWeaponInfo@@V?$allocator@UWeaponInfo@@@std@@@std@@IAEXXZ PROC ; std::vector<WeaponInfo,std::allocator<WeaponInfo> >::_Tidy, COMDAT
; _this$ = ecx

; 1301 : 		{	// free all storage

  00000	56		 push	 esi
  00001	8b f1		 mov	 esi, ecx

; 1302 : 		if (this->_Myfirst != 0)

  00003	83 3e 00	 cmp	 DWORD PTR [esi], 0
  00006	74 1e		 je	 SHORT $LN6@Tidy@2

; 1303 : 			{	// something to free, destroy and deallocate it
; 1304 : 			this->_Orphan_all();

  00008	ff 15 00 00 00
	00		 call	 DWORD PTR __imp_?_Orphan_all@_Container_base0@std@@QAEXXZ

; 1305 : 			_Destroy(this->_Myfirst, this->_Mylast);

  0000e	8d 46 0c	 lea	 eax, DWORD PTR [esi+12]
  00011	50		 push	 eax
  00012	ff 76 04	 push	 DWORD PTR [esi+4]
  00015	ff 36		 push	 DWORD PTR [esi]
  00017	e8 00 00 00 00	 call	 ??$_Destroy_range@V?$allocator@UWeaponInfo@@@std@@@std@@YAXPAUWeaponInfo@@0AAV?$allocator@UWeaponInfo@@@0@@Z ; std::_Destroy_range<std::allocator<WeaponInfo> >

; 1306 : 			this->_Alval.deallocate(this->_Myfirst,
; 1307 : 				this->_Myend - this->_Myfirst);

  0001c	ff 36		 push	 DWORD PTR [esi]
  0001e	e8 00 00 00 00	 call	 ??3@YAXPAX@Z		; operator delete
  00023	83 c4 10	 add	 esp, 16			; 00000010H
$LN6@Tidy@2:

; 1308 : 			}
; 1309 : 		this->_Myfirst = 0;

  00026	83 26 00	 and	 DWORD PTR [esi], 0

; 1310 : 		this->_Mylast = 0;

  00029	83 66 04 00	 and	 DWORD PTR [esi+4], 0

; 1311 : 		this->_Myend = 0;

  0002d	83 66 08 00	 and	 DWORD PTR [esi+8], 0
  00031	5e		 pop	 esi

; 1312 : 		}

  00032	c3		 ret	 0
?_Tidy@?$vector@UWeaponInfo@@V?$allocator@UWeaponInfo@@@std@@@std@@IAEXXZ ENDP ; std::vector<WeaponInfo,std::allocator<WeaponInfo> >::_Tidy
_TEXT	ENDS
PUBLIC	??4?$vector@UForceInfo@@V?$allocator@UForceInfo@@@std@@@std@@QAEAAV01@ABV01@@Z ; std::vector<ForceInfo,std::allocator<ForceInfo> >::operator=
; Function compile flags: /Ogsp
;	COMDAT ??4?$vector@UForceInfo@@V?$allocator@UForceInfo@@@std@@@std@@QAEAAV01@ABV01@@Z
_TEXT	SEGMENT
tv551 = 8						; size = 4
__Cat$554177 = 8					; size = 1
__Cat$554074 = 8					; size = 1
__Cat$554052 = 8					; size = 1
__Cat$553954 = 8					; size = 1
$T553921 = 8						; size = 4
__Right$ = 8						; size = 4
??4?$vector@UForceInfo@@V?$allocator@UForceInfo@@@std@@@std@@QAEAAV01@ABV01@@Z PROC ; std::vector<ForceInfo,std::allocator<ForceInfo> >::operator=, COMDAT
; _this$ = ecx

; 709  : 		{	// assign _Right

  00000	55		 push	 ebp
  00001	8b ec		 mov	 ebp, esp
  00003	56		 push	 esi
  00004	57		 push	 edi

; 710  : 		if (this != &_Right)

  00005	8b 7d 08	 mov	 edi, DWORD PTR __Right$[ebp]
  00008	8b f1		 mov	 esi, ecx
  0000a	3b f7		 cmp	 esi, edi
  0000c	0f 84 e2 00 00
	00		 je	 $LN1@operator

; 711  : 			{	// worth doing
; 712  : 			this->_Orphan_all();

  00012	53		 push	 ebx
  00013	ff 15 00 00 00
	00		 call	 DWORD PTR __imp_?_Orphan_all@_Container_base0@std@@QAEXXZ

; 713  : 
; 714  : 			if (_Right.size() == 0)

  00019	8b 5f 04	 mov	 ebx, DWORD PTR [edi+4]
  0001c	8b c3		 mov	 eax, ebx
  0001e	2b 07		 sub	 eax, DWORD PTR [edi]
  00020	6a 0c		 push	 12			; 0000000cH
  00022	99		 cdq
  00023	59		 pop	 ecx
  00024	f7 f9		 idiv	 ecx
  00026	89 45 08	 mov	 DWORD PTR tv551[ebp], eax
  00029	85 c0		 test	 eax, eax

; 715  : 				clear();	// new sequence empty, erase existing sequence

  0002b	8b 46 04	 mov	 eax, DWORD PTR [esi+4]
  0002e	75 14		 jne	 SHORT $LN8@operator
  00030	8b 0e		 mov	 ecx, DWORD PTR [esi]
  00032	50		 push	 eax
  00033	51		 push	 ecx
  00034	8d 45 08	 lea	 eax, DWORD PTR $T553921[ebp]
  00037	50		 push	 eax
  00038	8b ce		 mov	 ecx, esi
  0003a	e8 00 00 00 00	 call	 ?erase@?$vector@UForceInfo@@V?$allocator@UForceInfo@@@std@@@std@@QAE?AV?$_Vector_iterator@V?$_Vector_val@UForceInfo@@V?$allocator@UForceInfo@@@std@@@std@@@2@V?$_Vector_const_iterator@V?$_Vector_val@UForceInfo@@V?$allocator@UForceInfo@@@std@@@std@@@2@0@Z ; std::vector<ForceInfo,std::allocator<ForceInfo> >::erase

; 716  : 			else if (_Right.size() <= size())

  0003f	e9 af 00 00 00	 jmp	 $LN106@operator
$LN8@operator:
  00044	2b 06		 sub	 eax, DWORD PTR [esi]
  00046	6a 0c		 push	 12			; 0000000cH
  00048	99		 cdq
  00049	59		 pop	 ecx
  0004a	f7 f9		 idiv	 ecx
  0004c	8b c8		 mov	 ecx, eax
  0004e	39 4d 08	 cmp	 DWORD PTR tv551[ebp], ecx
  00051	77 22		 ja	 SHORT $LN6@operator

; 717  : 				{	// enough elements, copy new and destroy old
; 718  : 				pointer _Ptr = _STD _Copy_impl(_Right._Myfirst, _Right._Mylast,
; 719  : 					this->_Myfirst);	// copy new

  00053	ff 75 08	 push	 DWORD PTR __Cat$553954[ebp]
  00056	ff 36		 push	 DWORD PTR [esi]
  00058	53		 push	 ebx
  00059	ff 37		 push	 DWORD PTR [edi]
  0005b	e8 00 00 00 00	 call	 ??$_Copy_impl@PAUForceInfo@@PAU1@@std@@YAPAUForceInfo@@PAU1@00U_Nonscalar_ptr_iterator_tag@0@@Z ; std::_Copy_impl<ForceInfo *,ForceInfo *>

; 720  : 				_Destroy(_Ptr, this->_Mylast);	// destroy old
; 721  : 				this->_Mylast = this->_Myfirst + _Right.size();

  00060	8b 47 04	 mov	 eax, DWORD PTR [edi+4]
  00063	2b 07		 sub	 eax, DWORD PTR [edi]
  00065	83 c4 10	 add	 esp, 16			; 00000010H
  00068	99		 cdq
  00069	6a 0c		 push	 12			; 0000000cH
  0006b	59		 pop	 ecx
  0006c	f7 f9		 idiv	 ecx
  0006e	6b c0 0c	 imul	 eax, 12			; 0000000cH
  00071	03 06		 add	 eax, DWORD PTR [esi]

; 722  : 				}
; 723  : 			else if (_Right.size() <= capacity())

  00073	eb 7b		 jmp	 SHORT $LN107@operator
$LN6@operator:
  00075	8b 46 08	 mov	 eax, DWORD PTR [esi+8]
  00078	2b 06		 sub	 eax, DWORD PTR [esi]
  0007a	6a 0c		 push	 12			; 0000000cH
  0007c	99		 cdq
  0007d	5b		 pop	 ebx
  0007e	f7 fb		 idiv	 ebx
  00080	39 45 08	 cmp	 DWORD PTR tv551[ebp], eax
  00083	77 2e		 ja	 SHORT $LN4@operator

; 724  : 				{	// enough room, copy and construct new
; 725  : 				pointer _Ptr = _Right._Myfirst + size();
; 726  : 				_STD _Copy_impl(_Right._Myfirst, _Ptr, this->_Myfirst);

  00085	ff 75 08	 push	 DWORD PTR __Cat$554052[ebp]
  00088	6b c9 0c	 imul	 ecx, 12			; 0000000cH
  0008b	8b 07		 mov	 eax, DWORD PTR [edi]
  0008d	ff 36		 push	 DWORD PTR [esi]
  0008f	8d 1c 08	 lea	 ebx, DWORD PTR [eax+ecx]
  00092	53		 push	 ebx
  00093	50		 push	 eax
  00094	e8 00 00 00 00	 call	 ??$_Copy_impl@PAUForceInfo@@PAU1@@std@@YAPAUForceInfo@@PAU1@00U_Nonscalar_ptr_iterator_tag@0@@Z ; std::_Copy_impl<ForceInfo *,ForceInfo *>

; 727  : 				this->_Mylast = _Ucopy(_Ptr, _Right._Mylast, this->_Mylast);

  00099	ff 75 08	 push	 DWORD PTR __Cat$554074[ebp]
  0009c	8b 46 04	 mov	 eax, DWORD PTR [esi+4]
  0009f	8b 7f 04	 mov	 edi, DWORD PTR [edi+4]
  000a2	8d 4e 0c	 lea	 ecx, DWORD PTR [esi+12]
  000a5	51		 push	 ecx
  000a6	50		 push	 eax
  000a7	57		 push	 edi
  000a8	53		 push	 ebx
  000a9	e8 00 00 00 00	 call	 ??$_Uninit_copy@PAUForceInfo@@PAU1@V?$allocator@UForceInfo@@@std@@@std@@YAPAUForceInfo@@PAU1@00AAV?$allocator@UForceInfo@@@0@U_Nonscalar_ptr_iterator_tag@0@@Z ; std::_Uninit_copy<ForceInfo *,ForceInfo *,std::allocator<ForceInfo> >
  000ae	83 c4 24	 add	 esp, 36			; 00000024H

; 728  : 				}
; 729  : 			else

  000b1	eb 3d		 jmp	 SHORT $LN107@operator
$LN4@operator:

; 730  : 				{	// not enough room, allocate new array and construct new
; 731  : 				if (this->_Myfirst != 0)

  000b3	8b 06		 mov	 eax, DWORD PTR [esi]
  000b5	85 c0		 test	 eax, eax
  000b7	74 07		 je	 SHORT $LN92@operator

; 732  : 					{	// discard old array
; 733  : 					_Destroy(this->_Myfirst, this->_Mylast);
; 734  : 					this->_Alval.deallocate(this->_Myfirst,
; 735  : 						this->_Myend - this->_Myfirst);

  000b9	50		 push	 eax
  000ba	e8 00 00 00 00	 call	 ??3@YAXPAX@Z		; operator delete
  000bf	59		 pop	 ecx
$LN92@operator:

; 736  : 					}
; 737  : 				if (_Buy(_Right.size()))

  000c0	8b 47 04	 mov	 eax, DWORD PTR [edi+4]
  000c3	2b 07		 sub	 eax, DWORD PTR [edi]
  000c5	6a 0c		 push	 12			; 0000000cH
  000c7	59		 pop	 ecx
  000c8	99		 cdq
  000c9	f7 f9		 idiv	 ecx
  000cb	8b ce		 mov	 ecx, esi
  000cd	50		 push	 eax
  000ce	e8 00 00 00 00	 call	 ?_Buy@?$vector@UForceInfo@@V?$allocator@UForceInfo@@@std@@@std@@IAE_NI@Z ; std::vector<ForceInfo,std::allocator<ForceInfo> >::_Buy
  000d3	84 c0		 test	 al, al
  000d5	74 1c		 je	 SHORT $LN106@operator

; 738  : 					this->_Mylast = _Ucopy(_Right._Myfirst, _Right._Mylast,
; 739  : 						this->_Myfirst);

  000d7	ff 75 08	 push	 DWORD PTR __Cat$554177[ebp]
  000da	8b 06		 mov	 eax, DWORD PTR [esi]
  000dc	8b 4f 04	 mov	 ecx, DWORD PTR [edi+4]
  000df	8b 3f		 mov	 edi, DWORD PTR [edi]
  000e1	8d 56 0c	 lea	 edx, DWORD PTR [esi+12]
  000e4	52		 push	 edx
  000e5	50		 push	 eax
  000e6	51		 push	 ecx
  000e7	57		 push	 edi
  000e8	e8 00 00 00 00	 call	 ??$_Uninit_copy@PAUForceInfo@@PAU1@V?$allocator@UForceInfo@@@std@@@std@@YAPAUForceInfo@@PAU1@00AAV?$allocator@UForceInfo@@@0@U_Nonscalar_ptr_iterator_tag@0@@Z ; std::_Uninit_copy<ForceInfo *,ForceInfo *,std::allocator<ForceInfo> >
  000ed	83 c4 14	 add	 esp, 20			; 00000014H
$LN107@operator:
  000f0	89 46 04	 mov	 DWORD PTR [esi+4], eax
$LN106@operator:
  000f3	5b		 pop	 ebx
$LN1@operator:
  000f4	5f		 pop	 edi

; 740  : 				}
; 741  : 			}
; 742  : 		return (*this);

  000f5	8b c6		 mov	 eax, esi
  000f7	5e		 pop	 esi

; 743  : 		}

  000f8	5d		 pop	 ebp
  000f9	c2 04 00	 ret	 4
??4?$vector@UForceInfo@@V?$allocator@UForceInfo@@@std@@@std@@QAEAAV01@ABV01@@Z ENDP ; std::vector<ForceInfo,std::allocator<ForceInfo> >::operator=
_TEXT	ENDS
PUBLIC	?clear@?$vector@UWeaponInfo@@V?$allocator@UWeaponInfo@@@std@@@std@@QAEXXZ ; std::vector<WeaponInfo,std::allocator<WeaponInfo> >::clear
; Function compile flags: /Ogsp
;	COMDAT ?clear@?$vector@UWeaponInfo@@V?$allocator@UWeaponInfo@@@std@@@std@@QAEXXZ
_TEXT	SEGMENT
$T554195 = -4						; size = 4
?clear@?$vector@UWeaponInfo@@V?$allocator@UWeaponInfo@@@std@@@std@@QAEXXZ PROC ; std::vector<WeaponInfo,std::allocator<WeaponInfo> >::clear, COMDAT
; _this$ = ecx

; 1217 : 		{	// erase all

  00000	55		 push	 ebp
  00001	8b ec		 mov	 ebp, esp
  00003	51		 push	 ecx

; 1218 : 		erase(begin(), end());

  00004	8b 41 04	 mov	 eax, DWORD PTR [ecx+4]
  00007	8b 11		 mov	 edx, DWORD PTR [ecx]
  00009	50		 push	 eax
  0000a	52		 push	 edx
  0000b	8d 45 fc	 lea	 eax, DWORD PTR $T554195[ebp]
  0000e	50		 push	 eax
  0000f	e8 00 00 00 00	 call	 ?erase@?$vector@UWeaponInfo@@V?$allocator@UWeaponInfo@@@std@@@std@@QAE?AV?$_Vector_iterator@V?$_Vector_val@UWeaponInfo@@V?$allocator@UWeaponInfo@@@std@@@std@@@2@V?$_Vector_const_iterator@V?$_Vector_val@UWeaponInfo@@V?$allocator@UWeaponInfo@@@std@@@std@@@2@0@Z ; std::vector<WeaponInfo,std::allocator<WeaponInfo> >::erase

; 1219 : 		}

  00014	c9		 leave
  00015	c3		 ret	 0
?clear@?$vector@UWeaponInfo@@V?$allocator@UWeaponInfo@@@std@@@std@@QAEXXZ ENDP ; std::vector<WeaponInfo,std::allocator<WeaponInfo> >::clear
_TEXT	ENDS
PUBLIC	??0?$vector@UWeaponInfo@@V?$allocator@UWeaponInfo@@@std@@@std@@QAE@ABV01@@Z ; std::vector<WeaponInfo,std::allocator<WeaponInfo> >::vector<WeaponInfo,std::allocator<WeaponInfo> >
;	COMDAT xdata$x
; File c:\program files (x86)\microsoft visual studio 10.0\vc\include\xutility
xdata$x	SEGMENT
__catchsym$??0?$vector@UWeaponInfo@@V?$allocator@UWeaponInfo@@@std@@@std@@QAE@ABV01@@Z$2 DD 040H
	DD	00H
	DD	00H
	DD	FLAT:__catch$??0?$vector@UWeaponInfo@@V?$allocator@UWeaponInfo@@@std@@@std@@QAE@ABV01@@Z$0
__unwindtable$??0?$vector@UWeaponInfo@@V?$allocator@UWeaponInfo@@@std@@@std@@QAE@ABV01@@Z DD 0ffffffffH
	DD	00H
	DD	0ffffffffH
	DD	00H
__tryblocktable$??0?$vector@UWeaponInfo@@V?$allocator@UWeaponInfo@@@std@@@std@@QAE@ABV01@@Z DD 00H
	DD	00H
	DD	01H
	DD	01H
	DD	FLAT:__catchsym$??0?$vector@UWeaponInfo@@V?$allocator@UWeaponInfo@@@std@@@std@@QAE@ABV01@@Z$2
__ehfuncinfo$??0?$vector@UWeaponInfo@@V?$allocator@UWeaponInfo@@@std@@@std@@QAE@ABV01@@Z DD 019930522H
	DD	02H
	DD	FLAT:__unwindtable$??0?$vector@UWeaponInfo@@V?$allocator@UWeaponInfo@@@std@@@std@@QAE@ABV01@@Z
	DD	01H
	DD	FLAT:__tryblocktable$??0?$vector@UWeaponInfo@@V?$allocator@UWeaponInfo@@@std@@@std@@QAE@ABV01@@Z
	DD	2 DUP(00H)
	DD	00H
	DD	01H
; Function compile flags: /Ogsp
; File c:\program files (x86)\microsoft visual studio 10.0\vc\include\vector
xdata$x	ENDS
;	COMDAT ??0?$vector@UWeaponInfo@@V?$allocator@UWeaponInfo@@@std@@@std@@QAE@ABV01@@Z
_TEXT	SEGMENT
_this$ = -20						; size = 4
__$EHRec$ = -16						; size = 16
__Cat$554324 = 8					; size = 1
__Right$ = 8						; size = 4
??0?$vector@UWeaponInfo@@V?$allocator@UWeaponInfo@@@std@@@std@@QAE@ABV01@@Z PROC ; std::vector<WeaponInfo,std::allocator<WeaponInfo> >::vector<WeaponInfo,std::allocator<WeaponInfo> >, COMDAT
; _this$ = ecx

; 535  : 		{	// construct by copying _Right

  00000	6a 08		 push	 8
  00002	b8 00 00 00 00	 mov	 eax, __ehhandler$??0?$vector@UWeaponInfo@@V?$allocator@UWeaponInfo@@@std@@@std@@QAE@ABV01@@Z
  00007	e8 00 00 00 00	 call	 __EH_prolog3_catch
  0000c	8b f1		 mov	 esi, ecx
  0000e	89 75 ec	 mov	 DWORD PTR _this$[ebp], esi

; 536  : 		if (_Buy(_Right.size()))

  00011	8b 7d 08	 mov	 edi, DWORD PTR __Right$[ebp]
  00014	33 db		 xor	 ebx, ebx
  00016	89 1e		 mov	 DWORD PTR [esi], ebx
  00018	89 5e 04	 mov	 DWORD PTR [esi+4], ebx
  0001b	89 5e 08	 mov	 DWORD PTR [esi+8], ebx
  0001e	8b 47 04	 mov	 eax, DWORD PTR [edi+4]
  00021	2b 07		 sub	 eax, DWORD PTR [edi]
  00023	6a 28		 push	 40			; 00000028H
  00025	59		 pop	 ecx
  00026	99		 cdq
  00027	f7 f9		 idiv	 ecx
  00029	8b ce		 mov	 ecx, esi
  0002b	50		 push	 eax
  0002c	e8 00 00 00 00	 call	 ?_Buy@?$vector@UWeaponInfo@@V?$allocator@UWeaponInfo@@@std@@@std@@IAE_NI@Z ; std::vector<WeaponInfo,std::allocator<WeaponInfo> >::_Buy
  00031	84 c0		 test	 al, al
  00033	74 1f		 je	 SHORT $LN7@vector@2

; 537  : 			_TRY_BEGIN
; 538  : 			this->_Mylast = _Ucopy(_Right.begin(), _Right.end(),
; 539  : 				this->_Myfirst);

  00035	ff 75 08	 push	 DWORD PTR __Cat$554324[ebp]
  00038	8b 0e		 mov	 ecx, DWORD PTR [esi]
  0003a	8b 47 04	 mov	 eax, DWORD PTR [edi+4]
  0003d	8b 3f		 mov	 edi, DWORD PTR [edi]
  0003f	8d 56 0c	 lea	 edx, DWORD PTR [esi+12]
  00042	52		 push	 edx
  00043	51		 push	 ecx
  00044	50		 push	 eax
  00045	57		 push	 edi
  00046	89 5d fc	 mov	 DWORD PTR __$EHRec$[ebp+12], ebx
  00049	e8 00 00 00 00	 call	 ??$_Uninit_copy@V?$_Vector_const_iterator@V?$_Vector_val@UWeaponInfo@@V?$allocator@UWeaponInfo@@@std@@@std@@@std@@PAUWeaponInfo@@V?$allocator@UWeaponInfo@@@2@@std@@YAPAUWeaponInfo@@V?$_Vector_const_iterator@V?$_Vector_val@UWeaponInfo@@V?$allocator@UWeaponInfo@@@std@@@std@@@0@0PAU1@AAV?$allocator@UWeaponInfo@@@0@U_Nonscalar_ptr_iterator_tag@0@@Z ; std::_Uninit_copy<std::_Vector_const_iterator<std::_Vector_val<WeaponInfo,std::allocator<WeaponInfo> > >,WeaponInfo *,std::allocator<WeaponInfo> >
  0004e	83 c4 14	 add	 esp, 20			; 00000014H
  00051	89 46 04	 mov	 DWORD PTR [esi+4], eax
$LN7@vector@2:

; 543  : 			_CATCH_END
; 544  : 		}

  00054	8b c6		 mov	 eax, esi
  00056	e8 00 00 00 00	 call	 __EH_epilog3
  0005b	c2 04 00	 ret	 4
__catch$??0?$vector@UWeaponInfo@@V?$allocator@UWeaponInfo@@@std@@@std@@QAE@ABV01@@Z$0:

; 540  : 			_CATCH_ALL
; 541  : 			_Tidy();

  0005e	8b 4d ec	 mov	 ecx, DWORD PTR _this$[ebp]
  00061	e8 00 00 00 00	 call	 ?_Tidy@?$vector@UWeaponInfo@@V?$allocator@UWeaponInfo@@@std@@@std@@IAEXXZ ; std::vector<WeaponInfo,std::allocator<WeaponInfo> >::_Tidy

; 542  : 			_RERAISE;

  00066	33 db		 xor	 ebx, ebx
  00068	53		 push	 ebx
  00069	53		 push	 ebx
  0006a	e8 00 00 00 00	 call	 __CxxThrowException@8
$LN38@vector@2:
$LN37@vector@2:
  0006f	cc		 int	 3
_TEXT	ENDS
;	COMDAT text$x
text$x	SEGMENT
__ehhandler$??0?$vector@UWeaponInfo@@V?$allocator@UWeaponInfo@@@std@@@std@@QAE@ABV01@@Z:
  00000	8b 54 24 08	 mov	 edx, DWORD PTR [esp+8]
  00004	8d 42 0c	 lea	 eax, DWORD PTR [edx+12]
  00007	8b 4a e8	 mov	 ecx, DWORD PTR [edx-24]
  0000a	33 c8		 xor	 ecx, eax
  0000c	e8 00 00 00 00	 call	 @__security_check_cookie@4
  00011	b8 00 00 00 00	 mov	 eax, OFFSET __ehfuncinfo$??0?$vector@UWeaponInfo@@V?$allocator@UWeaponInfo@@@std@@@std@@QAE@ABV01@@Z
  00016	e9 00 00 00 00	 jmp	 ___CxxFrameHandler3
text$x	ENDS
??0?$vector@UWeaponInfo@@V?$allocator@UWeaponInfo@@@std@@@std@@QAE@ABV01@@Z ENDP ; std::vector<WeaponInfo,std::allocator<WeaponInfo> >::vector<WeaponInfo,std::allocator<WeaponInfo> >
PUBLIC	??1?$vector@UWeaponInfo@@V?$allocator@UWeaponInfo@@@std@@@std@@QAE@XZ ; std::vector<WeaponInfo,std::allocator<WeaponInfo> >::~vector<WeaponInfo,std::allocator<WeaponInfo> >
; Function compile flags: /Ogsp
;	COMDAT ??1?$vector@UWeaponInfo@@V?$allocator@UWeaponInfo@@@std@@@std@@QAE@XZ
_TEXT	SEGMENT
??1?$vector@UWeaponInfo@@V?$allocator@UWeaponInfo@@@std@@@std@@QAE@XZ PROC ; std::vector<WeaponInfo,std::allocator<WeaponInfo> >::~vector<WeaponInfo,std::allocator<WeaponInfo> >, COMDAT
; _this$ = ecx

; 705  : 		_Tidy();

  00000	e9 00 00 00 00	 jmp	 ?_Tidy@?$vector@UWeaponInfo@@V?$allocator@UWeaponInfo@@@std@@@std@@IAEXXZ ; std::vector<WeaponInfo,std::allocator<WeaponInfo> >::_Tidy
??1?$vector@UWeaponInfo@@V?$allocator@UWeaponInfo@@@std@@@std@@QAE@XZ ENDP ; std::vector<WeaponInfo,std::allocator<WeaponInfo> >::~vector<WeaponInfo,std::allocator<WeaponInfo> >
_TEXT	ENDS
PUBLIC	??4?$vector@UWeaponInfo@@V?$allocator@UWeaponInfo@@@std@@@std@@QAEAAV01@ABV01@@Z ; std::vector<WeaponInfo,std::allocator<WeaponInfo> >::operator=
; Function compile flags: /Ogsp
;	COMDAT ??4?$vector@UWeaponInfo@@V?$allocator@UWeaponInfo@@@std@@@std@@QAEAAV01@ABV01@@Z
_TEXT	SEGMENT
tv551 = 8						; size = 4
__Cat$554539 = 8					; size = 1
__Cat$554502 = 8					; size = 1
__Cat$554480 = 8					; size = 1
__Cat$554449 = 8					; size = 1
$T554414 = 8						; size = 4
__Right$ = 8						; size = 4
??4?$vector@UWeaponInfo@@V?$allocator@UWeaponInfo@@@std@@@std@@QAEAAV01@ABV01@@Z PROC ; std::vector<WeaponInfo,std::allocator<WeaponInfo> >::operator=, COMDAT
; _this$ = ecx

; 709  : 		{	// assign _Right

  00000	55		 push	 ebp
  00001	8b ec		 mov	 ebp, esp
  00003	56		 push	 esi
  00004	57		 push	 edi

; 710  : 		if (this != &_Right)

  00005	8b 7d 08	 mov	 edi, DWORD PTR __Right$[ebp]
  00008	8b f1		 mov	 esi, ecx
  0000a	3b f7		 cmp	 esi, edi
  0000c	0f 84 03 01 00
	00		 je	 $LN1@operator@2

; 711  : 			{	// worth doing
; 712  : 			this->_Orphan_all();

  00012	ff 15 00 00 00
	00		 call	 DWORD PTR __imp_?_Orphan_all@_Container_base0@std@@QAEXXZ

; 713  : 
; 714  : 			if (_Right.size() == 0)

  00018	8b 47 04	 mov	 eax, DWORD PTR [edi+4]
  0001b	2b 07		 sub	 eax, DWORD PTR [edi]
  0001d	6a 28		 push	 40			; 00000028H
  0001f	99		 cdq
  00020	59		 pop	 ecx
  00021	f7 f9		 idiv	 ecx
  00023	89 45 08	 mov	 DWORD PTR tv551[ebp], eax
  00026	85 c0		 test	 eax, eax

; 715  : 				clear();	// new sequence empty, erase existing sequence

  00028	8b 46 04	 mov	 eax, DWORD PTR [esi+4]
  0002b	75 14		 jne	 SHORT $LN8@operator@2
  0002d	8b 0e		 mov	 ecx, DWORD PTR [esi]
  0002f	50		 push	 eax
  00030	51		 push	 ecx
  00031	8d 45 08	 lea	 eax, DWORD PTR $T554414[ebp]
  00034	50		 push	 eax
  00035	8b ce		 mov	 ecx, esi
  00037	e8 00 00 00 00	 call	 ?erase@?$vector@UWeaponInfo@@V?$allocator@UWeaponInfo@@@std@@@std@@QAE?AV?$_Vector_iterator@V?$_Vector_val@UWeaponInfo@@V?$allocator@UWeaponInfo@@@std@@@std@@@2@V?$_Vector_const_iterator@V?$_Vector_val@UWeaponInfo@@V?$allocator@UWeaponInfo@@@std@@@std@@@2@0@Z ; std::vector<WeaponInfo,std::allocator<WeaponInfo> >::erase

; 716  : 			else if (_Right.size() <= size())

  0003c	e9 d4 00 00 00	 jmp	 $LN1@operator@2
$LN8@operator@2:
  00041	53		 push	 ebx
  00042	8b 1e		 mov	 ebx, DWORD PTR [esi]
  00044	2b c3		 sub	 eax, ebx
  00046	6a 28		 push	 40			; 00000028H
  00048	99		 cdq
  00049	59		 pop	 ecx
  0004a	f7 f9		 idiv	 ecx
  0004c	8b c8		 mov	 ecx, eax
  0004e	39 4d 08	 cmp	 DWORD PTR tv551[ebp], ecx
  00051	77 33		 ja	 SHORT $LN6@operator@2

; 717  : 				{	// enough elements, copy new and destroy old
; 718  : 				pointer _Ptr = _STD _Copy_impl(_Right._Myfirst, _Right._Mylast,
; 719  : 					this->_Myfirst);	// copy new

  00053	ff 75 08	 push	 DWORD PTR __Cat$554449[ebp]
  00056	53		 push	 ebx
  00057	ff 77 04	 push	 DWORD PTR [edi+4]
  0005a	ff 37		 push	 DWORD PTR [edi]
  0005c	e8 00 00 00 00	 call	 ??$_Copy_impl@PAUWeaponInfo@@PAU1@@std@@YAPAUWeaponInfo@@PAU1@00U_Nonscalar_ptr_iterator_tag@0@@Z ; std::_Copy_impl<WeaponInfo *,WeaponInfo *>

; 720  : 				_Destroy(_Ptr, this->_Mylast);	// destroy old

  00061	8d 4e 0c	 lea	 ecx, DWORD PTR [esi+12]
  00064	51		 push	 ecx
  00065	ff 76 04	 push	 DWORD PTR [esi+4]
  00068	50		 push	 eax
  00069	e8 00 00 00 00	 call	 ??$_Destroy_range@V?$allocator@UWeaponInfo@@@std@@@std@@YAXPAUWeaponInfo@@0AAV?$allocator@UWeaponInfo@@@0@@Z ; std::_Destroy_range<std::allocator<WeaponInfo> >

; 721  : 				this->_Mylast = this->_Myfirst + _Right.size();

  0006e	8b 47 04	 mov	 eax, DWORD PTR [edi+4]
  00071	2b 07		 sub	 eax, DWORD PTR [edi]
  00073	83 c4 1c	 add	 esp, 28			; 0000001cH
  00076	99		 cdq
  00077	6a 28		 push	 40			; 00000028H
  00079	59		 pop	 ecx
  0007a	f7 f9		 idiv	 ecx
  0007c	6b c0 28	 imul	 eax, 40			; 00000028H
  0007f	03 06		 add	 eax, DWORD PTR [esi]

; 722  : 				}
; 723  : 			else if (_Right.size() <= capacity())

  00081	e9 8b 00 00 00	 jmp	 $LN73@operator@2
$LN6@operator@2:
  00086	8b 46 08	 mov	 eax, DWORD PTR [esi+8]
  00089	2b c3		 sub	 eax, ebx
  0008b	6a 28		 push	 40			; 00000028H
  0008d	99		 cdq
  0008e	5b		 pop	 ebx
  0008f	f7 fb		 idiv	 ebx
  00091	39 45 08	 cmp	 DWORD PTR tv551[ebp], eax
  00094	77 2e		 ja	 SHORT $LN4@operator@2

; 724  : 				{	// enough room, copy and construct new
; 725  : 				pointer _Ptr = _Right._Myfirst + size();
; 726  : 				_STD _Copy_impl(_Right._Myfirst, _Ptr, this->_Myfirst);

  00096	ff 75 08	 push	 DWORD PTR __Cat$554480[ebp]
  00099	6b c9 28	 imul	 ecx, 40			; 00000028H
  0009c	8b 07		 mov	 eax, DWORD PTR [edi]
  0009e	ff 36		 push	 DWORD PTR [esi]
  000a0	8d 1c 08	 lea	 ebx, DWORD PTR [eax+ecx]
  000a3	53		 push	 ebx
  000a4	50		 push	 eax
  000a5	e8 00 00 00 00	 call	 ??$_Copy_impl@PAUWeaponInfo@@PAU1@@std@@YAPAUWeaponInfo@@PAU1@00U_Nonscalar_ptr_iterator_tag@0@@Z ; std::_Copy_impl<WeaponInfo *,WeaponInfo *>

; 727  : 				this->_Mylast = _Ucopy(_Ptr, _Right._Mylast, this->_Mylast);

  000aa	ff 75 08	 push	 DWORD PTR __Cat$554502[ebp]
  000ad	8b 46 04	 mov	 eax, DWORD PTR [esi+4]
  000b0	8b 7f 04	 mov	 edi, DWORD PTR [edi+4]
  000b3	8d 4e 0c	 lea	 ecx, DWORD PTR [esi+12]
  000b6	51		 push	 ecx
  000b7	50		 push	 eax
  000b8	57		 push	 edi
  000b9	53		 push	 ebx
  000ba	e8 00 00 00 00	 call	 ??$_Uninit_copy@PAUWeaponInfo@@PAU1@V?$allocator@UWeaponInfo@@@std@@@std@@YAPAUWeaponInfo@@PAU1@00AAV?$allocator@UWeaponInfo@@@0@U_Nonscalar_ptr_iterator_tag@0@@Z ; std::_Uninit_copy<WeaponInfo *,WeaponInfo *,std::allocator<WeaponInfo> >
  000bf	83 c4 24	 add	 esp, 36			; 00000024H

; 728  : 				}
; 729  : 			else

  000c2	eb 4d		 jmp	 SHORT $LN73@operator@2
$LN4@operator@2:

; 730  : 				{	// not enough room, allocate new array and construct new
; 731  : 				if (this->_Myfirst != 0)

  000c4	8b 06		 mov	 eax, DWORD PTR [esi]
  000c6	85 c0		 test	 eax, eax
  000c8	74 17		 je	 SHORT $LN62@operator@2

; 732  : 					{	// discard old array
; 733  : 					_Destroy(this->_Myfirst, this->_Mylast);

  000ca	8d 4e 0c	 lea	 ecx, DWORD PTR [esi+12]
  000cd	51		 push	 ecx
  000ce	ff 76 04	 push	 DWORD PTR [esi+4]
  000d1	50		 push	 eax
  000d2	e8 00 00 00 00	 call	 ??$_Destroy_range@V?$allocator@UWeaponInfo@@@std@@@std@@YAXPAUWeaponInfo@@0AAV?$allocator@UWeaponInfo@@@0@@Z ; std::_Destroy_range<std::allocator<WeaponInfo> >

; 734  : 					this->_Alval.deallocate(this->_Myfirst,
; 735  : 						this->_Myend - this->_Myfirst);

  000d7	ff 36		 push	 DWORD PTR [esi]
  000d9	e8 00 00 00 00	 call	 ??3@YAXPAX@Z		; operator delete
  000de	83 c4 10	 add	 esp, 16			; 00000010H
$LN62@operator@2:

; 736  : 					}
; 737  : 				if (_Buy(_Right.size()))

  000e1	8b 47 04	 mov	 eax, DWORD PTR [edi+4]
  000e4	2b 07		 sub	 eax, DWORD PTR [edi]
  000e6	6a 28		 push	 40			; 00000028H
  000e8	59		 pop	 ecx
  000e9	99		 cdq
  000ea	f7 f9		 idiv	 ecx
  000ec	8b ce		 mov	 ecx, esi
  000ee	50		 push	 eax
  000ef	e8 00 00 00 00	 call	 ?_Buy@?$vector@UWeaponInfo@@V?$allocator@UWeaponInfo@@@std@@@std@@IAE_NI@Z ; std::vector<WeaponInfo,std::allocator<WeaponInfo> >::_Buy
  000f4	84 c0		 test	 al, al
  000f6	74 1c		 je	 SHORT $LN72@operator@2

; 738  : 					this->_Mylast = _Ucopy(_Right._Myfirst, _Right._Mylast,
; 739  : 						this->_Myfirst);

  000f8	ff 75 08	 push	 DWORD PTR __Cat$554539[ebp]
  000fb	8b 06		 mov	 eax, DWORD PTR [esi]
  000fd	8b 4f 04	 mov	 ecx, DWORD PTR [edi+4]
  00100	8b 3f		 mov	 edi, DWORD PTR [edi]
  00102	8d 56 0c	 lea	 edx, DWORD PTR [esi+12]
  00105	52		 push	 edx
  00106	50		 push	 eax
  00107	51		 push	 ecx
  00108	57		 push	 edi
  00109	e8 00 00 00 00	 call	 ??$_Uninit_copy@PAUWeaponInfo@@PAU1@V?$allocator@UWeaponInfo@@@std@@@std@@YAPAUWeaponInfo@@PAU1@00AAV?$allocator@UWeaponInfo@@@0@U_Nonscalar_ptr_iterator_tag@0@@Z ; std::_Uninit_copy<WeaponInfo *,WeaponInfo *,std::allocator<WeaponInfo> >
  0010e	83 c4 14	 add	 esp, 20			; 00000014H
$LN73@operator@2:
  00111	89 46 04	 mov	 DWORD PTR [esi+4], eax
$LN72@operator@2:
  00114	5b		 pop	 ebx
$LN1@operator@2:
  00115	5f		 pop	 edi

; 740  : 				}
; 741  : 			}
; 742  : 		return (*this);

  00116	8b c6		 mov	 eax, esi
  00118	5e		 pop	 esi

; 743  : 		}

  00119	5d		 pop	 ebp
  0011a	c2 04 00	 ret	 4
??4?$vector@UWeaponInfo@@V?$allocator@UWeaponInfo@@@std@@@std@@QAEAAV01@ABV01@@Z ENDP ; std::vector<WeaponInfo,std::allocator<WeaponInfo> >::operator=
_TEXT	ENDS
PUBLIC	??0AttackAttribute@@QAE@ABU0@@Z			; AttackAttribute::AttackAttribute
;	COMDAT xdata$x
xdata$x	SEGMENT
__unwindtable$??0AttackAttribute@@QAE@ABU0@@Z DD 0ffffffffH
	DD	FLAT:__unwindfunclet$??0AttackAttribute@@QAE@ABU0@@Z$0
	DD	00H
	DD	FLAT:__unwindfunclet$??0AttackAttribute@@QAE@ABU0@@Z$1
	DD	01H
	DD	FLAT:__unwindfunclet$??0AttackAttribute@@QAE@ABU0@@Z$2
__ehfuncinfo$??0AttackAttribute@@QAE@ABU0@@Z DD 019930522H
	DD	03H
	DD	FLAT:__unwindtable$??0AttackAttribute@@QAE@ABU0@@Z
	DD	2 DUP(00H)
	DD	2 DUP(00H)
	DD	00H
	DD	01H
; Function compile flags: /Ogsp
xdata$x	ENDS
;	COMDAT ??0AttackAttribute@@QAE@ABU0@@Z
_TEXT	SEGMENT
_this$ = -16						; size = 4
__$EHRec$ = -12						; size = 12
___that$ = 8						; size = 4
??0AttackAttribute@@QAE@ABU0@@Z PROC			; AttackAttribute::AttackAttribute, COMDAT
; _this$ = ecx
  00000	6a 04		 push	 4
  00002	b8 00 00 00 00	 mov	 eax, __ehhandler$??0AttackAttribute@@QAE@ABU0@@Z
  00007	e8 00 00 00 00	 call	 __EH_prolog3
  0000c	8b f1		 mov	 esi, ecx
  0000e	89 75 f0	 mov	 DWORD PTR _this$[ebp], esi
  00011	8b 7d 08	 mov	 edi, DWORD PTR ___that$[ebp]
  00014	8b 1d 00 00 00
	00		 mov	 ebx, DWORD PTR __imp_??0ioHashString@@QAE@ABV0@@Z
  0001a	57		 push	 edi
  0001b	ff d3		 call	 ebx
  0001d	d9 47 10	 fld	 DWORD PTR [edi+16]
  00020	83 65 fc 00	 and	 DWORD PTR __$EHRec$[ebp+8], 0
  00024	d9 5e 10	 fstp	 DWORD PTR [esi+16]
  00027	8d 47 14	 lea	 eax, DWORD PTR [edi+20]
  0002a	50		 push	 eax
  0002b	8d 4e 14	 lea	 ecx, DWORD PTR [esi+20]
  0002e	ff d3		 call	 ebx
  00030	d9 47 24	 fld	 DWORD PTR [edi+36]
  00033	8d 47 28	 lea	 eax, DWORD PTR [edi+40]
  00036	d9 5e 24	 fstp	 DWORD PTR [esi+36]
  00039	50		 push	 eax
  0003a	8d 4e 28	 lea	 ecx, DWORD PTR [esi+40]
  0003d	c6 45 fc 01	 mov	 BYTE PTR __$EHRec$[ebp+8], 1
  00041	e8 00 00 00 00	 call	 ??0?$vector@UWeaponInfo@@V?$allocator@UWeaponInfo@@@std@@@std@@QAE@ABV01@@Z ; std::vector<WeaponInfo,std::allocator<WeaponInfo> >::vector<WeaponInfo,std::allocator<WeaponInfo> >
  00046	8d 47 38	 lea	 eax, DWORD PTR [edi+56]
  00049	50		 push	 eax
  0004a	8d 4e 38	 lea	 ecx, DWORD PTR [esi+56]
  0004d	c6 45 fc 02	 mov	 BYTE PTR __$EHRec$[ebp+8], 2
  00051	e8 00 00 00 00	 call	 ??0?$vector@UForceInfo@@V?$allocator@UForceInfo@@@std@@@std@@QAE@ABV01@@Z ; std::vector<ForceInfo,std::allocator<ForceInfo> >::vector<ForceInfo,std::allocator<ForceInfo> >
  00056	8b 47 48	 mov	 eax, DWORD PTR [edi+72]
  00059	89 46 48	 mov	 DWORD PTR [esi+72], eax
  0005c	8b 47 4c	 mov	 eax, DWORD PTR [edi+76]
  0005f	89 46 4c	 mov	 DWORD PTR [esi+76], eax
  00062	8b c6		 mov	 eax, esi
  00064	e8 00 00 00 00	 call	 __EH_epilog3
  00069	c2 04 00	 ret	 4
_TEXT	ENDS
;	COMDAT text$x
text$x	SEGMENT
__unwindfunclet$??0AttackAttribute@@QAE@ABU0@@Z$0:
  00000	8b 4d f0	 mov	 ecx, DWORD PTR _this$[ebp]
  00003	ff 25 00 00 00
	00		 jmp	 DWORD PTR __imp_??1ioHashString@@QAE@XZ
__unwindfunclet$??0AttackAttribute@@QAE@ABU0@@Z$1:
  00009	8b 4d f0	 mov	 ecx, DWORD PTR _this$[ebp]
  0000c	83 c1 14	 add	 ecx, 20			; 00000014H
  0000f	ff 25 00 00 00
	00		 jmp	 DWORD PTR __imp_??1ioHashString@@QAE@XZ
__unwindfunclet$??0AttackAttribute@@QAE@ABU0@@Z$2:
  00015	8b 4d f0	 mov	 ecx, DWORD PTR _this$[ebp]
  00018	83 c1 28	 add	 ecx, 40			; 00000028H
  0001b	e9 00 00 00 00	 jmp	 ??1?$vector@UWeaponInfo@@V?$allocator@UWeaponInfo@@@std@@@std@@QAE@XZ ; std::vector<WeaponInfo,std::allocator<WeaponInfo> >::~vector<WeaponInfo,std::allocator<WeaponInfo> >
__ehhandler$??0AttackAttribute@@QAE@ABU0@@Z:
  00020	8b 54 24 08	 mov	 edx, DWORD PTR [esp+8]
  00024	8d 42 0c	 lea	 eax, DWORD PTR [edx+12]
  00027	8b 4a ec	 mov	 ecx, DWORD PTR [edx-20]
  0002a	33 c8		 xor	 ecx, eax
  0002c	e8 00 00 00 00	 call	 @__security_check_cookie@4
  00031	b8 00 00 00 00	 mov	 eax, OFFSET __ehfuncinfo$??0AttackAttribute@@QAE@ABU0@@Z
  00036	e9 00 00 00 00	 jmp	 ___CxxFrameHandler3
text$x	ENDS
??0AttackAttribute@@QAE@ABU0@@Z ENDP			; AttackAttribute::AttackAttribute
PUBLIC	??$construct@AAUAttackAttribute@@@?$allocator@UAttackAttribute@@@std@@QAEXPAUAttackAttribute@@AAU2@@Z ; std::allocator<AttackAttribute>::construct<AttackAttribute &>
;	COMDAT xdata$x
; File c:\program files (x86)\microsoft visual studio 10.0\vc\include\utility
xdata$x	SEGMENT
__unwindtable$??$construct@AAUAttackAttribute@@@?$allocator@UAttackAttribute@@@std@@QAEXPAUAttackAttribute@@AAU2@@Z DD 0ffffffffH
	DD	FLAT:__unwindfunclet$??$construct@AAUAttackAttribute@@@?$allocator@UAttackAttribute@@@std@@QAEXPAUAttackAttribute@@AAU2@@Z$0
__ehfuncinfo$??$construct@AAUAttackAttribute@@@?$allocator@UAttackAttribute@@@std@@QAEXPAUAttackAttribute@@AAU2@@Z DD 019930522H
	DD	01H
	DD	FLAT:__unwindtable$??$construct@AAUAttackAttribute@@@?$allocator@UAttackAttribute@@@std@@QAEXPAUAttackAttribute@@AAU2@@Z
	DD	2 DUP(00H)
	DD	2 DUP(00H)
	DD	00H
	DD	01H
; Function compile flags: /Ogsp
; File c:\program files (x86)\microsoft visual studio 10.0\vc\include\xmemory
xdata$x	ENDS
;	COMDAT ??$construct@AAUAttackAttribute@@@?$allocator@UAttackAttribute@@@std@@QAEXPAUAttackAttribute@@AAU2@@Z
_TEXT	SEGMENT
$T554561 = -16						; size = 4
__$EHRec$ = -12						; size = 12
__Ptr$ = 8						; size = 4
__Val$ = 12						; size = 4
??$construct@AAUAttackAttribute@@@?$allocator@UAttackAttribute@@@std@@QAEXPAUAttackAttribute@@AAU2@@Z PROC ; std::allocator<AttackAttribute>::construct<AttackAttribute &>, COMDAT
; _this$ = ecx

; 206  : 		void construct(pointer _Ptr, _Other&& _Val)

  00000	6a 04		 push	 4
  00002	b8 00 00 00 00	 mov	 eax, __ehhandler$??$construct@AAUAttackAttribute@@@?$allocator@UAttackAttribute@@@std@@QAEXPAUAttackAttribute@@AAU2@@Z
  00007	e8 00 00 00 00	 call	 __EH_prolog3

; 207  : 		{	// construct object at _Ptr with value _Val
; 208  : 		::new ((void _FARQ *)_Ptr) _Ty(_STD forward<_Other>(_Val));

  0000c	8b 4d 08	 mov	 ecx, DWORD PTR __Ptr$[ebp]
  0000f	89 4d f0	 mov	 DWORD PTR $T554561[ebp], ecx
  00012	83 65 fc 00	 and	 DWORD PTR __$EHRec$[ebp+8], 0
  00016	85 c9		 test	 ecx, ecx
  00018	74 08		 je	 SHORT $LN3@construct@4
  0001a	ff 75 0c	 push	 DWORD PTR __Val$[ebp]
  0001d	e8 00 00 00 00	 call	 ??0AttackAttribute@@QAE@ABU0@@Z
$LN3@construct@4:

; 209  : 		}

  00022	e8 00 00 00 00	 call	 __EH_epilog3
  00027	c2 08 00	 ret	 8
_TEXT	ENDS
;	COMDAT text$x
text$x	SEGMENT
__unwindfunclet$??$construct@AAUAttackAttribute@@@?$allocator@UAttackAttribute@@@std@@QAEXPAUAttackAttribute@@AAU2@@Z$0:
  00000	ff 75 08	 push	 DWORD PTR __Ptr$[ebp]
  00003	ff 75 f0	 push	 DWORD PTR $T554561[ebp]
  00006	e8 00 00 00 00	 call	 ??3@YAXPAX0@Z		; operator delete
  0000b	59		 pop	 ecx
  0000c	59		 pop	 ecx
  0000d	c3		 ret	 0
__ehhandler$??$construct@AAUAttackAttribute@@@?$allocator@UAttackAttribute@@@std@@QAEXPAUAttackAttribute@@AAU2@@Z:
  0000e	8b 54 24 08	 mov	 edx, DWORD PTR [esp+8]
  00012	8d 42 0c	 lea	 eax, DWORD PTR [edx+12]
  00015	8b 4a ec	 mov	 ecx, DWORD PTR [edx-20]
  00018	33 c8		 xor	 ecx, eax
  0001a	e8 00 00 00 00	 call	 @__security_check_cookie@4
  0001f	b8 00 00 00 00	 mov	 eax, OFFSET __ehfuncinfo$??$construct@AAUAttackAttribute@@@?$allocator@UAttackAttribute@@@std@@QAEXPAUAttackAttribute@@AAU2@@Z
  00024	e9 00 00 00 00	 jmp	 ___CxxFrameHandler3
text$x	ENDS
??$construct@AAUAttackAttribute@@@?$allocator@UAttackAttribute@@@std@@QAEXPAUAttackAttribute@@AAU2@@Z ENDP ; std::allocator<AttackAttribute>::construct<AttackAttribute &>
PUBLIC	??$_Construct@UAttackAttribute@@ABU1@@std@@YAXPAUAttackAttribute@@ABU1@@Z ; std::_Construct<AttackAttribute,AttackAttribute const &>
;	COMDAT xdata$x
; File c:\program files (x86)\microsoft visual studio 10.0\vc\include\utility
xdata$x	SEGMENT
__unwindtable$??$_Construct@UAttackAttribute@@ABU1@@std@@YAXPAUAttackAttribute@@ABU1@@Z DD 0ffffffffH
	DD	FLAT:__unwindfunclet$??$_Construct@UAttackAttribute@@ABU1@@std@@YAXPAUAttackAttribute@@ABU1@@Z$0
__ehfuncinfo$??$_Construct@UAttackAttribute@@ABU1@@std@@YAXPAUAttackAttribute@@ABU1@@Z DD 019930522H
	DD	01H
	DD	FLAT:__unwindtable$??$_Construct@UAttackAttribute@@ABU1@@std@@YAXPAUAttackAttribute@@ABU1@@Z
	DD	2 DUP(00H)
	DD	2 DUP(00H)
	DD	00H
	DD	01H
; Function compile flags: /Ogsp
; File c:\program files (x86)\microsoft visual studio 10.0\vc\include\xmemory
xdata$x	ENDS
;	COMDAT ??$_Construct@UAttackAttribute@@ABU1@@std@@YAXPAUAttackAttribute@@ABU1@@Z
_TEXT	SEGMENT
$T554580 = -16						; size = 4
__$EHRec$ = -12						; size = 12
__Vptr$ = 8						; size = 4
__Ptr$ = 8						; size = 4
__Val$ = 12						; size = 4
??$_Construct@UAttackAttribute@@ABU1@@std@@YAXPAUAttackAttribute@@ABU1@@Z PROC ; std::_Construct<AttackAttribute,AttackAttribute const &>, COMDAT

; 46   : 	{	// construct object at _Ptr with value _Val

  00000	6a 04		 push	 4
  00002	b8 00 00 00 00	 mov	 eax, __ehhandler$??$_Construct@UAttackAttribute@@ABU1@@std@@YAXPAUAttackAttribute@@ABU1@@Z
  00007	e8 00 00 00 00	 call	 __EH_prolog3

; 47   : 	void _FARQ *_Vptr = _Ptr;

  0000c	8b 4d 08	 mov	 ecx, DWORD PTR __Ptr$[ebp]
  0000f	89 4d 08	 mov	 DWORD PTR __Vptr$[ebp], ecx

; 48   : 	::new (_Vptr) _Ty1(_STD forward<_Ty2>(_Val));

  00012	89 4d f0	 mov	 DWORD PTR $T554580[ebp], ecx
  00015	83 65 fc 00	 and	 DWORD PTR __$EHRec$[ebp+8], 0
  00019	85 c9		 test	 ecx, ecx
  0001b	74 08		 je	 SHORT $LN3@Construct@3
  0001d	ff 75 0c	 push	 DWORD PTR __Val$[ebp]
  00020	e8 00 00 00 00	 call	 ??0AttackAttribute@@QAE@ABU0@@Z
$LN3@Construct@3:

; 49   : 	}

  00025	e8 00 00 00 00	 call	 __EH_epilog3
  0002a	c3		 ret	 0
_TEXT	ENDS
;	COMDAT text$x
text$x	SEGMENT
__unwindfunclet$??$_Construct@UAttackAttribute@@ABU1@@std@@YAXPAUAttackAttribute@@ABU1@@Z$0:
  00000	ff 75 08	 push	 DWORD PTR __Vptr$[ebp]
  00003	ff 75 f0	 push	 DWORD PTR $T554580[ebp]
  00006	e8 00 00 00 00	 call	 ??3@YAXPAX0@Z		; operator delete
  0000b	59		 pop	 ecx
  0000c	59		 pop	 ecx
  0000d	c3		 ret	 0
__ehhandler$??$_Construct@UAttackAttribute@@ABU1@@std@@YAXPAUAttackAttribute@@ABU1@@Z:
  0000e	8b 54 24 08	 mov	 edx, DWORD PTR [esp+8]
  00012	8d 42 0c	 lea	 eax, DWORD PTR [edx+12]
  00015	8b 4a ec	 mov	 ecx, DWORD PTR [edx-20]
  00018	33 c8		 xor	 ecx, eax
  0001a	e8 00 00 00 00	 call	 @__security_check_cookie@4
  0001f	b8 00 00 00 00	 mov	 eax, OFFSET __ehfuncinfo$??$_Construct@UAttackAttribute@@ABU1@@std@@YAXPAUAttackAttribute@@ABU1@@Z
  00024	e9 00 00 00 00	 jmp	 ___CxxFrameHandler3
text$x	ENDS
??$_Construct@UAttackAttribute@@ABU1@@std@@YAXPAUAttackAttribute@@ABU1@@Z ENDP ; std::_Construct<AttackAttribute,AttackAttribute const &>
PUBLIC	?construct@?$allocator@UAttackAttribute@@@std@@QAEXPAUAttackAttribute@@$$QAU3@@Z ; std::allocator<AttackAttribute>::construct
;	COMDAT xdata$x
; File c:\program files (x86)\microsoft visual studio 10.0\vc\include\utility
xdata$x	SEGMENT
__unwindtable$?construct@?$allocator@UAttackAttribute@@@std@@QAEXPAUAttackAttribute@@$$QAU3@@Z DD 0ffffffffH
	DD	FLAT:__unwindfunclet$?construct@?$allocator@UAttackAttribute@@@std@@QAEXPAUAttackAttribute@@$$QAU3@@Z$0
__ehfuncinfo$?construct@?$allocator@UAttackAttribute@@@std@@QAEXPAUAttackAttribute@@$$QAU3@@Z DD 019930522H
	DD	01H
	DD	FLAT:__unwindtable$?construct@?$allocator@UAttackAttribute@@@std@@QAEXPAUAttackAttribute@@$$QAU3@@Z
	DD	2 DUP(00H)
	DD	2 DUP(00H)
	DD	00H
	DD	01H
; Function compile flags: /Ogsp
; File c:\program files (x86)\microsoft visual studio 10.0\vc\include\xmemory
xdata$x	ENDS
;	COMDAT ?construct@?$allocator@UAttackAttribute@@@std@@QAEXPAUAttackAttribute@@$$QAU3@@Z
_TEXT	SEGMENT
$T554599 = -16						; size = 4
__$EHRec$ = -12						; size = 12
__Ptr$ = 8						; size = 4
__Val$ = 12						; size = 4
?construct@?$allocator@UAttackAttribute@@@std@@QAEXPAUAttackAttribute@@$$QAU3@@Z PROC ; std::allocator<AttackAttribute>::construct, COMDAT
; _this$ = ecx

; 201  : 		{	// construct object at _Ptr with value _Val

  00000	6a 04		 push	 4
  00002	b8 00 00 00 00	 mov	 eax, __ehhandler$?construct@?$allocator@UAttackAttribute@@@std@@QAEXPAUAttackAttribute@@$$QAU3@@Z
  00007	e8 00 00 00 00	 call	 __EH_prolog3

; 202  : 		::new ((void _FARQ *)_Ptr) _Ty(_STD forward<_Ty>(_Val));

  0000c	8b 4d 08	 mov	 ecx, DWORD PTR __Ptr$[ebp]
  0000f	89 4d f0	 mov	 DWORD PTR $T554599[ebp], ecx
  00012	83 65 fc 00	 and	 DWORD PTR __$EHRec$[ebp+8], 0
  00016	85 c9		 test	 ecx, ecx
  00018	74 08		 je	 SHORT $LN3@construct@5
  0001a	ff 75 0c	 push	 DWORD PTR __Val$[ebp]
  0001d	e8 00 00 00 00	 call	 ??0AttackAttribute@@QAE@ABU0@@Z
$LN3@construct@5:

; 203  : 		}

  00022	e8 00 00 00 00	 call	 __EH_epilog3
  00027	c2 08 00	 ret	 8
_TEXT	ENDS
;	COMDAT text$x
text$x	SEGMENT
__unwindfunclet$?construct@?$allocator@UAttackAttribute@@@std@@QAEXPAUAttackAttribute@@$$QAU3@@Z$0:
  00000	ff 75 08	 push	 DWORD PTR __Ptr$[ebp]
  00003	ff 75 f0	 push	 DWORD PTR $T554599[ebp]
  00006	e8 00 00 00 00	 call	 ??3@YAXPAX0@Z		; operator delete
  0000b	59		 pop	 ecx
  0000c	59		 pop	 ecx
  0000d	c3		 ret	 0
__ehhandler$?construct@?$allocator@UAttackAttribute@@@std@@QAEXPAUAttackAttribute@@$$QAU3@@Z:
  0000e	8b 54 24 08	 mov	 edx, DWORD PTR [esp+8]
  00012	8d 42 0c	 lea	 eax, DWORD PTR [edx+12]
  00015	8b 4a ec	 mov	 ecx, DWORD PTR [edx-20]
  00018	33 c8		 xor	 ecx, eax
  0001a	e8 00 00 00 00	 call	 @__security_check_cookie@4
  0001f	b8 00 00 00 00	 mov	 eax, OFFSET __ehfuncinfo$?construct@?$allocator@UAttackAttribute@@@std@@QAEXPAUAttackAttribute@@$$QAU3@@Z
  00024	e9 00 00 00 00	 jmp	 ___CxxFrameHandler3
text$x	ENDS
?construct@?$allocator@UAttackAttribute@@@std@@QAEXPAUAttackAttribute@@$$QAU3@@Z ENDP ; std::allocator<AttackAttribute>::construct
PUBLIC	??0AttackAttribute@@QAE@XZ			; AttackAttribute::AttackAttribute
EXTRN	?Init@AttackAttribute@@QAEXXZ:PROC		; AttackAttribute::Init
EXTRN	__imp_??0ioHashString@@QAE@XZ:PROC
;	COMDAT xdata$x
xdata$x	SEGMENT
__unwindtable$??0AttackAttribute@@QAE@XZ DD 0ffffffffH
	DD	FLAT:__unwindfunclet$??0AttackAttribute@@QAE@XZ$0
	DD	00H
	DD	FLAT:__unwindfunclet$??0AttackAttribute@@QAE@XZ$1
	DD	01H
	DD	FLAT:__unwindfunclet$??0AttackAttribute@@QAE@XZ$2
	DD	02H
	DD	FLAT:__unwindfunclet$??0AttackAttribute@@QAE@XZ$3
__ehfuncinfo$??0AttackAttribute@@QAE@XZ DD 019930522H
	DD	04H
	DD	FLAT:__unwindtable$??0AttackAttribute@@QAE@XZ
	DD	2 DUP(00H)
	DD	2 DUP(00H)
	DD	00H
	DD	01H
; Function compile flags: /Ogsp
; File d:\lost saga for developer\youtube\tutorial\source\src\lsclient\ioattackattribute.h
xdata$x	ENDS
;	COMDAT ??0AttackAttribute@@QAE@XZ
_TEXT	SEGMENT
_this$ = -16						; size = 4
__$EHRec$ = -12						; size = 12
??0AttackAttribute@@QAE@XZ PROC				; AttackAttribute::AttackAttribute, COMDAT
; _this$ = ecx

; 107  : 	AttackAttribute()

  00000	6a 04		 push	 4
  00002	b8 00 00 00 00	 mov	 eax, __ehhandler$??0AttackAttribute@@QAE@XZ
  00007	e8 00 00 00 00	 call	 __EH_prolog3
  0000c	8b f1		 mov	 esi, ecx
  0000e	89 75 f0	 mov	 DWORD PTR _this$[ebp], esi
  00011	8b 3d 00 00 00
	00		 mov	 edi, DWORD PTR __imp_??0ioHashString@@QAE@XZ
  00017	ff d7		 call	 edi
  00019	33 db		 xor	 ebx, ebx
  0001b	8d 4e 14	 lea	 ecx, DWORD PTR [esi+20]
  0001e	89 5d fc	 mov	 DWORD PTR __$EHRec$[ebp+8], ebx
  00021	ff d7		 call	 edi
  00023	89 5e 28	 mov	 DWORD PTR [esi+40], ebx
  00026	89 5e 2c	 mov	 DWORD PTR [esi+44], ebx
  00029	89 5e 30	 mov	 DWORD PTR [esi+48], ebx
  0002c	89 5e 38	 mov	 DWORD PTR [esi+56], ebx
  0002f	89 5e 3c	 mov	 DWORD PTR [esi+60], ebx
  00032	89 5e 40	 mov	 DWORD PTR [esi+64], ebx

; 108  : 	{
; 109  : 		Init();

  00035	8b ce		 mov	 ecx, esi
  00037	c6 45 fc 03	 mov	 BYTE PTR __$EHRec$[ebp+8], 3
  0003b	e8 00 00 00 00	 call	 ?Init@AttackAttribute@@QAEXXZ ; AttackAttribute::Init

; 110  : 	}

  00040	8b c6		 mov	 eax, esi
  00042	e8 00 00 00 00	 call	 __EH_epilog3
  00047	c3		 ret	 0
_TEXT	ENDS
;	COMDAT text$x
text$x	SEGMENT
__unwindfunclet$??0AttackAttribute@@QAE@XZ$0:
  00000	8b 4d f0	 mov	 ecx, DWORD PTR _this$[ebp]
  00003	ff 25 00 00 00
	00		 jmp	 DWORD PTR __imp_??1ioHashString@@QAE@XZ
__unwindfunclet$??0AttackAttribute@@QAE@XZ$1:
  00009	8b 4d f0	 mov	 ecx, DWORD PTR _this$[ebp]
  0000c	83 c1 14	 add	 ecx, 20			; 00000014H
  0000f	ff 25 00 00 00
	00		 jmp	 DWORD PTR __imp_??1ioHashString@@QAE@XZ
__unwindfunclet$??0AttackAttribute@@QAE@XZ$2:
  00015	8b 4d f0	 mov	 ecx, DWORD PTR _this$[ebp]
  00018	83 c1 28	 add	 ecx, 40			; 00000028H
  0001b	e9 00 00 00 00	 jmp	 ??1?$vector@UWeaponInfo@@V?$allocator@UWeaponInfo@@@std@@@std@@QAE@XZ ; std::vector<WeaponInfo,std::allocator<WeaponInfo> >::~vector<WeaponInfo,std::allocator<WeaponInfo> >
__unwindfunclet$??0AttackAttribute@@QAE@XZ$3:
  00020	8b 4d f0	 mov	 ecx, DWORD PTR _this$[ebp]
  00023	83 c1 38	 add	 ecx, 56			; 00000038H
  00026	e9 00 00 00 00	 jmp	 ??1?$vector@UForceInfo@@V?$allocator@UForceInfo@@@std@@@std@@QAE@XZ ; std::vector<ForceInfo,std::allocator<ForceInfo> >::~vector<ForceInfo,std::allocator<ForceInfo> >
__ehhandler$??0AttackAttribute@@QAE@XZ:
  0002b	8b 54 24 08	 mov	 edx, DWORD PTR [esp+8]
  0002f	8d 42 0c	 lea	 eax, DWORD PTR [edx+12]
  00032	8b 4a ec	 mov	 ecx, DWORD PTR [edx-20]
  00035	33 c8		 xor	 ecx, eax
  00037	e8 00 00 00 00	 call	 @__security_check_cookie@4
  0003c	b8 00 00 00 00	 mov	 eax, OFFSET __ehfuncinfo$??0AttackAttribute@@QAE@XZ
  00041	e9 00 00 00 00	 jmp	 ___CxxFrameHandler3
text$x	ENDS
??0AttackAttribute@@QAE@XZ ENDP				; AttackAttribute::AttackAttribute
PUBLIC	??1AttackAttribute@@QAE@XZ			; AttackAttribute::~AttackAttribute
;	COMDAT xdata$x
xdata$x	SEGMENT
__unwindtable$??1AttackAttribute@@QAE@XZ DD 0ffffffffH
	DD	FLAT:__unwindfunclet$??1AttackAttribute@@QAE@XZ$0
	DD	00H
	DD	FLAT:__unwindfunclet$??1AttackAttribute@@QAE@XZ$1
	DD	01H
	DD	FLAT:__unwindfunclet$??1AttackAttribute@@QAE@XZ$2
__ehfuncinfo$??1AttackAttribute@@QAE@XZ DD 019930522H
	DD	03H
	DD	FLAT:__unwindtable$??1AttackAttribute@@QAE@XZ
	DD	2 DUP(00H)
	DD	2 DUP(00H)
	DD	00H
	DD	01H
; Function compile flags: /Ogsp
xdata$x	ENDS
;	COMDAT ??1AttackAttribute@@QAE@XZ
_TEXT	SEGMENT
_this$ = -16						; size = 4
__$EHRec$ = -12						; size = 12
??1AttackAttribute@@QAE@XZ PROC				; AttackAttribute::~AttackAttribute, COMDAT
; _this$ = ecx
  00000	6a 04		 push	 4
  00002	b8 00 00 00 00	 mov	 eax, __ehhandler$??1AttackAttribute@@QAE@XZ
  00007	e8 00 00 00 00	 call	 __EH_prolog3
  0000c	8b f1		 mov	 esi, ecx
  0000e	89 75 f0	 mov	 DWORD PTR _this$[ebp], esi
  00011	8d 4e 38	 lea	 ecx, DWORD PTR [esi+56]
  00014	c7 45 fc 02 00
	00 00		 mov	 DWORD PTR __$EHRec$[ebp+8], 2
  0001b	e8 00 00 00 00	 call	 ?_Tidy@?$vector@UForceInfo@@V?$allocator@UForceInfo@@@std@@@std@@IAEXXZ ; std::vector<ForceInfo,std::allocator<ForceInfo> >::_Tidy
  00020	8d 4e 28	 lea	 ecx, DWORD PTR [esi+40]
  00023	c6 45 fc 01	 mov	 BYTE PTR __$EHRec$[ebp+8], 1
  00027	e8 00 00 00 00	 call	 ?_Tidy@?$vector@UWeaponInfo@@V?$allocator@UWeaponInfo@@@std@@@std@@IAEXXZ ; std::vector<WeaponInfo,std::allocator<WeaponInfo> >::_Tidy
  0002c	8b 3d 00 00 00
	00		 mov	 edi, DWORD PTR __imp_??1ioHashString@@QAE@XZ
  00032	8d 4e 14	 lea	 ecx, DWORD PTR [esi+20]
  00035	c6 45 fc 00	 mov	 BYTE PTR __$EHRec$[ebp+8], 0
  00039	ff d7		 call	 edi
  0003b	83 4d fc ff	 or	 DWORD PTR __$EHRec$[ebp+8], -1
  0003f	8b ce		 mov	 ecx, esi
  00041	ff d7		 call	 edi
  00043	e8 00 00 00 00	 call	 __EH_epilog3
  00048	c3		 ret	 0
_TEXT	ENDS
;	COMDAT text$x
text$x	SEGMENT
__unwindfunclet$??1AttackAttribute@@QAE@XZ$0:
  00000	8b 4d f0	 mov	 ecx, DWORD PTR _this$[ebp]
  00003	ff 25 00 00 00
	00		 jmp	 DWORD PTR __imp_??1ioHashString@@QAE@XZ
__unwindfunclet$??1AttackAttribute@@QAE@XZ$1:
  00009	8b 4d f0	 mov	 ecx, DWORD PTR _this$[ebp]
  0000c	83 c1 14	 add	 ecx, 20			; 00000014H
  0000f	ff 25 00 00 00
	00		 jmp	 DWORD PTR __imp_??1ioHashString@@QAE@XZ
__unwindfunclet$??1AttackAttribute@@QAE@XZ$2:
  00015	8b 4d f0	 mov	 ecx, DWORD PTR _this$[ebp]
  00018	83 c1 28	 add	 ecx, 40			; 00000028H
  0001b	e9 00 00 00 00	 jmp	 ??1?$vector@UWeaponInfo@@V?$allocator@UWeaponInfo@@@std@@@std@@QAE@XZ ; std::vector<WeaponInfo,std::allocator<WeaponInfo> >::~vector<WeaponInfo,std::allocator<WeaponInfo> >
__ehhandler$??1AttackAttribute@@QAE@XZ:
  00020	8b 54 24 08	 mov	 edx, DWORD PTR [esp+8]
  00024	8d 42 0c	 lea	 eax, DWORD PTR [edx+12]
  00027	8b 4a ec	 mov	 ecx, DWORD PTR [edx-20]
  0002a	33 c8		 xor	 ecx, eax
  0002c	e8 00 00 00 00	 call	 @__security_check_cookie@4
  00031	b8 00 00 00 00	 mov	 eax, OFFSET __ehfuncinfo$??1AttackAttribute@@QAE@XZ
  00036	e9 00 00 00 00	 jmp	 ___CxxFrameHandler3
text$x	ENDS
??1AttackAttribute@@QAE@XZ ENDP				; AttackAttribute::~AttackAttribute
PUBLIC	??4AttackAttribute@@QAEAAU0@ABU0@@Z		; AttackAttribute::operator=
; Function compile flags: /Ogsp
;	COMDAT ??4AttackAttribute@@QAEAAU0@ABU0@@Z
_TEXT	SEGMENT
___that$ = 8						; size = 4
??4AttackAttribute@@QAEAAU0@ABU0@@Z PROC		; AttackAttribute::operator=, COMDAT
; _this$ = ecx
  00000	55		 push	 ebp
  00001	8b ec		 mov	 ebp, esp
  00003	53		 push	 ebx
  00004	8b 1d 00 00 00
	00		 mov	 ebx, DWORD PTR __imp_??4ioHashString@@QAEAAV0@ABV0@@Z
  0000a	56		 push	 esi
  0000b	57		 push	 edi
  0000c	8b 7d 08	 mov	 edi, DWORD PTR ___that$[ebp]
  0000f	57		 push	 edi
  00010	8b f1		 mov	 esi, ecx
  00012	ff d3		 call	 ebx
  00014	d9 47 10	 fld	 DWORD PTR [edi+16]
  00017	8d 47 14	 lea	 eax, DWORD PTR [edi+20]
  0001a	d9 5e 10	 fstp	 DWORD PTR [esi+16]
  0001d	50		 push	 eax
  0001e	8d 4e 14	 lea	 ecx, DWORD PTR [esi+20]
  00021	ff d3		 call	 ebx
  00023	d9 47 24	 fld	 DWORD PTR [edi+36]
  00026	8d 47 28	 lea	 eax, DWORD PTR [edi+40]
  00029	d9 5e 24	 fstp	 DWORD PTR [esi+36]
  0002c	50		 push	 eax
  0002d	8d 4e 28	 lea	 ecx, DWORD PTR [esi+40]
  00030	e8 00 00 00 00	 call	 ??4?$vector@UWeaponInfo@@V?$allocator@UWeaponInfo@@@std@@@std@@QAEAAV01@ABV01@@Z ; std::vector<WeaponInfo,std::allocator<WeaponInfo> >::operator=
  00035	8d 47 38	 lea	 eax, DWORD PTR [edi+56]
  00038	50		 push	 eax
  00039	8d 4e 38	 lea	 ecx, DWORD PTR [esi+56]
  0003c	e8 00 00 00 00	 call	 ??4?$vector@UForceInfo@@V?$allocator@UForceInfo@@@std@@@std@@QAEAAV01@ABV01@@Z ; std::vector<ForceInfo,std::allocator<ForceInfo> >::operator=
  00041	8b 47 48	 mov	 eax, DWORD PTR [edi+72]
  00044	89 46 48	 mov	 DWORD PTR [esi+72], eax
  00047	8b 47 4c	 mov	 eax, DWORD PTR [edi+76]
  0004a	89 46 4c	 mov	 DWORD PTR [esi+76], eax
  0004d	5f		 pop	 edi
  0004e	8b c6		 mov	 eax, esi
  00050	5e		 pop	 esi
  00051	5b		 pop	 ebx
  00052	5d		 pop	 ebp
  00053	c2 04 00	 ret	 4
??4AttackAttribute@@QAEAAU0@ABU0@@Z ENDP		; AttackAttribute::operator=
_TEXT	ENDS
PUBLIC	??_GAttackAttribute@@QAEPAXI@Z			; AttackAttribute::`scalar deleting destructor'
; Function compile flags: /Ogsp
;	COMDAT ??_GAttackAttribute@@QAEPAXI@Z
_TEXT	SEGMENT
___flags$ = 8						; size = 4
??_GAttackAttribute@@QAEPAXI@Z PROC			; AttackAttribute::`scalar deleting destructor', COMDAT
; _this$ = ecx
  00000	55		 push	 ebp
  00001	8b ec		 mov	 ebp, esp
  00003	56		 push	 esi
  00004	8b f1		 mov	 esi, ecx
  00006	e8 00 00 00 00	 call	 ??1AttackAttribute@@QAE@XZ
  0000b	f6 45 08 01	 test	 BYTE PTR ___flags$[ebp], 1
  0000f	74 07		 je	 SHORT $LN1@scalar@3
  00011	56		 push	 esi
  00012	e8 00 00 00 00	 call	 ??3@YAXPAX@Z		; operator delete
  00017	59		 pop	 ecx
$LN1@scalar@3:
  00018	8b c6		 mov	 eax, esi
  0001a	5e		 pop	 esi
  0001b	5d		 pop	 ebp
  0001c	c2 04 00	 ret	 4
??_GAttackAttribute@@QAEPAXI@Z ENDP			; AttackAttribute::`scalar deleting destructor'
_TEXT	ENDS
PUBLIC	??$_Cons_val@V?$allocator@UAttackAttribute@@@std@@UAttackAttribute@@AAU3@@std@@YAXAAV?$allocator@UAttackAttribute@@@0@PAUAttackAttribute@@AAU2@@Z ; std::_Cons_val<std::allocator<AttackAttribute>,AttackAttribute,AttackAttribute &>
;	COMDAT xdata$x
; File c:\program files (x86)\microsoft visual studio 10.0\vc\include\utility
xdata$x	SEGMENT
__unwindtable$??$_Cons_val@V?$allocator@UAttackAttribute@@@std@@UAttackAttribute@@AAU3@@std@@YAXAAV?$allocator@UAttackAttribute@@@0@PAUAttackAttribute@@AAU2@@Z DD 0ffffffffH
	DD	FLAT:__unwindfunclet$??$_Cons_val@V?$allocator@UAttackAttribute@@@std@@UAttackAttribute@@AAU3@@std@@YAXAAV?$allocator@UAttackAttribute@@@0@PAUAttackAttribute@@AAU2@@Z$0
__ehfuncinfo$??$_Cons_val@V?$allocator@UAttackAttribute@@@std@@UAttackAttribute@@AAU3@@std@@YAXAAV?$allocator@UAttackAttribute@@@0@PAUAttackAttribute@@AAU2@@Z DD 019930522H
	DD	01H
	DD	FLAT:__unwindtable$??$_Cons_val@V?$allocator@UAttackAttribute@@@std@@UAttackAttribute@@AAU3@@std@@YAXAAV?$allocator@UAttackAttribute@@@0@PAUAttackAttribute@@AAU2@@Z
	DD	2 DUP(00H)
	DD	2 DUP(00H)
	DD	00H
	DD	01H
; Function compile flags: /Ogsp
; File c:\program files (x86)\microsoft visual studio 10.0\vc\include\xmemory
xdata$x	ENDS
;	COMDAT ??$_Cons_val@V?$allocator@UAttackAttribute@@@std@@UAttackAttribute@@AAU3@@std@@YAXAAV?$allocator@UAttackAttribute@@@0@PAUAttackAttribute@@AAU2@@Z
_TEXT	SEGMENT
$T554729 = -16						; size = 4
__$EHRec$ = -12						; size = 12
__Alval$ = 8						; size = 4
__Pdest$ = 12						; size = 4
__Src$ = 16						; size = 4
??$_Cons_val@V?$allocator@UAttackAttribute@@@std@@UAttackAttribute@@AAU3@@std@@YAXAAV?$allocator@UAttackAttribute@@@0@PAUAttackAttribute@@AAU2@@Z PROC ; std::_Cons_val<std::allocator<AttackAttribute>,AttackAttribute,AttackAttribute &>, COMDAT

; 279  : 	{	// construct using allocator

  00000	6a 04		 push	 4
  00002	b8 00 00 00 00	 mov	 eax, __ehhandler$??$_Cons_val@V?$allocator@UAttackAttribute@@@std@@UAttackAttribute@@AAU3@@std@@YAXAAV?$allocator@UAttackAttribute@@@0@PAUAttackAttribute@@AAU2@@Z
  00007	e8 00 00 00 00	 call	 __EH_prolog3

; 280  : 	_Alval.construct(_Pdest, _STD forward<_Ty2>(_Src));

  0000c	8b 4d 0c	 mov	 ecx, DWORD PTR __Pdest$[ebp]
  0000f	89 4d f0	 mov	 DWORD PTR $T554729[ebp], ecx
  00012	83 65 fc 00	 and	 DWORD PTR __$EHRec$[ebp+8], 0
  00016	85 c9		 test	 ecx, ecx
  00018	74 08		 je	 SHORT $LN7@Cons_val@4
  0001a	ff 75 10	 push	 DWORD PTR __Src$[ebp]
  0001d	e8 00 00 00 00	 call	 ??0AttackAttribute@@QAE@ABU0@@Z
$LN7@Cons_val@4:

; 281  : 	}

  00022	e8 00 00 00 00	 call	 __EH_epilog3
  00027	c3		 ret	 0
_TEXT	ENDS
;	COMDAT text$x
text$x	SEGMENT
__unwindfunclet$??$_Cons_val@V?$allocator@UAttackAttribute@@@std@@UAttackAttribute@@AAU3@@std@@YAXAAV?$allocator@UAttackAttribute@@@0@PAUAttackAttribute@@AAU2@@Z$0:
  00000	ff 75 0c	 push	 DWORD PTR __Pdest$[ebp]
  00003	ff 75 f0	 push	 DWORD PTR $T554729[ebp]
  00006	e8 00 00 00 00	 call	 ??3@YAXPAX0@Z		; operator delete
  0000b	59		 pop	 ecx
  0000c	59		 pop	 ecx
  0000d	c3		 ret	 0
__ehhandler$??$_Cons_val@V?$allocator@UAttackAttribute@@@std@@UAttackAttribute@@AAU3@@std@@YAXAAV?$allocator@UAttackAttribute@@@0@PAUAttackAttribute@@AAU2@@Z:
  0000e	8b 54 24 08	 mov	 edx, DWORD PTR [esp+8]
  00012	8d 42 0c	 lea	 eax, DWORD PTR [edx+12]
  00015	8b 4a ec	 mov	 ecx, DWORD PTR [edx-20]
  00018	33 c8		 xor	 ecx, eax
  0001a	e8 00 00 00 00	 call	 @__security_check_cookie@4
  0001f	b8 00 00 00 00	 mov	 eax, OFFSET __ehfuncinfo$??$_Cons_val@V?$allocator@UAttackAttribute@@@std@@UAttackAttribute@@AAU3@@std@@YAXAAV?$allocator@UAttackAttribute@@@0@PAUAttackAttribute@@AAU2@@Z
  00024	e9 00 00 00 00	 jmp	 ___CxxFrameHandler3
text$x	ENDS
??$_Cons_val@V?$allocator@UAttackAttribute@@@std@@UAttackAttribute@@AAU3@@std@@YAXAAV?$allocator@UAttackAttribute@@@0@PAUAttackAttribute@@AAU2@@Z ENDP ; std::_Cons_val<std::allocator<AttackAttribute>,AttackAttribute,AttackAttribute &>
PUBLIC	?construct@?$allocator@UAttackAttribute@@@std@@QAEXPAUAttackAttribute@@ABU3@@Z ; std::allocator<AttackAttribute>::construct
; Function compile flags: /Ogsp
;	COMDAT ?construct@?$allocator@UAttackAttribute@@@std@@QAEXPAUAttackAttribute@@ABU3@@Z
_TEXT	SEGMENT
__Ptr$ = 8						; size = 4
__Val$ = 12						; size = 4
?construct@?$allocator@UAttackAttribute@@@std@@QAEXPAUAttackAttribute@@ABU3@@Z PROC ; std::allocator<AttackAttribute>::construct, COMDAT
; _this$ = ecx

; 196  : 		{	// construct object at _Ptr with value _Val

  00000	55		 push	 ebp
  00001	8b ec		 mov	 ebp, esp

; 197  : 		_Construct(_Ptr, _Val);

  00003	ff 75 0c	 push	 DWORD PTR __Val$[ebp]
  00006	ff 75 08	 push	 DWORD PTR __Ptr$[ebp]
  00009	e8 00 00 00 00	 call	 ??$_Construct@UAttackAttribute@@ABU1@@std@@YAXPAUAttackAttribute@@ABU1@@Z ; std::_Construct<AttackAttribute,AttackAttribute const &>
  0000e	59		 pop	 ecx
  0000f	59		 pop	 ecx

; 198  : 		}

  00010	5d		 pop	 ebp
  00011	c2 08 00	 ret	 8
?construct@?$allocator@UAttackAttribute@@@std@@QAEXPAUAttackAttribute@@ABU3@@Z ENDP ; std::allocator<AttackAttribute>::construct
_TEXT	ENDS
PUBLIC	??$_Cons_val@V?$allocator@UAttackAttribute@@@std@@UAttackAttribute@@U3@@std@@YAXAAV?$allocator@UAttackAttribute@@@0@PAUAttackAttribute@@$$QAU2@@Z ; std::_Cons_val<std::allocator<AttackAttribute>,AttackAttribute,AttackAttribute>
;	COMDAT xdata$x
; File c:\program files (x86)\microsoft visual studio 10.0\vc\include\utility
xdata$x	SEGMENT
__unwindtable$??$_Cons_val@V?$allocator@UAttackAttribute@@@std@@UAttackAttribute@@U3@@std@@YAXAAV?$allocator@UAttackAttribute@@@0@PAUAttackAttribute@@$$QAU2@@Z DD 0ffffffffH
	DD	FLAT:__unwindfunclet$??$_Cons_val@V?$allocator@UAttackAttribute@@@std@@UAttackAttribute@@U3@@std@@YAXAAV?$allocator@UAttackAttribute@@@0@PAUAttackAttribute@@$$QAU2@@Z$0
__ehfuncinfo$??$_Cons_val@V?$allocator@UAttackAttribute@@@std@@UAttackAttribute@@U3@@std@@YAXAAV?$allocator@UAttackAttribute@@@0@PAUAttackAttribute@@$$QAU2@@Z DD 019930522H
	DD	01H
	DD	FLAT:__unwindtable$??$_Cons_val@V?$allocator@UAttackAttribute@@@std@@UAttackAttribute@@U3@@std@@YAXAAV?$allocator@UAttackAttribute@@@0@PAUAttackAttribute@@$$QAU2@@Z
	DD	2 DUP(00H)
	DD	2 DUP(00H)
	DD	00H
	DD	01H
; Function compile flags: /Ogsp
; File c:\program files (x86)\microsoft visual studio 10.0\vc\include\xmemory
xdata$x	ENDS
;	COMDAT ??$_Cons_val@V?$allocator@UAttackAttribute@@@std@@UAttackAttribute@@U3@@std@@YAXAAV?$allocator@UAttackAttribute@@@0@PAUAttackAttribute@@$$QAU2@@Z
_TEXT	SEGMENT
$T554764 = -16						; size = 4
__$EHRec$ = -12						; size = 12
__Alval$ = 8						; size = 4
__Pdest$ = 12						; size = 4
__Src$ = 16						; size = 4
??$_Cons_val@V?$allocator@UAttackAttribute@@@std@@UAttackAttribute@@U3@@std@@YAXAAV?$allocator@UAttackAttribute@@@0@PAUAttackAttribute@@$$QAU2@@Z PROC ; std::_Cons_val<std::allocator<AttackAttribute>,AttackAttribute,AttackAttribute>, COMDAT

; 279  : 	{	// construct using allocator

  00000	6a 04		 push	 4
  00002	b8 00 00 00 00	 mov	 eax, __ehhandler$??$_Cons_val@V?$allocator@UAttackAttribute@@@std@@UAttackAttribute@@U3@@std@@YAXAAV?$allocator@UAttackAttribute@@@0@PAUAttackAttribute@@$$QAU2@@Z
  00007	e8 00 00 00 00	 call	 __EH_prolog3

; 280  : 	_Alval.construct(_Pdest, _STD forward<_Ty2>(_Src));

  0000c	8b 4d 0c	 mov	 ecx, DWORD PTR __Pdest$[ebp]
  0000f	89 4d f0	 mov	 DWORD PTR $T554764[ebp], ecx
  00012	83 65 fc 00	 and	 DWORD PTR __$EHRec$[ebp+8], 0
  00016	85 c9		 test	 ecx, ecx
  00018	74 08		 je	 SHORT $LN7@Cons_val@5
  0001a	ff 75 10	 push	 DWORD PTR __Src$[ebp]
  0001d	e8 00 00 00 00	 call	 ??0AttackAttribute@@QAE@ABU0@@Z
$LN7@Cons_val@5:

; 281  : 	}

  00022	e8 00 00 00 00	 call	 __EH_epilog3
  00027	c3		 ret	 0
_TEXT	ENDS
;	COMDAT text$x
text$x	SEGMENT
__unwindfunclet$??$_Cons_val@V?$allocator@UAttackAttribute@@@std@@UAttackAttribute@@U3@@std@@YAXAAV?$allocator@UAttackAttribute@@@0@PAUAttackAttribute@@$$QAU2@@Z$0:
  00000	ff 75 0c	 push	 DWORD PTR __Pdest$[ebp]
  00003	ff 75 f0	 push	 DWORD PTR $T554764[ebp]
  00006	e8 00 00 00 00	 call	 ??3@YAXPAX0@Z		; operator delete
  0000b	59		 pop	 ecx
  0000c	59		 pop	 ecx
  0000d	c3		 ret	 0
__ehhandler$??$_Cons_val@V?$allocator@UAttackAttribute@@@std@@UAttackAttribute@@U3@@std@@YAXAAV?$allocator@UAttackAttribute@@@0@PAUAttackAttribute@@$$QAU2@@Z:
  0000e	8b 54 24 08	 mov	 edx, DWORD PTR [esp+8]
  00012	8d 42 0c	 lea	 eax, DWORD PTR [edx+12]
  00015	8b 4a ec	 mov	 ecx, DWORD PTR [edx-20]
  00018	33 c8		 xor	 ecx, eax
  0001a	e8 00 00 00 00	 call	 @__security_check_cookie@4
  0001f	b8 00 00 00 00	 mov	 eax, OFFSET __ehfuncinfo$??$_Cons_val@V?$allocator@UAttackAttribute@@@std@@UAttackAttribute@@U3@@std@@YAXAAV?$allocator@UAttackAttribute@@@0@PAUAttackAttribute@@$$QAU2@@Z
  00024	e9 00 00 00 00	 jmp	 ___CxxFrameHandler3
text$x	ENDS
??$_Cons_val@V?$allocator@UAttackAttribute@@@std@@UAttackAttribute@@U3@@std@@YAXAAV?$allocator@UAttackAttribute@@@0@PAUAttackAttribute@@$$QAU2@@Z ENDP ; std::_Cons_val<std::allocator<AttackAttribute>,AttackAttribute,AttackAttribute>
PUBLIC	??$_Move@PAUAttackAttribute@@PAU1@@std@@YAPAUAttackAttribute@@PAU1@00U_Nonscalar_ptr_iterator_tag@0@@Z ; std::_Move<AttackAttribute *,AttackAttribute *>
; Function compile flags: /Ogsp
; File c:\program files (x86)\microsoft visual studio 10.0\vc\include\xutility
;	COMDAT ??$_Move@PAUAttackAttribute@@PAU1@@std@@YAPAUAttackAttribute@@PAU1@00U_Nonscalar_ptr_iterator_tag@0@@Z
_TEXT	SEGMENT
__First$ = 8						; size = 4
__Last$ = 12						; size = 4
__Dest$ = 16						; size = 4
___formal$ = 20						; size = 1
??$_Move@PAUAttackAttribute@@PAU1@@std@@YAPAUAttackAttribute@@PAU1@00U_Nonscalar_ptr_iterator_tag@0@@Z PROC ; std::_Move<AttackAttribute *,AttackAttribute *>, COMDAT

; 2512 : 	{	// move [_First, _Last) to [_Dest, ...), arbitrary iterators

  00000	55		 push	 ebp
  00001	8b ec		 mov	 ebp, esp
  00003	56		 push	 esi

; 2513 : 	for (; _First != _Last; ++_Dest, ++_First)

  00004	8b 75 08	 mov	 esi, DWORD PTR __First$[ebp]
  00007	eb 10		 jmp	 SHORT $LN11@Move@3
$LL3@Move@3:

; 2514 : 		*_Dest = _STD move(*_First);

  00009	8b 4d 10	 mov	 ecx, DWORD PTR __Dest$[ebp]
  0000c	56		 push	 esi
  0000d	e8 00 00 00 00	 call	 ??4AttackAttribute@@QAEAAU0@ABU0@@Z
  00012	83 45 10 50	 add	 DWORD PTR __Dest$[ebp], 80 ; 00000050H
  00016	83 c6 50	 add	 esi, 80			; 00000050H
$LN11@Move@3:

; 2513 : 	for (; _First != _Last; ++_Dest, ++_First)

  00019	3b 75 0c	 cmp	 esi, DWORD PTR __Last$[ebp]
  0001c	75 eb		 jne	 SHORT $LL3@Move@3

; 2515 : 	return (_Dest);

  0001e	8b 45 10	 mov	 eax, DWORD PTR __Dest$[ebp]
  00021	5e		 pop	 esi

; 2516 : 	}

  00022	5d		 pop	 ebp
  00023	c3		 ret	 0
??$_Move@PAUAttackAttribute@@PAU1@@std@@YAPAUAttackAttribute@@PAU1@00U_Nonscalar_ptr_iterator_tag@0@@Z ENDP ; std::_Move<AttackAttribute *,AttackAttribute *>
_TEXT	ENDS
PUBLIC	??$_Destroy@UAttackAttribute@@@std@@YAXPAUAttackAttribute@@@Z ; std::_Destroy<AttackAttribute>
; Function compile flags: /Ogsp
; File c:\program files (x86)\microsoft visual studio 10.0\vc\include\xmemory
;	COMDAT ??$_Destroy@UAttackAttribute@@@std@@YAXPAUAttackAttribute@@@Z
_TEXT	SEGMENT
__Ptr$ = 8						; size = 4
??$_Destroy@UAttackAttribute@@@std@@YAXPAUAttackAttribute@@@Z PROC ; std::_Destroy<AttackAttribute>, COMDAT

; 62   : 	{	// destroy object at _Ptr

  00000	55		 push	 ebp
  00001	8b ec		 mov	 ebp, esp

; 63   : 	_Ptr->~_Ty();

  00003	8b 4d 08	 mov	 ecx, DWORD PTR __Ptr$[ebp]

; 64   : 	}

  00006	5d		 pop	 ebp

; 63   : 	_Ptr->~_Ty();

  00007	e9 00 00 00 00	 jmp	 ??1AttackAttribute@@QAE@XZ
??$_Destroy@UAttackAttribute@@@std@@YAXPAUAttackAttribute@@@Z ENDP ; std::_Destroy<AttackAttribute>
_TEXT	ENDS
PUBLIC	??$_Cons_val@V?$allocator@UAttackAttribute@@@std@@UAttackAttribute@@ABU3@@std@@YAXAAV?$allocator@UAttackAttribute@@@0@PAUAttackAttribute@@ABU2@@Z ; std::_Cons_val<std::allocator<AttackAttribute>,AttackAttribute,AttackAttribute const &>
; Function compile flags: /Ogsp
;	COMDAT ??$_Cons_val@V?$allocator@UAttackAttribute@@@std@@UAttackAttribute@@ABU3@@std@@YAXAAV?$allocator@UAttackAttribute@@@0@PAUAttackAttribute@@ABU2@@Z
_TEXT	SEGMENT
__Alval$ = 8						; size = 4
__Pdest$ = 12						; size = 4
__Src$ = 16						; size = 4
??$_Cons_val@V?$allocator@UAttackAttribute@@@std@@UAttackAttribute@@ABU3@@std@@YAXAAV?$allocator@UAttackAttribute@@@0@PAUAttackAttribute@@ABU2@@Z PROC ; std::_Cons_val<std::allocator<AttackAttribute>,AttackAttribute,AttackAttribute const &>, COMDAT

; 279  : 	{	// construct using allocator

  00000	55		 push	 ebp
  00001	8b ec		 mov	 ebp, esp

; 280  : 	_Alval.construct(_Pdest, _STD forward<_Ty2>(_Src));

  00003	ff 75 10	 push	 DWORD PTR __Src$[ebp]
  00006	ff 75 0c	 push	 DWORD PTR __Pdest$[ebp]
  00009	e8 00 00 00 00	 call	 ??$_Construct@UAttackAttribute@@ABU1@@std@@YAXPAUAttackAttribute@@ABU1@@Z ; std::_Construct<AttackAttribute,AttackAttribute const &>
  0000e	59		 pop	 ecx
  0000f	59		 pop	 ecx

; 281  : 	}

  00010	5d		 pop	 ebp
  00011	c3		 ret	 0
??$_Cons_val@V?$allocator@UAttackAttribute@@@std@@UAttackAttribute@@ABU3@@std@@YAXAAV?$allocator@UAttackAttribute@@@0@PAUAttackAttribute@@ABU2@@Z ENDP ; std::_Cons_val<std::allocator<AttackAttribute>,AttackAttribute,AttackAttribute const &>
_TEXT	ENDS
PUBLIC	??$_Move@PAUAttackAttribute@@PAU1@@std@@YAPAUAttackAttribute@@PAU1@00@Z ; std::_Move<AttackAttribute *,AttackAttribute *>
; Function compile flags: /Ogsp
; File c:\program files (x86)\microsoft visual studio 10.0\vc\include\xutility
;	COMDAT ??$_Move@PAUAttackAttribute@@PAU1@@std@@YAPAUAttackAttribute@@PAU1@00@Z
_TEXT	SEGMENT
__Cat$554807 = -4					; size = 1
__First$ = 8						; size = 4
__Last$ = 12						; size = 4
__Dest$ = 16						; size = 4
??$_Move@PAUAttackAttribute@@PAU1@@std@@YAPAUAttackAttribute@@PAU1@00@Z PROC ; std::_Move<AttackAttribute *,AttackAttribute *>, COMDAT

; 2533 : 	{	// move [_First, _Last) to [_Dest, ...), unchecked

  00000	55		 push	 ebp
  00001	8b ec		 mov	 ebp, esp
  00003	51		 push	 ecx

; 2534 : 	return (_Move(_First, _Last,
; 2535 : 		_Dest, _Ptr_cat(_First, _Dest)));

  00004	ff 75 fc	 push	 DWORD PTR __Cat$554807[ebp]
  00007	ff 75 10	 push	 DWORD PTR __Dest$[ebp]
  0000a	ff 75 0c	 push	 DWORD PTR __Last$[ebp]
  0000d	ff 75 08	 push	 DWORD PTR __First$[ebp]
  00010	e8 00 00 00 00	 call	 ??$_Move@PAUAttackAttribute@@PAU1@@std@@YAPAUAttackAttribute@@PAU1@00U_Nonscalar_ptr_iterator_tag@0@@Z ; std::_Move<AttackAttribute *,AttackAttribute *>
  00015	83 c4 10	 add	 esp, 16			; 00000010H

; 2536 : 	}

  00018	c9		 leave
  00019	c3		 ret	 0
??$_Move@PAUAttackAttribute@@PAU1@@std@@YAPAUAttackAttribute@@PAU1@00@Z ENDP ; std::_Move<AttackAttribute *,AttackAttribute *>
_TEXT	ENDS
PUBLIC	?destroy@?$allocator@UAttackAttribute@@@std@@QAEXPAUAttackAttribute@@@Z ; std::allocator<AttackAttribute>::destroy
; Function compile flags: /Ogsp
; File c:\program files (x86)\microsoft visual studio 10.0\vc\include\xmemory
;	COMDAT ?destroy@?$allocator@UAttackAttribute@@@std@@QAEXPAUAttackAttribute@@@Z
_TEXT	SEGMENT
__Ptr$ = 8						; size = 4
?destroy@?$allocator@UAttackAttribute@@@std@@QAEXPAUAttackAttribute@@@Z PROC ; std::allocator<AttackAttribute>::destroy, COMDAT
; _this$ = ecx

; 212  : 		{	// destroy object at _Ptr

  00000	55		 push	 ebp
  00001	8b ec		 mov	 ebp, esp

; 213  : 		_Destroy(_Ptr);

  00003	8b 4d 08	 mov	 ecx, DWORD PTR __Ptr$[ebp]
  00006	e8 00 00 00 00	 call	 ??1AttackAttribute@@QAE@XZ

; 214  : 		}

  0000b	5d		 pop	 ebp
  0000c	c2 04 00	 ret	 4
?destroy@?$allocator@UAttackAttribute@@@std@@QAEXPAUAttackAttribute@@@Z ENDP ; std::allocator<AttackAttribute>::destroy
_TEXT	ENDS
PUBLIC	??$_Dest_val@V?$allocator@UAttackAttribute@@@std@@UAttackAttribute@@@std@@YAXAAV?$allocator@UAttackAttribute@@@0@PAUAttackAttribute@@@Z ; std::_Dest_val<std::allocator<AttackAttribute>,AttackAttribute>
; Function compile flags: /Ogsp
;	COMDAT ??$_Dest_val@V?$allocator@UAttackAttribute@@@std@@UAttackAttribute@@@std@@YAXAAV?$allocator@UAttackAttribute@@@0@PAUAttackAttribute@@@Z
_TEXT	SEGMENT
__Alval$ = 8						; size = 4
__Pdest$ = 12						; size = 4
??$_Dest_val@V?$allocator@UAttackAttribute@@@std@@UAttackAttribute@@@std@@YAXAAV?$allocator@UAttackAttribute@@@0@PAUAttackAttribute@@@Z PROC ; std::_Dest_val<std::allocator<AttackAttribute>,AttackAttribute>, COMDAT

; 286  : 	{	// destroy using allocator

  00000	55		 push	 ebp
  00001	8b ec		 mov	 ebp, esp

; 287  : 	_Alval.destroy(_Pdest);

  00003	8b 4d 0c	 mov	 ecx, DWORD PTR __Pdest$[ebp]

; 288  : 	}

  00006	5d		 pop	 ebp

; 287  : 	_Alval.destroy(_Pdest);

  00007	e9 00 00 00 00	 jmp	 ??1AttackAttribute@@QAE@XZ
??$_Dest_val@V?$allocator@UAttackAttribute@@@std@@UAttackAttribute@@@std@@YAXAAV?$allocator@UAttackAttribute@@@0@PAUAttackAttribute@@@Z ENDP ; std::_Dest_val<std::allocator<AttackAttribute>,AttackAttribute>
_TEXT	ENDS
PUBLIC	??$_Uninit_copy@V?$_Vector_const_iterator@V?$_Vector_val@UAttackAttribute@@V?$allocator@UAttackAttribute@@@std@@@std@@@std@@PAUAttackAttribute@@V?$allocator@UAttackAttribute@@@2@@std@@YAPAUAttackAttribute@@V?$_Vector_const_iterator@V?$_Vector_val@UAttackAttribute@@V?$allocator@UAttackAttribute@@@std@@@std@@@0@0PAU1@AAV?$allocator@UAttackAttribute@@@0@U_Nonscalar_ptr_iterator_tag@0@@Z ; std::_Uninit_copy<std::_Vector_const_iterator<std::_Vector_val<AttackAttribute,std::allocator<AttackAttribute> > >,AttackAttribute *,std::allocator<AttackAttribute> >
;	COMDAT xdata$x
; File c:\program files (x86)\microsoft visual studio 10.0\vc\include\vector
xdata$x	SEGMENT
__catchsym$??$_Uninit_copy@V?$_Vector_const_iterator@V?$_Vector_val@UAttackAttribute@@V?$allocator@UAttackAttribute@@@std@@@std@@@std@@PAUAttackAttribute@@V?$allocator@UAttackAttribute@@@2@@std@@YAPAUAttackAttribute@@V?$_Vector_const_iterator@V?$_Vector_val@UAttackAttribute@@V?$allocator@UAttackAttribute@@@std@@@std@@@0@0PAU1@AAV?$allocator@UAttackAttribute@@@0@U_Nonscalar_ptr_iterator_tag@0@@Z$2 DD 040H
	DD	00H
	DD	00H
	DD	FLAT:__catch$??$_Uninit_copy@V?$_Vector_const_iterator@V?$_Vector_val@UAttackAttribute@@V?$allocator@UAttackAttribute@@@std@@@std@@@std@@PAUAttackAttribute@@V?$allocator@UAttackAttribute@@@2@@std@@YAPAUAttackAttribute@@V?$_Vector_const_iterator@V?$_Vector_val@UAttackAttribute@@V?$allocator@UAttackAttribute@@@std@@@std@@@0@0PAU1@AAV?$allocator@UAttackAttribute@@@0@U_Nonscalar_ptr_iterator_tag@0@@Z$0
__unwindtable$??$_Uninit_copy@V?$_Vector_const_iterator@V?$_Vector_val@UAttackAttribute@@V?$allocator@UAttackAttribute@@@std@@@std@@@std@@PAUAttackAttribute@@V?$allocator@UAttackAttribute@@@2@@std@@YAPAUAttackAttribute@@V?$_Vector_const_iterator@V?$_Vector_val@UAttackAttribute@@V?$allocator@UAttackAttribute@@@std@@@std@@@0@0PAU1@AAV?$allocator@UAttackAttribute@@@0@U_Nonscalar_ptr_iterator_tag@0@@Z DD 0ffffffffH
	DD	00H
	DD	0ffffffffH
	DD	00H
__tryblocktable$??$_Uninit_copy@V?$_Vector_const_iterator@V?$_Vector_val@UAttackAttribute@@V?$allocator@UAttackAttribute@@@std@@@std@@@std@@PAUAttackAttribute@@V?$allocator@UAttackAttribute@@@2@@std@@YAPAUAttackAttribute@@V?$_Vector_const_iterator@V?$_Vector_val@UAttackAttribute@@V?$allocator@UAttackAttribute@@@std@@@std@@@0@0PAU1@AAV?$allocator@UAttackAttribute@@@0@U_Nonscalar_ptr_iterator_tag@0@@Z DD 00H
	DD	00H
	DD	01H
	DD	01H
	DD	FLAT:__catchsym$??$_Uninit_copy@V?$_Vector_const_iterator@V?$_Vector_val@UAttackAttribute@@V?$allocator@UAttackAttribute@@@std@@@std@@@std@@PAUAttackAttribute@@V?$allocator@UAttackAttribute@@@2@@std@@YAPAUAttackAttribute@@V?$_Vector_const_iterator@V?$_Vector_val@UAttackAttribute@@V?$allocator@UAttackAttribute@@@std@@@std@@@0@0PAU1@AAV?$allocator@UAttackAttribute@@@0@U_Nonscalar_ptr_iterator_tag@0@@Z$2
__ehfuncinfo$??$_Uninit_copy@V?$_Vector_const_iterator@V?$_Vector_val@UAttackAttribute@@V?$allocator@UAttackAttribute@@@std@@@std@@@std@@PAUAttackAttribute@@V?$allocator@UAttackAttribute@@@2@@std@@YAPAUAttackAttribute@@V?$_Vector_const_iterator@V?$_Vector_val@UAttackAttribute@@V?$allocator@UAttackAttribute@@@std@@@std@@@0@0PAU1@AAV?$allocator@UAttackAttribute@@@0@U_Nonscalar_ptr_iterator_tag@0@@Z DD 019930522H
	DD	02H
	DD	FLAT:__unwindtable$??$_Uninit_copy@V?$_Vector_const_iterator@V?$_Vector_val@UAttackAttribute@@V?$allocator@UAttackAttribute@@@std@@@std@@@std@@PAUAttackAttribute@@V?$allocator@UAttackAttribute@@@2@@std@@YAPAUAttackAttribute@@V?$_Vector_const_iterator@V?$_Vector_val@UAttackAttribute@@V?$allocator@UAttackAttribute@@@std@@@std@@@0@0PAU1@AAV?$allocator@UAttackAttribute@@@0@U_Nonscalar_ptr_iterator_tag@0@@Z
	DD	01H
	DD	FLAT:__tryblocktable$??$_Uninit_copy@V?$_Vector_const_iterator@V?$_Vector_val@UAttackAttribute@@V?$allocator@UAttackAttribute@@@std@@@std@@@std@@PAUAttackAttribute@@V?$allocator@UAttackAttribute@@@2@@std@@YAPAUAttackAttribute@@V?$_Vector_const_iterator@V?$_Vector_val@UAttackAttribute@@V?$allocator@UAttackAttribute@@@std@@@std@@@0@0PAU1@AAV?$allocator@UAttackAttribute@@@0@U_Nonscalar_ptr_iterator_tag@0@@Z
	DD	2 DUP(00H)
	DD	00H
	DD	01H
; Function compile flags: /Ogsp
; File c:\program files (x86)\microsoft visual studio 10.0\vc\include\memory
xdata$x	ENDS
;	COMDAT ??$_Uninit_copy@V?$_Vector_const_iterator@V?$_Vector_val@UAttackAttribute@@V?$allocator@UAttackAttribute@@@std@@@std@@@std@@PAUAttackAttribute@@V?$allocator@UAttackAttribute@@@2@@std@@YAPAUAttackAttribute@@V?$_Vector_const_iterator@V?$_Vector_val@UAttackAttribute@@V?$allocator@UAttackAttribute@@@std@@@std@@@0@0PAU1@AAV?$allocator@UAttackAttribute@@@0@U_Nonscalar_ptr_iterator_tag@0@@Z
_TEXT	SEGMENT
__Next$ = -20						; size = 4
__$EHRec$ = -16						; size = 16
__First$ = 8						; size = 4
__Last$ = 12						; size = 4
__Dest$ = 16						; size = 4
__Al$ = 20						; size = 4
___formal$ = 24						; size = 1
??$_Uninit_copy@V?$_Vector_const_iterator@V?$_Vector_val@UAttackAttribute@@V?$allocator@UAttackAttribute@@@std@@@std@@@std@@PAUAttackAttribute@@V?$allocator@UAttackAttribute@@@2@@std@@YAPAUAttackAttribute@@V?$_Vector_const_iterator@V?$_Vector_val@UAttackAttribute@@V?$allocator@UAttackAttribute@@@std@@@std@@@0@0PAU1@AAV?$allocator@UAttackAttribute@@@0@U_Nonscalar_ptr_iterator_tag@0@@Z PROC ; std::_Uninit_copy<std::_Vector_const_iterator<std::_Vector_val<AttackAttribute,std::allocator<AttackAttribute> > >,AttackAttribute *,std::allocator<AttackAttribute> >, COMDAT

; 369  : 	{	// copy [_First, _Last) to raw _Dest, using _Al, arbitrary type

  00000	6a 08		 push	 8
  00002	b8 00 00 00 00	 mov	 eax, __ehhandler$??$_Uninit_copy@V?$_Vector_const_iterator@V?$_Vector_val@UAttackAttribute@@V?$allocator@UAttackAttribute@@@std@@@std@@@std@@PAUAttackAttribute@@V?$allocator@UAttackAttribute@@@2@@std@@YAPAUAttackAttribute@@V?$_Vector_const_iterator@V?$_Vector_val@UAttackAttribute@@V?$allocator@UAttackAttribute@@@std@@@std@@@0@0PAU1@AAV?$allocator@UAttackAttribute@@@0@U_Nonscalar_ptr_iterator_tag@0@@Z
  00007	e8 00 00 00 00	 call	 __EH_prolog3_catch

; 370  : 	_DEBUG_RANGE(_First, _Last);
; 371  : 	_DEBUG_POINTER(_Dest);
; 372  : 	_FwdIt _Next = _Dest;

  0000c	8b 45 10	 mov	 eax, DWORD PTR __Dest$[ebp]

; 373  : 
; 374  : 	_TRY_BEGIN

  0000f	83 65 fc 00	 and	 DWORD PTR __$EHRec$[ebp+12], 0
  00013	89 45 ec	 mov	 DWORD PTR __Next$[ebp], eax

; 375  : 	for (; _First != _Last; ++_Dest, ++_First)

$LL14@Uninit_cop@5:
  00016	8b 45 08	 mov	 eax, DWORD PTR __First$[ebp]
  00019	3b 45 0c	 cmp	 eax, DWORD PTR __Last$[ebp]
  0001c	74 32		 je	 SHORT $LN4@Uninit_cop@5

; 376  : 		_Cons_val(_Al, _Dest, *_First);

  0001e	50		 push	 eax
  0001f	ff 75 10	 push	 DWORD PTR __Dest$[ebp]
  00022	e8 00 00 00 00	 call	 ??$_Construct@UAttackAttribute@@ABU1@@std@@YAXPAUAttackAttribute@@ABU1@@Z ; std::_Construct<AttackAttribute,AttackAttribute const &>
  00027	83 45 10 50	 add	 DWORD PTR __Dest$[ebp], 80 ; 00000050H
  0002b	83 45 08 50	 add	 DWORD PTR __First$[ebp], 80 ; 00000050H
  0002f	59		 pop	 ecx
  00030	59		 pop	 ecx
  00031	eb e3		 jmp	 SHORT $LL14@Uninit_cop@5
__catch$??$_Uninit_copy@V?$_Vector_const_iterator@V?$_Vector_val@UAttackAttribute@@V?$allocator@UAttackAttribute@@@std@@@std@@@std@@PAUAttackAttribute@@V?$allocator@UAttackAttribute@@@2@@std@@YAPAUAttackAttribute@@V?$_Vector_const_iterator@V?$_Vector_val@UAttackAttribute@@V?$allocator@UAttackAttribute@@@std@@@std@@@0@0PAU1@AAV?$allocator@UAttackAttribute@@@0@U_Nonscalar_ptr_iterator_tag@0@@Z$0:

; 377  : 	_CATCH_ALL
; 378  : 	for (; _Next != _Dest; ++_Next)

  00033	8b 75 ec	 mov	 esi, DWORD PTR __Next$[ebp]
  00036	eb 0a		 jmp	 SHORT $LN45@Uninit_cop@5
$LL3@Uninit_cop@5:

; 379  : 		_Dest_val(_Al, _Next);

  00038	8b ce		 mov	 ecx, esi
  0003a	e8 00 00 00 00	 call	 ??1AttackAttribute@@QAE@XZ
  0003f	83 c6 50	 add	 esi, 80			; 00000050H
$LN45@Uninit_cop@5:

; 377  : 	_CATCH_ALL
; 378  : 	for (; _Next != _Dest; ++_Next)

  00042	3b 75 10	 cmp	 esi, DWORD PTR __Dest$[ebp]
  00045	75 f1		 jne	 SHORT $LL3@Uninit_cop@5

; 380  : 	_RERAISE;

  00047	6a 00		 push	 0
  00049	6a 00		 push	 0
  0004b	e8 00 00 00 00	 call	 __CxxThrowException@8
$LN46@Uninit_cop@5:
$LN4@Uninit_cop@5:

; 381  : 	_CATCH_END
; 382  : 	return (_Dest);

  00050	8b 45 10	 mov	 eax, DWORD PTR __Dest$[ebp]

; 383  : 	}

  00053	e8 00 00 00 00	 call	 __EH_epilog3
  00058	c3		 ret	 0
$LN44@Uninit_cop@5:
_TEXT	ENDS
;	COMDAT text$x
text$x	SEGMENT
__ehhandler$??$_Uninit_copy@V?$_Vector_const_iterator@V?$_Vector_val@UAttackAttribute@@V?$allocator@UAttackAttribute@@@std@@@std@@@std@@PAUAttackAttribute@@V?$allocator@UAttackAttribute@@@2@@std@@YAPAUAttackAttribute@@V?$_Vector_const_iterator@V?$_Vector_val@UAttackAttribute@@V?$allocator@UAttackAttribute@@@std@@@std@@@0@0PAU1@AAV?$allocator@UAttackAttribute@@@0@U_Nonscalar_ptr_iterator_tag@0@@Z:
  00000	8b 54 24 08	 mov	 edx, DWORD PTR [esp+8]
  00004	8d 42 0c	 lea	 eax, DWORD PTR [edx+12]
  00007	8b 4a e8	 mov	 ecx, DWORD PTR [edx-24]
  0000a	33 c8		 xor	 ecx, eax
  0000c	e8 00 00 00 00	 call	 @__security_check_cookie@4
  00011	b8 00 00 00 00	 mov	 eax, OFFSET __ehfuncinfo$??$_Uninit_copy@V?$_Vector_const_iterator@V?$_Vector_val@UAttackAttribute@@V?$allocator@UAttackAttribute@@@std@@@std@@@std@@PAUAttackAttribute@@V?$allocator@UAttackAttribute@@@2@@std@@YAPAUAttackAttribute@@V?$_Vector_const_iterator@V?$_Vector_val@UAttackAttribute@@V?$allocator@UAttackAttribute@@@std@@@std@@@0@0PAU1@AAV?$allocator@UAttackAttribute@@@0@U_Nonscalar_ptr_iterator_tag@0@@Z
  00016	e9 00 00 00 00	 jmp	 ___CxxFrameHandler3
text$x	ENDS
??$_Uninit_copy@V?$_Vector_const_iterator@V?$_Vector_val@UAttackAttribute@@V?$allocator@UAttackAttribute@@@std@@@std@@@std@@PAUAttackAttribute@@V?$allocator@UAttackAttribute@@@2@@std@@YAPAUAttackAttribute@@V?$_Vector_const_iterator@V?$_Vector_val@UAttackAttribute@@V?$allocator@UAttackAttribute@@@std@@@std@@@0@0PAU1@AAV?$allocator@UAttackAttribute@@@0@U_Nonscalar_ptr_iterator_tag@0@@Z ENDP ; std::_Uninit_copy<std::_Vector_const_iterator<std::_Vector_val<AttackAttribute,std::allocator<AttackAttribute> > >,AttackAttribute *,std::allocator<AttackAttribute> >
PUBLIC	??$_Uninit_move@PAUAttackAttribute@@PAU1@V?$allocator@UAttackAttribute@@@std@@U1@@std@@YAPAUAttackAttribute@@PAU1@00AAV?$allocator@UAttackAttribute@@@0@0U_Nonscalar_ptr_iterator_tag@0@@Z ; std::_Uninit_move<AttackAttribute *,AttackAttribute *,std::allocator<AttackAttribute>,AttackAttribute>
;	COMDAT xdata$x
; File c:\program files (x86)\microsoft visual studio 10.0\vc\include\vector
xdata$x	SEGMENT
__catchsym$??$_Uninit_move@PAUAttackAttribute@@PAU1@V?$allocator@UAttackAttribute@@@std@@U1@@std@@YAPAUAttackAttribute@@PAU1@00AAV?$allocator@UAttackAttribute@@@0@0U_Nonscalar_ptr_iterator_tag@0@@Z$2 DD 040H
	DD	00H
	DD	00H
	DD	FLAT:__catch$??$_Uninit_move@PAUAttackAttribute@@PAU1@V?$allocator@UAttackAttribute@@@std@@U1@@std@@YAPAUAttackAttribute@@PAU1@00AAV?$allocator@UAttackAttribute@@@0@0U_Nonscalar_ptr_iterator_tag@0@@Z$0
__unwindtable$??$_Uninit_move@PAUAttackAttribute@@PAU1@V?$allocator@UAttackAttribute@@@std@@U1@@std@@YAPAUAttackAttribute@@PAU1@00AAV?$allocator@UAttackAttribute@@@0@0U_Nonscalar_ptr_iterator_tag@0@@Z DD 0ffffffffH
	DD	00H
	DD	0ffffffffH
	DD	00H
__tryblocktable$??$_Uninit_move@PAUAttackAttribute@@PAU1@V?$allocator@UAttackAttribute@@@std@@U1@@std@@YAPAUAttackAttribute@@PAU1@00AAV?$allocator@UAttackAttribute@@@0@0U_Nonscalar_ptr_iterator_tag@0@@Z DD 00H
	DD	00H
	DD	01H
	DD	01H
	DD	FLAT:__catchsym$??$_Uninit_move@PAUAttackAttribute@@PAU1@V?$allocator@UAttackAttribute@@@std@@U1@@std@@YAPAUAttackAttribute@@PAU1@00AAV?$allocator@UAttackAttribute@@@0@0U_Nonscalar_ptr_iterator_tag@0@@Z$2
__ehfuncinfo$??$_Uninit_move@PAUAttackAttribute@@PAU1@V?$allocator@UAttackAttribute@@@std@@U1@@std@@YAPAUAttackAttribute@@PAU1@00AAV?$allocator@UAttackAttribute@@@0@0U_Nonscalar_ptr_iterator_tag@0@@Z DD 019930522H
	DD	02H
	DD	FLAT:__unwindtable$??$_Uninit_move@PAUAttackAttribute@@PAU1@V?$allocator@UAttackAttribute@@@std@@U1@@std@@YAPAUAttackAttribute@@PAU1@00AAV?$allocator@UAttackAttribute@@@0@0U_Nonscalar_ptr_iterator_tag@0@@Z
	DD	01H
	DD	FLAT:__tryblocktable$??$_Uninit_move@PAUAttackAttribute@@PAU1@V?$allocator@UAttackAttribute@@@std@@U1@@std@@YAPAUAttackAttribute@@PAU1@00AAV?$allocator@UAttackAttribute@@@0@0U_Nonscalar_ptr_iterator_tag@0@@Z
	DD	2 DUP(00H)
	DD	00H
	DD	01H
; Function compile flags: /Ogsp
; File c:\program files (x86)\microsoft visual studio 10.0\vc\include\memory
xdata$x	ENDS
;	COMDAT ??$_Uninit_move@PAUAttackAttribute@@PAU1@V?$allocator@UAttackAttribute@@@std@@U1@@std@@YAPAUAttackAttribute@@PAU1@00AAV?$allocator@UAttackAttribute@@@0@0U_Nonscalar_ptr_iterator_tag@0@@Z
_TEXT	SEGMENT
__Next$ = -20						; size = 4
__$EHRec$ = -16						; size = 16
__First$ = 8						; size = 4
__Last$ = 12						; size = 4
__Dest$ = 16						; size = 4
__Al$ = 20						; size = 4
___formal$ = 24						; size = 4
___formal$ = 28						; size = 1
??$_Uninit_move@PAUAttackAttribute@@PAU1@V?$allocator@UAttackAttribute@@@std@@U1@@std@@YAPAUAttackAttribute@@PAU1@00AAV?$allocator@UAttackAttribute@@@0@0U_Nonscalar_ptr_iterator_tag@0@@Z PROC ; std::_Uninit_move<AttackAttribute *,AttackAttribute *,std::allocator<AttackAttribute>,AttackAttribute>, COMDAT

; 424  : 	{	// move [_First, _Last) to raw _Dest, using _Al, arbitrary type

  00000	6a 08		 push	 8
  00002	b8 00 00 00 00	 mov	 eax, __ehhandler$??$_Uninit_move@PAUAttackAttribute@@PAU1@V?$allocator@UAttackAttribute@@@std@@U1@@std@@YAPAUAttackAttribute@@PAU1@00AAV?$allocator@UAttackAttribute@@@0@0U_Nonscalar_ptr_iterator_tag@0@@Z
  00007	e8 00 00 00 00	 call	 __EH_prolog3_catch

; 425  : 	_DEBUG_RANGE(_First, _Last);
; 426  : 	_DEBUG_POINTER(_Dest);
; 427  : 	_FwdIt _Next = _Dest;

  0000c	8b 45 10	 mov	 eax, DWORD PTR __Dest$[ebp]

; 428  : 
; 429  : 	_TRY_BEGIN

  0000f	83 65 fc 00	 and	 DWORD PTR __$EHRec$[ebp+12], 0
  00013	8b 75 08	 mov	 esi, DWORD PTR __First$[ebp]
  00016	89 45 ec	 mov	 DWORD PTR __Next$[ebp], eax
$LL6@Uninit_mov:

; 430  : 	for (; _First != _Last; ++_Dest, ++_First)

  00019	3b 75 0c	 cmp	 esi, DWORD PTR __Last$[ebp]
  0001c	74 35		 je	 SHORT $LN4@Uninit_mov

; 431  : 		_Cons_val(_Al, _Dest, (_Valty &&)*_First);

  0001e	56		 push	 esi
  0001f	ff 75 10	 push	 DWORD PTR __Dest$[ebp]
  00022	ff 75 14	 push	 DWORD PTR __Al$[ebp]
  00025	e8 00 00 00 00	 call	 ??$_Cons_val@V?$allocator@UAttackAttribute@@@std@@UAttackAttribute@@U3@@std@@YAXAAV?$allocator@UAttackAttribute@@@0@PAUAttackAttribute@@$$QAU2@@Z ; std::_Cons_val<std::allocator<AttackAttribute>,AttackAttribute,AttackAttribute>
  0002a	83 45 10 50	 add	 DWORD PTR __Dest$[ebp], 80 ; 00000050H
  0002e	83 c4 0c	 add	 esp, 12			; 0000000cH
  00031	83 c6 50	 add	 esi, 80			; 00000050H
  00034	eb e3		 jmp	 SHORT $LL6@Uninit_mov
__catch$??$_Uninit_move@PAUAttackAttribute@@PAU1@V?$allocator@UAttackAttribute@@@std@@U1@@std@@YAPAUAttackAttribute@@PAU1@00AAV?$allocator@UAttackAttribute@@@0@0U_Nonscalar_ptr_iterator_tag@0@@Z$0:

; 432  : 	_CATCH_ALL
; 433  : 	for (; _Next != _Dest; ++_Next)

  00036	8b 75 ec	 mov	 esi, DWORD PTR __Next$[ebp]
  00039	eb 0a		 jmp	 SHORT $LN29@Uninit_mov
$LL3@Uninit_mov:

; 434  : 		_Dest_val(_Al, _Next);

  0003b	8b ce		 mov	 ecx, esi
  0003d	e8 00 00 00 00	 call	 ??1AttackAttribute@@QAE@XZ
  00042	83 c6 50	 add	 esi, 80			; 00000050H
$LN29@Uninit_mov:

; 432  : 	_CATCH_ALL
; 433  : 	for (; _Next != _Dest; ++_Next)

  00045	3b 75 10	 cmp	 esi, DWORD PTR __Dest$[ebp]
  00048	75 f1		 jne	 SHORT $LL3@Uninit_mov

; 435  : 	_RERAISE;

  0004a	6a 00		 push	 0
  0004c	6a 00		 push	 0
  0004e	e8 00 00 00 00	 call	 __CxxThrowException@8
$LN30@Uninit_mov:
$LN4@Uninit_mov:

; 436  : 	_CATCH_END
; 437  : 	return (_Dest);

  00053	8b 45 10	 mov	 eax, DWORD PTR __Dest$[ebp]

; 438  : 	}

  00056	e8 00 00 00 00	 call	 __EH_epilog3
  0005b	c3		 ret	 0
$LN28@Uninit_mov:
_TEXT	ENDS
;	COMDAT text$x
text$x	SEGMENT
__ehhandler$??$_Uninit_move@PAUAttackAttribute@@PAU1@V?$allocator@UAttackAttribute@@@std@@U1@@std@@YAPAUAttackAttribute@@PAU1@00AAV?$allocator@UAttackAttribute@@@0@0U_Nonscalar_ptr_iterator_tag@0@@Z:
  00000	8b 54 24 08	 mov	 edx, DWORD PTR [esp+8]
  00004	8d 42 0c	 lea	 eax, DWORD PTR [edx+12]
  00007	8b 4a e8	 mov	 ecx, DWORD PTR [edx-24]
  0000a	33 c8		 xor	 ecx, eax
  0000c	e8 00 00 00 00	 call	 @__security_check_cookie@4
  00011	b8 00 00 00 00	 mov	 eax, OFFSET __ehfuncinfo$??$_Uninit_move@PAUAttackAttribute@@PAU1@V?$allocator@UAttackAttribute@@@std@@U1@@std@@YAPAUAttackAttribute@@PAU1@00AAV?$allocator@UAttackAttribute@@@0@0U_Nonscalar_ptr_iterator_tag@0@@Z
  00016	e9 00 00 00 00	 jmp	 ___CxxFrameHandler3
text$x	ENDS
??$_Uninit_move@PAUAttackAttribute@@PAU1@V?$allocator@UAttackAttribute@@@std@@U1@@std@@YAPAUAttackAttribute@@PAU1@00AAV?$allocator@UAttackAttribute@@@0@0U_Nonscalar_ptr_iterator_tag@0@@Z ENDP ; std::_Uninit_move<AttackAttribute *,AttackAttribute *,std::allocator<AttackAttribute>,AttackAttribute>
PUBLIC	??$_Destroy_range@V?$allocator@UAttackAttribute@@@std@@@std@@YAXPAUAttackAttribute@@0AAV?$allocator@UAttackAttribute@@@0@U_Nonscalar_ptr_iterator_tag@0@@Z ; std::_Destroy_range<std::allocator<AttackAttribute> >
; Function compile flags: /Ogsp
; File c:\program files (x86)\microsoft visual studio 10.0\vc\include\xmemory
;	COMDAT ??$_Destroy_range@V?$allocator@UAttackAttribute@@@std@@@std@@YAXPAUAttackAttribute@@0AAV?$allocator@UAttackAttribute@@@0@U_Nonscalar_ptr_iterator_tag@0@@Z
_TEXT	SEGMENT
__First$ = 8						; size = 4
__Last$ = 12						; size = 4
__Al$ = 16						; size = 4
___formal$ = 20						; size = 1
??$_Destroy_range@V?$allocator@UAttackAttribute@@@std@@@std@@YAXPAUAttackAttribute@@0AAV?$allocator@UAttackAttribute@@@0@U_Nonscalar_ptr_iterator_tag@0@@Z PROC ; std::_Destroy_range<std::allocator<AttackAttribute> >, COMDAT

; 95   : 	{	// destroy [_First, _Last), arbitrary type

  00000	55		 push	 ebp
  00001	8b ec		 mov	 ebp, esp
  00003	56		 push	 esi

; 96   : 	for (; _First != _Last; ++_First)

  00004	8b 75 08	 mov	 esi, DWORD PTR __First$[ebp]
  00007	eb 0a		 jmp	 SHORT $LN17@Destroy_ra@3
$LL3@Destroy_ra@3:

; 97   : 		_Dest_val(_Al, _First);

  00009	8b ce		 mov	 ecx, esi
  0000b	e8 00 00 00 00	 call	 ??1AttackAttribute@@QAE@XZ
  00010	83 c6 50	 add	 esi, 80			; 00000050H
$LN17@Destroy_ra@3:

; 96   : 	for (; _First != _Last; ++_First)

  00013	3b 75 0c	 cmp	 esi, DWORD PTR __Last$[ebp]
  00016	75 f1		 jne	 SHORT $LL3@Destroy_ra@3
  00018	5e		 pop	 esi

; 98   : 	}

  00019	5d		 pop	 ebp
  0001a	c3		 ret	 0
??$_Destroy_range@V?$allocator@UAttackAttribute@@@std@@@std@@YAXPAUAttackAttribute@@0AAV?$allocator@UAttackAttribute@@@0@U_Nonscalar_ptr_iterator_tag@0@@Z ENDP ; std::_Destroy_range<std::allocator<AttackAttribute> >
_TEXT	ENDS
PUBLIC	??$_Uninitialized_copy@V?$_Vector_const_iterator@V?$_Vector_val@UAttackAttribute@@V?$allocator@UAttackAttribute@@@std@@@std@@@std@@PAUAttackAttribute@@V?$allocator@UAttackAttribute@@@2@@std@@YAPAUAttackAttribute@@V?$_Vector_const_iterator@V?$_Vector_val@UAttackAttribute@@V?$allocator@UAttackAttribute@@@std@@@std@@@0@0PAU1@AAV?$allocator@UAttackAttribute@@@0@@Z ; std::_Uninitialized_copy<std::_Vector_const_iterator<std::_Vector_val<AttackAttribute,std::allocator<AttackAttribute> > >,AttackAttribute *,std::allocator<AttackAttribute> >
; Function compile flags: /Ogsp
; File c:\program files (x86)\microsoft visual studio 10.0\vc\include\memory
;	COMDAT ??$_Uninitialized_copy@V?$_Vector_const_iterator@V?$_Vector_val@UAttackAttribute@@V?$allocator@UAttackAttribute@@@std@@@std@@@std@@PAUAttackAttribute@@V?$allocator@UAttackAttribute@@@2@@std@@YAPAUAttackAttribute@@V?$_Vector_const_iterator@V?$_Vector_val@UAttackAttribute@@V?$allocator@UAttackAttribute@@@std@@@std@@@0@0PAU1@AAV?$allocator@UAttackAttribute@@@0@@Z
_TEXT	SEGMENT
__Cat$555015 = -4					; size = 1
__First$ = 8						; size = 4
__Last$ = 12						; size = 4
__Dest$ = 16						; size = 4
__Al$ = 20						; size = 4
??$_Uninitialized_copy@V?$_Vector_const_iterator@V?$_Vector_val@UAttackAttribute@@V?$allocator@UAttackAttribute@@@std@@@std@@@std@@PAUAttackAttribute@@V?$allocator@UAttackAttribute@@@2@@std@@YAPAUAttackAttribute@@V?$_Vector_const_iterator@V?$_Vector_val@UAttackAttribute@@V?$allocator@UAttackAttribute@@@std@@@std@@@0@0PAU1@AAV?$allocator@UAttackAttribute@@@0@@Z PROC ; std::_Uninitialized_copy<std::_Vector_const_iterator<std::_Vector_val<AttackAttribute,std::allocator<AttackAttribute> > >,AttackAttribute *,std::allocator<AttackAttribute> >, COMDAT

; 412  : 	{	// copy [_First, _Last) to raw _Dest, using _Al

  00000	55		 push	 ebp
  00001	8b ec		 mov	 ebp, esp
  00003	51		 push	 ecx

; 413  : 	return (_Uninit_copy(_First, _Last, _Dest, _Al,
; 414  : 		_Ptr_cat(_First, _Dest)));

  00004	ff 75 fc	 push	 DWORD PTR __Cat$555015[ebp]
  00007	ff 75 14	 push	 DWORD PTR __Al$[ebp]
  0000a	ff 75 10	 push	 DWORD PTR __Dest$[ebp]
  0000d	ff 75 0c	 push	 DWORD PTR __Last$[ebp]
  00010	ff 75 08	 push	 DWORD PTR __First$[ebp]
  00013	e8 00 00 00 00	 call	 ??$_Uninit_copy@V?$_Vector_const_iterator@V?$_Vector_val@UAttackAttribute@@V?$allocator@UAttackAttribute@@@std@@@std@@@std@@PAUAttackAttribute@@V?$allocator@UAttackAttribute@@@2@@std@@YAPAUAttackAttribute@@V?$_Vector_const_iterator@V?$_Vector_val@UAttackAttribute@@V?$allocator@UAttackAttribute@@@std@@@std@@@0@0PAU1@AAV?$allocator@UAttackAttribute@@@0@U_Nonscalar_ptr_iterator_tag@0@@Z ; std::_Uninit_copy<std::_Vector_const_iterator<std::_Vector_val<AttackAttribute,std::allocator<AttackAttribute> > >,AttackAttribute *,std::allocator<AttackAttribute> >
  00018	83 c4 14	 add	 esp, 20			; 00000014H

; 415  : 	}

  0001b	c9		 leave
  0001c	c3		 ret	 0
??$_Uninitialized_copy@V?$_Vector_const_iterator@V?$_Vector_val@UAttackAttribute@@V?$allocator@UAttackAttribute@@@std@@@std@@@std@@PAUAttackAttribute@@V?$allocator@UAttackAttribute@@@2@@std@@YAPAUAttackAttribute@@V?$_Vector_const_iterator@V?$_Vector_val@UAttackAttribute@@V?$allocator@UAttackAttribute@@@std@@@std@@@0@0PAU1@AAV?$allocator@UAttackAttribute@@@0@@Z ENDP ; std::_Uninitialized_copy<std::_Vector_const_iterator<std::_Vector_val<AttackAttribute,std::allocator<AttackAttribute> > >,AttackAttribute *,std::allocator<AttackAttribute> >
_TEXT	ENDS
PUBLIC	??$_Uninitialized_move@PAUAttackAttribute@@PAU1@V?$allocator@UAttackAttribute@@@std@@@std@@YAPAUAttackAttribute@@PAU1@00AAV?$allocator@UAttackAttribute@@@0@@Z ; std::_Uninitialized_move<AttackAttribute *,AttackAttribute *,std::allocator<AttackAttribute> >
; Function compile flags: /Ogsp
;	COMDAT ??$_Uninitialized_move@PAUAttackAttribute@@PAU1@V?$allocator@UAttackAttribute@@@std@@@std@@YAPAUAttackAttribute@@PAU1@00AAV?$allocator@UAttackAttribute@@@0@@Z
_TEXT	SEGMENT
__Cat$555022 = -4					; size = 1
__First$ = 8						; size = 4
__Last$ = 12						; size = 4
__Dest$ = 16						; size = 4
__Al$ = 20						; size = 4
??$_Uninitialized_move@PAUAttackAttribute@@PAU1@V?$allocator@UAttackAttribute@@@std@@@std@@YAPAUAttackAttribute@@PAU1@00AAV?$allocator@UAttackAttribute@@@0@@Z PROC ; std::_Uninitialized_move<AttackAttribute *,AttackAttribute *,std::allocator<AttackAttribute> >, COMDAT

; 469  : 	{	// move [_First, _Last) to raw _Dest, using _Al

  00000	55		 push	 ebp
  00001	8b ec		 mov	 ebp, esp
  00003	51		 push	 ecx

; 470  : 	return (_Uninit_move(_First, _Last, _Dest, _Al,
; 471  : 		_Val_type(_First), _Ptr_cat(_First, _Dest)));

  00004	ff 75 fc	 push	 DWORD PTR __Cat$555022[ebp]
  00007	6a 00		 push	 0
  00009	ff 75 14	 push	 DWORD PTR __Al$[ebp]
  0000c	ff 75 10	 push	 DWORD PTR __Dest$[ebp]
  0000f	ff 75 0c	 push	 DWORD PTR __Last$[ebp]
  00012	ff 75 08	 push	 DWORD PTR __First$[ebp]
  00015	e8 00 00 00 00	 call	 ??$_Uninit_move@PAUAttackAttribute@@PAU1@V?$allocator@UAttackAttribute@@@std@@U1@@std@@YAPAUAttackAttribute@@PAU1@00AAV?$allocator@UAttackAttribute@@@0@0U_Nonscalar_ptr_iterator_tag@0@@Z ; std::_Uninit_move<AttackAttribute *,AttackAttribute *,std::allocator<AttackAttribute>,AttackAttribute>
  0001a	83 c4 18	 add	 esp, 24			; 00000018H

; 472  : 	}

  0001d	c9		 leave
  0001e	c3		 ret	 0
??$_Uninitialized_move@PAUAttackAttribute@@PAU1@V?$allocator@UAttackAttribute@@@std@@@std@@YAPAUAttackAttribute@@PAU1@00AAV?$allocator@UAttackAttribute@@@0@@Z ENDP ; std::_Uninitialized_move<AttackAttribute *,AttackAttribute *,std::allocator<AttackAttribute> >
_TEXT	ENDS
PUBLIC	??$_Destroy_range@V?$allocator@UAttackAttribute@@@std@@@std@@YAXPAUAttackAttribute@@0AAV?$allocator@UAttackAttribute@@@0@@Z ; std::_Destroy_range<std::allocator<AttackAttribute> >
; Function compile flags: /Ogsp
; File c:\program files (x86)\microsoft visual studio 10.0\vc\include\xmemory
;	COMDAT ??$_Destroy_range@V?$allocator@UAttackAttribute@@@std@@@std@@YAXPAUAttackAttribute@@0AAV?$allocator@UAttackAttribute@@@0@@Z
_TEXT	SEGMENT
__First$ = 8						; size = 4
__Last$ = 12						; size = 4
__Al$ = 16						; size = 4
??$_Destroy_range@V?$allocator@UAttackAttribute@@@std@@@std@@YAXPAUAttackAttribute@@0AAV?$allocator@UAttackAttribute@@@0@@Z PROC ; std::_Destroy_range<std::allocator<AttackAttribute> >, COMDAT

; 87   : 	{	// destroy [_First, _Last)

  00000	55		 push	 ebp
  00001	8b ec		 mov	 ebp, esp
  00003	56		 push	 esi

; 88   : 	_Destroy_range(_First, _Last, _Al, _Ptr_cat(_First, _Last));

  00004	8b 75 08	 mov	 esi, DWORD PTR __First$[ebp]
  00007	eb 0a		 jmp	 SHORT $LN21@Destroy_ra@4
$LL7@Destroy_ra@4:
  00009	8b ce		 mov	 ecx, esi
  0000b	e8 00 00 00 00	 call	 ??1AttackAttribute@@QAE@XZ
  00010	83 c6 50	 add	 esi, 80			; 00000050H
$LN21@Destroy_ra@4:
  00013	3b 75 0c	 cmp	 esi, DWORD PTR __Last$[ebp]
  00016	75 f1		 jne	 SHORT $LL7@Destroy_ra@4
  00018	5e		 pop	 esi

; 89   : 	}

  00019	5d		 pop	 ebp
  0001a	c3		 ret	 0
??$_Destroy_range@V?$allocator@UAttackAttribute@@@std@@@std@@YAXPAUAttackAttribute@@0AAV?$allocator@UAttackAttribute@@@0@@Z ENDP ; std::_Destroy_range<std::allocator<AttackAttribute> >
_TEXT	ENDS
PUBLIC	??$_Ucopy@V?$_Vector_const_iterator@V?$_Vector_val@UAttackAttribute@@V?$allocator@UAttackAttribute@@@std@@@std@@@std@@@?$vector@UAttackAttribute@@V?$allocator@UAttackAttribute@@@std@@@std@@IAEPAUAttackAttribute@@V?$_Vector_const_iterator@V?$_Vector_val@UAttackAttribute@@V?$allocator@UAttackAttribute@@@std@@@std@@@1@0PAU2@@Z ; std::vector<AttackAttribute,std::allocator<AttackAttribute> >::_Ucopy<std::_Vector_const_iterator<std::_Vector_val<AttackAttribute,std::allocator<AttackAttribute> > > >
; Function compile flags: /Ogsp
; File c:\program files (x86)\microsoft visual studio 10.0\vc\include\vector
;	COMDAT ??$_Ucopy@V?$_Vector_const_iterator@V?$_Vector_val@UAttackAttribute@@V?$allocator@UAttackAttribute@@@std@@@std@@@std@@@?$vector@UAttackAttribute@@V?$allocator@UAttackAttribute@@@std@@@std@@IAEPAUAttackAttribute@@V?$_Vector_const_iterator@V?$_Vector_val@UAttackAttribute@@V?$allocator@UAttackAttribute@@@std@@@std@@@1@0PAU2@@Z
_TEXT	SEGMENT
__First$ = 8						; size = 4
__Last$ = 12						; size = 4
__Cat$555092 = 16					; size = 1
__Ptr$ = 16						; size = 4
??$_Ucopy@V?$_Vector_const_iterator@V?$_Vector_val@UAttackAttribute@@V?$allocator@UAttackAttribute@@@std@@@std@@@std@@@?$vector@UAttackAttribute@@V?$allocator@UAttackAttribute@@@std@@@std@@IAEPAUAttackAttribute@@V?$_Vector_const_iterator@V?$_Vector_val@UAttackAttribute@@V?$allocator@UAttackAttribute@@@std@@@std@@@1@0PAU2@@Z PROC ; std::vector<AttackAttribute,std::allocator<AttackAttribute> >::_Ucopy<std::_Vector_const_iterator<std::_Vector_val<AttackAttribute,std::allocator<AttackAttribute> > > >, COMDAT
; _this$ = ecx

; 1315 : 		pointer _Ucopy(_Iter _First, _Iter _Last, pointer _Ptr)

  00000	55		 push	 ebp
  00001	8b ec		 mov	 ebp, esp

; 1316 : 		{	// copy initializing [_First, _Last), using allocator
; 1317 : 		return (_Uninitialized_copy(_First, _Last,
; 1318 : 			_Ptr, this->_Alval));

  00003	ff 75 10	 push	 DWORD PTR __Cat$555092[ebp]
  00006	83 c1 0c	 add	 ecx, 12			; 0000000cH
  00009	51		 push	 ecx
  0000a	ff 75 10	 push	 DWORD PTR __Ptr$[ebp]
  0000d	ff 75 0c	 push	 DWORD PTR __Last$[ebp]
  00010	ff 75 08	 push	 DWORD PTR __First$[ebp]
  00013	e8 00 00 00 00	 call	 ??$_Uninit_copy@V?$_Vector_const_iterator@V?$_Vector_val@UAttackAttribute@@V?$allocator@UAttackAttribute@@@std@@@std@@@std@@PAUAttackAttribute@@V?$allocator@UAttackAttribute@@@2@@std@@YAPAUAttackAttribute@@V?$_Vector_const_iterator@V?$_Vector_val@UAttackAttribute@@V?$allocator@UAttackAttribute@@@std@@@std@@@0@0PAU1@AAV?$allocator@UAttackAttribute@@@0@U_Nonscalar_ptr_iterator_tag@0@@Z ; std::_Uninit_copy<std::_Vector_const_iterator<std::_Vector_val<AttackAttribute,std::allocator<AttackAttribute> > >,AttackAttribute *,std::allocator<AttackAttribute> >
  00018	83 c4 14	 add	 esp, 20			; 00000014H

; 1319 : 		}

  0001b	5d		 pop	 ebp
  0001c	c2 0c 00	 ret	 12			; 0000000cH
??$_Ucopy@V?$_Vector_const_iterator@V?$_Vector_val@UAttackAttribute@@V?$allocator@UAttackAttribute@@@std@@@std@@@std@@@?$vector@UAttackAttribute@@V?$allocator@UAttackAttribute@@@std@@@std@@IAEPAUAttackAttribute@@V?$_Vector_const_iterator@V?$_Vector_val@UAttackAttribute@@V?$allocator@UAttackAttribute@@@std@@@std@@@1@0PAU2@@Z ENDP ; std::vector<AttackAttribute,std::allocator<AttackAttribute> >::_Ucopy<std::_Vector_const_iterator<std::_Vector_val<AttackAttribute,std::allocator<AttackAttribute> > > >
_TEXT	ENDS
PUBLIC	??$_Umove@PAUAttackAttribute@@@?$vector@UAttackAttribute@@V?$allocator@UAttackAttribute@@@std@@@std@@IAEPAUAttackAttribute@@PAU2@00@Z ; std::vector<AttackAttribute,std::allocator<AttackAttribute> >::_Umove<AttackAttribute *>
; Function compile flags: /Ogsp
;	COMDAT ??$_Umove@PAUAttackAttribute@@@?$vector@UAttackAttribute@@V?$allocator@UAttackAttribute@@@std@@@std@@IAEPAUAttackAttribute@@PAU2@00@Z
_TEXT	SEGMENT
__First$ = 8						; size = 4
__Last$ = 12						; size = 4
__Ptr$ = 16						; size = 4
??$_Umove@PAUAttackAttribute@@@?$vector@UAttackAttribute@@V?$allocator@UAttackAttribute@@@std@@@std@@IAEPAUAttackAttribute@@PAU2@00@Z PROC ; std::vector<AttackAttribute,std::allocator<AttackAttribute> >::_Umove<AttackAttribute *>, COMDAT
; _this$ = ecx

; 1322 : 		pointer _Umove(_Iter _First, _Iter _Last, pointer _Ptr)

  00000	55		 push	 ebp
  00001	8b ec		 mov	 ebp, esp

; 1323 : 		{	// move initializing [_First, _Last), using allocator
; 1324 : 		return (_Uninitialized_move(_First, _Last,
; 1325 : 			_Ptr, this->_Alval));

  00003	83 c1 0c	 add	 ecx, 12			; 0000000cH
  00006	51		 push	 ecx
  00007	ff 75 10	 push	 DWORD PTR __Ptr$[ebp]
  0000a	ff 75 0c	 push	 DWORD PTR __Last$[ebp]
  0000d	ff 75 08	 push	 DWORD PTR __First$[ebp]
  00010	e8 00 00 00 00	 call	 ??$_Uninitialized_move@PAUAttackAttribute@@PAU1@V?$allocator@UAttackAttribute@@@std@@@std@@YAPAUAttackAttribute@@PAU1@00AAV?$allocator@UAttackAttribute@@@0@@Z ; std::_Uninitialized_move<AttackAttribute *,AttackAttribute *,std::allocator<AttackAttribute> >
  00015	83 c4 10	 add	 esp, 16			; 00000010H

; 1326 : 		}

  00018	5d		 pop	 ebp
  00019	c2 0c 00	 ret	 12			; 0000000cH
??$_Umove@PAUAttackAttribute@@@?$vector@UAttackAttribute@@V?$allocator@UAttackAttribute@@@std@@@std@@IAEPAUAttackAttribute@@PAU2@00@Z ENDP ; std::vector<AttackAttribute,std::allocator<AttackAttribute> >::_Umove<AttackAttribute *>
_TEXT	ENDS
PUBLIC	?_Destroy@?$vector@UAttackAttribute@@V?$allocator@UAttackAttribute@@@std@@@std@@IAEXPAUAttackAttribute@@0@Z ; std::vector<AttackAttribute,std::allocator<AttackAttribute> >::_Destroy
; Function compile flags: /Ogsp
;	COMDAT ?_Destroy@?$vector@UAttackAttribute@@V?$allocator@UAttackAttribute@@@std@@@std@@IAEXPAUAttackAttribute@@0@Z
_TEXT	SEGMENT
__First$ = 8						; size = 4
__Last$ = 12						; size = 4
?_Destroy@?$vector@UAttackAttribute@@V?$allocator@UAttackAttribute@@@std@@@std@@IAEXPAUAttackAttribute@@0@Z PROC ; std::vector<AttackAttribute,std::allocator<AttackAttribute> >::_Destroy, COMDAT
; _this$ = ecx

; 1269 : 		{	// destroy [_First, _Last) using allocator

  00000	55		 push	 ebp
  00001	8b ec		 mov	 ebp, esp
  00003	56		 push	 esi

; 1270 : 		_Destroy_range(_First, _Last, this->_Alval);

  00004	8b 75 08	 mov	 esi, DWORD PTR __First$[ebp]
  00007	eb 0a		 jmp	 SHORT $LN23@Destroy
$LL9@Destroy:
  00009	8b ce		 mov	 ecx, esi
  0000b	e8 00 00 00 00	 call	 ??1AttackAttribute@@QAE@XZ
  00010	83 c6 50	 add	 esi, 80			; 00000050H
$LN23@Destroy:
  00013	3b 75 0c	 cmp	 esi, DWORD PTR __Last$[ebp]
  00016	75 f1		 jne	 SHORT $LL9@Destroy
  00018	5e		 pop	 esi

; 1271 : 		}

  00019	5d		 pop	 ebp
  0001a	c2 08 00	 ret	 8
?_Destroy@?$vector@UAttackAttribute@@V?$allocator@UAttackAttribute@@@std@@@std@@IAEXPAUAttackAttribute@@0@Z ENDP ; std::vector<AttackAttribute,std::allocator<AttackAttribute> >::_Destroy
_TEXT	ENDS
PUBLIC	?reserve@?$vector@UAttackAttribute@@V?$allocator@UAttackAttribute@@@std@@@std@@QAEXI@Z ; std::vector<AttackAttribute,std::allocator<AttackAttribute> >::reserve
;	COMDAT xdata$x
; File c:\program files (x86)\microsoft visual studio 10.0\vc\include\xmemory
xdata$x	SEGMENT
__catchsym$?reserve@?$vector@UAttackAttribute@@V?$allocator@UAttackAttribute@@@std@@@std@@QAEXI@Z$2 DD 040H
	DD	00H
	DD	00H
	DD	FLAT:__catch$?reserve@?$vector@UAttackAttribute@@V?$allocator@UAttackAttribute@@@std@@@std@@QAEXI@Z$0
__unwindtable$?reserve@?$vector@UAttackAttribute@@V?$allocator@UAttackAttribute@@@std@@@std@@QAEXI@Z DD 0ffffffffH
	DD	00H
	DD	0ffffffffH
	DD	00H
__tryblocktable$?reserve@?$vector@UAttackAttribute@@V?$allocator@UAttackAttribute@@@std@@@std@@QAEXI@Z DD 00H
	DD	00H
	DD	01H
	DD	01H
	DD	FLAT:__catchsym$?reserve@?$vector@UAttackAttribute@@V?$allocator@UAttackAttribute@@@std@@@std@@QAEXI@Z$2
__ehfuncinfo$?reserve@?$vector@UAttackAttribute@@V?$allocator@UAttackAttribute@@@std@@@std@@QAEXI@Z DD 019930522H
	DD	02H
	DD	FLAT:__unwindtable$?reserve@?$vector@UAttackAttribute@@V?$allocator@UAttackAttribute@@@std@@@std@@QAEXI@Z
	DD	01H
	DD	FLAT:__tryblocktable$?reserve@?$vector@UAttackAttribute@@V?$allocator@UAttackAttribute@@@std@@@std@@QAEXI@Z
	DD	2 DUP(00H)
	DD	00H
	DD	01H
; Function compile flags: /Ogsp
; File c:\program files (x86)\microsoft visual studio 10.0\vc\include\vector
xdata$x	ENDS
;	COMDAT ?reserve@?$vector@UAttackAttribute@@V?$allocator@UAttackAttribute@@@std@@@std@@QAEXI@Z
_TEXT	SEGMENT
__Ptr$549053 = -24					; size = 4
$T555266 = -20						; size = 4
__$EHRec$ = -16						; size = 16
__Count$ = 8						; size = 4
?reserve@?$vector@UAttackAttribute@@V?$allocator@UAttackAttribute@@@std@@@std@@QAEXI@Z PROC ; std::vector<AttackAttribute,std::allocator<AttackAttribute> >::reserve, COMDAT
; _this$ = ecx

; 746  : 		{	// determine new minimum length of allocated storage

  00000	6a 0c		 push	 12			; 0000000cH
  00002	b8 00 00 00 00	 mov	 eax, __ehhandler$?reserve@?$vector@UAttackAttribute@@V?$allocator@UAttackAttribute@@@std@@@std@@QAEXI@Z
  00007	e8 00 00 00 00	 call	 __EH_prolog3_catch
  0000c	8b f1		 mov	 esi, ecx

; 747  : 		if (max_size() < _Count)

  0000e	81 7d 08 33 33
	33 03		 cmp	 DWORD PTR __Count$[ebp], 53687091 ; 03333333H
  00015	76 0b		 jbe	 SHORT $LN5@reserve

; 748  : 			_Xlen();	// result too long

  00017	68 00 00 00 00	 push	 OFFSET ??_C@_0BD@OLBABOEK@vector?$DMT?$DO?5too?5long?$AA@
  0001c	ff 15 00 00 00
	00		 call	 DWORD PTR __imp_?_Xlength_error@std@@YAXPBD@Z
$LN59@reserve:
$LN5@reserve:

; 749  : 		else if (capacity() < _Count)

  00022	8b 46 08	 mov	 eax, DWORD PTR [esi+8]
  00025	2b 06		 sub	 eax, DWORD PTR [esi]
  00027	6a 50		 push	 80			; 00000050H
  00029	99		 cdq
  0002a	59		 pop	 ecx
  0002b	f7 f9		 idiv	 ecx
  0002d	3b 45 08	 cmp	 eax, DWORD PTR __Count$[ebp]
  00030	0f 83 80 00 00
	00		 jae	 $LN3@reserve

; 750  : 			{	// not enough room, reallocate
; 751  : 			pointer _Ptr = this->_Alval.allocate(_Count);

  00036	6a 00		 push	 0
  00038	ff 75 08	 push	 DWORD PTR __Count$[ebp]
  0003b	e8 00 00 00 00	 call	 ??$_Allocate@UAttackAttribute@@@std@@YAPAUAttackAttribute@@IPAU1@@Z ; std::_Allocate<AttackAttribute>

; 752  : 
; 753  : 			_TRY_BEGIN
; 754  : 			_Umove(this->_Myfirst, this->_Mylast, _Ptr);

  00040	8b 0e		 mov	 ecx, DWORD PTR [esi]
  00042	83 65 fc 00	 and	 DWORD PTR __$EHRec$[ebp+12], 0
  00046	8d 56 0c	 lea	 edx, DWORD PTR [esi+12]
  00049	52		 push	 edx
  0004a	89 45 e8	 mov	 DWORD PTR __Ptr$549053[ebp], eax
  0004d	ff 75 e8	 push	 DWORD PTR __Ptr$549053[ebp]
  00050	8b 46 04	 mov	 eax, DWORD PTR [esi+4]
  00053	50		 push	 eax
  00054	51		 push	 ecx
  00055	e8 00 00 00 00	 call	 ??$_Uninitialized_move@PAUAttackAttribute@@PAU1@V?$allocator@UAttackAttribute@@@std@@@std@@YAPAUAttackAttribute@@PAU1@00AAV?$allocator@UAttackAttribute@@@0@@Z ; std::_Uninitialized_move<AttackAttribute *,AttackAttribute *,std::allocator<AttackAttribute> >

; 758  : 			_CATCH_END
; 759  : 
; 760  : 			size_type _Size = size();

  0005a	8b 5e 04	 mov	 ebx, DWORD PTR [esi+4]
  0005d	8b 0e		 mov	 ecx, DWORD PTR [esi]
  0005f	83 c4 18	 add	 esp, 24			; 00000018H
  00062	8b c3		 mov	 eax, ebx
  00064	2b c1		 sub	 eax, ecx
  00066	6a 50		 push	 80			; 00000050H
  00068	99		 cdq
  00069	5f		 pop	 edi
  0006a	f7 ff		 idiv	 edi
  0006c	83 4d fc ff	 or	 DWORD PTR __$EHRec$[ebp+12], -1
  00070	8b f8		 mov	 edi, eax
  00072	85 c9		 test	 ecx, ecx
  00074	74 20		 je	 SHORT $LN51@reserve

; 761  : 			if (this->_Myfirst != 0)
; 762  : 				{	// destroy and deallocate old array
; 763  : 				_Destroy(this->_Myfirst, this->_Mylast);

  00076	89 4d ec	 mov	 DWORD PTR $T555266[ebp], ecx
  00079	3b cb		 cmp	 ecx, ebx
  0007b	74 11		 je	 SHORT $LN37@reserve
$LN39@reserve:
  0007d	8b 4d ec	 mov	 ecx, DWORD PTR $T555266[ebp]
  00080	e8 00 00 00 00	 call	 ??1AttackAttribute@@QAE@XZ
  00085	83 45 ec 50	 add	 DWORD PTR $T555266[ebp], 80 ; 00000050H
  00089	39 5d ec	 cmp	 DWORD PTR $T555266[ebp], ebx
  0008c	75 ef		 jne	 SHORT $LN39@reserve
$LN37@reserve:

; 764  : 				this->_Alval.deallocate(this->_Myfirst,
; 765  : 					this->_Myend - this->_Myfirst);

  0008e	ff 36		 push	 DWORD PTR [esi]
  00090	e8 00 00 00 00	 call	 ??3@YAXPAX@Z		; operator delete
  00095	59		 pop	 ecx
$LN51@reserve:

; 766  : 				}
; 767  : 
; 768  : 			this->_Orphan_all();

  00096	8b ce		 mov	 ecx, esi
  00098	ff 15 00 00 00
	00		 call	 DWORD PTR __imp_?_Orphan_all@_Container_base0@std@@QAEXXZ

; 769  : 			this->_Myend = _Ptr + _Count;
; 770  : 			this->_Mylast = _Ptr + _Size;

  0009e	6b ff 50	 imul	 edi, 80			; 00000050H
  000a1	8b 45 08	 mov	 eax, DWORD PTR __Count$[ebp]
  000a4	8b 4d e8	 mov	 ecx, DWORD PTR __Ptr$549053[ebp]
  000a7	6b c0 50	 imul	 eax, 80			; 00000050H
  000aa	03 c1		 add	 eax, ecx
  000ac	03 f9		 add	 edi, ecx
  000ae	89 46 08	 mov	 DWORD PTR [esi+8], eax
  000b1	89 7e 04	 mov	 DWORD PTR [esi+4], edi

; 771  : 			this->_Myfirst = _Ptr;

  000b4	89 0e		 mov	 DWORD PTR [esi], ecx
$LN3@reserve:

; 772  : 			}
; 773  : 		}

  000b6	e8 00 00 00 00	 call	 __EH_epilog3
  000bb	c2 04 00	 ret	 4
__catch$?reserve@?$vector@UAttackAttribute@@V?$allocator@UAttackAttribute@@@std@@@std@@QAEXI@Z$0:

; 755  : 			_CATCH_ALL
; 756  : 			this->_Alval.deallocate(_Ptr, _Count);

  000be	ff 75 e8	 push	 DWORD PTR __Ptr$549053[ebp]
  000c1	e8 00 00 00 00	 call	 ??3@YAXPAX@Z		; operator delete
  000c6	59		 pop	 ecx

; 757  : 			_RERAISE;

  000c7	6a 00		 push	 0
  000c9	6a 00		 push	 0
  000cb	e8 00 00 00 00	 call	 __CxxThrowException@8
$LN60@reserve:
$LN58@reserve:
  000d0	cc		 int	 3
_TEXT	ENDS
;	COMDAT text$x
text$x	SEGMENT
__ehhandler$?reserve@?$vector@UAttackAttribute@@V?$allocator@UAttackAttribute@@@std@@@std@@QAEXI@Z:
  00000	8b 54 24 08	 mov	 edx, DWORD PTR [esp+8]
  00004	8d 42 0c	 lea	 eax, DWORD PTR [edx+12]
  00007	8b 4a e4	 mov	 ecx, DWORD PTR [edx-28]
  0000a	33 c8		 xor	 ecx, eax
  0000c	e8 00 00 00 00	 call	 @__security_check_cookie@4
  00011	b8 00 00 00 00	 mov	 eax, OFFSET __ehfuncinfo$?reserve@?$vector@UAttackAttribute@@V?$allocator@UAttackAttribute@@@std@@@std@@QAEXI@Z
  00016	e9 00 00 00 00	 jmp	 ___CxxFrameHandler3
text$x	ENDS
?reserve@?$vector@UAttackAttribute@@V?$allocator@UAttackAttribute@@@std@@@std@@QAEXI@Z ENDP ; std::vector<AttackAttribute,std::allocator<AttackAttribute> >::reserve
PUBLIC	?erase@?$vector@UAttackAttribute@@V?$allocator@UAttackAttribute@@@std@@@std@@QAE?AV?$_Vector_iterator@V?$_Vector_val@UAttackAttribute@@V?$allocator@UAttackAttribute@@@std@@@std@@@2@V?$_Vector_const_iterator@V?$_Vector_val@UAttackAttribute@@V?$allocator@UAttackAttribute@@@std@@@std@@@2@0@Z ; std::vector<AttackAttribute,std::allocator<AttackAttribute> >::erase
; Function compile flags: /Ogsp
;	COMDAT ?erase@?$vector@UAttackAttribute@@V?$allocator@UAttackAttribute@@@std@@@std@@QAE?AV?$_Vector_iterator@V?$_Vector_val@UAttackAttribute@@V?$allocator@UAttackAttribute@@@std@@@std@@@2@V?$_Vector_const_iterator@V?$_Vector_val@UAttackAttribute@@V?$allocator@UAttackAttribute@@@std@@@std@@@2@0@Z
_TEXT	SEGMENT
$T555461 = -4						; size = 4
___$ReturnUdt$ = 8					; size = 4
__First_arg$ = 12					; size = 4
__Cat$555406 = 16					; size = 1
__Last_arg$ = 16					; size = 4
?erase@?$vector@UAttackAttribute@@V?$allocator@UAttackAttribute@@@std@@@std@@QAE?AV?$_Vector_iterator@V?$_Vector_val@UAttackAttribute@@V?$allocator@UAttackAttribute@@@std@@@std@@@2@V?$_Vector_const_iterator@V?$_Vector_val@UAttackAttribute@@V?$allocator@UAttackAttribute@@@std@@@std@@@2@0@Z PROC ; std::vector<AttackAttribute,std::allocator<AttackAttribute> >::erase, COMDAT
; _this$ = ecx

; 1190 : 		{	// erase [_First, _Last)

  00000	55		 push	 ebp
  00001	8b ec		 mov	 ebp, esp
  00003	51		 push	 ecx

; 1191 : 		iterator _First = _Make_iter(_First_arg);

  00004	8b 45 08	 mov	 eax, DWORD PTR ___$ReturnUdt$[ebp]
  00007	56		 push	 esi
  00008	8b f1		 mov	 esi, ecx
  0000a	8b 4d 0c	 mov	 ecx, DWORD PTR __First_arg$[ebp]
  0000d	89 08		 mov	 DWORD PTR [eax], ecx

; 1192 : 		iterator _Last = _Make_iter(_Last_arg);
; 1193 : 
; 1194 : 		if (_First != _Last)

  0000f	3b 4d 10	 cmp	 ecx, DWORD PTR __Last_arg$[ebp]
  00012	74 37		 je	 SHORT $LN1@erase@3

; 1195 : 			{	// worth doing, copy down over hole
; 1196 :  #if _ITERATOR_DEBUG_LEVEL == 2
; 1197 : 			if (_Last < _First || _VICONT(_First) != this
; 1198 : 				|| _VIPTR(_First) < this->_Myfirst
; 1199 : 				|| this->_Mylast < _VIPTR(_Last))
; 1200 : 				_DEBUG_ERROR("vector erase iterator outside range");
; 1201 : 			pointer _Ptr = _Move(_VIPTR(_Last), this->_Mylast,
; 1202 : 				_VIPTR(_First));
; 1203 : 			_Orphan_range(_VIPTR(_First), this->_Mylast);
; 1204 : 
; 1205 :  #else /* _ITERATOR_DEBUG_LEVEL == 2 */
; 1206 : 			pointer _Ptr = _Move(_VIPTR(_Last), this->_Mylast,
; 1207 : 				_VIPTR(_First));

  00014	8b 46 04	 mov	 eax, DWORD PTR [esi+4]
  00017	53		 push	 ebx
  00018	57		 push	 edi
  00019	ff 75 10	 push	 DWORD PTR __Cat$555406[ebp]
  0001c	51		 push	 ecx
  0001d	50		 push	 eax
  0001e	ff 75 10	 push	 DWORD PTR __Last_arg$[ebp]
  00021	e8 00 00 00 00	 call	 ??$_Move@PAUAttackAttribute@@PAU1@@std@@YAPAUAttackAttribute@@PAU1@00U_Nonscalar_ptr_iterator_tag@0@@Z ; std::_Move<AttackAttribute *,AttackAttribute *>

; 1208 :  #endif /* _ITERATOR_DEBUG_LEVEL == 2 */
; 1209 : 
; 1210 : 			_Destroy(_Ptr, this->_Mylast);

  00026	8b 7e 04	 mov	 edi, DWORD PTR [esi+4]
  00029	8b d8		 mov	 ebx, eax
  0002b	83 c4 10	 add	 esp, 16			; 00000010H
  0002e	89 5d fc	 mov	 DWORD PTR $T555461[ebp], ebx
  00031	3b df		 cmp	 ebx, edi
  00033	74 11		 je	 SHORT $LN36@erase@3
$LL52@erase@3:
  00035	8b 4d fc	 mov	 ecx, DWORD PTR $T555461[ebp]
  00038	e8 00 00 00 00	 call	 ??1AttackAttribute@@QAE@XZ
  0003d	83 45 fc 50	 add	 DWORD PTR $T555461[ebp], 80 ; 00000050H
  00041	39 7d fc	 cmp	 DWORD PTR $T555461[ebp], edi
  00044	75 ef		 jne	 SHORT $LL52@erase@3
$LN36@erase@3:

; 1211 : 			this->_Mylast = _Ptr;

  00046	5f		 pop	 edi
  00047	89 5e 04	 mov	 DWORD PTR [esi+4], ebx
  0004a	5b		 pop	 ebx
$LN1@erase@3:

; 1212 : 			}
; 1213 : 		return (_First);

  0004b	8b 45 08	 mov	 eax, DWORD PTR ___$ReturnUdt$[ebp]
  0004e	5e		 pop	 esi

; 1214 : 		}

  0004f	c9		 leave
  00050	c2 0c 00	 ret	 12			; 0000000cH
?erase@?$vector@UAttackAttribute@@V?$allocator@UAttackAttribute@@@std@@@std@@QAE?AV?$_Vector_iterator@V?$_Vector_val@UAttackAttribute@@V?$allocator@UAttackAttribute@@@std@@@std@@@2@V?$_Vector_const_iterator@V?$_Vector_val@UAttackAttribute@@V?$allocator@UAttackAttribute@@@std@@@std@@@2@0@Z ENDP ; std::vector<AttackAttribute,std::allocator<AttackAttribute> >::erase
_TEXT	ENDS
PUBLIC	?_Tidy@?$vector@UAttackAttribute@@V?$allocator@UAttackAttribute@@@std@@@std@@IAEXXZ ; std::vector<AttackAttribute,std::allocator<AttackAttribute> >::_Tidy
; Function compile flags: /Ogsp
;	COMDAT ?_Tidy@?$vector@UAttackAttribute@@V?$allocator@UAttackAttribute@@@std@@@std@@IAEXXZ
_TEXT	SEGMENT
?_Tidy@?$vector@UAttackAttribute@@V?$allocator@UAttackAttribute@@@std@@@std@@IAEXXZ PROC ; std::vector<AttackAttribute,std::allocator<AttackAttribute> >::_Tidy, COMDAT
; _this$ = ecx

; 1301 : 		{	// free all storage

  00000	56		 push	 esi
  00001	8b f1		 mov	 esi, ecx

; 1302 : 		if (this->_Myfirst != 0)

  00003	83 3e 00	 cmp	 DWORD PTR [esi], 0
  00006	74 27		 je	 SHORT $LN24@Tidy@3

; 1303 : 			{	// something to free, destroy and deallocate it
; 1304 : 			this->_Orphan_all();

  00008	53		 push	 ebx
  00009	57		 push	 edi
  0000a	ff 15 00 00 00
	00		 call	 DWORD PTR __imp_?_Orphan_all@_Container_base0@std@@QAEXXZ

; 1305 : 			_Destroy(this->_Myfirst, this->_Mylast);

  00010	8b 5e 04	 mov	 ebx, DWORD PTR [esi+4]
  00013	8b 3e		 mov	 edi, DWORD PTR [esi]
  00015	eb 0a		 jmp	 SHORT $LN28@Tidy@3
$LL12@Tidy@3:
  00017	8b cf		 mov	 ecx, edi
  00019	e8 00 00 00 00	 call	 ??1AttackAttribute@@QAE@XZ
  0001e	83 c7 50	 add	 edi, 80			; 00000050H
$LN28@Tidy@3:
  00021	3b fb		 cmp	 edi, ebx
  00023	75 f2		 jne	 SHORT $LL12@Tidy@3

; 1306 : 			this->_Alval.deallocate(this->_Myfirst,
; 1307 : 				this->_Myend - this->_Myfirst);

  00025	ff 36		 push	 DWORD PTR [esi]
  00027	e8 00 00 00 00	 call	 ??3@YAXPAX@Z		; operator delete
  0002c	59		 pop	 ecx
  0002d	5f		 pop	 edi
  0002e	5b		 pop	 ebx
$LN24@Tidy@3:

; 1308 : 			}
; 1309 : 		this->_Myfirst = 0;

  0002f	33 c0		 xor	 eax, eax
  00031	89 06		 mov	 DWORD PTR [esi], eax

; 1310 : 		this->_Mylast = 0;

  00033	89 46 04	 mov	 DWORD PTR [esi+4], eax

; 1311 : 		this->_Myend = 0;

  00036	89 46 08	 mov	 DWORD PTR [esi+8], eax
  00039	5e		 pop	 esi

; 1312 : 		}

  0003a	c3		 ret	 0
?_Tidy@?$vector@UAttackAttribute@@V?$allocator@UAttackAttribute@@@std@@@std@@IAEXXZ ENDP ; std::vector<AttackAttribute,std::allocator<AttackAttribute> >::_Tidy
_TEXT	ENDS
PUBLIC	??0?$vector@UAttackAttribute@@V?$allocator@UAttackAttribute@@@std@@@std@@QAE@ABV01@@Z ; std::vector<AttackAttribute,std::allocator<AttackAttribute> >::vector<AttackAttribute,std::allocator<AttackAttribute> >
;	COMDAT xdata$x
; File c:\program files (x86)\microsoft visual studio 10.0\vc\include\xutility
xdata$x	SEGMENT
__catchsym$??0?$vector@UAttackAttribute@@V?$allocator@UAttackAttribute@@@std@@@std@@QAE@ABV01@@Z$2 DD 040H
	DD	00H
	DD	00H
	DD	FLAT:__catch$??0?$vector@UAttackAttribute@@V?$allocator@UAttackAttribute@@@std@@@std@@QAE@ABV01@@Z$0
__unwindtable$??0?$vector@UAttackAttribute@@V?$allocator@UAttackAttribute@@@std@@@std@@QAE@ABV01@@Z DD 0ffffffffH
	DD	00H
	DD	0ffffffffH
	DD	00H
__tryblocktable$??0?$vector@UAttackAttribute@@V?$allocator@UAttackAttribute@@@std@@@std@@QAE@ABV01@@Z DD 00H
	DD	00H
	DD	01H
	DD	01H
	DD	FLAT:__catchsym$??0?$vector@UAttackAttribute@@V?$allocator@UAttackAttribute@@@std@@@std@@QAE@ABV01@@Z$2
__ehfuncinfo$??0?$vector@UAttackAttribute@@V?$allocator@UAttackAttribute@@@std@@@std@@QAE@ABV01@@Z DD 019930522H
	DD	02H
	DD	FLAT:__unwindtable$??0?$vector@UAttackAttribute@@V?$allocator@UAttackAttribute@@@std@@@std@@QAE@ABV01@@Z
	DD	01H
	DD	FLAT:__tryblocktable$??0?$vector@UAttackAttribute@@V?$allocator@UAttackAttribute@@@std@@@std@@QAE@ABV01@@Z
	DD	2 DUP(00H)
	DD	00H
	DD	01H
; Function compile flags: /Ogsp
; File c:\program files (x86)\microsoft visual studio 10.0\vc\include\vector
xdata$x	ENDS
;	COMDAT ??0?$vector@UAttackAttribute@@V?$allocator@UAttackAttribute@@@std@@@std@@QAE@ABV01@@Z
_TEXT	SEGMENT
_this$ = -20						; size = 4
__$EHRec$ = -16						; size = 16
__Cat$555693 = 8					; size = 1
__Right$ = 8						; size = 4
??0?$vector@UAttackAttribute@@V?$allocator@UAttackAttribute@@@std@@@std@@QAE@ABV01@@Z PROC ; std::vector<AttackAttribute,std::allocator<AttackAttribute> >::vector<AttackAttribute,std::allocator<AttackAttribute> >, COMDAT
; _this$ = ecx

; 535  : 		{	// construct by copying _Right

  00000	6a 08		 push	 8
  00002	b8 00 00 00 00	 mov	 eax, __ehhandler$??0?$vector@UAttackAttribute@@V?$allocator@UAttackAttribute@@@std@@@std@@QAE@ABV01@@Z
  00007	e8 00 00 00 00	 call	 __EH_prolog3_catch
  0000c	8b f1		 mov	 esi, ecx
  0000e	89 75 ec	 mov	 DWORD PTR _this$[ebp], esi

; 536  : 		if (_Buy(_Right.size()))

  00011	8b 7d 08	 mov	 edi, DWORD PTR __Right$[ebp]
  00014	33 db		 xor	 ebx, ebx
  00016	89 1e		 mov	 DWORD PTR [esi], ebx
  00018	89 5e 04	 mov	 DWORD PTR [esi+4], ebx
  0001b	89 5e 08	 mov	 DWORD PTR [esi+8], ebx
  0001e	8b 47 04	 mov	 eax, DWORD PTR [edi+4]
  00021	2b 07		 sub	 eax, DWORD PTR [edi]
  00023	6a 50		 push	 80			; 00000050H
  00025	59		 pop	 ecx
  00026	99		 cdq
  00027	f7 f9		 idiv	 ecx
  00029	8b ce		 mov	 ecx, esi
  0002b	50		 push	 eax
  0002c	e8 00 00 00 00	 call	 ?_Buy@?$vector@UAttackAttribute@@V?$allocator@UAttackAttribute@@@std@@@std@@IAE_NI@Z ; std::vector<AttackAttribute,std::allocator<AttackAttribute> >::_Buy
  00031	84 c0		 test	 al, al
  00033	74 1f		 je	 SHORT $LN7@vector@3

; 537  : 			_TRY_BEGIN
; 538  : 			this->_Mylast = _Ucopy(_Right.begin(), _Right.end(),
; 539  : 				this->_Myfirst);

  00035	ff 75 08	 push	 DWORD PTR __Cat$555693[ebp]
  00038	8b 0e		 mov	 ecx, DWORD PTR [esi]
  0003a	8b 47 04	 mov	 eax, DWORD PTR [edi+4]
  0003d	8b 3f		 mov	 edi, DWORD PTR [edi]
  0003f	8d 56 0c	 lea	 edx, DWORD PTR [esi+12]
  00042	52		 push	 edx
  00043	51		 push	 ecx
  00044	50		 push	 eax
  00045	57		 push	 edi
  00046	89 5d fc	 mov	 DWORD PTR __$EHRec$[ebp+12], ebx
  00049	e8 00 00 00 00	 call	 ??$_Uninit_copy@V?$_Vector_const_iterator@V?$_Vector_val@UAttackAttribute@@V?$allocator@UAttackAttribute@@@std@@@std@@@std@@PAUAttackAttribute@@V?$allocator@UAttackAttribute@@@2@@std@@YAPAUAttackAttribute@@V?$_Vector_const_iterator@V?$_Vector_val@UAttackAttribute@@V?$allocator@UAttackAttribute@@@std@@@std@@@0@0PAU1@AAV?$allocator@UAttackAttribute@@@0@U_Nonscalar_ptr_iterator_tag@0@@Z ; std::_Uninit_copy<std::_Vector_const_iterator<std::_Vector_val<AttackAttribute,std::allocator<AttackAttribute> > >,AttackAttribute *,std::allocator<AttackAttribute> >
  0004e	83 c4 14	 add	 esp, 20			; 00000014H
  00051	89 46 04	 mov	 DWORD PTR [esi+4], eax
$LN7@vector@3:

; 543  : 			_CATCH_END
; 544  : 		}

  00054	8b c6		 mov	 eax, esi
  00056	e8 00 00 00 00	 call	 __EH_epilog3
  0005b	c2 04 00	 ret	 4
__catch$??0?$vector@UAttackAttribute@@V?$allocator@UAttackAttribute@@@std@@@std@@QAE@ABV01@@Z$0:

; 540  : 			_CATCH_ALL
; 541  : 			_Tidy();

  0005e	8b 4d ec	 mov	 ecx, DWORD PTR _this$[ebp]
  00061	e8 00 00 00 00	 call	 ?_Tidy@?$vector@UAttackAttribute@@V?$allocator@UAttackAttribute@@@std@@@std@@IAEXXZ ; std::vector<AttackAttribute,std::allocator<AttackAttribute> >::_Tidy

; 542  : 			_RERAISE;

  00066	33 db		 xor	 ebx, ebx
  00068	53		 push	 ebx
  00069	53		 push	 ebx
  0006a	e8 00 00 00 00	 call	 __CxxThrowException@8
$LN38@vector@3:
$LN37@vector@3:
  0006f	cc		 int	 3
_TEXT	ENDS
;	COMDAT text$x
text$x	SEGMENT
__ehhandler$??0?$vector@UAttackAttribute@@V?$allocator@UAttackAttribute@@@std@@@std@@QAE@ABV01@@Z:
  00000	8b 54 24 08	 mov	 edx, DWORD PTR [esp+8]
  00004	8d 42 0c	 lea	 eax, DWORD PTR [edx+12]
  00007	8b 4a e8	 mov	 ecx, DWORD PTR [edx-24]
  0000a	33 c8		 xor	 ecx, eax
  0000c	e8 00 00 00 00	 call	 @__security_check_cookie@4
  00011	b8 00 00 00 00	 mov	 eax, OFFSET __ehfuncinfo$??0?$vector@UAttackAttribute@@V?$allocator@UAttackAttribute@@@std@@@std@@QAE@ABV01@@Z
  00016	e9 00 00 00 00	 jmp	 ___CxxFrameHandler3
text$x	ENDS
??0?$vector@UAttackAttribute@@V?$allocator@UAttackAttribute@@@std@@@std@@QAE@ABV01@@Z ENDP ; std::vector<AttackAttribute,std::allocator<AttackAttribute> >::vector<AttackAttribute,std::allocator<AttackAttribute> >
PUBLIC	?_Reserve@?$vector@UAttackAttribute@@V?$allocator@UAttackAttribute@@@std@@@std@@IAEXI@Z ; std::vector<AttackAttribute,std::allocator<AttackAttribute> >::_Reserve
; Function compile flags: /Ogsp
;	COMDAT ?_Reserve@?$vector@UAttackAttribute@@V?$allocator@UAttackAttribute@@@std@@@std@@IAEXI@Z
_TEXT	SEGMENT
__Count$ = 8						; size = 4
?_Reserve@?$vector@UAttackAttribute@@V?$allocator@UAttackAttribute@@@std@@@std@@IAEXI@Z PROC ; std::vector<AttackAttribute,std::allocator<AttackAttribute> >::_Reserve, COMDAT
; _this$ = ecx

; 1290 : 		{	// ensure room for _Count new elements, grow exponentially

  00000	55		 push	 ebp
  00001	8b ec		 mov	 ebp, esp
  00003	56		 push	 esi
  00004	8b f1		 mov	 esi, ecx

; 1291 : 		size_type _Size = size();

  00006	8b 0e		 mov	 ecx, DWORD PTR [esi]
  00008	8b 46 04	 mov	 eax, DWORD PTR [esi+4]
  0000b	2b c1		 sub	 eax, ecx
  0000d	57		 push	 edi
  0000e	99		 cdq
  0000f	6a 50		 push	 80			; 00000050H
  00011	5f		 pop	 edi
  00012	f7 ff		 idiv	 edi
  00014	8b f8		 mov	 edi, eax

; 1292 : 		if (max_size() - _Count < _Size)

  00016	b8 33 33 33 03	 mov	 eax, 53687091		; 03333333H
  0001b	2b 45 08	 sub	 eax, DWORD PTR __Count$[ebp]
  0001e	3b c7		 cmp	 eax, edi
  00020	73 0b		 jae	 SHORT $LN4@Reserve

; 1293 : 			_Xlen();

  00022	68 00 00 00 00	 push	 OFFSET ??_C@_0BD@OLBABOEK@vector?$DMT?$DO?5too?5long?$AA@
  00027	ff 15 00 00 00
	00		 call	 DWORD PTR __imp_?_Xlength_error@std@@YAXPBD@Z
$LN21@Reserve:
$LN4@Reserve:

; 1294 : 		else if ((_Size += _Count) <= capacity())

  0002d	8b 46 08	 mov	 eax, DWORD PTR [esi+8]
  00030	2b c1		 sub	 eax, ecx
  00032	6a 50		 push	 80			; 00000050H
  00034	99		 cdq
  00035	59		 pop	 ecx
  00036	f7 f9		 idiv	 ecx
  00038	03 7d 08	 add	 edi, DWORD PTR __Count$[ebp]
  0003b	3b f8		 cmp	 edi, eax
  0003d	76 10		 jbe	 SHORT $LN1@Reserve

; 1295 : 			;
; 1296 : 		else
; 1297 : 			reserve(_Grow_to(_Size));

  0003f	57		 push	 edi
  00040	8b ce		 mov	 ecx, esi
  00042	e8 00 00 00 00	 call	 ?_Grow_to@?$vector@UAttackAttribute@@V?$allocator@UAttackAttribute@@@std@@@std@@IBEII@Z ; std::vector<AttackAttribute,std::allocator<AttackAttribute> >::_Grow_to
  00047	50		 push	 eax
  00048	8b ce		 mov	 ecx, esi
  0004a	e8 00 00 00 00	 call	 ?reserve@?$vector@UAttackAttribute@@V?$allocator@UAttackAttribute@@@std@@@std@@QAEXI@Z ; std::vector<AttackAttribute,std::allocator<AttackAttribute> >::reserve
$LN1@Reserve:
  0004f	5f		 pop	 edi
  00050	5e		 pop	 esi

; 1298 : 		}

  00051	5d		 pop	 ebp
  00052	c2 04 00	 ret	 4
$LN20@Reserve:
?_Reserve@?$vector@UAttackAttribute@@V?$allocator@UAttackAttribute@@@std@@@std@@IAEXI@Z ENDP ; std::vector<AttackAttribute,std::allocator<AttackAttribute> >::_Reserve
_TEXT	ENDS
PUBLIC	??1?$vector@UAttackAttribute@@V?$allocator@UAttackAttribute@@@std@@@std@@QAE@XZ ; std::vector<AttackAttribute,std::allocator<AttackAttribute> >::~vector<AttackAttribute,std::allocator<AttackAttribute> >
; Function compile flags: /Ogsp
;	COMDAT ??1?$vector@UAttackAttribute@@V?$allocator@UAttackAttribute@@@std@@@std@@QAE@XZ
_TEXT	SEGMENT
??1?$vector@UAttackAttribute@@V?$allocator@UAttackAttribute@@@std@@@std@@QAE@XZ PROC ; std::vector<AttackAttribute,std::allocator<AttackAttribute> >::~vector<AttackAttribute,std::allocator<AttackAttribute> >, COMDAT
; _this$ = ecx

; 705  : 		_Tidy();

  00000	e9 00 00 00 00	 jmp	 ?_Tidy@?$vector@UAttackAttribute@@V?$allocator@UAttackAttribute@@@std@@@std@@IAEXXZ ; std::vector<AttackAttribute,std::allocator<AttackAttribute> >::_Tidy
??1?$vector@UAttackAttribute@@V?$allocator@UAttackAttribute@@@std@@@std@@QAE@XZ ENDP ; std::vector<AttackAttribute,std::allocator<AttackAttribute> >::~vector<AttackAttribute,std::allocator<AttackAttribute> >
_TEXT	ENDS
PUBLIC	?clear@?$vector@UAttackAttribute@@V?$allocator@UAttackAttribute@@@std@@@std@@QAEXXZ ; std::vector<AttackAttribute,std::allocator<AttackAttribute> >::clear
; Function compile flags: /Ogsp
;	COMDAT ?clear@?$vector@UAttackAttribute@@V?$allocator@UAttackAttribute@@@std@@@std@@QAEXXZ
_TEXT	SEGMENT
$T555752 = -4						; size = 4
?clear@?$vector@UAttackAttribute@@V?$allocator@UAttackAttribute@@@std@@@std@@QAEXXZ PROC ; std::vector<AttackAttribute,std::allocator<AttackAttribute> >::clear, COMDAT
; _this$ = ecx

; 1217 : 		{	// erase all

  00000	55		 push	 ebp
  00001	8b ec		 mov	 ebp, esp
  00003	51		 push	 ecx

; 1218 : 		erase(begin(), end());

  00004	8b 41 04	 mov	 eax, DWORD PTR [ecx+4]
  00007	8b 11		 mov	 edx, DWORD PTR [ecx]
  00009	50		 push	 eax
  0000a	52		 push	 edx
  0000b	8d 45 fc	 lea	 eax, DWORD PTR $T555752[ebp]
  0000e	50		 push	 eax
  0000f	e8 00 00 00 00	 call	 ?erase@?$vector@UAttackAttribute@@V?$allocator@UAttackAttribute@@@std@@@std@@QAE?AV?$_Vector_iterator@V?$_Vector_val@UAttackAttribute@@V?$allocator@UAttackAttribute@@@std@@@std@@@2@V?$_Vector_const_iterator@V?$_Vector_val@UAttackAttribute@@V?$allocator@UAttackAttribute@@@std@@@std@@@2@0@Z ; std::vector<AttackAttribute,std::allocator<AttackAttribute> >::erase

; 1219 : 		}

  00014	c9		 leave
  00015	c3		 ret	 0
?clear@?$vector@UAttackAttribute@@V?$allocator@UAttackAttribute@@@std@@@std@@QAEXXZ ENDP ; std::vector<AttackAttribute,std::allocator<AttackAttribute> >::clear
_TEXT	ENDS
PUBLIC	??_7ioTargetFlowAttackSkill@@6B@		; ioTargetFlowAttackSkill::`vftable'
PUBLIC	??0ioTargetFlowAttackSkill@@QAE@XZ		; ioTargetFlowAttackSkill::ioTargetFlowAttackSkill
PUBLIC	??_R4ioTargetFlowAttackSkill@@6B@		; ioTargetFlowAttackSkill::`RTTI Complete Object Locator'
PUBLIC	??_R0?AVioTargetFlowAttackSkill@@@8		; ioTargetFlowAttackSkill `RTTI Type Descriptor'
PUBLIC	??_R3ioTargetFlowAttackSkill@@8			; ioTargetFlowAttackSkill::`RTTI Class Hierarchy Descriptor'
PUBLIC	??_R2ioTargetFlowAttackSkill@@8			; ioTargetFlowAttackSkill::`RTTI Base Class Array'
PUBLIC	??_R1A@?0A@EA@ioTargetFlowAttackSkill@@8	; ioTargetFlowAttackSkill::`RTTI Base Class Descriptor at (0,-1,0,64)'
PUBLIC	??_R1A@?0A@EA@ioAttackSkill@@8			; ioAttackSkill::`RTTI Base Class Descriptor at (0,-1,0,64)'
PUBLIC	??_R0?AVioAttackSkill@@@8			; ioAttackSkill `RTTI Type Descriptor'
PUBLIC	??_R3ioAttackSkill@@8				; ioAttackSkill::`RTTI Class Hierarchy Descriptor'
PUBLIC	??_R2ioAttackSkill@@8				; ioAttackSkill::`RTTI Base Class Array'
PUBLIC	??_R1A@?0A@EA@ioSkill@@8			; ioSkill::`RTTI Base Class Descriptor at (0,-1,0,64)'
PUBLIC	??_R0?AVioSkill@@@8				; ioSkill `RTTI Type Descriptor'
PUBLIC	??_R3ioSkill@@8					; ioSkill::`RTTI Class Hierarchy Descriptor'
PUBLIC	??_R2ioSkill@@8					; ioSkill::`RTTI Base Class Array'
PUBLIC	?LoadProperty@ioTargetFlowAttackSkill@@UAEXAAVioINILoader@@@Z ; ioTargetFlowAttackSkill::LoadProperty
PUBLIC	?Clone@ioTargetFlowAttackSkill@@UAEPAVioSkill@@XZ ; ioTargetFlowAttackSkill::Clone
PUBLIC	?GetDefenseSkillBreakeType@ioSkill@@UBE?AW4DefenseBreakType@@XZ ; ioSkill::GetDefenseSkillBreakeType
PUBLIC	?GetSkillEndNextJumpAmt@ioSkill@@UBEMXZ		; ioSkill::GetSkillEndNextJumpAmt
PUBLIC	?GetSkillEndNextLandRate@ioSkill@@UBEMXZ	; ioSkill::GetSkillEndNextLandRate
PUBLIC	?EnableChangeGrapplingTargetPos@ioSkill@@UBE_NXZ ; ioSkill::EnableChangeGrapplingTargetPos
PUBLIC	?IsInvisibleBottomCircle@ioSkill@@UAE_NPAVioBaseChar@@@Z ; ioSkill::IsInvisibleBottomCircle
PUBLIC	?IsCanJumpingSkill@ioSkill@@UBE_NXZ		; ioSkill::IsCanJumpingSkill
PUBLIC	?IsCanJumpingSkillOnBlowWound@ioSkill@@UBE_NXZ	; ioSkill::IsCanJumpingSkillOnBlowWound
PUBLIC	?IsCanDownSkill@ioSkill@@UBE_NXZ		; ioSkill::IsCanDownSkill
PUBLIC	?IsCanBlowWoundSkill@ioSkill@@UBE_NXZ		; ioSkill::IsCanBlowWoundSkill
PUBLIC	?IsCanWoundSkill@ioSkill@@UBE_NXZ		; ioSkill::IsCanWoundSkill
PUBLIC	?IsUseActiveCnt@ioSkill@@UBE_NXZ		; ioSkill::IsUseActiveCnt
PUBLIC	?GetMaxActiveCnt@ioSkill@@UBEHPAVioBaseChar@@@Z	; ioSkill::GetMaxActiveCnt
PUBLIC	?GetCurActiveCnt@ioSkill@@UBEHPAVioBaseChar@@@Z	; ioSkill::GetCurActiveCnt
EXTRN	??1ioAttackSkill@@UAE@XZ:PROC			; ioAttackSkill::~ioAttackSkill
EXTRN	??0ioAttackSkill@@QAE@XZ:PROC			; ioAttackSkill::ioAttackSkill
EXTRN	?GetTypeID@ioAttackSkill@@UBEHXZ:PROC		; ioAttackSkill::GetTypeID
EXTRN	?IsCanSwitchSkill@ioSkill@@UBE_NXZ:PROC		; ioSkill::IsCanSwitchSkill
EXTRN	?IsCanSemiSwitchSkill@ioSkill@@UBE_NXZ:PROC	; ioSkill::IsCanSemiSwitchSkill
EXTRN	?IsCanCancelBySkill@ioSkill@@UBE_NPAVioBaseChar@@AAH@Z:PROC ; ioSkill::IsCanCancelBySkill
EXTRN	?IsCanUseZeroHP@ioSkill@@UBE_NPAVioBaseChar@@@Z:PROC ; ioSkill::IsCanUseZeroHP
EXTRN	?IsCanUseSkillWithCrown@ioSkill@@UAE_NPAVioBaseChar@@@Z:PROC ; ioSkill::IsCanUseSkillWithCrown
EXTRN	?IsCanUseBoss@ioSkill@@UBE_NPAVioBaseChar@@@Z:PROC ; ioSkill::IsCanUseBoss
EXTRN	?IsCanUseFootball@ioSkill@@UBE_NXZ:PROC		; ioSkill::IsCanUseFootball
EXTRN	?IsCanUseGangSiMode@ioSkill@@UBE_NXZ:PROC	; ioSkill::IsCanUseGangSiMode
EXTRN	?IsCanUseByWeaponType@ioSkill@@UBE_NPAVioBaseChar@@@Z:PROC ; ioSkill::IsCanUseByWeaponType
EXTRN	?IsCanUseThunderBirdHold@ioSkill@@UBE_NPAVioBaseChar@@@Z:PROC ; ioSkill::IsCanUseThunderBirdHold
EXTRN	?IsCanUseLimitHP@ioSkill@@UBE_NPAVioBaseChar@@@Z:PROC ; ioSkill::IsCanUseLimitHP
EXTRN	?IsCanUseSkill@ioAttackSkill@@UAE_NPAVioBaseChar@@_N@Z:PROC ; ioAttackSkill::IsCanUseSkill
EXTRN	?IsOnOffEnable@ioSkill@@UAE_NXZ:PROC		; ioSkill::IsOnOffEnable
EXTRN	?IsCanDefenseStateSkill@ioSkill@@UAE_NXZ:PROC	; ioSkill::IsCanDefenseStateSkill
EXTRN	?SetDefenseStateSkill@ioSkill@@UAEXPAVioBaseChar@@@Z:PROC ; ioSkill::SetDefenseStateSkill
EXTRN	?HasBuff@ioSkill@@UBE_NH@Z:PROC			; ioSkill::HasBuff
EXTRN	?GetBuffType@ioSkill@@UAEHH@Z:PROC		; ioSkill::GetBuffType
EXTRN	?IsEnableReserve@ioSkill@@UBE_NXZ:PROC		; ioSkill::IsEnableReserve
EXTRN	?IsCharSkipState@ioSkill@@UBE?AW4SkillCharColType@@XZ:PROC ; ioSkill::IsCharSkipState
EXTRN	?IsEntityCollisionSkipState@ioSkill@@UBE_NXZ:PROC ; ioSkill::IsEntityCollisionSkipState
EXTRN	?IsJumpState@ioSkill@@UBE_NXZ:PROC		; ioSkill::IsJumpState
EXTRN	?IsDownState@ioSkill@@UBE_NXZ:PROC		; ioSkill::IsDownState
EXTRN	?IsCanSendControl@ioSkill@@UBE_NXZ:PROC		; ioSkill::IsCanSendControl
EXTRN	?IsSkipState@ioSkill@@UBE_NXZ:PROC		; ioSkill::IsSkipState
EXTRN	?GetSkillMoveRate@ioSkill@@UBEMXZ:PROC		; ioSkill::GetSkillMoveRate
EXTRN	?SetSkillGrapplingState@ioSkill@@UAE_NPAVioBaseChar@@ABVioHashString@@@Z:PROC ; ioSkill::SetSkillGrapplingState
EXTRN	?GetGrapplingTargetPos@ioSkill@@UAE?AUD3DXVECTOR3@@PAVioBaseChar@@0@Z:PROC ; ioSkill::GetGrapplingTargetPos
EXTRN	?GetGrapplingTargetPos@ioSkill@@UAE?AUD3DXVECTOR3@@PAVioBaseChar@@@Z:PROC ; ioSkill::GetGrapplingTargetPos
EXTRN	?GetSkillWoundGrapplingInfo@ioSkill@@UAE?AUGrapplingSkillWoundedInfo@@XZ:PROC ; ioSkill::GetSkillWoundGrapplingInfo
EXTRN	?SetCreateWeaponDependency@ioSkill@@UAEXPAVioBaseChar@@PAVioPlayStage@@@Z:PROC ; ioSkill::SetCreateWeaponDependency
EXTRN	?SetNextSkillState@ioSkill@@UAEXPAVioBaseChar@@PAVioWeapon@@@Z:PROC ; ioSkill::SetNextSkillState
EXTRN	?OnSkillEndByWounded@ioSkill@@UAEXPAVioBaseChar@@@Z:PROC ; ioSkill::OnSkillEndByWounded
EXTRN	?OnProcessNotUseSkill@ioSkill@@UAEXPAVioBaseChar@@PAVioPlayStage@@@Z:PROC ; ioSkill::OnProcessNotUseSkill
EXTRN	?OnSkillItemRelease@ioSkill@@UAEXPAVioBaseChar@@@Z:PROC ; ioSkill::OnSkillItemRelease
EXTRN	?ApplyEquipSlotSkillExtraInfo@ioSkill@@UAEXPAVioBaseChar@@PAVioPlayStage@@AAVSP2Packet@@@Z:PROC ; ioSkill::ApplyEquipSlotSkillExtraInfo
EXTRN	?ApplyExtraPassiveSkillInfo@ioSkill@@UAEXPAVioBaseChar@@PAVioPlayStage@@AAVSP2Packet@@@Z:PROC ; ioSkill::ApplyExtraPassiveSkillInfo
EXTRN	?StartPreDelayEffect@ioAttackSkill@@UAEXPAVioBaseChar@@@Z:PROC ; ioAttackSkill::StartPreDelayEffect
EXTRN	?EndPreDelayEffect@ioAttackSkill@@UAEXPAVioBaseChar@@@Z:PROC ; ioAttackSkill::EndPreDelayEffect
EXTRN	?IsUseAutoTargetValue@ioAttackSkill@@UAE_NXZ:PROC ; ioAttackSkill::IsUseAutoTargetValue
EXTRN	?IsAutoTargetDownState@ioSkill@@UAE_NXZ:PROC	; ioSkill::IsAutoTargetDownState
EXTRN	?CheckUseBuff@ioSkill@@UAE_NPAVioBaseChar@@@Z:PROC ; ioSkill::CheckUseBuff
EXTRN	?CheckUseActiveCount@ioSkill@@UAE_NXZ:PROC	; ioSkill::CheckUseActiveCount
EXTRN	?CheckAniRotate@ioSkill@@UAEXPAVioBaseChar@@@Z:PROC ; ioSkill::CheckAniRotate
EXTRN	?IsEnableDashCheck@ioSkill@@UAE_NPAVioBaseChar@@@Z:PROC ; ioSkill::IsEnableDashCheck
EXTRN	?IsEnableMultiActive@ioSkill@@UAE_NPAVioBaseChar@@@Z:PROC ; ioSkill::IsEnableMultiActive
EXTRN	?GetAutoTargetValue@ioSkill@@UAEXAAM00@Z:PROC	; ioSkill::GetAutoTargetValue
EXTRN	?GetSkillGravityRate@ioSkill@@UAEMXZ:PROC	; ioSkill::GetSkillGravityRate
EXTRN	?GetSkillMotionName@ioSkill@@UBEABVioHashString@@XZ:PROC ; ioSkill::GetSkillMotionName
EXTRN	?HasSkillMotion@ioSkill@@UBE_NXZ:PROC		; ioSkill::HasSkillMotion
EXTRN	?GetSkillMotionRate@ioSkill@@UBEMXZ:PROC	; ioSkill::GetSkillMotionRate
EXTRN	?IsPreDelayProtect@ioSkill@@UBE_NXZ:PROC	; ioSkill::IsPreDelayProtect
EXTRN	?GetPreDelayAniName@ioSkill@@UBEABVioHashString@@XZ:PROC ; ioSkill::GetPreDelayAniName
EXTRN	?GetPreDelayTime@ioSkill@@UBEKXZ:PROC		; ioSkill::GetPreDelayTime
EXTRN	?GetPreDelayOwnerEffect@ioSkill@@UBEABVioHashString@@XZ:PROC ; ioSkill::GetPreDelayOwnerEffect
EXTRN	?GetPreDelayOtherEffect@ioSkill@@UBEABVioHashString@@XZ:PROC ; ioSkill::GetPreDelayOtherEffect
EXTRN	?SetCancelSkill@ioSkill@@UAEXPAVioBaseChar@@@Z:PROC ; ioSkill::SetCancelSkill
EXTRN	?ClearAirJump@ioSkill@@MAEXXZ:PROC		; ioSkill::ClearAirJump
EXTRN	?SetAirJump@ioSkill@@MAEXPAVioBaseChar@@HM@Z:PROC ; ioSkill::SetAirJump
EXTRN	?CheckAirJump@ioSkill@@MAEXPAVioBaseChar@@@Z:PROC ; ioSkill::CheckAirJump
EXTRN	?UseActiveCount@ioSkill@@UAE_NPAVioBaseChar@@@Z:PROC ; ioSkill::UseActiveCount
EXTRN	?GetMaxActiveCount@ioSkill@@UAEHPAVioBaseChar@@@Z:PROC ; ioSkill::GetMaxActiveCount
EXTRN	?GetCurActiveCount@ioSkill@@UAEHPAVioBaseChar@@@Z:PROC ; ioSkill::GetCurActiveCount
EXTRN	?HideHPGauge@ioSkill@@UAE_NXZ:PROC		; ioSkill::HideHPGauge
EXTRN	?SetInfoByApplyWeapon@ioSkill@@UAEXPAVioBaseChar@@0K_N@Z:PROC ; ioSkill::SetInfoByApplyWeapon
EXTRN	?SetCollisionByApplySkill@ioSkill@@UAEXXZ:PROC	; ioSkill::SetCollisionByApplySkill
EXTRN	?SetChargingRateForWeapon@ioSkill@@UAEXPAVioWeapon@@@Z:PROC ; ioSkill::SetChargingRateForWeapon
EXTRN	?CheckExceptionCamera@ioSkill@@UAE_NXZ:PROC	; ioSkill::CheckExceptionCamera
EXTRN	?GetExceptionCameraPos@ioSkill@@UAE?AUD3DXVECTOR3@@PAVioBaseChar@@@Z:PROC ; ioSkill::GetExceptionCameraPos
EXTRN	?IsFixedExceptionCamera@ioSkill@@UAE_NXZ:PROC	; ioSkill::IsFixedExceptionCamera
EXTRN	??_EioTargetFlowAttackSkill@@UAEPAXI@Z:PROC	; ioTargetFlowAttackSkill::`vector deleting destructor'
EXTRN	?StartPreDelayAnimation@ioAttackSkill@@MAE_NPAVioBaseChar@@@Z:PROC ; ioAttackSkill::StartPreDelayAnimation
EXTRN	?GetAttackTimeRate@ioAttackSkill@@MBEMXZ:PROC	; ioAttackSkill::GetAttackTimeRate
EXTRN	?GetAttackEndTimeRate@ioAttackSkill@@MBEMXZ:PROC ; ioAttackSkill::GetAttackEndTimeRate
EXTRN	?LoadNormalAttribute@ioAttackSkill@@MAEXAAVioINILoader@@@Z:PROC ; ioAttackSkill::LoadNormalAttribute
EXTRN	?LoadDownAttribute@ioAttackSkill@@MAEXAAVioINILoader@@@Z:PROC ; ioAttackSkill::LoadDownAttribute
EXTRN	?LoadJumpAttribute@ioAttackSkill@@MAEXAAVioINILoader@@@Z:PROC ; ioAttackSkill::LoadJumpAttribute
EXTRN	?IsCanStateEscape@ioAttackSkill@@UBE_NXZ:PROC	; ioAttackSkill::IsCanStateEscape
EXTRN	?IsCanStateEscapeOnStand@ioAttackSkill@@UBE_NPAVioBaseChar@@@Z:PROC ; ioAttackSkill::IsCanStateEscapeOnStand
EXTRN	?IsCanStateEscapeOnAir@ioAttackSkill@@UBE_NPAVioBaseChar@@@Z:PROC ; ioAttackSkill::IsCanStateEscapeOnAir
EXTRN	?IsCanStateEscapeOnDown@ioAttackSkill@@UBE_NPAVioBaseChar@@@Z:PROC ; ioAttackSkill::IsCanStateEscapeOnDown
;	COMDAT ??_R2ioSkill@@8
; File c:\program files (x86)\microsoft visual studio 10.0\vc\include\xmemory
rdata$r	SEGMENT
??_R2ioSkill@@8 DD FLAT:??_R1A@?0A@EA@ioSkill@@8	; ioSkill::`RTTI Base Class Array'
rdata$r	ENDS
;	COMDAT ??_R3ioSkill@@8
rdata$r	SEGMENT
??_R3ioSkill@@8 DD 00H					; ioSkill::`RTTI Class Hierarchy Descriptor'
	DD	00H
	DD	01H
	DD	FLAT:??_R2ioSkill@@8
rdata$r	ENDS
;	COMDAT ??_R0?AVioSkill@@@8
_DATA	SEGMENT
??_R0?AVioSkill@@@8 DD FLAT:??_7type_info@@6B@		; ioSkill `RTTI Type Descriptor'
	DD	00H
	DB	'.?AVioSkill@@', 00H
_DATA	ENDS
;	COMDAT ??_R1A@?0A@EA@ioSkill@@8
rdata$r	SEGMENT
??_R1A@?0A@EA@ioSkill@@8 DD FLAT:??_R0?AVioSkill@@@8	; ioSkill::`RTTI Base Class Descriptor at (0,-1,0,64)'
	DD	00H
	DD	00H
	DD	0ffffffffH
	DD	00H
	DD	040H
	DD	FLAT:??_R3ioSkill@@8
rdata$r	ENDS
;	COMDAT ??_R2ioAttackSkill@@8
rdata$r	SEGMENT
??_R2ioAttackSkill@@8 DD FLAT:??_R1A@?0A@EA@ioAttackSkill@@8 ; ioAttackSkill::`RTTI Base Class Array'
	DD	FLAT:??_R1A@?0A@EA@ioSkill@@8
rdata$r	ENDS
;	COMDAT ??_R3ioAttackSkill@@8
rdata$r	SEGMENT
??_R3ioAttackSkill@@8 DD 00H				; ioAttackSkill::`RTTI Class Hierarchy Descriptor'
	DD	00H
	DD	02H
	DD	FLAT:??_R2ioAttackSkill@@8
rdata$r	ENDS
;	COMDAT ??_R0?AVioAttackSkill@@@8
_DATA	SEGMENT
??_R0?AVioAttackSkill@@@8 DD FLAT:??_7type_info@@6B@	; ioAttackSkill `RTTI Type Descriptor'
	DD	00H
	DB	'.?AVioAttackSkill@@', 00H
_DATA	ENDS
;	COMDAT ??_R1A@?0A@EA@ioAttackSkill@@8
rdata$r	SEGMENT
??_R1A@?0A@EA@ioAttackSkill@@8 DD FLAT:??_R0?AVioAttackSkill@@@8 ; ioAttackSkill::`RTTI Base Class Descriptor at (0,-1,0,64)'
	DD	01H
	DD	00H
	DD	0ffffffffH
	DD	00H
	DD	040H
	DD	FLAT:??_R3ioAttackSkill@@8
rdata$r	ENDS
;	COMDAT ??_R1A@?0A@EA@ioTargetFlowAttackSkill@@8
rdata$r	SEGMENT
??_R1A@?0A@EA@ioTargetFlowAttackSkill@@8 DD FLAT:??_R0?AVioTargetFlowAttackSkill@@@8 ; ioTargetFlowAttackSkill::`RTTI Base Class Descriptor at (0,-1,0,64)'
	DD	02H
	DD	00H
	DD	0ffffffffH
	DD	00H
	DD	040H
	DD	FLAT:??_R3ioTargetFlowAttackSkill@@8
rdata$r	ENDS
;	COMDAT ??_R2ioTargetFlowAttackSkill@@8
rdata$r	SEGMENT
??_R2ioTargetFlowAttackSkill@@8 DD FLAT:??_R1A@?0A@EA@ioTargetFlowAttackSkill@@8 ; ioTargetFlowAttackSkill::`RTTI Base Class Array'
	DD	FLAT:??_R1A@?0A@EA@ioAttackSkill@@8
	DD	FLAT:??_R1A@?0A@EA@ioSkill@@8
rdata$r	ENDS
;	COMDAT ??_R3ioTargetFlowAttackSkill@@8
rdata$r	SEGMENT
??_R3ioTargetFlowAttackSkill@@8 DD 00H			; ioTargetFlowAttackSkill::`RTTI Class Hierarchy Descriptor'
	DD	00H
	DD	03H
	DD	FLAT:??_R2ioTargetFlowAttackSkill@@8
rdata$r	ENDS
;	COMDAT ??_R0?AVioTargetFlowAttackSkill@@@8
_DATA	SEGMENT
??_R0?AVioTargetFlowAttackSkill@@@8 DD FLAT:??_7type_info@@6B@ ; ioTargetFlowAttackSkill `RTTI Type Descriptor'
	DD	00H
	DB	'.?AVioTargetFlowAttackSkill@@', 00H
_DATA	ENDS
;	COMDAT ??_R4ioTargetFlowAttackSkill@@6B@
rdata$r	SEGMENT
??_R4ioTargetFlowAttackSkill@@6B@ DD 00H		; ioTargetFlowAttackSkill::`RTTI Complete Object Locator'
	DD	00H
	DD	00H
	DD	FLAT:??_R0?AVioTargetFlowAttackSkill@@@8
	DD	FLAT:??_R3ioTargetFlowAttackSkill@@8
rdata$r	ENDS
;	COMDAT ??_7ioTargetFlowAttackSkill@@6B@
CONST	SEGMENT
??_7ioTargetFlowAttackSkill@@6B@ DD FLAT:??_R4ioTargetFlowAttackSkill@@6B@ ; ioTargetFlowAttackSkill::`vftable'
	DD	FLAT:?LoadProperty@ioTargetFlowAttackSkill@@UAEXAAVioINILoader@@@Z
	DD	FLAT:?Clone@ioTargetFlowAttackSkill@@UAEPAVioSkill@@XZ
	DD	FLAT:?GetTypeID@ioAttackSkill@@UBEHXZ
	DD	FLAT:?IsProtected@ioTargetFlowAttackSkill@@UBE_NH@Z
	DD	FLAT:?IsCanSwitchSkill@ioSkill@@UBE_NXZ
	DD	FLAT:?IsCanSemiSwitchSkill@ioSkill@@UBE_NXZ
	DD	FLAT:?IsCanCancelBySkill@ioSkill@@UBE_NPAVioBaseChar@@AAH@Z
	DD	FLAT:?IsCanUseZeroHP@ioSkill@@UBE_NPAVioBaseChar@@@Z
	DD	FLAT:?IsCanUseSkillWithCrown@ioSkill@@UAE_NPAVioBaseChar@@@Z
	DD	FLAT:?IsCanUseBoss@ioSkill@@UBE_NPAVioBaseChar@@@Z
	DD	FLAT:?IsCanUseFootball@ioSkill@@UBE_NXZ
	DD	FLAT:?IsCanUseGangSiMode@ioSkill@@UBE_NXZ
	DD	FLAT:?IsCanUseByWeaponType@ioSkill@@UBE_NPAVioBaseChar@@@Z
	DD	FLAT:?IsCanUseThunderBirdHold@ioSkill@@UBE_NPAVioBaseChar@@@Z
	DD	FLAT:?IsCanUseLimitHP@ioSkill@@UBE_NPAVioBaseChar@@@Z
	DD	FLAT:?IsCanUseSkill@ioAttackSkill@@UAE_NPAVioBaseChar@@_N@Z
	DD	FLAT:?IsOnOffEnable@ioSkill@@UAE_NXZ
	DD	FLAT:?IsCanDefenseStateSkill@ioSkill@@UAE_NXZ
	DD	FLAT:?SetDefenseStateSkill@ioSkill@@UAEXPAVioBaseChar@@@Z
	DD	FLAT:?GetDefenseSkillBreakeType@ioSkill@@UBE?AW4DefenseBreakType@@XZ
	DD	FLAT:?HasBuff@ioSkill@@UBE_NH@Z
	DD	FLAT:?GetBuffType@ioSkill@@UAEHH@Z
	DD	FLAT:?IsEnableReserve@ioSkill@@UBE_NXZ
	DD	FLAT:?IsSkillMotionEnd@ioTargetFlowAttackSkill@@UBE_NKPAVioBaseChar@@@Z
	DD	FLAT:?IsCharSkipState@ioSkill@@UBE?AW4SkillCharColType@@XZ
	DD	FLAT:?IsEntityCollisionSkipState@ioSkill@@UBE_NXZ
	DD	FLAT:?GetSkillEndNextJumpAmt@ioSkill@@UBEMXZ
	DD	FLAT:?GetSkillEndNextLandRate@ioSkill@@UBEMXZ
	DD	FLAT:?GetSkillEndNextJumpMustEnable@ioTargetFlowAttackSkill@@UAE?AW4SkillEndJumpType@@XZ
	DD	FLAT:?IsEndState@ioTargetFlowAttackSkill@@UBE_NXZ
	DD	FLAT:?IsAttackEndState@ioTargetFlowAttackSkill@@UBE_NXZ
	DD	FLAT:?IsJumpState@ioSkill@@UBE_NXZ
	DD	FLAT:?IsDownState@ioSkill@@UBE_NXZ
	DD	FLAT:?IsNoDropState@ioTargetFlowAttackSkill@@UBE_NXZ
	DD	FLAT:?IsCanSendControl@ioSkill@@UBE_NXZ
	DD	FLAT:?IsSkipState@ioSkill@@UBE_NXZ
	DD	FLAT:?GetSkillMoveRate@ioSkill@@UBEMXZ
	DD	FLAT:?SetSkillGrapplingState@ioSkill@@UAE_NPAVioBaseChar@@ABVioHashString@@@Z
	DD	FLAT:?GetGrapplingTargetPos@ioSkill@@UAE?AUD3DXVECTOR3@@PAVioBaseChar@@0@Z
	DD	FLAT:?GetGrapplingTargetPos@ioSkill@@UAE?AUD3DXVECTOR3@@PAVioBaseChar@@@Z
	DD	FLAT:?EnableChangeGrapplingTargetPos@ioSkill@@UBE_NXZ
	DD	FLAT:?GetSkillWoundGrapplingInfo@ioSkill@@UAE?AUGrapplingSkillWoundedInfo@@XZ
	DD	FLAT:?SetCreateWeaponDependency@ioSkill@@UAEXPAVioBaseChar@@PAVioPlayStage@@@Z
	DD	FLAT:?SetNextSkillState@ioSkill@@UAEXPAVioBaseChar@@PAVioWeapon@@@Z
	DD	FLAT:?OnSkillStart@ioTargetFlowAttackSkill@@UAE_NPAVioBaseChar@@@Z
	DD	FLAT:?OnProcessState@ioTargetFlowAttackSkill@@UAEXPAVioBaseChar@@PAVioPlayStage@@@Z
	DD	FLAT:?OnSkillEndByWounded@ioSkill@@UAEXPAVioBaseChar@@@Z
	DD	FLAT:?OnSkillEnd@ioTargetFlowAttackSkill@@UAEXPAVioBaseChar@@@Z
	DD	FLAT:?OnProcessNotUseSkill@ioSkill@@UAEXPAVioBaseChar@@PAVioPlayStage@@@Z
	DD	FLAT:?OnSkillItemRelease@ioSkill@@UAEXPAVioBaseChar@@@Z
	DD	FLAT:?ApplyAttributeToWeapon@ioTargetFlowAttackSkill@@UAEXPAVioWeapon@@PAVioPlayStage@@@Z
	DD	FLAT:?ApplyExtraSkillInfo@ioTargetFlowAttackSkill@@UAEXPAVioBaseChar@@PAVioPlayStage@@AAVSP2Packet@@@Z
	DD	FLAT:?ApplyEquipSlotSkillExtraInfo@ioSkill@@UAEXPAVioBaseChar@@PAVioPlayStage@@AAVSP2Packet@@@Z
	DD	FLAT:?ApplyExtraPassiveSkillInfo@ioSkill@@UAEXPAVioBaseChar@@PAVioPlayStage@@AAVSP2Packet@@@Z
	DD	FLAT:?StartPreDelayEffect@ioAttackSkill@@UAEXPAVioBaseChar@@@Z
	DD	FLAT:?EndPreDelayEffect@ioAttackSkill@@UAEXPAVioBaseChar@@@Z
	DD	FLAT:?IsUseAutoTargetValue@ioAttackSkill@@UAE_NXZ
	DD	FLAT:?IsAutoTargetDownState@ioSkill@@UAE_NXZ
	DD	FLAT:?CheckUseBuff@ioSkill@@UAE_NPAVioBaseChar@@@Z
	DD	FLAT:?CheckUseItemMesh@ioTargetFlowAttackSkill@@UAE_NXZ
	DD	FLAT:?CheckUseActiveCount@ioSkill@@UAE_NXZ
	DD	FLAT:?CheckAniRotate@ioSkill@@UAEXPAVioBaseChar@@@Z
	DD	FLAT:?IsEnableDashCheck@ioSkill@@UAE_NPAVioBaseChar@@@Z
	DD	FLAT:?IsEnableMultiActive@ioSkill@@UAE_NPAVioBaseChar@@@Z
	DD	FLAT:?IsInvisibleBottomCircle@ioSkill@@UAE_NPAVioBaseChar@@@Z
	DD	FLAT:?GetAutoTargetValue@ioSkill@@UAEXAAM00@Z
	DD	FLAT:?IsCanJumpingSkill@ioSkill@@UBE_NXZ
	DD	FLAT:?IsCanJumpingSkillOnBlowWound@ioSkill@@UBE_NXZ
	DD	FLAT:?IsCanDownSkill@ioSkill@@UBE_NXZ
	DD	FLAT:?IsCanBlowWoundSkill@ioSkill@@UBE_NXZ
	DD	FLAT:?IsCanWoundSkill@ioSkill@@UBE_NXZ
	DD	FLAT:?GetSkillGravityRate@ioSkill@@UAEMXZ
	DD	FLAT:?GetSkillMotionName@ioSkill@@UBEABVioHashString@@XZ
	DD	FLAT:?HasSkillMotion@ioSkill@@UBE_NXZ
	DD	FLAT:?GetSkillMotionRate@ioSkill@@UBEMXZ
	DD	FLAT:?IsPreDelayProtect@ioSkill@@UBE_NXZ
	DD	FLAT:?GetPreDelayAniName@ioSkill@@UBEABVioHashString@@XZ
	DD	FLAT:?GetPreDelayTime@ioSkill@@UBEKXZ
	DD	FLAT:?GetPreDelayOwnerEffect@ioSkill@@UBEABVioHashString@@XZ
	DD	FLAT:?GetPreDelayOtherEffect@ioSkill@@UBEABVioHashString@@XZ
	DD	FLAT:?SetCancelSkill@ioSkill@@UAEXPAVioBaseChar@@@Z
	DD	FLAT:?ClearAirJump@ioSkill@@MAEXXZ
	DD	FLAT:?SetAirJump@ioSkill@@MAEXPAVioBaseChar@@HM@Z
	DD	FLAT:?CheckAirJump@ioSkill@@MAEXPAVioBaseChar@@@Z
	DD	FLAT:?UseActiveCount@ioSkill@@UAE_NPAVioBaseChar@@@Z
	DD	FLAT:?GetMaxActiveCount@ioSkill@@UAEHPAVioBaseChar@@@Z
	DD	FLAT:?GetCurActiveCount@ioSkill@@UAEHPAVioBaseChar@@@Z
	DD	FLAT:?HideHPGauge@ioSkill@@UAE_NXZ
	DD	FLAT:?SetInfoByApplyWeapon@ioSkill@@UAEXPAVioBaseChar@@0K_N@Z
	DD	FLAT:?SetCollisionByApplySkill@ioSkill@@UAEXXZ
	DD	FLAT:?SetChargingRateForWeapon@ioSkill@@UAEXPAVioWeapon@@@Z
	DD	FLAT:?CheckExceptionCamera@ioSkill@@UAE_NXZ
	DD	FLAT:?GetExceptionCameraPos@ioSkill@@UAE?AUD3DXVECTOR3@@PAVioBaseChar@@@Z
	DD	FLAT:?IsFixedExceptionCamera@ioSkill@@UAE_NXZ
	DD	FLAT:?IsUseActiveCnt@ioSkill@@UBE_NXZ
	DD	FLAT:?GetMaxActiveCnt@ioSkill@@UBEHPAVioBaseChar@@@Z
	DD	FLAT:?GetCurActiveCnt@ioSkill@@UBEHPAVioBaseChar@@@Z
	DD	FLAT:??_EioTargetFlowAttackSkill@@UAEPAXI@Z
	DD	FLAT:?StartPreDelayAnimation@ioAttackSkill@@MAE_NPAVioBaseChar@@@Z
	DD	FLAT:?AttackSkillFire@ioAttackSkill@@MAEXPAVioBaseChar@@@Z
	DD	FLAT:?GetAttackTimeRate@ioAttackSkill@@MBEMXZ
	DD	FLAT:?GetAttackEndTimeRate@ioAttackSkill@@MBEMXZ
	DD	FLAT:?LoadNormalAttribute@ioAttackSkill@@MAEXAAVioINILoader@@@Z
	DD	FLAT:?LoadDownAttribute@ioAttackSkill@@MAEXAAVioINILoader@@@Z
	DD	FLAT:?LoadJumpAttribute@ioAttackSkill@@MAEXAAVioINILoader@@@Z
	DD	FLAT:?GetAttribute@ioTargetFlowAttackSkill@@UAEAAUAttackAttribute@@XZ
	DD	FLAT:?GetAttributeConst@ioTargetFlowAttackSkill@@UBEABUAttackAttribute@@XZ
	DD	FLAT:?IsCanStateEscape@ioAttackSkill@@UBE_NXZ
	DD	FLAT:?IsCanStateEscapeOnStand@ioAttackSkill@@UBE_NPAVioBaseChar@@@Z
	DD	FLAT:?IsCanStateEscapeOnAir@ioAttackSkill@@UBE_NPAVioBaseChar@@@Z
	DD	FLAT:?IsCanStateEscapeOnDown@ioAttackSkill@@UBE_NPAVioBaseChar@@@Z
CONST	ENDS
;	COMDAT xdata$x
xdata$x	SEGMENT
__unwindtable$??0ioTargetFlowAttackSkill@@QAE@XZ DD 0ffffffffH
	DD	FLAT:__unwindfunclet$??0ioTargetFlowAttackSkill@@QAE@XZ$0
	DD	00H
	DD	FLAT:__unwindfunclet$??0ioTargetFlowAttackSkill@@QAE@XZ$1
	DD	01H
	DD	FLAT:__unwindfunclet$??0ioTargetFlowAttackSkill@@QAE@XZ$2
__ehfuncinfo$??0ioTargetFlowAttackSkill@@QAE@XZ DD 019930522H
	DD	03H
	DD	FLAT:__unwindtable$??0ioTargetFlowAttackSkill@@QAE@XZ
	DD	2 DUP(00H)
	DD	2 DUP(00H)
	DD	00H
	DD	01H
; Function compile flags: /Ogsp
; File d:\lost saga for developer\youtube\tutorial\source\src\lsclient\iotargetflowattackskill.cpp
xdata$x	ENDS
;	COMDAT ??0ioTargetFlowAttackSkill@@QAE@XZ
_TEXT	SEGMENT
_this$ = -16						; size = 4
__$EHRec$ = -12						; size = 12
??0ioTargetFlowAttackSkill@@QAE@XZ PROC			; ioTargetFlowAttackSkill::ioTargetFlowAttackSkill, COMDAT
; _this$ = ecx

; 15   : {

  00000	6a 04		 push	 4
  00002	b8 00 00 00 00	 mov	 eax, __ehhandler$??0ioTargetFlowAttackSkill@@QAE@XZ
  00007	e8 00 00 00 00	 call	 __EH_prolog3
  0000c	8b f1		 mov	 esi, ecx
  0000e	89 75 f0	 mov	 DWORD PTR _this$[ebp], esi
  00011	e8 00 00 00 00	 call	 ??0ioAttackSkill@@QAE@XZ ; ioAttackSkill::ioAttackSkill
  00016	83 65 fc 00	 and	 DWORD PTR __$EHRec$[ebp+8], 0
  0001a	8d 8e e8 10 00
	00		 lea	 ecx, DWORD PTR [esi+4328]
  00020	c7 06 00 00 00
	00		 mov	 DWORD PTR [esi], OFFSET ??_7ioTargetFlowAttackSkill@@6B@
  00026	ff 15 00 00 00
	00		 call	 DWORD PTR __imp_??0ioHashString@@QAE@XZ
  0002c	83 a6 1c 11 00
	00 00		 and	 DWORD PTR [esi+4380], 0
  00033	83 a6 20 11 00
	00 00		 and	 DWORD PTR [esi+4384], 0
  0003a	83 a6 24 11 00
	00 00		 and	 DWORD PTR [esi+4388], 0
  00041	8d 8e 2c 11 00
	00		 lea	 ecx, DWORD PTR [esi+4396]
  00047	c6 45 fc 02	 mov	 BYTE PTR __$EHRec$[ebp+8], 2
  0004b	e8 00 00 00 00	 call	 ??0AttackAttribute@@QAE@XZ ; AttackAttribute::AttackAttribute

; 16   : 	Init();

  00050	8b ce		 mov	 ecx, esi
  00052	e8 00 00 00 00	 call	 ?Init@ioTargetFlowAttackSkill@@QAEXXZ ; ioTargetFlowAttackSkill::Init

; 17   : }

  00057	8b c6		 mov	 eax, esi
  00059	e8 00 00 00 00	 call	 __EH_epilog3
  0005e	c3		 ret	 0
_TEXT	ENDS
;	COMDAT text$x
text$x	SEGMENT
__unwindfunclet$??0ioTargetFlowAttackSkill@@QAE@XZ$0:
  00000	8b 4d f0	 mov	 ecx, DWORD PTR _this$[ebp]
  00003	e9 00 00 00 00	 jmp	 ??1ioAttackSkill@@UAE@XZ ; ioAttackSkill::~ioAttackSkill
__unwindfunclet$??0ioTargetFlowAttackSkill@@QAE@XZ$1:
  00008	8b 4d f0	 mov	 ecx, DWORD PTR _this$[ebp]
  0000b	81 c1 e8 10 00
	00		 add	 ecx, 4328		; 000010e8H
  00011	ff 25 00 00 00
	00		 jmp	 DWORD PTR __imp_??1ioHashString@@QAE@XZ
__unwindfunclet$??0ioTargetFlowAttackSkill@@QAE@XZ$2:
  00017	8b 4d f0	 mov	 ecx, DWORD PTR _this$[ebp]
  0001a	81 c1 1c 11 00
	00		 add	 ecx, 4380		; 0000111cH
  00020	e9 00 00 00 00	 jmp	 ??1?$vector@UAttackAttribute@@V?$allocator@UAttackAttribute@@@std@@@std@@QAE@XZ ; std::vector<AttackAttribute,std::allocator<AttackAttribute> >::~vector<AttackAttribute,std::allocator<AttackAttribute> >
__ehhandler$??0ioTargetFlowAttackSkill@@QAE@XZ:
  00025	8b 54 24 08	 mov	 edx, DWORD PTR [esp+8]
  00029	8d 42 0c	 lea	 eax, DWORD PTR [edx+12]
  0002c	8b 4a ec	 mov	 ecx, DWORD PTR [edx-20]
  0002f	33 c8		 xor	 ecx, eax
  00031	e8 00 00 00 00	 call	 @__security_check_cookie@4
  00036	b8 00 00 00 00	 mov	 eax, OFFSET __ehfuncinfo$??0ioTargetFlowAttackSkill@@QAE@XZ
  0003b	e9 00 00 00 00	 jmp	 ___CxxFrameHandler3
text$x	ENDS
??0ioTargetFlowAttackSkill@@QAE@XZ ENDP			; ioTargetFlowAttackSkill::ioTargetFlowAttackSkill
; Function compile flags: /Ogsp
; File d:\lost saga for developer\youtube\tutorial\source\src\lsclient\ioskill.h
;	COMDAT ?GetDefenseSkillBreakeType@ioSkill@@UBE?AW4DefenseBreakType@@XZ
_TEXT	SEGMENT
?GetDefenseSkillBreakeType@ioSkill@@UBE?AW4DefenseBreakType@@XZ PROC ; ioSkill::GetDefenseSkillBreakeType, COMDAT
; _this$ = ecx

; 327  : 	virtual DefenseBreakType GetDefenseSkillBreakeType() const { return m_eDefenseSkillBreakType; }

  00000	8b 81 30 0e 00
	00		 mov	 eax, DWORD PTR [ecx+3632]
  00006	c3		 ret	 0
?GetDefenseSkillBreakeType@ioSkill@@UBE?AW4DefenseBreakType@@XZ ENDP ; ioSkill::GetDefenseSkillBreakeType
; Function compile flags: /Ogsp
_TEXT	ENDS
;	COMDAT ?GetSkillEndNextJumpAmt@ioSkill@@UBEMXZ
_TEXT	SEGMENT
?GetSkillEndNextJumpAmt@ioSkill@@UBEMXZ PROC		; ioSkill::GetSkillEndNextJumpAmt, COMDAT
; _this$ = ecx

; 335  : 	virtual float GetSkillEndNextJumpAmt() const { return m_fSkillEndNextJumpAmt; }

  00000	d9 81 4c 05 00
	00		 fld	 DWORD PTR [ecx+1356]
  00006	c3		 ret	 0
?GetSkillEndNextJumpAmt@ioSkill@@UBEMXZ ENDP		; ioSkill::GetSkillEndNextJumpAmt
; Function compile flags: /Ogsp
_TEXT	ENDS
;	COMDAT ?GetSkillEndNextLandRate@ioSkill@@UBEMXZ
_TEXT	SEGMENT
?GetSkillEndNextLandRate@ioSkill@@UBEMXZ PROC		; ioSkill::GetSkillEndNextLandRate, COMDAT
; _this$ = ecx

; 336  : 	virtual float GetSkillEndNextLandRate() const { return m_fSkillEndNextLandRate; }

  00000	d9 81 50 05 00
	00		 fld	 DWORD PTR [ecx+1360]
  00006	c3		 ret	 0
?GetSkillEndNextLandRate@ioSkill@@UBEMXZ ENDP		; ioSkill::GetSkillEndNextLandRate
; Function compile flags: /Ogsp
_TEXT	ENDS
;	COMDAT ?EnableChangeGrapplingTargetPos@ioSkill@@UBE_NXZ
_TEXT	SEGMENT
?EnableChangeGrapplingTargetPos@ioSkill@@UBE_NXZ PROC	; ioSkill::EnableChangeGrapplingTargetPos, COMDAT
; _this$ = ecx

; 355  : 	virtual bool EnableChangeGrapplingTargetPos() const { return m_bChangeGrapplingTargetPos; }

  00000	8a 81 40 09 00
	00		 mov	 al, BYTE PTR [ecx+2368]
  00006	c3		 ret	 0
?EnableChangeGrapplingTargetPos@ioSkill@@UBE_NXZ ENDP	; ioSkill::EnableChangeGrapplingTargetPos
; Function compile flags: /Ogsp
_TEXT	ENDS
;	COMDAT ?IsInvisibleBottomCircle@ioSkill@@UAE_NPAVioBaseChar@@@Z
_TEXT	SEGMENT
_pChar$ = 8						; size = 4
?IsInvisibleBottomCircle@ioSkill@@UAE_NPAVioBaseChar@@@Z PROC ; ioSkill::IsInvisibleBottomCircle, COMDAT
; _this$ = ecx

; 393  : 	virtual bool IsInvisibleBottomCircle( ioBaseChar *pChar ) { return false; }

  00000	32 c0		 xor	 al, al
  00002	c2 04 00	 ret	 4
?IsInvisibleBottomCircle@ioSkill@@UAE_NPAVioBaseChar@@@Z ENDP ; ioSkill::IsInvisibleBottomCircle
; Function compile flags: /Ogsp
_TEXT	ENDS
;	COMDAT ?IsUseActiveCnt@ioSkill@@UBE_NXZ
_TEXT	SEGMENT
?IsUseActiveCnt@ioSkill@@UBE_NXZ PROC			; ioSkill::IsUseActiveCnt, COMDAT
; _this$ = ecx

; 544  : 	virtual bool IsUseActiveCnt() const { return false; }

  00000	32 c0		 xor	 al, al
  00002	c3		 ret	 0
?IsUseActiveCnt@ioSkill@@UBE_NXZ ENDP			; ioSkill::IsUseActiveCnt
; Function compile flags: /Ogsp
_TEXT	ENDS
;	COMDAT ?GetMaxActiveCnt@ioSkill@@UBEHPAVioBaseChar@@@Z
_TEXT	SEGMENT
_pChar$ = 8						; size = 4
?GetMaxActiveCnt@ioSkill@@UBEHPAVioBaseChar@@@Z PROC	; ioSkill::GetMaxActiveCnt, COMDAT
; _this$ = ecx

; 545  : 	virtual int GetMaxActiveCnt( ioBaseChar *pChar ) const { return 0; }

  00000	33 c0		 xor	 eax, eax
  00002	c2 04 00	 ret	 4
?GetMaxActiveCnt@ioSkill@@UBEHPAVioBaseChar@@@Z ENDP	; ioSkill::GetMaxActiveCnt
; Function compile flags: /Ogsp
_TEXT	ENDS
;	COMDAT ?GetCurActiveCnt@ioSkill@@UBEHPAVioBaseChar@@@Z
_TEXT	SEGMENT
_pChar$ = 8						; size = 4
?GetCurActiveCnt@ioSkill@@UBEHPAVioBaseChar@@@Z PROC	; ioSkill::GetCurActiveCnt, COMDAT
; _this$ = ecx

; 546  : 	virtual int GetCurActiveCnt( ioBaseChar *pChar ) const { return 0; }

  00000	33 c0		 xor	 eax, eax
  00002	c2 04 00	 ret	 4
?GetCurActiveCnt@ioSkill@@UBEHPAVioBaseChar@@@Z ENDP	; ioSkill::GetCurActiveCnt
; Function compile flags: /Ogsp
_TEXT	ENDS
;	COMDAT ?IsCanJumpingSkill@ioSkill@@UBE_NXZ
_TEXT	SEGMENT
_value$555871 = -1					; size = 1
?IsCanJumpingSkill@ioSkill@@UBE_NXZ PROC		; ioSkill::IsCanJumpingSkill, COMDAT
; _this$ = ecx

; 431  : 	virtual bool IsCanJumpingSkill() const { return m_bEnableJumpingSkill; }

  00000	55		 push	 ebp
  00001	8b ec		 mov	 ebp, esp
  00003	51		 push	 ecx
  00004	8d 45 ff	 lea	 eax, DWORD PTR _value$555871[ebp]
  00007	50		 push	 eax
  00008	81 c1 9c 03 00
	00		 add	 ecx, 924		; 0000039cH
  0000e	e8 00 00 00 00	 call	 ?DecryptValueToPool@?$CEncrypt@_N@@QAEXPA_N@Z ; CEncrypt<bool>::DecryptValueToPool
  00013	8a 45 ff	 mov	 al, BYTE PTR _value$555871[ebp]
  00016	c9		 leave
  00017	c3		 ret	 0
?IsCanJumpingSkill@ioSkill@@UBE_NXZ ENDP		; ioSkill::IsCanJumpingSkill
; Function compile flags: /Ogsp
_TEXT	ENDS
;	COMDAT ?IsCanJumpingSkillOnBlowWound@ioSkill@@UBE_NXZ
_TEXT	SEGMENT
_value$555878 = -1					; size = 1
?IsCanJumpingSkillOnBlowWound@ioSkill@@UBE_NXZ PROC	; ioSkill::IsCanJumpingSkillOnBlowWound, COMDAT
; _this$ = ecx

; 432  : 	virtual bool IsCanJumpingSkillOnBlowWound() const { return m_bEnableJumpingSkillOnBlowWound; }

  00000	55		 push	 ebp
  00001	8b ec		 mov	 ebp, esp
  00003	51		 push	 ecx
  00004	8d 45 ff	 lea	 eax, DWORD PTR _value$555878[ebp]
  00007	50		 push	 eax
  00008	81 c1 cc 03 00
	00		 add	 ecx, 972		; 000003ccH
  0000e	e8 00 00 00 00	 call	 ?DecryptValueToPool@?$CEncrypt@_N@@QAEXPA_N@Z ; CEncrypt<bool>::DecryptValueToPool
  00013	8a 45 ff	 mov	 al, BYTE PTR _value$555878[ebp]
  00016	c9		 leave
  00017	c3		 ret	 0
?IsCanJumpingSkillOnBlowWound@ioSkill@@UBE_NXZ ENDP	; ioSkill::IsCanJumpingSkillOnBlowWound
; Function compile flags: /Ogsp
_TEXT	ENDS
;	COMDAT ?IsCanDownSkill@ioSkill@@UBE_NXZ
_TEXT	SEGMENT
_value$555885 = -1					; size = 1
?IsCanDownSkill@ioSkill@@UBE_NXZ PROC			; ioSkill::IsCanDownSkill, COMDAT
; _this$ = ecx

; 437  : 	virtual bool IsCanDownSkill() const { return m_bEnableDownSkill; }

  00000	55		 push	 ebp
  00001	8b ec		 mov	 ebp, esp
  00003	51		 push	 ecx
  00004	8d 45 ff	 lea	 eax, DWORD PTR _value$555885[ebp]
  00007	50		 push	 eax
  00008	81 c1 5c 04 00
	00		 add	 ecx, 1116		; 0000045cH
  0000e	e8 00 00 00 00	 call	 ?DecryptValueToPool@?$CEncrypt@_N@@QAEXPA_N@Z ; CEncrypt<bool>::DecryptValueToPool
  00013	8a 45 ff	 mov	 al, BYTE PTR _value$555885[ebp]
  00016	c9		 leave
  00017	c3		 ret	 0
?IsCanDownSkill@ioSkill@@UBE_NXZ ENDP			; ioSkill::IsCanDownSkill
; Function compile flags: /Ogsp
_TEXT	ENDS
;	COMDAT ?IsCanBlowWoundSkill@ioSkill@@UBE_NXZ
_TEXT	SEGMENT
_value$555892 = -1					; size = 1
?IsCanBlowWoundSkill@ioSkill@@UBE_NXZ PROC		; ioSkill::IsCanBlowWoundSkill, COMDAT
; _this$ = ecx

; 440  : 	virtual bool IsCanBlowWoundSkill() const { return m_bEnableBlowWoundSkill; }

  00000	55		 push	 ebp
  00001	8b ec		 mov	 ebp, esp
  00003	51		 push	 ecx
  00004	8d 45 ff	 lea	 eax, DWORD PTR _value$555892[ebp]
  00007	50		 push	 eax
  00008	81 c1 8c 04 00
	00		 add	 ecx, 1164		; 0000048cH
  0000e	e8 00 00 00 00	 call	 ?DecryptValueToPool@?$CEncrypt@_N@@QAEXPA_N@Z ; CEncrypt<bool>::DecryptValueToPool
  00013	8a 45 ff	 mov	 al, BYTE PTR _value$555892[ebp]
  00016	c9		 leave
  00017	c3		 ret	 0
?IsCanBlowWoundSkill@ioSkill@@UBE_NXZ ENDP		; ioSkill::IsCanBlowWoundSkill
; Function compile flags: /Ogsp
_TEXT	ENDS
;	COMDAT ?IsCanWoundSkill@ioSkill@@UBE_NXZ
_TEXT	SEGMENT
_value$555899 = -1					; size = 1
?IsCanWoundSkill@ioSkill@@UBE_NXZ PROC			; ioSkill::IsCanWoundSkill, COMDAT
; _this$ = ecx

; 446  : 	virtual bool IsCanWoundSkill() const { return m_bEnableWoundSkill; }

  00000	55		 push	 ebp
  00001	8b ec		 mov	 ebp, esp
  00003	51		 push	 ecx
  00004	8d 45 ff	 lea	 eax, DWORD PTR _value$555899[ebp]
  00007	50		 push	 eax
  00008	81 c1 54 05 00
	00		 add	 ecx, 1364		; 00000554H
  0000e	e8 00 00 00 00	 call	 ?DecryptValueToPool@?$CEncrypt@_N@@QAEXPA_N@Z ; CEncrypt<bool>::DecryptValueToPool
  00013	8a 45 ff	 mov	 al, BYTE PTR _value$555899[ebp]
  00016	c9		 leave
  00017	c3		 ret	 0
?IsCanWoundSkill@ioSkill@@UBE_NXZ ENDP			; ioSkill::IsCanWoundSkill
_TEXT	ENDS
PUBLIC	??0ioTargetFlowAttackSkill@@QAE@ABV0@@Z		; ioTargetFlowAttackSkill::ioTargetFlowAttackSkill
EXTRN	??0ioAttackSkill@@QAE@ABV0@@Z:PROC		; ioAttackSkill::ioAttackSkill
;	COMDAT xdata$x
; File c:\program files (x86)\microsoft directx sdk (june 2010)\include\d3dx9math.h
xdata$x	SEGMENT
__unwindtable$??0ioTargetFlowAttackSkill@@QAE@ABV0@@Z DD 0ffffffffH
	DD	FLAT:__unwindfunclet$??0ioTargetFlowAttackSkill@@QAE@ABV0@@Z$0
	DD	00H
	DD	FLAT:__unwindfunclet$??0ioTargetFlowAttackSkill@@QAE@ABV0@@Z$1
	DD	01H
	DD	FLAT:__unwindfunclet$??0ioTargetFlowAttackSkill@@QAE@ABV0@@Z$2
__ehfuncinfo$??0ioTargetFlowAttackSkill@@QAE@ABV0@@Z DD 019930522H
	DD	03H
	DD	FLAT:__unwindtable$??0ioTargetFlowAttackSkill@@QAE@ABV0@@Z
	DD	2 DUP(00H)
	DD	2 DUP(00H)
	DD	00H
	DD	01H
; Function compile flags: /Ogsp
; File d:\lost saga for developer\youtube\tutorial\source\src\lsclient\iotargetflowattackskill.cpp
xdata$x	ENDS
;	COMDAT ??0ioTargetFlowAttackSkill@@QAE@ABV0@@Z
_TEXT	SEGMENT
_this$ = -16						; size = 4
__$EHRec$ = -12						; size = 12
_rhs$ = 8						; size = 4
??0ioTargetFlowAttackSkill@@QAE@ABV0@@Z PROC		; ioTargetFlowAttackSkill::ioTargetFlowAttackSkill, COMDAT
; _this$ = ecx

; 28   : {

  00000	6a 04		 push	 4
  00002	b8 00 00 00 00	 mov	 eax, __ehhandler$??0ioTargetFlowAttackSkill@@QAE@ABV0@@Z
  00007	e8 00 00 00 00	 call	 __EH_prolog3
  0000c	8b f1		 mov	 esi, ecx
  0000e	89 75 f0	 mov	 DWORD PTR _this$[ebp], esi
  00011	8b 7d 08	 mov	 edi, DWORD PTR _rhs$[ebp]
  00014	57		 push	 edi
  00015	e8 00 00 00 00	 call	 ??0ioAttackSkill@@QAE@ABV0@@Z ; ioAttackSkill::ioAttackSkill
  0001a	83 65 fc 00	 and	 DWORD PTR __$EHRec$[ebp+8], 0
  0001e	8d 87 e8 10 00
	00		 lea	 eax, DWORD PTR [edi+4328]
  00024	50		 push	 eax
  00025	8d 8e e8 10 00
	00		 lea	 ecx, DWORD PTR [esi+4328]
  0002b	c7 06 00 00 00
	00		 mov	 DWORD PTR [esi], OFFSET ??_7ioTargetFlowAttackSkill@@6B@
  00031	ff 15 00 00 00
	00		 call	 DWORD PTR __imp_??0ioHashString@@QAE@ABV0@@Z
  00037	d9 87 f8 10 00
	00		 fld	 DWORD PTR [edi+4344]
  0003d	d9 9e f8 10 00
	00		 fstp	 DWORD PTR [esi+4344]
  00043	8d 87 1c 11 00
	00		 lea	 eax, DWORD PTR [edi+4380]
  00049	d9 87 fc 10 00
	00		 fld	 DWORD PTR [edi+4348]
  0004f	50		 push	 eax
  00050	d9 9e fc 10 00
	00		 fstp	 DWORD PTR [esi+4348]
  00056	8d 8e 1c 11 00
	00		 lea	 ecx, DWORD PTR [esi+4380]
  0005c	d9 87 00 11 00
	00		 fld	 DWORD PTR [edi+4352]
  00062	c6 45 fc 01	 mov	 BYTE PTR __$EHRec$[ebp+8], 1
  00066	d9 9e 00 11 00
	00		 fstp	 DWORD PTR [esi+4352]
  0006c	d9 87 04 11 00
	00		 fld	 DWORD PTR [edi+4356]
  00072	d9 9e 04 11 00
	00		 fstp	 DWORD PTR [esi+4356]
  00078	e8 00 00 00 00	 call	 ??0?$vector@UAttackAttribute@@V?$allocator@UAttackAttribute@@@std@@@std@@QAE@ABV01@@Z ; std::vector<AttackAttribute,std::allocator<AttackAttribute> >::vector<AttackAttribute,std::allocator<AttackAttribute> >
  0007d	81 c7 2c 11 00
	00		 add	 edi, 4396		; 0000112cH
  00083	57		 push	 edi
  00084	8d 8e 2c 11 00
	00		 lea	 ecx, DWORD PTR [esi+4396]
  0008a	c6 45 fc 02	 mov	 BYTE PTR __$EHRec$[ebp+8], 2
  0008e	e8 00 00 00 00	 call	 ??0AttackAttribute@@QAE@ABU0@@Z

; 29   : 	Init();

  00093	8b ce		 mov	 ecx, esi
  00095	e8 00 00 00 00	 call	 ?Init@ioTargetFlowAttackSkill@@QAEXXZ ; ioTargetFlowAttackSkill::Init

; 30   : }

  0009a	8b c6		 mov	 eax, esi
  0009c	e8 00 00 00 00	 call	 __EH_epilog3
  000a1	c2 04 00	 ret	 4
_TEXT	ENDS
;	COMDAT text$x
text$x	SEGMENT
__unwindfunclet$??0ioTargetFlowAttackSkill@@QAE@ABV0@@Z$0:
  00000	8b 4d f0	 mov	 ecx, DWORD PTR _this$[ebp]
  00003	e9 00 00 00 00	 jmp	 ??1ioAttackSkill@@UAE@XZ ; ioAttackSkill::~ioAttackSkill
__unwindfunclet$??0ioTargetFlowAttackSkill@@QAE@ABV0@@Z$1:
  00008	8b 4d f0	 mov	 ecx, DWORD PTR _this$[ebp]
  0000b	81 c1 e8 10 00
	00		 add	 ecx, 4328		; 000010e8H
  00011	ff 25 00 00 00
	00		 jmp	 DWORD PTR __imp_??1ioHashString@@QAE@XZ
__unwindfunclet$??0ioTargetFlowAttackSkill@@QAE@ABV0@@Z$2:
  00017	8b 4d f0	 mov	 ecx, DWORD PTR _this$[ebp]
  0001a	81 c1 1c 11 00
	00		 add	 ecx, 4380		; 0000111cH
  00020	e9 00 00 00 00	 jmp	 ??1?$vector@UAttackAttribute@@V?$allocator@UAttackAttribute@@@std@@@std@@QAE@XZ ; std::vector<AttackAttribute,std::allocator<AttackAttribute> >::~vector<AttackAttribute,std::allocator<AttackAttribute> >
__ehhandler$??0ioTargetFlowAttackSkill@@QAE@ABV0@@Z:
  00025	8b 54 24 08	 mov	 edx, DWORD PTR [esp+8]
  00029	8d 42 0c	 lea	 eax, DWORD PTR [edx+12]
  0002c	8b 4a ec	 mov	 ecx, DWORD PTR [edx-20]
  0002f	33 c8		 xor	 ecx, eax
  00031	e8 00 00 00 00	 call	 @__security_check_cookie@4
  00036	b8 00 00 00 00	 mov	 eax, OFFSET __ehfuncinfo$??0ioTargetFlowAttackSkill@@QAE@ABV0@@Z
  0003b	e9 00 00 00 00	 jmp	 ___CxxFrameHandler3
text$x	ENDS
??0ioTargetFlowAttackSkill@@QAE@ABV0@@Z ENDP		; ioTargetFlowAttackSkill::ioTargetFlowAttackSkill
PUBLIC	??1ioTargetFlowAttackSkill@@UAE@XZ		; ioTargetFlowAttackSkill::~ioTargetFlowAttackSkill
;	COMDAT xdata$x
; File c:\program files (x86)\microsoft visual studio 10.0\vc\include\vector
xdata$x	SEGMENT
__unwindtable$??1ioTargetFlowAttackSkill@@UAE@XZ DD 0ffffffffH
	DD	FLAT:__unwindfunclet$??1ioTargetFlowAttackSkill@@UAE@XZ$0
	DD	00H
	DD	FLAT:__unwindfunclet$??1ioTargetFlowAttackSkill@@UAE@XZ$1
	DD	01H
	DD	FLAT:__unwindfunclet$??1ioTargetFlowAttackSkill@@UAE@XZ$2
__ehfuncinfo$??1ioTargetFlowAttackSkill@@UAE@XZ DD 019930522H
	DD	03H
	DD	FLAT:__unwindtable$??1ioTargetFlowAttackSkill@@UAE@XZ
	DD	2 DUP(00H)
	DD	2 DUP(00H)
	DD	00H
	DD	01H
; Function compile flags: /Ogsp
; File d:\lost saga for developer\youtube\tutorial\source\src\lsclient\iotargetflowattackskill.cpp
xdata$x	ENDS
;	COMDAT ??1ioTargetFlowAttackSkill@@UAE@XZ
_TEXT	SEGMENT
_this$ = -16						; size = 4
__$EHRec$ = -12						; size = 12
??1ioTargetFlowAttackSkill@@UAE@XZ PROC			; ioTargetFlowAttackSkill::~ioTargetFlowAttackSkill, COMDAT
; _this$ = ecx

; 33   : {

  00000	6a 04		 push	 4
  00002	b8 00 00 00 00	 mov	 eax, __ehhandler$??1ioTargetFlowAttackSkill@@UAE@XZ
  00007	e8 00 00 00 00	 call	 __EH_prolog3
  0000c	8b f1		 mov	 esi, ecx
  0000e	89 75 f0	 mov	 DWORD PTR _this$[ebp], esi
  00011	c7 06 00 00 00
	00		 mov	 DWORD PTR [esi], OFFSET ??_7ioTargetFlowAttackSkill@@6B@

; 34   : }

  00017	8d 8e 2c 11 00
	00		 lea	 ecx, DWORD PTR [esi+4396]
  0001d	c7 45 fc 02 00
	00 00		 mov	 DWORD PTR __$EHRec$[ebp+8], 2
  00024	e8 00 00 00 00	 call	 ??1AttackAttribute@@QAE@XZ
  00029	8d 8e 1c 11 00
	00		 lea	 ecx, DWORD PTR [esi+4380]
  0002f	c6 45 fc 01	 mov	 BYTE PTR __$EHRec$[ebp+8], 1
  00033	e8 00 00 00 00	 call	 ?_Tidy@?$vector@UAttackAttribute@@V?$allocator@UAttackAttribute@@@std@@@std@@IAEXXZ ; std::vector<AttackAttribute,std::allocator<AttackAttribute> >::_Tidy
  00038	8d 8e e8 10 00
	00		 lea	 ecx, DWORD PTR [esi+4328]
  0003e	c6 45 fc 00	 mov	 BYTE PTR __$EHRec$[ebp+8], 0
  00042	ff 15 00 00 00
	00		 call	 DWORD PTR __imp_??1ioHashString@@QAE@XZ
  00048	83 4d fc ff	 or	 DWORD PTR __$EHRec$[ebp+8], -1
  0004c	8b ce		 mov	 ecx, esi
  0004e	e8 00 00 00 00	 call	 ??1ioAttackSkill@@UAE@XZ ; ioAttackSkill::~ioAttackSkill
  00053	e8 00 00 00 00	 call	 __EH_epilog3
  00058	c3		 ret	 0
_TEXT	ENDS
;	COMDAT text$x
text$x	SEGMENT
__unwindfunclet$??1ioTargetFlowAttackSkill@@UAE@XZ$0:
  00000	8b 4d f0	 mov	 ecx, DWORD PTR _this$[ebp]
  00003	e9 00 00 00 00	 jmp	 ??1ioAttackSkill@@UAE@XZ ; ioAttackSkill::~ioAttackSkill
__unwindfunclet$??1ioTargetFlowAttackSkill@@UAE@XZ$1:
  00008	8b 4d f0	 mov	 ecx, DWORD PTR _this$[ebp]
  0000b	81 c1 e8 10 00
	00		 add	 ecx, 4328		; 000010e8H
  00011	ff 25 00 00 00
	00		 jmp	 DWORD PTR __imp_??1ioHashString@@QAE@XZ
__unwindfunclet$??1ioTargetFlowAttackSkill@@UAE@XZ$2:
  00017	8b 4d f0	 mov	 ecx, DWORD PTR _this$[ebp]
  0001a	81 c1 1c 11 00
	00		 add	 ecx, 4380		; 0000111cH
  00020	e9 00 00 00 00	 jmp	 ??1?$vector@UAttackAttribute@@V?$allocator@UAttackAttribute@@@std@@@std@@QAE@XZ ; std::vector<AttackAttribute,std::allocator<AttackAttribute> >::~vector<AttackAttribute,std::allocator<AttackAttribute> >
__ehhandler$??1ioTargetFlowAttackSkill@@UAE@XZ:
  00025	8b 54 24 08	 mov	 edx, DWORD PTR [esp+8]
  00029	8d 42 0c	 lea	 eax, DWORD PTR [edx+12]
  0002c	8b 4a ec	 mov	 ecx, DWORD PTR [edx-20]
  0002f	33 c8		 xor	 ecx, eax
  00031	e8 00 00 00 00	 call	 @__security_check_cookie@4
  00036	b8 00 00 00 00	 mov	 eax, OFFSET __ehfuncinfo$??1ioTargetFlowAttackSkill@@UAE@XZ
  0003b	e9 00 00 00 00	 jmp	 ___CxxFrameHandler3
text$x	ENDS
??1ioTargetFlowAttackSkill@@UAE@XZ ENDP			; ioTargetFlowAttackSkill::~ioTargetFlowAttackSkill
;	COMDAT xdata$x
xdata$x	SEGMENT
__unwindtable$?Clone@ioTargetFlowAttackSkill@@UAEPAVioSkill@@XZ DD 0ffffffffH
	DD	FLAT:__unwindfunclet$?Clone@ioTargetFlowAttackSkill@@UAEPAVioSkill@@XZ$0
__ehfuncinfo$?Clone@ioTargetFlowAttackSkill@@UAEPAVioSkill@@XZ DD 019930522H
	DD	01H
	DD	FLAT:__unwindtable$?Clone@ioTargetFlowAttackSkill@@UAEPAVioSkill@@XZ
	DD	2 DUP(00H)
	DD	2 DUP(00H)
	DD	00H
	DD	01H
; Function compile flags: /Ogsp
xdata$x	ENDS
;	COMDAT ?Clone@ioTargetFlowAttackSkill@@UAEPAVioSkill@@XZ
_TEXT	SEGMENT
$T555940 = -16						; size = 4
__$EHRec$ = -12						; size = 12
?Clone@ioTargetFlowAttackSkill@@UAEPAVioSkill@@XZ PROC	; ioTargetFlowAttackSkill::Clone, COMDAT
; _this$ = ecx

; 78   : {

  00000	6a 04		 push	 4
  00002	b8 00 00 00 00	 mov	 eax, __ehhandler$?Clone@ioTargetFlowAttackSkill@@UAEPAVioSkill@@XZ
  00007	e8 00 00 00 00	 call	 __EH_prolog3
  0000c	8b f1		 mov	 esi, ecx

; 79   : 	return new ioTargetFlowAttackSkill( *this );

  0000e	68 88 11 00 00	 push	 4488			; 00001188H
  00013	e8 00 00 00 00	 call	 ??2@YAPAXI@Z		; operator new
  00018	59		 pop	 ecx
  00019	8b c8		 mov	 ecx, eax
  0001b	89 4d f0	 mov	 DWORD PTR $T555940[ebp], ecx
  0001e	33 c0		 xor	 eax, eax
  00020	89 45 fc	 mov	 DWORD PTR __$EHRec$[ebp+8], eax
  00023	3b c8		 cmp	 ecx, eax
  00025	74 06		 je	 SHORT $LN3@Clone
  00027	56		 push	 esi
  00028	e8 00 00 00 00	 call	 ??0ioTargetFlowAttackSkill@@QAE@ABV0@@Z ; ioTargetFlowAttackSkill::ioTargetFlowAttackSkill
$LN3@Clone:

; 80   : }

  0002d	e8 00 00 00 00	 call	 __EH_epilog3
  00032	c3		 ret	 0
_TEXT	ENDS
;	COMDAT text$x
text$x	SEGMENT
__unwindfunclet$?Clone@ioTargetFlowAttackSkill@@UAEPAVioSkill@@XZ$0:
  00000	ff 75 f0	 push	 DWORD PTR $T555940[ebp]
  00003	e8 00 00 00 00	 call	 ??3@YAXPAX@Z		; operator delete
  00008	59		 pop	 ecx
  00009	c3		 ret	 0
__ehhandler$?Clone@ioTargetFlowAttackSkill@@UAEPAVioSkill@@XZ:
  0000a	8b 54 24 08	 mov	 edx, DWORD PTR [esp+8]
  0000e	8d 42 0c	 lea	 eax, DWORD PTR [edx+12]
  00011	8b 4a ec	 mov	 ecx, DWORD PTR [edx-20]
  00014	33 c8		 xor	 ecx, eax
  00016	e8 00 00 00 00	 call	 @__security_check_cookie@4
  0001b	b8 00 00 00 00	 mov	 eax, OFFSET __ehfuncinfo$?Clone@ioTargetFlowAttackSkill@@UAEPAVioSkill@@XZ
  00020	e9 00 00 00 00	 jmp	 ___CxxFrameHandler3
text$x	ENDS
?Clone@ioTargetFlowAttackSkill@@UAEPAVioSkill@@XZ ENDP	; ioTargetFlowAttackSkill::Clone
PUBLIC	?push_back@?$vector@UAttackAttribute@@V?$allocator@UAttackAttribute@@@std@@@std@@QAEXABUAttackAttribute@@@Z ; std::vector<AttackAttribute,std::allocator<AttackAttribute> >::push_back
; Function compile flags: /Ogsp
; File c:\program files (x86)\microsoft visual studio 10.0\vc\include\vector
;	COMDAT ?push_back@?$vector@UAttackAttribute@@V?$allocator@UAttackAttribute@@@std@@@std@@QAEXABUAttackAttribute@@@Z
_TEXT	SEGMENT
__Val$ = 8						; size = 4
?push_back@?$vector@UAttackAttribute@@V?$allocator@UAttackAttribute@@@std@@@std@@QAEXABUAttackAttribute@@@Z PROC ; std::vector<AttackAttribute,std::allocator<AttackAttribute> >::push_back, COMDAT
; _this$ = ecx

; 976  : 		{	// insert element at end

  00000	55		 push	 ebp
  00001	8b ec		 mov	 ebp, esp
  00003	56		 push	 esi
  00004	8b f1		 mov	 esi, ecx

; 977  : 		if (_Inside(_STD addressof(_Val)))

  00006	8b 4e 04	 mov	 ecx, DWORD PTR [esi+4]
  00009	57		 push	 edi
  0000a	8b 7d 08	 mov	 edi, DWORD PTR __Val$[ebp]
  0000d	3b f9		 cmp	 edi, ecx
  0000f	73 37		 jae	 SHORT $LN4@push_back
  00011	8b 16		 mov	 edx, DWORD PTR [esi]
  00013	3b d7		 cmp	 edx, edi
  00015	77 31		 ja	 SHORT $LN4@push_back

; 978  : 			{	// push back an element
; 979  : 			size_type _Idx = _STD addressof(_Val) - this->_Myfirst;

  00017	8b c7		 mov	 eax, edi
  00019	2b c2		 sub	 eax, edx
  0001b	6a 50		 push	 80			; 00000050H
  0001d	99		 cdq
  0001e	5f		 pop	 edi
  0001f	f7 ff		 idiv	 edi
  00021	8b f8		 mov	 edi, eax

; 980  : 			if (this->_Mylast == this->_Myend)

  00023	3b 4e 08	 cmp	 ecx, DWORD PTR [esi+8]
  00026	75 09		 jne	 SHORT $LN3@push_back

; 981  : 				_Reserve(1);

  00028	6a 01		 push	 1
  0002a	8b ce		 mov	 ecx, esi
  0002c	e8 00 00 00 00	 call	 ?_Reserve@?$vector@UAttackAttribute@@V?$allocator@UAttackAttribute@@@std@@@std@@IAEXI@Z ; std::vector<AttackAttribute,std::allocator<AttackAttribute> >::_Reserve
$LN3@push_back:

; 982  : 			_Orphan_range(this->_Mylast, this->_Mylast);
; 983  : 			_Cons_val(this->_Alval,
; 984  : 				this->_Mylast,
; 985  : 				this->_Myfirst[_Idx]);

  00031	6b ff 50	 imul	 edi, 80			; 00000050H
  00034	03 3e		 add	 edi, DWORD PTR [esi]
  00036	8d 46 0c	 lea	 eax, DWORD PTR [esi+12]
  00039	57		 push	 edi
  0003a	ff 76 04	 push	 DWORD PTR [esi+4]
  0003d	50		 push	 eax
  0003e	e8 00 00 00 00	 call	 ??$_Cons_val@V?$allocator@UAttackAttribute@@@std@@UAttackAttribute@@AAU3@@std@@YAXAAV?$allocator@UAttackAttribute@@@0@PAUAttackAttribute@@AAU2@@Z ; std::_Cons_val<std::allocator<AttackAttribute>,AttackAttribute,AttackAttribute &>
  00043	83 c4 0c	 add	 esp, 12			; 0000000cH

; 986  : 			++this->_Mylast;
; 987  : 			}
; 988  : 		else

  00046	eb 19		 jmp	 SHORT $LN26@push_back
$LN4@push_back:

; 989  : 			{	// push back a non-element
; 990  : 			if (this->_Mylast == this->_Myend)

  00048	3b 4e 08	 cmp	 ecx, DWORD PTR [esi+8]
  0004b	75 09		 jne	 SHORT $LN1@push_back

; 991  : 				_Reserve(1);

  0004d	6a 01		 push	 1
  0004f	8b ce		 mov	 ecx, esi
  00051	e8 00 00 00 00	 call	 ?_Reserve@?$vector@UAttackAttribute@@V?$allocator@UAttackAttribute@@@std@@@std@@IAEXI@Z ; std::vector<AttackAttribute,std::allocator<AttackAttribute> >::_Reserve
$LN1@push_back:

; 992  : 			_Orphan_range(this->_Mylast, this->_Mylast);
; 993  : 			_Cons_val(this->_Alval,
; 994  : 				this->_Mylast,
; 995  : 				_Val);

  00056	57		 push	 edi
  00057	ff 76 04	 push	 DWORD PTR [esi+4]
  0005a	e8 00 00 00 00	 call	 ??$_Construct@UAttackAttribute@@ABU1@@std@@YAXPAUAttackAttribute@@ABU1@@Z ; std::_Construct<AttackAttribute,AttackAttribute const &>
  0005f	59		 pop	 ecx
  00060	59		 pop	 ecx
$LN26@push_back:

; 996  : 			++this->_Mylast;

  00061	83 46 04 50	 add	 DWORD PTR [esi+4], 80	; 00000050H
  00065	5f		 pop	 edi
  00066	5e		 pop	 esi

; 997  : 			}
; 998  : 		}

  00067	5d		 pop	 ebp
  00068	c2 04 00	 ret	 4
?push_back@?$vector@UAttackAttribute@@V?$allocator@UAttackAttribute@@@std@@@std@@QAEXABUAttackAttribute@@@Z ENDP ; std::vector<AttackAttribute,std::allocator<AttackAttribute> >::push_back
; Function compile flags: /Ogsp
_TEXT	ENDS
;	COMDAT ??_GioTargetFlowAttackSkill@@UAEPAXI@Z
_TEXT	SEGMENT
___flags$ = 8						; size = 4
??_GioTargetFlowAttackSkill@@UAEPAXI@Z PROC		; ioTargetFlowAttackSkill::`scalar deleting destructor', COMDAT
; _this$ = ecx
  00000	55		 push	 ebp
  00001	8b ec		 mov	 ebp, esp
  00003	56		 push	 esi
  00004	8b f1		 mov	 esi, ecx
  00006	e8 00 00 00 00	 call	 ??1ioTargetFlowAttackSkill@@UAE@XZ ; ioTargetFlowAttackSkill::~ioTargetFlowAttackSkill
  0000b	f6 45 08 01	 test	 BYTE PTR ___flags$[ebp], 1
  0000f	74 07		 je	 SHORT $LN1@scalar@4
  00011	56		 push	 esi
  00012	e8 00 00 00 00	 call	 ??3@YAXPAX@Z		; operator delete
  00017	59		 pop	 ecx
$LN1@scalar@4:
  00018	8b c6		 mov	 eax, esi
  0001a	5e		 pop	 esi
  0001b	5d		 pop	 ebp
  0001c	c2 04 00	 ret	 4
??_GioTargetFlowAttackSkill@@UAEPAXI@Z ENDP		; ioTargetFlowAttackSkill::`scalar deleting destructor'
_TEXT	ENDS
PUBLIC	??_C@_0BB@ODIDCJEB@air_liner_finish?$AA@	; `string'
PUBLIC	__real@43960000
PUBLIC	__real@447a0000
PUBLIC	??_C@_00CNPNBAHC@?$AA@				; `string'
PUBLIC	_rkLoader$GSCopy$
EXTRN	?LoadAttackAttribute@@YAXPBDAAUAttackAttribute@@AAVioINILoader@@@Z:PROC ; LoadAttackAttribute
EXTRN	__imp__wsprintfA:PROC
EXTRN	__imp_??4ioHashString@@QAEAAV0@PBD@Z:PROC
EXTRN	?LoadProperty@ioAttackSkill@@UAEXAAVioINILoader@@@Z:PROC ; ioAttackSkill::LoadProperty
EXTRN	__EH_epilog3_GS:PROC
EXTRN	__EH_prolog3_GS:PROC
;	COMDAT ??_C@_0BB@ODIDCJEB@air_liner_finish?$AA@
; File d:\lost saga for developer\youtube\tutorial\source\src\lsclient\stringprotect.h
CONST	SEGMENT
??_C@_0BB@ODIDCJEB@air_liner_finish?$AA@ DB 'air_liner_finish', 00H ; `string'
CONST	ENDS
;	COMDAT __real@43960000
CONST	SEGMENT
__real@43960000 DD 043960000r			; 300
CONST	ENDS
;	COMDAT __real@447a0000
CONST	SEGMENT
__real@447a0000 DD 0447a0000r			; 1000
CONST	ENDS
;	COMDAT ??_C@_00CNPNBAHC@?$AA@
CONST	SEGMENT
??_C@_00CNPNBAHC@?$AA@ DB 00H				; `string'
CONST	ENDS
;	COMDAT xdata$x
xdata$x	SEGMENT
__unwindtable$?LoadProperty@ioTargetFlowAttackSkill@@UAEXAAVioINILoader@@@Z DD 0ffffffffH
	DD	FLAT:__unwindfunclet$?LoadProperty@ioTargetFlowAttackSkill@@UAEXAAVioINILoader@@@Z$0
__ehfuncinfo$?LoadProperty@ioTargetFlowAttackSkill@@UAEXAAVioINILoader@@@Z DD 019930522H
	DD	01H
	DD	FLAT:__unwindtable$?LoadProperty@ioTargetFlowAttackSkill@@UAEXAAVioINILoader@@@Z
	DD	2 DUP(00H)
	DD	2 DUP(00H)
	DD	00H
	DD	01H
; Function compile flags: /Ogsp
; File d:\lost saga for developer\youtube\tutorial\source\src\lsclient\iotargetflowattackskill.cpp
xdata$x	ENDS
;	COMDAT ?LoadProperty@ioTargetFlowAttackSkill@@UAEXAAVioINILoader@@@Z
_TEXT	SEGMENT
_Attr$548425 = -420					; size = 80
_iMax$ = -340						; size = 4
_rkLoader$GSCopy$ = -336				; size = 4
$T556929 = -332						; size = 4
_i$548421 = -332					; size = 4
_szBuf$ = -328						; size = 260
___encStr$548429 = -68					; size = 18
__k$556521 = -44					; size = 24
__k$556396 = -44					; size = 24
__k$556771 = -40					; size = 20
__k$556646 = -40					; size = 19
__k$556271 = -40					; size = 17
__k$556146 = -40					; size = 17
__k$556008 = -32					; size = 12
__$EHRec$ = -12						; size = 12
_rkLoader$ = 8						; size = 4
?LoadProperty@ioTargetFlowAttackSkill@@UAEXAAVioINILoader@@@Z PROC ; ioTargetFlowAttackSkill::LoadProperty, COMDAT
; _this$ = ecx

; 48   : {

  00000	68 98 01 00 00	 push	 408			; 00000198H
  00005	b8 00 00 00 00	 mov	 eax, __ehhandler$?LoadProperty@ioTargetFlowAttackSkill@@UAEXAAVioINILoader@@@Z
  0000a	e8 00 00 00 00	 call	 __EH_prolog3_GS
  0000f	8b 7d 08	 mov	 edi, DWORD PTR _rkLoader$[ebp]

; 49   : 	ioAttackSkill::LoadProperty( rkLoader );

  00012	57		 push	 edi
  00013	8b f1		 mov	 esi, ecx

; 62   : 
; 63   : 	int iMax = rkLoader.LoadInt_e( "air_liner_combo_max", 0 );

  00015	89 bd b0 fe ff
	ff		 mov	 DWORD PTR _rkLoader$GSCopy$[ebp], edi
  0001b	e8 00 00 00 00	 call	 ?LoadProperty@ioAttackSkill@@UAEXAAVioINILoader@@@Z ; ioAttackSkill::LoadProperty
  00020	6a 02		 push	 2
  00022	c7 45 e0 99 8d
	99 8d		 mov	 DWORD PTR __k$556008[ebp], -1919316583 ; 8d998d99H
  00029	c7 45 e4 88 98
	b4 88		 mov	 DWORD PTR __k$556008[ebp+4], -2001430392 ; 88b49888H
  00030	8d 45 e0	 lea	 eax, DWORD PTR __k$556008[ebp]
  00033	33 db		 xor	 ebx, ebx
  00035	c7 45 e8 98 8a
	8d 00		 mov	 DWORD PTR __k$556008[ebp+8], 9276056 ; 008d8a98H
  0003c	59		 pop	 ecx
$LL209@LoadProper:

; 50   : 
; 51   : 	char szBuf[MAX_PATH];
; 52   : 
; 53   : 	rkLoader.LoadString_e( "target_buff", "", szBuf, MAX_PATH );

  0003d	81 30 ed ec eb
	ea		 xor	 DWORD PTR [eax], -353637139 ; eaebecedH
  00043	83 c0 04	 add	 eax, 4
  00046	49		 dec	 ecx
  00047	75 f4		 jne	 SHORT $LL209@LoadProper
  00049	6a 08		 push	 8
  0004b	58		 pop	 eax
$LL206@LoadProper:
  0004c	8b c8		 mov	 ecx, eax
  0004e	81 e1 03 00 00
	80		 and	 ecx, -2147483645	; 80000003H
  00054	79 05		 jns	 SHORT $LN909@LoadProper
  00056	49		 dec	 ecx
  00057	83 c9 fc	 or	 ecx, -4			; fffffffcH
  0005a	41		 inc	 ecx
$LN909@LoadProper:
  0005b	b2 ed		 mov	 dl, -19			; ffffffedH
  0005d	2a d1		 sub	 dl, cl
  0005f	30 54 05 e0	 xor	 BYTE PTR __k$556008[ebp+eax], dl
  00063	40		 inc	 eax
  00064	83 f8 0b	 cmp	 eax, 11			; 0000000bH
  00067	7c e3		 jl	 SHORT $LL206@LoadProper
  00069	68 04 01 00 00	 push	 260			; 00000104H
  0006e	8d 85 b8 fe ff
	ff		 lea	 eax, DWORD PTR _szBuf$[ebp]
  00074	50		 push	 eax
  00075	68 00 00 00 00	 push	 OFFSET ??_C@_00CNPNBAHC@?$AA@
  0007a	8d 45 e0	 lea	 eax, DWORD PTR __k$556008[ebp]
  0007d	50		 push	 eax
  0007e	8b cf		 mov	 ecx, edi
  00080	ff 15 00 00 00
	00		 call	 DWORD PTR __imp_?LoadStringA@ioINILoader@@QAEXPBD0PADH@Z

; 54   : 	m_szTargetBuff = szBuf;

  00086	8d 85 b8 fe ff
	ff		 lea	 eax, DWORD PTR _szBuf$[ebp]
  0008c	50		 push	 eax
  0008d	8d 8e e8 10 00
	00		 lea	 ecx, DWORD PTR [esi+4328]
  00093	ff 15 00 00 00
	00		 call	 DWORD PTR __imp_??4ioHashString@@QAEAAV0@PBD@Z
  00099	6a 04		 push	 4

; 55   : 		
; 56   : 	m_fTargetMaxRange			= rkLoader.LoadFloat_e( "target_max_range", 1000.0f );

  0009b	c7 45 d8 99 8d
	99 8d		 mov	 DWORD PTR __k$556146[ebp], -1919316583 ; 8d998d99H
  000a2	c7 45 dc 88 98
	b4 87		 mov	 DWORD PTR __k$556146[ebp+4], -2018207608 ; 87b49888H
  000a9	c7 45 e0 8c 94
	b4 98		 mov	 DWORD PTR __k$556146[ebp+8], -1732995956 ; 98b4948cH
  000b0	c7 45 e4 8c 82
	8c 8f		 mov	 DWORD PTR __k$556146[ebp+12], -1886616948 ; 8f8c828cH
  000b7	8d 45 d8	 lea	 eax, DWORD PTR __k$556146[ebp]
  000ba	88 5d e8	 mov	 BYTE PTR __k$556146[ebp+16], bl
  000bd	59		 pop	 ecx
$LL315@LoadProper:
  000be	81 30 ed ec eb
	ea		 xor	 DWORD PTR [eax], -353637139 ; eaebecedH
  000c4	83 c0 04	 add	 eax, 4
  000c7	49		 dec	 ecx
  000c8	75 f4		 jne	 SHORT $LL315@LoadProper
  000ca	f3 0f 10 05 00
	00 00 00	 movss	 xmm0, DWORD PTR __real@447a0000
  000d2	51		 push	 ecx
  000d3	8d 45 d8	 lea	 eax, DWORD PTR __k$556146[ebp]
  000d6	f3 0f 11 04 24	 movss	 DWORD PTR [esp], xmm0
  000db	50		 push	 eax
  000dc	8b cf		 mov	 ecx, edi
  000de	ff 15 00 00 00
	00		 call	 DWORD PTR __imp_?LoadFloat@ioINILoader@@QAEMPBDM@Z
  000e4	d9 9e f8 10 00
	00		 fstp	 DWORD PTR [esi+4344]
  000ea	6a 04		 push	 4

; 57   : 	m_fTargetMinRange			= rkLoader.LoadFloat_e( "target_min_range", 0.0f );

  000ec	c7 45 d8 99 8d
	99 8d		 mov	 DWORD PTR __k$556271[ebp], -1919316583 ; 8d998d99H
  000f3	c7 45 dc 88 98
	b4 87		 mov	 DWORD PTR __k$556271[ebp+4], -2018207608 ; 87b49888H
  000fa	c7 45 e0 84 82
	b4 98		 mov	 DWORD PTR __k$556271[ebp+8], -1733000572 ; 98b48284H
  00101	c7 45 e4 8c 82
	8c 8f		 mov	 DWORD PTR __k$556271[ebp+12], -1886616948 ; 8f8c828cH
  00108	8d 45 d8	 lea	 eax, DWORD PTR __k$556271[ebp]
  0010b	88 5d e8	 mov	 BYTE PTR __k$556271[ebp+16], bl
  0010e	59		 pop	 ecx
$LL421@LoadProper:
  0010f	81 30 ed ec eb
	ea		 xor	 DWORD PTR [eax], -353637139 ; eaebecedH
  00115	83 c0 04	 add	 eax, 4
  00118	49		 dec	 ecx
  00119	75 f4		 jne	 SHORT $LL421@LoadProper
  0011b	0f 57 c0	 xorps	 xmm0, xmm0
  0011e	51		 push	 ecx
  0011f	8d 45 d8	 lea	 eax, DWORD PTR __k$556271[ebp]
  00122	f3 0f 11 04 24	 movss	 DWORD PTR [esp], xmm0
  00127	50		 push	 eax
  00128	8b cf		 mov	 ecx, edi
  0012a	ff 15 00 00 00
	00		 call	 DWORD PTR __imp_?LoadFloat@ioINILoader@@QAEMPBDM@Z
  00130	d9 9e fc 10 00
	00		 fstp	 DWORD PTR [esi+4348]
  00136	6a 05		 push	 5

; 58   : 	m_fTeleportOffsetYRange		= rkLoader.LoadFloat_e( "teleport_offset_y_range", 300.0f );

  00138	c7 45 d4 99 89
	87 8f		 mov	 DWORD PTR __k$556396[ebp], -1886942823 ; 8f878999H
  0013f	c7 45 d8 9d 83
	99 9e		 mov	 DWORD PTR __k$556396[ebp+4], -1634106467 ; 9e99839dH
  00146	c7 45 dc b2 83
	8d 8c		 mov	 DWORD PTR __k$556396[ebp+8], -1936882766 ; 8c8d83b2H
  0014d	c7 45 e0 9e 89
	9f b5		 mov	 DWORD PTR __k$556396[ebp+12], -1247835746 ; b59f899eH
  00154	c7 45 e4 94 b3
	99 8b		 mov	 DWORD PTR __k$556396[ebp+16], -1952861292 ; 8b99b394H
  0015b	8d 45 d4	 lea	 eax, DWORD PTR __k$556396[ebp]
  0015e	c7 45 e8 83 8b
	8e 00		 mov	 DWORD PTR __k$556396[ebp+20], 9341827 ; 008e8b83H
  00165	59		 pop	 ecx
$LL527@LoadProper:
  00166	81 30 ed ec eb
	ea		 xor	 DWORD PTR [eax], -353637139 ; eaebecedH
  0016c	83 c0 04	 add	 eax, 4
  0016f	49		 dec	 ecx
  00170	75 f4		 jne	 SHORT $LL527@LoadProper
  00172	6a 14		 push	 20			; 00000014H
  00174	58		 pop	 eax
$LL524@LoadProper:
  00175	8b c8		 mov	 ecx, eax
  00177	81 e1 03 00 00
	80		 and	 ecx, -2147483645	; 80000003H
  0017d	79 05		 jns	 SHORT $LN910@LoadProper
  0017f	49		 dec	 ecx
  00180	83 c9 fc	 or	 ecx, -4			; fffffffcH
  00183	41		 inc	 ecx
$LN910@LoadProper:
  00184	b2 ed		 mov	 dl, -19			; ffffffedH
  00186	2a d1		 sub	 dl, cl
  00188	30 54 05 d4	 xor	 BYTE PTR __k$556396[ebp+eax], dl
  0018c	40		 inc	 eax
  0018d	83 f8 17	 cmp	 eax, 23			; 00000017H
  00190	7c e3		 jl	 SHORT $LL524@LoadProper
  00192	f3 0f 10 05 00
	00 00 00	 movss	 xmm0, DWORD PTR __real@43960000
  0019a	51		 push	 ecx
  0019b	8d 45 d4	 lea	 eax, DWORD PTR __k$556396[ebp]
  0019e	f3 0f 11 04 24	 movss	 DWORD PTR [esp], xmm0
  001a3	50		 push	 eax
  001a4	8b cf		 mov	 ecx, edi
  001a6	ff 15 00 00 00
	00		 call	 DWORD PTR __imp_?LoadFloat@ioINILoader@@QAEMPBDM@Z
  001ac	d9 9e 00 11 00
	00		 fstp	 DWORD PTR [esi+4352]
  001b2	6a 05		 push	 5

; 59   : 	m_fTeleportOffsetZRange		= rkLoader.LoadFloat_e( "teleport_offset_z_range", 300.0f );

  001b4	c7 45 d4 99 89
	87 8f		 mov	 DWORD PTR __k$556521[ebp], -1886942823 ; 8f878999H
  001bb	c7 45 d8 9d 83
	99 9e		 mov	 DWORD PTR __k$556521[ebp+4], -1634106467 ; 9e99839dH
  001c2	c7 45 dc b2 83
	8d 8c		 mov	 DWORD PTR __k$556521[ebp+8], -1936882766 ; 8c8d83b2H
  001c9	c7 45 e0 9e 89
	9f b5		 mov	 DWORD PTR __k$556521[ebp+12], -1247835746 ; b59f899eH
  001d0	c7 45 e4 97 b3
	99 8b		 mov	 DWORD PTR __k$556521[ebp+16], -1952861289 ; 8b99b397H
  001d7	8d 45 d4	 lea	 eax, DWORD PTR __k$556521[ebp]
  001da	c7 45 e8 83 8b
	8e 00		 mov	 DWORD PTR __k$556521[ebp+20], 9341827 ; 008e8b83H
  001e1	59		 pop	 ecx
$LL633@LoadProper:
  001e2	81 30 ed ec eb
	ea		 xor	 DWORD PTR [eax], -353637139 ; eaebecedH
  001e8	83 c0 04	 add	 eax, 4
  001eb	49		 dec	 ecx
  001ec	75 f4		 jne	 SHORT $LL633@LoadProper
  001ee	6a 14		 push	 20			; 00000014H
  001f0	58		 pop	 eax
$LL630@LoadProper:
  001f1	8b c8		 mov	 ecx, eax
  001f3	81 e1 03 00 00
	80		 and	 ecx, -2147483645	; 80000003H
  001f9	79 05		 jns	 SHORT $LN911@LoadProper
  001fb	49		 dec	 ecx
  001fc	83 c9 fc	 or	 ecx, -4			; fffffffcH
  001ff	41		 inc	 ecx
$LN911@LoadProper:
  00200	b2 ed		 mov	 dl, -19			; ffffffedH
  00202	2a d1		 sub	 dl, cl
  00204	30 54 05 d4	 xor	 BYTE PTR __k$556521[ebp+eax], dl
  00208	40		 inc	 eax
  00209	83 f8 17	 cmp	 eax, 23			; 00000017H
  0020c	7c e3		 jl	 SHORT $LL630@LoadProper
  0020e	f3 0f 10 05 00
	00 00 00	 movss	 xmm0, DWORD PTR __real@43960000
  00216	51		 push	 ecx
  00217	8d 45 d4	 lea	 eax, DWORD PTR __k$556521[ebp]
  0021a	f3 0f 11 04 24	 movss	 DWORD PTR [esp], xmm0
  0021f	50		 push	 eax
  00220	8b cf		 mov	 ecx, edi
  00222	ff 15 00 00 00
	00		 call	 DWORD PTR __imp_?LoadFloat@ioINILoader@@QAEMPBDM@Z
  00228	d9 9e 04 11 00
	00		 fstp	 DWORD PTR [esi+4356]
  0022e	6a 04		 push	 4

; 60   : 
; 61   : 	m_dwSkillProtectTime		= rkLoader.LoadInt_e( "skill_protect_time", 0 );

  00230	c7 45 d8 9e 87
	82 86		 mov	 DWORD PTR __k$556646[ebp], -2038265954 ; 8682879eH
  00237	c7 45 dc 81 b3
	9b 98		 mov	 DWORD PTR __k$556646[ebp+4], -1734626431 ; 989bb381H
  0023e	c7 45 e0 82 98
	8e 89		 mov	 DWORD PTR __k$556646[ebp+8], -1987143550 ; 898e9882H
  00245	c7 45 e4 99 b3
	9f 83		 mov	 DWORD PTR __k$556646[ebp+12], -2086685799 ; 839fb399H
  0024c	66 c7 45 e8 80
	89		 mov	 WORD PTR __k$556646[ebp+16], 35200 ; 00008980H
  00252	8d 45 d8	 lea	 eax, DWORD PTR __k$556646[ebp]
  00255	88 5d ea	 mov	 BYTE PTR __k$556646[ebp+18], bl
  00258	59		 pop	 ecx
$LL739@LoadProper:
  00259	81 30 ed ec eb
	ea		 xor	 DWORD PTR [eax], -353637139 ; eaebecedH
  0025f	83 c0 04	 add	 eax, 4
  00262	49		 dec	 ecx
  00263	75 f4		 jne	 SHORT $LL739@LoadProper
  00265	6a 10		 push	 16			; 00000010H
  00267	58		 pop	 eax
$LL736@LoadProper:
  00268	8b c8		 mov	 ecx, eax
  0026a	81 e1 03 00 00
	80		 and	 ecx, -2147483645	; 80000003H
  00270	79 05		 jns	 SHORT $LN912@LoadProper
  00272	49		 dec	 ecx
  00273	83 c9 fc	 or	 ecx, -4			; fffffffcH
  00276	41		 inc	 ecx
$LN912@LoadProper:
  00277	b2 ed		 mov	 dl, -19			; ffffffedH
  00279	2a d1		 sub	 dl, cl
  0027b	30 54 05 d8	 xor	 BYTE PTR __k$556646[ebp+eax], dl
  0027f	40		 inc	 eax
  00280	83 f8 12	 cmp	 eax, 18			; 00000012H
  00283	7c e3		 jl	 SHORT $LL736@LoadProper
  00285	53		 push	 ebx
  00286	8d 45 d8	 lea	 eax, DWORD PTR __k$556646[ebp]
  00289	8b cf		 mov	 ecx, edi
  0028b	8b 3d 00 00 00
	00		 mov	 edi, DWORD PTR __imp_?LoadInt@ioINILoader@@QAEHPBDH@Z
  00291	50		 push	 eax
  00292	ff d7		 call	 edi
  00294	6a 04		 push	 4
  00296	89 86 0c 11 00
	00		 mov	 DWORD PTR [esi+4364], eax

; 62   : 
; 63   : 	int iMax = rkLoader.LoadInt_e( "air_liner_combo_max", 0 );

  0029c	c7 45 d8 8c 85
	99 b5		 mov	 DWORD PTR __k$556771[ebp], -1248230004 ; b599858cH
  002a3	c7 45 dc 81 85
	85 8f		 mov	 DWORD PTR __k$556771[ebp+4], -1887074943 ; 8f858581H
  002aa	c7 45 e0 9f b3
	88 85		 mov	 DWORD PTR __k$556771[ebp+8], -2054638689 ; 8588b39fH
  002b1	c7 45 e4 80 8e
	84 b5		 mov	 DWORD PTR __k$556771[ebp+12], -1249603968 ; b5848e80H
  002b8	8d 45 d8	 lea	 eax, DWORD PTR __k$556771[ebp]
  002bb	c7 45 e8 80 8d
	93 00		 mov	 DWORD PTR __k$556771[ebp+16], 9670016 ; 00938d80H
  002c2	59		 pop	 ecx
$LL845@LoadProper:
  002c3	81 30 ed ec eb
	ea		 xor	 DWORD PTR [eax], -353637139 ; eaebecedH
  002c9	83 c0 04	 add	 eax, 4
  002cc	49		 dec	 ecx
  002cd	75 f4		 jne	 SHORT $LL845@LoadProper
  002cf	6a 10		 push	 16			; 00000010H
  002d1	58		 pop	 eax
$LL842@LoadProper:
  002d2	8b c8		 mov	 ecx, eax
  002d4	81 e1 03 00 00
	80		 and	 ecx, -2147483645	; 80000003H
  002da	79 05		 jns	 SHORT $LN913@LoadProper
  002dc	49		 dec	 ecx
  002dd	83 c9 fc	 or	 ecx, -4			; fffffffcH
  002e0	41		 inc	 ecx
$LN913@LoadProper:
  002e1	b2 ed		 mov	 dl, -19			; ffffffedH
  002e3	2a d1		 sub	 dl, cl
  002e5	30 54 05 d8	 xor	 BYTE PTR __k$556771[ebp+eax], dl
  002e9	40		 inc	 eax
  002ea	83 f8 13	 cmp	 eax, 19			; 00000013H
  002ed	7c e3		 jl	 SHORT $LL842@LoadProper
  002ef	8b 8d b0 fe ff
	ff		 mov	 ecx, DWORD PTR _rkLoader$GSCopy$[ebp]
  002f5	53		 push	 ebx
  002f6	8d 45 d8	 lea	 eax, DWORD PTR __k$556771[ebp]
  002f9	50		 push	 eax
  002fa	ff d7		 call	 edi

; 64   : 	m_AttackAttributeList.clear();

  002fc	8b 8e 1c 11 00
	00		 mov	 ecx, DWORD PTR [esi+4380]
  00302	89 85 ac fe ff
	ff		 mov	 DWORD PTR _iMax$[ebp], eax
  00308	8b 86 20 11 00
	00		 mov	 eax, DWORD PTR [esi+4384]
  0030e	50		 push	 eax
  0030f	51		 push	 ecx
  00310	8d 85 b4 fe ff
	ff		 lea	 eax, DWORD PTR $T556929[ebp]
  00316	50		 push	 eax
  00317	8d 8e 1c 11 00
	00		 lea	 ecx, DWORD PTR [esi+4380]
  0031d	e8 00 00 00 00	 call	 ?erase@?$vector@UAttackAttribute@@V?$allocator@UAttackAttribute@@@std@@@std@@QAE?AV?$_Vector_iterator@V?$_Vector_val@UAttackAttribute@@V?$allocator@UAttackAttribute@@@std@@@std@@@2@V?$_Vector_const_iterator@V?$_Vector_val@UAttackAttribute@@V?$allocator@UAttackAttribute@@@std@@@std@@@2@0@Z ; std::vector<AttackAttribute,std::allocator<AttackAttribute> >::erase

; 65   : 	for( int i = 1; i <= iMax; ++i )

  00322	33 c0		 xor	 eax, eax
  00324	40		 inc	 eax
  00325	89 85 b4 fe ff
	ff		 mov	 DWORD PTR _i$548421[ebp], eax
  0032b	39 85 ac fe ff
	ff		 cmp	 DWORD PTR _iMax$[ebp], eax
  00331	0f 8c b2 00 00
	00		 jl	 $LN100@LoadProper
$LL102@LoadProper:

; 66   : 	{
; 67   : 		AttackAttribute Attr;

  00337	8d 8d 5c fe ff
	ff		 lea	 ecx, DWORD PTR _Attr$548425[ebp]
  0033d	e8 00 00 00 00	 call	 ??0AttackAttribute@@QAE@XZ ; AttackAttribute::AttackAttribute
  00342	6a 04		 push	 4
  00344	89 5d fc	 mov	 DWORD PTR __$EHRec$[ebp+8], ebx

; 68   : 		wsprintf_e( szBuf, "air_liner_combo%d", i );

  00347	c7 45 bc 8c 85
	99 b5		 mov	 DWORD PTR ___encStr$548429[ebp], -1248230004 ; b599858cH
  0034e	c7 45 c0 81 85
	85 8f		 mov	 DWORD PTR ___encStr$548429[ebp+4], -1887074943 ; 8f858581H
  00355	c7 45 c4 9f b3
	88 85		 mov	 DWORD PTR ___encStr$548429[ebp+8], -2054638689 ; 8588b39fH
  0035c	c7 45 c8 80 8e
	84 cf		 mov	 DWORD PTR ___encStr$548429[ebp+12], -813396352 ; cf848e80H
  00363	8d 45 bc	 lea	 eax, DWORD PTR ___encStr$548429[ebp]
  00366	66 c7 45 cc 89
	00		 mov	 WORD PTR ___encStr$548429[ebp+16], 137 ; 00000089H
  0036c	59		 pop	 ecx
$LL871@LoadProper:
  0036d	81 30 ed ec eb
	ea		 xor	 DWORD PTR [eax], -353637139 ; eaebecedH
  00373	83 c0 04	 add	 eax, 4
  00376	49		 dec	 ecx
  00377	75 f4		 jne	 SHORT $LL871@LoadProper
  00379	ff b5 b4 fe ff
	ff		 push	 DWORD PTR _i$548421[ebp]
  0037f	80 75 cc ed	 xor	 BYTE PTR ___encStr$548429[ebp+16], -19 ; ffffffedH
  00383	8d 45 bc	 lea	 eax, DWORD PTR ___encStr$548429[ebp]
  00386	50		 push	 eax
  00387	8d 85 b8 fe ff
	ff		 lea	 eax, DWORD PTR _szBuf$[ebp]
  0038d	50		 push	 eax
  0038e	ff 15 00 00 00
	00		 call	 DWORD PTR __imp__wsprintfA

; 69   : 		LoadAttackAttribute( szBuf, Attr, rkLoader );

  00394	ff b5 b0 fe ff
	ff		 push	 DWORD PTR _rkLoader$GSCopy$[ebp]
  0039a	8d 85 5c fe ff
	ff		 lea	 eax, DWORD PTR _Attr$548425[ebp]
  003a0	50		 push	 eax
  003a1	8d 85 b8 fe ff
	ff		 lea	 eax, DWORD PTR _szBuf$[ebp]
  003a7	50		 push	 eax
  003a8	e8 00 00 00 00	 call	 ?LoadAttackAttribute@@YAXPBDAAUAttackAttribute@@AAVioINILoader@@@Z ; LoadAttackAttribute
  003ad	83 c4 18	 add	 esp, 24			; 00000018H

; 70   : 
; 71   : 		m_AttackAttributeList.push_back( Attr );

  003b0	8d 85 5c fe ff
	ff		 lea	 eax, DWORD PTR _Attr$548425[ebp]
  003b6	50		 push	 eax
  003b7	8d 8e 1c 11 00
	00		 lea	 ecx, DWORD PTR [esi+4380]
  003bd	e8 00 00 00 00	 call	 ?push_back@?$vector@UAttackAttribute@@V?$allocator@UAttackAttribute@@@std@@@std@@QAEXABUAttackAttribute@@@Z ; std::vector<AttackAttribute,std::allocator<AttackAttribute> >::push_back

; 72   : 	}

  003c2	83 4d fc ff	 or	 DWORD PTR __$EHRec$[ebp+8], -1
  003c6	8d 8d 5c fe ff
	ff		 lea	 ecx, DWORD PTR _Attr$548425[ebp]
  003cc	e8 00 00 00 00	 call	 ??1AttackAttribute@@QAE@XZ
  003d1	ff 85 b4 fe ff
	ff		 inc	 DWORD PTR _i$548421[ebp]
  003d7	8b 85 b4 fe ff
	ff		 mov	 eax, DWORD PTR _i$548421[ebp]
  003dd	3b 85 ac fe ff
	ff		 cmp	 eax, DWORD PTR _iMax$[ebp]
  003e3	0f 8e 4e ff ff
	ff		 jle	 $LL102@LoadProper
$LN100@LoadProper:

; 73   : 		
; 74   : 	LoadAttackAttribute( "air_liner_finish", m_FinishAttribute, rkLoader );

  003e9	ff b5 b0 fe ff
	ff		 push	 DWORD PTR _rkLoader$GSCopy$[ebp]
  003ef	81 c6 2c 11 00
	00		 add	 esi, 4396		; 0000112cH
  003f5	56		 push	 esi
  003f6	68 00 00 00 00	 push	 OFFSET ??_C@_0BB@ODIDCJEB@air_liner_finish?$AA@
  003fb	e8 00 00 00 00	 call	 ?LoadAttackAttribute@@YAXPBDAAUAttackAttribute@@AAVioINILoader@@@Z ; LoadAttackAttribute
  00400	83 c4 0c	 add	 esp, 12			; 0000000cH

; 75   : }

  00403	e8 00 00 00 00	 call	 __EH_epilog3_GS
  00408	c2 04 00	 ret	 4
_TEXT	ENDS
;	COMDAT text$x
text$x	SEGMENT
__unwindfunclet$?LoadProperty@ioTargetFlowAttackSkill@@UAEXAAVioINILoader@@@Z$0:
  00000	8d 8d 5c fe ff
	ff		 lea	 ecx, DWORD PTR _Attr$548425[ebp]
  00006	e9 00 00 00 00	 jmp	 ??1AttackAttribute@@QAE@XZ
__ehhandler$?LoadProperty@ioTargetFlowAttackSkill@@UAEXAAVioINILoader@@@Z:
  0000b	8b 54 24 08	 mov	 edx, DWORD PTR [esp+8]
  0000f	8d 42 0c	 lea	 eax, DWORD PTR [edx+12]
  00012	8b 8a 58 fe ff
	ff		 mov	 ecx, DWORD PTR [edx-424]
  00018	33 c8		 xor	 ecx, eax
  0001a	e8 00 00 00 00	 call	 @__security_check_cookie@4
  0001f	8b 4a fc	 mov	 ecx, DWORD PTR [edx-4]
  00022	33 c8		 xor	 ecx, eax
  00024	e8 00 00 00 00	 call	 @__security_check_cookie@4
  00029	b8 00 00 00 00	 mov	 eax, OFFSET __ehfuncinfo$?LoadProperty@ioTargetFlowAttackSkill@@UAEXAAVioINILoader@@@Z
  0002e	e9 00 00 00 00	 jmp	 ___CxxFrameHandler3
text$x	ENDS
?LoadProperty@ioTargetFlowAttackSkill@@UAEXAAVioINILoader@@@Z ENDP ; ioTargetFlowAttackSkill::LoadProperty
END
