; Listing generated by Microsoft (R) Optimizing Compiler Version 16.00.30319.01 

	TITLE	D:\Lost Saga For Developer\Youtube\Tutorial\Source\src\LSClient\ioTargetTrace16Dummy.cpp
	.686P
	.XMM
	include listing.inc
	.model	flat

INCLUDELIB MSVCRT
INCLUDELIB OLDNAMES

PUBLIC	?_EEM_DS@?$deque@UD3DXVECTOR3@@V?$allocator@UD3DXVECTOR3@@@std@@@std@@2HB ; std::deque<D3DXVECTOR3,std::allocator<D3DXVECTOR3> >::_EEM_DS
;	COMDAT ?_EEM_DS@?$deque@UD3DXVECTOR3@@V?$allocator@UD3DXVECTOR3@@@std@@@std@@2HB
CONST	SEGMENT
?_EEM_DS@?$deque@UD3DXVECTOR3@@V?$allocator@UD3DXVECTOR3@@@std@@@std@@2HB DD 01H ; std::deque<D3DXVECTOR3,std::allocator<D3DXVECTOR3> >::_EEM_DS
CONST	ENDS
PUBLIC	?GetBaseCharList@ioPlayStage@@QBEABV?$vector@PAVioBaseChar@@V?$allocator@PAVioBaseChar@@@std@@@std@@XZ ; ioPlayStage::GetBaseCharList
; Function compile flags: /Ogsp
; File d:\lost saga for developer\youtube\tutorial\source\src\lsclient\ioplaystage.h
;	COMDAT ?GetBaseCharList@ioPlayStage@@QBEABV?$vector@PAVioBaseChar@@V?$allocator@PAVioBaseChar@@@std@@@std@@XZ
_TEXT	SEGMENT
?GetBaseCharList@ioPlayStage@@QBEABV?$vector@PAVioBaseChar@@V?$allocator@PAVioBaseChar@@@std@@@std@@XZ PROC ; ioPlayStage::GetBaseCharList, COMDAT
; _this$ = ecx

; 755  : 	const BaseCharList& GetBaseCharList() const { return m_BaseCharList; }

  00000	8d 41 2c	 lea	 eax, DWORD PTR [ecx+44]
  00003	c3		 ret	 0
?GetBaseCharList@ioPlayStage@@QBEABV?$vector@PAVioBaseChar@@V?$allocator@PAVioBaseChar@@@std@@@std@@XZ ENDP ; ioPlayStage::GetBaseCharList
_TEXT	ENDS
PUBLIC	?return5@@YAIXZ					; return5
; Function compile flags: /Ogsp
; File d:\lost saga for developer\youtube\tutorial\source\src\lsclient\stdafx.h
;	COMDAT ?return5@@YAIXZ
_TEXT	SEGMENT
?return5@@YAIXZ PROC					; return5, COMDAT

; 18   : 	__forceinline unsigned int return5() { __asm mov eax, 5 };

  00000	b8 05 00 00 00	 mov	 eax, 5
  00005	c3		 ret	 0
?return5@@YAIXZ ENDP					; return5
_TEXT	ENDS
PUBLIC	?return10@@YAIXZ				; return10
; Function compile flags: /Ogsp
;	COMDAT ?return10@@YAIXZ
_TEXT	SEGMENT
?return10@@YAIXZ PROC					; return10, COMDAT

; 21   : 	__forceinline unsigned int return10() { __asm mov eax, 10 };

  00000	b8 0a 00 00 00	 mov	 eax, 10			; 0000000aH
  00005	c3		 ret	 0
?return10@@YAIXZ ENDP					; return10
_TEXT	ENDS
PUBLIC	_fabsf
EXTRN	__fltused:DWORD
; Function compile flags: /Ogsp
; File c:\program files (x86)\microsoft visual studio 10.0\vc\include\math.h
;	COMDAT _fabsf
_TEXT	SEGMENT
tv129 = 8						; size = 4
__X$ = 8						; size = 4
_fabsf	PROC						; COMDAT

; 395  :         {return ((float)fabs((double)_X)); }

  00000	55		 push	 ebp
  00001	8b ec		 mov	 ebp, esp
  00003	d9 45 08	 fld	 DWORD PTR __X$[ebp]
  00006	d9 e1		 fabs
  00008	d9 5d 08	 fstp	 DWORD PTR tv129[ebp]
  0000b	d9 45 08	 fld	 DWORD PTR tv129[ebp]
  0000e	5d		 pop	 ebp
  0000f	c3		 ret	 0
_fabsf	ENDP
_TEXT	ENDS
PUBLIC	_acosf
EXTRN	__CIacos:PROC
; Function compile flags: /Ogsp
;	COMDAT _acosf
_TEXT	SEGMENT
tv69 = 8						; size = 4
__X$ = 8						; size = 4
_acosf	PROC						; COMDAT

; 400  :         {return ((float)acos((double)_X)); }

  00000	55		 push	 ebp
  00001	8b ec		 mov	 ebp, esp
  00003	d9 45 08	 fld	 DWORD PTR __X$[ebp]
  00006	e8 00 00 00 00	 call	 __CIacos
  0000b	d9 5d 08	 fstp	 DWORD PTR tv69[ebp]
  0000e	d9 45 08	 fld	 DWORD PTR tv69[ebp]
  00011	5d		 pop	 ebp
  00012	c3		 ret	 0
_acosf	ENDP
_TEXT	ENDS
PUBLIC	_cosf
EXTRN	__CIcos:PROC
; Function compile flags: /Ogsp
;	COMDAT _cosf
_TEXT	SEGMENT
tv69 = 8						; size = 4
__X$ = 8						; size = 4
_cosf	PROC						; COMDAT

; 410  :         {return ((float)cos((double)_X)); }

  00000	55		 push	 ebp
  00001	8b ec		 mov	 ebp, esp
  00003	d9 45 08	 fld	 DWORD PTR __X$[ebp]
  00006	e8 00 00 00 00	 call	 __CIcos
  0000b	d9 5d 08	 fstp	 DWORD PTR tv69[ebp]
  0000e	d9 45 08	 fld	 DWORD PTR tv69[ebp]
  00011	5d		 pop	 ebp
  00012	c3		 ret	 0
_cosf	ENDP
_TEXT	ENDS
PUBLIC	?GetCharName@ioBaseChar@@QBEABVioHashString@@XZ	; ioBaseChar::GetCharName
; Function compile flags: /Ogsp
; File d:\lost saga for developer\youtube\tutorial\source\src\lsclient\iobasechar.h
;	COMDAT ?GetCharName@ioBaseChar@@QBEABVioHashString@@XZ
_TEXT	SEGMENT
?GetCharName@ioBaseChar@@QBEABVioHashString@@XZ PROC	; ioBaseChar::GetCharName, COMDAT
; _this$ = ecx

; 2594 : 	inline const ioHashString& GetCharName() const { return m_Name; }

  00000	8d 81 d4 02 00
	00		 lea	 eax, DWORD PTR [ecx+724]
  00006	c3		 ret	 0
?GetCharName@ioBaseChar@@QBEABVioHashString@@XZ ENDP	; ioBaseChar::GetCharName
_TEXT	ENDS
PUBLIC	_sqrtf
EXTRN	__CIsqrt:PROC
; Function compile flags: /Ogsp
; File c:\program files (x86)\microsoft visual studio 10.0\vc\include\math.h
;	COMDAT _sqrtf
_TEXT	SEGMENT
tv69 = 8						; size = 4
__X$ = 8						; size = 4
_sqrtf	PROC						; COMDAT

; 434  :         {return ((float)sqrt((double)_X)); }

  00000	55		 push	 ebp
  00001	8b ec		 mov	 ebp, esp
  00003	d9 45 08	 fld	 DWORD PTR __X$[ebp]
  00006	e8 00 00 00 00	 call	 __CIsqrt
  0000b	d9 5d 08	 fstp	 DWORD PTR tv69[ebp]
  0000e	d9 45 08	 fld	 DWORD PTR tv69[ebp]
  00011	5d		 pop	 ebp
  00012	c3		 ret	 0
_sqrtf	ENDP
_TEXT	ENDS
PUBLIC	?fabs@@YAMM@Z					; fabs
; Function compile flags: /Ogsp
;	COMDAT ?fabs@@YAMM@Z
_TEXT	SEGMENT
tv131 = 8						; size = 4
__X$ = 8						; size = 4
?fabs@@YAMM@Z PROC					; fabs, COMDAT

; 518  :         {return (fabsf(_X)); }

  00000	55		 push	 ebp
  00001	8b ec		 mov	 ebp, esp
  00003	d9 45 08	 fld	 DWORD PTR __X$[ebp]
  00006	d9 e1		 fabs
  00008	d9 5d 08	 fstp	 DWORD PTR tv131[ebp]
  0000b	d9 45 08	 fld	 DWORD PTR tv131[ebp]
  0000e	5d		 pop	 ebp
  0000f	c3		 ret	 0
?fabs@@YAMM@Z ENDP					; fabs
_TEXT	ENDS
PUBLIC	??_7bad_alloc@std@@6B@				; std::bad_alloc::`vftable'
PUBLIC	??0bad_alloc@std@@QAE@PBD@Z			; std::bad_alloc::bad_alloc
PUBLIC	??_R4bad_alloc@std@@6B@				; std::bad_alloc::`RTTI Complete Object Locator'
PUBLIC	??_R0?AVbad_alloc@std@@@8			; std::bad_alloc `RTTI Type Descriptor'
PUBLIC	??_R3bad_alloc@std@@8				; std::bad_alloc::`RTTI Class Hierarchy Descriptor'
PUBLIC	??_R2bad_alloc@std@@8				; std::bad_alloc::`RTTI Base Class Array'
PUBLIC	??_R1A@?0A@EA@bad_alloc@std@@8			; std::bad_alloc::`RTTI Base Class Descriptor at (0,-1,0,64)'
PUBLIC	??_R1A@?0A@EA@exception@std@@8			; std::exception::`RTTI Base Class Descriptor at (0,-1,0,64)'
PUBLIC	??_R0?AVexception@std@@@8			; std::exception `RTTI Type Descriptor'
PUBLIC	??_R3exception@std@@8				; std::exception::`RTTI Class Hierarchy Descriptor'
PUBLIC	??_R2exception@std@@8				; std::exception::`RTTI Base Class Array'
EXTRN	__imp_??0exception@std@@QAE@ABQBD@Z:PROC
EXTRN	??_7type_info@@6B@:QWORD			; type_info::`vftable'
EXTRN	??_Ebad_alloc@std@@UAEPAXI@Z:PROC		; std::bad_alloc::`vector deleting destructor'
EXTRN	?what@exception@std@@UBEPBDXZ:PROC		; std::exception::what
;	COMDAT ??_R2exception@std@@8
; File c:\program files (x86)\microsoft visual studio 10.0\vc\include\exception
rdata$r	SEGMENT
??_R2exception@std@@8 DD FLAT:??_R1A@?0A@EA@exception@std@@8 ; std::exception::`RTTI Base Class Array'
rdata$r	ENDS
;	COMDAT ??_R3exception@std@@8
rdata$r	SEGMENT
??_R3exception@std@@8 DD 00H				; std::exception::`RTTI Class Hierarchy Descriptor'
	DD	00H
	DD	01H
	DD	FLAT:??_R2exception@std@@8
rdata$r	ENDS
;	COMDAT ??_R0?AVexception@std@@@8
_DATA	SEGMENT
??_R0?AVexception@std@@@8 DD FLAT:??_7type_info@@6B@	; std::exception `RTTI Type Descriptor'
	DD	00H
	DB	'.?AVexception@std@@', 00H
_DATA	ENDS
;	COMDAT ??_R1A@?0A@EA@exception@std@@8
rdata$r	SEGMENT
??_R1A@?0A@EA@exception@std@@8 DD FLAT:??_R0?AVexception@std@@@8 ; std::exception::`RTTI Base Class Descriptor at (0,-1,0,64)'
	DD	00H
	DD	00H
	DD	0ffffffffH
	DD	00H
	DD	040H
	DD	FLAT:??_R3exception@std@@8
rdata$r	ENDS
;	COMDAT ??_R1A@?0A@EA@bad_alloc@std@@8
rdata$r	SEGMENT
??_R1A@?0A@EA@bad_alloc@std@@8 DD FLAT:??_R0?AVbad_alloc@std@@@8 ; std::bad_alloc::`RTTI Base Class Descriptor at (0,-1,0,64)'
	DD	01H
	DD	00H
	DD	0ffffffffH
	DD	00H
	DD	040H
	DD	FLAT:??_R3bad_alloc@std@@8
rdata$r	ENDS
;	COMDAT ??_R2bad_alloc@std@@8
rdata$r	SEGMENT
??_R2bad_alloc@std@@8 DD FLAT:??_R1A@?0A@EA@bad_alloc@std@@8 ; std::bad_alloc::`RTTI Base Class Array'
	DD	FLAT:??_R1A@?0A@EA@exception@std@@8
rdata$r	ENDS
;	COMDAT ??_R3bad_alloc@std@@8
rdata$r	SEGMENT
??_R3bad_alloc@std@@8 DD 00H				; std::bad_alloc::`RTTI Class Hierarchy Descriptor'
	DD	00H
	DD	02H
	DD	FLAT:??_R2bad_alloc@std@@8
rdata$r	ENDS
;	COMDAT ??_R0?AVbad_alloc@std@@@8
_DATA	SEGMENT
??_R0?AVbad_alloc@std@@@8 DD FLAT:??_7type_info@@6B@	; std::bad_alloc `RTTI Type Descriptor'
	DD	00H
	DB	'.?AVbad_alloc@std@@', 00H
_DATA	ENDS
;	COMDAT ??_R4bad_alloc@std@@6B@
rdata$r	SEGMENT
??_R4bad_alloc@std@@6B@ DD 00H				; std::bad_alloc::`RTTI Complete Object Locator'
	DD	00H
	DD	00H
	DD	FLAT:??_R0?AVbad_alloc@std@@@8
	DD	FLAT:??_R3bad_alloc@std@@8
rdata$r	ENDS
;	COMDAT ??_7bad_alloc@std@@6B@
CONST	SEGMENT
??_7bad_alloc@std@@6B@ DD FLAT:??_R4bad_alloc@std@@6B@	; std::bad_alloc::`vftable'
	DD	FLAT:??_Ebad_alloc@std@@UAEPAXI@Z
	DD	FLAT:?what@exception@std@@UBEPBDXZ
; Function compile flags: /Ogsp
CONST	ENDS
;	COMDAT ??0bad_alloc@std@@QAE@PBD@Z
_TEXT	SEGMENT
__Message$ = 8						; size = 4
??0bad_alloc@std@@QAE@PBD@Z PROC			; std::bad_alloc::bad_alloc, COMDAT
; _this$ = ecx

; 345  : 		{	// construct from message string

  00000	55		 push	 ebp
  00001	8b ec		 mov	 ebp, esp
  00003	56		 push	 esi
  00004	8d 45 08	 lea	 eax, DWORD PTR __Message$[ebp]
  00007	50		 push	 eax
  00008	8b f1		 mov	 esi, ecx
  0000a	ff 15 00 00 00
	00		 call	 DWORD PTR __imp_??0exception@std@@QAE@ABQBD@Z
  00010	c7 06 00 00 00
	00		 mov	 DWORD PTR [esi], OFFSET ??_7bad_alloc@std@@6B@

; 346  : 		}

  00016	8b c6		 mov	 eax, esi
  00018	5e		 pop	 esi
  00019	5d		 pop	 ebp
  0001a	c2 04 00	 ret	 4
??0bad_alloc@std@@QAE@PBD@Z ENDP			; std::bad_alloc::bad_alloc
_TEXT	ENDS
PUBLIC	??1bad_alloc@std@@UAE@XZ			; std::bad_alloc::~bad_alloc
EXTRN	__imp_??1exception@std@@UAE@XZ:PROC
; Function compile flags: /Ogsp
;	COMDAT ??1bad_alloc@std@@UAE@XZ
_TEXT	SEGMENT
??1bad_alloc@std@@UAE@XZ PROC				; std::bad_alloc::~bad_alloc, COMDAT
; _this$ = ecx

; 354  : 		{	// destroy the object

  00000	c7 01 00 00 00
	00		 mov	 DWORD PTR [ecx], OFFSET ??_7bad_alloc@std@@6B@

; 355  : 		}

  00006	ff 25 00 00 00
	00		 jmp	 DWORD PTR __imp_??1exception@std@@UAE@XZ
??1bad_alloc@std@@UAE@XZ ENDP				; std::bad_alloc::~bad_alloc
_TEXT	ENDS
EXTRN	??3@YAXPAX@Z:PROC				; operator delete
; Function compile flags: /Ogsp
;	COMDAT ??_Gbad_alloc@std@@UAEPAXI@Z
_TEXT	SEGMENT
___flags$ = 8						; size = 4
??_Gbad_alloc@std@@UAEPAXI@Z PROC			; std::bad_alloc::`scalar deleting destructor', COMDAT
; _this$ = ecx
  00000	55		 push	 ebp
  00001	8b ec		 mov	 ebp, esp
  00003	56		 push	 esi
  00004	8b f1		 mov	 esi, ecx
  00006	c7 06 00 00 00
	00		 mov	 DWORD PTR [esi], OFFSET ??_7bad_alloc@std@@6B@
  0000c	ff 15 00 00 00
	00		 call	 DWORD PTR __imp_??1exception@std@@UAE@XZ
  00012	f6 45 08 01	 test	 BYTE PTR ___flags$[ebp], 1
  00016	74 07		 je	 SHORT $LN1@scalar
  00018	56		 push	 esi
  00019	e8 00 00 00 00	 call	 ??3@YAXPAX@Z		; operator delete
  0001e	59		 pop	 ecx
$LN1@scalar:
  0001f	8b c6		 mov	 eax, esi
  00021	5e		 pop	 esi
  00022	5d		 pop	 ebp
  00023	c2 04 00	 ret	 4
??_Gbad_alloc@std@@UAEPAXI@Z ENDP			; std::bad_alloc::`scalar deleting destructor'
_TEXT	ENDS
PUBLIC	??2@YAPAXIPAX@Z					; operator new
; Function compile flags: /Ogsp
; File c:\program files (x86)\microsoft visual studio 10.0\vc\include\new
;	COMDAT ??2@YAPAXIPAX@Z
_TEXT	SEGMENT
___formal$ = 8						; size = 4
__Where$ = 12						; size = 4
??2@YAPAXIPAX@Z PROC					; operator new, COMDAT

; 56   : 	{	// construct array with placement at _Where

  00000	55		 push	 ebp
  00001	8b ec		 mov	 ebp, esp

; 57   : 	return (_Where);

  00003	8b 45 0c	 mov	 eax, DWORD PTR __Where$[ebp]

; 58   : 	}

  00006	5d		 pop	 ebp
  00007	c3		 ret	 0
??2@YAPAXIPAX@Z ENDP					; operator new
_TEXT	ENDS
PUBLIC	??3@YAXPAX0@Z					; operator delete
; Function compile flags: /Ogsp
;	COMDAT ??3@YAXPAX0@Z
_TEXT	SEGMENT
___formal$ = 8						; size = 4
___formal$ = 12						; size = 4
??3@YAXPAX0@Z PROC					; operator delete, COMDAT

; 62   : 	}

  00000	c3		 ret	 0
??3@YAXPAX0@Z ENDP					; operator delete
_TEXT	ENDS
PUBLIC	?GetCreator@ioBaseChar@@QAEPAVioPlayStage@@XZ	; ioBaseChar::GetCreator
; Function compile flags: /Ogsp
; File d:\lost saga for developer\youtube\tutorial\source\src\lsclient\iobasechar.h
;	COMDAT ?GetCreator@ioBaseChar@@QAEPAVioPlayStage@@XZ
_TEXT	SEGMENT
?GetCreator@ioBaseChar@@QAEPAVioPlayStage@@XZ PROC	; ioBaseChar::GetCreator, COMDAT
; _this$ = ecx

; 4013 : 	inline ioPlayStage* GetCreator() { return m_pCreator; }

  00000	8b 81 44 03 00
	00		 mov	 eax, DWORD PTR [ecx+836]
  00006	c3		 ret	 0
?GetCreator@ioBaseChar@@QAEPAVioPlayStage@@XZ ENDP	; ioBaseChar::GetCreator
_TEXT	ENDS
PUBLIC	?length@?$char_traits@D@std@@SAIPBD@Z		; std::char_traits<char>::length
; Function compile flags: /Ogsp
; File c:\program files (x86)\microsoft visual studio 10.0\vc\include\iosfwd
;	COMDAT ?length@?$char_traits@D@std@@SAIPBD@Z
_TEXT	SEGMENT
__First$ = 8						; size = 4
?length@?$char_traits@D@std@@SAIPBD@Z PROC		; std::char_traits<char>::length, COMDAT

; 490  : 		{	// find length of null-terminated string

  00000	55		 push	 ebp
  00001	8b ec		 mov	 ebp, esp

; 491  : 		return (_CSTD strlen(_First));

  00003	8b 45 08	 mov	 eax, DWORD PTR __First$[ebp]
  00006	8d 50 01	 lea	 edx, DWORD PTR [eax+1]
$LL3@length:
  00009	8a 08		 mov	 cl, BYTE PTR [eax]
  0000b	40		 inc	 eax
  0000c	84 c9		 test	 cl, cl
  0000e	75 f9		 jne	 SHORT $LL3@length
  00010	2b c2		 sub	 eax, edx

; 492  : 		}

  00012	5d		 pop	 ebp
  00013	c3		 ret	 0
?length@?$char_traits@D@std@@SAIPBD@Z ENDP		; std::char_traits<char>::length
_TEXT	ENDS
PUBLIC	?copy@?$char_traits@D@std@@SAPADPADPBDI@Z	; std::char_traits<char>::copy
EXTRN	_memcpy:PROC
; Function compile flags: /Ogsp
;	COMDAT ?copy@?$char_traits@D@std@@SAPADPADPBDI@Z
_TEXT	SEGMENT
__First1$ = 8						; size = 4
__First2$ = 12						; size = 4
__Count$ = 16						; size = 4
?copy@?$char_traits@D@std@@SAPADPADPBDI@Z PROC		; std::char_traits<char>::copy, COMDAT

; 496  : 		{	// copy [_First1, _First1 + _Count) to [_First2, ...)

  00000	55		 push	 ebp
  00001	8b ec		 mov	 ebp, esp

; 498  : 		}

  00003	5d		 pop	 ebp

; 497  : 		return ((_Elem *)_CSTD memcpy(_First1, _First2, _Count));

  00004	e9 00 00 00 00	 jmp	 _memcpy
?copy@?$char_traits@D@std@@SAPADPADPBDI@Z ENDP		; std::char_traits<char>::copy
_TEXT	ENDS
PUBLIC	?move@?$char_traits@D@std@@SAPADPADPBDI@Z	; std::char_traits<char>::move
EXTRN	__imp__memmove:PROC
; Function compile flags: /Ogsp
;	COMDAT ?move@?$char_traits@D@std@@SAPADPADPBDI@Z
_TEXT	SEGMENT
__First1$ = 8						; size = 4
__First2$ = 12						; size = 4
__Count$ = 16						; size = 4
?move@?$char_traits@D@std@@SAPADPADPBDI@Z PROC		; std::char_traits<char>::move, COMDAT

; 516  : 		{	// copy [_First1, _First1 + _Count) to [_First2, ...)

  00000	55		 push	 ebp
  00001	8b ec		 mov	 ebp, esp

; 518  : 		}

  00003	5d		 pop	 ebp

; 517  : 		return ((_Elem *)_CSTD memmove(_First1, _First2, _Count));

  00004	ff 25 00 00 00
	00		 jmp	 DWORD PTR __imp__memmove
?move@?$char_traits@D@std@@SAPADPADPBDI@Z ENDP		; std::char_traits<char>::move
_TEXT	ENDS
PUBLIC	?assign@?$char_traits@D@std@@SAXAADABD@Z	; std::char_traits<char>::assign
; Function compile flags: /Ogsp
;	COMDAT ?assign@?$char_traits@D@std@@SAXAADABD@Z
_TEXT	SEGMENT
__Left$ = 8						; size = 4
__Right$ = 12						; size = 4
?assign@?$char_traits@D@std@@SAXAADABD@Z PROC		; std::char_traits<char>::assign, COMDAT

; 526  : 		{	// assign an element

  00000	55		 push	 ebp
  00001	8b ec		 mov	 ebp, esp

; 527  : 		_Left = _Right;

  00003	8b 45 0c	 mov	 eax, DWORD PTR __Right$[ebp]
  00006	8a 00		 mov	 al, BYTE PTR [eax]
  00008	8b 4d 08	 mov	 ecx, DWORD PTR __Left$[ebp]
  0000b	88 01		 mov	 BYTE PTR [ecx], al

; 528  : 		}

  0000d	5d		 pop	 ebp
  0000e	c3		 ret	 0
?assign@?$char_traits@D@std@@SAXAADABD@Z ENDP		; std::char_traits<char>::assign
_TEXT	ENDS
PUBLIC	??_R0?AVioWeapon@@@8				; ioWeapon `RTTI Type Descriptor'
PUBLIC	??_R0?AVioZoneEffectWeapon@@@8			; ioZoneEffectWeapon `RTTI Type Descriptor'
PUBLIC	?ToZoneEffectWeapon@@YAPAVioZoneEffectWeapon@@PAVioWeapon@@@Z ; ToZoneEffectWeapon
EXTRN	___RTDynamicCast:PROC
;	COMDAT ??_R0?AVioWeapon@@@8
; File d:\lost saga for developer\youtube\tutorial\source\src\lsclient\iozoneeffectweapon.h
_DATA	SEGMENT
??_R0?AVioWeapon@@@8 DD FLAT:??_7type_info@@6B@		; ioWeapon `RTTI Type Descriptor'
	DD	00H
	DB	'.?AVioWeapon@@', 00H
_DATA	ENDS
;	COMDAT ??_R0?AVioZoneEffectWeapon@@@8
_DATA	SEGMENT
??_R0?AVioZoneEffectWeapon@@@8 DD FLAT:??_7type_info@@6B@ ; ioZoneEffectWeapon `RTTI Type Descriptor'
	DD	00H
	DB	'.?AVioZoneEffectWeapon@@', 00H
; Function compile flags: /Ogsp
_DATA	ENDS
;	COMDAT ?ToZoneEffectWeapon@@YAPAVioZoneEffectWeapon@@PAVioWeapon@@@Z
_TEXT	SEGMENT
_pWeapon$ = 8						; size = 4
?ToZoneEffectWeapon@@YAPAVioZoneEffectWeapon@@PAVioWeapon@@@Z PROC ; ToZoneEffectWeapon, COMDAT

; 217  : {

  00000	55		 push	 ebp
  00001	8b ec		 mov	 ebp, esp
  00003	56		 push	 esi

; 218  : 	if( !pWeapon || pWeapon->GetType() != ioWeapon::WT_ZONE_EFFECT )

  00004	8b 75 08	 mov	 esi, DWORD PTR _pWeapon$[ebp]
  00007	85 f6		 test	 esi, esi
  00009	74 28		 je	 SHORT $LN1@ToZoneEffe
  0000b	8b 06		 mov	 eax, DWORD PTR [esi]
  0000d	8b ce		 mov	 ecx, esi
  0000f	ff 90 10 01 00
	00		 call	 DWORD PTR [eax+272]
  00015	83 f8 08	 cmp	 eax, 8
  00018	75 19		 jne	 SHORT $LN1@ToZoneEffe

; 220  : 
; 221  : 	return dynamic_cast< ioZoneEffectWeapon* >( pWeapon );

  0001a	6a 00		 push	 0
  0001c	68 00 00 00 00	 push	 OFFSET ??_R0?AVioZoneEffectWeapon@@@8
  00021	68 00 00 00 00	 push	 OFFSET ??_R0?AVioWeapon@@@8
  00026	6a 00		 push	 0
  00028	56		 push	 esi
  00029	e8 00 00 00 00	 call	 ___RTDynamicCast
  0002e	83 c4 14	 add	 esp, 20			; 00000014H
  00031	eb 02		 jmp	 SHORT $LN3@ToZoneEffe
$LN1@ToZoneEffe:

; 219  : 		return NULL;

  00033	33 c0		 xor	 eax, eax
$LN3@ToZoneEffe:
  00035	5e		 pop	 esi

; 222  : }

  00036	5d		 pop	 ebp
  00037	c3		 ret	 0
?ToZoneEffectWeapon@@YAPAVioZoneEffectWeapon@@PAVioWeapon@@@Z ENDP ; ToZoneEffectWeapon
_TEXT	ENDS
PUBLIC	?_Adopt@_Iterator_base0@std@@QAEXPBX@Z		; std::_Iterator_base0::_Adopt
; Function compile flags: /Ogsp
; File c:\program files (x86)\microsoft visual studio 10.0\vc\include\xutility
;	COMDAT ?_Adopt@_Iterator_base0@std@@QAEXPBX@Z
_TEXT	SEGMENT
___formal$ = 8						; size = 4
?_Adopt@_Iterator_base0@std@@QAEXPBX@Z PROC		; std::_Iterator_base0::_Adopt, COMDAT
; _this$ = ecx

; 49   : 		}

  00000	c2 04 00	 ret	 4
?_Adopt@_Iterator_base0@std@@QAEXPBX@Z ENDP		; std::_Iterator_base0::_Adopt
_TEXT	ENDS
PUBLIC	__real@00000000
PUBLIC	?CheckLanding@ioTargetTrace16Dummy@@AAE_NPAVioBaseChar@@@Z ; ioTargetTrace16Dummy::CheckLanding
EXTRN	?GetMapHeight@ioPlayStage@@QAEMMMPBVioGameEntity@@_NM1@Z:PROC ; ioPlayStage::GetMapHeight
;	COMDAT __real@00000000
; File d:\lost saga for developer\youtube\tutorial\source\src\lsclient\iobasechar.h
CONST	SEGMENT
__real@00000000 DD 000000000r			; 0
; Function compile flags: /Ogsp
; File d:\lost saga for developer\youtube\tutorial\source\src\lsclient\iotargettrace16dummy.cpp
CONST	ENDS
;	COMDAT ?CheckLanding@ioTargetTrace16Dummy@@AAE_NPAVioBaseChar@@@Z
_TEXT	SEGMENT
_vPos$ = -12						; size = 12
tv95 = -8						; size = 8
tv160 = 8						; size = 4
_pOwner$ = 8						; size = 4
?CheckLanding@ioTargetTrace16Dummy@@AAE_NPAVioBaseChar@@@Z PROC ; ioTargetTrace16Dummy::CheckLanding, COMDAT
; _this$ = ecx

; 642  : {

  00000	55		 push	 ebp
  00001	8b ec		 mov	 ebp, esp

; 643  : 	if ( !pOwner )

  00003	8b 45 08	 mov	 eax, DWORD PTR _pOwner$[ebp]
  00006	83 ec 0c	 sub	 esp, 12			; 0000000cH
  00009	85 c0		 test	 eax, eax
  0000b	75 04		 jne	 SHORT $LN3@CheckLandi

; 644  : 		return false;

  0000d	32 c0		 xor	 al, al
  0000f	eb 67		 jmp	 SHORT $LN4@CheckLandi
$LN3@CheckLandi:
  00011	53		 push	 ebx

; 645  : 
; 646  : 	ioPlayStage *pStage = pOwner->GetCreator();

  00012	8b 98 44 03 00
	00		 mov	 ebx, DWORD PTR [eax+836]

; 647  : 	if ( !pStage )

  00018	85 db		 test	 ebx, ebx

; 648  : 		return false;

  0001a	74 55		 je	 SHORT $LN9@CheckLandi

; 649  : 	D3DXVECTOR3 vPos = GetWorldPosition();

  0001c	8b 01		 mov	 eax, DWORD PTR [ecx]
  0001e	56		 push	 esi
  0001f	57		 push	 edi
  00020	ff 50 70	 call	 DWORD PTR [eax+112]

; 650  : 	float fHeightGap = vPos.y -pStage->GetMapHeight( vPos.x,vPos.z );

  00023	0f 57 c0	 xorps	 xmm0, xmm0
  00026	6a 00		 push	 0
  00028	51		 push	 ecx
  00029	f3 0f 11 04 24	 movss	 DWORD PTR [esp], xmm0
  0002e	8b f0		 mov	 esi, eax
  00030	8d 7d f4	 lea	 edi, DWORD PTR _vPos$[ebp]
  00033	a5		 movsd
  00034	a5		 movsd
  00035	6a 01		 push	 1
  00037	6a 00		 push	 0
  00039	a5		 movsd

; 651  : 	if( fHeightGap > 0.0f )

  0003a	d9 45 f8	 fld	 DWORD PTR _vPos$[ebp+4]
  0003d	f3 0f 10 45 fc	 movss	 xmm0, DWORD PTR _vPos$[ebp+8]
  00042	51		 push	 ecx
  00043	51		 push	 ecx
  00044	dd 5d f8	 fstp	 QWORD PTR tv95[ebp]
  00047	f3 0f 11 44 24
	04		 movss	 DWORD PTR [esp+4], xmm0
  0004d	f3 0f 10 45 f4	 movss	 xmm0, DWORD PTR _vPos$[ebp]
  00052	8b cb		 mov	 ecx, ebx
  00054	f3 0f 11 04 24	 movss	 DWORD PTR [esp], xmm0
  00059	e8 00 00 00 00	 call	 ?GetMapHeight@ioPlayStage@@QAEMMMPBVioGameEntity@@_NM1@Z ; ioPlayStage::GetMapHeight
  0005e	dc 6d f8	 fsubr	 QWORD PTR tv95[ebp]
  00061	5f		 pop	 edi
  00062	5e		 pop	 esi
  00063	d9 5d 08	 fstp	 DWORD PTR tv160[ebp]
  00066	d9 ee		 fldz
  00068	d9 45 08	 fld	 DWORD PTR tv160[ebp]
  0006b	df f1		 fcomip	 ST(1)
  0006d	dd d8		 fstp	 ST(0)
  0006f	76 04		 jbe	 SHORT $LN1@CheckLandi
$LN9@CheckLandi:

; 652  : 		return false;

  00071	32 c0		 xor	 al, al
  00073	eb 02		 jmp	 SHORT $LN8@CheckLandi
$LN1@CheckLandi:

; 653  : 	return true;

  00075	b0 01		 mov	 al, 1
$LN8@CheckLandi:
  00077	5b		 pop	 ebx
$LN4@CheckLandi:

; 654  : }

  00078	c9		 leave
  00079	c2 04 00	 ret	 4
?CheckLanding@ioTargetTrace16Dummy@@AAE_NPAVioBaseChar@@@Z ENDP ; ioTargetTrace16Dummy::CheckLanding
_TEXT	ENDS
PUBLIC	??1FireTime@@QAE@XZ				; FireTime::~FireTime
EXTRN	__imp_??1ioHashString@@QAE@XZ:PROC
EXTRN	___CxxFrameHandler3:PROC
EXTRN	@__security_check_cookie@4:PROC
EXTRN	__EH_epilog3:PROC
EXTRN	__EH_prolog3:PROC
;	COMDAT xdata$x
xdata$x	SEGMENT
__unwindtable$??1FireTime@@QAE@XZ DD 0ffffffffH
	DD	FLAT:__unwindfunclet$??1FireTime@@QAE@XZ$0
	DD	00H
	DD	FLAT:__unwindfunclet$??1FireTime@@QAE@XZ$1
__ehfuncinfo$??1FireTime@@QAE@XZ DD 019930522H
	DD	02H
	DD	FLAT:__unwindtable$??1FireTime@@QAE@XZ
	DD	2 DUP(00H)
	DD	2 DUP(00H)
	DD	00H
	DD	01H
; Function compile flags: /Ogsp
xdata$x	ENDS
;	COMDAT ??1FireTime@@QAE@XZ
_TEXT	SEGMENT
_this$ = -16						; size = 4
__$EHRec$ = -12						; size = 12
??1FireTime@@QAE@XZ PROC				; FireTime::~FireTime, COMDAT
; _this$ = ecx
  00000	6a 04		 push	 4
  00002	b8 00 00 00 00	 mov	 eax, __ehhandler$??1FireTime@@QAE@XZ
  00007	e8 00 00 00 00	 call	 __EH_prolog3
  0000c	8b f9		 mov	 edi, ecx
  0000e	89 7d f0	 mov	 DWORD PTR _this$[ebp], edi
  00011	8b 35 00 00 00
	00		 mov	 esi, DWORD PTR __imp_??1ioHashString@@QAE@XZ
  00017	8d 4f 44	 lea	 ecx, DWORD PTR [edi+68]
  0001a	c7 45 fc 01 00
	00 00		 mov	 DWORD PTR __$EHRec$[ebp+8], 1
  00021	ff d6		 call	 esi
  00023	8d 4f 30	 lea	 ecx, DWORD PTR [edi+48]
  00026	c6 45 fc 00	 mov	 BYTE PTR __$EHRec$[ebp+8], 0
  0002a	ff d6		 call	 esi
  0002c	83 4d fc ff	 or	 DWORD PTR __$EHRec$[ebp+8], -1
  00030	8d 4f 14	 lea	 ecx, DWORD PTR [edi+20]
  00033	ff d6		 call	 esi
  00035	e8 00 00 00 00	 call	 __EH_epilog3
  0003a	c3		 ret	 0
_TEXT	ENDS
;	COMDAT text$x
text$x	SEGMENT
__unwindfunclet$??1FireTime@@QAE@XZ$0:
  00000	8b 4d f0	 mov	 ecx, DWORD PTR _this$[ebp]
  00003	83 c1 14	 add	 ecx, 20			; 00000014H
  00006	ff 25 00 00 00
	00		 jmp	 DWORD PTR __imp_??1ioHashString@@QAE@XZ
__unwindfunclet$??1FireTime@@QAE@XZ$1:
  0000c	8b 4d f0	 mov	 ecx, DWORD PTR _this$[ebp]
  0000f	83 c1 30	 add	 ecx, 48			; 00000030H
  00012	ff 25 00 00 00
	00		 jmp	 DWORD PTR __imp_??1ioHashString@@QAE@XZ
__ehhandler$??1FireTime@@QAE@XZ:
  00018	8b 54 24 08	 mov	 edx, DWORD PTR [esp+8]
  0001c	8d 42 0c	 lea	 eax, DWORD PTR [edx+12]
  0001f	8b 4a ec	 mov	 ecx, DWORD PTR [edx-20]
  00022	33 c8		 xor	 ecx, eax
  00024	e8 00 00 00 00	 call	 @__security_check_cookie@4
  00029	b8 00 00 00 00	 mov	 eax, OFFSET __ehfuncinfo$??1FireTime@@QAE@XZ
  0002e	e9 00 00 00 00	 jmp	 ___CxxFrameHandler3
text$x	ENDS
??1FireTime@@QAE@XZ ENDP				; FireTime::~FireTime
PUBLIC	__real@3f800000
PUBLIC	__real@42c80000
PUBLIC	?SetTraceWaitState@ioTargetTrace16Dummy@@AAEXPAVioBaseChar@@@Z ; ioTargetTrace16Dummy::SetTraceWaitState
EXTRN	__imp_?SetLoopAni@ioEntityGroup@@QAE_NHMMMM@Z:PROC
EXTRN	__imp_?GetAnimationIdx@ioEntityGroup@@QAEHABVioHashString@@@Z:PROC
EXTRN	__imp_?ClearAllActionAni@ioEntityGroup@@QAEXM_N@Z:PROC
EXTRN	__imp_?ClearAllLoopAni@ioEntityGroup@@QAEXM_N@Z:PROC
;	COMDAT __real@3f800000
CONST	SEGMENT
__real@3f800000 DD 03f800000r			; 1
CONST	ENDS
;	COMDAT __real@42c80000
CONST	SEGMENT
__real@42c80000 DD 042c80000r			; 100
; Function compile flags: /Ogsp
CONST	ENDS
;	COMDAT ?SetTraceWaitState@ioTargetTrace16Dummy@@AAEXPAVioBaseChar@@@Z
_TEXT	SEGMENT
_pOwner$ = 8						; size = 4
?SetTraceWaitState@ioTargetTrace16Dummy@@AAEXPAVioBaseChar@@@Z PROC ; ioTargetTrace16Dummy::SetTraceWaitState, COMDAT
; _this$ = ecx

; 965  : {

  00000	56		 push	 esi
  00001	8b f1		 mov	 esi, ecx

; 966  : 	if( m_TraceDummyState == TDS_TRACE_WAIT )

  00003	6a 04		 push	 4
  00005	59		 pop	 ecx
  00006	39 8e 80 14 00
	00		 cmp	 DWORD PTR [esi+5248], ecx
  0000c	0f 84 84 00 00
	00		 je	 $LN1@SetTraceWa

; 967  : 		return;
; 968  : 
; 969  : 	m_TraceDummyState = TDS_TRACE_WAIT;
; 970  : 
; 971  : 	m_pGroup->ClearAllLoopAni( 100.0f );

  00012	f3 0f 10 05 00
	00 00 00	 movss	 xmm0, DWORD PTR __real@42c80000
  0001a	6a 00		 push	 0
  0001c	51		 push	 ecx
  0001d	89 8e 80 14 00
	00		 mov	 DWORD PTR [esi+5248], ecx
  00023	8b 4e 04	 mov	 ecx, DWORD PTR [esi+4]
  00026	f3 0f 11 04 24	 movss	 DWORD PTR [esp], xmm0
  0002b	ff 15 00 00 00
	00		 call	 DWORD PTR __imp_?ClearAllLoopAni@ioEntityGroup@@QAEXM_N@Z

; 972  : 	m_pGroup->ClearAllActionAni( 100.0f );

  00031	f3 0f 10 05 00
	00 00 00	 movss	 xmm0, DWORD PTR __real@42c80000
  00039	6a 00		 push	 0
  0003b	51		 push	 ecx
  0003c	8b 4e 04	 mov	 ecx, DWORD PTR [esi+4]
  0003f	f3 0f 11 04 24	 movss	 DWORD PTR [esp], xmm0
  00044	ff 15 00 00 00
	00		 call	 DWORD PTR __imp_?ClearAllActionAni@ioEntityGroup@@QAEXM_N@Z

; 973  : 
; 974  : 	int iAniID = m_pGroup->GetAnimationIdx( m_DelayAnimation );

  0004a	8b 4e 04	 mov	 ecx, DWORD PTR [esi+4]
  0004d	8d 86 a8 06 00
	00		 lea	 eax, DWORD PTR [esi+1704]
  00053	50		 push	 eax
  00054	ff 15 00 00 00
	00		 call	 DWORD PTR __imp_?GetAnimationIdx@ioEntityGroup@@QAEHABVioHashString@@@Z

; 975  : 
; 976  : 	if( iAniID != -1 )

  0005a	83 f8 ff	 cmp	 eax, -1
  0005d	74 37		 je	 SHORT $LN1@SetTraceWa

; 977  : 		m_pGroup->SetLoopAni( iAniID, 100.0f, 1.0f, 1.0f );

  0005f	0f 57 c0	 xorps	 xmm0, xmm0
  00062	8b 4e 04	 mov	 ecx, DWORD PTR [esi+4]
  00065	83 ec 10	 sub	 esp, 16			; 00000010H
  00068	f3 0f 11 44 24
	0c		 movss	 DWORD PTR [esp+12], xmm0
  0006e	f3 0f 10 05 00
	00 00 00	 movss	 xmm0, DWORD PTR __real@3f800000
  00076	f3 0f 11 44 24
	08		 movss	 DWORD PTR [esp+8], xmm0
  0007c	f3 0f 11 44 24
	04		 movss	 DWORD PTR [esp+4], xmm0
  00082	f3 0f 10 05 00
	00 00 00	 movss	 xmm0, DWORD PTR __real@42c80000
  0008a	f3 0f 11 04 24	 movss	 DWORD PTR [esp], xmm0
  0008f	50		 push	 eax
  00090	ff 15 00 00 00
	00		 call	 DWORD PTR __imp_?SetLoopAni@ioEntityGroup@@QAE_NHMMMM@Z
$LN1@SetTraceWa:
  00096	5e		 pop	 esi

; 978  : }

  00097	c2 04 00	 ret	 4
?SetTraceWaitState@ioTargetTrace16Dummy@@AAEXPAVioBaseChar@@@Z ENDP ; ioTargetTrace16Dummy::SetTraceWaitState
_TEXT	ENDS
PUBLIC	__real@3ff0000000000000
PUBLIC	__real@41200000
PUBLIC	__$ArrayPad$
PUBLIC	?SetReturnState@ioTargetTrace16Dummy@@AAEXPAVioBaseChar@@@Z ; ioTargetTrace16Dummy::SetReturnState
EXTRN	??1SP2Packet@@UAE@XZ:PROC			; SP2Packet::~SP2Packet
EXTRN	?SendToAllPlayingUser@P2PNetwork@@YAXAAVSP2Packet@@PAVioBaseChar@@@Z:PROC ; P2PNetwork::SendToAllPlayingUser
EXTRN	??6SP2Packet@@QAEAAV0@H@Z:PROC			; SP2Packet::operator<<
EXTRN	??6SP2Packet@@QAEAAV0@ABVioHashString@@@Z:PROC	; SP2Packet::operator<<
EXTRN	??0SP2Packet@@QAE@K@Z:PROC			; SP2Packet::SP2Packet
EXTRN	__imp_?IsEmpty@ioHashString@@QBE_NXZ:PROC
EXTRN	__imp_?GetLoopSec@ioFrameTimer@@QBEKXZ:PROC
EXTRN	__imp_?GetSingleton@ioFrameTimer@@SAAAV1@XZ:PROC
EXTRN	___security_cookie:DWORD
EXTRN	__chkstk:PROC
;	COMDAT __real@3ff0000000000000
CONST	SEGMENT
__real@3ff0000000000000 DQ 03ff0000000000000r	; 1
CONST	ENDS
;	COMDAT __real@41200000
CONST	SEGMENT
__real@41200000 DD 041200000r			; 10
CONST	ENDS
;	COMDAT xdata$x
xdata$x	SEGMENT
__unwindtable$?SetReturnState@ioTargetTrace16Dummy@@AAEXPAVioBaseChar@@@Z DD 0ffffffffH
	DD	FLAT:__unwindfunclet$?SetReturnState@ioTargetTrace16Dummy@@AAEXPAVioBaseChar@@@Z$0
__ehfuncinfo$?SetReturnState@ioTargetTrace16Dummy@@AAEXPAVioBaseChar@@@Z DD 019930522H
	DD	01H
	DD	FLAT:__unwindtable$?SetReturnState@ioTargetTrace16Dummy@@AAEXPAVioBaseChar@@@Z
	DD	2 DUP(00H)
	DD	2 DUP(00H)
	DD	00H
	DD	01H
; Function compile flags: /Ogsp
xdata$x	ENDS
;	COMDAT ?SetReturnState@ioTargetTrace16Dummy@@AAEXPAVioBaseChar@@@Z
_TEXT	SEGMENT
_fAniRate$532592 = -32812				; size = 4
_kPacket$532595 = -32808				; size = 32792
__$ArrayPad$ = -16					; size = 4
__$EHRec$ = -12						; size = 12
_pOwner$ = 8						; size = 4
?SetReturnState@ioTargetTrace16Dummy@@AAEXPAVioBaseChar@@@Z PROC ; ioTargetTrace16Dummy::SetReturnState, COMDAT
; _this$ = ecx

; 1104 : {

  00000	55		 push	 ebp
  00001	8b ec		 mov	 ebp, esp
  00003	6a ff		 push	 -1
  00005	68 00 00 00 00	 push	 __ehhandler$?SetReturnState@ioTargetTrace16Dummy@@AAEXPAVioBaseChar@@@Z
  0000a	64 a1 00 00 00
	00		 mov	 eax, DWORD PTR fs:0
  00010	50		 push	 eax
  00011	b8 20 80 00 00	 mov	 eax, 32800		; 00008020H
  00016	e8 00 00 00 00	 call	 __chkstk
  0001b	a1 00 00 00 00	 mov	 eax, DWORD PTR ___security_cookie
  00020	33 c5		 xor	 eax, ebp
  00022	89 45 f0	 mov	 DWORD PTR __$ArrayPad$[ebp], eax
  00025	53		 push	 ebx
  00026	56		 push	 esi
  00027	57		 push	 edi
  00028	50		 push	 eax
  00029	8d 45 f4	 lea	 eax, DWORD PTR __$EHRec$[ebp]
  0002c	64 a3 00 00 00
	00		 mov	 DWORD PTR fs:0, eax
  00032	8b 5d 08	 mov	 ebx, DWORD PTR _pOwner$[ebp]
  00035	8b f1		 mov	 esi, ecx

; 1105 : 	if ( !pOwner )

  00037	85 db		 test	 ebx, ebx
  00039	0f 84 70 01 00
	00		 je	 $LN1@SetReturnS

; 1106 : 		return;
; 1107 : 
; 1108 : 	m_TraceDummyState = TDS_RETURN;

  0003f	c7 86 80 14 00
	00 08 00 00 00	 mov	 DWORD PTR [esi+5248], 8

; 1109 : 	m_dwReturnEndTime = FRAMEGETTIME() + m_dwReturnDuration;

  00049	ff 15 00 00 00
	00		 call	 DWORD PTR __imp_?GetSingleton@ioFrameTimer@@SAAAV1@XZ
  0004f	8b c8		 mov	 ecx, eax
  00051	ff 15 00 00 00
	00		 call	 DWORD PTR __imp_?GetLoopSec@ioFrameTimer@@QBEKXZ
  00057	03 86 d4 14 00
	00		 add	 eax, DWORD PTR [esi+5332]

; 1110 : 	if ( !m_szReturnAnimation.IsEmpty() )

  0005d	8d be b8 14 00
	00		 lea	 edi, DWORD PTR [esi+5304]
  00063	8b cf		 mov	 ecx, edi
  00065	89 86 d0 14 00
	00		 mov	 DWORD PTR [esi+5328], eax
  0006b	ff 15 00 00 00
	00		 call	 DWORD PTR __imp_?IsEmpty@ioHashString@@QBE_NXZ
  00071	84 c0		 test	 al, al
  00073	0f 85 c2 00 00
	00		 jne	 $LN4@SetReturnS

; 1111 : 	{
; 1112 : 		int iAniID = m_pGroup->GetAnimationIdx( m_szReturnAnimation );

  00079	8b 4e 04	 mov	 ecx, DWORD PTR [esi+4]
  0007c	57		 push	 edi
  0007d	ff 15 00 00 00
	00		 call	 DWORD PTR __imp_?GetAnimationIdx@ioEntityGroup@@QAEHABVioHashString@@@Z
  00083	8b f8		 mov	 edi, eax

; 1113 : 		if( iAniID == -1 )

  00085	83 ff ff	 cmp	 edi, -1
  00088	0f 84 21 01 00
	00		 je	 $LN1@SetReturnS

; 1114 : 			return;
; 1115 : 		float fAniRate = 1.0f;

  0008e	f3 0f 10 05 00
	00 00 00	 movss	 xmm0, DWORD PTR __real@3f800000
  00096	f3 0f 11 85 d4
	7f ff ff	 movss	 DWORD PTR _fAniRate$532592[ebp], xmm0

; 1116 : 		if( m_fReturnAniRate > 0.0f )

  0009e	f3 0f 10 86 c8
	14 00 00	 movss	 xmm0, DWORD PTR [esi+5320]
  000a6	0f 2f 05 00 00
	00 00		 comiss	 xmm0, DWORD PTR __real@00000000
  000ad	76 08		 jbe	 SHORT $LN2@SetReturnS

; 1117 : 			fAniRate = m_fReturnAniRate;

  000af	f3 0f 11 85 d4
	7f ff ff	 movss	 DWORD PTR _fAniRate$532592[ebp], xmm0
$LN2@SetReturnS:

; 1118 : 
; 1119 : 		m_pGroup->ClearAllActionAni( 10.0f, true );

  000b7	f3 0f 10 05 00
	00 00 00	 movss	 xmm0, DWORD PTR __real@41200000
  000bf	6a 01		 push	 1
  000c1	51		 push	 ecx
  000c2	8b 4e 04	 mov	 ecx, DWORD PTR [esi+4]
  000c5	f3 0f 11 04 24	 movss	 DWORD PTR [esp], xmm0
  000ca	ff 15 00 00 00
	00		 call	 DWORD PTR __imp_?ClearAllActionAni@ioEntityGroup@@QAEXM_N@Z

; 1120 : 		m_pGroup->ClearAllLoopAni( 10.0f, true );

  000d0	f3 0f 10 05 00
	00 00 00	 movss	 xmm0, DWORD PTR __real@41200000
  000d8	6a 01		 push	 1
  000da	51		 push	 ecx
  000db	8b 4e 04	 mov	 ecx, DWORD PTR [esi+4]
  000de	f3 0f 11 04 24	 movss	 DWORD PTR [esp], xmm0
  000e3	ff 15 00 00 00
	00		 call	 DWORD PTR __imp_?ClearAllLoopAni@ioEntityGroup@@QAEXM_N@Z

; 1121 : 
; 1122 : 		m_pGroup->SetLoopAni( iAniID, 10.0f, 1.0f, 1.0f/fAniRate );

  000e9	0f 57 c0	 xorps	 xmm0, xmm0
  000ec	f2 0f 10 0d 00
	00 00 00	 movsd	 xmm1, QWORD PTR __real@3ff0000000000000
  000f4	8b 4e 04	 mov	 ecx, DWORD PTR [esi+4]
  000f7	83 ec 10	 sub	 esp, 16			; 00000010H
  000fa	f3 0f 11 44 24
	0c		 movss	 DWORD PTR [esp+12], xmm0
  00100	f3 0f 10 85 d4
	7f ff ff	 movss	 xmm0, DWORD PTR _fAniRate$532592[ebp]
  00108	0f 5a c0	 cvtps2pd xmm0, xmm0
  0010b	f2 0f 5e c8	 divsd	 xmm1, xmm0
  0010f	66 0f 5a c1	 cvtpd2ps xmm0, xmm1
  00113	f3 0f 11 44 24
	08		 movss	 DWORD PTR [esp+8], xmm0
  00119	f3 0f 10 05 00
	00 00 00	 movss	 xmm0, DWORD PTR __real@3f800000
  00121	f3 0f 11 44 24
	04		 movss	 DWORD PTR [esp+4], xmm0
  00127	f3 0f 10 05 00
	00 00 00	 movss	 xmm0, DWORD PTR __real@41200000
  0012f	f3 0f 11 04 24	 movss	 DWORD PTR [esp], xmm0
  00134	57		 push	 edi
  00135	ff 15 00 00 00
	00		 call	 DWORD PTR __imp_?SetLoopAni@ioEntityGroup@@QAE_NHMMMM@Z
$LN4@SetReturnS:

; 1123 : 	}
; 1124 : 
; 1125 : 	if( pOwner->IsNeedSendNetwork() )

  0013b	8b 03		 mov	 eax, DWORD PTR [ebx]
  0013d	8b cb		 mov	 ecx, ebx
  0013f	ff 90 04 01 00
	00		 call	 DWORD PTR [eax+260]
  00145	84 c0		 test	 al, al
  00147	74 66		 je	 SHORT $LN1@SetReturnS

; 1126 : 	{
; 1127 : 		SP2Packet kPacket( CUPK_DUMMY_CHAR_SYNC );

  00149	68 21 42 00 00	 push	 16929			; 00004221H
  0014e	8d 8d d8 7f ff
	ff		 lea	 ecx, DWORD PTR _kPacket$532595[ebp]
  00154	e8 00 00 00 00	 call	 ??0SP2Packet@@QAE@K@Z	; SP2Packet::SP2Packet
  00159	83 65 fc 00	 and	 DWORD PTR __$EHRec$[ebp+8], 0

; 1128 : 		kPacket << m_OwnerName;

  0015d	8d 86 cc 01 00
	00		 lea	 eax, DWORD PTR [esi+460]
  00163	50		 push	 eax
  00164	8d 8d d8 7f ff
	ff		 lea	 ecx, DWORD PTR _kPacket$532595[ebp]
  0016a	e8 00 00 00 00	 call	 ??6SP2Packet@@QAEAAV0@ABVioHashString@@@Z ; SP2Packet::operator<<

; 1129 : 		kPacket << m_iCreateIndex;

  0016f	ff b6 dc 01 00
	00		 push	 DWORD PTR [esi+476]
  00175	8d 8d d8 7f ff
	ff		 lea	 ecx, DWORD PTR _kPacket$532595[ebp]
  0017b	e8 00 00 00 00	 call	 ??6SP2Packet@@QAEAAV0@H@Z ; SP2Packet::operator<<

; 1130 : 		kPacket << DCST_RETURN;

  00180	68 ec 03 00 00	 push	 1004			; 000003ecH
  00185	8d 8d d8 7f ff
	ff		 lea	 ecx, DWORD PTR _kPacket$532595[ebp]
  0018b	e8 00 00 00 00	 call	 ??6SP2Packet@@QAEAAV0@H@Z ; SP2Packet::operator<<

; 1131 : 		P2PNetwork::SendToAllPlayingUser( kPacket );

  00190	8d 85 d8 7f ff
	ff		 lea	 eax, DWORD PTR _kPacket$532595[ebp]
  00196	6a 00		 push	 0
  00198	50		 push	 eax
  00199	e8 00 00 00 00	 call	 ?SendToAllPlayingUser@P2PNetwork@@YAXAAVSP2Packet@@PAVioBaseChar@@@Z ; P2PNetwork::SendToAllPlayingUser

; 1132 : 	}

  0019e	83 4d fc ff	 or	 DWORD PTR __$EHRec$[ebp+8], -1
  001a2	59		 pop	 ecx
  001a3	59		 pop	 ecx
  001a4	8d 8d d8 7f ff
	ff		 lea	 ecx, DWORD PTR _kPacket$532595[ebp]
  001aa	e8 00 00 00 00	 call	 ??1SP2Packet@@UAE@XZ	; SP2Packet::~SP2Packet
$LN1@SetReturnS:

; 1133 : }

  001af	8b 4d f4	 mov	 ecx, DWORD PTR __$EHRec$[ebp]
  001b2	64 89 0d 00 00
	00 00		 mov	 DWORD PTR fs:0, ecx
  001b9	59		 pop	 ecx
  001ba	5f		 pop	 edi
  001bb	5e		 pop	 esi
  001bc	5b		 pop	 ebx
  001bd	8b 4d f0	 mov	 ecx, DWORD PTR __$ArrayPad$[ebp]
  001c0	33 cd		 xor	 ecx, ebp
  001c2	e8 00 00 00 00	 call	 @__security_check_cookie@4
  001c7	c9		 leave
  001c8	c2 04 00	 ret	 4
_TEXT	ENDS
;	COMDAT text$x
text$x	SEGMENT
__unwindfunclet$?SetReturnState@ioTargetTrace16Dummy@@AAEXPAVioBaseChar@@@Z$0:
  00000	8d 8d d8 7f ff
	ff		 lea	 ecx, DWORD PTR _kPacket$532595[ebp]
  00006	e9 00 00 00 00	 jmp	 ??1SP2Packet@@UAE@XZ	; SP2Packet::~SP2Packet
__ehhandler$?SetReturnState@ioTargetTrace16Dummy@@AAEXPAVioBaseChar@@@Z:
  0000b	8b 54 24 08	 mov	 edx, DWORD PTR [esp+8]
  0000f	8d 42 0c	 lea	 eax, DWORD PTR [edx+12]
  00012	8b 8a d0 7f ff
	ff		 mov	 ecx, DWORD PTR [edx-32816]
  00018	33 c8		 xor	 ecx, eax
  0001a	e8 00 00 00 00	 call	 @__security_check_cookie@4
  0001f	8b 4a fc	 mov	 ecx, DWORD PTR [edx-4]
  00022	33 c8		 xor	 ecx, eax
  00024	e8 00 00 00 00	 call	 @__security_check_cookie@4
  00029	b8 00 00 00 00	 mov	 eax, OFFSET __ehfuncinfo$?SetReturnState@ioTargetTrace16Dummy@@AAEXPAVioBaseChar@@@Z
  0002e	e9 00 00 00 00	 jmp	 ___CxxFrameHandler3
text$x	ENDS
?SetReturnState@ioTargetTrace16Dummy@@AAEXPAVioBaseChar@@@Z ENDP ; ioTargetTrace16Dummy::SetReturnState
PUBLIC	?ProcessReturnState@ioTargetTrace16Dummy@@AAEXPAVioBaseChar@@@Z ; ioTargetTrace16Dummy::ProcessReturnState
EXTRN	?SendDieState@ioDummyChar@@QAEX_N@Z:PROC	; ioDummyChar::SendDieState
; Function compile flags: /Ogsp
;	COMDAT ?ProcessReturnState@ioTargetTrace16Dummy@@AAEXPAVioBaseChar@@@Z
_TEXT	SEGMENT
_pOwner$ = 8						; size = 4
?ProcessReturnState@ioTargetTrace16Dummy@@AAEXPAVioBaseChar@@@Z PROC ; ioTargetTrace16Dummy::ProcessReturnState, COMDAT
; _this$ = ecx

; 1136 : {

  00000	55		 push	 ebp
  00001	8b ec		 mov	 ebp, esp
  00003	57		 push	 edi
  00004	8b f9		 mov	 edi, ecx

; 1137 : 	if ( !pOwner || !pOwner->IsNeedProcess() )

  00006	8b 4d 08	 mov	 ecx, DWORD PTR _pOwner$[ebp]
  00009	85 c9		 test	 ecx, ecx
  0000b	74 3d		 je	 SHORT $LN2@ProcessRet
  0000d	8b 01		 mov	 eax, DWORD PTR [ecx]
  0000f	ff 90 00 01 00
	00		 call	 DWORD PTR [eax+256]
  00015	84 c0		 test	 al, al
  00017	74 31		 je	 SHORT $LN2@ProcessRet

; 1138 : 		return;
; 1139 : 
; 1140 : 	if ( m_dwReturnEndTime && m_dwReturnEndTime < FRAMEGETTIME() )

  00019	83 bf d0 14 00
	00 00		 cmp	 DWORD PTR [edi+5328], 0
  00020	56		 push	 esi
  00021	74 26		 je	 SHORT $LN6@ProcessRet
  00023	ff 15 00 00 00
	00		 call	 DWORD PTR __imp_?GetSingleton@ioFrameTimer@@SAAAV1@XZ
  00029	8b c8		 mov	 ecx, eax
  0002b	ff 15 00 00 00
	00		 call	 DWORD PTR __imp_?GetLoopSec@ioFrameTimer@@QBEKXZ
  00031	39 87 d0 14 00
	00		 cmp	 DWORD PTR [edi+5328], eax
  00037	73 10		 jae	 SHORT $LN6@ProcessRet

; 1141 : 	{
; 1142 : 		m_dwReturnEndTime = 0;

  00039	83 a7 d0 14 00
	00 00		 and	 DWORD PTR [edi+5328], 0

; 1143 : 		SendDieState( true );

  00040	6a 01		 push	 1
  00042	8b cf		 mov	 ecx, edi
  00044	e8 00 00 00 00	 call	 ?SendDieState@ioDummyChar@@QAEX_N@Z ; ioDummyChar::SendDieState
$LN6@ProcessRet:
  00049	5e		 pop	 esi
$LN2@ProcessRet:
  0004a	5f		 pop	 edi

; 1144 : 		return;
; 1145 : 	}
; 1146 : }

  0004b	5d		 pop	 ebp
  0004c	c2 04 00	 ret	 4
?ProcessReturnState@ioTargetTrace16Dummy@@AAEXPAVioBaseChar@@@Z ENDP ; ioTargetTrace16Dummy::ProcessReturnState
_TEXT	ENDS
PUBLIC	?size@?$vector@V?$basic_string@DU?$char_traits@D@std@@V?$allocator@D@2@@std@@V?$allocator@V?$basic_string@DU?$char_traits@D@std@@V?$allocator@D@2@@std@@@2@@std@@QBEIXZ ; std::vector<std::basic_string<char,std::char_traits<char>,std::allocator<char> >,std::allocator<std::basic_string<char,std::char_traits<char>,std::allocator<char> > > >::size
; Function compile flags: /Ogsp
; File c:\program files (x86)\microsoft visual studio 10.0\vc\include\vector
;	COMDAT ?size@?$vector@V?$basic_string@DU?$char_traits@D@std@@V?$allocator@D@2@@std@@V?$allocator@V?$basic_string@DU?$char_traits@D@std@@V?$allocator@D@2@@std@@@2@@std@@QBEIXZ
_TEXT	SEGMENT
?size@?$vector@V?$basic_string@DU?$char_traits@D@std@@V?$allocator@D@2@@std@@V?$allocator@V?$basic_string@DU?$char_traits@D@std@@V?$allocator@D@2@@std@@@2@@std@@QBEIXZ PROC ; std::vector<std::basic_string<char,std::char_traits<char>,std::allocator<char> >,std::allocator<std::basic_string<char,std::char_traits<char>,std::allocator<char> > > >::size, COMDAT
; _this$ = ecx

; 879  : 		return (this->_Mylast - this->_Myfirst);

  00000	8b 41 04	 mov	 eax, DWORD PTR [ecx+4]
  00003	2b 01		 sub	 eax, DWORD PTR [ecx]
  00005	6a 1c		 push	 28			; 0000001cH
  00007	99		 cdq
  00008	59		 pop	 ecx
  00009	f7 f9		 idiv	 ecx

; 880  : 		}

  0000b	c3		 ret	 0
?size@?$vector@V?$basic_string@DU?$char_traits@D@std@@V?$allocator@D@2@@std@@V?$allocator@V?$basic_string@DU?$char_traits@D@std@@V?$allocator@D@2@@std@@@2@@std@@QBEIXZ ENDP ; std::vector<std::basic_string<char,std::char_traits<char>,std::allocator<char> >,std::allocator<std::basic_string<char,std::char_traits<char>,std::allocator<char> > > >::size
_TEXT	ENDS
PUBLIC	??A?$vector@V?$basic_string@DU?$char_traits@D@std@@V?$allocator@D@2@@std@@V?$allocator@V?$basic_string@DU?$char_traits@D@std@@V?$allocator@D@2@@std@@@2@@std@@QBEABV?$basic_string@DU?$char_traits@D@std@@V?$allocator@D@2@@1@I@Z ; std::vector<std::basic_string<char,std::char_traits<char>,std::allocator<char> >,std::allocator<std::basic_string<char,std::char_traits<char>,std::allocator<char> > > >::operator[]
; Function compile flags: /Ogsp
;	COMDAT ??A?$vector@V?$basic_string@DU?$char_traits@D@std@@V?$allocator@D@2@@std@@V?$allocator@V?$basic_string@DU?$char_traits@D@std@@V?$allocator@D@2@@std@@@2@@std@@QBEABV?$basic_string@DU?$char_traits@D@std@@V?$allocator@D@2@@1@I@Z
_TEXT	SEGMENT
__Pos$ = 8						; size = 4
??A?$vector@V?$basic_string@DU?$char_traits@D@std@@V?$allocator@D@2@@std@@V?$allocator@V?$basic_string@DU?$char_traits@D@std@@V?$allocator@D@2@@std@@@2@@std@@QBEABV?$basic_string@DU?$char_traits@D@std@@V?$allocator@D@2@@1@I@Z PROC ; std::vector<std::basic_string<char,std::char_traits<char>,std::allocator<char> >,std::allocator<std::basic_string<char,std::char_traits<char>,std::allocator<char> > > >::operator[], COMDAT
; _this$ = ecx

; 912  : 		{	// subscript nonmutable sequence

  00000	55		 push	 ebp
  00001	8b ec		 mov	 ebp, esp

; 913  :  #if _ITERATOR_DEBUG_LEVEL == 2
; 914  : 		if (size() <= _Pos)
; 915  : 			{	// report error
; 916  : 			_DEBUG_ERROR("vector subscript out of range");
; 917  : 			_SCL_SECURE_OUT_OF_RANGE;
; 918  : 			}
; 919  : 
; 920  :  #elif _ITERATOR_DEBUG_LEVEL == 1
; 921  : 		_SCL_SECURE_VALIDATE_RANGE(_Pos < size());
; 922  :  #endif /* _ITERATOR_DEBUG_LEVEL */
; 923  : 
; 924  : 		return (*(this->_Myfirst + _Pos));

  00003	8b 45 08	 mov	 eax, DWORD PTR __Pos$[ebp]
  00006	6b c0 1c	 imul	 eax, 28			; 0000001cH
  00009	03 01		 add	 eax, DWORD PTR [ecx]

; 925  : 		}

  0000b	5d		 pop	 ebp
  0000c	c2 04 00	 ret	 4
??A?$vector@V?$basic_string@DU?$char_traits@D@std@@V?$allocator@D@2@@std@@V?$allocator@V?$basic_string@DU?$char_traits@D@std@@V?$allocator@D@2@@std@@@2@@std@@QBEABV?$basic_string@DU?$char_traits@D@std@@V?$allocator@D@2@@1@I@Z ENDP ; std::vector<std::basic_string<char,std::char_traits<char>,std::allocator<char> >,std::allocator<std::basic_string<char,std::char_traits<char>,std::allocator<char> > > >::operator[]
_TEXT	ENDS
PUBLIC	??A?$vector@UWeaponInfo@@V?$allocator@UWeaponInfo@@@std@@@std@@QBEABUWeaponInfo@@I@Z ; std::vector<WeaponInfo,std::allocator<WeaponInfo> >::operator[]
; Function compile flags: /Ogsp
;	COMDAT ??A?$vector@UWeaponInfo@@V?$allocator@UWeaponInfo@@@std@@@std@@QBEABUWeaponInfo@@I@Z
_TEXT	SEGMENT
__Pos$ = 8						; size = 4
??A?$vector@UWeaponInfo@@V?$allocator@UWeaponInfo@@@std@@@std@@QBEABUWeaponInfo@@I@Z PROC ; std::vector<WeaponInfo,std::allocator<WeaponInfo> >::operator[], COMDAT
; _this$ = ecx

; 912  : 		{	// subscript nonmutable sequence

  00000	55		 push	 ebp
  00001	8b ec		 mov	 ebp, esp

; 913  :  #if _ITERATOR_DEBUG_LEVEL == 2
; 914  : 		if (size() <= _Pos)
; 915  : 			{	// report error
; 916  : 			_DEBUG_ERROR("vector subscript out of range");
; 917  : 			_SCL_SECURE_OUT_OF_RANGE;
; 918  : 			}
; 919  : 
; 920  :  #elif _ITERATOR_DEBUG_LEVEL == 1
; 921  : 		_SCL_SECURE_VALIDATE_RANGE(_Pos < size());
; 922  :  #endif /* _ITERATOR_DEBUG_LEVEL */
; 923  : 
; 924  : 		return (*(this->_Myfirst + _Pos));

  00003	8b 45 08	 mov	 eax, DWORD PTR __Pos$[ebp]
  00006	6b c0 28	 imul	 eax, 40			; 00000028H
  00009	03 01		 add	 eax, DWORD PTR [ecx]

; 925  : 		}

  0000b	5d		 pop	 ebp
  0000c	c2 04 00	 ret	 4
??A?$vector@UWeaponInfo@@V?$allocator@UWeaponInfo@@@std@@@std@@QBEABUWeaponInfo@@I@Z ENDP ; std::vector<WeaponInfo,std::allocator<WeaponInfo> >::operator[]
_TEXT	ENDS
PUBLIC	?empty@?$vector@UExtraAniJump@@V?$allocator@UExtraAniJump@@@std@@@std@@QBE_NXZ ; std::vector<ExtraAniJump,std::allocator<ExtraAniJump> >::empty
; Function compile flags: /Ogsp
;	COMDAT ?empty@?$vector@UExtraAniJump@@V?$allocator@UExtraAniJump@@@std@@@std@@QBE_NXZ
_TEXT	SEGMENT
?empty@?$vector@UExtraAniJump@@V?$allocator@UExtraAniJump@@@std@@@std@@QBE_NXZ PROC ; std::vector<ExtraAniJump,std::allocator<ExtraAniJump> >::empty, COMDAT
; _this$ = ecx

; 889  : 		return (this->_Myfirst == this->_Mylast);

  00000	8b 01		 mov	 eax, DWORD PTR [ecx]
  00002	2b 41 04	 sub	 eax, DWORD PTR [ecx+4]
  00005	f7 d8		 neg	 eax
  00007	1b c0		 sbb	 eax, eax
  00009	40		 inc	 eax

; 890  : 		}

  0000a	c3		 ret	 0
?empty@?$vector@UExtraAniJump@@V?$allocator@UExtraAniJump@@@std@@@std@@QBE_NXZ ENDP ; std::vector<ExtraAniJump,std::allocator<ExtraAniJump> >::empty
_TEXT	ENDS
PUBLIC	??A?$vector@UExtraAniJump@@V?$allocator@UExtraAniJump@@@std@@@std@@QAEAAUExtraAniJump@@I@Z ; std::vector<ExtraAniJump,std::allocator<ExtraAniJump> >::operator[]
; Function compile flags: /Ogsp
;	COMDAT ??A?$vector@UExtraAniJump@@V?$allocator@UExtraAniJump@@@std@@@std@@QAEAAUExtraAniJump@@I@Z
_TEXT	SEGMENT
__Pos$ = 8						; size = 4
??A?$vector@UExtraAniJump@@V?$allocator@UExtraAniJump@@@std@@@std@@QAEAAUExtraAniJump@@I@Z PROC ; std::vector<ExtraAniJump,std::allocator<ExtraAniJump> >::operator[], COMDAT
; _this$ = ecx

; 928  : 		{	// subscript mutable sequence

  00000	55		 push	 ebp
  00001	8b ec		 mov	 ebp, esp

; 929  :  #if _ITERATOR_DEBUG_LEVEL == 2
; 930  : 		if (size() <= _Pos)
; 931  : 			{	// report error
; 932  : 			_DEBUG_ERROR("vector subscript out of range");
; 933  : 			_SCL_SECURE_OUT_OF_RANGE;
; 934  : 			}
; 935  : 
; 936  :  #elif _ITERATOR_DEBUG_LEVEL == 1
; 937  : 		_SCL_SECURE_VALIDATE_RANGE(_Pos < size());
; 938  :  #endif /* _ITERATOR_DEBUG_LEVEL */
; 939  : 
; 940  : 		return (*(this->_Myfirst + _Pos));

  00003	8b 01		 mov	 eax, DWORD PTR [ecx]
  00005	8b 4d 08	 mov	 ecx, DWORD PTR __Pos$[ebp]
  00008	8d 04 c8	 lea	 eax, DWORD PTR [eax+ecx*8]

; 941  : 		}

  0000b	5d		 pop	 ebp
  0000c	c2 04 00	 ret	 4
??A?$vector@UExtraAniJump@@V?$allocator@UExtraAniJump@@@std@@@std@@QAEAAUExtraAniJump@@I@Z ENDP ; std::vector<ExtraAniJump,std::allocator<ExtraAniJump> >::operator[]
_TEXT	ENDS
PUBLIC	??0?$_Vector_const_iterator@V?$_Vector_val@PAVioBaseChar@@V?$allocator@PAVioBaseChar@@@std@@@std@@@std@@QAE@XZ ; std::_Vector_const_iterator<std::_Vector_val<ioBaseChar *,std::allocator<ioBaseChar *> > >::_Vector_const_iterator<std::_Vector_val<ioBaseChar *,std::allocator<ioBaseChar *> > >
; Function compile flags: /Ogsp
;	COMDAT ??0?$_Vector_const_iterator@V?$_Vector_val@PAVioBaseChar@@V?$allocator@PAVioBaseChar@@@std@@@std@@@std@@QAE@XZ
_TEXT	SEGMENT
??0?$_Vector_const_iterator@V?$_Vector_val@PAVioBaseChar@@V?$allocator@PAVioBaseChar@@@std@@@std@@@std@@QAE@XZ PROC ; std::_Vector_const_iterator<std::_Vector_val<ioBaseChar *,std::allocator<ioBaseChar *> > >::_Vector_const_iterator<std::_Vector_val<ioBaseChar *,std::allocator<ioBaseChar *> > >, COMDAT
; _this$ = ecx

; 40   : 		{	// construct with null pointer

  00000	8b c1		 mov	 eax, ecx
  00002	83 20 00	 and	 DWORD PTR [eax], 0

; 41   : 		}

  00005	c3		 ret	 0
??0?$_Vector_const_iterator@V?$_Vector_val@PAVioBaseChar@@V?$allocator@PAVioBaseChar@@@std@@@std@@@std@@QAE@XZ ENDP ; std::_Vector_const_iterator<std::_Vector_val<ioBaseChar *,std::allocator<ioBaseChar *> > >::_Vector_const_iterator<std::_Vector_val<ioBaseChar *,std::allocator<ioBaseChar *> > >
_TEXT	ENDS
PUBLIC	??D?$_Vector_const_iterator@V?$_Vector_val@PAVioBaseChar@@V?$allocator@PAVioBaseChar@@@std@@@std@@@std@@QBEABQAVioBaseChar@@XZ ; std::_Vector_const_iterator<std::_Vector_val<ioBaseChar *,std::allocator<ioBaseChar *> > >::operator*
; Function compile flags: /Ogsp
;	COMDAT ??D?$_Vector_const_iterator@V?$_Vector_val@PAVioBaseChar@@V?$allocator@PAVioBaseChar@@@std@@@std@@@std@@QBEABQAVioBaseChar@@XZ
_TEXT	SEGMENT
??D?$_Vector_const_iterator@V?$_Vector_val@PAVioBaseChar@@V?$allocator@PAVioBaseChar@@@std@@@std@@@std@@QBEABQAVioBaseChar@@XZ PROC ; std::_Vector_const_iterator<std::_Vector_val<ioBaseChar *,std::allocator<ioBaseChar *> > >::operator*, COMDAT
; _this$ = ecx

; 64   :  #if _ITERATOR_DEBUG_LEVEL == 2
; 65   : 		if (this->_Getcont() == 0
; 66   : 			|| this->_Ptr == 0
; 67   : 			|| this->_Ptr < ((_Myvec *)this->_Getcont())->_Myfirst
; 68   : 			|| ((_Myvec *)this->_Getcont())->_Mylast <= this->_Ptr)
; 69   : 			{	// report error
; 70   : 			_DEBUG_ERROR("vector iterator not dereferencable");
; 71   : 			_SCL_SECURE_OUT_OF_RANGE;
; 72   : 			}
; 73   : 
; 74   :  #elif _ITERATOR_DEBUG_LEVEL == 1
; 75   : 		_SCL_SECURE_VALIDATE(this->_Getcont() != 0);
; 76   : 		_SCL_SECURE_VALIDATE_RANGE(
; 77   : 			this->_Ptr != 0
; 78   : 			&& ((_Myvec *)this->_Getcont())->_Myfirst <= this->_Ptr
; 79   : 			&& this->_Ptr < ((_Myvec *)this->_Getcont())->_Mylast);
; 80   :  #endif /* _ITERATOR_DEBUG_LEVEL */
; 81   : 
; 82   : 		__analysis_assume(this->_Ptr != 0);
; 83   : 
; 84   : 		return (*this->_Ptr);

  00000	8b 01		 mov	 eax, DWORD PTR [ecx]

; 85   : 		}

  00002	c3		 ret	 0
??D?$_Vector_const_iterator@V?$_Vector_val@PAVioBaseChar@@V?$allocator@PAVioBaseChar@@@std@@@std@@@std@@QBEABQAVioBaseChar@@XZ ENDP ; std::_Vector_const_iterator<std::_Vector_val<ioBaseChar *,std::allocator<ioBaseChar *> > >::operator*
_TEXT	ENDS
PUBLIC	??E?$_Vector_const_iterator@V?$_Vector_val@PAVioBaseChar@@V?$allocator@PAVioBaseChar@@@std@@@std@@@std@@QAEAAV01@XZ ; std::_Vector_const_iterator<std::_Vector_val<ioBaseChar *,std::allocator<ioBaseChar *> > >::operator++
; Function compile flags: /Ogsp
;	COMDAT ??E?$_Vector_const_iterator@V?$_Vector_val@PAVioBaseChar@@V?$allocator@PAVioBaseChar@@@std@@@std@@@std@@QAEAAV01@XZ
_TEXT	SEGMENT
??E?$_Vector_const_iterator@V?$_Vector_val@PAVioBaseChar@@V?$allocator@PAVioBaseChar@@@std@@@std@@@std@@QAEAAV01@XZ PROC ; std::_Vector_const_iterator<std::_Vector_val<ioBaseChar *,std::allocator<ioBaseChar *> > >::operator++, COMDAT
; _this$ = ecx

; 93   : 		{	// preincrement

  00000	8b c1		 mov	 eax, ecx

; 94   :  #if _ITERATOR_DEBUG_LEVEL == 2
; 95   : 		if (this->_Getcont() == 0
; 96   : 			|| this->_Ptr == 0
; 97   : 			|| ((_Myvec *)this->_Getcont())->_Mylast <= this->_Ptr)
; 98   : 			{	// report error
; 99   : 			_DEBUG_ERROR("vector iterator not incrementable");
; 100  : 			_SCL_SECURE_OUT_OF_RANGE;
; 101  : 			}
; 102  : 
; 103  :  #elif _ITERATOR_DEBUG_LEVEL == 1
; 104  : 		_SCL_SECURE_VALIDATE(this->_Getcont() != 0);
; 105  : 		_SCL_SECURE_VALIDATE_RANGE(
; 106  : 			this->_Ptr != 0
; 107  : 			&& this->_Ptr < ((_Myvec *)this->_Getcont())->_Mylast);
; 108  :  #endif /* _ITERATOR_DEBUG_LEVEL */
; 109  : 
; 110  : 		++this->_Ptr;

  00002	83 00 04	 add	 DWORD PTR [eax], 4

; 111  : 		return (*this);
; 112  : 		}

  00005	c3		 ret	 0
??E?$_Vector_const_iterator@V?$_Vector_val@PAVioBaseChar@@V?$allocator@PAVioBaseChar@@@std@@@std@@@std@@QAEAAV01@XZ ENDP ; std::_Vector_const_iterator<std::_Vector_val<ioBaseChar *,std::allocator<ioBaseChar *> > >::operator++
_TEXT	ENDS
PUBLIC	??8?$_Tree_const_iterator@V?$_Tree_val@V?$_Tmap_traits@HUtagDummyAttackInfo@@U?$less@H@std@@V?$allocator@U?$pair@$$CBHUtagDummyAttackInfo@@@std@@@3@$0A@@std@@@std@@@std@@QBE_NABV01@@Z ; std::_Tree_const_iterator<std::_Tree_val<std::_Tmap_traits<int,tagDummyAttackInfo,std::less<int>,std::allocator<std::pair<int const ,tagDummyAttackInfo> >,0> > >::operator==
; Function compile flags: /Ogsp
; File c:\program files (x86)\microsoft visual studio 10.0\vc\include\xtree
;	COMDAT ??8?$_Tree_const_iterator@V?$_Tree_val@V?$_Tmap_traits@HUtagDummyAttackInfo@@U?$less@H@std@@V?$allocator@U?$pair@$$CBHUtagDummyAttackInfo@@@std@@@3@$0A@@std@@@std@@@std@@QBE_NABV01@@Z
_TEXT	SEGMENT
__Right$ = 8						; size = 4
??8?$_Tree_const_iterator@V?$_Tree_val@V?$_Tmap_traits@HUtagDummyAttackInfo@@U?$less@H@std@@V?$allocator@U?$pair@$$CBHUtagDummyAttackInfo@@@std@@@3@$0A@@std@@@std@@@std@@QBE_NABV01@@Z PROC ; std::_Tree_const_iterator<std::_Tree_val<std::_Tmap_traits<int,tagDummyAttackInfo,std::less<int>,std::allocator<std::pair<int const ,tagDummyAttackInfo> >,0> > >::operator==, COMDAT
; _this$ = ecx

; 316  : 		{	// test for iterator equality

  00000	55		 push	 ebp
  00001	8b ec		 mov	 ebp, esp

; 317  :  #if _ITERATOR_DEBUG_LEVEL == 2
; 318  : 		if (this->_Getcont() == 0
; 319  : 			|| this->_Getcont() != _Right._Getcont())
; 320  : 			{	// report error
; 321  : 			_DEBUG_ERROR("map/set iterators incompatible");
; 322  : 			_SCL_SECURE_INVALID_ARGUMENT;
; 323  : 			}
; 324  : 
; 325  :  #elif _ITERATOR_DEBUG_LEVEL == 1
; 326  : 		_SCL_SECURE_VALIDATE(this->_Getcont() != 0
; 327  : 			&& this->_Getcont() == _Right._Getcont());
; 328  :  #endif /* _ITERATOR_DEBUG_LEVEL */
; 329  : 
; 330  : 		return (this->_Ptr == _Right._Ptr);

  00003	8b 01		 mov	 eax, DWORD PTR [ecx]
  00005	8b 4d 08	 mov	 ecx, DWORD PTR __Right$[ebp]
  00008	2b 01		 sub	 eax, DWORD PTR [ecx]
  0000a	f7 d8		 neg	 eax
  0000c	1b c0		 sbb	 eax, eax
  0000e	40		 inc	 eax

; 331  : 		}

  0000f	5d		 pop	 ebp
  00010	c2 04 00	 ret	 4
??8?$_Tree_const_iterator@V?$_Tree_val@V?$_Tmap_traits@HUtagDummyAttackInfo@@U?$less@H@std@@V?$allocator@U?$pair@$$CBHUtagDummyAttackInfo@@@std@@@3@$0A@@std@@@std@@@std@@QBE_NABV01@@Z ENDP ; std::_Tree_const_iterator<std::_Tree_val<std::_Tmap_traits<int,tagDummyAttackInfo,std::less<int>,std::allocator<std::pair<int const ,tagDummyAttackInfo> >,0> > >::operator==
_TEXT	ENDS
PUBLIC	?size@?$vector@PBUAniEventTime@@V?$allocator@PBUAniEventTime@@@std@@@std@@QBEIXZ ; std::vector<AniEventTime const *,std::allocator<AniEventTime const *> >::size
; Function compile flags: /Ogsp
; File c:\program files (x86)\microsoft visual studio 10.0\vc\include\vector
;	COMDAT ?size@?$vector@PBUAniEventTime@@V?$allocator@PBUAniEventTime@@@std@@@std@@QBEIXZ
_TEXT	SEGMENT
?size@?$vector@PBUAniEventTime@@V?$allocator@PBUAniEventTime@@@std@@@std@@QBEIXZ PROC ; std::vector<AniEventTime const *,std::allocator<AniEventTime const *> >::size, COMDAT
; _this$ = ecx

; 879  : 		return (this->_Mylast - this->_Myfirst);

  00000	8b 41 04	 mov	 eax, DWORD PTR [ecx+4]
  00003	2b 01		 sub	 eax, DWORD PTR [ecx]
  00005	c1 f8 02	 sar	 eax, 2

; 880  : 		}

  00008	c3		 ret	 0
?size@?$vector@PBUAniEventTime@@V?$allocator@PBUAniEventTime@@@std@@@std@@QBEIXZ ENDP ; std::vector<AniEventTime const *,std::allocator<AniEventTime const *> >::size
_TEXT	ENDS
PUBLIC	??R?$less@H@std@@QBE_NABH0@Z			; std::less<int>::operator()
; Function compile flags: /Ogsp
; File c:\program files (x86)\microsoft visual studio 10.0\vc\include\xfunctional
;	COMDAT ??R?$less@H@std@@QBE_NABH0@Z
_TEXT	SEGMENT
__Left$ = 8						; size = 4
__Right$ = 12						; size = 4
??R?$less@H@std@@QBE_NABH0@Z PROC			; std::less<int>::operator(), COMDAT
; _this$ = ecx

; 124  : 		{	// apply operator< to operands

  00000	55		 push	 ebp
  00001	8b ec		 mov	 ebp, esp

; 125  : 		return (_Left < _Right);

  00003	8b 45 08	 mov	 eax, DWORD PTR __Left$[ebp]
  00006	8b 00		 mov	 eax, DWORD PTR [eax]
  00008	8b 55 0c	 mov	 edx, DWORD PTR __Right$[ebp]
  0000b	33 c9		 xor	 ecx, ecx
  0000d	3b 02		 cmp	 eax, DWORD PTR [edx]
  0000f	0f 9c c0	 setl	 al

; 126  : 		}

  00012	5d		 pop	 ebp
  00013	c2 08 00	 ret	 8
??R?$less@H@std@@QBE_NABH0@Z ENDP			; std::less<int>::operator()
_TEXT	ENDS
PUBLIC	?_Nextnode@?$_List_val@UFireTime@@V?$allocator@UFireTime@@@std@@@std@@SAAAPAU_Node@?$_List_nod@UFireTime@@V?$allocator@UFireTime@@@std@@@2@PAU342@@Z ; std::_List_val<FireTime,std::allocator<FireTime> >::_Nextnode
; Function compile flags: /Ogsp
; File c:\program files (x86)\microsoft visual studio 10.0\vc\include\list
;	COMDAT ?_Nextnode@?$_List_val@UFireTime@@V?$allocator@UFireTime@@@std@@@std@@SAAAPAU_Node@?$_List_nod@UFireTime@@V?$allocator@UFireTime@@@std@@@2@PAU342@@Z
_TEXT	SEGMENT
__Pnode$ = 8						; size = 4
?_Nextnode@?$_List_val@UFireTime@@V?$allocator@UFireTime@@@std@@@std@@SAAAPAU_Node@?$_List_nod@UFireTime@@V?$allocator@UFireTime@@@std@@@2@PAU342@@Z PROC ; std::_List_val<FireTime,std::allocator<FireTime> >::_Nextnode, COMDAT

; 560  : 		{	// return reference to successor pointer in node

  00000	55		 push	 ebp
  00001	8b ec		 mov	 ebp, esp

; 561  : 		return ((_Nodepref)(*_Pnode)._Next);

  00003	8b 45 08	 mov	 eax, DWORD PTR __Pnode$[ebp]

; 562  : 		}

  00006	5d		 pop	 ebp
  00007	c3		 ret	 0
?_Nextnode@?$_List_val@UFireTime@@V?$allocator@UFireTime@@@std@@@std@@SAAAPAU_Node@?$_List_nod@UFireTime@@V?$allocator@UFireTime@@@std@@@2@PAU342@@Z ENDP ; std::_List_val<FireTime,std::allocator<FireTime> >::_Nextnode
_TEXT	ENDS
PUBLIC	?_Prevnode@?$_List_val@UFireTime@@V?$allocator@UFireTime@@@std@@@std@@SAAAPAU_Node@?$_List_nod@UFireTime@@V?$allocator@UFireTime@@@std@@@2@PAU342@@Z ; std::_List_val<FireTime,std::allocator<FireTime> >::_Prevnode
; Function compile flags: /Ogsp
;	COMDAT ?_Prevnode@?$_List_val@UFireTime@@V?$allocator@UFireTime@@@std@@@std@@SAAAPAU_Node@?$_List_nod@UFireTime@@V?$allocator@UFireTime@@@std@@@2@PAU342@@Z
_TEXT	SEGMENT
__Pnode$ = 8						; size = 4
?_Prevnode@?$_List_val@UFireTime@@V?$allocator@UFireTime@@@std@@@std@@SAAAPAU_Node@?$_List_nod@UFireTime@@V?$allocator@UFireTime@@@std@@@2@PAU342@@Z PROC ; std::_List_val<FireTime,std::allocator<FireTime> >::_Prevnode, COMDAT

; 565  : 		{	// return reference to predecessor pointer in node

  00000	55		 push	 ebp
  00001	8b ec		 mov	 ebp, esp

; 566  : 		return ((_Nodepref)(*_Pnode)._Prev);

  00003	8b 45 08	 mov	 eax, DWORD PTR __Pnode$[ebp]
  00006	83 c0 04	 add	 eax, 4

; 567  : 		}

  00009	5d		 pop	 ebp
  0000a	c3		 ret	 0
?_Prevnode@?$_List_val@UFireTime@@V?$allocator@UFireTime@@@std@@@std@@SAAAPAU_Node@?$_List_nod@UFireTime@@V?$allocator@UFireTime@@@std@@@2@PAU342@@Z ENDP ; std::_List_val<FireTime,std::allocator<FireTime> >::_Prevnode
_TEXT	ENDS
PUBLIC	?deallocate@?$allocator@U_Node@?$_List_nod@UFireTime@@V?$allocator@UFireTime@@@std@@@std@@@std@@QAEXPAU_Node@?$_List_nod@UFireTime@@V?$allocator@UFireTime@@@std@@@2@I@Z ; std::allocator<std::_List_nod<FireTime,std::allocator<FireTime> >::_Node>::deallocate
; Function compile flags: /Ogsp
; File c:\program files (x86)\microsoft visual studio 10.0\vc\include\xmemory
;	COMDAT ?deallocate@?$allocator@U_Node@?$_List_nod@UFireTime@@V?$allocator@UFireTime@@@std@@@std@@@std@@QAEXPAU_Node@?$_List_nod@UFireTime@@V?$allocator@UFireTime@@@std@@@2@I@Z
_TEXT	SEGMENT
__Ptr$ = 8						; size = 4
___formal$ = 12						; size = 4
?deallocate@?$allocator@U_Node@?$_List_nod@UFireTime@@V?$allocator@UFireTime@@@std@@@std@@@std@@QAEXPAU_Node@?$_List_nod@UFireTime@@V?$allocator@UFireTime@@@std@@@2@I@Z PROC ; std::allocator<std::_List_nod<FireTime,std::allocator<FireTime> >::_Node>::deallocate, COMDAT
; _this$ = ecx

; 181  : 		{	// deallocate object at _Ptr, ignore size

  00000	55		 push	 ebp
  00001	8b ec		 mov	 ebp, esp

; 182  : 		::operator delete(_Ptr);

  00003	ff 75 08	 push	 DWORD PTR __Ptr$[ebp]
  00006	e8 00 00 00 00	 call	 ??3@YAXPAX@Z		; operator delete
  0000b	59		 pop	 ecx

; 183  : 		}

  0000c	5d		 pop	 ebp
  0000d	c2 08 00	 ret	 8
?deallocate@?$allocator@U_Node@?$_List_nod@UFireTime@@V?$allocator@UFireTime@@@std@@@std@@@std@@QAEXPAU_Node@?$_List_nod@UFireTime@@V?$allocator@UFireTime@@@std@@@2@I@Z ENDP ; std::allocator<std::_List_nod<FireTime,std::allocator<FireTime> >::_Node>::deallocate
_TEXT	ENDS
PUBLIC	?_Inside@?$vector@UExtraAniJump@@V?$allocator@UExtraAniJump@@@std@@@std@@IBE_NPBUExtraAniJump@@@Z ; std::vector<ExtraAniJump,std::allocator<ExtraAniJump> >::_Inside
; Function compile flags: /Ogsp
; File c:\program files (x86)\microsoft visual studio 10.0\vc\include\vector
;	COMDAT ?_Inside@?$vector@UExtraAniJump@@V?$allocator@UExtraAniJump@@@std@@@std@@IBE_NPBUExtraAniJump@@@Z
_TEXT	SEGMENT
__Ptr$ = 8						; size = 4
?_Inside@?$vector@UExtraAniJump@@V?$allocator@UExtraAniJump@@@std@@@std@@IBE_NPBUExtraAniJump@@@Z PROC ; std::vector<ExtraAniJump,std::allocator<ExtraAniJump> >::_Inside, COMDAT
; _this$ = ecx

; 1285 : 		{	// test if _Ptr points inside vector

  00000	55		 push	 ebp
  00001	8b ec		 mov	 ebp, esp

; 1286 : 		return (_Ptr < this->_Mylast && this->_Myfirst <= _Ptr);

  00003	8b 45 08	 mov	 eax, DWORD PTR __Ptr$[ebp]
  00006	3b 41 04	 cmp	 eax, DWORD PTR [ecx+4]
  00009	73 09		 jae	 SHORT $LN3@Inside
  0000b	39 01		 cmp	 DWORD PTR [ecx], eax
  0000d	77 05		 ja	 SHORT $LN3@Inside
  0000f	33 c0		 xor	 eax, eax
  00011	40		 inc	 eax
  00012	eb 02		 jmp	 SHORT $LN4@Inside
$LN3@Inside:
  00014	33 c0		 xor	 eax, eax
$LN4@Inside:

; 1287 : 		}

  00016	5d		 pop	 ebp
  00017	c2 04 00	 ret	 4
?_Inside@?$vector@UExtraAniJump@@V?$allocator@UExtraAniJump@@@std@@@std@@IBE_NPBUExtraAniJump@@@Z ENDP ; std::vector<ExtraAniJump,std::allocator<ExtraAniJump> >::_Inside
_TEXT	ENDS
PUBLIC	?_Orphan_range@?$vector@UExtraAniJump@@V?$allocator@UExtraAniJump@@@std@@@std@@IBEXPAUExtraAniJump@@0@Z ; std::vector<ExtraAniJump,std::allocator<ExtraAniJump> >::_Orphan_range
; Function compile flags: /Ogsp
;	COMDAT ?_Orphan_range@?$vector@UExtraAniJump@@V?$allocator@UExtraAniJump@@@std@@@std@@IBEXPAUExtraAniJump@@0@Z
_TEXT	SEGMENT
___formal$ = 8						; size = 4
___formal$ = 12						; size = 4
?_Orphan_range@?$vector@UExtraAniJump@@V?$allocator@UExtraAniJump@@@std@@@std@@IBEXPAUExtraAniJump@@0@Z PROC ; std::vector<ExtraAniJump,std::allocator<ExtraAniJump> >::_Orphan_range, COMDAT
; _this$ = ecx

; 1454 : 		}

  00000	c2 08 00	 ret	 8
?_Orphan_range@?$vector@UExtraAniJump@@V?$allocator@UExtraAniJump@@@std@@@std@@IBEXPAUExtraAniJump@@0@Z ENDP ; std::vector<ExtraAniJump,std::allocator<ExtraAniJump> >::_Orphan_range
_TEXT	ENDS
PUBLIC	?_Nextnode@?$_List_val@MV?$allocator@M@std@@@std@@SAAAPAU_Node@?$_List_nod@MV?$allocator@M@std@@@2@PAU342@@Z ; std::_List_val<float,std::allocator<float> >::_Nextnode
; Function compile flags: /Ogsp
; File c:\program files (x86)\microsoft visual studio 10.0\vc\include\list
;	COMDAT ?_Nextnode@?$_List_val@MV?$allocator@M@std@@@std@@SAAAPAU_Node@?$_List_nod@MV?$allocator@M@std@@@2@PAU342@@Z
_TEXT	SEGMENT
__Pnode$ = 8						; size = 4
?_Nextnode@?$_List_val@MV?$allocator@M@std@@@std@@SAAAPAU_Node@?$_List_nod@MV?$allocator@M@std@@@2@PAU342@@Z PROC ; std::_List_val<float,std::allocator<float> >::_Nextnode, COMDAT

; 560  : 		{	// return reference to successor pointer in node

  00000	55		 push	 ebp
  00001	8b ec		 mov	 ebp, esp

; 561  : 		return ((_Nodepref)(*_Pnode)._Next);

  00003	8b 45 08	 mov	 eax, DWORD PTR __Pnode$[ebp]

; 562  : 		}

  00006	5d		 pop	 ebp
  00007	c3		 ret	 0
?_Nextnode@?$_List_val@MV?$allocator@M@std@@@std@@SAAAPAU_Node@?$_List_nod@MV?$allocator@M@std@@@2@PAU342@@Z ENDP ; std::_List_val<float,std::allocator<float> >::_Nextnode
_TEXT	ENDS
PUBLIC	??D?$_Vector_const_iterator@V?$_Vector_val@KV?$allocator@K@std@@@std@@@std@@QBEABKXZ ; std::_Vector_const_iterator<std::_Vector_val<unsigned long,std::allocator<unsigned long> > >::operator*
; Function compile flags: /Ogsp
; File c:\program files (x86)\microsoft visual studio 10.0\vc\include\vector
;	COMDAT ??D?$_Vector_const_iterator@V?$_Vector_val@KV?$allocator@K@std@@@std@@@std@@QBEABKXZ
_TEXT	SEGMENT
??D?$_Vector_const_iterator@V?$_Vector_val@KV?$allocator@K@std@@@std@@@std@@QBEABKXZ PROC ; std::_Vector_const_iterator<std::_Vector_val<unsigned long,std::allocator<unsigned long> > >::operator*, COMDAT
; _this$ = ecx

; 64   :  #if _ITERATOR_DEBUG_LEVEL == 2
; 65   : 		if (this->_Getcont() == 0
; 66   : 			|| this->_Ptr == 0
; 67   : 			|| this->_Ptr < ((_Myvec *)this->_Getcont())->_Myfirst
; 68   : 			|| ((_Myvec *)this->_Getcont())->_Mylast <= this->_Ptr)
; 69   : 			{	// report error
; 70   : 			_DEBUG_ERROR("vector iterator not dereferencable");
; 71   : 			_SCL_SECURE_OUT_OF_RANGE;
; 72   : 			}
; 73   : 
; 74   :  #elif _ITERATOR_DEBUG_LEVEL == 1
; 75   : 		_SCL_SECURE_VALIDATE(this->_Getcont() != 0);
; 76   : 		_SCL_SECURE_VALIDATE_RANGE(
; 77   : 			this->_Ptr != 0
; 78   : 			&& ((_Myvec *)this->_Getcont())->_Myfirst <= this->_Ptr
; 79   : 			&& this->_Ptr < ((_Myvec *)this->_Getcont())->_Mylast);
; 80   :  #endif /* _ITERATOR_DEBUG_LEVEL */
; 81   : 
; 82   : 		__analysis_assume(this->_Ptr != 0);
; 83   : 
; 84   : 		return (*this->_Ptr);

  00000	8b 01		 mov	 eax, DWORD PTR [ecx]

; 85   : 		}

  00002	c3		 ret	 0
??D?$_Vector_const_iterator@V?$_Vector_val@KV?$allocator@K@std@@@std@@@std@@QBEABKXZ ENDP ; std::_Vector_const_iterator<std::_Vector_val<unsigned long,std::allocator<unsigned long> > >::operator*
_TEXT	ENDS
PUBLIC	??0?$_Vector_const_iterator@V?$_Vector_val@PAVioBaseChar@@V?$allocator@PAVioBaseChar@@@std@@@std@@@std@@QAE@PAPAVioBaseChar@@PBU_Container_base0@1@@Z ; std::_Vector_const_iterator<std::_Vector_val<ioBaseChar *,std::allocator<ioBaseChar *> > >::_Vector_const_iterator<std::_Vector_val<ioBaseChar *,std::allocator<ioBaseChar *> > >
; Function compile flags: /Ogsp
;	COMDAT ??0?$_Vector_const_iterator@V?$_Vector_val@PAVioBaseChar@@V?$allocator@PAVioBaseChar@@@std@@@std@@@std@@QAE@PAPAVioBaseChar@@PBU_Container_base0@1@@Z
_TEXT	SEGMENT
__Parg$ = 8						; size = 4
__Pvector$ = 12						; size = 4
??0?$_Vector_const_iterator@V?$_Vector_val@PAVioBaseChar@@V?$allocator@PAVioBaseChar@@@std@@@std@@@std@@QAE@PAPAVioBaseChar@@PBU_Container_base0@1@@Z PROC ; std::_Vector_const_iterator<std::_Vector_val<ioBaseChar *,std::allocator<ioBaseChar *> > >::_Vector_const_iterator<std::_Vector_val<ioBaseChar *,std::allocator<ioBaseChar *> > >, COMDAT
; _this$ = ecx

; 45   : 		{	// construct with pointer _Parg

  00000	55		 push	 ebp
  00001	8b ec		 mov	 ebp, esp
  00003	8b c1		 mov	 eax, ecx
  00005	8b 4d 08	 mov	 ecx, DWORD PTR __Parg$[ebp]
  00008	89 08		 mov	 DWORD PTR [eax], ecx

; 46   : 		this->_Adopt(_Pvector);
; 47   : 		}

  0000a	5d		 pop	 ebp
  0000b	c2 08 00	 ret	 8
??0?$_Vector_const_iterator@V?$_Vector_val@PAVioBaseChar@@V?$allocator@PAVioBaseChar@@@std@@@std@@@std@@QAE@PAPAVioBaseChar@@PBU_Container_base0@1@@Z ENDP ; std::_Vector_const_iterator<std::_Vector_val<ioBaseChar *,std::allocator<ioBaseChar *> > >::_Vector_const_iterator<std::_Vector_val<ioBaseChar *,std::allocator<ioBaseChar *> > >
_TEXT	ENDS
PUBLIC	??E?$_List_const_iterator@V?$_List_val@UFireTime@@V?$allocator@UFireTime@@@std@@@std@@@std@@QAEAAV01@XZ ; std::_List_const_iterator<std::_List_val<FireTime,std::allocator<FireTime> > >::operator++
; Function compile flags: /Ogsp
; File c:\program files (x86)\microsoft visual studio 10.0\vc\include\list
;	COMDAT ??E?$_List_const_iterator@V?$_List_val@UFireTime@@V?$allocator@UFireTime@@@std@@@std@@@std@@QAEAAV01@XZ
_TEXT	SEGMENT
??E?$_List_const_iterator@V?$_List_val@UFireTime@@V?$allocator@UFireTime@@@std@@@std@@@std@@QAEAAV01@XZ PROC ; std::_List_const_iterator<std::_List_val<FireTime,std::allocator<FireTime> > >::operator++, COMDAT
; _this$ = ecx

; 221  : 		{	// preincrement

  00000	8b c1		 mov	 eax, ecx

; 222  :  #if _ITERATOR_DEBUG_LEVEL == 2
; 223  : 		if (this->_Getcont() == 0
; 224  : 			|| this->_Ptr == 0
; 225  : 			|| this->_Ptr == ((_Mylist *)this->_Getcont())->_Myhead)
; 226  : 			{	// report error
; 227  : 			_DEBUG_ERROR("list iterator not incrementable");
; 228  : 			_SCL_SECURE_OUT_OF_RANGE;
; 229  : 			}
; 230  : 
; 231  :  #elif _ITERATOR_DEBUG_LEVEL == 1
; 232  : 		_SCL_SECURE_VALIDATE(this->_Getcont() != 0 && this->_Ptr != 0);
; 233  : 		_SCL_SECURE_VALIDATE_RANGE(this->_Ptr !=
; 234  : 			((_Mylist *)this->_Getcont())->_Myhead);
; 235  :  #endif /* _ITERATOR_DEBUG_LEVEL */
; 236  : 
; 237  : 		this->_Ptr = _Mylist::_Nextnode(this->_Ptr);

  00002	8b 08		 mov	 ecx, DWORD PTR [eax]
  00004	8b 09		 mov	 ecx, DWORD PTR [ecx]
  00006	89 08		 mov	 DWORD PTR [eax], ecx

; 238  : 		return (*this);
; 239  : 		}

  00008	c3		 ret	 0
??E?$_List_const_iterator@V?$_List_val@UFireTime@@V?$allocator@UFireTime@@@std@@@std@@@std@@QAEAAV01@XZ ENDP ; std::_List_const_iterator<std::_List_val<FireTime,std::allocator<FireTime> > >::operator++
_TEXT	ENDS
PUBLIC	??E?$_List_const_iterator@V?$_List_val@UFireTime@@V?$allocator@UFireTime@@@std@@@std@@@std@@QAE?AV01@H@Z ; std::_List_const_iterator<std::_List_val<FireTime,std::allocator<FireTime> > >::operator++
; Function compile flags: /Ogsp
;	COMDAT ??E?$_List_const_iterator@V?$_List_val@UFireTime@@V?$allocator@UFireTime@@@std@@@std@@@std@@QAE?AV01@H@Z
_TEXT	SEGMENT
___$ReturnUdt$ = 8					; size = 4
___formal$ = 12						; size = 4
??E?$_List_const_iterator@V?$_List_val@UFireTime@@V?$allocator@UFireTime@@@std@@@std@@@std@@QAE?AV01@H@Z PROC ; std::_List_const_iterator<std::_List_val<FireTime,std::allocator<FireTime> > >::operator++, COMDAT
; _this$ = ecx

; 242  : 		{	// postincrement

  00000	55		 push	 ebp
  00001	8b ec		 mov	 ebp, esp

; 243  : 		_Myiter _Tmp = *this;

  00003	8b 11		 mov	 edx, DWORD PTR [ecx]
  00005	8b 45 08	 mov	 eax, DWORD PTR ___$ReturnUdt$[ebp]
  00008	89 10		 mov	 DWORD PTR [eax], edx

; 244  : 		++*this;

  0000a	8b 12		 mov	 edx, DWORD PTR [edx]
  0000c	89 11		 mov	 DWORD PTR [ecx], edx

; 245  : 		return (_Tmp);
; 246  : 		}

  0000e	5d		 pop	 ebp
  0000f	c2 08 00	 ret	 8
??E?$_List_const_iterator@V?$_List_val@UFireTime@@V?$allocator@UFireTime@@@std@@@std@@@std@@QAE?AV01@H@Z ENDP ; std::_List_const_iterator<std::_List_val<FireTime,std::allocator<FireTime> > >::operator++
_TEXT	ENDS
PUBLIC	??8?$_List_const_iterator@V?$_List_val@UFireTime@@V?$allocator@UFireTime@@@std@@@std@@@std@@QBE_NABV01@@Z ; std::_List_const_iterator<std::_List_val<FireTime,std::allocator<FireTime> > >::operator==
; Function compile flags: /Ogsp
;	COMDAT ??8?$_List_const_iterator@V?$_List_val@UFireTime@@V?$allocator@UFireTime@@@std@@@std@@@std@@QBE_NABV01@@Z
_TEXT	SEGMENT
__Right$ = 8						; size = 4
??8?$_List_const_iterator@V?$_List_val@UFireTime@@V?$allocator@UFireTime@@@std@@@std@@@std@@QBE_NABV01@@Z PROC ; std::_List_const_iterator<std::_List_val<FireTime,std::allocator<FireTime> > >::operator==, COMDAT
; _this$ = ecx

; 281  : 		{	// test for iterator equality

  00000	55		 push	 ebp
  00001	8b ec		 mov	 ebp, esp

; 282  :  #if _ITERATOR_DEBUG_LEVEL == 2
; 283  : 		if (this->_Getcont() == 0
; 284  : 			|| this->_Getcont() != _Right._Getcont())
; 285  : 			{	// report error
; 286  : 			_DEBUG_ERROR("list iterators incompatible");
; 287  : 			_SCL_SECURE_INVALID_ARGUMENT;
; 288  : 			}
; 289  : 
; 290  :  #elif _ITERATOR_DEBUG_LEVEL == 1
; 291  : 		_SCL_SECURE_VALIDATE(this->_Getcont() != 0
; 292  : 			&& this->_Getcont() == _Right._Getcont());
; 293  :  #endif /* _ITERATOR_DEBUG_LEVEL */
; 294  : 
; 295  : 		return (this->_Ptr == _Right._Ptr);

  00003	8b 01		 mov	 eax, DWORD PTR [ecx]
  00005	8b 4d 08	 mov	 ecx, DWORD PTR __Right$[ebp]
  00008	2b 01		 sub	 eax, DWORD PTR [ecx]
  0000a	f7 d8		 neg	 eax
  0000c	1b c0		 sbb	 eax, eax
  0000e	40		 inc	 eax

; 296  : 		}

  0000f	5d		 pop	 ebp
  00010	c2 04 00	 ret	 4
??8?$_List_const_iterator@V?$_List_val@UFireTime@@V?$allocator@UFireTime@@@std@@@std@@@std@@QBE_NABV01@@Z ENDP ; std::_List_const_iterator<std::_List_val<FireTime,std::allocator<FireTime> > >::operator==
_TEXT	ENDS
PUBLIC	?_Mynode@?$_List_unchecked_const_iterator@V?$_List_val@UFireTime@@V?$allocator@UFireTime@@@std@@@std@@U_Iterator_base0@2@@std@@QBEPAU_Node@?$_List_nod@UFireTime@@V?$allocator@UFireTime@@@std@@@2@XZ ; std::_List_unchecked_const_iterator<std::_List_val<FireTime,std::allocator<FireTime> >,std::_Iterator_base0>::_Mynode
; Function compile flags: /Ogsp
;	COMDAT ?_Mynode@?$_List_unchecked_const_iterator@V?$_List_val@UFireTime@@V?$allocator@UFireTime@@@std@@@std@@U_Iterator_base0@2@@std@@QBEPAU_Node@?$_List_nod@UFireTime@@V?$allocator@UFireTime@@@std@@@2@XZ
_TEXT	SEGMENT
?_Mynode@?$_List_unchecked_const_iterator@V?$_List_val@UFireTime@@V?$allocator@UFireTime@@@std@@@std@@U_Iterator_base0@2@@std@@QBEPAU_Node@?$_List_nod@UFireTime@@V?$allocator@UFireTime@@@std@@@2@XZ PROC ; std::_List_unchecked_const_iterator<std::_List_val<FireTime,std::allocator<FireTime> >,std::_Iterator_base0>::_Mynode, COMDAT
; _this$ = ecx

; 93   : 		return (_Ptr);

  00000	8b 01		 mov	 eax, DWORD PTR [ecx]

; 94   : 		}

  00002	c3		 ret	 0
?_Mynode@?$_List_unchecked_const_iterator@V?$_List_val@UFireTime@@V?$allocator@UFireTime@@@std@@@std@@U_Iterator_base0@2@@std@@QBEPAU_Node@?$_List_nod@UFireTime@@V?$allocator@UFireTime@@@std@@@2@XZ ENDP ; std::_List_unchecked_const_iterator<std::_List_val<FireTime,std::allocator<FireTime> >,std::_Iterator_base0>::_Mynode
_TEXT	ENDS
PUBLIC	?_Mynode@?$_Tree_unchecked_const_iterator@V?$_Tree_val@V?$_Tmap_traits@HUtagDummyAttackInfo@@U?$less@H@std@@V?$allocator@U?$pair@$$CBHUtagDummyAttackInfo@@@std@@@3@$0A@@std@@@std@@U_Iterator_base0@2@@std@@QBEPAU_Node@?$_Tree_nod@V?$_Tmap_traits@HUtagDummyAttackInfo@@U?$less@H@std@@V?$allocator@U?$pair@$$CBHUtagDummyAttackInfo@@@std@@@3@$0A@@std@@@2@XZ ; std::_Tree_unchecked_const_iterator<std::_Tree_val<std::_Tmap_traits<int,tagDummyAttackInfo,std::less<int>,std::allocator<std::pair<int const ,tagDummyAttackInfo> >,0> >,std::_Iterator_base0>::_Mynode
; Function compile flags: /Ogsp
; File c:\program files (x86)\microsoft visual studio 10.0\vc\include\xtree
;	COMDAT ?_Mynode@?$_Tree_unchecked_const_iterator@V?$_Tree_val@V?$_Tmap_traits@HUtagDummyAttackInfo@@U?$less@H@std@@V?$allocator@U?$pair@$$CBHUtagDummyAttackInfo@@@std@@@3@$0A@@std@@@std@@U_Iterator_base0@2@@std@@QBEPAU_Node@?$_Tree_nod@V?$_Tmap_traits@HUtagDummyAttackInfo@@U?$less@H@std@@V?$allocator@U?$pair@$$CBHUtagDummyAttackInfo@@@std@@@3@$0A@@std@@@2@XZ
_TEXT	SEGMENT
?_Mynode@?$_Tree_unchecked_const_iterator@V?$_Tree_val@V?$_Tmap_traits@HUtagDummyAttackInfo@@U?$less@H@std@@V?$allocator@U?$pair@$$CBHUtagDummyAttackInfo@@@std@@@3@$0A@@std@@@std@@U_Iterator_base0@2@@std@@QBEPAU_Node@?$_Tree_nod@V?$_Tmap_traits@HUtagDummyAttackInfo@@U?$less@H@std@@V?$allocator@U?$pair@$$CBHUtagDummyAttackInfo@@@std@@@3@$0A@@std@@@2@XZ PROC ; std::_Tree_unchecked_const_iterator<std::_Tree_val<std::_Tmap_traits<int,tagDummyAttackInfo,std::less<int>,std::allocator<std::pair<int const ,tagDummyAttackInfo> >,0> >,std::_Iterator_base0>::_Mynode, COMDAT
; _this$ = ecx

; 122  : 		return (_Ptr);

  00000	8b 01		 mov	 eax, DWORD PTR [ecx]

; 123  : 		}

  00002	c3		 ret	 0
?_Mynode@?$_Tree_unchecked_const_iterator@V?$_Tree_val@V?$_Tmap_traits@HUtagDummyAttackInfo@@U?$less@H@std@@V?$allocator@U?$pair@$$CBHUtagDummyAttackInfo@@@std@@@3@$0A@@std@@@std@@U_Iterator_base0@2@@std@@QBEPAU_Node@?$_Tree_nod@V?$_Tmap_traits@HUtagDummyAttackInfo@@U?$less@H@std@@V?$allocator@U?$pair@$$CBHUtagDummyAttackInfo@@@std@@@3@$0A@@std@@@2@XZ ENDP ; std::_Tree_unchecked_const_iterator<std::_Tree_val<std::_Tmap_traits<int,tagDummyAttackInfo,std::less<int>,std::allocator<std::pair<int const ,tagDummyAttackInfo> >,0> >,std::_Iterator_base0>::_Mynode
_TEXT	ENDS
PUBLIC	??1?$_Vector_val@PBUAniEventTime@@V?$allocator@PBUAniEventTime@@@std@@@std@@QAE@XZ ; std::_Vector_val<AniEventTime const *,std::allocator<AniEventTime const *> >::~_Vector_val<AniEventTime const *,std::allocator<AniEventTime const *> >
; Function compile flags: /Ogsp
; File c:\program files (x86)\microsoft visual studio 10.0\vc\include\vector
;	COMDAT ??1?$_Vector_val@PBUAniEventTime@@V?$allocator@PBUAniEventTime@@@std@@@std@@QAE@XZ
_TEXT	SEGMENT
??1?$_Vector_val@PBUAniEventTime@@V?$allocator@PBUAniEventTime@@@std@@@std@@QAE@XZ PROC ; std::_Vector_val<AniEventTime const *,std::allocator<AniEventTime const *> >::~_Vector_val<AniEventTime const *,std::allocator<AniEventTime const *> >, COMDAT
; _this$ = ecx

; 434  : 		}

  00000	c3		 ret	 0
??1?$_Vector_val@PBUAniEventTime@@V?$allocator@PBUAniEventTime@@@std@@@std@@QAE@XZ ENDP ; std::_Vector_val<AniEventTime const *,std::allocator<AniEventTime const *> >::~_Vector_val<AniEventTime const *,std::allocator<AniEventTime const *> >
_TEXT	ENDS
PUBLIC	??0?$allocator@PBUAniEventTime@@@std@@QAE@XZ	; std::allocator<AniEventTime const *>::allocator<AniEventTime const *>
; Function compile flags: /Ogsp
; File c:\program files (x86)\microsoft visual studio 10.0\vc\include\xmemory
;	COMDAT ??0?$allocator@PBUAniEventTime@@@std@@QAE@XZ
_TEXT	SEGMENT
??0?$allocator@PBUAniEventTime@@@std@@QAE@XZ PROC	; std::allocator<AniEventTime const *>::allocator<AniEventTime const *>, COMDAT
; _this$ = ecx

; 161  : 	_ALLOCATOR() _THROW0()

  00000	8b c1		 mov	 eax, ecx

; 162  : 		{	// construct default allocator (do nothing)
; 163  : 		}

  00002	c3		 ret	 0
??0?$allocator@PBUAniEventTime@@@std@@QAE@XZ ENDP	; std::allocator<AniEventTime const *>::allocator<AniEventTime const *>
_TEXT	ENDS
PUBLIC	??0?$_Vector_const_iterator@V?$_Vector_val@PBUAniEventTime@@V?$allocator@PBUAniEventTime@@@std@@@std@@@std@@QAE@XZ ; std::_Vector_const_iterator<std::_Vector_val<AniEventTime const *,std::allocator<AniEventTime const *> > >::_Vector_const_iterator<std::_Vector_val<AniEventTime const *,std::allocator<AniEventTime const *> > >
; Function compile flags: /Ogsp
; File c:\program files (x86)\microsoft visual studio 10.0\vc\include\vector
;	COMDAT ??0?$_Vector_const_iterator@V?$_Vector_val@PBUAniEventTime@@V?$allocator@PBUAniEventTime@@@std@@@std@@@std@@QAE@XZ
_TEXT	SEGMENT
??0?$_Vector_const_iterator@V?$_Vector_val@PBUAniEventTime@@V?$allocator@PBUAniEventTime@@@std@@@std@@@std@@QAE@XZ PROC ; std::_Vector_const_iterator<std::_Vector_val<AniEventTime const *,std::allocator<AniEventTime const *> > >::_Vector_const_iterator<std::_Vector_val<AniEventTime const *,std::allocator<AniEventTime const *> > >, COMDAT
; _this$ = ecx

; 40   : 		{	// construct with null pointer

  00000	8b c1		 mov	 eax, ecx
  00002	83 20 00	 and	 DWORD PTR [eax], 0

; 41   : 		}

  00005	c3		 ret	 0
??0?$_Vector_const_iterator@V?$_Vector_val@PBUAniEventTime@@V?$allocator@PBUAniEventTime@@@std@@@std@@@std@@QAE@XZ ENDP ; std::_Vector_const_iterator<std::_Vector_val<AniEventTime const *,std::allocator<AniEventTime const *> > >::_Vector_const_iterator<std::_Vector_val<AniEventTime const *,std::allocator<AniEventTime const *> > >
_TEXT	ENDS
PUBLIC	??D?$_Vector_const_iterator@V?$_Vector_val@PBUAniEventTime@@V?$allocator@PBUAniEventTime@@@std@@@std@@@std@@QBEABQBUAniEventTime@@XZ ; std::_Vector_const_iterator<std::_Vector_val<AniEventTime const *,std::allocator<AniEventTime const *> > >::operator*
; Function compile flags: /Ogsp
;	COMDAT ??D?$_Vector_const_iterator@V?$_Vector_val@PBUAniEventTime@@V?$allocator@PBUAniEventTime@@@std@@@std@@@std@@QBEABQBUAniEventTime@@XZ
_TEXT	SEGMENT
??D?$_Vector_const_iterator@V?$_Vector_val@PBUAniEventTime@@V?$allocator@PBUAniEventTime@@@std@@@std@@@std@@QBEABQBUAniEventTime@@XZ PROC ; std::_Vector_const_iterator<std::_Vector_val<AniEventTime const *,std::allocator<AniEventTime const *> > >::operator*, COMDAT
; _this$ = ecx

; 64   :  #if _ITERATOR_DEBUG_LEVEL == 2
; 65   : 		if (this->_Getcont() == 0
; 66   : 			|| this->_Ptr == 0
; 67   : 			|| this->_Ptr < ((_Myvec *)this->_Getcont())->_Myfirst
; 68   : 			|| ((_Myvec *)this->_Getcont())->_Mylast <= this->_Ptr)
; 69   : 			{	// report error
; 70   : 			_DEBUG_ERROR("vector iterator not dereferencable");
; 71   : 			_SCL_SECURE_OUT_OF_RANGE;
; 72   : 			}
; 73   : 
; 74   :  #elif _ITERATOR_DEBUG_LEVEL == 1
; 75   : 		_SCL_SECURE_VALIDATE(this->_Getcont() != 0);
; 76   : 		_SCL_SECURE_VALIDATE_RANGE(
; 77   : 			this->_Ptr != 0
; 78   : 			&& ((_Myvec *)this->_Getcont())->_Myfirst <= this->_Ptr
; 79   : 			&& this->_Ptr < ((_Myvec *)this->_Getcont())->_Mylast);
; 80   :  #endif /* _ITERATOR_DEBUG_LEVEL */
; 81   : 
; 82   : 		__analysis_assume(this->_Ptr != 0);
; 83   : 
; 84   : 		return (*this->_Ptr);

  00000	8b 01		 mov	 eax, DWORD PTR [ecx]

; 85   : 		}

  00002	c3		 ret	 0
??D?$_Vector_const_iterator@V?$_Vector_val@PBUAniEventTime@@V?$allocator@PBUAniEventTime@@@std@@@std@@@std@@QBEABQBUAniEventTime@@XZ ENDP ; std::_Vector_const_iterator<std::_Vector_val<AniEventTime const *,std::allocator<AniEventTime const *> > >::operator*
_TEXT	ENDS
PUBLIC	??E?$_Vector_const_iterator@V?$_Vector_val@PBUAniEventTime@@V?$allocator@PBUAniEventTime@@@std@@@std@@@std@@QAEAAV01@XZ ; std::_Vector_const_iterator<std::_Vector_val<AniEventTime const *,std::allocator<AniEventTime const *> > >::operator++
; Function compile flags: /Ogsp
;	COMDAT ??E?$_Vector_const_iterator@V?$_Vector_val@PBUAniEventTime@@V?$allocator@PBUAniEventTime@@@std@@@std@@@std@@QAEAAV01@XZ
_TEXT	SEGMENT
??E?$_Vector_const_iterator@V?$_Vector_val@PBUAniEventTime@@V?$allocator@PBUAniEventTime@@@std@@@std@@@std@@QAEAAV01@XZ PROC ; std::_Vector_const_iterator<std::_Vector_val<AniEventTime const *,std::allocator<AniEventTime const *> > >::operator++, COMDAT
; _this$ = ecx

; 93   : 		{	// preincrement

  00000	8b c1		 mov	 eax, ecx

; 94   :  #if _ITERATOR_DEBUG_LEVEL == 2
; 95   : 		if (this->_Getcont() == 0
; 96   : 			|| this->_Ptr == 0
; 97   : 			|| ((_Myvec *)this->_Getcont())->_Mylast <= this->_Ptr)
; 98   : 			{	// report error
; 99   : 			_DEBUG_ERROR("vector iterator not incrementable");
; 100  : 			_SCL_SECURE_OUT_OF_RANGE;
; 101  : 			}
; 102  : 
; 103  :  #elif _ITERATOR_DEBUG_LEVEL == 1
; 104  : 		_SCL_SECURE_VALIDATE(this->_Getcont() != 0);
; 105  : 		_SCL_SECURE_VALIDATE_RANGE(
; 106  : 			this->_Ptr != 0
; 107  : 			&& this->_Ptr < ((_Myvec *)this->_Getcont())->_Mylast);
; 108  :  #endif /* _ITERATOR_DEBUG_LEVEL */
; 109  : 
; 110  : 		++this->_Ptr;

  00002	83 00 04	 add	 DWORD PTR [eax], 4

; 111  : 		return (*this);
; 112  : 		}

  00005	c3		 ret	 0
??E?$_Vector_const_iterator@V?$_Vector_val@PBUAniEventTime@@V?$allocator@PBUAniEventTime@@@std@@@std@@@std@@QAEAAV01@XZ ENDP ; std::_Vector_const_iterator<std::_Vector_val<AniEventTime const *,std::allocator<AniEventTime const *> > >::operator++
_TEXT	ENDS
PUBLIC	??E?$_List_const_iterator@V?$_List_val@MV?$allocator@M@std@@@std@@@std@@QAEAAV01@XZ ; std::_List_const_iterator<std::_List_val<float,std::allocator<float> > >::operator++
; Function compile flags: /Ogsp
; File c:\program files (x86)\microsoft visual studio 10.0\vc\include\list
;	COMDAT ??E?$_List_const_iterator@V?$_List_val@MV?$allocator@M@std@@@std@@@std@@QAEAAV01@XZ
_TEXT	SEGMENT
??E?$_List_const_iterator@V?$_List_val@MV?$allocator@M@std@@@std@@@std@@QAEAAV01@XZ PROC ; std::_List_const_iterator<std::_List_val<float,std::allocator<float> > >::operator++, COMDAT
; _this$ = ecx

; 221  : 		{	// preincrement

  00000	8b c1		 mov	 eax, ecx

; 222  :  #if _ITERATOR_DEBUG_LEVEL == 2
; 223  : 		if (this->_Getcont() == 0
; 224  : 			|| this->_Ptr == 0
; 225  : 			|| this->_Ptr == ((_Mylist *)this->_Getcont())->_Myhead)
; 226  : 			{	// report error
; 227  : 			_DEBUG_ERROR("list iterator not incrementable");
; 228  : 			_SCL_SECURE_OUT_OF_RANGE;
; 229  : 			}
; 230  : 
; 231  :  #elif _ITERATOR_DEBUG_LEVEL == 1
; 232  : 		_SCL_SECURE_VALIDATE(this->_Getcont() != 0 && this->_Ptr != 0);
; 233  : 		_SCL_SECURE_VALIDATE_RANGE(this->_Ptr !=
; 234  : 			((_Mylist *)this->_Getcont())->_Myhead);
; 235  :  #endif /* _ITERATOR_DEBUG_LEVEL */
; 236  : 
; 237  : 		this->_Ptr = _Mylist::_Nextnode(this->_Ptr);

  00002	8b 08		 mov	 ecx, DWORD PTR [eax]
  00004	8b 09		 mov	 ecx, DWORD PTR [ecx]
  00006	89 08		 mov	 DWORD PTR [eax], ecx

; 238  : 		return (*this);
; 239  : 		}

  00008	c3		 ret	 0
??E?$_List_const_iterator@V?$_List_val@MV?$allocator@M@std@@@std@@@std@@QAEAAV01@XZ ENDP ; std::_List_const_iterator<std::_List_val<float,std::allocator<float> > >::operator++
_TEXT	ENDS
PUBLIC	??8?$_List_const_iterator@V?$_List_val@MV?$allocator@M@std@@@std@@@std@@QBE_NABV01@@Z ; std::_List_const_iterator<std::_List_val<float,std::allocator<float> > >::operator==
; Function compile flags: /Ogsp
;	COMDAT ??8?$_List_const_iterator@V?$_List_val@MV?$allocator@M@std@@@std@@@std@@QBE_NABV01@@Z
_TEXT	SEGMENT
__Right$ = 8						; size = 4
??8?$_List_const_iterator@V?$_List_val@MV?$allocator@M@std@@@std@@@std@@QBE_NABV01@@Z PROC ; std::_List_const_iterator<std::_List_val<float,std::allocator<float> > >::operator==, COMDAT
; _this$ = ecx

; 281  : 		{	// test for iterator equality

  00000	55		 push	 ebp
  00001	8b ec		 mov	 ebp, esp

; 282  :  #if _ITERATOR_DEBUG_LEVEL == 2
; 283  : 		if (this->_Getcont() == 0
; 284  : 			|| this->_Getcont() != _Right._Getcont())
; 285  : 			{	// report error
; 286  : 			_DEBUG_ERROR("list iterators incompatible");
; 287  : 			_SCL_SECURE_INVALID_ARGUMENT;
; 288  : 			}
; 289  : 
; 290  :  #elif _ITERATOR_DEBUG_LEVEL == 1
; 291  : 		_SCL_SECURE_VALIDATE(this->_Getcont() != 0
; 292  : 			&& this->_Getcont() == _Right._Getcont());
; 293  :  #endif /* _ITERATOR_DEBUG_LEVEL */
; 294  : 
; 295  : 		return (this->_Ptr == _Right._Ptr);

  00003	8b 01		 mov	 eax, DWORD PTR [ecx]
  00005	8b 4d 08	 mov	 ecx, DWORD PTR __Right$[ebp]
  00008	2b 01		 sub	 eax, DWORD PTR [ecx]
  0000a	f7 d8		 neg	 eax
  0000c	1b c0		 sbb	 eax, eax
  0000e	40		 inc	 eax

; 296  : 		}

  0000f	5d		 pop	 ebp
  00010	c2 04 00	 ret	 4
??8?$_List_const_iterator@V?$_List_val@MV?$allocator@M@std@@@std@@@std@@QBE_NABV01@@Z ENDP ; std::_List_const_iterator<std::_List_val<float,std::allocator<float> > >::operator==
_TEXT	ENDS
PUBLIC	?_Myval@?$_Tree_val@V?$_Tmap_traits@HUtagDummyAttackInfo@@U?$less@H@std@@V?$allocator@U?$pair@$$CBHUtagDummyAttackInfo@@@std@@@3@$0A@@std@@@std@@SAAAU?$pair@$$CBHUtagDummyAttackInfo@@@2@PAU_Node@?$_Tree_nod@V?$_Tmap_traits@HUtagDummyAttackInfo@@U?$less@H@std@@V?$allocator@U?$pair@$$CBHUtagDummyAttackInfo@@@std@@@3@$0A@@std@@@2@@Z ; std::_Tree_val<std::_Tmap_traits<int,tagDummyAttackInfo,std::less<int>,std::allocator<std::pair<int const ,tagDummyAttackInfo> >,0> >::_Myval
; Function compile flags: /Ogsp
; File c:\program files (x86)\microsoft visual studio 10.0\vc\include\xtree
;	COMDAT ?_Myval@?$_Tree_val@V?$_Tmap_traits@HUtagDummyAttackInfo@@U?$less@H@std@@V?$allocator@U?$pair@$$CBHUtagDummyAttackInfo@@@std@@@3@$0A@@std@@@std@@SAAAU?$pair@$$CBHUtagDummyAttackInfo@@@2@PAU_Node@?$_Tree_nod@V?$_Tmap_traits@HUtagDummyAttackInfo@@U?$less@H@std@@V?$allocator@U?$pair@$$CBHUtagDummyAttackInfo@@@std@@@3@$0A@@std@@@2@@Z
_TEXT	SEGMENT
__Pnode$ = 8						; size = 4
?_Myval@?$_Tree_val@V?$_Tmap_traits@HUtagDummyAttackInfo@@U?$less@H@std@@V?$allocator@U?$pair@$$CBHUtagDummyAttackInfo@@@std@@@3@$0A@@std@@@std@@SAAAU?$pair@$$CBHUtagDummyAttackInfo@@@2@PAU_Node@?$_Tree_nod@V?$_Tmap_traits@HUtagDummyAttackInfo@@U?$less@H@std@@V?$allocator@U?$pair@$$CBHUtagDummyAttackInfo@@@std@@@3@$0A@@std@@@2@@Z PROC ; std::_Tree_val<std::_Tmap_traits<int,tagDummyAttackInfo,std::less<int>,std::allocator<std::pair<int const ,tagDummyAttackInfo> >,0> >::_Myval, COMDAT

; 636  : 		{	// return reference to value in node

  00000	55		 push	 ebp
  00001	8b ec		 mov	 ebp, esp

; 637  : 		return ((reference)(*_Pnode)._Myval);

  00003	8b 45 08	 mov	 eax, DWORD PTR __Pnode$[ebp]
  00006	83 c0 0c	 add	 eax, 12			; 0000000cH

; 638  : 		}

  00009	5d		 pop	 ebp
  0000a	c3		 ret	 0
?_Myval@?$_Tree_val@V?$_Tmap_traits@HUtagDummyAttackInfo@@U?$less@H@std@@V?$allocator@U?$pair@$$CBHUtagDummyAttackInfo@@@std@@@3@$0A@@std@@@std@@SAAAU?$pair@$$CBHUtagDummyAttackInfo@@@2@PAU_Node@?$_Tree_nod@V?$_Tmap_traits@HUtagDummyAttackInfo@@U?$less@H@std@@V?$allocator@U?$pair@$$CBHUtagDummyAttackInfo@@@std@@@3@$0A@@std@@@2@@Z ENDP ; std::_Tree_val<std::_Tmap_traits<int,tagDummyAttackInfo,std::less<int>,std::allocator<std::pair<int const ,tagDummyAttackInfo> >,0> >::_Myval
_TEXT	ENDS
PUBLIC	?_Myval@?$_List_val@UFireTime@@V?$allocator@UFireTime@@@std@@@std@@SAAAUFireTime@@PAU_Node@?$_List_nod@UFireTime@@V?$allocator@UFireTime@@@std@@@2@@Z ; std::_List_val<FireTime,std::allocator<FireTime> >::_Myval
; Function compile flags: /Ogsp
; File c:\program files (x86)\microsoft visual studio 10.0\vc\include\list
;	COMDAT ?_Myval@?$_List_val@UFireTime@@V?$allocator@UFireTime@@@std@@@std@@SAAAUFireTime@@PAU_Node@?$_List_nod@UFireTime@@V?$allocator@UFireTime@@@std@@@2@@Z
_TEXT	SEGMENT
__Pnode$ = 8						; size = 4
?_Myval@?$_List_val@UFireTime@@V?$allocator@UFireTime@@@std@@@std@@SAAAUFireTime@@PAU_Node@?$_List_nod@UFireTime@@V?$allocator@UFireTime@@@std@@@2@@Z PROC ; std::_List_val<FireTime,std::allocator<FireTime> >::_Myval, COMDAT

; 570  : 		{	// return reference to value in node

  00000	55		 push	 ebp
  00001	8b ec		 mov	 ebp, esp

; 571  : 		return ((reference)(*_Pnode)._Myval);

  00003	8b 45 08	 mov	 eax, DWORD PTR __Pnode$[ebp]
  00006	83 c0 08	 add	 eax, 8

; 572  : 		}

  00009	5d		 pop	 ebp
  0000a	c3		 ret	 0
?_Myval@?$_List_val@UFireTime@@V?$allocator@UFireTime@@@std@@@std@@SAAAUFireTime@@PAU_Node@?$_List_nod@UFireTime@@V?$allocator@UFireTime@@@std@@@2@@Z ENDP ; std::_List_val<FireTime,std::allocator<FireTime> >::_Myval
_TEXT	ENDS
PUBLIC	?capacity@?$vector@UExtraAniJump@@V?$allocator@UExtraAniJump@@@std@@@std@@QBEIXZ ; std::vector<ExtraAniJump,std::allocator<ExtraAniJump> >::capacity
; Function compile flags: /Ogsp
; File c:\program files (x86)\microsoft visual studio 10.0\vc\include\vector
;	COMDAT ?capacity@?$vector@UExtraAniJump@@V?$allocator@UExtraAniJump@@@std@@@std@@QBEIXZ
_TEXT	SEGMENT
?capacity@?$vector@UExtraAniJump@@V?$allocator@UExtraAniJump@@@std@@@std@@QBEIXZ PROC ; std::vector<ExtraAniJump,std::allocator<ExtraAniJump> >::capacity, COMDAT
; _this$ = ecx

; 777  : 		return (this->_Myend - this->_Myfirst);

  00000	8b 41 08	 mov	 eax, DWORD PTR [ecx+8]
  00003	2b 01		 sub	 eax, DWORD PTR [ecx]
  00005	c1 f8 03	 sar	 eax, 3

; 778  : 		}

  00008	c3		 ret	 0
?capacity@?$vector@UExtraAniJump@@V?$allocator@UExtraAniJump@@@std@@@std@@QBEIXZ ENDP ; std::vector<ExtraAniJump,std::allocator<ExtraAniJump> >::capacity
_TEXT	ENDS
PUBLIC	?size@?$vector@UExtraAniJump@@V?$allocator@UExtraAniJump@@@std@@@std@@QBEIXZ ; std::vector<ExtraAniJump,std::allocator<ExtraAniJump> >::size
; Function compile flags: /Ogsp
;	COMDAT ?size@?$vector@UExtraAniJump@@V?$allocator@UExtraAniJump@@@std@@@std@@QBEIXZ
_TEXT	SEGMENT
?size@?$vector@UExtraAniJump@@V?$allocator@UExtraAniJump@@@std@@@std@@QBEIXZ PROC ; std::vector<ExtraAniJump,std::allocator<ExtraAniJump> >::size, COMDAT
; _this$ = ecx

; 879  : 		return (this->_Mylast - this->_Myfirst);

  00000	8b 41 04	 mov	 eax, DWORD PTR [ecx+4]
  00003	2b 01		 sub	 eax, DWORD PTR [ecx]
  00005	c1 f8 03	 sar	 eax, 3

; 880  : 		}

  00008	c3		 ret	 0
?size@?$vector@UExtraAniJump@@V?$allocator@UExtraAniJump@@@std@@@std@@QBEIXZ ENDP ; std::vector<ExtraAniJump,std::allocator<ExtraAniJump> >::size
_TEXT	ENDS
PUBLIC	??_C@_0BD@OLBABOEK@vector?$DMT?$DO?5too?5long?$AA@ ; `string'
PUBLIC	?_Xlen@?$vector@UExtraAniJump@@V?$allocator@UExtraAniJump@@@std@@@std@@IBEXXZ ; std::vector<ExtraAniJump,std::allocator<ExtraAniJump> >::_Xlen
EXTRN	__imp_?_Xlength_error@std@@YAXPBD@Z:PROC
;	COMDAT ??_C@_0BD@OLBABOEK@vector?$DMT?$DO?5too?5long?$AA@
CONST	SEGMENT
??_C@_0BD@OLBABOEK@vector?$DMT?$DO?5too?5long?$AA@ DB 'vector<T> too long'
	DB	00H						; `string'
; Function compile flags: /Ogsp
CONST	ENDS
;	COMDAT ?_Xlen@?$vector@UExtraAniJump@@V?$allocator@UExtraAniJump@@@std@@@std@@IBEXXZ
_TEXT	SEGMENT
?_Xlen@?$vector@UExtraAniJump@@V?$allocator@UExtraAniJump@@@std@@@std@@IBEXXZ PROC ; std::vector<ExtraAniJump,std::allocator<ExtraAniJump> >::_Xlen, COMDAT
; _this$ = ecx

; 1427 : 		_Xlength_error("vector<T> too long");

  00000	68 00 00 00 00	 push	 OFFSET ??_C@_0BD@OLBABOEK@vector?$DMT?$DO?5too?5long?$AA@
  00005	ff 15 00 00 00
	00		 call	 DWORD PTR __imp_?_Xlength_error@std@@YAXPBD@Z
$LN4@Xlen:
$LN3@Xlen:
  0000b	cc		 int	 3
?_Xlen@?$vector@UExtraAniJump@@V?$allocator@UExtraAniJump@@@std@@@std@@IBEXXZ ENDP ; std::vector<ExtraAniJump,std::allocator<ExtraAniJump> >::_Xlen
_TEXT	ENDS
PUBLIC	?_Prevnode@?$_List_val@MV?$allocator@M@std@@@std@@SAAAPAU_Node@?$_List_nod@MV?$allocator@M@std@@@2@PAU342@@Z ; std::_List_val<float,std::allocator<float> >::_Prevnode
; Function compile flags: /Ogsp
; File c:\program files (x86)\microsoft visual studio 10.0\vc\include\list
;	COMDAT ?_Prevnode@?$_List_val@MV?$allocator@M@std@@@std@@SAAAPAU_Node@?$_List_nod@MV?$allocator@M@std@@@2@PAU342@@Z
_TEXT	SEGMENT
__Pnode$ = 8						; size = 4
?_Prevnode@?$_List_val@MV?$allocator@M@std@@@std@@SAAAPAU_Node@?$_List_nod@MV?$allocator@M@std@@@2@PAU342@@Z PROC ; std::_List_val<float,std::allocator<float> >::_Prevnode, COMDAT

; 565  : 		{	// return reference to predecessor pointer in node

  00000	55		 push	 ebp
  00001	8b ec		 mov	 ebp, esp

; 566  : 		return ((_Nodepref)(*_Pnode)._Prev);

  00003	8b 45 08	 mov	 eax, DWORD PTR __Pnode$[ebp]
  00006	83 c0 04	 add	 eax, 4

; 567  : 		}

  00009	5d		 pop	 ebp
  0000a	c3		 ret	 0
?_Prevnode@?$_List_val@MV?$allocator@M@std@@@std@@SAAAPAU_Node@?$_List_nod@MV?$allocator@M@std@@@2@PAU342@@Z ENDP ; std::_List_val<float,std::allocator<float> >::_Prevnode
_TEXT	ENDS
PUBLIC	?_Myval@?$_List_val@MV?$allocator@M@std@@@std@@SAAAMPAU_Node@?$_List_nod@MV?$allocator@M@std@@@2@@Z ; std::_List_val<float,std::allocator<float> >::_Myval
; Function compile flags: /Ogsp
;	COMDAT ?_Myval@?$_List_val@MV?$allocator@M@std@@@std@@SAAAMPAU_Node@?$_List_nod@MV?$allocator@M@std@@@2@@Z
_TEXT	SEGMENT
__Pnode$ = 8						; size = 4
?_Myval@?$_List_val@MV?$allocator@M@std@@@std@@SAAAMPAU_Node@?$_List_nod@MV?$allocator@M@std@@@2@@Z PROC ; std::_List_val<float,std::allocator<float> >::_Myval, COMDAT

; 570  : 		{	// return reference to value in node

  00000	55		 push	 ebp
  00001	8b ec		 mov	 ebp, esp

; 571  : 		return ((reference)(*_Pnode)._Myval);

  00003	8b 45 08	 mov	 eax, DWORD PTR __Pnode$[ebp]
  00006	83 c0 08	 add	 eax, 8

; 572  : 		}

  00009	5d		 pop	 ebp
  0000a	c3		 ret	 0
?_Myval@?$_List_val@MV?$allocator@M@std@@@std@@SAAAMPAU_Node@?$_List_nod@MV?$allocator@M@std@@@2@@Z ENDP ; std::_List_val<float,std::allocator<float> >::_Myval
_TEXT	ENDS
PUBLIC	?deallocate@?$allocator@U_Node@?$_List_nod@MV?$allocator@M@std@@@std@@@std@@QAEXPAU_Node@?$_List_nod@MV?$allocator@M@std@@@2@I@Z ; std::allocator<std::_List_nod<float,std::allocator<float> >::_Node>::deallocate
; Function compile flags: /Ogsp
; File c:\program files (x86)\microsoft visual studio 10.0\vc\include\xmemory
;	COMDAT ?deallocate@?$allocator@U_Node@?$_List_nod@MV?$allocator@M@std@@@std@@@std@@QAEXPAU_Node@?$_List_nod@MV?$allocator@M@std@@@2@I@Z
_TEXT	SEGMENT
__Ptr$ = 8						; size = 4
___formal$ = 12						; size = 4
?deallocate@?$allocator@U_Node@?$_List_nod@MV?$allocator@M@std@@@std@@@std@@QAEXPAU_Node@?$_List_nod@MV?$allocator@M@std@@@2@I@Z PROC ; std::allocator<std::_List_nod<float,std::allocator<float> >::_Node>::deallocate, COMDAT
; _this$ = ecx

; 181  : 		{	// deallocate object at _Ptr, ignore size

  00000	55		 push	 ebp
  00001	8b ec		 mov	 ebp, esp

; 182  : 		::operator delete(_Ptr);

  00003	ff 75 08	 push	 DWORD PTR __Ptr$[ebp]
  00006	e8 00 00 00 00	 call	 ??3@YAXPAX@Z		; operator delete
  0000b	59		 pop	 ecx

; 183  : 		}

  0000c	5d		 pop	 ebp
  0000d	c2 08 00	 ret	 8
?deallocate@?$allocator@U_Node@?$_List_nod@MV?$allocator@M@std@@@std@@@std@@QAEXPAU_Node@?$_List_nod@MV?$allocator@M@std@@@2@I@Z ENDP ; std::allocator<std::_List_nod<float,std::allocator<float> >::_Node>::deallocate
_TEXT	ENDS
PUBLIC	?_Compat@?$_Vector_const_iterator@V?$_Vector_val@PAVioBaseChar@@V?$allocator@PAVioBaseChar@@@std@@@std@@@std@@QBEXABV12@@Z ; std::_Vector_const_iterator<std::_Vector_val<ioBaseChar *,std::allocator<ioBaseChar *> > >::_Compat
; Function compile flags: /Ogsp
; File c:\program files (x86)\microsoft visual studio 10.0\vc\include\vector
;	COMDAT ?_Compat@?$_Vector_const_iterator@V?$_Vector_val@PAVioBaseChar@@V?$allocator@PAVioBaseChar@@@std@@@std@@@std@@QBEXABV12@@Z
_TEXT	SEGMENT
___formal$ = 8						; size = 4
?_Compat@?$_Vector_const_iterator@V?$_Vector_val@PAVioBaseChar@@V?$allocator@PAVioBaseChar@@@std@@@std@@@std@@QBEXABV12@@Z PROC ; std::_Vector_const_iterator<std::_Vector_val<ioBaseChar *,std::allocator<ioBaseChar *> > >::_Compat, COMDAT
; _this$ = ecx

; 253  : 		}

  00000	c2 04 00	 ret	 4
?_Compat@?$_Vector_const_iterator@V?$_Vector_val@PAVioBaseChar@@V?$allocator@PAVioBaseChar@@@std@@@std@@@std@@QBEXABV12@@Z ENDP ; std::_Vector_const_iterator<std::_Vector_val<ioBaseChar *,std::allocator<ioBaseChar *> > >::_Compat
_TEXT	ENDS
PUBLIC	??D?$_Tree_const_iterator@V?$_Tree_val@V?$_Tmap_traits@HUtagDummyAttackInfo@@U?$less@H@std@@V?$allocator@U?$pair@$$CBHUtagDummyAttackInfo@@@std@@@3@$0A@@std@@@std@@@std@@QBEABU?$pair@$$CBHUtagDummyAttackInfo@@@1@XZ ; std::_Tree_const_iterator<std::_Tree_val<std::_Tmap_traits<int,tagDummyAttackInfo,std::less<int>,std::allocator<std::pair<int const ,tagDummyAttackInfo> >,0> > >::operator*
; Function compile flags: /Ogsp
; File c:\program files (x86)\microsoft visual studio 10.0\vc\include\xtree
;	COMDAT ??D?$_Tree_const_iterator@V?$_Tree_val@V?$_Tmap_traits@HUtagDummyAttackInfo@@U?$less@H@std@@V?$allocator@U?$pair@$$CBHUtagDummyAttackInfo@@@std@@@3@$0A@@std@@@std@@@std@@QBEABU?$pair@$$CBHUtagDummyAttackInfo@@@1@XZ
_TEXT	SEGMENT
??D?$_Tree_const_iterator@V?$_Tree_val@V?$_Tmap_traits@HUtagDummyAttackInfo@@U?$less@H@std@@V?$allocator@U?$pair@$$CBHUtagDummyAttackInfo@@@std@@@3@$0A@@std@@@std@@@std@@QBEABU?$pair@$$CBHUtagDummyAttackInfo@@@1@XZ PROC ; std::_Tree_const_iterator<std::_Tree_val<std::_Tmap_traits<int,tagDummyAttackInfo,std::less<int>,std::allocator<std::pair<int const ,tagDummyAttackInfo> >,0> > >::operator*, COMDAT
; _this$ = ecx

; 231  :  #if _ITERATOR_DEBUG_LEVEL == 2
; 232  : 		if (this->_Getcont() == 0
; 233  : 			|| this->_Ptr == 0
; 234  : 			|| this->_Ptr == ((_Mytree *)this->_Getcont())->_Myhead)
; 235  : 			{	// report error
; 236  : 			_DEBUG_ERROR("map/set iterator not dereferencable");
; 237  : 			_SCL_SECURE_OUT_OF_RANGE;
; 238  : 			}
; 239  : 
; 240  :  #elif _ITERATOR_DEBUG_LEVEL == 1
; 241  : 		_SCL_SECURE_VALIDATE(this->_Getcont() != 0 && this->_Ptr != 0);
; 242  : 		_SCL_SECURE_VALIDATE_RANGE(this->_Ptr !=
; 243  : 			((_Mytree *)this->_Getcont())->_Myhead);
; 244  :  #endif /* _ITERATOR_DEBUG_LEVEL */
; 245  : 
; 246  : 		return (_Mytree::_Myval(this->_Ptr));

  00000	8b 01		 mov	 eax, DWORD PTR [ecx]
  00002	83 c0 0c	 add	 eax, 12			; 0000000cH

; 247  : 		}

  00005	c3		 ret	 0
??D?$_Tree_const_iterator@V?$_Tree_val@V?$_Tmap_traits@HUtagDummyAttackInfo@@U?$less@H@std@@V?$allocator@U?$pair@$$CBHUtagDummyAttackInfo@@@std@@@3@$0A@@std@@@std@@@std@@QBEABU?$pair@$$CBHUtagDummyAttackInfo@@@1@XZ ENDP ; std::_Tree_const_iterator<std::_Tree_val<std::_Tmap_traits<int,tagDummyAttackInfo,std::less<int>,std::allocator<std::pair<int const ,tagDummyAttackInfo> >,0> > >::operator*
_TEXT	ENDS
PUBLIC	??0?$allocator@PBUAniEventTime@@@std@@QAE@ABV01@@Z ; std::allocator<AniEventTime const *>::allocator<AniEventTime const *>
; Function compile flags: /Ogsp
; File c:\program files (x86)\microsoft visual studio 10.0\vc\include\xmemory
;	COMDAT ??0?$allocator@PBUAniEventTime@@@std@@QAE@ABV01@@Z
_TEXT	SEGMENT
___formal$ = 8						; size = 4
??0?$allocator@PBUAniEventTime@@@std@@QAE@ABV01@@Z PROC	; std::allocator<AniEventTime const *>::allocator<AniEventTime const *>, COMDAT
; _this$ = ecx

; 165  : 	_ALLOCATOR(const _ALLOCATOR<_Ty>&) _THROW0()

  00000	8b c1		 mov	 eax, ecx

; 166  : 		{	// construct by copying (do nothing)
; 167  : 		}

  00002	c2 04 00	 ret	 4
??0?$allocator@PBUAniEventTime@@@std@@QAE@ABV01@@Z ENDP	; std::allocator<AniEventTime const *>::allocator<AniEventTime const *>
_TEXT	ENDS
PUBLIC	?deallocate@?$allocator@PBUAniEventTime@@@std@@QAEXPAPBUAniEventTime@@I@Z ; std::allocator<AniEventTime const *>::deallocate
; Function compile flags: /Ogsp
;	COMDAT ?deallocate@?$allocator@PBUAniEventTime@@@std@@QAEXPAPBUAniEventTime@@I@Z
_TEXT	SEGMENT
__Ptr$ = 8						; size = 4
___formal$ = 12						; size = 4
?deallocate@?$allocator@PBUAniEventTime@@@std@@QAEXPAPBUAniEventTime@@I@Z PROC ; std::allocator<AniEventTime const *>::deallocate, COMDAT
; _this$ = ecx

; 181  : 		{	// deallocate object at _Ptr, ignore size

  00000	55		 push	 ebp
  00001	8b ec		 mov	 ebp, esp

; 182  : 		::operator delete(_Ptr);

  00003	ff 75 08	 push	 DWORD PTR __Ptr$[ebp]
  00006	e8 00 00 00 00	 call	 ??3@YAXPAX@Z		; operator delete
  0000b	59		 pop	 ecx

; 183  : 		}

  0000c	5d		 pop	 ebp
  0000d	c2 08 00	 ret	 8
?deallocate@?$allocator@PBUAniEventTime@@@std@@QAEXPAPBUAniEventTime@@I@Z ENDP ; std::allocator<AniEventTime const *>::deallocate
_TEXT	ENDS
PUBLIC	??0?$_Vector_const_iterator@V?$_Vector_val@PBUAniEventTime@@V?$allocator@PBUAniEventTime@@@std@@@std@@@std@@QAE@PAPBUAniEventTime@@PBU_Container_base0@1@@Z ; std::_Vector_const_iterator<std::_Vector_val<AniEventTime const *,std::allocator<AniEventTime const *> > >::_Vector_const_iterator<std::_Vector_val<AniEventTime const *,std::allocator<AniEventTime const *> > >
; Function compile flags: /Ogsp
; File c:\program files (x86)\microsoft visual studio 10.0\vc\include\vector
;	COMDAT ??0?$_Vector_const_iterator@V?$_Vector_val@PBUAniEventTime@@V?$allocator@PBUAniEventTime@@@std@@@std@@@std@@QAE@PAPBUAniEventTime@@PBU_Container_base0@1@@Z
_TEXT	SEGMENT
__Parg$ = 8						; size = 4
__Pvector$ = 12						; size = 4
??0?$_Vector_const_iterator@V?$_Vector_val@PBUAniEventTime@@V?$allocator@PBUAniEventTime@@@std@@@std@@@std@@QAE@PAPBUAniEventTime@@PBU_Container_base0@1@@Z PROC ; std::_Vector_const_iterator<std::_Vector_val<AniEventTime const *,std::allocator<AniEventTime const *> > >::_Vector_const_iterator<std::_Vector_val<AniEventTime const *,std::allocator<AniEventTime const *> > >, COMDAT
; _this$ = ecx

; 45   : 		{	// construct with pointer _Parg

  00000	55		 push	 ebp
  00001	8b ec		 mov	 ebp, esp
  00003	8b c1		 mov	 eax, ecx
  00005	8b 4d 08	 mov	 ecx, DWORD PTR __Parg$[ebp]
  00008	89 08		 mov	 DWORD PTR [eax], ecx

; 46   : 		this->_Adopt(_Pvector);
; 47   : 		}

  0000a	5d		 pop	 ebp
  0000b	c2 08 00	 ret	 8
??0?$_Vector_const_iterator@V?$_Vector_val@PBUAniEventTime@@V?$allocator@PBUAniEventTime@@@std@@@std@@@std@@QAE@PAPBUAniEventTime@@PBU_Container_base0@1@@Z ENDP ; std::_Vector_const_iterator<std::_Vector_val<AniEventTime const *,std::allocator<AniEventTime const *> > >::_Vector_const_iterator<std::_Vector_val<AniEventTime const *,std::allocator<AniEventTime const *> > >
_TEXT	ENDS
PUBLIC	?_Compat@?$_Vector_const_iterator@V?$_Vector_val@PBUAniEventTime@@V?$allocator@PBUAniEventTime@@@std@@@std@@@std@@QBEXABV12@@Z ; std::_Vector_const_iterator<std::_Vector_val<AniEventTime const *,std::allocator<AniEventTime const *> > >::_Compat
; Function compile flags: /Ogsp
;	COMDAT ?_Compat@?$_Vector_const_iterator@V?$_Vector_val@PBUAniEventTime@@V?$allocator@PBUAniEventTime@@@std@@@std@@@std@@QBEXABV12@@Z
_TEXT	SEGMENT
___formal$ = 8						; size = 4
?_Compat@?$_Vector_const_iterator@V?$_Vector_val@PBUAniEventTime@@V?$allocator@PBUAniEventTime@@@std@@@std@@@std@@QBEXABV12@@Z PROC ; std::_Vector_const_iterator<std::_Vector_val<AniEventTime const *,std::allocator<AniEventTime const *> > >::_Compat, COMDAT
; _this$ = ecx

; 253  : 		}

  00000	c2 04 00	 ret	 4
?_Compat@?$_Vector_const_iterator@V?$_Vector_val@PBUAniEventTime@@V?$allocator@PBUAniEventTime@@@std@@@std@@@std@@QBEXABV12@@Z ENDP ; std::_Vector_const_iterator<std::_Vector_val<AniEventTime const *,std::allocator<AniEventTime const *> > >::_Compat
_TEXT	ENDS
PUBLIC	?_Isnil@?$_Tree_val@V?$_Tmap_traits@HUtagDummyAttackInfo@@U?$less@H@std@@V?$allocator@U?$pair@$$CBHUtagDummyAttackInfo@@@std@@@3@$0A@@std@@@std@@SAAADPAU_Node@?$_Tree_nod@V?$_Tmap_traits@HUtagDummyAttackInfo@@U?$less@H@std@@V?$allocator@U?$pair@$$CBHUtagDummyAttackInfo@@@std@@@3@$0A@@std@@@2@@Z ; std::_Tree_val<std::_Tmap_traits<int,tagDummyAttackInfo,std::less<int>,std::allocator<std::pair<int const ,tagDummyAttackInfo> >,0> >::_Isnil
; Function compile flags: /Ogsp
; File c:\program files (x86)\microsoft visual studio 10.0\vc\include\xtree
;	COMDAT ?_Isnil@?$_Tree_val@V?$_Tmap_traits@HUtagDummyAttackInfo@@U?$less@H@std@@V?$allocator@U?$pair@$$CBHUtagDummyAttackInfo@@@std@@@3@$0A@@std@@@std@@SAAADPAU_Node@?$_Tree_nod@V?$_Tmap_traits@HUtagDummyAttackInfo@@U?$less@H@std@@V?$allocator@U?$pair@$$CBHUtagDummyAttackInfo@@@std@@@3@$0A@@std@@@2@@Z
_TEXT	SEGMENT
__Pnode$ = 8						; size = 4
?_Isnil@?$_Tree_val@V?$_Tmap_traits@HUtagDummyAttackInfo@@U?$less@H@std@@V?$allocator@U?$pair@$$CBHUtagDummyAttackInfo@@@std@@@3@$0A@@std@@@std@@SAAADPAU_Node@?$_Tree_nod@V?$_Tmap_traits@HUtagDummyAttackInfo@@U?$less@H@std@@V?$allocator@U?$pair@$$CBHUtagDummyAttackInfo@@@std@@@3@$0A@@std@@@2@@Z PROC ; std::_Tree_val<std::_Tmap_traits<int,tagDummyAttackInfo,std::less<int>,std::allocator<std::pair<int const ,tagDummyAttackInfo> >,0> >::_Isnil, COMDAT

; 611  : 		{	// return reference to nil flag in node

  00000	55		 push	 ebp
  00001	8b ec		 mov	 ebp, esp

; 612  : 		return ((char&)(*_Pnode)._Isnil);

  00003	8b 45 08	 mov	 eax, DWORD PTR __Pnode$[ebp]
  00006	83 c0 65	 add	 eax, 101		; 00000065H

; 613  : 		}

  00009	5d		 pop	 ebp
  0000a	c3		 ret	 0
?_Isnil@?$_Tree_val@V?$_Tmap_traits@HUtagDummyAttackInfo@@U?$less@H@std@@V?$allocator@U?$pair@$$CBHUtagDummyAttackInfo@@@std@@@3@$0A@@std@@@std@@SAAADPAU_Node@?$_Tree_nod@V?$_Tmap_traits@HUtagDummyAttackInfo@@U?$less@H@std@@V?$allocator@U?$pair@$$CBHUtagDummyAttackInfo@@@std@@@3@$0A@@std@@@2@@Z ENDP ; std::_Tree_val<std::_Tmap_traits<int,tagDummyAttackInfo,std::less<int>,std::allocator<std::pair<int const ,tagDummyAttackInfo> >,0> >::_Isnil
_TEXT	ENDS
PUBLIC	?_Left@?$_Tree_val@V?$_Tmap_traits@HUtagDummyAttackInfo@@U?$less@H@std@@V?$allocator@U?$pair@$$CBHUtagDummyAttackInfo@@@std@@@3@$0A@@std@@@std@@SAAAPAU_Node@?$_Tree_nod@V?$_Tmap_traits@HUtagDummyAttackInfo@@U?$less@H@std@@V?$allocator@U?$pair@$$CBHUtagDummyAttackInfo@@@std@@@3@$0A@@std@@@2@PAU342@@Z ; std::_Tree_val<std::_Tmap_traits<int,tagDummyAttackInfo,std::less<int>,std::allocator<std::pair<int const ,tagDummyAttackInfo> >,0> >::_Left
; Function compile flags: /Ogsp
;	COMDAT ?_Left@?$_Tree_val@V?$_Tmap_traits@HUtagDummyAttackInfo@@U?$less@H@std@@V?$allocator@U?$pair@$$CBHUtagDummyAttackInfo@@@std@@@3@$0A@@std@@@std@@SAAAPAU_Node@?$_Tree_nod@V?$_Tmap_traits@HUtagDummyAttackInfo@@U?$less@H@std@@V?$allocator@U?$pair@$$CBHUtagDummyAttackInfo@@@std@@@3@$0A@@std@@@2@PAU342@@Z
_TEXT	SEGMENT
__Pnode$ = 8						; size = 4
?_Left@?$_Tree_val@V?$_Tmap_traits@HUtagDummyAttackInfo@@U?$less@H@std@@V?$allocator@U?$pair@$$CBHUtagDummyAttackInfo@@@std@@@3@$0A@@std@@@std@@SAAAPAU_Node@?$_Tree_nod@V?$_Tmap_traits@HUtagDummyAttackInfo@@U?$less@H@std@@V?$allocator@U?$pair@$$CBHUtagDummyAttackInfo@@@std@@@3@$0A@@std@@@2@PAU342@@Z PROC ; std::_Tree_val<std::_Tmap_traits<int,tagDummyAttackInfo,std::less<int>,std::allocator<std::pair<int const ,tagDummyAttackInfo> >,0> >::_Left, COMDAT

; 621  : 		{	// return reference to left pointer in node

  00000	55		 push	 ebp
  00001	8b ec		 mov	 ebp, esp

; 622  : 		return ((_Nodepref)(*_Pnode)._Left);

  00003	8b 45 08	 mov	 eax, DWORD PTR __Pnode$[ebp]

; 623  : 		}

  00006	5d		 pop	 ebp
  00007	c3		 ret	 0
?_Left@?$_Tree_val@V?$_Tmap_traits@HUtagDummyAttackInfo@@U?$less@H@std@@V?$allocator@U?$pair@$$CBHUtagDummyAttackInfo@@@std@@@3@$0A@@std@@@std@@SAAAPAU_Node@?$_Tree_nod@V?$_Tmap_traits@HUtagDummyAttackInfo@@U?$less@H@std@@V?$allocator@U?$pair@$$CBHUtagDummyAttackInfo@@@std@@@3@$0A@@std@@@2@PAU342@@Z ENDP ; std::_Tree_val<std::_Tmap_traits<int,tagDummyAttackInfo,std::less<int>,std::allocator<std::pair<int const ,tagDummyAttackInfo> >,0> >::_Left
_TEXT	ENDS
PUBLIC	?_Right@?$_Tree_val@V?$_Tmap_traits@HUtagDummyAttackInfo@@U?$less@H@std@@V?$allocator@U?$pair@$$CBHUtagDummyAttackInfo@@@std@@@3@$0A@@std@@@std@@SAAAPAU_Node@?$_Tree_nod@V?$_Tmap_traits@HUtagDummyAttackInfo@@U?$less@H@std@@V?$allocator@U?$pair@$$CBHUtagDummyAttackInfo@@@std@@@3@$0A@@std@@@2@PAU342@@Z ; std::_Tree_val<std::_Tmap_traits<int,tagDummyAttackInfo,std::less<int>,std::allocator<std::pair<int const ,tagDummyAttackInfo> >,0> >::_Right
; Function compile flags: /Ogsp
;	COMDAT ?_Right@?$_Tree_val@V?$_Tmap_traits@HUtagDummyAttackInfo@@U?$less@H@std@@V?$allocator@U?$pair@$$CBHUtagDummyAttackInfo@@@std@@@3@$0A@@std@@@std@@SAAAPAU_Node@?$_Tree_nod@V?$_Tmap_traits@HUtagDummyAttackInfo@@U?$less@H@std@@V?$allocator@U?$pair@$$CBHUtagDummyAttackInfo@@@std@@@3@$0A@@std@@@2@PAU342@@Z
_TEXT	SEGMENT
__Pnode$ = 8						; size = 4
?_Right@?$_Tree_val@V?$_Tmap_traits@HUtagDummyAttackInfo@@U?$less@H@std@@V?$allocator@U?$pair@$$CBHUtagDummyAttackInfo@@@std@@@3@$0A@@std@@@std@@SAAAPAU_Node@?$_Tree_nod@V?$_Tmap_traits@HUtagDummyAttackInfo@@U?$less@H@std@@V?$allocator@U?$pair@$$CBHUtagDummyAttackInfo@@@std@@@3@$0A@@std@@@2@PAU342@@Z PROC ; std::_Tree_val<std::_Tmap_traits<int,tagDummyAttackInfo,std::less<int>,std::allocator<std::pair<int const ,tagDummyAttackInfo> >,0> >::_Right, COMDAT

; 631  : 		{	// return reference to right pointer in node

  00000	55		 push	 ebp
  00001	8b ec		 mov	 ebp, esp

; 632  : 		return ((_Nodepref)(*_Pnode)._Right);

  00003	8b 45 08	 mov	 eax, DWORD PTR __Pnode$[ebp]
  00006	83 c0 08	 add	 eax, 8

; 633  : 		}

  00009	5d		 pop	 ebp
  0000a	c3		 ret	 0
?_Right@?$_Tree_val@V?$_Tmap_traits@HUtagDummyAttackInfo@@U?$less@H@std@@V?$allocator@U?$pair@$$CBHUtagDummyAttackInfo@@@std@@@3@$0A@@std@@@std@@SAAAPAU_Node@?$_Tree_nod@V?$_Tmap_traits@HUtagDummyAttackInfo@@U?$less@H@std@@V?$allocator@U?$pair@$$CBHUtagDummyAttackInfo@@@std@@@3@$0A@@std@@@2@PAU342@@Z ENDP ; std::_Tree_val<std::_Tmap_traits<int,tagDummyAttackInfo,std::less<int>,std::allocator<std::pair<int const ,tagDummyAttackInfo> >,0> >::_Right
_TEXT	ENDS
PUBLIC	?deallocate@?$allocator@UExtraAniJump@@@std@@QAEXPAUExtraAniJump@@I@Z ; std::allocator<ExtraAniJump>::deallocate
; Function compile flags: /Ogsp
; File c:\program files (x86)\microsoft visual studio 10.0\vc\include\xmemory
;	COMDAT ?deallocate@?$allocator@UExtraAniJump@@@std@@QAEXPAUExtraAniJump@@I@Z
_TEXT	SEGMENT
__Ptr$ = 8						; size = 4
___formal$ = 12						; size = 4
?deallocate@?$allocator@UExtraAniJump@@@std@@QAEXPAUExtraAniJump@@I@Z PROC ; std::allocator<ExtraAniJump>::deallocate, COMDAT
; _this$ = ecx

; 181  : 		{	// deallocate object at _Ptr, ignore size

  00000	55		 push	 ebp
  00001	8b ec		 mov	 ebp, esp

; 182  : 		::operator delete(_Ptr);

  00003	ff 75 08	 push	 DWORD PTR __Ptr$[ebp]
  00006	e8 00 00 00 00	 call	 ??3@YAXPAX@Z		; operator delete
  0000b	59		 pop	 ecx

; 183  : 		}

  0000c	5d		 pop	 ebp
  0000d	c2 08 00	 ret	 8
?deallocate@?$allocator@UExtraAniJump@@@std@@QAEXPAUExtraAniJump@@I@Z ENDP ; std::allocator<ExtraAniJump>::deallocate
_TEXT	ENDS
PUBLIC	?max_size@?$allocator@UExtraAniJump@@@std@@QBEIXZ ; std::allocator<ExtraAniJump>::max_size
; Function compile flags: /Ogsp
;	COMDAT ?max_size@?$allocator@UExtraAniJump@@@std@@QBEIXZ
_TEXT	SEGMENT
?max_size@?$allocator@UExtraAniJump@@@std@@QBEIXZ PROC	; std::allocator<ExtraAniJump>::max_size, COMDAT
; _this$ = ecx

; 218  : 		_SIZT _Count = (_SIZT)(-1) / sizeof (_Ty);
; 219  : 		return (0 < _Count ? _Count : 1);

  00000	b8 ff ff ff 1f	 mov	 eax, 536870911		; 1fffffffH

; 220  : 		}

  00005	c3		 ret	 0
?max_size@?$allocator@UExtraAniJump@@@std@@QBEIXZ ENDP	; std::allocator<ExtraAniJump>::max_size
_TEXT	ENDS
PUBLIC	??0?$_List_unchecked_const_iterator@V?$_List_val@UFireTime@@V?$allocator@UFireTime@@@std@@@std@@U_Iterator_base0@2@@std@@QAE@PAU_Node@?$_List_nod@UFireTime@@V?$allocator@UFireTime@@@std@@@1@PBV?$_List_val@UFireTime@@V?$allocator@UFireTime@@@std@@@1@@Z ; std::_List_unchecked_const_iterator<std::_List_val<FireTime,std::allocator<FireTime> >,std::_Iterator_base0>::_List_unchecked_const_iterator<std::_List_val<FireTime,std::allocator<FireTime> >,std::_Iterator_base0>
; Function compile flags: /Ogsp
; File c:\program files (x86)\microsoft visual studio 10.0\vc\include\list
;	COMDAT ??0?$_List_unchecked_const_iterator@V?$_List_val@UFireTime@@V?$allocator@UFireTime@@@std@@@std@@U_Iterator_base0@2@@std@@QAE@PAU_Node@?$_List_nod@UFireTime@@V?$allocator@UFireTime@@@std@@@1@PBV?$_List_val@UFireTime@@V?$allocator@UFireTime@@@std@@@1@@Z
_TEXT	SEGMENT
__Pnode$ = 8						; size = 4
__Plist$ = 12						; size = 4
??0?$_List_unchecked_const_iterator@V?$_List_val@UFireTime@@V?$allocator@UFireTime@@@std@@@std@@U_Iterator_base0@2@@std@@QAE@PAU_Node@?$_List_nod@UFireTime@@V?$allocator@UFireTime@@@std@@@1@PBV?$_List_val@UFireTime@@V?$allocator@UFireTime@@@std@@@1@@Z PROC ; std::_List_unchecked_const_iterator<std::_List_val<FireTime,std::allocator<FireTime> >,std::_Iterator_base0>::_List_unchecked_const_iterator<std::_List_val<FireTime,std::allocator<FireTime> >,std::_Iterator_base0>, COMDAT
; _this$ = ecx

; 41   : 		{	// construct with node pointer _Pnode

  00000	55		 push	 ebp
  00001	8b ec		 mov	 ebp, esp
  00003	8b c1		 mov	 eax, ecx
  00005	8b 4d 08	 mov	 ecx, DWORD PTR __Pnode$[ebp]
  00008	89 08		 mov	 DWORD PTR [eax], ecx

; 42   : 		this->_Adopt(_Plist);
; 43   : 		}

  0000a	5d		 pop	 ebp
  0000b	c2 08 00	 ret	 8
??0?$_List_unchecked_const_iterator@V?$_List_val@UFireTime@@V?$allocator@UFireTime@@@std@@@std@@U_Iterator_base0@2@@std@@QAE@PAU_Node@?$_List_nod@UFireTime@@V?$allocator@UFireTime@@@std@@@1@PBV?$_List_val@UFireTime@@V?$allocator@UFireTime@@@std@@@1@@Z ENDP ; std::_List_unchecked_const_iterator<std::_List_val<FireTime,std::allocator<FireTime> >,std::_Iterator_base0>::_List_unchecked_const_iterator<std::_List_val<FireTime,std::allocator<FireTime> >,std::_Iterator_base0>
_TEXT	ENDS
PUBLIC	??0?$_Tree_unchecked_const_iterator@V?$_Tree_val@V?$_Tmap_traits@HUtagDummyAttackInfo@@U?$less@H@std@@V?$allocator@U?$pair@$$CBHUtagDummyAttackInfo@@@std@@@3@$0A@@std@@@std@@U_Iterator_base0@2@@std@@QAE@PAU_Node@?$_Tree_nod@V?$_Tmap_traits@HUtagDummyAttackInfo@@U?$less@H@std@@V?$allocator@U?$pair@$$CBHUtagDummyAttackInfo@@@std@@@3@$0A@@std@@@1@PBV?$_Tree_val@V?$_Tmap_traits@HUtagDummyAttackInfo@@U?$less@H@std@@V?$allocator@U?$pair@$$CBHUtagDummyAttackInfo@@@std@@@3@$0A@@std@@@1@@Z ; std::_Tree_unchecked_const_iterator<std::_Tree_val<std::_Tmap_traits<int,tagDummyAttackInfo,std::less<int>,std::allocator<std::pair<int const ,tagDummyAttackInfo> >,0> >,std::_Iterator_base0>::_Tree_unchecked_const_iterator<std::_Tree_val<std::_Tmap_traits<int,tagDummyAttackInfo,std::less<int>,std::allocator<std::pair<int const ,tagDummyAttackInfo> >,0> >,std::_Iterator_base0>
; Function compile flags: /Ogsp
; File c:\program files (x86)\microsoft visual studio 10.0\vc\include\xtree
;	COMDAT ??0?$_Tree_unchecked_const_iterator@V?$_Tree_val@V?$_Tmap_traits@HUtagDummyAttackInfo@@U?$less@H@std@@V?$allocator@U?$pair@$$CBHUtagDummyAttackInfo@@@std@@@3@$0A@@std@@@std@@U_Iterator_base0@2@@std@@QAE@PAU_Node@?$_Tree_nod@V?$_Tmap_traits@HUtagDummyAttackInfo@@U?$less@H@std@@V?$allocator@U?$pair@$$CBHUtagDummyAttackInfo@@@std@@@3@$0A@@std@@@1@PBV?$_Tree_val@V?$_Tmap_traits@HUtagDummyAttackInfo@@U?$less@H@std@@V?$allocator@U?$pair@$$CBHUtagDummyAttackInfo@@@std@@@3@$0A@@std@@@1@@Z
_TEXT	SEGMENT
__Pnode$ = 8						; size = 4
__Plist$ = 12						; size = 4
??0?$_Tree_unchecked_const_iterator@V?$_Tree_val@V?$_Tmap_traits@HUtagDummyAttackInfo@@U?$less@H@std@@V?$allocator@U?$pair@$$CBHUtagDummyAttackInfo@@@std@@@3@$0A@@std@@@std@@U_Iterator_base0@2@@std@@QAE@PAU_Node@?$_Tree_nod@V?$_Tmap_traits@HUtagDummyAttackInfo@@U?$less@H@std@@V?$allocator@U?$pair@$$CBHUtagDummyAttackInfo@@@std@@@3@$0A@@std@@@1@PBV?$_Tree_val@V?$_Tmap_traits@HUtagDummyAttackInfo@@U?$less@H@std@@V?$allocator@U?$pair@$$CBHUtagDummyAttackInfo@@@std@@@3@$0A@@std@@@1@@Z PROC ; std::_Tree_unchecked_const_iterator<std::_Tree_val<std::_Tmap_traits<int,tagDummyAttackInfo,std::less<int>,std::allocator<std::pair<int const ,tagDummyAttackInfo> >,0> >,std::_Iterator_base0>::_Tree_unchecked_const_iterator<std::_Tree_val<std::_Tmap_traits<int,tagDummyAttackInfo,std::less<int>,std::allocator<std::pair<int const ,tagDummyAttackInfo> >,0> >,std::_Iterator_base0>, COMDAT
; _this$ = ecx

; 43   : 		{	// construct with node pointer _Pnode

  00000	55		 push	 ebp
  00001	8b ec		 mov	 ebp, esp
  00003	8b c1		 mov	 eax, ecx
  00005	8b 4d 08	 mov	 ecx, DWORD PTR __Pnode$[ebp]
  00008	89 08		 mov	 DWORD PTR [eax], ecx

; 44   : 		this->_Adopt(_Plist);
; 45   : 		}

  0000a	5d		 pop	 ebp
  0000b	c2 08 00	 ret	 8
??0?$_Tree_unchecked_const_iterator@V?$_Tree_val@V?$_Tmap_traits@HUtagDummyAttackInfo@@U?$less@H@std@@V?$allocator@U?$pair@$$CBHUtagDummyAttackInfo@@@std@@@3@$0A@@std@@@std@@U_Iterator_base0@2@@std@@QAE@PAU_Node@?$_Tree_nod@V?$_Tmap_traits@HUtagDummyAttackInfo@@U?$less@H@std@@V?$allocator@U?$pair@$$CBHUtagDummyAttackInfo@@@std@@@3@$0A@@std@@@1@PBV?$_Tree_val@V?$_Tmap_traits@HUtagDummyAttackInfo@@U?$less@H@std@@V?$allocator@U?$pair@$$CBHUtagDummyAttackInfo@@@std@@@3@$0A@@std@@@1@@Z ENDP ; std::_Tree_unchecked_const_iterator<std::_Tree_val<std::_Tmap_traits<int,tagDummyAttackInfo,std::less<int>,std::allocator<std::pair<int const ,tagDummyAttackInfo> >,0> >,std::_Iterator_base0>::_Tree_unchecked_const_iterator<std::_Tree_val<std::_Tmap_traits<int,tagDummyAttackInfo,std::less<int>,std::allocator<std::pair<int const ,tagDummyAttackInfo> >,0> >,std::_Iterator_base0>
_TEXT	ENDS
PUBLIC	??0?$_List_unchecked_const_iterator@V?$_List_val@MV?$allocator@M@std@@@std@@U_Iterator_base0@2@@std@@QAE@PAU_Node@?$_List_nod@MV?$allocator@M@std@@@1@PBV?$_List_val@MV?$allocator@M@std@@@1@@Z ; std::_List_unchecked_const_iterator<std::_List_val<float,std::allocator<float> >,std::_Iterator_base0>::_List_unchecked_const_iterator<std::_List_val<float,std::allocator<float> >,std::_Iterator_base0>
; Function compile flags: /Ogsp
; File c:\program files (x86)\microsoft visual studio 10.0\vc\include\list
;	COMDAT ??0?$_List_unchecked_const_iterator@V?$_List_val@MV?$allocator@M@std@@@std@@U_Iterator_base0@2@@std@@QAE@PAU_Node@?$_List_nod@MV?$allocator@M@std@@@1@PBV?$_List_val@MV?$allocator@M@std@@@1@@Z
_TEXT	SEGMENT
__Pnode$ = 8						; size = 4
__Plist$ = 12						; size = 4
??0?$_List_unchecked_const_iterator@V?$_List_val@MV?$allocator@M@std@@@std@@U_Iterator_base0@2@@std@@QAE@PAU_Node@?$_List_nod@MV?$allocator@M@std@@@1@PBV?$_List_val@MV?$allocator@M@std@@@1@@Z PROC ; std::_List_unchecked_const_iterator<std::_List_val<float,std::allocator<float> >,std::_Iterator_base0>::_List_unchecked_const_iterator<std::_List_val<float,std::allocator<float> >,std::_Iterator_base0>, COMDAT
; _this$ = ecx

; 41   : 		{	// construct with node pointer _Pnode

  00000	55		 push	 ebp
  00001	8b ec		 mov	 ebp, esp
  00003	8b c1		 mov	 eax, ecx
  00005	8b 4d 08	 mov	 ecx, DWORD PTR __Pnode$[ebp]
  00008	89 08		 mov	 DWORD PTR [eax], ecx

; 42   : 		this->_Adopt(_Plist);
; 43   : 		}

  0000a	5d		 pop	 ebp
  0000b	c2 08 00	 ret	 8
??0?$_List_unchecked_const_iterator@V?$_List_val@MV?$allocator@M@std@@@std@@U_Iterator_base0@2@@std@@QAE@PAU_Node@?$_List_nod@MV?$allocator@M@std@@@1@PBV?$_List_val@MV?$allocator@M@std@@@1@@Z ENDP ; std::_List_unchecked_const_iterator<std::_List_val<float,std::allocator<float> >,std::_Iterator_base0>::_List_unchecked_const_iterator<std::_List_val<float,std::allocator<float> >,std::_Iterator_base0>
_TEXT	ENDS
PUBLIC	??0?$_Vector_const_iterator@V?$_Vector_val@UExtraAniJump@@V?$allocator@UExtraAniJump@@@std@@@std@@@std@@QAE@PAUExtraAniJump@@PBU_Container_base0@1@@Z ; std::_Vector_const_iterator<std::_Vector_val<ExtraAniJump,std::allocator<ExtraAniJump> > >::_Vector_const_iterator<std::_Vector_val<ExtraAniJump,std::allocator<ExtraAniJump> > >
; Function compile flags: /Ogsp
; File c:\program files (x86)\microsoft visual studio 10.0\vc\include\vector
;	COMDAT ??0?$_Vector_const_iterator@V?$_Vector_val@UExtraAniJump@@V?$allocator@UExtraAniJump@@@std@@@std@@@std@@QAE@PAUExtraAniJump@@PBU_Container_base0@1@@Z
_TEXT	SEGMENT
__Parg$ = 8						; size = 4
__Pvector$ = 12						; size = 4
??0?$_Vector_const_iterator@V?$_Vector_val@UExtraAniJump@@V?$allocator@UExtraAniJump@@@std@@@std@@@std@@QAE@PAUExtraAniJump@@PBU_Container_base0@1@@Z PROC ; std::_Vector_const_iterator<std::_Vector_val<ExtraAniJump,std::allocator<ExtraAniJump> > >::_Vector_const_iterator<std::_Vector_val<ExtraAniJump,std::allocator<ExtraAniJump> > >, COMDAT
; _this$ = ecx

; 45   : 		{	// construct with pointer _Parg

  00000	55		 push	 ebp
  00001	8b ec		 mov	 ebp, esp
  00003	8b c1		 mov	 eax, ecx
  00005	8b 4d 08	 mov	 ecx, DWORD PTR __Parg$[ebp]
  00008	89 08		 mov	 DWORD PTR [eax], ecx

; 46   : 		this->_Adopt(_Pvector);
; 47   : 		}

  0000a	5d		 pop	 ebp
  0000b	c2 08 00	 ret	 8
??0?$_Vector_const_iterator@V?$_Vector_val@UExtraAniJump@@V?$allocator@UExtraAniJump@@@std@@@std@@@std@@QAE@PAUExtraAniJump@@PBU_Container_base0@1@@Z ENDP ; std::_Vector_const_iterator<std::_Vector_val<ExtraAniJump,std::allocator<ExtraAniJump> > >::_Vector_const_iterator<std::_Vector_val<ExtraAniJump,std::allocator<ExtraAniJump> > >
_TEXT	ENDS
PUBLIC	?_Parent@?$_Tree_val@V?$_Tmap_traits@HUtagDummyAttackInfo@@U?$less@H@std@@V?$allocator@U?$pair@$$CBHUtagDummyAttackInfo@@@std@@@3@$0A@@std@@@std@@SAAAPAU_Node@?$_Tree_nod@V?$_Tmap_traits@HUtagDummyAttackInfo@@U?$less@H@std@@V?$allocator@U?$pair@$$CBHUtagDummyAttackInfo@@@std@@@3@$0A@@std@@@2@PAU342@@Z ; std::_Tree_val<std::_Tmap_traits<int,tagDummyAttackInfo,std::less<int>,std::allocator<std::pair<int const ,tagDummyAttackInfo> >,0> >::_Parent
; Function compile flags: /Ogsp
; File c:\program files (x86)\microsoft visual studio 10.0\vc\include\xtree
;	COMDAT ?_Parent@?$_Tree_val@V?$_Tmap_traits@HUtagDummyAttackInfo@@U?$less@H@std@@V?$allocator@U?$pair@$$CBHUtagDummyAttackInfo@@@std@@@3@$0A@@std@@@std@@SAAAPAU_Node@?$_Tree_nod@V?$_Tmap_traits@HUtagDummyAttackInfo@@U?$less@H@std@@V?$allocator@U?$pair@$$CBHUtagDummyAttackInfo@@@std@@@3@$0A@@std@@@2@PAU342@@Z
_TEXT	SEGMENT
__Pnode$ = 8						; size = 4
?_Parent@?$_Tree_val@V?$_Tmap_traits@HUtagDummyAttackInfo@@U?$less@H@std@@V?$allocator@U?$pair@$$CBHUtagDummyAttackInfo@@@std@@@3@$0A@@std@@@std@@SAAAPAU_Node@?$_Tree_nod@V?$_Tmap_traits@HUtagDummyAttackInfo@@U?$less@H@std@@V?$allocator@U?$pair@$$CBHUtagDummyAttackInfo@@@std@@@3@$0A@@std@@@2@PAU342@@Z PROC ; std::_Tree_val<std::_Tmap_traits<int,tagDummyAttackInfo,std::less<int>,std::allocator<std::pair<int const ,tagDummyAttackInfo> >,0> >::_Parent, COMDAT

; 626  : 		{	// return reference to parent pointer in node

  00000	55		 push	 ebp
  00001	8b ec		 mov	 ebp, esp

; 627  : 		return ((_Nodepref)(*_Pnode)._Parent);

  00003	8b 45 08	 mov	 eax, DWORD PTR __Pnode$[ebp]
  00006	83 c0 04	 add	 eax, 4

; 628  : 		}

  00009	5d		 pop	 ebp
  0000a	c3		 ret	 0
?_Parent@?$_Tree_val@V?$_Tmap_traits@HUtagDummyAttackInfo@@U?$less@H@std@@V?$allocator@U?$pair@$$CBHUtagDummyAttackInfo@@@std@@@3@$0A@@std@@@std@@SAAAPAU_Node@?$_Tree_nod@V?$_Tmap_traits@HUtagDummyAttackInfo@@U?$less@H@std@@V?$allocator@U?$pair@$$CBHUtagDummyAttackInfo@@@std@@@3@$0A@@std@@@2@PAU342@@Z ENDP ; std::_Tree_val<std::_Tmap_traits<int,tagDummyAttackInfo,std::less<int>,std::allocator<std::pair<int const ,tagDummyAttackInfo> >,0> >::_Parent
_TEXT	ENDS
PUBLIC	?max_size@?$allocator@UFireTime@@@std@@QBEIXZ	; std::allocator<FireTime>::max_size
; Function compile flags: /Ogsp
; File c:\program files (x86)\microsoft visual studio 10.0\vc\include\xmemory
;	COMDAT ?max_size@?$allocator@UFireTime@@@std@@QBEIXZ
_TEXT	SEGMENT
?max_size@?$allocator@UFireTime@@@std@@QBEIXZ PROC	; std::allocator<FireTime>::max_size, COMDAT
; _this$ = ecx

; 218  : 		_SIZT _Count = (_SIZT)(-1) / sizeof (_Ty);
; 219  : 		return (0 < _Count ? _Count : 1);

  00000	b8 2e ba e8 02	 mov	 eax, 48806446		; 02e8ba2eH

; 220  : 		}

  00005	c3		 ret	 0
?max_size@?$allocator@UFireTime@@@std@@QBEIXZ ENDP	; std::allocator<FireTime>::max_size
_TEXT	ENDS
PUBLIC	?_Compat@?$_Vector_const_iterator@V?$_Vector_val@UExtraAniJump@@V?$allocator@UExtraAniJump@@@std@@@std@@@std@@QBEXABV12@@Z ; std::_Vector_const_iterator<std::_Vector_val<ExtraAniJump,std::allocator<ExtraAniJump> > >::_Compat
; Function compile flags: /Ogsp
; File c:\program files (x86)\microsoft visual studio 10.0\vc\include\vector
;	COMDAT ?_Compat@?$_Vector_const_iterator@V?$_Vector_val@UExtraAniJump@@V?$allocator@UExtraAniJump@@@std@@@std@@@std@@QBEXABV12@@Z
_TEXT	SEGMENT
___formal$ = 8						; size = 4
?_Compat@?$_Vector_const_iterator@V?$_Vector_val@UExtraAniJump@@V?$allocator@UExtraAniJump@@@std@@@std@@@std@@QBEXABV12@@Z PROC ; std::_Vector_const_iterator<std::_Vector_val<ExtraAniJump,std::allocator<ExtraAniJump> > >::_Compat, COMDAT
; _this$ = ecx

; 253  : 		}

  00000	c2 04 00	 ret	 4
?_Compat@?$_Vector_const_iterator@V?$_Vector_val@UExtraAniJump@@V?$allocator@UExtraAniJump@@@std@@@std@@@std@@QBEXABV12@@Z ENDP ; std::_Vector_const_iterator<std::_Vector_val<ExtraAniJump,std::allocator<ExtraAniJump> > >::_Compat
_TEXT	ENDS
PUBLIC	__real@3f91df46a2526c7a
PUBLIC	??$DEGtoRAD@M@@YAMM@Z				; DEGtoRAD<float>
;	COMDAT __real@3f91df46a2526c7a
; File d:\lost saga for developer\youtube\tutorial\source\src\lsclient\veryoftenusedefine.h
CONST	SEGMENT
__real@3f91df46a2526c7a DQ 03f91df46a2526c7ar	; 0.0174533
; Function compile flags: /Ogsp
CONST	ENDS
;	COMDAT ??$DEGtoRAD@M@@YAMM@Z
_TEXT	SEGMENT
tv129 = 8						; size = 4
_val$ = 8						; size = 4
??$DEGtoRAD@M@@YAMM@Z PROC				; DEGtoRAD<float>, COMDAT

; 20   : type  DEGtoRAD (type val) {return (type) (val * 0.0174532925199);}

  00000	55		 push	 ebp
  00001	8b ec		 mov	 ebp, esp
  00003	d9 45 08	 fld	 DWORD PTR _val$[ebp]
  00006	dc 0d 00 00 00
	00		 fmul	 QWORD PTR __real@3f91df46a2526c7a
  0000c	d9 5d 08	 fstp	 DWORD PTR tv129[ebp]
  0000f	d9 45 08	 fld	 DWORD PTR tv129[ebp]
  00012	5d		 pop	 ebp
  00013	c3		 ret	 0
??$DEGtoRAD@M@@YAMM@Z ENDP				; DEGtoRAD<float>
_TEXT	ENDS
PUBLIC	??0D3DXVECTOR3@@QAE@XZ				; D3DXVECTOR3::D3DXVECTOR3
; Function compile flags: /Ogsp
; File c:\program files (x86)\microsoft directx sdk (june 2010)\include\d3dx9math.h
;	COMDAT ??0D3DXVECTOR3@@QAE@XZ
_TEXT	SEGMENT
??0D3DXVECTOR3@@QAE@XZ PROC				; D3DXVECTOR3::D3DXVECTOR3, COMDAT
; _this$ = ecx

; 165  :     D3DXVECTOR3() {};

  00000	8b c1		 mov	 eax, ecx
  00002	c3		 ret	 0
??0D3DXVECTOR3@@QAE@XZ ENDP				; D3DXVECTOR3::D3DXVECTOR3
_TEXT	ENDS
PUBLIC	??0D3DXQUATERNION@@QAE@XZ			; D3DXQUATERNION::D3DXQUATERNION
; Function compile flags: /Ogsp
;	COMDAT ??0D3DXQUATERNION@@QAE@XZ
_TEXT	SEGMENT
??0D3DXQUATERNION@@QAE@XZ PROC				; D3DXQUATERNION::D3DXQUATERNION, COMDAT
; _this$ = ecx

; 429  :     D3DXQUATERNION() {}

  00000	8b c1		 mov	 eax, ecx
  00002	c3		 ret	 0
??0D3DXQUATERNION@@QAE@XZ ENDP				; D3DXQUATERNION::D3DXQUATERNION
_TEXT	ENDS
PUBLIC	??0D3DXVECTOR3@@QAE@MMM@Z			; D3DXVECTOR3::D3DXVECTOR3
; Function compile flags: /Ogsp
; File c:\program files (x86)\microsoft directx sdk (june 2010)\include\d3dx9math.inl
;	COMDAT ??0D3DXVECTOR3@@QAE@MMM@Z
_TEXT	SEGMENT
_fx$ = 8						; size = 4
_fy$ = 12						; size = 4
_fz$ = 16						; size = 4
??0D3DXVECTOR3@@QAE@MMM@Z PROC				; D3DXVECTOR3::D3DXVECTOR3, COMDAT
; _this$ = ecx

; 303  : {

  00000	55		 push	 ebp
  00001	8b ec		 mov	 ebp, esp

; 304  :     x = fx;

  00003	f3 0f 10 45 08	 movss	 xmm0, DWORD PTR _fx$[ebp]
  00008	8b c1		 mov	 eax, ecx
  0000a	f3 0f 11 00	 movss	 DWORD PTR [eax], xmm0

; 305  :     y = fy;

  0000e	f3 0f 10 45 0c	 movss	 xmm0, DWORD PTR _fy$[ebp]
  00013	f3 0f 11 40 04	 movss	 DWORD PTR [eax+4], xmm0

; 306  :     z = fz;

  00018	f3 0f 10 45 10	 movss	 xmm0, DWORD PTR _fz$[ebp]
  0001d	f3 0f 11 40 08	 movss	 DWORD PTR [eax+8], xmm0

; 307  : }

  00022	5d		 pop	 ebp
  00023	c2 0c 00	 ret	 12			; 0000000cH
??0D3DXVECTOR3@@QAE@MMM@Z ENDP				; D3DXVECTOR3::D3DXVECTOR3
_TEXT	ENDS
PUBLIC	??YD3DXVECTOR3@@QAEAAU0@ABU0@@Z			; D3DXVECTOR3::operator+=
; Function compile flags: /Ogsp
;	COMDAT ??YD3DXVECTOR3@@QAEAAU0@ABU0@@Z
_TEXT	SEGMENT
_v$ = 8							; size = 4
??YD3DXVECTOR3@@QAEAAU0@ABU0@@Z PROC			; D3DXVECTOR3::operator+=, COMDAT
; _this$ = ecx

; 327  : {

  00000	55		 push	 ebp
  00001	8b ec		 mov	 ebp, esp
  00003	8b c1		 mov	 eax, ecx

; 328  :     x += v.x;

  00005	8b 4d 08	 mov	 ecx, DWORD PTR _v$[ebp]
  00008	f3 0f 10 01	 movss	 xmm0, DWORD PTR [ecx]
  0000c	f3 0f 10 08	 movss	 xmm1, DWORD PTR [eax]
  00010	0f 5a c0	 cvtps2pd xmm0, xmm0
  00013	0f 5a c9	 cvtps2pd xmm1, xmm1
  00016	f2 0f 58 c1	 addsd	 xmm0, xmm1

; 329  :     y += v.y;

  0001a	f3 0f 10 48 04	 movss	 xmm1, DWORD PTR [eax+4]
  0001f	66 0f 5a c0	 cvtpd2ps xmm0, xmm0
  00023	f3 0f 11 00	 movss	 DWORD PTR [eax], xmm0
  00027	f3 0f 10 41 04	 movss	 xmm0, DWORD PTR [ecx+4]
  0002c	0f 5a c0	 cvtps2pd xmm0, xmm0
  0002f	0f 5a c9	 cvtps2pd xmm1, xmm1
  00032	f2 0f 58 c1	 addsd	 xmm0, xmm1

; 330  :     z += v.z;

  00036	f3 0f 10 48 08	 movss	 xmm1, DWORD PTR [eax+8]
  0003b	66 0f 5a c0	 cvtpd2ps xmm0, xmm0
  0003f	f3 0f 11 40 04	 movss	 DWORD PTR [eax+4], xmm0
  00044	f3 0f 10 41 08	 movss	 xmm0, DWORD PTR [ecx+8]
  00049	0f 5a c0	 cvtps2pd xmm0, xmm0
  0004c	0f 5a c9	 cvtps2pd xmm1, xmm1
  0004f	f2 0f 58 c1	 addsd	 xmm0, xmm1
  00053	66 0f 5a c0	 cvtpd2ps xmm0, xmm0
  00057	f3 0f 11 40 08	 movss	 DWORD PTR [eax+8], xmm0

; 331  :     return *this;
; 332  : }

  0005c	5d		 pop	 ebp
  0005d	c2 04 00	 ret	 4
??YD3DXVECTOR3@@QAEAAU0@ABU0@@Z ENDP			; D3DXVECTOR3::operator+=
_TEXT	ENDS
PUBLIC	__mask@@NegFloat@
PUBLIC	??GD3DXVECTOR3@@QBE?AU0@XZ			; D3DXVECTOR3::operator-
;	COMDAT __mask@@NegFloat@
CONST	SEGMENT
__mask@@NegFloat@ DB 00H, 00H, 00H, 080H, 00H, 00H, 00H, 080H, 00H, 00H, 00H
	DB	080H, 00H, 00H, 00H, 080H
; Function compile flags: /Ogsp
CONST	ENDS
;	COMDAT ??GD3DXVECTOR3@@QBE?AU0@XZ
_TEXT	SEGMENT
___$ReturnUdt$ = 8					; size = 4
??GD3DXVECTOR3@@QBE?AU0@XZ PROC				; D3DXVECTOR3::operator-, COMDAT
; _this$ = ecx

; 372  : {

  00000	55		 push	 ebp
  00001	8b ec		 mov	 ebp, esp

; 373  :     return D3DXVECTOR3(-x, -y, -z);

  00003	f3 0f 10 05 00
	00 00 00	 movss	 xmm0, DWORD PTR __mask@@NegFloat@
  0000b	8b 45 08	 mov	 eax, DWORD PTR ___$ReturnUdt$[ebp]
  0000e	f3 0f 10 09	 movss	 xmm1, DWORD PTR [ecx]
  00012	0f 57 c8	 xorps	 xmm1, xmm0
  00015	f3 0f 11 08	 movss	 DWORD PTR [eax], xmm1
  00019	f3 0f 10 49 04	 movss	 xmm1, DWORD PTR [ecx+4]
  0001e	0f 57 c8	 xorps	 xmm1, xmm0
  00021	f3 0f 11 48 04	 movss	 DWORD PTR [eax+4], xmm1
  00026	f3 0f 10 49 08	 movss	 xmm1, DWORD PTR [ecx+8]
  0002b	0f 57 c8	 xorps	 xmm1, xmm0
  0002e	f3 0f 11 48 08	 movss	 DWORD PTR [eax+8], xmm1

; 374  : }

  00033	5d		 pop	 ebp
  00034	c2 04 00	 ret	 4
??GD3DXVECTOR3@@QBE?AU0@XZ ENDP				; D3DXVECTOR3::operator-
_TEXT	ENDS
PUBLIC	??GD3DXVECTOR3@@QBE?AU0@ABU0@@Z			; D3DXVECTOR3::operator-
; Function compile flags: /Ogsp
;	COMDAT ??GD3DXVECTOR3@@QBE?AU0@ABU0@@Z
_TEXT	SEGMENT
___$ReturnUdt$ = 8					; size = 4
_v$ = 12						; size = 4
??GD3DXVECTOR3@@QBE?AU0@ABU0@@Z PROC			; D3DXVECTOR3::operator-, COMDAT
; _this$ = ecx

; 386  : {

  00000	55		 push	 ebp
  00001	8b ec		 mov	 ebp, esp

; 387  :     return D3DXVECTOR3(x - v.x, y - v.y, z - v.z);

  00003	8b 55 0c	 mov	 edx, DWORD PTR _v$[ebp]
  00006	f3 0f 10 01	 movss	 xmm0, DWORD PTR [ecx]
  0000a	f3 0f 10 0a	 movss	 xmm1, DWORD PTR [edx]
  0000e	8b 45 08	 mov	 eax, DWORD PTR ___$ReturnUdt$[ebp]
  00011	0f 5a c0	 cvtps2pd xmm0, xmm0
  00014	0f 5a c9	 cvtps2pd xmm1, xmm1
  00017	f2 0f 5c c1	 subsd	 xmm0, xmm1
  0001b	f3 0f 10 4a 04	 movss	 xmm1, DWORD PTR [edx+4]
  00020	66 0f 5a c0	 cvtpd2ps xmm0, xmm0
  00024	f3 0f 11 00	 movss	 DWORD PTR [eax], xmm0
  00028	f3 0f 10 41 04	 movss	 xmm0, DWORD PTR [ecx+4]
  0002d	0f 5a c0	 cvtps2pd xmm0, xmm0
  00030	0f 5a c9	 cvtps2pd xmm1, xmm1
  00033	f2 0f 5c c1	 subsd	 xmm0, xmm1
  00037	f3 0f 10 4a 08	 movss	 xmm1, DWORD PTR [edx+8]
  0003c	66 0f 5a c0	 cvtpd2ps xmm0, xmm0
  00040	f3 0f 11 40 04	 movss	 DWORD PTR [eax+4], xmm0
  00045	f3 0f 10 41 08	 movss	 xmm0, DWORD PTR [ecx+8]
  0004a	0f 5a c0	 cvtps2pd xmm0, xmm0
  0004d	0f 5a c9	 cvtps2pd xmm1, xmm1
  00050	f2 0f 5c c1	 subsd	 xmm0, xmm1
  00054	66 0f 5a c0	 cvtpd2ps xmm0, xmm0
  00058	f3 0f 11 40 08	 movss	 DWORD PTR [eax+8], xmm0

; 388  : }

  0005d	5d		 pop	 ebp
  0005e	c2 08 00	 ret	 8
??GD3DXVECTOR3@@QBE?AU0@ABU0@@Z ENDP			; D3DXVECTOR3::operator-
_TEXT	ENDS
PUBLIC	??DD3DXVECTOR3@@QBE?AU0@M@Z			; D3DXVECTOR3::operator*
; Function compile flags: /Ogsp
;	COMDAT ??DD3DXVECTOR3@@QBE?AU0@M@Z
_TEXT	SEGMENT
___$ReturnUdt$ = 8					; size = 4
_f$ = 12						; size = 4
??DD3DXVECTOR3@@QBE?AU0@M@Z PROC			; D3DXVECTOR3::operator*, COMDAT
; _this$ = ecx

; 392  : {

  00000	55		 push	 ebp
  00001	8b ec		 mov	 ebp, esp

; 393  :     return D3DXVECTOR3(x * f, y * f, z * f);

  00003	f3 0f 10 4d 0c	 movss	 xmm1, DWORD PTR _f$[ebp]
  00008	f3 0f 10 01	 movss	 xmm0, DWORD PTR [ecx]
  0000c	8b 45 08	 mov	 eax, DWORD PTR ___$ReturnUdt$[ebp]
  0000f	0f 5a c0	 cvtps2pd xmm0, xmm0
  00012	0f 5a c9	 cvtps2pd xmm1, xmm1
  00015	f2 0f 59 c1	 mulsd	 xmm0, xmm1
  00019	f3 0f 10 4d 0c	 movss	 xmm1, DWORD PTR _f$[ebp]
  0001e	66 0f 5a c0	 cvtpd2ps xmm0, xmm0
  00022	f3 0f 11 00	 movss	 DWORD PTR [eax], xmm0
  00026	f3 0f 10 41 04	 movss	 xmm0, DWORD PTR [ecx+4]
  0002b	0f 5a c0	 cvtps2pd xmm0, xmm0
  0002e	0f 5a c9	 cvtps2pd xmm1, xmm1
  00031	f2 0f 59 c1	 mulsd	 xmm0, xmm1
  00035	f3 0f 10 4d 0c	 movss	 xmm1, DWORD PTR _f$[ebp]
  0003a	66 0f 5a c0	 cvtpd2ps xmm0, xmm0
  0003e	f3 0f 11 40 04	 movss	 DWORD PTR [eax+4], xmm0
  00043	f3 0f 10 41 08	 movss	 xmm0, DWORD PTR [ecx+8]
  00048	0f 5a c0	 cvtps2pd xmm0, xmm0
  0004b	0f 5a c9	 cvtps2pd xmm1, xmm1
  0004e	f2 0f 59 c1	 mulsd	 xmm0, xmm1
  00052	66 0f 5a c0	 cvtpd2ps xmm0, xmm0
  00056	f3 0f 11 40 08	 movss	 DWORD PTR [eax+8], xmm0

; 394  : }

  0005b	5d		 pop	 ebp
  0005c	c2 08 00	 ret	 8
??DD3DXVECTOR3@@QBE?AU0@M@Z ENDP			; D3DXVECTOR3::operator*
_TEXT	ENDS
PUBLIC	??D@YA?AUD3DXVECTOR3@@MABU0@@Z			; operator*
; Function compile flags: /Ogsp
;	COMDAT ??D@YA?AUD3DXVECTOR3@@MABU0@@Z
_TEXT	SEGMENT
___$ReturnUdt$ = 8					; size = 4
_f$ = 12						; size = 4
_v$ = 16						; size = 4
??D@YA?AUD3DXVECTOR3@@MABU0@@Z PROC			; operator*, COMDAT

; 406  : {

  00000	55		 push	 ebp
  00001	8b ec		 mov	 ebp, esp

; 407  :     return D3DXVECTOR3(f * v.x, f * v.y, f * v.z);

  00003	8b 4d 10	 mov	 ecx, DWORD PTR _v$[ebp]
  00006	f3 0f 10 4d 0c	 movss	 xmm1, DWORD PTR _f$[ebp]
  0000b	f3 0f 10 01	 movss	 xmm0, DWORD PTR [ecx]
  0000f	8b 45 08	 mov	 eax, DWORD PTR ___$ReturnUdt$[ebp]
  00012	0f 5a c0	 cvtps2pd xmm0, xmm0
  00015	0f 5a c9	 cvtps2pd xmm1, xmm1
  00018	f2 0f 59 c1	 mulsd	 xmm0, xmm1
  0001c	f3 0f 10 4d 0c	 movss	 xmm1, DWORD PTR _f$[ebp]
  00021	66 0f 5a c0	 cvtpd2ps xmm0, xmm0
  00025	f3 0f 11 00	 movss	 DWORD PTR [eax], xmm0
  00029	f3 0f 10 41 04	 movss	 xmm0, DWORD PTR [ecx+4]
  0002e	0f 5a c0	 cvtps2pd xmm0, xmm0
  00031	0f 5a c9	 cvtps2pd xmm1, xmm1
  00034	f2 0f 59 c1	 mulsd	 xmm0, xmm1
  00038	f3 0f 10 4d 0c	 movss	 xmm1, DWORD PTR _f$[ebp]
  0003d	66 0f 5a c0	 cvtpd2ps xmm0, xmm0
  00041	f3 0f 11 40 04	 movss	 DWORD PTR [eax+4], xmm0
  00046	f3 0f 10 41 08	 movss	 xmm0, DWORD PTR [ecx+8]
  0004b	0f 5a c0	 cvtps2pd xmm0, xmm0
  0004e	0f 5a c9	 cvtps2pd xmm1, xmm1
  00051	f2 0f 59 c1	 mulsd	 xmm0, xmm1
  00055	66 0f 5a c0	 cvtpd2ps xmm0, xmm0
  00059	f3 0f 11 40 08	 movss	 DWORD PTR [eax+8], xmm0

; 408  : }

  0005e	5d		 pop	 ebp
  0005f	c3		 ret	 0
??D@YA?AUD3DXVECTOR3@@MABU0@@Z ENDP			; operator*
_TEXT	ENDS
PUBLIC	??$addressof@$$CBUExtraAniJump@@@std@@YAPBUExtraAniJump@@ABU1@@Z ; std::addressof<ExtraAniJump const >
; Function compile flags: /Ogsp
; File c:\program files (x86)\microsoft visual studio 10.0\vc\include\xmemory
;	COMDAT ??$addressof@$$CBUExtraAniJump@@@std@@YAPBUExtraAniJump@@ABU1@@Z
_TEXT	SEGMENT
__Val$ = 8						; size = 4
??$addressof@$$CBUExtraAniJump@@@std@@YAPBUExtraAniJump@@ABU1@@Z PROC ; std::addressof<ExtraAniJump const >, COMDAT

; 110  : 	{	// return address of _Val

  00000	55		 push	 ebp
  00001	8b ec		 mov	 ebp, esp

; 111  : 	return ((_Ty *) &(char&)_Val);

  00003	8b 45 08	 mov	 eax, DWORD PTR __Val$[ebp]

; 112  : 	}

  00006	5d		 pop	 ebp
  00007	c3		 ret	 0
??$addressof@$$CBUExtraAniJump@@@std@@YAPBUExtraAniJump@@ABU1@@Z ENDP ; std::addressof<ExtraAniJump const >
_TEXT	ENDS
PUBLIC	??$_Kfn@$$CBHUtagDummyAttackInfo@@@?$_Tmap_traits@HUtagDummyAttackInfo@@U?$less@H@std@@V?$allocator@U?$pair@$$CBHUtagDummyAttackInfo@@@std@@@3@$0A@@std@@SAABHABU?$pair@$$CBHUtagDummyAttackInfo@@@1@@Z ; std::_Tmap_traits<int,tagDummyAttackInfo,std::less<int>,std::allocator<std::pair<int const ,tagDummyAttackInfo> >,0>::_Kfn<int const ,tagDummyAttackInfo>
; Function compile flags: /Ogsp
; File c:\program files (x86)\microsoft visual studio 10.0\vc\include\map
;	COMDAT ??$_Kfn@$$CBHUtagDummyAttackInfo@@@?$_Tmap_traits@HUtagDummyAttackInfo@@U?$less@H@std@@V?$allocator@U?$pair@$$CBHUtagDummyAttackInfo@@@std@@@3@$0A@@std@@SAABHABU?$pair@$$CBHUtagDummyAttackInfo@@@1@@Z
_TEXT	SEGMENT
__Val$ = 8						; size = 4
??$_Kfn@$$CBHUtagDummyAttackInfo@@@?$_Tmap_traits@HUtagDummyAttackInfo@@U?$less@H@std@@V?$allocator@U?$pair@$$CBHUtagDummyAttackInfo@@@std@@@3@$0A@@std@@SAABHABU?$pair@$$CBHUtagDummyAttackInfo@@@1@@Z PROC ; std::_Tmap_traits<int,tagDummyAttackInfo,std::less<int>,std::allocator<std::pair<int const ,tagDummyAttackInfo> >,0>::_Kfn<int const ,tagDummyAttackInfo>, COMDAT

; 66   : 		static const _Kty& _Kfn(const _STD pair<_Ty1, _Ty2>& _Val)

  00000	55		 push	 ebp
  00001	8b ec		 mov	 ebp, esp

; 67   : 		{	// extract key from element value
; 68   : 		return (_Val.first);

  00003	8b 45 08	 mov	 eax, DWORD PTR __Val$[ebp]

; 69   : 		}

  00006	5d		 pop	 ebp
  00007	c3		 ret	 0
??$_Kfn@$$CBHUtagDummyAttackInfo@@@?$_Tmap_traits@HUtagDummyAttackInfo@@U?$less@H@std@@V?$allocator@U?$pair@$$CBHUtagDummyAttackInfo@@@std@@@3@$0A@@std@@SAABHABU?$pair@$$CBHUtagDummyAttackInfo@@@1@@Z ENDP ; std::_Tmap_traits<int,tagDummyAttackInfo,std::less<int>,std::allocator<std::pair<int const ,tagDummyAttackInfo> >,0>::_Kfn<int const ,tagDummyAttackInfo>
_TEXT	ENDS
PUBLIC	??$addressof@UFireTime@@@std@@YAPAUFireTime@@AAU1@@Z ; std::addressof<FireTime>
; Function compile flags: /Ogsp
; File c:\program files (x86)\microsoft visual studio 10.0\vc\include\xmemory
;	COMDAT ??$addressof@UFireTime@@@std@@YAPAUFireTime@@AAU1@@Z
_TEXT	SEGMENT
__Val$ = 8						; size = 4
??$addressof@UFireTime@@@std@@YAPAUFireTime@@AAU1@@Z PROC ; std::addressof<FireTime>, COMDAT

; 110  : 	{	// return address of _Val

  00000	55		 push	 ebp
  00001	8b ec		 mov	 ebp, esp

; 111  : 	return ((_Ty *) &(char&)_Val);

  00003	8b 45 08	 mov	 eax, DWORD PTR __Val$[ebp]

; 112  : 	}

  00006	5d		 pop	 ebp
  00007	c3		 ret	 0
??$addressof@UFireTime@@@std@@YAPAUFireTime@@AAU1@@Z ENDP ; std::addressof<FireTime>
_TEXT	ENDS
PUBLIC	??$?0M@?$allocator@U_Node@?$_List_nod@MV?$allocator@M@std@@@std@@@std@@QAE@ABV?$allocator@M@1@@Z ; std::allocator<std::_List_nod<float,std::allocator<float> >::_Node>::allocator<std::_List_nod<float,std::allocator<float> >::_Node><float>
; Function compile flags: /Ogsp
;	COMDAT ??$?0M@?$allocator@U_Node@?$_List_nod@MV?$allocator@M@std@@@std@@@std@@QAE@ABV?$allocator@M@1@@Z
_TEXT	SEGMENT
___formal$ = 8						; size = 4
??$?0M@?$allocator@U_Node@?$_List_nod@MV?$allocator@M@std@@@std@@@std@@QAE@ABV?$allocator@M@1@@Z PROC ; std::allocator<std::_List_nod<float,std::allocator<float> >::_Node>::allocator<std::_List_nod<float,std::allocator<float> >::_Node><float>, COMDAT
; _this$ = ecx

; 170  : 		_ALLOCATOR(const _ALLOCATOR<_Other>&) _THROW0()

  00000	8b c1		 mov	 eax, ecx

; 171  : 		{	// construct from a related allocator (do nothing)
; 172  : 		}

  00002	c2 04 00	 ret	 4
??$?0M@?$allocator@U_Node@?$_List_nod@MV?$allocator@M@std@@@std@@@std@@QAE@ABV?$allocator@M@1@@Z ENDP ; std::allocator<std::_List_nod<float,std::allocator<float> >::_Node>::allocator<std::_List_nod<float,std::allocator<float> >::_Node><float>
_TEXT	ENDS
PUBLIC	__TI2?AVbad_alloc@std@@
PUBLIC	??$_Allocate@U_Node@?$_List_nod@MV?$allocator@M@std@@@std@@@std@@YAPAU_Node@?$_List_nod@MV?$allocator@M@std@@@0@IPAU120@@Z ; std::_Allocate<std::_List_nod<float,std::allocator<float> >::_Node>
PUBLIC	__CTA2?AVbad_alloc@std@@
PUBLIC	__CT??_R0?AVbad_alloc@std@@@8??0bad_alloc@std@@QAE@ABV01@@Z12
PUBLIC	??0bad_alloc@std@@QAE@ABV01@@Z			; std::bad_alloc::bad_alloc
PUBLIC	__CT??_R0?AVexception@std@@@8??0exception@std@@QAE@ABV01@@Z12
EXTRN	??2@YAPAXI@Z:PROC				; operator new
EXTRN	__CxxThrowException@8:PROC
EXTRN	??0exception@std@@QAE@ABV01@@Z:PROC		; std::exception::exception
;	COMDAT __CT??_R0?AVexception@std@@@8??0exception@std@@QAE@ABV01@@Z12
; File c:\program files (x86)\microsoft visual studio 10.0\vc\include\exception
xdata$x	SEGMENT
__CT??_R0?AVexception@std@@@8??0exception@std@@QAE@ABV01@@Z12 DD 00H
	DD	FLAT:??_R0?AVexception@std@@@8
	DD	00H
	DD	0ffffffffH
	ORG $+4
	DD	0cH
	DD	FLAT:??0exception@std@@QAE@ABV01@@Z
xdata$x	ENDS
;	COMDAT __CT??_R0?AVbad_alloc@std@@@8??0bad_alloc@std@@QAE@ABV01@@Z12
xdata$x	SEGMENT
__CT??_R0?AVbad_alloc@std@@@8??0bad_alloc@std@@QAE@ABV01@@Z12 DD 00H
	DD	FLAT:??_R0?AVbad_alloc@std@@@8
	DD	00H
	DD	0ffffffffH
	ORG $+4
	DD	0cH
	DD	FLAT:??0bad_alloc@std@@QAE@ABV01@@Z
xdata$x	ENDS
;	COMDAT __CTA2?AVbad_alloc@std@@
xdata$x	SEGMENT
__CTA2?AVbad_alloc@std@@ DD 02H
	DD	FLAT:__CT??_R0?AVbad_alloc@std@@@8??0bad_alloc@std@@QAE@ABV01@@Z12
	DD	FLAT:__CT??_R0?AVexception@std@@@8??0exception@std@@QAE@ABV01@@Z12
xdata$x	ENDS
;	COMDAT __TI2?AVbad_alloc@std@@
xdata$x	SEGMENT
__TI2?AVbad_alloc@std@@ DD 00H
	DD	FLAT:??1bad_alloc@std@@UAE@XZ
	DD	00H
	DD	FLAT:__CTA2?AVbad_alloc@std@@
; Function compile flags: /Ogsp
; File c:\program files (x86)\microsoft visual studio 10.0\vc\include\xmemory
xdata$x	ENDS
;	COMDAT ??$_Allocate@U_Node@?$_List_nod@MV?$allocator@M@std@@@std@@@std@@YAPAU_Node@?$_List_nod@MV?$allocator@M@std@@@0@IPAU120@@Z
_TEXT	SEGMENT
$T536821 = -12						; size = 12
$T536826 = 8						; size = 4
__Count$ = 8						; size = 4
___formal$ = 12						; size = 4
??$_Allocate@U_Node@?$_List_nod@MV?$allocator@M@std@@@std@@@std@@YAPAU_Node@?$_List_nod@MV?$allocator@M@std@@@0@IPAU120@@Z PROC ; std::_Allocate<std::_List_nod<float,std::allocator<float> >::_Node>, COMDAT

; 30   : 	{	// allocate storage for _Count elements of type _Ty

  00000	55		 push	 ebp
  00001	8b ec		 mov	 ebp, esp

; 31   : 	void *_Ptr = 0;
; 32   : 
; 33   : 	if (_Count <= 0)

  00003	8b 4d 08	 mov	 ecx, DWORD PTR __Count$[ebp]
  00006	83 ec 0c	 sub	 esp, 12			; 0000000cH
  00009	33 c0		 xor	 eax, eax
  0000b	85 c9		 test	 ecx, ecx

; 34   : 		_Count = 0;
; 35   : 	else if (((_SIZT)(-1) / sizeof (_Ty) < _Count)

  0000d	74 3c		 je	 SHORT $LN5@Allocate

; 36   : 		|| (_Ptr = ::operator new(_Count * sizeof (_Ty))) == 0)

  0000f	81 f9 55 55 55
	15		 cmp	 ecx, 357913941		; 15555555H
  00015	77 0e		 ja	 SHORT $LN1@Allocate
  00017	6b c9 0c	 imul	 ecx, 12			; 0000000cH
  0001a	51		 push	 ecx
  0001b	e8 00 00 00 00	 call	 ??2@YAPAXI@Z		; operator new
  00020	59		 pop	 ecx
  00021	85 c0		 test	 eax, eax

; 38   : 
; 39   : 	return ((_Ty _FARQ *)_Ptr);

  00023	75 26		 jne	 SHORT $LN5@Allocate
$LN1@Allocate:

; 37   : 		_THROW_NCEE(bad_alloc, 0);

  00025	83 65 08 00	 and	 DWORD PTR $T536826[ebp], 0
  00029	8d 45 08	 lea	 eax, DWORD PTR $T536826[ebp]
  0002c	50		 push	 eax
  0002d	8d 4d f4	 lea	 ecx, DWORD PTR $T536821[ebp]
  00030	ff 15 00 00 00
	00		 call	 DWORD PTR __imp_??0exception@std@@QAE@ABQBD@Z
  00036	68 00 00 00 00	 push	 OFFSET __TI2?AVbad_alloc@std@@
  0003b	8d 45 f4	 lea	 eax, DWORD PTR $T536821[ebp]
  0003e	50		 push	 eax
  0003f	c7 45 f4 00 00
	00 00		 mov	 DWORD PTR $T536821[ebp], OFFSET ??_7bad_alloc@std@@6B@
  00046	e8 00 00 00 00	 call	 __CxxThrowException@8
$LN10@Allocate:
$LN5@Allocate:

; 40   : 	}

  0004b	c9		 leave
  0004c	c3		 ret	 0
$LN9@Allocate:
??$_Allocate@U_Node@?$_List_nod@MV?$allocator@M@std@@@std@@@std@@YAPAU_Node@?$_List_nod@MV?$allocator@M@std@@@0@IPAU120@@Z ENDP ; std::_Allocate<std::_List_nod<float,std::allocator<float> >::_Node>
_TEXT	ENDS
PUBLIC	??$_Allocate@U_Node@?$_List_nod@UFireTime@@V?$allocator@UFireTime@@@std@@@std@@@std@@YAPAU_Node@?$_List_nod@UFireTime@@V?$allocator@UFireTime@@@std@@@0@IPAU120@@Z ; std::_Allocate<std::_List_nod<FireTime,std::allocator<FireTime> >::_Node>
; Function compile flags: /Ogsp
;	COMDAT ??$_Allocate@U_Node@?$_List_nod@UFireTime@@V?$allocator@UFireTime@@@std@@@std@@@std@@YAPAU_Node@?$_List_nod@UFireTime@@V?$allocator@UFireTime@@@std@@@0@IPAU120@@Z
_TEXT	SEGMENT
$T536831 = -12						; size = 12
$T536835 = 8						; size = 4
__Count$ = 8						; size = 4
___formal$ = 12						; size = 4
??$_Allocate@U_Node@?$_List_nod@UFireTime@@V?$allocator@UFireTime@@@std@@@std@@@std@@YAPAU_Node@?$_List_nod@UFireTime@@V?$allocator@UFireTime@@@std@@@0@IPAU120@@Z PROC ; std::_Allocate<std::_List_nod<FireTime,std::allocator<FireTime> >::_Node>, COMDAT

; 30   : 	{	// allocate storage for _Count elements of type _Ty

  00000	55		 push	 ebp
  00001	8b ec		 mov	 ebp, esp

; 31   : 	void *_Ptr = 0;
; 32   : 
; 33   : 	if (_Count <= 0)

  00003	8b 4d 08	 mov	 ecx, DWORD PTR __Count$[ebp]
  00006	83 ec 0c	 sub	 esp, 12			; 0000000cH
  00009	33 c0		 xor	 eax, eax
  0000b	85 c9		 test	 ecx, ecx

; 34   : 		_Count = 0;
; 35   : 	else if (((_SIZT)(-1) / sizeof (_Ty) < _Count)

  0000d	74 3c		 je	 SHORT $LN5@Allocate@2

; 36   : 		|| (_Ptr = ::operator new(_Count * sizeof (_Ty))) == 0)

  0000f	81 f9 aa aa aa
	02		 cmp	 ecx, 44739242		; 02aaaaaaH
  00015	77 0e		 ja	 SHORT $LN1@Allocate@2
  00017	6b c9 60	 imul	 ecx, 96			; 00000060H
  0001a	51		 push	 ecx
  0001b	e8 00 00 00 00	 call	 ??2@YAPAXI@Z		; operator new
  00020	59		 pop	 ecx
  00021	85 c0		 test	 eax, eax

; 38   : 
; 39   : 	return ((_Ty _FARQ *)_Ptr);

  00023	75 26		 jne	 SHORT $LN5@Allocate@2
$LN1@Allocate@2:

; 37   : 		_THROW_NCEE(bad_alloc, 0);

  00025	83 65 08 00	 and	 DWORD PTR $T536835[ebp], 0
  00029	8d 45 08	 lea	 eax, DWORD PTR $T536835[ebp]
  0002c	50		 push	 eax
  0002d	8d 4d f4	 lea	 ecx, DWORD PTR $T536831[ebp]
  00030	ff 15 00 00 00
	00		 call	 DWORD PTR __imp_??0exception@std@@QAE@ABQBD@Z
  00036	68 00 00 00 00	 push	 OFFSET __TI2?AVbad_alloc@std@@
  0003b	8d 45 f4	 lea	 eax, DWORD PTR $T536831[ebp]
  0003e	50		 push	 eax
  0003f	c7 45 f4 00 00
	00 00		 mov	 DWORD PTR $T536831[ebp], OFFSET ??_7bad_alloc@std@@6B@
  00046	e8 00 00 00 00	 call	 __CxxThrowException@8
$LN10@Allocate@2:
$LN5@Allocate@2:

; 40   : 	}

  0004b	c9		 leave
  0004c	c3		 ret	 0
$LN9@Allocate@2:
??$_Allocate@U_Node@?$_List_nod@UFireTime@@V?$allocator@UFireTime@@@std@@@std@@@std@@YAPAU_Node@?$_List_nod@UFireTime@@V?$allocator@UFireTime@@@std@@@0@IPAU120@@Z ENDP ; std::_Allocate<std::_List_nod<FireTime,std::allocator<FireTime> >::_Node>
_TEXT	ENDS
PUBLIC	??$_Allocate@UExtraAniJump@@@std@@YAPAUExtraAniJump@@IPAU1@@Z ; std::_Allocate<ExtraAniJump>
; Function compile flags: /Ogsp
;	COMDAT ??$_Allocate@UExtraAniJump@@@std@@YAPAUExtraAniJump@@IPAU1@@Z
_TEXT	SEGMENT
$T536840 = -12						; size = 12
$T536844 = 8						; size = 4
__Count$ = 8						; size = 4
___formal$ = 12						; size = 4
??$_Allocate@UExtraAniJump@@@std@@YAPAUExtraAniJump@@IPAU1@@Z PROC ; std::_Allocate<ExtraAniJump>, COMDAT

; 30   : 	{	// allocate storage for _Count elements of type _Ty

  00000	55		 push	 ebp
  00001	8b ec		 mov	 ebp, esp

; 31   : 	void *_Ptr = 0;
; 32   : 
; 33   : 	if (_Count <= 0)

  00003	8b 4d 08	 mov	 ecx, DWORD PTR __Count$[ebp]
  00006	83 ec 0c	 sub	 esp, 12			; 0000000cH
  00009	33 c0		 xor	 eax, eax
  0000b	85 c9		 test	 ecx, ecx

; 34   : 		_Count = 0;
; 35   : 	else if (((_SIZT)(-1) / sizeof (_Ty) < _Count)

  0000d	74 3e		 je	 SHORT $LN5@Allocate@3

; 36   : 		|| (_Ptr = ::operator new(_Count * sizeof (_Ty))) == 0)

  0000f	81 f9 ff ff ff
	1f		 cmp	 ecx, 536870911		; 1fffffffH
  00015	77 10		 ja	 SHORT $LN1@Allocate@3
  00017	8b c1		 mov	 eax, ecx
  00019	c1 e0 03	 shl	 eax, 3
  0001c	50		 push	 eax
  0001d	e8 00 00 00 00	 call	 ??2@YAPAXI@Z		; operator new
  00022	59		 pop	 ecx
  00023	85 c0		 test	 eax, eax

; 38   : 
; 39   : 	return ((_Ty _FARQ *)_Ptr);

  00025	75 26		 jne	 SHORT $LN5@Allocate@3
$LN1@Allocate@3:

; 37   : 		_THROW_NCEE(bad_alloc, 0);

  00027	83 65 08 00	 and	 DWORD PTR $T536844[ebp], 0
  0002b	8d 45 08	 lea	 eax, DWORD PTR $T536844[ebp]
  0002e	50		 push	 eax
  0002f	8d 4d f4	 lea	 ecx, DWORD PTR $T536840[ebp]
  00032	ff 15 00 00 00
	00		 call	 DWORD PTR __imp_??0exception@std@@QAE@ABQBD@Z
  00038	68 00 00 00 00	 push	 OFFSET __TI2?AVbad_alloc@std@@
  0003d	8d 45 f4	 lea	 eax, DWORD PTR $T536840[ebp]
  00040	50		 push	 eax
  00041	c7 45 f4 00 00
	00 00		 mov	 DWORD PTR $T536840[ebp], OFFSET ??_7bad_alloc@std@@6B@
  00048	e8 00 00 00 00	 call	 __CxxThrowException@8
$LN10@Allocate@3:
$LN5@Allocate@3:

; 40   : 	}

  0004d	c9		 leave
  0004e	c3		 ret	 0
$LN9@Allocate@3:
??$_Allocate@UExtraAniJump@@@std@@YAPAUExtraAniJump@@IPAU1@@Z ENDP ; std::_Allocate<ExtraAniJump>
_TEXT	ENDS
PUBLIC	??$forward@AAUExtraAniJump@@@std@@YAAAUExtraAniJump@@AAU1@@Z ; std::forward<ExtraAniJump &>
; Function compile flags: /Ogsp
; File c:\program files (x86)\microsoft visual studio 10.0\vc\include\utility
;	COMDAT ??$forward@AAUExtraAniJump@@@std@@YAAAUExtraAniJump@@AAU1@@Z
_TEXT	SEGMENT
__Arg$ = 8						; size = 4
??$forward@AAUExtraAniJump@@@std@@YAAAUExtraAniJump@@AAU1@@Z PROC ; std::forward<ExtraAniJump &>, COMDAT

; 78   : 	{	// forward _Arg, given explicitly specified type parameter

  00000	55		 push	 ebp
  00001	8b ec		 mov	 ebp, esp

; 79   : 	return ((_Ty&&)_Arg);

  00003	8b 45 08	 mov	 eax, DWORD PTR __Arg$[ebp]

; 80   : 	}

  00006	5d		 pop	 ebp
  00007	c3		 ret	 0
??$forward@AAUExtraAniJump@@@std@@YAAAUExtraAniJump@@AAU1@@Z ENDP ; std::forward<ExtraAniJump &>
_TEXT	ENDS
PUBLIC	??$construct@AAUExtraAniJump@@@?$allocator@UExtraAniJump@@@std@@QAEXPAUExtraAniJump@@AAU2@@Z ; std::allocator<ExtraAniJump>::construct<ExtraAniJump &>
; Function compile flags: /Ogsp
; File c:\program files (x86)\microsoft visual studio 10.0\vc\include\xmemory
;	COMDAT ??$construct@AAUExtraAniJump@@@?$allocator@UExtraAniJump@@@std@@QAEXPAUExtraAniJump@@AAU2@@Z
_TEXT	SEGMENT
__Ptr$ = 8						; size = 4
__Val$ = 12						; size = 4
??$construct@AAUExtraAniJump@@@?$allocator@UExtraAniJump@@@std@@QAEXPAUExtraAniJump@@AAU2@@Z PROC ; std::allocator<ExtraAniJump>::construct<ExtraAniJump &>, COMDAT
; _this$ = ecx

; 206  : 		void construct(pointer _Ptr, _Other&& _Val)

  00000	55		 push	 ebp
  00001	8b ec		 mov	 ebp, esp

; 207  : 		{	// construct object at _Ptr with value _Val
; 208  : 		::new ((void _FARQ *)_Ptr) _Ty(_STD forward<_Other>(_Val));

  00003	8b 45 08	 mov	 eax, DWORD PTR __Ptr$[ebp]
  00006	85 c0		 test	 eax, eax
  00008	74 0d		 je	 SHORT $LN3@construct
  0000a	8b 4d 0c	 mov	 ecx, DWORD PTR __Val$[ebp]
  0000d	8b 11		 mov	 edx, DWORD PTR [ecx]
  0000f	89 10		 mov	 DWORD PTR [eax], edx
  00011	8b 49 04	 mov	 ecx, DWORD PTR [ecx+4]
  00014	89 48 04	 mov	 DWORD PTR [eax+4], ecx
$LN3@construct:

; 209  : 		}

  00017	5d		 pop	 ebp
  00018	c2 08 00	 ret	 8
??$construct@AAUExtraAniJump@@@?$allocator@UExtraAniJump@@@std@@QAEXPAUExtraAniJump@@AAU2@@Z ENDP ; std::allocator<ExtraAniJump>::construct<ExtraAniJump &>
_TEXT	ENDS
PUBLIC	??$forward@ABUExtraAniJump@@@std@@YAABUExtraAniJump@@ABU1@@Z ; std::forward<ExtraAniJump const &>
; Function compile flags: /Ogsp
; File c:\program files (x86)\microsoft visual studio 10.0\vc\include\utility
;	COMDAT ??$forward@ABUExtraAniJump@@@std@@YAABUExtraAniJump@@ABU1@@Z
_TEXT	SEGMENT
__Arg$ = 8						; size = 4
??$forward@ABUExtraAniJump@@@std@@YAABUExtraAniJump@@ABU1@@Z PROC ; std::forward<ExtraAniJump const &>, COMDAT

; 78   : 	{	// forward _Arg, given explicitly specified type parameter

  00000	55		 push	 ebp
  00001	8b ec		 mov	 ebp, esp

; 79   : 	return ((_Ty&&)_Arg);

  00003	8b 45 08	 mov	 eax, DWORD PTR __Arg$[ebp]

; 80   : 	}

  00006	5d		 pop	 ebp
  00007	c3		 ret	 0
??$forward@ABUExtraAniJump@@@std@@YAABUExtraAniJump@@ABU1@@Z ENDP ; std::forward<ExtraAniJump const &>
_TEXT	ENDS
PUBLIC	??$_Ptr_cat@UExtraAniJump@@U1@@std@@YA?AU_Nonscalar_ptr_iterator_tag@0@PAUExtraAniJump@@0@Z ; std::_Ptr_cat<ExtraAniJump,ExtraAniJump>
; Function compile flags: /Ogsp
; File c:\program files (x86)\microsoft visual studio 10.0\vc\include\xutility
;	COMDAT ??$_Ptr_cat@UExtraAniJump@@U1@@std@@YA?AU_Nonscalar_ptr_iterator_tag@0@PAUExtraAniJump@@0@Z
_TEXT	SEGMENT
__Cat$ = -1						; size = 1
___formal$ = 8						; size = 4
___formal$ = 12						; size = 4
??$_Ptr_cat@UExtraAniJump@@U1@@std@@YA?AU_Nonscalar_ptr_iterator_tag@0@PAUExtraAniJump@@0@Z PROC ; std::_Ptr_cat<ExtraAniJump,ExtraAniJump>, COMDAT

; 516  : 	{	// return pointer category from pointers

  00000	55		 push	 ebp
  00001	8b ec		 mov	 ebp, esp
  00003	51		 push	 ecx

; 517  : 	typename _Ptr_cat_helper<_Elem1, _Elem2>::_Type _Cat;
; 518  : 	return (_Cat);

  00004	8a 45 ff	 mov	 al, BYTE PTR __Cat$[ebp]

; 519  : 	}

  00007	c9		 leave
  00008	c3		 ret	 0
??$_Ptr_cat@UExtraAniJump@@U1@@std@@YA?AU_Nonscalar_ptr_iterator_tag@0@PAUExtraAniJump@@0@Z ENDP ; std::_Ptr_cat<ExtraAniJump,ExtraAniJump>
_TEXT	ENDS
PUBLIC	??$forward@ABUFireTime@@@std@@YAABUFireTime@@ABU1@@Z ; std::forward<FireTime const &>
; Function compile flags: /Ogsp
; File c:\program files (x86)\microsoft visual studio 10.0\vc\include\utility
;	COMDAT ??$forward@ABUFireTime@@@std@@YAABUFireTime@@ABU1@@Z
_TEXT	SEGMENT
__Arg$ = 8						; size = 4
??$forward@ABUFireTime@@@std@@YAABUFireTime@@ABU1@@Z PROC ; std::forward<FireTime const &>, COMDAT

; 78   : 	{	// forward _Arg, given explicitly specified type parameter

  00000	55		 push	 ebp
  00001	8b ec		 mov	 ebp, esp

; 79   : 	return ((_Ty&&)_Arg);

  00003	8b 45 08	 mov	 eax, DWORD PTR __Arg$[ebp]

; 80   : 	}

  00006	5d		 pop	 ebp
  00007	c3		 ret	 0
??$forward@ABUFireTime@@@std@@YAABUFireTime@@ABU1@@Z ENDP ; std::forward<FireTime const &>
_TEXT	ENDS
PUBLIC	??$_Ptr_cat@PBUAniEventTime@@PBU1@@std@@YA?AU_Scalar_ptr_iterator_tag@0@PAPBUAniEventTime@@0@Z ; std::_Ptr_cat<AniEventTime const *,AniEventTime const *>
; Function compile flags: /Ogsp
; File c:\program files (x86)\microsoft visual studio 10.0\vc\include\xutility
;	COMDAT ??$_Ptr_cat@PBUAniEventTime@@PBU1@@std@@YA?AU_Scalar_ptr_iterator_tag@0@PAPBUAniEventTime@@0@Z
_TEXT	SEGMENT
__Cat$ = -1						; size = 1
___formal$ = 8						; size = 4
___formal$ = 12						; size = 4
??$_Ptr_cat@PBUAniEventTime@@PBU1@@std@@YA?AU_Scalar_ptr_iterator_tag@0@PAPBUAniEventTime@@0@Z PROC ; std::_Ptr_cat<AniEventTime const *,AniEventTime const *>, COMDAT

; 516  : 	{	// return pointer category from pointers

  00000	55		 push	 ebp
  00001	8b ec		 mov	 ebp, esp
  00003	51		 push	 ecx

; 517  : 	typename _Ptr_cat_helper<_Elem1, _Elem2>::_Type _Cat;
; 518  : 	return (_Cat);

  00004	8a 45 ff	 mov	 al, BYTE PTR __Cat$[ebp]

; 519  : 	}

  00007	c9		 leave
  00008	c3		 ret	 0
??$_Ptr_cat@PBUAniEventTime@@PBU1@@std@@YA?AU_Scalar_ptr_iterator_tag@0@PAPBUAniEventTime@@0@Z ENDP ; std::_Ptr_cat<AniEventTime const *,AniEventTime const *>
_TEXT	ENDS
PUBLIC	??$_Destroy_range@V?$allocator@PBUAniEventTime@@@std@@@std@@YAXPAPBUAniEventTime@@0AAV?$allocator@PBUAniEventTime@@@0@U_Scalar_ptr_iterator_tag@0@@Z ; std::_Destroy_range<std::allocator<AniEventTime const *> >
; Function compile flags: /Ogsp
; File c:\program files (x86)\microsoft visual studio 10.0\vc\include\xmemory
;	COMDAT ??$_Destroy_range@V?$allocator@PBUAniEventTime@@@std@@@std@@YAXPAPBUAniEventTime@@0AAV?$allocator@PBUAniEventTime@@@0@U_Scalar_ptr_iterator_tag@0@@Z
_TEXT	SEGMENT
__First$ = 8						; size = 4
__Last$ = 12						; size = 4
__Al$ = 16						; size = 4
___formal$ = 20						; size = 1
??$_Destroy_range@V?$allocator@PBUAniEventTime@@@std@@@std@@YAXPAPBUAniEventTime@@0AAV?$allocator@PBUAniEventTime@@@0@U_Scalar_ptr_iterator_tag@0@@Z PROC ; std::_Destroy_range<std::allocator<AniEventTime const *> >, COMDAT

; 105  : 	}

  00000	c3		 ret	 0
??$_Destroy_range@V?$allocator@PBUAniEventTime@@@std@@@std@@YAXPAPBUAniEventTime@@0AAV?$allocator@PBUAniEventTime@@@0@U_Scalar_ptr_iterator_tag@0@@Z ENDP ; std::_Destroy_range<std::allocator<AniEventTime const *> >
_TEXT	ENDS
PUBLIC	??$_Construct@UExtraAniJump@@ABU1@@std@@YAXPAUExtraAniJump@@ABU1@@Z ; std::_Construct<ExtraAniJump,ExtraAniJump const &>
; Function compile flags: /Ogsp
;	COMDAT ??$_Construct@UExtraAniJump@@ABU1@@std@@YAXPAUExtraAniJump@@ABU1@@Z
_TEXT	SEGMENT
__Ptr$ = 8						; size = 4
__Val$ = 12						; size = 4
??$_Construct@UExtraAniJump@@ABU1@@std@@YAXPAUExtraAniJump@@ABU1@@Z PROC ; std::_Construct<ExtraAniJump,ExtraAniJump const &>, COMDAT

; 46   : 	{	// construct object at _Ptr with value _Val

  00000	55		 push	 ebp
  00001	8b ec		 mov	 ebp, esp

; 47   : 	void _FARQ *_Vptr = _Ptr;
; 48   : 	::new (_Vptr) _Ty1(_STD forward<_Ty2>(_Val));

  00003	8b 45 08	 mov	 eax, DWORD PTR __Ptr$[ebp]
  00006	85 c0		 test	 eax, eax
  00008	74 0d		 je	 SHORT $LN3@Construct
  0000a	8b 4d 0c	 mov	 ecx, DWORD PTR __Val$[ebp]
  0000d	8b 11		 mov	 edx, DWORD PTR [ecx]
  0000f	89 10		 mov	 DWORD PTR [eax], edx
  00011	8b 49 04	 mov	 ecx, DWORD PTR [ecx+4]
  00014	89 48 04	 mov	 DWORD PTR [eax+4], ecx
$LN3@Construct:

; 49   : 	}

  00017	5d		 pop	 ebp
  00018	c3		 ret	 0
??$_Construct@UExtraAniJump@@ABU1@@std@@YAXPAUExtraAniJump@@ABU1@@Z ENDP ; std::_Construct<ExtraAniJump,ExtraAniJump const &>
_TEXT	ENDS
PUBLIC	??$_Destroy@U_Node@?$_List_nod@MV?$allocator@M@std@@@std@@@std@@YAXPAU_Node@?$_List_nod@MV?$allocator@M@std@@@0@@Z ; std::_Destroy<std::_List_nod<float,std::allocator<float> >::_Node>
; Function compile flags: /Ogsp
;	COMDAT ??$_Destroy@U_Node@?$_List_nod@MV?$allocator@M@std@@@std@@@std@@YAXPAU_Node@?$_List_nod@MV?$allocator@M@std@@@0@@Z
_TEXT	SEGMENT
__Ptr$ = 8						; size = 4
??$_Destroy@U_Node@?$_List_nod@MV?$allocator@M@std@@@std@@@std@@YAXPAU_Node@?$_List_nod@MV?$allocator@M@std@@@0@@Z PROC ; std::_Destroy<std::_List_nod<float,std::allocator<float> >::_Node>, COMDAT

; 63   : 	_Ptr->~_Ty();
; 64   : 	}

  00000	c3		 ret	 0
??$_Destroy@U_Node@?$_List_nod@MV?$allocator@M@std@@@std@@@std@@YAXPAU_Node@?$_List_nod@MV?$allocator@M@std@@@0@@Z ENDP ; std::_Destroy<std::_List_nod<float,std::allocator<float> >::_Node>
_TEXT	ENDS
PUBLIC	??0FireTime@@QAE@ABU0@@Z			; FireTime::FireTime
EXTRN	__imp_??0ioHashString@@QAE@ABV0@@Z:PROC
;	COMDAT xdata$x
xdata$x	SEGMENT
__unwindtable$??0FireTime@@QAE@ABU0@@Z DD 0ffffffffH
	DD	FLAT:__unwindfunclet$??0FireTime@@QAE@ABU0@@Z$0
	DD	00H
	DD	FLAT:__unwindfunclet$??0FireTime@@QAE@ABU0@@Z$1
__ehfuncinfo$??0FireTime@@QAE@ABU0@@Z DD 019930522H
	DD	02H
	DD	FLAT:__unwindtable$??0FireTime@@QAE@ABU0@@Z
	DD	2 DUP(00H)
	DD	2 DUP(00H)
	DD	00H
	DD	01H
; Function compile flags: /Ogsp
xdata$x	ENDS
;	COMDAT ??0FireTime@@QAE@ABU0@@Z
_TEXT	SEGMENT
_this$ = -16						; size = 4
__$EHRec$ = -12						; size = 12
___that$ = 8						; size = 4
??0FireTime@@QAE@ABU0@@Z PROC				; FireTime::FireTime, COMDAT
; _this$ = ecx
  00000	6a 04		 push	 4
  00002	b8 00 00 00 00	 mov	 eax, __ehhandler$??0FireTime@@QAE@ABU0@@Z
  00007	e8 00 00 00 00	 call	 __EH_prolog3
  0000c	8b f1		 mov	 esi, ecx
  0000e	89 75 f0	 mov	 DWORD PTR _this$[ebp], esi
  00011	8b 7d 08	 mov	 edi, DWORD PTR ___that$[ebp]
  00014	8b 07		 mov	 eax, DWORD PTR [edi]
  00016	8b 1d 00 00 00
	00		 mov	 ebx, DWORD PTR __imp_??0ioHashString@@QAE@ABV0@@Z
  0001c	89 06		 mov	 DWORD PTR [esi], eax
  0001e	8b 47 04	 mov	 eax, DWORD PTR [edi+4]
  00021	89 46 04	 mov	 DWORD PTR [esi+4], eax
  00024	8b 47 08	 mov	 eax, DWORD PTR [edi+8]
  00027	89 46 08	 mov	 DWORD PTR [esi+8], eax
  0002a	8b 47 0c	 mov	 eax, DWORD PTR [edi+12]
  0002d	89 46 0c	 mov	 DWORD PTR [esi+12], eax
  00030	8a 47 10	 mov	 al, BYTE PTR [edi+16]
  00033	88 46 10	 mov	 BYTE PTR [esi+16], al
  00036	8d 47 14	 lea	 eax, DWORD PTR [edi+20]
  00039	50		 push	 eax
  0003a	8d 4e 14	 lea	 ecx, DWORD PTR [esi+20]
  0003d	ff d3		 call	 ebx
  0003f	8b 47 24	 mov	 eax, DWORD PTR [edi+36]
  00042	83 65 fc 00	 and	 DWORD PTR __$EHRec$[ebp+8], 0
  00046	89 46 24	 mov	 DWORD PTR [esi+36], eax
  00049	8b 47 28	 mov	 eax, DWORD PTR [edi+40]
  0004c	89 46 28	 mov	 DWORD PTR [esi+40], eax
  0004f	8b 47 2c	 mov	 eax, DWORD PTR [edi+44]
  00052	89 46 2c	 mov	 DWORD PTR [esi+44], eax
  00055	8d 47 30	 lea	 eax, DWORD PTR [edi+48]
  00058	50		 push	 eax
  00059	8d 4e 30	 lea	 ecx, DWORD PTR [esi+48]
  0005c	ff d3		 call	 ebx
  0005e	8b 47 40	 mov	 eax, DWORD PTR [edi+64]
  00061	89 46 40	 mov	 DWORD PTR [esi+64], eax
  00064	8d 47 44	 lea	 eax, DWORD PTR [edi+68]
  00067	50		 push	 eax
  00068	8d 4e 44	 lea	 ecx, DWORD PTR [esi+68]
  0006b	c6 45 fc 01	 mov	 BYTE PTR __$EHRec$[ebp+8], 1
  0006f	ff d3		 call	 ebx
  00071	8b 47 54	 mov	 eax, DWORD PTR [edi+84]
  00074	89 46 54	 mov	 DWORD PTR [esi+84], eax
  00077	8b c6		 mov	 eax, esi
  00079	e8 00 00 00 00	 call	 __EH_epilog3
  0007e	c2 04 00	 ret	 4
_TEXT	ENDS
;	COMDAT text$x
text$x	SEGMENT
__unwindfunclet$??0FireTime@@QAE@ABU0@@Z$0:
  00000	8b 4d f0	 mov	 ecx, DWORD PTR _this$[ebp]
  00003	83 c1 14	 add	 ecx, 20			; 00000014H
  00006	ff 25 00 00 00
	00		 jmp	 DWORD PTR __imp_??1ioHashString@@QAE@XZ
__unwindfunclet$??0FireTime@@QAE@ABU0@@Z$1:
  0000c	8b 4d f0	 mov	 ecx, DWORD PTR _this$[ebp]
  0000f	83 c1 30	 add	 ecx, 48			; 00000030H
  00012	ff 25 00 00 00
	00		 jmp	 DWORD PTR __imp_??1ioHashString@@QAE@XZ
__ehhandler$??0FireTime@@QAE@ABU0@@Z:
  00018	8b 54 24 08	 mov	 edx, DWORD PTR [esp+8]
  0001c	8d 42 0c	 lea	 eax, DWORD PTR [edx+12]
  0001f	8b 4a ec	 mov	 ecx, DWORD PTR [edx-20]
  00022	33 c8		 xor	 ecx, eax
  00024	e8 00 00 00 00	 call	 @__security_check_cookie@4
  00029	b8 00 00 00 00	 mov	 eax, OFFSET __ehfuncinfo$??0FireTime@@QAE@ABU0@@Z
  0002e	e9 00 00 00 00	 jmp	 ___CxxFrameHandler3
text$x	ENDS
??0FireTime@@QAE@ABU0@@Z ENDP				; FireTime::FireTime
PUBLIC	??1_Node@?$_List_nod@UFireTime@@V?$allocator@UFireTime@@@std@@@std@@QAE@XZ ; std::_List_nod<FireTime,std::allocator<FireTime> >::_Node::~_Node
; Function compile flags: /Ogsp
;	COMDAT ??1_Node@?$_List_nod@UFireTime@@V?$allocator@UFireTime@@@std@@@std@@QAE@XZ
_TEXT	SEGMENT
??1_Node@?$_List_nod@UFireTime@@V?$allocator@UFireTime@@@std@@@std@@QAE@XZ PROC ; std::_List_nod<FireTime,std::allocator<FireTime> >::_Node::~_Node, COMDAT
; _this$ = ecx
  00000	83 c1 08	 add	 ecx, 8
  00003	e9 00 00 00 00	 jmp	 ??1FireTime@@QAE@XZ
??1_Node@?$_List_nod@UFireTime@@V?$allocator@UFireTime@@@std@@@std@@QAE@XZ ENDP ; std::_List_nod<FireTime,std::allocator<FireTime> >::_Node::~_Node
_TEXT	ENDS
PUBLIC	??$move@AAUExtraAniJump@@@std@@YA$$QAUExtraAniJump@@AAU1@@Z ; std::move<ExtraAniJump &>
; Function compile flags: /Ogsp
; File c:\program files (x86)\microsoft visual studio 10.0\vc\include\utility
;	COMDAT ??$move@AAUExtraAniJump@@@std@@YA$$QAUExtraAniJump@@AAU1@@Z
_TEXT	SEGMENT
__Arg$ = 8						; size = 4
??$move@AAUExtraAniJump@@@std@@YA$$QAUExtraAniJump@@AAU1@@Z PROC ; std::move<ExtraAniJump &>, COMDAT

; 86   : 	{	// forward _Arg as movable

  00000	55		 push	 ebp
  00001	8b ec		 mov	 ebp, esp

; 87   : 	return ((typename tr1::_Remove_reference<_Ty>::_Type&&)_Arg);

  00003	8b 45 08	 mov	 eax, DWORD PTR __Arg$[ebp]

; 88   : 	}

  00006	5d		 pop	 ebp
  00007	c3		 ret	 0
??$move@AAUExtraAniJump@@@std@@YA$$QAUExtraAniJump@@AAU1@@Z ENDP ; std::move<ExtraAniJump &>
_TEXT	ENDS
PUBLIC	??$_Val_type@PAUExtraAniJump@@@std@@YAPAUExtraAniJump@@PAU1@@Z ; std::_Val_type<ExtraAniJump *>
; Function compile flags: /Ogsp
; File c:\program files (x86)\microsoft visual studio 10.0\vc\include\xutility
;	COMDAT ??$_Val_type@PAUExtraAniJump@@@std@@YAPAUExtraAniJump@@PAU1@@Z
_TEXT	SEGMENT
___formal$ = 8						; size = 4
??$_Val_type@PAUExtraAniJump@@@std@@YAPAUExtraAniJump@@PAU1@@Z PROC ; std::_Val_type<ExtraAniJump *>, COMDAT

; 790  : 	return (0);

  00000	33 c0		 xor	 eax, eax

; 791  : 	}

  00002	c3		 ret	 0
??$_Val_type@PAUExtraAniJump@@@std@@YAPAUExtraAniJump@@PAU1@@Z ENDP ; std::_Val_type<ExtraAniJump *>
_TEXT	ENDS
PUBLIC	??$_Destroy@UExtraAniJump@@@std@@YAXPAUExtraAniJump@@@Z ; std::_Destroy<ExtraAniJump>
; Function compile flags: /Ogsp
; File c:\program files (x86)\microsoft visual studio 10.0\vc\include\xmemory
;	COMDAT ??$_Destroy@UExtraAniJump@@@std@@YAXPAUExtraAniJump@@@Z
_TEXT	SEGMENT
__Ptr$ = 8						; size = 4
??$_Destroy@UExtraAniJump@@@std@@YAXPAUExtraAniJump@@@Z PROC ; std::_Destroy<ExtraAniJump>, COMDAT

; 63   : 	_Ptr->~_Ty();
; 64   : 	}

  00000	c3		 ret	 0
??$_Destroy@UExtraAniJump@@@std@@YAXPAUExtraAniJump@@@Z ENDP ; std::_Destroy<ExtraAniJump>
_TEXT	ENDS
PUBLIC	??$forward@UExtraAniJump@@@std@@YA$$QAUExtraAniJump@@AAU1@@Z ; std::forward<ExtraAniJump>
; Function compile flags: /Ogsp
; File c:\program files (x86)\microsoft visual studio 10.0\vc\include\utility
;	COMDAT ??$forward@UExtraAniJump@@@std@@YA$$QAUExtraAniJump@@AAU1@@Z
_TEXT	SEGMENT
__Arg$ = 8						; size = 4
??$forward@UExtraAniJump@@@std@@YA$$QAUExtraAniJump@@AAU1@@Z PROC ; std::forward<ExtraAniJump>, COMDAT

; 78   : 	{	// forward _Arg, given explicitly specified type parameter

  00000	55		 push	 ebp
  00001	8b ec		 mov	 ebp, esp

; 79   : 	return ((_Ty&&)_Arg);

  00003	8b 45 08	 mov	 eax, DWORD PTR __Arg$[ebp]

; 80   : 	}

  00006	5d		 pop	 ebp
  00007	c3		 ret	 0
??$forward@UExtraAniJump@@@std@@YA$$QAUExtraAniJump@@AAU1@@Z ENDP ; std::forward<ExtraAniJump>
_TEXT	ENDS
PUBLIC	?D3DXVec3Length@@YAMPBUD3DXVECTOR3@@@Z		; D3DXVec3Length
; Function compile flags: /Ogsp
; File c:\program files (x86)\microsoft directx sdk (june 2010)\include\d3dx9math.inl
;	COMDAT ?D3DXVec3Length@@YAMPBUD3DXVECTOR3@@@Z
_TEXT	SEGMENT
tv169 = 8						; size = 4
tv160 = 8						; size = 4
_pV$ = 8						; size = 4
?D3DXVec3Length@@YAMPBUD3DXVECTOR3@@@Z PROC		; D3DXVec3Length, COMDAT

; 1710 : {

  00000	55		 push	 ebp
  00001	8b ec		 mov	 ebp, esp

; 1711 : #ifdef D3DX_DEBUG
; 1712 :     if(!pV)
; 1713 :         return 0.0f;
; 1714 : #endif
; 1715 : 
; 1716 : #ifdef __cplusplus
; 1717 :     return sqrtf(pV->x * pV->x + pV->y * pV->y + pV->z * pV->z);

  00003	8b 45 08	 mov	 eax, DWORD PTR _pV$[ebp]
  00006	d9 40 04	 fld	 DWORD PTR [eax+4]
  00009	d9 00		 fld	 DWORD PTR [eax]
  0000b	d9 40 08	 fld	 DWORD PTR [eax+8]
  0000e	d9 c1		 fld	 ST(1)
  00010	de ca		 fmulp	 ST(2), ST(0)
  00012	d9 c2		 fld	 ST(2)
  00014	de cb		 fmulp	 ST(3), ST(0)
  00016	d9 c9		 fxch	 ST(1)
  00018	de c2		 faddp	 ST(2), ST(0)
  0001a	d9 c0		 fld	 ST(0)
  0001c	de c9		 fmulp	 ST(1), ST(0)
  0001e	de c1		 faddp	 ST(1), ST(0)
  00020	d9 5d 08	 fstp	 DWORD PTR tv169[ebp]
  00023	d9 45 08	 fld	 DWORD PTR tv169[ebp]
  00026	e8 00 00 00 00	 call	 __CIsqrt
  0002b	d9 5d 08	 fstp	 DWORD PTR tv160[ebp]
  0002e	d9 45 08	 fld	 DWORD PTR tv160[ebp]

; 1718 : #else
; 1719 :     return (FLOAT) sqrt(pV->x * pV->x + pV->y * pV->y + pV->z * pV->z);
; 1720 : #endif
; 1721 : }

  00031	5d		 pop	 ebp
  00032	c3		 ret	 0
?D3DXVec3Length@@YAMPBUD3DXVECTOR3@@@Z ENDP		; D3DXVec3Length
_TEXT	ENDS
PUBLIC	?D3DXVec3LengthSq@@YAMPBUD3DXVECTOR3@@@Z	; D3DXVec3LengthSq
; Function compile flags: /Ogsp
;	COMDAT ?D3DXVec3LengthSq@@YAMPBUD3DXVECTOR3@@@Z
_TEXT	SEGMENT
tv165 = 8						; size = 4
_pV$ = 8						; size = 4
?D3DXVec3LengthSq@@YAMPBUD3DXVECTOR3@@@Z PROC		; D3DXVec3LengthSq, COMDAT

; 1725 : {

  00000	55		 push	 ebp
  00001	8b ec		 mov	 ebp, esp

; 1726 : #ifdef D3DX_DEBUG
; 1727 :     if(!pV)
; 1728 :         return 0.0f;
; 1729 : #endif
; 1730 : 
; 1731 :     return pV->x * pV->x + pV->y * pV->y + pV->z * pV->z;

  00003	8b 45 08	 mov	 eax, DWORD PTR _pV$[ebp]
  00006	d9 40 04	 fld	 DWORD PTR [eax+4]
  00009	d9 00		 fld	 DWORD PTR [eax]
  0000b	d9 40 08	 fld	 DWORD PTR [eax+8]
  0000e	d9 c1		 fld	 ST(1)
  00010	de ca		 fmulp	 ST(2), ST(0)
  00012	d9 c2		 fld	 ST(2)
  00014	de cb		 fmulp	 ST(3), ST(0)
  00016	d9 c9		 fxch	 ST(1)
  00018	de c2		 faddp	 ST(2), ST(0)
  0001a	d9 c0		 fld	 ST(0)
  0001c	de c9		 fmulp	 ST(1), ST(0)
  0001e	de c1		 faddp	 ST(1), ST(0)
  00020	d9 5d 08	 fstp	 DWORD PTR tv165[ebp]
  00023	d9 45 08	 fld	 DWORD PTR tv165[ebp]

; 1732 : }

  00026	5d		 pop	 ebp
  00027	c3		 ret	 0
?D3DXVec3LengthSq@@YAMPBUD3DXVECTOR3@@@Z ENDP		; D3DXVec3LengthSq
_TEXT	ENDS
PUBLIC	?D3DXVec3Dot@@YAMPBUD3DXVECTOR3@@0@Z		; D3DXVec3Dot
; Function compile flags: /Ogsp
;	COMDAT ?D3DXVec3Dot@@YAMPBUD3DXVECTOR3@@0@Z
_TEXT	SEGMENT
tv188 = 8						; size = 4
_pV1$ = 8						; size = 4
_pV2$ = 12						; size = 4
?D3DXVec3Dot@@YAMPBUD3DXVECTOR3@@0@Z PROC		; D3DXVec3Dot, COMDAT

; 1736 : {

  00000	55		 push	 ebp
  00001	8b ec		 mov	 ebp, esp

; 1737 : #ifdef D3DX_DEBUG
; 1738 :     if(!pV1 || !pV2)
; 1739 :         return 0.0f;
; 1740 : #endif
; 1741 : 
; 1742 :     return pV1->x * pV2->x + pV1->y * pV2->y + pV1->z * pV2->z;

  00003	8b 45 08	 mov	 eax, DWORD PTR _pV1$[ebp]
  00006	8b 4d 0c	 mov	 ecx, DWORD PTR _pV2$[ebp]
  00009	d9 40 04	 fld	 DWORD PTR [eax+4]
  0000c	d8 49 04	 fmul	 DWORD PTR [ecx+4]
  0000f	d9 00		 fld	 DWORD PTR [eax]
  00011	d8 09		 fmul	 DWORD PTR [ecx]
  00013	de c1		 faddp	 ST(1), ST(0)
  00015	d9 40 08	 fld	 DWORD PTR [eax+8]
  00018	d8 49 08	 fmul	 DWORD PTR [ecx+8]
  0001b	de c1		 faddp	 ST(1), ST(0)
  0001d	d9 5d 08	 fstp	 DWORD PTR tv188[ebp]
  00020	d9 45 08	 fld	 DWORD PTR tv188[ebp]

; 1743 : }

  00023	5d		 pop	 ebp
  00024	c3		 ret	 0
?D3DXVec3Dot@@YAMPBUD3DXVECTOR3@@0@Z ENDP		; D3DXVec3Dot
_TEXT	ENDS
PUBLIC	?_DECSTR@@YAXPADH@Z				; _DECSTR
; Function compile flags: /Ogsp
; File d:\lost saga for developer\youtube\tutorial\source\src\lsclient\stringprotect.h
;	COMDAT ?_DECSTR@@YAXPADH@Z
_TEXT	SEGMENT
_s$ = 8							; size = 4
_l$ = 12						; size = 4
?_DECSTR@@YAXPADH@Z PROC				; _DECSTR, COMDAT

; 40   : __forceinline void _DECSTR(char* s, int l){int i=0,l4=(l-1)/4,*p=(int*)s;s[l-1]=0;for(;i<l4;++i)*(p++)^=0xEAEBECED;for(i=l4*4;i<l-1;++i)s[i]^=0xED-i%4;}

  00000	55		 push	 ebp
  00001	8b ec		 mov	 ebp, esp
  00003	8b 4d 0c	 mov	 ecx, DWORD PTR _l$[ebp]
  00006	56		 push	 esi
  00007	8b 75 08	 mov	 esi, DWORD PTR _s$[ebp]
  0000a	57		 push	 edi
  0000b	8d 79 ff	 lea	 edi, DWORD PTR [ecx-1]
  0000e	8b c7		 mov	 eax, edi
  00010	99		 cdq
  00011	83 e2 03	 and	 edx, 3
  00014	03 c2		 add	 eax, edx
  00016	c1 f8 02	 sar	 eax, 2
  00019	8b d6		 mov	 edx, esi
  0001b	c6 44 0e ff 00	 mov	 BYTE PTR [esi+ecx-1], 0
  00020	85 c0		 test	 eax, eax
  00022	7e 0e		 jle	 SHORT $LN4@DECSTR
  00024	8b c8		 mov	 ecx, eax
$LL6@DECSTR:
  00026	81 32 ed ec eb
	ea		 xor	 DWORD PTR [edx], -353637139 ; eaebecedH
  0002c	83 c2 04	 add	 edx, 4
  0002f	49		 dec	 ecx
  00030	75 f4		 jne	 SHORT $LL6@DECSTR
$LN4@DECSTR:
  00032	c1 e0 02	 shl	 eax, 2
  00035	eb 17		 jmp	 SHORT $LN14@DECSTR
$LL3@DECSTR:
  00037	8b c8		 mov	 ecx, eax
  00039	81 e1 03 00 00
	80		 and	 ecx, -2147483645	; 80000003H
  0003f	79 05		 jns	 SHORT $LN13@DECSTR
  00041	49		 dec	 ecx
  00042	83 c9 fc	 or	 ecx, -4			; fffffffcH
  00045	41		 inc	 ecx
$LN13@DECSTR:
  00046	b2 ed		 mov	 dl, -19			; ffffffedH
  00048	2a d1		 sub	 dl, cl
  0004a	30 14 30	 xor	 BYTE PTR [eax+esi], dl
  0004d	40		 inc	 eax
$LN14@DECSTR:
  0004e	3b c7		 cmp	 eax, edi
  00050	7c e5		 jl	 SHORT $LL3@DECSTR
  00052	5f		 pop	 edi
  00053	5e		 pop	 esi
  00054	5d		 pop	 ebp
  00055	c3		 ret	 0
?_DECSTR@@YAXPADH@Z ENDP				; _DECSTR
_TEXT	ENDS
PUBLIC	?return57@@YAIXZ				; return57
; Function compile flags: /Ogsp
; File d:\lost saga for developer\youtube\tutorial\source\src\lsclient\veryoftenusedefine.h
;	COMDAT ?return57@@YAIXZ
_TEXT	SEGMENT
?return57@@YAIXZ PROC					; return57, COMDAT

; 15   : __forceinline unsigned int return57() { __asm mov eax, 57 };

  00000	b8 39 00 00 00	 mov	 eax, 57			; 00000039H
  00005	c3		 ret	 0
?return57@@YAIXZ ENDP					; return57
_TEXT	ENDS
PUBLIC	??0ExtraAniJump@@QAE@XZ				; ExtraAniJump::ExtraAniJump
; Function compile flags: /Ogsp
; File d:\lost saga for developer\youtube\tutorial\source\src\lsclient\playentityhelpstruct.h
;	COMDAT ??0ExtraAniJump@@QAE@XZ
_TEXT	SEGMENT
??0ExtraAniJump@@QAE@XZ PROC				; ExtraAniJump::ExtraAniJump, COMDAT
; _this$ = ecx

; 80   : 	{
; 81   : 		m_dwTime = 0;
; 82   : 		m_fPower = 0.0f;

  00000	0f 57 c0	 xorps	 xmm0, xmm0
  00003	8b c1		 mov	 eax, ecx
  00005	83 20 00	 and	 DWORD PTR [eax], 0
  00008	f3 0f 11 40 04	 movss	 DWORD PTR [eax+4], xmm0

; 83   : 	}

  0000d	c3		 ret	 0
??0ExtraAniJump@@QAE@XZ ENDP				; ExtraAniJump::ExtraAniJump
_TEXT	ENDS
PUBLIC	??0FireTime@@QAE@XZ				; FireTime::FireTime
EXTRN	__imp_??0ioHashString@@QAE@XZ:PROC
;	COMDAT xdata$x
xdata$x	SEGMENT
__unwindtable$??0FireTime@@QAE@XZ DD 0ffffffffH
	DD	FLAT:__unwindfunclet$??0FireTime@@QAE@XZ$0
	DD	00H
	DD	FLAT:__unwindfunclet$??0FireTime@@QAE@XZ$1
__ehfuncinfo$??0FireTime@@QAE@XZ DD 019930522H
	DD	02H
	DD	FLAT:__unwindtable$??0FireTime@@QAE@XZ
	DD	2 DUP(00H)
	DD	2 DUP(00H)
	DD	00H
	DD	01H
; Function compile flags: /Ogsp
xdata$x	ENDS
;	COMDAT ??0FireTime@@QAE@XZ
_TEXT	SEGMENT
_this$ = -16						; size = 4
__$EHRec$ = -12						; size = 12
??0FireTime@@QAE@XZ PROC				; FireTime::FireTime, COMDAT
; _this$ = ecx

; 219  : 	FireTime()

  00000	6a 04		 push	 4
  00002	b8 00 00 00 00	 mov	 eax, __ehhandler$??0FireTime@@QAE@XZ
  00007	e8 00 00 00 00	 call	 __EH_prolog3
  0000c	8b f1		 mov	 esi, ecx
  0000e	89 75 f0	 mov	 DWORD PTR _this$[ebp], esi
  00011	8b 3d 00 00 00
	00		 mov	 edi, DWORD PTR __imp_??0ioHashString@@QAE@XZ
  00017	8d 4e 14	 lea	 ecx, DWORD PTR [esi+20]
  0001a	ff d7		 call	 edi
  0001c	33 db		 xor	 ebx, ebx
  0001e	8d 4e 30	 lea	 ecx, DWORD PTR [esi+48]
  00021	89 5d fc	 mov	 DWORD PTR __$EHRec$[ebp+8], ebx
  00024	ff d7		 call	 edi
  00026	8d 4e 44	 lea	 ecx, DWORD PTR [esi+68]
  00029	c6 45 fc 01	 mov	 BYTE PTR __$EHRec$[ebp+8], 1
  0002d	ff d7		 call	 edi

; 220  : 	{
; 221  : 		dwStart = 0;

  0002f	89 1e		 mov	 DWORD PTR [esi], ebx

; 222  : 		dwDuration = 0;

  00031	89 5e 04	 mov	 DWORD PTR [esi+4], ebx

; 223  : 
; 224  : 		iAttributeIdx = 0;

  00034	89 5e 08	 mov	 DWORD PTR [esi+8], ebx

; 225  : 		iResistanceIdx = 0;

  00037	89 5e 0c	 mov	 DWORD PTR [esi+12], ebx

; 226  : 
; 227  : 		bLoopWoundedAni = false;

  0003a	88 5e 10	 mov	 BYTE PTR [esi+16], bl

; 228  : 		dwWoundedAniDuration = 0;

  0003d	89 5e 24	 mov	 DWORD PTR [esi+36], ebx

; 229  : 
; 230  : 		dwWeaponIdx = 0;

  00040	89 5e 28	 mov	 DWORD PTR [esi+40], ebx

; 231  : 		eCollisionType = ACT_NONE;

  00043	c7 46 2c 06 00
	00 00		 mov	 DWORD PTR [esi+44], 6

; 232  : 		eFireTimeType = FTT_NORMAL_ATTACK;

  0004a	89 5e 40	 mov	 DWORD PTR [esi+64], ebx

; 233  : 
; 234  : 		m_iExtraValue = 0;

  0004d	89 5e 54	 mov	 DWORD PTR [esi+84], ebx

; 235  : 	}

  00050	8b c6		 mov	 eax, esi
  00052	e8 00 00 00 00	 call	 __EH_epilog3
  00057	c3		 ret	 0
_TEXT	ENDS
;	COMDAT text$x
text$x	SEGMENT
__unwindfunclet$??0FireTime@@QAE@XZ$0:
  00000	8b 4d f0	 mov	 ecx, DWORD PTR _this$[ebp]
  00003	83 c1 14	 add	 ecx, 20			; 00000014H
  00006	ff 25 00 00 00
	00		 jmp	 DWORD PTR __imp_??1ioHashString@@QAE@XZ
__unwindfunclet$??0FireTime@@QAE@XZ$1:
  0000c	8b 4d f0	 mov	 ecx, DWORD PTR _this$[ebp]
  0000f	83 c1 30	 add	 ecx, 48			; 00000030H
  00012	ff 25 00 00 00
	00		 jmp	 DWORD PTR __imp_??1ioHashString@@QAE@XZ
__ehhandler$??0FireTime@@QAE@XZ:
  00018	8b 54 24 08	 mov	 edx, DWORD PTR [esp+8]
  0001c	8d 42 0c	 lea	 eax, DWORD PTR [edx+12]
  0001f	8b 4a ec	 mov	 ecx, DWORD PTR [edx-20]
  00022	33 c8		 xor	 ecx, eax
  00024	e8 00 00 00 00	 call	 @__security_check_cookie@4
  00029	b8 00 00 00 00	 mov	 eax, OFFSET __ehfuncinfo$??0FireTime@@QAE@XZ
  0002e	e9 00 00 00 00	 jmp	 ___CxxFrameHandler3
text$x	ENDS
??0FireTime@@QAE@XZ ENDP				; FireTime::FireTime
PUBLIC	??_R0?AVioGameEntity@@@8			; ioGameEntity `RTTI Type Descriptor'
PUBLIC	??_R0?AVioPlayEntity@@@8			; ioPlayEntity `RTTI Type Descriptor'
PUBLIC	?ToPlayEntity@@YAPAVioPlayEntity@@PAVioGameEntity@@@Z ; ToPlayEntity
;	COMDAT ??_R0?AVioGameEntity@@@8
; File d:\lost saga for developer\youtube\tutorial\source\src\lsclient\ioplayentity.h
_DATA	SEGMENT
??_R0?AVioGameEntity@@@8 DD FLAT:??_7type_info@@6B@	; ioGameEntity `RTTI Type Descriptor'
	DD	00H
	DB	'.?AVioGameEntity@@', 00H
_DATA	ENDS
;	COMDAT ??_R0?AVioPlayEntity@@@8
_DATA	SEGMENT
??_R0?AVioPlayEntity@@@8 DD FLAT:??_7type_info@@6B@	; ioPlayEntity `RTTI Type Descriptor'
	DD	00H
	DB	'.?AVioPlayEntity@@', 00H
; Function compile flags: /Ogsp
_DATA	ENDS
;	COMDAT ?ToPlayEntity@@YAPAVioPlayEntity@@PAVioGameEntity@@@Z
_TEXT	SEGMENT
_pObj$ = 8						; size = 4
?ToPlayEntity@@YAPAVioPlayEntity@@PAVioGameEntity@@@Z PROC ; ToPlayEntity, COMDAT

; 121  : {

  00000	55		 push	 ebp
  00001	8b ec		 mov	 ebp, esp
  00003	56		 push	 esi

; 122  : 	if( !pObj || pObj->GetTypeID() != ioGameEntity::GET_PLAY_ENTITY )

  00004	8b 75 08	 mov	 esi, DWORD PTR _pObj$[ebp]
  00007	85 f6		 test	 esi, esi
  00009	74 25		 je	 SHORT $LN1@ToPlayEnti
  0000b	8b 06		 mov	 eax, DWORD PTR [esi]
  0000d	8b ce		 mov	 ecx, esi
  0000f	ff 50 10	 call	 DWORD PTR [eax+16]
  00012	83 f8 01	 cmp	 eax, 1
  00015	75 19		 jne	 SHORT $LN1@ToPlayEnti

; 124  : 
; 125  : 	return dynamic_cast< ioPlayEntity* >( pObj );

  00017	6a 00		 push	 0
  00019	68 00 00 00 00	 push	 OFFSET ??_R0?AVioPlayEntity@@@8
  0001e	68 00 00 00 00	 push	 OFFSET ??_R0?AVioGameEntity@@@8
  00023	6a 00		 push	 0
  00025	56		 push	 esi
  00026	e8 00 00 00 00	 call	 ___RTDynamicCast
  0002b	83 c4 14	 add	 esp, 20			; 00000014H
  0002e	eb 02		 jmp	 SHORT $LN3@ToPlayEnti
$LN1@ToPlayEnti:

; 123  : 		return NULL;

  00030	33 c0		 xor	 eax, eax
$LN3@ToPlayEnti:
  00032	5e		 pop	 esi

; 126  : }

  00033	5d		 pop	 ebp
  00034	c3		 ret	 0
?ToPlayEntity@@YAPAVioPlayEntity@@PAVioGameEntity@@@Z ENDP ; ToPlayEntity
_TEXT	ENDS
PUBLIC	?GetOwnerName@ioDummyChar@@QAEABVioHashString@@XZ ; ioDummyChar::GetOwnerName
; Function compile flags: /Ogsp
; File d:\lost saga for developer\youtube\tutorial\source\src\lsclient\iodummychar.h
;	COMDAT ?GetOwnerName@ioDummyChar@@QAEABVioHashString@@XZ
_TEXT	SEGMENT
?GetOwnerName@ioDummyChar@@QAEABVioHashString@@XZ PROC	; ioDummyChar::GetOwnerName, COMDAT
; _this$ = ecx

; 651  : 	inline const ioHashString& GetOwnerName() { return m_OwnerName; }

  00000	8d 81 cc 01 00
	00		 lea	 eax, DWORD PTR [ecx+460]
  00006	c3		 ret	 0
?GetOwnerName@ioDummyChar@@QAEABVioHashString@@XZ ENDP	; ioDummyChar::GetOwnerName
_TEXT	ENDS
PUBLIC	?GetCreator@ioPlayMode@@QBEPAVioPlayStage@@XZ	; ioPlayMode::GetCreator
; Function compile flags: /Ogsp
; File d:\lost saga for developer\youtube\tutorial\source\src\lsclient\ioplaymode.h
;	COMDAT ?GetCreator@ioPlayMode@@QBEPAVioPlayStage@@XZ
_TEXT	SEGMENT
?GetCreator@ioPlayMode@@QBEPAVioPlayStage@@XZ PROC	; ioPlayMode::GetCreator, COMDAT
; _this$ = ecx

; 631  : 	inline ioPlayStage* GetCreator() const { return m_pCreator; }

  00000	8b 41 34	 mov	 eax, DWORD PTR [ecx+52]
  00003	c3		 ret	 0
?GetCreator@ioPlayMode@@QBEPAVioPlayStage@@XZ ENDP	; ioPlayMode::GetCreator
_TEXT	ENDS
PUBLIC	?size@?$basic_string@DU?$char_traits@D@std@@V?$allocator@D@2@@std@@QBEIXZ ; std::basic_string<char,std::char_traits<char>,std::allocator<char> >::size
; Function compile flags: /Ogsp
; File c:\program files (x86)\microsoft visual studio 10.0\vc\include\xstring
;	COMDAT ?size@?$basic_string@DU?$char_traits@D@std@@V?$allocator@D@2@@std@@QBEIXZ
_TEXT	SEGMENT
?size@?$basic_string@DU?$char_traits@D@std@@V?$allocator@D@2@@std@@QBEIXZ PROC ; std::basic_string<char,std::char_traits<char>,std::allocator<char> >::size, COMDAT
; _this$ = ecx

; 1512 : 		return (this->_Mysize);

  00000	8b 41 10	 mov	 eax, DWORD PTR [ecx+16]

; 1513 : 		}

  00003	c3		 ret	 0
?size@?$basic_string@DU?$char_traits@D@std@@V?$allocator@D@2@@std@@QBEIXZ ENDP ; std::basic_string<char,std::char_traits<char>,std::allocator<char> >::size
_TEXT	ENDS
PUBLIC	?size@?$vector@KV?$allocator@K@std@@@std@@QBEIXZ ; std::vector<unsigned long,std::allocator<unsigned long> >::size
; Function compile flags: /Ogsp
; File c:\program files (x86)\microsoft visual studio 10.0\vc\include\vector
;	COMDAT ?size@?$vector@KV?$allocator@K@std@@@std@@QBEIXZ
_TEXT	SEGMENT
?size@?$vector@KV?$allocator@K@std@@@std@@QBEIXZ PROC	; std::vector<unsigned long,std::allocator<unsigned long> >::size, COMDAT
; _this$ = ecx

; 879  : 		return (this->_Mylast - this->_Myfirst);

  00000	8b 41 04	 mov	 eax, DWORD PTR [ecx+4]
  00003	2b 01		 sub	 eax, DWORD PTR [ecx]
  00005	c1 f8 02	 sar	 eax, 2

; 880  : 		}

  00008	c3		 ret	 0
?size@?$vector@KV?$allocator@K@std@@@std@@QBEIXZ ENDP	; std::vector<unsigned long,std::allocator<unsigned long> >::size
_TEXT	ENDS
PUBLIC	?_Myptr@?$basic_string@DU?$char_traits@D@std@@V?$allocator@D@2@@std@@QBEPBDXZ ; std::basic_string<char,std::char_traits<char>,std::allocator<char> >::_Myptr
; Function compile flags: /Ogsp
; File c:\program files (x86)\microsoft visual studio 10.0\vc\include\xstring
;	COMDAT ?_Myptr@?$basic_string@DU?$char_traits@D@std@@V?$allocator@D@2@@std@@QBEPBDXZ
_TEXT	SEGMENT
?_Myptr@?$basic_string@DU?$char_traits@D@std@@V?$allocator@D@2@@std@@QBEPBDXZ PROC ; std::basic_string<char,std::char_traits<char>,std::allocator<char> >::_Myptr, COMDAT
; _this$ = ecx

; 2010 : 		return (this->_BUF_SIZE <= this->_Myres ? this->_Bx._Ptr
; 2011 : 			: this->_Bx._Buf);

  00000	83 79 14 10	 cmp	 DWORD PTR [ecx+20], 16	; 00000010H
  00004	72 03		 jb	 SHORT $LN3@Myptr
  00006	8b 01		 mov	 eax, DWORD PTR [ecx]

; 2012 : 		}

  00008	c3		 ret	 0
$LN3@Myptr:

; 2010 : 		return (this->_BUF_SIZE <= this->_Myres ? this->_Bx._Ptr
; 2011 : 			: this->_Bx._Buf);

  00009	8b c1		 mov	 eax, ecx

; 2012 : 		}

  0000b	c3		 ret	 0
?_Myptr@?$basic_string@DU?$char_traits@D@std@@V?$allocator@D@2@@std@@QBEPBDXZ ENDP ; std::basic_string<char,std::char_traits<char>,std::allocator<char> >::_Myptr
_TEXT	ENDS
PUBLIC	??1?$_String_val@DV?$allocator@D@std@@@std@@QAE@XZ ; std::_String_val<char,std::allocator<char> >::~_String_val<char,std::allocator<char> >
; Function compile flags: /Ogsp
;	COMDAT ??1?$_String_val@DV?$allocator@D@std@@@std@@QAE@XZ
_TEXT	SEGMENT
??1?$_String_val@DV?$allocator@D@std@@@std@@QAE@XZ PROC	; std::_String_val<char,std::allocator<char> >::~_String_val<char,std::allocator<char> >, COMDAT
; _this$ = ecx

; 459  : 		}

  00000	c3		 ret	 0
??1?$_String_val@DV?$allocator@D@std@@@std@@QAE@XZ ENDP	; std::_String_val<char,std::allocator<char> >::~_String_val<char,std::allocator<char> >
_TEXT	ENDS
PUBLIC	??0?$allocator@D@std@@QAE@XZ			; std::allocator<char>::allocator<char>
; Function compile flags: /Ogsp
; File c:\program files (x86)\microsoft visual studio 10.0\vc\include\xmemory
;	COMDAT ??0?$allocator@D@std@@QAE@XZ
_TEXT	SEGMENT
??0?$allocator@D@std@@QAE@XZ PROC			; std::allocator<char>::allocator<char>, COMDAT
; _this$ = ecx

; 161  : 	_ALLOCATOR() _THROW0()

  00000	8b c1		 mov	 eax, ecx

; 162  : 		{	// construct default allocator (do nothing)
; 163  : 		}

  00002	c3		 ret	 0
??0?$allocator@D@std@@QAE@XZ ENDP			; std::allocator<char>::allocator<char>
_TEXT	ENDS
PUBLIC	??0?$allocator@D@std@@QAE@ABV01@@Z		; std::allocator<char>::allocator<char>
; Function compile flags: /Ogsp
;	COMDAT ??0?$allocator@D@std@@QAE@ABV01@@Z
_TEXT	SEGMENT
___formal$ = 8						; size = 4
??0?$allocator@D@std@@QAE@ABV01@@Z PROC			; std::allocator<char>::allocator<char>, COMDAT
; _this$ = ecx

; 165  : 	_ALLOCATOR(const _ALLOCATOR<_Ty>&) _THROW0()

  00000	8b c1		 mov	 eax, ecx

; 166  : 		{	// construct by copying (do nothing)
; 167  : 		}

  00002	c2 04 00	 ret	 4
??0?$allocator@D@std@@QAE@ABV01@@Z ENDP			; std::allocator<char>::allocator<char>
_TEXT	ENDS
PUBLIC	??0?$allocator@M@std@@QAE@XZ			; std::allocator<float>::allocator<float>
; Function compile flags: /Ogsp
;	COMDAT ??0?$allocator@M@std@@QAE@XZ
_TEXT	SEGMENT
??0?$allocator@M@std@@QAE@XZ PROC			; std::allocator<float>::allocator<float>, COMDAT
; _this$ = ecx

; 161  : 	_ALLOCATOR() _THROW0()

  00000	8b c1		 mov	 eax, ecx

; 162  : 		{	// construct default allocator (do nothing)
; 163  : 		}

  00002	c3		 ret	 0
??0?$allocator@M@std@@QAE@XZ ENDP			; std::allocator<float>::allocator<float>
_TEXT	ENDS
PUBLIC	?EncryptValueToPool@?$CEncrypt@M@@AAEXPBD@Z	; CEncrypt<float>::EncryptValueToPool
EXTRN	?EncryptByte@ccddaabb@@QAEXPBDPADH@Z:PROC	; ccddaabb::EncryptByte
; Function compile flags: /Ogsp
; File d:\lost saga for developer\youtube\tutorial\source\src\lsclient\encryptvalue.h
;	COMDAT ?EncryptValueToPool@?$CEncrypt@M@@AAEXPBD@Z
_TEXT	SEGMENT
_value$ = 8						; size = 4
?EncryptValueToPool@?$CEncrypt@M@@AAEXPBD@Z PROC	; CEncrypt<float>::EncryptValueToPool, COMDAT
; _this$ = ecx

; 67   : 	{

  00000	55		 push	 ebp
  00001	8b ec		 mov	 ebp, esp

; 68   : 		m_RC5.EncryptByte( value, m_MemPool, max(m_ValueSize, DEFAULT_ENCRYPT) );

  00003	0f b7 41 06	 movzx	 eax, WORD PTR [ecx+6]
  00007	83 f8 04	 cmp	 eax, 4
  0000a	77 03		 ja	 SHORT $LN4@EncryptVal
  0000c	6a 04		 push	 4
  0000e	58		 pop	 eax
$LN4@EncryptVal:
  0000f	50		 push	 eax
  00010	8d 41 1c	 lea	 eax, DWORD PTR [ecx+28]
  00013	50		 push	 eax
  00014	ff 75 08	 push	 DWORD PTR _value$[ebp]
  00017	83 c1 0c	 add	 ecx, 12			; 0000000cH
  0001a	e8 00 00 00 00	 call	 ?EncryptByte@ccddaabb@@QAEXPBDPADH@Z ; ccddaabb::EncryptByte

; 69   : 		
; 70   : 	}

  0001f	5d		 pop	 ebp
  00020	c2 04 00	 ret	 4
?EncryptValueToPool@?$CEncrypt@M@@AAEXPBD@Z ENDP	; CEncrypt<float>::EncryptValueToPool
_TEXT	ENDS
PUBLIC	?DecryptValueToPool@?$CEncrypt@M@@QAEXPAM@Z	; CEncrypt<float>::DecryptValueToPool
EXTRN	?DecryptByte@ccddaabb@@QBEXPBDPADH@Z:PROC	; ccddaabb::DecryptByte
; Function compile flags: /Ogsp
;	COMDAT ?DecryptValueToPool@?$CEncrypt@M@@QAEXPAM@Z
_TEXT	SEGMENT
_value$ = 8						; size = 4
?DecryptValueToPool@?$CEncrypt@M@@QAEXPAM@Z PROC	; CEncrypt<float>::DecryptValueToPool, COMDAT
; _this$ = ecx

; 1648 : 	{

  00000	55		 push	 ebp
  00001	8b ec		 mov	 ebp, esp
  00003	56		 push	 esi

; 1649 : 		m_RC5.DecryptByte( m_MemPool, m_TempMem, 4 );

  00004	8d 71 28	 lea	 esi, DWORD PTR [ecx+40]
  00007	6a 04		 push	 4
  00009	8d 41 1c	 lea	 eax, DWORD PTR [ecx+28]
  0000c	56		 push	 esi
  0000d	50		 push	 eax
  0000e	83 c1 0c	 add	 ecx, 12			; 0000000cH
  00011	e8 00 00 00 00	 call	 ?DecryptByte@ccddaabb@@QBEXPBDPADH@Z ; ccddaabb::DecryptByte

; 1650 : 		*value = *((float*)m_TempMem);

  00016	d9 06		 fld	 DWORD PTR [esi]
  00018	8b 45 08	 mov	 eax, DWORD PTR _value$[ebp]
  0001b	d9 18		 fstp	 DWORD PTR [eax]
  0001d	5e		 pop	 esi

; 1651 : 	}

  0001e	5d		 pop	 ebp
  0001f	c2 04 00	 ret	 4
?DecryptValueToPool@?$CEncrypt@M@@QAEXPAM@Z ENDP	; CEncrypt<float>::DecryptValueToPool
_TEXT	ENDS
PUBLIC	?EncryptValueToPool@?$CEncrypt@K@@AAEXPBD@Z	; CEncrypt<unsigned long>::EncryptValueToPool
; Function compile flags: /Ogsp
;	COMDAT ?EncryptValueToPool@?$CEncrypt@K@@AAEXPBD@Z
_TEXT	SEGMENT
_value$ = 8						; size = 4
?EncryptValueToPool@?$CEncrypt@K@@AAEXPBD@Z PROC	; CEncrypt<unsigned long>::EncryptValueToPool, COMDAT
; _this$ = ecx

; 67   : 	{

  00000	55		 push	 ebp
  00001	8b ec		 mov	 ebp, esp

; 68   : 		m_RC5.EncryptByte( value, m_MemPool, max(m_ValueSize, DEFAULT_ENCRYPT) );

  00003	0f b7 41 06	 movzx	 eax, WORD PTR [ecx+6]
  00007	83 f8 04	 cmp	 eax, 4
  0000a	77 03		 ja	 SHORT $LN4@EncryptVal@2
  0000c	6a 04		 push	 4
  0000e	58		 pop	 eax
$LN4@EncryptVal@2:
  0000f	50		 push	 eax
  00010	8d 41 1c	 lea	 eax, DWORD PTR [ecx+28]
  00013	50		 push	 eax
  00014	ff 75 08	 push	 DWORD PTR _value$[ebp]
  00017	83 c1 0c	 add	 ecx, 12			; 0000000cH
  0001a	e8 00 00 00 00	 call	 ?EncryptByte@ccddaabb@@QAEXPBDPADH@Z ; ccddaabb::EncryptByte

; 69   : 		
; 70   : 	}

  0001f	5d		 pop	 ebp
  00020	c2 04 00	 ret	 4
?EncryptValueToPool@?$CEncrypt@K@@AAEXPBD@Z ENDP	; CEncrypt<unsigned long>::EncryptValueToPool
_TEXT	ENDS
PUBLIC	?DecryptValueToPool@?$CEncrypt@K@@QAEXPAK@Z	; CEncrypt<unsigned long>::DecryptValueToPool
; Function compile flags: /Ogsp
;	COMDAT ?DecryptValueToPool@?$CEncrypt@K@@QAEXPAK@Z
_TEXT	SEGMENT
_value$ = 8						; size = 4
?DecryptValueToPool@?$CEncrypt@K@@QAEXPAK@Z PROC	; CEncrypt<unsigned long>::DecryptValueToPool, COMDAT
; _this$ = ecx

; 1256 : 	{

  00000	55		 push	 ebp
  00001	8b ec		 mov	 ebp, esp
  00003	56		 push	 esi

; 1257 : 		m_RC5.DecryptByte( m_MemPool, m_TempMem, 4 );

  00004	8d 71 28	 lea	 esi, DWORD PTR [ecx+40]
  00007	6a 04		 push	 4
  00009	8d 41 1c	 lea	 eax, DWORD PTR [ecx+28]
  0000c	56		 push	 esi
  0000d	50		 push	 eax
  0000e	83 c1 0c	 add	 ecx, 12			; 0000000cH
  00011	e8 00 00 00 00	 call	 ?DecryptByte@ccddaabb@@QBEXPBDPADH@Z ; ccddaabb::DecryptByte

; 1258 : 		*value = *((DWORD*)m_TempMem);

  00016	8b 06		 mov	 eax, DWORD PTR [esi]
  00018	8b 4d 08	 mov	 ecx, DWORD PTR _value$[ebp]
  0001b	89 01		 mov	 DWORD PTR [ecx], eax
  0001d	5e		 pop	 esi

; 1259 : 	}

  0001e	5d		 pop	 ebp
  0001f	c2 04 00	 ret	 4
?DecryptValueToPool@?$CEncrypt@K@@QAEXPAK@Z ENDP	; CEncrypt<unsigned long>::DecryptValueToPool
_TEXT	ENDS
PUBLIC	?DecryptValueToPool@?$CEncrypt@_N@@QAEXPA_N@Z	; CEncrypt<bool>::DecryptValueToPool
; Function compile flags: /Ogsp
;	COMDAT ?DecryptValueToPool@?$CEncrypt@_N@@QAEXPA_N@Z
_TEXT	SEGMENT
_value$ = 8						; size = 4
?DecryptValueToPool@?$CEncrypt@_N@@QAEXPA_N@Z PROC	; CEncrypt<bool>::DecryptValueToPool, COMDAT
; _this$ = ecx

; 219  : 	{

  00000	55		 push	 ebp
  00001	8b ec		 mov	 ebp, esp
  00003	56		 push	 esi

; 220  : 		m_RC5.DecryptByte( m_MemPool, m_TempMem, 4 );

  00004	8d 71 28	 lea	 esi, DWORD PTR [ecx+40]
  00007	6a 04		 push	 4
  00009	8d 41 1c	 lea	 eax, DWORD PTR [ecx+28]
  0000c	56		 push	 esi
  0000d	50		 push	 eax
  0000e	83 c1 0c	 add	 ecx, 12			; 0000000cH
  00011	e8 00 00 00 00	 call	 ?DecryptByte@ccddaabb@@QBEXPBDPADH@Z ; ccddaabb::DecryptByte

; 221  : 		*value = *((bool*)m_TempMem);

  00016	8a 06		 mov	 al, BYTE PTR [esi]
  00018	8b 4d 08	 mov	 ecx, DWORD PTR _value$[ebp]
  0001b	88 01		 mov	 BYTE PTR [ecx], al
  0001d	5e		 pop	 esi

; 222  : 	}

  0001e	5d		 pop	 ebp
  0001f	c2 04 00	 ret	 4
?DecryptValueToPool@?$CEncrypt@_N@@QAEXPA_N@Z ENDP	; CEncrypt<bool>::DecryptValueToPool
_TEXT	ENDS
PUBLIC	?DecryptValueToPool@?$CEncrypt@H@@QAEXPAH@Z	; CEncrypt<int>::DecryptValueToPool
; Function compile flags: /Ogsp
;	COMDAT ?DecryptValueToPool@?$CEncrypt@H@@QAEXPAH@Z
_TEXT	SEGMENT
_value$ = 8						; size = 4
?DecryptValueToPool@?$CEncrypt@H@@QAEXPAH@Z PROC	; CEncrypt<int>::DecryptValueToPool, COMDAT
; _this$ = ecx

; 837  : 	{

  00000	55		 push	 ebp
  00001	8b ec		 mov	 ebp, esp
  00003	56		 push	 esi

; 838  : 		m_RC5.DecryptByte( m_MemPool, m_TempMem, 4 );

  00004	8d 71 28	 lea	 esi, DWORD PTR [ecx+40]
  00007	6a 04		 push	 4
  00009	8d 41 1c	 lea	 eax, DWORD PTR [ecx+28]
  0000c	56		 push	 esi
  0000d	50		 push	 eax
  0000e	83 c1 0c	 add	 ecx, 12			; 0000000cH
  00011	e8 00 00 00 00	 call	 ?DecryptByte@ccddaabb@@QBEXPBDPADH@Z ; ccddaabb::DecryptByte

; 839  : 		*value = *((int*)m_TempMem);

  00016	8b 06		 mov	 eax, DWORD PTR [esi]
  00018	8b 4d 08	 mov	 ecx, DWORD PTR _value$[ebp]
  0001b	89 01		 mov	 DWORD PTR [ecx], eax
  0001d	5e		 pop	 esi

; 840  : 	}

  0001e	5d		 pop	 ebp
  0001f	c2 04 00	 ret	 4
?DecryptValueToPool@?$CEncrypt@H@@QAEXPAH@Z ENDP	; CEncrypt<int>::DecryptValueToPool
_TEXT	ENDS
PUBLIC	?DecryptValueToPool@?$CEncrypt@W4TeamType@@@@QAEXPAW4TeamType@@@Z ; CEncrypt<enum TeamType>::DecryptValueToPool
; Function compile flags: /Ogsp
;	COMDAT ?DecryptValueToPool@?$CEncrypt@W4TeamType@@@@QAEXPAW4TeamType@@@Z
_TEXT	SEGMENT
_value$ = 8						; size = 4
?DecryptValueToPool@?$CEncrypt@W4TeamType@@@@QAEXPAW4TeamType@@@Z PROC ; CEncrypt<enum TeamType>::DecryptValueToPool, COMDAT
; _this$ = ecx

; 2959 : 	{

  00000	55		 push	 ebp
  00001	8b ec		 mov	 ebp, esp
  00003	56		 push	 esi

; 2960 : 		m_RC5.DecryptByte( m_MemPool, m_TempMem, sizeof(TeamType) );

  00004	8d 71 28	 lea	 esi, DWORD PTR [ecx+40]
  00007	6a 04		 push	 4
  00009	8d 41 1c	 lea	 eax, DWORD PTR [ecx+28]
  0000c	56		 push	 esi
  0000d	50		 push	 eax
  0000e	83 c1 0c	 add	 ecx, 12			; 0000000cH
  00011	e8 00 00 00 00	 call	 ?DecryptByte@ccddaabb@@QBEXPBDPADH@Z ; ccddaabb::DecryptByte

; 2961 : 		*value = *((TeamType*)m_TempMem);

  00016	8b 06		 mov	 eax, DWORD PTR [esi]
  00018	8b 4d 08	 mov	 ecx, DWORD PTR _value$[ebp]
  0001b	89 01		 mov	 DWORD PTR [ecx], eax
  0001d	5e		 pop	 esi

; 2962 : 	}

  0001e	5d		 pop	 ebp
  0001f	c2 04 00	 ret	 4
?DecryptValueToPool@?$CEncrypt@W4TeamType@@@@QAEXPAW4TeamType@@@Z ENDP ; CEncrypt<enum TeamType>::DecryptValueToPool
_TEXT	ENDS
PUBLIC	?_Inside@?$vector@KV?$allocator@K@std@@@std@@IBE_NPBK@Z ; std::vector<unsigned long,std::allocator<unsigned long> >::_Inside
; Function compile flags: /Ogsp
; File c:\program files (x86)\microsoft visual studio 10.0\vc\include\vector
;	COMDAT ?_Inside@?$vector@KV?$allocator@K@std@@@std@@IBE_NPBK@Z
_TEXT	SEGMENT
__Ptr$ = 8						; size = 4
?_Inside@?$vector@KV?$allocator@K@std@@@std@@IBE_NPBK@Z PROC ; std::vector<unsigned long,std::allocator<unsigned long> >::_Inside, COMDAT
; _this$ = ecx

; 1285 : 		{	// test if _Ptr points inside vector

  00000	55		 push	 ebp
  00001	8b ec		 mov	 ebp, esp

; 1286 : 		return (_Ptr < this->_Mylast && this->_Myfirst <= _Ptr);

  00003	8b 45 08	 mov	 eax, DWORD PTR __Ptr$[ebp]
  00006	3b 41 04	 cmp	 eax, DWORD PTR [ecx+4]
  00009	73 09		 jae	 SHORT $LN3@Inside@2
  0000b	39 01		 cmp	 DWORD PTR [ecx], eax
  0000d	77 05		 ja	 SHORT $LN3@Inside@2
  0000f	33 c0		 xor	 eax, eax
  00011	40		 inc	 eax
  00012	eb 02		 jmp	 SHORT $LN4@Inside@2
$LN3@Inside@2:
  00014	33 c0		 xor	 eax, eax
$LN4@Inside@2:

; 1287 : 		}

  00016	5d		 pop	 ebp
  00017	c2 04 00	 ret	 4
?_Inside@?$vector@KV?$allocator@K@std@@@std@@IBE_NPBK@Z ENDP ; std::vector<unsigned long,std::allocator<unsigned long> >::_Inside
_TEXT	ENDS
PUBLIC	?_Orphan_range@?$vector@KV?$allocator@K@std@@@std@@IBEXPAK0@Z ; std::vector<unsigned long,std::allocator<unsigned long> >::_Orphan_range
; Function compile flags: /Ogsp
;	COMDAT ?_Orphan_range@?$vector@KV?$allocator@K@std@@@std@@IBEXPAK0@Z
_TEXT	SEGMENT
___formal$ = 8						; size = 4
___formal$ = 12						; size = 4
?_Orphan_range@?$vector@KV?$allocator@K@std@@@std@@IBEXPAK0@Z PROC ; std::vector<unsigned long,std::allocator<unsigned long> >::_Orphan_range, COMDAT
; _this$ = ecx

; 1454 : 		}

  00000	c2 08 00	 ret	 8
?_Orphan_range@?$vector@KV?$allocator@K@std@@@std@@IBEXPAK0@Z ENDP ; std::vector<unsigned long,std::allocator<unsigned long> >::_Orphan_range
_TEXT	ENDS
PUBLIC	??1?$_Vector_val@KV?$allocator@K@std@@@std@@QAE@XZ ; std::_Vector_val<unsigned long,std::allocator<unsigned long> >::~_Vector_val<unsigned long,std::allocator<unsigned long> >
; Function compile flags: /Ogsp
;	COMDAT ??1?$_Vector_val@KV?$allocator@K@std@@@std@@QAE@XZ
_TEXT	SEGMENT
??1?$_Vector_val@KV?$allocator@K@std@@@std@@QAE@XZ PROC	; std::_Vector_val<unsigned long,std::allocator<unsigned long> >::~_Vector_val<unsigned long,std::allocator<unsigned long> >, COMDAT
; _this$ = ecx

; 434  : 		}

  00000	c3		 ret	 0
??1?$_Vector_val@KV?$allocator@K@std@@@std@@QAE@XZ ENDP	; std::_Vector_val<unsigned long,std::allocator<unsigned long> >::~_Vector_val<unsigned long,std::allocator<unsigned long> >
_TEXT	ENDS
PUBLIC	??0?$allocator@K@std@@QAE@XZ			; std::allocator<unsigned long>::allocator<unsigned long>
; Function compile flags: /Ogsp
; File c:\program files (x86)\microsoft visual studio 10.0\vc\include\xmemory
;	COMDAT ??0?$allocator@K@std@@QAE@XZ
_TEXT	SEGMENT
??0?$allocator@K@std@@QAE@XZ PROC			; std::allocator<unsigned long>::allocator<unsigned long>, COMDAT
; _this$ = ecx

; 161  : 	_ALLOCATOR() _THROW0()

  00000	8b c1		 mov	 eax, ecx

; 162  : 		{	// construct default allocator (do nothing)
; 163  : 		}

  00002	c3		 ret	 0
??0?$allocator@K@std@@QAE@XZ ENDP			; std::allocator<unsigned long>::allocator<unsigned long>
_TEXT	ENDS
PUBLIC	?_Myptr@?$basic_string@DU?$char_traits@D@std@@V?$allocator@D@2@@std@@QAEPADXZ ; std::basic_string<char,std::char_traits<char>,std::allocator<char> >::_Myptr
; Function compile flags: /Ogsp
; File c:\program files (x86)\microsoft visual studio 10.0\vc\include\xstring
;	COMDAT ?_Myptr@?$basic_string@DU?$char_traits@D@std@@V?$allocator@D@2@@std@@QAEPADXZ
_TEXT	SEGMENT
?_Myptr@?$basic_string@DU?$char_traits@D@std@@V?$allocator@D@2@@std@@QAEPADXZ PROC ; std::basic_string<char,std::char_traits<char>,std::allocator<char> >::_Myptr, COMDAT
; _this$ = ecx

; 2004 : 		return (this->_BUF_SIZE <= this->_Myres ? this->_Bx._Ptr
; 2005 : 			: this->_Bx._Buf);

  00000	83 79 14 10	 cmp	 DWORD PTR [ecx+20], 16	; 00000010H
  00004	72 03		 jb	 SHORT $LN3@Myptr@2
  00006	8b 01		 mov	 eax, DWORD PTR [ecx]

; 2006 : 		}

  00008	c3		 ret	 0
$LN3@Myptr@2:

; 2004 : 		return (this->_BUF_SIZE <= this->_Myres ? this->_Bx._Ptr
; 2005 : 			: this->_Bx._Buf);

  00009	8b c1		 mov	 eax, ecx

; 2006 : 		}

  0000b	c3		 ret	 0
?_Myptr@?$basic_string@DU?$char_traits@D@std@@V?$allocator@D@2@@std@@QAEPADXZ ENDP ; std::basic_string<char,std::char_traits<char>,std::allocator<char> >::_Myptr
_TEXT	ENDS
PUBLIC	??_C@_0BA@JFNIOLAK@string?5too?5long?$AA@	; `string'
PUBLIC	?_Xlen@?$basic_string@DU?$char_traits@D@std@@V?$allocator@D@2@@std@@QBEXXZ ; std::basic_string<char,std::char_traits<char>,std::allocator<char> >::_Xlen
;	COMDAT ??_C@_0BA@JFNIOLAK@string?5too?5long?$AA@
CONST	SEGMENT
??_C@_0BA@JFNIOLAK@string?5too?5long?$AA@ DB 'string too long', 00H ; `string'
; Function compile flags: /Ogsp
CONST	ENDS
;	COMDAT ?_Xlen@?$basic_string@DU?$char_traits@D@std@@V?$allocator@D@2@@std@@QBEXXZ
_TEXT	SEGMENT
?_Xlen@?$basic_string@DU?$char_traits@D@std@@V?$allocator@D@2@@std@@QBEXXZ PROC ; std::basic_string<char,std::char_traits<char>,std::allocator<char> >::_Xlen, COMDAT
; _this$ = ecx

; 2016 : 		_Xlength_error("string too long");

  00000	68 00 00 00 00	 push	 OFFSET ??_C@_0BA@JFNIOLAK@string?5too?5long?$AA@
  00005	ff 15 00 00 00
	00		 call	 DWORD PTR __imp_?_Xlength_error@std@@YAXPBD@Z
$LN4@Xlen@2:
$LN3@Xlen@2:
  0000b	cc		 int	 3
?_Xlen@?$basic_string@DU?$char_traits@D@std@@V?$allocator@D@2@@std@@QBEXXZ ENDP ; std::basic_string<char,std::char_traits<char>,std::allocator<char> >::_Xlen
_TEXT	ENDS
PUBLIC	??_C@_0BI@CFPLBAOH@invalid?5string?5position?$AA@ ; `string'
PUBLIC	?_Xran@?$basic_string@DU?$char_traits@D@std@@V?$allocator@D@2@@std@@QBEXXZ ; std::basic_string<char,std::char_traits<char>,std::allocator<char> >::_Xran
EXTRN	__imp_?_Xout_of_range@std@@YAXPBD@Z:PROC
;	COMDAT ??_C@_0BI@CFPLBAOH@invalid?5string?5position?$AA@
CONST	SEGMENT
??_C@_0BI@CFPLBAOH@invalid?5string?5position?$AA@ DB 'invalid string posi'
	DB	'tion', 00H					; `string'
; Function compile flags: /Ogsp
CONST	ENDS
;	COMDAT ?_Xran@?$basic_string@DU?$char_traits@D@std@@V?$allocator@D@2@@std@@QBEXXZ
_TEXT	SEGMENT
?_Xran@?$basic_string@DU?$char_traits@D@std@@V?$allocator@D@2@@std@@QBEXXZ PROC ; std::basic_string<char,std::char_traits<char>,std::allocator<char> >::_Xran, COMDAT
; _this$ = ecx

; 2021 : 		_Xout_of_range("invalid string position");

  00000	68 00 00 00 00	 push	 OFFSET ??_C@_0BI@CFPLBAOH@invalid?5string?5position?$AA@
  00005	ff 15 00 00 00
	00		 call	 DWORD PTR __imp_?_Xout_of_range@std@@YAXPBD@Z
$LN4@Xran:
$LN3@Xran:
  0000b	cc		 int	 3
?_Xran@?$basic_string@DU?$char_traits@D@std@@V?$allocator@D@2@@std@@QBEXXZ ENDP ; std::basic_string<char,std::char_traits<char>,std::allocator<char> >::_Xran
_TEXT	ENDS
PUBLIC	?deallocate@?$allocator@D@std@@QAEXPADI@Z	; std::allocator<char>::deallocate
; Function compile flags: /Ogsp
; File c:\program files (x86)\microsoft visual studio 10.0\vc\include\xmemory
;	COMDAT ?deallocate@?$allocator@D@std@@QAEXPADI@Z
_TEXT	SEGMENT
__Ptr$ = 8						; size = 4
___formal$ = 12						; size = 4
?deallocate@?$allocator@D@std@@QAEXPADI@Z PROC		; std::allocator<char>::deallocate, COMDAT
; _this$ = ecx

; 181  : 		{	// deallocate object at _Ptr, ignore size

  00000	55		 push	 ebp
  00001	8b ec		 mov	 ebp, esp

; 182  : 		::operator delete(_Ptr);

  00003	ff 75 08	 push	 DWORD PTR __Ptr$[ebp]
  00006	e8 00 00 00 00	 call	 ??3@YAXPAX@Z		; operator delete
  0000b	59		 pop	 ecx

; 183  : 		}

  0000c	5d		 pop	 ebp
  0000d	c2 08 00	 ret	 8
?deallocate@?$allocator@D@std@@QAEXPADI@Z ENDP		; std::allocator<char>::deallocate
_TEXT	ENDS
PUBLIC	??0?$allocator@M@std@@QAE@ABV01@@Z		; std::allocator<float>::allocator<float>
; Function compile flags: /Ogsp
;	COMDAT ??0?$allocator@M@std@@QAE@ABV01@@Z
_TEXT	SEGMENT
___formal$ = 8						; size = 4
??0?$allocator@M@std@@QAE@ABV01@@Z PROC			; std::allocator<float>::allocator<float>, COMDAT
; _this$ = ecx

; 165  : 	_ALLOCATOR(const _ALLOCATOR<_Ty>&) _THROW0()

  00000	8b c1		 mov	 eax, ecx

; 166  : 		{	// construct by copying (do nothing)
; 167  : 		}

  00002	c2 04 00	 ret	 4
??0?$allocator@M@std@@QAE@ABV01@@Z ENDP			; std::allocator<float>::allocator<float>
_TEXT	ENDS
PUBLIC	?capacity@?$vector@KV?$allocator@K@std@@@std@@QBEIXZ ; std::vector<unsigned long,std::allocator<unsigned long> >::capacity
; Function compile flags: /Ogsp
; File c:\program files (x86)\microsoft visual studio 10.0\vc\include\vector
;	COMDAT ?capacity@?$vector@KV?$allocator@K@std@@@std@@QBEIXZ
_TEXT	SEGMENT
?capacity@?$vector@KV?$allocator@K@std@@@std@@QBEIXZ PROC ; std::vector<unsigned long,std::allocator<unsigned long> >::capacity, COMDAT
; _this$ = ecx

; 777  : 		return (this->_Myend - this->_Myfirst);

  00000	8b 41 08	 mov	 eax, DWORD PTR [ecx+8]
  00003	2b 01		 sub	 eax, DWORD PTR [ecx]
  00005	c1 f8 02	 sar	 eax, 2

; 778  : 		}

  00008	c3		 ret	 0
?capacity@?$vector@KV?$allocator@K@std@@@std@@QBEIXZ ENDP ; std::vector<unsigned long,std::allocator<unsigned long> >::capacity
_TEXT	ENDS
PUBLIC	?_Xlen@?$vector@KV?$allocator@K@std@@@std@@IBEXXZ ; std::vector<unsigned long,std::allocator<unsigned long> >::_Xlen
; Function compile flags: /Ogsp
;	COMDAT ?_Xlen@?$vector@KV?$allocator@K@std@@@std@@IBEXXZ
_TEXT	SEGMENT
?_Xlen@?$vector@KV?$allocator@K@std@@@std@@IBEXXZ PROC	; std::vector<unsigned long,std::allocator<unsigned long> >::_Xlen, COMDAT
; _this$ = ecx

; 1427 : 		_Xlength_error("vector<T> too long");

  00000	68 00 00 00 00	 push	 OFFSET ??_C@_0BD@OLBABOEK@vector?$DMT?$DO?5too?5long?$AA@
  00005	ff 15 00 00 00
	00		 call	 DWORD PTR __imp_?_Xlength_error@std@@YAXPBD@Z
$LN4@Xlen@3:
$LN3@Xlen@3:
  0000b	cc		 int	 3
?_Xlen@?$vector@KV?$allocator@K@std@@@std@@IBEXXZ ENDP	; std::vector<unsigned long,std::allocator<unsigned long> >::_Xlen
_TEXT	ENDS
PUBLIC	??0?$allocator@K@std@@QAE@ABV01@@Z		; std::allocator<unsigned long>::allocator<unsigned long>
; Function compile flags: /Ogsp
; File c:\program files (x86)\microsoft visual studio 10.0\vc\include\xmemory
;	COMDAT ??0?$allocator@K@std@@QAE@ABV01@@Z
_TEXT	SEGMENT
___formal$ = 8						; size = 4
??0?$allocator@K@std@@QAE@ABV01@@Z PROC			; std::allocator<unsigned long>::allocator<unsigned long>, COMDAT
; _this$ = ecx

; 165  : 	_ALLOCATOR(const _ALLOCATOR<_Ty>&) _THROW0()

  00000	8b c1		 mov	 eax, ecx

; 166  : 		{	// construct by copying (do nothing)
; 167  : 		}

  00002	c2 04 00	 ret	 4
??0?$allocator@K@std@@QAE@ABV01@@Z ENDP			; std::allocator<unsigned long>::allocator<unsigned long>
_TEXT	ENDS
PUBLIC	?deallocate@?$allocator@K@std@@QAEXPAKI@Z	; std::allocator<unsigned long>::deallocate
; Function compile flags: /Ogsp
;	COMDAT ?deallocate@?$allocator@K@std@@QAEXPAKI@Z
_TEXT	SEGMENT
__Ptr$ = 8						; size = 4
___formal$ = 12						; size = 4
?deallocate@?$allocator@K@std@@QAEXPAKI@Z PROC		; std::allocator<unsigned long>::deallocate, COMDAT
; _this$ = ecx

; 181  : 		{	// deallocate object at _Ptr, ignore size

  00000	55		 push	 ebp
  00001	8b ec		 mov	 ebp, esp

; 182  : 		::operator delete(_Ptr);

  00003	ff 75 08	 push	 DWORD PTR __Ptr$[ebp]
  00006	e8 00 00 00 00	 call	 ??3@YAXPAX@Z		; operator delete
  0000b	59		 pop	 ecx

; 183  : 		}

  0000c	5d		 pop	 ebp
  0000d	c2 08 00	 ret	 8
?deallocate@?$allocator@K@std@@QAEXPAKI@Z ENDP		; std::allocator<unsigned long>::deallocate
_TEXT	ENDS
PUBLIC	??0?$_Vector_const_iterator@V?$_Vector_val@VioHashString@@V?$allocator@VioHashString@@@std@@@std@@@std@@QAE@PAVioHashString@@PBU_Container_base0@1@@Z ; std::_Vector_const_iterator<std::_Vector_val<ioHashString,std::allocator<ioHashString> > >::_Vector_const_iterator<std::_Vector_val<ioHashString,std::allocator<ioHashString> > >
; Function compile flags: /Ogsp
; File c:\program files (x86)\microsoft visual studio 10.0\vc\include\vector
;	COMDAT ??0?$_Vector_const_iterator@V?$_Vector_val@VioHashString@@V?$allocator@VioHashString@@@std@@@std@@@std@@QAE@PAVioHashString@@PBU_Container_base0@1@@Z
_TEXT	SEGMENT
__Parg$ = 8						; size = 4
__Pvector$ = 12						; size = 4
??0?$_Vector_const_iterator@V?$_Vector_val@VioHashString@@V?$allocator@VioHashString@@@std@@@std@@@std@@QAE@PAVioHashString@@PBU_Container_base0@1@@Z PROC ; std::_Vector_const_iterator<std::_Vector_val<ioHashString,std::allocator<ioHashString> > >::_Vector_const_iterator<std::_Vector_val<ioHashString,std::allocator<ioHashString> > >, COMDAT
; _this$ = ecx

; 45   : 		{	// construct with pointer _Parg

  00000	55		 push	 ebp
  00001	8b ec		 mov	 ebp, esp
  00003	8b c1		 mov	 eax, ecx
  00005	8b 4d 08	 mov	 ecx, DWORD PTR __Parg$[ebp]
  00008	89 08		 mov	 DWORD PTR [eax], ecx

; 46   : 		this->_Adopt(_Pvector);
; 47   : 		}

  0000a	5d		 pop	 ebp
  0000b	c2 08 00	 ret	 8
??0?$_Vector_const_iterator@V?$_Vector_val@VioHashString@@V?$allocator@VioHashString@@@std@@@std@@@std@@QAE@PAVioHashString@@PBU_Container_base0@1@@Z ENDP ; std::_Vector_const_iterator<std::_Vector_val<ioHashString,std::allocator<ioHashString> > >::_Vector_const_iterator<std::_Vector_val<ioHashString,std::allocator<ioHashString> > >
_TEXT	ENDS
PUBLIC	??0?$_Vector_iterator@V?$_Vector_val@VioHashString@@V?$allocator@VioHashString@@@std@@@std@@@std@@QAE@PAVioHashString@@PBU_Container_base0@1@@Z ; std::_Vector_iterator<std::_Vector_val<ioHashString,std::allocator<ioHashString> > >::_Vector_iterator<std::_Vector_val<ioHashString,std::allocator<ioHashString> > >
; Function compile flags: /Ogsp
;	COMDAT ??0?$_Vector_iterator@V?$_Vector_val@VioHashString@@V?$allocator@VioHashString@@@std@@@std@@@std@@QAE@PAVioHashString@@PBU_Container_base0@1@@Z
_TEXT	SEGMENT
__Parg$ = 8						; size = 4
__Pvector$ = 12						; size = 4
??0?$_Vector_iterator@V?$_Vector_val@VioHashString@@V?$allocator@VioHashString@@@std@@@std@@@std@@QAE@PAVioHashString@@PBU_Container_base0@1@@Z PROC ; std::_Vector_iterator<std::_Vector_val<ioHashString,std::allocator<ioHashString> > >::_Vector_iterator<std::_Vector_val<ioHashString,std::allocator<ioHashString> > >, COMDAT
; _this$ = ecx

; 304  : 		{	// construct with pointer _Parg

  00000	55		 push	 ebp
  00001	8b ec		 mov	 ebp, esp
  00003	8b c1		 mov	 eax, ecx
  00005	8b 4d 08	 mov	 ecx, DWORD PTR __Parg$[ebp]
  00008	89 08		 mov	 DWORD PTR [eax], ecx

; 305  : 		}

  0000a	5d		 pop	 ebp
  0000b	c2 08 00	 ret	 8
??0?$_Vector_iterator@V?$_Vector_val@VioHashString@@V?$allocator@VioHashString@@@std@@@std@@@std@@QAE@PAVioHashString@@PBU_Container_base0@1@@Z ENDP ; std::_Vector_iterator<std::_Vector_val<ioHashString,std::allocator<ioHashString> > >::_Vector_iterator<std::_Vector_val<ioHashString,std::allocator<ioHashString> > >
_TEXT	ENDS
PUBLIC	?_Inside@?$basic_string@DU?$char_traits@D@std@@V?$allocator@D@2@@std@@QAE_NPBD@Z ; std::basic_string<char,std::char_traits<char>,std::allocator<char> >::_Inside
; Function compile flags: /Ogsp
; File c:\program files (x86)\microsoft visual studio 10.0\vc\include\xstring
;	COMDAT ?_Inside@?$basic_string@DU?$char_traits@D@std@@V?$allocator@D@2@@std@@QAE_NPBD@Z
_TEXT	SEGMENT
__Ptr$ = 8						; size = 4
?_Inside@?$basic_string@DU?$char_traits@D@std@@V?$allocator@D@2@@std@@QAE_NPBD@Z PROC ; std::basic_string<char,std::char_traits<char>,std::allocator<char> >::_Inside, COMDAT
; _this$ = ecx

; 1973 : 		{	// test if _Ptr points inside string

  00000	55		 push	 ebp
  00001	8b ec		 mov	 ebp, esp

; 1974 : 		if (_Ptr == 0 || _Ptr < _Myptr() || _Myptr() + this->_Mysize <= _Ptr)

  00003	83 7d 08 00	 cmp	 DWORD PTR __Ptr$[ebp], 0
  00007	74 2c		 je	 SHORT $LN2@Inside@3
  00009	8b 51 14	 mov	 edx, DWORD PTR [ecx+20]
  0000c	83 fa 10	 cmp	 edx, 16			; 00000010H
  0000f	72 04		 jb	 SHORT $LN8@Inside@3
  00011	8b 01		 mov	 eax, DWORD PTR [ecx]
  00013	eb 02		 jmp	 SHORT $LN9@Inside@3
$LN8@Inside@3:
  00015	8b c1		 mov	 eax, ecx
$LN9@Inside@3:
  00017	39 45 08	 cmp	 DWORD PTR __Ptr$[ebp], eax
  0001a	72 19		 jb	 SHORT $LN2@Inside@3
  0001c	83 fa 10	 cmp	 edx, 16			; 00000010H
  0001f	72 04		 jb	 SHORT $LN12@Inside@3
  00021	8b 01		 mov	 eax, DWORD PTR [ecx]
  00023	eb 02		 jmp	 SHORT $LN13@Inside@3
$LN12@Inside@3:
  00025	8b c1		 mov	 eax, ecx
$LN13@Inside@3:
  00027	8b 49 10	 mov	 ecx, DWORD PTR [ecx+16]
  0002a	03 c8		 add	 ecx, eax
  0002c	3b 4d 08	 cmp	 ecx, DWORD PTR __Ptr$[ebp]
  0002f	76 04		 jbe	 SHORT $LN2@Inside@3

; 1976 : 		else
; 1977 : 			return (true);

  00031	b0 01		 mov	 al, 1
  00033	eb 02		 jmp	 SHORT $LN1@Inside@3
$LN2@Inside@3:

; 1975 : 			return (false);	// don't ask

  00035	32 c0		 xor	 al, al
$LN1@Inside@3:

; 1978 : 		}

  00037	5d		 pop	 ebp
  00038	c2 04 00	 ret	 4
?_Inside@?$basic_string@DU?$char_traits@D@std@@V?$allocator@D@2@@std@@QAE_NPBD@Z ENDP ; std::basic_string<char,std::char_traits<char>,std::allocator<char> >::_Inside
_TEXT	ENDS
PUBLIC	?max_size@?$allocator@K@std@@QBEIXZ		; std::allocator<unsigned long>::max_size
; Function compile flags: /Ogsp
; File c:\program files (x86)\microsoft visual studio 10.0\vc\include\xmemory
;	COMDAT ?max_size@?$allocator@K@std@@QBEIXZ
_TEXT	SEGMENT
?max_size@?$allocator@K@std@@QBEIXZ PROC		; std::allocator<unsigned long>::max_size, COMDAT
; _this$ = ecx

; 218  : 		_SIZT _Count = (_SIZT)(-1) / sizeof (_Ty);
; 219  : 		return (0 < _Count ? _Count : 1);

  00000	b8 ff ff ff 3f	 mov	 eax, 1073741823		; 3fffffffH

; 220  : 		}

  00005	c3		 ret	 0
?max_size@?$allocator@K@std@@QBEIXZ ENDP		; std::allocator<unsigned long>::max_size
_TEXT	ENDS
PUBLIC	??0?$_Vector_const_iterator@V?$_Vector_val@KV?$allocator@K@std@@@std@@@std@@QAE@PAKPBU_Container_base0@1@@Z ; std::_Vector_const_iterator<std::_Vector_val<unsigned long,std::allocator<unsigned long> > >::_Vector_const_iterator<std::_Vector_val<unsigned long,std::allocator<unsigned long> > >
; Function compile flags: /Ogsp
; File c:\program files (x86)\microsoft visual studio 10.0\vc\include\vector
;	COMDAT ??0?$_Vector_const_iterator@V?$_Vector_val@KV?$allocator@K@std@@@std@@@std@@QAE@PAKPBU_Container_base0@1@@Z
_TEXT	SEGMENT
__Parg$ = 8						; size = 4
__Pvector$ = 12						; size = 4
??0?$_Vector_const_iterator@V?$_Vector_val@KV?$allocator@K@std@@@std@@@std@@QAE@PAKPBU_Container_base0@1@@Z PROC ; std::_Vector_const_iterator<std::_Vector_val<unsigned long,std::allocator<unsigned long> > >::_Vector_const_iterator<std::_Vector_val<unsigned long,std::allocator<unsigned long> > >, COMDAT
; _this$ = ecx

; 45   : 		{	// construct with pointer _Parg

  00000	55		 push	 ebp
  00001	8b ec		 mov	 ebp, esp
  00003	8b c1		 mov	 eax, ecx
  00005	8b 4d 08	 mov	 ecx, DWORD PTR __Parg$[ebp]
  00008	89 08		 mov	 DWORD PTR [eax], ecx

; 46   : 		this->_Adopt(_Pvector);
; 47   : 		}

  0000a	5d		 pop	 ebp
  0000b	c2 08 00	 ret	 8
??0?$_Vector_const_iterator@V?$_Vector_val@KV?$allocator@K@std@@@std@@@std@@QAE@PAKPBU_Container_base0@1@@Z ENDP ; std::_Vector_const_iterator<std::_Vector_val<unsigned long,std::allocator<unsigned long> > >::_Vector_const_iterator<std::_Vector_val<unsigned long,std::allocator<unsigned long> > >
_TEXT	ENDS
PUBLIC	?max_size@?$allocator@D@std@@QBEIXZ		; std::allocator<char>::max_size
; Function compile flags: /Ogsp
; File c:\program files (x86)\microsoft visual studio 10.0\vc\include\xmemory
;	COMDAT ?max_size@?$allocator@D@std@@QBEIXZ
_TEXT	SEGMENT
?max_size@?$allocator@D@std@@QBEIXZ PROC		; std::allocator<char>::max_size, COMDAT
; _this$ = ecx

; 218  : 		_SIZT _Count = (_SIZT)(-1) / sizeof (_Ty);
; 219  : 		return (0 < _Count ? _Count : 1);

  00000	83 c8 ff	 or	 eax, -1

; 220  : 		}

  00003	c3		 ret	 0
?max_size@?$allocator@D@std@@QBEIXZ ENDP		; std::allocator<char>::max_size
_TEXT	ENDS
PUBLIC	?_Compat@?$_Vector_const_iterator@V?$_Vector_val@VioHashString@@V?$allocator@VioHashString@@@std@@@std@@@std@@QBEXABV12@@Z ; std::_Vector_const_iterator<std::_Vector_val<ioHashString,std::allocator<ioHashString> > >::_Compat
; Function compile flags: /Ogsp
; File c:\program files (x86)\microsoft visual studio 10.0\vc\include\vector
;	COMDAT ?_Compat@?$_Vector_const_iterator@V?$_Vector_val@VioHashString@@V?$allocator@VioHashString@@@std@@@std@@@std@@QBEXABV12@@Z
_TEXT	SEGMENT
___formal$ = 8						; size = 4
?_Compat@?$_Vector_const_iterator@V?$_Vector_val@VioHashString@@V?$allocator@VioHashString@@@std@@@std@@@std@@QBEXABV12@@Z PROC ; std::_Vector_const_iterator<std::_Vector_val<ioHashString,std::allocator<ioHashString> > >::_Compat, COMDAT
; _this$ = ecx

; 253  : 		}

  00000	c2 04 00	 ret	 4
?_Compat@?$_Vector_const_iterator@V?$_Vector_val@VioHashString@@V?$allocator@VioHashString@@@std@@@std@@@std@@QBEXABV12@@Z ENDP ; std::_Vector_const_iterator<std::_Vector_val<ioHashString,std::allocator<ioHashString> > >::_Compat
_TEXT	ENDS
PUBLIC	?_Compat@?$_Vector_const_iterator@V?$_Vector_val@KV?$allocator@K@std@@@std@@@std@@QBEXABV12@@Z ; std::_Vector_const_iterator<std::_Vector_val<unsigned long,std::allocator<unsigned long> > >::_Compat
; Function compile flags: /Ogsp
;	COMDAT ?_Compat@?$_Vector_const_iterator@V?$_Vector_val@KV?$allocator@K@std@@@std@@@std@@QBEXABV12@@Z
_TEXT	SEGMENT
___formal$ = 8						; size = 4
?_Compat@?$_Vector_const_iterator@V?$_Vector_val@KV?$allocator@K@std@@@std@@@std@@QBEXABV12@@Z PROC ; std::_Vector_const_iterator<std::_Vector_val<unsigned long,std::allocator<unsigned long> > >::_Compat, COMDAT
; _this$ = ecx

; 253  : 		}

  00000	c2 04 00	 ret	 4
?_Compat@?$_Vector_const_iterator@V?$_Vector_val@KV?$allocator@K@std@@@std@@@std@@QBEXABV12@@Z ENDP ; std::_Vector_const_iterator<std::_Vector_val<unsigned long,std::allocator<unsigned long> > >::_Compat
_TEXT	ENDS
PUBLIC	??$addressof@$$CBK@std@@YAPBKABK@Z		; std::addressof<unsigned long const >
; Function compile flags: /Ogsp
; File c:\program files (x86)\microsoft visual studio 10.0\vc\include\xmemory
;	COMDAT ??$addressof@$$CBK@std@@YAPBKABK@Z
_TEXT	SEGMENT
__Val$ = 8						; size = 4
??$addressof@$$CBK@std@@YAPBKABK@Z PROC			; std::addressof<unsigned long const >, COMDAT

; 110  : 	{	// return address of _Val

  00000	55		 push	 ebp
  00001	8b ec		 mov	 ebp, esp

; 111  : 	return ((_Ty *) &(char&)_Val);

  00003	8b 45 08	 mov	 eax, DWORD PTR __Val$[ebp]

; 112  : 	}

  00006	5d		 pop	 ebp
  00007	c3		 ret	 0
??$addressof@$$CBK@std@@YAPBKABK@Z ENDP			; std::addressof<unsigned long const >
_TEXT	ENDS
PUBLIC	??$_Allocate@K@std@@YAPAKIPAK@Z			; std::_Allocate<unsigned long>
; Function compile flags: /Ogsp
;	COMDAT ??$_Allocate@K@std@@YAPAKIPAK@Z
_TEXT	SEGMENT
$T537101 = -12						; size = 12
$T537105 = 8						; size = 4
__Count$ = 8						; size = 4
___formal$ = 12						; size = 4
??$_Allocate@K@std@@YAPAKIPAK@Z PROC			; std::_Allocate<unsigned long>, COMDAT

; 30   : 	{	// allocate storage for _Count elements of type _Ty

  00000	55		 push	 ebp
  00001	8b ec		 mov	 ebp, esp

; 31   : 	void *_Ptr = 0;
; 32   : 
; 33   : 	if (_Count <= 0)

  00003	8b 4d 08	 mov	 ecx, DWORD PTR __Count$[ebp]
  00006	83 ec 0c	 sub	 esp, 12			; 0000000cH
  00009	33 c0		 xor	 eax, eax
  0000b	85 c9		 test	 ecx, ecx

; 34   : 		_Count = 0;
; 35   : 	else if (((_SIZT)(-1) / sizeof (_Ty) < _Count)

  0000d	74 3e		 je	 SHORT $LN5@Allocate@4

; 36   : 		|| (_Ptr = ::operator new(_Count * sizeof (_Ty))) == 0)

  0000f	81 f9 ff ff ff
	3f		 cmp	 ecx, 1073741823		; 3fffffffH
  00015	77 10		 ja	 SHORT $LN1@Allocate@4
  00017	8b c1		 mov	 eax, ecx
  00019	c1 e0 02	 shl	 eax, 2
  0001c	50		 push	 eax
  0001d	e8 00 00 00 00	 call	 ??2@YAPAXI@Z		; operator new
  00022	59		 pop	 ecx
  00023	85 c0		 test	 eax, eax

; 38   : 
; 39   : 	return ((_Ty _FARQ *)_Ptr);

  00025	75 26		 jne	 SHORT $LN5@Allocate@4
$LN1@Allocate@4:

; 37   : 		_THROW_NCEE(bad_alloc, 0);

  00027	83 65 08 00	 and	 DWORD PTR $T537105[ebp], 0
  0002b	8d 45 08	 lea	 eax, DWORD PTR $T537105[ebp]
  0002e	50		 push	 eax
  0002f	8d 4d f4	 lea	 ecx, DWORD PTR $T537101[ebp]
  00032	ff 15 00 00 00
	00		 call	 DWORD PTR __imp_??0exception@std@@QAE@ABQBD@Z
  00038	68 00 00 00 00	 push	 OFFSET __TI2?AVbad_alloc@std@@
  0003d	8d 45 f4	 lea	 eax, DWORD PTR $T537101[ebp]
  00040	50		 push	 eax
  00041	c7 45 f4 00 00
	00 00		 mov	 DWORD PTR $T537101[ebp], OFFSET ??_7bad_alloc@std@@6B@
  00048	e8 00 00 00 00	 call	 __CxxThrowException@8
$LN10@Allocate@4:
$LN5@Allocate@4:

; 40   : 	}

  0004d	c9		 leave
  0004e	c3		 ret	 0
$LN9@Allocate@4:
??$_Allocate@K@std@@YAPAKIPAK@Z ENDP			; std::_Allocate<unsigned long>
_TEXT	ENDS
PUBLIC	??$_Allocate@D@std@@YAPADIPAD@Z			; std::_Allocate<char>
; Function compile flags: /Ogsp
;	COMDAT ??$_Allocate@D@std@@YAPADIPAD@Z
_TEXT	SEGMENT
$T537110 = -12						; size = 12
$T537114 = 8						; size = 4
__Count$ = 8						; size = 4
___formal$ = 12						; size = 4
??$_Allocate@D@std@@YAPADIPAD@Z PROC			; std::_Allocate<char>, COMDAT

; 30   : 	{	// allocate storage for _Count elements of type _Ty

  00000	55		 push	 ebp
  00001	8b ec		 mov	 ebp, esp

; 31   : 	void *_Ptr = 0;

  00003	33 c0		 xor	 eax, eax
  00005	83 ec 0c	 sub	 esp, 12			; 0000000cH

; 32   : 
; 33   : 	if (_Count <= 0)

  00008	39 45 08	 cmp	 DWORD PTR __Count$[ebp], eax

; 34   : 		_Count = 0;
; 35   : 	else if (((_SIZT)(-1) / sizeof (_Ty) < _Count)

  0000b	76 39		 jbe	 SHORT $LN5@Allocate@5

; 36   : 		|| (_Ptr = ::operator new(_Count * sizeof (_Ty))) == 0)

  0000d	83 7d 08 ff	 cmp	 DWORD PTR __Count$[ebp], -1
  00011	77 0d		 ja	 SHORT $LN1@Allocate@5
  00013	ff 75 08	 push	 DWORD PTR __Count$[ebp]
  00016	e8 00 00 00 00	 call	 ??2@YAPAXI@Z		; operator new
  0001b	59		 pop	 ecx
  0001c	85 c0		 test	 eax, eax

; 38   : 
; 39   : 	return ((_Ty _FARQ *)_Ptr);

  0001e	75 26		 jne	 SHORT $LN5@Allocate@5
$LN1@Allocate@5:

; 37   : 		_THROW_NCEE(bad_alloc, 0);

  00020	83 65 08 00	 and	 DWORD PTR $T537114[ebp], 0
  00024	8d 45 08	 lea	 eax, DWORD PTR $T537114[ebp]
  00027	50		 push	 eax
  00028	8d 4d f4	 lea	 ecx, DWORD PTR $T537110[ebp]
  0002b	ff 15 00 00 00
	00		 call	 DWORD PTR __imp_??0exception@std@@QAE@ABQBD@Z
  00031	68 00 00 00 00	 push	 OFFSET __TI2?AVbad_alloc@std@@
  00036	8d 45 f4	 lea	 eax, DWORD PTR $T537110[ebp]
  00039	50		 push	 eax
  0003a	c7 45 f4 00 00
	00 00		 mov	 DWORD PTR $T537110[ebp], OFFSET ??_7bad_alloc@std@@6B@
  00041	e8 00 00 00 00	 call	 __CxxThrowException@8
$LN10@Allocate@5:
$LN5@Allocate@5:

; 40   : 	}

  00046	c9		 leave
  00047	c3		 ret	 0
$LN9@Allocate@5:
??$_Allocate@D@std@@YAPADIPAD@Z ENDP			; std::_Allocate<char>
_TEXT	ENDS
EXTRN	__imp_??0exception@std@@QAE@ABV01@@Z:PROC
; Function compile flags: /Ogsp
;	COMDAT ??0bad_alloc@std@@QAE@ABV01@@Z
_TEXT	SEGMENT
___that$ = 8						; size = 4
??0bad_alloc@std@@QAE@ABV01@@Z PROC			; std::bad_alloc::bad_alloc, COMDAT
; _this$ = ecx
  00000	55		 push	 ebp
  00001	8b ec		 mov	 ebp, esp
  00003	56		 push	 esi
  00004	ff 75 08	 push	 DWORD PTR ___that$[ebp]
  00007	8b f1		 mov	 esi, ecx
  00009	ff 15 00 00 00
	00		 call	 DWORD PTR __imp_??0exception@std@@QAE@ABV01@@Z
  0000f	c7 06 00 00 00
	00		 mov	 DWORD PTR [esi], OFFSET ??_7bad_alloc@std@@6B@
  00015	8b c6		 mov	 eax, esi
  00017	5e		 pop	 esi
  00018	5d		 pop	 ebp
  00019	c2 04 00	 ret	 4
??0bad_alloc@std@@QAE@ABV01@@Z ENDP			; std::bad_alloc::bad_alloc
_TEXT	ENDS
PUBLIC	??$forward@AAK@std@@YAAAKAAK@Z			; std::forward<unsigned long &>
; Function compile flags: /Ogsp
; File c:\program files (x86)\microsoft visual studio 10.0\vc\include\utility
;	COMDAT ??$forward@AAK@std@@YAAAKAAK@Z
_TEXT	SEGMENT
__Arg$ = 8						; size = 4
??$forward@AAK@std@@YAAAKAAK@Z PROC			; std::forward<unsigned long &>, COMDAT

; 78   : 	{	// forward _Arg, given explicitly specified type parameter

  00000	55		 push	 ebp
  00001	8b ec		 mov	 ebp, esp

; 79   : 	return ((_Ty&&)_Arg);

  00003	8b 45 08	 mov	 eax, DWORD PTR __Arg$[ebp]

; 80   : 	}

  00006	5d		 pop	 ebp
  00007	c3		 ret	 0
??$forward@AAK@std@@YAAAKAAK@Z ENDP			; std::forward<unsigned long &>
_TEXT	ENDS
PUBLIC	??$construct@AAK@?$allocator@K@std@@QAEXPAKAAK@Z ; std::allocator<unsigned long>::construct<unsigned long &>
; Function compile flags: /Ogsp
; File c:\program files (x86)\microsoft visual studio 10.0\vc\include\xmemory
;	COMDAT ??$construct@AAK@?$allocator@K@std@@QAEXPAKAAK@Z
_TEXT	SEGMENT
__Ptr$ = 8						; size = 4
__Val$ = 12						; size = 4
??$construct@AAK@?$allocator@K@std@@QAEXPAKAAK@Z PROC	; std::allocator<unsigned long>::construct<unsigned long &>, COMDAT
; _this$ = ecx

; 206  : 		void construct(pointer _Ptr, _Other&& _Val)

  00000	55		 push	 ebp
  00001	8b ec		 mov	 ebp, esp

; 207  : 		{	// construct object at _Ptr with value _Val
; 208  : 		::new ((void _FARQ *)_Ptr) _Ty(_STD forward<_Other>(_Val));

  00003	8b 45 08	 mov	 eax, DWORD PTR __Ptr$[ebp]
  00006	85 c0		 test	 eax, eax
  00008	74 07		 je	 SHORT $LN3@construct@2
  0000a	8b 4d 0c	 mov	 ecx, DWORD PTR __Val$[ebp]
  0000d	8b 09		 mov	 ecx, DWORD PTR [ecx]
  0000f	89 08		 mov	 DWORD PTR [eax], ecx
$LN3@construct@2:

; 209  : 		}

  00011	5d		 pop	 ebp
  00012	c2 08 00	 ret	 8
??$construct@AAK@?$allocator@K@std@@QAEXPAKAAK@Z ENDP	; std::allocator<unsigned long>::construct<unsigned long &>
_TEXT	ENDS
PUBLIC	??$forward@ABK@std@@YAABKABK@Z			; std::forward<unsigned long const &>
; Function compile flags: /Ogsp
; File c:\program files (x86)\microsoft visual studio 10.0\vc\include\utility
;	COMDAT ??$forward@ABK@std@@YAABKABK@Z
_TEXT	SEGMENT
__Arg$ = 8						; size = 4
??$forward@ABK@std@@YAABKABK@Z PROC			; std::forward<unsigned long const &>, COMDAT

; 78   : 	{	// forward _Arg, given explicitly specified type parameter

  00000	55		 push	 ebp
  00001	8b ec		 mov	 ebp, esp

; 79   : 	return ((_Ty&&)_Arg);

  00003	8b 45 08	 mov	 eax, DWORD PTR __Arg$[ebp]

; 80   : 	}

  00006	5d		 pop	 ebp
  00007	c3		 ret	 0
??$forward@ABK@std@@YAABKABK@Z ENDP			; std::forward<unsigned long const &>
_TEXT	ENDS
PUBLIC	??$_Ptr_cat@KK@std@@YA?AU_Scalar_ptr_iterator_tag@0@PAK0@Z ; std::_Ptr_cat<unsigned long,unsigned long>
; Function compile flags: /Ogsp
; File c:\program files (x86)\microsoft visual studio 10.0\vc\include\xutility
;	COMDAT ??$_Ptr_cat@KK@std@@YA?AU_Scalar_ptr_iterator_tag@0@PAK0@Z
_TEXT	SEGMENT
__Cat$ = -1						; size = 1
___formal$ = 8						; size = 4
___formal$ = 12						; size = 4
??$_Ptr_cat@KK@std@@YA?AU_Scalar_ptr_iterator_tag@0@PAK0@Z PROC ; std::_Ptr_cat<unsigned long,unsigned long>, COMDAT

; 516  : 	{	// return pointer category from pointers

  00000	55		 push	 ebp
  00001	8b ec		 mov	 ebp, esp
  00003	51		 push	 ecx

; 517  : 	typename _Ptr_cat_helper<_Elem1, _Elem2>::_Type _Cat;
; 518  : 	return (_Cat);

  00004	8a 45 ff	 mov	 al, BYTE PTR __Cat$[ebp]

; 519  : 	}

  00007	c9		 leave
  00008	c3		 ret	 0
??$_Ptr_cat@KK@std@@YA?AU_Scalar_ptr_iterator_tag@0@PAK0@Z ENDP ; std::_Ptr_cat<unsigned long,unsigned long>
_TEXT	ENDS
PUBLIC	??$_Move@PAKPAK@std@@YAPAKPAK00U_Scalar_ptr_iterator_tag@0@@Z ; std::_Move<unsigned long *,unsigned long *>
; Function compile flags: /Ogsp
;	COMDAT ??$_Move@PAKPAK@std@@YAPAKPAK00U_Scalar_ptr_iterator_tag@0@@Z
_TEXT	SEGMENT
__First$ = 8						; size = 4
__Last$ = 12						; size = 4
__Dest$ = 16						; size = 4
___formal$ = 20						; size = 1
??$_Move@PAKPAK@std@@YAPAKPAK00U_Scalar_ptr_iterator_tag@0@@Z PROC ; std::_Move<unsigned long *,unsigned long *>, COMDAT

; 2522 : 	{	// move [_First, _Last) to [_Dest, ...), pointers to scalars

  00000	55		 push	 ebp
  00001	8b ec		 mov	 ebp, esp
  00003	56		 push	 esi

; 2523 : 	ptrdiff_t _Count = _Last - _First;

  00004	8b 75 0c	 mov	 esi, DWORD PTR __Last$[ebp]
  00007	2b 75 08	 sub	 esi, DWORD PTR __First$[ebp]
  0000a	57		 push	 edi

; 2524 : 	_CSTD memmove(&*_Dest, &*_First,
; 2525 : 		_Count * sizeof (*_First));

  0000b	8b 7d 10	 mov	 edi, DWORD PTR __Dest$[ebp]
  0000e	c1 fe 02	 sar	 esi, 2
  00011	c1 e6 02	 shl	 esi, 2
  00014	56		 push	 esi
  00015	ff 75 08	 push	 DWORD PTR __First$[ebp]
  00018	57		 push	 edi
  00019	ff 15 00 00 00
	00		 call	 DWORD PTR __imp__memmove
  0001f	83 c4 0c	 add	 esp, 12			; 0000000cH

; 2526 : 	return (_Dest + _Count);

  00022	8d 04 3e	 lea	 eax, DWORD PTR [esi+edi]
  00025	5f		 pop	 edi
  00026	5e		 pop	 esi

; 2527 : 	}

  00027	5d		 pop	 ebp
  00028	c3		 ret	 0
??$_Move@PAKPAK@std@@YAPAKPAK00U_Scalar_ptr_iterator_tag@0@@Z ENDP ; std::_Move<unsigned long *,unsigned long *>
_TEXT	ENDS
PUBLIC	??$_Destroy_range@V?$allocator@K@std@@@std@@YAXPAK0AAV?$allocator@K@0@U_Scalar_ptr_iterator_tag@0@@Z ; std::_Destroy_range<std::allocator<unsigned long> >
; Function compile flags: /Ogsp
; File c:\program files (x86)\microsoft visual studio 10.0\vc\include\xmemory
;	COMDAT ??$_Destroy_range@V?$allocator@K@std@@@std@@YAXPAK0AAV?$allocator@K@0@U_Scalar_ptr_iterator_tag@0@@Z
_TEXT	SEGMENT
__First$ = 8						; size = 4
__Last$ = 12						; size = 4
__Al$ = 16						; size = 4
___formal$ = 20						; size = 1
??$_Destroy_range@V?$allocator@K@std@@@std@@YAXPAK0AAV?$allocator@K@0@U_Scalar_ptr_iterator_tag@0@@Z PROC ; std::_Destroy_range<std::allocator<unsigned long> >, COMDAT

; 105  : 	}

  00000	c3		 ret	 0
??$_Destroy_range@V?$allocator@K@std@@@std@@YAXPAK0AAV?$allocator@K@0@U_Scalar_ptr_iterator_tag@0@@Z ENDP ; std::_Destroy_range<std::allocator<unsigned long> >
_TEXT	ENDS
PUBLIC	??$_Construct@KABK@std@@YAXPAKABK@Z		; std::_Construct<unsigned long,unsigned long const &>
; Function compile flags: /Ogsp
;	COMDAT ??$_Construct@KABK@std@@YAXPAKABK@Z
_TEXT	SEGMENT
__Ptr$ = 8						; size = 4
__Val$ = 12						; size = 4
??$_Construct@KABK@std@@YAXPAKABK@Z PROC		; std::_Construct<unsigned long,unsigned long const &>, COMDAT

; 46   : 	{	// construct object at _Ptr with value _Val

  00000	55		 push	 ebp
  00001	8b ec		 mov	 ebp, esp

; 47   : 	void _FARQ *_Vptr = _Ptr;
; 48   : 	::new (_Vptr) _Ty1(_STD forward<_Ty2>(_Val));

  00003	8b 45 08	 mov	 eax, DWORD PTR __Ptr$[ebp]
  00006	85 c0		 test	 eax, eax
  00008	74 07		 je	 SHORT $LN3@Construct@2
  0000a	8b 4d 0c	 mov	 ecx, DWORD PTR __Val$[ebp]
  0000d	8b 09		 mov	 ecx, DWORD PTR [ecx]
  0000f	89 08		 mov	 DWORD PTR [eax], ecx
$LN3@Construct@2:

; 49   : 	}

  00011	5d		 pop	 ebp
  00012	c3		 ret	 0
??$_Construct@KABK@std@@YAXPAKABK@Z ENDP		; std::_Construct<unsigned long,unsigned long const &>
_TEXT	ENDS
PUBLIC	?size@?$vector@UWeaponInfo@@V?$allocator@UWeaponInfo@@@std@@@std@@QBEIXZ ; std::vector<WeaponInfo,std::allocator<WeaponInfo> >::size
; Function compile flags: /Ogsp
; File c:\program files (x86)\microsoft visual studio 10.0\vc\include\vector
;	COMDAT ?size@?$vector@UWeaponInfo@@V?$allocator@UWeaponInfo@@@std@@@std@@QBEIXZ
_TEXT	SEGMENT
?size@?$vector@UWeaponInfo@@V?$allocator@UWeaponInfo@@@std@@@std@@QBEIXZ PROC ; std::vector<WeaponInfo,std::allocator<WeaponInfo> >::size, COMDAT
; _this$ = ecx

; 879  : 		return (this->_Mylast - this->_Myfirst);

  00000	8b 41 04	 mov	 eax, DWORD PTR [ecx+4]
  00003	2b 01		 sub	 eax, DWORD PTR [ecx]
  00005	6a 28		 push	 40			; 00000028H
  00007	99		 cdq
  00008	59		 pop	 ecx
  00009	f7 f9		 idiv	 ecx

; 880  : 		}

  0000b	c3		 ret	 0
?size@?$vector@UWeaponInfo@@V?$allocator@UWeaponInfo@@@std@@@std@@QBEIXZ ENDP ; std::vector<WeaponInfo,std::allocator<WeaponInfo> >::size
_TEXT	ENDS
PUBLIC	??$_Val_type@PAK@std@@YAPAKPAK@Z		; std::_Val_type<unsigned long *>
; Function compile flags: /Ogsp
; File c:\program files (x86)\microsoft visual studio 10.0\vc\include\xutility
;	COMDAT ??$_Val_type@PAK@std@@YAPAKPAK@Z
_TEXT	SEGMENT
___formal$ = 8						; size = 4
??$_Val_type@PAK@std@@YAPAKPAK@Z PROC			; std::_Val_type<unsigned long *>, COMDAT

; 790  : 	return (0);

  00000	33 c0		 xor	 eax, eax

; 791  : 	}

  00002	c3		 ret	 0
??$_Val_type@PAK@std@@YAPAKPAK@Z ENDP			; std::_Val_type<unsigned long *>
_TEXT	ENDS
PUBLIC	??$_Uninit_move@KKK@std@@YAPAKPAK00AAV?$allocator@K@0@0U_Scalar_ptr_iterator_tag@0@@Z ; std::_Uninit_move<unsigned long,unsigned long,unsigned long>
; Function compile flags: /Ogsp
; File c:\program files (x86)\microsoft visual studio 10.0\vc\include\memory
;	COMDAT ??$_Uninit_move@KKK@std@@YAPAKPAK00AAV?$allocator@K@0@0U_Scalar_ptr_iterator_tag@0@@Z
_TEXT	SEGMENT
__First$ = 8						; size = 4
__Last$ = 12						; size = 4
__Dest$ = 16						; size = 4
___formal$ = 20						; size = 4
___formal$ = 24						; size = 4
___formal$ = 28						; size = 1
??$_Uninit_move@KKK@std@@YAPAKPAK00AAV?$allocator@K@0@0U_Scalar_ptr_iterator_tag@0@@Z PROC ; std::_Uninit_move<unsigned long,unsigned long,unsigned long>, COMDAT

; 456  : 	{	// move [_First, _Last) to raw _Dest, scalar type

  00000	55		 push	 ebp
  00001	8b ec		 mov	 ebp, esp
  00003	56		 push	 esi

; 457  : 	_DEBUG_RANGE(_First, _Last);
; 458  : 	_DEBUG_POINTER(_Dest);
; 459  : 	size_t _Count = (size_t)(_Last - _First);

  00004	8b 75 0c	 mov	 esi, DWORD PTR __Last$[ebp]
  00007	2b 75 08	 sub	 esi, DWORD PTR __First$[ebp]
  0000a	c1 fe 02	 sar	 esi, 2

; 460  : 	return ((_Ty2 *)_CSTD memmove(&*_Dest, &*_First,
; 461  : 		_Count * sizeof (*_First)) + _Count);	// NB: non-overlapping move

  0000d	c1 e6 02	 shl	 esi, 2
  00010	56		 push	 esi
  00011	ff 75 08	 push	 DWORD PTR __First$[ebp]
  00014	ff 75 10	 push	 DWORD PTR __Dest$[ebp]
  00017	ff 15 00 00 00
	00		 call	 DWORD PTR __imp__memmove
  0001d	83 c4 0c	 add	 esp, 12			; 0000000cH
  00020	03 c6		 add	 eax, esi
  00022	5e		 pop	 esi

; 462  : 	}

  00023	5d		 pop	 ebp
  00024	c3		 ret	 0
??$_Uninit_move@KKK@std@@YAPAKPAK00AAV?$allocator@K@0@0U_Scalar_ptr_iterator_tag@0@@Z ENDP ; std::_Uninit_move<unsigned long,unsigned long,unsigned long>
_TEXT	ENDS
PUBLIC	??D?$_Vector_const_iterator@V?$_Vector_val@VioHashString@@V?$allocator@VioHashString@@@std@@@std@@@std@@QBEABVioHashString@@XZ ; std::_Vector_const_iterator<std::_Vector_val<ioHashString,std::allocator<ioHashString> > >::operator*
; Function compile flags: /Ogsp
; File c:\program files (x86)\microsoft visual studio 10.0\vc\include\vector
;	COMDAT ??D?$_Vector_const_iterator@V?$_Vector_val@VioHashString@@V?$allocator@VioHashString@@@std@@@std@@@std@@QBEABVioHashString@@XZ
_TEXT	SEGMENT
??D?$_Vector_const_iterator@V?$_Vector_val@VioHashString@@V?$allocator@VioHashString@@@std@@@std@@@std@@QBEABVioHashString@@XZ PROC ; std::_Vector_const_iterator<std::_Vector_val<ioHashString,std::allocator<ioHashString> > >::operator*, COMDAT
; _this$ = ecx

; 64   :  #if _ITERATOR_DEBUG_LEVEL == 2
; 65   : 		if (this->_Getcont() == 0
; 66   : 			|| this->_Ptr == 0
; 67   : 			|| this->_Ptr < ((_Myvec *)this->_Getcont())->_Myfirst
; 68   : 			|| ((_Myvec *)this->_Getcont())->_Mylast <= this->_Ptr)
; 69   : 			{	// report error
; 70   : 			_DEBUG_ERROR("vector iterator not dereferencable");
; 71   : 			_SCL_SECURE_OUT_OF_RANGE;
; 72   : 			}
; 73   : 
; 74   :  #elif _ITERATOR_DEBUG_LEVEL == 1
; 75   : 		_SCL_SECURE_VALIDATE(this->_Getcont() != 0);
; 76   : 		_SCL_SECURE_VALIDATE_RANGE(
; 77   : 			this->_Ptr != 0
; 78   : 			&& ((_Myvec *)this->_Getcont())->_Myfirst <= this->_Ptr
; 79   : 			&& this->_Ptr < ((_Myvec *)this->_Getcont())->_Mylast);
; 80   :  #endif /* _ITERATOR_DEBUG_LEVEL */
; 81   : 
; 82   : 		__analysis_assume(this->_Ptr != 0);
; 83   : 
; 84   : 		return (*this->_Ptr);

  00000	8b 01		 mov	 eax, DWORD PTR [ecx]

; 85   : 		}

  00002	c3		 ret	 0
??D?$_Vector_const_iterator@V?$_Vector_val@VioHashString@@V?$allocator@VioHashString@@@std@@@std@@@std@@QBEABVioHashString@@XZ ENDP ; std::_Vector_const_iterator<std::_Vector_val<ioHashString,std::allocator<ioHashString> > >::operator*
_TEXT	ENDS
PUBLIC	??E?$_Vector_const_iterator@V?$_Vector_val@VioHashString@@V?$allocator@VioHashString@@@std@@@std@@@std@@QAEAAV01@XZ ; std::_Vector_const_iterator<std::_Vector_val<ioHashString,std::allocator<ioHashString> > >::operator++
; Function compile flags: /Ogsp
;	COMDAT ??E?$_Vector_const_iterator@V?$_Vector_val@VioHashString@@V?$allocator@VioHashString@@@std@@@std@@@std@@QAEAAV01@XZ
_TEXT	SEGMENT
??E?$_Vector_const_iterator@V?$_Vector_val@VioHashString@@V?$allocator@VioHashString@@@std@@@std@@@std@@QAEAAV01@XZ PROC ; std::_Vector_const_iterator<std::_Vector_val<ioHashString,std::allocator<ioHashString> > >::operator++, COMDAT
; _this$ = ecx

; 93   : 		{	// preincrement

  00000	8b c1		 mov	 eax, ecx

; 94   :  #if _ITERATOR_DEBUG_LEVEL == 2
; 95   : 		if (this->_Getcont() == 0
; 96   : 			|| this->_Ptr == 0
; 97   : 			|| ((_Myvec *)this->_Getcont())->_Mylast <= this->_Ptr)
; 98   : 			{	// report error
; 99   : 			_DEBUG_ERROR("vector iterator not incrementable");
; 100  : 			_SCL_SECURE_OUT_OF_RANGE;
; 101  : 			}
; 102  : 
; 103  :  #elif _ITERATOR_DEBUG_LEVEL == 1
; 104  : 		_SCL_SECURE_VALIDATE(this->_Getcont() != 0);
; 105  : 		_SCL_SECURE_VALIDATE_RANGE(
; 106  : 			this->_Ptr != 0
; 107  : 			&& this->_Ptr < ((_Myvec *)this->_Getcont())->_Mylast);
; 108  :  #endif /* _ITERATOR_DEBUG_LEVEL */
; 109  : 
; 110  : 		++this->_Ptr;

  00002	83 00 10	 add	 DWORD PTR [eax], 16	; 00000010H

; 111  : 		return (*this);
; 112  : 		}

  00005	c3		 ret	 0
??E?$_Vector_const_iterator@V?$_Vector_val@VioHashString@@V?$allocator@VioHashString@@@std@@@std@@@std@@QAEAAV01@XZ ENDP ; std::_Vector_const_iterator<std::_Vector_val<ioHashString,std::allocator<ioHashString> > >::operator++
_TEXT	ENDS
PUBLIC	??_R0?AVioBaseChar@@@8				; ioBaseChar `RTTI Type Descriptor'
PUBLIC	?ToBaseChar@@YAPAVioBaseChar@@PAVioGameEntity@@@Z ; ToBaseChar
;	COMDAT ??_R0?AVioBaseChar@@@8
; File d:\lost saga for developer\youtube\tutorial\source\src\lsclient\iobasechar.h
_DATA	SEGMENT
??_R0?AVioBaseChar@@@8 DD FLAT:??_7type_info@@6B@	; ioBaseChar `RTTI Type Descriptor'
	DD	00H
	DB	'.?AVioBaseChar@@', 00H
; Function compile flags: /Ogsp
_DATA	ENDS
;	COMDAT ?ToBaseChar@@YAPAVioBaseChar@@PAVioGameEntity@@@Z
_TEXT	SEGMENT
_pObj$ = 8						; size = 4
?ToBaseChar@@YAPAVioBaseChar@@PAVioGameEntity@@@Z PROC	; ToBaseChar, COMDAT

; 4326 : {

  00000	55		 push	 ebp
  00001	8b ec		 mov	 ebp, esp
  00003	56		 push	 esi

; 4327 : 	ioPlayEntity *pPlay = ToPlayEntity( pObj );

  00004	ff 75 08	 push	 DWORD PTR _pObj$[ebp]
  00007	e8 00 00 00 00	 call	 ?ToPlayEntity@@YAPAVioPlayEntity@@PAVioGameEntity@@@Z ; ToPlayEntity
  0000c	8b f0		 mov	 esi, eax
  0000e	59		 pop	 ecx

; 4328 : 	if( !pPlay || pPlay->GetSubType() != ioPlayEntity::PST_CHAR )

  0000f	85 f6		 test	 esi, esi
  00011	74 25		 je	 SHORT $LN1@ToBaseChar
  00013	8b 06		 mov	 eax, DWORD PTR [esi]
  00015	8b ce		 mov	 ecx, esi
  00017	ff 90 a4 00 00
	00		 call	 DWORD PTR [eax+164]
  0001d	85 c0		 test	 eax, eax
  0001f	75 17		 jne	 SHORT $LN1@ToBaseChar

; 4330 : 
; 4331 : 	return dynamic_cast< ioBaseChar* >( pPlay );

  00021	50		 push	 eax
  00022	68 00 00 00 00	 push	 OFFSET ??_R0?AVioBaseChar@@@8
  00027	68 00 00 00 00	 push	 OFFSET ??_R0?AVioPlayEntity@@@8
  0002c	50		 push	 eax
  0002d	56		 push	 esi
  0002e	e8 00 00 00 00	 call	 ___RTDynamicCast
  00033	83 c4 14	 add	 esp, 20			; 00000014H
  00036	eb 02		 jmp	 SHORT $LN3@ToBaseChar
$LN1@ToBaseChar:

; 4329 : 		return NULL;

  00038	33 c0		 xor	 eax, eax
$LN3@ToBaseChar:
  0003a	5e		 pop	 esi

; 4332 : }

  0003b	5d		 pop	 ebp
  0003c	c3		 ret	 0
?ToBaseChar@@YAPAVioBaseChar@@PAVioGameEntity@@@Z ENDP	; ToBaseChar
_TEXT	ENDS
PUBLIC	??D?$CEncrypt@M@@QAEMABM@Z			; CEncrypt<float>::operator*
; Function compile flags: /Ogsp
; File d:\lost saga for developer\youtube\tutorial\source\src\lsclient\encryptvalue.h
;	COMDAT ??D?$CEncrypt@M@@QAEMABM@Z
_TEXT	SEGMENT
_value$ = -4						; size = 4
tv130 = 8						; size = 4
_inValue$ = 8						; size = 4
??D?$CEncrypt@M@@QAEMABM@Z PROC				; CEncrypt<float>::operator*, COMDAT
; _this$ = ecx

; 1685 : 	{	

  00000	55		 push	 ebp
  00001	8b ec		 mov	 ebp, esp
  00003	51		 push	 ecx

; 1686 : 		type value;
; 1687 : 		DecryptValueToPool(&value);

  00004	8d 45 fc	 lea	 eax, DWORD PTR _value$[ebp]
  00007	50		 push	 eax
  00008	e8 00 00 00 00	 call	 ?DecryptValueToPool@?$CEncrypt@M@@QAEXPAM@Z ; CEncrypt<float>::DecryptValueToPool

; 1688 : #ifdef _NOTUSE
; 1689 : 		Debug();
; 1690 : #endif
; 1691 : 		return value * inValue;

  0000d	8b 45 08	 mov	 eax, DWORD PTR _inValue$[ebp]
  00010	d9 00		 fld	 DWORD PTR [eax]
  00012	d8 4d fc	 fmul	 DWORD PTR _value$[ebp]
  00015	d9 5d 08	 fstp	 DWORD PTR tv130[ebp]
  00018	d9 45 08	 fld	 DWORD PTR tv130[ebp]

; 1692 : 	}

  0001b	c9		 leave
  0001c	c2 04 00	 ret	 4
??D?$CEncrypt@M@@QAEMABM@Z ENDP				; CEncrypt<float>::operator*
_TEXT	ENDS
PUBLIC	??K?$CEncrypt@M@@QAEMABM@Z			; CEncrypt<float>::operator/
; Function compile flags: /Ogsp
;	COMDAT ??K?$CEncrypt@M@@QAEMABM@Z
_TEXT	SEGMENT
_value$ = -4						; size = 4
tv130 = 8						; size = 4
_inValue$ = 8						; size = 4
??K?$CEncrypt@M@@QAEMABM@Z PROC				; CEncrypt<float>::operator/, COMDAT
; _this$ = ecx

; 1695 : 	{

  00000	55		 push	 ebp
  00001	8b ec		 mov	 ebp, esp
  00003	51		 push	 ecx

; 1696 : 		type value;
; 1697 : 		DecryptValueToPool(&value);

  00004	8d 45 fc	 lea	 eax, DWORD PTR _value$[ebp]
  00007	50		 push	 eax
  00008	e8 00 00 00 00	 call	 ?DecryptValueToPool@?$CEncrypt@M@@QAEXPAM@Z ; CEncrypt<float>::DecryptValueToPool

; 1698 : #ifdef _NOTUSE
; 1699 : 		Debug();
; 1700 : #endif
; 1701 : 		return value / inValue;

  0000d	d9 45 fc	 fld	 DWORD PTR _value$[ebp]
  00010	8b 45 08	 mov	 eax, DWORD PTR _inValue$[ebp]
  00013	d8 30		 fdiv	 DWORD PTR [eax]
  00015	d9 5d 08	 fstp	 DWORD PTR tv130[ebp]
  00018	d9 45 08	 fld	 DWORD PTR tv130[ebp]

; 1702 : 	}

  0001b	c9		 leave
  0001c	c2 04 00	 ret	 4
??K?$CEncrypt@M@@QAEMABM@Z ENDP				; CEncrypt<float>::operator/
_TEXT	ENDS
PUBLIC	??M?$CEncrypt@M@@QAE_NABM@Z			; CEncrypt<float>::operator<
; Function compile flags: /Ogsp
;	COMDAT ??M?$CEncrypt@M@@QAE_NABM@Z
_TEXT	SEGMENT
_value$ = -4						; size = 4
_inValue$ = 8						; size = 4
??M?$CEncrypt@M@@QAE_NABM@Z PROC			; CEncrypt<float>::operator<, COMDAT
; _this$ = ecx

; 1791 : 	{

  00000	55		 push	 ebp
  00001	8b ec		 mov	 ebp, esp
  00003	51		 push	 ecx

; 1792 : 		type value;
; 1793 : 		DecryptValueToPool(&value);

  00004	8d 45 fc	 lea	 eax, DWORD PTR _value$[ebp]
  00007	50		 push	 eax
  00008	e8 00 00 00 00	 call	 ?DecryptValueToPool@?$CEncrypt@M@@QAEXPAM@Z ; CEncrypt<float>::DecryptValueToPool

; 1794 : #ifdef _NOTUSE
; 1795 : 		Debug();
; 1796 : #endif
; 1797 : 		return (value < inValue);

  0000d	8b 45 08	 mov	 eax, DWORD PTR _inValue$[ebp]
  00010	f3 0f 10 08	 movss	 xmm1, DWORD PTR [eax]
  00014	f3 0f 10 45 fc	 movss	 xmm0, DWORD PTR _value$[ebp]
  00019	0f 5a c0	 cvtps2pd xmm0, xmm0
  0001c	0f 5a c9	 cvtps2pd xmm1, xmm1
  0001f	33 c0		 xor	 eax, eax
  00021	66 0f 2f c8	 comisd	 xmm1, xmm0
  00025	76 01		 jbe	 SHORT $LN4@operator
  00027	40		 inc	 eax
$LN4@operator:

; 1798 : 	} 

  00028	c9		 leave
  00029	c2 04 00	 ret	 4
??M?$CEncrypt@M@@QAE_NABM@Z ENDP			; CEncrypt<float>::operator<
_TEXT	ENDS
PUBLIC	??9?$CEncrypt@M@@QAE_NABM@Z			; CEncrypt<float>::operator!=
; Function compile flags: /Ogsp
;	COMDAT ??9?$CEncrypt@M@@QAE_NABM@Z
_TEXT	SEGMENT
_value$ = -4						; size = 4
_inValue$ = 8						; size = 4
??9?$CEncrypt@M@@QAE_NABM@Z PROC			; CEncrypt<float>::operator!=, COMDAT
; _this$ = ecx

; 1801 : 	{

  00000	55		 push	 ebp
  00001	8b ec		 mov	 ebp, esp
  00003	51		 push	 ecx

; 1802 : 		type value;
; 1803 : 		DecryptValueToPool(&value);

  00004	8d 45 fc	 lea	 eax, DWORD PTR _value$[ebp]
  00007	50		 push	 eax
  00008	e8 00 00 00 00	 call	 ?DecryptValueToPool@?$CEncrypt@M@@QAEXPAM@Z ; CEncrypt<float>::DecryptValueToPool

; 1804 : #ifdef _NOTUSE
; 1805 : 		Debug();
; 1806 : #endif
; 1807 : 		return (value != inValue);

  0000d	8b 45 08	 mov	 eax, DWORD PTR _inValue$[ebp]
  00010	f3 0f 10 08	 movss	 xmm1, DWORD PTR [eax]
  00014	f3 0f 10 45 fc	 movss	 xmm0, DWORD PTR _value$[ebp]
  00019	0f 5a c0	 cvtps2pd xmm0, xmm0
  0001c	0f 5a c9	 cvtps2pd xmm1, xmm1
  0001f	66 0f 2e c1	 ucomisd xmm0, xmm1
  00023	9f		 lahf
  00024	f6 c4 44	 test	 ah, 68			; 00000044H
  00027	7b 05		 jnp	 SHORT $LN3@operator@2
  00029	33 c0		 xor	 eax, eax
  0002b	40		 inc	 eax
  0002c	eb 02		 jmp	 SHORT $LN4@operator@2
$LN3@operator@2:
  0002e	33 c0		 xor	 eax, eax
$LN4@operator@2:

; 1808 : 	} 		

  00030	c9		 leave
  00031	c2 04 00	 ret	 4
??9?$CEncrypt@M@@QAE_NABM@Z ENDP			; CEncrypt<float>::operator!=
_TEXT	ENDS
PUBLIC	??O?$CEncrypt@K@@QAE_NABH@Z			; CEncrypt<unsigned long>::operator>
; Function compile flags: /Ogsp
;	COMDAT ??O?$CEncrypt@K@@QAE_NABH@Z
_TEXT	SEGMENT
_value$ = -4						; size = 4
_inValue$ = 8						; size = 4
??O?$CEncrypt@K@@QAE_NABH@Z PROC			; CEncrypt<unsigned long>::operator>, COMDAT
; _this$ = ecx

; 1009 : 	{

  00000	55		 push	 ebp
  00001	8b ec		 mov	 ebp, esp
  00003	51		 push	 ecx

; 1010 : 		
; 1011 : 		type value;
; 1012 : 		DecryptValueToPool(&value);

  00004	8d 45 fc	 lea	 eax, DWORD PTR _value$[ebp]
  00007	50		 push	 eax
  00008	e8 00 00 00 00	 call	 ?DecryptValueToPool@?$CEncrypt@K@@QAEXPAK@Z ; CEncrypt<unsigned long>::DecryptValueToPool

; 1013 : #ifdef _NOTUSE
; 1014 : 		Debug();
; 1015 : #endif
; 1016 : 		return (value > inValue);

  0000d	8b 45 08	 mov	 eax, DWORD PTR _inValue$[ebp]
  00010	8b 00		 mov	 eax, DWORD PTR [eax]
  00012	3b 45 fc	 cmp	 eax, DWORD PTR _value$[ebp]
  00015	1b c0		 sbb	 eax, eax
  00017	f7 d8		 neg	 eax

; 1017 : 	}		

  00019	c9		 leave
  0001a	c2 04 00	 ret	 4
??O?$CEncrypt@K@@QAE_NABH@Z ENDP			; CEncrypt<unsigned long>::operator>
_TEXT	ENDS
PUBLIC	??O?$CEncrypt@K@@QAE_NABK@Z			; CEncrypt<unsigned long>::operator>
; Function compile flags: /Ogsp
;	COMDAT ??O?$CEncrypt@K@@QAE_NABK@Z
_TEXT	SEGMENT
_value$ = -4						; size = 4
_inValue$ = 8						; size = 4
??O?$CEncrypt@K@@QAE_NABK@Z PROC			; CEncrypt<unsigned long>::operator>, COMDAT
; _this$ = ecx

; 1421 : 	{

  00000	55		 push	 ebp
  00001	8b ec		 mov	 ebp, esp
  00003	51		 push	 ecx

; 1422 : 		type value;
; 1423 : 		DecryptValueToPool(&value);

  00004	8d 45 fc	 lea	 eax, DWORD PTR _value$[ebp]
  00007	50		 push	 eax
  00008	e8 00 00 00 00	 call	 ?DecryptValueToPool@?$CEncrypt@K@@QAEXPAK@Z ; CEncrypt<unsigned long>::DecryptValueToPool

; 1424 : #ifdef _NOTUSE
; 1425 : 		Debug();
; 1426 : #endif
; 1427 : 		return (value > inValue);

  0000d	8b 45 08	 mov	 eax, DWORD PTR _inValue$[ebp]
  00010	8b 00		 mov	 eax, DWORD PTR [eax]
  00012	3b 45 fc	 cmp	 eax, DWORD PTR _value$[ebp]
  00015	1b c0		 sbb	 eax, eax
  00017	f7 d8		 neg	 eax

; 1428 : 	}		

  00019	c9		 leave
  0001a	c2 04 00	 ret	 4
??O?$CEncrypt@K@@QAE_NABK@Z ENDP			; CEncrypt<unsigned long>::operator>
_TEXT	ENDS
PUBLIC	?begin@?$vector@PAVioBaseChar@@V?$allocator@PAVioBaseChar@@@std@@@std@@QBE?AV?$_Vector_const_iterator@V?$_Vector_val@PAVioBaseChar@@V?$allocator@PAVioBaseChar@@@std@@@std@@@2@XZ ; std::vector<ioBaseChar *,std::allocator<ioBaseChar *> >::begin
; Function compile flags: /Ogsp
; File c:\program files (x86)\microsoft visual studio 10.0\vc\include\vector
;	COMDAT ?begin@?$vector@PAVioBaseChar@@V?$allocator@PAVioBaseChar@@@std@@@std@@QBE?AV?$_Vector_const_iterator@V?$_Vector_val@PAVioBaseChar@@V?$allocator@PAVioBaseChar@@@std@@@std@@@2@XZ
_TEXT	SEGMENT
___$ReturnUdt$ = 8					; size = 4
?begin@?$vector@PAVioBaseChar@@V?$allocator@PAVioBaseChar@@@std@@@std@@QBE?AV?$_Vector_const_iterator@V?$_Vector_val@PAVioBaseChar@@V?$allocator@PAVioBaseChar@@@std@@@std@@@2@XZ PROC ; std::vector<ioBaseChar *,std::allocator<ioBaseChar *> >::begin, COMDAT
; _this$ = ecx

; 786  : 		{	// return iterator for beginning of nonmutable sequence

  00000	55		 push	 ebp
  00001	8b ec		 mov	 ebp, esp

; 787  : 		return (const_iterator(this->_Myfirst, this));

  00003	8b 09		 mov	 ecx, DWORD PTR [ecx]
  00005	8b 45 08	 mov	 eax, DWORD PTR ___$ReturnUdt$[ebp]
  00008	89 08		 mov	 DWORD PTR [eax], ecx

; 788  : 		}

  0000a	5d		 pop	 ebp
  0000b	c2 04 00	 ret	 4
?begin@?$vector@PAVioBaseChar@@V?$allocator@PAVioBaseChar@@@std@@@std@@QBE?AV?$_Vector_const_iterator@V?$_Vector_val@PAVioBaseChar@@V?$allocator@PAVioBaseChar@@@std@@@std@@@2@XZ ENDP ; std::vector<ioBaseChar *,std::allocator<ioBaseChar *> >::begin
_TEXT	ENDS
PUBLIC	?end@?$vector@PAVioBaseChar@@V?$allocator@PAVioBaseChar@@@std@@@std@@QBE?AV?$_Vector_const_iterator@V?$_Vector_val@PAVioBaseChar@@V?$allocator@PAVioBaseChar@@@std@@@std@@@2@XZ ; std::vector<ioBaseChar *,std::allocator<ioBaseChar *> >::end
; Function compile flags: /Ogsp
;	COMDAT ?end@?$vector@PAVioBaseChar@@V?$allocator@PAVioBaseChar@@@std@@@std@@QBE?AV?$_Vector_const_iterator@V?$_Vector_val@PAVioBaseChar@@V?$allocator@PAVioBaseChar@@@std@@@std@@@2@XZ
_TEXT	SEGMENT
___$ReturnUdt$ = 8					; size = 4
?end@?$vector@PAVioBaseChar@@V?$allocator@PAVioBaseChar@@@std@@@std@@QBE?AV?$_Vector_const_iterator@V?$_Vector_val@PAVioBaseChar@@V?$allocator@PAVioBaseChar@@@std@@@std@@@2@XZ PROC ; std::vector<ioBaseChar *,std::allocator<ioBaseChar *> >::end, COMDAT
; _this$ = ecx

; 796  : 		{	// return iterator for end of nonmutable sequence

  00000	55		 push	 ebp
  00001	8b ec		 mov	 ebp, esp

; 797  : 		return (const_iterator(this->_Mylast, this));

  00003	8b 49 04	 mov	 ecx, DWORD PTR [ecx+4]
  00006	8b 45 08	 mov	 eax, DWORD PTR ___$ReturnUdt$[ebp]
  00009	89 08		 mov	 DWORD PTR [eax], ecx

; 798  : 		}

  0000b	5d		 pop	 ebp
  0000c	c2 04 00	 ret	 4
?end@?$vector@PAVioBaseChar@@V?$allocator@PAVioBaseChar@@@std@@@std@@QBE?AV?$_Vector_const_iterator@V?$_Vector_val@PAVioBaseChar@@V?$allocator@PAVioBaseChar@@@std@@@std@@@2@XZ ENDP ; std::vector<ioBaseChar *,std::allocator<ioBaseChar *> >::end
_TEXT	ENDS
PUBLIC	??D?$_Vector_iterator@V?$_Vector_val@VioHashString@@V?$allocator@VioHashString@@@std@@@std@@@std@@QBEAAVioHashString@@XZ ; std::_Vector_iterator<std::_Vector_val<ioHashString,std::allocator<ioHashString> > >::operator*
; Function compile flags: /Ogsp
;	COMDAT ??D?$_Vector_iterator@V?$_Vector_val@VioHashString@@V?$allocator@VioHashString@@@std@@@std@@@std@@QBEAAVioHashString@@XZ
_TEXT	SEGMENT
??D?$_Vector_iterator@V?$_Vector_val@VioHashString@@V?$allocator@VioHashString@@@std@@@std@@@std@@QBEAAVioHashString@@XZ PROC ; std::_Vector_iterator<std::_Vector_val<ioHashString,std::allocator<ioHashString> > >::operator*, COMDAT
; _this$ = ecx

; 322  : 		return ((reference)**(_Mybase *)this);

  00000	8b 01		 mov	 eax, DWORD PTR [ecx]

; 323  : 		}

  00002	c3		 ret	 0
??D?$_Vector_iterator@V?$_Vector_val@VioHashString@@V?$allocator@VioHashString@@@std@@@std@@@std@@QBEAAVioHashString@@XZ ENDP ; std::_Vector_iterator<std::_Vector_val<ioHashString,std::allocator<ioHashString> > >::operator*
_TEXT	ENDS
PUBLIC	??E?$_Vector_iterator@V?$_Vector_val@VioHashString@@V?$allocator@VioHashString@@@std@@@std@@@std@@QAEAAV01@XZ ; std::_Vector_iterator<std::_Vector_val<ioHashString,std::allocator<ioHashString> > >::operator++
; Function compile flags: /Ogsp
;	COMDAT ??E?$_Vector_iterator@V?$_Vector_val@VioHashString@@V?$allocator@VioHashString@@@std@@@std@@@std@@QAEAAV01@XZ
_TEXT	SEGMENT
??E?$_Vector_iterator@V?$_Vector_val@VioHashString@@V?$allocator@VioHashString@@@std@@@std@@@std@@QAEAAV01@XZ PROC ; std::_Vector_iterator<std::_Vector_val<ioHashString,std::allocator<ioHashString> > >::operator++, COMDAT
; _this$ = ecx

; 331  : 		{	// preincrement

  00000	8b c1		 mov	 eax, ecx

; 332  : 		++*(_Mybase *)this;

  00002	83 00 10	 add	 DWORD PTR [eax], 16	; 00000010H

; 333  : 		return (*this);
; 334  : 		}

  00005	c3		 ret	 0
??E?$_Vector_iterator@V?$_Vector_val@VioHashString@@V?$allocator@VioHashString@@@std@@@std@@@std@@QAEAAV01@XZ ENDP ; std::_Vector_iterator<std::_Vector_val<ioHashString,std::allocator<ioHashString> > >::operator++
_TEXT	ENDS
PUBLIC	??D?$_Vector_iterator@V?$_Vector_val@KV?$allocator@K@std@@@std@@@std@@QBEAAKXZ ; std::_Vector_iterator<std::_Vector_val<unsigned long,std::allocator<unsigned long> > >::operator*
; Function compile flags: /Ogsp
;	COMDAT ??D?$_Vector_iterator@V?$_Vector_val@KV?$allocator@K@std@@@std@@@std@@QBEAAKXZ
_TEXT	SEGMENT
??D?$_Vector_iterator@V?$_Vector_val@KV?$allocator@K@std@@@std@@@std@@QBEAAKXZ PROC ; std::_Vector_iterator<std::_Vector_val<unsigned long,std::allocator<unsigned long> > >::operator*, COMDAT
; _this$ = ecx

; 322  : 		return ((reference)**(_Mybase *)this);

  00000	8b 01		 mov	 eax, DWORD PTR [ecx]

; 323  : 		}

  00002	c3		 ret	 0
??D?$_Vector_iterator@V?$_Vector_val@KV?$allocator@K@std@@@std@@@std@@QBEAAKXZ ENDP ; std::_Vector_iterator<std::_Vector_val<unsigned long,std::allocator<unsigned long> > >::operator*
_TEXT	ENDS
PUBLIC	??E?$_List_iterator@V?$_List_val@UFireTime@@V?$allocator@UFireTime@@@std@@@std@@@std@@QAEAAV01@XZ ; std::_List_iterator<std::_List_val<FireTime,std::allocator<FireTime> > >::operator++
; Function compile flags: /Ogsp
; File c:\program files (x86)\microsoft visual studio 10.0\vc\include\list
;	COMDAT ??E?$_List_iterator@V?$_List_val@UFireTime@@V?$allocator@UFireTime@@@std@@@std@@@std@@QAEAAV01@XZ
_TEXT	SEGMENT
??E?$_List_iterator@V?$_List_val@UFireTime@@V?$allocator@UFireTime@@@std@@@std@@@std@@QAEAAV01@XZ PROC ; std::_List_iterator<std::_List_val<FireTime,std::allocator<FireTime> > >::operator++, COMDAT
; _this$ = ecx

; 369  : 		{	// preincrement

  00000	8b c1		 mov	 eax, ecx

; 370  : 		++(*(_Mybase *)this);

  00002	8b 08		 mov	 ecx, DWORD PTR [eax]
  00004	8b 09		 mov	 ecx, DWORD PTR [ecx]
  00006	89 08		 mov	 DWORD PTR [eax], ecx

; 371  : 		return (*this);
; 372  : 		}

  00008	c3		 ret	 0
??E?$_List_iterator@V?$_List_val@UFireTime@@V?$allocator@UFireTime@@@std@@@std@@@std@@QAEAAV01@XZ ENDP ; std::_List_iterator<std::_List_val<FireTime,std::allocator<FireTime> > >::operator++
_TEXT	ENDS
PUBLIC	??9?$_List_const_iterator@V?$_List_val@UFireTime@@V?$allocator@UFireTime@@@std@@@std@@@std@@QBE_NABV01@@Z ; std::_List_const_iterator<std::_List_val<FireTime,std::allocator<FireTime> > >::operator!=
; Function compile flags: /Ogsp
;	COMDAT ??9?$_List_const_iterator@V?$_List_val@UFireTime@@V?$allocator@UFireTime@@@std@@@std@@@std@@QBE_NABV01@@Z
_TEXT	SEGMENT
__Right$ = 8						; size = 4
??9?$_List_const_iterator@V?$_List_val@UFireTime@@V?$allocator@UFireTime@@@std@@@std@@@std@@QBE_NABV01@@Z PROC ; std::_List_const_iterator<std::_List_val<FireTime,std::allocator<FireTime> > >::operator!=, COMDAT
; _this$ = ecx

; 299  : 		{	// test for iterator inequality

  00000	55		 push	 ebp
  00001	8b ec		 mov	 ebp, esp

; 300  : 		return (!(*this == _Right));

  00003	8b 01		 mov	 eax, DWORD PTR [ecx]
  00005	8b 55 08	 mov	 edx, DWORD PTR __Right$[ebp]
  00008	33 c9		 xor	 ecx, ecx
  0000a	3b 02		 cmp	 eax, DWORD PTR [edx]
  0000c	0f 95 c0	 setne	 al

; 301  : 		}

  0000f	5d		 pop	 ebp
  00010	c2 04 00	 ret	 4
??9?$_List_const_iterator@V?$_List_val@UFireTime@@V?$allocator@UFireTime@@@std@@@std@@@std@@QBE_NABV01@@Z ENDP ; std::_List_const_iterator<std::_List_val<FireTime,std::allocator<FireTime> > >::operator!=
_TEXT	ENDS
PUBLIC	??0?$_Vector_iterator@V?$_Vector_val@PBUAniEventTime@@V?$allocator@PBUAniEventTime@@@std@@@std@@@std@@QAE@XZ ; std::_Vector_iterator<std::_Vector_val<AniEventTime const *,std::allocator<AniEventTime const *> > >::_Vector_iterator<std::_Vector_val<AniEventTime const *,std::allocator<AniEventTime const *> > >
; Function compile flags: /Ogsp
; File c:\program files (x86)\microsoft visual studio 10.0\vc\include\vector
;	COMDAT ??0?$_Vector_iterator@V?$_Vector_val@PBUAniEventTime@@V?$allocator@PBUAniEventTime@@@std@@@std@@@std@@QAE@XZ
_TEXT	SEGMENT
??0?$_Vector_iterator@V?$_Vector_val@PBUAniEventTime@@V?$allocator@PBUAniEventTime@@@std@@@std@@@std@@QAE@XZ PROC ; std::_Vector_iterator<std::_Vector_val<AniEventTime const *,std::allocator<AniEventTime const *> > >::_Vector_iterator<std::_Vector_val<AniEventTime const *,std::allocator<AniEventTime const *> > >, COMDAT
; _this$ = ecx

; 298  : 	_Vector_iterator()

  00000	8b c1		 mov	 eax, ecx
  00002	83 20 00	 and	 DWORD PTR [eax], 0

; 299  : 		{	// construct with null vector pointer
; 300  : 		}

  00005	c3		 ret	 0
??0?$_Vector_iterator@V?$_Vector_val@PBUAniEventTime@@V?$allocator@PBUAniEventTime@@@std@@@std@@@std@@QAE@XZ ENDP ; std::_Vector_iterator<std::_Vector_val<AniEventTime const *,std::allocator<AniEventTime const *> > >::_Vector_iterator<std::_Vector_val<AniEventTime const *,std::allocator<AniEventTime const *> > >
_TEXT	ENDS
PUBLIC	??D?$_Vector_iterator@V?$_Vector_val@PBUAniEventTime@@V?$allocator@PBUAniEventTime@@@std@@@std@@@std@@QBEAAPBUAniEventTime@@XZ ; std::_Vector_iterator<std::_Vector_val<AniEventTime const *,std::allocator<AniEventTime const *> > >::operator*
; Function compile flags: /Ogsp
;	COMDAT ??D?$_Vector_iterator@V?$_Vector_val@PBUAniEventTime@@V?$allocator@PBUAniEventTime@@@std@@@std@@@std@@QBEAAPBUAniEventTime@@XZ
_TEXT	SEGMENT
??D?$_Vector_iterator@V?$_Vector_val@PBUAniEventTime@@V?$allocator@PBUAniEventTime@@@std@@@std@@@std@@QBEAAPBUAniEventTime@@XZ PROC ; std::_Vector_iterator<std::_Vector_val<AniEventTime const *,std::allocator<AniEventTime const *> > >::operator*, COMDAT
; _this$ = ecx

; 322  : 		return ((reference)**(_Mybase *)this);

  00000	8b 01		 mov	 eax, DWORD PTR [ecx]

; 323  : 		}

  00002	c3		 ret	 0
??D?$_Vector_iterator@V?$_Vector_val@PBUAniEventTime@@V?$allocator@PBUAniEventTime@@@std@@@std@@@std@@QBEAAPBUAniEventTime@@XZ ENDP ; std::_Vector_iterator<std::_Vector_val<AniEventTime const *,std::allocator<AniEventTime const *> > >::operator*
_TEXT	ENDS
PUBLIC	??E?$_Vector_iterator@V?$_Vector_val@PBUAniEventTime@@V?$allocator@PBUAniEventTime@@@std@@@std@@@std@@QAEAAV01@XZ ; std::_Vector_iterator<std::_Vector_val<AniEventTime const *,std::allocator<AniEventTime const *> > >::operator++
; Function compile flags: /Ogsp
;	COMDAT ??E?$_Vector_iterator@V?$_Vector_val@PBUAniEventTime@@V?$allocator@PBUAniEventTime@@@std@@@std@@@std@@QAEAAV01@XZ
_TEXT	SEGMENT
??E?$_Vector_iterator@V?$_Vector_val@PBUAniEventTime@@V?$allocator@PBUAniEventTime@@@std@@@std@@@std@@QAEAAV01@XZ PROC ; std::_Vector_iterator<std::_Vector_val<AniEventTime const *,std::allocator<AniEventTime const *> > >::operator++, COMDAT
; _this$ = ecx

; 331  : 		{	// preincrement

  00000	8b c1		 mov	 eax, ecx

; 332  : 		++*(_Mybase *)this;

  00002	83 00 04	 add	 DWORD PTR [eax], 4

; 333  : 		return (*this);
; 334  : 		}

  00005	c3		 ret	 0
??E?$_Vector_iterator@V?$_Vector_val@PBUAniEventTime@@V?$allocator@PBUAniEventTime@@@std@@@std@@@std@@QAEAAV01@XZ ENDP ; std::_Vector_iterator<std::_Vector_val<AniEventTime const *,std::allocator<AniEventTime const *> > >::operator++
_TEXT	ENDS
PUBLIC	??E?$_List_iterator@V?$_List_val@MV?$allocator@M@std@@@std@@@std@@QAEAAV01@XZ ; std::_List_iterator<std::_List_val<float,std::allocator<float> > >::operator++
; Function compile flags: /Ogsp
; File c:\program files (x86)\microsoft visual studio 10.0\vc\include\list
;	COMDAT ??E?$_List_iterator@V?$_List_val@MV?$allocator@M@std@@@std@@@std@@QAEAAV01@XZ
_TEXT	SEGMENT
??E?$_List_iterator@V?$_List_val@MV?$allocator@M@std@@@std@@@std@@QAEAAV01@XZ PROC ; std::_List_iterator<std::_List_val<float,std::allocator<float> > >::operator++, COMDAT
; _this$ = ecx

; 369  : 		{	// preincrement

  00000	8b c1		 mov	 eax, ecx

; 370  : 		++(*(_Mybase *)this);

  00002	8b 08		 mov	 ecx, DWORD PTR [eax]
  00004	8b 09		 mov	 ecx, DWORD PTR [ecx]
  00006	89 08		 mov	 DWORD PTR [eax], ecx

; 371  : 		return (*this);
; 372  : 		}

  00008	c3		 ret	 0
??E?$_List_iterator@V?$_List_val@MV?$allocator@M@std@@@std@@@std@@QAEAAV01@XZ ENDP ; std::_List_iterator<std::_List_val<float,std::allocator<float> > >::operator++
_TEXT	ENDS
PUBLIC	??9?$_List_const_iterator@V?$_List_val@MV?$allocator@M@std@@@std@@@std@@QBE_NABV01@@Z ; std::_List_const_iterator<std::_List_val<float,std::allocator<float> > >::operator!=
; Function compile flags: /Ogsp
;	COMDAT ??9?$_List_const_iterator@V?$_List_val@MV?$allocator@M@std@@@std@@@std@@QBE_NABV01@@Z
_TEXT	SEGMENT
__Right$ = 8						; size = 4
??9?$_List_const_iterator@V?$_List_val@MV?$allocator@M@std@@@std@@@std@@QBE_NABV01@@Z PROC ; std::_List_const_iterator<std::_List_val<float,std::allocator<float> > >::operator!=, COMDAT
; _this$ = ecx

; 299  : 		{	// test for iterator inequality

  00000	55		 push	 ebp
  00001	8b ec		 mov	 ebp, esp

; 300  : 		return (!(*this == _Right));

  00003	8b 01		 mov	 eax, DWORD PTR [ecx]
  00005	8b 55 08	 mov	 edx, DWORD PTR __Right$[ebp]
  00008	33 c9		 xor	 ecx, ecx
  0000a	3b 02		 cmp	 eax, DWORD PTR [edx]
  0000c	0f 95 c0	 setne	 al

; 301  : 		}

  0000f	5d		 pop	 ebp
  00010	c2 04 00	 ret	 4
??9?$_List_const_iterator@V?$_List_val@MV?$allocator@M@std@@@std@@@std@@QBE_NABV01@@Z ENDP ; std::_List_const_iterator<std::_List_val<float,std::allocator<float> > >::operator!=
_TEXT	ENDS
PUBLIC	?_Key@?$_Tree_val@V?$_Tmap_traits@HUtagDummyAttackInfo@@U?$less@H@std@@V?$allocator@U?$pair@$$CBHUtagDummyAttackInfo@@@std@@@3@$0A@@std@@@std@@SAAAHPAU_Node@?$_Tree_nod@V?$_Tmap_traits@HUtagDummyAttackInfo@@U?$less@H@std@@V?$allocator@U?$pair@$$CBHUtagDummyAttackInfo@@@std@@@3@$0A@@std@@@2@@Z ; std::_Tree_val<std::_Tmap_traits<int,tagDummyAttackInfo,std::less<int>,std::allocator<std::pair<int const ,tagDummyAttackInfo> >,0> >::_Key
; Function compile flags: /Ogsp
; File c:\program files (x86)\microsoft visual studio 10.0\vc\include\xtree
;	COMDAT ?_Key@?$_Tree_val@V?$_Tmap_traits@HUtagDummyAttackInfo@@U?$less@H@std@@V?$allocator@U?$pair@$$CBHUtagDummyAttackInfo@@@std@@@3@$0A@@std@@@std@@SAAAHPAU_Node@?$_Tree_nod@V?$_Tmap_traits@HUtagDummyAttackInfo@@U?$less@H@std@@V?$allocator@U?$pair@$$CBHUtagDummyAttackInfo@@@std@@@3@$0A@@std@@@2@@Z
_TEXT	SEGMENT
__Pnode$ = 8						; size = 4
?_Key@?$_Tree_val@V?$_Tmap_traits@HUtagDummyAttackInfo@@U?$less@H@std@@V?$allocator@U?$pair@$$CBHUtagDummyAttackInfo@@@std@@@3@$0A@@std@@@std@@SAAAHPAU_Node@?$_Tree_nod@V?$_Tmap_traits@HUtagDummyAttackInfo@@U?$less@H@std@@V?$allocator@U?$pair@$$CBHUtagDummyAttackInfo@@@std@@@3@$0A@@std@@@2@@Z PROC ; std::_Tree_val<std::_Tmap_traits<int,tagDummyAttackInfo,std::less<int>,std::allocator<std::pair<int const ,tagDummyAttackInfo> >,0> >::_Key, COMDAT

; 616  : 		{	// return reference to key in node

  00000	55		 push	 ebp
  00001	8b ec		 mov	 ebp, esp

; 617  : 		return ((key_type&)_Traits::_Kfn(_Myval(_Pnode)));

  00003	8b 45 08	 mov	 eax, DWORD PTR __Pnode$[ebp]
  00006	83 c0 0c	 add	 eax, 12			; 0000000cH

; 618  : 		}

  00009	5d		 pop	 ebp
  0000a	c3		 ret	 0
?_Key@?$_Tree_val@V?$_Tmap_traits@HUtagDummyAttackInfo@@U?$less@H@std@@V?$allocator@U?$pair@$$CBHUtagDummyAttackInfo@@@std@@@3@$0A@@std@@@std@@SAAAHPAU_Node@?$_Tree_nod@V?$_Tmap_traits@HUtagDummyAttackInfo@@U?$less@H@std@@V?$allocator@U?$pair@$$CBHUtagDummyAttackInfo@@@std@@@3@$0A@@std@@@2@@Z ENDP ; std::_Tree_val<std::_Tmap_traits<int,tagDummyAttackInfo,std::less<int>,std::allocator<std::pair<int const ,tagDummyAttackInfo> >,0> >::_Key
_TEXT	ENDS
PUBLIC	??1?$_List_val@MV?$allocator@M@std@@@std@@QAE@XZ ; std::_List_val<float,std::allocator<float> >::~_List_val<float,std::allocator<float> >
; Function compile flags: /Ogsp
; File c:\program files (x86)\microsoft visual studio 10.0\vc\include\list
;	COMDAT ??1?$_List_val@MV?$allocator@M@std@@@std@@QAE@XZ
_TEXT	SEGMENT
??1?$_List_val@MV?$allocator@M@std@@@std@@QAE@XZ PROC	; std::_List_val<float,std::allocator<float> >::~_List_val<float,std::allocator<float> >, COMDAT
; _this$ = ecx

; 502  : 		this->_Alnod.deallocate(this->_Myhead, 1);

  00000	ff 31		 push	 DWORD PTR [ecx]
  00002	e8 00 00 00 00	 call	 ??3@YAXPAX@Z		; operator delete
  00007	59		 pop	 ecx

; 503  : 		}

  00008	c3		 ret	 0
??1?$_List_val@MV?$allocator@M@std@@@std@@QAE@XZ ENDP	; std::_List_val<float,std::allocator<float> >::~_List_val<float,std::allocator<float> >
_TEXT	ENDS
PUBLIC	??8?$_Vector_const_iterator@V?$_Vector_val@PAVioBaseChar@@V?$allocator@PAVioBaseChar@@@std@@@std@@@std@@QBE_NABV01@@Z ; std::_Vector_const_iterator<std::_Vector_val<ioBaseChar *,std::allocator<ioBaseChar *> > >::operator==
; Function compile flags: /Ogsp
; File c:\program files (x86)\microsoft visual studio 10.0\vc\include\vector
;	COMDAT ??8?$_Vector_const_iterator@V?$_Vector_val@PAVioBaseChar@@V?$allocator@PAVioBaseChar@@@std@@@std@@@std@@QBE_NABV01@@Z
_TEXT	SEGMENT
__Right$ = 8						; size = 4
??8?$_Vector_const_iterator@V?$_Vector_val@PAVioBaseChar@@V?$allocator@PAVioBaseChar@@@std@@@std@@@std@@QBE_NABV01@@Z PROC ; std::_Vector_const_iterator<std::_Vector_val<ioBaseChar *,std::allocator<ioBaseChar *> > >::operator==, COMDAT
; _this$ = ecx

; 201  : 		{	// test for iterator equality

  00000	55		 push	 ebp
  00001	8b ec		 mov	 ebp, esp

; 202  : 		_Compat(_Right);
; 203  : 		return (this->_Ptr == _Right._Ptr);

  00003	8b 01		 mov	 eax, DWORD PTR [ecx]
  00005	8b 4d 08	 mov	 ecx, DWORD PTR __Right$[ebp]
  00008	2b 01		 sub	 eax, DWORD PTR [ecx]
  0000a	f7 d8		 neg	 eax
  0000c	1b c0		 sbb	 eax, eax
  0000e	40		 inc	 eax

; 204  : 		}

  0000f	5d		 pop	 ebp
  00010	c2 04 00	 ret	 4
??8?$_Vector_const_iterator@V?$_Vector_val@PAVioBaseChar@@V?$allocator@PAVioBaseChar@@@std@@@std@@@std@@QBE_NABV01@@Z ENDP ; std::_Vector_const_iterator<std::_Vector_val<ioBaseChar *,std::allocator<ioBaseChar *> > >::operator==
_TEXT	ENDS
PUBLIC	??D?$_List_const_iterator@V?$_List_val@UFireTime@@V?$allocator@UFireTime@@@std@@@std@@@std@@QBEABUFireTime@@XZ ; std::_List_const_iterator<std::_List_val<FireTime,std::allocator<FireTime> > >::operator*
; Function compile flags: /Ogsp
; File c:\program files (x86)\microsoft visual studio 10.0\vc\include\list
;	COMDAT ??D?$_List_const_iterator@V?$_List_val@UFireTime@@V?$allocator@UFireTime@@@std@@@std@@@std@@QBEABUFireTime@@XZ
_TEXT	SEGMENT
??D?$_List_const_iterator@V?$_List_val@UFireTime@@V?$allocator@UFireTime@@@std@@@std@@@std@@QBEABUFireTime@@XZ PROC ; std::_List_const_iterator<std::_List_val<FireTime,std::allocator<FireTime> > >::operator*, COMDAT
; _this$ = ecx

; 202  :  #if _ITERATOR_DEBUG_LEVEL == 2
; 203  : 		if (this->_Getcont() == 0
; 204  : 			|| this->_Ptr == 0
; 205  : 			|| this->_Ptr == ((_Mylist *)this->_Getcont())->_Myhead)
; 206  : 			{	// report error
; 207  : 			_DEBUG_ERROR("list iterator not dereferencable");
; 208  : 			_SCL_SECURE_OUT_OF_RANGE;
; 209  : 			}
; 210  : 
; 211  :  #elif _ITERATOR_DEBUG_LEVEL == 1
; 212  : 		_SCL_SECURE_VALIDATE(this->_Getcont() != 0 && this->_Ptr != 0);
; 213  : 		_SCL_SECURE_VALIDATE_RANGE(this->_Ptr !=
; 214  : 			((_Mylist *)this->_Getcont())->_Myhead);
; 215  :  #endif /* _ITERATOR_DEBUG_LEVEL */
; 216  : 
; 217  : 		return (_Mylist::_Myval(this->_Ptr));

  00000	8b 01		 mov	 eax, DWORD PTR [ecx]
  00002	83 c0 08	 add	 eax, 8

; 218  : 		}

  00005	c3		 ret	 0
??D?$_List_const_iterator@V?$_List_val@UFireTime@@V?$allocator@UFireTime@@@std@@@std@@@std@@QBEABUFireTime@@XZ ENDP ; std::_List_const_iterator<std::_List_val<FireTime,std::allocator<FireTime> > >::operator*
_TEXT	ENDS
PUBLIC	??D?$_Tree_iterator@V?$_Tree_val@V?$_Tmap_traits@HUtagDummyAttackInfo@@U?$less@H@std@@V?$allocator@U?$pair@$$CBHUtagDummyAttackInfo@@@std@@@3@$0A@@std@@@std@@@std@@QBEAAU?$pair@$$CBHUtagDummyAttackInfo@@@1@XZ ; std::_Tree_iterator<std::_Tree_val<std::_Tmap_traits<int,tagDummyAttackInfo,std::less<int>,std::allocator<std::pair<int const ,tagDummyAttackInfo> >,0> > >::operator*
; Function compile flags: /Ogsp
; File c:\program files (x86)\microsoft visual studio 10.0\vc\include\xtree
;	COMDAT ??D?$_Tree_iterator@V?$_Tree_val@V?$_Tmap_traits@HUtagDummyAttackInfo@@U?$less@H@std@@V?$allocator@U?$pair@$$CBHUtagDummyAttackInfo@@@std@@@3@$0A@@std@@@std@@@std@@QBEAAU?$pair@$$CBHUtagDummyAttackInfo@@@1@XZ
_TEXT	SEGMENT
??D?$_Tree_iterator@V?$_Tree_val@V?$_Tmap_traits@HUtagDummyAttackInfo@@U?$less@H@std@@V?$allocator@U?$pair@$$CBHUtagDummyAttackInfo@@@std@@@3@$0A@@std@@@std@@@std@@QBEAAU?$pair@$$CBHUtagDummyAttackInfo@@@1@XZ PROC ; std::_Tree_iterator<std::_Tree_val<std::_Tmap_traits<int,tagDummyAttackInfo,std::less<int>,std::allocator<std::pair<int const ,tagDummyAttackInfo> >,0> > >::operator*, COMDAT
; _this$ = ecx

; 396  : 		return ((reference)**(_Mybase *)this);

  00000	8b 01		 mov	 eax, DWORD PTR [ecx]
  00002	83 c0 0c	 add	 eax, 12			; 0000000cH

; 397  : 		}

  00005	c3		 ret	 0
??D?$_Tree_iterator@V?$_Tree_val@V?$_Tmap_traits@HUtagDummyAttackInfo@@U?$less@H@std@@V?$allocator@U?$pair@$$CBHUtagDummyAttackInfo@@@std@@@3@$0A@@std@@@std@@@std@@QBEAAU?$pair@$$CBHUtagDummyAttackInfo@@@1@XZ ENDP ; std::_Tree_iterator<std::_Tree_val<std::_Tmap_traits<int,tagDummyAttackInfo,std::less<int>,std::allocator<std::pair<int const ,tagDummyAttackInfo> >,0> > >::operator*
_TEXT	ENDS
PUBLIC	??0?$_Vector_val@PBUAniEventTime@@V?$allocator@PBUAniEventTime@@@std@@@std@@QAE@V?$allocator@PBUAniEventTime@@@1@@Z ; std::_Vector_val<AniEventTime const *,std::allocator<AniEventTime const *> >::_Vector_val<AniEventTime const *,std::allocator<AniEventTime const *> >
; Function compile flags: /Ogsp
; File c:\program files (x86)\microsoft visual studio 10.0\vc\include\vector
;	COMDAT ??0?$_Vector_val@PBUAniEventTime@@V?$allocator@PBUAniEventTime@@@std@@@std@@QAE@V?$allocator@PBUAniEventTime@@@1@@Z
_TEXT	SEGMENT
__Al$ = 8						; size = 1
??0?$_Vector_val@PBUAniEventTime@@V?$allocator@PBUAniEventTime@@@std@@@std@@QAE@V?$allocator@PBUAniEventTime@@@1@@Z PROC ; std::_Vector_val<AniEventTime const *,std::allocator<AniEventTime const *> >::_Vector_val<AniEventTime const *,std::allocator<AniEventTime const *> >, COMDAT
; _this$ = ecx

; 426  : 		{	// construct allocator from _Al

  00000	8b c1		 mov	 eax, ecx

; 427  : 		_Myfirst = 0;

  00002	33 c9		 xor	 ecx, ecx
  00004	89 08		 mov	 DWORD PTR [eax], ecx

; 428  : 		_Mylast = 0;

  00006	89 48 04	 mov	 DWORD PTR [eax+4], ecx

; 429  : 		_Myend = 0;

  00009	89 48 08	 mov	 DWORD PTR [eax+8], ecx

; 430  : 		}

  0000c	c2 04 00	 ret	 4
??0?$_Vector_val@PBUAniEventTime@@V?$allocator@PBUAniEventTime@@@std@@@std@@QAE@V?$allocator@PBUAniEventTime@@@1@@Z ENDP ; std::_Vector_val<AniEventTime const *,std::allocator<AniEventTime const *> >::_Vector_val<AniEventTime const *,std::allocator<AniEventTime const *> >
_TEXT	ENDS
PUBLIC	??0?$_Vector_iterator@V?$_Vector_val@PBUAniEventTime@@V?$allocator@PBUAniEventTime@@@std@@@std@@@std@@QAE@PAPBUAniEventTime@@PBU_Container_base0@1@@Z ; std::_Vector_iterator<std::_Vector_val<AniEventTime const *,std::allocator<AniEventTime const *> > >::_Vector_iterator<std::_Vector_val<AniEventTime const *,std::allocator<AniEventTime const *> > >
; Function compile flags: /Ogsp
;	COMDAT ??0?$_Vector_iterator@V?$_Vector_val@PBUAniEventTime@@V?$allocator@PBUAniEventTime@@@std@@@std@@@std@@QAE@PAPBUAniEventTime@@PBU_Container_base0@1@@Z
_TEXT	SEGMENT
__Parg$ = 8						; size = 4
__Pvector$ = 12						; size = 4
??0?$_Vector_iterator@V?$_Vector_val@PBUAniEventTime@@V?$allocator@PBUAniEventTime@@@std@@@std@@@std@@QAE@PAPBUAniEventTime@@PBU_Container_base0@1@@Z PROC ; std::_Vector_iterator<std::_Vector_val<AniEventTime const *,std::allocator<AniEventTime const *> > >::_Vector_iterator<std::_Vector_val<AniEventTime const *,std::allocator<AniEventTime const *> > >, COMDAT
; _this$ = ecx

; 304  : 		{	// construct with pointer _Parg

  00000	55		 push	 ebp
  00001	8b ec		 mov	 ebp, esp
  00003	8b c1		 mov	 eax, ecx
  00005	8b 4d 08	 mov	 ecx, DWORD PTR __Parg$[ebp]
  00008	89 08		 mov	 DWORD PTR [eax], ecx

; 305  : 		}

  0000a	5d		 pop	 ebp
  0000b	c2 08 00	 ret	 8
??0?$_Vector_iterator@V?$_Vector_val@PBUAniEventTime@@V?$allocator@PBUAniEventTime@@@std@@@std@@@std@@QAE@PAPBUAniEventTime@@PBU_Container_base0@1@@Z ENDP ; std::_Vector_iterator<std::_Vector_val<AniEventTime const *,std::allocator<AniEventTime const *> > >::_Vector_iterator<std::_Vector_val<AniEventTime const *,std::allocator<AniEventTime const *> > >
_TEXT	ENDS
PUBLIC	??8?$_Vector_const_iterator@V?$_Vector_val@PBUAniEventTime@@V?$allocator@PBUAniEventTime@@@std@@@std@@@std@@QBE_NABV01@@Z ; std::_Vector_const_iterator<std::_Vector_val<AniEventTime const *,std::allocator<AniEventTime const *> > >::operator==
; Function compile flags: /Ogsp
;	COMDAT ??8?$_Vector_const_iterator@V?$_Vector_val@PBUAniEventTime@@V?$allocator@PBUAniEventTime@@@std@@@std@@@std@@QBE_NABV01@@Z
_TEXT	SEGMENT
__Right$ = 8						; size = 4
??8?$_Vector_const_iterator@V?$_Vector_val@PBUAniEventTime@@V?$allocator@PBUAniEventTime@@@std@@@std@@@std@@QBE_NABV01@@Z PROC ; std::_Vector_const_iterator<std::_Vector_val<AniEventTime const *,std::allocator<AniEventTime const *> > >::operator==, COMDAT
; _this$ = ecx

; 201  : 		{	// test for iterator equality

  00000	55		 push	 ebp
  00001	8b ec		 mov	 ebp, esp

; 202  : 		_Compat(_Right);
; 203  : 		return (this->_Ptr == _Right._Ptr);

  00003	8b 01		 mov	 eax, DWORD PTR [ecx]
  00005	8b 4d 08	 mov	 ecx, DWORD PTR __Right$[ebp]
  00008	2b 01		 sub	 eax, DWORD PTR [ecx]
  0000a	f7 d8		 neg	 eax
  0000c	1b c0		 sbb	 eax, eax
  0000e	40		 inc	 eax

; 204  : 		}

  0000f	5d		 pop	 ebp
  00010	c2 04 00	 ret	 4
??8?$_Vector_const_iterator@V?$_Vector_val@PBUAniEventTime@@V?$allocator@PBUAniEventTime@@@std@@@std@@@std@@QBE_NABV01@@Z ENDP ; std::_Vector_const_iterator<std::_Vector_val<AniEventTime const *,std::allocator<AniEventTime const *> > >::operator==
_TEXT	ENDS
PUBLIC	??D?$_List_const_iterator@V?$_List_val@MV?$allocator@M@std@@@std@@@std@@QBEABMXZ ; std::_List_const_iterator<std::_List_val<float,std::allocator<float> > >::operator*
; Function compile flags: /Ogsp
; File c:\program files (x86)\microsoft visual studio 10.0\vc\include\list
;	COMDAT ??D?$_List_const_iterator@V?$_List_val@MV?$allocator@M@std@@@std@@@std@@QBEABMXZ
_TEXT	SEGMENT
??D?$_List_const_iterator@V?$_List_val@MV?$allocator@M@std@@@std@@@std@@QBEABMXZ PROC ; std::_List_const_iterator<std::_List_val<float,std::allocator<float> > >::operator*, COMDAT
; _this$ = ecx

; 202  :  #if _ITERATOR_DEBUG_LEVEL == 2
; 203  : 		if (this->_Getcont() == 0
; 204  : 			|| this->_Ptr == 0
; 205  : 			|| this->_Ptr == ((_Mylist *)this->_Getcont())->_Myhead)
; 206  : 			{	// report error
; 207  : 			_DEBUG_ERROR("list iterator not dereferencable");
; 208  : 			_SCL_SECURE_OUT_OF_RANGE;
; 209  : 			}
; 210  : 
; 211  :  #elif _ITERATOR_DEBUG_LEVEL == 1
; 212  : 		_SCL_SECURE_VALIDATE(this->_Getcont() != 0 && this->_Ptr != 0);
; 213  : 		_SCL_SECURE_VALIDATE_RANGE(this->_Ptr !=
; 214  : 			((_Mylist *)this->_Getcont())->_Myhead);
; 215  :  #endif /* _ITERATOR_DEBUG_LEVEL */
; 216  : 
; 217  : 		return (_Mylist::_Myval(this->_Ptr));

  00000	8b 01		 mov	 eax, DWORD PTR [ecx]
  00002	83 c0 08	 add	 eax, 8

; 218  : 		}

  00005	c3		 ret	 0
??D?$_List_const_iterator@V?$_List_val@MV?$allocator@M@std@@@std@@@std@@QBEABMXZ ENDP ; std::_List_const_iterator<std::_List_val<float,std::allocator<float> > >::operator*
_TEXT	ENDS
PUBLIC	?max_size@?$vector@UExtraAniJump@@V?$allocator@UExtraAniJump@@@std@@@std@@QBEIXZ ; std::vector<ExtraAniJump,std::allocator<ExtraAniJump> >::max_size
; Function compile flags: /Ogsp
; File c:\program files (x86)\microsoft visual studio 10.0\vc\include\vector
;	COMDAT ?max_size@?$vector@UExtraAniJump@@V?$allocator@UExtraAniJump@@@std@@@std@@QBEIXZ
_TEXT	SEGMENT
?max_size@?$vector@UExtraAniJump@@V?$allocator@UExtraAniJump@@@std@@@std@@QBEIXZ PROC ; std::vector<ExtraAniJump,std::allocator<ExtraAniJump> >::max_size, COMDAT
; _this$ = ecx

; 884  : 		return (this->_Alval.max_size());

  00000	b8 ff ff ff 1f	 mov	 eax, 536870911		; 1fffffffH

; 885  : 		}

  00005	c3		 ret	 0
?max_size@?$vector@UExtraAniJump@@V?$allocator@UExtraAniJump@@@std@@@std@@QBEIXZ ENDP ; std::vector<ExtraAniJump,std::allocator<ExtraAniJump> >::max_size
_TEXT	ENDS
PUBLIC	?_Grow_to@?$vector@UExtraAniJump@@V?$allocator@UExtraAniJump@@@std@@@std@@IBEII@Z ; std::vector<ExtraAniJump,std::allocator<ExtraAniJump> >::_Grow_to
; Function compile flags: /Ogsp
;	COMDAT ?_Grow_to@?$vector@UExtraAniJump@@V?$allocator@UExtraAniJump@@@std@@@std@@IBEII@Z
_TEXT	SEGMENT
__Count$ = 8						; size = 4
?_Grow_to@?$vector@UExtraAniJump@@V?$allocator@UExtraAniJump@@@std@@@std@@IBEII@Z PROC ; std::vector<ExtraAniJump,std::allocator<ExtraAniJump> >::_Grow_to, COMDAT
; _this$ = ecx

; 1274 : 		{	// grow by 50% or at least to _Count

  00000	55		 push	 ebp
  00001	8b ec		 mov	 ebp, esp

; 1275 : 		size_type _Capacity = capacity();

  00003	8b 41 08	 mov	 eax, DWORD PTR [ecx+8]
  00006	2b 01		 sub	 eax, DWORD PTR [ecx]

; 1276 : 
; 1277 : 		_Capacity = max_size() - _Capacity / 2 < _Capacity
; 1278 : 			? 0 : _Capacity + _Capacity / 2;	// try to grow by 50%

  00008	ba ff ff ff 1f	 mov	 edx, 536870911		; 1fffffffH
  0000d	c1 f8 03	 sar	 eax, 3
  00010	8b c8		 mov	 ecx, eax
  00012	d1 e9		 shr	 ecx, 1
  00014	2b d1		 sub	 edx, ecx
  00016	3b d0		 cmp	 edx, eax
  00018	73 04		 jae	 SHORT $LN4@Grow_to
  0001a	33 c0		 xor	 eax, eax
  0001c	eb 02		 jmp	 SHORT $LN5@Grow_to
$LN4@Grow_to:
  0001e	03 c1		 add	 eax, ecx
$LN5@Grow_to:

; 1279 : 		if (_Capacity < _Count)

  00020	3b 45 08	 cmp	 eax, DWORD PTR __Count$[ebp]

; 1280 : 			_Capacity = _Count;

  00023	0f 42 45 08	 cmovb	 eax, DWORD PTR __Count$[ebp]

; 1281 : 		return (_Capacity);
; 1282 : 		}

  00027	5d		 pop	 ebp
  00028	c2 04 00	 ret	 4
?_Grow_to@?$vector@UExtraAniJump@@V?$allocator@UExtraAniJump@@@std@@@std@@IBEII@Z ENDP ; std::vector<ExtraAniJump,std::allocator<ExtraAniJump> >::_Grow_to
_TEXT	ENDS
PUBLIC	??0?$_List_nod@MV?$allocator@M@std@@@std@@QAE@V?$allocator@M@1@@Z ; std::_List_nod<float,std::allocator<float> >::_List_nod<float,std::allocator<float> >
; Function compile flags: /Ogsp
; File c:\program files (x86)\microsoft visual studio 10.0\vc\include\list
;	COMDAT ??0?$_List_nod@MV?$allocator@M@std@@@std@@QAE@V?$allocator@M@1@@Z
_TEXT	SEGMENT
__Al$ = 8						; size = 1
??0?$_List_nod@MV?$allocator@M@std@@@std@@QAE@V?$allocator@M@1@@Z PROC ; std::_List_nod<float,std::allocator<float> >::_List_nod<float,std::allocator<float> >, COMDAT
; _this$ = ecx

; 438  : 		{	// construct allocators from _Al

  00000	8b c1		 mov	 eax, ecx

; 439  : 		}

  00002	c2 04 00	 ret	 4
??0?$_List_nod@MV?$allocator@M@std@@@std@@QAE@V?$allocator@M@1@@Z ENDP ; std::_List_nod<float,std::allocator<float> >::_List_nod<float,std::allocator<float> >
_TEXT	ENDS
PUBLIC	?allocate@?$allocator@U_Node@?$_List_nod@MV?$allocator@M@std@@@std@@@std@@QAEPAU_Node@?$_List_nod@MV?$allocator@M@std@@@2@I@Z ; std::allocator<std::_List_nod<float,std::allocator<float> >::_Node>::allocate
; Function compile flags: /Ogsp
; File c:\program files (x86)\microsoft visual studio 10.0\vc\include\xmemory
;	COMDAT ?allocate@?$allocator@U_Node@?$_List_nod@MV?$allocator@M@std@@@std@@@std@@QAEPAU_Node@?$_List_nod@MV?$allocator@M@std@@@2@I@Z
_TEXT	SEGMENT
__Count$ = 8						; size = 4
?allocate@?$allocator@U_Node@?$_List_nod@MV?$allocator@M@std@@@std@@@std@@QAEPAU_Node@?$_List_nod@MV?$allocator@M@std@@@2@I@Z PROC ; std::allocator<std::_List_nod<float,std::allocator<float> >::_Node>::allocate, COMDAT
; _this$ = ecx

; 186  : 		{	// allocate array of _Count elements

  00000	55		 push	 ebp
  00001	8b ec		 mov	 ebp, esp

; 187  : 		return (_Allocate(_Count, (pointer)0));

  00003	6a 00		 push	 0
  00005	ff 75 08	 push	 DWORD PTR __Count$[ebp]
  00008	e8 00 00 00 00	 call	 ??$_Allocate@U_Node@?$_List_nod@MV?$allocator@M@std@@@std@@@std@@YAPAU_Node@?$_List_nod@MV?$allocator@M@std@@@0@IPAU120@@Z ; std::_Allocate<std::_List_nod<float,std::allocator<float> >::_Node>
  0000d	59		 pop	 ecx
  0000e	59		 pop	 ecx

; 188  : 		}

  0000f	5d		 pop	 ebp
  00010	c2 04 00	 ret	 4
?allocate@?$allocator@U_Node@?$_List_nod@MV?$allocator@M@std@@@std@@@std@@QAEPAU_Node@?$_List_nod@MV?$allocator@M@std@@@2@I@Z ENDP ; std::allocator<std::_List_nod<float,std::allocator<float> >::_Node>::allocate
_TEXT	ENDS
PUBLIC	??0?$_List_const_iterator@V?$_List_val@UFireTime@@V?$allocator@UFireTime@@@std@@@std@@@std@@QAE@PAU_Node@?$_List_nod@UFireTime@@V?$allocator@UFireTime@@@std@@@1@PBV?$_List_val@UFireTime@@V?$allocator@UFireTime@@@std@@@1@@Z ; std::_List_const_iterator<std::_List_val<FireTime,std::allocator<FireTime> > >::_List_const_iterator<std::_List_val<FireTime,std::allocator<FireTime> > >
; Function compile flags: /Ogsp
; File c:\program files (x86)\microsoft visual studio 10.0\vc\include\list
;	COMDAT ??0?$_List_const_iterator@V?$_List_val@UFireTime@@V?$allocator@UFireTime@@@std@@@std@@@std@@QAE@PAU_Node@?$_List_nod@UFireTime@@V?$allocator@UFireTime@@@std@@@1@PBV?$_List_val@UFireTime@@V?$allocator@UFireTime@@@std@@@1@@Z
_TEXT	SEGMENT
__Pnode$ = 8						; size = 4
__Plist$ = 12						; size = 4
??0?$_List_const_iterator@V?$_List_val@UFireTime@@V?$allocator@UFireTime@@@std@@@std@@@std@@QAE@PAU_Node@?$_List_nod@UFireTime@@V?$allocator@UFireTime@@@std@@@1@PBV?$_List_val@UFireTime@@V?$allocator@UFireTime@@@std@@@1@@Z PROC ; std::_List_const_iterator<std::_List_val<FireTime,std::allocator<FireTime> > >::_List_const_iterator<std::_List_val<FireTime,std::allocator<FireTime> > >, COMDAT
; _this$ = ecx

; 184  : 		{	// construct with node pointer _Pnode

  00000	55		 push	 ebp
  00001	8b ec		 mov	 ebp, esp
  00003	8b c1		 mov	 eax, ecx
  00005	8b 4d 08	 mov	 ecx, DWORD PTR __Pnode$[ebp]
  00008	89 08		 mov	 DWORD PTR [eax], ecx

; 185  : 		}

  0000a	5d		 pop	 ebp
  0000b	c2 08 00	 ret	 8
??0?$_List_const_iterator@V?$_List_val@UFireTime@@V?$allocator@UFireTime@@@std@@@std@@@std@@QAE@PAU_Node@?$_List_nod@UFireTime@@V?$allocator@UFireTime@@@std@@@1@PBV?$_List_val@UFireTime@@V?$allocator@UFireTime@@@std@@@1@@Z ENDP ; std::_List_const_iterator<std::_List_val<FireTime,std::allocator<FireTime> > >::_List_const_iterator<std::_List_val<FireTime,std::allocator<FireTime> > >
_TEXT	ENDS
PUBLIC	??0?$_Tree_const_iterator@V?$_Tree_val@V?$_Tmap_traits@HUtagDummyAttackInfo@@U?$less@H@std@@V?$allocator@U?$pair@$$CBHUtagDummyAttackInfo@@@std@@@3@$0A@@std@@@std@@@std@@QAE@PAU_Node@?$_Tree_nod@V?$_Tmap_traits@HUtagDummyAttackInfo@@U?$less@H@std@@V?$allocator@U?$pair@$$CBHUtagDummyAttackInfo@@@std@@@3@$0A@@std@@@1@PBV?$_Tree_val@V?$_Tmap_traits@HUtagDummyAttackInfo@@U?$less@H@std@@V?$allocator@U?$pair@$$CBHUtagDummyAttackInfo@@@std@@@3@$0A@@std@@@1@@Z ; std::_Tree_const_iterator<std::_Tree_val<std::_Tmap_traits<int,tagDummyAttackInfo,std::less<int>,std::allocator<std::pair<int const ,tagDummyAttackInfo> >,0> > >::_Tree_const_iterator<std::_Tree_val<std::_Tmap_traits<int,tagDummyAttackInfo,std::less<int>,std::allocator<std::pair<int const ,tagDummyAttackInfo> >,0> > >
; Function compile flags: /Ogsp
; File c:\program files (x86)\microsoft visual studio 10.0\vc\include\xtree
;	COMDAT ??0?$_Tree_const_iterator@V?$_Tree_val@V?$_Tmap_traits@HUtagDummyAttackInfo@@U?$less@H@std@@V?$allocator@U?$pair@$$CBHUtagDummyAttackInfo@@@std@@@3@$0A@@std@@@std@@@std@@QAE@PAU_Node@?$_Tree_nod@V?$_Tmap_traits@HUtagDummyAttackInfo@@U?$less@H@std@@V?$allocator@U?$pair@$$CBHUtagDummyAttackInfo@@@std@@@3@$0A@@std@@@1@PBV?$_Tree_val@V?$_Tmap_traits@HUtagDummyAttackInfo@@U?$less@H@std@@V?$allocator@U?$pair@$$CBHUtagDummyAttackInfo@@@std@@@3@$0A@@std@@@1@@Z
_TEXT	SEGMENT
__Pnode$ = 8						; size = 4
__Plist$ = 12						; size = 4
??0?$_Tree_const_iterator@V?$_Tree_val@V?$_Tmap_traits@HUtagDummyAttackInfo@@U?$less@H@std@@V?$allocator@U?$pair@$$CBHUtagDummyAttackInfo@@@std@@@3@$0A@@std@@@std@@@std@@QAE@PAU_Node@?$_Tree_nod@V?$_Tmap_traits@HUtagDummyAttackInfo@@U?$less@H@std@@V?$allocator@U?$pair@$$CBHUtagDummyAttackInfo@@@std@@@3@$0A@@std@@@1@PBV?$_Tree_val@V?$_Tmap_traits@HUtagDummyAttackInfo@@U?$less@H@std@@V?$allocator@U?$pair@$$CBHUtagDummyAttackInfo@@@std@@@3@$0A@@std@@@1@@Z PROC ; std::_Tree_const_iterator<std::_Tree_val<std::_Tmap_traits<int,tagDummyAttackInfo,std::less<int>,std::allocator<std::pair<int const ,tagDummyAttackInfo> >,0> > >::_Tree_const_iterator<std::_Tree_val<std::_Tmap_traits<int,tagDummyAttackInfo,std::less<int>,std::allocator<std::pair<int const ,tagDummyAttackInfo> >,0> > >, COMDAT
; _this$ = ecx

; 213  : 		{	// construct with node pointer _Pnode

  00000	55		 push	 ebp
  00001	8b ec		 mov	 ebp, esp
  00003	8b c1		 mov	 eax, ecx
  00005	8b 4d 08	 mov	 ecx, DWORD PTR __Pnode$[ebp]
  00008	89 08		 mov	 DWORD PTR [eax], ecx

; 214  : 		}

  0000a	5d		 pop	 ebp
  0000b	c2 08 00	 ret	 8
??0?$_Tree_const_iterator@V?$_Tree_val@V?$_Tmap_traits@HUtagDummyAttackInfo@@U?$less@H@std@@V?$allocator@U?$pair@$$CBHUtagDummyAttackInfo@@@std@@@3@$0A@@std@@@std@@@std@@QAE@PAU_Node@?$_Tree_nod@V?$_Tmap_traits@HUtagDummyAttackInfo@@U?$less@H@std@@V?$allocator@U?$pair@$$CBHUtagDummyAttackInfo@@@std@@@3@$0A@@std@@@1@PBV?$_Tree_val@V?$_Tmap_traits@HUtagDummyAttackInfo@@U?$less@H@std@@V?$allocator@U?$pair@$$CBHUtagDummyAttackInfo@@@std@@@3@$0A@@std@@@1@@Z ENDP ; std::_Tree_const_iterator<std::_Tree_val<std::_Tmap_traits<int,tagDummyAttackInfo,std::less<int>,std::allocator<std::pair<int const ,tagDummyAttackInfo> >,0> > >::_Tree_const_iterator<std::_Tree_val<std::_Tmap_traits<int,tagDummyAttackInfo,std::less<int>,std::allocator<std::pair<int const ,tagDummyAttackInfo> >,0> > >
_TEXT	ENDS
PUBLIC	??0?$_List_const_iterator@V?$_List_val@MV?$allocator@M@std@@@std@@@std@@QAE@PAU_Node@?$_List_nod@MV?$allocator@M@std@@@1@PBV?$_List_val@MV?$allocator@M@std@@@1@@Z ; std::_List_const_iterator<std::_List_val<float,std::allocator<float> > >::_List_const_iterator<std::_List_val<float,std::allocator<float> > >
; Function compile flags: /Ogsp
; File c:\program files (x86)\microsoft visual studio 10.0\vc\include\list
;	COMDAT ??0?$_List_const_iterator@V?$_List_val@MV?$allocator@M@std@@@std@@@std@@QAE@PAU_Node@?$_List_nod@MV?$allocator@M@std@@@1@PBV?$_List_val@MV?$allocator@M@std@@@1@@Z
_TEXT	SEGMENT
__Pnode$ = 8						; size = 4
__Plist$ = 12						; size = 4
??0?$_List_const_iterator@V?$_List_val@MV?$allocator@M@std@@@std@@@std@@QAE@PAU_Node@?$_List_nod@MV?$allocator@M@std@@@1@PBV?$_List_val@MV?$allocator@M@std@@@1@@Z PROC ; std::_List_const_iterator<std::_List_val<float,std::allocator<float> > >::_List_const_iterator<std::_List_val<float,std::allocator<float> > >, COMDAT
; _this$ = ecx

; 184  : 		{	// construct with node pointer _Pnode

  00000	55		 push	 ebp
  00001	8b ec		 mov	 ebp, esp
  00003	8b c1		 mov	 eax, ecx
  00005	8b 4d 08	 mov	 ecx, DWORD PTR __Pnode$[ebp]
  00008	89 08		 mov	 DWORD PTR [eax], ecx

; 185  : 		}

  0000a	5d		 pop	 ebp
  0000b	c2 08 00	 ret	 8
??0?$_List_const_iterator@V?$_List_val@MV?$allocator@M@std@@@std@@@std@@QAE@PAU_Node@?$_List_nod@MV?$allocator@M@std@@@1@PBV?$_List_val@MV?$allocator@M@std@@@1@@Z ENDP ; std::_List_const_iterator<std::_List_val<float,std::allocator<float> > >::_List_const_iterator<std::_List_val<float,std::allocator<float> > >
_TEXT	ENDS
PUBLIC	??0?$_Vector_iterator@V?$_Vector_val@UExtraAniJump@@V?$allocator@UExtraAniJump@@@std@@@std@@@std@@QAE@PAUExtraAniJump@@PBU_Container_base0@1@@Z ; std::_Vector_iterator<std::_Vector_val<ExtraAniJump,std::allocator<ExtraAniJump> > >::_Vector_iterator<std::_Vector_val<ExtraAniJump,std::allocator<ExtraAniJump> > >
; Function compile flags: /Ogsp
; File c:\program files (x86)\microsoft visual studio 10.0\vc\include\vector
;	COMDAT ??0?$_Vector_iterator@V?$_Vector_val@UExtraAniJump@@V?$allocator@UExtraAniJump@@@std@@@std@@@std@@QAE@PAUExtraAniJump@@PBU_Container_base0@1@@Z
_TEXT	SEGMENT
__Parg$ = 8						; size = 4
__Pvector$ = 12						; size = 4
??0?$_Vector_iterator@V?$_Vector_val@UExtraAniJump@@V?$allocator@UExtraAniJump@@@std@@@std@@@std@@QAE@PAUExtraAniJump@@PBU_Container_base0@1@@Z PROC ; std::_Vector_iterator<std::_Vector_val<ExtraAniJump,std::allocator<ExtraAniJump> > >::_Vector_iterator<std::_Vector_val<ExtraAniJump,std::allocator<ExtraAniJump> > >, COMDAT
; _this$ = ecx

; 304  : 		{	// construct with pointer _Parg

  00000	55		 push	 ebp
  00001	8b ec		 mov	 ebp, esp
  00003	8b c1		 mov	 eax, ecx
  00005	8b 4d 08	 mov	 ecx, DWORD PTR __Parg$[ebp]
  00008	89 08		 mov	 DWORD PTR [eax], ecx

; 305  : 		}

  0000a	5d		 pop	 ebp
  0000b	c2 08 00	 ret	 8
??0?$_Vector_iterator@V?$_Vector_val@UExtraAniJump@@V?$allocator@UExtraAniJump@@@std@@@std@@@std@@QAE@PAUExtraAniJump@@PBU_Container_base0@1@@Z ENDP ; std::_Vector_iterator<std::_Vector_val<ExtraAniJump,std::allocator<ExtraAniJump> > >::_Vector_iterator<std::_Vector_val<ExtraAniJump,std::allocator<ExtraAniJump> > >
_TEXT	ENDS
PUBLIC	?_Root@?$_Tree@V?$_Tmap_traits@HUtagDummyAttackInfo@@U?$less@H@std@@V?$allocator@U?$pair@$$CBHUtagDummyAttackInfo@@@std@@@3@$0A@@std@@@std@@IBEAAPAU_Node@?$_Tree_nod@V?$_Tmap_traits@HUtagDummyAttackInfo@@U?$less@H@std@@V?$allocator@U?$pair@$$CBHUtagDummyAttackInfo@@@std@@@3@$0A@@std@@@2@XZ ; std::_Tree<std::_Tmap_traits<int,tagDummyAttackInfo,std::less<int>,std::allocator<std::pair<int const ,tagDummyAttackInfo> >,0> >::_Root
; Function compile flags: /Ogsp
; File c:\program files (x86)\microsoft visual studio 10.0\vc\include\xtree
;	COMDAT ?_Root@?$_Tree@V?$_Tmap_traits@HUtagDummyAttackInfo@@U?$less@H@std@@V?$allocator@U?$pair@$$CBHUtagDummyAttackInfo@@@std@@@3@$0A@@std@@@std@@IBEAAPAU_Node@?$_Tree_nod@V?$_Tmap_traits@HUtagDummyAttackInfo@@U?$less@H@std@@V?$allocator@U?$pair@$$CBHUtagDummyAttackInfo@@@std@@@3@$0A@@std@@@2@XZ
_TEXT	SEGMENT
?_Root@?$_Tree@V?$_Tmap_traits@HUtagDummyAttackInfo@@U?$less@H@std@@V?$allocator@U?$pair@$$CBHUtagDummyAttackInfo@@@std@@@3@$0A@@std@@@std@@IBEAAPAU_Node@?$_Tree_nod@V?$_Tmap_traits@HUtagDummyAttackInfo@@U?$less@H@std@@V?$allocator@U?$pair@$$CBHUtagDummyAttackInfo@@@std@@@3@$0A@@std@@@2@XZ PROC ; std::_Tree<std::_Tmap_traits<int,tagDummyAttackInfo,std::less<int>,std::allocator<std::pair<int const ,tagDummyAttackInfo> >,0> >::_Root, COMDAT
; _this$ = ecx

; 1789 : 		return (this->_Parent(this->_Myhead));

  00000	8b 41 04	 mov	 eax, DWORD PTR [ecx+4]
  00003	83 c0 04	 add	 eax, 4

; 1790 : 		}

  00006	c3		 ret	 0
?_Root@?$_Tree@V?$_Tmap_traits@HUtagDummyAttackInfo@@U?$less@H@std@@V?$allocator@U?$pair@$$CBHUtagDummyAttackInfo@@@std@@@3@$0A@@std@@@std@@IBEAAPAU_Node@?$_Tree_nod@V?$_Tmap_traits@HUtagDummyAttackInfo@@U?$less@H@std@@V?$allocator@U?$pair@$$CBHUtagDummyAttackInfo@@@std@@@3@$0A@@std@@@2@XZ ENDP ; std::_Tree<std::_Tmap_traits<int,tagDummyAttackInfo,std::less<int>,std::allocator<std::pair<int const ,tagDummyAttackInfo> >,0> >::_Root
_TEXT	ENDS
PUBLIC	?max_size@?$list@UFireTime@@V?$allocator@UFireTime@@@std@@@std@@QBEIXZ ; std::list<FireTime,std::allocator<FireTime> >::max_size
; Function compile flags: /Ogsp
; File c:\program files (x86)\microsoft visual studio 10.0\vc\include\list
;	COMDAT ?max_size@?$list@UFireTime@@V?$allocator@UFireTime@@@std@@@std@@QBEIXZ
_TEXT	SEGMENT
?max_size@?$list@UFireTime@@V?$allocator@UFireTime@@@std@@@std@@QBEIXZ PROC ; std::list<FireTime,std::allocator<FireTime> >::max_size, COMDAT
; _this$ = ecx

; 882  : 		return (this->_Alval.max_size());

  00000	b8 2e ba e8 02	 mov	 eax, 48806446		; 02e8ba2eH

; 883  : 		}

  00005	c3		 ret	 0
?max_size@?$list@UFireTime@@V?$allocator@UFireTime@@@std@@@std@@QBEIXZ ENDP ; std::list<FireTime,std::allocator<FireTime> >::max_size
_TEXT	ENDS
PUBLIC	?allocate@?$allocator@U_Node@?$_List_nod@UFireTime@@V?$allocator@UFireTime@@@std@@@std@@@std@@QAEPAU_Node@?$_List_nod@UFireTime@@V?$allocator@UFireTime@@@std@@@2@I@Z ; std::allocator<std::_List_nod<FireTime,std::allocator<FireTime> >::_Node>::allocate
; Function compile flags: /Ogsp
; File c:\program files (x86)\microsoft visual studio 10.0\vc\include\xmemory
;	COMDAT ?allocate@?$allocator@U_Node@?$_List_nod@UFireTime@@V?$allocator@UFireTime@@@std@@@std@@@std@@QAEPAU_Node@?$_List_nod@UFireTime@@V?$allocator@UFireTime@@@std@@@2@I@Z
_TEXT	SEGMENT
__Count$ = 8						; size = 4
?allocate@?$allocator@U_Node@?$_List_nod@UFireTime@@V?$allocator@UFireTime@@@std@@@std@@@std@@QAEPAU_Node@?$_List_nod@UFireTime@@V?$allocator@UFireTime@@@std@@@2@I@Z PROC ; std::allocator<std::_List_nod<FireTime,std::allocator<FireTime> >::_Node>::allocate, COMDAT
; _this$ = ecx

; 186  : 		{	// allocate array of _Count elements

  00000	55		 push	 ebp
  00001	8b ec		 mov	 ebp, esp

; 187  : 		return (_Allocate(_Count, (pointer)0));

  00003	6a 00		 push	 0
  00005	ff 75 08	 push	 DWORD PTR __Count$[ebp]
  00008	e8 00 00 00 00	 call	 ??$_Allocate@U_Node@?$_List_nod@UFireTime@@V?$allocator@UFireTime@@@std@@@std@@@std@@YAPAU_Node@?$_List_nod@UFireTime@@V?$allocator@UFireTime@@@std@@@0@IPAU120@@Z ; std::_Allocate<std::_List_nod<FireTime,std::allocator<FireTime> >::_Node>
  0000d	59		 pop	 ecx
  0000e	59		 pop	 ecx

; 188  : 		}

  0000f	5d		 pop	 ebp
  00010	c2 04 00	 ret	 4
?allocate@?$allocator@U_Node@?$_List_nod@UFireTime@@V?$allocator@UFireTime@@@std@@@std@@@std@@QAEPAU_Node@?$_List_nod@UFireTime@@V?$allocator@UFireTime@@@std@@@2@I@Z ENDP ; std::allocator<std::_List_nod<FireTime,std::allocator<FireTime> >::_Node>::allocate
_TEXT	ENDS
PUBLIC	?allocate@?$allocator@UExtraAniJump@@@std@@QAEPAUExtraAniJump@@I@Z ; std::allocator<ExtraAniJump>::allocate
; Function compile flags: /Ogsp
;	COMDAT ?allocate@?$allocator@UExtraAniJump@@@std@@QAEPAUExtraAniJump@@I@Z
_TEXT	SEGMENT
__Count$ = 8						; size = 4
?allocate@?$allocator@UExtraAniJump@@@std@@QAEPAUExtraAniJump@@I@Z PROC ; std::allocator<ExtraAniJump>::allocate, COMDAT
; _this$ = ecx

; 186  : 		{	// allocate array of _Count elements

  00000	55		 push	 ebp
  00001	8b ec		 mov	 ebp, esp

; 187  : 		return (_Allocate(_Count, (pointer)0));

  00003	6a 00		 push	 0
  00005	ff 75 08	 push	 DWORD PTR __Count$[ebp]
  00008	e8 00 00 00 00	 call	 ??$_Allocate@UExtraAniJump@@@std@@YAPAUExtraAniJump@@IPAU1@@Z ; std::_Allocate<ExtraAniJump>
  0000d	59		 pop	 ecx
  0000e	59		 pop	 ecx

; 188  : 		}

  0000f	5d		 pop	 ebp
  00010	c2 04 00	 ret	 4
?allocate@?$allocator@UExtraAniJump@@@std@@QAEPAUExtraAniJump@@I@Z ENDP ; std::allocator<ExtraAniJump>::allocate
_TEXT	ENDS
PUBLIC	??8?$_Vector_const_iterator@V?$_Vector_val@UExtraAniJump@@V?$allocator@UExtraAniJump@@@std@@@std@@@std@@QBE_NABV01@@Z ; std::_Vector_const_iterator<std::_Vector_val<ExtraAniJump,std::allocator<ExtraAniJump> > >::operator==
; Function compile flags: /Ogsp
; File c:\program files (x86)\microsoft visual studio 10.0\vc\include\vector
;	COMDAT ??8?$_Vector_const_iterator@V?$_Vector_val@UExtraAniJump@@V?$allocator@UExtraAniJump@@@std@@@std@@@std@@QBE_NABV01@@Z
_TEXT	SEGMENT
__Right$ = 8						; size = 4
??8?$_Vector_const_iterator@V?$_Vector_val@UExtraAniJump@@V?$allocator@UExtraAniJump@@@std@@@std@@@std@@QBE_NABV01@@Z PROC ; std::_Vector_const_iterator<std::_Vector_val<ExtraAniJump,std::allocator<ExtraAniJump> > >::operator==, COMDAT
; _this$ = ecx

; 201  : 		{	// test for iterator equality

  00000	55		 push	 ebp
  00001	8b ec		 mov	 ebp, esp

; 202  : 		_Compat(_Right);
; 203  : 		return (this->_Ptr == _Right._Ptr);

  00003	8b 01		 mov	 eax, DWORD PTR [ecx]
  00005	8b 4d 08	 mov	 ecx, DWORD PTR __Right$[ebp]
  00008	2b 01		 sub	 eax, DWORD PTR [ecx]
  0000a	f7 d8		 neg	 eax
  0000c	1b c0		 sbb	 eax, eax
  0000e	40		 inc	 eax

; 204  : 		}

  0000f	5d		 pop	 ebp
  00010	c2 04 00	 ret	 4
??8?$_Vector_const_iterator@V?$_Vector_val@UExtraAniJump@@V?$allocator@UExtraAniJump@@@std@@@std@@@std@@QBE_NABV01@@Z ENDP ; std::_Vector_const_iterator<std::_Vector_val<ExtraAniJump,std::allocator<ExtraAniJump> > >::operator==
_TEXT	ENDS
PUBLIC	__$ArrayPad$
PUBLIC	??$LoadFloat_e@$0L@@ioINILoader@@QAEMAAY0L@$$CBDM@Z ; ioINILoader::LoadFloat_e<11>
EXTRN	__imp_?LoadFloat@ioINILoader@@QAEMPBDM@Z:PROC
; Function compile flags: /Ogsp
; File d:\lost saga for developer\youtube\tutorial\source\src\io3dengine\ioiniloader.h
;	COMDAT ??$LoadFloat_e@$0L@@ioINILoader@@QAEMAAY0L@$$CBDM@Z
_TEXT	SEGMENT
__k$ = -20						; size = 11
__$ArrayPad$ = -4					; size = 4
_k$ = 8							; size = 4
_f$ = 12						; size = 4
??$LoadFloat_e@$0L@@ioINILoader@@QAEMAAY0L@$$CBDM@Z PROC ; ioINILoader::LoadFloat_e<11>, COMDAT
; _this$ = ecx

; 135  : 	{

  00000	55		 push	 ebp
  00001	8b ec		 mov	 ebp, esp
  00003	83 ec 14	 sub	 esp, 20			; 00000014H
  00006	a1 00 00 00 00	 mov	 eax, DWORD PTR ___security_cookie
  0000b	33 c5		 xor	 eax, ebp
  0000d	89 45 fc	 mov	 DWORD PTR __$ArrayPad$[ebp], eax
  00010	8b 45 08	 mov	 eax, DWORD PTR _k$[ebp]

; 136  : 		_ENCSTR(k, _k);

  00013	8a 10		 mov	 dl, BYTE PTR [eax]
  00015	56		 push	 esi
  00016	8b f1		 mov	 esi, ecx
  00018	84 d2		 test	 dl, dl
  0001a	0f 84 24 01 00
	00		 je	 $LN96@LoadFloat_
  00020	80 f2 ed	 xor	 dl, -19			; ffffffedH
  00023	88 55 ec	 mov	 BYTE PTR __k$[ebp], dl
  00026	8a 50 01	 mov	 dl, BYTE PTR [eax+1]
  00029	84 d2		 test	 dl, dl
  0002b	0f 84 0d 01 00
	00		 je	 $LN95@LoadFloat_
  00031	80 f2 ec	 xor	 dl, -20			; ffffffecH
  00034	88 55 ed	 mov	 BYTE PTR __k$[ebp+1], dl
  00037	8a 50 02	 mov	 dl, BYTE PTR [eax+2]
  0003a	84 d2		 test	 dl, dl
  0003c	0f 84 f6 00 00
	00		 je	 $LN94@LoadFloat_
  00042	80 f2 eb	 xor	 dl, -21			; ffffffebH
  00045	88 55 ee	 mov	 BYTE PTR __k$[ebp+2], dl
  00048	8a 50 03	 mov	 dl, BYTE PTR [eax+3]
  0004b	84 d2		 test	 dl, dl
  0004d	0f 84 df 00 00
	00		 je	 $LN93@LoadFloat_
  00053	80 f2 ea	 xor	 dl, -22			; ffffffeaH
  00056	88 55 ef	 mov	 BYTE PTR __k$[ebp+3], dl
  00059	8a 50 04	 mov	 dl, BYTE PTR [eax+4]
  0005c	84 d2		 test	 dl, dl
  0005e	0f 84 c8 00 00
	00		 je	 $LN92@LoadFloat_
  00064	80 f2 ed	 xor	 dl, -19			; ffffffedH
  00067	88 55 f0	 mov	 BYTE PTR __k$[ebp+4], dl
  0006a	8a 50 05	 mov	 dl, BYTE PTR [eax+5]
  0006d	84 d2		 test	 dl, dl
  0006f	0f 84 b1 00 00
	00		 je	 $LN91@LoadFloat_
  00075	80 f2 ec	 xor	 dl, -20			; ffffffecH
  00078	88 55 f1	 mov	 BYTE PTR __k$[ebp+5], dl
  0007b	8a 50 06	 mov	 dl, BYTE PTR [eax+6]
  0007e	84 d2		 test	 dl, dl
  00080	0f 84 9a 00 00
	00		 je	 $LN90@LoadFloat_
  00086	80 f2 eb	 xor	 dl, -21			; ffffffebH
  00089	88 55 f2	 mov	 BYTE PTR __k$[ebp+6], dl
  0008c	8a 50 07	 mov	 dl, BYTE PTR [eax+7]
  0008f	84 d2		 test	 dl, dl
  00091	0f 84 83 00 00
	00		 je	 $LN89@LoadFloat_
  00097	80 f2 ea	 xor	 dl, -22			; ffffffeaH
  0009a	88 55 f3	 mov	 BYTE PTR __k$[ebp+7], dl
  0009d	8a 50 08	 mov	 dl, BYTE PTR [eax+8]
  000a0	84 d2		 test	 dl, dl
  000a2	74 70		 je	 SHORT $LN88@LoadFloat_
  000a4	80 f2 ed	 xor	 dl, -19			; ffffffedH
  000a7	88 55 f4	 mov	 BYTE PTR __k$[ebp+8], dl
  000aa	8a 50 09	 mov	 dl, BYTE PTR [eax+9]
  000ad	84 d2		 test	 dl, dl
  000af	74 5d		 je	 SHORT $LN87@LoadFloat_
  000b1	80 f2 ec	 xor	 dl, -20			; ffffffecH
  000b4	80 78 0a 00	 cmp	 BYTE PTR [eax+10], 0
  000b8	88 55 f5	 mov	 BYTE PTR __k$[ebp+9], dl
  000bb	0f 84 87 00 00
	00		 je	 $LN1@LoadFloat_
  000c1	8a 50 0b	 mov	 dl, BYTE PTR [eax+11]
  000c4	84 d2		 test	 dl, dl
  000c6	74 40		 je	 SHORT $LN85@LoadFloat_
  000c8	80 f2 ea	 xor	 dl, -22			; ffffffeaH
  000cb	88 55 f7	 mov	 BYTE PTR __k$[ebp+11], dl
  000ce	8a 50 0c	 mov	 dl, BYTE PTR [eax+12]
  000d1	84 d2		 test	 dl, dl
  000d3	74 2d		 je	 SHORT $LN84@LoadFloat_
  000d5	80 f2 ed	 xor	 dl, -19			; ffffffedH
  000d8	88 55 f8	 mov	 BYTE PTR __k$[ebp+12], dl
  000db	8a 50 0d	 mov	 dl, BYTE PTR [eax+13]
  000de	84 d2		 test	 dl, dl
  000e0	74 1a		 je	 SHORT $LN83@LoadFloat_
  000e2	8a 40 0e	 mov	 al, BYTE PTR [eax+14]
  000e5	80 f2 ec	 xor	 dl, -20			; ffffffecH
  000e8	88 55 f9	 mov	 BYTE PTR __k$[ebp+13], dl
  000eb	84 c0		 test	 al, al
  000ed	74 07		 je	 SHORT $LN82@LoadFloat_
  000ef	34 eb		 xor	 al, -21			; ffffffebH
  000f1	88 45 fa	 mov	 BYTE PTR __k$[ebp+14], al
  000f4	eb 52		 jmp	 SHORT $LN1@LoadFloat_
$LN82@LoadFloat_:
  000f6	c6 45 fa eb	 mov	 BYTE PTR __k$[ebp+14], -21 ; ffffffebH
  000fa	eb 4c		 jmp	 SHORT $LN1@LoadFloat_
$LN83@LoadFloat_:
  000fc	c6 45 f9 ec	 mov	 BYTE PTR __k$[ebp+13], -20 ; ffffffecH
  00100	eb 46		 jmp	 SHORT $LN1@LoadFloat_
$LN84@LoadFloat_:
  00102	c6 45 f8 ed	 mov	 BYTE PTR __k$[ebp+12], -19 ; ffffffedH
  00106	eb 40		 jmp	 SHORT $LN1@LoadFloat_
$LN85@LoadFloat_:
  00108	c6 45 f7 ea	 mov	 BYTE PTR __k$[ebp+11], -22 ; ffffffeaH
  0010c	eb 3a		 jmp	 SHORT $LN1@LoadFloat_
$LN87@LoadFloat_:
  0010e	c6 45 f5 ec	 mov	 BYTE PTR __k$[ebp+9], -20 ; ffffffecH
  00112	eb 34		 jmp	 SHORT $LN1@LoadFloat_
$LN88@LoadFloat_:
  00114	c6 45 f4 ed	 mov	 BYTE PTR __k$[ebp+8], -19 ; ffffffedH
  00118	eb 2e		 jmp	 SHORT $LN1@LoadFloat_
$LN89@LoadFloat_:
  0011a	c6 45 f3 ea	 mov	 BYTE PTR __k$[ebp+7], -22 ; ffffffeaH
  0011e	eb 28		 jmp	 SHORT $LN1@LoadFloat_
$LN90@LoadFloat_:
  00120	c6 45 f2 eb	 mov	 BYTE PTR __k$[ebp+6], -21 ; ffffffebH
  00124	eb 22		 jmp	 SHORT $LN1@LoadFloat_
$LN91@LoadFloat_:
  00126	c6 45 f1 ec	 mov	 BYTE PTR __k$[ebp+5], -20 ; ffffffecH
  0012a	eb 1c		 jmp	 SHORT $LN1@LoadFloat_
$LN92@LoadFloat_:
  0012c	c6 45 f0 ed	 mov	 BYTE PTR __k$[ebp+4], -19 ; ffffffedH
  00130	eb 16		 jmp	 SHORT $LN1@LoadFloat_
$LN93@LoadFloat_:
  00132	c6 45 ef ea	 mov	 BYTE PTR __k$[ebp+3], -22 ; ffffffeaH
  00136	eb 10		 jmp	 SHORT $LN1@LoadFloat_
$LN94@LoadFloat_:
  00138	c6 45 ee eb	 mov	 BYTE PTR __k$[ebp+2], -21 ; ffffffebH
  0013c	eb 0a		 jmp	 SHORT $LN1@LoadFloat_
$LN95@LoadFloat_:
  0013e	c6 45 ed ec	 mov	 BYTE PTR __k$[ebp+1], -20 ; ffffffecH
  00142	eb 04		 jmp	 SHORT $LN1@LoadFloat_
$LN96@LoadFloat_:
  00144	c6 45 ec ed	 mov	 BYTE PTR __k$[ebp], -19	; ffffffedH
$LN1@LoadFloat_:
  00148	6a 02		 push	 2
  0014a	8d 45 ec	 lea	 eax, DWORD PTR __k$[ebp]
  0014d	c6 45 f6 00	 mov	 BYTE PTR __k$[ebp+10], 0
  00151	5a		 pop	 edx
$LL104@LoadFloat_:
  00152	81 30 ed ec eb
	ea		 xor	 DWORD PTR [eax], -353637139 ; eaebecedH
  00158	83 c0 04	 add	 eax, 4
  0015b	4a		 dec	 edx
  0015c	75 f4		 jne	 SHORT $LL104@LoadFloat_
  0015e	6a 08		 push	 8
  00160	58		 pop	 eax
$LL101@LoadFloat_:
  00161	8b c8		 mov	 ecx, eax
  00163	81 e1 03 00 00
	80		 and	 ecx, -2147483645	; 80000003H
  00169	79 05		 jns	 SHORT $LN111@LoadFloat_
  0016b	49		 dec	 ecx
  0016c	83 c9 fc	 or	 ecx, -4			; fffffffcH
  0016f	41		 inc	 ecx
$LN111@LoadFloat_:
  00170	b2 ed		 mov	 dl, -19			; ffffffedH
  00172	2a d1		 sub	 dl, cl
  00174	30 54 05 ec	 xor	 BYTE PTR __k$[ebp+eax], dl
  00178	40		 inc	 eax
  00179	83 f8 0a	 cmp	 eax, 10			; 0000000aH
  0017c	7c e3		 jl	 SHORT $LL101@LoadFloat_

; 137  : 		return LoadFloat(_k, f);

  0017e	f3 0f 10 45 0c	 movss	 xmm0, DWORD PTR _f$[ebp]
  00183	51		 push	 ecx
  00184	8d 45 ec	 lea	 eax, DWORD PTR __k$[ebp]
  00187	f3 0f 11 04 24	 movss	 DWORD PTR [esp], xmm0
  0018c	50		 push	 eax
  0018d	8b ce		 mov	 ecx, esi
  0018f	ff 15 00 00 00
	00		 call	 DWORD PTR __imp_?LoadFloat@ioINILoader@@QAEMPBDM@Z

; 138  : 	}

  00195	8b 4d fc	 mov	 ecx, DWORD PTR __$ArrayPad$[ebp]
  00198	33 cd		 xor	 ecx, ebp
  0019a	5e		 pop	 esi
  0019b	e8 00 00 00 00	 call	 @__security_check_cookie@4
  001a0	c9		 leave
  001a1	c2 08 00	 ret	 8
??$LoadFloat_e@$0L@@ioINILoader@@QAEMAAY0L@$$CBDM@Z ENDP ; ioINILoader::LoadFloat_e<11>
_TEXT	ENDS
PUBLIC	__$ArrayPad$
PUBLIC	??$LoadInt_e@$0P@@ioINILoader@@QAEHAAY0P@$$CBDH@Z ; ioINILoader::LoadInt_e<15>
EXTRN	__imp_?LoadInt@ioINILoader@@QAEHPBDH@Z:PROC
; Function compile flags: /Ogsp
;	COMDAT ??$LoadInt_e@$0P@@ioINILoader@@QAEHAAY0P@$$CBDH@Z
_TEXT	SEGMENT
__k$ = -24						; size = 15
__$ArrayPad$ = -4					; size = 4
_k$ = 8							; size = 4
_i$ = 12						; size = 4
??$LoadInt_e@$0P@@ioINILoader@@QAEHAAY0P@$$CBDH@Z PROC	; ioINILoader::LoadInt_e<15>, COMDAT
; _this$ = ecx

; 118  : 	{

  00000	55		 push	 ebp
  00001	8b ec		 mov	 ebp, esp
  00003	83 ec 18	 sub	 esp, 24			; 00000018H
  00006	a1 00 00 00 00	 mov	 eax, DWORD PTR ___security_cookie
  0000b	33 c5		 xor	 eax, ebp
  0000d	89 45 fc	 mov	 DWORD PTR __$ArrayPad$[ebp], eax
  00010	8b 45 08	 mov	 eax, DWORD PTR _k$[ebp]

; 119  : 		_ENCSTR(k, _k);

  00013	8a 10		 mov	 dl, BYTE PTR [eax]
  00015	56		 push	 esi
  00016	8b f1		 mov	 esi, ecx
  00018	84 d2		 test	 dl, dl
  0001a	0f 84 75 01 00
	00		 je	 $LN96@LoadInt_e
  00020	80 f2 ed	 xor	 dl, -19			; ffffffedH
  00023	88 55 e8	 mov	 BYTE PTR __k$[ebp], dl
  00026	8a 50 01	 mov	 dl, BYTE PTR [eax+1]
  00029	84 d2		 test	 dl, dl
  0002b	0f 84 5e 01 00
	00		 je	 $LN95@LoadInt_e
  00031	b1 ec		 mov	 cl, -20			; ffffffecH
  00033	32 d1		 xor	 dl, cl
  00035	88 55 e9	 mov	 BYTE PTR __k$[ebp+1], dl
  00038	8a 50 02	 mov	 dl, BYTE PTR [eax+2]
  0003b	84 d2		 test	 dl, dl
  0003d	0f 84 46 01 00
	00		 je	 $LN94@LoadInt_e
  00043	80 f2 eb	 xor	 dl, -21			; ffffffebH
  00046	88 55 ea	 mov	 BYTE PTR __k$[ebp+2], dl
  00049	8a 50 03	 mov	 dl, BYTE PTR [eax+3]
  0004c	84 d2		 test	 dl, dl
  0004e	0f 84 2f 01 00
	00		 je	 $LN93@LoadInt_e
  00054	80 f2 ea	 xor	 dl, -22			; ffffffeaH
  00057	88 55 eb	 mov	 BYTE PTR __k$[ebp+3], dl
  0005a	8a 50 04	 mov	 dl, BYTE PTR [eax+4]
  0005d	84 d2		 test	 dl, dl
  0005f	0f 84 18 01 00
	00		 je	 $LN92@LoadInt_e
  00065	80 f2 ed	 xor	 dl, -19			; ffffffedH
  00068	88 55 ec	 mov	 BYTE PTR __k$[ebp+4], dl
  0006b	8a 50 05	 mov	 dl, BYTE PTR [eax+5]
  0006e	84 d2		 test	 dl, dl
  00070	0f 84 02 01 00
	00		 je	 $LN91@LoadInt_e
  00076	32 d1		 xor	 dl, cl
  00078	88 55 ed	 mov	 BYTE PTR __k$[ebp+5], dl
  0007b	8a 50 06	 mov	 dl, BYTE PTR [eax+6]
  0007e	84 d2		 test	 dl, dl
  00080	0f 84 ec 00 00
	00		 je	 $LN90@LoadInt_e
  00086	80 f2 eb	 xor	 dl, -21			; ffffffebH
  00089	88 55 ee	 mov	 BYTE PTR __k$[ebp+6], dl
  0008c	8a 50 07	 mov	 dl, BYTE PTR [eax+7]
  0008f	84 d2		 test	 dl, dl
  00091	0f 84 d5 00 00
	00		 je	 $LN89@LoadInt_e
  00097	80 f2 ea	 xor	 dl, -22			; ffffffeaH
  0009a	88 55 ef	 mov	 BYTE PTR __k$[ebp+7], dl
  0009d	8a 50 08	 mov	 dl, BYTE PTR [eax+8]
  000a0	84 d2		 test	 dl, dl
  000a2	0f 84 be 00 00
	00		 je	 $LN88@LoadInt_e
  000a8	80 f2 ed	 xor	 dl, -19			; ffffffedH
  000ab	88 55 f0	 mov	 BYTE PTR __k$[ebp+8], dl
  000ae	8a 50 09	 mov	 dl, BYTE PTR [eax+9]
  000b1	84 d2		 test	 dl, dl
  000b3	0f 84 a8 00 00
	00		 je	 $LN87@LoadInt_e
  000b9	32 d1		 xor	 dl, cl
  000bb	88 55 f1	 mov	 BYTE PTR __k$[ebp+9], dl
  000be	8a 50 0a	 mov	 dl, BYTE PTR [eax+10]
  000c1	84 d2		 test	 dl, dl
  000c3	0f 84 92 00 00
	00		 je	 $LN86@LoadInt_e
  000c9	80 f2 eb	 xor	 dl, -21			; ffffffebH
  000cc	88 55 f2	 mov	 BYTE PTR __k$[ebp+10], dl
  000cf	8a 50 0b	 mov	 dl, BYTE PTR [eax+11]
  000d2	84 d2		 test	 dl, dl
  000d4	74 7f		 je	 SHORT $LN85@LoadInt_e
  000d6	80 f2 ea	 xor	 dl, -22			; ffffffeaH
  000d9	88 55 f3	 mov	 BYTE PTR __k$[ebp+11], dl
  000dc	8a 50 0c	 mov	 dl, BYTE PTR [eax+12]
  000df	84 d2		 test	 dl, dl
  000e1	74 6c		 je	 SHORT $LN84@LoadInt_e
  000e3	80 f2 ed	 xor	 dl, -19			; ffffffedH
  000e6	88 55 f4	 mov	 BYTE PTR __k$[ebp+12], dl
  000e9	8a 50 0d	 mov	 dl, BYTE PTR [eax+13]
  000ec	84 d2		 test	 dl, dl
  000ee	74 5a		 je	 SHORT $LN83@LoadInt_e
  000f0	32 d1		 xor	 dl, cl
  000f2	80 78 0e 00	 cmp	 BYTE PTR [eax+14], 0
  000f6	88 55 f5	 mov	 BYTE PTR __k$[ebp+13], dl
  000f9	0f 84 9a 00 00
	00		 je	 $LN1@LoadInt_e
  000ff	8a 50 0f	 mov	 dl, BYTE PTR [eax+15]
  00102	84 d2		 test	 dl, dl
  00104	74 3e		 je	 SHORT $LN81@LoadInt_e
  00106	80 f2 ea	 xor	 dl, -22			; ffffffeaH
  00109	88 55 f7	 mov	 BYTE PTR __k$[ebp+15], dl
  0010c	8a 50 10	 mov	 dl, BYTE PTR [eax+16]
  0010f	84 d2		 test	 dl, dl
  00111	74 2b		 je	 SHORT $LN80@LoadInt_e
  00113	80 f2 ed	 xor	 dl, -19			; ffffffedH
  00116	88 55 f8	 mov	 BYTE PTR __k$[ebp+16], dl
  00119	8a 50 11	 mov	 dl, BYTE PTR [eax+17]
  0011c	84 d2		 test	 dl, dl
  0011e	74 19		 je	 SHORT $LN79@LoadInt_e
  00120	8a 40 12	 mov	 al, BYTE PTR [eax+18]
  00123	32 d1		 xor	 dl, cl
  00125	88 55 f9	 mov	 BYTE PTR __k$[ebp+17], dl
  00128	84 c0		 test	 al, al
  0012a	74 07		 je	 SHORT $LN78@LoadInt_e
  0012c	34 eb		 xor	 al, -21			; ffffffebH
  0012e	88 45 fa	 mov	 BYTE PTR __k$[ebp+18], al
  00131	eb 66		 jmp	 SHORT $LN1@LoadInt_e
$LN78@LoadInt_e:
  00133	c6 45 fa eb	 mov	 BYTE PTR __k$[ebp+18], -21 ; ffffffebH
  00137	eb 60		 jmp	 SHORT $LN1@LoadInt_e
$LN79@LoadInt_e:
  00139	88 4d f9	 mov	 BYTE PTR __k$[ebp+17], cl
  0013c	eb 5b		 jmp	 SHORT $LN1@LoadInt_e
$LN80@LoadInt_e:
  0013e	c6 45 f8 ed	 mov	 BYTE PTR __k$[ebp+16], -19 ; ffffffedH
  00142	eb 55		 jmp	 SHORT $LN1@LoadInt_e
$LN81@LoadInt_e:
  00144	c6 45 f7 ea	 mov	 BYTE PTR __k$[ebp+15], -22 ; ffffffeaH
  00148	eb 4f		 jmp	 SHORT $LN1@LoadInt_e
$LN83@LoadInt_e:
  0014a	88 4d f5	 mov	 BYTE PTR __k$[ebp+13], cl
  0014d	eb 4a		 jmp	 SHORT $LN1@LoadInt_e
$LN84@LoadInt_e:
  0014f	c6 45 f4 ed	 mov	 BYTE PTR __k$[ebp+12], -19 ; ffffffedH
  00153	eb 44		 jmp	 SHORT $LN1@LoadInt_e
$LN85@LoadInt_e:
  00155	c6 45 f3 ea	 mov	 BYTE PTR __k$[ebp+11], -22 ; ffffffeaH
  00159	eb 3e		 jmp	 SHORT $LN1@LoadInt_e
$LN86@LoadInt_e:
  0015b	c6 45 f2 eb	 mov	 BYTE PTR __k$[ebp+10], -21 ; ffffffebH
  0015f	eb 38		 jmp	 SHORT $LN1@LoadInt_e
$LN87@LoadInt_e:
  00161	88 4d f1	 mov	 BYTE PTR __k$[ebp+9], cl
  00164	eb 33		 jmp	 SHORT $LN1@LoadInt_e
$LN88@LoadInt_e:
  00166	c6 45 f0 ed	 mov	 BYTE PTR __k$[ebp+8], -19 ; ffffffedH
  0016a	eb 2d		 jmp	 SHORT $LN1@LoadInt_e
$LN89@LoadInt_e:
  0016c	c6 45 ef ea	 mov	 BYTE PTR __k$[ebp+7], -22 ; ffffffeaH
  00170	eb 27		 jmp	 SHORT $LN1@LoadInt_e
$LN90@LoadInt_e:
  00172	c6 45 ee eb	 mov	 BYTE PTR __k$[ebp+6], -21 ; ffffffebH
  00176	eb 21		 jmp	 SHORT $LN1@LoadInt_e
$LN91@LoadInt_e:
  00178	88 4d ed	 mov	 BYTE PTR __k$[ebp+5], cl
  0017b	eb 1c		 jmp	 SHORT $LN1@LoadInt_e
$LN92@LoadInt_e:
  0017d	c6 45 ec ed	 mov	 BYTE PTR __k$[ebp+4], -19 ; ffffffedH
  00181	eb 16		 jmp	 SHORT $LN1@LoadInt_e
$LN93@LoadInt_e:
  00183	c6 45 eb ea	 mov	 BYTE PTR __k$[ebp+3], -22 ; ffffffeaH
  00187	eb 10		 jmp	 SHORT $LN1@LoadInt_e
$LN94@LoadInt_e:
  00189	c6 45 ea eb	 mov	 BYTE PTR __k$[ebp+2], -21 ; ffffffebH
  0018d	eb 0a		 jmp	 SHORT $LN1@LoadInt_e
$LN95@LoadInt_e:
  0018f	c6 45 e9 ec	 mov	 BYTE PTR __k$[ebp+1], -20 ; ffffffecH
  00193	eb 04		 jmp	 SHORT $LN1@LoadInt_e
$LN96@LoadInt_e:
  00195	c6 45 e8 ed	 mov	 BYTE PTR __k$[ebp], -19	; ffffffedH
$LN1@LoadInt_e:
  00199	6a 03		 push	 3
  0019b	8d 45 e8	 lea	 eax, DWORD PTR __k$[ebp]
  0019e	c6 45 f6 00	 mov	 BYTE PTR __k$[ebp+14], 0
  001a2	5a		 pop	 edx
$LL104@LoadInt_e:
  001a3	81 30 ed ec eb
	ea		 xor	 DWORD PTR [eax], -353637139 ; eaebecedH
  001a9	83 c0 04	 add	 eax, 4
  001ac	4a		 dec	 edx
  001ad	75 f4		 jne	 SHORT $LL104@LoadInt_e
  001af	6a 0c		 push	 12			; 0000000cH
  001b1	58		 pop	 eax
$LL101@LoadInt_e:
  001b2	8b c8		 mov	 ecx, eax
  001b4	81 e1 03 00 00
	80		 and	 ecx, -2147483645	; 80000003H
  001ba	79 05		 jns	 SHORT $LN111@LoadInt_e
  001bc	49		 dec	 ecx
  001bd	83 c9 fc	 or	 ecx, -4			; fffffffcH
  001c0	41		 inc	 ecx
$LN111@LoadInt_e:
  001c1	b2 ed		 mov	 dl, -19			; ffffffedH
  001c3	2a d1		 sub	 dl, cl
  001c5	30 54 05 e8	 xor	 BYTE PTR __k$[ebp+eax], dl
  001c9	40		 inc	 eax
  001ca	83 f8 0e	 cmp	 eax, 14			; 0000000eH
  001cd	7c e3		 jl	 SHORT $LL101@LoadInt_e

; 120  : 		return LoadInt(_k, i);

  001cf	ff 75 0c	 push	 DWORD PTR _i$[ebp]
  001d2	8d 45 e8	 lea	 eax, DWORD PTR __k$[ebp]
  001d5	50		 push	 eax
  001d6	8b ce		 mov	 ecx, esi
  001d8	ff 15 00 00 00
	00		 call	 DWORD PTR __imp_?LoadInt@ioINILoader@@QAEHPBDH@Z

; 121  : 	}

  001de	8b 4d fc	 mov	 ecx, DWORD PTR __$ArrayPad$[ebp]
  001e1	33 cd		 xor	 ecx, ebp
  001e3	5e		 pop	 esi
  001e4	e8 00 00 00 00	 call	 @__security_check_cookie@4
  001e9	c9		 leave
  001ea	c2 08 00	 ret	 8
??$LoadInt_e@$0P@@ioINILoader@@QAEHAAY0P@$$CBDH@Z ENDP	; ioINILoader::LoadInt_e<15>
_TEXT	ENDS
PUBLIC	_this$GSCopy$
PUBLIC	__$ArrayPad$
PUBLIC	??$LoadString_e@$0BD@@ioINILoader@@QAEXAAY0BD@$$CBDAAY00$$CBDPADH@Z ; ioINILoader::LoadString_e<19>
EXTRN	__imp_?LoadStringA@ioINILoader@@QAEXPBD0PADH@Z:PROC
; Function compile flags: /Ogsp
;	COMDAT ??$LoadString_e@$0BD@@ioINILoader@@QAEXAAY0BD@$$CBDAAY00$$CBDPADH@Z
_TEXT	SEGMENT
_this$GSCopy$ = -32					; size = 4
__k$ = -28						; size = 19
__$ArrayPad$ = -4					; size = 4
_k$ = 8							; size = 4
_d$ = 12						; size = 4
_b$ = 16						; size = 4
_i$ = 20						; size = 4
??$LoadString_e@$0BD@@ioINILoader@@QAEXAAY0BD@$$CBDAAY00$$CBDPADH@Z PROC ; ioINILoader::LoadString_e<19>, COMDAT
; _this$ = ecx

; 161  : 	{

  00000	55		 push	 ebp
  00001	8b ec		 mov	 ebp, esp
  00003	83 ec 20	 sub	 esp, 32			; 00000020H
  00006	a1 00 00 00 00	 mov	 eax, DWORD PTR ___security_cookie
  0000b	33 c5		 xor	 eax, ebp
  0000d	89 45 fc	 mov	 DWORD PTR __$ArrayPad$[ebp], eax
  00010	8b 45 08	 mov	 eax, DWORD PTR _k$[ebp]

; 162  : 		_ENCSTR(k, _k);

  00013	8a 10		 mov	 dl, BYTE PTR [eax]
  00015	56		 push	 esi
  00016	8b 75 0c	 mov	 esi, DWORD PTR _d$[ebp]
  00019	57		 push	 edi
  0001a	8b 7d 10	 mov	 edi, DWORD PTR _b$[ebp]
  0001d	89 4d e0	 mov	 DWORD PTR _this$GSCopy$[ebp], ecx
  00020	84 d2		 test	 dl, dl
  00022	0f 84 cf 01 00
	00		 je	 $LN96@LoadString
  00028	80 f2 ed	 xor	 dl, -19			; ffffffedH
  0002b	88 55 e4	 mov	 BYTE PTR __k$[ebp], dl
  0002e	8a 50 01	 mov	 dl, BYTE PTR [eax+1]
  00031	84 d2		 test	 dl, dl
  00033	0f 84 b8 01 00
	00		 je	 $LN95@LoadString
  00039	b1 ec		 mov	 cl, -20			; ffffffecH
  0003b	32 d1		 xor	 dl, cl
  0003d	88 55 e5	 mov	 BYTE PTR __k$[ebp+1], dl
  00040	8a 50 02	 mov	 dl, BYTE PTR [eax+2]
  00043	84 d2		 test	 dl, dl
  00045	0f 84 a0 01 00
	00		 je	 $LN94@LoadString
  0004b	80 f2 eb	 xor	 dl, -21			; ffffffebH
  0004e	88 55 e6	 mov	 BYTE PTR __k$[ebp+2], dl
  00051	8a 50 03	 mov	 dl, BYTE PTR [eax+3]
  00054	84 d2		 test	 dl, dl
  00056	0f 84 89 01 00
	00		 je	 $LN93@LoadString
  0005c	80 f2 ea	 xor	 dl, -22			; ffffffeaH
  0005f	88 55 e7	 mov	 BYTE PTR __k$[ebp+3], dl
  00062	8a 50 04	 mov	 dl, BYTE PTR [eax+4]
  00065	84 d2		 test	 dl, dl
  00067	0f 84 72 01 00
	00		 je	 $LN92@LoadString
  0006d	80 f2 ed	 xor	 dl, -19			; ffffffedH
  00070	88 55 e8	 mov	 BYTE PTR __k$[ebp+4], dl
  00073	8a 50 05	 mov	 dl, BYTE PTR [eax+5]
  00076	84 d2		 test	 dl, dl
  00078	0f 84 5c 01 00
	00		 je	 $LN91@LoadString
  0007e	32 d1		 xor	 dl, cl
  00080	88 55 e9	 mov	 BYTE PTR __k$[ebp+5], dl
  00083	8a 50 06	 mov	 dl, BYTE PTR [eax+6]
  00086	84 d2		 test	 dl, dl
  00088	0f 84 46 01 00
	00		 je	 $LN90@LoadString
  0008e	80 f2 eb	 xor	 dl, -21			; ffffffebH
  00091	88 55 ea	 mov	 BYTE PTR __k$[ebp+6], dl
  00094	8a 50 07	 mov	 dl, BYTE PTR [eax+7]
  00097	84 d2		 test	 dl, dl
  00099	0f 84 2f 01 00
	00		 je	 $LN89@LoadString
  0009f	80 f2 ea	 xor	 dl, -22			; ffffffeaH
  000a2	88 55 eb	 mov	 BYTE PTR __k$[ebp+7], dl
  000a5	8a 50 08	 mov	 dl, BYTE PTR [eax+8]
  000a8	84 d2		 test	 dl, dl
  000aa	0f 84 18 01 00
	00		 je	 $LN88@LoadString
  000b0	80 f2 ed	 xor	 dl, -19			; ffffffedH
  000b3	88 55 ec	 mov	 BYTE PTR __k$[ebp+8], dl
  000b6	8a 50 09	 mov	 dl, BYTE PTR [eax+9]
  000b9	84 d2		 test	 dl, dl
  000bb	0f 84 02 01 00
	00		 je	 $LN87@LoadString
  000c1	32 d1		 xor	 dl, cl
  000c3	88 55 ed	 mov	 BYTE PTR __k$[ebp+9], dl
  000c6	8a 50 0a	 mov	 dl, BYTE PTR [eax+10]
  000c9	84 d2		 test	 dl, dl
  000cb	0f 84 ec 00 00
	00		 je	 $LN86@LoadString
  000d1	80 f2 eb	 xor	 dl, -21			; ffffffebH
  000d4	88 55 ee	 mov	 BYTE PTR __k$[ebp+10], dl
  000d7	8a 50 0b	 mov	 dl, BYTE PTR [eax+11]
  000da	84 d2		 test	 dl, dl
  000dc	0f 84 d5 00 00
	00		 je	 $LN85@LoadString
  000e2	80 f2 ea	 xor	 dl, -22			; ffffffeaH
  000e5	88 55 ef	 mov	 BYTE PTR __k$[ebp+11], dl
  000e8	8a 50 0c	 mov	 dl, BYTE PTR [eax+12]
  000eb	84 d2		 test	 dl, dl
  000ed	0f 84 be 00 00
	00		 je	 $LN84@LoadString
  000f3	80 f2 ed	 xor	 dl, -19			; ffffffedH
  000f6	88 55 f0	 mov	 BYTE PTR __k$[ebp+12], dl
  000f9	8a 50 0d	 mov	 dl, BYTE PTR [eax+13]
  000fc	84 d2		 test	 dl, dl
  000fe	0f 84 a8 00 00
	00		 je	 $LN83@LoadString
  00104	32 d1		 xor	 dl, cl
  00106	88 55 f1	 mov	 BYTE PTR __k$[ebp+13], dl
  00109	8a 50 0e	 mov	 dl, BYTE PTR [eax+14]
  0010c	84 d2		 test	 dl, dl
  0010e	0f 84 92 00 00
	00		 je	 $LN82@LoadString
  00114	80 f2 eb	 xor	 dl, -21			; ffffffebH
  00117	88 55 f2	 mov	 BYTE PTR __k$[ebp+14], dl
  0011a	8a 50 0f	 mov	 dl, BYTE PTR [eax+15]
  0011d	84 d2		 test	 dl, dl
  0011f	74 7f		 je	 SHORT $LN81@LoadString
  00121	80 f2 ea	 xor	 dl, -22			; ffffffeaH
  00124	88 55 f3	 mov	 BYTE PTR __k$[ebp+15], dl
  00127	8a 50 10	 mov	 dl, BYTE PTR [eax+16]
  0012a	84 d2		 test	 dl, dl
  0012c	74 6c		 je	 SHORT $LN80@LoadString
  0012e	80 f2 ed	 xor	 dl, -19			; ffffffedH
  00131	88 55 f4	 mov	 BYTE PTR __k$[ebp+16], dl
  00134	8a 50 11	 mov	 dl, BYTE PTR [eax+17]
  00137	84 d2		 test	 dl, dl
  00139	74 5a		 je	 SHORT $LN79@LoadString
  0013b	32 d1		 xor	 dl, cl
  0013d	80 78 12 00	 cmp	 BYTE PTR [eax+18], 0
  00141	88 55 f5	 mov	 BYTE PTR __k$[ebp+17], dl
  00144	0f 84 b1 00 00
	00		 je	 $LN111@LoadString
  0014a	8a 50 13	 mov	 dl, BYTE PTR [eax+19]
  0014d	84 d2		 test	 dl, dl
  0014f	74 3e		 je	 SHORT $LN77@LoadString
  00151	80 f2 ea	 xor	 dl, -22			; ffffffeaH
  00154	88 55 f7	 mov	 BYTE PTR __k$[ebp+19], dl
  00157	8a 50 14	 mov	 dl, BYTE PTR [eax+20]
  0015a	84 d2		 test	 dl, dl
  0015c	74 2b		 je	 SHORT $LN76@LoadString
  0015e	80 f2 ed	 xor	 dl, -19			; ffffffedH
  00161	88 55 f8	 mov	 BYTE PTR __k$[ebp+20], dl
  00164	8a 50 15	 mov	 dl, BYTE PTR [eax+21]
  00167	84 d2		 test	 dl, dl
  00169	74 19		 je	 SHORT $LN75@LoadString
  0016b	8a 40 16	 mov	 al, BYTE PTR [eax+22]
  0016e	32 d1		 xor	 dl, cl
  00170	88 55 f9	 mov	 BYTE PTR __k$[ebp+21], dl
  00173	84 c0		 test	 al, al
  00175	74 07		 je	 SHORT $LN74@LoadString
  00177	34 eb		 xor	 al, -21			; ffffffebH
  00179	88 45 fa	 mov	 BYTE PTR __k$[ebp+22], al
  0017c	eb 7d		 jmp	 SHORT $LN111@LoadString
$LN74@LoadString:
  0017e	c6 45 fa eb	 mov	 BYTE PTR __k$[ebp+22], -21 ; ffffffebH
  00182	eb 77		 jmp	 SHORT $LN111@LoadString
$LN75@LoadString:
  00184	88 4d f9	 mov	 BYTE PTR __k$[ebp+21], cl
  00187	eb 72		 jmp	 SHORT $LN111@LoadString
$LN76@LoadString:
  00189	c6 45 f8 ed	 mov	 BYTE PTR __k$[ebp+20], -19 ; ffffffedH
  0018d	eb 6c		 jmp	 SHORT $LN111@LoadString
$LN77@LoadString:
  0018f	c6 45 f7 ea	 mov	 BYTE PTR __k$[ebp+19], -22 ; ffffffeaH
  00193	eb 66		 jmp	 SHORT $LN111@LoadString
$LN79@LoadString:
  00195	88 4d f5	 mov	 BYTE PTR __k$[ebp+17], cl
  00198	eb 61		 jmp	 SHORT $LN111@LoadString
$LN80@LoadString:
  0019a	c6 45 f4 ed	 mov	 BYTE PTR __k$[ebp+16], -19 ; ffffffedH
  0019e	eb 5b		 jmp	 SHORT $LN111@LoadString
$LN81@LoadString:
  001a0	c6 45 f3 ea	 mov	 BYTE PTR __k$[ebp+15], -22 ; ffffffeaH
  001a4	eb 55		 jmp	 SHORT $LN111@LoadString
$LN82@LoadString:
  001a6	c6 45 f2 eb	 mov	 BYTE PTR __k$[ebp+14], -21 ; ffffffebH
  001aa	eb 4f		 jmp	 SHORT $LN111@LoadString
$LN83@LoadString:
  001ac	88 4d f1	 mov	 BYTE PTR __k$[ebp+13], cl
  001af	eb 4a		 jmp	 SHORT $LN111@LoadString
$LN84@LoadString:
  001b1	c6 45 f0 ed	 mov	 BYTE PTR __k$[ebp+12], -19 ; ffffffedH
  001b5	eb 44		 jmp	 SHORT $LN111@LoadString
$LN85@LoadString:
  001b7	c6 45 ef ea	 mov	 BYTE PTR __k$[ebp+11], -22 ; ffffffeaH
  001bb	eb 3e		 jmp	 SHORT $LN111@LoadString
$LN86@LoadString:
  001bd	c6 45 ee eb	 mov	 BYTE PTR __k$[ebp+10], -21 ; ffffffebH
  001c1	eb 38		 jmp	 SHORT $LN111@LoadString
$LN87@LoadString:
  001c3	88 4d ed	 mov	 BYTE PTR __k$[ebp+9], cl
  001c6	eb 33		 jmp	 SHORT $LN111@LoadString
$LN88@LoadString:
  001c8	c6 45 ec ed	 mov	 BYTE PTR __k$[ebp+8], -19 ; ffffffedH
  001cc	eb 2d		 jmp	 SHORT $LN111@LoadString
$LN89@LoadString:
  001ce	c6 45 eb ea	 mov	 BYTE PTR __k$[ebp+7], -22 ; ffffffeaH
  001d2	eb 27		 jmp	 SHORT $LN111@LoadString
$LN90@LoadString:
  001d4	c6 45 ea eb	 mov	 BYTE PTR __k$[ebp+6], -21 ; ffffffebH
  001d8	eb 21		 jmp	 SHORT $LN111@LoadString
$LN91@LoadString:
  001da	88 4d e9	 mov	 BYTE PTR __k$[ebp+5], cl
  001dd	eb 1c		 jmp	 SHORT $LN111@LoadString
$LN92@LoadString:
  001df	c6 45 e8 ed	 mov	 BYTE PTR __k$[ebp+4], -19 ; ffffffedH
  001e3	eb 16		 jmp	 SHORT $LN111@LoadString
$LN93@LoadString:
  001e5	c6 45 e7 ea	 mov	 BYTE PTR __k$[ebp+3], -22 ; ffffffeaH
  001e9	eb 10		 jmp	 SHORT $LN111@LoadString
$LN94@LoadString:
  001eb	c6 45 e6 eb	 mov	 BYTE PTR __k$[ebp+2], -21 ; ffffffebH
  001ef	eb 0a		 jmp	 SHORT $LN111@LoadString
$LN95@LoadString:
  001f1	c6 45 e5 ec	 mov	 BYTE PTR __k$[ebp+1], -20 ; ffffffecH
  001f5	eb 04		 jmp	 SHORT $LN111@LoadString
$LN96@LoadString:
  001f7	c6 45 e4 ed	 mov	 BYTE PTR __k$[ebp], -19	; ffffffedH
$LN111@LoadString:
  001fb	6a 04		 push	 4
  001fd	8d 45 e4	 lea	 eax, DWORD PTR __k$[ebp]
  00200	c6 45 f6 00	 mov	 BYTE PTR __k$[ebp+18], 0
  00204	5a		 pop	 edx
$LL104@LoadString:
  00205	81 30 ed ec eb
	ea		 xor	 DWORD PTR [eax], -353637139 ; eaebecedH
  0020b	83 c0 04	 add	 eax, 4
  0020e	4a		 dec	 edx
  0020f	75 f4		 jne	 SHORT $LL104@LoadString
  00211	6a 10		 push	 16			; 00000010H
  00213	58		 pop	 eax
$LL101@LoadString:
  00214	8b c8		 mov	 ecx, eax
  00216	81 e1 03 00 00
	80		 and	 ecx, -2147483645	; 80000003H
  0021c	79 05		 jns	 SHORT $LN112@LoadString
  0021e	49		 dec	 ecx
  0021f	83 c9 fc	 or	 ecx, -4			; fffffffcH
  00222	41		 inc	 ecx
$LN112@LoadString:
  00223	b2 ed		 mov	 dl, -19			; ffffffedH
  00225	2a d1		 sub	 dl, cl
  00227	30 54 05 e4	 xor	 BYTE PTR __k$[ebp+eax], dl
  0022b	40		 inc	 eax
  0022c	83 f8 12	 cmp	 eax, 18			; 00000012H
  0022f	7c e3		 jl	 SHORT $LL101@LoadString

; 163  : 		LoadString(_k, d, b, i);

  00231	ff 75 14	 push	 DWORD PTR _i$[ebp]
  00234	8b 4d e0	 mov	 ecx, DWORD PTR _this$GSCopy$[ebp]
  00237	57		 push	 edi
  00238	56		 push	 esi
  00239	8d 45 e4	 lea	 eax, DWORD PTR __k$[ebp]
  0023c	50		 push	 eax
  0023d	ff 15 00 00 00
	00		 call	 DWORD PTR __imp_?LoadStringA@ioINILoader@@QAEXPBD0PADH@Z

; 164  : 	}

  00243	8b 4d fc	 mov	 ecx, DWORD PTR __$ArrayPad$[ebp]
  00246	5f		 pop	 edi
  00247	33 cd		 xor	 ecx, ebp
  00249	5e		 pop	 esi
  0024a	e8 00 00 00 00	 call	 @__security_check_cookie@4
  0024f	c9		 leave
  00250	c2 10 00	 ret	 16			; 00000010H
??$LoadString_e@$0BD@@ioINILoader@@QAEXAAY0BD@$$CBDAAY00$$CBDPADH@Z ENDP ; ioINILoader::LoadString_e<19>
_TEXT	ENDS
PUBLIC	__$ArrayPad$
PUBLIC	??$LoadFloat_e@$0BC@@ioINILoader@@QAEMAAY0BC@$$CBDM@Z ; ioINILoader::LoadFloat_e<18>
; Function compile flags: /Ogsp
;	COMDAT ??$LoadFloat_e@$0BC@@ioINILoader@@QAEMAAY0BC@$$CBDM@Z
_TEXT	SEGMENT
__k$ = -28						; size = 18
__$ArrayPad$ = -4					; size = 4
_k$ = 8							; size = 4
_f$ = 12						; size = 4
??$LoadFloat_e@$0BC@@ioINILoader@@QAEMAAY0BC@$$CBDM@Z PROC ; ioINILoader::LoadFloat_e<18>, COMDAT
; _this$ = ecx

; 135  : 	{

  00000	55		 push	 ebp
  00001	8b ec		 mov	 ebp, esp
  00003	83 ec 1c	 sub	 esp, 28			; 0000001cH
  00006	a1 00 00 00 00	 mov	 eax, DWORD PTR ___security_cookie
  0000b	33 c5		 xor	 eax, ebp
  0000d	89 45 fc	 mov	 DWORD PTR __$ArrayPad$[ebp], eax
  00010	8b 45 08	 mov	 eax, DWORD PTR _k$[ebp]

; 136  : 		_ENCSTR(k, _k);

  00013	8a 10		 mov	 dl, BYTE PTR [eax]
  00015	56		 push	 esi
  00016	8b f1		 mov	 esi, ecx
  00018	84 d2		 test	 dl, dl
  0001a	0f 84 be 01 00
	00		 je	 $LN96@LoadFloat_@2
  00020	80 f2 ed	 xor	 dl, -19			; ffffffedH
  00023	88 55 e4	 mov	 BYTE PTR __k$[ebp], dl
  00026	8a 50 01	 mov	 dl, BYTE PTR [eax+1]
  00029	84 d2		 test	 dl, dl
  0002b	0f 84 a7 01 00
	00		 je	 $LN95@LoadFloat_@2
  00031	80 f2 ec	 xor	 dl, -20			; ffffffecH
  00034	88 55 e5	 mov	 BYTE PTR __k$[ebp+1], dl
  00037	8a 50 02	 mov	 dl, BYTE PTR [eax+2]
  0003a	84 d2		 test	 dl, dl
  0003c	0f 84 90 01 00
	00		 je	 $LN94@LoadFloat_@2
  00042	b1 eb		 mov	 cl, -21			; ffffffebH
  00044	32 d1		 xor	 dl, cl
  00046	88 55 e6	 mov	 BYTE PTR __k$[ebp+2], dl
  00049	8a 50 03	 mov	 dl, BYTE PTR [eax+3]
  0004c	84 d2		 test	 dl, dl
  0004e	0f 84 78 01 00
	00		 je	 $LN93@LoadFloat_@2
  00054	80 f2 ea	 xor	 dl, -22			; ffffffeaH
  00057	88 55 e7	 mov	 BYTE PTR __k$[ebp+3], dl
  0005a	8a 50 04	 mov	 dl, BYTE PTR [eax+4]
  0005d	84 d2		 test	 dl, dl
  0005f	0f 84 61 01 00
	00		 je	 $LN92@LoadFloat_@2
  00065	80 f2 ed	 xor	 dl, -19			; ffffffedH
  00068	88 55 e8	 mov	 BYTE PTR __k$[ebp+4], dl
  0006b	8a 50 05	 mov	 dl, BYTE PTR [eax+5]
  0006e	84 d2		 test	 dl, dl
  00070	0f 84 4a 01 00
	00		 je	 $LN91@LoadFloat_@2
  00076	80 f2 ec	 xor	 dl, -20			; ffffffecH
  00079	88 55 e9	 mov	 BYTE PTR __k$[ebp+5], dl
  0007c	8a 50 06	 mov	 dl, BYTE PTR [eax+6]
  0007f	84 d2		 test	 dl, dl
  00081	0f 84 34 01 00
	00		 je	 $LN90@LoadFloat_@2
  00087	32 d1		 xor	 dl, cl
  00089	88 55 ea	 mov	 BYTE PTR __k$[ebp+6], dl
  0008c	8a 50 07	 mov	 dl, BYTE PTR [eax+7]
  0008f	84 d2		 test	 dl, dl
  00091	0f 84 1e 01 00
	00		 je	 $LN89@LoadFloat_@2
  00097	80 f2 ea	 xor	 dl, -22			; ffffffeaH
  0009a	88 55 eb	 mov	 BYTE PTR __k$[ebp+7], dl
  0009d	8a 50 08	 mov	 dl, BYTE PTR [eax+8]
  000a0	84 d2		 test	 dl, dl
  000a2	0f 84 07 01 00
	00		 je	 $LN88@LoadFloat_@2
  000a8	80 f2 ed	 xor	 dl, -19			; ffffffedH
  000ab	88 55 ec	 mov	 BYTE PTR __k$[ebp+8], dl
  000ae	8a 50 09	 mov	 dl, BYTE PTR [eax+9]
  000b1	84 d2		 test	 dl, dl
  000b3	0f 84 f0 00 00
	00		 je	 $LN87@LoadFloat_@2
  000b9	80 f2 ec	 xor	 dl, -20			; ffffffecH
  000bc	88 55 ed	 mov	 BYTE PTR __k$[ebp+9], dl
  000bf	8a 50 0a	 mov	 dl, BYTE PTR [eax+10]
  000c2	84 d2		 test	 dl, dl
  000c4	0f 84 da 00 00
	00		 je	 $LN86@LoadFloat_@2
  000ca	32 d1		 xor	 dl, cl
  000cc	88 55 ee	 mov	 BYTE PTR __k$[ebp+10], dl
  000cf	8a 50 0b	 mov	 dl, BYTE PTR [eax+11]
  000d2	84 d2		 test	 dl, dl
  000d4	0f 84 c4 00 00
	00		 je	 $LN85@LoadFloat_@2
  000da	80 f2 ea	 xor	 dl, -22			; ffffffeaH
  000dd	88 55 ef	 mov	 BYTE PTR __k$[ebp+11], dl
  000e0	8a 50 0c	 mov	 dl, BYTE PTR [eax+12]
  000e3	84 d2		 test	 dl, dl
  000e5	0f 84 ad 00 00
	00		 je	 $LN84@LoadFloat_@2
  000eb	80 f2 ed	 xor	 dl, -19			; ffffffedH
  000ee	88 55 f0	 mov	 BYTE PTR __k$[ebp+12], dl
  000f1	8a 50 0d	 mov	 dl, BYTE PTR [eax+13]
  000f4	84 d2		 test	 dl, dl
  000f6	0f 84 96 00 00
	00		 je	 $LN83@LoadFloat_@2
  000fc	80 f2 ec	 xor	 dl, -20			; ffffffecH
  000ff	88 55 f1	 mov	 BYTE PTR __k$[ebp+13], dl
  00102	8a 50 0e	 mov	 dl, BYTE PTR [eax+14]
  00105	84 d2		 test	 dl, dl
  00107	0f 84 80 00 00
	00		 je	 $LN82@LoadFloat_@2
  0010d	32 d1		 xor	 dl, cl
  0010f	88 55 f2	 mov	 BYTE PTR __k$[ebp+14], dl
  00112	8a 50 0f	 mov	 dl, BYTE PTR [eax+15]
  00115	84 d2		 test	 dl, dl
  00117	74 6e		 je	 SHORT $LN81@LoadFloat_@2
  00119	80 f2 ea	 xor	 dl, -22			; ffffffeaH
  0011c	88 55 f3	 mov	 BYTE PTR __k$[ebp+15], dl
  0011f	8a 50 10	 mov	 dl, BYTE PTR [eax+16]
  00122	84 d2		 test	 dl, dl
  00124	74 5b		 je	 SHORT $LN80@LoadFloat_@2
  00126	80 f2 ed	 xor	 dl, -19			; ffffffedH
  00129	80 78 11 00	 cmp	 BYTE PTR [eax+17], 0
  0012d	88 55 f4	 mov	 BYTE PTR __k$[ebp+16], dl
  00130	0f 84 ac 00 00
	00		 je	 $LN1@LoadFloat_@2
  00136	8a 50 12	 mov	 dl, BYTE PTR [eax+18]
  00139	84 d2		 test	 dl, dl
  0013b	74 3f		 je	 SHORT $LN78@LoadFloat_@2
  0013d	32 d1		 xor	 dl, cl
  0013f	88 55 f6	 mov	 BYTE PTR __k$[ebp+18], dl
  00142	8a 50 13	 mov	 dl, BYTE PTR [eax+19]
  00145	84 d2		 test	 dl, dl
  00147	74 2d		 je	 SHORT $LN77@LoadFloat_@2
  00149	80 f2 ea	 xor	 dl, -22			; ffffffeaH
  0014c	88 55 f7	 mov	 BYTE PTR __k$[ebp+19], dl
  0014f	8a 50 14	 mov	 dl, BYTE PTR [eax+20]
  00152	84 d2		 test	 dl, dl
  00154	74 1a		 je	 SHORT $LN76@LoadFloat_@2
  00156	8a 40 15	 mov	 al, BYTE PTR [eax+21]
  00159	80 f2 ed	 xor	 dl, -19			; ffffffedH
  0015c	88 55 f8	 mov	 BYTE PTR __k$[ebp+20], dl
  0015f	84 c0		 test	 al, al
  00161	74 07		 je	 SHORT $LN75@LoadFloat_@2
  00163	34 ec		 xor	 al, -20			; ffffffecH
  00165	88 45 f9	 mov	 BYTE PTR __k$[ebp+21], al
  00168	eb 78		 jmp	 SHORT $LN1@LoadFloat_@2
$LN75@LoadFloat_@2:
  0016a	c6 45 f9 ec	 mov	 BYTE PTR __k$[ebp+21], -20 ; ffffffecH
  0016e	eb 72		 jmp	 SHORT $LN1@LoadFloat_@2
$LN76@LoadFloat_@2:
  00170	c6 45 f8 ed	 mov	 BYTE PTR __k$[ebp+20], -19 ; ffffffedH
  00174	eb 6c		 jmp	 SHORT $LN1@LoadFloat_@2
$LN77@LoadFloat_@2:
  00176	c6 45 f7 ea	 mov	 BYTE PTR __k$[ebp+19], -22 ; ffffffeaH
  0017a	eb 66		 jmp	 SHORT $LN1@LoadFloat_@2
$LN78@LoadFloat_@2:
  0017c	88 4d f6	 mov	 BYTE PTR __k$[ebp+18], cl
  0017f	eb 61		 jmp	 SHORT $LN1@LoadFloat_@2
$LN80@LoadFloat_@2:
  00181	c6 45 f4 ed	 mov	 BYTE PTR __k$[ebp+16], -19 ; ffffffedH
  00185	eb 5b		 jmp	 SHORT $LN1@LoadFloat_@2
$LN81@LoadFloat_@2:
  00187	c6 45 f3 ea	 mov	 BYTE PTR __k$[ebp+15], -22 ; ffffffeaH
  0018b	eb 55		 jmp	 SHORT $LN1@LoadFloat_@2
$LN82@LoadFloat_@2:
  0018d	88 4d f2	 mov	 BYTE PTR __k$[ebp+14], cl
  00190	eb 50		 jmp	 SHORT $LN1@LoadFloat_@2
$LN83@LoadFloat_@2:
  00192	c6 45 f1 ec	 mov	 BYTE PTR __k$[ebp+13], -20 ; ffffffecH
  00196	eb 4a		 jmp	 SHORT $LN1@LoadFloat_@2
$LN84@LoadFloat_@2:
  00198	c6 45 f0 ed	 mov	 BYTE PTR __k$[ebp+12], -19 ; ffffffedH
  0019c	eb 44		 jmp	 SHORT $LN1@LoadFloat_@2
$LN85@LoadFloat_@2:
  0019e	c6 45 ef ea	 mov	 BYTE PTR __k$[ebp+11], -22 ; ffffffeaH
  001a2	eb 3e		 jmp	 SHORT $LN1@LoadFloat_@2
$LN86@LoadFloat_@2:
  001a4	88 4d ee	 mov	 BYTE PTR __k$[ebp+10], cl
  001a7	eb 39		 jmp	 SHORT $LN1@LoadFloat_@2
$LN87@LoadFloat_@2:
  001a9	c6 45 ed ec	 mov	 BYTE PTR __k$[ebp+9], -20 ; ffffffecH
  001ad	eb 33		 jmp	 SHORT $LN1@LoadFloat_@2
$LN88@LoadFloat_@2:
  001af	c6 45 ec ed	 mov	 BYTE PTR __k$[ebp+8], -19 ; ffffffedH
  001b3	eb 2d		 jmp	 SHORT $LN1@LoadFloat_@2
$LN89@LoadFloat_@2:
  001b5	c6 45 eb ea	 mov	 BYTE PTR __k$[ebp+7], -22 ; ffffffeaH
  001b9	eb 27		 jmp	 SHORT $LN1@LoadFloat_@2
$LN90@LoadFloat_@2:
  001bb	88 4d ea	 mov	 BYTE PTR __k$[ebp+6], cl
  001be	eb 22		 jmp	 SHORT $LN1@LoadFloat_@2
$LN91@LoadFloat_@2:
  001c0	c6 45 e9 ec	 mov	 BYTE PTR __k$[ebp+5], -20 ; ffffffecH
  001c4	eb 1c		 jmp	 SHORT $LN1@LoadFloat_@2
$LN92@LoadFloat_@2:
  001c6	c6 45 e8 ed	 mov	 BYTE PTR __k$[ebp+4], -19 ; ffffffedH
  001ca	eb 16		 jmp	 SHORT $LN1@LoadFloat_@2
$LN93@LoadFloat_@2:
  001cc	c6 45 e7 ea	 mov	 BYTE PTR __k$[ebp+3], -22 ; ffffffeaH
  001d0	eb 10		 jmp	 SHORT $LN1@LoadFloat_@2
$LN94@LoadFloat_@2:
  001d2	c6 45 e6 eb	 mov	 BYTE PTR __k$[ebp+2], -21 ; ffffffebH
  001d6	eb 0a		 jmp	 SHORT $LN1@LoadFloat_@2
$LN95@LoadFloat_@2:
  001d8	c6 45 e5 ec	 mov	 BYTE PTR __k$[ebp+1], -20 ; ffffffecH
  001dc	eb 04		 jmp	 SHORT $LN1@LoadFloat_@2
$LN96@LoadFloat_@2:
  001de	c6 45 e4 ed	 mov	 BYTE PTR __k$[ebp], -19	; ffffffedH
$LN1@LoadFloat_@2:
  001e2	6a 04		 push	 4
  001e4	8d 45 e4	 lea	 eax, DWORD PTR __k$[ebp]
  001e7	c6 45 f5 00	 mov	 BYTE PTR __k$[ebp+17], 0
  001eb	5a		 pop	 edx
$LL104@LoadFloat_@2:
  001ec	81 30 ed ec eb
	ea		 xor	 DWORD PTR [eax], -353637139 ; eaebecedH
  001f2	83 c0 04	 add	 eax, 4
  001f5	4a		 dec	 edx
  001f6	75 f4		 jne	 SHORT $LL104@LoadFloat_@2

; 137  : 		return LoadFloat(_k, f);

  001f8	f3 0f 10 45 0c	 movss	 xmm0, DWORD PTR _f$[ebp]
  001fd	80 75 f4 ed	 xor	 BYTE PTR __k$[ebp+16], -19 ; ffffffedH
  00201	51		 push	 ecx
  00202	8d 45 e4	 lea	 eax, DWORD PTR __k$[ebp]
  00205	f3 0f 11 04 24	 movss	 DWORD PTR [esp], xmm0
  0020a	50		 push	 eax
  0020b	8b ce		 mov	 ecx, esi
  0020d	ff 15 00 00 00
	00		 call	 DWORD PTR __imp_?LoadFloat@ioINILoader@@QAEMPBDM@Z

; 138  : 	}

  00213	8b 4d fc	 mov	 ecx, DWORD PTR __$ArrayPad$[ebp]
  00216	33 cd		 xor	 ecx, ebp
  00218	5e		 pop	 esi
  00219	e8 00 00 00 00	 call	 @__security_check_cookie@4
  0021e	c9		 leave
  0021f	c2 08 00	 ret	 8
??$LoadFloat_e@$0BC@@ioINILoader@@QAEMAAY0BC@$$CBDM@Z ENDP ; ioINILoader::LoadFloat_e<18>
_TEXT	ENDS
PUBLIC	_this$GSCopy$
PUBLIC	__$ArrayPad$
PUBLIC	??$LoadString_e@$0BB@@ioINILoader@@QAEXAAY0BB@$$CBDAAY00$$CBDPADH@Z ; ioINILoader::LoadString_e<17>
; Function compile flags: /Ogsp
;	COMDAT ??$LoadString_e@$0BB@@ioINILoader@@QAEXAAY0BB@$$CBDAAY00$$CBDPADH@Z
_TEXT	SEGMENT
_this$GSCopy$ = -32					; size = 4
__k$ = -28						; size = 17
__$ArrayPad$ = -4					; size = 4
_k$ = 8							; size = 4
_d$ = 12						; size = 4
_b$ = 16						; size = 4
_i$ = 20						; size = 4
??$LoadString_e@$0BB@@ioINILoader@@QAEXAAY0BB@$$CBDAAY00$$CBDPADH@Z PROC ; ioINILoader::LoadString_e<17>, COMDAT
; _this$ = ecx

; 161  : 	{

  00000	55		 push	 ebp
  00001	8b ec		 mov	 ebp, esp
  00003	83 ec 20	 sub	 esp, 32			; 00000020H
  00006	a1 00 00 00 00	 mov	 eax, DWORD PTR ___security_cookie
  0000b	33 c5		 xor	 eax, ebp
  0000d	89 45 fc	 mov	 DWORD PTR __$ArrayPad$[ebp], eax
  00010	8b 45 08	 mov	 eax, DWORD PTR _k$[ebp]

; 162  : 		_ENCSTR(k, _k);

  00013	8a 10		 mov	 dl, BYTE PTR [eax]
  00015	56		 push	 esi
  00016	8b 75 0c	 mov	 esi, DWORD PTR _d$[ebp]
  00019	57		 push	 edi
  0001a	8b 7d 10	 mov	 edi, DWORD PTR _b$[ebp]
  0001d	89 4d e0	 mov	 DWORD PTR _this$GSCopy$[ebp], ecx
  00020	84 d2		 test	 dl, dl
  00022	0f 84 a7 01 00
	00		 je	 $LN96@LoadString@2
  00028	80 f2 ed	 xor	 dl, -19			; ffffffedH
  0002b	88 55 e4	 mov	 BYTE PTR __k$[ebp], dl
  0002e	8a 50 01	 mov	 dl, BYTE PTR [eax+1]
  00031	84 d2		 test	 dl, dl
  00033	0f 84 90 01 00
	00		 je	 $LN95@LoadString@2
  00039	b1 ec		 mov	 cl, -20			; ffffffecH
  0003b	32 d1		 xor	 dl, cl
  0003d	88 55 e5	 mov	 BYTE PTR __k$[ebp+1], dl
  00040	8a 50 02	 mov	 dl, BYTE PTR [eax+2]
  00043	84 d2		 test	 dl, dl
  00045	0f 84 78 01 00
	00		 je	 $LN94@LoadString@2
  0004b	80 f2 eb	 xor	 dl, -21			; ffffffebH
  0004e	88 55 e6	 mov	 BYTE PTR __k$[ebp+2], dl
  00051	8a 50 03	 mov	 dl, BYTE PTR [eax+3]
  00054	84 d2		 test	 dl, dl
  00056	0f 84 61 01 00
	00		 je	 $LN93@LoadString@2
  0005c	80 f2 ea	 xor	 dl, -22			; ffffffeaH
  0005f	88 55 e7	 mov	 BYTE PTR __k$[ebp+3], dl
  00062	8a 50 04	 mov	 dl, BYTE PTR [eax+4]
  00065	84 d2		 test	 dl, dl
  00067	0f 84 4a 01 00
	00		 je	 $LN92@LoadString@2
  0006d	80 f2 ed	 xor	 dl, -19			; ffffffedH
  00070	88 55 e8	 mov	 BYTE PTR __k$[ebp+4], dl
  00073	8a 50 05	 mov	 dl, BYTE PTR [eax+5]
  00076	84 d2		 test	 dl, dl
  00078	0f 84 34 01 00
	00		 je	 $LN91@LoadString@2
  0007e	32 d1		 xor	 dl, cl
  00080	88 55 e9	 mov	 BYTE PTR __k$[ebp+5], dl
  00083	8a 50 06	 mov	 dl, BYTE PTR [eax+6]
  00086	84 d2		 test	 dl, dl
  00088	0f 84 1e 01 00
	00		 je	 $LN90@LoadString@2
  0008e	80 f2 eb	 xor	 dl, -21			; ffffffebH
  00091	88 55 ea	 mov	 BYTE PTR __k$[ebp+6], dl
  00094	8a 50 07	 mov	 dl, BYTE PTR [eax+7]
  00097	84 d2		 test	 dl, dl
  00099	0f 84 07 01 00
	00		 je	 $LN89@LoadString@2
  0009f	80 f2 ea	 xor	 dl, -22			; ffffffeaH
  000a2	88 55 eb	 mov	 BYTE PTR __k$[ebp+7], dl
  000a5	8a 50 08	 mov	 dl, BYTE PTR [eax+8]
  000a8	84 d2		 test	 dl, dl
  000aa	0f 84 f0 00 00
	00		 je	 $LN88@LoadString@2
  000b0	80 f2 ed	 xor	 dl, -19			; ffffffedH
  000b3	88 55 ec	 mov	 BYTE PTR __k$[ebp+8], dl
  000b6	8a 50 09	 mov	 dl, BYTE PTR [eax+9]
  000b9	84 d2		 test	 dl, dl
  000bb	0f 84 da 00 00
	00		 je	 $LN87@LoadString@2
  000c1	32 d1		 xor	 dl, cl
  000c3	88 55 ed	 mov	 BYTE PTR __k$[ebp+9], dl
  000c6	8a 50 0a	 mov	 dl, BYTE PTR [eax+10]
  000c9	84 d2		 test	 dl, dl
  000cb	0f 84 c4 00 00
	00		 je	 $LN86@LoadString@2
  000d1	80 f2 eb	 xor	 dl, -21			; ffffffebH
  000d4	88 55 ee	 mov	 BYTE PTR __k$[ebp+10], dl
  000d7	8a 50 0b	 mov	 dl, BYTE PTR [eax+11]
  000da	84 d2		 test	 dl, dl
  000dc	0f 84 ad 00 00
	00		 je	 $LN85@LoadString@2
  000e2	80 f2 ea	 xor	 dl, -22			; ffffffeaH
  000e5	88 55 ef	 mov	 BYTE PTR __k$[ebp+11], dl
  000e8	8a 50 0c	 mov	 dl, BYTE PTR [eax+12]
  000eb	84 d2		 test	 dl, dl
  000ed	0f 84 96 00 00
	00		 je	 $LN84@LoadString@2
  000f3	80 f2 ed	 xor	 dl, -19			; ffffffedH
  000f6	88 55 f0	 mov	 BYTE PTR __k$[ebp+12], dl
  000f9	8a 50 0d	 mov	 dl, BYTE PTR [eax+13]
  000fc	84 d2		 test	 dl, dl
  000fe	0f 84 80 00 00
	00		 je	 $LN83@LoadString@2
  00104	32 d1		 xor	 dl, cl
  00106	88 55 f1	 mov	 BYTE PTR __k$[ebp+13], dl
  00109	8a 50 0e	 mov	 dl, BYTE PTR [eax+14]
  0010c	84 d2		 test	 dl, dl
  0010e	74 6e		 je	 SHORT $LN82@LoadString@2
  00110	80 f2 eb	 xor	 dl, -21			; ffffffebH
  00113	88 55 f2	 mov	 BYTE PTR __k$[ebp+14], dl
  00116	8a 50 0f	 mov	 dl, BYTE PTR [eax+15]
  00119	84 d2		 test	 dl, dl
  0011b	74 5b		 je	 SHORT $LN81@LoadString@2
  0011d	80 f2 ea	 xor	 dl, -22			; ffffffeaH
  00120	80 78 10 00	 cmp	 BYTE PTR [eax+16], 0
  00124	88 55 f3	 mov	 BYTE PTR __k$[ebp+15], dl
  00127	0f 84 a6 00 00
	00		 je	 $LN111@LoadString@2
  0012d	8a 50 11	 mov	 dl, BYTE PTR [eax+17]
  00130	84 d2		 test	 dl, dl
  00132	74 3f		 je	 SHORT $LN79@LoadString@2
  00134	32 d1		 xor	 dl, cl
  00136	88 55 f5	 mov	 BYTE PTR __k$[ebp+17], dl
  00139	8a 50 12	 mov	 dl, BYTE PTR [eax+18]
  0013c	84 d2		 test	 dl, dl
  0013e	74 2d		 je	 SHORT $LN78@LoadString@2
  00140	80 f2 eb	 xor	 dl, -21			; ffffffebH
  00143	88 55 f6	 mov	 BYTE PTR __k$[ebp+18], dl
  00146	8a 50 13	 mov	 dl, BYTE PTR [eax+19]
  00149	84 d2		 test	 dl, dl
  0014b	74 1a		 je	 SHORT $LN77@LoadString@2
  0014d	8a 40 14	 mov	 al, BYTE PTR [eax+20]
  00150	80 f2 ea	 xor	 dl, -22			; ffffffeaH
  00153	88 55 f7	 mov	 BYTE PTR __k$[ebp+19], dl
  00156	84 c0		 test	 al, al
  00158	74 07		 je	 SHORT $LN76@LoadString@2
  0015a	34 ed		 xor	 al, -19			; ffffffedH
  0015c	88 45 f8	 mov	 BYTE PTR __k$[ebp+20], al
  0015f	eb 72		 jmp	 SHORT $LN111@LoadString@2
$LN76@LoadString@2:
  00161	c6 45 f8 ed	 mov	 BYTE PTR __k$[ebp+20], -19 ; ffffffedH
  00165	eb 6c		 jmp	 SHORT $LN111@LoadString@2
$LN77@LoadString@2:
  00167	c6 45 f7 ea	 mov	 BYTE PTR __k$[ebp+19], -22 ; ffffffeaH
  0016b	eb 66		 jmp	 SHORT $LN111@LoadString@2
$LN78@LoadString@2:
  0016d	c6 45 f6 eb	 mov	 BYTE PTR __k$[ebp+18], -21 ; ffffffebH
  00171	eb 60		 jmp	 SHORT $LN111@LoadString@2
$LN79@LoadString@2:
  00173	88 4d f5	 mov	 BYTE PTR __k$[ebp+17], cl
  00176	eb 5b		 jmp	 SHORT $LN111@LoadString@2
$LN81@LoadString@2:
  00178	c6 45 f3 ea	 mov	 BYTE PTR __k$[ebp+15], -22 ; ffffffeaH
  0017c	eb 55		 jmp	 SHORT $LN111@LoadString@2
$LN82@LoadString@2:
  0017e	c6 45 f2 eb	 mov	 BYTE PTR __k$[ebp+14], -21 ; ffffffebH
  00182	eb 4f		 jmp	 SHORT $LN111@LoadString@2
$LN83@LoadString@2:
  00184	88 4d f1	 mov	 BYTE PTR __k$[ebp+13], cl
  00187	eb 4a		 jmp	 SHORT $LN111@LoadString@2
$LN84@LoadString@2:
  00189	c6 45 f0 ed	 mov	 BYTE PTR __k$[ebp+12], -19 ; ffffffedH
  0018d	eb 44		 jmp	 SHORT $LN111@LoadString@2
$LN85@LoadString@2:
  0018f	c6 45 ef ea	 mov	 BYTE PTR __k$[ebp+11], -22 ; ffffffeaH
  00193	eb 3e		 jmp	 SHORT $LN111@LoadString@2
$LN86@LoadString@2:
  00195	c6 45 ee eb	 mov	 BYTE PTR __k$[ebp+10], -21 ; ffffffebH
  00199	eb 38		 jmp	 SHORT $LN111@LoadString@2
$LN87@LoadString@2:
  0019b	88 4d ed	 mov	 BYTE PTR __k$[ebp+9], cl
  0019e	eb 33		 jmp	 SHORT $LN111@LoadString@2
$LN88@LoadString@2:
  001a0	c6 45 ec ed	 mov	 BYTE PTR __k$[ebp+8], -19 ; ffffffedH
  001a4	eb 2d		 jmp	 SHORT $LN111@LoadString@2
$LN89@LoadString@2:
  001a6	c6 45 eb ea	 mov	 BYTE PTR __k$[ebp+7], -22 ; ffffffeaH
  001aa	eb 27		 jmp	 SHORT $LN111@LoadString@2
$LN90@LoadString@2:
  001ac	c6 45 ea eb	 mov	 BYTE PTR __k$[ebp+6], -21 ; ffffffebH
  001b0	eb 21		 jmp	 SHORT $LN111@LoadString@2
$LN91@LoadString@2:
  001b2	88 4d e9	 mov	 BYTE PTR __k$[ebp+5], cl
  001b5	eb 1c		 jmp	 SHORT $LN111@LoadString@2
$LN92@LoadString@2:
  001b7	c6 45 e8 ed	 mov	 BYTE PTR __k$[ebp+4], -19 ; ffffffedH
  001bb	eb 16		 jmp	 SHORT $LN111@LoadString@2
$LN93@LoadString@2:
  001bd	c6 45 e7 ea	 mov	 BYTE PTR __k$[ebp+3], -22 ; ffffffeaH
  001c1	eb 10		 jmp	 SHORT $LN111@LoadString@2
$LN94@LoadString@2:
  001c3	c6 45 e6 eb	 mov	 BYTE PTR __k$[ebp+2], -21 ; ffffffebH
  001c7	eb 0a		 jmp	 SHORT $LN111@LoadString@2
$LN95@LoadString@2:
  001c9	c6 45 e5 ec	 mov	 BYTE PTR __k$[ebp+1], -20 ; ffffffecH
  001cd	eb 04		 jmp	 SHORT $LN111@LoadString@2
$LN96@LoadString@2:
  001cf	c6 45 e4 ed	 mov	 BYTE PTR __k$[ebp], -19	; ffffffedH
$LN111@LoadString@2:
  001d3	6a 04		 push	 4
  001d5	8d 45 e4	 lea	 eax, DWORD PTR __k$[ebp]
  001d8	c6 45 f4 00	 mov	 BYTE PTR __k$[ebp+16], 0
  001dc	5a		 pop	 edx
$LL104@LoadString@2:
  001dd	81 30 ed ec eb
	ea		 xor	 DWORD PTR [eax], -353637139 ; eaebecedH
  001e3	83 c0 04	 add	 eax, 4
  001e6	4a		 dec	 edx
  001e7	75 f4		 jne	 SHORT $LL104@LoadString@2

; 163  : 		LoadString(_k, d, b, i);

  001e9	ff 75 14	 push	 DWORD PTR _i$[ebp]
  001ec	8b 4d e0	 mov	 ecx, DWORD PTR _this$GSCopy$[ebp]
  001ef	57		 push	 edi
  001f0	56		 push	 esi
  001f1	8d 45 e4	 lea	 eax, DWORD PTR __k$[ebp]
  001f4	50		 push	 eax
  001f5	ff 15 00 00 00
	00		 call	 DWORD PTR __imp_?LoadStringA@ioINILoader@@QAEXPBD0PADH@Z

; 164  : 	}

  001fb	8b 4d fc	 mov	 ecx, DWORD PTR __$ArrayPad$[ebp]
  001fe	5f		 pop	 edi
  001ff	33 cd		 xor	 ecx, ebp
  00201	5e		 pop	 esi
  00202	e8 00 00 00 00	 call	 @__security_check_cookie@4
  00207	c9		 leave
  00208	c2 10 00	 ret	 16			; 00000010H
??$LoadString_e@$0BB@@ioINILoader@@QAEXAAY0BB@$$CBDAAY00$$CBDPADH@Z ENDP ; ioINILoader::LoadString_e<17>
_TEXT	ENDS
PUBLIC	__$ArrayPad$
PUBLIC	??$LoadFloat_e@$0BA@@ioINILoader@@QAEMAAY0BA@$$CBDM@Z ; ioINILoader::LoadFloat_e<16>
; Function compile flags: /Ogsp
;	COMDAT ??$LoadFloat_e@$0BA@@ioINILoader@@QAEMAAY0BA@$$CBDM@Z
_TEXT	SEGMENT
__k$ = -24						; size = 16
__$ArrayPad$ = -4					; size = 4
_k$ = 8							; size = 4
_f$ = 12						; size = 4
??$LoadFloat_e@$0BA@@ioINILoader@@QAEMAAY0BA@$$CBDM@Z PROC ; ioINILoader::LoadFloat_e<16>, COMDAT
; _this$ = ecx

; 135  : 	{

  00000	55		 push	 ebp
  00001	8b ec		 mov	 ebp, esp
  00003	83 ec 18	 sub	 esp, 24			; 00000018H
  00006	a1 00 00 00 00	 mov	 eax, DWORD PTR ___security_cookie
  0000b	33 c5		 xor	 eax, ebp
  0000d	89 45 fc	 mov	 DWORD PTR __$ArrayPad$[ebp], eax
  00010	8b 45 08	 mov	 eax, DWORD PTR _k$[ebp]

; 136  : 		_ENCSTR(k, _k);

  00013	8a 10		 mov	 dl, BYTE PTR [eax]
  00015	56		 push	 esi
  00016	8b f1		 mov	 esi, ecx
  00018	84 d2		 test	 dl, dl
  0001a	0f 84 8c 01 00
	00		 je	 $LN96@LoadFloat_@3
  00020	80 f2 ed	 xor	 dl, -19			; ffffffedH
  00023	88 55 e8	 mov	 BYTE PTR __k$[ebp], dl
  00026	8a 50 01	 mov	 dl, BYTE PTR [eax+1]
  00029	84 d2		 test	 dl, dl
  0002b	0f 84 75 01 00
	00		 je	 $LN95@LoadFloat_@3
  00031	80 f2 ec	 xor	 dl, -20			; ffffffecH
  00034	88 55 e9	 mov	 BYTE PTR __k$[ebp+1], dl
  00037	8a 50 02	 mov	 dl, BYTE PTR [eax+2]
  0003a	84 d2		 test	 dl, dl
  0003c	0f 84 5e 01 00
	00		 je	 $LN94@LoadFloat_@3
  00042	b1 eb		 mov	 cl, -21			; ffffffebH
  00044	32 d1		 xor	 dl, cl
  00046	88 55 ea	 mov	 BYTE PTR __k$[ebp+2], dl
  00049	8a 50 03	 mov	 dl, BYTE PTR [eax+3]
  0004c	84 d2		 test	 dl, dl
  0004e	0f 84 46 01 00
	00		 je	 $LN93@LoadFloat_@3
  00054	80 f2 ea	 xor	 dl, -22			; ffffffeaH
  00057	88 55 eb	 mov	 BYTE PTR __k$[ebp+3], dl
  0005a	8a 50 04	 mov	 dl, BYTE PTR [eax+4]
  0005d	84 d2		 test	 dl, dl
  0005f	0f 84 2f 01 00
	00		 je	 $LN92@LoadFloat_@3
  00065	80 f2 ed	 xor	 dl, -19			; ffffffedH
  00068	88 55 ec	 mov	 BYTE PTR __k$[ebp+4], dl
  0006b	8a 50 05	 mov	 dl, BYTE PTR [eax+5]
  0006e	84 d2		 test	 dl, dl
  00070	0f 84 18 01 00
	00		 je	 $LN91@LoadFloat_@3
  00076	80 f2 ec	 xor	 dl, -20			; ffffffecH
  00079	88 55 ed	 mov	 BYTE PTR __k$[ebp+5], dl
  0007c	8a 50 06	 mov	 dl, BYTE PTR [eax+6]
  0007f	84 d2		 test	 dl, dl
  00081	0f 84 02 01 00
	00		 je	 $LN90@LoadFloat_@3
  00087	32 d1		 xor	 dl, cl
  00089	88 55 ee	 mov	 BYTE PTR __k$[ebp+6], dl
  0008c	8a 50 07	 mov	 dl, BYTE PTR [eax+7]
  0008f	84 d2		 test	 dl, dl
  00091	0f 84 ec 00 00
	00		 je	 $LN89@LoadFloat_@3
  00097	80 f2 ea	 xor	 dl, -22			; ffffffeaH
  0009a	88 55 ef	 mov	 BYTE PTR __k$[ebp+7], dl
  0009d	8a 50 08	 mov	 dl, BYTE PTR [eax+8]
  000a0	84 d2		 test	 dl, dl
  000a2	0f 84 d5 00 00
	00		 je	 $LN88@LoadFloat_@3
  000a8	80 f2 ed	 xor	 dl, -19			; ffffffedH
  000ab	88 55 f0	 mov	 BYTE PTR __k$[ebp+8], dl
  000ae	8a 50 09	 mov	 dl, BYTE PTR [eax+9]
  000b1	84 d2		 test	 dl, dl
  000b3	0f 84 be 00 00
	00		 je	 $LN87@LoadFloat_@3
  000b9	80 f2 ec	 xor	 dl, -20			; ffffffecH
  000bc	88 55 f1	 mov	 BYTE PTR __k$[ebp+9], dl
  000bf	8a 50 0a	 mov	 dl, BYTE PTR [eax+10]
  000c2	84 d2		 test	 dl, dl
  000c4	0f 84 a8 00 00
	00		 je	 $LN86@LoadFloat_@3
  000ca	32 d1		 xor	 dl, cl
  000cc	88 55 f2	 mov	 BYTE PTR __k$[ebp+10], dl
  000cf	8a 50 0b	 mov	 dl, BYTE PTR [eax+11]
  000d2	84 d2		 test	 dl, dl
  000d4	0f 84 92 00 00
	00		 je	 $LN85@LoadFloat_@3
  000da	80 f2 ea	 xor	 dl, -22			; ffffffeaH
  000dd	88 55 f3	 mov	 BYTE PTR __k$[ebp+11], dl
  000e0	8a 50 0c	 mov	 dl, BYTE PTR [eax+12]
  000e3	84 d2		 test	 dl, dl
  000e5	74 7f		 je	 SHORT $LN84@LoadFloat_@3
  000e7	80 f2 ed	 xor	 dl, -19			; ffffffedH
  000ea	88 55 f4	 mov	 BYTE PTR __k$[ebp+12], dl
  000ed	8a 50 0d	 mov	 dl, BYTE PTR [eax+13]
  000f0	84 d2		 test	 dl, dl
  000f2	74 6c		 je	 SHORT $LN83@LoadFloat_@3
  000f4	80 f2 ec	 xor	 dl, -20			; ffffffecH
  000f7	88 55 f5	 mov	 BYTE PTR __k$[ebp+13], dl
  000fa	8a 50 0e	 mov	 dl, BYTE PTR [eax+14]
  000fd	84 d2		 test	 dl, dl
  000ff	74 5a		 je	 SHORT $LN82@LoadFloat_@3
  00101	32 d1		 xor	 dl, cl
  00103	80 78 0f 00	 cmp	 BYTE PTR [eax+15], 0
  00107	88 55 f6	 mov	 BYTE PTR __k$[ebp+14], dl
  0010a	0f 84 a0 00 00
	00		 je	 $LN1@LoadFloat_@3
  00110	8a 50 10	 mov	 dl, BYTE PTR [eax+16]
  00113	84 d2		 test	 dl, dl
  00115	74 3e		 je	 SHORT $LN80@LoadFloat_@3
  00117	80 f2 ed	 xor	 dl, -19			; ffffffedH
  0011a	88 55 f8	 mov	 BYTE PTR __k$[ebp+16], dl
  0011d	8a 50 11	 mov	 dl, BYTE PTR [eax+17]
  00120	84 d2		 test	 dl, dl
  00122	74 2b		 je	 SHORT $LN79@LoadFloat_@3
  00124	80 f2 ec	 xor	 dl, -20			; ffffffecH
  00127	88 55 f9	 mov	 BYTE PTR __k$[ebp+17], dl
  0012a	8a 50 12	 mov	 dl, BYTE PTR [eax+18]
  0012d	84 d2		 test	 dl, dl
  0012f	74 19		 je	 SHORT $LN78@LoadFloat_@3
  00131	8a 40 13	 mov	 al, BYTE PTR [eax+19]
  00134	32 d1		 xor	 dl, cl
  00136	88 55 fa	 mov	 BYTE PTR __k$[ebp+18], dl
  00139	84 c0		 test	 al, al
  0013b	74 07		 je	 SHORT $LN77@LoadFloat_@3
  0013d	34 ea		 xor	 al, -22			; ffffffeaH
  0013f	88 45 fb	 mov	 BYTE PTR __k$[ebp+19], al
  00142	eb 6c		 jmp	 SHORT $LN1@LoadFloat_@3
$LN77@LoadFloat_@3:
  00144	c6 45 fb ea	 mov	 BYTE PTR __k$[ebp+19], -22 ; ffffffeaH
  00148	eb 66		 jmp	 SHORT $LN1@LoadFloat_@3
$LN78@LoadFloat_@3:
  0014a	88 4d fa	 mov	 BYTE PTR __k$[ebp+18], cl
  0014d	eb 61		 jmp	 SHORT $LN1@LoadFloat_@3
$LN79@LoadFloat_@3:
  0014f	c6 45 f9 ec	 mov	 BYTE PTR __k$[ebp+17], -20 ; ffffffecH
  00153	eb 5b		 jmp	 SHORT $LN1@LoadFloat_@3
$LN80@LoadFloat_@3:
  00155	c6 45 f8 ed	 mov	 BYTE PTR __k$[ebp+16], -19 ; ffffffedH
  00159	eb 55		 jmp	 SHORT $LN1@LoadFloat_@3
$LN82@LoadFloat_@3:
  0015b	88 4d f6	 mov	 BYTE PTR __k$[ebp+14], cl
  0015e	eb 50		 jmp	 SHORT $LN1@LoadFloat_@3
$LN83@LoadFloat_@3:
  00160	c6 45 f5 ec	 mov	 BYTE PTR __k$[ebp+13], -20 ; ffffffecH
  00164	eb 4a		 jmp	 SHORT $LN1@LoadFloat_@3
$LN84@LoadFloat_@3:
  00166	c6 45 f4 ed	 mov	 BYTE PTR __k$[ebp+12], -19 ; ffffffedH
  0016a	eb 44		 jmp	 SHORT $LN1@LoadFloat_@3
$LN85@LoadFloat_@3:
  0016c	c6 45 f3 ea	 mov	 BYTE PTR __k$[ebp+11], -22 ; ffffffeaH
  00170	eb 3e		 jmp	 SHORT $LN1@LoadFloat_@3
$LN86@LoadFloat_@3:
  00172	88 4d f2	 mov	 BYTE PTR __k$[ebp+10], cl
  00175	eb 39		 jmp	 SHORT $LN1@LoadFloat_@3
$LN87@LoadFloat_@3:
  00177	c6 45 f1 ec	 mov	 BYTE PTR __k$[ebp+9], -20 ; ffffffecH
  0017b	eb 33		 jmp	 SHORT $LN1@LoadFloat_@3
$LN88@LoadFloat_@3:
  0017d	c6 45 f0 ed	 mov	 BYTE PTR __k$[ebp+8], -19 ; ffffffedH
  00181	eb 2d		 jmp	 SHORT $LN1@LoadFloat_@3
$LN89@LoadFloat_@3:
  00183	c6 45 ef ea	 mov	 BYTE PTR __k$[ebp+7], -22 ; ffffffeaH
  00187	eb 27		 jmp	 SHORT $LN1@LoadFloat_@3
$LN90@LoadFloat_@3:
  00189	88 4d ee	 mov	 BYTE PTR __k$[ebp+6], cl
  0018c	eb 22		 jmp	 SHORT $LN1@LoadFloat_@3
$LN91@LoadFloat_@3:
  0018e	c6 45 ed ec	 mov	 BYTE PTR __k$[ebp+5], -20 ; ffffffecH
  00192	eb 1c		 jmp	 SHORT $LN1@LoadFloat_@3
$LN92@LoadFloat_@3:
  00194	c6 45 ec ed	 mov	 BYTE PTR __k$[ebp+4], -19 ; ffffffedH
  00198	eb 16		 jmp	 SHORT $LN1@LoadFloat_@3
$LN93@LoadFloat_@3:
  0019a	c6 45 eb ea	 mov	 BYTE PTR __k$[ebp+3], -22 ; ffffffeaH
  0019e	eb 10		 jmp	 SHORT $LN1@LoadFloat_@3
$LN94@LoadFloat_@3:
  001a0	c6 45 ea eb	 mov	 BYTE PTR __k$[ebp+2], -21 ; ffffffebH
  001a4	eb 0a		 jmp	 SHORT $LN1@LoadFloat_@3
$LN95@LoadFloat_@3:
  001a6	c6 45 e9 ec	 mov	 BYTE PTR __k$[ebp+1], -20 ; ffffffecH
  001aa	eb 04		 jmp	 SHORT $LN1@LoadFloat_@3
$LN96@LoadFloat_@3:
  001ac	c6 45 e8 ed	 mov	 BYTE PTR __k$[ebp], -19	; ffffffedH
$LN1@LoadFloat_@3:
  001b0	6a 03		 push	 3
  001b2	8d 45 e8	 lea	 eax, DWORD PTR __k$[ebp]
  001b5	c6 45 f7 00	 mov	 BYTE PTR __k$[ebp+15], 0
  001b9	5a		 pop	 edx
$LL104@LoadFloat_@3:
  001ba	81 30 ed ec eb
	ea		 xor	 DWORD PTR [eax], -353637139 ; eaebecedH
  001c0	83 c0 04	 add	 eax, 4
  001c3	4a		 dec	 edx
  001c4	75 f4		 jne	 SHORT $LL104@LoadFloat_@3
  001c6	6a 0c		 push	 12			; 0000000cH
  001c8	58		 pop	 eax
$LL101@LoadFloat_@3:
  001c9	8b c8		 mov	 ecx, eax
  001cb	81 e1 03 00 00
	80		 and	 ecx, -2147483645	; 80000003H
  001d1	79 05		 jns	 SHORT $LN111@LoadFloat_@3
  001d3	49		 dec	 ecx
  001d4	83 c9 fc	 or	 ecx, -4			; fffffffcH
  001d7	41		 inc	 ecx
$LN111@LoadFloat_@3:
  001d8	b2 ed		 mov	 dl, -19			; ffffffedH
  001da	2a d1		 sub	 dl, cl
  001dc	30 54 05 e8	 xor	 BYTE PTR __k$[ebp+eax], dl
  001e0	40		 inc	 eax
  001e1	83 f8 0f	 cmp	 eax, 15			; 0000000fH
  001e4	7c e3		 jl	 SHORT $LL101@LoadFloat_@3

; 137  : 		return LoadFloat(_k, f);

  001e6	f3 0f 10 45 0c	 movss	 xmm0, DWORD PTR _f$[ebp]
  001eb	51		 push	 ecx
  001ec	8d 45 e8	 lea	 eax, DWORD PTR __k$[ebp]
  001ef	f3 0f 11 04 24	 movss	 DWORD PTR [esp], xmm0
  001f4	50		 push	 eax
  001f5	8b ce		 mov	 ecx, esi
  001f7	ff 15 00 00 00
	00		 call	 DWORD PTR __imp_?LoadFloat@ioINILoader@@QAEMPBDM@Z

; 138  : 	}

  001fd	8b 4d fc	 mov	 ecx, DWORD PTR __$ArrayPad$[ebp]
  00200	33 cd		 xor	 ecx, ebp
  00202	5e		 pop	 esi
  00203	e8 00 00 00 00	 call	 @__security_check_cookie@4
  00208	c9		 leave
  00209	c2 08 00	 ret	 8
??$LoadFloat_e@$0BA@@ioINILoader@@QAEMAAY0BA@$$CBDM@Z ENDP ; ioINILoader::LoadFloat_e<16>
_TEXT	ENDS
PUBLIC	__$ArrayPad$
PUBLIC	??$LoadInt_e@$0BA@@ioINILoader@@QAEHAAY0BA@$$CBDH@Z ; ioINILoader::LoadInt_e<16>
; Function compile flags: /Ogsp
;	COMDAT ??$LoadInt_e@$0BA@@ioINILoader@@QAEHAAY0BA@$$CBDH@Z
_TEXT	SEGMENT
__k$ = -24						; size = 16
__$ArrayPad$ = -4					; size = 4
_k$ = 8							; size = 4
_i$ = 12						; size = 4
??$LoadInt_e@$0BA@@ioINILoader@@QAEHAAY0BA@$$CBDH@Z PROC ; ioINILoader::LoadInt_e<16>, COMDAT
; _this$ = ecx

; 118  : 	{

  00000	55		 push	 ebp
  00001	8b ec		 mov	 ebp, esp
  00003	83 ec 18	 sub	 esp, 24			; 00000018H
  00006	a1 00 00 00 00	 mov	 eax, DWORD PTR ___security_cookie
  0000b	33 c5		 xor	 eax, ebp
  0000d	89 45 fc	 mov	 DWORD PTR __$ArrayPad$[ebp], eax
  00010	8b 45 08	 mov	 eax, DWORD PTR _k$[ebp]

; 119  : 		_ENCSTR(k, _k);

  00013	8a 10		 mov	 dl, BYTE PTR [eax]
  00015	56		 push	 esi
  00016	8b f1		 mov	 esi, ecx
  00018	84 d2		 test	 dl, dl
  0001a	0f 84 8c 01 00
	00		 je	 $LN96@LoadInt_e@2
  00020	80 f2 ed	 xor	 dl, -19			; ffffffedH
  00023	88 55 e8	 mov	 BYTE PTR __k$[ebp], dl
  00026	8a 50 01	 mov	 dl, BYTE PTR [eax+1]
  00029	84 d2		 test	 dl, dl
  0002b	0f 84 75 01 00
	00		 je	 $LN95@LoadInt_e@2
  00031	80 f2 ec	 xor	 dl, -20			; ffffffecH
  00034	88 55 e9	 mov	 BYTE PTR __k$[ebp+1], dl
  00037	8a 50 02	 mov	 dl, BYTE PTR [eax+2]
  0003a	84 d2		 test	 dl, dl
  0003c	0f 84 5e 01 00
	00		 je	 $LN94@LoadInt_e@2
  00042	b1 eb		 mov	 cl, -21			; ffffffebH
  00044	32 d1		 xor	 dl, cl
  00046	88 55 ea	 mov	 BYTE PTR __k$[ebp+2], dl
  00049	8a 50 03	 mov	 dl, BYTE PTR [eax+3]
  0004c	84 d2		 test	 dl, dl
  0004e	0f 84 46 01 00
	00		 je	 $LN93@LoadInt_e@2
  00054	80 f2 ea	 xor	 dl, -22			; ffffffeaH
  00057	88 55 eb	 mov	 BYTE PTR __k$[ebp+3], dl
  0005a	8a 50 04	 mov	 dl, BYTE PTR [eax+4]
  0005d	84 d2		 test	 dl, dl
  0005f	0f 84 2f 01 00
	00		 je	 $LN92@LoadInt_e@2
  00065	80 f2 ed	 xor	 dl, -19			; ffffffedH
  00068	88 55 ec	 mov	 BYTE PTR __k$[ebp+4], dl
  0006b	8a 50 05	 mov	 dl, BYTE PTR [eax+5]
  0006e	84 d2		 test	 dl, dl
  00070	0f 84 18 01 00
	00		 je	 $LN91@LoadInt_e@2
  00076	80 f2 ec	 xor	 dl, -20			; ffffffecH
  00079	88 55 ed	 mov	 BYTE PTR __k$[ebp+5], dl
  0007c	8a 50 06	 mov	 dl, BYTE PTR [eax+6]
  0007f	84 d2		 test	 dl, dl
  00081	0f 84 02 01 00
	00		 je	 $LN90@LoadInt_e@2
  00087	32 d1		 xor	 dl, cl
  00089	88 55 ee	 mov	 BYTE PTR __k$[ebp+6], dl
  0008c	8a 50 07	 mov	 dl, BYTE PTR [eax+7]
  0008f	84 d2		 test	 dl, dl
  00091	0f 84 ec 00 00
	00		 je	 $LN89@LoadInt_e@2
  00097	80 f2 ea	 xor	 dl, -22			; ffffffeaH
  0009a	88 55 ef	 mov	 BYTE PTR __k$[ebp+7], dl
  0009d	8a 50 08	 mov	 dl, BYTE PTR [eax+8]
  000a0	84 d2		 test	 dl, dl
  000a2	0f 84 d5 00 00
	00		 je	 $LN88@LoadInt_e@2
  000a8	80 f2 ed	 xor	 dl, -19			; ffffffedH
  000ab	88 55 f0	 mov	 BYTE PTR __k$[ebp+8], dl
  000ae	8a 50 09	 mov	 dl, BYTE PTR [eax+9]
  000b1	84 d2		 test	 dl, dl
  000b3	0f 84 be 00 00
	00		 je	 $LN87@LoadInt_e@2
  000b9	80 f2 ec	 xor	 dl, -20			; ffffffecH
  000bc	88 55 f1	 mov	 BYTE PTR __k$[ebp+9], dl
  000bf	8a 50 0a	 mov	 dl, BYTE PTR [eax+10]
  000c2	84 d2		 test	 dl, dl
  000c4	0f 84 a8 00 00
	00		 je	 $LN86@LoadInt_e@2
  000ca	32 d1		 xor	 dl, cl
  000cc	88 55 f2	 mov	 BYTE PTR __k$[ebp+10], dl
  000cf	8a 50 0b	 mov	 dl, BYTE PTR [eax+11]
  000d2	84 d2		 test	 dl, dl
  000d4	0f 84 92 00 00
	00		 je	 $LN85@LoadInt_e@2
  000da	80 f2 ea	 xor	 dl, -22			; ffffffeaH
  000dd	88 55 f3	 mov	 BYTE PTR __k$[ebp+11], dl
  000e0	8a 50 0c	 mov	 dl, BYTE PTR [eax+12]
  000e3	84 d2		 test	 dl, dl
  000e5	74 7f		 je	 SHORT $LN84@LoadInt_e@2
  000e7	80 f2 ed	 xor	 dl, -19			; ffffffedH
  000ea	88 55 f4	 mov	 BYTE PTR __k$[ebp+12], dl
  000ed	8a 50 0d	 mov	 dl, BYTE PTR [eax+13]
  000f0	84 d2		 test	 dl, dl
  000f2	74 6c		 je	 SHORT $LN83@LoadInt_e@2
  000f4	80 f2 ec	 xor	 dl, -20			; ffffffecH
  000f7	88 55 f5	 mov	 BYTE PTR __k$[ebp+13], dl
  000fa	8a 50 0e	 mov	 dl, BYTE PTR [eax+14]
  000fd	84 d2		 test	 dl, dl
  000ff	74 5a		 je	 SHORT $LN82@LoadInt_e@2
  00101	32 d1		 xor	 dl, cl
  00103	80 78 0f 00	 cmp	 BYTE PTR [eax+15], 0
  00107	88 55 f6	 mov	 BYTE PTR __k$[ebp+14], dl
  0010a	0f 84 a0 00 00
	00		 je	 $LN1@LoadInt_e@2
  00110	8a 50 10	 mov	 dl, BYTE PTR [eax+16]
  00113	84 d2		 test	 dl, dl
  00115	74 3e		 je	 SHORT $LN80@LoadInt_e@2
  00117	80 f2 ed	 xor	 dl, -19			; ffffffedH
  0011a	88 55 f8	 mov	 BYTE PTR __k$[ebp+16], dl
  0011d	8a 50 11	 mov	 dl, BYTE PTR [eax+17]
  00120	84 d2		 test	 dl, dl
  00122	74 2b		 je	 SHORT $LN79@LoadInt_e@2
  00124	80 f2 ec	 xor	 dl, -20			; ffffffecH
  00127	88 55 f9	 mov	 BYTE PTR __k$[ebp+17], dl
  0012a	8a 50 12	 mov	 dl, BYTE PTR [eax+18]
  0012d	84 d2		 test	 dl, dl
  0012f	74 19		 je	 SHORT $LN78@LoadInt_e@2
  00131	8a 40 13	 mov	 al, BYTE PTR [eax+19]
  00134	32 d1		 xor	 dl, cl
  00136	88 55 fa	 mov	 BYTE PTR __k$[ebp+18], dl
  00139	84 c0		 test	 al, al
  0013b	74 07		 je	 SHORT $LN77@LoadInt_e@2
  0013d	34 ea		 xor	 al, -22			; ffffffeaH
  0013f	88 45 fb	 mov	 BYTE PTR __k$[ebp+19], al
  00142	eb 6c		 jmp	 SHORT $LN1@LoadInt_e@2
$LN77@LoadInt_e@2:
  00144	c6 45 fb ea	 mov	 BYTE PTR __k$[ebp+19], -22 ; ffffffeaH
  00148	eb 66		 jmp	 SHORT $LN1@LoadInt_e@2
$LN78@LoadInt_e@2:
  0014a	88 4d fa	 mov	 BYTE PTR __k$[ebp+18], cl
  0014d	eb 61		 jmp	 SHORT $LN1@LoadInt_e@2
$LN79@LoadInt_e@2:
  0014f	c6 45 f9 ec	 mov	 BYTE PTR __k$[ebp+17], -20 ; ffffffecH
  00153	eb 5b		 jmp	 SHORT $LN1@LoadInt_e@2
$LN80@LoadInt_e@2:
  00155	c6 45 f8 ed	 mov	 BYTE PTR __k$[ebp+16], -19 ; ffffffedH
  00159	eb 55		 jmp	 SHORT $LN1@LoadInt_e@2
$LN82@LoadInt_e@2:
  0015b	88 4d f6	 mov	 BYTE PTR __k$[ebp+14], cl
  0015e	eb 50		 jmp	 SHORT $LN1@LoadInt_e@2
$LN83@LoadInt_e@2:
  00160	c6 45 f5 ec	 mov	 BYTE PTR __k$[ebp+13], -20 ; ffffffecH
  00164	eb 4a		 jmp	 SHORT $LN1@LoadInt_e@2
$LN84@LoadInt_e@2:
  00166	c6 45 f4 ed	 mov	 BYTE PTR __k$[ebp+12], -19 ; ffffffedH
  0016a	eb 44		 jmp	 SHORT $LN1@LoadInt_e@2
$LN85@LoadInt_e@2:
  0016c	c6 45 f3 ea	 mov	 BYTE PTR __k$[ebp+11], -22 ; ffffffeaH
  00170	eb 3e		 jmp	 SHORT $LN1@LoadInt_e@2
$LN86@LoadInt_e@2:
  00172	88 4d f2	 mov	 BYTE PTR __k$[ebp+10], cl
  00175	eb 39		 jmp	 SHORT $LN1@LoadInt_e@2
$LN87@LoadInt_e@2:
  00177	c6 45 f1 ec	 mov	 BYTE PTR __k$[ebp+9], -20 ; ffffffecH
  0017b	eb 33		 jmp	 SHORT $LN1@LoadInt_e@2
$LN88@LoadInt_e@2:
  0017d	c6 45 f0 ed	 mov	 BYTE PTR __k$[ebp+8], -19 ; ffffffedH
  00181	eb 2d		 jmp	 SHORT $LN1@LoadInt_e@2
$LN89@LoadInt_e@2:
  00183	c6 45 ef ea	 mov	 BYTE PTR __k$[ebp+7], -22 ; ffffffeaH
  00187	eb 27		 jmp	 SHORT $LN1@LoadInt_e@2
$LN90@LoadInt_e@2:
  00189	88 4d ee	 mov	 BYTE PTR __k$[ebp+6], cl
  0018c	eb 22		 jmp	 SHORT $LN1@LoadInt_e@2
$LN91@LoadInt_e@2:
  0018e	c6 45 ed ec	 mov	 BYTE PTR __k$[ebp+5], -20 ; ffffffecH
  00192	eb 1c		 jmp	 SHORT $LN1@LoadInt_e@2
$LN92@LoadInt_e@2:
  00194	c6 45 ec ed	 mov	 BYTE PTR __k$[ebp+4], -19 ; ffffffedH
  00198	eb 16		 jmp	 SHORT $LN1@LoadInt_e@2
$LN93@LoadInt_e@2:
  0019a	c6 45 eb ea	 mov	 BYTE PTR __k$[ebp+3], -22 ; ffffffeaH
  0019e	eb 10		 jmp	 SHORT $LN1@LoadInt_e@2
$LN94@LoadInt_e@2:
  001a0	c6 45 ea eb	 mov	 BYTE PTR __k$[ebp+2], -21 ; ffffffebH
  001a4	eb 0a		 jmp	 SHORT $LN1@LoadInt_e@2
$LN95@LoadInt_e@2:
  001a6	c6 45 e9 ec	 mov	 BYTE PTR __k$[ebp+1], -20 ; ffffffecH
  001aa	eb 04		 jmp	 SHORT $LN1@LoadInt_e@2
$LN96@LoadInt_e@2:
  001ac	c6 45 e8 ed	 mov	 BYTE PTR __k$[ebp], -19	; ffffffedH
$LN1@LoadInt_e@2:
  001b0	6a 03		 push	 3
  001b2	8d 45 e8	 lea	 eax, DWORD PTR __k$[ebp]
  001b5	c6 45 f7 00	 mov	 BYTE PTR __k$[ebp+15], 0
  001b9	5a		 pop	 edx
$LL104@LoadInt_e@2:
  001ba	81 30 ed ec eb
	ea		 xor	 DWORD PTR [eax], -353637139 ; eaebecedH
  001c0	83 c0 04	 add	 eax, 4
  001c3	4a		 dec	 edx
  001c4	75 f4		 jne	 SHORT $LL104@LoadInt_e@2
  001c6	6a 0c		 push	 12			; 0000000cH
  001c8	58		 pop	 eax
$LL101@LoadInt_e@2:
  001c9	8b c8		 mov	 ecx, eax
  001cb	81 e1 03 00 00
	80		 and	 ecx, -2147483645	; 80000003H
  001d1	79 05		 jns	 SHORT $LN111@LoadInt_e@2
  001d3	49		 dec	 ecx
  001d4	83 c9 fc	 or	 ecx, -4			; fffffffcH
  001d7	41		 inc	 ecx
$LN111@LoadInt_e@2:
  001d8	b2 ed		 mov	 dl, -19			; ffffffedH
  001da	2a d1		 sub	 dl, cl
  001dc	30 54 05 e8	 xor	 BYTE PTR __k$[ebp+eax], dl
  001e0	40		 inc	 eax
  001e1	83 f8 0f	 cmp	 eax, 15			; 0000000fH
  001e4	7c e3		 jl	 SHORT $LL101@LoadInt_e@2

; 120  : 		return LoadInt(_k, i);

  001e6	ff 75 0c	 push	 DWORD PTR _i$[ebp]
  001e9	8d 45 e8	 lea	 eax, DWORD PTR __k$[ebp]
  001ec	50		 push	 eax
  001ed	8b ce		 mov	 ecx, esi
  001ef	ff 15 00 00 00
	00		 call	 DWORD PTR __imp_?LoadInt@ioINILoader@@QAEHPBDH@Z

; 121  : 	}

  001f5	8b 4d fc	 mov	 ecx, DWORD PTR __$ArrayPad$[ebp]
  001f8	33 cd		 xor	 ecx, ebp
  001fa	5e		 pop	 esi
  001fb	e8 00 00 00 00	 call	 @__security_check_cookie@4
  00200	c9		 leave
  00201	c2 08 00	 ret	 8
??$LoadInt_e@$0BA@@ioINILoader@@QAEHAAY0BA@$$CBDH@Z ENDP ; ioINILoader::LoadInt_e<16>
_TEXT	ENDS
PUBLIC	__$ArrayPad$
PUBLIC	??$LoadFloat_e@$0BB@@ioINILoader@@QAEMAAY0BB@$$CBDM@Z ; ioINILoader::LoadFloat_e<17>
; Function compile flags: /Ogsp
;	COMDAT ??$LoadFloat_e@$0BB@@ioINILoader@@QAEMAAY0BB@$$CBDM@Z
_TEXT	SEGMENT
__k$ = -28						; size = 17
__$ArrayPad$ = -4					; size = 4
_k$ = 8							; size = 4
_f$ = 12						; size = 4
??$LoadFloat_e@$0BB@@ioINILoader@@QAEMAAY0BB@$$CBDM@Z PROC ; ioINILoader::LoadFloat_e<17>, COMDAT
; _this$ = ecx

; 135  : 	{

  00000	55		 push	 ebp
  00001	8b ec		 mov	 ebp, esp
  00003	83 ec 1c	 sub	 esp, 28			; 0000001cH
  00006	a1 00 00 00 00	 mov	 eax, DWORD PTR ___security_cookie
  0000b	33 c5		 xor	 eax, ebp
  0000d	89 45 fc	 mov	 DWORD PTR __$ArrayPad$[ebp], eax
  00010	8b 45 08	 mov	 eax, DWORD PTR _k$[ebp]

; 136  : 		_ENCSTR(k, _k);

  00013	8a 10		 mov	 dl, BYTE PTR [eax]
  00015	56		 push	 esi
  00016	8b f1		 mov	 esi, ecx
  00018	84 d2		 test	 dl, dl
  0001a	0f 84 a7 01 00
	00		 je	 $LN96@LoadFloat_@4
  00020	80 f2 ed	 xor	 dl, -19			; ffffffedH
  00023	88 55 e4	 mov	 BYTE PTR __k$[ebp], dl
  00026	8a 50 01	 mov	 dl, BYTE PTR [eax+1]
  00029	84 d2		 test	 dl, dl
  0002b	0f 84 90 01 00
	00		 je	 $LN95@LoadFloat_@4
  00031	b1 ec		 mov	 cl, -20			; ffffffecH
  00033	32 d1		 xor	 dl, cl
  00035	88 55 e5	 mov	 BYTE PTR __k$[ebp+1], dl
  00038	8a 50 02	 mov	 dl, BYTE PTR [eax+2]
  0003b	84 d2		 test	 dl, dl
  0003d	0f 84 78 01 00
	00		 je	 $LN94@LoadFloat_@4
  00043	80 f2 eb	 xor	 dl, -21			; ffffffebH
  00046	88 55 e6	 mov	 BYTE PTR __k$[ebp+2], dl
  00049	8a 50 03	 mov	 dl, BYTE PTR [eax+3]
  0004c	84 d2		 test	 dl, dl
  0004e	0f 84 61 01 00
	00		 je	 $LN93@LoadFloat_@4
  00054	80 f2 ea	 xor	 dl, -22			; ffffffeaH
  00057	88 55 e7	 mov	 BYTE PTR __k$[ebp+3], dl
  0005a	8a 50 04	 mov	 dl, BYTE PTR [eax+4]
  0005d	84 d2		 test	 dl, dl
  0005f	0f 84 4a 01 00
	00		 je	 $LN92@LoadFloat_@4
  00065	80 f2 ed	 xor	 dl, -19			; ffffffedH
  00068	88 55 e8	 mov	 BYTE PTR __k$[ebp+4], dl
  0006b	8a 50 05	 mov	 dl, BYTE PTR [eax+5]
  0006e	84 d2		 test	 dl, dl
  00070	0f 84 34 01 00
	00		 je	 $LN91@LoadFloat_@4
  00076	32 d1		 xor	 dl, cl
  00078	88 55 e9	 mov	 BYTE PTR __k$[ebp+5], dl
  0007b	8a 50 06	 mov	 dl, BYTE PTR [eax+6]
  0007e	84 d2		 test	 dl, dl
  00080	0f 84 1e 01 00
	00		 je	 $LN90@LoadFloat_@4
  00086	80 f2 eb	 xor	 dl, -21			; ffffffebH
  00089	88 55 ea	 mov	 BYTE PTR __k$[ebp+6], dl
  0008c	8a 50 07	 mov	 dl, BYTE PTR [eax+7]
  0008f	84 d2		 test	 dl, dl
  00091	0f 84 07 01 00
	00		 je	 $LN89@LoadFloat_@4
  00097	80 f2 ea	 xor	 dl, -22			; ffffffeaH
  0009a	88 55 eb	 mov	 BYTE PTR __k$[ebp+7], dl
  0009d	8a 50 08	 mov	 dl, BYTE PTR [eax+8]
  000a0	84 d2		 test	 dl, dl
  000a2	0f 84 f0 00 00
	00		 je	 $LN88@LoadFloat_@4
  000a8	80 f2 ed	 xor	 dl, -19			; ffffffedH
  000ab	88 55 ec	 mov	 BYTE PTR __k$[ebp+8], dl
  000ae	8a 50 09	 mov	 dl, BYTE PTR [eax+9]
  000b1	84 d2		 test	 dl, dl
  000b3	0f 84 da 00 00
	00		 je	 $LN87@LoadFloat_@4
  000b9	32 d1		 xor	 dl, cl
  000bb	88 55 ed	 mov	 BYTE PTR __k$[ebp+9], dl
  000be	8a 50 0a	 mov	 dl, BYTE PTR [eax+10]
  000c1	84 d2		 test	 dl, dl
  000c3	0f 84 c4 00 00
	00		 je	 $LN86@LoadFloat_@4
  000c9	80 f2 eb	 xor	 dl, -21			; ffffffebH
  000cc	88 55 ee	 mov	 BYTE PTR __k$[ebp+10], dl
  000cf	8a 50 0b	 mov	 dl, BYTE PTR [eax+11]
  000d2	84 d2		 test	 dl, dl
  000d4	0f 84 ad 00 00
	00		 je	 $LN85@LoadFloat_@4
  000da	80 f2 ea	 xor	 dl, -22			; ffffffeaH
  000dd	88 55 ef	 mov	 BYTE PTR __k$[ebp+11], dl
  000e0	8a 50 0c	 mov	 dl, BYTE PTR [eax+12]
  000e3	84 d2		 test	 dl, dl
  000e5	0f 84 96 00 00
	00		 je	 $LN84@LoadFloat_@4
  000eb	80 f2 ed	 xor	 dl, -19			; ffffffedH
  000ee	88 55 f0	 mov	 BYTE PTR __k$[ebp+12], dl
  000f1	8a 50 0d	 mov	 dl, BYTE PTR [eax+13]
  000f4	84 d2		 test	 dl, dl
  000f6	0f 84 80 00 00
	00		 je	 $LN83@LoadFloat_@4
  000fc	32 d1		 xor	 dl, cl
  000fe	88 55 f1	 mov	 BYTE PTR __k$[ebp+13], dl
  00101	8a 50 0e	 mov	 dl, BYTE PTR [eax+14]
  00104	84 d2		 test	 dl, dl
  00106	74 6e		 je	 SHORT $LN82@LoadFloat_@4
  00108	80 f2 eb	 xor	 dl, -21			; ffffffebH
  0010b	88 55 f2	 mov	 BYTE PTR __k$[ebp+14], dl
  0010e	8a 50 0f	 mov	 dl, BYTE PTR [eax+15]
  00111	84 d2		 test	 dl, dl
  00113	74 5b		 je	 SHORT $LN81@LoadFloat_@4
  00115	80 f2 ea	 xor	 dl, -22			; ffffffeaH
  00118	80 78 10 00	 cmp	 BYTE PTR [eax+16], 0
  0011c	88 55 f3	 mov	 BYTE PTR __k$[ebp+15], dl
  0011f	0f 84 a6 00 00
	00		 je	 $LN1@LoadFloat_@4
  00125	8a 50 11	 mov	 dl, BYTE PTR [eax+17]
  00128	84 d2		 test	 dl, dl
  0012a	74 3f		 je	 SHORT $LN79@LoadFloat_@4
  0012c	32 d1		 xor	 dl, cl
  0012e	88 55 f5	 mov	 BYTE PTR __k$[ebp+17], dl
  00131	8a 50 12	 mov	 dl, BYTE PTR [eax+18]
  00134	84 d2		 test	 dl, dl
  00136	74 2d		 je	 SHORT $LN78@LoadFloat_@4
  00138	80 f2 eb	 xor	 dl, -21			; ffffffebH
  0013b	88 55 f6	 mov	 BYTE PTR __k$[ebp+18], dl
  0013e	8a 50 13	 mov	 dl, BYTE PTR [eax+19]
  00141	84 d2		 test	 dl, dl
  00143	74 1a		 je	 SHORT $LN77@LoadFloat_@4
  00145	8a 40 14	 mov	 al, BYTE PTR [eax+20]
  00148	80 f2 ea	 xor	 dl, -22			; ffffffeaH
  0014b	88 55 f7	 mov	 BYTE PTR __k$[ebp+19], dl
  0014e	84 c0		 test	 al, al
  00150	74 07		 je	 SHORT $LN76@LoadFloat_@4
  00152	34 ed		 xor	 al, -19			; ffffffedH
  00154	88 45 f8	 mov	 BYTE PTR __k$[ebp+20], al
  00157	eb 72		 jmp	 SHORT $LN1@LoadFloat_@4
$LN76@LoadFloat_@4:
  00159	c6 45 f8 ed	 mov	 BYTE PTR __k$[ebp+20], -19 ; ffffffedH
  0015d	eb 6c		 jmp	 SHORT $LN1@LoadFloat_@4
$LN77@LoadFloat_@4:
  0015f	c6 45 f7 ea	 mov	 BYTE PTR __k$[ebp+19], -22 ; ffffffeaH
  00163	eb 66		 jmp	 SHORT $LN1@LoadFloat_@4
$LN78@LoadFloat_@4:
  00165	c6 45 f6 eb	 mov	 BYTE PTR __k$[ebp+18], -21 ; ffffffebH
  00169	eb 60		 jmp	 SHORT $LN1@LoadFloat_@4
$LN79@LoadFloat_@4:
  0016b	88 4d f5	 mov	 BYTE PTR __k$[ebp+17], cl
  0016e	eb 5b		 jmp	 SHORT $LN1@LoadFloat_@4
$LN81@LoadFloat_@4:
  00170	c6 45 f3 ea	 mov	 BYTE PTR __k$[ebp+15], -22 ; ffffffeaH
  00174	eb 55		 jmp	 SHORT $LN1@LoadFloat_@4
$LN82@LoadFloat_@4:
  00176	c6 45 f2 eb	 mov	 BYTE PTR __k$[ebp+14], -21 ; ffffffebH
  0017a	eb 4f		 jmp	 SHORT $LN1@LoadFloat_@4
$LN83@LoadFloat_@4:
  0017c	88 4d f1	 mov	 BYTE PTR __k$[ebp+13], cl
  0017f	eb 4a		 jmp	 SHORT $LN1@LoadFloat_@4
$LN84@LoadFloat_@4:
  00181	c6 45 f0 ed	 mov	 BYTE PTR __k$[ebp+12], -19 ; ffffffedH
  00185	eb 44		 jmp	 SHORT $LN1@LoadFloat_@4
$LN85@LoadFloat_@4:
  00187	c6 45 ef ea	 mov	 BYTE PTR __k$[ebp+11], -22 ; ffffffeaH
  0018b	eb 3e		 jmp	 SHORT $LN1@LoadFloat_@4
$LN86@LoadFloat_@4:
  0018d	c6 45 ee eb	 mov	 BYTE PTR __k$[ebp+10], -21 ; ffffffebH
  00191	eb 38		 jmp	 SHORT $LN1@LoadFloat_@4
$LN87@LoadFloat_@4:
  00193	88 4d ed	 mov	 BYTE PTR __k$[ebp+9], cl
  00196	eb 33		 jmp	 SHORT $LN1@LoadFloat_@4
$LN88@LoadFloat_@4:
  00198	c6 45 ec ed	 mov	 BYTE PTR __k$[ebp+8], -19 ; ffffffedH
  0019c	eb 2d		 jmp	 SHORT $LN1@LoadFloat_@4
$LN89@LoadFloat_@4:
  0019e	c6 45 eb ea	 mov	 BYTE PTR __k$[ebp+7], -22 ; ffffffeaH
  001a2	eb 27		 jmp	 SHORT $LN1@LoadFloat_@4
$LN90@LoadFloat_@4:
  001a4	c6 45 ea eb	 mov	 BYTE PTR __k$[ebp+6], -21 ; ffffffebH
  001a8	eb 21		 jmp	 SHORT $LN1@LoadFloat_@4
$LN91@LoadFloat_@4:
  001aa	88 4d e9	 mov	 BYTE PTR __k$[ebp+5], cl
  001ad	eb 1c		 jmp	 SHORT $LN1@LoadFloat_@4
$LN92@LoadFloat_@4:
  001af	c6 45 e8 ed	 mov	 BYTE PTR __k$[ebp+4], -19 ; ffffffedH
  001b3	eb 16		 jmp	 SHORT $LN1@LoadFloat_@4
$LN93@LoadFloat_@4:
  001b5	c6 45 e7 ea	 mov	 BYTE PTR __k$[ebp+3], -22 ; ffffffeaH
  001b9	eb 10		 jmp	 SHORT $LN1@LoadFloat_@4
$LN94@LoadFloat_@4:
  001bb	c6 45 e6 eb	 mov	 BYTE PTR __k$[ebp+2], -21 ; ffffffebH
  001bf	eb 0a		 jmp	 SHORT $LN1@LoadFloat_@4
$LN95@LoadFloat_@4:
  001c1	c6 45 e5 ec	 mov	 BYTE PTR __k$[ebp+1], -20 ; ffffffecH
  001c5	eb 04		 jmp	 SHORT $LN1@LoadFloat_@4
$LN96@LoadFloat_@4:
  001c7	c6 45 e4 ed	 mov	 BYTE PTR __k$[ebp], -19	; ffffffedH
$LN1@LoadFloat_@4:
  001cb	6a 04		 push	 4
  001cd	8d 45 e4	 lea	 eax, DWORD PTR __k$[ebp]
  001d0	c6 45 f4 00	 mov	 BYTE PTR __k$[ebp+16], 0
  001d4	5a		 pop	 edx
$LL104@LoadFloat_@4:
  001d5	81 30 ed ec eb
	ea		 xor	 DWORD PTR [eax], -353637139 ; eaebecedH
  001db	83 c0 04	 add	 eax, 4
  001de	4a		 dec	 edx
  001df	75 f4		 jne	 SHORT $LL104@LoadFloat_@4

; 137  : 		return LoadFloat(_k, f);

  001e1	f3 0f 10 45 0c	 movss	 xmm0, DWORD PTR _f$[ebp]
  001e6	51		 push	 ecx
  001e7	8d 45 e4	 lea	 eax, DWORD PTR __k$[ebp]
  001ea	f3 0f 11 04 24	 movss	 DWORD PTR [esp], xmm0
  001ef	50		 push	 eax
  001f0	8b ce		 mov	 ecx, esi
  001f2	ff 15 00 00 00
	00		 call	 DWORD PTR __imp_?LoadFloat@ioINILoader@@QAEMPBDM@Z

; 138  : 	}

  001f8	8b 4d fc	 mov	 ecx, DWORD PTR __$ArrayPad$[ebp]
  001fb	33 cd		 xor	 ecx, ebp
  001fd	5e		 pop	 esi
  001fe	e8 00 00 00 00	 call	 @__security_check_cookie@4
  00203	c9		 leave
  00204	c2 08 00	 ret	 8
??$LoadFloat_e@$0BB@@ioINILoader@@QAEMAAY0BB@$$CBDM@Z ENDP ; ioINILoader::LoadFloat_e<17>
_TEXT	ENDS
PUBLIC	__real@3fd2ee0d320154cb
PUBLIC	__real@41f0000000000000
PUBLIC	??$RADtoDEG@M@@YAMM@Z				; RADtoDEG<float>
;	COMDAT __real@3fd2ee0d320154cb
; File d:\lost saga for developer\youtube\tutorial\source\src\lsclient\veryoftenusedefine.h
CONST	SEGMENT
__real@3fd2ee0d320154cb DQ 03fd2ee0d320154cbr	; 0.29578
CONST	ENDS
;	COMDAT __real@41f0000000000000
CONST	SEGMENT
__real@41f0000000000000 DQ 041f0000000000000r	; 4.29497e+009
; Function compile flags: /Ogsp
CONST	ENDS
;	COMDAT ??$RADtoDEG@M@@YAMM@Z
_TEXT	SEGMENT
tv130 = -4						; size = 4
tv75 = 8						; size = 4
_val$ = 8						; size = 4
??$RADtoDEG@M@@YAMM@Z PROC				; RADtoDEG<float>, COMDAT

; 18   : type  RADtoDEG (type val) {return (type) (val * (return57() + 0.2957795132)); }

  00000	55		 push	 ebp
  00001	8b ec		 mov	 ebp, esp
  00003	51		 push	 ecx
  00004	b8 39 00 00 00	 mov	 eax, 57			; 00000039H
  00009	89 45 fc	 mov	 DWORD PTR tv130[ebp], eax
  0000c	db 45 fc	 fild	 DWORD PTR tv130[ebp]
  0000f	85 c0		 test	 eax, eax
  00011	79 06		 jns	 SHORT $LN5@RADtoDEG
  00013	dc 05 00 00 00
	00		 fadd	 QWORD PTR __real@41f0000000000000
$LN5@RADtoDEG:
  00019	dc 05 00 00 00
	00		 fadd	 QWORD PTR __real@3fd2ee0d320154cb
  0001f	d8 4d 08	 fmul	 DWORD PTR _val$[ebp]
  00022	d9 5d 08	 fstp	 DWORD PTR tv75[ebp]
  00025	d9 45 08	 fld	 DWORD PTR tv75[ebp]
  00028	c9		 leave
  00029	c3		 ret	 0
??$RADtoDEG@M@@YAMM@Z ENDP				; RADtoDEG<float>
_TEXT	ENDS
PUBLIC	??$GetAnimationEventConstPtrList_e@$06@ioEntityGroup@@QAEHHAAY06$$CBDAAV?$vector@PBUAniEventTime@@V?$allocator@PBUAniEventTime@@@std@@@std@@@Z ; ioEntityGroup::GetAnimationEventConstPtrList_e<7>
EXTRN	__imp_?GetAnimationEventConstPtrList@ioEntityGroup@@QAEHHABVioHashString@@AAV?$vector@PBUAniEventTime@@V?$allocator@PBUAniEventTime@@@std@@@std@@@Z:PROC
EXTRN	__imp_??0ioHashString@@QAE@PBD@Z:PROC
EXTRN	__EH_epilog3_GS:PROC
EXTRN	__EH_prolog3_GS:PROC
;	COMDAT xdata$x
; File d:\lost saga for developer\youtube\tutorial\source\src\lsclient\stringprotect.h
xdata$x	SEGMENT
__unwindtable$??$GetAnimationEventConstPtrList_e@$06@ioEntityGroup@@QAEHHAAY06$$CBDAAV?$vector@PBUAniEventTime@@V?$allocator@PBUAniEventTime@@@std@@@std@@@Z DD 0ffffffffH
	DD	FLAT:__unwindfunclet$??$GetAnimationEventConstPtrList_e@$06@ioEntityGroup@@QAEHHAAY06$$CBDAAV?$vector@PBUAniEventTime@@V?$allocator@PBUAniEventTime@@@std@@@std@@@Z$0
__ehfuncinfo$??$GetAnimationEventConstPtrList_e@$06@ioEntityGroup@@QAEHHAAY06$$CBDAAV?$vector@PBUAniEventTime@@V?$allocator@PBUAniEventTime@@@std@@@std@@@Z DD 019930522H
	DD	01H
	DD	FLAT:__unwindtable$??$GetAnimationEventConstPtrList_e@$06@ioEntityGroup@@QAEHHAAY06$$CBDAAV?$vector@PBUAniEventTime@@V?$allocator@PBUAniEventTime@@@std@@@std@@@Z
	DD	2 DUP(00H)
	DD	2 DUP(00H)
	DD	00H
	DD	01H
; Function compile flags: /Ogsp
; File d:\lost saga for developer\youtube\tutorial\source\src\io3dengine\ioentitygroup.h
xdata$x	ENDS
;	COMDAT ??$GetAnimationEventConstPtrList_e@$06@ioEntityGroup@@QAEHHAAY06$$CBDAAV?$vector@PBUAniEventTime@@V?$allocator@PBUAniEventTime@@@std@@@std@@@Z
_TEXT	SEGMENT
$T537653 = -44						; size = 16
_szEncEventType$ = -28					; size = 7
__$EHRec$ = -12						; size = 12
_id$ = 8						; size = 4
_szEventType$ = 12					; size = 4
_vEventList$ = 16					; size = 4
??$GetAnimationEventConstPtrList_e@$06@ioEntityGroup@@QAEHHAAY06$$CBDAAV?$vector@PBUAniEventTime@@V?$allocator@PBUAniEventTime@@@std@@@std@@@Z PROC ; ioEntityGroup::GetAnimationEventConstPtrList_e<7>, COMDAT
; _this$ = ecx

; 423  : 	{

  00000	6a 20		 push	 32			; 00000020H
  00002	b8 00 00 00 00	 mov	 eax, __ehhandler$??$GetAnimationEventConstPtrList_e@$06@ioEntityGroup@@QAEHHAAY06$$CBDAAV?$vector@PBUAniEventTime@@V?$allocator@PBUAniEventTime@@@std@@@std@@@Z
  00007	e8 00 00 00 00	 call	 __EH_prolog3_GS
  0000c	8b 45 0c	 mov	 eax, DWORD PTR _szEventType$[ebp]
  0000f	8b 75 10	 mov	 esi, DWORD PTR _vEventList$[ebp]
  00012	8b f9		 mov	 edi, ecx

; 424  : 		_ENCSTR(szEventType, szEncEventType);

  00014	8a 08		 mov	 cl, BYTE PTR [eax]
  00016	84 c9		 test	 cl, cl
  00018	0f 84 c0 00 00
	00		 je	 $LN96@GetAnimati
  0001e	80 f1 ed	 xor	 cl, -19			; ffffffedH
  00021	88 4d e4	 mov	 BYTE PTR _szEncEventType$[ebp], cl
  00024	8a 48 01	 mov	 cl, BYTE PTR [eax+1]
  00027	84 c9		 test	 cl, cl
  00029	0f 84 a9 00 00
	00		 je	 $LN95@GetAnimati
  0002f	80 f1 ec	 xor	 cl, -20			; ffffffecH
  00032	88 4d e5	 mov	 BYTE PTR _szEncEventType$[ebp+1], cl
  00035	8a 48 02	 mov	 cl, BYTE PTR [eax+2]
  00038	84 c9		 test	 cl, cl
  0003a	0f 84 92 00 00
	00		 je	 $LN94@GetAnimati
  00040	80 f1 eb	 xor	 cl, -21			; ffffffebH
  00043	88 4d e6	 mov	 BYTE PTR _szEncEventType$[ebp+2], cl
  00046	8a 48 03	 mov	 cl, BYTE PTR [eax+3]
  00049	84 c9		 test	 cl, cl
  0004b	74 7f		 je	 SHORT $LN93@GetAnimati
  0004d	80 f1 ea	 xor	 cl, -22			; ffffffeaH
  00050	88 4d e7	 mov	 BYTE PTR _szEncEventType$[ebp+3], cl
  00053	8a 48 04	 mov	 cl, BYTE PTR [eax+4]
  00056	84 c9		 test	 cl, cl
  00058	74 6c		 je	 SHORT $LN92@GetAnimati
  0005a	80 f1 ed	 xor	 cl, -19			; ffffffedH
  0005d	88 4d e8	 mov	 BYTE PTR _szEncEventType$[ebp+4], cl
  00060	8a 48 05	 mov	 cl, BYTE PTR [eax+5]
  00063	84 c9		 test	 cl, cl
  00065	74 59		 je	 SHORT $LN91@GetAnimati
  00067	80 f1 ec	 xor	 cl, -20			; ffffffecH
  0006a	80 78 06 00	 cmp	 BYTE PTR [eax+6], 0
  0006e	88 4d e9	 mov	 BYTE PTR _szEncEventType$[ebp+5], cl
  00071	74 6f		 je	 SHORT $LN1@GetAnimati
  00073	8a 48 07	 mov	 cl, BYTE PTR [eax+7]
  00076	84 c9		 test	 cl, cl
  00078	74 40		 je	 SHORT $LN89@GetAnimati
  0007a	80 f1 ea	 xor	 cl, -22			; ffffffeaH
  0007d	88 4d eb	 mov	 BYTE PTR _szEncEventType$[ebp+7], cl
  00080	8a 48 08	 mov	 cl, BYTE PTR [eax+8]
  00083	84 c9		 test	 cl, cl
  00085	74 2d		 je	 SHORT $LN88@GetAnimati
  00087	80 f1 ed	 xor	 cl, -19			; ffffffedH
  0008a	88 4d ec	 mov	 BYTE PTR _szEncEventType$[ebp+8], cl
  0008d	8a 48 09	 mov	 cl, BYTE PTR [eax+9]
  00090	84 c9		 test	 cl, cl
  00092	74 1a		 je	 SHORT $LN87@GetAnimati
  00094	8a 40 0a	 mov	 al, BYTE PTR [eax+10]
  00097	80 f1 ec	 xor	 cl, -20			; ffffffecH
  0009a	88 4d ed	 mov	 BYTE PTR _szEncEventType$[ebp+9], cl
  0009d	84 c0		 test	 al, al
  0009f	74 07		 je	 SHORT $LN86@GetAnimati
  000a1	34 eb		 xor	 al, -21			; ffffffebH
  000a3	88 45 ee	 mov	 BYTE PTR _szEncEventType$[ebp+10], al
  000a6	eb 3a		 jmp	 SHORT $LN1@GetAnimati
$LN86@GetAnimati:
  000a8	c6 45 ee eb	 mov	 BYTE PTR _szEncEventType$[ebp+10], -21 ; ffffffebH
  000ac	eb 34		 jmp	 SHORT $LN1@GetAnimati
$LN87@GetAnimati:
  000ae	c6 45 ed ec	 mov	 BYTE PTR _szEncEventType$[ebp+9], -20 ; ffffffecH
  000b2	eb 2e		 jmp	 SHORT $LN1@GetAnimati
$LN88@GetAnimati:
  000b4	c6 45 ec ed	 mov	 BYTE PTR _szEncEventType$[ebp+8], -19 ; ffffffedH
  000b8	eb 28		 jmp	 SHORT $LN1@GetAnimati
$LN89@GetAnimati:
  000ba	c6 45 eb ea	 mov	 BYTE PTR _szEncEventType$[ebp+7], -22 ; ffffffeaH
  000be	eb 22		 jmp	 SHORT $LN1@GetAnimati
$LN91@GetAnimati:
  000c0	c6 45 e9 ec	 mov	 BYTE PTR _szEncEventType$[ebp+5], -20 ; ffffffecH
  000c4	eb 1c		 jmp	 SHORT $LN1@GetAnimati
$LN92@GetAnimati:
  000c6	c6 45 e8 ed	 mov	 BYTE PTR _szEncEventType$[ebp+4], -19 ; ffffffedH
  000ca	eb 16		 jmp	 SHORT $LN1@GetAnimati
$LN93@GetAnimati:
  000cc	c6 45 e7 ea	 mov	 BYTE PTR _szEncEventType$[ebp+3], -22 ; ffffffeaH
  000d0	eb 10		 jmp	 SHORT $LN1@GetAnimati
$LN94@GetAnimati:
  000d2	c6 45 e6 eb	 mov	 BYTE PTR _szEncEventType$[ebp+2], -21 ; ffffffebH
  000d6	eb 0a		 jmp	 SHORT $LN1@GetAnimati
$LN95@GetAnimati:
  000d8	c6 45 e5 ec	 mov	 BYTE PTR _szEncEventType$[ebp+1], -20 ; ffffffecH
  000dc	eb 04		 jmp	 SHORT $LN1@GetAnimati
$LN96@GetAnimati:
  000de	c6 45 e4 ed	 mov	 BYTE PTR _szEncEventType$[ebp], -19 ; ffffffedH
$LN1@GetAnimati:
  000e2	81 75 e4 ed ec
	eb ea		 xor	 DWORD PTR _szEncEventType$[ebp], -353637139 ; eaebecedH
  000e9	6a 04		 push	 4
  000eb	c6 45 ea 00	 mov	 BYTE PTR _szEncEventType$[ebp+6], 0
  000ef	58		 pop	 eax
$LL102@GetAnimati:
  000f0	8b c8		 mov	 ecx, eax
  000f2	81 e1 03 00 00
	80		 and	 ecx, -2147483645	; 80000003H
  000f8	79 05		 jns	 SHORT $LN113@GetAnimati
  000fa	49		 dec	 ecx
  000fb	83 c9 fc	 or	 ecx, -4			; fffffffcH
  000fe	41		 inc	 ecx
$LN113@GetAnimati:
  000ff	b2 ed		 mov	 dl, -19			; ffffffedH
  00101	2a d1		 sub	 dl, cl
  00103	30 54 05 e4	 xor	 BYTE PTR _szEncEventType$[ebp+eax], dl
  00107	40		 inc	 eax
  00108	83 f8 06	 cmp	 eax, 6
  0010b	7c e3		 jl	 SHORT $LL102@GetAnimati

; 425  : 		return GetAnimationEventConstPtrList(id, szEncEventType, vEventList);

  0010d	8d 45 e4	 lea	 eax, DWORD PTR _szEncEventType$[ebp]
  00110	50		 push	 eax
  00111	8d 4d d4	 lea	 ecx, DWORD PTR $T537653[ebp]
  00114	ff 15 00 00 00
	00		 call	 DWORD PTR __imp_??0ioHashString@@QAE@PBD@Z
  0011a	83 65 fc 00	 and	 DWORD PTR __$EHRec$[ebp+8], 0
  0011e	56		 push	 esi
  0011f	8d 45 d4	 lea	 eax, DWORD PTR $T537653[ebp]
  00122	50		 push	 eax
  00123	ff 75 08	 push	 DWORD PTR _id$[ebp]
  00126	8b cf		 mov	 ecx, edi
  00128	ff 15 00 00 00
	00		 call	 DWORD PTR __imp_?GetAnimationEventConstPtrList@ioEntityGroup@@QAEHHABVioHashString@@AAV?$vector@PBUAniEventTime@@V?$allocator@PBUAniEventTime@@@std@@@std@@@Z
  0012e	83 4d fc ff	 or	 DWORD PTR __$EHRec$[ebp+8], -1
  00132	8d 4d d4	 lea	 ecx, DWORD PTR $T537653[ebp]
  00135	8b f0		 mov	 esi, eax
  00137	ff 15 00 00 00
	00		 call	 DWORD PTR __imp_??1ioHashString@@QAE@XZ
  0013d	8b c6		 mov	 eax, esi

; 426  : 	}

  0013f	e8 00 00 00 00	 call	 __EH_epilog3_GS
  00144	c2 0c 00	 ret	 12			; 0000000cH
_TEXT	ENDS
;	COMDAT text$x
text$x	SEGMENT
__unwindfunclet$??$GetAnimationEventConstPtrList_e@$06@ioEntityGroup@@QAEHHAAY06$$CBDAAV?$vector@PBUAniEventTime@@V?$allocator@PBUAniEventTime@@@std@@@std@@@Z$0:
  00000	8d 4d d4	 lea	 ecx, DWORD PTR $T537653[ebp]
  00003	ff 25 00 00 00
	00		 jmp	 DWORD PTR __imp_??1ioHashString@@QAE@XZ
__ehhandler$??$GetAnimationEventConstPtrList_e@$06@ioEntityGroup@@QAEHHAAY06$$CBDAAV?$vector@PBUAniEventTime@@V?$allocator@PBUAniEventTime@@@std@@@std@@@Z:
  00009	8b 54 24 08	 mov	 edx, DWORD PTR [esp+8]
  0000d	8d 42 0c	 lea	 eax, DWORD PTR [edx+12]
  00010	8b 4a d0	 mov	 ecx, DWORD PTR [edx-48]
  00013	33 c8		 xor	 ecx, eax
  00015	e8 00 00 00 00	 call	 @__security_check_cookie@4
  0001a	8b 4a fc	 mov	 ecx, DWORD PTR [edx-4]
  0001d	33 c8		 xor	 ecx, eax
  0001f	e8 00 00 00 00	 call	 @__security_check_cookie@4
  00024	b8 00 00 00 00	 mov	 eax, OFFSET __ehfuncinfo$??$GetAnimationEventConstPtrList_e@$06@ioEntityGroup@@QAEHHAAY06$$CBDAAV?$vector@PBUAniEventTime@@V?$allocator@PBUAniEventTime@@@std@@@std@@@Z
  00029	e9 00 00 00 00	 jmp	 ___CxxFrameHandler3
text$x	ENDS
??$GetAnimationEventConstPtrList_e@$06@ioEntityGroup@@QAEHHAAY06$$CBDAAV?$vector@PBUAniEventTime@@V?$allocator@PBUAniEventTime@@@std@@@std@@@Z ENDP ; ioEntityGroup::GetAnimationEventConstPtrList_e<7>
PUBLIC	??$GetAnimationEventTimeList_e@$06@ioEntityGroup@@QAEHHAAY06$$CBDAAV?$list@MV?$allocator@M@std@@@std@@@Z ; ioEntityGroup::GetAnimationEventTimeList_e<7>
EXTRN	__imp_?GetAnimationEventTimeList@ioEntityGroup@@QAEHHABVioHashString@@AAV?$list@MV?$allocator@M@std@@@std@@@Z:PROC
;	COMDAT xdata$x
; File d:\lost saga for developer\youtube\tutorial\source\src\lsclient\stringprotect.h
xdata$x	SEGMENT
__unwindtable$??$GetAnimationEventTimeList_e@$06@ioEntityGroup@@QAEHHAAY06$$CBDAAV?$list@MV?$allocator@M@std@@@std@@@Z DD 0ffffffffH
	DD	FLAT:__unwindfunclet$??$GetAnimationEventTimeList_e@$06@ioEntityGroup@@QAEHHAAY06$$CBDAAV?$list@MV?$allocator@M@std@@@std@@@Z$0
__ehfuncinfo$??$GetAnimationEventTimeList_e@$06@ioEntityGroup@@QAEHHAAY06$$CBDAAV?$list@MV?$allocator@M@std@@@std@@@Z DD 019930522H
	DD	01H
	DD	FLAT:__unwindtable$??$GetAnimationEventTimeList_e@$06@ioEntityGroup@@QAEHHAAY06$$CBDAAV?$list@MV?$allocator@M@std@@@std@@@Z
	DD	2 DUP(00H)
	DD	2 DUP(00H)
	DD	00H
	DD	01H
; Function compile flags: /Ogsp
; File d:\lost saga for developer\youtube\tutorial\source\src\io3dengine\ioentitygroup.h
xdata$x	ENDS
;	COMDAT ??$GetAnimationEventTimeList_e@$06@ioEntityGroup@@QAEHHAAY06$$CBDAAV?$list@MV?$allocator@M@std@@@std@@@Z
_TEXT	SEGMENT
$T537687 = -44						; size = 16
_szEncEventType$ = -28					; size = 7
__$EHRec$ = -12						; size = 12
_id$ = 8						; size = 4
_szEventType$ = 12					; size = 4
_vTimeList$ = 16					; size = 4
??$GetAnimationEventTimeList_e@$06@ioEntityGroup@@QAEHHAAY06$$CBDAAV?$list@MV?$allocator@M@std@@@std@@@Z PROC ; ioEntityGroup::GetAnimationEventTimeList_e<7>, COMDAT
; _this$ = ecx

; 406  : 	{

  00000	6a 20		 push	 32			; 00000020H
  00002	b8 00 00 00 00	 mov	 eax, __ehhandler$??$GetAnimationEventTimeList_e@$06@ioEntityGroup@@QAEHHAAY06$$CBDAAV?$list@MV?$allocator@M@std@@@std@@@Z
  00007	e8 00 00 00 00	 call	 __EH_prolog3_GS
  0000c	8b 45 0c	 mov	 eax, DWORD PTR _szEventType$[ebp]
  0000f	8b 75 10	 mov	 esi, DWORD PTR _vTimeList$[ebp]
  00012	8b f9		 mov	 edi, ecx

; 407  : 		_ENCSTR(szEventType, szEncEventType);

  00014	8a 08		 mov	 cl, BYTE PTR [eax]
  00016	84 c9		 test	 cl, cl
  00018	0f 84 c0 00 00
	00		 je	 $LN96@GetAnimati@2
  0001e	80 f1 ed	 xor	 cl, -19			; ffffffedH
  00021	88 4d e4	 mov	 BYTE PTR _szEncEventType$[ebp], cl
  00024	8a 48 01	 mov	 cl, BYTE PTR [eax+1]
  00027	84 c9		 test	 cl, cl
  00029	0f 84 a9 00 00
	00		 je	 $LN95@GetAnimati@2
  0002f	80 f1 ec	 xor	 cl, -20			; ffffffecH
  00032	88 4d e5	 mov	 BYTE PTR _szEncEventType$[ebp+1], cl
  00035	8a 48 02	 mov	 cl, BYTE PTR [eax+2]
  00038	84 c9		 test	 cl, cl
  0003a	0f 84 92 00 00
	00		 je	 $LN94@GetAnimati@2
  00040	80 f1 eb	 xor	 cl, -21			; ffffffebH
  00043	88 4d e6	 mov	 BYTE PTR _szEncEventType$[ebp+2], cl
  00046	8a 48 03	 mov	 cl, BYTE PTR [eax+3]
  00049	84 c9		 test	 cl, cl
  0004b	74 7f		 je	 SHORT $LN93@GetAnimati@2
  0004d	80 f1 ea	 xor	 cl, -22			; ffffffeaH
  00050	88 4d e7	 mov	 BYTE PTR _szEncEventType$[ebp+3], cl
  00053	8a 48 04	 mov	 cl, BYTE PTR [eax+4]
  00056	84 c9		 test	 cl, cl
  00058	74 6c		 je	 SHORT $LN92@GetAnimati@2
  0005a	80 f1 ed	 xor	 cl, -19			; ffffffedH
  0005d	88 4d e8	 mov	 BYTE PTR _szEncEventType$[ebp+4], cl
  00060	8a 48 05	 mov	 cl, BYTE PTR [eax+5]
  00063	84 c9		 test	 cl, cl
  00065	74 59		 je	 SHORT $LN91@GetAnimati@2
  00067	80 f1 ec	 xor	 cl, -20			; ffffffecH
  0006a	80 78 06 00	 cmp	 BYTE PTR [eax+6], 0
  0006e	88 4d e9	 mov	 BYTE PTR _szEncEventType$[ebp+5], cl
  00071	74 6f		 je	 SHORT $LN1@GetAnimati@2
  00073	8a 48 07	 mov	 cl, BYTE PTR [eax+7]
  00076	84 c9		 test	 cl, cl
  00078	74 40		 je	 SHORT $LN89@GetAnimati@2
  0007a	80 f1 ea	 xor	 cl, -22			; ffffffeaH
  0007d	88 4d eb	 mov	 BYTE PTR _szEncEventType$[ebp+7], cl
  00080	8a 48 08	 mov	 cl, BYTE PTR [eax+8]
  00083	84 c9		 test	 cl, cl
  00085	74 2d		 je	 SHORT $LN88@GetAnimati@2
  00087	80 f1 ed	 xor	 cl, -19			; ffffffedH
  0008a	88 4d ec	 mov	 BYTE PTR _szEncEventType$[ebp+8], cl
  0008d	8a 48 09	 mov	 cl, BYTE PTR [eax+9]
  00090	84 c9		 test	 cl, cl
  00092	74 1a		 je	 SHORT $LN87@GetAnimati@2
  00094	8a 40 0a	 mov	 al, BYTE PTR [eax+10]
  00097	80 f1 ec	 xor	 cl, -20			; ffffffecH
  0009a	88 4d ed	 mov	 BYTE PTR _szEncEventType$[ebp+9], cl
  0009d	84 c0		 test	 al, al
  0009f	74 07		 je	 SHORT $LN86@GetAnimati@2
  000a1	34 eb		 xor	 al, -21			; ffffffebH
  000a3	88 45 ee	 mov	 BYTE PTR _szEncEventType$[ebp+10], al
  000a6	eb 3a		 jmp	 SHORT $LN1@GetAnimati@2
$LN86@GetAnimati@2:
  000a8	c6 45 ee eb	 mov	 BYTE PTR _szEncEventType$[ebp+10], -21 ; ffffffebH
  000ac	eb 34		 jmp	 SHORT $LN1@GetAnimati@2
$LN87@GetAnimati@2:
  000ae	c6 45 ed ec	 mov	 BYTE PTR _szEncEventType$[ebp+9], -20 ; ffffffecH
  000b2	eb 2e		 jmp	 SHORT $LN1@GetAnimati@2
$LN88@GetAnimati@2:
  000b4	c6 45 ec ed	 mov	 BYTE PTR _szEncEventType$[ebp+8], -19 ; ffffffedH
  000b8	eb 28		 jmp	 SHORT $LN1@GetAnimati@2
$LN89@GetAnimati@2:
  000ba	c6 45 eb ea	 mov	 BYTE PTR _szEncEventType$[ebp+7], -22 ; ffffffeaH
  000be	eb 22		 jmp	 SHORT $LN1@GetAnimati@2
$LN91@GetAnimati@2:
  000c0	c6 45 e9 ec	 mov	 BYTE PTR _szEncEventType$[ebp+5], -20 ; ffffffecH
  000c4	eb 1c		 jmp	 SHORT $LN1@GetAnimati@2
$LN92@GetAnimati@2:
  000c6	c6 45 e8 ed	 mov	 BYTE PTR _szEncEventType$[ebp+4], -19 ; ffffffedH
  000ca	eb 16		 jmp	 SHORT $LN1@GetAnimati@2
$LN93@GetAnimati@2:
  000cc	c6 45 e7 ea	 mov	 BYTE PTR _szEncEventType$[ebp+3], -22 ; ffffffeaH
  000d0	eb 10		 jmp	 SHORT $LN1@GetAnimati@2
$LN94@GetAnimati@2:
  000d2	c6 45 e6 eb	 mov	 BYTE PTR _szEncEventType$[ebp+2], -21 ; ffffffebH
  000d6	eb 0a		 jmp	 SHORT $LN1@GetAnimati@2
$LN95@GetAnimati@2:
  000d8	c6 45 e5 ec	 mov	 BYTE PTR _szEncEventType$[ebp+1], -20 ; ffffffecH
  000dc	eb 04		 jmp	 SHORT $LN1@GetAnimati@2
$LN96@GetAnimati@2:
  000de	c6 45 e4 ed	 mov	 BYTE PTR _szEncEventType$[ebp], -19 ; ffffffedH
$LN1@GetAnimati@2:
  000e2	81 75 e4 ed ec
	eb ea		 xor	 DWORD PTR _szEncEventType$[ebp], -353637139 ; eaebecedH
  000e9	6a 04		 push	 4
  000eb	c6 45 ea 00	 mov	 BYTE PTR _szEncEventType$[ebp+6], 0
  000ef	58		 pop	 eax
$LL102@GetAnimati@2:
  000f0	8b c8		 mov	 ecx, eax
  000f2	81 e1 03 00 00
	80		 and	 ecx, -2147483645	; 80000003H
  000f8	79 05		 jns	 SHORT $LN113@GetAnimati@2
  000fa	49		 dec	 ecx
  000fb	83 c9 fc	 or	 ecx, -4			; fffffffcH
  000fe	41		 inc	 ecx
$LN113@GetAnimati@2:
  000ff	b2 ed		 mov	 dl, -19			; ffffffedH
  00101	2a d1		 sub	 dl, cl
  00103	30 54 05 e4	 xor	 BYTE PTR _szEncEventType$[ebp+eax], dl
  00107	40		 inc	 eax
  00108	83 f8 06	 cmp	 eax, 6
  0010b	7c e3		 jl	 SHORT $LL102@GetAnimati@2

; 408  : 		return GetAnimationEventTimeList(id, szEncEventType, vTimeList);

  0010d	8d 45 e4	 lea	 eax, DWORD PTR _szEncEventType$[ebp]
  00110	50		 push	 eax
  00111	8d 4d d4	 lea	 ecx, DWORD PTR $T537687[ebp]
  00114	ff 15 00 00 00
	00		 call	 DWORD PTR __imp_??0ioHashString@@QAE@PBD@Z
  0011a	83 65 fc 00	 and	 DWORD PTR __$EHRec$[ebp+8], 0
  0011e	56		 push	 esi
  0011f	8d 45 d4	 lea	 eax, DWORD PTR $T537687[ebp]
  00122	50		 push	 eax
  00123	ff 75 08	 push	 DWORD PTR _id$[ebp]
  00126	8b cf		 mov	 ecx, edi
  00128	ff 15 00 00 00
	00		 call	 DWORD PTR __imp_?GetAnimationEventTimeList@ioEntityGroup@@QAEHHABVioHashString@@AAV?$list@MV?$allocator@M@std@@@std@@@Z
  0012e	83 4d fc ff	 or	 DWORD PTR __$EHRec$[ebp+8], -1
  00132	8d 4d d4	 lea	 ecx, DWORD PTR $T537687[ebp]
  00135	8b f0		 mov	 esi, eax
  00137	ff 15 00 00 00
	00		 call	 DWORD PTR __imp_??1ioHashString@@QAE@XZ
  0013d	8b c6		 mov	 eax, esi

; 409  : 	}

  0013f	e8 00 00 00 00	 call	 __EH_epilog3_GS
  00144	c2 0c 00	 ret	 12			; 0000000cH
_TEXT	ENDS
;	COMDAT text$x
text$x	SEGMENT
__unwindfunclet$??$GetAnimationEventTimeList_e@$06@ioEntityGroup@@QAEHHAAY06$$CBDAAV?$list@MV?$allocator@M@std@@@std@@@Z$0:
  00000	8d 4d d4	 lea	 ecx, DWORD PTR $T537687[ebp]
  00003	ff 25 00 00 00
	00		 jmp	 DWORD PTR __imp_??1ioHashString@@QAE@XZ
__ehhandler$??$GetAnimationEventTimeList_e@$06@ioEntityGroup@@QAEHHAAY06$$CBDAAV?$list@MV?$allocator@M@std@@@std@@@Z:
  00009	8b 54 24 08	 mov	 edx, DWORD PTR [esp+8]
  0000d	8d 42 0c	 lea	 eax, DWORD PTR [edx+12]
  00010	8b 4a d0	 mov	 ecx, DWORD PTR [edx-48]
  00013	33 c8		 xor	 ecx, eax
  00015	e8 00 00 00 00	 call	 @__security_check_cookie@4
  0001a	8b 4a fc	 mov	 ecx, DWORD PTR [edx-4]
  0001d	33 c8		 xor	 ecx, eax
  0001f	e8 00 00 00 00	 call	 @__security_check_cookie@4
  00024	b8 00 00 00 00	 mov	 eax, OFFSET __ehfuncinfo$??$GetAnimationEventTimeList_e@$06@ioEntityGroup@@QAEHHAAY06$$CBDAAV?$list@MV?$allocator@M@std@@@std@@@Z
  00029	e9 00 00 00 00	 jmp	 ___CxxFrameHandler3
text$x	ENDS
??$GetAnimationEventTimeList_e@$06@ioEntityGroup@@QAEHHAAY06$$CBDAAV?$list@MV?$allocator@M@std@@@std@@@Z ENDP ; ioEntityGroup::GetAnimationEventTimeList_e<7>
PUBLIC	??$_Cons_val@V?$allocator@UExtraAniJump@@@std@@UExtraAniJump@@AAU3@@std@@YAXAAV?$allocator@UExtraAniJump@@@0@PAUExtraAniJump@@AAU2@@Z ; std::_Cons_val<std::allocator<ExtraAniJump>,ExtraAniJump,ExtraAniJump &>
; Function compile flags: /Ogsp
; File c:\program files (x86)\microsoft visual studio 10.0\vc\include\xmemory
;	COMDAT ??$_Cons_val@V?$allocator@UExtraAniJump@@@std@@UExtraAniJump@@AAU3@@std@@YAXAAV?$allocator@UExtraAniJump@@@0@PAUExtraAniJump@@AAU2@@Z
_TEXT	SEGMENT
__Alval$ = 8						; size = 4
__Pdest$ = 12						; size = 4
__Src$ = 16						; size = 4
??$_Cons_val@V?$allocator@UExtraAniJump@@@std@@UExtraAniJump@@AAU3@@std@@YAXAAV?$allocator@UExtraAniJump@@@0@PAUExtraAniJump@@AAU2@@Z PROC ; std::_Cons_val<std::allocator<ExtraAniJump>,ExtraAniJump,ExtraAniJump &>, COMDAT

; 279  : 	{	// construct using allocator

  00000	55		 push	 ebp
  00001	8b ec		 mov	 ebp, esp

; 280  : 	_Alval.construct(_Pdest, _STD forward<_Ty2>(_Src));

  00003	8b 45 0c	 mov	 eax, DWORD PTR __Pdest$[ebp]
  00006	85 c0		 test	 eax, eax
  00008	74 0d		 je	 SHORT $LN7@Cons_val
  0000a	8b 4d 10	 mov	 ecx, DWORD PTR __Src$[ebp]
  0000d	8b 11		 mov	 edx, DWORD PTR [ecx]
  0000f	89 10		 mov	 DWORD PTR [eax], edx
  00011	8b 49 04	 mov	 ecx, DWORD PTR [ecx+4]
  00014	89 48 04	 mov	 DWORD PTR [eax+4], ecx
$LN7@Cons_val:

; 281  : 	}

  00017	5d		 pop	 ebp
  00018	c3		 ret	 0
??$_Cons_val@V?$allocator@UExtraAniJump@@@std@@UExtraAniJump@@AAU3@@std@@YAXAAV?$allocator@UExtraAniJump@@@0@PAUExtraAniJump@@AAU2@@Z ENDP ; std::_Cons_val<std::allocator<ExtraAniJump>,ExtraAniJump,ExtraAniJump &>
_TEXT	ENDS
PUBLIC	??$_Destroy_range@V?$allocator@PBUAniEventTime@@@std@@@std@@YAXPAPBUAniEventTime@@0AAV?$allocator@PBUAniEventTime@@@0@@Z ; std::_Destroy_range<std::allocator<AniEventTime const *> >
; Function compile flags: /Ogsp
;	COMDAT ??$_Destroy_range@V?$allocator@PBUAniEventTime@@@std@@@std@@YAXPAPBUAniEventTime@@0AAV?$allocator@PBUAniEventTime@@@0@@Z
_TEXT	SEGMENT
__First$ = 8						; size = 4
__Last$ = 12						; size = 4
__Al$ = 16						; size = 4
??$_Destroy_range@V?$allocator@PBUAniEventTime@@@std@@@std@@YAXPAPBUAniEventTime@@0AAV?$allocator@PBUAniEventTime@@@0@@Z PROC ; std::_Destroy_range<std::allocator<AniEventTime const *> >, COMDAT

; 88   : 	_Destroy_range(_First, _Last, _Al, _Ptr_cat(_First, _Last));
; 89   : 	}

  00000	c3		 ret	 0
??$_Destroy_range@V?$allocator@PBUAniEventTime@@@std@@@std@@YAXPAPBUAniEventTime@@0AAV?$allocator@PBUAniEventTime@@@0@@Z ENDP ; std::_Destroy_range<std::allocator<AniEventTime const *> >
_TEXT	ENDS
PUBLIC	?construct@?$allocator@UExtraAniJump@@@std@@QAEXPAUExtraAniJump@@ABU3@@Z ; std::allocator<ExtraAniJump>::construct
; Function compile flags: /Ogsp
;	COMDAT ?construct@?$allocator@UExtraAniJump@@@std@@QAEXPAUExtraAniJump@@ABU3@@Z
_TEXT	SEGMENT
__Ptr$ = 8						; size = 4
__Val$ = 12						; size = 4
?construct@?$allocator@UExtraAniJump@@@std@@QAEXPAUExtraAniJump@@ABU3@@Z PROC ; std::allocator<ExtraAniJump>::construct, COMDAT
; _this$ = ecx

; 196  : 		{	// construct object at _Ptr with value _Val

  00000	55		 push	 ebp
  00001	8b ec		 mov	 ebp, esp

; 197  : 		_Construct(_Ptr, _Val);

  00003	8b 45 08	 mov	 eax, DWORD PTR __Ptr$[ebp]
  00006	85 c0		 test	 eax, eax
  00008	74 0d		 je	 SHORT $LN5@construct@3
  0000a	8b 4d 0c	 mov	 ecx, DWORD PTR __Val$[ebp]
  0000d	8b 11		 mov	 edx, DWORD PTR [ecx]
  0000f	89 10		 mov	 DWORD PTR [eax], edx
  00011	8b 49 04	 mov	 ecx, DWORD PTR [ecx+4]
  00014	89 48 04	 mov	 DWORD PTR [eax+4], ecx
$LN5@construct@3:

; 198  : 		}

  00017	5d		 pop	 ebp
  00018	c2 08 00	 ret	 8
?construct@?$allocator@UExtraAniJump@@@std@@QAEXPAUExtraAniJump@@ABU3@@Z ENDP ; std::allocator<ExtraAniJump>::construct
_TEXT	ENDS
PUBLIC	?destroy@?$allocator@U_Node@?$_List_nod@MV?$allocator@M@std@@@std@@@std@@QAEXPAU_Node@?$_List_nod@MV?$allocator@M@std@@@2@@Z ; std::allocator<std::_List_nod<float,std::allocator<float> >::_Node>::destroy
; Function compile flags: /Ogsp
;	COMDAT ?destroy@?$allocator@U_Node@?$_List_nod@MV?$allocator@M@std@@@std@@@std@@QAEXPAU_Node@?$_List_nod@MV?$allocator@M@std@@@2@@Z
_TEXT	SEGMENT
__Ptr$ = 8						; size = 4
?destroy@?$allocator@U_Node@?$_List_nod@MV?$allocator@M@std@@@std@@@std@@QAEXPAU_Node@?$_List_nod@MV?$allocator@M@std@@@2@@Z PROC ; std::allocator<std::_List_nod<float,std::allocator<float> >::_Node>::destroy, COMDAT
; _this$ = ecx

; 213  : 		_Destroy(_Ptr);
; 214  : 		}

  00000	c2 04 00	 ret	 4
?destroy@?$allocator@U_Node@?$_List_nod@MV?$allocator@M@std@@@std@@@std@@QAEXPAU_Node@?$_List_nod@MV?$allocator@M@std@@@2@@Z ENDP ; std::allocator<std::_List_nod<float,std::allocator<float> >::_Node>::destroy
_TEXT	ENDS
PUBLIC	??$_Move@PAUExtraAniJump@@PAU1@@std@@YAPAUExtraAniJump@@PAU1@00U_Nonscalar_ptr_iterator_tag@0@@Z ; std::_Move<ExtraAniJump *,ExtraAniJump *>
; Function compile flags: /Ogsp
; File c:\program files (x86)\microsoft visual studio 10.0\vc\include\xutility
;	COMDAT ??$_Move@PAUExtraAniJump@@PAU1@@std@@YAPAUExtraAniJump@@PAU1@00U_Nonscalar_ptr_iterator_tag@0@@Z
_TEXT	SEGMENT
__First$ = 8						; size = 4
__Last$ = 12						; size = 4
__Dest$ = 16						; size = 4
___formal$ = 20						; size = 1
??$_Move@PAUExtraAniJump@@PAU1@@std@@YAPAUExtraAniJump@@PAU1@00U_Nonscalar_ptr_iterator_tag@0@@Z PROC ; std::_Move<ExtraAniJump *,ExtraAniJump *>, COMDAT

; 2512 : 	{	// move [_First, _Last) to [_Dest, ...), arbitrary iterators

  00000	55		 push	 ebp
  00001	8b ec		 mov	 ebp, esp

; 2513 : 	for (; _First != _Last; ++_Dest, ++_First)

  00003	8b 4d 08	 mov	 ecx, DWORD PTR __First$[ebp]
  00006	8b 45 10	 mov	 eax, DWORD PTR __Dest$[ebp]
$LN11@Move:
  00009	3b 4d 0c	 cmp	 ecx, DWORD PTR __Last$[ebp]
  0000c	74 12		 je	 SHORT $LN1@Move

; 2514 : 		*_Dest = _STD move(*_First);

  0000e	8b 11		 mov	 edx, DWORD PTR [ecx]
  00010	89 10		 mov	 DWORD PTR [eax], edx
  00012	8b 51 04	 mov	 edx, DWORD PTR [ecx+4]
  00015	89 50 04	 mov	 DWORD PTR [eax+4], edx
  00018	83 c0 08	 add	 eax, 8
  0001b	83 c1 08	 add	 ecx, 8
  0001e	eb e9		 jmp	 SHORT $LN11@Move
$LN1@Move:

; 2515 : 	return (_Dest);
; 2516 : 	}

  00020	5d		 pop	 ebp
  00021	c3		 ret	 0
??$_Move@PAUExtraAniJump@@PAU1@@std@@YAPAUExtraAniJump@@PAU1@00U_Nonscalar_ptr_iterator_tag@0@@Z ENDP ; std::_Move<ExtraAniJump *,ExtraAniJump *>
_TEXT	ENDS
PUBLIC	??$_Construct@UFireTime@@ABU1@@std@@YAXPAUFireTime@@ABU1@@Z ; std::_Construct<FireTime,FireTime const &>
;	COMDAT xdata$x
; File c:\program files (x86)\microsoft visual studio 10.0\vc\include\utility
xdata$x	SEGMENT
__unwindtable$??$_Construct@UFireTime@@ABU1@@std@@YAXPAUFireTime@@ABU1@@Z DD 0ffffffffH
	DD	FLAT:__unwindfunclet$??$_Construct@UFireTime@@ABU1@@std@@YAXPAUFireTime@@ABU1@@Z$0
__ehfuncinfo$??$_Construct@UFireTime@@ABU1@@std@@YAXPAUFireTime@@ABU1@@Z DD 019930522H
	DD	01H
	DD	FLAT:__unwindtable$??$_Construct@UFireTime@@ABU1@@std@@YAXPAUFireTime@@ABU1@@Z
	DD	2 DUP(00H)
	DD	2 DUP(00H)
	DD	00H
	DD	01H
; Function compile flags: /Ogsp
; File c:\program files (x86)\microsoft visual studio 10.0\vc\include\xmemory
xdata$x	ENDS
;	COMDAT ??$_Construct@UFireTime@@ABU1@@std@@YAXPAUFireTime@@ABU1@@Z
_TEXT	SEGMENT
$T537794 = -16						; size = 4
__$EHRec$ = -12						; size = 12
__Vptr$ = 8						; size = 4
__Ptr$ = 8						; size = 4
__Val$ = 12						; size = 4
??$_Construct@UFireTime@@ABU1@@std@@YAXPAUFireTime@@ABU1@@Z PROC ; std::_Construct<FireTime,FireTime const &>, COMDAT

; 46   : 	{	// construct object at _Ptr with value _Val

  00000	6a 04		 push	 4
  00002	b8 00 00 00 00	 mov	 eax, __ehhandler$??$_Construct@UFireTime@@ABU1@@std@@YAXPAUFireTime@@ABU1@@Z
  00007	e8 00 00 00 00	 call	 __EH_prolog3

; 47   : 	void _FARQ *_Vptr = _Ptr;

  0000c	8b 4d 08	 mov	 ecx, DWORD PTR __Ptr$[ebp]
  0000f	89 4d 08	 mov	 DWORD PTR __Vptr$[ebp], ecx

; 48   : 	::new (_Vptr) _Ty1(_STD forward<_Ty2>(_Val));

  00012	89 4d f0	 mov	 DWORD PTR $T537794[ebp], ecx
  00015	83 65 fc 00	 and	 DWORD PTR __$EHRec$[ebp+8], 0
  00019	85 c9		 test	 ecx, ecx
  0001b	74 08		 je	 SHORT $LN3@Construct@3
  0001d	ff 75 0c	 push	 DWORD PTR __Val$[ebp]
  00020	e8 00 00 00 00	 call	 ??0FireTime@@QAE@ABU0@@Z
$LN3@Construct@3:

; 49   : 	}

  00025	e8 00 00 00 00	 call	 __EH_epilog3
  0002a	c3		 ret	 0
_TEXT	ENDS
;	COMDAT text$x
text$x	SEGMENT
__unwindfunclet$??$_Construct@UFireTime@@ABU1@@std@@YAXPAUFireTime@@ABU1@@Z$0:
  00000	ff 75 08	 push	 DWORD PTR __Vptr$[ebp]
  00003	ff 75 f0	 push	 DWORD PTR $T537794[ebp]
  00006	e8 00 00 00 00	 call	 ??3@YAXPAX0@Z		; operator delete
  0000b	59		 pop	 ecx
  0000c	59		 pop	 ecx
  0000d	c3		 ret	 0
__ehhandler$??$_Construct@UFireTime@@ABU1@@std@@YAXPAUFireTime@@ABU1@@Z:
  0000e	8b 54 24 08	 mov	 edx, DWORD PTR [esp+8]
  00012	8d 42 0c	 lea	 eax, DWORD PTR [edx+12]
  00015	8b 4a ec	 mov	 ecx, DWORD PTR [edx-20]
  00018	33 c8		 xor	 ecx, eax
  0001a	e8 00 00 00 00	 call	 @__security_check_cookie@4
  0001f	b8 00 00 00 00	 mov	 eax, OFFSET __ehfuncinfo$??$_Construct@UFireTime@@ABU1@@std@@YAXPAUFireTime@@ABU1@@Z
  00024	e9 00 00 00 00	 jmp	 ___CxxFrameHandler3
text$x	ENDS
??$_Construct@UFireTime@@ABU1@@std@@YAXPAUFireTime@@ABU1@@Z ENDP ; std::_Construct<FireTime,FireTime const &>
PUBLIC	??_G_Node@?$_List_nod@UFireTime@@V?$allocator@UFireTime@@@std@@@std@@QAEPAXI@Z ; std::_List_nod<FireTime,std::allocator<FireTime> >::_Node::`scalar deleting destructor'
; Function compile flags: /Ogsp
;	COMDAT ??_G_Node@?$_List_nod@UFireTime@@V?$allocator@UFireTime@@@std@@@std@@QAEPAXI@Z
_TEXT	SEGMENT
___flags$ = 8						; size = 4
??_G_Node@?$_List_nod@UFireTime@@V?$allocator@UFireTime@@@std@@@std@@QAEPAXI@Z PROC ; std::_List_nod<FireTime,std::allocator<FireTime> >::_Node::`scalar deleting destructor', COMDAT
; _this$ = ecx
  00000	55		 push	 ebp
  00001	8b ec		 mov	 ebp, esp
  00003	56		 push	 esi
  00004	8b f1		 mov	 esi, ecx
  00006	8d 4e 08	 lea	 ecx, DWORD PTR [esi+8]
  00009	e8 00 00 00 00	 call	 ??1FireTime@@QAE@XZ
  0000e	f6 45 08 01	 test	 BYTE PTR ___flags$[ebp], 1
  00012	74 07		 je	 SHORT $LN1@scalar@2
  00014	56		 push	 esi
  00015	e8 00 00 00 00	 call	 ??3@YAXPAX@Z		; operator delete
  0001a	59		 pop	 ecx
$LN1@scalar@2:
  0001b	8b c6		 mov	 eax, esi
  0001d	5e		 pop	 esi
  0001e	5d		 pop	 ebp
  0001f	c2 04 00	 ret	 4
??_G_Node@?$_List_nod@UFireTime@@V?$allocator@UFireTime@@@std@@@std@@QAEPAXI@Z ENDP ; std::_List_nod<FireTime,std::allocator<FireTime> >::_Node::`scalar deleting destructor'
_TEXT	ENDS
PUBLIC	?destroy@?$allocator@UExtraAniJump@@@std@@QAEXPAUExtraAniJump@@@Z ; std::allocator<ExtraAniJump>::destroy
; Function compile flags: /Ogsp
;	COMDAT ?destroy@?$allocator@UExtraAniJump@@@std@@QAEXPAUExtraAniJump@@@Z
_TEXT	SEGMENT
__Ptr$ = 8						; size = 4
?destroy@?$allocator@UExtraAniJump@@@std@@QAEXPAUExtraAniJump@@@Z PROC ; std::allocator<ExtraAniJump>::destroy, COMDAT
; _this$ = ecx

; 213  : 		_Destroy(_Ptr);
; 214  : 		}

  00000	c2 04 00	 ret	 4
?destroy@?$allocator@UExtraAniJump@@@std@@QAEXPAUExtraAniJump@@@Z ENDP ; std::allocator<ExtraAniJump>::destroy
_TEXT	ENDS
PUBLIC	?construct@?$allocator@UExtraAniJump@@@std@@QAEXPAUExtraAniJump@@$$QAU3@@Z ; std::allocator<ExtraAniJump>::construct
; Function compile flags: /Ogsp
;	COMDAT ?construct@?$allocator@UExtraAniJump@@@std@@QAEXPAUExtraAniJump@@$$QAU3@@Z
_TEXT	SEGMENT
__Ptr$ = 8						; size = 4
__Val$ = 12						; size = 4
?construct@?$allocator@UExtraAniJump@@@std@@QAEXPAUExtraAniJump@@$$QAU3@@Z PROC ; std::allocator<ExtraAniJump>::construct, COMDAT
; _this$ = ecx

; 201  : 		{	// construct object at _Ptr with value _Val

  00000	55		 push	 ebp
  00001	8b ec		 mov	 ebp, esp

; 202  : 		::new ((void _FARQ *)_Ptr) _Ty(_STD forward<_Ty>(_Val));

  00003	8b 45 08	 mov	 eax, DWORD PTR __Ptr$[ebp]
  00006	85 c0		 test	 eax, eax
  00008	74 0d		 je	 SHORT $LN3@construct@4
  0000a	8b 4d 0c	 mov	 ecx, DWORD PTR __Val$[ebp]
  0000d	8b 11		 mov	 edx, DWORD PTR [ecx]
  0000f	89 10		 mov	 DWORD PTR [eax], edx
  00011	8b 49 04	 mov	 ecx, DWORD PTR [ecx+4]
  00014	89 48 04	 mov	 DWORD PTR [eax+4], ecx
$LN3@construct@4:

; 203  : 		}

  00017	5d		 pop	 ebp
  00018	c2 08 00	 ret	 8
?construct@?$allocator@UExtraAniJump@@@std@@QAEXPAUExtraAniJump@@$$QAU3@@Z ENDP ; std::allocator<ExtraAniJump>::construct
_TEXT	ENDS
PUBLIC	?c_str@?$basic_string@DU?$char_traits@D@std@@V?$allocator@D@2@@std@@QBEPBDXZ ; std::basic_string<char,std::char_traits<char>,std::allocator<char> >::c_str
; Function compile flags: /Ogsp
; File c:\program files (x86)\microsoft visual studio 10.0\vc\include\xstring
;	COMDAT ?c_str@?$basic_string@DU?$char_traits@D@std@@V?$allocator@D@2@@std@@QBEPBDXZ
_TEXT	SEGMENT
?c_str@?$basic_string@DU?$char_traits@D@std@@V?$allocator@D@2@@std@@QBEPBDXZ PROC ; std::basic_string<char,std::char_traits<char>,std::allocator<char> >::c_str, COMDAT
; _this$ = ecx

; 1497 : 		return (_Myptr());

  00000	83 79 14 10	 cmp	 DWORD PTR [ecx+20], 16	; 00000010H
  00004	72 03		 jb	 SHORT $LN5@c_str
  00006	8b 01		 mov	 eax, DWORD PTR [ecx]

; 1498 : 		}

  00008	c3		 ret	 0

; 1497 : 		return (_Myptr());

$LN5@c_str:
  00009	8b c1		 mov	 eax, ecx

; 1498 : 		}

  0000b	c3		 ret	 0
?c_str@?$basic_string@DU?$char_traits@D@std@@V?$allocator@D@2@@std@@QBEPBDXZ ENDP ; std::basic_string<char,std::char_traits<char>,std::allocator<char> >::c_str
_TEXT	ENDS
PUBLIC	??B?$CEncrypt@M@@QAEMXZ				; CEncrypt<float>::operator float
; Function compile flags: /Ogsp
; File d:\lost saga for developer\youtube\tutorial\source\src\lsclient\encryptvalue.h
;	COMDAT ??B?$CEncrypt@M@@QAEMXZ
_TEXT	SEGMENT
_value$ = -4						; size = 4
??B?$CEncrypt@M@@QAEMXZ PROC				; CEncrypt<float>::operator float, COMDAT
; _this$ = ecx

; 134  : 	{

  00000	55		 push	 ebp
  00001	8b ec		 mov	 ebp, esp
  00003	51		 push	 ecx

; 135  : 		type value;
; 136  : 		DecryptValueToPool(&value);

  00004	8d 45 fc	 lea	 eax, DWORD PTR _value$[ebp]
  00007	50		 push	 eax
  00008	e8 00 00 00 00	 call	 ?DecryptValueToPool@?$CEncrypt@M@@QAEXPAM@Z ; CEncrypt<float>::DecryptValueToPool

; 137  : 
; 138  : #ifdef _NOTUSE
; 139  : 		Debug();
; 140  : #endif
; 141  : 		return value;

  0000d	d9 45 fc	 fld	 DWORD PTR _value$[ebp]

; 142  : 	}

  00010	c9		 leave
  00011	c3		 ret	 0
??B?$CEncrypt@M@@QAEMXZ ENDP				; CEncrypt<float>::operator float
_TEXT	ENDS
PUBLIC	??4?$CEncrypt@M@@QAEMM@Z			; CEncrypt<float>::operator=
; Function compile flags: /Ogsp
;	COMDAT ??4?$CEncrypt@M@@QAEMM@Z
_TEXT	SEGMENT
_value$ = 8						; size = 4
_inValue$ = 8						; size = 4
??4?$CEncrypt@M@@QAEMM@Z PROC				; CEncrypt<float>::operator=, COMDAT
; _this$ = ecx

; 1654 : 	{	

  00000	55		 push	 ebp
  00001	8b ec		 mov	 ebp, esp

; 1655 : 		type value = inValue;

  00003	d9 45 08	 fld	 DWORD PTR _inValue$[ebp]

; 1656 : 		EncryptValueToPool((char*)&value);

  00006	8d 45 08	 lea	 eax, DWORD PTR _value$[ebp]
  00009	50		 push	 eax
  0000a	d9 5d 08	 fstp	 DWORD PTR _value$[ebp]
  0000d	e8 00 00 00 00	 call	 ?EncryptValueToPool@?$CEncrypt@M@@AAEXPBD@Z ; CEncrypt<float>::EncryptValueToPool

; 1657 : #ifdef _NOTUSE
; 1658 : 		m_value = inValue;
; 1659 : 		Debug();
; 1660 : #endif
; 1661 : 		return value;

  00012	d9 45 08	 fld	 DWORD PTR _value$[ebp]

; 1662 : 	}

  00015	5d		 pop	 ebp
  00016	c2 04 00	 ret	 4
??4?$CEncrypt@M@@QAEMM@Z ENDP				; CEncrypt<float>::operator=
_TEXT	ENDS
PUBLIC	??Y?$CEncrypt@M@@QAEAAMABM@Z			; CEncrypt<float>::operator+=
; Function compile flags: /Ogsp
;	COMDAT ??Y?$CEncrypt@M@@QAEAAMABM@Z
_TEXT	SEGMENT
_value$ = -4						; size = 4
_inValue$ = 8						; size = 4
??Y?$CEncrypt@M@@QAEAAMABM@Z PROC			; CEncrypt<float>::operator+=, COMDAT
; _this$ = ecx

; 1715 : 	{

  00000	55		 push	 ebp
  00001	8b ec		 mov	 ebp, esp
  00003	51		 push	 ecx
  00004	56		 push	 esi

; 1716 : 		type value;
; 1717 : 		DecryptValueToPool(&value);

  00005	8d 45 fc	 lea	 eax, DWORD PTR _value$[ebp]
  00008	50		 push	 eax
  00009	8b f1		 mov	 esi, ecx
  0000b	e8 00 00 00 00	 call	 ?DecryptValueToPool@?$CEncrypt@M@@QAEXPAM@Z ; CEncrypt<float>::DecryptValueToPool

; 1718 : 		value += inValue;

  00010	8b 45 08	 mov	 eax, DWORD PTR _inValue$[ebp]
  00013	f3 0f 10 00	 movss	 xmm0, DWORD PTR [eax]
  00017	f3 0f 10 4d fc	 movss	 xmm1, DWORD PTR _value$[ebp]
  0001c	0f 5a c0	 cvtps2pd xmm0, xmm0
  0001f	0f 5a c9	 cvtps2pd xmm1, xmm1

; 1719 : 		EncryptValueToPool((char*)&value);

  00022	8d 45 fc	 lea	 eax, DWORD PTR _value$[ebp]
  00025	f2 0f 58 c1	 addsd	 xmm0, xmm1
  00029	66 0f 5a c0	 cvtpd2ps xmm0, xmm0
  0002d	50		 push	 eax
  0002e	8b ce		 mov	 ecx, esi
  00030	f3 0f 11 45 fc	 movss	 DWORD PTR _value$[ebp], xmm0
  00035	e8 00 00 00 00	 call	 ?EncryptValueToPool@?$CEncrypt@M@@AAEXPBD@Z ; CEncrypt<float>::EncryptValueToPool

; 1720 : #ifdef _NOTUSE
; 1721 : 		m_value += inValue;
; 1722 : 		Debug();
; 1723 : #endif
; 1724 : 		return value;

  0003a	8d 45 fc	 lea	 eax, DWORD PTR _value$[ebp]
  0003d	5e		 pop	 esi

; 1725 : 	} 

  0003e	c9		 leave
  0003f	c2 04 00	 ret	 4
??Y?$CEncrypt@M@@QAEAAMABM@Z ENDP			; CEncrypt<float>::operator+=
_TEXT	ENDS
PUBLIC	??O?$CEncrypt@M@@QAE_NABM@Z			; CEncrypt<float>::operator>
; Function compile flags: /Ogsp
;	COMDAT ??O?$CEncrypt@M@@QAE_NABM@Z
_TEXT	SEGMENT
_value$ = -4						; size = 4
_inValue$ = 8						; size = 4
??O?$CEncrypt@M@@QAE_NABM@Z PROC			; CEncrypt<float>::operator>, COMDAT
; _this$ = ecx

; 1811 : 	{

  00000	55		 push	 ebp
  00001	8b ec		 mov	 ebp, esp
  00003	51		 push	 ecx

; 1812 : 		type value;
; 1813 : 		DecryptValueToPool(&value);

  00004	8d 45 fc	 lea	 eax, DWORD PTR _value$[ebp]
  00007	50		 push	 eax
  00008	e8 00 00 00 00	 call	 ?DecryptValueToPool@?$CEncrypt@M@@QAEXPAM@Z ; CEncrypt<float>::DecryptValueToPool

; 1814 : #ifdef _NOTUSE
; 1815 : 		Debug();
; 1816 : #endif
; 1817 : 		return (value > inValue);

  0000d	8b 45 08	 mov	 eax, DWORD PTR _inValue$[ebp]
  00010	f3 0f 10 08	 movss	 xmm1, DWORD PTR [eax]
  00014	f3 0f 10 45 fc	 movss	 xmm0, DWORD PTR _value$[ebp]
  00019	0f 5a c0	 cvtps2pd xmm0, xmm0
  0001c	0f 5a c9	 cvtps2pd xmm1, xmm1
  0001f	33 c0		 xor	 eax, eax
  00021	66 0f 2f c1	 comisd	 xmm0, xmm1
  00025	76 01		 jbe	 SHORT $LN4@operator@3
  00027	40		 inc	 eax
$LN4@operator@3:

; 1818 : 	}		

  00028	c9		 leave
  00029	c2 04 00	 ret	 4
??O?$CEncrypt@M@@QAE_NABM@Z ENDP			; CEncrypt<float>::operator>
_TEXT	ENDS
PUBLIC	??B?$CEncrypt@K@@QAEKXZ				; CEncrypt<unsigned long>::operator unsigned long
; Function compile flags: /Ogsp
;	COMDAT ??B?$CEncrypt@K@@QAEKXZ
_TEXT	SEGMENT
_value$ = -4						; size = 4
??B?$CEncrypt@K@@QAEKXZ PROC				; CEncrypt<unsigned long>::operator unsigned long, COMDAT
; _this$ = ecx

; 134  : 	{

  00000	55		 push	 ebp
  00001	8b ec		 mov	 ebp, esp
  00003	51		 push	 ecx

; 135  : 		type value;
; 136  : 		DecryptValueToPool(&value);

  00004	8d 45 fc	 lea	 eax, DWORD PTR _value$[ebp]
  00007	50		 push	 eax
  00008	e8 00 00 00 00	 call	 ?DecryptValueToPool@?$CEncrypt@K@@QAEXPAK@Z ; CEncrypt<unsigned long>::DecryptValueToPool

; 137  : 
; 138  : #ifdef _NOTUSE
; 139  : 		Debug();
; 140  : #endif
; 141  : 		return value;

  0000d	8b 45 fc	 mov	 eax, DWORD PTR _value$[ebp]

; 142  : 	}

  00010	c9		 leave
  00011	c3		 ret	 0
??B?$CEncrypt@K@@QAEKXZ ENDP				; CEncrypt<unsigned long>::operator unsigned long
_TEXT	ENDS
PUBLIC	??B?$CEncrypt@K@@QBEKXZ				; CEncrypt<unsigned long>::operator unsigned long
; Function compile flags: /Ogsp
;	COMDAT ??B?$CEncrypt@K@@QBEKXZ
_TEXT	SEGMENT
_value$ = -4						; size = 4
??B?$CEncrypt@K@@QBEKXZ PROC				; CEncrypt<unsigned long>::operator unsigned long, COMDAT
; _this$ = ecx

; 145  : 	{

  00000	55		 push	 ebp
  00001	8b ec		 mov	 ebp, esp
  00003	51		 push	 ecx

; 146  : 		//UJ 130829, const    --start
; 147  : 		type value;
; 148  : 		CEncrypt<type>* pThis = const_cast<CEncrypt<type>*>(this);
; 149  : 		pThis->DecryptValueToPool(&value);

  00004	8d 45 fc	 lea	 eax, DWORD PTR _value$[ebp]
  00007	50		 push	 eax
  00008	e8 00 00 00 00	 call	 ?DecryptValueToPool@?$CEncrypt@K@@QAEXPAK@Z ; CEncrypt<unsigned long>::DecryptValueToPool

; 150  : 		//// const DecryptValueToPool     .
; 151  :  		//type value;
; 152  : 		//char szTempMem[MAX_ENCRYPT];
; 153  : 		//m_RC5.DecryptByte( m_MemPool, szTempMem, max(m_ValueSize, DEFAULT_ENCRYPT) );
; 154  : 		//memcpy( &value, szTempMem, m_ValueSize );
; 155  : 		//UJ --end
; 156  : 
; 157  : #ifdef _NOTUSE
; 158  : 		Debug();
; 159  : #endif
; 160  : 		return value;

  0000d	8b 45 fc	 mov	 eax, DWORD PTR _value$[ebp]

; 161  : 	}

  00010	c9		 leave
  00011	c3		 ret	 0
??B?$CEncrypt@K@@QBEKXZ ENDP				; CEncrypt<unsigned long>::operator unsigned long
_TEXT	ENDS
PUBLIC	??4?$CEncrypt@K@@QAEKK@Z			; CEncrypt<unsigned long>::operator=
; Function compile flags: /Ogsp
;	COMDAT ??4?$CEncrypt@K@@QAEKK@Z
_TEXT	SEGMENT
_value$ = 8						; size = 4
_inValue$ = 8						; size = 4
??4?$CEncrypt@K@@QAEKK@Z PROC				; CEncrypt<unsigned long>::operator=, COMDAT
; _this$ = ecx

; 1262 : 	{

  00000	55		 push	 ebp
  00001	8b ec		 mov	 ebp, esp

; 1263 : 		
; 1264 : 		type value = inValue;

  00003	8b 45 08	 mov	 eax, DWORD PTR _inValue$[ebp]
  00006	89 45 08	 mov	 DWORD PTR _value$[ebp], eax

; 1265 : 		EncryptValueToPool((char*)&value);

  00009	8d 45 08	 lea	 eax, DWORD PTR _value$[ebp]
  0000c	50		 push	 eax
  0000d	e8 00 00 00 00	 call	 ?EncryptValueToPool@?$CEncrypt@K@@AAEXPBD@Z ; CEncrypt<unsigned long>::EncryptValueToPool

; 1266 : #ifdef _NOTUSE
; 1267 : 		m_value = inValue;
; 1268 : 		Debug();
; 1269 : #endif
; 1270 : 		return value;

  00012	8b 45 08	 mov	 eax, DWORD PTR _value$[ebp]

; 1271 : 	}

  00015	5d		 pop	 ebp
  00016	c2 04 00	 ret	 4
??4?$CEncrypt@K@@QAEKK@Z ENDP				; CEncrypt<unsigned long>::operator=
_TEXT	ENDS
PUBLIC	??B?$CEncrypt@_N@@QAE_NXZ			; CEncrypt<bool>::operator bool
; Function compile flags: /Ogsp
;	COMDAT ??B?$CEncrypt@_N@@QAE_NXZ
_TEXT	SEGMENT
_value$ = -1						; size = 1
??B?$CEncrypt@_N@@QAE_NXZ PROC				; CEncrypt<bool>::operator bool, COMDAT
; _this$ = ecx

; 134  : 	{

  00000	55		 push	 ebp
  00001	8b ec		 mov	 ebp, esp
  00003	51		 push	 ecx

; 135  : 		type value;
; 136  : 		DecryptValueToPool(&value);

  00004	8d 45 ff	 lea	 eax, DWORD PTR _value$[ebp]
  00007	50		 push	 eax
  00008	e8 00 00 00 00	 call	 ?DecryptValueToPool@?$CEncrypt@_N@@QAEXPA_N@Z ; CEncrypt<bool>::DecryptValueToPool

; 137  : 
; 138  : #ifdef _NOTUSE
; 139  : 		Debug();
; 140  : #endif
; 141  : 		return value;

  0000d	8a 45 ff	 mov	 al, BYTE PTR _value$[ebp]

; 142  : 	}

  00010	c9		 leave
  00011	c3		 ret	 0
??B?$CEncrypt@_N@@QAE_NXZ ENDP				; CEncrypt<bool>::operator bool
_TEXT	ENDS
PUBLIC	??B?$CEncrypt@H@@QAEHXZ				; CEncrypt<int>::operator int
; Function compile flags: /Ogsp
;	COMDAT ??B?$CEncrypt@H@@QAEHXZ
_TEXT	SEGMENT
_value$ = -4						; size = 4
??B?$CEncrypt@H@@QAEHXZ PROC				; CEncrypt<int>::operator int, COMDAT
; _this$ = ecx

; 134  : 	{

  00000	55		 push	 ebp
  00001	8b ec		 mov	 ebp, esp
  00003	51		 push	 ecx

; 135  : 		type value;
; 136  : 		DecryptValueToPool(&value);

  00004	8d 45 fc	 lea	 eax, DWORD PTR _value$[ebp]
  00007	50		 push	 eax
  00008	e8 00 00 00 00	 call	 ?DecryptValueToPool@?$CEncrypt@H@@QAEXPAH@Z ; CEncrypt<int>::DecryptValueToPool

; 137  : 
; 138  : #ifdef _NOTUSE
; 139  : 		Debug();
; 140  : #endif
; 141  : 		return value;

  0000d	8b 45 fc	 mov	 eax, DWORD PTR _value$[ebp]

; 142  : 	}

  00010	c9		 leave
  00011	c3		 ret	 0
??B?$CEncrypt@H@@QAEHXZ ENDP				; CEncrypt<int>::operator int
_TEXT	ENDS
PUBLIC	??B?$CEncrypt@W4TeamType@@@@QBE?AW4TeamType@@XZ	; CEncrypt<enum TeamType>::operator enum TeamType
; Function compile flags: /Ogsp
;	COMDAT ??B?$CEncrypt@W4TeamType@@@@QBE?AW4TeamType@@XZ
_TEXT	SEGMENT
_value$ = -4						; size = 4
??B?$CEncrypt@W4TeamType@@@@QBE?AW4TeamType@@XZ PROC	; CEncrypt<enum TeamType>::operator enum TeamType, COMDAT
; _this$ = ecx

; 145  : 	{

  00000	55		 push	 ebp
  00001	8b ec		 mov	 ebp, esp
  00003	51		 push	 ecx

; 146  : 		//UJ 130829, const    --start
; 147  : 		type value;
; 148  : 		CEncrypt<type>* pThis = const_cast<CEncrypt<type>*>(this);
; 149  : 		pThis->DecryptValueToPool(&value);

  00004	8d 45 fc	 lea	 eax, DWORD PTR _value$[ebp]
  00007	50		 push	 eax
  00008	e8 00 00 00 00	 call	 ?DecryptValueToPool@?$CEncrypt@W4TeamType@@@@QAEXPAW4TeamType@@@Z ; CEncrypt<enum TeamType>::DecryptValueToPool

; 150  : 		//// const DecryptValueToPool     .
; 151  :  		//type value;
; 152  : 		//char szTempMem[MAX_ENCRYPT];
; 153  : 		//m_RC5.DecryptByte( m_MemPool, szTempMem, max(m_ValueSize, DEFAULT_ENCRYPT) );
; 154  : 		//memcpy( &value, szTempMem, m_ValueSize );
; 155  : 		//UJ --end
; 156  : 
; 157  : #ifdef _NOTUSE
; 158  : 		Debug();
; 159  : #endif
; 160  : 		return value;

  0000d	8b 45 fc	 mov	 eax, DWORD PTR _value$[ebp]

; 161  : 	}

  00010	c9		 leave
  00011	c3		 ret	 0
??B?$CEncrypt@W4TeamType@@@@QBE?AW4TeamType@@XZ ENDP	; CEncrypt<enum TeamType>::operator enum TeamType
_TEXT	ENDS
PUBLIC	??0?$_String_val@DV?$allocator@D@std@@@std@@QAE@V?$allocator@D@1@@Z ; std::_String_val<char,std::allocator<char> >::_String_val<char,std::allocator<char> >
; Function compile flags: /Ogsp
; File c:\program files (x86)\microsoft visual studio 10.0\vc\include\xstring
;	COMDAT ??0?$_String_val@DV?$allocator@D@std@@@std@@QAE@V?$allocator@D@1@@Z
_TEXT	SEGMENT
__Al$ = 8						; size = 1
??0?$_String_val@DV?$allocator@D@std@@@std@@QAE@V?$allocator@D@1@@Z PROC ; std::_String_val<char,std::allocator<char> >::_String_val<char,std::allocator<char> >, COMDAT
; _this$ = ecx

; 454  : 		{	// construct allocator from _Al

  00000	8b c1		 mov	 eax, ecx

; 455  : 		}

  00002	c2 04 00	 ret	 4
??0?$_String_val@DV?$allocator@D@std@@@std@@QAE@V?$allocator@D@1@@Z ENDP ; std::_String_val<char,std::allocator<char> >::_String_val<char,std::allocator<char> >
_TEXT	ENDS
PUBLIC	?begin@?$vector@VioHashString@@V?$allocator@VioHashString@@@std@@@std@@QAE?AV?$_Vector_iterator@V?$_Vector_val@VioHashString@@V?$allocator@VioHashString@@@std@@@std@@@2@XZ ; std::vector<ioHashString,std::allocator<ioHashString> >::begin
; Function compile flags: /Ogsp
; File c:\program files (x86)\microsoft visual studio 10.0\vc\include\vector
;	COMDAT ?begin@?$vector@VioHashString@@V?$allocator@VioHashString@@@std@@@std@@QAE?AV?$_Vector_iterator@V?$_Vector_val@VioHashString@@V?$allocator@VioHashString@@@std@@@std@@@2@XZ
_TEXT	SEGMENT
___$ReturnUdt$ = 8					; size = 4
?begin@?$vector@VioHashString@@V?$allocator@VioHashString@@@std@@@std@@QAE?AV?$_Vector_iterator@V?$_Vector_val@VioHashString@@V?$allocator@VioHashString@@@std@@@std@@@2@XZ PROC ; std::vector<ioHashString,std::allocator<ioHashString> >::begin, COMDAT
; _this$ = ecx

; 781  : 		{	// return iterator for beginning of mutable sequence

  00000	55		 push	 ebp
  00001	8b ec		 mov	 ebp, esp

; 782  : 		return (iterator(this->_Myfirst, this));

  00003	8b 09		 mov	 ecx, DWORD PTR [ecx]
  00005	8b 45 08	 mov	 eax, DWORD PTR ___$ReturnUdt$[ebp]
  00008	89 08		 mov	 DWORD PTR [eax], ecx

; 783  : 		}

  0000a	5d		 pop	 ebp
  0000b	c2 04 00	 ret	 4
?begin@?$vector@VioHashString@@V?$allocator@VioHashString@@@std@@@std@@QAE?AV?$_Vector_iterator@V?$_Vector_val@VioHashString@@V?$allocator@VioHashString@@@std@@@std@@@2@XZ ENDP ; std::vector<ioHashString,std::allocator<ioHashString> >::begin
_TEXT	ENDS
PUBLIC	?end@?$vector@VioHashString@@V?$allocator@VioHashString@@@std@@@std@@QAE?AV?$_Vector_iterator@V?$_Vector_val@VioHashString@@V?$allocator@VioHashString@@@std@@@std@@@2@XZ ; std::vector<ioHashString,std::allocator<ioHashString> >::end
; Function compile flags: /Ogsp
;	COMDAT ?end@?$vector@VioHashString@@V?$allocator@VioHashString@@@std@@@std@@QAE?AV?$_Vector_iterator@V?$_Vector_val@VioHashString@@V?$allocator@VioHashString@@@std@@@std@@@2@XZ
_TEXT	SEGMENT
___$ReturnUdt$ = 8					; size = 4
?end@?$vector@VioHashString@@V?$allocator@VioHashString@@@std@@@std@@QAE?AV?$_Vector_iterator@V?$_Vector_val@VioHashString@@V?$allocator@VioHashString@@@std@@@std@@@2@XZ PROC ; std::vector<ioHashString,std::allocator<ioHashString> >::end, COMDAT
; _this$ = ecx

; 791  : 		{	// return iterator for end of mutable sequence

  00000	55		 push	 ebp
  00001	8b ec		 mov	 ebp, esp

; 792  : 		return (iterator(this->_Mylast, this));

  00003	8b 49 04	 mov	 ecx, DWORD PTR [ecx+4]
  00006	8b 45 08	 mov	 eax, DWORD PTR ___$ReturnUdt$[ebp]
  00009	89 08		 mov	 DWORD PTR [eax], ecx

; 793  : 		}

  0000b	5d		 pop	 ebp
  0000c	c2 04 00	 ret	 4
?end@?$vector@VioHashString@@V?$allocator@VioHashString@@@std@@@std@@QAE?AV?$_Vector_iterator@V?$_Vector_val@VioHashString@@V?$allocator@VioHashString@@@std@@@std@@@2@XZ ENDP ; std::vector<ioHashString,std::allocator<ioHashString> >::end
_TEXT	ENDS
PUBLIC	??0?$_Vector_val@KV?$allocator@K@std@@@std@@QAE@V?$allocator@K@1@@Z ; std::_Vector_val<unsigned long,std::allocator<unsigned long> >::_Vector_val<unsigned long,std::allocator<unsigned long> >
; Function compile flags: /Ogsp
;	COMDAT ??0?$_Vector_val@KV?$allocator@K@std@@@std@@QAE@V?$allocator@K@1@@Z
_TEXT	SEGMENT
__Al$ = 8						; size = 1
??0?$_Vector_val@KV?$allocator@K@std@@@std@@QAE@V?$allocator@K@1@@Z PROC ; std::_Vector_val<unsigned long,std::allocator<unsigned long> >::_Vector_val<unsigned long,std::allocator<unsigned long> >, COMDAT
; _this$ = ecx

; 426  : 		{	// construct allocator from _Al

  00000	8b c1		 mov	 eax, ecx

; 427  : 		_Myfirst = 0;

  00002	33 c9		 xor	 ecx, ecx
  00004	89 08		 mov	 DWORD PTR [eax], ecx

; 428  : 		_Mylast = 0;

  00006	89 48 04	 mov	 DWORD PTR [eax+4], ecx

; 429  : 		_Myend = 0;

  00009	89 48 08	 mov	 DWORD PTR [eax+8], ecx

; 430  : 		}

  0000c	c2 04 00	 ret	 4
??0?$_Vector_val@KV?$allocator@K@std@@@std@@QAE@V?$allocator@K@1@@Z ENDP ; std::_Vector_val<unsigned long,std::allocator<unsigned long> >::_Vector_val<unsigned long,std::allocator<unsigned long> >
_TEXT	ENDS
PUBLIC	?_Eos@?$basic_string@DU?$char_traits@D@std@@V?$allocator@D@2@@std@@QAEXI@Z ; std::basic_string<char,std::char_traits<char>,std::allocator<char> >::_Eos
; Function compile flags: /Ogsp
; File c:\program files (x86)\microsoft visual studio 10.0\vc\include\xstring
;	COMDAT ?_Eos@?$basic_string@DU?$char_traits@D@std@@V?$allocator@D@2@@std@@QAEXI@Z
_TEXT	SEGMENT
__Newsize$ = 8						; size = 4
?_Eos@?$basic_string@DU?$char_traits@D@std@@V?$allocator@D@2@@std@@QAEXI@Z PROC ; std::basic_string<char,std::char_traits<char>,std::allocator<char> >::_Eos, COMDAT
; _this$ = ecx

; 1953 : 		{	// set new length and null terminator

  00000	55		 push	 ebp
  00001	8b ec		 mov	 ebp, esp

; 1954 : 		_Traits::assign(_Myptr()[this->_Mysize = _Newsize], _Elem());

  00003	83 79 14 10	 cmp	 DWORD PTR [ecx+20], 16	; 00000010H
  00007	8b 45 08	 mov	 eax, DWORD PTR __Newsize$[ebp]
  0000a	89 41 10	 mov	 DWORD PTR [ecx+16], eax
  0000d	72 02		 jb	 SHORT $LN5@Eos
  0000f	8b 09		 mov	 ecx, DWORD PTR [ecx]
$LN5@Eos:
  00011	c6 04 01 00	 mov	 BYTE PTR [ecx+eax], 0

; 1955 : 		}

  00015	5d		 pop	 ebp
  00016	c2 04 00	 ret	 4
?_Eos@?$basic_string@DU?$char_traits@D@std@@V?$allocator@D@2@@std@@QAEXI@Z ENDP ; std::basic_string<char,std::char_traits<char>,std::allocator<char> >::_Eos
_TEXT	ENDS
PUBLIC	?max_size@?$vector@KV?$allocator@K@std@@@std@@QBEIXZ ; std::vector<unsigned long,std::allocator<unsigned long> >::max_size
; Function compile flags: /Ogsp
; File c:\program files (x86)\microsoft visual studio 10.0\vc\include\vector
;	COMDAT ?max_size@?$vector@KV?$allocator@K@std@@@std@@QBEIXZ
_TEXT	SEGMENT
?max_size@?$vector@KV?$allocator@K@std@@@std@@QBEIXZ PROC ; std::vector<unsigned long,std::allocator<unsigned long> >::max_size, COMDAT
; _this$ = ecx

; 884  : 		return (this->_Alval.max_size());

  00000	b8 ff ff ff 3f	 mov	 eax, 1073741823		; 3fffffffH

; 885  : 		}

  00005	c3		 ret	 0
?max_size@?$vector@KV?$allocator@K@std@@@std@@QBEIXZ ENDP ; std::vector<unsigned long,std::allocator<unsigned long> >::max_size
_TEXT	ENDS
PUBLIC	?_Grow_to@?$vector@KV?$allocator@K@std@@@std@@IBEII@Z ; std::vector<unsigned long,std::allocator<unsigned long> >::_Grow_to
; Function compile flags: /Ogsp
;	COMDAT ?_Grow_to@?$vector@KV?$allocator@K@std@@@std@@IBEII@Z
_TEXT	SEGMENT
__Count$ = 8						; size = 4
?_Grow_to@?$vector@KV?$allocator@K@std@@@std@@IBEII@Z PROC ; std::vector<unsigned long,std::allocator<unsigned long> >::_Grow_to, COMDAT
; _this$ = ecx

; 1274 : 		{	// grow by 50% or at least to _Count

  00000	55		 push	 ebp
  00001	8b ec		 mov	 ebp, esp

; 1275 : 		size_type _Capacity = capacity();

  00003	8b 41 08	 mov	 eax, DWORD PTR [ecx+8]
  00006	2b 01		 sub	 eax, DWORD PTR [ecx]

; 1276 : 
; 1277 : 		_Capacity = max_size() - _Capacity / 2 < _Capacity
; 1278 : 			? 0 : _Capacity + _Capacity / 2;	// try to grow by 50%

  00008	ba ff ff ff 3f	 mov	 edx, 1073741823		; 3fffffffH
  0000d	c1 f8 02	 sar	 eax, 2
  00010	8b c8		 mov	 ecx, eax
  00012	d1 e9		 shr	 ecx, 1
  00014	2b d1		 sub	 edx, ecx
  00016	3b d0		 cmp	 edx, eax
  00018	73 04		 jae	 SHORT $LN4@Grow_to@2
  0001a	33 c0		 xor	 eax, eax
  0001c	eb 02		 jmp	 SHORT $LN5@Grow_to@2
$LN4@Grow_to@2:
  0001e	03 c1		 add	 eax, ecx
$LN5@Grow_to@2:

; 1279 : 		if (_Capacity < _Count)

  00020	3b 45 08	 cmp	 eax, DWORD PTR __Count$[ebp]

; 1280 : 			_Capacity = _Count;

  00023	0f 42 45 08	 cmovb	 eax, DWORD PTR __Count$[ebp]

; 1281 : 		return (_Capacity);
; 1282 : 		}

  00027	5d		 pop	 ebp
  00028	c2 04 00	 ret	 4
?_Grow_to@?$vector@KV?$allocator@K@std@@@std@@IBEII@Z ENDP ; std::vector<unsigned long,std::allocator<unsigned long> >::_Grow_to
_TEXT	ENDS
PUBLIC	??0?$_Vector_iterator@V?$_Vector_val@KV?$allocator@K@std@@@std@@@std@@QAE@PAKPBU_Container_base0@1@@Z ; std::_Vector_iterator<std::_Vector_val<unsigned long,std::allocator<unsigned long> > >::_Vector_iterator<std::_Vector_val<unsigned long,std::allocator<unsigned long> > >
; Function compile flags: /Ogsp
;	COMDAT ??0?$_Vector_iterator@V?$_Vector_val@KV?$allocator@K@std@@@std@@@std@@QAE@PAKPBU_Container_base0@1@@Z
_TEXT	SEGMENT
__Parg$ = 8						; size = 4
__Pvector$ = 12						; size = 4
??0?$_Vector_iterator@V?$_Vector_val@KV?$allocator@K@std@@@std@@@std@@QAE@PAKPBU_Container_base0@1@@Z PROC ; std::_Vector_iterator<std::_Vector_val<unsigned long,std::allocator<unsigned long> > >::_Vector_iterator<std::_Vector_val<unsigned long,std::allocator<unsigned long> > >, COMDAT
; _this$ = ecx

; 304  : 		{	// construct with pointer _Parg

  00000	55		 push	 ebp
  00001	8b ec		 mov	 ebp, esp
  00003	8b c1		 mov	 eax, ecx
  00005	8b 4d 08	 mov	 ecx, DWORD PTR __Parg$[ebp]
  00008	89 08		 mov	 DWORD PTR [eax], ecx

; 305  : 		}

  0000a	5d		 pop	 ebp
  0000b	c2 08 00	 ret	 8
??0?$_Vector_iterator@V?$_Vector_val@KV?$allocator@K@std@@@std@@@std@@QAE@PAKPBU_Container_base0@1@@Z ENDP ; std::_Vector_iterator<std::_Vector_val<unsigned long,std::allocator<unsigned long> > >::_Vector_iterator<std::_Vector_val<unsigned long,std::allocator<unsigned long> > >
_TEXT	ENDS
PUBLIC	?max_size@?$basic_string@DU?$char_traits@D@std@@V?$allocator@D@2@@std@@QBEIXZ ; std::basic_string<char,std::char_traits<char>,std::allocator<char> >::max_size
; Function compile flags: /Ogsp
; File c:\program files (x86)\microsoft visual studio 10.0\vc\include\xstring
;	COMDAT ?max_size@?$basic_string@DU?$char_traits@D@std@@V?$allocator@D@2@@std@@QBEIXZ
_TEXT	SEGMENT
?max_size@?$basic_string@DU?$char_traits@D@std@@V?$allocator@D@2@@std@@QBEIXZ PROC ; std::basic_string<char,std::char_traits<char>,std::allocator<char> >::max_size, COMDAT
; _this$ = ecx

; 1517 : 		size_type _Num = this->_Alval.max_size();
; 1518 : 		return (_Num <= 1 ? 1 : _Num - 1);

  00000	6a fe		 push	 -2			; fffffffeH
  00002	58		 pop	 eax

; 1519 : 		}

  00003	c3		 ret	 0
?max_size@?$basic_string@DU?$char_traits@D@std@@V?$allocator@D@2@@std@@QBEIXZ ENDP ; std::basic_string<char,std::char_traits<char>,std::allocator<char> >::max_size
_TEXT	ENDS
PUBLIC	?allocate@?$allocator@K@std@@QAEPAKI@Z		; std::allocator<unsigned long>::allocate
; Function compile flags: /Ogsp
; File c:\program files (x86)\microsoft visual studio 10.0\vc\include\xmemory
;	COMDAT ?allocate@?$allocator@K@std@@QAEPAKI@Z
_TEXT	SEGMENT
__Count$ = 8						; size = 4
?allocate@?$allocator@K@std@@QAEPAKI@Z PROC		; std::allocator<unsigned long>::allocate, COMDAT
; _this$ = ecx

; 186  : 		{	// allocate array of _Count elements

  00000	55		 push	 ebp
  00001	8b ec		 mov	 ebp, esp

; 187  : 		return (_Allocate(_Count, (pointer)0));

  00003	6a 00		 push	 0
  00005	ff 75 08	 push	 DWORD PTR __Count$[ebp]
  00008	e8 00 00 00 00	 call	 ??$_Allocate@K@std@@YAPAKIPAK@Z ; std::_Allocate<unsigned long>
  0000d	59		 pop	 ecx
  0000e	59		 pop	 ecx

; 188  : 		}

  0000f	5d		 pop	 ebp
  00010	c2 04 00	 ret	 4
?allocate@?$allocator@K@std@@QAEPAKI@Z ENDP		; std::allocator<unsigned long>::allocate
_TEXT	ENDS
PUBLIC	??8?$_Vector_const_iterator@V?$_Vector_val@VioHashString@@V?$allocator@VioHashString@@@std@@@std@@@std@@QBE_NABV01@@Z ; std::_Vector_const_iterator<std::_Vector_val<ioHashString,std::allocator<ioHashString> > >::operator==
; Function compile flags: /Ogsp
; File c:\program files (x86)\microsoft visual studio 10.0\vc\include\vector
;	COMDAT ??8?$_Vector_const_iterator@V?$_Vector_val@VioHashString@@V?$allocator@VioHashString@@@std@@@std@@@std@@QBE_NABV01@@Z
_TEXT	SEGMENT
__Right$ = 8						; size = 4
??8?$_Vector_const_iterator@V?$_Vector_val@VioHashString@@V?$allocator@VioHashString@@@std@@@std@@@std@@QBE_NABV01@@Z PROC ; std::_Vector_const_iterator<std::_Vector_val<ioHashString,std::allocator<ioHashString> > >::operator==, COMDAT
; _this$ = ecx

; 201  : 		{	// test for iterator equality

  00000	55		 push	 ebp
  00001	8b ec		 mov	 ebp, esp

; 202  : 		_Compat(_Right);
; 203  : 		return (this->_Ptr == _Right._Ptr);

  00003	8b 01		 mov	 eax, DWORD PTR [ecx]
  00005	8b 4d 08	 mov	 ecx, DWORD PTR __Right$[ebp]
  00008	2b 01		 sub	 eax, DWORD PTR [ecx]
  0000a	f7 d8		 neg	 eax
  0000c	1b c0		 sbb	 eax, eax
  0000e	40		 inc	 eax

; 204  : 		}

  0000f	5d		 pop	 ebp
  00010	c2 04 00	 ret	 4
??8?$_Vector_const_iterator@V?$_Vector_val@VioHashString@@V?$allocator@VioHashString@@@std@@@std@@@std@@QBE_NABV01@@Z ENDP ; std::_Vector_const_iterator<std::_Vector_val<ioHashString,std::allocator<ioHashString> > >::operator==
_TEXT	ENDS
PUBLIC	??8?$_Vector_const_iterator@V?$_Vector_val@KV?$allocator@K@std@@@std@@@std@@QBE_NABV01@@Z ; std::_Vector_const_iterator<std::_Vector_val<unsigned long,std::allocator<unsigned long> > >::operator==
; Function compile flags: /Ogsp
;	COMDAT ??8?$_Vector_const_iterator@V?$_Vector_val@KV?$allocator@K@std@@@std@@@std@@QBE_NABV01@@Z
_TEXT	SEGMENT
__Right$ = 8						; size = 4
??8?$_Vector_const_iterator@V?$_Vector_val@KV?$allocator@K@std@@@std@@@std@@QBE_NABV01@@Z PROC ; std::_Vector_const_iterator<std::_Vector_val<unsigned long,std::allocator<unsigned long> > >::operator==, COMDAT
; _this$ = ecx

; 201  : 		{	// test for iterator equality

  00000	55		 push	 ebp
  00001	8b ec		 mov	 ebp, esp

; 202  : 		_Compat(_Right);
; 203  : 		return (this->_Ptr == _Right._Ptr);

  00003	8b 01		 mov	 eax, DWORD PTR [ecx]
  00005	8b 4d 08	 mov	 ecx, DWORD PTR __Right$[ebp]
  00008	2b 01		 sub	 eax, DWORD PTR [ecx]
  0000a	f7 d8		 neg	 eax
  0000c	1b c0		 sbb	 eax, eax
  0000e	40		 inc	 eax

; 204  : 		}

  0000f	5d		 pop	 ebp
  00010	c2 04 00	 ret	 4
??8?$_Vector_const_iterator@V?$_Vector_val@KV?$allocator@K@std@@@std@@@std@@QBE_NABV01@@Z ENDP ; std::_Vector_const_iterator<std::_Vector_val<unsigned long,std::allocator<unsigned long> > >::operator==
_TEXT	ENDS
PUBLIC	?allocate@?$allocator@D@std@@QAEPADI@Z		; std::allocator<char>::allocate
; Function compile flags: /Ogsp
; File c:\program files (x86)\microsoft visual studio 10.0\vc\include\xmemory
;	COMDAT ?allocate@?$allocator@D@std@@QAEPADI@Z
_TEXT	SEGMENT
__Count$ = 8						; size = 4
?allocate@?$allocator@D@std@@QAEPADI@Z PROC		; std::allocator<char>::allocate, COMDAT
; _this$ = ecx

; 186  : 		{	// allocate array of _Count elements

  00000	55		 push	 ebp
  00001	8b ec		 mov	 ebp, esp

; 187  : 		return (_Allocate(_Count, (pointer)0));

  00003	6a 00		 push	 0
  00005	ff 75 08	 push	 DWORD PTR __Count$[ebp]
  00008	e8 00 00 00 00	 call	 ??$_Allocate@D@std@@YAPADIPAD@Z ; std::_Allocate<char>
  0000d	59		 pop	 ecx
  0000e	59		 pop	 ecx

; 188  : 		}

  0000f	5d		 pop	 ebp
  00010	c2 04 00	 ret	 4
?allocate@?$allocator@D@std@@QAEPADI@Z ENDP		; std::allocator<char>::allocate
_TEXT	ENDS
PUBLIC	??$_Cons_val@V?$allocator@K@std@@KAAK@std@@YAXAAV?$allocator@K@0@PAKAAK@Z ; std::_Cons_val<std::allocator<unsigned long>,unsigned long,unsigned long &>
; Function compile flags: /Ogsp
;	COMDAT ??$_Cons_val@V?$allocator@K@std@@KAAK@std@@YAXAAV?$allocator@K@0@PAKAAK@Z
_TEXT	SEGMENT
__Alval$ = 8						; size = 4
__Pdest$ = 12						; size = 4
__Src$ = 16						; size = 4
??$_Cons_val@V?$allocator@K@std@@KAAK@std@@YAXAAV?$allocator@K@0@PAKAAK@Z PROC ; std::_Cons_val<std::allocator<unsigned long>,unsigned long,unsigned long &>, COMDAT

; 279  : 	{	// construct using allocator

  00000	55		 push	 ebp
  00001	8b ec		 mov	 ebp, esp

; 280  : 	_Alval.construct(_Pdest, _STD forward<_Ty2>(_Src));

  00003	8b 45 0c	 mov	 eax, DWORD PTR __Pdest$[ebp]
  00006	85 c0		 test	 eax, eax
  00008	74 07		 je	 SHORT $LN7@Cons_val@2
  0000a	8b 4d 10	 mov	 ecx, DWORD PTR __Src$[ebp]
  0000d	8b 09		 mov	 ecx, DWORD PTR [ecx]
  0000f	89 08		 mov	 DWORD PTR [eax], ecx
$LN7@Cons_val@2:

; 281  : 	}

  00011	5d		 pop	 ebp
  00012	c3		 ret	 0
??$_Cons_val@V?$allocator@K@std@@KAAK@std@@YAXAAV?$allocator@K@0@PAKAAK@Z ENDP ; std::_Cons_val<std::allocator<unsigned long>,unsigned long,unsigned long &>
_TEXT	ENDS
PUBLIC	??$_Move@PAKPAK@std@@YAPAKPAK00@Z		; std::_Move<unsigned long *,unsigned long *>
; Function compile flags: /Ogsp
; File c:\program files (x86)\microsoft visual studio 10.0\vc\include\xutility
;	COMDAT ??$_Move@PAKPAK@std@@YAPAKPAK00@Z
_TEXT	SEGMENT
__Cat$538031 = -4					; size = 1
__First$ = 8						; size = 4
__Last$ = 12						; size = 4
__Dest$ = 16						; size = 4
??$_Move@PAKPAK@std@@YAPAKPAK00@Z PROC			; std::_Move<unsigned long *,unsigned long *>, COMDAT

; 2533 : 	{	// move [_First, _Last) to [_Dest, ...), unchecked

  00000	55		 push	 ebp
  00001	8b ec		 mov	 ebp, esp
  00003	51		 push	 ecx

; 2534 : 	return (_Move(_First, _Last,
; 2535 : 		_Dest, _Ptr_cat(_First, _Dest)));

  00004	ff 75 fc	 push	 DWORD PTR __Cat$538031[ebp]
  00007	ff 75 10	 push	 DWORD PTR __Dest$[ebp]
  0000a	ff 75 0c	 push	 DWORD PTR __Last$[ebp]
  0000d	ff 75 08	 push	 DWORD PTR __First$[ebp]
  00010	e8 00 00 00 00	 call	 ??$_Move@PAKPAK@std@@YAPAKPAK00U_Scalar_ptr_iterator_tag@0@@Z ; std::_Move<unsigned long *,unsigned long *>
  00015	83 c4 10	 add	 esp, 16			; 00000010H

; 2536 : 	}

  00018	c9		 leave
  00019	c3		 ret	 0
??$_Move@PAKPAK@std@@YAPAKPAK00@Z ENDP			; std::_Move<unsigned long *,unsigned long *>
_TEXT	ENDS
PUBLIC	??$_Destroy_range@V?$allocator@K@std@@@std@@YAXPAK0AAV?$allocator@K@0@@Z ; std::_Destroy_range<std::allocator<unsigned long> >
; Function compile flags: /Ogsp
; File c:\program files (x86)\microsoft visual studio 10.0\vc\include\xmemory
;	COMDAT ??$_Destroy_range@V?$allocator@K@std@@@std@@YAXPAK0AAV?$allocator@K@0@@Z
_TEXT	SEGMENT
__First$ = 8						; size = 4
__Last$ = 12						; size = 4
__Al$ = 16						; size = 4
??$_Destroy_range@V?$allocator@K@std@@@std@@YAXPAK0AAV?$allocator@K@0@@Z PROC ; std::_Destroy_range<std::allocator<unsigned long> >, COMDAT

; 88   : 	_Destroy_range(_First, _Last, _Al, _Ptr_cat(_First, _Last));
; 89   : 	}

  00000	c3		 ret	 0
??$_Destroy_range@V?$allocator@K@std@@@std@@YAXPAK0AAV?$allocator@K@0@@Z ENDP ; std::_Destroy_range<std::allocator<unsigned long> >
_TEXT	ENDS
PUBLIC	?construct@?$allocator@K@std@@QAEXPAKABK@Z	; std::allocator<unsigned long>::construct
; Function compile flags: /Ogsp
;	COMDAT ?construct@?$allocator@K@std@@QAEXPAKABK@Z
_TEXT	SEGMENT
__Ptr$ = 8						; size = 4
__Val$ = 12						; size = 4
?construct@?$allocator@K@std@@QAEXPAKABK@Z PROC		; std::allocator<unsigned long>::construct, COMDAT
; _this$ = ecx

; 196  : 		{	// construct object at _Ptr with value _Val

  00000	55		 push	 ebp
  00001	8b ec		 mov	 ebp, esp

; 197  : 		_Construct(_Ptr, _Val);

  00003	8b 45 08	 mov	 eax, DWORD PTR __Ptr$[ebp]
  00006	85 c0		 test	 eax, eax
  00008	74 07		 je	 SHORT $LN5@construct@5
  0000a	8b 4d 0c	 mov	 ecx, DWORD PTR __Val$[ebp]
  0000d	8b 09		 mov	 ecx, DWORD PTR [ecx]
  0000f	89 08		 mov	 DWORD PTR [eax], ecx
$LN5@construct@5:

; 198  : 		}

  00011	5d		 pop	 ebp
  00012	c2 08 00	 ret	 8
?construct@?$allocator@K@std@@QAEXPAKABK@Z ENDP		; std::allocator<unsigned long>::construct
_TEXT	ENDS
PUBLIC	??$_Uninitialized_move@PAKPAKV?$allocator@K@std@@@std@@YAPAKPAK00AAV?$allocator@K@0@@Z ; std::_Uninitialized_move<unsigned long *,unsigned long *,std::allocator<unsigned long> >
; Function compile flags: /Ogsp
; File c:\program files (x86)\microsoft visual studio 10.0\vc\include\memory
;	COMDAT ??$_Uninitialized_move@PAKPAKV?$allocator@K@std@@@std@@YAPAKPAK00AAV?$allocator@K@0@@Z
_TEXT	SEGMENT
__First$ = 8						; size = 4
__Last$ = 12						; size = 4
__Dest$ = 16						; size = 4
__Al$ = 20						; size = 4
??$_Uninitialized_move@PAKPAKV?$allocator@K@std@@@std@@YAPAKPAK00AAV?$allocator@K@0@@Z PROC ; std::_Uninitialized_move<unsigned long *,unsigned long *,std::allocator<unsigned long> >, COMDAT

; 469  : 	{	// move [_First, _Last) to raw _Dest, using _Al

  00000	55		 push	 ebp
  00001	8b ec		 mov	 ebp, esp
  00003	56		 push	 esi

; 470  : 	return (_Uninit_move(_First, _Last, _Dest, _Al,
; 471  : 		_Val_type(_First), _Ptr_cat(_First, _Dest)));

  00004	8b 75 0c	 mov	 esi, DWORD PTR __Last$[ebp]
  00007	2b 75 08	 sub	 esi, DWORD PTR __First$[ebp]
  0000a	c1 fe 02	 sar	 esi, 2
  0000d	c1 e6 02	 shl	 esi, 2
  00010	56		 push	 esi
  00011	ff 75 08	 push	 DWORD PTR __First$[ebp]
  00014	ff 75 10	 push	 DWORD PTR __Dest$[ebp]
  00017	ff 15 00 00 00
	00		 call	 DWORD PTR __imp__memmove
  0001d	83 c4 0c	 add	 esp, 12			; 0000000cH
  00020	03 c6		 add	 eax, esi
  00022	5e		 pop	 esi

; 472  : 	}

  00023	5d		 pop	 ebp
  00024	c3		 ret	 0
??$_Uninitialized_move@PAKPAKV?$allocator@K@std@@@std@@YAPAKPAK00AAV?$allocator@K@0@@Z ENDP ; std::_Uninitialized_move<unsigned long *,unsigned long *,std::allocator<unsigned long> >
_TEXT	ENDS
PUBLIC	?GetExperienceMode@ioBaseChar@@QBE?BKXZ		; ioBaseChar::GetExperienceMode
; Function compile flags: /Ogsp
; File d:\lost saga for developer\youtube\tutorial\source\src\lsclient\iobasechar.h
;	COMDAT ?GetExperienceMode@ioBaseChar@@QBE?BKXZ
_TEXT	SEGMENT
_value$538086 = -4					; size = 4
?GetExperienceMode@ioBaseChar@@QBE?BKXZ PROC		; ioBaseChar::GetExperienceMode, COMDAT
; _this$ = ecx

; 3193 : 	inline const DWORD GetExperienceMode() const { return m_ExperienceMode; }

  00000	55		 push	 ebp
  00001	8b ec		 mov	 ebp, esp
  00003	51		 push	 ecx
  00004	8d 45 fc	 lea	 eax, DWORD PTR _value$538086[ebp]
  00007	50		 push	 eax
  00008	81 c1 94 1d 00
	00		 add	 ecx, 7572		; 00001d94H
  0000e	e8 00 00 00 00	 call	 ?DecryptValueToPool@?$CEncrypt@K@@QAEXPAK@Z ; CEncrypt<unsigned long>::DecryptValueToPool
  00013	8b 45 fc	 mov	 eax, DWORD PTR _value$538086[ebp]
  00016	c9		 leave
  00017	c3		 ret	 0
?GetExperienceMode@ioBaseChar@@QBE?BKXZ ENDP		; ioBaseChar::GetExperienceMode
_TEXT	ENDS
PUBLIC	??_C@_00CNPNBAHC@?$AA@				; `string'
PUBLIC	__$ArrayPad$
PUBLIC	?LoadProperty@ioTargetTrace16Dummy@@UAEXAAVioINILoader@@@Z ; ioTargetTrace16Dummy::LoadProperty
EXTRN	__imp_??4ioHashString@@QAEAAV0@PBD@Z:PROC
EXTRN	?LoadProperty@ioDummyChar@@UAEXAAVioINILoader@@@Z:PROC ; ioDummyChar::LoadProperty
EXTRN	_memset:PROC
;	COMDAT ??_C@_00CNPNBAHC@?$AA@
; File d:\lost saga for developer\youtube\tutorial\source\src\lsclient\stringprotect.h
CONST	SEGMENT
??_C@_00CNPNBAHC@?$AA@ DB 00H				; `string'
; Function compile flags: /Ogsp
; File d:\lost saga for developer\youtube\tutorial\source\src\lsclient\iotargettrace16dummy.cpp
CONST	ENDS
;	COMDAT ?LoadProperty@ioTargetTrace16Dummy@@UAEXAAVioINILoader@@@Z
_TEXT	SEGMENT
_szBuf$ = -288						; size = 260
__k$539106 = -28					; size = 17
__k$538999 = -28					; size = 16
__k$538869 = -28					; size = 18
__k$538744 = -28					; size = 16
__k$538606 = -28					; size = 17
__k$538481 = -28					; size = 18
__k$538356 = -28					; size = 19
__k$538231 = -24					; size = 15
__k$538205 = -20					; size = 11
__$ArrayPad$ = -4					; size = 4
_rkLoader$ = 8						; size = 4
?LoadProperty@ioTargetTrace16Dummy@@UAEXAAVioINILoader@@@Z PROC ; ioTargetTrace16Dummy::LoadProperty, COMDAT
; _this$ = ecx

; 23   : {

  00000	55		 push	 ebp
  00001	8b ec		 mov	 ebp, esp
  00003	81 ec 20 01 00
	00		 sub	 esp, 288		; 00000120H
  00009	a1 00 00 00 00	 mov	 eax, DWORD PTR ___security_cookie
  0000e	33 c5		 xor	 eax, ebp
  00010	89 45 fc	 mov	 DWORD PTR __$ArrayPad$[ebp], eax
  00013	53		 push	 ebx
  00014	56		 push	 esi
  00015	57		 push	 edi
  00016	8b 7d 08	 mov	 edi, DWORD PTR _rkLoader$[ebp]

; 24   : 	char szBuf[MAX_PATH] = "";

  00019	33 db		 xor	 ebx, ebx
  0001b	68 03 01 00 00	 push	 259			; 00000103H
  00020	8d 85 e1 fe ff
	ff		 lea	 eax, DWORD PTR _szBuf$[ebp+1]
  00026	53		 push	 ebx
  00027	50		 push	 eax
  00028	8b f1		 mov	 esi, ecx
  0002a	88 9d e0 fe ff
	ff		 mov	 BYTE PTR _szBuf$[ebp], bl
  00030	e8 00 00 00 00	 call	 _memset
  00035	83 c4 0c	 add	 esp, 12			; 0000000cH

; 25   : 	ioDummyChar::LoadProperty( rkLoader );

  00038	57		 push	 edi
  00039	8b ce		 mov	 ecx, esi
  0003b	e8 00 00 00 00	 call	 ?LoadProperty@ioDummyChar@@UAEXAAVioINILoader@@@Z ; ioDummyChar::LoadProperty

; 26   : 
; 27   : 	m_fJumpPower = rkLoader.LoadFloat_e( "jump_power", 0.0f );

  00040	6a 02		 push	 2
  00042	c7 45 ec 87 99
	86 9a		 mov	 DWORD PTR __k$538205[ebp], -1702454905 ; 9a869987H
  00049	c7 45 f0 b2 9c
	84 9d		 mov	 DWORD PTR __k$538205[ebp+4], -1652253518 ; 9d849cb2H
  00050	66 c7 45 f4 88
	9e		 mov	 WORD PTR __k$538205[ebp+8], 40584 ; 00009e88H
  00056	8d 45 ec	 lea	 eax, DWORD PTR __k$538205[ebp]
  00059	88 5d f6	 mov	 BYTE PTR __k$538205[ebp+10], bl
  0005c	59		 pop	 ecx
$LL106@LoadProper:
  0005d	81 30 ed ec eb
	ea		 xor	 DWORD PTR [eax], -353637139 ; eaebecedH
  00063	83 c0 04	 add	 eax, 4
  00066	49		 dec	 ecx
  00067	75 f4		 jne	 SHORT $LL106@LoadProper
  00069	6a 08		 push	 8
  0006b	58		 pop	 eax
$LL103@LoadProper:
  0006c	8b c8		 mov	 ecx, eax
  0006e	81 e1 03 00 00
	80		 and	 ecx, -2147483645	; 80000003H
  00074	79 05		 jns	 SHORT $LN993@LoadProper
  00076	49		 dec	 ecx
  00077	83 c9 fc	 or	 ecx, -4			; fffffffcH
  0007a	41		 inc	 ecx
$LN993@LoadProper:
  0007b	b2 ed		 mov	 dl, -19			; ffffffedH
  0007d	2a d1		 sub	 dl, cl
  0007f	30 54 05 ec	 xor	 BYTE PTR __k$538205[ebp+eax], dl
  00083	40		 inc	 eax
  00084	83 f8 0a	 cmp	 eax, 10			; 0000000aH
  00087	7c e3		 jl	 SHORT $LL103@LoadProper
  00089	0f 57 c0	 xorps	 xmm0, xmm0
  0008c	51		 push	 ecx
  0008d	8d 45 ec	 lea	 eax, DWORD PTR __k$538205[ebp]
  00090	f3 0f 11 04 24	 movss	 DWORD PTR [esp], xmm0
  00095	50		 push	 eax
  00096	8b cf		 mov	 ecx, edi
  00098	ff 15 00 00 00
	00		 call	 DWORD PTR __imp_?LoadFloat@ioINILoader@@QAEMPBDM@Z
  0009e	d9 9e 84 14 00
	00		 fstp	 DWORD PTR [esi+5252]
  000a4	6a 03		 push	 3

; 28   : 
; 29   : 	m_iLandingAttackCode = rkLoader.LoadInt_e( "landing_attack", 0 );

  000a6	c7 45 e8 81 8d
	85 8e		 mov	 DWORD PTR __k$538231[ebp], -1903850111 ; 8e858d81H
  000ad	c7 45 ec 84 82
	8c b5		 mov	 DWORD PTR __k$538231[ebp+4], -1249082748 ; b58c8284H
  000b4	c7 45 f0 8c 98
	9f 8b		 mov	 DWORD PTR __k$538231[ebp+8], -1952474996 ; 8b9f988cH
  000bb	66 c7 45 f4 8e
	87		 mov	 WORD PTR __k$538231[ebp+12], 34702 ; 0000878eH
  000c1	8d 45 e8	 lea	 eax, DWORD PTR __k$538231[ebp]
  000c4	88 5d f6	 mov	 BYTE PTR __k$538231[ebp+14], bl
  000c7	59		 pop	 ecx
$LL212@LoadProper:
  000c8	81 30 ed ec eb
	ea		 xor	 DWORD PTR [eax], -353637139 ; eaebecedH
  000ce	83 c0 04	 add	 eax, 4
  000d1	49		 dec	 ecx
  000d2	75 f4		 jne	 SHORT $LL212@LoadProper
  000d4	6a 0c		 push	 12			; 0000000cH
  000d6	58		 pop	 eax
$LL209@LoadProper:
  000d7	8b c8		 mov	 ecx, eax
  000d9	81 e1 03 00 00
	80		 and	 ecx, -2147483645	; 80000003H
  000df	79 05		 jns	 SHORT $LN994@LoadProper
  000e1	49		 dec	 ecx
  000e2	83 c9 fc	 or	 ecx, -4			; fffffffcH
  000e5	41		 inc	 ecx
$LN994@LoadProper:
  000e6	b2 ed		 mov	 dl, -19			; ffffffedH
  000e8	2a d1		 sub	 dl, cl
  000ea	30 54 05 e8	 xor	 BYTE PTR __k$538231[ebp+eax], dl
  000ee	40		 inc	 eax
  000ef	83 f8 0e	 cmp	 eax, 14			; 0000000eH
  000f2	7c e3		 jl	 SHORT $LL209@LoadProper
  000f4	53		 push	 ebx
  000f5	8d 45 e8	 lea	 eax, DWORD PTR __k$538231[ebp]
  000f8	50		 push	 eax
  000f9	8b cf		 mov	 ecx, edi
  000fb	ff 15 00 00 00
	00		 call	 DWORD PTR __imp_?LoadInt@ioINILoader@@QAEHPBDH@Z
  00101	6a 04		 push	 4
  00103	89 86 88 14 00
	00		 mov	 DWORD PTR [esi+5256], eax

; 30   : 
; 31   : 	rkLoader.LoadString_e( "jumpping_animation", "", szBuf, MAX_PATH );

  00109	c7 45 e4 87 99
	86 9a		 mov	 DWORD PTR __k$538356[ebp], -1702454905 ; 9a869987H
  00110	c7 45 e8 9d 85
	85 8d		 mov	 DWORD PTR __k$538356[ebp+4], -1920629347 ; 8d85859dH
  00117	c7 45 ec b2 8d
	85 83		 mov	 DWORD PTR __k$538356[ebp+8], -2088399438 ; 83858db2H
  0011e	c7 45 f0 80 8d
	9f 83		 mov	 DWORD PTR __k$538356[ebp+12], -2086695552 ; 839f8d80H
  00125	66 c7 45 f4 82
	82		 mov	 WORD PTR __k$538356[ebp+16], 33410 ; 00008282H
  0012b	8d 45 e4	 lea	 eax, DWORD PTR __k$538356[ebp]
  0012e	88 5d f6	 mov	 BYTE PTR __k$538356[ebp+18], bl
  00131	59		 pop	 ecx
$LL318@LoadProper:
  00132	81 30 ed ec eb
	ea		 xor	 DWORD PTR [eax], -353637139 ; eaebecedH
  00138	83 c0 04	 add	 eax, 4
  0013b	49		 dec	 ecx
  0013c	75 f4		 jne	 SHORT $LL318@LoadProper
  0013e	6a 10		 push	 16			; 00000010H
  00140	58		 pop	 eax
$LL315@LoadProper:
  00141	8b c8		 mov	 ecx, eax
  00143	81 e1 03 00 00
	80		 and	 ecx, -2147483645	; 80000003H
  00149	79 05		 jns	 SHORT $LN995@LoadProper
  0014b	49		 dec	 ecx
  0014c	83 c9 fc	 or	 ecx, -4			; fffffffcH
  0014f	41		 inc	 ecx
$LN995@LoadProper:
  00150	b2 ed		 mov	 dl, -19			; ffffffedH
  00152	2a d1		 sub	 dl, cl
  00154	30 54 05 e4	 xor	 BYTE PTR __k$538356[ebp+eax], dl
  00158	40		 inc	 eax
  00159	83 f8 12	 cmp	 eax, 18			; 00000012H
  0015c	7c e3		 jl	 SHORT $LL315@LoadProper
  0015e	68 04 01 00 00	 push	 260			; 00000104H
  00163	8d 85 e0 fe ff
	ff		 lea	 eax, DWORD PTR _szBuf$[ebp]
  00169	50		 push	 eax
  0016a	68 00 00 00 00	 push	 OFFSET ??_C@_00CNPNBAHC@?$AA@
  0016f	8d 45 e4	 lea	 eax, DWORD PTR __k$538356[ebp]
  00172	50		 push	 eax
  00173	8b cf		 mov	 ecx, edi
  00175	ff 15 00 00 00
	00		 call	 DWORD PTR __imp_?LoadStringA@ioINILoader@@QAEXPBD0PADH@Z

; 32   : 	m_szJumppingAnimation = szBuf;

  0017b	8d 85 e0 fe ff
	ff		 lea	 eax, DWORD PTR _szBuf$[ebp]
  00181	50		 push	 eax
  00182	8d 8e 94 14 00
	00		 lea	 ecx, DWORD PTR [esi+5268]
  00188	ff 15 00 00 00
	00		 call	 DWORD PTR __imp_??4ioHashString@@QAEAAV0@PBD@Z
  0018e	6a 04		 push	 4

; 33   : 	m_fJumppingAniRate = rkLoader.LoadFloat_e( "jumpping_ani_rate", 1.0f );

  00190	c7 45 e4 87 99
	86 9a		 mov	 DWORD PTR __k$538481[ebp], -1702454905 ; 9a869987H
  00197	c7 45 e8 9d 85
	85 8d		 mov	 DWORD PTR __k$538481[ebp+4], -1920629347 ; 8d85859dH
  0019e	c7 45 ec b2 8d
	85 83		 mov	 DWORD PTR __k$538481[ebp+8], -2088399438 ; 83858db2H
  001a5	c7 45 f0 b2 9e
	8a 9e		 mov	 DWORD PTR __k$538481[ebp+12], -1635082574 ; 9e8a9eb2H
  001ac	8d 45 e4	 lea	 eax, DWORD PTR __k$538481[ebp]
  001af	66 c7 45 f4 88
	00		 mov	 WORD PTR __k$538481[ebp+16], 136 ; 00000088H
  001b5	59		 pop	 ecx
$LL424@LoadProper:
  001b6	81 30 ed ec eb
	ea		 xor	 DWORD PTR [eax], -353637139 ; eaebecedH
  001bc	83 c0 04	 add	 eax, 4
  001bf	49		 dec	 ecx
  001c0	75 f4		 jne	 SHORT $LL424@LoadProper
  001c2	f3 0f 10 05 00
	00 00 00	 movss	 xmm0, DWORD PTR __real@3f800000
  001ca	80 75 f4 ed	 xor	 BYTE PTR __k$538481[ebp+16], -19 ; ffffffedH
  001ce	51		 push	 ecx
  001cf	8d 45 e4	 lea	 eax, DWORD PTR __k$538481[ebp]
  001d2	f3 0f 11 04 24	 movss	 DWORD PTR [esp], xmm0
  001d7	50		 push	 eax
  001d8	8b cf		 mov	 ecx, edi
  001da	ff 15 00 00 00
	00		 call	 DWORD PTR __imp_?LoadFloat@ioINILoader@@QAEMPBDM@Z
  001e0	d9 9e a4 14 00
	00		 fstp	 DWORD PTR [esi+5284]
  001e6	6a 04		 push	 4

; 34   : 
; 35   : 	rkLoader.LoadString_e( "return_animation", "", szBuf, MAX_PATH );

  001e8	c7 45 e4 9f 89
	9f 9f		 mov	 DWORD PTR __k$538606[ebp], -1616934497 ; 9f9f899fH
  001ef	c7 45 e8 9f 82
	b4 8b		 mov	 DWORD PTR __k$538606[ebp+4], -1951104353 ; 8bb4829fH
  001f6	c7 45 ec 83 85
	86 8b		 mov	 DWORD PTR __k$538606[ebp+8], -1954118269 ; 8b868583H
  001fd	c7 45 f0 99 85
	84 84		 mov	 DWORD PTR __k$538606[ebp+12], -2071689831 ; 84848599H
  00204	8d 45 e4	 lea	 eax, DWORD PTR __k$538606[ebp]
  00207	88 5d f4	 mov	 BYTE PTR __k$538606[ebp+16], bl
  0020a	59		 pop	 ecx
$LL530@LoadProper:
  0020b	81 30 ed ec eb
	ea		 xor	 DWORD PTR [eax], -353637139 ; eaebecedH
  00211	83 c0 04	 add	 eax, 4
  00214	49		 dec	 ecx
  00215	75 f4		 jne	 SHORT $LL530@LoadProper
  00217	68 04 01 00 00	 push	 260			; 00000104H
  0021c	8d 85 e0 fe ff
	ff		 lea	 eax, DWORD PTR _szBuf$[ebp]
  00222	50		 push	 eax
  00223	68 00 00 00 00	 push	 OFFSET ??_C@_00CNPNBAHC@?$AA@
  00228	8d 45 e4	 lea	 eax, DWORD PTR __k$538606[ebp]
  0022b	50		 push	 eax
  0022c	8b cf		 mov	 ecx, edi
  0022e	ff 15 00 00 00
	00		 call	 DWORD PTR __imp_?LoadStringA@ioINILoader@@QAEXPBD0PADH@Z

; 36   : 	m_szReturnAnimation = szBuf;

  00234	8d 85 e0 fe ff
	ff		 lea	 eax, DWORD PTR _szBuf$[ebp]
  0023a	50		 push	 eax
  0023b	8d 8e b8 14 00
	00		 lea	 ecx, DWORD PTR [esi+5304]
  00241	ff 15 00 00 00
	00		 call	 DWORD PTR __imp_??4ioHashString@@QAEAAV0@PBD@Z
  00247	6a 03		 push	 3

; 37   : 	m_fReturnAniRate = rkLoader.LoadFloat_e( "return_ani_rate", 1.0f );

  00249	c7 45 e4 9f 89
	9f 9f		 mov	 DWORD PTR __k$538744[ebp], -1616934497 ; 9f9f899fH
  00250	c7 45 e8 9f 82
	b4 8b		 mov	 DWORD PTR __k$538744[ebp+4], -1951104353 ; 8bb4829fH
  00257	c7 45 ec 83 85
	b4 98		 mov	 DWORD PTR __k$538744[ebp+8], -1732999805 ; 98b48583H
  0025e	8d 45 e4	 lea	 eax, DWORD PTR __k$538744[ebp]
  00261	c7 45 f0 8c 98
	8e 00		 mov	 DWORD PTR __k$538744[ebp+12], 9345164 ; 008e988cH
  00268	59		 pop	 ecx
$LL636@LoadProper:
  00269	81 30 ed ec eb
	ea		 xor	 DWORD PTR [eax], -353637139 ; eaebecedH
  0026f	83 c0 04	 add	 eax, 4
  00272	49		 dec	 ecx
  00273	75 f4		 jne	 SHORT $LL636@LoadProper
  00275	6a 0c		 push	 12			; 0000000cH
  00277	58		 pop	 eax
$LL633@LoadProper:
  00278	8b c8		 mov	 ecx, eax
  0027a	81 e1 03 00 00
	80		 and	 ecx, -2147483645	; 80000003H
  00280	79 05		 jns	 SHORT $LN996@LoadProper
  00282	49		 dec	 ecx
  00283	83 c9 fc	 or	 ecx, -4			; fffffffcH
  00286	41		 inc	 ecx
$LN996@LoadProper:
  00287	b2 ed		 mov	 dl, -19			; ffffffedH
  00289	2a d1		 sub	 dl, cl
  0028b	30 54 05 e4	 xor	 BYTE PTR __k$538744[ebp+eax], dl
  0028f	40		 inc	 eax
  00290	83 f8 0f	 cmp	 eax, 15			; 0000000fH
  00293	7c e3		 jl	 SHORT $LL633@LoadProper
  00295	f3 0f 10 05 00
	00 00 00	 movss	 xmm0, DWORD PTR __real@3f800000
  0029d	51		 push	 ecx
  0029e	8d 45 e4	 lea	 eax, DWORD PTR __k$538744[ebp]
  002a1	f3 0f 11 04 24	 movss	 DWORD PTR [esp], xmm0
  002a6	50		 push	 eax
  002a7	8b cf		 mov	 ecx, edi
  002a9	ff 15 00 00 00
	00		 call	 DWORD PTR __imp_?LoadFloat@ioINILoader@@QAEMPBDM@Z
  002af	d9 9e c8 14 00
	00		 fstp	 DWORD PTR [esi+5320]
  002b5	6a 04		 push	 4

; 38   : 	m_fReturnMoveSpeed = rkLoader.LoadFloat_e( "return_move_speed", 0.f );

  002b7	c7 45 e4 9f 89
	9f 9f		 mov	 DWORD PTR __k$538869[ebp], -1616934497 ; 9f9f899fH
  002be	c7 45 e8 9f 82
	b4 87		 mov	 DWORD PTR __k$538869[ebp+4], -2018213217 ; 87b4829fH
  002c5	c7 45 ec 82 9a
	8e b5		 mov	 DWORD PTR __k$538869[ebp+8], -1248945534 ; b58e9a82H
  002cc	c7 45 f0 9e 9c
	8e 8f		 mov	 DWORD PTR __k$538869[ebp+12], -1886479202 ; 8f8e9c9eH
  002d3	8d 45 e4	 lea	 eax, DWORD PTR __k$538869[ebp]
  002d6	66 c7 45 f4 89
	00		 mov	 WORD PTR __k$538869[ebp+16], 137 ; 00000089H
  002dc	59		 pop	 ecx
$LL742@LoadProper:
  002dd	81 30 ed ec eb
	ea		 xor	 DWORD PTR [eax], -353637139 ; eaebecedH
  002e3	83 c0 04	 add	 eax, 4
  002e6	49		 dec	 ecx
  002e7	75 f4		 jne	 SHORT $LL742@LoadProper
  002e9	0f 57 c0	 xorps	 xmm0, xmm0
  002ec	80 75 f4 ed	 xor	 BYTE PTR __k$538869[ebp+16], -19 ; ffffffedH
  002f0	51		 push	 ecx
  002f1	8d 45 e4	 lea	 eax, DWORD PTR __k$538869[ebp]
  002f4	f3 0f 11 04 24	 movss	 DWORD PTR [esp], xmm0
  002f9	50		 push	 eax
  002fa	8b cf		 mov	 ecx, edi
  002fc	ff 15 00 00 00
	00		 call	 DWORD PTR __imp_?LoadFloat@ioINILoader@@QAEMPBDM@Z
  00302	d9 9e cc 14 00
	00		 fstp	 DWORD PTR [esi+5324]
  00308	6a 03		 push	 3

; 39   : 	m_dwReturnDuration = (DWORD)rkLoader.LoadInt_e( "return_duration", 0 );

  0030a	c7 45 e4 9f 89
	9f 9f		 mov	 DWORD PTR __k$538999[ebp], -1616934497 ; 9f9f899fH
  00311	c7 45 e8 9f 82
	b4 8e		 mov	 DWORD PTR __k$538999[ebp+4], -1900772705 ; 8eb4829fH
  00318	c7 45 ec 98 9e
	8a 9e		 mov	 DWORD PTR __k$538999[ebp+8], -1635082600 ; 9e8a9e98H
  0031f	8d 45 e4	 lea	 eax, DWORD PTR __k$538999[ebp]
  00322	c7 45 f0 84 83
	85 00		 mov	 DWORD PTR __k$538999[ebp+12], 8749956 ; 00858384H
  00329	59		 pop	 ecx
$LL848@LoadProper:
  0032a	81 30 ed ec eb
	ea		 xor	 DWORD PTR [eax], -353637139 ; eaebecedH
  00330	83 c0 04	 add	 eax, 4
  00333	49		 dec	 ecx
  00334	75 f4		 jne	 SHORT $LL848@LoadProper
  00336	6a 0c		 push	 12			; 0000000cH
  00338	58		 pop	 eax
$LL845@LoadProper:
  00339	8b c8		 mov	 ecx, eax
  0033b	81 e1 03 00 00
	80		 and	 ecx, -2147483645	; 80000003H
  00341	79 05		 jns	 SHORT $LN997@LoadProper
  00343	49		 dec	 ecx
  00344	83 c9 fc	 or	 ecx, -4			; fffffffcH
  00347	41		 inc	 ecx
$LN997@LoadProper:
  00348	b2 ed		 mov	 dl, -19			; ffffffedH
  0034a	2a d1		 sub	 dl, cl
  0034c	30 54 05 e4	 xor	 BYTE PTR __k$538999[ebp+eax], dl
  00350	40		 inc	 eax
  00351	83 f8 0f	 cmp	 eax, 15			; 0000000fH
  00354	7c e3		 jl	 SHORT $LL845@LoadProper
  00356	53		 push	 ebx
  00357	8d 45 e4	 lea	 eax, DWORD PTR __k$538999[ebp]
  0035a	50		 push	 eax
  0035b	8b cf		 mov	 ecx, edi
  0035d	ff 15 00 00 00
	00		 call	 DWORD PTR __imp_?LoadInt@ioINILoader@@QAEHPBDH@Z
  00363	6a 04		 push	 4
  00365	89 86 d4 14 00
	00		 mov	 DWORD PTR [esi+5332], eax

; 40   : 	m_fReturnOwnerGap  = rkLoader.LoadFloat_e( "return_owner_gap", 0.0f );

  0036b	c7 45 e4 9f 89
	9f 9f		 mov	 DWORD PTR __k$539106[ebp], -1616934497 ; 9f9f899fH
  00372	c7 45 e8 9f 82
	b4 85		 mov	 DWORD PTR __k$539106[ebp+4], -2051767649 ; 85b4829fH
  00379	c7 45 ec 9a 82
	8e 98		 mov	 DWORD PTR __k$539106[ebp+8], -1735490918 ; 988e829aH
  00380	c7 45 f0 b2 8b
	8a 9a		 mov	 DWORD PTR __k$539106[ebp+12], -1702196302 ; 9a8a8bb2H
  00387	8d 45 e4	 lea	 eax, DWORD PTR __k$539106[ebp]
  0038a	88 5d f4	 mov	 BYTE PTR __k$539106[ebp+16], bl
  0038d	59		 pop	 ecx
$LL954@LoadProper:
  0038e	81 30 ed ec eb
	ea		 xor	 DWORD PTR [eax], -353637139 ; eaebecedH
  00394	83 c0 04	 add	 eax, 4
  00397	49		 dec	 ecx
  00398	75 f4		 jne	 SHORT $LL954@LoadProper
  0039a	0f 57 c0	 xorps	 xmm0, xmm0
  0039d	51		 push	 ecx
  0039e	8d 45 e4	 lea	 eax, DWORD PTR __k$539106[ebp]
  003a1	f3 0f 11 04 24	 movss	 DWORD PTR [esp], xmm0
  003a6	50		 push	 eax
  003a7	8b cf		 mov	 ecx, edi
  003a9	ff 15 00 00 00
	00		 call	 DWORD PTR __imp_?LoadFloat@ioINILoader@@QAEMPBDM@Z
  003af	d9 9e d8 14 00
	00		 fstp	 DWORD PTR [esi+5336]

; 41   : }

  003b5	8b 4d fc	 mov	 ecx, DWORD PTR __$ArrayPad$[ebp]
  003b8	5f		 pop	 edi
  003b9	5e		 pop	 esi
  003ba	33 cd		 xor	 ecx, ebp
  003bc	5b		 pop	 ebx
  003bd	e8 00 00 00 00	 call	 @__security_check_cookie@4
  003c2	c9		 leave
  003c3	c2 04 00	 ret	 4
?LoadProperty@ioTargetTrace16Dummy@@UAEXAAVioINILoader@@@Z ENDP ; ioTargetTrace16Dummy::LoadProperty
_TEXT	ENDS
PUBLIC	?SetSensingState@ioTargetTrace16Dummy@@AAEXXZ	; ioTargetTrace16Dummy::SetSensingState
; Function compile flags: /Ogsp
;	COMDAT ?SetSensingState@ioTargetTrace16Dummy@@AAEXXZ
_TEXT	SEGMENT
_value$539265 = -4					; size = 4
?SetSensingState@ioTargetTrace16Dummy@@AAEXXZ PROC	; ioTargetTrace16Dummy::SetSensingState, COMDAT
; _this$ = ecx

; 168  : {

  00000	55		 push	 ebp
  00001	8b ec		 mov	 ebp, esp
  00003	51		 push	 ecx
  00004	56		 push	 esi
  00005	8b f1		 mov	 esi, ecx

; 169  : 	m_TraceDummyState = TDS_SENSING;

  00007	c7 86 80 14 00
	00 02 00 00 00	 mov	 DWORD PTR [esi+5248], 2

; 170  : 
; 171  : 	m_dwSensingStartTime = FRAMEGETTIME();

  00011	ff 15 00 00 00
	00		 call	 DWORD PTR __imp_?GetSingleton@ioFrameTimer@@SAAAV1@XZ
  00017	8b c8		 mov	 ecx, eax
  00019	ff 15 00 00 00
	00		 call	 DWORD PTR __imp_?GetLoopSec@ioFrameTimer@@QBEKXZ
  0001f	89 45 fc	 mov	 DWORD PTR _value$539265[ebp], eax
  00022	8d 45 fc	 lea	 eax, DWORD PTR _value$539265[ebp]
  00025	50		 push	 eax
  00026	8d 8e 78 0a 00
	00		 lea	 ecx, DWORD PTR [esi+2680]
  0002c	e8 00 00 00 00	 call	 ?EncryptValueToPool@?$CEncrypt@K@@AAEXPBD@Z ; CEncrypt<unsigned long>::EncryptValueToPool

; 172  : 
; 173  : 	m_pGroup->ClearAllLoopAni( 100.0f );

  00031	f3 0f 10 05 00
	00 00 00	 movss	 xmm0, DWORD PTR __real@42c80000
  00039	6a 00		 push	 0
  0003b	51		 push	 ecx
  0003c	8b 4e 04	 mov	 ecx, DWORD PTR [esi+4]
  0003f	f3 0f 11 04 24	 movss	 DWORD PTR [esp], xmm0
  00044	ff 15 00 00 00
	00		 call	 DWORD PTR __imp_?ClearAllLoopAni@ioEntityGroup@@QAEXM_N@Z

; 174  : 	m_pGroup->ClearAllActionAni( 100.0f );

  0004a	f3 0f 10 05 00
	00 00 00	 movss	 xmm0, DWORD PTR __real@42c80000
  00052	6a 00		 push	 0
  00054	51		 push	 ecx
  00055	8b 4e 04	 mov	 ecx, DWORD PTR [esi+4]
  00058	f3 0f 11 04 24	 movss	 DWORD PTR [esp], xmm0
  0005d	ff 15 00 00 00
	00		 call	 DWORD PTR __imp_?ClearAllActionAni@ioEntityGroup@@QAEXM_N@Z

; 175  : 
; 176  : 	int iAniID = m_pGroup->GetAnimationIdx( m_SensingAni );

  00063	8b 4e 04	 mov	 ecx, DWORD PTR [esi+4]
  00066	8d 86 e8 0a 00
	00		 lea	 eax, DWORD PTR [esi+2792]
  0006c	50		 push	 eax
  0006d	ff 15 00 00 00
	00		 call	 DWORD PTR __imp_?GetAnimationIdx@ioEntityGroup@@QAEHABVioHashString@@@Z

; 177  : 	if( 0 <= iAniID )

  00073	85 c0		 test	 eax, eax
  00075	78 61		 js	 SHORT $LN2@SetSensing

; 178  : 	{
; 179  : 		float fRate = 1.0f;
; 180  : 		if( m_fSensingAniRate > 0.0f )

  00077	f3 0f 10 96 f8
	0a 00 00	 movss	 xmm2, DWORD PTR [esi+2808]
  0007f	0f 57 c9	 xorps	 xmm1, xmm1
  00082	0f 2f d1	 comiss	 xmm2, xmm1
  00085	f3 0f 10 05 00
	00 00 00	 movss	 xmm0, DWORD PTR __real@3f800000
  0008d	0f 28 d8	 movaps	 xmm3, xmm0
  00090	76 03		 jbe	 SHORT $LN1@SetSensing

; 181  : 			fRate = m_fSensingAniRate;

  00092	0f 28 da	 movaps	 xmm3, xmm2
$LN1@SetSensing:

; 182  : 
; 183  : 		m_pGroup->SetLoopAni( iAniID, 100.0f, 1.0f, 1.0f/fRate );

  00095	f2 0f 10 15 00
	00 00 00	 movsd	 xmm2, QWORD PTR __real@3ff0000000000000
  0009d	8b 4e 04	 mov	 ecx, DWORD PTR [esi+4]
  000a0	83 ec 10	 sub	 esp, 16			; 00000010H
  000a3	f3 0f 11 4c 24
	0c		 movss	 DWORD PTR [esp+12], xmm1
  000a9	0f 57 c9	 xorps	 xmm1, xmm1
  000ac	f3 0f 5a cb	 cvtss2sd xmm1, xmm3
  000b0	f2 0f 5e d1	 divsd	 xmm2, xmm1
  000b4	66 0f 5a ca	 cvtpd2ps xmm1, xmm2
  000b8	f3 0f 11 4c 24
	08		 movss	 DWORD PTR [esp+8], xmm1
  000be	f3 0f 11 44 24
	04		 movss	 DWORD PTR [esp+4], xmm0
  000c4	f3 0f 10 05 00
	00 00 00	 movss	 xmm0, DWORD PTR __real@42c80000
  000cc	f3 0f 11 04 24	 movss	 DWORD PTR [esp], xmm0
  000d1	50		 push	 eax
  000d2	ff 15 00 00 00
	00		 call	 DWORD PTR __imp_?SetLoopAni@ioEntityGroup@@QAE_NHMMMM@Z
$LN2@SetSensing:
  000d8	5e		 pop	 esi

; 184  : 	}
; 185  : }

  000d9	c9		 leave
  000da	c3		 ret	 0
?SetSensingState@ioTargetTrace16Dummy@@AAEXXZ ENDP	; ioTargetTrace16Dummy::SetSensingState
_TEXT	ENDS
PUBLIC	__$ArrayPad$
PUBLIC	?SetTracingState@ioTargetTrace16Dummy@@AAEXPAVioBaseChar@@@Z ; ioTargetTrace16Dummy::SetTracingState
;	COMDAT xdata$x
; File d:\lost saga for developer\youtube\tutorial\source\src\lsclient\encryptvalue.h
xdata$x	SEGMENT
__unwindtable$?SetTracingState@ioTargetTrace16Dummy@@AAEXPAVioBaseChar@@@Z DD 0ffffffffH
	DD	FLAT:__unwindfunclet$?SetTracingState@ioTargetTrace16Dummy@@AAEXPAVioBaseChar@@@Z$0
__ehfuncinfo$?SetTracingState@ioTargetTrace16Dummy@@AAEXPAVioBaseChar@@@Z DD 019930522H
	DD	01H
	DD	FLAT:__unwindtable$?SetTracingState@ioTargetTrace16Dummy@@AAEXPAVioBaseChar@@@Z
	DD	2 DUP(00H)
	DD	2 DUP(00H)
	DD	00H
	DD	01H
; Function compile flags: /Ogsp
; File d:\lost saga for developer\youtube\tutorial\source\src\lsclient\iotargettrace16dummy.cpp
xdata$x	ENDS
;	COMDAT ?SetTracingState@ioTargetTrace16Dummy@@AAEXPAVioBaseChar@@@Z
_TEXT	SEGMENT
_value$539281 = -32812					; size = 4
_value$539277 = -32812					; size = 4
_kPacket$531134 = -32808				; size = 32792
__$ArrayPad$ = -16					; size = 4
__$EHRec$ = -12						; size = 12
_pOwner$ = 8						; size = 4
?SetTracingState@ioTargetTrace16Dummy@@AAEXPAVioBaseChar@@@Z PROC ; ioTargetTrace16Dummy::SetTracingState, COMDAT
; _this$ = ecx

; 318  : {

  00000	55		 push	 ebp
  00001	8b ec		 mov	 ebp, esp
  00003	6a ff		 push	 -1
  00005	68 00 00 00 00	 push	 __ehhandler$?SetTracingState@ioTargetTrace16Dummy@@AAEXPAVioBaseChar@@@Z
  0000a	64 a1 00 00 00
	00		 mov	 eax, DWORD PTR fs:0
  00010	50		 push	 eax
  00011	b8 20 80 00 00	 mov	 eax, 32800		; 00008020H
  00016	e8 00 00 00 00	 call	 __chkstk
  0001b	a1 00 00 00 00	 mov	 eax, DWORD PTR ___security_cookie
  00020	33 c5		 xor	 eax, ebp
  00022	89 45 f0	 mov	 DWORD PTR __$ArrayPad$[ebp], eax
  00025	53		 push	 ebx
  00026	56		 push	 esi
  00027	57		 push	 edi
  00028	50		 push	 eax
  00029	8d 45 f4	 lea	 eax, DWORD PTR __$EHRec$[ebp]
  0002c	64 a3 00 00 00
	00		 mov	 DWORD PTR fs:0, eax
  00032	8b 5d 08	 mov	 ebx, DWORD PTR _pOwner$[ebp]
  00035	8b f1		 mov	 esi, ecx

; 319  : 	if( !pOwner )

  00037	85 db		 test	 ebx, ebx
  00039	0f 84 85 01 00
	00		 je	 $LN1@SetTracing

; 320  : 		return;
; 321  : 	ioPlayStage *pStage = pOwner->GetCreator();
; 322  : 	if( !pStage )

  0003f	83 bb 44 03 00
	00 00		 cmp	 DWORD PTR [ebx+836], 0
  00046	0f 84 78 01 00
	00		 je	 $LN1@SetTracing

; 323  : 		return;
; 324  : 
; 325  : 	m_TraceDummyState = TDS_TRACING;

  0004c	c7 86 80 14 00
	00 03 00 00 00	 mov	 DWORD PTR [esi+5248], 3

; 326  : 	DWORD dwCurTime = FRAMEGETTIME();

  00056	ff 15 00 00 00
	00		 call	 DWORD PTR __imp_?GetSingleton@ioFrameTimer@@SAAAV1@XZ
  0005c	8b c8		 mov	 ecx, eax
  0005e	ff 15 00 00 00
	00		 call	 DWORD PTR __imp_?GetLoopSec@ioFrameTimer@@QBEKXZ
  00064	8b f8		 mov	 edi, eax

; 327  : 
; 328  : 	m_dwTracingEndTime = dwCurTime + m_dwTraceDuration;

  00066	8d 85 d4 7f ff
	ff		 lea	 eax, DWORD PTR _value$539277[ebp]
  0006c	50		 push	 eax
  0006d	8d 8e 7c 09 00
	00		 lea	 ecx, DWORD PTR [esi+2428]
  00073	e8 00 00 00 00	 call	 ?DecryptValueToPool@?$CEncrypt@K@@QAEXPAK@Z ; CEncrypt<unsigned long>::DecryptValueToPool
  00078	8b 85 d4 7f ff
	ff		 mov	 eax, DWORD PTR _value$539277[ebp]
  0007e	03 c7		 add	 eax, edi
  00080	89 85 d4 7f ff
	ff		 mov	 DWORD PTR _value$539281[ebp], eax
  00086	8d 85 d4 7f ff
	ff		 lea	 eax, DWORD PTR _value$539281[ebp]
  0008c	50		 push	 eax
  0008d	8d 8e a8 0a 00
	00		 lea	 ecx, DWORD PTR [esi+2728]
  00093	e8 00 00 00 00	 call	 ?EncryptValueToPool@?$CEncrypt@K@@AAEXPBD@Z ; CEncrypt<unsigned long>::EncryptValueToPool

; 329  : 
; 330  : 	m_pGroup->ClearAllLoopAni( 100.0f );

  00098	f3 0f 10 05 00
	00 00 00	 movss	 xmm0, DWORD PTR __real@42c80000
  000a0	33 ff		 xor	 edi, edi
  000a2	57		 push	 edi
  000a3	51		 push	 ecx
  000a4	8b 4e 04	 mov	 ecx, DWORD PTR [esi+4]
  000a7	f3 0f 11 04 24	 movss	 DWORD PTR [esp], xmm0
  000ac	ff 15 00 00 00
	00		 call	 DWORD PTR __imp_?ClearAllLoopAni@ioEntityGroup@@QAEXM_N@Z

; 331  : 	m_pGroup->ClearAllActionAni( 100.0f );

  000b2	f3 0f 10 05 00
	00 00 00	 movss	 xmm0, DWORD PTR __real@42c80000
  000ba	57		 push	 edi
  000bb	51		 push	 ecx
  000bc	8b 4e 04	 mov	 ecx, DWORD PTR [esi+4]
  000bf	f3 0f 11 04 24	 movss	 DWORD PTR [esp], xmm0
  000c4	ff 15 00 00 00
	00		 call	 DWORD PTR __imp_?ClearAllActionAni@ioEntityGroup@@QAEXM_N@Z

; 332  : 
; 333  : 	int iAniID = m_pGroup->GetAnimationIdx( m_TracingAni );

  000ca	8b 4e 04	 mov	 ecx, DWORD PTR [esi+4]
  000cd	8d 86 fc 0a 00
	00		 lea	 eax, DWORD PTR [esi+2812]
  000d3	50		 push	 eax
  000d4	ff 15 00 00 00
	00		 call	 DWORD PTR __imp_?GetAnimationIdx@ioEntityGroup@@QAEHABVioHashString@@@Z

; 334  : 	float fRate = 1.0f;
; 335  : 	if( m_fTracingAniRate > 0.0f )

  000da	f3 0f 10 96 0c
	0b 00 00	 movss	 xmm2, DWORD PTR [esi+2828]
  000e2	0f 57 c9	 xorps	 xmm1, xmm1
  000e5	0f 2f d1	 comiss	 xmm2, xmm1
  000e8	f3 0f 10 05 00
	00 00 00	 movss	 xmm0, DWORD PTR __real@3f800000
  000f0	0f 28 d8	 movaps	 xmm3, xmm0
  000f3	76 03		 jbe	 SHORT $LN3@SetTracing

; 336  : 		fRate = m_fTracingAniRate;

  000f5	0f 28 da	 movaps	 xmm3, xmm2
$LN3@SetTracing:

; 337  : 
; 338  : 	if( iAniID != -1 )

  000f8	83 f8 ff	 cmp	 eax, -1
  000fb	74 43		 je	 SHORT $LN2@SetTracing

; 339  : 		m_pGroup->SetLoopAni( iAniID, 100.0f, 1.0f, 1.0f/fRate );

  000fd	f2 0f 10 15 00
	00 00 00	 movsd	 xmm2, QWORD PTR __real@3ff0000000000000
  00105	8b 4e 04	 mov	 ecx, DWORD PTR [esi+4]
  00108	83 ec 10	 sub	 esp, 16			; 00000010H
  0010b	f3 0f 11 4c 24
	0c		 movss	 DWORD PTR [esp+12], xmm1
  00111	0f 57 c9	 xorps	 xmm1, xmm1
  00114	f3 0f 5a cb	 cvtss2sd xmm1, xmm3
  00118	f2 0f 5e d1	 divsd	 xmm2, xmm1
  0011c	66 0f 5a ca	 cvtpd2ps xmm1, xmm2
  00120	f3 0f 11 4c 24
	08		 movss	 DWORD PTR [esp+8], xmm1
  00126	f3 0f 11 44 24
	04		 movss	 DWORD PTR [esp+4], xmm0
  0012c	f3 0f 10 05 00
	00 00 00	 movss	 xmm0, DWORD PTR __real@42c80000
  00134	f3 0f 11 04 24	 movss	 DWORD PTR [esp], xmm0
  00139	50		 push	 eax
  0013a	ff 15 00 00 00
	00		 call	 DWORD PTR __imp_?SetLoopAni@ioEntityGroup@@QAE_NHMMMM@Z
$LN2@SetTracing:

; 340  : 
; 341  : 	if( pOwner->IsNeedSendNetwork() )

  00140	8b 03		 mov	 eax, DWORD PTR [ebx]
  00142	8b cb		 mov	 ecx, ebx
  00144	ff 90 04 01 00
	00		 call	 DWORD PTR [eax+260]
  0014a	84 c0		 test	 al, al
  0014c	74 76		 je	 SHORT $LN1@SetTracing

; 342  : 	{
; 343  : 		SP2Packet kPacket( CUPK_DUMMY_CHAR_SYNC );

  0014e	68 21 42 00 00	 push	 16929			; 00004221H
  00153	8d 8d d8 7f ff
	ff		 lea	 ecx, DWORD PTR _kPacket$531134[ebp]
  00159	e8 00 00 00 00	 call	 ??0SP2Packet@@QAE@K@Z	; SP2Packet::SP2Packet

; 344  : 		kPacket << m_OwnerName;

  0015e	8d 86 cc 01 00
	00		 lea	 eax, DWORD PTR [esi+460]
  00164	50		 push	 eax
  00165	8d 8d d8 7f ff
	ff		 lea	 ecx, DWORD PTR _kPacket$531134[ebp]
  0016b	89 7d fc	 mov	 DWORD PTR __$EHRec$[ebp+8], edi
  0016e	e8 00 00 00 00	 call	 ??6SP2Packet@@QAEAAV0@ABVioHashString@@@Z ; SP2Packet::operator<<

; 345  : 		kPacket << m_iCreateIndex;

  00173	ff b6 dc 01 00
	00		 push	 DWORD PTR [esi+476]
  00179	8d 8d d8 7f ff
	ff		 lea	 ecx, DWORD PTR _kPacket$531134[ebp]
  0017f	e8 00 00 00 00	 call	 ??6SP2Packet@@QAEAAV0@H@Z ; SP2Packet::operator<<

; 346  : 		kPacket << DCST_TRACING;

  00184	68 e8 03 00 00	 push	 1000			; 000003e8H
  00189	8d 8d d8 7f ff
	ff		 lea	 ecx, DWORD PTR _kPacket$531134[ebp]
  0018f	e8 00 00 00 00	 call	 ??6SP2Packet@@QAEAAV0@H@Z ; SP2Packet::operator<<

; 347  : 		kPacket << m_TargetTraceName;

  00194	81 c6 d8 0a 00
	00		 add	 esi, 2776		; 00000ad8H
  0019a	56		 push	 esi
  0019b	8d 8d d8 7f ff
	ff		 lea	 ecx, DWORD PTR _kPacket$531134[ebp]
  001a1	e8 00 00 00 00	 call	 ??6SP2Packet@@QAEAAV0@ABVioHashString@@@Z ; SP2Packet::operator<<

; 348  : 		P2PNetwork::SendToAllPlayingUser( kPacket );

  001a6	8d 85 d8 7f ff
	ff		 lea	 eax, DWORD PTR _kPacket$531134[ebp]
  001ac	57		 push	 edi
  001ad	50		 push	 eax
  001ae	e8 00 00 00 00	 call	 ?SendToAllPlayingUser@P2PNetwork@@YAXAAVSP2Packet@@PAVioBaseChar@@@Z ; P2PNetwork::SendToAllPlayingUser

; 349  : 	}

  001b3	83 4d fc ff	 or	 DWORD PTR __$EHRec$[ebp+8], -1
  001b7	59		 pop	 ecx
  001b8	59		 pop	 ecx
  001b9	8d 8d d8 7f ff
	ff		 lea	 ecx, DWORD PTR _kPacket$531134[ebp]
  001bf	e8 00 00 00 00	 call	 ??1SP2Packet@@UAE@XZ	; SP2Packet::~SP2Packet
$LN1@SetTracing:

; 350  : }

  001c4	8b 4d f4	 mov	 ecx, DWORD PTR __$EHRec$[ebp]
  001c7	64 89 0d 00 00
	00 00		 mov	 DWORD PTR fs:0, ecx
  001ce	59		 pop	 ecx
  001cf	5f		 pop	 edi
  001d0	5e		 pop	 esi
  001d1	5b		 pop	 ebx
  001d2	8b 4d f0	 mov	 ecx, DWORD PTR __$ArrayPad$[ebp]
  001d5	33 cd		 xor	 ecx, ebp
  001d7	e8 00 00 00 00	 call	 @__security_check_cookie@4
  001dc	c9		 leave
  001dd	c2 04 00	 ret	 4
_TEXT	ENDS
;	COMDAT text$x
text$x	SEGMENT
__unwindfunclet$?SetTracingState@ioTargetTrace16Dummy@@AAEXPAVioBaseChar@@@Z$0:
  00000	8d 8d d8 7f ff
	ff		 lea	 ecx, DWORD PTR _kPacket$531134[ebp]
  00006	e9 00 00 00 00	 jmp	 ??1SP2Packet@@UAE@XZ	; SP2Packet::~SP2Packet
__ehhandler$?SetTracingState@ioTargetTrace16Dummy@@AAEXPAVioBaseChar@@@Z:
  0000b	8b 54 24 08	 mov	 edx, DWORD PTR [esp+8]
  0000f	8d 42 0c	 lea	 eax, DWORD PTR [edx+12]
  00012	8b 8a d0 7f ff
	ff		 mov	 ecx, DWORD PTR [edx-32816]
  00018	33 c8		 xor	 ecx, eax
  0001a	e8 00 00 00 00	 call	 @__security_check_cookie@4
  0001f	8b 4a fc	 mov	 ecx, DWORD PTR [edx-4]
  00022	33 c8		 xor	 ecx, eax
  00024	e8 00 00 00 00	 call	 @__security_check_cookie@4
  00029	b8 00 00 00 00	 mov	 eax, OFFSET __ehfuncinfo$?SetTracingState@ioTargetTrace16Dummy@@AAEXPAVioBaseChar@@@Z
  0002e	e9 00 00 00 00	 jmp	 ___CxxFrameHandler3
text$x	ENDS
?SetTracingState@ioTargetTrace16Dummy@@AAEXPAVioBaseChar@@@Z ENDP ; ioTargetTrace16Dummy::SetTracingState
PUBLIC	__$ArrayPad$
PUBLIC	?SetJumpState@ioTargetTrace16Dummy@@AAEXXZ	; ioTargetTrace16Dummy::SetJumpState
EXTRN	?GetOwner@ioDummyChar@@QBEPAVioBaseChar@@XZ:PROC ; ioDummyChar::GetOwner
;	COMDAT xdata$x
; File d:\lost saga for developer\youtube\tutorial\source\src\lsclient\encryptvalue.h
xdata$x	SEGMENT
__unwindtable$?SetJumpState@ioTargetTrace16Dummy@@AAEXXZ DD 0ffffffffH
	DD	FLAT:__unwindfunclet$?SetJumpState@ioTargetTrace16Dummy@@AAEXXZ$0
__ehfuncinfo$?SetJumpState@ioTargetTrace16Dummy@@AAEXXZ DD 019930522H
	DD	01H
	DD	FLAT:__unwindtable$?SetJumpState@ioTargetTrace16Dummy@@AAEXXZ
	DD	2 DUP(00H)
	DD	2 DUP(00H)
	DD	00H
	DD	01H
; Function compile flags: /Ogsp
; File d:\lost saga for developer\youtube\tutorial\source\src\lsclient\iotargettrace16dummy.cpp
xdata$x	ENDS
;	COMDAT ?SetJumpState@ioTargetTrace16Dummy@@AAEXXZ
_TEXT	SEGMENT
_value$539298 = -32812					; size = 4
_fAniRate$531432 = -32812				; size = 4
_kPacket$531435 = -32808				; size = 32792
__$ArrayPad$ = -16					; size = 4
__$EHRec$ = -12						; size = 12
?SetJumpState@ioTargetTrace16Dummy@@AAEXXZ PROC		; ioTargetTrace16Dummy::SetJumpState, COMDAT
; _this$ = ecx

; 600  : {

  00000	55		 push	 ebp
  00001	8b ec		 mov	 ebp, esp
  00003	6a ff		 push	 -1
  00005	68 00 00 00 00	 push	 __ehhandler$?SetJumpState@ioTargetTrace16Dummy@@AAEXXZ
  0000a	64 a1 00 00 00
	00		 mov	 eax, DWORD PTR fs:0
  00010	50		 push	 eax
  00011	b8 20 80 00 00	 mov	 eax, 32800		; 00008020H
  00016	e8 00 00 00 00	 call	 __chkstk
  0001b	a1 00 00 00 00	 mov	 eax, DWORD PTR ___security_cookie
  00020	33 c5		 xor	 eax, ebp
  00022	89 45 f0	 mov	 DWORD PTR __$ArrayPad$[ebp], eax
  00025	56		 push	 esi
  00026	57		 push	 edi
  00027	50		 push	 eax
  00028	8d 45 f4	 lea	 eax, DWORD PTR __$EHRec$[ebp]
  0002b	64 a3 00 00 00
	00		 mov	 DWORD PTR fs:0, eax
  00031	8b f1		 mov	 esi, ecx

; 601  : 	m_TraceDummyState = TDS_JUMP;
; 602  : 	m_fCurJumpPowerAmt = m_fJumpPower;

  00033	f3 0f 10 86 84
	14 00 00	 movss	 xmm0, DWORD PTR [esi+5252]
  0003b	8d 85 d4 7f ff
	ff		 lea	 eax, DWORD PTR _value$539298[ebp]
  00041	50		 push	 eax
  00042	8d 8e 20 03 00
	00		 lea	 ecx, DWORD PTR [esi+800]
  00048	c7 86 80 14 00
	00 06 00 00 00	 mov	 DWORD PTR [esi+5248], 6
  00052	f3 0f 11 85 d4
	7f ff ff	 movss	 DWORD PTR _value$539298[ebp], xmm0
  0005a	e8 00 00 00 00	 call	 ?EncryptValueToPool@?$CEncrypt@M@@AAEXPBD@Z ; CEncrypt<float>::EncryptValueToPool

; 603  : 	m_dwJumpStartTime = FRAMEGETTIME();

  0005f	ff 15 00 00 00
	00		 call	 DWORD PTR __imp_?GetSingleton@ioFrameTimer@@SAAAV1@XZ
  00065	8b c8		 mov	 ecx, eax
  00067	ff 15 00 00 00
	00		 call	 DWORD PTR __imp_?GetLoopSec@ioFrameTimer@@QBEKXZ

; 604  : 
; 605  : 	int iAniID = m_pGroup->GetAnimationIdx( m_szJumppingAnimation );

  0006d	8b 4e 04	 mov	 ecx, DWORD PTR [esi+4]
  00070	89 86 90 14 00
	00		 mov	 DWORD PTR [esi+5264], eax
  00076	8d 86 94 14 00
	00		 lea	 eax, DWORD PTR [esi+5268]
  0007c	50		 push	 eax
  0007d	ff 15 00 00 00
	00		 call	 DWORD PTR __imp_?GetAnimationIdx@ioEntityGroup@@QAEHABVioHashString@@@Z
  00083	8b f8		 mov	 edi, eax

; 606  : 	if( iAniID != -1 )

  00085	83 ff ff	 cmp	 edi, -1
  00088	0f 84 ad 00 00
	00		 je	 $LN3@SetJumpSta

; 607  : 	{
; 608  : 		float fAniRate = 1.0f;

  0008e	f3 0f 10 05 00
	00 00 00	 movss	 xmm0, DWORD PTR __real@3f800000
  00096	f3 0f 11 85 d4
	7f ff ff	 movss	 DWORD PTR _fAniRate$531432[ebp], xmm0

; 609  : 		if( m_fJumppingAniRate > 0.0f )

  0009e	f3 0f 10 86 a4
	14 00 00	 movss	 xmm0, DWORD PTR [esi+5284]
  000a6	0f 2f 05 00 00
	00 00		 comiss	 xmm0, DWORD PTR __real@00000000
  000ad	76 08		 jbe	 SHORT $LN2@SetJumpSta

; 610  : 			fAniRate = m_fJumppingAniRate;

  000af	f3 0f 11 85 d4
	7f ff ff	 movss	 DWORD PTR _fAniRate$531432[ebp], xmm0
$LN2@SetJumpSta:

; 611  : 
; 612  : 		m_pGroup->ClearAllActionAni( 10.0f, true );

  000b7	f3 0f 10 05 00
	00 00 00	 movss	 xmm0, DWORD PTR __real@41200000
  000bf	6a 01		 push	 1
  000c1	51		 push	 ecx
  000c2	8b 4e 04	 mov	 ecx, DWORD PTR [esi+4]
  000c5	f3 0f 11 04 24	 movss	 DWORD PTR [esp], xmm0
  000ca	ff 15 00 00 00
	00		 call	 DWORD PTR __imp_?ClearAllActionAni@ioEntityGroup@@QAEXM_N@Z

; 613  : 		m_pGroup->ClearAllLoopAni( 10.0f, true );

  000d0	f3 0f 10 05 00
	00 00 00	 movss	 xmm0, DWORD PTR __real@41200000
  000d8	6a 01		 push	 1
  000da	51		 push	 ecx
  000db	8b 4e 04	 mov	 ecx, DWORD PTR [esi+4]
  000de	f3 0f 11 04 24	 movss	 DWORD PTR [esp], xmm0
  000e3	ff 15 00 00 00
	00		 call	 DWORD PTR __imp_?ClearAllLoopAni@ioEntityGroup@@QAEXM_N@Z

; 614  : 
; 615  : 		m_pGroup->SetLoopAni( iAniID, 10.0f, 1.0f, 1.0f/fAniRate );

  000e9	0f 57 c0	 xorps	 xmm0, xmm0
  000ec	f2 0f 10 0d 00
	00 00 00	 movsd	 xmm1, QWORD PTR __real@3ff0000000000000
  000f4	8b 4e 04	 mov	 ecx, DWORD PTR [esi+4]
  000f7	83 ec 10	 sub	 esp, 16			; 00000010H
  000fa	f3 0f 11 44 24
	0c		 movss	 DWORD PTR [esp+12], xmm0
  00100	f3 0f 10 85 d4
	7f ff ff	 movss	 xmm0, DWORD PTR _fAniRate$531432[ebp]
  00108	0f 5a c0	 cvtps2pd xmm0, xmm0
  0010b	f2 0f 5e c8	 divsd	 xmm1, xmm0
  0010f	66 0f 5a c1	 cvtpd2ps xmm0, xmm1
  00113	f3 0f 11 44 24
	08		 movss	 DWORD PTR [esp+8], xmm0
  00119	f3 0f 10 05 00
	00 00 00	 movss	 xmm0, DWORD PTR __real@3f800000
  00121	f3 0f 11 44 24
	04		 movss	 DWORD PTR [esp+4], xmm0
  00127	f3 0f 10 05 00
	00 00 00	 movss	 xmm0, DWORD PTR __real@41200000
  0012f	f3 0f 11 04 24	 movss	 DWORD PTR [esp], xmm0
  00134	57		 push	 edi
  00135	ff 15 00 00 00
	00		 call	 DWORD PTR __imp_?SetLoopAni@ioEntityGroup@@QAE_NHMMMM@Z
$LN3@SetJumpSta:

; 616  : 	}
; 617  : 	
; 618  : 	if( GetOwner() && GetOwner()->IsNeedSendNetwork() )

  0013b	8b ce		 mov	 ecx, esi
  0013d	e8 00 00 00 00	 call	 ?GetOwner@ioDummyChar@@QBEPAVioBaseChar@@XZ ; ioDummyChar::GetOwner
  00142	85 c0		 test	 eax, eax
  00144	74 7b		 je	 SHORT $LN1@SetJumpSta
  00146	8b ce		 mov	 ecx, esi
  00148	e8 00 00 00 00	 call	 ?GetOwner@ioDummyChar@@QBEPAVioBaseChar@@XZ ; ioDummyChar::GetOwner
  0014d	8b 10		 mov	 edx, DWORD PTR [eax]
  0014f	8b c8		 mov	 ecx, eax
  00151	ff 92 04 01 00
	00		 call	 DWORD PTR [edx+260]
  00157	84 c0		 test	 al, al
  00159	74 66		 je	 SHORT $LN1@SetJumpSta

; 619  : 	{
; 620  : 		SP2Packet kPacket( CUPK_DUMMY_CHAR_SYNC );

  0015b	68 21 42 00 00	 push	 16929			; 00004221H
  00160	8d 8d d8 7f ff
	ff		 lea	 ecx, DWORD PTR _kPacket$531435[ebp]
  00166	e8 00 00 00 00	 call	 ??0SP2Packet@@QAE@K@Z	; SP2Packet::SP2Packet
  0016b	83 65 fc 00	 and	 DWORD PTR __$EHRec$[ebp+8], 0

; 621  : 		kPacket << m_OwnerName;

  0016f	8d 86 cc 01 00
	00		 lea	 eax, DWORD PTR [esi+460]
  00175	50		 push	 eax
  00176	8d 8d d8 7f ff
	ff		 lea	 ecx, DWORD PTR _kPacket$531435[ebp]
  0017c	e8 00 00 00 00	 call	 ??6SP2Packet@@QAEAAV0@ABVioHashString@@@Z ; SP2Packet::operator<<

; 622  : 		kPacket << m_iCreateIndex;

  00181	ff b6 dc 01 00
	00		 push	 DWORD PTR [esi+476]
  00187	8d 8d d8 7f ff
	ff		 lea	 ecx, DWORD PTR _kPacket$531435[ebp]
  0018d	e8 00 00 00 00	 call	 ??6SP2Packet@@QAEAAV0@H@Z ; SP2Packet::operator<<

; 623  : 		kPacket << DCST_JUMP;

  00192	68 ea 03 00 00	 push	 1002			; 000003eaH
  00197	8d 8d d8 7f ff
	ff		 lea	 ecx, DWORD PTR _kPacket$531435[ebp]
  0019d	e8 00 00 00 00	 call	 ??6SP2Packet@@QAEAAV0@H@Z ; SP2Packet::operator<<

; 624  : 		P2PNetwork::SendToAllPlayingUser( kPacket );

  001a2	8d 85 d8 7f ff
	ff		 lea	 eax, DWORD PTR _kPacket$531435[ebp]
  001a8	6a 00		 push	 0
  001aa	50		 push	 eax
  001ab	e8 00 00 00 00	 call	 ?SendToAllPlayingUser@P2PNetwork@@YAXAAVSP2Packet@@PAVioBaseChar@@@Z ; P2PNetwork::SendToAllPlayingUser

; 625  : 	}

  001b0	83 4d fc ff	 or	 DWORD PTR __$EHRec$[ebp+8], -1
  001b4	59		 pop	 ecx
  001b5	59		 pop	 ecx
  001b6	8d 8d d8 7f ff
	ff		 lea	 ecx, DWORD PTR _kPacket$531435[ebp]
  001bc	e8 00 00 00 00	 call	 ??1SP2Packet@@UAE@XZ	; SP2Packet::~SP2Packet
$LN1@SetJumpSta:

; 626  : }

  001c1	8b 4d f4	 mov	 ecx, DWORD PTR __$EHRec$[ebp]
  001c4	64 89 0d 00 00
	00 00		 mov	 DWORD PTR fs:0, ecx
  001cb	59		 pop	 ecx
  001cc	5f		 pop	 edi
  001cd	5e		 pop	 esi
  001ce	8b 4d f0	 mov	 ecx, DWORD PTR __$ArrayPad$[ebp]
  001d1	33 cd		 xor	 ecx, ebp
  001d3	e8 00 00 00 00	 call	 @__security_check_cookie@4
  001d8	c9		 leave
  001d9	c3		 ret	 0
_TEXT	ENDS
;	COMDAT text$x
text$x	SEGMENT
__unwindfunclet$?SetJumpState@ioTargetTrace16Dummy@@AAEXXZ$0:
  00000	8d 8d d8 7f ff
	ff		 lea	 ecx, DWORD PTR _kPacket$531435[ebp]
  00006	e9 00 00 00 00	 jmp	 ??1SP2Packet@@UAE@XZ	; SP2Packet::~SP2Packet
__ehhandler$?SetJumpState@ioTargetTrace16Dummy@@AAEXXZ:
  0000b	8b 54 24 08	 mov	 edx, DWORD PTR [esp+8]
  0000f	8d 42 0c	 lea	 eax, DWORD PTR [edx+12]
  00012	8b 8a d4 7f ff
	ff		 mov	 ecx, DWORD PTR [edx-32812]
  00018	33 c8		 xor	 ecx, eax
  0001a	e8 00 00 00 00	 call	 @__security_check_cookie@4
  0001f	8b 4a fc	 mov	 ecx, DWORD PTR [edx-4]
  00022	33 c8		 xor	 ecx, eax
  00024	e8 00 00 00 00	 call	 @__security_check_cookie@4
  00029	b8 00 00 00 00	 mov	 eax, OFFSET __ehfuncinfo$?SetJumpState@ioTargetTrace16Dummy@@AAEXXZ
  0002e	e9 00 00 00 00	 jmp	 ___CxxFrameHandler3
text$x	ENDS
?SetJumpState@ioTargetTrace16Dummy@@AAEXXZ ENDP		; ioTargetTrace16Dummy::SetJumpState
PUBLIC	__real@408f400000000000
PUBLIC	__real@4f800000
PUBLIC	__$ArrayPad$
PUBLIC	?ProcessGravityMove@ioTargetTrace16Dummy@@AAEXM@Z ; ioTargetTrace16Dummy::ProcessGravityMove
EXTRN	?GetRoomGravity@ioPlayStage@@QAEMXZ:PROC	; ioPlayStage::GetRoomGravity
EXTRN	?GetBottomHeight@ioGameEntity@@QBEMXZ:PROC	; ioGameEntity::GetBottomHeight
;	COMDAT __real@408f400000000000
; File d:\lost saga for developer\youtube\tutorial\source\src\lsclient\encryptvalue.h
CONST	SEGMENT
__real@408f400000000000 DQ 0408f400000000000r	; 1000
CONST	ENDS
;	COMDAT __real@4f800000
CONST	SEGMENT
__real@4f800000 DD 04f800000r			; 4.29497e+009
; Function compile flags: /Ogsp
; File d:\lost saga for developer\youtube\tutorial\source\src\lsclient\iotargettrace16dummy.cpp
CONST	ENDS
;	COMDAT ?ProcessGravityMove@ioTargetTrace16Dummy@@AAEXM@Z
_TEXT	SEGMENT
_value$539321 = -60					; size = 4
_value$539341 = -56					; size = 4
_value$539329 = -52					; size = 4
_value$539346 = -48					; size = 4
_value$539324 = -44					; size = 4
tv405 = -40						; size = 4
$T539313 = -40						; size = 4
_fCurRate$532475 = -36					; size = 4
_value$539337 = -32					; size = 4
_fNewTimePerSec$532470 = -28				; size = 4
_fMapHeight$532462 = -24				; size = 4
_value$539358 = -20					; size = 4
_value$539354 = -20					; size = 4
_value$539350 = -20					; size = 4
_vCurPos$532461 = -16					; size = 12
__$ArrayPad$ = -4					; size = 4
_fTimePerSec$ = 8					; size = 4
?ProcessGravityMove@ioTargetTrace16Dummy@@AAEXM@Z PROC	; ioTargetTrace16Dummy::ProcessGravityMove, COMDAT
; _this$ = ecx

; 852  : {

  00000	55		 push	 ebp
  00001	8b ec		 mov	 ebp, esp
  00003	83 ec 3c	 sub	 esp, 60			; 0000003cH
  00006	a1 00 00 00 00	 mov	 eax, DWORD PTR ___security_cookie
  0000b	33 c5		 xor	 eax, ebp
  0000d	89 45 fc	 mov	 DWORD PTR __$ArrayPad$[ebp], eax
  00010	53		 push	 ebx
  00011	8b d9		 mov	 ebx, ecx

; 853  : 	if( !m_bNoGravityMove )

  00013	80 bb 6a 14 00
	00 00		 cmp	 BYTE PTR [ebx+5226], 0
  0001a	0f 85 1d 02 00
	00		 jne	 $LN11@ProcessGra

; 854  : 	{
; 855  : 		D3DXVECTOR3 vPrePos = GetWorldPosition();

  00020	8b 03		 mov	 eax, DWORD PTR [ebx]
  00022	56		 push	 esi
  00023	57		 push	 edi
  00024	ff 50 70	 call	 DWORD PTR [eax+112]

; 856  : 		D3DXVECTOR3 vCurPos = vPrePos;

  00027	8b f0		 mov	 esi, eax
  00029	8d 7d f0	 lea	 edi, DWORD PTR _vCurPos$532461[ebp]
  0002c	a5		 movsd
  0002d	a5		 movsd

; 857  : 		float fMapHeight = GetBottomHeight();

  0002e	8b cb		 mov	 ecx, ebx
  00030	a5		 movsd
  00031	e8 00 00 00 00	 call	 ?GetBottomHeight@ioGameEntity@@QBEMXZ ; ioGameEntity::GetBottomHeight
  00036	d9 5d e8	 fstp	 DWORD PTR _fMapHeight$532462[ebp]

; 858  : 
; 859  : 		DWORD dwGapTime = FRAMEGETTIME() - m_dwProcessTime;

  00039	ff 15 00 00 00
	00		 call	 DWORD PTR __imp_?GetSingleton@ioFrameTimer@@SAAAV1@XZ
  0003f	8b c8		 mov	 ecx, eax
  00041	ff 15 00 00 00
	00		 call	 DWORD PTR __imp_?GetLoopSec@ioFrameTimer@@QBEKXZ
  00047	8b f0		 mov	 esi, eax
  00049	2b b3 1c 02 00
	00		 sub	 esi, DWORD PTR [ebx+540]
$LL10@ProcessGra:

; 860  : 
; 861  : 		do 
; 862  : 		{
; 863  : 			DWORD dwCurGap = min( dwGapTime, 10 );

  0004f	6a 0a		 push	 10			; 0000000aH
  00051	58		 pop	 eax
  00052	3b f0		 cmp	 esi, eax
  00054	8b ce		 mov	 ecx, esi
  00056	0f 43 c8	 cmovae	 ecx, eax

; 864  : 			if( dwGapTime >= 10 )

  00059	72 04		 jb	 SHORT $LN7@ProcessGra

; 865  : 			{
; 866  : 				dwGapTime -= 10;

  0005b	2b f0		 sub	 esi, eax

; 867  : 			}
; 868  : 			else

  0005d	eb 04		 jmp	 SHORT $LN6@ProcessGra
$LN7@ProcessGra:

; 869  : 			{
; 870  : 				dwCurGap = dwGapTime;

  0005f	8b ce		 mov	 ecx, esi

; 871  : 				dwGapTime = 0;

  00061	33 f6		 xor	 esi, esi
$LN6@ProcessGra:

; 872  : 			}
; 873  : 
; 874  : 			float fNewTimePerSec = (float)dwCurGap / 1000.0f;

  00063	89 4d d8	 mov	 DWORD PTR tv405[ebp], ecx
  00066	db 45 d8	 fild	 DWORD PTR tv405[ebp]
  00069	85 c9		 test	 ecx, ecx
  0006b	79 06		 jns	 SHORT $LN42@ProcessGra
  0006d	d8 05 00 00 00
	00		 fadd	 DWORD PTR __real@4f800000
$LN42@ProcessGra:
  00073	dc 35 00 00 00
	00		 fdiv	 QWORD PTR __real@408f400000000000

; 875  : 
; 876  : 			if( m_fCurJumpPowerAmt > 0.0f )

  00079	8d 45 c4	 lea	 eax, DWORD PTR _value$539321[ebp]
  0007c	50		 push	 eax
  0007d	8d 8b 20 03 00
	00		 lea	 ecx, DWORD PTR [ebx+800]
  00083	d9 5d e4	 fstp	 DWORD PTR _fNewTimePerSec$532470[ebp]
  00086	e8 00 00 00 00	 call	 ?DecryptValueToPool@?$CEncrypt@M@@QAEXPAM@Z ; CEncrypt<float>::DecryptValueToPool
  0008b	f3 0f 10 45 c4	 movss	 xmm0, DWORD PTR _value$539321[ebp]
  00090	0f 2f 05 00 00
	00 00		 comiss	 xmm0, DWORD PTR __real@00000000
  00097	76 40		 jbe	 SHORT $LN40@ProcessGra

; 877  : 			{
; 878  : 				vCurPos.y += m_fCurJumpPowerAmt * fNewTimePerSec;

  00099	8d 45 d4	 lea	 eax, DWORD PTR _value$539324[ebp]
  0009c	50		 push	 eax
  0009d	8d 8b 20 03 00
	00		 lea	 ecx, DWORD PTR [ebx+800]
  000a3	e8 00 00 00 00	 call	 ?DecryptValueToPool@?$CEncrypt@M@@QAEXPAM@Z ; CEncrypt<float>::DecryptValueToPool
  000a8	f3 0f 10 45 d4	 movss	 xmm0, DWORD PTR _value$539324[ebp]
  000ad	f3 0f 10 4d e4	 movss	 xmm1, DWORD PTR _fNewTimePerSec$532470[ebp]
  000b2	0f 5a c0	 cvtps2pd xmm0, xmm0
  000b5	0f 5a c9	 cvtps2pd xmm1, xmm1
  000b8	f2 0f 59 c1	 mulsd	 xmm0, xmm1
  000bc	f3 0f 10 4d f4	 movss	 xmm1, DWORD PTR _vCurPos$532461[ebp+4]
  000c1	66 0f 5a c0	 cvtpd2ps xmm0, xmm0
  000c5	f3 0f 5a c0	 cvtss2sd xmm0, xmm0
  000c9	0f 5a c9	 cvtps2pd xmm1, xmm1
  000cc	f2 0f 58 c1	 addsd	 xmm0, xmm1
  000d0	66 0f 5a c0	 cvtpd2ps xmm0, xmm0
  000d4	f3 0f 11 45 f4	 movss	 DWORD PTR _vCurPos$532461[ebp+4], xmm0
$LN40@ProcessGra:

; 879  : 			}
; 880  : 
; 881  : 			if( vCurPos.y > fMapHeight )

  000d9	f3 0f 10 45 f4	 movss	 xmm0, DWORD PTR _vCurPos$532461[ebp+4]
  000de	f3 0f 10 4d e8	 movss	 xmm1, DWORD PTR _fMapHeight$532462[ebp]
  000e3	0f 5a c0	 cvtps2pd xmm0, xmm0
  000e6	0f 5a c9	 cvtps2pd xmm1, xmm1
  000e9	66 0f 2f c1	 comisd	 xmm0, xmm1
  000ed	0f 86 ec 00 00
	00		 jbe	 $LN9@ProcessGra

; 882  : 			{
; 883  : 				float fCurRate = m_fGravityRate;

  000f3	8d 45 cc	 lea	 eax, DWORD PTR _value$539329[ebp]
  000f6	50		 push	 eax
  000f7	8d 8b f0 02 00
	00		 lea	 ecx, DWORD PTR [ebx+752]
  000fd	e8 00 00 00 00	 call	 ?DecryptValueToPool@?$CEncrypt@M@@QAEXPAM@Z ; CEncrypt<float>::DecryptValueToPool
  00102	f3 0f 10 45 cc	 movss	 xmm0, DWORD PTR _value$539329[ebp]

; 884  : 				if( fCurRate <= 0.0f )

  00107	0f 57 c9	 xorps	 xmm1, xmm1
  0010a	0f 2f c8	 comiss	 xmm1, xmm0
  0010d	f3 0f 11 45 dc	 movss	 DWORD PTR _fCurRate$532475[ebp], xmm0
  00112	72 0d		 jb	 SHORT $LN3@ProcessGra

; 885  : 					fCurRate = 1.0f;

  00114	f3 0f 10 05 00
	00 00 00	 movss	 xmm0, DWORD PTR __real@3f800000
  0011c	f3 0f 11 45 dc	 movss	 DWORD PTR _fCurRate$532475[ebp], xmm0
$LN3@ProcessGra:

; 886  : 
; 887  : 				m_fGravityAmt += (m_pModeParent->GetCreator()->GetRoomGravity() * fCurRate )* fNewTimePerSec;

  00121	8b 83 8c 00 00
	00		 mov	 eax, DWORD PTR [ebx+140]
  00127	8b 48 34	 mov	 ecx, DWORD PTR [eax+52]
  0012a	e8 00 00 00 00	 call	 ?GetRoomGravity@ioPlayStage@@QAEMXZ ; ioPlayStage::GetRoomGravity
  0012f	d8 4d dc	 fmul	 DWORD PTR _fCurRate$532475[ebp]
  00132	8d 45 e0	 lea	 eax, DWORD PTR _value$539337[ebp]
  00135	50		 push	 eax
  00136	d8 4d e4	 fmul	 DWORD PTR _fNewTimePerSec$532470[ebp]
  00139	8d 8b c0 02 00
	00		 lea	 ecx, DWORD PTR [ebx+704]
  0013f	d9 5d d8	 fstp	 DWORD PTR $T539313[ebp]
  00142	e8 00 00 00 00	 call	 ?DecryptValueToPool@?$CEncrypt@M@@QAEXPAM@Z ; CEncrypt<float>::DecryptValueToPool
  00147	d9 45 e0	 fld	 DWORD PTR _value$539337[ebp]
  0014a	8d 45 e0	 lea	 eax, DWORD PTR _value$539337[ebp]
  0014d	d8 45 d8	 fadd	 DWORD PTR $T539313[ebp]
  00150	50		 push	 eax
  00151	8d 8b c0 02 00
	00		 lea	 ecx, DWORD PTR [ebx+704]
  00157	d9 5d e0	 fstp	 DWORD PTR _value$539337[ebp]
  0015a	e8 00 00 00 00	 call	 ?EncryptValueToPool@?$CEncrypt@M@@AAEXPBD@Z ; CEncrypt<float>::EncryptValueToPool

; 888  : 				vCurPos.y -= m_fGravityAmt * fNewTimePerSec;

  0015f	8d 45 c8	 lea	 eax, DWORD PTR _value$539341[ebp]
  00162	50		 push	 eax
  00163	8d 8b c0 02 00
	00		 lea	 ecx, DWORD PTR [ebx+704]
  00169	e8 00 00 00 00	 call	 ?DecryptValueToPool@?$CEncrypt@M@@QAEXPAM@Z ; CEncrypt<float>::DecryptValueToPool
  0016e	f3 0f 10 4d c8	 movss	 xmm1, DWORD PTR _value$539341[ebp]
  00173	f3 0f 10 55 e4	 movss	 xmm2, DWORD PTR _fNewTimePerSec$532470[ebp]
  00178	f3 0f 10 45 f4	 movss	 xmm0, DWORD PTR _vCurPos$532461[ebp+4]
  0017d	0f 5a c9	 cvtps2pd xmm1, xmm1
  00180	0f 5a d2	 cvtps2pd xmm2, xmm2
  00183	f2 0f 59 ca	 mulsd	 xmm1, xmm2
  00187	66 0f 5a c9	 cvtpd2ps xmm1, xmm1
  0018b	0f 5a c0	 cvtps2pd xmm0, xmm0
  0018e	f3 0f 5a c9	 cvtss2sd xmm1, xmm1
  00192	f2 0f 5c c1	 subsd	 xmm0, xmm1

; 889  : 
; 890  : 				if( vCurPos.y <= fMapHeight )

  00196	f3 0f 10 4d e8	 movss	 xmm1, DWORD PTR _fMapHeight$532462[ebp]
  0019b	66 0f 5a c0	 cvtpd2ps xmm0, xmm0
  0019f	f3 0f 11 45 f4	 movss	 DWORD PTR _vCurPos$532461[ebp+4], xmm0
  001a4	f3 0f 5a c0	 cvtss2sd xmm0, xmm0
  001a8	0f 5a c9	 cvtps2pd xmm1, xmm1
  001ab	66 0f 2f c8	 comisd	 xmm1, xmm0
  001af	72 2e		 jb	 SHORT $LN9@ProcessGra

; 891  : 				{
; 892  : 					m_fGravityAmt = 0.0f;

  001b1	0f 57 c0	 xorps	 xmm0, xmm0
  001b4	8d 45 d0	 lea	 eax, DWORD PTR _value$539346[ebp]
  001b7	50		 push	 eax
  001b8	8d 8b c0 02 00
	00		 lea	 ecx, DWORD PTR [ebx+704]
  001be	f3 0f 11 45 d0	 movss	 DWORD PTR _value$539346[ebp], xmm0
  001c3	e8 00 00 00 00	 call	 ?EncryptValueToPool@?$CEncrypt@M@@AAEXPBD@Z ; CEncrypt<float>::EncryptValueToPool

; 893  : 					m_fCurJumpPowerAmt = 0.0f;

  001c8	0f 57 c0	 xorps	 xmm0, xmm0
  001cb	8d 45 ec	 lea	 eax, DWORD PTR _value$539350[ebp]
  001ce	50		 push	 eax
  001cf	8d 8b 20 03 00
	00		 lea	 ecx, DWORD PTR [ebx+800]
  001d5	f3 0f 11 45 ec	 movss	 DWORD PTR _value$539350[ebp], xmm0
  001da	e8 00 00 00 00	 call	 ?EncryptValueToPool@?$CEncrypt@M@@AAEXPBD@Z ; CEncrypt<float>::EncryptValueToPool
$LN9@ProcessGra:

; 894  : 				}
; 895  : 			}
; 896  : 		} while( dwGapTime > 0 );

  001df	85 f6		 test	 esi, esi
  001e1	0f 85 68 fe ff
	ff		 jne	 $LL10@ProcessGra

; 897  : 
; 898  : 		if( vCurPos.y < fMapHeight )

  001e7	f3 0f 10 4d f4	 movss	 xmm1, DWORD PTR _vCurPos$532461[ebp+4]
  001ec	f3 0f 10 45 e8	 movss	 xmm0, DWORD PTR _fMapHeight$532462[ebp]
  001f1	0f 5a c9	 cvtps2pd xmm1, xmm1
  001f4	0f 5a d0	 cvtps2pd xmm2, xmm0
  001f7	66 0f 2f d1	 comisd	 xmm2, xmm1
  001fb	5f		 pop	 edi
  001fc	5e		 pop	 esi
  001fd	76 33		 jbe	 SHORT $LN36@ProcessGra

; 899  : 		{
; 900  : 			vCurPos.y = fMapHeight;
; 901  : 			m_fGravityAmt = 0.0f;

  001ff	8d 45 ec	 lea	 eax, DWORD PTR _value$539354[ebp]
  00202	f3 0f 11 45 f4	 movss	 DWORD PTR _vCurPos$532461[ebp+4], xmm0
  00207	0f 57 c0	 xorps	 xmm0, xmm0
  0020a	8d 8b c0 02 00
	00		 lea	 ecx, DWORD PTR [ebx+704]
  00210	50		 push	 eax
  00211	f3 0f 11 45 ec	 movss	 DWORD PTR _value$539354[ebp], xmm0
  00216	e8 00 00 00 00	 call	 ?EncryptValueToPool@?$CEncrypt@M@@AAEXPBD@Z ; CEncrypt<float>::EncryptValueToPool

; 902  : 			m_fCurJumpPowerAmt = 0.0f;

  0021b	0f 57 c0	 xorps	 xmm0, xmm0
  0021e	8d 45 ec	 lea	 eax, DWORD PTR _value$539358[ebp]
  00221	50		 push	 eax
  00222	8d 8b 20 03 00
	00		 lea	 ecx, DWORD PTR [ebx+800]
  00228	f3 0f 11 45 ec	 movss	 DWORD PTR _value$539358[ebp], xmm0
  0022d	e8 00 00 00 00	 call	 ?EncryptValueToPool@?$CEncrypt@M@@AAEXPBD@Z ; CEncrypt<float>::EncryptValueToPool
$LN36@ProcessGra:

; 903  : 		}
; 904  : 
; 905  : 		SetWorldPosition( vCurPos );

  00232	8b 03		 mov	 eax, DWORD PTR [ebx]
  00234	8d 4d f0	 lea	 ecx, DWORD PTR _vCurPos$532461[ebp]
  00237	51		 push	 ecx
  00238	8b cb		 mov	 ecx, ebx
  0023a	ff 50 44	 call	 DWORD PTR [eax+68]
$LN11@ProcessGra:

; 906  : 	}
; 907  : }

  0023d	8b 4d fc	 mov	 ecx, DWORD PTR __$ArrayPad$[ebp]
  00240	33 cd		 xor	 ecx, ebp
  00242	5b		 pop	 ebx
  00243	e8 00 00 00 00	 call	 @__security_check_cookie@4
  00248	c9		 leave
  00249	c2 04 00	 ret	 4
?ProcessGravityMove@ioTargetTrace16Dummy@@AAEXM@Z ENDP	; ioTargetTrace16Dummy::ProcessGravityMove
_TEXT	ENDS
PUBLIC	__real@4008000000000000
PUBLIC	?DropZoneCheck@ioTargetTrace16Dummy@@EAEXXZ	; ioTargetTrace16Dummy::DropZoneCheck
EXTRN	__imp_??4ioHashString@@QAEAAV0@ABV0@@Z:PROC
EXTRN	?GetMapHeightNoneEntity@ioPlayStage@@QAEMMMM_N@Z:PROC ; ioPlayStage::GetMapHeightNoneEntity
;	COMDAT __real@4008000000000000
; File d:\lost saga for developer\youtube\tutorial\source\src\lsclient\encryptvalue.h
CONST	SEGMENT
__real@4008000000000000 DQ 04008000000000000r	; 3
; Function compile flags: /Ogsp
; File d:\lost saga for developer\youtube\tutorial\source\src\lsclient\iotargettrace16dummy.cpp
CONST	ENDS
;	COMDAT ?DropZoneCheck@ioTargetTrace16Dummy@@EAEXXZ
_TEXT	SEGMENT
_vPos$ = -16						; size = 12
_vCurPos$532576 = -16					; size = 12
_value$539407 = -4					; size = 4
_value$539401 = -4					; size = 4
_value$539395 = -4					; size = 4
_value$539391 = -4					; size = 4
_value$539376 = -4					; size = 4
?DropZoneCheck@ioTargetTrace16Dummy@@EAEXXZ PROC	; ioTargetTrace16Dummy::DropZoneCheck, COMDAT
; _this$ = ecx

; 1063 : {

  00000	55		 push	 ebp
  00001	8b ec		 mov	 ebp, esp
  00003	83 ec 10	 sub	 esp, 16			; 00000010H
  00006	53		 push	 ebx
  00007	56		 push	 esi
  00008	57		 push	 edi
  00009	8b d9		 mov	 ebx, ecx

; 1064 : 	if( m_dwDropZoneLiveTime > 0 )

  0000b	8d 45 fc	 lea	 eax, DWORD PTR _value$539376[ebp]
  0000e	8d 8b 08 12 00
	00		 lea	 ecx, DWORD PTR [ebx+4616]
  00014	50		 push	 eax
  00015	e8 00 00 00 00	 call	 ?DecryptValueToPool@?$CEncrypt@K@@QAEXPAK@Z ; CEncrypt<unsigned long>::DecryptValueToPool
  0001a	83 7d fc 00	 cmp	 DWORD PTR _value$539376[ebp], 0
  0001e	0f 86 06 01 00
	00		 jbe	 $LN3@DropZoneCh

; 1065 : 	{
; 1066 : 		bool bCheckDropZone = false;
; 1067 : 		if( m_dwDropZoneCheckStartTime <= 0 )

  00024	83 bb 38 12 00
	00 00		 cmp	 DWORD PTR [ebx+4664], 0
  0002b	77 14		 ja	 SHORT $LN6@DropZoneCh

; 1068 : 			m_dwDropZoneCheckStartTime = FRAMEGETTIME();

  0002d	ff 15 00 00 00
	00		 call	 DWORD PTR __imp_?GetSingleton@ioFrameTimer@@SAAAV1@XZ
  00033	8b c8		 mov	 ecx, eax
  00035	ff 15 00 00 00
	00		 call	 DWORD PTR __imp_?GetLoopSec@ioFrameTimer@@QBEKXZ
  0003b	89 83 38 12 00
	00		 mov	 DWORD PTR [ebx+4664], eax
$LN6@DropZoneCh:

; 1069 : 
; 1070 : 		D3DXVECTOR3 vCurPos = GetWorldPosition();

  00041	8b 03		 mov	 eax, DWORD PTR [ebx]
  00043	8b cb		 mov	 ecx, ebx
  00045	ff 50 70	 call	 DWORD PTR [eax+112]
  00048	8b f0		 mov	 esi, eax
  0004a	8d 7d f0	 lea	 edi, DWORD PTR _vCurPos$532576[ebp]
  0004d	a5		 movsd
  0004e	a5		 movsd

; 1071 : 
; 1072 : 		if( GetOwner() &&
; 1073 : 			GetOwner()->GetCreator() &&
; 1074 : 			GetOwner()->GetCreator()->GetMapHeightNoneEntity( vCurPos.x, vCurPos.z, vCurPos.y+3.0f ) <= 0.0f )

  0004f	8b cb		 mov	 ecx, ebx
  00051	a5		 movsd
  00052	e8 00 00 00 00	 call	 ?GetOwner@ioDummyChar@@QBEPAVioBaseChar@@XZ ; ioDummyChar::GetOwner
  00057	85 c0		 test	 eax, eax
  00059	74 5e		 je	 SHORT $LN29@DropZoneCh
  0005b	8b cb		 mov	 ecx, ebx
  0005d	e8 00 00 00 00	 call	 ?GetOwner@ioDummyChar@@QBEPAVioBaseChar@@XZ ; ioDummyChar::GetOwner
  00062	33 f6		 xor	 esi, esi
  00064	39 b0 44 03 00
	00		 cmp	 DWORD PTR [eax+836], esi
  0006a	74 4d		 je	 SHORT $LN29@DropZoneCh
  0006c	8b cb		 mov	 ecx, ebx
  0006e	e8 00 00 00 00	 call	 ?GetOwner@ioDummyChar@@QBEPAVioBaseChar@@XZ ; ioDummyChar::GetOwner
  00073	f3 0f 10 45 f4	 movss	 xmm0, DWORD PTR _vCurPos$532576[ebp+4]
  00078	8b 88 44 03 00
	00		 mov	 ecx, DWORD PTR [eax+836]
  0007e	0f 5a c0	 cvtps2pd xmm0, xmm0
  00081	f2 0f 58 05 00
	00 00 00	 addsd	 xmm0, QWORD PTR __real@4008000000000000
  00089	56		 push	 esi
  0008a	83 ec 0c	 sub	 esp, 12			; 0000000cH
  0008d	66 0f 5a c0	 cvtpd2ps xmm0, xmm0
  00091	f3 0f 11 44 24
	08		 movss	 DWORD PTR [esp+8], xmm0
  00097	f3 0f 10 45 f8	 movss	 xmm0, DWORD PTR _vCurPos$532576[ebp+8]
  0009c	f3 0f 11 44 24
	04		 movss	 DWORD PTR [esp+4], xmm0
  000a2	f3 0f 10 45 f0	 movss	 xmm0, DWORD PTR _vCurPos$532576[ebp]
  000a7	f3 0f 11 04 24	 movss	 DWORD PTR [esp], xmm0
  000ac	e8 00 00 00 00	 call	 ?GetMapHeightNoneEntity@ioPlayStage@@QAEMMMM_N@Z ; ioPlayStage::GetMapHeightNoneEntity
  000b1	d9 ee		 fldz
  000b3	df f1		 fcomip	 ST(1)
  000b5	dd d8		 fstp	 ST(0)

; 1075 : 			bCheckDropZone = true;
; 1076 : 
; 1077 : 		if( !bCheckDropZone )

  000b7	73 09		 jae	 SHORT $LN26@DropZoneCh
$LN29@DropZoneCh:

; 1078 : 			m_dwDropZoneCheckStartTime = 0;

  000b9	83 a3 38 12 00
	00 00		 and	 DWORD PTR [ebx+4664], 0

; 1079 : 
; 1080 : 		if( bCheckDropZone && m_dwDropZoneCheckStartTime > 0 && m_dwDropZoneCheckStartTime + m_dwDropZoneLiveTime <= FRAMEGETTIME() )

  000c0	eb 68		 jmp	 SHORT $LN3@DropZoneCh
$LN26@DropZoneCh:
  000c2	39 b3 38 12 00
	00		 cmp	 DWORD PTR [ebx+4664], esi
  000c8	76 60		 jbe	 SHORT $LN3@DropZoneCh
  000ca	8d 45 fc	 lea	 eax, DWORD PTR _value$539391[ebp]
  000cd	50		 push	 eax
  000ce	8d 8b 08 12 00
	00		 lea	 ecx, DWORD PTR [ebx+4616]
  000d4	e8 00 00 00 00	 call	 ?DecryptValueToPool@?$CEncrypt@K@@QAEXPAK@Z ; CEncrypt<unsigned long>::DecryptValueToPool
  000d9	ff 15 00 00 00
	00		 call	 DWORD PTR __imp_?GetSingleton@ioFrameTimer@@SAAAV1@XZ
  000df	8b c8		 mov	 ecx, eax
  000e1	ff 15 00 00 00
	00		 call	 DWORD PTR __imp_?GetLoopSec@ioFrameTimer@@QBEKXZ
  000e7	8b 8b 38 12 00
	00		 mov	 ecx, DWORD PTR [ebx+4664]
  000ed	03 4d fc	 add	 ecx, DWORD PTR _value$539391[ebp]
  000f0	3b c8		 cmp	 ecx, eax
  000f2	77 36		 ja	 SHORT $LN3@DropZoneCh

; 1081 : 		{
; 1082 : 			m_HP.m_fCurValue = 0.0f;

  000f4	0f 57 c0	 xorps	 xmm0, xmm0
  000f7	8d 45 fc	 lea	 eax, DWORD PTR _value$539395[ebp]
  000fa	50		 push	 eax
  000fb	8d 8b c0 00 00
	00		 lea	 ecx, DWORD PTR [ebx+192]
  00101	f3 0f 11 45 fc	 movss	 DWORD PTR _value$539395[ebp], xmm0
  00106	e8 00 00 00 00	 call	 ?EncryptValueToPool@?$CEncrypt@M@@AAEXPBD@Z ; CEncrypt<float>::EncryptValueToPool

; 1083 : 			m_LastAttacker = m_OwnerName;

  0010b	8d 83 cc 01 00
	00		 lea	 eax, DWORD PTR [ebx+460]
  00111	50		 push	 eax
  00112	8d 8b 30 05 00
	00		 lea	 ecx, DWORD PTR [ebx+1328]
  00118	ff 15 00 00 00
	00		 call	 DWORD PTR __imp_??4ioHashString@@QAEAAV0@ABV0@@Z

; 1084 : 
; 1085 : 			SetDieState( true );

  0011e	8b 03		 mov	 eax, DWORD PTR [ebx]
  00120	6a 01		 push	 1
  00122	8b cb		 mov	 ecx, ebx
  00124	ff 90 60 01 00
	00		 call	 DWORD PTR [eax+352]
$LN3@DropZoneCh:

; 1086 : 		}
; 1087 : 	}
; 1088 : 
; 1089 : 	if ( m_TraceDummyState == TDS_ATTACK )

  0012a	83 bb 80 14 00
	00 05		 cmp	 DWORD PTR [ebx+5248], 5
  00131	74 61		 je	 SHORT $LN1@DropZoneCh

; 1090 : 		return;
; 1091 : 
; 1092 : 	D3DXVECTOR3 vPos = GetWorldPosition();

  00133	8b 03		 mov	 eax, DWORD PTR [ebx]
  00135	8b cb		 mov	 ecx, ebx
  00137	ff 50 70	 call	 DWORD PTR [eax+112]
  0013a	8b f0		 mov	 esi, eax
  0013c	8d 7d f0	 lea	 edi, DWORD PTR _vPos$[ebp]
  0013f	a5		 movsd
  00140	a5		 movsd

; 1093 : 
; 1094 : 	if( m_HP.m_fCurValue > 0.0f && vPos.y <= 0.0f )

  00141	8d 45 fc	 lea	 eax, DWORD PTR _value$539401[ebp]
  00144	50		 push	 eax
  00145	8d 8b c0 00 00
	00		 lea	 ecx, DWORD PTR [ebx+192]
  0014b	a5		 movsd
  0014c	e8 00 00 00 00	 call	 ?DecryptValueToPool@?$CEncrypt@M@@QAEXPAM@Z ; CEncrypt<float>::DecryptValueToPool
  00151	f3 0f 10 4d fc	 movss	 xmm1, DWORD PTR _value$539401[ebp]
  00156	0f 57 c0	 xorps	 xmm0, xmm0
  00159	0f 2f c8	 comiss	 xmm1, xmm0
  0015c	76 36		 jbe	 SHORT $LN1@DropZoneCh
  0015e	0f 2f 45 f4	 comiss	 xmm0, DWORD PTR _vPos$[ebp+4]
  00162	72 30		 jb	 SHORT $LN1@DropZoneCh

; 1095 : 	{
; 1096 : 		m_HP.m_fCurValue = 0.0f;

  00164	8d 45 fc	 lea	 eax, DWORD PTR _value$539407[ebp]
  00167	50		 push	 eax
  00168	8d 8b c0 00 00
	00		 lea	 ecx, DWORD PTR [ebx+192]
  0016e	f3 0f 11 45 fc	 movss	 DWORD PTR _value$539407[ebp], xmm0
  00173	e8 00 00 00 00	 call	 ?EncryptValueToPool@?$CEncrypt@M@@AAEXPBD@Z ; CEncrypt<float>::EncryptValueToPool

; 1097 : 		m_LastAttacker = m_OwnerName;

  00178	8d 83 cc 01 00
	00		 lea	 eax, DWORD PTR [ebx+460]
  0017e	50		 push	 eax
  0017f	8d 8b 30 05 00
	00		 lea	 ecx, DWORD PTR [ebx+1328]
  00185	ff 15 00 00 00
	00		 call	 DWORD PTR __imp_??4ioHashString@@QAEAAV0@ABV0@@Z

; 1098 : 
; 1099 : 		SendDieState( true );

  0018b	6a 01		 push	 1
  0018d	8b cb		 mov	 ecx, ebx
  0018f	e8 00 00 00 00	 call	 ?SendDieState@ioDummyChar@@QAEX_N@Z ; ioDummyChar::SendDieState
$LN1@DropZoneCh:
  00194	5f		 pop	 edi
  00195	5e		 pop	 esi
  00196	5b		 pop	 ebx

; 1100 : 	}
; 1101 : }

  00197	c9		 leave
  00198	c3		 ret	 0
?DropZoneCheck@ioTargetTrace16Dummy@@EAEXXZ ENDP	; ioTargetTrace16Dummy::DropZoneCheck
_TEXT	ENDS
PUBLIC	??9?$_Vector_const_iterator@V?$_Vector_val@PAVioBaseChar@@V?$allocator@PAVioBaseChar@@@std@@@std@@@std@@QBE_NABV01@@Z ; std::_Vector_const_iterator<std::_Vector_val<ioBaseChar *,std::allocator<ioBaseChar *> > >::operator!=
; Function compile flags: /Ogsp
; File c:\program files (x86)\microsoft visual studio 10.0\vc\include\vector
;	COMDAT ??9?$_Vector_const_iterator@V?$_Vector_val@PAVioBaseChar@@V?$allocator@PAVioBaseChar@@@std@@@std@@@std@@QBE_NABV01@@Z
_TEXT	SEGMENT
__Right$ = 8						; size = 4
??9?$_Vector_const_iterator@V?$_Vector_val@PAVioBaseChar@@V?$allocator@PAVioBaseChar@@@std@@@std@@@std@@QBE_NABV01@@Z PROC ; std::_Vector_const_iterator<std::_Vector_val<ioBaseChar *,std::allocator<ioBaseChar *> > >::operator!=, COMDAT
; _this$ = ecx

; 207  : 		{	// test for iterator inequality

  00000	55		 push	 ebp
  00001	8b ec		 mov	 ebp, esp

; 208  : 		return (!(*this == _Right));

  00003	8b 01		 mov	 eax, DWORD PTR [ecx]
  00005	8b 55 08	 mov	 edx, DWORD PTR __Right$[ebp]
  00008	33 c9		 xor	 ecx, ecx
  0000a	3b 02		 cmp	 eax, DWORD PTR [edx]
  0000c	0f 95 c0	 setne	 al

; 209  : 		}

  0000f	5d		 pop	 ebp
  00010	c2 04 00	 ret	 4
??9?$_Vector_const_iterator@V?$_Vector_val@PAVioBaseChar@@V?$allocator@PAVioBaseChar@@@std@@@std@@@std@@QBE_NABV01@@Z ENDP ; std::_Vector_const_iterator<std::_Vector_val<ioBaseChar *,std::allocator<ioBaseChar *> > >::operator!=
_TEXT	ENDS
PUBLIC	??D?$_List_iterator@V?$_List_val@UFireTime@@V?$allocator@UFireTime@@@std@@@std@@@std@@QBEAAUFireTime@@XZ ; std::_List_iterator<std::_List_val<FireTime,std::allocator<FireTime> > >::operator*
; Function compile flags: /Ogsp
; File c:\program files (x86)\microsoft visual studio 10.0\vc\include\list
;	COMDAT ??D?$_List_iterator@V?$_List_val@UFireTime@@V?$allocator@UFireTime@@@std@@@std@@@std@@QBEAAUFireTime@@XZ
_TEXT	SEGMENT
??D?$_List_iterator@V?$_List_val@UFireTime@@V?$allocator@UFireTime@@@std@@@std@@@std@@QBEAAUFireTime@@XZ PROC ; std::_List_iterator<std::_List_val<FireTime,std::allocator<FireTime> > >::operator*, COMDAT
; _this$ = ecx

; 360  : 		return ((reference)**(_Mybase *)this);

  00000	8b 01		 mov	 eax, DWORD PTR [ecx]
  00002	83 c0 08	 add	 eax, 8

; 361  : 		}

  00005	c3		 ret	 0
??D?$_List_iterator@V?$_List_val@UFireTime@@V?$allocator@UFireTime@@@std@@@std@@@std@@QBEAAUFireTime@@XZ ENDP ; std::_List_iterator<std::_List_val<FireTime,std::allocator<FireTime> > >::operator*
_TEXT	ENDS
PUBLIC	??C?$_Tree_iterator@V?$_Tree_val@V?$_Tmap_traits@HUtagDummyAttackInfo@@U?$less@H@std@@V?$allocator@U?$pair@$$CBHUtagDummyAttackInfo@@@std@@@3@$0A@@std@@@std@@@std@@QBEPAU?$pair@$$CBHUtagDummyAttackInfo@@@1@XZ ; std::_Tree_iterator<std::_Tree_val<std::_Tmap_traits<int,tagDummyAttackInfo,std::less<int>,std::allocator<std::pair<int const ,tagDummyAttackInfo> >,0> > >::operator->
; Function compile flags: /Ogsp
; File c:\program files (x86)\microsoft visual studio 10.0\vc\include\xtree
;	COMDAT ??C?$_Tree_iterator@V?$_Tree_val@V?$_Tmap_traits@HUtagDummyAttackInfo@@U?$less@H@std@@V?$allocator@U?$pair@$$CBHUtagDummyAttackInfo@@@std@@@3@$0A@@std@@@std@@@std@@QBEPAU?$pair@$$CBHUtagDummyAttackInfo@@@1@XZ
_TEXT	SEGMENT
??C?$_Tree_iterator@V?$_Tree_val@V?$_Tmap_traits@HUtagDummyAttackInfo@@U?$less@H@std@@V?$allocator@U?$pair@$$CBHUtagDummyAttackInfo@@@std@@@3@$0A@@std@@@std@@@std@@QBEPAU?$pair@$$CBHUtagDummyAttackInfo@@@1@XZ PROC ; std::_Tree_iterator<std::_Tree_val<std::_Tmap_traits<int,tagDummyAttackInfo,std::less<int>,std::allocator<std::pair<int const ,tagDummyAttackInfo> >,0> > >::operator->, COMDAT
; _this$ = ecx

; 401  : 		return (&**this);

  00000	8b 01		 mov	 eax, DWORD PTR [ecx]
  00002	83 c0 0c	 add	 eax, 12			; 0000000cH

; 402  : 		}

  00005	c3		 ret	 0
??C?$_Tree_iterator@V?$_Tree_val@V?$_Tmap_traits@HUtagDummyAttackInfo@@U?$less@H@std@@V?$allocator@U?$pair@$$CBHUtagDummyAttackInfo@@@std@@@3@$0A@@std@@@std@@@std@@QBEPAU?$pair@$$CBHUtagDummyAttackInfo@@@1@XZ ENDP ; std::_Tree_iterator<std::_Tree_val<std::_Tmap_traits<int,tagDummyAttackInfo,std::less<int>,std::allocator<std::pair<int const ,tagDummyAttackInfo> >,0> > >::operator->
_TEXT	ENDS
PUBLIC	??0?$vector@PBUAniEventTime@@V?$allocator@PBUAniEventTime@@@std@@@std@@QAE@XZ ; std::vector<AniEventTime const *,std::allocator<AniEventTime const *> >::vector<AniEventTime const *,std::allocator<AniEventTime const *> >
; Function compile flags: /Ogsp
; File c:\program files (x86)\microsoft visual studio 10.0\vc\include\vector
;	COMDAT ??0?$vector@PBUAniEventTime@@V?$allocator@PBUAniEventTime@@@std@@@std@@QAE@XZ
_TEXT	SEGMENT
??0?$vector@PBUAniEventTime@@V?$allocator@PBUAniEventTime@@@std@@@std@@QAE@XZ PROC ; std::vector<AniEventTime const *,std::allocator<AniEventTime const *> >::vector<AniEventTime const *,std::allocator<AniEventTime const *> >, COMDAT
; _this$ = ecx

; 507  : 		{	// construct empty vector

  00000	8b c1		 mov	 eax, ecx
  00002	33 c9		 xor	 ecx, ecx
  00004	89 08		 mov	 DWORD PTR [eax], ecx
  00006	89 48 04	 mov	 DWORD PTR [eax+4], ecx
  00009	89 48 08	 mov	 DWORD PTR [eax+8], ecx

; 508  : 		}

  0000c	c3		 ret	 0
??0?$vector@PBUAniEventTime@@V?$allocator@PBUAniEventTime@@@std@@@std@@QAE@XZ ENDP ; std::vector<AniEventTime const *,std::allocator<AniEventTime const *> >::vector<AniEventTime const *,std::allocator<AniEventTime const *> >
_TEXT	ENDS
PUBLIC	?begin@?$vector@PBUAniEventTime@@V?$allocator@PBUAniEventTime@@@std@@@std@@QAE?AV?$_Vector_iterator@V?$_Vector_val@PBUAniEventTime@@V?$allocator@PBUAniEventTime@@@std@@@std@@@2@XZ ; std::vector<AniEventTime const *,std::allocator<AniEventTime const *> >::begin
; Function compile flags: /Ogsp
;	COMDAT ?begin@?$vector@PBUAniEventTime@@V?$allocator@PBUAniEventTime@@@std@@@std@@QAE?AV?$_Vector_iterator@V?$_Vector_val@PBUAniEventTime@@V?$allocator@PBUAniEventTime@@@std@@@std@@@2@XZ
_TEXT	SEGMENT
___$ReturnUdt$ = 8					; size = 4
?begin@?$vector@PBUAniEventTime@@V?$allocator@PBUAniEventTime@@@std@@@std@@QAE?AV?$_Vector_iterator@V?$_Vector_val@PBUAniEventTime@@V?$allocator@PBUAniEventTime@@@std@@@std@@@2@XZ PROC ; std::vector<AniEventTime const *,std::allocator<AniEventTime const *> >::begin, COMDAT
; _this$ = ecx

; 781  : 		{	// return iterator for beginning of mutable sequence

  00000	55		 push	 ebp
  00001	8b ec		 mov	 ebp, esp

; 782  : 		return (iterator(this->_Myfirst, this));

  00003	8b 09		 mov	 ecx, DWORD PTR [ecx]
  00005	8b 45 08	 mov	 eax, DWORD PTR ___$ReturnUdt$[ebp]
  00008	89 08		 mov	 DWORD PTR [eax], ecx

; 783  : 		}

  0000a	5d		 pop	 ebp
  0000b	c2 04 00	 ret	 4
?begin@?$vector@PBUAniEventTime@@V?$allocator@PBUAniEventTime@@@std@@@std@@QAE?AV?$_Vector_iterator@V?$_Vector_val@PBUAniEventTime@@V?$allocator@PBUAniEventTime@@@std@@@std@@@2@XZ ENDP ; std::vector<AniEventTime const *,std::allocator<AniEventTime const *> >::begin
_TEXT	ENDS
PUBLIC	?end@?$vector@PBUAniEventTime@@V?$allocator@PBUAniEventTime@@@std@@@std@@QAE?AV?$_Vector_iterator@V?$_Vector_val@PBUAniEventTime@@V?$allocator@PBUAniEventTime@@@std@@@std@@@2@XZ ; std::vector<AniEventTime const *,std::allocator<AniEventTime const *> >::end
; Function compile flags: /Ogsp
;	COMDAT ?end@?$vector@PBUAniEventTime@@V?$allocator@PBUAniEventTime@@@std@@@std@@QAE?AV?$_Vector_iterator@V?$_Vector_val@PBUAniEventTime@@V?$allocator@PBUAniEventTime@@@std@@@std@@@2@XZ
_TEXT	SEGMENT
___$ReturnUdt$ = 8					; size = 4
?end@?$vector@PBUAniEventTime@@V?$allocator@PBUAniEventTime@@@std@@@std@@QAE?AV?$_Vector_iterator@V?$_Vector_val@PBUAniEventTime@@V?$allocator@PBUAniEventTime@@@std@@@std@@@2@XZ PROC ; std::vector<AniEventTime const *,std::allocator<AniEventTime const *> >::end, COMDAT
; _this$ = ecx

; 791  : 		{	// return iterator for end of mutable sequence

  00000	55		 push	 ebp
  00001	8b ec		 mov	 ebp, esp

; 792  : 		return (iterator(this->_Mylast, this));

  00003	8b 49 04	 mov	 ecx, DWORD PTR [ecx+4]
  00006	8b 45 08	 mov	 eax, DWORD PTR ___$ReturnUdt$[ebp]
  00009	89 08		 mov	 DWORD PTR [eax], ecx

; 793  : 		}

  0000b	5d		 pop	 ebp
  0000c	c2 04 00	 ret	 4
?end@?$vector@PBUAniEventTime@@V?$allocator@PBUAniEventTime@@@std@@@std@@QAE?AV?$_Vector_iterator@V?$_Vector_val@PBUAniEventTime@@V?$allocator@PBUAniEventTime@@@std@@@std@@@2@XZ ENDP ; std::vector<AniEventTime const *,std::allocator<AniEventTime const *> >::end
_TEXT	ENDS
PUBLIC	??9?$_Vector_const_iterator@V?$_Vector_val@PBUAniEventTime@@V?$allocator@PBUAniEventTime@@@std@@@std@@@std@@QBE_NABV01@@Z ; std::_Vector_const_iterator<std::_Vector_val<AniEventTime const *,std::allocator<AniEventTime const *> > >::operator!=
; Function compile flags: /Ogsp
;	COMDAT ??9?$_Vector_const_iterator@V?$_Vector_val@PBUAniEventTime@@V?$allocator@PBUAniEventTime@@@std@@@std@@@std@@QBE_NABV01@@Z
_TEXT	SEGMENT
__Right$ = 8						; size = 4
??9?$_Vector_const_iterator@V?$_Vector_val@PBUAniEventTime@@V?$allocator@PBUAniEventTime@@@std@@@std@@@std@@QBE_NABV01@@Z PROC ; std::_Vector_const_iterator<std::_Vector_val<AniEventTime const *,std::allocator<AniEventTime const *> > >::operator!=, COMDAT
; _this$ = ecx

; 207  : 		{	// test for iterator inequality

  00000	55		 push	 ebp
  00001	8b ec		 mov	 ebp, esp

; 208  : 		return (!(*this == _Right));

  00003	8b 01		 mov	 eax, DWORD PTR [ecx]
  00005	8b 55 08	 mov	 edx, DWORD PTR __Right$[ebp]
  00008	33 c9		 xor	 ecx, ecx
  0000a	3b 02		 cmp	 eax, DWORD PTR [edx]
  0000c	0f 95 c0	 setne	 al

; 209  : 		}

  0000f	5d		 pop	 ebp
  00010	c2 04 00	 ret	 4
??9?$_Vector_const_iterator@V?$_Vector_val@PBUAniEventTime@@V?$allocator@PBUAniEventTime@@@std@@@std@@@std@@QBE_NABV01@@Z ENDP ; std::_Vector_const_iterator<std::_Vector_val<AniEventTime const *,std::allocator<AniEventTime const *> > >::operator!=
_TEXT	ENDS
PUBLIC	??D?$_List_iterator@V?$_List_val@MV?$allocator@M@std@@@std@@@std@@QBEAAMXZ ; std::_List_iterator<std::_List_val<float,std::allocator<float> > >::operator*
; Function compile flags: /Ogsp
; File c:\program files (x86)\microsoft visual studio 10.0\vc\include\list
;	COMDAT ??D?$_List_iterator@V?$_List_val@MV?$allocator@M@std@@@std@@@std@@QBEAAMXZ
_TEXT	SEGMENT
??D?$_List_iterator@V?$_List_val@MV?$allocator@M@std@@@std@@@std@@QBEAAMXZ PROC ; std::_List_iterator<std::_List_val<float,std::allocator<float> > >::operator*, COMDAT
; _this$ = ecx

; 360  : 		return ((reference)**(_Mybase *)this);

  00000	8b 01		 mov	 eax, DWORD PTR [ecx]
  00002	83 c0 08	 add	 eax, 8

; 361  : 		}

  00005	c3		 ret	 0
??D?$_List_iterator@V?$_List_val@MV?$allocator@M@std@@@std@@@std@@QBEAAMXZ ENDP ; std::_List_iterator<std::_List_val<float,std::allocator<float> > >::operator*
_TEXT	ENDS
PUBLIC	?begin@?$vector@UExtraAniJump@@V?$allocator@UExtraAniJump@@@std@@@std@@QAE?AV?$_Vector_iterator@V?$_Vector_val@UExtraAniJump@@V?$allocator@UExtraAniJump@@@std@@@std@@@2@XZ ; std::vector<ExtraAniJump,std::allocator<ExtraAniJump> >::begin
; Function compile flags: /Ogsp
; File c:\program files (x86)\microsoft visual studio 10.0\vc\include\vector
;	COMDAT ?begin@?$vector@UExtraAniJump@@V?$allocator@UExtraAniJump@@@std@@@std@@QAE?AV?$_Vector_iterator@V?$_Vector_val@UExtraAniJump@@V?$allocator@UExtraAniJump@@@std@@@std@@@2@XZ
_TEXT	SEGMENT
___$ReturnUdt$ = 8					; size = 4
?begin@?$vector@UExtraAniJump@@V?$allocator@UExtraAniJump@@@std@@@std@@QAE?AV?$_Vector_iterator@V?$_Vector_val@UExtraAniJump@@V?$allocator@UExtraAniJump@@@std@@@std@@@2@XZ PROC ; std::vector<ExtraAniJump,std::allocator<ExtraAniJump> >::begin, COMDAT
; _this$ = ecx

; 781  : 		{	// return iterator for beginning of mutable sequence

  00000	55		 push	 ebp
  00001	8b ec		 mov	 ebp, esp

; 782  : 		return (iterator(this->_Myfirst, this));

  00003	8b 09		 mov	 ecx, DWORD PTR [ecx]
  00005	8b 45 08	 mov	 eax, DWORD PTR ___$ReturnUdt$[ebp]
  00008	89 08		 mov	 DWORD PTR [eax], ecx

; 783  : 		}

  0000a	5d		 pop	 ebp
  0000b	c2 04 00	 ret	 4
?begin@?$vector@UExtraAniJump@@V?$allocator@UExtraAniJump@@@std@@@std@@QAE?AV?$_Vector_iterator@V?$_Vector_val@UExtraAniJump@@V?$allocator@UExtraAniJump@@@std@@@std@@@2@XZ ENDP ; std::vector<ExtraAniJump,std::allocator<ExtraAniJump> >::begin
_TEXT	ENDS
PUBLIC	?end@?$vector@UExtraAniJump@@V?$allocator@UExtraAniJump@@@std@@@std@@QAE?AV?$_Vector_iterator@V?$_Vector_val@UExtraAniJump@@V?$allocator@UExtraAniJump@@@std@@@std@@@2@XZ ; std::vector<ExtraAniJump,std::allocator<ExtraAniJump> >::end
; Function compile flags: /Ogsp
;	COMDAT ?end@?$vector@UExtraAniJump@@V?$allocator@UExtraAniJump@@@std@@@std@@QAE?AV?$_Vector_iterator@V?$_Vector_val@UExtraAniJump@@V?$allocator@UExtraAniJump@@@std@@@std@@@2@XZ
_TEXT	SEGMENT
___$ReturnUdt$ = 8					; size = 4
?end@?$vector@UExtraAniJump@@V?$allocator@UExtraAniJump@@@std@@@std@@QAE?AV?$_Vector_iterator@V?$_Vector_val@UExtraAniJump@@V?$allocator@UExtraAniJump@@@std@@@std@@@2@XZ PROC ; std::vector<ExtraAniJump,std::allocator<ExtraAniJump> >::end, COMDAT
; _this$ = ecx

; 791  : 		{	// return iterator for end of mutable sequence

  00000	55		 push	 ebp
  00001	8b ec		 mov	 ebp, esp

; 792  : 		return (iterator(this->_Mylast, this));

  00003	8b 49 04	 mov	 ecx, DWORD PTR [ecx+4]
  00006	8b 45 08	 mov	 eax, DWORD PTR ___$ReturnUdt$[ebp]
  00009	89 08		 mov	 DWORD PTR [eax], ecx

; 793  : 		}

  0000b	5d		 pop	 ebp
  0000c	c2 04 00	 ret	 4
?end@?$vector@UExtraAniJump@@V?$allocator@UExtraAniJump@@@std@@@std@@QAE?AV?$_Vector_iterator@V?$_Vector_val@UExtraAniJump@@V?$allocator@UExtraAniJump@@@std@@@std@@@2@XZ ENDP ; std::vector<ExtraAniJump,std::allocator<ExtraAniJump> >::end
_TEXT	ENDS
PUBLIC	??0?$_List_val@MV?$allocator@M@std@@@std@@QAE@V?$allocator@M@1@@Z ; std::_List_val<float,std::allocator<float> >::_List_val<float,std::allocator<float> >
; Function compile flags: /Ogsp
; File c:\program files (x86)\microsoft visual studio 10.0\vc\include\list
;	COMDAT ??0?$_List_val@MV?$allocator@M@std@@@std@@QAE@V?$allocator@M@1@@Z
_TEXT	SEGMENT
$T539614 = -16						; size = 12
$T539591 = -4						; size = 4
__Al$ = 8						; size = 1
??0?$_List_val@MV?$allocator@M@std@@@std@@QAE@V?$allocator@M@1@@Z PROC ; std::_List_val<float,std::allocator<float> >::_List_val<float,std::allocator<float> >, COMDAT
; _this$ = ecx

; 493  : 		{	// construct base, and allocator from _Al

  00000	55		 push	 ebp
  00001	8b ec		 mov	 ebp, esp
  00003	83 ec 10	 sub	 esp, 16			; 00000010H
  00006	56		 push	 esi
  00007	8b f1		 mov	 esi, ecx

; 494  : 		this->_Mysize = 0;

  00009	83 66 04 00	 and	 DWORD PTR [esi+4], 0

; 495  : 		this->_Myhead = this->_Alnod.allocate(1);

  0000d	6a 0c		 push	 12			; 0000000cH
  0000f	e8 00 00 00 00	 call	 ??2@YAPAXI@Z		; operator new
  00014	59		 pop	 ecx
  00015	85 c0		 test	 eax, eax
  00017	74 10		 je	 SHORT $LN13@List_val
  00019	89 06		 mov	 DWORD PTR [esi], eax

; 496  : 		this->_Nextnode(this->_Myhead) = this->_Myhead;

  0001b	89 00		 mov	 DWORD PTR [eax], eax

; 497  : 		this->_Prevnode(this->_Myhead) = this->_Myhead;

  0001d	8b 06		 mov	 eax, DWORD PTR [esi]
  0001f	89 40 04	 mov	 DWORD PTR [eax+4], eax

; 498  : 		}

  00022	8b c6		 mov	 eax, esi
  00024	5e		 pop	 esi
  00025	c9		 leave
  00026	c2 04 00	 ret	 4

; 495  : 		this->_Myhead = this->_Alnod.allocate(1);

$LN13@List_val:
  00029	83 65 fc 00	 and	 DWORD PTR $T539591[ebp], 0
  0002d	8d 45 fc	 lea	 eax, DWORD PTR $T539591[ebp]
  00030	50		 push	 eax
  00031	8d 4d f0	 lea	 ecx, DWORD PTR $T539614[ebp]
  00034	ff 15 00 00 00
	00		 call	 DWORD PTR __imp_??0exception@std@@QAE@ABQBD@Z
  0003a	68 00 00 00 00	 push	 OFFSET __TI2?AVbad_alloc@std@@
  0003f	8d 45 f0	 lea	 eax, DWORD PTR $T539614[ebp]
  00042	50		 push	 eax
  00043	c7 45 f0 00 00
	00 00		 mov	 DWORD PTR $T539614[ebp], OFFSET ??_7bad_alloc@std@@6B@
  0004a	e8 00 00 00 00	 call	 __CxxThrowException@8
$LN29@List_val:
$LN28@List_val:
  0004f	cc		 int	 3
??0?$_List_val@MV?$allocator@M@std@@@std@@QAE@V?$allocator@M@1@@Z ENDP ; std::_List_val<float,std::allocator<float> >::_List_val<float,std::allocator<float> >
_TEXT	ENDS
PUBLIC	??0?$_List_iterator@V?$_List_val@UFireTime@@V?$allocator@UFireTime@@@std@@@std@@@std@@QAE@PAU_Node@?$_List_nod@UFireTime@@V?$allocator@UFireTime@@@std@@@1@PBV?$_List_val@UFireTime@@V?$allocator@UFireTime@@@std@@@1@@Z ; std::_List_iterator<std::_List_val<FireTime,std::allocator<FireTime> > >::_List_iterator<std::_List_val<FireTime,std::allocator<FireTime> > >
; Function compile flags: /Ogsp
;	COMDAT ??0?$_List_iterator@V?$_List_val@UFireTime@@V?$allocator@UFireTime@@@std@@@std@@@std@@QAE@PAU_Node@?$_List_nod@UFireTime@@V?$allocator@UFireTime@@@std@@@1@PBV?$_List_val@UFireTime@@V?$allocator@UFireTime@@@std@@@1@@Z
_TEXT	SEGMENT
__Pnode$ = 8						; size = 4
__Plist$ = 12						; size = 4
??0?$_List_iterator@V?$_List_val@UFireTime@@V?$allocator@UFireTime@@@std@@@std@@@std@@QAE@PAU_Node@?$_List_nod@UFireTime@@V?$allocator@UFireTime@@@std@@@1@PBV?$_List_val@UFireTime@@V?$allocator@UFireTime@@@std@@@1@@Z PROC ; std::_List_iterator<std::_List_val<FireTime,std::allocator<FireTime> > >::_List_iterator<std::_List_val<FireTime,std::allocator<FireTime> > >, COMDAT
; _this$ = ecx

; 342  : 		{	// construct with node pointer _Pnode

  00000	55		 push	 ebp
  00001	8b ec		 mov	 ebp, esp
  00003	8b c1		 mov	 eax, ecx
  00005	8b 4d 08	 mov	 ecx, DWORD PTR __Pnode$[ebp]
  00008	89 08		 mov	 DWORD PTR [eax], ecx

; 343  : 		}

  0000a	5d		 pop	 ebp
  0000b	c2 08 00	 ret	 8
??0?$_List_iterator@V?$_List_val@UFireTime@@V?$allocator@UFireTime@@@std@@@std@@@std@@QAE@PAU_Node@?$_List_nod@UFireTime@@V?$allocator@UFireTime@@@std@@@1@PBV?$_List_val@UFireTime@@V?$allocator@UFireTime@@@std@@@1@@Z ENDP ; std::_List_iterator<std::_List_val<FireTime,std::allocator<FireTime> > >::_List_iterator<std::_List_val<FireTime,std::allocator<FireTime> > >
_TEXT	ENDS
PUBLIC	??0?$_Tree_iterator@V?$_Tree_val@V?$_Tmap_traits@HUtagDummyAttackInfo@@U?$less@H@std@@V?$allocator@U?$pair@$$CBHUtagDummyAttackInfo@@@std@@@3@$0A@@std@@@std@@@std@@QAE@PAU_Node@?$_Tree_nod@V?$_Tmap_traits@HUtagDummyAttackInfo@@U?$less@H@std@@V?$allocator@U?$pair@$$CBHUtagDummyAttackInfo@@@std@@@3@$0A@@std@@@1@PBV?$_Tree_val@V?$_Tmap_traits@HUtagDummyAttackInfo@@U?$less@H@std@@V?$allocator@U?$pair@$$CBHUtagDummyAttackInfo@@@std@@@3@$0A@@std@@@1@@Z ; std::_Tree_iterator<std::_Tree_val<std::_Tmap_traits<int,tagDummyAttackInfo,std::less<int>,std::allocator<std::pair<int const ,tagDummyAttackInfo> >,0> > >::_Tree_iterator<std::_Tree_val<std::_Tmap_traits<int,tagDummyAttackInfo,std::less<int>,std::allocator<std::pair<int const ,tagDummyAttackInfo> >,0> > >
; Function compile flags: /Ogsp
; File c:\program files (x86)\microsoft visual studio 10.0\vc\include\xtree
;	COMDAT ??0?$_Tree_iterator@V?$_Tree_val@V?$_Tmap_traits@HUtagDummyAttackInfo@@U?$less@H@std@@V?$allocator@U?$pair@$$CBHUtagDummyAttackInfo@@@std@@@3@$0A@@std@@@std@@@std@@QAE@PAU_Node@?$_Tree_nod@V?$_Tmap_traits@HUtagDummyAttackInfo@@U?$less@H@std@@V?$allocator@U?$pair@$$CBHUtagDummyAttackInfo@@@std@@@3@$0A@@std@@@1@PBV?$_Tree_val@V?$_Tmap_traits@HUtagDummyAttackInfo@@U?$less@H@std@@V?$allocator@U?$pair@$$CBHUtagDummyAttackInfo@@@std@@@3@$0A@@std@@@1@@Z
_TEXT	SEGMENT
__Pnode$ = 8						; size = 4
__Plist$ = 12						; size = 4
??0?$_Tree_iterator@V?$_Tree_val@V?$_Tmap_traits@HUtagDummyAttackInfo@@U?$less@H@std@@V?$allocator@U?$pair@$$CBHUtagDummyAttackInfo@@@std@@@3@$0A@@std@@@std@@@std@@QAE@PAU_Node@?$_Tree_nod@V?$_Tmap_traits@HUtagDummyAttackInfo@@U?$less@H@std@@V?$allocator@U?$pair@$$CBHUtagDummyAttackInfo@@@std@@@3@$0A@@std@@@1@PBV?$_Tree_val@V?$_Tmap_traits@HUtagDummyAttackInfo@@U?$less@H@std@@V?$allocator@U?$pair@$$CBHUtagDummyAttackInfo@@@std@@@3@$0A@@std@@@1@@Z PROC ; std::_Tree_iterator<std::_Tree_val<std::_Tmap_traits<int,tagDummyAttackInfo,std::less<int>,std::allocator<std::pair<int const ,tagDummyAttackInfo> >,0> > >::_Tree_iterator<std::_Tree_val<std::_Tmap_traits<int,tagDummyAttackInfo,std::less<int>,std::allocator<std::pair<int const ,tagDummyAttackInfo> >,0> > >, COMDAT
; _this$ = ecx

; 378  : 		{	// construct with node pointer _Pnode

  00000	55		 push	 ebp
  00001	8b ec		 mov	 ebp, esp
  00003	8b c1		 mov	 eax, ecx
  00005	8b 4d 08	 mov	 ecx, DWORD PTR __Pnode$[ebp]
  00008	89 08		 mov	 DWORD PTR [eax], ecx

; 379  : 		}

  0000a	5d		 pop	 ebp
  0000b	c2 08 00	 ret	 8
??0?$_Tree_iterator@V?$_Tree_val@V?$_Tmap_traits@HUtagDummyAttackInfo@@U?$less@H@std@@V?$allocator@U?$pair@$$CBHUtagDummyAttackInfo@@@std@@@3@$0A@@std@@@std@@@std@@QAE@PAU_Node@?$_Tree_nod@V?$_Tmap_traits@HUtagDummyAttackInfo@@U?$less@H@std@@V?$allocator@U?$pair@$$CBHUtagDummyAttackInfo@@@std@@@3@$0A@@std@@@1@PBV?$_Tree_val@V?$_Tmap_traits@HUtagDummyAttackInfo@@U?$less@H@std@@V?$allocator@U?$pair@$$CBHUtagDummyAttackInfo@@@std@@@3@$0A@@std@@@1@@Z ENDP ; std::_Tree_iterator<std::_Tree_val<std::_Tmap_traits<int,tagDummyAttackInfo,std::less<int>,std::allocator<std::pair<int const ,tagDummyAttackInfo> >,0> > >::_Tree_iterator<std::_Tree_val<std::_Tmap_traits<int,tagDummyAttackInfo,std::less<int>,std::allocator<std::pair<int const ,tagDummyAttackInfo> >,0> > >
_TEXT	ENDS
PUBLIC	??0?$_List_iterator@V?$_List_val@MV?$allocator@M@std@@@std@@@std@@QAE@PAU_Node@?$_List_nod@MV?$allocator@M@std@@@1@PBV?$_List_val@MV?$allocator@M@std@@@1@@Z ; std::_List_iterator<std::_List_val<float,std::allocator<float> > >::_List_iterator<std::_List_val<float,std::allocator<float> > >
; Function compile flags: /Ogsp
; File c:\program files (x86)\microsoft visual studio 10.0\vc\include\list
;	COMDAT ??0?$_List_iterator@V?$_List_val@MV?$allocator@M@std@@@std@@@std@@QAE@PAU_Node@?$_List_nod@MV?$allocator@M@std@@@1@PBV?$_List_val@MV?$allocator@M@std@@@1@@Z
_TEXT	SEGMENT
__Pnode$ = 8						; size = 4
__Plist$ = 12						; size = 4
??0?$_List_iterator@V?$_List_val@MV?$allocator@M@std@@@std@@@std@@QAE@PAU_Node@?$_List_nod@MV?$allocator@M@std@@@1@PBV?$_List_val@MV?$allocator@M@std@@@1@@Z PROC ; std::_List_iterator<std::_List_val<float,std::allocator<float> > >::_List_iterator<std::_List_val<float,std::allocator<float> > >, COMDAT
; _this$ = ecx

; 342  : 		{	// construct with node pointer _Pnode

  00000	55		 push	 ebp
  00001	8b ec		 mov	 ebp, esp
  00003	8b c1		 mov	 eax, ecx
  00005	8b 4d 08	 mov	 ecx, DWORD PTR __Pnode$[ebp]
  00008	89 08		 mov	 DWORD PTR [eax], ecx

; 343  : 		}

  0000a	5d		 pop	 ebp
  0000b	c2 08 00	 ret	 8
??0?$_List_iterator@V?$_List_val@MV?$allocator@M@std@@@std@@@std@@QAE@PAU_Node@?$_List_nod@MV?$allocator@M@std@@@1@PBV?$_List_val@MV?$allocator@M@std@@@1@@Z ENDP ; std::_List_iterator<std::_List_val<float,std::allocator<float> > >::_List_iterator<std::_List_val<float,std::allocator<float> > >
_TEXT	ENDS
PUBLIC	?_Lbound@?$_Tree@V?$_Tmap_traits@HUtagDummyAttackInfo@@U?$less@H@std@@V?$allocator@U?$pair@$$CBHUtagDummyAttackInfo@@@std@@@3@$0A@@std@@@std@@IAEPAU_Node@?$_Tree_nod@V?$_Tmap_traits@HUtagDummyAttackInfo@@U?$less@H@std@@V?$allocator@U?$pair@$$CBHUtagDummyAttackInfo@@@std@@@3@$0A@@std@@@2@ABH@Z ; std::_Tree<std::_Tmap_traits<int,tagDummyAttackInfo,std::less<int>,std::allocator<std::pair<int const ,tagDummyAttackInfo> >,0> >::_Lbound
; Function compile flags: /Ogsp
; File c:\program files (x86)\microsoft visual studio 10.0\vc\include\xtree
;	COMDAT ?_Lbound@?$_Tree@V?$_Tmap_traits@HUtagDummyAttackInfo@@U?$less@H@std@@V?$allocator@U?$pair@$$CBHUtagDummyAttackInfo@@@std@@@3@$0A@@std@@@std@@IAEPAU_Node@?$_Tree_nod@V?$_Tmap_traits@HUtagDummyAttackInfo@@U?$less@H@std@@V?$allocator@U?$pair@$$CBHUtagDummyAttackInfo@@@std@@@3@$0A@@std@@@2@ABH@Z
_TEXT	SEGMENT
__Keyval$ = 8						; size = 4
?_Lbound@?$_Tree@V?$_Tmap_traits@HUtagDummyAttackInfo@@U?$less@H@std@@V?$allocator@U?$pair@$$CBHUtagDummyAttackInfo@@@std@@@3@$0A@@std@@@std@@IAEPAU_Node@?$_Tree_nod@V?$_Tmap_traits@HUtagDummyAttackInfo@@U?$less@H@std@@V?$allocator@U?$pair@$$CBHUtagDummyAttackInfo@@@std@@@3@$0A@@std@@@2@ABH@Z PROC ; std::_Tree<std::_Tmap_traits<int,tagDummyAttackInfo,std::less<int>,std::allocator<std::pair<int const ,tagDummyAttackInfo> >,0> >::_Lbound, COMDAT
; _this$ = ecx

; 1741 : 		{	// find leftmost node not less than _Keyval

  00000	55		 push	 ebp
  00001	8b ec		 mov	 ebp, esp

; 1742 : 		_Nodeptr _Pnode = _Root();

  00003	8b 41 04	 mov	 eax, DWORD PTR [ecx+4]
  00006	8b 48 04	 mov	 ecx, DWORD PTR [eax+4]

; 1743 : 		_Nodeptr _Wherenode = this->_Myhead;	// end() if search fails
; 1744 : 
; 1745 : 		while (!this->_Isnil(_Pnode))

  00009	80 79 65 00	 cmp	 BYTE PTR [ecx+101], 0
  0000d	75 19		 jne	 SHORT $LN3@Lbound
  0000f	8b 55 08	 mov	 edx, DWORD PTR __Keyval$[ebp]
  00012	8b 12		 mov	 edx, DWORD PTR [edx]
$LL4@Lbound:

; 1746 : 			if (_DEBUG_LT_PRED(this->comp, this->_Key(_Pnode), _Keyval))

  00014	39 51 0c	 cmp	 DWORD PTR [ecx+12], edx
  00017	7d 05		 jge	 SHORT $LN2@Lbound

; 1747 : 				_Pnode = this->_Right(_Pnode);	// descend right subtree

  00019	8b 49 08	 mov	 ecx, DWORD PTR [ecx+8]

; 1748 : 			else

  0001c	eb 04		 jmp	 SHORT $LN1@Lbound
$LN2@Lbound:

; 1749 : 				{	// _Pnode not less than _Keyval, remember it
; 1750 : 				_Wherenode = _Pnode;

  0001e	8b c1		 mov	 eax, ecx

; 1751 : 				_Pnode = this->_Left(_Pnode);	// descend left subtree

  00020	8b 09		 mov	 ecx, DWORD PTR [ecx]
$LN1@Lbound:

; 1743 : 		_Nodeptr _Wherenode = this->_Myhead;	// end() if search fails
; 1744 : 
; 1745 : 		while (!this->_Isnil(_Pnode))

  00022	80 79 65 00	 cmp	 BYTE PTR [ecx+101], 0
  00026	74 ec		 je	 SHORT $LL4@Lbound
$LN3@Lbound:

; 1752 : 				}
; 1753 : 
; 1754 : 		return (_Wherenode);	// return best remembered candidate
; 1755 : 		}

  00028	5d		 pop	 ebp
  00029	c2 04 00	 ret	 4
?_Lbound@?$_Tree@V?$_Tmap_traits@HUtagDummyAttackInfo@@U?$less@H@std@@V?$allocator@U?$pair@$$CBHUtagDummyAttackInfo@@@std@@@3@$0A@@std@@@std@@IAEPAU_Node@?$_Tree_nod@V?$_Tmap_traits@HUtagDummyAttackInfo@@U?$less@H@std@@V?$allocator@U?$pair@$$CBHUtagDummyAttackInfo@@@std@@@3@$0A@@std@@@2@ABH@Z ENDP ; std::_Tree<std::_Tmap_traits<int,tagDummyAttackInfo,std::less<int>,std::allocator<std::pair<int const ,tagDummyAttackInfo> >,0> >::_Lbound
_TEXT	ENDS
PUBLIC	??_C@_0BB@MOGOBHAF@list?$DMT?$DO?5too?5long?$AA@ ; `string'
PUBLIC	?_Incsize@?$list@UFireTime@@V?$allocator@UFireTime@@@std@@@std@@QAEXI@Z ; std::list<FireTime,std::allocator<FireTime> >::_Incsize
;	COMDAT ??_C@_0BB@MOGOBHAF@list?$DMT?$DO?5too?5long?$AA@
; File c:\program files (x86)\microsoft visual studio 10.0\vc\include\xmemory
CONST	SEGMENT
??_C@_0BB@MOGOBHAF@list?$DMT?$DO?5too?5long?$AA@ DB 'list<T> too long', 00H ; `string'
; Function compile flags: /Ogsp
; File c:\program files (x86)\microsoft visual studio 10.0\vc\include\list
CONST	ENDS
;	COMDAT ?_Incsize@?$list@UFireTime@@V?$allocator@UFireTime@@@std@@@std@@QAEXI@Z
_TEXT	SEGMENT
__Count$ = 8						; size = 4
?_Incsize@?$list@UFireTime@@V?$allocator@UFireTime@@@std@@@std@@QAEXI@Z PROC ; std::list<FireTime,std::allocator<FireTime> >::_Incsize, COMDAT
; _this$ = ecx

; 1519 : 		{	// alter element count, with checking

  00000	55		 push	 ebp
  00001	8b ec		 mov	 ebp, esp

; 1520 : 		if (max_size() - this->_Mysize - 1 < _Count)

  00003	8b 41 04	 mov	 eax, DWORD PTR [ecx+4]
  00006	8b 55 08	 mov	 edx, DWORD PTR __Count$[ebp]
  00009	56		 push	 esi
  0000a	be 2d ba e8 02	 mov	 esi, 48806445		; 02e8ba2dH
  0000f	2b f0		 sub	 esi, eax
  00011	3b f2		 cmp	 esi, edx
  00013	5e		 pop	 esi
  00014	73 0b		 jae	 SHORT $LN1@Incsize

; 1521 : 			_Xlength_error("list<T> too long");

  00016	68 00 00 00 00	 push	 OFFSET ??_C@_0BB@MOGOBHAF@list?$DMT?$DO?5too?5long?$AA@
  0001b	ff 15 00 00 00
	00		 call	 DWORD PTR __imp_?_Xlength_error@std@@YAXPBD@Z
$LN11@Incsize:
$LN1@Incsize:

; 1522 : 		this->_Mysize += _Count;

  00021	03 c2		 add	 eax, edx
  00023	89 41 04	 mov	 DWORD PTR [ecx+4], eax

; 1523 : 		}

  00026	5d		 pop	 ebp
  00027	c2 04 00	 ret	 4
$LN10@Incsize:
?_Incsize@?$list@UFireTime@@V?$allocator@UFireTime@@@std@@@std@@QAEXI@Z ENDP ; std::list<FireTime,std::allocator<FireTime> >::_Incsize
_TEXT	ENDS
PUBLIC	?_Make_iter@?$vector@UExtraAniJump@@V?$allocator@UExtraAniJump@@@std@@@std@@QBE?AV?$_Vector_iterator@V?$_Vector_val@UExtraAniJump@@V?$allocator@UExtraAniJump@@@std@@@std@@@2@V?$_Vector_const_iterator@V?$_Vector_val@UExtraAniJump@@V?$allocator@UExtraAniJump@@@std@@@std@@@2@@Z ; std::vector<ExtraAniJump,std::allocator<ExtraAniJump> >::_Make_iter
; Function compile flags: /Ogsp
; File c:\program files (x86)\microsoft visual studio 10.0\vc\include\vector
;	COMDAT ?_Make_iter@?$vector@UExtraAniJump@@V?$allocator@UExtraAniJump@@@std@@@std@@QBE?AV?$_Vector_iterator@V?$_Vector_val@UExtraAniJump@@V?$allocator@UExtraAniJump@@@std@@@std@@@2@V?$_Vector_const_iterator@V?$_Vector_val@UExtraAniJump@@V?$allocator@UExtraAniJump@@@std@@@std@@@2@@Z
_TEXT	SEGMENT
___$ReturnUdt$ = 8					; size = 4
__Where$ = 12						; size = 4
?_Make_iter@?$vector@UExtraAniJump@@V?$allocator@UExtraAniJump@@@std@@@std@@QBE?AV?$_Vector_iterator@V?$_Vector_val@UExtraAniJump@@V?$allocator@UExtraAniJump@@@std@@@std@@@2@V?$_Vector_const_iterator@V?$_Vector_val@UExtraAniJump@@V?$allocator@UExtraAniJump@@@std@@@std@@@2@@Z PROC ; std::vector<ExtraAniJump,std::allocator<ExtraAniJump> >::_Make_iter, COMDAT
; _this$ = ecx

; 801  : 		{	// make iterator from const_iterator

  00000	55		 push	 ebp
  00001	8b ec		 mov	 ebp, esp

; 802  : 		return (iterator(_Where._Ptr, this));

  00003	8b 45 08	 mov	 eax, DWORD PTR ___$ReturnUdt$[ebp]
  00006	8b 4d 0c	 mov	 ecx, DWORD PTR __Where$[ebp]
  00009	89 08		 mov	 DWORD PTR [eax], ecx

; 803  : 		}

  0000b	5d		 pop	 ebp
  0000c	c2 08 00	 ret	 8
?_Make_iter@?$vector@UExtraAniJump@@V?$allocator@UExtraAniJump@@@std@@@std@@QBE?AV?$_Vector_iterator@V?$_Vector_val@UExtraAniJump@@V?$allocator@UExtraAniJump@@@std@@@std@@@2@V?$_Vector_const_iterator@V?$_Vector_val@UExtraAniJump@@V?$allocator@UExtraAniJump@@@std@@@std@@@2@@Z ENDP ; std::vector<ExtraAniJump,std::allocator<ExtraAniJump> >::_Make_iter
_TEXT	ENDS
PUBLIC	?_Destroy@?$vector@PBUAniEventTime@@V?$allocator@PBUAniEventTime@@@std@@@std@@IAEXPAPBUAniEventTime@@0@Z ; std::vector<AniEventTime const *,std::allocator<AniEventTime const *> >::_Destroy
; Function compile flags: /Ogsp
;	COMDAT ?_Destroy@?$vector@PBUAniEventTime@@V?$allocator@PBUAniEventTime@@@std@@@std@@IAEXPAPBUAniEventTime@@0@Z
_TEXT	SEGMENT
__First$ = 8						; size = 4
__Last$ = 12						; size = 4
?_Destroy@?$vector@PBUAniEventTime@@V?$allocator@PBUAniEventTime@@@std@@@std@@IAEXPAPBUAniEventTime@@0@Z PROC ; std::vector<AniEventTime const *,std::allocator<AniEventTime const *> >::_Destroy, COMDAT
; _this$ = ecx

; 1270 : 		_Destroy_range(_First, _Last, this->_Alval);
; 1271 : 		}

  00000	c2 08 00	 ret	 8
?_Destroy@?$vector@PBUAniEventTime@@V?$allocator@PBUAniEventTime@@@std@@@std@@IAEXPAPBUAniEventTime@@0@Z ENDP ; std::vector<AniEventTime const *,std::allocator<AniEventTime const *> >::_Destroy
_TEXT	ENDS
PUBLIC	??9?$_Vector_const_iterator@V?$_Vector_val@UExtraAniJump@@V?$allocator@UExtraAniJump@@@std@@@std@@@std@@QBE_NABV01@@Z ; std::_Vector_const_iterator<std::_Vector_val<ExtraAniJump,std::allocator<ExtraAniJump> > >::operator!=
; Function compile flags: /Ogsp
;	COMDAT ??9?$_Vector_const_iterator@V?$_Vector_val@UExtraAniJump@@V?$allocator@UExtraAniJump@@@std@@@std@@@std@@QBE_NABV01@@Z
_TEXT	SEGMENT
__Right$ = 8						; size = 4
??9?$_Vector_const_iterator@V?$_Vector_val@UExtraAniJump@@V?$allocator@UExtraAniJump@@@std@@@std@@@std@@QBE_NABV01@@Z PROC ; std::_Vector_const_iterator<std::_Vector_val<ExtraAniJump,std::allocator<ExtraAniJump> > >::operator!=, COMDAT
; _this$ = ecx

; 207  : 		{	// test for iterator inequality

  00000	55		 push	 ebp
  00001	8b ec		 mov	 ebp, esp

; 208  : 		return (!(*this == _Right));

  00003	8b 01		 mov	 eax, DWORD PTR [ecx]
  00005	8b 55 08	 mov	 edx, DWORD PTR __Right$[ebp]
  00008	33 c9		 xor	 ecx, ecx
  0000a	3b 02		 cmp	 eax, DWORD PTR [edx]
  0000c	0f 95 c0	 setne	 al

; 209  : 		}

  0000f	5d		 pop	 ebp
  00010	c2 04 00	 ret	 4
??9?$_Vector_const_iterator@V?$_Vector_val@UExtraAniJump@@V?$allocator@UExtraAniJump@@@std@@@std@@@std@@QBE_NABV01@@Z ENDP ; std::_Vector_const_iterator<std::_Vector_val<ExtraAniJump,std::allocator<ExtraAniJump> > >::operator!=
_TEXT	ENDS
PUBLIC	??$_Cons_val@V?$allocator@UExtraAniJump@@@std@@UExtraAniJump@@ABU3@@std@@YAXAAV?$allocator@UExtraAniJump@@@0@PAUExtraAniJump@@ABU2@@Z ; std::_Cons_val<std::allocator<ExtraAniJump>,ExtraAniJump,ExtraAniJump const &>
; Function compile flags: /Ogsp
; File c:\program files (x86)\microsoft visual studio 10.0\vc\include\xmemory
;	COMDAT ??$_Cons_val@V?$allocator@UExtraAniJump@@@std@@UExtraAniJump@@ABU3@@std@@YAXAAV?$allocator@UExtraAniJump@@@0@PAUExtraAniJump@@ABU2@@Z
_TEXT	SEGMENT
__Alval$ = 8						; size = 4
__Pdest$ = 12						; size = 4
__Src$ = 16						; size = 4
??$_Cons_val@V?$allocator@UExtraAniJump@@@std@@UExtraAniJump@@ABU3@@std@@YAXAAV?$allocator@UExtraAniJump@@@0@PAUExtraAniJump@@ABU2@@Z PROC ; std::_Cons_val<std::allocator<ExtraAniJump>,ExtraAniJump,ExtraAniJump const &>, COMDAT

; 279  : 	{	// construct using allocator

  00000	55		 push	 ebp
  00001	8b ec		 mov	 ebp, esp

; 280  : 	_Alval.construct(_Pdest, _STD forward<_Ty2>(_Src));

  00003	8b 45 0c	 mov	 eax, DWORD PTR __Pdest$[ebp]
  00006	85 c0		 test	 eax, eax
  00008	74 0d		 je	 SHORT $LN9@Cons_val@3
  0000a	8b 4d 10	 mov	 ecx, DWORD PTR __Src$[ebp]
  0000d	8b 11		 mov	 edx, DWORD PTR [ecx]
  0000f	89 10		 mov	 DWORD PTR [eax], edx
  00011	8b 49 04	 mov	 ecx, DWORD PTR [ecx+4]
  00014	89 48 04	 mov	 DWORD PTR [eax+4], ecx
$LN9@Cons_val@3:

; 281  : 	}

  00017	5d		 pop	 ebp
  00018	c3		 ret	 0
??$_Cons_val@V?$allocator@UExtraAniJump@@@std@@UExtraAniJump@@ABU3@@std@@YAXAAV?$allocator@UExtraAniJump@@@0@PAUExtraAniJump@@ABU2@@Z ENDP ; std::_Cons_val<std::allocator<ExtraAniJump>,ExtraAniJump,ExtraAniJump const &>
_TEXT	ENDS
PUBLIC	??$_Move@PAUExtraAniJump@@PAU1@@std@@YAPAUExtraAniJump@@PAU1@00@Z ; std::_Move<ExtraAniJump *,ExtraAniJump *>
; Function compile flags: /Ogsp
; File c:\program files (x86)\microsoft visual studio 10.0\vc\include\xutility
;	COMDAT ??$_Move@PAUExtraAniJump@@PAU1@@std@@YAPAUExtraAniJump@@PAU1@00@Z
_TEXT	SEGMENT
__Cat$539829 = -4					; size = 1
__First$ = 8						; size = 4
__Last$ = 12						; size = 4
__Dest$ = 16						; size = 4
??$_Move@PAUExtraAniJump@@PAU1@@std@@YAPAUExtraAniJump@@PAU1@00@Z PROC ; std::_Move<ExtraAniJump *,ExtraAniJump *>, COMDAT

; 2533 : 	{	// move [_First, _Last) to [_Dest, ...), unchecked

  00000	55		 push	 ebp
  00001	8b ec		 mov	 ebp, esp
  00003	51		 push	 ecx

; 2534 : 	return (_Move(_First, _Last,
; 2535 : 		_Dest, _Ptr_cat(_First, _Dest)));

  00004	ff 75 fc	 push	 DWORD PTR __Cat$539829[ebp]
  00007	ff 75 10	 push	 DWORD PTR __Dest$[ebp]
  0000a	ff 75 0c	 push	 DWORD PTR __Last$[ebp]
  0000d	ff 75 08	 push	 DWORD PTR __First$[ebp]
  00010	e8 00 00 00 00	 call	 ??$_Move@PAUExtraAniJump@@PAU1@@std@@YAPAUExtraAniJump@@PAU1@00U_Nonscalar_ptr_iterator_tag@0@@Z ; std::_Move<ExtraAniJump *,ExtraAniJump *>
  00015	83 c4 10	 add	 esp, 16			; 00000010H

; 2536 : 	}

  00018	c9		 leave
  00019	c3		 ret	 0
??$_Move@PAUExtraAniJump@@PAU1@@std@@YAPAUExtraAniJump@@PAU1@00@Z ENDP ; std::_Move<ExtraAniJump *,ExtraAniJump *>
_TEXT	ENDS
PUBLIC	??$_Dest_val@V?$allocator@U_Node@?$_List_nod@MV?$allocator@M@std@@@std@@@std@@U_Node@?$_List_nod@MV?$allocator@M@std@@@2@@std@@YAXAAV?$allocator@U_Node@?$_List_nod@MV?$allocator@M@std@@@std@@@0@PAU_Node@?$_List_nod@MV?$allocator@M@std@@@0@@Z ; std::_Dest_val<std::allocator<std::_List_nod<float,std::allocator<float> >::_Node>,std::_List_nod<float,std::allocator<float> >::_Node>
; Function compile flags: /Ogsp
; File c:\program files (x86)\microsoft visual studio 10.0\vc\include\xmemory
;	COMDAT ??$_Dest_val@V?$allocator@U_Node@?$_List_nod@MV?$allocator@M@std@@@std@@@std@@U_Node@?$_List_nod@MV?$allocator@M@std@@@2@@std@@YAXAAV?$allocator@U_Node@?$_List_nod@MV?$allocator@M@std@@@std@@@0@PAU_Node@?$_List_nod@MV?$allocator@M@std@@@0@@Z
_TEXT	SEGMENT
__Alval$ = 8						; size = 4
__Pdest$ = 12						; size = 4
??$_Dest_val@V?$allocator@U_Node@?$_List_nod@MV?$allocator@M@std@@@std@@@std@@U_Node@?$_List_nod@MV?$allocator@M@std@@@2@@std@@YAXAAV?$allocator@U_Node@?$_List_nod@MV?$allocator@M@std@@@std@@@0@PAU_Node@?$_List_nod@MV?$allocator@M@std@@@0@@Z PROC ; std::_Dest_val<std::allocator<std::_List_nod<float,std::allocator<float> >::_Node>,std::_List_nod<float,std::allocator<float> >::_Node>, COMDAT

; 287  : 	_Alval.destroy(_Pdest);
; 288  : 	}

  00000	c3		 ret	 0
??$_Dest_val@V?$allocator@U_Node@?$_List_nod@MV?$allocator@M@std@@@std@@@std@@U_Node@?$_List_nod@MV?$allocator@M@std@@@2@@std@@YAXAAV?$allocator@U_Node@?$_List_nod@MV?$allocator@M@std@@@std@@@0@PAU_Node@?$_List_nod@MV?$allocator@M@std@@@0@@Z ENDP ; std::_Dest_val<std::allocator<std::_List_nod<float,std::allocator<float> >::_Node>,std::_List_nod<float,std::allocator<float> >::_Node>
_TEXT	ENDS
PUBLIC	?construct@?$allocator@UFireTime@@@std@@QAEXPAUFireTime@@ABU3@@Z ; std::allocator<FireTime>::construct
; Function compile flags: /Ogsp
;	COMDAT ?construct@?$allocator@UFireTime@@@std@@QAEXPAUFireTime@@ABU3@@Z
_TEXT	SEGMENT
__Ptr$ = 8						; size = 4
__Val$ = 12						; size = 4
?construct@?$allocator@UFireTime@@@std@@QAEXPAUFireTime@@ABU3@@Z PROC ; std::allocator<FireTime>::construct, COMDAT
; _this$ = ecx

; 196  : 		{	// construct object at _Ptr with value _Val

  00000	55		 push	 ebp
  00001	8b ec		 mov	 ebp, esp

; 197  : 		_Construct(_Ptr, _Val);

  00003	ff 75 0c	 push	 DWORD PTR __Val$[ebp]
  00006	ff 75 08	 push	 DWORD PTR __Ptr$[ebp]
  00009	e8 00 00 00 00	 call	 ??$_Construct@UFireTime@@ABU1@@std@@YAXPAUFireTime@@ABU1@@Z ; std::_Construct<FireTime,FireTime const &>
  0000e	59		 pop	 ecx
  0000f	59		 pop	 ecx

; 198  : 		}

  00010	5d		 pop	 ebp
  00011	c2 08 00	 ret	 8
?construct@?$allocator@UFireTime@@@std@@QAEXPAUFireTime@@ABU3@@Z ENDP ; std::allocator<FireTime>::construct
_TEXT	ENDS
PUBLIC	??$_Destroy@U_Node@?$_List_nod@UFireTime@@V?$allocator@UFireTime@@@std@@@std@@@std@@YAXPAU_Node@?$_List_nod@UFireTime@@V?$allocator@UFireTime@@@std@@@0@@Z ; std::_Destroy<std::_List_nod<FireTime,std::allocator<FireTime> >::_Node>
; Function compile flags: /Ogsp
;	COMDAT ??$_Destroy@U_Node@?$_List_nod@UFireTime@@V?$allocator@UFireTime@@@std@@@std@@@std@@YAXPAU_Node@?$_List_nod@UFireTime@@V?$allocator@UFireTime@@@std@@@0@@Z
_TEXT	SEGMENT
__Ptr$ = 8						; size = 4
??$_Destroy@U_Node@?$_List_nod@UFireTime@@V?$allocator@UFireTime@@@std@@@std@@@std@@YAXPAU_Node@?$_List_nod@UFireTime@@V?$allocator@UFireTime@@@std@@@0@@Z PROC ; std::_Destroy<std::_List_nod<FireTime,std::allocator<FireTime> >::_Node>, COMDAT

; 62   : 	{	// destroy object at _Ptr

  00000	55		 push	 ebp
  00001	8b ec		 mov	 ebp, esp

; 63   : 	_Ptr->~_Ty();

  00003	8b 4d 08	 mov	 ecx, DWORD PTR __Ptr$[ebp]
  00006	83 c1 08	 add	 ecx, 8

; 64   : 	}

  00009	5d		 pop	 ebp

; 63   : 	_Ptr->~_Ty();

  0000a	e9 00 00 00 00	 jmp	 ??1FireTime@@QAE@XZ
??$_Destroy@U_Node@?$_List_nod@UFireTime@@V?$allocator@UFireTime@@@std@@@std@@@std@@YAXPAU_Node@?$_List_nod@UFireTime@@V?$allocator@UFireTime@@@std@@@0@@Z ENDP ; std::_Destroy<std::_List_nod<FireTime,std::allocator<FireTime> >::_Node>
_TEXT	ENDS
PUBLIC	??$_Dest_val@V?$allocator@UExtraAniJump@@@std@@UExtraAniJump@@@std@@YAXAAV?$allocator@UExtraAniJump@@@0@PAUExtraAniJump@@@Z ; std::_Dest_val<std::allocator<ExtraAniJump>,ExtraAniJump>
; Function compile flags: /Ogsp
;	COMDAT ??$_Dest_val@V?$allocator@UExtraAniJump@@@std@@UExtraAniJump@@@std@@YAXAAV?$allocator@UExtraAniJump@@@0@PAUExtraAniJump@@@Z
_TEXT	SEGMENT
__Alval$ = 8						; size = 4
__Pdest$ = 12						; size = 4
??$_Dest_val@V?$allocator@UExtraAniJump@@@std@@UExtraAniJump@@@std@@YAXAAV?$allocator@UExtraAniJump@@@0@PAUExtraAniJump@@@Z PROC ; std::_Dest_val<std::allocator<ExtraAniJump>,ExtraAniJump>, COMDAT

; 287  : 	_Alval.destroy(_Pdest);
; 288  : 	}

  00000	c3		 ret	 0
??$_Dest_val@V?$allocator@UExtraAniJump@@@std@@UExtraAniJump@@@std@@YAXAAV?$allocator@UExtraAniJump@@@0@PAUExtraAniJump@@@Z ENDP ; std::_Dest_val<std::allocator<ExtraAniJump>,ExtraAniJump>
_TEXT	ENDS
PUBLIC	??$_Cons_val@V?$allocator@UExtraAniJump@@@std@@UExtraAniJump@@U3@@std@@YAXAAV?$allocator@UExtraAniJump@@@0@PAUExtraAniJump@@$$QAU2@@Z ; std::_Cons_val<std::allocator<ExtraAniJump>,ExtraAniJump,ExtraAniJump>
; Function compile flags: /Ogsp
;	COMDAT ??$_Cons_val@V?$allocator@UExtraAniJump@@@std@@UExtraAniJump@@U3@@std@@YAXAAV?$allocator@UExtraAniJump@@@0@PAUExtraAniJump@@$$QAU2@@Z
_TEXT	SEGMENT
__Alval$ = 8						; size = 4
__Pdest$ = 12						; size = 4
__Src$ = 16						; size = 4
??$_Cons_val@V?$allocator@UExtraAniJump@@@std@@UExtraAniJump@@U3@@std@@YAXAAV?$allocator@UExtraAniJump@@@0@PAUExtraAniJump@@$$QAU2@@Z PROC ; std::_Cons_val<std::allocator<ExtraAniJump>,ExtraAniJump,ExtraAniJump>, COMDAT

; 279  : 	{	// construct using allocator

  00000	55		 push	 ebp
  00001	8b ec		 mov	 ebp, esp

; 280  : 	_Alval.construct(_Pdest, _STD forward<_Ty2>(_Src));

  00003	8b 45 0c	 mov	 eax, DWORD PTR __Pdest$[ebp]
  00006	85 c0		 test	 eax, eax
  00008	74 0d		 je	 SHORT $LN7@Cons_val@4
  0000a	8b 4d 10	 mov	 ecx, DWORD PTR __Src$[ebp]
  0000d	8b 11		 mov	 edx, DWORD PTR [ecx]
  0000f	89 10		 mov	 DWORD PTR [eax], edx
  00011	8b 49 04	 mov	 ecx, DWORD PTR [ecx+4]
  00014	89 48 04	 mov	 DWORD PTR [eax+4], ecx
$LN7@Cons_val@4:

; 281  : 	}

  00017	5d		 pop	 ebp
  00018	c3		 ret	 0
??$_Cons_val@V?$allocator@UExtraAniJump@@@std@@UExtraAniJump@@U3@@std@@YAXAAV?$allocator@UExtraAniJump@@@0@PAUExtraAniJump@@$$QAU2@@Z ENDP ; std::_Cons_val<std::allocator<ExtraAniJump>,ExtraAniJump,ExtraAniJump>
_TEXT	ENDS
PUBLIC	?GetTeam@ioPlayEntity@@QBE?AW4TeamType@@XZ	; ioPlayEntity::GetTeam
; Function compile flags: /Ogsp
; File d:\lost saga for developer\youtube\tutorial\source\src\lsclient\ioplayentity.h
;	COMDAT ?GetTeam@ioPlayEntity@@QBE?AW4TeamType@@XZ
_TEXT	SEGMENT
_value$539900 = -4					; size = 4
?GetTeam@ioPlayEntity@@QBE?AW4TeamType@@XZ PROC		; ioPlayEntity::GetTeam, COMDAT
; _this$ = ecx

; 107  : 	inline TeamType GetTeam() const { return m_TeamType; }

  00000	55		 push	 ebp
  00001	8b ec		 mov	 ebp, esp
  00003	51		 push	 ecx
  00004	8d 45 fc	 lea	 eax, DWORD PTR _value$539900[ebp]
  00007	50		 push	 eax
  00008	81 c1 90 00 00
	00		 add	 ecx, 144		; 00000090H
  0000e	e8 00 00 00 00	 call	 ?DecryptValueToPool@?$CEncrypt@W4TeamType@@@@QAEXPAW4TeamType@@@Z ; CEncrypt<enum TeamType>::DecryptValueToPool
  00013	8b 45 fc	 mov	 eax, DWORD PTR _value$539900[ebp]
  00016	c9		 leave
  00017	c3		 ret	 0
?GetTeam@ioPlayEntity@@QBE?AW4TeamType@@XZ ENDP		; ioPlayEntity::GetTeam
_TEXT	ENDS
PUBLIC	??0?$vector@KV?$allocator@K@std@@@std@@QAE@XZ	; std::vector<unsigned long,std::allocator<unsigned long> >::vector<unsigned long,std::allocator<unsigned long> >
; Function compile flags: /Ogsp
; File c:\program files (x86)\microsoft visual studio 10.0\vc\include\vector
;	COMDAT ??0?$vector@KV?$allocator@K@std@@@std@@QAE@XZ
_TEXT	SEGMENT
??0?$vector@KV?$allocator@K@std@@@std@@QAE@XZ PROC	; std::vector<unsigned long,std::allocator<unsigned long> >::vector<unsigned long,std::allocator<unsigned long> >, COMDAT
; _this$ = ecx

; 507  : 		{	// construct empty vector

  00000	8b c1		 mov	 eax, ecx
  00002	33 c9		 xor	 ecx, ecx
  00004	89 08		 mov	 DWORD PTR [eax], ecx
  00006	89 48 04	 mov	 DWORD PTR [eax+4], ecx
  00009	89 48 08	 mov	 DWORD PTR [eax+8], ecx

; 508  : 		}

  0000c	c3		 ret	 0
??0?$vector@KV?$allocator@K@std@@@std@@QAE@XZ ENDP	; std::vector<unsigned long,std::allocator<unsigned long> >::vector<unsigned long,std::allocator<unsigned long> >
_TEXT	ENDS
PUBLIC	?_Tidy@?$basic_string@DU?$char_traits@D@std@@V?$allocator@D@2@@std@@QAEX_NI@Z ; std::basic_string<char,std::char_traits<char>,std::allocator<char> >::_Tidy
; Function compile flags: /Ogsp
; File c:\program files (x86)\microsoft visual studio 10.0\vc\include\xstring
;	COMDAT ?_Tidy@?$basic_string@DU?$char_traits@D@std@@V?$allocator@D@2@@std@@QAEX_NI@Z
_TEXT	SEGMENT
__Built$ = 8						; size = 1
__Newsize$ = 12						; size = 4
?_Tidy@?$basic_string@DU?$char_traits@D@std@@V?$allocator@D@2@@std@@QAEX_NI@Z PROC ; std::basic_string<char,std::char_traits<char>,std::allocator<char> >::_Tidy, COMDAT
; _this$ = ecx

; 1988 : 		{	// initialize buffer, deallocating any storage

  00000	55		 push	 ebp
  00001	8b ec		 mov	 ebp, esp

; 1989 : 		if (!_Built)

  00003	80 7d 08 00	 cmp	 BYTE PTR __Built$[ebp], 0
  00007	56		 push	 esi
  00008	57		 push	 edi
  00009	8b 7d 0c	 mov	 edi, DWORD PTR __Newsize$[ebp]
  0000c	8b f1		 mov	 esi, ecx
  0000e	74 20		 je	 SHORT $LN9@Tidy

; 1990 : 			;
; 1991 : 		else if (this->_BUF_SIZE <= this->_Myres)

  00010	83 7e 14 10	 cmp	 DWORD PTR [esi+20], 16	; 00000010H
  00014	72 1a		 jb	 SHORT $LN9@Tidy

; 1992 : 			{	// copy any leftovers to small buffer and deallocate
; 1993 : 			_Elem *_Ptr = this->_Bx._Ptr;

  00016	53		 push	 ebx
  00017	8b 1e		 mov	 ebx, DWORD PTR [esi]

; 1994 : 			if (0 < _Newsize)

  00019	85 ff		 test	 edi, edi
  0001b	74 0b		 je	 SHORT $LN7@Tidy

; 1995 : 				_Traits::copy(this->_Bx._Buf, _Ptr, _Newsize);

  0001d	57		 push	 edi
  0001e	53		 push	 ebx
  0001f	56		 push	 esi
  00020	e8 00 00 00 00	 call	 _memcpy
  00025	83 c4 0c	 add	 esp, 12			; 0000000cH
$LN7@Tidy:

; 1996 : 			this->_Alval.deallocate(_Ptr, this->_Myres + 1);

  00028	53		 push	 ebx
  00029	e8 00 00 00 00	 call	 ??3@YAXPAX@Z		; operator delete
  0002e	59		 pop	 ecx
  0002f	5b		 pop	 ebx
$LN9@Tidy:

; 1997 : 			}
; 1998 : 		this->_Myres = this->_BUF_SIZE - 1;
; 1999 : 		_Eos(_Newsize);

  00030	89 7e 10	 mov	 DWORD PTR [esi+16], edi
  00033	c7 46 14 0f 00
	00 00		 mov	 DWORD PTR [esi+20], 15	; 0000000fH
  0003a	c6 04 37 00	 mov	 BYTE PTR [edi+esi], 0
  0003e	5f		 pop	 edi
  0003f	5e		 pop	 esi

; 2000 : 		}

  00040	5d		 pop	 ebp
  00041	c2 08 00	 ret	 8
?_Tidy@?$basic_string@DU?$char_traits@D@std@@V?$allocator@D@2@@std@@QAEX_NI@Z ENDP ; std::basic_string<char,std::char_traits<char>,std::allocator<char> >::_Tidy
_TEXT	ENDS
PUBLIC	?begin@?$vector@KV?$allocator@K@std@@@std@@QAE?AV?$_Vector_iterator@V?$_Vector_val@KV?$allocator@K@std@@@std@@@2@XZ ; std::vector<unsigned long,std::allocator<unsigned long> >::begin
; Function compile flags: /Ogsp
; File c:\program files (x86)\microsoft visual studio 10.0\vc\include\vector
;	COMDAT ?begin@?$vector@KV?$allocator@K@std@@@std@@QAE?AV?$_Vector_iterator@V?$_Vector_val@KV?$allocator@K@std@@@std@@@2@XZ
_TEXT	SEGMENT
___$ReturnUdt$ = 8					; size = 4
?begin@?$vector@KV?$allocator@K@std@@@std@@QAE?AV?$_Vector_iterator@V?$_Vector_val@KV?$allocator@K@std@@@std@@@2@XZ PROC ; std::vector<unsigned long,std::allocator<unsigned long> >::begin, COMDAT
; _this$ = ecx

; 781  : 		{	// return iterator for beginning of mutable sequence

  00000	55		 push	 ebp
  00001	8b ec		 mov	 ebp, esp

; 782  : 		return (iterator(this->_Myfirst, this));

  00003	8b 09		 mov	 ecx, DWORD PTR [ecx]
  00005	8b 45 08	 mov	 eax, DWORD PTR ___$ReturnUdt$[ebp]
  00008	89 08		 mov	 DWORD PTR [eax], ecx

; 783  : 		}

  0000a	5d		 pop	 ebp
  0000b	c2 04 00	 ret	 4
?begin@?$vector@KV?$allocator@K@std@@@std@@QAE?AV?$_Vector_iterator@V?$_Vector_val@KV?$allocator@K@std@@@std@@@2@XZ ENDP ; std::vector<unsigned long,std::allocator<unsigned long> >::begin
_TEXT	ENDS
PUBLIC	?end@?$vector@KV?$allocator@K@std@@@std@@QAE?AV?$_Vector_iterator@V?$_Vector_val@KV?$allocator@K@std@@@std@@@2@XZ ; std::vector<unsigned long,std::allocator<unsigned long> >::end
; Function compile flags: /Ogsp
;	COMDAT ?end@?$vector@KV?$allocator@K@std@@@std@@QAE?AV?$_Vector_iterator@V?$_Vector_val@KV?$allocator@K@std@@@std@@@2@XZ
_TEXT	SEGMENT
___$ReturnUdt$ = 8					; size = 4
?end@?$vector@KV?$allocator@K@std@@@std@@QAE?AV?$_Vector_iterator@V?$_Vector_val@KV?$allocator@K@std@@@std@@@2@XZ PROC ; std::vector<unsigned long,std::allocator<unsigned long> >::end, COMDAT
; _this$ = ecx

; 791  : 		{	// return iterator for end of mutable sequence

  00000	55		 push	 ebp
  00001	8b ec		 mov	 ebp, esp

; 792  : 		return (iterator(this->_Mylast, this));

  00003	8b 49 04	 mov	 ecx, DWORD PTR [ecx+4]
  00006	8b 45 08	 mov	 eax, DWORD PTR ___$ReturnUdt$[ebp]
  00009	89 08		 mov	 DWORD PTR [eax], ecx

; 793  : 		}

  0000b	5d		 pop	 ebp
  0000c	c2 04 00	 ret	 4
?end@?$vector@KV?$allocator@K@std@@@std@@QAE?AV?$_Vector_iterator@V?$_Vector_val@KV?$allocator@K@std@@@std@@@2@XZ ENDP ; std::vector<unsigned long,std::allocator<unsigned long> >::end
_TEXT	ENDS
PUBLIC	?erase@?$basic_string@DU?$char_traits@D@std@@V?$allocator@D@2@@std@@QAEAAV12@II@Z ; std::basic_string<char,std::char_traits<char>,std::allocator<char> >::erase
; Function compile flags: /Ogsp
; File c:\program files (x86)\microsoft visual studio 10.0\vc\include\xstring
;	COMDAT ?erase@?$basic_string@DU?$char_traits@D@std@@V?$allocator@D@2@@std@@QAEAAV12@II@Z
_TEXT	SEGMENT
__Off$ = 8						; size = 4
__Count$ = 12						; size = 4
?erase@?$basic_string@DU?$char_traits@D@std@@V?$allocator@D@2@@std@@QAEAAV12@II@Z PROC ; std::basic_string<char,std::char_traits<char>,std::allocator<char> >::erase, COMDAT
; _this$ = ecx

; 1109 : 		{	// erase elements [_Off, _Off + _Count)

  00000	55		 push	 ebp
  00001	8b ec		 mov	 ebp, esp
  00003	53		 push	 ebx
  00004	56		 push	 esi
  00005	8b f1		 mov	 esi, ecx

; 1110 : 		if (this->_Mysize < _Off)

  00007	8b 46 10	 mov	 eax, DWORD PTR [esi+16]
  0000a	8b 4d 08	 mov	 ecx, DWORD PTR __Off$[ebp]
  0000d	3b c1		 cmp	 eax, ecx
  0000f	73 0b		 jae	 SHORT $LN3@erase

; 1111 : 			_Xran();	// _Off off end

  00011	68 00 00 00 00	 push	 OFFSET ??_C@_0BI@CFPLBAOH@invalid?5string?5position?$AA@
  00016	ff 15 00 00 00
	00		 call	 DWORD PTR __imp_?_Xout_of_range@std@@YAXPBD@Z
$LN28@erase:
$LN3@erase:

; 1112 : 		if (this->_Mysize - _Off < _Count)

  0001c	8b 5d 0c	 mov	 ebx, DWORD PTR __Count$[ebp]
  0001f	2b c1		 sub	 eax, ecx
  00021	3b c3		 cmp	 eax, ebx

; 1113 : 			_Count = this->_Mysize - _Off;	// trim _Count

  00023	0f 42 d8	 cmovb	 ebx, eax

; 1114 : 		if (0 < _Count)

  00026	85 db		 test	 ebx, ebx
  00028	74 47		 je	 SHORT $LN25@erase

; 1115 : 			{	// move elements down
; 1116 : 			_Traits::move(_Myptr() + _Off, _Myptr() + _Off + _Count,
; 1117 : 				this->_Mysize - _Off - _Count);

  0002a	8b 56 14	 mov	 edx, DWORD PTR [esi+20]
  0002d	57		 push	 edi
  0002e	83 fa 10	 cmp	 edx, 16			; 00000010H
  00031	72 04		 jb	 SHORT $LN11@erase
  00033	8b 3e		 mov	 edi, DWORD PTR [esi]
  00035	eb 02		 jmp	 SHORT $LN12@erase
$LN11@erase:
  00037	8b fe		 mov	 edi, esi
$LN12@erase:
  00039	83 fa 10	 cmp	 edx, 16			; 00000010H
  0003c	72 04		 jb	 SHORT $LN15@erase
  0003e	8b 16		 mov	 edx, DWORD PTR [esi]
  00040	eb 02		 jmp	 SHORT $LN16@erase
$LN15@erase:
  00042	8b d6		 mov	 edx, esi
$LN16@erase:
  00044	2b c3		 sub	 eax, ebx
  00046	03 f9		 add	 edi, ecx
  00048	50		 push	 eax
  00049	03 fb		 add	 edi, ebx
  0004b	03 d1		 add	 edx, ecx
  0004d	57		 push	 edi
  0004e	52		 push	 edx
  0004f	ff 15 00 00 00
	00		 call	 DWORD PTR __imp__memmove

; 1118 : 			size_type _Newsize = this->_Mysize - _Count;

  00055	8b 46 10	 mov	 eax, DWORD PTR [esi+16]
  00058	83 c4 0c	 add	 esp, 12			; 0000000cH
  0005b	2b c3		 sub	 eax, ebx

; 1119 : 			_Eos(_Newsize);

  0005d	83 7e 14 10	 cmp	 DWORD PTR [esi+20], 16	; 00000010H
  00061	89 46 10	 mov	 DWORD PTR [esi+16], eax
  00064	5f		 pop	 edi
  00065	72 04		 jb	 SHORT $LN23@erase
  00067	8b 0e		 mov	 ecx, DWORD PTR [esi]
  00069	eb 02		 jmp	 SHORT $LN24@erase
$LN23@erase:
  0006b	8b ce		 mov	 ecx, esi
$LN24@erase:
  0006d	c6 04 01 00	 mov	 BYTE PTR [ecx+eax], 0
$LN25@erase:

; 1120 : 			}
; 1121 : 		return (*this);

  00071	8b c6		 mov	 eax, esi
  00073	5e		 pop	 esi
  00074	5b		 pop	 ebx

; 1122 : 		}

  00075	5d		 pop	 ebp
  00076	c2 08 00	 ret	 8
$LN27@erase:
?erase@?$basic_string@DU?$char_traits@D@std@@V?$allocator@D@2@@std@@QAEAAV12@II@Z ENDP ; std::basic_string<char,std::char_traits<char>,std::allocator<char> >::erase
_TEXT	ENDS
PUBLIC	?_Make_iter@?$vector@KV?$allocator@K@std@@@std@@QBE?AV?$_Vector_iterator@V?$_Vector_val@KV?$allocator@K@std@@@std@@@2@V?$_Vector_const_iterator@V?$_Vector_val@KV?$allocator@K@std@@@std@@@2@@Z ; std::vector<unsigned long,std::allocator<unsigned long> >::_Make_iter
; Function compile flags: /Ogsp
; File c:\program files (x86)\microsoft visual studio 10.0\vc\include\vector
;	COMDAT ?_Make_iter@?$vector@KV?$allocator@K@std@@@std@@QBE?AV?$_Vector_iterator@V?$_Vector_val@KV?$allocator@K@std@@@std@@@2@V?$_Vector_const_iterator@V?$_Vector_val@KV?$allocator@K@std@@@std@@@2@@Z
_TEXT	SEGMENT
___$ReturnUdt$ = 8					; size = 4
__Where$ = 12						; size = 4
?_Make_iter@?$vector@KV?$allocator@K@std@@@std@@QBE?AV?$_Vector_iterator@V?$_Vector_val@KV?$allocator@K@std@@@std@@@2@V?$_Vector_const_iterator@V?$_Vector_val@KV?$allocator@K@std@@@std@@@2@@Z PROC ; std::vector<unsigned long,std::allocator<unsigned long> >::_Make_iter, COMDAT
; _this$ = ecx

; 801  : 		{	// make iterator from const_iterator

  00000	55		 push	 ebp
  00001	8b ec		 mov	 ebp, esp

; 802  : 		return (iterator(_Where._Ptr, this));

  00003	8b 45 08	 mov	 eax, DWORD PTR ___$ReturnUdt$[ebp]
  00006	8b 4d 0c	 mov	 ecx, DWORD PTR __Where$[ebp]
  00009	89 08		 mov	 DWORD PTR [eax], ecx

; 803  : 		}

  0000b	5d		 pop	 ebp
  0000c	c2 08 00	 ret	 8
?_Make_iter@?$vector@KV?$allocator@K@std@@@std@@QBE?AV?$_Vector_iterator@V?$_Vector_val@KV?$allocator@K@std@@@std@@@2@V?$_Vector_const_iterator@V?$_Vector_val@KV?$allocator@K@std@@@std@@@2@@Z ENDP ; std::vector<unsigned long,std::allocator<unsigned long> >::_Make_iter
_TEXT	ENDS
PUBLIC	?_Destroy@?$vector@KV?$allocator@K@std@@@std@@IAEXPAK0@Z ; std::vector<unsigned long,std::allocator<unsigned long> >::_Destroy
; Function compile flags: /Ogsp
;	COMDAT ?_Destroy@?$vector@KV?$allocator@K@std@@@std@@IAEXPAK0@Z
_TEXT	SEGMENT
__First$ = 8						; size = 4
__Last$ = 12						; size = 4
?_Destroy@?$vector@KV?$allocator@K@std@@@std@@IAEXPAK0@Z PROC ; std::vector<unsigned long,std::allocator<unsigned long> >::_Destroy, COMDAT
; _this$ = ecx

; 1270 : 		_Destroy_range(_First, _Last, this->_Alval);
; 1271 : 		}

  00000	c2 08 00	 ret	 8
?_Destroy@?$vector@KV?$allocator@K@std@@@std@@IAEXPAK0@Z ENDP ; std::vector<unsigned long,std::allocator<unsigned long> >::_Destroy
_TEXT	ENDS
PUBLIC	??9?$_Vector_const_iterator@V?$_Vector_val@VioHashString@@V?$allocator@VioHashString@@@std@@@std@@@std@@QBE_NABV01@@Z ; std::_Vector_const_iterator<std::_Vector_val<ioHashString,std::allocator<ioHashString> > >::operator!=
; Function compile flags: /Ogsp
;	COMDAT ??9?$_Vector_const_iterator@V?$_Vector_val@VioHashString@@V?$allocator@VioHashString@@@std@@@std@@@std@@QBE_NABV01@@Z
_TEXT	SEGMENT
__Right$ = 8						; size = 4
??9?$_Vector_const_iterator@V?$_Vector_val@VioHashString@@V?$allocator@VioHashString@@@std@@@std@@@std@@QBE_NABV01@@Z PROC ; std::_Vector_const_iterator<std::_Vector_val<ioHashString,std::allocator<ioHashString> > >::operator!=, COMDAT
; _this$ = ecx

; 207  : 		{	// test for iterator inequality

  00000	55		 push	 ebp
  00001	8b ec		 mov	 ebp, esp

; 208  : 		return (!(*this == _Right));

  00003	8b 01		 mov	 eax, DWORD PTR [ecx]
  00005	8b 55 08	 mov	 edx, DWORD PTR __Right$[ebp]
  00008	33 c9		 xor	 ecx, ecx
  0000a	3b 02		 cmp	 eax, DWORD PTR [edx]
  0000c	0f 95 c0	 setne	 al

; 209  : 		}

  0000f	5d		 pop	 ebp
  00010	c2 04 00	 ret	 4
??9?$_Vector_const_iterator@V?$_Vector_val@VioHashString@@V?$allocator@VioHashString@@@std@@@std@@@std@@QBE_NABV01@@Z ENDP ; std::_Vector_const_iterator<std::_Vector_val<ioHashString,std::allocator<ioHashString> > >::operator!=
_TEXT	ENDS
PUBLIC	??9?$_Vector_const_iterator@V?$_Vector_val@KV?$allocator@K@std@@@std@@@std@@QBE_NABV01@@Z ; std::_Vector_const_iterator<std::_Vector_val<unsigned long,std::allocator<unsigned long> > >::operator!=
; Function compile flags: /Ogsp
;	COMDAT ??9?$_Vector_const_iterator@V?$_Vector_val@KV?$allocator@K@std@@@std@@@std@@QBE_NABV01@@Z
_TEXT	SEGMENT
__Right$ = 8						; size = 4
??9?$_Vector_const_iterator@V?$_Vector_val@KV?$allocator@K@std@@@std@@@std@@QBE_NABV01@@Z PROC ; std::_Vector_const_iterator<std::_Vector_val<unsigned long,std::allocator<unsigned long> > >::operator!=, COMDAT
; _this$ = ecx

; 207  : 		{	// test for iterator inequality

  00000	55		 push	 ebp
  00001	8b ec		 mov	 ebp, esp

; 208  : 		return (!(*this == _Right));

  00003	8b 01		 mov	 eax, DWORD PTR [ecx]
  00005	8b 55 08	 mov	 edx, DWORD PTR __Right$[ebp]
  00008	33 c9		 xor	 ecx, ecx
  0000a	3b 02		 cmp	 eax, DWORD PTR [edx]
  0000c	0f 95 c0	 setne	 al

; 209  : 		}

  0000f	5d		 pop	 ebp
  00010	c2 04 00	 ret	 4
??9?$_Vector_const_iterator@V?$_Vector_val@KV?$allocator@K@std@@@std@@@std@@QBE_NABV01@@Z ENDP ; std::_Vector_const_iterator<std::_Vector_val<unsigned long,std::allocator<unsigned long> > >::operator!=
_TEXT	ENDS
PUBLIC	?_Copy@?$basic_string@DU?$char_traits@D@std@@V?$allocator@D@2@@std@@QAEXII@Z ; std::basic_string<char,std::char_traits<char>,std::allocator<char> >::_Copy
EXTRN	__EH_prolog3_catch:PROC
;	COMDAT xdata$x
; File c:\program files (x86)\microsoft visual studio 10.0\vc\include\iosfwd
xdata$x	SEGMENT
__catchsym$?_Copy@?$basic_string@DU?$char_traits@D@std@@V?$allocator@D@2@@std@@QAEXII@Z$5 DD 040H
	DD	00H
	DD	00H
	DD	FLAT:__catch$?_Copy@?$basic_string@DU?$char_traits@D@std@@V?$allocator@D@2@@std@@QAEXII@Z$0
__catchsym$?_Copy@?$basic_string@DU?$char_traits@D@std@@V?$allocator@D@2@@std@@QAEXII@Z$4 DD 040H
	DD	00H
	DD	00H
	DD	FLAT:__catch$?_Copy@?$basic_string@DU?$char_traits@D@std@@V?$allocator@D@2@@std@@QAEXII@Z$1
__unwindtable$?_Copy@?$basic_string@DU?$char_traits@D@std@@V?$allocator@D@2@@std@@QAEXII@Z DD 0ffffffffH
	DD	00H
	DD	0ffffffffH
	DD	00H
	DD	01H
	DD	00H
	DD	01H
	DD	00H
__ehfuncinfo$?_Copy@?$basic_string@DU?$char_traits@D@std@@V?$allocator@D@2@@std@@QAEXII@Z DD 019930522H
	DD	04H
	DD	FLAT:__unwindtable$?_Copy@?$basic_string@DU?$char_traits@D@std@@V?$allocator@D@2@@std@@QAEXII@Z
	DD	02H
	DD	FLAT:__tryblocktable$?_Copy@?$basic_string@DU?$char_traits@D@std@@V?$allocator@D@2@@std@@QAEXII@Z
	DD	2 DUP(00H)
	DD	00H
	DD	01H
__tryblocktable$?_Copy@?$basic_string@DU?$char_traits@D@std@@V?$allocator@D@2@@std@@QAEXII@Z DD 02H
	DD	02H
	DD	03H
	DD	01H
	DD	FLAT:__catchsym$?_Copy@?$basic_string@DU?$char_traits@D@std@@V?$allocator@D@2@@std@@QAEXII@Z$4
	DD	00H
	DD	00H
	DD	03H
	DD	01H
	DD	FLAT:__catchsym$?_Copy@?$basic_string@DU?$char_traits@D@std@@V?$allocator@D@2@@std@@QAEXII@Z$5
; Function compile flags: /Ogsp
; File c:\program files (x86)\microsoft visual studio 10.0\vc\include\xstring
xdata$x	ENDS
;	COMDAT ?_Copy@?$basic_string@DU?$char_traits@D@std@@V?$allocator@D@2@@std@@QAEXII@Z
_TEXT	SEGMENT
_this$ = -24						; size = 4
tv296 = -20						; size = 4
__Newres$ = -20						; size = 4
__$EHRec$ = -16						; size = 16
__Ptr$ = 8						; size = 4
__Newsize$ = 8						; size = 4
__Oldlen$ = 12						; size = 4
?_Copy@?$basic_string@DU?$char_traits@D@std@@V?$allocator@D@2@@std@@QAEXII@Z PROC ; std::basic_string<char,std::char_traits<char>,std::allocator<char> >::_Copy, COMDAT
; _this$ = ecx

; 1919 : 		{	// copy _Oldlen elements to newly allocated buffer

  00000	6a 0c		 push	 12			; 0000000cH
  00002	b8 00 00 00 00	 mov	 eax, __ehhandler$?_Copy@?$basic_string@DU?$char_traits@D@std@@V?$allocator@D@2@@std@@QAEXII@Z
  00007	e8 00 00 00 00	 call	 __EH_prolog3_catch
  0000c	8b f1		 mov	 esi, ecx
  0000e	89 75 e8	 mov	 DWORD PTR _this$[ebp], esi

; 1920 : 		size_type _Newres = _Newsize | this->_ALLOC_MASK;

  00011	8b 7d 08	 mov	 edi, DWORD PTR __Newsize$[ebp]
  00014	83 cf 0f	 or	 edi, 15			; 0000000fH

; 1921 : 		if (max_size() < _Newres)

  00017	83 ff fe	 cmp	 edi, -2			; fffffffeH
  0001a	76 05		 jbe	 SHORT $LN9@Copy

; 1922 : 			_Newres = _Newsize;	// undo roundup if too big

  0001c	8b 7d 08	 mov	 edi, DWORD PTR __Newsize$[ebp]
  0001f	eb 27		 jmp	 SHORT $LN5@Copy
$LN9@Copy:

; 1923 : 		else if (this->_Myres / 2 <= _Newres / 3)

  00021	33 d2		 xor	 edx, edx
  00023	6a 03		 push	 3
  00025	8b c7		 mov	 eax, edi
  00027	5b		 pop	 ebx
  00028	f7 f3		 div	 ebx
  0002a	8b 4e 14	 mov	 ecx, DWORD PTR [esi+20]
  0002d	89 4d ec	 mov	 DWORD PTR tv296[ebp], ecx
  00030	d1 6d ec	 shr	 DWORD PTR tv296[ebp], 1
  00033	8b 55 ec	 mov	 edx, DWORD PTR tv296[ebp]
  00036	3b d0		 cmp	 edx, eax
  00038	76 0e		 jbe	 SHORT $LN5@Copy

; 1924 : 			;
; 1925 : 		else if (this->_Myres <= max_size() - this->_Myres / 2)

  0003a	6a fe		 push	 -2			; fffffffeH
  0003c	5f		 pop	 edi
  0003d	8b c7		 mov	 eax, edi
  0003f	2b c2		 sub	 eax, edx
  00041	3b c8		 cmp	 ecx, eax
  00043	77 03		 ja	 SHORT $LN5@Copy

; 1926 : 			_Newres = this->_Myres
; 1927 : 				+ this->_Myres / 2;	// grow exponentially if possible

  00045	8d 3c 0a	 lea	 edi, DWORD PTR [edx+ecx]
$LN5@Copy:

; 1928 : 		else
; 1929 : 			_Newres = max_size();	// settle for max_size()
; 1930 : 
; 1931 : 		_Elem *_Ptr;
; 1932 : 		_TRY_BEGIN

  00048	83 65 fc 00	 and	 DWORD PTR __$EHRec$[ebp+12], 0

; 1933 : 			_Ptr = this->_Alval.allocate(_Newres + 1);

  0004c	8d 47 01	 lea	 eax, DWORD PTR [edi+1]
  0004f	6a 00		 push	 0
  00051	50		 push	 eax
  00052	e8 00 00 00 00	 call	 ??$_Allocate@D@std@@YAPADIPAD@Z ; std::_Allocate<char>
  00057	59		 pop	 ecx
  00058	59		 pop	 ecx
  00059	89 45 08	 mov	 DWORD PTR __Ptr$[ebp], eax
  0005c	eb 27		 jmp	 SHORT $LN19@Copy
__catch$?_Copy@?$basic_string@DU?$char_traits@D@std@@V?$allocator@D@2@@std@@QAEXII@Z$0:

; 1934 : 		_CATCH_ALL
; 1935 : 			_Newres = _Newsize;	// allocation failed, undo roundup and retry

  0005e	8b 45 08	 mov	 eax, DWORD PTR __Newsize$[ebp]
  00061	89 65 f0	 mov	 DWORD PTR __$EHRec$[ebp], esp
  00064	89 45 ec	 mov	 DWORD PTR __Newres$[ebp], eax

; 1936 : 			_TRY_BEGIN
; 1937 : 				_Ptr = this->_Alval.allocate(_Newres + 1);

  00067	40		 inc	 eax
  00068	6a 00		 push	 0
  0006a	50		 push	 eax
  0006b	c6 45 fc 02	 mov	 BYTE PTR __$EHRec$[ebp+12], 2
  0006f	e8 00 00 00 00	 call	 ??$_Allocate@D@std@@YAPADIPAD@Z ; std::_Allocate<char>
  00074	59		 pop	 ecx
  00075	89 45 08	 mov	 DWORD PTR __Ptr$[ebp], eax
  00078	59		 pop	 ecx

; 1941 : 			_CATCH_END
; 1942 : 		_CATCH_END

  00079	b8 00 00 00 00	 mov	 eax, $LN63@Copy
  0007e	c3		 ret	 0
$LN63@Copy:
  0007f	8b 75 e8	 mov	 esi, DWORD PTR _this$[ebp]
  00082	8b 7d ec	 mov	 edi, DWORD PTR __Newres$[ebp]
$LN19@Copy:

; 1943 : 
; 1944 : 		if (0 < _Oldlen)

  00085	8b 5d 0c	 mov	 ebx, DWORD PTR __Oldlen$[ebp]
  00088	85 db		 test	 ebx, ebx
  0008a	74 19		 je	 SHORT $LN52@Copy

; 1945 : 			_Traits::copy(_Ptr, _Myptr(), _Oldlen);	// copy existing elements

  0008c	83 7e 14 10	 cmp	 DWORD PTR [esi+20], 16	; 00000010H
  00090	72 04		 jb	 SHORT $LN50@Copy
  00092	8b 06		 mov	 eax, DWORD PTR [esi]
  00094	eb 02		 jmp	 SHORT $LN51@Copy
$LN50@Copy:
  00096	8b c6		 mov	 eax, esi
$LN51@Copy:
  00098	53		 push	 ebx
  00099	50		 push	 eax
  0009a	ff 75 08	 push	 DWORD PTR __Ptr$[ebp]
  0009d	e8 00 00 00 00	 call	 _memcpy
  000a2	83 c4 0c	 add	 esp, 12			; 0000000cH
$LN52@Copy:

; 1946 : 		_Tidy(true);

  000a5	6a 00		 push	 0
  000a7	6a 01		 push	 1
  000a9	8b ce		 mov	 ecx, esi
  000ab	e8 00 00 00 00	 call	 ?_Tidy@?$basic_string@DU?$char_traits@D@std@@V?$allocator@D@2@@std@@QAEX_NI@Z ; std::basic_string<char,std::char_traits<char>,std::allocator<char> >::_Tidy

; 1947 : 		this->_Bx._Ptr = _Ptr;

  000b0	8b 45 08	 mov	 eax, DWORD PTR __Ptr$[ebp]
  000b3	89 06		 mov	 DWORD PTR [esi], eax

; 1948 : 		this->_Myres = _Newres;
; 1949 : 		_Eos(_Oldlen);

  000b5	83 ff 10	 cmp	 edi, 16			; 00000010H
  000b8	89 7e 14	 mov	 DWORD PTR [esi+20], edi
  000bb	89 5e 10	 mov	 DWORD PTR [esi+16], ebx
  000be	0f 42 c6	 cmovb	 eax, esi
  000c1	c6 04 18 00	 mov	 BYTE PTR [eax+ebx], 0

; 1950 : 		}

  000c5	e8 00 00 00 00	 call	 __EH_epilog3
  000ca	c2 08 00	 ret	 8
__catch$?_Copy@?$basic_string@DU?$char_traits@D@std@@V?$allocator@D@2@@std@@QAEXII@Z$1:

; 1938 : 			_CATCH_ALL
; 1939 : 			_Tidy(true);	// failed again, discard storage and reraise

  000cd	8b 4d e8	 mov	 ecx, DWORD PTR _this$[ebp]
  000d0	33 f6		 xor	 esi, esi
  000d2	56		 push	 esi
  000d3	6a 01		 push	 1
  000d5	e8 00 00 00 00	 call	 ?_Tidy@?$basic_string@DU?$char_traits@D@std@@V?$allocator@D@2@@std@@QAEX_NI@Z ; std::basic_string<char,std::char_traits<char>,std::allocator<char> >::_Tidy

; 1940 : 			_RERAISE;

  000da	56		 push	 esi
  000db	56		 push	 esi
  000dc	e8 00 00 00 00	 call	 __CxxThrowException@8
$LN67@Copy:
$LN66@Copy:
  000e1	cc		 int	 3
_TEXT	ENDS
;	COMDAT text$x
text$x	SEGMENT
__ehhandler$?_Copy@?$basic_string@DU?$char_traits@D@std@@V?$allocator@D@2@@std@@QAEXII@Z:
  00000	8b 54 24 08	 mov	 edx, DWORD PTR [esp+8]
  00004	8d 42 0c	 lea	 eax, DWORD PTR [edx+12]
  00007	8b 4a e4	 mov	 ecx, DWORD PTR [edx-28]
  0000a	33 c8		 xor	 ecx, eax
  0000c	e8 00 00 00 00	 call	 @__security_check_cookie@4
  00011	b8 00 00 00 00	 mov	 eax, OFFSET __ehfuncinfo$?_Copy@?$basic_string@DU?$char_traits@D@std@@V?$allocator@D@2@@std@@QAEXII@Z
  00016	e9 00 00 00 00	 jmp	 ___CxxFrameHandler3
text$x	ENDS
?_Copy@?$basic_string@DU?$char_traits@D@std@@V?$allocator@D@2@@std@@QAEXII@Z ENDP ; std::basic_string<char,std::char_traits<char>,std::allocator<char> >::_Copy
PUBLIC	??$_Cons_val@V?$allocator@K@std@@KABK@std@@YAXAAV?$allocator@K@0@PAKABK@Z ; std::_Cons_val<std::allocator<unsigned long>,unsigned long,unsigned long const &>
; Function compile flags: /Ogsp
; File c:\program files (x86)\microsoft visual studio 10.0\vc\include\xmemory
;	COMDAT ??$_Cons_val@V?$allocator@K@std@@KABK@std@@YAXAAV?$allocator@K@0@PAKABK@Z
_TEXT	SEGMENT
__Alval$ = 8						; size = 4
__Pdest$ = 12						; size = 4
__Src$ = 16						; size = 4
??$_Cons_val@V?$allocator@K@std@@KABK@std@@YAXAAV?$allocator@K@0@PAKABK@Z PROC ; std::_Cons_val<std::allocator<unsigned long>,unsigned long,unsigned long const &>, COMDAT

; 279  : 	{	// construct using allocator

  00000	55		 push	 ebp
  00001	8b ec		 mov	 ebp, esp

; 280  : 	_Alval.construct(_Pdest, _STD forward<_Ty2>(_Src));

  00003	8b 45 0c	 mov	 eax, DWORD PTR __Pdest$[ebp]
  00006	85 c0		 test	 eax, eax
  00008	74 07		 je	 SHORT $LN9@Cons_val@5
  0000a	8b 4d 10	 mov	 ecx, DWORD PTR __Src$[ebp]
  0000d	8b 09		 mov	 ecx, DWORD PTR [ecx]
  0000f	89 08		 mov	 DWORD PTR [eax], ecx
$LN9@Cons_val@5:

; 281  : 	}

  00011	5d		 pop	 ebp
  00012	c3		 ret	 0
??$_Cons_val@V?$allocator@K@std@@KABK@std@@YAXAAV?$allocator@K@0@PAKABK@Z ENDP ; std::_Cons_val<std::allocator<unsigned long>,unsigned long,unsigned long const &>
_TEXT	ENDS
PUBLIC	??$_Umove@PAK@?$vector@KV?$allocator@K@std@@@std@@IAEPAKPAK00@Z ; std::vector<unsigned long,std::allocator<unsigned long> >::_Umove<unsigned long *>
; Function compile flags: /Ogsp
; File c:\program files (x86)\microsoft visual studio 10.0\vc\include\vector
;	COMDAT ??$_Umove@PAK@?$vector@KV?$allocator@K@std@@@std@@IAEPAKPAK00@Z
_TEXT	SEGMENT
__First$ = 8						; size = 4
__Last$ = 12						; size = 4
__Ptr$ = 16						; size = 4
??$_Umove@PAK@?$vector@KV?$allocator@K@std@@@std@@IAEPAKPAK00@Z PROC ; std::vector<unsigned long,std::allocator<unsigned long> >::_Umove<unsigned long *>, COMDAT
; _this$ = ecx

; 1322 : 		pointer _Umove(_Iter _First, _Iter _Last, pointer _Ptr)

  00000	55		 push	 ebp
  00001	8b ec		 mov	 ebp, esp

; 1323 : 		{	// move initializing [_First, _Last), using allocator
; 1324 : 		return (_Uninitialized_move(_First, _Last,
; 1325 : 			_Ptr, this->_Alval));

  00003	83 c1 0c	 add	 ecx, 12			; 0000000cH
  00006	51		 push	 ecx
  00007	ff 75 10	 push	 DWORD PTR __Ptr$[ebp]
  0000a	ff 75 0c	 push	 DWORD PTR __Last$[ebp]
  0000d	ff 75 08	 push	 DWORD PTR __First$[ebp]
  00010	e8 00 00 00 00	 call	 ??$_Uninitialized_move@PAKPAKV?$allocator@K@std@@@std@@YAPAKPAK00AAV?$allocator@K@0@@Z ; std::_Uninitialized_move<unsigned long *,unsigned long *,std::allocator<unsigned long> >
  00015	83 c4 10	 add	 esp, 16			; 00000010H

; 1326 : 		}

  00018	5d		 pop	 ebp
  00019	c2 0c 00	 ret	 12			; 0000000cH
??$_Umove@PAK@?$vector@KV?$allocator@K@std@@@std@@IAEPAKPAK00@Z ENDP ; std::vector<unsigned long,std::allocator<unsigned long> >::_Umove<unsigned long *>
_TEXT	ENDS
PUBLIC	?ProcessDelayState@ioTargetTrace16Dummy@@MAEXM@Z ; ioTargetTrace16Dummy::ProcessDelayState
; Function compile flags: /Ogsp
; File d:\lost saga for developer\youtube\tutorial\source\src\lsclient\iotargettrace16dummy.cpp
;	COMDAT ?ProcessDelayState@ioTargetTrace16Dummy@@MAEXM@Z
_TEXT	SEGMENT
_value$540263 = -4					; size = 4
_fTimePerSec$ = 8					; size = 4
?ProcessDelayState@ioTargetTrace16Dummy@@MAEXM@Z PROC	; ioTargetTrace16Dummy::ProcessDelayState, COMDAT
; _this$ = ecx

; 99   : {

  00000	55		 push	 ebp
  00001	8b ec		 mov	 ebp, esp
  00003	51		 push	 ecx
  00004	56		 push	 esi
  00005	57		 push	 edi
  00006	8b f1		 mov	 esi, ecx

; 100  : 	DWORD dwCurTime = FRAMEGETTIME();

  00008	ff 15 00 00 00
	00		 call	 DWORD PTR __imp_?GetSingleton@ioFrameTimer@@SAAAV1@XZ
  0000e	8b c8		 mov	 ecx, eax
  00010	ff 15 00 00 00
	00		 call	 DWORD PTR __imp_?GetLoopSec@ioFrameTimer@@QBEKXZ

; 101  : 	if( m_dwDelayStartTime > 0 && m_dwDelayStartTime+m_dwDelayDuration < dwCurTime )

  00016	83 be 20 02 00
	00 00		 cmp	 DWORD PTR [esi+544], 0
  0001d	8b f8		 mov	 edi, eax
  0001f	76 61		 jbe	 SHORT $LN4@ProcessDel
  00021	8d 45 fc	 lea	 eax, DWORD PTR _value$540263[ebp]
  00024	50		 push	 eax
  00025	8d 8e 3c 07 00
	00		 lea	 ecx, DWORD PTR [esi+1852]
  0002b	e8 00 00 00 00	 call	 ?DecryptValueToPool@?$CEncrypt@K@@QAEXPAK@Z ; CEncrypt<unsigned long>::DecryptValueToPool
  00030	8b 86 20 02 00
	00		 mov	 eax, DWORD PTR [esi+544]
  00036	03 45 fc	 add	 eax, DWORD PTR _value$540263[ebp]
  00039	3b c7		 cmp	 eax, edi
  0003b	73 45		 jae	 SHORT $LN4@ProcessDel

; 102  : 	{
; 103  : 		m_dwDelayStartTime = 0;
; 104  : 
; 105  : 		if( m_nCanEatCnt && m_nCanEatCnt <= m_iCurAttackCount )

  0003d	8b 86 28 0b 00
	00		 mov	 eax, DWORD PTR [esi+2856]
  00043	83 a6 20 02 00
	00 00		 and	 DWORD PTR [esi+544], 0
  0004a	85 c0		 test	 eax, eax
  0004c	74 2d		 je	 SHORT $LN1@ProcessDel
  0004e	3b 86 8c 14 00
	00		 cmp	 eax, DWORD PTR [esi+5260]
  00054	7f 25		 jg	 SHORT $LN1@ProcessDel

; 106  : 		{
; 107  : 			ioBaseChar *pOwner = GetOwner();

  00056	8b ce		 mov	 ecx, esi
  00058	e8 00 00 00 00	 call	 ?GetOwner@ioDummyChar@@QBEPAVioBaseChar@@XZ ; ioDummyChar::GetOwner
  0005d	8b f8		 mov	 edi, eax

; 108  : 			if ( !pOwner )

  0005f	85 ff		 test	 edi, edi
  00061	74 1f		 je	 SHORT $LN4@ProcessDel

; 109  : 				return;
; 110  : 			if( pOwner->IsNeedProcess() )

  00063	8b 07		 mov	 eax, DWORD PTR [edi]
  00065	8b cf		 mov	 ecx, edi
  00067	ff 90 00 01 00
	00		 call	 DWORD PTR [eax+256]
  0006d	84 c0		 test	 al, al
  0006f	74 0a		 je	 SHORT $LN1@ProcessDel

; 111  : 			{
; 112  : 				SetReturnState( pOwner );

  00071	57		 push	 edi
  00072	8b ce		 mov	 ecx, esi
  00074	e8 00 00 00 00	 call	 ?SetReturnState@ioTargetTrace16Dummy@@AAEXPAVioBaseChar@@@Z ; ioTargetTrace16Dummy::SetReturnState

; 113  : 				return;

  00079	eb 07		 jmp	 SHORT $LN4@ProcessDel
$LN1@ProcessDel:

; 114  : 			}
; 115  : 		}
; 116  : 
; 117  : 		SetSensingState();

  0007b	8b ce		 mov	 ecx, esi
  0007d	e8 00 00 00 00	 call	 ?SetSensingState@ioTargetTrace16Dummy@@AAEXXZ ; ioTargetTrace16Dummy::SetSensingState
$LN4@ProcessDel:
  00082	5f		 pop	 edi
  00083	5e		 pop	 esi

; 118  : 	}
; 119  : }

  00084	c9		 leave
  00085	c2 04 00	 ret	 4
?ProcessDelayState@ioTargetTrace16Dummy@@MAEXM@Z ENDP	; ioTargetTrace16Dummy::ProcessDelayState
_TEXT	ENDS
PUBLIC	__real@bf800000
PUBLIC	__real@3fe0000000000000
PUBLIC	_pStage$GSCopy$
PUBLIC	___$ReturnUdt$GSCopy$
PUBLIC	?GetSearchTarget@ioTargetTrace16Dummy@@AAE?AVioHashString@@PAVioPlayStage@@_N@Z ; ioTargetTrace16Dummy::GetSearchTarget
EXTRN	_D3DXVec3Normalize@8:PROC
EXTRN	__imp_??D@YA?AUD3DXVECTOR3@@ABUD3DXQUATERNION@@ABU0@@Z:PROC
EXTRN	?HasBuff@ioBaseChar@@QBE_NABVioHashString@@@Z:PROC ; ioBaseChar::HasBuff
EXTRN	?IsTargetWoundedState@ioDummyChar@@QAE_NPAVioBaseChar@@@Z:PROC ; ioDummyChar::IsTargetWoundedState
EXTRN	?IsCanNoWound@ioBaseChar@@QAE_NXZ:PROC		; ioBaseChar::IsCanNoWound
EXTRN	?IsEnableTargetState@ioDummyChar@@IAE_NPAVioBaseChar@@@Z:PROC ; ioDummyChar::IsEnableTargetState
EXTRN	__imp_??8ioHashString@@QBE_NABV0@@Z:PROC
EXTRN	__imp_?ArrangeHead@ioMath@@SAMM@Z:PROC
;	COMDAT __real@bf800000
; File d:\lost saga for developer\youtube\tutorial\source\src\lsclient\iobasechar.h
CONST	SEGMENT
__real@bf800000 DD 0bf800000r			; -1
CONST	ENDS
;	COMDAT __real@3fe0000000000000
CONST	SEGMENT
__real@3fe0000000000000 DQ 03fe0000000000000r	; 0.5
CONST	ENDS
;	COMDAT xdata$x
xdata$x	SEGMENT
__unwindtable$?GetSearchTarget@ioTargetTrace16Dummy@@AAE?AVioHashString@@PAVioPlayStage@@_N@Z DD 0ffffffffH
	DD	FLAT:__unwindfunclet$?GetSearchTarget@ioTargetTrace16Dummy@@AAE?AVioHashString@@PAVioPlayStage@@_N@Z$1
	DD	00H
	DD	FLAT:__unwindfunclet$?GetSearchTarget@ioTargetTrace16Dummy@@AAE?AVioHashString@@PAVioPlayStage@@_N@Z$0
__ehfuncinfo$?GetSearchTarget@ioTargetTrace16Dummy@@AAE?AVioHashString@@PAVioPlayStage@@_N@Z DD 019930522H
	DD	02H
	DD	FLAT:__unwindtable$?GetSearchTarget@ioTargetTrace16Dummy@@AAE?AVioHashString@@PAVioPlayStage@@_N@Z
	DD	2 DUP(00H)
	DD	2 DUP(00H)
	DD	00H
	DD	01H
; Function compile flags: /Ogsp
; File d:\lost saga for developer\youtube\tutorial\source\src\lsclient\iotargettrace16dummy.cpp
xdata$x	ENDS
;	COMDAT ?GetSearchTarget@ioTargetTrace16Dummy@@AAE?AVioHashString@@PAVioPlayStage@@_N@Z
_TEXT	SEGMENT
_qtRot$531109 = -168					; size = 16
_vCurPos$ = -152					; size = 12
$T540273 = -140						; size = 4
_fHalfValue$ = -136					; size = 4
_value$540406 = -132					; size = 4
_value$540375 = -128					; size = 4
_fDiffRangeSq$531106 = -124				; size = 4
_pOwner$ = -120						; size = 4
_value$540388 = -116					; size = 4
_vTargetPos$531104 = -112				; size = 12
_szTarget$ = -100					; size = 16
___$ReturnUdt$GSCopy$ = -84				; size = 4
_fSensingRangeSq$ = -80					; size = 4
_fCurGap$ = -76						; size = 4
_pStage$GSCopy$ = -72					; size = 4
$T540276 = -68						; size = 4
tv914 = -64						; size = 4
_value$540281 = -64					; size = 4
_value$540289 = -64					; size = 4
_value$540412 = -57					; size = 1
tv1031 = -56						; size = 4
tv1025 = -56						; size = 4
_value$540299 = -56					; size = 4
_value$540292 = -56					; size = 4
_iter$ = -56						; size = 4
_fSensingHalfAnigle$ = -56				; size = 4
$T531111 = -52						; size = 12
_vDir$531110 = -40					; size = 12
_vDiff2$531113 = -28					; size = 12
__$EHRec$ = -12						; size = 12
___$ReturnUdt$ = 8					; size = 4
_pStage$ = 12						; size = 4
_bSecond$ = 16						; size = 1
?GetSearchTarget@ioTargetTrace16Dummy@@AAE?AVioHashString@@PAVioPlayStage@@_N@Z PROC ; ioTargetTrace16Dummy::GetSearchTarget, COMDAT
; _this$ = ecx

; 217  : {

  00000	68 9c 00 00 00	 push	 156			; 0000009cH
  00005	b8 00 00 00 00	 mov	 eax, __ehhandler$?GetSearchTarget@ioTargetTrace16Dummy@@AAE?AVioHashString@@PAVioPlayStage@@_N@Z
  0000a	e8 00 00 00 00	 call	 __EH_prolog3_GS

; 230  : 		fSensingRangeSq = m_fSensingRange * m_fSensingRange;

  0000f	8b 45 0c	 mov	 eax, DWORD PTR _pStage$[ebp]
  00012	8b 7d 08	 mov	 edi, DWORD PTR ___$ReturnUdt$[ebp]
  00015	83 65 bc 00	 and	 DWORD PTR $T540276[ebp], 0
  00019	8b d9		 mov	 ebx, ecx
  0001b	8d 4d 9c	 lea	 ecx, DWORD PTR _szTarget$[ebp]
  0001e	89 7d ac	 mov	 DWORD PTR ___$ReturnUdt$GSCopy$[ebp], edi
  00021	89 45 b8	 mov	 DWORD PTR _pStage$GSCopy$[ebp], eax
  00024	ff 15 00 00 00
	00		 call	 DWORD PTR __imp_??0ioHashString@@QAE@XZ
  0002a	33 f6		 xor	 esi, esi
  0002c	46		 inc	 esi
  0002d	8b cb		 mov	 ecx, ebx
  0002f	89 75 fc	 mov	 DWORD PTR __$EHRec$[ebp+8], esi
  00032	e8 00 00 00 00	 call	 ?GetOwner@ioDummyChar@@QBEPAVioBaseChar@@XZ ; ioDummyChar::GetOwner
  00037	89 45 88	 mov	 DWORD PTR _pOwner$[ebp], eax
  0003a	85 c0		 test	 eax, eax
  0003c	75 23		 jne	 SHORT $LN26@GetSearchT

; 218  : 	ioHashString szTarget;
; 219  : 
; 220  : 	ioBaseChar *pOwner = GetOwner();
; 221  : 	if( !pOwner )
; 222  : 		return szTarget;

  0003e	8d 45 9c	 lea	 eax, DWORD PTR _szTarget$[ebp]
  00041	50		 push	 eax
  00042	8b cf		 mov	 ecx, edi
  00044	ff 15 00 00 00
	00		 call	 DWORD PTR __imp_??0ioHashString@@QAE@ABV0@@Z
$LN153@GetSearchT:
  0004a	8d 4d 9c	 lea	 ecx, DWORD PTR _szTarget$[ebp]
  0004d	89 75 bc	 mov	 DWORD PTR $T540276[ebp], esi
  00050	c6 45 fc 00	 mov	 BYTE PTR __$EHRec$[ebp+8], 0
  00054	ff 15 00 00 00
	00		 call	 DWORD PTR __imp_??1ioHashString@@QAE@XZ
  0005a	8b c7		 mov	 eax, edi
  0005c	e9 0e 04 00 00	 jmp	 $LN27@GetSearchT
$LN26@GetSearchT:

; 223  : 	if( !pStage )

  00061	83 7d b8 00	 cmp	 DWORD PTR _pStage$GSCopy$[ebp], 0
  00065	75 0e		 jne	 SHORT $LN25@GetSearchT
$LN154@GetSearchT:

; 224  : 		return szTarget;

  00067	8d 45 9c	 lea	 eax, DWORD PTR _szTarget$[ebp]
  0006a	50		 push	 eax
  0006b	8b cf		 mov	 ecx, edi
  0006d	ff 15 00 00 00
	00		 call	 DWORD PTR __imp_??0ioHashString@@QAE@ABV0@@Z
  00073	eb d5		 jmp	 SHORT $LN153@GetSearchT
$LN25@GetSearchT:

; 225  : 
; 226  : 	float fSensingRangeSq = 0.0f;
; 227  : 	if( bSecond )

  00075	80 7d 10 00	 cmp	 BYTE PTR _bSecond$[ebp], 0

; 228  : 		fSensingRangeSq = m_fSensingRange2 * m_fSensingRange2;

  00079	8d 45 c0	 lea	 eax, DWORD PTR _value$540281[ebp]
  0007c	50		 push	 eax
  0007d	74 13		 je	 SHORT $LN24@GetSearchT
  0007f	8d 8b 8c 08 00
	00		 lea	 ecx, DWORD PTR [ebx+2188]
  00085	e8 00 00 00 00	 call	 ?DecryptValueToPool@?$CEncrypt@M@@QAEXPAM@Z ; CEncrypt<float>::DecryptValueToPool
  0008a	8d 8b 8c 08 00
	00		 lea	 ecx, DWORD PTR [ebx+2188]

; 229  : 	else

  00090	eb 11		 jmp	 SHORT $LN149@GetSearchT
$LN24@GetSearchT:

; 230  : 		fSensingRangeSq = m_fSensingRange * m_fSensingRange;

  00092	8d 8b 5c 08 00
	00		 lea	 ecx, DWORD PTR [ebx+2140]
  00098	e8 00 00 00 00	 call	 ?DecryptValueToPool@?$CEncrypt@M@@QAEXPAM@Z ; CEncrypt<float>::DecryptValueToPool
  0009d	8d 8b 5c 08 00
	00		 lea	 ecx, DWORD PTR [ebx+2140]
$LN149@GetSearchT:
  000a3	8d 45 c8	 lea	 eax, DWORD PTR _value$540292[ebp]
  000a6	50		 push	 eax
  000a7	e8 00 00 00 00	 call	 ?DecryptValueToPool@?$CEncrypt@M@@QAEXPAM@Z ; CEncrypt<float>::DecryptValueToPool
  000ac	f3 0f 10 4d c0	 movss	 xmm1, DWORD PTR _value$540289[ebp]
  000b1	f3 0f 10 45 c8	 movss	 xmm0, DWORD PTR _value$540292[ebp]
  000b6	0f 5a c0	 cvtps2pd xmm0, xmm0
  000b9	0f 5a c9	 cvtps2pd xmm1, xmm1
  000bc	f2 0f 59 c1	 mulsd	 xmm0, xmm1
  000c0	66 0f 5a c0	 cvtpd2ps xmm0, xmm0

; 231  : 
; 232  : 	if( fSensingRangeSq == 0.0f )

  000c4	0f 2e 05 00 00
	00 00		 ucomiss xmm0, DWORD PTR __real@00000000
  000cb	9f		 lahf
  000cc	f3 0f 11 45 b0	 movss	 DWORD PTR _fSensingRangeSq$[ebp], xmm0
  000d1	f6 c4 44	 test	 ah, 68			; 00000044H

; 233  : 		return szTarget;

  000d4	7b 91		 jnp	 SHORT $LN154@GetSearchT

; 234  : 
; 235  : 	D3DXVECTOR3 vDiff;
; 236  : 	D3DXVECTOR3 vCurPos = GetWorldPosition();

  000d6	8b 03		 mov	 eax, DWORD PTR [ebx]
  000d8	8b cb		 mov	 ecx, ebx
  000da	ff 50 70	 call	 DWORD PTR [eax+112]
  000dd	8b f0		 mov	 esi, eax
  000df	8d bd 68 ff ff
	ff		 lea	 edi, DWORD PTR _vCurPos$[ebp]
  000e5	a5		 movsd
  000e6	a5		 movsd

; 237  : 
; 238  : 	float fSensingHalfAnigle = m_fSensingAngle / 2.0f;

  000e7	8d 45 c8	 lea	 eax, DWORD PTR _value$540299[ebp]
  000ea	8d 8b bc 08 00
	00		 lea	 ecx, DWORD PTR [ebx+2236]
  000f0	50		 push	 eax
  000f1	a5		 movsd
  000f2	e8 00 00 00 00	 call	 ?DecryptValueToPool@?$CEncrypt@M@@QAEXPAM@Z ; CEncrypt<float>::DecryptValueToPool

; 239  : 	fSensingHalfAnigle = ioMath::ArrangeHead(fSensingHalfAnigle);

  000f7	f3 0f 10 45 c8	 movss	 xmm0, DWORD PTR _value$540299[ebp]
  000fc	0f 5a c0	 cvtps2pd xmm0, xmm0
  000ff	f2 0f 59 05 00
	00 00 00	 mulsd	 xmm0, QWORD PTR __real@3fe0000000000000
  00107	51		 push	 ecx
  00108	66 0f 5a c0	 cvtpd2ps xmm0, xmm0
  0010c	f3 0f 11 04 24	 movss	 DWORD PTR [esp], xmm0
  00111	ff 15 00 00 00
	00		 call	 DWORD PTR __imp_?ArrangeHead@ioMath@@SAMM@Z
  00117	d9 5d c8	 fstp	 DWORD PTR _fSensingHalfAnigle$[ebp]

; 240  : 	float fHalfValue = cosf( DEGtoRAD(fSensingHalfAnigle) );

  0011a	d9 45 c8	 fld	 DWORD PTR _fSensingHalfAnigle$[ebp]
  0011d	59		 pop	 ecx
  0011e	dc 0d 00 00 00
	00		 fmul	 QWORD PTR __real@3f91df46a2526c7a
  00124	d9 5d c8	 fstp	 DWORD PTR tv1031[ebp]
  00127	d9 45 c8	 fld	 DWORD PTR tv1031[ebp]
  0012a	e8 00 00 00 00	 call	 __CIcos
  0012f	d9 5d c8	 fstp	 DWORD PTR tv1025[ebp]
  00132	d9 45 c8	 fld	 DWORD PTR tv1025[ebp]

; 241  : 
; 242  : 	// Char Check
; 243  : 	const BaseCharList &rkCharList = pStage->GetBaseCharList();
; 244  : 	BaseCharList::const_iterator iter;
; 245  : 
; 246  : 	float fCurGap = -1.0f;
; 247  : 	for( iter=rkCharList.begin() ; iter!=rkCharList.end() ; ++iter )

  00135	8b 4d b8	 mov	 ecx, DWORD PTR _pStage$GSCopy$[ebp]
  00138	f3 0f 10 05 00
	00 00 00	 movss	 xmm0, DWORD PTR __real@bf800000
  00140	d9 9d 78 ff ff
	ff		 fstp	 DWORD PTR _fHalfValue$[ebp]
  00146	8b 41 2c	 mov	 eax, DWORD PTR [ecx+44]
  00149	f3 0f 11 45 b4	 movss	 DWORD PTR _fCurGap$[ebp], xmm0
  0014e	e9 ec 02 00 00	 jmp	 $LN150@GetSearchT
$LL58@GetSearchT:

; 248  : 	{
; 249  : 		ioBaseChar *pChar = *iter;

  00153	8b 30		 mov	 esi, DWORD PTR [eax]

; 250  : 
; 251  : 		if( !pChar ) continue;

  00155	85 f6		 test	 esi, esi
  00157	0f 84 d9 02 00
	00		 je	 $LN20@GetSearchT

; 252  : 		if( pChar->GetTeam() == pOwner->GetTeam() ) continue;

  0015d	8d 45 80	 lea	 eax, DWORD PTR _value$540375[ebp]
  00160	8d 8e 90 00 00
	00		 lea	 ecx, DWORD PTR [esi+144]
  00166	50		 push	 eax
  00167	e8 00 00 00 00	 call	 ?DecryptValueToPool@?$CEncrypt@W4TeamType@@@@QAEXPAW4TeamType@@@Z ; CEncrypt<enum TeamType>::DecryptValueToPool
  0016c	8b 4d 88	 mov	 ecx, DWORD PTR _pOwner$[ebp]
  0016f	8d 45 8c	 lea	 eax, DWORD PTR _value$540388[ebp]
  00172	81 c1 90 00 00
	00		 add	 ecx, 144		; 00000090H
  00178	50		 push	 eax
  00179	e8 00 00 00 00	 call	 ?DecryptValueToPool@?$CEncrypt@W4TeamType@@@@QAEXPAW4TeamType@@@Z ; CEncrypt<enum TeamType>::DecryptValueToPool
  0017e	8b 45 80	 mov	 eax, DWORD PTR _value$540375[ebp]
  00181	3b 45 8c	 cmp	 eax, DWORD PTR _value$540388[ebp]
  00184	0f 84 ac 02 00
	00		 je	 $LN20@GetSearchT

; 253  : 		if( pChar->GetCharName() == GetOwnerName() ) continue;

  0018a	8d 83 cc 01 00
	00		 lea	 eax, DWORD PTR [ebx+460]
  00190	8d 8e d4 02 00
	00		 lea	 ecx, DWORD PTR [esi+724]
  00196	50		 push	 eax
  00197	89 4d c0	 mov	 DWORD PTR tv914[ebp], ecx
  0019a	ff 15 00 00 00
	00		 call	 DWORD PTR __imp_??8ioHashString@@QBE_NABV0@@Z
  001a0	84 c0		 test	 al, al
  001a2	0f 85 8e 02 00
	00		 jne	 $LN20@GetSearchT

; 254  : 		if( pChar->GetExperienceMode() == EMS_EXPERIENCE ) continue;

  001a8	8d 85 7c ff ff
	ff		 lea	 eax, DWORD PTR _value$540406[ebp]
  001ae	8d 8e 94 1d 00
	00		 lea	 ecx, DWORD PTR [esi+7572]
  001b4	50		 push	 eax
  001b5	e8 00 00 00 00	 call	 ?DecryptValueToPool@?$CEncrypt@K@@QAEXPAK@Z ; CEncrypt<unsigned long>::DecryptValueToPool
  001ba	83 bd 7c ff ff
	ff 02		 cmp	 DWORD PTR _value$540406[ebp], 2
  001c1	0f 84 6f 02 00
	00		 je	 $LN20@GetSearchT

; 255  : 		if( !IsEnableTargetState( pChar ) )

  001c7	56		 push	 esi
  001c8	8b cb		 mov	 ecx, ebx
  001ca	e8 00 00 00 00	 call	 ?IsEnableTargetState@ioDummyChar@@IAE_NPAVioBaseChar@@@Z ; ioDummyChar::IsEnableTargetState
  001cf	84 c0		 test	 al, al
  001d1	0f 84 5f 02 00
	00		 je	 $LN20@GetSearchT

; 256  : 			continue;
; 257  : 
; 258  : 		if( pChar->IsCanNoWound() )

  001d7	8b ce		 mov	 ecx, esi
  001d9	e8 00 00 00 00	 call	 ?IsCanNoWound@ioBaseChar@@QAE_NXZ ; ioBaseChar::IsCanNoWound
  001de	84 c0		 test	 al, al
  001e0	0f 85 50 02 00
	00		 jne	 $LN20@GetSearchT

; 259  : 			continue;
; 260  : 
; 261  : 		if( m_bCheckWounedState && !IsTargetWoundedState( pChar ) )

  001e6	8d 45 c7	 lea	 eax, DWORD PTR _value$540412[ebp]
  001e9	50		 push	 eax
  001ea	8d 8b e4 12 00
	00		 lea	 ecx, DWORD PTR [ebx+4836]
  001f0	e8 00 00 00 00	 call	 ?DecryptValueToPool@?$CEncrypt@_N@@QAEXPA_N@Z ; CEncrypt<bool>::DecryptValueToPool
  001f5	80 7d c7 00	 cmp	 BYTE PTR _value$540412[ebp], 0
  001f9	74 10		 je	 SHORT $LN12@GetSearchT
  001fb	56		 push	 esi
  001fc	8b cb		 mov	 ecx, ebx
  001fe	e8 00 00 00 00	 call	 ?IsTargetWoundedState@ioDummyChar@@QAE_NPAVioBaseChar@@@Z ; ioDummyChar::IsTargetWoundedState
  00203	84 c0		 test	 al, al
  00205	0f 84 2b 02 00
	00		 je	 $LN20@GetSearchT
$LN12@GetSearchT:

; 262  : 			continue;
; 263  : 
; 264  : 		bool bPass = false;
; 265  : 
; 266  : 		auto SkipBuffIter = m_vSkipBuffList.begin();

  0020b	8b bb d4 12 00
	00		 mov	 edi, DWORD PTR [ebx+4820]
  00211	eb 11		 jmp	 SHORT $LN151@GetSearchT

; 267  : 		for ( ; SkipBuffIter != m_vSkipBuffList.end(); ++SkipBuffIter )

$LL102@GetSearchT:

; 268  : 		{
; 269  : 			ioHashString& szBuffName = *SkipBuffIter;
; 270  : 			if ( pChar->HasBuff( szBuffName ) )

  00213	57		 push	 edi
  00214	e8 00 00 00 00	 call	 ?HasBuff@ioBaseChar@@QBE_NABVioHashString@@@Z ; ioBaseChar::HasBuff
  00219	84 c0		 test	 al, al
  0021b	0f 85 15 02 00
	00		 jne	 $LN20@GetSearchT

; 267  : 		for ( ; SkipBuffIter != m_vSkipBuffList.end(); ++SkipBuffIter )

  00221	83 c7 10	 add	 edi, 16			; 00000010H
$LN151@GetSearchT:

; 271  : 			{				
; 272  : 				bPass = true;
; 273  : 				break;
; 274  : 			}
; 275  : 		}
; 276  : 
; 277  : 		if( bPass )
; 278  : 			continue;
; 279  : 
; 280  : 		D3DXVECTOR3 vTargetPos = pChar->GetWorldPosition();

  00224	8b ce		 mov	 ecx, esi
  00226	3b bb d8 12 00
	00		 cmp	 edi, DWORD PTR [ebx+4824]
  0022c	75 e5		 jne	 SHORT $LL102@GetSearchT
  0022e	8b 06		 mov	 eax, DWORD PTR [esi]
  00230	ff 50 70	 call	 DWORD PTR [eax+112]

; 281  : 		vDiff = vCurPos - vTargetPos;

  00233	f3 0f 10 85 68
	ff ff ff	 movss	 xmm0, DWORD PTR _vCurPos$[ebp]
  0023b	8b f0		 mov	 esi, eax
  0023d	8d 7d 90	 lea	 edi, DWORD PTR _vTargetPos$531104[ebp]
  00240	a5		 movsd
  00241	a5		 movsd
  00242	0f 5a c0	 cvtps2pd xmm0, xmm0
  00245	a5		 movsd
  00246	f3 0f 10 4d 90	 movss	 xmm1, DWORD PTR _vTargetPos$531104[ebp]
  0024b	f3 0f 10 55 94	 movss	 xmm2, DWORD PTR _vTargetPos$531104[ebp+4]
  00250	f3 0f 10 5d 98	 movss	 xmm3, DWORD PTR _vTargetPos$531104[ebp+8]
  00255	0f 5a c9	 cvtps2pd xmm1, xmm1
  00258	f2 0f 5c c1	 subsd	 xmm0, xmm1
  0025c	0f 57 c9	 xorps	 xmm1, xmm1
  0025f	f2 0f 5a c8	 cvtsd2ss xmm1, xmm0
  00263	f3 0f 10 85 6c
	ff ff ff	 movss	 xmm0, DWORD PTR _vCurPos$[ebp+4]
  0026b	0f 5a d2	 cvtps2pd xmm2, xmm2
  0026e	0f 5a c0	 cvtps2pd xmm0, xmm0
  00271	f2 0f 5c c2	 subsd	 xmm0, xmm2
  00275	f3 0f 10 95 70
	ff ff ff	 movss	 xmm2, DWORD PTR _vCurPos$[ebp+8]
  0027d	f2 0f 5a c0	 cvtsd2ss xmm0, xmm0

; 282  : 		float fDiffRangeSq = D3DXVec3LengthSq( &vDiff );

  00281	f3 0f 5a c0	 cvtss2sd xmm0, xmm0
  00285	0f 5a d2	 cvtps2pd xmm2, xmm2
  00288	f2 0f 59 c0	 mulsd	 xmm0, xmm0
  0028c	0f 5a db	 cvtps2pd xmm3, xmm3
  0028f	f2 0f 5c d3	 subsd	 xmm2, xmm3
  00293	0f 5a c9	 cvtps2pd xmm1, xmm1
  00296	f2 0f 5a d2	 cvtsd2ss xmm2, xmm2
  0029a	f2 0f 59 c9	 mulsd	 xmm1, xmm1
  0029e	f2 0f 58 c8	 addsd	 xmm1, xmm0
  002a2	f3 0f 5a d2	 cvtss2sd xmm2, xmm2
  002a6	f2 0f 59 d2	 mulsd	 xmm2, xmm2
  002aa	f2 0f 58 ca	 addsd	 xmm1, xmm2
  002ae	66 0f 5a c1	 cvtpd2ps xmm0, xmm1

; 283  : 
; 284  : 		//  
; 285  : 		if( m_fSensingAngle != 0.0f )

  002b2	8d 85 74 ff ff
	ff		 lea	 eax, DWORD PTR $T540273[ebp]
  002b8	f3 0f 11 45 84	 movss	 DWORD PTR _fDiffRangeSq$531106[ebp], xmm0
  002bd	0f 57 c0	 xorps	 xmm0, xmm0
  002c0	50		 push	 eax
  002c1	8d 8b bc 08 00
	00		 lea	 ecx, DWORD PTR [ebx+2236]
  002c7	f3 0f 11 85 74
	ff ff ff	 movss	 DWORD PTR $T540273[ebp], xmm0
  002cf	e8 00 00 00 00	 call	 ??9?$CEncrypt@M@@QAE_NABM@Z ; CEncrypt<float>::operator!=
  002d4	84 c0		 test	 al, al
  002d6	0f 84 09 01 00
	00		 je	 $LN5@GetSearchT

; 286  : 		{
; 287  : 			D3DXQUATERNION qtRot = GetWorldOrientation();

  002dc	8b 03		 mov	 eax, DWORD PTR [ebx]
  002de	8b cb		 mov	 ecx, ebx
  002e0	ff 50 74	 call	 DWORD PTR [eax+116]

; 288  : 			D3DXVECTOR3 vDir = qtRot * D3DXVECTOR3( 0.0f, 0.0f, -1.0f );

  002e3	0f 57 c0	 xorps	 xmm0, xmm0
  002e6	8b f0		 mov	 esi, eax
  002e8	8d bd 58 ff ff
	ff		 lea	 edi, DWORD PTR _qtRot$531109[ebp]
  002ee	a5		 movsd
  002ef	a5		 movsd
  002f0	8d 45 cc	 lea	 eax, DWORD PTR $T531111[ebp]
  002f3	50		 push	 eax
  002f4	8d 85 58 ff ff
	ff		 lea	 eax, DWORD PTR _qtRot$531109[ebp]
  002fa	a5		 movsd
  002fb	50		 push	 eax
  002fc	8d 45 d8	 lea	 eax, DWORD PTR _vDir$531110[ebp]
  002ff	f3 0f 11 45 cc	 movss	 DWORD PTR $T531111[ebp], xmm0
  00304	f3 0f 11 45 d0	 movss	 DWORD PTR $T531111[ebp+4], xmm0
  00309	f3 0f 10 05 00
	00 00 00	 movss	 xmm0, DWORD PTR __real@bf800000
  00311	50		 push	 eax
  00312	a5		 movsd
  00313	f3 0f 11 45 d4	 movss	 DWORD PTR $T531111[ebp+8], xmm0
  00318	ff 15 00 00 00
	00		 call	 DWORD PTR __imp_??D@YA?AUD3DXVECTOR3@@ABUD3DXQUATERNION@@ABU0@@Z

; 289  : 
; 290  : 			D3DXVECTOR3 vDiff2 = vTargetPos - GetWorldPosition();

  0031e	8b 03		 mov	 eax, DWORD PTR [ebx]
  00320	83 c4 0c	 add	 esp, 12			; 0000000cH
  00323	8b cb		 mov	 ecx, ebx
  00325	ff 50 70	 call	 DWORD PTR [eax+112]
  00328	f3 0f 10 08	 movss	 xmm1, DWORD PTR [eax]
  0032c	f3 0f 10 50 04	 movss	 xmm2, DWORD PTR [eax+4]
  00331	f3 0f 10 45 90	 movss	 xmm0, DWORD PTR _vTargetPos$531104[ebp]
  00336	f3 0f 10 58 08	 movss	 xmm3, DWORD PTR [eax+8]
  0033b	0f 5a c9	 cvtps2pd xmm1, xmm1
  0033e	0f 5a c0	 cvtps2pd xmm0, xmm0
  00341	f2 0f 5c c1	 subsd	 xmm0, xmm1
  00345	f3 0f 10 4d 94	 movss	 xmm1, DWORD PTR _vTargetPos$531104[ebp+4]
  0034a	0f 5a d2	 cvtps2pd xmm2, xmm2
  0034d	0f 5a c9	 cvtps2pd xmm1, xmm1
  00350	f2 0f 5c ca	 subsd	 xmm1, xmm2
  00354	f3 0f 10 55 98	 movss	 xmm2, DWORD PTR _vTargetPos$531104[ebp+8]

; 291  : 			D3DXVec3Normalize( &vDiff2, &vDiff2 );

  00359	8d 45 e4	 lea	 eax, DWORD PTR _vDiff2$531113[ebp]
  0035c	0f 5a d2	 cvtps2pd xmm2, xmm2
  0035f	0f 5a db	 cvtps2pd xmm3, xmm3
  00362	50		 push	 eax
  00363	f2 0f 5c d3	 subsd	 xmm2, xmm3
  00367	f2 0f 5a c0	 cvtsd2ss xmm0, xmm0
  0036b	f2 0f 5a c9	 cvtsd2ss xmm1, xmm1
  0036f	f2 0f 5a d2	 cvtsd2ss xmm2, xmm2
  00373	50		 push	 eax
  00374	f3 0f 11 45 e4	 movss	 DWORD PTR _vDiff2$531113[ebp], xmm0
  00379	f3 0f 11 4d e8	 movss	 DWORD PTR _vDiff2$531113[ebp+4], xmm1
  0037e	f3 0f 11 55 ec	 movss	 DWORD PTR _vDiff2$531113[ebp+8], xmm2
  00383	e8 00 00 00 00	 call	 _D3DXVec3Normalize@8

; 292  : 
; 293  : 			float fCurValue = D3DXVec3Dot( &vDir, &vDiff2 );

  00388	f3 0f 10 4d e8	 movss	 xmm1, DWORD PTR _vDiff2$531113[ebp+4]
  0038d	f3 0f 10 45 dc	 movss	 xmm0, DWORD PTR _vDir$531110[ebp+4]
  00392	f3 0f 10 55 d8	 movss	 xmm2, DWORD PTR _vDir$531110[ebp]
  00397	0f 5a c9	 cvtps2pd xmm1, xmm1
  0039a	0f 5a c0	 cvtps2pd xmm0, xmm0
  0039d	f2 0f 59 c1	 mulsd	 xmm0, xmm1
  003a1	f3 0f 10 4d e4	 movss	 xmm1, DWORD PTR _vDiff2$531113[ebp]
  003a6	0f 5a c9	 cvtps2pd xmm1, xmm1
  003a9	0f 5a d2	 cvtps2pd xmm2, xmm2
  003ac	f2 0f 59 ca	 mulsd	 xmm1, xmm2
  003b0	f3 0f 10 55 ec	 movss	 xmm2, DWORD PTR _vDiff2$531113[ebp+8]
  003b5	f2 0f 58 c1	 addsd	 xmm0, xmm1
  003b9	f3 0f 10 4d e0	 movss	 xmm1, DWORD PTR _vDir$531110[ebp+8]
  003be	0f 5a c9	 cvtps2pd xmm1, xmm1
  003c1	0f 5a d2	 cvtps2pd xmm2, xmm2
  003c4	f2 0f 59 ca	 mulsd	 xmm1, xmm2
  003c8	f2 0f 58 c1	 addsd	 xmm0, xmm1

; 294  : 			if( fCurValue < fHalfValue )

  003cc	f3 0f 10 8d 78
	ff ff ff	 movss	 xmm1, DWORD PTR _fHalfValue$[ebp]
  003d4	66 0f 5a c0	 cvtpd2ps xmm0, xmm0
  003d8	f3 0f 5a c0	 cvtss2sd xmm0, xmm0
  003dc	0f 5a c9	 cvtps2pd xmm1, xmm1
  003df	66 0f 2f c8	 comisd	 xmm1, xmm0
  003e3	77 51		 ja	 SHORT $LN20@GetSearchT
$LN5@GetSearchT:

; 295  : 				continue;
; 296  : 		}
; 297  : 
; 298  : 		//  
; 299  : 		if( fDiffRangeSq < fSensingRangeSq )

  003e5	f3 0f 10 4d 84	 movss	 xmm1, DWORD PTR _fDiffRangeSq$531106[ebp]
  003ea	f3 0f 10 55 b0	 movss	 xmm2, DWORD PTR _fSensingRangeSq$[ebp]
  003ef	0f 57 c0	 xorps	 xmm0, xmm0
  003f2	0f 5a c1	 cvtps2pd xmm0, xmm1
  003f5	0f 5a d2	 cvtps2pd xmm2, xmm2
  003f8	66 0f 2f d0	 comisd	 xmm2, xmm0
  003fc	76 38		 jbe	 SHORT $LN20@GetSearchT

; 300  : 		{
; 301  : 			if( fCurGap == -1.0f )

  003fe	f3 0f 10 45 b4	 movss	 xmm0, DWORD PTR _fCurGap$[ebp]
  00403	0f 2e 05 00 00
	00 00		 ucomiss xmm0, DWORD PTR __real@bf800000
  0040a	9f		 lahf
  0040b	f6 c4 44	 test	 ah, 68			; 00000044H

; 302  : 			{
; 303  : 				fCurGap = fDiffRangeSq;
; 304  : 				szTarget = pChar->GetCharName();

  0040e	7b 15		 jnp	 SHORT $LN152@GetSearchT

; 305  : 			}
; 306  : 			else if( fCurGap >= 0.0f && fDiffRangeSq < fCurGap )

  00410	0f 2f 05 00 00
	00 00		 comiss	 xmm0, DWORD PTR __real@00000000
  00417	72 1d		 jb	 SHORT $LN20@GetSearchT
  00419	0f 5a d1	 cvtps2pd xmm2, xmm1
  0041c	0f 5a c0	 cvtps2pd xmm0, xmm0
  0041f	66 0f 2f c2	 comisd	 xmm0, xmm2
  00423	76 11		 jbe	 SHORT $LN20@GetSearchT
$LN152@GetSearchT:

; 307  : 			{
; 308  : 				fCurGap = fDiffRangeSq;
; 309  : 				szTarget = pChar->GetCharName();

  00425	ff 75 c0	 push	 DWORD PTR tv914[ebp]
  00428	8d 4d 9c	 lea	 ecx, DWORD PTR _szTarget$[ebp]
  0042b	f3 0f 11 4d b4	 movss	 DWORD PTR _fCurGap$[ebp], xmm1
  00430	ff 15 00 00 00
	00		 call	 DWORD PTR __imp_??4ioHashString@@QAEAAV0@ABV0@@Z
$LN20@GetSearchT:

; 241  : 
; 242  : 	// Char Check
; 243  : 	const BaseCharList &rkCharList = pStage->GetBaseCharList();
; 244  : 	BaseCharList::const_iterator iter;
; 245  : 
; 246  : 	float fCurGap = -1.0f;
; 247  : 	for( iter=rkCharList.begin() ; iter!=rkCharList.end() ; ++iter )

  00436	8b 45 c8	 mov	 eax, DWORD PTR _iter$[ebp]
  00439	8b 4d b8	 mov	 ecx, DWORD PTR _pStage$GSCopy$[ebp]
  0043c	83 c0 04	 add	 eax, 4
$LN150@GetSearchT:
  0043f	89 45 c8	 mov	 DWORD PTR _iter$[ebp], eax
  00442	3b 41 30	 cmp	 eax, DWORD PTR [ecx+48]
  00445	0f 85 08 fd ff
	ff		 jne	 $LL58@GetSearchT

; 310  : 			}
; 311  : 		}
; 312  : 	}
; 313  : 
; 314  : 	return szTarget;

  0044b	8b 4d ac	 mov	 ecx, DWORD PTR ___$ReturnUdt$GSCopy$[ebp]
  0044e	8d 45 9c	 lea	 eax, DWORD PTR _szTarget$[ebp]
  00451	50		 push	 eax
  00452	ff 15 00 00 00
	00		 call	 DWORD PTR __imp_??0ioHashString@@QAE@ABV0@@Z
  00458	8d 4d 9c	 lea	 ecx, DWORD PTR _szTarget$[ebp]
  0045b	c7 45 bc 01 00
	00 00		 mov	 DWORD PTR $T540276[ebp], 1
  00462	c6 45 fc 00	 mov	 BYTE PTR __$EHRec$[ebp+8], 0
  00466	ff 15 00 00 00
	00		 call	 DWORD PTR __imp_??1ioHashString@@QAE@XZ
  0046c	8b 45 ac	 mov	 eax, DWORD PTR ___$ReturnUdt$GSCopy$[ebp]
$LN27@GetSearchT:

; 315  : }

  0046f	e8 00 00 00 00	 call	 __EH_epilog3_GS
  00474	c2 0c 00	 ret	 12			; 0000000cH
_TEXT	ENDS
;	COMDAT text$x
text$x	SEGMENT
__unwindfunclet$?GetSearchTarget@ioTargetTrace16Dummy@@AAE?AVioHashString@@PAVioPlayStage@@_N@Z$0:
  00000	8d 4d 9c	 lea	 ecx, DWORD PTR _szTarget$[ebp]
  00003	ff 25 00 00 00
	00		 jmp	 DWORD PTR __imp_??1ioHashString@@QAE@XZ
__unwindfunclet$?GetSearchTarget@ioTargetTrace16Dummy@@AAE?AVioHashString@@PAVioPlayStage@@_N@Z$1:
  00009	8b 45 bc	 mov	 eax, DWORD PTR $T540276[ebp]
  0000c	83 e0 01	 and	 eax, 1
  0000f	0f 84 0d 00 00
	00		 je	 $LN31@GetSearchT
  00015	83 65 bc fe	 and	 DWORD PTR $T540276[ebp], -2 ; fffffffeH
  00019	8b 4d ac	 mov	 ecx, DWORD PTR ___$ReturnUdt$GSCopy$[ebp]
  0001c	ff 25 00 00 00
	00		 jmp	 DWORD PTR __imp_??1ioHashString@@QAE@XZ
$LN31@GetSearchT:
  00022	c3		 ret	 0
__ehhandler$?GetSearchTarget@ioTargetTrace16Dummy@@AAE?AVioHashString@@PAVioPlayStage@@_N@Z:
  00023	8b 54 24 08	 mov	 edx, DWORD PTR [esp+8]
  00027	8d 42 0c	 lea	 eax, DWORD PTR [edx+12]
  0002a	8b 8a 54 ff ff
	ff		 mov	 ecx, DWORD PTR [edx-172]
  00030	33 c8		 xor	 ecx, eax
  00032	e8 00 00 00 00	 call	 @__security_check_cookie@4
  00037	8b 4a fc	 mov	 ecx, DWORD PTR [edx-4]
  0003a	33 c8		 xor	 ecx, eax
  0003c	e8 00 00 00 00	 call	 @__security_check_cookie@4
  00041	b8 00 00 00 00	 mov	 eax, OFFSET __ehfuncinfo$?GetSearchTarget@ioTargetTrace16Dummy@@AAE?AVioHashString@@PAVioPlayStage@@_N@Z
  00046	e9 00 00 00 00	 jmp	 ___CxxFrameHandler3
text$x	ENDS
?GetSearchTarget@ioTargetTrace16Dummy@@AAE?AVioHashString@@PAVioPlayStage@@_N@Z ENDP ; ioTargetTrace16Dummy::GetSearchTarget
PUBLIC	?CheckEntityCollision@ioTargetTrace16Dummy@@MAEXPAVioPlayEntity@@@Z ; ioTargetTrace16Dummy::CheckEntityCollision
; Function compile flags: /Ogsp
;	COMDAT ?CheckEntityCollision@ioTargetTrace16Dummy@@MAEXPAVioPlayEntity@@@Z
_TEXT	SEGMENT
_value$540584 = -4					; size = 4
_value$540570 = 8					; size = 4
_pEntity$ = 8						; size = 4
?CheckEntityCollision@ioTargetTrace16Dummy@@MAEXPAVioPlayEntity@@@Z PROC ; ioTargetTrace16Dummy::CheckEntityCollision, COMDAT
; _this$ = ecx

; 583  : {

  00000	55		 push	 ebp
  00001	8b ec		 mov	 ebp, esp
  00003	51		 push	 ecx
  00004	56		 push	 esi
  00005	8b f1		 mov	 esi, ecx

; 584  : 	ioBaseChar *pOwner = GetOwner();

  00007	e8 00 00 00 00	 call	 ?GetOwner@ioDummyChar@@QBEPAVioBaseChar@@XZ ; ioDummyChar::GetOwner

; 585  : 	if ( !pOwner || !pOwner->IsNeedProcess() )

  0000c	85 c0		 test	 eax, eax
  0000e	74 51		 je	 SHORT $LN3@CheckEntit
  00010	8b 10		 mov	 edx, DWORD PTR [eax]
  00012	8b c8		 mov	 ecx, eax
  00014	ff 92 00 01 00
	00		 call	 DWORD PTR [edx+256]
  0001a	84 c0		 test	 al, al
  0001c	74 43		 je	 SHORT $LN3@CheckEntit

; 586  : 		return;
; 587  : 
; 588  : 	if ( m_TraceDummyState != TDS_ATTACK )

  0001e	83 be 80 14 00
	00 05		 cmp	 DWORD PTR [esi+5248], 5
  00025	75 3a		 jne	 SHORT $LN3@CheckEntit

; 589  : 		return;
; 590  : 
; 591  : 	ioBaseChar *pTarget = ToBaseChar(pEntity);

  00027	ff 75 08	 push	 DWORD PTR _pEntity$[ebp]
  0002a	e8 00 00 00 00	 call	 ?ToBaseChar@@YAPAVioBaseChar@@PAVioGameEntity@@@Z ; ToBaseChar
  0002f	59		 pop	 ecx

; 592  : 	if( pTarget && pTarget->GetTeam() != GetTeam() )

  00030	85 c0		 test	 eax, eax
  00032	74 2d		 je	 SHORT $LN3@CheckEntit
  00034	8d 4d 08	 lea	 ecx, DWORD PTR _value$540570[ebp]
  00037	51		 push	 ecx
  00038	8d 88 90 00 00
	00		 lea	 ecx, DWORD PTR [eax+144]
  0003e	e8 00 00 00 00	 call	 ?DecryptValueToPool@?$CEncrypt@W4TeamType@@@@QAEXPAW4TeamType@@@Z ; CEncrypt<enum TeamType>::DecryptValueToPool
  00043	8d 45 fc	 lea	 eax, DWORD PTR _value$540584[ebp]
  00046	50		 push	 eax
  00047	8d 8e 90 00 00
	00		 lea	 ecx, DWORD PTR [esi+144]
  0004d	e8 00 00 00 00	 call	 ?DecryptValueToPool@?$CEncrypt@W4TeamType@@@@QAEXPAW4TeamType@@@Z ; CEncrypt<enum TeamType>::DecryptValueToPool
  00052	8b 45 08	 mov	 eax, DWORD PTR _value$540570[ebp]
  00055	3b 45 fc	 cmp	 eax, DWORD PTR _value$540584[ebp]
  00058	74 07		 je	 SHORT $LN3@CheckEntit

; 593  : 	{
; 594  : 		SetJumpState( );

  0005a	8b ce		 mov	 ecx, esi
  0005c	e8 00 00 00 00	 call	 ?SetJumpState@ioTargetTrace16Dummy@@AAEXXZ ; ioTargetTrace16Dummy::SetJumpState
$LN3@CheckEntit:
  00061	5e		 pop	 esi

; 595  : 		return;
; 596  : 	}
; 597  : }

  00062	c9		 leave
  00063	c2 04 00	 ret	 4
?CheckEntityCollision@ioTargetTrace16Dummy@@MAEXPAVioPlayEntity@@@Z ENDP ; ioTargetTrace16Dummy::CheckEntityCollision
_TEXT	ENDS
PUBLIC	__$ArrayPad$
PUBLIC	?ProcessPos@ioTargetTrace16Dummy@@EAEXM@Z	; ioTargetTrace16Dummy::ProcessPos
EXTRN	?ProcessForceMove@ioDummyChar@@IAEXM@Z:PROC	; ioDummyChar::ProcessForceMove
; Function compile flags: /Ogsp
;	COMDAT ?ProcessPos@ioTargetTrace16Dummy@@EAEXM@Z
_TEXT	SEGMENT
_pOwner$532444 = -52					; size = 4
$T540605 = -48						; size = 4
_dwCurTime$ = -44					; size = 4
$T532453 = -40						; size = 12
_vNewPos$532446 = -40					; size = 12
_vMove$532451 = -28					; size = 12
_vDir$532447 = -16					; size = 12
__$ArrayPad$ = -4					; size = 4
_fTimePerSec$ = 8					; size = 4
?ProcessPos@ioTargetTrace16Dummy@@EAEXM@Z PROC		; ioTargetTrace16Dummy::ProcessPos, COMDAT
; _this$ = ecx

; 806  : {

  00000	55		 push	 ebp
  00001	8b ec		 mov	 ebp, esp
  00003	83 ec 34	 sub	 esp, 52			; 00000034H
  00006	a1 00 00 00 00	 mov	 eax, DWORD PTR ___security_cookie
  0000b	33 c5		 xor	 eax, ebp
  0000d	89 45 fc	 mov	 DWORD PTR __$ArrayPad$[ebp], eax
  00010	53		 push	 ebx
  00011	56		 push	 esi
  00012	8b d9		 mov	 ebx, ecx

; 807  : 	DWORD dwCurTime = FRAMEGETTIME();

  00014	ff 15 00 00 00
	00		 call	 DWORD PTR __imp_?GetSingleton@ioFrameTimer@@SAAAV1@XZ
  0001a	8b c8		 mov	 ecx, eax
  0001c	ff 15 00 00 00
	00		 call	 DWORD PTR __imp_?GetLoopSec@ioFrameTimer@@QBEKXZ

; 808  : 
; 809  : 	if( m_TraceDummyState == TDS_START )

  00022	83 bb 80 14 00
	00 00		 cmp	 DWORD PTR [ebx+5248], 0
  00029	8b f0		 mov	 esi, eax
  0002b	89 75 d4	 mov	 DWORD PTR _dwCurTime$[ebp], esi
  0002e	75 0b		 jne	 SHORT $LN7@ProcessPos

; 810  : 	{
; 811  : 		m_dwProcessTime = dwCurTime;

  00030	89 b3 1c 02 00
	00		 mov	 DWORD PTR [ebx+540], esi

; 812  : 		return;

  00036	e9 b0 01 00 00	 jmp	 $LN8@ProcessPos
$LN7@ProcessPos:

; 813  : 	}
; 814  : 
; 815  : 	ProcessForceMove( fTimePerSec );

  0003b	f3 0f 10 45 08	 movss	 xmm0, DWORD PTR _fTimePerSec$[ebp]
  00040	57		 push	 edi
  00041	51		 push	 ecx
  00042	8b cb		 mov	 ecx, ebx
  00044	f3 0f 11 04 24	 movss	 DWORD PTR [esp], xmm0
  00049	e8 00 00 00 00	 call	 ?ProcessForceMove@ioDummyChar@@IAEXM@Z ; ioDummyChar::ProcessForceMove

; 816  : 
; 817  : 	switch( m_TraceDummyState )

  0004e	83 bb 80 14 00
	00 08		 cmp	 DWORD PTR [ebx+5248], 8
  00055	74 17		 je	 SHORT $LN4@ProcessPos

; 840  : 		}
; 841  : 		break;
; 842  : 	default:
; 843  : 		ProcessGravityMove( fTimePerSec );

  00057	f3 0f 10 45 08	 movss	 xmm0, DWORD PTR _fTimePerSec$[ebp]
  0005c	51		 push	 ecx
  0005d	8b cb		 mov	 ecx, ebx
  0005f	f3 0f 11 04 24	 movss	 DWORD PTR [esp], xmm0
  00064	e8 00 00 00 00	 call	 ?ProcessGravityMove@ioTargetTrace16Dummy@@AAEXM@Z ; ioTargetTrace16Dummy::ProcessGravityMove

; 844  : 		break;

  00069	e9 76 01 00 00	 jmp	 $LN5@ProcessPos
$LN4@ProcessPos:

; 818  : 	{
; 819  : 	case TDS_RETURN:
; 820  : 		{
; 821  : 			ioBaseChar *pOwner = GetOwner();

  0006e	8b cb		 mov	 ecx, ebx
  00070	e8 00 00 00 00	 call	 ?GetOwner@ioDummyChar@@QBEPAVioBaseChar@@XZ ; ioDummyChar::GetOwner
  00075	89 45 cc	 mov	 DWORD PTR _pOwner$532444[ebp], eax

; 822  : 			if ( !pOwner )

  00078	85 c0		 test	 eax, eax
  0007a	0f 84 6a 01 00
	00		 je	 $LN24@ProcessPos

; 823  : 				return;
; 824  : 
; 825  : 			D3DXVECTOR3 vNewPos = pOwner->GetWorldPosition();

  00080	8b 10		 mov	 edx, DWORD PTR [eax]
  00082	8b c8		 mov	 ecx, eax
  00084	ff 52 70	 call	 DWORD PTR [edx+112]
  00087	8b f0		 mov	 esi, eax

; 826  : 			D3DXVECTOR3 vDir = vNewPos - GetWorldPosition();

  00089	8b 03		 mov	 eax, DWORD PTR [ebx]
  0008b	8d 7d d8	 lea	 edi, DWORD PTR _vNewPos$532446[ebp]
  0008e	a5		 movsd
  0008f	a5		 movsd
  00090	8b cb		 mov	 ecx, ebx
  00092	a5		 movsd
  00093	ff 50 70	 call	 DWORD PTR [eax+112]
  00096	f3 0f 10 48 04	 movss	 xmm1, DWORD PTR [eax+4]
  0009b	f3 0f 10 50 08	 movss	 xmm2, DWORD PTR [eax+8]
  000a0	f3 0f 10 45 dc	 movss	 xmm0, DWORD PTR _vNewPos$532446[ebp+4]
  000a5	f3 0f 10 18	 movss	 xmm3, DWORD PTR [eax]
  000a9	0f 5a c0	 cvtps2pd xmm0, xmm0
  000ac	0f 5a c9	 cvtps2pd xmm1, xmm1
  000af	f2 0f 5c c1	 subsd	 xmm0, xmm1
  000b3	f3 0f 10 4d e0	 movss	 xmm1, DWORD PTR _vNewPos$532446[ebp+8]
  000b8	0f 5a d2	 cvtps2pd xmm2, xmm2
  000bb	0f 5a c9	 cvtps2pd xmm1, xmm1
  000be	f2 0f 5c ca	 subsd	 xmm1, xmm2
  000c2	f3 0f 10 55 d8	 movss	 xmm2, DWORD PTR _vNewPos$532446[ebp]
  000c7	66 0f 5a c0	 cvtpd2ps xmm0, xmm0
  000cb	0f 5a d2	 cvtps2pd xmm2, xmm2
  000ce	f3 0f 11 45 f4	 movss	 DWORD PTR _vDir$532447[ebp+4], xmm0
  000d3	0f 5a db	 cvtps2pd xmm3, xmm3
  000d6	f2 0f 5c d3	 subsd	 xmm2, xmm3
  000da	66 0f 5a d2	 cvtpd2ps xmm2, xmm2
  000de	66 0f 5a c9	 cvtpd2ps xmm1, xmm1

; 827  : 			float fGap = D3DXVec3Length( &vDir );

  000e2	f3 0f 5a c0	 cvtss2sd xmm0, xmm0
  000e6	f3 0f 11 55 f0	 movss	 DWORD PTR _vDir$532447[ebp], xmm2
  000eb	f3 0f 11 4d f8	 movss	 DWORD PTR _vDir$532447[ebp+8], xmm1
  000f0	f2 0f 59 c0	 mulsd	 xmm0, xmm0

; 828  : 			D3DXVec3Normalize( &vDir, &vDir );

  000f4	8d 45 f0	 lea	 eax, DWORD PTR _vDir$532447[ebp]
  000f7	f3 0f 5a d2	 cvtss2sd xmm2, xmm2
  000fb	f3 0f 5a c9	 cvtss2sd xmm1, xmm1
  000ff	f2 0f 59 d2	 mulsd	 xmm2, xmm2
  00103	f2 0f 58 c2	 addsd	 xmm0, xmm2
  00107	f2 0f 59 c9	 mulsd	 xmm1, xmm1
  0010b	50		 push	 eax
  0010c	f2 0f 58 c1	 addsd	 xmm0, xmm1
  00110	66 0f 5a c0	 cvtpd2ps xmm0, xmm0
  00114	50		 push	 eax
  00115	f3 0f 11 45 d0	 movss	 DWORD PTR $T540605[ebp], xmm0
  0011a	e8 00 00 00 00	 call	 _D3DXVec3Normalize@8

; 829  : 
; 830  : 			if( fGap <= m_fReturnOwnerGap && pOwner->IsNeedProcess() )

  0011f	f3 0f 10 45 d0	 movss	 xmm0, DWORD PTR $T540605[ebp]
  00124	f3 0f 10 8b d8
	14 00 00	 movss	 xmm1, DWORD PTR [ebx+5336]
  0012c	0f 5a c0	 cvtps2pd xmm0, xmm0
  0012f	f2 0f 51 c0	 sqrtsd	 xmm0, xmm0
  00133	f2 0f 5a c0	 cvtsd2ss xmm0, xmm0
  00137	f3 0f 5a c0	 cvtss2sd xmm0, xmm0
  0013b	0f 5a c9	 cvtps2pd xmm1, xmm1
  0013e	66 0f 2f c8	 comisd	 xmm1, xmm0
  00142	72 1d		 jb	 SHORT $LN2@ProcessPos
  00144	8b 4d cc	 mov	 ecx, DWORD PTR _pOwner$532444[ebp]
  00147	8b 01		 mov	 eax, DWORD PTR [ecx]
  00149	ff 90 00 01 00
	00		 call	 DWORD PTR [eax+256]
  0014f	84 c0		 test	 al, al
  00151	74 0e		 je	 SHORT $LN2@ProcessPos

; 831  : 			{
; 832  : 				SendDieState( true );

  00153	6a 01		 push	 1
  00155	8b cb		 mov	 ecx, ebx
  00157	e8 00 00 00 00	 call	 ?SendDieState@ioDummyChar@@QAEX_N@Z ; ioDummyChar::SendDieState

; 833  : 				return;

  0015c	e9 89 00 00 00	 jmp	 $LN24@ProcessPos
$LN2@ProcessPos:

; 834  : 			}
; 835  : 
; 836  : 			D3DXVECTOR3 vMove;
; 837  : 			float fMoveSpeed = m_fReturnMoveSpeed * fTimePerSec;

  00161	f3 0f 10 83 cc
	14 00 00	 movss	 xmm0, DWORD PTR [ebx+5324]
  00169	f3 0f 10 4d 08	 movss	 xmm1, DWORD PTR _fTimePerSec$[ebp]
  0016e	0f 5a c9	 cvtps2pd xmm1, xmm1

; 838  : 			vMove = fMoveSpeed * vDir;
; 839  : 			Translate( vMove );

  00171	8b 03		 mov	 eax, DWORD PTR [ebx]
  00173	0f 5a c0	 cvtps2pd xmm0, xmm0
  00176	f2 0f 59 c1	 mulsd	 xmm0, xmm1
  0017a	f3 0f 10 4d f0	 movss	 xmm1, DWORD PTR _vDir$532447[ebp]
  0017f	0f 5a c9	 cvtps2pd xmm1, xmm1
  00182	66 0f 5a c0	 cvtpd2ps xmm0, xmm0
  00186	0f 57 d2	 xorps	 xmm2, xmm2
  00189	f3 0f 5a d0	 cvtss2sd xmm2, xmm0
  0018d	f2 0f 59 ca	 mulsd	 xmm1, xmm2
  00191	66 0f 5a c9	 cvtpd2ps xmm1, xmm1
  00195	f3 0f 11 4d d8	 movss	 DWORD PTR $T532453[ebp], xmm1
  0019a	f3 0f 10 4d f4	 movss	 xmm1, DWORD PTR _vDir$532447[ebp+4]
  0019f	0f 5a c9	 cvtps2pd xmm1, xmm1
  001a2	0f 57 d2	 xorps	 xmm2, xmm2
  001a5	f3 0f 5a d0	 cvtss2sd xmm2, xmm0
  001a9	f2 0f 59 ca	 mulsd	 xmm1, xmm2
  001ad	66 0f 5a c9	 cvtpd2ps xmm1, xmm1
  001b1	f3 0f 11 4d dc	 movss	 DWORD PTR $T532453[ebp+4], xmm1
  001b6	f3 0f 10 4d f8	 movss	 xmm1, DWORD PTR _vDir$532447[ebp+8]
  001bb	f3 0f 5a c0	 cvtss2sd xmm0, xmm0
  001bf	0f 5a c9	 cvtps2pd xmm1, xmm1
  001c2	f2 0f 59 c8	 mulsd	 xmm1, xmm0
  001c6	8d 75 d8	 lea	 esi, DWORD PTR $T532453[ebp]
  001c9	8d 7d e4	 lea	 edi, DWORD PTR _vMove$532451[ebp]
  001cc	8d 4d e4	 lea	 ecx, DWORD PTR _vMove$532451[ebp]
  001cf	66 0f 5a c1	 cvtpd2ps xmm0, xmm1
  001d3	f3 0f 11 45 e0	 movss	 DWORD PTR $T532453[ebp+8], xmm0
  001d8	a5		 movsd
  001d9	a5		 movsd
  001da	51		 push	 ecx
  001db	8b cb		 mov	 ecx, ebx
  001dd	a5		 movsd
  001de	ff 50 50	 call	 DWORD PTR [eax+80]
  001e1	8b 75 d4	 mov	 esi, DWORD PTR _dwCurTime$[ebp]
$LN5@ProcessPos:

; 845  : 	}
; 846  : 	
; 847  : 
; 848  : 	m_dwProcessTime = dwCurTime;

  001e4	89 b3 1c 02 00
	00		 mov	 DWORD PTR [ebx+540], esi
$LN24@ProcessPos:
  001ea	5f		 pop	 edi
$LN8@ProcessPos:

; 849  : }

  001eb	8b 4d fc	 mov	 ecx, DWORD PTR __$ArrayPad$[ebp]
  001ee	5e		 pop	 esi
  001ef	33 cd		 xor	 ecx, ebp
  001f1	5b		 pop	 ebx
  001f2	e8 00 00 00 00	 call	 @__security_check_cookie@4
  001f7	c9		 leave
  001f8	c2 04 00	 ret	 4
?ProcessPos@ioTargetTrace16Dummy@@EAEXM@Z ENDP		; ioTargetTrace16Dummy::ProcessPos
_TEXT	ENDS
PUBLIC	?erase@?$vector@KV?$allocator@K@std@@@std@@QAE?AV?$_Vector_iterator@V?$_Vector_val@KV?$allocator@K@std@@@std@@@2@V?$_Vector_const_iterator@V?$_Vector_val@KV?$allocator@K@std@@@std@@@2@@Z ; std::vector<unsigned long,std::allocator<unsigned long> >::erase
; Function compile flags: /Ogsp
; File c:\program files (x86)\microsoft visual studio 10.0\vc\include\vector
;	COMDAT ?erase@?$vector@KV?$allocator@K@std@@@std@@QAE?AV?$_Vector_iterator@V?$_Vector_val@KV?$allocator@K@std@@@std@@@2@V?$_Vector_const_iterator@V?$_Vector_val@KV?$allocator@K@std@@@std@@@2@@Z
_TEXT	SEGMENT
___$ReturnUdt$ = 8					; size = 4
__Cat$540638 = 12					; size = 1
__Where$ = 12						; size = 4
?erase@?$vector@KV?$allocator@K@std@@@std@@QAE?AV?$_Vector_iterator@V?$_Vector_val@KV?$allocator@K@std@@@std@@@2@V?$_Vector_const_iterator@V?$_Vector_val@KV?$allocator@K@std@@@std@@@2@@Z PROC ; std::vector<unsigned long,std::allocator<unsigned long> >::erase, COMDAT
; _this$ = ecx

; 1179 : 		{	// erase element at where

  00000	55		 push	 ebp
  00001	8b ec		 mov	 ebp, esp

; 1180 : 		_Move(_VIPTR(_Where) + 1, this->_Mylast,
; 1181 : 			_VIPTR(_Where));

  00003	8b 45 0c	 mov	 eax, DWORD PTR __Where$[ebp]
  00006	56		 push	 esi
  00007	ff 75 0c	 push	 DWORD PTR __Cat$540638[ebp]
  0000a	8b f1		 mov	 esi, ecx
  0000c	50		 push	 eax
  0000d	ff 76 04	 push	 DWORD PTR [esi+4]
  00010	83 c0 04	 add	 eax, 4
  00013	50		 push	 eax
  00014	e8 00 00 00 00	 call	 ??$_Move@PAKPAK@std@@YAPAKPAK00U_Scalar_ptr_iterator_tag@0@@Z ; std::_Move<unsigned long *,unsigned long *>

; 1182 : 		_Destroy(this->_Mylast - 1, this->_Mylast);
; 1183 : 		--this->_Mylast;
; 1184 : 		return (_Make_iter(_Where));

  00019	8b 45 08	 mov	 eax, DWORD PTR ___$ReturnUdt$[ebp]
  0001c	8b 4d 0c	 mov	 ecx, DWORD PTR __Where$[ebp]
  0001f	83 c4 10	 add	 esp, 16			; 00000010H
  00022	83 46 04 fc	 add	 DWORD PTR [esi+4], -4	; fffffffcH
  00026	89 08		 mov	 DWORD PTR [eax], ecx
  00028	5e		 pop	 esi

; 1185 : 		}

  00029	5d		 pop	 ebp
  0002a	c2 08 00	 ret	 8
?erase@?$vector@KV?$allocator@K@std@@@std@@QAE?AV?$_Vector_iterator@V?$_Vector_val@KV?$allocator@K@std@@@std@@@2@V?$_Vector_const_iterator@V?$_Vector_val@KV?$allocator@K@std@@@std@@@2@@Z ENDP ; std::vector<unsigned long,std::allocator<unsigned long> >::erase
_TEXT	ENDS
PUBLIC	?end@?$_Tree@V?$_Tmap_traits@HUtagDummyAttackInfo@@U?$less@H@std@@V?$allocator@U?$pair@$$CBHUtagDummyAttackInfo@@@std@@@3@$0A@@std@@@std@@QAE?AV?$_Tree_iterator@V?$_Tree_val@V?$_Tmap_traits@HUtagDummyAttackInfo@@U?$less@H@std@@V?$allocator@U?$pair@$$CBHUtagDummyAttackInfo@@@std@@@3@$0A@@std@@@std@@@2@XZ ; std::_Tree<std::_Tmap_traits<int,tagDummyAttackInfo,std::less<int>,std::allocator<std::pair<int const ,tagDummyAttackInfo> >,0> >::end
; Function compile flags: /Ogsp
; File c:\program files (x86)\microsoft visual studio 10.0\vc\include\xtree
;	COMDAT ?end@?$_Tree@V?$_Tmap_traits@HUtagDummyAttackInfo@@U?$less@H@std@@V?$allocator@U?$pair@$$CBHUtagDummyAttackInfo@@@std@@@3@$0A@@std@@@std@@QAE?AV?$_Tree_iterator@V?$_Tree_val@V?$_Tmap_traits@HUtagDummyAttackInfo@@U?$less@H@std@@V?$allocator@U?$pair@$$CBHUtagDummyAttackInfo@@@std@@@3@$0A@@std@@@std@@@2@XZ
_TEXT	SEGMENT
___$ReturnUdt$ = 8					; size = 4
?end@?$_Tree@V?$_Tmap_traits@HUtagDummyAttackInfo@@U?$less@H@std@@V?$allocator@U?$pair@$$CBHUtagDummyAttackInfo@@@std@@@3@$0A@@std@@@std@@QAE?AV?$_Tree_iterator@V?$_Tree_val@V?$_Tmap_traits@HUtagDummyAttackInfo@@U?$less@H@std@@V?$allocator@U?$pair@$$CBHUtagDummyAttackInfo@@@std@@@3@$0A@@std@@@std@@@2@XZ PROC ; std::_Tree<std::_Tmap_traits<int,tagDummyAttackInfo,std::less<int>,std::allocator<std::pair<int const ,tagDummyAttackInfo> >,0> >::end, COMDAT
; _this$ = ecx

; 816  : 		{	// return iterator for end of mutable sequence

  00000	55		 push	 ebp
  00001	8b ec		 mov	 ebp, esp

; 817  : 		return (iterator(this->_Myhead, this));

  00003	8b 49 04	 mov	 ecx, DWORD PTR [ecx+4]
  00006	8b 45 08	 mov	 eax, DWORD PTR ___$ReturnUdt$[ebp]
  00009	89 08		 mov	 DWORD PTR [eax], ecx

; 818  : 		}

  0000b	5d		 pop	 ebp
  0000c	c2 04 00	 ret	 4
?end@?$_Tree@V?$_Tmap_traits@HUtagDummyAttackInfo@@U?$less@H@std@@V?$allocator@U?$pair@$$CBHUtagDummyAttackInfo@@@std@@@3@$0A@@std@@@std@@QAE?AV?$_Tree_iterator@V?$_Tree_val@V?$_Tmap_traits@HUtagDummyAttackInfo@@U?$less@H@std@@V?$allocator@U?$pair@$$CBHUtagDummyAttackInfo@@@std@@@3@$0A@@std@@@std@@@2@XZ ENDP ; std::_Tree<std::_Tmap_traits<int,tagDummyAttackInfo,std::less<int>,std::allocator<std::pair<int const ,tagDummyAttackInfo> >,0> >::end
_TEXT	ENDS
PUBLIC	?begin@?$list@UFireTime@@V?$allocator@UFireTime@@@std@@@std@@QAE?AV?$_List_iterator@V?$_List_val@UFireTime@@V?$allocator@UFireTime@@@std@@@std@@@2@XZ ; std::list<FireTime,std::allocator<FireTime> >::begin
; Function compile flags: /Ogsp
; File c:\program files (x86)\microsoft visual studio 10.0\vc\include\list
;	COMDAT ?begin@?$list@UFireTime@@V?$allocator@UFireTime@@@std@@@std@@QAE?AV?$_List_iterator@V?$_List_val@UFireTime@@V?$allocator@UFireTime@@@std@@@std@@@2@XZ
_TEXT	SEGMENT
___$ReturnUdt$ = 8					; size = 4
?begin@?$list@UFireTime@@V?$allocator@UFireTime@@@std@@@std@@QAE?AV?$_List_iterator@V?$_List_val@UFireTime@@V?$allocator@UFireTime@@@std@@@std@@@2@XZ PROC ; std::list<FireTime,std::allocator<FireTime> >::begin, COMDAT
; _this$ = ecx

; 781  : 		{	// return iterator for beginning of mutable sequence

  00000	55		 push	 ebp
  00001	8b ec		 mov	 ebp, esp

; 782  : 		return (iterator(this->_Nextnode(this->_Myhead), this));

  00003	8b 01		 mov	 eax, DWORD PTR [ecx]
  00005	8b 08		 mov	 ecx, DWORD PTR [eax]
  00007	8b 45 08	 mov	 eax, DWORD PTR ___$ReturnUdt$[ebp]
  0000a	89 08		 mov	 DWORD PTR [eax], ecx

; 783  : 		}

  0000c	5d		 pop	 ebp
  0000d	c2 04 00	 ret	 4
?begin@?$list@UFireTime@@V?$allocator@UFireTime@@@std@@@std@@QAE?AV?$_List_iterator@V?$_List_val@UFireTime@@V?$allocator@UFireTime@@@std@@@std@@@2@XZ ENDP ; std::list<FireTime,std::allocator<FireTime> >::begin
_TEXT	ENDS
PUBLIC	?end@?$list@UFireTime@@V?$allocator@UFireTime@@@std@@@std@@QAE?AV?$_List_iterator@V?$_List_val@UFireTime@@V?$allocator@UFireTime@@@std@@@std@@@2@XZ ; std::list<FireTime,std::allocator<FireTime> >::end
; Function compile flags: /Ogsp
;	COMDAT ?end@?$list@UFireTime@@V?$allocator@UFireTime@@@std@@@std@@QAE?AV?$_List_iterator@V?$_List_val@UFireTime@@V?$allocator@UFireTime@@@std@@@std@@@2@XZ
_TEXT	SEGMENT
___$ReturnUdt$ = 8					; size = 4
?end@?$list@UFireTime@@V?$allocator@UFireTime@@@std@@@std@@QAE?AV?$_List_iterator@V?$_List_val@UFireTime@@V?$allocator@UFireTime@@@std@@@std@@@2@XZ PROC ; std::list<FireTime,std::allocator<FireTime> >::end, COMDAT
; _this$ = ecx

; 791  : 		{	// return iterator for end of mutable sequence

  00000	55		 push	 ebp
  00001	8b ec		 mov	 ebp, esp

; 792  : 		return (iterator(this->_Myhead, this));

  00003	8b 09		 mov	 ecx, DWORD PTR [ecx]
  00005	8b 45 08	 mov	 eax, DWORD PTR ___$ReturnUdt$[ebp]
  00008	89 08		 mov	 DWORD PTR [eax], ecx

; 793  : 		}

  0000a	5d		 pop	 ebp
  0000b	c2 04 00	 ret	 4
?end@?$list@UFireTime@@V?$allocator@UFireTime@@@std@@@std@@QAE?AV?$_List_iterator@V?$_List_val@UFireTime@@V?$allocator@UFireTime@@@std@@@std@@@2@XZ ENDP ; std::list<FireTime,std::allocator<FireTime> >::end
_TEXT	ENDS
PUBLIC	??0?$list@MV?$allocator@M@std@@@std@@QAE@XZ	; std::list<float,std::allocator<float> >::list<float,std::allocator<float> >
; Function compile flags: /Ogsp
;	COMDAT ??0?$list@MV?$allocator@M@std@@@std@@QAE@XZ
_TEXT	SEGMENT
$T540785 = -4						; size = 4
$T540780 = -4						; size = 4
??0?$list@MV?$allocator@M@std@@@std@@QAE@XZ PROC	; std::list<float,std::allocator<float> >::list<float,std::allocator<float> >, COMDAT
; _this$ = ecx

; 607  : 		{	// construct empty list

  00000	55		 push	 ebp
  00001	8b ec		 mov	 ebp, esp
  00003	51		 push	 ecx
  00004	56		 push	 esi
  00005	51		 push	 ecx
  00006	89 65 fc	 mov	 DWORD PTR $T540780[ebp], esp
  00009	8b f1		 mov	 esi, ecx
  0000b	89 65 fc	 mov	 DWORD PTR $T540785[ebp], esp
  0000e	e8 00 00 00 00	 call	 ??0?$_List_val@MV?$allocator@M@std@@@std@@QAE@V?$allocator@M@1@@Z ; std::_List_val<float,std::allocator<float> >::_List_val<float,std::allocator<float> >

; 608  : 		}

  00013	8b c6		 mov	 eax, esi
  00015	5e		 pop	 esi
  00016	c9		 leave
  00017	c3		 ret	 0
??0?$list@MV?$allocator@M@std@@@std@@QAE@XZ ENDP	; std::list<float,std::allocator<float> >::list<float,std::allocator<float> >
_TEXT	ENDS
PUBLIC	?begin@?$list@MV?$allocator@M@std@@@std@@QAE?AV?$_List_iterator@V?$_List_val@MV?$allocator@M@std@@@std@@@2@XZ ; std::list<float,std::allocator<float> >::begin
; Function compile flags: /Ogsp
;	COMDAT ?begin@?$list@MV?$allocator@M@std@@@std@@QAE?AV?$_List_iterator@V?$_List_val@MV?$allocator@M@std@@@std@@@2@XZ
_TEXT	SEGMENT
___$ReturnUdt$ = 8					; size = 4
?begin@?$list@MV?$allocator@M@std@@@std@@QAE?AV?$_List_iterator@V?$_List_val@MV?$allocator@M@std@@@std@@@2@XZ PROC ; std::list<float,std::allocator<float> >::begin, COMDAT
; _this$ = ecx

; 781  : 		{	// return iterator for beginning of mutable sequence

  00000	55		 push	 ebp
  00001	8b ec		 mov	 ebp, esp

; 782  : 		return (iterator(this->_Nextnode(this->_Myhead), this));

  00003	8b 01		 mov	 eax, DWORD PTR [ecx]
  00005	8b 08		 mov	 ecx, DWORD PTR [eax]
  00007	8b 45 08	 mov	 eax, DWORD PTR ___$ReturnUdt$[ebp]
  0000a	89 08		 mov	 DWORD PTR [eax], ecx

; 783  : 		}

  0000c	5d		 pop	 ebp
  0000d	c2 04 00	 ret	 4
?begin@?$list@MV?$allocator@M@std@@@std@@QAE?AV?$_List_iterator@V?$_List_val@MV?$allocator@M@std@@@std@@@2@XZ ENDP ; std::list<float,std::allocator<float> >::begin
_TEXT	ENDS
PUBLIC	?end@?$list@MV?$allocator@M@std@@@std@@QAE?AV?$_List_iterator@V?$_List_val@MV?$allocator@M@std@@@std@@@2@XZ ; std::list<float,std::allocator<float> >::end
; Function compile flags: /Ogsp
;	COMDAT ?end@?$list@MV?$allocator@M@std@@@std@@QAE?AV?$_List_iterator@V?$_List_val@MV?$allocator@M@std@@@std@@@2@XZ
_TEXT	SEGMENT
___$ReturnUdt$ = 8					; size = 4
?end@?$list@MV?$allocator@M@std@@@std@@QAE?AV?$_List_iterator@V?$_List_val@MV?$allocator@M@std@@@std@@@2@XZ PROC ; std::list<float,std::allocator<float> >::end, COMDAT
; _this$ = ecx

; 791  : 		{	// return iterator for end of mutable sequence

  00000	55		 push	 ebp
  00001	8b ec		 mov	 ebp, esp

; 792  : 		return (iterator(this->_Myhead, this));

  00003	8b 09		 mov	 ecx, DWORD PTR [ecx]
  00005	8b 45 08	 mov	 eax, DWORD PTR ___$ReturnUdt$[ebp]
  00008	89 08		 mov	 DWORD PTR [eax], ecx

; 793  : 		}

  0000a	5d		 pop	 ebp
  0000b	c2 04 00	 ret	 4
?end@?$list@MV?$allocator@M@std@@@std@@QAE?AV?$_List_iterator@V?$_List_val@MV?$allocator@M@std@@@std@@@2@XZ ENDP ; std::list<float,std::allocator<float> >::end
_TEXT	ENDS
PUBLIC	?lower_bound@?$_Tree@V?$_Tmap_traits@HUtagDummyAttackInfo@@U?$less@H@std@@V?$allocator@U?$pair@$$CBHUtagDummyAttackInfo@@@std@@@3@$0A@@std@@@std@@QAE?AV?$_Tree_iterator@V?$_Tree_val@V?$_Tmap_traits@HUtagDummyAttackInfo@@U?$less@H@std@@V?$allocator@U?$pair@$$CBHUtagDummyAttackInfo@@@std@@@3@$0A@@std@@@std@@@2@ABH@Z ; std::_Tree<std::_Tmap_traits<int,tagDummyAttackInfo,std::less<int>,std::allocator<std::pair<int const ,tagDummyAttackInfo> >,0> >::lower_bound
; Function compile flags: /Ogsp
; File c:\program files (x86)\microsoft visual studio 10.0\vc\include\xtree
;	COMDAT ?lower_bound@?$_Tree@V?$_Tmap_traits@HUtagDummyAttackInfo@@U?$less@H@std@@V?$allocator@U?$pair@$$CBHUtagDummyAttackInfo@@@std@@@3@$0A@@std@@@std@@QAE?AV?$_Tree_iterator@V?$_Tree_val@V?$_Tmap_traits@HUtagDummyAttackInfo@@U?$less@H@std@@V?$allocator@U?$pair@$$CBHUtagDummyAttackInfo@@@std@@@3@$0A@@std@@@std@@@2@ABH@Z
_TEXT	SEGMENT
___$ReturnUdt$ = 8					; size = 4
__Keyval$ = 12						; size = 4
?lower_bound@?$_Tree@V?$_Tmap_traits@HUtagDummyAttackInfo@@U?$less@H@std@@V?$allocator@U?$pair@$$CBHUtagDummyAttackInfo@@@std@@@3@$0A@@std@@@std@@QAE?AV?$_Tree_iterator@V?$_Tree_val@V?$_Tmap_traits@HUtagDummyAttackInfo@@U?$less@H@std@@V?$allocator@U?$pair@$$CBHUtagDummyAttackInfo@@@std@@@3@$0A@@std@@@std@@@2@ABH@Z PROC ; std::_Tree<std::_Tmap_traits<int,tagDummyAttackInfo,std::less<int>,std::allocator<std::pair<int const ,tagDummyAttackInfo> >,0> >::lower_bound, COMDAT
; _this$ = ecx

; 1449 : 		{	// find leftmost node not less than _Keyval in mutable tree

  00000	55		 push	 ebp
  00001	8b ec		 mov	 ebp, esp

; 1450 : 		return (iterator(_Lbound(_Keyval), this));

  00003	ff 75 0c	 push	 DWORD PTR __Keyval$[ebp]
  00006	e8 00 00 00 00	 call	 ?_Lbound@?$_Tree@V?$_Tmap_traits@HUtagDummyAttackInfo@@U?$less@H@std@@V?$allocator@U?$pair@$$CBHUtagDummyAttackInfo@@@std@@@3@$0A@@std@@@std@@IAEPAU_Node@?$_Tree_nod@V?$_Tmap_traits@HUtagDummyAttackInfo@@U?$less@H@std@@V?$allocator@U?$pair@$$CBHUtagDummyAttackInfo@@@std@@@3@$0A@@std@@@2@ABH@Z ; std::_Tree<std::_Tmap_traits<int,tagDummyAttackInfo,std::less<int>,std::allocator<std::pair<int const ,tagDummyAttackInfo> >,0> >::_Lbound
  0000b	8b 4d 08	 mov	 ecx, DWORD PTR ___$ReturnUdt$[ebp]
  0000e	89 01		 mov	 DWORD PTR [ecx], eax
  00010	8b c1		 mov	 eax, ecx

; 1451 : 		}

  00012	5d		 pop	 ebp
  00013	c2 08 00	 ret	 8
?lower_bound@?$_Tree@V?$_Tmap_traits@HUtagDummyAttackInfo@@U?$less@H@std@@V?$allocator@U?$pair@$$CBHUtagDummyAttackInfo@@@std@@@3@$0A@@std@@@std@@QAE?AV?$_Tree_iterator@V?$_Tree_val@V?$_Tmap_traits@HUtagDummyAttackInfo@@U?$less@H@std@@V?$allocator@U?$pair@$$CBHUtagDummyAttackInfo@@@std@@@3@$0A@@std@@@std@@@2@ABH@Z ENDP ; std::_Tree<std::_Tmap_traits<int,tagDummyAttackInfo,std::less<int>,std::allocator<std::pair<int const ,tagDummyAttackInfo> >,0> >::lower_bound
_TEXT	ENDS
PUBLIC	?_Make_iter@?$list@UFireTime@@V?$allocator@UFireTime@@@std@@@std@@QBE?AV?$_List_iterator@V?$_List_val@UFireTime@@V?$allocator@UFireTime@@@std@@@std@@@2@V?$_List_const_iterator@V?$_List_val@UFireTime@@V?$allocator@UFireTime@@@std@@@std@@@2@@Z ; std::list<FireTime,std::allocator<FireTime> >::_Make_iter
; Function compile flags: /Ogsp
; File c:\program files (x86)\microsoft visual studio 10.0\vc\include\list
;	COMDAT ?_Make_iter@?$list@UFireTime@@V?$allocator@UFireTime@@@std@@@std@@QBE?AV?$_List_iterator@V?$_List_val@UFireTime@@V?$allocator@UFireTime@@@std@@@std@@@2@V?$_List_const_iterator@V?$_List_val@UFireTime@@V?$allocator@UFireTime@@@std@@@std@@@2@@Z
_TEXT	SEGMENT
___$ReturnUdt$ = 8					; size = 4
__Where$ = 12						; size = 4
?_Make_iter@?$list@UFireTime@@V?$allocator@UFireTime@@@std@@@std@@QBE?AV?$_List_iterator@V?$_List_val@UFireTime@@V?$allocator@UFireTime@@@std@@@std@@@2@V?$_List_const_iterator@V?$_List_val@UFireTime@@V?$allocator@UFireTime@@@std@@@std@@@2@@Z PROC ; std::list<FireTime,std::allocator<FireTime> >::_Make_iter, COMDAT
; _this$ = ecx

; 801  : 		{	// make iterator from const_iterator

  00000	55		 push	 ebp
  00001	8b ec		 mov	 ebp, esp

; 802  : 		return (iterator(_Where._Ptr, this));

  00003	8b 45 08	 mov	 eax, DWORD PTR ___$ReturnUdt$[ebp]
  00006	8b 4d 0c	 mov	 ecx, DWORD PTR __Where$[ebp]
  00009	89 08		 mov	 DWORD PTR [eax], ecx

; 803  : 		}

  0000b	5d		 pop	 ebp
  0000c	c2 08 00	 ret	 8
?_Make_iter@?$list@UFireTime@@V?$allocator@UFireTime@@@std@@@std@@QBE?AV?$_List_iterator@V?$_List_val@UFireTime@@V?$allocator@UFireTime@@@std@@@std@@@2@V?$_List_const_iterator@V?$_List_val@UFireTime@@V?$allocator@UFireTime@@@std@@@std@@@2@@Z ENDP ; std::list<FireTime,std::allocator<FireTime> >::_Make_iter
_TEXT	ENDS
PUBLIC	?_Tidy@?$vector@PBUAniEventTime@@V?$allocator@PBUAniEventTime@@@std@@@std@@IAEXXZ ; std::vector<AniEventTime const *,std::allocator<AniEventTime const *> >::_Tidy
EXTRN	__imp_?_Orphan_all@_Container_base0@std@@QAEXXZ:PROC
; Function compile flags: /Ogsp
; File c:\program files (x86)\microsoft visual studio 10.0\vc\include\vector
;	COMDAT ?_Tidy@?$vector@PBUAniEventTime@@V?$allocator@PBUAniEventTime@@@std@@@std@@IAEXXZ
_TEXT	SEGMENT
?_Tidy@?$vector@PBUAniEventTime@@V?$allocator@PBUAniEventTime@@@std@@@std@@IAEXXZ PROC ; std::vector<AniEventTime const *,std::allocator<AniEventTime const *> >::_Tidy, COMDAT
; _this$ = ecx

; 1301 : 		{	// free all storage

  00000	56		 push	 esi
  00001	8b f1		 mov	 esi, ecx

; 1302 : 		if (this->_Myfirst != 0)

  00003	83 3e 00	 cmp	 DWORD PTR [esi], 0
  00006	74 0e		 je	 SHORT $LN12@Tidy@2

; 1303 : 			{	// something to free, destroy and deallocate it
; 1304 : 			this->_Orphan_all();

  00008	ff 15 00 00 00
	00		 call	 DWORD PTR __imp_?_Orphan_all@_Container_base0@std@@QAEXXZ

; 1305 : 			_Destroy(this->_Myfirst, this->_Mylast);
; 1306 : 			this->_Alval.deallocate(this->_Myfirst,
; 1307 : 				this->_Myend - this->_Myfirst);

  0000e	ff 36		 push	 DWORD PTR [esi]
  00010	e8 00 00 00 00	 call	 ??3@YAXPAX@Z		; operator delete
  00015	59		 pop	 ecx
$LN12@Tidy@2:

; 1308 : 			}
; 1309 : 		this->_Myfirst = 0;

  00016	83 26 00	 and	 DWORD PTR [esi], 0

; 1310 : 		this->_Mylast = 0;

  00019	83 66 04 00	 and	 DWORD PTR [esi+4], 0

; 1311 : 		this->_Myend = 0;

  0001d	83 66 08 00	 and	 DWORD PTR [esi+8], 0
  00021	5e		 pop	 esi

; 1312 : 		}

  00022	c3		 ret	 0
?_Tidy@?$vector@PBUAniEventTime@@V?$allocator@PBUAniEventTime@@@std@@@std@@IAEXXZ ENDP ; std::vector<AniEventTime const *,std::allocator<AniEventTime const *> >::_Tidy
_TEXT	ENDS
PUBLIC	?clear@?$list@MV?$allocator@M@std@@@std@@QAEXXZ	; std::list<float,std::allocator<float> >::clear
; Function compile flags: /Ogsp
; File c:\program files (x86)\microsoft visual studio 10.0\vc\include\list
;	COMDAT ?clear@?$list@MV?$allocator@M@std@@@std@@QAEXXZ
_TEXT	SEGMENT
?clear@?$list@MV?$allocator@M@std@@@std@@QAEXXZ PROC	; std::list<float,std::allocator<float> >::clear, COMDAT
; _this$ = ecx

; 1096 : 		{	// erase all

  00000	56		 push	 esi
  00001	8b f1		 mov	 esi, ecx

; 1097 :  #if _ITERATOR_DEBUG_LEVEL == 2
; 1098 : 		this->_Orphan_ptr(*this, 0);
; 1099 :  #endif /* _ITERATOR_DEBUG_LEVEL == 2 */
; 1100 : 
; 1101 : 		_Nodeptr _Pnext;
; 1102 : 		_Nodeptr _Pnode = this->_Nextnode(this->_Myhead);

  00003	8b 06		 mov	 eax, DWORD PTR [esi]
  00005	8b 08		 mov	 ecx, DWORD PTR [eax]

; 1103 : 		this->_Nextnode(this->_Myhead) = this->_Myhead;

  00007	89 00		 mov	 DWORD PTR [eax], eax

; 1104 : 		this->_Prevnode(this->_Myhead) = this->_Myhead;

  00009	8b 06		 mov	 eax, DWORD PTR [esi]
  0000b	89 40 04	 mov	 DWORD PTR [eax+4], eax

; 1105 : 		this->_Mysize = 0;

  0000e	83 66 04 00	 and	 DWORD PTR [esi+4], 0

; 1106 : 
; 1107 : 		for (; _Pnode != this->_Myhead; _Pnode = _Pnext)

  00012	3b 0e		 cmp	 ecx, DWORD PTR [esi]
  00014	74 11		 je	 SHORT $LN1@clear
  00016	57		 push	 edi
$LL3@clear:

; 1108 : 			{	// delete an element
; 1109 : 			_Pnext = this->_Nextnode(_Pnode);

  00017	8b 39		 mov	 edi, DWORD PTR [ecx]

; 1110 : 
; 1111 : 			_Dest_val(this->_Alnod, _Pnode);
; 1112 : 			this->_Alnod.deallocate(_Pnode, 1);

  00019	51		 push	 ecx
  0001a	e8 00 00 00 00	 call	 ??3@YAXPAX@Z		; operator delete
  0001f	59		 pop	 ecx
  00020	8b cf		 mov	 ecx, edi
  00022	3b 3e		 cmp	 edi, DWORD PTR [esi]
  00024	75 f1		 jne	 SHORT $LL3@clear
  00026	5f		 pop	 edi
$LN1@clear:
  00027	5e		 pop	 esi

; 1113 : 			}
; 1114 : 		}

  00028	c3		 ret	 0
?clear@?$list@MV?$allocator@M@std@@@std@@QAEXXZ ENDP	; std::list<float,std::allocator<float> >::clear
_TEXT	ENDS
PUBLIC	??$_Cons_val@V?$allocator@UFireTime@@@std@@UFireTime@@ABU3@@std@@YAXAAV?$allocator@UFireTime@@@0@PAUFireTime@@ABU2@@Z ; std::_Cons_val<std::allocator<FireTime>,FireTime,FireTime const &>
; Function compile flags: /Ogsp
; File c:\program files (x86)\microsoft visual studio 10.0\vc\include\xmemory
;	COMDAT ??$_Cons_val@V?$allocator@UFireTime@@@std@@UFireTime@@ABU3@@std@@YAXAAV?$allocator@UFireTime@@@0@PAUFireTime@@ABU2@@Z
_TEXT	SEGMENT
__Alval$ = 8						; size = 4
__Pdest$ = 12						; size = 4
__Src$ = 16						; size = 4
??$_Cons_val@V?$allocator@UFireTime@@@std@@UFireTime@@ABU3@@std@@YAXAAV?$allocator@UFireTime@@@0@PAUFireTime@@ABU2@@Z PROC ; std::_Cons_val<std::allocator<FireTime>,FireTime,FireTime const &>, COMDAT

; 279  : 	{	// construct using allocator

  00000	55		 push	 ebp
  00001	8b ec		 mov	 ebp, esp

; 280  : 	_Alval.construct(_Pdest, _STD forward<_Ty2>(_Src));

  00003	ff 75 10	 push	 DWORD PTR __Src$[ebp]
  00006	ff 75 0c	 push	 DWORD PTR __Pdest$[ebp]
  00009	e8 00 00 00 00	 call	 ??$_Construct@UFireTime@@ABU1@@std@@YAXPAUFireTime@@ABU1@@Z ; std::_Construct<FireTime,FireTime const &>
  0000e	59		 pop	 ecx
  0000f	59		 pop	 ecx

; 281  : 	}

  00010	5d		 pop	 ebp
  00011	c3		 ret	 0
??$_Cons_val@V?$allocator@UFireTime@@@std@@UFireTime@@ABU3@@std@@YAXAAV?$allocator@UFireTime@@@0@PAUFireTime@@ABU2@@Z ENDP ; std::_Cons_val<std::allocator<FireTime>,FireTime,FireTime const &>
_TEXT	ENDS
PUBLIC	?destroy@?$allocator@U_Node@?$_List_nod@UFireTime@@V?$allocator@UFireTime@@@std@@@std@@@std@@QAEXPAU_Node@?$_List_nod@UFireTime@@V?$allocator@UFireTime@@@std@@@2@@Z ; std::allocator<std::_List_nod<FireTime,std::allocator<FireTime> >::_Node>::destroy
; Function compile flags: /Ogsp
;	COMDAT ?destroy@?$allocator@U_Node@?$_List_nod@UFireTime@@V?$allocator@UFireTime@@@std@@@std@@@std@@QAEXPAU_Node@?$_List_nod@UFireTime@@V?$allocator@UFireTime@@@std@@@2@@Z
_TEXT	SEGMENT
__Ptr$ = 8						; size = 4
?destroy@?$allocator@U_Node@?$_List_nod@UFireTime@@V?$allocator@UFireTime@@@std@@@std@@@std@@QAEXPAU_Node@?$_List_nod@UFireTime@@V?$allocator@UFireTime@@@std@@@2@@Z PROC ; std::allocator<std::_List_nod<FireTime,std::allocator<FireTime> >::_Node>::destroy, COMDAT
; _this$ = ecx

; 212  : 		{	// destroy object at _Ptr

  00000	55		 push	 ebp
  00001	8b ec		 mov	 ebp, esp

; 213  : 		_Destroy(_Ptr);

  00003	8b 4d 08	 mov	 ecx, DWORD PTR __Ptr$[ebp]
  00006	83 c1 08	 add	 ecx, 8
  00009	e8 00 00 00 00	 call	 ??1FireTime@@QAE@XZ

; 214  : 		}

  0000e	5d		 pop	 ebp
  0000f	c2 04 00	 ret	 4
?destroy@?$allocator@U_Node@?$_List_nod@UFireTime@@V?$allocator@UFireTime@@@std@@@std@@@std@@QAEXPAU_Node@?$_List_nod@UFireTime@@V?$allocator@UFireTime@@@std@@@2@@Z ENDP ; std::allocator<std::_List_nod<FireTime,std::allocator<FireTime> >::_Node>::destroy
_TEXT	ENDS
PUBLIC	??$_Destroy_range@V?$allocator@UExtraAniJump@@@std@@@std@@YAXPAUExtraAniJump@@0AAV?$allocator@UExtraAniJump@@@0@U_Nonscalar_ptr_iterator_tag@0@@Z ; std::_Destroy_range<std::allocator<ExtraAniJump> >
; Function compile flags: /Ogsp
;	COMDAT ??$_Destroy_range@V?$allocator@UExtraAniJump@@@std@@@std@@YAXPAUExtraAniJump@@0AAV?$allocator@UExtraAniJump@@@0@U_Nonscalar_ptr_iterator_tag@0@@Z
_TEXT	SEGMENT
__First$ = 8						; size = 4
__Last$ = 12						; size = 4
__Al$ = 16						; size = 4
___formal$ = 20						; size = 1
??$_Destroy_range@V?$allocator@UExtraAniJump@@@std@@@std@@YAXPAUExtraAniJump@@0AAV?$allocator@UExtraAniJump@@@0@U_Nonscalar_ptr_iterator_tag@0@@Z PROC ; std::_Destroy_range<std::allocator<ExtraAniJump> >, COMDAT

; 96   : 	for (; _First != _Last; ++_First)
; 97   : 		_Dest_val(_Al, _First);
; 98   : 	}

  00000	c3		 ret	 0
??$_Destroy_range@V?$allocator@UExtraAniJump@@@std@@@std@@YAXPAUExtraAniJump@@0AAV?$allocator@UExtraAniJump@@@0@U_Nonscalar_ptr_iterator_tag@0@@Z ENDP ; std::_Destroy_range<std::allocator<ExtraAniJump> >
_TEXT	ENDS
PUBLIC	??$_Uninit_move@PAUExtraAniJump@@PAU1@V?$allocator@UExtraAniJump@@@std@@U1@@std@@YAPAUExtraAniJump@@PAU1@00AAV?$allocator@UExtraAniJump@@@0@0U_Nonscalar_ptr_iterator_tag@0@@Z ; std::_Uninit_move<ExtraAniJump *,ExtraAniJump *,std::allocator<ExtraAniJump>,ExtraAniJump>
; Function compile flags: /Ogsp
; File c:\program files (x86)\microsoft visual studio 10.0\vc\include\memory
;	COMDAT ??$_Uninit_move@PAUExtraAniJump@@PAU1@V?$allocator@UExtraAniJump@@@std@@U1@@std@@YAPAUExtraAniJump@@PAU1@00AAV?$allocator@UExtraAniJump@@@0@0U_Nonscalar_ptr_iterator_tag@0@@Z
_TEXT	SEGMENT
__First$ = 8						; size = 4
__Last$ = 12						; size = 4
__Dest$ = 16						; size = 4
__Al$ = 20						; size = 4
___formal$ = 24						; size = 4
___formal$ = 28						; size = 1
??$_Uninit_move@PAUExtraAniJump@@PAU1@V?$allocator@UExtraAniJump@@@std@@U1@@std@@YAPAUExtraAniJump@@PAU1@00AAV?$allocator@UExtraAniJump@@@0@0U_Nonscalar_ptr_iterator_tag@0@@Z PROC ; std::_Uninit_move<ExtraAniJump *,ExtraAniJump *,std::allocator<ExtraAniJump>,ExtraAniJump>, COMDAT

; 424  : 	{	// move [_First, _Last) to raw _Dest, using _Al, arbitrary type

  00000	55		 push	 ebp
  00001	8b ec		 mov	 ebp, esp
  00003	56		 push	 esi

; 425  : 	_DEBUG_RANGE(_First, _Last);
; 426  : 	_DEBUG_POINTER(_Dest);
; 427  : 	_FwdIt _Next = _Dest;
; 428  : 
; 429  : 	_TRY_BEGIN
; 430  : 	for (; _First != _Last; ++_Dest, ++_First)

  00004	8b 75 08	 mov	 esi, DWORD PTR __First$[ebp]
  00007	eb 16		 jmp	 SHORT $LN24@Uninit_mov
$LL6@Uninit_mov:

; 431  : 		_Cons_val(_Al, _Dest, (_Valty &&)*_First);

  00009	56		 push	 esi
  0000a	ff 75 10	 push	 DWORD PTR __Dest$[ebp]
  0000d	ff 75 14	 push	 DWORD PTR __Al$[ebp]
  00010	e8 00 00 00 00	 call	 ??$_Cons_val@V?$allocator@UExtraAniJump@@@std@@UExtraAniJump@@U3@@std@@YAXAAV?$allocator@UExtraAniJump@@@0@PAUExtraAniJump@@$$QAU2@@Z ; std::_Cons_val<std::allocator<ExtraAniJump>,ExtraAniJump,ExtraAniJump>
  00015	83 45 10 08	 add	 DWORD PTR __Dest$[ebp], 8
  00019	83 c4 0c	 add	 esp, 12			; 0000000cH
  0001c	83 c6 08	 add	 esi, 8
$LN24@Uninit_mov:

; 425  : 	_DEBUG_RANGE(_First, _Last);
; 426  : 	_DEBUG_POINTER(_Dest);
; 427  : 	_FwdIt _Next = _Dest;
; 428  : 
; 429  : 	_TRY_BEGIN
; 430  : 	for (; _First != _Last; ++_Dest, ++_First)

  0001f	3b 75 0c	 cmp	 esi, DWORD PTR __Last$[ebp]
  00022	75 e5		 jne	 SHORT $LL6@Uninit_mov

; 432  : 	_CATCH_ALL
; 433  : 	for (; _Next != _Dest; ++_Next)
; 434  : 		_Dest_val(_Al, _Next);
; 435  : 	_RERAISE;
; 436  : 	_CATCH_END
; 437  : 	return (_Dest);

  00024	8b 45 10	 mov	 eax, DWORD PTR __Dest$[ebp]
  00027	5e		 pop	 esi

; 438  : 	}

  00028	5d		 pop	 ebp
  00029	c3		 ret	 0
??$_Uninit_move@PAUExtraAniJump@@PAU1@V?$allocator@UExtraAniJump@@@std@@U1@@std@@YAPAUExtraAniJump@@PAU1@00AAV?$allocator@UExtraAniJump@@@0@0U_Nonscalar_ptr_iterator_tag@0@@Z ENDP ; std::_Uninit_move<ExtraAniJump *,ExtraAniJump *,std::allocator<ExtraAniJump>,ExtraAniJump>
_TEXT	ENDS
PUBLIC	??1?$basic_string@DU?$char_traits@D@std@@V?$allocator@D@2@@std@@QAE@XZ ; std::basic_string<char,std::char_traits<char>,std::allocator<char> >::~basic_string<char,std::char_traits<char>,std::allocator<char> >
; Function compile flags: /Ogsp
; File c:\program files (x86)\microsoft visual studio 10.0\vc\include\xstring
;	COMDAT ??1?$basic_string@DU?$char_traits@D@std@@V?$allocator@D@2@@std@@QAE@XZ
_TEXT	SEGMENT
??1?$basic_string@DU?$char_traits@D@std@@V?$allocator@D@2@@std@@QAE@XZ PROC ; std::basic_string<char,std::char_traits<char>,std::allocator<char> >::~basic_string<char,std::char_traits<char>,std::allocator<char> >, COMDAT
; _this$ = ecx

; 754  : 		_Tidy(true);

  00000	6a 00		 push	 0
  00002	6a 01		 push	 1
  00004	e8 00 00 00 00	 call	 ?_Tidy@?$basic_string@DU?$char_traits@D@std@@V?$allocator@D@2@@std@@QAEX_NI@Z ; std::basic_string<char,std::char_traits<char>,std::allocator<char> >::_Tidy

; 755  : 		}

  00009	c3		 ret	 0
??1?$basic_string@DU?$char_traits@D@std@@V?$allocator@D@2@@std@@QAE@XZ ENDP ; std::basic_string<char,std::char_traits<char>,std::allocator<char> >::~basic_string<char,std::char_traits<char>,std::allocator<char> >
_TEXT	ENDS
PUBLIC	?erase@?$vector@KV?$allocator@K@std@@@std@@QAE?AV?$_Vector_iterator@V?$_Vector_val@KV?$allocator@K@std@@@std@@@2@V?$_Vector_const_iterator@V?$_Vector_val@KV?$allocator@K@std@@@std@@@2@0@Z ; std::vector<unsigned long,std::allocator<unsigned long> >::erase
; Function compile flags: /Ogsp
; File c:\program files (x86)\microsoft visual studio 10.0\vc\include\vector
;	COMDAT ?erase@?$vector@KV?$allocator@K@std@@@std@@QAE?AV?$_Vector_iterator@V?$_Vector_val@KV?$allocator@K@std@@@std@@@2@V?$_Vector_const_iterator@V?$_Vector_val@KV?$allocator@K@std@@@std@@@2@0@Z
_TEXT	SEGMENT
___$ReturnUdt$ = 8					; size = 4
__First_arg$ = 12					; size = 4
__Cat$541127 = 16					; size = 1
__Last_arg$ = 16					; size = 4
?erase@?$vector@KV?$allocator@K@std@@@std@@QAE?AV?$_Vector_iterator@V?$_Vector_val@KV?$allocator@K@std@@@std@@@2@V?$_Vector_const_iterator@V?$_Vector_val@KV?$allocator@K@std@@@std@@@2@0@Z PROC ; std::vector<unsigned long,std::allocator<unsigned long> >::erase, COMDAT
; _this$ = ecx

; 1190 : 		{	// erase [_First, _Last)

  00000	55		 push	 ebp
  00001	8b ec		 mov	 ebp, esp

; 1191 : 		iterator _First = _Make_iter(_First_arg);

  00003	8b 45 0c	 mov	 eax, DWORD PTR __First_arg$[ebp]
  00006	56		 push	 esi
  00007	57		 push	 edi
  00008	8b 7d 08	 mov	 edi, DWORD PTR ___$ReturnUdt$[ebp]
  0000b	8b f1		 mov	 esi, ecx
  0000d	89 07		 mov	 DWORD PTR [edi], eax

; 1192 : 		iterator _Last = _Make_iter(_Last_arg);
; 1193 : 
; 1194 : 		if (_First != _Last)

  0000f	3b 45 10	 cmp	 eax, DWORD PTR __Last_arg$[ebp]
  00012	74 16		 je	 SHORT $LN1@erase@2

; 1195 : 			{	// worth doing, copy down over hole
; 1196 :  #if _ITERATOR_DEBUG_LEVEL == 2
; 1197 : 			if (_Last < _First || _VICONT(_First) != this
; 1198 : 				|| _VIPTR(_First) < this->_Myfirst
; 1199 : 				|| this->_Mylast < _VIPTR(_Last))
; 1200 : 				_DEBUG_ERROR("vector erase iterator outside range");
; 1201 : 			pointer _Ptr = _Move(_VIPTR(_Last), this->_Mylast,
; 1202 : 				_VIPTR(_First));
; 1203 : 			_Orphan_range(_VIPTR(_First), this->_Mylast);
; 1204 : 
; 1205 :  #else /* _ITERATOR_DEBUG_LEVEL == 2 */
; 1206 : 			pointer _Ptr = _Move(_VIPTR(_Last), this->_Mylast,
; 1207 : 				_VIPTR(_First));

  00014	ff 75 10	 push	 DWORD PTR __Cat$541127[ebp]
  00017	8b 4e 04	 mov	 ecx, DWORD PTR [esi+4]
  0001a	50		 push	 eax
  0001b	51		 push	 ecx
  0001c	ff 75 10	 push	 DWORD PTR __Last_arg$[ebp]
  0001f	e8 00 00 00 00	 call	 ??$_Move@PAKPAK@std@@YAPAKPAK00U_Scalar_ptr_iterator_tag@0@@Z ; std::_Move<unsigned long *,unsigned long *>
  00024	83 c4 10	 add	 esp, 16			; 00000010H

; 1208 :  #endif /* _ITERATOR_DEBUG_LEVEL == 2 */
; 1209 : 
; 1210 : 			_Destroy(_Ptr, this->_Mylast);
; 1211 : 			this->_Mylast = _Ptr;

  00027	89 46 04	 mov	 DWORD PTR [esi+4], eax
$LN1@erase@2:

; 1212 : 			}
; 1213 : 		return (_First);

  0002a	8b c7		 mov	 eax, edi
  0002c	5f		 pop	 edi
  0002d	5e		 pop	 esi

; 1214 : 		}

  0002e	5d		 pop	 ebp
  0002f	c2 0c 00	 ret	 12			; 0000000cH
?erase@?$vector@KV?$allocator@K@std@@@std@@QAE?AV?$_Vector_iterator@V?$_Vector_val@KV?$allocator@K@std@@@std@@@2@V?$_Vector_const_iterator@V?$_Vector_val@KV?$allocator@K@std@@@std@@@2@0@Z ENDP ; std::vector<unsigned long,std::allocator<unsigned long> >::erase
_TEXT	ENDS
PUBLIC	?_Tidy@?$vector@KV?$allocator@K@std@@@std@@IAEXXZ ; std::vector<unsigned long,std::allocator<unsigned long> >::_Tidy
; Function compile flags: /Ogsp
;	COMDAT ?_Tidy@?$vector@KV?$allocator@K@std@@@std@@IAEXXZ
_TEXT	SEGMENT
?_Tidy@?$vector@KV?$allocator@K@std@@@std@@IAEXXZ PROC	; std::vector<unsigned long,std::allocator<unsigned long> >::_Tidy, COMDAT
; _this$ = ecx

; 1301 : 		{	// free all storage

  00000	56		 push	 esi
  00001	8b f1		 mov	 esi, ecx

; 1302 : 		if (this->_Myfirst != 0)

  00003	83 3e 00	 cmp	 DWORD PTR [esi], 0
  00006	74 0e		 je	 SHORT $LN12@Tidy@3

; 1303 : 			{	// something to free, destroy and deallocate it
; 1304 : 			this->_Orphan_all();

  00008	ff 15 00 00 00
	00		 call	 DWORD PTR __imp_?_Orphan_all@_Container_base0@std@@QAEXXZ

; 1305 : 			_Destroy(this->_Myfirst, this->_Mylast);
; 1306 : 			this->_Alval.deallocate(this->_Myfirst,
; 1307 : 				this->_Myend - this->_Myfirst);

  0000e	ff 36		 push	 DWORD PTR [esi]
  00010	e8 00 00 00 00	 call	 ??3@YAXPAX@Z		; operator delete
  00015	59		 pop	 ecx
$LN12@Tidy@3:

; 1308 : 			}
; 1309 : 		this->_Myfirst = 0;

  00016	83 26 00	 and	 DWORD PTR [esi], 0

; 1310 : 		this->_Mylast = 0;

  00019	83 66 04 00	 and	 DWORD PTR [esi+4], 0

; 1311 : 		this->_Myend = 0;

  0001d	83 66 08 00	 and	 DWORD PTR [esi+8], 0
  00021	5e		 pop	 esi

; 1312 : 		}

  00022	c3		 ret	 0
?_Tidy@?$vector@KV?$allocator@K@std@@@std@@IAEXXZ ENDP	; std::vector<unsigned long,std::allocator<unsigned long> >::_Tidy
_TEXT	ENDS
PUBLIC	?_Grow@?$basic_string@DU?$char_traits@D@std@@V?$allocator@D@2@@std@@QAE_NI_N@Z ; std::basic_string<char,std::char_traits<char>,std::allocator<char> >::_Grow
; Function compile flags: /Ogsp
; File c:\program files (x86)\microsoft visual studio 10.0\vc\include\xstring
;	COMDAT ?_Grow@?$basic_string@DU?$char_traits@D@std@@V?$allocator@D@2@@std@@QAE_NI_N@Z
_TEXT	SEGMENT
__Newsize$ = 8						; size = 4
__Trim$ = 12						; size = 1
?_Grow@?$basic_string@DU?$char_traits@D@std@@V?$allocator@D@2@@std@@QAE_NI_N@Z PROC ; std::basic_string<char,std::char_traits<char>,std::allocator<char> >::_Grow, COMDAT
; _this$ = ecx

; 1959 : 		{	// ensure buffer is big enough, trim to size if _Trim is true

  00000	55		 push	 ebp
  00001	8b ec		 mov	 ebp, esp
  00003	56		 push	 esi

; 1960 : 		if (max_size() < _Newsize)

  00004	8b 75 08	 mov	 esi, DWORD PTR __Newsize$[ebp]
  00007	83 fe fe	 cmp	 esi, -2			; fffffffeH
  0000a	76 0b		 jbe	 SHORT $LN6@Grow

; 1961 : 			_Xlen();	// result too long

  0000c	68 00 00 00 00	 push	 OFFSET ??_C@_0BA@JFNIOLAK@string?5too?5long?$AA@
  00011	ff 15 00 00 00
	00		 call	 DWORD PTR __imp_?_Xlength_error@std@@YAXPBD@Z
$LN31@Grow:
$LN6@Grow:

; 1962 : 		if (this->_Myres < _Newsize)

  00017	8b 41 14	 mov	 eax, DWORD PTR [ecx+20]
  0001a	3b c6		 cmp	 eax, esi
  0001c	73 0b		 jae	 SHORT $LN5@Grow

; 1963 : 			_Copy(_Newsize, this->_Mysize);	// reallocate to grow

  0001e	ff 71 10	 push	 DWORD PTR [ecx+16]
  00021	56		 push	 esi
  00022	e8 00 00 00 00	 call	 ?_Copy@?$basic_string@DU?$char_traits@D@std@@V?$allocator@D@2@@std@@QAEXII@Z ; std::basic_string<char,std::char_traits<char>,std::allocator<char> >::_Copy
  00027	eb 2e		 jmp	 SHORT $LN28@Grow
$LN5@Grow:

; 1964 : 		else if (_Trim && _Newsize < this->_BUF_SIZE)

  00029	33 d2		 xor	 edx, edx
  0002b	38 55 0c	 cmp	 BYTE PTR __Trim$[ebp], dl
  0002e	74 17		 je	 SHORT $LN3@Grow
  00030	83 fe 10	 cmp	 esi, 16			; 00000010H
  00033	73 12		 jae	 SHORT $LN3@Grow

; 1965 : 			_Tidy(true,	// copy and deallocate if trimming to small string
; 1966 : 				_Newsize < this->_Mysize ? _Newsize : this->_Mysize);

  00035	8b 41 10	 mov	 eax, DWORD PTR [ecx+16]
  00038	3b f0		 cmp	 esi, eax
  0003a	0f 42 c6	 cmovb	 eax, esi
  0003d	50		 push	 eax
  0003e	6a 01		 push	 1
  00040	e8 00 00 00 00	 call	 ?_Tidy@?$basic_string@DU?$char_traits@D@std@@V?$allocator@D@2@@std@@QAEX_NI@Z ; std::basic_string<char,std::char_traits<char>,std::allocator<char> >::_Tidy
  00045	eb 10		 jmp	 SHORT $LN28@Grow
$LN3@Grow:

; 1967 : 		else if (_Newsize == 0)

  00047	3b f2		 cmp	 esi, edx
  00049	75 0c		 jne	 SHORT $LN28@Grow

; 1968 : 			_Eos(0);	// new size is zero, just null terminate

  0004b	89 51 10	 mov	 DWORD PTR [ecx+16], edx
  0004e	83 f8 10	 cmp	 eax, 16			; 00000010H
  00051	72 02		 jb	 SHORT $LN26@Grow
  00053	8b 09		 mov	 ecx, DWORD PTR [ecx]
$LN26@Grow:
  00055	88 11		 mov	 BYTE PTR [ecx], dl
$LN28@Grow:

; 1969 : 		return (0 < _Newsize);	// return true only if more work to do

  00057	33 c0		 xor	 eax, eax
  00059	3b c6		 cmp	 eax, esi
  0005b	1b c0		 sbb	 eax, eax
  0005d	f7 d8		 neg	 eax
  0005f	5e		 pop	 esi

; 1970 : 		}

  00060	5d		 pop	 ebp
  00061	c2 08 00	 ret	 8
$LN30@Grow:
?_Grow@?$basic_string@DU?$char_traits@D@std@@V?$allocator@D@2@@std@@QAE_NI_N@Z ENDP ; std::basic_string<char,std::char_traits<char>,std::allocator<char> >::_Grow
_TEXT	ENDS
PUBLIC	?reserve@?$vector@KV?$allocator@K@std@@@std@@QAEXI@Z ; std::vector<unsigned long,std::allocator<unsigned long> >::reserve
; Function compile flags: /Ogsp
; File c:\program files (x86)\microsoft visual studio 10.0\vc\include\vector
;	COMDAT ?reserve@?$vector@KV?$allocator@K@std@@@std@@QAEXI@Z
_TEXT	SEGMENT
__Count$ = 8						; size = 4
?reserve@?$vector@KV?$allocator@K@std@@@std@@QAEXI@Z PROC ; std::vector<unsigned long,std::allocator<unsigned long> >::reserve, COMDAT
; _this$ = ecx

; 746  : 		{	// determine new minimum length of allocated storage

  00000	55		 push	 ebp
  00001	8b ec		 mov	 ebp, esp

; 747  : 		if (max_size() < _Count)

  00003	81 7d 08 ff ff
	ff 3f		 cmp	 DWORD PTR __Count$[ebp], 1073741823 ; 3fffffffH
  0000a	56		 push	 esi
  0000b	8b f1		 mov	 esi, ecx
  0000d	76 0b		 jbe	 SHORT $LN5@reserve

; 748  : 			_Xlen();	// result too long

  0000f	68 00 00 00 00	 push	 OFFSET ??_C@_0BD@OLBABOEK@vector?$DMT?$DO?5too?5long?$AA@
  00014	ff 15 00 00 00
	00		 call	 DWORD PTR __imp_?_Xlength_error@std@@YAXPBD@Z
$LN43@reserve:
$LN5@reserve:

; 749  : 		else if (capacity() < _Count)

  0001a	8b 46 08	 mov	 eax, DWORD PTR [esi+8]
  0001d	2b 06		 sub	 eax, DWORD PTR [esi]
  0001f	c1 f8 02	 sar	 eax, 2
  00022	3b 45 08	 cmp	 eax, DWORD PTR __Count$[ebp]
  00025	73 52		 jae	 SHORT $LN3@reserve

; 750  : 			{	// not enough room, reallocate
; 751  : 			pointer _Ptr = this->_Alval.allocate(_Count);

  00027	53		 push	 ebx
  00028	57		 push	 edi
  00029	6a 00		 push	 0
  0002b	ff 75 08	 push	 DWORD PTR __Count$[ebp]
  0002e	e8 00 00 00 00	 call	 ??$_Allocate@K@std@@YAPAKIPAK@Z ; std::_Allocate<unsigned long>

; 752  : 
; 753  : 			_TRY_BEGIN
; 754  : 			_Umove(this->_Myfirst, this->_Mylast, _Ptr);

  00033	8b 0e		 mov	 ecx, DWORD PTR [esi]
  00035	8d 56 0c	 lea	 edx, DWORD PTR [esi+12]
  00038	52		 push	 edx
  00039	8b d8		 mov	 ebx, eax
  0003b	8b 46 04	 mov	 eax, DWORD PTR [esi+4]
  0003e	53		 push	 ebx
  0003f	50		 push	 eax
  00040	51		 push	 ecx
  00041	e8 00 00 00 00	 call	 ??$_Uninitialized_move@PAKPAKV?$allocator@K@std@@@std@@YAPAKPAK00AAV?$allocator@K@0@@Z ; std::_Uninitialized_move<unsigned long *,unsigned long *,std::allocator<unsigned long> >

; 755  : 			_CATCH_ALL
; 756  : 			this->_Alval.deallocate(_Ptr, _Count);
; 757  : 			_RERAISE;
; 758  : 			_CATCH_END
; 759  : 
; 760  : 			size_type _Size = size();

  00046	8b 06		 mov	 eax, DWORD PTR [esi]
  00048	8b 7e 04	 mov	 edi, DWORD PTR [esi+4]
  0004b	2b f8		 sub	 edi, eax
  0004d	83 c4 18	 add	 esp, 24			; 00000018H
  00050	c1 ff 02	 sar	 edi, 2

; 761  : 			if (this->_Myfirst != 0)

  00053	85 c0		 test	 eax, eax
  00055	74 07		 je	 SHORT $LN39@reserve

; 762  : 				{	// destroy and deallocate old array
; 763  : 				_Destroy(this->_Myfirst, this->_Mylast);
; 764  : 				this->_Alval.deallocate(this->_Myfirst,
; 765  : 					this->_Myend - this->_Myfirst);

  00057	50		 push	 eax
  00058	e8 00 00 00 00	 call	 ??3@YAXPAX@Z		; operator delete
  0005d	59		 pop	 ecx
$LN39@reserve:

; 766  : 				}
; 767  : 
; 768  : 			this->_Orphan_all();

  0005e	8b ce		 mov	 ecx, esi
  00060	ff 15 00 00 00
	00		 call	 DWORD PTR __imp_?_Orphan_all@_Container_base0@std@@QAEXXZ

; 769  : 			this->_Myend = _Ptr + _Count;

  00066	8b 45 08	 mov	 eax, DWORD PTR __Count$[ebp]
  00069	8d 04 83	 lea	 eax, DWORD PTR [ebx+eax*4]
  0006c	89 46 08	 mov	 DWORD PTR [esi+8], eax

; 770  : 			this->_Mylast = _Ptr + _Size;

  0006f	8d 04 bb	 lea	 eax, DWORD PTR [ebx+edi*4]
  00072	5f		 pop	 edi

; 771  : 			this->_Myfirst = _Ptr;

  00073	89 1e		 mov	 DWORD PTR [esi], ebx
  00075	89 46 04	 mov	 DWORD PTR [esi+4], eax
  00078	5b		 pop	 ebx
$LN3@reserve:
  00079	5e		 pop	 esi

; 772  : 			}
; 773  : 		}

  0007a	5d		 pop	 ebp
  0007b	c2 04 00	 ret	 4
$LN42@reserve:
?reserve@?$vector@KV?$allocator@K@std@@@std@@QAEXI@Z ENDP ; std::vector<unsigned long,std::allocator<unsigned long> >::reserve
_TEXT	ENDS
PUBLIC	?ProcessSensingState@ioTargetTrace16Dummy@@AAEXPAVioBaseChar@@@Z ; ioTargetTrace16Dummy::ProcessSensingState
EXTRN	?GetBaseChar@ioPlayStage@@QAEPAVioBaseChar@@ABVioHashString@@@Z:PROC ; ioPlayStage::GetBaseChar
EXTRN	__imp_?Clear@ioHashString@@QAEXXZ:PROC
;	COMDAT xdata$x
; File d:\lost saga for developer\youtube\tutorial\source\src\lsclient\encryptvalue.h
xdata$x	SEGMENT
__unwindtable$?ProcessSensingState@ioTargetTrace16Dummy@@AAEXPAVioBaseChar@@@Z DD 0ffffffffH
	DD	FLAT:__unwindfunclet$?ProcessSensingState@ioTargetTrace16Dummy@@AAEXPAVioBaseChar@@@Z$0
	DD	00H
	DD	FLAT:__unwindfunclet$?ProcessSensingState@ioTargetTrace16Dummy@@AAEXPAVioBaseChar@@@Z$1
__ehfuncinfo$?ProcessSensingState@ioTargetTrace16Dummy@@AAEXPAVioBaseChar@@@Z DD 019930522H
	DD	02H
	DD	FLAT:__unwindtable$?ProcessSensingState@ioTargetTrace16Dummy@@AAEXPAVioBaseChar@@@Z
	DD	2 DUP(00H)
	DD	2 DUP(00H)
	DD	00H
	DD	01H
; Function compile flags: /Ogsp
; File d:\lost saga for developer\youtube\tutorial\source\src\lsclient\iotargettrace16dummy.cpp
xdata$x	ENDS
;	COMDAT ?ProcessSensingState@ioTargetTrace16Dummy@@AAEXPAVioBaseChar@@@Z
_TEXT	SEGMENT
$T541331 = -52						; size = 16
_szTarget$ = -36					; size = 16
_pStage$ = -20						; size = 4
_this$ = -16						; size = 4
__$EHRec$ = -12						; size = 12
_value$541346 = 8					; size = 4
_pOwner$ = 8						; size = 4
?ProcessSensingState@ioTargetTrace16Dummy@@AAEXPAVioBaseChar@@@Z PROC ; ioTargetTrace16Dummy::ProcessSensingState, COMDAT
; _this$ = ecx

; 188  : {

  00000	6a 28		 push	 40			; 00000028H
  00002	b8 00 00 00 00	 mov	 eax, __ehhandler$?ProcessSensingState@ioTargetTrace16Dummy@@AAEXPAVioBaseChar@@@Z
  00007	e8 00 00 00 00	 call	 __EH_prolog3
  0000c	8b f9		 mov	 edi, ecx
  0000e	89 7d f0	 mov	 DWORD PTR _this$[ebp], edi

; 189  : 	if( !pOwner ) 

  00011	8b 5d 08	 mov	 ebx, DWORD PTR _pOwner$[ebp]
  00014	85 db		 test	 ebx, ebx
  00016	0f 84 c9 00 00
	00		 je	 $LN7@ProcessSen

; 190  : 		return;
; 191  : 
; 192  : 	ioPlayStage *pStage = pOwner->GetCreator();

  0001c	8b b3 44 03 00
	00		 mov	 esi, DWORD PTR [ebx+836]
  00022	89 75 ec	 mov	 DWORD PTR _pStage$[ebp], esi

; 193  : 	if( !pStage ) 

  00025	85 f6		 test	 esi, esi
  00027	0f 84 b8 00 00
	00		 je	 $LN7@ProcessSen

; 194  : 		return;
; 195  : 
; 196  : 	if( pOwner->GetExperienceMode() == EMS_EXPERIENCE )

  0002d	8d 45 08	 lea	 eax, DWORD PTR _value$541346[ebp]
  00030	8d 8b 94 1d 00
	00		 lea	 ecx, DWORD PTR [ebx+7572]
  00036	50		 push	 eax
  00037	e8 00 00 00 00	 call	 ?DecryptValueToPool@?$CEncrypt@K@@QAEXPAK@Z ; CEncrypt<unsigned long>::DecryptValueToPool
  0003c	83 7d 08 02	 cmp	 DWORD PTR _value$541346[ebp], 2
  00040	0f 84 9f 00 00
	00		 je	 $LN7@ProcessSen

; 197  : 		return;
; 198  : 
; 199  : 	if( !m_TargetTraceName.IsEmpty() )

  00046	8d 8f d8 0a 00
	00		 lea	 ecx, DWORD PTR [edi+2776]
  0004c	ff 15 00 00 00
	00		 call	 DWORD PTR __imp_?IsEmpty@ioHashString@@QBE_NXZ
  00052	84 c0		 test	 al, al
  00054	75 0c		 jne	 SHORT $LN3@ProcessSen

; 200  : 		m_TargetTraceName.Clear();

  00056	8d 8f d8 0a 00
	00		 lea	 ecx, DWORD PTR [edi+2776]
  0005c	ff 15 00 00 00
	00		 call	 DWORD PTR __imp_?Clear@ioHashString@@QAEXXZ
$LN3@ProcessSen:

; 201  : 
; 202  : 	ioHashString szTarget;

  00062	8d 4d dc	 lea	 ecx, DWORD PTR _szTarget$[ebp]
  00065	ff 15 00 00 00
	00		 call	 DWORD PTR __imp_??0ioHashString@@QAE@XZ

; 203  : 	szTarget = GetSearchTarget( pStage, false );

  0006b	8b 4d f0	 mov	 ecx, DWORD PTR _this$[ebp]
  0006e	83 65 fc 00	 and	 DWORD PTR __$EHRec$[ebp+8], 0
  00072	6a 00		 push	 0
  00074	56		 push	 esi
  00075	8d 45 cc	 lea	 eax, DWORD PTR $T541331[ebp]
  00078	50		 push	 eax
  00079	e8 00 00 00 00	 call	 ?GetSearchTarget@ioTargetTrace16Dummy@@AAE?AVioHashString@@PAVioPlayStage@@_N@Z ; ioTargetTrace16Dummy::GetSearchTarget
  0007e	8b 35 00 00 00
	00		 mov	 esi, DWORD PTR __imp_??4ioHashString@@QAEAAV0@ABV0@@Z
  00084	50		 push	 eax
  00085	8d 4d dc	 lea	 ecx, DWORD PTR _szTarget$[ebp]
  00088	c6 45 fc 01	 mov	 BYTE PTR __$EHRec$[ebp+8], 1
  0008c	ff d6		 call	 esi
  0008e	8b 3d 00 00 00
	00		 mov	 edi, DWORD PTR __imp_??1ioHashString@@QAE@XZ
  00094	8d 4d cc	 lea	 ecx, DWORD PTR $T541331[ebp]
  00097	c6 45 fc 00	 mov	 BYTE PTR __$EHRec$[ebp+8], 0
  0009b	ff d7		 call	 edi

; 204  : 
; 205  : 	if( !szTarget.IsEmpty() )

  0009d	8d 4d dc	 lea	 ecx, DWORD PTR _szTarget$[ebp]
  000a0	ff 15 00 00 00
	00		 call	 DWORD PTR __imp_?IsEmpty@ioHashString@@QBE_NXZ
  000a6	84 c0		 test	 al, al
  000a8	75 32		 jne	 SHORT $LN1@ProcessSen

; 206  : 	{
; 207  : 		ioBaseChar *pTarget = pStage->GetBaseChar( szTarget );

  000aa	8b 4d ec	 mov	 ecx, DWORD PTR _pStage$[ebp]
  000ad	8d 45 dc	 lea	 eax, DWORD PTR _szTarget$[ebp]
  000b0	50		 push	 eax
  000b1	e8 00 00 00 00	 call	 ?GetBaseChar@ioPlayStage@@QAEPAVioBaseChar@@ABVioHashString@@@Z ; ioPlayStage::GetBaseChar

; 208  : 		if( pOwner->IsNeedProcess() )

  000b6	8b 03		 mov	 eax, DWORD PTR [ebx]
  000b8	8b cb		 mov	 ecx, ebx
  000ba	ff 90 00 01 00
	00		 call	 DWORD PTR [eax+256]
  000c0	84 c0		 test	 al, al
  000c2	74 18		 je	 SHORT $LN1@ProcessSen

; 209  : 		{
; 210  : 			m_TargetTraceName = szTarget;

  000c4	8b 4d f0	 mov	 ecx, DWORD PTR _this$[ebp]
  000c7	8d 45 dc	 lea	 eax, DWORD PTR _szTarget$[ebp]
  000ca	50		 push	 eax
  000cb	81 c1 d8 0a 00
	00		 add	 ecx, 2776		; 00000ad8H
  000d1	ff d6		 call	 esi

; 211  : 			SetTracingState( pOwner );

  000d3	8b 4d f0	 mov	 ecx, DWORD PTR _this$[ebp]
  000d6	53		 push	 ebx
  000d7	e8 00 00 00 00	 call	 ?SetTracingState@ioTargetTrace16Dummy@@AAEXPAVioBaseChar@@@Z ; ioTargetTrace16Dummy::SetTracingState
$LN1@ProcessSen:

; 212  : 		}
; 213  : 	}
; 214  : }

  000dc	83 4d fc ff	 or	 DWORD PTR __$EHRec$[ebp+8], -1
  000e0	8d 4d dc	 lea	 ecx, DWORD PTR _szTarget$[ebp]
  000e3	ff d7		 call	 edi
$LN7@ProcessSen:
  000e5	e8 00 00 00 00	 call	 __EH_epilog3
  000ea	c2 04 00	 ret	 4
_TEXT	ENDS
;	COMDAT text$x
text$x	SEGMENT
__unwindfunclet$?ProcessSensingState@ioTargetTrace16Dummy@@AAEXPAVioBaseChar@@@Z$0:
  00000	8d 4d dc	 lea	 ecx, DWORD PTR _szTarget$[ebp]
  00003	ff 25 00 00 00
	00		 jmp	 DWORD PTR __imp_??1ioHashString@@QAE@XZ
__unwindfunclet$?ProcessSensingState@ioTargetTrace16Dummy@@AAEXPAVioBaseChar@@@Z$1:
  00009	8d 4d cc	 lea	 ecx, DWORD PTR $T541331[ebp]
  0000c	ff 25 00 00 00
	00		 jmp	 DWORD PTR __imp_??1ioHashString@@QAE@XZ
__ehhandler$?ProcessSensingState@ioTargetTrace16Dummy@@AAEXPAVioBaseChar@@@Z:
  00012	8b 54 24 08	 mov	 edx, DWORD PTR [esp+8]
  00016	8d 42 0c	 lea	 eax, DWORD PTR [edx+12]
  00019	8b 4a c8	 mov	 ecx, DWORD PTR [edx-56]
  0001c	33 c8		 xor	 ecx, eax
  0001e	e8 00 00 00 00	 call	 @__security_check_cookie@4
  00023	b8 00 00 00 00	 mov	 eax, OFFSET __ehfuncinfo$?ProcessSensingState@ioTargetTrace16Dummy@@AAEXPAVioBaseChar@@@Z
  00028	e9 00 00 00 00	 jmp	 ___CxxFrameHandler3
text$x	ENDS
?ProcessSensingState@ioTargetTrace16Dummy@@AAEXPAVioBaseChar@@@Z ENDP ; ioTargetTrace16Dummy::ProcessSensingState
PUBLIC	?find@?$_Tree@V?$_Tmap_traits@HUtagDummyAttackInfo@@U?$less@H@std@@V?$allocator@U?$pair@$$CBHUtagDummyAttackInfo@@@std@@@3@$0A@@std@@@std@@QAE?AV?$_Tree_iterator@V?$_Tree_val@V?$_Tmap_traits@HUtagDummyAttackInfo@@U?$less@H@std@@V?$allocator@U?$pair@$$CBHUtagDummyAttackInfo@@@std@@@3@$0A@@std@@@std@@@2@ABH@Z ; std::_Tree<std::_Tmap_traits<int,tagDummyAttackInfo,std::less<int>,std::allocator<std::pair<int const ,tagDummyAttackInfo> >,0> >::find
; Function compile flags: /Ogsp
; File c:\program files (x86)\microsoft visual studio 10.0\vc\include\xtree
;	COMDAT ?find@?$_Tree@V?$_Tmap_traits@HUtagDummyAttackInfo@@U?$less@H@std@@V?$allocator@U?$pair@$$CBHUtagDummyAttackInfo@@@std@@@3@$0A@@std@@@std@@QAE?AV?$_Tree_iterator@V?$_Tree_val@V?$_Tmap_traits@HUtagDummyAttackInfo@@U?$less@H@std@@V?$allocator@U?$pair@$$CBHUtagDummyAttackInfo@@@std@@@3@$0A@@std@@@std@@@2@ABH@Z
_TEXT	SEGMENT
$T541360 = -4						; size = 4
___$ReturnUdt$ = 8					; size = 4
__Where$ = 12						; size = 4
__Keyval$ = 12						; size = 4
?find@?$_Tree@V?$_Tmap_traits@HUtagDummyAttackInfo@@U?$less@H@std@@V?$allocator@U?$pair@$$CBHUtagDummyAttackInfo@@@std@@@3@$0A@@std@@@std@@QAE?AV?$_Tree_iterator@V?$_Tree_val@V?$_Tmap_traits@HUtagDummyAttackInfo@@U?$less@H@std@@V?$allocator@U?$pair@$$CBHUtagDummyAttackInfo@@@std@@@3@$0A@@std@@@std@@@2@ABH@Z PROC ; std::_Tree<std::_Tmap_traits<int,tagDummyAttackInfo,std::less<int>,std::allocator<std::pair<int const ,tagDummyAttackInfo> >,0> >::find, COMDAT
; _this$ = ecx

; 1423 : 		{	// find an element in mutable sequence that matches _Keyval

  00000	55		 push	 ebp
  00001	8b ec		 mov	 ebp, esp
  00003	51		 push	 ecx
  00004	56		 push	 esi
  00005	57		 push	 edi

; 1424 : 		iterator _Where = lower_bound(_Keyval);

  00006	8b 7d 0c	 mov	 edi, DWORD PTR __Keyval$[ebp]
  00009	57		 push	 edi
  0000a	8b f1		 mov	 esi, ecx
  0000c	e8 00 00 00 00	 call	 ?_Lbound@?$_Tree@V?$_Tmap_traits@HUtagDummyAttackInfo@@U?$less@H@std@@V?$allocator@U?$pair@$$CBHUtagDummyAttackInfo@@@std@@@3@$0A@@std@@@std@@IAEPAU_Node@?$_Tree_nod@V?$_Tmap_traits@HUtagDummyAttackInfo@@U?$less@H@std@@V?$allocator@U?$pair@$$CBHUtagDummyAttackInfo@@@std@@@3@$0A@@std@@@2@ABH@Z ; std::_Tree<std::_Tmap_traits<int,tagDummyAttackInfo,std::less<int>,std::allocator<std::pair<int const ,tagDummyAttackInfo> >,0> >::_Lbound

; 1425 : 		return (_Where == end()
; 1426 : 			|| _DEBUG_LT_PRED(this->comp,
; 1427 : 				_Keyval, this->_Key(_Where._Mynode()))
; 1428 : 					? end() : _Where);

  00011	8b 76 04	 mov	 esi, DWORD PTR [esi+4]
  00014	89 45 0c	 mov	 DWORD PTR __Where$[ebp], eax
  00017	3b c6		 cmp	 eax, esi
  00019	74 0c		 je	 SHORT $LN3@find
  0001b	8b 0f		 mov	 ecx, DWORD PTR [edi]
  0001d	3b 48 0c	 cmp	 ecx, DWORD PTR [eax+12]
  00020	7c 05		 jl	 SHORT $LN3@find
  00022	8d 45 0c	 lea	 eax, DWORD PTR __Where$[ebp]
  00025	eb 06		 jmp	 SHORT $LN4@find
$LN3@find:
  00027	89 75 fc	 mov	 DWORD PTR $T541360[ebp], esi
  0002a	8d 45 fc	 lea	 eax, DWORD PTR $T541360[ebp]
$LN4@find:
  0002d	8b 08		 mov	 ecx, DWORD PTR [eax]
  0002f	8b 45 08	 mov	 eax, DWORD PTR ___$ReturnUdt$[ebp]
  00032	5f		 pop	 edi
  00033	89 08		 mov	 DWORD PTR [eax], ecx
  00035	5e		 pop	 esi

; 1429 : 		}

  00036	c9		 leave
  00037	c2 08 00	 ret	 8
?find@?$_Tree@V?$_Tmap_traits@HUtagDummyAttackInfo@@U?$less@H@std@@V?$allocator@U?$pair@$$CBHUtagDummyAttackInfo@@@std@@@3@$0A@@std@@@std@@QAE?AV?$_Tree_iterator@V?$_Tree_val@V?$_Tmap_traits@HUtagDummyAttackInfo@@U?$less@H@std@@V?$allocator@U?$pair@$$CBHUtagDummyAttackInfo@@@std@@@3@$0A@@std@@@std@@@2@ABH@Z ENDP ; std::_Tree<std::_Tmap_traits<int,tagDummyAttackInfo,std::less<int>,std::allocator<std::pair<int const ,tagDummyAttackInfo> >,0> >::find
_TEXT	ENDS
PUBLIC	??1?$vector@PBUAniEventTime@@V?$allocator@PBUAniEventTime@@@std@@@std@@QAE@XZ ; std::vector<AniEventTime const *,std::allocator<AniEventTime const *> >::~vector<AniEventTime const *,std::allocator<AniEventTime const *> >
; Function compile flags: /Ogsp
; File c:\program files (x86)\microsoft visual studio 10.0\vc\include\vector
;	COMDAT ??1?$vector@PBUAniEventTime@@V?$allocator@PBUAniEventTime@@@std@@@std@@QAE@XZ
_TEXT	SEGMENT
??1?$vector@PBUAniEventTime@@V?$allocator@PBUAniEventTime@@@std@@@std@@QAE@XZ PROC ; std::vector<AniEventTime const *,std::allocator<AniEventTime const *> >::~vector<AniEventTime const *,std::allocator<AniEventTime const *> >, COMDAT
; _this$ = ecx

; 705  : 		_Tidy();

  00000	e9 00 00 00 00	 jmp	 ?_Tidy@?$vector@PBUAniEventTime@@V?$allocator@PBUAniEventTime@@@std@@@std@@IAEXXZ ; std::vector<AniEventTime const *,std::allocator<AniEventTime const *> >::_Tidy
??1?$vector@PBUAniEventTime@@V?$allocator@PBUAniEventTime@@@std@@@std@@QAE@XZ ENDP ; std::vector<AniEventTime const *,std::allocator<AniEventTime const *> >::~vector<AniEventTime const *,std::allocator<AniEventTime const *> >
_TEXT	ENDS
PUBLIC	?_Tidy@?$list@MV?$allocator@M@std@@@std@@QAEXXZ	; std::list<float,std::allocator<float> >::_Tidy
; Function compile flags: /Ogsp
; File c:\program files (x86)\microsoft visual studio 10.0\vc\include\list
;	COMDAT ?_Tidy@?$list@MV?$allocator@M@std@@@std@@QAEXXZ
_TEXT	SEGMENT
?_Tidy@?$list@MV?$allocator@M@std@@@std@@QAEXXZ PROC	; std::list<float,std::allocator<float> >::_Tidy, COMDAT
; _this$ = ecx

; 1497 : 		clear();

  00000	e9 00 00 00 00	 jmp	 ?clear@?$list@MV?$allocator@M@std@@@std@@QAEXXZ ; std::list<float,std::allocator<float> >::clear
?_Tidy@?$list@MV?$allocator@M@std@@@std@@QAEXXZ ENDP	; std::list<float,std::allocator<float> >::_Tidy
_TEXT	ENDS
PUBLIC	?_Buynode@?$_List_val@UFireTime@@V?$allocator@UFireTime@@@std@@@std@@QAEPAU_Node@?$_List_nod@UFireTime@@V?$allocator@UFireTime@@@std@@@2@PAU342@0ABUFireTime@@@Z ; std::_List_val<FireTime,std::allocator<FireTime> >::_Buynode
;	COMDAT xdata$x
; File c:\program files (x86)\microsoft visual studio 10.0\vc\include\xmemory
xdata$x	SEGMENT
__catchsym$?_Buynode@?$_List_val@UFireTime@@V?$allocator@UFireTime@@@std@@@std@@QAEPAU_Node@?$_List_nod@UFireTime@@V?$allocator@UFireTime@@@std@@@2@PAU342@0ABUFireTime@@@Z$2 DD 040H
	DD	00H
	DD	00H
	DD	FLAT:__catch$?_Buynode@?$_List_val@UFireTime@@V?$allocator@UFireTime@@@std@@@std@@QAEPAU_Node@?$_List_nod@UFireTime@@V?$allocator@UFireTime@@@std@@@2@PAU342@0ABUFireTime@@@Z$0
__unwindtable$?_Buynode@?$_List_val@UFireTime@@V?$allocator@UFireTime@@@std@@@std@@QAEPAU_Node@?$_List_nod@UFireTime@@V?$allocator@UFireTime@@@std@@@2@PAU342@0ABUFireTime@@@Z DD 0ffffffffH
	DD	00H
	DD	0ffffffffH
	DD	00H
__tryblocktable$?_Buynode@?$_List_val@UFireTime@@V?$allocator@UFireTime@@@std@@@std@@QAEPAU_Node@?$_List_nod@UFireTime@@V?$allocator@UFireTime@@@std@@@2@PAU342@0ABUFireTime@@@Z DD 00H
	DD	00H
	DD	01H
	DD	01H
	DD	FLAT:__catchsym$?_Buynode@?$_List_val@UFireTime@@V?$allocator@UFireTime@@@std@@@std@@QAEPAU_Node@?$_List_nod@UFireTime@@V?$allocator@UFireTime@@@std@@@2@PAU342@0ABUFireTime@@@Z$2
__ehfuncinfo$?_Buynode@?$_List_val@UFireTime@@V?$allocator@UFireTime@@@std@@@std@@QAEPAU_Node@?$_List_nod@UFireTime@@V?$allocator@UFireTime@@@std@@@2@PAU342@0ABUFireTime@@@Z DD 019930522H
	DD	02H
	DD	FLAT:__unwindtable$?_Buynode@?$_List_val@UFireTime@@V?$allocator@UFireTime@@@std@@@std@@QAEPAU_Node@?$_List_nod@UFireTime@@V?$allocator@UFireTime@@@std@@@2@PAU342@0ABUFireTime@@@Z
	DD	01H
	DD	FLAT:__tryblocktable$?_Buynode@?$_List_val@UFireTime@@V?$allocator@UFireTime@@@std@@@std@@QAEPAU_Node@?$_List_nod@UFireTime@@V?$allocator@UFireTime@@@std@@@2@PAU342@0ABUFireTime@@@Z
	DD	2 DUP(00H)
	DD	00H
	DD	01H
; Function compile flags: /Ogsp
; File c:\program files (x86)\microsoft visual studio 10.0\vc\include\list
xdata$x	ENDS
;	COMDAT ?_Buynode@?$_List_val@UFireTime@@V?$allocator@UFireTime@@@std@@@std@@QAEPAU_Node@?$_List_nod@UFireTime@@V?$allocator@UFireTime@@@std@@@2@PAU342@0ABUFireTime@@@Z
_TEXT	SEGMENT
$T541531 = -32						; size = 12
__Ptr$541535 = -20					; size = 4
__$EHRec$ = -16						; size = 16
$T541515 = 8						; size = 4
__Next$ = 8						; size = 4
__Prev$ = 12						; size = 4
__Val$ = 16						; size = 4
?_Buynode@?$_List_val@UFireTime@@V?$allocator@UFireTime@@@std@@@std@@QAEPAU_Node@?$_List_nod@UFireTime@@V?$allocator@UFireTime@@@std@@@2@PAU342@0ABUFireTime@@@Z PROC ; std::_List_val<FireTime,std::allocator<FireTime> >::_Buynode, COMDAT
; _this$ = ecx

; 507  : 		{	// allocate a node and set links and value

  00000	6a 14		 push	 20			; 00000014H
  00002	b8 00 00 00 00	 mov	 eax, __ehhandler$?_Buynode@?$_List_val@UFireTime@@V?$allocator@UFireTime@@@std@@@std@@QAEPAU_Node@?$_List_nod@UFireTime@@V?$allocator@UFireTime@@@std@@@2@PAU342@0ABUFireTime@@@Z
  00007	e8 00 00 00 00	 call	 __EH_prolog3_catch

; 508  : 		_Nodeptr _Pnode = this->_Alnod.allocate(1);

  0000c	6a 60		 push	 96			; 00000060H
  0000e	e8 00 00 00 00	 call	 ??2@YAPAXI@Z		; operator new
  00013	8b f0		 mov	 esi, eax
  00015	59		 pop	 ecx
  00016	89 75 ec	 mov	 DWORD PTR __Ptr$541535[ebp], esi
  00019	85 f6		 test	 esi, esi
  0001b	74 39		 je	 SHORT $LN10@Buynode

; 509  : 
; 510  : 		_TRY_BEGIN
; 511  : 		this->_Nextnode(_Pnode) = _Next;

  0001d	8b 45 08	 mov	 eax, DWORD PTR __Next$[ebp]

; 512  : 		this->_Prevnode(_Pnode) = _Prev;
; 513  : 		_Cons_val(this->_Alval, _STD addressof(this->_Myval(_Pnode)), _Val);

  00020	ff 75 10	 push	 DWORD PTR __Val$[ebp]
  00023	83 65 fc 00	 and	 DWORD PTR __$EHRec$[ebp+12], 0
  00027	89 06		 mov	 DWORD PTR [esi], eax
  00029	8b 45 0c	 mov	 eax, DWORD PTR __Prev$[ebp]
  0002c	89 46 04	 mov	 DWORD PTR [esi+4], eax
  0002f	8d 46 08	 lea	 eax, DWORD PTR [esi+8]
  00032	50		 push	 eax
  00033	e8 00 00 00 00	 call	 ??$_Construct@UFireTime@@ABU1@@std@@YAXPAUFireTime@@ABU1@@Z ; std::_Construct<FireTime,FireTime const &>
  00038	59		 pop	 ecx
  00039	59		 pop	 ecx

; 517  : 		_CATCH_END
; 518  : 
; 519  : 		return (_Pnode);

  0003a	8b c6		 mov	 eax, esi

; 520  : 		}

  0003c	e8 00 00 00 00	 call	 __EH_epilog3
  00041	c2 0c 00	 ret	 12			; 0000000cH
__catch$?_Buynode@?$_List_val@UFireTime@@V?$allocator@UFireTime@@@std@@@std@@QAEPAU_Node@?$_List_nod@UFireTime@@V?$allocator@UFireTime@@@std@@@2@PAU342@0ABUFireTime@@@Z$0:

; 514  : 		_CATCH_ALL
; 515  : 		this->_Alnod.deallocate(_Pnode, 1);

  00044	ff 75 ec	 push	 DWORD PTR __Ptr$541535[ebp]
  00047	e8 00 00 00 00	 call	 ??3@YAXPAX@Z		; operator delete
  0004c	59		 pop	 ecx

; 516  : 		_RERAISE;

  0004d	6a 00		 push	 0
  0004f	6a 00		 push	 0
$LN40@Buynode:
  00051	e8 00 00 00 00	 call	 __CxxThrowException@8
$LN41@Buynode:

; 508  : 		_Nodeptr _Pnode = this->_Alnod.allocate(1);

$LN10@Buynode:
  00056	83 65 08 00	 and	 DWORD PTR $T541515[ebp], 0
  0005a	8d 45 08	 lea	 eax, DWORD PTR $T541515[ebp]
  0005d	50		 push	 eax
  0005e	8d 4d e0	 lea	 ecx, DWORD PTR $T541531[ebp]
  00061	ff 15 00 00 00
	00		 call	 DWORD PTR __imp_??0exception@std@@QAE@ABQBD@Z
  00067	68 00 00 00 00	 push	 OFFSET __TI2?AVbad_alloc@std@@
  0006c	8d 45 e0	 lea	 eax, DWORD PTR $T541531[ebp]
  0006f	c7 45 e0 00 00
	00 00		 mov	 DWORD PTR $T541531[ebp], OFFSET ??_7bad_alloc@std@@6B@
  00076	50		 push	 eax
  00077	eb d8		 jmp	 SHORT $LN40@Buynode
$LN39@Buynode:
_TEXT	ENDS
;	COMDAT text$x
text$x	SEGMENT
__ehhandler$?_Buynode@?$_List_val@UFireTime@@V?$allocator@UFireTime@@@std@@@std@@QAEPAU_Node@?$_List_nod@UFireTime@@V?$allocator@UFireTime@@@std@@@2@PAU342@0ABUFireTime@@@Z:
  00000	8b 54 24 08	 mov	 edx, DWORD PTR [esp+8]
  00004	8d 42 0c	 lea	 eax, DWORD PTR [edx+12]
  00007	8b 4a dc	 mov	 ecx, DWORD PTR [edx-36]
  0000a	33 c8		 xor	 ecx, eax
  0000c	e8 00 00 00 00	 call	 @__security_check_cookie@4
  00011	b8 00 00 00 00	 mov	 eax, OFFSET __ehfuncinfo$?_Buynode@?$_List_val@UFireTime@@V?$allocator@UFireTime@@@std@@@std@@QAEPAU_Node@?$_List_nod@UFireTime@@V?$allocator@UFireTime@@@std@@@2@PAU342@0ABUFireTime@@@Z
  00016	e9 00 00 00 00	 jmp	 ___CxxFrameHandler3
text$x	ENDS
?_Buynode@?$_List_val@UFireTime@@V?$allocator@UFireTime@@@std@@@std@@QAEPAU_Node@?$_List_nod@UFireTime@@V?$allocator@UFireTime@@@std@@@2@PAU342@0ABUFireTime@@@Z ENDP ; std::_List_val<FireTime,std::allocator<FireTime> >::_Buynode
PUBLIC	??$_Dest_val@V?$allocator@U_Node@?$_List_nod@UFireTime@@V?$allocator@UFireTime@@@std@@@std@@@std@@U_Node@?$_List_nod@UFireTime@@V?$allocator@UFireTime@@@std@@@2@@std@@YAXAAV?$allocator@U_Node@?$_List_nod@UFireTime@@V?$allocator@UFireTime@@@std@@@std@@@0@PAU_Node@?$_List_nod@UFireTime@@V?$allocator@UFireTime@@@std@@@0@@Z ; std::_Dest_val<std::allocator<std::_List_nod<FireTime,std::allocator<FireTime> >::_Node>,std::_List_nod<FireTime,std::allocator<FireTime> >::_Node>
; Function compile flags: /Ogsp
; File c:\program files (x86)\microsoft visual studio 10.0\vc\include\xmemory
;	COMDAT ??$_Dest_val@V?$allocator@U_Node@?$_List_nod@UFireTime@@V?$allocator@UFireTime@@@std@@@std@@@std@@U_Node@?$_List_nod@UFireTime@@V?$allocator@UFireTime@@@std@@@2@@std@@YAXAAV?$allocator@U_Node@?$_List_nod@UFireTime@@V?$allocator@UFireTime@@@std@@@std@@@0@PAU_Node@?$_List_nod@UFireTime@@V?$allocator@UFireTime@@@std@@@0@@Z
_TEXT	SEGMENT
__Alval$ = 8						; size = 4
__Pdest$ = 12						; size = 4
??$_Dest_val@V?$allocator@U_Node@?$_List_nod@UFireTime@@V?$allocator@UFireTime@@@std@@@std@@@std@@U_Node@?$_List_nod@UFireTime@@V?$allocator@UFireTime@@@std@@@2@@std@@YAXAAV?$allocator@U_Node@?$_List_nod@UFireTime@@V?$allocator@UFireTime@@@std@@@std@@@0@PAU_Node@?$_List_nod@UFireTime@@V?$allocator@UFireTime@@@std@@@0@@Z PROC ; std::_Dest_val<std::allocator<std::_List_nod<FireTime,std::allocator<FireTime> >::_Node>,std::_List_nod<FireTime,std::allocator<FireTime> >::_Node>, COMDAT

; 286  : 	{	// destroy using allocator

  00000	55		 push	 ebp
  00001	8b ec		 mov	 ebp, esp

; 287  : 	_Alval.destroy(_Pdest);

  00003	8b 4d 0c	 mov	 ecx, DWORD PTR __Pdest$[ebp]
  00006	83 c1 08	 add	 ecx, 8

; 288  : 	}

  00009	5d		 pop	 ebp

; 287  : 	_Alval.destroy(_Pdest);

  0000a	e9 00 00 00 00	 jmp	 ??1FireTime@@QAE@XZ
??$_Dest_val@V?$allocator@U_Node@?$_List_nod@UFireTime@@V?$allocator@UFireTime@@@std@@@std@@@std@@U_Node@?$_List_nod@UFireTime@@V?$allocator@UFireTime@@@std@@@2@@std@@YAXAAV?$allocator@U_Node@?$_List_nod@UFireTime@@V?$allocator@UFireTime@@@std@@@std@@@0@PAU_Node@?$_List_nod@UFireTime@@V?$allocator@UFireTime@@@std@@@0@@Z ENDP ; std::_Dest_val<std::allocator<std::_List_nod<FireTime,std::allocator<FireTime> >::_Node>,std::_List_nod<FireTime,std::allocator<FireTime> >::_Node>
_TEXT	ENDS
PUBLIC	??$_Destroy_range@V?$allocator@UExtraAniJump@@@std@@@std@@YAXPAUExtraAniJump@@0AAV?$allocator@UExtraAniJump@@@0@@Z ; std::_Destroy_range<std::allocator<ExtraAniJump> >
; Function compile flags: /Ogsp
;	COMDAT ??$_Destroy_range@V?$allocator@UExtraAniJump@@@std@@@std@@YAXPAUExtraAniJump@@0AAV?$allocator@UExtraAniJump@@@0@@Z
_TEXT	SEGMENT
__First$ = 8						; size = 4
__Last$ = 12						; size = 4
__Al$ = 16						; size = 4
??$_Destroy_range@V?$allocator@UExtraAniJump@@@std@@@std@@YAXPAUExtraAniJump@@0AAV?$allocator@UExtraAniJump@@@0@@Z PROC ; std::_Destroy_range<std::allocator<ExtraAniJump> >, COMDAT

; 88   : 	_Destroy_range(_First, _Last, _Al, _Ptr_cat(_First, _Last));
; 89   : 	}

  00000	c3		 ret	 0
??$_Destroy_range@V?$allocator@UExtraAniJump@@@std@@@std@@YAXPAUExtraAniJump@@0AAV?$allocator@UExtraAniJump@@@0@@Z ENDP ; std::_Destroy_range<std::allocator<ExtraAniJump> >
_TEXT	ENDS
PUBLIC	??$_Uninitialized_move@PAUExtraAniJump@@PAU1@V?$allocator@UExtraAniJump@@@std@@@std@@YAPAUExtraAniJump@@PAU1@00AAV?$allocator@UExtraAniJump@@@0@@Z ; std::_Uninitialized_move<ExtraAniJump *,ExtraAniJump *,std::allocator<ExtraAniJump> >
; Function compile flags: /Ogsp
; File c:\program files (x86)\microsoft visual studio 10.0\vc\include\memory
;	COMDAT ??$_Uninitialized_move@PAUExtraAniJump@@PAU1@V?$allocator@UExtraAniJump@@@std@@@std@@YAPAUExtraAniJump@@PAU1@00AAV?$allocator@UExtraAniJump@@@0@@Z
_TEXT	SEGMENT
__Cat$541658 = -4					; size = 1
__First$ = 8						; size = 4
__Last$ = 12						; size = 4
__Dest$ = 16						; size = 4
__Al$ = 20						; size = 4
??$_Uninitialized_move@PAUExtraAniJump@@PAU1@V?$allocator@UExtraAniJump@@@std@@@std@@YAPAUExtraAniJump@@PAU1@00AAV?$allocator@UExtraAniJump@@@0@@Z PROC ; std::_Uninitialized_move<ExtraAniJump *,ExtraAniJump *,std::allocator<ExtraAniJump> >, COMDAT

; 469  : 	{	// move [_First, _Last) to raw _Dest, using _Al

  00000	55		 push	 ebp
  00001	8b ec		 mov	 ebp, esp
  00003	51		 push	 ecx

; 470  : 	return (_Uninit_move(_First, _Last, _Dest, _Al,
; 471  : 		_Val_type(_First), _Ptr_cat(_First, _Dest)));

  00004	ff 75 fc	 push	 DWORD PTR __Cat$541658[ebp]
  00007	6a 00		 push	 0
  00009	ff 75 14	 push	 DWORD PTR __Al$[ebp]
  0000c	ff 75 10	 push	 DWORD PTR __Dest$[ebp]
  0000f	ff 75 0c	 push	 DWORD PTR __Last$[ebp]
  00012	ff 75 08	 push	 DWORD PTR __First$[ebp]
  00015	e8 00 00 00 00	 call	 ??$_Uninit_move@PAUExtraAniJump@@PAU1@V?$allocator@UExtraAniJump@@@std@@U1@@std@@YAPAUExtraAniJump@@PAU1@00AAV?$allocator@UExtraAniJump@@@0@0U_Nonscalar_ptr_iterator_tag@0@@Z ; std::_Uninit_move<ExtraAniJump *,ExtraAniJump *,std::allocator<ExtraAniJump>,ExtraAniJump>
  0001a	83 c4 18	 add	 esp, 24			; 00000018H

; 472  : 	}

  0001d	c9		 leave
  0001e	c3		 ret	 0
??$_Uninitialized_move@PAUExtraAniJump@@PAU1@V?$allocator@UExtraAniJump@@@std@@@std@@YAPAUExtraAniJump@@PAU1@00AAV?$allocator@UExtraAniJump@@@0@@Z ENDP ; std::_Uninitialized_move<ExtraAniJump *,ExtraAniJump *,std::allocator<ExtraAniJump> >
_TEXT	ENDS
PUBLIC	??1?$vector@KV?$allocator@K@std@@@std@@QAE@XZ	; std::vector<unsigned long,std::allocator<unsigned long> >::~vector<unsigned long,std::allocator<unsigned long> >
; Function compile flags: /Ogsp
; File c:\program files (x86)\microsoft visual studio 10.0\vc\include\vector
;	COMDAT ??1?$vector@KV?$allocator@K@std@@@std@@QAE@XZ
_TEXT	SEGMENT
??1?$vector@KV?$allocator@K@std@@@std@@QAE@XZ PROC	; std::vector<unsigned long,std::allocator<unsigned long> >::~vector<unsigned long,std::allocator<unsigned long> >, COMDAT
; _this$ = ecx

; 705  : 		_Tidy();

  00000	e9 00 00 00 00	 jmp	 ?_Tidy@?$vector@KV?$allocator@K@std@@@std@@IAEXXZ ; std::vector<unsigned long,std::allocator<unsigned long> >::_Tidy
??1?$vector@KV?$allocator@K@std@@@std@@QAE@XZ ENDP	; std::vector<unsigned long,std::allocator<unsigned long> >::~vector<unsigned long,std::allocator<unsigned long> >
_TEXT	ENDS
PUBLIC	?clear@?$vector@KV?$allocator@K@std@@@std@@QAEXXZ ; std::vector<unsigned long,std::allocator<unsigned long> >::clear
; Function compile flags: /Ogsp
;	COMDAT ?clear@?$vector@KV?$allocator@K@std@@@std@@QAEXXZ
_TEXT	SEGMENT
$T541676 = -4						; size = 4
?clear@?$vector@KV?$allocator@K@std@@@std@@QAEXXZ PROC	; std::vector<unsigned long,std::allocator<unsigned long> >::clear, COMDAT
; _this$ = ecx

; 1217 : 		{	// erase all

  00000	55		 push	 ebp
  00001	8b ec		 mov	 ebp, esp
  00003	51		 push	 ecx

; 1218 : 		erase(begin(), end());

  00004	8b 41 04	 mov	 eax, DWORD PTR [ecx+4]
  00007	8b 11		 mov	 edx, DWORD PTR [ecx]
  00009	50		 push	 eax
  0000a	52		 push	 edx
  0000b	8d 45 fc	 lea	 eax, DWORD PTR $T541676[ebp]
  0000e	50		 push	 eax
  0000f	e8 00 00 00 00	 call	 ?erase@?$vector@KV?$allocator@K@std@@@std@@QAE?AV?$_Vector_iterator@V?$_Vector_val@KV?$allocator@K@std@@@std@@@2@V?$_Vector_const_iterator@V?$_Vector_val@KV?$allocator@K@std@@@std@@@2@0@Z ; std::vector<unsigned long,std::allocator<unsigned long> >::erase

; 1219 : 		}

  00014	c9		 leave
  00015	c3		 ret	 0
?clear@?$vector@KV?$allocator@K@std@@@std@@QAEXXZ ENDP	; std::vector<unsigned long,std::allocator<unsigned long> >::clear
_TEXT	ENDS
PUBLIC	?_Reserve@?$vector@KV?$allocator@K@std@@@std@@IAEXI@Z ; std::vector<unsigned long,std::allocator<unsigned long> >::_Reserve
; Function compile flags: /Ogsp
;	COMDAT ?_Reserve@?$vector@KV?$allocator@K@std@@@std@@IAEXI@Z
_TEXT	SEGMENT
__Count$ = 8						; size = 4
?_Reserve@?$vector@KV?$allocator@K@std@@@std@@IAEXI@Z PROC ; std::vector<unsigned long,std::allocator<unsigned long> >::_Reserve, COMDAT
; _this$ = ecx

; 1290 : 		{	// ensure room for _Count new elements, grow exponentially

  00000	55		 push	 ebp
  00001	8b ec		 mov	 ebp, esp
  00003	56		 push	 esi
  00004	8b f1		 mov	 esi, ecx

; 1291 : 		size_type _Size = size();

  00006	8b 0e		 mov	 ecx, DWORD PTR [esi]
  00008	8b 46 04	 mov	 eax, DWORD PTR [esi+4]
  0000b	2b c1		 sub	 eax, ecx

; 1292 : 		if (max_size() - _Count < _Size)

  0000d	ba ff ff ff 3f	 mov	 edx, 1073741823		; 3fffffffH
  00012	2b 55 08	 sub	 edx, DWORD PTR __Count$[ebp]
  00015	c1 f8 02	 sar	 eax, 2
  00018	3b d0		 cmp	 edx, eax
  0001a	73 0b		 jae	 SHORT $LN4@Reserve

; 1293 : 			_Xlen();

  0001c	68 00 00 00 00	 push	 OFFSET ??_C@_0BD@OLBABOEK@vector?$DMT?$DO?5too?5long?$AA@
  00021	ff 15 00 00 00
	00		 call	 DWORD PTR __imp_?_Xlength_error@std@@YAXPBD@Z
$LN21@Reserve:
$LN4@Reserve:

; 1294 : 		else if ((_Size += _Count) <= capacity())

  00027	8b 56 08	 mov	 edx, DWORD PTR [esi+8]
  0002a	03 45 08	 add	 eax, DWORD PTR __Count$[ebp]
  0002d	2b d1		 sub	 edx, ecx
  0002f	c1 fa 02	 sar	 edx, 2
  00032	3b c2		 cmp	 eax, edx
  00034	76 10		 jbe	 SHORT $LN1@Reserve

; 1295 : 			;
; 1296 : 		else
; 1297 : 			reserve(_Grow_to(_Size));

  00036	50		 push	 eax
  00037	8b ce		 mov	 ecx, esi
  00039	e8 00 00 00 00	 call	 ?_Grow_to@?$vector@KV?$allocator@K@std@@@std@@IBEII@Z ; std::vector<unsigned long,std::allocator<unsigned long> >::_Grow_to
  0003e	50		 push	 eax
  0003f	8b ce		 mov	 ecx, esi
  00041	e8 00 00 00 00	 call	 ?reserve@?$vector@KV?$allocator@K@std@@@std@@QAEXI@Z ; std::vector<unsigned long,std::allocator<unsigned long> >::reserve
$LN1@Reserve:
  00046	5e		 pop	 esi

; 1298 : 		}

  00047	5d		 pop	 ebp
  00048	c2 04 00	 ret	 4
$LN20@Reserve:
?_Reserve@?$vector@KV?$allocator@K@std@@@std@@IAEXI@Z ENDP ; std::vector<unsigned long,std::allocator<unsigned long> >::_Reserve
_TEXT	ENDS
PUBLIC	?assign@?$basic_string@DU?$char_traits@D@std@@V?$allocator@D@2@@std@@QAEAAV12@ABV12@II@Z ; std::basic_string<char,std::char_traits<char>,std::allocator<char> >::assign
; Function compile flags: /Ogsp
; File c:\program files (x86)\microsoft visual studio 10.0\vc\include\xstring
;	COMDAT ?assign@?$basic_string@DU?$char_traits@D@std@@V?$allocator@D@2@@std@@QAEAAV12@ABV12@II@Z
_TEXT	SEGMENT
__Right$ = 8						; size = 4
__Roff$ = 12						; size = 4
__Count$ = 16						; size = 4
?assign@?$basic_string@DU?$char_traits@D@std@@V?$allocator@D@2@@std@@QAEAAV12@ABV12@II@Z PROC ; std::basic_string<char,std::char_traits<char>,std::allocator<char> >::assign, COMDAT
; _this$ = ecx

; 893  : 		{	// assign _Right [_Roff, _Roff + _Count)

  00000	55		 push	 ebp
  00001	8b ec		 mov	 ebp, esp
  00003	53		 push	 ebx

; 894  : 		if (_Right.size() < _Roff)

  00004	8b 5d 08	 mov	 ebx, DWORD PTR __Right$[ebp]
  00007	8b 43 10	 mov	 eax, DWORD PTR [ebx+16]
  0000a	56		 push	 esi
  0000b	8b f1		 mov	 esi, ecx
  0000d	8b 4d 0c	 mov	 ecx, DWORD PTR __Roff$[ebp]
  00010	57		 push	 edi
  00011	3b c1		 cmp	 eax, ecx
  00013	73 0b		 jae	 SHORT $LN5@assign

; 895  : 			_Xran();	// _Roff off end

  00015	68 00 00 00 00	 push	 OFFSET ??_C@_0BI@CFPLBAOH@invalid?5string?5position?$AA@
  0001a	ff 15 00 00 00
	00		 call	 DWORD PTR __imp_?_Xout_of_range@std@@YAXPBD@Z
$LN34@assign:
$LN5@assign:

; 896  : 		size_type _Num = _Right.size() - _Roff;

  00020	2b c1		 sub	 eax, ecx
  00022	8b f8		 mov	 edi, eax

; 897  : 		if (_Count < _Num)

  00024	39 7d 10	 cmp	 DWORD PTR __Count$[ebp], edi

; 898  : 			_Num = _Count;	// trim _Num to size

  00027	0f 42 7d 10	 cmovb	 edi, DWORD PTR __Count$[ebp]

; 899  : 
; 900  : 		if (this == &_Right)

  0002b	3b f3		 cmp	 esi, ebx
  0002d	75 1a		 jne	 SHORT $LN3@assign

; 901  : 			erase((size_type)(_Roff + _Num)), erase(0, _Roff);	// substring

  0002f	03 f9		 add	 edi, ecx
  00031	6a ff		 push	 -1
  00033	57		 push	 edi
  00034	8b ce		 mov	 ecx, esi
  00036	e8 00 00 00 00	 call	 ?erase@?$basic_string@DU?$char_traits@D@std@@V?$allocator@D@2@@std@@QAEAAV12@II@Z ; std::basic_string<char,std::char_traits<char>,std::allocator<char> >::erase
  0003b	ff 75 0c	 push	 DWORD PTR __Roff$[ebp]
  0003e	8b ce		 mov	 ecx, esi
  00040	6a 00		 push	 0
  00042	e8 00 00 00 00	 call	 ?erase@?$basic_string@DU?$char_traits@D@std@@V?$allocator@D@2@@std@@QAEAAV12@II@Z ; std::basic_string<char,std::char_traits<char>,std::allocator<char> >::erase
  00047	eb 47		 jmp	 SHORT $LN31@assign
$LN3@assign:

; 902  : 		else if (_Grow(_Num))

  00049	6a 00		 push	 0
  0004b	57		 push	 edi
  0004c	8b ce		 mov	 ecx, esi
  0004e	e8 00 00 00 00	 call	 ?_Grow@?$basic_string@DU?$char_traits@D@std@@V?$allocator@D@2@@std@@QAE_NI_N@Z ; std::basic_string<char,std::char_traits<char>,std::allocator<char> >::_Grow
  00053	84 c0		 test	 al, al
  00055	74 39		 je	 SHORT $LN31@assign

; 903  : 			{	// make room and assign new stuff
; 904  : 			_Traits::copy(_Myptr(), _Right._Myptr() + _Roff, _Num);

  00057	83 7b 14 10	 cmp	 DWORD PTR [ebx+20], 16	; 00000010H
  0005b	72 04		 jb	 SHORT $LN17@assign
  0005d	8b 03		 mov	 eax, DWORD PTR [ebx]
  0005f	eb 02		 jmp	 SHORT $LN18@assign
$LN17@assign:
  00061	8b c3		 mov	 eax, ebx
$LN18@assign:
  00063	83 7e 14 10	 cmp	 DWORD PTR [esi+20], 16	; 00000010H
  00067	72 04		 jb	 SHORT $LN21@assign
  00069	8b 0e		 mov	 ecx, DWORD PTR [esi]
  0006b	eb 02		 jmp	 SHORT $LN22@assign
$LN21@assign:
  0006d	8b ce		 mov	 ecx, esi
$LN22@assign:
  0006f	03 45 0c	 add	 eax, DWORD PTR __Roff$[ebp]
  00072	57		 push	 edi
  00073	50		 push	 eax
  00074	51		 push	 ecx
  00075	e8 00 00 00 00	 call	 _memcpy
  0007a	83 c4 0c	 add	 esp, 12			; 0000000cH

; 905  : 			_Eos(_Num);

  0007d	83 7e 14 10	 cmp	 DWORD PTR [esi+20], 16	; 00000010H
  00081	89 7e 10	 mov	 DWORD PTR [esi+16], edi
  00084	72 04		 jb	 SHORT $LN29@assign
  00086	8b 06		 mov	 eax, DWORD PTR [esi]
  00088	eb 02		 jmp	 SHORT $LN30@assign
$LN29@assign:
  0008a	8b c6		 mov	 eax, esi
$LN30@assign:
  0008c	c6 04 38 00	 mov	 BYTE PTR [eax+edi], 0
$LN31@assign:

; 906  : 			}
; 907  : 		return (*this);

  00090	5f		 pop	 edi
  00091	8b c6		 mov	 eax, esi
  00093	5e		 pop	 esi
  00094	5b		 pop	 ebx

; 908  : 		}

  00095	5d		 pop	 ebp
  00096	c2 0c 00	 ret	 12			; 0000000cH
$LN33@assign:
?assign@?$basic_string@DU?$char_traits@D@std@@V?$allocator@D@2@@std@@QAEAAV12@ABV12@II@Z ENDP ; std::basic_string<char,std::char_traits<char>,std::allocator<char> >::assign
_TEXT	ENDS
PUBLIC	?assign@?$basic_string@DU?$char_traits@D@std@@V?$allocator@D@2@@std@@QAEAAV12@PBDI@Z ; std::basic_string<char,std::char_traits<char>,std::allocator<char> >::assign
; Function compile flags: /Ogsp
;	COMDAT ?assign@?$basic_string@DU?$char_traits@D@std@@V?$allocator@D@2@@std@@QAEAAV12@PBDI@Z
_TEXT	SEGMENT
__Ptr$ = 8						; size = 4
__Count$ = 12						; size = 4
?assign@?$basic_string@DU?$char_traits@D@std@@V?$allocator@D@2@@std@@QAEAAV12@PBDI@Z PROC ; std::basic_string<char,std::char_traits<char>,std::allocator<char> >::assign, COMDAT
; _this$ = ecx

; 911  : 		{	// assign [_Ptr, _Ptr + _Count)

  00000	55		 push	 ebp
  00001	8b ec		 mov	 ebp, esp
  00003	53		 push	 ebx

; 912  :  #if _ITERATOR_DEBUG_LEVEL == 2
; 913  : 		if (_Count != 0)
; 914  : 			_DEBUG_POINTER(_Ptr);
; 915  :  #endif /* _ITERATOR_DEBUG_LEVEL == 2 */
; 916  : 
; 917  : 		if (_Inside(_Ptr))

  00004	8b 5d 08	 mov	 ebx, DWORD PTR __Ptr$[ebp]
  00007	56		 push	 esi
  00008	53		 push	 ebx
  00009	8b f1		 mov	 esi, ecx
  0000b	e8 00 00 00 00	 call	 ?_Inside@?$basic_string@DU?$char_traits@D@std@@V?$allocator@D@2@@std@@QAE_NPBD@Z ; std::basic_string<char,std::char_traits<char>,std::allocator<char> >::_Inside
  00010	84 c0		 test	 al, al
  00012	74 1c		 je	 SHORT $LN2@assign@2

; 918  : 			return (assign(*this, _Ptr - _Myptr(), _Count));	// substring

  00014	83 7e 14 10	 cmp	 DWORD PTR [esi+20], 16	; 00000010H
  00018	72 04		 jb	 SHORT $LN7@assign@2
  0001a	8b 06		 mov	 eax, DWORD PTR [esi]
  0001c	eb 02		 jmp	 SHORT $LN8@assign@2
$LN7@assign@2:
  0001e	8b c6		 mov	 eax, esi
$LN8@assign@2:
  00020	ff 75 0c	 push	 DWORD PTR __Count$[ebp]
  00023	2b d8		 sub	 ebx, eax
  00025	53		 push	 ebx
  00026	56		 push	 esi
  00027	8b ce		 mov	 ecx, esi
  00029	e8 00 00 00 00	 call	 ?assign@?$basic_string@DU?$char_traits@D@std@@V?$allocator@D@2@@std@@QAEAAV12@ABV12@II@Z ; std::basic_string<char,std::char_traits<char>,std::allocator<char> >::assign
  0002e	eb 3f		 jmp	 SHORT $LN3@assign@2
$LN2@assign@2:
  00030	57		 push	 edi

; 919  : 
; 920  : 		if (_Grow(_Count))

  00031	8b 7d 0c	 mov	 edi, DWORD PTR __Count$[ebp]
  00034	6a 00		 push	 0
  00036	57		 push	 edi
  00037	8b ce		 mov	 ecx, esi
  00039	e8 00 00 00 00	 call	 ?_Grow@?$basic_string@DU?$char_traits@D@std@@V?$allocator@D@2@@std@@QAE_NI_N@Z ; std::basic_string<char,std::char_traits<char>,std::allocator<char> >::_Grow
  0003e	84 c0		 test	 al, al
  00040	74 2a		 je	 SHORT $LN21@assign@2

; 921  : 			{	// make room and assign new stuff
; 922  : 			_Traits::copy(_Myptr(), _Ptr, _Count);

  00042	83 7e 14 10	 cmp	 DWORD PTR [esi+20], 16	; 00000010H
  00046	72 04		 jb	 SHORT $LN11@assign@2
  00048	8b 06		 mov	 eax, DWORD PTR [esi]
  0004a	eb 02		 jmp	 SHORT $LN12@assign@2
$LN11@assign@2:
  0004c	8b c6		 mov	 eax, esi
$LN12@assign@2:
  0004e	57		 push	 edi
  0004f	53		 push	 ebx
  00050	50		 push	 eax
  00051	e8 00 00 00 00	 call	 _memcpy
  00056	83 c4 0c	 add	 esp, 12			; 0000000cH

; 923  : 			_Eos(_Count);

  00059	83 7e 14 10	 cmp	 DWORD PTR [esi+20], 16	; 00000010H
  0005d	89 7e 10	 mov	 DWORD PTR [esi+16], edi
  00060	72 04		 jb	 SHORT $LN19@assign@2
  00062	8b 06		 mov	 eax, DWORD PTR [esi]
  00064	eb 02		 jmp	 SHORT $LN20@assign@2
$LN19@assign@2:
  00066	8b c6		 mov	 eax, esi
$LN20@assign@2:
  00068	c6 04 38 00	 mov	 BYTE PTR [eax+edi], 0
$LN21@assign@2:

; 924  : 			}
; 925  : 		return (*this);

  0006c	8b c6		 mov	 eax, esi
  0006e	5f		 pop	 edi
$LN3@assign@2:
  0006f	5e		 pop	 esi
  00070	5b		 pop	 ebx

; 926  : 		}

  00071	5d		 pop	 ebp
  00072	c2 08 00	 ret	 8
?assign@?$basic_string@DU?$char_traits@D@std@@V?$allocator@D@2@@std@@QAEAAV12@PBDI@Z ENDP ; std::basic_string<char,std::char_traits<char>,std::allocator<char> >::assign
_TEXT	ENDS
PUBLIC	??_7ioTargetTrace16Dummy@@6BioWorldEventReceiver@@@ ; ioTargetTrace16Dummy::`vftable'
PUBLIC	??_7ioTargetTrace16Dummy@@6BioPlayEntity@@@	; ioTargetTrace16Dummy::`vftable'
PUBLIC	??0ioTargetTrace16Dummy@@QAE@PAVioEntityGroup@@PAVioPlayMode@@@Z ; ioTargetTrace16Dummy::ioTargetTrace16Dummy
PUBLIC	??_R4ioTargetTrace16Dummy@@6BioPlayEntity@@@	; ioTargetTrace16Dummy::`RTTI Complete Object Locator'
PUBLIC	??_R0?AVioTargetTrace16Dummy@@@8		; ioTargetTrace16Dummy `RTTI Type Descriptor'
PUBLIC	??_R3ioTargetTrace16Dummy@@8			; ioTargetTrace16Dummy::`RTTI Class Hierarchy Descriptor'
PUBLIC	??_R2ioTargetTrace16Dummy@@8			; ioTargetTrace16Dummy::`RTTI Base Class Array'
PUBLIC	??_R1A@?0A@EA@ioTargetTrace16Dummy@@8		; ioTargetTrace16Dummy::`RTTI Base Class Descriptor at (0,-1,0,64)'
PUBLIC	??_R1A@?0A@EA@ioDummyChar@@8			; ioDummyChar::`RTTI Base Class Descriptor at (0,-1,0,64)'
PUBLIC	??_R0?AVioDummyChar@@@8				; ioDummyChar `RTTI Type Descriptor'
PUBLIC	??_R3ioDummyChar@@8				; ioDummyChar::`RTTI Class Hierarchy Descriptor'
PUBLIC	??_R2ioDummyChar@@8				; ioDummyChar::`RTTI Base Class Array'
PUBLIC	??_R1A@?0A@EA@ioPlayEntity@@8			; ioPlayEntity::`RTTI Base Class Descriptor at (0,-1,0,64)'
PUBLIC	??_R3ioPlayEntity@@8				; ioPlayEntity::`RTTI Class Hierarchy Descriptor'
PUBLIC	??_R2ioPlayEntity@@8				; ioPlayEntity::`RTTI Base Class Array'
PUBLIC	??_R1A@?0A@EA@ioGameEntity@@8			; ioGameEntity::`RTTI Base Class Descriptor at (0,-1,0,64)'
PUBLIC	??_R3ioGameEntity@@8				; ioGameEntity::`RTTI Class Hierarchy Descriptor'
PUBLIC	??_R2ioGameEntity@@8				; ioGameEntity::`RTTI Base Class Array'
PUBLIC	??_R1A@?0A@EA@ioEntityEvent@@8			; ioEntityEvent::`RTTI Base Class Descriptor at (0,-1,0,64)'
PUBLIC	??_R0?AVioEntityEvent@@@8			; ioEntityEvent `RTTI Type Descriptor'
PUBLIC	??_R3ioEntityEvent@@8				; ioEntityEvent::`RTTI Class Hierarchy Descriptor'
PUBLIC	??_R2ioEntityEvent@@8				; ioEntityEvent::`RTTI Base Class Array'
PUBLIC	??_R1BMI@?0A@EA@ioWorldEventReceiver@@8		; ioWorldEventReceiver::`RTTI Base Class Descriptor at (456,-1,0,64)'
PUBLIC	??_R0?AVioWorldEventReceiver@@@8		; ioWorldEventReceiver `RTTI Type Descriptor'
PUBLIC	??_R3ioWorldEventReceiver@@8			; ioWorldEventReceiver::`RTTI Class Hierarchy Descriptor'
PUBLIC	??_R2ioWorldEventReceiver@@8			; ioWorldEventReceiver::`RTTI Base Class Array'
PUBLIC	??_R1A@?0A@EA@ioWorldEventReceiver@@8		; ioWorldEventReceiver::`RTTI Base Class Descriptor at (0,-1,0,64)'
PUBLIC	?SetTeam@ioPlayEntity@@UAEXW4TeamType@@@Z	; ioPlayEntity::SetTeam
PUBLIC	?ProcessState@ioTargetTrace16Dummy@@MAEXMK@Z	; ioTargetTrace16Dummy::ProcessState
PUBLIC	?ApplyDummyCharSync@ioTargetTrace16Dummy@@UAEXPAVioPlayStage@@AAVSP2Packet@@@Z ; ioTargetTrace16Dummy::ApplyDummyCharSync
PUBLIC	?SetDelayState@ioTargetTrace16Dummy@@EAEX_N@Z	; ioTargetTrace16Dummy::SetDelayState
PUBLIC	?IsDummyCharMidSync@ioDummyChar@@UAE_NXZ	; ioDummyChar::IsDummyCharMidSync
PUBLIC	?SetDieState@ioTargetTrace16Dummy@@UAEX_N@Z	; ioTargetTrace16Dummy::SetDieState
PUBLIC	??_R4ioTargetTrace16Dummy@@6BioWorldEventReceiver@@@ ; ioTargetTrace16Dummy::`RTTI Complete Object Locator'
PUBLIC	??_EioTargetTrace16Dummy@@WBMI@AEPAXI@Z		; [thunk]:ioTargetTrace16Dummy::`vector deleting destructor'
EXTRN	??1ioDummyChar@@UAE@XZ:PROC			; ioDummyChar::~ioDummyChar
EXTRN	??0ioDummyChar@@QAE@PAVioEntityGroup@@PAVioPlayMode@@@Z:PROC ; ioDummyChar::ioDummyChar
EXTRN	?AddEntityEvent@ioDummyChar@@UAEXPAVioEntity@@@Z:PROC ; ioDummyChar::AddEntityEvent
EXTRN	??_EioTargetTrace16Dummy@@UAEPAXI@Z:PROC	; ioTargetTrace16Dummy::`vector deleting destructor'
EXTRN	?Update@ioDummyChar@@UAEXMKK@Z:PROC		; ioDummyChar::Update
EXTRN	?UpdateAfter@ioDummyChar@@UAEXM@Z:PROC		; ioDummyChar::UpdateAfter
EXTRN	?GetTypeID@ioPlayEntity@@UBEHXZ:PROC		; ioPlayEntity::GetTypeID
EXTRN	?IsNeedCheckMapCollision@ioDummyChar@@UBE_NXZ:PROC ; ioDummyChar::IsNeedCheckMapCollision
EXTRN	?IsMountAvailable@ioDummyChar@@UBE_NXZ:PROC	; ioDummyChar::IsMountAvailable
EXTRN	?IsMountingAvailable@ioDummyChar@@UBE_NXZ:PROC	; ioDummyChar::IsMountingAvailable
EXTRN	?IsNowMountEnable@ioDummyChar@@UBE_NXZ:PROC	; ioDummyChar::IsNowMountEnable
EXTRN	?IsAllWeaponDefence@ioGameEntity@@UBE_NXZ:PROC	; ioGameEntity::IsAllWeaponDefence
EXTRN	?HasEntity@ioGameEntity@@UAE_NABVioHashString@@@Z:PROC ; ioGameEntity::HasEntity
EXTRN	?AddEntity@ioGameEntity@@UAEPAVioEntity@@ABVioHashString@@@Z:PROC ; ioGameEntity::AddEntity
EXTRN	?DestroyEntity@ioGameEntity@@UAE_NABVioHashString@@@Z:PROC ; ioGameEntity::DestroyEntity
EXTRN	?GetEntity@ioGameEntity@@UAEPAVioEntity@@ABVioHashString@@@Z:PROC ; ioGameEntity::GetEntity
EXTRN	?UpdateBound@ioGameEntity@@MBEXXZ:PROC		; ioGameEntity::UpdateBound
EXTRN	?UpdateBottomHeight@ioDummyChar@@MBEXXZ:PROC	; ioDummyChar::UpdateBottomHeight
EXTRN	?NeedUpdateBottomHeight@ioDummyChar@@UAEXXZ:PROC ; ioDummyChar::NeedUpdateBottomHeight
EXTRN	?SetWorldPosition@ioGameEntity@@UAEXABUD3DXVECTOR3@@@Z:PROC ; ioGameEntity::SetWorldPosition
EXTRN	?SetWorldOrientation@ioGameEntity@@UAEXABUD3DXQUATERNION@@@Z:PROC ; ioGameEntity::SetWorldOrientation
EXTRN	?SetWorldScale@ioGameEntity@@UAEXABUD3DXVECTOR3@@@Z:PROC ; ioGameEntity::SetWorldScale
EXTRN	?Translate@ioDummyChar@@UAEXABUD3DXVECTOR3@@@Z:PROC ; ioDummyChar::Translate
EXTRN	?TranslateByConveyer@ioDummyChar@@UAEXABUD3DXVECTOR3@@@Z:PROC ; ioDummyChar::TranslateByConveyer
EXTRN	?TranslateByWorldEntity@ioDummyChar@@UAEXABUD3DXVECTOR3@@@Z:PROC ; ioDummyChar::TranslateByWorldEntity
EXTRN	?MapCollisionPushingTranslate@ioDummyChar@@UAEXABUD3DXVECTOR3@@@Z:PROC ; ioDummyChar::MapCollisionPushingTranslate
EXTRN	?DontMoveCollisionPushingTranslate@ioGameEntity@@UAEXPAV1@ABUD3DXVECTOR3@@@Z:PROC ; ioGameEntity::DontMoveCollisionPushingTranslate
EXTRN	?Rotate@ioGameEntity@@UAEXABUD3DXVECTOR3@@MW4TransformSpace@ioNode@@@Z:PROC ; ioGameEntity::Rotate
EXTRN	?Scale@ioGameEntity@@UAEXMMM@Z:PROC		; ioGameEntity::Scale
EXTRN	?Scale@ioGameEntity@@UAEXABUD3DXVECTOR3@@@Z:PROC ; ioGameEntity::Scale
EXTRN	?GetWorldPosition@ioGameEntity@@UBEABUD3DXVECTOR3@@XZ:PROC ; ioGameEntity::GetWorldPosition
EXTRN	?GetWorldOrientation@ioGameEntity@@UBEABUD3DXQUATERNION@@XZ:PROC ; ioGameEntity::GetWorldOrientation
EXTRN	?GetWorldScale@ioGameEntity@@UBEABUD3DXVECTOR3@@XZ:PROC ; ioGameEntity::GetWorldScale
EXTRN	?ApplyWeapon@ioDummyChar@@UAE?AW4ApplyWeaponExp@@PAVioWeapon@@@Z:PROC ; ioDummyChar::ApplyWeapon
EXTRN	?IsCollisionAvailableWeapon@ioDummyChar@@UAE_NPAVioWeapon@@@Z:PROC ; ioDummyChar::IsCollisionAvailableWeapon
EXTRN	?IsCollisionAvailableRange@ioPlayEntity@@UAE_NPAVioWeapon@@@Z:PROC ; ioPlayEntity::IsCollisionAvailableRange
EXTRN	?IsEntityCollisionSkipState@ioDummyChar@@UBE_NPAVioGameEntity@@@Z:PROC ; ioDummyChar::IsEntityCollisionSkipState
EXTRN	?IsCharCollisionSkipState@ioDummyChar@@UBE_NW4TeamType@@H@Z:PROC ; ioDummyChar::IsCharCollisionSkipState
EXTRN	?IsWoundedCollision@ioPlayEntity@@UBE_NABVioOrientBox@@PAUD3DXVECTOR3@@@Z:PROC ; ioPlayEntity::IsWoundedCollision
EXTRN	?GetAttackCollisionBox@ioDummyChar@@UAE?AVioOrientBox@@W4AniCollisionType@@_N@Z:PROC ; ioDummyChar::GetAttackCollisionBox
EXTRN	?CheckSphereDistance@ioPlayEntity@@UBE_NABUD3DXVECTOR3@@MAAM@Z:PROC ; ioPlayEntity::CheckSphereDistance
EXTRN	?CheckSpherePoint@ioPlayEntity@@UBE_NABUD3DXVECTOR3@@MAAU2@@Z:PROC ; ioPlayEntity::CheckSpherePoint
EXTRN	?CheckCylinderPoint@ioPlayEntity@@UBE_NABVioCylinder@@ABUD3DXVECTOR3@@AAU3@@Z:PROC ; ioPlayEntity::CheckCylinderPoint
EXTRN	?GetSubType@ioDummyChar@@UBE?AW4PlaySubType@ioPlayEntity@@XZ:PROC ; ioDummyChar::GetSubType
EXTRN	?GetArmorType@ioDummyChar@@UBE?AW4ArmorType@@XZ:PROC ; ioDummyChar::GetArmorType
EXTRN	?DontMoveEntityLevel@ioDummyChar@@UBEHXZ:PROC	; ioDummyChar::DontMoveEntityLevel
EXTRN	?NotifyDontMoveCollisionPushingSkip@ioPlayEntity@@UAEXPAVioGameEntity@@@Z:PROC ; ioPlayEntity::NotifyDontMoveCollisionPushingSkip
EXTRN	?GetWorldEventReceiver@ioDummyChar@@UAEPAVioWorldEventReceiver@@XZ:PROC ; ioDummyChar::GetWorldEventReceiver
EXTRN	?Revival@ioPlayEntity@@UAEXXZ:PROC		; ioPlayEntity::Revival
EXTRN	?UpdateGauge@ioDummyChar@@UAEXXZ:PROC		; ioDummyChar::UpdateGauge
EXTRN	?RenderGauge@ioDummyChar@@UAEXXZ:PROC		; ioDummyChar::RenderGauge
EXTRN	?FillMaxHP@ioPlayEntity@@UAEXXZ:PROC		; ioPlayEntity::FillMaxHP
EXTRN	?ProcessRecovery@ioPlayEntity@@MAEXXZ:PROC	; ioPlayEntity::ProcessRecovery
EXTRN	?AddHeadDamageInfo@ioPlayEntity@@UAEXH_N@Z:PROC	; ioPlayEntity::AddHeadDamageInfo
EXTRN	?RenderHeadInfoList@ioPlayEntity@@UAEXHH@Z:PROC	; ioPlayEntity::RenderHeadInfoList
EXTRN	?UpdateHeadInfoList@ioPlayEntity@@MAEXK@Z:PROC	; ioPlayEntity::UpdateHeadInfoList
EXTRN	?InitDummyCharInfo@ioDummyChar@@UAEXHKABUD3DXVECTOR3@@0M_N@Z:PROC ; ioDummyChar::InitDummyCharInfo
EXTRN	?TestMapCollision@ioDummyChar@@UAE_NPAVioOpcodeShape@@PAVioPlayStage@@PBUD3DXMATRIX@@@Z:PROC ; ioDummyChar::TestMapCollision
EXTRN	?GetDummyGrassType@ioDummyChar@@UAEHXZ:PROC	; ioDummyChar::GetDummyGrassType
EXTRN	?IsActivateWeapon@ioDummyChar@@UAE_NXZ:PROC	; ioDummyChar::IsActivateWeapon
EXTRN	?IsDummyVsDummyCollisionSkipState@ioDummyChar@@UAE_NPBV1@@Z:PROC ; ioDummyChar::IsDummyVsDummyCollisionSkipState
EXTRN	?ProcessMoveState@ioDummyChar@@MAEXM@Z:PROC	; ioDummyChar::ProcessMoveState
EXTRN	?ProcessDashState@ioDummyChar@@MAEXM@Z:PROC	; ioDummyChar::ProcessDashState
EXTRN	?ProcessAttackState@ioDummyChar@@MAEXMK@Z:PROC	; ioDummyChar::ProcessAttackState
EXTRN	?SetMoveState@ioDummyChar@@UAEXXZ:PROC		; ioDummyChar::SetMoveState
EXTRN	?SetDieState@ioDummyChar@@UAEX_N0@Z:PROC	; ioDummyChar::SetDieState
EXTRN	?SetDashState@ioDummyChar@@UAEXXZ:PROC		; ioDummyChar::SetDashState
EXTRN	?SetAttackState@ioDummyChar@@UAEXXZ:PROC	; ioDummyChar::SetAttackState
EXTRN	?SendAttackInfoToSkill@ioDummyChar@@MAEXXZ:PROC	; ioDummyChar::SendAttackInfoToSkill
EXTRN	?CheckCollisionWeapon@ioDummyChar@@UAEXPAVioBaseChar@@@Z:PROC ; ioDummyChar::CheckCollisionWeapon
EXTRN	?TranslateMountEntity@ioDummyChar@@MAEXABUD3DXVECTOR3@@@Z:PROC ; ioDummyChar::TranslateMountEntity
EXTRN	?ClearMountEntity@ioDummyChar@@MAEXXZ:PROC	; ioDummyChar::ClearMountEntity
EXTRN	?UpdateMountedEntityList@ioDummyChar@@MAEXXZ:PROC ; ioDummyChar::UpdateMountedEntityList
EXTRN	?UpdateMountedWeaponList@ioDummyChar@@MAEXXZ:PROC ; ioDummyChar::UpdateMountedWeaponList
EXTRN	?SetWorldPositionMountEntity@ioDummyChar@@MAEXM@Z:PROC ; ioDummyChar::SetWorldPositionMountEntity
EXTRN	?DummyDieClearMountEntity@ioDummyChar@@MAEXXZ:PROC ; ioDummyChar::DummyDieClearMountEntity
EXTRN	?FillDummyCharMidSync@ioDummyChar@@UAEXPAVioBaseChar@@AAVSP2Packet@@@Z:PROC ; ioDummyChar::FillDummyCharMidSync
EXTRN	?ApplyDummyCharMidSync@ioDummyChar@@UAEXPAVioBaseChar@@AAVSP2Packet@@@Z:PROC ; ioDummyChar::ApplyDummyCharMidSync
EXTRN	?GetSkillMaxActiveCnt@ioDummyChar@@UAEHXZ:PROC	; ioDummyChar::GetSkillMaxActiveCnt
EXTRN	?GetSkillCurActiveCnt@ioDummyChar@@UAEHXZ:PROC	; ioDummyChar::GetSkillCurActiveCnt
EXTRN	?OnTelepotation@ioDummyChar@@UAEXABUD3DXVECTOR3@@@Z:PROC ; ioDummyChar::OnTelepotation
EXTRN	?OnFireZoneDamage@ioDummyChar@@UAEXMABVioHashString@@@Z:PROC ; ioDummyChar::OnFireZoneDamage
EXTRN	?OnPoisonZoneDamage@ioDummyChar@@UAEXXZ:PROC	; ioDummyChar::OnPoisonZoneDamage
;	COMDAT ??_R4ioTargetTrace16Dummy@@6BioWorldEventReceiver@@@
; File c:\program files (x86)\microsoft visual studio 10.0\vc\include\xutility
rdata$r	SEGMENT
??_R4ioTargetTrace16Dummy@@6BioWorldEventReceiver@@@ DD 00H ; ioTargetTrace16Dummy::`RTTI Complete Object Locator'
	DD	01c8H
	DD	00H
	DD	FLAT:??_R0?AVioTargetTrace16Dummy@@@8
	DD	FLAT:??_R3ioTargetTrace16Dummy@@8
rdata$r	ENDS
;	COMDAT ??_R1A@?0A@EA@ioWorldEventReceiver@@8
rdata$r	SEGMENT
??_R1A@?0A@EA@ioWorldEventReceiver@@8 DD FLAT:??_R0?AVioWorldEventReceiver@@@8 ; ioWorldEventReceiver::`RTTI Base Class Descriptor at (0,-1,0,64)'
	DD	00H
	DD	00H
	DD	0ffffffffH
	DD	00H
	DD	040H
	DD	FLAT:??_R3ioWorldEventReceiver@@8
rdata$r	ENDS
;	COMDAT ??_R2ioWorldEventReceiver@@8
rdata$r	SEGMENT
??_R2ioWorldEventReceiver@@8 DD FLAT:??_R1A@?0A@EA@ioWorldEventReceiver@@8 ; ioWorldEventReceiver::`RTTI Base Class Array'
rdata$r	ENDS
;	COMDAT ??_R3ioWorldEventReceiver@@8
rdata$r	SEGMENT
??_R3ioWorldEventReceiver@@8 DD 00H			; ioWorldEventReceiver::`RTTI Class Hierarchy Descriptor'
	DD	00H
	DD	01H
	DD	FLAT:??_R2ioWorldEventReceiver@@8
rdata$r	ENDS
;	COMDAT ??_R0?AVioWorldEventReceiver@@@8
_DATA	SEGMENT
??_R0?AVioWorldEventReceiver@@@8 DD FLAT:??_7type_info@@6B@ ; ioWorldEventReceiver `RTTI Type Descriptor'
	DD	00H
	DB	'.?AVioWorldEventReceiver@@', 00H
_DATA	ENDS
;	COMDAT ??_R1BMI@?0A@EA@ioWorldEventReceiver@@8
rdata$r	SEGMENT
??_R1BMI@?0A@EA@ioWorldEventReceiver@@8 DD FLAT:??_R0?AVioWorldEventReceiver@@@8 ; ioWorldEventReceiver::`RTTI Base Class Descriptor at (456,-1,0,64)'
	DD	00H
	DD	01c8H
	DD	0ffffffffH
	DD	00H
	DD	040H
	DD	FLAT:??_R3ioWorldEventReceiver@@8
rdata$r	ENDS
;	COMDAT ??_R2ioEntityEvent@@8
rdata$r	SEGMENT
??_R2ioEntityEvent@@8 DD FLAT:??_R1A@?0A@EA@ioEntityEvent@@8 ; ioEntityEvent::`RTTI Base Class Array'
rdata$r	ENDS
;	COMDAT ??_R3ioEntityEvent@@8
rdata$r	SEGMENT
??_R3ioEntityEvent@@8 DD 00H				; ioEntityEvent::`RTTI Class Hierarchy Descriptor'
	DD	00H
	DD	01H
	DD	FLAT:??_R2ioEntityEvent@@8
rdata$r	ENDS
;	COMDAT ??_R0?AVioEntityEvent@@@8
_DATA	SEGMENT
??_R0?AVioEntityEvent@@@8 DD FLAT:??_7type_info@@6B@	; ioEntityEvent `RTTI Type Descriptor'
	DD	00H
	DB	'.?AVioEntityEvent@@', 00H
_DATA	ENDS
;	COMDAT ??_R1A@?0A@EA@ioEntityEvent@@8
rdata$r	SEGMENT
??_R1A@?0A@EA@ioEntityEvent@@8 DD FLAT:??_R0?AVioEntityEvent@@@8 ; ioEntityEvent::`RTTI Base Class Descriptor at (0,-1,0,64)'
	DD	00H
	DD	00H
	DD	0ffffffffH
	DD	00H
	DD	040H
	DD	FLAT:??_R3ioEntityEvent@@8
rdata$r	ENDS
;	COMDAT ??_R2ioGameEntity@@8
rdata$r	SEGMENT
??_R2ioGameEntity@@8 DD FLAT:??_R1A@?0A@EA@ioGameEntity@@8 ; ioGameEntity::`RTTI Base Class Array'
	DD	FLAT:??_R1A@?0A@EA@ioEntityEvent@@8
rdata$r	ENDS
;	COMDAT ??_R3ioGameEntity@@8
rdata$r	SEGMENT
??_R3ioGameEntity@@8 DD 00H				; ioGameEntity::`RTTI Class Hierarchy Descriptor'
	DD	00H
	DD	02H
	DD	FLAT:??_R2ioGameEntity@@8
rdata$r	ENDS
;	COMDAT ??_R1A@?0A@EA@ioGameEntity@@8
rdata$r	SEGMENT
??_R1A@?0A@EA@ioGameEntity@@8 DD FLAT:??_R0?AVioGameEntity@@@8 ; ioGameEntity::`RTTI Base Class Descriptor at (0,-1,0,64)'
	DD	01H
	DD	00H
	DD	0ffffffffH
	DD	00H
	DD	040H
	DD	FLAT:??_R3ioGameEntity@@8
rdata$r	ENDS
;	COMDAT ??_R2ioPlayEntity@@8
rdata$r	SEGMENT
??_R2ioPlayEntity@@8 DD FLAT:??_R1A@?0A@EA@ioPlayEntity@@8 ; ioPlayEntity::`RTTI Base Class Array'
	DD	FLAT:??_R1A@?0A@EA@ioGameEntity@@8
	DD	FLAT:??_R1A@?0A@EA@ioEntityEvent@@8
rdata$r	ENDS
;	COMDAT ??_R3ioPlayEntity@@8
rdata$r	SEGMENT
??_R3ioPlayEntity@@8 DD 00H				; ioPlayEntity::`RTTI Class Hierarchy Descriptor'
	DD	00H
	DD	03H
	DD	FLAT:??_R2ioPlayEntity@@8
rdata$r	ENDS
;	COMDAT ??_R1A@?0A@EA@ioPlayEntity@@8
rdata$r	SEGMENT
??_R1A@?0A@EA@ioPlayEntity@@8 DD FLAT:??_R0?AVioPlayEntity@@@8 ; ioPlayEntity::`RTTI Base Class Descriptor at (0,-1,0,64)'
	DD	02H
	DD	00H
	DD	0ffffffffH
	DD	00H
	DD	040H
	DD	FLAT:??_R3ioPlayEntity@@8
rdata$r	ENDS
;	COMDAT ??_R2ioDummyChar@@8
rdata$r	SEGMENT
??_R2ioDummyChar@@8 DD FLAT:??_R1A@?0A@EA@ioDummyChar@@8 ; ioDummyChar::`RTTI Base Class Array'
	DD	FLAT:??_R1A@?0A@EA@ioPlayEntity@@8
	DD	FLAT:??_R1A@?0A@EA@ioGameEntity@@8
	DD	FLAT:??_R1A@?0A@EA@ioEntityEvent@@8
	DD	FLAT:??_R1BMI@?0A@EA@ioWorldEventReceiver@@8
rdata$r	ENDS
;	COMDAT ??_R3ioDummyChar@@8
rdata$r	SEGMENT
??_R3ioDummyChar@@8 DD 00H				; ioDummyChar::`RTTI Class Hierarchy Descriptor'
	DD	01H
	DD	05H
	DD	FLAT:??_R2ioDummyChar@@8
rdata$r	ENDS
;	COMDAT ??_R0?AVioDummyChar@@@8
_DATA	SEGMENT
??_R0?AVioDummyChar@@@8 DD FLAT:??_7type_info@@6B@	; ioDummyChar `RTTI Type Descriptor'
	DD	00H
	DB	'.?AVioDummyChar@@', 00H
_DATA	ENDS
;	COMDAT ??_R1A@?0A@EA@ioDummyChar@@8
rdata$r	SEGMENT
??_R1A@?0A@EA@ioDummyChar@@8 DD FLAT:??_R0?AVioDummyChar@@@8 ; ioDummyChar::`RTTI Base Class Descriptor at (0,-1,0,64)'
	DD	04H
	DD	00H
	DD	0ffffffffH
	DD	00H
	DD	040H
	DD	FLAT:??_R3ioDummyChar@@8
rdata$r	ENDS
;	COMDAT ??_R1A@?0A@EA@ioTargetTrace16Dummy@@8
rdata$r	SEGMENT
??_R1A@?0A@EA@ioTargetTrace16Dummy@@8 DD FLAT:??_R0?AVioTargetTrace16Dummy@@@8 ; ioTargetTrace16Dummy::`RTTI Base Class Descriptor at (0,-1,0,64)'
	DD	05H
	DD	00H
	DD	0ffffffffH
	DD	00H
	DD	040H
	DD	FLAT:??_R3ioTargetTrace16Dummy@@8
rdata$r	ENDS
;	COMDAT ??_R2ioTargetTrace16Dummy@@8
rdata$r	SEGMENT
??_R2ioTargetTrace16Dummy@@8 DD FLAT:??_R1A@?0A@EA@ioTargetTrace16Dummy@@8 ; ioTargetTrace16Dummy::`RTTI Base Class Array'
	DD	FLAT:??_R1A@?0A@EA@ioDummyChar@@8
	DD	FLAT:??_R1A@?0A@EA@ioPlayEntity@@8
	DD	FLAT:??_R1A@?0A@EA@ioGameEntity@@8
	DD	FLAT:??_R1A@?0A@EA@ioEntityEvent@@8
	DD	FLAT:??_R1BMI@?0A@EA@ioWorldEventReceiver@@8
rdata$r	ENDS
;	COMDAT ??_R3ioTargetTrace16Dummy@@8
rdata$r	SEGMENT
??_R3ioTargetTrace16Dummy@@8 DD 00H			; ioTargetTrace16Dummy::`RTTI Class Hierarchy Descriptor'
	DD	01H
	DD	06H
	DD	FLAT:??_R2ioTargetTrace16Dummy@@8
rdata$r	ENDS
;	COMDAT ??_R0?AVioTargetTrace16Dummy@@@8
_DATA	SEGMENT
??_R0?AVioTargetTrace16Dummy@@@8 DD FLAT:??_7type_info@@6B@ ; ioTargetTrace16Dummy `RTTI Type Descriptor'
	DD	00H
	DB	'.?AVioTargetTrace16Dummy@@', 00H
_DATA	ENDS
;	COMDAT ??_R4ioTargetTrace16Dummy@@6BioPlayEntity@@@
rdata$r	SEGMENT
??_R4ioTargetTrace16Dummy@@6BioPlayEntity@@@ DD 00H	; ioTargetTrace16Dummy::`RTTI Complete Object Locator'
	DD	00H
	DD	00H
	DD	FLAT:??_R0?AVioTargetTrace16Dummy@@@8
	DD	FLAT:??_R3ioTargetTrace16Dummy@@8
rdata$r	ENDS
;	COMDAT ??_7ioTargetTrace16Dummy@@6BioWorldEventReceiver@@@
CONST	SEGMENT
??_7ioTargetTrace16Dummy@@6BioWorldEventReceiver@@@ DD FLAT:??_R4ioTargetTrace16Dummy@@6BioWorldEventReceiver@@@ ; ioTargetTrace16Dummy::`vftable'
	DD	FLAT:?OnTelepotation@ioDummyChar@@UAEXABUD3DXVECTOR3@@@Z
	DD	FLAT:?OnFireZoneDamage@ioDummyChar@@UAEXMABVioHashString@@@Z
	DD	FLAT:?OnPoisonZoneDamage@ioDummyChar@@UAEXXZ
	DD	FLAT:??_EioTargetTrace16Dummy@@WBMI@AEPAXI@Z
CONST	ENDS
;	COMDAT ??_7ioTargetTrace16Dummy@@6BioPlayEntity@@@
CONST	SEGMENT
??_7ioTargetTrace16Dummy@@6BioPlayEntity@@@ DD FLAT:??_R4ioTargetTrace16Dummy@@6BioPlayEntity@@@ ; ioTargetTrace16Dummy::`vftable'
	DD	FLAT:?AddEntityEvent@ioDummyChar@@UAEXPAVioEntity@@@Z
	DD	FLAT:??_EioTargetTrace16Dummy@@UAEPAXI@Z
	DD	FLAT:?Update@ioDummyChar@@UAEXMKK@Z
	DD	FLAT:?UpdateAfter@ioDummyChar@@UAEXM@Z
	DD	FLAT:?GetTypeID@ioPlayEntity@@UBEHXZ
	DD	FLAT:?IsNeedCheckMapCollision@ioDummyChar@@UBE_NXZ
	DD	FLAT:?IsMountAvailable@ioDummyChar@@UBE_NXZ
	DD	FLAT:?IsMountingAvailable@ioDummyChar@@UBE_NXZ
	DD	FLAT:?IsNowMountEnable@ioDummyChar@@UBE_NXZ
	DD	FLAT:?IsAllWeaponDefence@ioGameEntity@@UBE_NXZ
	DD	FLAT:?HasEntity@ioGameEntity@@UAE_NABVioHashString@@@Z
	DD	FLAT:?AddEntity@ioGameEntity@@UAEPAVioEntity@@ABVioHashString@@@Z
	DD	FLAT:?DestroyEntity@ioGameEntity@@UAE_NABVioHashString@@@Z
	DD	FLAT:?GetEntity@ioGameEntity@@UAEPAVioEntity@@ABVioHashString@@@Z
	DD	FLAT:?UpdateBound@ioGameEntity@@MBEXXZ
	DD	FLAT:?UpdateBottomHeight@ioDummyChar@@MBEXXZ
	DD	FLAT:?NeedUpdateBottomHeight@ioDummyChar@@UAEXXZ
	DD	FLAT:?SetWorldPosition@ioGameEntity@@UAEXABUD3DXVECTOR3@@@Z
	DD	FLAT:?SetWorldOrientation@ioGameEntity@@UAEXABUD3DXQUATERNION@@@Z
	DD	FLAT:?SetWorldScale@ioGameEntity@@UAEXABUD3DXVECTOR3@@@Z
	DD	FLAT:?Translate@ioDummyChar@@UAEXABUD3DXVECTOR3@@@Z
	DD	FLAT:?TranslateByConveyer@ioDummyChar@@UAEXABUD3DXVECTOR3@@@Z
	DD	FLAT:?TranslateByWorldEntity@ioDummyChar@@UAEXABUD3DXVECTOR3@@@Z
	DD	FLAT:?MapCollisionPushingTranslate@ioDummyChar@@UAEXABUD3DXVECTOR3@@@Z
	DD	FLAT:?DontMoveCollisionPushingTranslate@ioGameEntity@@UAEXPAV1@ABUD3DXVECTOR3@@@Z
	DD	FLAT:?Rotate@ioGameEntity@@UAEXABUD3DXVECTOR3@@MW4TransformSpace@ioNode@@@Z
	DD	FLAT:?Scale@ioGameEntity@@UAEXMMM@Z
	DD	FLAT:?Scale@ioGameEntity@@UAEXABUD3DXVECTOR3@@@Z
	DD	FLAT:?GetWorldPosition@ioGameEntity@@UBEABUD3DXVECTOR3@@XZ
	DD	FLAT:?GetWorldOrientation@ioGameEntity@@UBEABUD3DXQUATERNION@@XZ
	DD	FLAT:?GetWorldScale@ioGameEntity@@UBEABUD3DXVECTOR3@@XZ
	DD	FLAT:?ApplyWeapon@ioDummyChar@@UAE?AW4ApplyWeaponExp@@PAVioWeapon@@@Z
	DD	FLAT:?IsCollisionAvailableWeapon@ioDummyChar@@UAE_NPAVioWeapon@@@Z
	DD	FLAT:?IsCollisionAvailableRange@ioPlayEntity@@UAE_NPAVioWeapon@@@Z
	DD	FLAT:?IsEntityCollisionSkipState@ioDummyChar@@UBE_NPAVioGameEntity@@@Z
	DD	FLAT:?IsCharCollisionSkipState@ioDummyChar@@UBE_NW4TeamType@@H@Z
	DD	FLAT:?IsWoundedCollision@ioPlayEntity@@UBE_NABVioOrientBox@@PAUD3DXVECTOR3@@@Z
	DD	FLAT:?GetAttackCollisionBox@ioDummyChar@@UAE?AVioOrientBox@@W4AniCollisionType@@_N@Z
	DD	FLAT:?CheckSphereDistance@ioPlayEntity@@UBE_NABUD3DXVECTOR3@@MAAM@Z
	DD	FLAT:?CheckSpherePoint@ioPlayEntity@@UBE_NABUD3DXVECTOR3@@MAAU2@@Z
	DD	FLAT:?CheckCylinderPoint@ioPlayEntity@@UBE_NABVioCylinder@@ABUD3DXVECTOR3@@AAU3@@Z
	DD	FLAT:?GetSubType@ioDummyChar@@UBE?AW4PlaySubType@ioPlayEntity@@XZ
	DD	FLAT:?GetArmorType@ioDummyChar@@UBE?AW4ArmorType@@XZ
	DD	FLAT:?DontMoveEntityLevel@ioDummyChar@@UBEHXZ
	DD	FLAT:?NotifyDontMoveCollisionPushingSkip@ioPlayEntity@@UAEXPAVioGameEntity@@@Z
	DD	FLAT:?LoadProperty@ioTargetTrace16Dummy@@UAEXAAVioINILoader@@@Z
	DD	FLAT:?GetWorldEventReceiver@ioDummyChar@@UAEPAVioWorldEventReceiver@@XZ
	DD	FLAT:?Revival@ioPlayEntity@@UAEXXZ
	DD	FLAT:?UpdateGauge@ioDummyChar@@UAEXXZ
	DD	FLAT:?RenderGauge@ioDummyChar@@UAEXXZ
	DD	FLAT:?FillMaxHP@ioPlayEntity@@UAEXXZ
	DD	FLAT:?ProcessRecovery@ioPlayEntity@@MAEXXZ
	DD	FLAT:?AddHeadDamageInfo@ioPlayEntity@@UAEXH_N@Z
	DD	FLAT:?RenderHeadInfoList@ioPlayEntity@@UAEXHH@Z
	DD	FLAT:?UpdateHeadInfoList@ioPlayEntity@@MAEXK@Z
	DD	FLAT:?SetTeam@ioPlayEntity@@UAEXW4TeamType@@@Z
	DD	FLAT:?InitDummyCharInfo@ioDummyChar@@UAEXHKABUD3DXVECTOR3@@0M_N@Z
	DD	FLAT:?TestMapCollision@ioDummyChar@@UAE_NPAVioOpcodeShape@@PAVioPlayStage@@PBUD3DXMATRIX@@@Z
	DD	FLAT:?CheckEntityCollision@ioTargetTrace16Dummy@@MAEXPAVioPlayEntity@@@Z
	DD	FLAT:?GetDummyGrassType@ioDummyChar@@UAEHXZ
	DD	FLAT:?IsActivateWeapon@ioDummyChar@@UAE_NXZ
	DD	FLAT:?IsDummyVsDummyCollisionSkipState@ioDummyChar@@UAE_NPBV1@@Z
	DD	FLAT:?ProcessState@ioTargetTrace16Dummy@@MAEXMK@Z
	DD	FLAT:?ProcessPos@ioTargetTrace16Dummy@@EAEXM@Z
	DD	FLAT:?ProcessDelayState@ioTargetTrace16Dummy@@MAEXM@Z
	DD	FLAT:?ProcessMoveState@ioDummyChar@@MAEXM@Z
	DD	FLAT:?ProcessDashState@ioDummyChar@@MAEXM@Z
	DD	FLAT:?ProcessAttackState@ioDummyChar@@MAEXMK@Z
	DD	FLAT:?ApplyDummyCharSync@ioTargetTrace16Dummy@@UAEXPAVioPlayStage@@AAVSP2Packet@@@Z
	DD	FLAT:?SetDelayState@ioTargetTrace16Dummy@@EAEX_N@Z
	DD	FLAT:?SetMoveState@ioDummyChar@@UAEXXZ
	DD	FLAT:?SetDieState@ioDummyChar@@UAEX_N0@Z
	DD	FLAT:?SetDashState@ioDummyChar@@UAEXXZ
	DD	FLAT:?SetAttackState@ioDummyChar@@UAEXXZ
	DD	FLAT:?DropZoneCheck@ioTargetTrace16Dummy@@EAEXXZ
	DD	FLAT:?SendAttackInfoToSkill@ioDummyChar@@MAEXXZ
	DD	FLAT:?CheckCollisionWeapon@ioDummyChar@@UAEXPAVioBaseChar@@@Z
	DD	FLAT:?TranslateMountEntity@ioDummyChar@@MAEXABUD3DXVECTOR3@@@Z
	DD	FLAT:?ClearMountEntity@ioDummyChar@@MAEXXZ
	DD	FLAT:?UpdateMountedEntityList@ioDummyChar@@MAEXXZ
	DD	FLAT:?UpdateMountedWeaponList@ioDummyChar@@MAEXXZ
	DD	FLAT:?SetWorldPositionMountEntity@ioDummyChar@@MAEXM@Z
	DD	FLAT:?DummyDieClearMountEntity@ioDummyChar@@MAEXXZ
	DD	FLAT:?IsDummyCharMidSync@ioDummyChar@@UAE_NXZ
	DD	FLAT:?FillDummyCharMidSync@ioDummyChar@@UAEXPAVioBaseChar@@AAVSP2Packet@@@Z
	DD	FLAT:?ApplyDummyCharMidSync@ioDummyChar@@UAEXPAVioBaseChar@@AAVSP2Packet@@@Z
	DD	FLAT:?GetSkillMaxActiveCnt@ioDummyChar@@UAEHXZ
	DD	FLAT:?GetSkillCurActiveCnt@ioDummyChar@@UAEHXZ
	DD	FLAT:?SetDieState@ioTargetTrace16Dummy@@UAEX_N@Z
CONST	ENDS
;	COMDAT xdata$x
xdata$x	SEGMENT
__unwindtable$??0ioTargetTrace16Dummy@@QAE@PAVioEntityGroup@@PAVioPlayMode@@@Z DD 0ffffffffH
	DD	FLAT:__unwindfunclet$??0ioTargetTrace16Dummy@@QAE@PAVioEntityGroup@@PAVioPlayMode@@@Z$0
	DD	00H
	DD	FLAT:__unwindfunclet$??0ioTargetTrace16Dummy@@QAE@PAVioEntityGroup@@PAVioPlayMode@@@Z$1
	DD	01H
	DD	FLAT:__unwindfunclet$??0ioTargetTrace16Dummy@@QAE@PAVioEntityGroup@@PAVioPlayMode@@@Z$2
__ehfuncinfo$??0ioTargetTrace16Dummy@@QAE@PAVioEntityGroup@@PAVioPlayMode@@@Z DD 019930522H
	DD	03H
	DD	FLAT:__unwindtable$??0ioTargetTrace16Dummy@@QAE@PAVioEntityGroup@@PAVioPlayMode@@@Z
	DD	2 DUP(00H)
	DD	2 DUP(00H)
	DD	00H
	DD	01H
; Function compile flags: /Ogsp
; File d:\lost saga for developer\youtube\tutorial\source\src\lsclient\iotargettrace16dummy.cpp
xdata$x	ENDS
;	COMDAT ??0ioTargetTrace16Dummy@@QAE@PAVioEntityGroup@@PAVioPlayMode@@@Z
_TEXT	SEGMENT
_this$ = -16						; size = 4
__$EHRec$ = -12						; size = 12
_pGrp$ = 8						; size = 4
$T541946 = 12						; size = 4
_pMode$ = 12						; size = 4
??0ioTargetTrace16Dummy@@QAE@PAVioEntityGroup@@PAVioPlayMode@@@Z PROC ; ioTargetTrace16Dummy::ioTargetTrace16Dummy, COMDAT
; _this$ = ecx

; 10   : {

  00000	6a 04		 push	 4
  00002	b8 00 00 00 00	 mov	 eax, __ehhandler$??0ioTargetTrace16Dummy@@QAE@PAVioEntityGroup@@PAVioPlayMode@@@Z
  00007	e8 00 00 00 00	 call	 __EH_prolog3
  0000c	8b f1		 mov	 esi, ecx
  0000e	89 75 f0	 mov	 DWORD PTR _this$[ebp], esi
  00011	ff 75 0c	 push	 DWORD PTR _pMode$[ebp]
  00014	ff 75 08	 push	 DWORD PTR _pGrp$[ebp]
  00017	e8 00 00 00 00	 call	 ??0ioDummyChar@@QAE@PAVioEntityGroup@@PAVioPlayMode@@@Z ; ioDummyChar::ioDummyChar
  0001c	8b 1d 00 00 00
	00		 mov	 ebx, DWORD PTR __imp_??0ioHashString@@QAE@XZ
  00022	83 65 fc 00	 and	 DWORD PTR __$EHRec$[ebp+8], 0
  00026	8d 8e 94 14 00
	00		 lea	 ecx, DWORD PTR [esi+5268]
  0002c	c7 06 00 00 00
	00		 mov	 DWORD PTR [esi], OFFSET ??_7ioTargetTrace16Dummy@@6BioPlayEntity@@@
  00032	c7 86 c8 01 00
	00 00 00 00 00	 mov	 DWORD PTR [esi+456], OFFSET ??_7ioTargetTrace16Dummy@@6BioWorldEventReceiver@@@
  0003c	ff d3		 call	 ebx
  0003e	33 c0		 xor	 eax, eax
  00040	89 86 a8 14 00
	00		 mov	 DWORD PTR [esi+5288], eax
  00046	89 86 ac 14 00
	00		 mov	 DWORD PTR [esi+5292], eax
  0004c	89 86 b0 14 00
	00		 mov	 DWORD PTR [esi+5296], eax
  00052	8d 8e b8 14 00
	00		 lea	 ecx, DWORD PTR [esi+5304]
  00058	c6 45 fc 02	 mov	 BYTE PTR __$EHRec$[ebp+8], 2
  0005c	ff d3		 call	 ebx

; 11   : 	m_TraceDummyState = TDS_START;

  0005e	33 db		 xor	 ebx, ebx
  00060	89 9e 80 14 00
	00		 mov	 DWORD PTR [esi+5248], ebx

; 12   : 	m_dwJumpStartTime = 0;

  00066	89 9e 90 14 00
	00		 mov	 DWORD PTR [esi+5264], ebx

; 13   : 	m_iCurAttackCount = 0;

  0006c	89 9e 8c 14 00
	00		 mov	 DWORD PTR [esi+5260], ebx

; 14   : 	m_vWeaponIndexList.clear();

  00072	8b 86 ac 14 00
	00		 mov	 eax, DWORD PTR [esi+5292]
  00078	8b 8e a8 14 00
	00		 mov	 ecx, DWORD PTR [esi+5288]
  0007e	50		 push	 eax
  0007f	51		 push	 ecx
  00080	8d 45 0c	 lea	 eax, DWORD PTR $T541946[ebp]
  00083	50		 push	 eax
  00084	8d 8e a8 14 00
	00		 lea	 ecx, DWORD PTR [esi+5288]
  0008a	e8 00 00 00 00	 call	 ?erase@?$vector@KV?$allocator@K@std@@@std@@QAE?AV?$_Vector_iterator@V?$_Vector_val@KV?$allocator@K@std@@@std@@@2@V?$_Vector_const_iterator@V?$_Vector_val@KV?$allocator@K@std@@@std@@@2@0@Z ; std::vector<unsigned long,std::allocator<unsigned long> >::erase

; 15   : 	m_dwReturnEndTime = 0;

  0008f	89 9e d0 14 00
	00		 mov	 DWORD PTR [esi+5328], ebx

; 16   : }

  00095	8b c6		 mov	 eax, esi
  00097	e8 00 00 00 00	 call	 __EH_epilog3
  0009c	c2 08 00	 ret	 8
_TEXT	ENDS
;	COMDAT text$x
text$x	SEGMENT
__unwindfunclet$??0ioTargetTrace16Dummy@@QAE@PAVioEntityGroup@@PAVioPlayMode@@@Z$0:
  00000	8b 4d f0	 mov	 ecx, DWORD PTR _this$[ebp]
  00003	e9 00 00 00 00	 jmp	 ??1ioDummyChar@@UAE@XZ	; ioDummyChar::~ioDummyChar
__unwindfunclet$??0ioTargetTrace16Dummy@@QAE@PAVioEntityGroup@@PAVioPlayMode@@@Z$1:
  00008	8b 4d f0	 mov	 ecx, DWORD PTR _this$[ebp]
  0000b	81 c1 94 14 00
	00		 add	 ecx, 5268		; 00001494H
  00011	ff 25 00 00 00
	00		 jmp	 DWORD PTR __imp_??1ioHashString@@QAE@XZ
__unwindfunclet$??0ioTargetTrace16Dummy@@QAE@PAVioEntityGroup@@PAVioPlayMode@@@Z$2:
  00017	8b 4d f0	 mov	 ecx, DWORD PTR _this$[ebp]
  0001a	81 c1 a8 14 00
	00		 add	 ecx, 5288		; 000014a8H
  00020	e9 00 00 00 00	 jmp	 ??1?$vector@KV?$allocator@K@std@@@std@@QAE@XZ ; std::vector<unsigned long,std::allocator<unsigned long> >::~vector<unsigned long,std::allocator<unsigned long> >
__ehhandler$??0ioTargetTrace16Dummy@@QAE@PAVioEntityGroup@@PAVioPlayMode@@@Z:
  00025	8b 54 24 08	 mov	 edx, DWORD PTR [esp+8]
  00029	8d 42 0c	 lea	 eax, DWORD PTR [edx+12]
  0002c	8b 4a ec	 mov	 ecx, DWORD PTR [edx-20]
  0002f	33 c8		 xor	 ecx, eax
  00031	e8 00 00 00 00	 call	 @__security_check_cookie@4
  00036	b8 00 00 00 00	 mov	 eax, OFFSET __ehfuncinfo$??0ioTargetTrace16Dummy@@QAE@PAVioEntityGroup@@PAVioPlayMode@@@Z
  0003b	e9 00 00 00 00	 jmp	 ___CxxFrameHandler3
text$x	ENDS
??0ioTargetTrace16Dummy@@QAE@PAVioEntityGroup@@PAVioPlayMode@@@Z ENDP ; ioTargetTrace16Dummy::ioTargetTrace16Dummy
; Function compile flags: /Odsp
;	COMDAT ??_EioTargetTrace16Dummy@@WBMI@AEPAXI@Z
_TEXT	SEGMENT
??_EioTargetTrace16Dummy@@WBMI@AEPAXI@Z PROC		; [thunk]:ioTargetTrace16Dummy::`vector deleting destructor', COMDAT
  00000	81 e9 c8 01 00
	00		 sub	 ecx, 456		; 000001c8H
  00006	e9 00 00 00 00	 jmp	 ??_EioTargetTrace16Dummy@@UAEPAXI@Z
??_EioTargetTrace16Dummy@@WBMI@AEPAXI@Z ENDP		; [thunk]:ioTargetTrace16Dummy::`vector deleting destructor'
; Function compile flags: /Ogsp
; File d:\lost saga for developer\youtube\tutorial\source\src\lsclient\iodummychar.h
_TEXT	ENDS
;	COMDAT ?IsDummyCharMidSync@ioDummyChar@@UAE_NXZ
_TEXT	SEGMENT
?IsDummyCharMidSync@ioDummyChar@@UAE_NXZ PROC		; ioDummyChar::IsDummyCharMidSync, COMDAT
; _this$ = ecx

; 742  : 	virtual bool IsDummyCharMidSync(){ return false; }

  00000	32 c0		 xor	 al, al
  00002	c3		 ret	 0
?IsDummyCharMidSync@ioDummyChar@@UAE_NXZ ENDP		; ioDummyChar::IsDummyCharMidSync
_TEXT	ENDS
PUBLIC	?EncryptValueToPool@?$CEncrypt@W4TeamType@@@@AAEXPBD@Z ; CEncrypt<enum TeamType>::EncryptValueToPool
; Function compile flags: /Ogsp
; File d:\lost saga for developer\youtube\tutorial\source\src\lsclient\encryptvalue.h
;	COMDAT ?EncryptValueToPool@?$CEncrypt@W4TeamType@@@@AAEXPBD@Z
_TEXT	SEGMENT
_value$ = 8						; size = 4
?EncryptValueToPool@?$CEncrypt@W4TeamType@@@@AAEXPBD@Z PROC ; CEncrypt<enum TeamType>::EncryptValueToPool, COMDAT
; _this$ = ecx

; 67   : 	{

  00000	55		 push	 ebp
  00001	8b ec		 mov	 ebp, esp

; 68   : 		m_RC5.EncryptByte( value, m_MemPool, max(m_ValueSize, DEFAULT_ENCRYPT) );

  00003	0f b7 41 06	 movzx	 eax, WORD PTR [ecx+6]
  00007	83 f8 04	 cmp	 eax, 4
  0000a	77 03		 ja	 SHORT $LN4@EncryptVal@3
  0000c	6a 04		 push	 4
  0000e	58		 pop	 eax
$LN4@EncryptVal@3:
  0000f	50		 push	 eax
  00010	8d 41 1c	 lea	 eax, DWORD PTR [ecx+28]
  00013	50		 push	 eax
  00014	ff 75 08	 push	 DWORD PTR _value$[ebp]
  00017	83 c1 0c	 add	 ecx, 12			; 0000000cH
  0001a	e8 00 00 00 00	 call	 ?EncryptByte@ccddaabb@@QAEXPBDPADH@Z ; ccddaabb::EncryptByte

; 69   : 		
; 70   : 	}

  0001f	5d		 pop	 ebp
  00020	c2 04 00	 ret	 4
?EncryptValueToPool@?$CEncrypt@W4TeamType@@@@AAEXPBD@Z ENDP ; CEncrypt<enum TeamType>::EncryptValueToPool
_TEXT	ENDS
PUBLIC	??4?$CEncrypt@W4TeamType@@@@QAE?AW4TeamType@@W41@@Z ; CEncrypt<enum TeamType>::operator=
; Function compile flags: /Ogsp
;	COMDAT ??4?$CEncrypt@W4TeamType@@@@QAE?AW4TeamType@@W41@@Z
_TEXT	SEGMENT
_value$ = 8						; size = 4
_inValue$ = 8						; size = 4
??4?$CEncrypt@W4TeamType@@@@QAE?AW4TeamType@@W41@@Z PROC ; CEncrypt<enum TeamType>::operator=, COMDAT
; _this$ = ecx

; 2965 : 	{

  00000	55		 push	 ebp
  00001	8b ec		 mov	 ebp, esp

; 2966 : 		type value = inValue;

  00003	8b 45 08	 mov	 eax, DWORD PTR _inValue$[ebp]
  00006	89 45 08	 mov	 DWORD PTR _value$[ebp], eax

; 2967 : 		EncryptValueToPool((char*)&value);

  00009	8d 45 08	 lea	 eax, DWORD PTR _value$[ebp]
  0000c	50		 push	 eax
  0000d	e8 00 00 00 00	 call	 ?EncryptValueToPool@?$CEncrypt@W4TeamType@@@@AAEXPBD@Z ; CEncrypt<enum TeamType>::EncryptValueToPool

; 2968 : #ifdef _NOTUSE
; 2969 : 		m_value = inValue;
; 2970 : 		Debug();
; 2971 : #endif
; 2972 : 		return value;

  00012	8b 45 08	 mov	 eax, DWORD PTR _value$[ebp]

; 2973 : 	}

  00015	5d		 pop	 ebp
  00016	c2 04 00	 ret	 4
??4?$CEncrypt@W4TeamType@@@@QAE?AW4TeamType@@W41@@Z ENDP ; CEncrypt<enum TeamType>::operator=
; Function compile flags: /Ogsp
; File d:\lost saga for developer\youtube\tutorial\source\src\lsclient\ioplayentity.h
_TEXT	ENDS
;	COMDAT ?SetTeam@ioPlayEntity@@UAEXW4TeamType@@@Z
_TEXT	SEGMENT
_value$541986 = 8					; size = 4
_eType$ = 8						; size = 4
?SetTeam@ioPlayEntity@@UAEXW4TeamType@@@Z PROC		; ioPlayEntity::SetTeam, COMDAT
; _this$ = ecx

; 106  : 	virtual void SetTeam( TeamType eType ) { m_TeamType = eType; }

  00000	55		 push	 ebp
  00001	8b ec		 mov	 ebp, esp
  00003	8b 45 08	 mov	 eax, DWORD PTR _eType$[ebp]
  00006	89 45 08	 mov	 DWORD PTR _value$541986[ebp], eax
  00009	8d 45 08	 lea	 eax, DWORD PTR _value$541986[ebp]
  0000c	50		 push	 eax
  0000d	81 c1 90 00 00
	00		 add	 ecx, 144		; 00000090H
  00013	e8 00 00 00 00	 call	 ?EncryptValueToPool@?$CEncrypt@W4TeamType@@@@AAEXPBD@Z ; CEncrypt<enum TeamType>::EncryptValueToPool
  00018	5d		 pop	 ebp
  00019	c2 04 00	 ret	 4
?SetTeam@ioPlayEntity@@UAEXW4TeamType@@@Z ENDP		; ioPlayEntity::SetTeam
_TEXT	ENDS
PUBLIC	??1ioTargetTrace16Dummy@@UAE@XZ			; ioTargetTrace16Dummy::~ioTargetTrace16Dummy
;	COMDAT xdata$x
; File c:\program files (x86)\microsoft visual studio 10.0\vc\include\vector
xdata$x	SEGMENT
__unwindtable$??1ioTargetTrace16Dummy@@UAE@XZ DD 0ffffffffH
	DD	FLAT:__unwindfunclet$??1ioTargetTrace16Dummy@@UAE@XZ$0
	DD	00H
	DD	FLAT:__unwindfunclet$??1ioTargetTrace16Dummy@@UAE@XZ$1
	DD	01H
	DD	FLAT:__unwindfunclet$??1ioTargetTrace16Dummy@@UAE@XZ$2
__ehfuncinfo$??1ioTargetTrace16Dummy@@UAE@XZ DD 019930522H
	DD	03H
	DD	FLAT:__unwindtable$??1ioTargetTrace16Dummy@@UAE@XZ
	DD	2 DUP(00H)
	DD	2 DUP(00H)
	DD	00H
	DD	01H
; Function compile flags: /Ogsp
; File d:\lost saga for developer\youtube\tutorial\source\src\lsclient\iotargettrace16dummy.cpp
xdata$x	ENDS
;	COMDAT ??1ioTargetTrace16Dummy@@UAE@XZ
_TEXT	SEGMENT
_this$ = -16						; size = 4
__$EHRec$ = -12						; size = 12
??1ioTargetTrace16Dummy@@UAE@XZ PROC			; ioTargetTrace16Dummy::~ioTargetTrace16Dummy, COMDAT
; _this$ = ecx

; 19   : {

  00000	6a 04		 push	 4
  00002	b8 00 00 00 00	 mov	 eax, __ehhandler$??1ioTargetTrace16Dummy@@UAE@XZ
  00007	e8 00 00 00 00	 call	 __EH_prolog3
  0000c	8b f1		 mov	 esi, ecx
  0000e	89 75 f0	 mov	 DWORD PTR _this$[ebp], esi
  00011	c7 06 00 00 00
	00		 mov	 DWORD PTR [esi], OFFSET ??_7ioTargetTrace16Dummy@@6BioPlayEntity@@@
  00017	c7 86 c8 01 00
	00 00 00 00 00	 mov	 DWORD PTR [esi+456], OFFSET ??_7ioTargetTrace16Dummy@@6BioWorldEventReceiver@@@

; 20   : }

  00021	8b 3d 00 00 00
	00		 mov	 edi, DWORD PTR __imp_??1ioHashString@@QAE@XZ
  00027	8d 8e b8 14 00
	00		 lea	 ecx, DWORD PTR [esi+5304]
  0002d	c7 45 fc 02 00
	00 00		 mov	 DWORD PTR __$EHRec$[ebp+8], 2
  00034	ff d7		 call	 edi
  00036	8d 8e a8 14 00
	00		 lea	 ecx, DWORD PTR [esi+5288]
  0003c	c6 45 fc 01	 mov	 BYTE PTR __$EHRec$[ebp+8], 1
  00040	e8 00 00 00 00	 call	 ?_Tidy@?$vector@KV?$allocator@K@std@@@std@@IAEXXZ ; std::vector<unsigned long,std::allocator<unsigned long> >::_Tidy
  00045	8d 8e 94 14 00
	00		 lea	 ecx, DWORD PTR [esi+5268]
  0004b	c6 45 fc 00	 mov	 BYTE PTR __$EHRec$[ebp+8], 0
  0004f	ff d7		 call	 edi
  00051	83 4d fc ff	 or	 DWORD PTR __$EHRec$[ebp+8], -1
  00055	8b ce		 mov	 ecx, esi
  00057	e8 00 00 00 00	 call	 ??1ioDummyChar@@UAE@XZ	; ioDummyChar::~ioDummyChar
  0005c	e8 00 00 00 00	 call	 __EH_epilog3
  00061	c3		 ret	 0
_TEXT	ENDS
;	COMDAT text$x
text$x	SEGMENT
__unwindfunclet$??1ioTargetTrace16Dummy@@UAE@XZ$0:
  00000	8b 4d f0	 mov	 ecx, DWORD PTR _this$[ebp]
  00003	e9 00 00 00 00	 jmp	 ??1ioDummyChar@@UAE@XZ	; ioDummyChar::~ioDummyChar
__unwindfunclet$??1ioTargetTrace16Dummy@@UAE@XZ$1:
  00008	8b 4d f0	 mov	 ecx, DWORD PTR _this$[ebp]
  0000b	81 c1 94 14 00
	00		 add	 ecx, 5268		; 00001494H
  00011	ff 25 00 00 00
	00		 jmp	 DWORD PTR __imp_??1ioHashString@@QAE@XZ
__unwindfunclet$??1ioTargetTrace16Dummy@@UAE@XZ$2:
  00017	8b 4d f0	 mov	 ecx, DWORD PTR _this$[ebp]
  0001a	81 c1 a8 14 00
	00		 add	 ecx, 5288		; 000014a8H
  00020	e9 00 00 00 00	 jmp	 ??1?$vector@KV?$allocator@K@std@@@std@@QAE@XZ ; std::vector<unsigned long,std::allocator<unsigned long> >::~vector<unsigned long,std::allocator<unsigned long> >
__ehhandler$??1ioTargetTrace16Dummy@@UAE@XZ:
  00025	8b 54 24 08	 mov	 edx, DWORD PTR [esp+8]
  00029	8d 42 0c	 lea	 eax, DWORD PTR [edx+12]
  0002c	8b 4a ec	 mov	 ecx, DWORD PTR [edx-20]
  0002f	33 c8		 xor	 ecx, eax
  00031	e8 00 00 00 00	 call	 @__security_check_cookie@4
  00036	b8 00 00 00 00	 mov	 eax, OFFSET __ehfuncinfo$??1ioTargetTrace16Dummy@@UAE@XZ
  0003b	e9 00 00 00 00	 jmp	 ___CxxFrameHandler3
text$x	ENDS
??1ioTargetTrace16Dummy@@UAE@XZ ENDP			; ioTargetTrace16Dummy::~ioTargetTrace16Dummy
PUBLIC	?ClearWeaponIndexList@ioTargetTrace16Dummy@@AAEXXZ ; ioTargetTrace16Dummy::ClearWeaponIndexList
EXTRN	?FindWeapon@ioWeaponManager@@QAEPAVioWeapon@@PAVioBaseChar@@K@Z:PROC ; ioWeaponManager::FindWeapon
EXTRN	?GetSingleton@ioWeaponManager@@SAAAV1@XZ:PROC	; ioWeaponManager::GetSingleton
; Function compile flags: /Ogsp
;	COMDAT ?ClearWeaponIndexList@ioTargetTrace16Dummy@@AAEXXZ
_TEXT	SEGMENT
$T542148 = -8						; size = 4
$T542011 = -8						; size = 4
_pOwner$ = -4						; size = 4
?ClearWeaponIndexList@ioTargetTrace16Dummy@@AAEXXZ PROC	; ioTargetTrace16Dummy::ClearWeaponIndexList, COMDAT
; _this$ = ecx

; 910  : {

  00000	55		 push	 ebp
  00001	8b ec		 mov	 ebp, esp
  00003	51		 push	 ecx
  00004	51		 push	 ecx
  00005	53		 push	 ebx
  00006	8b d9		 mov	 ebx, ecx

; 911  : 	ioBaseChar *pOwner = GetOwner();

  00008	e8 00 00 00 00	 call	 ?GetOwner@ioDummyChar@@QBEPAVioBaseChar@@XZ ; ioDummyChar::GetOwner
  0000d	89 45 fc	 mov	 DWORD PTR _pOwner$[ebp], eax

; 912  : 	if( !pOwner )

  00010	85 c0		 test	 eax, eax
  00012	74 5f		 je	 SHORT $LN33@ClearWeapo

; 913  : 		return;
; 914  : 
; 915  : 	DWORDVec::iterator iter = m_vWeaponIndexList.begin();

  00014	56		 push	 esi
  00015	8b b3 a8 14 00
	00		 mov	 esi, DWORD PTR [ebx+5288]
  0001b	57		 push	 edi
  0001c	eb 2e		 jmp	 SHORT $LN54@ClearWeapo
$LL3@ClearWeapo:

; 917  : 	{
; 918  : 		ioWeapon *pWeapon = g_WeaponMgr.FindWeapon( pOwner, (*iter) );

  0001e	ff 36		 push	 DWORD PTR [esi]
  00020	ff 75 fc	 push	 DWORD PTR _pOwner$[ebp]
  00023	e8 00 00 00 00	 call	 ?GetSingleton@ioWeaponManager@@SAAAV1@XZ ; ioWeaponManager::GetSingleton
  00028	8b c8		 mov	 ecx, eax
  0002a	e8 00 00 00 00	 call	 ?FindWeapon@ioWeaponManager@@QAEPAVioWeapon@@PAVioBaseChar@@K@Z ; ioWeaponManager::FindWeapon

; 919  : 		if( pWeapon )

  0002f	85 c0		 test	 eax, eax
  00031	74 07		 je	 SHORT $LN1@ClearWeapo

; 920  : 		{
; 921  : 			pWeapon->SetWeaponDead();

  00033	8b 10		 mov	 edx, DWORD PTR [eax]
  00035	8b c8		 mov	 ecx, eax
  00037	ff 52 4c	 call	 DWORD PTR [edx+76]
$LN1@ClearWeapo:

; 922  : 		}
; 923  : 
; 924  : 		iter = m_vWeaponIndexList.erase( iter );

  0003a	56		 push	 esi
  0003b	8d 45 f8	 lea	 eax, DWORD PTR $T542011[ebp]
  0003e	50		 push	 eax
  0003f	8d 8b a8 14 00
	00		 lea	 ecx, DWORD PTR [ebx+5288]
  00045	e8 00 00 00 00	 call	 ?erase@?$vector@KV?$allocator@K@std@@@std@@QAE?AV?$_Vector_iterator@V?$_Vector_val@KV?$allocator@K@std@@@std@@@2@V?$_Vector_const_iterator@V?$_Vector_val@KV?$allocator@K@std@@@std@@@2@@Z ; std::vector<unsigned long,std::allocator<unsigned long> >::erase
  0004a	8b 30		 mov	 esi, DWORD PTR [eax]
$LN54@ClearWeapo:

; 916  : 	while( iter != m_vWeaponIndexList.end() )

  0004c	3b b3 ac 14 00
	00		 cmp	 esi, DWORD PTR [ebx+5292]
  00052	75 ca		 jne	 SHORT $LL3@ClearWeapo

; 925  : 	}
; 926  : 	m_vWeaponIndexList.clear();

  00054	8b 83 ac 14 00
	00		 mov	 eax, DWORD PTR [ebx+5292]
  0005a	8b 8b a8 14 00
	00		 mov	 ecx, DWORD PTR [ebx+5288]
  00060	50		 push	 eax
  00061	51		 push	 ecx
  00062	8d 45 f8	 lea	 eax, DWORD PTR $T542148[ebp]
  00065	50		 push	 eax
  00066	8d 8b a8 14 00
	00		 lea	 ecx, DWORD PTR [ebx+5288]
  0006c	e8 00 00 00 00	 call	 ?erase@?$vector@KV?$allocator@K@std@@@std@@QAE?AV?$_Vector_iterator@V?$_Vector_val@KV?$allocator@K@std@@@std@@@2@V?$_Vector_const_iterator@V?$_Vector_val@KV?$allocator@K@std@@@std@@@2@0@Z ; std::vector<unsigned long,std::allocator<unsigned long> >::erase
  00071	5f		 pop	 edi
  00072	5e		 pop	 esi
$LN33@ClearWeapo:
  00073	5b		 pop	 ebx

; 927  : }

  00074	c9		 leave
  00075	c3		 ret	 0
?ClearWeaponIndexList@ioTargetTrace16Dummy@@AAEXXZ ENDP	; ioTargetTrace16Dummy::ClearWeaponIndexList
; Function compile flags: /Ogsp
_TEXT	ENDS
;	COMDAT ?SetDieState@ioTargetTrace16Dummy@@UAEX_N@Z
_TEXT	SEGMENT
_bEffect$ = 8						; size = 1
?SetDieState@ioTargetTrace16Dummy@@UAEX_N@Z PROC	; ioTargetTrace16Dummy::SetDieState, COMDAT
; _this$ = ecx

; 981  : {

  00000	55		 push	 ebp
  00001	8b ec		 mov	 ebp, esp
  00003	56		 push	 esi
  00004	8b f1		 mov	 esi, ecx

; 982  : 	ClearWeaponIndexList();

  00006	e8 00 00 00 00	 call	 ?ClearWeaponIndexList@ioTargetTrace16Dummy@@AAEXXZ ; ioTargetTrace16Dummy::ClearWeaponIndexList

; 983  : 	ioDummyChar::SetDieState( bEffect );

  0000b	6a 00		 push	 0
  0000d	ff 75 08	 push	 DWORD PTR _bEffect$[ebp]
  00010	8b ce		 mov	 ecx, esi
  00012	e8 00 00 00 00	 call	 ?SetDieState@ioDummyChar@@UAEX_N0@Z ; ioDummyChar::SetDieState
  00017	5e		 pop	 esi

; 984  : }

  00018	5d		 pop	 ebp
  00019	c2 04 00	 ret	 4
?SetDieState@ioTargetTrace16Dummy@@UAEX_N@Z ENDP	; ioTargetTrace16Dummy::SetDieState
_TEXT	ENDS
PUBLIC	?erase@?$list@UFireTime@@V?$allocator@UFireTime@@@std@@@std@@QAE?AV?$_List_iterator@V?$_List_val@UFireTime@@V?$allocator@UFireTime@@@std@@@std@@@2@V?$_List_const_iterator@V?$_List_val@UFireTime@@V?$allocator@UFireTime@@@std@@@std@@@2@@Z ; std::list<FireTime,std::allocator<FireTime> >::erase
; Function compile flags: /Ogsp
; File c:\program files (x86)\microsoft visual studio 10.0\vc\include\list
;	COMDAT ?erase@?$list@UFireTime@@V?$allocator@UFireTime@@@std@@@std@@QAE?AV?$_List_iterator@V?$_List_val@UFireTime@@V?$allocator@UFireTime@@@std@@@std@@@2@V?$_List_const_iterator@V?$_List_val@UFireTime@@V?$allocator@UFireTime@@@std@@@std@@@2@@Z
_TEXT	SEGMENT
___$ReturnUdt$ = 8					; size = 4
__Where$ = 12						; size = 4
?erase@?$list@UFireTime@@V?$allocator@UFireTime@@@std@@@std@@QAE?AV?$_List_iterator@V?$_List_val@UFireTime@@V?$allocator@UFireTime@@@std@@@std@@@2@V?$_List_const_iterator@V?$_List_val@UFireTime@@V?$allocator@UFireTime@@@std@@@std@@@2@@Z PROC ; std::list<FireTime,std::allocator<FireTime> >::erase, COMDAT
; _this$ = ecx

; 1054 : 		{	// erase element at _Where

  00000	55		 push	 ebp
  00001	8b ec		 mov	 ebp, esp
  00003	56		 push	 esi

; 1055 :  #if _ITERATOR_DEBUG_LEVEL == 2
; 1056 : 		if (_Where._Getcont() != this || _Where._Ptr == this->_Myhead)
; 1057 : 			_DEBUG_ERROR("list erase iterator outside range");
; 1058 : 		_Nodeptr _Pnode = (_Where++)._Mynode();
; 1059 : 		_Orphan_ptr(*this, _Pnode);
; 1060 : 
; 1061 :  #else /* _ITERATOR_DEBUG_LEVEL == 2 */
; 1062 : 		_Nodeptr _Pnode = (_Where++)._Mynode();

  00004	8b 75 0c	 mov	 esi, DWORD PTR __Where$[ebp]
  00007	8b 06		 mov	 eax, DWORD PTR [esi]
  00009	57		 push	 edi
  0000a	8b f9		 mov	 edi, ecx
  0000c	89 45 0c	 mov	 DWORD PTR __Where$[ebp], eax

; 1063 :  #endif /* _ITERATOR_DEBUG_LEVEL == 2 */
; 1064 : 
; 1065 : 		if (_Pnode != this->_Myhead)

  0000f	3b 37		 cmp	 esi, DWORD PTR [edi]
  00011	74 21		 je	 SHORT $LN1@erase@3

; 1066 : 			{	// not list head, safe to erase
; 1067 : 			this->_Nextnode(this->_Prevnode(_Pnode)) =
; 1068 : 				this->_Nextnode(_Pnode);

  00013	8b 46 04	 mov	 eax, DWORD PTR [esi+4]
  00016	8b 0e		 mov	 ecx, DWORD PTR [esi]
  00018	89 08		 mov	 DWORD PTR [eax], ecx

; 1069 : 			this->_Prevnode(this->_Nextnode(_Pnode)) =
; 1070 : 				this->_Prevnode(_Pnode);

  0001a	8b 4e 04	 mov	 ecx, DWORD PTR [esi+4]
  0001d	8b 06		 mov	 eax, DWORD PTR [esi]
  0001f	89 48 04	 mov	 DWORD PTR [eax+4], ecx

; 1071 : 
; 1072 : 			_Dest_val(this->_Alnod, _Pnode);

  00022	8d 4e 08	 lea	 ecx, DWORD PTR [esi+8]
  00025	e8 00 00 00 00	 call	 ??1FireTime@@QAE@XZ

; 1073 : 			this->_Alnod.deallocate(_Pnode, 1);

  0002a	56		 push	 esi
  0002b	e8 00 00 00 00	 call	 ??3@YAXPAX@Z		; operator delete

; 1074 : 
; 1075 : 			--this->_Mysize;

  00030	ff 4f 04	 dec	 DWORD PTR [edi+4]
  00033	59		 pop	 ecx
$LN1@erase@3:

; 1076 : 			}
; 1077 : 		return (_Make_iter(_Where));

  00034	8b 45 08	 mov	 eax, DWORD PTR ___$ReturnUdt$[ebp]
  00037	8b 4d 0c	 mov	 ecx, DWORD PTR __Where$[ebp]
  0003a	5f		 pop	 edi
  0003b	89 08		 mov	 DWORD PTR [eax], ecx
  0003d	5e		 pop	 esi

; 1078 : 		}

  0003e	5d		 pop	 ebp
  0003f	c2 08 00	 ret	 8
?erase@?$list@UFireTime@@V?$allocator@UFireTime@@@std@@@std@@QAE?AV?$_List_iterator@V?$_List_val@UFireTime@@V?$allocator@UFireTime@@@std@@@std@@@2@V?$_List_const_iterator@V?$_List_val@UFireTime@@V?$allocator@UFireTime@@@std@@@std@@@2@@Z ENDP ; std::list<FireTime,std::allocator<FireTime> >::erase
_TEXT	ENDS
PUBLIC	?clear@?$list@UFireTime@@V?$allocator@UFireTime@@@std@@@std@@QAEXXZ ; std::list<FireTime,std::allocator<FireTime> >::clear
; Function compile flags: /Ogsp
;	COMDAT ?clear@?$list@UFireTime@@V?$allocator@UFireTime@@@std@@@std@@QAEXXZ
_TEXT	SEGMENT
?clear@?$list@UFireTime@@V?$allocator@UFireTime@@@std@@@std@@QAEXXZ PROC ; std::list<FireTime,std::allocator<FireTime> >::clear, COMDAT
; _this$ = ecx

; 1096 : 		{	// erase all

  00000	56		 push	 esi
  00001	8b f1		 mov	 esi, ecx

; 1097 :  #if _ITERATOR_DEBUG_LEVEL == 2
; 1098 : 		this->_Orphan_ptr(*this, 0);
; 1099 :  #endif /* _ITERATOR_DEBUG_LEVEL == 2 */
; 1100 : 
; 1101 : 		_Nodeptr _Pnext;
; 1102 : 		_Nodeptr _Pnode = this->_Nextnode(this->_Myhead);

  00003	8b 06		 mov	 eax, DWORD PTR [esi]
  00005	57		 push	 edi
  00006	8b 38		 mov	 edi, DWORD PTR [eax]

; 1103 : 		this->_Nextnode(this->_Myhead) = this->_Myhead;

  00008	89 00		 mov	 DWORD PTR [eax], eax

; 1104 : 		this->_Prevnode(this->_Myhead) = this->_Myhead;

  0000a	8b 06		 mov	 eax, DWORD PTR [esi]
  0000c	89 40 04	 mov	 DWORD PTR [eax+4], eax

; 1105 : 		this->_Mysize = 0;

  0000f	83 66 04 00	 and	 DWORD PTR [esi+4], 0

; 1106 : 
; 1107 : 		for (; _Pnode != this->_Myhead; _Pnode = _Pnext)

  00013	3b 3e		 cmp	 edi, DWORD PTR [esi]
  00015	74 19		 je	 SHORT $LN1@clear@2
  00017	53		 push	 ebx
$LL3@clear@2:

; 1108 : 			{	// delete an element
; 1109 : 			_Pnext = this->_Nextnode(_Pnode);

  00018	8b 1f		 mov	 ebx, DWORD PTR [edi]

; 1110 : 
; 1111 : 			_Dest_val(this->_Alnod, _Pnode);

  0001a	8d 4f 08	 lea	 ecx, DWORD PTR [edi+8]
  0001d	e8 00 00 00 00	 call	 ??1FireTime@@QAE@XZ

; 1112 : 			this->_Alnod.deallocate(_Pnode, 1);

  00022	57		 push	 edi
  00023	e8 00 00 00 00	 call	 ??3@YAXPAX@Z		; operator delete
  00028	59		 pop	 ecx
  00029	8b fb		 mov	 edi, ebx
  0002b	3b 1e		 cmp	 ebx, DWORD PTR [esi]
  0002d	75 e9		 jne	 SHORT $LL3@clear@2
  0002f	5b		 pop	 ebx
$LN1@clear@2:
  00030	5f		 pop	 edi
  00031	5e		 pop	 esi

; 1113 : 			}
; 1114 : 		}

  00032	c3		 ret	 0
?clear@?$list@UFireTime@@V?$allocator@UFireTime@@@std@@@std@@QAEXXZ ENDP ; std::list<FireTime,std::allocator<FireTime> >::clear
_TEXT	ENDS
PUBLIC	??1?$list@MV?$allocator@M@std@@@std@@QAE@XZ	; std::list<float,std::allocator<float> >::~list<float,std::allocator<float> >
; Function compile flags: /Ogsp
;	COMDAT ??1?$list@MV?$allocator@M@std@@@std@@QAE@XZ
_TEXT	SEGMENT
??1?$list@MV?$allocator@M@std@@@std@@QAE@XZ PROC	; std::list<float,std::allocator<float> >::~list<float,std::allocator<float> >, COMDAT
; _this$ = ecx

; 769  : 		{	// destroy the object

  00000	56		 push	 esi
  00001	8b f1		 mov	 esi, ecx

; 770  : 		_Tidy();

  00003	e8 00 00 00 00	 call	 ?clear@?$list@MV?$allocator@M@std@@@std@@QAEXXZ ; std::list<float,std::allocator<float> >::clear

; 771  : 		}

  00008	ff 36		 push	 DWORD PTR [esi]
  0000a	e8 00 00 00 00	 call	 ??3@YAXPAX@Z		; operator delete
  0000f	59		 pop	 ecx
  00010	5e		 pop	 esi
  00011	c3		 ret	 0
??1?$list@MV?$allocator@M@std@@@std@@QAE@XZ ENDP	; std::list<float,std::allocator<float> >::~list<float,std::allocator<float> >
_TEXT	ENDS
PUBLIC	?_Insert@?$list@UFireTime@@V?$allocator@UFireTime@@@std@@@std@@QAEXV?$_List_const_iterator@V?$_List_val@UFireTime@@V?$allocator@UFireTime@@@std@@@std@@@2@ABUFireTime@@@Z ; std::list<FireTime,std::allocator<FireTime> >::_Insert
; Function compile flags: /Ogsp
;	COMDAT ?_Insert@?$list@UFireTime@@V?$allocator@UFireTime@@@std@@@std@@QAEXV?$_List_const_iterator@V?$_List_val@UFireTime@@V?$allocator@UFireTime@@@std@@@std@@@2@ABUFireTime@@@Z
_TEXT	SEGMENT
__Where$ = 8						; size = 4
__Val$ = 12						; size = 4
?_Insert@?$list@UFireTime@@V?$allocator@UFireTime@@@std@@@std@@QAEXV?$_List_const_iterator@V?$_List_val@UFireTime@@V?$allocator@UFireTime@@@std@@@std@@@2@ABUFireTime@@@Z PROC ; std::list<FireTime,std::allocator<FireTime> >::_Insert, COMDAT
; _this$ = ecx

; 967  : 		{	// insert _Val at _Where

  00000	55		 push	 ebp
  00001	8b ec		 mov	 ebp, esp

; 968  :  #if _ITERATOR_DEBUG_LEVEL == 2
; 969  : 		if (_Where._Getcont() != this)
; 970  : 			_DEBUG_ERROR("list insert iterator outside range");
; 971  :  #endif /* _ITERATOR_DEBUG_LEVEL == 2 */
; 972  : 
; 973  : 		_Nodeptr _Pnode = _Where._Mynode();
; 974  : 		_Nodeptr _Newnode =
; 975  : 			this->_Buynode(_Pnode, this->_Prevnode(_Pnode), _Val);

  00003	8b 45 08	 mov	 eax, DWORD PTR __Where$[ebp]
  00006	53		 push	 ebx
  00007	56		 push	 esi
  00008	57		 push	 edi
  00009	ff 75 0c	 push	 DWORD PTR __Val$[ebp]
  0000c	8d 78 04	 lea	 edi, DWORD PTR [eax+4]
  0000f	ff 37		 push	 DWORD PTR [edi]
  00011	8b d9		 mov	 ebx, ecx
  00013	50		 push	 eax
  00014	e8 00 00 00 00	 call	 ?_Buynode@?$_List_val@UFireTime@@V?$allocator@UFireTime@@@std@@@std@@QAEPAU_Node@?$_List_nod@UFireTime@@V?$allocator@UFireTime@@@std@@@2@PAU342@0ABUFireTime@@@Z ; std::_List_val<FireTime,std::allocator<FireTime> >::_Buynode

; 976  : 		_Incsize(1);

  00019	6a 01		 push	 1
  0001b	8b cb		 mov	 ecx, ebx
  0001d	8b f0		 mov	 esi, eax
  0001f	e8 00 00 00 00	 call	 ?_Incsize@?$list@UFireTime@@V?$allocator@UFireTime@@@std@@@std@@QAEXI@Z ; std::list<FireTime,std::allocator<FireTime> >::_Incsize

; 977  : 		this->_Prevnode(_Pnode) = _Newnode;

  00024	89 37		 mov	 DWORD PTR [edi], esi

; 978  : 		this->_Nextnode(this->_Prevnode(_Newnode)) = _Newnode;

  00026	8b 46 04	 mov	 eax, DWORD PTR [esi+4]
  00029	5f		 pop	 edi
  0002a	89 30		 mov	 DWORD PTR [eax], esi
  0002c	5e		 pop	 esi
  0002d	5b		 pop	 ebx

; 979  : 		}

  0002e	5d		 pop	 ebp
  0002f	c2 08 00	 ret	 8
?_Insert@?$list@UFireTime@@V?$allocator@UFireTime@@@std@@@std@@QAEXV?$_List_const_iterator@V?$_List_val@UFireTime@@V?$allocator@UFireTime@@@std@@@std@@@2@ABUFireTime@@@Z ENDP ; std::list<FireTime,std::allocator<FireTime> >::_Insert
_TEXT	ENDS
PUBLIC	?_Destroy@?$vector@UExtraAniJump@@V?$allocator@UExtraAniJump@@@std@@@std@@IAEXPAUExtraAniJump@@0@Z ; std::vector<ExtraAniJump,std::allocator<ExtraAniJump> >::_Destroy
; Function compile flags: /Ogsp
; File c:\program files (x86)\microsoft visual studio 10.0\vc\include\vector
;	COMDAT ?_Destroy@?$vector@UExtraAniJump@@V?$allocator@UExtraAniJump@@@std@@@std@@IAEXPAUExtraAniJump@@0@Z
_TEXT	SEGMENT
__First$ = 8						; size = 4
__Last$ = 12						; size = 4
?_Destroy@?$vector@UExtraAniJump@@V?$allocator@UExtraAniJump@@@std@@@std@@IAEXPAUExtraAniJump@@0@Z PROC ; std::vector<ExtraAniJump,std::allocator<ExtraAniJump> >::_Destroy, COMDAT
; _this$ = ecx

; 1270 : 		_Destroy_range(_First, _Last, this->_Alval);
; 1271 : 		}

  00000	c2 08 00	 ret	 8
?_Destroy@?$vector@UExtraAniJump@@V?$allocator@UExtraAniJump@@@std@@@std@@IAEXPAUExtraAniJump@@0@Z ENDP ; std::vector<ExtraAniJump,std::allocator<ExtraAniJump> >::_Destroy
_TEXT	ENDS
PUBLIC	??$_Umove@PAUExtraAniJump@@@?$vector@UExtraAniJump@@V?$allocator@UExtraAniJump@@@std@@@std@@IAEPAUExtraAniJump@@PAU2@00@Z ; std::vector<ExtraAniJump,std::allocator<ExtraAniJump> >::_Umove<ExtraAniJump *>
; Function compile flags: /Ogsp
;	COMDAT ??$_Umove@PAUExtraAniJump@@@?$vector@UExtraAniJump@@V?$allocator@UExtraAniJump@@@std@@@std@@IAEPAUExtraAniJump@@PAU2@00@Z
_TEXT	SEGMENT
__First$ = 8						; size = 4
__Last$ = 12						; size = 4
__Ptr$ = 16						; size = 4
??$_Umove@PAUExtraAniJump@@@?$vector@UExtraAniJump@@V?$allocator@UExtraAniJump@@@std@@@std@@IAEPAUExtraAniJump@@PAU2@00@Z PROC ; std::vector<ExtraAniJump,std::allocator<ExtraAniJump> >::_Umove<ExtraAniJump *>, COMDAT
; _this$ = ecx

; 1322 : 		pointer _Umove(_Iter _First, _Iter _Last, pointer _Ptr)

  00000	55		 push	 ebp
  00001	8b ec		 mov	 ebp, esp

; 1323 : 		{	// move initializing [_First, _Last), using allocator
; 1324 : 		return (_Uninitialized_move(_First, _Last,
; 1325 : 			_Ptr, this->_Alval));

  00003	83 c1 0c	 add	 ecx, 12			; 0000000cH
  00006	51		 push	 ecx
  00007	ff 75 10	 push	 DWORD PTR __Ptr$[ebp]
  0000a	ff 75 0c	 push	 DWORD PTR __Last$[ebp]
  0000d	ff 75 08	 push	 DWORD PTR __First$[ebp]
  00010	e8 00 00 00 00	 call	 ??$_Uninitialized_move@PAUExtraAniJump@@PAU1@V?$allocator@UExtraAniJump@@@std@@@std@@YAPAUExtraAniJump@@PAU1@00AAV?$allocator@UExtraAniJump@@@0@@Z ; std::_Uninitialized_move<ExtraAniJump *,ExtraAniJump *,std::allocator<ExtraAniJump> >
  00015	83 c4 10	 add	 esp, 16			; 00000010H

; 1326 : 		}

  00018	5d		 pop	 ebp
  00019	c2 0c 00	 ret	 12			; 0000000cH
??$_Umove@PAUExtraAniJump@@@?$vector@UExtraAniJump@@V?$allocator@UExtraAniJump@@@std@@@std@@IAEPAUExtraAniJump@@PAU2@00@Z ENDP ; std::vector<ExtraAniJump,std::allocator<ExtraAniJump> >::_Umove<ExtraAniJump *>
_TEXT	ENDS
PUBLIC	?push_back@?$vector@KV?$allocator@K@std@@@std@@QAEXABK@Z ; std::vector<unsigned long,std::allocator<unsigned long> >::push_back
; Function compile flags: /Ogsp
;	COMDAT ?push_back@?$vector@KV?$allocator@K@std@@@std@@QAEXABK@Z
_TEXT	SEGMENT
__Val$ = 8						; size = 4
?push_back@?$vector@KV?$allocator@K@std@@@std@@QAEXABK@Z PROC ; std::vector<unsigned long,std::allocator<unsigned long> >::push_back, COMDAT
; _this$ = ecx

; 976  : 		{	// insert element at end

  00000	55		 push	 ebp
  00001	8b ec		 mov	 ebp, esp
  00003	56		 push	 esi
  00004	8b f1		 mov	 esi, ecx

; 977  : 		if (_Inside(_STD addressof(_Val)))

  00006	8b 46 04	 mov	 eax, DWORD PTR [esi+4]
  00009	57		 push	 edi
  0000a	8b 7d 08	 mov	 edi, DWORD PTR __Val$[ebp]
  0000d	3b f8		 cmp	 edi, eax
  0000f	73 27		 jae	 SHORT $LN4@push_back
  00011	8b 0e		 mov	 ecx, DWORD PTR [esi]
  00013	3b cf		 cmp	 ecx, edi
  00015	77 21		 ja	 SHORT $LN4@push_back

; 978  : 			{	// push back an element
; 979  : 			size_type _Idx = _STD addressof(_Val) - this->_Myfirst;

  00017	2b f9		 sub	 edi, ecx
  00019	c1 ff 02	 sar	 edi, 2

; 980  : 			if (this->_Mylast == this->_Myend)

  0001c	3b 46 08	 cmp	 eax, DWORD PTR [esi+8]
  0001f	75 09		 jne	 SHORT $LN3@push_back

; 981  : 				_Reserve(1);

  00021	6a 01		 push	 1
  00023	8b ce		 mov	 ecx, esi
  00025	e8 00 00 00 00	 call	 ?_Reserve@?$vector@KV?$allocator@K@std@@@std@@IAEXI@Z ; std::vector<unsigned long,std::allocator<unsigned long> >::_Reserve
$LN3@push_back:

; 982  : 			_Orphan_range(this->_Mylast, this->_Mylast);
; 983  : 			_Cons_val(this->_Alval,
; 984  : 				this->_Mylast,
; 985  : 				this->_Myfirst[_Idx]);

  0002a	8b 46 04	 mov	 eax, DWORD PTR [esi+4]
  0002d	85 c0		 test	 eax, eax
  0002f	74 20		 je	 SHORT $LN39@push_back
  00031	8b 0e		 mov	 ecx, DWORD PTR [esi]
  00033	8b 0c b9	 mov	 ecx, DWORD PTR [ecx+edi*4]

; 986  : 			++this->_Mylast;
; 987  : 			}
; 988  : 		else

  00036	eb 17		 jmp	 SHORT $LN46@push_back
$LN4@push_back:

; 989  : 			{	// push back a non-element
; 990  : 			if (this->_Mylast == this->_Myend)

  00038	3b 46 08	 cmp	 eax, DWORD PTR [esi+8]
  0003b	75 09		 jne	 SHORT $LN1@push_back

; 991  : 				_Reserve(1);

  0003d	6a 01		 push	 1
  0003f	8b ce		 mov	 ecx, esi
  00041	e8 00 00 00 00	 call	 ?_Reserve@?$vector@KV?$allocator@K@std@@@std@@IAEXI@Z ; std::vector<unsigned long,std::allocator<unsigned long> >::_Reserve
$LN1@push_back:

; 992  : 			_Orphan_range(this->_Mylast, this->_Mylast);
; 993  : 			_Cons_val(this->_Alval,
; 994  : 				this->_Mylast,
; 995  : 				_Val);

  00046	8b 46 04	 mov	 eax, DWORD PTR [esi+4]
  00049	85 c0		 test	 eax, eax
  0004b	74 04		 je	 SHORT $LN39@push_back
  0004d	8b 0f		 mov	 ecx, DWORD PTR [edi]
$LN46@push_back:
  0004f	89 08		 mov	 DWORD PTR [eax], ecx
$LN39@push_back:

; 996  : 			++this->_Mylast;

  00051	83 46 04 04	 add	 DWORD PTR [esi+4], 4
  00055	5f		 pop	 edi
  00056	5e		 pop	 esi

; 997  : 			}
; 998  : 		}

  00057	5d		 pop	 ebp
  00058	c2 04 00	 ret	 4
?push_back@?$vector@KV?$allocator@K@std@@@std@@QAEXABK@Z ENDP ; std::vector<unsigned long,std::allocator<unsigned long> >::push_back
_TEXT	ENDS
PUBLIC	?assign@?$basic_string@DU?$char_traits@D@std@@V?$allocator@D@2@@std@@QAEAAV12@PBD@Z ; std::basic_string<char,std::char_traits<char>,std::allocator<char> >::assign
; Function compile flags: /Ogsp
; File c:\program files (x86)\microsoft visual studio 10.0\vc\include\xstring
;	COMDAT ?assign@?$basic_string@DU?$char_traits@D@std@@V?$allocator@D@2@@std@@QAEAAV12@PBD@Z
_TEXT	SEGMENT
__Ptr$ = 8						; size = 4
?assign@?$basic_string@DU?$char_traits@D@std@@V?$allocator@D@2@@std@@QAEAAV12@PBD@Z PROC ; std::basic_string<char,std::char_traits<char>,std::allocator<char> >::assign, COMDAT
; _this$ = ecx

; 929  : 		{	// assign [_Ptr, <null>)

  00000	55		 push	 ebp
  00001	8b ec		 mov	 ebp, esp

; 930  : 		_DEBUG_POINTER(_Ptr);
; 931  : 		return (assign(_Ptr, _Traits::length(_Ptr)));

  00003	8b 45 08	 mov	 eax, DWORD PTR __Ptr$[ebp]
  00006	8d 50 01	 lea	 edx, DWORD PTR [eax+1]
  00009	53		 push	 ebx
$LL5@assign@3:
  0000a	8a 18		 mov	 bl, BYTE PTR [eax]
  0000c	40		 inc	 eax
  0000d	84 db		 test	 bl, bl
  0000f	75 f9		 jne	 SHORT $LL5@assign@3
  00011	2b c2		 sub	 eax, edx
  00013	50		 push	 eax
  00014	ff 75 08	 push	 DWORD PTR __Ptr$[ebp]
  00017	e8 00 00 00 00	 call	 ?assign@?$basic_string@DU?$char_traits@D@std@@V?$allocator@D@2@@std@@QAEAAV12@PBDI@Z ; std::basic_string<char,std::char_traits<char>,std::allocator<char> >::assign
  0001c	5b		 pop	 ebx

; 932  : 		}

  0001d	5d		 pop	 ebp
  0001e	c2 04 00	 ret	 4
?assign@?$basic_string@DU?$char_traits@D@std@@V?$allocator@D@2@@std@@QAEAAV12@PBD@Z ENDP ; std::basic_string<char,std::char_traits<char>,std::allocator<char> >::assign
; Function compile flags: /Ogsp
_TEXT	ENDS
;	COMDAT ??_GioTargetTrace16Dummy@@UAEPAXI@Z
_TEXT	SEGMENT
___flags$ = 8						; size = 4
??_GioTargetTrace16Dummy@@UAEPAXI@Z PROC		; ioTargetTrace16Dummy::`scalar deleting destructor', COMDAT
; _this$ = ecx
  00000	55		 push	 ebp
  00001	8b ec		 mov	 ebp, esp
  00003	56		 push	 esi
  00004	8b f1		 mov	 esi, ecx
  00006	e8 00 00 00 00	 call	 ??1ioTargetTrace16Dummy@@UAE@XZ ; ioTargetTrace16Dummy::~ioTargetTrace16Dummy
  0000b	f6 45 08 01	 test	 BYTE PTR ___flags$[ebp], 1
  0000f	74 07		 je	 SHORT $LN1@scalar@3
  00011	56		 push	 esi
  00012	e8 00 00 00 00	 call	 ??3@YAXPAX@Z		; operator delete
  00017	59		 pop	 ecx
$LN1@scalar@3:
  00018	8b c6		 mov	 eax, esi
  0001a	5e		 pop	 esi
  0001b	5d		 pop	 ebp
  0001c	c2 04 00	 ret	 4
??_GioTargetTrace16Dummy@@UAEPAXI@Z ENDP		; ioTargetTrace16Dummy::`scalar deleting destructor'
_TEXT	ENDS
PUBLIC	_pOwner$GSCopy$
PUBLIC	?ProcessAttackState@ioTargetTrace16Dummy@@AAEXPAVioBaseChar@@MK@Z ; ioTargetTrace16Dummy::ProcessAttackState
EXTRN	?SetZoneValue@ioZoneEffectWeapon@@QAEX_N0@Z:PROC ; ioZoneEffectWeapon::SetZoneValue
EXTRN	?SetCollisionDir@ioZoneEffectWeapon@@QAEXAAUD3DXVECTOR3@@@Z:PROC ; ioZoneEffectWeapon::SetCollisionDir
EXTRN	?ExtendFireExplicit@ioBaseChar@@QAEPAVioWeapon@@ABUFireTime@@ABUD3DXVECTOR3@@1ABVioHashString@@@Z:PROC ; ioBaseChar::ExtendFireExplicit
EXTRN	?GetMidPositionByRate@ioGameEntity@@QBE?AUD3DXVECTOR3@@M@Z:PROC ; ioGameEntity::GetMidPositionByRate
;	COMDAT xdata$x
; File c:\program files (x86)\microsoft visual studio 10.0\vc\include\list
xdata$x	SEGMENT
__unwindtable$?ProcessAttackState@ioTargetTrace16Dummy@@AAEXPAVioBaseChar@@MK@Z DD 0ffffffffH
	DD	FLAT:__unwindfunclet$?ProcessAttackState@ioTargetTrace16Dummy@@AAEXPAVioBaseChar@@MK@Z$0
__ehfuncinfo$?ProcessAttackState@ioTargetTrace16Dummy@@AAEXPAVioBaseChar@@MK@Z DD 019930522H
	DD	01H
	DD	FLAT:__unwindtable$?ProcessAttackState@ioTargetTrace16Dummy@@AAEXPAVioBaseChar@@MK@Z
	DD	2 DUP(00H)
	DD	2 DUP(00H)
	DD	00H
	DD	01H
; Function compile flags: /Ogsp
; File d:\lost saga for developer\youtube\tutorial\source\src\lsclient\iotargettrace16dummy.cpp
xdata$x	ENDS
;	COMDAT ?ProcessAttackState@ioTargetTrace16Dummy@@AAEXPAVioBaseChar@@MK@Z
_TEXT	SEGMENT
$T542582 = -72						; size = 4
_pOwner$GSCopy$ = -68					; size = 4
_dwCurTime$ = -64					; size = 4
tv480 = -60						; size = 4
tv476 = -60						; size = 4
tv472 = -60						; size = 4
$T542580 = -56						; size = 16
$T531240 = -52						; size = 12
_vCurPos$ = -40						; size = 12
_vCurDir$ = -28						; size = 12
__$EHRec$ = -12						; size = 12
_pOwner$ = 8						; size = 4
_fTimerPerSec$ = 12					; size = 4
_dwPreTime$ = 16					; size = 4
?ProcessAttackState@ioTargetTrace16Dummy@@AAEXPAVioBaseChar@@MK@Z PROC ; ioTargetTrace16Dummy::ProcessAttackState, COMDAT
; _this$ = ecx

; 528  : {

  00000	6a 3c		 push	 60			; 0000003cH
  00002	b8 00 00 00 00	 mov	 eax, __ehhandler$?ProcessAttackState@ioTargetTrace16Dummy@@AAEXPAVioBaseChar@@MK@Z
  00007	e8 00 00 00 00	 call	 __EH_prolog3_GS
  0000c	8b 5d 08	 mov	 ebx, DWORD PTR _pOwner$[ebp]
  0000f	8b f1		 mov	 esi, ecx

; 553  : 			{
; 554  : 				ioWeapon* pWeapon = pOwner->ExtendFireExplicit( rkFire, vCurPos, vCurDir, "" );

  00011	89 5d bc	 mov	 DWORD PTR _pOwner$GSCopy$[ebp], ebx
  00014	85 db		 test	 ebx, ebx
  00016	0f 84 7d 01 00
	00		 je	 $LN2@ProcessAtt

; 529  : 	if( !pOwner ) 
; 530  : 		return;
; 531  : 
; 532  : 	ioPlayStage *pStage = pOwner->GetCreator();
; 533  : 	if( !pStage ) 

  0001c	83 bb 44 03 00
	00 00		 cmp	 DWORD PTR [ebx+836], 0
  00023	0f 84 70 01 00
	00		 je	 $LN2@ProcessAtt

; 534  : 		return;
; 535  : 
; 536  : 	DWORD dwCurTime = FRAMEGETTIME();

  00029	ff 15 00 00 00
	00		 call	 DWORD PTR __imp_?GetSingleton@ioFrameTimer@@SAAAV1@XZ
  0002f	8b c8		 mov	 ecx, eax
  00031	ff 15 00 00 00
	00		 call	 DWORD PTR __imp_?GetLoopSec@ioFrameTimer@@QBEKXZ

; 537  : 
; 538  : 	D3DXVECTOR3 vCurDir = GetWorldOrientation() * D3DXVECTOR3( 0.0f, 0.0f, -1.0f );

  00037	0f 57 c0	 xorps	 xmm0, xmm0
  0003a	89 45 c0	 mov	 DWORD PTR _dwCurTime$[ebp], eax
  0003d	8d 45 cc	 lea	 eax, DWORD PTR $T531240[ebp]
  00040	f3 0f 11 45 cc	 movss	 DWORD PTR $T531240[ebp], xmm0
  00045	f3 0f 11 45 d0	 movss	 DWORD PTR $T531240[ebp+4], xmm0
  0004a	f3 0f 10 05 00
	00 00 00	 movss	 xmm0, DWORD PTR __real@bf800000
  00052	50		 push	 eax
  00053	8b 06		 mov	 eax, DWORD PTR [esi]
  00055	8b ce		 mov	 ecx, esi
  00057	f3 0f 11 45 d4	 movss	 DWORD PTR $T531240[ebp+8], xmm0
  0005c	ff 50 74	 call	 DWORD PTR [eax+116]
  0005f	50		 push	 eax
  00060	8d 45 e4	 lea	 eax, DWORD PTR _vCurDir$[ebp]
  00063	50		 push	 eax
  00064	ff 15 00 00 00
	00		 call	 DWORD PTR __imp_??D@YA?AUD3DXVECTOR3@@ABUD3DXQUATERNION@@ABU0@@Z
  0006a	83 c4 0c	 add	 esp, 12			; 0000000cH

; 539  : 	D3DXVec3Normalize( &vCurDir, &vCurDir );

  0006d	8d 45 e4	 lea	 eax, DWORD PTR _vCurDir$[ebp]
  00070	50		 push	 eax
  00071	50		 push	 eax
  00072	e8 00 00 00 00	 call	 _D3DXVec3Normalize@8

; 540  : 
; 541  : 	D3DXVECTOR3 vCurPos = GetMidPositionByRate();

  00077	b8 05 00 00 00	 mov	 eax, 5
  0007c	8b c8		 mov	 ecx, eax
  0007e	b8 0a 00 00 00	 mov	 eax, 10			; 0000000aH
  00083	89 4d c4	 mov	 DWORD PTR tv480[ebp], ecx
  00086	db 45 c4	 fild	 DWORD PTR tv480[ebp]
  00089	85 c9		 test	 ecx, ecx
  0008b	79 06		 jns	 SHORT $LN63@ProcessAtt
  0008d	d8 05 00 00 00
	00		 fadd	 DWORD PTR __real@4f800000
$LN63@ProcessAtt:
  00093	89 45 c4	 mov	 DWORD PTR tv476[ebp], eax
  00096	db 45 c4	 fild	 DWORD PTR tv476[ebp]
  00099	85 c0		 test	 eax, eax
  0009b	79 06		 jns	 SHORT $LN64@ProcessAtt
  0009d	d8 05 00 00 00
	00		 fadd	 DWORD PTR __real@4f800000
$LN64@ProcessAtt:
  000a3	de f9		 fdivp	 ST(1), ST(0)
  000a5	51		 push	 ecx
  000a6	8d 45 d8	 lea	 eax, DWORD PTR _vCurPos$[ebp]
  000a9	8b ce		 mov	 ecx, esi
  000ab	d9 5d c4	 fstp	 DWORD PTR tv472[ebp]
  000ae	d9 45 c4	 fld	 DWORD PTR tv472[ebp]
  000b1	d9 1c 24	 fstp	 DWORD PTR [esp]
  000b4	50		 push	 eax
  000b5	e8 00 00 00 00	 call	 ?GetMidPositionByRate@ioGameEntity@@QBE?AUD3DXVECTOR3@@M@Z ; ioGameEntity::GetMidPositionByRate

; 542  : 
; 543  : 	DWORD dwLastFireTime = dwPreTime;
; 544  : 	FireTimeList::iterator iter = m_vAttackFireTimeList.begin();

  000ba	8b 86 78 05 00
	00		 mov	 eax, DWORD PTR [esi+1400]
  000c0	8b 38		 mov	 edi, DWORD PTR [eax]

; 545  : 	while( iter != m_vAttackFireTimeList.end() )

  000c2	3b f8		 cmp	 edi, eax
  000c4	0f 84 93 00 00
	00		 je	 $LN8@ProcessAtt
$LL9@ProcessAtt:

; 546  : 	{
; 547  : 		const FireTime &rkFire = *iter;

  000ca	8d 5f 08	 lea	 ebx, DWORD PTR [edi+8]

; 548  : 
; 549  : 		DWORD dwFireTime = rkFire.dwStart;

  000cd	8b 03		 mov	 eax, DWORD PTR [ebx]

; 550  : 		if( COMPARE( dwFireTime, dwPreTime, dwCurTime ) )

  000cf	3b 45 10	 cmp	 eax, DWORD PTR _dwPreTime$[ebp]
  000d2	72 78		 jb	 SHORT $LN7@ProcessAtt
  000d4	3b 45 c0	 cmp	 eax, DWORD PTR _dwCurTime$[ebp]
  000d7	73 73		 jae	 SHORT $LN7@ProcessAtt

; 551  : 		{
; 552  : 			if( rkFire.iAttributeIdx != NO_WEAPON_ATTRIBUTE )

  000d9	83 7b 08 00	 cmp	 DWORD PTR [ebx+8], 0
  000dd	74 59		 je	 SHORT $LN5@ProcessAtt

; 553  : 			{
; 554  : 				ioWeapon* pWeapon = pOwner->ExtendFireExplicit( rkFire, vCurPos, vCurDir, "" );

  000df	68 00 00 00 00	 push	 OFFSET ??_C@_00CNPNBAHC@?$AA@
  000e4	8d 4d c8	 lea	 ecx, DWORD PTR $T542580[ebp]
  000e7	ff 15 00 00 00
	00		 call	 DWORD PTR __imp_??0ioHashString@@QAE@PBD@Z
  000ed	8b 4d bc	 mov	 ecx, DWORD PTR _pOwner$GSCopy$[ebp]
  000f0	83 65 fc 00	 and	 DWORD PTR __$EHRec$[ebp+8], 0
  000f4	8d 45 c8	 lea	 eax, DWORD PTR $T542580[ebp]
  000f7	50		 push	 eax
  000f8	8d 45 e4	 lea	 eax, DWORD PTR _vCurDir$[ebp]
  000fb	50		 push	 eax
  000fc	8d 45 d8	 lea	 eax, DWORD PTR _vCurPos$[ebp]
  000ff	50		 push	 eax
  00100	53		 push	 ebx
  00101	e8 00 00 00 00	 call	 ?ExtendFireExplicit@ioBaseChar@@QAEPAVioWeapon@@ABUFireTime@@ABUD3DXVECTOR3@@1ABVioHashString@@@Z ; ioBaseChar::ExtendFireExplicit
  00106	83 4d fc ff	 or	 DWORD PTR __$EHRec$[ebp+8], -1
  0010a	8d 4d c8	 lea	 ecx, DWORD PTR $T542580[ebp]
  0010d	8b d8		 mov	 ebx, eax
  0010f	ff 15 00 00 00
	00		 call	 DWORD PTR __imp_??1ioHashString@@QAE@XZ

; 555  : 				ioZoneEffectWeapon *pZone = ToZoneEffectWeapon( pWeapon );

  00115	53		 push	 ebx
  00116	e8 00 00 00 00	 call	 ?ToZoneEffectWeapon@@YAPAVioZoneEffectWeapon@@PAVioWeapon@@@Z ; ToZoneEffectWeapon
  0011b	8b d8		 mov	 ebx, eax
  0011d	59		 pop	 ecx

; 556  : 				if( pZone )

  0011e	85 db		 test	 ebx, ebx
  00120	74 16		 je	 SHORT $LN5@ProcessAtt

; 557  : 				{
; 558  : 					pZone->SetCollisionDir( vCurDir );

  00122	8d 45 e4	 lea	 eax, DWORD PTR _vCurDir$[ebp]
  00125	50		 push	 eax
  00126	8b cb		 mov	 ecx, ebx
  00128	e8 00 00 00 00	 call	 ?SetCollisionDir@ioZoneEffectWeapon@@QAEXAAUD3DXVECTOR3@@@Z ; ioZoneEffectWeapon::SetCollisionDir

; 559  : 					pZone->SetZoneValue( true, false );

  0012d	6a 00		 push	 0
  0012f	6a 01		 push	 1
  00131	8b cb		 mov	 ecx, ebx
  00133	e8 00 00 00 00	 call	 ?SetZoneValue@ioZoneEffectWeapon@@QAEX_N0@Z ; ioZoneEffectWeapon::SetZoneValue
$LN5@ProcessAtt:

; 560  : 				}
; 561  : 			}
; 562  : 
; 563  : 			iter = m_vAttackFireTimeList.erase( iter );

  00138	57		 push	 edi
  00139	8d 45 b8	 lea	 eax, DWORD PTR $T542582[ebp]
  0013c	50		 push	 eax
  0013d	8d 8e 78 05 00
	00		 lea	 ecx, DWORD PTR [esi+1400]
  00143	e8 00 00 00 00	 call	 ?erase@?$list@UFireTime@@V?$allocator@UFireTime@@@std@@@std@@QAE?AV?$_List_iterator@V?$_List_val@UFireTime@@V?$allocator@UFireTime@@@std@@@std@@@2@V?$_List_const_iterator@V?$_List_val@UFireTime@@V?$allocator@UFireTime@@@std@@@std@@@2@@Z ; std::list<FireTime,std::allocator<FireTime> >::erase
  00148	8b 38		 mov	 edi, DWORD PTR [eax]

; 564  : 		}
; 565  : 		else

  0014a	eb 02		 jmp	 SHORT $LN57@ProcessAtt
$LN7@ProcessAtt:

; 566  : 		{
; 567  : 			++iter;

  0014c	8b 3f		 mov	 edi, DWORD PTR [edi]
$LN57@ProcessAtt:

; 545  : 	while( iter != m_vAttackFireTimeList.end() )

  0014e	3b be 78 05 00
	00		 cmp	 edi, DWORD PTR [esi+1400]
  00154	0f 85 70 ff ff
	ff		 jne	 $LL9@ProcessAtt
  0015a	8b 5d bc	 mov	 ebx, DWORD PTR _pOwner$GSCopy$[ebp]
$LN8@ProcessAtt:

; 568  : 		}
; 569  : 	}
; 570  : 
; 571  : 	if ( pOwner->IsNeedProcess() )

  0015d	8b 03		 mov	 eax, DWORD PTR [ebx]
  0015f	8b cb		 mov	 ecx, ebx
  00161	ff 90 00 01 00
	00		 call	 DWORD PTR [eax+256]
  00167	84 c0		 test	 al, al
  00169	74 2e		 je	 SHORT $LN2@ProcessAtt

; 572  : 	{
; 573  : 		if( m_dwAttackAniEndTime == 0 || m_dwAttackAniEndTime < dwCurTime )

  0016b	8b 86 e8 06 00
	00		 mov	 eax, DWORD PTR [esi+1768]
  00171	85 c0		 test	 eax, eax
  00173	74 05		 je	 SHORT $LN1@ProcessAtt
  00175	3b 45 c0	 cmp	 eax, DWORD PTR _dwCurTime$[ebp]
  00178	73 1f		 jae	 SHORT $LN2@ProcessAtt
$LN1@ProcessAtt:

; 574  : 		{
; 575  : 			m_LastAttacker = m_OwnerName;

  0017a	8d 86 cc 01 00
	00		 lea	 eax, DWORD PTR [esi+460]
  00180	50		 push	 eax
  00181	8d 8e 30 05 00
	00		 lea	 ecx, DWORD PTR [esi+1328]
  00187	ff 15 00 00 00
	00		 call	 DWORD PTR __imp_??4ioHashString@@QAEAAV0@ABV0@@Z

; 576  : 			SetDelayState( true );

  0018d	8b 06		 mov	 eax, DWORD PTR [esi]
  0018f	6a 01		 push	 1
  00191	8b ce		 mov	 ecx, esi
  00193	ff 90 14 01 00
	00		 call	 DWORD PTR [eax+276]
$LN2@ProcessAtt:

; 577  : 			return;
; 578  : 		}
; 579  : 	}
; 580  : }

  00199	e8 00 00 00 00	 call	 __EH_epilog3_GS
  0019e	c2 0c 00	 ret	 12			; 0000000cH
_TEXT	ENDS
;	COMDAT text$x
text$x	SEGMENT
__unwindfunclet$?ProcessAttackState@ioTargetTrace16Dummy@@AAEXPAVioBaseChar@@MK@Z$0:
  00000	8d 4d c8	 lea	 ecx, DWORD PTR $T542580[ebp]
  00003	ff 25 00 00 00
	00		 jmp	 DWORD PTR __imp_??1ioHashString@@QAE@XZ
__ehhandler$?ProcessAttackState@ioTargetTrace16Dummy@@AAEXPAVioBaseChar@@MK@Z:
  00009	8b 54 24 08	 mov	 edx, DWORD PTR [esp+8]
  0000d	8d 42 0c	 lea	 eax, DWORD PTR [edx+12]
  00010	8b 4a b4	 mov	 ecx, DWORD PTR [edx-76]
  00013	33 c8		 xor	 ecx, eax
  00015	e8 00 00 00 00	 call	 @__security_check_cookie@4
  0001a	8b 4a fc	 mov	 ecx, DWORD PTR [edx-4]
  0001d	33 c8		 xor	 ecx, eax
  0001f	e8 00 00 00 00	 call	 @__security_check_cookie@4
  00024	b8 00 00 00 00	 mov	 eax, OFFSET __ehfuncinfo$?ProcessAttackState@ioTargetTrace16Dummy@@AAEXPAVioBaseChar@@MK@Z
  00029	e9 00 00 00 00	 jmp	 ___CxxFrameHandler3
text$x	ENDS
?ProcessAttackState@ioTargetTrace16Dummy@@AAEXPAVioBaseChar@@MK@Z ENDP ; ioTargetTrace16Dummy::ProcessAttackState
PUBLIC	?push_back@?$list@UFireTime@@V?$allocator@UFireTime@@@std@@@std@@QAEXABUFireTime@@@Z ; std::list<FireTime,std::allocator<FireTime> >::push_back
; Function compile flags: /Ogsp
; File c:\program files (x86)\microsoft visual studio 10.0\vc\include\list
;	COMDAT ?push_back@?$list@UFireTime@@V?$allocator@UFireTime@@@std@@@std@@QAEXABUFireTime@@@Z
_TEXT	SEGMENT
__Val$ = 8						; size = 4
?push_back@?$list@UFireTime@@V?$allocator@UFireTime@@@std@@@std@@QAEXABUFireTime@@@Z PROC ; std::list<FireTime,std::allocator<FireTime> >::push_back, COMDAT
; _this$ = ecx

; 926  : 		{	// insert element at end

  00000	55		 push	 ebp
  00001	8b ec		 mov	 ebp, esp

; 927  : 		_Insert(end(), _Val);

  00003	ff 75 08	 push	 DWORD PTR __Val$[ebp]
  00006	8b 01		 mov	 eax, DWORD PTR [ecx]
  00008	50		 push	 eax
  00009	e8 00 00 00 00	 call	 ?_Insert@?$list@UFireTime@@V?$allocator@UFireTime@@@std@@@std@@QAEXV?$_List_const_iterator@V?$_List_val@UFireTime@@V?$allocator@UFireTime@@@std@@@std@@@2@ABUFireTime@@@Z ; std::list<FireTime,std::allocator<FireTime> >::_Insert

; 928  : 		}

  0000e	5d		 pop	 ebp
  0000f	c2 04 00	 ret	 4
?push_back@?$list@UFireTime@@V?$allocator@UFireTime@@@std@@@std@@QAEXABUFireTime@@@Z ENDP ; std::list<FireTime,std::allocator<FireTime> >::push_back
_TEXT	ENDS
PUBLIC	?erase@?$vector@UExtraAniJump@@V?$allocator@UExtraAniJump@@@std@@@std@@QAE?AV?$_Vector_iterator@V?$_Vector_val@UExtraAniJump@@V?$allocator@UExtraAniJump@@@std@@@std@@@2@V?$_Vector_const_iterator@V?$_Vector_val@UExtraAniJump@@V?$allocator@UExtraAniJump@@@std@@@std@@@2@0@Z ; std::vector<ExtraAniJump,std::allocator<ExtraAniJump> >::erase
; Function compile flags: /Ogsp
; File c:\program files (x86)\microsoft visual studio 10.0\vc\include\vector
;	COMDAT ?erase@?$vector@UExtraAniJump@@V?$allocator@UExtraAniJump@@@std@@@std@@QAE?AV?$_Vector_iterator@V?$_Vector_val@UExtraAniJump@@V?$allocator@UExtraAniJump@@@std@@@std@@@2@V?$_Vector_const_iterator@V?$_Vector_val@UExtraAniJump@@V?$allocator@UExtraAniJump@@@std@@@std@@@2@0@Z
_TEXT	SEGMENT
___$ReturnUdt$ = 8					; size = 4
__First_arg$ = 12					; size = 4
__Cat$542839 = 16					; size = 1
__Last_arg$ = 16					; size = 4
?erase@?$vector@UExtraAniJump@@V?$allocator@UExtraAniJump@@@std@@@std@@QAE?AV?$_Vector_iterator@V?$_Vector_val@UExtraAniJump@@V?$allocator@UExtraAniJump@@@std@@@std@@@2@V?$_Vector_const_iterator@V?$_Vector_val@UExtraAniJump@@V?$allocator@UExtraAniJump@@@std@@@std@@@2@0@Z PROC ; std::vector<ExtraAniJump,std::allocator<ExtraAniJump> >::erase, COMDAT
; _this$ = ecx

; 1190 : 		{	// erase [_First, _Last)

  00000	55		 push	 ebp
  00001	8b ec		 mov	 ebp, esp

; 1191 : 		iterator _First = _Make_iter(_First_arg);

  00003	8b 45 0c	 mov	 eax, DWORD PTR __First_arg$[ebp]
  00006	56		 push	 esi
  00007	57		 push	 edi
  00008	8b 7d 08	 mov	 edi, DWORD PTR ___$ReturnUdt$[ebp]
  0000b	8b f1		 mov	 esi, ecx
  0000d	89 07		 mov	 DWORD PTR [edi], eax

; 1192 : 		iterator _Last = _Make_iter(_Last_arg);
; 1193 : 
; 1194 : 		if (_First != _Last)

  0000f	3b 45 10	 cmp	 eax, DWORD PTR __Last_arg$[ebp]
  00012	74 16		 je	 SHORT $LN1@erase@4

; 1195 : 			{	// worth doing, copy down over hole
; 1196 :  #if _ITERATOR_DEBUG_LEVEL == 2
; 1197 : 			if (_Last < _First || _VICONT(_First) != this
; 1198 : 				|| _VIPTR(_First) < this->_Myfirst
; 1199 : 				|| this->_Mylast < _VIPTR(_Last))
; 1200 : 				_DEBUG_ERROR("vector erase iterator outside range");
; 1201 : 			pointer _Ptr = _Move(_VIPTR(_Last), this->_Mylast,
; 1202 : 				_VIPTR(_First));
; 1203 : 			_Orphan_range(_VIPTR(_First), this->_Mylast);
; 1204 : 
; 1205 :  #else /* _ITERATOR_DEBUG_LEVEL == 2 */
; 1206 : 			pointer _Ptr = _Move(_VIPTR(_Last), this->_Mylast,
; 1207 : 				_VIPTR(_First));

  00014	ff 75 10	 push	 DWORD PTR __Cat$542839[ebp]
  00017	8b 4e 04	 mov	 ecx, DWORD PTR [esi+4]
  0001a	50		 push	 eax
  0001b	51		 push	 ecx
  0001c	ff 75 10	 push	 DWORD PTR __Last_arg$[ebp]
  0001f	e8 00 00 00 00	 call	 ??$_Move@PAUExtraAniJump@@PAU1@@std@@YAPAUExtraAniJump@@PAU1@00U_Nonscalar_ptr_iterator_tag@0@@Z ; std::_Move<ExtraAniJump *,ExtraAniJump *>
  00024	83 c4 10	 add	 esp, 16			; 00000010H

; 1208 :  #endif /* _ITERATOR_DEBUG_LEVEL == 2 */
; 1209 : 
; 1210 : 			_Destroy(_Ptr, this->_Mylast);
; 1211 : 			this->_Mylast = _Ptr;

  00027	89 46 04	 mov	 DWORD PTR [esi+4], eax
$LN1@erase@4:

; 1212 : 			}
; 1213 : 		return (_First);

  0002a	8b c7		 mov	 eax, edi
  0002c	5f		 pop	 edi
  0002d	5e		 pop	 esi

; 1214 : 		}

  0002e	5d		 pop	 ebp
  0002f	c2 0c 00	 ret	 12			; 0000000cH
?erase@?$vector@UExtraAniJump@@V?$allocator@UExtraAniJump@@@std@@@std@@QAE?AV?$_Vector_iterator@V?$_Vector_val@UExtraAniJump@@V?$allocator@UExtraAniJump@@@std@@@std@@@2@V?$_Vector_const_iterator@V?$_Vector_val@UExtraAniJump@@V?$allocator@UExtraAniJump@@@std@@@std@@@2@0@Z ENDP ; std::vector<ExtraAniJump,std::allocator<ExtraAniJump> >::erase
_TEXT	ENDS
PUBLIC	?reserve@?$vector@UExtraAniJump@@V?$allocator@UExtraAniJump@@@std@@@std@@QAEXI@Z ; std::vector<ExtraAniJump,std::allocator<ExtraAniJump> >::reserve
;	COMDAT xdata$x
; File c:\program files (x86)\microsoft visual studio 10.0\vc\include\xmemory
xdata$x	SEGMENT
__catchsym$?reserve@?$vector@UExtraAniJump@@V?$allocator@UExtraAniJump@@@std@@@std@@QAEXI@Z$2 DD 040H
	DD	00H
	DD	00H
	DD	FLAT:__catch$?reserve@?$vector@UExtraAniJump@@V?$allocator@UExtraAniJump@@@std@@@std@@QAEXI@Z$0
__unwindtable$?reserve@?$vector@UExtraAniJump@@V?$allocator@UExtraAniJump@@@std@@@std@@QAEXI@Z DD 0ffffffffH
	DD	00H
	DD	0ffffffffH
	DD	00H
__tryblocktable$?reserve@?$vector@UExtraAniJump@@V?$allocator@UExtraAniJump@@@std@@@std@@QAEXI@Z DD 00H
	DD	00H
	DD	01H
	DD	01H
	DD	FLAT:__catchsym$?reserve@?$vector@UExtraAniJump@@V?$allocator@UExtraAniJump@@@std@@@std@@QAEXI@Z$2
__ehfuncinfo$?reserve@?$vector@UExtraAniJump@@V?$allocator@UExtraAniJump@@@std@@@std@@QAEXI@Z DD 019930522H
	DD	02H
	DD	FLAT:__unwindtable$?reserve@?$vector@UExtraAniJump@@V?$allocator@UExtraAniJump@@@std@@@std@@QAEXI@Z
	DD	01H
	DD	FLAT:__tryblocktable$?reserve@?$vector@UExtraAniJump@@V?$allocator@UExtraAniJump@@@std@@@std@@QAEXI@Z
	DD	2 DUP(00H)
	DD	00H
	DD	01H
; Function compile flags: /Ogsp
; File c:\program files (x86)\microsoft visual studio 10.0\vc\include\vector
xdata$x	ENDS
;	COMDAT ?reserve@?$vector@UExtraAniJump@@V?$allocator@UExtraAniJump@@@std@@@std@@QAEXI@Z
_TEXT	SEGMENT
__Ptr$533322 = -20					; size = 4
__$EHRec$ = -16						; size = 16
__Count$ = 8						; size = 4
?reserve@?$vector@UExtraAniJump@@V?$allocator@UExtraAniJump@@@std@@@std@@QAEXI@Z PROC ; std::vector<ExtraAniJump,std::allocator<ExtraAniJump> >::reserve, COMDAT
; _this$ = ecx

; 746  : 		{	// determine new minimum length of allocated storage

  00000	6a 08		 push	 8
  00002	b8 00 00 00 00	 mov	 eax, __ehhandler$?reserve@?$vector@UExtraAniJump@@V?$allocator@UExtraAniJump@@@std@@@std@@QAEXI@Z
  00007	e8 00 00 00 00	 call	 __EH_prolog3_catch
  0000c	8b f1		 mov	 esi, ecx

; 747  : 		if (max_size() < _Count)

  0000e	81 7d 08 ff ff
	ff 1f		 cmp	 DWORD PTR __Count$[ebp], 536870911 ; 1fffffffH
  00015	76 0b		 jbe	 SHORT $LN5@reserve@2

; 748  : 			_Xlen();	// result too long

  00017	68 00 00 00 00	 push	 OFFSET ??_C@_0BD@OLBABOEK@vector?$DMT?$DO?5too?5long?$AA@
  0001c	ff 15 00 00 00
	00		 call	 DWORD PTR __imp_?_Xlength_error@std@@YAXPBD@Z
$LN56@reserve@2:
$LN5@reserve@2:

; 749  : 		else if (capacity() < _Count)

  00022	8b 46 08	 mov	 eax, DWORD PTR [esi+8]
  00025	2b 06		 sub	 eax, DWORD PTR [esi]
  00027	c1 f8 03	 sar	 eax, 3
  0002a	3b 45 08	 cmp	 eax, DWORD PTR __Count$[ebp]
  0002d	73 65		 jae	 SHORT $LN3@reserve@2

; 750  : 			{	// not enough room, reallocate
; 751  : 			pointer _Ptr = this->_Alval.allocate(_Count);

  0002f	6a 00		 push	 0
  00031	ff 75 08	 push	 DWORD PTR __Count$[ebp]
  00034	e8 00 00 00 00	 call	 ??$_Allocate@UExtraAniJump@@@std@@YAPAUExtraAniJump@@IPAU1@@Z ; std::_Allocate<ExtraAniJump>

; 752  : 
; 753  : 			_TRY_BEGIN
; 754  : 			_Umove(this->_Myfirst, this->_Mylast, _Ptr);

  00039	8b 0e		 mov	 ecx, DWORD PTR [esi]
  0003b	83 65 fc 00	 and	 DWORD PTR __$EHRec$[ebp+12], 0
  0003f	8b d8		 mov	 ebx, eax
  00041	8b 46 04	 mov	 eax, DWORD PTR [esi+4]
  00044	8d 56 0c	 lea	 edx, DWORD PTR [esi+12]
  00047	52		 push	 edx
  00048	53		 push	 ebx
  00049	50		 push	 eax
  0004a	51		 push	 ecx
  0004b	89 5d ec	 mov	 DWORD PTR __Ptr$533322[ebp], ebx
  0004e	e8 00 00 00 00	 call	 ??$_Uninitialized_move@PAUExtraAniJump@@PAU1@V?$allocator@UExtraAniJump@@@std@@@std@@YAPAUExtraAniJump@@PAU1@00AAV?$allocator@UExtraAniJump@@@0@@Z ; std::_Uninitialized_move<ExtraAniJump *,ExtraAniJump *,std::allocator<ExtraAniJump> >

; 758  : 			_CATCH_END
; 759  : 
; 760  : 			size_type _Size = size();

  00053	8b 4e 04	 mov	 ecx, DWORD PTR [esi+4]
  00056	8b 06		 mov	 eax, DWORD PTR [esi]
  00058	83 4d fc ff	 or	 DWORD PTR __$EHRec$[ebp+12], -1
  0005c	8b f9		 mov	 edi, ecx
  0005e	2b f8		 sub	 edi, eax
  00060	83 c4 18	 add	 esp, 24			; 00000018H
  00063	c1 ff 03	 sar	 edi, 3
  00066	85 c0		 test	 eax, eax
  00068	74 11		 je	 SHORT $LN48@reserve@2

; 761  : 			if (this->_Myfirst != 0)

  0006a	eb 03		 jmp	 SHORT $LN55@reserve@2

; 762  : 				{	// destroy and deallocate old array
; 763  : 				_Destroy(this->_Myfirst, this->_Mylast);

$LL39@reserve@2:
  0006c	83 c0 08	 add	 eax, 8
$LN55@reserve@2:
  0006f	3b c1		 cmp	 eax, ecx
  00071	75 f9		 jne	 SHORT $LL39@reserve@2

; 764  : 				this->_Alval.deallocate(this->_Myfirst,
; 765  : 					this->_Myend - this->_Myfirst);

  00073	ff 36		 push	 DWORD PTR [esi]
  00075	e8 00 00 00 00	 call	 ??3@YAXPAX@Z		; operator delete
  0007a	59		 pop	 ecx
$LN48@reserve@2:

; 766  : 				}
; 767  : 
; 768  : 			this->_Orphan_all();

  0007b	8b ce		 mov	 ecx, esi
  0007d	ff 15 00 00 00
	00		 call	 DWORD PTR __imp_?_Orphan_all@_Container_base0@std@@QAEXXZ

; 769  : 			this->_Myend = _Ptr + _Count;

  00083	8b 45 08	 mov	 eax, DWORD PTR __Count$[ebp]
  00086	8d 04 c3	 lea	 eax, DWORD PTR [ebx+eax*8]
  00089	89 46 08	 mov	 DWORD PTR [esi+8], eax

; 770  : 			this->_Mylast = _Ptr + _Size;

  0008c	8d 04 fb	 lea	 eax, DWORD PTR [ebx+edi*8]
  0008f	89 46 04	 mov	 DWORD PTR [esi+4], eax

; 771  : 			this->_Myfirst = _Ptr;

  00092	89 1e		 mov	 DWORD PTR [esi], ebx
$LN3@reserve@2:

; 772  : 			}
; 773  : 		}

  00094	e8 00 00 00 00	 call	 __EH_epilog3
  00099	c2 04 00	 ret	 4
__catch$?reserve@?$vector@UExtraAniJump@@V?$allocator@UExtraAniJump@@@std@@@std@@QAEXI@Z$0:

; 755  : 			_CATCH_ALL
; 756  : 			this->_Alval.deallocate(_Ptr, _Count);

  0009c	ff 75 ec	 push	 DWORD PTR __Ptr$533322[ebp]
  0009f	e8 00 00 00 00	 call	 ??3@YAXPAX@Z		; operator delete
  000a4	59		 pop	 ecx

; 757  : 			_RERAISE;

  000a5	6a 00		 push	 0
  000a7	6a 00		 push	 0
  000a9	e8 00 00 00 00	 call	 __CxxThrowException@8
$LN57@reserve@2:
$LN54@reserve@2:
  000ae	cc		 int	 3
_TEXT	ENDS
;	COMDAT text$x
text$x	SEGMENT
__ehhandler$?reserve@?$vector@UExtraAniJump@@V?$allocator@UExtraAniJump@@@std@@@std@@QAEXI@Z:
  00000	8b 54 24 08	 mov	 edx, DWORD PTR [esp+8]
  00004	8d 42 0c	 lea	 eax, DWORD PTR [edx+12]
  00007	8b 4a e8	 mov	 ecx, DWORD PTR [edx-24]
  0000a	33 c8		 xor	 ecx, eax
  0000c	e8 00 00 00 00	 call	 @__security_check_cookie@4
  00011	b8 00 00 00 00	 mov	 eax, OFFSET __ehfuncinfo$?reserve@?$vector@UExtraAniJump@@V?$allocator@UExtraAniJump@@@std@@@std@@QAEXI@Z
  00016	e9 00 00 00 00	 jmp	 ___CxxFrameHandler3
text$x	ENDS
?reserve@?$vector@UExtraAniJump@@V?$allocator@UExtraAniJump@@@std@@@std@@QAEXI@Z ENDP ; std::vector<ExtraAniJump,std::allocator<ExtraAniJump> >::reserve
PUBLIC	??0?$basic_string@DU?$char_traits@D@std@@V?$allocator@D@2@@std@@QAE@PBD@Z ; std::basic_string<char,std::char_traits<char>,std::allocator<char> >::basic_string<char,std::char_traits<char>,std::allocator<char> >
; Function compile flags: /Ogsp
; File c:\program files (x86)\microsoft visual studio 10.0\vc\include\xstring
;	COMDAT ??0?$basic_string@DU?$char_traits@D@std@@V?$allocator@D@2@@std@@QAE@PBD@Z
_TEXT	SEGMENT
__Ptr$ = 8						; size = 4
??0?$basic_string@DU?$char_traits@D@std@@V?$allocator@D@2@@std@@QAE@PBD@Z PROC ; std::basic_string<char,std::char_traits<char>,std::allocator<char> >::basic_string<char,std::char_traits<char>,std::allocator<char> >, COMDAT
; _this$ = ecx

; 592  : 		{	// construct from [_Ptr, <null>)

  00000	55		 push	 ebp
  00001	8b ec		 mov	 ebp, esp
  00003	56		 push	 esi

; 593  : 		_Tidy();
; 594  : 		assign(_Ptr);

  00004	ff 75 08	 push	 DWORD PTR __Ptr$[ebp]
  00007	8b f1		 mov	 esi, ecx
  00009	83 66 10 00	 and	 DWORD PTR [esi+16], 0
  0000d	c7 46 14 0f 00
	00 00		 mov	 DWORD PTR [esi+20], 15	; 0000000fH
  00014	c6 06 00	 mov	 BYTE PTR [esi], 0
  00017	e8 00 00 00 00	 call	 ?assign@?$basic_string@DU?$char_traits@D@std@@V?$allocator@D@2@@std@@QAEAAV12@PBD@Z ; std::basic_string<char,std::char_traits<char>,std::allocator<char> >::assign

; 595  : 		}

  0001c	8b c6		 mov	 eax, esi
  0001e	5e		 pop	 esi
  0001f	5d		 pop	 ebp
  00020	c2 04 00	 ret	 4
??0?$basic_string@DU?$char_traits@D@std@@V?$allocator@D@2@@std@@QAE@PBD@Z ENDP ; std::basic_string<char,std::char_traits<char>,std::allocator<char> >::basic_string<char,std::char_traits<char>,std::allocator<char> >
_TEXT	ENDS
PUBLIC	?clear@?$vector@UExtraAniJump@@V?$allocator@UExtraAniJump@@@std@@@std@@QAEXXZ ; std::vector<ExtraAniJump,std::allocator<ExtraAniJump> >::clear
; Function compile flags: /Ogsp
; File c:\program files (x86)\microsoft visual studio 10.0\vc\include\vector
;	COMDAT ?clear@?$vector@UExtraAniJump@@V?$allocator@UExtraAniJump@@@std@@@std@@QAEXXZ
_TEXT	SEGMENT
$T543123 = -4						; size = 4
?clear@?$vector@UExtraAniJump@@V?$allocator@UExtraAniJump@@@std@@@std@@QAEXXZ PROC ; std::vector<ExtraAniJump,std::allocator<ExtraAniJump> >::clear, COMDAT
; _this$ = ecx

; 1217 : 		{	// erase all

  00000	55		 push	 ebp
  00001	8b ec		 mov	 ebp, esp
  00003	51		 push	 ecx

; 1218 : 		erase(begin(), end());

  00004	8b 41 04	 mov	 eax, DWORD PTR [ecx+4]
  00007	8b 11		 mov	 edx, DWORD PTR [ecx]
  00009	50		 push	 eax
  0000a	52		 push	 edx
  0000b	8d 45 fc	 lea	 eax, DWORD PTR $T543123[ebp]
  0000e	50		 push	 eax
  0000f	e8 00 00 00 00	 call	 ?erase@?$vector@UExtraAniJump@@V?$allocator@UExtraAniJump@@@std@@@std@@QAE?AV?$_Vector_iterator@V?$_Vector_val@UExtraAniJump@@V?$allocator@UExtraAniJump@@@std@@@std@@@2@V?$_Vector_const_iterator@V?$_Vector_val@UExtraAniJump@@V?$allocator@UExtraAniJump@@@std@@@std@@@2@0@Z ; std::vector<ExtraAniJump,std::allocator<ExtraAniJump> >::erase

; 1219 : 		}

  00014	c9		 leave
  00015	c3		 ret	 0
?clear@?$vector@UExtraAniJump@@V?$allocator@UExtraAniJump@@@std@@@std@@QAEXXZ ENDP ; std::vector<ExtraAniJump,std::allocator<ExtraAniJump> >::clear
_TEXT	ENDS
PUBLIC	?_Reserve@?$vector@UExtraAniJump@@V?$allocator@UExtraAniJump@@@std@@@std@@IAEXI@Z ; std::vector<ExtraAniJump,std::allocator<ExtraAniJump> >::_Reserve
; Function compile flags: /Ogsp
;	COMDAT ?_Reserve@?$vector@UExtraAniJump@@V?$allocator@UExtraAniJump@@@std@@@std@@IAEXI@Z
_TEXT	SEGMENT
__Count$ = 8						; size = 4
?_Reserve@?$vector@UExtraAniJump@@V?$allocator@UExtraAniJump@@@std@@@std@@IAEXI@Z PROC ; std::vector<ExtraAniJump,std::allocator<ExtraAniJump> >::_Reserve, COMDAT
; _this$ = ecx

; 1290 : 		{	// ensure room for _Count new elements, grow exponentially

  00000	55		 push	 ebp
  00001	8b ec		 mov	 ebp, esp
  00003	56		 push	 esi
  00004	8b f1		 mov	 esi, ecx

; 1291 : 		size_type _Size = size();

  00006	8b 0e		 mov	 ecx, DWORD PTR [esi]
  00008	8b 46 04	 mov	 eax, DWORD PTR [esi+4]
  0000b	2b c1		 sub	 eax, ecx

; 1292 : 		if (max_size() - _Count < _Size)

  0000d	ba ff ff ff 1f	 mov	 edx, 536870911		; 1fffffffH
  00012	2b 55 08	 sub	 edx, DWORD PTR __Count$[ebp]
  00015	c1 f8 03	 sar	 eax, 3
  00018	3b d0		 cmp	 edx, eax
  0001a	73 0b		 jae	 SHORT $LN4@Reserve@2

; 1293 : 			_Xlen();

  0001c	68 00 00 00 00	 push	 OFFSET ??_C@_0BD@OLBABOEK@vector?$DMT?$DO?5too?5long?$AA@
  00021	ff 15 00 00 00
	00		 call	 DWORD PTR __imp_?_Xlength_error@std@@YAXPBD@Z
$LN21@Reserve@2:
$LN4@Reserve@2:

; 1294 : 		else if ((_Size += _Count) <= capacity())

  00027	8b 56 08	 mov	 edx, DWORD PTR [esi+8]
  0002a	03 45 08	 add	 eax, DWORD PTR __Count$[ebp]
  0002d	2b d1		 sub	 edx, ecx
  0002f	c1 fa 03	 sar	 edx, 3
  00032	3b c2		 cmp	 eax, edx
  00034	76 10		 jbe	 SHORT $LN1@Reserve@2

; 1295 : 			;
; 1296 : 		else
; 1297 : 			reserve(_Grow_to(_Size));

  00036	50		 push	 eax
  00037	8b ce		 mov	 ecx, esi
  00039	e8 00 00 00 00	 call	 ?_Grow_to@?$vector@UExtraAniJump@@V?$allocator@UExtraAniJump@@@std@@@std@@IBEII@Z ; std::vector<ExtraAniJump,std::allocator<ExtraAniJump> >::_Grow_to
  0003e	50		 push	 eax
  0003f	8b ce		 mov	 ecx, esi
  00041	e8 00 00 00 00	 call	 ?reserve@?$vector@UExtraAniJump@@V?$allocator@UExtraAniJump@@@std@@@std@@QAEXI@Z ; std::vector<ExtraAniJump,std::allocator<ExtraAniJump> >::reserve
$LN1@Reserve@2:
  00046	5e		 pop	 esi

; 1298 : 		}

  00047	5d		 pop	 ebp
  00048	c2 04 00	 ret	 4
$LN20@Reserve@2:
?_Reserve@?$vector@UExtraAniJump@@V?$allocator@UExtraAniJump@@@std@@@std@@IAEXI@Z ENDP ; std::vector<ExtraAniJump,std::allocator<ExtraAniJump> >::_Reserve
_TEXT	ENDS
PUBLIC	__$ArrayPad$
EXTRN	?CheckChargeWeaponDead@ioDummyChar@@IAEXXZ:PROC	; ioDummyChar::CheckChargeWeaponDead
;	COMDAT xdata$x
; File c:\program files (x86)\microsoft visual studio 10.0\vc\include\xutility
xdata$x	SEGMENT
__unwindtable$?SetDelayState@ioTargetTrace16Dummy@@EAEX_N@Z DD 0ffffffffH
	DD	FLAT:__unwindfunclet$?SetDelayState@ioTargetTrace16Dummy@@EAEX_N@Z$0
__ehfuncinfo$?SetDelayState@ioTargetTrace16Dummy@@EAEX_N@Z DD 019930522H
	DD	01H
	DD	FLAT:__unwindtable$?SetDelayState@ioTargetTrace16Dummy@@EAEX_N@Z
	DD	2 DUP(00H)
	DD	2 DUP(00H)
	DD	00H
	DD	01H
; Function compile flags: /Ogsp
; File d:\lost saga for developer\youtube\tutorial\source\src\lsclient\iotargettrace16dummy.cpp
xdata$x	ENDS
;	COMDAT ?SetDelayState@ioTargetTrace16Dummy@@EAEX_N@Z
_TEXT	SEGMENT
$T543270 = -32812					; size = 4
_fAniRate$530924 = -32812				; size = 4
_kPacket$530928 = -32808				; size = 32792
__$ArrayPad$ = -16					; size = 4
__$EHRec$ = -12						; size = 12
_bNet$ = 8						; size = 1
?SetDelayState@ioTargetTrace16Dummy@@EAEX_N@Z PROC	; ioTargetTrace16Dummy::SetDelayState, COMDAT
; _this$ = ecx

; 122  : {

  00000	55		 push	 ebp
  00001	8b ec		 mov	 ebp, esp
  00003	6a ff		 push	 -1
  00005	68 00 00 00 00	 push	 __ehhandler$?SetDelayState@ioTargetTrace16Dummy@@EAEX_N@Z
  0000a	64 a1 00 00 00
	00		 mov	 eax, DWORD PTR fs:0
  00010	50		 push	 eax
  00011	b8 20 80 00 00	 mov	 eax, 32800		; 00008020H
  00016	e8 00 00 00 00	 call	 __chkstk
  0001b	a1 00 00 00 00	 mov	 eax, DWORD PTR ___security_cookie
  00020	33 c5		 xor	 eax, ebp
  00022	89 45 f0	 mov	 DWORD PTR __$ArrayPad$[ebp], eax
  00025	53		 push	 ebx
  00026	56		 push	 esi
  00027	57		 push	 edi
  00028	50		 push	 eax
  00029	8d 45 f4	 lea	 eax, DWORD PTR __$EHRec$[ebp]
  0002c	64 a3 00 00 00
	00		 mov	 DWORD PTR fs:0, eax
  00032	8b f1		 mov	 esi, ecx

; 123  : 	m_TraceDummyState = TDS_DELAY;
; 124  : 	m_iReserveAttackCode = 0;

  00034	33 db		 xor	 ebx, ebx
  00036	c7 86 80 14 00
	00 01 00 00 00	 mov	 DWORD PTR [esi+5248], 1
  00040	89 9e 74 05 00
	00		 mov	 DWORD PTR [esi+1396], ebx

; 125  : 
; 126  : 	m_dwDelayStartTime = FRAMEGETTIME();

  00046	ff 15 00 00 00
	00		 call	 DWORD PTR __imp_?GetSingleton@ioFrameTimer@@SAAAV1@XZ
  0004c	8b c8		 mov	 ecx, eax
  0004e	ff 15 00 00 00
	00		 call	 DWORD PTR __imp_?GetLoopSec@ioFrameTimer@@QBEKXZ

; 127  : 
; 128  : 	m_dwExtraAniJumpTime = 0;
; 129  : 	m_fExtraAniJumpPower = 0.0f;

  00054	0f 57 c0	 xorps	 xmm0, xmm0
  00057	89 86 20 02 00
	00		 mov	 DWORD PTR [esi+544], eax

; 130  : 
; 131  : 	m_iCurExtraAniJump = 0;
; 132  : 	m_vExtraAniJumpList.clear();

  0005d	8d 8e 38 0b 00
	00		 lea	 ecx, DWORD PTR [esi+2872]
  00063	89 9e 2c 0b 00
	00		 mov	 DWORD PTR [esi+2860], ebx
  00069	f3 0f 11 86 30
	0b 00 00	 movss	 DWORD PTR [esi+2864], xmm0
  00071	89 9e 34 0b 00
	00		 mov	 DWORD PTR [esi+2868], ebx
  00077	8b 41 04	 mov	 eax, DWORD PTR [ecx+4]
  0007a	8b 11		 mov	 edx, DWORD PTR [ecx]
  0007c	50		 push	 eax
  0007d	52		 push	 edx
  0007e	8d 85 d4 7f ff
	ff		 lea	 eax, DWORD PTR $T543270[ebp]
  00084	50		 push	 eax
  00085	e8 00 00 00 00	 call	 ?erase@?$vector@UExtraAniJump@@V?$allocator@UExtraAniJump@@@std@@@std@@QAE?AV?$_Vector_iterator@V?$_Vector_val@UExtraAniJump@@V?$allocator@UExtraAniJump@@@std@@@std@@@2@V?$_Vector_const_iterator@V?$_Vector_val@UExtraAniJump@@V?$allocator@UExtraAniJump@@@std@@@std@@@2@0@Z ; std::vector<ExtraAniJump,std::allocator<ExtraAniJump> >::erase

; 133  : 
; 134  : 	m_CurDirKey = ioUserKeyInput::DKI_NONE;
; 135  : 	m_bSetUpKey = false;
; 136  : 	m_bSetDownKey = false;
; 137  : 
; 138  : 	CheckChargeWeaponDead();

  0008a	8b ce		 mov	 ecx, esi
  0008c	89 9e 5c 0d 00
	00		 mov	 DWORD PTR [esi+3420], ebx
  00092	66 89 9e 58 0d
	00 00		 mov	 WORD PTR [esi+3416], bx
  00099	e8 00 00 00 00	 call	 ?CheckChargeWeaponDead@ioDummyChar@@IAEXXZ ; ioDummyChar::CheckChargeWeaponDead

; 139  : 	ClearWeaponIndexList();

  0009e	8b ce		 mov	 ecx, esi
  000a0	e8 00 00 00 00	 call	 ?ClearWeaponIndexList@ioTargetTrace16Dummy@@AAEXXZ ; ioTargetTrace16Dummy::ClearWeaponIndexList

; 140  : 	if( !m_DelayAnimation.IsEmpty() )

  000a5	8d be a8 06 00
	00		 lea	 edi, DWORD PTR [esi+1704]
  000ab	8b cf		 mov	 ecx, edi
  000ad	ff 15 00 00 00
	00		 call	 DWORD PTR __imp_?IsEmpty@ioHashString@@QBE_NXZ
  000b3	84 c0		 test	 al, al
  000b5	0f 85 c2 00 00
	00		 jne	 $LN3@SetDelaySt

; 141  : 	{
; 142  : 		int iAniID = m_pGroup->GetAnimationIdx( m_DelayAnimation );

  000bb	8b 4e 04	 mov	 ecx, DWORD PTR [esi+4]
  000be	57		 push	 edi
  000bf	ff 15 00 00 00
	00		 call	 DWORD PTR __imp_?GetAnimationIdx@ioEntityGroup@@QAEHABVioHashString@@@Z
  000c5	8b f8		 mov	 edi, eax

; 143  : 		if( iAniID != -1 )

  000c7	83 ff ff	 cmp	 edi, -1
  000ca	0f 84 ad 00 00
	00		 je	 $LN3@SetDelaySt

; 144  : 		{
; 145  : 			float fAniRate = 1.0f;

  000d0	f3 0f 10 05 00
	00 00 00	 movss	 xmm0, DWORD PTR __real@3f800000
  000d8	f3 0f 11 85 d4
	7f ff ff	 movss	 DWORD PTR _fAniRate$530924[ebp], xmm0

; 146  : 			if( m_fDelayAniRate > 0.0f )

  000e0	f3 0f 10 86 b8
	06 00 00	 movss	 xmm0, DWORD PTR [esi+1720]
  000e8	0f 2f 05 00 00
	00 00		 comiss	 xmm0, DWORD PTR __real@00000000
  000ef	76 08		 jbe	 SHORT $LN2@SetDelaySt

; 147  : 				fAniRate = m_fDelayAniRate;

  000f1	f3 0f 11 85 d4
	7f ff ff	 movss	 DWORD PTR _fAniRate$530924[ebp], xmm0
$LN2@SetDelaySt:

; 148  : 
; 149  : 			m_pGroup->ClearAllActionAni( 10.0f, true );

  000f9	f3 0f 10 05 00
	00 00 00	 movss	 xmm0, DWORD PTR __real@41200000
  00101	6a 01		 push	 1
  00103	51		 push	 ecx
  00104	8b 4e 04	 mov	 ecx, DWORD PTR [esi+4]
  00107	f3 0f 11 04 24	 movss	 DWORD PTR [esp], xmm0
  0010c	ff 15 00 00 00
	00		 call	 DWORD PTR __imp_?ClearAllActionAni@ioEntityGroup@@QAEXM_N@Z

; 150  : 			m_pGroup->ClearAllLoopAni( 10.0f, true );

  00112	f3 0f 10 05 00
	00 00 00	 movss	 xmm0, DWORD PTR __real@41200000
  0011a	6a 01		 push	 1
  0011c	51		 push	 ecx
  0011d	8b 4e 04	 mov	 ecx, DWORD PTR [esi+4]
  00120	f3 0f 11 04 24	 movss	 DWORD PTR [esp], xmm0
  00125	ff 15 00 00 00
	00		 call	 DWORD PTR __imp_?ClearAllLoopAni@ioEntityGroup@@QAEXM_N@Z

; 151  : 
; 152  : 			m_pGroup->SetLoopAni( iAniID, 10.0f, 1.0f, 1.0f/fAniRate );

  0012b	0f 57 c0	 xorps	 xmm0, xmm0
  0012e	f2 0f 10 0d 00
	00 00 00	 movsd	 xmm1, QWORD PTR __real@3ff0000000000000
  00136	8b 4e 04	 mov	 ecx, DWORD PTR [esi+4]
  00139	83 ec 10	 sub	 esp, 16			; 00000010H
  0013c	f3 0f 11 44 24
	0c		 movss	 DWORD PTR [esp+12], xmm0
  00142	f3 0f 10 85 d4
	7f ff ff	 movss	 xmm0, DWORD PTR _fAniRate$530924[ebp]
  0014a	0f 5a c0	 cvtps2pd xmm0, xmm0
  0014d	f2 0f 5e c8	 divsd	 xmm1, xmm0
  00151	66 0f 5a c1	 cvtpd2ps xmm0, xmm1
  00155	f3 0f 11 44 24
	08		 movss	 DWORD PTR [esp+8], xmm0
  0015b	f3 0f 10 05 00
	00 00 00	 movss	 xmm0, DWORD PTR __real@3f800000
  00163	f3 0f 11 44 24
	04		 movss	 DWORD PTR [esp+4], xmm0
  00169	f3 0f 10 05 00
	00 00 00	 movss	 xmm0, DWORD PTR __real@41200000
  00171	f3 0f 11 04 24	 movss	 DWORD PTR [esp], xmm0
  00176	57		 push	 edi
  00177	ff 15 00 00 00
	00		 call	 DWORD PTR __imp_?SetLoopAni@ioEntityGroup@@QAE_NHMMMM@Z
$LN3@SetDelaySt:

; 153  : 		}
; 154  : 	}
; 155  : 
; 156  : 	ioBaseChar *pOwner = GetOwner();

  0017d	8b ce		 mov	 ecx, esi
  0017f	e8 00 00 00 00	 call	 ?GetOwner@ioDummyChar@@QBEPAVioBaseChar@@XZ ; ioDummyChar::GetOwner

; 157  : 	if( bNet && pOwner && pOwner->IsNeedSendNetwork() )

  00184	38 5d 08	 cmp	 BYTE PTR _bNet$[ebp], bl
  00187	74 73		 je	 SHORT $LN1@SetDelaySt
  00189	3b c3		 cmp	 eax, ebx
  0018b	74 6f		 je	 SHORT $LN1@SetDelaySt
  0018d	8b 10		 mov	 edx, DWORD PTR [eax]
  0018f	8b c8		 mov	 ecx, eax
  00191	ff 92 04 01 00
	00		 call	 DWORD PTR [edx+260]
  00197	84 c0		 test	 al, al
  00199	74 61		 je	 SHORT $LN1@SetDelaySt

; 158  : 	{
; 159  : 		SP2Packet kPacket( CUPK_DUMMY_CHAR_SYNC );

  0019b	68 21 42 00 00	 push	 16929			; 00004221H
  001a0	8d 8d d8 7f ff
	ff		 lea	 ecx, DWORD PTR _kPacket$530928[ebp]
  001a6	e8 00 00 00 00	 call	 ??0SP2Packet@@QAE@K@Z	; SP2Packet::SP2Packet

; 160  : 		kPacket << m_OwnerName;

  001ab	8d 86 cc 01 00
	00		 lea	 eax, DWORD PTR [esi+460]
  001b1	50		 push	 eax
  001b2	8d 8d d8 7f ff
	ff		 lea	 ecx, DWORD PTR _kPacket$530928[ebp]
  001b8	89 5d fc	 mov	 DWORD PTR __$EHRec$[ebp+8], ebx
  001bb	e8 00 00 00 00	 call	 ??6SP2Packet@@QAEAAV0@ABVioHashString@@@Z ; SP2Packet::operator<<

; 161  : 		kPacket << m_iCreateIndex;

  001c0	ff b6 dc 01 00
	00		 push	 DWORD PTR [esi+476]
  001c6	8d 8d d8 7f ff
	ff		 lea	 ecx, DWORD PTR _kPacket$530928[ebp]
  001cc	e8 00 00 00 00	 call	 ??6SP2Packet@@QAEAAV0@H@Z ; SP2Packet::operator<<

; 162  : 		kPacket << DUMMY_CHAR_DELAY;

  001d1	6a 03		 push	 3
  001d3	8d 8d d8 7f ff
	ff		 lea	 ecx, DWORD PTR _kPacket$530928[ebp]
  001d9	e8 00 00 00 00	 call	 ??6SP2Packet@@QAEAAV0@H@Z ; SP2Packet::operator<<

; 163  : 		P2PNetwork::SendToAllPlayingUser( kPacket );

  001de	8d 85 d8 7f ff
	ff		 lea	 eax, DWORD PTR _kPacket$530928[ebp]
  001e4	53		 push	 ebx
  001e5	50		 push	 eax
  001e6	e8 00 00 00 00	 call	 ?SendToAllPlayingUser@P2PNetwork@@YAXAAVSP2Packet@@PAVioBaseChar@@@Z ; P2PNetwork::SendToAllPlayingUser

; 164  : 	}

  001eb	83 4d fc ff	 or	 DWORD PTR __$EHRec$[ebp+8], -1
  001ef	59		 pop	 ecx
  001f0	59		 pop	 ecx
  001f1	8d 8d d8 7f ff
	ff		 lea	 ecx, DWORD PTR _kPacket$530928[ebp]
  001f7	e8 00 00 00 00	 call	 ??1SP2Packet@@UAE@XZ	; SP2Packet::~SP2Packet
$LN1@SetDelaySt:

; 165  : }

  001fc	8b 4d f4	 mov	 ecx, DWORD PTR __$EHRec$[ebp]
  001ff	64 89 0d 00 00
	00 00		 mov	 DWORD PTR fs:0, ecx
  00206	59		 pop	 ecx
  00207	5f		 pop	 edi
  00208	5e		 pop	 esi
  00209	5b		 pop	 ebx
  0020a	8b 4d f0	 mov	 ecx, DWORD PTR __$ArrayPad$[ebp]
  0020d	33 cd		 xor	 ecx, ebp
  0020f	e8 00 00 00 00	 call	 @__security_check_cookie@4
  00214	c9		 leave
  00215	c2 04 00	 ret	 4
_TEXT	ENDS
;	COMDAT text$x
text$x	SEGMENT
__unwindfunclet$?SetDelayState@ioTargetTrace16Dummy@@EAEX_N@Z$0:
  00000	8d 8d d8 7f ff
	ff		 lea	 ecx, DWORD PTR _kPacket$530928[ebp]
  00006	e9 00 00 00 00	 jmp	 ??1SP2Packet@@UAE@XZ	; SP2Packet::~SP2Packet
__ehhandler$?SetDelayState@ioTargetTrace16Dummy@@EAEX_N@Z:
  0000b	8b 54 24 08	 mov	 edx, DWORD PTR [esp+8]
  0000f	8d 42 0c	 lea	 eax, DWORD PTR [edx+12]
  00012	8b 8a d0 7f ff
	ff		 mov	 ecx, DWORD PTR [edx-32816]
  00018	33 c8		 xor	 ecx, eax
  0001a	e8 00 00 00 00	 call	 @__security_check_cookie@4
  0001f	8b 4a fc	 mov	 ecx, DWORD PTR [edx-4]
  00022	33 c8		 xor	 ecx, eax
  00024	e8 00 00 00 00	 call	 @__security_check_cookie@4
  00029	b8 00 00 00 00	 mov	 eax, OFFSET __ehfuncinfo$?SetDelayState@ioTargetTrace16Dummy@@EAEX_N@Z
  0002e	e9 00 00 00 00	 jmp	 ___CxxFrameHandler3
text$x	ENDS
?SetDelayState@ioTargetTrace16Dummy@@EAEX_N@Z ENDP	; ioTargetTrace16Dummy::SetDelayState
PUBLIC	?push_back@?$vector@UExtraAniJump@@V?$allocator@UExtraAniJump@@@std@@@std@@QAEXABUExtraAniJump@@@Z ; std::vector<ExtraAniJump,std::allocator<ExtraAniJump> >::push_back
; Function compile flags: /Ogsp
; File c:\program files (x86)\microsoft visual studio 10.0\vc\include\vector
;	COMDAT ?push_back@?$vector@UExtraAniJump@@V?$allocator@UExtraAniJump@@@std@@@std@@QAEXABUExtraAniJump@@@Z
_TEXT	SEGMENT
__Val$ = 8						; size = 4
?push_back@?$vector@UExtraAniJump@@V?$allocator@UExtraAniJump@@@std@@@std@@QAEXABUExtraAniJump@@@Z PROC ; std::vector<ExtraAniJump,std::allocator<ExtraAniJump> >::push_back, COMDAT
; _this$ = ecx

; 976  : 		{	// insert element at end

  00000	55		 push	 ebp
  00001	8b ec		 mov	 ebp, esp
  00003	56		 push	 esi
  00004	8b f1		 mov	 esi, ecx

; 977  : 		if (_Inside(_STD addressof(_Val)))

  00006	8b 46 04	 mov	 eax, DWORD PTR [esi+4]
  00009	57		 push	 edi
  0000a	8b 7d 08	 mov	 edi, DWORD PTR __Val$[ebp]
  0000d	3b f8		 cmp	 edi, eax
  0000f	73 2d		 jae	 SHORT $LN4@push_back@2
  00011	8b 0e		 mov	 ecx, DWORD PTR [esi]
  00013	3b cf		 cmp	 ecx, edi
  00015	77 27		 ja	 SHORT $LN4@push_back@2

; 978  : 			{	// push back an element
; 979  : 			size_type _Idx = _STD addressof(_Val) - this->_Myfirst;

  00017	2b f9		 sub	 edi, ecx
  00019	c1 ff 03	 sar	 edi, 3

; 980  : 			if (this->_Mylast == this->_Myend)

  0001c	3b 46 08	 cmp	 eax, DWORD PTR [esi+8]
  0001f	75 09		 jne	 SHORT $LN3@push_back@2

; 981  : 				_Reserve(1);

  00021	6a 01		 push	 1
  00023	8b ce		 mov	 ecx, esi
  00025	e8 00 00 00 00	 call	 ?_Reserve@?$vector@UExtraAniJump@@V?$allocator@UExtraAniJump@@@std@@@std@@IAEXI@Z ; std::vector<ExtraAniJump,std::allocator<ExtraAniJump> >::_Reserve
$LN3@push_back@2:

; 982  : 			_Orphan_range(this->_Mylast, this->_Mylast);
; 983  : 			_Cons_val(this->_Alval,
; 984  : 				this->_Mylast,
; 985  : 				this->_Myfirst[_Idx]);

  0002a	8b 06		 mov	 eax, DWORD PTR [esi]
  0002c	8d 04 f8	 lea	 eax, DWORD PTR [eax+edi*8]
  0002f	50		 push	 eax
  00030	ff 76 04	 push	 DWORD PTR [esi+4]
  00033	8d 46 0c	 lea	 eax, DWORD PTR [esi+12]
  00036	50		 push	 eax
  00037	e8 00 00 00 00	 call	 ??$_Cons_val@V?$allocator@UExtraAniJump@@@std@@UExtraAniJump@@AAU3@@std@@YAXAAV?$allocator@UExtraAniJump@@@0@PAUExtraAniJump@@AAU2@@Z ; std::_Cons_val<std::allocator<ExtraAniJump>,ExtraAniJump,ExtraAniJump &>

; 986  : 			++this->_Mylast;
; 987  : 			}
; 988  : 		else

  0003c	eb 1b		 jmp	 SHORT $LN20@push_back@2
$LN4@push_back@2:

; 989  : 			{	// push back a non-element
; 990  : 			if (this->_Mylast == this->_Myend)

  0003e	3b 46 08	 cmp	 eax, DWORD PTR [esi+8]
  00041	75 09		 jne	 SHORT $LN1@push_back@2

; 991  : 				_Reserve(1);

  00043	6a 01		 push	 1
  00045	8b ce		 mov	 ecx, esi
  00047	e8 00 00 00 00	 call	 ?_Reserve@?$vector@UExtraAniJump@@V?$allocator@UExtraAniJump@@@std@@@std@@IAEXI@Z ; std::vector<ExtraAniJump,std::allocator<ExtraAniJump> >::_Reserve
$LN1@push_back@2:

; 992  : 			_Orphan_range(this->_Mylast, this->_Mylast);
; 993  : 			_Cons_val(this->_Alval,
; 994  : 				this->_Mylast,
; 995  : 				_Val);

  0004c	57		 push	 edi
  0004d	ff 76 04	 push	 DWORD PTR [esi+4]
  00050	8d 46 0c	 lea	 eax, DWORD PTR [esi+12]
  00053	50		 push	 eax
  00054	e8 00 00 00 00	 call	 ??$_Cons_val@V?$allocator@UExtraAniJump@@@std@@UExtraAniJump@@ABU3@@std@@YAXAAV?$allocator@UExtraAniJump@@@0@PAUExtraAniJump@@ABU2@@Z ; std::_Cons_val<std::allocator<ExtraAniJump>,ExtraAniJump,ExtraAniJump const &>
$LN20@push_back@2:
  00059	83 c4 0c	 add	 esp, 12			; 0000000cH

; 996  : 			++this->_Mylast;

  0005c	83 46 04 08	 add	 DWORD PTR [esi+4], 8
  00060	5f		 pop	 edi
  00061	5e		 pop	 esi

; 997  : 			}
; 998  : 		}

  00062	5d		 pop	 ebp
  00063	c2 04 00	 ret	 4
?push_back@?$vector@UExtraAniJump@@V?$allocator@UExtraAniJump@@@std@@@std@@QAEXABUExtraAniJump@@@Z ENDP ; std::vector<ExtraAniJump,std::allocator<ExtraAniJump> >::push_back
_TEXT	ENDS
PUBLIC	??_C@_0P@GGAGLNPK@extra_ani_jump?$AA@		; `string'
PUBLIC	??_C@_01CLKCMJKC@?5?$AA@			; `string'
PUBLIC	_pOwner$GSCopy$
PUBLIC	?SetAttackAni@ioTargetTrace16Dummy@@AAEXPAVioBaseChar@@H@Z ; ioTargetTrace16Dummy::SetAttackAni
EXTRN	__imp_?ParseFloat@ioStringConverter@@SAMPBD@Z:PROC
EXTRN	?SetReservedSliding@ioDummyChar@@QAEXABV?$vector@UForceInfo@@V?$allocator@UForceInfo@@@std@@@std@@HMK_N@Z:PROC ; ioDummyChar::SetReservedSliding
EXTRN	?GetAniCollisionType@@YA?AW4AniCollisionType@@ABVioHashString@@@Z:PROC ; GetAniCollisionType
EXTRN	__imp_?Split@ioStringConverter@@SAABV?$vector@V?$basic_string@DU?$char_traits@D@std@@V?$allocator@D@2@@std@@V?$allocator@V?$basic_string@DU?$char_traits@D@std@@V?$allocator@D@2@@std@@@2@@std@@ABV?$basic_string@DU?$char_traits@D@std@@V?$allocator@D@2@@3@0H@Z:PROC
EXTRN	__imp_?c_str@ioHashString@@QBEPBDXZ:PROC
EXTRN	?IncreaseWeaponIndexBase@ioBaseChar@@QAEKXZ:PROC ; ioBaseChar::IncreaseWeaponIndexBase
EXTRN	__imp_?GetAnimationFullTime@ioEntityGroup@@QAEMH@Z:PROC
EXTRN	__imp_?SetActionAni@ioEntityGroup@@QAE_NHMMMMMM_N0@Z:PROC
EXTRN	__ftol2:PROC
;	COMDAT ??_C@_0P@GGAGLNPK@extra_ani_jump?$AA@
CONST	SEGMENT
??_C@_0P@GGAGLNPK@extra_ani_jump?$AA@ DB 'extra_ani_jump', 00H ; `string'
CONST	ENDS
;	COMDAT ??_C@_01CLKCMJKC@?5?$AA@
CONST	SEGMENT
??_C@_01CLKCMJKC@?5?$AA@ DB ' ', 00H			; `string'
CONST	ENDS
;	COMDAT xdata$x
xdata$x	SEGMENT
__ehfuncinfo$?SetAttackAni@ioTargetTrace16Dummy@@AAEXPAVioBaseChar@@H@Z DD 019930522H
	DD	0cH
	DD	FLAT:__unwindtable$?SetAttackAni@ioTargetTrace16Dummy@@AAEXPAVioBaseChar@@H@Z
	DD	2 DUP(00H)
	DD	2 DUP(00H)
	DD	00H
	DD	01H
__unwindtable$?SetAttackAni@ioTargetTrace16Dummy@@AAEXPAVioBaseChar@@H@Z DD 0ffffffffH
	DD	FLAT:__unwindfunclet$?SetAttackAni@ioTargetTrace16Dummy@@AAEXPAVioBaseChar@@H@Z$0
	DD	00H
	DD	FLAT:__unwindfunclet$?SetAttackAni@ioTargetTrace16Dummy@@AAEXPAVioBaseChar@@H@Z$10
	DD	00H
	DD	FLAT:__unwindfunclet$?SetAttackAni@ioTargetTrace16Dummy@@AAEXPAVioBaseChar@@H@Z$1
	DD	02H
	DD	FLAT:__unwindfunclet$?SetAttackAni@ioTargetTrace16Dummy@@AAEXPAVioBaseChar@@H@Z$12
	DD	02H
	DD	FLAT:__unwindfunclet$?SetAttackAni@ioTargetTrace16Dummy@@AAEXPAVioBaseChar@@H@Z$2
	DD	04H
	DD	FLAT:__unwindfunclet$?SetAttackAni@ioTargetTrace16Dummy@@AAEXPAVioBaseChar@@H@Z$3
	DD	05H
	DD	FLAT:__unwindfunclet$?SetAttackAni@ioTargetTrace16Dummy@@AAEXPAVioBaseChar@@H@Z$4
	DD	04H
	DD	FLAT:__unwindfunclet$?SetAttackAni@ioTargetTrace16Dummy@@AAEXPAVioBaseChar@@H@Z$5
	DD	02H
	DD	FLAT:__unwindfunclet$?SetAttackAni@ioTargetTrace16Dummy@@AAEXPAVioBaseChar@@H@Z$6
	DD	08H
	DD	FLAT:__unwindfunclet$?SetAttackAni@ioTargetTrace16Dummy@@AAEXPAVioBaseChar@@H@Z$7
	DD	08H
	DD	FLAT:__unwindfunclet$?SetAttackAni@ioTargetTrace16Dummy@@AAEXPAVioBaseChar@@H@Z$8
	DD	0aH
	DD	FLAT:__unwindfunclet$?SetAttackAni@ioTargetTrace16Dummy@@AAEXPAVioBaseChar@@H@Z$9
; Function compile flags: /Ogsp
; File d:\lost saga for developer\youtube\tutorial\source\src\lsclient\iotargettrace16dummy.cpp
xdata$x	ENDS
;	COMDAT ?SetAttackAni@ioTargetTrace16Dummy@@AAEXPAVioBaseChar@@H@Z
_TEXT	SEGMENT
_kFireTime$532389 = -272				; size = 88
_vExtraAniJumpList$532415 = -184			; size = 16
_vFireEndList$532083 = -168				; size = 12
_vFireStartList$532072 = -156				; size = 16
$T543686 = -140						; size = 16
$T543543 = -140						; size = 16
$T543326 = -140						; size = 16
_szTypeName$532413 = -140				; size = 16
_iterEndTime$532365 = -124				; size = 4
tv3844 = -120						; size = 4
_dwCurTime$ = -116					; size = 4
_iter$ = -116						; size = 4
_kInfo$532424 = -112					; size = 8
$T543698 = -108						; size = 4
$T543555 = -108						; size = 4
_i$532097 = -108					; size = 4
_iter$532224 = -104					; size = 4
_fAniRate$531752 = -100					; size = 4
tv3373 = -96						; size = 4
_pOwner$GSCopy$ = -96					; size = 4
_vParam$532409 = -96					; size = 4
_fFireStart$532388 = -96				; size = 4
tv3832 = -92						; size = 4
tv3808 = -92						; size = 4
tv3433 = -92						; size = 4
tv3330 = -92						; size = 4
$T544342 = -92						; size = 4
$T543562 = -92						; size = 4
$T543565 = -92						; size = 4
_vParam$532426 = -92					; size = 4
_iter_event$532418 = -88				; size = 4
_iAniID$ = -88						; size = 4
$T532427 = -84						; size = 28
$T532411 = -84						; size = 28
$T532428 = -56						; size = 28
$T532410 = -56						; size = 28
_szEncEventType$543586 = -28				; size = 7
_szEncEventType$543443 = -28				; size = 7
__$EHRec$ = -12						; size = 12
_pOwner$ = 8						; size = 4
_iAttackCode$ = 12					; size = 4
?SetAttackAni@ioTargetTrace16Dummy@@AAEXPAVioBaseChar@@H@Z PROC ; ioTargetTrace16Dummy::SetAttackAni, COMDAT
; _this$ = ecx

; 674  : {

  00000	68 04 01 00 00	 push	 260			; 00000104H
  00005	b8 00 00 00 00	 mov	 eax, __ehhandler$?SetAttackAni@ioTargetTrace16Dummy@@AAEXPAVioBaseChar@@H@Z
  0000a	e8 00 00 00 00	 call	 __EH_prolog3_GS
  0000f	8b 45 08	 mov	 eax, DWORD PTR _pOwner$[ebp]
  00012	8b f1		 mov	 esi, ecx

; 675  : 	m_vAttackFireTimeList.clear();

  00014	8d 8e 78 05 00
	00		 lea	 ecx, DWORD PTR [esi+1400]

; 763  : 
; 764  : 		SetReservedSliding( rkCurAttribute.m_vForceInfoList, iAniID, fAniRate, rkCurAttribute.m_dwPreDelay );

  0001a	89 45 a0	 mov	 DWORD PTR _pOwner$GSCopy$[ebp], eax
  0001d	e8 00 00 00 00	 call	 ?clear@?$list@UFireTime@@V?$allocator@UFireTime@@@std@@@std@@QAEXXZ ; std::list<FireTime,std::allocator<FireTime> >::clear
  00022	8b 45 0c	 mov	 eax, DWORD PTR _iAttackCode$[ebp]
  00025	8d be 74 05 00
	00		 lea	 edi, DWORD PTR [esi+1396]
  0002b	89 07		 mov	 DWORD PTR [edi], eax
  0002d	57		 push	 edi
  0002e	8d 45 8c	 lea	 eax, DWORD PTR _iter$[ebp]
  00031	33 db		 xor	 ebx, ebx
  00033	50		 push	 eax
  00034	8d 8e 64 05 00
	00		 lea	 ecx, DWORD PTR [esi+1380]
  0003a	89 9e 60 0d 00
	00		 mov	 DWORD PTR [esi+3424], ebx
  00040	e8 00 00 00 00	 call	 ?find@?$_Tree@V?$_Tmap_traits@HUtagDummyAttackInfo@@U?$less@H@std@@V?$allocator@U?$pair@$$CBHUtagDummyAttackInfo@@@std@@@3@$0A@@std@@@std@@QAE?AV?$_Tree_iterator@V?$_Tree_val@V?$_Tmap_traits@HUtagDummyAttackInfo@@U?$less@H@std@@V?$allocator@U?$pair@$$CBHUtagDummyAttackInfo@@@std@@@3@$0A@@std@@@std@@@2@ABH@Z ; std::_Tree<std::_Tmap_traits<int,tagDummyAttackInfo,std::less<int>,std::allocator<std::pair<int const ,tagDummyAttackInfo> >,0> >::find
  00045	8b 4d 8c	 mov	 ecx, DWORD PTR _iter$[ebp]
  00048	3b 8e 68 05 00
	00		 cmp	 ecx, DWORD PTR [esi+1384]
  0004e	75 07		 jne	 SHORT $LN16@SetAttackA

; 676  : 	m_dwAttackKeyCheckTime = 0;
; 677  : 	m_iReserveAttackCode = iAttackCode;
; 678  : 	DummyAttackMap::iterator iter = m_DummyAttackMap.find( m_iReserveAttackCode );
; 679  : 	if( iter == m_DummyAttackMap.end() )
; 680  : 	{
; 681  : 		m_iReserveAttackCode = 0;

  00050	89 1f		 mov	 DWORD PTR [edi], ebx

; 682  : 		return;

  00052	e9 c8 06 00 00	 jmp	 $LN636@SetAttackA
$LN16@SetAttackA:

; 683  : 	}
; 684  : 
; 685  : 	AttackAttribute &rkCurAttribute = iter->second.m_AttackAttribute;

  00057	8d 79 14	 lea	 edi, DWORD PTR [ecx+20]

; 686  : 
; 687  : 	DWORD dwCurTime = FRAMEGETTIME();

  0005a	ff 15 00 00 00
	00		 call	 DWORD PTR __imp_?GetSingleton@ioFrameTimer@@SAAAV1@XZ
  00060	8b c8		 mov	 ecx, eax
  00062	ff 15 00 00 00
	00		 call	 DWORD PTR __imp_?GetLoopSec@ioFrameTimer@@QBEKXZ

; 688  : 	m_dwAttackAniEndTime = dwCurTime;
; 689  : 
; 690  : 	int iAniID = m_pGroup->GetAnimationIdx( rkCurAttribute.m_AttackAnimation );

  00068	8b 4e 04	 mov	 ecx, DWORD PTR [esi+4]
  0006b	57		 push	 edi
  0006c	89 45 8c	 mov	 DWORD PTR _dwCurTime$[ebp], eax
  0006f	89 86 e8 06 00
	00		 mov	 DWORD PTR [esi+1768], eax
  00075	ff 15 00 00 00
	00		 call	 DWORD PTR __imp_?GetAnimationIdx@ioEntityGroup@@QAEHABVioHashString@@@Z
  0007b	89 45 a8	 mov	 DWORD PTR _iAniID$[ebp], eax

; 691  : 	if( iAniID != -1 )

  0007e	83 f8 ff	 cmp	 eax, -1
  00081	0f 84 98 06 00
	00		 je	 $LN636@SetAttackA

; 692  : 	{
; 693  : 		m_pGroup->ClearAllActionAni( 10.0f, true );

  00087	f3 0f 10 05 00
	00 00 00	 movss	 xmm0, DWORD PTR __real@41200000
  0008f	6a 01		 push	 1
  00091	51		 push	 ecx
  00092	8b 4e 04	 mov	 ecx, DWORD PTR [esi+4]
  00095	f3 0f 11 04 24	 movss	 DWORD PTR [esp], xmm0
  0009a	ff 15 00 00 00
	00		 call	 DWORD PTR __imp_?ClearAllActionAni@ioEntityGroup@@QAEXM_N@Z

; 694  : 		m_pGroup->ClearAllLoopAni( 10.0f, true );

  000a0	f3 0f 10 05 00
	00 00 00	 movss	 xmm0, DWORD PTR __real@41200000
  000a8	6a 01		 push	 1
  000aa	51		 push	 ecx
  000ab	8b 4e 04	 mov	 ecx, DWORD PTR [esi+4]
  000ae	f3 0f 11 04 24	 movss	 DWORD PTR [esp], xmm0
  000b3	ff 15 00 00 00
	00		 call	 DWORD PTR __imp_?ClearAllLoopAni@ioEntityGroup@@QAEXM_N@Z

; 695  : 
; 696  : 		float fAniRate = rkCurAttribute.m_fAttackAniRate;

  000b9	f3 0f 10 4f 10	 movss	 xmm1, DWORD PTR [edi+16]

; 697  : 		if( fAniRate <= 0.0f )

  000be	0f 57 c0	 xorps	 xmm0, xmm0
  000c1	f3 0f 11 4d 9c	 movss	 DWORD PTR _fAniRate$531752[ebp], xmm1
  000c6	0f 2f c1	 comiss	 xmm0, xmm1
  000c9	f3 0f 10 0d 00
	00 00 00	 movss	 xmm1, DWORD PTR __real@3f800000
  000d1	72 05		 jb	 SHORT $LN14@SetAttackA

; 698  : 			fAniRate = 1.0f;

  000d3	f3 0f 11 4d 9c	 movss	 DWORD PTR _fAniRate$531752[ebp], xmm1
$LN14@SetAttackA:

; 699  : 
; 700  : 		m_pGroup->SetActionAni( iAniID, 10.0f, 10.0f, 1.0f, 1.0f/fAniRate, 0.0f, 0.0f, true );

  000d8	f2 0f 10 15 00
	00 00 00	 movsd	 xmm2, QWORD PTR __real@3ff0000000000000
  000e0	8b 4e 04	 mov	 ecx, DWORD PTR [esi+4]
  000e3	6a 01		 push	 1
  000e5	6a 01		 push	 1
  000e7	83 ec 18	 sub	 esp, 24			; 00000018H
  000ea	f3 0f 11 44 24
	14		 movss	 DWORD PTR [esp+20], xmm0
  000f0	f3 0f 11 44 24
	10		 movss	 DWORD PTR [esp+16], xmm0
  000f6	f3 0f 10 45 9c	 movss	 xmm0, DWORD PTR _fAniRate$531752[ebp]
  000fb	0f 5a c0	 cvtps2pd xmm0, xmm0
  000fe	f2 0f 5e d0	 divsd	 xmm2, xmm0
  00102	66 0f 5a c2	 cvtpd2ps xmm0, xmm2
  00106	f3 0f 11 44 24
	0c		 movss	 DWORD PTR [esp+12], xmm0
  0010c	f3 0f 10 05 00
	00 00 00	 movss	 xmm0, DWORD PTR __real@41200000
  00114	f3 0f 11 4c 24
	08		 movss	 DWORD PTR [esp+8], xmm1
  0011a	f3 0f 11 44 24
	04		 movss	 DWORD PTR [esp+4], xmm0
  00120	f3 0f 11 04 24	 movss	 DWORD PTR [esp], xmm0
  00125	ff 75 a8	 push	 DWORD PTR _iAniID$[ebp]
  00128	ff 15 00 00 00
	00		 call	 DWORD PTR __imp_?SetActionAni@ioEntityGroup@@QAE_NHMMMMMM_N0@Z

; 701  : 		m_dwAttackAniEndTime += m_pGroup->GetAnimationFullTime( iAniID ) * fAniRate;

  0012e	ff 75 a8	 push	 DWORD PTR _iAniID$[ebp]
  00131	8b 4e 04	 mov	 ecx, DWORD PTR [esi+4]
  00134	ff 15 00 00 00
	00		 call	 DWORD PTR __imp_?GetAnimationFullTime@ioEntityGroup@@QAEMH@Z
  0013a	d8 4d 9c	 fmul	 DWORD PTR _fAniRate$531752[ebp]
  0013d	8b 86 e8 06 00
	00		 mov	 eax, DWORD PTR [esi+1768]
  00143	db 86 e8 06 00
	00		 fild	 DWORD PTR [esi+1768]
  00149	85 c0		 test	 eax, eax
  0014b	79 06		 jns	 SHORT $LN655@SetAttackA
  0014d	dc 05 00 00 00
	00		 fadd	 QWORD PTR __real@41f0000000000000
$LN655@SetAttackA:
  00153	de c1		 faddp	 ST(1), ST(0)
  00155	e8 00 00 00 00	 call	 __ftol2
  0015a	89 86 e8 06 00
	00		 mov	 DWORD PTR [esi+1768], eax

; 702  : 
; 703  : 		// fire 
; 704  : 		AniEventConstPtrList vFireStartList;

  00160	89 9d 64 ff ff
	ff		 mov	 DWORD PTR _vFireStartList$532072[ebp], ebx
  00166	89 9d 68 ff ff
	ff		 mov	 DWORD PTR _vFireStartList$532072[ebp+4], ebx
  0016c	89 9d 6c ff ff
	ff		 mov	 DWORD PTR _vFireStartList$532072[ebp+8], ebx

; 705  : 		m_pGroup->GetAnimationEventConstPtrList_e( iAniID, "fire_s", vFireStartList );

  00172	8b 46 04	 mov	 eax, DWORD PTR [esi+4]
  00175	6a 04		 push	 4
  00177	89 45 94	 mov	 DWORD PTR $T543555[ebp], eax
  0017a	c7 45 e4 8b 85
	99 8f		 mov	 DWORD PTR _szEncEventType$543443[ebp], -1885764213 ; 8f99858bH
  00181	81 75 e4 ed ec
	eb ea		 xor	 DWORD PTR _szEncEventType$543443[ebp], -353637139 ; eaebecedH
  00188	89 5d fc	 mov	 DWORD PTR __$EHRec$[ebp+8], ebx
  0018b	66 c7 45 e8 b2
	9f		 mov	 WORD PTR _szEncEventType$543443[ebp+4], 40882 ; 00009fb2H
  00191	88 5d ea	 mov	 BYTE PTR _szEncEventType$543443[ebp+6], bl
  00194	58		 pop	 eax
$LL158@SetAttackA:
  00195	8b c8		 mov	 ecx, eax
  00197	81 e1 03 00 00
	80		 and	 ecx, -2147483645	; 80000003H
  0019d	79 05		 jns	 SHORT $LN656@SetAttackA
  0019f	49		 dec	 ecx
  001a0	83 c9 fc	 or	 ecx, -4			; fffffffcH
  001a3	41		 inc	 ecx
$LN656@SetAttackA:
  001a4	b2 ed		 mov	 dl, -19			; ffffffedH
  001a6	2a d1		 sub	 dl, cl
  001a8	30 54 05 e4	 xor	 BYTE PTR _szEncEventType$543443[ebp+eax], dl
  001ac	40		 inc	 eax
  001ad	83 f8 06	 cmp	 eax, 6
  001b0	7c e3		 jl	 SHORT $LL158@SetAttackA
  001b2	8d 45 e4	 lea	 eax, DWORD PTR _szEncEventType$543443[ebp]
  001b5	50		 push	 eax
  001b6	8d 8d 74 ff ff
	ff		 lea	 ecx, DWORD PTR $T543543[ebp]
  001bc	ff 15 00 00 00
	00		 call	 DWORD PTR __imp_??0ioHashString@@QAE@PBD@Z
  001c2	8b 4d 94	 mov	 ecx, DWORD PTR $T543555[ebp]
  001c5	8d 85 64 ff ff
	ff		 lea	 eax, DWORD PTR _vFireStartList$532072[ebp]
  001cb	50		 push	 eax
  001cc	8d 85 74 ff ff
	ff		 lea	 eax, DWORD PTR $T543543[ebp]
  001d2	50		 push	 eax
  001d3	ff 75 a8	 push	 DWORD PTR _iAniID$[ebp]
  001d6	c6 45 fc 01	 mov	 BYTE PTR __$EHRec$[ebp+8], 1
  001da	ff 15 00 00 00
	00		 call	 DWORD PTR __imp_?GetAnimationEventConstPtrList@ioEntityGroup@@QAEHHABVioHashString@@AAV?$vector@PBUAniEventTime@@V?$allocator@PBUAniEventTime@@@std@@@std@@@Z
  001e0	8d 8d 74 ff ff
	ff		 lea	 ecx, DWORD PTR $T543543[ebp]
  001e6	88 5d fc	 mov	 BYTE PTR __$EHRec$[ebp+8], bl
  001e9	ff 15 00 00 00
	00		 call	 DWORD PTR __imp_??1ioHashString@@QAE@XZ

; 706  : 
; 707  : 		std::list<float> vFireEndList;

  001ef	51		 push	 ecx
  001f0	89 65 a4	 mov	 DWORD PTR $T543565[ebp], esp
  001f3	8d 8d 58 ff ff
	ff		 lea	 ecx, DWORD PTR _vFireEndList$532083[ebp]
  001f9	89 65 a4	 mov	 DWORD PTR $T543562[ebp], esp
  001fc	e8 00 00 00 00	 call	 ??0?$_List_val@MV?$allocator@M@std@@@std@@QAE@V?$allocator@M@1@@Z ; std::_List_val<float,std::allocator<float> >::_List_val<float,std::allocator<float> >

; 708  : 		m_pGroup->GetAnimationEventTimeList_e( iAniID, "fire_e", vFireEndList );

  00201	8b 46 04	 mov	 eax, DWORD PTR [esi+4]
  00204	6a 04		 push	 4
  00206	89 45 94	 mov	 DWORD PTR $T543698[ebp], eax
  00209	c7 45 e4 8b 85
	99 8f		 mov	 DWORD PTR _szEncEventType$543586[ebp], -1885764213 ; 8f99858bH
  00210	81 75 e4 ed ec
	eb ea		 xor	 DWORD PTR _szEncEventType$543586[ebp], -353637139 ; eaebecedH
  00217	c6 45 fc 02	 mov	 BYTE PTR __$EHRec$[ebp+8], 2
  0021b	66 c7 45 e8 b2
	89		 mov	 WORD PTR _szEncEventType$543586[ebp+4], 35250 ; 000089b2H
  00221	88 5d ea	 mov	 BYTE PTR _szEncEventType$543586[ebp+6], bl
  00224	58		 pop	 eax
$LL270@SetAttackA:
  00225	8b c8		 mov	 ecx, eax
  00227	81 e1 03 00 00
	80		 and	 ecx, -2147483645	; 80000003H
  0022d	79 05		 jns	 SHORT $LN657@SetAttackA
  0022f	49		 dec	 ecx
  00230	83 c9 fc	 or	 ecx, -4			; fffffffcH
  00233	41		 inc	 ecx
$LN657@SetAttackA:
  00234	b2 ed		 mov	 dl, -19			; ffffffedH
  00236	2a d1		 sub	 dl, cl
  00238	30 54 05 e4	 xor	 BYTE PTR _szEncEventType$543586[ebp+eax], dl
  0023c	40		 inc	 eax
  0023d	83 f8 06	 cmp	 eax, 6
  00240	7c e3		 jl	 SHORT $LL270@SetAttackA
  00242	8d 45 e4	 lea	 eax, DWORD PTR _szEncEventType$543586[ebp]
  00245	50		 push	 eax
  00246	8d 8d 74 ff ff
	ff		 lea	 ecx, DWORD PTR $T543686[ebp]
  0024c	ff 15 00 00 00
	00		 call	 DWORD PTR __imp_??0ioHashString@@QAE@PBD@Z
  00252	8b 4d 94	 mov	 ecx, DWORD PTR $T543698[ebp]
  00255	8d 85 58 ff ff
	ff		 lea	 eax, DWORD PTR _vFireEndList$532083[ebp]
  0025b	50		 push	 eax
  0025c	8d 85 74 ff ff
	ff		 lea	 eax, DWORD PTR $T543686[ebp]
  00262	50		 push	 eax
  00263	ff 75 a8	 push	 DWORD PTR _iAniID$[ebp]
  00266	c6 45 fc 03	 mov	 BYTE PTR __$EHRec$[ebp+8], 3
  0026a	ff 15 00 00 00
	00		 call	 DWORD PTR __imp_?GetAnimationEventTimeList@ioEntityGroup@@QAEHHABVioHashString@@AAV?$list@MV?$allocator@M@std@@@std@@@Z
  00270	8d 8d 74 ff ff
	ff		 lea	 ecx, DWORD PTR $T543686[ebp]
  00276	c6 45 fc 02	 mov	 BYTE PTR __$EHRec$[ebp+8], 2
  0027a	ff 15 00 00 00
	00		 call	 DWORD PTR __imp_??1ioHashString@@QAE@XZ

; 709  : 
; 710  : 		const WeaponInfoList &vInfoList = rkCurAttribute.m_vWeaponInfoList;
; 711  : 		if( vFireStartList.size() != vInfoList.size() )

  00280	8b 47 2c	 mov	 eax, DWORD PTR [edi+44]
  00283	2b 47 28	 sub	 eax, DWORD PTR [edi+40]
  00286	6a 28		 push	 40			; 00000028H
  00288	99		 cdq
  00289	59		 pop	 ecx
  0028a	f7 f9		 idiv	 ecx
  0028c	8b 8d 68 ff ff
	ff		 mov	 ecx, DWORD PTR _vFireStartList$532072[ebp+4]
  00292	2b 8d 64 ff ff
	ff		 sub	 ecx, DWORD PTR _vFireStartList$532072[ebp]
  00298	c1 f9 02	 sar	 ecx, 2
  0029b	3b c8		 cmp	 ecx, eax

; 712  : 			return;

  0029d	0f 85 56 04 00
	00		 jne	 $LN659@SetAttackA

; 713  : 
; 714  : 		m_dwBaseWeaponIndex = pOwner->IncreaseWeaponIndexBase();

  002a3	8b 4d a0	 mov	 ecx, DWORD PTR _pOwner$GSCopy$[ebp]
  002a6	e8 00 00 00 00	 call	 ?IncreaseWeaponIndexBase@ioBaseChar@@QAEKXZ ; ioBaseChar::IncreaseWeaponIndexBase

; 715  : 		DWORD dwStartTime = dwCurTime + rkCurAttribute.m_dwPreDelay;
; 716  : 
; 717  : 		int i=0;
; 718  : 		AniEventConstPtrList::iterator iter;
; 719  : 
; 720  : 		std::list< float >::iterator iterEndTime = vFireEndList.begin();

  002ab	8b 8d 58 ff ff
	ff		 mov	 ecx, DWORD PTR _vFireEndList$532083[ebp]
  002b1	89 86 30 06 00
	00		 mov	 DWORD PTR [esi+1584], eax
  002b7	8b 09		 mov	 ecx, DWORD PTR [ecx]
  002b9	8b 47 48	 mov	 eax, DWORD PTR [edi+72]
  002bc	03 45 8c	 add	 eax, DWORD PTR _dwCurTime$[ebp]
  002bf	89 4d 84	 mov	 DWORD PTR _iterEndTime$532365[ebp], ecx

; 721  : 		for( iter=vFireStartList.begin() ; iter!=vFireStartList.end() ; ++iter, i++ )

  002c2	8b 8d 64 ff ff
	ff		 mov	 ecx, DWORD PTR _vFireStartList$532072[ebp]
  002c8	89 5d 94	 mov	 DWORD PTR _i$532097[ebp], ebx
  002cb	89 4d 98	 mov	 DWORD PTR _iter$532224[ebp], ecx
  002ce	3b 8d 68 ff ff
	ff		 cmp	 ecx, DWORD PTR _vFireStartList$532072[ebp+4]
  002d4	0f 84 3c 02 00
	00		 je	 $LN10@SetAttackA
  002da	89 45 a4	 mov	 DWORD PTR tv3808[ebp], eax
  002dd	db 45 a4	 fild	 DWORD PTR tv3808[ebp]
  002e0	85 c0		 test	 eax, eax
  002e2	79 06		 jns	 SHORT $LN658@SetAttackA
  002e4	d8 05 00 00 00
	00		 fadd	 DWORD PTR __real@4f800000
$LN658@SetAttackA:
  002ea	d9 5d a4	 fstp	 DWORD PTR tv3330[ebp]
  002ed	89 5d 88	 mov	 DWORD PTR tv3844[ebp], ebx
$LN12@SetAttackA:

; 722  : 		{
; 723  : 			float fFireStart = (*iter)->fEventTime;

  002f0	8b 45 98	 mov	 eax, DWORD PTR _iter$532224[ebp]
  002f3	8b 00		 mov	 eax, DWORD PTR [eax]
  002f5	d9 00		 fld	 DWORD PTR [eax]

; 724  : 
; 725  : 			FireTime kFireTime;

  002f7	8d 8d f0 fe ff
	ff		 lea	 ecx, DWORD PTR _kFireTime$532389[ebp]
  002fd	d9 5d a0	 fstp	 DWORD PTR _fFireStart$532388[ebp]
  00300	e8 00 00 00 00	 call	 ??0FireTime@@QAE@XZ	; FireTime::FireTime

; 726  : 			kFireTime.dwStart = dwStartTime + fFireStart * fAniRate;

  00305	d9 45 a0	 fld	 DWORD PTR _fFireStart$532388[ebp]
  00308	d8 4d 9c	 fmul	 DWORD PTR _fAniRate$531752[ebp]
  0030b	c6 45 fc 04	 mov	 BYTE PTR __$EHRec$[ebp+8], 4
  0030f	d8 45 a4	 fadd	 DWORD PTR tv3330[ebp]
  00312	e8 00 00 00 00	 call	 __ftol2
  00317	89 85 f0 fe ff
	ff		 mov	 DWORD PTR _kFireTime$532389[ebp], eax

; 727  : 
; 728  : 			if( iterEndTime != vFireEndList.end() )

  0031d	8b 45 84	 mov	 eax, DWORD PTR _iterEndTime$532365[ebp]
  00320	3b 85 58 ff ff
	ff		 cmp	 eax, DWORD PTR _vFireEndList$532083[ebp]
  00326	74 1c		 je	 SHORT $LN360@SetAttackA

; 729  : 			{
; 730  : 				kFireTime.dwDuration = ( *iterEndTime - fFireStart ) * fAniRate;

  00328	d9 40 08	 fld	 DWORD PTR [eax+8]
  0032b	d8 65 a0	 fsub	 DWORD PTR _fFireStart$532388[ebp]
  0032e	d8 4d 9c	 fmul	 DWORD PTR _fAniRate$531752[ebp]
  00331	e8 00 00 00 00	 call	 __ftol2
  00336	89 85 f4 fe ff
	ff		 mov	 DWORD PTR _kFireTime$532389[ebp+4], eax

; 731  : 				++iterEndTime;

  0033c	8b 45 84	 mov	 eax, DWORD PTR _iterEndTime$532365[ebp]
  0033f	8b 00		 mov	 eax, DWORD PTR [eax]
  00341	89 45 84	 mov	 DWORD PTR _iterEndTime$532365[ebp], eax
$LN360@SetAttackA:

; 732  : 			}
; 733  : 
; 734  : 			kFireTime.iAttributeIdx  = vInfoList[i].m_iWeaponIdx;

  00344	8b 47 28	 mov	 eax, DWORD PTR [edi+40]
  00347	03 45 88	 add	 eax, DWORD PTR tv3844[ebp]
  0034a	8b 08		 mov	 ecx, DWORD PTR [eax]
  0034c	89 8d f8 fe ff
	ff		 mov	 DWORD PTR _kFireTime$532389[ebp+8], ecx

; 735  : 			kFireTime.iResistanceIdx = vInfoList[i].m_iResistanceIdx;

  00352	8b 48 04	 mov	 ecx, DWORD PTR [eax+4]

; 736  : 			kFireTime.szWoundedAni   = vInfoList[i].m_WoundedAnimation;

  00355	83 c0 08	 add	 eax, 8
  00358	89 8d fc fe ff
	ff		 mov	 DWORD PTR _kFireTime$532389[ebp+12], ecx
  0035e	50		 push	 eax
  0035f	8d 8d 04 ff ff
	ff		 lea	 ecx, DWORD PTR _kFireTime$532389[ebp+20]
  00365	ff 15 00 00 00
	00		 call	 DWORD PTR __imp_??4ioHashString@@QAEAAV0@ABV0@@Z

; 737  : 			kFireTime.dwWoundedAniDuration  = vInfoList[i].m_dwWoundedDuration;

  0036b	8b 47 28	 mov	 eax, DWORD PTR [edi+40]
  0036e	03 45 88	 add	 eax, DWORD PTR tv3844[ebp]
  00371	8b 48 18	 mov	 ecx, DWORD PTR [eax+24]
  00374	89 8d 14 ff ff
	ff		 mov	 DWORD PTR _kFireTime$532389[ebp+36], ecx

; 738  : 			kFireTime.bLoopWoundedAni = vInfoList[i].m_bWoundedLoopAni;

  0037a	8a 40 20	 mov	 al, BYTE PTR [eax+32]
  0037d	88 85 00 ff ff
	ff		 mov	 BYTE PTR _kFireTime$532389[ebp+16], al

; 739  : 
; 740  : 			kFireTime.dwWeaponIdx = m_dwBaseWeaponIndex + i;

  00383	8b 86 30 06 00
	00		 mov	 eax, DWORD PTR [esi+1584]
  00389	03 45 94	 add	 eax, DWORD PTR _i$532097[ebp]

; 741  : 			m_vWeaponIndexList.push_back( kFireTime.dwWeaponIdx );

  0038c	8d 8e a8 14 00
	00		 lea	 ecx, DWORD PTR [esi+5288]
  00392	89 85 18 ff ff
	ff		 mov	 DWORD PTR _kFireTime$532389[ebp+40], eax
  00398	8d 85 18 ff ff
	ff		 lea	 eax, DWORD PTR _kFireTime$532389[ebp+40]
  0039e	50		 push	 eax
  0039f	e8 00 00 00 00	 call	 ?push_back@?$vector@KV?$allocator@K@std@@@std@@QAEXABK@Z ; std::vector<unsigned long,std::allocator<unsigned long> >::push_back

; 742  : 
; 743  : 			if( !(*iter)->szSubInfo.IsEmpty() )

  003a4	8b 45 98	 mov	 eax, DWORD PTR _iter$532224[ebp]
  003a7	8b 08		 mov	 ecx, DWORD PTR [eax]
  003a9	83 c1 14	 add	 ecx, 20			; 00000014H
  003ac	ff 15 00 00 00
	00		 call	 DWORD PTR __imp_?IsEmpty@ioHashString@@QBE_NXZ
  003b2	84 c0		 test	 al, al
  003b4	0f 85 08 01 00
	00		 jne	 $LN7@SetAttackA

; 744  : 			{
; 745  : 				const StringVector &vParam = ioStringConverter::Split( (*iter)->szSubInfo.c_str(), " " );

  003ba	6a 01		 push	 1
  003bc	68 00 00 00 00	 push	 OFFSET ??_C@_01CLKCMJKC@?5?$AA@
  003c1	8d 4d c8	 lea	 ecx, DWORD PTR $T532410[ebp]
  003c4	c7 45 dc 0f 00
	00 00		 mov	 DWORD PTR $T532410[ebp+20], 15 ; 0000000fH
  003cb	89 5d d8	 mov	 DWORD PTR $T532410[ebp+16], ebx
  003ce	88 5d c8	 mov	 BYTE PTR $T532410[ebp], bl
  003d1	e8 00 00 00 00	 call	 ?assign@?$basic_string@DU?$char_traits@D@std@@V?$allocator@D@2@@std@@QAEAAV12@PBDI@Z ; std::basic_string<char,std::char_traits<char>,std::allocator<char> >::assign
  003d6	8b 45 98	 mov	 eax, DWORD PTR _iter$532224[ebp]
  003d9	8b 08		 mov	 ecx, DWORD PTR [eax]
  003db	83 c1 14	 add	 ecx, 20			; 00000014H
  003de	c6 45 fc 05	 mov	 BYTE PTR __$EHRec$[ebp+8], 5
  003e2	ff 15 00 00 00
	00		 call	 DWORD PTR __imp_?c_str@ioHashString@@QBEPBDXZ
  003e8	50		 push	 eax
  003e9	8d 4d ac	 lea	 ecx, DWORD PTR $T532411[ebp]
  003ec	c7 45 c0 0f 00
	00 00		 mov	 DWORD PTR $T532411[ebp+20], 15 ; 0000000fH
  003f3	89 5d bc	 mov	 DWORD PTR $T532411[ebp+16], ebx
  003f6	88 5d ac	 mov	 BYTE PTR $T532411[ebp], bl
  003f9	e8 00 00 00 00	 call	 ?assign@?$basic_string@DU?$char_traits@D@std@@V?$allocator@D@2@@std@@QAEAAV12@PBD@Z ; std::basic_string<char,std::char_traits<char>,std::allocator<char> >::assign
  003fe	53		 push	 ebx
  003ff	8d 45 c8	 lea	 eax, DWORD PTR $T532410[ebp]
  00402	50		 push	 eax
  00403	8d 45 ac	 lea	 eax, DWORD PTR $T532411[ebp]
  00406	50		 push	 eax
  00407	c6 45 fc 06	 mov	 BYTE PTR __$EHRec$[ebp+8], 6
  0040b	ff 15 00 00 00
	00		 call	 DWORD PTR __imp_?Split@ioStringConverter@@SAABV?$vector@V?$basic_string@DU?$char_traits@D@std@@V?$allocator@D@2@@std@@V?$allocator@V?$basic_string@DU?$char_traits@D@std@@V?$allocator@D@2@@std@@@2@@std@@ABV?$basic_string@DU?$char_traits@D@std@@V?$allocator@D@2@@3@0H@Z
  00411	83 c4 0c	 add	 esp, 12			; 0000000cH
  00414	53		 push	 ebx
  00415	6a 01		 push	 1
  00417	8d 4d ac	 lea	 ecx, DWORD PTR $T532411[ebp]
  0041a	89 45 a0	 mov	 DWORD PTR _vParam$532409[ebp], eax
  0041d	e8 00 00 00 00	 call	 ?_Tidy@?$basic_string@DU?$char_traits@D@std@@V?$allocator@D@2@@std@@QAEX_NI@Z ; std::basic_string<char,std::char_traits<char>,std::allocator<char> >::_Tidy
  00422	53		 push	 ebx
  00423	6a 01		 push	 1
  00425	8d 4d c8	 lea	 ecx, DWORD PTR $T532410[ebp]
  00428	c6 45 fc 04	 mov	 BYTE PTR __$EHRec$[ebp+8], 4
  0042c	e8 00 00 00 00	 call	 ?_Tidy@?$basic_string@DU?$char_traits@D@std@@V?$allocator@D@2@@std@@QAEX_NI@Z ; std::basic_string<char,std::char_traits<char>,std::allocator<char> >::_Tidy

; 746  : 				if( vParam.size() >= 1 )

  00431	8b 45 a0	 mov	 eax, DWORD PTR _vParam$532409[ebp]
  00434	8b 08		 mov	 ecx, DWORD PTR [eax]
  00436	8b 40 04	 mov	 eax, DWORD PTR [eax+4]
  00439	2b c1		 sub	 eax, ecx
  0043b	6a 1c		 push	 28			; 0000001cH
  0043d	99		 cdq
  0043e	59		 pop	 ecx
  0043f	f7 f9		 idiv	 ecx
  00441	83 f8 01	 cmp	 eax, 1
  00444	72 7c		 jb	 SHORT $LN7@SetAttackA

; 747  : 				{
; 748  : 					ioHashString szTypeName = vParam[0].c_str();

  00446	8b 45 a0	 mov	 eax, DWORD PTR _vParam$532409[ebp]
  00449	8b 00		 mov	 eax, DWORD PTR [eax]
  0044b	83 78 14 10	 cmp	 DWORD PTR [eax+20], 16	; 00000010H
  0044f	72 02		 jb	 SHORT $LN454@SetAttackA
  00451	8b 00		 mov	 eax, DWORD PTR [eax]
$LN454@SetAttackA:
  00453	50		 push	 eax
  00454	8d 8d 74 ff ff
	ff		 lea	 ecx, DWORD PTR _szTypeName$532413[ebp]
  0045a	ff 15 00 00 00
	00		 call	 DWORD PTR __imp_??0ioHashString@@QAE@PBD@Z

; 749  : 					kFireTime.eCollisionType = GetAniCollisionType( szTypeName );

  00460	8d 85 74 ff ff
	ff		 lea	 eax, DWORD PTR _szTypeName$532413[ebp]
  00466	50		 push	 eax
  00467	c6 45 fc 07	 mov	 BYTE PTR __$EHRec$[ebp+8], 7
  0046b	e8 00 00 00 00	 call	 ?GetAniCollisionType@@YA?AW4AniCollisionType@@ABVioHashString@@@Z ; GetAniCollisionType
  00470	89 85 1c ff ff
	ff		 mov	 DWORD PTR _kFireTime$532389[ebp+44], eax

; 750  : 
; 751  : 					if( vParam.size() == 2 && kFireTime.eCollisionType == ACT_SPECIAL )

  00476	8b 45 a0	 mov	 eax, DWORD PTR _vParam$532409[ebp]
  00479	59		 pop	 ecx
  0047a	8b 08		 mov	 ecx, DWORD PTR [eax]
  0047c	8b 40 04	 mov	 eax, DWORD PTR [eax+4]
  0047f	2b c1		 sub	 eax, ecx
  00481	6a 1c		 push	 28			; 0000001cH
  00483	89 4d a0	 mov	 DWORD PTR tv3373[ebp], ecx
  00486	99		 cdq
  00487	59		 pop	 ecx
  00488	f7 f9		 idiv	 ecx
  0048a	83 f8 02	 cmp	 eax, 2
  0048d	75 23		 jne	 SHORT $LN6@SetAttackA
  0048f	83 bd 1c ff ff
	ff 07		 cmp	 DWORD PTR _kFireTime$532389[ebp+44], 7
  00496	75 1a		 jne	 SHORT $LN6@SetAttackA

; 752  : 					{
; 753  : 						kFireTime.szSpecialCollisionBox = vParam[1].c_str();

  00498	8b 45 a0	 mov	 eax, DWORD PTR tv3373[ebp]
  0049b	03 c1		 add	 eax, ecx
  0049d	83 78 14 10	 cmp	 DWORD PTR [eax+20], 16	; 00000010H
  004a1	72 02		 jb	 SHORT $LN464@SetAttackA
  004a3	8b 00		 mov	 eax, DWORD PTR [eax]
$LN464@SetAttackA:
  004a5	50		 push	 eax
  004a6	8d 8d 20 ff ff
	ff		 lea	 ecx, DWORD PTR _kFireTime$532389[ebp+48]
  004ac	ff 15 00 00 00
	00		 call	 DWORD PTR __imp_??4ioHashString@@QAEAAV0@PBD@Z
$LN6@SetAttackA:

; 754  : 					}
; 755  : 				}

  004b2	8d 8d 74 ff ff
	ff		 lea	 ecx, DWORD PTR _szTypeName$532413[ebp]
  004b8	c6 45 fc 04	 mov	 BYTE PTR __$EHRec$[ebp+8], 4
  004bc	ff 15 00 00 00
	00		 call	 DWORD PTR __imp_??1ioHashString@@QAE@XZ
$LN7@SetAttackA:

; 756  : 			}
; 757  : 
; 758  : 			kFireTime.eFireTimeType = FTT_DUMMY_CHAR_ATTACK;
; 759  : 			kFireTime.m_iExtraValue = m_iCreateIndex;

  004c2	8b 86 dc 01 00
	00		 mov	 eax, DWORD PTR [esi+476]

; 760  : 
; 761  : 			m_vAttackFireTimeList.push_back( kFireTime );

  004c8	8d 8e 78 05 00
	00		 lea	 ecx, DWORD PTR [esi+1400]
  004ce	8d 95 f0 fe ff
	ff		 lea	 edx, DWORD PTR _kFireTime$532389[ebp]
  004d4	89 85 44 ff ff
	ff		 mov	 DWORD PTR _kFireTime$532389[ebp+84], eax
  004da	8b 01		 mov	 eax, DWORD PTR [ecx]
  004dc	52		 push	 edx
  004dd	50		 push	 eax
  004de	c7 85 30 ff ff
	ff 0b 00 00 00	 mov	 DWORD PTR _kFireTime$532389[ebp+64], 11 ; 0000000bH
  004e8	e8 00 00 00 00	 call	 ?_Insert@?$list@UFireTime@@V?$allocator@UFireTime@@@std@@@std@@QAEXV?$_List_const_iterator@V?$_List_val@UFireTime@@V?$allocator@UFireTime@@@std@@@std@@@2@ABUFireTime@@@Z ; std::list<FireTime,std::allocator<FireTime> >::_Insert

; 762  : 		}

  004ed	8d 8d f0 fe ff
	ff		 lea	 ecx, DWORD PTR _kFireTime$532389[ebp]
  004f3	c6 45 fc 02	 mov	 BYTE PTR __$EHRec$[ebp+8], 2
  004f7	e8 00 00 00 00	 call	 ??1FireTime@@QAE@XZ
  004fc	83 45 98 04	 add	 DWORD PTR _iter$532224[ebp], 4
  00500	8b 45 98	 mov	 eax, DWORD PTR _iter$532224[ebp]
  00503	ff 45 94	 inc	 DWORD PTR _i$532097[ebp]
  00506	83 45 88 28	 add	 DWORD PTR tv3844[ebp], 40 ; 00000028H
  0050a	3b 85 68 ff ff
	ff		 cmp	 eax, DWORD PTR _vFireStartList$532072[ebp+4]
  00510	0f 85 da fd ff
	ff		 jne	 $LN12@SetAttackA
$LN10@SetAttackA:

; 763  : 
; 764  : 		SetReservedSliding( rkCurAttribute.m_vForceInfoList, iAniID, fAniRate, rkCurAttribute.m_dwPreDelay );

  00516	f3 0f 10 45 9c	 movss	 xmm0, DWORD PTR _fAniRate$531752[ebp]
  0051b	6a 01		 push	 1
  0051d	ff 77 48	 push	 DWORD PTR [edi+72]
  00520	83 c7 38	 add	 edi, 56			; 00000038H
  00523	51		 push	 ecx
  00524	f3 0f 11 04 24	 movss	 DWORD PTR [esp], xmm0
  00529	ff 75 a8	 push	 DWORD PTR _iAniID$[ebp]
  0052c	8b ce		 mov	 ecx, esi
  0052e	57		 push	 edi
  0052f	e8 00 00 00 00	 call	 ?SetReservedSliding@ioDummyChar@@QAEXABV?$vector@UForceInfo@@V?$allocator@UForceInfo@@@std@@@std@@HMK_N@Z ; ioDummyChar::SetReservedSliding

; 765  : 		//  
; 766  : 
; 767  : 		m_dwExtraAniJumpTime = 0;
; 768  : 		m_fExtraAniJumpPower = 0.0f;

  00534	0f 57 c0	 xorps	 xmm0, xmm0
  00537	89 9e 2c 0b 00
	00		 mov	 DWORD PTR [esi+2860], ebx
  0053d	f3 0f 11 86 30
	0b 00 00	 movss	 DWORD PTR [esi+2864], xmm0

; 769  : 		m_vExtraAniJumpList.clear();

  00545	8b 86 3c 0b 00
	00		 mov	 eax, DWORD PTR [esi+2876]
  0054b	8b 8e 38 0b 00
	00		 mov	 ecx, DWORD PTR [esi+2872]
  00551	50		 push	 eax
  00552	51		 push	 ecx
  00553	8d 45 a4	 lea	 eax, DWORD PTR $T544342[ebp]
  00556	50		 push	 eax
  00557	8d 8e 38 0b 00
	00		 lea	 ecx, DWORD PTR [esi+2872]
  0055d	e8 00 00 00 00	 call	 ?erase@?$vector@UExtraAniJump@@V?$allocator@UExtraAniJump@@@std@@@std@@QAE?AV?$_Vector_iterator@V?$_Vector_val@UExtraAniJump@@V?$allocator@UExtraAniJump@@@std@@@std@@@2@V?$_Vector_const_iterator@V?$_Vector_val@UExtraAniJump@@V?$allocator@UExtraAniJump@@@std@@@std@@@2@0@Z ; std::vector<ExtraAniJump,std::allocator<ExtraAniJump> >::erase

; 770  : 
; 771  : 		AniEventConstPtrList vExtraAniJumpList;

  00562	89 9d 48 ff ff
	ff		 mov	 DWORD PTR _vExtraAniJumpList$532415[ebp], ebx
  00568	89 9d 4c ff ff
	ff		 mov	 DWORD PTR _vExtraAniJumpList$532415[ebp+4], ebx
  0056e	89 9d 50 ff ff
	ff		 mov	 DWORD PTR _vExtraAniJumpList$532415[ebp+8], ebx

; 772  : 		m_pGroup->GetAnimationEventConstPtrList( iAniID, "extra_ani_jump", vExtraAniJumpList );

  00574	68 00 00 00 00	 push	 OFFSET ??_C@_0P@GGAGLNPK@extra_ani_jump?$AA@
  00579	8d 8d 74 ff ff
	ff		 lea	 ecx, DWORD PTR $T543326[ebp]
  0057f	c6 45 fc 08	 mov	 BYTE PTR __$EHRec$[ebp+8], 8
  00583	ff 15 00 00 00
	00		 call	 DWORD PTR __imp_??0ioHashString@@QAE@PBD@Z
  00589	8b 4e 04	 mov	 ecx, DWORD PTR [esi+4]
  0058c	8d 85 48 ff ff
	ff		 lea	 eax, DWORD PTR _vExtraAniJumpList$532415[ebp]
  00592	50		 push	 eax
  00593	8d 85 74 ff ff
	ff		 lea	 eax, DWORD PTR $T543326[ebp]
  00599	50		 push	 eax
  0059a	ff 75 a8	 push	 DWORD PTR _iAniID$[ebp]
  0059d	c6 45 fc 09	 mov	 BYTE PTR __$EHRec$[ebp+8], 9
  005a1	ff 15 00 00 00
	00		 call	 DWORD PTR __imp_?GetAnimationEventConstPtrList@ioEntityGroup@@QAEHHABVioHashString@@AAV?$vector@PBUAniEventTime@@V?$allocator@PBUAniEventTime@@@std@@@std@@@Z
  005a7	8d 8d 74 ff ff
	ff		 lea	 ecx, DWORD PTR $T543326[ebp]
  005ad	c6 45 fc 08	 mov	 BYTE PTR __$EHRec$[ebp+8], 8
  005b1	ff 15 00 00 00
	00		 call	 DWORD PTR __imp_??1ioHashString@@QAE@XZ

; 773  : 
; 774  : 		AniEventConstPtrList::iterator iter_event = vExtraAniJumpList.begin();

  005b7	8b 85 48 ff ff
	ff		 mov	 eax, DWORD PTR _vExtraAniJumpList$532415[ebp]
  005bd	89 45 a8	 mov	 DWORD PTR _iter_event$532418[ebp], eax
  005c0	e9 ee 00 00 00	 jmp	 $LN660@SetAttackA
$LN5@SetAttackA:

; 776  : 		{
; 777  : 			ExtraAniJump kInfo;
; 778  : 
; 779  : 			kInfo.m_dwTime = (*iter_event)->fEventTime * fAniRate;

  005c5	8b 45 a8	 mov	 eax, DWORD PTR _iter_event$532418[ebp]

; 780  : 			kInfo.m_dwTime += dwCurTime;

  005c8	d9 45 9c	 fld	 DWORD PTR _fAniRate$531752[ebp]
  005cb	8b 00		 mov	 eax, DWORD PTR [eax]
  005cd	d8 08		 fmul	 DWORD PTR [eax]
  005cf	0f 57 c0	 xorps	 xmm0, xmm0
  005d2	f3 0f 11 45 94	 movss	 DWORD PTR _kInfo$532424[ebp+4], xmm0
  005d7	e8 00 00 00 00	 call	 __ftol2
  005dc	03 45 8c	 add	 eax, DWORD PTR _dwCurTime$[ebp]
  005df	89 45 90	 mov	 DWORD PTR _kInfo$532424[ebp], eax

; 781  : 
; 782  : 			if( !(*iter_event)->szSubInfo.IsEmpty() )

  005e2	8b 45 a8	 mov	 eax, DWORD PTR _iter_event$532418[ebp]
  005e5	8b 08		 mov	 ecx, DWORD PTR [eax]
  005e7	8d 49 14	 lea	 ecx, DWORD PTR [ecx+20]
  005ea	ff 15 00 00 00
	00		 call	 DWORD PTR __imp_?IsEmpty@ioHashString@@QBE_NXZ
  005f0	84 c0		 test	 al, al
  005f2	0f 85 a5 00 00
	00		 jne	 $LN2@SetAttackA

; 783  : 			{
; 784  : 				const StringVector &vParam = ioStringConverter::Split( (*iter_event)->szSubInfo.c_str(), " " );

  005f8	6a 01		 push	 1
  005fa	68 00 00 00 00	 push	 OFFSET ??_C@_01CLKCMJKC@?5?$AA@
  005ff	8d 4d ac	 lea	 ecx, DWORD PTR $T532427[ebp]
  00602	c7 45 c0 0f 00
	00 00		 mov	 DWORD PTR $T532427[ebp+20], 15 ; 0000000fH
  00609	89 5d bc	 mov	 DWORD PTR $T532427[ebp+16], ebx
  0060c	88 5d ac	 mov	 BYTE PTR $T532427[ebp], bl
  0060f	e8 00 00 00 00	 call	 ?assign@?$basic_string@DU?$char_traits@D@std@@V?$allocator@D@2@@std@@QAEAAV12@PBDI@Z ; std::basic_string<char,std::char_traits<char>,std::allocator<char> >::assign
  00614	8b 45 a8	 mov	 eax, DWORD PTR _iter_event$532418[ebp]
  00617	8b 08		 mov	 ecx, DWORD PTR [eax]
  00619	83 c1 14	 add	 ecx, 20			; 00000014H
  0061c	c6 45 fc 0a	 mov	 BYTE PTR __$EHRec$[ebp+8], 10 ; 0000000aH
  00620	ff 15 00 00 00
	00		 call	 DWORD PTR __imp_?c_str@ioHashString@@QBEPBDXZ
  00626	50		 push	 eax
  00627	8d 4d c8	 lea	 ecx, DWORD PTR $T532428[ebp]
  0062a	c7 45 dc 0f 00
	00 00		 mov	 DWORD PTR $T532428[ebp+20], 15 ; 0000000fH
  00631	89 5d d8	 mov	 DWORD PTR $T532428[ebp+16], ebx
  00634	88 5d c8	 mov	 BYTE PTR $T532428[ebp], bl
  00637	e8 00 00 00 00	 call	 ?assign@?$basic_string@DU?$char_traits@D@std@@V?$allocator@D@2@@std@@QAEAAV12@PBD@Z ; std::basic_string<char,std::char_traits<char>,std::allocator<char> >::assign
  0063c	53		 push	 ebx
  0063d	8d 45 ac	 lea	 eax, DWORD PTR $T532427[ebp]
  00640	50		 push	 eax
  00641	8d 45 c8	 lea	 eax, DWORD PTR $T532428[ebp]
  00644	50		 push	 eax
  00645	c6 45 fc 0b	 mov	 BYTE PTR __$EHRec$[ebp+8], 11 ; 0000000bH
  00649	ff 15 00 00 00
	00		 call	 DWORD PTR __imp_?Split@ioStringConverter@@SAABV?$vector@V?$basic_string@DU?$char_traits@D@std@@V?$allocator@D@2@@std@@V?$allocator@V?$basic_string@DU?$char_traits@D@std@@V?$allocator@D@2@@std@@@2@@std@@ABV?$basic_string@DU?$char_traits@D@std@@V?$allocator@D@2@@3@0H@Z
  0064f	83 c4 0c	 add	 esp, 12			; 0000000cH
  00652	53		 push	 ebx
  00653	6a 01		 push	 1
  00655	8d 4d c8	 lea	 ecx, DWORD PTR $T532428[ebp]
  00658	89 45 a4	 mov	 DWORD PTR _vParam$532426[ebp], eax
  0065b	e8 00 00 00 00	 call	 ?_Tidy@?$basic_string@DU?$char_traits@D@std@@V?$allocator@D@2@@std@@QAEX_NI@Z ; std::basic_string<char,std::char_traits<char>,std::allocator<char> >::_Tidy
  00660	53		 push	 ebx
  00661	6a 01		 push	 1
  00663	8d 4d ac	 lea	 ecx, DWORD PTR $T532427[ebp]
  00666	c6 45 fc 08	 mov	 BYTE PTR __$EHRec$[ebp+8], 8
  0066a	e8 00 00 00 00	 call	 ?_Tidy@?$basic_string@DU?$char_traits@D@std@@V?$allocator@D@2@@std@@QAEX_NI@Z ; std::basic_string<char,std::char_traits<char>,std::allocator<char> >::_Tidy

; 785  : 				if( vParam.size() == 1 )

  0066f	8b 45 a4	 mov	 eax, DWORD PTR _vParam$532426[ebp]
  00672	8b 08		 mov	 ecx, DWORD PTR [eax]
  00674	8b 40 04	 mov	 eax, DWORD PTR [eax+4]
  00677	2b c1		 sub	 eax, ecx
  00679	6a 1c		 push	 28			; 0000001cH
  0067b	89 4d a4	 mov	 DWORD PTR tv3433[ebp], ecx
  0067e	99		 cdq
  0067f	59		 pop	 ecx
  00680	f7 f9		 idiv	 ecx
  00682	83 f8 01	 cmp	 eax, 1
  00685	75 16		 jne	 SHORT $LN2@SetAttackA

; 786  : 				{
; 787  : 					kInfo.m_fPower = ioStringConverter::ParseFloat( vParam[0].c_str() );

  00687	8b 45 a4	 mov	 eax, DWORD PTR tv3433[ebp]
  0068a	83 78 14 10	 cmp	 DWORD PTR [eax+20], 16	; 00000010H
  0068e	72 02		 jb	 SHORT $LN612@SetAttackA
  00690	8b 00		 mov	 eax, DWORD PTR [eax]
$LN612@SetAttackA:
  00692	50		 push	 eax
  00693	ff 15 00 00 00
	00		 call	 DWORD PTR __imp_?ParseFloat@ioStringConverter@@SAMPBD@Z
  00699	d9 5d 94	 fstp	 DWORD PTR _kInfo$532424[ebp+4]
  0069c	59		 pop	 ecx
$LN2@SetAttackA:

; 788  : 				}
; 789  : 			}
; 790  : 
; 791  : 			m_vExtraAniJumpList.push_back(kInfo);

  0069d	8d 45 90	 lea	 eax, DWORD PTR _kInfo$532424[ebp]
  006a0	50		 push	 eax
  006a1	8d 8e 38 0b 00
	00		 lea	 ecx, DWORD PTR [esi+2872]
  006a7	e8 00 00 00 00	 call	 ?push_back@?$vector@UExtraAniJump@@V?$allocator@UExtraAniJump@@@std@@@std@@QAEXABUExtraAniJump@@@Z ; std::vector<ExtraAniJump,std::allocator<ExtraAniJump> >::push_back

; 792  : 
; 793  : 			++iter_event;

  006ac	83 45 a8 04	 add	 DWORD PTR _iter_event$532418[ebp], 4
  006b0	8b 45 a8	 mov	 eax, DWORD PTR _iter_event$532418[ebp]
$LN660@SetAttackA:

; 775  : 		while( iter_event != vExtraAniJumpList.end() )

  006b3	3b 85 4c ff ff
	ff		 cmp	 eax, DWORD PTR _vExtraAniJumpList$532415[ebp+4]
  006b9	0f 85 06 ff ff
	ff		 jne	 $LN5@SetAttackA

; 794  : 		}
; 795  : 
; 796  : 		if( !m_vExtraAniJumpList.empty() )

  006bf	8b 86 38 0b 00
	00		 mov	 eax, DWORD PTR [esi+2872]
  006c5	3b 86 3c 0b 00
	00		 cmp	 eax, DWORD PTR [esi+2876]
  006cb	74 1d		 je	 SHORT $LN1@SetAttackA

; 797  : 		{
; 798  : 			m_iCurExtraAniJump = 0;
; 799  : 			m_dwExtraAniJumpTime = m_vExtraAniJumpList[m_iCurExtraAniJump].m_dwTime;

  006cd	8b be 38 0b 00
	00		 mov	 edi, DWORD PTR [esi+2872]
  006d3	89 9e 34 0b 00
	00		 mov	 DWORD PTR [esi+2868], ebx
  006d9	8b 07		 mov	 eax, DWORD PTR [edi]
  006db	89 86 2c 0b 00
	00		 mov	 DWORD PTR [esi+2860], eax

; 800  : 			m_fExtraAniJumpPower = m_vExtraAniJumpList[m_iCurExtraAniJump].m_fPower;

  006e1	d9 47 04	 fld	 DWORD PTR [edi+4]
  006e4	d9 9e 30 0b 00
	00		 fstp	 DWORD PTR [esi+2864]
$LN1@SetAttackA:

; 801  : 		}
; 802  : 	}

  006ea	8d 8d 48 ff ff
	ff		 lea	 ecx, DWORD PTR _vExtraAniJumpList$532415[ebp]
  006f0	c6 45 fc 02	 mov	 BYTE PTR __$EHRec$[ebp+8], 2
  006f4	e8 00 00 00 00	 call	 ?_Tidy@?$vector@PBUAniEventTime@@V?$allocator@PBUAniEventTime@@@std@@@std@@IAEXXZ ; std::vector<AniEventTime const *,std::allocator<AniEventTime const *> >::_Tidy
$LN659@SetAttackA:
  006f9	8d 8d 58 ff ff
	ff		 lea	 ecx, DWORD PTR _vFireEndList$532083[ebp]
  006ff	e8 00 00 00 00	 call	 ?clear@?$list@MV?$allocator@M@std@@@std@@QAEXXZ ; std::list<float,std::allocator<float> >::clear
  00704	ff b5 58 ff ff
	ff		 push	 DWORD PTR _vFireEndList$532083[ebp]
  0070a	e8 00 00 00 00	 call	 ??3@YAXPAX@Z		; operator delete
  0070f	83 4d fc ff	 or	 DWORD PTR __$EHRec$[ebp+8], -1
  00713	59		 pop	 ecx
  00714	8d 8d 64 ff ff
	ff		 lea	 ecx, DWORD PTR _vFireStartList$532072[ebp]
  0071a	e8 00 00 00 00	 call	 ?_Tidy@?$vector@PBUAniEventTime@@V?$allocator@PBUAniEventTime@@@std@@@std@@IAEXXZ ; std::vector<AniEventTime const *,std::allocator<AniEventTime const *> >::_Tidy
$LN636@SetAttackA:

; 803  : }

  0071f	e8 00 00 00 00	 call	 __EH_epilog3_GS
  00724	c2 08 00	 ret	 8
_TEXT	ENDS
;	COMDAT text$x
text$x	SEGMENT
__unwindfunclet$?SetAttackAni@ioTargetTrace16Dummy@@AAEXPAVioBaseChar@@H@Z$0:
  00000	8d 8d 64 ff ff
	ff		 lea	 ecx, DWORD PTR _vFireStartList$532072[ebp]
  00006	e9 00 00 00 00	 jmp	 ??1?$vector@PBUAniEventTime@@V?$allocator@PBUAniEventTime@@@std@@@std@@QAE@XZ ; std::vector<AniEventTime const *,std::allocator<AniEventTime const *> >::~vector<AniEventTime const *,std::allocator<AniEventTime const *> >
__unwindfunclet$?SetAttackAni@ioTargetTrace16Dummy@@AAEXPAVioBaseChar@@H@Z$10:
  0000b	8d 8d 74 ff ff
	ff		 lea	 ecx, DWORD PTR $T543543[ebp]
  00011	ff 25 00 00 00
	00		 jmp	 DWORD PTR __imp_??1ioHashString@@QAE@XZ
__unwindfunclet$?SetAttackAni@ioTargetTrace16Dummy@@AAEXPAVioBaseChar@@H@Z$1:
  00017	8d 8d 58 ff ff
	ff		 lea	 ecx, DWORD PTR _vFireEndList$532083[ebp]
  0001d	e9 00 00 00 00	 jmp	 ??1?$list@MV?$allocator@M@std@@@std@@QAE@XZ ; std::list<float,std::allocator<float> >::~list<float,std::allocator<float> >
__unwindfunclet$?SetAttackAni@ioTargetTrace16Dummy@@AAEXPAVioBaseChar@@H@Z$12:
  00022	8d 8d 74 ff ff
	ff		 lea	 ecx, DWORD PTR $T543686[ebp]
  00028	ff 25 00 00 00
	00		 jmp	 DWORD PTR __imp_??1ioHashString@@QAE@XZ
__unwindfunclet$?SetAttackAni@ioTargetTrace16Dummy@@AAEXPAVioBaseChar@@H@Z$2:
  0002e	8d 8d f0 fe ff
	ff		 lea	 ecx, DWORD PTR _kFireTime$532389[ebp]
  00034	e9 00 00 00 00	 jmp	 ??1FireTime@@QAE@XZ
__unwindfunclet$?SetAttackAni@ioTargetTrace16Dummy@@AAEXPAVioBaseChar@@H@Z$3:
  00039	8d 4d c8	 lea	 ecx, DWORD PTR $T532410[ebp]
  0003c	e9 00 00 00 00	 jmp	 ??1?$basic_string@DU?$char_traits@D@std@@V?$allocator@D@2@@std@@QAE@XZ ; std::basic_string<char,std::char_traits<char>,std::allocator<char> >::~basic_string<char,std::char_traits<char>,std::allocator<char> >
__unwindfunclet$?SetAttackAni@ioTargetTrace16Dummy@@AAEXPAVioBaseChar@@H@Z$4:
  00041	8d 4d ac	 lea	 ecx, DWORD PTR $T532411[ebp]
  00044	e9 00 00 00 00	 jmp	 ??1?$basic_string@DU?$char_traits@D@std@@V?$allocator@D@2@@std@@QAE@XZ ; std::basic_string<char,std::char_traits<char>,std::allocator<char> >::~basic_string<char,std::char_traits<char>,std::allocator<char> >
__unwindfunclet$?SetAttackAni@ioTargetTrace16Dummy@@AAEXPAVioBaseChar@@H@Z$5:
  00049	8d 8d 74 ff ff
	ff		 lea	 ecx, DWORD PTR _szTypeName$532413[ebp]
  0004f	ff 25 00 00 00
	00		 jmp	 DWORD PTR __imp_??1ioHashString@@QAE@XZ
__unwindfunclet$?SetAttackAni@ioTargetTrace16Dummy@@AAEXPAVioBaseChar@@H@Z$6:
  00055	8d 8d 48 ff ff
	ff		 lea	 ecx, DWORD PTR _vExtraAniJumpList$532415[ebp]
  0005b	e9 00 00 00 00	 jmp	 ??1?$vector@PBUAniEventTime@@V?$allocator@PBUAniEventTime@@@std@@@std@@QAE@XZ ; std::vector<AniEventTime const *,std::allocator<AniEventTime const *> >::~vector<AniEventTime const *,std::allocator<AniEventTime const *> >
__unwindfunclet$?SetAttackAni@ioTargetTrace16Dummy@@AAEXPAVioBaseChar@@H@Z$7:
  00060	8d 8d 74 ff ff
	ff		 lea	 ecx, DWORD PTR $T543326[ebp]
  00066	ff 25 00 00 00
	00		 jmp	 DWORD PTR __imp_??1ioHashString@@QAE@XZ
__unwindfunclet$?SetAttackAni@ioTargetTrace16Dummy@@AAEXPAVioBaseChar@@H@Z$8:
  0006c	8d 4d ac	 lea	 ecx, DWORD PTR $T532427[ebp]
  0006f	e9 00 00 00 00	 jmp	 ??1?$basic_string@DU?$char_traits@D@std@@V?$allocator@D@2@@std@@QAE@XZ ; std::basic_string<char,std::char_traits<char>,std::allocator<char> >::~basic_string<char,std::char_traits<char>,std::allocator<char> >
__unwindfunclet$?SetAttackAni@ioTargetTrace16Dummy@@AAEXPAVioBaseChar@@H@Z$9:
  00074	8d 4d c8	 lea	 ecx, DWORD PTR $T532428[ebp]
  00077	e9 00 00 00 00	 jmp	 ??1?$basic_string@DU?$char_traits@D@std@@V?$allocator@D@2@@std@@QAE@XZ ; std::basic_string<char,std::char_traits<char>,std::allocator<char> >::~basic_string<char,std::char_traits<char>,std::allocator<char> >
__ehhandler$?SetAttackAni@ioTargetTrace16Dummy@@AAEXPAVioBaseChar@@H@Z:
  0007c	8b 54 24 08	 mov	 edx, DWORD PTR [esp+8]
  00080	8d 42 0c	 lea	 eax, DWORD PTR [edx+12]
  00083	8b 8a ec fe ff
	ff		 mov	 ecx, DWORD PTR [edx-276]
  00089	33 c8		 xor	 ecx, eax
  0008b	e8 00 00 00 00	 call	 @__security_check_cookie@4
  00090	8b 4a fc	 mov	 ecx, DWORD PTR [edx-4]
  00093	33 c8		 xor	 ecx, eax
  00095	e8 00 00 00 00	 call	 @__security_check_cookie@4
  0009a	b8 00 00 00 00	 mov	 eax, OFFSET __ehfuncinfo$?SetAttackAni@ioTargetTrace16Dummy@@AAEXPAVioBaseChar@@H@Z
  0009f	e9 00 00 00 00	 jmp	 ___CxxFrameHandler3
text$x	ENDS
?SetAttackAni@ioTargetTrace16Dummy@@AAEXPAVioBaseChar@@H@Z ENDP ; ioTargetTrace16Dummy::SetAttackAni
PUBLIC	__$ArrayPad$
PUBLIC	?SetTracingAttack@ioTargetTrace16Dummy@@AAEXPAVioBaseChar@@@Z ; ioTargetTrace16Dummy::SetTracingAttack
;	COMDAT xdata$x
; File d:\lost saga for developer\youtube\tutorial\source\src\lsclient\encryptvalue.h
xdata$x	SEGMENT
__unwindtable$?SetTracingAttack@ioTargetTrace16Dummy@@AAEXPAVioBaseChar@@@Z DD 0ffffffffH
	DD	FLAT:__unwindfunclet$?SetTracingAttack@ioTargetTrace16Dummy@@AAEXPAVioBaseChar@@@Z$0
__ehfuncinfo$?SetTracingAttack@ioTargetTrace16Dummy@@AAEXPAVioBaseChar@@@Z DD 019930522H
	DD	01H
	DD	FLAT:__unwindtable$?SetTracingAttack@ioTargetTrace16Dummy@@AAEXPAVioBaseChar@@@Z
	DD	2 DUP(00H)
	DD	2 DUP(00H)
	DD	00H
	DD	01H
; Function compile flags: /Ogsp
; File d:\lost saga for developer\youtube\tutorial\source\src\lsclient\iotargettrace16dummy.cpp
xdata$x	ENDS
;	COMDAT ?SetTracingAttack@ioTargetTrace16Dummy@@AAEXPAVioBaseChar@@@Z
_TEXT	SEGMENT
_value$544804 = -32812					; size = 4
_kPacket$531228 = -32808				; size = 32792
__$ArrayPad$ = -16					; size = 4
__$EHRec$ = -12						; size = 12
_pOwner$ = 8						; size = 4
?SetTracingAttack@ioTargetTrace16Dummy@@AAEXPAVioBaseChar@@@Z PROC ; ioTargetTrace16Dummy::SetTracingAttack, COMDAT
; _this$ = ecx

; 509  : {

  00000	55		 push	 ebp
  00001	8b ec		 mov	 ebp, esp
  00003	6a ff		 push	 -1
  00005	68 00 00 00 00	 push	 __ehhandler$?SetTracingAttack@ioTargetTrace16Dummy@@AAEXPAVioBaseChar@@@Z
  0000a	64 a1 00 00 00
	00		 mov	 eax, DWORD PTR fs:0
  00010	50		 push	 eax
  00011	b8 20 80 00 00	 mov	 eax, 32800		; 00008020H
  00016	e8 00 00 00 00	 call	 __chkstk
  0001b	a1 00 00 00 00	 mov	 eax, DWORD PTR ___security_cookie
  00020	33 c5		 xor	 eax, ebp
  00022	89 45 f0	 mov	 DWORD PTR __$ArrayPad$[ebp], eax
  00025	56		 push	 esi
  00026	57		 push	 edi
  00027	50		 push	 eax
  00028	8d 45 f4	 lea	 eax, DWORD PTR __$EHRec$[ebp]
  0002b	64 a3 00 00 00
	00		 mov	 DWORD PTR fs:0, eax
  00031	8b 7d 08	 mov	 edi, DWORD PTR _pOwner$[ebp]
  00034	8b f1		 mov	 esi, ecx

; 510  : 	if( !pOwner )

  00036	85 ff		 test	 edi, edi
  00038	0f 84 a4 00 00
	00		 je	 $LN1@SetTracing@2

; 511  : 		return;
; 512  : 
; 513  : 	m_TraceDummyState = TDS_ATTACK;
; 514  : 	m_iCurAttackCount++;

  0003e	ff 86 8c 14 00
	00		 inc	 DWORD PTR [esi+5260]

; 515  : 	SetAttackAni( pOwner, m_iTraceNormalAttack );

  00044	8d 85 d4 7f ff
	ff		 lea	 eax, DWORD PTR _value$544804[ebp]
  0004a	50		 push	 eax
  0004b	8d 8e 3c 0a 00
	00		 lea	 ecx, DWORD PTR [esi+2620]
  00051	c7 86 80 14 00
	00 05 00 00 00	 mov	 DWORD PTR [esi+5248], 5
  0005b	e8 00 00 00 00	 call	 ?DecryptValueToPool@?$CEncrypt@H@@QAEXPAH@Z ; CEncrypt<int>::DecryptValueToPool
  00060	ff b5 d4 7f ff
	ff		 push	 DWORD PTR _value$544804[ebp]
  00066	8b ce		 mov	 ecx, esi
  00068	57		 push	 edi
  00069	e8 00 00 00 00	 call	 ?SetAttackAni@ioTargetTrace16Dummy@@AAEXPAVioBaseChar@@H@Z ; ioTargetTrace16Dummy::SetAttackAni

; 516  : 
; 517  : 	if( pOwner->IsNeedSendNetwork() )

  0006e	8b 07		 mov	 eax, DWORD PTR [edi]
  00070	8b cf		 mov	 ecx, edi
  00072	ff 90 04 01 00
	00		 call	 DWORD PTR [eax+260]
  00078	84 c0		 test	 al, al
  0007a	74 66		 je	 SHORT $LN1@SetTracing@2

; 518  : 	{
; 519  : 		SP2Packet kPacket( CUPK_DUMMY_CHAR_SYNC );

  0007c	68 21 42 00 00	 push	 16929			; 00004221H
  00081	8d 8d d8 7f ff
	ff		 lea	 ecx, DWORD PTR _kPacket$531228[ebp]
  00087	e8 00 00 00 00	 call	 ??0SP2Packet@@QAE@K@Z	; SP2Packet::SP2Packet
  0008c	83 65 fc 00	 and	 DWORD PTR __$EHRec$[ebp+8], 0

; 520  : 		kPacket << m_OwnerName;

  00090	8d 86 cc 01 00
	00		 lea	 eax, DWORD PTR [esi+460]
  00096	50		 push	 eax
  00097	8d 8d d8 7f ff
	ff		 lea	 ecx, DWORD PTR _kPacket$531228[ebp]
  0009d	e8 00 00 00 00	 call	 ??6SP2Packet@@QAEAAV0@ABVioHashString@@@Z ; SP2Packet::operator<<

; 521  : 		kPacket << m_iCreateIndex;

  000a2	ff b6 dc 01 00
	00		 push	 DWORD PTR [esi+476]
  000a8	8d 8d d8 7f ff
	ff		 lea	 ecx, DWORD PTR _kPacket$531228[ebp]
  000ae	e8 00 00 00 00	 call	 ??6SP2Packet@@QAEAAV0@H@Z ; SP2Packet::operator<<

; 522  : 		kPacket << DCST_TRACING_ATTACK;

  000b3	68 e9 03 00 00	 push	 1001			; 000003e9H
  000b8	8d 8d d8 7f ff
	ff		 lea	 ecx, DWORD PTR _kPacket$531228[ebp]
  000be	e8 00 00 00 00	 call	 ??6SP2Packet@@QAEAAV0@H@Z ; SP2Packet::operator<<

; 523  : 		P2PNetwork::SendToAllPlayingUser( kPacket );

  000c3	8d 85 d8 7f ff
	ff		 lea	 eax, DWORD PTR _kPacket$531228[ebp]
  000c9	6a 00		 push	 0
  000cb	50		 push	 eax
  000cc	e8 00 00 00 00	 call	 ?SendToAllPlayingUser@P2PNetwork@@YAXAAVSP2Packet@@PAVioBaseChar@@@Z ; P2PNetwork::SendToAllPlayingUser

; 524  : 	}

  000d1	83 4d fc ff	 or	 DWORD PTR __$EHRec$[ebp+8], -1
  000d5	59		 pop	 ecx
  000d6	59		 pop	 ecx
  000d7	8d 8d d8 7f ff
	ff		 lea	 ecx, DWORD PTR _kPacket$531228[ebp]
  000dd	e8 00 00 00 00	 call	 ??1SP2Packet@@UAE@XZ	; SP2Packet::~SP2Packet
$LN1@SetTracing@2:

; 525  : }

  000e2	8b 4d f4	 mov	 ecx, DWORD PTR __$EHRec$[ebp]
  000e5	64 89 0d 00 00
	00 00		 mov	 DWORD PTR fs:0, ecx
  000ec	59		 pop	 ecx
  000ed	5f		 pop	 edi
  000ee	5e		 pop	 esi
  000ef	8b 4d f0	 mov	 ecx, DWORD PTR __$ArrayPad$[ebp]
  000f2	33 cd		 xor	 ecx, ebp
  000f4	e8 00 00 00 00	 call	 @__security_check_cookie@4
  000f9	c9		 leave
  000fa	c2 04 00	 ret	 4
_TEXT	ENDS
;	COMDAT text$x
text$x	SEGMENT
__unwindfunclet$?SetTracingAttack@ioTargetTrace16Dummy@@AAEXPAVioBaseChar@@@Z$0:
  00000	8d 8d d8 7f ff
	ff		 lea	 ecx, DWORD PTR _kPacket$531228[ebp]
  00006	e9 00 00 00 00	 jmp	 ??1SP2Packet@@UAE@XZ	; SP2Packet::~SP2Packet
__ehhandler$?SetTracingAttack@ioTargetTrace16Dummy@@AAEXPAVioBaseChar@@@Z:
  0000b	8b 54 24 08	 mov	 edx, DWORD PTR [esp+8]
  0000f	8d 42 0c	 lea	 eax, DWORD PTR [edx+12]
  00012	8b 8a d4 7f ff
	ff		 mov	 ecx, DWORD PTR [edx-32812]
  00018	33 c8		 xor	 ecx, eax
  0001a	e8 00 00 00 00	 call	 @__security_check_cookie@4
  0001f	8b 4a fc	 mov	 ecx, DWORD PTR [edx-4]
  00022	33 c8		 xor	 ecx, eax
  00024	e8 00 00 00 00	 call	 @__security_check_cookie@4
  00029	b8 00 00 00 00	 mov	 eax, OFFSET __ehfuncinfo$?SetTracingAttack@ioTargetTrace16Dummy@@AAEXPAVioBaseChar@@@Z
  0002e	e9 00 00 00 00	 jmp	 ___CxxFrameHandler3
text$x	ENDS
?SetTracingAttack@ioTargetTrace16Dummy@@AAEXPAVioBaseChar@@@Z ENDP ; ioTargetTrace16Dummy::SetTracingAttack
PUBLIC	__$ArrayPad$
PUBLIC	?SetLandingAttack@ioTargetTrace16Dummy@@AAEXPAVioBaseChar@@@Z ; ioTargetTrace16Dummy::SetLandingAttack
;	COMDAT xdata$x
; File d:\lost saga for developer\youtube\tutorial\source\src\lsclient\encryptvalue.h
xdata$x	SEGMENT
__unwindtable$?SetLandingAttack@ioTargetTrace16Dummy@@AAEXPAVioBaseChar@@@Z DD 0ffffffffH
	DD	FLAT:__unwindfunclet$?SetLandingAttack@ioTargetTrace16Dummy@@AAEXPAVioBaseChar@@@Z$0
__ehfuncinfo$?SetLandingAttack@ioTargetTrace16Dummy@@AAEXPAVioBaseChar@@@Z DD 019930522H
	DD	01H
	DD	FLAT:__unwindtable$?SetLandingAttack@ioTargetTrace16Dummy@@AAEXPAVioBaseChar@@@Z
	DD	2 DUP(00H)
	DD	2 DUP(00H)
	DD	00H
	DD	01H
; Function compile flags: /Ogsp
; File d:\lost saga for developer\youtube\tutorial\source\src\lsclient\iotargettrace16dummy.cpp
xdata$x	ENDS
;	COMDAT ?SetLandingAttack@ioTargetTrace16Dummy@@AAEXPAVioBaseChar@@@Z
_TEXT	SEGMENT
_value$544820 = -32812					; size = 4
_kPacket$531458 = -32808				; size = 32792
__$ArrayPad$ = -16					; size = 4
__$EHRec$ = -12						; size = 12
_pOwner$ = 8						; size = 4
?SetLandingAttack@ioTargetTrace16Dummy@@AAEXPAVioBaseChar@@@Z PROC ; ioTargetTrace16Dummy::SetLandingAttack, COMDAT
; _this$ = ecx

; 657  : {

  00000	55		 push	 ebp
  00001	8b ec		 mov	 ebp, esp
  00003	6a ff		 push	 -1
  00005	68 00 00 00 00	 push	 __ehhandler$?SetLandingAttack@ioTargetTrace16Dummy@@AAEXPAVioBaseChar@@@Z
  0000a	64 a1 00 00 00
	00		 mov	 eax, DWORD PTR fs:0
  00010	50		 push	 eax
  00011	b8 20 80 00 00	 mov	 eax, 32800		; 00008020H
  00016	e8 00 00 00 00	 call	 __chkstk
  0001b	a1 00 00 00 00	 mov	 eax, DWORD PTR ___security_cookie
  00020	33 c5		 xor	 eax, ebp
  00022	89 45 f0	 mov	 DWORD PTR __$ArrayPad$[ebp], eax
  00025	56		 push	 esi
  00026	57		 push	 edi
  00027	50		 push	 eax
  00028	8d 45 f4	 lea	 eax, DWORD PTR __$EHRec$[ebp]
  0002b	64 a3 00 00 00
	00		 mov	 DWORD PTR fs:0, eax

; 658  : 	m_TraceDummyState = TDS_LANDING_ATTACK;
; 659  : 	m_fCurJumpPowerAmt = 0.0f;

  00031	0f 57 c0	 xorps	 xmm0, xmm0
  00034	8b 7d 08	 mov	 edi, DWORD PTR _pOwner$[ebp]
  00037	8b f1		 mov	 esi, ecx
  00039	8d 85 d4 7f ff
	ff		 lea	 eax, DWORD PTR _value$544820[ebp]
  0003f	50		 push	 eax
  00040	8d 8e 20 03 00
	00		 lea	 ecx, DWORD PTR [esi+800]
  00046	c7 86 80 14 00
	00 07 00 00 00	 mov	 DWORD PTR [esi+5248], 7
  00050	f3 0f 11 85 d4
	7f ff ff	 movss	 DWORD PTR _value$544820[ebp], xmm0
  00058	e8 00 00 00 00	 call	 ?EncryptValueToPool@?$CEncrypt@M@@AAEXPBD@Z ; CEncrypt<float>::EncryptValueToPool

; 660  : 	SetAttackAni( pOwner, m_iLandingAttackCode );

  0005d	ff b6 88 14 00
	00		 push	 DWORD PTR [esi+5256]
  00063	8b ce		 mov	 ecx, esi
  00065	57		 push	 edi
  00066	e8 00 00 00 00	 call	 ?SetAttackAni@ioTargetTrace16Dummy@@AAEXPAVioBaseChar@@H@Z ; ioTargetTrace16Dummy::SetAttackAni

; 661  : 	ClearWeaponIndexList();

  0006b	8b ce		 mov	 ecx, esi
  0006d	e8 00 00 00 00	 call	 ?ClearWeaponIndexList@ioTargetTrace16Dummy@@AAEXXZ ; ioTargetTrace16Dummy::ClearWeaponIndexList

; 662  : 
; 663  : 	if( GetOwner() && GetOwner()->IsNeedSendNetwork() )

  00072	8b ce		 mov	 ecx, esi
  00074	e8 00 00 00 00	 call	 ?GetOwner@ioDummyChar@@QBEPAVioBaseChar@@XZ ; ioDummyChar::GetOwner
  00079	85 c0		 test	 eax, eax
  0007b	74 7b		 je	 SHORT $LN1@SetLanding
  0007d	8b ce		 mov	 ecx, esi
  0007f	e8 00 00 00 00	 call	 ?GetOwner@ioDummyChar@@QBEPAVioBaseChar@@XZ ; ioDummyChar::GetOwner
  00084	8b 10		 mov	 edx, DWORD PTR [eax]
  00086	8b c8		 mov	 ecx, eax
  00088	ff 92 04 01 00
	00		 call	 DWORD PTR [edx+260]
  0008e	84 c0		 test	 al, al
  00090	74 66		 je	 SHORT $LN1@SetLanding

; 664  : 	{
; 665  : 		SP2Packet kPacket( CUPK_DUMMY_CHAR_SYNC );

  00092	68 21 42 00 00	 push	 16929			; 00004221H
  00097	8d 8d d8 7f ff
	ff		 lea	 ecx, DWORD PTR _kPacket$531458[ebp]
  0009d	e8 00 00 00 00	 call	 ??0SP2Packet@@QAE@K@Z	; SP2Packet::SP2Packet
  000a2	83 65 fc 00	 and	 DWORD PTR __$EHRec$[ebp+8], 0

; 666  : 		kPacket << m_OwnerName;

  000a6	8d 86 cc 01 00
	00		 lea	 eax, DWORD PTR [esi+460]
  000ac	50		 push	 eax
  000ad	8d 8d d8 7f ff
	ff		 lea	 ecx, DWORD PTR _kPacket$531458[ebp]
  000b3	e8 00 00 00 00	 call	 ??6SP2Packet@@QAEAAV0@ABVioHashString@@@Z ; SP2Packet::operator<<

; 667  : 		kPacket << m_iCreateIndex;

  000b8	ff b6 dc 01 00
	00		 push	 DWORD PTR [esi+476]
  000be	8d 8d d8 7f ff
	ff		 lea	 ecx, DWORD PTR _kPacket$531458[ebp]
  000c4	e8 00 00 00 00	 call	 ??6SP2Packet@@QAEAAV0@H@Z ; SP2Packet::operator<<

; 668  : 		kPacket << DCST_LAND_ATTACK;

  000c9	68 eb 03 00 00	 push	 1003			; 000003ebH
  000ce	8d 8d d8 7f ff
	ff		 lea	 ecx, DWORD PTR _kPacket$531458[ebp]
  000d4	e8 00 00 00 00	 call	 ??6SP2Packet@@QAEAAV0@H@Z ; SP2Packet::operator<<

; 669  : 		P2PNetwork::SendToAllPlayingUser( kPacket );

  000d9	8d 85 d8 7f ff
	ff		 lea	 eax, DWORD PTR _kPacket$531458[ebp]
  000df	6a 00		 push	 0
  000e1	50		 push	 eax
  000e2	e8 00 00 00 00	 call	 ?SendToAllPlayingUser@P2PNetwork@@YAXAAVSP2Packet@@PAVioBaseChar@@@Z ; P2PNetwork::SendToAllPlayingUser

; 670  : 	}

  000e7	83 4d fc ff	 or	 DWORD PTR __$EHRec$[ebp+8], -1
  000eb	59		 pop	 ecx
  000ec	59		 pop	 ecx
  000ed	8d 8d d8 7f ff
	ff		 lea	 ecx, DWORD PTR _kPacket$531458[ebp]
  000f3	e8 00 00 00 00	 call	 ??1SP2Packet@@UAE@XZ	; SP2Packet::~SP2Packet
$LN1@SetLanding:

; 671  : }

  000f8	8b 4d f4	 mov	 ecx, DWORD PTR __$EHRec$[ebp]
  000fb	64 89 0d 00 00
	00 00		 mov	 DWORD PTR fs:0, ecx
  00102	59		 pop	 ecx
  00103	5f		 pop	 edi
  00104	5e		 pop	 esi
  00105	8b 4d f0	 mov	 ecx, DWORD PTR __$ArrayPad$[ebp]
  00108	33 cd		 xor	 ecx, ebp
  0010a	e8 00 00 00 00	 call	 @__security_check_cookie@4
  0010f	c9		 leave
  00110	c2 04 00	 ret	 4
_TEXT	ENDS
;	COMDAT text$x
text$x	SEGMENT
__unwindfunclet$?SetLandingAttack@ioTargetTrace16Dummy@@AAEXPAVioBaseChar@@@Z$0:
  00000	8d 8d d8 7f ff
	ff		 lea	 ecx, DWORD PTR _kPacket$531458[ebp]
  00006	e9 00 00 00 00	 jmp	 ??1SP2Packet@@UAE@XZ	; SP2Packet::~SP2Packet
__ehhandler$?SetLandingAttack@ioTargetTrace16Dummy@@AAEXPAVioBaseChar@@@Z:
  0000b	8b 54 24 08	 mov	 edx, DWORD PTR [esp+8]
  0000f	8d 42 0c	 lea	 eax, DWORD PTR [edx+12]
  00012	8b 8a d4 7f ff
	ff		 mov	 ecx, DWORD PTR [edx-32812]
  00018	33 c8		 xor	 ecx, eax
  0001a	e8 00 00 00 00	 call	 @__security_check_cookie@4
  0001f	8b 4a fc	 mov	 ecx, DWORD PTR [edx-4]
  00022	33 c8		 xor	 ecx, eax
  00024	e8 00 00 00 00	 call	 @__security_check_cookie@4
  00029	b8 00 00 00 00	 mov	 eax, OFFSET __ehfuncinfo$?SetLandingAttack@ioTargetTrace16Dummy@@AAEXPAVioBaseChar@@@Z
  0002e	e9 00 00 00 00	 jmp	 ___CxxFrameHandler3
text$x	ENDS
?SetLandingAttack@ioTargetTrace16Dummy@@AAEXPAVioBaseChar@@@Z ENDP ; ioTargetTrace16Dummy::SetLandingAttack
EXTRN	??5SP2Packet@@QAEAAV0@AAVioHashString@@@Z:PROC	; SP2Packet::operator>>
EXTRN	?ApplyDummyCharSyncByType@ioDummyChar@@IAEXHAAVSP2Packet@@PAVioPlayStage@@@Z:PROC ; ioDummyChar::ApplyDummyCharSyncByType
EXTRN	??5SP2Packet@@QAEAAV0@AAH@Z:PROC		; SP2Packet::operator>>
; Function compile flags: /Ogsp
;	COMDAT ?ApplyDummyCharSync@ioTargetTrace16Dummy@@UAEXPAVioPlayStage@@AAVSP2Packet@@@Z
_TEXT	SEGMENT
_iType$ = -4						; size = 4
_pStage$ = 8						; size = 4
_rkPacket$ = 12						; size = 4
?ApplyDummyCharSync@ioTargetTrace16Dummy@@UAEXPAVioPlayStage@@AAVSP2Packet@@@Z PROC ; ioTargetTrace16Dummy::ApplyDummyCharSync, COMDAT
; _this$ = ecx

; 930  : {

  00000	55		 push	 ebp
  00001	8b ec		 mov	 ebp, esp
  00003	51		 push	 ecx
  00004	56		 push	 esi
  00005	57		 push	 edi
  00006	8b f1		 mov	 esi, ecx

; 931  : 	ioBaseChar *pOwner = GetOwner();

  00008	e8 00 00 00 00	 call	 ?GetOwner@ioDummyChar@@QBEPAVioBaseChar@@XZ ; ioDummyChar::GetOwner
  0000d	8b f8		 mov	 edi, eax

; 932  : 	if ( !pOwner )

  0000f	85 ff		 test	 edi, edi
  00011	74 6a		 je	 SHORT $LN7@ApplyDummy

; 933  : 		return;
; 934  : 	int iType;
; 935  : 	rkPacket >> iType;

  00013	8b 4d 0c	 mov	 ecx, DWORD PTR _rkPacket$[ebp]
  00016	8d 45 fc	 lea	 eax, DWORD PTR _iType$[ebp]
  00019	50		 push	 eax
  0001a	e8 00 00 00 00	 call	 ??5SP2Packet@@QAEAAV0@AAH@Z ; SP2Packet::operator>>

; 936  : 
; 937  : 	switch( iType )

  0001f	8b 45 fc	 mov	 eax, DWORD PTR _iType$[ebp]
  00022	2d e8 03 00 00	 sub	 eax, 1000		; 000003e8H
  00027	74 3d		 je	 SHORT $LN6@ApplyDummy
  00029	48		 dec	 eax

; 957  : 	default:
; 958  : 		ApplyDummyCharSyncByType( iType, rkPacket, pStage );

  0002a	8b ce		 mov	 ecx, esi
  0002c	74 30		 je	 SHORT $LN5@ApplyDummy

; 936  : 
; 937  : 	switch( iType )

  0002e	48		 dec	 eax
  0002f	74 26		 je	 SHORT $LN4@ApplyDummy
  00031	48		 dec	 eax
  00032	74 1b		 je	 SHORT $LN3@ApplyDummy
  00034	48		 dec	 eax
  00035	74 10		 je	 SHORT $LN2@ApplyDummy

; 957  : 	default:
; 958  : 		ApplyDummyCharSyncByType( iType, rkPacket, pStage );

  00037	ff 75 08	 push	 DWORD PTR _pStage$[ebp]
  0003a	ff 75 0c	 push	 DWORD PTR _rkPacket$[ebp]
  0003d	ff 75 fc	 push	 DWORD PTR _iType$[ebp]
  00040	e8 00 00 00 00	 call	 ?ApplyDummyCharSyncByType@ioDummyChar@@IAEXHAAVSP2Packet@@PAVioPlayStage@@@Z ; ioDummyChar::ApplyDummyCharSyncByType

; 959  : 		break;

  00045	eb 36		 jmp	 SHORT $LN7@ApplyDummy
$LN2@ApplyDummy:

; 954  : 	case DCST_RETURN:
; 955  : 		SetReturnState( pOwner );

  00047	57		 push	 edi
  00048	e8 00 00 00 00	 call	 ?SetReturnState@ioTargetTrace16Dummy@@AAEXPAVioBaseChar@@@Z ; ioTargetTrace16Dummy::SetReturnState

; 956  : 		break;

  0004d	eb 2e		 jmp	 SHORT $LN7@ApplyDummy
$LN3@ApplyDummy:

; 951  : 	case DCST_LAND_ATTACK:
; 952  : 		SetLandingAttack( pOwner );

  0004f	57		 push	 edi
  00050	e8 00 00 00 00	 call	 ?SetLandingAttack@ioTargetTrace16Dummy@@AAEXPAVioBaseChar@@@Z ; ioTargetTrace16Dummy::SetLandingAttack

; 953  : 		break;

  00055	eb 26		 jmp	 SHORT $LN7@ApplyDummy
$LN4@ApplyDummy:

; 948  : 	case DCST_JUMP:
; 949  : 		SetJumpState();

  00057	e8 00 00 00 00	 call	 ?SetJumpState@ioTargetTrace16Dummy@@AAEXXZ ; ioTargetTrace16Dummy::SetJumpState

; 950  : 		break;

  0005c	eb 1f		 jmp	 SHORT $LN7@ApplyDummy
$LN5@ApplyDummy:

; 943  : 		}
; 944  : 		break;
; 945  : 	case DCST_TRACING_ATTACK:
; 946  : 		SetTracingAttack( pOwner );

  0005e	57		 push	 edi
  0005f	e8 00 00 00 00	 call	 ?SetTracingAttack@ioTargetTrace16Dummy@@AAEXPAVioBaseChar@@@Z ; ioTargetTrace16Dummy::SetTracingAttack

; 947  : 		break;

  00064	eb 17		 jmp	 SHORT $LN7@ApplyDummy
$LN6@ApplyDummy:

; 938  : 	{
; 939  : 	case DCST_TRACING:
; 940  : 		{
; 941  : 			rkPacket >> m_TargetTraceName;

  00066	8b 4d 0c	 mov	 ecx, DWORD PTR _rkPacket$[ebp]
  00069	8d 86 d8 0a 00
	00		 lea	 eax, DWORD PTR [esi+2776]
  0006f	50		 push	 eax
  00070	e8 00 00 00 00	 call	 ??5SP2Packet@@QAEAAV0@AAVioHashString@@@Z ; SP2Packet::operator>>

; 942  : 			SetTracingState( pOwner );

  00075	57		 push	 edi
  00076	8b ce		 mov	 ecx, esi
  00078	e8 00 00 00 00	 call	 ?SetTracingState@ioTargetTrace16Dummy@@AAEXPAVioBaseChar@@@Z ; ioTargetTrace16Dummy::SetTracingState
$LN7@ApplyDummy:
  0007d	5f		 pop	 edi
  0007e	5e		 pop	 esi

; 960  : 	}
; 961  : 	
; 962  : }

  0007f	c9		 leave
  00080	c2 08 00	 ret	 8
?ApplyDummyCharSync@ioTargetTrace16Dummy@@UAEXPAVioPlayStage@@AAVSP2Packet@@@Z ENDP ; ioTargetTrace16Dummy::ApplyDummyCharSync
_TEXT	ENDS
PUBLIC	__real@bff0000000000000
PUBLIC	__real@0000000000000000
PUBLIC	__mask@@AbsDouble@
PUBLIC	__real@4010000000000000
PUBLIC	_fMoveAmt$GSCopy$
PUBLIC	_pStage$GSCopy$
PUBLIC	_pOwner$GSCopy$
PUBLIC	__$ArrayPad$
PUBLIC	?ProcessTraceMoving@ioTargetTrace16Dummy@@AAEXPAVioBaseChar@@PAVioPlayStage@@UD3DXVECTOR3@@M@Z ; ioTargetTrace16Dummy::ProcessTraceMoving
EXTRN	__imp_?CalcDirectionQuaternion@ioMath@@SAXAAUD3DXQUATERNION@@ABUD3DXVECTOR3@@@Z:PROC
;	COMDAT __real@bff0000000000000
; File c:\program files (x86)\microsoft directx sdk (june 2010)\include\d3dx9math.inl
CONST	SEGMENT
__real@bff0000000000000 DQ 0bff0000000000000r	; -1
CONST	ENDS
;	COMDAT __real@0000000000000000
CONST	SEGMENT
__real@0000000000000000 DQ 00000000000000000r	; 0
CONST	ENDS
;	COMDAT __mask@@AbsDouble@
CONST	SEGMENT
__mask@@AbsDouble@ DB 0ffH, 0ffH, 0ffH, 0ffH, 0ffH, 0ffH, 0ffH, 07fH, 0ffH
	DB	0ffH, 0ffH, 0ffH, 0ffH, 0ffH, 0ffH, 07fH
CONST	ENDS
;	COMDAT __real@4010000000000000
CONST	SEGMENT
__real@4010000000000000 DQ 04010000000000000r	; 4
; Function compile flags: /Ogsp
; File d:\lost saga for developer\youtube\tutorial\source\src\lsclient\iotargettrace16dummy.cpp
CONST	ENDS
;	COMDAT ?ProcessTraceMoving@ioTargetTrace16Dummy@@AAEXPAVioBaseChar@@PAVioPlayStage@@UD3DXVECTOR3@@M@Z
_TEXT	SEGMENT
_qtRot$ = -92						; size = 16
_value$544870 = -76					; size = 4
_pOwner$GSCopy$ = -72					; size = 4
$T544835 = -68						; size = 4
_pStage$GSCopy$ = -64					; size = 4
_fNewMapHeight$532549 = -64				; size = 4
_qtRot$532544 = -60					; size = 16
_vDiff$532550 = -56					; size = 12
_value$544854 = -44					; size = 4
_fMapHeight$ = -44					; size = 4
tv1276 = -40						; size = 4
tv1272 = -40						; size = 4
_value$544990 = -40					; size = 4
_fTopHeight$ = -40					; size = 4
_value$544889 = -33					; size = 1
_fMoveAmt$GSCopy$ = -32					; size = 4
_vPos$ = -28						; size = 12
$T532568 = -16						; size = 12
$T532545 = -16						; size = 12
_vPrePos$ = -16						; size = 12
__$ArrayPad$ = -4					; size = 4
_pOwner$ = 8						; size = 4
_pStage$ = 12						; size = 4
_vMoveDir$ = 16						; size = 12
_fMoveAmt$ = 28						; size = 4
?ProcessTraceMoving@ioTargetTrace16Dummy@@AAEXPAVioBaseChar@@PAVioPlayStage@@UD3DXVECTOR3@@M@Z PROC ; ioTargetTrace16Dummy::ProcessTraceMoving, COMDAT
; _this$ = ecx

; 987  : {

  00000	55		 push	 ebp
  00001	8b ec		 mov	 ebp, esp
  00003	83 ec 5c	 sub	 esp, 92			; 0000005cH
  00006	a1 00 00 00 00	 mov	 eax, DWORD PTR ___security_cookie
  0000b	33 c5		 xor	 eax, ebp
  0000d	89 45 fc	 mov	 DWORD PTR __$ArrayPad$[ebp], eax
  00010	8b 45 08	 mov	 eax, DWORD PTR _pOwner$[ebp]
  00013	f3 0f 10 45 1c	 movss	 xmm0, DWORD PTR _fMoveAmt$[ebp]
  00018	53		 push	 ebx
  00019	8b d9		 mov	 ebx, ecx
  0001b	8b 4d 0c	 mov	 ecx, DWORD PTR _pStage$[ebp]

; 1051 : 		}
; 1052 : 	}
; 1053 : 
; 1054 : 	vPos.y = fMapHeight;

  0001e	89 45 b8	 mov	 DWORD PTR _pOwner$GSCopy$[ebp], eax
  00021	89 4d c0	 mov	 DWORD PTR _pStage$GSCopy$[ebp], ecx
  00024	f3 0f 11 45 e0	 movss	 DWORD PTR _fMoveAmt$GSCopy$[ebp], xmm0
  00029	85 c0		 test	 eax, eax
  0002b	0f 84 9d 04 00
	00		 je	 $LN14@ProcessTra

; 988  : 	if ( !pOwner || !pStage )

  00031	85 c9		 test	 ecx, ecx
  00033	0f 84 95 04 00
	00		 je	 $LN14@ProcessTra

; 989  : 		return;
; 990  : 
; 991  : 	if ( fMoveAmt == 0.0f )

  00039	0f 2e 05 00 00
	00 00		 ucomiss xmm0, DWORD PTR __real@00000000
  00040	9f		 lahf
  00041	f6 c4 44	 test	 ah, 68			; 00000044H
  00044	0f 8b 84 04 00
	00		 jnp	 $LN14@ProcessTra

; 992  : 		return;
; 993  : 
; 994  : 	D3DXVECTOR3 vPrePos = GetWorldPosition();

  0004a	8b 03		 mov	 eax, DWORD PTR [ebx]
  0004c	56		 push	 esi
  0004d	57		 push	 edi
  0004e	8b cb		 mov	 ecx, ebx
  00050	ff 50 70	 call	 DWORD PTR [eax+112]

; 995  : 	D3DXVECTOR3 vPos = vPrePos;
; 996  : 
; 997  : 	vMoveDir.y = 0.0f;

  00053	0f 57 c0	 xorps	 xmm0, xmm0
  00056	8b f0		 mov	 esi, eax
  00058	8d 7d f0	 lea	 edi, DWORD PTR _vPrePos$[ebp]
  0005b	a5		 movsd
  0005c	a5		 movsd
  0005d	a5		 movsd
  0005e	8d 75 f0	 lea	 esi, DWORD PTR _vPrePos$[ebp]
  00061	8d 7d e4	 lea	 edi, DWORD PTR _vPos$[ebp]
  00064	a5		 movsd

; 998  : 	D3DXVec3Normalize( &vMoveDir, &vMoveDir );

  00065	8d 45 10	 lea	 eax, DWORD PTR _vMoveDir$[ebp]
  00068	a5		 movsd
  00069	50		 push	 eax
  0006a	50		 push	 eax
  0006b	a5		 movsd
  0006c	f3 0f 11 45 14	 movss	 DWORD PTR _vMoveDir$[ebp+4], xmm0
  00071	e8 00 00 00 00	 call	 _D3DXVec3Normalize@8

; 999  : 
; 1000 : 	vPos += vMoveDir * fMoveAmt;

  00076	f3 0f 10 45 e0	 movss	 xmm0, DWORD PTR _fMoveAmt$GSCopy$[ebp]
  0007b	f3 0f 10 4d 10	 movss	 xmm1, DWORD PTR _vMoveDir$[ebp]
  00080	f3 0f 10 55 14	 movss	 xmm2, DWORD PTR _vMoveDir$[ebp+4]
  00085	f3 0f 10 5d 18	 movss	 xmm3, DWORD PTR _vMoveDir$[ebp+8]
  0008a	0f 5a c0	 cvtps2pd xmm0, xmm0
  0008d	0f 5a c9	 cvtps2pd xmm1, xmm1
  00090	f2 0f 59 c1	 mulsd	 xmm0, xmm1
  00094	f3 0f 10 4d e0	 movss	 xmm1, DWORD PTR _fMoveAmt$GSCopy$[ebp]
  00099	f2 0f 5a c0	 cvtsd2ss xmm0, xmm0
  0009d	0f 5a c9	 cvtps2pd xmm1, xmm1
  000a0	0f 5a d2	 cvtps2pd xmm2, xmm2
  000a3	f2 0f 59 ca	 mulsd	 xmm1, xmm2
  000a7	f3 0f 10 55 e0	 movss	 xmm2, DWORD PTR _fMoveAmt$GSCopy$[ebp]
  000ac	f3 0f 5a c0	 cvtss2sd xmm0, xmm0
  000b0	0f 5a db	 cvtps2pd xmm3, xmm3
  000b3	0f 5a d2	 cvtps2pd xmm2, xmm2
  000b6	f2 0f 59 d3	 mulsd	 xmm2, xmm3
  000ba	f3 0f 10 5d e4	 movss	 xmm3, DWORD PTR _vPos$[ebp]
  000bf	f2 0f 5a c9	 cvtsd2ss xmm1, xmm1
  000c3	0f 5a db	 cvtps2pd xmm3, xmm3
  000c6	f2 0f 58 c3	 addsd	 xmm0, xmm3
  000ca	f2 0f 5a c0	 cvtsd2ss xmm0, xmm0
  000ce	f3 0f 11 45 e4	 movss	 DWORD PTR _vPos$[ebp], xmm0
  000d3	0f 57 c0	 xorps	 xmm0, xmm0
  000d6	f3 0f 5a c1	 cvtss2sd xmm0, xmm1
  000da	f3 0f 10 4d e8	 movss	 xmm1, DWORD PTR _vPos$[ebp+4]
  000df	0f 5a c9	 cvtps2pd xmm1, xmm1
  000e2	f2 0f 58 c1	 addsd	 xmm0, xmm1
  000e6	f3 0f 10 4d ec	 movss	 xmm1, DWORD PTR _vPos$[ebp+8]
  000eb	66 0f 5a c0	 cvtpd2ps xmm0, xmm0
  000ef	f3 0f 11 45 e8	 movss	 DWORD PTR _vPos$[ebp+4], xmm0
  000f4	0f 57 c0	 xorps	 xmm0, xmm0
  000f7	f2 0f 5a d2	 cvtsd2ss xmm2, xmm2
  000fb	f3 0f 5a c2	 cvtss2sd xmm0, xmm2
  000ff	0f 5a c9	 cvtps2pd xmm1, xmm1

; 1001 : 
; 1002 : 	float fTopHeight = m_fEnableTraceMoveHeight * 4.0f;

  00102	8d 45 d4	 lea	 eax, DWORD PTR _value$544854[ebp]
  00105	f2 0f 58 c1	 addsd	 xmm0, xmm1
  00109	66 0f 5a c0	 cvtpd2ps xmm0, xmm0
  0010d	50		 push	 eax
  0010e	8d 8b cc 07 00
	00		 lea	 ecx, DWORD PTR [ebx+1996]
  00114	f3 0f 11 45 ec	 movss	 DWORD PTR _vPos$[ebp+8], xmm0
  00119	e8 00 00 00 00	 call	 ?DecryptValueToPool@?$CEncrypt@M@@QAEXPAM@Z ; CEncrypt<float>::DecryptValueToPool
  0011e	f3 0f 10 45 d4	 movss	 xmm0, DWORD PTR _value$544854[ebp]

; 1003 : 	float fMapHeight = pStage->GetMapHeightNoneEntity( vPos.x, vPos.z, vPos.y+fTopHeight );

  00123	f3 0f 10 4d e8	 movss	 xmm1, DWORD PTR _vPos$[ebp+4]
  00128	8b 4d c0	 mov	 ecx, DWORD PTR _pStage$GSCopy$[ebp]
  0012b	0f 5a c0	 cvtps2pd xmm0, xmm0
  0012e	f2 0f 59 05 00
	00 00 00	 mulsd	 xmm0, QWORD PTR __real@4010000000000000
  00136	66 0f 5a c0	 cvtpd2ps xmm0, xmm0
  0013a	f3 0f 11 45 d8	 movss	 DWORD PTR _fTopHeight$[ebp], xmm0
  0013f	f3 0f 5a c0	 cvtss2sd xmm0, xmm0
  00143	6a 00		 push	 0
  00145	83 ec 0c	 sub	 esp, 12			; 0000000cH
  00148	0f 5a c9	 cvtps2pd xmm1, xmm1
  0014b	f2 0f 58 c8	 addsd	 xmm1, xmm0
  0014f	66 0f 5a c1	 cvtpd2ps xmm0, xmm1
  00153	f3 0f 11 44 24
	08		 movss	 DWORD PTR [esp+8], xmm0
  00159	f3 0f 10 45 ec	 movss	 xmm0, DWORD PTR _vPos$[ebp+8]
  0015e	f3 0f 11 44 24
	04		 movss	 DWORD PTR [esp+4], xmm0
  00164	f3 0f 10 45 e4	 movss	 xmm0, DWORD PTR _vPos$[ebp]
  00169	f3 0f 11 04 24	 movss	 DWORD PTR [esp], xmm0
  0016e	e8 00 00 00 00	 call	 ?GetMapHeightNoneEntity@ioPlayStage@@QAEMMMM_N@Z ; ioPlayStage::GetMapHeightNoneEntity
  00173	d9 5d d4	 fstp	 DWORD PTR _fMapHeight$[ebp]

; 1004 : 	float fGapHeight = fMapHeight - vPos.y;
; 1005 : 
; 1006 : 	if( m_fEnableTraceMoveHeight < fabs(fGapHeight) )

  00176	f3 0f 10 45 d4	 movss	 xmm0, DWORD PTR _fMapHeight$[ebp]
  0017b	f3 0f 10 4d e8	 movss	 xmm1, DWORD PTR _vPos$[ebp+4]
  00180	0f 5a c0	 cvtps2pd xmm0, xmm0
  00183	0f 5a c9	 cvtps2pd xmm1, xmm1
  00186	f2 0f 5c c1	 subsd	 xmm0, xmm1
  0018a	f2 0f 5a c0	 cvtsd2ss xmm0, xmm0
  0018e	f3 0f 5a c0	 cvtss2sd xmm0, xmm0
  00192	66 0f 54 05 00
	00 00 00	 andpd	 xmm0, QWORD PTR __mask@@AbsDouble@
  0019a	8d 45 b4	 lea	 eax, DWORD PTR _value$544870[ebp]
  0019d	f2 0f 5a c0	 cvtsd2ss xmm0, xmm0
  001a1	50		 push	 eax
  001a2	8d 8b cc 07 00
	00		 lea	 ecx, DWORD PTR [ebx+1996]
  001a8	f3 0f 11 45 bc	 movss	 DWORD PTR $T544835[ebp], xmm0
  001ad	e8 00 00 00 00	 call	 ?DecryptValueToPool@?$CEncrypt@M@@QAEXPAM@Z ; CEncrypt<float>::DecryptValueToPool
  001b2	f3 0f 10 45 b4	 movss	 xmm0, DWORD PTR _value$544870[ebp]
  001b7	f3 0f 10 4d bc	 movss	 xmm1, DWORD PTR $T544835[ebp]
  001bc	0f 5a c0	 cvtps2pd xmm0, xmm0
  001bf	0f 5a c9	 cvtps2pd xmm1, xmm1
  001c2	66 0f 2f c8	 comisd	 xmm1, xmm0
  001c6	f3 0f 10 05 00
	00 00 00	 movss	 xmm0, DWORD PTR __mask@@NegFloat@
  001ce	0f 86 99 02 00
	00		 jbe	 $LN97@ProcessTra

; 1007 : 	{
; 1008 : 		if ( fMapHeight <= 0.0f )

  001d4	0f 57 c9	 xorps	 xmm1, xmm1
  001d7	0f 2f 4d d4	 comiss	 xmm1, DWORD PTR _fMapHeight$[ebp]
  001db	0f 82 90 00 00
	00		 jb	 $LN11@ProcessTra

; 1009 : 		{
; 1010 : 			D3DXQUATERNION qtRot;
; 1011 : 			ioMath::CalcDirectionQuaternion( qtRot, -m_vTracingMoveDir );

  001e1	f3 0f 10 8b 6c
	0a 00 00	 movss	 xmm1, DWORD PTR [ebx+2668]
  001e9	0f 57 c8	 xorps	 xmm1, xmm0
  001ec	f3 0f 11 4d f0	 movss	 DWORD PTR $T532545[ebp], xmm1
  001f1	f3 0f 10 8b 70
	0a 00 00	 movss	 xmm1, DWORD PTR [ebx+2672]
  001f9	0f 57 c8	 xorps	 xmm1, xmm0
  001fc	8d 45 f0	 lea	 eax, DWORD PTR $T532545[ebp]
  001ff	50		 push	 eax
  00200	f3 0f 11 4d f4	 movss	 DWORD PTR $T532545[ebp+4], xmm1
  00205	f3 0f 10 8b 74
	0a 00 00	 movss	 xmm1, DWORD PTR [ebx+2676]
  0020d	8d 45 c4	 lea	 eax, DWORD PTR _qtRot$532544[ebp]
  00210	0f 57 c8	 xorps	 xmm1, xmm0
  00213	50		 push	 eax
  00214	f3 0f 11 4d f8	 movss	 DWORD PTR $T532545[ebp+8], xmm1
  00219	ff 15 00 00 00
	00		 call	 DWORD PTR __imp_?CalcDirectionQuaternion@ioMath@@SAXAAUD3DXQUATERNION@@ABUD3DXVECTOR3@@@Z

; 1012 : 			SetWorldOrientation( qtRot );

  0021f	8b 03		 mov	 eax, DWORD PTR [ebx]
  00221	59		 pop	 ecx
  00222	59		 pop	 ecx
  00223	8d 4d c4	 lea	 ecx, DWORD PTR _qtRot$532544[ebp]
  00226	51		 push	 ecx
  00227	8b cb		 mov	 ecx, ebx
  00229	ff 50 48	 call	 DWORD PTR [eax+72]

; 1013 : 
; 1014 : 			if( m_bCharColOnlyAttack )

  0022c	8d 45 df	 lea	 eax, DWORD PTR _value$544889[ebp]
  0022f	50		 push	 eax
  00230	8d 8b ac 09 00
	00		 lea	 ecx, DWORD PTR [ebx+2476]
  00236	e8 00 00 00 00	 call	 ?DecryptValueToPool@?$CEncrypt@_N@@QAEXPA_N@Z ; CEncrypt<bool>::DecryptValueToPool
  0023b	80 7d df 00	 cmp	 BYTE PTR _value$544889[ebp], 0
  0023f	74 21		 je	 SHORT $LN10@ProcessTra

; 1015 : 			{
; 1016 : 				m_LastAttacker = m_OwnerName;

  00241	8d 83 cc 01 00
	00		 lea	 eax, DWORD PTR [ebx+460]
  00247	50		 push	 eax
  00248	8d 8b 30 05 00
	00		 lea	 ecx, DWORD PTR [ebx+1328]
  0024e	ff 15 00 00 00
	00		 call	 DWORD PTR __imp_??4ioHashString@@QAEAAV0@ABV0@@Z

; 1017 : 				SendDieState( true );

  00254	6a 01		 push	 1
  00256	8b cb		 mov	 ecx, ebx
  00258	e8 00 00 00 00	 call	 ?SendDieState@ioDummyChar@@QAEX_N@Z ; ioDummyChar::SendDieState

; 1018 : 			}
; 1019 : 			else

  0025d	e9 0b 02 00 00	 jmp	 $LN97@ProcessTra
$LN10@ProcessTra:

; 1020 : 			{
; 1021 : 				SetTracingAttack( pOwner );

  00262	ff 75 b8	 push	 DWORD PTR _pOwner$GSCopy$[ebp]
  00265	8b cb		 mov	 ecx, ebx
  00267	e8 00 00 00 00	 call	 ?SetTracingAttack@ioTargetTrace16Dummy@@AAEXPAVioBaseChar@@@Z ; ioTargetTrace16Dummy::SetTracingAttack

; 1022 : 			}
; 1023 : 		}
; 1024 : 		else

  0026c	e9 fc 01 00 00	 jmp	 $LN97@ProcessTra
$LN11@ProcessTra:

; 1025 : 		{
; 1026 : 			float fNewMapHeight = 0.0f;
; 1027 : 			D3DXVECTOR3 vDiff = vPrePos;
; 1028 : 
; 1029 : 			if( fabs(vMoveDir.x) >= fabs(vMoveDir.z) )

  00271	f3 0f 10 55 10	 movss	 xmm2, DWORD PTR _vMoveDir$[ebp]
  00276	8d 75 f0	 lea	 esi, DWORD PTR _vPrePos$[ebp]
  00279	8d 7d c8	 lea	 edi, DWORD PTR _vDiff$532550[ebp]
  0027c	0f 5a da	 cvtps2pd xmm3, xmm2
  0027f	66 0f 54 1d 00
	00 00 00	 andpd	 xmm3, QWORD PTR __mask@@AbsDouble@
  00287	a5		 movsd
  00288	f2 0f 5a db	 cvtsd2ss xmm3, xmm3
  0028c	0f 57 e4	 xorps	 xmm4, xmm4
  0028f	f3 0f 5a e3	 cvtss2sd xmm4, xmm3
  00293	f3 0f 10 5d 18	 movss	 xmm3, DWORD PTR _vMoveDir$[ebp+8]
  00298	a5		 movsd
  00299	0f 5a eb	 cvtps2pd xmm5, xmm3
  0029c	66 0f 54 2d 00
	00 00 00	 andpd	 xmm5, QWORD PTR __mask@@AbsDouble@
  002a4	0f 57 c0	 xorps	 xmm0, xmm0
  002a7	f2 0f 5a c5	 cvtsd2ss xmm0, xmm5
  002ab	0f 5a c0	 cvtps2pd xmm0, xmm0
  002ae	66 0f 2f e0	 comisd	 xmm4, xmm0
  002b2	a5		 movsd
  002b3	0f 82 8d 00 00
	00		 jb	 $LN7@ProcessTra

; 1030 : 			{
; 1031 : 				if( vMoveDir.x >= 0.0f )

  002b9	0f 2f d1	 comiss	 xmm2, xmm1
  002bc	72 5b		 jb	 SHORT $LN6@ProcessTra

; 1032 : 					vDiff += D3DXVECTOR3( 1.0f, 0.0f, 0.0f ) * fMoveAmt;

  002be	f3 0f 10 4d e0	 movss	 xmm1, DWORD PTR _fMoveAmt$GSCopy$[ebp]
  002c3	0f 5a c1	 cvtps2pd xmm0, xmm1
  002c6	f2 0f 59 05 00
	00 00 00	 mulsd	 xmm0, QWORD PTR __real@0000000000000000
  002ce	66 0f 5a c0	 cvtpd2ps xmm0, xmm0
$LN101@ProcessTra:
  002d2	0f 28 d0	 movaps	 xmm2, xmm0
  002d5	0f 5a c9	 cvtps2pd xmm1, xmm1
  002d8	0f 28 d8	 movaps	 xmm3, xmm0
  002db	f3 0f 10 45 f0	 movss	 xmm0, DWORD PTR _vPrePos$[ebp]
  002e0	0f 5a c0	 cvtps2pd xmm0, xmm0
  002e3	f2 0f 58 c1	 addsd	 xmm0, xmm1
  002e7	66 0f 5a c0	 cvtpd2ps xmm0, xmm0
  002eb	0f 5a ca	 cvtps2pd xmm1, xmm2
$LN102@ProcessTra:
  002ee	f3 0f 10 55 cc	 movss	 xmm2, DWORD PTR _vDiff$532550[ebp+4]
  002f3	0f 5a d2	 cvtps2pd xmm2, xmm2
  002f6	f2 0f 58 ca	 addsd	 xmm1, xmm2
  002fa	0f 57 d2	 xorps	 xmm2, xmm2
  002fd	66 0f 5a d1	 cvtpd2ps xmm2, xmm1
  00301	0f 5a cb	 cvtps2pd xmm1, xmm3
  00304	f3 0f 10 5d d0	 movss	 xmm3, DWORD PTR _vDiff$532550[ebp+8]
  00309	0f 5a db	 cvtps2pd xmm3, xmm3
  0030c	f2 0f 58 cb	 addsd	 xmm1, xmm3
  00310	66 0f 5a c9	 cvtpd2ps xmm1, xmm1

; 1033 : 				else

  00314	e9 d1 00 00 00	 jmp	 $LN100@ProcessTra
$LN6@ProcessTra:

; 1034 : 					vDiff += D3DXVECTOR3( -1.0f, 0.0f, 0.0f ) * fMoveAmt;

  00319	f3 0f 10 45 e0	 movss	 xmm0, DWORD PTR _fMoveAmt$GSCopy$[ebp]
  0031e	0f 5a c0	 cvtps2pd xmm0, xmm0
  00321	f2 0f 59 05 00
	00 00 00	 mulsd	 xmm0, QWORD PTR __real@bff0000000000000
  00329	0f 57 c9	 xorps	 xmm1, xmm1
  0032c	f2 0f 5a c8	 cvtsd2ss xmm1, xmm0
  00330	f3 0f 10 45 e0	 movss	 xmm0, DWORD PTR _fMoveAmt$GSCopy$[ebp]
  00335	0f 5a c0	 cvtps2pd xmm0, xmm0
  00338	f2 0f 59 05 00
	00 00 00	 mulsd	 xmm0, QWORD PTR __real@0000000000000000
  00340	f2 0f 5a c0	 cvtsd2ss xmm0, xmm0

; 1035 : 			}
; 1036 : 			else

  00344	eb 8c		 jmp	 SHORT $LN101@ProcessTra
$LN7@ProcessTra:

; 1037 : 			{
; 1038 : 				if( vMoveDir.z >= 0.0f )

  00346	0f 2f d9	 comiss	 xmm3, xmm1
  00349	72 36		 jb	 SHORT $LN3@ProcessTra

; 1039 : 					vDiff += D3DXVECTOR3( 0.0f, 0.0f, 1.0f ) * fMoveAmt;

  0034b	f3 0f 10 5d e0	 movss	 xmm3, DWORD PTR _fMoveAmt$GSCopy$[ebp]
  00350	f3 0f 10 55 f0	 movss	 xmm2, DWORD PTR _vPrePos$[ebp]
  00355	0f 5a c3	 cvtps2pd xmm0, xmm3
  00358	f2 0f 59 05 00
	00 00 00	 mulsd	 xmm0, QWORD PTR __real@0000000000000000
  00360	66 0f 5a c0	 cvtpd2ps xmm0, xmm0
  00364	0f 28 c8	 movaps	 xmm1, xmm0
  00367	f3 0f 5a c0	 cvtss2sd xmm0, xmm0
  0036b	0f 5a d2	 cvtps2pd xmm2, xmm2
  0036e	f2 0f 58 d0	 addsd	 xmm2, xmm0
  00372	0f 57 c0	 xorps	 xmm0, xmm0
  00375	66 0f 5a c2	 cvtpd2ps xmm0, xmm2
  00379	0f 5a c9	 cvtps2pd xmm1, xmm1

; 1040 : 				else

  0037c	e9 6d ff ff ff	 jmp	 $LN102@ProcessTra
$LN3@ProcessTra:

; 1041 : 					vDiff += D3DXVECTOR3( 0.0f, 0.0f, -1.0f ) * fMoveAmt;

  00381	f3 0f 10 45 e0	 movss	 xmm0, DWORD PTR _fMoveAmt$GSCopy$[ebp]
  00386	f3 0f 10 5d f0	 movss	 xmm3, DWORD PTR _vPrePos$[ebp]
  0038b	f3 0f 10 4d e0	 movss	 xmm1, DWORD PTR _fMoveAmt$GSCopy$[ebp]
  00390	0f 5a c0	 cvtps2pd xmm0, xmm0
  00393	f2 0f 59 05 00
	00 00 00	 mulsd	 xmm0, QWORD PTR __real@0000000000000000
  0039b	f2 0f 5a c0	 cvtsd2ss xmm0, xmm0
  0039f	0f 28 d0	 movaps	 xmm2, xmm0
  003a2	0f 5a db	 cvtps2pd xmm3, xmm3
  003a5	f3 0f 5a c0	 cvtss2sd xmm0, xmm0
  003a9	f2 0f 58 d8	 addsd	 xmm3, xmm0
  003ad	0f 5a c9	 cvtps2pd xmm1, xmm1
  003b0	f2 0f 59 0d 00
	00 00 00	 mulsd	 xmm1, QWORD PTR __real@bff0000000000000
  003b8	0f 57 c0	 xorps	 xmm0, xmm0
  003bb	66 0f 5a c3	 cvtpd2ps xmm0, xmm3
  003bf	f3 0f 10 5d cc	 movss	 xmm3, DWORD PTR _vDiff$532550[ebp+4]
  003c4	0f 5a db	 cvtps2pd xmm3, xmm3
  003c7	0f 5a d2	 cvtps2pd xmm2, xmm2
  003ca	f2 0f 58 d3	 addsd	 xmm2, xmm3
  003ce	f3 0f 10 5d d0	 movss	 xmm3, DWORD PTR _vDiff$532550[ebp+8]
  003d3	f2 0f 5a c9	 cvtsd2ss xmm1, xmm1
  003d7	f3 0f 5a c9	 cvtss2sd xmm1, xmm1
  003db	0f 5a db	 cvtps2pd xmm3, xmm3
  003de	f2 0f 58 cb	 addsd	 xmm1, xmm3
  003e2	66 0f 5a d2	 cvtpd2ps xmm2, xmm2
  003e6	f2 0f 5a c9	 cvtsd2ss xmm1, xmm1
$LN100@ProcessTra:

; 1042 : 			}
; 1043 : 
; 1044 : 			fNewMapHeight = pStage->GetMapHeightNoneEntity( vDiff.x, vDiff.z, vDiff.y+fTopHeight );

  003ea	f3 0f 10 5d d8	 movss	 xmm3, DWORD PTR _fTopHeight$[ebp]
  003ef	8b 4d c0	 mov	 ecx, DWORD PTR _pStage$GSCopy$[ebp]
  003f2	f3 0f 11 55 cc	 movss	 DWORD PTR _vDiff$532550[ebp+4], xmm2
  003f7	6a 00		 push	 0
  003f9	f3 0f 5a d2	 cvtss2sd xmm2, xmm2
  003fd	83 ec 0c	 sub	 esp, 12			; 0000000cH
  00400	0f 5a db	 cvtps2pd xmm3, xmm3
  00403	f2 0f 58 d3	 addsd	 xmm2, xmm3
  00407	66 0f 5a d2	 cvtpd2ps xmm2, xmm2
  0040b	f3 0f 11 54 24
	08		 movss	 DWORD PTR [esp+8], xmm2
  00411	f3 0f 11 4c 24
	04		 movss	 DWORD PTR [esp+4], xmm1
  00417	f3 0f 11 4d d0	 movss	 DWORD PTR _vDiff$532550[ebp+8], xmm1
  0041c	f3 0f 11 45 c8	 movss	 DWORD PTR _vDiff$532550[ebp], xmm0
  00421	f3 0f 11 04 24	 movss	 DWORD PTR [esp], xmm0
  00426	e8 00 00 00 00	 call	 ?GetMapHeightNoneEntity@ioPlayStage@@QAEMMMM_N@Z ; ioPlayStage::GetMapHeightNoneEntity
  0042b	d9 5d c0	 fstp	 DWORD PTR _fNewMapHeight$532549[ebp]

; 1045 : 
; 1046 : 			if( m_fEnableTraceMoveHeight < fabs(vDiff.y - fNewMapHeight) )

  0042e	8d 45 d8	 lea	 eax, DWORD PTR _value$544990[ebp]
  00431	50		 push	 eax
  00432	8d 8b cc 07 00
	00		 lea	 ecx, DWORD PTR [ebx+1996]
  00438	e8 00 00 00 00	 call	 ?DecryptValueToPool@?$CEncrypt@M@@QAEXPAM@Z ; CEncrypt<float>::DecryptValueToPool
  0043d	d9 45 d8	 fld	 DWORD PTR _value$544990[ebp]
  00440	d9 45 cc	 fld	 DWORD PTR _vDiff$532550[ebp+4]
  00443	d8 65 c0	 fsub	 DWORD PTR _fNewMapHeight$532549[ebp]
  00446	d9 5d d8	 fstp	 DWORD PTR tv1276[ebp]
  00449	d9 45 d8	 fld	 DWORD PTR tv1276[ebp]
  0044c	d9 e1		 fabs
  0044e	d9 5d d8	 fstp	 DWORD PTR tv1272[ebp]
  00451	d9 45 d8	 fld	 DWORD PTR tv1272[ebp]
  00454	df f1		 fcomip	 ST(1)
  00456	dd d8		 fstp	 ST(0)
  00458	77 72		 ja	 SHORT $LN98@ProcessTra

; 1047 : 				return;
; 1048 : 
; 1049 : 			vPos = vDiff;
; 1050 : 			fMapHeight = fNewMapHeight;

  0045a	f3 0f 10 45 c0	 movss	 xmm0, DWORD PTR _fNewMapHeight$532549[ebp]
  0045f	8d 75 c8	 lea	 esi, DWORD PTR _vDiff$532550[ebp]
  00462	8d 7d e4	 lea	 edi, DWORD PTR _vPos$[ebp]
  00465	a5		 movsd
  00466	a5		 movsd
  00467	a5		 movsd
  00468	f3 0f 11 45 d4	 movss	 DWORD PTR _fMapHeight$[ebp], xmm0
$LN97@ProcessTra:

; 1051 : 		}
; 1052 : 	}
; 1053 : 
; 1054 : 	vPos.y = fMapHeight;

  0046d	f3 0f 10 45 d4	 movss	 xmm0, DWORD PTR _fMapHeight$[ebp]

; 1055 : 	SetWorldPosition( vPos );

  00472	8b 03		 mov	 eax, DWORD PTR [ebx]
  00474	8d 4d e4	 lea	 ecx, DWORD PTR _vPos$[ebp]
  00477	51		 push	 ecx
  00478	8b cb		 mov	 ecx, ebx
  0047a	f3 0f 11 45 e8	 movss	 DWORD PTR _vPos$[ebp+4], xmm0
  0047f	ff 50 44	 call	 DWORD PTR [eax+68]

; 1056 : 
; 1057 : 	D3DXQUATERNION qtRot;
; 1058 : 	ioMath::CalcDirectionQuaternion( qtRot, -vMoveDir );

  00482	f3 0f 10 05 00
	00 00 00	 movss	 xmm0, DWORD PTR __mask@@NegFloat@
  0048a	f3 0f 10 4d 10	 movss	 xmm1, DWORD PTR _vMoveDir$[ebp]
  0048f	0f 57 c8	 xorps	 xmm1, xmm0
  00492	f3 0f 11 4d f0	 movss	 DWORD PTR $T532568[ebp], xmm1
  00497	f3 0f 10 4d 14	 movss	 xmm1, DWORD PTR _vMoveDir$[ebp+4]
  0049c	0f 57 c8	 xorps	 xmm1, xmm0
  0049f	8d 45 f0	 lea	 eax, DWORD PTR $T532568[ebp]
  004a2	50		 push	 eax
  004a3	f3 0f 11 4d f4	 movss	 DWORD PTR $T532568[ebp+4], xmm1
  004a8	f3 0f 10 4d 18	 movss	 xmm1, DWORD PTR _vMoveDir$[ebp+8]
  004ad	8d 45 a4	 lea	 eax, DWORD PTR _qtRot$[ebp]
  004b0	0f 57 c8	 xorps	 xmm1, xmm0
  004b3	50		 push	 eax
  004b4	f3 0f 11 4d f8	 movss	 DWORD PTR $T532568[ebp+8], xmm1
  004b9	ff 15 00 00 00
	00		 call	 DWORD PTR __imp_?CalcDirectionQuaternion@ioMath@@SAXAAUD3DXQUATERNION@@ABUD3DXVECTOR3@@@Z

; 1059 : 	SetWorldOrientation( qtRot );

  004bf	8b 03		 mov	 eax, DWORD PTR [ebx]
  004c1	59		 pop	 ecx
  004c2	59		 pop	 ecx
  004c3	8d 4d a4	 lea	 ecx, DWORD PTR _qtRot$[ebp]
  004c6	51		 push	 ecx
  004c7	8b cb		 mov	 ecx, ebx
  004c9	ff 50 48	 call	 DWORD PTR [eax+72]
$LN98@ProcessTra:
  004cc	5f		 pop	 edi
  004cd	5e		 pop	 esi
$LN14@ProcessTra:

; 1060 : }

  004ce	8b 4d fc	 mov	 ecx, DWORD PTR __$ArrayPad$[ebp]
  004d1	33 cd		 xor	 ecx, ebp
  004d3	5b		 pop	 ebx
  004d4	e8 00 00 00 00	 call	 @__security_check_cookie@4
  004d9	c9		 leave
  004da	c2 18 00	 ret	 24			; 00000018H
?ProcessTraceMoving@ioTargetTrace16Dummy@@AAEXPAVioBaseChar@@PAVioPlayStage@@UD3DXVECTOR3@@M@Z ENDP ; ioTargetTrace16Dummy::ProcessTraceMoving
_TEXT	ENDS
PUBLIC	__real@4076800000000000
PUBLIC	_pOwner$GSCopy$
PUBLIC	__$ArrayPad$
PUBLIC	?ProcessTracingState@ioTargetTrace16Dummy@@AAEXPAVioBaseChar@@M@Z ; ioTargetTrace16Dummy::ProcessTracingState
EXTRN	_D3DXQuaternionRotationYawPitchRoll@16:PROC
EXTRN	__imp_?AngleGap@ioMath@@SAMMM@Z:PROC
EXTRN	__imp_?QuaterToYaw@ioMath@@SAMABUD3DXQUATERNION@@@Z:PROC
EXTRN	?FindTraceTarget@ioDummyChar@@IAEXPAVioPlayStage@@@Z:PROC ; ioDummyChar::FindTraceTarget
EXTRN	?CheckTraceTarget@ioDummyChar@@IAEXPAVioPlayStage@@@Z:PROC ; ioDummyChar::CheckTraceTarget
;	COMDAT __real@4076800000000000
; File d:\lost saga for developer\youtube\tutorial\source\src\lsclient\encryptvalue.h
CONST	SEGMENT
__real@4076800000000000 DQ 04076800000000000r	; 360
; Function compile flags: /Ogsp
; File d:\lost saga for developer\youtube\tutorial\source\src\lsclient\iotargettrace16dummy.cpp
CONST	ENDS
;	COMDAT ?ProcessTracingState@ioTargetTrace16Dummy@@AAEXPAVioBaseChar@@M@Z
_TEXT	SEGMENT
_qtNewRot$531183 = -120					; size = 16
_qtRot$531162 = -104					; size = 16
_qtRotate$531174 = -88					; size = 16
_pStage$ = -72						; size = 4
_pOwner$GSCopy$ = -68					; size = 4
_fRotateAngle$531171 = -64				; size = 4
_value$545069 = -60					; size = 4
_fTargetYaw$531179 = -60				; size = 4
_fAngleGap$531165 = -60					; size = 4
tv1018 = -56						; size = 4
tv1013 = -56						; size = 4
tv1009 = -56						; size = 4
tv954 = -56						; size = 4
tv947 = -56						; size = 4
tv938 = -56						; size = 4
tv936 = -56						; size = 4
tv870 = -56						; size = 4
_value$545131 = -56					; size = 4
_value$545103 = -56					; size = 4
_value$545076 = -56					; size = 4
_value$545072 = -56					; size = 4
_value$545049 = -56					; size = 4
$T545099 = -56						; size = 4
_fCurYaw$531178 = -56					; size = 4
_pTarget$531150 = -56					; size = 4
_vCurPos$ = -52						; size = 12
_vCurDir$ = -40						; size = 12
_vTargetDir$531159 = -28				; size = 12
_vPrePos$531153 = -28					; size = 12
$T531184 = -16						; size = 12
$T531175 = -16						; size = 12
$T531163 = -16						; size = 12
_vDiff$531154 = -16					; size = 12
$T531145 = -16						; size = 12
__$ArrayPad$ = -4					; size = 4
_pOwner$ = 8						; size = 4
_fTimerPerSec$ = 12					; size = 4
?ProcessTracingState@ioTargetTrace16Dummy@@AAEXPAVioBaseChar@@M@Z PROC ; ioTargetTrace16Dummy::ProcessTracingState, COMDAT
; _this$ = ecx

; 353  : {

  00000	55		 push	 ebp
  00001	8b ec		 mov	 ebp, esp
  00003	83 ec 78	 sub	 esp, 120		; 00000078H
  00006	a1 00 00 00 00	 mov	 eax, DWORD PTR ___security_cookie
  0000b	33 c5		 xor	 eax, ebp
  0000d	89 45 fc	 mov	 DWORD PTR __$ArrayPad$[ebp], eax
  00010	8b 45 08	 mov	 eax, DWORD PTR _pOwner$[ebp]
  00013	53		 push	 ebx
  00014	56		 push	 esi
  00015	57		 push	 edi
  00016	8b d9		 mov	 ebx, ecx

; 446  : 		}
; 447  : 	}
; 448  : 	else
; 449  : 	{
; 450  : 		SetSensingState();

  00018	89 45 bc	 mov	 DWORD PTR _pOwner$GSCopy$[ebp], eax
  0001b	85 c0		 test	 eax, eax
  0001d	0f 84 bb 04 00
	00		 je	 $LN16@ProcessTra@2

; 354  : 	if( !pOwner ) 
; 355  : 		return;
; 356  : 
; 357  : 	ioPlayStage *pStage = pOwner->GetCreator();

  00023	8b b8 44 03 00
	00		 mov	 edi, DWORD PTR [eax+836]
  00029	89 7d b8	 mov	 DWORD PTR _pStage$[ebp], edi

; 358  : 	if( !pStage ) 

  0002c	85 ff		 test	 edi, edi
  0002e	0f 84 aa 04 00
	00		 je	 $LN16@ProcessTra@2

; 359  : 		return;
; 360  : 
; 361  : 	DWORD dwCurTime = FRAMEGETTIME();

  00034	ff 15 00 00 00
	00		 call	 DWORD PTR __imp_?GetSingleton@ioFrameTimer@@SAAAV1@XZ
  0003a	8b c8		 mov	 ecx, eax
  0003c	ff 15 00 00 00
	00		 call	 DWORD PTR __imp_?GetLoopSec@ioFrameTimer@@QBEKXZ

; 362  : 
; 363  : 	D3DXVECTOR3 vCurDir = GetWorldOrientation() * D3DXVECTOR3( 0.0f, 0.0f, -1.0f );

  00042	0f 57 c0	 xorps	 xmm0, xmm0
  00045	8b f0		 mov	 esi, eax
  00047	8d 45 f0	 lea	 eax, DWORD PTR $T531145[ebp]
  0004a	f3 0f 11 45 f0	 movss	 DWORD PTR $T531145[ebp], xmm0
  0004f	f3 0f 11 45 f4	 movss	 DWORD PTR $T531145[ebp+4], xmm0
  00054	f3 0f 10 05 00
	00 00 00	 movss	 xmm0, DWORD PTR __real@bf800000
  0005c	50		 push	 eax
  0005d	8b 03		 mov	 eax, DWORD PTR [ebx]
  0005f	8b cb		 mov	 ecx, ebx
  00061	f3 0f 11 45 f8	 movss	 DWORD PTR $T531145[ebp+8], xmm0
  00066	ff 50 74	 call	 DWORD PTR [eax+116]
  00069	50		 push	 eax
  0006a	8d 45 d8	 lea	 eax, DWORD PTR _vCurDir$[ebp]
  0006d	50		 push	 eax
  0006e	ff 15 00 00 00
	00		 call	 DWORD PTR __imp_??D@YA?AUD3DXVECTOR3@@ABUD3DXQUATERNION@@ABU0@@Z
  00074	83 c4 0c	 add	 esp, 12			; 0000000cH

; 364  : 	D3DXVec3Normalize( &vCurDir, &vCurDir );

  00077	8d 45 d8	 lea	 eax, DWORD PTR _vCurDir$[ebp]
  0007a	50		 push	 eax
  0007b	50		 push	 eax
  0007c	e8 00 00 00 00	 call	 _D3DXVec3Normalize@8

; 365  : 
; 366  : 	D3DXVECTOR3 vCurPos = GetMidPositionByRate();

  00081	b8 05 00 00 00	 mov	 eax, 5
  00086	8b c8		 mov	 ecx, eax
  00088	b8 0a 00 00 00	 mov	 eax, 10			; 0000000aH
  0008d	89 4d c8	 mov	 DWORD PTR tv1018[ebp], ecx
  00090	db 45 c8	 fild	 DWORD PTR tv1018[ebp]
  00093	85 c9		 test	 ecx, ecx
  00095	79 06		 jns	 SHORT $LN67@ProcessTra@2
  00097	d8 05 00 00 00
	00		 fadd	 DWORD PTR __real@4f800000
$LN67@ProcessTra@2:
  0009d	89 45 c8	 mov	 DWORD PTR tv1013[ebp], eax
  000a0	db 45 c8	 fild	 DWORD PTR tv1013[ebp]
  000a3	85 c0		 test	 eax, eax
  000a5	79 06		 jns	 SHORT $LN68@ProcessTra@2
  000a7	d8 05 00 00 00
	00		 fadd	 DWORD PTR __real@4f800000
$LN68@ProcessTra@2:
  000ad	de f9		 fdivp	 ST(1), ST(0)
  000af	51		 push	 ecx
  000b0	8d 45 cc	 lea	 eax, DWORD PTR _vCurPos$[ebp]
  000b3	8b cb		 mov	 ecx, ebx
  000b5	d9 5d c8	 fstp	 DWORD PTR tv1009[ebp]
  000b8	d9 45 c8	 fld	 DWORD PTR tv1009[ebp]
  000bb	d9 1c 24	 fstp	 DWORD PTR [esp]
  000be	50		 push	 eax
  000bf	e8 00 00 00 00	 call	 ?GetMidPositionByRate@ioGameEntity@@QBE?AUD3DXVECTOR3@@M@Z ; ioGameEntity::GetMidPositionByRate

; 367  : 
; 368  : 	if( m_dwTracingEndTime > dwCurTime )

  000c4	8d 45 c8	 lea	 eax, DWORD PTR _value$545049[ebp]
  000c7	50		 push	 eax
  000c8	8d 8b a8 0a 00
	00		 lea	 ecx, DWORD PTR [ebx+2728]
  000ce	e8 00 00 00 00	 call	 ?DecryptValueToPool@?$CEncrypt@K@@QAEXPAK@Z ; CEncrypt<unsigned long>::DecryptValueToPool

; 369  : 	{
; 370  : 		CheckTraceTarget( pStage );

  000d3	8b cb		 mov	 ecx, ebx
  000d5	39 75 c8	 cmp	 DWORD PTR _value$545049[ebp], esi
  000d8	0f 86 fb 03 00
	00		 jbe	 $LN13@ProcessTra@2
  000de	57		 push	 edi
  000df	e8 00 00 00 00	 call	 ?CheckTraceTarget@ioDummyChar@@IAEXPAVioPlayStage@@@Z ; ioDummyChar::CheckTraceTarget

; 371  : 		FindTraceTarget( pStage );

  000e4	57		 push	 edi
  000e5	8b cb		 mov	 ecx, ebx
  000e7	e8 00 00 00 00	 call	 ?FindTraceTarget@ioDummyChar@@IAEXPAVioPlayStage@@@Z ; ioDummyChar::FindTraceTarget

; 372  : 
; 373  : 		ioBaseChar *pTarget = pStage->GetBaseChar( m_TargetTraceName );		

  000ec	8d b3 d8 0a 00
	00		 lea	 esi, DWORD PTR [ebx+2776]
  000f2	56		 push	 esi
  000f3	8b cf		 mov	 ecx, edi
  000f5	e8 00 00 00 00	 call	 ?GetBaseChar@ioPlayStage@@QAEPAVioBaseChar@@ABVioHashString@@@Z ; ioPlayStage::GetBaseChar

; 374  : 		if( !IsTargetWoundedState( pTarget ) )

  000fa	50		 push	 eax
  000fb	8b cb		 mov	 ecx, ebx
  000fd	89 45 c8	 mov	 DWORD PTR _pTarget$531150[ebp], eax
  00100	e8 00 00 00 00	 call	 ?IsTargetWoundedState@ioDummyChar@@QAE_NPAVioBaseChar@@@Z ; ioDummyChar::IsTargetWoundedState
  00105	84 c0		 test	 al, al
  00107	75 0f		 jne	 SHORT $LN12@ProcessTra@2

; 375  : 		{
; 376  : 			SetTraceWaitState( pOwner );

  00109	ff 75 bc	 push	 DWORD PTR _pOwner$GSCopy$[ebp]
  0010c	8b cb		 mov	 ecx, ebx
  0010e	e8 00 00 00 00	 call	 ?SetTraceWaitState@ioTargetTrace16Dummy@@AAEXPAVioBaseChar@@@Z ; ioTargetTrace16Dummy::SetTraceWaitState

; 377  : 			return;

  00113	e9 c6 03 00 00	 jmp	 $LN16@ProcessTra@2
$LN12@ProcessTra@2:

; 378  : 		}
; 379  : 
; 380  : 		if( pTarget )

  00118	83 7d c8 00	 cmp	 DWORD PTR _pTarget$531150[ebp], 0
  0011c	0f 84 65 03 00
	00		 je	 $LN11@ProcessTra@2

; 381  : 		{
; 382  : 			D3DXVECTOR3 vPrePos = GetWorldPosition();

  00122	8b 03		 mov	 eax, DWORD PTR [ebx]
  00124	8b cb		 mov	 ecx, ebx
  00126	ff 50 70	 call	 DWORD PTR [eax+112]

; 383  : 			D3DXVECTOR3 vDiff = pTarget->GetWorldPosition() - vPrePos;

  00129	8b 4d c8	 mov	 ecx, DWORD PTR _pTarget$531150[ebp]
  0012c	8b f0		 mov	 esi, eax
  0012e	8b 01		 mov	 eax, DWORD PTR [ecx]
  00130	8d 7d e4	 lea	 edi, DWORD PTR _vPrePos$531153[ebp]
  00133	a5		 movsd
  00134	a5		 movsd
  00135	a5		 movsd
  00136	ff 50 70	 call	 DWORD PTR [eax+112]
  00139	f3 0f 10 00	 movss	 xmm0, DWORD PTR [eax]
  0013d	f3 0f 10 4d e4	 movss	 xmm1, DWORD PTR _vPrePos$531153[ebp]
  00142	0f 5a c0	 cvtps2pd xmm0, xmm0
  00145	0f 5a c9	 cvtps2pd xmm1, xmm1
  00148	f2 0f 5c c1	 subsd	 xmm0, xmm1
  0014c	f3 0f 10 4d e8	 movss	 xmm1, DWORD PTR _vPrePos$531153[ebp+4]
  00151	66 0f 5a c0	 cvtpd2ps xmm0, xmm0
  00155	f3 0f 11 45 f0	 movss	 DWORD PTR _vDiff$531154[ebp], xmm0
  0015a	f3 0f 10 40 04	 movss	 xmm0, DWORD PTR [eax+4]
  0015f	0f 5a c0	 cvtps2pd xmm0, xmm0
  00162	0f 5a c9	 cvtps2pd xmm1, xmm1
  00165	f2 0f 5c c1	 subsd	 xmm0, xmm1
  00169	f3 0f 10 4d ec	 movss	 xmm1, DWORD PTR _vPrePos$531153[ebp+8]
  0016e	66 0f 5a c0	 cvtpd2ps xmm0, xmm0
  00172	f3 0f 11 45 f4	 movss	 DWORD PTR _vDiff$531154[ebp+4], xmm0
  00177	f3 0f 10 40 08	 movss	 xmm0, DWORD PTR [eax+8]
  0017c	0f 5a c0	 cvtps2pd xmm0, xmm0
  0017f	0f 5a c9	 cvtps2pd xmm1, xmm1

; 384  : 
; 385  : 			float fRangeSq = D3DXVec3LengthSq( & vDiff );
; 386  : 			if( fRangeSq < m_fTraceRange * m_fTraceRange )

  00182	8d 45 c4	 lea	 eax, DWORD PTR _value$545069[ebp]
  00185	f2 0f 5c c1	 subsd	 xmm0, xmm1
  00189	66 0f 5a c0	 cvtpd2ps xmm0, xmm0
  0018d	50		 push	 eax
  0018e	8d 8b 1c 09 00
	00		 lea	 ecx, DWORD PTR [ebx+2332]
  00194	f3 0f 11 45 f8	 movss	 DWORD PTR _vDiff$531154[ebp+8], xmm0
  00199	e8 00 00 00 00	 call	 ?DecryptValueToPool@?$CEncrypt@M@@QAEXPAM@Z ; CEncrypt<float>::DecryptValueToPool
  0019e	8d 45 c8	 lea	 eax, DWORD PTR _value$545072[ebp]
  001a1	50		 push	 eax
  001a2	8d 8b 1c 09 00
	00		 lea	 ecx, DWORD PTR [ebx+2332]
  001a8	e8 00 00 00 00	 call	 ?DecryptValueToPool@?$CEncrypt@M@@QAEXPAM@Z ; CEncrypt<float>::DecryptValueToPool
  001ad	f3 0f 10 45 f0	 movss	 xmm0, DWORD PTR _vDiff$531154[ebp]
  001b2	f3 0f 10 4d f4	 movss	 xmm1, DWORD PTR _vDiff$531154[ebp+4]
  001b7	f3 0f 10 55 f8	 movss	 xmm2, DWORD PTR _vDiff$531154[ebp+8]
  001bc	0f 5a c9	 cvtps2pd xmm1, xmm1
  001bf	f2 0f 59 c9	 mulsd	 xmm1, xmm1
  001c3	0f 5a c0	 cvtps2pd xmm0, xmm0
  001c6	f2 0f 59 c0	 mulsd	 xmm0, xmm0
  001ca	f2 0f 58 c8	 addsd	 xmm1, xmm0
  001ce	0f 5a d2	 cvtps2pd xmm2, xmm2
  001d1	f2 0f 59 d2	 mulsd	 xmm2, xmm2
  001d5	f2 0f 58 ca	 addsd	 xmm1, xmm2
  001d9	f3 0f 10 55 c4	 movss	 xmm2, DWORD PTR _value$545069[ebp]
  001de	0f 57 c0	 xorps	 xmm0, xmm0
  001e1	f2 0f 5a c1	 cvtsd2ss xmm0, xmm1
  001e5	f3 0f 10 4d c8	 movss	 xmm1, DWORD PTR _value$545072[ebp]
  001ea	0f 5a c9	 cvtps2pd xmm1, xmm1
  001ed	0f 5a d2	 cvtps2pd xmm2, xmm2
  001f0	f2 0f 59 ca	 mulsd	 xmm1, xmm2
  001f4	66 0f 5a c9	 cvtpd2ps xmm1, xmm1
  001f8	0f 5a c0	 cvtps2pd xmm0, xmm0
  001fb	f3 0f 5a c9	 cvtss2sd xmm1, xmm1
  001ff	66 0f 2f c8	 comisd	 xmm1, xmm0
  00203	0f 86 86 02 00
	00		 jbe	 $LN2@ProcessTra@2

; 387  : 			{
; 388  : 				D3DXVECTOR3 vTargetDir = vDiff;
; 389  : 				vTargetDir.y = 0;

  00209	0f 57 c0	 xorps	 xmm0, xmm0
  0020c	8d 75 f0	 lea	 esi, DWORD PTR _vDiff$531154[ebp]
  0020f	8d 7d e4	 lea	 edi, DWORD PTR _vTargetDir$531159[ebp]
  00212	a5		 movsd
  00213	a5		 movsd

; 390  : 				D3DXVec3Normalize( &vTargetDir, &vTargetDir );

  00214	8d 45 e4	 lea	 eax, DWORD PTR _vTargetDir$531159[ebp]
  00217	50		 push	 eax
  00218	a5		 movsd
  00219	50		 push	 eax
  0021a	f3 0f 11 45 e8	 movss	 DWORD PTR _vTargetDir$531159[ebp+4], xmm0
  0021f	e8 00 00 00 00	 call	 _D3DXVec3Normalize@8

; 391  : 
; 392  : 				if( m_dwRotateSpeed > 0 )

  00224	8d 45 c8	 lea	 eax, DWORD PTR _value$545076[ebp]
  00227	8d 8b 9c 07 00
	00		 lea	 ecx, DWORD PTR [ebx+1948]
  0022d	50		 push	 eax
  0022e	e8 00 00 00 00	 call	 ?DecryptValueToPool@?$CEncrypt@K@@QAEXPAK@Z ; CEncrypt<unsigned long>::DecryptValueToPool
  00233	83 7d c8 00	 cmp	 DWORD PTR _value$545076[ebp], 0
  00237	0f 86 3c 02 00
	00		 jbe	 $LN9@ProcessTra@2

; 393  : 				{
; 394  : 					D3DXQUATERNION	qtRot;
; 395  : 					ioMath::CalcDirectionQuaternion( qtRot, -vTargetDir );

  0023d	f3 0f 10 05 00
	00 00 00	 movss	 xmm0, DWORD PTR __mask@@NegFloat@
  00245	f3 0f 10 4d e4	 movss	 xmm1, DWORD PTR _vTargetDir$531159[ebp]
  0024a	8b 35 00 00 00
	00		 mov	 esi, DWORD PTR __imp_?CalcDirectionQuaternion@ioMath@@SAXAAUD3DXQUATERNION@@ABUD3DXVECTOR3@@@Z
  00250	0f 57 c8	 xorps	 xmm1, xmm0
  00253	f3 0f 11 4d f0	 movss	 DWORD PTR $T531163[ebp], xmm1
  00258	f3 0f 10 4d e8	 movss	 xmm1, DWORD PTR _vTargetDir$531159[ebp+4]
  0025d	0f 57 c8	 xorps	 xmm1, xmm0
  00260	8d 45 f0	 lea	 eax, DWORD PTR $T531163[ebp]
  00263	50		 push	 eax
  00264	f3 0f 11 4d f4	 movss	 DWORD PTR $T531163[ebp+4], xmm1
  00269	f3 0f 10 4d ec	 movss	 xmm1, DWORD PTR _vTargetDir$531159[ebp+8]
  0026e	8d 45 98	 lea	 eax, DWORD PTR _qtRot$531162[ebp]
  00271	0f 57 c8	 xorps	 xmm1, xmm0
  00274	50		 push	 eax
  00275	f3 0f 11 4d f8	 movss	 DWORD PTR $T531163[ebp+8], xmm1
  0027a	ff d6		 call	 esi

; 396  : 
; 397  : 					float fAngle = D3DXVec3Dot( &vTargetDir, &m_vTracingMoveDir );

  0027c	8d bb 6c 0a 00
	00		 lea	 edi, DWORD PTR [ebx+2668]

; 398  : 
; 399  : 					float fAngleGap = RADtoDEG( acosf(fAngle) );

  00282	d9 47 04	 fld	 DWORD PTR [edi+4]
  00285	59		 pop	 ecx
  00286	d8 4d e8	 fmul	 DWORD PTR _vTargetDir$531159[ebp+4]
  00289	59		 pop	 ecx
  0028a	d9 07		 fld	 DWORD PTR [edi]
  0028c	d8 4d e4	 fmul	 DWORD PTR _vTargetDir$531159[ebp]
  0028f	de c1		 faddp	 ST(1), ST(0)
  00291	d9 47 08	 fld	 DWORD PTR [edi+8]
  00294	d8 4d ec	 fmul	 DWORD PTR _vTargetDir$531159[ebp+8]
  00297	de c1		 faddp	 ST(1), ST(0)
  00299	d9 5d c8	 fstp	 DWORD PTR tv954[ebp]
  0029c	d9 45 c8	 fld	 DWORD PTR tv954[ebp]
  0029f	e8 00 00 00 00	 call	 __CIacos
  002a4	d9 5d c8	 fstp	 DWORD PTR tv947[ebp]
  002a7	d9 45 c8	 fld	 DWORD PTR tv947[ebp]
  002aa	51		 push	 ecx
  002ab	d9 5d c8	 fstp	 DWORD PTR $T545099[ebp]
  002ae	f3 0f 10 45 c8	 movss	 xmm0, DWORD PTR $T545099[ebp]
  002b3	f3 0f 11 04 24	 movss	 DWORD PTR [esp], xmm0
  002b8	e8 00 00 00 00	 call	 ??$RADtoDEG@M@@YAMM@Z	; RADtoDEG<float>
  002bd	d9 5d c4	 fstp	 DWORD PTR _fAngleGap$531165[ebp]
  002c0	59		 pop	 ecx

; 400  : 					float fRate = (fTimerPerSec*1000) / m_dwRotateSpeed;

  002c1	8d 45 c8	 lea	 eax, DWORD PTR _value$545103[ebp]
  002c4	50		 push	 eax
  002c5	8d 8b 9c 07 00
	00		 lea	 ecx, DWORD PTR [ebx+1948]
  002cb	e8 00 00 00 00	 call	 ?DecryptValueToPool@?$CEncrypt@K@@QAEXPAK@Z ; CEncrypt<unsigned long>::DecryptValueToPool

; 401  : 					float fRotateAngle = 360.0f * fRate;

  002d0	d9 45 0c	 fld	 DWORD PTR _fTimerPerSec$[ebp]
  002d3	8b 45 c8	 mov	 eax, DWORD PTR _value$545103[ebp]
  002d6	dc 0d 00 00 00
	00		 fmul	 QWORD PTR __real@408f400000000000
  002dc	db 45 c8	 fild	 DWORD PTR _value$545103[ebp]
  002df	85 c0		 test	 eax, eax
  002e1	79 06		 jns	 SHORT $LN69@ProcessTra@2
  002e3	d8 05 00 00 00
	00		 fadd	 DWORD PTR __real@4f800000
$LN69@ProcessTra@2:

; 400  : 					float fRate = (fTimerPerSec*1000) / m_dwRotateSpeed;

  002e9	de f9		 fdivp	 ST(1), ST(0)

; 401  : 					float fRotateAngle = 360.0f * fRate;

  002eb	d9 5d c8	 fstp	 DWORD PTR tv936[ebp]
  002ee	d9 45 c8	 fld	 DWORD PTR tv936[ebp]
  002f1	dc 0d 00 00 00
	00		 fmul	 QWORD PTR __real@4076800000000000
  002f7	d9 5d c0	 fstp	 DWORD PTR _fRotateAngle$531171[ebp]

; 402  : 
; 403  : 					if( fAngleGap < fRotateAngle )

  002fa	d9 45 c4	 fld	 DWORD PTR _fAngleGap$531165[ebp]
  002fd	d9 45 c0	 fld	 DWORD PTR _fRotateAngle$531171[ebp]
  00300	df f1		 fcomip	 ST(1)
  00302	dd d8		 fstp	 ST(0)

; 404  : 					{
; 405  : 						m_vTracingMoveDir = vTargetDir;
; 406  : 					}
; 407  : 					else

  00304	0f 87 75 01 00
	00		 ja	 $LN71@ProcessTra@2

; 408  : 					{
; 409  : 						D3DXQUATERNION qtRotate;
; 410  : 						ioMath::CalcDirectionQuaternion( qtRotate, -m_vTracingMoveDir );

  0030a	f3 0f 10 05 00
	00 00 00	 movss	 xmm0, DWORD PTR __mask@@NegFloat@
  00312	f3 0f 10 0f	 movss	 xmm1, DWORD PTR [edi]
  00316	0f 57 c8	 xorps	 xmm1, xmm0
  00319	f3 0f 11 4d f0	 movss	 DWORD PTR $T531175[ebp], xmm1
  0031e	f3 0f 10 4f 04	 movss	 xmm1, DWORD PTR [edi+4]
  00323	0f 57 c8	 xorps	 xmm1, xmm0
  00326	8d 45 f0	 lea	 eax, DWORD PTR $T531175[ebp]
  00329	50		 push	 eax
  0032a	f3 0f 11 4d f4	 movss	 DWORD PTR $T531175[ebp+4], xmm1
  0032f	f3 0f 10 4f 08	 movss	 xmm1, DWORD PTR [edi+8]
  00334	8d 45 a8	 lea	 eax, DWORD PTR _qtRotate$531174[ebp]
  00337	0f 57 c8	 xorps	 xmm1, xmm0
  0033a	50		 push	 eax
  0033b	f3 0f 11 4d f8	 movss	 DWORD PTR $T531175[ebp+8], xmm1
  00340	ff d6		 call	 esi

; 411  : 
; 412  : 						bool bLeftRot = false;
; 413  : 						if( D3DXVec3Dot( &vTargetDir, &m_vTracingMoveDir ) > -1.0f )

  00342	f3 0f 10 47 04	 movss	 xmm0, DWORD PTR [edi+4]
  00347	f3 0f 10 4d e8	 movss	 xmm1, DWORD PTR _vTargetDir$531159[ebp+4]
  0034c	f3 0f 10 55 e4	 movss	 xmm2, DWORD PTR _vTargetDir$531159[ebp]
  00351	0f 5a c9	 cvtps2pd xmm1, xmm1
  00354	0f 5a c0	 cvtps2pd xmm0, xmm0
  00357	f2 0f 59 c1	 mulsd	 xmm0, xmm1
  0035b	f3 0f 10 0f	 movss	 xmm1, DWORD PTR [edi]
  0035f	0f 5a c9	 cvtps2pd xmm1, xmm1
  00362	0f 5a d2	 cvtps2pd xmm2, xmm2
  00365	f2 0f 59 ca	 mulsd	 xmm1, xmm2
  00369	f3 0f 10 55 ec	 movss	 xmm2, DWORD PTR _vTargetDir$531159[ebp+8]
  0036e	f2 0f 58 c1	 addsd	 xmm0, xmm1
  00372	f3 0f 10 4f 08	 movss	 xmm1, DWORD PTR [edi+8]
  00377	0f 5a c9	 cvtps2pd xmm1, xmm1
  0037a	0f 5a d2	 cvtps2pd xmm2, xmm2
  0037d	f2 0f 59 ca	 mulsd	 xmm1, xmm2
  00381	f2 0f 58 c1	 addsd	 xmm0, xmm1
  00385	59		 pop	 ecx
  00386	66 0f 5a c0	 cvtpd2ps xmm0, xmm0
  0038a	0f 2f 05 00 00
	00 00		 comiss	 xmm0, DWORD PTR __real@bf800000
  00391	59		 pop	 ecx
  00392	0f 86 8c 00 00
	00		 jbe	 $LN66@ProcessTra@2

; 414  : 						{
; 415  : 							float fCurYaw, fTargetYaw;
; 416  : 							fCurYaw = RADtoDEG( ioMath::QuaterToYaw( qtRotate ) );

  00398	8d 45 a8	 lea	 eax, DWORD PTR _qtRotate$531174[ebp]
  0039b	50		 push	 eax
  0039c	ff 15 00 00 00
	00		 call	 DWORD PTR __imp_?QuaterToYaw@ioMath@@SAMABUD3DXQUATERNION@@@Z
  003a2	d9 1c 24	 fstp	 DWORD PTR [esp]
  003a5	e8 00 00 00 00	 call	 ??$RADtoDEG@M@@YAMM@Z	; RADtoDEG<float>
  003aa	d9 5d c8	 fstp	 DWORD PTR _fCurYaw$531178[ebp]

; 417  : 							fTargetYaw = RADtoDEG( ioMath::QuaterToYaw( qtRot ) );

  003ad	8d 45 98	 lea	 eax, DWORD PTR _qtRot$531162[ebp]
  003b0	50		 push	 eax
  003b1	ff 15 00 00 00
	00		 call	 DWORD PTR __imp_?QuaterToYaw@ioMath@@SAMABUD3DXQUATERNION@@@Z
  003b7	59		 pop	 ecx
  003b8	d9 1c 24	 fstp	 DWORD PTR [esp]
  003bb	e8 00 00 00 00	 call	 ??$RADtoDEG@M@@YAMM@Z	; RADtoDEG<float>

; 418  : 
; 419  : 							fCurYaw = ioMath::ArrangeHead( fCurYaw );

  003c0	f3 0f 10 45 c8	 movss	 xmm0, DWORD PTR _fCurYaw$531178[ebp]
  003c5	d9 5d c4	 fstp	 DWORD PTR _fTargetYaw$531179[ebp]
  003c8	f3 0f 11 04 24	 movss	 DWORD PTR [esp], xmm0
  003cd	ff 15 00 00 00
	00		 call	 DWORD PTR __imp_?ArrangeHead@ioMath@@SAMM@Z
  003d3	d9 5d c8	 fstp	 DWORD PTR _fCurYaw$531178[ebp]

; 420  : 							fTargetYaw = ioMath::ArrangeHead( fTargetYaw );

  003d6	f3 0f 10 45 c4	 movss	 xmm0, DWORD PTR _fTargetYaw$531179[ebp]
  003db	f3 0f 11 04 24	 movss	 DWORD PTR [esp], xmm0
  003e0	ff 15 00 00 00
	00		 call	 DWORD PTR __imp_?ArrangeHead@ioMath@@SAMM@Z
  003e6	d9 5d c4	 fstp	 DWORD PTR _fTargetYaw$531179[ebp]

; 421  : 
; 422  : 							float fRotAngle = ioMath::AngleGap( fCurYaw, fTargetYaw );

  003e9	f3 0f 10 45 c4	 movss	 xmm0, DWORD PTR _fTargetYaw$531179[ebp]
  003ee	f3 0f 11 04 24	 movss	 DWORD PTR [esp], xmm0
  003f3	f3 0f 10 45 c8	 movss	 xmm0, DWORD PTR _fCurYaw$531178[ebp]
  003f8	51		 push	 ecx
  003f9	f3 0f 11 04 24	 movss	 DWORD PTR [esp], xmm0
  003fe	ff 15 00 00 00
	00		 call	 DWORD PTR __imp_?AngleGap@ioMath@@SAMMM@Z

; 423  : 							if( fRotAngle < 0.0f )

  00404	d9 ee		 fldz
  00406	59		 pop	 ecx
  00407	df f1		 fcomip	 ST(1)
  00409	dd d8		 fstp	 ST(0)
  0040b	59		 pop	 ecx
  0040c	76 16		 jbe	 SHORT $LN66@ProcessTra@2

; 424  : 								bLeftRot = true;
; 425  : 						}
; 426  : 
; 427  : 						if( bLeftRot )
; 428  : 							fRotateAngle *= -1;

  0040e	f3 0f 10 45 c0	 movss	 xmm0, DWORD PTR _fRotateAngle$531171[ebp]
  00413	0f 5a c0	 cvtps2pd xmm0, xmm0
  00416	f2 0f 59 05 00
	00 00 00	 mulsd	 xmm0, QWORD PTR __real@bff0000000000000
  0041e	66 0f 5a c0	 cvtpd2ps xmm0, xmm0
  00422	eb 05		 jmp	 SHORT $LN4@ProcessTra@2
$LN66@ProcessTra@2:
  00424	f3 0f 10 45 c0	 movss	 xmm0, DWORD PTR _fRotateAngle$531171[ebp]
$LN4@ProcessTra@2:

; 429  : 
; 430  : 						fRotateAngle = ioMath::ArrangeHead( fRotateAngle );

  00429	51		 push	 ecx
  0042a	f3 0f 11 04 24	 movss	 DWORD PTR [esp], xmm0
  0042f	ff 15 00 00 00
	00		 call	 DWORD PTR __imp_?ArrangeHead@ioMath@@SAMM@Z
  00435	d9 5d c0	 fstp	 DWORD PTR _fRotateAngle$531171[ebp]

; 431  : 
; 432  : 						D3DXQUATERNION	qtNewRot;
; 433  : 						D3DXQuaternionRotationYawPitchRoll( &qtNewRot, DEGtoRAD(fRotateAngle), 0.0f, 0.0f );

  00438	0f 57 c0	 xorps	 xmm0, xmm0
  0043b	d9 45 c0	 fld	 DWORD PTR _fRotateAngle$531171[ebp]
  0043e	dc 0d 00 00 00
	00		 fmul	 QWORD PTR __real@3f91df46a2526c7a
  00444	f3 0f 11 04 24	 movss	 DWORD PTR [esp], xmm0
  00449	51		 push	 ecx
  0044a	51		 push	 ecx
  0044b	d9 5d c8	 fstp	 DWORD PTR tv870[ebp]
  0044e	f3 0f 11 44 24
	04		 movss	 DWORD PTR [esp+4], xmm0
  00454	d9 45 c8	 fld	 DWORD PTR tv870[ebp]
  00457	8d 45 88	 lea	 eax, DWORD PTR _qtNewRot$531183[ebp]
  0045a	d9 1c 24	 fstp	 DWORD PTR [esp]
  0045d	50		 push	 eax
  0045e	e8 00 00 00 00	 call	 _D3DXQuaternionRotationYawPitchRoll@16

; 434  : 						m_vTracingMoveDir = qtNewRot * m_vTracingMoveDir;

  00463	57		 push	 edi
  00464	8d 45 88	 lea	 eax, DWORD PTR _qtNewRot$531183[ebp]
  00467	50		 push	 eax
  00468	8d 45 f0	 lea	 eax, DWORD PTR $T531184[ebp]
  0046b	50		 push	 eax
  0046c	ff 15 00 00 00
	00		 call	 DWORD PTR __imp_??D@YA?AUD3DXVECTOR3@@ABUD3DXQUATERNION@@ABU0@@Z
  00472	83 c4 0c	 add	 esp, 12			; 0000000cH
  00475	8b f0		 mov	 esi, eax

; 435  : 					}
; 436  : 				}
; 437  : 				else

  00477	eb 09		 jmp	 SHORT $LN70@ProcessTra@2
$LN9@ProcessTra@2:

; 438  : 				{
; 439  : 					m_vTracingMoveDir = vTargetDir;

  00479	8d bb 6c 0a 00
	00		 lea	 edi, DWORD PTR [ebx+2668]
$LN71@ProcessTra@2:
  0047f	8d 75 e4	 lea	 esi, DWORD PTR _vTargetDir$531159[ebp]
$LN70@ProcessTra@2:
  00482	a5		 movsd
  00483	a5		 movsd
  00484	a5		 movsd

; 440  : 				}
; 441  : 			}
; 442  : 		}
; 443  : 		else

  00485	eb 08		 jmp	 SHORT $LN2@ProcessTra@2
$LN11@ProcessTra@2:

; 444  : 		{
; 445  : 			m_TargetTraceName.Clear();

  00487	8b ce		 mov	 ecx, esi
  00489	ff 15 00 00 00
	00		 call	 DWORD PTR __imp_?Clear@ioHashString@@QAEXXZ
$LN2@ProcessTra@2:

; 451  : 		return;
; 452  : 	}
; 453  : 
; 454  : 	float fMoveDist = m_fTraceSpeed * fTimerPerSec;

  0048f	8d 45 c8	 lea	 eax, DWORD PTR _value$545131[ebp]
  00492	50		 push	 eax
  00493	8d 8b ec 08 00
	00		 lea	 ecx, DWORD PTR [ebx+2284]
  00499	e8 00 00 00 00	 call	 ?DecryptValueToPool@?$CEncrypt@M@@QAEXPAM@Z ; CEncrypt<float>::DecryptValueToPool

; 455  : 	ProcessTraceMoving( pOwner, pStage, m_vTracingMoveDir, fMoveDist );

  0049e	f3 0f 10 45 c8	 movss	 xmm0, DWORD PTR _value$545131[ebp]
  004a3	f3 0f 10 4d 0c	 movss	 xmm1, DWORD PTR _fTimerPerSec$[ebp]
  004a8	83 ec 10	 sub	 esp, 16			; 00000010H
  004ab	0f 5a c0	 cvtps2pd xmm0, xmm0
  004ae	0f 5a c9	 cvtps2pd xmm1, xmm1
  004b1	8b fc		 mov	 edi, esp
  004b3	f2 0f 59 c1	 mulsd	 xmm0, xmm1
  004b7	66 0f 5a c0	 cvtpd2ps xmm0, xmm0
  004bb	f3 0f 11 44 24
	0c		 movss	 DWORD PTR [esp+12], xmm0
  004c1	ff 75 b8	 push	 DWORD PTR _pStage$[ebp]
  004c4	8d b3 6c 0a 00
	00		 lea	 esi, DWORD PTR [ebx+2668]
  004ca	ff 75 bc	 push	 DWORD PTR _pOwner$GSCopy$[ebp]
  004cd	a5		 movsd
  004ce	a5		 movsd
  004cf	8b cb		 mov	 ecx, ebx
  004d1	a5		 movsd
  004d2	e8 00 00 00 00	 call	 ?ProcessTraceMoving@ioTargetTrace16Dummy@@AAEXPAVioBaseChar@@PAVioPlayStage@@UD3DXVECTOR3@@M@Z ; ioTargetTrace16Dummy::ProcessTraceMoving
  004d7	eb 05		 jmp	 SHORT $LN16@ProcessTra@2
$LN13@ProcessTra@2:

; 446  : 		}
; 447  : 	}
; 448  : 	else
; 449  : 	{
; 450  : 		SetSensingState();

  004d9	e8 00 00 00 00	 call	 ?SetSensingState@ioTargetTrace16Dummy@@AAEXXZ ; ioTargetTrace16Dummy::SetSensingState
$LN16@ProcessTra@2:

; 456  : }

  004de	8b 4d fc	 mov	 ecx, DWORD PTR __$ArrayPad$[ebp]
  004e1	5f		 pop	 edi
  004e2	5e		 pop	 esi
  004e3	33 cd		 xor	 ecx, ebp
  004e5	5b		 pop	 ebx
  004e6	e8 00 00 00 00	 call	 @__security_check_cookie@4
  004eb	c9		 leave
  004ec	c2 08 00	 ret	 8
?ProcessTracingState@ioTargetTrace16Dummy@@AAEXPAVioBaseChar@@M@Z ENDP ; ioTargetTrace16Dummy::ProcessTracingState
_TEXT	ENDS
PUBLIC	_pOwner$GSCopy$
PUBLIC	__$ArrayPad$
PUBLIC	?CheckTraceAttack@ioTargetTrace16Dummy@@AAEXPAVioBaseChar@@@Z ; ioTargetTrace16Dummy::CheckTraceAttack
; Function compile flags: /Ogsp
;	COMDAT ?CheckTraceAttack@ioTargetTrace16Dummy@@AAEXPAVioBaseChar@@@Z
_TEXT	SEGMENT
_qtRot$531211 = -88					; size = 16
_value$545189 = -72					; size = 4
_pOwner$GSCopy$ = -68					; size = 4
_fRangeSq$531219 = -64					; size = 4
_fHalfValue$531208 = -64				; size = 4
tv537 = -60						; size = 4
tv531 = -60						; size = 4
_value$545192 = -60					; size = 4
_value$545166 = -60					; size = 4
$T545147 = -60						; size = 4
_pTarget$ = -60						; size = 4
_bEnableAngle$531205 = -53				; size = 1
_vDir$531212 = -52					; size = 12
_vDiff2$531215 = -40					; size = 12
_vDiff$531203 = -28					; size = 12
$T531213 = -16						; size = 12
_vPrePos$531202 = -16					; size = 12
__$ArrayPad$ = -4					; size = 4
_pOwner$ = 8						; size = 4
?CheckTraceAttack@ioTargetTrace16Dummy@@AAEXPAVioBaseChar@@@Z PROC ; ioTargetTrace16Dummy::CheckTraceAttack, COMDAT
; _this$ = ecx

; 459  : {

  00000	55		 push	 ebp
  00001	8b ec		 mov	 ebp, esp
  00003	83 ec 58	 sub	 esp, 88			; 00000058H
  00006	a1 00 00 00 00	 mov	 eax, DWORD PTR ___security_cookie
  0000b	33 c5		 xor	 eax, ebp
  0000d	89 45 fc	 mov	 DWORD PTR __$ArrayPad$[ebp], eax
  00010	53		 push	 ebx
  00011	56		 push	 esi
  00012	8b 75 08	 mov	 esi, DWORD PTR _pOwner$[ebp]
  00015	8b d9		 mov	 ebx, ecx

; 504  : 			SetTracingAttack( pOwner );

  00017	89 75 bc	 mov	 DWORD PTR _pOwner$GSCopy$[ebp], esi
  0001a	85 f6		 test	 esi, esi
  0001c	0f 84 77 02 00
	00		 je	 $LN9@CheckTrace

; 460  : 	if( !pOwner || !pOwner->IsNeedProcess() )

  00022	8b 06		 mov	 eax, DWORD PTR [esi]
  00024	8b ce		 mov	 ecx, esi
  00026	ff 90 00 01 00
	00		 call	 DWORD PTR [eax+256]
  0002c	84 c0		 test	 al, al
  0002e	0f 84 65 02 00
	00		 je	 $LN9@CheckTrace

; 461  : 		return;
; 462  : 
; 463  : 	if( m_TargetTraceName.IsEmpty() )

  00034	57		 push	 edi
  00035	8d bb d8 0a 00
	00		 lea	 edi, DWORD PTR [ebx+2776]
  0003b	8b cf		 mov	 ecx, edi
  0003d	ff 15 00 00 00
	00		 call	 DWORD PTR __imp_?IsEmpty@ioHashString@@QBE_NXZ
  00043	84 c0		 test	 al, al
  00045	0f 85 4d 02 00
	00		 jne	 $LN38@CheckTrace

; 464  : 		return;
; 465  : 
; 466  : 	if( m_TraceDummyState != TDS_TRACING )

  0004b	83 bb 80 14 00
	00 03		 cmp	 DWORD PTR [ebx+5248], 3
  00052	0f 85 40 02 00
	00		 jne	 $LN38@CheckTrace

; 467  : 		return;
; 468  : 
; 469  : 	ioPlayStage *pStage = pOwner->GetCreator();

  00058	8b b6 44 03 00
	00		 mov	 esi, DWORD PTR [esi+836]

; 470  : 	if( !pStage )

  0005e	85 f6		 test	 esi, esi
  00060	0f 84 32 02 00
	00		 je	 $LN38@CheckTrace

; 471  : 		return;
; 472  : 
; 473  : 	DWORD dwCurTime = FRAMEGETTIME();

  00066	ff 15 00 00 00
	00		 call	 DWORD PTR __imp_?GetSingleton@ioFrameTimer@@SAAAV1@XZ
  0006c	8b c8		 mov	 ecx, eax
  0006e	ff 15 00 00 00
	00		 call	 DWORD PTR __imp_?GetLoopSec@ioFrameTimer@@QBEKXZ

; 474  : 
; 475  : 	ioBaseChar *pTarget = pStage->GetBaseChar( m_TargetTraceName );

  00074	57		 push	 edi
  00075	8b ce		 mov	 ecx, esi
  00077	e8 00 00 00 00	 call	 ?GetBaseChar@ioPlayStage@@QAEPAVioBaseChar@@ABVioHashString@@@Z ; ioPlayStage::GetBaseChar
  0007c	89 45 c4	 mov	 DWORD PTR _pTarget$[ebp], eax

; 476  : 	if( pTarget )

  0007f	85 c0		 test	 eax, eax
  00081	0f 84 11 02 00
	00		 je	 $LN38@CheckTrace

; 477  : 	{
; 478  : 		D3DXVECTOR3 vPrePos = GetWorldPosition();

  00087	8b 03		 mov	 eax, DWORD PTR [ebx]
  00089	8b cb		 mov	 ecx, ebx
  0008b	ff 50 70	 call	 DWORD PTR [eax+112]

; 479  : 		D3DXVECTOR3 vDiff = pTarget->GetWorldPosition() - vPrePos;

  0008e	8b 4d c4	 mov	 ecx, DWORD PTR _pTarget$[ebp]
  00091	8b f0		 mov	 esi, eax
  00093	8b 01		 mov	 eax, DWORD PTR [ecx]
  00095	8d 7d f0	 lea	 edi, DWORD PTR _vPrePos$531202[ebp]
  00098	a5		 movsd
  00099	a5		 movsd
  0009a	a5		 movsd
  0009b	ff 50 70	 call	 DWORD PTR [eax+112]
  0009e	f3 0f 10 40 04	 movss	 xmm0, DWORD PTR [eax+4]
  000a3	f3 0f 10 4d f4	 movss	 xmm1, DWORD PTR _vPrePos$531202[ebp+4]
  000a8	f3 0f 10 55 f8	 movss	 xmm2, DWORD PTR _vPrePos$531202[ebp+8]
  000ad	f3 0f 10 5d f0	 movss	 xmm3, DWORD PTR _vPrePos$531202[ebp]
  000b2	0f 5a c9	 cvtps2pd xmm1, xmm1
  000b5	0f 5a c0	 cvtps2pd xmm0, xmm0
  000b8	f2 0f 5c c1	 subsd	 xmm0, xmm1
  000bc	f3 0f 10 48 08	 movss	 xmm1, DWORD PTR [eax+8]
  000c1	0f 5a d2	 cvtps2pd xmm2, xmm2
  000c4	0f 5a c9	 cvtps2pd xmm1, xmm1
  000c7	f2 0f 5c ca	 subsd	 xmm1, xmm2
  000cb	f3 0f 10 10	 movss	 xmm2, DWORD PTR [eax]
  000cf	0f 5a d2	 cvtps2pd xmm2, xmm2
  000d2	0f 5a db	 cvtps2pd xmm3, xmm3

; 480  : 
; 481  : 		//  
; 482  : 		bool bEnableAngle = false;
; 483  : 		float fBoomHalfAnigle = m_fTraceAttackAngle / 2.0f;

  000d5	8d 45 c4	 lea	 eax, DWORD PTR _value$545166[ebp]
  000d8	f2 0f 5c d3	 subsd	 xmm2, xmm3
  000dc	66 0f 5a c0	 cvtpd2ps xmm0, xmm0
  000e0	66 0f 5a c9	 cvtpd2ps xmm1, xmm1
  000e4	66 0f 5a d2	 cvtpd2ps xmm2, xmm2
  000e8	50		 push	 eax
  000e9	8d 8b 0c 0a 00
	00		 lea	 ecx, DWORD PTR [ebx+2572]
  000ef	f3 0f 11 55 e4	 movss	 DWORD PTR _vDiff$531203[ebp], xmm2
  000f4	f3 0f 11 45 e8	 movss	 DWORD PTR _vDiff$531203[ebp+4], xmm0
  000f9	f3 0f 11 4d ec	 movss	 DWORD PTR _vDiff$531203[ebp+8], xmm1
  000fe	c6 45 cb 00	 mov	 BYTE PTR _bEnableAngle$531205[ebp], 0
  00102	e8 00 00 00 00	 call	 ?DecryptValueToPool@?$CEncrypt@M@@QAEXPAM@Z ; CEncrypt<float>::DecryptValueToPool

; 484  : 		fBoomHalfAnigle = ioMath::ArrangeHead(fBoomHalfAnigle);
; 485  : 		float fHalfValue = cosf( DEGtoRAD(fBoomHalfAnigle) );

  00107	f3 0f 10 45 c4	 movss	 xmm0, DWORD PTR _value$545166[ebp]
  0010c	0f 5a c0	 cvtps2pd xmm0, xmm0
  0010f	f2 0f 59 05 00
	00 00 00	 mulsd	 xmm0, QWORD PTR __real@3fe0000000000000
  00117	51		 push	 ecx
  00118	66 0f 5a c0	 cvtpd2ps xmm0, xmm0
  0011c	f3 0f 11 04 24	 movss	 DWORD PTR [esp], xmm0
  00121	ff 15 00 00 00
	00		 call	 DWORD PTR __imp_?ArrangeHead@ioMath@@SAMM@Z
  00127	dc 0d 00 00 00
	00		 fmul	 QWORD PTR __real@3f91df46a2526c7a
  0012d	59		 pop	 ecx
  0012e	d9 5d c4	 fstp	 DWORD PTR tv537[ebp]
  00131	d9 45 c4	 fld	 DWORD PTR tv537[ebp]
  00134	e8 00 00 00 00	 call	 __CIcos
  00139	d9 5d c4	 fstp	 DWORD PTR tv531[ebp]
  0013c	d9 45 c4	 fld	 DWORD PTR tv531[ebp]

; 486  : 
; 487  : 		if( m_fTraceAttackAngle != 0.0f )

  0013f	0f 57 c0	 xorps	 xmm0, xmm0
  00142	8d 45 c4	 lea	 eax, DWORD PTR $T545147[ebp]
  00145	d9 5d c0	 fstp	 DWORD PTR _fHalfValue$531208[ebp]
  00148	50		 push	 eax
  00149	8d 8b 0c 0a 00
	00		 lea	 ecx, DWORD PTR [ebx+2572]
  0014f	f3 0f 11 45 c4	 movss	 DWORD PTR $T545147[ebp], xmm0
  00154	e8 00 00 00 00	 call	 ??9?$CEncrypt@M@@QAE_NABM@Z ; CEncrypt<float>::operator!=
  00159	84 c0		 test	 al, al
  0015b	0f 84 a6 00 00
	00		 je	 $LN4@CheckTrace

; 488  : 		{
; 489  : 			D3DXQUATERNION qtRot = GetWorldOrientation();

  00161	8b 03		 mov	 eax, DWORD PTR [ebx]
  00163	8b cb		 mov	 ecx, ebx
  00165	ff 50 74	 call	 DWORD PTR [eax+116]

; 490  : 			D3DXVECTOR3 vDir = qtRot * D3DXVECTOR3( 0.0f, 0.0f, -1.0f );

  00168	0f 57 c0	 xorps	 xmm0, xmm0
  0016b	8b f0		 mov	 esi, eax
  0016d	8d 7d a8	 lea	 edi, DWORD PTR _qtRot$531211[ebp]
  00170	a5		 movsd
  00171	a5		 movsd
  00172	8d 45 f0	 lea	 eax, DWORD PTR $T531213[ebp]
  00175	50		 push	 eax
  00176	8d 45 a8	 lea	 eax, DWORD PTR _qtRot$531211[ebp]
  00179	a5		 movsd
  0017a	50		 push	 eax
  0017b	8d 45 cc	 lea	 eax, DWORD PTR _vDir$531212[ebp]
  0017e	f3 0f 11 45 f0	 movss	 DWORD PTR $T531213[ebp], xmm0
  00183	f3 0f 11 45 f4	 movss	 DWORD PTR $T531213[ebp+4], xmm0
  00188	f3 0f 10 05 00
	00 00 00	 movss	 xmm0, DWORD PTR __real@bf800000
  00190	50		 push	 eax
  00191	a5		 movsd
  00192	f3 0f 11 45 f8	 movss	 DWORD PTR $T531213[ebp+8], xmm0
  00197	ff 15 00 00 00
	00		 call	 DWORD PTR __imp_??D@YA?AUD3DXVECTOR3@@ABUD3DXQUATERNION@@ABU0@@Z
  0019d	83 c4 0c	 add	 esp, 12			; 0000000cH

; 491  : 
; 492  : 			D3DXVECTOR3 vDiff2;
; 493  : 			D3DXVec3Normalize( &vDiff2, &vDiff );

  001a0	8d 45 e4	 lea	 eax, DWORD PTR _vDiff$531203[ebp]
  001a3	50		 push	 eax
  001a4	8d 45 d8	 lea	 eax, DWORD PTR _vDiff2$531215[ebp]
  001a7	50		 push	 eax
  001a8	e8 00 00 00 00	 call	 _D3DXVec3Normalize@8

; 494  : 
; 495  : 			float fCurValue = D3DXVec3Dot( &vDir, &vDiff2 );
; 496  : 			if( fHalfValue <= fCurValue )

  001ad	f3 0f 10 4d d0	 movss	 xmm1, DWORD PTR _vDir$531212[ebp+4]
  001b2	f3 0f 10 55 dc	 movss	 xmm2, DWORD PTR _vDiff2$531215[ebp+4]
  001b7	f3 0f 10 5d d8	 movss	 xmm3, DWORD PTR _vDiff2$531215[ebp]
  001bc	f3 0f 10 45 c0	 movss	 xmm0, DWORD PTR _fHalfValue$531208[ebp]
  001c1	0f 5a d2	 cvtps2pd xmm2, xmm2
  001c4	0f 5a c9	 cvtps2pd xmm1, xmm1
  001c7	f2 0f 59 ca	 mulsd	 xmm1, xmm2
  001cb	f3 0f 10 55 cc	 movss	 xmm2, DWORD PTR _vDir$531212[ebp]
  001d0	0f 5a d2	 cvtps2pd xmm2, xmm2
  001d3	0f 5a db	 cvtps2pd xmm3, xmm3
  001d6	f2 0f 59 d3	 mulsd	 xmm2, xmm3
  001da	f3 0f 10 5d e0	 movss	 xmm3, DWORD PTR _vDiff2$531215[ebp+8]
  001df	f2 0f 58 ca	 addsd	 xmm1, xmm2
  001e3	f3 0f 10 55 d4	 movss	 xmm2, DWORD PTR _vDir$531212[ebp+8]
  001e8	0f 5a d2	 cvtps2pd xmm2, xmm2
  001eb	0f 5a db	 cvtps2pd xmm3, xmm3
  001ee	f2 0f 59 d3	 mulsd	 xmm2, xmm3
  001f2	f2 0f 58 ca	 addsd	 xmm1, xmm2
  001f6	66 0f 5a c9	 cvtpd2ps xmm1, xmm1
  001fa	0f 5a c0	 cvtps2pd xmm0, xmm0
  001fd	f3 0f 5a c9	 cvtss2sd xmm1, xmm1
  00201	66 0f 2f c8	 comisd	 xmm1, xmm0
  00205	72 04		 jb	 SHORT $LN37@CheckTrace
$LN4@CheckTrace:

; 497  : 				bEnableAngle = true;
; 498  : 		}
; 499  : 		else
; 500  : 			bEnableAngle = true;

  00207	c6 45 cb 01	 mov	 BYTE PTR _bEnableAngle$531205[ebp], 1
$LN37@CheckTrace:

; 501  : 
; 502  : 		float fRangeSq = D3DXVec3LengthSq( & vDiff );
; 503  : 		if( bEnableAngle && fRangeSq < m_fTraceAttackRange * m_fTraceAttackRange )

  0020b	80 7d cb 00	 cmp	 BYTE PTR _bEnableAngle$531205[ebp], 0
  0020f	f3 0f 10 45 e8	 movss	 xmm0, DWORD PTR _vDiff$531203[ebp+4]
  00214	f3 0f 10 4d e4	 movss	 xmm1, DWORD PTR _vDiff$531203[ebp]
  00219	f3 0f 10 55 ec	 movss	 xmm2, DWORD PTR _vDiff$531203[ebp+8]
  0021e	0f 5a c0	 cvtps2pd xmm0, xmm0
  00221	f2 0f 59 c0	 mulsd	 xmm0, xmm0
  00225	0f 5a c9	 cvtps2pd xmm1, xmm1
  00228	f2 0f 59 c9	 mulsd	 xmm1, xmm1
  0022c	0f 5a d2	 cvtps2pd xmm2, xmm2
  0022f	f2 0f 58 c8	 addsd	 xmm1, xmm0
  00233	f2 0f 59 d2	 mulsd	 xmm2, xmm2
  00237	f2 0f 58 ca	 addsd	 xmm1, xmm2
  0023b	66 0f 5a c1	 cvtpd2ps xmm0, xmm1
  0023f	f3 0f 11 45 c0	 movss	 DWORD PTR _fRangeSq$531219[ebp], xmm0
  00244	74 52		 je	 SHORT $LN38@CheckTrace
  00246	8d 45 b8	 lea	 eax, DWORD PTR _value$545189[ebp]
  00249	50		 push	 eax
  0024a	8d 8b dc 09 00
	00		 lea	 ecx, DWORD PTR [ebx+2524]
  00250	e8 00 00 00 00	 call	 ?DecryptValueToPool@?$CEncrypt@M@@QAEXPAM@Z ; CEncrypt<float>::DecryptValueToPool
  00255	8d 45 c4	 lea	 eax, DWORD PTR _value$545192[ebp]
  00258	50		 push	 eax
  00259	8d 8b dc 09 00
	00		 lea	 ecx, DWORD PTR [ebx+2524]
  0025f	e8 00 00 00 00	 call	 ?DecryptValueToPool@?$CEncrypt@M@@QAEXPAM@Z ; CEncrypt<float>::DecryptValueToPool
  00264	f3 0f 10 4d c4	 movss	 xmm1, DWORD PTR _value$545192[ebp]
  00269	f3 0f 10 55 b8	 movss	 xmm2, DWORD PTR _value$545189[ebp]
  0026e	f3 0f 10 45 c0	 movss	 xmm0, DWORD PTR _fRangeSq$531219[ebp]
  00273	0f 5a c9	 cvtps2pd xmm1, xmm1
  00276	0f 5a d2	 cvtps2pd xmm2, xmm2
  00279	f2 0f 59 ca	 mulsd	 xmm1, xmm2
  0027d	66 0f 5a c9	 cvtpd2ps xmm1, xmm1
  00281	0f 5a c0	 cvtps2pd xmm0, xmm0
  00284	f3 0f 5a c9	 cvtss2sd xmm1, xmm1
  00288	66 0f 2f c8	 comisd	 xmm1, xmm0
  0028c	76 0a		 jbe	 SHORT $LN38@CheckTrace

; 504  : 			SetTracingAttack( pOwner );

  0028e	ff 75 bc	 push	 DWORD PTR _pOwner$GSCopy$[ebp]
  00291	8b cb		 mov	 ecx, ebx
  00293	e8 00 00 00 00	 call	 ?SetTracingAttack@ioTargetTrace16Dummy@@AAEXPAVioBaseChar@@@Z ; ioTargetTrace16Dummy::SetTracingAttack
$LN38@CheckTrace:
  00298	5f		 pop	 edi
$LN9@CheckTrace:

; 505  : 	}
; 506  : }

  00299	8b 4d fc	 mov	 ecx, DWORD PTR __$ArrayPad$[ebp]
  0029c	5e		 pop	 esi
  0029d	33 cd		 xor	 ecx, ebp
  0029f	5b		 pop	 ebx
  002a0	e8 00 00 00 00	 call	 @__security_check_cookie@4
  002a5	c9		 leave
  002a6	c2 04 00	 ret	 4
?CheckTraceAttack@ioTargetTrace16Dummy@@AAEXPAVioBaseChar@@@Z ENDP ; ioTargetTrace16Dummy::CheckTraceAttack
_TEXT	ENDS
PUBLIC	?ProcessJumpState@ioTargetTrace16Dummy@@AAEXPAVioBaseChar@@@Z ; ioTargetTrace16Dummy::ProcessJumpState
; Function compile flags: /Ogsp
;	COMDAT ?ProcessJumpState@ioTargetTrace16Dummy@@AAEXPAVioBaseChar@@@Z
_TEXT	SEGMENT
_pOwner$ = 8						; size = 4
?ProcessJumpState@ioTargetTrace16Dummy@@AAEXPAVioBaseChar@@@Z PROC ; ioTargetTrace16Dummy::ProcessJumpState, COMDAT
; _this$ = ecx

; 629  : {

  00000	55		 push	 ebp
  00001	8b ec		 mov	 ebp, esp
  00003	56		 push	 esi

; 630  : 	if( !pOwner || !pOwner->IsNeedProcess() )

  00004	8b 75 08	 mov	 esi, DWORD PTR _pOwner$[ebp]
  00007	57		 push	 edi
  00008	8b f9		 mov	 edi, ecx
  0000a	85 f6		 test	 esi, esi
  0000c	74 3d		 je	 SHORT $LN2@ProcessJum
  0000e	8b 06		 mov	 eax, DWORD PTR [esi]
  00010	8b ce		 mov	 ecx, esi
  00012	ff 90 00 01 00
	00		 call	 DWORD PTR [eax+256]
  00018	84 c0		 test	 al, al
  0001a	74 2f		 je	 SHORT $LN2@ProcessJum

; 631  : 		return;
; 632  : 
; 633  : 	if ( m_dwJumpStartTime + 100 < FRAMEGETTIME() && CheckLanding( pOwner ) )

  0001c	ff 15 00 00 00
	00		 call	 DWORD PTR __imp_?GetSingleton@ioFrameTimer@@SAAAV1@XZ
  00022	8b c8		 mov	 ecx, eax
  00024	ff 15 00 00 00
	00		 call	 DWORD PTR __imp_?GetLoopSec@ioFrameTimer@@QBEKXZ
  0002a	8b 8f 90 14 00
	00		 mov	 ecx, DWORD PTR [edi+5264]
  00030	83 c1 64	 add	 ecx, 100		; 00000064H
  00033	3b c8		 cmp	 ecx, eax
  00035	73 14		 jae	 SHORT $LN2@ProcessJum
  00037	56		 push	 esi
  00038	8b cf		 mov	 ecx, edi
  0003a	e8 00 00 00 00	 call	 ?CheckLanding@ioTargetTrace16Dummy@@AAE_NPAVioBaseChar@@@Z ; ioTargetTrace16Dummy::CheckLanding
  0003f	84 c0		 test	 al, al
  00041	74 08		 je	 SHORT $LN2@ProcessJum

; 634  : 	{
; 635  : 		SetLandingAttack( pOwner );

  00043	56		 push	 esi
  00044	8b cf		 mov	 ecx, edi
  00046	e8 00 00 00 00	 call	 ?SetLandingAttack@ioTargetTrace16Dummy@@AAEXPAVioBaseChar@@@Z ; ioTargetTrace16Dummy::SetLandingAttack
$LN2@ProcessJum:
  0004b	5f		 pop	 edi
  0004c	5e		 pop	 esi

; 636  : 		return;
; 637  : 	}
; 638  : 	
; 639  : }

  0004d	5d		 pop	 ebp
  0004e	c2 04 00	 ret	 4
?ProcessJumpState@ioTargetTrace16Dummy@@AAEXPAVioBaseChar@@@Z ENDP ; ioTargetTrace16Dummy::ProcessJumpState
_TEXT	ENDS
EXTRN	?CheckExtraAniJump@ioDummyChar@@IAEXXZ:PROC	; ioDummyChar::CheckExtraAniJump
EXTRN	?CheckReservedSliding@ioDummyChar@@QAEXXZ:PROC	; ioDummyChar::CheckReservedSliding
EXTRN	?ProcessTraceTracingWait@ioDummyChar@@IAEXMK@Z:PROC ; ioDummyChar::ProcessTraceTracingWait
EXTRN	?ProcessStartState@ioDummyChar@@IAEXM@Z:PROC	; ioDummyChar::ProcessStartState
; Function compile flags: /Ogsp
;	COMDAT ?ProcessState@ioTargetTrace16Dummy@@MAEXMK@Z
_TEXT	SEGMENT
_fTimerPerSec$ = 8					; size = 4
_dwPreTime$ = 12					; size = 4
?ProcessState@ioTargetTrace16Dummy@@MAEXMK@Z PROC	; ioTargetTrace16Dummy::ProcessState, COMDAT
; _this$ = ecx

; 44   : {

  00000	55		 push	 ebp
  00001	8b ec		 mov	 ebp, esp
  00003	56		 push	 esi
  00004	57		 push	 edi
  00005	8b f1		 mov	 esi, ecx

; 45   : 	ioBaseChar *pOwner = GetOwner();

  00007	e8 00 00 00 00	 call	 ?GetOwner@ioDummyChar@@QBEPAVioBaseChar@@XZ ; ioDummyChar::GetOwner
  0000c	8b f8		 mov	 edi, eax

; 46   : 	if ( !pOwner )

  0000e	85 ff		 test	 edi, edi
  00010	75 0e		 jne	 SHORT $LN13@ProcessSta

; 47   : 	{
; 48   : 		SendDieState( true );

  00012	6a 01		 push	 1
  00014	8b ce		 mov	 ecx, esi
  00016	e8 00 00 00 00	 call	 ?SendDieState@ioDummyChar@@QAEX_N@Z ; ioDummyChar::SendDieState

; 49   : 		return;

  0001b	e9 16 01 00 00	 jmp	 $LN14@ProcessSta
$LN13@ProcessSta:
  00020	53		 push	 ebx

; 50   : 	}
; 51   : 
; 52   : 	DWORD dwCurTime = FRAMEGETTIME();

  00021	ff 15 00 00 00
	00		 call	 DWORD PTR __imp_?GetSingleton@ioFrameTimer@@SAAAV1@XZ
  00027	8b c8		 mov	 ecx, eax
  00029	ff 15 00 00 00
	00		 call	 DWORD PTR __imp_?GetLoopSec@ioFrameTimer@@QBEKXZ
  0002f	8b d8		 mov	 ebx, eax

; 53   : 	if ( pOwner->IsNeedProcess() && m_dwLifeTime && m_dwCreateTime + m_dwLifeTime < dwCurTime )

  00031	8b 07		 mov	 eax, DWORD PTR [edi]
  00033	8b cf		 mov	 ecx, edi
  00035	ff 90 00 01 00
	00		 call	 DWORD PTR [eax+256]
  0003b	84 c0		 test	 al, al
  0003d	74 39		 je	 SHORT $LN11@ProcessSta
  0003f	8b 86 10 0b 00
	00		 mov	 eax, DWORD PTR [esi+2832]
  00045	85 c0		 test	 eax, eax
  00047	74 2f		 je	 SHORT $LN11@ProcessSta
  00049	8b 8e 18 02 00
	00		 mov	 ecx, DWORD PTR [esi+536]
  0004f	03 c8		 add	 ecx, eax
  00051	3b cb		 cmp	 ecx, ebx
  00053	73 23		 jae	 SHORT $LN11@ProcessSta

; 54   : 	{
; 55   : 		if ( m_TraceDummyState != TDS_ATTACK && m_TraceDummyState != TDS_LANDING_ATTACK &&
; 56   : 			m_TraceDummyState != TDS_JUMP )

  00055	8b 86 80 14 00
	00		 mov	 eax, DWORD PTR [esi+5248]
  0005b	83 f8 05	 cmp	 eax, 5
  0005e	74 18		 je	 SHORT $LN11@ProcessSta
  00060	83 f8 07	 cmp	 eax, 7
  00063	74 13		 je	 SHORT $LN11@ProcessSta
  00065	83 f8 06	 cmp	 eax, 6
  00068	74 0e		 je	 SHORT $LN11@ProcessSta

; 57   : 		{
; 58   : 			SendDieState( true );

  0006a	6a 01		 push	 1
  0006c	8b ce		 mov	 ecx, esi
  0006e	e8 00 00 00 00	 call	 ?SendDieState@ioDummyChar@@QAEX_N@Z ; ioDummyChar::SendDieState

; 59   : 			return;

  00073	e9 bd 00 00 00	 jmp	 $LN16@ProcessSta
$LN11@ProcessSta:

; 60   : 		}
; 61   : 	}
; 62   : 
; 63   : 	switch( m_TraceDummyState )

  00078	8b 86 80 14 00
	00		 mov	 eax, DWORD PTR [esi+5248]
  0007e	f3 0f 10 45 08	 movss	 xmm0, DWORD PTR _fTimerPerSec$[ebp]
  00083	83 f8 08	 cmp	 eax, 8
  00086	0f 87 94 00 00
	00		 ja	 $LN9@ProcessSta
  0008c	ff 24 85 00 00
	00 00		 jmp	 DWORD PTR $LN17@ProcessSta[eax*4]
$LN8@ProcessSta:

; 64   : 	{
; 65   : 	case TDS_START:
; 66   : 		ProcessStartState( fTimerPerSec );

  00093	51		 push	 ecx
  00094	8b ce		 mov	 ecx, esi
  00096	f3 0f 11 04 24	 movss	 DWORD PTR [esp], xmm0
  0009b	e8 00 00 00 00	 call	 ?ProcessStartState@ioDummyChar@@IAEXM@Z ; ioDummyChar::ProcessStartState

; 67   : 		break;

  000a0	eb 7e		 jmp	 SHORT $LN9@ProcessSta
$LN7@ProcessSta:

; 68   : 	case TDS_DELAY:
; 69   : 		ProcessDelayState( fTimerPerSec );

  000a2	8b 06		 mov	 eax, DWORD PTR [esi]
  000a4	51		 push	 ecx
  000a5	8b ce		 mov	 ecx, esi
  000a7	f3 0f 11 04 24	 movss	 DWORD PTR [esp], xmm0
  000ac	ff 90 00 01 00
	00		 call	 DWORD PTR [eax+256]

; 70   : 		break;

  000b2	eb 6c		 jmp	 SHORT $LN9@ProcessSta
$LN6@ProcessSta:

; 71   : 	case TDS_SENSING:
; 72   : 		ProcessSensingState( pOwner );

  000b4	57		 push	 edi
  000b5	8b ce		 mov	 ecx, esi
  000b7	e8 00 00 00 00	 call	 ?ProcessSensingState@ioTargetTrace16Dummy@@AAEXPAVioBaseChar@@@Z ; ioTargetTrace16Dummy::ProcessSensingState

; 73   : 		break;

  000bc	eb 62		 jmp	 SHORT $LN9@ProcessSta
$LN5@ProcessSta:

; 74   : 	case TDS_TRACING:
; 75   : 		ProcessTracingState( pOwner, fTimerPerSec );

  000be	51		 push	 ecx
  000bf	f3 0f 11 04 24	 movss	 DWORD PTR [esp], xmm0
  000c4	57		 push	 edi
  000c5	8b ce		 mov	 ecx, esi
  000c7	e8 00 00 00 00	 call	 ?ProcessTracingState@ioTargetTrace16Dummy@@AAEXPAVioBaseChar@@M@Z ; ioTargetTrace16Dummy::ProcessTracingState

; 76   : 		CheckTraceAttack( pOwner );

  000cc	57		 push	 edi
  000cd	8b ce		 mov	 ecx, esi
  000cf	e8 00 00 00 00	 call	 ?CheckTraceAttack@ioTargetTrace16Dummy@@AAEXPAVioBaseChar@@@Z ; ioTargetTrace16Dummy::CheckTraceAttack

; 77   : 		break;

  000d4	eb 4a		 jmp	 SHORT $LN9@ProcessSta
$LN4@ProcessSta:

; 78   : 	case TDS_TRACE_WAIT:
; 79   : 		ProcessTraceTracingWait( fTimerPerSec, dwPreTime );

  000d6	ff 75 0c	 push	 DWORD PTR _dwPreTime$[ebp]
  000d9	51		 push	 ecx
  000da	8b ce		 mov	 ecx, esi
  000dc	f3 0f 11 04 24	 movss	 DWORD PTR [esp], xmm0
  000e1	e8 00 00 00 00	 call	 ?ProcessTraceTracingWait@ioDummyChar@@IAEXMK@Z ; ioDummyChar::ProcessTraceTracingWait

; 80   : 		break;

  000e6	eb 38		 jmp	 SHORT $LN9@ProcessSta
$LN3@ProcessSta:

; 81   : 	case TDS_ATTACK:
; 82   : 	case TDS_LANDING_ATTACK:
; 83   : 		CheckReservedSliding();

  000e8	8b ce		 mov	 ecx, esi
  000ea	e8 00 00 00 00	 call	 ?CheckReservedSliding@ioDummyChar@@QAEXXZ ; ioDummyChar::CheckReservedSliding

; 84   : 		CheckExtraAniJump();

  000ef	8b ce		 mov	 ecx, esi
  000f1	e8 00 00 00 00	 call	 ?CheckExtraAniJump@ioDummyChar@@IAEXXZ ; ioDummyChar::CheckExtraAniJump

; 85   : 		ProcessAttackState( pOwner, fTimerPerSec, dwPreTime );

  000f6	ff 75 0c	 push	 DWORD PTR _dwPreTime$[ebp]
  000f9	f3 0f 10 45 08	 movss	 xmm0, DWORD PTR _fTimerPerSec$[ebp]
  000fe	51		 push	 ecx
  000ff	f3 0f 11 04 24	 movss	 DWORD PTR [esp], xmm0
  00104	57		 push	 edi
  00105	8b ce		 mov	 ecx, esi
  00107	e8 00 00 00 00	 call	 ?ProcessAttackState@ioTargetTrace16Dummy@@AAEXPAVioBaseChar@@MK@Z ; ioTargetTrace16Dummy::ProcessAttackState

; 86   : 		break;

  0010c	eb 12		 jmp	 SHORT $LN9@ProcessSta
$LN2@ProcessSta:

; 87   : 	case TDS_JUMP:
; 88   : 		ProcessJumpState( pOwner );

  0010e	57		 push	 edi
  0010f	8b ce		 mov	 ecx, esi
  00111	e8 00 00 00 00	 call	 ?ProcessJumpState@ioTargetTrace16Dummy@@AAEXPAVioBaseChar@@@Z ; ioTargetTrace16Dummy::ProcessJumpState

; 89   : 		break;

  00116	eb 08		 jmp	 SHORT $LN9@ProcessSta
$LN1@ProcessSta:

; 90   : 	case TDS_RETURN:
; 91   : 		ProcessReturnState( pOwner );

  00118	57		 push	 edi
  00119	8b ce		 mov	 ecx, esi
  0011b	e8 00 00 00 00	 call	 ?ProcessReturnState@ioTargetTrace16Dummy@@AAEXPAVioBaseChar@@@Z ; ioTargetTrace16Dummy::ProcessReturnState
$LN9@ProcessSta:

; 92   : 		break;
; 93   : 	}
; 94   : 
; 95   : 	ProcessPos( fTimerPerSec );

  00120	f3 0f 10 45 08	 movss	 xmm0, DWORD PTR _fTimerPerSec$[ebp]
  00125	8b 06		 mov	 eax, DWORD PTR [esi]
  00127	51		 push	 ecx
  00128	8b ce		 mov	 ecx, esi
  0012a	f3 0f 11 04 24	 movss	 DWORD PTR [esp], xmm0
  0012f	ff 90 fc 00 00
	00		 call	 DWORD PTR [eax+252]
$LN16@ProcessSta:
  00135	5b		 pop	 ebx
$LN14@ProcessSta:
  00136	5f		 pop	 edi
  00137	5e		 pop	 esi

; 96   : }

  00138	5d		 pop	 ebp
  00139	c2 08 00	 ret	 8
$LN17@ProcessSta:
  0013c	00 00 00 00	 DD	 $LN8@ProcessSta
  00140	00 00 00 00	 DD	 $LN7@ProcessSta
  00144	00 00 00 00	 DD	 $LN6@ProcessSta
  00148	00 00 00 00	 DD	 $LN5@ProcessSta
  0014c	00 00 00 00	 DD	 $LN4@ProcessSta
  00150	00 00 00 00	 DD	 $LN3@ProcessSta
  00154	00 00 00 00	 DD	 $LN2@ProcessSta
  00158	00 00 00 00	 DD	 $LN3@ProcessSta
  0015c	00 00 00 00	 DD	 $LN1@ProcessSta
?ProcessState@ioTargetTrace16Dummy@@MAEXMK@Z ENDP	; ioTargetTrace16Dummy::ProcessState
_TEXT	ENDS
END
