; Listing generated by Microsoft (R) Optimizing Compiler Version 16.00.30319.01 

	TITLE	D:\Lost Saga For Developer\Youtube\Tutorial\Source\src\LSClient\ioTeleportAttackSkill3.cpp
	.686P
	.XMM
	include listing.inc
	.model	flat

INCLUDELIB MSVCRT
INCLUDELIB OLDNAMES

PUBLIC	?_EEM_DS@?$deque@UD3DXVECTOR3@@V?$allocator@UD3DXVECTOR3@@@std@@@std@@2HB ; std::deque<D3DXVECTOR3,std::allocator<D3DXVECTOR3> >::_EEM_DS
;	COMDAT ?_EEM_DS@?$deque@UD3DXVECTOR3@@V?$allocator@UD3DXVECTOR3@@@std@@@std@@2HB
CONST	SEGMENT
?_EEM_DS@?$deque@UD3DXVECTOR3@@V?$allocator@UD3DXVECTOR3@@@std@@@std@@2HB DD 01H ; std::deque<D3DXVECTOR3,std::allocator<D3DXVECTOR3> >::_EEM_DS
CONST	ENDS
PUBLIC	?GetState@ioBaseChar@@QBE?AW4CharState@@XZ	; ioBaseChar::GetState
; Function compile flags: /Ogsp
; File d:\lost saga for developer\youtube\tutorial\source\src\lsclient\iobasechar.h
;	COMDAT ?GetState@ioBaseChar@@QBE?AW4CharState@@XZ
_TEXT	SEGMENT
?GetState@ioBaseChar@@QBE?AW4CharState@@XZ PROC		; ioBaseChar::GetState, COMDAT
; _this$ = ecx

; 2156 : 	inline CharState GetState() const { return m_CharState; }	

  00000	8a 81 10 03 00
	00		 mov	 al, BYTE PTR [ecx+784]
  00006	c3		 ret	 0
?GetState@ioBaseChar@@QBE?AW4CharState@@XZ ENDP		; ioBaseChar::GetState
_TEXT	ENDS
PUBLIC	?GetCharName@ioBaseChar@@QBEABVioHashString@@XZ	; ioBaseChar::GetCharName
; Function compile flags: /Ogsp
;	COMDAT ?GetCharName@ioBaseChar@@QBEABVioHashString@@XZ
_TEXT	SEGMENT
?GetCharName@ioBaseChar@@QBEABVioHashString@@XZ PROC	; ioBaseChar::GetCharName, COMDAT
; _this$ = ecx

; 2594 : 	inline const ioHashString& GetCharName() const { return m_Name; }

  00000	8d 81 d4 02 00
	00		 lea	 eax, DWORD PTR [ecx+724]
  00006	c3		 ret	 0
?GetCharName@ioBaseChar@@QBEABVioHashString@@XZ ENDP	; ioBaseChar::GetCharName
_TEXT	ENDS
PUBLIC	?GetTargetRot@ioBaseChar@@QBEABUD3DXQUATERNION@@XZ ; ioBaseChar::GetTargetRot
; Function compile flags: /Ogsp
;	COMDAT ?GetTargetRot@ioBaseChar@@QBEABUD3DXQUATERNION@@XZ
_TEXT	SEGMENT
?GetTargetRot@ioBaseChar@@QBEABUD3DXQUATERNION@@XZ PROC	; ioBaseChar::GetTargetRot, COMDAT
; _this$ = ecx

; 2599 : 	inline const D3DXQUATERNION& GetTargetRot() const { return m_qtTargetRot; }

  00000	8d 81 a4 06 00
	00		 lea	 eax, DWORD PTR [ecx+1700]
  00006	c3		 ret	 0
?GetTargetRot@ioBaseChar@@QBEABUD3DXQUATERNION@@XZ ENDP	; ioBaseChar::GetTargetRot
_TEXT	ENDS
PUBLIC	_fabsf
EXTRN	__fltused:DWORD
; Function compile flags: /Ogsp
; File c:\program files (x86)\microsoft visual studio 10.0\vc\include\math.h
;	COMDAT _fabsf
_TEXT	SEGMENT
tv129 = 8						; size = 4
__X$ = 8						; size = 4
_fabsf	PROC						; COMDAT

; 395  :         {return ((float)fabs((double)_X)); }

  00000	55		 push	 ebp
  00001	8b ec		 mov	 ebp, esp
  00003	d9 45 08	 fld	 DWORD PTR __X$[ebp]
  00006	d9 e1		 fabs
  00008	d9 5d 08	 fstp	 DWORD PTR tv129[ebp]
  0000b	d9 45 08	 fld	 DWORD PTR tv129[ebp]
  0000e	5d		 pop	 ebp
  0000f	c3		 ret	 0
_fabsf	ENDP
_TEXT	ENDS
PUBLIC	_cosf
EXTRN	__CIcos:PROC
; Function compile flags: /Ogsp
;	COMDAT _cosf
_TEXT	SEGMENT
tv69 = 8						; size = 4
__X$ = 8						; size = 4
_cosf	PROC						; COMDAT

; 410  :         {return ((float)cos((double)_X)); }

  00000	55		 push	 ebp
  00001	8b ec		 mov	 ebp, esp
  00003	d9 45 08	 fld	 DWORD PTR __X$[ebp]
  00006	e8 00 00 00 00	 call	 __CIcos
  0000b	d9 5d 08	 fstp	 DWORD PTR tv69[ebp]
  0000e	d9 45 08	 fld	 DWORD PTR tv69[ebp]
  00011	5d		 pop	 ebp
  00012	c3		 ret	 0
_cosf	ENDP
_TEXT	ENDS
PUBLIC	?abs@@YAMM@Z					; abs
; Function compile flags: /Ogsp
;	COMDAT ?abs@@YAMM@Z
_TEXT	SEGMENT
tv131 = 8						; size = 4
__X$ = 8						; size = 4
?abs@@YAMM@Z PROC					; abs, COMDAT

; 500  :         {return (fabsf(_X)); }

  00000	55		 push	 ebp
  00001	8b ec		 mov	 ebp, esp
  00003	d9 45 08	 fld	 DWORD PTR __X$[ebp]
  00006	d9 e1		 fabs
  00008	d9 5d 08	 fstp	 DWORD PTR tv131[ebp]
  0000b	d9 45 08	 fld	 DWORD PTR tv131[ebp]
  0000e	5d		 pop	 ebp
  0000f	c3		 ret	 0
?abs@@YAMM@Z ENDP					; abs
_TEXT	ENDS
PUBLIC	??_7bad_alloc@std@@6B@				; std::bad_alloc::`vftable'
PUBLIC	??0bad_alloc@std@@QAE@PBD@Z			; std::bad_alloc::bad_alloc
PUBLIC	??_R4bad_alloc@std@@6B@				; std::bad_alloc::`RTTI Complete Object Locator'
PUBLIC	??_R0?AVbad_alloc@std@@@8			; std::bad_alloc `RTTI Type Descriptor'
PUBLIC	??_R3bad_alloc@std@@8				; std::bad_alloc::`RTTI Class Hierarchy Descriptor'
PUBLIC	??_R2bad_alloc@std@@8				; std::bad_alloc::`RTTI Base Class Array'
PUBLIC	??_R1A@?0A@EA@bad_alloc@std@@8			; std::bad_alloc::`RTTI Base Class Descriptor at (0,-1,0,64)'
PUBLIC	??_R1A@?0A@EA@exception@std@@8			; std::exception::`RTTI Base Class Descriptor at (0,-1,0,64)'
PUBLIC	??_R0?AVexception@std@@@8			; std::exception `RTTI Type Descriptor'
PUBLIC	??_R3exception@std@@8				; std::exception::`RTTI Class Hierarchy Descriptor'
PUBLIC	??_R2exception@std@@8				; std::exception::`RTTI Base Class Array'
EXTRN	__imp_??0exception@std@@QAE@ABQBD@Z:PROC
EXTRN	??_7type_info@@6B@:QWORD			; type_info::`vftable'
EXTRN	??_Ebad_alloc@std@@UAEPAXI@Z:PROC		; std::bad_alloc::`vector deleting destructor'
EXTRN	?what@exception@std@@UBEPBDXZ:PROC		; std::exception::what
;	COMDAT ??_R2exception@std@@8
; File c:\program files (x86)\microsoft visual studio 10.0\vc\include\exception
rdata$r	SEGMENT
??_R2exception@std@@8 DD FLAT:??_R1A@?0A@EA@exception@std@@8 ; std::exception::`RTTI Base Class Array'
rdata$r	ENDS
;	COMDAT ??_R3exception@std@@8
rdata$r	SEGMENT
??_R3exception@std@@8 DD 00H				; std::exception::`RTTI Class Hierarchy Descriptor'
	DD	00H
	DD	01H
	DD	FLAT:??_R2exception@std@@8
rdata$r	ENDS
;	COMDAT ??_R0?AVexception@std@@@8
_DATA	SEGMENT
??_R0?AVexception@std@@@8 DD FLAT:??_7type_info@@6B@	; std::exception `RTTI Type Descriptor'
	DD	00H
	DB	'.?AVexception@std@@', 00H
_DATA	ENDS
;	COMDAT ??_R1A@?0A@EA@exception@std@@8
rdata$r	SEGMENT
??_R1A@?0A@EA@exception@std@@8 DD FLAT:??_R0?AVexception@std@@@8 ; std::exception::`RTTI Base Class Descriptor at (0,-1,0,64)'
	DD	00H
	DD	00H
	DD	0ffffffffH
	DD	00H
	DD	040H
	DD	FLAT:??_R3exception@std@@8
rdata$r	ENDS
;	COMDAT ??_R1A@?0A@EA@bad_alloc@std@@8
rdata$r	SEGMENT
??_R1A@?0A@EA@bad_alloc@std@@8 DD FLAT:??_R0?AVbad_alloc@std@@@8 ; std::bad_alloc::`RTTI Base Class Descriptor at (0,-1,0,64)'
	DD	01H
	DD	00H
	DD	0ffffffffH
	DD	00H
	DD	040H
	DD	FLAT:??_R3bad_alloc@std@@8
rdata$r	ENDS
;	COMDAT ??_R2bad_alloc@std@@8
rdata$r	SEGMENT
??_R2bad_alloc@std@@8 DD FLAT:??_R1A@?0A@EA@bad_alloc@std@@8 ; std::bad_alloc::`RTTI Base Class Array'
	DD	FLAT:??_R1A@?0A@EA@exception@std@@8
rdata$r	ENDS
;	COMDAT ??_R3bad_alloc@std@@8
rdata$r	SEGMENT
??_R3bad_alloc@std@@8 DD 00H				; std::bad_alloc::`RTTI Class Hierarchy Descriptor'
	DD	00H
	DD	02H
	DD	FLAT:??_R2bad_alloc@std@@8
rdata$r	ENDS
;	COMDAT ??_R0?AVbad_alloc@std@@@8
_DATA	SEGMENT
??_R0?AVbad_alloc@std@@@8 DD FLAT:??_7type_info@@6B@	; std::bad_alloc `RTTI Type Descriptor'
	DD	00H
	DB	'.?AVbad_alloc@std@@', 00H
_DATA	ENDS
;	COMDAT ??_R4bad_alloc@std@@6B@
rdata$r	SEGMENT
??_R4bad_alloc@std@@6B@ DD 00H				; std::bad_alloc::`RTTI Complete Object Locator'
	DD	00H
	DD	00H
	DD	FLAT:??_R0?AVbad_alloc@std@@@8
	DD	FLAT:??_R3bad_alloc@std@@8
rdata$r	ENDS
;	COMDAT ??_7bad_alloc@std@@6B@
CONST	SEGMENT
??_7bad_alloc@std@@6B@ DD FLAT:??_R4bad_alloc@std@@6B@	; std::bad_alloc::`vftable'
	DD	FLAT:??_Ebad_alloc@std@@UAEPAXI@Z
	DD	FLAT:?what@exception@std@@UBEPBDXZ
; Function compile flags: /Ogsp
CONST	ENDS
;	COMDAT ??0bad_alloc@std@@QAE@PBD@Z
_TEXT	SEGMENT
__Message$ = 8						; size = 4
??0bad_alloc@std@@QAE@PBD@Z PROC			; std::bad_alloc::bad_alloc, COMDAT
; _this$ = ecx

; 345  : 		{	// construct from message string

  00000	55		 push	 ebp
  00001	8b ec		 mov	 ebp, esp
  00003	56		 push	 esi
  00004	8d 45 08	 lea	 eax, DWORD PTR __Message$[ebp]
  00007	50		 push	 eax
  00008	8b f1		 mov	 esi, ecx
  0000a	ff 15 00 00 00
	00		 call	 DWORD PTR __imp_??0exception@std@@QAE@ABQBD@Z
  00010	c7 06 00 00 00
	00		 mov	 DWORD PTR [esi], OFFSET ??_7bad_alloc@std@@6B@

; 346  : 		}

  00016	8b c6		 mov	 eax, esi
  00018	5e		 pop	 esi
  00019	5d		 pop	 ebp
  0001a	c2 04 00	 ret	 4
??0bad_alloc@std@@QAE@PBD@Z ENDP			; std::bad_alloc::bad_alloc
_TEXT	ENDS
PUBLIC	??1bad_alloc@std@@UAE@XZ			; std::bad_alloc::~bad_alloc
EXTRN	__imp_??1exception@std@@UAE@XZ:PROC
; Function compile flags: /Ogsp
;	COMDAT ??1bad_alloc@std@@UAE@XZ
_TEXT	SEGMENT
??1bad_alloc@std@@UAE@XZ PROC				; std::bad_alloc::~bad_alloc, COMDAT
; _this$ = ecx

; 354  : 		{	// destroy the object

  00000	c7 01 00 00 00
	00		 mov	 DWORD PTR [ecx], OFFSET ??_7bad_alloc@std@@6B@

; 355  : 		}

  00006	ff 25 00 00 00
	00		 jmp	 DWORD PTR __imp_??1exception@std@@UAE@XZ
??1bad_alloc@std@@UAE@XZ ENDP				; std::bad_alloc::~bad_alloc
_TEXT	ENDS
EXTRN	??3@YAXPAX@Z:PROC				; operator delete
; Function compile flags: /Ogsp
;	COMDAT ??_Gbad_alloc@std@@UAEPAXI@Z
_TEXT	SEGMENT
___flags$ = 8						; size = 4
??_Gbad_alloc@std@@UAEPAXI@Z PROC			; std::bad_alloc::`scalar deleting destructor', COMDAT
; _this$ = ecx
  00000	55		 push	 ebp
  00001	8b ec		 mov	 ebp, esp
  00003	56		 push	 esi
  00004	8b f1		 mov	 esi, ecx
  00006	c7 06 00 00 00
	00		 mov	 DWORD PTR [esi], OFFSET ??_7bad_alloc@std@@6B@
  0000c	ff 15 00 00 00
	00		 call	 DWORD PTR __imp_??1exception@std@@UAE@XZ
  00012	f6 45 08 01	 test	 BYTE PTR ___flags$[ebp], 1
  00016	74 07		 je	 SHORT $LN1@scalar
  00018	56		 push	 esi
  00019	e8 00 00 00 00	 call	 ??3@YAXPAX@Z		; operator delete
  0001e	59		 pop	 ecx
$LN1@scalar:
  0001f	8b c6		 mov	 eax, esi
  00021	5e		 pop	 esi
  00022	5d		 pop	 ebp
  00023	c2 04 00	 ret	 4
??_Gbad_alloc@std@@UAEPAXI@Z ENDP			; std::bad_alloc::`scalar deleting destructor'
_TEXT	ENDS
PUBLIC	??2@YAPAXIPAX@Z					; operator new
; Function compile flags: /Ogsp
; File c:\program files (x86)\microsoft visual studio 10.0\vc\include\new
;	COMDAT ??2@YAPAXIPAX@Z
_TEXT	SEGMENT
___formal$ = 8						; size = 4
__Where$ = 12						; size = 4
??2@YAPAXIPAX@Z PROC					; operator new, COMDAT

; 56   : 	{	// construct array with placement at _Where

  00000	55		 push	 ebp
  00001	8b ec		 mov	 ebp, esp

; 57   : 	return (_Where);

  00003	8b 45 0c	 mov	 eax, DWORD PTR __Where$[ebp]

; 58   : 	}

  00006	5d		 pop	 ebp
  00007	c3		 ret	 0
??2@YAPAXIPAX@Z ENDP					; operator new
_TEXT	ENDS
PUBLIC	??3@YAXPAX0@Z					; operator delete
; Function compile flags: /Ogsp
;	COMDAT ??3@YAXPAX0@Z
_TEXT	SEGMENT
___formal$ = 8						; size = 4
___formal$ = 12						; size = 4
??3@YAXPAX0@Z PROC					; operator delete, COMDAT

; 62   : 	}

  00000	c3		 ret	 0
??3@YAXPAX0@Z ENDP					; operator delete
_TEXT	ENDS
PUBLIC	?GetBaseCharList@ioPlayStage@@QBEABV?$vector@PAVioBaseChar@@V?$allocator@PAVioBaseChar@@@std@@@std@@XZ ; ioPlayStage::GetBaseCharList
; Function compile flags: /Ogsp
; File d:\lost saga for developer\youtube\tutorial\source\src\lsclient\ioplaystage.h
;	COMDAT ?GetBaseCharList@ioPlayStage@@QBEABV?$vector@PAVioBaseChar@@V?$allocator@PAVioBaseChar@@@std@@@std@@XZ
_TEXT	SEGMENT
?GetBaseCharList@ioPlayStage@@QBEABV?$vector@PAVioBaseChar@@V?$allocator@PAVioBaseChar@@@std@@@std@@XZ PROC ; ioPlayStage::GetBaseCharList, COMDAT
; _this$ = ecx

; 755  : 	const BaseCharList& GetBaseCharList() const { return m_BaseCharList; }

  00000	8d 41 2c	 lea	 eax, DWORD PTR [ecx+44]
  00003	c3		 ret	 0
?GetBaseCharList@ioPlayStage@@QBEABV?$vector@PAVioBaseChar@@V?$allocator@PAVioBaseChar@@@std@@@std@@XZ ENDP ; ioPlayStage::GetBaseCharList
_TEXT	ENDS
PUBLIC	??_R0?AVioWeapon@@@8				; ioWeapon `RTTI Type Descriptor'
PUBLIC	??_R0?AVioZoneEffectWeapon@@@8			; ioZoneEffectWeapon `RTTI Type Descriptor'
PUBLIC	?ToZoneEffectWeapon@@YAPAVioZoneEffectWeapon@@PAVioWeapon@@@Z ; ToZoneEffectWeapon
EXTRN	___RTDynamicCast:PROC
;	COMDAT ??_R0?AVioWeapon@@@8
; File d:\lost saga for developer\youtube\tutorial\source\src\lsclient\iozoneeffectweapon.h
_DATA	SEGMENT
??_R0?AVioWeapon@@@8 DD FLAT:??_7type_info@@6B@		; ioWeapon `RTTI Type Descriptor'
	DD	00H
	DB	'.?AVioWeapon@@', 00H
_DATA	ENDS
;	COMDAT ??_R0?AVioZoneEffectWeapon@@@8
_DATA	SEGMENT
??_R0?AVioZoneEffectWeapon@@@8 DD FLAT:??_7type_info@@6B@ ; ioZoneEffectWeapon `RTTI Type Descriptor'
	DD	00H
	DB	'.?AVioZoneEffectWeapon@@', 00H
; Function compile flags: /Ogsp
_DATA	ENDS
;	COMDAT ?ToZoneEffectWeapon@@YAPAVioZoneEffectWeapon@@PAVioWeapon@@@Z
_TEXT	SEGMENT
_pWeapon$ = 8						; size = 4
?ToZoneEffectWeapon@@YAPAVioZoneEffectWeapon@@PAVioWeapon@@@Z PROC ; ToZoneEffectWeapon, COMDAT

; 217  : {

  00000	55		 push	 ebp
  00001	8b ec		 mov	 ebp, esp
  00003	56		 push	 esi

; 218  : 	if( !pWeapon || pWeapon->GetType() != ioWeapon::WT_ZONE_EFFECT )

  00004	8b 75 08	 mov	 esi, DWORD PTR _pWeapon$[ebp]
  00007	85 f6		 test	 esi, esi
  00009	74 28		 je	 SHORT $LN1@ToZoneEffe
  0000b	8b 06		 mov	 eax, DWORD PTR [esi]
  0000d	8b ce		 mov	 ecx, esi
  0000f	ff 90 10 01 00
	00		 call	 DWORD PTR [eax+272]
  00015	83 f8 08	 cmp	 eax, 8
  00018	75 19		 jne	 SHORT $LN1@ToZoneEffe

; 220  : 
; 221  : 	return dynamic_cast< ioZoneEffectWeapon* >( pWeapon );

  0001a	6a 00		 push	 0
  0001c	68 00 00 00 00	 push	 OFFSET ??_R0?AVioZoneEffectWeapon@@@8
  00021	68 00 00 00 00	 push	 OFFSET ??_R0?AVioWeapon@@@8
  00026	6a 00		 push	 0
  00028	56		 push	 esi
  00029	e8 00 00 00 00	 call	 ___RTDynamicCast
  0002e	83 c4 14	 add	 esp, 20			; 00000014H
  00031	eb 02		 jmp	 SHORT $LN3@ToZoneEffe
$LN1@ToZoneEffe:

; 219  : 		return NULL;

  00033	33 c0		 xor	 eax, eax
$LN3@ToZoneEffe:
  00035	5e		 pop	 esi

; 222  : }

  00036	5d		 pop	 ebp
  00037	c3		 ret	 0
?ToZoneEffectWeapon@@YAPAVioZoneEffectWeapon@@PAVioWeapon@@@Z ENDP ; ToZoneEffectWeapon
_TEXT	ENDS
PUBLIC	?_Adopt@_Iterator_base0@std@@QAEXPBX@Z		; std::_Iterator_base0::_Adopt
; Function compile flags: /Ogsp
; File c:\program files (x86)\microsoft visual studio 10.0\vc\include\xutility
;	COMDAT ?_Adopt@_Iterator_base0@std@@QAEXPBX@Z
_TEXT	SEGMENT
___formal$ = 8						; size = 4
?_Adopt@_Iterator_base0@std@@QAEXPBX@Z PROC		; std::_Iterator_base0::_Adopt, COMDAT
; _this$ = ecx

; 49   : 		}

  00000	c2 04 00	 ret	 4
?_Adopt@_Iterator_base0@std@@QAEXPBX@Z ENDP		; std::_Iterator_base0::_Adopt
_TEXT	ENDS
PUBLIC	?OnSkillStart@ioTeleportAttackSkill3@@UAE_NPAVioBaseChar@@@Z ; ioTeleportAttackSkill3::OnSkillStart
EXTRN	__imp_?VEC3_ZERO@ioMath@@2UD3DXVECTOR3@@A:BYTE
EXTRN	?AttachEffect@ioBaseChar@@QAEPAVioEffect@@ABVioHashString@@PAVioEntityEvent@@_N@Z:PROC ; ioBaseChar::AttachEffect
EXTRN	?ReduceNeedGaugeBySkill@ioBaseChar@@QAEMPAVioSkill@@M@Z:PROC ; ioBaseChar::ReduceNeedGaugeBySkill
EXTRN	?GetNeedGauge@ioSkill@@QAEMABVioHashString@@@Z:PROC ; ioSkill::GetNeedGauge
EXTRN	?IncreaseWeaponIndexBase@ioBaseChar@@QAEKXZ:PROC ; ioBaseChar::IncreaseWeaponIndexBase
EXTRN	?ChangeSkillWeaponMesh@ioBaseChar@@QAE_NPAVioSkill@@ABVioHashString@@_N@Z:PROC ; ioBaseChar::ChangeSkillWeaponMesh
EXTRN	__imp_?IsEmpty@ioHashString@@QBE_NXZ:PROC
EXTRN	?ShowWeaponItemMesh@ioBaseChar@@QAEX_N0@Z:PROC	; ioBaseChar::ShowWeaponItemMesh
EXTRN	?OnSkillStart@ioNormalSkill@@UAE_NPAVioBaseChar@@@Z:PROC ; ioNormalSkill::OnSkillStart
; Function compile flags: /Ogsp
; File d:\lost saga for developer\youtube\tutorial\source\src\lsclient\ioteleportattackskill3.cpp
;	COMDAT ?OnSkillStart@ioTeleportAttackSkill3@@UAE_NPAVioBaseChar@@@Z
_TEXT	SEGMENT
_pChar$ = 8						; size = 4
?OnSkillStart@ioTeleportAttackSkill3@@UAE_NPAVioBaseChar@@@Z PROC ; ioTeleportAttackSkill3::OnSkillStart, COMDAT
; _this$ = ecx

; 88   : {

  00000	55		 push	 ebp
  00001	8b ec		 mov	 ebp, esp
  00003	56		 push	 esi

; 89   : 	if( !ioNormalSkill::OnSkillStart( pChar ) )

  00004	ff 75 08	 push	 DWORD PTR _pChar$[ebp]
  00007	8b f1		 mov	 esi, ecx
  00009	e8 00 00 00 00	 call	 ?OnSkillStart@ioNormalSkill@@UAE_NPAVioBaseChar@@@Z ; ioNormalSkill::OnSkillStart
  0000e	84 c0		 test	 al, al
  00010	0f 84 e5 00 00
	00		 je	 $LN5@OnSkillSta
$LN4@OnSkillSta:
  00016	53		 push	 ebx

; 90   : 		return false;
; 91   : 
; 92   : 	m_dwFireStartTime = 0;
; 93   : 	m_dwAttackEndTime = 0;
; 94   : 	m_bLinerAttackReserved = false;

  00017	33 db		 xor	 ebx, ebx
  00019	57		 push	 edi
  0001a	66 89 9e b8 10
	00 00		 mov	 WORD PTR [esi+4280], bx

; 95   : 	m_bBackTeleportReserved = false;
; 96   : 	m_nCurLinearComboIndex = 0;

  00021	89 9e bc 10 00
	00		 mov	 DWORD PTR [esi+4284], ebx

; 97   : 	m_CurDirKey = ioUserKeyInput::DKI_NONE;

  00027	89 9e c0 10 00
	00		 mov	 DWORD PTR [esi+4288], ebx

; 98   : 
; 99   : 
; 100  : 	m_dwFireStartTime = 0;

  0002d	89 9e 60 0f 00
	00		 mov	 DWORD PTR [esi+3936], ebx

; 101  : 	m_dwAttackEndTime = 0;

  00033	89 9e 64 0f 00
	00		 mov	 DWORD PTR [esi+3940], ebx

; 102  : 
; 103  : 	m_bSetHandMesh = false;

  00039	88 9e 0a 0f 00
	00		 mov	 BYTE PTR [esi+3850], bl

; 104  : 
; 105  : 	m_SkillState = SS_NONE;

  0003f	89 9e 58 0f 00
	00		 mov	 DWORD PTR [esi+3928], ebx

; 106  : 	m_AttackState = AS_NONE;

  00045	89 9e 5c 0f 00
	00		 mov	 DWORD PTR [esi+3932], ebx

; 107  : 
; 108  : 	// 기본 무기 손에서 제거
; 109  : 	if( m_bUseItemMesh )

  0004b	38 9e 08 0f 00
	00		 cmp	 BYTE PTR [esi+3848], bl
  00051	74 0a		 je	 SHORT $LN3@OnSkillSta

; 110  : 		pChar->ShowWeaponItemMesh( false );

  00053	8b 4d 08	 mov	 ecx, DWORD PTR _pChar$[ebp]
  00056	53		 push	 ebx
  00057	53		 push	 ebx
  00058	e8 00 00 00 00	 call	 ?ShowWeaponItemMesh@ioBaseChar@@QAEX_N0@Z ; ioBaseChar::ShowWeaponItemMesh
$LN3@OnSkillSta:

; 111  : 
; 112  : 	if( !m_bSetHandMesh && m_bUseItemMesh && !m_HandMesh.IsEmpty() )

  0005d	38 9e 0a 0f 00
	00		 cmp	 BYTE PTR [esi+3850], bl
  00063	75 37		 jne	 SHORT $LN9@OnSkillSta
  00065	38 9e 08 0f 00
	00		 cmp	 BYTE PTR [esi+3848], bl
  0006b	74 2f		 je	 SHORT $LN9@OnSkillSta
  0006d	8d be f8 0e 00
	00		 lea	 edi, DWORD PTR [esi+3832]
  00073	8b cf		 mov	 ecx, edi
  00075	ff 15 00 00 00
	00		 call	 DWORD PTR __imp_?IsEmpty@ioHashString@@QBE_NXZ
  0007b	84 c0		 test	 al, al
  0007d	75 1d		 jne	 SHORT $LN9@OnSkillSta

; 113  : 	{
; 114  : 		pChar->ChangeSkillWeaponMesh( this, m_HandMesh, m_bVisibleEquipMesh );

  0007f	0f b6 86 09 0f
	00 00		 movzx	 eax, BYTE PTR [esi+3849]
  00086	50		 push	 eax
  00087	57		 push	 edi
  00088	8b 7d 08	 mov	 edi, DWORD PTR _pChar$[ebp]
  0008b	56		 push	 esi
  0008c	8b cf		 mov	 ecx, edi
  0008e	e8 00 00 00 00	 call	 ?ChangeSkillWeaponMesh@ioBaseChar@@QAE_NPAVioSkill@@ABVioHashString@@_N@Z ; ioBaseChar::ChangeSkillWeaponMesh

; 115  : 		m_bSetHandMesh = true;

  00093	c6 86 0a 0f 00
	00 01		 mov	 BYTE PTR [esi+3850], 1
  0009a	eb 03		 jmp	 SHORT $LN2@OnSkillSta
$LN9@OnSkillSta:
  0009c	8b 7d 08	 mov	 edi, DWORD PTR _pChar$[ebp]
$LN2@OnSkillSta:

; 116  : 	}
; 117  : 
; 118  : 	m_dwWeaponBaseIndex = pChar->IncreaseWeaponIndexBase();

  0009f	8b cf		 mov	 ecx, edi
  000a1	e8 00 00 00 00	 call	 ?IncreaseWeaponIndexBase@ioBaseChar@@QAEKXZ ; ioBaseChar::IncreaseWeaponIndexBase
  000a6	89 86 a4 0f 00
	00		 mov	 DWORD PTR [esi+4004], eax

; 119  : 
; 120  : 	if( !m_bReduceGauge )

  000ac	38 9e 50 03 00
	00		 cmp	 BYTE PTR [esi+848], bl
  000b2	75 23		 jne	 SHORT $LN1@OnSkillSta

; 121  : 	{
; 122  : 		pChar->ReduceNeedGaugeBySkill( this, GetNeedGauge(pChar->GetCharName()) );

  000b4	8d 87 d4 02 00
	00		 lea	 eax, DWORD PTR [edi+724]
  000ba	50		 push	 eax
  000bb	8b ce		 mov	 ecx, esi
  000bd	e8 00 00 00 00	 call	 ?GetNeedGauge@ioSkill@@QAEMABVioHashString@@@Z ; ioSkill::GetNeedGauge
  000c2	51		 push	 ecx
  000c3	d9 1c 24	 fstp	 DWORD PTR [esp]
  000c6	56		 push	 esi
  000c7	8b cf		 mov	 ecx, edi
  000c9	e8 00 00 00 00	 call	 ?ReduceNeedGaugeBySkill@ioBaseChar@@QAEMPAVioSkill@@M@Z ; ioBaseChar::ReduceNeedGaugeBySkill
  000ce	dd d8		 fstp	 ST(0)

; 123  : 		m_bReduceGauge = true;

  000d0	c6 86 50 03 00
	00 01		 mov	 BYTE PTR [esi+848], 1
$LN1@OnSkillSta:

; 124  : 	}
; 125  : 
; 126  : 	pChar->AttachEffect( m_SkillEffectName );

  000d7	6a 01		 push	 1
  000d9	53		 push	 ebx
  000da	8d 86 b8 01 00
	00		 lea	 eax, DWORD PTR [esi+440]
  000e0	50		 push	 eax
  000e1	8b cf		 mov	 ecx, edi
  000e3	e8 00 00 00 00	 call	 ?AttachEffect@ioBaseChar@@QAEPAVioEffect@@ABVioHashString@@PAVioEntityEvent@@_N@Z ; ioBaseChar::AttachEffect

; 127  : 
; 128  : 	m_vCurMoveDir = ioMath::VEC3_ZERO;

  000e8	8d be c4 10 00
	00		 lea	 edi, DWORD PTR [esi+4292]
  000ee	8b 35 00 00 00
	00		 mov	 esi, DWORD PTR __imp_?VEC3_ZERO@ioMath@@2UD3DXVECTOR3@@A
  000f4	a5		 movsd
  000f5	a5		 movsd
  000f6	a5		 movsd
  000f7	5f		 pop	 edi

; 129  : 
; 130  : 	return true;

  000f8	b0 01		 mov	 al, 1
  000fa	5b		 pop	 ebx
$LN5@OnSkillSta:
  000fb	5e		 pop	 esi

; 131  : }

  000fc	5d		 pop	 ebp
  000fd	c2 04 00	 ret	 4
?OnSkillStart@ioTeleportAttackSkill3@@UAE_NPAVioBaseChar@@@Z ENDP ; ioTeleportAttackSkill3::OnSkillStart
_TEXT	ENDS
PUBLIC	?ProcessLandAttack@ioTeleportAttackSkill3@@IAEXPAVioBaseChar@@@Z ; ioTeleportAttackSkill3::ProcessLandAttack
EXTRN	?IsAttackKey@ioBaseChar@@QBE_NXZ:PROC		; ioBaseChar::IsAttackKey
; Function compile flags: /Ogsp
;	COMDAT ?ProcessLandAttack@ioTeleportAttackSkill3@@IAEXPAVioBaseChar@@@Z
_TEXT	SEGMENT
_pChar$ = 8						; size = 4
?ProcessLandAttack@ioTeleportAttackSkill3@@IAEXPAVioBaseChar@@@Z PROC ; ioTeleportAttackSkill3::ProcessLandAttack, COMDAT
; _this$ = ecx

; 203  : {

  00000	55		 push	 ebp
  00001	8b ec		 mov	 ebp, esp
  00003	56		 push	 esi
  00004	8b f1		 mov	 esi, ecx

; 204  : 	if( pChar->IsAttackKey() )

  00006	8b 4d 08	 mov	 ecx, DWORD PTR _pChar$[ebp]
  00009	e8 00 00 00 00	 call	 ?IsAttackKey@ioBaseChar@@QBE_NXZ ; ioBaseChar::IsAttackKey
  0000e	84 c0		 test	 al, al
  00010	74 07		 je	 SHORT $LN1@ProcessLan

; 205  : 		m_bLinerAttackReserved = true;

  00012	c6 86 b8 10 00
	00 01		 mov	 BYTE PTR [esi+4280], 1
$LN1@ProcessLan:
  00019	5e		 pop	 esi

; 206  : }

  0001a	5d		 pop	 ebp
  0001b	c2 04 00	 ret	 4
?ProcessLandAttack@ioTeleportAttackSkill3@@IAEXPAVioBaseChar@@@Z ENDP ; ioTeleportAttackSkill3::ProcessLandAttack
_TEXT	ENDS
PUBLIC	?OnSkillEnd@ioTeleportAttackSkill3@@UAEXPAVioBaseChar@@@Z ; ioTeleportAttackSkill3::OnSkillEnd
EXTRN	?OnSkillEnd@ioNormalSkill@@UAEXPAVioBaseChar@@@Z:PROC ; ioNormalSkill::OnSkillEnd
EXTRN	?EndEffect@ioBaseChar@@QAEXABVioHashString@@_N1@Z:PROC ; ioBaseChar::EndEffect
EXTRN	?RestoreSkillWeaponMesh@ioBaseChar@@QAE_NPAVioSkill@@ABVioHashString@@_N2@Z:PROC ; ioBaseChar::RestoreSkillWeaponMesh
; Function compile flags: /Ogsp
;	COMDAT ?OnSkillEnd@ioTeleportAttackSkill3@@UAEXPAVioBaseChar@@@Z
_TEXT	SEGMENT
_pChar$ = 8						; size = 4
?OnSkillEnd@ioTeleportAttackSkill3@@UAEXPAVioBaseChar@@@Z PROC ; ioTeleportAttackSkill3::OnSkillEnd, COMDAT
; _this$ = ecx

; 261  : {

  00000	55		 push	 ebp
  00001	8b ec		 mov	 ebp, esp
  00003	53		 push	 ebx
  00004	56		 push	 esi
  00005	8b f1		 mov	 esi, ecx

; 262  : 	m_dwFireStartTime = 0;

  00007	33 db		 xor	 ebx, ebx
  00009	57		 push	 edi

; 263  : 
; 264  : 	// 기본무기 장착
; 265  : 	if( m_bUseItemMesh )

  0000a	8b 7d 08	 mov	 edi, DWORD PTR _pChar$[ebp]
  0000d	89 9e 60 0f 00
	00		 mov	 DWORD PTR [esi+3936], ebx
  00013	38 9e 08 0f 00
	00		 cmp	 BYTE PTR [esi+3848], bl
  00019	74 0a		 je	 SHORT $LN2@OnSkillEnd

; 266  : 		pChar->ShowWeaponItemMesh( true );

  0001b	53		 push	 ebx
  0001c	6a 01		 push	 1
  0001e	8b cf		 mov	 ecx, edi
  00020	e8 00 00 00 00	 call	 ?ShowWeaponItemMesh@ioBaseChar@@QAEX_N0@Z ; ioBaseChar::ShowWeaponItemMesh
$LN2@OnSkillEnd:

; 267  : 
; 268  : 	if( !m_HandMesh.IsEmpty() )

  00025	8d 8e f8 0e 00
	00		 lea	 ecx, DWORD PTR [esi+3832]
  0002b	ff 15 00 00 00
	00		 call	 DWORD PTR __imp_?IsEmpty@ioHashString@@QBE_NXZ
  00031	84 c0		 test	 al, al
  00033	75 18		 jne	 SHORT $LN1@OnSkillEnd

; 269  : 		pChar->RestoreSkillWeaponMesh( this, m_HandMesh, m_bVisibleEquipMesh );

  00035	0f b6 86 09 0f
	00 00		 movzx	 eax, BYTE PTR [esi+3849]
  0003c	53		 push	 ebx
  0003d	50		 push	 eax
  0003e	8d 86 f8 0e 00
	00		 lea	 eax, DWORD PTR [esi+3832]
  00044	50		 push	 eax
  00045	56		 push	 esi
  00046	8b cf		 mov	 ecx, edi
  00048	e8 00 00 00 00	 call	 ?RestoreSkillWeaponMesh@ioBaseChar@@QAE_NPAVioSkill@@ABVioHashString@@_N2@Z ; ioBaseChar::RestoreSkillWeaponMesh
$LN1@OnSkillEnd:

; 270  : 
; 271  : 	m_bSetHandMesh = false;
; 272  : 
; 273  : 	pChar->EndEffect( m_SkillEffectName, false );

  0004d	6a 01		 push	 1
  0004f	53		 push	 ebx
  00050	8d 86 b8 01 00
	00		 lea	 eax, DWORD PTR [esi+440]
  00056	50		 push	 eax
  00057	8b cf		 mov	 ecx, edi
  00059	88 9e 0a 0f 00
	00		 mov	 BYTE PTR [esi+3850], bl
  0005f	e8 00 00 00 00	 call	 ?EndEffect@ioBaseChar@@QAEXABVioHashString@@_N1@Z ; ioBaseChar::EndEffect

; 274  : 
; 275  : 	ioNormalSkill::OnSkillEnd( pChar );

  00064	57		 push	 edi
  00065	8b ce		 mov	 ecx, esi
  00067	e8 00 00 00 00	 call	 ?OnSkillEnd@ioNormalSkill@@UAEXPAVioBaseChar@@@Z ; ioNormalSkill::OnSkillEnd
  0006c	5f		 pop	 edi
  0006d	5e		 pop	 esi
  0006e	5b		 pop	 ebx

; 276  : }

  0006f	5d		 pop	 ebp
  00070	c2 04 00	 ret	 4
?OnSkillEnd@ioTeleportAttackSkill3@@UAEXPAVioBaseChar@@@Z ENDP ; ioTeleportAttackSkill3::OnSkillEnd
_TEXT	ENDS
PUBLIC	?ApplyAttributeToWeapon@ioTeleportAttackSkill3@@UAEXPAVioWeapon@@PAVioPlayStage@@@Z ; ioTeleportAttackSkill3::ApplyAttributeToWeapon
EXTRN	?SetZoneValue@ioZoneEffectWeapon@@QAEX_N0@Z:PROC ; ioZoneEffectWeapon::SetZoneValue
EXTRN	?SetCollisionDir@ioZoneEffectWeapon@@QAEXAAUD3DXVECTOR3@@@Z:PROC ; ioZoneEffectWeapon::SetCollisionDir
EXTRN	?ApplyAttributeToWeapon@ioSkill@@UAEXPAVioWeapon@@PAVioPlayStage@@@Z:PROC ; ioSkill::ApplyAttributeToWeapon
; Function compile flags: /Ogsp
;	COMDAT ?ApplyAttributeToWeapon@ioTeleportAttackSkill3@@UAEXPAVioWeapon@@PAVioPlayStage@@@Z
_TEXT	SEGMENT
_pWeapon$ = 8						; size = 4
_pStage$ = 12						; size = 4
?ApplyAttributeToWeapon@ioTeleportAttackSkill3@@UAEXPAVioWeapon@@PAVioPlayStage@@@Z PROC ; ioTeleportAttackSkill3::ApplyAttributeToWeapon, COMDAT
; _this$ = ecx

; 281  : {

  00000	55		 push	 ebp
  00001	8b ec		 mov	 ebp, esp
  00003	56		 push	 esi
  00004	57		 push	 edi

; 282  : 	ioSkill::ApplyAttributeToWeapon( pWeapon, pStage );

  00005	ff 75 0c	 push	 DWORD PTR _pStage$[ebp]
  00008	8b f1		 mov	 esi, ecx
  0000a	ff 75 08	 push	 DWORD PTR _pWeapon$[ebp]
  0000d	e8 00 00 00 00	 call	 ?ApplyAttributeToWeapon@ioSkill@@UAEXPAVioWeapon@@PAVioPlayStage@@@Z ; ioSkill::ApplyAttributeToWeapon

; 283  : 
; 284  : 	ioZoneEffectWeapon *pZoneEffect = ToZoneEffectWeapon( pWeapon );

  00012	ff 75 08	 push	 DWORD PTR _pWeapon$[ebp]
  00015	e8 00 00 00 00	 call	 ?ToZoneEffectWeapon@@YAPAVioZoneEffectWeapon@@PAVioWeapon@@@Z ; ToZoneEffectWeapon
  0001a	8b f8		 mov	 edi, eax
  0001c	59		 pop	 ecx

; 285  : 	if( pZoneEffect )

  0001d	85 ff		 test	 edi, edi
  0001f	74 19		 je	 SHORT $LN1@ApplyAttri

; 286  : 	{
; 287  : 		pZoneEffect->SetCollisionDir( m_vCurMoveDir );

  00021	81 c6 c4 10 00
	00		 add	 esi, 4292		; 000010c4H
  00027	56		 push	 esi
  00028	8b cf		 mov	 ecx, edi
  0002a	e8 00 00 00 00	 call	 ?SetCollisionDir@ioZoneEffectWeapon@@QAEXAAUD3DXVECTOR3@@@Z ; ioZoneEffectWeapon::SetCollisionDir

; 288  : 		pZoneEffect->SetZoneValue( true, true );

  0002f	6a 01		 push	 1
  00031	6a 01		 push	 1
  00033	8b cf		 mov	 ecx, edi
  00035	e8 00 00 00 00	 call	 ?SetZoneValue@ioZoneEffectWeapon@@QAEX_N0@Z ; ioZoneEffectWeapon::SetZoneValue
$LN1@ApplyAttri:
  0003a	5f		 pop	 edi
  0003b	5e		 pop	 esi

; 289  : 	}
; 290  : }

  0003c	5d		 pop	 ebp
  0003d	c2 08 00	 ret	 8
?ApplyAttributeToWeapon@ioTeleportAttackSkill3@@UAEXPAVioWeapon@@PAVioPlayStage@@@Z ENDP ; ioTeleportAttackSkill3::ApplyAttributeToWeapon
_TEXT	ENDS
PUBLIC	?IsSkillMotionEnd@ioTeleportAttackSkill3@@UBE_NKPAVioBaseChar@@@Z ; ioTeleportAttackSkill3::IsSkillMotionEnd
; Function compile flags: /Ogsp
;	COMDAT ?IsSkillMotionEnd@ioTeleportAttackSkill3@@UBE_NKPAVioBaseChar@@@Z
_TEXT	SEGMENT
_dwActionStop$ = 8					; size = 4
_pOwner$ = 12						; size = 4
?IsSkillMotionEnd@ioTeleportAttackSkill3@@UBE_NKPAVioBaseChar@@@Z PROC ; ioTeleportAttackSkill3::IsSkillMotionEnd, COMDAT
; _this$ = ecx

; 354  : 	if( m_dwPreDelayStartTime > 0 )

  00000	83 b9 20 02 00
	00 00		 cmp	 DWORD PTR [ecx+544], 0
  00007	76 04		 jbe	 SHORT $LN5@IsSkillMot
$LN8@IsSkillMot:

; 355  : 		return false;

  00009	32 c0		 xor	 al, al
  0000b	eb 11		 jmp	 SHORT $LN6@IsSkillMot
$LN5@IsSkillMot:

; 356  : 
; 357  : 	switch( m_SkillState )

  0000d	8b 89 58 0f 00
	00		 mov	 ecx, DWORD PTR [ecx+3928]
  00013	85 c9		 test	 ecx, ecx
  00015	78 05		 js	 SHORT $LN3@IsSkillMot
  00017	83 f9 05	 cmp	 ecx, 5

; 358  : 	{
; 359  : 	case SS_NONE:
; 360  : 	case SS_JUMP:
; 361  : 	case SS_LAND_ATTACK:
; 362  : 	case SS_LINEAR_ATTACK:
; 363  : 	case SS_END_ATTACK:
; 364  : 	case SS_BACK_MOVE:
; 365  : 		return false;

  0001a	7e ed		 jle	 SHORT $LN8@IsSkillMot
$LN3@IsSkillMot:

; 366  : 	case SS_END:
; 367  : 		return true;
; 368  : 	}
; 369  : 
; 370  : 	return true;

  0001c	b0 01		 mov	 al, 1
$LN6@IsSkillMot:

; 371  : }

  0001e	c2 08 00	 ret	 8
?IsSkillMotionEnd@ioTeleportAttackSkill3@@UBE_NKPAVioBaseChar@@@Z ENDP ; ioTeleportAttackSkill3::IsSkillMotionEnd
_TEXT	ENDS
PUBLIC	?IsAttackEndState@ioTeleportAttackSkill3@@UBE_NXZ ; ioTeleportAttackSkill3::IsAttackEndState
EXTRN	__imp_?GetLoopSec@ioFrameTimer@@QBEKXZ:PROC
EXTRN	__imp_?GetSingleton@ioFrameTimer@@SAAAV1@XZ:PROC
; Function compile flags: /Ogsp
;	COMDAT ?IsAttackEndState@ioTeleportAttackSkill3@@UBE_NXZ
_TEXT	SEGMENT
?IsAttackEndState@ioTeleportAttackSkill3@@UBE_NXZ PROC	; ioTeleportAttackSkill3::IsAttackEndState, COMDAT
; _this$ = ecx

; 374  : {

  00000	56		 push	 esi
  00001	8b f1		 mov	 esi, ecx

; 375  : 	if( m_dwAttackEndTime > 0 && m_dwAttackEndTime < FRAMEGETTIME() )

  00003	83 be 64 0f 00
	00 00		 cmp	 DWORD PTR [esi+3940], 0
  0000a	57		 push	 edi
  0000b	76 22		 jbe	 SHORT $LN3@IsAttackEn
  0000d	ff 15 00 00 00
	00		 call	 DWORD PTR __imp_?GetSingleton@ioFrameTimer@@SAAAV1@XZ
  00013	8b c8		 mov	 ecx, eax
  00015	ff 15 00 00 00
	00		 call	 DWORD PTR __imp_?GetLoopSec@ioFrameTimer@@QBEKXZ
  0001b	39 86 64 0f 00
	00		 cmp	 DWORD PTR [esi+3940], eax
  00021	73 0c		 jae	 SHORT $LN3@IsAttackEn

; 376  : 	{
; 377  : 		if( m_AttackState == AS_FLOAT )

  00023	83 be 5c 0f 00
	00 02		 cmp	 DWORD PTR [esi+3932], 2
  0002a	0f 94 c0	 sete	 al

; 378  : 			return true;
; 379  : 		else
; 380  : 			return false;

  0002d	eb 16		 jmp	 SHORT $LN6@IsAttackEn
$LN3@IsAttackEn:

; 381  : 	}
; 382  : 
; 383  : 	if( m_SkillState == SS_END || m_SkillState == SS_BACK_MOVE )

  0002f	8b b6 58 0f 00
	00		 mov	 esi, DWORD PTR [esi+3928]
  00035	83 fe 06	 cmp	 esi, 6
  00038	74 09		 je	 SHORT $LN1@IsAttackEn
  0003a	83 fe 05	 cmp	 esi, 5
  0003d	74 04		 je	 SHORT $LN1@IsAttackEn

; 385  : 
; 386  : 	return false;

  0003f	32 c0		 xor	 al, al
  00041	eb 02		 jmp	 SHORT $LN6@IsAttackEn
$LN1@IsAttackEn:

; 384  : 		return true;

  00043	b0 01		 mov	 al, 1
$LN6@IsAttackEn:
  00045	5f		 pop	 edi
  00046	5e		 pop	 esi

; 387  : }

  00047	c3		 ret	 0
?IsAttackEndState@ioTeleportAttackSkill3@@UBE_NXZ ENDP	; ioTeleportAttackSkill3::IsAttackEndState
_TEXT	ENDS
PUBLIC	?IsNoDropState@ioTeleportAttackSkill3@@UBE_NXZ	; ioTeleportAttackSkill3::IsNoDropState
; Function compile flags: /Ogsp
;	COMDAT ?IsNoDropState@ioTeleportAttackSkill3@@UBE_NXZ
_TEXT	SEGMENT
?IsNoDropState@ioTeleportAttackSkill3@@UBE_NXZ PROC	; ioTeleportAttackSkill3::IsNoDropState, COMDAT
; _this$ = ecx

; 391  : 	if( m_SkillState == SS_BACK_MOVE )

  00000	83 b9 58 0f 00
	00 05		 cmp	 DWORD PTR [ecx+3928], 5
  00007	0f 94 c0	 sete	 al

; 392  : 		return true;
; 393  : 
; 394  : 	return false;
; 395  : }

  0000a	c3		 ret	 0
?IsNoDropState@ioTeleportAttackSkill3@@UBE_NXZ ENDP	; ioTeleportAttackSkill3::IsNoDropState
_TEXT	ENDS
PUBLIC	?IsEnableTarget@ioTeleportAttackSkill3@@IAE_NPAVioBaseChar@@@Z ; ioTeleportAttackSkill3::IsEnableTarget
EXTRN	?IsFloating@ioBaseChar@@QAE_NXZ:PROC		; ioBaseChar::IsFloating
EXTRN	?IsApplyDownState@ioBaseChar@@QAE_N_N@Z:PROC	; ioBaseChar::IsApplyDownState
; Function compile flags: /Ogsp
;	COMDAT ?IsEnableTarget@ioTeleportAttackSkill3@@IAE_NPAVioBaseChar@@@Z
_TEXT	SEGMENT
_pChar$ = 8						; size = 4
?IsEnableTarget@ioTeleportAttackSkill3@@IAE_NPAVioBaseChar@@@Z PROC ; ioTeleportAttackSkill3::IsEnableTarget, COMDAT
; _this$ = ecx

; 834  : {

  00000	55		 push	 ebp
  00001	8b ec		 mov	 ebp, esp
  00003	56		 push	 esi

; 835  : 	if( !pChar ) return false;

  00004	8b 75 08	 mov	 esi, DWORD PTR _pChar$[ebp]
  00007	85 f6		 test	 esi, esi
  00009	75 04		 jne	 SHORT $LN18@IsEnableTa
$LN29@IsEnableTa:
  0000b	32 c0		 xor	 al, al
  0000d	eb 27		 jmp	 SHORT $LN19@IsEnableTa
$LN18@IsEnableTa:

; 836  : 
; 837  : 	// 쓰러짐 관련 체크
; 838  : 	if( m_SkillWoundType == TWT_AIR_WOUND_EXCEPT ) // 쓰러짐중 공중상태는 패스

  0000f	8b 81 98 0f 00
	00		 mov	 eax, DWORD PTR [ecx+3992]
  00015	83 f8 02	 cmp	 eax, 2
  00018	75 21		 jne	 SHORT $LN17@IsEnableTa

; 839  : 	{
; 840  : 		if( pChar->IsApplyDownState() && !pChar->IsApplyDownState(false) )

  0001a	6a 01		 push	 1
  0001c	8b ce		 mov	 ecx, esi
  0001e	e8 00 00 00 00	 call	 ?IsApplyDownState@ioBaseChar@@QAE_N_N@Z ; ioBaseChar::IsApplyDownState
  00023	84 c0		 test	 al, al
  00025	74 0d		 je	 SHORT $LN2@IsEnableTa
  00027	6a 00		 push	 0
  00029	8b ce		 mov	 ecx, esi
  0002b	e8 00 00 00 00	 call	 ?IsApplyDownState@ioBaseChar@@QAE_N_N@Z ; ioBaseChar::IsApplyDownState
$LN31@IsEnableTa:
  00030	84 c0		 test	 al, al
$LN30@IsEnableTa:
  00032	74 d7		 je	 SHORT $LN29@IsEnableTa
$LN2@IsEnableTa:

; 869  : 		}
; 870  : 	}
; 871  : 
; 872  : 	return true;

  00034	b0 01		 mov	 al, 1
$LN19@IsEnableTa:
  00036	5e		 pop	 esi

; 873  : }

  00037	5d		 pop	 ebp
  00038	c2 04 00	 ret	 4
$LN17@IsEnableTa:

; 841  : 			return false;
; 842  : 	}
; 843  : 	else if( m_SkillWoundType == TWT_DOWN_WOUND_EXCEPT ) // 쓰러짐중 바닥상태는 패스

  0003b	83 f8 03	 cmp	 eax, 3
  0003e	75 0f		 jne	 SHORT $LN14@IsEnableTa

; 844  : 	{
; 845  : 		if( pChar->IsApplyDownState(false) )

  00040	6a 00		 push	 0
  00042	8b ce		 mov	 ecx, esi
  00044	e8 00 00 00 00	 call	 ?IsApplyDownState@ioBaseChar@@QAE_N_N@Z ; ioBaseChar::IsApplyDownState
$LN32@IsEnableTa:
  00049	84 c0		 test	 al, al
  0004b	74 e7		 je	 SHORT $LN2@IsEnableTa

; 846  : 			return false;

  0004d	eb bc		 jmp	 SHORT $LN29@IsEnableTa
$LN14@IsEnableTa:

; 847  : 	}
; 848  : 	else if( m_SkillWoundType == TWT_ALL_WOUND_EXCEPT )

  0004f	83 f8 04	 cmp	 eax, 4
  00052	75 23		 jne	 SHORT $LN11@IsEnableTa

; 849  : 	{
; 850  : 		if( pChar->IsApplyDownState() ||
; 851  : 			( pChar->GetState() == CS_GRAPPLING_WOUNDED ||
; 852  : 			pChar->GetState() == CS_GRAPPLING_PUSHED ||
; 853  : 			pChar->GetState() == CS_GRAPPLING_WOUNDED_SKILL ||
; 854  : 			pChar->GetState() == CS_GRAPPLING_WOUNDED_SWING ) )

  00054	6a 01		 push	 1
  00056	8b ce		 mov	 ecx, esi
  00058	e8 00 00 00 00	 call	 ?IsApplyDownState@ioBaseChar@@QAE_N_N@Z ; ioBaseChar::IsApplyDownState
  0005d	84 c0		 test	 al, al
  0005f	75 aa		 jne	 SHORT $LN29@IsEnableTa
  00061	8a 86 10 03 00
	00		 mov	 al, BYTE PTR [esi+784]
  00067	3c 41		 cmp	 al, 65			; 00000041H
  00069	74 a0		 je	 SHORT $LN29@IsEnableTa
  0006b	3c 42		 cmp	 al, 66			; 00000042H
  0006d	74 9c		 je	 SHORT $LN29@IsEnableTa
  0006f	3c 43		 cmp	 al, 67			; 00000043H
  00071	74 98		 je	 SHORT $LN29@IsEnableTa
  00073	3c 44		 cmp	 al, 68			; 00000044H

; 855  : 		{
; 856  : 			return false;

  00075	eb bb		 jmp	 SHORT $LN30@IsEnableTa
$LN11@IsEnableTa:

; 857  : 		}
; 858  : 	}
; 859  : 	else if( m_SkillWoundType == TWT_FLOATING_STATE )	// 공중에 뜬 상태가 아니면 패스

  00077	83 f8 06	 cmp	 eax, 6
  0007a	75 09		 jne	 SHORT $LN6@IsEnableTa

; 860  : 	{
; 861  : 		if( !pChar->IsFloating() )

  0007c	8b ce		 mov	 ecx, esi
  0007e	e8 00 00 00 00	 call	 ?IsFloating@ioBaseChar@@QAE_NXZ ; ioBaseChar::IsFloating

; 862  : 			return false;

  00083	eb ab		 jmp	 SHORT $LN31@IsEnableTa
$LN6@IsEnableTa:

; 863  : 	}
; 864  : 	else if( m_SkillWoundType == TWT_DOWN_WOUNDED ) //바닥에 쓰러져 있지 않거나 공중에 뜬 상태면 패스

  00085	83 f8 08	 cmp	 eax, 8
  00088	75 aa		 jne	 SHORT $LN2@IsEnableTa

; 865  : 	{	
; 866  : 		if( !pChar->IsApplyDownState() || pChar->IsFloating() )

  0008a	6a 01		 push	 1
  0008c	8b ce		 mov	 ecx, esi
  0008e	e8 00 00 00 00	 call	 ?IsApplyDownState@ioBaseChar@@QAE_N_N@Z ; ioBaseChar::IsApplyDownState
  00093	84 c0		 test	 al, al
  00095	0f 84 70 ff ff
	ff		 je	 $LN29@IsEnableTa
  0009b	8b ce		 mov	 ecx, esi
  0009d	e8 00 00 00 00	 call	 ?IsFloating@ioBaseChar@@QAE_NXZ ; ioBaseChar::IsFloating

; 867  : 		{	
; 868  : 			return false;

  000a2	eb a5		 jmp	 SHORT $LN32@IsEnableTa
?IsEnableTarget@ioTeleportAttackSkill3@@IAE_NPAVioBaseChar@@@Z ENDP ; ioTeleportAttackSkill3::IsEnableTarget
_TEXT	ENDS
PUBLIC	?CheckLanding@ioTeleportAttackSkill3@@IAE_NPAVioPlayStage@@PAVioBaseChar@@@Z ; ioTeleportAttackSkill3::CheckLanding
EXTRN	?GetMapHeightOnlyTerrain@ioPlayStage@@QAEMMMM@Z:PROC ; ioPlayStage::GetMapHeightOnlyTerrain
; Function compile flags: /Ogsp
;	COMDAT ?CheckLanding@ioTeleportAttackSkill3@@IAE_NPAVioPlayStage@@PAVioBaseChar@@@Z
_TEXT	SEGMENT
_vPos$ = -12						; size = 12
tv169 = 8						; size = 4
tv165 = 8						; size = 4
_fMapHeight$ = 8					; size = 4
_pStage$ = 8						; size = 4
_pChar$ = 12						; size = 4
?CheckLanding@ioTeleportAttackSkill3@@IAE_NPAVioPlayStage@@PAVioBaseChar@@@Z PROC ; ioTeleportAttackSkill3::CheckLanding, COMDAT
; _this$ = ecx

; 876  : {

  00000	55		 push	 ebp
  00001	8b ec		 mov	 ebp, esp
  00003	83 ec 0c	 sub	 esp, 12			; 0000000cH

; 877  : 	if ( !pStage || !pChar || !pChar->IsNeedProcess() )

  00006	83 7d 08 00	 cmp	 DWORD PTR _pStage$[ebp], 0
  0000a	53		 push	 ebx
  0000b	56		 push	 esi
  0000c	8b d9		 mov	 ebx, ecx
  0000e	74 76		 je	 SHORT $LN2@CheckLandi
  00010	8b 75 0c	 mov	 esi, DWORD PTR _pChar$[ebp]
  00013	85 f6		 test	 esi, esi
  00015	74 6f		 je	 SHORT $LN2@CheckLandi
  00017	8b 06		 mov	 eax, DWORD PTR [esi]
  00019	8b ce		 mov	 ecx, esi
  0001b	ff 90 00 01 00
	00		 call	 DWORD PTR [eax+256]
  00021	84 c0		 test	 al, al
  00023	74 61		 je	 SHORT $LN2@CheckLandi

; 879  : 
; 880  : 	D3DXVECTOR3 vPos = pChar->GetWorldPosition();

  00025	8b 06		 mov	 eax, DWORD PTR [esi]
  00027	57		 push	 edi
  00028	8b ce		 mov	 ecx, esi
  0002a	ff 50 70	 call	 DWORD PTR [eax+112]

; 881  : 	float fHeightGap = 0.0f;
; 882  : 	float fHeight = vPos.y;
; 883  : 	float fMapHeight = pStage->GetMapHeightOnlyTerrain( vPos.x, vPos.z );

  0002d	0f 57 c0	 xorps	 xmm0, xmm0
  00030	8b 4d 08	 mov	 ecx, DWORD PTR _pStage$[ebp]
  00033	8b f0		 mov	 esi, eax
  00035	8d 7d f4	 lea	 edi, DWORD PTR _vPos$[ebp]
  00038	a5		 movsd
  00039	a5		 movsd
  0003a	83 ec 0c	 sub	 esp, 12			; 0000000cH
  0003d	f3 0f 11 44 24
	08		 movss	 DWORD PTR [esp+8], xmm0
  00043	a5		 movsd
  00044	f3 0f 10 45 fc	 movss	 xmm0, DWORD PTR _vPos$[ebp+8]
  00049	f3 0f 11 44 24
	04		 movss	 DWORD PTR [esp+4], xmm0
  0004f	f3 0f 10 45 f4	 movss	 xmm0, DWORD PTR _vPos$[ebp]
  00054	f3 0f 11 04 24	 movss	 DWORD PTR [esp], xmm0
  00059	e8 00 00 00 00	 call	 ?GetMapHeightOnlyTerrain@ioPlayStage@@QAEMMMM@Z ; ioPlayStage::GetMapHeightOnlyTerrain
  0005e	d9 5d 08	 fstp	 DWORD PTR _fMapHeight$[ebp]

; 884  : 
; 885  : 	fHeightGap = fHeight - fMapHeight;
; 886  : 
; 887  : 	if( abs( fHeightGap ) <= m_fSetHeightGap )

  00061	d9 45 f8	 fld	 DWORD PTR _vPos$[ebp+4]
  00064	5f		 pop	 edi
  00065	d8 65 08	 fsub	 DWORD PTR _fMapHeight$[ebp]
  00068	d9 5d 08	 fstp	 DWORD PTR tv169[ebp]
  0006b	d9 45 08	 fld	 DWORD PTR tv169[ebp]
  0006e	d9 e1		 fabs
  00070	d9 5d 08	 fstp	 DWORD PTR tv165[ebp]
  00073	d9 45 08	 fld	 DWORD PTR tv165[ebp]
  00076	d9 83 9c 0f 00
	00		 fld	 DWORD PTR [ebx+3996]
  0007c	df f1		 fcomip	 ST(1)
  0007e	dd d8		 fstp	 ST(0)
  00080	72 04		 jb	 SHORT $LN2@CheckLandi

; 888  : 		return true;

  00082	b0 01		 mov	 al, 1
  00084	eb 02		 jmp	 SHORT $LN4@CheckLandi
$LN2@CheckLandi:

; 878  : 		return false;

  00086	32 c0		 xor	 al, al
$LN4@CheckLandi:
  00088	5e		 pop	 esi
  00089	5b		 pop	 ebx

; 889  : 
; 890  : 	return false;
; 891  : }

  0008a	c9		 leave
  0008b	c2 08 00	 ret	 8
?CheckLanding@ioTeleportAttackSkill3@@IAE_NPAVioPlayStage@@PAVioBaseChar@@@Z ENDP ; ioTeleportAttackSkill3::CheckLanding
_TEXT	ENDS
PUBLIC	?size@?$vector@UAttackAttribute@@V?$allocator@UAttackAttribute@@@std@@@std@@QBEIXZ ; std::vector<AttackAttribute,std::allocator<AttackAttribute> >::size
; Function compile flags: /Ogsp
; File c:\program files (x86)\microsoft visual studio 10.0\vc\include\vector
;	COMDAT ?size@?$vector@UAttackAttribute@@V?$allocator@UAttackAttribute@@@std@@@std@@QBEIXZ
_TEXT	SEGMENT
?size@?$vector@UAttackAttribute@@V?$allocator@UAttackAttribute@@@std@@@std@@QBEIXZ PROC ; std::vector<AttackAttribute,std::allocator<AttackAttribute> >::size, COMDAT
; _this$ = ecx

; 879  : 		return (this->_Mylast - this->_Myfirst);

  00000	8b 41 04	 mov	 eax, DWORD PTR [ecx+4]
  00003	2b 01		 sub	 eax, DWORD PTR [ecx]
  00005	6a 50		 push	 80			; 00000050H
  00007	99		 cdq
  00008	59		 pop	 ecx
  00009	f7 f9		 idiv	 ecx

; 880  : 		}

  0000b	c3		 ret	 0
?size@?$vector@UAttackAttribute@@V?$allocator@UAttackAttribute@@@std@@@std@@QBEIXZ ENDP ; std::vector<AttackAttribute,std::allocator<AttackAttribute> >::size
_TEXT	ENDS
PUBLIC	??A?$vector@UAttackAttribute@@V?$allocator@UAttackAttribute@@@std@@@std@@QAEAAUAttackAttribute@@I@Z ; std::vector<AttackAttribute,std::allocator<AttackAttribute> >::operator[]
; Function compile flags: /Ogsp
;	COMDAT ??A?$vector@UAttackAttribute@@V?$allocator@UAttackAttribute@@@std@@@std@@QAEAAUAttackAttribute@@I@Z
_TEXT	SEGMENT
__Pos$ = 8						; size = 4
??A?$vector@UAttackAttribute@@V?$allocator@UAttackAttribute@@@std@@@std@@QAEAAUAttackAttribute@@I@Z PROC ; std::vector<AttackAttribute,std::allocator<AttackAttribute> >::operator[], COMDAT
; _this$ = ecx

; 928  : 		{	// subscript mutable sequence

  00000	55		 push	 ebp
  00001	8b ec		 mov	 ebp, esp

; 929  :  #if _ITERATOR_DEBUG_LEVEL == 2
; 930  : 		if (size() <= _Pos)
; 931  : 			{	// report error
; 932  : 			_DEBUG_ERROR("vector subscript out of range");
; 933  : 			_SCL_SECURE_OUT_OF_RANGE;
; 934  : 			}
; 935  : 
; 936  :  #elif _ITERATOR_DEBUG_LEVEL == 1
; 937  : 		_SCL_SECURE_VALIDATE_RANGE(_Pos < size());
; 938  :  #endif /* _ITERATOR_DEBUG_LEVEL */
; 939  : 
; 940  : 		return (*(this->_Myfirst + _Pos));

  00003	8b 45 08	 mov	 eax, DWORD PTR __Pos$[ebp]
  00006	6b c0 50	 imul	 eax, 80			; 00000050H
  00009	03 01		 add	 eax, DWORD PTR [ecx]

; 941  : 		}

  0000b	5d		 pop	 ebp
  0000c	c2 04 00	 ret	 4
??A?$vector@UAttackAttribute@@V?$allocator@UAttackAttribute@@@std@@@std@@QAEAAUAttackAttribute@@I@Z ENDP ; std::vector<AttackAttribute,std::allocator<AttackAttribute> >::operator[]
_TEXT	ENDS
PUBLIC	??0?$_Vector_const_iterator@V?$_Vector_val@PAVioBaseChar@@V?$allocator@PAVioBaseChar@@@std@@@std@@@std@@QAE@XZ ; std::_Vector_const_iterator<std::_Vector_val<ioBaseChar *,std::allocator<ioBaseChar *> > >::_Vector_const_iterator<std::_Vector_val<ioBaseChar *,std::allocator<ioBaseChar *> > >
; Function compile flags: /Ogsp
;	COMDAT ??0?$_Vector_const_iterator@V?$_Vector_val@PAVioBaseChar@@V?$allocator@PAVioBaseChar@@@std@@@std@@@std@@QAE@XZ
_TEXT	SEGMENT
??0?$_Vector_const_iterator@V?$_Vector_val@PAVioBaseChar@@V?$allocator@PAVioBaseChar@@@std@@@std@@@std@@QAE@XZ PROC ; std::_Vector_const_iterator<std::_Vector_val<ioBaseChar *,std::allocator<ioBaseChar *> > >::_Vector_const_iterator<std::_Vector_val<ioBaseChar *,std::allocator<ioBaseChar *> > >, COMDAT
; _this$ = ecx

; 40   : 		{	// construct with null pointer

  00000	8b c1		 mov	 eax, ecx
  00002	83 20 00	 and	 DWORD PTR [eax], 0

; 41   : 		}

  00005	c3		 ret	 0
??0?$_Vector_const_iterator@V?$_Vector_val@PAVioBaseChar@@V?$allocator@PAVioBaseChar@@@std@@@std@@@std@@QAE@XZ ENDP ; std::_Vector_const_iterator<std::_Vector_val<ioBaseChar *,std::allocator<ioBaseChar *> > >::_Vector_const_iterator<std::_Vector_val<ioBaseChar *,std::allocator<ioBaseChar *> > >
_TEXT	ENDS
PUBLIC	??D?$_Vector_const_iterator@V?$_Vector_val@PAVioBaseChar@@V?$allocator@PAVioBaseChar@@@std@@@std@@@std@@QBEABQAVioBaseChar@@XZ ; std::_Vector_const_iterator<std::_Vector_val<ioBaseChar *,std::allocator<ioBaseChar *> > >::operator*
; Function compile flags: /Ogsp
;	COMDAT ??D?$_Vector_const_iterator@V?$_Vector_val@PAVioBaseChar@@V?$allocator@PAVioBaseChar@@@std@@@std@@@std@@QBEABQAVioBaseChar@@XZ
_TEXT	SEGMENT
??D?$_Vector_const_iterator@V?$_Vector_val@PAVioBaseChar@@V?$allocator@PAVioBaseChar@@@std@@@std@@@std@@QBEABQAVioBaseChar@@XZ PROC ; std::_Vector_const_iterator<std::_Vector_val<ioBaseChar *,std::allocator<ioBaseChar *> > >::operator*, COMDAT
; _this$ = ecx

; 64   :  #if _ITERATOR_DEBUG_LEVEL == 2
; 65   : 		if (this->_Getcont() == 0
; 66   : 			|| this->_Ptr == 0
; 67   : 			|| this->_Ptr < ((_Myvec *)this->_Getcont())->_Myfirst
; 68   : 			|| ((_Myvec *)this->_Getcont())->_Mylast <= this->_Ptr)
; 69   : 			{	// report error
; 70   : 			_DEBUG_ERROR("vector iterator not dereferencable");
; 71   : 			_SCL_SECURE_OUT_OF_RANGE;
; 72   : 			}
; 73   : 
; 74   :  #elif _ITERATOR_DEBUG_LEVEL == 1
; 75   : 		_SCL_SECURE_VALIDATE(this->_Getcont() != 0);
; 76   : 		_SCL_SECURE_VALIDATE_RANGE(
; 77   : 			this->_Ptr != 0
; 78   : 			&& ((_Myvec *)this->_Getcont())->_Myfirst <= this->_Ptr
; 79   : 			&& this->_Ptr < ((_Myvec *)this->_Getcont())->_Mylast);
; 80   :  #endif /* _ITERATOR_DEBUG_LEVEL */
; 81   : 
; 82   : 		__analysis_assume(this->_Ptr != 0);
; 83   : 
; 84   : 		return (*this->_Ptr);

  00000	8b 01		 mov	 eax, DWORD PTR [ecx]

; 85   : 		}

  00002	c3		 ret	 0
??D?$_Vector_const_iterator@V?$_Vector_val@PAVioBaseChar@@V?$allocator@PAVioBaseChar@@@std@@@std@@@std@@QBEABQAVioBaseChar@@XZ ENDP ; std::_Vector_const_iterator<std::_Vector_val<ioBaseChar *,std::allocator<ioBaseChar *> > >::operator*
_TEXT	ENDS
PUBLIC	??E?$_Vector_const_iterator@V?$_Vector_val@PAVioBaseChar@@V?$allocator@PAVioBaseChar@@@std@@@std@@@std@@QAEAAV01@XZ ; std::_Vector_const_iterator<std::_Vector_val<ioBaseChar *,std::allocator<ioBaseChar *> > >::operator++
; Function compile flags: /Ogsp
;	COMDAT ??E?$_Vector_const_iterator@V?$_Vector_val@PAVioBaseChar@@V?$allocator@PAVioBaseChar@@@std@@@std@@@std@@QAEAAV01@XZ
_TEXT	SEGMENT
??E?$_Vector_const_iterator@V?$_Vector_val@PAVioBaseChar@@V?$allocator@PAVioBaseChar@@@std@@@std@@@std@@QAEAAV01@XZ PROC ; std::_Vector_const_iterator<std::_Vector_val<ioBaseChar *,std::allocator<ioBaseChar *> > >::operator++, COMDAT
; _this$ = ecx

; 93   : 		{	// preincrement

  00000	8b c1		 mov	 eax, ecx

; 94   :  #if _ITERATOR_DEBUG_LEVEL == 2
; 95   : 		if (this->_Getcont() == 0
; 96   : 			|| this->_Ptr == 0
; 97   : 			|| ((_Myvec *)this->_Getcont())->_Mylast <= this->_Ptr)
; 98   : 			{	// report error
; 99   : 			_DEBUG_ERROR("vector iterator not incrementable");
; 100  : 			_SCL_SECURE_OUT_OF_RANGE;
; 101  : 			}
; 102  : 
; 103  :  #elif _ITERATOR_DEBUG_LEVEL == 1
; 104  : 		_SCL_SECURE_VALIDATE(this->_Getcont() != 0);
; 105  : 		_SCL_SECURE_VALIDATE_RANGE(
; 106  : 			this->_Ptr != 0
; 107  : 			&& this->_Ptr < ((_Myvec *)this->_Getcont())->_Mylast);
; 108  :  #endif /* _ITERATOR_DEBUG_LEVEL */
; 109  : 
; 110  : 		++this->_Ptr;

  00002	83 00 04	 add	 DWORD PTR [eax], 4

; 111  : 		return (*this);
; 112  : 		}

  00005	c3		 ret	 0
??E?$_Vector_const_iterator@V?$_Vector_val@PAVioBaseChar@@V?$allocator@PAVioBaseChar@@@std@@@std@@@std@@QAEAAV01@XZ ENDP ; std::_Vector_const_iterator<std::_Vector_val<ioBaseChar *,std::allocator<ioBaseChar *> > >::operator++
_TEXT	ENDS
PUBLIC	?_Inside@?$vector@UAttackAttribute@@V?$allocator@UAttackAttribute@@@std@@@std@@IBE_NPBUAttackAttribute@@@Z ; std::vector<AttackAttribute,std::allocator<AttackAttribute> >::_Inside
; Function compile flags: /Ogsp
;	COMDAT ?_Inside@?$vector@UAttackAttribute@@V?$allocator@UAttackAttribute@@@std@@@std@@IBE_NPBUAttackAttribute@@@Z
_TEXT	SEGMENT
__Ptr$ = 8						; size = 4
?_Inside@?$vector@UAttackAttribute@@V?$allocator@UAttackAttribute@@@std@@@std@@IBE_NPBUAttackAttribute@@@Z PROC ; std::vector<AttackAttribute,std::allocator<AttackAttribute> >::_Inside, COMDAT
; _this$ = ecx

; 1285 : 		{	// test if _Ptr points inside vector

  00000	55		 push	 ebp
  00001	8b ec		 mov	 ebp, esp

; 1286 : 		return (_Ptr < this->_Mylast && this->_Myfirst <= _Ptr);

  00003	8b 45 08	 mov	 eax, DWORD PTR __Ptr$[ebp]
  00006	3b 41 04	 cmp	 eax, DWORD PTR [ecx+4]
  00009	73 09		 jae	 SHORT $LN3@Inside
  0000b	39 01		 cmp	 DWORD PTR [ecx], eax
  0000d	77 05		 ja	 SHORT $LN3@Inside
  0000f	33 c0		 xor	 eax, eax
  00011	40		 inc	 eax
  00012	eb 02		 jmp	 SHORT $LN4@Inside
$LN3@Inside:
  00014	33 c0		 xor	 eax, eax
$LN4@Inside:

; 1287 : 		}

  00016	5d		 pop	 ebp
  00017	c2 04 00	 ret	 4
?_Inside@?$vector@UAttackAttribute@@V?$allocator@UAttackAttribute@@@std@@@std@@IBE_NPBUAttackAttribute@@@Z ENDP ; std::vector<AttackAttribute,std::allocator<AttackAttribute> >::_Inside
_TEXT	ENDS
PUBLIC	?_Orphan_range@?$vector@UAttackAttribute@@V?$allocator@UAttackAttribute@@@std@@@std@@IBEXPAUAttackAttribute@@0@Z ; std::vector<AttackAttribute,std::allocator<AttackAttribute> >::_Orphan_range
; Function compile flags: /Ogsp
;	COMDAT ?_Orphan_range@?$vector@UAttackAttribute@@V?$allocator@UAttackAttribute@@@std@@@std@@IBEXPAUAttackAttribute@@0@Z
_TEXT	SEGMENT
___formal$ = 8						; size = 4
___formal$ = 12						; size = 4
?_Orphan_range@?$vector@UAttackAttribute@@V?$allocator@UAttackAttribute@@@std@@@std@@IBEXPAUAttackAttribute@@0@Z PROC ; std::vector<AttackAttribute,std::allocator<AttackAttribute> >::_Orphan_range, COMDAT
; _this$ = ecx

; 1454 : 		}

  00000	c2 08 00	 ret	 8
?_Orphan_range@?$vector@UAttackAttribute@@V?$allocator@UAttackAttribute@@@std@@@std@@IBEXPAUAttackAttribute@@0@Z ENDP ; std::vector<AttackAttribute,std::allocator<AttackAttribute> >::_Orphan_range
_TEXT	ENDS
PUBLIC	??0?$_Vector_const_iterator@V?$_Vector_val@PAVioBaseChar@@V?$allocator@PAVioBaseChar@@@std@@@std@@@std@@QAE@PAPAVioBaseChar@@PBU_Container_base0@1@@Z ; std::_Vector_const_iterator<std::_Vector_val<ioBaseChar *,std::allocator<ioBaseChar *> > >::_Vector_const_iterator<std::_Vector_val<ioBaseChar *,std::allocator<ioBaseChar *> > >
; Function compile flags: /Ogsp
;	COMDAT ??0?$_Vector_const_iterator@V?$_Vector_val@PAVioBaseChar@@V?$allocator@PAVioBaseChar@@@std@@@std@@@std@@QAE@PAPAVioBaseChar@@PBU_Container_base0@1@@Z
_TEXT	SEGMENT
__Parg$ = 8						; size = 4
__Pvector$ = 12						; size = 4
??0?$_Vector_const_iterator@V?$_Vector_val@PAVioBaseChar@@V?$allocator@PAVioBaseChar@@@std@@@std@@@std@@QAE@PAPAVioBaseChar@@PBU_Container_base0@1@@Z PROC ; std::_Vector_const_iterator<std::_Vector_val<ioBaseChar *,std::allocator<ioBaseChar *> > >::_Vector_const_iterator<std::_Vector_val<ioBaseChar *,std::allocator<ioBaseChar *> > >, COMDAT
; _this$ = ecx

; 45   : 		{	// construct with pointer _Parg

  00000	55		 push	 ebp
  00001	8b ec		 mov	 ebp, esp
  00003	8b c1		 mov	 eax, ecx
  00005	8b 4d 08	 mov	 ecx, DWORD PTR __Parg$[ebp]
  00008	89 08		 mov	 DWORD PTR [eax], ecx

; 46   : 		this->_Adopt(_Pvector);
; 47   : 		}

  0000a	5d		 pop	 ebp
  0000b	c2 08 00	 ret	 8
??0?$_Vector_const_iterator@V?$_Vector_val@PAVioBaseChar@@V?$allocator@PAVioBaseChar@@@std@@@std@@@std@@QAE@PAPAVioBaseChar@@PBU_Container_base0@1@@Z ENDP ; std::_Vector_const_iterator<std::_Vector_val<ioBaseChar *,std::allocator<ioBaseChar *> > >::_Vector_const_iterator<std::_Vector_val<ioBaseChar *,std::allocator<ioBaseChar *> > >
_TEXT	ENDS
PUBLIC	?capacity@?$vector@UAttackAttribute@@V?$allocator@UAttackAttribute@@@std@@@std@@QBEIXZ ; std::vector<AttackAttribute,std::allocator<AttackAttribute> >::capacity
; Function compile flags: /Ogsp
;	COMDAT ?capacity@?$vector@UAttackAttribute@@V?$allocator@UAttackAttribute@@@std@@@std@@QBEIXZ
_TEXT	SEGMENT
?capacity@?$vector@UAttackAttribute@@V?$allocator@UAttackAttribute@@@std@@@std@@QBEIXZ PROC ; std::vector<AttackAttribute,std::allocator<AttackAttribute> >::capacity, COMDAT
; _this$ = ecx

; 777  : 		return (this->_Myend - this->_Myfirst);

  00000	8b 41 08	 mov	 eax, DWORD PTR [ecx+8]
  00003	2b 01		 sub	 eax, DWORD PTR [ecx]
  00005	6a 50		 push	 80			; 00000050H
  00007	99		 cdq
  00008	59		 pop	 ecx
  00009	f7 f9		 idiv	 ecx

; 778  : 		}

  0000b	c3		 ret	 0
?capacity@?$vector@UAttackAttribute@@V?$allocator@UAttackAttribute@@@std@@@std@@QBEIXZ ENDP ; std::vector<AttackAttribute,std::allocator<AttackAttribute> >::capacity
_TEXT	ENDS
PUBLIC	??_C@_0BD@OLBABOEK@vector?$DMT?$DO?5too?5long?$AA@ ; `string'
PUBLIC	?_Xlen@?$vector@UAttackAttribute@@V?$allocator@UAttackAttribute@@@std@@@std@@IBEXXZ ; std::vector<AttackAttribute,std::allocator<AttackAttribute> >::_Xlen
EXTRN	__imp_?_Xlength_error@std@@YAXPBD@Z:PROC
;	COMDAT ??_C@_0BD@OLBABOEK@vector?$DMT?$DO?5too?5long?$AA@
CONST	SEGMENT
??_C@_0BD@OLBABOEK@vector?$DMT?$DO?5too?5long?$AA@ DB 'vector<T> too long'
	DB	00H						; `string'
; Function compile flags: /Ogsp
CONST	ENDS
;	COMDAT ?_Xlen@?$vector@UAttackAttribute@@V?$allocator@UAttackAttribute@@@std@@@std@@IBEXXZ
_TEXT	SEGMENT
?_Xlen@?$vector@UAttackAttribute@@V?$allocator@UAttackAttribute@@@std@@@std@@IBEXXZ PROC ; std::vector<AttackAttribute,std::allocator<AttackAttribute> >::_Xlen, COMDAT
; _this$ = ecx

; 1427 : 		_Xlength_error("vector<T> too long");

  00000	68 00 00 00 00	 push	 OFFSET ??_C@_0BD@OLBABOEK@vector?$DMT?$DO?5too?5long?$AA@
  00005	ff 15 00 00 00
	00		 call	 DWORD PTR __imp_?_Xlength_error@std@@YAXPBD@Z
$LN4@Xlen:
$LN3@Xlen:
  0000b	cc		 int	 3
?_Xlen@?$vector@UAttackAttribute@@V?$allocator@UAttackAttribute@@@std@@@std@@IBEXXZ ENDP ; std::vector<AttackAttribute,std::allocator<AttackAttribute> >::_Xlen
_TEXT	ENDS
PUBLIC	?_Compat@?$_Vector_const_iterator@V?$_Vector_val@PAVioBaseChar@@V?$allocator@PAVioBaseChar@@@std@@@std@@@std@@QBEXABV12@@Z ; std::_Vector_const_iterator<std::_Vector_val<ioBaseChar *,std::allocator<ioBaseChar *> > >::_Compat
; Function compile flags: /Ogsp
;	COMDAT ?_Compat@?$_Vector_const_iterator@V?$_Vector_val@PAVioBaseChar@@V?$allocator@PAVioBaseChar@@@std@@@std@@@std@@QBEXABV12@@Z
_TEXT	SEGMENT
___formal$ = 8						; size = 4
?_Compat@?$_Vector_const_iterator@V?$_Vector_val@PAVioBaseChar@@V?$allocator@PAVioBaseChar@@@std@@@std@@@std@@QBEXABV12@@Z PROC ; std::_Vector_const_iterator<std::_Vector_val<ioBaseChar *,std::allocator<ioBaseChar *> > >::_Compat, COMDAT
; _this$ = ecx

; 253  : 		}

  00000	c2 04 00	 ret	 4
?_Compat@?$_Vector_const_iterator@V?$_Vector_val@PAVioBaseChar@@V?$allocator@PAVioBaseChar@@@std@@@std@@@std@@QBEXABV12@@Z ENDP ; std::_Vector_const_iterator<std::_Vector_val<ioBaseChar *,std::allocator<ioBaseChar *> > >::_Compat
_TEXT	ENDS
PUBLIC	?max_size@?$allocator@UAttackAttribute@@@std@@QBEIXZ ; std::allocator<AttackAttribute>::max_size
; Function compile flags: /Ogsp
; File c:\program files (x86)\microsoft visual studio 10.0\vc\include\xmemory
;	COMDAT ?max_size@?$allocator@UAttackAttribute@@@std@@QBEIXZ
_TEXT	SEGMENT
?max_size@?$allocator@UAttackAttribute@@@std@@QBEIXZ PROC ; std::allocator<AttackAttribute>::max_size, COMDAT
; _this$ = ecx

; 218  : 		_SIZT _Count = (_SIZT)(-1) / sizeof (_Ty);
; 219  : 		return (0 < _Count ? _Count : 1);

  00000	b8 33 33 33 03	 mov	 eax, 53687091		; 03333333H

; 220  : 		}

  00005	c3		 ret	 0
?max_size@?$allocator@UAttackAttribute@@@std@@QBEIXZ ENDP ; std::allocator<AttackAttribute>::max_size
_TEXT	ENDS
PUBLIC	??0D3DXVECTOR3@@QAE@XZ				; D3DXVECTOR3::D3DXVECTOR3
; Function compile flags: /Ogsp
; File c:\program files (x86)\microsoft directx sdk (june 2010)\include\d3dx9math.h
;	COMDAT ??0D3DXVECTOR3@@QAE@XZ
_TEXT	SEGMENT
??0D3DXVECTOR3@@QAE@XZ PROC				; D3DXVECTOR3::D3DXVECTOR3, COMDAT
; _this$ = ecx

; 165  :     D3DXVECTOR3() {};

  00000	8b c1		 mov	 eax, ecx
  00002	c3		 ret	 0
??0D3DXVECTOR3@@QAE@XZ ENDP				; D3DXVECTOR3::D3DXVECTOR3
_TEXT	ENDS
PUBLIC	??0D3DXQUATERNION@@QAE@XZ			; D3DXQUATERNION::D3DXQUATERNION
; Function compile flags: /Ogsp
;	COMDAT ??0D3DXQUATERNION@@QAE@XZ
_TEXT	SEGMENT
??0D3DXQUATERNION@@QAE@XZ PROC				; D3DXQUATERNION::D3DXQUATERNION, COMDAT
; _this$ = ecx

; 429  :     D3DXQUATERNION() {}

  00000	8b c1		 mov	 eax, ecx
  00002	c3		 ret	 0
??0D3DXQUATERNION@@QAE@XZ ENDP				; D3DXQUATERNION::D3DXQUATERNION
_TEXT	ENDS
PUBLIC	__real@3f91df46a2526c7a
PUBLIC	??$DEGtoRAD@M@@YAMM@Z				; DEGtoRAD<float>
;	COMDAT __real@3f91df46a2526c7a
; File d:\lost saga for developer\youtube\tutorial\source\src\lsclient\veryoftenusedefine.h
CONST	SEGMENT
__real@3f91df46a2526c7a DQ 03f91df46a2526c7ar	; 0.0174533
; Function compile flags: /Ogsp
CONST	ENDS
;	COMDAT ??$DEGtoRAD@M@@YAMM@Z
_TEXT	SEGMENT
tv129 = 8						; size = 4
_val$ = 8						; size = 4
??$DEGtoRAD@M@@YAMM@Z PROC				; DEGtoRAD<float>, COMDAT

; 20   : type  DEGtoRAD (type val) {return (type) (val * 0.0174532925199);}

  00000	55		 push	 ebp
  00001	8b ec		 mov	 ebp, esp
  00003	d9 45 08	 fld	 DWORD PTR _val$[ebp]
  00006	dc 0d 00 00 00
	00		 fmul	 QWORD PTR __real@3f91df46a2526c7a
  0000c	d9 5d 08	 fstp	 DWORD PTR tv129[ebp]
  0000f	d9 45 08	 fld	 DWORD PTR tv129[ebp]
  00012	5d		 pop	 ebp
  00013	c3		 ret	 0
??$DEGtoRAD@M@@YAMM@Z ENDP				; DEGtoRAD<float>
_TEXT	ENDS
PUBLIC	??0D3DXVECTOR3@@QAE@MMM@Z			; D3DXVECTOR3::D3DXVECTOR3
; Function compile flags: /Ogsp
; File c:\program files (x86)\microsoft directx sdk (june 2010)\include\d3dx9math.inl
;	COMDAT ??0D3DXVECTOR3@@QAE@MMM@Z
_TEXT	SEGMENT
_fx$ = 8						; size = 4
_fy$ = 12						; size = 4
_fz$ = 16						; size = 4
??0D3DXVECTOR3@@QAE@MMM@Z PROC				; D3DXVECTOR3::D3DXVECTOR3, COMDAT
; _this$ = ecx

; 303  : {

  00000	55		 push	 ebp
  00001	8b ec		 mov	 ebp, esp

; 304  :     x = fx;

  00003	f3 0f 10 45 08	 movss	 xmm0, DWORD PTR _fx$[ebp]
  00008	8b c1		 mov	 eax, ecx
  0000a	f3 0f 11 00	 movss	 DWORD PTR [eax], xmm0

; 305  :     y = fy;

  0000e	f3 0f 10 45 0c	 movss	 xmm0, DWORD PTR _fy$[ebp]
  00013	f3 0f 11 40 04	 movss	 DWORD PTR [eax+4], xmm0

; 306  :     z = fz;

  00018	f3 0f 10 45 10	 movss	 xmm0, DWORD PTR _fz$[ebp]
  0001d	f3 0f 11 40 08	 movss	 DWORD PTR [eax+8], xmm0

; 307  : }

  00022	5d		 pop	 ebp
  00023	c2 0c 00	 ret	 12			; 0000000cH
??0D3DXVECTOR3@@QAE@MMM@Z ENDP				; D3DXVECTOR3::D3DXVECTOR3
_TEXT	ENDS
PUBLIC	??HD3DXVECTOR3@@QBE?AU0@ABU0@@Z			; D3DXVECTOR3::operator+
; Function compile flags: /Ogsp
;	COMDAT ??HD3DXVECTOR3@@QBE?AU0@ABU0@@Z
_TEXT	SEGMENT
___$ReturnUdt$ = 8					; size = 4
_v$ = 12						; size = 4
??HD3DXVECTOR3@@QBE?AU0@ABU0@@Z PROC			; D3DXVECTOR3::operator+, COMDAT
; _this$ = ecx

; 380  : {

  00000	55		 push	 ebp
  00001	8b ec		 mov	 ebp, esp

; 381  :     return D3DXVECTOR3(x + v.x, y + v.y, z + v.z);

  00003	8b 55 0c	 mov	 edx, DWORD PTR _v$[ebp]
  00006	f3 0f 10 02	 movss	 xmm0, DWORD PTR [edx]
  0000a	f3 0f 10 09	 movss	 xmm1, DWORD PTR [ecx]
  0000e	8b 45 08	 mov	 eax, DWORD PTR ___$ReturnUdt$[ebp]
  00011	0f 5a c0	 cvtps2pd xmm0, xmm0
  00014	0f 5a c9	 cvtps2pd xmm1, xmm1
  00017	f2 0f 58 c1	 addsd	 xmm0, xmm1
  0001b	f3 0f 10 49 04	 movss	 xmm1, DWORD PTR [ecx+4]
  00020	66 0f 5a c0	 cvtpd2ps xmm0, xmm0
  00024	f3 0f 11 00	 movss	 DWORD PTR [eax], xmm0
  00028	f3 0f 10 42 04	 movss	 xmm0, DWORD PTR [edx+4]
  0002d	0f 5a c0	 cvtps2pd xmm0, xmm0
  00030	0f 5a c9	 cvtps2pd xmm1, xmm1
  00033	f2 0f 58 c1	 addsd	 xmm0, xmm1
  00037	f3 0f 10 49 08	 movss	 xmm1, DWORD PTR [ecx+8]
  0003c	66 0f 5a c0	 cvtpd2ps xmm0, xmm0
  00040	f3 0f 11 40 04	 movss	 DWORD PTR [eax+4], xmm0
  00045	f3 0f 10 42 08	 movss	 xmm0, DWORD PTR [edx+8]
  0004a	0f 5a c0	 cvtps2pd xmm0, xmm0
  0004d	0f 5a c9	 cvtps2pd xmm1, xmm1
  00050	f2 0f 58 c1	 addsd	 xmm0, xmm1
  00054	66 0f 5a c0	 cvtpd2ps xmm0, xmm0
  00058	f3 0f 11 40 08	 movss	 DWORD PTR [eax+8], xmm0

; 382  : }

  0005d	5d		 pop	 ebp
  0005e	c2 08 00	 ret	 8
??HD3DXVECTOR3@@QBE?AU0@ABU0@@Z ENDP			; D3DXVECTOR3::operator+
_TEXT	ENDS
PUBLIC	??GD3DXVECTOR3@@QBE?AU0@ABU0@@Z			; D3DXVECTOR3::operator-
; Function compile flags: /Ogsp
;	COMDAT ??GD3DXVECTOR3@@QBE?AU0@ABU0@@Z
_TEXT	SEGMENT
___$ReturnUdt$ = 8					; size = 4
_v$ = 12						; size = 4
??GD3DXVECTOR3@@QBE?AU0@ABU0@@Z PROC			; D3DXVECTOR3::operator-, COMDAT
; _this$ = ecx

; 386  : {

  00000	55		 push	 ebp
  00001	8b ec		 mov	 ebp, esp

; 387  :     return D3DXVECTOR3(x - v.x, y - v.y, z - v.z);

  00003	8b 55 0c	 mov	 edx, DWORD PTR _v$[ebp]
  00006	f3 0f 10 01	 movss	 xmm0, DWORD PTR [ecx]
  0000a	f3 0f 10 0a	 movss	 xmm1, DWORD PTR [edx]
  0000e	8b 45 08	 mov	 eax, DWORD PTR ___$ReturnUdt$[ebp]
  00011	0f 5a c0	 cvtps2pd xmm0, xmm0
  00014	0f 5a c9	 cvtps2pd xmm1, xmm1
  00017	f2 0f 5c c1	 subsd	 xmm0, xmm1
  0001b	f3 0f 10 4a 04	 movss	 xmm1, DWORD PTR [edx+4]
  00020	66 0f 5a c0	 cvtpd2ps xmm0, xmm0
  00024	f3 0f 11 00	 movss	 DWORD PTR [eax], xmm0
  00028	f3 0f 10 41 04	 movss	 xmm0, DWORD PTR [ecx+4]
  0002d	0f 5a c0	 cvtps2pd xmm0, xmm0
  00030	0f 5a c9	 cvtps2pd xmm1, xmm1
  00033	f2 0f 5c c1	 subsd	 xmm0, xmm1
  00037	f3 0f 10 4a 08	 movss	 xmm1, DWORD PTR [edx+8]
  0003c	66 0f 5a c0	 cvtpd2ps xmm0, xmm0
  00040	f3 0f 11 40 04	 movss	 DWORD PTR [eax+4], xmm0
  00045	f3 0f 10 41 08	 movss	 xmm0, DWORD PTR [ecx+8]
  0004a	0f 5a c0	 cvtps2pd xmm0, xmm0
  0004d	0f 5a c9	 cvtps2pd xmm1, xmm1
  00050	f2 0f 5c c1	 subsd	 xmm0, xmm1
  00054	66 0f 5a c0	 cvtpd2ps xmm0, xmm0
  00058	f3 0f 11 40 08	 movss	 DWORD PTR [eax+8], xmm0

; 388  : }

  0005d	5d		 pop	 ebp
  0005e	c2 08 00	 ret	 8
??GD3DXVECTOR3@@QBE?AU0@ABU0@@Z ENDP			; D3DXVECTOR3::operator-
_TEXT	ENDS
PUBLIC	??DD3DXVECTOR3@@QBE?AU0@M@Z			; D3DXVECTOR3::operator*
; Function compile flags: /Ogsp
;	COMDAT ??DD3DXVECTOR3@@QBE?AU0@M@Z
_TEXT	SEGMENT
___$ReturnUdt$ = 8					; size = 4
_f$ = 12						; size = 4
??DD3DXVECTOR3@@QBE?AU0@M@Z PROC			; D3DXVECTOR3::operator*, COMDAT
; _this$ = ecx

; 392  : {

  00000	55		 push	 ebp
  00001	8b ec		 mov	 ebp, esp

; 393  :     return D3DXVECTOR3(x * f, y * f, z * f);

  00003	f3 0f 10 4d 0c	 movss	 xmm1, DWORD PTR _f$[ebp]
  00008	f3 0f 10 01	 movss	 xmm0, DWORD PTR [ecx]
  0000c	8b 45 08	 mov	 eax, DWORD PTR ___$ReturnUdt$[ebp]
  0000f	0f 5a c0	 cvtps2pd xmm0, xmm0
  00012	0f 5a c9	 cvtps2pd xmm1, xmm1
  00015	f2 0f 59 c1	 mulsd	 xmm0, xmm1
  00019	f3 0f 10 4d 0c	 movss	 xmm1, DWORD PTR _f$[ebp]
  0001e	66 0f 5a c0	 cvtpd2ps xmm0, xmm0
  00022	f3 0f 11 00	 movss	 DWORD PTR [eax], xmm0
  00026	f3 0f 10 41 04	 movss	 xmm0, DWORD PTR [ecx+4]
  0002b	0f 5a c0	 cvtps2pd xmm0, xmm0
  0002e	0f 5a c9	 cvtps2pd xmm1, xmm1
  00031	f2 0f 59 c1	 mulsd	 xmm0, xmm1
  00035	f3 0f 10 4d 0c	 movss	 xmm1, DWORD PTR _f$[ebp]
  0003a	66 0f 5a c0	 cvtpd2ps xmm0, xmm0
  0003e	f3 0f 11 40 04	 movss	 DWORD PTR [eax+4], xmm0
  00043	f3 0f 10 41 08	 movss	 xmm0, DWORD PTR [ecx+8]
  00048	0f 5a c0	 cvtps2pd xmm0, xmm0
  0004b	0f 5a c9	 cvtps2pd xmm1, xmm1
  0004e	f2 0f 59 c1	 mulsd	 xmm0, xmm1
  00052	66 0f 5a c0	 cvtpd2ps xmm0, xmm0
  00056	f3 0f 11 40 08	 movss	 DWORD PTR [eax+8], xmm0

; 394  : }

  0005b	5d		 pop	 ebp
  0005c	c2 08 00	 ret	 8
??DD3DXVECTOR3@@QBE?AU0@M@Z ENDP			; D3DXVECTOR3::operator*
_TEXT	ENDS
PUBLIC	??$addressof@$$CBUAttackAttribute@@@std@@YAPBUAttackAttribute@@ABU1@@Z ; std::addressof<AttackAttribute const >
; Function compile flags: /Ogsp
; File c:\program files (x86)\microsoft visual studio 10.0\vc\include\xmemory
;	COMDAT ??$addressof@$$CBUAttackAttribute@@@std@@YAPBUAttackAttribute@@ABU1@@Z
_TEXT	SEGMENT
__Val$ = 8						; size = 4
??$addressof@$$CBUAttackAttribute@@@std@@YAPBUAttackAttribute@@ABU1@@Z PROC ; std::addressof<AttackAttribute const >, COMDAT

; 110  : 	{	// return address of _Val

  00000	55		 push	 ebp
  00001	8b ec		 mov	 ebp, esp

; 111  : 	return ((_Ty *) &(char&)_Val);

  00003	8b 45 08	 mov	 eax, DWORD PTR __Val$[ebp]

; 112  : 	}

  00006	5d		 pop	 ebp
  00007	c3		 ret	 0
??$addressof@$$CBUAttackAttribute@@@std@@YAPBUAttackAttribute@@ABU1@@Z ENDP ; std::addressof<AttackAttribute const >
_TEXT	ENDS
PUBLIC	__TI2?AVbad_alloc@std@@
PUBLIC	??$_Allocate@UAttackAttribute@@@std@@YAPAUAttackAttribute@@IPAU1@@Z ; std::_Allocate<AttackAttribute>
PUBLIC	__CTA2?AVbad_alloc@std@@
PUBLIC	__CT??_R0?AVbad_alloc@std@@@8??0bad_alloc@std@@QAE@ABV01@@Z12
PUBLIC	??0bad_alloc@std@@QAE@ABV01@@Z			; std::bad_alloc::bad_alloc
PUBLIC	__CT??_R0?AVexception@std@@@8??0exception@std@@QAE@ABV01@@Z12
EXTRN	??2@YAPAXI@Z:PROC				; operator new
EXTRN	__CxxThrowException@8:PROC
EXTRN	??0exception@std@@QAE@ABV01@@Z:PROC		; std::exception::exception
;	COMDAT __CT??_R0?AVexception@std@@@8??0exception@std@@QAE@ABV01@@Z12
; File c:\program files (x86)\microsoft visual studio 10.0\vc\include\exception
xdata$x	SEGMENT
__CT??_R0?AVexception@std@@@8??0exception@std@@QAE@ABV01@@Z12 DD 00H
	DD	FLAT:??_R0?AVexception@std@@@8
	DD	00H
	DD	0ffffffffH
	ORG $+4
	DD	0cH
	DD	FLAT:??0exception@std@@QAE@ABV01@@Z
xdata$x	ENDS
;	COMDAT __CT??_R0?AVbad_alloc@std@@@8??0bad_alloc@std@@QAE@ABV01@@Z12
xdata$x	SEGMENT
__CT??_R0?AVbad_alloc@std@@@8??0bad_alloc@std@@QAE@ABV01@@Z12 DD 00H
	DD	FLAT:??_R0?AVbad_alloc@std@@@8
	DD	00H
	DD	0ffffffffH
	ORG $+4
	DD	0cH
	DD	FLAT:??0bad_alloc@std@@QAE@ABV01@@Z
xdata$x	ENDS
;	COMDAT __CTA2?AVbad_alloc@std@@
xdata$x	SEGMENT
__CTA2?AVbad_alloc@std@@ DD 02H
	DD	FLAT:__CT??_R0?AVbad_alloc@std@@@8??0bad_alloc@std@@QAE@ABV01@@Z12
	DD	FLAT:__CT??_R0?AVexception@std@@@8??0exception@std@@QAE@ABV01@@Z12
xdata$x	ENDS
;	COMDAT __TI2?AVbad_alloc@std@@
xdata$x	SEGMENT
__TI2?AVbad_alloc@std@@ DD 00H
	DD	FLAT:??1bad_alloc@std@@UAE@XZ
	DD	00H
	DD	FLAT:__CTA2?AVbad_alloc@std@@
; Function compile flags: /Ogsp
; File c:\program files (x86)\microsoft visual studio 10.0\vc\include\xmemory
xdata$x	ENDS
;	COMDAT ??$_Allocate@UAttackAttribute@@@std@@YAPAUAttackAttribute@@IPAU1@@Z
_TEXT	SEGMENT
$T552392 = -12						; size = 12
$T552397 = 8						; size = 4
__Count$ = 8						; size = 4
___formal$ = 12						; size = 4
??$_Allocate@UAttackAttribute@@@std@@YAPAUAttackAttribute@@IPAU1@@Z PROC ; std::_Allocate<AttackAttribute>, COMDAT

; 30   : 	{	// allocate storage for _Count elements of type _Ty

  00000	55		 push	 ebp
  00001	8b ec		 mov	 ebp, esp

; 31   : 	void *_Ptr = 0;
; 32   : 
; 33   : 	if (_Count <= 0)

  00003	8b 4d 08	 mov	 ecx, DWORD PTR __Count$[ebp]
  00006	83 ec 0c	 sub	 esp, 12			; 0000000cH
  00009	33 c0		 xor	 eax, eax
  0000b	85 c9		 test	 ecx, ecx

; 34   : 		_Count = 0;
; 35   : 	else if (((_SIZT)(-1) / sizeof (_Ty) < _Count)

  0000d	74 3c		 je	 SHORT $LN5@Allocate

; 36   : 		|| (_Ptr = ::operator new(_Count * sizeof (_Ty))) == 0)

  0000f	81 f9 33 33 33
	03		 cmp	 ecx, 53687091		; 03333333H
  00015	77 0e		 ja	 SHORT $LN1@Allocate
  00017	6b c9 50	 imul	 ecx, 80			; 00000050H
  0001a	51		 push	 ecx
  0001b	e8 00 00 00 00	 call	 ??2@YAPAXI@Z		; operator new
  00020	59		 pop	 ecx
  00021	85 c0		 test	 eax, eax

; 38   : 
; 39   : 	return ((_Ty _FARQ *)_Ptr);

  00023	75 26		 jne	 SHORT $LN5@Allocate
$LN1@Allocate:

; 37   : 		_THROW_NCEE(bad_alloc, 0);

  00025	83 65 08 00	 and	 DWORD PTR $T552397[ebp], 0
  00029	8d 45 08	 lea	 eax, DWORD PTR $T552397[ebp]
  0002c	50		 push	 eax
  0002d	8d 4d f4	 lea	 ecx, DWORD PTR $T552392[ebp]
  00030	ff 15 00 00 00
	00		 call	 DWORD PTR __imp_??0exception@std@@QAE@ABQBD@Z
  00036	68 00 00 00 00	 push	 OFFSET __TI2?AVbad_alloc@std@@
  0003b	8d 45 f4	 lea	 eax, DWORD PTR $T552392[ebp]
  0003e	50		 push	 eax
  0003f	c7 45 f4 00 00
	00 00		 mov	 DWORD PTR $T552392[ebp], OFFSET ??_7bad_alloc@std@@6B@
  00046	e8 00 00 00 00	 call	 __CxxThrowException@8
$LN10@Allocate:
$LN5@Allocate:

; 40   : 	}

  0004b	c9		 leave
  0004c	c3		 ret	 0
$LN9@Allocate:
??$_Allocate@UAttackAttribute@@@std@@YAPAUAttackAttribute@@IPAU1@@Z ENDP ; std::_Allocate<AttackAttribute>
_TEXT	ENDS
PUBLIC	??$forward@AAUAttackAttribute@@@std@@YAAAUAttackAttribute@@AAU1@@Z ; std::forward<AttackAttribute &>
; Function compile flags: /Ogsp
; File c:\program files (x86)\microsoft visual studio 10.0\vc\include\utility
;	COMDAT ??$forward@AAUAttackAttribute@@@std@@YAAAUAttackAttribute@@AAU1@@Z
_TEXT	SEGMENT
__Arg$ = 8						; size = 4
??$forward@AAUAttackAttribute@@@std@@YAAAUAttackAttribute@@AAU1@@Z PROC ; std::forward<AttackAttribute &>, COMDAT

; 78   : 	{	// forward _Arg, given explicitly specified type parameter

  00000	55		 push	 ebp
  00001	8b ec		 mov	 ebp, esp

; 79   : 	return ((_Ty&&)_Arg);

  00003	8b 45 08	 mov	 eax, DWORD PTR __Arg$[ebp]

; 80   : 	}

  00006	5d		 pop	 ebp
  00007	c3		 ret	 0
??$forward@AAUAttackAttribute@@@std@@YAAAUAttackAttribute@@AAU1@@Z ENDP ; std::forward<AttackAttribute &>
_TEXT	ENDS
PUBLIC	??$forward@ABUAttackAttribute@@@std@@YAABUAttackAttribute@@ABU1@@Z ; std::forward<AttackAttribute const &>
; Function compile flags: /Ogsp
;	COMDAT ??$forward@ABUAttackAttribute@@@std@@YAABUAttackAttribute@@ABU1@@Z
_TEXT	SEGMENT
__Arg$ = 8						; size = 4
??$forward@ABUAttackAttribute@@@std@@YAABUAttackAttribute@@ABU1@@Z PROC ; std::forward<AttackAttribute const &>, COMDAT

; 78   : 	{	// forward _Arg, given explicitly specified type parameter

  00000	55		 push	 ebp
  00001	8b ec		 mov	 ebp, esp

; 79   : 	return ((_Ty&&)_Arg);

  00003	8b 45 08	 mov	 eax, DWORD PTR __Arg$[ebp]

; 80   : 	}

  00006	5d		 pop	 ebp
  00007	c3		 ret	 0
??$forward@ABUAttackAttribute@@@std@@YAABUAttackAttribute@@ABU1@@Z ENDP ; std::forward<AttackAttribute const &>
_TEXT	ENDS
PUBLIC	??$_Ptr_cat@V?$_Vector_const_iterator@V?$_Vector_val@UWeaponInfo@@V?$allocator@UWeaponInfo@@@std@@@std@@@std@@PAUWeaponInfo@@@std@@YA?AU_Nonscalar_ptr_iterator_tag@0@AAV?$_Vector_const_iterator@V?$_Vector_val@UWeaponInfo@@V?$allocator@UWeaponInfo@@@std@@@std@@@0@AAPAUWeaponInfo@@@Z ; std::_Ptr_cat<std::_Vector_const_iterator<std::_Vector_val<WeaponInfo,std::allocator<WeaponInfo> > >,WeaponInfo *>
; Function compile flags: /Ogsp
; File c:\program files (x86)\microsoft visual studio 10.0\vc\include\xutility
;	COMDAT ??$_Ptr_cat@V?$_Vector_const_iterator@V?$_Vector_val@UWeaponInfo@@V?$allocator@UWeaponInfo@@@std@@@std@@@std@@PAUWeaponInfo@@@std@@YA?AU_Nonscalar_ptr_iterator_tag@0@AAV?$_Vector_const_iterator@V?$_Vector_val@UWeaponInfo@@V?$allocator@UWeaponInfo@@@std@@@std@@@0@AAPAUWeaponInfo@@@Z
_TEXT	SEGMENT
__Cat$ = -1						; size = 1
___formal$ = 8						; size = 4
___formal$ = 12						; size = 4
??$_Ptr_cat@V?$_Vector_const_iterator@V?$_Vector_val@UWeaponInfo@@V?$allocator@UWeaponInfo@@@std@@@std@@@std@@PAUWeaponInfo@@@std@@YA?AU_Nonscalar_ptr_iterator_tag@0@AAV?$_Vector_const_iterator@V?$_Vector_val@UWeaponInfo@@V?$allocator@UWeaponInfo@@@std@@@std@@@0@AAPAUWeaponInfo@@@Z PROC ; std::_Ptr_cat<std::_Vector_const_iterator<std::_Vector_val<WeaponInfo,std::allocator<WeaponInfo> > >,WeaponInfo *>, COMDAT

; 485  : 	{	// return pointer category from arbitrary arguments

  00000	55		 push	 ebp
  00001	8b ec		 mov	 ebp, esp
  00003	51		 push	 ecx

; 486  : 	_Nonscalar_ptr_iterator_tag _Cat;
; 487  : 	return (_Cat);

  00004	8a 45 ff	 mov	 al, BYTE PTR __Cat$[ebp]

; 488  : 	}

  00007	c9		 leave
  00008	c3		 ret	 0
??$_Ptr_cat@V?$_Vector_const_iterator@V?$_Vector_val@UWeaponInfo@@V?$allocator@UWeaponInfo@@@std@@@std@@@std@@PAUWeaponInfo@@@std@@YA?AU_Nonscalar_ptr_iterator_tag@0@AAV?$_Vector_const_iterator@V?$_Vector_val@UWeaponInfo@@V?$allocator@UWeaponInfo@@@std@@@std@@@0@AAPAUWeaponInfo@@@Z ENDP ; std::_Ptr_cat<std::_Vector_const_iterator<std::_Vector_val<WeaponInfo,std::allocator<WeaponInfo> > >,WeaponInfo *>
_TEXT	ENDS
PUBLIC	??$_Ptr_cat@V?$_Vector_const_iterator@V?$_Vector_val@UForceInfo@@V?$allocator@UForceInfo@@@std@@@std@@@std@@PAUForceInfo@@@std@@YA?AU_Nonscalar_ptr_iterator_tag@0@AAV?$_Vector_const_iterator@V?$_Vector_val@UForceInfo@@V?$allocator@UForceInfo@@@std@@@std@@@0@AAPAUForceInfo@@@Z ; std::_Ptr_cat<std::_Vector_const_iterator<std::_Vector_val<ForceInfo,std::allocator<ForceInfo> > >,ForceInfo *>
; Function compile flags: /Ogsp
;	COMDAT ??$_Ptr_cat@V?$_Vector_const_iterator@V?$_Vector_val@UForceInfo@@V?$allocator@UForceInfo@@@std@@@std@@@std@@PAUForceInfo@@@std@@YA?AU_Nonscalar_ptr_iterator_tag@0@AAV?$_Vector_const_iterator@V?$_Vector_val@UForceInfo@@V?$allocator@UForceInfo@@@std@@@std@@@0@AAPAUForceInfo@@@Z
_TEXT	SEGMENT
__Cat$ = -1						; size = 1
___formal$ = 8						; size = 4
___formal$ = 12						; size = 4
??$_Ptr_cat@V?$_Vector_const_iterator@V?$_Vector_val@UForceInfo@@V?$allocator@UForceInfo@@@std@@@std@@@std@@PAUForceInfo@@@std@@YA?AU_Nonscalar_ptr_iterator_tag@0@AAV?$_Vector_const_iterator@V?$_Vector_val@UForceInfo@@V?$allocator@UForceInfo@@@std@@@std@@@0@AAPAUForceInfo@@@Z PROC ; std::_Ptr_cat<std::_Vector_const_iterator<std::_Vector_val<ForceInfo,std::allocator<ForceInfo> > >,ForceInfo *>, COMDAT

; 485  : 	{	// return pointer category from arbitrary arguments

  00000	55		 push	 ebp
  00001	8b ec		 mov	 ebp, esp
  00003	51		 push	 ecx

; 486  : 	_Nonscalar_ptr_iterator_tag _Cat;
; 487  : 	return (_Cat);

  00004	8a 45 ff	 mov	 al, BYTE PTR __Cat$[ebp]

; 488  : 	}

  00007	c9		 leave
  00008	c3		 ret	 0
??$_Ptr_cat@V?$_Vector_const_iterator@V?$_Vector_val@UForceInfo@@V?$allocator@UForceInfo@@@std@@@std@@@std@@PAUForceInfo@@@std@@YA?AU_Nonscalar_ptr_iterator_tag@0@AAV?$_Vector_const_iterator@V?$_Vector_val@UForceInfo@@V?$allocator@UForceInfo@@@std@@@std@@@0@AAPAUForceInfo@@@Z ENDP ; std::_Ptr_cat<std::_Vector_const_iterator<std::_Vector_val<ForceInfo,std::allocator<ForceInfo> > >,ForceInfo *>
_TEXT	ENDS
PUBLIC	??$_Ptr_cat@V?$_Vector_const_iterator@V?$_Vector_val@UAttackAttribute@@V?$allocator@UAttackAttribute@@@std@@@std@@@std@@PAUAttackAttribute@@@std@@YA?AU_Nonscalar_ptr_iterator_tag@0@AAV?$_Vector_const_iterator@V?$_Vector_val@UAttackAttribute@@V?$allocator@UAttackAttribute@@@std@@@std@@@0@AAPAUAttackAttribute@@@Z ; std::_Ptr_cat<std::_Vector_const_iterator<std::_Vector_val<AttackAttribute,std::allocator<AttackAttribute> > >,AttackAttribute *>
; Function compile flags: /Ogsp
;	COMDAT ??$_Ptr_cat@V?$_Vector_const_iterator@V?$_Vector_val@UAttackAttribute@@V?$allocator@UAttackAttribute@@@std@@@std@@@std@@PAUAttackAttribute@@@std@@YA?AU_Nonscalar_ptr_iterator_tag@0@AAV?$_Vector_const_iterator@V?$_Vector_val@UAttackAttribute@@V?$allocator@UAttackAttribute@@@std@@@std@@@0@AAPAUAttackAttribute@@@Z
_TEXT	SEGMENT
__Cat$ = -1						; size = 1
___formal$ = 8						; size = 4
___formal$ = 12						; size = 4
??$_Ptr_cat@V?$_Vector_const_iterator@V?$_Vector_val@UAttackAttribute@@V?$allocator@UAttackAttribute@@@std@@@std@@@std@@PAUAttackAttribute@@@std@@YA?AU_Nonscalar_ptr_iterator_tag@0@AAV?$_Vector_const_iterator@V?$_Vector_val@UAttackAttribute@@V?$allocator@UAttackAttribute@@@std@@@std@@@0@AAPAUAttackAttribute@@@Z PROC ; std::_Ptr_cat<std::_Vector_const_iterator<std::_Vector_val<AttackAttribute,std::allocator<AttackAttribute> > >,AttackAttribute *>, COMDAT

; 485  : 	{	// return pointer category from arbitrary arguments

  00000	55		 push	 ebp
  00001	8b ec		 mov	 ebp, esp
  00003	51		 push	 ecx

; 486  : 	_Nonscalar_ptr_iterator_tag _Cat;
; 487  : 	return (_Cat);

  00004	8a 45 ff	 mov	 al, BYTE PTR __Cat$[ebp]

; 488  : 	}

  00007	c9		 leave
  00008	c3		 ret	 0
??$_Ptr_cat@V?$_Vector_const_iterator@V?$_Vector_val@UAttackAttribute@@V?$allocator@UAttackAttribute@@@std@@@std@@@std@@PAUAttackAttribute@@@std@@YA?AU_Nonscalar_ptr_iterator_tag@0@AAV?$_Vector_const_iterator@V?$_Vector_val@UAttackAttribute@@V?$allocator@UAttackAttribute@@@std@@@std@@@0@AAPAUAttackAttribute@@@Z ENDP ; std::_Ptr_cat<std::_Vector_const_iterator<std::_Vector_val<AttackAttribute,std::allocator<AttackAttribute> > >,AttackAttribute *>
_TEXT	ENDS
PUBLIC	??$_Val_type@PAUAttackAttribute@@@std@@YAPAUAttackAttribute@@PAU1@@Z ; std::_Val_type<AttackAttribute *>
; Function compile flags: /Ogsp
;	COMDAT ??$_Val_type@PAUAttackAttribute@@@std@@YAPAUAttackAttribute@@PAU1@@Z
_TEXT	SEGMENT
___formal$ = 8						; size = 4
??$_Val_type@PAUAttackAttribute@@@std@@YAPAUAttackAttribute@@PAU1@@Z PROC ; std::_Val_type<AttackAttribute *>, COMDAT

; 790  : 	return (0);

  00000	33 c0		 xor	 eax, eax

; 791  : 	}

  00002	c3		 ret	 0
??$_Val_type@PAUAttackAttribute@@@std@@YAPAUAttackAttribute@@PAU1@@Z ENDP ; std::_Val_type<AttackAttribute *>
_TEXT	ENDS
PUBLIC	??D?$_Vector_const_iterator@V?$_Vector_val@UAttackAttribute@@V?$allocator@UAttackAttribute@@@std@@@std@@@std@@QBEABUAttackAttribute@@XZ ; std::_Vector_const_iterator<std::_Vector_val<AttackAttribute,std::allocator<AttackAttribute> > >::operator*
; Function compile flags: /Ogsp
; File c:\program files (x86)\microsoft visual studio 10.0\vc\include\vector
;	COMDAT ??D?$_Vector_const_iterator@V?$_Vector_val@UAttackAttribute@@V?$allocator@UAttackAttribute@@@std@@@std@@@std@@QBEABUAttackAttribute@@XZ
_TEXT	SEGMENT
??D?$_Vector_const_iterator@V?$_Vector_val@UAttackAttribute@@V?$allocator@UAttackAttribute@@@std@@@std@@@std@@QBEABUAttackAttribute@@XZ PROC ; std::_Vector_const_iterator<std::_Vector_val<AttackAttribute,std::allocator<AttackAttribute> > >::operator*, COMDAT
; _this$ = ecx

; 64   :  #if _ITERATOR_DEBUG_LEVEL == 2
; 65   : 		if (this->_Getcont() == 0
; 66   : 			|| this->_Ptr == 0
; 67   : 			|| this->_Ptr < ((_Myvec *)this->_Getcont())->_Myfirst
; 68   : 			|| ((_Myvec *)this->_Getcont())->_Mylast <= this->_Ptr)
; 69   : 			{	// report error
; 70   : 			_DEBUG_ERROR("vector iterator not dereferencable");
; 71   : 			_SCL_SECURE_OUT_OF_RANGE;
; 72   : 			}
; 73   : 
; 74   :  #elif _ITERATOR_DEBUG_LEVEL == 1
; 75   : 		_SCL_SECURE_VALIDATE(this->_Getcont() != 0);
; 76   : 		_SCL_SECURE_VALIDATE_RANGE(
; 77   : 			this->_Ptr != 0
; 78   : 			&& ((_Myvec *)this->_Getcont())->_Myfirst <= this->_Ptr
; 79   : 			&& this->_Ptr < ((_Myvec *)this->_Getcont())->_Mylast);
; 80   :  #endif /* _ITERATOR_DEBUG_LEVEL */
; 81   : 
; 82   : 		__analysis_assume(this->_Ptr != 0);
; 83   : 
; 84   : 		return (*this->_Ptr);

  00000	8b 01		 mov	 eax, DWORD PTR [ecx]

; 85   : 		}

  00002	c3		 ret	 0
??D?$_Vector_const_iterator@V?$_Vector_val@UAttackAttribute@@V?$allocator@UAttackAttribute@@@std@@@std@@@std@@QBEABUAttackAttribute@@XZ ENDP ; std::_Vector_const_iterator<std::_Vector_val<AttackAttribute,std::allocator<AttackAttribute> > >::operator*
_TEXT	ENDS
PUBLIC	??E?$_Vector_const_iterator@V?$_Vector_val@UAttackAttribute@@V?$allocator@UAttackAttribute@@@std@@@std@@@std@@QAEAAV01@XZ ; std::_Vector_const_iterator<std::_Vector_val<AttackAttribute,std::allocator<AttackAttribute> > >::operator++
; Function compile flags: /Ogsp
;	COMDAT ??E?$_Vector_const_iterator@V?$_Vector_val@UAttackAttribute@@V?$allocator@UAttackAttribute@@@std@@@std@@@std@@QAEAAV01@XZ
_TEXT	SEGMENT
??E?$_Vector_const_iterator@V?$_Vector_val@UAttackAttribute@@V?$allocator@UAttackAttribute@@@std@@@std@@@std@@QAEAAV01@XZ PROC ; std::_Vector_const_iterator<std::_Vector_val<AttackAttribute,std::allocator<AttackAttribute> > >::operator++, COMDAT
; _this$ = ecx

; 93   : 		{	// preincrement

  00000	8b c1		 mov	 eax, ecx

; 94   :  #if _ITERATOR_DEBUG_LEVEL == 2
; 95   : 		if (this->_Getcont() == 0
; 96   : 			|| this->_Ptr == 0
; 97   : 			|| ((_Myvec *)this->_Getcont())->_Mylast <= this->_Ptr)
; 98   : 			{	// report error
; 99   : 			_DEBUG_ERROR("vector iterator not incrementable");
; 100  : 			_SCL_SECURE_OUT_OF_RANGE;
; 101  : 			}
; 102  : 
; 103  :  #elif _ITERATOR_DEBUG_LEVEL == 1
; 104  : 		_SCL_SECURE_VALIDATE(this->_Getcont() != 0);
; 105  : 		_SCL_SECURE_VALIDATE_RANGE(
; 106  : 			this->_Ptr != 0
; 107  : 			&& this->_Ptr < ((_Myvec *)this->_Getcont())->_Mylast);
; 108  :  #endif /* _ITERATOR_DEBUG_LEVEL */
; 109  : 
; 110  : 		++this->_Ptr;

  00002	83 00 50	 add	 DWORD PTR [eax], 80	; 00000050H

; 111  : 		return (*this);
; 112  : 		}

  00005	c3		 ret	 0
??E?$_Vector_const_iterator@V?$_Vector_val@UAttackAttribute@@V?$allocator@UAttackAttribute@@@std@@@std@@@std@@QAEAAV01@XZ ENDP ; std::_Vector_const_iterator<std::_Vector_val<AttackAttribute,std::allocator<AttackAttribute> > >::operator++
_TEXT	ENDS
PUBLIC	??D?$_Vector_const_iterator@V?$_Vector_val@UWeaponInfo@@V?$allocator@UWeaponInfo@@@std@@@std@@@std@@QBEABUWeaponInfo@@XZ ; std::_Vector_const_iterator<std::_Vector_val<WeaponInfo,std::allocator<WeaponInfo> > >::operator*
; Function compile flags: /Ogsp
;	COMDAT ??D?$_Vector_const_iterator@V?$_Vector_val@UWeaponInfo@@V?$allocator@UWeaponInfo@@@std@@@std@@@std@@QBEABUWeaponInfo@@XZ
_TEXT	SEGMENT
??D?$_Vector_const_iterator@V?$_Vector_val@UWeaponInfo@@V?$allocator@UWeaponInfo@@@std@@@std@@@std@@QBEABUWeaponInfo@@XZ PROC ; std::_Vector_const_iterator<std::_Vector_val<WeaponInfo,std::allocator<WeaponInfo> > >::operator*, COMDAT
; _this$ = ecx

; 64   :  #if _ITERATOR_DEBUG_LEVEL == 2
; 65   : 		if (this->_Getcont() == 0
; 66   : 			|| this->_Ptr == 0
; 67   : 			|| this->_Ptr < ((_Myvec *)this->_Getcont())->_Myfirst
; 68   : 			|| ((_Myvec *)this->_Getcont())->_Mylast <= this->_Ptr)
; 69   : 			{	// report error
; 70   : 			_DEBUG_ERROR("vector iterator not dereferencable");
; 71   : 			_SCL_SECURE_OUT_OF_RANGE;
; 72   : 			}
; 73   : 
; 74   :  #elif _ITERATOR_DEBUG_LEVEL == 1
; 75   : 		_SCL_SECURE_VALIDATE(this->_Getcont() != 0);
; 76   : 		_SCL_SECURE_VALIDATE_RANGE(
; 77   : 			this->_Ptr != 0
; 78   : 			&& ((_Myvec *)this->_Getcont())->_Myfirst <= this->_Ptr
; 79   : 			&& this->_Ptr < ((_Myvec *)this->_Getcont())->_Mylast);
; 80   :  #endif /* _ITERATOR_DEBUG_LEVEL */
; 81   : 
; 82   : 		__analysis_assume(this->_Ptr != 0);
; 83   : 
; 84   : 		return (*this->_Ptr);

  00000	8b 01		 mov	 eax, DWORD PTR [ecx]

; 85   : 		}

  00002	c3		 ret	 0
??D?$_Vector_const_iterator@V?$_Vector_val@UWeaponInfo@@V?$allocator@UWeaponInfo@@@std@@@std@@@std@@QBEABUWeaponInfo@@XZ ENDP ; std::_Vector_const_iterator<std::_Vector_val<WeaponInfo,std::allocator<WeaponInfo> > >::operator*
_TEXT	ENDS
PUBLIC	??E?$_Vector_const_iterator@V?$_Vector_val@UWeaponInfo@@V?$allocator@UWeaponInfo@@@std@@@std@@@std@@QAEAAV01@XZ ; std::_Vector_const_iterator<std::_Vector_val<WeaponInfo,std::allocator<WeaponInfo> > >::operator++
; Function compile flags: /Ogsp
;	COMDAT ??E?$_Vector_const_iterator@V?$_Vector_val@UWeaponInfo@@V?$allocator@UWeaponInfo@@@std@@@std@@@std@@QAEAAV01@XZ
_TEXT	SEGMENT
??E?$_Vector_const_iterator@V?$_Vector_val@UWeaponInfo@@V?$allocator@UWeaponInfo@@@std@@@std@@@std@@QAEAAV01@XZ PROC ; std::_Vector_const_iterator<std::_Vector_val<WeaponInfo,std::allocator<WeaponInfo> > >::operator++, COMDAT
; _this$ = ecx

; 93   : 		{	// preincrement

  00000	8b c1		 mov	 eax, ecx

; 94   :  #if _ITERATOR_DEBUG_LEVEL == 2
; 95   : 		if (this->_Getcont() == 0
; 96   : 			|| this->_Ptr == 0
; 97   : 			|| ((_Myvec *)this->_Getcont())->_Mylast <= this->_Ptr)
; 98   : 			{	// report error
; 99   : 			_DEBUG_ERROR("vector iterator not incrementable");
; 100  : 			_SCL_SECURE_OUT_OF_RANGE;
; 101  : 			}
; 102  : 
; 103  :  #elif _ITERATOR_DEBUG_LEVEL == 1
; 104  : 		_SCL_SECURE_VALIDATE(this->_Getcont() != 0);
; 105  : 		_SCL_SECURE_VALIDATE_RANGE(
; 106  : 			this->_Ptr != 0
; 107  : 			&& this->_Ptr < ((_Myvec *)this->_Getcont())->_Mylast);
; 108  :  #endif /* _ITERATOR_DEBUG_LEVEL */
; 109  : 
; 110  : 		++this->_Ptr;

  00002	83 00 28	 add	 DWORD PTR [eax], 40	; 00000028H

; 111  : 		return (*this);
; 112  : 		}

  00005	c3		 ret	 0
??E?$_Vector_const_iterator@V?$_Vector_val@UWeaponInfo@@V?$allocator@UWeaponInfo@@@std@@@std@@@std@@QAEAAV01@XZ ENDP ; std::_Vector_const_iterator<std::_Vector_val<WeaponInfo,std::allocator<WeaponInfo> > >::operator++
_TEXT	ENDS
PUBLIC	??D?$_Vector_const_iterator@V?$_Vector_val@UForceInfo@@V?$allocator@UForceInfo@@@std@@@std@@@std@@QBEABUForceInfo@@XZ ; std::_Vector_const_iterator<std::_Vector_val<ForceInfo,std::allocator<ForceInfo> > >::operator*
; Function compile flags: /Ogsp
;	COMDAT ??D?$_Vector_const_iterator@V?$_Vector_val@UForceInfo@@V?$allocator@UForceInfo@@@std@@@std@@@std@@QBEABUForceInfo@@XZ
_TEXT	SEGMENT
??D?$_Vector_const_iterator@V?$_Vector_val@UForceInfo@@V?$allocator@UForceInfo@@@std@@@std@@@std@@QBEABUForceInfo@@XZ PROC ; std::_Vector_const_iterator<std::_Vector_val<ForceInfo,std::allocator<ForceInfo> > >::operator*, COMDAT
; _this$ = ecx

; 64   :  #if _ITERATOR_DEBUG_LEVEL == 2
; 65   : 		if (this->_Getcont() == 0
; 66   : 			|| this->_Ptr == 0
; 67   : 			|| this->_Ptr < ((_Myvec *)this->_Getcont())->_Myfirst
; 68   : 			|| ((_Myvec *)this->_Getcont())->_Mylast <= this->_Ptr)
; 69   : 			{	// report error
; 70   : 			_DEBUG_ERROR("vector iterator not dereferencable");
; 71   : 			_SCL_SECURE_OUT_OF_RANGE;
; 72   : 			}
; 73   : 
; 74   :  #elif _ITERATOR_DEBUG_LEVEL == 1
; 75   : 		_SCL_SECURE_VALIDATE(this->_Getcont() != 0);
; 76   : 		_SCL_SECURE_VALIDATE_RANGE(
; 77   : 			this->_Ptr != 0
; 78   : 			&& ((_Myvec *)this->_Getcont())->_Myfirst <= this->_Ptr
; 79   : 			&& this->_Ptr < ((_Myvec *)this->_Getcont())->_Mylast);
; 80   :  #endif /* _ITERATOR_DEBUG_LEVEL */
; 81   : 
; 82   : 		__analysis_assume(this->_Ptr != 0);
; 83   : 
; 84   : 		return (*this->_Ptr);

  00000	8b 01		 mov	 eax, DWORD PTR [ecx]

; 85   : 		}

  00002	c3		 ret	 0
??D?$_Vector_const_iterator@V?$_Vector_val@UForceInfo@@V?$allocator@UForceInfo@@@std@@@std@@@std@@QBEABUForceInfo@@XZ ENDP ; std::_Vector_const_iterator<std::_Vector_val<ForceInfo,std::allocator<ForceInfo> > >::operator*
_TEXT	ENDS
PUBLIC	??E?$_Vector_const_iterator@V?$_Vector_val@UForceInfo@@V?$allocator@UForceInfo@@@std@@@std@@@std@@QAEAAV01@XZ ; std::_Vector_const_iterator<std::_Vector_val<ForceInfo,std::allocator<ForceInfo> > >::operator++
; Function compile flags: /Ogsp
;	COMDAT ??E?$_Vector_const_iterator@V?$_Vector_val@UForceInfo@@V?$allocator@UForceInfo@@@std@@@std@@@std@@QAEAAV01@XZ
_TEXT	SEGMENT
??E?$_Vector_const_iterator@V?$_Vector_val@UForceInfo@@V?$allocator@UForceInfo@@@std@@@std@@@std@@QAEAAV01@XZ PROC ; std::_Vector_const_iterator<std::_Vector_val<ForceInfo,std::allocator<ForceInfo> > >::operator++, COMDAT
; _this$ = ecx

; 93   : 		{	// preincrement

  00000	8b c1		 mov	 eax, ecx

; 94   :  #if _ITERATOR_DEBUG_LEVEL == 2
; 95   : 		if (this->_Getcont() == 0
; 96   : 			|| this->_Ptr == 0
; 97   : 			|| ((_Myvec *)this->_Getcont())->_Mylast <= this->_Ptr)
; 98   : 			{	// report error
; 99   : 			_DEBUG_ERROR("vector iterator not incrementable");
; 100  : 			_SCL_SECURE_OUT_OF_RANGE;
; 101  : 			}
; 102  : 
; 103  :  #elif _ITERATOR_DEBUG_LEVEL == 1
; 104  : 		_SCL_SECURE_VALIDATE(this->_Getcont() != 0);
; 105  : 		_SCL_SECURE_VALIDATE_RANGE(
; 106  : 			this->_Ptr != 0
; 107  : 			&& this->_Ptr < ((_Myvec *)this->_Getcont())->_Mylast);
; 108  :  #endif /* _ITERATOR_DEBUG_LEVEL */
; 109  : 
; 110  : 		++this->_Ptr;

  00002	83 00 0c	 add	 DWORD PTR [eax], 12	; 0000000cH

; 111  : 		return (*this);
; 112  : 		}

  00005	c3		 ret	 0
??E?$_Vector_const_iterator@V?$_Vector_val@UForceInfo@@V?$allocator@UForceInfo@@@std@@@std@@@std@@QAEAAV01@XZ ENDP ; std::_Vector_const_iterator<std::_Vector_val<ForceInfo,std::allocator<ForceInfo> > >::operator++
_TEXT	ENDS
PUBLIC	??$forward@ABUWeaponInfo@@@std@@YAABUWeaponInfo@@ABU1@@Z ; std::forward<WeaponInfo const &>
; Function compile flags: /Ogsp
; File c:\program files (x86)\microsoft visual studio 10.0\vc\include\utility
;	COMDAT ??$forward@ABUWeaponInfo@@@std@@YAABUWeaponInfo@@ABU1@@Z
_TEXT	SEGMENT
__Arg$ = 8						; size = 4
??$forward@ABUWeaponInfo@@@std@@YAABUWeaponInfo@@ABU1@@Z PROC ; std::forward<WeaponInfo const &>, COMDAT

; 78   : 	{	// forward _Arg, given explicitly specified type parameter

  00000	55		 push	 ebp
  00001	8b ec		 mov	 ebp, esp

; 79   : 	return ((_Ty&&)_Arg);

  00003	8b 45 08	 mov	 eax, DWORD PTR __Arg$[ebp]

; 80   : 	}

  00006	5d		 pop	 ebp
  00007	c3		 ret	 0
??$forward@ABUWeaponInfo@@@std@@YAABUWeaponInfo@@ABU1@@Z ENDP ; std::forward<WeaponInfo const &>
_TEXT	ENDS
PUBLIC	??$forward@ABUForceInfo@@@std@@YAABUForceInfo@@ABU1@@Z ; std::forward<ForceInfo const &>
; Function compile flags: /Ogsp
;	COMDAT ??$forward@ABUForceInfo@@@std@@YAABUForceInfo@@ABU1@@Z
_TEXT	SEGMENT
__Arg$ = 8						; size = 4
??$forward@ABUForceInfo@@@std@@YAABUForceInfo@@ABU1@@Z PROC ; std::forward<ForceInfo const &>, COMDAT

; 78   : 	{	// forward _Arg, given explicitly specified type parameter

  00000	55		 push	 ebp
  00001	8b ec		 mov	 ebp, esp

; 79   : 	return ((_Ty&&)_Arg);

  00003	8b 45 08	 mov	 eax, DWORD PTR __Arg$[ebp]

; 80   : 	}

  00006	5d		 pop	 ebp
  00007	c3		 ret	 0
??$forward@ABUForceInfo@@@std@@YAABUForceInfo@@ABU1@@Z ENDP ; std::forward<ForceInfo const &>
_TEXT	ENDS
PUBLIC	??$forward@UAttackAttribute@@@std@@YA$$QAUAttackAttribute@@AAU1@@Z ; std::forward<AttackAttribute>
; Function compile flags: /Ogsp
;	COMDAT ??$forward@UAttackAttribute@@@std@@YA$$QAUAttackAttribute@@AAU1@@Z
_TEXT	SEGMENT
__Arg$ = 8						; size = 4
??$forward@UAttackAttribute@@@std@@YA$$QAUAttackAttribute@@AAU1@@Z PROC ; std::forward<AttackAttribute>, COMDAT

; 78   : 	{	// forward _Arg, given explicitly specified type parameter

  00000	55		 push	 ebp
  00001	8b ec		 mov	 ebp, esp

; 79   : 	return ((_Ty&&)_Arg);

  00003	8b 45 08	 mov	 eax, DWORD PTR __Arg$[ebp]

; 80   : 	}

  00006	5d		 pop	 ebp
  00007	c3		 ret	 0
??$forward@UAttackAttribute@@@std@@YA$$QAUAttackAttribute@@AAU1@@Z ENDP ; std::forward<AttackAttribute>
_TEXT	ENDS
PUBLIC	??$_Construct@UForceInfo@@ABU1@@std@@YAXPAUForceInfo@@ABU1@@Z ; std::_Construct<ForceInfo,ForceInfo const &>
; Function compile flags: /Ogsp
; File c:\program files (x86)\microsoft visual studio 10.0\vc\include\xmemory
;	COMDAT ??$_Construct@UForceInfo@@ABU1@@std@@YAXPAUForceInfo@@ABU1@@Z
_TEXT	SEGMENT
__Ptr$ = 8						; size = 4
__Val$ = 12						; size = 4
??$_Construct@UForceInfo@@ABU1@@std@@YAXPAUForceInfo@@ABU1@@Z PROC ; std::_Construct<ForceInfo,ForceInfo const &>, COMDAT

; 46   : 	{	// construct object at _Ptr with value _Val

  00000	55		 push	 ebp
  00001	8b ec		 mov	 ebp, esp
  00003	57		 push	 edi

; 47   : 	void _FARQ *_Vptr = _Ptr;
; 48   : 	::new (_Vptr) _Ty1(_STD forward<_Ty2>(_Val));

  00004	8b 7d 08	 mov	 edi, DWORD PTR __Ptr$[ebp]
  00007	85 ff		 test	 edi, edi
  00009	74 08		 je	 SHORT $LN3@Construct
  0000b	56		 push	 esi
  0000c	8b 75 0c	 mov	 esi, DWORD PTR __Val$[ebp]
  0000f	a5		 movsd
  00010	a5		 movsd
  00011	a5		 movsd
  00012	5e		 pop	 esi
$LN3@Construct:
  00013	5f		 pop	 edi

; 49   : 	}

  00014	5d		 pop	 ebp
  00015	c3		 ret	 0
??$_Construct@UForceInfo@@ABU1@@std@@YAXPAUForceInfo@@ABU1@@Z ENDP ; std::_Construct<ForceInfo,ForceInfo const &>
_TEXT	ENDS
PUBLIC	?D3DXVec3LengthSq@@YAMPBUD3DXVECTOR3@@@Z	; D3DXVec3LengthSq
; Function compile flags: /Ogsp
; File c:\program files (x86)\microsoft directx sdk (june 2010)\include\d3dx9math.inl
;	COMDAT ?D3DXVec3LengthSq@@YAMPBUD3DXVECTOR3@@@Z
_TEXT	SEGMENT
tv165 = 8						; size = 4
_pV$ = 8						; size = 4
?D3DXVec3LengthSq@@YAMPBUD3DXVECTOR3@@@Z PROC		; D3DXVec3LengthSq, COMDAT

; 1725 : {

  00000	55		 push	 ebp
  00001	8b ec		 mov	 ebp, esp

; 1726 : #ifdef D3DX_DEBUG
; 1727 :     if(!pV)
; 1728 :         return 0.0f;
; 1729 : #endif
; 1730 : 
; 1731 :     return pV->x * pV->x + pV->y * pV->y + pV->z * pV->z;

  00003	8b 45 08	 mov	 eax, DWORD PTR _pV$[ebp]
  00006	d9 40 04	 fld	 DWORD PTR [eax+4]
  00009	d9 00		 fld	 DWORD PTR [eax]
  0000b	d9 40 08	 fld	 DWORD PTR [eax+8]
  0000e	d9 c1		 fld	 ST(1)
  00010	de ca		 fmulp	 ST(2), ST(0)
  00012	d9 c2		 fld	 ST(2)
  00014	de cb		 fmulp	 ST(3), ST(0)
  00016	d9 c9		 fxch	 ST(1)
  00018	de c2		 faddp	 ST(2), ST(0)
  0001a	d9 c0		 fld	 ST(0)
  0001c	de c9		 fmulp	 ST(1), ST(0)
  0001e	de c1		 faddp	 ST(1), ST(0)
  00020	d9 5d 08	 fstp	 DWORD PTR tv165[ebp]
  00023	d9 45 08	 fld	 DWORD PTR tv165[ebp]

; 1732 : }

  00026	5d		 pop	 ebp
  00027	c3		 ret	 0
?D3DXVec3LengthSq@@YAMPBUD3DXVECTOR3@@@Z ENDP		; D3DXVec3LengthSq
_TEXT	ENDS
PUBLIC	?D3DXVec3Dot@@YAMPBUD3DXVECTOR3@@0@Z		; D3DXVec3Dot
; Function compile flags: /Ogsp
;	COMDAT ?D3DXVec3Dot@@YAMPBUD3DXVECTOR3@@0@Z
_TEXT	SEGMENT
tv188 = 8						; size = 4
_pV1$ = 8						; size = 4
_pV2$ = 12						; size = 4
?D3DXVec3Dot@@YAMPBUD3DXVECTOR3@@0@Z PROC		; D3DXVec3Dot, COMDAT

; 1736 : {

  00000	55		 push	 ebp
  00001	8b ec		 mov	 ebp, esp

; 1737 : #ifdef D3DX_DEBUG
; 1738 :     if(!pV1 || !pV2)
; 1739 :         return 0.0f;
; 1740 : #endif
; 1741 : 
; 1742 :     return pV1->x * pV2->x + pV1->y * pV2->y + pV1->z * pV2->z;

  00003	8b 45 08	 mov	 eax, DWORD PTR _pV1$[ebp]
  00006	8b 4d 0c	 mov	 ecx, DWORD PTR _pV2$[ebp]
  00009	d9 40 04	 fld	 DWORD PTR [eax+4]
  0000c	d8 49 04	 fmul	 DWORD PTR [ecx+4]
  0000f	d9 00		 fld	 DWORD PTR [eax]
  00011	d8 09		 fmul	 DWORD PTR [ecx]
  00013	de c1		 faddp	 ST(1), ST(0)
  00015	d9 40 08	 fld	 DWORD PTR [eax+8]
  00018	d8 49 08	 fmul	 DWORD PTR [ecx+8]
  0001b	de c1		 faddp	 ST(1), ST(0)
  0001d	d9 5d 08	 fstp	 DWORD PTR tv188[ebp]
  00020	d9 45 08	 fld	 DWORD PTR tv188[ebp]

; 1743 : }

  00023	5d		 pop	 ebp
  00024	c3		 ret	 0
?D3DXVec3Dot@@YAMPBUD3DXVECTOR3@@0@Z ENDP		; D3DXVec3Dot
_TEXT	ENDS
PUBLIC	?_DECSTR@@YAXPADH@Z				; _DECSTR
; Function compile flags: /Ogsp
; File d:\lost saga for developer\youtube\tutorial\source\src\lsclient\stringprotect.h
;	COMDAT ?_DECSTR@@YAXPADH@Z
_TEXT	SEGMENT
_s$ = 8							; size = 4
_l$ = 12						; size = 4
?_DECSTR@@YAXPADH@Z PROC				; _DECSTR, COMDAT

; 40   : __forceinline void _DECSTR(char* s, int l){int i=0,l4=(l-1)/4,*p=(int*)s;s[l-1]=0;for(;i<l4;++i)*(p++)^=0xEAEBECED;for(i=l4*4;i<l-1;++i)s[i]^=0xED-i%4;}

  00000	55		 push	 ebp
  00001	8b ec		 mov	 ebp, esp
  00003	8b 4d 0c	 mov	 ecx, DWORD PTR _l$[ebp]
  00006	56		 push	 esi
  00007	8b 75 08	 mov	 esi, DWORD PTR _s$[ebp]
  0000a	57		 push	 edi
  0000b	8d 79 ff	 lea	 edi, DWORD PTR [ecx-1]
  0000e	8b c7		 mov	 eax, edi
  00010	99		 cdq
  00011	83 e2 03	 and	 edx, 3
  00014	03 c2		 add	 eax, edx
  00016	c1 f8 02	 sar	 eax, 2
  00019	8b d6		 mov	 edx, esi
  0001b	c6 44 0e ff 00	 mov	 BYTE PTR [esi+ecx-1], 0
  00020	85 c0		 test	 eax, eax
  00022	7e 0e		 jle	 SHORT $LN4@DECSTR
  00024	8b c8		 mov	 ecx, eax
$LL6@DECSTR:
  00026	81 32 ed ec eb
	ea		 xor	 DWORD PTR [edx], -353637139 ; eaebecedH
  0002c	83 c2 04	 add	 edx, 4
  0002f	49		 dec	 ecx
  00030	75 f4		 jne	 SHORT $LL6@DECSTR
$LN4@DECSTR:
  00032	c1 e0 02	 shl	 eax, 2
  00035	eb 17		 jmp	 SHORT $LN14@DECSTR
$LL3@DECSTR:
  00037	8b c8		 mov	 ecx, eax
  00039	81 e1 03 00 00
	80		 and	 ecx, -2147483645	; 80000003H
  0003f	79 05		 jns	 SHORT $LN13@DECSTR
  00041	49		 dec	 ecx
  00042	83 c9 fc	 or	 ecx, -4			; fffffffcH
  00045	41		 inc	 ecx
$LN13@DECSTR:
  00046	b2 ed		 mov	 dl, -19			; ffffffedH
  00048	2a d1		 sub	 dl, cl
  0004a	30 14 30	 xor	 BYTE PTR [eax+esi], dl
  0004d	40		 inc	 eax
$LN14@DECSTR:
  0004e	3b c7		 cmp	 eax, edi
  00050	7c e5		 jl	 SHORT $LL3@DECSTR
  00052	5f		 pop	 edi
  00053	5e		 pop	 esi
  00054	5d		 pop	 ebp
  00055	c3		 ret	 0
?_DECSTR@@YAXPADH@Z ENDP				; _DECSTR
_TEXT	ENDS
PUBLIC	?GetGroup@ioGameEntity@@QBEPAVioEntityGroup@@XZ	; ioGameEntity::GetGroup
; Function compile flags: /Ogsp
; File d:\lost saga for developer\youtube\tutorial\source\src\lsclient\iogameentity.h
;	COMDAT ?GetGroup@ioGameEntity@@QBEPAVioEntityGroup@@XZ
_TEXT	SEGMENT
?GetGroup@ioGameEntity@@QBEPAVioEntityGroup@@XZ PROC	; ioGameEntity::GetGroup, COMDAT
; _this$ = ecx

; 166  : 	inline ioEntityGroup* GetGroup() const { return m_pGroup; }

  00000	8b 41 04	 mov	 eax, DWORD PTR [ecx+4]
  00003	c3		 ret	 0
?GetGroup@ioGameEntity@@QBEPAVioEntityGroup@@XZ ENDP	; ioGameEntity::GetGroup
_TEXT	ENDS
PUBLIC	??1WeaponInfo@@QAE@XZ				; WeaponInfo::~WeaponInfo
EXTRN	__imp_??1ioHashString@@QAE@XZ:PROC
; Function compile flags: /Ogsp
;	COMDAT ??1WeaponInfo@@QAE@XZ
_TEXT	SEGMENT
??1WeaponInfo@@QAE@XZ PROC				; WeaponInfo::~WeaponInfo, COMDAT
; _this$ = ecx
  00000	83 c1 08	 add	 ecx, 8
  00003	ff 25 00 00 00
	00		 jmp	 DWORD PTR __imp_??1ioHashString@@QAE@XZ
??1WeaponInfo@@QAE@XZ ENDP				; WeaponInfo::~WeaponInfo
_TEXT	ENDS
PUBLIC	?GetName@ioSkill@@QBEABVioHashString@@XZ	; ioSkill::GetName
; Function compile flags: /Ogsp
; File d:\lost saga for developer\youtube\tutorial\source\src\lsclient\ioskill.h
;	COMDAT ?GetName@ioSkill@@QBEABVioHashString@@XZ
_TEXT	SEGMENT
?GetName@ioSkill@@QBEABVioHashString@@XZ PROC		; ioSkill::GetName, COMDAT
; _this$ = ecx

; 414  : 	inline const ioHashString& GetName() const { return m_Name; }

  00000	8d 41 24	 lea	 eax, DWORD PTR [ecx+36]
  00003	c3		 ret	 0
?GetName@ioSkill@@QBEABVioHashString@@XZ ENDP		; ioSkill::GetName
_TEXT	ENDS
PUBLIC	??_7?$CEncrypt@M@@6B@				; CEncrypt<float>::`vftable'
PUBLIC	??1?$CEncrypt@M@@UAE@XZ				; CEncrypt<float>::~CEncrypt<float>
PUBLIC	??_R4?$CEncrypt@M@@6B@				; CEncrypt<float>::`RTTI Complete Object Locator'
PUBLIC	??_R0?AV?$CEncrypt@M@@@8			; CEncrypt<float> `RTTI Type Descriptor'
PUBLIC	??_R3?$CEncrypt@M@@8				; CEncrypt<float>::`RTTI Class Hierarchy Descriptor'
PUBLIC	??_R2?$CEncrypt@M@@8				; CEncrypt<float>::`RTTI Base Class Array'
PUBLIC	??_R1A@?0A@EA@?$CEncrypt@M@@8			; CEncrypt<float>::`RTTI Base Class Descriptor at (0,-1,0,64)'
EXTRN	??1ccddaabb@@UAE@XZ:PROC			; ccddaabb::~ccddaabb
EXTRN	??_E?$CEncrypt@M@@UAEPAXI@Z:PROC		; CEncrypt<float>::`vector deleting destructor'
;	COMDAT ??_R1A@?0A@EA@?$CEncrypt@M@@8
; File d:\lost saga for developer\youtube\tutorial\source\src\lsclient\encryptvalue.h
rdata$r	SEGMENT
??_R1A@?0A@EA@?$CEncrypt@M@@8 DD FLAT:??_R0?AV?$CEncrypt@M@@@8 ; CEncrypt<float>::`RTTI Base Class Descriptor at (0,-1,0,64)'
	DD	00H
	DD	00H
	DD	0ffffffffH
	DD	00H
	DD	040H
	DD	FLAT:??_R3?$CEncrypt@M@@8
rdata$r	ENDS
;	COMDAT ??_R2?$CEncrypt@M@@8
rdata$r	SEGMENT
??_R2?$CEncrypt@M@@8 DD FLAT:??_R1A@?0A@EA@?$CEncrypt@M@@8 ; CEncrypt<float>::`RTTI Base Class Array'
rdata$r	ENDS
;	COMDAT ??_R3?$CEncrypt@M@@8
rdata$r	SEGMENT
??_R3?$CEncrypt@M@@8 DD 00H				; CEncrypt<float>::`RTTI Class Hierarchy Descriptor'
	DD	00H
	DD	01H
	DD	FLAT:??_R2?$CEncrypt@M@@8
rdata$r	ENDS
;	COMDAT ??_R0?AV?$CEncrypt@M@@@8
_DATA	SEGMENT
??_R0?AV?$CEncrypt@M@@@8 DD FLAT:??_7type_info@@6B@	; CEncrypt<float> `RTTI Type Descriptor'
	DD	00H
	DB	'.?AV?$CEncrypt@M@@', 00H
_DATA	ENDS
;	COMDAT ??_R4?$CEncrypt@M@@6B@
rdata$r	SEGMENT
??_R4?$CEncrypt@M@@6B@ DD 00H				; CEncrypt<float>::`RTTI Complete Object Locator'
	DD	00H
	DD	00H
	DD	FLAT:??_R0?AV?$CEncrypt@M@@@8
	DD	FLAT:??_R3?$CEncrypt@M@@8
rdata$r	ENDS
;	COMDAT ??_7?$CEncrypt@M@@6B@
CONST	SEGMENT
??_7?$CEncrypt@M@@6B@ DD FLAT:??_R4?$CEncrypt@M@@6B@	; CEncrypt<float>::`vftable'
	DD	FLAT:??_E?$CEncrypt@M@@UAEPAXI@Z
; Function compile flags: /Ogsp
CONST	ENDS
;	COMDAT ??1?$CEncrypt@M@@UAE@XZ
_TEXT	SEGMENT
??1?$CEncrypt@M@@UAE@XZ PROC				; CEncrypt<float>::~CEncrypt<float>, COMDAT
; _this$ = ecx

; 127  : 	{

  00000	c7 01 00 00 00
	00		 mov	 DWORD PTR [ecx], OFFSET ??_7?$CEncrypt@M@@6B@

; 128  : 	}

  00006	83 c1 0c	 add	 ecx, 12			; 0000000cH
  00009	e9 00 00 00 00	 jmp	 ??1ccddaabb@@UAE@XZ	; ccddaabb::~ccddaabb
??1?$CEncrypt@M@@UAE@XZ ENDP				; CEncrypt<float>::~CEncrypt<float>
; Function compile flags: /Ogsp
_TEXT	ENDS
;	COMDAT ??_G?$CEncrypt@M@@UAEPAXI@Z
_TEXT	SEGMENT
___flags$ = 8						; size = 4
??_G?$CEncrypt@M@@UAEPAXI@Z PROC			; CEncrypt<float>::`scalar deleting destructor', COMDAT
; _this$ = ecx
  00000	55		 push	 ebp
  00001	8b ec		 mov	 ebp, esp
  00003	56		 push	 esi
  00004	8b f1		 mov	 esi, ecx
  00006	8d 4e 0c	 lea	 ecx, DWORD PTR [esi+12]
  00009	c7 06 00 00 00
	00		 mov	 DWORD PTR [esi], OFFSET ??_7?$CEncrypt@M@@6B@
  0000f	e8 00 00 00 00	 call	 ??1ccddaabb@@UAE@XZ	; ccddaabb::~ccddaabb
  00014	f6 45 08 01	 test	 BYTE PTR ___flags$[ebp], 1
  00018	74 07		 je	 SHORT $LN1@scalar@2
  0001a	56		 push	 esi
  0001b	e8 00 00 00 00	 call	 ??3@YAXPAX@Z		; operator delete
  00020	59		 pop	 ecx
$LN1@scalar@2:
  00021	8b c6		 mov	 eax, esi
  00023	5e		 pop	 esi
  00024	5d		 pop	 ebp
  00025	c2 04 00	 ret	 4
??_G?$CEncrypt@M@@UAEPAXI@Z ENDP			; CEncrypt<float>::`scalar deleting destructor'
_TEXT	ENDS
PUBLIC	??1?$_Vector_val@UWeaponInfo@@V?$allocator@UWeaponInfo@@@std@@@std@@QAE@XZ ; std::_Vector_val<WeaponInfo,std::allocator<WeaponInfo> >::~_Vector_val<WeaponInfo,std::allocator<WeaponInfo> >
; Function compile flags: /Ogsp
; File c:\program files (x86)\microsoft visual studio 10.0\vc\include\vector
;	COMDAT ??1?$_Vector_val@UWeaponInfo@@V?$allocator@UWeaponInfo@@@std@@@std@@QAE@XZ
_TEXT	SEGMENT
??1?$_Vector_val@UWeaponInfo@@V?$allocator@UWeaponInfo@@@std@@@std@@QAE@XZ PROC ; std::_Vector_val<WeaponInfo,std::allocator<WeaponInfo> >::~_Vector_val<WeaponInfo,std::allocator<WeaponInfo> >, COMDAT
; _this$ = ecx

; 434  : 		}

  00000	c3		 ret	 0
??1?$_Vector_val@UWeaponInfo@@V?$allocator@UWeaponInfo@@@std@@@std@@QAE@XZ ENDP ; std::_Vector_val<WeaponInfo,std::allocator<WeaponInfo> >::~_Vector_val<WeaponInfo,std::allocator<WeaponInfo> >
_TEXT	ENDS
PUBLIC	??0?$allocator@UWeaponInfo@@@std@@QAE@XZ	; std::allocator<WeaponInfo>::allocator<WeaponInfo>
; Function compile flags: /Ogsp
; File c:\program files (x86)\microsoft visual studio 10.0\vc\include\xmemory
;	COMDAT ??0?$allocator@UWeaponInfo@@@std@@QAE@XZ
_TEXT	SEGMENT
??0?$allocator@UWeaponInfo@@@std@@QAE@XZ PROC		; std::allocator<WeaponInfo>::allocator<WeaponInfo>, COMDAT
; _this$ = ecx

; 161  : 	_ALLOCATOR() _THROW0()

  00000	8b c1		 mov	 eax, ecx

; 162  : 		{	// construct default allocator (do nothing)
; 163  : 		}

  00002	c3		 ret	 0
??0?$allocator@UWeaponInfo@@@std@@QAE@XZ ENDP		; std::allocator<WeaponInfo>::allocator<WeaponInfo>
_TEXT	ENDS
PUBLIC	??1?$_Vector_val@UForceInfo@@V?$allocator@UForceInfo@@@std@@@std@@QAE@XZ ; std::_Vector_val<ForceInfo,std::allocator<ForceInfo> >::~_Vector_val<ForceInfo,std::allocator<ForceInfo> >
; Function compile flags: /Ogsp
; File c:\program files (x86)\microsoft visual studio 10.0\vc\include\vector
;	COMDAT ??1?$_Vector_val@UForceInfo@@V?$allocator@UForceInfo@@@std@@@std@@QAE@XZ
_TEXT	SEGMENT
??1?$_Vector_val@UForceInfo@@V?$allocator@UForceInfo@@@std@@@std@@QAE@XZ PROC ; std::_Vector_val<ForceInfo,std::allocator<ForceInfo> >::~_Vector_val<ForceInfo,std::allocator<ForceInfo> >, COMDAT
; _this$ = ecx

; 434  : 		}

  00000	c3		 ret	 0
??1?$_Vector_val@UForceInfo@@V?$allocator@UForceInfo@@@std@@@std@@QAE@XZ ENDP ; std::_Vector_val<ForceInfo,std::allocator<ForceInfo> >::~_Vector_val<ForceInfo,std::allocator<ForceInfo> >
_TEXT	ENDS
PUBLIC	??0?$allocator@UForceInfo@@@std@@QAE@XZ		; std::allocator<ForceInfo>::allocator<ForceInfo>
; Function compile flags: /Ogsp
; File c:\program files (x86)\microsoft visual studio 10.0\vc\include\xmemory
;	COMDAT ??0?$allocator@UForceInfo@@@std@@QAE@XZ
_TEXT	SEGMENT
??0?$allocator@UForceInfo@@@std@@QAE@XZ PROC		; std::allocator<ForceInfo>::allocator<ForceInfo>, COMDAT
; _this$ = ecx

; 161  : 	_ALLOCATOR() _THROW0()

  00000	8b c1		 mov	 eax, ecx

; 162  : 		{	// construct default allocator (do nothing)
; 163  : 		}

  00002	c3		 ret	 0
??0?$allocator@UForceInfo@@@std@@QAE@XZ ENDP		; std::allocator<ForceInfo>::allocator<ForceInfo>
_TEXT	ENDS
PUBLIC	?EncryptValueToPool@?$CEncrypt@M@@AAEXPBD@Z	; CEncrypt<float>::EncryptValueToPool
EXTRN	?EncryptByte@ccddaabb@@QAEXPBDPADH@Z:PROC	; ccddaabb::EncryptByte
; Function compile flags: /Ogsp
; File d:\lost saga for developer\youtube\tutorial\source\src\lsclient\encryptvalue.h
;	COMDAT ?EncryptValueToPool@?$CEncrypt@M@@AAEXPBD@Z
_TEXT	SEGMENT
_value$ = 8						; size = 4
?EncryptValueToPool@?$CEncrypt@M@@AAEXPBD@Z PROC	; CEncrypt<float>::EncryptValueToPool, COMDAT
; _this$ = ecx

; 67   : 	{

  00000	55		 push	 ebp
  00001	8b ec		 mov	 ebp, esp

; 68   : 		m_RC5.EncryptByte( value, m_MemPool, max(m_ValueSize, DEFAULT_ENCRYPT) );

  00003	0f b7 41 06	 movzx	 eax, WORD PTR [ecx+6]
  00007	83 f8 04	 cmp	 eax, 4
  0000a	77 03		 ja	 SHORT $LN4@EncryptVal
  0000c	6a 04		 push	 4
  0000e	58		 pop	 eax
$LN4@EncryptVal:
  0000f	50		 push	 eax
  00010	8d 41 1c	 lea	 eax, DWORD PTR [ecx+28]
  00013	50		 push	 eax
  00014	ff 75 08	 push	 DWORD PTR _value$[ebp]
  00017	83 c1 0c	 add	 ecx, 12			; 0000000cH
  0001a	e8 00 00 00 00	 call	 ?EncryptByte@ccddaabb@@QAEXPBDPADH@Z ; ccddaabb::EncryptByte

; 69   : 		
; 70   : 	}

  0001f	5d		 pop	 ebp
  00020	c2 04 00	 ret	 4
?EncryptValueToPool@?$CEncrypt@M@@AAEXPBD@Z ENDP	; CEncrypt<float>::EncryptValueToPool
_TEXT	ENDS
PUBLIC	?Init@?$CEncrypt@M@@AAEXXZ			; CEncrypt<float>::Init
EXTRN	?Setup@ccddaabb@@QAEXPBDHH@Z:PROC		; ccddaabb::Setup
EXTRN	__imp__rand:PROC
EXTRN	__imp__timeGetTime@0:PROC
EXTRN	__imp__GetCurrentProcessId@0:PROC
; Function compile flags: /Ogsp
;	COMDAT ?Init@?$CEncrypt@M@@AAEXXZ
_TEXT	SEGMENT
_pid$ = -8						; size = 4
_tick$ = -4						; size = 4
?Init@?$CEncrypt@M@@AAEXXZ PROC				; CEncrypt<float>::Init, COMDAT
; _this$ = ecx

; 73   : 	{

  00000	55		 push	 ebp
  00001	8b ec		 mov	 ebp, esp
  00003	51		 push	 ecx
  00004	51		 push	 ecx
  00005	53		 push	 ebx
  00006	56		 push	 esi
  00007	57		 push	 edi
  00008	8b f1		 mov	 esi, ecx

; 74   : 		DWORD pid = GetCurrentProcessId();

  0000a	ff 15 00 00 00
	00		 call	 DWORD PTR __imp__GetCurrentProcessId@0
  00010	89 45 f8	 mov	 DWORD PTR _pid$[ebp], eax

; 75   : 		DWORD tick = timeGetTime();

  00013	ff 15 00 00 00
	00		 call	 DWORD PTR __imp__timeGetTime@0

; 76   : 		m_ValueSize    = sizeof(type);
; 77   : 		m_MemPoolPos   = (unsigned short)( rand()+pid+tick )%(MAX_MEM_POOL-m_ValueSize);

  00019	8b 3d 00 00 00
	00		 mov	 edi, DWORD PTR __imp__rand
  0001f	89 45 fc	 mov	 DWORD PTR _tick$[ebp], eax
  00022	6a 04		 push	 4
  00024	58		 pop	 eax
  00025	66 89 46 06	 mov	 WORD PTR [esi+6], ax
  00029	ff d7		 call	 edi
  0002b	03 45 f8	 add	 eax, DWORD PTR _pid$[ebp]
  0002e	0f b7 4e 06	 movzx	 ecx, WORD PTR [esi+6]
  00032	03 45 fc	 add	 eax, DWORD PTR _tick$[ebp]
  00035	6a 0c		 push	 12			; 0000000cH
  00037	0f b7 c0	 movzx	 eax, ax
  0003a	5b		 pop	 ebx
  0003b	99		 cdq
  0003c	2b d9		 sub	 ebx, ecx
  0003e	f7 fb		 idiv	 ebx
  00040	66 89 56 04	 mov	 WORD PTR [esi+4], dx

; 78   : 		m_EncryptSeed  = (char)( rand()+pid+tick )%256;

  00044	ff d7		 call	 edi
  00046	02 45 f8	 add	 al, BYTE PTR _pid$[ebp]
  00049	02 45 fc	 add	 al, BYTE PTR _tick$[ebp]
  0004c	0f be c0	 movsx	 eax, al
  0004f	25 ff 00 00 80	 and	 eax, -2147483393	; 800000ffH
  00054	79 07		 jns	 SHORT $LN8@Init
  00056	48		 dec	 eax
  00057	0d 00 ff ff ff	 or	 eax, -256		; ffffff00H
  0005c	40		 inc	 eax
$LN8@Init:
  0005d	88 46 08	 mov	 BYTE PTR [esi+8], al

; 79   : 
; 80   : 		for (int i = 0; i < MAX_MEM_POOL ; i++)

  00060	33 db		 xor	 ebx, ebx
$LL3@Init:

; 81   : 			m_MemPool[i] = (char)( rand()+pid+tick )%256; // 더미

  00062	ff d7		 call	 edi
  00064	02 45 f8	 add	 al, BYTE PTR _pid$[ebp]
  00067	02 45 fc	 add	 al, BYTE PTR _tick$[ebp]
  0006a	0f be c0	 movsx	 eax, al
  0006d	25 ff 00 00 80	 and	 eax, -2147483393	; 800000ffH
  00072	79 07		 jns	 SHORT $LN9@Init
  00074	48		 dec	 eax
  00075	0d 00 ff ff ff	 or	 eax, -256		; ffffff00H
  0007a	40		 inc	 eax
$LN9@Init:
  0007b	88 44 1e 1c	 mov	 BYTE PTR [esi+ebx+28], al
  0007f	43		 inc	 ebx
  00080	83 fb 0c	 cmp	 ebx, 12			; 0000000cH
  00083	7c dd		 jl	 SHORT $LL3@Init

; 82   : 
; 83   : 		//UJ 130913, 최적화: szKey 사용안하도록 간략화
; 84   : 		//char szKey[ccddaabb::KEY_SIZE];//="";
; 85   : 		//for (int i = 0; i < ccddaabb::KEY_SIZE  ; i++)
; 86   : 		//	szKey[i] = (char)( rand()+pid+tick )%256; // 더미
; 87   : 		m_RC5.Setup( NULL, pid, tick );

  00085	ff 75 fc	 push	 DWORD PTR _tick$[ebp]
  00088	8d 4e 0c	 lea	 ecx, DWORD PTR [esi+12]
  0008b	ff 75 f8	 push	 DWORD PTR _pid$[ebp]
  0008e	6a 00		 push	 0
  00090	e8 00 00 00 00	 call	 ?Setup@ccddaabb@@QAEXPBDHH@Z ; ccddaabb::Setup
  00095	5f		 pop	 edi
  00096	5e		 pop	 esi
  00097	5b		 pop	 ebx

; 88   : 
; 89   : #ifdef _NOTUSE
; 90   : 		m_value        = 0;
; 91   : 		EncryptValueToPool((char*)&m_value);
; 92   : 		Debug();
; 93   : #endif
; 94   : 	}

  00098	c9		 leave
  00099	c3		 ret	 0
?Init@?$CEncrypt@M@@AAEXXZ ENDP				; CEncrypt<float>::Init
_TEXT	ENDS
PUBLIC	?DecryptValueToPool@?$CEncrypt@M@@QAEXPAM@Z	; CEncrypt<float>::DecryptValueToPool
EXTRN	?DecryptByte@ccddaabb@@QBEXPBDPADH@Z:PROC	; ccddaabb::DecryptByte
; Function compile flags: /Ogsp
;	COMDAT ?DecryptValueToPool@?$CEncrypt@M@@QAEXPAM@Z
_TEXT	SEGMENT
_value$ = 8						; size = 4
?DecryptValueToPool@?$CEncrypt@M@@QAEXPAM@Z PROC	; CEncrypt<float>::DecryptValueToPool, COMDAT
; _this$ = ecx

; 1648 : 	{

  00000	55		 push	 ebp
  00001	8b ec		 mov	 ebp, esp
  00003	56		 push	 esi

; 1649 : 		m_RC5.DecryptByte( m_MemPool, m_TempMem, 4 );

  00004	8d 71 28	 lea	 esi, DWORD PTR [ecx+40]
  00007	6a 04		 push	 4
  00009	8d 41 1c	 lea	 eax, DWORD PTR [ecx+28]
  0000c	56		 push	 esi
  0000d	50		 push	 eax
  0000e	83 c1 0c	 add	 ecx, 12			; 0000000cH
  00011	e8 00 00 00 00	 call	 ?DecryptByte@ccddaabb@@QBEXPBDPADH@Z ; ccddaabb::DecryptByte

; 1650 : 		*value = *((float*)m_TempMem);

  00016	d9 06		 fld	 DWORD PTR [esi]
  00018	8b 45 08	 mov	 eax, DWORD PTR _value$[ebp]
  0001b	d9 18		 fstp	 DWORD PTR [eax]
  0001d	5e		 pop	 esi

; 1651 : 	}

  0001e	5d		 pop	 ebp
  0001f	c2 04 00	 ret	 4
?DecryptValueToPool@?$CEncrypt@M@@QAEXPAM@Z ENDP	; CEncrypt<float>::DecryptValueToPool
_TEXT	ENDS
PUBLIC	?DecryptValueToPool@?$CEncrypt@K@@QAEXPAK@Z	; CEncrypt<unsigned long>::DecryptValueToPool
; Function compile flags: /Ogsp
;	COMDAT ?DecryptValueToPool@?$CEncrypt@K@@QAEXPAK@Z
_TEXT	SEGMENT
_value$ = 8						; size = 4
?DecryptValueToPool@?$CEncrypt@K@@QAEXPAK@Z PROC	; CEncrypt<unsigned long>::DecryptValueToPool, COMDAT
; _this$ = ecx

; 1256 : 	{

  00000	55		 push	 ebp
  00001	8b ec		 mov	 ebp, esp
  00003	56		 push	 esi

; 1257 : 		m_RC5.DecryptByte( m_MemPool, m_TempMem, 4 );

  00004	8d 71 28	 lea	 esi, DWORD PTR [ecx+40]
  00007	6a 04		 push	 4
  00009	8d 41 1c	 lea	 eax, DWORD PTR [ecx+28]
  0000c	56		 push	 esi
  0000d	50		 push	 eax
  0000e	83 c1 0c	 add	 ecx, 12			; 0000000cH
  00011	e8 00 00 00 00	 call	 ?DecryptByte@ccddaabb@@QBEXPBDPADH@Z ; ccddaabb::DecryptByte

; 1258 : 		*value = *((DWORD*)m_TempMem);

  00016	8b 06		 mov	 eax, DWORD PTR [esi]
  00018	8b 4d 08	 mov	 ecx, DWORD PTR _value$[ebp]
  0001b	89 01		 mov	 DWORD PTR [ecx], eax
  0001d	5e		 pop	 esi

; 1259 : 	}

  0001e	5d		 pop	 ebp
  0001f	c2 04 00	 ret	 4
?DecryptValueToPool@?$CEncrypt@K@@QAEXPAK@Z ENDP	; CEncrypt<unsigned long>::DecryptValueToPool
_TEXT	ENDS
PUBLIC	?DecryptValueToPool@?$CEncrypt@_N@@QAEXPA_N@Z	; CEncrypt<bool>::DecryptValueToPool
; Function compile flags: /Ogsp
;	COMDAT ?DecryptValueToPool@?$CEncrypt@_N@@QAEXPA_N@Z
_TEXT	SEGMENT
_value$ = 8						; size = 4
?DecryptValueToPool@?$CEncrypt@_N@@QAEXPA_N@Z PROC	; CEncrypt<bool>::DecryptValueToPool, COMDAT
; _this$ = ecx

; 219  : 	{

  00000	55		 push	 ebp
  00001	8b ec		 mov	 ebp, esp
  00003	56		 push	 esi

; 220  : 		m_RC5.DecryptByte( m_MemPool, m_TempMem, 4 );

  00004	8d 71 28	 lea	 esi, DWORD PTR [ecx+40]
  00007	6a 04		 push	 4
  00009	8d 41 1c	 lea	 eax, DWORD PTR [ecx+28]
  0000c	56		 push	 esi
  0000d	50		 push	 eax
  0000e	83 c1 0c	 add	 ecx, 12			; 0000000cH
  00011	e8 00 00 00 00	 call	 ?DecryptByte@ccddaabb@@QBEXPBDPADH@Z ; ccddaabb::DecryptByte

; 221  : 		*value = *((bool*)m_TempMem);

  00016	8a 06		 mov	 al, BYTE PTR [esi]
  00018	8b 4d 08	 mov	 ecx, DWORD PTR _value$[ebp]
  0001b	88 01		 mov	 BYTE PTR [ecx], al
  0001d	5e		 pop	 esi

; 222  : 	}

  0001e	5d		 pop	 ebp
  0001f	c2 04 00	 ret	 4
?DecryptValueToPool@?$CEncrypt@_N@@QAEXPA_N@Z ENDP	; CEncrypt<bool>::DecryptValueToPool
_TEXT	ENDS
PUBLIC	??1?$_Vector_val@UAttackAttribute@@V?$allocator@UAttackAttribute@@@std@@@std@@QAE@XZ ; std::_Vector_val<AttackAttribute,std::allocator<AttackAttribute> >::~_Vector_val<AttackAttribute,std::allocator<AttackAttribute> >
; Function compile flags: /Ogsp
; File c:\program files (x86)\microsoft visual studio 10.0\vc\include\vector
;	COMDAT ??1?$_Vector_val@UAttackAttribute@@V?$allocator@UAttackAttribute@@@std@@@std@@QAE@XZ
_TEXT	SEGMENT
??1?$_Vector_val@UAttackAttribute@@V?$allocator@UAttackAttribute@@@std@@@std@@QAE@XZ PROC ; std::_Vector_val<AttackAttribute,std::allocator<AttackAttribute> >::~_Vector_val<AttackAttribute,std::allocator<AttackAttribute> >, COMDAT
; _this$ = ecx

; 434  : 		}

  00000	c3		 ret	 0
??1?$_Vector_val@UAttackAttribute@@V?$allocator@UAttackAttribute@@@std@@@std@@QAE@XZ ENDP ; std::_Vector_val<AttackAttribute,std::allocator<AttackAttribute> >::~_Vector_val<AttackAttribute,std::allocator<AttackAttribute> >
_TEXT	ENDS
PUBLIC	??0?$allocator@UAttackAttribute@@@std@@QAE@XZ	; std::allocator<AttackAttribute>::allocator<AttackAttribute>
; Function compile flags: /Ogsp
; File c:\program files (x86)\microsoft visual studio 10.0\vc\include\xmemory
;	COMDAT ??0?$allocator@UAttackAttribute@@@std@@QAE@XZ
_TEXT	SEGMENT
??0?$allocator@UAttackAttribute@@@std@@QAE@XZ PROC	; std::allocator<AttackAttribute>::allocator<AttackAttribute>, COMDAT
; _this$ = ecx

; 161  : 	_ALLOCATOR() _THROW0()

  00000	8b c1		 mov	 eax, ecx

; 162  : 		{	// construct default allocator (do nothing)
; 163  : 		}

  00002	c3		 ret	 0
??0?$allocator@UAttackAttribute@@@std@@QAE@XZ ENDP	; std::allocator<AttackAttribute>::allocator<AttackAttribute>
_TEXT	ENDS
PUBLIC	?DecryptValueToPool@?$CEncrypt@W4TeamType@@@@QAEXPAW4TeamType@@@Z ; CEncrypt<enum TeamType>::DecryptValueToPool
; Function compile flags: /Ogsp
; File d:\lost saga for developer\youtube\tutorial\source\src\lsclient\encryptvalue.h
;	COMDAT ?DecryptValueToPool@?$CEncrypt@W4TeamType@@@@QAEXPAW4TeamType@@@Z
_TEXT	SEGMENT
_value$ = 8						; size = 4
?DecryptValueToPool@?$CEncrypt@W4TeamType@@@@QAEXPAW4TeamType@@@Z PROC ; CEncrypt<enum TeamType>::DecryptValueToPool, COMDAT
; _this$ = ecx

; 2959 : 	{

  00000	55		 push	 ebp
  00001	8b ec		 mov	 ebp, esp
  00003	56		 push	 esi

; 2960 : 		m_RC5.DecryptByte( m_MemPool, m_TempMem, sizeof(TeamType) );

  00004	8d 71 28	 lea	 esi, DWORD PTR [ecx+40]
  00007	6a 04		 push	 4
  00009	8d 41 1c	 lea	 eax, DWORD PTR [ecx+28]
  0000c	56		 push	 esi
  0000d	50		 push	 eax
  0000e	83 c1 0c	 add	 ecx, 12			; 0000000cH
  00011	e8 00 00 00 00	 call	 ?DecryptByte@ccddaabb@@QBEXPBDPADH@Z ; ccddaabb::DecryptByte

; 2961 : 		*value = *((TeamType*)m_TempMem);

  00016	8b 06		 mov	 eax, DWORD PTR [esi]
  00018	8b 4d 08	 mov	 ecx, DWORD PTR _value$[ebp]
  0001b	89 01		 mov	 DWORD PTR [ecx], eax
  0001d	5e		 pop	 esi

; 2962 : 	}

  0001e	5d		 pop	 ebp
  0001f	c2 04 00	 ret	 4
?DecryptValueToPool@?$CEncrypt@W4TeamType@@@@QAEXPAW4TeamType@@@Z ENDP ; CEncrypt<enum TeamType>::DecryptValueToPool
_TEXT	ENDS
PUBLIC	??0?$allocator@UWeaponInfo@@@std@@QAE@ABV01@@Z	; std::allocator<WeaponInfo>::allocator<WeaponInfo>
; Function compile flags: /Ogsp
; File c:\program files (x86)\microsoft visual studio 10.0\vc\include\xmemory
;	COMDAT ??0?$allocator@UWeaponInfo@@@std@@QAE@ABV01@@Z
_TEXT	SEGMENT
___formal$ = 8						; size = 4
??0?$allocator@UWeaponInfo@@@std@@QAE@ABV01@@Z PROC	; std::allocator<WeaponInfo>::allocator<WeaponInfo>, COMDAT
; _this$ = ecx

; 165  : 	_ALLOCATOR(const _ALLOCATOR<_Ty>&) _THROW0()

  00000	8b c1		 mov	 eax, ecx

; 166  : 		{	// construct by copying (do nothing)
; 167  : 		}

  00002	c2 04 00	 ret	 4
??0?$allocator@UWeaponInfo@@@std@@QAE@ABV01@@Z ENDP	; std::allocator<WeaponInfo>::allocator<WeaponInfo>
_TEXT	ENDS
PUBLIC	?deallocate@?$allocator@UWeaponInfo@@@std@@QAEXPAUWeaponInfo@@I@Z ; std::allocator<WeaponInfo>::deallocate
; Function compile flags: /Ogsp
;	COMDAT ?deallocate@?$allocator@UWeaponInfo@@@std@@QAEXPAUWeaponInfo@@I@Z
_TEXT	SEGMENT
__Ptr$ = 8						; size = 4
___formal$ = 12						; size = 4
?deallocate@?$allocator@UWeaponInfo@@@std@@QAEXPAUWeaponInfo@@I@Z PROC ; std::allocator<WeaponInfo>::deallocate, COMDAT
; _this$ = ecx

; 181  : 		{	// deallocate object at _Ptr, ignore size

  00000	55		 push	 ebp
  00001	8b ec		 mov	 ebp, esp

; 182  : 		::operator delete(_Ptr);

  00003	ff 75 08	 push	 DWORD PTR __Ptr$[ebp]
  00006	e8 00 00 00 00	 call	 ??3@YAXPAX@Z		; operator delete
  0000b	59		 pop	 ecx

; 183  : 		}

  0000c	5d		 pop	 ebp
  0000d	c2 08 00	 ret	 8
?deallocate@?$allocator@UWeaponInfo@@@std@@QAEXPAUWeaponInfo@@I@Z ENDP ; std::allocator<WeaponInfo>::deallocate
_TEXT	ENDS
PUBLIC	??0?$allocator@UForceInfo@@@std@@QAE@ABV01@@Z	; std::allocator<ForceInfo>::allocator<ForceInfo>
; Function compile flags: /Ogsp
;	COMDAT ??0?$allocator@UForceInfo@@@std@@QAE@ABV01@@Z
_TEXT	SEGMENT
___formal$ = 8						; size = 4
??0?$allocator@UForceInfo@@@std@@QAE@ABV01@@Z PROC	; std::allocator<ForceInfo>::allocator<ForceInfo>, COMDAT
; _this$ = ecx

; 165  : 	_ALLOCATOR(const _ALLOCATOR<_Ty>&) _THROW0()

  00000	8b c1		 mov	 eax, ecx

; 166  : 		{	// construct by copying (do nothing)
; 167  : 		}

  00002	c2 04 00	 ret	 4
??0?$allocator@UForceInfo@@@std@@QAE@ABV01@@Z ENDP	; std::allocator<ForceInfo>::allocator<ForceInfo>
_TEXT	ENDS
PUBLIC	?deallocate@?$allocator@UForceInfo@@@std@@QAEXPAUForceInfo@@I@Z ; std::allocator<ForceInfo>::deallocate
; Function compile flags: /Ogsp
;	COMDAT ?deallocate@?$allocator@UForceInfo@@@std@@QAEXPAUForceInfo@@I@Z
_TEXT	SEGMENT
__Ptr$ = 8						; size = 4
___formal$ = 12						; size = 4
?deallocate@?$allocator@UForceInfo@@@std@@QAEXPAUForceInfo@@I@Z PROC ; std::allocator<ForceInfo>::deallocate, COMDAT
; _this$ = ecx

; 181  : 		{	// deallocate object at _Ptr, ignore size

  00000	55		 push	 ebp
  00001	8b ec		 mov	 ebp, esp

; 182  : 		::operator delete(_Ptr);

  00003	ff 75 08	 push	 DWORD PTR __Ptr$[ebp]
  00006	e8 00 00 00 00	 call	 ??3@YAXPAX@Z		; operator delete
  0000b	59		 pop	 ecx

; 183  : 		}

  0000c	5d		 pop	 ebp
  0000d	c2 08 00	 ret	 8
?deallocate@?$allocator@UForceInfo@@@std@@QAEXPAUForceInfo@@I@Z ENDP ; std::allocator<ForceInfo>::deallocate
_TEXT	ENDS
PUBLIC	??0?$allocator@UAttackAttribute@@@std@@QAE@ABV01@@Z ; std::allocator<AttackAttribute>::allocator<AttackAttribute>
; Function compile flags: /Ogsp
;	COMDAT ??0?$allocator@UAttackAttribute@@@std@@QAE@ABV01@@Z
_TEXT	SEGMENT
___formal$ = 8						; size = 4
??0?$allocator@UAttackAttribute@@@std@@QAE@ABV01@@Z PROC ; std::allocator<AttackAttribute>::allocator<AttackAttribute>, COMDAT
; _this$ = ecx

; 165  : 	_ALLOCATOR(const _ALLOCATOR<_Ty>&) _THROW0()

  00000	8b c1		 mov	 eax, ecx

; 166  : 		{	// construct by copying (do nothing)
; 167  : 		}

  00002	c2 04 00	 ret	 4
??0?$allocator@UAttackAttribute@@@std@@QAE@ABV01@@Z ENDP ; std::allocator<AttackAttribute>::allocator<AttackAttribute>
_TEXT	ENDS
PUBLIC	?deallocate@?$allocator@UAttackAttribute@@@std@@QAEXPAUAttackAttribute@@I@Z ; std::allocator<AttackAttribute>::deallocate
; Function compile flags: /Ogsp
;	COMDAT ?deallocate@?$allocator@UAttackAttribute@@@std@@QAEXPAUAttackAttribute@@I@Z
_TEXT	SEGMENT
__Ptr$ = 8						; size = 4
___formal$ = 12						; size = 4
?deallocate@?$allocator@UAttackAttribute@@@std@@QAEXPAUAttackAttribute@@I@Z PROC ; std::allocator<AttackAttribute>::deallocate, COMDAT
; _this$ = ecx

; 181  : 		{	// deallocate object at _Ptr, ignore size

  00000	55		 push	 ebp
  00001	8b ec		 mov	 ebp, esp

; 182  : 		::operator delete(_Ptr);

  00003	ff 75 08	 push	 DWORD PTR __Ptr$[ebp]
  00006	e8 00 00 00 00	 call	 ??3@YAXPAX@Z		; operator delete
  0000b	59		 pop	 ecx

; 183  : 		}

  0000c	5d		 pop	 ebp
  0000d	c2 08 00	 ret	 8
?deallocate@?$allocator@UAttackAttribute@@@std@@QAEXPAUAttackAttribute@@I@Z ENDP ; std::allocator<AttackAttribute>::deallocate
_TEXT	ENDS
PUBLIC	??0?$_Vector_const_iterator@V?$_Vector_val@UAttackAttribute@@V?$allocator@UAttackAttribute@@@std@@@std@@@std@@QAE@PAUAttackAttribute@@PBU_Container_base0@1@@Z ; std::_Vector_const_iterator<std::_Vector_val<AttackAttribute,std::allocator<AttackAttribute> > >::_Vector_const_iterator<std::_Vector_val<AttackAttribute,std::allocator<AttackAttribute> > >
; Function compile flags: /Ogsp
; File c:\program files (x86)\microsoft visual studio 10.0\vc\include\vector
;	COMDAT ??0?$_Vector_const_iterator@V?$_Vector_val@UAttackAttribute@@V?$allocator@UAttackAttribute@@@std@@@std@@@std@@QAE@PAUAttackAttribute@@PBU_Container_base0@1@@Z
_TEXT	SEGMENT
__Parg$ = 8						; size = 4
__Pvector$ = 12						; size = 4
??0?$_Vector_const_iterator@V?$_Vector_val@UAttackAttribute@@V?$allocator@UAttackAttribute@@@std@@@std@@@std@@QAE@PAUAttackAttribute@@PBU_Container_base0@1@@Z PROC ; std::_Vector_const_iterator<std::_Vector_val<AttackAttribute,std::allocator<AttackAttribute> > >::_Vector_const_iterator<std::_Vector_val<AttackAttribute,std::allocator<AttackAttribute> > >, COMDAT
; _this$ = ecx

; 45   : 		{	// construct with pointer _Parg

  00000	55		 push	 ebp
  00001	8b ec		 mov	 ebp, esp
  00003	8b c1		 mov	 eax, ecx
  00005	8b 4d 08	 mov	 ecx, DWORD PTR __Parg$[ebp]
  00008	89 08		 mov	 DWORD PTR [eax], ecx

; 46   : 		this->_Adopt(_Pvector);
; 47   : 		}

  0000a	5d		 pop	 ebp
  0000b	c2 08 00	 ret	 8
??0?$_Vector_const_iterator@V?$_Vector_val@UAttackAttribute@@V?$allocator@UAttackAttribute@@@std@@@std@@@std@@QAE@PAUAttackAttribute@@PBU_Container_base0@1@@Z ENDP ; std::_Vector_const_iterator<std::_Vector_val<AttackAttribute,std::allocator<AttackAttribute> > >::_Vector_const_iterator<std::_Vector_val<AttackAttribute,std::allocator<AttackAttribute> > >
_TEXT	ENDS
PUBLIC	?_Compat@?$_Vector_const_iterator@V?$_Vector_val@UAttackAttribute@@V?$allocator@UAttackAttribute@@@std@@@std@@@std@@QBEXABV12@@Z ; std::_Vector_const_iterator<std::_Vector_val<AttackAttribute,std::allocator<AttackAttribute> > >::_Compat
; Function compile flags: /Ogsp
;	COMDAT ?_Compat@?$_Vector_const_iterator@V?$_Vector_val@UAttackAttribute@@V?$allocator@UAttackAttribute@@@std@@@std@@@std@@QBEXABV12@@Z
_TEXT	SEGMENT
___formal$ = 8						; size = 4
?_Compat@?$_Vector_const_iterator@V?$_Vector_val@UAttackAttribute@@V?$allocator@UAttackAttribute@@@std@@@std@@@std@@QBEXABV12@@Z PROC ; std::_Vector_const_iterator<std::_Vector_val<AttackAttribute,std::allocator<AttackAttribute> > >::_Compat, COMDAT
; _this$ = ecx

; 253  : 		}

  00000	c2 04 00	 ret	 4
?_Compat@?$_Vector_const_iterator@V?$_Vector_val@UAttackAttribute@@V?$allocator@UAttackAttribute@@@std@@@std@@@std@@QBEXABV12@@Z ENDP ; std::_Vector_const_iterator<std::_Vector_val<AttackAttribute,std::allocator<AttackAttribute> > >::_Compat
_TEXT	ENDS
EXTRN	__imp_??0exception@std@@QAE@ABV01@@Z:PROC
; Function compile flags: /Ogsp
;	COMDAT ??0bad_alloc@std@@QAE@ABV01@@Z
_TEXT	SEGMENT
___that$ = 8						; size = 4
??0bad_alloc@std@@QAE@ABV01@@Z PROC			; std::bad_alloc::bad_alloc, COMDAT
; _this$ = ecx
  00000	55		 push	 ebp
  00001	8b ec		 mov	 ebp, esp
  00003	56		 push	 esi
  00004	ff 75 08	 push	 DWORD PTR ___that$[ebp]
  00007	8b f1		 mov	 esi, ecx
  00009	ff 15 00 00 00
	00		 call	 DWORD PTR __imp_??0exception@std@@QAE@ABV01@@Z
  0000f	c7 06 00 00 00
	00		 mov	 DWORD PTR [esi], OFFSET ??_7bad_alloc@std@@6B@
  00015	8b c6		 mov	 eax, esi
  00017	5e		 pop	 esi
  00018	5d		 pop	 ebp
  00019	c2 04 00	 ret	 4
??0bad_alloc@std@@QAE@ABV01@@Z ENDP			; std::bad_alloc::bad_alloc
_TEXT	ENDS
PUBLIC	??$_Ptr_cat@UAttackAttribute@@U1@@std@@YA?AU_Nonscalar_ptr_iterator_tag@0@PAUAttackAttribute@@0@Z ; std::_Ptr_cat<AttackAttribute,AttackAttribute>
; Function compile flags: /Ogsp
; File c:\program files (x86)\microsoft visual studio 10.0\vc\include\xutility
;	COMDAT ??$_Ptr_cat@UAttackAttribute@@U1@@std@@YA?AU_Nonscalar_ptr_iterator_tag@0@PAUAttackAttribute@@0@Z
_TEXT	SEGMENT
__Cat$ = -1						; size = 1
___formal$ = 8						; size = 4
___formal$ = 12						; size = 4
??$_Ptr_cat@UAttackAttribute@@U1@@std@@YA?AU_Nonscalar_ptr_iterator_tag@0@PAUAttackAttribute@@0@Z PROC ; std::_Ptr_cat<AttackAttribute,AttackAttribute>, COMDAT

; 516  : 	{	// return pointer category from pointers

  00000	55		 push	 ebp
  00001	8b ec		 mov	 ebp, esp
  00003	51		 push	 ecx

; 517  : 	typename _Ptr_cat_helper<_Elem1, _Elem2>::_Type _Cat;
; 518  : 	return (_Cat);

  00004	8a 45 ff	 mov	 al, BYTE PTR __Cat$[ebp]

; 519  : 	}

  00007	c9		 leave
  00008	c3		 ret	 0
??$_Ptr_cat@UAttackAttribute@@U1@@std@@YA?AU_Nonscalar_ptr_iterator_tag@0@PAUAttackAttribute@@0@Z ENDP ; std::_Ptr_cat<AttackAttribute,AttackAttribute>
_TEXT	ENDS
PUBLIC	??$_Ptr_cat@UWeaponInfo@@U1@@std@@YA?AU_Nonscalar_ptr_iterator_tag@0@PAUWeaponInfo@@0@Z ; std::_Ptr_cat<WeaponInfo,WeaponInfo>
; Function compile flags: /Ogsp
;	COMDAT ??$_Ptr_cat@UWeaponInfo@@U1@@std@@YA?AU_Nonscalar_ptr_iterator_tag@0@PAUWeaponInfo@@0@Z
_TEXT	SEGMENT
__Cat$ = -1						; size = 1
___formal$ = 8						; size = 4
___formal$ = 12						; size = 4
??$_Ptr_cat@UWeaponInfo@@U1@@std@@YA?AU_Nonscalar_ptr_iterator_tag@0@PAUWeaponInfo@@0@Z PROC ; std::_Ptr_cat<WeaponInfo,WeaponInfo>, COMDAT

; 516  : 	{	// return pointer category from pointers

  00000	55		 push	 ebp
  00001	8b ec		 mov	 ebp, esp
  00003	51		 push	 ecx

; 517  : 	typename _Ptr_cat_helper<_Elem1, _Elem2>::_Type _Cat;
; 518  : 	return (_Cat);

  00004	8a 45 ff	 mov	 al, BYTE PTR __Cat$[ebp]

; 519  : 	}

  00007	c9		 leave
  00008	c3		 ret	 0
??$_Ptr_cat@UWeaponInfo@@U1@@std@@YA?AU_Nonscalar_ptr_iterator_tag@0@PAUWeaponInfo@@0@Z ENDP ; std::_Ptr_cat<WeaponInfo,WeaponInfo>
_TEXT	ENDS
PUBLIC	??$_Ptr_cat@UForceInfo@@U1@@std@@YA?AU_Nonscalar_ptr_iterator_tag@0@PAUForceInfo@@0@Z ; std::_Ptr_cat<ForceInfo,ForceInfo>
; Function compile flags: /Ogsp
;	COMDAT ??$_Ptr_cat@UForceInfo@@U1@@std@@YA?AU_Nonscalar_ptr_iterator_tag@0@PAUForceInfo@@0@Z
_TEXT	SEGMENT
__Cat$ = -1						; size = 1
___formal$ = 8						; size = 4
___formal$ = 12						; size = 4
??$_Ptr_cat@UForceInfo@@U1@@std@@YA?AU_Nonscalar_ptr_iterator_tag@0@PAUForceInfo@@0@Z PROC ; std::_Ptr_cat<ForceInfo,ForceInfo>, COMDAT

; 516  : 	{	// return pointer category from pointers

  00000	55		 push	 ebp
  00001	8b ec		 mov	 ebp, esp
  00003	51		 push	 ecx

; 517  : 	typename _Ptr_cat_helper<_Elem1, _Elem2>::_Type _Cat;
; 518  : 	return (_Cat);

  00004	8a 45 ff	 mov	 al, BYTE PTR __Cat$[ebp]

; 519  : 	}

  00007	c9		 leave
  00008	c3		 ret	 0
??$_Ptr_cat@UForceInfo@@U1@@std@@YA?AU_Nonscalar_ptr_iterator_tag@0@PAUForceInfo@@0@Z ENDP ; std::_Ptr_cat<ForceInfo,ForceInfo>
_TEXT	ENDS
PUBLIC	?size@?$vector@UWeaponInfo@@V?$allocator@UWeaponInfo@@@std@@@std@@QBEIXZ ; std::vector<WeaponInfo,std::allocator<WeaponInfo> >::size
; Function compile flags: /Ogsp
; File c:\program files (x86)\microsoft visual studio 10.0\vc\include\vector
;	COMDAT ?size@?$vector@UWeaponInfo@@V?$allocator@UWeaponInfo@@@std@@@std@@QBEIXZ
_TEXT	SEGMENT
?size@?$vector@UWeaponInfo@@V?$allocator@UWeaponInfo@@@std@@@std@@QBEIXZ PROC ; std::vector<WeaponInfo,std::allocator<WeaponInfo> >::size, COMDAT
; _this$ = ecx

; 879  : 		return (this->_Mylast - this->_Myfirst);

  00000	8b 41 04	 mov	 eax, DWORD PTR [ecx+4]
  00003	2b 01		 sub	 eax, DWORD PTR [ecx]
  00005	6a 28		 push	 40			; 00000028H
  00007	99		 cdq
  00008	59		 pop	 ecx
  00009	f7 f9		 idiv	 ecx

; 880  : 		}

  0000b	c3		 ret	 0
?size@?$vector@UWeaponInfo@@V?$allocator@UWeaponInfo@@@std@@@std@@QBEIXZ ENDP ; std::vector<WeaponInfo,std::allocator<WeaponInfo> >::size
_TEXT	ENDS
PUBLIC	?size@?$vector@UForceInfo@@V?$allocator@UForceInfo@@@std@@@std@@QBEIXZ ; std::vector<ForceInfo,std::allocator<ForceInfo> >::size
; Function compile flags: /Ogsp
;	COMDAT ?size@?$vector@UForceInfo@@V?$allocator@UForceInfo@@@std@@@std@@QBEIXZ
_TEXT	SEGMENT
?size@?$vector@UForceInfo@@V?$allocator@UForceInfo@@@std@@@std@@QBEIXZ PROC ; std::vector<ForceInfo,std::allocator<ForceInfo> >::size, COMDAT
; _this$ = ecx

; 879  : 		return (this->_Mylast - this->_Myfirst);

  00000	8b 41 04	 mov	 eax, DWORD PTR [ecx+4]
  00003	2b 01		 sub	 eax, DWORD PTR [ecx]
  00005	6a 0c		 push	 12			; 0000000cH
  00007	99		 cdq
  00008	59		 pop	 ecx
  00009	f7 f9		 idiv	 ecx

; 880  : 		}

  0000b	c3		 ret	 0
?size@?$vector@UForceInfo@@V?$allocator@UForceInfo@@@std@@@std@@QBEIXZ ENDP ; std::vector<ForceInfo,std::allocator<ForceInfo> >::size
_TEXT	ENDS
PUBLIC	?_Xlen@?$vector@UWeaponInfo@@V?$allocator@UWeaponInfo@@@std@@@std@@IBEXXZ ; std::vector<WeaponInfo,std::allocator<WeaponInfo> >::_Xlen
; Function compile flags: /Ogsp
;	COMDAT ?_Xlen@?$vector@UWeaponInfo@@V?$allocator@UWeaponInfo@@@std@@@std@@IBEXXZ
_TEXT	SEGMENT
?_Xlen@?$vector@UWeaponInfo@@V?$allocator@UWeaponInfo@@@std@@@std@@IBEXXZ PROC ; std::vector<WeaponInfo,std::allocator<WeaponInfo> >::_Xlen, COMDAT
; _this$ = ecx

; 1427 : 		_Xlength_error("vector<T> too long");

  00000	68 00 00 00 00	 push	 OFFSET ??_C@_0BD@OLBABOEK@vector?$DMT?$DO?5too?5long?$AA@
  00005	ff 15 00 00 00
	00		 call	 DWORD PTR __imp_?_Xlength_error@std@@YAXPBD@Z
$LN4@Xlen@2:
$LN3@Xlen@2:
  0000b	cc		 int	 3
?_Xlen@?$vector@UWeaponInfo@@V?$allocator@UWeaponInfo@@@std@@@std@@IBEXXZ ENDP ; std::vector<WeaponInfo,std::allocator<WeaponInfo> >::_Xlen
_TEXT	ENDS
PUBLIC	?_Xlen@?$vector@UForceInfo@@V?$allocator@UForceInfo@@@std@@@std@@IBEXXZ ; std::vector<ForceInfo,std::allocator<ForceInfo> >::_Xlen
; Function compile flags: /Ogsp
;	COMDAT ?_Xlen@?$vector@UForceInfo@@V?$allocator@UForceInfo@@@std@@@std@@IBEXXZ
_TEXT	SEGMENT
?_Xlen@?$vector@UForceInfo@@V?$allocator@UForceInfo@@@std@@@std@@IBEXXZ PROC ; std::vector<ForceInfo,std::allocator<ForceInfo> >::_Xlen, COMDAT
; _this$ = ecx

; 1427 : 		_Xlength_error("vector<T> too long");

  00000	68 00 00 00 00	 push	 OFFSET ??_C@_0BD@OLBABOEK@vector?$DMT?$DO?5too?5long?$AA@
  00005	ff 15 00 00 00
	00		 call	 DWORD PTR __imp_?_Xlength_error@std@@YAXPBD@Z
$LN4@Xlen@3:
$LN3@Xlen@3:
  0000b	cc		 int	 3
?_Xlen@?$vector@UForceInfo@@V?$allocator@UForceInfo@@@std@@@std@@IBEXXZ ENDP ; std::vector<ForceInfo,std::allocator<ForceInfo> >::_Xlen
_TEXT	ENDS
PUBLIC	?max_size@?$allocator@UWeaponInfo@@@std@@QBEIXZ	; std::allocator<WeaponInfo>::max_size
; Function compile flags: /Ogsp
; File c:\program files (x86)\microsoft visual studio 10.0\vc\include\xmemory
;	COMDAT ?max_size@?$allocator@UWeaponInfo@@@std@@QBEIXZ
_TEXT	SEGMENT
?max_size@?$allocator@UWeaponInfo@@@std@@QBEIXZ PROC	; std::allocator<WeaponInfo>::max_size, COMDAT
; _this$ = ecx

; 218  : 		_SIZT _Count = (_SIZT)(-1) / sizeof (_Ty);
; 219  : 		return (0 < _Count ? _Count : 1);

  00000	b8 66 66 66 06	 mov	 eax, 107374182		; 06666666H

; 220  : 		}

  00005	c3		 ret	 0
?max_size@?$allocator@UWeaponInfo@@@std@@QBEIXZ ENDP	; std::allocator<WeaponInfo>::max_size
_TEXT	ENDS
PUBLIC	?max_size@?$allocator@UForceInfo@@@std@@QBEIXZ	; std::allocator<ForceInfo>::max_size
; Function compile flags: /Ogsp
;	COMDAT ?max_size@?$allocator@UForceInfo@@@std@@QBEIXZ
_TEXT	SEGMENT
?max_size@?$allocator@UForceInfo@@@std@@QBEIXZ PROC	; std::allocator<ForceInfo>::max_size, COMDAT
; _this$ = ecx

; 218  : 		_SIZT _Count = (_SIZT)(-1) / sizeof (_Ty);
; 219  : 		return (0 < _Count ? _Count : 1);

  00000	b8 55 55 55 15	 mov	 eax, 357913941		; 15555555H

; 220  : 		}

  00005	c3		 ret	 0
?max_size@?$allocator@UForceInfo@@@std@@QBEIXZ ENDP	; std::allocator<ForceInfo>::max_size
_TEXT	ENDS
PUBLIC	??0?$_Vector_const_iterator@V?$_Vector_val@UWeaponInfo@@V?$allocator@UWeaponInfo@@@std@@@std@@@std@@QAE@PAUWeaponInfo@@PBU_Container_base0@1@@Z ; std::_Vector_const_iterator<std::_Vector_val<WeaponInfo,std::allocator<WeaponInfo> > >::_Vector_const_iterator<std::_Vector_val<WeaponInfo,std::allocator<WeaponInfo> > >
; Function compile flags: /Ogsp
; File c:\program files (x86)\microsoft visual studio 10.0\vc\include\vector
;	COMDAT ??0?$_Vector_const_iterator@V?$_Vector_val@UWeaponInfo@@V?$allocator@UWeaponInfo@@@std@@@std@@@std@@QAE@PAUWeaponInfo@@PBU_Container_base0@1@@Z
_TEXT	SEGMENT
__Parg$ = 8						; size = 4
__Pvector$ = 12						; size = 4
??0?$_Vector_const_iterator@V?$_Vector_val@UWeaponInfo@@V?$allocator@UWeaponInfo@@@std@@@std@@@std@@QAE@PAUWeaponInfo@@PBU_Container_base0@1@@Z PROC ; std::_Vector_const_iterator<std::_Vector_val<WeaponInfo,std::allocator<WeaponInfo> > >::_Vector_const_iterator<std::_Vector_val<WeaponInfo,std::allocator<WeaponInfo> > >, COMDAT
; _this$ = ecx

; 45   : 		{	// construct with pointer _Parg

  00000	55		 push	 ebp
  00001	8b ec		 mov	 ebp, esp
  00003	8b c1		 mov	 eax, ecx
  00005	8b 4d 08	 mov	 ecx, DWORD PTR __Parg$[ebp]
  00008	89 08		 mov	 DWORD PTR [eax], ecx

; 46   : 		this->_Adopt(_Pvector);
; 47   : 		}

  0000a	5d		 pop	 ebp
  0000b	c2 08 00	 ret	 8
??0?$_Vector_const_iterator@V?$_Vector_val@UWeaponInfo@@V?$allocator@UWeaponInfo@@@std@@@std@@@std@@QAE@PAUWeaponInfo@@PBU_Container_base0@1@@Z ENDP ; std::_Vector_const_iterator<std::_Vector_val<WeaponInfo,std::allocator<WeaponInfo> > >::_Vector_const_iterator<std::_Vector_val<WeaponInfo,std::allocator<WeaponInfo> > >
_TEXT	ENDS
PUBLIC	??0?$_Vector_const_iterator@V?$_Vector_val@UForceInfo@@V?$allocator@UForceInfo@@@std@@@std@@@std@@QAE@PAUForceInfo@@PBU_Container_base0@1@@Z ; std::_Vector_const_iterator<std::_Vector_val<ForceInfo,std::allocator<ForceInfo> > >::_Vector_const_iterator<std::_Vector_val<ForceInfo,std::allocator<ForceInfo> > >
; Function compile flags: /Ogsp
;	COMDAT ??0?$_Vector_const_iterator@V?$_Vector_val@UForceInfo@@V?$allocator@UForceInfo@@@std@@@std@@@std@@QAE@PAUForceInfo@@PBU_Container_base0@1@@Z
_TEXT	SEGMENT
__Parg$ = 8						; size = 4
__Pvector$ = 12						; size = 4
??0?$_Vector_const_iterator@V?$_Vector_val@UForceInfo@@V?$allocator@UForceInfo@@@std@@@std@@@std@@QAE@PAUForceInfo@@PBU_Container_base0@1@@Z PROC ; std::_Vector_const_iterator<std::_Vector_val<ForceInfo,std::allocator<ForceInfo> > >::_Vector_const_iterator<std::_Vector_val<ForceInfo,std::allocator<ForceInfo> > >, COMDAT
; _this$ = ecx

; 45   : 		{	// construct with pointer _Parg

  00000	55		 push	 ebp
  00001	8b ec		 mov	 ebp, esp
  00003	8b c1		 mov	 eax, ecx
  00005	8b 4d 08	 mov	 ecx, DWORD PTR __Parg$[ebp]
  00008	89 08		 mov	 DWORD PTR [eax], ecx

; 46   : 		this->_Adopt(_Pvector);
; 47   : 		}

  0000a	5d		 pop	 ebp
  0000b	c2 08 00	 ret	 8
??0?$_Vector_const_iterator@V?$_Vector_val@UForceInfo@@V?$allocator@UForceInfo@@@std@@@std@@@std@@QAE@PAUForceInfo@@PBU_Container_base0@1@@Z ENDP ; std::_Vector_const_iterator<std::_Vector_val<ForceInfo,std::allocator<ForceInfo> > >::_Vector_const_iterator<std::_Vector_val<ForceInfo,std::allocator<ForceInfo> > >
_TEXT	ENDS
PUBLIC	?_Compat@?$_Vector_const_iterator@V?$_Vector_val@UWeaponInfo@@V?$allocator@UWeaponInfo@@@std@@@std@@@std@@QBEXABV12@@Z ; std::_Vector_const_iterator<std::_Vector_val<WeaponInfo,std::allocator<WeaponInfo> > >::_Compat
; Function compile flags: /Ogsp
;	COMDAT ?_Compat@?$_Vector_const_iterator@V?$_Vector_val@UWeaponInfo@@V?$allocator@UWeaponInfo@@@std@@@std@@@std@@QBEXABV12@@Z
_TEXT	SEGMENT
___formal$ = 8						; size = 4
?_Compat@?$_Vector_const_iterator@V?$_Vector_val@UWeaponInfo@@V?$allocator@UWeaponInfo@@@std@@@std@@@std@@QBEXABV12@@Z PROC ; std::_Vector_const_iterator<std::_Vector_val<WeaponInfo,std::allocator<WeaponInfo> > >::_Compat, COMDAT
; _this$ = ecx

; 253  : 		}

  00000	c2 04 00	 ret	 4
?_Compat@?$_Vector_const_iterator@V?$_Vector_val@UWeaponInfo@@V?$allocator@UWeaponInfo@@@std@@@std@@@std@@QBEXABV12@@Z ENDP ; std::_Vector_const_iterator<std::_Vector_val<WeaponInfo,std::allocator<WeaponInfo> > >::_Compat
_TEXT	ENDS
PUBLIC	?_Compat@?$_Vector_const_iterator@V?$_Vector_val@UForceInfo@@V?$allocator@UForceInfo@@@std@@@std@@@std@@QBEXABV12@@Z ; std::_Vector_const_iterator<std::_Vector_val<ForceInfo,std::allocator<ForceInfo> > >::_Compat
; Function compile flags: /Ogsp
;	COMDAT ?_Compat@?$_Vector_const_iterator@V?$_Vector_val@UForceInfo@@V?$allocator@UForceInfo@@@std@@@std@@@std@@QBEXABV12@@Z
_TEXT	SEGMENT
___formal$ = 8						; size = 4
?_Compat@?$_Vector_const_iterator@V?$_Vector_val@UForceInfo@@V?$allocator@UForceInfo@@@std@@@std@@@std@@QBEXABV12@@Z PROC ; std::_Vector_const_iterator<std::_Vector_val<ForceInfo,std::allocator<ForceInfo> > >::_Compat, COMDAT
; _this$ = ecx

; 253  : 		}

  00000	c2 04 00	 ret	 4
?_Compat@?$_Vector_const_iterator@V?$_Vector_val@UForceInfo@@V?$allocator@UForceInfo@@@std@@@std@@@std@@QBEXABV12@@Z ENDP ; std::_Vector_const_iterator<std::_Vector_val<ForceInfo,std::allocator<ForceInfo> > >::_Compat
_TEXT	ENDS
PUBLIC	??$_Allocate@UWeaponInfo@@@std@@YAPAUWeaponInfo@@IPAU1@@Z ; std::_Allocate<WeaponInfo>
; Function compile flags: /Ogsp
; File c:\program files (x86)\microsoft visual studio 10.0\vc\include\xmemory
;	COMDAT ??$_Allocate@UWeaponInfo@@@std@@YAPAUWeaponInfo@@IPAU1@@Z
_TEXT	SEGMENT
$T552595 = -12						; size = 12
$T552599 = 8						; size = 4
__Count$ = 8						; size = 4
___formal$ = 12						; size = 4
??$_Allocate@UWeaponInfo@@@std@@YAPAUWeaponInfo@@IPAU1@@Z PROC ; std::_Allocate<WeaponInfo>, COMDAT

; 30   : 	{	// allocate storage for _Count elements of type _Ty

  00000	55		 push	 ebp
  00001	8b ec		 mov	 ebp, esp

; 31   : 	void *_Ptr = 0;
; 32   : 
; 33   : 	if (_Count <= 0)

  00003	8b 4d 08	 mov	 ecx, DWORD PTR __Count$[ebp]
  00006	83 ec 0c	 sub	 esp, 12			; 0000000cH
  00009	33 c0		 xor	 eax, eax
  0000b	85 c9		 test	 ecx, ecx

; 34   : 		_Count = 0;
; 35   : 	else if (((_SIZT)(-1) / sizeof (_Ty) < _Count)

  0000d	74 3c		 je	 SHORT $LN5@Allocate@2

; 36   : 		|| (_Ptr = ::operator new(_Count * sizeof (_Ty))) == 0)

  0000f	81 f9 66 66 66
	06		 cmp	 ecx, 107374182		; 06666666H
  00015	77 0e		 ja	 SHORT $LN1@Allocate@2
  00017	6b c9 28	 imul	 ecx, 40			; 00000028H
  0001a	51		 push	 ecx
  0001b	e8 00 00 00 00	 call	 ??2@YAPAXI@Z		; operator new
  00020	59		 pop	 ecx
  00021	85 c0		 test	 eax, eax

; 38   : 
; 39   : 	return ((_Ty _FARQ *)_Ptr);

  00023	75 26		 jne	 SHORT $LN5@Allocate@2
$LN1@Allocate@2:

; 37   : 		_THROW_NCEE(bad_alloc, 0);

  00025	83 65 08 00	 and	 DWORD PTR $T552599[ebp], 0
  00029	8d 45 08	 lea	 eax, DWORD PTR $T552599[ebp]
  0002c	50		 push	 eax
  0002d	8d 4d f4	 lea	 ecx, DWORD PTR $T552595[ebp]
  00030	ff 15 00 00 00
	00		 call	 DWORD PTR __imp_??0exception@std@@QAE@ABQBD@Z
  00036	68 00 00 00 00	 push	 OFFSET __TI2?AVbad_alloc@std@@
  0003b	8d 45 f4	 lea	 eax, DWORD PTR $T552595[ebp]
  0003e	50		 push	 eax
  0003f	c7 45 f4 00 00
	00 00		 mov	 DWORD PTR $T552595[ebp], OFFSET ??_7bad_alloc@std@@6B@
  00046	e8 00 00 00 00	 call	 __CxxThrowException@8
$LN10@Allocate@2:
$LN5@Allocate@2:

; 40   : 	}

  0004b	c9		 leave
  0004c	c3		 ret	 0
$LN9@Allocate@2:
??$_Allocate@UWeaponInfo@@@std@@YAPAUWeaponInfo@@IPAU1@@Z ENDP ; std::_Allocate<WeaponInfo>
_TEXT	ENDS
PUBLIC	??$_Allocate@UForceInfo@@@std@@YAPAUForceInfo@@IPAU1@@Z ; std::_Allocate<ForceInfo>
; Function compile flags: /Ogsp
;	COMDAT ??$_Allocate@UForceInfo@@@std@@YAPAUForceInfo@@IPAU1@@Z
_TEXT	SEGMENT
$T552604 = -12						; size = 12
$T552608 = 8						; size = 4
__Count$ = 8						; size = 4
___formal$ = 12						; size = 4
??$_Allocate@UForceInfo@@@std@@YAPAUForceInfo@@IPAU1@@Z PROC ; std::_Allocate<ForceInfo>, COMDAT

; 30   : 	{	// allocate storage for _Count elements of type _Ty

  00000	55		 push	 ebp
  00001	8b ec		 mov	 ebp, esp

; 31   : 	void *_Ptr = 0;
; 32   : 
; 33   : 	if (_Count <= 0)

  00003	8b 4d 08	 mov	 ecx, DWORD PTR __Count$[ebp]
  00006	83 ec 0c	 sub	 esp, 12			; 0000000cH
  00009	33 c0		 xor	 eax, eax
  0000b	85 c9		 test	 ecx, ecx

; 34   : 		_Count = 0;
; 35   : 	else if (((_SIZT)(-1) / sizeof (_Ty) < _Count)

  0000d	74 3c		 je	 SHORT $LN5@Allocate@3

; 36   : 		|| (_Ptr = ::operator new(_Count * sizeof (_Ty))) == 0)

  0000f	81 f9 55 55 55
	15		 cmp	 ecx, 357913941		; 15555555H
  00015	77 0e		 ja	 SHORT $LN1@Allocate@3
  00017	6b c9 0c	 imul	 ecx, 12			; 0000000cH
  0001a	51		 push	 ecx
  0001b	e8 00 00 00 00	 call	 ??2@YAPAXI@Z		; operator new
  00020	59		 pop	 ecx
  00021	85 c0		 test	 eax, eax

; 38   : 
; 39   : 	return ((_Ty _FARQ *)_Ptr);

  00023	75 26		 jne	 SHORT $LN5@Allocate@3
$LN1@Allocate@3:

; 37   : 		_THROW_NCEE(bad_alloc, 0);

  00025	83 65 08 00	 and	 DWORD PTR $T552608[ebp], 0
  00029	8d 45 08	 lea	 eax, DWORD PTR $T552608[ebp]
  0002c	50		 push	 eax
  0002d	8d 4d f4	 lea	 ecx, DWORD PTR $T552604[ebp]
  00030	ff 15 00 00 00
	00		 call	 DWORD PTR __imp_??0exception@std@@QAE@ABQBD@Z
  00036	68 00 00 00 00	 push	 OFFSET __TI2?AVbad_alloc@std@@
  0003b	8d 45 f4	 lea	 eax, DWORD PTR $T552604[ebp]
  0003e	50		 push	 eax
  0003f	c7 45 f4 00 00
	00 00		 mov	 DWORD PTR $T552604[ebp], OFFSET ??_7bad_alloc@std@@6B@
  00046	e8 00 00 00 00	 call	 __CxxThrowException@8
$LN10@Allocate@3:
$LN5@Allocate@3:

; 40   : 	}

  0004b	c9		 leave
  0004c	c3		 ret	 0
$LN9@Allocate@3:
??$_Allocate@UForceInfo@@@std@@YAPAUForceInfo@@IPAU1@@Z ENDP ; std::_Allocate<ForceInfo>
_TEXT	ENDS
PUBLIC	??$_Destroy@UForceInfo@@@std@@YAXPAUForceInfo@@@Z ; std::_Destroy<ForceInfo>
; Function compile flags: /Ogsp
;	COMDAT ??$_Destroy@UForceInfo@@@std@@YAXPAUForceInfo@@@Z
_TEXT	SEGMENT
__Ptr$ = 8						; size = 4
??$_Destroy@UForceInfo@@@std@@YAXPAUForceInfo@@@Z PROC	; std::_Destroy<ForceInfo>, COMDAT

; 63   : 	_Ptr->~_Ty();
; 64   : 	}

  00000	c3		 ret	 0
??$_Destroy@UForceInfo@@@std@@YAXPAUForceInfo@@@Z ENDP	; std::_Destroy<ForceInfo>
_TEXT	ENDS
PUBLIC	??_GWeaponInfo@@QAEPAXI@Z			; WeaponInfo::`scalar deleting destructor'
; Function compile flags: /Ogsp
;	COMDAT ??_GWeaponInfo@@QAEPAXI@Z
_TEXT	SEGMENT
___flags$ = 8						; size = 4
??_GWeaponInfo@@QAEPAXI@Z PROC				; WeaponInfo::`scalar deleting destructor', COMDAT
; _this$ = ecx
  00000	55		 push	 ebp
  00001	8b ec		 mov	 ebp, esp
  00003	56		 push	 esi
  00004	8b f1		 mov	 esi, ecx
  00006	8d 4e 08	 lea	 ecx, DWORD PTR [esi+8]
  00009	ff 15 00 00 00
	00		 call	 DWORD PTR __imp_??1ioHashString@@QAE@XZ
  0000f	f6 45 08 01	 test	 BYTE PTR ___flags$[ebp], 1
  00013	74 07		 je	 SHORT $LN1@scalar@3
  00015	56		 push	 esi
  00016	e8 00 00 00 00	 call	 ??3@YAXPAX@Z		; operator delete
  0001b	59		 pop	 ecx
$LN1@scalar@3:
  0001c	8b c6		 mov	 eax, esi
  0001e	5e		 pop	 esi
  0001f	5d		 pop	 ebp
  00020	c2 04 00	 ret	 4
??_GWeaponInfo@@QAEPAXI@Z ENDP				; WeaponInfo::`scalar deleting destructor'
_TEXT	ENDS
PUBLIC	??0WeaponInfo@@QAE@ABU0@@Z			; WeaponInfo::WeaponInfo
EXTRN	__imp_??0ioHashString@@QAE@ABV0@@Z:PROC
; Function compile flags: /Ogsp
;	COMDAT ??0WeaponInfo@@QAE@ABU0@@Z
_TEXT	SEGMENT
___that$ = 8						; size = 4
??0WeaponInfo@@QAE@ABU0@@Z PROC				; WeaponInfo::WeaponInfo, COMDAT
; _this$ = ecx
  00000	55		 push	 ebp
  00001	8b ec		 mov	 ebp, esp
  00003	56		 push	 esi
  00004	57		 push	 edi
  00005	8b 7d 08	 mov	 edi, DWORD PTR ___that$[ebp]
  00008	8b 07		 mov	 eax, DWORD PTR [edi]
  0000a	8b f1		 mov	 esi, ecx
  0000c	89 06		 mov	 DWORD PTR [esi], eax
  0000e	8b 47 04	 mov	 eax, DWORD PTR [edi+4]
  00011	89 46 04	 mov	 DWORD PTR [esi+4], eax
  00014	8d 47 08	 lea	 eax, DWORD PTR [edi+8]
  00017	50		 push	 eax
  00018	8d 4e 08	 lea	 ecx, DWORD PTR [esi+8]
  0001b	ff 15 00 00 00
	00		 call	 DWORD PTR __imp_??0ioHashString@@QAE@ABV0@@Z
  00021	8b 47 18	 mov	 eax, DWORD PTR [edi+24]
  00024	89 46 18	 mov	 DWORD PTR [esi+24], eax
  00027	8b 47 1c	 mov	 eax, DWORD PTR [edi+28]
  0002a	89 46 1c	 mov	 DWORD PTR [esi+28], eax
  0002d	8a 47 20	 mov	 al, BYTE PTR [edi+32]
  00030	88 46 20	 mov	 BYTE PTR [esi+32], al
  00033	8b 47 24	 mov	 eax, DWORD PTR [edi+36]
  00036	89 46 24	 mov	 DWORD PTR [esi+36], eax
  00039	5f		 pop	 edi
  0003a	8b c6		 mov	 eax, esi
  0003c	5e		 pop	 esi
  0003d	5d		 pop	 ebp
  0003e	c2 04 00	 ret	 4
??0WeaponInfo@@QAE@ABU0@@Z ENDP				; WeaponInfo::WeaponInfo
_TEXT	ENDS
PUBLIC	__real@41f0000000000000
PUBLIC	__real@3f800000
PUBLIC	__real@3ff0000000000000
PUBLIC	__real@42c80000
PUBLIC	__$ArrayPad$
PUBLIC	?SetLandAttack@ioTeleportAttackSkill3@@IAEXPAVioBaseChar@@@Z ; ioTeleportAttackSkill3::SetLandAttack
EXTRN	??1SP2Packet@@UAE@XZ:PROC			; SP2Packet::~SP2Packet
EXTRN	?SendToAllPlayingUser@P2PNetwork@@YAXAAVSP2Packet@@PAVioBaseChar@@@Z:PROC ; P2PNetwork::SendToAllPlayingUser
EXTRN	??6SP2Packet@@QAEAAV0@ABUD3DXVECTOR3@@@Z:PROC	; SP2Packet::operator<<
EXTRN	??6SP2Packet@@QAEAAV0@H@Z:PROC			; SP2Packet::operator<<
EXTRN	??6SP2Packet@@QAEAAV0@ABVioHashString@@@Z:PROC	; SP2Packet::operator<<
EXTRN	??0SP2Packet@@QAE@K@Z:PROC			; SP2Packet::SP2Packet
EXTRN	?SetReservedSliding@ioBaseChar@@QAEXABV?$vector@UForceInfo@@V?$allocator@UForceInfo@@@std@@@std@@HMKM_N@Z:PROC ; ioBaseChar::SetReservedSliding
EXTRN	?ClearReservedSliding@ioBaseChar@@QAEXXZ:PROC	; ioBaseChar::ClearReservedSliding
EXTRN	?CheckCharColSkipSkillTime@ioBaseChar@@QAEXHMK@Z:PROC ; ioBaseChar::CheckCharColSkipSkillTime
EXTRN	?RefreshFireTimeListWithBase@ioBaseChar@@QAEXKHABV?$vector@UWeaponInfo@@V?$allocator@UWeaponInfo@@@std@@@std@@W4FireTimeType@@MK_N@Z:PROC ; ioBaseChar::RefreshFireTimeListWithBase
EXTRN	__imp_?GetAnimationFullTime@ioEntityGroup@@QAEMH@Z:PROC
EXTRN	__imp_?SetActionAni@ioEntityGroup@@QAE_NHMMMMMM_N0@Z:PROC
EXTRN	__imp_?ClearAllActionAni@ioEntityGroup@@QAEXM_N@Z:PROC
EXTRN	__imp_?ClearAllLoopAni@ioEntityGroup@@QAEXM_N@Z:PROC
EXTRN	__imp_?GetAnimationIdx@ioEntityGroup@@QAEHABVioHashString@@@Z:PROC
EXTRN	___security_cookie:DWORD
EXTRN	___CxxFrameHandler3:PROC
EXTRN	@__security_check_cookie@4:PROC
EXTRN	__chkstk:PROC
EXTRN	__ftol2:PROC
;	COMDAT __real@41f0000000000000
; File d:\lost saga for developer\youtube\tutorial\source\src\lsclient\ioskill.h
CONST	SEGMENT
__real@41f0000000000000 DQ 041f0000000000000r	; 4.29497e+009
CONST	ENDS
;	COMDAT __real@3f800000
CONST	SEGMENT
__real@3f800000 DD 03f800000r			; 1
CONST	ENDS
;	COMDAT __real@3ff0000000000000
CONST	SEGMENT
__real@3ff0000000000000 DQ 03ff0000000000000r	; 1
CONST	ENDS
;	COMDAT __real@42c80000
CONST	SEGMENT
__real@42c80000 DD 042c80000r			; 100
CONST	ENDS
;	COMDAT xdata$x
xdata$x	SEGMENT
__unwindtable$?SetLandAttack@ioTeleportAttackSkill3@@IAEXPAVioBaseChar@@@Z DD 0ffffffffH
	DD	FLAT:__unwindfunclet$?SetLandAttack@ioTeleportAttackSkill3@@IAEXPAVioBaseChar@@@Z$0
__ehfuncinfo$?SetLandAttack@ioTeleportAttackSkill3@@IAEXPAVioBaseChar@@@Z DD 019930522H
	DD	01H
	DD	FLAT:__unwindtable$?SetLandAttack@ioTeleportAttackSkill3@@IAEXPAVioBaseChar@@@Z
	DD	2 DUP(00H)
	DD	2 DUP(00H)
	DD	00H
	DD	01H
; Function compile flags: /Ogsp
; File d:\lost saga for developer\youtube\tutorial\source\src\lsclient\ioteleportattackskill3.cpp
xdata$x	ENDS
;	COMDAT ?SetLandAttack@ioTeleportAttackSkill3@@IAEXPAVioBaseChar@@@Z
_TEXT	SEGMENT
_dwCurTime$ = -32828					; size = 4
tv285 = -32824						; size = 4
_dwPreDelay$ = -32820					; size = 4
_fTimeRate$ = -32816					; size = 4
_iAniID$ = -32812					; size = 4
_kPacket$548909 = -32808				; size = 32792
__$ArrayPad$ = -16					; size = 4
__$EHRec$ = -12						; size = 12
_pChar$ = 8						; size = 4
?SetLandAttack@ioTeleportAttackSkill3@@IAEXPAVioBaseChar@@@Z PROC ; ioTeleportAttackSkill3::SetLandAttack, COMDAT
; _this$ = ecx

; 546  : {

  00000	55		 push	 ebp
  00001	8b ec		 mov	 ebp, esp
  00003	6a ff		 push	 -1
  00005	68 00 00 00 00	 push	 __ehhandler$?SetLandAttack@ioTeleportAttackSkill3@@IAEXPAVioBaseChar@@@Z
  0000a	64 a1 00 00 00
	00		 mov	 eax, DWORD PTR fs:0
  00010	50		 push	 eax
  00011	b8 30 80 00 00	 mov	 eax, 32816		; 00008030H
  00016	e8 00 00 00 00	 call	 __chkstk
  0001b	a1 00 00 00 00	 mov	 eax, DWORD PTR ___security_cookie
  00020	33 c5		 xor	 eax, ebp
  00022	89 45 f0	 mov	 DWORD PTR __$ArrayPad$[ebp], eax
  00025	53		 push	 ebx
  00026	56		 push	 esi
  00027	57		 push	 edi
  00028	50		 push	 eax
  00029	8d 45 f4	 lea	 eax, DWORD PTR __$EHRec$[ebp]
  0002c	64 a3 00 00 00
	00		 mov	 DWORD PTR fs:0, eax
  00032	8b 7d 08	 mov	 edi, DWORD PTR _pChar$[ebp]
  00035	8b f1		 mov	 esi, ecx

; 547  : 	if ( !pChar )

  00037	85 ff		 test	 edi, edi
  00039	0f 84 54 02 00
	00		 je	 $LN1@SetLandAtt

; 548  : 		return;
; 549  : 
; 550  : 	ioEntityGroup *pGrp = pChar->GetGroup();

  0003f	8b 5f 04	 mov	 ebx, DWORD PTR [edi+4]

; 551  : 	int iAniID = pGrp->GetAnimationIdx( m_LandAttackAttribute.m_AttackAnimation );

  00042	8d 86 a8 0f 00
	00		 lea	 eax, DWORD PTR [esi+4008]
  00048	50		 push	 eax
  00049	8b cb		 mov	 ecx, ebx
  0004b	ff 15 00 00 00
	00		 call	 DWORD PTR __imp_?GetAnimationIdx@ioEntityGroup@@QAEHABVioHashString@@@Z
  00051	89 85 d4 7f ff
	ff		 mov	 DWORD PTR _iAniID$[ebp], eax

; 552  : 	if( iAniID == -1 )	

  00057	83 f8 ff	 cmp	 eax, -1
  0005a	0f 84 33 02 00
	00		 je	 $LN1@SetLandAtt

; 553  : 		return;
; 554  : 
; 555  : 	DWORD dwCurTime = FRAMEGETTIME();

  00060	ff 15 00 00 00
	00		 call	 DWORD PTR __imp_?GetSingleton@ioFrameTimer@@SAAAV1@XZ
  00066	8b c8		 mov	 ecx, eax
  00068	ff 15 00 00 00
	00		 call	 DWORD PTR __imp_?GetLoopSec@ioFrameTimer@@QBEKXZ

; 556  : 	float fTimeRate  = m_LandAttackAttribute.m_fAttackAniRate;

  0006e	f3 0f 10 86 b8
	0f 00 00	 movss	 xmm0, DWORD PTR [esi+4024]

; 557  : 	DWORD dwPreDelay = m_LandAttackAttribute.m_dwPreDelay;
; 558  : 
; 559  : 	pGrp->ClearAllLoopAni( 100.0f, true );

  00076	6a 01		 push	 1
  00078	89 85 c4 7f ff
	ff		 mov	 DWORD PTR _dwCurTime$[ebp], eax
  0007e	8b 86 f0 0f 00
	00		 mov	 eax, DWORD PTR [esi+4080]
  00084	51		 push	 ecx
  00085	f3 0f 11 85 d0
	7f ff ff	 movss	 DWORD PTR _fTimeRate$[ebp], xmm0
  0008d	f3 0f 10 05 00
	00 00 00	 movss	 xmm0, DWORD PTR __real@42c80000
  00095	8b cb		 mov	 ecx, ebx
  00097	89 85 cc 7f ff
	ff		 mov	 DWORD PTR _dwPreDelay$[ebp], eax
  0009d	f3 0f 11 04 24	 movss	 DWORD PTR [esp], xmm0
  000a2	ff 15 00 00 00
	00		 call	 DWORD PTR __imp_?ClearAllLoopAni@ioEntityGroup@@QAEXM_N@Z

; 560  : 	pGrp->ClearAllActionAni( 100.0f, true );

  000a8	f3 0f 10 05 00
	00 00 00	 movss	 xmm0, DWORD PTR __real@42c80000
  000b0	6a 01		 push	 1
  000b2	51		 push	 ecx
  000b3	8b cb		 mov	 ecx, ebx
  000b5	f3 0f 11 04 24	 movss	 DWORD PTR [esp], xmm0
  000ba	ff 15 00 00 00
	00		 call	 DWORD PTR __imp_?ClearAllActionAni@ioEntityGroup@@QAEXM_N@Z

; 561  : 	pGrp->SetActionAni( iAniID, 100.0f, 100.0f, 1.0f, 1.0f/fTimeRate );

  000c0	0f 57 c0	 xorps	 xmm0, xmm0
  000c3	f2 0f 10 0d 00
	00 00 00	 movsd	 xmm1, QWORD PTR __real@3ff0000000000000
  000cb	6a 01		 push	 1
  000cd	6a 00		 push	 0
  000cf	83 ec 18	 sub	 esp, 24			; 00000018H
  000d2	f3 0f 11 44 24
	14		 movss	 DWORD PTR [esp+20], xmm0
  000d8	f3 0f 11 44 24
	10		 movss	 DWORD PTR [esp+16], xmm0
  000de	f3 0f 10 85 d0
	7f ff ff	 movss	 xmm0, DWORD PTR _fTimeRate$[ebp]
  000e6	0f 5a c0	 cvtps2pd xmm0, xmm0
  000e9	f2 0f 5e c8	 divsd	 xmm1, xmm0
  000ed	8b cb		 mov	 ecx, ebx
  000ef	66 0f 5a c1	 cvtpd2ps xmm0, xmm1
  000f3	f3 0f 11 44 24
	0c		 movss	 DWORD PTR [esp+12], xmm0
  000f9	f3 0f 10 05 00
	00 00 00	 movss	 xmm0, DWORD PTR __real@3f800000
  00101	f3 0f 11 44 24
	08		 movss	 DWORD PTR [esp+8], xmm0
  00107	f3 0f 10 05 00
	00 00 00	 movss	 xmm0, DWORD PTR __real@42c80000
  0010f	f3 0f 11 44 24
	04		 movss	 DWORD PTR [esp+4], xmm0
  00115	f3 0f 11 04 24	 movss	 DWORD PTR [esp], xmm0
  0011a	ff b5 d4 7f ff
	ff		 push	 DWORD PTR _iAniID$[ebp]
  00120	ff 15 00 00 00
	00		 call	 DWORD PTR __imp_?SetActionAni@ioEntityGroup@@QAE_NHMMMMMM_N0@Z

; 562  : 
; 563  : 	m_dwMotionEndTime = dwCurTime;

  00126	8b 85 c4 7f ff
	ff		 mov	 eax, DWORD PTR _dwCurTime$[ebp]

; 564  : 	m_dwMotionEndTime += pGrp->GetAnimationFullTime( iAniID ) * fTimeRate;

  0012c	ff b5 d4 7f ff
	ff		 push	 DWORD PTR _iAniID$[ebp]
  00132	8b cb		 mov	 ecx, ebx
  00134	89 86 d8 02 00
	00		 mov	 DWORD PTR [esi+728], eax
  0013a	ff 15 00 00 00
	00		 call	 DWORD PTR __imp_?GetAnimationFullTime@ioEntityGroup@@QAEMH@Z

; 565  : 	m_dwMotionEndTime += dwPreDelay;

  00140	d8 8d d0 7f ff
	ff		 fmul	 DWORD PTR _fTimeRate$[ebp]
  00146	8b 86 d8 02 00
	00		 mov	 eax, DWORD PTR [esi+728]
  0014c	db 86 d8 02 00
	00		 fild	 DWORD PTR [esi+728]
  00152	85 c0		 test	 eax, eax
  00154	79 06		 jns	 SHORT $LN14@SetLandAtt
  00156	dc 05 00 00 00
	00		 fadd	 QWORD PTR __real@41f0000000000000
$LN14@SetLandAtt:

; 564  : 	m_dwMotionEndTime += pGrp->GetAnimationFullTime( iAniID ) * fTimeRate;

  0015c	de c1		 faddp	 ST(1), ST(0)

; 565  : 	m_dwMotionEndTime += dwPreDelay;

  0015e	e8 00 00 00 00	 call	 __ftol2
  00163	03 85 cc 7f ff
	ff		 add	 eax, DWORD PTR _dwPreDelay$[ebp]

; 566  : 
; 567  : 	m_dwWeaponBaseIndex = pChar->IncreaseWeaponIndexBase();

  00169	8b cf		 mov	 ecx, edi
  0016b	89 86 d8 02 00
	00		 mov	 DWORD PTR [esi+728], eax
  00171	e8 00 00 00 00	 call	 ?IncreaseWeaponIndexBase@ioBaseChar@@QAEKXZ ; ioBaseChar::IncreaseWeaponIndexBase

; 568  : 	pChar->RefreshFireTimeListWithBase( m_dwWeaponBaseIndex, iAniID, m_LandAttackAttribute.m_vWeaponInfoList, FTT_SKILL_ATTACK, fTimeRate, m_LandAttackAttribute.m_dwPreDelay );

  00176	f3 0f 10 85 d0
	7f ff ff	 movss	 xmm0, DWORD PTR _fTimeRate$[ebp]
  0017e	6a 00		 push	 0
  00180	ff b6 f0 0f 00
	00		 push	 DWORD PTR [esi+4080]
  00186	89 86 a4 0f 00
	00		 mov	 DWORD PTR [esi+4004], eax
  0018c	51		 push	 ecx
  0018d	f3 0f 11 04 24	 movss	 DWORD PTR [esp], xmm0
  00192	6a 04		 push	 4
  00194	8d 8e d0 0f 00
	00		 lea	 ecx, DWORD PTR [esi+4048]
  0019a	51		 push	 ecx
  0019b	ff b5 d4 7f ff
	ff		 push	 DWORD PTR _iAniID$[ebp]
  001a1	8b cf		 mov	 ecx, edi
  001a3	50		 push	 eax
  001a4	e8 00 00 00 00	 call	 ?RefreshFireTimeListWithBase@ioBaseChar@@QAEXKHABV?$vector@UWeaponInfo@@V?$allocator@UWeaponInfo@@@std@@@std@@W4FireTimeType@@MK_N@Z ; ioBaseChar::RefreshFireTimeListWithBase

; 569  : 
; 570  : 	//캐릭터 충돌 해제
; 571  : 	pChar->CheckCharColSkipSkillTime( iAniID, fTimeRate, dwPreDelay );

  001a9	ff b5 cc 7f ff
	ff		 push	 DWORD PTR _dwPreDelay$[ebp]
  001af	f3 0f 10 85 d0
	7f ff ff	 movss	 xmm0, DWORD PTR _fTimeRate$[ebp]
  001b7	51		 push	 ecx
  001b8	f3 0f 11 04 24	 movss	 DWORD PTR [esp], xmm0
  001bd	ff b5 d4 7f ff
	ff		 push	 DWORD PTR _iAniID$[ebp]
  001c3	8b cf		 mov	 ecx, edi
  001c5	e8 00 00 00 00	 call	 ?CheckCharColSkipSkillTime@ioBaseChar@@QAEXHMK@Z ; ioBaseChar::CheckCharColSkipSkillTime

; 572  : 
; 573  : 	//슬라이딩 설정
; 574  : 	pChar->ClearReservedSliding();

  001ca	8b cf		 mov	 ecx, edi
  001cc	e8 00 00 00 00	 call	 ?ClearReservedSliding@ioBaseChar@@QAEXXZ ; ioBaseChar::ClearReservedSliding

; 575  : 	pChar->SetReservedSliding( m_LandAttackAttribute.m_vForceInfoList, iAniID, fTimeRate, dwPreDelay );

  001d1	f3 0f 10 05 00
	00 00 00	 movss	 xmm0, DWORD PTR __real@3f800000
  001d9	6a 01		 push	 1
  001db	51		 push	 ecx
  001dc	f3 0f 11 04 24	 movss	 DWORD PTR [esp], xmm0
  001e1	ff b5 cc 7f ff
	ff		 push	 DWORD PTR _dwPreDelay$[ebp]
  001e7	f3 0f 10 85 d0
	7f ff ff	 movss	 xmm0, DWORD PTR _fTimeRate$[ebp]
  001ef	51		 push	 ecx
  001f0	f3 0f 11 04 24	 movss	 DWORD PTR [esp], xmm0
  001f5	ff b5 d4 7f ff
	ff		 push	 DWORD PTR _iAniID$[ebp]
  001fb	8d 86 e0 0f 00
	00		 lea	 eax, DWORD PTR [esi+4064]
  00201	50		 push	 eax
  00202	8b cf		 mov	 ecx, edi
  00204	e8 00 00 00 00	 call	 ?SetReservedSliding@ioBaseChar@@QAEXABV?$vector@UForceInfo@@V?$allocator@UForceInfo@@@std@@@std@@HMKM_N@Z ; ioBaseChar::SetReservedSliding

; 576  : 
; 577  : 	m_SkillState = SS_LAND_ATTACK;

  00209	6a 02		 push	 2
  0020b	5b		 pop	 ebx
  0020c	89 9e 58 0f 00
	00		 mov	 DWORD PTR [esi+3928], ebx

; 578  : 
; 579  : 	if ( pChar->IsNeedSendNetwork() )

  00212	8b 07		 mov	 eax, DWORD PTR [edi]
  00214	8b cf		 mov	 ecx, edi
  00216	ff 90 04 01 00
	00		 call	 DWORD PTR [eax+260]
  0021c	84 c0		 test	 al, al
  0021e	74 73		 je	 SHORT $LN1@SetLandAtt

; 580  : 	{
; 581  : 		SP2Packet kPacket( CUPK_SKILL_EXTRA_INFO );

  00220	68 39 41 00 00	 push	 16697			; 00004139H
  00225	8d 8d d8 7f ff
	ff		 lea	 ecx, DWORD PTR _kPacket$548909[ebp]
  0022b	e8 00 00 00 00	 call	 ??0SP2Packet@@QAE@K@Z	; SP2Packet::SP2Packet
  00230	83 65 fc 00	 and	 DWORD PTR __$EHRec$[ebp+8], 0

; 582  : 		kPacket << pChar->GetCharName();

  00234	8d 87 d4 02 00
	00		 lea	 eax, DWORD PTR [edi+724]
  0023a	50		 push	 eax
  0023b	8d 8d d8 7f ff
	ff		 lea	 ecx, DWORD PTR _kPacket$548909[ebp]
  00241	e8 00 00 00 00	 call	 ??6SP2Packet@@QAEAAV0@ABVioHashString@@@Z ; SP2Packet::operator<<

; 583  : 		kPacket << GetName();

  00246	83 c6 24	 add	 esi, 36			; 00000024H
  00249	56		 push	 esi
  0024a	8d 8d d8 7f ff
	ff		 lea	 ecx, DWORD PTR _kPacket$548909[ebp]
  00250	e8 00 00 00 00	 call	 ??6SP2Packet@@QAEAAV0@ABVioHashString@@@Z ; SP2Packet::operator<<

; 584  : 		kPacket << SS_LAND_ATTACK;

  00255	53		 push	 ebx
  00256	8d 8d d8 7f ff
	ff		 lea	 ecx, DWORD PTR _kPacket$548909[ebp]
  0025c	e8 00 00 00 00	 call	 ??6SP2Packet@@QAEAAV0@H@Z ; SP2Packet::operator<<

; 585  : 		kPacket << pChar->GetWorldPosition();

  00261	8b 07		 mov	 eax, DWORD PTR [edi]
  00263	8b cf		 mov	 ecx, edi
  00265	ff 50 70	 call	 DWORD PTR [eax+112]
  00268	50		 push	 eax
  00269	8d 8d d8 7f ff
	ff		 lea	 ecx, DWORD PTR _kPacket$548909[ebp]
  0026f	e8 00 00 00 00	 call	 ??6SP2Packet@@QAEAAV0@ABUD3DXVECTOR3@@@Z ; SP2Packet::operator<<

; 586  : 		P2PNetwork::SendToAllPlayingUser( kPacket );

  00274	8d 85 d8 7f ff
	ff		 lea	 eax, DWORD PTR _kPacket$548909[ebp]
  0027a	6a 00		 push	 0
  0027c	50		 push	 eax
  0027d	e8 00 00 00 00	 call	 ?SendToAllPlayingUser@P2PNetwork@@YAXAAVSP2Packet@@PAVioBaseChar@@@Z ; P2PNetwork::SendToAllPlayingUser

; 587  : 	}

  00282	83 4d fc ff	 or	 DWORD PTR __$EHRec$[ebp+8], -1
  00286	59		 pop	 ecx
  00287	59		 pop	 ecx
  00288	8d 8d d8 7f ff
	ff		 lea	 ecx, DWORD PTR _kPacket$548909[ebp]
  0028e	e8 00 00 00 00	 call	 ??1SP2Packet@@UAE@XZ	; SP2Packet::~SP2Packet
$LN1@SetLandAtt:

; 588  : }

  00293	8b 4d f4	 mov	 ecx, DWORD PTR __$EHRec$[ebp]
  00296	64 89 0d 00 00
	00 00		 mov	 DWORD PTR fs:0, ecx
  0029d	59		 pop	 ecx
  0029e	5f		 pop	 edi
  0029f	5e		 pop	 esi
  002a0	5b		 pop	 ebx
  002a1	8b 4d f0	 mov	 ecx, DWORD PTR __$ArrayPad$[ebp]
  002a4	33 cd		 xor	 ecx, ebp
  002a6	e8 00 00 00 00	 call	 @__security_check_cookie@4
  002ab	c9		 leave
  002ac	c2 04 00	 ret	 4
_TEXT	ENDS
;	COMDAT text$x
text$x	SEGMENT
__unwindfunclet$?SetLandAttack@ioTeleportAttackSkill3@@IAEXPAVioBaseChar@@@Z$0:
  00000	8d 8d d8 7f ff
	ff		 lea	 ecx, DWORD PTR _kPacket$548909[ebp]
  00006	e9 00 00 00 00	 jmp	 ??1SP2Packet@@UAE@XZ	; SP2Packet::~SP2Packet
__ehhandler$?SetLandAttack@ioTeleportAttackSkill3@@IAEXPAVioBaseChar@@@Z:
  0000b	8b 54 24 08	 mov	 edx, DWORD PTR [esp+8]
  0000f	8d 42 0c	 lea	 eax, DWORD PTR [edx+12]
  00012	8b 8a c0 7f ff
	ff		 mov	 ecx, DWORD PTR [edx-32832]
  00018	33 c8		 xor	 ecx, eax
  0001a	e8 00 00 00 00	 call	 @__security_check_cookie@4
  0001f	8b 4a fc	 mov	 ecx, DWORD PTR [edx-4]
  00022	33 c8		 xor	 ecx, eax
  00024	e8 00 00 00 00	 call	 @__security_check_cookie@4
  00029	b8 00 00 00 00	 mov	 eax, OFFSET __ehfuncinfo$?SetLandAttack@ioTeleportAttackSkill3@@IAEXPAVioBaseChar@@@Z
  0002e	e9 00 00 00 00	 jmp	 ___CxxFrameHandler3
text$x	ENDS
?SetLandAttack@ioTeleportAttackSkill3@@IAEXPAVioBaseChar@@@Z ENDP ; ioTeleportAttackSkill3::SetLandAttack
PUBLIC	__real@00000000
PUBLIC	__real@bff0000000000000
PUBLIC	__real@bf800000
PUBLIC	_pStage$GSCopy$
PUBLIC	_this$GSCopy$
PUBLIC	__$ArrayPad$
PUBLIC	?SetBackMoveState@ioTeleportAttackSkill3@@IAEXPAVioBaseChar@@PAVioPlayStage@@@Z ; ioTeleportAttackSkill3::SetBackMoveState
EXTRN	?GetMapHeight@ioPlayStage@@QAEMMMPBVioGameEntity@@_NM1@Z:PROC ; ioPlayStage::GetMapHeight
EXTRN	__imp_??D@YA?AUD3DXVECTOR3@@ABUD3DXQUATERNION@@ABU0@@Z:PROC
;	COMDAT __real@00000000
; File d:\lost saga for developer\youtube\tutorial\source\src\lsclient\ioskill.h
CONST	SEGMENT
__real@00000000 DD 000000000r			; 0
CONST	ENDS
;	COMDAT __real@bff0000000000000
CONST	SEGMENT
__real@bff0000000000000 DQ 0bff0000000000000r	; -1
CONST	ENDS
;	COMDAT __real@bf800000
CONST	SEGMENT
__real@bf800000 DD 0bf800000r			; -1
CONST	ENDS
;	COMDAT xdata$x
xdata$x	SEGMENT
__unwindtable$?SetBackMoveState@ioTeleportAttackSkill3@@IAEXPAVioBaseChar@@PAVioPlayStage@@@Z DD 0ffffffffH
	DD	FLAT:__unwindfunclet$?SetBackMoveState@ioTeleportAttackSkill3@@IAEXPAVioBaseChar@@PAVioPlayStage@@@Z$0
__ehfuncinfo$?SetBackMoveState@ioTeleportAttackSkill3@@IAEXPAVioBaseChar@@PAVioPlayStage@@@Z DD 019930522H
	DD	01H
	DD	FLAT:__unwindtable$?SetBackMoveState@ioTeleportAttackSkill3@@IAEXPAVioBaseChar@@PAVioPlayStage@@@Z
	DD	2 DUP(00H)
	DD	2 DUP(00H)
	DD	00H
	DD	01H
; Function compile flags: /Ogsp
; File d:\lost saga for developer\youtube\tutorial\source\src\lsclient\ioteleportattackskill3.cpp
xdata$x	ENDS
;	COMDAT ?SetBackMoveState@ioTeleportAttackSkill3@@IAEXPAVioBaseChar@@PAVioPlayStage@@@Z
_TEXT	SEGMENT
_this$GSCopy$ = -32852					; size = 4
_pStage$GSCopy$ = -32848				; size = 4
_fMapHeight$ = -32848					; size = 4
_kPacket$548988 = -32844				; size = 32792
_vTargetDir$ = -52					; size = 12
_vPos$ = -40						; size = 12
$T548984 = -28						; size = 12
$T548981 = -28						; size = 12
$T548979 = -28						; size = 12
__$ArrayPad$ = -16					; size = 4
__$EHRec$ = -12						; size = 12
_pChar$ = 8						; size = 4
_pStage$ = 12						; size = 4
?SetBackMoveState@ioTeleportAttackSkill3@@IAEXPAVioBaseChar@@PAVioPlayStage@@@Z PROC ; ioTeleportAttackSkill3::SetBackMoveState, COMDAT
; _this$ = ecx

; 781  : {

  00000	55		 push	 ebp
  00001	8b ec		 mov	 ebp, esp
  00003	6a ff		 push	 -1
  00005	68 00 00 00 00	 push	 __ehhandler$?SetBackMoveState@ioTeleportAttackSkill3@@IAEXPAVioBaseChar@@PAVioPlayStage@@@Z
  0000a	64 a1 00 00 00
	00		 mov	 eax, DWORD PTR fs:0
  00010	50		 push	 eax
  00011	b8 48 80 00 00	 mov	 eax, 32840		; 00008048H
  00016	e8 00 00 00 00	 call	 __chkstk
  0001b	a1 00 00 00 00	 mov	 eax, DWORD PTR ___security_cookie
  00020	33 c5		 xor	 eax, ebp
  00022	89 45 f0	 mov	 DWORD PTR __$ArrayPad$[ebp], eax
  00025	53		 push	 ebx
  00026	56		 push	 esi
  00027	57		 push	 edi
  00028	50		 push	 eax
  00029	8d 45 f4	 lea	 eax, DWORD PTR __$EHRec$[ebp]
  0002c	64 a3 00 00 00
	00		 mov	 DWORD PTR fs:0, eax
  00032	8b 5d 08	 mov	 ebx, DWORD PTR _pChar$[ebp]
  00035	8b c1		 mov	 eax, ecx

; 782  : 	if( m_SkillState == SS_END )

  00037	83 b8 58 0f 00
	00 06		 cmp	 DWORD PTR [eax+3928], 6
  0003e	8b 4d 0c	 mov	 ecx, DWORD PTR _pStage$[ebp]

; 802  : 	{
; 803  : 		SP2Packet kPacket( CUPK_SKILL_EXTRA_INFO );

  00041	89 85 ac 7f ff
	ff		 mov	 DWORD PTR _this$GSCopy$[ebp], eax
  00047	89 8d b0 7f ff
	ff		 mov	 DWORD PTR _pStage$GSCopy$[ebp], ecx
  0004d	0f 84 2f 02 00
	00		 je	 $LN1@SetBackMov

; 783  : 		return;
; 784  : 
; 785  : 	m_SkillState = SS_BACK_MOVE;

  00053	0f 57 c0	 xorps	 xmm0, xmm0
  00056	c7 80 58 0f 00
	00 05 00 00 00	 mov	 DWORD PTR [eax+3928], 5

; 786  : 	
; 787  : 
; 788  : 	D3DXVECTOR3 vTargetDir = pChar->GetTargetRot() * D3DXVECTOR3( 0.0f, 0.0f, -1.0f );

  00060	8d 45 e4	 lea	 eax, DWORD PTR $T548979[ebp]
  00063	50		 push	 eax
  00064	8d 83 a4 06 00
	00		 lea	 eax, DWORD PTR [ebx+1700]
  0006a	50		 push	 eax
  0006b	8d 45 cc	 lea	 eax, DWORD PTR _vTargetDir$[ebp]
  0006e	f3 0f 11 45 e4	 movss	 DWORD PTR $T548979[ebp], xmm0
  00073	f3 0f 11 45 e8	 movss	 DWORD PTR $T548979[ebp+4], xmm0
  00078	f3 0f 10 05 00
	00 00 00	 movss	 xmm0, DWORD PTR __real@bf800000
  00080	50		 push	 eax
  00081	f3 0f 11 45 ec	 movss	 DWORD PTR $T548979[ebp+8], xmm0
  00086	ff 15 00 00 00
	00		 call	 DWORD PTR __imp_??D@YA?AUD3DXVECTOR3@@ABUD3DXQUATERNION@@ABU0@@Z

; 789  : 
; 790  : 	vTargetDir = vTargetDir * -1.f;

  0008c	f3 0f 10 45 cc	 movss	 xmm0, DWORD PTR _vTargetDir$[ebp]
  00091	f3 0f 10 55 d0	 movss	 xmm2, DWORD PTR _vTargetDir$[ebp+4]
  00096	f3 0f 10 5d d4	 movss	 xmm3, DWORD PTR _vTargetDir$[ebp+8]

; 791  : 
; 792  : 	D3DXVECTOR3 vPos = pChar->GetWorldPosition();

  0009b	8b 03		 mov	 eax, DWORD PTR [ebx]
  0009d	0f 5a c8	 cvtps2pd xmm1, xmm0
  000a0	f2 0f 10 05 00
	00 00 00	 movsd	 xmm0, QWORD PTR __real@bff0000000000000
  000a8	f2 0f 59 c8	 mulsd	 xmm1, xmm0
  000ac	0f 5a d2	 cvtps2pd xmm2, xmm2
  000af	f2 0f 59 d0	 mulsd	 xmm2, xmm0
  000b3	0f 5a db	 cvtps2pd xmm3, xmm3
  000b6	f2 0f 59 d8	 mulsd	 xmm3, xmm0
  000ba	0f 57 c0	 xorps	 xmm0, xmm0
  000bd	66 0f 5a c9	 cvtpd2ps xmm1, xmm1
  000c1	f3 0f 11 4d e4	 movss	 DWORD PTR $T548981[ebp], xmm1
  000c6	66 0f 5a d2	 cvtpd2ps xmm2, xmm2
  000ca	f3 0f 11 55 e8	 movss	 DWORD PTR $T548981[ebp+4], xmm2
  000cf	66 0f 5a c3	 cvtpd2ps xmm0, xmm3
  000d3	f3 0f 11 45 ec	 movss	 DWORD PTR $T548981[ebp+8], xmm0
  000d8	8d 75 e4	 lea	 esi, DWORD PTR $T548981[ebp]
  000db	8d 7d cc	 lea	 edi, DWORD PTR _vTargetDir$[ebp]
  000de	a5		 movsd
  000df	a5		 movsd
  000e0	83 c4 0c	 add	 esp, 12			; 0000000cH
  000e3	8b cb		 mov	 ecx, ebx
  000e5	a5		 movsd
  000e6	ff 50 70	 call	 DWORD PTR [eax+112]

; 793  : 	vPos = vPos + vTargetDir*m_fBackRange;

  000e9	f3 0f 10 55 cc	 movss	 xmm2, DWORD PTR _vTargetDir$[ebp]
  000ee	0f 5a d2	 cvtps2pd xmm2, xmm2
  000f1	8b f0		 mov	 esi, eax
  000f3	8b 85 ac 7f ff
	ff		 mov	 eax, DWORD PTR _this$GSCopy$[ebp]
  000f9	f3 0f 10 80 b4
	10 00 00	 movss	 xmm0, DWORD PTR [eax+4276]
  00101	0f 5a c8	 cvtps2pd xmm1, xmm0
  00104	f2 0f 59 ca	 mulsd	 xmm1, xmm2
  00108	f3 0f 10 55 d0	 movss	 xmm2, DWORD PTR _vTargetDir$[ebp+4]
  0010d	0f 5a d8	 cvtps2pd xmm3, xmm0
  00110	8d 7d d8	 lea	 edi, DWORD PTR _vPos$[ebp]
  00113	a5		 movsd
  00114	0f 5a d2	 cvtps2pd xmm2, xmm2
  00117	f2 0f 59 d3	 mulsd	 xmm2, xmm3
  0011b	f3 0f 10 5d d4	 movss	 xmm3, DWORD PTR _vTargetDir$[ebp+8]
  00120	66 0f 5a c9	 cvtpd2ps xmm1, xmm1
  00124	a5		 movsd
  00125	0f 5a c0	 cvtps2pd xmm0, xmm0
  00128	0f 5a db	 cvtps2pd xmm3, xmm3
  0012b	f2 0f 59 d8	 mulsd	 xmm3, xmm0
  0012f	0f 57 c0	 xorps	 xmm0, xmm0
  00132	f3 0f 5a c1	 cvtss2sd xmm0, xmm1
  00136	a5		 movsd
  00137	f3 0f 10 4d d8	 movss	 xmm1, DWORD PTR _vPos$[ebp]
  0013c	0f 5a c9	 cvtps2pd xmm1, xmm1
  0013f	f2 0f 58 c1	 addsd	 xmm0, xmm1
  00143	0f 57 c9	 xorps	 xmm1, xmm1
  00146	66 0f 5a d2	 cvtpd2ps xmm2, xmm2
  0014a	f3 0f 5a ca	 cvtss2sd xmm1, xmm2
  0014e	f3 0f 10 55 dc	 movss	 xmm2, DWORD PTR _vPos$[ebp+4]
  00153	0f 5a d2	 cvtps2pd xmm2, xmm2
  00156	f2 0f 58 ca	 addsd	 xmm1, xmm2
  0015a	66 0f 5a db	 cvtpd2ps xmm3, xmm3
  0015e	0f 57 d2	 xorps	 xmm2, xmm2
  00161	66 0f 5a d1	 cvtpd2ps xmm2, xmm1
  00165	0f 57 c9	 xorps	 xmm1, xmm1
  00168	f3 0f 5a cb	 cvtss2sd xmm1, xmm3
  0016c	f3 0f 10 5d e0	 movss	 xmm3, DWORD PTR _vPos$[ebp+8]
  00171	0f 5a db	 cvtps2pd xmm3, xmm3
  00174	66 0f 5a c0	 cvtpd2ps xmm0, xmm0
  00178	f2 0f 58 cb	 addsd	 xmm1, xmm3
  0017c	66 0f 5a c9	 cvtpd2ps xmm1, xmm1
  00180	f3 0f 11 45 e4	 movss	 DWORD PTR $T548984[ebp], xmm0
  00185	f3 0f 11 55 e8	 movss	 DWORD PTR $T548984[ebp+4], xmm2

; 794  : 
; 795  : 	float fMapHeight = pStage->GetMapHeight( vPos.x, vPos.z );

  0018a	0f 57 d2	 xorps	 xmm2, xmm2
  0018d	f3 0f 11 4d ec	 movss	 DWORD PTR $T548984[ebp+8], xmm1
  00192	8d 75 e4	 lea	 esi, DWORD PTR $T548984[ebp]
  00195	8d 7d d8	 lea	 edi, DWORD PTR _vPos$[ebp]
  00198	a5		 movsd
  00199	a5		 movsd
  0019a	a5		 movsd
  0019b	33 ff		 xor	 edi, edi
  0019d	57		 push	 edi
  0019e	51		 push	 ecx
  0019f	f3 0f 11 14 24	 movss	 DWORD PTR [esp], xmm2
  001a4	6a 01		 push	 1
  001a6	57		 push	 edi
  001a7	51		 push	 ecx
  001a8	51		 push	 ecx
  001a9	8b 8d b0 7f ff
	ff		 mov	 ecx, DWORD PTR _pStage$GSCopy$[ebp]
  001af	f3 0f 11 4c 24
	04		 movss	 DWORD PTR [esp+4], xmm1
  001b5	f3 0f 11 04 24	 movss	 DWORD PTR [esp], xmm0
  001ba	e8 00 00 00 00	 call	 ?GetMapHeight@ioPlayStage@@QAEMMMPBVioGameEntity@@_NM1@Z ; ioPlayStage::GetMapHeight
  001bf	d9 9d b0 7f ff
	ff		 fstp	 DWORD PTR _fMapHeight$[ebp]

; 796  : 	if( fMapHeight > 0.0f && fMapHeight > vPos.y )

  001c5	d9 ee		 fldz
  001c7	d9 85 b0 7f ff
	ff		 fld	 DWORD PTR _fMapHeight$[ebp]
  001cd	df f1		 fcomip	 ST(1)
  001cf	dd d8		 fstp	 ST(0)
  001d1	76 1e		 jbe	 SHORT $LN2@SetBackMov
  001d3	f3 0f 10 85 b0
	7f ff ff	 movss	 xmm0, DWORD PTR _fMapHeight$[ebp]
  001db	f3 0f 10 55 dc	 movss	 xmm2, DWORD PTR _vPos$[ebp+4]
  001e0	0f 5a c8	 cvtps2pd xmm1, xmm0
  001e3	0f 5a d2	 cvtps2pd xmm2, xmm2
  001e6	66 0f 2f ca	 comisd	 xmm1, xmm2
  001ea	76 05		 jbe	 SHORT $LN2@SetBackMov

; 797  : 		vPos.y = fMapHeight;

  001ec	f3 0f 11 45 dc	 movss	 DWORD PTR _vPos$[ebp+4], xmm0
$LN2@SetBackMov:

; 798  : 
; 799  : 	pChar->SetWorldPosition( vPos );

  001f1	8b 03		 mov	 eax, DWORD PTR [ebx]
  001f3	8d 4d d8	 lea	 ecx, DWORD PTR _vPos$[ebp]
  001f6	51		 push	 ecx
  001f7	8b cb		 mov	 ecx, ebx
  001f9	ff 50 44	 call	 DWORD PTR [eax+68]

; 800  : 
; 801  : 	if( pChar->IsNeedSendNetwork() )

  001fc	8b 03		 mov	 eax, DWORD PTR [ebx]
  001fe	8b cb		 mov	 ecx, ebx
  00200	ff 90 04 01 00
	00		 call	 DWORD PTR [eax+260]
  00206	84 c0		 test	 al, al
  00208	74 78		 je	 SHORT $LN1@SetBackMov

; 802  : 	{
; 803  : 		SP2Packet kPacket( CUPK_SKILL_EXTRA_INFO );

  0020a	68 39 41 00 00	 push	 16697			; 00004139H
  0020f	8d 8d b4 7f ff
	ff		 lea	 ecx, DWORD PTR _kPacket$548988[ebp]
  00215	e8 00 00 00 00	 call	 ??0SP2Packet@@QAE@K@Z	; SP2Packet::SP2Packet

; 804  : 		kPacket << pChar->GetCharName();

  0021a	81 c3 d4 02 00
	00		 add	 ebx, 724		; 000002d4H
  00220	53		 push	 ebx
  00221	8d 8d b4 7f ff
	ff		 lea	 ecx, DWORD PTR _kPacket$548988[ebp]
  00227	89 7d fc	 mov	 DWORD PTR __$EHRec$[ebp+8], edi
  0022a	e8 00 00 00 00	 call	 ??6SP2Packet@@QAEAAV0@ABVioHashString@@@Z ; SP2Packet::operator<<

; 805  : 		kPacket << GetName();

  0022f	8b b5 ac 7f ff
	ff		 mov	 esi, DWORD PTR _this$GSCopy$[ebp]
  00235	8d 46 24	 lea	 eax, DWORD PTR [esi+36]
  00238	50		 push	 eax
  00239	8d 8d b4 7f ff
	ff		 lea	 ecx, DWORD PTR _kPacket$548988[ebp]
  0023f	e8 00 00 00 00	 call	 ??6SP2Packet@@QAEAAV0@ABVioHashString@@@Z ; SP2Packet::operator<<

; 806  : 		kPacket << m_SkillState;

  00244	ff b6 58 0f 00
	00		 push	 DWORD PTR [esi+3928]
  0024a	8d 8d b4 7f ff
	ff		 lea	 ecx, DWORD PTR _kPacket$548988[ebp]
  00250	e8 00 00 00 00	 call	 ??6SP2Packet@@QAEAAV0@H@Z ; SP2Packet::operator<<

; 807  : 		kPacket << vPos;

  00255	8d 45 d8	 lea	 eax, DWORD PTR _vPos$[ebp]
  00258	50		 push	 eax
  00259	8d 8d b4 7f ff
	ff		 lea	 ecx, DWORD PTR _kPacket$548988[ebp]
  0025f	e8 00 00 00 00	 call	 ??6SP2Packet@@QAEAAV0@ABUD3DXVECTOR3@@@Z ; SP2Packet::operator<<

; 808  : 		P2PNetwork::SendToAllPlayingUser( kPacket );

  00264	8d 85 b4 7f ff
	ff		 lea	 eax, DWORD PTR _kPacket$548988[ebp]
  0026a	57		 push	 edi
  0026b	50		 push	 eax
  0026c	e8 00 00 00 00	 call	 ?SendToAllPlayingUser@P2PNetwork@@YAXAAVSP2Packet@@PAVioBaseChar@@@Z ; P2PNetwork::SendToAllPlayingUser

; 809  : 	}

  00271	83 4d fc ff	 or	 DWORD PTR __$EHRec$[ebp+8], -1
  00275	59		 pop	 ecx
  00276	59		 pop	 ecx
  00277	8d 8d b4 7f ff
	ff		 lea	 ecx, DWORD PTR _kPacket$548988[ebp]
  0027d	e8 00 00 00 00	 call	 ??1SP2Packet@@UAE@XZ	; SP2Packet::~SP2Packet
$LN1@SetBackMov:

; 810  : }

  00282	8b 4d f4	 mov	 ecx, DWORD PTR __$EHRec$[ebp]
  00285	64 89 0d 00 00
	00 00		 mov	 DWORD PTR fs:0, ecx
  0028c	59		 pop	 ecx
  0028d	5f		 pop	 edi
  0028e	5e		 pop	 esi
  0028f	5b		 pop	 ebx
  00290	8b 4d f0	 mov	 ecx, DWORD PTR __$ArrayPad$[ebp]
  00293	33 cd		 xor	 ecx, ebp
  00295	e8 00 00 00 00	 call	 @__security_check_cookie@4
  0029a	c9		 leave
  0029b	c2 08 00	 ret	 8
_TEXT	ENDS
;	COMDAT text$x
text$x	SEGMENT
__unwindfunclet$?SetBackMoveState@ioTeleportAttackSkill3@@IAEXPAVioBaseChar@@PAVioPlayStage@@@Z$0:
  00000	8d 8d b4 7f ff
	ff		 lea	 ecx, DWORD PTR _kPacket$548988[ebp]
  00006	e9 00 00 00 00	 jmp	 ??1SP2Packet@@UAE@XZ	; SP2Packet::~SP2Packet
__ehhandler$?SetBackMoveState@ioTeleportAttackSkill3@@IAEXPAVioBaseChar@@PAVioPlayStage@@@Z:
  0000b	8b 54 24 08	 mov	 edx, DWORD PTR [esp+8]
  0000f	8d 42 0c	 lea	 eax, DWORD PTR [edx+12]
  00012	8b 8a a8 7f ff
	ff		 mov	 ecx, DWORD PTR [edx-32856]
  00018	33 c8		 xor	 ecx, eax
  0001a	e8 00 00 00 00	 call	 @__security_check_cookie@4
  0001f	8b 4a fc	 mov	 ecx, DWORD PTR [edx-4]
  00022	33 c8		 xor	 ecx, eax
  00024	e8 00 00 00 00	 call	 @__security_check_cookie@4
  00029	b8 00 00 00 00	 mov	 eax, OFFSET __ehfuncinfo$?SetBackMoveState@ioTeleportAttackSkill3@@IAEXPAVioBaseChar@@PAVioPlayStage@@@Z
  0002e	e9 00 00 00 00	 jmp	 ___CxxFrameHandler3
text$x	ENDS
?SetBackMoveState@ioTeleportAttackSkill3@@IAEXPAVioBaseChar@@PAVioPlayStage@@@Z ENDP ; ioTeleportAttackSkill3::SetBackMoveState
PUBLIC	__$ArrayPad$
PUBLIC	?SetEndState@ioTeleportAttackSkill3@@IAEXPAVioBaseChar@@@Z ; ioTeleportAttackSkill3::SetEndState
;	COMDAT xdata$x
; File d:\lost saga for developer\youtube\tutorial\source\src\lsclient\ioskill.h
xdata$x	SEGMENT
__unwindtable$?SetEndState@ioTeleportAttackSkill3@@IAEXPAVioBaseChar@@@Z DD 0ffffffffH
	DD	FLAT:__unwindfunclet$?SetEndState@ioTeleportAttackSkill3@@IAEXPAVioBaseChar@@@Z$0
__ehfuncinfo$?SetEndState@ioTeleportAttackSkill3@@IAEXPAVioBaseChar@@@Z DD 019930522H
	DD	01H
	DD	FLAT:__unwindtable$?SetEndState@ioTeleportAttackSkill3@@IAEXPAVioBaseChar@@@Z
	DD	2 DUP(00H)
	DD	2 DUP(00H)
	DD	00H
	DD	01H
; Function compile flags: /Ogsp
; File d:\lost saga for developer\youtube\tutorial\source\src\lsclient\ioteleportattackskill3.cpp
xdata$x	ENDS
;	COMDAT ?SetEndState@ioTeleportAttackSkill3@@IAEXPAVioBaseChar@@@Z
_TEXT	SEGMENT
_kPacket$548995 = -32808				; size = 32792
__$ArrayPad$ = -16					; size = 4
__$EHRec$ = -12						; size = 12
_pChar$ = 8						; size = 4
?SetEndState@ioTeleportAttackSkill3@@IAEXPAVioBaseChar@@@Z PROC ; ioTeleportAttackSkill3::SetEndState, COMDAT
; _this$ = ecx

; 814  : {

  00000	55		 push	 ebp
  00001	8b ec		 mov	 ebp, esp
  00003	6a ff		 push	 -1
  00005	68 00 00 00 00	 push	 __ehhandler$?SetEndState@ioTeleportAttackSkill3@@IAEXPAVioBaseChar@@@Z
  0000a	64 a1 00 00 00
	00		 mov	 eax, DWORD PTR fs:0
  00010	50		 push	 eax
  00011	b8 1c 80 00 00	 mov	 eax, 32796		; 0000801cH
  00016	e8 00 00 00 00	 call	 __chkstk
  0001b	a1 00 00 00 00	 mov	 eax, DWORD PTR ___security_cookie
  00020	33 c5		 xor	 eax, ebp
  00022	89 45 f0	 mov	 DWORD PTR __$ArrayPad$[ebp], eax
  00025	56		 push	 esi
  00026	57		 push	 edi
  00027	50		 push	 eax
  00028	8d 45 f4	 lea	 eax, DWORD PTR __$EHRec$[ebp]
  0002b	64 a3 00 00 00
	00		 mov	 DWORD PTR fs:0, eax
  00031	8b 75 08	 mov	 esi, DWORD PTR _pChar$[ebp]
  00034	8b f9		 mov	 edi, ecx

; 815  : 	if( m_SkillState == SS_END )

  00036	83 bf 58 0f 00
	00 06		 cmp	 DWORD PTR [edi+3928], 6
  0003d	74 79		 je	 SHORT $LN1@SetEndStat

; 816  : 		return;
; 817  : 
; 818  : 	m_SkillState = SS_END;

  0003f	c7 87 58 0f 00
	00 06 00 00 00	 mov	 DWORD PTR [edi+3928], 6

; 819  : 
; 820  : 
; 821  : 	if( pChar->IsNeedSendNetwork() )

  00049	8b 06		 mov	 eax, DWORD PTR [esi]
  0004b	8b ce		 mov	 ecx, esi
  0004d	ff 90 04 01 00
	00		 call	 DWORD PTR [eax+260]
  00053	84 c0		 test	 al, al
  00055	74 61		 je	 SHORT $LN1@SetEndStat

; 822  : 	{
; 823  : 		SP2Packet kPacket( CUPK_SKILL_EXTRA_INFO );

  00057	68 39 41 00 00	 push	 16697			; 00004139H
  0005c	8d 8d d8 7f ff
	ff		 lea	 ecx, DWORD PTR _kPacket$548995[ebp]
  00062	e8 00 00 00 00	 call	 ??0SP2Packet@@QAE@K@Z	; SP2Packet::SP2Packet
  00067	83 65 fc 00	 and	 DWORD PTR __$EHRec$[ebp+8], 0

; 824  : 		kPacket << pChar->GetCharName();

  0006b	81 c6 d4 02 00
	00		 add	 esi, 724		; 000002d4H
  00071	56		 push	 esi
  00072	8d 8d d8 7f ff
	ff		 lea	 ecx, DWORD PTR _kPacket$548995[ebp]
  00078	e8 00 00 00 00	 call	 ??6SP2Packet@@QAEAAV0@ABVioHashString@@@Z ; SP2Packet::operator<<

; 825  : 		kPacket << GetName();

  0007d	83 c7 24	 add	 edi, 36			; 00000024H
  00080	57		 push	 edi
  00081	8d 8d d8 7f ff
	ff		 lea	 ecx, DWORD PTR _kPacket$548995[ebp]
  00087	e8 00 00 00 00	 call	 ??6SP2Packet@@QAEAAV0@ABVioHashString@@@Z ; SP2Packet::operator<<

; 826  : 		kPacket << SS_END;

  0008c	6a 06		 push	 6
  0008e	8d 8d d8 7f ff
	ff		 lea	 ecx, DWORD PTR _kPacket$548995[ebp]
  00094	e8 00 00 00 00	 call	 ??6SP2Packet@@QAEAAV0@H@Z ; SP2Packet::operator<<

; 827  : 		P2PNetwork::SendToAllPlayingUser( kPacket );

  00099	8d 85 d8 7f ff
	ff		 lea	 eax, DWORD PTR _kPacket$548995[ebp]
  0009f	6a 00		 push	 0
  000a1	50		 push	 eax
  000a2	e8 00 00 00 00	 call	 ?SendToAllPlayingUser@P2PNetwork@@YAXAAVSP2Packet@@PAVioBaseChar@@@Z ; P2PNetwork::SendToAllPlayingUser

; 828  : 	}

  000a7	83 4d fc ff	 or	 DWORD PTR __$EHRec$[ebp+8], -1
  000ab	59		 pop	 ecx
  000ac	59		 pop	 ecx
  000ad	8d 8d d8 7f ff
	ff		 lea	 ecx, DWORD PTR _kPacket$548995[ebp]
  000b3	e8 00 00 00 00	 call	 ??1SP2Packet@@UAE@XZ	; SP2Packet::~SP2Packet
$LN1@SetEndStat:

; 829  : }

  000b8	8b 4d f4	 mov	 ecx, DWORD PTR __$EHRec$[ebp]
  000bb	64 89 0d 00 00
	00 00		 mov	 DWORD PTR fs:0, ecx
  000c2	59		 pop	 ecx
  000c3	5f		 pop	 edi
  000c4	5e		 pop	 esi
  000c5	8b 4d f0	 mov	 ecx, DWORD PTR __$ArrayPad$[ebp]
  000c8	33 cd		 xor	 ecx, ebp
  000ca	e8 00 00 00 00	 call	 @__security_check_cookie@4
  000cf	c9		 leave
  000d0	c2 04 00	 ret	 4
_TEXT	ENDS
;	COMDAT text$x
text$x	SEGMENT
__unwindfunclet$?SetEndState@ioTeleportAttackSkill3@@IAEXPAVioBaseChar@@@Z$0:
  00000	8d 8d d8 7f ff
	ff		 lea	 ecx, DWORD PTR _kPacket$548995[ebp]
  00006	e9 00 00 00 00	 jmp	 ??1SP2Packet@@UAE@XZ	; SP2Packet::~SP2Packet
__ehhandler$?SetEndState@ioTeleportAttackSkill3@@IAEXPAVioBaseChar@@@Z:
  0000b	8b 54 24 08	 mov	 edx, DWORD PTR [esp+8]
  0000f	8d 42 0c	 lea	 eax, DWORD PTR [edx+12]
  00012	8b 8a d8 7f ff
	ff		 mov	 ecx, DWORD PTR [edx-32808]
  00018	33 c8		 xor	 ecx, eax
  0001a	e8 00 00 00 00	 call	 @__security_check_cookie@4
  0001f	8b 4a fc	 mov	 ecx, DWORD PTR [edx-4]
  00022	33 c8		 xor	 ecx, eax
  00024	e8 00 00 00 00	 call	 @__security_check_cookie@4
  00029	b8 00 00 00 00	 mov	 eax, OFFSET __ehfuncinfo$?SetEndState@ioTeleportAttackSkill3@@IAEXPAVioBaseChar@@@Z
  0002e	e9 00 00 00 00	 jmp	 ___CxxFrameHandler3
text$x	ENDS
?SetEndState@ioTeleportAttackSkill3@@IAEXPAVioBaseChar@@@Z ENDP ; ioTeleportAttackSkill3::SetEndState
PUBLIC	?begin@?$vector@PAVioBaseChar@@V?$allocator@PAVioBaseChar@@@std@@@std@@QBE?AV?$_Vector_const_iterator@V?$_Vector_val@PAVioBaseChar@@V?$allocator@PAVioBaseChar@@@std@@@std@@@2@XZ ; std::vector<ioBaseChar *,std::allocator<ioBaseChar *> >::begin
; Function compile flags: /Ogsp
; File c:\program files (x86)\microsoft visual studio 10.0\vc\include\vector
;	COMDAT ?begin@?$vector@PAVioBaseChar@@V?$allocator@PAVioBaseChar@@@std@@@std@@QBE?AV?$_Vector_const_iterator@V?$_Vector_val@PAVioBaseChar@@V?$allocator@PAVioBaseChar@@@std@@@std@@@2@XZ
_TEXT	SEGMENT
___$ReturnUdt$ = 8					; size = 4
?begin@?$vector@PAVioBaseChar@@V?$allocator@PAVioBaseChar@@@std@@@std@@QBE?AV?$_Vector_const_iterator@V?$_Vector_val@PAVioBaseChar@@V?$allocator@PAVioBaseChar@@@std@@@std@@@2@XZ PROC ; std::vector<ioBaseChar *,std::allocator<ioBaseChar *> >::begin, COMDAT
; _this$ = ecx

; 786  : 		{	// return iterator for beginning of nonmutable sequence

  00000	55		 push	 ebp
  00001	8b ec		 mov	 ebp, esp

; 787  : 		return (const_iterator(this->_Myfirst, this));

  00003	8b 09		 mov	 ecx, DWORD PTR [ecx]
  00005	8b 45 08	 mov	 eax, DWORD PTR ___$ReturnUdt$[ebp]
  00008	89 08		 mov	 DWORD PTR [eax], ecx

; 788  : 		}

  0000a	5d		 pop	 ebp
  0000b	c2 04 00	 ret	 4
?begin@?$vector@PAVioBaseChar@@V?$allocator@PAVioBaseChar@@@std@@@std@@QBE?AV?$_Vector_const_iterator@V?$_Vector_val@PAVioBaseChar@@V?$allocator@PAVioBaseChar@@@std@@@std@@@2@XZ ENDP ; std::vector<ioBaseChar *,std::allocator<ioBaseChar *> >::begin
_TEXT	ENDS
PUBLIC	?end@?$vector@PAVioBaseChar@@V?$allocator@PAVioBaseChar@@@std@@@std@@QBE?AV?$_Vector_const_iterator@V?$_Vector_val@PAVioBaseChar@@V?$allocator@PAVioBaseChar@@@std@@@std@@@2@XZ ; std::vector<ioBaseChar *,std::allocator<ioBaseChar *> >::end
; Function compile flags: /Ogsp
;	COMDAT ?end@?$vector@PAVioBaseChar@@V?$allocator@PAVioBaseChar@@@std@@@std@@QBE?AV?$_Vector_const_iterator@V?$_Vector_val@PAVioBaseChar@@V?$allocator@PAVioBaseChar@@@std@@@std@@@2@XZ
_TEXT	SEGMENT
___$ReturnUdt$ = 8					; size = 4
?end@?$vector@PAVioBaseChar@@V?$allocator@PAVioBaseChar@@@std@@@std@@QBE?AV?$_Vector_const_iterator@V?$_Vector_val@PAVioBaseChar@@V?$allocator@PAVioBaseChar@@@std@@@std@@@2@XZ PROC ; std::vector<ioBaseChar *,std::allocator<ioBaseChar *> >::end, COMDAT
; _this$ = ecx

; 796  : 		{	// return iterator for end of nonmutable sequence

  00000	55		 push	 ebp
  00001	8b ec		 mov	 ebp, esp

; 797  : 		return (const_iterator(this->_Mylast, this));

  00003	8b 49 04	 mov	 ecx, DWORD PTR [ecx+4]
  00006	8b 45 08	 mov	 eax, DWORD PTR ___$ReturnUdt$[ebp]
  00009	89 08		 mov	 DWORD PTR [eax], ecx

; 798  : 		}

  0000b	5d		 pop	 ebp
  0000c	c2 04 00	 ret	 4
?end@?$vector@PAVioBaseChar@@V?$allocator@PAVioBaseChar@@@std@@@std@@QBE?AV?$_Vector_const_iterator@V?$_Vector_val@PAVioBaseChar@@V?$allocator@PAVioBaseChar@@@std@@@std@@@2@XZ ENDP ; std::vector<ioBaseChar *,std::allocator<ioBaseChar *> >::end
_TEXT	ENDS
PUBLIC	?begin@?$vector@UWeaponInfo@@V?$allocator@UWeaponInfo@@@std@@@std@@QBE?AV?$_Vector_const_iterator@V?$_Vector_val@UWeaponInfo@@V?$allocator@UWeaponInfo@@@std@@@std@@@2@XZ ; std::vector<WeaponInfo,std::allocator<WeaponInfo> >::begin
; Function compile flags: /Ogsp
;	COMDAT ?begin@?$vector@UWeaponInfo@@V?$allocator@UWeaponInfo@@@std@@@std@@QBE?AV?$_Vector_const_iterator@V?$_Vector_val@UWeaponInfo@@V?$allocator@UWeaponInfo@@@std@@@std@@@2@XZ
_TEXT	SEGMENT
___$ReturnUdt$ = 8					; size = 4
?begin@?$vector@UWeaponInfo@@V?$allocator@UWeaponInfo@@@std@@@std@@QBE?AV?$_Vector_const_iterator@V?$_Vector_val@UWeaponInfo@@V?$allocator@UWeaponInfo@@@std@@@std@@@2@XZ PROC ; std::vector<WeaponInfo,std::allocator<WeaponInfo> >::begin, COMDAT
; _this$ = ecx

; 786  : 		{	// return iterator for beginning of nonmutable sequence

  00000	55		 push	 ebp
  00001	8b ec		 mov	 ebp, esp

; 787  : 		return (const_iterator(this->_Myfirst, this));

  00003	8b 09		 mov	 ecx, DWORD PTR [ecx]
  00005	8b 45 08	 mov	 eax, DWORD PTR ___$ReturnUdt$[ebp]
  00008	89 08		 mov	 DWORD PTR [eax], ecx

; 788  : 		}

  0000a	5d		 pop	 ebp
  0000b	c2 04 00	 ret	 4
?begin@?$vector@UWeaponInfo@@V?$allocator@UWeaponInfo@@@std@@@std@@QBE?AV?$_Vector_const_iterator@V?$_Vector_val@UWeaponInfo@@V?$allocator@UWeaponInfo@@@std@@@std@@@2@XZ ENDP ; std::vector<WeaponInfo,std::allocator<WeaponInfo> >::begin
_TEXT	ENDS
PUBLIC	?end@?$vector@UWeaponInfo@@V?$allocator@UWeaponInfo@@@std@@@std@@QBE?AV?$_Vector_const_iterator@V?$_Vector_val@UWeaponInfo@@V?$allocator@UWeaponInfo@@@std@@@std@@@2@XZ ; std::vector<WeaponInfo,std::allocator<WeaponInfo> >::end
; Function compile flags: /Ogsp
;	COMDAT ?end@?$vector@UWeaponInfo@@V?$allocator@UWeaponInfo@@@std@@@std@@QBE?AV?$_Vector_const_iterator@V?$_Vector_val@UWeaponInfo@@V?$allocator@UWeaponInfo@@@std@@@std@@@2@XZ
_TEXT	SEGMENT
___$ReturnUdt$ = 8					; size = 4
?end@?$vector@UWeaponInfo@@V?$allocator@UWeaponInfo@@@std@@@std@@QBE?AV?$_Vector_const_iterator@V?$_Vector_val@UWeaponInfo@@V?$allocator@UWeaponInfo@@@std@@@std@@@2@XZ PROC ; std::vector<WeaponInfo,std::allocator<WeaponInfo> >::end, COMDAT
; _this$ = ecx

; 796  : 		{	// return iterator for end of nonmutable sequence

  00000	55		 push	 ebp
  00001	8b ec		 mov	 ebp, esp

; 797  : 		return (const_iterator(this->_Mylast, this));

  00003	8b 49 04	 mov	 ecx, DWORD PTR [ecx+4]
  00006	8b 45 08	 mov	 eax, DWORD PTR ___$ReturnUdt$[ebp]
  00009	89 08		 mov	 DWORD PTR [eax], ecx

; 798  : 		}

  0000b	5d		 pop	 ebp
  0000c	c2 04 00	 ret	 4
?end@?$vector@UWeaponInfo@@V?$allocator@UWeaponInfo@@@std@@@std@@QBE?AV?$_Vector_const_iterator@V?$_Vector_val@UWeaponInfo@@V?$allocator@UWeaponInfo@@@std@@@std@@@2@XZ ENDP ; std::vector<WeaponInfo,std::allocator<WeaponInfo> >::end
_TEXT	ENDS
PUBLIC	?begin@?$vector@UForceInfo@@V?$allocator@UForceInfo@@@std@@@std@@QBE?AV?$_Vector_const_iterator@V?$_Vector_val@UForceInfo@@V?$allocator@UForceInfo@@@std@@@std@@@2@XZ ; std::vector<ForceInfo,std::allocator<ForceInfo> >::begin
; Function compile flags: /Ogsp
;	COMDAT ?begin@?$vector@UForceInfo@@V?$allocator@UForceInfo@@@std@@@std@@QBE?AV?$_Vector_const_iterator@V?$_Vector_val@UForceInfo@@V?$allocator@UForceInfo@@@std@@@std@@@2@XZ
_TEXT	SEGMENT
___$ReturnUdt$ = 8					; size = 4
?begin@?$vector@UForceInfo@@V?$allocator@UForceInfo@@@std@@@std@@QBE?AV?$_Vector_const_iterator@V?$_Vector_val@UForceInfo@@V?$allocator@UForceInfo@@@std@@@std@@@2@XZ PROC ; std::vector<ForceInfo,std::allocator<ForceInfo> >::begin, COMDAT
; _this$ = ecx

; 786  : 		{	// return iterator for beginning of nonmutable sequence

  00000	55		 push	 ebp
  00001	8b ec		 mov	 ebp, esp

; 787  : 		return (const_iterator(this->_Myfirst, this));

  00003	8b 09		 mov	 ecx, DWORD PTR [ecx]
  00005	8b 45 08	 mov	 eax, DWORD PTR ___$ReturnUdt$[ebp]
  00008	89 08		 mov	 DWORD PTR [eax], ecx

; 788  : 		}

  0000a	5d		 pop	 ebp
  0000b	c2 04 00	 ret	 4
?begin@?$vector@UForceInfo@@V?$allocator@UForceInfo@@@std@@@std@@QBE?AV?$_Vector_const_iterator@V?$_Vector_val@UForceInfo@@V?$allocator@UForceInfo@@@std@@@std@@@2@XZ ENDP ; std::vector<ForceInfo,std::allocator<ForceInfo> >::begin
_TEXT	ENDS
PUBLIC	?end@?$vector@UForceInfo@@V?$allocator@UForceInfo@@@std@@@std@@QBE?AV?$_Vector_const_iterator@V?$_Vector_val@UForceInfo@@V?$allocator@UForceInfo@@@std@@@std@@@2@XZ ; std::vector<ForceInfo,std::allocator<ForceInfo> >::end
; Function compile flags: /Ogsp
;	COMDAT ?end@?$vector@UForceInfo@@V?$allocator@UForceInfo@@@std@@@std@@QBE?AV?$_Vector_const_iterator@V?$_Vector_val@UForceInfo@@V?$allocator@UForceInfo@@@std@@@std@@@2@XZ
_TEXT	SEGMENT
___$ReturnUdt$ = 8					; size = 4
?end@?$vector@UForceInfo@@V?$allocator@UForceInfo@@@std@@@std@@QBE?AV?$_Vector_const_iterator@V?$_Vector_val@UForceInfo@@V?$allocator@UForceInfo@@@std@@@std@@@2@XZ PROC ; std::vector<ForceInfo,std::allocator<ForceInfo> >::end, COMDAT
; _this$ = ecx

; 796  : 		{	// return iterator for end of nonmutable sequence

  00000	55		 push	 ebp
  00001	8b ec		 mov	 ebp, esp

; 797  : 		return (const_iterator(this->_Mylast, this));

  00003	8b 49 04	 mov	 ecx, DWORD PTR [ecx+4]
  00006	8b 45 08	 mov	 eax, DWORD PTR ___$ReturnUdt$[ebp]
  00009	89 08		 mov	 DWORD PTR [eax], ecx

; 798  : 		}

  0000b	5d		 pop	 ebp
  0000c	c2 04 00	 ret	 4
?end@?$vector@UForceInfo@@V?$allocator@UForceInfo@@@std@@@std@@QBE?AV?$_Vector_const_iterator@V?$_Vector_val@UForceInfo@@V?$allocator@UForceInfo@@@std@@@std@@@2@XZ ENDP ; std::vector<ForceInfo,std::allocator<ForceInfo> >::end
_TEXT	ENDS
PUBLIC	?begin@?$vector@UAttackAttribute@@V?$allocator@UAttackAttribute@@@std@@@std@@QBE?AV?$_Vector_const_iterator@V?$_Vector_val@UAttackAttribute@@V?$allocator@UAttackAttribute@@@std@@@std@@@2@XZ ; std::vector<AttackAttribute,std::allocator<AttackAttribute> >::begin
; Function compile flags: /Ogsp
;	COMDAT ?begin@?$vector@UAttackAttribute@@V?$allocator@UAttackAttribute@@@std@@@std@@QBE?AV?$_Vector_const_iterator@V?$_Vector_val@UAttackAttribute@@V?$allocator@UAttackAttribute@@@std@@@std@@@2@XZ
_TEXT	SEGMENT
___$ReturnUdt$ = 8					; size = 4
?begin@?$vector@UAttackAttribute@@V?$allocator@UAttackAttribute@@@std@@@std@@QBE?AV?$_Vector_const_iterator@V?$_Vector_val@UAttackAttribute@@V?$allocator@UAttackAttribute@@@std@@@std@@@2@XZ PROC ; std::vector<AttackAttribute,std::allocator<AttackAttribute> >::begin, COMDAT
; _this$ = ecx

; 786  : 		{	// return iterator for beginning of nonmutable sequence

  00000	55		 push	 ebp
  00001	8b ec		 mov	 ebp, esp

; 787  : 		return (const_iterator(this->_Myfirst, this));

  00003	8b 09		 mov	 ecx, DWORD PTR [ecx]
  00005	8b 45 08	 mov	 eax, DWORD PTR ___$ReturnUdt$[ebp]
  00008	89 08		 mov	 DWORD PTR [eax], ecx

; 788  : 		}

  0000a	5d		 pop	 ebp
  0000b	c2 04 00	 ret	 4
?begin@?$vector@UAttackAttribute@@V?$allocator@UAttackAttribute@@@std@@@std@@QBE?AV?$_Vector_const_iterator@V?$_Vector_val@UAttackAttribute@@V?$allocator@UAttackAttribute@@@std@@@std@@@2@XZ ENDP ; std::vector<AttackAttribute,std::allocator<AttackAttribute> >::begin
_TEXT	ENDS
PUBLIC	?end@?$vector@UAttackAttribute@@V?$allocator@UAttackAttribute@@@std@@@std@@QBE?AV?$_Vector_const_iterator@V?$_Vector_val@UAttackAttribute@@V?$allocator@UAttackAttribute@@@std@@@std@@@2@XZ ; std::vector<AttackAttribute,std::allocator<AttackAttribute> >::end
; Function compile flags: /Ogsp
;	COMDAT ?end@?$vector@UAttackAttribute@@V?$allocator@UAttackAttribute@@@std@@@std@@QBE?AV?$_Vector_const_iterator@V?$_Vector_val@UAttackAttribute@@V?$allocator@UAttackAttribute@@@std@@@std@@@2@XZ
_TEXT	SEGMENT
___$ReturnUdt$ = 8					; size = 4
?end@?$vector@UAttackAttribute@@V?$allocator@UAttackAttribute@@@std@@@std@@QBE?AV?$_Vector_const_iterator@V?$_Vector_val@UAttackAttribute@@V?$allocator@UAttackAttribute@@@std@@@std@@@2@XZ PROC ; std::vector<AttackAttribute,std::allocator<AttackAttribute> >::end, COMDAT
; _this$ = ecx

; 796  : 		{	// return iterator for end of nonmutable sequence

  00000	55		 push	 ebp
  00001	8b ec		 mov	 ebp, esp

; 797  : 		return (const_iterator(this->_Mylast, this));

  00003	8b 49 04	 mov	 ecx, DWORD PTR [ecx+4]
  00006	8b 45 08	 mov	 eax, DWORD PTR ___$ReturnUdt$[ebp]
  00009	89 08		 mov	 DWORD PTR [eax], ecx

; 798  : 		}

  0000b	5d		 pop	 ebp
  0000c	c2 04 00	 ret	 4
?end@?$vector@UAttackAttribute@@V?$allocator@UAttackAttribute@@@std@@@std@@QBE?AV?$_Vector_const_iterator@V?$_Vector_val@UAttackAttribute@@V?$allocator@UAttackAttribute@@@std@@@std@@@2@XZ ENDP ; std::vector<AttackAttribute,std::allocator<AttackAttribute> >::end
_TEXT	ENDS
PUBLIC	??8?$_Vector_const_iterator@V?$_Vector_val@PAVioBaseChar@@V?$allocator@PAVioBaseChar@@@std@@@std@@@std@@QBE_NABV01@@Z ; std::_Vector_const_iterator<std::_Vector_val<ioBaseChar *,std::allocator<ioBaseChar *> > >::operator==
; Function compile flags: /Ogsp
;	COMDAT ??8?$_Vector_const_iterator@V?$_Vector_val@PAVioBaseChar@@V?$allocator@PAVioBaseChar@@@std@@@std@@@std@@QBE_NABV01@@Z
_TEXT	SEGMENT
__Right$ = 8						; size = 4
??8?$_Vector_const_iterator@V?$_Vector_val@PAVioBaseChar@@V?$allocator@PAVioBaseChar@@@std@@@std@@@std@@QBE_NABV01@@Z PROC ; std::_Vector_const_iterator<std::_Vector_val<ioBaseChar *,std::allocator<ioBaseChar *> > >::operator==, COMDAT
; _this$ = ecx

; 201  : 		{	// test for iterator equality

  00000	55		 push	 ebp
  00001	8b ec		 mov	 ebp, esp

; 202  : 		_Compat(_Right);
; 203  : 		return (this->_Ptr == _Right._Ptr);

  00003	8b 01		 mov	 eax, DWORD PTR [ecx]
  00005	8b 4d 08	 mov	 ecx, DWORD PTR __Right$[ebp]
  00008	2b 01		 sub	 eax, DWORD PTR [ecx]
  0000a	f7 d8		 neg	 eax
  0000c	1b c0		 sbb	 eax, eax
  0000e	40		 inc	 eax

; 204  : 		}

  0000f	5d		 pop	 ebp
  00010	c2 04 00	 ret	 4
??8?$_Vector_const_iterator@V?$_Vector_val@PAVioBaseChar@@V?$allocator@PAVioBaseChar@@@std@@@std@@@std@@QBE_NABV01@@Z ENDP ; std::_Vector_const_iterator<std::_Vector_val<ioBaseChar *,std::allocator<ioBaseChar *> > >::operator==
_TEXT	ENDS
PUBLIC	?max_size@?$vector@UAttackAttribute@@V?$allocator@UAttackAttribute@@@std@@@std@@QBEIXZ ; std::vector<AttackAttribute,std::allocator<AttackAttribute> >::max_size
; Function compile flags: /Ogsp
;	COMDAT ?max_size@?$vector@UAttackAttribute@@V?$allocator@UAttackAttribute@@@std@@@std@@QBEIXZ
_TEXT	SEGMENT
?max_size@?$vector@UAttackAttribute@@V?$allocator@UAttackAttribute@@@std@@@std@@QBEIXZ PROC ; std::vector<AttackAttribute,std::allocator<AttackAttribute> >::max_size, COMDAT
; _this$ = ecx

; 884  : 		return (this->_Alval.max_size());

  00000	b8 33 33 33 03	 mov	 eax, 53687091		; 03333333H

; 885  : 		}

  00005	c3		 ret	 0
?max_size@?$vector@UAttackAttribute@@V?$allocator@UAttackAttribute@@@std@@@std@@QBEIXZ ENDP ; std::vector<AttackAttribute,std::allocator<AttackAttribute> >::max_size
_TEXT	ENDS
PUBLIC	?_Grow_to@?$vector@UAttackAttribute@@V?$allocator@UAttackAttribute@@@std@@@std@@IBEII@Z ; std::vector<AttackAttribute,std::allocator<AttackAttribute> >::_Grow_to
; Function compile flags: /Ogsp
;	COMDAT ?_Grow_to@?$vector@UAttackAttribute@@V?$allocator@UAttackAttribute@@@std@@@std@@IBEII@Z
_TEXT	SEGMENT
__Count$ = 8						; size = 4
?_Grow_to@?$vector@UAttackAttribute@@V?$allocator@UAttackAttribute@@@std@@@std@@IBEII@Z PROC ; std::vector<AttackAttribute,std::allocator<AttackAttribute> >::_Grow_to, COMDAT
; _this$ = ecx

; 1274 : 		{	// grow by 50% or at least to _Count

  00000	55		 push	 ebp
  00001	8b ec		 mov	 ebp, esp

; 1275 : 		size_type _Capacity = capacity();

  00003	8b 41 08	 mov	 eax, DWORD PTR [ecx+8]
  00006	2b 01		 sub	 eax, DWORD PTR [ecx]
  00008	6a 50		 push	 80			; 00000050H
  0000a	99		 cdq
  0000b	59		 pop	 ecx
  0000c	f7 f9		 idiv	 ecx

; 1276 : 
; 1277 : 		_Capacity = max_size() - _Capacity / 2 < _Capacity
; 1278 : 			? 0 : _Capacity + _Capacity / 2;	// try to grow by 50%

  0000e	ba 33 33 33 03	 mov	 edx, 53687091		; 03333333H
  00013	8b c8		 mov	 ecx, eax
  00015	d1 e9		 shr	 ecx, 1
  00017	2b d1		 sub	 edx, ecx
  00019	3b d0		 cmp	 edx, eax
  0001b	73 04		 jae	 SHORT $LN4@Grow_to
  0001d	33 c0		 xor	 eax, eax
  0001f	eb 02		 jmp	 SHORT $LN5@Grow_to
$LN4@Grow_to:
  00021	03 c1		 add	 eax, ecx
$LN5@Grow_to:

; 1279 : 		if (_Capacity < _Count)

  00023	3b 45 08	 cmp	 eax, DWORD PTR __Count$[ebp]

; 1280 : 			_Capacity = _Count;

  00026	0f 42 45 08	 cmovb	 eax, DWORD PTR __Count$[ebp]

; 1281 : 		return (_Capacity);
; 1282 : 		}

  0002a	5d		 pop	 ebp
  0002b	c2 04 00	 ret	 4
?_Grow_to@?$vector@UAttackAttribute@@V?$allocator@UAttackAttribute@@@std@@@std@@IBEII@Z ENDP ; std::vector<AttackAttribute,std::allocator<AttackAttribute> >::_Grow_to
_TEXT	ENDS
PUBLIC	?allocate@?$allocator@UAttackAttribute@@@std@@QAEPAUAttackAttribute@@I@Z ; std::allocator<AttackAttribute>::allocate
; Function compile flags: /Ogsp
; File c:\program files (x86)\microsoft visual studio 10.0\vc\include\xmemory
;	COMDAT ?allocate@?$allocator@UAttackAttribute@@@std@@QAEPAUAttackAttribute@@I@Z
_TEXT	SEGMENT
__Count$ = 8						; size = 4
?allocate@?$allocator@UAttackAttribute@@@std@@QAEPAUAttackAttribute@@I@Z PROC ; std::allocator<AttackAttribute>::allocate, COMDAT
; _this$ = ecx

; 186  : 		{	// allocate array of _Count elements

  00000	55		 push	 ebp
  00001	8b ec		 mov	 ebp, esp

; 187  : 		return (_Allocate(_Count, (pointer)0));

  00003	6a 00		 push	 0
  00005	ff 75 08	 push	 DWORD PTR __Count$[ebp]
  00008	e8 00 00 00 00	 call	 ??$_Allocate@UAttackAttribute@@@std@@YAPAUAttackAttribute@@IPAU1@@Z ; std::_Allocate<AttackAttribute>
  0000d	59		 pop	 ecx
  0000e	59		 pop	 ecx

; 188  : 		}

  0000f	5d		 pop	 ebp
  00010	c2 04 00	 ret	 4
?allocate@?$allocator@UAttackAttribute@@@std@@QAEPAUAttackAttribute@@I@Z ENDP ; std::allocator<AttackAttribute>::allocate
_TEXT	ENDS
PUBLIC	__$ArrayPad$
PUBLIC	??$LoadFloat_e@$0BH@@ioINILoader@@QAEMAAY0BH@$$CBDM@Z ; ioINILoader::LoadFloat_e<23>
EXTRN	__imp_?LoadFloat@ioINILoader@@QAEMPBDM@Z:PROC
; Function compile flags: /Ogsp
; File d:\lost saga for developer\youtube\tutorial\source\src\io3dengine\ioiniloader.h
;	COMDAT ??$LoadFloat_e@$0BH@@ioINILoader@@QAEMAAY0BH@$$CBDM@Z
_TEXT	SEGMENT
__k$ = -32						; size = 23
__$ArrayPad$ = -4					; size = 4
_k$ = 8							; size = 4
_f$ = 12						; size = 4
??$LoadFloat_e@$0BH@@ioINILoader@@QAEMAAY0BH@$$CBDM@Z PROC ; ioINILoader::LoadFloat_e<23>, COMDAT
; _this$ = ecx

; 135  : 	{

  00000	55		 push	 ebp
  00001	8b ec		 mov	 ebp, esp
  00003	83 ec 20	 sub	 esp, 32			; 00000020H
  00006	a1 00 00 00 00	 mov	 eax, DWORD PTR ___security_cookie
  0000b	33 c5		 xor	 eax, ebp
  0000d	89 45 fc	 mov	 DWORD PTR __$ArrayPad$[ebp], eax
  00010	8b 45 08	 mov	 eax, DWORD PTR _k$[ebp]

; 136  : 		_ENCSTR(k, _k);

  00013	8a 10		 mov	 dl, BYTE PTR [eax]
  00015	53		 push	 ebx
  00016	56		 push	 esi
  00017	8b f1		 mov	 esi, ecx
  00019	84 d2		 test	 dl, dl
  0001b	0f 84 2d 02 00
	00		 je	 $LN96@LoadFloat_
  00021	80 f2 ed	 xor	 dl, -19			; ffffffedH
  00024	88 55 e0	 mov	 BYTE PTR __k$[ebp], dl
  00027	8a 50 01	 mov	 dl, BYTE PTR [eax+1]
  0002a	84 d2		 test	 dl, dl
  0002c	0f 84 16 02 00
	00		 je	 $LN95@LoadFloat_
  00032	b1 ec		 mov	 cl, -20			; ffffffecH
  00034	32 d1		 xor	 dl, cl
  00036	88 55 e1	 mov	 BYTE PTR __k$[ebp+1], dl
  00039	8a 50 02	 mov	 dl, BYTE PTR [eax+2]
  0003c	84 d2		 test	 dl, dl
  0003e	0f 84 fe 01 00
	00		 je	 $LN94@LoadFloat_
  00044	80 f2 eb	 xor	 dl, -21			; ffffffebH
  00047	88 55 e2	 mov	 BYTE PTR __k$[ebp+2], dl
  0004a	8a 50 03	 mov	 dl, BYTE PTR [eax+3]
  0004d	84 d2		 test	 dl, dl
  0004f	0f 84 e7 01 00
	00		 je	 $LN93@LoadFloat_
  00055	b3 ea		 mov	 bl, -22			; ffffffeaH
  00057	32 d3		 xor	 dl, bl
  00059	88 55 e3	 mov	 BYTE PTR __k$[ebp+3], dl
  0005c	8a 50 04	 mov	 dl, BYTE PTR [eax+4]
  0005f	84 d2		 test	 dl, dl
  00061	0f 84 cf 01 00
	00		 je	 $LN92@LoadFloat_
  00067	80 f2 ed	 xor	 dl, -19			; ffffffedH
  0006a	88 55 e4	 mov	 BYTE PTR __k$[ebp+4], dl
  0006d	8a 50 05	 mov	 dl, BYTE PTR [eax+5]
  00070	84 d2		 test	 dl, dl
  00072	0f 84 b9 01 00
	00		 je	 $LN91@LoadFloat_
  00078	32 d1		 xor	 dl, cl
  0007a	88 55 e5	 mov	 BYTE PTR __k$[ebp+5], dl
  0007d	8a 50 06	 mov	 dl, BYTE PTR [eax+6]
  00080	84 d2		 test	 dl, dl
  00082	0f 84 a3 01 00
	00		 je	 $LN90@LoadFloat_
  00088	80 f2 eb	 xor	 dl, -21			; ffffffebH
  0008b	88 55 e6	 mov	 BYTE PTR __k$[ebp+6], dl
  0008e	8a 50 07	 mov	 dl, BYTE PTR [eax+7]
  00091	84 d2		 test	 dl, dl
  00093	0f 84 8d 01 00
	00		 je	 $LN89@LoadFloat_
  00099	32 d3		 xor	 dl, bl
  0009b	88 55 e7	 mov	 BYTE PTR __k$[ebp+7], dl
  0009e	8a 50 08	 mov	 dl, BYTE PTR [eax+8]
  000a1	84 d2		 test	 dl, dl
  000a3	0f 84 77 01 00
	00		 je	 $LN88@LoadFloat_
  000a9	80 f2 ed	 xor	 dl, -19			; ffffffedH
  000ac	88 55 e8	 mov	 BYTE PTR __k$[ebp+8], dl
  000af	8a 50 09	 mov	 dl, BYTE PTR [eax+9]
  000b2	84 d2		 test	 dl, dl
  000b4	0f 84 61 01 00
	00		 je	 $LN87@LoadFloat_
  000ba	32 d1		 xor	 dl, cl
  000bc	88 55 e9	 mov	 BYTE PTR __k$[ebp+9], dl
  000bf	8a 50 0a	 mov	 dl, BYTE PTR [eax+10]
  000c2	84 d2		 test	 dl, dl
  000c4	0f 84 4b 01 00
	00		 je	 $LN86@LoadFloat_
  000ca	80 f2 eb	 xor	 dl, -21			; ffffffebH
  000cd	88 55 ea	 mov	 BYTE PTR __k$[ebp+10], dl
  000d0	8a 50 0b	 mov	 dl, BYTE PTR [eax+11]
  000d3	84 d2		 test	 dl, dl
  000d5	0f 84 35 01 00
	00		 je	 $LN85@LoadFloat_
  000db	32 d3		 xor	 dl, bl
  000dd	88 55 eb	 mov	 BYTE PTR __k$[ebp+11], dl
  000e0	8a 50 0c	 mov	 dl, BYTE PTR [eax+12]
  000e3	84 d2		 test	 dl, dl
  000e5	0f 84 1f 01 00
	00		 je	 $LN84@LoadFloat_
  000eb	80 f2 ed	 xor	 dl, -19			; ffffffedH
  000ee	88 55 ec	 mov	 BYTE PTR __k$[ebp+12], dl
  000f1	8a 50 0d	 mov	 dl, BYTE PTR [eax+13]
  000f4	84 d2		 test	 dl, dl
  000f6	0f 84 09 01 00
	00		 je	 $LN83@LoadFloat_
  000fc	32 d1		 xor	 dl, cl
  000fe	88 55 ed	 mov	 BYTE PTR __k$[ebp+13], dl
  00101	8a 50 0e	 mov	 dl, BYTE PTR [eax+14]
  00104	84 d2		 test	 dl, dl
  00106	0f 84 f3 00 00
	00		 je	 $LN82@LoadFloat_
  0010c	80 f2 eb	 xor	 dl, -21			; ffffffebH
  0010f	88 55 ee	 mov	 BYTE PTR __k$[ebp+14], dl
  00112	8a 50 0f	 mov	 dl, BYTE PTR [eax+15]
  00115	84 d2		 test	 dl, dl
  00117	0f 84 dd 00 00
	00		 je	 $LN81@LoadFloat_
  0011d	32 d3		 xor	 dl, bl
  0011f	88 55 ef	 mov	 BYTE PTR __k$[ebp+15], dl
  00122	8a 50 10	 mov	 dl, BYTE PTR [eax+16]
  00125	84 d2		 test	 dl, dl
  00127	0f 84 c7 00 00
	00		 je	 $LN80@LoadFloat_
  0012d	80 f2 ed	 xor	 dl, -19			; ffffffedH
  00130	88 55 f0	 mov	 BYTE PTR __k$[ebp+16], dl
  00133	8a 50 11	 mov	 dl, BYTE PTR [eax+17]
  00136	84 d2		 test	 dl, dl
  00138	0f 84 b1 00 00
	00		 je	 $LN79@LoadFloat_
  0013e	32 d1		 xor	 dl, cl
  00140	88 55 f1	 mov	 BYTE PTR __k$[ebp+17], dl
  00143	8a 50 12	 mov	 dl, BYTE PTR [eax+18]
  00146	84 d2		 test	 dl, dl
  00148	0f 84 9b 00 00
	00		 je	 $LN78@LoadFloat_
  0014e	80 f2 eb	 xor	 dl, -21			; ffffffebH
  00151	88 55 f2	 mov	 BYTE PTR __k$[ebp+18], dl
  00154	8a 50 13	 mov	 dl, BYTE PTR [eax+19]
  00157	84 d2		 test	 dl, dl
  00159	0f 84 85 00 00
	00		 je	 $LN77@LoadFloat_
  0015f	32 d3		 xor	 dl, bl
  00161	88 55 f3	 mov	 BYTE PTR __k$[ebp+19], dl
  00164	8a 50 14	 mov	 dl, BYTE PTR [eax+20]
  00167	84 d2		 test	 dl, dl
  00169	74 73		 je	 SHORT $LN76@LoadFloat_
  0016b	80 f2 ed	 xor	 dl, -19			; ffffffedH
  0016e	88 55 f4	 mov	 BYTE PTR __k$[ebp+20], dl
  00171	8a 50 15	 mov	 dl, BYTE PTR [eax+21]
  00174	84 d2		 test	 dl, dl
  00176	74 61		 je	 SHORT $LN75@LoadFloat_
  00178	32 d1		 xor	 dl, cl
  0017a	80 78 16 00	 cmp	 BYTE PTR [eax+22], 0
  0017e	88 55 f5	 mov	 BYTE PTR __k$[ebp+21], dl
  00181	0f 84 cb 00 00
	00		 je	 $LN1@LoadFloat_
  00187	8a 50 17	 mov	 dl, BYTE PTR [eax+23]
  0018a	84 d2		 test	 dl, dl
  0018c	74 46		 je	 SHORT $LN73@LoadFloat_
  0018e	32 d3		 xor	 dl, bl
  00190	88 55 f7	 mov	 BYTE PTR __k$[ebp+23], dl
  00193	8a 50 18	 mov	 dl, BYTE PTR [eax+24]
  00196	84 d2		 test	 dl, dl
  00198	74 34		 je	 SHORT $LN72@LoadFloat_
  0019a	80 f2 ed	 xor	 dl, -19			; ffffffedH
  0019d	88 55 f8	 mov	 BYTE PTR __k$[ebp+24], dl
  001a0	8a 50 19	 mov	 dl, BYTE PTR [eax+25]
  001a3	84 d2		 test	 dl, dl
  001a5	74 1f		 je	 SHORT $LN71@LoadFloat_
  001a7	8a 40 1a	 mov	 al, BYTE PTR [eax+26]
  001aa	32 d1		 xor	 dl, cl
  001ac	88 55 f9	 mov	 BYTE PTR __k$[ebp+25], dl
  001af	84 c0		 test	 al, al
  001b1	74 0a		 je	 SHORT $LN70@LoadFloat_
  001b3	34 eb		 xor	 al, -21			; ffffffebH
  001b5	88 45 fa	 mov	 BYTE PTR __k$[ebp+26], al
  001b8	e9 95 00 00 00	 jmp	 $LN1@LoadFloat_
$LN70@LoadFloat_:
  001bd	c6 45 fa eb	 mov	 BYTE PTR __k$[ebp+26], -21 ; ffffffebH
  001c1	e9 8c 00 00 00	 jmp	 $LN1@LoadFloat_
$LN71@LoadFloat_:
  001c6	88 4d f9	 mov	 BYTE PTR __k$[ebp+25], cl
  001c9	e9 84 00 00 00	 jmp	 $LN1@LoadFloat_
$LN72@LoadFloat_:
  001ce	c6 45 f8 ed	 mov	 BYTE PTR __k$[ebp+24], -19 ; ffffffedH
  001d2	eb 7e		 jmp	 SHORT $LN1@LoadFloat_
$LN73@LoadFloat_:
  001d4	88 5d f7	 mov	 BYTE PTR __k$[ebp+23], bl
  001d7	eb 79		 jmp	 SHORT $LN1@LoadFloat_
$LN75@LoadFloat_:
  001d9	88 4d f5	 mov	 BYTE PTR __k$[ebp+21], cl
  001dc	eb 74		 jmp	 SHORT $LN1@LoadFloat_
$LN76@LoadFloat_:
  001de	c6 45 f4 ed	 mov	 BYTE PTR __k$[ebp+20], -19 ; ffffffedH
  001e2	eb 6e		 jmp	 SHORT $LN1@LoadFloat_
$LN77@LoadFloat_:
  001e4	88 5d f3	 mov	 BYTE PTR __k$[ebp+19], bl
  001e7	eb 69		 jmp	 SHORT $LN1@LoadFloat_
$LN78@LoadFloat_:
  001e9	c6 45 f2 eb	 mov	 BYTE PTR __k$[ebp+18], -21 ; ffffffebH
  001ed	eb 63		 jmp	 SHORT $LN1@LoadFloat_
$LN79@LoadFloat_:
  001ef	88 4d f1	 mov	 BYTE PTR __k$[ebp+17], cl
  001f2	eb 5e		 jmp	 SHORT $LN1@LoadFloat_
$LN80@LoadFloat_:
  001f4	c6 45 f0 ed	 mov	 BYTE PTR __k$[ebp+16], -19 ; ffffffedH
  001f8	eb 58		 jmp	 SHORT $LN1@LoadFloat_
$LN81@LoadFloat_:
  001fa	88 5d ef	 mov	 BYTE PTR __k$[ebp+15], bl
  001fd	eb 53		 jmp	 SHORT $LN1@LoadFloat_
$LN82@LoadFloat_:
  001ff	c6 45 ee eb	 mov	 BYTE PTR __k$[ebp+14], -21 ; ffffffebH
  00203	eb 4d		 jmp	 SHORT $LN1@LoadFloat_
$LN83@LoadFloat_:
  00205	88 4d ed	 mov	 BYTE PTR __k$[ebp+13], cl
  00208	eb 48		 jmp	 SHORT $LN1@LoadFloat_
$LN84@LoadFloat_:
  0020a	c6 45 ec ed	 mov	 BYTE PTR __k$[ebp+12], -19 ; ffffffedH
  0020e	eb 42		 jmp	 SHORT $LN1@LoadFloat_
$LN85@LoadFloat_:
  00210	88 5d eb	 mov	 BYTE PTR __k$[ebp+11], bl
  00213	eb 3d		 jmp	 SHORT $LN1@LoadFloat_
$LN86@LoadFloat_:
  00215	c6 45 ea eb	 mov	 BYTE PTR __k$[ebp+10], -21 ; ffffffebH
  00219	eb 37		 jmp	 SHORT $LN1@LoadFloat_
$LN87@LoadFloat_:
  0021b	88 4d e9	 mov	 BYTE PTR __k$[ebp+9], cl
  0021e	eb 32		 jmp	 SHORT $LN1@LoadFloat_
$LN88@LoadFloat_:
  00220	c6 45 e8 ed	 mov	 BYTE PTR __k$[ebp+8], -19 ; ffffffedH
  00224	eb 2c		 jmp	 SHORT $LN1@LoadFloat_
$LN89@LoadFloat_:
  00226	88 5d e7	 mov	 BYTE PTR __k$[ebp+7], bl
  00229	eb 27		 jmp	 SHORT $LN1@LoadFloat_
$LN90@LoadFloat_:
  0022b	c6 45 e6 eb	 mov	 BYTE PTR __k$[ebp+6], -21 ; ffffffebH
  0022f	eb 21		 jmp	 SHORT $LN1@LoadFloat_
$LN91@LoadFloat_:
  00231	88 4d e5	 mov	 BYTE PTR __k$[ebp+5], cl
  00234	eb 1c		 jmp	 SHORT $LN1@LoadFloat_
$LN92@LoadFloat_:
  00236	c6 45 e4 ed	 mov	 BYTE PTR __k$[ebp+4], -19 ; ffffffedH
  0023a	eb 16		 jmp	 SHORT $LN1@LoadFloat_
$LN93@LoadFloat_:
  0023c	c6 45 e3 ea	 mov	 BYTE PTR __k$[ebp+3], -22 ; ffffffeaH
  00240	eb 10		 jmp	 SHORT $LN1@LoadFloat_
$LN94@LoadFloat_:
  00242	c6 45 e2 eb	 mov	 BYTE PTR __k$[ebp+2], -21 ; ffffffebH
  00246	eb 0a		 jmp	 SHORT $LN1@LoadFloat_
$LN95@LoadFloat_:
  00248	c6 45 e1 ec	 mov	 BYTE PTR __k$[ebp+1], -20 ; ffffffecH
  0024c	eb 04		 jmp	 SHORT $LN1@LoadFloat_
$LN96@LoadFloat_:
  0024e	c6 45 e0 ed	 mov	 BYTE PTR __k$[ebp], -19	; ffffffedH
$LN1@LoadFloat_:
  00252	6a 05		 push	 5
  00254	8d 45 e0	 lea	 eax, DWORD PTR __k$[ebp]
  00257	c6 45 f6 00	 mov	 BYTE PTR __k$[ebp+22], 0
  0025b	5a		 pop	 edx
$LL104@LoadFloat_:
  0025c	81 30 ed ec eb
	ea		 xor	 DWORD PTR [eax], -353637139 ; eaebecedH
  00262	83 c0 04	 add	 eax, 4
  00265	4a		 dec	 edx
  00266	75 f4		 jne	 SHORT $LL104@LoadFloat_
  00268	6a 14		 push	 20			; 00000014H
  0026a	58		 pop	 eax
$LL101@LoadFloat_:
  0026b	8b c8		 mov	 ecx, eax
  0026d	81 e1 03 00 00
	80		 and	 ecx, -2147483645	; 80000003H
  00273	79 05		 jns	 SHORT $LN111@LoadFloat_
  00275	49		 dec	 ecx
  00276	83 c9 fc	 or	 ecx, -4			; fffffffcH
  00279	41		 inc	 ecx
$LN111@LoadFloat_:
  0027a	b2 ed		 mov	 dl, -19			; ffffffedH
  0027c	2a d1		 sub	 dl, cl
  0027e	30 54 05 e0	 xor	 BYTE PTR __k$[ebp+eax], dl
  00282	40		 inc	 eax
  00283	83 f8 16	 cmp	 eax, 22			; 00000016H
  00286	7c e3		 jl	 SHORT $LL101@LoadFloat_

; 137  : 		return LoadFloat(_k, f);

  00288	f3 0f 10 45 0c	 movss	 xmm0, DWORD PTR _f$[ebp]
  0028d	51		 push	 ecx
  0028e	8d 45 e0	 lea	 eax, DWORD PTR __k$[ebp]
  00291	f3 0f 11 04 24	 movss	 DWORD PTR [esp], xmm0
  00296	50		 push	 eax
  00297	8b ce		 mov	 ecx, esi
  00299	ff 15 00 00 00
	00		 call	 DWORD PTR __imp_?LoadFloat@ioINILoader@@QAEMPBDM@Z

; 138  : 	}

  0029f	8b 4d fc	 mov	 ecx, DWORD PTR __$ArrayPad$[ebp]
  002a2	5e		 pop	 esi
  002a3	33 cd		 xor	 ecx, ebp
  002a5	5b		 pop	 ebx
  002a6	e8 00 00 00 00	 call	 @__security_check_cookie@4
  002ab	c9		 leave
  002ac	c2 08 00	 ret	 8
??$LoadFloat_e@$0BH@@ioINILoader@@QAEMAAY0BH@$$CBDM@Z ENDP ; ioINILoader::LoadFloat_e<23>
_TEXT	ENDS
PUBLIC	__$ArrayPad$
PUBLIC	??$LoadInt_e@$0BB@@ioINILoader@@QAEHAAY0BB@$$CBDH@Z ; ioINILoader::LoadInt_e<17>
EXTRN	__imp_?LoadInt@ioINILoader@@QAEHPBDH@Z:PROC
; Function compile flags: /Ogsp
;	COMDAT ??$LoadInt_e@$0BB@@ioINILoader@@QAEHAAY0BB@$$CBDH@Z
_TEXT	SEGMENT
__k$ = -28						; size = 17
__$ArrayPad$ = -4					; size = 4
_k$ = 8							; size = 4
_i$ = 12						; size = 4
??$LoadInt_e@$0BB@@ioINILoader@@QAEHAAY0BB@$$CBDH@Z PROC ; ioINILoader::LoadInt_e<17>, COMDAT
; _this$ = ecx

; 118  : 	{

  00000	55		 push	 ebp
  00001	8b ec		 mov	 ebp, esp
  00003	83 ec 1c	 sub	 esp, 28			; 0000001cH
  00006	a1 00 00 00 00	 mov	 eax, DWORD PTR ___security_cookie
  0000b	33 c5		 xor	 eax, ebp
  0000d	89 45 fc	 mov	 DWORD PTR __$ArrayPad$[ebp], eax
  00010	8b 45 08	 mov	 eax, DWORD PTR _k$[ebp]

; 119  : 		_ENCSTR(k, _k);

  00013	8a 10		 mov	 dl, BYTE PTR [eax]
  00015	56		 push	 esi
  00016	8b f1		 mov	 esi, ecx
  00018	84 d2		 test	 dl, dl
  0001a	0f 84 a7 01 00
	00		 je	 $LN96@LoadInt_e
  00020	80 f2 ed	 xor	 dl, -19			; ffffffedH
  00023	88 55 e4	 mov	 BYTE PTR __k$[ebp], dl
  00026	8a 50 01	 mov	 dl, BYTE PTR [eax+1]
  00029	84 d2		 test	 dl, dl
  0002b	0f 84 90 01 00
	00		 je	 $LN95@LoadInt_e
  00031	b1 ec		 mov	 cl, -20			; ffffffecH
  00033	32 d1		 xor	 dl, cl
  00035	88 55 e5	 mov	 BYTE PTR __k$[ebp+1], dl
  00038	8a 50 02	 mov	 dl, BYTE PTR [eax+2]
  0003b	84 d2		 test	 dl, dl
  0003d	0f 84 78 01 00
	00		 je	 $LN94@LoadInt_e
  00043	80 f2 eb	 xor	 dl, -21			; ffffffebH
  00046	88 55 e6	 mov	 BYTE PTR __k$[ebp+2], dl
  00049	8a 50 03	 mov	 dl, BYTE PTR [eax+3]
  0004c	84 d2		 test	 dl, dl
  0004e	0f 84 61 01 00
	00		 je	 $LN93@LoadInt_e
  00054	80 f2 ea	 xor	 dl, -22			; ffffffeaH
  00057	88 55 e7	 mov	 BYTE PTR __k$[ebp+3], dl
  0005a	8a 50 04	 mov	 dl, BYTE PTR [eax+4]
  0005d	84 d2		 test	 dl, dl
  0005f	0f 84 4a 01 00
	00		 je	 $LN92@LoadInt_e
  00065	80 f2 ed	 xor	 dl, -19			; ffffffedH
  00068	88 55 e8	 mov	 BYTE PTR __k$[ebp+4], dl
  0006b	8a 50 05	 mov	 dl, BYTE PTR [eax+5]
  0006e	84 d2		 test	 dl, dl
  00070	0f 84 34 01 00
	00		 je	 $LN91@LoadInt_e
  00076	32 d1		 xor	 dl, cl
  00078	88 55 e9	 mov	 BYTE PTR __k$[ebp+5], dl
  0007b	8a 50 06	 mov	 dl, BYTE PTR [eax+6]
  0007e	84 d2		 test	 dl, dl
  00080	0f 84 1e 01 00
	00		 je	 $LN90@LoadInt_e
  00086	80 f2 eb	 xor	 dl, -21			; ffffffebH
  00089	88 55 ea	 mov	 BYTE PTR __k$[ebp+6], dl
  0008c	8a 50 07	 mov	 dl, BYTE PTR [eax+7]
  0008f	84 d2		 test	 dl, dl
  00091	0f 84 07 01 00
	00		 je	 $LN89@LoadInt_e
  00097	80 f2 ea	 xor	 dl, -22			; ffffffeaH
  0009a	88 55 eb	 mov	 BYTE PTR __k$[ebp+7], dl
  0009d	8a 50 08	 mov	 dl, BYTE PTR [eax+8]
  000a0	84 d2		 test	 dl, dl
  000a2	0f 84 f0 00 00
	00		 je	 $LN88@LoadInt_e
  000a8	80 f2 ed	 xor	 dl, -19			; ffffffedH
  000ab	88 55 ec	 mov	 BYTE PTR __k$[ebp+8], dl
  000ae	8a 50 09	 mov	 dl, BYTE PTR [eax+9]
  000b1	84 d2		 test	 dl, dl
  000b3	0f 84 da 00 00
	00		 je	 $LN87@LoadInt_e
  000b9	32 d1		 xor	 dl, cl
  000bb	88 55 ed	 mov	 BYTE PTR __k$[ebp+9], dl
  000be	8a 50 0a	 mov	 dl, BYTE PTR [eax+10]
  000c1	84 d2		 test	 dl, dl
  000c3	0f 84 c4 00 00
	00		 je	 $LN86@LoadInt_e
  000c9	80 f2 eb	 xor	 dl, -21			; ffffffebH
  000cc	88 55 ee	 mov	 BYTE PTR __k$[ebp+10], dl
  000cf	8a 50 0b	 mov	 dl, BYTE PTR [eax+11]
  000d2	84 d2		 test	 dl, dl
  000d4	0f 84 ad 00 00
	00		 je	 $LN85@LoadInt_e
  000da	80 f2 ea	 xor	 dl, -22			; ffffffeaH
  000dd	88 55 ef	 mov	 BYTE PTR __k$[ebp+11], dl
  000e0	8a 50 0c	 mov	 dl, BYTE PTR [eax+12]
  000e3	84 d2		 test	 dl, dl
  000e5	0f 84 96 00 00
	00		 je	 $LN84@LoadInt_e
  000eb	80 f2 ed	 xor	 dl, -19			; ffffffedH
  000ee	88 55 f0	 mov	 BYTE PTR __k$[ebp+12], dl
  000f1	8a 50 0d	 mov	 dl, BYTE PTR [eax+13]
  000f4	84 d2		 test	 dl, dl
  000f6	0f 84 80 00 00
	00		 je	 $LN83@LoadInt_e
  000fc	32 d1		 xor	 dl, cl
  000fe	88 55 f1	 mov	 BYTE PTR __k$[ebp+13], dl
  00101	8a 50 0e	 mov	 dl, BYTE PTR [eax+14]
  00104	84 d2		 test	 dl, dl
  00106	74 6e		 je	 SHORT $LN82@LoadInt_e
  00108	80 f2 eb	 xor	 dl, -21			; ffffffebH
  0010b	88 55 f2	 mov	 BYTE PTR __k$[ebp+14], dl
  0010e	8a 50 0f	 mov	 dl, BYTE PTR [eax+15]
  00111	84 d2		 test	 dl, dl
  00113	74 5b		 je	 SHORT $LN81@LoadInt_e
  00115	80 f2 ea	 xor	 dl, -22			; ffffffeaH
  00118	80 78 10 00	 cmp	 BYTE PTR [eax+16], 0
  0011c	88 55 f3	 mov	 BYTE PTR __k$[ebp+15], dl
  0011f	0f 84 a6 00 00
	00		 je	 $LN1@LoadInt_e
  00125	8a 50 11	 mov	 dl, BYTE PTR [eax+17]
  00128	84 d2		 test	 dl, dl
  0012a	74 3f		 je	 SHORT $LN79@LoadInt_e
  0012c	32 d1		 xor	 dl, cl
  0012e	88 55 f5	 mov	 BYTE PTR __k$[ebp+17], dl
  00131	8a 50 12	 mov	 dl, BYTE PTR [eax+18]
  00134	84 d2		 test	 dl, dl
  00136	74 2d		 je	 SHORT $LN78@LoadInt_e
  00138	80 f2 eb	 xor	 dl, -21			; ffffffebH
  0013b	88 55 f6	 mov	 BYTE PTR __k$[ebp+18], dl
  0013e	8a 50 13	 mov	 dl, BYTE PTR [eax+19]
  00141	84 d2		 test	 dl, dl
  00143	74 1a		 je	 SHORT $LN77@LoadInt_e
  00145	8a 40 14	 mov	 al, BYTE PTR [eax+20]
  00148	80 f2 ea	 xor	 dl, -22			; ffffffeaH
  0014b	88 55 f7	 mov	 BYTE PTR __k$[ebp+19], dl
  0014e	84 c0		 test	 al, al
  00150	74 07		 je	 SHORT $LN76@LoadInt_e
  00152	34 ed		 xor	 al, -19			; ffffffedH
  00154	88 45 f8	 mov	 BYTE PTR __k$[ebp+20], al
  00157	eb 72		 jmp	 SHORT $LN1@LoadInt_e
$LN76@LoadInt_e:
  00159	c6 45 f8 ed	 mov	 BYTE PTR __k$[ebp+20], -19 ; ffffffedH
  0015d	eb 6c		 jmp	 SHORT $LN1@LoadInt_e
$LN77@LoadInt_e:
  0015f	c6 45 f7 ea	 mov	 BYTE PTR __k$[ebp+19], -22 ; ffffffeaH
  00163	eb 66		 jmp	 SHORT $LN1@LoadInt_e
$LN78@LoadInt_e:
  00165	c6 45 f6 eb	 mov	 BYTE PTR __k$[ebp+18], -21 ; ffffffebH
  00169	eb 60		 jmp	 SHORT $LN1@LoadInt_e
$LN79@LoadInt_e:
  0016b	88 4d f5	 mov	 BYTE PTR __k$[ebp+17], cl
  0016e	eb 5b		 jmp	 SHORT $LN1@LoadInt_e
$LN81@LoadInt_e:
  00170	c6 45 f3 ea	 mov	 BYTE PTR __k$[ebp+15], -22 ; ffffffeaH
  00174	eb 55		 jmp	 SHORT $LN1@LoadInt_e
$LN82@LoadInt_e:
  00176	c6 45 f2 eb	 mov	 BYTE PTR __k$[ebp+14], -21 ; ffffffebH
  0017a	eb 4f		 jmp	 SHORT $LN1@LoadInt_e
$LN83@LoadInt_e:
  0017c	88 4d f1	 mov	 BYTE PTR __k$[ebp+13], cl
  0017f	eb 4a		 jmp	 SHORT $LN1@LoadInt_e
$LN84@LoadInt_e:
  00181	c6 45 f0 ed	 mov	 BYTE PTR __k$[ebp+12], -19 ; ffffffedH
  00185	eb 44		 jmp	 SHORT $LN1@LoadInt_e
$LN85@LoadInt_e:
  00187	c6 45 ef ea	 mov	 BYTE PTR __k$[ebp+11], -22 ; ffffffeaH
  0018b	eb 3e		 jmp	 SHORT $LN1@LoadInt_e
$LN86@LoadInt_e:
  0018d	c6 45 ee eb	 mov	 BYTE PTR __k$[ebp+10], -21 ; ffffffebH
  00191	eb 38		 jmp	 SHORT $LN1@LoadInt_e
$LN87@LoadInt_e:
  00193	88 4d ed	 mov	 BYTE PTR __k$[ebp+9], cl
  00196	eb 33		 jmp	 SHORT $LN1@LoadInt_e
$LN88@LoadInt_e:
  00198	c6 45 ec ed	 mov	 BYTE PTR __k$[ebp+8], -19 ; ffffffedH
  0019c	eb 2d		 jmp	 SHORT $LN1@LoadInt_e
$LN89@LoadInt_e:
  0019e	c6 45 eb ea	 mov	 BYTE PTR __k$[ebp+7], -22 ; ffffffeaH
  001a2	eb 27		 jmp	 SHORT $LN1@LoadInt_e
$LN90@LoadInt_e:
  001a4	c6 45 ea eb	 mov	 BYTE PTR __k$[ebp+6], -21 ; ffffffebH
  001a8	eb 21		 jmp	 SHORT $LN1@LoadInt_e
$LN91@LoadInt_e:
  001aa	88 4d e9	 mov	 BYTE PTR __k$[ebp+5], cl
  001ad	eb 1c		 jmp	 SHORT $LN1@LoadInt_e
$LN92@LoadInt_e:
  001af	c6 45 e8 ed	 mov	 BYTE PTR __k$[ebp+4], -19 ; ffffffedH
  001b3	eb 16		 jmp	 SHORT $LN1@LoadInt_e
$LN93@LoadInt_e:
  001b5	c6 45 e7 ea	 mov	 BYTE PTR __k$[ebp+3], -22 ; ffffffeaH
  001b9	eb 10		 jmp	 SHORT $LN1@LoadInt_e
$LN94@LoadInt_e:
  001bb	c6 45 e6 eb	 mov	 BYTE PTR __k$[ebp+2], -21 ; ffffffebH
  001bf	eb 0a		 jmp	 SHORT $LN1@LoadInt_e
$LN95@LoadInt_e:
  001c1	c6 45 e5 ec	 mov	 BYTE PTR __k$[ebp+1], -20 ; ffffffecH
  001c5	eb 04		 jmp	 SHORT $LN1@LoadInt_e
$LN96@LoadInt_e:
  001c7	c6 45 e4 ed	 mov	 BYTE PTR __k$[ebp], -19	; ffffffedH
$LN1@LoadInt_e:
  001cb	6a 04		 push	 4
  001cd	8d 45 e4	 lea	 eax, DWORD PTR __k$[ebp]
  001d0	c6 45 f4 00	 mov	 BYTE PTR __k$[ebp+16], 0
  001d4	5a		 pop	 edx
$LL104@LoadInt_e:
  001d5	81 30 ed ec eb
	ea		 xor	 DWORD PTR [eax], -353637139 ; eaebecedH
  001db	83 c0 04	 add	 eax, 4
  001de	4a		 dec	 edx
  001df	75 f4		 jne	 SHORT $LL104@LoadInt_e

; 120  : 		return LoadInt(_k, i);

  001e1	ff 75 0c	 push	 DWORD PTR _i$[ebp]
  001e4	8d 45 e4	 lea	 eax, DWORD PTR __k$[ebp]
  001e7	50		 push	 eax
  001e8	8b ce		 mov	 ecx, esi
  001ea	ff 15 00 00 00
	00		 call	 DWORD PTR __imp_?LoadInt@ioINILoader@@QAEHPBDH@Z

; 121  : 	}

  001f0	8b 4d fc	 mov	 ecx, DWORD PTR __$ArrayPad$[ebp]
  001f3	33 cd		 xor	 ecx, ebp
  001f5	5e		 pop	 esi
  001f6	e8 00 00 00 00	 call	 @__security_check_cookie@4
  001fb	c9		 leave
  001fc	c2 08 00	 ret	 8
??$LoadInt_e@$0BB@@ioINILoader@@QAEHAAY0BB@$$CBDH@Z ENDP ; ioINILoader::LoadInt_e<17>
_TEXT	ENDS
PUBLIC	__$ArrayPad$
PUBLIC	??$LoadFloat_e@$0M@@ioINILoader@@QAEMAAY0M@$$CBDM@Z ; ioINILoader::LoadFloat_e<12>
; Function compile flags: /Ogsp
;	COMDAT ??$LoadFloat_e@$0M@@ioINILoader@@QAEMAAY0M@$$CBDM@Z
_TEXT	SEGMENT
__k$ = -20						; size = 12
__$ArrayPad$ = -4					; size = 4
_k$ = 8							; size = 4
_f$ = 12						; size = 4
??$LoadFloat_e@$0M@@ioINILoader@@QAEMAAY0M@$$CBDM@Z PROC ; ioINILoader::LoadFloat_e<12>, COMDAT
; _this$ = ecx

; 135  : 	{

  00000	55		 push	 ebp
  00001	8b ec		 mov	 ebp, esp
  00003	83 ec 14	 sub	 esp, 20			; 00000014H
  00006	a1 00 00 00 00	 mov	 eax, DWORD PTR ___security_cookie
  0000b	33 c5		 xor	 eax, ebp
  0000d	89 45 fc	 mov	 DWORD PTR __$ArrayPad$[ebp], eax
  00010	8b 45 08	 mov	 eax, DWORD PTR _k$[ebp]

; 136  : 		_ENCSTR(k, _k);

  00013	8a 10		 mov	 dl, BYTE PTR [eax]
  00015	56		 push	 esi
  00016	8b f1		 mov	 esi, ecx
  00018	84 d2		 test	 dl, dl
  0001a	0f 84 32 01 00
	00		 je	 $LN96@LoadFloat_@2
  00020	80 f2 ed	 xor	 dl, -19			; ffffffedH
  00023	88 55 ec	 mov	 BYTE PTR __k$[ebp], dl
  00026	8a 50 01	 mov	 dl, BYTE PTR [eax+1]
  00029	84 d2		 test	 dl, dl
  0002b	0f 84 1b 01 00
	00		 je	 $LN95@LoadFloat_@2
  00031	80 f2 ec	 xor	 dl, -20			; ffffffecH
  00034	88 55 ed	 mov	 BYTE PTR __k$[ebp+1], dl
  00037	8a 50 02	 mov	 dl, BYTE PTR [eax+2]
  0003a	84 d2		 test	 dl, dl
  0003c	0f 84 04 01 00
	00		 je	 $LN94@LoadFloat_@2
  00042	b1 eb		 mov	 cl, -21			; ffffffebH
  00044	32 d1		 xor	 dl, cl
  00046	88 55 ee	 mov	 BYTE PTR __k$[ebp+2], dl
  00049	8a 50 03	 mov	 dl, BYTE PTR [eax+3]
  0004c	84 d2		 test	 dl, dl
  0004e	0f 84 ec 00 00
	00		 je	 $LN93@LoadFloat_@2
  00054	80 f2 ea	 xor	 dl, -22			; ffffffeaH
  00057	88 55 ef	 mov	 BYTE PTR __k$[ebp+3], dl
  0005a	8a 50 04	 mov	 dl, BYTE PTR [eax+4]
  0005d	84 d2		 test	 dl, dl
  0005f	0f 84 d5 00 00
	00		 je	 $LN92@LoadFloat_@2
  00065	80 f2 ed	 xor	 dl, -19			; ffffffedH
  00068	88 55 f0	 mov	 BYTE PTR __k$[ebp+4], dl
  0006b	8a 50 05	 mov	 dl, BYTE PTR [eax+5]
  0006e	84 d2		 test	 dl, dl
  00070	0f 84 be 00 00
	00		 je	 $LN91@LoadFloat_@2
  00076	80 f2 ec	 xor	 dl, -20			; ffffffecH
  00079	88 55 f1	 mov	 BYTE PTR __k$[ebp+5], dl
  0007c	8a 50 06	 mov	 dl, BYTE PTR [eax+6]
  0007f	84 d2		 test	 dl, dl
  00081	0f 84 a8 00 00
	00		 je	 $LN90@LoadFloat_@2
  00087	32 d1		 xor	 dl, cl
  00089	88 55 f2	 mov	 BYTE PTR __k$[ebp+6], dl
  0008c	8a 50 07	 mov	 dl, BYTE PTR [eax+7]
  0008f	84 d2		 test	 dl, dl
  00091	0f 84 92 00 00
	00		 je	 $LN89@LoadFloat_@2
  00097	80 f2 ea	 xor	 dl, -22			; ffffffeaH
  0009a	88 55 f3	 mov	 BYTE PTR __k$[ebp+7], dl
  0009d	8a 50 08	 mov	 dl, BYTE PTR [eax+8]
  000a0	84 d2		 test	 dl, dl
  000a2	74 7f		 je	 SHORT $LN88@LoadFloat_@2
  000a4	80 f2 ed	 xor	 dl, -19			; ffffffedH
  000a7	88 55 f4	 mov	 BYTE PTR __k$[ebp+8], dl
  000aa	8a 50 09	 mov	 dl, BYTE PTR [eax+9]
  000ad	84 d2		 test	 dl, dl
  000af	74 6c		 je	 SHORT $LN87@LoadFloat_@2
  000b1	80 f2 ec	 xor	 dl, -20			; ffffffecH
  000b4	88 55 f5	 mov	 BYTE PTR __k$[ebp+9], dl
  000b7	8a 50 0a	 mov	 dl, BYTE PTR [eax+10]
  000ba	84 d2		 test	 dl, dl
  000bc	74 5a		 je	 SHORT $LN86@LoadFloat_@2
  000be	32 d1		 xor	 dl, cl
  000c0	80 78 0b 00	 cmp	 BYTE PTR [eax+11], 0
  000c4	88 55 f6	 mov	 BYTE PTR __k$[ebp+10], dl
  000c7	0f 84 89 00 00
	00		 je	 $LN1@LoadFloat_@2
  000cd	8a 50 0c	 mov	 dl, BYTE PTR [eax+12]
  000d0	84 d2		 test	 dl, dl
  000d2	74 3e		 je	 SHORT $LN84@LoadFloat_@2
  000d4	80 f2 ed	 xor	 dl, -19			; ffffffedH
  000d7	88 55 f8	 mov	 BYTE PTR __k$[ebp+12], dl
  000da	8a 50 0d	 mov	 dl, BYTE PTR [eax+13]
  000dd	84 d2		 test	 dl, dl
  000df	74 2b		 je	 SHORT $LN83@LoadFloat_@2
  000e1	80 f2 ec	 xor	 dl, -20			; ffffffecH
  000e4	88 55 f9	 mov	 BYTE PTR __k$[ebp+13], dl
  000e7	8a 50 0e	 mov	 dl, BYTE PTR [eax+14]
  000ea	84 d2		 test	 dl, dl
  000ec	74 19		 je	 SHORT $LN82@LoadFloat_@2
  000ee	8a 40 0f	 mov	 al, BYTE PTR [eax+15]
  000f1	32 d1		 xor	 dl, cl
  000f3	88 55 fa	 mov	 BYTE PTR __k$[ebp+14], dl
  000f6	84 c0		 test	 al, al
  000f8	74 07		 je	 SHORT $LN81@LoadFloat_@2
  000fa	34 ea		 xor	 al, -22			; ffffffeaH
  000fc	88 45 fb	 mov	 BYTE PTR __k$[ebp+15], al
  000ff	eb 55		 jmp	 SHORT $LN1@LoadFloat_@2
$LN81@LoadFloat_@2:
  00101	c6 45 fb ea	 mov	 BYTE PTR __k$[ebp+15], -22 ; ffffffeaH
  00105	eb 4f		 jmp	 SHORT $LN1@LoadFloat_@2
$LN82@LoadFloat_@2:
  00107	88 4d fa	 mov	 BYTE PTR __k$[ebp+14], cl
  0010a	eb 4a		 jmp	 SHORT $LN1@LoadFloat_@2
$LN83@LoadFloat_@2:
  0010c	c6 45 f9 ec	 mov	 BYTE PTR __k$[ebp+13], -20 ; ffffffecH
  00110	eb 44		 jmp	 SHORT $LN1@LoadFloat_@2
$LN84@LoadFloat_@2:
  00112	c6 45 f8 ed	 mov	 BYTE PTR __k$[ebp+12], -19 ; ffffffedH
  00116	eb 3e		 jmp	 SHORT $LN1@LoadFloat_@2
$LN86@LoadFloat_@2:
  00118	88 4d f6	 mov	 BYTE PTR __k$[ebp+10], cl
  0011b	eb 39		 jmp	 SHORT $LN1@LoadFloat_@2
$LN87@LoadFloat_@2:
  0011d	c6 45 f5 ec	 mov	 BYTE PTR __k$[ebp+9], -20 ; ffffffecH
  00121	eb 33		 jmp	 SHORT $LN1@LoadFloat_@2
$LN88@LoadFloat_@2:
  00123	c6 45 f4 ed	 mov	 BYTE PTR __k$[ebp+8], -19 ; ffffffedH
  00127	eb 2d		 jmp	 SHORT $LN1@LoadFloat_@2
$LN89@LoadFloat_@2:
  00129	c6 45 f3 ea	 mov	 BYTE PTR __k$[ebp+7], -22 ; ffffffeaH
  0012d	eb 27		 jmp	 SHORT $LN1@LoadFloat_@2
$LN90@LoadFloat_@2:
  0012f	88 4d f2	 mov	 BYTE PTR __k$[ebp+6], cl
  00132	eb 22		 jmp	 SHORT $LN1@LoadFloat_@2
$LN91@LoadFloat_@2:
  00134	c6 45 f1 ec	 mov	 BYTE PTR __k$[ebp+5], -20 ; ffffffecH
  00138	eb 1c		 jmp	 SHORT $LN1@LoadFloat_@2
$LN92@LoadFloat_@2:
  0013a	c6 45 f0 ed	 mov	 BYTE PTR __k$[ebp+4], -19 ; ffffffedH
  0013e	eb 16		 jmp	 SHORT $LN1@LoadFloat_@2
$LN93@LoadFloat_@2:
  00140	c6 45 ef ea	 mov	 BYTE PTR __k$[ebp+3], -22 ; ffffffeaH
  00144	eb 10		 jmp	 SHORT $LN1@LoadFloat_@2
$LN94@LoadFloat_@2:
  00146	c6 45 ee eb	 mov	 BYTE PTR __k$[ebp+2], -21 ; ffffffebH
  0014a	eb 0a		 jmp	 SHORT $LN1@LoadFloat_@2
$LN95@LoadFloat_@2:
  0014c	c6 45 ed ec	 mov	 BYTE PTR __k$[ebp+1], -20 ; ffffffecH
  00150	eb 04		 jmp	 SHORT $LN1@LoadFloat_@2
$LN96@LoadFloat_@2:
  00152	c6 45 ec ed	 mov	 BYTE PTR __k$[ebp], -19	; ffffffedH
$LN1@LoadFloat_@2:
  00156	6a 02		 push	 2
  00158	8d 45 ec	 lea	 eax, DWORD PTR __k$[ebp]
  0015b	c6 45 f7 00	 mov	 BYTE PTR __k$[ebp+11], 0
  0015f	5a		 pop	 edx
$LL104@LoadFloat_@2:
  00160	81 30 ed ec eb
	ea		 xor	 DWORD PTR [eax], -353637139 ; eaebecedH
  00166	83 c0 04	 add	 eax, 4
  00169	4a		 dec	 edx
  0016a	75 f4		 jne	 SHORT $LL104@LoadFloat_@2
  0016c	6a 08		 push	 8
  0016e	58		 pop	 eax
$LL101@LoadFloat_@2:
  0016f	8b c8		 mov	 ecx, eax
  00171	81 e1 03 00 00
	80		 and	 ecx, -2147483645	; 80000003H
  00177	79 05		 jns	 SHORT $LN111@LoadFloat_@2
  00179	49		 dec	 ecx
  0017a	83 c9 fc	 or	 ecx, -4			; fffffffcH
  0017d	41		 inc	 ecx
$LN111@LoadFloat_@2:
  0017e	b2 ed		 mov	 dl, -19			; ffffffedH
  00180	2a d1		 sub	 dl, cl
  00182	30 54 05 ec	 xor	 BYTE PTR __k$[ebp+eax], dl
  00186	40		 inc	 eax
  00187	83 f8 0b	 cmp	 eax, 11			; 0000000bH
  0018a	7c e3		 jl	 SHORT $LL101@LoadFloat_@2

; 137  : 		return LoadFloat(_k, f);

  0018c	f3 0f 10 45 0c	 movss	 xmm0, DWORD PTR _f$[ebp]
  00191	51		 push	 ecx
  00192	8d 45 ec	 lea	 eax, DWORD PTR __k$[ebp]
  00195	f3 0f 11 04 24	 movss	 DWORD PTR [esp], xmm0
  0019a	50		 push	 eax
  0019b	8b ce		 mov	 ecx, esi
  0019d	ff 15 00 00 00
	00		 call	 DWORD PTR __imp_?LoadFloat@ioINILoader@@QAEMPBDM@Z

; 138  : 	}

  001a3	8b 4d fc	 mov	 ecx, DWORD PTR __$ArrayPad$[ebp]
  001a6	33 cd		 xor	 ecx, ebp
  001a8	5e		 pop	 esi
  001a9	e8 00 00 00 00	 call	 @__security_check_cookie@4
  001ae	c9		 leave
  001af	c2 08 00	 ret	 8
??$LoadFloat_e@$0M@@ioINILoader@@QAEMAAY0M@$$CBDM@Z ENDP ; ioINILoader::LoadFloat_e<12>
_TEXT	ENDS
PUBLIC	__$ArrayPad$
PUBLIC	??$LoadFloat_e@$0L@@ioINILoader@@QAEMAAY0L@$$CBDM@Z ; ioINILoader::LoadFloat_e<11>
; Function compile flags: /Ogsp
;	COMDAT ??$LoadFloat_e@$0L@@ioINILoader@@QAEMAAY0L@$$CBDM@Z
_TEXT	SEGMENT
__k$ = -20						; size = 11
__$ArrayPad$ = -4					; size = 4
_k$ = 8							; size = 4
_f$ = 12						; size = 4
??$LoadFloat_e@$0L@@ioINILoader@@QAEMAAY0L@$$CBDM@Z PROC ; ioINILoader::LoadFloat_e<11>, COMDAT
; _this$ = ecx

; 135  : 	{

  00000	55		 push	 ebp
  00001	8b ec		 mov	 ebp, esp
  00003	83 ec 14	 sub	 esp, 20			; 00000014H
  00006	a1 00 00 00 00	 mov	 eax, DWORD PTR ___security_cookie
  0000b	33 c5		 xor	 eax, ebp
  0000d	89 45 fc	 mov	 DWORD PTR __$ArrayPad$[ebp], eax
  00010	8b 45 08	 mov	 eax, DWORD PTR _k$[ebp]

; 136  : 		_ENCSTR(k, _k);

  00013	8a 10		 mov	 dl, BYTE PTR [eax]
  00015	56		 push	 esi
  00016	8b f1		 mov	 esi, ecx
  00018	84 d2		 test	 dl, dl
  0001a	0f 84 24 01 00
	00		 je	 $LN96@LoadFloat_@3
  00020	80 f2 ed	 xor	 dl, -19			; ffffffedH
  00023	88 55 ec	 mov	 BYTE PTR __k$[ebp], dl
  00026	8a 50 01	 mov	 dl, BYTE PTR [eax+1]
  00029	84 d2		 test	 dl, dl
  0002b	0f 84 0d 01 00
	00		 je	 $LN95@LoadFloat_@3
  00031	80 f2 ec	 xor	 dl, -20			; ffffffecH
  00034	88 55 ed	 mov	 BYTE PTR __k$[ebp+1], dl
  00037	8a 50 02	 mov	 dl, BYTE PTR [eax+2]
  0003a	84 d2		 test	 dl, dl
  0003c	0f 84 f6 00 00
	00		 je	 $LN94@LoadFloat_@3
  00042	80 f2 eb	 xor	 dl, -21			; ffffffebH
  00045	88 55 ee	 mov	 BYTE PTR __k$[ebp+2], dl
  00048	8a 50 03	 mov	 dl, BYTE PTR [eax+3]
  0004b	84 d2		 test	 dl, dl
  0004d	0f 84 df 00 00
	00		 je	 $LN93@LoadFloat_@3
  00053	80 f2 ea	 xor	 dl, -22			; ffffffeaH
  00056	88 55 ef	 mov	 BYTE PTR __k$[ebp+3], dl
  00059	8a 50 04	 mov	 dl, BYTE PTR [eax+4]
  0005c	84 d2		 test	 dl, dl
  0005e	0f 84 c8 00 00
	00		 je	 $LN92@LoadFloat_@3
  00064	80 f2 ed	 xor	 dl, -19			; ffffffedH
  00067	88 55 f0	 mov	 BYTE PTR __k$[ebp+4], dl
  0006a	8a 50 05	 mov	 dl, BYTE PTR [eax+5]
  0006d	84 d2		 test	 dl, dl
  0006f	0f 84 b1 00 00
	00		 je	 $LN91@LoadFloat_@3
  00075	80 f2 ec	 xor	 dl, -20			; ffffffecH
  00078	88 55 f1	 mov	 BYTE PTR __k$[ebp+5], dl
  0007b	8a 50 06	 mov	 dl, BYTE PTR [eax+6]
  0007e	84 d2		 test	 dl, dl
  00080	0f 84 9a 00 00
	00		 je	 $LN90@LoadFloat_@3
  00086	80 f2 eb	 xor	 dl, -21			; ffffffebH
  00089	88 55 f2	 mov	 BYTE PTR __k$[ebp+6], dl
  0008c	8a 50 07	 mov	 dl, BYTE PTR [eax+7]
  0008f	84 d2		 test	 dl, dl
  00091	0f 84 83 00 00
	00		 je	 $LN89@LoadFloat_@3
  00097	80 f2 ea	 xor	 dl, -22			; ffffffeaH
  0009a	88 55 f3	 mov	 BYTE PTR __k$[ebp+7], dl
  0009d	8a 50 08	 mov	 dl, BYTE PTR [eax+8]
  000a0	84 d2		 test	 dl, dl
  000a2	74 70		 je	 SHORT $LN88@LoadFloat_@3
  000a4	80 f2 ed	 xor	 dl, -19			; ffffffedH
  000a7	88 55 f4	 mov	 BYTE PTR __k$[ebp+8], dl
  000aa	8a 50 09	 mov	 dl, BYTE PTR [eax+9]
  000ad	84 d2		 test	 dl, dl
  000af	74 5d		 je	 SHORT $LN87@LoadFloat_@3
  000b1	80 f2 ec	 xor	 dl, -20			; ffffffecH
  000b4	80 78 0a 00	 cmp	 BYTE PTR [eax+10], 0
  000b8	88 55 f5	 mov	 BYTE PTR __k$[ebp+9], dl
  000bb	0f 84 87 00 00
	00		 je	 $LN1@LoadFloat_@3
  000c1	8a 50 0b	 mov	 dl, BYTE PTR [eax+11]
  000c4	84 d2		 test	 dl, dl
  000c6	74 40		 je	 SHORT $LN85@LoadFloat_@3
  000c8	80 f2 ea	 xor	 dl, -22			; ffffffeaH
  000cb	88 55 f7	 mov	 BYTE PTR __k$[ebp+11], dl
  000ce	8a 50 0c	 mov	 dl, BYTE PTR [eax+12]
  000d1	84 d2		 test	 dl, dl
  000d3	74 2d		 je	 SHORT $LN84@LoadFloat_@3
  000d5	80 f2 ed	 xor	 dl, -19			; ffffffedH
  000d8	88 55 f8	 mov	 BYTE PTR __k$[ebp+12], dl
  000db	8a 50 0d	 mov	 dl, BYTE PTR [eax+13]
  000de	84 d2		 test	 dl, dl
  000e0	74 1a		 je	 SHORT $LN83@LoadFloat_@3
  000e2	8a 40 0e	 mov	 al, BYTE PTR [eax+14]
  000e5	80 f2 ec	 xor	 dl, -20			; ffffffecH
  000e8	88 55 f9	 mov	 BYTE PTR __k$[ebp+13], dl
  000eb	84 c0		 test	 al, al
  000ed	74 07		 je	 SHORT $LN82@LoadFloat_@3
  000ef	34 eb		 xor	 al, -21			; ffffffebH
  000f1	88 45 fa	 mov	 BYTE PTR __k$[ebp+14], al
  000f4	eb 52		 jmp	 SHORT $LN1@LoadFloat_@3
$LN82@LoadFloat_@3:
  000f6	c6 45 fa eb	 mov	 BYTE PTR __k$[ebp+14], -21 ; ffffffebH
  000fa	eb 4c		 jmp	 SHORT $LN1@LoadFloat_@3
$LN83@LoadFloat_@3:
  000fc	c6 45 f9 ec	 mov	 BYTE PTR __k$[ebp+13], -20 ; ffffffecH
  00100	eb 46		 jmp	 SHORT $LN1@LoadFloat_@3
$LN84@LoadFloat_@3:
  00102	c6 45 f8 ed	 mov	 BYTE PTR __k$[ebp+12], -19 ; ffffffedH
  00106	eb 40		 jmp	 SHORT $LN1@LoadFloat_@3
$LN85@LoadFloat_@3:
  00108	c6 45 f7 ea	 mov	 BYTE PTR __k$[ebp+11], -22 ; ffffffeaH
  0010c	eb 3a		 jmp	 SHORT $LN1@LoadFloat_@3
$LN87@LoadFloat_@3:
  0010e	c6 45 f5 ec	 mov	 BYTE PTR __k$[ebp+9], -20 ; ffffffecH
  00112	eb 34		 jmp	 SHORT $LN1@LoadFloat_@3
$LN88@LoadFloat_@3:
  00114	c6 45 f4 ed	 mov	 BYTE PTR __k$[ebp+8], -19 ; ffffffedH
  00118	eb 2e		 jmp	 SHORT $LN1@LoadFloat_@3
$LN89@LoadFloat_@3:
  0011a	c6 45 f3 ea	 mov	 BYTE PTR __k$[ebp+7], -22 ; ffffffeaH
  0011e	eb 28		 jmp	 SHORT $LN1@LoadFloat_@3
$LN90@LoadFloat_@3:
  00120	c6 45 f2 eb	 mov	 BYTE PTR __k$[ebp+6], -21 ; ffffffebH
  00124	eb 22		 jmp	 SHORT $LN1@LoadFloat_@3
$LN91@LoadFloat_@3:
  00126	c6 45 f1 ec	 mov	 BYTE PTR __k$[ebp+5], -20 ; ffffffecH
  0012a	eb 1c		 jmp	 SHORT $LN1@LoadFloat_@3
$LN92@LoadFloat_@3:
  0012c	c6 45 f0 ed	 mov	 BYTE PTR __k$[ebp+4], -19 ; ffffffedH
  00130	eb 16		 jmp	 SHORT $LN1@LoadFloat_@3
$LN93@LoadFloat_@3:
  00132	c6 45 ef ea	 mov	 BYTE PTR __k$[ebp+3], -22 ; ffffffeaH
  00136	eb 10		 jmp	 SHORT $LN1@LoadFloat_@3
$LN94@LoadFloat_@3:
  00138	c6 45 ee eb	 mov	 BYTE PTR __k$[ebp+2], -21 ; ffffffebH
  0013c	eb 0a		 jmp	 SHORT $LN1@LoadFloat_@3
$LN95@LoadFloat_@3:
  0013e	c6 45 ed ec	 mov	 BYTE PTR __k$[ebp+1], -20 ; ffffffecH
  00142	eb 04		 jmp	 SHORT $LN1@LoadFloat_@3
$LN96@LoadFloat_@3:
  00144	c6 45 ec ed	 mov	 BYTE PTR __k$[ebp], -19	; ffffffedH
$LN1@LoadFloat_@3:
  00148	6a 02		 push	 2
  0014a	8d 45 ec	 lea	 eax, DWORD PTR __k$[ebp]
  0014d	c6 45 f6 00	 mov	 BYTE PTR __k$[ebp+10], 0
  00151	5a		 pop	 edx
$LL104@LoadFloat_@3:
  00152	81 30 ed ec eb
	ea		 xor	 DWORD PTR [eax], -353637139 ; eaebecedH
  00158	83 c0 04	 add	 eax, 4
  0015b	4a		 dec	 edx
  0015c	75 f4		 jne	 SHORT $LL104@LoadFloat_@3
  0015e	6a 08		 push	 8
  00160	58		 pop	 eax
$LL101@LoadFloat_@3:
  00161	8b c8		 mov	 ecx, eax
  00163	81 e1 03 00 00
	80		 and	 ecx, -2147483645	; 80000003H
  00169	79 05		 jns	 SHORT $LN111@LoadFloat_@3
  0016b	49		 dec	 ecx
  0016c	83 c9 fc	 or	 ecx, -4			; fffffffcH
  0016f	41		 inc	 ecx
$LN111@LoadFloat_@3:
  00170	b2 ed		 mov	 dl, -19			; ffffffedH
  00172	2a d1		 sub	 dl, cl
  00174	30 54 05 ec	 xor	 BYTE PTR __k$[ebp+eax], dl
  00178	40		 inc	 eax
  00179	83 f8 0a	 cmp	 eax, 10			; 0000000aH
  0017c	7c e3		 jl	 SHORT $LL101@LoadFloat_@3

; 137  : 		return LoadFloat(_k, f);

  0017e	f3 0f 10 45 0c	 movss	 xmm0, DWORD PTR _f$[ebp]
  00183	51		 push	 ecx
  00184	8d 45 ec	 lea	 eax, DWORD PTR __k$[ebp]
  00187	f3 0f 11 04 24	 movss	 DWORD PTR [esp], xmm0
  0018c	50		 push	 eax
  0018d	8b ce		 mov	 ecx, esi
  0018f	ff 15 00 00 00
	00		 call	 DWORD PTR __imp_?LoadFloat@ioINILoader@@QAEMPBDM@Z

; 138  : 	}

  00195	8b 4d fc	 mov	 ecx, DWORD PTR __$ArrayPad$[ebp]
  00198	33 cd		 xor	 ecx, ebp
  0019a	5e		 pop	 esi
  0019b	e8 00 00 00 00	 call	 @__security_check_cookie@4
  001a0	c9		 leave
  001a1	c2 08 00	 ret	 8
??$LoadFloat_e@$0L@@ioINILoader@@QAEMAAY0L@$$CBDM@Z ENDP ; ioINILoader::LoadFloat_e<11>
_TEXT	ENDS
PUBLIC	__$ArrayPad$
PUBLIC	??$LoadFloat_e@$0N@@ioINILoader@@QAEMAAY0N@$$CBDM@Z ; ioINILoader::LoadFloat_e<13>
; Function compile flags: /Ogsp
;	COMDAT ??$LoadFloat_e@$0N@@ioINILoader@@QAEMAAY0N@$$CBDM@Z
_TEXT	SEGMENT
__k$ = -24						; size = 13
__$ArrayPad$ = -4					; size = 4
_k$ = 8							; size = 4
_f$ = 12						; size = 4
??$LoadFloat_e@$0N@@ioINILoader@@QAEMAAY0N@$$CBDM@Z PROC ; ioINILoader::LoadFloat_e<13>, COMDAT
; _this$ = ecx

; 135  : 	{

  00000	55		 push	 ebp
  00001	8b ec		 mov	 ebp, esp
  00003	83 ec 18	 sub	 esp, 24			; 00000018H
  00006	a1 00 00 00 00	 mov	 eax, DWORD PTR ___security_cookie
  0000b	33 c5		 xor	 eax, ebp
  0000d	89 45 fc	 mov	 DWORD PTR __$ArrayPad$[ebp], eax
  00010	8b 45 08	 mov	 eax, DWORD PTR _k$[ebp]

; 136  : 		_ENCSTR(k, _k);

  00013	8a 10		 mov	 dl, BYTE PTR [eax]
  00015	56		 push	 esi
  00016	8b f1		 mov	 esi, ecx
  00018	84 d2		 test	 dl, dl
  0001a	0f 84 4d 01 00
	00		 je	 $LN96@LoadFloat_@4
  00020	80 f2 ed	 xor	 dl, -19			; ffffffedH
  00023	88 55 e8	 mov	 BYTE PTR __k$[ebp], dl
  00026	8a 50 01	 mov	 dl, BYTE PTR [eax+1]
  00029	84 d2		 test	 dl, dl
  0002b	0f 84 36 01 00
	00		 je	 $LN95@LoadFloat_@4
  00031	b1 ec		 mov	 cl, -20			; ffffffecH
  00033	32 d1		 xor	 dl, cl
  00035	88 55 e9	 mov	 BYTE PTR __k$[ebp+1], dl
  00038	8a 50 02	 mov	 dl, BYTE PTR [eax+2]
  0003b	84 d2		 test	 dl, dl
  0003d	0f 84 1e 01 00
	00		 je	 $LN94@LoadFloat_@4
  00043	80 f2 eb	 xor	 dl, -21			; ffffffebH
  00046	88 55 ea	 mov	 BYTE PTR __k$[ebp+2], dl
  00049	8a 50 03	 mov	 dl, BYTE PTR [eax+3]
  0004c	84 d2		 test	 dl, dl
  0004e	0f 84 07 01 00
	00		 je	 $LN93@LoadFloat_@4
  00054	80 f2 ea	 xor	 dl, -22			; ffffffeaH
  00057	88 55 eb	 mov	 BYTE PTR __k$[ebp+3], dl
  0005a	8a 50 04	 mov	 dl, BYTE PTR [eax+4]
  0005d	84 d2		 test	 dl, dl
  0005f	0f 84 f0 00 00
	00		 je	 $LN92@LoadFloat_@4
  00065	80 f2 ed	 xor	 dl, -19			; ffffffedH
  00068	88 55 ec	 mov	 BYTE PTR __k$[ebp+4], dl
  0006b	8a 50 05	 mov	 dl, BYTE PTR [eax+5]
  0006e	84 d2		 test	 dl, dl
  00070	0f 84 da 00 00
	00		 je	 $LN91@LoadFloat_@4
  00076	32 d1		 xor	 dl, cl
  00078	88 55 ed	 mov	 BYTE PTR __k$[ebp+5], dl
  0007b	8a 50 06	 mov	 dl, BYTE PTR [eax+6]
  0007e	84 d2		 test	 dl, dl
  00080	0f 84 c4 00 00
	00		 je	 $LN90@LoadFloat_@4
  00086	80 f2 eb	 xor	 dl, -21			; ffffffebH
  00089	88 55 ee	 mov	 BYTE PTR __k$[ebp+6], dl
  0008c	8a 50 07	 mov	 dl, BYTE PTR [eax+7]
  0008f	84 d2		 test	 dl, dl
  00091	0f 84 ad 00 00
	00		 je	 $LN89@LoadFloat_@4
  00097	80 f2 ea	 xor	 dl, -22			; ffffffeaH
  0009a	88 55 ef	 mov	 BYTE PTR __k$[ebp+7], dl
  0009d	8a 50 08	 mov	 dl, BYTE PTR [eax+8]
  000a0	84 d2		 test	 dl, dl
  000a2	0f 84 96 00 00
	00		 je	 $LN88@LoadFloat_@4
  000a8	80 f2 ed	 xor	 dl, -19			; ffffffedH
  000ab	88 55 f0	 mov	 BYTE PTR __k$[ebp+8], dl
  000ae	8a 50 09	 mov	 dl, BYTE PTR [eax+9]
  000b1	84 d2		 test	 dl, dl
  000b3	0f 84 80 00 00
	00		 je	 $LN87@LoadFloat_@4
  000b9	32 d1		 xor	 dl, cl
  000bb	88 55 f1	 mov	 BYTE PTR __k$[ebp+9], dl
  000be	8a 50 0a	 mov	 dl, BYTE PTR [eax+10]
  000c1	84 d2		 test	 dl, dl
  000c3	74 6e		 je	 SHORT $LN86@LoadFloat_@4
  000c5	80 f2 eb	 xor	 dl, -21			; ffffffebH
  000c8	88 55 f2	 mov	 BYTE PTR __k$[ebp+10], dl
  000cb	8a 50 0b	 mov	 dl, BYTE PTR [eax+11]
  000ce	84 d2		 test	 dl, dl
  000d0	74 5b		 je	 SHORT $LN85@LoadFloat_@4
  000d2	80 f2 ea	 xor	 dl, -22			; ffffffeaH
  000d5	80 78 0c 00	 cmp	 BYTE PTR [eax+12], 0
  000d9	88 55 f3	 mov	 BYTE PTR __k$[ebp+11], dl
  000dc	0f 84 8f 00 00
	00		 je	 $LN1@LoadFloat_@4
  000e2	8a 50 0d	 mov	 dl, BYTE PTR [eax+13]
  000e5	84 d2		 test	 dl, dl
  000e7	74 3f		 je	 SHORT $LN83@LoadFloat_@4
  000e9	32 d1		 xor	 dl, cl
  000eb	88 55 f5	 mov	 BYTE PTR __k$[ebp+13], dl
  000ee	8a 50 0e	 mov	 dl, BYTE PTR [eax+14]
  000f1	84 d2		 test	 dl, dl
  000f3	74 2d		 je	 SHORT $LN82@LoadFloat_@4
  000f5	80 f2 eb	 xor	 dl, -21			; ffffffebH
  000f8	88 55 f6	 mov	 BYTE PTR __k$[ebp+14], dl
  000fb	8a 50 0f	 mov	 dl, BYTE PTR [eax+15]
  000fe	84 d2		 test	 dl, dl
  00100	74 1a		 je	 SHORT $LN81@LoadFloat_@4
  00102	8a 40 10	 mov	 al, BYTE PTR [eax+16]
  00105	80 f2 ea	 xor	 dl, -22			; ffffffeaH
  00108	88 55 f7	 mov	 BYTE PTR __k$[ebp+15], dl
  0010b	84 c0		 test	 al, al
  0010d	74 07		 je	 SHORT $LN80@LoadFloat_@4
  0010f	34 ed		 xor	 al, -19			; ffffffedH
  00111	88 45 f8	 mov	 BYTE PTR __k$[ebp+16], al
  00114	eb 5b		 jmp	 SHORT $LN1@LoadFloat_@4
$LN80@LoadFloat_@4:
  00116	c6 45 f8 ed	 mov	 BYTE PTR __k$[ebp+16], -19 ; ffffffedH
  0011a	eb 55		 jmp	 SHORT $LN1@LoadFloat_@4
$LN81@LoadFloat_@4:
  0011c	c6 45 f7 ea	 mov	 BYTE PTR __k$[ebp+15], -22 ; ffffffeaH
  00120	eb 4f		 jmp	 SHORT $LN1@LoadFloat_@4
$LN82@LoadFloat_@4:
  00122	c6 45 f6 eb	 mov	 BYTE PTR __k$[ebp+14], -21 ; ffffffebH
  00126	eb 49		 jmp	 SHORT $LN1@LoadFloat_@4
$LN83@LoadFloat_@4:
  00128	88 4d f5	 mov	 BYTE PTR __k$[ebp+13], cl
  0012b	eb 44		 jmp	 SHORT $LN1@LoadFloat_@4
$LN85@LoadFloat_@4:
  0012d	c6 45 f3 ea	 mov	 BYTE PTR __k$[ebp+11], -22 ; ffffffeaH
  00131	eb 3e		 jmp	 SHORT $LN1@LoadFloat_@4
$LN86@LoadFloat_@4:
  00133	c6 45 f2 eb	 mov	 BYTE PTR __k$[ebp+10], -21 ; ffffffebH
  00137	eb 38		 jmp	 SHORT $LN1@LoadFloat_@4
$LN87@LoadFloat_@4:
  00139	88 4d f1	 mov	 BYTE PTR __k$[ebp+9], cl
  0013c	eb 33		 jmp	 SHORT $LN1@LoadFloat_@4
$LN88@LoadFloat_@4:
  0013e	c6 45 f0 ed	 mov	 BYTE PTR __k$[ebp+8], -19 ; ffffffedH
  00142	eb 2d		 jmp	 SHORT $LN1@LoadFloat_@4
$LN89@LoadFloat_@4:
  00144	c6 45 ef ea	 mov	 BYTE PTR __k$[ebp+7], -22 ; ffffffeaH
  00148	eb 27		 jmp	 SHORT $LN1@LoadFloat_@4
$LN90@LoadFloat_@4:
  0014a	c6 45 ee eb	 mov	 BYTE PTR __k$[ebp+6], -21 ; ffffffebH
  0014e	eb 21		 jmp	 SHORT $LN1@LoadFloat_@4
$LN91@LoadFloat_@4:
  00150	88 4d ed	 mov	 BYTE PTR __k$[ebp+5], cl
  00153	eb 1c		 jmp	 SHORT $LN1@LoadFloat_@4
$LN92@LoadFloat_@4:
  00155	c6 45 ec ed	 mov	 BYTE PTR __k$[ebp+4], -19 ; ffffffedH
  00159	eb 16		 jmp	 SHORT $LN1@LoadFloat_@4
$LN93@LoadFloat_@4:
  0015b	c6 45 eb ea	 mov	 BYTE PTR __k$[ebp+3], -22 ; ffffffeaH
  0015f	eb 10		 jmp	 SHORT $LN1@LoadFloat_@4
$LN94@LoadFloat_@4:
  00161	c6 45 ea eb	 mov	 BYTE PTR __k$[ebp+2], -21 ; ffffffebH
  00165	eb 0a		 jmp	 SHORT $LN1@LoadFloat_@4
$LN95@LoadFloat_@4:
  00167	c6 45 e9 ec	 mov	 BYTE PTR __k$[ebp+1], -20 ; ffffffecH
  0016b	eb 04		 jmp	 SHORT $LN1@LoadFloat_@4
$LN96@LoadFloat_@4:
  0016d	c6 45 e8 ed	 mov	 BYTE PTR __k$[ebp], -19	; ffffffedH
$LN1@LoadFloat_@4:
  00171	6a 03		 push	 3
  00173	8d 45 e8	 lea	 eax, DWORD PTR __k$[ebp]
  00176	c6 45 f4 00	 mov	 BYTE PTR __k$[ebp+12], 0
  0017a	5a		 pop	 edx
$LL104@LoadFloat_@4:
  0017b	81 30 ed ec eb
	ea		 xor	 DWORD PTR [eax], -353637139 ; eaebecedH
  00181	83 c0 04	 add	 eax, 4
  00184	4a		 dec	 edx
  00185	75 f4		 jne	 SHORT $LL104@LoadFloat_@4

; 137  : 		return LoadFloat(_k, f);

  00187	f3 0f 10 45 0c	 movss	 xmm0, DWORD PTR _f$[ebp]
  0018c	51		 push	 ecx
  0018d	8d 45 e8	 lea	 eax, DWORD PTR __k$[ebp]
  00190	f3 0f 11 04 24	 movss	 DWORD PTR [esp], xmm0
  00195	50		 push	 eax
  00196	8b ce		 mov	 ecx, esi
  00198	ff 15 00 00 00
	00		 call	 DWORD PTR __imp_?LoadFloat@ioINILoader@@QAEMPBDM@Z

; 138  : 	}

  0019e	8b 4d fc	 mov	 ecx, DWORD PTR __$ArrayPad$[ebp]
  001a1	33 cd		 xor	 ecx, ebp
  001a3	5e		 pop	 esi
  001a4	e8 00 00 00 00	 call	 @__security_check_cookie@4
  001a9	c9		 leave
  001aa	c2 08 00	 ret	 8
??$LoadFloat_e@$0N@@ioINILoader@@QAEMAAY0N@$$CBDM@Z ENDP ; ioINILoader::LoadFloat_e<13>
_TEXT	ENDS
PUBLIC	__$ArrayPad$
PUBLIC	??$LoadFloat_e@$0BA@@ioINILoader@@QAEMAAY0BA@$$CBDM@Z ; ioINILoader::LoadFloat_e<16>
; Function compile flags: /Ogsp
;	COMDAT ??$LoadFloat_e@$0BA@@ioINILoader@@QAEMAAY0BA@$$CBDM@Z
_TEXT	SEGMENT
__k$ = -24						; size = 16
__$ArrayPad$ = -4					; size = 4
_k$ = 8							; size = 4
_f$ = 12						; size = 4
??$LoadFloat_e@$0BA@@ioINILoader@@QAEMAAY0BA@$$CBDM@Z PROC ; ioINILoader::LoadFloat_e<16>, COMDAT
; _this$ = ecx

; 135  : 	{

  00000	55		 push	 ebp
  00001	8b ec		 mov	 ebp, esp
  00003	83 ec 18	 sub	 esp, 24			; 00000018H
  00006	a1 00 00 00 00	 mov	 eax, DWORD PTR ___security_cookie
  0000b	33 c5		 xor	 eax, ebp
  0000d	89 45 fc	 mov	 DWORD PTR __$ArrayPad$[ebp], eax
  00010	8b 45 08	 mov	 eax, DWORD PTR _k$[ebp]

; 136  : 		_ENCSTR(k, _k);

  00013	8a 10		 mov	 dl, BYTE PTR [eax]
  00015	56		 push	 esi
  00016	8b f1		 mov	 esi, ecx
  00018	84 d2		 test	 dl, dl
  0001a	0f 84 8c 01 00
	00		 je	 $LN96@LoadFloat_@5
  00020	80 f2 ed	 xor	 dl, -19			; ffffffedH
  00023	88 55 e8	 mov	 BYTE PTR __k$[ebp], dl
  00026	8a 50 01	 mov	 dl, BYTE PTR [eax+1]
  00029	84 d2		 test	 dl, dl
  0002b	0f 84 75 01 00
	00		 je	 $LN95@LoadFloat_@5
  00031	80 f2 ec	 xor	 dl, -20			; ffffffecH
  00034	88 55 e9	 mov	 BYTE PTR __k$[ebp+1], dl
  00037	8a 50 02	 mov	 dl, BYTE PTR [eax+2]
  0003a	84 d2		 test	 dl, dl
  0003c	0f 84 5e 01 00
	00		 je	 $LN94@LoadFloat_@5
  00042	b1 eb		 mov	 cl, -21			; ffffffebH
  00044	32 d1		 xor	 dl, cl
  00046	88 55 ea	 mov	 BYTE PTR __k$[ebp+2], dl
  00049	8a 50 03	 mov	 dl, BYTE PTR [eax+3]
  0004c	84 d2		 test	 dl, dl
  0004e	0f 84 46 01 00
	00		 je	 $LN93@LoadFloat_@5
  00054	80 f2 ea	 xor	 dl, -22			; ffffffeaH
  00057	88 55 eb	 mov	 BYTE PTR __k$[ebp+3], dl
  0005a	8a 50 04	 mov	 dl, BYTE PTR [eax+4]
  0005d	84 d2		 test	 dl, dl
  0005f	0f 84 2f 01 00
	00		 je	 $LN92@LoadFloat_@5
  00065	80 f2 ed	 xor	 dl, -19			; ffffffedH
  00068	88 55 ec	 mov	 BYTE PTR __k$[ebp+4], dl
  0006b	8a 50 05	 mov	 dl, BYTE PTR [eax+5]
  0006e	84 d2		 test	 dl, dl
  00070	0f 84 18 01 00
	00		 je	 $LN91@LoadFloat_@5
  00076	80 f2 ec	 xor	 dl, -20			; ffffffecH
  00079	88 55 ed	 mov	 BYTE PTR __k$[ebp+5], dl
  0007c	8a 50 06	 mov	 dl, BYTE PTR [eax+6]
  0007f	84 d2		 test	 dl, dl
  00081	0f 84 02 01 00
	00		 je	 $LN90@LoadFloat_@5
  00087	32 d1		 xor	 dl, cl
  00089	88 55 ee	 mov	 BYTE PTR __k$[ebp+6], dl
  0008c	8a 50 07	 mov	 dl, BYTE PTR [eax+7]
  0008f	84 d2		 test	 dl, dl
  00091	0f 84 ec 00 00
	00		 je	 $LN89@LoadFloat_@5
  00097	80 f2 ea	 xor	 dl, -22			; ffffffeaH
  0009a	88 55 ef	 mov	 BYTE PTR __k$[ebp+7], dl
  0009d	8a 50 08	 mov	 dl, BYTE PTR [eax+8]
  000a0	84 d2		 test	 dl, dl
  000a2	0f 84 d5 00 00
	00		 je	 $LN88@LoadFloat_@5
  000a8	80 f2 ed	 xor	 dl, -19			; ffffffedH
  000ab	88 55 f0	 mov	 BYTE PTR __k$[ebp+8], dl
  000ae	8a 50 09	 mov	 dl, BYTE PTR [eax+9]
  000b1	84 d2		 test	 dl, dl
  000b3	0f 84 be 00 00
	00		 je	 $LN87@LoadFloat_@5
  000b9	80 f2 ec	 xor	 dl, -20			; ffffffecH
  000bc	88 55 f1	 mov	 BYTE PTR __k$[ebp+9], dl
  000bf	8a 50 0a	 mov	 dl, BYTE PTR [eax+10]
  000c2	84 d2		 test	 dl, dl
  000c4	0f 84 a8 00 00
	00		 je	 $LN86@LoadFloat_@5
  000ca	32 d1		 xor	 dl, cl
  000cc	88 55 f2	 mov	 BYTE PTR __k$[ebp+10], dl
  000cf	8a 50 0b	 mov	 dl, BYTE PTR [eax+11]
  000d2	84 d2		 test	 dl, dl
  000d4	0f 84 92 00 00
	00		 je	 $LN85@LoadFloat_@5
  000da	80 f2 ea	 xor	 dl, -22			; ffffffeaH
  000dd	88 55 f3	 mov	 BYTE PTR __k$[ebp+11], dl
  000e0	8a 50 0c	 mov	 dl, BYTE PTR [eax+12]
  000e3	84 d2		 test	 dl, dl
  000e5	74 7f		 je	 SHORT $LN84@LoadFloat_@5
  000e7	80 f2 ed	 xor	 dl, -19			; ffffffedH
  000ea	88 55 f4	 mov	 BYTE PTR __k$[ebp+12], dl
  000ed	8a 50 0d	 mov	 dl, BYTE PTR [eax+13]
  000f0	84 d2		 test	 dl, dl
  000f2	74 6c		 je	 SHORT $LN83@LoadFloat_@5
  000f4	80 f2 ec	 xor	 dl, -20			; ffffffecH
  000f7	88 55 f5	 mov	 BYTE PTR __k$[ebp+13], dl
  000fa	8a 50 0e	 mov	 dl, BYTE PTR [eax+14]
  000fd	84 d2		 test	 dl, dl
  000ff	74 5a		 je	 SHORT $LN82@LoadFloat_@5
  00101	32 d1		 xor	 dl, cl
  00103	80 78 0f 00	 cmp	 BYTE PTR [eax+15], 0
  00107	88 55 f6	 mov	 BYTE PTR __k$[ebp+14], dl
  0010a	0f 84 a0 00 00
	00		 je	 $LN1@LoadFloat_@5
  00110	8a 50 10	 mov	 dl, BYTE PTR [eax+16]
  00113	84 d2		 test	 dl, dl
  00115	74 3e		 je	 SHORT $LN80@LoadFloat_@5
  00117	80 f2 ed	 xor	 dl, -19			; ffffffedH
  0011a	88 55 f8	 mov	 BYTE PTR __k$[ebp+16], dl
  0011d	8a 50 11	 mov	 dl, BYTE PTR [eax+17]
  00120	84 d2		 test	 dl, dl
  00122	74 2b		 je	 SHORT $LN79@LoadFloat_@5
  00124	80 f2 ec	 xor	 dl, -20			; ffffffecH
  00127	88 55 f9	 mov	 BYTE PTR __k$[ebp+17], dl
  0012a	8a 50 12	 mov	 dl, BYTE PTR [eax+18]
  0012d	84 d2		 test	 dl, dl
  0012f	74 19		 je	 SHORT $LN78@LoadFloat_@5
  00131	8a 40 13	 mov	 al, BYTE PTR [eax+19]
  00134	32 d1		 xor	 dl, cl
  00136	88 55 fa	 mov	 BYTE PTR __k$[ebp+18], dl
  00139	84 c0		 test	 al, al
  0013b	74 07		 je	 SHORT $LN77@LoadFloat_@5
  0013d	34 ea		 xor	 al, -22			; ffffffeaH
  0013f	88 45 fb	 mov	 BYTE PTR __k$[ebp+19], al
  00142	eb 6c		 jmp	 SHORT $LN1@LoadFloat_@5
$LN77@LoadFloat_@5:
  00144	c6 45 fb ea	 mov	 BYTE PTR __k$[ebp+19], -22 ; ffffffeaH
  00148	eb 66		 jmp	 SHORT $LN1@LoadFloat_@5
$LN78@LoadFloat_@5:
  0014a	88 4d fa	 mov	 BYTE PTR __k$[ebp+18], cl
  0014d	eb 61		 jmp	 SHORT $LN1@LoadFloat_@5
$LN79@LoadFloat_@5:
  0014f	c6 45 f9 ec	 mov	 BYTE PTR __k$[ebp+17], -20 ; ffffffecH
  00153	eb 5b		 jmp	 SHORT $LN1@LoadFloat_@5
$LN80@LoadFloat_@5:
  00155	c6 45 f8 ed	 mov	 BYTE PTR __k$[ebp+16], -19 ; ffffffedH
  00159	eb 55		 jmp	 SHORT $LN1@LoadFloat_@5
$LN82@LoadFloat_@5:
  0015b	88 4d f6	 mov	 BYTE PTR __k$[ebp+14], cl
  0015e	eb 50		 jmp	 SHORT $LN1@LoadFloat_@5
$LN83@LoadFloat_@5:
  00160	c6 45 f5 ec	 mov	 BYTE PTR __k$[ebp+13], -20 ; ffffffecH
  00164	eb 4a		 jmp	 SHORT $LN1@LoadFloat_@5
$LN84@LoadFloat_@5:
  00166	c6 45 f4 ed	 mov	 BYTE PTR __k$[ebp+12], -19 ; ffffffedH
  0016a	eb 44		 jmp	 SHORT $LN1@LoadFloat_@5
$LN85@LoadFloat_@5:
  0016c	c6 45 f3 ea	 mov	 BYTE PTR __k$[ebp+11], -22 ; ffffffeaH
  00170	eb 3e		 jmp	 SHORT $LN1@LoadFloat_@5
$LN86@LoadFloat_@5:
  00172	88 4d f2	 mov	 BYTE PTR __k$[ebp+10], cl
  00175	eb 39		 jmp	 SHORT $LN1@LoadFloat_@5
$LN87@LoadFloat_@5:
  00177	c6 45 f1 ec	 mov	 BYTE PTR __k$[ebp+9], -20 ; ffffffecH
  0017b	eb 33		 jmp	 SHORT $LN1@LoadFloat_@5
$LN88@LoadFloat_@5:
  0017d	c6 45 f0 ed	 mov	 BYTE PTR __k$[ebp+8], -19 ; ffffffedH
  00181	eb 2d		 jmp	 SHORT $LN1@LoadFloat_@5
$LN89@LoadFloat_@5:
  00183	c6 45 ef ea	 mov	 BYTE PTR __k$[ebp+7], -22 ; ffffffeaH
  00187	eb 27		 jmp	 SHORT $LN1@LoadFloat_@5
$LN90@LoadFloat_@5:
  00189	88 4d ee	 mov	 BYTE PTR __k$[ebp+6], cl
  0018c	eb 22		 jmp	 SHORT $LN1@LoadFloat_@5
$LN91@LoadFloat_@5:
  0018e	c6 45 ed ec	 mov	 BYTE PTR __k$[ebp+5], -20 ; ffffffecH
  00192	eb 1c		 jmp	 SHORT $LN1@LoadFloat_@5
$LN92@LoadFloat_@5:
  00194	c6 45 ec ed	 mov	 BYTE PTR __k$[ebp+4], -19 ; ffffffedH
  00198	eb 16		 jmp	 SHORT $LN1@LoadFloat_@5
$LN93@LoadFloat_@5:
  0019a	c6 45 eb ea	 mov	 BYTE PTR __k$[ebp+3], -22 ; ffffffeaH
  0019e	eb 10		 jmp	 SHORT $LN1@LoadFloat_@5
$LN94@LoadFloat_@5:
  001a0	c6 45 ea eb	 mov	 BYTE PTR __k$[ebp+2], -21 ; ffffffebH
  001a4	eb 0a		 jmp	 SHORT $LN1@LoadFloat_@5
$LN95@LoadFloat_@5:
  001a6	c6 45 e9 ec	 mov	 BYTE PTR __k$[ebp+1], -20 ; ffffffecH
  001aa	eb 04		 jmp	 SHORT $LN1@LoadFloat_@5
$LN96@LoadFloat_@5:
  001ac	c6 45 e8 ed	 mov	 BYTE PTR __k$[ebp], -19	; ffffffedH
$LN1@LoadFloat_@5:
  001b0	6a 03		 push	 3
  001b2	8d 45 e8	 lea	 eax, DWORD PTR __k$[ebp]
  001b5	c6 45 f7 00	 mov	 BYTE PTR __k$[ebp+15], 0
  001b9	5a		 pop	 edx
$LL104@LoadFloat_@5:
  001ba	81 30 ed ec eb
	ea		 xor	 DWORD PTR [eax], -353637139 ; eaebecedH
  001c0	83 c0 04	 add	 eax, 4
  001c3	4a		 dec	 edx
  001c4	75 f4		 jne	 SHORT $LL104@LoadFloat_@5
  001c6	6a 0c		 push	 12			; 0000000cH
  001c8	58		 pop	 eax
$LL101@LoadFloat_@5:
  001c9	8b c8		 mov	 ecx, eax
  001cb	81 e1 03 00 00
	80		 and	 ecx, -2147483645	; 80000003H
  001d1	79 05		 jns	 SHORT $LN111@LoadFloat_@5
  001d3	49		 dec	 ecx
  001d4	83 c9 fc	 or	 ecx, -4			; fffffffcH
  001d7	41		 inc	 ecx
$LN111@LoadFloat_@5:
  001d8	b2 ed		 mov	 dl, -19			; ffffffedH
  001da	2a d1		 sub	 dl, cl
  001dc	30 54 05 e8	 xor	 BYTE PTR __k$[ebp+eax], dl
  001e0	40		 inc	 eax
  001e1	83 f8 0f	 cmp	 eax, 15			; 0000000fH
  001e4	7c e3		 jl	 SHORT $LL101@LoadFloat_@5

; 137  : 		return LoadFloat(_k, f);

  001e6	f3 0f 10 45 0c	 movss	 xmm0, DWORD PTR _f$[ebp]
  001eb	51		 push	 ecx
  001ec	8d 45 e8	 lea	 eax, DWORD PTR __k$[ebp]
  001ef	f3 0f 11 04 24	 movss	 DWORD PTR [esp], xmm0
  001f4	50		 push	 eax
  001f5	8b ce		 mov	 ecx, esi
  001f7	ff 15 00 00 00
	00		 call	 DWORD PTR __imp_?LoadFloat@ioINILoader@@QAEMPBDM@Z

; 138  : 	}

  001fd	8b 4d fc	 mov	 ecx, DWORD PTR __$ArrayPad$[ebp]
  00200	33 cd		 xor	 ecx, ebp
  00202	5e		 pop	 esi
  00203	e8 00 00 00 00	 call	 @__security_check_cookie@4
  00208	c9		 leave
  00209	c2 08 00	 ret	 8
??$LoadFloat_e@$0BA@@ioINILoader@@QAEMAAY0BA@$$CBDM@Z ENDP ; ioINILoader::LoadFloat_e<16>
_TEXT	ENDS
PUBLIC	__$ArrayPad$
PUBLIC	??$LoadInt_e@$0BD@@ioINILoader@@QAEHAAY0BD@$$CBDH@Z ; ioINILoader::LoadInt_e<19>
; Function compile flags: /Ogsp
;	COMDAT ??$LoadInt_e@$0BD@@ioINILoader@@QAEHAAY0BD@$$CBDH@Z
_TEXT	SEGMENT
__k$ = -28						; size = 19
__$ArrayPad$ = -4					; size = 4
_k$ = 8							; size = 4
_i$ = 12						; size = 4
??$LoadInt_e@$0BD@@ioINILoader@@QAEHAAY0BD@$$CBDH@Z PROC ; ioINILoader::LoadInt_e<19>, COMDAT
; _this$ = ecx

; 118  : 	{

  00000	55		 push	 ebp
  00001	8b ec		 mov	 ebp, esp
  00003	83 ec 1c	 sub	 esp, 28			; 0000001cH
  00006	a1 00 00 00 00	 mov	 eax, DWORD PTR ___security_cookie
  0000b	33 c5		 xor	 eax, ebp
  0000d	89 45 fc	 mov	 DWORD PTR __$ArrayPad$[ebp], eax
  00010	8b 45 08	 mov	 eax, DWORD PTR _k$[ebp]

; 119  : 		_ENCSTR(k, _k);

  00013	8a 10		 mov	 dl, BYTE PTR [eax]
  00015	56		 push	 esi
  00016	8b f1		 mov	 esi, ecx
  00018	84 d2		 test	 dl, dl
  0001a	0f 84 cf 01 00
	00		 je	 $LN96@LoadInt_e@2
  00020	80 f2 ed	 xor	 dl, -19			; ffffffedH
  00023	88 55 e4	 mov	 BYTE PTR __k$[ebp], dl
  00026	8a 50 01	 mov	 dl, BYTE PTR [eax+1]
  00029	84 d2		 test	 dl, dl
  0002b	0f 84 b8 01 00
	00		 je	 $LN95@LoadInt_e@2
  00031	b1 ec		 mov	 cl, -20			; ffffffecH
  00033	32 d1		 xor	 dl, cl
  00035	88 55 e5	 mov	 BYTE PTR __k$[ebp+1], dl
  00038	8a 50 02	 mov	 dl, BYTE PTR [eax+2]
  0003b	84 d2		 test	 dl, dl
  0003d	0f 84 a0 01 00
	00		 je	 $LN94@LoadInt_e@2
  00043	80 f2 eb	 xor	 dl, -21			; ffffffebH
  00046	88 55 e6	 mov	 BYTE PTR __k$[ebp+2], dl
  00049	8a 50 03	 mov	 dl, BYTE PTR [eax+3]
  0004c	84 d2		 test	 dl, dl
  0004e	0f 84 89 01 00
	00		 je	 $LN93@LoadInt_e@2
  00054	80 f2 ea	 xor	 dl, -22			; ffffffeaH
  00057	88 55 e7	 mov	 BYTE PTR __k$[ebp+3], dl
  0005a	8a 50 04	 mov	 dl, BYTE PTR [eax+4]
  0005d	84 d2		 test	 dl, dl
  0005f	0f 84 72 01 00
	00		 je	 $LN92@LoadInt_e@2
  00065	80 f2 ed	 xor	 dl, -19			; ffffffedH
  00068	88 55 e8	 mov	 BYTE PTR __k$[ebp+4], dl
  0006b	8a 50 05	 mov	 dl, BYTE PTR [eax+5]
  0006e	84 d2		 test	 dl, dl
  00070	0f 84 5c 01 00
	00		 je	 $LN91@LoadInt_e@2
  00076	32 d1		 xor	 dl, cl
  00078	88 55 e9	 mov	 BYTE PTR __k$[ebp+5], dl
  0007b	8a 50 06	 mov	 dl, BYTE PTR [eax+6]
  0007e	84 d2		 test	 dl, dl
  00080	0f 84 46 01 00
	00		 je	 $LN90@LoadInt_e@2
  00086	80 f2 eb	 xor	 dl, -21			; ffffffebH
  00089	88 55 ea	 mov	 BYTE PTR __k$[ebp+6], dl
  0008c	8a 50 07	 mov	 dl, BYTE PTR [eax+7]
  0008f	84 d2		 test	 dl, dl
  00091	0f 84 2f 01 00
	00		 je	 $LN89@LoadInt_e@2
  00097	80 f2 ea	 xor	 dl, -22			; ffffffeaH
  0009a	88 55 eb	 mov	 BYTE PTR __k$[ebp+7], dl
  0009d	8a 50 08	 mov	 dl, BYTE PTR [eax+8]
  000a0	84 d2		 test	 dl, dl
  000a2	0f 84 18 01 00
	00		 je	 $LN88@LoadInt_e@2
  000a8	80 f2 ed	 xor	 dl, -19			; ffffffedH
  000ab	88 55 ec	 mov	 BYTE PTR __k$[ebp+8], dl
  000ae	8a 50 09	 mov	 dl, BYTE PTR [eax+9]
  000b1	84 d2		 test	 dl, dl
  000b3	0f 84 02 01 00
	00		 je	 $LN87@LoadInt_e@2
  000b9	32 d1		 xor	 dl, cl
  000bb	88 55 ed	 mov	 BYTE PTR __k$[ebp+9], dl
  000be	8a 50 0a	 mov	 dl, BYTE PTR [eax+10]
  000c1	84 d2		 test	 dl, dl
  000c3	0f 84 ec 00 00
	00		 je	 $LN86@LoadInt_e@2
  000c9	80 f2 eb	 xor	 dl, -21			; ffffffebH
  000cc	88 55 ee	 mov	 BYTE PTR __k$[ebp+10], dl
  000cf	8a 50 0b	 mov	 dl, BYTE PTR [eax+11]
  000d2	84 d2		 test	 dl, dl
  000d4	0f 84 d5 00 00
	00		 je	 $LN85@LoadInt_e@2
  000da	80 f2 ea	 xor	 dl, -22			; ffffffeaH
  000dd	88 55 ef	 mov	 BYTE PTR __k$[ebp+11], dl
  000e0	8a 50 0c	 mov	 dl, BYTE PTR [eax+12]
  000e3	84 d2		 test	 dl, dl
  000e5	0f 84 be 00 00
	00		 je	 $LN84@LoadInt_e@2
  000eb	80 f2 ed	 xor	 dl, -19			; ffffffedH
  000ee	88 55 f0	 mov	 BYTE PTR __k$[ebp+12], dl
  000f1	8a 50 0d	 mov	 dl, BYTE PTR [eax+13]
  000f4	84 d2		 test	 dl, dl
  000f6	0f 84 a8 00 00
	00		 je	 $LN83@LoadInt_e@2
  000fc	32 d1		 xor	 dl, cl
  000fe	88 55 f1	 mov	 BYTE PTR __k$[ebp+13], dl
  00101	8a 50 0e	 mov	 dl, BYTE PTR [eax+14]
  00104	84 d2		 test	 dl, dl
  00106	0f 84 92 00 00
	00		 je	 $LN82@LoadInt_e@2
  0010c	80 f2 eb	 xor	 dl, -21			; ffffffebH
  0010f	88 55 f2	 mov	 BYTE PTR __k$[ebp+14], dl
  00112	8a 50 0f	 mov	 dl, BYTE PTR [eax+15]
  00115	84 d2		 test	 dl, dl
  00117	74 7f		 je	 SHORT $LN81@LoadInt_e@2
  00119	80 f2 ea	 xor	 dl, -22			; ffffffeaH
  0011c	88 55 f3	 mov	 BYTE PTR __k$[ebp+15], dl
  0011f	8a 50 10	 mov	 dl, BYTE PTR [eax+16]
  00122	84 d2		 test	 dl, dl
  00124	74 6c		 je	 SHORT $LN80@LoadInt_e@2
  00126	80 f2 ed	 xor	 dl, -19			; ffffffedH
  00129	88 55 f4	 mov	 BYTE PTR __k$[ebp+16], dl
  0012c	8a 50 11	 mov	 dl, BYTE PTR [eax+17]
  0012f	84 d2		 test	 dl, dl
  00131	74 5a		 je	 SHORT $LN79@LoadInt_e@2
  00133	32 d1		 xor	 dl, cl
  00135	80 78 12 00	 cmp	 BYTE PTR [eax+18], 0
  00139	88 55 f5	 mov	 BYTE PTR __k$[ebp+17], dl
  0013c	0f 84 b1 00 00
	00		 je	 $LN1@LoadInt_e@2
  00142	8a 50 13	 mov	 dl, BYTE PTR [eax+19]
  00145	84 d2		 test	 dl, dl
  00147	74 3e		 je	 SHORT $LN77@LoadInt_e@2
  00149	80 f2 ea	 xor	 dl, -22			; ffffffeaH
  0014c	88 55 f7	 mov	 BYTE PTR __k$[ebp+19], dl
  0014f	8a 50 14	 mov	 dl, BYTE PTR [eax+20]
  00152	84 d2		 test	 dl, dl
  00154	74 2b		 je	 SHORT $LN76@LoadInt_e@2
  00156	80 f2 ed	 xor	 dl, -19			; ffffffedH
  00159	88 55 f8	 mov	 BYTE PTR __k$[ebp+20], dl
  0015c	8a 50 15	 mov	 dl, BYTE PTR [eax+21]
  0015f	84 d2		 test	 dl, dl
  00161	74 19		 je	 SHORT $LN75@LoadInt_e@2
  00163	8a 40 16	 mov	 al, BYTE PTR [eax+22]
  00166	32 d1		 xor	 dl, cl
  00168	88 55 f9	 mov	 BYTE PTR __k$[ebp+21], dl
  0016b	84 c0		 test	 al, al
  0016d	74 07		 je	 SHORT $LN74@LoadInt_e@2
  0016f	34 eb		 xor	 al, -21			; ffffffebH
  00171	88 45 fa	 mov	 BYTE PTR __k$[ebp+22], al
  00174	eb 7d		 jmp	 SHORT $LN1@LoadInt_e@2
$LN74@LoadInt_e@2:
  00176	c6 45 fa eb	 mov	 BYTE PTR __k$[ebp+22], -21 ; ffffffebH
  0017a	eb 77		 jmp	 SHORT $LN1@LoadInt_e@2
$LN75@LoadInt_e@2:
  0017c	88 4d f9	 mov	 BYTE PTR __k$[ebp+21], cl
  0017f	eb 72		 jmp	 SHORT $LN1@LoadInt_e@2
$LN76@LoadInt_e@2:
  00181	c6 45 f8 ed	 mov	 BYTE PTR __k$[ebp+20], -19 ; ffffffedH
  00185	eb 6c		 jmp	 SHORT $LN1@LoadInt_e@2
$LN77@LoadInt_e@2:
  00187	c6 45 f7 ea	 mov	 BYTE PTR __k$[ebp+19], -22 ; ffffffeaH
  0018b	eb 66		 jmp	 SHORT $LN1@LoadInt_e@2
$LN79@LoadInt_e@2:
  0018d	88 4d f5	 mov	 BYTE PTR __k$[ebp+17], cl
  00190	eb 61		 jmp	 SHORT $LN1@LoadInt_e@2
$LN80@LoadInt_e@2:
  00192	c6 45 f4 ed	 mov	 BYTE PTR __k$[ebp+16], -19 ; ffffffedH
  00196	eb 5b		 jmp	 SHORT $LN1@LoadInt_e@2
$LN81@LoadInt_e@2:
  00198	c6 45 f3 ea	 mov	 BYTE PTR __k$[ebp+15], -22 ; ffffffeaH
  0019c	eb 55		 jmp	 SHORT $LN1@LoadInt_e@2
$LN82@LoadInt_e@2:
  0019e	c6 45 f2 eb	 mov	 BYTE PTR __k$[ebp+14], -21 ; ffffffebH
  001a2	eb 4f		 jmp	 SHORT $LN1@LoadInt_e@2
$LN83@LoadInt_e@2:
  001a4	88 4d f1	 mov	 BYTE PTR __k$[ebp+13], cl
  001a7	eb 4a		 jmp	 SHORT $LN1@LoadInt_e@2
$LN84@LoadInt_e@2:
  001a9	c6 45 f0 ed	 mov	 BYTE PTR __k$[ebp+12], -19 ; ffffffedH
  001ad	eb 44		 jmp	 SHORT $LN1@LoadInt_e@2
$LN85@LoadInt_e@2:
  001af	c6 45 ef ea	 mov	 BYTE PTR __k$[ebp+11], -22 ; ffffffeaH
  001b3	eb 3e		 jmp	 SHORT $LN1@LoadInt_e@2
$LN86@LoadInt_e@2:
  001b5	c6 45 ee eb	 mov	 BYTE PTR __k$[ebp+10], -21 ; ffffffebH
  001b9	eb 38		 jmp	 SHORT $LN1@LoadInt_e@2
$LN87@LoadInt_e@2:
