; Listing generated by Microsoft (R) Optimizing Compiler Version 16.00.30319.01 

	TITLE	D:\Lost Saga For Developer\Youtube\Tutorial\Source\src\LSClient\ioThrowReturnWeapon.cpp
	.686P
	.XMM
	include listing.inc
	.model	flat

INCLUDELIB MSVCRT
INCLUDELIB OLDNAMES

PUBLIC	?_EEM_DS@?$deque@UD3DXVECTOR3@@V?$allocator@UD3DXVECTOR3@@@std@@@std@@2HB ; std::deque<D3DXVECTOR3,std::allocator<D3DXVECTOR3> >::_EEM_DS
PUBLIC	?m_ActionStopType@ioThrowReturnWeapon@@2W4ActionStopType@@A ; ioThrowReturnWeapon::m_ActionStopType
PUBLIC	?m_DieActionStopType@ioThrowReturnWeapon@@2W4ActionStopType@@A ; ioThrowReturnWeapon::m_DieActionStopType
_BSS	SEGMENT
?m_ActionStopType@ioThrowReturnWeapon@@2W4ActionStopType@@A DD 01H DUP (?) ; ioThrowReturnWeapon::m_ActionStopType
?m_DieActionStopType@ioThrowReturnWeapon@@2W4ActionStopType@@A DD 01H DUP (?) ; ioThrowReturnWeapon::m_DieActionStopType
_BSS	ENDS
;	COMDAT ?_EEM_DS@?$deque@UD3DXVECTOR3@@V?$allocator@UD3DXVECTOR3@@@std@@@std@@2HB
CONST	SEGMENT
?_EEM_DS@?$deque@UD3DXVECTOR3@@V?$allocator@UD3DXVECTOR3@@@std@@@std@@2HB DD 01H ; std::deque<D3DXVECTOR3,std::allocator<D3DXVECTOR3> >::_EEM_DS
CONST	ENDS
PUBLIC	?return1@@YAIXZ					; return1
; Function compile flags: /Ogsp
; File d:\lost saga for developer\youtube\tutorial\source\src\lsclient\stdafx.h
;	COMDAT ?return1@@YAIXZ
_TEXT	SEGMENT
?return1@@YAIXZ PROC					; return1, COMDAT

; 17   : 	__forceinline unsigned int return1() { __asm mov eax, 1 };

  00000	b8 01 00 00 00	 mov	 eax, 1
  00005	c3		 ret	 0
?return1@@YAIXZ ENDP					; return1
_TEXT	ENDS
PUBLIC	?return1000@@YAIXZ				; return1000
; Function compile flags: /Ogsp
;	COMDAT ?return1000@@YAIXZ
_TEXT	SEGMENT
?return1000@@YAIXZ PROC					; return1000, COMDAT

; 29   : 	__forceinline unsigned int return1000() { __asm mov eax, 1000 };

  00000	b8 e8 03 00 00	 mov	 eax, 1000		; 000003e8H
  00005	c3		 ret	 0
?return1000@@YAIXZ ENDP					; return1000
_TEXT	ENDS
PUBLIC	??_C@_0DN@HJIPENAM@ioFloatThrowWeapon?3?3?$HOioFloatThro@ ; `string'
PUBLIC	??_7ioThrowReturnWeapon@@6B@			; ioThrowReturnWeapon::`vftable'
PUBLIC	??1ioThrowReturnWeapon@@UAE@XZ			; ioThrowReturnWeapon::~ioThrowReturnWeapon
PUBLIC	??_R4ioThrowReturnWeapon@@6B@			; ioThrowReturnWeapon::`RTTI Complete Object Locator'
PUBLIC	??_R0?AVioThrowReturnWeapon@@@8			; ioThrowReturnWeapon `RTTI Type Descriptor'
PUBLIC	??_R3ioThrowReturnWeapon@@8			; ioThrowReturnWeapon::`RTTI Class Hierarchy Descriptor'
PUBLIC	??_R2ioThrowReturnWeapon@@8			; ioThrowReturnWeapon::`RTTI Base Class Array'
PUBLIC	??_R1A@?0A@EA@ioThrowReturnWeapon@@8		; ioThrowReturnWeapon::`RTTI Base Class Descriptor at (0,-1,0,64)'
PUBLIC	??_R1A@?0A@EA@ioWeapon@@8			; ioWeapon::`RTTI Base Class Descriptor at (0,-1,0,64)'
PUBLIC	??_R0?AVioWeapon@@@8				; ioWeapon `RTTI Type Descriptor'
PUBLIC	??_R3ioWeapon@@8				; ioWeapon::`RTTI Class Hierarchy Descriptor'
PUBLIC	??_R2ioWeapon@@8				; ioWeapon::`RTTI Base Class Array'
PUBLIC	?InitResource@ioThrowReturnWeapon@@UAE_NXZ	; ioThrowReturnWeapon::InitResource
PUBLIC	?DestroyResource@ioThrowReturnWeapon@@UAEXPAVioPlayStage@@@Z ; ioThrowReturnWeapon::DestroyResource
PUBLIC	?LoadProperty@ioThrowReturnWeapon@@UAEXAAVioINILoader@@@Z ; ioThrowReturnWeapon::LoadProperty
PUBLIC	?SetMoveDir@ioThrowReturnWeapon@@UAEXABUD3DXVECTOR3@@@Z ; ioThrowReturnWeapon::SetMoveDir
PUBLIC	?SetStartPosition@ioThrowReturnWeapon@@UAEXABUD3DXVECTOR3@@PAVioPlayStage@@@Z ; ioThrowReturnWeapon::SetStartPosition
PUBLIC	?Process@ioThrowReturnWeapon@@UAEXMPAVioPlayStage@@@Z ; ioThrowReturnWeapon::Process
PUBLIC	?TestMapCollision@ioThrowReturnWeapon@@UAE_NPAVioOpcodeShape@@PAVioPlayStage@@PBUD3DXMATRIX@@@Z ; ioThrowReturnWeapon::TestMapCollision
PUBLIC	?CheckPreCollision@ioThrowReturnWeapon@@UAEXPAVioPlayEntity@@PAVioPlayStage@@@Z ; ioThrowReturnWeapon::CheckPreCollision
PUBLIC	?GetLocalAttackBox@ioThrowReturnWeapon@@UBEABVioOrientBox@@XZ ; ioThrowReturnWeapon::GetLocalAttackBox
PUBLIC	?GetType@ioThrowReturnWeapon@@UBE?AW4WeaponType@ioWeapon@@XZ ; ioThrowReturnWeapon::GetType
PUBLIC	?GetActionStopType@ioThrowReturnWeapon@@UBE?AW4ActionStopType@@XZ ; ioThrowReturnWeapon::GetActionStopType
PUBLIC	?GetDieActionStopType@ioThrowReturnWeapon@@UBE?AW4ActionStopType@@XZ ; ioThrowReturnWeapon::GetDieActionStopType
PUBLIC	?GetAttribute@ioThrowReturnWeapon@@MBEPBUWeaponAttribute@@XZ ; ioThrowReturnWeapon::GetAttribute
EXTRN	??1ioWeapon@@UAE@XZ:PROC			; ioWeapon::~ioWeapon
EXTRN	__imp_??1ioOrientBox@@QAE@XZ:PROC
EXTRN	__imp_?PrintTimeAndLog@CLog@@QAAXHPADZZ:PROC
EXTRN	__imp_?LOG@@3VCLog@@A:BYTE
EXTRN	___CxxFrameHandler3:PROC
EXTRN	@__security_check_cookie@4:PROC
EXTRN	__EH_epilog3:PROC
EXTRN	__EH_prolog3:PROC
EXTRN	??_7type_info@@6B@:QWORD			; type_info::`vftable'
EXTRN	?IsAlreadyCollisioned@ioWeapon@@UAE_NPAVioPlayEntity@@@Z:PROC ; ioWeapon::IsAlreadyCollisioned
EXTRN	?AddCollisionEntity@ioWeapon@@UAEXPAVioPlayEntity@@@Z:PROC ; ioWeapon::AddCollisionEntity
EXTRN	?SetOwnerDamageRate@ioWeapon@@UAEXM@Z:PROC	; ioWeapon::SetOwnerDamageRate
EXTRN	?SetOwnerChargeDamageRate@ioWeapon@@UAEXM@Z:PROC ; ioWeapon::SetOwnerChargeDamageRate
EXTRN	?SetOwnerChargeForceRate@ioWeapon@@UAEXM@Z:PROC	; ioWeapon::SetOwnerChargeForceRate
EXTRN	?SetOwnerChargeRangeRate@ioWeapon@@UAEXM@Z:PROC	; ioWeapon::SetOwnerChargeRangeRate
EXTRN	?SetOwnerChargeSpeedRate@ioWeapon@@UAEXM@Z:PROC	; ioWeapon::SetOwnerChargeSpeedRate
EXTRN	?SetOwnerChargeBlowRate@ioWeapon@@UAEXM@Z:PROC	; ioWeapon::SetOwnerChargeBlowRate
EXTRN	?SetOwnerChargeFloatRate@ioWeapon@@UAEXM@Z:PROC	; ioWeapon::SetOwnerChargeFloatRate
EXTRN	?SetOwnerChargeScaleRate@ioWeapon@@UAEXM@Z:PROC	; ioWeapon::SetOwnerChargeScaleRate
EXTRN	?SetOwnerChargeExplosionRate@ioWeapon@@UAEXM@Z:PROC ; ioWeapon::SetOwnerChargeExplosionRate
EXTRN	?SetOwnerChargeWoundedTimeRate@ioWeapon@@UAEXM@Z:PROC ; ioWeapon::SetOwnerChargeWoundedTimeRate
EXTRN	?SetOwnerChargeLiveTimeRate@ioWeapon@@UAEXM@Z:PROC ; ioWeapon::SetOwnerChargeLiveTimeRate
EXTRN	?SetOwnerChargeBuffLiveTimeRate@ioWeapon@@UAEXM@Z:PROC ; ioWeapon::SetOwnerChargeBuffLiveTimeRate
EXTRN	?SetWeaponIndex@ioWeapon@@UAEXK@Z:PROC		; ioWeapon::SetWeaponIndex
EXTRN	?SetGrapplingTargetName@ioWeapon@@UAEXABVioHashString@@@Z:PROC ; ioWeapon::SetGrapplingTargetName
EXTRN	?SetCreateItem@ioWeapon@@UAEXABVioHashString@@@Z:PROC ; ioWeapon::SetCreateItem
EXTRN	?SetTeam@ioWeapon@@UAEXPAVioPlayStage@@W4TeamType@@@Z:PROC ; ioWeapon::SetTeam
EXTRN	?CallReserveAreaWeapon@ioWeapon@@UAEXXZ:PROC	; ioWeapon::CallReserveAreaWeapon
EXTRN	?SetWeaponDead@ioWeapon@@UAEXXZ:PROC		; ioWeapon::SetWeaponDead
EXTRN	?PlayExplosionSound@ioWeapon@@UAEXXZ:PROC	; ioWeapon::PlayExplosionSound
EXTRN	?PlayWoundedSound@ioWeapon@@UAEXPAVioPlayEntity@@@Z:PROC ; ioWeapon::PlayWoundedSound
EXTRN	?PlayDefensedSound@ioWeapon@@UAEXPAVioPlayEntity@@@Z:PROC ; ioWeapon::PlayDefensedSound
EXTRN	?PlayLoopSound@ioWeapon@@UAEXXZ:PROC		; ioWeapon::PlayLoopSound
EXTRN	?StopLoopSound@ioWeapon@@UAEXXZ:PROC		; ioWeapon::StopLoopSound
EXTRN	?GetTargetAirBuffList@ioWeapon@@UBEABV?$vector@UBuffInfoStruct@@V?$allocator@UBuffInfoStruct@@@std@@@std@@XZ:PROC ; ioWeapon::GetTargetAirBuffList
EXTRN	?GetTargetBuffList@ioWeapon@@UBEABV?$vector@UBuffInfoStruct@@V?$allocator@UBuffInfoStruct@@@std@@@std@@XZ:PROC ; ioWeapon::GetTargetBuffList
EXTRN	?GetTargetDownBuffList@ioWeapon@@UBEABV?$vector@UBuffInfoStruct@@V?$allocator@UBuffInfoStruct@@@std@@@std@@XZ:PROC ; ioWeapon::GetTargetDownBuffList
EXTRN	?GetPosition@ioWeapon@@UBEABUD3DXVECTOR3@@XZ:PROC ; ioWeapon::GetPosition
EXTRN	?GetBlowType@ioWeapon@@UBE?AW4BlowTargetType@@XZ:PROC ; ioWeapon::GetBlowType
EXTRN	?GetPushPower@ioWeapon@@UBEMM@Z:PROC		; ioWeapon::GetPushPower
EXTRN	?GetBlowPower@ioWeapon@@UBEMM@Z:PROC		; ioWeapon::GetBlowPower
EXTRN	?GetAirPushPower@ioWeapon@@UBEMM@Z:PROC		; ioWeapon::GetAirPushPower
EXTRN	?GetAirBlowPower@ioWeapon@@UBEMM@Z:PROC		; ioWeapon::GetAirBlowPower
EXTRN	?GetDefensePushPower@ioWeapon@@UBEMM@Z:PROC	; ioWeapon::GetDefensePushPower
EXTRN	?GetCollisionEnableTime@ioWeapon@@UBEKXZ:PROC	; ioWeapon::GetCollisionEnableTime
EXTRN	?SetSylphid@ioWeapon@@UAEHXZ:PROC		; ioWeapon::SetSylphid
EXTRN	?ApplyExtraReserveWeaponByWeaponInfo@ioWeapon@@UAEXPAV1@@Z:PROC ; ioWeapon::ApplyExtraReserveWeaponByWeaponInfo
EXTRN	?SetResistanceAttr@ioWeapon@@UAEXH@Z:PROC	; ioWeapon::SetResistanceAttr
EXTRN	?SetStartCollisionBox@ioWeapon@@UAEXXZ:PROC	; ioWeapon::SetStartCollisionBox
EXTRN	?SetLiveTime@ioWeapon@@UAEXK@Z:PROC		; ioWeapon::SetLiveTime
EXTRN	?SetMoveSpeed@ioWeapon@@UAEXM@Z:PROC		; ioWeapon::SetMoveSpeed
EXTRN	?SetFloatPower@ioWeapon@@UAEXM@Z:PROC		; ioWeapon::SetFloatPower
EXTRN	?IsCollision@ioWeapon@@UAE_NPAVioPlayEntity@@_N@Z:PROC ; ioWeapon::IsCollision
EXTRN	?CheckStructAndDummy@ioWeapon@@UAEXPAVioPlayEntity@@PAVioPlayStage@@@Z:PROC ; ioWeapon::CheckStructAndDummy
EXTRN	?GetDamage@ioWeapon@@UAEMPAVioPlayEntity@@@Z:PROC ; ioWeapon::GetDamage
EXTRN	?GetBaseDamage@ioWeapon@@UAEMPAVioPlayEntity@@@Z:PROC ; ioWeapon::GetBaseDamage
EXTRN	?GetPushAngle@ioWeapon@@UBEMXZ:PROC		; ioWeapon::GetPushAngle
EXTRN	?IsResistanceMagic@ioWeapon@@UAEHPAVioBaseChar@@@Z:PROC ; ioWeapon::IsResistanceMagic
EXTRN	?IsResistanceBomb@ioWeapon@@UAEHPAVioBaseChar@@@Z:PROC ; ioWeapon::IsResistanceBomb
EXTRN	?IsCanMineExplosion@ioWeapon@@UAE_NXZ:PROC	; ioWeapon::IsCanMineExplosion
EXTRN	?CheckGrapplingState@ioWeapon@@UAE?AW4GrapplingType@@XZ:PROC ; ioWeapon::CheckGrapplingState
EXTRN	?CheckCurAttribute@ioWeapon@@UAEXPBVioPlayEntity@@@Z:PROC ; ioWeapon::CheckCurAttribute
EXTRN	?CheckItemNotDrop@ioWeapon@@UAE_NPAVioBaseChar@@@Z:PROC ; ioWeapon::CheckItemNotDrop
EXTRN	?GetWorldAttackBoxList@ioWeapon@@UAEXAAV?$vector@VioOrientBox@@V?$allocator@VioOrientBox@@@std@@@std@@@Z:PROC ; ioWeapon::GetWorldAttackBoxList
EXTRN	?GetAttackDir@ioWeapon@@UBE?AUD3DXVECTOR3@@PBVioPlayEntity@@@Z:PROC ; ioWeapon::GetAttackDir
EXTRN	?GetLiveTime@ioWeapon@@UAEKXZ:PROC		; ioWeapon::GetLiveTime
EXTRN	?GetMoveDir@ioWeapon@@UAE?AUD3DXVECTOR3@@XZ:PROC ; ioWeapon::GetMoveDir
EXTRN	?CheckWeaponCollision@ioWeapon@@UAEXXZ:PROC	; ioWeapon::CheckWeaponCollision
EXTRN	?GetRefreshDuration@ioWeapon@@UAEKXZ:PROC	; ioWeapon::GetRefreshDuration
EXTRN	?GetIgnoreDuration@ioWeapon@@UAEKXZ:PROC	; ioWeapon::GetIgnoreDuration
EXTRN	?GetIgnoreTimeTypeDuration@ioWeapon@@UAEKXZ:PROC ; ioWeapon::GetIgnoreTimeTypeDuration
EXTRN	?GetIgnoreTimeType@ioWeapon@@UAEKXZ:PROC	; ioWeapon::GetIgnoreTimeType
EXTRN	?ApplyWeaponSync@ioWeapon@@UAEXAAVSP2Packet@@PAVioPlayStage@@@Z:PROC ; ioWeapon::ApplyWeaponSync
EXTRN	?IsSkillDependency@ioWeapon@@UAE_NABVioHashString@@@Z:PROC ; ioWeapon::IsSkillDependency
EXTRN	?SetSkillDependencyAction@ioWeapon@@UAEXXZ:PROC	; ioWeapon::SetSkillDependencyAction
EXTRN	?UpdateWorldAttackBox@ioWeapon@@MAEXM_N@Z:PROC	; ioWeapon::UpdateWorldAttackBox
EXTRN	?CalcFinalDamage@ioWeapon@@MAEMXZ:PROC		; ioWeapon::CalcFinalDamage
EXTRN	?CalcFinalBoundDamage@ioWeapon@@MAEMXZ:PROC	; ioWeapon::CalcFinalBoundDamage
EXTRN	?CheckPiercing@ioWeapon@@MAE_N_N@Z:PROC		; ioWeapon::CheckPiercing
EXTRN	?ClearCollisionList@ioWeapon@@MAEXXZ:PROC	; ioWeapon::ClearCollisionList
EXTRN	?CheckCreateWeaponList@ioWeapon@@MAEXXZ:PROC	; ioWeapon::CheckCreateWeaponList
EXTRN	?CreateCollisionAreaWeapon@ioWeapon@@MAEXXZ:PROC ; ioWeapon::CreateCollisionAreaWeapon
EXTRN	?SetMapCollision@ioWeapon@@UAEXXZ:PROC		; ioWeapon::SetMapCollision
EXTRN	?IsIgnoreMapCollision@ioWeapon@@UBE_NXZ:PROC	; ioWeapon::IsIgnoreMapCollision
EXTRN	?IsIgnoreTestMapCollision@ioWeapon@@UBE_NXZ:PROC ; ioWeapon::IsIgnoreTestMapCollision
EXTRN	?IsIgnoreMapCollisionEffect@ioWeapon@@UBE_NXZ:PROC ; ioWeapon::IsIgnoreMapCollisionEffect
EXTRN	?AddEffectEvent@ioWeapon@@MAEXPAVioEffect@@@Z:PROC ; ioWeapon::AddEffectEvent
EXTRN	??_EioThrowReturnWeapon@@UAEPAXI@Z:PROC		; ioThrowReturnWeapon::`vector deleting destructor'
;	COMDAT ??_R2ioWeapon@@8
; File d:\lost saga for developer\youtube\tutorial\source\src\lsclient\iothrowreturnweapon.cpp
rdata$r	SEGMENT
??_R2ioWeapon@@8 DD FLAT:??_R1A@?0A@EA@ioWeapon@@8	; ioWeapon::`RTTI Base Class Array'
rdata$r	ENDS
;	COMDAT ??_R3ioWeapon@@8
rdata$r	SEGMENT
??_R3ioWeapon@@8 DD 00H					; ioWeapon::`RTTI Class Hierarchy Descriptor'
	DD	00H
	DD	01H
	DD	FLAT:??_R2ioWeapon@@8
rdata$r	ENDS
;	COMDAT ??_R0?AVioWeapon@@@8
_DATA	SEGMENT
??_R0?AVioWeapon@@@8 DD FLAT:??_7type_info@@6B@		; ioWeapon `RTTI Type Descriptor'
	DD	00H
	DB	'.?AVioWeapon@@', 00H
_DATA	ENDS
;	COMDAT ??_R1A@?0A@EA@ioWeapon@@8
rdata$r	SEGMENT
??_R1A@?0A@EA@ioWeapon@@8 DD FLAT:??_R0?AVioWeapon@@@8	; ioWeapon::`RTTI Base Class Descriptor at (0,-1,0,64)'
	DD	00H
	DD	00H
	DD	0ffffffffH
	DD	00H
	DD	040H
	DD	FLAT:??_R3ioWeapon@@8
rdata$r	ENDS
;	COMDAT ??_R1A@?0A@EA@ioThrowReturnWeapon@@8
rdata$r	SEGMENT
??_R1A@?0A@EA@ioThrowReturnWeapon@@8 DD FLAT:??_R0?AVioThrowReturnWeapon@@@8 ; ioThrowReturnWeapon::`RTTI Base Class Descriptor at (0,-1,0,64)'
	DD	01H
	DD	00H
	DD	0ffffffffH
	DD	00H
	DD	040H
	DD	FLAT:??_R3ioThrowReturnWeapon@@8
rdata$r	ENDS
;	COMDAT ??_R2ioThrowReturnWeapon@@8
rdata$r	SEGMENT
??_R2ioThrowReturnWeapon@@8 DD FLAT:??_R1A@?0A@EA@ioThrowReturnWeapon@@8 ; ioThrowReturnWeapon::`RTTI Base Class Array'
	DD	FLAT:??_R1A@?0A@EA@ioWeapon@@8
rdata$r	ENDS
;	COMDAT ??_R3ioThrowReturnWeapon@@8
rdata$r	SEGMENT
??_R3ioThrowReturnWeapon@@8 DD 00H			; ioThrowReturnWeapon::`RTTI Class Hierarchy Descriptor'
	DD	00H
	DD	02H
	DD	FLAT:??_R2ioThrowReturnWeapon@@8
rdata$r	ENDS
;	COMDAT ??_R0?AVioThrowReturnWeapon@@@8
_DATA	SEGMENT
??_R0?AVioThrowReturnWeapon@@@8 DD FLAT:??_7type_info@@6B@ ; ioThrowReturnWeapon `RTTI Type Descriptor'
	DD	00H
	DB	'.?AVioThrowReturnWeapon@@', 00H
_DATA	ENDS
;	COMDAT ??_R4ioThrowReturnWeapon@@6B@
rdata$r	SEGMENT
??_R4ioThrowReturnWeapon@@6B@ DD 00H			; ioThrowReturnWeapon::`RTTI Complete Object Locator'
	DD	00H
	DD	00H
	DD	FLAT:??_R0?AVioThrowReturnWeapon@@@8
	DD	FLAT:??_R3ioThrowReturnWeapon@@8
rdata$r	ENDS
;	COMDAT ??_C@_0DN@HJIPENAM@ioFloatThrowWeapon?3?3?$HOioFloatThro@
CONST	SEGMENT
??_C@_0DN@HJIPENAM@ioFloatThrowWeapon?3?3?$HOioFloatThro@ DB 'ioFloatThro'
	DB	'wWeapon::~ioFloatThrowWeapon - UnReleased Resouce', 00H ; `string'
CONST	ENDS
;	COMDAT ??_7ioThrowReturnWeapon@@6B@
CONST	SEGMENT
??_7ioThrowReturnWeapon@@6B@ DD FLAT:??_R4ioThrowReturnWeapon@@6B@ ; ioThrowReturnWeapon::`vftable'
	DD	FLAT:?IsAlreadyCollisioned@ioWeapon@@UAE_NPAVioPlayEntity@@@Z
	DD	FLAT:?AddCollisionEntity@ioWeapon@@UAEXPAVioPlayEntity@@@Z
	DD	FLAT:?SetOwnerDamageRate@ioWeapon@@UAEXM@Z
	DD	FLAT:?SetOwnerChargeDamageRate@ioWeapon@@UAEXM@Z
	DD	FLAT:?SetOwnerChargeForceRate@ioWeapon@@UAEXM@Z
	DD	FLAT:?SetOwnerChargeRangeRate@ioWeapon@@UAEXM@Z
	DD	FLAT:?SetOwnerChargeSpeedRate@ioWeapon@@UAEXM@Z
	DD	FLAT:?SetOwnerChargeBlowRate@ioWeapon@@UAEXM@Z
	DD	FLAT:?SetOwnerChargeFloatRate@ioWeapon@@UAEXM@Z
	DD	FLAT:?SetOwnerChargeScaleRate@ioWeapon@@UAEXM@Z
	DD	FLAT:?SetOwnerChargeExplosionRate@ioWeapon@@UAEXM@Z
	DD	FLAT:?SetOwnerChargeWoundedTimeRate@ioWeapon@@UAEXM@Z
	DD	FLAT:?SetOwnerChargeLiveTimeRate@ioWeapon@@UAEXM@Z
	DD	FLAT:?SetOwnerChargeBuffLiveTimeRate@ioWeapon@@UAEXM@Z
	DD	FLAT:?SetWeaponIndex@ioWeapon@@UAEXK@Z
	DD	FLAT:?SetGrapplingTargetName@ioWeapon@@UAEXABVioHashString@@@Z
	DD	FLAT:?SetCreateItem@ioWeapon@@UAEXABVioHashString@@@Z
	DD	FLAT:?SetTeam@ioWeapon@@UAEXPAVioPlayStage@@W4TeamType@@@Z
	DD	FLAT:?CallReserveAreaWeapon@ioWeapon@@UAEXXZ
	DD	FLAT:?SetWeaponDead@ioWeapon@@UAEXXZ
	DD	FLAT:?PlayExplosionSound@ioWeapon@@UAEXXZ
	DD	FLAT:?PlayWoundedSound@ioWeapon@@UAEXPAVioPlayEntity@@@Z
	DD	FLAT:?PlayDefensedSound@ioWeapon@@UAEXPAVioPlayEntity@@@Z
	DD	FLAT:?PlayLoopSound@ioWeapon@@UAEXXZ
	DD	FLAT:?StopLoopSound@ioWeapon@@UAEXXZ
	DD	FLAT:?GetTargetAirBuffList@ioWeapon@@UBEABV?$vector@UBuffInfoStruct@@V?$allocator@UBuffInfoStruct@@@std@@@std@@XZ
	DD	FLAT:?GetTargetBuffList@ioWeapon@@UBEABV?$vector@UBuffInfoStruct@@V?$allocator@UBuffInfoStruct@@@std@@@std@@XZ
	DD	FLAT:?GetTargetDownBuffList@ioWeapon@@UBEABV?$vector@UBuffInfoStruct@@V?$allocator@UBuffInfoStruct@@@std@@@std@@XZ
	DD	FLAT:?GetPosition@ioWeapon@@UBEABUD3DXVECTOR3@@XZ
	DD	FLAT:?GetBlowType@ioWeapon@@UBE?AW4BlowTargetType@@XZ
	DD	FLAT:?GetPushPower@ioWeapon@@UBEMM@Z
	DD	FLAT:?GetBlowPower@ioWeapon@@UBEMM@Z
	DD	FLAT:?GetAirPushPower@ioWeapon@@UBEMM@Z
	DD	FLAT:?GetAirBlowPower@ioWeapon@@UBEMM@Z
	DD	FLAT:?GetDefensePushPower@ioWeapon@@UBEMM@Z
	DD	FLAT:?GetCollisionEnableTime@ioWeapon@@UBEKXZ
	DD	FLAT:?SetSylphid@ioWeapon@@UAEHXZ
	DD	FLAT:?ApplyExtraReserveWeaponByWeaponInfo@ioWeapon@@UAEXPAV1@@Z
	DD	FLAT:?InitResource@ioThrowReturnWeapon@@UAE_NXZ
	DD	FLAT:?DestroyResource@ioThrowReturnWeapon@@UAEXPAVioPlayStage@@@Z
	DD	FLAT:?LoadProperty@ioThrowReturnWeapon@@UAEXAAVioINILoader@@@Z
	DD	FLAT:?SetResistanceAttr@ioWeapon@@UAEXH@Z
	DD	FLAT:?SetStartCollisionBox@ioWeapon@@UAEXXZ
	DD	FLAT:?SetLiveTime@ioWeapon@@UAEXK@Z
	DD	FLAT:?SetMoveDir@ioThrowReturnWeapon@@UAEXABUD3DXVECTOR3@@@Z
	DD	FLAT:?SetMoveSpeed@ioWeapon@@UAEXM@Z
	DD	FLAT:?SetFloatPower@ioWeapon@@UAEXM@Z
	DD	FLAT:?SetStartPosition@ioThrowReturnWeapon@@UAEXABUD3DXVECTOR3@@PAVioPlayStage@@@Z
	DD	FLAT:?Process@ioThrowReturnWeapon@@UAEXMPAVioPlayStage@@@Z
	DD	FLAT:?IsCollision@ioWeapon@@UAE_NPAVioPlayEntity@@_N@Z
	DD	FLAT:?TestMapCollision@ioThrowReturnWeapon@@UAE_NPAVioOpcodeShape@@PAVioPlayStage@@PBUD3DXMATRIX@@@Z
	DD	FLAT:?CheckPreCollision@ioThrowReturnWeapon@@UAEXPAVioPlayEntity@@PAVioPlayStage@@@Z
	DD	FLAT:?CheckStructAndDummy@ioWeapon@@UAEXPAVioPlayEntity@@PAVioPlayStage@@@Z
	DD	FLAT:?GetDamage@ioWeapon@@UAEMPAVioPlayEntity@@@Z
	DD	FLAT:?GetBaseDamage@ioWeapon@@UAEMPAVioPlayEntity@@@Z
	DD	FLAT:?GetPushAngle@ioWeapon@@UBEMXZ
	DD	FLAT:?IsResistanceMagic@ioWeapon@@UAEHPAVioBaseChar@@@Z
	DD	FLAT:?IsResistanceBomb@ioWeapon@@UAEHPAVioBaseChar@@@Z
	DD	FLAT:?IsCanMineExplosion@ioWeapon@@UAE_NXZ
	DD	FLAT:?CheckGrapplingState@ioWeapon@@UAE?AW4GrapplingType@@XZ
	DD	FLAT:?CheckCurAttribute@ioWeapon@@UAEXPBVioPlayEntity@@@Z
	DD	FLAT:?CheckItemNotDrop@ioWeapon@@UAE_NPAVioBaseChar@@@Z
	DD	FLAT:?GetWorldAttackBoxList@ioWeapon@@UAEXAAV?$vector@VioOrientBox@@V?$allocator@VioOrientBox@@@std@@@std@@@Z
	DD	FLAT:?GetAttackDir@ioWeapon@@UBE?AUD3DXVECTOR3@@PBVioPlayEntity@@@Z
	DD	FLAT:?GetLocalAttackBox@ioThrowReturnWeapon@@UBEABVioOrientBox@@XZ
	DD	FLAT:?GetLiveTime@ioWeapon@@UAEKXZ
	DD	FLAT:?GetMoveDir@ioWeapon@@UAE?AUD3DXVECTOR3@@XZ
	DD	FLAT:?CheckWeaponCollision@ioWeapon@@UAEXXZ
	DD	FLAT:?GetType@ioThrowReturnWeapon@@UBE?AW4WeaponType@ioWeapon@@XZ
	DD	FLAT:?GetActionStopType@ioThrowReturnWeapon@@UBE?AW4ActionStopType@@XZ
	DD	FLAT:?GetDieActionStopType@ioThrowReturnWeapon@@UBE?AW4ActionStopType@@XZ
	DD	FLAT:?GetRefreshDuration@ioWeapon@@UAEKXZ
	DD	FLAT:?GetIgnoreDuration@ioWeapon@@UAEKXZ
	DD	FLAT:?GetIgnoreTimeTypeDuration@ioWeapon@@UAEKXZ
	DD	FLAT:?GetIgnoreTimeType@ioWeapon@@UAEKXZ
	DD	FLAT:?ApplyWeaponSync@ioWeapon@@UAEXAAVSP2Packet@@PAVioPlayStage@@@Z
	DD	FLAT:?IsSkillDependency@ioWeapon@@UAE_NABVioHashString@@@Z
	DD	FLAT:?SetSkillDependencyAction@ioWeapon@@UAEXXZ
	DD	FLAT:?UpdateWorldAttackBox@ioWeapon@@MAEXM_N@Z
	DD	FLAT:?GetAttribute@ioThrowReturnWeapon@@MBEPBUWeaponAttribute@@XZ
	DD	FLAT:?CalcFinalDamage@ioWeapon@@MAEMXZ
	DD	FLAT:?CalcFinalBoundDamage@ioWeapon@@MAEMXZ
	DD	FLAT:?CheckPiercing@ioWeapon@@MAE_N_N@Z
	DD	FLAT:?ClearCollisionList@ioWeapon@@MAEXXZ
	DD	FLAT:?CheckCreateWeaponList@ioWeapon@@MAEXXZ
	DD	FLAT:?CreateCollisionAreaWeapon@ioWeapon@@MAEXXZ
	DD	FLAT:?SetMapCollision@ioWeapon@@UAEXXZ
	DD	FLAT:?IsIgnoreMapCollision@ioWeapon@@UBE_NXZ
	DD	FLAT:?IsIgnoreTestMapCollision@ioWeapon@@UBE_NXZ
	DD	FLAT:?IsIgnoreMapCollisionEffect@ioWeapon@@UBE_NXZ
	DD	FLAT:?AddEffectEvent@ioWeapon@@MAEXPAVioEffect@@@Z
	DD	FLAT:??_EioThrowReturnWeapon@@UAEPAXI@Z
CONST	ENDS
;	COMDAT xdata$x
xdata$x	SEGMENT
__unwindtable$??1ioThrowReturnWeapon@@UAE@XZ DD 0ffffffffH
	DD	FLAT:__unwindfunclet$??1ioThrowReturnWeapon@@UAE@XZ$0
	DD	00H
	DD	FLAT:__unwindfunclet$??1ioThrowReturnWeapon@@UAE@XZ$1
__ehfuncinfo$??1ioThrowReturnWeapon@@UAE@XZ DD 019930522H
	DD	02H
	DD	FLAT:__unwindtable$??1ioThrowReturnWeapon@@UAE@XZ
	DD	2 DUP(00H)
	DD	2 DUP(00H)
	DD	00H
	DD	01H
; Function compile flags: /Ogsp
xdata$x	ENDS
;	COMDAT ??1ioThrowReturnWeapon@@UAE@XZ
_TEXT	SEGMENT
_this$ = -16						; size = 4
__$EHRec$ = -12						; size = 12
??1ioThrowReturnWeapon@@UAE@XZ PROC			; ioThrowReturnWeapon::~ioThrowReturnWeapon, COMDAT
; _this$ = ecx

; 27   : {

  00000	6a 04		 push	 4
  00002	b8 00 00 00 00	 mov	 eax, __ehhandler$??1ioThrowReturnWeapon@@UAE@XZ
  00007	e8 00 00 00 00	 call	 __EH_prolog3
  0000c	8b f1		 mov	 esi, ecx
  0000e	89 75 f0	 mov	 DWORD PTR _this$[ebp], esi
  00011	c7 06 00 00 00
	00		 mov	 DWORD PTR [esi], OFFSET ??_7ioThrowReturnWeapon@@6B@

; 28   : 	if( m_pThrowMesh )

  00017	83 be 98 08 00
	00 00		 cmp	 DWORD PTR [esi+2200], 0
  0001e	c7 45 fc 01 00
	00 00		 mov	 DWORD PTR __$EHRec$[ebp+8], 1
  00025	74 16		 je	 SHORT $LN1@ioThrowRet

; 29   : 	{
; 30   : 		LOG.PrintTimeAndLog( 0, "ioFloatThrowWeapon::~ioFloatThrowWeapon - UnReleased Resouce" );

  00027	68 00 00 00 00	 push	 OFFSET ??_C@_0DN@HJIPENAM@ioFloatThrowWeapon?3?3?$HOioFloatThro@
  0002c	6a 00		 push	 0
  0002e	ff 35 00 00 00
	00		 push	 DWORD PTR __imp_?LOG@@3VCLog@@A
  00034	ff 15 00 00 00
	00		 call	 DWORD PTR __imp_?PrintTimeAndLog@CLog@@QAAXHPADZZ
  0003a	83 c4 0c	 add	 esp, 12			; 0000000cH
$LN1@ioThrowRet:

; 31   : 	}
; 32   : }

  0003d	8d 8e c4 08 00
	00		 lea	 ecx, DWORD PTR [esi+2244]
  00043	c6 45 fc 00	 mov	 BYTE PTR __$EHRec$[ebp+8], 0
  00047	ff 15 00 00 00
	00		 call	 DWORD PTR __imp_??1ioOrientBox@@QAE@XZ
  0004d	83 4d fc ff	 or	 DWORD PTR __$EHRec$[ebp+8], -1
  00051	8b ce		 mov	 ecx, esi
  00053	e8 00 00 00 00	 call	 ??1ioWeapon@@UAE@XZ	; ioWeapon::~ioWeapon
  00058	e8 00 00 00 00	 call	 __EH_epilog3
  0005d	c3		 ret	 0
_TEXT	ENDS
;	COMDAT text$x
text$x	SEGMENT
__unwindfunclet$??1ioThrowReturnWeapon@@UAE@XZ$0:
  00000	8b 4d f0	 mov	 ecx, DWORD PTR _this$[ebp]
  00003	e9 00 00 00 00	 jmp	 ??1ioWeapon@@UAE@XZ	; ioWeapon::~ioWeapon
__unwindfunclet$??1ioThrowReturnWeapon@@UAE@XZ$1:
  00008	8b 4d f0	 mov	 ecx, DWORD PTR _this$[ebp]
  0000b	81 c1 c4 08 00
	00		 add	 ecx, 2244		; 000008c4H
  00011	ff 25 00 00 00
	00		 jmp	 DWORD PTR __imp_??1ioOrientBox@@QAE@XZ
__ehhandler$??1ioThrowReturnWeapon@@UAE@XZ:
  00017	8b 54 24 08	 mov	 edx, DWORD PTR [esp+8]
  0001b	8d 42 0c	 lea	 eax, DWORD PTR [edx+12]
  0001e	8b 4a ec	 mov	 ecx, DWORD PTR [edx-20]
  00021	33 c8		 xor	 ecx, eax
  00023	e8 00 00 00 00	 call	 @__security_check_cookie@4
  00028	b8 00 00 00 00	 mov	 eax, OFFSET __ehfuncinfo$??1ioThrowReturnWeapon@@UAE@XZ
  0002d	e9 00 00 00 00	 jmp	 ___CxxFrameHandler3
text$x	ENDS
??1ioThrowReturnWeapon@@UAE@XZ ENDP			; ioThrowReturnWeapon::~ioThrowReturnWeapon
EXTRN	__imp_?DestroyEffect@ioEffectFactory@@QAEXPAVioEffect@@@Z:PROC
EXTRN	__imp_?GetSingleton@ioEffectFactory@@SAAAV1@XZ:PROC
; Function compile flags: /Ogsp
;	COMDAT ?DestroyResource@ioThrowReturnWeapon@@UAEXPAVioPlayStage@@@Z
_TEXT	SEGMENT
_pStage$ = 8						; size = 4
?DestroyResource@ioThrowReturnWeapon@@UAEXPAVioPlayStage@@@Z PROC ; ioThrowReturnWeapon::DestroyResource, COMDAT
; _this$ = ecx

; 81   : {

  00000	56		 push	 esi

; 82   : 	if( m_pThrowMesh )

  00001	8d b1 98 08 00
	00		 lea	 esi, DWORD PTR [ecx+2200]
  00007	8b 06		 mov	 eax, DWORD PTR [esi]
  00009	85 c0		 test	 eax, eax
  0000b	74 12		 je	 SHORT $LN1@DestroyRes

; 83   : 	{
; 84   : 		g_EffectFactory.DestroyEffect( m_pThrowMesh );

  0000d	50		 push	 eax
  0000e	ff 15 00 00 00
	00		 call	 DWORD PTR __imp_?GetSingleton@ioEffectFactory@@SAAAV1@XZ
  00014	8b c8		 mov	 ecx, eax
  00016	ff 15 00 00 00
	00		 call	 DWORD PTR __imp_?DestroyEffect@ioEffectFactory@@QAEXPAVioEffect@@@Z

; 85   : 		m_pThrowMesh = NULL;

  0001c	83 26 00	 and	 DWORD PTR [esi], 0
$LN1@DestroyRes:
  0001f	5e		 pop	 esi

; 86   : 	}
; 87   : }

  00020	c2 04 00	 ret	 4
?DestroyResource@ioThrowReturnWeapon@@UAEXPAVioPlayStage@@@Z ENDP ; ioThrowReturnWeapon::DestroyResource
_TEXT	ENDS
EXTRN	?SetPosition@ioWeapon@@QAEXABUD3DXVECTOR3@@@Z:PROC ; ioWeapon::SetPosition
; Function compile flags: /Ogsp
;	COMDAT ?SetStartPosition@ioThrowReturnWeapon@@UAEXABUD3DXVECTOR3@@PAVioPlayStage@@@Z
_TEXT	SEGMENT
_vPos$ = 8						; size = 4
_pStage$ = 12						; size = 4
?SetStartPosition@ioThrowReturnWeapon@@UAEXABUD3DXVECTOR3@@PAVioPlayStage@@@Z PROC ; ioThrowReturnWeapon::SetStartPosition, COMDAT
; _this$ = ecx

; 97   : {

  00000	55		 push	 ebp
  00001	8b ec		 mov	 ebp, esp

; 98   : 	SetPosition( vPos );

  00003	ff 75 08	 push	 DWORD PTR _vPos$[ebp]
  00006	e8 00 00 00 00	 call	 ?SetPosition@ioWeapon@@QAEXABUD3DXVECTOR3@@@Z ; ioWeapon::SetPosition

; 99   : }

  0000b	5d		 pop	 ebp
  0000c	c2 08 00	 ret	 8
?SetStartPosition@ioThrowReturnWeapon@@UAEXABUD3DXVECTOR3@@PAVioPlayStage@@@Z ENDP ; ioThrowReturnWeapon::SetStartPosition
_TEXT	ENDS
PUBLIC	?SetReturnWay@ioThrowReturnWeapon@@QAEXXZ	; ioThrowReturnWeapon::SetReturnWay
EXTRN	__imp_?GetLoopSec@ioFrameTimer@@QBEKXZ:PROC
EXTRN	__imp_?GetSingleton@ioFrameTimer@@SAAAV1@XZ:PROC
; Function compile flags: /Ogsp
;	COMDAT ?SetReturnWay@ioThrowReturnWeapon@@QAEXXZ
_TEXT	SEGMENT
?SetReturnWay@ioThrowReturnWeapon@@QAEXXZ PROC		; ioThrowReturnWeapon::SetReturnWay, COMDAT
; _this$ = ecx

; 126  : {

  00000	56		 push	 esi
  00001	8b f1		 mov	 esi, ecx

; 127  : 	if( m_ReturnState == TRS_NONE )

  00003	83 be 08 09 00
	00 00		 cmp	 DWORD PTR [esi+2312], 0
  0000a	75 1e		 jne	 SHORT $LN1@SetReturnW

; 128  : 	{
; 129  : 		m_ReturnState = TRS_RETRUN;

  0000c	c7 86 08 09 00
	00 01 00 00 00	 mov	 DWORD PTR [esi+2312], 1

; 130  : 		m_dwStartReturnTime = FRAMEGETTIME();

  00016	ff 15 00 00 00
	00		 call	 DWORD PTR __imp_?GetSingleton@ioFrameTimer@@SAAAV1@XZ
  0001c	8b c8		 mov	 ecx, eax
  0001e	ff 15 00 00 00
	00		 call	 DWORD PTR __imp_?GetLoopSec@ioFrameTimer@@QBEKXZ
  00024	89 86 b8 08 00
	00		 mov	 DWORD PTR [esi+2232], eax
$LN1@SetReturnW:
  0002a	5e		 pop	 esi

; 131  : 	}
; 132  : }

  0002b	c3		 ret	 0
?SetReturnWay@ioThrowReturnWeapon@@QAEXXZ ENDP		; ioThrowReturnWeapon::SetReturnWay
_TEXT	ENDS
EXTRN	?CreateMapEffect@ioPlayStage@@QAEPAVioMapEffect@@ABVioHashString@@ABUD3DXVECTOR3@@1@Z:PROC ; ioPlayStage::CreateMapEffect
EXTRN	?GetExplosionEffectName@ioWeapon@@QBEABVioHashString@@XZ:PROC ; ioWeapon::GetExplosionEffectName
EXTRN	__imp_?GetCenter@ioOrientBox@@QBEABUD3DXVECTOR3@@XZ:PROC
EXTRN	?GetScale@ioWeapon@@QBEABUD3DXVECTOR3@@XZ:PROC	; ioWeapon::GetScale
EXTRN	?GetWorldAttackBox@ioWeapon@@QBEABVioOrientBox@@_N@Z:PROC ; ioWeapon::GetWorldAttackBox
; Function compile flags: /Ogsp
;	COMDAT ?TestMapCollision@ioThrowReturnWeapon@@UAE_NPAVioOpcodeShape@@PAVioPlayStage@@PBUD3DXMATRIX@@@Z
_TEXT	SEGMENT
_pShape$ = 8						; size = 4
_pStage$ = 12						; size = 4
_pShapeWorldMat$ = 16					; size = 4
?TestMapCollision@ioThrowReturnWeapon@@UAE_NPAVioOpcodeShape@@PAVioPlayStage@@PBUD3DXMATRIX@@@Z PROC ; ioThrowReturnWeapon::TestMapCollision, COMDAT
; _this$ = ecx

; 178  : {

  00000	55		 push	 ebp
  00001	8b ec		 mov	 ebp, esp
  00003	56		 push	 esi
  00004	57		 push	 edi

; 179  : 	//pShape에 대한 맵 충돌 검사를 중지 하고자 할때 TRUE
; 180  : 	//일반 모드의 경우 월드 메쉬가 1개이지만 하우징시스템의 경우 N개 이기 때문에 TestMapCollision() 함수가 여러번 호출됨
; 181  : 	// 
; 182  : 	const ioOrientBox &rkAttackBox = GetWorldAttackBox( true );

  00005	6a 01		 push	 1
  00007	8b f1		 mov	 esi, ecx
  00009	e8 00 00 00 00	 call	 ?GetWorldAttackBox@ioWeapon@@QBEABVioOrientBox@@_N@Z ; ioWeapon::GetWorldAttackBox

; 183  : 	if( pShape->TestIntersection( pShapeWorldMat, rkAttackBox ) )

  0000e	8b 4d 08	 mov	 ecx, DWORD PTR _pShape$[ebp]
  00011	8b f8		 mov	 edi, eax
  00013	8b 01		 mov	 eax, DWORD PTR [ecx]
  00015	57		 push	 edi
  00016	ff 75 10	 push	 DWORD PTR _pShapeWorldMat$[ebp]
  00019	ff 50 24	 call	 DWORD PTR [eax+36]
  0001c	84 c0		 test	 al, al
  0001e	74 35		 je	 SHORT $LN1@TestMapCol

; 184  : 	{
; 185  : 		pStage->CreateMapEffect( GetExplosionEffectName(), rkAttackBox.GetCenter(), GetScale() );

  00020	8b ce		 mov	 ecx, esi
  00022	e8 00 00 00 00	 call	 ?GetScale@ioWeapon@@QBEABUD3DXVECTOR3@@XZ ; ioWeapon::GetScale
  00027	50		 push	 eax
  00028	8b cf		 mov	 ecx, edi
  0002a	ff 15 00 00 00
	00		 call	 DWORD PTR __imp_?GetCenter@ioOrientBox@@QBEABUD3DXVECTOR3@@XZ
  00030	50		 push	 eax
  00031	8b ce		 mov	 ecx, esi
  00033	e8 00 00 00 00	 call	 ?GetExplosionEffectName@ioWeapon@@QBEABVioHashString@@XZ ; ioWeapon::GetExplosionEffectName
  00038	8b 4d 0c	 mov	 ecx, DWORD PTR _pStage$[ebp]
  0003b	50		 push	 eax
  0003c	e8 00 00 00 00	 call	 ?CreateMapEffect@ioPlayStage@@QAEPAVioMapEffect@@ABVioHashString@@ABUD3DXVECTOR3@@1@Z ; ioPlayStage::CreateMapEffect

; 186  : 
; 187  : 		PlayWoundedSound( NULL );

  00041	8b 06		 mov	 eax, DWORD PTR [esi]
  00043	6a 00		 push	 0
  00045	8b ce		 mov	 ecx, esi
  00047	ff 50 54	 call	 DWORD PTR [eax+84]

; 188  : 		SetReturnWay();

  0004a	8b ce		 mov	 ecx, esi
  0004c	e8 00 00 00 00	 call	 ?SetReturnWay@ioThrowReturnWeapon@@QAEXXZ ; ioThrowReturnWeapon::SetReturnWay

; 189  : 		return true;

  00051	b0 01		 mov	 al, 1
  00053	eb 02		 jmp	 SHORT $LN2@TestMapCol
$LN1@TestMapCol:

; 190  : 	}
; 191  : 
; 192  : 	return false;

  00055	32 c0		 xor	 al, al
$LN2@TestMapCol:
  00057	5f		 pop	 edi
  00058	5e		 pop	 esi

; 193  : }

  00059	5d		 pop	 ebp
  0005a	c2 0c 00	 ret	 12			; 0000000cH
?TestMapCollision@ioThrowReturnWeapon@@UAE_NPAVioOpcodeShape@@PAVioPlayStage@@PBUD3DXMATRIX@@@Z ENDP ; ioThrowReturnWeapon::TestMapCollision
_TEXT	ENDS
EXTRN	?GetLocalAttackBox@ioWeapon@@UBEABVioOrientBox@@XZ:PROC ; ioWeapon::GetLocalAttackBox
EXTRN	__imp_?GetCollisionBox@ioEffect@@QBEABVioOrientBox@@XZ:PROC
; Function compile flags: /Ogsp
;	COMDAT ?GetLocalAttackBox@ioThrowReturnWeapon@@UBEABVioOrientBox@@XZ
_TEXT	SEGMENT
?GetLocalAttackBox@ioThrowReturnWeapon@@UBEABVioOrientBox@@XZ PROC ; ioThrowReturnWeapon::GetLocalAttackBox, COMDAT
; _this$ = ecx

; 252  : 	if( m_pThrowMesh )

  00000	8b 81 98 08 00
	00		 mov	 eax, DWORD PTR [ecx+2200]
  00006	85 c0		 test	 eax, eax
  00008	74 08		 je	 SHORT $LN1@GetLocalAt

; 253  : 		return m_pThrowMesh->GetCollisionBox();

  0000a	8b c8		 mov	 ecx, eax
  0000c	ff 25 00 00 00
	00		 jmp	 DWORD PTR __imp_?GetCollisionBox@ioEffect@@QBEABVioOrientBox@@XZ
$LN1@GetLocalAt:

; 254  : 
; 255  : 	return ioWeapon::GetLocalAttackBox();

  00012	e9 00 00 00 00	 jmp	 ?GetLocalAttackBox@ioWeapon@@UBEABVioOrientBox@@XZ ; ioWeapon::GetLocalAttackBox
?GetLocalAttackBox@ioThrowReturnWeapon@@UBEABVioOrientBox@@XZ ENDP ; ioThrowReturnWeapon::GetLocalAttackBox
; Function compile flags: /Ogsp
_TEXT	ENDS
;	COMDAT ?GetType@ioThrowReturnWeapon@@UBE?AW4WeaponType@ioWeapon@@XZ
_TEXT	SEGMENT
?GetType@ioThrowReturnWeapon@@UBE?AW4WeaponType@ioWeapon@@XZ PROC ; ioThrowReturnWeapon::GetType, COMDAT
; _this$ = ecx

; 260  : 	return WT_THROW_RETURN;

  00000	6a 0f		 push	 15			; 0000000fH
  00002	58		 pop	 eax

; 261  : }

  00003	c3		 ret	 0
?GetType@ioThrowReturnWeapon@@UBE?AW4WeaponType@ioWeapon@@XZ ENDP ; ioThrowReturnWeapon::GetType
; Function compile flags: /Ogsp
_TEXT	ENDS
;	COMDAT ?GetActionStopType@ioThrowReturnWeapon@@UBE?AW4ActionStopType@@XZ
_TEXT	SEGMENT
?GetActionStopType@ioThrowReturnWeapon@@UBE?AW4ActionStopType@@XZ PROC ; ioThrowReturnWeapon::GetActionStopType, COMDAT
; _this$ = ecx

; 265  : 	return m_ActionStopType;

  00000	a1 00 00 00 00	 mov	 eax, DWORD PTR ?m_ActionStopType@ioThrowReturnWeapon@@2W4ActionStopType@@A ; ioThrowReturnWeapon::m_ActionStopType

; 266  : }

  00005	c3		 ret	 0
?GetActionStopType@ioThrowReturnWeapon@@UBE?AW4ActionStopType@@XZ ENDP ; ioThrowReturnWeapon::GetActionStopType
; Function compile flags: /Ogsp
_TEXT	ENDS
;	COMDAT ?GetDieActionStopType@ioThrowReturnWeapon@@UBE?AW4ActionStopType@@XZ
_TEXT	SEGMENT
?GetDieActionStopType@ioThrowReturnWeapon@@UBE?AW4ActionStopType@@XZ PROC ; ioThrowReturnWeapon::GetDieActionStopType, COMDAT
; _this$ = ecx

; 270  : 	return m_DieActionStopType;

  00000	a1 00 00 00 00	 mov	 eax, DWORD PTR ?m_DieActionStopType@ioThrowReturnWeapon@@2W4ActionStopType@@A ; ioThrowReturnWeapon::m_DieActionStopType

; 271  : }

  00005	c3		 ret	 0
?GetDieActionStopType@ioThrowReturnWeapon@@UBE?AW4ActionStopType@@XZ ENDP ; ioThrowReturnWeapon::GetDieActionStopType
_TEXT	ENDS
PUBLIC	?GetMoveSpeed@ioThrowReturnWeapon@@QAEMXZ	; ioThrowReturnWeapon::GetMoveSpeed
EXTRN	__fltused:DWORD
; Function compile flags: /Ogsp
;	COMDAT ?GetMoveSpeed@ioThrowReturnWeapon@@QAEMXZ
_TEXT	SEGMENT
?GetMoveSpeed@ioThrowReturnWeapon@@QAEMXZ PROC		; ioThrowReturnWeapon::GetMoveSpeed, COMDAT
; _this$ = ecx

; 275  : 	return GetAttribute()->m_fMoveSpeed;

  00000	8b 01		 mov	 eax, DWORD PTR [ecx]
  00002	ff 90 3c 01 00
	00		 call	 DWORD PTR [eax+316]
  00008	d9 80 98 01 00
	00		 fld	 DWORD PTR [eax+408]

; 276  : }

  0000e	c3		 ret	 0
?GetMoveSpeed@ioThrowReturnWeapon@@QAEMXZ ENDP		; ioThrowReturnWeapon::GetMoveSpeed
_TEXT	ENDS
PUBLIC	?SetSecondAttribute@ioThrowReturnWeapon@@QAEXH@Z ; ioThrowReturnWeapon::SetSecondAttribute
EXTRN	?FindAttribute@ioWeaponManager@@QAEPBUWeaponAttribute@@H@Z:PROC ; ioWeaponManager::FindAttribute
EXTRN	?GetSingleton@ioWeaponManager@@SAAAV1@XZ:PROC	; ioWeaponManager::GetSingleton
; Function compile flags: /Ogsp
;	COMDAT ?SetSecondAttribute@ioThrowReturnWeapon@@QAEXH@Z
_TEXT	SEGMENT
_iAttributeIdx$ = 8					; size = 4
?SetSecondAttribute@ioThrowReturnWeapon@@QAEXH@Z PROC	; ioThrowReturnWeapon::SetSecondAttribute, COMDAT
; _this$ = ecx

; 279  : {

  00000	55		 push	 ebp
  00001	8b ec		 mov	 ebp, esp

; 280  : 	if( iAttributeIdx == 0 ) return;

  00003	83 7d 08 00	 cmp	 DWORD PTR _iAttributeIdx$[ebp], 0
  00007	56		 push	 esi
  00008	8b f1		 mov	 esi, ecx
  0000a	74 15		 je	 SHORT $LN2@SetSecondA

; 281  : 
; 282  : 	m_pSecondAttr = g_WeaponMgr.FindAttribute( iAttributeIdx );

  0000c	ff 75 08	 push	 DWORD PTR _iAttributeIdx$[ebp]
  0000f	e8 00 00 00 00	 call	 ?GetSingleton@ioWeaponManager@@SAAAV1@XZ ; ioWeaponManager::GetSingleton
  00014	8b c8		 mov	 ecx, eax
  00016	e8 00 00 00 00	 call	 ?FindAttribute@ioWeaponManager@@QAEPBUWeaponAttribute@@H@Z ; ioWeaponManager::FindAttribute
  0001b	89 86 94 08 00
	00		 mov	 DWORD PTR [esi+2196], eax
$LN2@SetSecondA:
  00021	5e		 pop	 esi

; 283  : }

  00022	5d		 pop	 ebp
  00023	c2 04 00	 ret	 4
?SetSecondAttribute@ioThrowReturnWeapon@@QAEXH@Z ENDP	; ioThrowReturnWeapon::SetSecondAttribute
; Function compile flags: /Ogsp
_TEXT	ENDS
;	COMDAT ?GetAttribute@ioThrowReturnWeapon@@MBEPBUWeaponAttribute@@XZ
_TEXT	SEGMENT
?GetAttribute@ioThrowReturnWeapon@@MBEPBUWeaponAttribute@@XZ PROC ; ioThrowReturnWeapon::GetAttribute, COMDAT
; _this$ = ecx

; 287  : 	if( !m_pSecondAttr )

  00000	8b 81 94 08 00
	00		 mov	 eax, DWORD PTR [ecx+2196]
  00006	85 c0		 test	 eax, eax

; 288  : 		return m_pConstAttr;

  00008	74 09		 je	 SHORT $LN1@GetAttribu

; 289  : 
; 290  : 	if( m_ReturnState == TRS_RETRUN )

  0000a	83 b9 08 09 00
	00 01		 cmp	 DWORD PTR [ecx+2312], 1

; 291  : 		return m_pSecondAttr;

  00011	74 03		 je	 SHORT $LN3@GetAttribu
$LN1@GetAttribu:

; 292  : 
; 293  : 	return m_pConstAttr;

  00013	8b 41 08	 mov	 eax, DWORD PTR [ecx+8]
$LN3@GetAttribu:

; 294  : }

  00016	c3		 ret	 0
?GetAttribute@ioThrowReturnWeapon@@MBEPBUWeaponAttribute@@XZ ENDP ; ioThrowReturnWeapon::GetAttribute
_TEXT	ENDS
PUBLIC	__real@3f91df46a2526c7a
PUBLIC	??$DEGtoRAD@M@@YAMM@Z				; DEGtoRAD<float>
;	COMDAT __real@3f91df46a2526c7a
; File d:\lost saga for developer\youtube\tutorial\source\src\lsclient\veryoftenusedefine.h
CONST	SEGMENT
__real@3f91df46a2526c7a DQ 03f91df46a2526c7ar	; 0.0174533
; Function compile flags: /Ogsp
CONST	ENDS
;	COMDAT ??$DEGtoRAD@M@@YAMM@Z
_TEXT	SEGMENT
tv129 = 8						; size = 4
_val$ = 8						; size = 4
??$DEGtoRAD@M@@YAMM@Z PROC				; DEGtoRAD<float>, COMDAT

; 20   : type  DEGtoRAD (type val) {return (type) (val * 0.0174532925199);}

  00000	55		 push	 ebp
  00001	8b ec		 mov	 ebp, esp
  00003	d9 45 08	 fld	 DWORD PTR _val$[ebp]
  00006	dc 0d 00 00 00
	00		 fmul	 QWORD PTR __real@3f91df46a2526c7a
  0000c	d9 5d 08	 fstp	 DWORD PTR tv129[ebp]
  0000f	d9 45 08	 fld	 DWORD PTR tv129[ebp]
  00012	5d		 pop	 ebp
  00013	c3		 ret	 0
??$DEGtoRAD@M@@YAMM@Z ENDP				; DEGtoRAD<float>
_TEXT	ENDS
PUBLIC	??0D3DXVECTOR3@@QAE@XZ				; D3DXVECTOR3::D3DXVECTOR3
; Function compile flags: /Ogsp
; File c:\program files (x86)\microsoft directx sdk (june 2010)\include\d3dx9math.h
;	COMDAT ??0D3DXVECTOR3@@QAE@XZ
_TEXT	SEGMENT
??0D3DXVECTOR3@@QAE@XZ PROC				; D3DXVECTOR3::D3DXVECTOR3, COMDAT
; _this$ = ecx

; 165  :     D3DXVECTOR3() {};

  00000	8b c1		 mov	 eax, ecx
  00002	c3		 ret	 0
??0D3DXVECTOR3@@QAE@XZ ENDP				; D3DXVECTOR3::D3DXVECTOR3
_TEXT	ENDS
PUBLIC	??0D3DXQUATERNION@@QAE@XZ			; D3DXQUATERNION::D3DXQUATERNION
; Function compile flags: /Ogsp
;	COMDAT ??0D3DXQUATERNION@@QAE@XZ
_TEXT	SEGMENT
??0D3DXQUATERNION@@QAE@XZ PROC				; D3DXQUATERNION::D3DXQUATERNION, COMDAT
; _this$ = ecx

; 429  :     D3DXQUATERNION() {}

  00000	8b c1		 mov	 eax, ecx
  00002	c3		 ret	 0
??0D3DXQUATERNION@@QAE@XZ ENDP				; D3DXQUATERNION::D3DXQUATERNION
_TEXT	ENDS
PUBLIC	??0D3DXVECTOR3@@QAE@MMM@Z			; D3DXVECTOR3::D3DXVECTOR3
; Function compile flags: /Ogsp
; File c:\program files (x86)\microsoft directx sdk (june 2010)\include\d3dx9math.inl
;	COMDAT ??0D3DXVECTOR3@@QAE@MMM@Z
_TEXT	SEGMENT
_fx$ = 8						; size = 4
_fy$ = 12						; size = 4
_fz$ = 16						; size = 4
??0D3DXVECTOR3@@QAE@MMM@Z PROC				; D3DXVECTOR3::D3DXVECTOR3, COMDAT
; _this$ = ecx

; 303  : {

  00000	55		 push	 ebp
  00001	8b ec		 mov	 ebp, esp

; 304  :     x = fx;

  00003	f3 0f 10 45 08	 movss	 xmm0, DWORD PTR _fx$[ebp]
  00008	8b c1		 mov	 eax, ecx
  0000a	f3 0f 11 00	 movss	 DWORD PTR [eax], xmm0

; 305  :     y = fy;

  0000e	f3 0f 10 45 0c	 movss	 xmm0, DWORD PTR _fy$[ebp]
  00013	f3 0f 11 40 04	 movss	 DWORD PTR [eax+4], xmm0

; 306  :     z = fz;

  00018	f3 0f 10 45 10	 movss	 xmm0, DWORD PTR _fz$[ebp]
  0001d	f3 0f 11 40 08	 movss	 DWORD PTR [eax+8], xmm0

; 307  : }

  00022	5d		 pop	 ebp
  00023	c2 0c 00	 ret	 12			; 0000000cH
??0D3DXVECTOR3@@QAE@MMM@Z ENDP				; D3DXVECTOR3::D3DXVECTOR3
_TEXT	ENDS
PUBLIC	__mask@@NegFloat@
PUBLIC	??GD3DXVECTOR3@@QBE?AU0@XZ			; D3DXVECTOR3::operator-
;	COMDAT __mask@@NegFloat@
CONST	SEGMENT
__mask@@NegFloat@ DB 00H, 00H, 00H, 080H, 00H, 00H, 00H, 080H, 00H, 00H, 00H
	DB	080H, 00H, 00H, 00H, 080H
; Function compile flags: /Ogsp
CONST	ENDS
;	COMDAT ??GD3DXVECTOR3@@QBE?AU0@XZ
_TEXT	SEGMENT
___$ReturnUdt$ = 8					; size = 4
??GD3DXVECTOR3@@QBE?AU0@XZ PROC				; D3DXVECTOR3::operator-, COMDAT
; _this$ = ecx

; 372  : {

  00000	55		 push	 ebp
  00001	8b ec		 mov	 ebp, esp

; 373  :     return D3DXVECTOR3(-x, -y, -z);

  00003	f3 0f 10 05 00
	00 00 00	 movss	 xmm0, DWORD PTR __mask@@NegFloat@
  0000b	8b 45 08	 mov	 eax, DWORD PTR ___$ReturnUdt$[ebp]
  0000e	f3 0f 10 09	 movss	 xmm1, DWORD PTR [ecx]
  00012	0f 57 c8	 xorps	 xmm1, xmm0
  00015	f3 0f 11 08	 movss	 DWORD PTR [eax], xmm1
  00019	f3 0f 10 49 04	 movss	 xmm1, DWORD PTR [ecx+4]
  0001e	0f 57 c8	 xorps	 xmm1, xmm0
  00021	f3 0f 11 48 04	 movss	 DWORD PTR [eax+4], xmm1
  00026	f3 0f 10 49 08	 movss	 xmm1, DWORD PTR [ecx+8]
  0002b	0f 57 c8	 xorps	 xmm1, xmm0
  0002e	f3 0f 11 48 08	 movss	 DWORD PTR [eax+8], xmm1

; 374  : }

  00033	5d		 pop	 ebp
  00034	c2 04 00	 ret	 4
??GD3DXVECTOR3@@QBE?AU0@XZ ENDP				; D3DXVECTOR3::operator-
_TEXT	ENDS
PUBLIC	??HD3DXVECTOR3@@QBE?AU0@ABU0@@Z			; D3DXVECTOR3::operator+
; Function compile flags: /Ogsp
;	COMDAT ??HD3DXVECTOR3@@QBE?AU0@ABU0@@Z
_TEXT	SEGMENT
___$ReturnUdt$ = 8					; size = 4
_v$ = 12						; size = 4
??HD3DXVECTOR3@@QBE?AU0@ABU0@@Z PROC			; D3DXVECTOR3::operator+, COMDAT
; _this$ = ecx

; 380  : {

  00000	55		 push	 ebp
  00001	8b ec		 mov	 ebp, esp

; 381  :     return D3DXVECTOR3(x + v.x, y + v.y, z + v.z);

  00003	8b 55 0c	 mov	 edx, DWORD PTR _v$[ebp]
  00006	f3 0f 10 02	 movss	 xmm0, DWORD PTR [edx]
  0000a	f3 0f 10 09	 movss	 xmm1, DWORD PTR [ecx]
  0000e	8b 45 08	 mov	 eax, DWORD PTR ___$ReturnUdt$[ebp]
  00011	0f 5a c0	 cvtps2pd xmm0, xmm0
  00014	0f 5a c9	 cvtps2pd xmm1, xmm1
  00017	f2 0f 58 c1	 addsd	 xmm0, xmm1
  0001b	f3 0f 10 49 04	 movss	 xmm1, DWORD PTR [ecx+4]
  00020	66 0f 5a c0	 cvtpd2ps xmm0, xmm0
  00024	f3 0f 11 00	 movss	 DWORD PTR [eax], xmm0
  00028	f3 0f 10 42 04	 movss	 xmm0, DWORD PTR [edx+4]
  0002d	0f 5a c0	 cvtps2pd xmm0, xmm0
  00030	0f 5a c9	 cvtps2pd xmm1, xmm1
  00033	f2 0f 58 c1	 addsd	 xmm0, xmm1
  00037	f3 0f 10 49 08	 movss	 xmm1, DWORD PTR [ecx+8]
  0003c	66 0f 5a c0	 cvtpd2ps xmm0, xmm0
  00040	f3 0f 11 40 04	 movss	 DWORD PTR [eax+4], xmm0
  00045	f3 0f 10 42 08	 movss	 xmm0, DWORD PTR [edx+8]
  0004a	0f 5a c0	 cvtps2pd xmm0, xmm0
  0004d	0f 5a c9	 cvtps2pd xmm1, xmm1
  00050	f2 0f 58 c1	 addsd	 xmm0, xmm1
  00054	66 0f 5a c0	 cvtpd2ps xmm0, xmm0
  00058	f3 0f 11 40 08	 movss	 DWORD PTR [eax+8], xmm0

; 382  : }

  0005d	5d		 pop	 ebp
  0005e	c2 08 00	 ret	 8
??HD3DXVECTOR3@@QBE?AU0@ABU0@@Z ENDP			; D3DXVECTOR3::operator+
_TEXT	ENDS
PUBLIC	??DD3DXVECTOR3@@QBE?AU0@M@Z			; D3DXVECTOR3::operator*
; Function compile flags: /Ogsp
;	COMDAT ??DD3DXVECTOR3@@QBE?AU0@M@Z
_TEXT	SEGMENT
___$ReturnUdt$ = 8					; size = 4
_f$ = 12						; size = 4
??DD3DXVECTOR3@@QBE?AU0@M@Z PROC			; D3DXVECTOR3::operator*, COMDAT
; _this$ = ecx

; 392  : {

  00000	55		 push	 ebp
  00001	8b ec		 mov	 ebp, esp

; 393  :     return D3DXVECTOR3(x * f, y * f, z * f);

  00003	f3 0f 10 4d 0c	 movss	 xmm1, DWORD PTR _f$[ebp]
  00008	f3 0f 10 01	 movss	 xmm0, DWORD PTR [ecx]
  0000c	8b 45 08	 mov	 eax, DWORD PTR ___$ReturnUdt$[ebp]
  0000f	0f 5a c0	 cvtps2pd xmm0, xmm0
  00012	0f 5a c9	 cvtps2pd xmm1, xmm1
  00015	f2 0f 59 c1	 mulsd	 xmm0, xmm1
  00019	f3 0f 10 4d 0c	 movss	 xmm1, DWORD PTR _f$[ebp]
  0001e	66 0f 5a c0	 cvtpd2ps xmm0, xmm0
  00022	f3 0f 11 00	 movss	 DWORD PTR [eax], xmm0
  00026	f3 0f 10 41 04	 movss	 xmm0, DWORD PTR [ecx+4]
  0002b	0f 5a c0	 cvtps2pd xmm0, xmm0
  0002e	0f 5a c9	 cvtps2pd xmm1, xmm1
  00031	f2 0f 59 c1	 mulsd	 xmm0, xmm1
  00035	f3 0f 10 4d 0c	 movss	 xmm1, DWORD PTR _f$[ebp]
  0003a	66 0f 5a c0	 cvtpd2ps xmm0, xmm0
  0003e	f3 0f 11 40 04	 movss	 DWORD PTR [eax+4], xmm0
  00043	f3 0f 10 41 08	 movss	 xmm0, DWORD PTR [ecx+8]
  00048	0f 5a c0	 cvtps2pd xmm0, xmm0
  0004b	0f 5a c9	 cvtps2pd xmm1, xmm1
  0004e	f2 0f 59 c1	 mulsd	 xmm0, xmm1
  00052	66 0f 5a c0	 cvtpd2ps xmm0, xmm0
  00056	f3 0f 11 40 08	 movss	 DWORD PTR [eax+8], xmm0

; 394  : }

  0005b	5d		 pop	 ebp
  0005c	c2 08 00	 ret	 8
??DD3DXVECTOR3@@QBE?AU0@M@Z ENDP			; D3DXVECTOR3::operator*
_TEXT	ENDS
PUBLIC	?D3DXVec3Cross@@YAPAUD3DXVECTOR3@@PAU1@PBU1@1@Z	; D3DXVec3Cross
; Function compile flags: /Ogsp
;	COMDAT ?D3DXVec3Cross@@YAPAUD3DXVECTOR3@@PAU1@PBU1@1@Z
_TEXT	SEGMENT
_v$ = -12						; size = 12
_pOut$ = 8						; size = 4
_pV1$ = 12						; size = 4
_pV2$ = 16						; size = 4
?D3DXVec3Cross@@YAPAUD3DXVECTOR3@@PAU1@PBU1@1@Z PROC	; D3DXVec3Cross, COMDAT

; 1747 : {

  00000	55		 push	 ebp
  00001	8b ec		 mov	 ebp, esp
  00003	83 ec 0c	 sub	 esp, 12			; 0000000cH

; 1757 :     v.z = pV1->x * pV2->y - pV1->y * pV2->x;
; 1758 : 
; 1759 :     *pOut = v;

  00006	56		 push	 esi
  00007	57		 push	 edi

; 1748 :     D3DXVECTOR3 v;
; 1749 : 
; 1750 : #ifdef D3DX_DEBUG
; 1751 :     if(!pOut || !pV1 || !pV2)
; 1752 :         return NULL;
; 1753 : #endif
; 1754 : 
; 1755 :     v.x = pV1->y * pV2->z - pV1->z * pV2->y;

  00008	8b 45 0c	 mov	 eax, DWORD PTR _pV1$[ebp]
  0000b	f3 0f 10 40 04	 movss	 xmm0, DWORD PTR [eax+4]
  00010	f3 0f 10 50 08	 movss	 xmm2, DWORD PTR [eax+8]
  00015	8b 4d 10	 mov	 ecx, DWORD PTR _pV2$[ebp]
  00018	f3 0f 10 49 08	 movss	 xmm1, DWORD PTR [ecx+8]
  0001d	f3 0f 10 59 04	 movss	 xmm3, DWORD PTR [ecx+4]
  00022	0f 5a e8	 cvtps2pd xmm5, xmm0
  00025	0f 5a e1	 cvtps2pd xmm4, xmm1
  00028	0f 5a f2	 cvtps2pd xmm6, xmm2
  0002b	f2 0f 59 e5	 mulsd	 xmm4, xmm5

; 1756 :     v.y = pV1->z * pV2->x - pV1->x * pV2->z;

  0002f	0f 5a d2	 cvtps2pd xmm2, xmm2
  00032	0f 5a c9	 cvtps2pd xmm1, xmm1
  00035	0f 5a eb	 cvtps2pd xmm5, xmm3
  00038	f2 0f 59 ee	 mulsd	 xmm5, xmm6
  0003c	f2 0f 5c e5	 subsd	 xmm4, xmm5
  00040	f3 0f 10 28	 movss	 xmm5, DWORD PTR [eax]

; 1757 :     v.z = pV1->x * pV2->y - pV1->y * pV2->x;
; 1758 : 
; 1759 :     *pOut = v;

  00044	8b 45 08	 mov	 eax, DWORD PTR _pOut$[ebp]
  00047	66 0f 5a e4	 cvtpd2ps xmm4, xmm4
  0004b	f3 0f 11 65 f4	 movss	 DWORD PTR _v$[ebp], xmm4
  00050	f3 0f 10 21	 movss	 xmm4, DWORD PTR [ecx]
  00054	0f 5a f4	 cvtps2pd xmm6, xmm4
  00057	f2 0f 59 f2	 mulsd	 xmm6, xmm2
  0005b	0f 5a d5	 cvtps2pd xmm2, xmm5
  0005e	f2 0f 59 d1	 mulsd	 xmm2, xmm1
  00062	f2 0f 5c f2	 subsd	 xmm6, xmm2
  00066	66 0f 5a ce	 cvtpd2ps xmm1, xmm6
  0006a	f3 0f 11 4d f8	 movss	 DWORD PTR _v$[ebp+4], xmm1
  0006f	0f 5a c0	 cvtps2pd xmm0, xmm0
  00072	0f 5a d3	 cvtps2pd xmm2, xmm3
  00075	0f 5a cd	 cvtps2pd xmm1, xmm5
  00078	f2 0f 59 ca	 mulsd	 xmm1, xmm2
  0007c	8d 75 f4	 lea	 esi, DWORD PTR _v$[ebp]
  0007f	8b f8		 mov	 edi, eax
  00081	0f 5a d4	 cvtps2pd xmm2, xmm4
  00084	f2 0f 59 d0	 mulsd	 xmm2, xmm0
  00088	f2 0f 5c ca	 subsd	 xmm1, xmm2
  0008c	66 0f 5a c1	 cvtpd2ps xmm0, xmm1
  00090	f3 0f 11 45 fc	 movss	 DWORD PTR _v$[ebp+8], xmm0
  00095	a5		 movsd
  00096	a5		 movsd
  00097	a5		 movsd
  00098	5f		 pop	 edi
  00099	5e		 pop	 esi

; 1760 :     return pOut;
; 1761 : }

  0009a	c9		 leave
  0009b	c3		 ret	 0
?D3DXVec3Cross@@YAPAUD3DXVECTOR3@@PAU1@PBU1@1@Z ENDP	; D3DXVec3Cross
_TEXT	ENDS
PUBLIC	?_DECSTR@@YAXPADH@Z				; _DECSTR
; Function compile flags: /Ogsp
; File d:\lost saga for developer\youtube\tutorial\source\src\lsclient\stringprotect.h
;	COMDAT ?_DECSTR@@YAXPADH@Z
_TEXT	SEGMENT
_s$ = 8							; size = 4
_l$ = 12						; size = 4
?_DECSTR@@YAXPADH@Z PROC				; _DECSTR, COMDAT

; 40   : __forceinline void _DECSTR(char* s, int l){int i=0,l4=(l-1)/4,*p=(int*)s;s[l-1]=0;for(;i<l4;++i)*(p++)^=0xEAEBECED;for(i=l4*4;i<l-1;++i)s[i]^=0xED-i%4;}

  00000	55		 push	 ebp
  00001	8b ec		 mov	 ebp, esp
  00003	8b 4d 0c	 mov	 ecx, DWORD PTR _l$[ebp]
  00006	56		 push	 esi
  00007	8b 75 08	 mov	 esi, DWORD PTR _s$[ebp]
  0000a	57		 push	 edi
  0000b	8d 79 ff	 lea	 edi, DWORD PTR [ecx-1]
  0000e	8b c7		 mov	 eax, edi
  00010	99		 cdq
  00011	83 e2 03	 and	 edx, 3
  00014	03 c2		 add	 eax, edx
  00016	c1 f8 02	 sar	 eax, 2
  00019	8b d6		 mov	 edx, esi
  0001b	c6 44 0e ff 00	 mov	 BYTE PTR [esi+ecx-1], 0
  00020	85 c0		 test	 eax, eax
  00022	7e 0e		 jle	 SHORT $LN4@DECSTR
  00024	8b c8		 mov	 ecx, eax
$LL6@DECSTR:
  00026	81 32 ed ec eb
	ea		 xor	 DWORD PTR [edx], -353637139 ; eaebecedH
  0002c	83 c2 04	 add	 edx, 4
  0002f	49		 dec	 ecx
  00030	75 f4		 jne	 SHORT $LL6@DECSTR
$LN4@DECSTR:
  00032	c1 e0 02	 shl	 eax, 2
  00035	eb 17		 jmp	 SHORT $LN14@DECSTR
$LL3@DECSTR:
  00037	8b c8		 mov	 ecx, eax
  00039	81 e1 03 00 00
	80		 and	 ecx, -2147483645	; 80000003H
  0003f	79 05		 jns	 SHORT $LN13@DECSTR
  00041	49		 dec	 ecx
  00042	83 c9 fc	 or	 ecx, -4			; fffffffcH
  00045	41		 inc	 ecx
$LN13@DECSTR:
  00046	b2 ed		 mov	 dl, -19			; ffffffedH
  00048	2a d1		 sub	 dl, cl
  0004a	30 14 30	 xor	 BYTE PTR [eax+esi], dl
  0004d	40		 inc	 eax
$LN14@DECSTR:
  0004e	3b c7		 cmp	 eax, edi
  00050	7c e5		 jl	 SHORT $LL3@DECSTR
  00052	5f		 pop	 edi
  00053	5e		 pop	 esi
  00054	5d		 pop	 ebp
  00055	c3		 ret	 0
?_DECSTR@@YAXPADH@Z ENDP				; _DECSTR
_TEXT	ENDS
PUBLIC	?GetGroup@ioGameEntity@@QBEPAVioEntityGroup@@XZ	; ioGameEntity::GetGroup
; Function compile flags: /Ogsp
; File d:\lost saga for developer\youtube\tutorial\source\src\lsclient\iogameentity.h
;	COMDAT ?GetGroup@ioGameEntity@@QBEPAVioEntityGroup@@XZ
_TEXT	SEGMENT
?GetGroup@ioGameEntity@@QBEPAVioEntityGroup@@XZ PROC	; ioGameEntity::GetGroup, COMDAT
; _this$ = ecx

; 166  : 	inline ioEntityGroup* GetGroup() const { return m_pGroup; }

  00000	8b 41 04	 mov	 eax, DWORD PTR [ecx+4]
  00003	c3		 ret	 0
?GetGroup@ioGameEntity@@QBEPAVioEntityGroup@@XZ ENDP	; ioGameEntity::GetGroup
_TEXT	ENDS
PUBLIC	??_R0?AVioGameEntity@@@8			; ioGameEntity `RTTI Type Descriptor'
PUBLIC	??_R0?AVioPlayEntity@@@8			; ioPlayEntity `RTTI Type Descriptor'
PUBLIC	?ToPlayEntity@@YAPAVioPlayEntity@@PAVioGameEntity@@@Z ; ToPlayEntity
EXTRN	___RTDynamicCast:PROC
;	COMDAT ??_R0?AVioGameEntity@@@8
; File d:\lost saga for developer\youtube\tutorial\source\src\lsclient\ioplayentity.h
_DATA	SEGMENT
??_R0?AVioGameEntity@@@8 DD FLAT:??_7type_info@@6B@	; ioGameEntity `RTTI Type Descriptor'
	DD	00H
	DB	'.?AVioGameEntity@@', 00H
_DATA	ENDS
;	COMDAT ??_R0?AVioPlayEntity@@@8
_DATA	SEGMENT
??_R0?AVioPlayEntity@@@8 DD FLAT:??_7type_info@@6B@	; ioPlayEntity `RTTI Type Descriptor'
	DD	00H
	DB	'.?AVioPlayEntity@@', 00H
; Function compile flags: /Ogsp
_DATA	ENDS
;	COMDAT ?ToPlayEntity@@YAPAVioPlayEntity@@PAVioGameEntity@@@Z
_TEXT	SEGMENT
_pObj$ = 8						; size = 4
?ToPlayEntity@@YAPAVioPlayEntity@@PAVioGameEntity@@@Z PROC ; ToPlayEntity, COMDAT

; 121  : {

  00000	55		 push	 ebp
  00001	8b ec		 mov	 ebp, esp
  00003	56		 push	 esi

; 122  : 	if( !pObj || pObj->GetTypeID() != ioGameEntity::GET_PLAY_ENTITY )

  00004	8b 75 08	 mov	 esi, DWORD PTR _pObj$[ebp]
  00007	85 f6		 test	 esi, esi
  00009	74 25		 je	 SHORT $LN1@ToPlayEnti
  0000b	8b 06		 mov	 eax, DWORD PTR [esi]
  0000d	8b ce		 mov	 ecx, esi
  0000f	ff 50 10	 call	 DWORD PTR [eax+16]
  00012	83 f8 01	 cmp	 eax, 1
  00015	75 19		 jne	 SHORT $LN1@ToPlayEnti

; 124  : 
; 125  : 	return dynamic_cast< ioPlayEntity* >( pObj );

  00017	6a 00		 push	 0
  00019	68 00 00 00 00	 push	 OFFSET ??_R0?AVioPlayEntity@@@8
  0001e	68 00 00 00 00	 push	 OFFSET ??_R0?AVioGameEntity@@@8
  00023	6a 00		 push	 0
  00025	56		 push	 esi
  00026	e8 00 00 00 00	 call	 ___RTDynamicCast
  0002b	83 c4 14	 add	 esp, 20			; 00000014H
  0002e	eb 02		 jmp	 SHORT $LN3@ToPlayEnti
$LN1@ToPlayEnti:

; 123  : 		return NULL;

  00030	33 c0		 xor	 eax, eax
$LN3@ToPlayEnti:
  00032	5e		 pop	 esi

; 126  : }

  00033	5d		 pop	 ebp
  00034	c3		 ret	 0
?ToPlayEntity@@YAPAVioPlayEntity@@PAVioGameEntity@@@Z ENDP ; ToPlayEntity
_TEXT	ENDS
PUBLIC	??_R0?AVioDummyChar@@@8				; ioDummyChar `RTTI Type Descriptor'
PUBLIC	?ToDummyChar@@YAPAVioDummyChar@@PAVioGameEntity@@@Z ; ToDummyChar
;	COMDAT ??_R0?AVioDummyChar@@@8
; File d:\lost saga for developer\youtube\tutorial\source\src\lsclient\iodummychar.h
_DATA	SEGMENT
??_R0?AVioDummyChar@@@8 DD FLAT:??_7type_info@@6B@	; ioDummyChar `RTTI Type Descriptor'
	DD	00H
	DB	'.?AVioDummyChar@@', 00H
; Function compile flags: /Ogsp
_DATA	ENDS
;	COMDAT ?ToDummyChar@@YAPAVioDummyChar@@PAVioGameEntity@@@Z
_TEXT	SEGMENT
_pObj$ = 8						; size = 4
?ToDummyChar@@YAPAVioDummyChar@@PAVioGameEntity@@@Z PROC ; ToDummyChar, COMDAT

; 758  : {

  00000	55		 push	 ebp
  00001	8b ec		 mov	 ebp, esp
  00003	56		 push	 esi

; 759  : 	ioPlayEntity *pPlay = ToPlayEntity( pObj );

  00004	ff 75 08	 push	 DWORD PTR _pObj$[ebp]
  00007	e8 00 00 00 00	 call	 ?ToPlayEntity@@YAPAVioPlayEntity@@PAVioGameEntity@@@Z ; ToPlayEntity
  0000c	8b f0		 mov	 esi, eax
  0000e	59		 pop	 ecx

; 760  : 	if( !pPlay || pPlay->GetSubType() != ioPlayEntity::PST_DUMMY_CHAR )

  0000f	85 f6		 test	 esi, esi
  00011	74 28		 je	 SHORT $LN1@ToDummyCha
  00013	8b 06		 mov	 eax, DWORD PTR [esi]
  00015	8b ce		 mov	 ecx, esi
  00017	ff 90 a4 00 00
	00		 call	 DWORD PTR [eax+164]
  0001d	83 f8 0a	 cmp	 eax, 10			; 0000000aH
  00020	75 19		 jne	 SHORT $LN1@ToDummyCha

; 762  : 
; 763  : 	return dynamic_cast< ioDummyChar* >( pPlay );

  00022	6a 00		 push	 0
  00024	68 00 00 00 00	 push	 OFFSET ??_R0?AVioDummyChar@@@8
  00029	68 00 00 00 00	 push	 OFFSET ??_R0?AVioPlayEntity@@@8
  0002e	6a 00		 push	 0
  00030	56		 push	 esi
  00031	e8 00 00 00 00	 call	 ___RTDynamicCast
  00036	83 c4 14	 add	 esp, 20			; 00000014H
  00039	eb 02		 jmp	 SHORT $LN3@ToDummyCha
$LN1@ToDummyCha:

; 761  : 		return NULL;

  0003b	33 c0		 xor	 eax, eax
$LN3@ToDummyCha:
  0003d	5e		 pop	 esi

; 764  : }

  0003e	5d		 pop	 ebp
  0003f	c3		 ret	 0
?ToDummyChar@@YAPAVioDummyChar@@PAVioGameEntity@@@Z ENDP ; ToDummyChar
_TEXT	ENDS
PUBLIC	?GetParentSceneNode@ioWeapon@@QBEPAVioSceneNode@@XZ ; ioWeapon::GetParentSceneNode
; Function compile flags: /Ogsp
; File d:\lost saga for developer\youtube\tutorial\source\src\lsclient\ioweapon.h
;	COMDAT ?GetParentSceneNode@ioWeapon@@QBEPAVioSceneNode@@XZ
_TEXT	SEGMENT
?GetParentSceneNode@ioWeapon@@QBEPAVioSceneNode@@XZ PROC ; ioWeapon::GetParentSceneNode, COMDAT
; _this$ = ecx

; 797  : 	ioSceneNode* GetParentSceneNode() const { return m_pSceneNode; }

  00000	8b 41 04	 mov	 eax, DWORD PTR [ecx+4]
  00003	c3		 ret	 0
?GetParentSceneNode@ioWeapon@@QBEPAVioSceneNode@@XZ ENDP ; ioWeapon::GetParentSceneNode
_TEXT	ENDS
PUBLIC	??_R0?AVioWallZone@@@8				; ioWallZone `RTTI Type Descriptor'
PUBLIC	?ToWallZone@@YAPAVioWallZone@@PAVioGameEntity@@@Z ; ToWallZone
;	COMDAT ??_R0?AVioWallZone@@@8
; File d:\lost saga for developer\youtube\tutorial\source\src\lsclient\iowallzone.h
_DATA	SEGMENT
??_R0?AVioWallZone@@@8 DD FLAT:??_7type_info@@6B@	; ioWallZone `RTTI Type Descriptor'
	DD	00H
	DB	'.?AVioWallZone@@', 00H
; Function compile flags: /Ogsp
_DATA	ENDS
;	COMDAT ?ToWallZone@@YAPAVioWallZone@@PAVioGameEntity@@@Z
_TEXT	SEGMENT
_pObj$ = 8						; size = 4
?ToWallZone@@YAPAVioWallZone@@PAVioGameEntity@@@Z PROC	; ToWallZone, COMDAT

; 50   : {

  00000	55		 push	 ebp
  00001	8b ec		 mov	 ebp, esp
  00003	56		 push	 esi

; 51   : 	ioPlayEntity *pPlay = ToPlayEntity( pObj );

  00004	ff 75 08	 push	 DWORD PTR _pObj$[ebp]
  00007	e8 00 00 00 00	 call	 ?ToPlayEntity@@YAPAVioPlayEntity@@PAVioGameEntity@@@Z ; ToPlayEntity
  0000c	8b f0		 mov	 esi, eax
  0000e	59		 pop	 ecx

; 52   : 	if( !pPlay || pPlay->GetSubType() != ioPlayEntity::PST_WALL_ZONE )

  0000f	85 f6		 test	 esi, esi
  00011	74 28		 je	 SHORT $LN1@ToWallZone
  00013	8b 06		 mov	 eax, DWORD PTR [esi]
  00015	8b ce		 mov	 ecx, esi
  00017	ff 90 a4 00 00
	00		 call	 DWORD PTR [eax+164]
  0001d	83 f8 0b	 cmp	 eax, 11			; 0000000bH
  00020	75 19		 jne	 SHORT $LN1@ToWallZone

; 54   : 
; 55   : 	return dynamic_cast< ioWallZone* >( pPlay );

  00022	6a 00		 push	 0
  00024	68 00 00 00 00	 push	 OFFSET ??_R0?AVioWallZone@@@8
  00029	68 00 00 00 00	 push	 OFFSET ??_R0?AVioPlayEntity@@@8
  0002e	6a 00		 push	 0
  00030	56		 push	 esi
  00031	e8 00 00 00 00	 call	 ___RTDynamicCast
  00036	83 c4 14	 add	 esp, 20			; 00000014H
  00039	eb 02		 jmp	 SHORT $LN3@ToWallZone
$LN1@ToWallZone:

; 53   : 		return NULL;

  0003b	33 c0		 xor	 eax, eax
$LN3@ToWallZone:
  0003d	5e		 pop	 esi

; 56   : }

  0003e	5d		 pop	 ebp
  0003f	c3		 ret	 0
?ToWallZone@@YAPAVioWallZone@@PAVioGameEntity@@@Z ENDP	; ToWallZone
_TEXT	ENDS
PUBLIC	??_R0?AVioSymbolStruct@@@8			; ioSymbolStruct `RTTI Type Descriptor'
PUBLIC	?ToSymbolStruct@@YAPAVioSymbolStruct@@PAVioGameEntity@@@Z ; ToSymbolStruct
;	COMDAT ??_R0?AVioSymbolStruct@@@8
; File d:\lost saga for developer\youtube\tutorial\source\src\lsclient\iosymbolstruct.h
_DATA	SEGMENT
??_R0?AVioSymbolStruct@@@8 DD FLAT:??_7type_info@@6B@	; ioSymbolStruct `RTTI Type Descriptor'
	DD	00H
	DB	'.?AVioSymbolStruct@@', 00H
; Function compile flags: /Ogsp
_DATA	ENDS
;	COMDAT ?ToSymbolStruct@@YAPAVioSymbolStruct@@PAVioGameEntity@@@Z
_TEXT	SEGMENT
_pObj$ = 8						; size = 4
?ToSymbolStruct@@YAPAVioSymbolStruct@@PAVioGameEntity@@@Z PROC ; ToSymbolStruct, COMDAT

; 171  : {

  00000	55		 push	 ebp
  00001	8b ec		 mov	 ebp, esp
  00003	56		 push	 esi

; 172  : 	ioPlayEntity *pPlay = ToPlayEntity( pObj );

  00004	ff 75 08	 push	 DWORD PTR _pObj$[ebp]
  00007	e8 00 00 00 00	 call	 ?ToPlayEntity@@YAPAVioPlayEntity@@PAVioGameEntity@@@Z ; ToPlayEntity
  0000c	8b f0		 mov	 esi, eax
  0000e	59		 pop	 ecx

; 173  : 	if( !pPlay || pPlay->GetSubType() != ioPlayEntity::PST_SYMBOL )

  0000f	85 f6		 test	 esi, esi
  00011	74 28		 je	 SHORT $LN1@ToSymbolSt
  00013	8b 06		 mov	 eax, DWORD PTR [esi]
  00015	8b ce		 mov	 ecx, esi
  00017	ff 90 a4 00 00
	00		 call	 DWORD PTR [eax+164]
  0001d	83 f8 01	 cmp	 eax, 1
  00020	75 19		 jne	 SHORT $LN1@ToSymbolSt

; 175  : 
; 176  : 	return dynamic_cast< ioSymbolStruct* >( pPlay );

  00022	6a 00		 push	 0
  00024	68 00 00 00 00	 push	 OFFSET ??_R0?AVioSymbolStruct@@@8
  00029	68 00 00 00 00	 push	 OFFSET ??_R0?AVioPlayEntity@@@8
  0002e	6a 00		 push	 0
  00030	56		 push	 esi
  00031	e8 00 00 00 00	 call	 ___RTDynamicCast
  00036	83 c4 14	 add	 esp, 20			; 00000014H
  00039	eb 02		 jmp	 SHORT $LN3@ToSymbolSt
$LN1@ToSymbolSt:

; 174  : 		return NULL;

  0003b	33 c0		 xor	 eax, eax
$LN3@ToSymbolSt:
  0003d	5e		 pop	 esi

; 177  : }

  0003e	5d		 pop	 ebp
  0003f	c3		 ret	 0
?ToSymbolStruct@@YAPAVioSymbolStruct@@PAVioGameEntity@@@Z ENDP ; ToSymbolStruct
_TEXT	ENDS
PUBLIC	??_R0?AVioBall@@@8				; ioBall `RTTI Type Descriptor'
PUBLIC	?ToBallStruct@@YAPAVioBall@@PAVioGameEntity@@@Z	; ToBallStruct
;	COMDAT ??_R0?AVioBall@@@8
; File d:\lost saga for developer\youtube\tutorial\source\src\lsclient\ioball.h
_DATA	SEGMENT
??_R0?AVioBall@@@8 DD FLAT:??_7type_info@@6B@		; ioBall `RTTI Type Descriptor'
	DD	00H
	DB	'.?AVioBall@@', 00H
; Function compile flags: /Ogsp
_DATA	ENDS
;	COMDAT ?ToBallStruct@@YAPAVioBall@@PAVioGameEntity@@@Z
_TEXT	SEGMENT
_pObj$ = 8						; size = 4
?ToBallStruct@@YAPAVioBall@@PAVioGameEntity@@@Z PROC	; ToBallStruct, COMDAT

; 252  : {

  00000	55		 push	 ebp
  00001	8b ec		 mov	 ebp, esp
  00003	56		 push	 esi

; 253  : 	ioPlayEntity *pPlay = ToPlayEntity( pObj );

  00004	ff 75 08	 push	 DWORD PTR _pObj$[ebp]
  00007	e8 00 00 00 00	 call	 ?ToPlayEntity@@YAPAVioPlayEntity@@PAVioGameEntity@@@Z ; ToPlayEntity
  0000c	8b f0		 mov	 esi, eax
  0000e	59		 pop	 ecx

; 254  : 	if( !pPlay || pPlay->GetSubType() != ioPlayEntity::PST_BALL )

  0000f	85 f6		 test	 esi, esi
  00011	74 28		 je	 SHORT $LN1@ToBallStru
  00013	8b 06		 mov	 eax, DWORD PTR [esi]
  00015	8b ce		 mov	 ecx, esi
  00017	ff 90 a4 00 00
	00		 call	 DWORD PTR [eax+164]
  0001d	83 f8 08	 cmp	 eax, 8
  00020	75 19		 jne	 SHORT $LN1@ToBallStru

; 256  : 
; 257  : 	return dynamic_cast< ioBall* >( pPlay );

  00022	6a 00		 push	 0
  00024	68 00 00 00 00	 push	 OFFSET ??_R0?AVioBall@@@8
  00029	68 00 00 00 00	 push	 OFFSET ??_R0?AVioPlayEntity@@@8
  0002e	6a 00		 push	 0
  00030	56		 push	 esi
  00031	e8 00 00 00 00	 call	 ___RTDynamicCast
  00036	83 c4 14	 add	 esp, 20			; 00000014H
  00039	eb 02		 jmp	 SHORT $LN3@ToBallStru
$LN1@ToBallStru:

; 255  : 		return NULL;

  0003b	33 c0		 xor	 eax, eax
$LN3@ToBallStru:
  0003d	5e		 pop	 esi

; 258  : }

  0003e	5d		 pop	 ebp
  0003f	c3		 ret	 0
?ToBallStruct@@YAPAVioBall@@PAVioGameEntity@@@Z ENDP	; ToBallStruct
_TEXT	ENDS
PUBLIC	??_R0?AVioPushStruct@@@8			; ioPushStruct `RTTI Type Descriptor'
PUBLIC	?ToPushStruct@@YAPAVioPushStruct@@PAVioGameEntity@@@Z ; ToPushStruct
;	COMDAT ??_R0?AVioPushStruct@@@8
; File d:\lost saga for developer\youtube\tutorial\source\src\lsclient\iopushstruct.h
_DATA	SEGMENT
??_R0?AVioPushStruct@@@8 DD FLAT:??_7type_info@@6B@	; ioPushStruct `RTTI Type Descriptor'
	DD	00H
	DB	'.?AVioPushStruct@@', 00H
; Function compile flags: /Ogsp
_DATA	ENDS
;	COMDAT ?ToPushStruct@@YAPAVioPushStruct@@PAVioGameEntity@@@Z
_TEXT	SEGMENT
_pObj$ = 8						; size = 4
?ToPushStruct@@YAPAVioPushStruct@@PAVioGameEntity@@@Z PROC ; ToPushStruct, COMDAT

; 440  : {

  00000	55		 push	 ebp
  00001	8b ec		 mov	 ebp, esp
  00003	56		 push	 esi

; 441  : 	ioPlayEntity *pPlay = ToPlayEntity( pObj );

  00004	ff 75 08	 push	 DWORD PTR _pObj$[ebp]
  00007	e8 00 00 00 00	 call	 ?ToPlayEntity@@YAPAVioPlayEntity@@PAVioGameEntity@@@Z ; ToPlayEntity
  0000c	8b f0		 mov	 esi, eax
  0000e	59		 pop	 ecx

; 442  : 	if( !pPlay || pPlay->GetSubType() != ioPlayEntity::PST_PUSHSTRUCT )

  0000f	85 f6		 test	 esi, esi
  00011	74 28		 je	 SHORT $LN1@ToPushStru
  00013	8b 06		 mov	 eax, DWORD PTR [esi]
  00015	8b ce		 mov	 ecx, esi
  00017	ff 90 a4 00 00
	00		 call	 DWORD PTR [eax+164]
  0001d	83 f8 02	 cmp	 eax, 2
  00020	75 19		 jne	 SHORT $LN1@ToPushStru

; 444  : 
; 445  : 	return dynamic_cast< ioPushStruct* >( pPlay );

  00022	6a 00		 push	 0
  00024	68 00 00 00 00	 push	 OFFSET ??_R0?AVioPushStruct@@@8
  00029	68 00 00 00 00	 push	 OFFSET ??_R0?AVioPlayEntity@@@8
  0002e	6a 00		 push	 0
  00030	56		 push	 esi
  00031	e8 00 00 00 00	 call	 ___RTDynamicCast
  00036	83 c4 14	 add	 esp, 20			; 00000014H
  00039	eb 02		 jmp	 SHORT $LN3@ToPushStru
$LN1@ToPushStru:

; 443  : 		return NULL;

  0003b	33 c0		 xor	 eax, eax
$LN3@ToPushStru:
  0003d	5e		 pop	 esi

; 446  : }

  0003e	5d		 pop	 ebp
  0003f	c3		 ret	 0
?ToPushStruct@@YAPAVioPushStruct@@PAVioGameEntity@@@Z ENDP ; ToPushStruct
_TEXT	ENDS
PUBLIC	?DecryptValueToPool@?$CEncrypt@M@@QAEXPAM@Z	; CEncrypt<float>::DecryptValueToPool
EXTRN	?DecryptByte@ccddaabb@@QBEXPBDPADH@Z:PROC	; ccddaabb::DecryptByte
; Function compile flags: /Ogsp
; File d:\lost saga for developer\youtube\tutorial\source\src\lsclient\encryptvalue.h
;	COMDAT ?DecryptValueToPool@?$CEncrypt@M@@QAEXPAM@Z
_TEXT	SEGMENT
_value$ = 8						; size = 4
?DecryptValueToPool@?$CEncrypt@M@@QAEXPAM@Z PROC	; CEncrypt<float>::DecryptValueToPool, COMDAT
; _this$ = ecx

; 1648 : 	{

  00000	55		 push	 ebp
  00001	8b ec		 mov	 ebp, esp
  00003	56		 push	 esi

; 1649 : 		m_RC5.DecryptByte( m_MemPool, m_TempMem, 4 );

  00004	8d 71 28	 lea	 esi, DWORD PTR [ecx+40]
  00007	6a 04		 push	 4
  00009	8d 41 1c	 lea	 eax, DWORD PTR [ecx+28]
  0000c	56		 push	 esi
  0000d	50		 push	 eax
  0000e	83 c1 0c	 add	 ecx, 12			; 0000000cH
  00011	e8 00 00 00 00	 call	 ?DecryptByte@ccddaabb@@QBEXPBDPADH@Z ; ccddaabb::DecryptByte

; 1650 : 		*value = *((float*)m_TempMem);

  00016	d9 06		 fld	 DWORD PTR [esi]
  00018	8b 45 08	 mov	 eax, DWORD PTR _value$[ebp]
  0001b	d9 18		 fstp	 DWORD PTR [eax]
  0001d	5e		 pop	 esi

; 1651 : 	}

  0001e	5d		 pop	 ebp
  0001f	c2 04 00	 ret	 4
?DecryptValueToPool@?$CEncrypt@M@@QAEXPAM@Z ENDP	; CEncrypt<float>::DecryptValueToPool
_TEXT	ENDS
PUBLIC	?DecryptValueToPool@?$CEncrypt@W4TeamType@@@@QAEXPAW4TeamType@@@Z ; CEncrypt<enum TeamType>::DecryptValueToPool
; Function compile flags: /Ogsp
;	COMDAT ?DecryptValueToPool@?$CEncrypt@W4TeamType@@@@QAEXPAW4TeamType@@@Z
_TEXT	SEGMENT
_value$ = 8						; size = 4
?DecryptValueToPool@?$CEncrypt@W4TeamType@@@@QAEXPAW4TeamType@@@Z PROC ; CEncrypt<enum TeamType>::DecryptValueToPool, COMDAT
; _this$ = ecx

; 2959 : 	{

  00000	55		 push	 ebp
  00001	8b ec		 mov	 ebp, esp
  00003	56		 push	 esi

; 2960 : 		m_RC5.DecryptByte( m_MemPool, m_TempMem, sizeof(TeamType) );

  00004	8d 71 28	 lea	 esi, DWORD PTR [ecx+40]
  00007	6a 04		 push	 4
  00009	8d 41 1c	 lea	 eax, DWORD PTR [ecx+28]
  0000c	56		 push	 esi
  0000d	50		 push	 eax
  0000e	83 c1 0c	 add	 ecx, 12			; 0000000cH
  00011	e8 00 00 00 00	 call	 ?DecryptByte@ccddaabb@@QBEXPBDPADH@Z ; ccddaabb::DecryptByte

; 2961 : 		*value = *((TeamType*)m_TempMem);

  00016	8b 06		 mov	 eax, DWORD PTR [esi]
  00018	8b 4d 08	 mov	 ecx, DWORD PTR _value$[ebp]
  0001b	89 01		 mov	 DWORD PTR [ecx], eax
  0001d	5e		 pop	 esi

; 2962 : 	}

  0001e	5d		 pop	 ebp
  0001f	c2 04 00	 ret	 4
?DecryptValueToPool@?$CEncrypt@W4TeamType@@@@QAEXPAW4TeamType@@@Z ENDP ; CEncrypt<enum TeamType>::DecryptValueToPool
_TEXT	ENDS
PUBLIC	??0ioThrowReturnWeapon@@QAE@PAVioBaseChar@@PBUWeaponAttribute@@@Z ; ioThrowReturnWeapon::ioThrowReturnWeapon
EXTRN	?SetPeculiarity@ioWeapon@@QAEXK@Z:PROC		; ioWeapon::SetPeculiarity
EXTRN	__imp_??0ioOrientBox@@QAE@XZ:PROC
EXTRN	??0ioWeapon@@QAE@PAVioBaseChar@@PBUWeaponAttribute@@@Z:PROC ; ioWeapon::ioWeapon
;	COMDAT xdata$x
; File c:\program files (x86)\microsoft directx sdk (june 2010)\include\d3dx9math.h
xdata$x	SEGMENT
__unwindtable$??0ioThrowReturnWeapon@@QAE@PAVioBaseChar@@PBUWeaponAttribute@@@Z DD 0ffffffffH
	DD	FLAT:__unwindfunclet$??0ioThrowReturnWeapon@@QAE@PAVioBaseChar@@PBUWeaponAttribute@@@Z$0
	DD	00H
	DD	FLAT:__unwindfunclet$??0ioThrowReturnWeapon@@QAE@PAVioBaseChar@@PBUWeaponAttribute@@@Z$1
__ehfuncinfo$??0ioThrowReturnWeapon@@QAE@PAVioBaseChar@@PBUWeaponAttribute@@@Z DD 019930522H
	DD	02H
	DD	FLAT:__unwindtable$??0ioThrowReturnWeapon@@QAE@PAVioBaseChar@@PBUWeaponAttribute@@@Z
	DD	2 DUP(00H)
	DD	2 DUP(00H)
	DD	00H
	DD	01H
; Function compile flags: /Ogsp
; File d:\lost saga for developer\youtube\tutorial\source\src\lsclient\iothrowreturnweapon.cpp
xdata$x	ENDS
;	COMDAT ??0ioThrowReturnWeapon@@QAE@PAVioBaseChar@@PBUWeaponAttribute@@@Z
_TEXT	SEGMENT
_this$ = -16						; size = 4
__$EHRec$ = -12						; size = 12
_pOwner$ = 8						; size = 4
_pAttr$ = 12						; size = 4
??0ioThrowReturnWeapon@@QAE@PAVioBaseChar@@PBUWeaponAttribute@@@Z PROC ; ioThrowReturnWeapon::ioThrowReturnWeapon, COMDAT
; _this$ = ecx

; 15   : {

  00000	6a 04		 push	 4
  00002	b8 00 00 00 00	 mov	 eax, __ehhandler$??0ioThrowReturnWeapon@@QAE@PAVioBaseChar@@PBUWeaponAttribute@@@Z
  00007	e8 00 00 00 00	 call	 __EH_prolog3
  0000c	8b f1		 mov	 esi, ecx
  0000e	89 75 f0	 mov	 DWORD PTR _this$[ebp], esi
  00011	ff 75 0c	 push	 DWORD PTR _pAttr$[ebp]
  00014	ff 75 08	 push	 DWORD PTR _pOwner$[ebp]
  00017	e8 00 00 00 00	 call	 ??0ioWeapon@@QAE@PAVioBaseChar@@PBUWeaponAttribute@@@Z ; ioWeapon::ioWeapon
  0001c	33 ff		 xor	 edi, edi
  0001e	8d 8e c4 08 00
	00		 lea	 ecx, DWORD PTR [esi+2244]
  00024	89 7d fc	 mov	 DWORD PTR __$EHRec$[ebp+8], edi
  00027	c7 06 00 00 00
	00		 mov	 DWORD PTR [esi], OFFSET ??_7ioThrowReturnWeapon@@6B@
  0002d	ff 15 00 00 00
	00		 call	 DWORD PTR __imp_??0ioOrientBox@@QAE@XZ

; 16   : 	SetPeculiarity( WP_DIVIDE_ACTION );

  00033	68 00 01 00 00	 push	 256			; 00000100H
  00038	8b ce		 mov	 ecx, esi
  0003a	c6 45 fc 01	 mov	 BYTE PTR __$EHRec$[ebp+8], 1
  0003e	e8 00 00 00 00	 call	 ?SetPeculiarity@ioWeapon@@QAEXK@Z ; ioWeapon::SetPeculiarity

; 17   : 	m_pThrowMesh = NULL;
; 18   : 	m_fCurMoveRange = 0.0f;

  00043	0f 57 c0	 xorps	 xmm0, xmm0
  00046	89 be 98 08 00
	00		 mov	 DWORD PTR [esi+2200], edi
  0004c	f3 0f 11 86 bc
	08 00 00	 movss	 DWORD PTR [esi+2236], xmm0

; 19   : 	m_fCurMoveDistance = 0.0f;

  00054	f3 0f 11 86 c0
	08 00 00	 movss	 DWORD PTR [esi+2240], xmm0

; 20   : 	m_ReturnState = TRS_NONE;

  0005c	89 be 08 09 00
	00		 mov	 DWORD PTR [esi+2312], edi

; 21   : 	m_dwStartReturnTime = 0;

  00062	89 be b8 08 00
	00		 mov	 DWORD PTR [esi+2232], edi

; 22   : 
; 23   : 	m_pSecondAttr = NULL;

  00068	89 be 94 08 00
	00		 mov	 DWORD PTR [esi+2196], edi

; 24   : }

  0006e	8b c6		 mov	 eax, esi
  00070	e8 00 00 00 00	 call	 __EH_epilog3
  00075	c2 08 00	 ret	 8
_TEXT	ENDS
;	COMDAT text$x
text$x	SEGMENT
__unwindfunclet$??0ioThrowReturnWeapon@@QAE@PAVioBaseChar@@PBUWeaponAttribute@@@Z$0:
  00000	8b 4d f0	 mov	 ecx, DWORD PTR _this$[ebp]
  00003	e9 00 00 00 00	 jmp	 ??1ioWeapon@@UAE@XZ	; ioWeapon::~ioWeapon
__unwindfunclet$??0ioThrowReturnWeapon@@QAE@PAVioBaseChar@@PBUWeaponAttribute@@@Z$1:
  00008	8b 4d f0	 mov	 ecx, DWORD PTR _this$[ebp]
  0000b	81 c1 c4 08 00
	00		 add	 ecx, 2244		; 000008c4H
  00011	ff 25 00 00 00
	00		 jmp	 DWORD PTR __imp_??1ioOrientBox@@QAE@XZ
__ehhandler$??0ioThrowReturnWeapon@@QAE@PAVioBaseChar@@PBUWeaponAttribute@@@Z:
  00017	8b 54 24 08	 mov	 edx, DWORD PTR [esp+8]
  0001b	8d 42 0c	 lea	 eax, DWORD PTR [edx+12]
  0001e	8b 4a ec	 mov	 ecx, DWORD PTR [edx-20]
  00021	33 c8		 xor	 ecx, eax
  00023	e8 00 00 00 00	 call	 @__security_check_cookie@4
  00028	b8 00 00 00 00	 mov	 eax, OFFSET __ehfuncinfo$??0ioThrowReturnWeapon@@QAE@PAVioBaseChar@@PBUWeaponAttribute@@@Z
  0002d	e9 00 00 00 00	 jmp	 ___CxxFrameHandler3
text$x	ENDS
??0ioThrowReturnWeapon@@QAE@PAVioBaseChar@@PBUWeaponAttribute@@@Z ENDP ; ioThrowReturnWeapon::ioThrowReturnWeapon
EXTRN	??3@YAXPAX@Z:PROC				; operator delete
; Function compile flags: /Ogsp
;	COMDAT ??_GioThrowReturnWeapon@@UAEPAXI@Z
_TEXT	SEGMENT
___flags$ = 8						; size = 4
??_GioThrowReturnWeapon@@UAEPAXI@Z PROC			; ioThrowReturnWeapon::`scalar deleting destructor', COMDAT
; _this$ = ecx
  00000	55		 push	 ebp
  00001	8b ec		 mov	 ebp, esp
  00003	56		 push	 esi
  00004	8b f1		 mov	 esi, ecx
  00006	e8 00 00 00 00	 call	 ??1ioThrowReturnWeapon@@UAE@XZ ; ioThrowReturnWeapon::~ioThrowReturnWeapon
  0000b	f6 45 08 01	 test	 BYTE PTR ___flags$[ebp], 1
  0000f	74 07		 je	 SHORT $LN1@scalar
  00011	56		 push	 esi
  00012	e8 00 00 00 00	 call	 ??3@YAXPAX@Z		; operator delete
  00017	59		 pop	 ecx
$LN1@scalar:
  00018	8b c6		 mov	 eax, esi
  0001a	5e		 pop	 esi
  0001b	5d		 pop	 ebp
  0001c	c2 04 00	 ret	 4
??_GioThrowReturnWeapon@@UAEPAXI@Z ENDP			; ioThrowReturnWeapon::`scalar deleting destructor'
_TEXT	ENDS
PUBLIC	?SetThrowMesh@ioThrowReturnWeapon@@IAE_NABVioHashString@@@Z ; ioThrowReturnWeapon::SetThrowMesh
EXTRN	__imp_??D@YA?AUD3DXVECTOR3@@ABU0@0@Z:PROC
EXTRN	__imp_??D@YA?AUD3DXVECTOR3@@ABUD3DXQUATERNION@@ABU0@@Z:PROC
EXTRN	__imp_?GetBiped@ioEntityGroup@@QAEPAVioBiped@@ABVioHashString@@@Z:PROC
EXTRN	__imp_??1ioHashString@@QAE@XZ:PROC
EXTRN	__imp_?GetFirstLinkOffset@ioEffect@@QAE_NAAVioHashString@@AAUD3DXVECTOR3@@AAUD3DXQUATERNION@@@Z:PROC
EXTRN	__imp_?IsEmpty@ioHashString@@QBE_NXZ:PROC
EXTRN	__imp_?GetSkeletonName@ioEffect@@QBE?AVioHashString@@XZ:PROC
EXTRN	__imp_??0ioHashString@@QAE@XZ:PROC
EXTRN	__imp_?CreateEffect@ioEffectFactory@@QAEPAVioEffect@@ABVioHashString@@@Z:PROC
EXTRN	?GetOwner@ioWeapon@@QBEPAVioBaseChar@@XZ:PROC	; ioWeapon::GetOwner
EXTRN	__EH_epilog3_GS:PROC
EXTRN	__EH_prolog3_GS:PROC
;	COMDAT xdata$x
; File c:\program files (x86)\microsoft directx sdk (june 2010)\include\d3dx9math.inl
xdata$x	SEGMENT
__unwindtable$?SetThrowMesh@ioThrowReturnWeapon@@IAE_NABVioHashString@@@Z DD 0ffffffffH
	DD	FLAT:__unwindfunclet$?SetThrowMesh@ioThrowReturnWeapon@@IAE_NABVioHashString@@@Z$0
	DD	00H
	DD	FLAT:__unwindfunclet$?SetThrowMesh@ioThrowReturnWeapon@@IAE_NABVioHashString@@@Z$1
__ehfuncinfo$?SetThrowMesh@ioThrowReturnWeapon@@IAE_NABVioHashString@@@Z DD 019930522H
	DD	02H
	DD	FLAT:__unwindtable$?SetThrowMesh@ioThrowReturnWeapon@@IAE_NABVioHashString@@@Z
	DD	2 DUP(00H)
	DD	2 DUP(00H)
	DD	00H
	DD	01H
; Function compile flags: /Ogsp
; File d:\lost saga for developer\youtube\tutorial\source\src\lsclient\iothrowreturnweapon.cpp
xdata$x	ENDS
;	COMDAT ?SetThrowMesh@ioThrowReturnWeapon@@IAE_NABVioHashString@@@Z
_TEXT	SEGMENT
_qtLinkRotOffset$ = -100				; size = 16
_szLinkBiped$ = -84					; size = 16
$T531392 = -68						; size = 4
_pOwner$ = -64						; size = 4
$T531386 = -57						; size = 1
$T531387 = -56						; size = 16
$T530556 = -52						; size = 12
_vLinkPosOffset$ = -40					; size = 12
$T530557 = -28						; size = 12
$T530555 = -28						; size = 12
$T530554 = -28						; size = 12
$T530553 = -28						; size = 12
__$EHRec$ = -12						; size = 12
_szFileName$ = 8					; size = 4
?SetThrowMesh@ioThrowReturnWeapon@@IAE_NABVioHashString@@@Z PROC ; ioThrowReturnWeapon::SetThrowMesh, COMDAT
; _this$ = ecx

; 47   : {

  00000	6a 58		 push	 88			; 00000058H
  00002	b8 00 00 00 00	 mov	 eax, __ehhandler$?SetThrowMesh@ioThrowReturnWeapon@@IAE_NABVioHashString@@@Z
  00007	e8 00 00 00 00	 call	 __EH_prolog3_GS
  0000c	8b 7d 08	 mov	 edi, DWORD PTR _szFileName$[ebp]
  0000f	33 f6		 xor	 esi, esi
  00011	8b d9		 mov	 ebx, ecx
  00013	89 75 bc	 mov	 DWORD PTR $T531392[ebp], esi

; 48   : 	ioBaseChar *pOwner = GetOwner();

  00016	e8 00 00 00 00	 call	 ?GetOwner@ioWeapon@@QBEPAVioBaseChar@@XZ ; ioWeapon::GetOwner
  0001b	89 45 c0	 mov	 DWORD PTR _pOwner$[ebp], eax

; 49   : 	if( !pOwner )	return false;

  0001e	3b c6		 cmp	 eax, esi
  00020	75 07		 jne	 SHORT $LN4@SetThrowMe
$LN33@SetThrowMe:
  00022	32 c0		 xor	 al, al
  00024	e9 19 02 00 00	 jmp	 $LN5@SetThrowMe
$LN4@SetThrowMe:

; 50   : 
; 51   : 	DestroyResource();

  00029	8b 03		 mov	 eax, DWORD PTR [ebx]
  0002b	56		 push	 esi
  0002c	8b cb		 mov	 ecx, ebx
  0002e	ff 90 9c 00 00
	00		 call	 DWORD PTR [eax+156]

; 52   : 
; 53   : 	m_pThrowMesh = g_EffectFactory.CreateEffect( szFileName );

  00034	57		 push	 edi
  00035	ff 15 00 00 00
	00		 call	 DWORD PTR __imp_?GetSingleton@ioEffectFactory@@SAAAV1@XZ
  0003b	8b c8		 mov	 ecx, eax
  0003d	ff 15 00 00 00
	00		 call	 DWORD PTR __imp_?CreateEffect@ioEffectFactory@@QAEPAVioEffect@@ABVioHashString@@@Z
  00043	89 83 98 08 00
	00		 mov	 DWORD PTR [ebx+2200], eax

; 54   : 	if( !m_pThrowMesh ) return false;

  00049	3b c6		 cmp	 eax, esi
  0004b	74 d5		 je	 SHORT $LN33@SetThrowMe

; 55   : 
; 56   : 	GetParentSceneNode()->AttachObject( m_pThrowMesh );

  0004d	8b 4b 04	 mov	 ecx, DWORD PTR [ebx+4]
  00050	8b 11		 mov	 edx, DWORD PTR [ecx]
  00052	83 c0 14	 add	 eax, 20			; 00000014H
  00055	50		 push	 eax
  00056	ff 92 ac 00 00
	00		 call	 DWORD PTR [edx+172]

; 57   : 
; 58   : 	ioHashString szLinkBiped;

  0005c	8d 4d ac	 lea	 ecx, DWORD PTR _szLinkBiped$[ebp]
  0005f	ff 15 00 00 00
	00		 call	 DWORD PTR __imp_??0ioHashString@@QAE@XZ

; 59   : 	D3DXVECTOR3 vLinkPosOffset;
; 60   : 	D3DXQUATERNION qtLinkRotOffset;
; 61   : 
; 62   : 	if( m_pThrowMesh->GetSkeletonName().IsEmpty() && m_pThrowMesh->GetFirstLinkOffset(szLinkBiped, vLinkPosOffset, qtLinkRotOffset ) )

  00065	8b 8b 98 08 00
	00		 mov	 ecx, DWORD PTR [ebx+2200]
  0006b	8d 45 c8	 lea	 eax, DWORD PTR $T531387[ebp]
  0006e	50		 push	 eax
  0006f	89 75 fc	 mov	 DWORD PTR __$EHRec$[ebp+8], esi
  00072	ff 15 00 00 00
	00		 call	 DWORD PTR __imp_?GetSkeletonName@ioEffect@@QBE?AVioHashString@@XZ
  00078	8b c8		 mov	 ecx, eax
  0007a	c6 45 fc 01	 mov	 BYTE PTR __$EHRec$[ebp+8], 1
  0007e	c7 45 bc 01 00
	00 00		 mov	 DWORD PTR $T531392[ebp], 1
  00085	ff 15 00 00 00
	00		 call	 DWORD PTR __imp_?IsEmpty@ioHashString@@QBE_NXZ
  0008b	84 c0		 test	 al, al
  0008d	74 20		 je	 SHORT $LN9@SetThrowMe
  0008f	8b 8b 98 08 00
	00		 mov	 ecx, DWORD PTR [ebx+2200]
  00095	8d 45 9c	 lea	 eax, DWORD PTR _qtLinkRotOffset$[ebp]
  00098	50		 push	 eax
  00099	8d 45 d8	 lea	 eax, DWORD PTR _vLinkPosOffset$[ebp]
  0009c	50		 push	 eax
  0009d	8d 45 ac	 lea	 eax, DWORD PTR _szLinkBiped$[ebp]
  000a0	50		 push	 eax
  000a1	ff 15 00 00 00
	00		 call	 DWORD PTR __imp_?GetFirstLinkOffset@ioEffect@@QAE_NAAVioHashString@@AAUD3DXVECTOR3@@AAUD3DXQUATERNION@@@Z
  000a7	c6 45 c7 01	 mov	 BYTE PTR $T531386[ebp], 1
  000ab	84 c0		 test	 al, al
  000ad	75 04		 jne	 SHORT $LN10@SetThrowMe
$LN9@SetThrowMe:
  000af	c6 45 c7 00	 mov	 BYTE PTR $T531386[ebp], 0
$LN10@SetThrowMe:
  000b3	8d 4d c8	 lea	 ecx, DWORD PTR $T531387[ebp]
  000b6	89 75 fc	 mov	 DWORD PTR __$EHRec$[ebp+8], esi
  000b9	ff 15 00 00 00
	00		 call	 DWORD PTR __imp_??1ioHashString@@QAE@XZ
  000bf	80 7d c7 00	 cmp	 BYTE PTR $T531386[ebp], 0
  000c3	0f 84 4a 01 00
	00		 je	 $LN1@SetThrowMe

; 63   : 	{
; 64   : 		ioBiped *pLinked = pOwner->GetGroup()->GetBiped( szLinkBiped );

  000c9	8b 45 c0	 mov	 eax, DWORD PTR _pOwner$[ebp]
  000cc	8b 48 04	 mov	 ecx, DWORD PTR [eax+4]
  000cf	8d 45 ac	 lea	 eax, DWORD PTR _szLinkBiped$[ebp]
  000d2	50		 push	 eax
  000d3	ff 15 00 00 00
	00		 call	 DWORD PTR __imp_?GetBiped@ioEntityGroup@@QAEPAVioBiped@@ABVioHashString@@@Z
  000d9	8b f8		 mov	 edi, eax

; 65   : 		if( pLinked )

  000db	3b fe		 cmp	 edi, esi
  000dd	0f 84 30 01 00
	00		 je	 $LN1@SetThrowMe

; 66   : 		{
; 67   : 			vLinkPosOffset = pLinked->GetDerivedOrientation() * vLinkPosOffset + pLinked->GetDerivedPosition();

  000e3	8b 07		 mov	 eax, DWORD PTR [edi]
  000e5	8b cf		 mov	 ecx, edi
  000e7	ff 50 7c	 call	 DWORD PTR [eax+124]
  000ea	8b f0		 mov	 esi, eax
  000ec	8d 45 d8	 lea	 eax, DWORD PTR _vLinkPosOffset$[ebp]
  000ef	50		 push	 eax
  000f0	8b 07		 mov	 eax, DWORD PTR [edi]
  000f2	8b cf		 mov	 ecx, edi
  000f4	ff 50 78	 call	 DWORD PTR [eax+120]
  000f7	50		 push	 eax
  000f8	8d 45 e4	 lea	 eax, DWORD PTR $T530553[ebp]
  000fb	50		 push	 eax
  000fc	ff 15 00 00 00
	00		 call	 DWORD PTR __imp_??D@YA?AUD3DXVECTOR3@@ABUD3DXQUATERNION@@ABU0@@Z
  00102	f3 0f 10 06	 movss	 xmm0, DWORD PTR [esi]
  00106	f3 0f 10 08	 movss	 xmm1, DWORD PTR [eax]
  0010a	f3 0f 10 50 04	 movss	 xmm2, DWORD PTR [eax+4]
  0010f	f3 0f 10 58 08	 movss	 xmm3, DWORD PTR [eax+8]

; 68   : 			vLinkPosOffset = vLinkPosOffset * pOwner->GetWorldScale();

  00114	8b 4d c0	 mov	 ecx, DWORD PTR _pOwner$[ebp]
  00117	0f 5a c9	 cvtps2pd xmm1, xmm1
  0011a	0f 5a c0	 cvtps2pd xmm0, xmm0
  0011d	f2 0f 58 c1	 addsd	 xmm0, xmm1
  00121	f3 0f 10 4e 04	 movss	 xmm1, DWORD PTR [esi+4]
  00126	0f 5a d2	 cvtps2pd xmm2, xmm2
  00129	0f 5a c9	 cvtps2pd xmm1, xmm1
  0012c	f2 0f 58 ca	 addsd	 xmm1, xmm2
  00130	f3 0f 10 56 08	 movss	 xmm2, DWORD PTR [esi+8]
  00135	0f 5a d2	 cvtps2pd xmm2, xmm2
  00138	0f 5a db	 cvtps2pd xmm3, xmm3
  0013b	f2 0f 58 d3	 addsd	 xmm2, xmm3
  0013f	66 0f 5a c0	 cvtpd2ps xmm0, xmm0
  00143	f3 0f 11 45 e4	 movss	 DWORD PTR $T530554[ebp], xmm0
  00148	66 0f 5a c9	 cvtpd2ps xmm1, xmm1
  0014c	f3 0f 11 4d e8	 movss	 DWORD PTR $T530554[ebp+4], xmm1
  00151	66 0f 5a d2	 cvtpd2ps xmm2, xmm2
  00155	f3 0f 11 55 ec	 movss	 DWORD PTR $T530554[ebp+8], xmm2
  0015a	8d 75 e4	 lea	 esi, DWORD PTR $T530554[ebp]
  0015d	8d 7d d8	 lea	 edi, DWORD PTR _vLinkPosOffset$[ebp]
  00160	a5		 movsd
  00161	a5		 movsd
  00162	a5		 movsd
  00163	8b 01		 mov	 eax, DWORD PTR [ecx]
  00165	83 c4 0c	 add	 esp, 12			; 0000000cH
  00168	ff 50 78	 call	 DWORD PTR [eax+120]
  0016b	50		 push	 eax
  0016c	8d 45 d8	 lea	 eax, DWORD PTR _vLinkPosOffset$[ebp]
  0016f	50		 push	 eax
  00170	8d 45 e4	 lea	 eax, DWORD PTR $T530555[ebp]
  00173	50		 push	 eax
  00174	ff 15 00 00 00
	00		 call	 DWORD PTR __imp_??D@YA?AUD3DXVECTOR3@@ABU0@0@Z
  0017a	8b f0		 mov	 esi, eax
  0017c	8d 7d d8	 lea	 edi, DWORD PTR _vLinkPosOffset$[ebp]
  0017f	a5		 movsd
  00180	a5		 movsd
  00181	a5		 movsd

; 69   : 			vLinkPosOffset = pOwner->GetWorldOrientation() * vLinkPosOffset + pOwner->GetWorldPosition();

  00182	8b 7d c0	 mov	 edi, DWORD PTR _pOwner$[ebp]
  00185	8b 07		 mov	 eax, DWORD PTR [edi]
  00187	83 c4 0c	 add	 esp, 12			; 0000000cH
  0018a	8b cf		 mov	 ecx, edi
  0018c	ff 50 70	 call	 DWORD PTR [eax+112]
  0018f	8b f0		 mov	 esi, eax
  00191	8d 45 d8	 lea	 eax, DWORD PTR _vLinkPosOffset$[ebp]
  00194	50		 push	 eax
  00195	8b 07		 mov	 eax, DWORD PTR [edi]
  00197	8b cf		 mov	 ecx, edi
  00199	ff 50 74	 call	 DWORD PTR [eax+116]
  0019c	50		 push	 eax
  0019d	8d 45 cc	 lea	 eax, DWORD PTR $T530556[ebp]
  001a0	50		 push	 eax
  001a1	ff 15 00 00 00
	00		 call	 DWORD PTR __imp_??D@YA?AUD3DXVECTOR3@@ABUD3DXQUATERNION@@ABU0@@Z
  001a7	f3 0f 10 06	 movss	 xmm0, DWORD PTR [esi]
  001ab	f3 0f 10 08	 movss	 xmm1, DWORD PTR [eax]
  001af	f3 0f 10 50 04	 movss	 xmm2, DWORD PTR [eax+4]
  001b4	0f 5a c9	 cvtps2pd xmm1, xmm1
  001b7	0f 5a c0	 cvtps2pd xmm0, xmm0
  001ba	f2 0f 58 c1	 addsd	 xmm0, xmm1
  001be	f3 0f 10 4e 04	 movss	 xmm1, DWORD PTR [esi+4]
  001c3	0f 5a c9	 cvtps2pd xmm1, xmm1
  001c6	0f 5a d2	 cvtps2pd xmm2, xmm2
  001c9	83 c4 0c	 add	 esp, 12			; 0000000cH
  001cc	66 0f 5a c0	 cvtpd2ps xmm0, xmm0
  001d0	f2 0f 58 ca	 addsd	 xmm1, xmm2
  001d4	f3 0f 10 56 08	 movss	 xmm2, DWORD PTR [esi+8]
  001d9	f3 0f 10 58 08	 movss	 xmm3, DWORD PTR [eax+8]
  001de	0f 5a d2	 cvtps2pd xmm2, xmm2
  001e1	0f 5a db	 cvtps2pd xmm3, xmm3
  001e4	f2 0f 58 d3	 addsd	 xmm2, xmm3
  001e8	f3 0f 11 45 e4	 movss	 DWORD PTR $T530557[ebp], xmm0
  001ed	66 0f 5a c9	 cvtpd2ps xmm1, xmm1
  001f1	f3 0f 11 4d e8	 movss	 DWORD PTR $T530557[ebp+4], xmm1
  001f6	66 0f 5a d2	 cvtpd2ps xmm2, xmm2
  001fa	f3 0f 11 55 ec	 movss	 DWORD PTR $T530557[ebp+8], xmm2
  001ff	8d 75 e4	 lea	 esi, DWORD PTR $T530557[ebp]
  00202	8d 7d d8	 lea	 edi, DWORD PTR _vLinkPosOffset$[ebp]
  00205	a5		 movsd
  00206	a5		 movsd

; 70   : 			SetPosition( vLinkPosOffset );

  00207	8d 45 d8	 lea	 eax, DWORD PTR _vLinkPosOffset$[ebp]
  0020a	50		 push	 eax
  0020b	8b cb		 mov	 ecx, ebx
  0020d	a5		 movsd
  0020e	e8 00 00 00 00	 call	 ?SetPosition@ioWeapon@@QAEXABUD3DXVECTOR3@@@Z ; ioWeapon::SetPosition
$LN1@SetThrowMe:

; 71   : 		}
; 72   : 	}
; 73   : 
; 74   : 	m_pThrowMesh->UpdateBounds( true );

  00213	8b 8b 98 08 00
	00		 mov	 ecx, DWORD PTR [ebx+2200]
  00219	83 c1 14	 add	 ecx, 20			; 00000014H
  0021c	8b 01		 mov	 eax, DWORD PTR [ecx]
  0021e	6a 01		 push	 1
  00220	ff 50 44	 call	 DWORD PTR [eax+68]

; 75   : 
; 76   : 	AddEffectEvent( m_pThrowMesh );

  00223	ff b3 98 08 00
	00		 push	 DWORD PTR [ebx+2200]
  00229	8b 03		 mov	 eax, DWORD PTR [ebx]
  0022b	8b cb		 mov	 ecx, ebx
  0022d	ff 90 68 01 00
	00		 call	 DWORD PTR [eax+360]

; 77   : 	return true;

  00233	83 4d fc ff	 or	 DWORD PTR __$EHRec$[ebp+8], -1
  00237	8d 4d ac	 lea	 ecx, DWORD PTR _szLinkBiped$[ebp]
  0023a	ff 15 00 00 00
	00		 call	 DWORD PTR __imp_??1ioHashString@@QAE@XZ
  00240	b0 01		 mov	 al, 1
$LN5@SetThrowMe:

; 78   : }

  00242	e8 00 00 00 00	 call	 __EH_epilog3_GS
  00247	c2 04 00	 ret	 4
_TEXT	ENDS
;	COMDAT text$x
text$x	SEGMENT
__unwindfunclet$?SetThrowMesh@ioThrowReturnWeapon@@IAE_NABVioHashString@@@Z$0:
  00000	8d 4d ac	 lea	 ecx, DWORD PTR _szLinkBiped$[ebp]
  00003	ff 25 00 00 00
	00		 jmp	 DWORD PTR __imp_??1ioHashString@@QAE@XZ
__unwindfunclet$?SetThrowMesh@ioThrowReturnWeapon@@IAE_NABVioHashString@@@Z$1:
  00009	8b 45 bc	 mov	 eax, DWORD PTR $T531392[ebp]
  0000c	83 e0 01	 and	 eax, 1
  0000f	0f 84 0d 00 00
	00		 je	 $LN13@SetThrowMe
  00015	83 65 bc fe	 and	 DWORD PTR $T531392[ebp], -2 ; fffffffeH
  00019	8d 4d c8	 lea	 ecx, DWORD PTR $T531387[ebp]
  0001c	ff 25 00 00 00
	00		 jmp	 DWORD PTR __imp_??1ioHashString@@QAE@XZ
$LN13@SetThrowMe:
  00022	c3		 ret	 0
__ehhandler$?SetThrowMesh@ioThrowReturnWeapon@@IAE_NABVioHashString@@@Z:
  00023	8b 54 24 08	 mov	 edx, DWORD PTR [esp+8]
  00027	8d 42 0c	 lea	 eax, DWORD PTR [edx+12]
  0002a	8b 4a 98	 mov	 ecx, DWORD PTR [edx-104]
  0002d	33 c8		 xor	 ecx, eax
  0002f	e8 00 00 00 00	 call	 @__security_check_cookie@4
  00034	8b 4a fc	 mov	 ecx, DWORD PTR [edx-4]
  00037	33 c8		 xor	 ecx, eax
  00039	e8 00 00 00 00	 call	 @__security_check_cookie@4
  0003e	b8 00 00 00 00	 mov	 eax, OFFSET __ehfuncinfo$?SetThrowMesh@ioThrowReturnWeapon@@IAE_NABVioHashString@@@Z
  00043	e9 00 00 00 00	 jmp	 ___CxxFrameHandler3
text$x	ENDS
?SetThrowMesh@ioThrowReturnWeapon@@IAE_NABVioHashString@@@Z ENDP ; ioThrowReturnWeapon::SetThrowMesh
PUBLIC	__real@4f800000
PUBLIC	__$ArrayPad$
EXTRN	?SetOrientation@ioWeapon@@QAEXABUD3DXQUATERNION@@@Z:PROC ; ioWeapon::SetOrientation
EXTRN	__imp_?CalcDirectionQuaternion@ioMath@@SAXAAUD3DXQUATERNION@@ABUD3DXVECTOR3@@@Z:PROC
EXTRN	___security_cookie:DWORD
;	COMDAT __real@4f800000
; File c:\program files (x86)\microsoft directx sdk (june 2010)\include\d3dx9math.inl
CONST	SEGMENT
__real@4f800000 DD 04f800000r			; 4.29497e+009
; Function compile flags: /Ogsp
; File d:\lost saga for developer\youtube\tutorial\source\src\lsclient\iothrowreturnweapon.cpp
CONST	ENDS
;	COMDAT ?SetMoveDir@ioThrowReturnWeapon@@UAEXABUD3DXVECTOR3@@@Z
_TEXT	SEGMENT
_qtRot$ = -36						; size = 16
tv210 = -20						; size = 4
$T530585 = -16						; size = 12
$T530583 = -16						; size = 12
__$ArrayPad$ = -4					; size = 4
_vDir$ = 8						; size = 4
?SetMoveDir@ioThrowReturnWeapon@@UAEXABUD3DXVECTOR3@@@Z PROC ; ioThrowReturnWeapon::SetMoveDir, COMDAT
; _this$ = ecx

; 102  : {

  00000	55		 push	 ebp
  00001	8b ec		 mov	 ebp, esp
  00003	83 ec 24	 sub	 esp, 36			; 00000024H
  00006	a1 00 00 00 00	 mov	 eax, DWORD PTR ___security_cookie
  0000b	33 c5		 xor	 eax, ebp
  0000d	89 45 fc	 mov	 DWORD PTR __$ArrayPad$[ebp], eax
  00010	8b 45 08	 mov	 eax, DWORD PTR _vDir$[ebp]
  00013	53		 push	 ebx
  00014	56		 push	 esi
  00015	57		 push	 edi
  00016	8b d9		 mov	 ebx, ecx

; 103  : 	m_vMoveDir = vDir;

  00018	8b f0		 mov	 esi, eax
  0001a	8d bb 9c 08 00
	00		 lea	 edi, DWORD PTR [ebx+2204]
  00020	a5		 movsd
  00021	a5		 movsd
  00022	a5		 movsd

; 104  : 
; 105  : 	D3DXQUATERNION qtRot;
; 106  : 	ioMath::CalcDirectionQuaternion( qtRot, -vDir );

  00023	f3 0f 10 08	 movss	 xmm1, DWORD PTR [eax]
  00027	f3 0f 10 05 00
	00 00 00	 movss	 xmm0, DWORD PTR __mask@@NegFloat@
  0002f	0f 57 c8	 xorps	 xmm1, xmm0
  00032	f3 0f 11 4d f0	 movss	 DWORD PTR $T530583[ebp], xmm1
  00037	f3 0f 10 48 04	 movss	 xmm1, DWORD PTR [eax+4]
  0003c	0f 57 c8	 xorps	 xmm1, xmm0
  0003f	f3 0f 11 4d f4	 movss	 DWORD PTR $T530583[ebp+4], xmm1
  00044	f3 0f 10 48 08	 movss	 xmm1, DWORD PTR [eax+8]
  00049	8d 45 f0	 lea	 eax, DWORD PTR $T530583[ebp]
  0004c	50		 push	 eax
  0004d	8d 45 dc	 lea	 eax, DWORD PTR _qtRot$[ebp]
  00050	0f 57 c8	 xorps	 xmm1, xmm0
  00053	50		 push	 eax
  00054	f3 0f 11 4d f8	 movss	 DWORD PTR $T530583[ebp+8], xmm1
  00059	ff 15 00 00 00
	00		 call	 DWORD PTR __imp_?CalcDirectionQuaternion@ioMath@@SAXAAUD3DXQUATERNION@@ABUD3DXVECTOR3@@@Z
  0005f	59		 pop	 ecx
  00060	59		 pop	 ecx

; 107  : 	SetOrientation( qtRot );

  00061	8d 45 dc	 lea	 eax, DWORD PTR _qtRot$[ebp]
  00064	50		 push	 eax
  00065	8b cb		 mov	 ecx, ebx
  00067	e8 00 00 00 00	 call	 ?SetOrientation@ioWeapon@@QAEXABUD3DXQUATERNION@@@Z ; ioWeapon::SetOrientation

; 108  : 
; 109  : 	m_vRollAxis	= D3DXVECTOR3( 0.0f, FLOAT1, 0.0f );

  0006c	b8 01 00 00 00	 mov	 eax, 1
  00071	0f 57 c0	 xorps	 xmm0, xmm0
  00074	89 45 ec	 mov	 DWORD PTR tv210[ebp], eax
  00077	db 45 ec	 fild	 DWORD PTR tv210[ebp]
  0007a	f3 0f 11 45 f0	 movss	 DWORD PTR $T530585[ebp], xmm0
  0007f	85 c0		 test	 eax, eax
  00081	79 06		 jns	 SHORT $LN13@SetMoveDir
  00083	d8 05 00 00 00
	00		 fadd	 DWORD PTR __real@4f800000
$LN13@SetMoveDir:

; 110  : }

  00089	8b 4d fc	 mov	 ecx, DWORD PTR __$ArrayPad$[ebp]
  0008c	d9 5d f4	 fstp	 DWORD PTR $T530585[ebp+4]
  0008f	f3 0f 11 45 f8	 movss	 DWORD PTR $T530585[ebp+8], xmm0
  00094	8d bb a8 08 00
	00		 lea	 edi, DWORD PTR [ebx+2216]
  0009a	8d 75 f0	 lea	 esi, DWORD PTR $T530585[ebp]
  0009d	a5		 movsd
  0009e	a5		 movsd
  0009f	a5		 movsd
  000a0	5f		 pop	 edi
  000a1	5e		 pop	 esi
  000a2	33 cd		 xor	 ecx, ebp
  000a4	5b		 pop	 ebx
  000a5	e8 00 00 00 00	 call	 @__security_check_cookie@4
  000aa	c9		 leave
  000ab	c2 04 00	 ret	 4
?SetMoveDir@ioThrowReturnWeapon@@UAEXABUD3DXVECTOR3@@@Z ENDP ; ioThrowReturnWeapon::SetMoveDir
_TEXT	ENDS
PUBLIC	_this$GSCopy$
PUBLIC	__$ArrayPad$
PUBLIC	?RotateMoveDir@ioThrowReturnWeapon@@QAEXM@Z	; ioThrowReturnWeapon::RotateMoveDir
EXTRN	_D3DXQuaternionRotationAxis@12:PROC
; Function compile flags: /Ogsp
;	COMDAT ?RotateMoveDir@ioThrowReturnWeapon@@QAEXM@Z
_TEXT	SEGMENT
tv436 = -64						; size = 4
_qtRot$ = -60						; size = 16
_this$GSCopy$ = -44					; size = 4
$T530598 = -40						; size = 12
$T530592 = -40						; size = 12
_vAxis$ = -28						; size = 12
_v$531501 = -16						; size = 12
$T530599 = -16						; size = 12
__$ArrayPad$ = -4					; size = 4
_fAngle$ = 8						; size = 4
?RotateMoveDir@ioThrowReturnWeapon@@QAEXM@Z PROC	; ioThrowReturnWeapon::RotateMoveDir, COMDAT
; _this$ = ecx

; 113  : {

  00000	55		 push	 ebp
  00001	8b ec		 mov	 ebp, esp
  00003	83 ec 40	 sub	 esp, 64			; 00000040H
  00006	a1 00 00 00 00	 mov	 eax, DWORD PTR ___security_cookie
  0000b	33 c5		 xor	 eax, ebp
  0000d	89 45 fc	 mov	 DWORD PTR __$ArrayPad$[ebp], eax
  00010	53		 push	 ebx
  00011	56		 push	 esi
  00012	8b d9		 mov	 ebx, ecx
  00014	57		 push	 edi
  00015	89 5d d4	 mov	 DWORD PTR _this$GSCopy$[ebp], ebx

; 114  : 	D3DXVECTOR3 vAxis;
; 115  : 	D3DXVec3Cross( &vAxis, &m_vMoveDir, &D3DXVECTOR3( 0.0f, -FLOAT1, 0.0f ) );

  00018	b8 01 00 00 00	 mov	 eax, 1
  0001d	89 45 c0	 mov	 DWORD PTR tv436[ebp], eax
  00020	db 45 c0	 fild	 DWORD PTR tv436[ebp]
  00023	85 c0		 test	 eax, eax
  00025	79 06		 jns	 SHORT $LN21@RotateMove
  00027	d8 05 00 00 00
	00		 fadd	 DWORD PTR __real@4f800000
$LN21@RotateMove:
  0002d	f3 0f 10 83 a0
	08 00 00	 movss	 xmm0, DWORD PTR [ebx+2208]
  00035	d9 e0		 fchs
  00037	f3 0f 10 93 a4
	08 00 00	 movss	 xmm2, DWORD PTR [ebx+2212]
  0003f	d9 5d dc	 fstp	 DWORD PTR $T530592[ebp+4]
  00042	f3 0f 10 65 dc	 movss	 xmm4, DWORD PTR $T530592[ebp+4]
  00047	0f 5a c8	 cvtps2pd xmm1, xmm0
  0004a	0f 57 c0	 xorps	 xmm0, xmm0
  0004d	f2 0f 59 c8	 mulsd	 xmm1, xmm0
  00051	0f 5a da	 cvtps2pd xmm3, xmm2
  00054	81 c3 9c 08 00
	00		 add	 ebx, 2204		; 0000089cH
  0005a	0f 5a e4	 cvtps2pd xmm4, xmm4
  0005d	f2 0f 59 dc	 mulsd	 xmm3, xmm4
  00061	66 0f 28 e1	 movapd	 xmm4, xmm1
  00065	f2 0f 5c e3	 subsd	 xmm4, xmm3
  00069	0f 57 db	 xorps	 xmm3, xmm3
  0006c	f2 0f 5a dc	 cvtsd2ss xmm3, xmm4
  00070	f3 0f 11 5d f0	 movss	 DWORD PTR _v$531501[ebp], xmm3
  00075	f3 0f 10 1b	 movss	 xmm3, DWORD PTR [ebx]
  00079	0f 5a d2	 cvtps2pd xmm2, xmm2
  0007c	f2 0f 59 d0	 mulsd	 xmm2, xmm0
  00080	0f 5a e3	 cvtps2pd xmm4, xmm3
  00083	f2 0f 59 e0	 mulsd	 xmm4, xmm0
  00087	f2 0f 5c d4	 subsd	 xmm2, xmm4
  0008b	66 0f 5a c2	 cvtpd2ps xmm0, xmm2
  0008f	f3 0f 10 55 dc	 movss	 xmm2, DWORD PTR $T530592[ebp+4]
  00094	f3 0f 11 45 f4	 movss	 DWORD PTR _v$531501[ebp+4], xmm0
  00099	0f 5a d2	 cvtps2pd xmm2, xmm2
  0009c	8d 75 f0	 lea	 esi, DWORD PTR _v$531501[ebp]
  0009f	8d 7d e4	 lea	 edi, DWORD PTR _vAxis$[ebp]
  000a2	0f 5a c3	 cvtps2pd xmm0, xmm3
  000a5	f2 0f 59 c2	 mulsd	 xmm0, xmm2
  000a9	f2 0f 5c c1	 subsd	 xmm0, xmm1
  000ad	66 0f 5a c0	 cvtpd2ps xmm0, xmm0
  000b1	f3 0f 11 45 f8	 movss	 DWORD PTR _v$531501[ebp+8], xmm0

; 116  : 
; 117  : 	D3DXQUATERNION qtRot;
; 118  : 	D3DXQuaternionRotationAxis( &qtRot, &vAxis, DEGtoRAD(fAngle) );

  000b6	f3 0f 10 45 08	 movss	 xmm0, DWORD PTR _fAngle$[ebp]
  000bb	a5		 movsd
  000bc	0f 5a c0	 cvtps2pd xmm0, xmm0
  000bf	f2 0f 59 05 00
	00 00 00	 mulsd	 xmm0, QWORD PTR __real@3f91df46a2526c7a
  000c7	51		 push	 ecx
  000c8	66 0f 5a c0	 cvtpd2ps xmm0, xmm0
  000cc	f3 0f 11 04 24	 movss	 DWORD PTR [esp], xmm0
  000d1	8d 45 e4	 lea	 eax, DWORD PTR _vAxis$[ebp]
  000d4	a5		 movsd
  000d5	50		 push	 eax
  000d6	8d 45 c4	 lea	 eax, DWORD PTR _qtRot$[ebp]
  000d9	50		 push	 eax
  000da	a5		 movsd
  000db	e8 00 00 00 00	 call	 _D3DXQuaternionRotationAxis@12

; 119  : 	m_vMoveDir = qtRot * m_vMoveDir;

  000e0	53		 push	 ebx
  000e1	8d 45 c4	 lea	 eax, DWORD PTR _qtRot$[ebp]
  000e4	50		 push	 eax
  000e5	8d 45 d8	 lea	 eax, DWORD PTR $T530598[ebp]
  000e8	50		 push	 eax
  000e9	ff 15 00 00 00
	00		 call	 DWORD PTR __imp_??D@YA?AUD3DXVECTOR3@@ABUD3DXQUATERNION@@ABU0@@Z
  000ef	8b f0		 mov	 esi, eax
  000f1	8b fb		 mov	 edi, ebx
  000f3	a5		 movsd
  000f4	a5		 movsd
  000f5	a5		 movsd

; 120  : 
; 121  : 	ioMath::CalcDirectionQuaternion( qtRot, -m_vMoveDir );

  000f6	f3 0f 10 05 00
	00 00 00	 movss	 xmm0, DWORD PTR __mask@@NegFloat@
  000fe	f3 0f 10 0b	 movss	 xmm1, DWORD PTR [ebx]
  00102	0f 57 c8	 xorps	 xmm1, xmm0
  00105	f3 0f 11 4d f0	 movss	 DWORD PTR $T530599[ebp], xmm1
  0010a	f3 0f 10 4b 04	 movss	 xmm1, DWORD PTR [ebx+4]
  0010f	0f 57 c8	 xorps	 xmm1, xmm0
  00112	8d 45 f0	 lea	 eax, DWORD PTR $T530599[ebp]
  00115	50		 push	 eax
  00116	f3 0f 11 4d f4	 movss	 DWORD PTR $T530599[ebp+4], xmm1
  0011b	f3 0f 10 4b 08	 movss	 xmm1, DWORD PTR [ebx+8]
  00120	8d 45 c4	 lea	 eax, DWORD PTR _qtRot$[ebp]
  00123	0f 57 c8	 xorps	 xmm1, xmm0
  00126	50		 push	 eax
  00127	f3 0f 11 4d f8	 movss	 DWORD PTR $T530599[ebp+8], xmm1
  0012c	ff 15 00 00 00
	00		 call	 DWORD PTR __imp_?CalcDirectionQuaternion@ioMath@@SAXAAUD3DXQUATERNION@@ABUD3DXVECTOR3@@@Z

; 122  : 	SetOrientation( qtRot );

  00132	8b 4d d4	 mov	 ecx, DWORD PTR _this$GSCopy$[ebp]
  00135	83 c4 14	 add	 esp, 20			; 00000014H
  00138	8d 45 c4	 lea	 eax, DWORD PTR _qtRot$[ebp]
  0013b	50		 push	 eax
  0013c	e8 00 00 00 00	 call	 ?SetOrientation@ioWeapon@@QAEXABUD3DXQUATERNION@@@Z ; ioWeapon::SetOrientation
  00141	5f		 pop	 edi
  00142	5e		 pop	 esi

; 123  : }

  00143	8b 4d fc	 mov	 ecx, DWORD PTR __$ArrayPad$[ebp]
  00146	33 cd		 xor	 ecx, ebp
  00148	5b		 pop	 ebx
  00149	e8 00 00 00 00	 call	 @__security_check_cookie@4
  0014e	c9		 leave
  0014f	c2 04 00	 ret	 4
?RotateMoveDir@ioThrowReturnWeapon@@QAEXM@Z ENDP	; ioThrowReturnWeapon::RotateMoveDir
_TEXT	ENDS
PUBLIC	__$ArrayPad$
PUBLIC	??$LoadInt_e@$0N@@ioINILoader@@QAEHAAY0N@$$CBDH@Z ; ioINILoader::LoadInt_e<13>
EXTRN	__imp_?LoadInt@ioINILoader@@QAEHPBDH@Z:PROC
; Function compile flags: /Ogsp
; File d:\lost saga for developer\youtube\tutorial\source\src\io3dengine\ioiniloader.h
;	COMDAT ??$LoadInt_e@$0N@@ioINILoader@@QAEHAAY0N@$$CBDH@Z
_TEXT	SEGMENT
__k$ = -24						; size = 13
__$ArrayPad$ = -4					; size = 4
_k$ = 8							; size = 4
_i$ = 12						; size = 4
??$LoadInt_e@$0N@@ioINILoader@@QAEHAAY0N@$$CBDH@Z PROC	; ioINILoader::LoadInt_e<13>, COMDAT
; _this$ = ecx

; 118  : 	{

  00000	55		 push	 ebp
  00001	8b ec		 mov	 ebp, esp
  00003	83 ec 18	 sub	 esp, 24			; 00000018H
  00006	a1 00 00 00 00	 mov	 eax, DWORD PTR ___security_cookie
  0000b	33 c5		 xor	 eax, ebp
  0000d	89 45 fc	 mov	 DWORD PTR __$ArrayPad$[ebp], eax
  00010	8b 45 08	 mov	 eax, DWORD PTR _k$[ebp]

; 119  : 		_ENCSTR(k, _k);

  00013	8a 10		 mov	 dl, BYTE PTR [eax]
  00015	56		 push	 esi
  00016	8b f1		 mov	 esi, ecx
  00018	84 d2		 test	 dl, dl
  0001a	0f 84 4d 01 00
	00		 je	 $LN96@LoadInt_e
  00020	80 f2 ed	 xor	 dl, -19			; ffffffedH
  00023	88 55 e8	 mov	 BYTE PTR __k$[ebp], dl
  00026	8a 50 01	 mov	 dl, BYTE PTR [eax+1]
  00029	84 d2		 test	 dl, dl
  0002b	0f 84 36 01 00
	00		 je	 $LN95@LoadInt_e
  00031	b1 ec		 mov	 cl, -20			; ffffffecH
  00033	32 d1		 xor	 dl, cl
  00035	88 55 e9	 mov	 BYTE PTR __k$[ebp+1], dl
  00038	8a 50 02	 mov	 dl, BYTE PTR [eax+2]
  0003b	84 d2		 test	 dl, dl
  0003d	0f 84 1e 01 00
	00		 je	 $LN94@LoadInt_e
  00043	80 f2 eb	 xor	 dl, -21			; ffffffebH
  00046	88 55 ea	 mov	 BYTE PTR __k$[ebp+2], dl
  00049	8a 50 03	 mov	 dl, BYTE PTR [eax+3]
  0004c	84 d2		 test	 dl, dl
  0004e	0f 84 07 01 00
	00		 je	 $LN93@LoadInt_e
  00054	80 f2 ea	 xor	 dl, -22			; ffffffeaH
  00057	88 55 eb	 mov	 BYTE PTR __k$[ebp+3], dl
  0005a	8a 50 04	 mov	 dl, BYTE PTR [eax+4]
  0005d	84 d2		 test	 dl, dl
  0005f	0f 84 f0 00 00
	00		 je	 $LN92@LoadInt_e
  00065	80 f2 ed	 xor	 dl, -19			; ffffffedH
  00068	88 55 ec	 mov	 BYTE PTR __k$[ebp+4], dl
  0006b	8a 50 05	 mov	 dl, BYTE PTR [eax+5]
  0006e	84 d2		 test	 dl, dl
  00070	0f 84 da 00 00
	00		 je	 $LN91@LoadInt_e
  00076	32 d1		 xor	 dl, cl
  00078	88 55 ed	 mov	 BYTE PTR __k$[ebp+5], dl
  0007b	8a 50 06	 mov	 dl, BYTE PTR [eax+6]
  0007e	84 d2		 test	 dl, dl
  00080	0f 84 c4 00 00
	00		 je	 $LN90@LoadInt_e
  00086	80 f2 eb	 xor	 dl, -21			; ffffffebH
  00089	88 55 ee	 mov	 BYTE PTR __k$[ebp+6], dl
  0008c	8a 50 07	 mov	 dl, BYTE PTR [eax+7]
  0008f	84 d2		 test	 dl, dl
  00091	0f 84 ad 00 00
	00		 je	 $LN89@LoadInt_e
  00097	80 f2 ea	 xor	 dl, -22			; ffffffeaH
  0009a	88 55 ef	 mov	 BYTE PTR __k$[ebp+7], dl
  0009d	8a 50 08	 mov	 dl, BYTE PTR [eax+8]
  000a0	84 d2		 test	 dl, dl
  000a2	0f 84 96 00 00
	00		 je	 $LN88@LoadInt_e
  000a8	80 f2 ed	 xor	 dl, -19			; ffffffedH
  000ab	88 55 f0	 mov	 BYTE PTR __k$[ebp+8], dl
  000ae	8a 50 09	 mov	 dl, BYTE PTR [eax+9]
  000b1	84 d2		 test	 dl, dl
  000b3	0f 84 80 00 00
	00		 je	 $LN87@LoadInt_e
  000b9	32 d1		 xor	 dl, cl
  000bb	88 55 f1	 mov	 BYTE PTR __k$[ebp+9], dl
  000be	8a 50 0a	 mov	 dl, BYTE PTR [eax+10]
  000c1	84 d2		 test	 dl, dl
  000c3	74 6e		 je	 SHORT $LN86@LoadInt_e
  000c5	80 f2 eb	 xor	 dl, -21			; ffffffebH
  000c8	88 55 f2	 mov	 BYTE PTR __k$[ebp+10], dl
  000cb	8a 50 0b	 mov	 dl, BYTE PTR [eax+11]
  000ce	84 d2		 test	 dl, dl
  000d0	74 5b		 je	 SHORT $LN85@LoadInt_e
  000d2	80 f2 ea	 xor	 dl, -22			; ffffffeaH
  000d5	80 78 0c 00	 cmp	 BYTE PTR [eax+12], 0
  000d9	88 55 f3	 mov	 BYTE PTR __k$[ebp+11], dl
  000dc	0f 84 8f 00 00
	00		 je	 $LN1@LoadInt_e
  000e2	8a 50 0d	 mov	 dl, BYTE PTR [eax+13]
  000e5	84 d2		 test	 dl, dl
  000e7	74 3f		 je	 SHORT $LN83@LoadInt_e
  000e9	32 d1		 xor	 dl, cl
  000eb	88 55 f5	 mov	 BYTE PTR __k$[ebp+13], dl
  000ee	8a 50 0e	 mov	 dl, BYTE PTR [eax+14]
  000f1	84 d2		 test	 dl, dl
  000f3	74 2d		 je	 SHORT $LN82@LoadInt_e
  000f5	80 f2 eb	 xor	 dl, -21			; ffffffebH
  000f8	88 55 f6	 mov	 BYTE PTR __k$[ebp+14], dl
  000fb	8a 50 0f	 mov	 dl, BYTE PTR [eax+15]
  000fe	84 d2		 test	 dl, dl
  00100	74 1a		 je	 SHORT $LN81@LoadInt_e
  00102	8a 40 10	 mov	 al, BYTE PTR [eax+16]
  00105	80 f2 ea	 xor	 dl, -22			; ffffffeaH
  00108	88 55 f7	 mov	 BYTE PTR __k$[ebp+15], dl
  0010b	84 c0		 test	 al, al
  0010d	74 07		 je	 SHORT $LN80@LoadInt_e
  0010f	34 ed		 xor	 al, -19			; ffffffedH
  00111	88 45 f8	 mov	 BYTE PTR __k$[ebp+16], al
  00114	eb 5b		 jmp	 SHORT $LN1@LoadInt_e
$LN80@LoadInt_e:
  00116	c6 45 f8 ed	 mov	 BYTE PTR __k$[ebp+16], -19 ; ffffffedH
  0011a	eb 55		 jmp	 SHORT $LN1@LoadInt_e
$LN81@LoadInt_e:
  0011c	c6 45 f7 ea	 mov	 BYTE PTR __k$[ebp+15], -22 ; ffffffeaH
  00120	eb 4f		 jmp	 SHORT $LN1@LoadInt_e
$LN82@LoadInt_e:
  00122	c6 45 f6 eb	 mov	 BYTE PTR __k$[ebp+14], -21 ; ffffffebH
  00126	eb 49		 jmp	 SHORT $LN1@LoadInt_e
$LN83@LoadInt_e:
  00128	88 4d f5	 mov	 BYTE PTR __k$[ebp+13], cl
  0012b	eb 44		 jmp	 SHORT $LN1@LoadInt_e
$LN85@LoadInt_e:
  0012d	c6 45 f3 ea	 mov	 BYTE PTR __k$[ebp+11], -22 ; ffffffeaH
  00131	eb 3e		 jmp	 SHORT $LN1@LoadInt_e
$LN86@LoadInt_e:
  00133	c6 45 f2 eb	 mov	 BYTE PTR __k$[ebp+10], -21 ; ffffffebH
  00137	eb 38		 jmp	 SHORT $LN1@LoadInt_e
$LN87@LoadInt_e:
  00139	88 4d f1	 mov	 BYTE PTR __k$[ebp+9], cl
  0013c	eb 33		 jmp	 SHORT $LN1@LoadInt_e
$LN88@LoadInt_e:
  0013e	c6 45 f0 ed	 mov	 BYTE PTR __k$[ebp+8], -19 ; ffffffedH
  00142	eb 2d		 jmp	 SHORT $LN1@LoadInt_e
$LN89@LoadInt_e:
  00144	c6 45 ef ea	 mov	 BYTE PTR __k$[ebp+7], -22 ; ffffffeaH
  00148	eb 27		 jmp	 SHORT $LN1@LoadInt_e
$LN90@LoadInt_e:
  0014a	c6 45 ee eb	 mov	 BYTE PTR __k$[ebp+6], -21 ; ffffffebH
  0014e	eb 21		 jmp	 SHORT $LN1@LoadInt_e
$LN91@LoadInt_e:
  00150	88 4d ed	 mov	 BYTE PTR __k$[ebp+5], cl
  00153	eb 1c		 jmp	 SHORT $LN1@LoadInt_e
$LN92@LoadInt_e:
  00155	c6 45 ec ed	 mov	 BYTE PTR __k$[ebp+4], -19 ; ffffffedH
  00159	eb 16		 jmp	 SHORT $LN1@LoadInt_e
$LN93@LoadInt_e:
  0015b	c6 45 eb ea	 mov	 BYTE PTR __k$[ebp+3], -22 ; ffffffeaH
  0015f	eb 10		 jmp	 SHORT $LN1@LoadInt_e
$LN94@LoadInt_e:
  00161	c6 45 ea eb	 mov	 BYTE PTR __k$[ebp+2], -21 ; ffffffebH
  00165	eb 0a		 jmp	 SHORT $LN1@LoadInt_e
$LN95@LoadInt_e:
  00167	c6 45 e9 ec	 mov	 BYTE PTR __k$[ebp+1], -20 ; ffffffecH
  0016b	eb 04		 jmp	 SHORT $LN1@LoadInt_e
$LN96@LoadInt_e:
  0016d	c6 45 e8 ed	 mov	 BYTE PTR __k$[ebp], -19	; ffffffedH
$LN1@LoadInt_e:
  00171	6a 03		 push	 3
  00173	8d 45 e8	 lea	 eax, DWORD PTR __k$[ebp]
  00176	c6 45 f4 00	 mov	 BYTE PTR __k$[ebp+12], 0
  0017a	5a		 pop	 edx
$LL104@LoadInt_e:
  0017b	81 30 ed ec eb
	ea		 xor	 DWORD PTR [eax], -353637139 ; eaebecedH
  00181	83 c0 04	 add	 eax, 4
  00184	4a		 dec	 edx
  00185	75 f4		 jne	 SHORT $LL104@LoadInt_e

; 120  : 		return LoadInt(_k, i);

  00187	ff 75 0c	 push	 DWORD PTR _i$[ebp]
  0018a	8d 45 e8	 lea	 eax, DWORD PTR __k$[ebp]
  0018d	50		 push	 eax
  0018e	8b ce		 mov	 ecx, esi
  00190	ff 15 00 00 00
	00		 call	 DWORD PTR __imp_?LoadInt@ioINILoader@@QAEHPBDH@Z

; 121  : 	}

  00196	8b 4d fc	 mov	 ecx, DWORD PTR __$ArrayPad$[ebp]
  00199	33 cd		 xor	 ecx, ebp
  0019b	5e		 pop	 esi
  0019c	e8 00 00 00 00	 call	 @__security_check_cookie@4
  001a1	c9		 leave
  001a2	c2 08 00	 ret	 8
??$LoadInt_e@$0N@@ioINILoader@@QAEHAAY0N@$$CBDH@Z ENDP	; ioINILoader::LoadInt_e<13>
_TEXT	ENDS
PUBLIC	??B?$CEncrypt@M@@QAEMXZ				; CEncrypt<float>::operator float
; Function compile flags: /Ogsp
; File d:\lost saga for developer\youtube\tutorial\source\src\lsclient\encryptvalue.h
;	COMDAT ??B?$CEncrypt@M@@QAEMXZ
_TEXT	SEGMENT
_value$ = -4						; size = 4
??B?$CEncrypt@M@@QAEMXZ PROC				; CEncrypt<float>::operator float, COMDAT
; _this$ = ecx

; 134  : 	{

  00000	55		 push	 ebp
  00001	8b ec		 mov	 ebp, esp
  00003	51		 push	 ecx

; 135  : 		type value;
; 136  : 		DecryptValueToPool(&value);

  00004	8d 45 fc	 lea	 eax, DWORD PTR _value$[ebp]
  00007	50		 push	 eax
  00008	e8 00 00 00 00	 call	 ?DecryptValueToPool@?$CEncrypt@M@@QAEXPAM@Z ; CEncrypt<float>::DecryptValueToPool

; 137  : 
; 138  : #ifdef _NOTUSE
; 139  : 		Debug();
; 140  : #endif
; 141  : 		return value;

  0000d	d9 45 fc	 fld	 DWORD PTR _value$[ebp]

; 142  : 	}

  00010	c9		 leave
  00011	c3		 ret	 0
??B?$CEncrypt@M@@QAEMXZ ENDP				; CEncrypt<float>::operator float
_TEXT	ENDS
PUBLIC	??B?$CEncrypt@W4TeamType@@@@QBE?AW4TeamType@@XZ	; CEncrypt<enum TeamType>::operator enum TeamType
; Function compile flags: /Ogsp
;	COMDAT ??B?$CEncrypt@W4TeamType@@@@QBE?AW4TeamType@@XZ
_TEXT	SEGMENT
_value$ = -4						; size = 4
??B?$CEncrypt@W4TeamType@@@@QBE?AW4TeamType@@XZ PROC	; CEncrypt<enum TeamType>::operator enum TeamType, COMDAT
; _this$ = ecx

; 145  : 	{

  00000	55		 push	 ebp
  00001	8b ec		 mov	 ebp, esp
  00003	51		 push	 ecx

; 146  : 		//UJ 130829, const도 똑같이 하면 된다 --start
; 147  : 		type value;
; 148  : 		CEncrypt<type>* pThis = const_cast<CEncrypt<type>*>(this);
; 149  : 		pThis->DecryptValueToPool(&value);

  00004	8d 45 fc	 lea	 eax, DWORD PTR _value$[ebp]
  00007	50		 push	 eax
  00008	e8 00 00 00 00	 call	 ?DecryptValueToPool@?$CEncrypt@W4TeamType@@@@QAEXPAW4TeamType@@@Z ; CEncrypt<enum TeamType>::DecryptValueToPool

; 150  : 		//// const에서 DecryptValueToPool 사용할 수 없으므로 아래와 같이함.
; 151  :  		//type value;
; 152  : 		//char szTempMem[MAX_ENCRYPT];
; 153  : 		//m_RC5.DecryptByte( m_MemPool, szTempMem, max(m_ValueSize, DEFAULT_ENCRYPT) );
; 154  : 		//memcpy( &value, szTempMem, m_ValueSize );
; 155  : 		//UJ --end
; 156  : 
; 157  : #ifdef _NOTUSE
; 158  : 		Debug();
; 159  : #endif
; 160  : 		return value;

  0000d	8b 45 fc	 mov	 eax, DWORD PTR _value$[ebp]

; 161  : 	}

  00010	c9		 leave
  00011	c3		 ret	 0
??B?$CEncrypt@W4TeamType@@@@QBE?AW4TeamType@@XZ ENDP	; CEncrypt<enum TeamType>::operator enum TeamType
_TEXT	ENDS
EXTRN	?InitResource@ioWeapon@@UAE_NXZ:PROC		; ioWeapon::InitResource
; Function compile flags: /Ogsp
; File d:\lost saga for developer\youtube\tutorial\source\src\lsclient\iothrowreturnweapon.cpp
;	COMDAT ?InitResource@ioThrowReturnWeapon@@UAE_NXZ
_TEXT	SEGMENT
?InitResource@ioThrowReturnWeapon@@UAE_NXZ PROC		; ioThrowReturnWeapon::InitResource, COMDAT
; _this$ = ecx

; 35   : {

  00000	56		 push	 esi
  00001	8b f1		 mov	 esi, ecx

; 36   : 	if( ioWeapon::InitResource() )

  00003	e8 00 00 00 00	 call	 ?InitResource@ioWeapon@@UAE_NXZ ; ioWeapon::InitResource
  00008	84 c0		 test	 al, al
  0000a	74 25		 je	 SHORT $LN1@InitResour

; 37   : 	{
; 38   : 		DestroyResource();

  0000c	8b 06		 mov	 eax, DWORD PTR [esi]
  0000e	6a 00		 push	 0
  00010	8b ce		 mov	 ecx, esi
  00012	ff 90 9c 00 00
	00		 call	 DWORD PTR [eax+156]

; 39   : 
; 40   : 		return SetThrowMesh( GetAttribute()->m_WeaponEffect );

  00018	8b 06		 mov	 eax, DWORD PTR [esi]
  0001a	8b ce		 mov	 ecx, esi
  0001c	ff 90 3c 01 00
	00		 call	 DWORD PTR [eax+316]
  00022	05 34 01 00 00	 add	 eax, 308		; 00000134H
  00027	50		 push	 eax
  00028	8b ce		 mov	 ecx, esi
  0002a	e8 00 00 00 00	 call	 ?SetThrowMesh@ioThrowReturnWeapon@@IAE_NABVioHashString@@@Z ; ioThrowReturnWeapon::SetThrowMesh
  0002f	5e		 pop	 esi

; 44   : }

  00030	c3		 ret	 0
$LN1@InitResour:

; 41   : 	}
; 42   : 
; 43   : 	return false;

  00031	32 c0		 xor	 al, al
  00033	5e		 pop	 esi

; 44   : }

  00034	c3		 ret	 0
?InitResource@ioThrowReturnWeapon@@UAE_NXZ ENDP		; ioThrowReturnWeapon::InitResource
_TEXT	ENDS
PUBLIC	__$ArrayPad$
EXTRN	?LoadProperty@ioWeapon@@UAEXAAVioINILoader@@@Z:PROC ; ioWeapon::LoadProperty
; Function compile flags: /Ogsp
;	COMDAT ?LoadProperty@ioThrowReturnWeapon@@UAEXAAVioINILoader@@@Z
_TEXT	SEGMENT
__k$531583 = -24					; size = 13
__$ArrayPad$ = -4					; size = 4
_rkLoader$ = 8						; size = 4
?LoadProperty@ioThrowReturnWeapon@@UAEXAAVioINILoader@@@Z PROC ; ioThrowReturnWeapon::LoadProperty, COMDAT
; _this$ = ecx

; 90   : {

  00000	55		 push	 ebp
  00001	8b ec		 mov	 ebp, esp
  00003	83 ec 18	 sub	 esp, 24			; 00000018H
  00006	a1 00 00 00 00	 mov	 eax, DWORD PTR ___security_cookie
  0000b	33 c5		 xor	 eax, ebp
  0000d	89 45 fc	 mov	 DWORD PTR __$ArrayPad$[ebp], eax
  00010	56		 push	 esi
  00011	8b 75 08	 mov	 esi, DWORD PTR _rkLoader$[ebp]
  00014	57		 push	 edi

; 91   : 	ioWeapon::LoadProperty( rkLoader );

  00015	56		 push	 esi
  00016	8b f9		 mov	 edi, ecx
  00018	e8 00 00 00 00	 call	 ?LoadProperty@ioWeapon@@UAEXAAVioINILoader@@@Z ; ioWeapon::LoadProperty

; 92   : 
; 93   : 	m_dwReturnDelay = rkLoader.LoadInt_e( "return_delay", 0 );

  0001d	6a 03		 push	 3
  0001f	c7 45 e8 9f 89
	9f 9f		 mov	 DWORD PTR __k$531583[ebp], -1616934497 ; 9f9f899fH
  00026	c7 45 ec 9f 82
	b4 8e		 mov	 DWORD PTR __k$531583[ebp+4], -1900772705 ; 8eb4829fH
  0002d	c7 45 f0 88 80
	8a 93		 mov	 DWORD PTR __k$531583[ebp+8], -1819639672 ; 938a8088H
  00034	8d 45 e8	 lea	 eax, DWORD PTR __k$531583[ebp]
  00037	c6 45 f4 00	 mov	 BYTE PTR __k$531583[ebp+12], 0
  0003b	59		 pop	 ecx
$LL106@LoadProper:
  0003c	81 30 ed ec eb
	ea		 xor	 DWORD PTR [eax], -353637139 ; eaebecedH
  00042	83 c0 04	 add	 eax, 4
  00045	49		 dec	 ecx
  00046	75 f4		 jne	 SHORT $LL106@LoadProper
  00048	51		 push	 ecx
  00049	8d 45 e8	 lea	 eax, DWORD PTR __k$531583[ebp]
  0004c	50		 push	 eax
  0004d	8b ce		 mov	 ecx, esi
  0004f	ff 15 00 00 00
	00		 call	 DWORD PTR __imp_?LoadInt@ioINILoader@@QAEHPBDH@Z

; 94   : }

  00055	8b 4d fc	 mov	 ecx, DWORD PTR __$ArrayPad$[ebp]
  00058	89 87 b4 08 00
	00		 mov	 DWORD PTR [edi+2228], eax
  0005e	5f		 pop	 edi
  0005f	33 cd		 xor	 ecx, ebp
  00061	5e		 pop	 esi
  00062	e8 00 00 00 00	 call	 @__security_check_cookie@4
  00067	c9		 leave
  00068	c2 04 00	 ret	 4
?LoadProperty@ioThrowReturnWeapon@@UAEXAAVioINILoader@@@Z ENDP ; ioThrowReturnWeapon::LoadProperty
_TEXT	ENDS
PUBLIC	?CheckMaxRange@ioThrowReturnWeapon@@IAE_NXZ	; ioThrowReturnWeapon::CheckMaxRange
; Function compile flags: /Ogsp
;	COMDAT ?CheckMaxRange@ioThrowReturnWeapon@@IAE_NXZ
_TEXT	SEGMENT
_value$531691 = -4					; size = 4
?CheckMaxRange@ioThrowReturnWeapon@@IAE_NXZ PROC	; ioThrowReturnWeapon::CheckMaxRange, COMDAT
; _this$ = ecx

; 196  : {

  00000	55		 push	 ebp
  00001	8b ec		 mov	 ebp, esp
  00003	51		 push	 ecx
  00004	56		 push	 esi
  00005	8b f1		 mov	 esi, ecx

; 197  : 	DWORD dwCurTime = FRAMEGETTIME();

  00007	ff 15 00 00 00
	00		 call	 DWORD PTR __imp_?GetSingleton@ioFrameTimer@@SAAAV1@XZ
  0000d	8b c8		 mov	 ecx, eax
  0000f	ff 15 00 00 00
	00		 call	 DWORD PTR __imp_?GetLoopSec@ioFrameTimer@@QBEKXZ

; 198  : 
; 199  : 	if( m_ReturnState == TRS_NONE )

  00015	83 be 08 09 00
	00 00		 cmp	 DWORD PTR [esi+2312], 0
  0001c	0f 85 c4 00 00
	00		 jne	 $LN9@CheckMaxRa

; 200  : 	{
; 201  : 		float fMaxRange = GetAttribute()->m_fMoveRange + m_fGrowthMoveRange;

  00022	8d 45 fc	 lea	 eax, DWORD PTR _value$531691[ebp]
  00025	50		 push	 eax
  00026	8d 8e 60 03 00
	00		 lea	 ecx, DWORD PTR [esi+864]
  0002c	e8 00 00 00 00	 call	 ?DecryptValueToPool@?$CEncrypt@M@@QAEXPAM@Z ; CEncrypt<float>::DecryptValueToPool
  00031	8b 06		 mov	 eax, DWORD PTR [esi]
  00033	8b ce		 mov	 ecx, esi
  00035	ff 90 3c 01 00
	00		 call	 DWORD PTR [eax+316]
  0003b	f3 0f 10 4d fc	 movss	 xmm1, DWORD PTR _value$531691[ebp]
  00040	f3 0f 10 80 9c
	01 00 00	 movss	 xmm0, DWORD PTR [eax+412]
  00048	0f 5a c0	 cvtps2pd xmm0, xmm0
  0004b	0f 5a c9	 cvtps2pd xmm1, xmm1
  0004e	f2 0f 58 c1	 addsd	 xmm0, xmm1
  00052	0f 57 c9	 xorps	 xmm1, xmm1
  00055	66 0f 5a c8	 cvtpd2ps xmm1, xmm0

; 202  : 
; 203  : 		if( m_fCurMoveRange <= fMaxRange )

  00059	f3 0f 10 86 bc
	08 00 00	 movss	 xmm0, DWORD PTR [esi+2236]
  00061	0f 57 d2	 xorps	 xmm2, xmm2
  00064	0f 5a d0	 cvtps2pd xmm2, xmm0
  00067	0f 5a d9	 cvtps2pd xmm3, xmm1
  0006a	66 0f 2f da	 comisd	 xmm3, xmm2

; 204  : 		{
; 205  : 			m_fCurMoveRange += m_fCurMoveDistance;

  0006e	0f 5a c0	 cvtps2pd xmm0, xmm0
  00071	72 50		 jb	 SHORT $LN8@CheckMaxRa
  00073	f3 0f 10 96 c0
	08 00 00	 movss	 xmm2, DWORD PTR [esi+2240]
  0007b	0f 5a da	 cvtps2pd xmm3, xmm2
  0007e	f2 0f 58 d8	 addsd	 xmm3, xmm0
  00082	0f 57 c0	 xorps	 xmm0, xmm0
  00085	66 0f 5a c3	 cvtpd2ps xmm0, xmm3

; 206  : 
; 207  : 			if( m_fCurMoveRange >= fMaxRange )

  00089	0f 5a e1	 cvtps2pd xmm4, xmm1
  0008c	f3 0f 11 86 bc
	08 00 00	 movss	 DWORD PTR [esi+2236], xmm0
  00094	0f 5a d8	 cvtps2pd xmm3, xmm0
  00097	66 0f 2f dc	 comisd	 xmm3, xmm4
  0009b	0f 82 c2 00 00
	00		 jb	 $LN2@CheckMaxRa

; 208  : 			{
; 209  : 				m_fCurMoveDistance -= m_fCurMoveRange - fMaxRange;

  000a1	0f 5a c0	 cvtps2pd xmm0, xmm0
  000a4	0f 5a d9	 cvtps2pd xmm3, xmm1
  000a7	f2 0f 5c c3	 subsd	 xmm0, xmm3
  000ab	0f 5a d2	 cvtps2pd xmm2, xmm2
  000ae	f2 0f 5c d0	 subsd	 xmm2, xmm0

; 210  : 				m_fCurMoveRange = fMaxRange;

  000b2	f3 0f 11 8e bc
	08 00 00	 movss	 DWORD PTR [esi+2236], xmm1
  000ba	66 0f 5a c2	 cvtpd2ps xmm0, xmm2

; 211  : 				return true;

  000be	e9 ac 00 00 00	 jmp	 $LN14@CheckMaxRa
$LN8@CheckMaxRa:

; 212  : 			}
; 213  : 		}
; 214  : 		else
; 215  : 		{
; 216  : 			m_fCurMoveRange -= m_fCurMoveRange - fMaxRange;

  000c3	66 0f 28 d0	 movapd	 xmm2, xmm0
  000c7	0f 5a c9	 cvtps2pd xmm1, xmm1
  000ca	f2 0f 5c d1	 subsd	 xmm2, xmm1
  000ce	f2 0f 5c c2	 subsd	 xmm0, xmm2
  000d2	66 0f 5a c0	 cvtpd2ps xmm0, xmm0
  000d6	f3 0f 11 86 bc
	08 00 00	 movss	 DWORD PTR [esi+2236], xmm0

; 217  : 			m_fCurMoveDistance = 0.0f;

  000de	0f 57 c0	 xorps	 xmm0, xmm0

; 218  : 			return true;

  000e1	e9 89 00 00 00	 jmp	 $LN14@CheckMaxRa
$LN9@CheckMaxRa:

; 219  : 		}
; 220  : 	}
; 221  : 	else
; 222  : 	{
; 223  : 		if( m_dwStartReturnTime > 0 && m_dwStartReturnTime+m_dwReturnDelay < dwCurTime )

  000e6	8b 96 b8 08 00
	00		 mov	 edx, DWORD PTR [esi+2232]
  000ec	85 d2		 test	 edx, edx
  000ee	74 1f		 je	 SHORT $LN4@CheckMaxRa
  000f0	57		 push	 edi
  000f1	8b be b4 08 00
	00		 mov	 edi, DWORD PTR [esi+2228]
  000f7	03 fa		 add	 edi, edx
  000f9	3b f8		 cmp	 edi, eax
  000fb	5f		 pop	 edi
  000fc	73 11		 jae	 SHORT $LN4@CheckMaxRa

; 224  : 		{
; 225  : 			m_dwStartReturnTime = 0;
; 226  : 			ClearCollisionList();

  000fe	8b 06		 mov	 eax, DWORD PTR [esi]
  00100	83 a6 b8 08 00
	00 00		 and	 DWORD PTR [esi+2232], 0
  00107	8b ce		 mov	 ecx, esi
  00109	ff 90 4c 01 00
	00		 call	 DWORD PTR [eax+332]
$LN4@CheckMaxRa:

; 227  : 		}
; 228  : 
; 229  : 		if( m_fCurMoveRange > 0.0f )

  0010f	f3 0f 10 8e bc
	08 00 00	 movss	 xmm1, DWORD PTR [esi+2236]
  00117	0f 57 c0	 xorps	 xmm0, xmm0
  0011a	0f 2f c8	 comiss	 xmm1, xmm0
  0011d	76 48		 jbe	 SHORT $LN3@CheckMaxRa

; 230  : 		{
; 231  : 			m_fCurMoveRange -= m_fCurMoveDistance;

  0011f	f3 0f 10 96 c0
	08 00 00	 movss	 xmm2, DWORD PTR [esi+2240]
  00127	0f 5a c9	 cvtps2pd xmm1, xmm1
  0012a	0f 5a da	 cvtps2pd xmm3, xmm2
  0012d	f2 0f 5c cb	 subsd	 xmm1, xmm3
  00131	66 0f 5a c9	 cvtpd2ps xmm1, xmm1

; 232  : 			if( m_fCurMoveRange <= 0.0f )

  00135	0f 2f c1	 comiss	 xmm0, xmm1
  00138	f3 0f 11 8e bc
	08 00 00	 movss	 DWORD PTR [esi+2236], xmm1
  00140	72 21		 jb	 SHORT $LN2@CheckMaxRa

; 233  : 			{
; 234  : 				m_fCurMoveDistance += m_fCurMoveRange;

  00142	f3 0f 5a c9	 cvtss2sd xmm1, xmm1
  00146	0f 5a d2	 cvtps2pd xmm2, xmm2
  00149	f2 0f 58 ca	 addsd	 xmm1, xmm2
  0014d	66 0f 5a c9	 cvtpd2ps xmm1, xmm1
  00151	f3 0f 11 8e c0
	08 00 00	 movss	 DWORD PTR [esi+2240], xmm1

; 235  : 				m_fCurMoveRange = 0.0f;

  00159	f3 0f 11 86 bc
	08 00 00	 movss	 DWORD PTR [esi+2236], xmm0

; 236  : 				return true;

  00161	eb 14		 jmp	 SHORT $LN15@CheckMaxRa
$LN2@CheckMaxRa:

; 244  : 		}
; 245  : 	}
; 246  : 
; 247  : 	return false;

  00163	32 c0		 xor	 al, al
  00165	eb 12		 jmp	 SHORT $LN10@CheckMaxRa
$LN3@CheckMaxRa:

; 237  : 			}
; 238  : 		}
; 239  : 		else
; 240  : 		{
; 241  : 			m_fCurMoveRange = 0.0f;

  00167	f3 0f 11 86 bc
	08 00 00	 movss	 DWORD PTR [esi+2236], xmm0
$LN14@CheckMaxRa:

; 242  : 			m_fCurMoveDistance = 0.0f;

  0016f	f3 0f 11 86 c0
	08 00 00	 movss	 DWORD PTR [esi+2240], xmm0
$LN15@CheckMaxRa:

; 243  : 			return true;

  00177	b0 01		 mov	 al, 1
$LN10@CheckMaxRa:
  00179	5e		 pop	 esi

; 248  : }

  0017a	c9		 leave
  0017b	c3		 ret	 0
?CheckMaxRange@ioThrowReturnWeapon@@IAE_NXZ ENDP	; ioThrowReturnWeapon::CheckMaxRange
_TEXT	ENDS
PUBLIC	?GetTeam@ioPlayEntity@@QBE?AW4TeamType@@XZ	; ioPlayEntity::GetTeam
; Function compile flags: /Ogsp
; File d:\lost saga for developer\youtube\tutorial\source\src\lsclient\ioplayentity.h
;	COMDAT ?GetTeam@ioPlayEntity@@QBE?AW4TeamType@@XZ
_TEXT	SEGMENT
_value$531700 = -4					; size = 4
?GetTeam@ioPlayEntity@@QBE?AW4TeamType@@XZ PROC		; ioPlayEntity::GetTeam, COMDAT
; _this$ = ecx

; 107  : 	inline TeamType GetTeam() const { return m_TeamType; }

  00000	55		 push	 ebp
  00001	8b ec		 mov	 ebp, esp
  00003	51		 push	 ecx
  00004	8d 45 fc	 lea	 eax, DWORD PTR _value$531700[ebp]
  00007	50		 push	 eax
  00008	81 c1 90 00 00
	00		 add	 ecx, 144		; 00000090H
  0000e	e8 00 00 00 00	 call	 ?DecryptValueToPool@?$CEncrypt@W4TeamType@@@@QAEXPAW4TeamType@@@Z ; CEncrypt<enum TeamType>::DecryptValueToPool
  00013	8b 45 fc	 mov	 eax, DWORD PTR _value$531700[ebp]
  00016	c9		 leave
  00017	c3		 ret	 0
?GetTeam@ioPlayEntity@@QBE?AW4TeamType@@XZ ENDP		; ioPlayEntity::GetTeam
_TEXT	ENDS
PUBLIC	?GetTeam@ioWeapon@@QBE?AW4TeamType@@XZ		; ioWeapon::GetTeam
; Function compile flags: /Ogsp
; File d:\lost saga for developer\youtube\tutorial\source\src\lsclient\ioweapon.h
;	COMDAT ?GetTeam@ioWeapon@@QBE?AW4TeamType@@XZ
_TEXT	SEGMENT
_value$531707 = -4					; size = 4
?GetTeam@ioWeapon@@QBE?AW4TeamType@@XZ PROC		; ioWeapon::GetTeam, COMDAT
; _this$ = ecx

; 534  : 	inline TeamType GetTeam() const { return m_TeamType; }

  00000	55		 push	 ebp
  00001	8b ec		 mov	 ebp, esp
  00003	51		 push	 ecx
  00004	8d 45 fc	 lea	 eax, DWORD PTR _value$531707[ebp]
  00007	50		 push	 eax
  00008	83 c1 30	 add	 ecx, 48			; 00000030H
  0000b	e8 00 00 00 00	 call	 ?DecryptValueToPool@?$CEncrypt@W4TeamType@@@@QAEXPAW4TeamType@@@Z ; CEncrypt<enum TeamType>::DecryptValueToPool
  00010	8b 45 fc	 mov	 eax, DWORD PTR _value$531707[ebp]
  00013	c9		 leave
  00014	c3		 ret	 0
?GetTeam@ioWeapon@@QBE?AW4TeamType@@XZ ENDP		; ioWeapon::GetTeam
_TEXT	ENDS
PUBLIC	__real@4099000000000000
PUBLIC	__$ArrayPad$
EXTRN	?SetThrowSkillEnd@ioBaseChar@@QAEXXZ:PROC	; ioBaseChar::SetThrowSkillEnd
;	COMDAT __real@4099000000000000
; File d:\lost saga for developer\youtube\tutorial\source\src\lsclient\stdafx.h
CONST	SEGMENT
__real@4099000000000000 DQ 04099000000000000r	; 1600
; Function compile flags: /Ogsp
; File d:\lost saga for developer\youtube\tutorial\source\src\lsclient\iothrowreturnweapon.cpp
CONST	ENDS
;	COMDAT ?Process@ioThrowReturnWeapon@@UAEXMPAVioPlayStage@@@Z
_TEXT	SEGMENT
$T530622 = -32						; size = 12
$T530616 = -32						; size = 12
tv486 = -20						; size = 4
tv483 = -20						; size = 4
_vMove$ = -16						; size = 12
__$ArrayPad$ = -4					; size = 4
_fTimePerSec$ = 8					; size = 4
_pStage$ = 12						; size = 4
?Process@ioThrowReturnWeapon@@UAEXMPAVioPlayStage@@@Z PROC ; ioThrowReturnWeapon::Process, COMDAT
; _this$ = ecx

; 135  : {

  00000	55		 push	 ebp
  00001	8b ec		 mov	 ebp, esp
  00003	83 ec 20	 sub	 esp, 32			; 00000020H
  00006	a1 00 00 00 00	 mov	 eax, DWORD PTR ___security_cookie
  0000b	33 c5		 xor	 eax, ebp
  0000d	89 45 fc	 mov	 DWORD PTR __$ArrayPad$[ebp], eax
  00010	53		 push	 ebx
  00011	56		 push	 esi
  00012	57		 push	 edi
  00013	8b d9		 mov	 ebx, ecx

; 136  : 	D3DXVECTOR3 vMove;
; 137  : 	m_fCurMoveDistance = GetMoveSpeed() * fTimePerSec;

  00015	e8 00 00 00 00	 call	 ?GetMoveSpeed@ioThrowReturnWeapon@@QAEMXZ ; ioThrowReturnWeapon::GetMoveSpeed
  0001a	d8 4d 08	 fmul	 DWORD PTR _fTimePerSec$[ebp]

; 138  : 
; 139  : 	switch( m_ReturnState )

  0001d	8b 83 08 09 00
	00		 mov	 eax, DWORD PTR [ebx+2312]
  00023	83 e8 00	 sub	 eax, 0
  00026	d9 9b c0 08 00
	00		 fstp	 DWORD PTR [ebx+2240]
  0002c	0f 84 87 00 00
	00		 je	 $LN7@Process
  00032	48		 dec	 eax
  00033	0f 85 f4 00 00
	00		 jne	 $LN8@Process

; 146  : 		break;
; 147  : 	case TRS_RETRUN:
; 148  : 		if( CheckMaxRange() )

  00039	8b cb		 mov	 ecx, ebx
  0003b	e8 00 00 00 00	 call	 ?CheckMaxRange@ioThrowReturnWeapon@@IAE_NXZ ; ioThrowReturnWeapon::CheckMaxRange
  00040	84 c0		 test	 al, al
  00042	74 19		 je	 SHORT $LN4@Process

; 149  : 		{
; 150  : 			ioBaseChar *pOwner = GetOwner();

  00044	8b cb		 mov	 ecx, ebx
  00046	e8 00 00 00 00	 call	 ?GetOwner@ioWeapon@@QBEPAVioBaseChar@@XZ ; ioWeapon::GetOwner

; 151  : 			if( pOwner )

  0004b	85 c0		 test	 eax, eax
  0004d	74 07		 je	 SHORT $LN3@Process

; 152  : 			{
; 153  : 				pOwner->SetThrowSkillEnd();

  0004f	8b c8		 mov	 ecx, eax
  00051	e8 00 00 00 00	 call	 ?SetThrowSkillEnd@ioBaseChar@@QAEXXZ ; ioBaseChar::SetThrowSkillEnd
$LN3@Process:

; 154  : 			}
; 155  : 
; 156  : 			SetWeaponDead();

  00056	8b 03		 mov	 eax, DWORD PTR [ebx]
  00058	8b cb		 mov	 ecx, ebx
  0005a	ff 50 4c	 call	 DWORD PTR [eax+76]
$LN4@Process:

; 157  : 		}
; 158  : 		
; 159  : 		vMove = (-m_vMoveDir) * m_fCurMoveDistance;

  0005d	f3 0f 10 8b 9c
	08 00 00	 movss	 xmm1, DWORD PTR [ebx+2204]
  00065	f3 0f 10 05 00
	00 00 00	 movss	 xmm0, DWORD PTR __mask@@NegFloat@
  0006d	f3 0f 10 93 a0
	08 00 00	 movss	 xmm2, DWORD PTR [ebx+2208]
  00075	f3 0f 10 9b a4
	08 00 00	 movss	 xmm3, DWORD PTR [ebx+2212]
  0007d	0f 57 c8	 xorps	 xmm1, xmm0
  00080	0f 5a c9	 cvtps2pd xmm1, xmm1
  00083	0f 57 d0	 xorps	 xmm2, xmm0
  00086	0f 57 d8	 xorps	 xmm3, xmm0
  00089	f3 0f 10 83 c0
	08 00 00	 movss	 xmm0, DWORD PTR [ebx+2240]
  00091	0f 5a e0	 cvtps2pd xmm4, xmm0
  00094	f2 0f 59 cc	 mulsd	 xmm1, xmm4
  00098	66 0f 5a c9	 cvtpd2ps xmm1, xmm1
  0009c	f3 0f 11 4d e0	 movss	 DWORD PTR $T530622[ebp], xmm1
  000a1	0f 5a ca	 cvtps2pd xmm1, xmm2
  000a4	0f 5a d0	 cvtps2pd xmm2, xmm0
  000a7	f2 0f 59 ca	 mulsd	 xmm1, xmm2
  000ab	66 0f 5a c9	 cvtpd2ps xmm1, xmm1
  000af	f3 0f 11 4d e4	 movss	 DWORD PTR $T530622[ebp+4], xmm1
  000b4	0f 5a cb	 cvtps2pd xmm1, xmm3

; 160  : 		break;

  000b7	eb 5b		 jmp	 SHORT $LN33@Process
$LN7@Process:

; 140  : 	{
; 141  : 	case TRS_NONE:
; 142  : 		if( CheckMaxRange() )

  000b9	8b cb		 mov	 ecx, ebx
  000bb	e8 00 00 00 00	 call	 ?CheckMaxRange@ioThrowReturnWeapon@@IAE_NXZ ; ioThrowReturnWeapon::CheckMaxRange
  000c0	84 c0		 test	 al, al
  000c2	74 07		 je	 SHORT $LN6@Process

; 143  : 			SetReturnWay();

  000c4	8b cb		 mov	 ecx, ebx
  000c6	e8 00 00 00 00	 call	 ?SetReturnWay@ioThrowReturnWeapon@@QAEXXZ ; ioThrowReturnWeapon::SetReturnWay
$LN6@Process:

; 144  : 
; 145  : 		vMove = m_vMoveDir * m_fCurMoveDistance;

  000cb	f3 0f 10 93 9c
	08 00 00	 movss	 xmm2, DWORD PTR [ebx+2204]
  000d3	f3 0f 10 83 c0
	08 00 00	 movss	 xmm0, DWORD PTR [ebx+2240]
  000db	0f 5a c8	 cvtps2pd xmm1, xmm0
  000de	0f 5a d2	 cvtps2pd xmm2, xmm2
  000e1	f2 0f 59 ca	 mulsd	 xmm1, xmm2
  000e5	66 0f 5a c9	 cvtpd2ps xmm1, xmm1
  000e9	f3 0f 11 4d e0	 movss	 DWORD PTR $T530616[ebp], xmm1
  000ee	f3 0f 10 8b a0
	08 00 00	 movss	 xmm1, DWORD PTR [ebx+2208]
  000f6	0f 5a c9	 cvtps2pd xmm1, xmm1
  000f9	0f 5a d0	 cvtps2pd xmm2, xmm0
  000fc	f2 0f 59 ca	 mulsd	 xmm1, xmm2
  00100	66 0f 5a c9	 cvtpd2ps xmm1, xmm1
  00104	f3 0f 11 4d e4	 movss	 DWORD PTR $T530616[ebp+4], xmm1
  00109	f3 0f 10 8b a4
	08 00 00	 movss	 xmm1, DWORD PTR [ebx+2212]
  00111	0f 5a c9	 cvtps2pd xmm1, xmm1
$LN33@Process:
  00114	0f 5a c0	 cvtps2pd xmm0, xmm0
  00117	f2 0f 59 c8	 mulsd	 xmm1, xmm0
  0011b	8d 7d f0	 lea	 edi, DWORD PTR _vMove$[ebp]
  0011e	8d 75 e0	 lea	 esi, DWORD PTR $T530616[ebp]
  00121	66 0f 5a c1	 cvtpd2ps xmm0, xmm1
  00125	f3 0f 11 45 e8	 movss	 DWORD PTR $T530616[ebp+8], xmm0
  0012a	a5		 movsd
  0012b	a5		 movsd
  0012c	a5		 movsd
$LN8@Process:

; 161  : 	}
; 162  : 
; 163  : 	if( m_pThrowMesh )

  0012d	33 f6		 xor	 esi, esi
  0012f	39 b3 98 08 00
	00		 cmp	 DWORD PTR [ebx+2200], esi
  00135	74 2b		 je	 SHORT $LN2@Process

; 164  : 	{
; 165  : 		GetParentSceneNode()->Rotate( m_vRollAxis, 1600.0f * fTimePerSec );

  00137	8b 4b 04	 mov	 ecx, DWORD PTR [ebx+4]
  0013a	f3 0f 10 45 08	 movss	 xmm0, DWORD PTR _fTimePerSec$[ebp]
  0013f	8b 01		 mov	 eax, DWORD PTR [ecx]
  00141	6a 01		 push	 1
  00143	0f 5a c0	 cvtps2pd xmm0, xmm0
  00146	f2 0f 59 05 00
	00 00 00	 mulsd	 xmm0, QWORD PTR __real@4099000000000000
  0014e	51		 push	 ecx
  0014f	f2 0f 5a c0	 cvtsd2ss xmm0, xmm0
  00153	8d 93 a8 08 00
	00		 lea	 edx, DWORD PTR [ebx+2216]
  00159	f3 0f 11 04 24	 movss	 DWORD PTR [esp], xmm0
  0015e	52		 push	 edx
  0015f	ff 50 50	 call	 DWORD PTR [eax+80]
$LN2@Process:

; 166  : 	}
; 167  : 
; 168  : 	GetParentSceneNode()->Translate( vMove );

  00162	8b 4b 04	 mov	 ecx, DWORD PTR [ebx+4]
  00165	8b 01		 mov	 eax, DWORD PTR [ecx]
  00167	6a 01		 push	 1
  00169	8d 55 f0	 lea	 edx, DWORD PTR _vMove$[ebp]
  0016c	52		 push	 edx
  0016d	ff 50 3c	 call	 DWORD PTR [eax+60]

; 169  : 	UpdateWorldAttackBox( fTimePerSec, false );

  00170	f3 0f 10 45 08	 movss	 xmm0, DWORD PTR _fTimePerSec$[ebp]
  00175	8b 03		 mov	 eax, DWORD PTR [ebx]
  00177	56		 push	 esi
  00178	51		 push	 ecx
  00179	8b cb		 mov	 ecx, ebx
  0017b	f3 0f 11 04 24	 movss	 DWORD PTR [esp], xmm0
  00180	ff 90 38 01 00
	00		 call	 DWORD PTR [eax+312]

; 170  : 
; 171  : 	if( m_pThrowMesh )

  00186	39 b3 98 08 00
	00		 cmp	 DWORD PTR [ebx+2200], esi
  0018c	74 30		 je	 SHORT $LN1@Process

; 172  : 	{
; 173  : 		m_pThrowMesh->Update( fTimePerSec * FLOAT1000 );

  0018e	b8 e8 03 00 00	 mov	 eax, 1000		; 000003e8H
  00193	8b 8b 98 08 00
	00		 mov	 ecx, DWORD PTR [ebx+2200]
  00199	83 c1 14	 add	 ecx, 20			; 00000014H
  0019c	8b 11		 mov	 edx, DWORD PTR [ecx]
  0019e	89 45 ec	 mov	 DWORD PTR tv486[ebp], eax
  001a1	db 45 ec	 fild	 DWORD PTR tv486[ebp]
  001a4	85 c0		 test	 eax, eax
  001a6	79 06		 jns	 SHORT $LN32@Process
  001a8	d8 05 00 00 00
	00		 fadd	 DWORD PTR __real@4f800000
$LN32@Process:
  001ae	d8 4d 08	 fmul	 DWORD PTR _fTimePerSec$[ebp]
  001b1	51		 push	 ecx
  001b2	d9 5d ec	 fstp	 DWORD PTR tv483[ebp]
  001b5	d9 45 ec	 fld	 DWORD PTR tv483[ebp]
  001b8	d9 1c 24	 fstp	 DWORD PTR [esp]
  001bb	ff 52 40	 call	 DWORD PTR [edx+64]
$LN1@Process:

; 174  : 	}
; 175  : }

  001be	8b 4d fc	 mov	 ecx, DWORD PTR __$ArrayPad$[ebp]
  001c1	5f		 pop	 edi
  001c2	5e		 pop	 esi
  001c3	33 cd		 xor	 ecx, ebp
  001c5	5b		 pop	 ebx
  001c6	e8 00 00 00 00	 call	 @__security_check_cookie@4
  001cb	c9		 leave
  001cc	c2 08 00	 ret	 8
?Process@ioThrowReturnWeapon@@UAEXMPAVioPlayStage@@@Z ENDP ; ioThrowReturnWeapon::Process
_TEXT	ENDS
EXTRN	?AddWeaponExplosionEffect@ioPlayStage@@QAEXPAVioPlayEntity@@PAVioWeapon@@W4ApplyWeaponExp@@@Z:PROC ; ioPlayStage::AddWeaponExplosionEffect
EXTRN	?GetPiercingType@ioWeapon@@QBE?AW4CharPiercingType@@XZ:PROC ; ioWeapon::GetPiercingType
; Function compile flags: /Ogsp
;	COMDAT ?CheckPreCollision@ioThrowReturnWeapon@@UAEXPAVioPlayEntity@@PAVioPlayStage@@@Z
_TEXT	SEGMENT
_value$531793 = -4					; size = 4
_value$531780 = 8					; size = 4
_pTarget$ = 8						; size = 4
_pStage$ = 12						; size = 4
?CheckPreCollision@ioThrowReturnWeapon@@UAEXPAVioPlayEntity@@PAVioPlayStage@@@Z PROC ; ioThrowReturnWeapon::CheckPreCollision, COMDAT
; _this$ = ecx

; 297  : {

  00000	55		 push	 ebp
  00001	8b ec		 mov	 ebp, esp
  00003	51		 push	 ecx
  00004	57		 push	 edi
  00005	8b f9		 mov	 edi, ecx

; 298  : 	if( m_ReturnState != TRS_NONE ) 

  00007	33 c0		 xor	 eax, eax
  00009	39 87 08 09 00
	00		 cmp	 DWORD PTR [edi+2312], eax
  0000f	0f 85 ea 00 00
	00		 jne	 $LN2@CheckPreCo

; 299  : 		return;
; 300  : 
; 301  : 	bool bCollision = false;
; 302  : 	if( pTarget->IsWoundedCollision( GetWorldAttackBox() ) )

  00015	53		 push	 ebx
  00016	56		 push	 esi
  00017	8b 75 08	 mov	 esi, DWORD PTR _pTarget$[ebp]
  0001a	8b 1e		 mov	 ebx, DWORD PTR [esi]
  0001c	50		 push	 eax
  0001d	50		 push	 eax
  0001e	e8 00 00 00 00	 call	 ?GetWorldAttackBox@ioWeapon@@QBEABVioOrientBox@@_N@Z ; ioWeapon::GetWorldAttackBox
  00023	50		 push	 eax
  00024	8b ce		 mov	 ecx, esi
  00026	ff 93 90 00 00
	00		 call	 DWORD PTR [ebx+144]
  0002c	84 c0		 test	 al, al
  0002e	0f 84 c9 00 00
	00		 je	 $LN21@CheckPreCo

; 303  : 	{
; 304  : 		if( ToSymbolStruct(pTarget) || ToPushStruct(pTarget) || ToBallStruct(pTarget) ||
; 305  : 			ToDummyChar(pTarget) || ToWallZone(pTarget) )

  00034	56		 push	 esi
  00035	e8 00 00 00 00	 call	 ?ToSymbolStruct@@YAPAVioSymbolStruct@@PAVioGameEntity@@@Z ; ToSymbolStruct
  0003a	59		 pop	 ecx
  0003b	85 c0		 test	 eax, eax
  0003d	75 4f		 jne	 SHORT $LN6@CheckPreCo
  0003f	56		 push	 esi
  00040	e8 00 00 00 00	 call	 ?ToPushStruct@@YAPAVioPushStruct@@PAVioGameEntity@@@Z ; ToPushStruct
  00045	59		 pop	 ecx
  00046	85 c0		 test	 eax, eax
  00048	75 44		 jne	 SHORT $LN6@CheckPreCo
  0004a	56		 push	 esi
  0004b	e8 00 00 00 00	 call	 ?ToBallStruct@@YAPAVioBall@@PAVioGameEntity@@@Z ; ToBallStruct
  00050	59		 pop	 ecx
  00051	85 c0		 test	 eax, eax
  00053	75 39		 jne	 SHORT $LN6@CheckPreCo
  00055	56		 push	 esi
  00056	e8 00 00 00 00	 call	 ?ToDummyChar@@YAPAVioDummyChar@@PAVioGameEntity@@@Z ; ToDummyChar
  0005b	59		 pop	 ecx
  0005c	85 c0		 test	 eax, eax
  0005e	75 2e		 jne	 SHORT $LN6@CheckPreCo
  00060	56		 push	 esi
  00061	e8 00 00 00 00	 call	 ?ToWallZone@@YAPAVioWallZone@@PAVioGameEntity@@@Z ; ToWallZone
  00066	59		 pop	 ecx
  00067	85 c0		 test	 eax, eax
  00069	75 23		 jne	 SHORT $LN6@CheckPreCo

; 306  : 		{
; 307  : 			bCollision = true;
; 308  : 		}
; 309  : 		else if( GetTeam() != pTarget->GetTeam() )

  0006b	8d 45 08	 lea	 eax, DWORD PTR _value$531780[ebp]
  0006e	50		 push	 eax
  0006f	8d 4f 30	 lea	 ecx, DWORD PTR [edi+48]
  00072	e8 00 00 00 00	 call	 ?DecryptValueToPool@?$CEncrypt@W4TeamType@@@@QAEXPAW4TeamType@@@Z ; CEncrypt<enum TeamType>::DecryptValueToPool
  00077	8d 45 fc	 lea	 eax, DWORD PTR _value$531793[ebp]
  0007a	50		 push	 eax
  0007b	8d 8e 90 00 00
	00		 lea	 ecx, DWORD PTR [esi+144]
  00081	e8 00 00 00 00	 call	 ?DecryptValueToPool@?$CEncrypt@W4TeamType@@@@QAEXPAW4TeamType@@@Z ; CEncrypt<enum TeamType>::DecryptValueToPool
  00086	8b 45 08	 mov	 eax, DWORD PTR _value$531780[ebp]
  00089	3b 45 fc	 cmp	 eax, DWORD PTR _value$531793[ebp]
  0008c	74 6f		 je	 SHORT $LN21@CheckPreCo
$LN6@CheckPreCo:

; 310  : 		{
; 311  : 			bCollision = true;
; 312  : 		}
; 313  : 	}
; 314  : 		
; 315  : 	if( !bCollision )
; 316  : 		return;
; 317  : 
; 318  : 	if( ToSymbolStruct(pTarget) || ToPushStruct(pTarget) || ToBallStruct(pTarget) ||
; 319  : 		ToDummyChar(pTarget) || ToWallZone(pTarget) ||
; 320  : 		GetPiercingType() == CPT_NONE )

  0008e	56		 push	 esi
  0008f	e8 00 00 00 00	 call	 ?ToSymbolStruct@@YAPAVioSymbolStruct@@PAVioGameEntity@@@Z ; ToSymbolStruct
  00094	59		 pop	 ecx
  00095	85 c0		 test	 eax, eax
  00097	75 37		 jne	 SHORT $LN1@CheckPreCo
  00099	56		 push	 esi
  0009a	e8 00 00 00 00	 call	 ?ToPushStruct@@YAPAVioPushStruct@@PAVioGameEntity@@@Z ; ToPushStruct
  0009f	59		 pop	 ecx
  000a0	85 c0		 test	 eax, eax
  000a2	75 2c		 jne	 SHORT $LN1@CheckPreCo
  000a4	56		 push	 esi
  000a5	e8 00 00 00 00	 call	 ?ToBallStruct@@YAPAVioBall@@PAVioGameEntity@@@Z ; ToBallStruct
  000aa	59		 pop	 ecx
  000ab	85 c0		 test	 eax, eax
  000ad	75 21		 jne	 SHORT $LN1@CheckPreCo
  000af	56		 push	 esi
  000b0	e8 00 00 00 00	 call	 ?ToDummyChar@@YAPAVioDummyChar@@PAVioGameEntity@@@Z ; ToDummyChar
  000b5	59		 pop	 ecx
  000b6	85 c0		 test	 eax, eax
  000b8	75 16		 jne	 SHORT $LN1@CheckPreCo
  000ba	56		 push	 esi
  000bb	e8 00 00 00 00	 call	 ?ToWallZone@@YAPAVioWallZone@@PAVioGameEntity@@@Z ; ToWallZone
  000c0	59		 pop	 ecx
  000c1	85 c0		 test	 eax, eax
  000c3	75 0b		 jne	 SHORT $LN1@CheckPreCo
  000c5	8b cf		 mov	 ecx, edi
  000c7	e8 00 00 00 00	 call	 ?GetPiercingType@ioWeapon@@QBE?AW4CharPiercingType@@XZ ; ioWeapon::GetPiercingType
  000cc	85 c0		 test	 eax, eax
  000ce	75 2d		 jne	 SHORT $LN21@CheckPreCo
$LN1@CheckPreCo:

; 321  : 	{
; 322  : 		CheckCurAttribute( pTarget );

  000d0	8b 07		 mov	 eax, DWORD PTR [edi]
  000d2	56		 push	 esi
  000d3	8b cf		 mov	 ecx, edi
  000d5	ff 90 f0 00 00
	00		 call	 DWORD PTR [eax+240]

; 323  : 
; 324  : 		ApplyWeaponExp eExplosionType = pTarget->ApplyWeapon( this );

  000db	8b 06		 mov	 eax, DWORD PTR [esi]
  000dd	57		 push	 edi
  000de	8b ce		 mov	 ecx, esi
  000e0	ff 50 7c	 call	 DWORD PTR [eax+124]

; 325  : 		pStage->AddWeaponExplosionEffect( pTarget, this, eExplosionType );

  000e3	8b 4d 0c	 mov	 ecx, DWORD PTR _pStage$[ebp]
  000e6	50		 push	 eax
  000e7	57		 push	 edi
  000e8	56		 push	 esi
  000e9	e8 00 00 00 00	 call	 ?AddWeaponExplosionEffect@ioPlayStage@@QAEXPAVioPlayEntity@@PAVioWeapon@@W4ApplyWeaponExp@@@Z ; ioPlayStage::AddWeaponExplosionEffect

; 326  : 
; 327  : 		AddCollisionEntity( pTarget );

  000ee	8b 07		 mov	 eax, DWORD PTR [edi]
  000f0	56		 push	 esi
  000f1	8b cf		 mov	 ecx, edi
  000f3	ff 50 04	 call	 DWORD PTR [eax+4]

; 328  : 
; 329  : 		SetReturnWay();

  000f6	8b cf		 mov	 ecx, edi
  000f8	e8 00 00 00 00	 call	 ?SetReturnWay@ioThrowReturnWeapon@@QAEXXZ ; ioThrowReturnWeapon::SetReturnWay
$LN21@CheckPreCo:
  000fd	5e		 pop	 esi
  000fe	5b		 pop	 ebx
$LN2@CheckPreCo:
  000ff	5f		 pop	 edi

; 330  : 		return;
; 331  : 	}
; 332  : }

  00100	c9		 leave
  00101	c2 08 00	 ret	 8
?CheckPreCollision@ioThrowReturnWeapon@@UAEXPAVioPlayEntity@@PAVioPlayStage@@@Z ENDP ; ioThrowReturnWeapon::CheckPreCollision
_TEXT	ENDS
END
