; Listing generated by Microsoft (R) Optimizing Compiler Version 16.00.30319.01 

	TITLE	D:\Lost Saga For Developer\Youtube\Tutorial\Source\src\LSClient\ioTournamentManager.cpp
	.686P
	.XMM
	include listing.inc
	.model	flat

INCLUDELIB MSVCRT
INCLUDELIB OLDNAMES

PUBLIC	?ms_Singleton@?$Singleton@VioTournamentManager@@@@1PAVioTournamentManager@@A ; Singleton<ioTournamentManager>::ms_Singleton
;	COMDAT ?ms_Singleton@?$Singleton@VioTournamentManager@@@@1PAVioTournamentManager@@A
_BSS	SEGMENT
?ms_Singleton@?$Singleton@VioTournamentManager@@@@1PAVioTournamentManager@@A DD 01H DUP (?) ; Singleton<ioTournamentManager>::ms_Singleton
_BSS	ENDS
PUBLIC	?GetIndex@TournamentNode@@QBE?BKXZ		; TournamentNode::GetIndex
; Function compile flags: /Ogsp
; File d:\lost saga for developer\youtube\tutorial\source\src\lsclient\tournamentnode.h
;	COMDAT ?GetIndex@TournamentNode@@QBE?BKXZ
_TEXT	SEGMENT
?GetIndex@TournamentNode@@QBE?BKXZ PROC			; TournamentNode::GetIndex, COMDAT
; _this$ = ecx

; 331  : 	inline const DWORD GetIndex() const{ return m_dwIndex; }

  00000	8b 41 04	 mov	 eax, DWORD PTR [ecx+4]
  00003	c3		 ret	 0
?GetIndex@TournamentNode@@QBE?BKXZ ENDP			; TournamentNode::GetIndex
_TEXT	ENDS
PUBLIC	?GetType@TournamentNode@@QBE?BEXZ		; TournamentNode::GetType
; Function compile flags: /Ogsp
;	COMDAT ?GetType@TournamentNode@@QBE?BEXZ
_TEXT	SEGMENT
?GetType@TournamentNode@@QBE?BEXZ PROC			; TournamentNode::GetType, COMDAT
; _this$ = ecx

; 335  : 	inline const BYTE GetType() const{ return m_Type; }	

  00000	8a 81 a0 00 00
	00		 mov	 al, BYTE PTR [ecx+160]
  00006	c3		 ret	 0
?GetType@TournamentNode@@QBE?BEXZ ENDP			; TournamentNode::GetType
_TEXT	ENDS
PUBLIC	?GetState@TournamentNode@@QBE?BEXZ		; TournamentNode::GetState
; Function compile flags: /Ogsp
;	COMDAT ?GetState@TournamentNode@@QBE?BEXZ
_TEXT	SEGMENT
?GetState@TournamentNode@@QBE?BEXZ PROC			; TournamentNode::GetState, COMDAT
; _this$ = ecx

; 336  : 	inline const BYTE GetState() const{ return m_State; }

  00000	8a 81 a1 00 00
	00		 mov	 al, BYTE PTR [ecx+161]
  00006	c3		 ret	 0
?GetState@TournamentNode@@QBE?BEXZ ENDP			; TournamentNode::GetState
_TEXT	ENDS
PUBLIC	?isDisableTournament@TournamentNode@@QAE?B_NXZ	; TournamentNode::isDisableTournament
; Function compile flags: /Ogsp
;	COMDAT ?isDisableTournament@TournamentNode@@QAE?B_NXZ
_TEXT	SEGMENT
?isDisableTournament@TournamentNode@@QAE?B_NXZ PROC	; TournamentNode::isDisableTournament, COMDAT
; _this$ = ecx

; 341  : 	inline const bool isDisableTournament(){ return m_bReguralDisableTournament; }

  00000	8a 41 38	 mov	 al, BYTE PTR [ecx+56]
  00003	c3		 ret	 0
?isDisableTournament@TournamentNode@@QAE?B_NXZ ENDP	; TournamentNode::isDisableTournament
_TEXT	ENDS
PUBLIC	?GetDisableTournamentMent@TournamentNode@@QAEABVioHashString@@XZ ; TournamentNode::GetDisableTournamentMent
; Function compile flags: /Ogsp
;	COMDAT ?GetDisableTournamentMent@TournamentNode@@QAEABVioHashString@@XZ
_TEXT	SEGMENT
?GetDisableTournamentMent@TournamentNode@@QAEABVioHashString@@XZ PROC ; TournamentNode::GetDisableTournamentMent, COMDAT
; _this$ = ecx

; 344  : 	inline const ioHashString& GetDisableTournamentMent(){ return m_szDisableTournamentMent; }

  00000	8d 81 48 01 00
	00		 lea	 eax, DWORD PTR [ecx+328]
  00006	c3		 ret	 0
?GetDisableTournamentMent@TournamentNode@@QAEABVioHashString@@XZ ENDP ; TournamentNode::GetDisableTournamentMent
_TEXT	ENDS
PUBLIC	?GetReguralResourceType@TournamentNode@@QBE?BHXZ ; TournamentNode::GetReguralResourceType
; Function compile flags: /Ogsp
;	COMDAT ?GetReguralResourceType@TournamentNode@@QBE?BHXZ
_TEXT	SEGMENT
?GetReguralResourceType@TournamentNode@@QBE?BHXZ PROC	; TournamentNode::GetReguralResourceType, COMDAT
; _this$ = ecx

; 360  : 	inline const int GetReguralResourceType() const { return m_iReguralResourceType; }

  00000	8b 41 30	 mov	 eax, DWORD PTR [ecx+48]
  00003	c3		 ret	 0
?GetReguralResourceType@TournamentNode@@QBE?BHXZ ENDP	; TournamentNode::GetReguralResourceType
_TEXT	ENDS
PUBLIC	?SetIndex@TournamentNode@@QAEXK@Z		; TournamentNode::SetIndex
; Function compile flags: /Ogsp
;	COMDAT ?SetIndex@TournamentNode@@QAEXK@Z
_TEXT	SEGMENT
_dwIndex$ = 8						; size = 4
?SetIndex@TournamentNode@@QAEXK@Z PROC			; TournamentNode::SetIndex, COMDAT
; _this$ = ecx

; 412  : 	void SetIndex( DWORD dwIndex ){ m_dwIndex = dwIndex; }

  00000	55		 push	 ebp
  00001	8b ec		 mov	 ebp, esp
  00003	8b 45 08	 mov	 eax, DWORD PTR _dwIndex$[ebp]
  00006	89 41 04	 mov	 DWORD PTR [ecx+4], eax
  00009	5d		 pop	 ebp
  0000a	c2 04 00	 ret	 4
?SetIndex@TournamentNode@@QAEXK@Z ENDP			; TournamentNode::SetIndex
_TEXT	ENDS
PUBLIC	?SetOwnerIndex@TournamentNode@@QAEXK@Z		; TournamentNode::SetOwnerIndex
; Function compile flags: /Ogsp
;	COMDAT ?SetOwnerIndex@TournamentNode@@QAEXK@Z
_TEXT	SEGMENT
_dwOwnerIndex$ = 8					; size = 4
?SetOwnerIndex@TournamentNode@@QAEXK@Z PROC		; TournamentNode::SetOwnerIndex, COMDAT
; _this$ = ecx

; 413  : 	void SetOwnerIndex( DWORD dwOwnerIndex ){ m_dwOwnerIndex = dwOwnerIndex; }

  00000	55		 push	 ebp
  00001	8b ec		 mov	 ebp, esp
  00003	8b 45 08	 mov	 eax, DWORD PTR _dwOwnerIndex$[ebp]
  00006	89 41 08	 mov	 DWORD PTR [ecx+8], eax
  00009	5d		 pop	 ebp
  0000a	c2 04 00	 ret	 4
?SetOwnerIndex@TournamentNode@@QAEXK@Z ENDP		; TournamentNode::SetOwnerIndex
_TEXT	ENDS
PUBLIC	?SetState@TournamentNode@@QAEXE@Z		; TournamentNode::SetState
; Function compile flags: /Ogsp
;	COMDAT ?SetState@TournamentNode@@QAEXE@Z
_TEXT	SEGMENT
_State$ = 8						; size = 1
?SetState@TournamentNode@@QAEXE@Z PROC			; TournamentNode::SetState, COMDAT
; _this$ = ecx

; 414  : 	void SetState( BYTE State ){ m_State = State; }

  00000	55		 push	 ebp
  00001	8b ec		 mov	 ebp, esp
  00003	8a 45 08	 mov	 al, BYTE PTR _State$[ebp]
  00006	88 81 a1 00 00
	00		 mov	 BYTE PTR [ecx+161], al
  0000c	5d		 pop	 ebp
  0000d	c2 04 00	 ret	 4
?SetState@TournamentNode@@QAEXE@Z ENDP			; TournamentNode::SetState
_TEXT	ENDS
PUBLIC	?SetType@TournamentNode@@QAEXE@Z		; TournamentNode::SetType
; Function compile flags: /Ogsp
;	COMDAT ?SetType@TournamentNode@@QAEXE@Z
_TEXT	SEGMENT
_Type$ = 8						; size = 1
?SetType@TournamentNode@@QAEXE@Z PROC			; TournamentNode::SetType, COMDAT
; _this$ = ecx

; 415  : 	void SetType( BYTE Type ){ m_Type = Type; }

  00000	55		 push	 ebp
  00001	8b ec		 mov	 ebp, esp
  00003	8a 45 08	 mov	 al, BYTE PTR _Type$[ebp]
  00006	88 81 a0 00 00
	00		 mov	 BYTE PTR [ecx+160], al
  0000c	5d		 pop	 ebp
  0000d	c2 04 00	 ret	 4
?SetType@TournamentNode@@QAEXE@Z ENDP			; TournamentNode::SetType
_TEXT	ENDS
PUBLIC	?Initialize@ioTournamentManager@@QAEXXZ		; ioTournamentManager::Initialize
; Function compile flags: /Ogsp
; File d:\lost saga for developer\youtube\tutorial\source\src\lsclient\iotournamentmanager.cpp
;	COMDAT ?Initialize@ioTournamentManager@@QAEXXZ
_TEXT	SEGMENT
?Initialize@ioTournamentManager@@QAEXXZ PROC		; ioTournamentManager::Initialize, COMDAT
; _this$ = ecx

; 33   : 
; 34   : }

  00000	c3		 ret	 0
?Initialize@ioTournamentManager@@QAEXXZ ENDP		; ioTournamentManager::Initialize
_TEXT	ENDS
PUBLIC	?Process@ioTournamentManager@@QAEXXZ		; ioTournamentManager::Process
; Function compile flags: /Ogsp
;	COMDAT ?Process@ioTournamentManager@@QAEXXZ
_TEXT	SEGMENT
?Process@ioTournamentManager@@QAEXXZ PROC		; ioTournamentManager::Process, COMDAT
; _this$ = ecx

; 38   : 
; 39   : }

  00000	c3		 ret	 0
?Process@ioTournamentManager@@QAEXXZ ENDP		; ioTournamentManager::Process
_TEXT	ENDS
PUBLIC	?IsRegularTeamCreateUIShow@ioTournamentManager@@QAE_NXZ ; ioTournamentManager::IsRegularTeamCreateUIShow
EXTRN	__imp_?GetLoopSec@ioFrameTimer@@QBEKXZ:PROC
EXTRN	__imp_?GetSingleton@ioFrameTimer@@SAAAV1@XZ:PROC
; Function compile flags: /Ogsp
;	COMDAT ?IsRegularTeamCreateUIShow@ioTournamentManager@@QAE_NXZ
_TEXT	SEGMENT
?IsRegularTeamCreateUIShow@ioTournamentManager@@QAE_NXZ PROC ; ioTournamentManager::IsRegularTeamCreateUIShow, COMDAT
; _this$ = ecx

; 306  : {

  00000	56		 push	 esi
  00001	8b f1		 mov	 esi, ecx

; 307  : 	if( m_dwRegularTeamCreateUITimer == 0 )

  00003	83 7e 14 00	 cmp	 DWORD PTR [esi+20], 0
  00007	75 04		 jne	 SHORT $LN2@IsRegularT

; 308  : 		return false;

  00009	32 c0		 xor	 al, al
  0000b	5e		 pop	 esi

; 310  : 		return false;
; 311  : 	return true;
; 312  : }

  0000c	c3		 ret	 0
$LN2@IsRegularT:

; 309  : 	if( FRAMEGETTIME() - m_dwRegularTeamCreateUITimer > REGULAR_TEAM_CREATE_TIMER )

  0000d	ff 15 00 00 00
	00		 call	 DWORD PTR __imp_?GetSingleton@ioFrameTimer@@SAAAV1@XZ
  00013	8b c8		 mov	 ecx, eax
  00015	ff 15 00 00 00
	00		 call	 DWORD PTR __imp_?GetLoopSec@ioFrameTimer@@QBEKXZ
  0001b	2b 46 14	 sub	 eax, DWORD PTR [esi+20]
  0001e	b9 30 75 00 00	 mov	 ecx, 30000		; 00007530H
  00023	3b c8		 cmp	 ecx, eax
  00025	1a c0		 sbb	 al, al
  00027	fe c0		 inc	 al
  00029	5e		 pop	 esi

; 310  : 		return false;
; 311  : 	return true;
; 312  : }

  0002a	c3		 ret	 0
?IsRegularTeamCreateUIShow@ioTournamentManager@@QAE_NXZ ENDP ; ioTournamentManager::IsRegularTeamCreateUIShow
_TEXT	ENDS
PUBLIC	??0?$Singleton@VioTournamentManager@@@@QAE@XZ	; Singleton<ioTournamentManager>::Singleton<ioTournamentManager>
; Function compile flags: /Ogsp
; File d:\lost saga for developer\youtube\tutorial\source\src\io3dengine\iosingleton.h
;	COMDAT ??0?$Singleton@VioTournamentManager@@@@QAE@XZ
_TEXT	SEGMENT
??0?$Singleton@VioTournamentManager@@@@QAE@XZ PROC	; Singleton<ioTournamentManager>::Singleton<ioTournamentManager>, COMDAT
; _this$ = ecx

; 27   : 	Singleton()

  00000	8b c1		 mov	 eax, ecx

; 28   : 	{
; 29   : 		assert( !ms_Singleton );
; 30   : 		int offset = (int)(T*)1 - (int)(Singleton <T>*)(T*)1;
; 31   : 		ms_Singleton = (T*)((int)this + offset);

  00002	8d 48 fc	 lea	 ecx, DWORD PTR [eax-4]
  00005	89 0d 00 00 00
	00		 mov	 DWORD PTR ?ms_Singleton@?$Singleton@VioTournamentManager@@@@1PAVioTournamentManager@@A, ecx ; Singleton<ioTournamentManager>::ms_Singleton

; 32   : 	}

  0000b	c3		 ret	 0
??0?$Singleton@VioTournamentManager@@@@QAE@XZ ENDP	; Singleton<ioTournamentManager>::Singleton<ioTournamentManager>
_TEXT	ENDS
PUBLIC	??1?$Singleton@VioTournamentManager@@@@QAE@XZ	; Singleton<ioTournamentManager>::~Singleton<ioTournamentManager>
; Function compile flags: /Ogsp
;	COMDAT ??1?$Singleton@VioTournamentManager@@@@QAE@XZ
_TEXT	SEGMENT
??1?$Singleton@VioTournamentManager@@@@QAE@XZ PROC	; Singleton<ioTournamentManager>::~Singleton<ioTournamentManager>, COMDAT
; _this$ = ecx

; 36   : 		assert( ms_Singleton );
; 37   : 		ms_Singleton = 0;

  00000	83 25 00 00 00
	00 00		 and	 DWORD PTR ?ms_Singleton@?$Singleton@VioTournamentManager@@@@1PAVioTournamentManager@@A, 0 ; Singleton<ioTournamentManager>::ms_Singleton

; 38   : 	}

  00007	c3		 ret	 0
??1?$Singleton@VioTournamentManager@@@@QAE@XZ ENDP	; Singleton<ioTournamentManager>::~Singleton<ioTournamentManager>
_TEXT	ENDS
PUBLIC	?GetSingleton@?$Singleton@VioTournamentManager@@@@SAAAVioTournamentManager@@XZ ; Singleton<ioTournamentManager>::GetSingleton
; Function compile flags: /Ogsp
;	COMDAT ?GetSingleton@?$Singleton@VioTournamentManager@@@@SAAAVioTournamentManager@@XZ
_TEXT	SEGMENT
?GetSingleton@?$Singleton@VioTournamentManager@@@@SAAAVioTournamentManager@@XZ PROC ; Singleton<ioTournamentManager>::GetSingleton, COMDAT

; 42   : 		assert( ms_Singleton );
; 43   : 		return (*ms_Singleton);

  00000	a1 00 00 00 00	 mov	 eax, DWORD PTR ?ms_Singleton@?$Singleton@VioTournamentManager@@@@1PAVioTournamentManager@@A ; Singleton<ioTournamentManager>::ms_Singleton

; 44   : 	}

  00005	c3		 ret	 0
?GetSingleton@?$Singleton@VioTournamentManager@@@@SAAAVioTournamentManager@@XZ ENDP ; Singleton<ioTournamentManager>::GetSingleton
_TEXT	ENDS
PUBLIC	??_7bad_alloc@std@@6B@				; std::bad_alloc::`vftable'
PUBLIC	??0bad_alloc@std@@QAE@PBD@Z			; std::bad_alloc::bad_alloc
PUBLIC	??_R4bad_alloc@std@@6B@				; std::bad_alloc::`RTTI Complete Object Locator'
PUBLIC	??_R0?AVbad_alloc@std@@@8			; std::bad_alloc `RTTI Type Descriptor'
PUBLIC	??_R3bad_alloc@std@@8				; std::bad_alloc::`RTTI Class Hierarchy Descriptor'
PUBLIC	??_R2bad_alloc@std@@8				; std::bad_alloc::`RTTI Base Class Array'
PUBLIC	??_R1A@?0A@EA@bad_alloc@std@@8			; std::bad_alloc::`RTTI Base Class Descriptor at (0,-1,0,64)'
PUBLIC	??_R1A@?0A@EA@exception@std@@8			; std::exception::`RTTI Base Class Descriptor at (0,-1,0,64)'
PUBLIC	??_R0?AVexception@std@@@8			; std::exception `RTTI Type Descriptor'
PUBLIC	??_R3exception@std@@8				; std::exception::`RTTI Class Hierarchy Descriptor'
PUBLIC	??_R2exception@std@@8				; std::exception::`RTTI Base Class Array'
EXTRN	__imp_??0exception@std@@QAE@ABQBD@Z:PROC
EXTRN	??_7type_info@@6B@:QWORD			; type_info::`vftable'
EXTRN	??_Ebad_alloc@std@@UAEPAXI@Z:PROC		; std::bad_alloc::`vector deleting destructor'
EXTRN	?what@exception@std@@UBEPBDXZ:PROC		; std::exception::what
;	COMDAT ??_R2exception@std@@8
; File c:\program files (x86)\microsoft visual studio 10.0\vc\include\exception
rdata$r	SEGMENT
??_R2exception@std@@8 DD FLAT:??_R1A@?0A@EA@exception@std@@8 ; std::exception::`RTTI Base Class Array'
rdata$r	ENDS
;	COMDAT ??_R3exception@std@@8
rdata$r	SEGMENT
??_R3exception@std@@8 DD 00H				; std::exception::`RTTI Class Hierarchy Descriptor'
	DD	00H
	DD	01H
	DD	FLAT:??_R2exception@std@@8
rdata$r	ENDS
;	COMDAT ??_R0?AVexception@std@@@8
_DATA	SEGMENT
??_R0?AVexception@std@@@8 DD FLAT:??_7type_info@@6B@	; std::exception `RTTI Type Descriptor'
	DD	00H
	DB	'.?AVexception@std@@', 00H
_DATA	ENDS
;	COMDAT ??_R1A@?0A@EA@exception@std@@8
rdata$r	SEGMENT
??_R1A@?0A@EA@exception@std@@8 DD FLAT:??_R0?AVexception@std@@@8 ; std::exception::`RTTI Base Class Descriptor at (0,-1,0,64)'
	DD	00H
	DD	00H
	DD	0ffffffffH
	DD	00H
	DD	040H
	DD	FLAT:??_R3exception@std@@8
rdata$r	ENDS
;	COMDAT ??_R1A@?0A@EA@bad_alloc@std@@8
rdata$r	SEGMENT
??_R1A@?0A@EA@bad_alloc@std@@8 DD FLAT:??_R0?AVbad_alloc@std@@@8 ; std::bad_alloc::`RTTI Base Class Descriptor at (0,-1,0,64)'
	DD	01H
	DD	00H
	DD	0ffffffffH
	DD	00H
	DD	040H
	DD	FLAT:??_R3bad_alloc@std@@8
rdata$r	ENDS
;	COMDAT ??_R2bad_alloc@std@@8
rdata$r	SEGMENT
??_R2bad_alloc@std@@8 DD FLAT:??_R1A@?0A@EA@bad_alloc@std@@8 ; std::bad_alloc::`RTTI Base Class Array'
	DD	FLAT:??_R1A@?0A@EA@exception@std@@8
rdata$r	ENDS
;	COMDAT ??_R3bad_alloc@std@@8
rdata$r	SEGMENT
??_R3bad_alloc@std@@8 DD 00H				; std::bad_alloc::`RTTI Class Hierarchy Descriptor'
	DD	00H
	DD	02H
	DD	FLAT:??_R2bad_alloc@std@@8
rdata$r	ENDS
;	COMDAT ??_R0?AVbad_alloc@std@@@8
_DATA	SEGMENT
??_R0?AVbad_alloc@std@@@8 DD FLAT:??_7type_info@@6B@	; std::bad_alloc `RTTI Type Descriptor'
	DD	00H
	DB	'.?AVbad_alloc@std@@', 00H
_DATA	ENDS
;	COMDAT ??_R4bad_alloc@std@@6B@
rdata$r	SEGMENT
??_R4bad_alloc@std@@6B@ DD 00H				; std::bad_alloc::`RTTI Complete Object Locator'
	DD	00H
	DD	00H
	DD	FLAT:??_R0?AVbad_alloc@std@@@8
	DD	FLAT:??_R3bad_alloc@std@@8
rdata$r	ENDS
;	COMDAT ??_7bad_alloc@std@@6B@
CONST	SEGMENT
??_7bad_alloc@std@@6B@ DD FLAT:??_R4bad_alloc@std@@6B@	; std::bad_alloc::`vftable'
	DD	FLAT:??_Ebad_alloc@std@@UAEPAXI@Z
	DD	FLAT:?what@exception@std@@UBEPBDXZ
; Function compile flags: /Ogsp
CONST	ENDS
;	COMDAT ??0bad_alloc@std@@QAE@PBD@Z
_TEXT	SEGMENT
__Message$ = 8						; size = 4
??0bad_alloc@std@@QAE@PBD@Z PROC			; std::bad_alloc::bad_alloc, COMDAT
; _this$ = ecx

; 345  : 		{	// construct from message string

  00000	55		 push	 ebp
  00001	8b ec		 mov	 ebp, esp
  00003	56		 push	 esi
  00004	8d 45 08	 lea	 eax, DWORD PTR __Message$[ebp]
  00007	50		 push	 eax
  00008	8b f1		 mov	 esi, ecx
  0000a	ff 15 00 00 00
	00		 call	 DWORD PTR __imp_??0exception@std@@QAE@ABQBD@Z
  00010	c7 06 00 00 00
	00		 mov	 DWORD PTR [esi], OFFSET ??_7bad_alloc@std@@6B@

; 346  : 		}

  00016	8b c6		 mov	 eax, esi
  00018	5e		 pop	 esi
  00019	5d		 pop	 ebp
  0001a	c2 04 00	 ret	 4
??0bad_alloc@std@@QAE@PBD@Z ENDP			; std::bad_alloc::bad_alloc
_TEXT	ENDS
PUBLIC	??1bad_alloc@std@@UAE@XZ			; std::bad_alloc::~bad_alloc
EXTRN	__imp_??1exception@std@@UAE@XZ:PROC
; Function compile flags: /Ogsp
;	COMDAT ??1bad_alloc@std@@UAE@XZ
_TEXT	SEGMENT
??1bad_alloc@std@@UAE@XZ PROC				; std::bad_alloc::~bad_alloc, COMDAT
; _this$ = ecx

; 354  : 		{	// destroy the object

  00000	c7 01 00 00 00
	00		 mov	 DWORD PTR [ecx], OFFSET ??_7bad_alloc@std@@6B@

; 355  : 		}

  00006	ff 25 00 00 00
	00		 jmp	 DWORD PTR __imp_??1exception@std@@UAE@XZ
??1bad_alloc@std@@UAE@XZ ENDP				; std::bad_alloc::~bad_alloc
_TEXT	ENDS
EXTRN	??3@YAXPAX@Z:PROC				; operator delete
; Function compile flags: /Ogsp
;	COMDAT ??_Gbad_alloc@std@@UAEPAXI@Z
_TEXT	SEGMENT
___flags$ = 8						; size = 4
??_Gbad_alloc@std@@UAEPAXI@Z PROC			; std::bad_alloc::`scalar deleting destructor', COMDAT
; _this$ = ecx
  00000	55		 push	 ebp
  00001	8b ec		 mov	 ebp, esp
  00003	56		 push	 esi
  00004	8b f1		 mov	 esi, ecx
  00006	c7 06 00 00 00
	00		 mov	 DWORD PTR [esi], OFFSET ??_7bad_alloc@std@@6B@
  0000c	ff 15 00 00 00
	00		 call	 DWORD PTR __imp_??1exception@std@@UAE@XZ
  00012	f6 45 08 01	 test	 BYTE PTR ___flags$[ebp], 1
  00016	74 07		 je	 SHORT $LN1@scalar
  00018	56		 push	 esi
  00019	e8 00 00 00 00	 call	 ??3@YAXPAX@Z		; operator delete
  0001e	59		 pop	 ecx
$LN1@scalar:
  0001f	8b c6		 mov	 eax, esi
  00021	5e		 pop	 esi
  00022	5d		 pop	 ebp
  00023	c2 04 00	 ret	 4
??_Gbad_alloc@std@@UAEPAXI@Z ENDP			; std::bad_alloc::`scalar deleting destructor'
_TEXT	ENDS
PUBLIC	??2@YAPAXIPAX@Z					; operator new
; Function compile flags: /Ogsp
; File c:\program files (x86)\microsoft visual studio 10.0\vc\include\new
;	COMDAT ??2@YAPAXIPAX@Z
_TEXT	SEGMENT
___formal$ = 8						; size = 4
__Where$ = 12						; size = 4
??2@YAPAXIPAX@Z PROC					; operator new, COMDAT

; 56   : 	{	// construct array with placement at _Where

  00000	55		 push	 ebp
  00001	8b ec		 mov	 ebp, esp

; 57   : 	return (_Where);

  00003	8b 45 0c	 mov	 eax, DWORD PTR __Where$[ebp]

; 58   : 	}

  00006	5d		 pop	 ebp
  00007	c3		 ret	 0
??2@YAPAXIPAX@Z ENDP					; operator new
_TEXT	ENDS
PUBLIC	??3@YAXPAX0@Z					; operator delete
; Function compile flags: /Ogsp
;	COMDAT ??3@YAXPAX0@Z
_TEXT	SEGMENT
___formal$ = 8						; size = 4
___formal$ = 12						; size = 4
??3@YAXPAX0@Z PROC					; operator delete, COMDAT

; 62   : 	}

  00000	c3		 ret	 0
??3@YAXPAX0@Z ENDP					; operator delete
_TEXT	ENDS
PUBLIC	?_Inside@?$vector@PAVTournamentNode@@V?$allocator@PAVTournamentNode@@@std@@@std@@IBE_NPBQAVTournamentNode@@@Z ; std::vector<TournamentNode *,std::allocator<TournamentNode *> >::_Inside
; Function compile flags: /Ogsp
; File c:\program files (x86)\microsoft visual studio 10.0\vc\include\vector
;	COMDAT ?_Inside@?$vector@PAVTournamentNode@@V?$allocator@PAVTournamentNode@@@std@@@std@@IBE_NPBQAVTournamentNode@@@Z
_TEXT	SEGMENT
__Ptr$ = 8						; size = 4
?_Inside@?$vector@PAVTournamentNode@@V?$allocator@PAVTournamentNode@@@std@@@std@@IBE_NPBQAVTournamentNode@@@Z PROC ; std::vector<TournamentNode *,std::allocator<TournamentNode *> >::_Inside, COMDAT
; _this$ = ecx

; 1285 : 		{	// test if _Ptr points inside vector

  00000	55		 push	 ebp
  00001	8b ec		 mov	 ebp, esp

; 1286 : 		return (_Ptr < this->_Mylast && this->_Myfirst <= _Ptr);

  00003	8b 45 08	 mov	 eax, DWORD PTR __Ptr$[ebp]
  00006	3b 41 04	 cmp	 eax, DWORD PTR [ecx+4]
  00009	73 09		 jae	 SHORT $LN3@Inside
  0000b	39 01		 cmp	 DWORD PTR [ecx], eax
  0000d	77 05		 ja	 SHORT $LN3@Inside
  0000f	33 c0		 xor	 eax, eax
  00011	40		 inc	 eax
  00012	eb 02		 jmp	 SHORT $LN4@Inside
$LN3@Inside:
  00014	33 c0		 xor	 eax, eax
$LN4@Inside:

; 1287 : 		}

  00016	5d		 pop	 ebp
  00017	c2 04 00	 ret	 4
?_Inside@?$vector@PAVTournamentNode@@V?$allocator@PAVTournamentNode@@@std@@@std@@IBE_NPBQAVTournamentNode@@@Z ENDP ; std::vector<TournamentNode *,std::allocator<TournamentNode *> >::_Inside
_TEXT	ENDS
PUBLIC	?_Orphan_range@?$vector@PAVTournamentNode@@V?$allocator@PAVTournamentNode@@@std@@@std@@IBEXPAPAVTournamentNode@@0@Z ; std::vector<TournamentNode *,std::allocator<TournamentNode *> >::_Orphan_range
; Function compile flags: /Ogsp
;	COMDAT ?_Orphan_range@?$vector@PAVTournamentNode@@V?$allocator@PAVTournamentNode@@@std@@@std@@IBEXPAPAVTournamentNode@@0@Z
_TEXT	SEGMENT
___formal$ = 8						; size = 4
___formal$ = 12						; size = 4
?_Orphan_range@?$vector@PAVTournamentNode@@V?$allocator@PAVTournamentNode@@@std@@@std@@IBEXPAPAVTournamentNode@@0@Z PROC ; std::vector<TournamentNode *,std::allocator<TournamentNode *> >::_Orphan_range, COMDAT
; _this$ = ecx

; 1454 : 		}

  00000	c2 08 00	 ret	 8
?_Orphan_range@?$vector@PAVTournamentNode@@V?$allocator@PAVTournamentNode@@@std@@@std@@IBEXPAPAVTournamentNode@@0@Z ENDP ; std::vector<TournamentNode *,std::allocator<TournamentNode *> >::_Orphan_range
_TEXT	ENDS
PUBLIC	??1?$_Vector_val@PAVTournamentNode@@V?$allocator@PAVTournamentNode@@@std@@@std@@QAE@XZ ; std::_Vector_val<TournamentNode *,std::allocator<TournamentNode *> >::~_Vector_val<TournamentNode *,std::allocator<TournamentNode *> >
; Function compile flags: /Ogsp
;	COMDAT ??1?$_Vector_val@PAVTournamentNode@@V?$allocator@PAVTournamentNode@@@std@@@std@@QAE@XZ
_TEXT	SEGMENT
??1?$_Vector_val@PAVTournamentNode@@V?$allocator@PAVTournamentNode@@@std@@@std@@QAE@XZ PROC ; std::_Vector_val<TournamentNode *,std::allocator<TournamentNode *> >::~_Vector_val<TournamentNode *,std::allocator<TournamentNode *> >, COMDAT
; _this$ = ecx

; 434  : 		}

  00000	c3		 ret	 0
??1?$_Vector_val@PAVTournamentNode@@V?$allocator@PAVTournamentNode@@@std@@@std@@QAE@XZ ENDP ; std::_Vector_val<TournamentNode *,std::allocator<TournamentNode *> >::~_Vector_val<TournamentNode *,std::allocator<TournamentNode *> >
_TEXT	ENDS
PUBLIC	??0?$allocator@PAVTournamentNode@@@std@@QAE@XZ	; std::allocator<TournamentNode *>::allocator<TournamentNode *>
; Function compile flags: /Ogsp
; File c:\program files (x86)\microsoft visual studio 10.0\vc\include\xmemory
;	COMDAT ??0?$allocator@PAVTournamentNode@@@std@@QAE@XZ
_TEXT	SEGMENT
??0?$allocator@PAVTournamentNode@@@std@@QAE@XZ PROC	; std::allocator<TournamentNode *>::allocator<TournamentNode *>, COMDAT
; _this$ = ecx

; 161  : 	_ALLOCATOR() _THROW0()

  00000	8b c1		 mov	 eax, ecx

; 162  : 		{	// construct default allocator (do nothing)
; 163  : 		}

  00002	c3		 ret	 0
??0?$allocator@PAVTournamentNode@@@std@@QAE@XZ ENDP	; std::allocator<TournamentNode *>::allocator<TournamentNode *>
_TEXT	ENDS
PUBLIC	??D?$_Vector_const_iterator@V?$_Vector_val@PAVTournamentNode@@V?$allocator@PAVTournamentNode@@@std@@@std@@@std@@QBEABQAVTournamentNode@@XZ ; std::_Vector_const_iterator<std::_Vector_val<TournamentNode *,std::allocator<TournamentNode *> > >::operator*
; Function compile flags: /Ogsp
; File c:\program files (x86)\microsoft visual studio 10.0\vc\include\vector
;	COMDAT ??D?$_Vector_const_iterator@V?$_Vector_val@PAVTournamentNode@@V?$allocator@PAVTournamentNode@@@std@@@std@@@std@@QBEABQAVTournamentNode@@XZ
_TEXT	SEGMENT
??D?$_Vector_const_iterator@V?$_Vector_val@PAVTournamentNode@@V?$allocator@PAVTournamentNode@@@std@@@std@@@std@@QBEABQAVTournamentNode@@XZ PROC ; std::_Vector_const_iterator<std::_Vector_val<TournamentNode *,std::allocator<TournamentNode *> > >::operator*, COMDAT
; _this$ = ecx

; 64   :  #if _ITERATOR_DEBUG_LEVEL == 2
; 65   : 		if (this->_Getcont() == 0
; 66   : 			|| this->_Ptr == 0
; 67   : 			|| this->_Ptr < ((_Myvec *)this->_Getcont())->_Myfirst
; 68   : 			|| ((_Myvec *)this->_Getcont())->_Mylast <= this->_Ptr)
; 69   : 			{	// report error
; 70   : 			_DEBUG_ERROR("vector iterator not dereferencable");
; 71   : 			_SCL_SECURE_OUT_OF_RANGE;
; 72   : 			}
; 73   : 
; 74   :  #elif _ITERATOR_DEBUG_LEVEL == 1
; 75   : 		_SCL_SECURE_VALIDATE(this->_Getcont() != 0);
; 76   : 		_SCL_SECURE_VALIDATE_RANGE(
; 77   : 			this->_Ptr != 0
; 78   : 			&& ((_Myvec *)this->_Getcont())->_Myfirst <= this->_Ptr
; 79   : 			&& this->_Ptr < ((_Myvec *)this->_Getcont())->_Mylast);
; 80   :  #endif /* _ITERATOR_DEBUG_LEVEL */
; 81   : 
; 82   : 		__analysis_assume(this->_Ptr != 0);
; 83   : 
; 84   : 		return (*this->_Ptr);

  00000	8b 01		 mov	 eax, DWORD PTR [ecx]

; 85   : 		}

  00002	c3		 ret	 0
??D?$_Vector_const_iterator@V?$_Vector_val@PAVTournamentNode@@V?$allocator@PAVTournamentNode@@@std@@@std@@@std@@QBEABQAVTournamentNode@@XZ ENDP ; std::_Vector_const_iterator<std::_Vector_val<TournamentNode *,std::allocator<TournamentNode *> > >::operator*
_TEXT	ENDS
PUBLIC	??E?$_Vector_const_iterator@V?$_Vector_val@PAVTournamentNode@@V?$allocator@PAVTournamentNode@@@std@@@std@@@std@@QAEAAV01@XZ ; std::_Vector_const_iterator<std::_Vector_val<TournamentNode *,std::allocator<TournamentNode *> > >::operator++
; Function compile flags: /Ogsp
;	COMDAT ??E?$_Vector_const_iterator@V?$_Vector_val@PAVTournamentNode@@V?$allocator@PAVTournamentNode@@@std@@@std@@@std@@QAEAAV01@XZ
_TEXT	SEGMENT
??E?$_Vector_const_iterator@V?$_Vector_val@PAVTournamentNode@@V?$allocator@PAVTournamentNode@@@std@@@std@@@std@@QAEAAV01@XZ PROC ; std::_Vector_const_iterator<std::_Vector_val<TournamentNode *,std::allocator<TournamentNode *> > >::operator++, COMDAT
; _this$ = ecx

; 93   : 		{	// preincrement

  00000	8b c1		 mov	 eax, ecx

; 94   :  #if _ITERATOR_DEBUG_LEVEL == 2
; 95   : 		if (this->_Getcont() == 0
; 96   : 			|| this->_Ptr == 0
; 97   : 			|| ((_Myvec *)this->_Getcont())->_Mylast <= this->_Ptr)
; 98   : 			{	// report error
; 99   : 			_DEBUG_ERROR("vector iterator not incrementable");
; 100  : 			_SCL_SECURE_OUT_OF_RANGE;
; 101  : 			}
; 102  : 
; 103  :  #elif _ITERATOR_DEBUG_LEVEL == 1
; 104  : 		_SCL_SECURE_VALIDATE(this->_Getcont() != 0);
; 105  : 		_SCL_SECURE_VALIDATE_RANGE(
; 106  : 			this->_Ptr != 0
; 107  : 			&& this->_Ptr < ((_Myvec *)this->_Getcont())->_Mylast);
; 108  :  #endif /* _ITERATOR_DEBUG_LEVEL */
; 109  : 
; 110  : 		++this->_Ptr;

  00002	83 00 04	 add	 DWORD PTR [eax], 4

; 111  : 		return (*this);
; 112  : 		}

  00005	c3		 ret	 0
??E?$_Vector_const_iterator@V?$_Vector_val@PAVTournamentNode@@V?$allocator@PAVTournamentNode@@@std@@@std@@@std@@QAEAAV01@XZ ENDP ; std::_Vector_const_iterator<std::_Vector_val<TournamentNode *,std::allocator<TournamentNode *> > >::operator++
_TEXT	ENDS
PUBLIC	?capacity@?$vector@PAVTournamentNode@@V?$allocator@PAVTournamentNode@@@std@@@std@@QBEIXZ ; std::vector<TournamentNode *,std::allocator<TournamentNode *> >::capacity
; Function compile flags: /Ogsp
;	COMDAT ?capacity@?$vector@PAVTournamentNode@@V?$allocator@PAVTournamentNode@@@std@@@std@@QBEIXZ
_TEXT	SEGMENT
?capacity@?$vector@PAVTournamentNode@@V?$allocator@PAVTournamentNode@@@std@@@std@@QBEIXZ PROC ; std::vector<TournamentNode *,std::allocator<TournamentNode *> >::capacity, COMDAT
; _this$ = ecx

; 777  : 		return (this->_Myend - this->_Myfirst);

  00000	8b 41 08	 mov	 eax, DWORD PTR [ecx+8]
  00003	2b 01		 sub	 eax, DWORD PTR [ecx]
  00005	c1 f8 02	 sar	 eax, 2

; 778  : 		}

  00008	c3		 ret	 0
?capacity@?$vector@PAVTournamentNode@@V?$allocator@PAVTournamentNode@@@std@@@std@@QBEIXZ ENDP ; std::vector<TournamentNode *,std::allocator<TournamentNode *> >::capacity
_TEXT	ENDS
PUBLIC	?size@?$vector@PAVTournamentNode@@V?$allocator@PAVTournamentNode@@@std@@@std@@QBEIXZ ; std::vector<TournamentNode *,std::allocator<TournamentNode *> >::size
; Function compile flags: /Ogsp
;	COMDAT ?size@?$vector@PAVTournamentNode@@V?$allocator@PAVTournamentNode@@@std@@@std@@QBEIXZ
_TEXT	SEGMENT
?size@?$vector@PAVTournamentNode@@V?$allocator@PAVTournamentNode@@@std@@@std@@QBEIXZ PROC ; std::vector<TournamentNode *,std::allocator<TournamentNode *> >::size, COMDAT
; _this$ = ecx

; 879  : 		return (this->_Mylast - this->_Myfirst);

  00000	8b 41 04	 mov	 eax, DWORD PTR [ecx+4]
  00003	2b 01		 sub	 eax, DWORD PTR [ecx]
  00005	c1 f8 02	 sar	 eax, 2

; 880  : 		}

  00008	c3		 ret	 0
?size@?$vector@PAVTournamentNode@@V?$allocator@PAVTournamentNode@@@std@@@std@@QBEIXZ ENDP ; std::vector<TournamentNode *,std::allocator<TournamentNode *> >::size
_TEXT	ENDS
PUBLIC	??_C@_0BD@OLBABOEK@vector?$DMT?$DO?5too?5long?$AA@ ; `string'
PUBLIC	?_Xlen@?$vector@PAVTournamentNode@@V?$allocator@PAVTournamentNode@@@std@@@std@@IBEXXZ ; std::vector<TournamentNode *,std::allocator<TournamentNode *> >::_Xlen
EXTRN	__imp_?_Xlength_error@std@@YAXPBD@Z:PROC
;	COMDAT ??_C@_0BD@OLBABOEK@vector?$DMT?$DO?5too?5long?$AA@
CONST	SEGMENT
??_C@_0BD@OLBABOEK@vector?$DMT?$DO?5too?5long?$AA@ DB 'vector<T> too long'
	DB	00H						; `string'
; Function compile flags: /Ogsp
CONST	ENDS
;	COMDAT ?_Xlen@?$vector@PAVTournamentNode@@V?$allocator@PAVTournamentNode@@@std@@@std@@IBEXXZ
_TEXT	SEGMENT
?_Xlen@?$vector@PAVTournamentNode@@V?$allocator@PAVTournamentNode@@@std@@@std@@IBEXXZ PROC ; std::vector<TournamentNode *,std::allocator<TournamentNode *> >::_Xlen, COMDAT
; _this$ = ecx

; 1427 : 		_Xlength_error("vector<T> too long");

  00000	68 00 00 00 00	 push	 OFFSET ??_C@_0BD@OLBABOEK@vector?$DMT?$DO?5too?5long?$AA@
  00005	ff 15 00 00 00
	00		 call	 DWORD PTR __imp_?_Xlength_error@std@@YAXPBD@Z
$LN4@Xlen:
$LN3@Xlen:
  0000b	cc		 int	 3
?_Xlen@?$vector@PAVTournamentNode@@V?$allocator@PAVTournamentNode@@@std@@@std@@IBEXXZ ENDP ; std::vector<TournamentNode *,std::allocator<TournamentNode *> >::_Xlen
_TEXT	ENDS
PUBLIC	??0?$allocator@PAVTournamentNode@@@std@@QAE@ABV01@@Z ; std::allocator<TournamentNode *>::allocator<TournamentNode *>
; Function compile flags: /Ogsp
; File c:\program files (x86)\microsoft visual studio 10.0\vc\include\xmemory
;	COMDAT ??0?$allocator@PAVTournamentNode@@@std@@QAE@ABV01@@Z
_TEXT	SEGMENT
___formal$ = 8						; size = 4
??0?$allocator@PAVTournamentNode@@@std@@QAE@ABV01@@Z PROC ; std::allocator<TournamentNode *>::allocator<TournamentNode *>, COMDAT
; _this$ = ecx

; 165  : 	_ALLOCATOR(const _ALLOCATOR<_Ty>&) _THROW0()

  00000	8b c1		 mov	 eax, ecx

; 166  : 		{	// construct by copying (do nothing)
; 167  : 		}

  00002	c2 04 00	 ret	 4
??0?$allocator@PAVTournamentNode@@@std@@QAE@ABV01@@Z ENDP ; std::allocator<TournamentNode *>::allocator<TournamentNode *>
_TEXT	ENDS
PUBLIC	?deallocate@?$allocator@PAVTournamentNode@@@std@@QAEXPAPAVTournamentNode@@I@Z ; std::allocator<TournamentNode *>::deallocate
; Function compile flags: /Ogsp
;	COMDAT ?deallocate@?$allocator@PAVTournamentNode@@@std@@QAEXPAPAVTournamentNode@@I@Z
_TEXT	SEGMENT
__Ptr$ = 8						; size = 4
___formal$ = 12						; size = 4
?deallocate@?$allocator@PAVTournamentNode@@@std@@QAEXPAPAVTournamentNode@@I@Z PROC ; std::allocator<TournamentNode *>::deallocate, COMDAT
; _this$ = ecx

; 181  : 		{	// deallocate object at _Ptr, ignore size

  00000	55		 push	 ebp
  00001	8b ec		 mov	 ebp, esp

; 182  : 		::operator delete(_Ptr);

  00003	ff 75 08	 push	 DWORD PTR __Ptr$[ebp]
  00006	e8 00 00 00 00	 call	 ??3@YAXPAX@Z		; operator delete
  0000b	59		 pop	 ecx

; 183  : 		}

  0000c	5d		 pop	 ebp
  0000d	c2 08 00	 ret	 8
?deallocate@?$allocator@PAVTournamentNode@@@std@@QAEXPAPAVTournamentNode@@I@Z ENDP ; std::allocator<TournamentNode *>::deallocate
_TEXT	ENDS
PUBLIC	?_Compat@?$_Vector_const_iterator@V?$_Vector_val@PAVTournamentNode@@V?$allocator@PAVTournamentNode@@@std@@@std@@@std@@QBEXABV12@@Z ; std::_Vector_const_iterator<std::_Vector_val<TournamentNode *,std::allocator<TournamentNode *> > >::_Compat
; Function compile flags: /Ogsp
; File c:\program files (x86)\microsoft visual studio 10.0\vc\include\vector
;	COMDAT ?_Compat@?$_Vector_const_iterator@V?$_Vector_val@PAVTournamentNode@@V?$allocator@PAVTournamentNode@@@std@@@std@@@std@@QBEXABV12@@Z
_TEXT	SEGMENT
___formal$ = 8						; size = 4
?_Compat@?$_Vector_const_iterator@V?$_Vector_val@PAVTournamentNode@@V?$allocator@PAVTournamentNode@@@std@@@std@@@std@@QBEXABV12@@Z PROC ; std::_Vector_const_iterator<std::_Vector_val<TournamentNode *,std::allocator<TournamentNode *> > >::_Compat, COMDAT
; _this$ = ecx

; 253  : 		}

  00000	c2 04 00	 ret	 4
?_Compat@?$_Vector_const_iterator@V?$_Vector_val@PAVTournamentNode@@V?$allocator@PAVTournamentNode@@@std@@@std@@@std@@QBEXABV12@@Z ENDP ; std::_Vector_const_iterator<std::_Vector_val<TournamentNode *,std::allocator<TournamentNode *> > >::_Compat
_TEXT	ENDS
PUBLIC	?max_size@?$allocator@PAVTournamentNode@@@std@@QBEIXZ ; std::allocator<TournamentNode *>::max_size
; Function compile flags: /Ogsp
; File c:\program files (x86)\microsoft visual studio 10.0\vc\include\xmemory
;	COMDAT ?max_size@?$allocator@PAVTournamentNode@@@std@@QBEIXZ
_TEXT	SEGMENT
?max_size@?$allocator@PAVTournamentNode@@@std@@QBEIXZ PROC ; std::allocator<TournamentNode *>::max_size, COMDAT
; _this$ = ecx

; 218  : 		_SIZT _Count = (_SIZT)(-1) / sizeof (_Ty);
; 219  : 		return (0 < _Count ? _Count : 1);

  00000	b8 ff ff ff 3f	 mov	 eax, 1073741823		; 3fffffffH

; 220  : 		}

  00005	c3		 ret	 0
?max_size@?$allocator@PAVTournamentNode@@@std@@QBEIXZ ENDP ; std::allocator<TournamentNode *>::max_size
_TEXT	ENDS
PUBLIC	??$addressof@QAVTournamentNode@@@std@@YAPBQAVTournamentNode@@ABQAV1@@Z ; std::addressof<TournamentNode * const>
; Function compile flags: /Ogsp
;	COMDAT ??$addressof@QAVTournamentNode@@@std@@YAPBQAVTournamentNode@@ABQAV1@@Z
_TEXT	SEGMENT
__Val$ = 8						; size = 4
??$addressof@QAVTournamentNode@@@std@@YAPBQAVTournamentNode@@ABQAV1@@Z PROC ; std::addressof<TournamentNode * const>, COMDAT

; 110  : 	{	// return address of _Val

  00000	55		 push	 ebp
  00001	8b ec		 mov	 ebp, esp

; 111  : 	return ((_Ty *) &(char&)_Val);

  00003	8b 45 08	 mov	 eax, DWORD PTR __Val$[ebp]

; 112  : 	}

  00006	5d		 pop	 ebp
  00007	c3		 ret	 0
??$addressof@QAVTournamentNode@@@std@@YAPBQAVTournamentNode@@ABQAV1@@Z ENDP ; std::addressof<TournamentNode * const>
_TEXT	ENDS
PUBLIC	__TI2?AVbad_alloc@std@@
PUBLIC	??$_Allocate@PAVTournamentNode@@@std@@YAPAPAVTournamentNode@@IPAPAV1@@Z ; std::_Allocate<TournamentNode *>
PUBLIC	__CTA2?AVbad_alloc@std@@
PUBLIC	__CT??_R0?AVbad_alloc@std@@@8??0bad_alloc@std@@QAE@ABV01@@Z12
PUBLIC	??0bad_alloc@std@@QAE@ABV01@@Z			; std::bad_alloc::bad_alloc
PUBLIC	__CT??_R0?AVexception@std@@@8??0exception@std@@QAE@ABV01@@Z12
EXTRN	??2@YAPAXI@Z:PROC				; operator new
EXTRN	__CxxThrowException@8:PROC
EXTRN	??0exception@std@@QAE@ABV01@@Z:PROC		; std::exception::exception
;	COMDAT __CT??_R0?AVexception@std@@@8??0exception@std@@QAE@ABV01@@Z12
; File c:\program files (x86)\microsoft visual studio 10.0\vc\include\exception
xdata$x	SEGMENT
__CT??_R0?AVexception@std@@@8??0exception@std@@QAE@ABV01@@Z12 DD 00H
	DD	FLAT:??_R0?AVexception@std@@@8
	DD	00H
	DD	0ffffffffH
	ORG $+4
	DD	0cH
	DD	FLAT:??0exception@std@@QAE@ABV01@@Z
xdata$x	ENDS
;	COMDAT __CT??_R0?AVbad_alloc@std@@@8??0bad_alloc@std@@QAE@ABV01@@Z12
xdata$x	SEGMENT
__CT??_R0?AVbad_alloc@std@@@8??0bad_alloc@std@@QAE@ABV01@@Z12 DD 00H
	DD	FLAT:??_R0?AVbad_alloc@std@@@8
	DD	00H
	DD	0ffffffffH
	ORG $+4
	DD	0cH
	DD	FLAT:??0bad_alloc@std@@QAE@ABV01@@Z
xdata$x	ENDS
;	COMDAT __CTA2?AVbad_alloc@std@@
xdata$x	SEGMENT
__CTA2?AVbad_alloc@std@@ DD 02H
	DD	FLAT:__CT??_R0?AVbad_alloc@std@@@8??0bad_alloc@std@@QAE@ABV01@@Z12
	DD	FLAT:__CT??_R0?AVexception@std@@@8??0exception@std@@QAE@ABV01@@Z12
xdata$x	ENDS
;	COMDAT __TI2?AVbad_alloc@std@@
xdata$x	SEGMENT
__TI2?AVbad_alloc@std@@ DD 00H
	DD	FLAT:??1bad_alloc@std@@UAE@XZ
	DD	00H
	DD	FLAT:__CTA2?AVbad_alloc@std@@
; Function compile flags: /Ogsp
; File c:\program files (x86)\microsoft visual studio 10.0\vc\include\xmemory
xdata$x	ENDS
;	COMDAT ??$_Allocate@PAVTournamentNode@@@std@@YAPAPAVTournamentNode@@IPAPAV1@@Z
_TEXT	SEGMENT
$T512011 = -12						; size = 12
$T512016 = 8						; size = 4
__Count$ = 8						; size = 4
___formal$ = 12						; size = 4
??$_Allocate@PAVTournamentNode@@@std@@YAPAPAVTournamentNode@@IPAPAV1@@Z PROC ; std::_Allocate<TournamentNode *>, COMDAT

; 30   : 	{	// allocate storage for _Count elements of type _Ty

  00000	55		 push	 ebp
  00001	8b ec		 mov	 ebp, esp

; 31   : 	void *_Ptr = 0;
; 32   : 
; 33   : 	if (_Count <= 0)

  00003	8b 4d 08	 mov	 ecx, DWORD PTR __Count$[ebp]
  00006	83 ec 0c	 sub	 esp, 12			; 0000000cH
  00009	33 c0		 xor	 eax, eax
  0000b	85 c9		 test	 ecx, ecx

; 34   : 		_Count = 0;
; 35   : 	else if (((_SIZT)(-1) / sizeof (_Ty) < _Count)

  0000d	74 3e		 je	 SHORT $LN5@Allocate

; 36   : 		|| (_Ptr = ::operator new(_Count * sizeof (_Ty))) == 0)

  0000f	81 f9 ff ff ff
	3f		 cmp	 ecx, 1073741823		; 3fffffffH
  00015	77 10		 ja	 SHORT $LN1@Allocate
  00017	8b c1		 mov	 eax, ecx
  00019	c1 e0 02	 shl	 eax, 2
  0001c	50		 push	 eax
  0001d	e8 00 00 00 00	 call	 ??2@YAPAXI@Z		; operator new
  00022	59		 pop	 ecx
  00023	85 c0		 test	 eax, eax

; 38   : 
; 39   : 	return ((_Ty _FARQ *)_Ptr);

  00025	75 26		 jne	 SHORT $LN5@Allocate
$LN1@Allocate:

; 37   : 		_THROW_NCEE(bad_alloc, 0);

  00027	83 65 08 00	 and	 DWORD PTR $T512016[ebp], 0
  0002b	8d 45 08	 lea	 eax, DWORD PTR $T512016[ebp]
  0002e	50		 push	 eax
  0002f	8d 4d f4	 lea	 ecx, DWORD PTR $T512011[ebp]
  00032	ff 15 00 00 00
	00		 call	 DWORD PTR __imp_??0exception@std@@QAE@ABQBD@Z
  00038	68 00 00 00 00	 push	 OFFSET __TI2?AVbad_alloc@std@@
  0003d	8d 45 f4	 lea	 eax, DWORD PTR $T512011[ebp]
  00040	50		 push	 eax
  00041	c7 45 f4 00 00
	00 00		 mov	 DWORD PTR $T512011[ebp], OFFSET ??_7bad_alloc@std@@6B@
  00048	e8 00 00 00 00	 call	 __CxxThrowException@8
$LN10@Allocate:
$LN5@Allocate:

; 40   : 	}

  0004d	c9		 leave
  0004e	c3		 ret	 0
$LN9@Allocate:
??$_Allocate@PAVTournamentNode@@@std@@YAPAPAVTournamentNode@@IPAPAV1@@Z ENDP ; std::_Allocate<TournamentNode *>
_TEXT	ENDS
PUBLIC	??$forward@AAPAVTournamentNode@@@std@@YAAAPAVTournamentNode@@AAPAV1@@Z ; std::forward<TournamentNode * &>
; Function compile flags: /Ogsp
; File c:\program files (x86)\microsoft visual studio 10.0\vc\include\utility
;	COMDAT ??$forward@AAPAVTournamentNode@@@std@@YAAAPAVTournamentNode@@AAPAV1@@Z
_TEXT	SEGMENT
__Arg$ = 8						; size = 4
??$forward@AAPAVTournamentNode@@@std@@YAAAPAVTournamentNode@@AAPAV1@@Z PROC ; std::forward<TournamentNode * &>, COMDAT

; 78   : 	{	// forward _Arg, given explicitly specified type parameter

  00000	55		 push	 ebp
  00001	8b ec		 mov	 ebp, esp

; 79   : 	return ((_Ty&&)_Arg);

  00003	8b 45 08	 mov	 eax, DWORD PTR __Arg$[ebp]

; 80   : 	}

  00006	5d		 pop	 ebp
  00007	c3		 ret	 0
??$forward@AAPAVTournamentNode@@@std@@YAAAPAVTournamentNode@@AAPAV1@@Z ENDP ; std::forward<TournamentNode * &>
_TEXT	ENDS
PUBLIC	??$construct@AAPAVTournamentNode@@@?$allocator@PAVTournamentNode@@@std@@QAEXPAPAVTournamentNode@@AAPAV2@@Z ; std::allocator<TournamentNode *>::construct<TournamentNode * &>
; Function compile flags: /Ogsp
; File c:\program files (x86)\microsoft visual studio 10.0\vc\include\xmemory
;	COMDAT ??$construct@AAPAVTournamentNode@@@?$allocator@PAVTournamentNode@@@std@@QAEXPAPAVTournamentNode@@AAPAV2@@Z
_TEXT	SEGMENT
__Ptr$ = 8						; size = 4
__Val$ = 12						; size = 4
??$construct@AAPAVTournamentNode@@@?$allocator@PAVTournamentNode@@@std@@QAEXPAPAVTournamentNode@@AAPAV2@@Z PROC ; std::allocator<TournamentNode *>::construct<TournamentNode * &>, COMDAT
; _this$ = ecx

; 206  : 		void construct(pointer _Ptr, _Other&& _Val)

  00000	55		 push	 ebp
  00001	8b ec		 mov	 ebp, esp

; 207  : 		{	// construct object at _Ptr with value _Val
; 208  : 		::new ((void _FARQ *)_Ptr) _Ty(_STD forward<_Other>(_Val));

  00003	8b 45 08	 mov	 eax, DWORD PTR __Ptr$[ebp]
  00006	85 c0		 test	 eax, eax
  00008	74 07		 je	 SHORT $LN3@construct
  0000a	8b 4d 0c	 mov	 ecx, DWORD PTR __Val$[ebp]
  0000d	8b 09		 mov	 ecx, DWORD PTR [ecx]
  0000f	89 08		 mov	 DWORD PTR [eax], ecx
$LN3@construct:

; 209  : 		}

  00011	5d		 pop	 ebp
  00012	c2 08 00	 ret	 8
??$construct@AAPAVTournamentNode@@@?$allocator@PAVTournamentNode@@@std@@QAEXPAPAVTournamentNode@@AAPAV2@@Z ENDP ; std::allocator<TournamentNode *>::construct<TournamentNode * &>
_TEXT	ENDS
PUBLIC	??$forward@ABQAVTournamentNode@@@std@@YAABQAVTournamentNode@@ABQAV1@@Z ; std::forward<TournamentNode * const &>
; Function compile flags: /Ogsp
; File c:\program files (x86)\microsoft visual studio 10.0\vc\include\utility
;	COMDAT ??$forward@ABQAVTournamentNode@@@std@@YAABQAVTournamentNode@@ABQAV1@@Z
_TEXT	SEGMENT
__Arg$ = 8						; size = 4
??$forward@ABQAVTournamentNode@@@std@@YAABQAVTournamentNode@@ABQAV1@@Z PROC ; std::forward<TournamentNode * const &>, COMDAT

; 78   : 	{	// forward _Arg, given explicitly specified type parameter

  00000	55		 push	 ebp
  00001	8b ec		 mov	 ebp, esp

; 79   : 	return ((_Ty&&)_Arg);

  00003	8b 45 08	 mov	 eax, DWORD PTR __Arg$[ebp]

; 80   : 	}

  00006	5d		 pop	 ebp
  00007	c3		 ret	 0
??$forward@ABQAVTournamentNode@@@std@@YAABQAVTournamentNode@@ABQAV1@@Z ENDP ; std::forward<TournamentNode * const &>
_TEXT	ENDS
PUBLIC	??$_Ptr_cat@PAVTournamentNode@@PAV1@@std@@YA?AU_Scalar_ptr_iterator_tag@0@PAPAVTournamentNode@@0@Z ; std::_Ptr_cat<TournamentNode *,TournamentNode *>
; Function compile flags: /Ogsp
; File c:\program files (x86)\microsoft visual studio 10.0\vc\include\xutility
;	COMDAT ??$_Ptr_cat@PAVTournamentNode@@PAV1@@std@@YA?AU_Scalar_ptr_iterator_tag@0@PAPAVTournamentNode@@0@Z
_TEXT	SEGMENT
__Cat$ = -1						; size = 1
___formal$ = 8						; size = 4
___formal$ = 12						; size = 4
??$_Ptr_cat@PAVTournamentNode@@PAV1@@std@@YA?AU_Scalar_ptr_iterator_tag@0@PAPAVTournamentNode@@0@Z PROC ; std::_Ptr_cat<TournamentNode *,TournamentNode *>, COMDAT

; 516  : 	{	// return pointer category from pointers

  00000	55		 push	 ebp
  00001	8b ec		 mov	 ebp, esp
  00003	51		 push	 ecx

; 517  : 	typename _Ptr_cat_helper<_Elem1, _Elem2>::_Type _Cat;
; 518  : 	return (_Cat);

  00004	8a 45 ff	 mov	 al, BYTE PTR __Cat$[ebp]

; 519  : 	}

  00007	c9		 leave
  00008	c3		 ret	 0
??$_Ptr_cat@PAVTournamentNode@@PAV1@@std@@YA?AU_Scalar_ptr_iterator_tag@0@PAPAVTournamentNode@@0@Z ENDP ; std::_Ptr_cat<TournamentNode *,TournamentNode *>
_TEXT	ENDS
PUBLIC	??$_Move@PAPAVTournamentNode@@PAPAV1@@std@@YAPAPAVTournamentNode@@PAPAV1@00U_Scalar_ptr_iterator_tag@0@@Z ; std::_Move<TournamentNode * *,TournamentNode * *>
EXTRN	__imp__memmove:PROC
; Function compile flags: /Ogsp
;	COMDAT ??$_Move@PAPAVTournamentNode@@PAPAV1@@std@@YAPAPAVTournamentNode@@PAPAV1@00U_Scalar_ptr_iterator_tag@0@@Z
_TEXT	SEGMENT
__First$ = 8						; size = 4
__Last$ = 12						; size = 4
__Dest$ = 16						; size = 4
___formal$ = 20						; size = 1
??$_Move@PAPAVTournamentNode@@PAPAV1@@std@@YAPAPAVTournamentNode@@PAPAV1@00U_Scalar_ptr_iterator_tag@0@@Z PROC ; std::_Move<TournamentNode * *,TournamentNode * *>, COMDAT

; 2522 : 	{	// move [_First, _Last) to [_Dest, ...), pointers to scalars

  00000	55		 push	 ebp
  00001	8b ec		 mov	 ebp, esp
  00003	56		 push	 esi

; 2523 : 	ptrdiff_t _Count = _Last - _First;

  00004	8b 75 0c	 mov	 esi, DWORD PTR __Last$[ebp]
  00007	2b 75 08	 sub	 esi, DWORD PTR __First$[ebp]
  0000a	57		 push	 edi

; 2524 : 	_CSTD memmove(&*_Dest, &*_First,
; 2525 : 		_Count * sizeof (*_First));

  0000b	8b 7d 10	 mov	 edi, DWORD PTR __Dest$[ebp]
  0000e	c1 fe 02	 sar	 esi, 2
  00011	c1 e6 02	 shl	 esi, 2
  00014	56		 push	 esi
  00015	ff 75 08	 push	 DWORD PTR __First$[ebp]
  00018	57		 push	 edi
  00019	ff 15 00 00 00
	00		 call	 DWORD PTR __imp__memmove
  0001f	83 c4 0c	 add	 esp, 12			; 0000000cH

; 2526 : 	return (_Dest + _Count);

  00022	8d 04 3e	 lea	 eax, DWORD PTR [esi+edi]
  00025	5f		 pop	 edi
  00026	5e		 pop	 esi

; 2527 : 	}

  00027	5d		 pop	 ebp
  00028	c3		 ret	 0
??$_Move@PAPAVTournamentNode@@PAPAV1@@std@@YAPAPAVTournamentNode@@PAPAV1@00U_Scalar_ptr_iterator_tag@0@@Z ENDP ; std::_Move<TournamentNode * *,TournamentNode * *>
_TEXT	ENDS
PUBLIC	??$_Destroy_range@V?$allocator@PAVTournamentNode@@@std@@@std@@YAXPAPAVTournamentNode@@0AAV?$allocator@PAVTournamentNode@@@0@U_Scalar_ptr_iterator_tag@0@@Z ; std::_Destroy_range<std::allocator<TournamentNode *> >
; Function compile flags: /Ogsp
; File c:\program files (x86)\microsoft visual studio 10.0\vc\include\xmemory
;	COMDAT ??$_Destroy_range@V?$allocator@PAVTournamentNode@@@std@@@std@@YAXPAPAVTournamentNode@@0AAV?$allocator@PAVTournamentNode@@@0@U_Scalar_ptr_iterator_tag@0@@Z
_TEXT	SEGMENT
__First$ = 8						; size = 4
__Last$ = 12						; size = 4
__Al$ = 16						; size = 4
___formal$ = 20						; size = 1
??$_Destroy_range@V?$allocator@PAVTournamentNode@@@std@@@std@@YAXPAPAVTournamentNode@@0AAV?$allocator@PAVTournamentNode@@@0@U_Scalar_ptr_iterator_tag@0@@Z PROC ; std::_Destroy_range<std::allocator<TournamentNode *> >, COMDAT

; 105  : 	}

  00000	c3		 ret	 0
??$_Destroy_range@V?$allocator@PAVTournamentNode@@@std@@@std@@YAXPAPAVTournamentNode@@0AAV?$allocator@PAVTournamentNode@@@0@U_Scalar_ptr_iterator_tag@0@@Z ENDP ; std::_Destroy_range<std::allocator<TournamentNode *> >
_TEXT	ENDS
PUBLIC	??$_Construct@PAVTournamentNode@@ABQAV1@@std@@YAXPAPAVTournamentNode@@ABQAV1@@Z ; std::_Construct<TournamentNode *,TournamentNode * const &>
; Function compile flags: /Ogsp
;	COMDAT ??$_Construct@PAVTournamentNode@@ABQAV1@@std@@YAXPAPAVTournamentNode@@ABQAV1@@Z
_TEXT	SEGMENT
__Ptr$ = 8						; size = 4
__Val$ = 12						; size = 4
??$_Construct@PAVTournamentNode@@ABQAV1@@std@@YAXPAPAVTournamentNode@@ABQAV1@@Z PROC ; std::_Construct<TournamentNode *,TournamentNode * const &>, COMDAT

; 46   : 	{	// construct object at _Ptr with value _Val

  00000	55		 push	 ebp
  00001	8b ec		 mov	 ebp, esp

; 47   : 	void _FARQ *_Vptr = _Ptr;
; 48   : 	::new (_Vptr) _Ty1(_STD forward<_Ty2>(_Val));

  00003	8b 45 08	 mov	 eax, DWORD PTR __Ptr$[ebp]
  00006	85 c0		 test	 eax, eax
  00008	74 07		 je	 SHORT $LN3@Construct
  0000a	8b 4d 0c	 mov	 ecx, DWORD PTR __Val$[ebp]
  0000d	8b 09		 mov	 ecx, DWORD PTR [ecx]
  0000f	89 08		 mov	 DWORD PTR [eax], ecx
$LN3@Construct:

; 49   : 	}

  00011	5d		 pop	 ebp
  00012	c3		 ret	 0
??$_Construct@PAVTournamentNode@@ABQAV1@@std@@YAXPAPAVTournamentNode@@ABQAV1@@Z ENDP ; std::_Construct<TournamentNode *,TournamentNode * const &>
_TEXT	ENDS
PUBLIC	??$_Val_type@PAPAVTournamentNode@@@std@@YAPAPAVTournamentNode@@PAPAV1@@Z ; std::_Val_type<TournamentNode * *>
; Function compile flags: /Ogsp
; File c:\program files (x86)\microsoft visual studio 10.0\vc\include\xutility
;	COMDAT ??$_Val_type@PAPAVTournamentNode@@@std@@YAPAPAVTournamentNode@@PAPAV1@@Z
_TEXT	SEGMENT
___formal$ = 8						; size = 4
??$_Val_type@PAPAVTournamentNode@@@std@@YAPAPAVTournamentNode@@PAPAV1@@Z PROC ; std::_Val_type<TournamentNode * *>, COMDAT

; 790  : 	return (0);

  00000	33 c0		 xor	 eax, eax

; 791  : 	}

  00002	c3		 ret	 0
??$_Val_type@PAPAVTournamentNode@@@std@@YAPAPAVTournamentNode@@PAPAV1@@Z ENDP ; std::_Val_type<TournamentNode * *>
_TEXT	ENDS
PUBLIC	??$_Uninit_move@PAVTournamentNode@@PAV1@PAV1@@std@@YAPAPAVTournamentNode@@PAPAV1@00AAV?$allocator@PAVTournamentNode@@@0@0U_Scalar_ptr_iterator_tag@0@@Z ; std::_Uninit_move<TournamentNode *,TournamentNode *,TournamentNode *>
; Function compile flags: /Ogsp
; File c:\program files (x86)\microsoft visual studio 10.0\vc\include\memory
;	COMDAT ??$_Uninit_move@PAVTournamentNode@@PAV1@PAV1@@std@@YAPAPAVTournamentNode@@PAPAV1@00AAV?$allocator@PAVTournamentNode@@@0@0U_Scalar_ptr_iterator_tag@0@@Z
_TEXT	SEGMENT
__First$ = 8						; size = 4
__Last$ = 12						; size = 4
__Dest$ = 16						; size = 4
___formal$ = 20						; size = 4
___formal$ = 24						; size = 4
___formal$ = 28						; size = 1
??$_Uninit_move@PAVTournamentNode@@PAV1@PAV1@@std@@YAPAPAVTournamentNode@@PAPAV1@00AAV?$allocator@PAVTournamentNode@@@0@0U_Scalar_ptr_iterator_tag@0@@Z PROC ; std::_Uninit_move<TournamentNode *,TournamentNode *,TournamentNode *>, COMDAT

; 456  : 	{	// move [_First, _Last) to raw _Dest, scalar type

  00000	55		 push	 ebp
  00001	8b ec		 mov	 ebp, esp
  00003	56		 push	 esi

; 457  : 	_DEBUG_RANGE(_First, _Last);
; 458  : 	_DEBUG_POINTER(_Dest);
; 459  : 	size_t _Count = (size_t)(_Last - _First);

  00004	8b 75 0c	 mov	 esi, DWORD PTR __Last$[ebp]
  00007	2b 75 08	 sub	 esi, DWORD PTR __First$[ebp]
  0000a	c1 fe 02	 sar	 esi, 2

; 460  : 	return ((_Ty2 *)_CSTD memmove(&*_Dest, &*_First,
; 461  : 		_Count * sizeof (*_First)) + _Count);	// NB: non-overlapping move

  0000d	c1 e6 02	 shl	 esi, 2
  00010	56		 push	 esi
  00011	ff 75 08	 push	 DWORD PTR __First$[ebp]
  00014	ff 75 10	 push	 DWORD PTR __Dest$[ebp]
  00017	ff 15 00 00 00
	00		 call	 DWORD PTR __imp__memmove
  0001d	83 c4 0c	 add	 esp, 12			; 0000000cH
  00020	03 c6		 add	 eax, esi
  00022	5e		 pop	 esi

; 462  : 	}

  00023	5d		 pop	 ebp
  00024	c3		 ret	 0
??$_Uninit_move@PAVTournamentNode@@PAV1@PAV1@@std@@YAPAPAVTournamentNode@@PAPAV1@00AAV?$allocator@PAVTournamentNode@@@0@0U_Scalar_ptr_iterator_tag@0@@Z ENDP ; std::_Uninit_move<TournamentNode *,TournamentNode *,TournamentNode *>
_TEXT	ENDS
PUBLIC	?_Adopt@_Iterator_base0@std@@QAEXPBX@Z		; std::_Iterator_base0::_Adopt
; Function compile flags: /Ogsp
; File c:\program files (x86)\microsoft visual studio 10.0\vc\include\xutility
;	COMDAT ?_Adopt@_Iterator_base0@std@@QAEXPBX@Z
_TEXT	SEGMENT
___formal$ = 8						; size = 4
?_Adopt@_Iterator_base0@std@@QAEXPBX@Z PROC		; std::_Iterator_base0::_Adopt, COMDAT
; _this$ = ecx

; 49   : 		}

  00000	c2 04 00	 ret	 4
?_Adopt@_Iterator_base0@std@@QAEXPBX@Z ENDP		; std::_Iterator_base0::_Adopt
_TEXT	ENDS
EXTRN	__imp_??0exception@std@@QAE@ABV01@@Z:PROC
; Function compile flags: /Ogsp
;	COMDAT ??0bad_alloc@std@@QAE@ABV01@@Z
_TEXT	SEGMENT
___that$ = 8						; size = 4
??0bad_alloc@std@@QAE@ABV01@@Z PROC			; std::bad_alloc::bad_alloc, COMDAT
; _this$ = ecx
  00000	55		 push	 ebp
  00001	8b ec		 mov	 ebp, esp
  00003	56		 push	 esi
  00004	ff 75 08	 push	 DWORD PTR ___that$[ebp]
  00007	8b f1		 mov	 esi, ecx
  00009	ff 15 00 00 00
	00		 call	 DWORD PTR __imp_??0exception@std@@QAE@ABV01@@Z
  0000f	c7 06 00 00 00
	00		 mov	 DWORD PTR [esi], OFFSET ??_7bad_alloc@std@@6B@
  00015	8b c6		 mov	 eax, esi
  00017	5e		 pop	 esi
  00018	5d		 pop	 ebp
  00019	c2 04 00	 ret	 4
??0bad_alloc@std@@QAE@ABV01@@Z ENDP			; std::bad_alloc::bad_alloc
_TEXT	ENDS
PUBLIC	?GetSingleton@ioTournamentManager@@SAAAV1@XZ	; ioTournamentManager::GetSingleton
; Function compile flags: /Ogsp
; File d:\lost saga for developer\youtube\tutorial\source\src\lsclient\iotournamentmanager.cpp
;	COMDAT ?GetSingleton@ioTournamentManager@@SAAAV1@XZ
_TEXT	SEGMENT
?GetSingleton@ioTournamentManager@@SAAAV1@XZ PROC	; ioTournamentManager::GetSingleton, COMDAT

; 28   : 	return Singleton< ioTournamentManager >::GetSingleton();

  00000	a1 00 00 00 00	 mov	 eax, DWORD PTR ?ms_Singleton@?$Singleton@VioTournamentManager@@@@1PAVioTournamentManager@@A ; Singleton<ioTournamentManager>::ms_Singleton

; 29   : }

  00005	c3		 ret	 0
?GetSingleton@ioTournamentManager@@SAAAV1@XZ ENDP	; ioTournamentManager::GetSingleton
_TEXT	ENDS
PUBLIC	??D?$_Vector_iterator@V?$_Vector_val@PAVTournamentNode@@V?$allocator@PAVTournamentNode@@@std@@@std@@@std@@QBEAAPAVTournamentNode@@XZ ; std::_Vector_iterator<std::_Vector_val<TournamentNode *,std::allocator<TournamentNode *> > >::operator*
; Function compile flags: /Ogsp
; File c:\program files (x86)\microsoft visual studio 10.0\vc\include\vector
;	COMDAT ??D?$_Vector_iterator@V?$_Vector_val@PAVTournamentNode@@V?$allocator@PAVTournamentNode@@@std@@@std@@@std@@QBEAAPAVTournamentNode@@XZ
_TEXT	SEGMENT
??D?$_Vector_iterator@V?$_Vector_val@PAVTournamentNode@@V?$allocator@PAVTournamentNode@@@std@@@std@@@std@@QBEAAPAVTournamentNode@@XZ PROC ; std::_Vector_iterator<std::_Vector_val<TournamentNode *,std::allocator<TournamentNode *> > >::operator*, COMDAT
; _this$ = ecx

; 322  : 		return ((reference)**(_Mybase *)this);

  00000	8b 01		 mov	 eax, DWORD PTR [ecx]

; 323  : 		}

  00002	c3		 ret	 0
??D?$_Vector_iterator@V?$_Vector_val@PAVTournamentNode@@V?$allocator@PAVTournamentNode@@@std@@@std@@@std@@QBEAAPAVTournamentNode@@XZ ENDP ; std::_Vector_iterator<std::_Vector_val<TournamentNode *,std::allocator<TournamentNode *> > >::operator*
_TEXT	ENDS
PUBLIC	??E?$_Vector_iterator@V?$_Vector_val@PAVTournamentNode@@V?$allocator@PAVTournamentNode@@@std@@@std@@@std@@QAEAAV01@XZ ; std::_Vector_iterator<std::_Vector_val<TournamentNode *,std::allocator<TournamentNode *> > >::operator++
; Function compile flags: /Ogsp
;	COMDAT ??E?$_Vector_iterator@V?$_Vector_val@PAVTournamentNode@@V?$allocator@PAVTournamentNode@@@std@@@std@@@std@@QAEAAV01@XZ
_TEXT	SEGMENT
??E?$_Vector_iterator@V?$_Vector_val@PAVTournamentNode@@V?$allocator@PAVTournamentNode@@@std@@@std@@@std@@QAEAAV01@XZ PROC ; std::_Vector_iterator<std::_Vector_val<TournamentNode *,std::allocator<TournamentNode *> > >::operator++, COMDAT
; _this$ = ecx

; 331  : 		{	// preincrement

  00000	8b c1		 mov	 eax, ecx

; 332  : 		++*(_Mybase *)this;

  00002	83 00 04	 add	 DWORD PTR [eax], 4

; 333  : 		return (*this);
; 334  : 		}

  00005	c3		 ret	 0
??E?$_Vector_iterator@V?$_Vector_val@PAVTournamentNode@@V?$allocator@PAVTournamentNode@@@std@@@std@@@std@@QAEAAV01@XZ ENDP ; std::_Vector_iterator<std::_Vector_val<TournamentNode *,std::allocator<TournamentNode *> > >::operator++
_TEXT	ENDS
PUBLIC	??0?$_Vector_val@PAVTournamentNode@@V?$allocator@PAVTournamentNode@@@std@@@std@@QAE@V?$allocator@PAVTournamentNode@@@1@@Z ; std::_Vector_val<TournamentNode *,std::allocator<TournamentNode *> >::_Vector_val<TournamentNode *,std::allocator<TournamentNode *> >
; Function compile flags: /Ogsp
;	COMDAT ??0?$_Vector_val@PAVTournamentNode@@V?$allocator@PAVTournamentNode@@@std@@@std@@QAE@V?$allocator@PAVTournamentNode@@@1@@Z
_TEXT	SEGMENT
__Al$ = 8						; size = 1
??0?$_Vector_val@PAVTournamentNode@@V?$allocator@PAVTournamentNode@@@std@@@std@@QAE@V?$allocator@PAVTournamentNode@@@1@@Z PROC ; std::_Vector_val<TournamentNode *,std::allocator<TournamentNode *> >::_Vector_val<TournamentNode *,std::allocator<TournamentNode *> >, COMDAT
; _this$ = ecx

; 426  : 		{	// construct allocator from _Al

  00000	8b c1		 mov	 eax, ecx

; 427  : 		_Myfirst = 0;

  00002	33 c9		 xor	 ecx, ecx
  00004	89 08		 mov	 DWORD PTR [eax], ecx

; 428  : 		_Mylast = 0;

  00006	89 48 04	 mov	 DWORD PTR [eax+4], ecx

; 429  : 		_Myend = 0;

  00009	89 48 08	 mov	 DWORD PTR [eax+8], ecx

; 430  : 		}

  0000c	c2 04 00	 ret	 4
??0?$_Vector_val@PAVTournamentNode@@V?$allocator@PAVTournamentNode@@@std@@@std@@QAE@V?$allocator@PAVTournamentNode@@@1@@Z ENDP ; std::_Vector_val<TournamentNode *,std::allocator<TournamentNode *> >::_Vector_val<TournamentNode *,std::allocator<TournamentNode *> >
_TEXT	ENDS
PUBLIC	??8?$_Vector_const_iterator@V?$_Vector_val@PAVTournamentNode@@V?$allocator@PAVTournamentNode@@@std@@@std@@@std@@QBE_NABV01@@Z ; std::_Vector_const_iterator<std::_Vector_val<TournamentNode *,std::allocator<TournamentNode *> > >::operator==
; Function compile flags: /Ogsp
;	COMDAT ??8?$_Vector_const_iterator@V?$_Vector_val@PAVTournamentNode@@V?$allocator@PAVTournamentNode@@@std@@@std@@@std@@QBE_NABV01@@Z
_TEXT	SEGMENT
__Right$ = 8						; size = 4
??8?$_Vector_const_iterator@V?$_Vector_val@PAVTournamentNode@@V?$allocator@PAVTournamentNode@@@std@@@std@@@std@@QBE_NABV01@@Z PROC ; std::_Vector_const_iterator<std::_Vector_val<TournamentNode *,std::allocator<TournamentNode *> > >::operator==, COMDAT
; _this$ = ecx

; 201  : 		{	// test for iterator equality

  00000	55		 push	 ebp
  00001	8b ec		 mov	 ebp, esp

; 202  : 		_Compat(_Right);
; 203  : 		return (this->_Ptr == _Right._Ptr);

  00003	8b 01		 mov	 eax, DWORD PTR [ecx]
  00005	8b 4d 08	 mov	 ecx, DWORD PTR __Right$[ebp]
  00008	2b 01		 sub	 eax, DWORD PTR [ecx]
  0000a	f7 d8		 neg	 eax
  0000c	1b c0		 sbb	 eax, eax
  0000e	40		 inc	 eax

; 204  : 		}

  0000f	5d		 pop	 ebp
  00010	c2 04 00	 ret	 4
??8?$_Vector_const_iterator@V?$_Vector_val@PAVTournamentNode@@V?$allocator@PAVTournamentNode@@@std@@@std@@@std@@QBE_NABV01@@Z ENDP ; std::_Vector_const_iterator<std::_Vector_val<TournamentNode *,std::allocator<TournamentNode *> > >::operator==
_TEXT	ENDS
PUBLIC	?max_size@?$vector@PAVTournamentNode@@V?$allocator@PAVTournamentNode@@@std@@@std@@QBEIXZ ; std::vector<TournamentNode *,std::allocator<TournamentNode *> >::max_size
; Function compile flags: /Ogsp
;	COMDAT ?max_size@?$vector@PAVTournamentNode@@V?$allocator@PAVTournamentNode@@@std@@@std@@QBEIXZ
_TEXT	SEGMENT
?max_size@?$vector@PAVTournamentNode@@V?$allocator@PAVTournamentNode@@@std@@@std@@QBEIXZ PROC ; std::vector<TournamentNode *,std::allocator<TournamentNode *> >::max_size, COMDAT
; _this$ = ecx

; 884  : 		return (this->_Alval.max_size());

  00000	b8 ff ff ff 3f	 mov	 eax, 1073741823		; 3fffffffH

; 885  : 		}

  00005	c3		 ret	 0
?max_size@?$vector@PAVTournamentNode@@V?$allocator@PAVTournamentNode@@@std@@@std@@QBEIXZ ENDP ; std::vector<TournamentNode *,std::allocator<TournamentNode *> >::max_size
_TEXT	ENDS
PUBLIC	?_Grow_to@?$vector@PAVTournamentNode@@V?$allocator@PAVTournamentNode@@@std@@@std@@IBEII@Z ; std::vector<TournamentNode *,std::allocator<TournamentNode *> >::_Grow_to
; Function compile flags: /Ogsp
;	COMDAT ?_Grow_to@?$vector@PAVTournamentNode@@V?$allocator@PAVTournamentNode@@@std@@@std@@IBEII@Z
_TEXT	SEGMENT
__Count$ = 8						; size = 4
?_Grow_to@?$vector@PAVTournamentNode@@V?$allocator@PAVTournamentNode@@@std@@@std@@IBEII@Z PROC ; std::vector<TournamentNode *,std::allocator<TournamentNode *> >::_Grow_to, COMDAT
; _this$ = ecx

; 1274 : 		{	// grow by 50% or at least to _Count

  00000	55		 push	 ebp
  00001	8b ec		 mov	 ebp, esp

; 1275 : 		size_type _Capacity = capacity();

  00003	8b 41 08	 mov	 eax, DWORD PTR [ecx+8]
  00006	2b 01		 sub	 eax, DWORD PTR [ecx]

; 1276 : 
; 1277 : 		_Capacity = max_size() - _Capacity / 2 < _Capacity
; 1278 : 			? 0 : _Capacity + _Capacity / 2;	// try to grow by 50%

  00008	ba ff ff ff 3f	 mov	 edx, 1073741823		; 3fffffffH
  0000d	c1 f8 02	 sar	 eax, 2
  00010	8b c8		 mov	 ecx, eax
  00012	d1 e9		 shr	 ecx, 1
  00014	2b d1		 sub	 edx, ecx
  00016	3b d0		 cmp	 edx, eax
  00018	73 04		 jae	 SHORT $LN4@Grow_to
  0001a	33 c0		 xor	 eax, eax
  0001c	eb 02		 jmp	 SHORT $LN5@Grow_to
$LN4@Grow_to:
  0001e	03 c1		 add	 eax, ecx
$LN5@Grow_to:

; 1279 : 		if (_Capacity < _Count)

  00020	3b 45 08	 cmp	 eax, DWORD PTR __Count$[ebp]

; 1280 : 			_Capacity = _Count;

  00023	0f 42 45 08	 cmovb	 eax, DWORD PTR __Count$[ebp]

; 1281 : 		return (_Capacity);
; 1282 : 		}

  00027	5d		 pop	 ebp
  00028	c2 04 00	 ret	 4
?_Grow_to@?$vector@PAVTournamentNode@@V?$allocator@PAVTournamentNode@@@std@@@std@@IBEII@Z ENDP ; std::vector<TournamentNode *,std::allocator<TournamentNode *> >::_Grow_to
_TEXT	ENDS
PUBLIC	??0?$_Vector_const_iterator@V?$_Vector_val@PAVTournamentNode@@V?$allocator@PAVTournamentNode@@@std@@@std@@@std@@QAE@PAPAVTournamentNode@@PBU_Container_base0@1@@Z ; std::_Vector_const_iterator<std::_Vector_val<TournamentNode *,std::allocator<TournamentNode *> > >::_Vector_const_iterator<std::_Vector_val<TournamentNode *,std::allocator<TournamentNode *> > >
; Function compile flags: /Ogsp
;	COMDAT ??0?$_Vector_const_iterator@V?$_Vector_val@PAVTournamentNode@@V?$allocator@PAVTournamentNode@@@std@@@std@@@std@@QAE@PAPAVTournamentNode@@PBU_Container_base0@1@@Z
_TEXT	SEGMENT
__Parg$ = 8						; size = 4
__Pvector$ = 12						; size = 4
??0?$_Vector_const_iterator@V?$_Vector_val@PAVTournamentNode@@V?$allocator@PAVTournamentNode@@@std@@@std@@@std@@QAE@PAPAVTournamentNode@@PBU_Container_base0@1@@Z PROC ; std::_Vector_const_iterator<std::_Vector_val<TournamentNode *,std::allocator<TournamentNode *> > >::_Vector_const_iterator<std::_Vector_val<TournamentNode *,std::allocator<TournamentNode *> > >, COMDAT
; _this$ = ecx

; 45   : 		{	// construct with pointer _Parg

  00000	55		 push	 ebp
  00001	8b ec		 mov	 ebp, esp
  00003	8b c1		 mov	 eax, ecx
  00005	8b 4d 08	 mov	 ecx, DWORD PTR __Parg$[ebp]
  00008	89 08		 mov	 DWORD PTR [eax], ecx

; 46   : 		this->_Adopt(_Pvector);
; 47   : 		}

  0000a	5d		 pop	 ebp
  0000b	c2 08 00	 ret	 8
??0?$_Vector_const_iterator@V?$_Vector_val@PAVTournamentNode@@V?$allocator@PAVTournamentNode@@@std@@@std@@@std@@QAE@PAPAVTournamentNode@@PBU_Container_base0@1@@Z ENDP ; std::_Vector_const_iterator<std::_Vector_val<TournamentNode *,std::allocator<TournamentNode *> > >::_Vector_const_iterator<std::_Vector_val<TournamentNode *,std::allocator<TournamentNode *> > >
_TEXT	ENDS
PUBLIC	?allocate@?$allocator@PAVTournamentNode@@@std@@QAEPAPAVTournamentNode@@I@Z ; std::allocator<TournamentNode *>::allocate
; Function compile flags: /Ogsp
; File c:\program files (x86)\microsoft visual studio 10.0\vc\include\xmemory
;	COMDAT ?allocate@?$allocator@PAVTournamentNode@@@std@@QAEPAPAVTournamentNode@@I@Z
_TEXT	SEGMENT
__Count$ = 8						; size = 4
?allocate@?$allocator@PAVTournamentNode@@@std@@QAEPAPAVTournamentNode@@I@Z PROC ; std::allocator<TournamentNode *>::allocate, COMDAT
; _this$ = ecx

; 186  : 		{	// allocate array of _Count elements

  00000	55		 push	 ebp
  00001	8b ec		 mov	 ebp, esp

; 187  : 		return (_Allocate(_Count, (pointer)0));

  00003	6a 00		 push	 0
  00005	ff 75 08	 push	 DWORD PTR __Count$[ebp]
  00008	e8 00 00 00 00	 call	 ??$_Allocate@PAVTournamentNode@@@std@@YAPAPAVTournamentNode@@IPAPAV1@@Z ; std::_Allocate<TournamentNode *>
  0000d	59		 pop	 ecx
  0000e	59		 pop	 ecx

; 188  : 		}

  0000f	5d		 pop	 ebp
  00010	c2 04 00	 ret	 4
?allocate@?$allocator@PAVTournamentNode@@@std@@QAEPAPAVTournamentNode@@I@Z ENDP ; std::allocator<TournamentNode *>::allocate
_TEXT	ENDS
PUBLIC	??$_Cons_val@V?$allocator@PAVTournamentNode@@@std@@PAVTournamentNode@@AAPAV3@@std@@YAXAAV?$allocator@PAVTournamentNode@@@0@PAPAVTournamentNode@@AAPAV2@@Z ; std::_Cons_val<std::allocator<TournamentNode *>,TournamentNode *,TournamentNode * &>
; Function compile flags: /Ogsp
;	COMDAT ??$_Cons_val@V?$allocator@PAVTournamentNode@@@std@@PAVTournamentNode@@AAPAV3@@std@@YAXAAV?$allocator@PAVTournamentNode@@@0@PAPAVTournamentNode@@AAPAV2@@Z
_TEXT	SEGMENT
__Alval$ = 8						; size = 4
__Pdest$ = 12						; size = 4
__Src$ = 16						; size = 4
??$_Cons_val@V?$allocator@PAVTournamentNode@@@std@@PAVTournamentNode@@AAPAV3@@std@@YAXAAV?$allocator@PAVTournamentNode@@@0@PAPAVTournamentNode@@AAPAV2@@Z PROC ; std::_Cons_val<std::allocator<TournamentNode *>,TournamentNode *,TournamentNode * &>, COMDAT

; 279  : 	{	// construct using allocator

  00000	55		 push	 ebp
  00001	8b ec		 mov	 ebp, esp

; 280  : 	_Alval.construct(_Pdest, _STD forward<_Ty2>(_Src));

  00003	8b 45 0c	 mov	 eax, DWORD PTR __Pdest$[ebp]
  00006	85 c0		 test	 eax, eax
  00008	74 07		 je	 SHORT $LN7@Cons_val
  0000a	8b 4d 10	 mov	 ecx, DWORD PTR __Src$[ebp]
  0000d	8b 09		 mov	 ecx, DWORD PTR [ecx]
  0000f	89 08		 mov	 DWORD PTR [eax], ecx
$LN7@Cons_val:

; 281  : 	}

  00011	5d		 pop	 ebp
  00012	c3		 ret	 0
??$_Cons_val@V?$allocator@PAVTournamentNode@@@std@@PAVTournamentNode@@AAPAV3@@std@@YAXAAV?$allocator@PAVTournamentNode@@@0@PAPAVTournamentNode@@AAPAV2@@Z ENDP ; std::_Cons_val<std::allocator<TournamentNode *>,TournamentNode *,TournamentNode * &>
_TEXT	ENDS
PUBLIC	??$_Move@PAPAVTournamentNode@@PAPAV1@@std@@YAPAPAVTournamentNode@@PAPAV1@00@Z ; std::_Move<TournamentNode * *,TournamentNode * *>
; Function compile flags: /Ogsp
; File c:\program files (x86)\microsoft visual studio 10.0\vc\include\xutility
;	COMDAT ??$_Move@PAPAVTournamentNode@@PAPAV1@@std@@YAPAPAVTournamentNode@@PAPAV1@00@Z
_TEXT	SEGMENT
__Cat$512170 = -4					; size = 1
__First$ = 8						; size = 4
__Last$ = 12						; size = 4
__Dest$ = 16						; size = 4
??$_Move@PAPAVTournamentNode@@PAPAV1@@std@@YAPAPAVTournamentNode@@PAPAV1@00@Z PROC ; std::_Move<TournamentNode * *,TournamentNode * *>, COMDAT

; 2533 : 	{	// move [_First, _Last) to [_Dest, ...), unchecked

  00000	55		 push	 ebp
  00001	8b ec		 mov	 ebp, esp
  00003	51		 push	 ecx

; 2534 : 	return (_Move(_First, _Last,
; 2535 : 		_Dest, _Ptr_cat(_First, _Dest)));

  00004	ff 75 fc	 push	 DWORD PTR __Cat$512170[ebp]
  00007	ff 75 10	 push	 DWORD PTR __Dest$[ebp]
  0000a	ff 75 0c	 push	 DWORD PTR __Last$[ebp]
  0000d	ff 75 08	 push	 DWORD PTR __First$[ebp]
  00010	e8 00 00 00 00	 call	 ??$_Move@PAPAVTournamentNode@@PAPAV1@@std@@YAPAPAVTournamentNode@@PAPAV1@00U_Scalar_ptr_iterator_tag@0@@Z ; std::_Move<TournamentNode * *,TournamentNode * *>
  00015	83 c4 10	 add	 esp, 16			; 00000010H

; 2536 : 	}

  00018	c9		 leave
  00019	c3		 ret	 0
??$_Move@PAPAVTournamentNode@@PAPAV1@@std@@YAPAPAVTournamentNode@@PAPAV1@00@Z ENDP ; std::_Move<TournamentNode * *,TournamentNode * *>
_TEXT	ENDS
PUBLIC	??$_Destroy_range@V?$allocator@PAVTournamentNode@@@std@@@std@@YAXPAPAVTournamentNode@@0AAV?$allocator@PAVTournamentNode@@@0@@Z ; std::_Destroy_range<std::allocator<TournamentNode *> >
; Function compile flags: /Ogsp
; File c:\program files (x86)\microsoft visual studio 10.0\vc\include\xmemory
;	COMDAT ??$_Destroy_range@V?$allocator@PAVTournamentNode@@@std@@@std@@YAXPAPAVTournamentNode@@0AAV?$allocator@PAVTournamentNode@@@0@@Z
_TEXT	SEGMENT
__First$ = 8						; size = 4
__Last$ = 12						; size = 4
__Al$ = 16						; size = 4
??$_Destroy_range@V?$allocator@PAVTournamentNode@@@std@@@std@@YAXPAPAVTournamentNode@@0AAV?$allocator@PAVTournamentNode@@@0@@Z PROC ; std::_Destroy_range<std::allocator<TournamentNode *> >, COMDAT

; 88   : 	_Destroy_range(_First, _Last, _Al, _Ptr_cat(_First, _Last));
; 89   : 	}

  00000	c3		 ret	 0
??$_Destroy_range@V?$allocator@PAVTournamentNode@@@std@@@std@@YAXPAPAVTournamentNode@@0AAV?$allocator@PAVTournamentNode@@@0@@Z ENDP ; std::_Destroy_range<std::allocator<TournamentNode *> >
_TEXT	ENDS
PUBLIC	?construct@?$allocator@PAVTournamentNode@@@std@@QAEXPAPAVTournamentNode@@ABQAV3@@Z ; std::allocator<TournamentNode *>::construct
; Function compile flags: /Ogsp
;	COMDAT ?construct@?$allocator@PAVTournamentNode@@@std@@QAEXPAPAVTournamentNode@@ABQAV3@@Z
_TEXT	SEGMENT
__Ptr$ = 8						; size = 4
__Val$ = 12						; size = 4
?construct@?$allocator@PAVTournamentNode@@@std@@QAEXPAPAVTournamentNode@@ABQAV3@@Z PROC ; std::allocator<TournamentNode *>::construct, COMDAT
; _this$ = ecx

; 196  : 		{	// construct object at _Ptr with value _Val

  00000	55		 push	 ebp
  00001	8b ec		 mov	 ebp, esp

; 197  : 		_Construct(_Ptr, _Val);

  00003	8b 45 08	 mov	 eax, DWORD PTR __Ptr$[ebp]
  00006	85 c0		 test	 eax, eax
  00008	74 07		 je	 SHORT $LN5@construct@2
  0000a	8b 4d 0c	 mov	 ecx, DWORD PTR __Val$[ebp]
  0000d	8b 09		 mov	 ecx, DWORD PTR [ecx]
  0000f	89 08		 mov	 DWORD PTR [eax], ecx
$LN5@construct@2:

; 198  : 		}

  00011	5d		 pop	 ebp
  00012	c2 08 00	 ret	 8
?construct@?$allocator@PAVTournamentNode@@@std@@QAEXPAPAVTournamentNode@@ABQAV3@@Z ENDP ; std::allocator<TournamentNode *>::construct
_TEXT	ENDS
PUBLIC	??$_Uninitialized_move@PAPAVTournamentNode@@PAPAV1@V?$allocator@PAVTournamentNode@@@std@@@std@@YAPAPAVTournamentNode@@PAPAV1@00AAV?$allocator@PAVTournamentNode@@@0@@Z ; std::_Uninitialized_move<TournamentNode * *,TournamentNode * *,std::allocator<TournamentNode *> >
; Function compile flags: /Ogsp
; File c:\program files (x86)\microsoft visual studio 10.0\vc\include\memory
;	COMDAT ??$_Uninitialized_move@PAPAVTournamentNode@@PAPAV1@V?$allocator@PAVTournamentNode@@@std@@@std@@YAPAPAVTournamentNode@@PAPAV1@00AAV?$allocator@PAVTournamentNode@@@0@@Z
_TEXT	SEGMENT
__First$ = 8						; size = 4
__Last$ = 12						; size = 4
__Dest$ = 16						; size = 4
__Al$ = 20						; size = 4
??$_Uninitialized_move@PAPAVTournamentNode@@PAPAV1@V?$allocator@PAVTournamentNode@@@std@@@std@@YAPAPAVTournamentNode@@PAPAV1@00AAV?$allocator@PAVTournamentNode@@@0@@Z PROC ; std::_Uninitialized_move<TournamentNode * *,TournamentNode * *,std::allocator<TournamentNode *> >, COMDAT

; 469  : 	{	// move [_First, _Last) to raw _Dest, using _Al

  00000	55		 push	 ebp
  00001	8b ec		 mov	 ebp, esp
  00003	56		 push	 esi

; 470  : 	return (_Uninit_move(_First, _Last, _Dest, _Al,
; 471  : 		_Val_type(_First), _Ptr_cat(_First, _Dest)));

  00004	8b 75 0c	 mov	 esi, DWORD PTR __Last$[ebp]
  00007	2b 75 08	 sub	 esi, DWORD PTR __First$[ebp]
  0000a	c1 fe 02	 sar	 esi, 2
  0000d	c1 e6 02	 shl	 esi, 2
  00010	56		 push	 esi
  00011	ff 75 08	 push	 DWORD PTR __First$[ebp]
  00014	ff 75 10	 push	 DWORD PTR __Dest$[ebp]
  00017	ff 15 00 00 00
	00		 call	 DWORD PTR __imp__memmove
  0001d	83 c4 0c	 add	 esp, 12			; 0000000cH
  00020	03 c6		 add	 eax, esi
  00022	5e		 pop	 esi

; 472  : 	}

  00023	5d		 pop	 ebp
  00024	c3		 ret	 0
??$_Uninitialized_move@PAPAVTournamentNode@@PAPAV1@V?$allocator@PAVTournamentNode@@@std@@@std@@YAPAPAVTournamentNode@@PAPAV1@00AAV?$allocator@PAVTournamentNode@@@0@@Z ENDP ; std::_Uninitialized_move<TournamentNode * *,TournamentNode * *,std::allocator<TournamentNode *> >
_TEXT	ENDS
PUBLIC	??0?$vector@PAVTournamentNode@@V?$allocator@PAVTournamentNode@@@std@@@std@@QAE@XZ ; std::vector<TournamentNode *,std::allocator<TournamentNode *> >::vector<TournamentNode *,std::allocator<TournamentNode *> >
; Function compile flags: /Ogsp
; File c:\program files (x86)\microsoft visual studio 10.0\vc\include\vector
;	COMDAT ??0?$vector@PAVTournamentNode@@V?$allocator@PAVTournamentNode@@@std@@@std@@QAE@XZ
_TEXT	SEGMENT
??0?$vector@PAVTournamentNode@@V?$allocator@PAVTournamentNode@@@std@@@std@@QAE@XZ PROC ; std::vector<TournamentNode *,std::allocator<TournamentNode *> >::vector<TournamentNode *,std::allocator<TournamentNode *> >, COMDAT
; _this$ = ecx

; 507  : 		{	// construct empty vector

  00000	8b c1		 mov	 eax, ecx
  00002	33 c9		 xor	 ecx, ecx
  00004	89 08		 mov	 DWORD PTR [eax], ecx
  00006	89 48 04	 mov	 DWORD PTR [eax+4], ecx
  00009	89 48 08	 mov	 DWORD PTR [eax+8], ecx

; 508  : 		}

  0000c	c3		 ret	 0
??0?$vector@PAVTournamentNode@@V?$allocator@PAVTournamentNode@@@std@@@std@@QAE@XZ ENDP ; std::vector<TournamentNode *,std::allocator<TournamentNode *> >::vector<TournamentNode *,std::allocator<TournamentNode *> >
_TEXT	ENDS
PUBLIC	??9?$_Vector_const_iterator@V?$_Vector_val@PAVTournamentNode@@V?$allocator@PAVTournamentNode@@@std@@@std@@@std@@QBE_NABV01@@Z ; std::_Vector_const_iterator<std::_Vector_val<TournamentNode *,std::allocator<TournamentNode *> > >::operator!=
; Function compile flags: /Ogsp
;	COMDAT ??9?$_Vector_const_iterator@V?$_Vector_val@PAVTournamentNode@@V?$allocator@PAVTournamentNode@@@std@@@std@@@std@@QBE_NABV01@@Z
_TEXT	SEGMENT
__Right$ = 8						; size = 4
??9?$_Vector_const_iterator@V?$_Vector_val@PAVTournamentNode@@V?$allocator@PAVTournamentNode@@@std@@@std@@@std@@QBE_NABV01@@Z PROC ; std::_Vector_const_iterator<std::_Vector_val<TournamentNode *,std::allocator<TournamentNode *> > >::operator!=, COMDAT
; _this$ = ecx

; 207  : 		{	// test for iterator inequality

  00000	55		 push	 ebp
  00001	8b ec		 mov	 ebp, esp

; 208  : 		return (!(*this == _Right));

  00003	8b 01		 mov	 eax, DWORD PTR [ecx]
  00005	8b 55 08	 mov	 edx, DWORD PTR __Right$[ebp]
  00008	33 c9		 xor	 ecx, ecx
  0000a	3b 02		 cmp	 eax, DWORD PTR [edx]
  0000c	0f 95 c0	 setne	 al

; 209  : 		}

  0000f	5d		 pop	 ebp
  00010	c2 04 00	 ret	 4
??9?$_Vector_const_iterator@V?$_Vector_val@PAVTournamentNode@@V?$allocator@PAVTournamentNode@@@std@@@std@@@std@@QBE_NABV01@@Z ENDP ; std::_Vector_const_iterator<std::_Vector_val<TournamentNode *,std::allocator<TournamentNode *> > >::operator!=
_TEXT	ENDS
PUBLIC	??0?$_Vector_iterator@V?$_Vector_val@PAVTournamentNode@@V?$allocator@PAVTournamentNode@@@std@@@std@@@std@@QAE@PAPAVTournamentNode@@PBU_Container_base0@1@@Z ; std::_Vector_iterator<std::_Vector_val<TournamentNode *,std::allocator<TournamentNode *> > >::_Vector_iterator<std::_Vector_val<TournamentNode *,std::allocator<TournamentNode *> > >
; Function compile flags: /Ogsp
;	COMDAT ??0?$_Vector_iterator@V?$_Vector_val@PAVTournamentNode@@V?$allocator@PAVTournamentNode@@@std@@@std@@@std@@QAE@PAPAVTournamentNode@@PBU_Container_base0@1@@Z
_TEXT	SEGMENT
__Parg$ = 8						; size = 4
__Pvector$ = 12						; size = 4
??0?$_Vector_iterator@V?$_Vector_val@PAVTournamentNode@@V?$allocator@PAVTournamentNode@@@std@@@std@@@std@@QAE@PAPAVTournamentNode@@PBU_Container_base0@1@@Z PROC ; std::_Vector_iterator<std::_Vector_val<TournamentNode *,std::allocator<TournamentNode *> > >::_Vector_iterator<std::_Vector_val<TournamentNode *,std::allocator<TournamentNode *> > >, COMDAT
; _this$ = ecx

; 304  : 		{	// construct with pointer _Parg

  00000	55		 push	 ebp
  00001	8b ec		 mov	 ebp, esp
  00003	8b c1		 mov	 eax, ecx
  00005	8b 4d 08	 mov	 ecx, DWORD PTR __Parg$[ebp]
  00008	89 08		 mov	 DWORD PTR [eax], ecx

; 305  : 		}

  0000a	5d		 pop	 ebp
  0000b	c2 08 00	 ret	 8
??0?$_Vector_iterator@V?$_Vector_val@PAVTournamentNode@@V?$allocator@PAVTournamentNode@@@std@@@std@@@std@@QAE@PAPAVTournamentNode@@PBU_Container_base0@1@@Z ENDP ; std::_Vector_iterator<std::_Vector_val<TournamentNode *,std::allocator<TournamentNode *> > >::_Vector_iterator<std::_Vector_val<TournamentNode *,std::allocator<TournamentNode *> > >
_TEXT	ENDS
PUBLIC	?_Make_iter@?$vector@PAVTournamentNode@@V?$allocator@PAVTournamentNode@@@std@@@std@@QBE?AV?$_Vector_iterator@V?$_Vector_val@PAVTournamentNode@@V?$allocator@PAVTournamentNode@@@std@@@std@@@2@V?$_Vector_const_iterator@V?$_Vector_val@PAVTournamentNode@@V?$allocator@PAVTournamentNode@@@std@@@std@@@2@@Z ; std::vector<TournamentNode *,std::allocator<TournamentNode *> >::_Make_iter
; Function compile flags: /Ogsp
;	COMDAT ?_Make_iter@?$vector@PAVTournamentNode@@V?$allocator@PAVTournamentNode@@@std@@@std@@QBE?AV?$_Vector_iterator@V?$_Vector_val@PAVTournamentNode@@V?$allocator@PAVTournamentNode@@@std@@@std@@@2@V?$_Vector_const_iterator@V?$_Vector_val@PAVTournamentNode@@V?$allocator@PAVTournamentNode@@@std@@@std@@@2@@Z
_TEXT	SEGMENT
___$ReturnUdt$ = 8					; size = 4
__Where$ = 12						; size = 4
?_Make_iter@?$vector@PAVTournamentNode@@V?$allocator@PAVTournamentNode@@@std@@@std@@QBE?AV?$_Vector_iterator@V?$_Vector_val@PAVTournamentNode@@V?$allocator@PAVTournamentNode@@@std@@@std@@@2@V?$_Vector_const_iterator@V?$_Vector_val@PAVTournamentNode@@V?$allocator@PAVTournamentNode@@@std@@@std@@@2@@Z PROC ; std::vector<TournamentNode *,std::allocator<TournamentNode *> >::_Make_iter, COMDAT
; _this$ = ecx

; 801  : 		{	// make iterator from const_iterator

  00000	55		 push	 ebp
  00001	8b ec		 mov	 ebp, esp

; 802  : 		return (iterator(_Where._Ptr, this));

  00003	8b 45 08	 mov	 eax, DWORD PTR ___$ReturnUdt$[ebp]
  00006	8b 4d 0c	 mov	 ecx, DWORD PTR __Where$[ebp]
  00009	89 08		 mov	 DWORD PTR [eax], ecx

; 803  : 		}

  0000b	5d		 pop	 ebp
  0000c	c2 08 00	 ret	 8
?_Make_iter@?$vector@PAVTournamentNode@@V?$allocator@PAVTournamentNode@@@std@@@std@@QBE?AV?$_Vector_iterator@V?$_Vector_val@PAVTournamentNode@@V?$allocator@PAVTournamentNode@@@std@@@std@@@2@V?$_Vector_const_iterator@V?$_Vector_val@PAVTournamentNode@@V?$allocator@PAVTournamentNode@@@std@@@std@@@2@@Z ENDP ; std::vector<TournamentNode *,std::allocator<TournamentNode *> >::_Make_iter
_TEXT	ENDS
PUBLIC	?_Destroy@?$vector@PAVTournamentNode@@V?$allocator@PAVTournamentNode@@@std@@@std@@IAEXPAPAVTournamentNode@@0@Z ; std::vector<TournamentNode *,std::allocator<TournamentNode *> >::_Destroy
; Function compile flags: /Ogsp
;	COMDAT ?_Destroy@?$vector@PAVTournamentNode@@V?$allocator@PAVTournamentNode@@@std@@@std@@IAEXPAPAVTournamentNode@@0@Z
_TEXT	SEGMENT
__First$ = 8						; size = 4
__Last$ = 12						; size = 4
?_Destroy@?$vector@PAVTournamentNode@@V?$allocator@PAVTournamentNode@@@std@@@std@@IAEXPAPAVTournamentNode@@0@Z PROC ; std::vector<TournamentNode *,std::allocator<TournamentNode *> >::_Destroy, COMDAT
; _this$ = ecx

; 1270 : 		_Destroy_range(_First, _Last, this->_Alval);
; 1271 : 		}

  00000	c2 08 00	 ret	 8
?_Destroy@?$vector@PAVTournamentNode@@V?$allocator@PAVTournamentNode@@@std@@@std@@IAEXPAPAVTournamentNode@@0@Z ENDP ; std::vector<TournamentNode *,std::allocator<TournamentNode *> >::_Destroy
_TEXT	ENDS
PUBLIC	??$_Cons_val@V?$allocator@PAVTournamentNode@@@std@@PAVTournamentNode@@ABQAV3@@std@@YAXAAV?$allocator@PAVTournamentNode@@@0@PAPAVTournamentNode@@ABQAV2@@Z ; std::_Cons_val<std::allocator<TournamentNode *>,TournamentNode *,TournamentNode * const &>
; Function compile flags: /Ogsp
; File c:\program files (x86)\microsoft visual studio 10.0\vc\include\xmemory
;	COMDAT ??$_Cons_val@V?$allocator@PAVTournamentNode@@@std@@PAVTournamentNode@@ABQAV3@@std@@YAXAAV?$allocator@PAVTournamentNode@@@0@PAPAVTournamentNode@@ABQAV2@@Z
_TEXT	SEGMENT
__Alval$ = 8						; size = 4
__Pdest$ = 12						; size = 4
__Src$ = 16						; size = 4
??$_Cons_val@V?$allocator@PAVTournamentNode@@@std@@PAVTournamentNode@@ABQAV3@@std@@YAXAAV?$allocator@PAVTournamentNode@@@0@PAPAVTournamentNode@@ABQAV2@@Z PROC ; std::_Cons_val<std::allocator<TournamentNode *>,TournamentNode *,TournamentNode * const &>, COMDAT

; 279  : 	{	// construct using allocator

  00000	55		 push	 ebp
  00001	8b ec		 mov	 ebp, esp

; 280  : 	_Alval.construct(_Pdest, _STD forward<_Ty2>(_Src));

  00003	8b 45 0c	 mov	 eax, DWORD PTR __Pdest$[ebp]
  00006	85 c0		 test	 eax, eax
  00008	74 07		 je	 SHORT $LN9@Cons_val@2
  0000a	8b 4d 10	 mov	 ecx, DWORD PTR __Src$[ebp]
  0000d	8b 09		 mov	 ecx, DWORD PTR [ecx]
  0000f	89 08		 mov	 DWORD PTR [eax], ecx
$LN9@Cons_val@2:

; 281  : 	}

  00011	5d		 pop	 ebp
  00012	c3		 ret	 0
??$_Cons_val@V?$allocator@PAVTournamentNode@@@std@@PAVTournamentNode@@ABQAV3@@std@@YAXAAV?$allocator@PAVTournamentNode@@@0@PAPAVTournamentNode@@ABQAV2@@Z ENDP ; std::_Cons_val<std::allocator<TournamentNode *>,TournamentNode *,TournamentNode * const &>
_TEXT	ENDS
PUBLIC	??$_Umove@PAPAVTournamentNode@@@?$vector@PAVTournamentNode@@V?$allocator@PAVTournamentNode@@@std@@@std@@IAEPAPAVTournamentNode@@PAPAV2@00@Z ; std::vector<TournamentNode *,std::allocator<TournamentNode *> >::_Umove<TournamentNode * *>
; Function compile flags: /Ogsp
; File c:\program files (x86)\microsoft visual studio 10.0\vc\include\vector
;	COMDAT ??$_Umove@PAPAVTournamentNode@@@?$vector@PAVTournamentNode@@V?$allocator@PAVTournamentNode@@@std@@@std@@IAEPAPAVTournamentNode@@PAPAV2@00@Z
_TEXT	SEGMENT
__First$ = 8						; size = 4
__Last$ = 12						; size = 4
__Ptr$ = 16						; size = 4
??$_Umove@PAPAVTournamentNode@@@?$vector@PAVTournamentNode@@V?$allocator@PAVTournamentNode@@@std@@@std@@IAEPAPAVTournamentNode@@PAPAV2@00@Z PROC ; std::vector<TournamentNode *,std::allocator<TournamentNode *> >::_Umove<TournamentNode * *>, COMDAT
; _this$ = ecx

; 1322 : 		pointer _Umove(_Iter _First, _Iter _Last, pointer _Ptr)

  00000	55		 push	 ebp
  00001	8b ec		 mov	 ebp, esp

; 1323 : 		{	// move initializing [_First, _Last), using allocator
; 1324 : 		return (_Uninitialized_move(_First, _Last,
; 1325 : 			_Ptr, this->_Alval));

  00003	83 c1 0c	 add	 ecx, 12			; 0000000cH
  00006	51		 push	 ecx
  00007	ff 75 10	 push	 DWORD PTR __Ptr$[ebp]
  0000a	ff 75 0c	 push	 DWORD PTR __Last$[ebp]
  0000d	ff 75 08	 push	 DWORD PTR __First$[ebp]
  00010	e8 00 00 00 00	 call	 ??$_Uninitialized_move@PAPAVTournamentNode@@PAPAV1@V?$allocator@PAVTournamentNode@@@std@@@std@@YAPAPAVTournamentNode@@PAPAV1@00AAV?$allocator@PAVTournamentNode@@@0@@Z ; std::_Uninitialized_move<TournamentNode * *,TournamentNode * *,std::allocator<TournamentNode *> >
  00015	83 c4 10	 add	 esp, 16			; 00000010H

; 1326 : 		}

  00018	5d		 pop	 ebp
  00019	c2 0c 00	 ret	 12			; 0000000cH
??$_Umove@PAPAVTournamentNode@@@?$vector@PAVTournamentNode@@V?$allocator@PAVTournamentNode@@@std@@@std@@IAEPAPAVTournamentNode@@PAPAV2@00@Z ENDP ; std::vector<TournamentNode *,std::allocator<TournamentNode *> >::_Umove<TournamentNode * *>
_TEXT	ENDS
PUBLIC	?begin@?$vector@PAVTournamentNode@@V?$allocator@PAVTournamentNode@@@std@@@std@@QAE?AV?$_Vector_iterator@V?$_Vector_val@PAVTournamentNode@@V?$allocator@PAVTournamentNode@@@std@@@std@@@2@XZ ; std::vector<TournamentNode *,std::allocator<TournamentNode *> >::begin
; Function compile flags: /Ogsp
;	COMDAT ?begin@?$vector@PAVTournamentNode@@V?$allocator@PAVTournamentNode@@@std@@@std@@QAE?AV?$_Vector_iterator@V?$_Vector_val@PAVTournamentNode@@V?$allocator@PAVTournamentNode@@@std@@@std@@@2@XZ
_TEXT	SEGMENT
___$ReturnUdt$ = 8					; size = 4
?begin@?$vector@PAVTournamentNode@@V?$allocator@PAVTournamentNode@@@std@@@std@@QAE?AV?$_Vector_iterator@V?$_Vector_val@PAVTournamentNode@@V?$allocator@PAVTournamentNode@@@std@@@std@@@2@XZ PROC ; std::vector<TournamentNode *,std::allocator<TournamentNode *> >::begin, COMDAT
; _this$ = ecx

; 781  : 		{	// return iterator for beginning of mutable sequence

  00000	55		 push	 ebp
  00001	8b ec		 mov	 ebp, esp

; 782  : 		return (iterator(this->_Myfirst, this));

  00003	8b 09		 mov	 ecx, DWORD PTR [ecx]
  00005	8b 45 08	 mov	 eax, DWORD PTR ___$ReturnUdt$[ebp]
  00008	89 08		 mov	 DWORD PTR [eax], ecx

; 783  : 		}

  0000a	5d		 pop	 ebp
  0000b	c2 04 00	 ret	 4
?begin@?$vector@PAVTournamentNode@@V?$allocator@PAVTournamentNode@@@std@@@std@@QAE?AV?$_Vector_iterator@V?$_Vector_val@PAVTournamentNode@@V?$allocator@PAVTournamentNode@@@std@@@std@@@2@XZ ENDP ; std::vector<TournamentNode *,std::allocator<TournamentNode *> >::begin
_TEXT	ENDS
PUBLIC	?end@?$vector@PAVTournamentNode@@V?$allocator@PAVTournamentNode@@@std@@@std@@QAE?AV?$_Vector_iterator@V?$_Vector_val@PAVTournamentNode@@V?$allocator@PAVTournamentNode@@@std@@@std@@@2@XZ ; std::vector<TournamentNode *,std::allocator<TournamentNode *> >::end
; Function compile flags: /Ogsp
;	COMDAT ?end@?$vector@PAVTournamentNode@@V?$allocator@PAVTournamentNode@@@std@@@std@@QAE?AV?$_Vector_iterator@V?$_Vector_val@PAVTournamentNode@@V?$allocator@PAVTournamentNode@@@std@@@std@@@2@XZ
_TEXT	SEGMENT
___$ReturnUdt$ = 8					; size = 4
?end@?$vector@PAVTournamentNode@@V?$allocator@PAVTournamentNode@@@std@@@std@@QAE?AV?$_Vector_iterator@V?$_Vector_val@PAVTournamentNode@@V?$allocator@PAVTournamentNode@@@std@@@std@@@2@XZ PROC ; std::vector<TournamentNode *,std::allocator<TournamentNode *> >::end, COMDAT
; _this$ = ecx

; 791  : 		{	// return iterator for end of mutable sequence

  00000	55		 push	 ebp
  00001	8b ec		 mov	 ebp, esp

; 792  : 		return (iterator(this->_Mylast, this));

  00003	8b 49 04	 mov	 ecx, DWORD PTR [ecx+4]
  00006	8b 45 08	 mov	 eax, DWORD PTR ___$ReturnUdt$[ebp]
  00009	89 08		 mov	 DWORD PTR [eax], ecx

; 793  : 		}

  0000b	5d		 pop	 ebp
  0000c	c2 04 00	 ret	 4
?end@?$vector@PAVTournamentNode@@V?$allocator@PAVTournamentNode@@@std@@@std@@QAE?AV?$_Vector_iterator@V?$_Vector_val@PAVTournamentNode@@V?$allocator@PAVTournamentNode@@@std@@@std@@@2@XZ ENDP ; std::vector<TournamentNode *,std::allocator<TournamentNode *> >::end
_TEXT	ENDS
PUBLIC	?erase@?$vector@PAVTournamentNode@@V?$allocator@PAVTournamentNode@@@std@@@std@@QAE?AV?$_Vector_iterator@V?$_Vector_val@PAVTournamentNode@@V?$allocator@PAVTournamentNode@@@std@@@std@@@2@V?$_Vector_const_iterator@V?$_Vector_val@PAVTournamentNode@@V?$allocator@PAVTournamentNode@@@std@@@std@@@2@0@Z ; std::vector<TournamentNode *,std::allocator<TournamentNode *> >::erase
; Function compile flags: /Ogsp
;	COMDAT ?erase@?$vector@PAVTournamentNode@@V?$allocator@PAVTournamentNode@@@std@@@std@@QAE?AV?$_Vector_iterator@V?$_Vector_val@PAVTournamentNode@@V?$allocator@PAVTournamentNode@@@std@@@std@@@2@V?$_Vector_const_iterator@V?$_Vector_val@PAVTournamentNode@@V?$allocator@PAVTournamentNode@@@std@@@std@@@2@0@Z
_TEXT	SEGMENT
___$ReturnUdt$ = 8					; size = 4
__First_arg$ = 12					; size = 4
__Cat$512449 = 16					; size = 1
__Last_arg$ = 16					; size = 4
?erase@?$vector@PAVTournamentNode@@V?$allocator@PAVTournamentNode@@@std@@@std@@QAE?AV?$_Vector_iterator@V?$_Vector_val@PAVTournamentNode@@V?$allocator@PAVTournamentNode@@@std@@@std@@@2@V?$_Vector_const_iterator@V?$_Vector_val@PAVTournamentNode@@V?$allocator@PAVTournamentNode@@@std@@@std@@@2@0@Z PROC ; std::vector<TournamentNode *,std::allocator<TournamentNode *> >::erase, COMDAT
; _this$ = ecx

; 1190 : 		{	// erase [_First, _Last)

  00000	55		 push	 ebp
  00001	8b ec		 mov	 ebp, esp

; 1191 : 		iterator _First = _Make_iter(_First_arg);

  00003	8b 45 0c	 mov	 eax, DWORD PTR __First_arg$[ebp]
  00006	56		 push	 esi
  00007	57		 push	 edi
  00008	8b 7d 08	 mov	 edi, DWORD PTR ___$ReturnUdt$[ebp]
  0000b	8b f1		 mov	 esi, ecx
  0000d	89 07		 mov	 DWORD PTR [edi], eax

; 1192 : 		iterator _Last = _Make_iter(_Last_arg);
; 1193 : 
; 1194 : 		if (_First != _Last)

  0000f	3b 45 10	 cmp	 eax, DWORD PTR __Last_arg$[ebp]
  00012	74 16		 je	 SHORT $LN1@erase

; 1195 : 			{	// worth doing, copy down over hole
; 1196 :  #if _ITERATOR_DEBUG_LEVEL == 2
; 1197 : 			if (_Last < _First || _VICONT(_First) != this
; 1198 : 				|| _VIPTR(_First) < this->_Myfirst
; 1199 : 				|| this->_Mylast < _VIPTR(_Last))
; 1200 : 				_DEBUG_ERROR("vector erase iterator outside range");
; 1201 : 			pointer _Ptr = _Move(_VIPTR(_Last), this->_Mylast,
; 1202 : 				_VIPTR(_First));
; 1203 : 			_Orphan_range(_VIPTR(_First), this->_Mylast);
; 1204 : 
; 1205 :  #else /* _ITERATOR_DEBUG_LEVEL == 2 */
; 1206 : 			pointer _Ptr = _Move(_VIPTR(_Last), this->_Mylast,
; 1207 : 				_VIPTR(_First));

  00014	ff 75 10	 push	 DWORD PTR __Cat$512449[ebp]
  00017	8b 4e 04	 mov	 ecx, DWORD PTR [esi+4]
  0001a	50		 push	 eax
  0001b	51		 push	 ecx
  0001c	ff 75 10	 push	 DWORD PTR __Last_arg$[ebp]
  0001f	e8 00 00 00 00	 call	 ??$_Move@PAPAVTournamentNode@@PAPAV1@@std@@YAPAPAVTournamentNode@@PAPAV1@00U_Scalar_ptr_iterator_tag@0@@Z ; std::_Move<TournamentNode * *,TournamentNode * *>
  00024	83 c4 10	 add	 esp, 16			; 00000010H

; 1208 :  #endif /* _ITERATOR_DEBUG_LEVEL == 2 */
; 1209 : 
; 1210 : 			_Destroy(_Ptr, this->_Mylast);
; 1211 : 			this->_Mylast = _Ptr;

  00027	89 46 04	 mov	 DWORD PTR [esi+4], eax
$LN1@erase:

; 1212 : 			}
; 1213 : 		return (_First);

  0002a	8b c7		 mov	 eax, edi
  0002c	5f		 pop	 edi
  0002d	5e		 pop	 esi

; 1214 : 		}

  0002e	5d		 pop	 ebp
  0002f	c2 0c 00	 ret	 12			; 0000000cH
?erase@?$vector@PAVTournamentNode@@V?$allocator@PAVTournamentNode@@@std@@@std@@QAE?AV?$_Vector_iterator@V?$_Vector_val@PAVTournamentNode@@V?$allocator@PAVTournamentNode@@@std@@@std@@@2@V?$_Vector_const_iterator@V?$_Vector_val@PAVTournamentNode@@V?$allocator@PAVTournamentNode@@@std@@@std@@@2@0@Z ENDP ; std::vector<TournamentNode *,std::allocator<TournamentNode *> >::erase
_TEXT	ENDS
PUBLIC	?_Tidy@?$vector@PAVTournamentNode@@V?$allocator@PAVTournamentNode@@@std@@@std@@IAEXXZ ; std::vector<TournamentNode *,std::allocator<TournamentNode *> >::_Tidy
EXTRN	__imp_?_Orphan_all@_Container_base0@std@@QAEXXZ:PROC
; Function compile flags: /Ogsp
;	COMDAT ?_Tidy@?$vector@PAVTournamentNode@@V?$allocator@PAVTournamentNode@@@std@@@std@@IAEXXZ
_TEXT	SEGMENT
?_Tidy@?$vector@PAVTournamentNode@@V?$allocator@PAVTournamentNode@@@std@@@std@@IAEXXZ PROC ; std::vector<TournamentNode *,std::allocator<TournamentNode *> >::_Tidy, COMDAT
; _this$ = ecx

; 1301 : 		{	// free all storage

  00000	56		 push	 esi
  00001	8b f1		 mov	 esi, ecx

; 1302 : 		if (this->_Myfirst != 0)

  00003	83 3e 00	 cmp	 DWORD PTR [esi], 0
  00006	74 0e		 je	 SHORT $LN12@Tidy

; 1303 : 			{	// something to free, destroy and deallocate it
; 1304 : 			this->_Orphan_all();

  00008	ff 15 00 00 00
	00		 call	 DWORD PTR __imp_?_Orphan_all@_Container_base0@std@@QAEXXZ

; 1305 : 			_Destroy(this->_Myfirst, this->_Mylast);
; 1306 : 			this->_Alval.deallocate(this->_Myfirst,
; 1307 : 				this->_Myend - this->_Myfirst);

  0000e	ff 36		 push	 DWORD PTR [esi]
  00010	e8 00 00 00 00	 call	 ??3@YAXPAX@Z		; operator delete
  00015	59		 pop	 ecx
$LN12@Tidy:

; 1308 : 			}
; 1309 : 		this->_Myfirst = 0;

  00016	83 26 00	 and	 DWORD PTR [esi], 0

; 1310 : 		this->_Mylast = 0;

  00019	83 66 04 00	 and	 DWORD PTR [esi+4], 0

; 1311 : 		this->_Myend = 0;

  0001d	83 66 08 00	 and	 DWORD PTR [esi+8], 0
  00021	5e		 pop	 esi

; 1312 : 		}

  00022	c3		 ret	 0
?_Tidy@?$vector@PAVTournamentNode@@V?$allocator@PAVTournamentNode@@@std@@@std@@IAEXXZ ENDP ; std::vector<TournamentNode *,std::allocator<TournamentNode *> >::_Tidy
_TEXT	ENDS
PUBLIC	?reserve@?$vector@PAVTournamentNode@@V?$allocator@PAVTournamentNode@@@std@@@std@@QAEXI@Z ; std::vector<TournamentNode *,std::allocator<TournamentNode *> >::reserve
; Function compile flags: /Ogsp
;	COMDAT ?reserve@?$vector@PAVTournamentNode@@V?$allocator@PAVTournamentNode@@@std@@@std@@QAEXI@Z
_TEXT	SEGMENT
__Count$ = 8						; size = 4
?reserve@?$vector@PAVTournamentNode@@V?$allocator@PAVTournamentNode@@@std@@@std@@QAEXI@Z PROC ; std::vector<TournamentNode *,std::allocator<TournamentNode *> >::reserve, COMDAT
; _this$ = ecx

; 746  : 		{	// determine new minimum length of allocated storage

  00000	55		 push	 ebp
  00001	8b ec		 mov	 ebp, esp

; 747  : 		if (max_size() < _Count)

  00003	81 7d 08 ff ff
	ff 3f		 cmp	 DWORD PTR __Count$[ebp], 1073741823 ; 3fffffffH
  0000a	56		 push	 esi
  0000b	8b f1		 mov	 esi, ecx
  0000d	76 0b		 jbe	 SHORT $LN5@reserve

; 748  : 			_Xlen();	// result too long

  0000f	68 00 00 00 00	 push	 OFFSET ??_C@_0BD@OLBABOEK@vector?$DMT?$DO?5too?5long?$AA@
  00014	ff 15 00 00 00
	00		 call	 DWORD PTR __imp_?_Xlength_error@std@@YAXPBD@Z
$LN43@reserve:
$LN5@reserve:

; 749  : 		else if (capacity() < _Count)

  0001a	8b 46 08	 mov	 eax, DWORD PTR [esi+8]
  0001d	2b 06		 sub	 eax, DWORD PTR [esi]
  0001f	c1 f8 02	 sar	 eax, 2
  00022	3b 45 08	 cmp	 eax, DWORD PTR __Count$[ebp]
  00025	73 52		 jae	 SHORT $LN3@reserve

; 750  : 			{	// not enough room, reallocate
; 751  : 			pointer _Ptr = this->_Alval.allocate(_Count);

  00027	53		 push	 ebx
  00028	57		 push	 edi
  00029	6a 00		 push	 0
  0002b	ff 75 08	 push	 DWORD PTR __Count$[ebp]
  0002e	e8 00 00 00 00	 call	 ??$_Allocate@PAVTournamentNode@@@std@@YAPAPAVTournamentNode@@IPAPAV1@@Z ; std::_Allocate<TournamentNode *>

; 752  : 
; 753  : 			_TRY_BEGIN
; 754  : 			_Umove(this->_Myfirst, this->_Mylast, _Ptr);

  00033	8b 0e		 mov	 ecx, DWORD PTR [esi]
  00035	8d 56 0c	 lea	 edx, DWORD PTR [esi+12]
  00038	52		 push	 edx
  00039	8b d8		 mov	 ebx, eax
  0003b	8b 46 04	 mov	 eax, DWORD PTR [esi+4]
  0003e	53		 push	 ebx
  0003f	50		 push	 eax
  00040	51		 push	 ecx
  00041	e8 00 00 00 00	 call	 ??$_Uninitialized_move@PAPAVTournamentNode@@PAPAV1@V?$allocator@PAVTournamentNode@@@std@@@std@@YAPAPAVTournamentNode@@PAPAV1@00AAV?$allocator@PAVTournamentNode@@@0@@Z ; std::_Uninitialized_move<TournamentNode * *,TournamentNode * *,std::allocator<TournamentNode *> >

; 755  : 			_CATCH_ALL
; 756  : 			this->_Alval.deallocate(_Ptr, _Count);
; 757  : 			_RERAISE;
; 758  : 			_CATCH_END
; 759  : 
; 760  : 			size_type _Size = size();

  00046	8b 06		 mov	 eax, DWORD PTR [esi]
  00048	8b 7e 04	 mov	 edi, DWORD PTR [esi+4]
  0004b	2b f8		 sub	 edi, eax
  0004d	83 c4 18	 add	 esp, 24			; 00000018H
  00050	c1 ff 02	 sar	 edi, 2

; 761  : 			if (this->_Myfirst != 0)

  00053	85 c0		 test	 eax, eax
  00055	74 07		 je	 SHORT $LN39@reserve

; 762  : 				{	// destroy and deallocate old array
; 763  : 				_Destroy(this->_Myfirst, this->_Mylast);
; 764  : 				this->_Alval.deallocate(this->_Myfirst,
; 765  : 					this->_Myend - this->_Myfirst);

  00057	50		 push	 eax
  00058	e8 00 00 00 00	 call	 ??3@YAXPAX@Z		; operator delete
  0005d	59		 pop	 ecx
$LN39@reserve:

; 766  : 				}
; 767  : 
; 768  : 			this->_Orphan_all();

  0005e	8b ce		 mov	 ecx, esi
  00060	ff 15 00 00 00
	00		 call	 DWORD PTR __imp_?_Orphan_all@_Container_base0@std@@QAEXXZ

; 769  : 			this->_Myend = _Ptr + _Count;

  00066	8b 45 08	 mov	 eax, DWORD PTR __Count$[ebp]
  00069	8d 04 83	 lea	 eax, DWORD PTR [ebx+eax*4]
  0006c	89 46 08	 mov	 DWORD PTR [esi+8], eax

; 770  : 			this->_Mylast = _Ptr + _Size;

  0006f	8d 04 bb	 lea	 eax, DWORD PTR [ebx+edi*4]
  00072	5f		 pop	 edi

; 771  : 			this->_Myfirst = _Ptr;

  00073	89 1e		 mov	 DWORD PTR [esi], ebx
  00075	89 46 04	 mov	 DWORD PTR [esi+4], eax
  00078	5b		 pop	 ebx
$LN3@reserve:
  00079	5e		 pop	 esi

; 772  : 			}
; 773  : 		}

  0007a	5d		 pop	 ebp
  0007b	c2 04 00	 ret	 4
$LN42@reserve:
?reserve@?$vector@PAVTournamentNode@@V?$allocator@PAVTournamentNode@@@std@@@std@@QAEXI@Z ENDP ; std::vector<TournamentNode *,std::allocator<TournamentNode *> >::reserve
_TEXT	ENDS
PUBLIC	?ApplyTournamentMainInfo@ioTournamentManager@@QAEXAAVSP2Packet@@@Z ; ioTournamentManager::ApplyTournamentMainInfo
EXTRN	?ApplyMainInfo@TournamentNode@@QAEXAAVSP2Packet@@@Z:PROC ; TournamentNode::ApplyMainInfo
EXTRN	??5SP2Packet@@QAEAAV0@AAK@Z:PROC		; SP2Packet::operator>>
; Function compile flags: /Ogsp
; File d:\lost saga for developer\youtube\tutorial\source\src\lsclient\iotournamentmanager.cpp
;	COMDAT ?ApplyTournamentMainInfo@ioTournamentManager@@QAEXAAVSP2Packet@@@Z
_TEXT	SEGMENT
_dwIndex$ = -4						; size = 4
_rkPacket$ = 8						; size = 4
?ApplyTournamentMainInfo@ioTournamentManager@@QAEXAAVSP2Packet@@@Z PROC ; ioTournamentManager::ApplyTournamentMainInfo, COMDAT
; _this$ = ecx

; 153  : {

  00000	55		 push	 ebp
  00001	8b ec		 mov	 ebp, esp
  00003	51		 push	 ecx
  00004	56		 push	 esi

; 154  : 	DWORD dwIndex;
; 155  : 	rkPacket >> dwIndex;

  00005	8d 45 fc	 lea	 eax, DWORD PTR _dwIndex$[ebp]
  00008	8b f1		 mov	 esi, ecx
  0000a	8b 4d 08	 mov	 ecx, DWORD PTR _rkPacket$[ebp]
  0000d	50		 push	 eax
  0000e	e8 00 00 00 00	 call	 ??5SP2Packet@@QAEAAV0@AAK@Z ; SP2Packet::operator>>

; 156  : 
; 157  : 	TournamentVec::iterator iter = m_TournamentList.begin();

  00013	8b 46 04	 mov	 eax, DWORD PTR [esi+4]

; 158  : 	for(;iter != m_TournamentList.end();++iter)

  00016	8b 76 08	 mov	 esi, DWORD PTR [esi+8]
  00019	eb 11		 jmp	 SHORT $LN43@ApplyTourn
$LL18@ApplyTourn:

; 159  : 	{
; 160  : 		TournamentNode *pTournament = *iter;

  0001b	8b 08		 mov	 ecx, DWORD PTR [eax]

; 161  : 		if( pTournament )

  0001d	85 c9		 test	 ecx, ecx
  0001f	74 08		 je	 SHORT $LN4@ApplyTourn

; 162  : 		{
; 163  : 			if( pTournament->GetIndex() == dwIndex )

  00021	8b 51 04	 mov	 edx, DWORD PTR [ecx+4]
  00024	3b 55 fc	 cmp	 edx, DWORD PTR _dwIndex$[ebp]
  00027	74 09		 je	 SHORT $LN41@ApplyTourn
$LN4@ApplyTourn:

; 158  : 	for(;iter != m_TournamentList.end();++iter)

  00029	83 c0 04	 add	 eax, 4
$LN43@ApplyTourn:
  0002c	3b c6		 cmp	 eax, esi
  0002e	75 eb		 jne	 SHORT $LL18@ApplyTourn

; 162  : 		{
; 163  : 			if( pTournament->GetIndex() == dwIndex )

  00030	eb 08		 jmp	 SHORT $LN3@ApplyTourn
$LN41@ApplyTourn:

; 164  : 			{
; 165  : 				pTournament->ApplyMainInfo( rkPacket );

  00032	ff 75 08	 push	 DWORD PTR _rkPacket$[ebp]
  00035	e8 00 00 00 00	 call	 ?ApplyMainInfo@TournamentNode@@QAEXAAVSP2Packet@@@Z ; TournamentNode::ApplyMainInfo
$LN3@ApplyTourn:
  0003a	5e		 pop	 esi

; 166  : 				return;
; 167  : 			}
; 168  : 		}
; 169  : 	}
; 170  : }

  0003b	c9		 leave
  0003c	c2 04 00	 ret	 4
?ApplyTournamentMainInfo@ioTournamentManager@@QAEXAAVSP2Packet@@@Z ENDP ; ioTournamentManager::ApplyTournamentMainInfo
_TEXT	ENDS
PUBLIC	?ApplyTournamentScheduleInfo@ioTournamentManager@@QAEXAAVSP2Packet@@@Z ; ioTournamentManager::ApplyTournamentScheduleInfo
EXTRN	?ApplyScheduleInfo@TournamentNode@@QAEXAAVSP2Packet@@@Z:PROC ; TournamentNode::ApplyScheduleInfo
; Function compile flags: /Ogsp
;	COMDAT ?ApplyTournamentScheduleInfo@ioTournamentManager@@QAEXAAVSP2Packet@@@Z
_TEXT	SEGMENT
_dwIndex$ = -4						; size = 4
_rkPacket$ = 8						; size = 4
?ApplyTournamentScheduleInfo@ioTournamentManager@@QAEXAAVSP2Packet@@@Z PROC ; ioTournamentManager::ApplyTournamentScheduleInfo, COMDAT
; _this$ = ecx

; 173  : {

  00000	55		 push	 ebp
  00001	8b ec		 mov	 ebp, esp
  00003	51		 push	 ecx
  00004	56		 push	 esi

; 174  : 	DWORD dwIndex;
; 175  : 	rkPacket >> dwIndex;

  00005	8d 45 fc	 lea	 eax, DWORD PTR _dwIndex$[ebp]
  00008	8b f1		 mov	 esi, ecx
  0000a	8b 4d 08	 mov	 ecx, DWORD PTR _rkPacket$[ebp]
  0000d	50		 push	 eax
  0000e	e8 00 00 00 00	 call	 ??5SP2Packet@@QAEAAV0@AAK@Z ; SP2Packet::operator>>

; 176  : 
; 177  : 	TournamentVec::iterator iter = m_TournamentList.begin();

  00013	8b 46 04	 mov	 eax, DWORD PTR [esi+4]

; 178  : 	for(;iter != m_TournamentList.end();++iter)

  00016	8b 76 08	 mov	 esi, DWORD PTR [esi+8]
  00019	eb 11		 jmp	 SHORT $LN43@ApplyTourn@2
$LL18@ApplyTourn@2:

; 179  : 	{
; 180  : 		TournamentNode *pTournament = *iter;

  0001b	8b 08		 mov	 ecx, DWORD PTR [eax]

; 181  : 		if( pTournament )

  0001d	85 c9		 test	 ecx, ecx
  0001f	74 08		 je	 SHORT $LN4@ApplyTourn@2

; 182  : 		{
; 183  : 			if( pTournament->GetIndex() == dwIndex )

  00021	8b 51 04	 mov	 edx, DWORD PTR [ecx+4]
  00024	3b 55 fc	 cmp	 edx, DWORD PTR _dwIndex$[ebp]
  00027	74 09		 je	 SHORT $LN41@ApplyTourn@2
$LN4@ApplyTourn@2:

; 178  : 	for(;iter != m_TournamentList.end();++iter)

  00029	83 c0 04	 add	 eax, 4
$LN43@ApplyTourn@2:
  0002c	3b c6		 cmp	 eax, esi
  0002e	75 eb		 jne	 SHORT $LL18@ApplyTourn@2

; 182  : 		{
; 183  : 			if( pTournament->GetIndex() == dwIndex )

  00030	eb 08		 jmp	 SHORT $LN3@ApplyTourn@2
$LN41@ApplyTourn@2:

; 184  : 			{
; 185  : 				pTournament->ApplyScheduleInfo( rkPacket );

  00032	ff 75 08	 push	 DWORD PTR _rkPacket$[ebp]
  00035	e8 00 00 00 00	 call	 ?ApplyScheduleInfo@TournamentNode@@QAEXAAVSP2Packet@@@Z ; TournamentNode::ApplyScheduleInfo
$LN3@ApplyTourn@2:
  0003a	5e		 pop	 esi

; 186  : 				return;
; 187  : 			}
; 188  : 		}
; 189  : 	}
; 190  : }

  0003b	c9		 leave
  0003c	c2 04 00	 ret	 4
?ApplyTournamentScheduleInfo@ioTournamentManager@@QAEXAAVSP2Packet@@@Z ENDP ; ioTournamentManager::ApplyTournamentScheduleInfo
_TEXT	ENDS
PUBLIC	?GetRegularIndex@ioTournamentManager@@QAEKXZ	; ioTournamentManager::GetRegularIndex
; Function compile flags: /Ogsp
;	COMDAT ?GetRegularIndex@ioTournamentManager@@QAEKXZ
_TEXT	SEGMENT
?GetRegularIndex@ioTournamentManager@@QAEKXZ PROC	; ioTournamentManager::GetRegularIndex, COMDAT
; _this$ = ecx

; 205  : 	TournamentVec::iterator iter = m_TournamentList.begin();

  00000	8b 41 04	 mov	 eax, DWORD PTR [ecx+4]

; 206  : 	for(;iter != m_TournamentList.end();++iter)

  00003	8b 49 08	 mov	 ecx, DWORD PTR [ecx+8]
  00006	eb 12		 jmp	 SHORT $LN45@GetRegular
$LL18@GetRegular:

; 207  : 	{
; 208  : 		TournamentNode *pTournament = *iter;

  00008	8b 10		 mov	 edx, DWORD PTR [eax]

; 209  : 		if( pTournament )

  0000a	85 d2		 test	 edx, edx
  0000c	74 09		 je	 SHORT $LN4@GetRegular

; 210  : 		{
; 211  : 			if( pTournament->GetType() == TournamentNode::TYPE_REGULAR )

  0000e	80 ba a0 00 00
	00 01		 cmp	 BYTE PTR [edx+160], 1
  00015	74 0a		 je	 SHORT $LN43@GetRegular
$LN4@GetRegular:

; 206  : 	for(;iter != m_TournamentList.end();++iter)

  00017	83 c0 04	 add	 eax, 4
$LN45@GetRegular:
  0001a	3b c1		 cmp	 eax, ecx
  0001c	75 ea		 jne	 SHORT $LL18@GetRegular

; 213  : 		}
; 214  : 	}
; 215  : 	return 0;     //   .

  0001e	33 c0		 xor	 eax, eax

; 216  : }

  00020	c3		 ret	 0
$LN43@GetRegular:

; 212  : 				return pTournament->GetIndex();

  00021	8b 42 04	 mov	 eax, DWORD PTR [edx+4]

; 216  : }

  00024	c3		 ret	 0
?GetRegularIndex@ioTournamentManager@@QAEKXZ ENDP	; ioTournamentManager::GetRegularIndex
_TEXT	ENDS
PUBLIC	?GetRegularState@ioTournamentManager@@QAEHXZ	; ioTournamentManager::GetRegularState
; Function compile flags: /Ogsp
;	COMDAT ?GetRegularState@ioTournamentManager@@QAEHXZ
_TEXT	SEGMENT
?GetRegularState@ioTournamentManager@@QAEHXZ PROC	; ioTournamentManager::GetRegularState, COMDAT
; _this$ = ecx

; 220  : 	TournamentVec::iterator iter = m_TournamentList.begin();

  00000	8b 41 04	 mov	 eax, DWORD PTR [ecx+4]

; 221  : 	for(;iter != m_TournamentList.end();++iter)

  00003	8b 49 08	 mov	 ecx, DWORD PTR [ecx+8]
  00006	eb 12		 jmp	 SHORT $LN45@GetRegular@2
$LL18@GetRegular@2:

; 222  : 	{
; 223  : 		TournamentNode *pTournament = *iter;

  00008	8b 10		 mov	 edx, DWORD PTR [eax]

; 224  : 		if( pTournament )

  0000a	85 d2		 test	 edx, edx
  0000c	74 09		 je	 SHORT $LN4@GetRegular@2

; 225  : 		{
; 226  : 			if( pTournament->GetType() == TournamentNode::TYPE_REGULAR )

  0000e	80 ba a0 00 00
	00 01		 cmp	 BYTE PTR [edx+160], 1
  00015	74 0b		 je	 SHORT $LN43@GetRegular@2
$LN4@GetRegular@2:

; 221  : 	for(;iter != m_TournamentList.end();++iter)

  00017	83 c0 04	 add	 eax, 4
$LN45@GetRegular@2:
  0001a	3b c1		 cmp	 eax, ecx
  0001c	75 ea		 jne	 SHORT $LL18@GetRegular@2

; 228  : 		}
; 229  : 	}
; 230  : 	return -1;     //   .

  0001e	83 c8 ff	 or	 eax, -1

; 231  : }

  00021	c3		 ret	 0
$LN43@GetRegular@2:

; 227  : 				return pTournament->GetState();

  00022	0f b6 82 a1 00
	00 00		 movzx	 eax, BYTE PTR [edx+161]

; 231  : }

  00029	c3		 ret	 0
?GetRegularState@ioTournamentManager@@QAEHXZ ENDP	; ioTournamentManager::GetRegularState
_TEXT	ENDS
PUBLIC	?GetRegularResourceType@ioTournamentManager@@QAEHXZ ; ioTournamentManager::GetRegularResourceType
; Function compile flags: /Ogsp
;	COMDAT ?GetRegularResourceType@ioTournamentManager@@QAEHXZ
_TEXT	SEGMENT
?GetRegularResourceType@ioTournamentManager@@QAEHXZ PROC ; ioTournamentManager::GetRegularResourceType, COMDAT
; _this$ = ecx

; 235  : 	TournamentVec::iterator iter = m_TournamentList.begin();

  00000	8b 41 04	 mov	 eax, DWORD PTR [ecx+4]

; 236  : 	for(;iter != m_TournamentList.end();++iter)

  00003	8b 49 08	 mov	 ecx, DWORD PTR [ecx+8]
  00006	eb 12		 jmp	 SHORT $LN45@GetRegular@3
$LL18@GetRegular@3:

; 237  : 	{
; 238  : 		TournamentNode *pTournament = *iter;

  00008	8b 10		 mov	 edx, DWORD PTR [eax]

; 239  : 		if( pTournament )

  0000a	85 d2		 test	 edx, edx
  0000c	74 09		 je	 SHORT $LN4@GetRegular@3

; 240  : 		{
; 241  : 			if( pTournament->GetType() == TournamentNode::TYPE_REGULAR )

  0000e	80 ba a0 00 00
	00 01		 cmp	 BYTE PTR [edx+160], 1
  00015	74 0b		 je	 SHORT $LN43@GetRegular@3
$LN4@GetRegular@3:

; 236  : 	for(;iter != m_TournamentList.end();++iter)

  00017	83 c0 04	 add	 eax, 4
$LN45@GetRegular@3:
  0001a	3b c1		 cmp	 eax, ecx
  0001c	75 ea		 jne	 SHORT $LL18@GetRegular@3

; 243  : 		}
; 244  : 	}
; 245  : 	return 1;     //   .

  0001e	33 c0		 xor	 eax, eax
  00020	40		 inc	 eax

; 246  : }

  00021	c3		 ret	 0
$LN43@GetRegular@3:

; 242  : 				return pTournament->GetReguralResourceType();

  00022	8b 42 30	 mov	 eax, DWORD PTR [edx+48]

; 246  : }

  00025	c3		 ret	 0
?GetRegularResourceType@ioTournamentManager@@QAEHXZ ENDP ; ioTournamentManager::GetRegularResourceType
_TEXT	ENDS
PUBLIC	?IsRegularDisableTournament@ioTournamentManager@@QAE_NXZ ; ioTournamentManager::IsRegularDisableTournament
; Function compile flags: /Ogsp
;	COMDAT ?IsRegularDisableTournament@ioTournamentManager@@QAE_NXZ
_TEXT	SEGMENT
?IsRegularDisableTournament@ioTournamentManager@@QAE_NXZ PROC ; ioTournamentManager::IsRegularDisableTournament, COMDAT
; _this$ = ecx

; 250  : 	TournamentVec::iterator iter = m_TournamentList.begin();

  00000	8b 41 04	 mov	 eax, DWORD PTR [ecx+4]

; 251  : 	for(;iter != m_TournamentList.end();++iter)

  00003	8b 49 08	 mov	 ecx, DWORD PTR [ecx+8]
  00006	eb 12		 jmp	 SHORT $LN45@IsRegularD
$LL18@IsRegularD:

; 252  : 	{
; 253  : 		TournamentNode *pTournament = *iter;

  00008	8b 10		 mov	 edx, DWORD PTR [eax]

; 254  : 		if( pTournament )

  0000a	85 d2		 test	 edx, edx
  0000c	74 09		 je	 SHORT $LN4@IsRegularD

; 255  : 		{
; 256  : 			if( pTournament->GetType() == TournamentNode::TYPE_REGULAR )

  0000e	80 ba a0 00 00
	00 01		 cmp	 BYTE PTR [edx+160], 1
  00015	74 0a		 je	 SHORT $LN43@IsRegularD
$LN4@IsRegularD:

; 251  : 	for(;iter != m_TournamentList.end();++iter)

  00017	83 c0 04	 add	 eax, 4
$LN45@IsRegularD:
  0001a	3b c1		 cmp	 eax, ecx
  0001c	75 ea		 jne	 SHORT $LL18@IsRegularD

; 258  : 		}
; 259  : 	}
; 260  : 	return false;     //   .

  0001e	32 c0		 xor	 al, al

; 261  : }

  00020	c3		 ret	 0
$LN43@IsRegularD:

; 257  : 				return pTournament->isDisableTournament();

  00021	8a 42 38	 mov	 al, BYTE PTR [edx+56]

; 261  : }

  00024	c3		 ret	 0
?IsRegularDisableTournament@ioTournamentManager@@QAE_NXZ ENDP ; ioTournamentManager::IsRegularDisableTournament
_TEXT	ENDS
PUBLIC	?GetRegularDisableTournamentMent@ioTournamentManager@@QAEABVioHashString@@XZ ; ioTournamentManager::GetRegularDisableTournamentMent
EXTRN	_atexit:PROC
EXTRN	__imp_??0ioHashString@@QAE@XZ:PROC
EXTRN	___CxxFrameHandler3:PROC
EXTRN	@__security_check_cookie@4:PROC
EXTRN	__EH_epilog3:PROC
EXTRN	__EH_prolog3:PROC
;	COMDAT ?szNone@?1??GetRegularDisableTournamentMent@ioTournamentManager@@QAEABVioHashString@@XZ@4V3@A
; File d:\lost saga for developer\youtube\tutorial\source\src\lsclient\tournamentnode.h
_BSS	SEGMENT
?szNone@?1??GetRegularDisableTournamentMent@ioTournamentManager@@QAEABVioHashString@@XZ@4V3@A DB 010H DUP (?) ; `ioTournamentManager::GetRegularDisableTournamentMent'::`2'::szNone
_BSS	ENDS
;	COMDAT ?$S1@?1??GetRegularDisableTournamentMent@ioTournamentManager@@QAEABVioHashString@@XZ@4IA
_BSS	SEGMENT
?$S1@?1??GetRegularDisableTournamentMent@ioTournamentManager@@QAEABVioHashString@@XZ@4IA DD 01H DUP (?) ; `ioTournamentManager::GetRegularDisableTournamentMent'::`2'::$S1
_BSS	ENDS
;	COMDAT xdata$x
xdata$x	SEGMENT
__unwindtable$?GetRegularDisableTournamentMent@ioTournamentManager@@QAEABVioHashString@@XZ DD 0ffffffffH
	DD	FLAT:__unwindfunclet$?GetRegularDisableTournamentMent@ioTournamentManager@@QAEABVioHashString@@XZ$0
__ehfuncinfo$?GetRegularDisableTournamentMent@ioTournamentManager@@QAEABVioHashString@@XZ DD 019930522H
	DD	01H
	DD	FLAT:__unwindtable$?GetRegularDisableTournamentMent@ioTournamentManager@@QAEABVioHashString@@XZ
	DD	2 DUP(00H)
	DD	2 DUP(00H)
	DD	00H
	DD	01H
; Function compile flags: /Ogsp
; File d:\lost saga for developer\youtube\tutorial\source\src\lsclient\iotournamentmanager.cpp
xdata$x	ENDS
;	COMDAT ?GetRegularDisableTournamentMent@ioTournamentManager@@QAEABVioHashString@@XZ
_TEXT	SEGMENT
__$EHRec$ = -12						; size = 12
?GetRegularDisableTournamentMent@ioTournamentManager@@QAEABVioHashString@@XZ PROC ; ioTournamentManager::GetRegularDisableTournamentMent, COMDAT
; _this$ = ecx

; 264  : {

  00000	6a 00		 push	 0
  00002	b8 00 00 00 00	 mov	 eax, __ehhandler$?GetRegularDisableTournamentMent@ioTournamentManager@@QAEABVioHashString@@XZ
  00007	e8 00 00 00 00	 call	 __EH_prolog3
  0000c	8b f1		 mov	 esi, ecx

; 265  : 	static ioHashString szNone;

  0000e	f6 05 00 00 00
	00 01		 test	 BYTE PTR ?$S1@?1??GetRegularDisableTournamentMent@ioTournamentManager@@QAEABVioHashString@@XZ@4IA, 1
  00015	bf 00 00 00 00	 mov	 edi, OFFSET ?szNone@?1??GetRegularDisableTournamentMent@ioTournamentManager@@QAEABVioHashString@@XZ@4V3@A
  0001a	75 1e		 jne	 SHORT $LN6@GetRegular@4
  0001c	83 0d 00 00 00
	00 01		 or	 DWORD PTR ?$S1@?1??GetRegularDisableTournamentMent@ioTournamentManager@@QAEABVioHashString@@XZ@4IA, 1
  00023	83 65 fc 00	 and	 DWORD PTR __$EHRec$[ebp+8], 0
  00027	8b cf		 mov	 ecx, edi
  00029	ff 15 00 00 00
	00		 call	 DWORD PTR __imp_??0ioHashString@@QAE@XZ
  0002f	68 00 00 00 00	 push	 OFFSET ??__FszNone@?1??GetRegularDisableTournamentMent@ioTournamentManager@@QAEABVioHashString@@XZ@YAXXZ ; `ioTournamentManager::GetRegularDisableTournamentMent'::`2'::`dynamic atexit destructor for 'szNone''
  00034	e8 00 00 00 00	 call	 _atexit
  00039	59		 pop	 ecx
$LN6@GetRegular@4:

; 266  : 	TournamentVec::iterator iter = m_TournamentList.begin();

  0003a	8b 46 04	 mov	 eax, DWORD PTR [esi+4]

; 267  : 	for(;iter != m_TournamentList.end();++iter)

  0003d	8b 76 08	 mov	 esi, DWORD PTR [esi+8]
  00040	eb 12		 jmp	 SHORT $LN48@GetRegular@4
$LL20@GetRegular@4:

; 268  : 	{
; 269  : 		TournamentNode *pTournament = *iter;

  00042	8b 08		 mov	 ecx, DWORD PTR [eax]

; 270  : 		if( pTournament )

  00044	85 c9		 test	 ecx, ecx
  00046	74 09		 je	 SHORT $LN4@GetRegular@4

; 271  : 		{
; 272  : 			if( pTournament->GetType() == TournamentNode::TYPE_REGULAR )

  00048	80 b9 a0 00 00
	00 01		 cmp	 BYTE PTR [ecx+160], 1
  0004f	74 0f		 je	 SHORT $LN45@GetRegular@4
$LN4@GetRegular@4:

; 267  : 	for(;iter != m_TournamentList.end();++iter)

  00051	83 c0 04	 add	 eax, 4
$LN48@GetRegular@4:
  00054	3b c6		 cmp	 eax, esi
  00056	75 ea		 jne	 SHORT $LL20@GetRegular@4

; 274  : 		}
; 275  : 	}
; 276  : 	return szNone;     //   .

  00058	8b c7		 mov	 eax, edi
$LN7@GetRegular@4:

; 277  : }

  0005a	e8 00 00 00 00	 call	 __EH_epilog3
  0005f	c3		 ret	 0
$LN45@GetRegular@4:

; 273  : 				return pTournament->GetDisableTournamentMent();

  00060	8d 81 48 01 00
	00		 lea	 eax, DWORD PTR [ecx+328]
  00066	eb f2		 jmp	 SHORT $LN7@GetRegular@4
_TEXT	ENDS
;	COMDAT text$x
text$x	SEGMENT
__unwindfunclet$?GetRegularDisableTournamentMent@ioTournamentManager@@QAEABVioHashString@@XZ$0:
  00000	a1 00 00 00 00	 mov	 eax, DWORD PTR ?$S1@?1??GetRegularDisableTournamentMent@ioTournamentManager@@QAEABVioHashString@@XZ@4IA
  00005	83 e0 fe	 and	 eax, -2			; fffffffeH
  00008	a3 00 00 00 00	 mov	 DWORD PTR ?$S1@?1??GetRegularDisableTournamentMent@ioTournamentManager@@QAEABVioHashString@@XZ@4IA, eax
  0000d	c3		 ret	 0
__ehhandler$?GetRegularDisableTournamentMent@ioTournamentManager@@QAEABVioHashString@@XZ:
  0000e	8b 54 24 08	 mov	 edx, DWORD PTR [esp+8]
  00012	8d 42 0c	 lea	 eax, DWORD PTR [edx+12]
  00015	8b 4a f0	 mov	 ecx, DWORD PTR [edx-16]
  00018	33 c8		 xor	 ecx, eax
  0001a	e8 00 00 00 00	 call	 @__security_check_cookie@4
  0001f	b8 00 00 00 00	 mov	 eax, OFFSET __ehfuncinfo$?GetRegularDisableTournamentMent@ioTournamentManager@@QAEABVioHashString@@XZ
  00024	e9 00 00 00 00	 jmp	 ___CxxFrameHandler3
text$x	ENDS
?GetRegularDisableTournamentMent@ioTournamentManager@@QAEABVioHashString@@XZ ENDP ; ioTournamentManager::GetRegularDisableTournamentMent
PUBLIC	?GetTournament@ioTournamentManager@@QAEPAVTournamentNode@@K_N@Z ; ioTournamentManager::GetTournament
EXTRN	?SendCustomRewardDataSync@TournamentNode@@QAEXXZ:PROC ; TournamentNode::SendCustomRewardDataSync
EXTRN	?IsCustomRewardDataSync@TournamentNode@@QAE_NXZ:PROC ; TournamentNode::IsCustomRewardDataSync
EXTRN	?SendDataSync@TournamentNode@@QAEXXZ:PROC	; TournamentNode::SendDataSync
EXTRN	?IsDataSync@TournamentNode@@QAE_NXZ:PROC	; TournamentNode::IsDataSync
; Function compile flags: /Ogsp
;	COMDAT ?GetTournament@ioTournamentManager@@QAEPAVTournamentNode@@K_N@Z
_TEXT	SEGMENT
_dwIndex$ = 8						; size = 4
_bDataSyncCheck$ = 12					; size = 1
?GetTournament@ioTournamentManager@@QAEPAVTournamentNode@@K_N@Z PROC ; ioTournamentManager::GetTournament, COMDAT
; _this$ = ecx

; 280  : {

  00000	55		 push	 ebp
  00001	8b ec		 mov	 ebp, esp

; 281  : 	if( dwIndex == 0 ) return NULL;

  00003	8b 55 08	 mov	 edx, DWORD PTR _dwIndex$[ebp]
  00006	85 d2		 test	 edx, edx
  00008	75 04		 jne	 SHORT $LN9@GetTournam
  0000a	33 c0		 xor	 eax, eax
  0000c	eb 1e		 jmp	 SHORT $LN10@GetTournam
$LN9@GetTournam:

; 282  : 
; 283  : 	TournamentVec::iterator iter = m_TournamentList.begin();

  0000e	8b 41 04	 mov	 eax, DWORD PTR [ecx+4]

; 284  : 	for(;iter != m_TournamentList.end();++iter)

  00011	8b 49 08	 mov	 ecx, DWORD PTR [ecx+8]
  00014	56		 push	 esi
  00015	eb 0e		 jmp	 SHORT $LN48@GetTournam
$LL22@GetTournam:

; 285  : 	{
; 286  : 		TournamentNode *pTournament = *iter;

  00017	8b 30		 mov	 esi, DWORD PTR [eax]

; 287  : 		if( pTournament )

  00019	85 f6		 test	 esi, esi
  0001b	74 05		 je	 SHORT $LN7@GetTournam

; 288  : 		{
; 289  : 			if( pTournament->GetIndex() == dwIndex )

  0001d	39 56 04	 cmp	 DWORD PTR [esi+4], edx
  00020	74 0e		 je	 SHORT $LN45@GetTournam
$LN7@GetTournam:

; 284  : 	for(;iter != m_TournamentList.end();++iter)

  00022	83 c0 04	 add	 eax, 4
$LN48@GetTournam:
  00025	3b c1		 cmp	 eax, ecx
  00027	75 ee		 jne	 SHORT $LL22@GetTournam

; 299  : 			}
; 300  : 		}
; 301  : 	}
; 302  : 	return NULL;

  00029	33 c0		 xor	 eax, eax
$LN47@GetTournam:
  0002b	5e		 pop	 esi
$LN10@GetTournam:

; 303  : }

  0002c	5d		 pop	 ebp
  0002d	c2 08 00	 ret	 8
$LN45@GetTournam:

; 290  : 			{
; 291  : 				if( bDataSyncCheck )

  00030	80 7d 0c 00	 cmp	 BYTE PTR _bDataSyncCheck$[ebp], 0
  00034	74 24		 je	 SHORT $LN1@GetTournam

; 292  : 				{
; 293  : 					if( !pTournament->IsDataSync() )

  00036	8b ce		 mov	 ecx, esi
  00038	e8 00 00 00 00	 call	 ?IsDataSync@TournamentNode@@QAE_NXZ ; TournamentNode::IsDataSync
  0003d	84 c0		 test	 al, al
  0003f	75 07		 jne	 SHORT $LN2@GetTournam

; 294  : 						pTournament->SendDataSync();

  00041	8b ce		 mov	 ecx, esi
  00043	e8 00 00 00 00	 call	 ?SendDataSync@TournamentNode@@QAEXXZ ; TournamentNode::SendDataSync
$LN2@GetTournam:

; 295  : 					if( !pTournament->IsCustomRewardDataSync() )

  00048	8b ce		 mov	 ecx, esi
  0004a	e8 00 00 00 00	 call	 ?IsCustomRewardDataSync@TournamentNode@@QAE_NXZ ; TournamentNode::IsCustomRewardDataSync
  0004f	84 c0		 test	 al, al
  00051	75 07		 jne	 SHORT $LN1@GetTournam

; 296  : 						pTournament->SendCustomRewardDataSync();

  00053	8b ce		 mov	 ecx, esi
  00055	e8 00 00 00 00	 call	 ?SendCustomRewardDataSync@TournamentNode@@QAEXXZ ; TournamentNode::SendCustomRewardDataSync
$LN1@GetTournam:

; 297  : 				}
; 298  : 				return pTournament;

  0005a	8b c6		 mov	 eax, esi
  0005c	eb cd		 jmp	 SHORT $LN47@GetTournam
?GetTournament@ioTournamentManager@@QAEPAVTournamentNode@@K_N@Z ENDP ; ioTournamentManager::GetTournament
_TEXT	ENDS
PUBLIC	__$ArrayPad$
PUBLIC	?CheckRegularTournaemntRequest@ioTournamentManager@@QAEXXZ ; ioTournamentManager::CheckRegularTournaemntRequest
EXTRN	??1SP2Packet@@UAE@XZ:PROC			; SP2Packet::~SP2Packet
EXTRN	?SendToServer@TCPNetwork@@YAXAAVSP2Packet@@@Z:PROC ; TCPNetwork::SendToServer
EXTRN	??0SP2Packet@@QAE@K@Z:PROC			; SP2Packet::SP2Packet
EXTRN	___security_cookie:DWORD
EXTRN	__chkstk:PROC
;	COMDAT xdata$x
; File d:\lost saga for developer\youtube\tutorial\source\src\io3dengine\iosingleton.h
xdata$x	SEGMENT
__unwindtable$?CheckRegularTournaemntRequest@ioTournamentManager@@QAEXXZ DD 0ffffffffH
	DD	FLAT:__unwindfunclet$?CheckRegularTournaemntRequest@ioTournamentManager@@QAEXXZ$0
__ehfuncinfo$?CheckRegularTournaemntRequest@ioTournamentManager@@QAEXXZ DD 019930522H
	DD	01H
	DD	FLAT:__unwindtable$?CheckRegularTournaemntRequest@ioTournamentManager@@QAEXXZ
	DD	2 DUP(00H)
	DD	2 DUP(00H)
	DD	00H
	DD	01H
; Function compile flags: /Ogsp
; File d:\lost saga for developer\youtube\tutorial\source\src\lsclient\iotournamentmanager.cpp
xdata$x	ENDS
;	COMDAT ?CheckRegularTournaemntRequest@ioTournamentManager@@QAEXXZ
_TEXT	SEGMENT
_kPacket$510858 = -32808				; size = 32792
__$ArrayPad$ = -16					; size = 4
__$EHRec$ = -12						; size = 12
?CheckRegularTournaemntRequest@ioTournamentManager@@QAEXXZ PROC ; ioTournamentManager::CheckRegularTournaemntRequest, COMDAT
; _this$ = ecx

; 315  : {

  00000	55		 push	 ebp
  00001	8b ec		 mov	 ebp, esp
  00003	6a ff		 push	 -1
  00005	68 00 00 00 00	 push	 __ehhandler$?CheckRegularTournaemntRequest@ioTournamentManager@@QAEXXZ
  0000a	64 a1 00 00 00
	00		 mov	 eax, DWORD PTR fs:0
  00010	50		 push	 eax
  00011	b8 1c 80 00 00	 mov	 eax, 32796		; 0000801cH
  00016	e8 00 00 00 00	 call	 __chkstk
  0001b	a1 00 00 00 00	 mov	 eax, DWORD PTR ___security_cookie
  00020	33 c5		 xor	 eax, ebp
  00022	89 45 f0	 mov	 DWORD PTR __$ArrayPad$[ebp], eax
  00025	56		 push	 esi
  00026	50		 push	 eax
  00027	8d 45 f4	 lea	 eax, DWORD PTR __$EHRec$[ebp]
  0002a	64 a3 00 00 00
	00		 mov	 DWORD PTR fs:0, eax
  00030	8b f1		 mov	 esi, ecx

; 316  : 	//     
; 317  : 	if( m_dwRegularTourRequestTime == 0 )

  00032	83 7e 18 00	 cmp	 DWORD PTR [esi+24], 0
  00036	75 52		 jne	 SHORT $LN4@CheckRegul

; 318  : 	{
; 319  : 		m_dwRegularTourRequestTime = FRAMEGETTIME();

  00038	ff 15 00 00 00
	00		 call	 DWORD PTR __imp_?GetSingleton@ioFrameTimer@@SAAAV1@XZ
  0003e	8b c8		 mov	 ecx, eax
  00040	ff 15 00 00 00
	00		 call	 DWORD PTR __imp_?GetLoopSec@ioFrameTimer@@QBEKXZ
  00046	89 46 18	 mov	 DWORD PTR [esi+24], eax

; 320  : 		if( g_TournamentMgr.GetRegularIndex() == 0 )

  00049	8b 0d 00 00 00
	00		 mov	 ecx, DWORD PTR ?ms_Singleton@?$Singleton@VioTournamentManager@@@@1PAVioTournamentManager@@A ; Singleton<ioTournamentManager>::ms_Singleton
  0004f	e8 00 00 00 00	 call	 ?GetRegularIndex@ioTournamentManager@@QAEKXZ ; ioTournamentManager::GetRegularIndex
  00054	85 c0		 test	 eax, eax
  00056	75 51		 jne	 SHORT $LN1@CheckRegul

; 321  : 		{
; 322  : 			SP2Packet kPacket( CTPK_TOURNAMENT_REQUEST );

  00058	68 33 03 00 00	 push	 819			; 00000333H
  0005d	8d 8d d8 7f ff
	ff		 lea	 ecx, DWORD PTR _kPacket$510858[ebp]
  00063	e8 00 00 00 00	 call	 ??0SP2Packet@@QAE@K@Z	; SP2Packet::SP2Packet
  00068	83 65 fc 00	 and	 DWORD PTR __$EHRec$[ebp+8], 0

; 323  : 			TCPNetwork::SendToServer( kPacket );

  0006c	8d 85 d8 7f ff
	ff		 lea	 eax, DWORD PTR _kPacket$510858[ebp]
  00072	50		 push	 eax
  00073	e8 00 00 00 00	 call	 ?SendToServer@TCPNetwork@@YAXAAVSP2Packet@@@Z ; TCPNetwork::SendToServer

; 324  : 		}

  00078	83 4d fc ff	 or	 DWORD PTR __$EHRec$[ebp+8], -1
  0007c	59		 pop	 ecx
  0007d	8d 8d d8 7f ff
	ff		 lea	 ecx, DWORD PTR _kPacket$510858[ebp]
  00083	e8 00 00 00 00	 call	 ??1SP2Packet@@UAE@XZ	; SP2Packet::~SP2Packet

; 325  : 	}

  00088	eb 1f		 jmp	 SHORT $LN1@CheckRegul
$LN4@CheckRegul:

; 326  : 	else if( m_dwRegularTourRequestTime + 60000 < FRAMEGETTIME() )

  0008a	ff 15 00 00 00
	00		 call	 DWORD PTR __imp_?GetSingleton@ioFrameTimer@@SAAAV1@XZ
  00090	8b c8		 mov	 ecx, eax
  00092	ff 15 00 00 00
	00		 call	 DWORD PTR __imp_?GetLoopSec@ioFrameTimer@@QBEKXZ
  00098	8b 4e 18	 mov	 ecx, DWORD PTR [esi+24]
  0009b	81 c1 60 ea 00
	00		 add	 ecx, 60000		; 0000ea60H
  000a1	3b c8		 cmp	 ecx, eax
  000a3	73 04		 jae	 SHORT $LN1@CheckRegul

; 327  : 	{
; 328  : 		m_dwRegularTourRequestTime = 0;

  000a5	83 66 18 00	 and	 DWORD PTR [esi+24], 0
$LN1@CheckRegul:

; 329  : 	}
; 330  : }

  000a9	8b 4d f4	 mov	 ecx, DWORD PTR __$EHRec$[ebp]
  000ac	64 89 0d 00 00
	00 00		 mov	 DWORD PTR fs:0, ecx
  000b3	59		 pop	 ecx
  000b4	5e		 pop	 esi
  000b5	8b 4d f0	 mov	 ecx, DWORD PTR __$ArrayPad$[ebp]
  000b8	33 cd		 xor	 ecx, ebp
  000ba	e8 00 00 00 00	 call	 @__security_check_cookie@4
  000bf	c9		 leave
  000c0	c3		 ret	 0
_TEXT	ENDS
;	COMDAT text$x
text$x	SEGMENT
__unwindfunclet$?CheckRegularTournaemntRequest@ioTournamentManager@@QAEXXZ$0:
  00000	8d 8d d8 7f ff
	ff		 lea	 ecx, DWORD PTR _kPacket$510858[ebp]
  00006	e9 00 00 00 00	 jmp	 ??1SP2Packet@@UAE@XZ	; SP2Packet::~SP2Packet
__ehhandler$?CheckRegularTournaemntRequest@ioTournamentManager@@QAEXXZ:
  0000b	8b 54 24 08	 mov	 edx, DWORD PTR [esp+8]
  0000f	8d 42 0c	 lea	 eax, DWORD PTR [edx+12]
  00012	8b 8a dc 7f ff
	ff		 mov	 ecx, DWORD PTR [edx-32804]
  00018	33 c8		 xor	 ecx, eax
  0001a	e8 00 00 00 00	 call	 @__security_check_cookie@4
  0001f	8b 4a fc	 mov	 ecx, DWORD PTR [edx-4]
  00022	33 c8		 xor	 ecx, eax
  00024	e8 00 00 00 00	 call	 @__security_check_cookie@4
  00029	b8 00 00 00 00	 mov	 eax, OFFSET __ehfuncinfo$?CheckRegularTournaemntRequest@ioTournamentManager@@QAEXXZ
  0002e	e9 00 00 00 00	 jmp	 ___CxxFrameHandler3
text$x	ENDS
?CheckRegularTournaemntRequest@ioTournamentManager@@QAEXXZ ENDP ; ioTournamentManager::CheckRegularTournaemntRequest
PUBLIC	??1?$vector@PAVTournamentNode@@V?$allocator@PAVTournamentNode@@@std@@@std@@QAE@XZ ; std::vector<TournamentNode *,std::allocator<TournamentNode *> >::~vector<TournamentNode *,std::allocator<TournamentNode *> >
; Function compile flags: /Ogsp
; File c:\program files (x86)\microsoft visual studio 10.0\vc\include\vector
;	COMDAT ??1?$vector@PAVTournamentNode@@V?$allocator@PAVTournamentNode@@@std@@@std@@QAE@XZ
_TEXT	SEGMENT
??1?$vector@PAVTournamentNode@@V?$allocator@PAVTournamentNode@@@std@@@std@@QAE@XZ PROC ; std::vector<TournamentNode *,std::allocator<TournamentNode *> >::~vector<TournamentNode *,std::allocator<TournamentNode *> >, COMDAT
; _this$ = ecx

; 705  : 		_Tidy();

  00000	e9 00 00 00 00	 jmp	 ?_Tidy@?$vector@PAVTournamentNode@@V?$allocator@PAVTournamentNode@@@std@@@std@@IAEXXZ ; std::vector<TournamentNode *,std::allocator<TournamentNode *> >::_Tidy
??1?$vector@PAVTournamentNode@@V?$allocator@PAVTournamentNode@@@std@@@std@@QAE@XZ ENDP ; std::vector<TournamentNode *,std::allocator<TournamentNode *> >::~vector<TournamentNode *,std::allocator<TournamentNode *> >
_TEXT	ENDS
PUBLIC	?clear@?$vector@PAVTournamentNode@@V?$allocator@PAVTournamentNode@@@std@@@std@@QAEXXZ ; std::vector<TournamentNode *,std::allocator<TournamentNode *> >::clear
; Function compile flags: /Ogsp
;	COMDAT ?clear@?$vector@PAVTournamentNode@@V?$allocator@PAVTournamentNode@@@std@@@std@@QAEXXZ
_TEXT	SEGMENT
$T513405 = -4						; size = 4
?clear@?$vector@PAVTournamentNode@@V?$allocator@PAVTournamentNode@@@std@@@std@@QAEXXZ PROC ; std::vector<TournamentNode *,std::allocator<TournamentNode *> >::clear, COMDAT
; _this$ = ecx

; 1217 : 		{	// erase all

  00000	55		 push	 ebp
  00001	8b ec		 mov	 ebp, esp
  00003	51		 push	 ecx

; 1218 : 		erase(begin(), end());

  00004	8b 41 04	 mov	 eax, DWORD PTR [ecx+4]
  00007	8b 11		 mov	 edx, DWORD PTR [ecx]
  00009	50		 push	 eax
  0000a	52		 push	 edx
  0000b	8d 45 fc	 lea	 eax, DWORD PTR $T513405[ebp]
  0000e	50		 push	 eax
  0000f	e8 00 00 00 00	 call	 ?erase@?$vector@PAVTournamentNode@@V?$allocator@PAVTournamentNode@@@std@@@std@@QAE?AV?$_Vector_iterator@V?$_Vector_val@PAVTournamentNode@@V?$allocator@PAVTournamentNode@@@std@@@std@@@2@V?$_Vector_const_iterator@V?$_Vector_val@PAVTournamentNode@@V?$allocator@PAVTournamentNode@@@std@@@std@@@2@0@Z ; std::vector<TournamentNode *,std::allocator<TournamentNode *> >::erase

; 1219 : 		}

  00014	c9		 leave
  00015	c3		 ret	 0
?clear@?$vector@PAVTournamentNode@@V?$allocator@PAVTournamentNode@@@std@@@std@@QAEXXZ ENDP ; std::vector<TournamentNode *,std::allocator<TournamentNode *> >::clear
_TEXT	ENDS
PUBLIC	?_Reserve@?$vector@PAVTournamentNode@@V?$allocator@PAVTournamentNode@@@std@@@std@@IAEXI@Z ; std::vector<TournamentNode *,std::allocator<TournamentNode *> >::_Reserve
; Function compile flags: /Ogsp
;	COMDAT ?_Reserve@?$vector@PAVTournamentNode@@V?$allocator@PAVTournamentNode@@@std@@@std@@IAEXI@Z
_TEXT	SEGMENT
__Count$ = 8						; size = 4
?_Reserve@?$vector@PAVTournamentNode@@V?$allocator@PAVTournamentNode@@@std@@@std@@IAEXI@Z PROC ; std::vector<TournamentNode *,std::allocator<TournamentNode *> >::_Reserve, COMDAT
; _this$ = ecx

; 1290 : 		{	// ensure room for _Count new elements, grow exponentially

  00000	55		 push	 ebp
  00001	8b ec		 mov	 ebp, esp
  00003	56		 push	 esi
  00004	8b f1		 mov	 esi, ecx

; 1291 : 		size_type _Size = size();

  00006	8b 0e		 mov	 ecx, DWORD PTR [esi]
  00008	8b 46 04	 mov	 eax, DWORD PTR [esi+4]
  0000b	2b c1		 sub	 eax, ecx

; 1292 : 		if (max_size() - _Count < _Size)

  0000d	ba ff ff ff 3f	 mov	 edx, 1073741823		; 3fffffffH
  00012	2b 55 08	 sub	 edx, DWORD PTR __Count$[ebp]
  00015	c1 f8 02	 sar	 eax, 2
  00018	3b d0		 cmp	 edx, eax
  0001a	73 0b		 jae	 SHORT $LN4@Reserve

; 1293 : 			_Xlen();

  0001c	68 00 00 00 00	 push	 OFFSET ??_C@_0BD@OLBABOEK@vector?$DMT?$DO?5too?5long?$AA@
  00021	ff 15 00 00 00
	00		 call	 DWORD PTR __imp_?_Xlength_error@std@@YAXPBD@Z
$LN21@Reserve:
$LN4@Reserve:

; 1294 : 		else if ((_Size += _Count) <= capacity())

  00027	8b 56 08	 mov	 edx, DWORD PTR [esi+8]
  0002a	03 45 08	 add	 eax, DWORD PTR __Count$[ebp]
  0002d	2b d1		 sub	 edx, ecx
  0002f	c1 fa 02	 sar	 edx, 2
  00032	3b c2		 cmp	 eax, edx
  00034	76 10		 jbe	 SHORT $LN1@Reserve

; 1295 : 			;
; 1296 : 		else
; 1297 : 			reserve(_Grow_to(_Size));

  00036	50		 push	 eax
  00037	8b ce		 mov	 ecx, esi
  00039	e8 00 00 00 00	 call	 ?_Grow_to@?$vector@PAVTournamentNode@@V?$allocator@PAVTournamentNode@@@std@@@std@@IBEII@Z ; std::vector<TournamentNode *,std::allocator<TournamentNode *> >::_Grow_to
  0003e	50		 push	 eax
  0003f	8b ce		 mov	 ecx, esi
  00041	e8 00 00 00 00	 call	 ?reserve@?$vector@PAVTournamentNode@@V?$allocator@PAVTournamentNode@@@std@@@std@@QAEXI@Z ; std::vector<TournamentNode *,std::allocator<TournamentNode *> >::reserve
$LN1@Reserve:
  00046	5e		 pop	 esi

; 1298 : 		}

  00047	5d		 pop	 ebp
  00048	c2 04 00	 ret	 4
$LN20@Reserve:
?_Reserve@?$vector@PAVTournamentNode@@V?$allocator@PAVTournamentNode@@@std@@@std@@IAEXI@Z ENDP ; std::vector<TournamentNode *,std::allocator<TournamentNode *> >::_Reserve
_TEXT	ENDS
PUBLIC	??_7ioTournamentManager@@6B@			; ioTournamentManager::`vftable'
PUBLIC	??0ioTournamentManager@@QAE@XZ			; ioTournamentManager::ioTournamentManager
PUBLIC	??_R4ioTournamentManager@@6B@			; ioTournamentManager::`RTTI Complete Object Locator'
PUBLIC	??_R0?AVioTournamentManager@@@8			; ioTournamentManager `RTTI Type Descriptor'
PUBLIC	??_R3ioTournamentManager@@8			; ioTournamentManager::`RTTI Class Hierarchy Descriptor'
PUBLIC	??_R2ioTournamentManager@@8			; ioTournamentManager::`RTTI Base Class Array'
PUBLIC	??_R1A@?0A@EA@ioTournamentManager@@8		; ioTournamentManager::`RTTI Base Class Descriptor at (0,-1,0,64)'
PUBLIC	??_R13?0A@EA@?$Singleton@VioTournamentManager@@@@8 ; Singleton<ioTournamentManager>::`RTTI Base Class Descriptor at (4,-1,0,64)'
PUBLIC	??_R0?AV?$Singleton@VioTournamentManager@@@@@8	; Singleton<ioTournamentManager> `RTTI Type Descriptor'
PUBLIC	??_R3?$Singleton@VioTournamentManager@@@@8	; Singleton<ioTournamentManager>::`RTTI Class Hierarchy Descriptor'
PUBLIC	??_R2?$Singleton@VioTournamentManager@@@@8	; Singleton<ioTournamentManager>::`RTTI Base Class Array'
PUBLIC	??_R1A@?0A@EA@?$Singleton@VioTournamentManager@@@@8 ; Singleton<ioTournamentManager>::`RTTI Base Class Descriptor at (0,-1,0,64)'
EXTRN	??_EioTournamentManager@@UAEPAXI@Z:PROC		; ioTournamentManager::`vector deleting destructor'
;	COMDAT ??_R1A@?0A@EA@?$Singleton@VioTournamentManager@@@@8
; File c:\program files (x86)\microsoft visual studio 10.0\vc\include\xmemory
rdata$r	SEGMENT
??_R1A@?0A@EA@?$Singleton@VioTournamentManager@@@@8 DD FLAT:??_R0?AV?$Singleton@VioTournamentManager@@@@@8 ; Singleton<ioTournamentManager>::`RTTI Base Class Descriptor at (0,-1,0,64)'
	DD	00H
	DD	00H
	DD	0ffffffffH
	DD	00H
	DD	040H
	DD	FLAT:??_R3?$Singleton@VioTournamentManager@@@@8
rdata$r	ENDS
;	COMDAT ??_R2?$Singleton@VioTournamentManager@@@@8
rdata$r	SEGMENT
??_R2?$Singleton@VioTournamentManager@@@@8 DD FLAT:??_R1A@?0A@EA@?$Singleton@VioTournamentManager@@@@8 ; Singleton<ioTournamentManager>::`RTTI Base Class Array'
rdata$r	ENDS
;	COMDAT ??_R3?$Singleton@VioTournamentManager@@@@8
rdata$r	SEGMENT
??_R3?$Singleton@VioTournamentManager@@@@8 DD 00H	; Singleton<ioTournamentManager>::`RTTI Class Hierarchy Descriptor'
	DD	00H
	DD	01H
	DD	FLAT:??_R2?$Singleton@VioTournamentManager@@@@8
rdata$r	ENDS
;	COMDAT ??_R0?AV?$Singleton@VioTournamentManager@@@@@8
_DATA	SEGMENT
??_R0?AV?$Singleton@VioTournamentManager@@@@@8 DD FLAT:??_7type_info@@6B@ ; Singleton<ioTournamentManager> `RTTI Type Descriptor'
	DD	00H
	DB	'.?AV?$Singleton@VioTournamentManager@@@@', 00H
_DATA	ENDS
;	COMDAT ??_R13?0A@EA@?$Singleton@VioTournamentManager@@@@8
rdata$r	SEGMENT
??_R13?0A@EA@?$Singleton@VioTournamentManager@@@@8 DD FLAT:??_R0?AV?$Singleton@VioTournamentManager@@@@@8 ; Singleton<ioTournamentManager>::`RTTI Base Class Descriptor at (4,-1,0,64)'
	DD	00H
	DD	04H
	DD	0ffffffffH
	DD	00H
	DD	040H
	DD	FLAT:??_R3?$Singleton@VioTournamentManager@@@@8
rdata$r	ENDS
;	COMDAT ??_R1A@?0A@EA@ioTournamentManager@@8
rdata$r	SEGMENT
??_R1A@?0A@EA@ioTournamentManager@@8 DD FLAT:??_R0?AVioTournamentManager@@@8 ; ioTournamentManager::`RTTI Base Class Descriptor at (0,-1,0,64)'
	DD	01H
	DD	00H
	DD	0ffffffffH
	DD	00H
	DD	040H
	DD	FLAT:??_R3ioTournamentManager@@8
rdata$r	ENDS
;	COMDAT ??_R2ioTournamentManager@@8
rdata$r	SEGMENT
??_R2ioTournamentManager@@8 DD FLAT:??_R1A@?0A@EA@ioTournamentManager@@8 ; ioTournamentManager::`RTTI Base Class Array'
	DD	FLAT:??_R13?0A@EA@?$Singleton@VioTournamentManager@@@@8
rdata$r	ENDS
;	COMDAT ??_R3ioTournamentManager@@8
rdata$r	SEGMENT
??_R3ioTournamentManager@@8 DD 00H			; ioTournamentManager::`RTTI Class Hierarchy Descriptor'
	DD	00H
	DD	02H
	DD	FLAT:??_R2ioTournamentManager@@8
rdata$r	ENDS
;	COMDAT ??_R0?AVioTournamentManager@@@8
_DATA	SEGMENT
??_R0?AVioTournamentManager@@@8 DD FLAT:??_7type_info@@6B@ ; ioTournamentManager `RTTI Type Descriptor'
	DD	00H
	DB	'.?AVioTournamentManager@@', 00H
_DATA	ENDS
;	COMDAT ??_R4ioTournamentManager@@6B@
rdata$r	SEGMENT
??_R4ioTournamentManager@@6B@ DD 00H			; ioTournamentManager::`RTTI Complete Object Locator'
	DD	00H
	DD	00H
	DD	FLAT:??_R0?AVioTournamentManager@@@8
	DD	FLAT:??_R3ioTournamentManager@@8
rdata$r	ENDS
;	COMDAT ??_7ioTournamentManager@@6B@
CONST	SEGMENT
??_7ioTournamentManager@@6B@ DD FLAT:??_R4ioTournamentManager@@6B@ ; ioTournamentManager::`vftable'
	DD	FLAT:??_EioTournamentManager@@UAEPAXI@Z
; Function compile flags: /Ogsp
; File d:\lost saga for developer\youtube\tutorial\source\src\lsclient\iotournamentmanager.cpp
CONST	ENDS
;	COMDAT ??0ioTournamentManager@@QAE@XZ
_TEXT	SEGMENT
??0ioTournamentManager@@QAE@XZ PROC			; ioTournamentManager::ioTournamentManager, COMDAT
; _this$ = ecx

; 11   : {

  00000	8b c1		 mov	 eax, ecx
  00002	a3 00 00 00 00	 mov	 DWORD PTR ?ms_Singleton@?$Singleton@VioTournamentManager@@@@1PAVioTournamentManager@@A, eax ; Singleton<ioTournamentManager>::ms_Singleton
  00007	33 c9		 xor	 ecx, ecx
  00009	c7 00 00 00 00
	00		 mov	 DWORD PTR [eax], OFFSET ??_7ioTournamentManager@@6B@
  0000f	89 48 04	 mov	 DWORD PTR [eax+4], ecx
  00012	89 48 08	 mov	 DWORD PTR [eax+8], ecx
  00015	89 48 0c	 mov	 DWORD PTR [eax+12], ecx

; 12   : 	m_dwRegularTeamCreateUITimer	= 0;

  00018	89 48 14	 mov	 DWORD PTR [eax+20], ecx

; 13   : 	m_dwRegularTourRequestTime		= 0;

  0001b	89 48 18	 mov	 DWORD PTR [eax+24], ecx

; 14   : }

  0001e	c3		 ret	 0
??0ioTournamentManager@@QAE@XZ ENDP			; ioTournamentManager::ioTournamentManager
_TEXT	ENDS
PUBLIC	??1ioTournamentManager@@UAE@XZ			; ioTournamentManager::~ioTournamentManager
;	COMDAT xdata$x
; File d:\lost saga for developer\youtube\tutorial\source\src\io3dengine\iosingleton.h
xdata$x	SEGMENT
__unwindtable$??1ioTournamentManager@@UAE@XZ DD 0ffffffffH
	DD	FLAT:__unwindfunclet$??1ioTournamentManager@@UAE@XZ$0
	DD	00H
	DD	FLAT:__unwindfunclet$??1ioTournamentManager@@UAE@XZ$1
__ehfuncinfo$??1ioTournamentManager@@UAE@XZ DD 019930522H
	DD	02H
	DD	FLAT:__unwindtable$??1ioTournamentManager@@UAE@XZ
	DD	2 DUP(00H)
	DD	2 DUP(00H)
	DD	00H
	DD	01H
; Function compile flags: /Ogsp
; File d:\lost saga for developer\youtube\tutorial\source\src\lsclient\iotournamentmanager.cpp
xdata$x	ENDS
;	COMDAT ??1ioTournamentManager@@UAE@XZ
_TEXT	SEGMENT
$T513692 = -20						; size = 4
_this$ = -16						; size = 4
__$EHRec$ = -12						; size = 12
??1ioTournamentManager@@UAE@XZ PROC			; ioTournamentManager::~ioTournamentManager, COMDAT
; _this$ = ecx

; 17   : {

  00000	6a 08		 push	 8
  00002	b8 00 00 00 00	 mov	 eax, __ehhandler$??1ioTournamentManager@@UAE@XZ
  00007	e8 00 00 00 00	 call	 __EH_prolog3
  0000c	8b f1		 mov	 esi, ecx
  0000e	89 75 f0	 mov	 DWORD PTR _this$[ebp], esi
  00011	c7 06 00 00 00
	00		 mov	 DWORD PTR [esi], OFFSET ??_7ioTournamentManager@@6B@

; 18   : 	TournamentVec::iterator iter = m_TournamentList.begin();

  00017	8b 5e 04	 mov	 ebx, DWORD PTR [esi+4]
  0001a	c7 45 fc 01 00
	00 00		 mov	 DWORD PTR __$EHRec$[ebp+8], 1
  00021	eb 12		 jmp	 SHORT $LN77@ioTourname

; 19   : 	for( ;iter != m_TournamentList.end();++iter )

$LN21@ioTourname:

; 20   : 	{
; 21   : 		SAFEDELETE( *iter );

  00023	8b 0b		 mov	 ecx, DWORD PTR [ebx]
  00025	85 c9		 test	 ecx, ecx
  00027	74 09		 je	 SHORT $LN3@ioTourname
  00029	8b 01		 mov	 eax, DWORD PTR [ecx]
  0002b	6a 01		 push	 1
  0002d	ff 10		 call	 DWORD PTR [eax]
  0002f	83 23 00	 and	 DWORD PTR [ebx], 0
$LN3@ioTourname:

; 19   : 	for( ;iter != m_TournamentList.end();++iter )

  00032	83 c3 04	 add	 ebx, 4
$LN77@ioTourname:
  00035	3b 5e 08	 cmp	 ebx, DWORD PTR [esi+8]
  00038	75 e9		 jne	 SHORT $LN21@ioTourname

; 22   : 	}
; 23   : 	m_TournamentList.clear();

  0003a	8b 46 08	 mov	 eax, DWORD PTR [esi+8]
  0003d	8b 4e 04	 mov	 ecx, DWORD PTR [esi+4]
  00040	50		 push	 eax
  00041	51		 push	 ecx
  00042	8d 45 ec	 lea	 eax, DWORD PTR $T513692[ebp]
  00045	50		 push	 eax
  00046	8d 4e 04	 lea	 ecx, DWORD PTR [esi+4]
  00049	e8 00 00 00 00	 call	 ?erase@?$vector@PAVTournamentNode@@V?$allocator@PAVTournamentNode@@@std@@@std@@QAE?AV?$_Vector_iterator@V?$_Vector_val@PAVTournamentNode@@V?$allocator@PAVTournamentNode@@@std@@@std@@@2@V?$_Vector_const_iterator@V?$_Vector_val@PAVTournamentNode@@V?$allocator@PAVTournamentNode@@@std@@@std@@@2@0@Z ; std::vector<TournamentNode *,std::allocator<TournamentNode *> >::erase

; 24   : }

  0004e	8d 4e 04	 lea	 ecx, DWORD PTR [esi+4]
  00051	c6 45 fc 00	 mov	 BYTE PTR __$EHRec$[ebp+8], 0
  00055	e8 00 00 00 00	 call	 ?_Tidy@?$vector@PAVTournamentNode@@V?$allocator@PAVTournamentNode@@@std@@@std@@IAEXXZ ; std::vector<TournamentNode *,std::allocator<TournamentNode *> >::_Tidy
  0005a	83 25 00 00 00
	00 00		 and	 DWORD PTR ?ms_Singleton@?$Singleton@VioTournamentManager@@@@1PAVioTournamentManager@@A, 0 ; Singleton<ioTournamentManager>::ms_Singleton
  00061	e8 00 00 00 00	 call	 __EH_epilog3
  00066	c3		 ret	 0
_TEXT	ENDS
;	COMDAT text$x
text$x	SEGMENT
__unwindfunclet$??1ioTournamentManager@@UAE@XZ$0:
  00000	8b 4d f0	 mov	 ecx, DWORD PTR _this$[ebp]
  00003	83 c1 04	 add	 ecx, 4
  00006	e9 00 00 00 00	 jmp	 ??1?$Singleton@VioTournamentManager@@@@QAE@XZ ; Singleton<ioTournamentManager>::~Singleton<ioTournamentManager>
__unwindfunclet$??1ioTournamentManager@@UAE@XZ$1:
  0000b	8b 4d f0	 mov	 ecx, DWORD PTR _this$[ebp]
  0000e	83 c1 04	 add	 ecx, 4
  00011	e9 00 00 00 00	 jmp	 ??1?$vector@PAVTournamentNode@@V?$allocator@PAVTournamentNode@@@std@@@std@@QAE@XZ ; std::vector<TournamentNode *,std::allocator<TournamentNode *> >::~vector<TournamentNode *,std::allocator<TournamentNode *> >
__ehhandler$??1ioTournamentManager@@UAE@XZ:
  00016	8b 54 24 08	 mov	 edx, DWORD PTR [esp+8]
  0001a	8d 42 0c	 lea	 eax, DWORD PTR [edx+12]
  0001d	8b 4a e8	 mov	 ecx, DWORD PTR [edx-24]
  00020	33 c8		 xor	 ecx, eax
  00022	e8 00 00 00 00	 call	 @__security_check_cookie@4
  00027	b8 00 00 00 00	 mov	 eax, OFFSET __ehfuncinfo$??1ioTournamentManager@@UAE@XZ
  0002c	e9 00 00 00 00	 jmp	 ___CxxFrameHandler3
text$x	ENDS
??1ioTournamentManager@@UAE@XZ ENDP			; ioTournamentManager::~ioTournamentManager
PUBLIC	?ApplyTournamentRoundTeamData@ioTournamentManager@@QAEXAAVSP2Packet@@@Z ; ioTournamentManager::ApplyTournamentRoundTeamData
EXTRN	?ApplyRoundTeamData@TournamentNode@@QAEXAAVSP2Packet@@@Z:PROC ; TournamentNode::ApplyRoundTeamData
; Function compile flags: /Ogsp
;	COMDAT ?ApplyTournamentRoundTeamData@ioTournamentManager@@QAEXAAVSP2Packet@@@Z
_TEXT	SEGMENT
_dwTourIndex$ = -4					; size = 4
_rkPacket$ = 8						; size = 4
?ApplyTournamentRoundTeamData@ioTournamentManager@@QAEXAAVSP2Packet@@@Z PROC ; ioTournamentManager::ApplyTournamentRoundTeamData, COMDAT
; _this$ = ecx

; 193  : {

  00000	55		 push	 ebp
  00001	8b ec		 mov	 ebp, esp
  00003	51		 push	 ecx
  00004	56		 push	 esi

; 194  : 	DWORD dwTourIndex;
; 195  : 	rkPacket >> dwTourIndex;

  00005	8d 45 fc	 lea	 eax, DWORD PTR _dwTourIndex$[ebp]
  00008	8b f1		 mov	 esi, ecx
  0000a	8b 4d 08	 mov	 ecx, DWORD PTR _rkPacket$[ebp]
  0000d	50		 push	 eax
  0000e	e8 00 00 00 00	 call	 ??5SP2Packet@@QAEAAV0@AAK@Z ; SP2Packet::operator>>

; 196  : 
; 197  : 	TournamentNode *pTournament = GetTournament( dwTourIndex );

  00013	6a 01		 push	 1
  00015	ff 75 fc	 push	 DWORD PTR _dwTourIndex$[ebp]
  00018	8b ce		 mov	 ecx, esi
  0001a	e8 00 00 00 00	 call	 ?GetTournament@ioTournamentManager@@QAEPAVTournamentNode@@K_N@Z ; ioTournamentManager::GetTournament
  0001f	5e		 pop	 esi

; 198  : 	if( pTournament == NULL ) return; //  

  00020	85 c0		 test	 eax, eax
  00022	74 0a		 je	 SHORT $LN2@ApplyTourn@3

; 199  : 
; 200  : 	pTournament->ApplyRoundTeamData( rkPacket );

  00024	ff 75 08	 push	 DWORD PTR _rkPacket$[ebp]
  00027	8b c8		 mov	 ecx, eax
  00029	e8 00 00 00 00	 call	 ?ApplyRoundTeamData@TournamentNode@@QAEXAAVSP2Packet@@@Z ; TournamentNode::ApplyRoundTeamData
$LN2@ApplyTourn@3:

; 201  : }

  0002e	c9		 leave
  0002f	c2 04 00	 ret	 4
?ApplyTournamentRoundTeamData@ioTournamentManager@@QAEXAAVSP2Packet@@@Z ENDP ; ioTournamentManager::ApplyTournamentRoundTeamData
_TEXT	ENDS
PUBLIC	?push_back@?$vector@PAVTournamentNode@@V?$allocator@PAVTournamentNode@@@std@@@std@@QAEXABQAVTournamentNode@@@Z ; std::vector<TournamentNode *,std::allocator<TournamentNode *> >::push_back
; Function compile flags: /Ogsp
; File c:\program files (x86)\microsoft visual studio 10.0\vc\include\vector
;	COMDAT ?push_back@?$vector@PAVTournamentNode@@V?$allocator@PAVTournamentNode@@@std@@@std@@QAEXABQAVTournamentNode@@@Z
_TEXT	SEGMENT
__Val$ = 8						; size = 4
?push_back@?$vector@PAVTournamentNode@@V?$allocator@PAVTournamentNode@@@std@@@std@@QAEXABQAVTournamentNode@@@Z PROC ; std::vector<TournamentNode *,std::allocator<TournamentNode *> >::push_back, COMDAT
; _this$ = ecx

; 976  : 		{	// insert element at end

  00000	55		 push	 ebp
  00001	8b ec		 mov	 ebp, esp
  00003	56		 push	 esi
  00004	8b f1		 mov	 esi, ecx

; 977  : 		if (_Inside(_STD addressof(_Val)))

  00006	8b 46 04	 mov	 eax, DWORD PTR [esi+4]
  00009	57		 push	 edi
  0000a	8b 7d 08	 mov	 edi, DWORD PTR __Val$[ebp]
  0000d	3b f8		 cmp	 edi, eax
  0000f	73 27		 jae	 SHORT $LN4@push_back
  00011	8b 0e		 mov	 ecx, DWORD PTR [esi]
  00013	3b cf		 cmp	 ecx, edi
  00015	77 21		 ja	 SHORT $LN4@push_back

; 978  : 			{	// push back an element
; 979  : 			size_type _Idx = _STD addressof(_Val) - this->_Myfirst;

  00017	2b f9		 sub	 edi, ecx
  00019	c1 ff 02	 sar	 edi, 2

; 980  : 			if (this->_Mylast == this->_Myend)

  0001c	3b 46 08	 cmp	 eax, DWORD PTR [esi+8]
  0001f	75 09		 jne	 SHORT $LN3@push_back

; 981  : 				_Reserve(1);

  00021	6a 01		 push	 1
  00023	8b ce		 mov	 ecx, esi
  00025	e8 00 00 00 00	 call	 ?_Reserve@?$vector@PAVTournamentNode@@V?$allocator@PAVTournamentNode@@@std@@@std@@IAEXI@Z ; std::vector<TournamentNode *,std::allocator<TournamentNode *> >::_Reserve
$LN3@push_back:

; 982  : 			_Orphan_range(this->_Mylast, this->_Mylast);
; 983  : 			_Cons_val(this->_Alval,
; 984  : 				this->_Mylast,
; 985  : 				this->_Myfirst[_Idx]);

  0002a	8b 46 04	 mov	 eax, DWORD PTR [esi+4]
  0002d	85 c0		 test	 eax, eax
  0002f	74 20		 je	 SHORT $LN39@push_back
  00031	8b 0e		 mov	 ecx, DWORD PTR [esi]
  00033	8b 0c b9	 mov	 ecx, DWORD PTR [ecx+edi*4]

; 986  : 			++this->_Mylast;
; 987  : 			}
; 988  : 		else

  00036	eb 17		 jmp	 SHORT $LN46@push_back
$LN4@push_back:

; 989  : 			{	// push back a non-element
; 990  : 			if (this->_Mylast == this->_Myend)

  00038	3b 46 08	 cmp	 eax, DWORD PTR [esi+8]
  0003b	75 09		 jne	 SHORT $LN1@push_back

; 991  : 				_Reserve(1);

  0003d	6a 01		 push	 1
  0003f	8b ce		 mov	 ecx, esi
  00041	e8 00 00 00 00	 call	 ?_Reserve@?$vector@PAVTournamentNode@@V?$allocator@PAVTournamentNode@@@std@@@std@@IAEXI@Z ; std::vector<TournamentNode *,std::allocator<TournamentNode *> >::_Reserve
$LN1@push_back:

; 992  : 			_Orphan_range(this->_Mylast, this->_Mylast);
; 993  : 			_Cons_val(this->_Alval,
; 994  : 				this->_Mylast,
; 995  : 				_Val);

  00046	8b 46 04	 mov	 eax, DWORD PTR [esi+4]
  00049	85 c0		 test	 eax, eax
  0004b	74 04		 je	 SHORT $LN39@push_back
  0004d	8b 0f		 mov	 ecx, DWORD PTR [edi]
$LN46@push_back:
  0004f	89 08		 mov	 DWORD PTR [eax], ecx
$LN39@push_back:

; 996  : 			++this->_Mylast;

  00051	83 46 04 04	 add	 DWORD PTR [esi+4], 4
  00055	5f		 pop	 edi
  00056	5e		 pop	 esi

; 997  : 			}
; 998  : 		}

  00057	5d		 pop	 ebp
  00058	c2 04 00	 ret	 4
?push_back@?$vector@PAVTournamentNode@@V?$allocator@PAVTournamentNode@@@std@@@std@@QAEXABQAVTournamentNode@@@Z ENDP ; std::vector<TournamentNode *,std::allocator<TournamentNode *> >::push_back
; Function compile flags: /Ogsp
_TEXT	ENDS
;	COMDAT ??_GioTournamentManager@@UAEPAXI@Z
_TEXT	SEGMENT
___flags$ = 8						; size = 4
??_GioTournamentManager@@UAEPAXI@Z PROC			; ioTournamentManager::`scalar deleting destructor', COMDAT
; _this$ = ecx
  00000	55		 push	 ebp
  00001	8b ec		 mov	 ebp, esp
  00003	56		 push	 esi
  00004	8b f1		 mov	 esi, ecx
  00006	e8 00 00 00 00	 call	 ??1ioTournamentManager@@UAE@XZ ; ioTournamentManager::~ioTournamentManager
  0000b	f6 45 08 01	 test	 BYTE PTR ___flags$[ebp], 1
  0000f	74 07		 je	 SHORT $LN1@scalar@2
  00011	56		 push	 esi
  00012	e8 00 00 00 00	 call	 ??3@YAXPAX@Z		; operator delete
  00017	59		 pop	 ecx
$LN1@scalar@2:
  00018	8b c6		 mov	 eax, esi
  0001a	5e		 pop	 esi
  0001b	5d		 pop	 ebp
  0001c	c2 04 00	 ret	 4
??_GioTournamentManager@@UAEPAXI@Z ENDP			; ioTournamentManager::`scalar deleting destructor'
_TEXT	ENDS
PUBLIC	?CreateTournamentRegular@ioTournamentManager@@QAEXKH@Z ; ioTournamentManager::CreateTournamentRegular
EXTRN	?SetReguralResourceType@TournamentNode@@QAEXH@Z:PROC ; TournamentNode::SetReguralResourceType
EXTRN	??0TournamentNode@@QAE@XZ:PROC			; TournamentNode::TournamentNode
;	COMDAT xdata$x
; File d:\lost saga for developer\youtube\tutorial\source\src\lsclient\tournamentnode.h
xdata$x	SEGMENT
__unwindtable$?CreateTournamentRegular@ioTournamentManager@@QAEXKH@Z DD 0ffffffffH
	DD	FLAT:__unwindfunclet$?CreateTournamentRegular@ioTournamentManager@@QAEXKH@Z$0
__ehfuncinfo$?CreateTournamentRegular@ioTournamentManager@@QAEXKH@Z DD 019930522H
	DD	01H
	DD	FLAT:__unwindtable$?CreateTournamentRegular@ioTournamentManager@@QAEXKH@Z
	DD	2 DUP(00H)
	DD	2 DUP(00H)
	DD	00H
	DD	01H
; Function compile flags: /Ogsp
; File d:\lost saga for developer\youtube\tutorial\source\src\lsclient\iotournamentmanager.cpp
xdata$x	ENDS
;	COMDAT ?CreateTournamentRegular@ioTournamentManager@@QAEXKH@Z
_TEXT	SEGMENT
__$EHRec$ = -12						; size = 12
$T513862 = 8						; size = 4
_pNewTournament$ = 8					; size = 4
_dwIndex$ = 8						; size = 4
_iRegularResourceType$ = 12				; size = 4
?CreateTournamentRegular@ioTournamentManager@@QAEXKH@Z PROC ; ioTournamentManager::CreateTournamentRegular, COMDAT
; _this$ = ecx

; 42   : {

  00000	6a 00		 push	 0
  00002	b8 00 00 00 00	 mov	 eax, __ehhandler$?CreateTournamentRegular@ioTournamentManager@@QAEXKH@Z
  00007	e8 00 00 00 00	 call	 __EH_prolog3

; 43   : 	TournamentVec::iterator iter = m_TournamentList.begin();
; 44   : 	for(;iter != m_TournamentList.end();++iter)

  0000c	8b 51 08	 mov	 edx, DWORD PTR [ecx+8]
  0000f	8b 5d 08	 mov	 ebx, DWORD PTR _dwIndex$[ebp]
  00012	8d 79 04	 lea	 edi, DWORD PTR [ecx+4]
  00015	8b 07		 mov	 eax, DWORD PTR [edi]
  00017	33 f6		 xor	 esi, esi
  00019	eb 0e		 jmp	 SHORT $LN53@CreateTour
$LL21@CreateTour:

; 45   : 	{
; 46   : 		TournamentNode *pTournament = *iter;

  0001b	8b 08		 mov	 ecx, DWORD PTR [eax]

; 47   : 		if( pTournament )

  0001d	3b ce		 cmp	 ecx, esi
  0001f	74 05		 je	 SHORT $LN4@CreateTour

; 48   : 		{
; 49   : 			if( pTournament->GetIndex() == dwIndex )

  00021	39 59 04	 cmp	 DWORD PTR [ecx+4], ebx
  00024	74 53		 je	 SHORT $LN50@CreateTour
$LN4@CreateTour:

; 43   : 	TournamentVec::iterator iter = m_TournamentList.begin();
; 44   : 	for(;iter != m_TournamentList.end();++iter)

  00026	83 c0 04	 add	 eax, 4
$LN53@CreateTour:
  00029	3b c2		 cmp	 eax, edx
  0002b	75 ee		 jne	 SHORT $LL21@CreateTour

; 55   : 			}
; 56   : 		}
; 57   : 	}
; 58   : 
; 59   : 	//  insert
; 60   : 	TournamentNode *pNewTournament = new TournamentNode;

  0002d	68 f4 01 00 00	 push	 500			; 000001f4H
  00032	e8 00 00 00 00	 call	 ??2@YAPAXI@Z		; operator new
  00037	59		 pop	 ecx
  00038	8b c8		 mov	 ecx, eax
  0003a	89 4d 08	 mov	 DWORD PTR $T513862[ebp], ecx
  0003d	89 75 fc	 mov	 DWORD PTR __$EHRec$[ebp+8], esi
  00040	3b ce		 cmp	 ecx, esi
  00042	74 07		 je	 SHORT $LN8@CreateTour
  00044	e8 00 00 00 00	 call	 ??0TournamentNode@@QAE@XZ ; TournamentNode::TournamentNode
  00049	8b f0		 mov	 esi, eax
$LN8@CreateTour:

; 61   : 	pNewTournament->SetIndex( dwIndex );
; 62   : 	pNewTournament->SetReguralResourceType( iRegularResourceType );

  0004b	ff 75 0c	 push	 DWORD PTR _iRegularResourceType$[ebp]
  0004e	83 4d fc ff	 or	 DWORD PTR __$EHRec$[ebp+8], -1
  00052	8b ce		 mov	 ecx, esi
  00054	89 75 08	 mov	 DWORD PTR _pNewTournament$[ebp], esi
  00057	89 5e 04	 mov	 DWORD PTR [esi+4], ebx
  0005a	e8 00 00 00 00	 call	 ?SetReguralResourceType@TournamentNode@@QAEXH@Z ; TournamentNode::SetReguralResourceType

; 63   : 	pNewTournament->SetType( TournamentNode::TYPE_REGULAR );
; 64   : 	m_TournamentList.push_back( pNewTournament );

  0005f	8d 45 08	 lea	 eax, DWORD PTR _pNewTournament$[ebp]
  00062	50		 push	 eax
  00063	8b cf		 mov	 ecx, edi
  00065	c6 86 a0 00 00
	00 01		 mov	 BYTE PTR [esi+160], 1
  0006c	e8 00 00 00 00	 call	 ?push_back@?$vector@PAVTournamentNode@@V?$allocator@PAVTournamentNode@@@std@@@std@@QAEXABQAVTournamentNode@@@Z ; std::vector<TournamentNode *,std::allocator<TournamentNode *> >::push_back
$LN6@CreateTour:

; 65   : }

  00071	e8 00 00 00 00	 call	 __EH_epilog3
  00076	c2 08 00	 ret	 8
$LN50@CreateTour:

; 50   : 			{
; 51   : 				//    
; 52   : 				pTournament->SetType( TournamentNode::TYPE_REGULAR );
; 53   : 				pTournament->SetReguralResourceType( iRegularResourceType );

  00079	ff 75 0c	 push	 DWORD PTR _iRegularResourceType$[ebp]
  0007c	c6 81 a0 00 00
	00 01		 mov	 BYTE PTR [ecx+160], 1
  00083	e8 00 00 00 00	 call	 ?SetReguralResourceType@TournamentNode@@QAEXH@Z ; TournamentNode::SetReguralResourceType

; 54   : 				return;

  00088	eb e7		 jmp	 SHORT $LN6@CreateTour
_TEXT	ENDS
;	COMDAT text$x
text$x	SEGMENT
__unwindfunclet$?CreateTournamentRegular@ioTournamentManager@@QAEXKH@Z$0:
  00000	ff 75 08	 push	 DWORD PTR $T513862[ebp]
  00003	e8 00 00 00 00	 call	 ??3@YAXPAX@Z		; operator delete
  00008	59		 pop	 ecx
  00009	c3		 ret	 0
__ehhandler$?CreateTournamentRegular@ioTournamentManager@@QAEXKH@Z:
  0000a	8b 54 24 08	 mov	 edx, DWORD PTR [esp+8]
  0000e	8d 42 0c	 lea	 eax, DWORD PTR [edx+12]
  00011	8b 4a f0	 mov	 ecx, DWORD PTR [edx-16]
  00014	33 c8		 xor	 ecx, eax
  00016	e8 00 00 00 00	 call	 @__security_check_cookie@4
  0001b	b8 00 00 00 00	 mov	 eax, OFFSET __ehfuncinfo$?CreateTournamentRegular@ioTournamentManager@@QAEXKH@Z
  00020	e9 00 00 00 00	 jmp	 ___CxxFrameHandler3
text$x	ENDS
?CreateTournamentRegular@ioTournamentManager@@QAEXKH@Z ENDP ; ioTournamentManager::CreateTournamentRegular
PUBLIC	?CreateTournamentCustom@ioTournamentManager@@QAEXKKKK@Z ; ioTournamentManager::CreateTournamentCustom
EXTRN	?SetCustomBanner@TournamentNode@@QAEXKK@Z:PROC	; TournamentNode::SetCustomBanner
;	COMDAT xdata$x
; File d:\lost saga for developer\youtube\tutorial\source\src\lsclient\tournamentnode.h
xdata$x	SEGMENT
__unwindtable$?CreateTournamentCustom@ioTournamentManager@@QAEXKKKK@Z DD 0ffffffffH
	DD	FLAT:__unwindfunclet$?CreateTournamentCustom@ioTournamentManager@@QAEXKKKK@Z$0
__ehfuncinfo$?CreateTournamentCustom@ioTournamentManager@@QAEXKKKK@Z DD 019930522H
	DD	01H
	DD	FLAT:__unwindtable$?CreateTournamentCustom@ioTournamentManager@@QAEXKKKK@Z
	DD	2 DUP(00H)
	DD	2 DUP(00H)
	DD	00H
	DD	01H
; Function compile flags: /Ogsp
; File d:\lost saga for developer\youtube\tutorial\source\src\lsclient\iotournamentmanager.cpp
xdata$x	ENDS
;	COMDAT ?CreateTournamentCustom@ioTournamentManager@@QAEXKKKK@Z
_TEXT	SEGMENT
__$EHRec$ = -12						; size = 12
$T513976 = 8						; size = 4
_pNewTournament$ = 8					; size = 4
_dwIndex$ = 8						; size = 4
_dwOwnerIndex$ = 12					; size = 4
_dwBannerB$ = 16					; size = 4
_dwBannerS$ = 20					; size = 4
?CreateTournamentCustom@ioTournamentManager@@QAEXKKKK@Z PROC ; ioTournamentManager::CreateTournamentCustom, COMDAT
; _this$ = ecx

; 68   : {

  00000	6a 00		 push	 0
  00002	b8 00 00 00 00	 mov	 eax, __ehhandler$?CreateTournamentCustom@ioTournamentManager@@QAEXKKKK@Z
  00007	e8 00 00 00 00	 call	 __EH_prolog3

; 69   : 	TournamentVec::iterator iter = m_TournamentList.begin();
; 70   : 	for(;iter != m_TournamentList.end();++iter)

  0000c	8b 51 08	 mov	 edx, DWORD PTR [ecx+8]
  0000f	8b 5d 08	 mov	 ebx, DWORD PTR _dwIndex$[ebp]
  00012	8d 79 04	 lea	 edi, DWORD PTR [ecx+4]
  00015	8b 07		 mov	 eax, DWORD PTR [edi]
  00017	33 f6		 xor	 esi, esi
  00019	eb 0e		 jmp	 SHORT $LN57@CreateTour@2
$LL21@CreateTour@2:

; 71   : 	{
; 72   : 		TournamentNode *pTournament = *iter;

  0001b	8b 08		 mov	 ecx, DWORD PTR [eax]

; 73   : 		if( pTournament )

  0001d	3b ce		 cmp	 ecx, esi
  0001f	74 05		 je	 SHORT $LN4@CreateTour@2

; 74   : 		{
; 75   : 			if( pTournament->GetIndex() == dwIndex )

  00021	39 59 04	 cmp	 DWORD PTR [ecx+4], ebx
  00024	74 5c		 je	 SHORT $LN54@CreateTour@2
$LN4@CreateTour@2:

; 69   : 	TournamentVec::iterator iter = m_TournamentList.begin();
; 70   : 	for(;iter != m_TournamentList.end();++iter)

  00026	83 c0 04	 add	 eax, 4
$LN57@CreateTour@2:
  00029	3b c2		 cmp	 eax, edx
  0002b	75 ee		 jne	 SHORT $LL21@CreateTour@2

; 82   : 			}
; 83   : 		}
; 84   : 	}
; 85   : 
; 86   : 	//  insert
; 87   : 	TournamentNode *pNewTournament = new TournamentNode;

  0002d	68 f4 01 00 00	 push	 500			; 000001f4H
  00032	e8 00 00 00 00	 call	 ??2@YAPAXI@Z		; operator new
  00037	59		 pop	 ecx
  00038	8b c8		 mov	 ecx, eax
  0003a	89 4d 08	 mov	 DWORD PTR $T513976[ebp], ecx
  0003d	89 75 fc	 mov	 DWORD PTR __$EHRec$[ebp+8], esi
  00040	3b ce		 cmp	 ecx, esi
  00042	74 07		 je	 SHORT $LN8@CreateTour@2
  00044	e8 00 00 00 00	 call	 ??0TournamentNode@@QAE@XZ ; TournamentNode::TournamentNode
  00049	8b f0		 mov	 esi, eax
$LN8@CreateTour@2:

; 88   : 	pNewTournament->SetIndex( dwIndex );
; 89   : 	pNewTournament->SetOwnerIndex( dwOwnerIndex );
; 90   : 	pNewTournament->SetCustomBanner( dwBannerB, dwBannerS );

  0004b	ff 75 14	 push	 DWORD PTR _dwBannerS$[ebp]
  0004e	8b 45 0c	 mov	 eax, DWORD PTR _dwOwnerIndex$[ebp]
  00051	ff 75 10	 push	 DWORD PTR _dwBannerB$[ebp]
  00054	83 4d fc ff	 or	 DWORD PTR __$EHRec$[ebp+8], -1
  00058	89 5e 04	 mov	 DWORD PTR [esi+4], ebx
  0005b	8b ce		 mov	 ecx, esi
  0005d	89 75 08	 mov	 DWORD PTR _pNewTournament$[ebp], esi
  00060	89 46 08	 mov	 DWORD PTR [esi+8], eax
  00063	e8 00 00 00 00	 call	 ?SetCustomBanner@TournamentNode@@QAEXKK@Z ; TournamentNode::SetCustomBanner

; 91   : 	pNewTournament->SetType( TournamentNode::TYPE_CUSTOM );
; 92   : 	m_TournamentList.push_back( pNewTournament );

  00068	8d 45 08	 lea	 eax, DWORD PTR _pNewTournament$[ebp]
  0006b	50		 push	 eax
  0006c	8b cf		 mov	 ecx, edi
  0006e	c6 86 a0 00 00
	00 02		 mov	 BYTE PTR [esi+160], 2
  00075	e8 00 00 00 00	 call	 ?push_back@?$vector@PAVTournamentNode@@V?$allocator@PAVTournamentNode@@@std@@@std@@QAEXABQAVTournamentNode@@@Z ; std::vector<TournamentNode *,std::allocator<TournamentNode *> >::push_back
$LN6@CreateTour@2:

; 93   : 
; 94   : }

  0007a	e8 00 00 00 00	 call	 __EH_epilog3
  0007f	c2 10 00	 ret	 16			; 00000010H
$LN54@CreateTour@2:

; 76   : 			{
; 77   : 				//    
; 78   : 				pTournament->SetType( TournamentNode::TYPE_CUSTOM );
; 79   : 				pTournament->SetOwnerIndex( dwOwnerIndex );
; 80   : 				pTournament->SetCustomBanner( dwBannerB, dwBannerS );

  00082	ff 75 14	 push	 DWORD PTR _dwBannerS$[ebp]
  00085	8b 45 0c	 mov	 eax, DWORD PTR _dwOwnerIndex$[ebp]
  00088	ff 75 10	 push	 DWORD PTR _dwBannerB$[ebp]
  0008b	c6 81 a0 00 00
	00 02		 mov	 BYTE PTR [ecx+160], 2
  00092	89 41 08	 mov	 DWORD PTR [ecx+8], eax
  00095	e8 00 00 00 00	 call	 ?SetCustomBanner@TournamentNode@@QAEXKK@Z ; TournamentNode::SetCustomBanner

; 81   : 				return;

  0009a	eb de		 jmp	 SHORT $LN6@CreateTour@2
_TEXT	ENDS
;	COMDAT text$x
text$x	SEGMENT
__unwindfunclet$?CreateTournamentCustom@ioTournamentManager@@QAEXKKKK@Z$0:
  00000	ff 75 08	 push	 DWORD PTR $T513976[ebp]
  00003	e8 00 00 00 00	 call	 ??3@YAXPAX@Z		; operator delete
  00008	59		 pop	 ecx
  00009	c3		 ret	 0
__ehhandler$?CreateTournamentCustom@ioTournamentManager@@QAEXKKKK@Z:
  0000a	8b 54 24 08	 mov	 edx, DWORD PTR [esp+8]
  0000e	8d 42 0c	 lea	 eax, DWORD PTR [edx+12]
  00011	8b 4a f0	 mov	 ecx, DWORD PTR [edx-16]
  00014	33 c8		 xor	 ecx, eax
  00016	e8 00 00 00 00	 call	 @__security_check_cookie@4
  0001b	b8 00 00 00 00	 mov	 eax, OFFSET __ehfuncinfo$?CreateTournamentCustom@ioTournamentManager@@QAEXKKKK@Z
  00020	e9 00 00 00 00	 jmp	 ___CxxFrameHandler3
text$x	ENDS
?CreateTournamentCustom@ioTournamentManager@@QAEXKKKK@Z ENDP ; ioTournamentManager::CreateTournamentCustom
PUBLIC	?CreateTournament@ioTournamentManager@@QAEXK@Z	; ioTournamentManager::CreateTournament
;	COMDAT xdata$x
; File d:\lost saga for developer\youtube\tutorial\source\src\lsclient\tournamentnode.h
xdata$x	SEGMENT
__unwindtable$?CreateTournament@ioTournamentManager@@QAEXK@Z DD 0ffffffffH
	DD	FLAT:__unwindfunclet$?CreateTournament@ioTournamentManager@@QAEXK@Z$0
__ehfuncinfo$?CreateTournament@ioTournamentManager@@QAEXK@Z DD 019930522H
	DD	01H
	DD	FLAT:__unwindtable$?CreateTournament@ioTournamentManager@@QAEXK@Z
	DD	2 DUP(00H)
	DD	2 DUP(00H)
	DD	00H
	DD	01H
; Function compile flags: /Ogsp
; File d:\lost saga for developer\youtube\tutorial\source\src\lsclient\iotournamentmanager.cpp
xdata$x	ENDS
;	COMDAT ?CreateTournament@ioTournamentManager@@QAEXK@Z
_TEXT	SEGMENT
__$EHRec$ = -12						; size = 12
$T514097 = 8						; size = 4
_pNewTournament$ = 8					; size = 4
_dwIndex$ = 8						; size = 4
?CreateTournament@ioTournamentManager@@QAEXK@Z PROC	; ioTournamentManager::CreateTournament, COMDAT
; _this$ = ecx

; 97   : {

  00000	6a 00		 push	 0
  00002	b8 00 00 00 00	 mov	 eax, __ehhandler$?CreateTournament@ioTournamentManager@@QAEXK@Z
  00007	e8 00 00 00 00	 call	 __EH_prolog3

; 98   : 	TournamentVec::iterator iter = m_TournamentList.begin();
; 99   : 	for(;iter != m_TournamentList.end();++iter)

  0000c	8b 7d 08	 mov	 edi, DWORD PTR _dwIndex$[ebp]
  0000f	8d 71 04	 lea	 esi, DWORD PTR [ecx+4]
  00012	8b 06		 mov	 eax, DWORD PTR [esi]
  00014	8b 49 08	 mov	 ecx, DWORD PTR [ecx+8]
  00017	eb 0e		 jmp	 SHORT $LN49@CreateTour@3
$LL21@CreateTour@3:

; 100  : 	{
; 101  : 		TournamentNode *pTournament = *iter;

  00019	8b 10		 mov	 edx, DWORD PTR [eax]

; 102  : 		if( pTournament )

  0001b	85 d2		 test	 edx, edx
  0001d	74 05		 je	 SHORT $LN4@CreateTour@3

; 103  : 		{
; 104  : 			if( pTournament->GetIndex() == dwIndex )

  0001f	39 7a 04	 cmp	 DWORD PTR [edx+4], edi
  00022	74 3d		 je	 SHORT $LN6@CreateTour@3
$LN4@CreateTour@3:

; 98   : 	TournamentVec::iterator iter = m_TournamentList.begin();
; 99   : 	for(;iter != m_TournamentList.end();++iter)

  00024	83 c0 04	 add	 eax, 4
$LN49@CreateTour@3:
  00027	3b c1		 cmp	 eax, ecx
  00029	75 ee		 jne	 SHORT $LL21@CreateTour@3

; 105  : 				return;
; 106  : 		}
; 107  : 	}
; 108  : 
; 109  : 	//  insert
; 110  : 	TournamentNode *pNewTournament = new TournamentNode;

  0002b	68 f4 01 00 00	 push	 500			; 000001f4H
  00030	e8 00 00 00 00	 call	 ??2@YAPAXI@Z		; operator new
  00035	59		 pop	 ecx
  00036	8b c8		 mov	 ecx, eax
  00038	89 4d 08	 mov	 DWORD PTR $T514097[ebp], ecx
  0003b	83 65 fc 00	 and	 DWORD PTR __$EHRec$[ebp+8], 0
  0003f	85 c9		 test	 ecx, ecx
  00041	74 07		 je	 SHORT $LN8@CreateTour@3
  00043	e8 00 00 00 00	 call	 ??0TournamentNode@@QAE@XZ ; TournamentNode::TournamentNode
  00048	eb 02		 jmp	 SHORT $LN9@CreateTour@3
$LN8@CreateTour@3:
  0004a	33 c0		 xor	 eax, eax
$LN9@CreateTour@3:
  0004c	83 4d fc ff	 or	 DWORD PTR __$EHRec$[ebp+8], -1
  00050	89 45 08	 mov	 DWORD PTR _pNewTournament$[ebp], eax

; 111  : 	pNewTournament->SetIndex( dwIndex );

  00053	89 78 04	 mov	 DWORD PTR [eax+4], edi

; 112  : 	m_TournamentList.push_back( pNewTournament );

  00056	8d 45 08	 lea	 eax, DWORD PTR _pNewTournament$[ebp]
  00059	50		 push	 eax
  0005a	8b ce		 mov	 ecx, esi
  0005c	e8 00 00 00 00	 call	 ?push_back@?$vector@PAVTournamentNode@@V?$allocator@PAVTournamentNode@@@std@@@std@@QAEXABQAVTournamentNode@@@Z ; std::vector<TournamentNode *,std::allocator<TournamentNode *> >::push_back
$LN6@CreateTour@3:

; 113  : }

  00061	e8 00 00 00 00	 call	 __EH_epilog3
  00066	c2 04 00	 ret	 4
_TEXT	ENDS
;	COMDAT text$x
text$x	SEGMENT
__unwindfunclet$?CreateTournament@ioTournamentManager@@QAEXK@Z$0:
  00000	ff 75 08	 push	 DWORD PTR $T514097[ebp]
  00003	e8 00 00 00 00	 call	 ??3@YAXPAX@Z		; operator delete
  00008	59		 pop	 ecx
  00009	c3		 ret	 0
__ehhandler$?CreateTournament@ioTournamentManager@@QAEXK@Z:
  0000a	8b 54 24 08	 mov	 edx, DWORD PTR [esp+8]
  0000e	8d 42 0c	 lea	 eax, DWORD PTR [edx+12]
  00011	8b 4a f0	 mov	 ecx, DWORD PTR [edx-16]
  00014	33 c8		 xor	 ecx, eax
  00016	e8 00 00 00 00	 call	 @__security_check_cookie@4
  0001b	b8 00 00 00 00	 mov	 eax, OFFSET __ehfuncinfo$?CreateTournament@ioTournamentManager@@QAEXK@Z
  00020	e9 00 00 00 00	 jmp	 ___CxxFrameHandler3
text$x	ENDS
?CreateTournament@ioTournamentManager@@QAEXK@Z ENDP	; ioTournamentManager::CreateTournament
PUBLIC	?ApplyTournamentRegularInfo@ioTournamentManager@@QAEXAAVSP2Packet@@@Z ; ioTournamentManager::ApplyTournamentRegularInfo
EXTRN	?SetReguralDisableTournament@TournamentNode@@QAEX_N@Z:PROC ; TournamentNode::SetReguralDisableTournament
EXTRN	??5SP2Packet@@QAEAAV0@AA_N@Z:PROC		; SP2Packet::operator>>
EXTRN	??5SP2Packet@@QAEAAV0@AAH@Z:PROC		; SP2Packet::operator>>
EXTRN	??5SP2Packet@@QAEAAV0@AAE@Z:PROC		; SP2Packet::operator>>
;	COMDAT xdata$x
; File d:\lost saga for developer\youtube\tutorial\source\src\lsclient\tournamentnode.h
xdata$x	SEGMENT
__unwindtable$?ApplyTournamentRegularInfo@ioTournamentManager@@QAEXAAVSP2Packet@@@Z DD 0ffffffffH
	DD	FLAT:__unwindfunclet$?ApplyTournamentRegularInfo@ioTournamentManager@@QAEXAAVSP2Packet@@@Z$0
__ehfuncinfo$?ApplyTournamentRegularInfo@ioTournamentManager@@QAEXAAVSP2Packet@@@Z DD 019930522H
	DD	01H
	DD	FLAT:__unwindtable$?ApplyTournamentRegularInfo@ioTournamentManager@@QAEXAAVSP2Packet@@@Z
	DD	2 DUP(00H)
	DD	2 DUP(00H)
	DD	00H
	DD	01H
; Function compile flags: /Ogsp
; File d:\lost saga for developer\youtube\tutorial\source\src\lsclient\iotournamentmanager.cpp
xdata$x	ENDS
;	COMDAT ?ApplyTournamentRegularInfo@ioTournamentManager@@QAEXAAVSP2Packet@@@Z
_TEXT	SEGMENT
$T514204 = -28						; size = 4
_pNewTournament$ = -28					; size = 4
_bDisable$ = -24					; size = 1
_iReguralResource$ = -20				; size = 4
_dwIndex$ = -16						; size = 4
__$EHRec$ = -12						; size = 12
_rkPacket$ = 8						; size = 4
_State$ = 11						; size = 1
?ApplyTournamentRegularInfo@ioTournamentManager@@QAEXAAVSP2Packet@@@Z PROC ; ioTournamentManager::ApplyTournamentRegularInfo, COMDAT
; _this$ = ecx

; 116  : {

  00000	6a 10		 push	 16			; 00000010H
  00002	b8 00 00 00 00	 mov	 eax, __ehhandler$?ApplyTournamentRegularInfo@ioTournamentManager@@QAEXAAVSP2Packet@@@Z
  00007	e8 00 00 00 00	 call	 __EH_prolog3
  0000c	8b f9		 mov	 edi, ecx

; 117  : 	BYTE  State;
; 118  : 	DWORD dwIndex;
; 119  : 	int iReguralResource;
; 120  : 	bool bDisable;
; 121  : 	rkPacket >> dwIndex >> State >> iReguralResource >> bDisable;

  0000e	8b 4d 08	 mov	 ecx, DWORD PTR _rkPacket$[ebp]
  00011	8d 45 e8	 lea	 eax, DWORD PTR _bDisable$[ebp]
  00014	50		 push	 eax
  00015	8d 45 ec	 lea	 eax, DWORD PTR _iReguralResource$[ebp]
  00018	50		 push	 eax
  00019	8d 45 0b	 lea	 eax, DWORD PTR _State$[ebp]
  0001c	50		 push	 eax
  0001d	8d 45 f0	 lea	 eax, DWORD PTR _dwIndex$[ebp]
  00020	50		 push	 eax
  00021	e8 00 00 00 00	 call	 ??5SP2Packet@@QAEAAV0@AAK@Z ; SP2Packet::operator>>
  00026	8b c8		 mov	 ecx, eax
  00028	e8 00 00 00 00	 call	 ??5SP2Packet@@QAEAAV0@AAE@Z ; SP2Packet::operator>>
  0002d	8b c8		 mov	 ecx, eax
  0002f	e8 00 00 00 00	 call	 ??5SP2Packet@@QAEAAV0@AAH@Z ; SP2Packet::operator>>
  00034	8b c8		 mov	 ecx, eax
  00036	e8 00 00 00 00	 call	 ??5SP2Packet@@QAEAAV0@AA_N@Z ; SP2Packet::operator>>

; 122  : 
; 123  : 	TournamentVec::iterator iter = m_TournamentList.begin();

  0003b	8b 47 04	 mov	 eax, DWORD PTR [edi+4]
  0003e	eb 11		 jmp	 SHORT $LN55@ApplyTourn@4

; 124  : 	for(;iter != m_TournamentList.end();++iter)

$LL21@ApplyTourn@4:

; 125  : 	{
; 126  : 		TournamentNode *pTournament = *iter;

  00040	8b 30		 mov	 esi, DWORD PTR [eax]

; 127  : 		if( pTournament )

  00042	85 f6		 test	 esi, esi
  00044	74 08		 je	 SHORT $LN4@ApplyTourn@4

; 128  : 		{
; 129  : 			if( pTournament->GetIndex() == dwIndex )

  00046	8b 4e 04	 mov	 ecx, DWORD PTR [esi+4]
  00049	3b 4d f0	 cmp	 ecx, DWORD PTR _dwIndex$[ebp]
  0004c	74 7e		 je	 SHORT $LN52@ApplyTourn@4
$LN4@ApplyTourn@4:

; 124  : 	for(;iter != m_TournamentList.end();++iter)

  0004e	83 c0 04	 add	 eax, 4
$LN55@ApplyTourn@4:
  00051	3b 47 08	 cmp	 eax, DWORD PTR [edi+8]
  00054	75 ea		 jne	 SHORT $LL21@ApplyTourn@4

; 136  : 			}
; 137  : 		}
; 138  : 	}
; 139  : 
; 140  : 	//  insert
; 141  : 	TournamentNode *pNewTournament = new TournamentNode;

  00056	68 f4 01 00 00	 push	 500			; 000001f4H
  0005b	e8 00 00 00 00	 call	 ??2@YAPAXI@Z		; operator new
  00060	59		 pop	 ecx
  00061	89 45 e4	 mov	 DWORD PTR $T514204[ebp], eax
  00064	33 f6		 xor	 esi, esi
  00066	89 75 fc	 mov	 DWORD PTR __$EHRec$[ebp+8], esi
  00069	3b c6		 cmp	 eax, esi
  0006b	74 09		 je	 SHORT $LN8@ApplyTourn@4
  0006d	8b c8		 mov	 ecx, eax
  0006f	e8 00 00 00 00	 call	 ??0TournamentNode@@QAE@XZ ; TournamentNode::TournamentNode
  00074	8b f0		 mov	 esi, eax
$LN8@ApplyTourn@4:

; 142  : 	pNewTournament->SetIndex( dwIndex );

  00076	8b 45 f0	 mov	 eax, DWORD PTR _dwIndex$[ebp]
  00079	83 4d fc ff	 or	 DWORD PTR __$EHRec$[ebp+8], -1
  0007d	89 46 04	 mov	 DWORD PTR [esi+4], eax

; 143  : 	pNewTournament->SetState( State );

  00080	8a 45 0b	 mov	 al, BYTE PTR _State$[ebp]
  00083	88 86 a1 00 00
	00		 mov	 BYTE PTR [esi+161], al

; 144  : 	pNewTournament->SetReguralResourceType( iReguralResource );

  00089	ff 75 ec	 push	 DWORD PTR _iReguralResource$[ebp]
  0008c	8b ce		 mov	 ecx, esi
  0008e	89 75 e4	 mov	 DWORD PTR _pNewTournament$[ebp], esi
  00091	e8 00 00 00 00	 call	 ?SetReguralResourceType@TournamentNode@@QAEXH@Z ; TournamentNode::SetReguralResourceType

; 145  : 	pNewTournament->SetType( TournamentNode::TYPE_REGULAR );

  00096	c6 86 a0 00 00
	00 01		 mov	 BYTE PTR [esi+160], 1

; 146  : 	pNewTournament->SetReguralDisableTournament( bDisable );

  0009d	ff 75 e8	 push	 DWORD PTR _bDisable$[ebp]
  000a0	8b ce		 mov	 ecx, esi
  000a2	e8 00 00 00 00	 call	 ?SetReguralDisableTournament@TournamentNode@@QAEX_N@Z ; TournamentNode::SetReguralDisableTournament

; 147  : 	m_dwRegularTourRequestTime = FRAMEGETTIME();

  000a7	ff 15 00 00 00
	00		 call	 DWORD PTR __imp_?GetSingleton@ioFrameTimer@@SAAAV1@XZ
  000ad	8b c8		 mov	 ecx, eax
  000af	ff 15 00 00 00
	00		 call	 DWORD PTR __imp_?GetLoopSec@ioFrameTimer@@QBEKXZ
  000b5	89 47 18	 mov	 DWORD PTR [edi+24], eax

; 148  : 
; 149  : 	m_TournamentList.push_back( pNewTournament );

  000b8	8d 45 e4	 lea	 eax, DWORD PTR _pNewTournament$[ebp]
  000bb	50		 push	 eax
  000bc	8d 4f 04	 lea	 ecx, DWORD PTR [edi+4]
  000bf	e8 00 00 00 00	 call	 ?push_back@?$vector@PAVTournamentNode@@V?$allocator@PAVTournamentNode@@@std@@@std@@QAEXABQAVTournamentNode@@@Z ; std::vector<TournamentNode *,std::allocator<TournamentNode *> >::push_back
$LN6@ApplyTourn@4:

; 150  : }

  000c4	e8 00 00 00 00	 call	 __EH_epilog3
  000c9	c2 04 00	 ret	 4
$LN52@ApplyTourn@4:

; 130  : 			{
; 131  : 				//    
; 132  : 				pTournament->SetState( State );

  000cc	8a 45 0b	 mov	 al, BYTE PTR _State$[ebp]
  000cf	88 86 a1 00 00
	00		 mov	 BYTE PTR [esi+161], al

; 133  : 				pTournament->SetReguralResourceType( iReguralResource );

  000d5	ff 75 ec	 push	 DWORD PTR _iReguralResource$[ebp]
  000d8	8b ce		 mov	 ecx, esi
  000da	e8 00 00 00 00	 call	 ?SetReguralResourceType@TournamentNode@@QAEXH@Z ; TournamentNode::SetReguralResourceType

; 134  : 				pTournament->SetReguralDisableTournament( bDisable );

  000df	ff 75 e8	 push	 DWORD PTR _bDisable$[ebp]
  000e2	8b ce		 mov	 ecx, esi
  000e4	e8 00 00 00 00	 call	 ?SetReguralDisableTournament@TournamentNode@@QAEX_N@Z ; TournamentNode::SetReguralDisableTournament

; 135  : 				return;

  000e9	eb d9		 jmp	 SHORT $LN6@ApplyTourn@4
_TEXT	ENDS
;	COMDAT text$x
text$x	SEGMENT
__unwindfunclet$?ApplyTournamentRegularInfo@ioTournamentManager@@QAEXAAVSP2Packet@@@Z$0:
  00000	ff 75 e4	 push	 DWORD PTR $T514204[ebp]
  00003	e8 00 00 00 00	 call	 ??3@YAXPAX@Z		; operator delete
  00008	59		 pop	 ecx
  00009	c3		 ret	 0
__ehhandler$?ApplyTournamentRegularInfo@ioTournamentManager@@QAEXAAVSP2Packet@@@Z:
  0000a	8b 54 24 08	 mov	 edx, DWORD PTR [esp+8]
  0000e	8d 42 0c	 lea	 eax, DWORD PTR [edx+12]
  00011	8b 4a e0	 mov	 ecx, DWORD PTR [edx-32]
  00014	33 c8		 xor	 ecx, eax
  00016	e8 00 00 00 00	 call	 @__security_check_cookie@4
  0001b	b8 00 00 00 00	 mov	 eax, OFFSET __ehfuncinfo$?ApplyTournamentRegularInfo@ioTournamentManager@@QAEXAAVSP2Packet@@@Z
  00020	e9 00 00 00 00	 jmp	 ___CxxFrameHandler3
text$x	ENDS
?ApplyTournamentRegularInfo@ioTournamentManager@@QAEXAAVSP2Packet@@@Z ENDP ; ioTournamentManager::ApplyTournamentRegularInfo
EXTRN	__imp_??1ioHashString@@QAE@XZ:PROC
; Function compile flags: /Ogsp
;	COMDAT ??__FszNone@?1??GetRegularDisableTournamentMent@ioTournamentManager@@QAEABVioHashString@@XZ@YAXXZ
text$yd	SEGMENT
??__FszNone@?1??GetRegularDisableTournamentMent@ioTournamentManager@@QAEABVioHashString@@XZ@YAXXZ PROC ; `ioTournamentManager::GetRegularDisableTournamentMent'::`2'::`dynamic atexit destructor for 'szNone'', COMDAT
  00000	b9 00 00 00 00	 mov	 ecx, OFFSET ?szNone@?1??GetRegularDisableTournamentMent@ioTournamentManager@@QAEABVioHashString@@XZ@4V3@A
  00005	ff 25 00 00 00
	00		 jmp	 DWORD PTR __imp_??1ioHashString@@QAE@XZ
??__FszNone@?1??GetRegularDisableTournamentMent@ioTournamentManager@@QAEABVioHashString@@XZ@YAXXZ ENDP ; `ioTournamentManager::GetRegularDisableTournamentMent'::`2'::`dynamic atexit destructor for 'szNone''
text$yd	ENDS
END
