; Listing generated by Microsoft (R) Optimizing Compiler Version 16.00.30319.01 

	TITLE	D:\Lost Saga For Developer\Youtube\Tutorial\Source\src\LSClient\ioTraceWeapon6.cpp
	.686P
	.XMM
	include listing.inc
	.model	flat

INCLUDELIB MSVCRT
INCLUDELIB OLDNAMES

PUBLIC	?_EEM_DS@?$deque@UD3DXVECTOR3@@V?$allocator@UD3DXVECTOR3@@@std@@@std@@2HB ; std::deque<D3DXVECTOR3,std::allocator<D3DXVECTOR3> >::_EEM_DS
PUBLIC	?m_ActionStopType@ioTraceWeapon6@@2W4ActionStopType@@A ; ioTraceWeapon6::m_ActionStopType
PUBLIC	?m_DieActionStopType@ioTraceWeapon6@@2W4ActionStopType@@A ; ioTraceWeapon6::m_DieActionStopType
_BSS	SEGMENT
?m_ActionStopType@ioTraceWeapon6@@2W4ActionStopType@@A DD 01H DUP (?) ; ioTraceWeapon6::m_ActionStopType
?m_DieActionStopType@ioTraceWeapon6@@2W4ActionStopType@@A DD 01H DUP (?) ; ioTraceWeapon6::m_DieActionStopType
_BSS	ENDS
;	COMDAT ?_EEM_DS@?$deque@UD3DXVECTOR3@@V?$allocator@UD3DXVECTOR3@@@std@@@std@@2HB
CONST	SEGMENT
?_EEM_DS@?$deque@UD3DXVECTOR3@@V?$allocator@UD3DXVECTOR3@@@std@@@std@@2HB DD 01H ; std::deque<D3DXVECTOR3,std::allocator<D3DXVECTOR3> >::_EEM_DS
CONST	ENDS
PUBLIC	?return1@@YAIXZ					; return1
; Function compile flags: /Ogsp
; File d:\lost saga for developer\youtube\tutorial\source\src\lsclient\stdafx.h
;	COMDAT ?return1@@YAIXZ
_TEXT	SEGMENT
?return1@@YAIXZ PROC					; return1, COMDAT

; 17   : 	__forceinline unsigned int return1() { __asm mov eax, 1 };

  00000	b8 01 00 00 00	 mov	 eax, 1
  00005	c3		 ret	 0
?return1@@YAIXZ ENDP					; return1
_TEXT	ENDS
PUBLIC	?return5@@YAIXZ					; return5
; Function compile flags: /Ogsp
;	COMDAT ?return5@@YAIXZ
_TEXT	SEGMENT
?return5@@YAIXZ PROC					; return5, COMDAT

; 18   : 	__forceinline unsigned int return5() { __asm mov eax, 5 };

  00000	b8 05 00 00 00	 mov	 eax, 5
  00005	c3		 ret	 0
?return5@@YAIXZ ENDP					; return5
_TEXT	ENDS
PUBLIC	?return10@@YAIXZ				; return10
; Function compile flags: /Ogsp
;	COMDAT ?return10@@YAIXZ
_TEXT	SEGMENT
?return10@@YAIXZ PROC					; return10, COMDAT

; 21   : 	__forceinline unsigned int return10() { __asm mov eax, 10 };

  00000	b8 0a 00 00 00	 mov	 eax, 10			; 0000000aH
  00005	c3		 ret	 0
?return10@@YAIXZ ENDP					; return10
_TEXT	ENDS
PUBLIC	?return1000@@YAIXZ				; return1000
; Function compile flags: /Ogsp
;	COMDAT ?return1000@@YAIXZ
_TEXT	SEGMENT
?return1000@@YAIXZ PROC					; return1000, COMDAT

; 29   : 	__forceinline unsigned int return1000() { __asm mov eax, 1000 };

  00000	b8 e8 03 00 00	 mov	 eax, 1000		; 000003e8H
  00005	c3		 ret	 0
?return1000@@YAIXZ ENDP					; return1000
_TEXT	ENDS
PUBLIC	?GetCharName@ioBaseChar@@QBEABVioHashString@@XZ	; ioBaseChar::GetCharName
; Function compile flags: /Ogsp
; File d:\lost saga for developer\youtube\tutorial\source\src\lsclient\iobasechar.h
;	COMDAT ?GetCharName@ioBaseChar@@QBEABVioHashString@@XZ
_TEXT	SEGMENT
?GetCharName@ioBaseChar@@QBEABVioHashString@@XZ PROC	; ioBaseChar::GetCharName, COMDAT
; _this$ = ecx

; 2594 : 	inline const ioHashString& GetCharName() const { return m_Name; }

  00000	8d 81 d4 02 00
	00		 lea	 eax, DWORD PTR [ecx+724]
  00006	c3		 ret	 0
?GetCharName@ioBaseChar@@QBEABVioHashString@@XZ ENDP	; ioBaseChar::GetCharName
_TEXT	ENDS
PUBLIC	?GetTargetRot@ioBaseChar@@QBEABUD3DXQUATERNION@@XZ ; ioBaseChar::GetTargetRot
; Function compile flags: /Ogsp
;	COMDAT ?GetTargetRot@ioBaseChar@@QBEABUD3DXQUATERNION@@XZ
_TEXT	SEGMENT
?GetTargetRot@ioBaseChar@@QBEABUD3DXQUATERNION@@XZ PROC	; ioBaseChar::GetTargetRot, COMDAT
; _this$ = ecx

; 2599 : 	inline const D3DXQUATERNION& GetTargetRot() const { return m_qtTargetRot; }

  00000	8d 81 a4 06 00
	00		 lea	 eax, DWORD PTR [ecx+1700]
  00006	c3		 ret	 0
?GetTargetRot@ioBaseChar@@QBEABUD3DXQUATERNION@@XZ ENDP	; ioBaseChar::GetTargetRot
_TEXT	ENDS
PUBLIC	_acosf
EXTRN	__fltused:DWORD
EXTRN	__CIacos:PROC
; Function compile flags: /Ogsp
; File c:\program files (x86)\microsoft visual studio 10.0\vc\include\math.h
;	COMDAT _acosf
_TEXT	SEGMENT
tv69 = 8						; size = 4
__X$ = 8						; size = 4
_acosf	PROC						; COMDAT

; 400  :         {return ((float)acos((double)_X)); }

  00000	55		 push	 ebp
  00001	8b ec		 mov	 ebp, esp
  00003	d9 45 08	 fld	 DWORD PTR __X$[ebp]
  00006	e8 00 00 00 00	 call	 __CIacos
  0000b	d9 5d 08	 fstp	 DWORD PTR tv69[ebp]
  0000e	d9 45 08	 fld	 DWORD PTR tv69[ebp]
  00011	5d		 pop	 ebp
  00012	c3		 ret	 0
_acosf	ENDP
_TEXT	ENDS
PUBLIC	_cosf
EXTRN	__CIcos:PROC
; Function compile flags: /Ogsp
;	COMDAT _cosf
_TEXT	SEGMENT
tv69 = 8						; size = 4
__X$ = 8						; size = 4
_cosf	PROC						; COMDAT

; 410  :         {return ((float)cos((double)_X)); }

  00000	55		 push	 ebp
  00001	8b ec		 mov	 ebp, esp
  00003	d9 45 08	 fld	 DWORD PTR __X$[ebp]
  00006	e8 00 00 00 00	 call	 __CIcos
  0000b	d9 5d 08	 fstp	 DWORD PTR tv69[ebp]
  0000e	d9 45 08	 fld	 DWORD PTR tv69[ebp]
  00011	5d		 pop	 ebp
  00012	c3		 ret	 0
_cosf	ENDP
_TEXT	ENDS
PUBLIC	?acos@@YAMM@Z					; acos
; Function compile flags: /Ogsp
;	COMDAT ?acos@@YAMM@Z
_TEXT	SEGMENT
tv73 = 8						; size = 4
__X$ = 8						; size = 4
?acos@@YAMM@Z PROC					; acos, COMDAT

; 502  :         {return (acosf(_X)); }

  00000	55		 push	 ebp
  00001	8b ec		 mov	 ebp, esp
  00003	d9 45 08	 fld	 DWORD PTR __X$[ebp]
  00006	e8 00 00 00 00	 call	 __CIacos
  0000b	d9 5d 08	 fstp	 DWORD PTR tv73[ebp]
  0000e	d9 45 08	 fld	 DWORD PTR tv73[ebp]
  00011	5d		 pop	 ebp
  00012	c3		 ret	 0
?acos@@YAMM@Z ENDP					; acos
_TEXT	ENDS
PUBLIC	??_7bad_alloc@std@@6B@				; std::bad_alloc::`vftable'
PUBLIC	??0bad_alloc@std@@QAE@PBD@Z			; std::bad_alloc::bad_alloc
PUBLIC	??_R4bad_alloc@std@@6B@				; std::bad_alloc::`RTTI Complete Object Locator'
PUBLIC	??_R0?AVbad_alloc@std@@@8			; std::bad_alloc `RTTI Type Descriptor'
PUBLIC	??_R3bad_alloc@std@@8				; std::bad_alloc::`RTTI Class Hierarchy Descriptor'
PUBLIC	??_R2bad_alloc@std@@8				; std::bad_alloc::`RTTI Base Class Array'
PUBLIC	??_R1A@?0A@EA@bad_alloc@std@@8			; std::bad_alloc::`RTTI Base Class Descriptor at (0,-1,0,64)'
PUBLIC	??_R1A@?0A@EA@exception@std@@8			; std::exception::`RTTI Base Class Descriptor at (0,-1,0,64)'
PUBLIC	??_R0?AVexception@std@@@8			; std::exception `RTTI Type Descriptor'
PUBLIC	??_R3exception@std@@8				; std::exception::`RTTI Class Hierarchy Descriptor'
PUBLIC	??_R2exception@std@@8				; std::exception::`RTTI Base Class Array'
EXTRN	__imp_??0exception@std@@QAE@ABQBD@Z:PROC
EXTRN	??_7type_info@@6B@:QWORD			; type_info::`vftable'
EXTRN	??_Ebad_alloc@std@@UAEPAXI@Z:PROC		; std::bad_alloc::`vector deleting destructor'
EXTRN	?what@exception@std@@UBEPBDXZ:PROC		; std::exception::what
;	COMDAT ??_R2exception@std@@8
; File c:\program files (x86)\microsoft visual studio 10.0\vc\include\exception
rdata$r	SEGMENT
??_R2exception@std@@8 DD FLAT:??_R1A@?0A@EA@exception@std@@8 ; std::exception::`RTTI Base Class Array'
rdata$r	ENDS
;	COMDAT ??_R3exception@std@@8
rdata$r	SEGMENT
??_R3exception@std@@8 DD 00H				; std::exception::`RTTI Class Hierarchy Descriptor'
	DD	00H
	DD	01H
	DD	FLAT:??_R2exception@std@@8
rdata$r	ENDS
;	COMDAT ??_R0?AVexception@std@@@8
_DATA	SEGMENT
??_R0?AVexception@std@@@8 DD FLAT:??_7type_info@@6B@	; std::exception `RTTI Type Descriptor'
	DD	00H
	DB	'.?AVexception@std@@', 00H
_DATA	ENDS
;	COMDAT ??_R1A@?0A@EA@exception@std@@8
rdata$r	SEGMENT
??_R1A@?0A@EA@exception@std@@8 DD FLAT:??_R0?AVexception@std@@@8 ; std::exception::`RTTI Base Class Descriptor at (0,-1,0,64)'
	DD	00H
	DD	00H
	DD	0ffffffffH
	DD	00H
	DD	040H
	DD	FLAT:??_R3exception@std@@8
rdata$r	ENDS
;	COMDAT ??_R1A@?0A@EA@bad_alloc@std@@8
rdata$r	SEGMENT
??_R1A@?0A@EA@bad_alloc@std@@8 DD FLAT:??_R0?AVbad_alloc@std@@@8 ; std::bad_alloc::`RTTI Base Class Descriptor at (0,-1,0,64)'
	DD	01H
	DD	00H
	DD	0ffffffffH
	DD	00H
	DD	040H
	DD	FLAT:??_R3bad_alloc@std@@8
rdata$r	ENDS
;	COMDAT ??_R2bad_alloc@std@@8
rdata$r	SEGMENT
??_R2bad_alloc@std@@8 DD FLAT:??_R1A@?0A@EA@bad_alloc@std@@8 ; std::bad_alloc::`RTTI Base Class Array'
	DD	FLAT:??_R1A@?0A@EA@exception@std@@8
rdata$r	ENDS
;	COMDAT ??_R3bad_alloc@std@@8
rdata$r	SEGMENT
??_R3bad_alloc@std@@8 DD 00H				; std::bad_alloc::`RTTI Class Hierarchy Descriptor'
	DD	00H
	DD	02H
	DD	FLAT:??_R2bad_alloc@std@@8
rdata$r	ENDS
;	COMDAT ??_R0?AVbad_alloc@std@@@8
_DATA	SEGMENT
??_R0?AVbad_alloc@std@@@8 DD FLAT:??_7type_info@@6B@	; std::bad_alloc `RTTI Type Descriptor'
	DD	00H
	DB	'.?AVbad_alloc@std@@', 00H
_DATA	ENDS
;	COMDAT ??_R4bad_alloc@std@@6B@
rdata$r	SEGMENT
??_R4bad_alloc@std@@6B@ DD 00H				; std::bad_alloc::`RTTI Complete Object Locator'
	DD	00H
	DD	00H
	DD	FLAT:??_R0?AVbad_alloc@std@@@8
	DD	FLAT:??_R3bad_alloc@std@@8
rdata$r	ENDS
;	COMDAT ??_7bad_alloc@std@@6B@
CONST	SEGMENT
??_7bad_alloc@std@@6B@ DD FLAT:??_R4bad_alloc@std@@6B@	; std::bad_alloc::`vftable'
	DD	FLAT:??_Ebad_alloc@std@@UAEPAXI@Z
	DD	FLAT:?what@exception@std@@UBEPBDXZ
; Function compile flags: /Ogsp
CONST	ENDS
;	COMDAT ??0bad_alloc@std@@QAE@PBD@Z
_TEXT	SEGMENT
__Message$ = 8						; size = 4
??0bad_alloc@std@@QAE@PBD@Z PROC			; std::bad_alloc::bad_alloc, COMDAT
; _this$ = ecx

; 345  : 		{	// construct from message string

  00000	55		 push	 ebp
  00001	8b ec		 mov	 ebp, esp
  00003	56		 push	 esi
  00004	8d 45 08	 lea	 eax, DWORD PTR __Message$[ebp]
  00007	50		 push	 eax
  00008	8b f1		 mov	 esi, ecx
  0000a	ff 15 00 00 00
	00		 call	 DWORD PTR __imp_??0exception@std@@QAE@ABQBD@Z
  00010	c7 06 00 00 00
	00		 mov	 DWORD PTR [esi], OFFSET ??_7bad_alloc@std@@6B@

; 346  : 		}

  00016	8b c6		 mov	 eax, esi
  00018	5e		 pop	 esi
  00019	5d		 pop	 ebp
  0001a	c2 04 00	 ret	 4
??0bad_alloc@std@@QAE@PBD@Z ENDP			; std::bad_alloc::bad_alloc
_TEXT	ENDS
PUBLIC	??1bad_alloc@std@@UAE@XZ			; std::bad_alloc::~bad_alloc
EXTRN	__imp_??1exception@std@@UAE@XZ:PROC
; Function compile flags: /Ogsp
;	COMDAT ??1bad_alloc@std@@UAE@XZ
_TEXT	SEGMENT
??1bad_alloc@std@@UAE@XZ PROC				; std::bad_alloc::~bad_alloc, COMDAT
; _this$ = ecx

; 354  : 		{	// destroy the object

  00000	c7 01 00 00 00
	00		 mov	 DWORD PTR [ecx], OFFSET ??_7bad_alloc@std@@6B@

; 355  : 		}

  00006	ff 25 00 00 00
	00		 jmp	 DWORD PTR __imp_??1exception@std@@UAE@XZ
??1bad_alloc@std@@UAE@XZ ENDP				; std::bad_alloc::~bad_alloc
_TEXT	ENDS
EXTRN	??3@YAXPAX@Z:PROC				; operator delete
; Function compile flags: /Ogsp
;	COMDAT ??_Gbad_alloc@std@@UAEPAXI@Z
_TEXT	SEGMENT
___flags$ = 8						; size = 4
??_Gbad_alloc@std@@UAEPAXI@Z PROC			; std::bad_alloc::`scalar deleting destructor', COMDAT
; _this$ = ecx
  00000	55		 push	 ebp
  00001	8b ec		 mov	 ebp, esp
  00003	56		 push	 esi
  00004	8b f1		 mov	 esi, ecx
  00006	c7 06 00 00 00
	00		 mov	 DWORD PTR [esi], OFFSET ??_7bad_alloc@std@@6B@
  0000c	ff 15 00 00 00
	00		 call	 DWORD PTR __imp_??1exception@std@@UAE@XZ
  00012	f6 45 08 01	 test	 BYTE PTR ___flags$[ebp], 1
  00016	74 07		 je	 SHORT $LN1@scalar
  00018	56		 push	 esi
  00019	e8 00 00 00 00	 call	 ??3@YAXPAX@Z		; operator delete
  0001e	59		 pop	 ecx
$LN1@scalar:
  0001f	8b c6		 mov	 eax, esi
  00021	5e		 pop	 esi
  00022	5d		 pop	 ebp
  00023	c2 04 00	 ret	 4
??_Gbad_alloc@std@@UAEPAXI@Z ENDP			; std::bad_alloc::`scalar deleting destructor'
_TEXT	ENDS
PUBLIC	??2@YAPAXIPAX@Z					; operator new
; Function compile flags: /Ogsp
; File c:\program files (x86)\microsoft visual studio 10.0\vc\include\new
;	COMDAT ??2@YAPAXIPAX@Z
_TEXT	SEGMENT
___formal$ = 8						; size = 4
__Where$ = 12						; size = 4
??2@YAPAXIPAX@Z PROC					; operator new, COMDAT

; 56   : 	{	// construct array with placement at _Where

  00000	55		 push	 ebp
  00001	8b ec		 mov	 ebp, esp

; 57   : 	return (_Where);

  00003	8b 45 0c	 mov	 eax, DWORD PTR __Where$[ebp]

; 58   : 	}

  00006	5d		 pop	 ebp
  00007	c3		 ret	 0
??2@YAPAXIPAX@Z ENDP					; operator new
_TEXT	ENDS
PUBLIC	??3@YAXPAX0@Z					; operator delete
; Function compile flags: /Ogsp
;	COMDAT ??3@YAXPAX0@Z
_TEXT	SEGMENT
___formal$ = 8						; size = 4
___formal$ = 12						; size = 4
??3@YAXPAX0@Z PROC					; operator delete, COMDAT

; 62   : 	}

  00000	c3		 ret	 0
??3@YAXPAX0@Z ENDP					; operator delete
_TEXT	ENDS
PUBLIC	?GetCreator@ioBaseChar@@QAEPAVioPlayStage@@XZ	; ioBaseChar::GetCreator
; Function compile flags: /Ogsp
; File d:\lost saga for developer\youtube\tutorial\source\src\lsclient\iobasechar.h
;	COMDAT ?GetCreator@ioBaseChar@@QAEPAVioPlayStage@@XZ
_TEXT	SEGMENT
?GetCreator@ioBaseChar@@QAEPAVioPlayStage@@XZ PROC	; ioBaseChar::GetCreator, COMDAT
; _this$ = ecx

; 4013 : 	inline ioPlayStage* GetCreator() { return m_pCreator; }

  00000	8b 81 44 03 00
	00		 mov	 eax, DWORD PTR [ecx+836]
  00006	c3		 ret	 0
?GetCreator@ioBaseChar@@QAEPAVioPlayStage@@XZ ENDP	; ioBaseChar::GetCreator
_TEXT	ENDS
PUBLIC	?GetBaseCharList@ioPlayStage@@QBEABV?$vector@PAVioBaseChar@@V?$allocator@PAVioBaseChar@@@std@@@std@@XZ ; ioPlayStage::GetBaseCharList
; Function compile flags: /Ogsp
; File d:\lost saga for developer\youtube\tutorial\source\src\lsclient\ioplaystage.h
;	COMDAT ?GetBaseCharList@ioPlayStage@@QBEABV?$vector@PAVioBaseChar@@V?$allocator@PAVioBaseChar@@@std@@@std@@XZ
_TEXT	SEGMENT
?GetBaseCharList@ioPlayStage@@QBEABV?$vector@PAVioBaseChar@@V?$allocator@PAVioBaseChar@@@std@@@std@@XZ PROC ; ioPlayStage::GetBaseCharList, COMDAT
; _this$ = ecx

; 755  : 	const BaseCharList& GetBaseCharList() const { return m_BaseCharList; }

  00000	8d 41 2c	 lea	 eax, DWORD PTR [ecx+44]
  00003	c3		 ret	 0
?GetBaseCharList@ioPlayStage@@QBEABV?$vector@PAVioBaseChar@@V?$allocator@PAVioBaseChar@@@std@@@std@@XZ ENDP ; ioPlayStage::GetBaseCharList
_TEXT	ENDS
PUBLIC	?_Adopt@_Iterator_base0@std@@QAEXPBX@Z		; std::_Iterator_base0::_Adopt
; Function compile flags: /Ogsp
; File c:\program files (x86)\microsoft visual studio 10.0\vc\include\xutility
;	COMDAT ?_Adopt@_Iterator_base0@std@@QAEXPBX@Z
_TEXT	SEGMENT
___formal$ = 8						; size = 4
?_Adopt@_Iterator_base0@std@@QAEXPBX@Z PROC		; std::_Iterator_base0::_Adopt, COMDAT
; _this$ = ecx

; 49   : 		}

  00000	c2 04 00	 ret	 4
?_Adopt@_Iterator_base0@std@@QAEXPBX@Z ENDP		; std::_Iterator_base0::_Adopt
_TEXT	ENDS
PUBLIC	?SetLiveTime@ioTraceWeapon6@@UAEXK@Z		; ioTraceWeapon6::SetLiveTime
; Function compile flags: /Ogsp
; File d:\lost saga for developer\youtube\tutorial\source\src\lsclient\iotraceweapon6.cpp
;	COMDAT ?SetLiveTime@ioTraceWeapon6@@UAEXK@Z
_TEXT	SEGMENT
_dwTime$ = 8						; size = 4
?SetLiveTime@ioTraceWeapon6@@UAEXK@Z PROC		; ioTraceWeapon6::SetLiveTime, COMDAT
; _this$ = ecx

; 138  : }

  00000	c2 04 00	 ret	 4
?SetLiveTime@ioTraceWeapon6@@UAEXK@Z ENDP		; ioTraceWeapon6::SetLiveTime
_TEXT	ENDS
PUBLIC	?TestMapCollision@ioTraceWeapon6@@UAE_NPAVioOpcodeShape@@PAVioPlayStage@@PBUD3DXMATRIX@@@Z ; ioTraceWeapon6::TestMapCollision
EXTRN	?GetWorldAttackBox@ioWeapon@@QBEABVioOrientBox@@_N@Z:PROC ; ioWeapon::GetWorldAttackBox
; Function compile flags: /Ogsp
;	COMDAT ?TestMapCollision@ioTraceWeapon6@@UAE_NPAVioOpcodeShape@@PAVioPlayStage@@PBUD3DXMATRIX@@@Z
_TEXT	SEGMENT
_pShape$ = 8						; size = 4
_pStage$ = 12						; size = 4
_pShapeWorldMat$ = 16					; size = 4
?TestMapCollision@ioTraceWeapon6@@UAE_NPAVioOpcodeShape@@PAVioPlayStage@@PBUD3DXMATRIX@@@Z PROC ; ioTraceWeapon6::TestMapCollision, COMDAT
; _this$ = ecx

; 179  : {

  00000	55		 push	 ebp
  00001	8b ec		 mov	 ebp, esp
  00003	53		 push	 ebx
  00004	56		 push	 esi
  00005	57		 push	 edi

; 180  : 	//pShape에 대한 맵 충돌 검사를 중지 하고자 할때 TRUE
; 181  : 	//일반 모드의 경우 월드 메쉬가 1개이지만 하우징시스템의 경우 N개 이기 때문에 TestMapCollision() 함수가 여러번 호출됨
; 182  : 
; 183  : 	if( pShape->TestIntersection( pShapeWorldMat, GetWorldAttackBox(true) ) )

  00006	8b 7d 08	 mov	 edi, DWORD PTR _pShape$[ebp]
  00009	8b 37		 mov	 esi, DWORD PTR [edi]
  0000b	6a 01		 push	 1
  0000d	8b d9		 mov	 ebx, ecx
  0000f	e8 00 00 00 00	 call	 ?GetWorldAttackBox@ioWeapon@@QBEABVioOrientBox@@_N@Z ; ioWeapon::GetWorldAttackBox
  00014	50		 push	 eax
  00015	ff 75 10	 push	 DWORD PTR _pShapeWorldMat$[ebp]
  00018	8b cf		 mov	 ecx, edi
  0001a	ff 56 24	 call	 DWORD PTR [esi+36]
  0001d	84 c0		 test	 al, al
  0001f	74 0e		 je	 SHORT $LN1@TestMapCol

; 184  : 	{
; 185  : 		m_State = TS_END;

  00021	c7 83 94 08 00
	00 04 00 00 00	 mov	 DWORD PTR [ebx+2196], 4

; 186  : 		return true;

  0002b	b0 01		 mov	 al, 1
  0002d	eb 02		 jmp	 SHORT $LN2@TestMapCol
$LN1@TestMapCol:

; 187  : 	}
; 188  : 
; 189  : 	return false;

  0002f	32 c0		 xor	 al, al
$LN2@TestMapCol:
  00031	5f		 pop	 edi
  00032	5e		 pop	 esi
  00033	5b		 pop	 ebx

; 190  : }

  00034	5d		 pop	 ebp
  00035	c2 0c 00	 ret	 12			; 0000000cH
?TestMapCollision@ioTraceWeapon6@@UAE_NPAVioOpcodeShape@@PAVioPlayStage@@PBUD3DXMATRIX@@@Z ENDP ; ioTraceWeapon6::TestMapCollision
_TEXT	ENDS
PUBLIC	?SetTraceTarget@ioTraceWeapon6@@QAEXAAVioHashString@@@Z ; ioTraceWeapon6::SetTraceTarget
EXTRN	__imp_??4ioHashString@@QAEAAV0@ABV0@@Z:PROC
; Function compile flags: /Ogsp
;	COMDAT ?SetTraceTarget@ioTraceWeapon6@@QAEXAAVioHashString@@@Z
_TEXT	SEGMENT
_szName$ = 8						; size = 4
?SetTraceTarget@ioTraceWeapon6@@QAEXAAVioHashString@@@Z PROC ; ioTraceWeapon6::SetTraceTarget, COMDAT
; _this$ = ecx

; 385  : {

  00000	55		 push	 ebp
  00001	8b ec		 mov	 ebp, esp

; 386  : 	m_TargetName = szName;

  00003	81 c1 e4 09 00
	00		 add	 ecx, 2532		; 000009e4H

; 387  : }

  00009	5d		 pop	 ebp

; 386  : 	m_TargetName = szName;

  0000a	ff 25 00 00 00
	00		 jmp	 DWORD PTR __imp_??4ioHashString@@QAEAAV0@ABV0@@Z
?SetTraceTarget@ioTraceWeapon6@@QAEXAAVioHashString@@@Z ENDP ; ioTraceWeapon6::SetTraceTarget
_TEXT	ENDS
PUBLIC	?SetReturnState@ioTraceWeapon6@@IAEXPAVioPlayStage@@@Z ; ioTraceWeapon6::SetReturnState
EXTRN	__imp_?Clear@ioHashString@@QAEXXZ:PROC
; Function compile flags: /Ogsp
;	COMDAT ?SetReturnState@ioTraceWeapon6@@IAEXPAVioPlayStage@@@Z
_TEXT	SEGMENT
_pStage$ = 8						; size = 4
?SetReturnState@ioTraceWeapon6@@IAEXPAVioPlayStage@@@Z PROC ; ioTraceWeapon6::SetReturnState, COMDAT
; _this$ = ecx

; 410  : 	m_State = TS_RETURNING;

  00000	c7 81 94 08 00
	00 03 00 00 00	 mov	 DWORD PTR [ecx+2196], 3

; 411  : 	m_TargetName.Clear();

  0000a	81 c1 e4 09 00
	00		 add	 ecx, 2532		; 000009e4H
  00010	ff 15 00 00 00
	00		 call	 DWORD PTR __imp_?Clear@ioHashString@@QAEXXZ

; 412  : }

  00016	c2 04 00	 ret	 4
?SetReturnState@ioTraceWeapon6@@IAEXPAVioPlayStage@@@Z ENDP ; ioTraceWeapon6::SetReturnState
_TEXT	ENDS
PUBLIC	?DestroyResource@ioTraceWeapon6@@UAEXPAVioPlayStage@@@Z ; ioTraceWeapon6::DestroyResource
EXTRN	__imp_?DestroyEffect@ioEffectFactory@@QAEXPAVioEffect@@@Z:PROC
EXTRN	__imp_?GetSingleton@ioEffectFactory@@SAAAV1@XZ:PROC
; Function compile flags: /Ogsp
;	COMDAT ?DestroyResource@ioTraceWeapon6@@UAEXPAVioPlayStage@@@Z
_TEXT	SEGMENT
_pStage$ = 8						; size = 4
?DestroyResource@ioTraceWeapon6@@UAEXPAVioPlayStage@@@Z PROC ; ioTraceWeapon6::DestroyResource, COMDAT
; _this$ = ecx

; 415  : {

  00000	56		 push	 esi

; 416  : 	if( m_pFireBall )

  00001	8d b1 28 0a 00
	00		 lea	 esi, DWORD PTR [ecx+2600]
  00007	8b 06		 mov	 eax, DWORD PTR [esi]
  00009	85 c0		 test	 eax, eax
  0000b	74 12		 je	 SHORT $LN1@DestroyRes

; 417  : 	{
; 418  : 		g_EffectFactory.DestroyEffect( m_pFireBall );

  0000d	50		 push	 eax
  0000e	ff 15 00 00 00
	00		 call	 DWORD PTR __imp_?GetSingleton@ioEffectFactory@@SAAAV1@XZ
  00014	8b c8		 mov	 ecx, eax
  00016	ff 15 00 00 00
	00		 call	 DWORD PTR __imp_?DestroyEffect@ioEffectFactory@@QAEXPAVioEffect@@@Z

; 419  : 		m_pFireBall = NULL;

  0001c	83 26 00	 and	 DWORD PTR [esi], 0
$LN1@DestroyRes:
  0001f	5e		 pop	 esi

; 420  : 	}
; 421  : }

  00020	c2 04 00	 ret	 4
?DestroyResource@ioTraceWeapon6@@UAEXPAVioPlayStage@@@Z ENDP ; ioTraceWeapon6::DestroyResource
_TEXT	ENDS
PUBLIC	?GetLocalAttackBox@ioTraceWeapon6@@UBEABVioOrientBox@@XZ ; ioTraceWeapon6::GetLocalAttackBox
EXTRN	?GetLocalAttackBox@ioWeapon@@UBEABVioOrientBox@@XZ:PROC ; ioWeapon::GetLocalAttackBox
EXTRN	__imp_?GetCollisionBox@ioEffect@@QBEABVioOrientBox@@XZ:PROC
; Function compile flags: /Ogsp
;	COMDAT ?GetLocalAttackBox@ioTraceWeapon6@@UBEABVioOrientBox@@XZ
_TEXT	SEGMENT
?GetLocalAttackBox@ioTraceWeapon6@@UBEABVioOrientBox@@XZ PROC ; ioTraceWeapon6::GetLocalAttackBox, COMDAT
; _this$ = ecx

; 425  : 	if( m_pFireBall )

  00000	8b 81 28 0a 00
	00		 mov	 eax, DWORD PTR [ecx+2600]
  00006	85 c0		 test	 eax, eax
  00008	74 08		 je	 SHORT $LN1@GetLocalAt

; 426  : 		return m_pFireBall->GetCollisionBox();

  0000a	8b c8		 mov	 ecx, eax
  0000c	ff 25 00 00 00
	00		 jmp	 DWORD PTR __imp_?GetCollisionBox@ioEffect@@QBEABVioOrientBox@@XZ
$LN1@GetLocalAt:

; 427  : 
; 428  : 	return ioWeapon::GetLocalAttackBox();

  00012	e9 00 00 00 00	 jmp	 ?GetLocalAttackBox@ioWeapon@@UBEABVioOrientBox@@XZ ; ioWeapon::GetLocalAttackBox
?GetLocalAttackBox@ioTraceWeapon6@@UBEABVioOrientBox@@XZ ENDP ; ioTraceWeapon6::GetLocalAttackBox
_TEXT	ENDS
PUBLIC	?GetType@ioTraceWeapon6@@UBE?AW4WeaponType@ioWeapon@@XZ ; ioTraceWeapon6::GetType
; Function compile flags: /Ogsp
;	COMDAT ?GetType@ioTraceWeapon6@@UBE?AW4WeaponType@ioWeapon@@XZ
_TEXT	SEGMENT
?GetType@ioTraceWeapon6@@UBE?AW4WeaponType@ioWeapon@@XZ PROC ; ioTraceWeapon6::GetType, COMDAT
; _this$ = ecx

; 433  : 	return WT_TRACE6;

  00000	6a 44		 push	 68			; 00000044H
  00002	58		 pop	 eax

; 434  : }

  00003	c3		 ret	 0
?GetType@ioTraceWeapon6@@UBE?AW4WeaponType@ioWeapon@@XZ ENDP ; ioTraceWeapon6::GetType
_TEXT	ENDS
PUBLIC	?GetActionStopType@ioTraceWeapon6@@UBE?AW4ActionStopType@@XZ ; ioTraceWeapon6::GetActionStopType
; Function compile flags: /Ogsp
;	COMDAT ?GetActionStopType@ioTraceWeapon6@@UBE?AW4ActionStopType@@XZ
_TEXT	SEGMENT
?GetActionStopType@ioTraceWeapon6@@UBE?AW4ActionStopType@@XZ PROC ; ioTraceWeapon6::GetActionStopType, COMDAT
; _this$ = ecx

; 438  : 	return m_ActionStopType;

  00000	a1 00 00 00 00	 mov	 eax, DWORD PTR ?m_ActionStopType@ioTraceWeapon6@@2W4ActionStopType@@A ; ioTraceWeapon6::m_ActionStopType

; 439  : }

  00005	c3		 ret	 0
?GetActionStopType@ioTraceWeapon6@@UBE?AW4ActionStopType@@XZ ENDP ; ioTraceWeapon6::GetActionStopType
_TEXT	ENDS
PUBLIC	?GetDieActionStopType@ioTraceWeapon6@@UBE?AW4ActionStopType@@XZ ; ioTraceWeapon6::GetDieActionStopType
; Function compile flags: /Ogsp
;	COMDAT ?GetDieActionStopType@ioTraceWeapon6@@UBE?AW4ActionStopType@@XZ
_TEXT	SEGMENT
?GetDieActionStopType@ioTraceWeapon6@@UBE?AW4ActionStopType@@XZ PROC ; ioTraceWeapon6::GetDieActionStopType, COMDAT
; _this$ = ecx

; 443  : 	return m_DieActionStopType;

  00000	a1 00 00 00 00	 mov	 eax, DWORD PTR ?m_DieActionStopType@ioTraceWeapon6@@2W4ActionStopType@@A ; ioTraceWeapon6::m_DieActionStopType

; 444  : }

  00005	c3		 ret	 0
?GetDieActionStopType@ioTraceWeapon6@@UBE?AW4ActionStopType@@XZ ENDP ; ioTraceWeapon6::GetDieActionStopType
_TEXT	ENDS
PUBLIC	?GetCollisionEnableTime@ioTraceWeapon6@@UBEKXZ	; ioTraceWeapon6::GetCollisionEnableTime
; Function compile flags: /Ogsp
;	COMDAT ?GetCollisionEnableTime@ioTraceWeapon6@@UBEKXZ
_TEXT	SEGMENT
?GetCollisionEnableTime@ioTraceWeapon6@@UBEKXZ PROC	; ioTraceWeapon6::GetCollisionEnableTime, COMDAT
; _this$ = ecx

; 468  : {

  00000	56		 push	 esi
  00001	8b f1		 mov	 esi, ecx

; 469  : 	return m_dwCreatedTime + GetAttribute()->m_dwCollisionDelay;

  00003	8b 06		 mov	 eax, DWORD PTR [esi]
  00005	ff 90 3c 01 00
	00		 call	 DWORD PTR [eax+316]
  0000b	8b 80 c4 01 00
	00		 mov	 eax, DWORD PTR [eax+452]
  00011	03 86 d4 04 00
	00		 add	 eax, DWORD PTR [esi+1236]
  00017	5e		 pop	 esi

; 470  : }

  00018	c3		 ret	 0
?GetCollisionEnableTime@ioTraceWeapon6@@UBEKXZ ENDP	; ioTraceWeapon6::GetCollisionEnableTime
_TEXT	ENDS
PUBLIC	?IsEnableTargetState@ioTraceWeapon6@@IAE_NPAVioBaseChar@@@Z ; ioTraceWeapon6::IsEnableTargetState
EXTRN	?CheckTargetWoundType@ioBaseChar@@QAE_NW4TargetWoundType@@@Z:PROC ; ioBaseChar::CheckTargetWoundType
EXTRN	?IsEnableTarget@ioBaseChar@@QAE_N_N0@Z:PROC	; ioBaseChar::IsEnableTarget
EXTRN	?IsSystemState@ioBaseChar@@QAE_NXZ:PROC		; ioBaseChar::IsSystemState
; Function compile flags: /Ogsp
;	COMDAT ?IsEnableTargetState@ioTraceWeapon6@@IAE_NPAVioBaseChar@@@Z
_TEXT	SEGMENT
_pChar$ = 8						; size = 4
?IsEnableTargetState@ioTraceWeapon6@@IAE_NPAVioBaseChar@@@Z PROC ; ioTraceWeapon6::IsEnableTargetState, COMDAT
; _this$ = ecx

; 473  : {

  00000	55		 push	 ebp
  00001	8b ec		 mov	 ebp, esp
  00003	56		 push	 esi

; 474  : 	if( !pChar )

  00004	8b 75 08	 mov	 esi, DWORD PTR _pChar$[ebp]
  00007	57		 push	 edi
  00008	8b f9		 mov	 edi, ecx
  0000a	85 f6		 test	 esi, esi
  0000c	75 04		 jne	 SHORT $LN4@IsEnableTa
$LN7@IsEnableTa:

; 475  : 		return false;

  0000e	32 c0		 xor	 al, al
  00010	eb 2c		 jmp	 SHORT $LN1@IsEnableTa
$LN4@IsEnableTa:

; 476  : 
; 477  : 	if( pChar->IsSystemState() )

  00012	8b ce		 mov	 ecx, esi
  00014	e8 00 00 00 00	 call	 ?IsSystemState@ioBaseChar@@QAE_NXZ ; ioBaseChar::IsSystemState
  00019	84 c0		 test	 al, al

; 478  : 		return false;

  0001b	75 f1		 jne	 SHORT $LN7@IsEnableTa

; 479  : 
; 480  : 	if( !pChar->IsEnableTarget() )

  0001d	6a 01		 push	 1
  0001f	6a 01		 push	 1
  00021	8b ce		 mov	 ecx, esi
  00023	e8 00 00 00 00	 call	 ?IsEnableTarget@ioBaseChar@@QAE_N_N0@Z ; ioBaseChar::IsEnableTarget
  00028	84 c0		 test	 al, al

; 481  : 		return false;

  0002a	74 e2		 je	 SHORT $LN7@IsEnableTa

; 482  : 
; 483  : 	if( !pChar->CheckTargetWoundType(m_TargetWoundType) )

  0002c	ff b7 cc 08 00
	00		 push	 DWORD PTR [edi+2252]
  00032	8b ce		 mov	 ecx, esi
  00034	e8 00 00 00 00	 call	 ?CheckTargetWoundType@ioBaseChar@@QAE_NW4TargetWoundType@@@Z ; ioBaseChar::CheckTargetWoundType
  00039	84 c0		 test	 al, al
  0003b	0f 95 c0	 setne	 al
$LN1@IsEnableTa:
  0003e	5f		 pop	 edi
  0003f	5e		 pop	 esi

; 484  : 		return false;
; 485  : 
; 486  : 	return true;
; 487  : }

  00040	5d		 pop	 ebp
  00041	c2 04 00	 ret	 4
?IsEnableTargetState@ioTraceWeapon6@@IAE_NPAVioBaseChar@@@Z ENDP ; ioTraceWeapon6::IsEnableTargetState
_TEXT	ENDS
PUBLIC	__real@00000000
PUBLIC	?GetMoveSpeed@ioTraceWeapon6@@IAEMXZ		; ioTraceWeapon6::GetMoveSpeed
;	COMDAT __real@00000000
CONST	SEGMENT
__real@00000000 DD 000000000r			; 0
; Function compile flags: /Ogsp
CONST	ENDS
;	COMDAT ?GetMoveSpeed@ioTraceWeapon6@@IAEMXZ
_TEXT	SEGMENT
?GetMoveSpeed@ioTraceWeapon6@@IAEMXZ PROC		; ioTraceWeapon6::GetMoveSpeed, COMDAT
; _this$ = ecx

; 534  : {

  00000	56		 push	 esi
  00001	8b f1		 mov	 esi, ecx

; 535  : 	if( m_fCurMoveSpeed == 0.0f )

  00003	f3 0f 10 86 c4
	08 00 00	 movss	 xmm0, DWORD PTR [esi+2244]
  0000b	0f 2e 05 00 00
	00 00		 ucomiss xmm0, DWORD PTR __real@00000000
  00012	9f		 lahf
  00013	f6 c4 44	 test	 ah, 68			; 00000044H
  00016	7a 14		 jp	 SHORT $LN1@GetMoveSpe

; 536  : 		m_fCurMoveSpeed = GetAttribute()->m_fMoveSpeed;

  00018	8b 06		 mov	 eax, DWORD PTR [esi]
  0001a	ff 90 3c 01 00
	00		 call	 DWORD PTR [eax+316]
  00020	d9 80 98 01 00
	00		 fld	 DWORD PTR [eax+408]
  00026	d9 9e c4 08 00
	00		 fstp	 DWORD PTR [esi+2244]
$LN1@GetMoveSpe:

; 537  : 
; 538  : 	return m_fCurMoveSpeed;

  0002c	d9 86 c4 08 00
	00		 fld	 DWORD PTR [esi+2244]
  00032	5e		 pop	 esi

; 539  : }

  00033	c3		 ret	 0
?GetMoveSpeed@ioTraceWeapon6@@IAEMXZ ENDP		; ioTraceWeapon6::GetMoveSpeed
_TEXT	ENDS
PUBLIC	?SetWeaponDead@ioTraceWeapon6@@UAEXXZ		; ioTraceWeapon6::SetWeaponDead
EXTRN	?CreateMapEffect@ioPlayStage@@QAEPAVioMapEffect@@ABVioHashString@@ABUD3DXVECTOR3@@1@Z:PROC ; ioPlayStage::CreateMapEffect
EXTRN	?GetExplosionEffectName@ioWeapon@@QBEABVioHashString@@XZ:PROC ; ioWeapon::GetExplosionEffectName
EXTRN	__imp_?GetCenter@ioOrientBox@@QBEABUD3DXVECTOR3@@XZ:PROC
EXTRN	?GetScale@ioWeapon@@QBEABUD3DXVECTOR3@@XZ:PROC	; ioWeapon::GetScale
EXTRN	?GetOwner@ioWeapon@@QBEPAVioBaseChar@@XZ:PROC	; ioWeapon::GetOwner
; Function compile flags: /Ogsp
;	COMDAT ?SetWeaponDead@ioTraceWeapon6@@UAEXXZ
_TEXT	SEGMENT
?SetWeaponDead@ioTraceWeapon6@@UAEXXZ PROC		; ioTraceWeapon6::SetWeaponDead, COMDAT
; _this$ = ecx

; 676  : {

  00000	56		 push	 esi
  00001	8b f1		 mov	 esi, ecx

; 677  : 	if( GetOwner() && GetOwner()->GetCreator() )

  00003	e8 00 00 00 00	 call	 ?GetOwner@ioWeapon@@QBEPAVioBaseChar@@XZ ; ioWeapon::GetOwner
  00008	85 c0		 test	 eax, eax
  0000a	74 4f		 je	 SHORT $LN1@SetWeaponD
  0000c	8b ce		 mov	 ecx, esi
  0000e	e8 00 00 00 00	 call	 ?GetOwner@ioWeapon@@QBEPAVioBaseChar@@XZ ; ioWeapon::GetOwner
  00013	83 b8 44 03 00
	00 00		 cmp	 DWORD PTR [eax+836], 0
  0001a	74 3f		 je	 SHORT $LN1@SetWeaponD

; 678  : 	{
; 679  : 		GetOwner()->GetCreator()->CreateMapEffect( GetExplosionEffectName(), GetWorldAttackBox().GetCenter(), GetScale() );

  0001c	57		 push	 edi
  0001d	8b ce		 mov	 ecx, esi
  0001f	e8 00 00 00 00	 call	 ?GetOwner@ioWeapon@@QBEPAVioBaseChar@@XZ ; ioWeapon::GetOwner
  00024	8b b8 44 03 00
	00		 mov	 edi, DWORD PTR [eax+836]
  0002a	8b ce		 mov	 ecx, esi
  0002c	e8 00 00 00 00	 call	 ?GetScale@ioWeapon@@QBEABUD3DXVECTOR3@@XZ ; ioWeapon::GetScale
  00031	50		 push	 eax
  00032	6a 00		 push	 0
  00034	8b ce		 mov	 ecx, esi
  00036	e8 00 00 00 00	 call	 ?GetWorldAttackBox@ioWeapon@@QBEABVioOrientBox@@_N@Z ; ioWeapon::GetWorldAttackBox
  0003b	8b c8		 mov	 ecx, eax
  0003d	ff 15 00 00 00
	00		 call	 DWORD PTR __imp_?GetCenter@ioOrientBox@@QBEABUD3DXVECTOR3@@XZ
  00043	50		 push	 eax
  00044	8b ce		 mov	 ecx, esi
  00046	e8 00 00 00 00	 call	 ?GetExplosionEffectName@ioWeapon@@QBEABVioHashString@@XZ ; ioWeapon::GetExplosionEffectName
  0004b	50		 push	 eax
  0004c	8b cf		 mov	 ecx, edi
  0004e	e8 00 00 00 00	 call	 ?CreateMapEffect@ioPlayStage@@QAEPAVioMapEffect@@ABVioHashString@@ABUD3DXVECTOR3@@1@Z ; ioPlayStage::CreateMapEffect

; 680  : 		PlayExplosionSound();

  00053	8b 06		 mov	 eax, DWORD PTR [esi]
  00055	8b ce		 mov	 ecx, esi
  00057	ff 50 50	 call	 DWORD PTR [eax+80]
  0005a	5f		 pop	 edi
$LN1@SetWeaponD:

; 681  : 	}
; 682  : 
; 683  : 	StopLoopSound();

  0005b	8b 06		 mov	 eax, DWORD PTR [esi]
  0005d	8b ce		 mov	 ecx, esi
  0005f	ff 50 60	 call	 DWORD PTR [eax+96]

; 684  : 	m_bLive = false;

  00062	c6 86 82 05 00
	00 00		 mov	 BYTE PTR [esi+1410], 0
  00069	5e		 pop	 esi

; 685  : }

  0006a	c3		 ret	 0
?SetWeaponDead@ioTraceWeapon6@@UAEXXZ ENDP		; ioTraceWeapon6::SetWeaponDead
_TEXT	ENDS
PUBLIC	??1exReserveWeaponCollisionInfo@@QAE@XZ		; exReserveWeaponCollisionInfo::~exReserveWeaponCollisionInfo
EXTRN	__imp_??1ioHashString@@QAE@XZ:PROC
; Function compile flags: /Ogsp
;	COMDAT ??1exReserveWeaponCollisionInfo@@QAE@XZ
_TEXT	SEGMENT
??1exReserveWeaponCollisionInfo@@QAE@XZ PROC		; exReserveWeaponCollisionInfo::~exReserveWeaponCollisionInfo, COMDAT
; _this$ = ecx
  00000	ff 25 00 00 00
	00		 jmp	 DWORD PTR __imp_??1ioHashString@@QAE@XZ
??1exReserveWeaponCollisionInfo@@QAE@XZ ENDP		; exReserveWeaponCollisionInfo::~exReserveWeaponCollisionInfo
_TEXT	ENDS
PUBLIC	?IsIgnoreTestMapCollision@ioTraceWeapon6@@UBE_NXZ ; ioTraceWeapon6::IsIgnoreTestMapCollision
; Function compile flags: /Ogsp
;	COMDAT ?IsIgnoreTestMapCollision@ioTraceWeapon6@@UBE_NXZ
_TEXT	SEGMENT
?IsIgnoreTestMapCollision@ioTraceWeapon6@@UBE_NXZ PROC	; ioTraceWeapon6::IsIgnoreTestMapCollision, COMDAT
; _this$ = ecx

; 697  : 	return true;

  00000	b0 01		 mov	 al, 1

; 698  : }

  00002	c3		 ret	 0
?IsIgnoreTestMapCollision@ioTraceWeapon6@@UBE_NXZ ENDP	; ioTraceWeapon6::IsIgnoreTestMapCollision
_TEXT	ENDS
PUBLIC	?empty@?$vector@UChangeDirInfo@@V?$allocator@UChangeDirInfo@@@std@@@std@@QBE_NXZ ; std::vector<ChangeDirInfo,std::allocator<ChangeDirInfo> >::empty
; Function compile flags: /Ogsp
; File c:\program files (x86)\microsoft visual studio 10.0\vc\include\vector
;	COMDAT ?empty@?$vector@UChangeDirInfo@@V?$allocator@UChangeDirInfo@@@std@@@std@@QBE_NXZ
_TEXT	SEGMENT
?empty@?$vector@UChangeDirInfo@@V?$allocator@UChangeDirInfo@@@std@@@std@@QBE_NXZ PROC ; std::vector<ChangeDirInfo,std::allocator<ChangeDirInfo> >::empty, COMDAT
; _this$ = ecx

; 889  : 		return (this->_Myfirst == this->_Mylast);

  00000	8b 01		 mov	 eax, DWORD PTR [ecx]
  00002	2b 41 04	 sub	 eax, DWORD PTR [ecx+4]
  00005	f7 d8		 neg	 eax
  00007	1b c0		 sbb	 eax, eax
  00009	40		 inc	 eax

; 890  : 		}

  0000a	c3		 ret	 0
?empty@?$vector@UChangeDirInfo@@V?$allocator@UChangeDirInfo@@@std@@@std@@QBE_NXZ ENDP ; std::vector<ChangeDirInfo,std::allocator<ChangeDirInfo> >::empty
_TEXT	ENDS
PUBLIC	??A?$vector@UChangeDirInfo@@V?$allocator@UChangeDirInfo@@@std@@@std@@QAEAAUChangeDirInfo@@I@Z ; std::vector<ChangeDirInfo,std::allocator<ChangeDirInfo> >::operator[]
; Function compile flags: /Ogsp
;	COMDAT ??A?$vector@UChangeDirInfo@@V?$allocator@UChangeDirInfo@@@std@@@std@@QAEAAUChangeDirInfo@@I@Z
_TEXT	SEGMENT
__Pos$ = 8						; size = 4
??A?$vector@UChangeDirInfo@@V?$allocator@UChangeDirInfo@@@std@@@std@@QAEAAUChangeDirInfo@@I@Z PROC ; std::vector<ChangeDirInfo,std::allocator<ChangeDirInfo> >::operator[], COMDAT
; _this$ = ecx

; 928  : 		{	// subscript mutable sequence

  00000	55		 push	 ebp
  00001	8b ec		 mov	 ebp, esp

; 929  :  #if _ITERATOR_DEBUG_LEVEL == 2
; 930  : 		if (size() <= _Pos)
; 931  : 			{	// report error
; 932  : 			_DEBUG_ERROR("vector subscript out of range");
; 933  : 			_SCL_SECURE_OUT_OF_RANGE;
; 934  : 			}
; 935  : 
; 936  :  #elif _ITERATOR_DEBUG_LEVEL == 1
; 937  : 		_SCL_SECURE_VALIDATE_RANGE(_Pos < size());
; 938  :  #endif /* _ITERATOR_DEBUG_LEVEL */
; 939  : 
; 940  : 		return (*(this->_Myfirst + _Pos));

  00003	8b 45 08	 mov	 eax, DWORD PTR __Pos$[ebp]
  00006	6b c0 1c	 imul	 eax, 28			; 0000001cH
  00009	03 01		 add	 eax, DWORD PTR [ecx]

; 941  : 		}

  0000b	5d		 pop	 ebp
  0000c	c2 04 00	 ret	 4
??A?$vector@UChangeDirInfo@@V?$allocator@UChangeDirInfo@@@std@@@std@@QAEAAUChangeDirInfo@@I@Z ENDP ; std::vector<ChangeDirInfo,std::allocator<ChangeDirInfo> >::operator[]
_TEXT	ENDS
PUBLIC	??0?$_Vector_const_iterator@V?$_Vector_val@PAVioBaseChar@@V?$allocator@PAVioBaseChar@@@std@@@std@@@std@@QAE@XZ ; std::_Vector_const_iterator<std::_Vector_val<ioBaseChar *,std::allocator<ioBaseChar *> > >::_Vector_const_iterator<std::_Vector_val<ioBaseChar *,std::allocator<ioBaseChar *> > >
; Function compile flags: /Ogsp
;	COMDAT ??0?$_Vector_const_iterator@V?$_Vector_val@PAVioBaseChar@@V?$allocator@PAVioBaseChar@@@std@@@std@@@std@@QAE@XZ
_TEXT	SEGMENT
??0?$_Vector_const_iterator@V?$_Vector_val@PAVioBaseChar@@V?$allocator@PAVioBaseChar@@@std@@@std@@@std@@QAE@XZ PROC ; std::_Vector_const_iterator<std::_Vector_val<ioBaseChar *,std::allocator<ioBaseChar *> > >::_Vector_const_iterator<std::_Vector_val<ioBaseChar *,std::allocator<ioBaseChar *> > >, COMDAT
; _this$ = ecx

; 40   : 		{	// construct with null pointer

  00000	8b c1		 mov	 eax, ecx
  00002	83 20 00	 and	 DWORD PTR [eax], 0

; 41   : 		}

  00005	c3		 ret	 0
??0?$_Vector_const_iterator@V?$_Vector_val@PAVioBaseChar@@V?$allocator@PAVioBaseChar@@@std@@@std@@@std@@QAE@XZ ENDP ; std::_Vector_const_iterator<std::_Vector_val<ioBaseChar *,std::allocator<ioBaseChar *> > >::_Vector_const_iterator<std::_Vector_val<ioBaseChar *,std::allocator<ioBaseChar *> > >
_TEXT	ENDS
PUBLIC	??D?$_Vector_const_iterator@V?$_Vector_val@PAVioBaseChar@@V?$allocator@PAVioBaseChar@@@std@@@std@@@std@@QBEABQAVioBaseChar@@XZ ; std::_Vector_const_iterator<std::_Vector_val<ioBaseChar *,std::allocator<ioBaseChar *> > >::operator*
; Function compile flags: /Ogsp
;	COMDAT ??D?$_Vector_const_iterator@V?$_Vector_val@PAVioBaseChar@@V?$allocator@PAVioBaseChar@@@std@@@std@@@std@@QBEABQAVioBaseChar@@XZ
_TEXT	SEGMENT
??D?$_Vector_const_iterator@V?$_Vector_val@PAVioBaseChar@@V?$allocator@PAVioBaseChar@@@std@@@std@@@std@@QBEABQAVioBaseChar@@XZ PROC ; std::_Vector_const_iterator<std::_Vector_val<ioBaseChar *,std::allocator<ioBaseChar *> > >::operator*, COMDAT
; _this$ = ecx

; 64   :  #if _ITERATOR_DEBUG_LEVEL == 2
; 65   : 		if (this->_Getcont() == 0
; 66   : 			|| this->_Ptr == 0
; 67   : 			|| this->_Ptr < ((_Myvec *)this->_Getcont())->_Myfirst
; 68   : 			|| ((_Myvec *)this->_Getcont())->_Mylast <= this->_Ptr)
; 69   : 			{	// report error
; 70   : 			_DEBUG_ERROR("vector iterator not dereferencable");
; 71   : 			_SCL_SECURE_OUT_OF_RANGE;
; 72   : 			}
; 73   : 
; 74   :  #elif _ITERATOR_DEBUG_LEVEL == 1
; 75   : 		_SCL_SECURE_VALIDATE(this->_Getcont() != 0);
; 76   : 		_SCL_SECURE_VALIDATE_RANGE(
; 77   : 			this->_Ptr != 0
; 78   : 			&& ((_Myvec *)this->_Getcont())->_Myfirst <= this->_Ptr
; 79   : 			&& this->_Ptr < ((_Myvec *)this->_Getcont())->_Mylast);
; 80   :  #endif /* _ITERATOR_DEBUG_LEVEL */
; 81   : 
; 82   : 		__analysis_assume(this->_Ptr != 0);
; 83   : 
; 84   : 		return (*this->_Ptr);

  00000	8b 01		 mov	 eax, DWORD PTR [ecx]

; 85   : 		}

  00002	c3		 ret	 0
??D?$_Vector_const_iterator@V?$_Vector_val@PAVioBaseChar@@V?$allocator@PAVioBaseChar@@@std@@@std@@@std@@QBEABQAVioBaseChar@@XZ ENDP ; std::_Vector_const_iterator<std::_Vector_val<ioBaseChar *,std::allocator<ioBaseChar *> > >::operator*
_TEXT	ENDS
PUBLIC	??E?$_Vector_const_iterator@V?$_Vector_val@PAVioBaseChar@@V?$allocator@PAVioBaseChar@@@std@@@std@@@std@@QAEAAV01@XZ ; std::_Vector_const_iterator<std::_Vector_val<ioBaseChar *,std::allocator<ioBaseChar *> > >::operator++
; Function compile flags: /Ogsp
;	COMDAT ??E?$_Vector_const_iterator@V?$_Vector_val@PAVioBaseChar@@V?$allocator@PAVioBaseChar@@@std@@@std@@@std@@QAEAAV01@XZ
_TEXT	SEGMENT
??E?$_Vector_const_iterator@V?$_Vector_val@PAVioBaseChar@@V?$allocator@PAVioBaseChar@@@std@@@std@@@std@@QAEAAV01@XZ PROC ; std::_Vector_const_iterator<std::_Vector_val<ioBaseChar *,std::allocator<ioBaseChar *> > >::operator++, COMDAT
; _this$ = ecx

; 93   : 		{	// preincrement

  00000	8b c1		 mov	 eax, ecx

; 94   :  #if _ITERATOR_DEBUG_LEVEL == 2
; 95   : 		if (this->_Getcont() == 0
; 96   : 			|| this->_Ptr == 0
; 97   : 			|| ((_Myvec *)this->_Getcont())->_Mylast <= this->_Ptr)
; 98   : 			{	// report error
; 99   : 			_DEBUG_ERROR("vector iterator not incrementable");
; 100  : 			_SCL_SECURE_OUT_OF_RANGE;
; 101  : 			}
; 102  : 
; 103  :  #elif _ITERATOR_DEBUG_LEVEL == 1
; 104  : 		_SCL_SECURE_VALIDATE(this->_Getcont() != 0);
; 105  : 		_SCL_SECURE_VALIDATE_RANGE(
; 106  : 			this->_Ptr != 0
; 107  : 			&& this->_Ptr < ((_Myvec *)this->_Getcont())->_Mylast);
; 108  :  #endif /* _ITERATOR_DEBUG_LEVEL */
; 109  : 
; 110  : 		++this->_Ptr;

  00002	83 00 04	 add	 DWORD PTR [eax], 4

; 111  : 		return (*this);
; 112  : 		}

  00005	c3		 ret	 0
??E?$_Vector_const_iterator@V?$_Vector_val@PAVioBaseChar@@V?$allocator@PAVioBaseChar@@@std@@@std@@@std@@QAEAAV01@XZ ENDP ; std::_Vector_const_iterator<std::_Vector_val<ioBaseChar *,std::allocator<ioBaseChar *> > >::operator++
_TEXT	ENDS
PUBLIC	?capacity@?$vector@UChangeDirInfo@@V?$allocator@UChangeDirInfo@@@std@@@std@@QBEIXZ ; std::vector<ChangeDirInfo,std::allocator<ChangeDirInfo> >::capacity
; Function compile flags: /Ogsp
;	COMDAT ?capacity@?$vector@UChangeDirInfo@@V?$allocator@UChangeDirInfo@@@std@@@std@@QBEIXZ
_TEXT	SEGMENT
?capacity@?$vector@UChangeDirInfo@@V?$allocator@UChangeDirInfo@@@std@@@std@@QBEIXZ PROC ; std::vector<ChangeDirInfo,std::allocator<ChangeDirInfo> >::capacity, COMDAT
; _this$ = ecx

; 777  : 		return (this->_Myend - this->_Myfirst);

  00000	8b 41 08	 mov	 eax, DWORD PTR [ecx+8]
  00003	2b 01		 sub	 eax, DWORD PTR [ecx]
  00005	6a 1c		 push	 28			; 0000001cH
  00007	99		 cdq
  00008	59		 pop	 ecx
  00009	f7 f9		 idiv	 ecx

; 778  : 		}

  0000b	c3		 ret	 0
?capacity@?$vector@UChangeDirInfo@@V?$allocator@UChangeDirInfo@@@std@@@std@@QBEIXZ ENDP ; std::vector<ChangeDirInfo,std::allocator<ChangeDirInfo> >::capacity
_TEXT	ENDS
PUBLIC	?size@?$vector@UChangeDirInfo@@V?$allocator@UChangeDirInfo@@@std@@@std@@QBEIXZ ; std::vector<ChangeDirInfo,std::allocator<ChangeDirInfo> >::size
; Function compile flags: /Ogsp
;	COMDAT ?size@?$vector@UChangeDirInfo@@V?$allocator@UChangeDirInfo@@@std@@@std@@QBEIXZ
_TEXT	SEGMENT
?size@?$vector@UChangeDirInfo@@V?$allocator@UChangeDirInfo@@@std@@@std@@QBEIXZ PROC ; std::vector<ChangeDirInfo,std::allocator<ChangeDirInfo> >::size, COMDAT
; _this$ = ecx

; 879  : 		return (this->_Mylast - this->_Myfirst);

  00000	8b 41 04	 mov	 eax, DWORD PTR [ecx+4]
  00003	2b 01		 sub	 eax, DWORD PTR [ecx]
  00005	6a 1c		 push	 28			; 0000001cH
  00007	99		 cdq
  00008	59		 pop	 ecx
  00009	f7 f9		 idiv	 ecx

; 880  : 		}

  0000b	c3		 ret	 0
?size@?$vector@UChangeDirInfo@@V?$allocator@UChangeDirInfo@@@std@@@std@@QBEIXZ ENDP ; std::vector<ChangeDirInfo,std::allocator<ChangeDirInfo> >::size
_TEXT	ENDS
PUBLIC	?_Inside@?$vector@UChangeDirInfo@@V?$allocator@UChangeDirInfo@@@std@@@std@@IBE_NPBUChangeDirInfo@@@Z ; std::vector<ChangeDirInfo,std::allocator<ChangeDirInfo> >::_Inside
; Function compile flags: /Ogsp
;	COMDAT ?_Inside@?$vector@UChangeDirInfo@@V?$allocator@UChangeDirInfo@@@std@@@std@@IBE_NPBUChangeDirInfo@@@Z
_TEXT	SEGMENT
__Ptr$ = 8						; size = 4
?_Inside@?$vector@UChangeDirInfo@@V?$allocator@UChangeDirInfo@@@std@@@std@@IBE_NPBUChangeDirInfo@@@Z PROC ; std::vector<ChangeDirInfo,std::allocator<ChangeDirInfo> >::_Inside, COMDAT
; _this$ = ecx

; 1285 : 		{	// test if _Ptr points inside vector

  00000	55		 push	 ebp
  00001	8b ec		 mov	 ebp, esp

; 1286 : 		return (_Ptr < this->_Mylast && this->_Myfirst <= _Ptr);

  00003	8b 45 08	 mov	 eax, DWORD PTR __Ptr$[ebp]
  00006	3b 41 04	 cmp	 eax, DWORD PTR [ecx+4]
  00009	73 09		 jae	 SHORT $LN3@Inside
  0000b	39 01		 cmp	 DWORD PTR [ecx], eax
  0000d	77 05		 ja	 SHORT $LN3@Inside
  0000f	33 c0		 xor	 eax, eax
  00011	40		 inc	 eax
  00012	eb 02		 jmp	 SHORT $LN4@Inside
$LN3@Inside:
  00014	33 c0		 xor	 eax, eax
$LN4@Inside:

; 1287 : 		}

  00016	5d		 pop	 ebp
  00017	c2 04 00	 ret	 4
?_Inside@?$vector@UChangeDirInfo@@V?$allocator@UChangeDirInfo@@@std@@@std@@IBE_NPBUChangeDirInfo@@@Z ENDP ; std::vector<ChangeDirInfo,std::allocator<ChangeDirInfo> >::_Inside
_TEXT	ENDS
PUBLIC	??_C@_0BD@OLBABOEK@vector?$DMT?$DO?5too?5long?$AA@ ; `string'
PUBLIC	?_Xlen@?$vector@UChangeDirInfo@@V?$allocator@UChangeDirInfo@@@std@@@std@@IBEXXZ ; std::vector<ChangeDirInfo,std::allocator<ChangeDirInfo> >::_Xlen
EXTRN	__imp_?_Xlength_error@std@@YAXPBD@Z:PROC
;	COMDAT ??_C@_0BD@OLBABOEK@vector?$DMT?$DO?5too?5long?$AA@
CONST	SEGMENT
??_C@_0BD@OLBABOEK@vector?$DMT?$DO?5too?5long?$AA@ DB 'vector<T> too long'
	DB	00H						; `string'
; Function compile flags: /Ogsp
CONST	ENDS
;	COMDAT ?_Xlen@?$vector@UChangeDirInfo@@V?$allocator@UChangeDirInfo@@@std@@@std@@IBEXXZ
_TEXT	SEGMENT
?_Xlen@?$vector@UChangeDirInfo@@V?$allocator@UChangeDirInfo@@@std@@@std@@IBEXXZ PROC ; std::vector<ChangeDirInfo,std::allocator<ChangeDirInfo> >::_Xlen, COMDAT
; _this$ = ecx

; 1427 : 		_Xlength_error("vector<T> too long");

  00000	68 00 00 00 00	 push	 OFFSET ??_C@_0BD@OLBABOEK@vector?$DMT?$DO?5too?5long?$AA@
  00005	ff 15 00 00 00
	00		 call	 DWORD PTR __imp_?_Xlength_error@std@@YAXPBD@Z
$LN4@Xlen:
$LN3@Xlen:
  0000b	cc		 int	 3
?_Xlen@?$vector@UChangeDirInfo@@V?$allocator@UChangeDirInfo@@@std@@@std@@IBEXXZ ENDP ; std::vector<ChangeDirInfo,std::allocator<ChangeDirInfo> >::_Xlen
_TEXT	ENDS
PUBLIC	?_Orphan_range@?$vector@UChangeDirInfo@@V?$allocator@UChangeDirInfo@@@std@@@std@@IBEXPAUChangeDirInfo@@0@Z ; std::vector<ChangeDirInfo,std::allocator<ChangeDirInfo> >::_Orphan_range
; Function compile flags: /Ogsp
;	COMDAT ?_Orphan_range@?$vector@UChangeDirInfo@@V?$allocator@UChangeDirInfo@@@std@@@std@@IBEXPAUChangeDirInfo@@0@Z
_TEXT	SEGMENT
___formal$ = 8						; size = 4
___formal$ = 12						; size = 4
?_Orphan_range@?$vector@UChangeDirInfo@@V?$allocator@UChangeDirInfo@@@std@@@std@@IBEXPAUChangeDirInfo@@0@Z PROC ; std::vector<ChangeDirInfo,std::allocator<ChangeDirInfo> >::_Orphan_range, COMDAT
; _this$ = ecx

; 1454 : 		}

  00000	c2 08 00	 ret	 8
?_Orphan_range@?$vector@UChangeDirInfo@@V?$allocator@UChangeDirInfo@@@std@@@std@@IBEXPAUChangeDirInfo@@0@Z ENDP ; std::vector<ChangeDirInfo,std::allocator<ChangeDirInfo> >::_Orphan_range
_TEXT	ENDS
PUBLIC	??1?$_Vector_val@UChangeDirInfo@@V?$allocator@UChangeDirInfo@@@std@@@std@@QAE@XZ ; std::_Vector_val<ChangeDirInfo,std::allocator<ChangeDirInfo> >::~_Vector_val<ChangeDirInfo,std::allocator<ChangeDirInfo> >
; Function compile flags: /Ogsp
;	COMDAT ??1?$_Vector_val@UChangeDirInfo@@V?$allocator@UChangeDirInfo@@@std@@@std@@QAE@XZ
_TEXT	SEGMENT
??1?$_Vector_val@UChangeDirInfo@@V?$allocator@UChangeDirInfo@@@std@@@std@@QAE@XZ PROC ; std::_Vector_val<ChangeDirInfo,std::allocator<ChangeDirInfo> >::~_Vector_val<ChangeDirInfo,std::allocator<ChangeDirInfo> >, COMDAT
; _this$ = ecx

; 434  : 		}

  00000	c3		 ret	 0
??1?$_Vector_val@UChangeDirInfo@@V?$allocator@UChangeDirInfo@@@std@@@std@@QAE@XZ ENDP ; std::_Vector_val<ChangeDirInfo,std::allocator<ChangeDirInfo> >::~_Vector_val<ChangeDirInfo,std::allocator<ChangeDirInfo> >
_TEXT	ENDS
PUBLIC	??0?$allocator@UChangeDirInfo@@@std@@QAE@XZ	; std::allocator<ChangeDirInfo>::allocator<ChangeDirInfo>
; Function compile flags: /Ogsp
; File c:\program files (x86)\microsoft visual studio 10.0\vc\include\xmemory
;	COMDAT ??0?$allocator@UChangeDirInfo@@@std@@QAE@XZ
_TEXT	SEGMENT
??0?$allocator@UChangeDirInfo@@@std@@QAE@XZ PROC	; std::allocator<ChangeDirInfo>::allocator<ChangeDirInfo>, COMDAT
; _this$ = ecx

; 161  : 	_ALLOCATOR() _THROW0()

  00000	8b c1		 mov	 eax, ecx

; 162  : 		{	// construct default allocator (do nothing)
; 163  : 		}

  00002	c3		 ret	 0
??0?$allocator@UChangeDirInfo@@@std@@QAE@XZ ENDP	; std::allocator<ChangeDirInfo>::allocator<ChangeDirInfo>
_TEXT	ENDS
PUBLIC	?deallocate@?$allocator@UChangeDirInfo@@@std@@QAEXPAUChangeDirInfo@@I@Z ; std::allocator<ChangeDirInfo>::deallocate
; Function compile flags: /Ogsp
;	COMDAT ?deallocate@?$allocator@UChangeDirInfo@@@std@@QAEXPAUChangeDirInfo@@I@Z
_TEXT	SEGMENT
__Ptr$ = 8						; size = 4
___formal$ = 12						; size = 4
?deallocate@?$allocator@UChangeDirInfo@@@std@@QAEXPAUChangeDirInfo@@I@Z PROC ; std::allocator<ChangeDirInfo>::deallocate, COMDAT
; _this$ = ecx

; 181  : 		{	// deallocate object at _Ptr, ignore size

  00000	55		 push	 ebp
  00001	8b ec		 mov	 ebp, esp

; 182  : 		::operator delete(_Ptr);

  00003	ff 75 08	 push	 DWORD PTR __Ptr$[ebp]
  00006	e8 00 00 00 00	 call	 ??3@YAXPAX@Z		; operator delete
  0000b	59		 pop	 ecx

; 183  : 		}

  0000c	5d		 pop	 ebp
  0000d	c2 08 00	 ret	 8
?deallocate@?$allocator@UChangeDirInfo@@@std@@QAEXPAUChangeDirInfo@@I@Z ENDP ; std::allocator<ChangeDirInfo>::deallocate
_TEXT	ENDS
PUBLIC	??0?$_Vector_const_iterator@V?$_Vector_val@PAVioBaseChar@@V?$allocator@PAVioBaseChar@@@std@@@std@@@std@@QAE@PAPAVioBaseChar@@PBU_Container_base0@1@@Z ; std::_Vector_const_iterator<std::_Vector_val<ioBaseChar *,std::allocator<ioBaseChar *> > >::_Vector_const_iterator<std::_Vector_val<ioBaseChar *,std::allocator<ioBaseChar *> > >
; Function compile flags: /Ogsp
; File c:\program files (x86)\microsoft visual studio 10.0\vc\include\vector
;	COMDAT ??0?$_Vector_const_iterator@V?$_Vector_val@PAVioBaseChar@@V?$allocator@PAVioBaseChar@@@std@@@std@@@std@@QAE@PAPAVioBaseChar@@PBU_Container_base0@1@@Z
_TEXT	SEGMENT
__Parg$ = 8						; size = 4
__Pvector$ = 12						; size = 4
??0?$_Vector_const_iterator@V?$_Vector_val@PAVioBaseChar@@V?$allocator@PAVioBaseChar@@@std@@@std@@@std@@QAE@PAPAVioBaseChar@@PBU_Container_base0@1@@Z PROC ; std::_Vector_const_iterator<std::_Vector_val<ioBaseChar *,std::allocator<ioBaseChar *> > >::_Vector_const_iterator<std::_Vector_val<ioBaseChar *,std::allocator<ioBaseChar *> > >, COMDAT
; _this$ = ecx

; 45   : 		{	// construct with pointer _Parg

  00000	55		 push	 ebp
  00001	8b ec		 mov	 ebp, esp
  00003	8b c1		 mov	 eax, ecx
  00005	8b 4d 08	 mov	 ecx, DWORD PTR __Parg$[ebp]
  00008	89 08		 mov	 DWORD PTR [eax], ecx

; 46   : 		this->_Adopt(_Pvector);
; 47   : 		}

  0000a	5d		 pop	 ebp
  0000b	c2 08 00	 ret	 8
??0?$_Vector_const_iterator@V?$_Vector_val@PAVioBaseChar@@V?$allocator@PAVioBaseChar@@@std@@@std@@@std@@QAE@PAPAVioBaseChar@@PBU_Container_base0@1@@Z ENDP ; std::_Vector_const_iterator<std::_Vector_val<ioBaseChar *,std::allocator<ioBaseChar *> > >::_Vector_const_iterator<std::_Vector_val<ioBaseChar *,std::allocator<ioBaseChar *> > >
_TEXT	ENDS
PUBLIC	??0?$allocator@UChangeDirInfo@@@std@@QAE@ABV01@@Z ; std::allocator<ChangeDirInfo>::allocator<ChangeDirInfo>
; Function compile flags: /Ogsp
; File c:\program files (x86)\microsoft visual studio 10.0\vc\include\xmemory
;	COMDAT ??0?$allocator@UChangeDirInfo@@@std@@QAE@ABV01@@Z
_TEXT	SEGMENT
___formal$ = 8						; size = 4
??0?$allocator@UChangeDirInfo@@@std@@QAE@ABV01@@Z PROC	; std::allocator<ChangeDirInfo>::allocator<ChangeDirInfo>, COMDAT
; _this$ = ecx

; 165  : 	_ALLOCATOR(const _ALLOCATOR<_Ty>&) _THROW0()

  00000	8b c1		 mov	 eax, ecx

; 166  : 		{	// construct by copying (do nothing)
; 167  : 		}

  00002	c2 04 00	 ret	 4
??0?$allocator@UChangeDirInfo@@@std@@QAE@ABV01@@Z ENDP	; std::allocator<ChangeDirInfo>::allocator<ChangeDirInfo>
_TEXT	ENDS
PUBLIC	?max_size@?$allocator@UChangeDirInfo@@@std@@QBEIXZ ; std::allocator<ChangeDirInfo>::max_size
; Function compile flags: /Ogsp
;	COMDAT ?max_size@?$allocator@UChangeDirInfo@@@std@@QBEIXZ
_TEXT	SEGMENT
?max_size@?$allocator@UChangeDirInfo@@@std@@QBEIXZ PROC	; std::allocator<ChangeDirInfo>::max_size, COMDAT
; _this$ = ecx

; 218  : 		_SIZT _Count = (_SIZT)(-1) / sizeof (_Ty);
; 219  : 		return (0 < _Count ? _Count : 1);

  00000	b8 49 92 24 09	 mov	 eax, 153391689		; 09249249H

; 220  : 		}

  00005	c3		 ret	 0
?max_size@?$allocator@UChangeDirInfo@@@std@@QBEIXZ ENDP	; std::allocator<ChangeDirInfo>::max_size
_TEXT	ENDS
PUBLIC	??0?$_Vector_const_iterator@V?$_Vector_val@UChangeDirInfo@@V?$allocator@UChangeDirInfo@@@std@@@std@@@std@@QAE@PAUChangeDirInfo@@PBU_Container_base0@1@@Z ; std::_Vector_const_iterator<std::_Vector_val<ChangeDirInfo,std::allocator<ChangeDirInfo> > >::_Vector_const_iterator<std::_Vector_val<ChangeDirInfo,std::allocator<ChangeDirInfo> > >
; Function compile flags: /Ogsp
; File c:\program files (x86)\microsoft visual studio 10.0\vc\include\vector
;	COMDAT ??0?$_Vector_const_iterator@V?$_Vector_val@UChangeDirInfo@@V?$allocator@UChangeDirInfo@@@std@@@std@@@std@@QAE@PAUChangeDirInfo@@PBU_Container_base0@1@@Z
_TEXT	SEGMENT
__Parg$ = 8						; size = 4
__Pvector$ = 12						; size = 4
??0?$_Vector_const_iterator@V?$_Vector_val@UChangeDirInfo@@V?$allocator@UChangeDirInfo@@@std@@@std@@@std@@QAE@PAUChangeDirInfo@@PBU_Container_base0@1@@Z PROC ; std::_Vector_const_iterator<std::_Vector_val<ChangeDirInfo,std::allocator<ChangeDirInfo> > >::_Vector_const_iterator<std::_Vector_val<ChangeDirInfo,std::allocator<ChangeDirInfo> > >, COMDAT
; _this$ = ecx

; 45   : 		{	// construct with pointer _Parg

  00000	55		 push	 ebp
  00001	8b ec		 mov	 ebp, esp
  00003	8b c1		 mov	 eax, ecx
  00005	8b 4d 08	 mov	 ecx, DWORD PTR __Parg$[ebp]
  00008	89 08		 mov	 DWORD PTR [eax], ecx

; 46   : 		this->_Adopt(_Pvector);
; 47   : 		}

  0000a	5d		 pop	 ebp
  0000b	c2 08 00	 ret	 8
??0?$_Vector_const_iterator@V?$_Vector_val@UChangeDirInfo@@V?$allocator@UChangeDirInfo@@@std@@@std@@@std@@QAE@PAUChangeDirInfo@@PBU_Container_base0@1@@Z ENDP ; std::_Vector_const_iterator<std::_Vector_val<ChangeDirInfo,std::allocator<ChangeDirInfo> > >::_Vector_const_iterator<std::_Vector_val<ChangeDirInfo,std::allocator<ChangeDirInfo> > >
_TEXT	ENDS
PUBLIC	?_Compat@?$_Vector_const_iterator@V?$_Vector_val@PAVioBaseChar@@V?$allocator@PAVioBaseChar@@@std@@@std@@@std@@QBEXABV12@@Z ; std::_Vector_const_iterator<std::_Vector_val<ioBaseChar *,std::allocator<ioBaseChar *> > >::_Compat
; Function compile flags: /Ogsp
;	COMDAT ?_Compat@?$_Vector_const_iterator@V?$_Vector_val@PAVioBaseChar@@V?$allocator@PAVioBaseChar@@@std@@@std@@@std@@QBEXABV12@@Z
_TEXT	SEGMENT
___formal$ = 8						; size = 4
?_Compat@?$_Vector_const_iterator@V?$_Vector_val@PAVioBaseChar@@V?$allocator@PAVioBaseChar@@@std@@@std@@@std@@QBEXABV12@@Z PROC ; std::_Vector_const_iterator<std::_Vector_val<ioBaseChar *,std::allocator<ioBaseChar *> > >::_Compat, COMDAT
; _this$ = ecx

; 253  : 		}

  00000	c2 04 00	 ret	 4
?_Compat@?$_Vector_const_iterator@V?$_Vector_val@PAVioBaseChar@@V?$allocator@PAVioBaseChar@@@std@@@std@@@std@@QBEXABV12@@Z ENDP ; std::_Vector_const_iterator<std::_Vector_val<ioBaseChar *,std::allocator<ioBaseChar *> > >::_Compat
_TEXT	ENDS
PUBLIC	?_Compat@?$_Vector_const_iterator@V?$_Vector_val@UChangeDirInfo@@V?$allocator@UChangeDirInfo@@@std@@@std@@@std@@QBEXABV12@@Z ; std::_Vector_const_iterator<std::_Vector_val<ChangeDirInfo,std::allocator<ChangeDirInfo> > >::_Compat
; Function compile flags: /Ogsp
;	COMDAT ?_Compat@?$_Vector_const_iterator@V?$_Vector_val@UChangeDirInfo@@V?$allocator@UChangeDirInfo@@@std@@@std@@@std@@QBEXABV12@@Z
_TEXT	SEGMENT
___formal$ = 8						; size = 4
?_Compat@?$_Vector_const_iterator@V?$_Vector_val@UChangeDirInfo@@V?$allocator@UChangeDirInfo@@@std@@@std@@@std@@QBEXABV12@@Z PROC ; std::_Vector_const_iterator<std::_Vector_val<ChangeDirInfo,std::allocator<ChangeDirInfo> > >::_Compat, COMDAT
; _this$ = ecx

; 253  : 		}

  00000	c2 04 00	 ret	 4
?_Compat@?$_Vector_const_iterator@V?$_Vector_val@UChangeDirInfo@@V?$allocator@UChangeDirInfo@@@std@@@std@@@std@@QBEXABV12@@Z ENDP ; std::_Vector_const_iterator<std::_Vector_val<ChangeDirInfo,std::allocator<ChangeDirInfo> > >::_Compat
_TEXT	ENDS
PUBLIC	__real@3f91df46a2526c7a
PUBLIC	??$DEGtoRAD@M@@YAMM@Z				; DEGtoRAD<float>
;	COMDAT __real@3f91df46a2526c7a
; File d:\lost saga for developer\youtube\tutorial\source\src\lsclient\veryoftenusedefine.h
CONST	SEGMENT
__real@3f91df46a2526c7a DQ 03f91df46a2526c7ar	; 0.0174533
; Function compile flags: /Ogsp
CONST	ENDS
;	COMDAT ??$DEGtoRAD@M@@YAMM@Z
_TEXT	SEGMENT
tv129 = 8						; size = 4
_val$ = 8						; size = 4
??$DEGtoRAD@M@@YAMM@Z PROC				; DEGtoRAD<float>, COMDAT

; 20   : type  DEGtoRAD (type val) {return (type) (val * 0.0174532925199);}

  00000	55		 push	 ebp
  00001	8b ec		 mov	 ebp, esp
  00003	d9 45 08	 fld	 DWORD PTR _val$[ebp]
  00006	dc 0d 00 00 00
	00		 fmul	 QWORD PTR __real@3f91df46a2526c7a
  0000c	d9 5d 08	 fstp	 DWORD PTR tv129[ebp]
  0000f	d9 45 08	 fld	 DWORD PTR tv129[ebp]
  00012	5d		 pop	 ebp
  00013	c3		 ret	 0
??$DEGtoRAD@M@@YAMM@Z ENDP				; DEGtoRAD<float>
_TEXT	ENDS
PUBLIC	??$addressof@$$CBUChangeDirInfo@@@std@@YAPBUChangeDirInfo@@ABU1@@Z ; std::addressof<ChangeDirInfo const >
; Function compile flags: /Ogsp
; File c:\program files (x86)\microsoft visual studio 10.0\vc\include\xmemory
;	COMDAT ??$addressof@$$CBUChangeDirInfo@@@std@@YAPBUChangeDirInfo@@ABU1@@Z
_TEXT	SEGMENT
__Val$ = 8						; size = 4
??$addressof@$$CBUChangeDirInfo@@@std@@YAPBUChangeDirInfo@@ABU1@@Z PROC ; std::addressof<ChangeDirInfo const >, COMDAT

; 110  : 	{	// return address of _Val

  00000	55		 push	 ebp
  00001	8b ec		 mov	 ebp, esp

; 111  : 	return ((_Ty *) &(char&)_Val);

  00003	8b 45 08	 mov	 eax, DWORD PTR __Val$[ebp]

; 112  : 	}

  00006	5d		 pop	 ebp
  00007	c3		 ret	 0
??$addressof@$$CBUChangeDirInfo@@@std@@YAPBUChangeDirInfo@@ABU1@@Z ENDP ; std::addressof<ChangeDirInfo const >
_TEXT	ENDS
PUBLIC	__TI2?AVbad_alloc@std@@
PUBLIC	??$_Allocate@UChangeDirInfo@@@std@@YAPAUChangeDirInfo@@IPAU1@@Z ; std::_Allocate<ChangeDirInfo>
PUBLIC	__CTA2?AVbad_alloc@std@@
PUBLIC	__CT??_R0?AVbad_alloc@std@@@8??0bad_alloc@std@@QAE@ABV01@@Z12
PUBLIC	??0bad_alloc@std@@QAE@ABV01@@Z			; std::bad_alloc::bad_alloc
PUBLIC	__CT??_R0?AVexception@std@@@8??0exception@std@@QAE@ABV01@@Z12
EXTRN	??2@YAPAXI@Z:PROC				; operator new
EXTRN	__CxxThrowException@8:PROC
EXTRN	??0exception@std@@QAE@ABV01@@Z:PROC		; std::exception::exception
;	COMDAT __CT??_R0?AVexception@std@@@8??0exception@std@@QAE@ABV01@@Z12
; File c:\program files (x86)\microsoft visual studio 10.0\vc\include\exception
xdata$x	SEGMENT
__CT??_R0?AVexception@std@@@8??0exception@std@@QAE@ABV01@@Z12 DD 00H
	DD	FLAT:??_R0?AVexception@std@@@8
	DD	00H
	DD	0ffffffffH
	ORG $+4
	DD	0cH
	DD	FLAT:??0exception@std@@QAE@ABV01@@Z
xdata$x	ENDS
;	COMDAT __CT??_R0?AVbad_alloc@std@@@8??0bad_alloc@std@@QAE@ABV01@@Z12
xdata$x	SEGMENT
__CT??_R0?AVbad_alloc@std@@@8??0bad_alloc@std@@QAE@ABV01@@Z12 DD 00H
	DD	FLAT:??_R0?AVbad_alloc@std@@@8
	DD	00H
	DD	0ffffffffH
	ORG $+4
	DD	0cH
	DD	FLAT:??0bad_alloc@std@@QAE@ABV01@@Z
xdata$x	ENDS
;	COMDAT __CTA2?AVbad_alloc@std@@
xdata$x	SEGMENT
__CTA2?AVbad_alloc@std@@ DD 02H
	DD	FLAT:__CT??_R0?AVbad_alloc@std@@@8??0bad_alloc@std@@QAE@ABV01@@Z12
	DD	FLAT:__CT??_R0?AVexception@std@@@8??0exception@std@@QAE@ABV01@@Z12
xdata$x	ENDS
;	COMDAT __TI2?AVbad_alloc@std@@
xdata$x	SEGMENT
__TI2?AVbad_alloc@std@@ DD 00H
	DD	FLAT:??1bad_alloc@std@@UAE@XZ
	DD	00H
	DD	FLAT:__CTA2?AVbad_alloc@std@@
; Function compile flags: /Ogsp
; File c:\program files (x86)\microsoft visual studio 10.0\vc\include\xmemory
xdata$x	ENDS
;	COMDAT ??$_Allocate@UChangeDirInfo@@@std@@YAPAUChangeDirInfo@@IPAU1@@Z
_TEXT	SEGMENT
$T535693 = -12						; size = 12
$T535698 = 8						; size = 4
__Count$ = 8						; size = 4
___formal$ = 12						; size = 4
??$_Allocate@UChangeDirInfo@@@std@@YAPAUChangeDirInfo@@IPAU1@@Z PROC ; std::_Allocate<ChangeDirInfo>, COMDAT

; 30   : 	{	// allocate storage for _Count elements of type _Ty

  00000	55		 push	 ebp
  00001	8b ec		 mov	 ebp, esp

; 31   : 	void *_Ptr = 0;
; 32   : 
; 33   : 	if (_Count <= 0)

  00003	8b 4d 08	 mov	 ecx, DWORD PTR __Count$[ebp]
  00006	83 ec 0c	 sub	 esp, 12			; 0000000cH
  00009	33 c0		 xor	 eax, eax
  0000b	85 c9		 test	 ecx, ecx

; 34   : 		_Count = 0;
; 35   : 	else if (((_SIZT)(-1) / sizeof (_Ty) < _Count)

  0000d	74 3c		 je	 SHORT $LN5@Allocate

; 36   : 		|| (_Ptr = ::operator new(_Count * sizeof (_Ty))) == 0)

  0000f	81 f9 49 92 24
	09		 cmp	 ecx, 153391689		; 09249249H
  00015	77 0e		 ja	 SHORT $LN1@Allocate
  00017	6b c9 1c	 imul	 ecx, 28			; 0000001cH
  0001a	51		 push	 ecx
  0001b	e8 00 00 00 00	 call	 ??2@YAPAXI@Z		; operator new
  00020	59		 pop	 ecx
  00021	85 c0		 test	 eax, eax

; 38   : 
; 39   : 	return ((_Ty _FARQ *)_Ptr);

  00023	75 26		 jne	 SHORT $LN5@Allocate
$LN1@Allocate:

; 37   : 		_THROW_NCEE(bad_alloc, 0);

  00025	83 65 08 00	 and	 DWORD PTR $T535698[ebp], 0
  00029	8d 45 08	 lea	 eax, DWORD PTR $T535698[ebp]
  0002c	50		 push	 eax
  0002d	8d 4d f4	 lea	 ecx, DWORD PTR $T535693[ebp]
  00030	ff 15 00 00 00
	00		 call	 DWORD PTR __imp_??0exception@std@@QAE@ABQBD@Z
  00036	68 00 00 00 00	 push	 OFFSET __TI2?AVbad_alloc@std@@
  0003b	8d 45 f4	 lea	 eax, DWORD PTR $T535693[ebp]
  0003e	50		 push	 eax
  0003f	c7 45 f4 00 00
	00 00		 mov	 DWORD PTR $T535693[ebp], OFFSET ??_7bad_alloc@std@@6B@
  00046	e8 00 00 00 00	 call	 __CxxThrowException@8
$LN10@Allocate:
$LN5@Allocate:

; 40   : 	}

  0004b	c9		 leave
  0004c	c3		 ret	 0
$LN9@Allocate:
??$_Allocate@UChangeDirInfo@@@std@@YAPAUChangeDirInfo@@IPAU1@@Z ENDP ; std::_Allocate<ChangeDirInfo>
_TEXT	ENDS
PUBLIC	??G?$_Vector_const_iterator@V?$_Vector_val@UChangeDirInfo@@V?$allocator@UChangeDirInfo@@@std@@@std@@@std@@QBEHABV01@@Z ; std::_Vector_const_iterator<std::_Vector_val<ChangeDirInfo,std::allocator<ChangeDirInfo> > >::operator-
; Function compile flags: /Ogsp
; File c:\program files (x86)\microsoft visual studio 10.0\vc\include\vector
;	COMDAT ??G?$_Vector_const_iterator@V?$_Vector_val@UChangeDirInfo@@V?$allocator@UChangeDirInfo@@@std@@@std@@@std@@QBEHABV01@@Z
_TEXT	SEGMENT
__Right$ = 8						; size = 4
??G?$_Vector_const_iterator@V?$_Vector_val@UChangeDirInfo@@V?$allocator@UChangeDirInfo@@@std@@@std@@@std@@QBEHABV01@@Z PROC ; std::_Vector_const_iterator<std::_Vector_val<ChangeDirInfo,std::allocator<ChangeDirInfo> > >::operator-, COMDAT
; _this$ = ecx

; 190  : 		{	// return difference of iterators

  00000	55		 push	 ebp
  00001	8b ec		 mov	 ebp, esp

; 191  : 		_Compat(_Right);
; 192  : 		return (this->_Ptr - _Right._Ptr);

  00003	8b 01		 mov	 eax, DWORD PTR [ecx]
  00005	8b 4d 08	 mov	 ecx, DWORD PTR __Right$[ebp]
  00008	2b 01		 sub	 eax, DWORD PTR [ecx]
  0000a	6a 1c		 push	 28			; 0000001cH
  0000c	99		 cdq
  0000d	59		 pop	 ecx
  0000e	f7 f9		 idiv	 ecx

; 193  : 		}

  00010	5d		 pop	 ebp
  00011	c2 04 00	 ret	 4
??G?$_Vector_const_iterator@V?$_Vector_val@UChangeDirInfo@@V?$allocator@UChangeDirInfo@@@std@@@std@@@std@@QBEHABV01@@Z ENDP ; std::_Vector_const_iterator<std::_Vector_val<ChangeDirInfo,std::allocator<ChangeDirInfo> > >::operator-
_TEXT	ENDS
PUBLIC	??$forward@AAUChangeDirInfo@@@std@@YAAAUChangeDirInfo@@AAU1@@Z ; std::forward<ChangeDirInfo &>
; Function compile flags: /Ogsp
; File c:\program files (x86)\microsoft visual studio 10.0\vc\include\utility
;	COMDAT ??$forward@AAUChangeDirInfo@@@std@@YAAAUChangeDirInfo@@AAU1@@Z
_TEXT	SEGMENT
__Arg$ = 8						; size = 4
??$forward@AAUChangeDirInfo@@@std@@YAAAUChangeDirInfo@@AAU1@@Z PROC ; std::forward<ChangeDirInfo &>, COMDAT

; 78   : 	{	// forward _Arg, given explicitly specified type parameter

  00000	55		 push	 ebp
  00001	8b ec		 mov	 ebp, esp

; 79   : 	return ((_Ty&&)_Arg);

  00003	8b 45 08	 mov	 eax, DWORD PTR __Arg$[ebp]

; 80   : 	}

  00006	5d		 pop	 ebp
  00007	c3		 ret	 0
??$forward@AAUChangeDirInfo@@@std@@YAAAUChangeDirInfo@@AAU1@@Z ENDP ; std::forward<ChangeDirInfo &>
_TEXT	ENDS
PUBLIC	??$construct@AAUChangeDirInfo@@@?$allocator@UChangeDirInfo@@@std@@QAEXPAUChangeDirInfo@@AAU2@@Z ; std::allocator<ChangeDirInfo>::construct<ChangeDirInfo &>
; Function compile flags: /Ogsp
; File c:\program files (x86)\microsoft visual studio 10.0\vc\include\xmemory
;	COMDAT ??$construct@AAUChangeDirInfo@@@?$allocator@UChangeDirInfo@@@std@@QAEXPAUChangeDirInfo@@AAU2@@Z
_TEXT	SEGMENT
__Ptr$ = 8						; size = 4
__Val$ = 12						; size = 4
??$construct@AAUChangeDirInfo@@@?$allocator@UChangeDirInfo@@@std@@QAEXPAUChangeDirInfo@@AAU2@@Z PROC ; std::allocator<ChangeDirInfo>::construct<ChangeDirInfo &>, COMDAT
; _this$ = ecx

; 206  : 		void construct(pointer _Ptr, _Other&& _Val)

  00000	55		 push	 ebp
  00001	8b ec		 mov	 ebp, esp
  00003	57		 push	 edi

; 207  : 		{	// construct object at _Ptr with value _Val
; 208  : 		::new ((void _FARQ *)_Ptr) _Ty(_STD forward<_Other>(_Val));

  00004	8b 7d 08	 mov	 edi, DWORD PTR __Ptr$[ebp]
  00007	85 ff		 test	 edi, edi
  00009	74 0a		 je	 SHORT $LN3@construct
  0000b	56		 push	 esi
  0000c	8b 75 0c	 mov	 esi, DWORD PTR __Val$[ebp]
  0000f	6a 07		 push	 7
  00011	59		 pop	 ecx
  00012	f3 a5		 rep movsd
  00014	5e		 pop	 esi
$LN3@construct:
  00015	5f		 pop	 edi

; 209  : 		}

  00016	5d		 pop	 ebp
  00017	c2 08 00	 ret	 8
??$construct@AAUChangeDirInfo@@@?$allocator@UChangeDirInfo@@@std@@QAEXPAUChangeDirInfo@@AAU2@@Z ENDP ; std::allocator<ChangeDirInfo>::construct<ChangeDirInfo &>
_TEXT	ENDS
PUBLIC	??$forward@ABUChangeDirInfo@@@std@@YAABUChangeDirInfo@@ABU1@@Z ; std::forward<ChangeDirInfo const &>
; Function compile flags: /Ogsp
; File c:\program files (x86)\microsoft visual studio 10.0\vc\include\utility
;	COMDAT ??$forward@ABUChangeDirInfo@@@std@@YAABUChangeDirInfo@@ABU1@@Z
_TEXT	SEGMENT
__Arg$ = 8						; size = 4
??$forward@ABUChangeDirInfo@@@std@@YAABUChangeDirInfo@@ABU1@@Z PROC ; std::forward<ChangeDirInfo const &>, COMDAT

; 78   : 	{	// forward _Arg, given explicitly specified type parameter

  00000	55		 push	 ebp
  00001	8b ec		 mov	 ebp, esp

; 79   : 	return ((_Ty&&)_Arg);

  00003	8b 45 08	 mov	 eax, DWORD PTR __Arg$[ebp]

; 80   : 	}

  00006	5d		 pop	 ebp
  00007	c3		 ret	 0
??$forward@ABUChangeDirInfo@@@std@@YAABUChangeDirInfo@@ABU1@@Z ENDP ; std::forward<ChangeDirInfo const &>
_TEXT	ENDS
PUBLIC	??$_Ptr_cat@UChangeDirInfo@@U1@@std@@YA?AU_Nonscalar_ptr_iterator_tag@0@PAUChangeDirInfo@@0@Z ; std::_Ptr_cat<ChangeDirInfo,ChangeDirInfo>
; Function compile flags: /Ogsp
; File c:\program files (x86)\microsoft visual studio 10.0\vc\include\xutility
;	COMDAT ??$_Ptr_cat@UChangeDirInfo@@U1@@std@@YA?AU_Nonscalar_ptr_iterator_tag@0@PAUChangeDirInfo@@0@Z
_TEXT	SEGMENT
__Cat$ = -1						; size = 1
___formal$ = 8						; size = 4
___formal$ = 12						; size = 4
??$_Ptr_cat@UChangeDirInfo@@U1@@std@@YA?AU_Nonscalar_ptr_iterator_tag@0@PAUChangeDirInfo@@0@Z PROC ; std::_Ptr_cat<ChangeDirInfo,ChangeDirInfo>, COMDAT

; 516  : 	{	// return pointer category from pointers

  00000	55		 push	 ebp
  00001	8b ec		 mov	 ebp, esp
  00003	51		 push	 ecx

; 517  : 	typename _Ptr_cat_helper<_Elem1, _Elem2>::_Type _Cat;
; 518  : 	return (_Cat);

  00004	8a 45 ff	 mov	 al, BYTE PTR __Cat$[ebp]

; 519  : 	}

  00007	c9		 leave
  00008	c3		 ret	 0
??$_Ptr_cat@UChangeDirInfo@@U1@@std@@YA?AU_Nonscalar_ptr_iterator_tag@0@PAUChangeDirInfo@@0@Z ENDP ; std::_Ptr_cat<ChangeDirInfo,ChangeDirInfo>
_TEXT	ENDS
PUBLIC	??$_Construct@UChangeDirInfo@@ABU1@@std@@YAXPAUChangeDirInfo@@ABU1@@Z ; std::_Construct<ChangeDirInfo,ChangeDirInfo const &>
; Function compile flags: /Ogsp
; File c:\program files (x86)\microsoft visual studio 10.0\vc\include\xmemory
;	COMDAT ??$_Construct@UChangeDirInfo@@ABU1@@std@@YAXPAUChangeDirInfo@@ABU1@@Z
_TEXT	SEGMENT
__Ptr$ = 8						; size = 4
__Val$ = 12						; size = 4
??$_Construct@UChangeDirInfo@@ABU1@@std@@YAXPAUChangeDirInfo@@ABU1@@Z PROC ; std::_Construct<ChangeDirInfo,ChangeDirInfo const &>, COMDAT

; 46   : 	{	// construct object at _Ptr with value _Val

  00000	55		 push	 ebp
  00001	8b ec		 mov	 ebp, esp
  00003	57		 push	 edi

; 47   : 	void _FARQ *_Vptr = _Ptr;
; 48   : 	::new (_Vptr) _Ty1(_STD forward<_Ty2>(_Val));

  00004	8b 7d 08	 mov	 edi, DWORD PTR __Ptr$[ebp]
  00007	85 ff		 test	 edi, edi
  00009	74 0a		 je	 SHORT $LN3@Construct
  0000b	56		 push	 esi
  0000c	8b 75 0c	 mov	 esi, DWORD PTR __Val$[ebp]
  0000f	6a 07		 push	 7
  00011	59		 pop	 ecx
  00012	f3 a5		 rep movsd
  00014	5e		 pop	 esi
$LN3@Construct:
  00015	5f		 pop	 edi

; 49   : 	}

  00016	5d		 pop	 ebp
  00017	c3		 ret	 0
??$_Construct@UChangeDirInfo@@ABU1@@std@@YAXPAUChangeDirInfo@@ABU1@@Z ENDP ; std::_Construct<ChangeDirInfo,ChangeDirInfo const &>
_TEXT	ENDS
PUBLIC	?_Unchecked@?$_Vector_iterator@V?$_Vector_val@UChangeDirInfo@@V?$allocator@UChangeDirInfo@@@std@@@std@@@std@@QBEPAUChangeDirInfo@@XZ ; std::_Vector_iterator<std::_Vector_val<ChangeDirInfo,std::allocator<ChangeDirInfo> > >::_Unchecked
; Function compile flags: /Ogsp
; File c:\program files (x86)\microsoft visual studio 10.0\vc\include\vector
;	COMDAT ?_Unchecked@?$_Vector_iterator@V?$_Vector_val@UChangeDirInfo@@V?$allocator@UChangeDirInfo@@@std@@@std@@@std@@QBEPAUChangeDirInfo@@XZ
_TEXT	SEGMENT
?_Unchecked@?$_Vector_iterator@V?$_Vector_val@UChangeDirInfo@@V?$allocator@UChangeDirInfo@@@std@@@std@@@std@@QBEPAUChangeDirInfo@@XZ PROC ; std::_Vector_iterator<std::_Vector_val<ChangeDirInfo,std::allocator<ChangeDirInfo> > >::_Unchecked, COMDAT
; _this$ = ecx

; 317  : 		return (_Unchecked_type(this->_Ptr));

  00000	8b 01		 mov	 eax, DWORD PTR [ecx]

; 318  : 		}

  00002	c3		 ret	 0
?_Unchecked@?$_Vector_iterator@V?$_Vector_val@UChangeDirInfo@@V?$allocator@UChangeDirInfo@@@std@@@std@@@std@@QBEPAUChangeDirInfo@@XZ ENDP ; std::_Vector_iterator<std::_Vector_val<ChangeDirInfo,std::allocator<ChangeDirInfo> > >::_Unchecked
_TEXT	ENDS
PUBLIC	??$_Val_type@PAUChangeDirInfo@@@std@@YAPAUChangeDirInfo@@PAU1@@Z ; std::_Val_type<ChangeDirInfo *>
; Function compile flags: /Ogsp
; File c:\program files (x86)\microsoft visual studio 10.0\vc\include\xutility
;	COMDAT ??$_Val_type@PAUChangeDirInfo@@@std@@YAPAUChangeDirInfo@@PAU1@@Z
_TEXT	SEGMENT
___formal$ = 8						; size = 4
??$_Val_type@PAUChangeDirInfo@@@std@@YAPAUChangeDirInfo@@PAU1@@Z PROC ; std::_Val_type<ChangeDirInfo *>, COMDAT

; 790  : 	return (0);

  00000	33 c0		 xor	 eax, eax

; 791  : 	}

  00002	c3		 ret	 0
??$_Val_type@PAUChangeDirInfo@@@std@@YAPAUChangeDirInfo@@PAU1@@Z ENDP ; std::_Val_type<ChangeDirInfo *>
_TEXT	ENDS
PUBLIC	??$move@AAUChangeDirInfo@@@std@@YA$$QAUChangeDirInfo@@AAU1@@Z ; std::move<ChangeDirInfo &>
; Function compile flags: /Ogsp
; File c:\program files (x86)\microsoft visual studio 10.0\vc\include\utility
;	COMDAT ??$move@AAUChangeDirInfo@@@std@@YA$$QAUChangeDirInfo@@AAU1@@Z
_TEXT	SEGMENT
__Arg$ = 8						; size = 4
??$move@AAUChangeDirInfo@@@std@@YA$$QAUChangeDirInfo@@AAU1@@Z PROC ; std::move<ChangeDirInfo &>, COMDAT

; 86   : 	{	// forward _Arg as movable

  00000	55		 push	 ebp
  00001	8b ec		 mov	 ebp, esp

; 87   : 	return ((typename tr1::_Remove_reference<_Ty>::_Type&&)_Arg);

  00003	8b 45 08	 mov	 eax, DWORD PTR __Arg$[ebp]

; 88   : 	}

  00006	5d		 pop	 ebp
  00007	c3		 ret	 0
??$move@AAUChangeDirInfo@@@std@@YA$$QAUChangeDirInfo@@AAU1@@Z ENDP ; std::move<ChangeDirInfo &>
_TEXT	ENDS
PUBLIC	??0D3DXVECTOR3@@QAE@XZ				; D3DXVECTOR3::D3DXVECTOR3
; Function compile flags: /Ogsp
; File c:\program files (x86)\microsoft directx sdk (june 2010)\include\d3dx9math.h
;	COMDAT ??0D3DXVECTOR3@@QAE@XZ
_TEXT	SEGMENT
??0D3DXVECTOR3@@QAE@XZ PROC				; D3DXVECTOR3::D3DXVECTOR3, COMDAT
; _this$ = ecx

; 165  :     D3DXVECTOR3() {};

  00000	8b c1		 mov	 eax, ecx
  00002	c3		 ret	 0
??0D3DXVECTOR3@@QAE@XZ ENDP				; D3DXVECTOR3::D3DXVECTOR3
_TEXT	ENDS
PUBLIC	??$_Unchecked@PAUChangeDirInfo@@@std@@YAPAUChangeDirInfo@@PAU1@@Z ; std::_Unchecked<ChangeDirInfo *>
; Function compile flags: /Ogsp
; File c:\program files (x86)\microsoft visual studio 10.0\vc\include\xutility
;	COMDAT ??$_Unchecked@PAUChangeDirInfo@@@std@@YAPAUChangeDirInfo@@PAU1@@Z
_TEXT	SEGMENT
__Src$ = 8						; size = 4
??$_Unchecked@PAUChangeDirInfo@@@std@@YAPAUChangeDirInfo@@PAU1@@Z PROC ; std::_Unchecked<ChangeDirInfo *>, COMDAT

; 266  : 	{	// construct unchecked from checked, generic

  00000	55		 push	 ebp
  00001	8b ec		 mov	 ebp, esp

; 267  : 	return (_Src);

  00003	8b 45 08	 mov	 eax, DWORD PTR __Src$[ebp]

; 268  : 	}

  00006	5d		 pop	 ebp
  00007	c3		 ret	 0
??$_Unchecked@PAUChangeDirInfo@@@std@@YAPAUChangeDirInfo@@PAU1@@Z ENDP ; std::_Unchecked<ChangeDirInfo *>
_TEXT	ENDS
PUBLIC	??$_Dist_type@PAUChangeDirInfo@@@std@@YAPAHPAUChangeDirInfo@@@Z ; std::_Dist_type<ChangeDirInfo *>
; Function compile flags: /Ogsp
;	COMDAT ??$_Dist_type@PAUChangeDirInfo@@@std@@YAPAHPAUChangeDirInfo@@@Z
_TEXT	SEGMENT
___formal$ = 8						; size = 4
??$_Dist_type@PAUChangeDirInfo@@@std@@YAPAHPAUChangeDirInfo@@@Z PROC ; std::_Dist_type<ChangeDirInfo *>, COMDAT

; 850  : 	return (0);

  00000	33 c0		 xor	 eax, eax

; 851  : 	}

  00002	c3		 ret	 0
??$_Dist_type@PAUChangeDirInfo@@@std@@YAPAHPAUChangeDirInfo@@@Z ENDP ; std::_Dist_type<ChangeDirInfo *>
_TEXT	ENDS
PUBLIC	??0D3DXQUATERNION@@QAE@XZ			; D3DXQUATERNION::D3DXQUATERNION
; Function compile flags: /Ogsp
; File c:\program files (x86)\microsoft directx sdk (june 2010)\include\d3dx9math.h
;	COMDAT ??0D3DXQUATERNION@@QAE@XZ
_TEXT	SEGMENT
??0D3DXQUATERNION@@QAE@XZ PROC				; D3DXQUATERNION::D3DXQUATERNION, COMDAT
; _this$ = ecx

; 429  :     D3DXQUATERNION() {}

  00000	8b c1		 mov	 eax, ecx
  00002	c3		 ret	 0
??0D3DXQUATERNION@@QAE@XZ ENDP				; D3DXQUATERNION::D3DXQUATERNION
_TEXT	ENDS
PUBLIC	??$_Destroy@UChangeDirInfo@@@std@@YAXPAUChangeDirInfo@@@Z ; std::_Destroy<ChangeDirInfo>
; Function compile flags: /Ogsp
; File c:\program files (x86)\microsoft visual studio 10.0\vc\include\xmemory
;	COMDAT ??$_Destroy@UChangeDirInfo@@@std@@YAXPAUChangeDirInfo@@@Z
_TEXT	SEGMENT
__Ptr$ = 8						; size = 4
??$_Destroy@UChangeDirInfo@@@std@@YAXPAUChangeDirInfo@@@Z PROC ; std::_Destroy<ChangeDirInfo>, COMDAT

; 63   : 	_Ptr->~_Ty();
; 64   : 	}

  00000	c3		 ret	 0
??$_Destroy@UChangeDirInfo@@@std@@YAXPAUChangeDirInfo@@@Z ENDP ; std::_Destroy<ChangeDirInfo>
_TEXT	ENDS
PUBLIC	??$forward@AAPAUChangeDirInfo@@@std@@YAAAPAUChangeDirInfo@@AAPAU1@@Z ; std::forward<ChangeDirInfo * &>
; Function compile flags: /Ogsp
; File c:\program files (x86)\microsoft visual studio 10.0\vc\include\utility
;	COMDAT ??$forward@AAPAUChangeDirInfo@@@std@@YAAAPAUChangeDirInfo@@AAPAU1@@Z
_TEXT	SEGMENT
__Arg$ = 8						; size = 4
??$forward@AAPAUChangeDirInfo@@@std@@YAAAPAUChangeDirInfo@@AAPAU1@@Z PROC ; std::forward<ChangeDirInfo * &>, COMDAT

; 78   : 	{	// forward _Arg, given explicitly specified type parameter

  00000	55		 push	 ebp
  00001	8b ec		 mov	 ebp, esp

; 79   : 	return ((_Ty&&)_Arg);

  00003	8b 45 08	 mov	 eax, DWORD PTR __Arg$[ebp]

; 80   : 	}

  00006	5d		 pop	 ebp
  00007	c3		 ret	 0
??$forward@AAPAUChangeDirInfo@@@std@@YAAAPAUChangeDirInfo@@AAPAU1@@Z ENDP ; std::forward<ChangeDirInfo * &>
_TEXT	ENDS
PUBLIC	??$?0AAPAUChangeDirInfo@@AAPAU0@@?$_Pair_base@PAUChangeDirInfo@@PAU1@@std@@QAE@AAPAUChangeDirInfo@@0@Z ; std::_Pair_base<ChangeDirInfo *,ChangeDirInfo *>::_Pair_base<ChangeDirInfo *,ChangeDirInfo *><ChangeDirInfo * &,ChangeDirInfo * &>
; Function compile flags: /Ogsp
;	COMDAT ??$?0AAPAUChangeDirInfo@@AAPAU0@@?$_Pair_base@PAUChangeDirInfo@@PAU1@@std@@QAE@AAPAUChangeDirInfo@@0@Z
_TEXT	SEGMENT
__Val1$ = 8						; size = 4
__Val2$ = 12						; size = 4
??$?0AAPAUChangeDirInfo@@AAPAU0@@?$_Pair_base@PAUChangeDirInfo@@PAU1@@std@@QAE@AAPAUChangeDirInfo@@0@Z PROC ; std::_Pair_base<ChangeDirInfo *,ChangeDirInfo *>::_Pair_base<ChangeDirInfo *,ChangeDirInfo *><ChangeDirInfo * &,ChangeDirInfo * &>, COMDAT
; _this$ = ecx

; 163  : 		{	// construct from moved values

  00000	55		 push	 ebp
  00001	8b ec		 mov	 ebp, esp
  00003	8b c1		 mov	 eax, ecx
  00005	8b 4d 08	 mov	 ecx, DWORD PTR __Val1$[ebp]
  00008	8b 09		 mov	 ecx, DWORD PTR [ecx]
  0000a	89 08		 mov	 DWORD PTR [eax], ecx
  0000c	8b 4d 0c	 mov	 ecx, DWORD PTR __Val2$[ebp]
  0000f	8b 09		 mov	 ecx, DWORD PTR [ecx]
  00011	89 48 04	 mov	 DWORD PTR [eax+4], ecx

; 164  : 		}

  00014	5d		 pop	 ebp
  00015	c2 08 00	 ret	 8
??$?0AAPAUChangeDirInfo@@AAPAU0@@?$_Pair_base@PAUChangeDirInfo@@PAU1@@std@@QAE@AAPAUChangeDirInfo@@0@Z ENDP ; std::_Pair_base<ChangeDirInfo *,ChangeDirInfo *>::_Pair_base<ChangeDirInfo *,ChangeDirInfo *><ChangeDirInfo * &,ChangeDirInfo * &>
_TEXT	ENDS
PUBLIC	??$_Move@AAUChangeDirInfo@@@std@@YA$$QAUChangeDirInfo@@AAU1@@Z ; std::_Move<ChangeDirInfo &>
; Function compile flags: /Ogsp
;	COMDAT ??$_Move@AAUChangeDirInfo@@@std@@YA$$QAUChangeDirInfo@@AAU1@@Z
_TEXT	SEGMENT
__Arg$ = 8						; size = 4
??$_Move@AAUChangeDirInfo@@@std@@YA$$QAUChangeDirInfo@@AAU1@@Z PROC ; std::_Move<ChangeDirInfo &>, COMDAT

; 94   : 	{	// forward _Arg as movable

  00000	55		 push	 ebp
  00001	8b ec		 mov	 ebp, esp

; 95   : 	return ((typename tr1::_Remove_reference<_Ty>::_Type&&)_Arg);

  00003	8b 45 08	 mov	 eax, DWORD PTR __Arg$[ebp]

; 96   : 	}

  00006	5d		 pop	 ebp
  00007	c3		 ret	 0
??$_Move@AAUChangeDirInfo@@@std@@YA$$QAUChangeDirInfo@@AAU1@@Z ENDP ; std::_Move<ChangeDirInfo &>
_TEXT	ENDS
PUBLIC	??$forward@UChangeDirInfo@@@std@@YA$$QAUChangeDirInfo@@AAU1@@Z ; std::forward<ChangeDirInfo>
; Function compile flags: /Ogsp
;	COMDAT ??$forward@UChangeDirInfo@@@std@@YA$$QAUChangeDirInfo@@AAU1@@Z
_TEXT	SEGMENT
__Arg$ = 8						; size = 4
??$forward@UChangeDirInfo@@@std@@YA$$QAUChangeDirInfo@@AAU1@@Z PROC ; std::forward<ChangeDirInfo>, COMDAT

; 78   : 	{	// forward _Arg, given explicitly specified type parameter

  00000	55		 push	 ebp
  00001	8b ec		 mov	 ebp, esp

; 79   : 	return ((_Ty&&)_Arg);

  00003	8b 45 08	 mov	 eax, DWORD PTR __Arg$[ebp]

; 80   : 	}

  00006	5d		 pop	 ebp
  00007	c3		 ret	 0
??$forward@UChangeDirInfo@@@std@@YA$$QAUChangeDirInfo@@AAU1@@Z ENDP ; std::forward<ChangeDirInfo>
_TEXT	ENDS
PUBLIC	??$_Move_backward@PAUChangeDirInfo@@PAU1@@std@@YAPAUChangeDirInfo@@PAU1@00U_Nonscalar_ptr_iterator_tag@0@@Z ; std::_Move_backward<ChangeDirInfo *,ChangeDirInfo *>
; Function compile flags: /Ogsp
; File c:\program files (x86)\microsoft visual studio 10.0\vc\include\xutility
;	COMDAT ??$_Move_backward@PAUChangeDirInfo@@PAU1@@std@@YAPAUChangeDirInfo@@PAU1@00U_Nonscalar_ptr_iterator_tag@0@@Z
_TEXT	SEGMENT
__First$ = 8						; size = 4
__Last$ = 12						; size = 4
__Dest$ = 16						; size = 4
___formal$ = 20						; size = 1
??$_Move_backward@PAUChangeDirInfo@@PAU1@@std@@YAPAUChangeDirInfo@@PAU1@00U_Nonscalar_ptr_iterator_tag@0@@Z PROC ; std::_Move_backward<ChangeDirInfo *,ChangeDirInfo *>, COMDAT

; 2617 : 	{	// move [_First, _Last) backwards to [..., _Dest), arbitrary iterators

  00000	55		 push	 ebp
  00001	8b ec		 mov	 ebp, esp

; 2618 : 	while (_First != _Last)

  00003	8b 45 0c	 mov	 eax, DWORD PTR __Last$[ebp]
  00006	39 45 08	 cmp	 DWORD PTR __First$[ebp], eax
  00009	74 1a		 je	 SHORT $LN9@Move_backw
  0000b	56		 push	 esi
  0000c	57		 push	 edi
$LL2@Move_backw:

; 2619 : 		*--_Dest = _STD move(*--_Last);

  0000d	83 6d 10 1c	 sub	 DWORD PTR __Dest$[ebp], 28 ; 0000001cH
  00011	8b 7d 10	 mov	 edi, DWORD PTR __Dest$[ebp]
  00014	83 e8 1c	 sub	 eax, 28			; 0000001cH
  00017	6a 07		 push	 7
  00019	59		 pop	 ecx
  0001a	8b f0		 mov	 esi, eax
  0001c	f3 a5		 rep movsd
  0001e	3b 45 08	 cmp	 eax, DWORD PTR __First$[ebp]
  00021	75 ea		 jne	 SHORT $LL2@Move_backw
  00023	5f		 pop	 edi
  00024	5e		 pop	 esi
$LN9@Move_backw:

; 2620 : 	return (_Dest);

  00025	8b 45 10	 mov	 eax, DWORD PTR __Dest$[ebp]

; 2621 : 	}

  00028	5d		 pop	 ebp
  00029	c3		 ret	 0
??$_Move_backward@PAUChangeDirInfo@@PAU1@@std@@YAPAUChangeDirInfo@@PAU1@00U_Nonscalar_ptr_iterator_tag@0@@Z ENDP ; std::_Move_backward<ChangeDirInfo *,ChangeDirInfo *>
_TEXT	ENDS
PUBLIC	??0D3DXVECTOR3@@QAE@MMM@Z			; D3DXVECTOR3::D3DXVECTOR3
; Function compile flags: /Ogsp
; File c:\program files (x86)\microsoft directx sdk (june 2010)\include\d3dx9math.inl
;	COMDAT ??0D3DXVECTOR3@@QAE@MMM@Z
_TEXT	SEGMENT
_fx$ = 8						; size = 4
_fy$ = 12						; size = 4
_fz$ = 16						; size = 4
??0D3DXVECTOR3@@QAE@MMM@Z PROC				; D3DXVECTOR3::D3DXVECTOR3, COMDAT
; _this$ = ecx

; 303  : {

  00000	55		 push	 ebp
  00001	8b ec		 mov	 ebp, esp

; 304  :     x = fx;

  00003	f3 0f 10 45 08	 movss	 xmm0, DWORD PTR _fx$[ebp]
  00008	8b c1		 mov	 eax, ecx
  0000a	f3 0f 11 00	 movss	 DWORD PTR [eax], xmm0

; 305  :     y = fy;

  0000e	f3 0f 10 45 0c	 movss	 xmm0, DWORD PTR _fy$[ebp]
  00013	f3 0f 11 40 04	 movss	 DWORD PTR [eax+4], xmm0

; 306  :     z = fz;

  00018	f3 0f 10 45 10	 movss	 xmm0, DWORD PTR _fz$[ebp]
  0001d	f3 0f 11 40 08	 movss	 DWORD PTR [eax+8], xmm0

; 307  : }

  00022	5d		 pop	 ebp
  00023	c2 0c 00	 ret	 12			; 0000000cH
??0D3DXVECTOR3@@QAE@MMM@Z ENDP				; D3DXVECTOR3::D3DXVECTOR3
_TEXT	ENDS
PUBLIC	__mask@@NegFloat@
PUBLIC	??GD3DXVECTOR3@@QBE?AU0@XZ			; D3DXVECTOR3::operator-
;	COMDAT __mask@@NegFloat@
CONST	SEGMENT
__mask@@NegFloat@ DB 00H, 00H, 00H, 080H, 00H, 00H, 00H, 080H, 00H, 00H, 00H
	DB	080H, 00H, 00H, 00H, 080H
; Function compile flags: /Ogsp
CONST	ENDS
;	COMDAT ??GD3DXVECTOR3@@QBE?AU0@XZ
_TEXT	SEGMENT
___$ReturnUdt$ = 8					; size = 4
??GD3DXVECTOR3@@QBE?AU0@XZ PROC				; D3DXVECTOR3::operator-, COMDAT
; _this$ = ecx

; 372  : {

  00000	55		 push	 ebp
  00001	8b ec		 mov	 ebp, esp

; 373  :     return D3DXVECTOR3(-x, -y, -z);

  00003	f3 0f 10 05 00
	00 00 00	 movss	 xmm0, DWORD PTR __mask@@NegFloat@
  0000b	8b 45 08	 mov	 eax, DWORD PTR ___$ReturnUdt$[ebp]
  0000e	f3 0f 10 09	 movss	 xmm1, DWORD PTR [ecx]
  00012	0f 57 c8	 xorps	 xmm1, xmm0
  00015	f3 0f 11 08	 movss	 DWORD PTR [eax], xmm1
  00019	f3 0f 10 49 04	 movss	 xmm1, DWORD PTR [ecx+4]
  0001e	0f 57 c8	 xorps	 xmm1, xmm0
  00021	f3 0f 11 48 04	 movss	 DWORD PTR [eax+4], xmm1
  00026	f3 0f 10 49 08	 movss	 xmm1, DWORD PTR [ecx+8]
  0002b	0f 57 c8	 xorps	 xmm1, xmm0
  0002e	f3 0f 11 48 08	 movss	 DWORD PTR [eax+8], xmm1

; 374  : }

  00033	5d		 pop	 ebp
  00034	c2 04 00	 ret	 4
??GD3DXVECTOR3@@QBE?AU0@XZ ENDP				; D3DXVECTOR3::operator-
_TEXT	ENDS
PUBLIC	??HD3DXVECTOR3@@QBE?AU0@ABU0@@Z			; D3DXVECTOR3::operator+
; Function compile flags: /Ogsp
;	COMDAT ??HD3DXVECTOR3@@QBE?AU0@ABU0@@Z
_TEXT	SEGMENT
___$ReturnUdt$ = 8					; size = 4
_v$ = 12						; size = 4
??HD3DXVECTOR3@@QBE?AU0@ABU0@@Z PROC			; D3DXVECTOR3::operator+, COMDAT
; _this$ = ecx

; 380  : {

  00000	55		 push	 ebp
  00001	8b ec		 mov	 ebp, esp

; 381  :     return D3DXVECTOR3(x + v.x, y + v.y, z + v.z);

  00003	8b 55 0c	 mov	 edx, DWORD PTR _v$[ebp]
  00006	f3 0f 10 02	 movss	 xmm0, DWORD PTR [edx]
  0000a	f3 0f 10 09	 movss	 xmm1, DWORD PTR [ecx]
  0000e	8b 45 08	 mov	 eax, DWORD PTR ___$ReturnUdt$[ebp]
  00011	0f 5a c0	 cvtps2pd xmm0, xmm0
  00014	0f 5a c9	 cvtps2pd xmm1, xmm1
  00017	f2 0f 58 c1	 addsd	 xmm0, xmm1
  0001b	f3 0f 10 49 04	 movss	 xmm1, DWORD PTR [ecx+4]
  00020	66 0f 5a c0	 cvtpd2ps xmm0, xmm0
  00024	f3 0f 11 00	 movss	 DWORD PTR [eax], xmm0
  00028	f3 0f 10 42 04	 movss	 xmm0, DWORD PTR [edx+4]
  0002d	0f 5a c0	 cvtps2pd xmm0, xmm0
  00030	0f 5a c9	 cvtps2pd xmm1, xmm1
  00033	f2 0f 58 c1	 addsd	 xmm0, xmm1
  00037	f3 0f 10 49 08	 movss	 xmm1, DWORD PTR [ecx+8]
  0003c	66 0f 5a c0	 cvtpd2ps xmm0, xmm0
  00040	f3 0f 11 40 04	 movss	 DWORD PTR [eax+4], xmm0
  00045	f3 0f 10 42 08	 movss	 xmm0, DWORD PTR [edx+8]
  0004a	0f 5a c0	 cvtps2pd xmm0, xmm0
  0004d	0f 5a c9	 cvtps2pd xmm1, xmm1
  00050	f2 0f 58 c1	 addsd	 xmm0, xmm1
  00054	66 0f 5a c0	 cvtpd2ps xmm0, xmm0
  00058	f3 0f 11 40 08	 movss	 DWORD PTR [eax+8], xmm0

; 382  : }

  0005d	5d		 pop	 ebp
  0005e	c2 08 00	 ret	 8
??HD3DXVECTOR3@@QBE?AU0@ABU0@@Z ENDP			; D3DXVECTOR3::operator+
_TEXT	ENDS
PUBLIC	??GD3DXVECTOR3@@QBE?AU0@ABU0@@Z			; D3DXVECTOR3::operator-
; Function compile flags: /Ogsp
;	COMDAT ??GD3DXVECTOR3@@QBE?AU0@ABU0@@Z
_TEXT	SEGMENT
___$ReturnUdt$ = 8					; size = 4
_v$ = 12						; size = 4
??GD3DXVECTOR3@@QBE?AU0@ABU0@@Z PROC			; D3DXVECTOR3::operator-, COMDAT
; _this$ = ecx

; 386  : {

  00000	55		 push	 ebp
  00001	8b ec		 mov	 ebp, esp

; 387  :     return D3DXVECTOR3(x - v.x, y - v.y, z - v.z);

  00003	8b 55 0c	 mov	 edx, DWORD PTR _v$[ebp]
  00006	f3 0f 10 01	 movss	 xmm0, DWORD PTR [ecx]
  0000a	f3 0f 10 0a	 movss	 xmm1, DWORD PTR [edx]
  0000e	8b 45 08	 mov	 eax, DWORD PTR ___$ReturnUdt$[ebp]
  00011	0f 5a c0	 cvtps2pd xmm0, xmm0
  00014	0f 5a c9	 cvtps2pd xmm1, xmm1
  00017	f2 0f 5c c1	 subsd	 xmm0, xmm1
  0001b	f3 0f 10 4a 04	 movss	 xmm1, DWORD PTR [edx+4]
  00020	66 0f 5a c0	 cvtpd2ps xmm0, xmm0
  00024	f3 0f 11 00	 movss	 DWORD PTR [eax], xmm0
  00028	f3 0f 10 41 04	 movss	 xmm0, DWORD PTR [ecx+4]
  0002d	0f 5a c0	 cvtps2pd xmm0, xmm0
  00030	0f 5a c9	 cvtps2pd xmm1, xmm1
  00033	f2 0f 5c c1	 subsd	 xmm0, xmm1
  00037	f3 0f 10 4a 08	 movss	 xmm1, DWORD PTR [edx+8]
  0003c	66 0f 5a c0	 cvtpd2ps xmm0, xmm0
  00040	f3 0f 11 40 04	 movss	 DWORD PTR [eax+4], xmm0
  00045	f3 0f 10 41 08	 movss	 xmm0, DWORD PTR [ecx+8]
  0004a	0f 5a c0	 cvtps2pd xmm0, xmm0
  0004d	0f 5a c9	 cvtps2pd xmm1, xmm1
  00050	f2 0f 5c c1	 subsd	 xmm0, xmm1
  00054	66 0f 5a c0	 cvtpd2ps xmm0, xmm0
  00058	f3 0f 11 40 08	 movss	 DWORD PTR [eax+8], xmm0

; 388  : }

  0005d	5d		 pop	 ebp
  0005e	c2 08 00	 ret	 8
??GD3DXVECTOR3@@QBE?AU0@ABU0@@Z ENDP			; D3DXVECTOR3::operator-
_TEXT	ENDS
PUBLIC	??DD3DXVECTOR3@@QBE?AU0@M@Z			; D3DXVECTOR3::operator*
; Function compile flags: /Ogsp
;	COMDAT ??DD3DXVECTOR3@@QBE?AU0@M@Z
_TEXT	SEGMENT
___$ReturnUdt$ = 8					; size = 4
_f$ = 12						; size = 4
??DD3DXVECTOR3@@QBE?AU0@M@Z PROC			; D3DXVECTOR3::operator*, COMDAT
; _this$ = ecx

; 392  : {

  00000	55		 push	 ebp
  00001	8b ec		 mov	 ebp, esp

; 393  :     return D3DXVECTOR3(x * f, y * f, z * f);

  00003	f3 0f 10 4d 0c	 movss	 xmm1, DWORD PTR _f$[ebp]
  00008	f3 0f 10 01	 movss	 xmm0, DWORD PTR [ecx]
  0000c	8b 45 08	 mov	 eax, DWORD PTR ___$ReturnUdt$[ebp]
  0000f	0f 5a c0	 cvtps2pd xmm0, xmm0
  00012	0f 5a c9	 cvtps2pd xmm1, xmm1
  00015	f2 0f 59 c1	 mulsd	 xmm0, xmm1
  00019	f3 0f 10 4d 0c	 movss	 xmm1, DWORD PTR _f$[ebp]
  0001e	66 0f 5a c0	 cvtpd2ps xmm0, xmm0
  00022	f3 0f 11 00	 movss	 DWORD PTR [eax], xmm0
  00026	f3 0f 10 41 04	 movss	 xmm0, DWORD PTR [ecx+4]
  0002b	0f 5a c0	 cvtps2pd xmm0, xmm0
  0002e	0f 5a c9	 cvtps2pd xmm1, xmm1
  00031	f2 0f 59 c1	 mulsd	 xmm0, xmm1
  00035	f3 0f 10 4d 0c	 movss	 xmm1, DWORD PTR _f$[ebp]
  0003a	66 0f 5a c0	 cvtpd2ps xmm0, xmm0
  0003e	f3 0f 11 40 04	 movss	 DWORD PTR [eax+4], xmm0
  00043	f3 0f 10 41 08	 movss	 xmm0, DWORD PTR [ecx+8]
  00048	0f 5a c0	 cvtps2pd xmm0, xmm0
  0004b	0f 5a c9	 cvtps2pd xmm1, xmm1
  0004e	f2 0f 59 c1	 mulsd	 xmm0, xmm1
  00052	66 0f 5a c0	 cvtpd2ps xmm0, xmm0
  00056	f3 0f 11 40 08	 movss	 DWORD PTR [eax+8], xmm0

; 394  : }

  0005b	5d		 pop	 ebp
  0005c	c2 08 00	 ret	 8
??DD3DXVECTOR3@@QBE?AU0@M@Z ENDP			; D3DXVECTOR3::operator*
_TEXT	ENDS
PUBLIC	??9D3DXVECTOR3@@QBEHABU0@@Z			; D3DXVECTOR3::operator!=
; Function compile flags: /Ogsp
;	COMDAT ??9D3DXVECTOR3@@QBEHABU0@@Z
_TEXT	SEGMENT
_v$ = 8							; size = 4
??9D3DXVECTOR3@@QBEHABU0@@Z PROC			; D3DXVECTOR3::operator!=, COMDAT
; _this$ = ecx

; 419  : {

  00000	55		 push	 ebp
  00001	8b ec		 mov	 ebp, esp

; 420  :     return x != v.x || y != v.y || z != v.z;

  00003	8b 55 08	 mov	 edx, DWORD PTR _v$[ebp]
  00006	f3 0f 10 01	 movss	 xmm0, DWORD PTR [ecx]
  0000a	f3 0f 10 0a	 movss	 xmm1, DWORD PTR [edx]
  0000e	0f 5a c0	 cvtps2pd xmm0, xmm0
  00011	0f 5a c9	 cvtps2pd xmm1, xmm1
  00014	66 0f 2e c1	 ucomisd xmm0, xmm1
  00018	9f		 lahf
  00019	f6 c4 44	 test	 ah, 68			; 00000044H
  0001c	7a 38		 jp	 SHORT $LN3@operator
  0001e	f3 0f 10 41 04	 movss	 xmm0, DWORD PTR [ecx+4]
  00023	f3 0f 10 4a 04	 movss	 xmm1, DWORD PTR [edx+4]
  00028	0f 5a c0	 cvtps2pd xmm0, xmm0
  0002b	0f 5a c9	 cvtps2pd xmm1, xmm1
  0002e	66 0f 2e c1	 ucomisd xmm0, xmm1
  00032	9f		 lahf
  00033	f6 c4 44	 test	 ah, 68			; 00000044H
  00036	7a 1e		 jp	 SHORT $LN3@operator
  00038	f3 0f 10 41 08	 movss	 xmm0, DWORD PTR [ecx+8]
  0003d	f3 0f 10 4a 08	 movss	 xmm1, DWORD PTR [edx+8]
  00042	0f 5a c0	 cvtps2pd xmm0, xmm0
  00045	0f 5a c9	 cvtps2pd xmm1, xmm1
  00048	66 0f 2e c1	 ucomisd xmm0, xmm1
  0004c	9f		 lahf
  0004d	f6 c4 44	 test	 ah, 68			; 00000044H
  00050	7a 04		 jp	 SHORT $LN3@operator
  00052	33 c0		 xor	 eax, eax
  00054	eb 03		 jmp	 SHORT $LN4@operator
$LN3@operator:
  00056	33 c0		 xor	 eax, eax
  00058	40		 inc	 eax
$LN4@operator:

; 421  : }

  00059	5d		 pop	 ebp
  0005a	c2 04 00	 ret	 4
??9D3DXVECTOR3@@QBEHABU0@@Z ENDP			; D3DXVECTOR3::operator!=
_TEXT	ENDS
PUBLIC	?D3DXVec3LengthSq@@YAMPBUD3DXVECTOR3@@@Z	; D3DXVec3LengthSq
; Function compile flags: /Ogsp
;	COMDAT ?D3DXVec3LengthSq@@YAMPBUD3DXVECTOR3@@@Z
_TEXT	SEGMENT
tv165 = 8						; size = 4
_pV$ = 8						; size = 4
?D3DXVec3LengthSq@@YAMPBUD3DXVECTOR3@@@Z PROC		; D3DXVec3LengthSq, COMDAT

; 1725 : {

  00000	55		 push	 ebp
  00001	8b ec		 mov	 ebp, esp

; 1726 : #ifdef D3DX_DEBUG
; 1727 :     if(!pV)
; 1728 :         return 0.0f;
; 1729 : #endif
; 1730 : 
; 1731 :     return pV->x * pV->x + pV->y * pV->y + pV->z * pV->z;

  00003	8b 45 08	 mov	 eax, DWORD PTR _pV$[ebp]
  00006	d9 40 04	 fld	 DWORD PTR [eax+4]
  00009	d9 00		 fld	 DWORD PTR [eax]
  0000b	d9 40 08	 fld	 DWORD PTR [eax+8]
  0000e	d9 c1		 fld	 ST(1)
  00010	de ca		 fmulp	 ST(2), ST(0)
  00012	d9 c2		 fld	 ST(2)
  00014	de cb		 fmulp	 ST(3), ST(0)
  00016	d9 c9		 fxch	 ST(1)
  00018	de c2		 faddp	 ST(2), ST(0)
  0001a	d9 c0		 fld	 ST(0)
  0001c	de c9		 fmulp	 ST(1), ST(0)
  0001e	de c1		 faddp	 ST(1), ST(0)
  00020	d9 5d 08	 fstp	 DWORD PTR tv165[ebp]
  00023	d9 45 08	 fld	 DWORD PTR tv165[ebp]

; 1732 : }

  00026	5d		 pop	 ebp
  00027	c3		 ret	 0
?D3DXVec3LengthSq@@YAMPBUD3DXVECTOR3@@@Z ENDP		; D3DXVec3LengthSq
_TEXT	ENDS
PUBLIC	?D3DXVec3Dot@@YAMPBUD3DXVECTOR3@@0@Z		; D3DXVec3Dot
; Function compile flags: /Ogsp
;	COMDAT ?D3DXVec3Dot@@YAMPBUD3DXVECTOR3@@0@Z
_TEXT	SEGMENT
tv188 = 8						; size = 4
_pV1$ = 8						; size = 4
_pV2$ = 12						; size = 4
?D3DXVec3Dot@@YAMPBUD3DXVECTOR3@@0@Z PROC		; D3DXVec3Dot, COMDAT

; 1736 : {

  00000	55		 push	 ebp
  00001	8b ec		 mov	 ebp, esp

; 1737 : #ifdef D3DX_DEBUG
; 1738 :     if(!pV1 || !pV2)
; 1739 :         return 0.0f;
; 1740 : #endif
; 1741 : 
; 1742 :     return pV1->x * pV2->x + pV1->y * pV2->y + pV1->z * pV2->z;

  00003	8b 45 08	 mov	 eax, DWORD PTR _pV1$[ebp]
  00006	8b 4d 0c	 mov	 ecx, DWORD PTR _pV2$[ebp]
  00009	d9 40 04	 fld	 DWORD PTR [eax+4]
  0000c	d8 49 04	 fmul	 DWORD PTR [ecx+4]
  0000f	d9 00		 fld	 DWORD PTR [eax]
  00011	d8 09		 fmul	 DWORD PTR [ecx]
  00013	de c1		 faddp	 ST(1), ST(0)
  00015	d9 40 08	 fld	 DWORD PTR [eax+8]
  00018	d8 49 08	 fmul	 DWORD PTR [ecx+8]
  0001b	de c1		 faddp	 ST(1), ST(0)
  0001d	d9 5d 08	 fstp	 DWORD PTR tv188[ebp]
  00020	d9 45 08	 fld	 DWORD PTR tv188[ebp]

; 1743 : }

  00023	5d		 pop	 ebp
  00024	c3		 ret	 0
?D3DXVec3Dot@@YAMPBUD3DXVECTOR3@@0@Z ENDP		; D3DXVec3Dot
_TEXT	ENDS
PUBLIC	?D3DXVec3Cross@@YAPAUD3DXVECTOR3@@PAU1@PBU1@1@Z	; D3DXVec3Cross
; Function compile flags: /Ogsp
;	COMDAT ?D3DXVec3Cross@@YAPAUD3DXVECTOR3@@PAU1@PBU1@1@Z
_TEXT	SEGMENT
_v$ = -12						; size = 12
_pOut$ = 8						; size = 4
_pV1$ = 12						; size = 4
_pV2$ = 16						; size = 4
?D3DXVec3Cross@@YAPAUD3DXVECTOR3@@PAU1@PBU1@1@Z PROC	; D3DXVec3Cross, COMDAT

; 1747 : {

  00000	55		 push	 ebp
  00001	8b ec		 mov	 ebp, esp
  00003	83 ec 0c	 sub	 esp, 12			; 0000000cH

; 1757 :     v.z = pV1->x * pV2->y - pV1->y * pV2->x;
; 1758 : 
; 1759 :     *pOut = v;

  00006	56		 push	 esi
  00007	57		 push	 edi

; 1748 :     D3DXVECTOR3 v;
; 1749 : 
; 1750 : #ifdef D3DX_DEBUG
; 1751 :     if(!pOut || !pV1 || !pV2)
; 1752 :         return NULL;
; 1753 : #endif
; 1754 : 
; 1755 :     v.x = pV1->y * pV2->z - pV1->z * pV2->y;

  00008	8b 45 0c	 mov	 eax, DWORD PTR _pV1$[ebp]
  0000b	f3 0f 10 40 04	 movss	 xmm0, DWORD PTR [eax+4]
  00010	f3 0f 10 50 08	 movss	 xmm2, DWORD PTR [eax+8]
  00015	8b 4d 10	 mov	 ecx, DWORD PTR _pV2$[ebp]
  00018	f3 0f 10 49 08	 movss	 xmm1, DWORD PTR [ecx+8]
  0001d	f3 0f 10 59 04	 movss	 xmm3, DWORD PTR [ecx+4]
  00022	0f 5a e8	 cvtps2pd xmm5, xmm0
  00025	0f 5a e1	 cvtps2pd xmm4, xmm1
  00028	0f 5a f2	 cvtps2pd xmm6, xmm2
  0002b	f2 0f 59 e5	 mulsd	 xmm4, xmm5

; 1756 :     v.y = pV1->z * pV2->x - pV1->x * pV2->z;

  0002f	0f 5a d2	 cvtps2pd xmm2, xmm2
  00032	0f 5a c9	 cvtps2pd xmm1, xmm1
  00035	0f 5a eb	 cvtps2pd xmm5, xmm3
  00038	f2 0f 59 ee	 mulsd	 xmm5, xmm6
  0003c	f2 0f 5c e5	 subsd	 xmm4, xmm5
  00040	f3 0f 10 28	 movss	 xmm5, DWORD PTR [eax]

; 1757 :     v.z = pV1->x * pV2->y - pV1->y * pV2->x;
; 1758 : 
; 1759 :     *pOut = v;

  00044	8b 45 08	 mov	 eax, DWORD PTR _pOut$[ebp]
  00047	66 0f 5a e4	 cvtpd2ps xmm4, xmm4
  0004b	f3 0f 11 65 f4	 movss	 DWORD PTR _v$[ebp], xmm4
  00050	f3 0f 10 21	 movss	 xmm4, DWORD PTR [ecx]
  00054	0f 5a f4	 cvtps2pd xmm6, xmm4
  00057	f2 0f 59 f2	 mulsd	 xmm6, xmm2
  0005b	0f 5a d5	 cvtps2pd xmm2, xmm5
  0005e	f2 0f 59 d1	 mulsd	 xmm2, xmm1
  00062	f2 0f 5c f2	 subsd	 xmm6, xmm2
  00066	66 0f 5a ce	 cvtpd2ps xmm1, xmm6
  0006a	f3 0f 11 4d f8	 movss	 DWORD PTR _v$[ebp+4], xmm1
  0006f	0f 5a c0	 cvtps2pd xmm0, xmm0
  00072	0f 5a d3	 cvtps2pd xmm2, xmm3
  00075	0f 5a cd	 cvtps2pd xmm1, xmm5
  00078	f2 0f 59 ca	 mulsd	 xmm1, xmm2
  0007c	8d 75 f4	 lea	 esi, DWORD PTR _v$[ebp]
  0007f	8b f8		 mov	 edi, eax
  00081	0f 5a d4	 cvtps2pd xmm2, xmm4
  00084	f2 0f 59 d0	 mulsd	 xmm2, xmm0
  00088	f2 0f 5c ca	 subsd	 xmm1, xmm2
  0008c	66 0f 5a c1	 cvtpd2ps xmm0, xmm1
  00090	f3 0f 11 45 fc	 movss	 DWORD PTR _v$[ebp+8], xmm0
  00095	a5		 movsd
  00096	a5		 movsd
  00097	a5		 movsd
  00098	5f		 pop	 edi
  00099	5e		 pop	 esi

; 1760 :     return pOut;
; 1761 : }

  0009a	c9		 leave
  0009b	c3		 ret	 0
?D3DXVec3Cross@@YAPAUD3DXVECTOR3@@PAU1@PBU1@1@Z ENDP	; D3DXVec3Cross
_TEXT	ENDS
PUBLIC	?_DECSTR@@YAXPADH@Z				; _DECSTR
; Function compile flags: /Ogsp
; File d:\lost saga for developer\youtube\tutorial\source\src\lsclient\stringprotect.h
;	COMDAT ?_DECSTR@@YAXPADH@Z
_TEXT	SEGMENT
_s$ = 8							; size = 4
_l$ = 12						; size = 4
?_DECSTR@@YAXPADH@Z PROC				; _DECSTR, COMDAT

; 40   : __forceinline void _DECSTR(char* s, int l){int i=0,l4=(l-1)/4,*p=(int*)s;s[l-1]=0;for(;i<l4;++i)*(p++)^=0xEAEBECED;for(i=l4*4;i<l-1;++i)s[i]^=0xED-i%4;}

  00000	55		 push	 ebp
  00001	8b ec		 mov	 ebp, esp
  00003	8b 4d 0c	 mov	 ecx, DWORD PTR _l$[ebp]
  00006	56		 push	 esi
  00007	8b 75 08	 mov	 esi, DWORD PTR _s$[ebp]
  0000a	57		 push	 edi
  0000b	8d 79 ff	 lea	 edi, DWORD PTR [ecx-1]
  0000e	8b c7		 mov	 eax, edi
  00010	99		 cdq
  00011	83 e2 03	 and	 edx, 3
  00014	03 c2		 add	 eax, edx
  00016	c1 f8 02	 sar	 eax, 2
  00019	8b d6		 mov	 edx, esi
  0001b	c6 44 0e ff 00	 mov	 BYTE PTR [esi+ecx-1], 0
  00020	85 c0		 test	 eax, eax
  00022	7e 0e		 jle	 SHORT $LN4@DECSTR
  00024	8b c8		 mov	 ecx, eax
$LL6@DECSTR:
  00026	81 32 ed ec eb
	ea		 xor	 DWORD PTR [edx], -353637139 ; eaebecedH
  0002c	83 c2 04	 add	 edx, 4
  0002f	49		 dec	 ecx
  00030	75 f4		 jne	 SHORT $LL6@DECSTR
$LN4@DECSTR:
  00032	c1 e0 02	 shl	 eax, 2
  00035	eb 17		 jmp	 SHORT $LN14@DECSTR
$LL3@DECSTR:
  00037	8b c8		 mov	 ecx, eax
  00039	81 e1 03 00 00
	80		 and	 ecx, -2147483645	; 80000003H
  0003f	79 05		 jns	 SHORT $LN13@DECSTR
  00041	49		 dec	 ecx
  00042	83 c9 fc	 or	 ecx, -4			; fffffffcH
  00045	41		 inc	 ecx
$LN13@DECSTR:
  00046	b2 ed		 mov	 dl, -19			; ffffffedH
  00048	2a d1		 sub	 dl, cl
  0004a	30 14 30	 xor	 BYTE PTR [eax+esi], dl
  0004d	40		 inc	 eax
$LN14@DECSTR:
  0004e	3b c7		 cmp	 eax, edi
  00050	7c e5		 jl	 SHORT $LL3@DECSTR
  00052	5f		 pop	 edi
  00053	5e		 pop	 esi
  00054	5d		 pop	 ebp
  00055	c3		 ret	 0
?_DECSTR@@YAXPADH@Z ENDP				; _DECSTR
_TEXT	ENDS
PUBLIC	?return57@@YAIXZ				; return57
; Function compile flags: /Ogsp
; File d:\lost saga for developer\youtube\tutorial\source\src\lsclient\veryoftenusedefine.h
;	COMDAT ?return57@@YAIXZ
_TEXT	SEGMENT
?return57@@YAIXZ PROC					; return57, COMDAT

; 15   : __forceinline unsigned int return57() { __asm mov eax, 57 };

  00000	b8 39 00 00 00	 mov	 eax, 57			; 00000039H
  00005	c3		 ret	 0
?return57@@YAIXZ ENDP					; return57
_TEXT	ENDS
PUBLIC	?GetGroup@ioGameEntity@@QBEPAVioEntityGroup@@XZ	; ioGameEntity::GetGroup
; Function compile flags: /Ogsp
; File d:\lost saga for developer\youtube\tutorial\source\src\lsclient\iogameentity.h
;	COMDAT ?GetGroup@ioGameEntity@@QBEPAVioEntityGroup@@XZ
_TEXT	SEGMENT
?GetGroup@ioGameEntity@@QBEPAVioEntityGroup@@XZ PROC	; ioGameEntity::GetGroup, COMDAT
; _this$ = ecx

; 166  : 	inline ioEntityGroup* GetGroup() const { return m_pGroup; }

  00000	8b 41 04	 mov	 eax, DWORD PTR [ecx+4]
  00003	c3		 ret	 0
?GetGroup@ioGameEntity@@QBEPAVioEntityGroup@@XZ ENDP	; ioGameEntity::GetGroup
_TEXT	ENDS
PUBLIC	??_R0?AVioGameEntity@@@8			; ioGameEntity `RTTI Type Descriptor'
PUBLIC	??_R0?AVioPlayEntity@@@8			; ioPlayEntity `RTTI Type Descriptor'
PUBLIC	?ToPlayEntity@@YAPAVioPlayEntity@@PAVioGameEntity@@@Z ; ToPlayEntity
EXTRN	___RTDynamicCast:PROC
;	COMDAT ??_R0?AVioGameEntity@@@8
; File d:\lost saga for developer\youtube\tutorial\source\src\lsclient\ioplayentity.h
_DATA	SEGMENT
??_R0?AVioGameEntity@@@8 DD FLAT:??_7type_info@@6B@	; ioGameEntity `RTTI Type Descriptor'
	DD	00H
	DB	'.?AVioGameEntity@@', 00H
_DATA	ENDS
;	COMDAT ??_R0?AVioPlayEntity@@@8
_DATA	SEGMENT
??_R0?AVioPlayEntity@@@8 DD FLAT:??_7type_info@@6B@	; ioPlayEntity `RTTI Type Descriptor'
	DD	00H
	DB	'.?AVioPlayEntity@@', 00H
; Function compile flags: /Ogsp
_DATA	ENDS
;	COMDAT ?ToPlayEntity@@YAPAVioPlayEntity@@PAVioGameEntity@@@Z
_TEXT	SEGMENT
_pObj$ = 8						; size = 4
?ToPlayEntity@@YAPAVioPlayEntity@@PAVioGameEntity@@@Z PROC ; ToPlayEntity, COMDAT

; 121  : {

  00000	55		 push	 ebp
  00001	8b ec		 mov	 ebp, esp
  00003	56		 push	 esi

; 122  : 	if( !pObj || pObj->GetTypeID() != ioGameEntity::GET_PLAY_ENTITY )

  00004	8b 75 08	 mov	 esi, DWORD PTR _pObj$[ebp]
  00007	85 f6		 test	 esi, esi
  00009	74 25		 je	 SHORT $LN1@ToPlayEnti
  0000b	8b 06		 mov	 eax, DWORD PTR [esi]
  0000d	8b ce		 mov	 ecx, esi
  0000f	ff 50 10	 call	 DWORD PTR [eax+16]
  00012	83 f8 01	 cmp	 eax, 1
  00015	75 19		 jne	 SHORT $LN1@ToPlayEnti

; 124  : 
; 125  : 	return dynamic_cast< ioPlayEntity* >( pObj );

  00017	6a 00		 push	 0
  00019	68 00 00 00 00	 push	 OFFSET ??_R0?AVioPlayEntity@@@8
  0001e	68 00 00 00 00	 push	 OFFSET ??_R0?AVioGameEntity@@@8
  00023	6a 00		 push	 0
  00025	56		 push	 esi
  00026	e8 00 00 00 00	 call	 ___RTDynamicCast
  0002b	83 c4 14	 add	 esp, 20			; 00000014H
  0002e	eb 02		 jmp	 SHORT $LN3@ToPlayEnti
$LN1@ToPlayEnti:

; 123  : 		return NULL;

  00030	33 c0		 xor	 eax, eax
$LN3@ToPlayEnti:
  00032	5e		 pop	 esi

; 126  : }

  00033	5d		 pop	 ebp
  00034	c3		 ret	 0
?ToPlayEntity@@YAPAVioPlayEntity@@PAVioGameEntity@@@Z ENDP ; ToPlayEntity
_TEXT	ENDS
PUBLIC	??0ChangeDirInfo@@QAE@XZ			; ChangeDirInfo::ChangeDirInfo
EXTRN	__imp_?VEC3_ZERO@ioMath@@2UD3DXVECTOR3@@A:BYTE
; Function compile flags: /Ogsp
; File d:\lost saga for developer\youtube\tutorial\source\src\lsclient\ioweapon.h
;	COMDAT ??0ChangeDirInfo@@QAE@XZ
_TEXT	SEGMENT
??0ChangeDirInfo@@QAE@XZ PROC				; ChangeDirInfo::ChangeDirInfo, COMDAT
; _this$ = ecx

; 34   : 	{
; 35   : 		m_fChangeRange	= 0.0f;

  00000	0f 57 c0	 xorps	 xmm0, xmm0
  00003	56		 push	 esi
  00004	8b c1		 mov	 eax, ecx
  00006	57		 push	 edi
  00007	f3 0f 11 00	 movss	 DWORD PTR [eax], xmm0

; 36   : 		m_fChangeSpeed	= 0.0f;

  0000b	f3 0f 11 40 04	 movss	 DWORD PTR [eax+4], xmm0

; 37   : 		m_fChangeAngleH	= 0.0f;

  00010	f3 0f 11 40 08	 movss	 DWORD PTR [eax+8], xmm0

; 38   : 		m_fChangeAngleV	= 0.0f;

  00015	f3 0f 11 40 0c	 movss	 DWORD PTR [eax+12], xmm0

; 39   : 		m_vFireOffset	= ioMath::VEC3_ZERO;

  0001a	8b 35 00 00 00
	00		 mov	 esi, DWORD PTR __imp_?VEC3_ZERO@ioMath@@2UD3DXVECTOR3@@A
  00020	8d 78 10	 lea	 edi, DWORD PTR [eax+16]
  00023	a5		 movsd
  00024	a5		 movsd
  00025	a5		 movsd
  00026	5f		 pop	 edi
  00027	5e		 pop	 esi

; 40   : 	}

  00028	c3		 ret	 0
??0ChangeDirInfo@@QAE@XZ ENDP				; ChangeDirInfo::ChangeDirInfo
_TEXT	ENDS
PUBLIC	??RChangeDirSort@@QBE_NABUChangeDirInfo@@0@Z	; ChangeDirSort::operator()
; Function compile flags: /Ogsp
;	COMDAT ??RChangeDirSort@@QBE_NABUChangeDirInfo@@0@Z
_TEXT	SEGMENT
_lhs$ = 8						; size = 4
_rhs$ = 12						; size = 4
??RChangeDirSort@@QBE_NABUChangeDirInfo@@0@Z PROC	; ChangeDirSort::operator(), COMDAT
; _this$ = ecx

; 49   : 	{

  00000	55		 push	 ebp
  00001	8b ec		 mov	 ebp, esp

; 50   : 		if( lhs.m_fChangeRange < rhs.m_fChangeRange )

  00003	8b 4d 08	 mov	 ecx, DWORD PTR _lhs$[ebp]
  00006	8b 55 0c	 mov	 edx, DWORD PTR _rhs$[ebp]
  00009	f3 0f 10 01	 movss	 xmm0, DWORD PTR [ecx]
  0000d	f3 0f 10 0a	 movss	 xmm1, DWORD PTR [edx]
  00011	0f 5a d0	 cvtps2pd xmm2, xmm0
  00014	0f 5a d9	 cvtps2pd xmm3, xmm1
  00017	66 0f 2f da	 comisd	 xmm3, xmm2
  0001b	76 04		 jbe	 SHORT $LN4@operator@2
$LN7@operator@2:

; 51   : 		{
; 52   : 			return true;

  0001d	b0 01		 mov	 al, 1
  0001f	eb 28		 jmp	 SHORT $LN5@operator@2
$LN4@operator@2:

; 53   : 		}
; 54   : 		else if( lhs.m_fChangeRange == rhs.m_fChangeRange )

  00021	0f 5a c0	 cvtps2pd xmm0, xmm0
  00024	0f 5a c9	 cvtps2pd xmm1, xmm1
  00027	66 0f 2e c1	 ucomisd xmm0, xmm1
  0002b	9f		 lahf
  0002c	f6 c4 44	 test	 ah, 68			; 00000044H
  0002f	7a 16		 jp	 SHORT $LN1@operator@2

; 55   : 		{
; 56   : 			if( lhs.m_fChangeAngleV < rhs.m_fChangeAngleV )

  00031	f3 0f 10 41 0c	 movss	 xmm0, DWORD PTR [ecx+12]
  00036	f3 0f 10 4a 0c	 movss	 xmm1, DWORD PTR [edx+12]
  0003b	0f 5a c0	 cvtps2pd xmm0, xmm0
  0003e	0f 5a c9	 cvtps2pd xmm1, xmm1
  00041	66 0f 2f c8	 comisd	 xmm1, xmm0

; 57   : 				return true;

  00045	77 d6		 ja	 SHORT $LN7@operator@2
$LN1@operator@2:

; 58   : 		}
; 59   : 		return false;

  00047	32 c0		 xor	 al, al
$LN5@operator@2:

; 60   : 	}

  00049	5d		 pop	 ebp
  0004a	c2 08 00	 ret	 8
??RChangeDirSort@@QBE_NABUChangeDirInfo@@0@Z ENDP	; ChangeDirSort::operator()
_TEXT	ENDS
PUBLIC	?IsLive@ioWeapon@@QBE_NXZ			; ioWeapon::IsLive
; Function compile flags: /Ogsp
;	COMDAT ?IsLive@ioWeapon@@QBE_NXZ
_TEXT	SEGMENT
?IsLive@ioWeapon@@QBE_NXZ PROC				; ioWeapon::IsLive, COMDAT
; _this$ = ecx

; 533  : 	inline bool IsLive() const { return m_bLive; }

  00000	8a 81 82 05 00
	00		 mov	 al, BYTE PTR [ecx+1410]
  00006	c3		 ret	 0
?IsLive@ioWeapon@@QBE_NXZ ENDP				; ioWeapon::IsLive
_TEXT	ENDS
PUBLIC	?GetOwnerName@ioWeapon@@QBEABVioHashString@@XZ	; ioWeapon::GetOwnerName
; Function compile flags: /Ogsp
;	COMDAT ?GetOwnerName@ioWeapon@@QBEABVioHashString@@XZ
_TEXT	SEGMENT
?GetOwnerName@ioWeapon@@QBEABVioHashString@@XZ PROC	; ioWeapon::GetOwnerName, COMDAT
; _this$ = ecx

; 636  : 	inline const ioHashString& GetOwnerName() const { return m_OwnerName; }

  00000	8d 41 10	 lea	 eax, DWORD PTR [ecx+16]
  00003	c3		 ret	 0
?GetOwnerName@ioWeapon@@QBEABVioHashString@@XZ ENDP	; ioWeapon::GetOwnerName
_TEXT	ENDS
PUBLIC	?GetParentSceneNode@ioWeapon@@QBEPAVioSceneNode@@XZ ; ioWeapon::GetParentSceneNode
; Function compile flags: /Ogsp
;	COMDAT ?GetParentSceneNode@ioWeapon@@QBEPAVioSceneNode@@XZ
_TEXT	SEGMENT
?GetParentSceneNode@ioWeapon@@QBEPAVioSceneNode@@XZ PROC ; ioWeapon::GetParentSceneNode, COMDAT
; _this$ = ecx

; 797  : 	ioSceneNode* GetParentSceneNode() const { return m_pSceneNode; }

  00000	8b 41 04	 mov	 eax, DWORD PTR [ecx+4]
  00003	c3		 ret	 0
?GetParentSceneNode@ioWeapon@@QBEPAVioSceneNode@@XZ ENDP ; ioWeapon::GetParentSceneNode
_TEXT	ENDS
PUBLIC	??_7?$CEncrypt@M@@6B@				; CEncrypt<float>::`vftable'
PUBLIC	??1?$CEncrypt@M@@UAE@XZ				; CEncrypt<float>::~CEncrypt<float>
PUBLIC	??_R4?$CEncrypt@M@@6B@				; CEncrypt<float>::`RTTI Complete Object Locator'
PUBLIC	??_R0?AV?$CEncrypt@M@@@8			; CEncrypt<float> `RTTI Type Descriptor'
PUBLIC	??_R3?$CEncrypt@M@@8				; CEncrypt<float>::`RTTI Class Hierarchy Descriptor'
PUBLIC	??_R2?$CEncrypt@M@@8				; CEncrypt<float>::`RTTI Base Class Array'
PUBLIC	??_R1A@?0A@EA@?$CEncrypt@M@@8			; CEncrypt<float>::`RTTI Base Class Descriptor at (0,-1,0,64)'
EXTRN	??1ccddaabb@@UAE@XZ:PROC			; ccddaabb::~ccddaabb
EXTRN	??_E?$CEncrypt@M@@UAEPAXI@Z:PROC		; CEncrypt<float>::`vector deleting destructor'
;	COMDAT ??_R1A@?0A@EA@?$CEncrypt@M@@8
; File d:\lost saga for developer\youtube\tutorial\source\src\lsclient\encryptvalue.h
rdata$r	SEGMENT
??_R1A@?0A@EA@?$CEncrypt@M@@8 DD FLAT:??_R0?AV?$CEncrypt@M@@@8 ; CEncrypt<float>::`RTTI Base Class Descriptor at (0,-1,0,64)'
	DD	00H
	DD	00H
	DD	0ffffffffH
	DD	00H
	DD	040H
	DD	FLAT:??_R3?$CEncrypt@M@@8
rdata$r	ENDS
;	COMDAT ??_R2?$CEncrypt@M@@8
rdata$r	SEGMENT
??_R2?$CEncrypt@M@@8 DD FLAT:??_R1A@?0A@EA@?$CEncrypt@M@@8 ; CEncrypt<float>::`RTTI Base Class Array'
rdata$r	ENDS
;	COMDAT ??_R3?$CEncrypt@M@@8
rdata$r	SEGMENT
??_R3?$CEncrypt@M@@8 DD 00H				; CEncrypt<float>::`RTTI Class Hierarchy Descriptor'
	DD	00H
	DD	01H
	DD	FLAT:??_R2?$CEncrypt@M@@8
rdata$r	ENDS
;	COMDAT ??_R0?AV?$CEncrypt@M@@@8
_DATA	SEGMENT
??_R0?AV?$CEncrypt@M@@@8 DD FLAT:??_7type_info@@6B@	; CEncrypt<float> `RTTI Type Descriptor'
	DD	00H
	DB	'.?AV?$CEncrypt@M@@', 00H
_DATA	ENDS
;	COMDAT ??_R4?$CEncrypt@M@@6B@
rdata$r	SEGMENT
??_R4?$CEncrypt@M@@6B@ DD 00H				; CEncrypt<float>::`RTTI Complete Object Locator'
	DD	00H
	DD	00H
	DD	FLAT:??_R0?AV?$CEncrypt@M@@@8
	DD	FLAT:??_R3?$CEncrypt@M@@8
rdata$r	ENDS
;	COMDAT ??_7?$CEncrypt@M@@6B@
CONST	SEGMENT
??_7?$CEncrypt@M@@6B@ DD FLAT:??_R4?$CEncrypt@M@@6B@	; CEncrypt<float>::`vftable'
	DD	FLAT:??_E?$CEncrypt@M@@UAEPAXI@Z
; Function compile flags: /Ogsp
CONST	ENDS
;	COMDAT ??1?$CEncrypt@M@@UAE@XZ
_TEXT	SEGMENT
??1?$CEncrypt@M@@UAE@XZ PROC				; CEncrypt<float>::~CEncrypt<float>, COMDAT
; _this$ = ecx

; 127  : 	{

  00000	c7 01 00 00 00
	00		 mov	 DWORD PTR [ecx], OFFSET ??_7?$CEncrypt@M@@6B@

; 128  : 	}

  00006	83 c1 0c	 add	 ecx, 12			; 0000000cH
  00009	e9 00 00 00 00	 jmp	 ??1ccddaabb@@UAE@XZ	; ccddaabb::~ccddaabb
??1?$CEncrypt@M@@UAE@XZ ENDP				; CEncrypt<float>::~CEncrypt<float>
_TEXT	ENDS
PUBLIC	??_7?$CEncrypt@K@@6B@				; CEncrypt<unsigned long>::`vftable'
PUBLIC	??1?$CEncrypt@K@@UAE@XZ				; CEncrypt<unsigned long>::~CEncrypt<unsigned long>
PUBLIC	??_R4?$CEncrypt@K@@6B@				; CEncrypt<unsigned long>::`RTTI Complete Object Locator'
PUBLIC	??_R0?AV?$CEncrypt@K@@@8			; CEncrypt<unsigned long> `RTTI Type Descriptor'
PUBLIC	??_R3?$CEncrypt@K@@8				; CEncrypt<unsigned long>::`RTTI Class Hierarchy Descriptor'
PUBLIC	??_R2?$CEncrypt@K@@8				; CEncrypt<unsigned long>::`RTTI Base Class Array'
PUBLIC	??_R1A@?0A@EA@?$CEncrypt@K@@8			; CEncrypt<unsigned long>::`RTTI Base Class Descriptor at (0,-1,0,64)'
EXTRN	??_E?$CEncrypt@K@@UAEPAXI@Z:PROC		; CEncrypt<unsigned long>::`vector deleting destructor'
;	COMDAT ??_R1A@?0A@EA@?$CEncrypt@K@@8
rdata$r	SEGMENT
??_R1A@?0A@EA@?$CEncrypt@K@@8 DD FLAT:??_R0?AV?$CEncrypt@K@@@8 ; CEncrypt<unsigned long>::`RTTI Base Class Descriptor at (0,-1,0,64)'
	DD	00H
	DD	00H
	DD	0ffffffffH
	DD	00H
	DD	040H
	DD	FLAT:??_R3?$CEncrypt@K@@8
rdata$r	ENDS
;	COMDAT ??_R2?$CEncrypt@K@@8
rdata$r	SEGMENT
??_R2?$CEncrypt@K@@8 DD FLAT:??_R1A@?0A@EA@?$CEncrypt@K@@8 ; CEncrypt<unsigned long>::`RTTI Base Class Array'
rdata$r	ENDS
;	COMDAT ??_R3?$CEncrypt@K@@8
rdata$r	SEGMENT
??_R3?$CEncrypt@K@@8 DD 00H				; CEncrypt<unsigned long>::`RTTI Class Hierarchy Descriptor'
	DD	00H
	DD	01H
	DD	FLAT:??_R2?$CEncrypt@K@@8
rdata$r	ENDS
;	COMDAT ??_R0?AV?$CEncrypt@K@@@8
_DATA	SEGMENT
??_R0?AV?$CEncrypt@K@@@8 DD FLAT:??_7type_info@@6B@	; CEncrypt<unsigned long> `RTTI Type Descriptor'
	DD	00H
	DB	'.?AV?$CEncrypt@K@@', 00H
_DATA	ENDS
;	COMDAT ??_R4?$CEncrypt@K@@6B@
rdata$r	SEGMENT
??_R4?$CEncrypt@K@@6B@ DD 00H				; CEncrypt<unsigned long>::`RTTI Complete Object Locator'
	DD	00H
	DD	00H
	DD	FLAT:??_R0?AV?$CEncrypt@K@@@8
	DD	FLAT:??_R3?$CEncrypt@K@@8
rdata$r	ENDS
;	COMDAT ??_7?$CEncrypt@K@@6B@
CONST	SEGMENT
??_7?$CEncrypt@K@@6B@ DD FLAT:??_R4?$CEncrypt@K@@6B@	; CEncrypt<unsigned long>::`vftable'
	DD	FLAT:??_E?$CEncrypt@K@@UAEPAXI@Z
; Function compile flags: /Ogsp
CONST	ENDS
;	COMDAT ??1?$CEncrypt@K@@UAE@XZ
_TEXT	SEGMENT
??1?$CEncrypt@K@@UAE@XZ PROC				; CEncrypt<unsigned long>::~CEncrypt<unsigned long>, COMDAT
; _this$ = ecx

; 127  : 	{

  00000	c7 01 00 00 00
	00		 mov	 DWORD PTR [ecx], OFFSET ??_7?$CEncrypt@K@@6B@

; 128  : 	}

  00006	83 c1 0c	 add	 ecx, 12			; 0000000cH
  00009	e9 00 00 00 00	 jmp	 ??1ccddaabb@@UAE@XZ	; ccddaabb::~ccddaabb
??1?$CEncrypt@K@@UAE@XZ ENDP				; CEncrypt<unsigned long>::~CEncrypt<unsigned long>
; Function compile flags: /Ogsp
_TEXT	ENDS
;	COMDAT ??_G?$CEncrypt@M@@UAEPAXI@Z
_TEXT	SEGMENT
___flags$ = 8						; size = 4
??_G?$CEncrypt@M@@UAEPAXI@Z PROC			; CEncrypt<float>::`scalar deleting destructor', COMDAT
; _this$ = ecx
  00000	55		 push	 ebp
  00001	8b ec		 mov	 ebp, esp
  00003	56		 push	 esi
  00004	8b f1		 mov	 esi, ecx
  00006	8d 4e 0c	 lea	 ecx, DWORD PTR [esi+12]
  00009	c7 06 00 00 00
	00		 mov	 DWORD PTR [esi], OFFSET ??_7?$CEncrypt@M@@6B@
  0000f	e8 00 00 00 00	 call	 ??1ccddaabb@@UAE@XZ	; ccddaabb::~ccddaabb
  00014	f6 45 08 01	 test	 BYTE PTR ___flags$[ebp], 1
  00018	74 07		 je	 SHORT $LN1@scalar@2
  0001a	56		 push	 esi
  0001b	e8 00 00 00 00	 call	 ??3@YAXPAX@Z		; operator delete
  00020	59		 pop	 ecx
$LN1@scalar@2:
  00021	8b c6		 mov	 eax, esi
  00023	5e		 pop	 esi
  00024	5d		 pop	 ebp
  00025	c2 04 00	 ret	 4
??_G?$CEncrypt@M@@UAEPAXI@Z ENDP			; CEncrypt<float>::`scalar deleting destructor'
; Function compile flags: /Ogsp
_TEXT	ENDS
;	COMDAT ??_G?$CEncrypt@K@@UAEPAXI@Z
_TEXT	SEGMENT
___flags$ = 8						; size = 4
??_G?$CEncrypt@K@@UAEPAXI@Z PROC			; CEncrypt<unsigned long>::`scalar deleting destructor', COMDAT
; _this$ = ecx
  00000	55		 push	 ebp
  00001	8b ec		 mov	 ebp, esp
  00003	56		 push	 esi
  00004	8b f1		 mov	 esi, ecx
  00006	8d 4e 0c	 lea	 ecx, DWORD PTR [esi+12]
  00009	c7 06 00 00 00
	00		 mov	 DWORD PTR [esi], OFFSET ??_7?$CEncrypt@K@@6B@
  0000f	e8 00 00 00 00	 call	 ??1ccddaabb@@UAE@XZ	; ccddaabb::~ccddaabb
  00014	f6 45 08 01	 test	 BYTE PTR ___flags$[ebp], 1
  00018	74 07		 je	 SHORT $LN1@scalar@3
  0001a	56		 push	 esi
  0001b	e8 00 00 00 00	 call	 ??3@YAXPAX@Z		; operator delete
  00020	59		 pop	 ecx
$LN1@scalar@3:
  00021	8b c6		 mov	 eax, esi
  00023	5e		 pop	 esi
  00024	5d		 pop	 ebp
  00025	c2 04 00	 ret	 4
??_G?$CEncrypt@K@@UAEPAXI@Z ENDP			; CEncrypt<unsigned long>::`scalar deleting destructor'
_TEXT	ENDS
PUBLIC	?EncryptValueToPool@?$CEncrypt@M@@AAEXPBD@Z	; CEncrypt<float>::EncryptValueToPool
EXTRN	?EncryptByte@ccddaabb@@QAEXPBDPADH@Z:PROC	; ccddaabb::EncryptByte
; Function compile flags: /Ogsp
;	COMDAT ?EncryptValueToPool@?$CEncrypt@M@@AAEXPBD@Z
_TEXT	SEGMENT
_value$ = 8						; size = 4
?EncryptValueToPool@?$CEncrypt@M@@AAEXPBD@Z PROC	; CEncrypt<float>::EncryptValueToPool, COMDAT
; _this$ = ecx

; 67   : 	{

  00000	55		 push	 ebp
  00001	8b ec		 mov	 ebp, esp

; 68   : 		m_RC5.EncryptByte( value, m_MemPool, max(m_ValueSize, DEFAULT_ENCRYPT) );

  00003	0f b7 41 06	 movzx	 eax, WORD PTR [ecx+6]
  00007	83 f8 04	 cmp	 eax, 4
  0000a	77 03		 ja	 SHORT $LN4@EncryptVal
  0000c	6a 04		 push	 4
  0000e	58		 pop	 eax
$LN4@EncryptVal:
  0000f	50		 push	 eax
  00010	8d 41 1c	 lea	 eax, DWORD PTR [ecx+28]
  00013	50		 push	 eax
  00014	ff 75 08	 push	 DWORD PTR _value$[ebp]
  00017	83 c1 0c	 add	 ecx, 12			; 0000000cH
  0001a	e8 00 00 00 00	 call	 ?EncryptByte@ccddaabb@@QAEXPBDPADH@Z ; ccddaabb::EncryptByte

; 69   : 		
; 70   : 	}

  0001f	5d		 pop	 ebp
  00020	c2 04 00	 ret	 4
?EncryptValueToPool@?$CEncrypt@M@@AAEXPBD@Z ENDP	; CEncrypt<float>::EncryptValueToPool
_TEXT	ENDS
PUBLIC	?Init@?$CEncrypt@M@@AAEXXZ			; CEncrypt<float>::Init
EXTRN	?Setup@ccddaabb@@QAEXPBDHH@Z:PROC		; ccddaabb::Setup
EXTRN	__imp__rand:PROC
EXTRN	__imp__timeGetTime@0:PROC
EXTRN	__imp__GetCurrentProcessId@0:PROC
; Function compile flags: /Ogsp
;	COMDAT ?Init@?$CEncrypt@M@@AAEXXZ
_TEXT	SEGMENT
_pid$ = -8						; size = 4
_tick$ = -4						; size = 4
?Init@?$CEncrypt@M@@AAEXXZ PROC				; CEncrypt<float>::Init, COMDAT
; _this$ = ecx

; 73   : 	{

  00000	55		 push	 ebp
  00001	8b ec		 mov	 ebp, esp
  00003	51		 push	 ecx
  00004	51		 push	 ecx
  00005	53		 push	 ebx
  00006	56		 push	 esi
  00007	57		 push	 edi
  00008	8b f1		 mov	 esi, ecx

; 74   : 		DWORD pid = GetCurrentProcessId();

  0000a	ff 15 00 00 00
	00		 call	 DWORD PTR __imp__GetCurrentProcessId@0
  00010	89 45 f8	 mov	 DWORD PTR _pid$[ebp], eax

; 75   : 		DWORD tick = timeGetTime();

  00013	ff 15 00 00 00
	00		 call	 DWORD PTR __imp__timeGetTime@0

; 76   : 		m_ValueSize    = sizeof(type);
; 77   : 		m_MemPoolPos   = (unsigned short)( rand()+pid+tick )%(MAX_MEM_POOL-m_ValueSize);

  00019	8b 3d 00 00 00
	00		 mov	 edi, DWORD PTR __imp__rand
  0001f	89 45 fc	 mov	 DWORD PTR _tick$[ebp], eax
  00022	6a 04		 push	 4
  00024	58		 pop	 eax
  00025	66 89 46 06	 mov	 WORD PTR [esi+6], ax
  00029	ff d7		 call	 edi
  0002b	03 45 f8	 add	 eax, DWORD PTR _pid$[ebp]
  0002e	0f b7 4e 06	 movzx	 ecx, WORD PTR [esi+6]
  00032	03 45 fc	 add	 eax, DWORD PTR _tick$[ebp]
  00035	6a 0c		 push	 12			; 0000000cH
  00037	0f b7 c0	 movzx	 eax, ax
  0003a	5b		 pop	 ebx
  0003b	99		 cdq
  0003c	2b d9		 sub	 ebx, ecx
  0003e	f7 fb		 idiv	 ebx
  00040	66 89 56 04	 mov	 WORD PTR [esi+4], dx

; 78   : 		m_EncryptSeed  = (char)( rand()+pid+tick )%256;

  00044	ff d7		 call	 edi
  00046	02 45 f8	 add	 al, BYTE PTR _pid$[ebp]
  00049	02 45 fc	 add	 al, BYTE PTR _tick$[ebp]
  0004c	0f be c0	 movsx	 eax, al
  0004f	25 ff 00 00 80	 and	 eax, -2147483393	; 800000ffH
  00054	79 07		 jns	 SHORT $LN8@Init
  00056	48		 dec	 eax
  00057	0d 00 ff ff ff	 or	 eax, -256		; ffffff00H
  0005c	40		 inc	 eax
$LN8@Init:
  0005d	88 46 08	 mov	 BYTE PTR [esi+8], al

; 79   : 
; 80   : 		for (int i = 0; i < MAX_MEM_POOL ; i++)

  00060	33 db		 xor	 ebx, ebx
$LL3@Init:

; 81   : 			m_MemPool[i] = (char)( rand()+pid+tick )%256; // 더미

  00062	ff d7		 call	 edi
  00064	02 45 f8	 add	 al, BYTE PTR _pid$[ebp]
  00067	02 45 fc	 add	 al, BYTE PTR _tick$[ebp]
  0006a	0f be c0	 movsx	 eax, al
  0006d	25 ff 00 00 80	 and	 eax, -2147483393	; 800000ffH
  00072	79 07		 jns	 SHORT $LN9@Init
  00074	48		 dec	 eax
  00075	0d 00 ff ff ff	 or	 eax, -256		; ffffff00H
  0007a	40		 inc	 eax
$LN9@Init:
  0007b	88 44 1e 1c	 mov	 BYTE PTR [esi+ebx+28], al
  0007f	43		 inc	 ebx
  00080	83 fb 0c	 cmp	 ebx, 12			; 0000000cH
  00083	7c dd		 jl	 SHORT $LL3@Init

; 82   : 
; 83   : 		//UJ 130913, 최적화: szKey 사용안하도록 간략화
; 84   : 		//char szKey[ccddaabb::KEY_SIZE];//="";
; 85   : 		//for (int i = 0; i < ccddaabb::KEY_SIZE  ; i++)
; 86   : 		//	szKey[i] = (char)( rand()+pid+tick )%256; // 더미
; 87   : 		m_RC5.Setup( NULL, pid, tick );

  00085	ff 75 fc	 push	 DWORD PTR _tick$[ebp]
  00088	8d 4e 0c	 lea	 ecx, DWORD PTR [esi+12]
  0008b	ff 75 f8	 push	 DWORD PTR _pid$[ebp]
  0008e	6a 00		 push	 0
  00090	e8 00 00 00 00	 call	 ?Setup@ccddaabb@@QAEXPBDHH@Z ; ccddaabb::Setup
  00095	5f		 pop	 edi
  00096	5e		 pop	 esi
  00097	5b		 pop	 ebx

; 88   : 
; 89   : #ifdef _NOTUSE
; 90   : 		m_value        = 0;
; 91   : 		EncryptValueToPool((char*)&m_value);
; 92   : 		Debug();
; 93   : #endif
; 94   : 	}

  00098	c9		 leave
  00099	c3		 ret	 0
?Init@?$CEncrypt@M@@AAEXXZ ENDP				; CEncrypt<float>::Init
_TEXT	ENDS
PUBLIC	?DecryptValueToPool@?$CEncrypt@M@@QAEXPAM@Z	; CEncrypt<float>::DecryptValueToPool
EXTRN	?DecryptByte@ccddaabb@@QBEXPBDPADH@Z:PROC	; ccddaabb::DecryptByte
; Function compile flags: /Ogsp
;	COMDAT ?DecryptValueToPool@?$CEncrypt@M@@QAEXPAM@Z
_TEXT	SEGMENT
_value$ = 8						; size = 4
?DecryptValueToPool@?$CEncrypt@M@@QAEXPAM@Z PROC	; CEncrypt<float>::DecryptValueToPool, COMDAT
; _this$ = ecx

; 1648 : 	{

  00000	55		 push	 ebp
  00001	8b ec		 mov	 ebp, esp
  00003	56		 push	 esi

; 1649 : 		m_RC5.DecryptByte( m_MemPool, m_TempMem, 4 );

  00004	8d 71 28	 lea	 esi, DWORD PTR [ecx+40]
  00007	6a 04		 push	 4
  00009	8d 41 1c	 lea	 eax, DWORD PTR [ecx+28]
  0000c	56		 push	 esi
  0000d	50		 push	 eax
  0000e	83 c1 0c	 add	 ecx, 12			; 0000000cH
  00011	e8 00 00 00 00	 call	 ?DecryptByte@ccddaabb@@QBEXPBDPADH@Z ; ccddaabb::DecryptByte

; 1650 : 		*value = *((float*)m_TempMem);

  00016	d9 06		 fld	 DWORD PTR [esi]
  00018	8b 45 08	 mov	 eax, DWORD PTR _value$[ebp]
  0001b	d9 18		 fstp	 DWORD PTR [eax]
  0001d	5e		 pop	 esi

; 1651 : 	}

  0001e	5d		 pop	 ebp
  0001f	c2 04 00	 ret	 4
?DecryptValueToPool@?$CEncrypt@M@@QAEXPAM@Z ENDP	; CEncrypt<float>::DecryptValueToPool
_TEXT	ENDS
PUBLIC	?EncryptValueToPool@?$CEncrypt@K@@AAEXPBD@Z	; CEncrypt<unsigned long>::EncryptValueToPool
; Function compile flags: /Ogsp
;	COMDAT ?EncryptValueToPool@?$CEncrypt@K@@AAEXPBD@Z
_TEXT	SEGMENT
_value$ = 8						; size = 4
?EncryptValueToPool@?$CEncrypt@K@@AAEXPBD@Z PROC	; CEncrypt<unsigned long>::EncryptValueToPool, COMDAT
; _this$ = ecx

; 67   : 	{

  00000	55		 push	 ebp
  00001	8b ec		 mov	 ebp, esp

; 68   : 		m_RC5.EncryptByte( value, m_MemPool, max(m_ValueSize, DEFAULT_ENCRYPT) );

  00003	0f b7 41 06	 movzx	 eax, WORD PTR [ecx+6]
  00007	83 f8 04	 cmp	 eax, 4
  0000a	77 03		 ja	 SHORT $LN4@EncryptVal@2
  0000c	6a 04		 push	 4
  0000e	58		 pop	 eax
$LN4@EncryptVal@2:
  0000f	50		 push	 eax
  00010	8d 41 1c	 lea	 eax, DWORD PTR [ecx+28]
  00013	50		 push	 eax
  00014	ff 75 08	 push	 DWORD PTR _value$[ebp]
  00017	83 c1 0c	 add	 ecx, 12			; 0000000cH
  0001a	e8 00 00 00 00	 call	 ?EncryptByte@ccddaabb@@QAEXPBDPADH@Z ; ccddaabb::EncryptByte

; 69   : 		
; 70   : 	}

  0001f	5d		 pop	 ebp
  00020	c2 04 00	 ret	 4
?EncryptValueToPool@?$CEncrypt@K@@AAEXPBD@Z ENDP	; CEncrypt<unsigned long>::EncryptValueToPool
_TEXT	ENDS
PUBLIC	?Init@?$CEncrypt@K@@AAEXXZ			; CEncrypt<unsigned long>::Init
; Function compile flags: /Ogsp
;	COMDAT ?Init@?$CEncrypt@K@@AAEXXZ
_TEXT	SEGMENT
_pid$ = -8						; size = 4
_tick$ = -4						; size = 4
?Init@?$CEncrypt@K@@AAEXXZ PROC				; CEncrypt<unsigned long>::Init, COMDAT
; _this$ = ecx

; 73   : 	{

  00000	55		 push	 ebp
  00001	8b ec		 mov	 ebp, esp
  00003	51		 push	 ecx
  00004	51		 push	 ecx
  00005	53		 push	 ebx
  00006	56		 push	 esi
  00007	57		 push	 edi
  00008	8b f1		 mov	 esi, ecx

; 74   : 		DWORD pid = GetCurrentProcessId();

  0000a	ff 15 00 00 00
	00		 call	 DWORD PTR __imp__GetCurrentProcessId@0
  00010	89 45 f8	 mov	 DWORD PTR _pid$[ebp], eax

; 75   : 		DWORD tick = timeGetTime();

  00013	ff 15 00 00 00
	00		 call	 DWORD PTR __imp__timeGetTime@0

; 76   : 		m_ValueSize    = sizeof(type);
; 77   : 		m_MemPoolPos   = (unsigned short)( rand()+pid+tick )%(MAX_MEM_POOL-m_ValueSize);

  00019	8b 3d 00 00 00
	00		 mov	 edi, DWORD PTR __imp__rand
  0001f	89 45 fc	 mov	 DWORD PTR _tick$[ebp], eax
  00022	6a 04		 push	 4
  00024	58		 pop	 eax
  00025	66 89 46 06	 mov	 WORD PTR [esi+6], ax
  00029	ff d7		 call	 edi
  0002b	03 45 f8	 add	 eax, DWORD PTR _pid$[ebp]
  0002e	0f b7 4e 06	 movzx	 ecx, WORD PTR [esi+6]
  00032	03 45 fc	 add	 eax, DWORD PTR _tick$[ebp]
  00035	6a 0c		 push	 12			; 0000000cH
  00037	0f b7 c0	 movzx	 eax, ax
  0003a	5b		 pop	 ebx
  0003b	99		 cdq
  0003c	2b d9		 sub	 ebx, ecx
  0003e	f7 fb		 idiv	 ebx
  00040	66 89 56 04	 mov	 WORD PTR [esi+4], dx

; 78   : 		m_EncryptSeed  = (char)( rand()+pid+tick )%256;

  00044	ff d7		 call	 edi
  00046	02 45 f8	 add	 al, BYTE PTR _pid$[ebp]
  00049	02 45 fc	 add	 al, BYTE PTR _tick$[ebp]
  0004c	0f be c0	 movsx	 eax, al
  0004f	25 ff 00 00 80	 and	 eax, -2147483393	; 800000ffH
  00054	79 07		 jns	 SHORT $LN8@Init@2
  00056	48		 dec	 eax
  00057	0d 00 ff ff ff	 or	 eax, -256		; ffffff00H
  0005c	40		 inc	 eax
$LN8@Init@2:
  0005d	88 46 08	 mov	 BYTE PTR [esi+8], al

; 79   : 
; 80   : 		for (int i = 0; i < MAX_MEM_POOL ; i++)

  00060	33 db		 xor	 ebx, ebx
$LL3@Init@2:

; 81   : 			m_MemPool[i] = (char)( rand()+pid+tick )%256; // 더미

  00062	ff d7		 call	 edi
  00064	02 45 f8	 add	 al, BYTE PTR _pid$[ebp]
  00067	02 45 fc	 add	 al, BYTE PTR _tick$[ebp]
  0006a	0f be c0	 movsx	 eax, al
  0006d	25 ff 00 00 80	 and	 eax, -2147483393	; 800000ffH
  00072	79 07		 jns	 SHORT $LN9@Init@2
  00074	48		 dec	 eax
  00075	0d 00 ff ff ff	 or	 eax, -256		; ffffff00H
  0007a	40		 inc	 eax
$LN9@Init@2:
  0007b	88 44 1e 1c	 mov	 BYTE PTR [esi+ebx+28], al
  0007f	43		 inc	 ebx
  00080	83 fb 0c	 cmp	 ebx, 12			; 0000000cH
  00083	7c dd		 jl	 SHORT $LL3@Init@2

; 82   : 
; 83   : 		//UJ 130913, 최적화: szKey 사용안하도록 간략화
; 84   : 		//char szKey[ccddaabb::KEY_SIZE];//="";
; 85   : 		//for (int i = 0; i < ccddaabb::KEY_SIZE  ; i++)
; 86   : 		//	szKey[i] = (char)( rand()+pid+tick )%256; // 더미
; 87   : 		m_RC5.Setup( NULL, pid, tick );

  00085	ff 75 fc	 push	 DWORD PTR _tick$[ebp]
  00088	8d 4e 0c	 lea	 ecx, DWORD PTR [esi+12]
  0008b	ff 75 f8	 push	 DWORD PTR _pid$[ebp]
  0008e	6a 00		 push	 0
  00090	e8 00 00 00 00	 call	 ?Setup@ccddaabb@@QAEXPBDHH@Z ; ccddaabb::Setup
  00095	5f		 pop	 edi
  00096	5e		 pop	 esi
  00097	5b		 pop	 ebx

; 88   : 
; 89   : #ifdef _NOTUSE
; 90   : 		m_value        = 0;
; 91   : 		EncryptValueToPool((char*)&m_value);
; 92   : 		Debug();
; 93   : #endif
; 94   : 	}

  00098	c9		 leave
  00099	c3		 ret	 0
?Init@?$CEncrypt@K@@AAEXXZ ENDP				; CEncrypt<unsigned long>::Init
_TEXT	ENDS
PUBLIC	?DecryptValueToPool@?$CEncrypt@K@@QAEXPAK@Z	; CEncrypt<unsigned long>::DecryptValueToPool
; Function compile flags: /Ogsp
;	COMDAT ?DecryptValueToPool@?$CEncrypt@K@@QAEXPAK@Z
_TEXT	SEGMENT
_value$ = 8						; size = 4
?DecryptValueToPool@?$CEncrypt@K@@QAEXPAK@Z PROC	; CEncrypt<unsigned long>::DecryptValueToPool, COMDAT
; _this$ = ecx

; 1256 : 	{

  00000	55		 push	 ebp
  00001	8b ec		 mov	 ebp, esp
  00003	56		 push	 esi

; 1257 : 		m_RC5.DecryptByte( m_MemPool, m_TempMem, 4 );

  00004	8d 71 28	 lea	 esi, DWORD PTR [ecx+40]
  00007	6a 04		 push	 4
  00009	8d 41 1c	 lea	 eax, DWORD PTR [ecx+28]
  0000c	56		 push	 esi
  0000d	50		 push	 eax
  0000e	83 c1 0c	 add	 ecx, 12			; 0000000cH
  00011	e8 00 00 00 00	 call	 ?DecryptByte@ccddaabb@@QBEXPBDPADH@Z ; ccddaabb::DecryptByte

; 1258 : 		*value = *((DWORD*)m_TempMem);

  00016	8b 06		 mov	 eax, DWORD PTR [esi]
  00018	8b 4d 08	 mov	 ecx, DWORD PTR _value$[ebp]
  0001b	89 01		 mov	 DWORD PTR [ecx], eax
  0001d	5e		 pop	 esi

; 1259 : 	}

  0001e	5d		 pop	 ebp
  0001f	c2 04 00	 ret	 4
?DecryptValueToPool@?$CEncrypt@K@@QAEXPAK@Z ENDP	; CEncrypt<unsigned long>::DecryptValueToPool
_TEXT	ENDS
PUBLIC	?DecryptValueToPool@?$CEncrypt@W4TeamType@@@@QAEXPAW4TeamType@@@Z ; CEncrypt<enum TeamType>::DecryptValueToPool
; Function compile flags: /Ogsp
;	COMDAT ?DecryptValueToPool@?$CEncrypt@W4TeamType@@@@QAEXPAW4TeamType@@@Z
_TEXT	SEGMENT
_value$ = 8						; size = 4
?DecryptValueToPool@?$CEncrypt@W4TeamType@@@@QAEXPAW4TeamType@@@Z PROC ; CEncrypt<enum TeamType>::DecryptValueToPool, COMDAT
; _this$ = ecx

; 2959 : 	{

  00000	55		 push	 ebp
  00001	8b ec		 mov	 ebp, esp
  00003	56		 push	 esi

; 2960 : 		m_RC5.DecryptByte( m_MemPool, m_TempMem, sizeof(TeamType) );

  00004	8d 71 28	 lea	 esi, DWORD PTR [ecx+40]
  00007	6a 04		 push	 4
  00009	8d 41 1c	 lea	 eax, DWORD PTR [ecx+28]
  0000c	56		 push	 esi
  0000d	50		 push	 eax
  0000e	83 c1 0c	 add	 ecx, 12			; 0000000cH
  00011	e8 00 00 00 00	 call	 ?DecryptByte@ccddaabb@@QBEXPBDPADH@Z ; ccddaabb::DecryptByte

; 2961 : 		*value = *((TeamType*)m_TempMem);

  00016	8b 06		 mov	 eax, DWORD PTR [esi]
  00018	8b 4d 08	 mov	 ecx, DWORD PTR _value$[ebp]
  0001b	89 01		 mov	 DWORD PTR [ecx], eax
  0001d	5e		 pop	 esi

; 2962 : 	}

  0001e	5d		 pop	 ebp
  0001f	c2 04 00	 ret	 4
?DecryptValueToPool@?$CEncrypt@W4TeamType@@@@QAEXPAW4TeamType@@@Z ENDP ; CEncrypt<enum TeamType>::DecryptValueToPool
_TEXT	ENDS
EXTRN	__imp_??0exception@std@@QAE@ABV01@@Z:PROC
; Function compile flags: /Ogsp
;	COMDAT ??0bad_alloc@std@@QAE@ABV01@@Z
_TEXT	SEGMENT
___that$ = 8						; size = 4
??0bad_alloc@std@@QAE@ABV01@@Z PROC			; std::bad_alloc::bad_alloc, COMDAT
; _this$ = ecx
  00000	55		 push	 ebp
  00001	8b ec		 mov	 ebp, esp
  00003	56		 push	 esi
  00004	ff 75 08	 push	 DWORD PTR ___that$[ebp]
  00007	8b f1		 mov	 esi, ecx
  00009	ff 15 00 00 00
	00		 call	 DWORD PTR __imp_??0exception@std@@QAE@ABV01@@Z
  0000f	c7 06 00 00 00
	00		 mov	 DWORD PTR [esi], OFFSET ??_7bad_alloc@std@@6B@
  00015	8b c6		 mov	 eax, esi
  00017	5e		 pop	 esi
  00018	5d		 pop	 ebp
  00019	c2 04 00	 ret	 4
??0bad_alloc@std@@QAE@ABV01@@Z ENDP			; std::bad_alloc::bad_alloc
_TEXT	ENDS
PUBLIC	??_R0?AVioBaseChar@@@8				; ioBaseChar `RTTI Type Descriptor'
PUBLIC	?ToBaseChar@@YAPAVioBaseChar@@PAVioGameEntity@@@Z ; ToBaseChar
;	COMDAT ??_R0?AVioBaseChar@@@8
; File d:\lost saga for developer\youtube\tutorial\source\src\lsclient\iobasechar.h
_DATA	SEGMENT
??_R0?AVioBaseChar@@@8 DD FLAT:??_7type_info@@6B@	; ioBaseChar `RTTI Type Descriptor'
	DD	00H
	DB	'.?AVioBaseChar@@', 00H
; Function compile flags: /Ogsp
_DATA	ENDS
;	COMDAT ?ToBaseChar@@YAPAVioBaseChar@@PAVioGameEntity@@@Z
_TEXT	SEGMENT
_pObj$ = 8						; size = 4
?ToBaseChar@@YAPAVioBaseChar@@PAVioGameEntity@@@Z PROC	; ToBaseChar, COMDAT

; 4326 : {

  00000	55		 push	 ebp
  00001	8b ec		 mov	 ebp, esp
  00003	56		 push	 esi

; 4327 : 	ioPlayEntity *pPlay = ToPlayEntity( pObj );

  00004	ff 75 08	 push	 DWORD PTR _pObj$[ebp]
  00007	e8 00 00 00 00	 call	 ?ToPlayEntity@@YAPAVioPlayEntity@@PAVioGameEntity@@@Z ; ToPlayEntity
  0000c	8b f0		 mov	 esi, eax
  0000e	59		 pop	 ecx

; 4328 : 	if( !pPlay || pPlay->GetSubType() != ioPlayEntity::PST_CHAR )

  0000f	85 f6		 test	 esi, esi
  00011	74 25		 je	 SHORT $LN1@ToBaseChar
  00013	8b 06		 mov	 eax, DWORD PTR [esi]
  00015	8b ce		 mov	 ecx, esi
  00017	ff 90 a4 00 00
	00		 call	 DWORD PTR [eax+164]
  0001d	85 c0		 test	 eax, eax
  0001f	75 17		 jne	 SHORT $LN1@ToBaseChar

; 4330 : 
; 4331 : 	return dynamic_cast< ioBaseChar* >( pPlay );

  00021	50		 push	 eax
  00022	68 00 00 00 00	 push	 OFFSET ??_R0?AVioBaseChar@@@8
  00027	68 00 00 00 00	 push	 OFFSET ??_R0?AVioPlayEntity@@@8
  0002c	50		 push	 eax
  0002d	56		 push	 esi
  0002e	e8 00 00 00 00	 call	 ___RTDynamicCast
  00033	83 c4 14	 add	 esp, 20			; 00000014H
  00036	eb 02		 jmp	 SHORT $LN3@ToBaseChar
$LN1@ToBaseChar:

; 4329 : 		return NULL;

  00038	33 c0		 xor	 eax, eax
$LN3@ToBaseChar:
  0003a	5e		 pop	 esi

; 4332 : }

  0003b	5d		 pop	 ebp
  0003c	c3		 ret	 0
?ToBaseChar@@YAPAVioBaseChar@@PAVioGameEntity@@@Z ENDP	; ToBaseChar
_TEXT	ENDS
PUBLIC	_this$GSCopy$
PUBLIC	?CreateFireBall@ioTraceWeapon6@@IAE_NABVioHashString@@@Z ; ioTraceWeapon6::CreateFireBall
EXTRN	?SetPosition@ioWeapon@@QAEXABUD3DXVECTOR3@@@Z:PROC ; ioWeapon::SetPosition
EXTRN	__imp_??D@YA?AUD3DXVECTOR3@@ABU0@0@Z:PROC
EXTRN	__imp_??D@YA?AUD3DXVECTOR3@@ABUD3DXQUATERNION@@ABU0@@Z:PROC
EXTRN	__imp_?GetBiped@ioEntityGroup@@QAEPAVioBiped@@ABVioHashString@@@Z:PROC
EXTRN	__imp_?GetFirstLinkOffset@ioEffect@@QAE_NAAVioHashString@@AAUD3DXVECTOR3@@AAUD3DXQUATERNION@@@Z:PROC
EXTRN	__imp_?IsEmpty@ioHashString@@QBE_NXZ:PROC
EXTRN	__imp_?GetSkeletonName@ioEffect@@QBE?AVioHashString@@XZ:PROC
EXTRN	__imp_??0ioHashString@@QAE@XZ:PROC
EXTRN	__imp_?CreateEffect@ioEffectFactory@@QAEPAVioEffect@@ABVioHashString@@@Z:PROC
EXTRN	___CxxFrameHandler3:PROC
EXTRN	@__security_check_cookie@4:PROC
EXTRN	__EH_epilog3_GS:PROC
EXTRN	__EH_prolog3_GS:PROC
;	COMDAT xdata$x
; File c:\program files (x86)\microsoft directx sdk (june 2010)\include\d3dx9math.inl
xdata$x	SEGMENT
__unwindtable$?CreateFireBall@ioTraceWeapon6@@IAE_NABVioHashString@@@Z DD 0ffffffffH
	DD	FLAT:__unwindfunclet$?CreateFireBall@ioTraceWeapon6@@IAE_NABVioHashString@@@Z$0
	DD	00H
	DD	FLAT:__unwindfunclet$?CreateFireBall@ioTraceWeapon6@@IAE_NABVioHashString@@@Z$1
__ehfuncinfo$?CreateFireBall@ioTraceWeapon6@@IAE_NABVioHashString@@@Z DD 019930522H
	DD	02H
	DD	FLAT:__unwindtable$?CreateFireBall@ioTraceWeapon6@@IAE_NABVioHashString@@@Z
	DD	2 DUP(00H)
	DD	2 DUP(00H)
	DD	00H
	DD	01H
; Function compile flags: /Ogsp
; File d:\lost saga for developer\youtube\tutorial\source\src\lsclient\iotraceweapon6.cpp
xdata$x	ENDS
;	COMDAT ?CreateFireBall@ioTraceWeapon6@@IAE_NABVioHashString@@@Z
_TEXT	SEGMENT
_qtLinkRotOffset$ = -100				; size = 16
_szLinkBiped$ = -84					; size = 16
$T535932 = -68						; size = 4
_this$GSCopy$ = -64					; size = 4
$T535926 = -57						; size = 1
$T535927 = -56						; size = 16
$T531755 = -52						; size = 12
_vLinkPosOffset$ = -40					; size = 12
$T531756 = -28						; size = 12
$T531754 = -28						; size = 12
$T531753 = -28						; size = 12
$T531752 = -28						; size = 12
__$EHRec$ = -12						; size = 12
_szFileName$ = 8					; size = 4
?CreateFireBall@ioTraceWeapon6@@IAE_NABVioHashString@@@Z PROC ; ioTraceWeapon6::CreateFireBall, COMDAT
; _this$ = ecx

; 107  : {

  00000	6a 58		 push	 88			; 00000058H
  00002	b8 00 00 00 00	 mov	 eax, __ehhandler$?CreateFireBall@ioTraceWeapon6@@IAE_NABVioHashString@@@Z
  00007	e8 00 00 00 00	 call	 __EH_prolog3_GS
  0000c	8b 7d 08	 mov	 edi, DWORD PTR _szFileName$[ebp]
  0000f	83 65 bc 00	 and	 DWORD PTR $T535932[ebp], 0
  00013	8b f1		 mov	 esi, ecx

; 124  : 		{
; 125  : 			vLinkPosOffset = pLinked->GetDerivedOrientation() * vLinkPosOffset + pLinked->GetDerivedPosition();

  00015	89 75 c0	 mov	 DWORD PTR _this$GSCopy$[ebp], esi
  00018	e8 00 00 00 00	 call	 ?GetOwner@ioWeapon@@QBEPAVioBaseChar@@XZ ; ioWeapon::GetOwner
  0001d	8b d8		 mov	 ebx, eax
  0001f	85 db		 test	 ebx, ebx
  00021	75 07		 jne	 SHORT $LN4@CreateFire
$LN33@CreateFire:

; 108  : 	ioBaseChar *pOwner = GetOwner();
; 109  : 	if( !pOwner )	return false;

  00023	32 c0		 xor	 al, al
  00025	e9 fd 01 00 00	 jmp	 $LN5@CreateFire
$LN4@CreateFire:

; 110  : 
; 111  : 	m_pFireBall = g_EffectFactory.CreateEffect( szFileName );

  0002a	57		 push	 edi
  0002b	ff 15 00 00 00
	00		 call	 DWORD PTR __imp_?GetSingleton@ioEffectFactory@@SAAAV1@XZ
  00031	8b c8		 mov	 ecx, eax
  00033	ff 15 00 00 00
	00		 call	 DWORD PTR __imp_?CreateEffect@ioEffectFactory@@QAEPAVioEffect@@ABVioHashString@@@Z
  00039	89 86 28 0a 00
	00		 mov	 DWORD PTR [esi+2600], eax

; 112  : 	if( !m_pFireBall )	return false;

  0003f	85 c0		 test	 eax, eax
  00041	74 e0		 je	 SHORT $LN33@CreateFire

; 113  : 
; 114  : 	GetParentSceneNode()->AttachObject( m_pFireBall );

  00043	8b 4e 04	 mov	 ecx, DWORD PTR [esi+4]
  00046	8b 11		 mov	 edx, DWORD PTR [ecx]
  00048	83 c0 14	 add	 eax, 20			; 00000014H
  0004b	50		 push	 eax
  0004c	ff 92 ac 00 00
	00		 call	 DWORD PTR [edx+172]

; 115  : 
; 116  : 	ioHashString szLinkBiped;

  00052	8d 4d ac	 lea	 ecx, DWORD PTR _szLinkBiped$[ebp]
  00055	ff 15 00 00 00
	00		 call	 DWORD PTR __imp_??0ioHashString@@QAE@XZ

; 117  : 	D3DXVECTOR3 vLinkPosOffset;
; 118  : 	D3DXQUATERNION qtLinkRotOffset;
; 119  : 
; 120  : 	if( m_pFireBall->GetSkeletonName().IsEmpty() && m_pFireBall->GetFirstLinkOffset(szLinkBiped, vLinkPosOffset, qtLinkRotOffset ) )

  0005b	8b 8e 28 0a 00
	00		 mov	 ecx, DWORD PTR [esi+2600]
  00061	83 65 fc 00	 and	 DWORD PTR __$EHRec$[ebp+8], 0
  00065	8d 45 c8	 lea	 eax, DWORD PTR $T535927[ebp]
  00068	50		 push	 eax
  00069	ff 15 00 00 00
	00		 call	 DWORD PTR __imp_?GetSkeletonName@ioEffect@@QBE?AVioHashString@@XZ
  0006f	8b c8		 mov	 ecx, eax
  00071	c6 45 fc 01	 mov	 BYTE PTR __$EHRec$[ebp+8], 1
  00075	c7 45 bc 01 00
	00 00		 mov	 DWORD PTR $T535932[ebp], 1
  0007c	ff 15 00 00 00
	00		 call	 DWORD PTR __imp_?IsEmpty@ioHashString@@QBE_NXZ
  00082	84 c0		 test	 al, al
  00084	74 20		 je	 SHORT $LN9@CreateFire
  00086	8b 8e 28 0a 00
	00		 mov	 ecx, DWORD PTR [esi+2600]
  0008c	8d 45 9c	 lea	 eax, DWORD PTR _qtLinkRotOffset$[ebp]
  0008f	50		 push	 eax
  00090	8d 45 d8	 lea	 eax, DWORD PTR _vLinkPosOffset$[ebp]
  00093	50		 push	 eax
  00094	8d 45 ac	 lea	 eax, DWORD PTR _szLinkBiped$[ebp]
  00097	50		 push	 eax
  00098	ff 15 00 00 00
	00		 call	 DWORD PTR __imp_?GetFirstLinkOffset@ioEffect@@QAE_NAAVioHashString@@AAUD3DXVECTOR3@@AAUD3DXQUATERNION@@@Z
  0009e	c6 45 c7 01	 mov	 BYTE PTR $T535926[ebp], 1
  000a2	84 c0		 test	 al, al
  000a4	75 04		 jne	 SHORT $LN10@CreateFire
$LN9@CreateFire:
  000a6	c6 45 c7 00	 mov	 BYTE PTR $T535926[ebp], 0
$LN10@CreateFire:
  000aa	83 65 fc 00	 and	 DWORD PTR __$EHRec$[ebp+8], 0
  000ae	8d 4d c8	 lea	 ecx, DWORD PTR $T535927[ebp]
  000b1	ff 15 00 00 00
	00		 call	 DWORD PTR __imp_??1ioHashString@@QAE@XZ
  000b7	80 7d c7 00	 cmp	 BYTE PTR $T535926[ebp], 0
  000bb	0f 84 47 01 00
	00		 je	 $LN1@CreateFire

; 121  : 	{
; 122  : 		ioBiped *pLinked = pOwner->GetGroup()->GetBiped( szLinkBiped );

  000c1	8b 4b 04	 mov	 ecx, DWORD PTR [ebx+4]
  000c4	8d 45 ac	 lea	 eax, DWORD PTR _szLinkBiped$[ebp]
  000c7	50		 push	 eax
  000c8	ff 15 00 00 00
	00		 call	 DWORD PTR __imp_?GetBiped@ioEntityGroup@@QAEPAVioBiped@@ABVioHashString@@@Z
  000ce	8b f8		 mov	 edi, eax

; 123  : 		if( pLinked )

  000d0	85 ff		 test	 edi, edi
  000d2	0f 84 30 01 00
	00		 je	 $LN1@CreateFire

; 124  : 		{
; 125  : 			vLinkPosOffset = pLinked->GetDerivedOrientation() * vLinkPosOffset + pLinked->GetDerivedPosition();

  000d8	8b 07		 mov	 eax, DWORD PTR [edi]
  000da	8b cf		 mov	 ecx, edi
  000dc	ff 50 7c	 call	 DWORD PTR [eax+124]
  000df	8b f0		 mov	 esi, eax
  000e1	8d 45 d8	 lea	 eax, DWORD PTR _vLinkPosOffset$[ebp]
  000e4	50		 push	 eax
  000e5	8b 07		 mov	 eax, DWORD PTR [edi]
  000e7	8b cf		 mov	 ecx, edi
  000e9	ff 50 78	 call	 DWORD PTR [eax+120]
  000ec	50		 push	 eax
  000ed	8d 45 e4	 lea	 eax, DWORD PTR $T531752[ebp]
  000f0	50		 push	 eax
  000f1	ff 15 00 00 00
	00		 call	 DWORD PTR __imp_??D@YA?AUD3DXVECTOR3@@ABUD3DXQUATERNION@@ABU0@@Z
  000f7	f3 0f 10 06	 movss	 xmm0, DWORD PTR [esi]
  000fb	f3 0f 10 08	 movss	 xmm1, DWORD PTR [eax]
  000ff	f3 0f 10 50 04	 movss	 xmm2, DWORD PTR [eax+4]
  00104	f3 0f 10 58 08	 movss	 xmm3, DWORD PTR [eax+8]
  00109	0f 5a c9	 cvtps2pd xmm1, xmm1
  0010c	0f 5a c0	 cvtps2pd xmm0, xmm0
  0010f	f2 0f 58 c1	 addsd	 xmm0, xmm1
  00113	f3 0f 10 4e 04	 movss	 xmm1, DWORD PTR [esi+4]
  00118	0f 5a d2	 cvtps2pd xmm2, xmm2
  0011b	0f 5a c9	 cvtps2pd xmm1, xmm1
  0011e	f2 0f 58 ca	 addsd	 xmm1, xmm2
  00122	f3 0f 10 56 08	 movss	 xmm2, DWORD PTR [esi+8]
  00127	0f 5a d2	 cvtps2pd xmm2, xmm2
  0012a	0f 5a db	 cvtps2pd xmm3, xmm3
  0012d	f2 0f 58 d3	 addsd	 xmm2, xmm3
  00131	66 0f 5a c0	 cvtpd2ps xmm0, xmm0
  00135	f3 0f 11 45 e4	 movss	 DWORD PTR $T531753[ebp], xmm0
  0013a	66 0f 5a c9	 cvtpd2ps xmm1, xmm1
  0013e	f3 0f 11 4d e8	 movss	 DWORD PTR $T531753[ebp+4], xmm1
  00143	66 0f 5a d2	 cvtpd2ps xmm2, xmm2
  00147	f3 0f 11 55 ec	 movss	 DWORD PTR $T531753[ebp+8], xmm2
  0014c	8d 75 e4	 lea	 esi, DWORD PTR $T531753[ebp]
  0014f	8d 7d d8	 lea	 edi, DWORD PTR _vLinkPosOffset$[ebp]
  00152	a5		 movsd
  00153	a5		 movsd
  00154	a5		 movsd

; 126  : 			vLinkPosOffset = vLinkPosOffset * pOwner->GetWorldScale();

  00155	8b 03		 mov	 eax, DWORD PTR [ebx]
  00157	83 c4 0c	 add	 esp, 12			; 0000000cH
  0015a	8b cb		 mov	 ecx, ebx
  0015c	ff 50 78	 call	 DWORD PTR [eax+120]
  0015f	50		 push	 eax
  00160	8d 45 d8	 lea	 eax, DWORD PTR _vLinkPosOffset$[ebp]
  00163	50		 push	 eax
  00164	8d 45 e4	 lea	 eax, DWORD PTR $T531754[ebp]
  00167	50		 push	 eax
  00168	ff 15 00 00 00
	00		 call	 DWORD PTR __imp_??D@YA?AUD3DXVECTOR3@@ABU0@0@Z
  0016e	8b f0		 mov	 esi, eax
  00170	8d 7d d8	 lea	 edi, DWORD PTR _vLinkPosOffset$[ebp]
  00173	a5		 movsd
  00174	a5		 movsd
  00175	a5		 movsd

; 127  : 			vLinkPosOffset = pOwner->GetWorldOrientation() * vLinkPosOffset + pOwner->GetWorldPosition();

  00176	8b 03		 mov	 eax, DWORD PTR [ebx]
  00178	83 c4 0c	 add	 esp, 12			; 0000000cH
  0017b	8b cb		 mov	 ecx, ebx
  0017d	ff 50 70	 call	 DWORD PTR [eax+112]
  00180	8b f0		 mov	 esi, eax
  00182	8d 45 d8	 lea	 eax, DWORD PTR _vLinkPosOffset$[ebp]
  00185	50		 push	 eax
  00186	8b 03		 mov	 eax, DWORD PTR [ebx]
  00188	8b cb		 mov	 ecx, ebx
  0018a	ff 50 74	 call	 DWORD PTR [eax+116]
  0018d	50		 push	 eax
  0018e	8d 45 cc	 lea	 eax, DWORD PTR $T531755[ebp]
  00191	50		 push	 eax
  00192	ff 15 00 00 00
	00		 call	 DWORD PTR __imp_??D@YA?AUD3DXVECTOR3@@ABUD3DXQUATERNION@@ABU0@@Z
  00198	f3 0f 10 06	 movss	 xmm0, DWORD PTR [esi]
  0019c	f3 0f 10 08	 movss	 xmm1, DWORD PTR [eax]
  001a0	f3 0f 10 50 04	 movss	 xmm2, DWORD PTR [eax+4]
  001a5	0f 5a c9	 cvtps2pd xmm1, xmm1
  001a8	0f 5a c0	 cvtps2pd xmm0, xmm0
  001ab	f2 0f 58 c1	 addsd	 xmm0, xmm1
  001af	f3 0f 10 4e 04	 movss	 xmm1, DWORD PTR [esi+4]
  001b4	0f 5a c9	 cvtps2pd xmm1, xmm1
  001b7	0f 5a d2	 cvtps2pd xmm2, xmm2
  001ba	f2 0f 58 ca	 addsd	 xmm1, xmm2
  001be	83 c4 0c	 add	 esp, 12			; 0000000cH
  001c1	66 0f 5a c0	 cvtpd2ps xmm0, xmm0
  001c5	66 0f 5a c9	 cvtpd2ps xmm1, xmm1
  001c9	f3 0f 10 56 08	 movss	 xmm2, DWORD PTR [esi+8]
  001ce	f3 0f 10 58 08	 movss	 xmm3, DWORD PTR [eax+8]

; 128  : 			SetPosition( vLinkPosOffset );

  001d3	8b 4d c0	 mov	 ecx, DWORD PTR _this$GSCopy$[ebp]
  001d6	0f 5a d2	 cvtps2pd xmm2, xmm2
  001d9	0f 5a db	 cvtps2pd xmm3, xmm3
  001dc	f2 0f 58 d3	 addsd	 xmm2, xmm3
  001e0	f3 0f 11 45 e4	 movss	 DWORD PTR $T531756[ebp], xmm0
  001e5	f3 0f 11 4d e8	 movss	 DWORD PTR $T531756[ebp+4], xmm1
  001ea	66 0f 5a d2	 cvtpd2ps xmm2, xmm2
  001ee	f3 0f 11 55 ec	 movss	 DWORD PTR $T531756[ebp+8], xmm2
  001f3	8d 75 e4	 lea	 esi, DWORD PTR $T531756[ebp]
  001f6	8d 7d d8	 lea	 edi, DWORD PTR _vLinkPosOffset$[ebp]
  001f9	a5		 movsd
  001fa	a5		 movsd
  001fb	8d 45 d8	 lea	 eax, DWORD PTR _vLinkPosOffset$[ebp]
  001fe	50		 push	 eax
  001ff	a5		 movsd
  00200	e8 00 00 00 00	 call	 ?SetPosition@ioWeapon@@QAEXABUD3DXVECTOR3@@@Z ; ioWeapon::SetPosition
  00205	8b 75 c0	 mov	 esi, DWORD PTR _this$GSCopy$[ebp]
$LN1@CreateFire:

; 129  : 		}
; 130  : 	}
; 131  : 
; 132  : 	AddEffectEvent( m_pFireBall );

  00208	ff b6 28 0a 00
	00		 push	 DWORD PTR [esi+2600]
  0020e	8b 06		 mov	 eax, DWORD PTR [esi]
  00210	8b ce		 mov	 ecx, esi
  00212	ff 90 68 01 00
	00		 call	 DWORD PTR [eax+360]

; 133  : 	return true;

  00218	83 4d fc ff	 or	 DWORD PTR __$EHRec$[ebp+8], -1
  0021c	8d 4d ac	 lea	 ecx, DWORD PTR _szLinkBiped$[ebp]
  0021f	ff 15 00 00 00
	00		 call	 DWORD PTR __imp_??1ioHashString@@QAE@XZ
  00225	b0 01		 mov	 al, 1
$LN5@CreateFire:

; 134  : }

  00227	e8 00 00 00 00	 call	 __EH_epilog3_GS
  0022c	c2 04 00	 ret	 4
_TEXT	ENDS
;	COMDAT text$x
text$x	SEGMENT
__unwindfunclet$?CreateFireBall@ioTraceWeapon6@@IAE_NABVioHashString@@@Z$0:
  00000	8d 4d ac	 lea	 ecx, DWORD PTR _szLinkBiped$[ebp]
  00003	ff 25 00 00 00
	00		 jmp	 DWORD PTR __imp_??1ioHashString@@QAE@XZ
__unwindfunclet$?CreateFireBall@ioTraceWeapon6@@IAE_NABVioHashString@@@Z$1:
  00009	8b 45 bc	 mov	 eax, DWORD PTR $T535932[ebp]
  0000c	83 e0 01	 and	 eax, 1
  0000f	0f 84 0d 00 00
	00		 je	 $LN13@CreateFire
  00015	83 65 bc fe	 and	 DWORD PTR $T535932[ebp], -2 ; fffffffeH
  00019	8d 4d c8	 lea	 ecx, DWORD PTR $T535927[ebp]
  0001c	ff 25 00 00 00
	00		 jmp	 DWORD PTR __imp_??1ioHashString@@QAE@XZ
$LN13@CreateFire:
  00022	c3		 ret	 0
__ehhandler$?CreateFireBall@ioTraceWeapon6@@IAE_NABVioHashString@@@Z:
  00023	8b 54 24 08	 mov	 edx, DWORD PTR [esp+8]
  00027	8d 42 0c	 lea	 eax, DWORD PTR [edx+12]
  0002a	8b 4a 98	 mov	 ecx, DWORD PTR [edx-104]
  0002d	33 c8		 xor	 ecx, eax
  0002f	e8 00 00 00 00	 call	 @__security_check_cookie@4
  00034	8b 4a fc	 mov	 ecx, DWORD PTR [edx-4]
  00037	33 c8		 xor	 ecx, eax
  00039	e8 00 00 00 00	 call	 @__security_check_cookie@4
  0003e	b8 00 00 00 00	 mov	 eax, OFFSET __ehfuncinfo$?CreateFireBall@ioTraceWeapon6@@IAE_NABVioHashString@@@Z
  00043	e9 00 00 00 00	 jmp	 ___CxxFrameHandler3
text$x	ENDS
?CreateFireBall@ioTraceWeapon6@@IAE_NABVioHashString@@@Z ENDP ; ioTraceWeapon6::CreateFireBall
PUBLIC	?SetMoveDir@ioTraceWeapon6@@UAEXABUD3DXVECTOR3@@@Z ; ioTraceWeapon6::SetMoveDir
EXTRN	?SetOrientation@ioWeapon@@QAEXABUD3DXQUATERNION@@@Z:PROC ; ioWeapon::SetOrientation
EXTRN	?CheckOrientation@ioPlayEntityHelp@@YAXABUD3DXVECTOR3@@AAUD3DXQUATERNION@@@Z:PROC ; ioPlayEntityHelp::CheckOrientation
; Function compile flags: /Ogsp
;	COMDAT ?SetMoveDir@ioTraceWeapon6@@UAEXABUD3DXVECTOR3@@@Z
_TEXT	SEGMENT
_qtRot$ = -16						; size = 16
_vMoveDir$ = 8						; size = 4
?SetMoveDir@ioTraceWeapon6@@UAEXABUD3DXVECTOR3@@@Z PROC	; ioTraceWeapon6::SetMoveDir, COMDAT
; _this$ = ecx

; 170  : {

  00000	55		 push	 ebp
  00001	8b ec		 mov	 ebp, esp
  00003	83 ec 10	 sub	 esp, 16			; 00000010H
  00006	53		 push	 ebx
  00007	56		 push	 esi

; 171  : 	m_vMoveDir = vMoveDir;

  00008	8b 75 08	 mov	 esi, DWORD PTR _vMoveDir$[ebp]
  0000b	57		 push	 edi
  0000c	8b d9		 mov	 ebx, ecx
  0000e	8d bb d8 09 00
	00		 lea	 edi, DWORD PTR [ebx+2520]
  00014	a5		 movsd

; 172  : 
; 173  : 	D3DXQUATERNION qtRot;
; 174  : 	ioPlayEntityHelp::CheckOrientation( vMoveDir, qtRot );

  00015	8d 45 f0	 lea	 eax, DWORD PTR _qtRot$[ebp]
  00018	a5		 movsd
  00019	50		 push	 eax
  0001a	ff 75 08	 push	 DWORD PTR _vMoveDir$[ebp]
  0001d	a5		 movsd
  0001e	e8 00 00 00 00	 call	 ?CheckOrientation@ioPlayEntityHelp@@YAXABUD3DXVECTOR3@@AAUD3DXQUATERNION@@@Z ; ioPlayEntityHelp::CheckOrientation
  00023	59		 pop	 ecx
  00024	59		 pop	 ecx

; 175  : 	SetOrientation( qtRot );

  00025	8d 45 f0	 lea	 eax, DWORD PTR _qtRot$[ebp]
  00028	50		 push	 eax
  00029	8b cb		 mov	 ecx, ebx
  0002b	e8 00 00 00 00	 call	 ?SetOrientation@ioWeapon@@QAEXABUD3DXQUATERNION@@@Z ; ioWeapon::SetOrientation
  00030	5f		 pop	 edi
  00031	5e		 pop	 esi
  00032	5b		 pop	 ebx

; 176  : }

  00033	c9		 leave
  00034	c2 04 00	 ret	 4
?SetMoveDir@ioTraceWeapon6@@UAEXABUD3DXVECTOR3@@@Z ENDP	; ioTraceWeapon6::SetMoveDir
_TEXT	ENDS
PUBLIC	_bMapCollision$GSCopy$
PUBLIC	__$ArrayPad$
PUBLIC	?IsCollision@ioTraceWeapon6@@UAE_NPAVioPlayEntity@@_N@Z ; ioTraceWeapon6::IsCollision
EXTRN	__imp_??8ioHashString@@QBE_NABV0@@Z:PROC
EXTRN	___security_cookie:DWORD
; Function compile flags: /Ogsp
;	COMDAT ?IsCollision@ioTraceWeapon6@@UAE_NPAVioPlayEntity@@_N@Z
_TEXT	SEGMENT
_bMapCollision$GSCopy$ = -24				; size = 1
_bCollision$ = -20					; size = 1
_vColPoint$ = -16					; size = 12
__$ArrayPad$ = -4					; size = 4
_pEntity$ = 8						; size = 4
_bMapCollision$ = 12					; size = 1
?IsCollision@ioTraceWeapon6@@UAE_NPAVioPlayEntity@@_N@Z PROC ; ioTraceWeapon6::IsCollision, COMDAT
; _this$ = ecx

; 447  : {

  00000	55		 push	 ebp
  00001	8b ec		 mov	 ebp, esp
  00003	83 ec 18	 sub	 esp, 24			; 00000018H
  00006	a1 00 00 00 00	 mov	 eax, DWORD PTR ___security_cookie
  0000b	33 c5		 xor	 eax, ebp
  0000d	89 45 fc	 mov	 DWORD PTR __$ArrayPad$[ebp], eax

; 448  : 	if( m_State != TS_RETURNING )

  00010	8a 45 0c	 mov	 al, BYTE PTR _bMapCollision$[ebp]
  00013	56		 push	 esi
  00014	8b 75 08	 mov	 esi, DWORD PTR _pEntity$[ebp]
  00017	57		 push	 edi
  00018	8b f9		 mov	 edi, ecx
  0001a	83 bf 94 08 00
	00 03		 cmp	 DWORD PTR [edi+2196], 3
  00021	88 45 e8	 mov	 BYTE PTR _bMapCollision$GSCopy$[ebp], al
  00024	74 26		 je	 SHORT $LN2@IsCollisio

; 449  : 	{
; 450  : 		ioBaseChar* pChar = ToBaseChar( pEntity );

  00026	56		 push	 esi
  00027	e8 00 00 00 00	 call	 ?ToBaseChar@@YAPAVioBaseChar@@PAVioGameEntity@@@Z ; ToBaseChar
  0002c	59		 pop	 ecx

; 451  : 		if( pChar && pChar->GetCharName() == m_szReturnTargetName )

  0002d	85 c0		 test	 eax, eax
  0002f	74 1b		 je	 SHORT $LN2@IsCollisio
  00031	8d 8f a4 08 00
	00		 lea	 ecx, DWORD PTR [edi+2212]
  00037	51		 push	 ecx
  00038	8d 88 d4 02 00
	00		 lea	 ecx, DWORD PTR [eax+724]
  0003e	ff 15 00 00 00
	00		 call	 DWORD PTR __imp_??8ioHashString@@QBE_NABV0@@Z
  00044	84 c0		 test	 al, al
  00046	74 04		 je	 SHORT $LN2@IsCollisio

; 452  : 		{
; 453  : 			return false;

  00048	32 c0		 xor	 al, al
  0004a	eb 49		 jmp	 SHORT $LN4@IsCollisio
$LN2@IsCollisio:

; 454  : 		}
; 455  : 	}
; 456  : 
; 457  : 	bool bCollision = false;
; 458  : 	D3DXVECTOR3 vColPoint( 0.0f, 0.0f, 0.0f );

  0004c	0f 57 c0	 xorps	 xmm0, xmm0
  0004f	53		 push	 ebx

; 459  : 	if( pEntity->IsWoundedCollision( GetWorldAttackBox(bMapCollision), &vColPoint ) )

  00050	8b 1e		 mov	 ebx, DWORD PTR [esi]
  00052	8d 45 f0	 lea	 eax, DWORD PTR _vColPoint$[ebp]
  00055	50		 push	 eax
  00056	ff 75 e8	 push	 DWORD PTR _bMapCollision$GSCopy$[ebp]
  00059	8b cf		 mov	 ecx, edi
  0005b	c6 45 ec 00	 mov	 BYTE PTR _bCollision$[ebp], 0
  0005f	f3 0f 11 45 f0	 movss	 DWORD PTR _vColPoint$[ebp], xmm0
  00064	f3 0f 11 45 f4	 movss	 DWORD PTR _vColPoint$[ebp+4], xmm0
  00069	f3 0f 11 45 f8	 movss	 DWORD PTR _vColPoint$[ebp+8], xmm0
  0006e	e8 00 00 00 00	 call	 ?GetWorldAttackBox@ioWeapon@@QBEABVioOrientBox@@_N@Z ; ioWeapon::GetWorldAttackBox
  00073	50		 push	 eax
  00074	8b ce		 mov	 ecx, esi
  00076	ff 93 90 00 00
	00		 call	 DWORD PTR [ebx+144]
  0007c	5b		 pop	 ebx
  0007d	84 c0		 test	 al, al
  0007f	74 04		 je	 SHORT $LN10@IsCollisio

; 460  : 		bCollision = true;

  00081	c6 45 ec 01	 mov	 BYTE PTR _bCollision$[ebp], 1
$LN10@IsCollisio:

; 461  : 
; 462  : 	CheckPiercing( bCollision );

  00085	ff 75 ec	 push	 DWORD PTR _bCollision$[ebp]
  00088	8b 07		 mov	 eax, DWORD PTR [edi]
  0008a	8b cf		 mov	 ecx, edi
  0008c	ff 90 48 01 00
	00		 call	 DWORD PTR [eax+328]

; 463  : 
; 464  : 	return bCollision;

  00092	8a 45 ec	 mov	 al, BYTE PTR _bCollision$[ebp]
$LN4@IsCollisio:

; 465  : }

  00095	8b 4d fc	 mov	 ecx, DWORD PTR __$ArrayPad$[ebp]
  00098	5f		 pop	 edi
  00099	33 cd		 xor	 ecx, ebp
  0009b	5e		 pop	 esi
  0009c	e8 00 00 00 00	 call	 @__security_check_cookie@4
  000a1	c9		 leave
  000a2	c2 08 00	 ret	 8
?IsCollision@ioTraceWeapon6@@UAE_NPAVioPlayEntity@@_N@Z ENDP ; ioTraceWeapon6::IsCollision
_TEXT	ENDS
PUBLIC	__real@4f800000
PUBLIC	_this$GSCopy$
PUBLIC	__$ArrayPad$
PUBLIC	?RotateMoveDir@ioTraceWeapon6@@IAEXMM@Z		; ioTraceWeapon6::RotateMoveDir
EXTRN	_D3DXQuaternionRotationAxis@12:PROC
EXTRN	__imp_?UNIT_Y@ioMath@@2UD3DXVECTOR3@@A:BYTE
EXTRN	__imp_?ArrangeHead@ioMath@@SAMM@Z:PROC
;	COMDAT __real@4f800000
; File d:\lost saga for developer\youtube\tutorial\source\src\lsclient\ioweapon.h
CONST	SEGMENT
__real@4f800000 DD 04f800000r			; 4.29497e+009
; Function compile flags: /Ogsp
; File d:\lost saga for developer\youtube\tutorial\source\src\lsclient\iotraceweapon6.cpp
CONST	ENDS
;	COMDAT ?RotateMoveDir@ioTraceWeapon6@@IAEXMM@Z
_TEXT	SEGMENT
tv408 = -64						; size = 4
_v$536044 = -60						; size = 12
_qtRot$ = -48						; size = 16
_this$GSCopy$ = -32					; size = 4
$T532079 = -28						; size = 12
$T532078 = -28						; size = 12
$T532074 = -28						; size = 12
_vAxis$532076 = -16					; size = 12
__$ArrayPad$ = -4					; size = 4
_fAngleH$ = 8						; size = 4
_fAngleV$ = 12						; size = 4
?RotateMoveDir@ioTraceWeapon6@@IAEXMM@Z PROC		; ioTraceWeapon6::RotateMoveDir, COMDAT
; _this$ = ecx

; 506  : {

  00000	55		 push	 ebp
  00001	8b ec		 mov	 ebp, esp
  00003	83 ec 40	 sub	 esp, 64			; 00000040H
  00006	a1 00 00 00 00	 mov	 eax, DWORD PTR ___security_cookie
  0000b	33 c5		 xor	 eax, ebp
  0000d	89 45 fc	 mov	 DWORD PTR __$ArrayPad$[ebp], eax

; 507  : 	fAngleH = ioMath::ArrangeHead( fAngleH );

  00010	f3 0f 10 45 08	 movss	 xmm0, DWORD PTR _fAngleH$[ebp]
  00015	53		 push	 ebx
  00016	56		 push	 esi
  00017	57		 push	 edi
  00018	8b d9		 mov	 ebx, ecx
  0001a	51		 push	 ecx

; 523  : 	{
; 524  : 		D3DXVECTOR3 vAxis;
; 525  : 		D3DXVec3Cross( &vAxis, &m_vMoveDir, &D3DXVECTOR3( 0.0f, -FLOAT1, 0.0f ) );

  0001b	89 5d e0	 mov	 DWORD PTR _this$GSCopy$[ebp], ebx
  0001e	f3 0f 11 04 24	 movss	 DWORD PTR [esp], xmm0
  00023	ff 15 00 00 00
	00		 call	 DWORD PTR __imp_?ArrangeHead@ioMath@@SAMM@Z
  00029	d9 5d 08	 fstp	 DWORD PTR _fAngleH$[ebp]
  0002c	f3 0f 10 45 0c	 movss	 xmm0, DWORD PTR _fAngleV$[ebp]
  00031	f3 0f 11 04 24	 movss	 DWORD PTR [esp], xmm0
  00036	ff 15 00 00 00
	00		 call	 DWORD PTR __imp_?ArrangeHead@ioMath@@SAMM@Z
  0003c	d9 5d 0c	 fstp	 DWORD PTR _fAngleV$[ebp]
  0003f	d9 ee		 fldz
  00041	59		 pop	 ecx
  00042	d9 45 08	 fld	 DWORD PTR _fAngleH$[ebp]
  00045	df e9		 fucomip ST(1)
  00047	dd d8		 fstp	 ST(0)
  00049	9f		 lahf
  0004a	f6 c4 44	 test	 ah, 68			; 00000044H
  0004d	7b 61		 jnp	 SHORT $LN2@RotateMove

; 508  : 	fAngleV = ioMath::ArrangeHead( fAngleV );
; 509  : 
; 510  : 	D3DXQUATERNION qtRot;
; 511  : 
; 512  : 	// horizon
; 513  : 	if( fAngleH != 0.0f )
; 514  : 	{
; 515  : 		D3DXQuaternionRotationAxis( &qtRot, &ioMath::UNIT_Y, DEGtoRAD(fAngleH) );

  0004f	f3 0f 10 45 08	 movss	 xmm0, DWORD PTR _fAngleH$[ebp]
  00054	0f 5a c0	 cvtps2pd xmm0, xmm0
  00057	f2 0f 59 05 00
	00 00 00	 mulsd	 xmm0, QWORD PTR __real@3f91df46a2526c7a
  0005f	51		 push	 ecx
  00060	f2 0f 5a c0	 cvtsd2ss xmm0, xmm0
  00064	f3 0f 11 04 24	 movss	 DWORD PTR [esp], xmm0
  00069	ff 35 00 00 00
	00		 push	 DWORD PTR __imp_?UNIT_Y@ioMath@@2UD3DXVECTOR3@@A
  0006f	8d 45 d0	 lea	 eax, DWORD PTR _qtRot$[ebp]
  00072	50		 push	 eax
  00073	e8 00 00 00 00	 call	 _D3DXQuaternionRotationAxis@12

; 516  : 		m_vMoveDir = qtRot * m_vMoveDir;

  00078	8d bb d8 09 00
	00		 lea	 edi, DWORD PTR [ebx+2520]
  0007e	57		 push	 edi
  0007f	8d 45 d0	 lea	 eax, DWORD PTR _qtRot$[ebp]
  00082	50		 push	 eax
  00083	8d 45 e4	 lea	 eax, DWORD PTR $T532074[ebp]
  00086	50		 push	 eax
  00087	ff 15 00 00 00
	00		 call	 DWORD PTR __imp_??D@YA?AUD3DXVECTOR3@@ABUD3DXQUATERNION@@ABU0@@Z

; 517  : 
; 518  : 		GetParentSceneNode()->Rotate( ioMath::UNIT_Y, fAngleH );

  0008d	8b 4b 04	 mov	 ecx, DWORD PTR [ebx+4]
  00090	f3 0f 10 45 08	 movss	 xmm0, DWORD PTR _fAngleH$[ebp]
  00095	8b f0		 mov	 esi, eax
  00097	a5		 movsd
  00098	83 c4 0c	 add	 esp, 12			; 0000000cH
  0009b	a5		 movsd
  0009c	6a 01		 push	 1
  0009e	51		 push	 ecx
  0009f	a5		 movsd
  000a0	8b 01		 mov	 eax, DWORD PTR [ecx]
  000a2	f3 0f 11 04 24	 movss	 DWORD PTR [esp], xmm0
  000a7	ff 35 00 00 00
	00		 push	 DWORD PTR __imp_?UNIT_Y@ioMath@@2UD3DXVECTOR3@@A
  000ad	ff 50 50	 call	 DWORD PTR [eax+80]
$LN2@RotateMove:

; 519  : 	}
; 520  : 
; 521  : 	// vertical
; 522  : 	if( fAngleV != 0.0f )

  000b0	f3 0f 10 65 0c	 movss	 xmm4, DWORD PTR _fAngleV$[ebp]
  000b5	0f 2e 25 00 00
	00 00		 ucomiss xmm4, DWORD PTR __real@00000000
  000bc	9f		 lahf
  000bd	f6 c4 44	 test	 ah, 68			; 00000044H
  000c0	0f 8b f8 00 00
	00		 jnp	 $LN1@RotateMove

; 523  : 	{
; 524  : 		D3DXVECTOR3 vAxis;
; 525  : 		D3DXVec3Cross( &vAxis, &m_vMoveDir, &D3DXVECTOR3( 0.0f, -FLOAT1, 0.0f ) );

  000c6	b8 01 00 00 00	 mov	 eax, 1
  000cb	89 45 c0	 mov	 DWORD PTR tv408[ebp], eax
  000ce	db 45 c0	 fild	 DWORD PTR tv408[ebp]
  000d1	85 c0		 test	 eax, eax
  000d3	79 06		 jns	 SHORT $LN25@RotateMove
  000d5	d8 05 00 00 00
	00		 fadd	 DWORD PTR __real@4f800000
$LN25@RotateMove:
  000db	f3 0f 10 83 dc
	09 00 00	 movss	 xmm0, DWORD PTR [ebx+2524]
  000e3	d9 e0		 fchs
  000e5	f3 0f 10 93 e0
	09 00 00	 movss	 xmm2, DWORD PTR [ebx+2528]
  000ed	d9 5d e8	 fstp	 DWORD PTR $T532078[ebp+4]
  000f0	f3 0f 10 6d e8	 movss	 xmm5, DWORD PTR $T532078[ebp+4]
  000f5	0f 5a c8	 cvtps2pd xmm1, xmm0
  000f8	0f 57 c0	 xorps	 xmm0, xmm0
  000fb	0f 5a da	 cvtps2pd xmm3, xmm2
  000fe	f2 0f 59 c8	 mulsd	 xmm1, xmm0
  00102	81 c3 d8 09 00
	00		 add	 ebx, 2520		; 000009d8H
  00108	0f 5a ed	 cvtps2pd xmm5, xmm5
  0010b	f2 0f 59 dd	 mulsd	 xmm3, xmm5
  0010f	66 0f 28 e9	 movapd	 xmm5, xmm1
  00113	f2 0f 5c eb	 subsd	 xmm5, xmm3
  00117	0f 57 db	 xorps	 xmm3, xmm3
  0011a	f2 0f 5a dd	 cvtsd2ss xmm3, xmm5
  0011e	f3 0f 11 5d c4	 movss	 DWORD PTR _v$536044[ebp], xmm3
  00123	f3 0f 10 1b	 movss	 xmm3, DWORD PTR [ebx]
  00127	0f 5a d2	 cvtps2pd xmm2, xmm2
  0012a	f2 0f 59 d0	 mulsd	 xmm2, xmm0
  0012e	0f 5a eb	 cvtps2pd xmm5, xmm3
  00131	f2 0f 59 e8	 mulsd	 xmm5, xmm0
  00135	f2 0f 5c d5	 subsd	 xmm2, xmm5
  00139	66 0f 5a c2	 cvtpd2ps xmm0, xmm2
  0013d	f3 0f 10 55 e8	 movss	 xmm2, DWORD PTR $T532078[ebp+4]
  00142	f3 0f 11 45 c8	 movss	 DWORD PTR _v$536044[ebp+4], xmm0
  00147	0f 5a d2	 cvtps2pd xmm2, xmm2
  0014a	8d 75 c4	 lea	 esi, DWORD PTR _v$536044[ebp]
  0014d	8d 7d f0	 lea	 edi, DWORD PTR _vAxis$532076[ebp]
  00150	0f 5a c3	 cvtps2pd xmm0, xmm3
  00153	f2 0f 59 c2	 mulsd	 xmm0, xmm2
  00157	f2 0f 5c c1	 subsd	 xmm0, xmm1
  0015b	66 0f 5a c0	 cvtpd2ps xmm0, xmm0
  0015f	f3 0f 11 45 cc	 movss	 DWORD PTR _v$536044[ebp+8], xmm0
  00164	a5		 movsd

; 526  : 		D3DXQuaternionRotationAxis( &qtRot, &vAxis, DEGtoRAD(fAngleV) );

  00165	0f 5a c4	 cvtps2pd xmm0, xmm4
  00168	f2 0f 59 05 00
	00 00 00	 mulsd	 xmm0, QWORD PTR __real@3f91df46a2526c7a
  00170	51		 push	 ecx
  00171	66 0f 5a c0	 cvtpd2ps xmm0, xmm0
  00175	f3 0f 11 04 24	 movss	 DWORD PTR [esp], xmm0
  0017a	8d 45 f0	 lea	 eax, DWORD PTR _vAxis$532076[ebp]
  0017d	a5		 movsd
  0017e	50		 push	 eax
  0017f	8d 45 d0	 lea	 eax, DWORD PTR _qtRot$[ebp]
  00182	50		 push	 eax
  00183	a5		 movsd
  00184	e8 00 00 00 00	 call	 _D3DXQuaternionRotationAxis@12

; 527  : 		m_vMoveDir = qtRot * m_vMoveDir;

  00189	53		 push	 ebx
  0018a	8d 45 d0	 lea	 eax, DWORD PTR _qtRot$[ebp]
  0018d	50		 push	 eax
  0018e	8d 45 e4	 lea	 eax, DWORD PTR $T532079[ebp]
  00191	50		 push	 eax
  00192	ff 15 00 00 00
	00		 call	 DWORD PTR __imp_??D@YA?AUD3DXVECTOR3@@ABUD3DXQUATERNION@@ABU0@@Z

; 528  : 
; 529  : 		GetParentSceneNode()->Rotate( vAxis, fAngleV );

  00198	f3 0f 10 45 0c	 movss	 xmm0, DWORD PTR _fAngleV$[ebp]
  0019d	8b f0		 mov	 esi, eax
  0019f	8b 45 e0	 mov	 eax, DWORD PTR _this$GSCopy$[ebp]
  001a2	8b 48 04	 mov	 ecx, DWORD PTR [eax+4]
  001a5	8b fb		 mov	 edi, ebx
  001a7	a5		 movsd
  001a8	83 c4 0c	 add	 esp, 12			; 0000000cH
  001ab	a5		 movsd
  001ac	6a 01		 push	 1
  001ae	51		 push	 ecx
  001af	8d 55 f0	 lea	 edx, DWORD PTR _vAxis$532076[ebp]
  001b2	a5		 movsd
  001b3	8b 01		 mov	 eax, DWORD PTR [ecx]
  001b5	f3 0f 11 04 24	 movss	 DWORD PTR [esp], xmm0
  001ba	52		 push	 edx
  001bb	ff 50 50	 call	 DWORD PTR [eax+80]
$LN1@RotateMove:

; 530  : 	}
; 531  : }

  001be	8b 4d fc	 mov	 ecx, DWORD PTR __$ArrayPad$[ebp]
  001c1	5f		 pop	 edi
  001c2	5e		 pop	 esi
  001c3	33 cd		 xor	 ecx, ebp
  001c5	5b		 pop	 ebx
  001c6	e8 00 00 00 00	 call	 @__security_check_cookie@4
  001cb	c9		 leave
  001cc	c2 08 00	 ret	 8
?RotateMoveDir@ioTraceWeapon6@@IAEXMM@Z ENDP		; ioTraceWeapon6::RotateMoveDir
_TEXT	ENDS
PUBLIC	?SetOwnerWeaponCollisionInfo@ioTraceWeapon6@@QAEXUexReserveWeaponCollisionInfo@@@Z ; ioTraceWeapon6::SetOwnerWeaponCollisionInfo
EXTRN	__EH_epilog3:PROC
EXTRN	__EH_prolog3:PROC
;	COMDAT xdata$x
xdata$x	SEGMENT
__unwindtable$?SetOwnerWeaponCollisionInfo@ioTraceWeapon6@@QAEXUexReserveWeaponCollisionInfo@@@Z DD 0ffffffffH
	DD	FLAT:__unwindfunclet$?SetOwnerWeaponCollisionInfo@ioTraceWeapon6@@QAEXUexReserveWeaponCollisionInfo@@@Z$0
__ehfuncinfo$?SetOwnerWeaponCollisionInfo@ioTraceWeapon6@@QAEXUexReserveWeaponCollisionInfo@@@Z DD 019930522H
	DD	01H
	DD	FLAT:__unwindtable$?SetOwnerWeaponCollisionInfo@ioTraceWeapon6@@QAEXUexReserveWeaponCollisionInfo@@@Z
	DD	2 DUP(00H)
	DD	2 DUP(00H)
	DD	00H
	DD	01H
; Function compile flags: /Ogsp
xdata$x	ENDS
;	COMDAT ?SetOwnerWeaponCollisionInfo@ioTraceWeapon6@@QAEXUexReserveWeaponCollisionInfo@@@Z
_TEXT	SEGMENT
__$EHRec$ = -12						; size = 12
_exCollisionInfo$ = 8					; size = 16
?SetOwnerWeaponCollisionInfo@ioTraceWeapon6@@QAEXUexReserveWeaponCollisionInfo@@@Z PROC ; ioTraceWeapon6::SetOwnerWeaponCollisionInfo, COMDAT
; _this$ = ecx

; 688  : {

  00000	6a 00		 push	 0
  00002	b8 00 00 00 00	 mov	 eax, __ehhandler$?SetOwnerWeaponCollisionInfo@ioTraceWeapon6@@QAEXUexReserveWeaponCollisionInfo@@@Z
  00007	e8 00 00 00 00	 call	 __EH_prolog3
  0000c	8b f1		 mov	 esi, ecx
  0000e	83 65 fc 00	 and	 DWORD PTR __$EHRec$[ebp+8], 0

; 689  : 	if( !exCollisionInfo.m_szTarget.IsEmpty() )

  00012	8d 4d 08	 lea	 ecx, DWORD PTR _exCollisionInfo$[ebp]
  00015	ff 15 00 00 00
	00		 call	 DWORD PTR __imp_?IsEmpty@ioHashString@@QBE_NXZ
  0001b	84 c0		 test	 al, al
  0001d	75 10		 jne	 SHORT $LN1@SetOwnerWe

; 690  : 	{
; 691  : 		m_szReturnTargetName = exCollisionInfo.m_szTarget;

  0001f	8d 45 08	 lea	 eax, DWORD PTR _exCollisionInfo$[ebp]
  00022	50		 push	 eax
  00023	8d 8e a4 08 00
	00		 lea	 ecx, DWORD PTR [esi+2212]
  00029	ff 15 00 00 00
	00		 call	 DWORD PTR __imp_??4ioHashString@@QAEAAV0@ABV0@@Z
$LN1@SetOwnerWe:

; 692  : 	}
; 693  : }

  0002f	83 4d fc ff	 or	 DWORD PTR __$EHRec$[ebp+8], -1
  00033	8d 4d 08	 lea	 ecx, DWORD PTR _exCollisionInfo$[ebp]
  00036	ff 15 00 00 00
	00		 call	 DWORD PTR __imp_??1ioHashString@@QAE@XZ
  0003c	e8 00 00 00 00	 call	 __EH_epilog3
  00041	c2 10 00	 ret	 16			; 00000010H
_TEXT	ENDS
;	COMDAT text$x
text$x	SEGMENT
__unwindfunclet$?SetOwnerWeaponCollisionInfo@ioTraceWeapon6@@QAEXUexReserveWeaponCollisionInfo@@@Z$0:
  00000	8d 4d 08	 lea	 ecx, DWORD PTR _exCollisionInfo$[ebp]
  00003	e9 00 00 00 00	 jmp	 ??1exReserveWeaponCollisionInfo@@QAE@XZ
__ehhandler$?SetOwnerWeaponCollisionInfo@ioTraceWeapon6@@QAEXUexReserveWeaponCollisionInfo@@@Z:
  00008	8b 54 24 08	 mov	 edx, DWORD PTR [esp+8]
  0000c	8d 42 0c	 lea	 eax, DWORD PTR [edx+12]
  0000f	8b 4a f0	 mov	 ecx, DWORD PTR [edx-16]
  00012	33 c8		 xor	 ecx, eax
  00014	e8 00 00 00 00	 call	 @__security_check_cookie@4
  00019	b8 00 00 00 00	 mov	 eax, OFFSET __ehfuncinfo$?SetOwnerWeaponCollisionInfo@ioTraceWeapon6@@QAEXUexReserveWeaponCollisionInfo@@@Z
  0001e	e9 00 00 00 00	 jmp	 ___CxxFrameHandler3
text$x	ENDS
?SetOwnerWeaponCollisionInfo@ioTraceWeapon6@@QAEXUexReserveWeaponCollisionInfo@@@Z ENDP ; ioTraceWeapon6::SetOwnerWeaponCollisionInfo
PUBLIC	??D?$CEncrypt@M@@QAEMABM@Z			; CEncrypt<float>::operator*
; Function compile flags: /Ogsp
; File d:\lost saga for developer\youtube\tutorial\source\src\lsclient\encryptvalue.h
;	COMDAT ??D?$CEncrypt@M@@QAEMABM@Z
_TEXT	SEGMENT
_value$ = -4						; size = 4
tv130 = 8						; size = 4
_inValue$ = 8						; size = 4
??D?$CEncrypt@M@@QAEMABM@Z PROC				; CEncrypt<float>::operator*, COMDAT
; _this$ = ecx

; 1685 : 	{	

  00000	55		 push	 ebp
  00001	8b ec		 mov	 ebp, esp
  00003	51		 push	 ecx

; 1686 : 		type value;
; 1687 : 		DecryptValueToPool(&value);

  00004	8d 45 fc	 lea	 eax, DWORD PTR _value$[ebp]
  00007	50		 push	 eax
  00008	e8 00 00 00 00	 call	 ?DecryptValueToPool@?$CEncrypt@M@@QAEXPAM@Z ; CEncrypt<float>::DecryptValueToPool

; 1688 : #ifdef _NOTUSE
; 1689 : 		Debug();
; 1690 : #endif
; 1691 : 		return value * inValue;

  0000d	8b 45 08	 mov	 eax, DWORD PTR _inValue$[ebp]
  00010	d9 00		 fld	 DWORD PTR [eax]
  00012	d8 4d fc	 fmul	 DWORD PTR _value$[ebp]
  00015	d9 5d 08	 fstp	 DWORD PTR tv130[ebp]
  00018	d9 45 08	 fld	 DWORD PTR tv130[ebp]

; 1692 : 	}

  0001b	c9		 leave
  0001c	c2 04 00	 ret	 4
??D?$CEncrypt@M@@QAEMABM@Z ENDP				; CEncrypt<float>::operator*
_TEXT	ENDS
PUBLIC	??9?$CEncrypt@M@@QAE_NABM@Z			; CEncrypt<float>::operator!=
; Function compile flags: /Ogsp
;	COMDAT ??9?$CEncrypt@M@@QAE_NABM@Z
_TEXT	SEGMENT
_value$ = -4						; size = 4
_inValue$ = 8						; size = 4
??9?$CEncrypt@M@@QAE_NABM@Z PROC			; CEncrypt<float>::operator!=, COMDAT
; _this$ = ecx

; 1801 : 	{

  00000	55		 push	 ebp
  00001	8b ec		 mov	 ebp, esp
  00003	51		 push	 ecx

; 1802 : 		type value;
; 1803 : 		DecryptValueToPool(&value);

  00004	8d 45 fc	 lea	 eax, DWORD PTR _value$[ebp]
  00007	50		 push	 eax
  00008	e8 00 00 00 00	 call	 ?DecryptValueToPool@?$CEncrypt@M@@QAEXPAM@Z ; CEncrypt<float>::DecryptValueToPool

; 1804 : #ifdef _NOTUSE
; 1805 : 		Debug();
; 1806 : #endif
; 1807 : 		return (value != inValue);

  0000d	8b 45 08	 mov	 eax, DWORD PTR _inValue$[ebp]
  00010	f3 0f 10 08	 movss	 xmm1, DWORD PTR [eax]
  00014	f3 0f 10 45 fc	 movss	 xmm0, DWORD PTR _value$[ebp]
  00019	0f 5a c0	 cvtps2pd xmm0, xmm0
  0001c	0f 5a c9	 cvtps2pd xmm1, xmm1
  0001f	66 0f 2e c1	 ucomisd xmm0, xmm1
  00023	9f		 lahf
  00024	f6 c4 44	 test	 ah, 68			; 00000044H
  00027	7b 05		 jnp	 SHORT $LN3@operator@3
  00029	33 c0		 xor	 eax, eax
  0002b	40		 inc	 eax
  0002c	eb 02		 jmp	 SHORT $LN4@operator@3
$LN3@operator@3:
  0002e	33 c0		 xor	 eax, eax
$LN4@operator@3:

; 1808 : 	} 		

  00030	c9		 leave
  00031	c2 04 00	 ret	 4
??9?$CEncrypt@M@@QAE_NABM@Z ENDP			; CEncrypt<float>::operator!=
_TEXT	ENDS
PUBLIC	?begin@?$vector@PAVioBaseChar@@V?$allocator@PAVioBaseChar@@@std@@@std@@QBE?AV?$_Vector_const_iterator@V?$_Vector_val@PAVioBaseChar@@V?$allocator@PAVioBaseChar@@@std@@@std@@@2@XZ ; std::vector<ioBaseChar *,std::allocator<ioBaseChar *> >::begin
; Function compile flags: /Ogsp
; File c:\program files (x86)\microsoft visual studio 10.0\vc\include\vector
;	COMDAT ?begin@?$vector@PAVioBaseChar@@V?$allocator@PAVioBaseChar@@@std@@@std@@QBE?AV?$_Vector_const_iterator@V?$_Vector_val@PAVioBaseChar@@V?$allocator@PAVioBaseChar@@@std@@@std@@@2@XZ
_TEXT	SEGMENT
___$ReturnUdt$ = 8					; size = 4
?begin@?$vector@PAVioBaseChar@@V?$allocator@PAVioBaseChar@@@std@@@std@@QBE?AV?$_Vector_const_iterator@V?$_Vector_val@PAVioBaseChar@@V?$allocator@PAVioBaseChar@@@std@@@std@@@2@XZ PROC ; std::vector<ioBaseChar *,std::allocator<ioBaseChar *> >::begin, COMDAT
; _this$ = ecx

; 786  : 		{	// return iterator for beginning of nonmutable sequence

  00000	55		 push	 ebp
  00001	8b ec		 mov	 ebp, esp

; 787  : 		return (const_iterator(this->_Myfirst, this));

  00003	8b 09		 mov	 ecx, DWORD PTR [ecx]
  00005	8b 45 08	 mov	 eax, DWORD PTR ___$ReturnUdt$[ebp]
  00008	89 08		 mov	 DWORD PTR [eax], ecx

; 788  : 		}

  0000a	5d		 pop	 ebp
  0000b	c2 04 00	 ret	 4
?begin@?$vector@PAVioBaseChar@@V?$allocator@PAVioBaseChar@@@std@@@std@@QBE?AV?$_Vector_const_iterator@V?$_Vector_val@PAVioBaseChar@@V?$allocator@PAVioBaseChar@@@std@@@std@@@2@XZ ENDP ; std::vector<ioBaseChar *,std::allocator<ioBaseChar *> >::begin
_TEXT	ENDS
PUBLIC	?end@?$vector@PAVioBaseChar@@V?$allocator@PAVioBaseChar@@@std@@@std@@QBE?AV?$_Vector_const_iterator@V?$_Vector_val@PAVioBaseChar@@V?$allocator@PAVioBaseChar@@@std@@@std@@@2@XZ ; std::vector<ioBaseChar *,std::allocator<ioBaseChar *> >::end
; Function compile flags: /Ogsp
;	COMDAT ?end@?$vector@PAVioBaseChar@@V?$allocator@PAVioBaseChar@@@std@@@std@@QBE?AV?$_Vector_const_iterator@V?$_Vector_val@PAVioBaseChar@@V?$allocator@PAVioBaseChar@@@std@@@std@@@2@XZ
_TEXT	SEGMENT
___$ReturnUdt$ = 8					; size = 4
?end@?$vector@PAVioBaseChar@@V?$allocator@PAVioBaseChar@@@std@@@std@@QBE?AV?$_Vector_const_iterator@V?$_Vector_val@PAVioBaseChar@@V?$allocator@PAVioBaseChar@@@std@@@std@@@2@XZ PROC ; std::vector<ioBaseChar *,std::allocator<ioBaseChar *> >::end, COMDAT
; _this$ = ecx

; 796  : 		{	// return iterator for end of nonmutable sequence

  00000	55		 push	 ebp
  00001	8b ec		 mov	 ebp, esp

; 797  : 		return (const_iterator(this->_Mylast, this));

  00003	8b 49 04	 mov	 ecx, DWORD PTR [ecx+4]
  00006	8b 45 08	 mov	 eax, DWORD PTR ___$ReturnUdt$[ebp]
  00009	89 08		 mov	 DWORD PTR [eax], ecx

; 798  : 		}

  0000b	5d		 pop	 ebp
  0000c	c2 04 00	 ret	 4
?end@?$vector@PAVioBaseChar@@V?$allocator@PAVioBaseChar@@@std@@@std@@QBE?AV?$_Vector_const_iterator@V?$_Vector_val@PAVioBaseChar@@V?$allocator@PAVioBaseChar@@@std@@@std@@@2@XZ ENDP ; std::vector<ioBaseChar *,std::allocator<ioBaseChar *> >::end
_TEXT	ENDS
PUBLIC	?max_size@?$vector@UChangeDirInfo@@V?$allocator@UChangeDirInfo@@@std@@@std@@QBEIXZ ; std::vector<ChangeDirInfo,std::allocator<ChangeDirInfo> >::max_size
; Function compile flags: /Ogsp
;	COMDAT ?max_size@?$vector@UChangeDirInfo@@V?$allocator@UChangeDirInfo@@@std@@@std@@QBEIXZ
_TEXT	SEGMENT
?max_size@?$vector@UChangeDirInfo@@V?$allocator@UChangeDirInfo@@@std@@@std@@QBEIXZ PROC ; std::vector<ChangeDirInfo,std::allocator<ChangeDirInfo> >::max_size, COMDAT
; _this$ = ecx

; 884  : 		return (this->_Alval.max_size());

  00000	b8 49 92 24 09	 mov	 eax, 153391689		; 09249249H

; 885  : 		}

  00005	c3		 ret	 0
?max_size@?$vector@UChangeDirInfo@@V?$allocator@UChangeDirInfo@@@std@@@std@@QBEIXZ ENDP ; std::vector<ChangeDirInfo,std::allocator<ChangeDirInfo> >::max_size
_TEXT	ENDS
PUBLIC	??0?$_Vector_val@UChangeDirInfo@@V?$allocator@UChangeDirInfo@@@std@@@std@@QAE@V?$allocator@UChangeDirInfo@@@1@@Z ; std::_Vector_val<ChangeDirInfo,std::allocator<ChangeDirInfo> >::_Vector_val<ChangeDirInfo,std::allocator<ChangeDirInfo> >
; Function compile flags: /Ogsp
;	COMDAT ??0?$_Vector_val@UChangeDirInfo@@V?$allocator@UChangeDirInfo@@@std@@@std@@QAE@V?$allocator@UChangeDirInfo@@@1@@Z
_TEXT	SEGMENT
__Al$ = 8						; size = 1
??0?$_Vector_val@UChangeDirInfo@@V?$allocator@UChangeDirInfo@@@std@@@std@@QAE@V?$allocator@UChangeDirInfo@@@1@@Z PROC ; std::_Vector_val<ChangeDirInfo,std::allocator<ChangeDirInfo> >::_Vector_val<ChangeDirInfo,std::allocator<ChangeDirInfo> >, COMDAT
; _this$ = ecx

; 426  : 		{	// construct allocator from _Al

  00000	8b c1		 mov	 eax, ecx

; 427  : 		_Myfirst = 0;

  00002	33 c9		 xor	 ecx, ecx
  00004	89 08		 mov	 DWORD PTR [eax], ecx

; 428  : 		_Mylast = 0;

  00006	89 48 04	 mov	 DWORD PTR [eax+4], ecx

; 429  : 		_Myend = 0;

  00009	89 48 08	 mov	 DWORD PTR [eax+8], ecx

; 430  : 		}

  0000c	c2 04 00	 ret	 4
??0?$_Vector_val@UChangeDirInfo@@V?$allocator@UChangeDirInfo@@@std@@@std@@QAE@V?$allocator@UChangeDirInfo@@@1@@Z ENDP ; std::_Vector_val<ChangeDirInfo,std::allocator<ChangeDirInfo> >::_Vector_val<ChangeDirInfo,std::allocator<ChangeDirInfo> >
_TEXT	ENDS
PUBLIC	?allocate@?$allocator@UChangeDirInfo@@@std@@QAEPAUChangeDirInfo@@I@Z ; std::allocator<ChangeDirInfo>::allocate
; Function compile flags: /Ogsp
; File c:\program files (x86)\microsoft visual studio 10.0\vc\include\xmemory
;	COMDAT ?allocate@?$allocator@UChangeDirInfo@@@std@@QAEPAUChangeDirInfo@@I@Z
_TEXT	SEGMENT
__Count$ = 8						; size = 4
?allocate@?$allocator@UChangeDirInfo@@@std@@QAEPAUChangeDirInfo@@I@Z PROC ; std::allocator<ChangeDirInfo>::allocate, COMDAT
; _this$ = ecx

; 186  : 		{	// allocate array of _Count elements

  00000	55		 push	 ebp
  00001	8b ec		 mov	 ebp, esp

; 187  : 		return (_Allocate(_Count, (pointer)0));

  00003	6a 00		 push	 0
  00005	ff 75 08	 push	 DWORD PTR __Count$[ebp]
  00008	e8 00 00 00 00	 call	 ??$_Allocate@UChangeDirInfo@@@std@@YAPAUChangeDirInfo@@IPAU1@@Z ; std::_Allocate<ChangeDirInfo>
  0000d	59		 pop	 ecx
  0000e	59		 pop	 ecx

; 188  : 		}

  0000f	5d		 pop	 ebp
  00010	c2 04 00	 ret	 4
?allocate@?$allocator@UChangeDirInfo@@@std@@QAEPAUChangeDirInfo@@I@Z ENDP ; std::allocator<ChangeDirInfo>::allocate
_TEXT	ENDS
PUBLIC	??0?$_Vector_iterator@V?$_Vector_val@UChangeDirInfo@@V?$allocator@UChangeDirInfo@@@std@@@std@@@std@@QAE@PAUChangeDirInfo@@PBU_Container_base0@1@@Z ; std::_Vector_iterator<std::_Vector_val<ChangeDirInfo,std::allocator<ChangeDirInfo> > >::_Vector_iterator<std::_Vector_val<ChangeDirInfo,std::allocator<ChangeDirInfo> > >
; Function compile flags: /Ogsp
; File c:\program files (x86)\microsoft visual studio 10.0\vc\include\vector
;	COMDAT ??0?$_Vector_iterator@V?$_Vector_val@UChangeDirInfo@@V?$allocator@UChangeDirInfo@@@std@@@std@@@std@@QAE@PAUChangeDirInfo@@PBU_Container_base0@1@@Z
_TEXT	SEGMENT
__Parg$ = 8						; size = 4
__Pvector$ = 12						; size = 4
??0?$_Vector_iterator@V?$_Vector_val@UChangeDirInfo@@V?$allocator@UChangeDirInfo@@@std@@@std@@@std@@QAE@PAUChangeDirInfo@@PBU_Container_base0@1@@Z PROC ; std::_Vector_iterator<std::_Vector_val<ChangeDirInfo,std::allocator<ChangeDirInfo> > >::_Vector_iterator<std::_Vector_val<ChangeDirInfo,std::allocator<ChangeDirInfo> > >, COMDAT
; _this$ = ecx

; 304  : 		{	// construct with pointer _Parg

  00000	55		 push	 ebp
  00001	8b ec		 mov	 ebp, esp
  00003	8b c1		 mov	 eax, ecx
  00005	8b 4d 08	 mov	 ecx, DWORD PTR __Parg$[ebp]
  00008	89 08		 mov	 DWORD PTR [eax], ecx

; 305  : 		}

  0000a	5d		 pop	 ebp
  0000b	c2 08 00	 ret	 8
??0?$_Vector_iterator@V?$_Vector_val@UChangeDirInfo@@V?$allocator@UChangeDirInfo@@@std@@@std@@@std@@QAE@PAUChangeDirInfo@@PBU_Container_base0@1@@Z ENDP ; std::_Vector_iterator<std::_Vector_val<ChangeDirInfo,std::allocator<ChangeDirInfo> > >::_Vector_iterator<std::_Vector_val<ChangeDirInfo,std::allocator<ChangeDirInfo> > >
_TEXT	ENDS
PUBLIC	??8?$_Vector_const_iterator@V?$_Vector_val@PAVioBaseChar@@V?$allocator@PAVioBaseChar@@@std@@@std@@@std@@QBE_NABV01@@Z ; std::_Vector_const_iterator<std::_Vector_val<ioBaseChar *,std::allocator<ioBaseChar *> > >::operator==
; Function compile flags: /Ogsp
;	COMDAT ??8?$_Vector_const_iterator@V?$_Vector_val@PAVioBaseChar@@V?$allocator@PAVioBaseChar@@@std@@@std@@@std@@QBE_NABV01@@Z
_TEXT	SEGMENT
__Right$ = 8						; size = 4
??8?$_Vector_const_iterator@V?$_Vector_val@PAVioBaseChar@@V?$allocator@PAVioBaseChar@@@std@@@std@@@std@@QBE_NABV01@@Z PROC ; std::_Vector_const_iterator<std::_Vector_val<ioBaseChar *,std::allocator<ioBaseChar *> > >::operator==, COMDAT
; _this$ = ecx

; 201  : 		{	// test for iterator equality

  00000	55		 push	 ebp
  00001	8b ec		 mov	 ebp, esp

; 202  : 		_Compat(_Right);
; 203  : 		return (this->_Ptr == _Right._Ptr);

  00003	8b 01		 mov	 eax, DWORD PTR [ecx]
  00005	8b 4d 08	 mov	 ecx, DWORD PTR __Right$[ebp]
  00008	2b 01		 sub	 eax, DWORD PTR [ecx]
  0000a	f7 d8		 neg	 eax
  0000c	1b c0		 sbb	 eax, eax
  0000e	40		 inc	 eax

; 204  : 		}

  0000f	5d		 pop	 ebp
  00010	c2 04 00	 ret	 4
??8?$_Vector_const_iterator@V?$_Vector_val@PAVioBaseChar@@V?$allocator@PAVioBaseChar@@@std@@@std@@@std@@QBE_NABV01@@Z ENDP ; std::_Vector_const_iterator<std::_Vector_val<ioBaseChar *,std::allocator<ioBaseChar *> > >::operator==
_TEXT	ENDS
PUBLIC	?_Grow_to@?$vector@UChangeDirInfo@@V?$allocator@UChangeDirInfo@@@std@@@std@@IBEII@Z ; std::vector<ChangeDirInfo,std::allocator<ChangeDirInfo> >::_Grow_to
; Function compile flags: /Ogsp
;	COMDAT ?_Grow_to@?$vector@UChangeDirInfo@@V?$allocator@UChangeDirInfo@@@std@@@std@@IBEII@Z
_TEXT	SEGMENT
__Count$ = 8						; size = 4
?_Grow_to@?$vector@UChangeDirInfo@@V?$allocator@UChangeDirInfo@@@std@@@std@@IBEII@Z PROC ; std::vector<ChangeDirInfo,std::allocator<ChangeDirInfo> >::_Grow_to, COMDAT
; _this$ = ecx

; 1274 : 		{	// grow by 50% or at least to _Count

  00000	55		 push	 ebp
  00001	8b ec		 mov	 ebp, esp

; 1275 : 		size_type _Capacity = capacity();

  00003	8b 41 08	 mov	 eax, DWORD PTR [ecx+8]
  00006	2b 01		 sub	 eax, DWORD PTR [ecx]
  00008	6a 1c		 push	 28			; 0000001cH
  0000a	99		 cdq
  0000b	59		 pop	 ecx
  0000c	f7 f9		 idiv	 ecx

; 1276 : 
; 1277 : 		_Capacity = max_size() - _Capacity / 2 < _Capacity
; 1278 : 			? 0 : _Capacity + _Capacity / 2;	// try to grow by 50%

  0000e	ba 49 92 24 09	 mov	 edx, 153391689		; 09249249H
  00013	8b c8		 mov	 ecx, eax
  00015	d1 e9		 shr	 ecx, 1
  00017	2b d1		 sub	 edx, ecx
  00019	3b d0		 cmp	 edx, eax
  0001b	73 04		 jae	 SHORT $LN4@Grow_to
  0001d	33 c0		 xor	 eax, eax
  0001f	eb 02		 jmp	 SHORT $LN5@Grow_to
$LN4@Grow_to:
  00021	03 c1		 add	 eax, ecx
$LN5@Grow_to:

; 1279 : 		if (_Capacity < _Count)

  00023	3b 45 08	 cmp	 eax, DWORD PTR __Count$[ebp]

; 1280 : 			_Capacity = _Count;

  00026	0f 42 45 08	 cmovb	 eax, DWORD PTR __Count$[ebp]

; 1281 : 		return (_Capacity);
; 1282 : 		}

  0002a	5d		 pop	 ebp
  0002b	c2 04 00	 ret	 4
?_Grow_to@?$vector@UChangeDirInfo@@V?$allocator@UChangeDirInfo@@@std@@@std@@IBEII@Z ENDP ; std::vector<ChangeDirInfo,std::allocator<ChangeDirInfo> >::_Grow_to
_TEXT	ENDS
PUBLIC	??8?$_Vector_const_iterator@V?$_Vector_val@UChangeDirInfo@@V?$allocator@UChangeDirInfo@@@std@@@std@@@std@@QBE_NABV01@@Z ; std::_Vector_const_iterator<std::_Vector_val<ChangeDirInfo,std::allocator<ChangeDirInfo> > >::operator==
; Function compile flags: /Ogsp
;	COMDAT ??8?$_Vector_const_iterator@V?$_Vector_val@UChangeDirInfo@@V?$allocator@UChangeDirInfo@@@std@@@std@@@std@@QBE_NABV01@@Z
_TEXT	SEGMENT
__Right$ = 8						; size = 4
??8?$_Vector_const_iterator@V?$_Vector_val@UChangeDirInfo@@V?$allocator@UChangeDirInfo@@@std@@@std@@@std@@QBE_NABV01@@Z PROC ; std::_Vector_const_iterator<std::_Vector_val<ChangeDirInfo,std::allocator<ChangeDirInfo> > >::operator==, COMDAT
; _this$ = ecx

; 201  : 		{	// test for iterator equality

  00000	55		 push	 ebp
  00001	8b ec		 mov	 ebp, esp

; 202  : 		_Compat(_Right);
; 203  : 		return (this->_Ptr == _Right._Ptr);

  00003	8b 01		 mov	 eax, DWORD PTR [ecx]
  00005	8b 4d 08	 mov	 ecx, DWORD PTR __Right$[ebp]
  00008	2b 01		 sub	 eax, DWORD PTR [ecx]
  0000a	f7 d8		 neg	 eax
  0000c	1b c0		 sbb	 eax, eax
  0000e	40		 inc	 eax

; 204  : 		}

  0000f	5d		 pop	 ebp
  00010	c2 04 00	 ret	 4
??8?$_Vector_const_iterator@V?$_Vector_val@UChangeDirInfo@@V?$allocator@UChangeDirInfo@@@std@@@std@@@std@@QBE_NABV01@@Z ENDP ; std::_Vector_const_iterator<std::_Vector_val<ChangeDirInfo,std::allocator<ChangeDirInfo> > >::operator==
_TEXT	ENDS
PUBLIC	_this$GSCopy$
PUBLIC	__$ArrayPad$
PUBLIC	??$LoadString_e@$0M@@ioINILoader@@QAEXAAY0M@$$CBDAAY00$$CBDPADH@Z ; ioINILoader::LoadString_e<12>
EXTRN	__imp_?LoadStringA@ioINILoader@@QAEXPBD0PADH@Z:PROC
; Function compile flags: /Ogsp
; File d:\lost saga for developer\youtube\tutorial\source\src\io3dengine\ioiniloader.h
;	COMDAT ??$LoadString_e@$0M@@ioINILoader@@QAEXAAY0M@$$CBDAAY00$$CBDPADH@Z
_TEXT	SEGMENT
_this$GSCopy$ = -24					; size = 4
__k$ = -20						; size = 12
__$ArrayPad$ = -4					; size = 4
_k$ = 8							; size = 4
_d$ = 12						; size = 4
_b$ = 16						; size = 4
_i$ = 20						; size = 4
??$LoadString_e@$0M@@ioINILoader@@QAEXAAY0M@$$CBDAAY00$$CBDPADH@Z PROC ; ioINILoader::LoadString_e<12>, COMDAT
; _this$ = ecx

; 161  : 	{

  00000	55		 push	 ebp
  00001	8b ec		 mov	 ebp, esp
  00003	83 ec 18	 sub	 esp, 24			; 00000018H
  00006	a1 00 00 00 00	 mov	 eax, DWORD PTR ___security_cookie
  0000b	33 c5		 xor	 eax, ebp
  0000d	89 45 fc	 mov	 DWORD PTR __$ArrayPad$[ebp], eax
  00010	8b 45 08	 mov	 eax, DWORD PTR _k$[ebp]

; 162  : 		_ENCSTR(k, _k);

  00013	8a 10		 mov	 dl, BYTE PTR [eax]
  00015	56		 push	 esi
  00016	8b 75 0c	 mov	 esi, DWORD PTR _d$[ebp]
  00019	57		 push	 edi
  0001a	8b 7d 10	 mov	 edi, DWORD PTR _b$[ebp]
  0001d	89 4d e8	 mov	 DWORD PTR _this$GSCopy$[ebp], ecx
  00020	84 d2		 test	 dl, dl
  00022	0f 84 32 01 00
	00		 je	 $LN96@LoadString
  00028	80 f2 ed	 xor	 dl, -19			; ffffffedH
  0002b	88 55 ec	 mov	 BYTE PTR __k$[ebp], dl
  0002e	8a 50 01	 mov	 dl, BYTE PTR [eax+1]
  00031	84 d2		 test	 dl, dl
  00033	0f 84 1b 01 00
	00		 je	 $LN95@LoadString
  00039	80 f2 ec	 xor	 dl, -20			; ffffffecH
  0003c	88 55 ed	 mov	 BYTE PTR __k$[ebp+1], dl
  0003f	8a 50 02	 mov	 dl, BYTE PTR [eax+2]
  00042	84 d2		 test	 dl, dl
  00044	0f 84 04 01 00
	00		 je	 $LN94@LoadString
  0004a	b1 eb		 mov	 cl, -21			; ffffffebH
  0004c	32 d1		 xor	 dl, cl
  0004e	88 55 ee	 mov	 BYTE PTR __k$[ebp+2], dl
  00051	8a 50 03	 mov	 dl, BYTE PTR [eax+3]
  00054	84 d2		 test	 dl, dl
  00056	0f 84 ec 00 00
	00		 je	 $LN93@LoadString
  0005c	80 f2 ea	 xor	 dl, -22			; ffffffeaH
  0005f	88 55 ef	 mov	 BYTE PTR __k$[ebp+3], dl
  00062	8a 50 04	 mov	 dl, BYTE PTR [eax+4]
  00065	84 d2		 test	 dl, dl
  00067	0f 84 d5 00 00
	00		 je	 $LN92@LoadString
  0006d	80 f2 ed	 xor	 dl, -19			; ffffffedH
  00070	88 55 f0	 mov	 BYTE PTR __k$[ebp+4], dl
  00073	8a 50 05	 mov	 dl, BYTE PTR [eax+5]
  00076	84 d2		 test	 dl, dl
  00078	0f 84 be 00 00
	00		 je	 $LN91@LoadString
  0007e	80 f2 ec	 xor	 dl, -20			; ffffffecH
  00081	88 55 f1	 mov	 BYTE PTR __k$[ebp+5], dl
  00084	8a 50 06	 mov	 dl, BYTE PTR [eax+6]
  00087	84 d2		 test	 dl, dl
  00089	0f 84 a8 00 00
	00		 je	 $LN90@LoadString
  0008f	32 d1		 xor	 dl, cl
  00091	88 55 f2	 mov	 BYTE PTR __k$[ebp+6], dl
  00094	8a 50 07	 mov	 dl, BYTE PTR [eax+7]
  00097	84 d2		 test	 dl, dl
  00099	0f 84 92 00 00
	00		 je	 $LN89@LoadString
  0009f	80 f2 ea	 xor	 dl, -22			; ffffffeaH
  000a2	88 55 f3	 mov	 BYTE PTR __k$[ebp+7], dl
  000a5	8a 50 08	 mov	 dl, BYTE PTR [eax+8]
  000a8	84 d2		 test	 dl, dl
  000aa	74 7f		 je	 SHORT $LN88@LoadString
  000ac	80 f2 ed	 xor	 dl, -19			; ffffffedH
  000af	88 55 f4	 mov	 BYTE PTR __k$[ebp+8], dl
  000b2	8a 50 09	 mov	 dl, BYTE PTR [eax+9]
  000b5	84 d2		 test	 dl, dl
  000b7	74 6c		 je	 SHORT $LN87@LoadString
  000b9	80 f2 ec	 xor	 dl, -20			; ffffffecH
  000bc	88 55 f5	 mov	 BYTE PTR __k$[ebp+9], dl
  000bf	8a 50 0a	 mov	 dl, BYTE PTR [eax+10]
  000c2	84 d2		 test	 dl, dl
  000c4	74 5a		 je	 SHORT $LN86@LoadString
  000c6	32 d1		 xor	 dl, cl
  000c8	80 78 0b 00	 cmp	 BYTE PTR [eax+11], 0
  000cc	88 55 f6	 mov	 BYTE PTR __k$[ebp+10], dl
  000cf	0f 84 89 00 00
	00		 je	 $LN111@LoadString
  000d5	8a 50 0c	 mov	 dl, BYTE PTR [eax+12]
  000d8	84 d2		 test	 dl, dl
  000da	74 3e		 je	 SHORT $LN84@LoadString
  000dc	80 f2 ed	 xor	 dl, -19			; ffffffedH
  000df	88 55 f8	 mov	 BYTE PTR __k$[ebp+12], dl
  000e2	8a 50 0d	 mov	 dl, BYTE PTR [eax+13]
  000e5	84 d2		 test	 dl, dl
  000e7	74 2b		 je	 SHORT $LN83@LoadString
  000e9	80 f2 ec	 xor	 dl, -20			; ffffffecH
  000ec	88 55 f9	 mov	 BYTE PTR __k$[ebp+13], dl
  000ef	8a 50 0e	 mov	 dl, BYTE PTR [eax+14]
  000f2	84 d2		 test	 dl, dl
  000f4	74 19		 je	 SHORT $LN82@LoadString
  000f6	8a 40 0f	 mov	 al, BYTE PTR [eax+15]
  000f9	32 d1		 xor	 dl, cl
  000fb	88 55 fa	 mov	 BYTE PTR __k$[ebp+14], dl
  000fe	84 c0		 test	 al, al
  00100	74 07		 je	 SHORT $LN81@LoadString
  00102	34 ea		 xor	 al, -22			; ffffffeaH
  00104	88 45 fb	 mov	 BYTE PTR __k$[ebp+15], al
  00107	eb 55		 jmp	 SHORT $LN111@LoadString
$LN81@LoadString:
  00109	c6 45 fb ea	 mov	 BYTE PTR __k$[ebp+15], -22 ; ffffffeaH
  0010d	eb 4f		 jmp	 SHORT $LN111@LoadString
$LN82@LoadString:
  0010f	88 4d fa	 mov	 BYTE PTR __k$[ebp+14], cl
  00112	eb 4a		 jmp	 SHORT $LN111@LoadString
$LN83@LoadString:
  00114	c6 45 f9 ec	 mov	 BYTE PTR __k$[ebp+13], -20 ; ffffffecH
  00118	eb 44		 jmp	 SHORT $LN111@LoadString
$LN84@LoadString:
  0011a	c6 45 f8 ed	 mov	 BYTE PTR __k$[ebp+12], -19 ; ffffffedH
  0011e	eb 3e		 jmp	 SHORT $LN111@LoadString
$LN86@LoadString:
  00120	88 4d f6	 mov	 BYTE PTR __k$[ebp+10], cl
  00123	eb 39		 jmp	 SHORT $LN111@LoadString
$LN87@LoadString:
  00125	c6 45 f5 ec	 mov	 BYTE PTR __k$[ebp+9], -20 ; ffffffecH
  00129	eb 33		 jmp	 SHORT $LN111@LoadString
$LN88@LoadString:
  0012b	c6 45 f4 ed	 mov	 BYTE PTR __k$[ebp+8], -19 ; ffffffedH
  0012f	eb 2d		 jmp	 SHORT $LN111@LoadString
$LN89@LoadString:
  00131	c6 45 f3 ea	 mov	 BYTE PTR __k$[ebp+7], -22 ; ffffffeaH
  00135	eb 27		 jmp	 SHORT $LN111@LoadString
$LN90@LoadString:
  00137	88 4d f2	 mov	 BYTE PTR __k$[ebp+6], cl
  0013a	eb 22		 jmp	 SHORT $LN111@LoadString
$LN91@LoadString:
  0013c	c6 45 f1 ec	 mov	 BYTE PTR __k$[ebp+5], -20 ; ffffffecH
  00140	eb 1c		 jmp	 SHORT $LN111@LoadString
$LN92@LoadString:
  00142	c6 45 f0 ed	 mov	 BYTE PTR __k$[ebp+4], -19 ; ffffffedH
  00146	eb 16		 jmp	 SHORT $LN111@LoadString
$LN93@LoadString:
  00148	c6 45 ef ea	 mov	 BYTE PTR __k$[ebp+3], -22 ; ffffffeaH
  0014c	eb 10		 jmp	 SHORT $LN111@LoadString
$LN94@LoadString:
  0014e	c6 45 ee eb	 mov	 BYTE PTR __k$[ebp+2], -21 ; ffffffebH
  00152	eb 0a		 jmp	 SHORT $LN111@LoadString
$LN95@LoadString:
  00154	c6 45 ed ec	 mov	 BYTE PTR __k$[ebp+1], -20 ; ffffffecH
  00158	eb 04		 jmp	 SHORT $LN111@LoadString
$LN96@LoadString:
  0015a	c6 45 ec ed	 mov	 BYTE PTR __k$[ebp], -19	; ffffffedH
$LN111@LoadString:
  0015e	6a 02		 push	 2
  00160	8d 45 ec	 lea	 eax, DWORD PTR __k$[ebp]
  00163	c6 45 f7 00	 mov	 BYTE PTR __k$[ebp+11], 0
  00167	5a		 pop	 edx
$LL104@LoadString:
  00168	81 30 ed ec eb
	ea		 xor	 DWORD PTR [eax], -353637139 ; eaebecedH
  0016e	83 c0 04	 add	 eax, 4
  00171	4a		 dec	 edx
  00172	75 f4		 jne	 SHORT $LL104@LoadString
  00174	6a 08		 push	 8
  00176	58		 pop	 eax
$LL101@LoadString:
  00177	8b c8		 mov	 ecx, eax
  00179	81 e1 03 00 00
	80		 and	 ecx, -2147483645	; 80000003H
  0017f	79 05		 jns	 SHORT $LN112@LoadString
  00181	49		 dec	 ecx
  00182	83 c9 fc	 or	 ecx, -4			; fffffffcH
  00185	41		 inc	 ecx
$LN112@LoadString:
  00186	b2 ed		 mov	 dl, -19			; ffffffedH
  00188	2a d1		 sub	 dl, cl
  0018a	30 54 05 ec	 xor	 BYTE PTR __k$[ebp+eax], dl
  0018e	40		 inc	 eax
  0018f	83 f8 0b	 cmp	 eax, 11			; 0000000bH
  00192	7c e3		 jl	 SHORT $LL101@LoadString

; 163  : 		LoadString(_k, d, b, i);

  00194	ff 75 14	 push	 DWORD PTR _i$[ebp]
  00197	8b 4d e8	 mov	 ecx, DWORD PTR _this$GSCopy$[ebp]
  0019a	57		 push	 edi
  0019b	56		 push	 esi
  0019c	8d 45 ec	 lea	 eax, DWORD PTR __k$[ebp]
  0019f	50		 push	 eax
  001a0	ff 15 00 00 00
	00		 call	 DWORD PTR __imp_?LoadStringA@ioINILoader@@QAEXPBD0PADH@Z

; 164  : 	}

  001a6	8b 4d fc	 mov	 ecx, DWORD PTR __$ArrayPad$[ebp]
  001a9	5f		 pop	 edi
  001aa	33 cd		 xor	 ecx, ebp
  001ac	5e		 pop	 esi
  001ad	e8 00 00 00 00	 call	 @__security_check_cookie@4
  001b2	c9		 leave
  001b3	c2 10 00	 ret	 16			; 00000010H
??$LoadString_e@$0M@@ioINILoader@@QAEXAAY0M@$$CBDAAY00$$CBDPADH@Z ENDP ; ioINILoader::LoadString_e<12>
_TEXT	ENDS
PUBLIC	__$ArrayPad$
PUBLIC	??$LoadInt_e@$09@ioINILoader@@QAEHAAY09$$CBDH@Z	; ioINILoader::LoadInt_e<10>
EXTRN	__imp_?LoadInt@ioINILoader@@QAEHPBDH@Z:PROC
; Function compile flags: /Ogsp
;	COMDAT ??$LoadInt_e@$09@ioINILoader@@QAEHAAY09$$CBDH@Z
_TEXT	SEGMENT
__k$ = -20						; size = 10
__$ArrayPad$ = -4					; size = 4
_k$ = 8							; size = 4
_i$ = 12						; size = 4
??$LoadInt_e@$09@ioINILoader@@QAEHAAY09$$CBDH@Z PROC	; ioINILoader::LoadInt_e<10>, COMDAT
; _this$ = ecx

; 118  : 	{

  00000	55		 push	 ebp
  00001	8b ec		 mov	 ebp, esp
  00003	83 ec 14	 sub	 esp, 20			; 00000014H
  00006	a1 00 00 00 00	 mov	 eax, DWORD PTR ___security_cookie
  0000b	33 c5		 xor	 eax, ebp
  0000d	89 45 fc	 mov	 DWORD PTR __$ArrayPad$[ebp], eax
  00010	8b 45 08	 mov	 eax, DWORD PTR _k$[ebp]

; 119  : 		_ENCSTR(k, _k);

  00013	8a 10		 mov	 dl, BYTE PTR [eax]
  00015	84 d2		 test	 dl, dl
  00017	0f 84 0d 01 00
	00		 je	 $LN96@LoadInt_e
  0001d	80 f2 ed	 xor	 dl, -19			; ffffffedH
  00020	88 55 ec	 mov	 BYTE PTR __k$[ebp], dl
  00023	8a 50 01	 mov	 dl, BYTE PTR [eax+1]
  00026	84 d2		 test	 dl, dl
  00028	0f 84 f6 00 00
	00		 je	 $LN95@LoadInt_e
  0002e	80 f2 ec	 xor	 dl, -20			; ffffffecH
  00031	88 55 ed	 mov	 BYTE PTR __k$[ebp+1], dl
  00034	8a 50 02	 mov	 dl, BYTE PTR [eax+2]
  00037	84 d2		 test	 dl, dl
  00039	0f 84 df 00 00
	00		 je	 $LN94@LoadInt_e
  0003f	80 f2 eb	 xor	 dl, -21			; ffffffebH
  00042	88 55 ee	 mov	 BYTE PTR __k$[ebp+2], dl
  00045	8a 50 03	 mov	 dl, BYTE PTR [eax+3]
  00048	84 d2		 test	 dl, dl
  0004a	0f 84 c8 00 00
	00		 je	 $LN93@LoadInt_e
  00050	80 f2 ea	 xor	 dl, -22			; ffffffeaH
  00053	88 55 ef	 mov	 BYTE PTR __k$[ebp+3], dl
  00056	8a 50 04	 mov	 dl, BYTE PTR [eax+4]
  00059	84 d2		 test	 dl, dl
  0005b	0f 84 b1 00 00
	00		 je	 $LN92@LoadInt_e
  00061	80 f2 ed	 xor	 dl, -19			; ffffffedH
  00064	88 55 f0	 mov	 BYTE PTR __k$[ebp+4], dl
  00067	8a 50 05	 mov	 dl, BYTE PTR [eax+5]
  0006a	84 d2		 test	 dl, dl
  0006c	0f 84 9a 00 00
	00		 je	 $LN91@LoadInt_e
  00072	80 f2 ec	 xor	 dl, -20			; ffffffecH
  00075	88 55 f1	 mov	 BYTE PTR __k$[ebp+5], dl
  00078	8a 50 06	 mov	 dl, BYTE PTR [eax+6]
  0007b	84 d2		 test	 dl, dl
  0007d	0f 84 83 00 00
	00		 je	 $LN90@LoadInt_e
  00083	80 f2 eb	 xor	 dl, -21			; ffffffebH
  00086	88 55 f2	 mov	 BYTE PTR __k$[ebp+6], dl
  00089	8a 50 07	 mov	 dl, BYTE PTR [eax+7]
  0008c	84 d2		 test	 dl, dl
  0008e	74 70		 je	 SHORT $LN89@LoadInt_e
  00090	80 f2 ea	 xor	 dl, -22			; ffffffeaH
  00093	88 55 f3	 mov	 BYTE PTR __k$[ebp+7], dl
  00096	8a 50 08	 mov	 dl, BYTE PTR [eax+8]
  00099	84 d2		 test	 dl, dl
  0009b	74 5d		 je	 SHORT $LN88@LoadInt_e
  0009d	80 f2 ed	 xor	 dl, -19			; ffffffedH
  000a0	80 78 09 00	 cmp	 BYTE PTR [eax+9], 0
  000a4	88 55 f4	 mov	 BYTE PTR __k$[ebp+8], dl
  000a7	0f 84 81 00 00
	00		 je	 $LN1@LoadInt_e
  000ad	8a 50 0a	 mov	 dl, BYTE PTR [eax+10]
  000b0	84 d2		 test	 dl, dl
  000b2	74 40		 je	 SHORT $LN86@LoadInt_e
  000b4	80 f2 eb	 xor	 dl, -21			; ffffffebH
  000b7	88 55 f6	 mov	 BYTE PTR __k$[ebp+10], dl
  000ba	8a 50 0b	 mov	 dl, BYTE PTR [eax+11]
  000bd	84 d2		 test	 dl, dl
  000bf	74 2d		 je	 SHORT $LN85@LoadInt_e
  000c1	80 f2 ea	 xor	 dl, -22			; ffffffeaH
  000c4	88 55 f7	 mov	 BYTE PTR __k$[ebp+11], dl
  000c7	8a 50 0c	 mov	 dl, BYTE PTR [eax+12]
  000ca	84 d2		 test	 dl, dl
  000cc	74 1a		 je	 SHORT $LN84@LoadInt_e
  000ce	8a 40 0d	 mov	 al, BYTE PTR [eax+13]
  000d1	80 f2 ed	 xor	 dl, -19			; ffffffedH
  000d4	88 55 f8	 mov	 BYTE PTR __k$[ebp+12], dl
  000d7	84 c0		 test	 al, al
  000d9	74 07		 je	 SHORT $LN83@LoadInt_e
  000db	34 ec		 xor	 al, -20			; ffffffecH
  000dd	88 45 f9	 mov	 BYTE PTR __k$[ebp+13], al
  000e0	eb 4c		 jmp	 SHORT $LN1@LoadInt_e
$LN83@LoadInt_e:
  000e2	c6 45 f9 ec	 mov	 BYTE PTR __k$[ebp+13], -20 ; ffffffecH
  000e6	eb 46		 jmp	 SHORT $LN1@LoadInt_e
$LN84@LoadInt_e:
  000e8	c6 45 f8 ed	 mov	 BYTE PTR __k$[ebp+12], -19 ; ffffffedH
  000ec	eb 40		 jmp	 SHORT $LN1@LoadInt_e
$LN85@LoadInt_e:
  000ee	c6 45 f7 ea	 mov	 BYTE PTR __k$[ebp+11], -22 ; ffffffeaH
  000f2	eb 3a		 jmp	 SHORT $LN1@LoadInt_e
$LN86@LoadInt_e:
  000f4	c6 45 f6 eb	 mov	 BYTE PTR __k$[ebp+10], -21 ; ffffffebH
  000f8	eb 34		 jmp	 SHORT $LN1@LoadInt_e
$LN88@LoadInt_e:
  000fa	c6 45 f4 ed	 mov	 BYTE PTR __k$[ebp+8], -19 ; ffffffedH
  000fe	eb 2e		 jmp	 SHORT $LN1@LoadInt_e
$LN89@LoadInt_e:
  00100	c6 45 f3 ea	 mov	 BYTE PTR __k$[ebp+7], -22 ; ffffffeaH
  00104	eb 28		 jmp	 SHORT $LN1@LoadInt_e
$LN90@LoadInt_e:
  00106	c6 45 f2 eb	 mov	 BYTE PTR __k$[ebp+6], -21 ; ffffffebH
  0010a	eb 22		 jmp	 SHORT $LN1@LoadInt_e
$LN91@LoadInt_e:
  0010c	c6 45 f1 ec	 mov	 BYTE PTR __k$[ebp+5], -20 ; ffffffecH
  00110	eb 1c		 jmp	 SHORT $LN1@LoadInt_e
$LN92@LoadInt_e:
  00112	c6 45 f0 ed	 mov	 BYTE PTR __k$[ebp+4], -19 ; ffffffedH
  00116	eb 16		 jmp	 SHORT $LN1@LoadInt_e
$LN93@LoadInt_e:
  00118	c6 45 ef ea	 mov	 BYTE PTR __k$[ebp+3], -22 ; ffffffeaH
  0011c	eb 10		 jmp	 SHORT $LN1@LoadInt_e
$LN94@LoadInt_e:
  0011e	c6 45 ee eb	 mov	 BYTE PTR __k$[ebp+2], -21 ; ffffffebH
  00122	eb 0a		 jmp	 SHORT $LN1@LoadInt_e
$LN95@LoadInt_e:
  00124	c6 45 ed ec	 mov	 BYTE PTR __k$[ebp+1], -20 ; ffffffecH
  00128	eb 04		 jmp	 SHORT $LN1@LoadInt_e
$LN96@LoadInt_e:
  0012a	c6 45 ec ed	 mov	 BYTE PTR __k$[ebp], -19	; ffffffedH
$LN1@LoadInt_e:
  0012e	6a 02		 push	 2
  00130	8d 45 ec	 lea	 eax, DWORD PTR __k$[ebp]
  00133	c6 45 f5 00	 mov	 BYTE PTR __k$[ebp+9], 0
  00137	5a		 pop	 edx
$LL104@LoadInt_e:
  00138	81 30 ed ec eb
	ea		 xor	 DWORD PTR [eax], -353637139 ; eaebecedH
  0013e	83 c0 04	 add	 eax, 4
  00141	4a		 dec	 edx
  00142	75 f4		 jne	 SHORT $LL104@LoadInt_e

; 120  : 		return LoadInt(_k, i);

  00144	ff 75 0c	 push	 DWORD PTR _i$[ebp]
  00147	80 75 f4 ed	 xor	 BYTE PTR __k$[ebp+8], -19 ; ffffffedH
  0014b	8d 45 ec	 lea	 eax, DWORD PTR __k$[ebp]
  0014e	50		 push	 eax
  0014f	ff 15 00 00 00
	00		 call	 DWORD PTR __imp_?LoadInt@ioINILoader@@QAEHPBDH@Z

; 121  : 	}

  00155	8b 4d fc	 mov	 ecx, DWORD PTR __$ArrayPad$[ebp]
  00158	33 cd		 xor	 ecx, ebp
  0015a	e8 00 00 00 00	 call	 @__security_check_cookie@4
  0015f	c9		 leave
  00160	c2 08 00	 ret	 8
??$LoadInt_e@$09@ioINILoader@@QAEHAAY09$$CBDH@Z ENDP	; ioINILoader::LoadInt_e<10>
_TEXT	ENDS
PUBLIC	__$ArrayPad$
PUBLIC	??$LoadFloat_e@$0N@@ioINILoader@@QAEMAAY0N@$$CBDM@Z ; ioINILoader::LoadFloat_e<13>
EXTRN	__imp_?LoadFloat@ioINILoader@@QAEMPBDM@Z:PROC
; Function compile flags: /Ogsp
;	COMDAT ??$LoadFloat_e@$0N@@ioINILoader@@QAEMAAY0N@$$CBDM@Z
_TEXT	SEGMENT
__k$ = -24						; size = 13
__$ArrayPad$ = -4					; size = 4
_k$ = 8							; size = 4
_f$ = 12						; size = 4
??$LoadFloat_e@$0N@@ioINILoader@@QAEMAAY0N@$$CBDM@Z PROC ; ioINILoader::LoadFloat_e<13>, COMDAT
; _this$ = ecx

; 135  : 	{

  00000	55		 push	 ebp
  00001	8b ec		 mov	 ebp, esp
  00003	83 ec 18	 sub	 esp, 24			; 00000018H
  00006	a1 00 00 00 00	 mov	 eax, DWORD PTR ___security_cookie
  0000b	33 c5		 xor	 eax, ebp
  0000d	89 45 fc	 mov	 DWORD PTR __$ArrayPad$[ebp], eax
  00010	8b 45 08	 mov	 eax, DWORD PTR _k$[ebp]

; 136  : 		_ENCSTR(k, _k);

  00013	8a 10		 mov	 dl, BYTE PTR [eax]
  00015	56		 push	 esi
  00016	8b f1		 mov	 esi, ecx
  00018	84 d2		 test	 dl, dl
  0001a	0f 84 4d 01 00
	00		 je	 $LN96@LoadFloat_
  00020	80 f2 ed	 xor	 dl, -19			; ffffffedH
  00023	88 55 e8	 mov	 BYTE PTR __k$[ebp], dl
  00026	8a 50 01	 mov	 dl, BYTE PTR [eax+1]
  00029	84 d2		 test	 dl, dl
  0002b	0f 84 36 01 00
	00		 je	 $LN95@LoadFloat_
  00031	b1 ec		 mov	 cl, -20			; ffffffecH
  00033	32 d1		 xor	 dl, cl
  00035	88 55 e9	 mov	 BYTE PTR __k$[ebp+1], dl
  00038	8a 50 02	 mov	 dl, BYTE PTR [eax+2]
  0003b	84 d2		 test	 dl, dl
  0003d	0f 84 1e 01 00
	00		 je	 $LN94@LoadFloat_
  00043	80 f2 eb	 xor	 dl, -21			; ffffffebH
  00046	88 55 ea	 mov	 BYTE PTR __k$[ebp+2], dl
  00049	8a 50 03	 mov	 dl, BYTE PTR [eax+3]
  0004c	84 d2		 test	 dl, dl
  0004e	0f 84 07 01 00
	00		 je	 $LN93@LoadFloat_
  00054	80 f2 ea	 xor	 dl, -22			; ffffffeaH
  00057	88 55 eb	 mov	 BYTE PTR __k$[ebp+3], dl
  0005a	8a 50 04	 mov	 dl, BYTE PTR [eax+4]
  0005d	84 d2		 test	 dl, dl
  0005f	0f 84 f0 00 00
	00		 je	 $LN92@LoadFloat_
  00065	80 f2 ed	 xor	 dl, -19			; ffffffedH
  00068	88 55 ec	 mov	 BYTE PTR __k$[ebp+4], dl
  0006b	8a 50 05	 mov	 dl, BYTE PTR [eax+5]
  0006e	84 d2		 test	 dl, dl
  00070	0f 84 da 00 00
	00		 je	 $LN91@LoadFloat_
  00076	32 d1		 xor	 dl, cl
  00078	88 55 ed	 mov	 BYTE PTR __k$[ebp+5], dl
  0007b	8a 50 06	 mov	 dl, BYTE PTR [eax+6]
  0007e	84 d2		 test	 dl, dl
  00080	0f 84 c4 00 00
	00		 je	 $LN90@LoadFloat_
  00086	80 f2 eb	 xor	 dl, -21			; ffffffebH
  00089	88 55 ee	 mov	 BYTE PTR __k$[ebp+6], dl
  0008c	8a 50 07	 mov	 dl, BYTE PTR [eax+7]
  0008f	84 d2		 test	 dl, dl
  00091	0f 84 ad 00 00
	00		 je	 $LN89@LoadFloat_
  00097	80 f2 ea	 xor	 dl, -22			; ffffffeaH
  0009a	88 55 ef	 mov	 BYTE PTR __k$[ebp+7], dl
  0009d	8a 50 08	 mov	 dl, BYTE PTR [eax+8]
  000a0	84 d2		 test	 dl, dl
  000a2	0f 84 96 00 00
	00		 je	 $LN88@LoadFloat_
  000a8	80 f2 ed	 xor	 dl, -19			; ffffffedH
  000ab	88 55 f0	 mov	 BYTE PTR __k$[ebp+8], dl
  000ae	8a 50 09	 mov	 dl, BYTE PTR [eax+9]
  000b1	84 d2		 test	 dl, dl
  000b3	0f 84 80 00 00
	00		 je	 $LN87@LoadFloat_
  000b9	32 d1		 xor	 dl, cl
  000bb	88 55 f1	 mov	 BYTE PTR __k$[ebp+9], dl
  000be	8a 50 0a	 mov	 dl, BYTE PTR [eax+10]
  000c1	84 d2		 test	 dl, dl
  000c3	74 6e		 je	 SHORT $LN86@LoadFloat_
  000c5	80 f2 eb	 xor	 dl, -21			; ffffffebH
  000c8	88 55 f2	 mov	 BYTE PTR __k$[ebp+10], dl
  000cb	8a 50 0b	 mov	 dl, BYTE PTR [eax+11]
  000ce	84 d2		 test	 dl, dl
  000d0	74 5b		 je	 SHORT $LN85@LoadFloat_
  000d2	80 f2 ea	 xor	 dl, -22			; ffffffeaH
  000d5	80 78 0c 00	 cmp	 BYTE PTR [eax+12], 0
  000d9	88 55 f3	 mov	 BYTE PTR __k$[ebp+11], dl
  000dc	0f 84 8f 00 00
	00		 je	 $LN1@LoadFloat_
  000e2	8a 50 0d	 mov	 dl, BYTE PTR [eax+13]
  000e5	84 d2		 test	 dl, dl
  000e7	74 3f		 je	 SHORT $LN83@LoadFloat_
  000e9	32 d1		 xor	 dl, cl
  000eb	88 55 f5	 mov	 BYTE PTR __k$[ebp+13], dl
  000ee	8a 50 0e	 mov	 dl, BYTE PTR [eax+14]
  000f1	84 d2		 test	 dl, dl
  000f3	74 2d		 je	 SHORT $LN82@LoadFloat_
  000f5	80 f2 eb	 xor	 dl, -21			; ffffffebH
  000f8	88 55 f6	 mov	 BYTE PTR __k$[ebp+14], dl
  000fb	8a 50 0f	 mov	 dl, BYTE PTR [eax+15]
  000fe	84 d2		 test	 dl, dl
  00100	74 1a		 je	 SHORT $LN81@LoadFloat_
  00102	8a 40 10	 mov	 al, BYTE PTR [eax+16]
  00105	80 f2 ea	 xor	 dl, -22			; ffffffeaH
  00108	88 55 f7	 mov	 BYTE PTR __k$[ebp+15], dl
  0010b	84 c0		 test	 al, al
  0010d	74 07		 je	 SHORT $LN80@LoadFloat_
  0010f	34 ed		 xor	 al, -19			; ffffffedH
  00111	88 45 f8	 mov	 BYTE PTR __k$[ebp+16], al
  00114	eb 5b		 jmp	 SHORT $LN1@LoadFloat_
$LN80@LoadFloat_:
  00116	c6 45 f8 ed	 mov	 BYTE PTR __k$[ebp+16], -19 ; ffffffedH
  0011a	eb 55		 jmp	 SHORT $LN1@LoadFloat_
$LN81@LoadFloat_:
  0011c	c6 45 f7 ea	 mov	 BYTE PTR __k$[ebp+15], -22 ; ffffffeaH
  00120	eb 4f		 jmp	 SHORT $LN1@LoadFloat_
$LN82@LoadFloat_:
  00122	c6 45 f6 eb	 mov	 BYTE PTR __k$[ebp+14], -21 ; ffffffebH
  00126	eb 49		 jmp	 SHORT $LN1@LoadFloat_
$LN83@LoadFloat_:
  00128	88 4d f5	 mov	 BYTE PTR __k$[ebp+13], cl
  0012b	eb 44		 jmp	 SHORT $LN1@LoadFloat_
$LN85@LoadFloat_:
  0012d	c6 45 f3 ea	 mov	 BYTE PTR __k$[ebp+11], -22 ; ffffffeaH
  00131	eb 3e		 jmp	 SHORT $LN1@LoadFloat_
$LN86@LoadFloat_:
  00133	c6 45 f2 eb	 mov	 BYTE PTR __k$[ebp+10], -21 ; ffffffebH
  00137	eb 38		 jmp	 SHORT $LN1@LoadFloat_
$LN87@LoadFloat_:
  00139	88 4d f1	 mov	 BYTE PTR __k$[ebp+9], cl
  0013c	eb 33		 jmp	 SHORT $LN1@LoadFloat_
$LN88@LoadFloat_:
  0013e	c6 45 f0 ed	 mov	 BYTE PTR __k$[ebp+8], -19 ; ffffffedH
  00142	eb 2d		 jmp	 SHORT $LN1@LoadFloat_
$LN89@LoadFloat_:
  00144	c6 45 ef ea	 mov	 BYTE PTR __k$[ebp+7], -22 ; ffffffeaH
  00148	eb 27		 jmp	 SHORT $LN1@LoadFloat_
$LN90@LoadFloat_:
  0014a	c6 45 ee eb	 mov	 BYTE PTR __k$[ebp+6], -21 ; ffffffebH
  0014e	eb 21		 jmp	 SHORT $LN1@LoadFloat_
$LN91@LoadFloat_:
  00150	88 4d ed	 mov	 BYTE PTR __k$[ebp+5], cl
  00153	eb 1c		 jmp	 SHORT $LN1@LoadFloat_
$LN92@LoadFloat_:
  00155	c6 45 ec ed	 mov	 BYTE PTR __k$[ebp+4], -19 ; ffffffedH
  00159	eb 16		 jmp	 SHORT $LN1@LoadFloat_
$LN93@LoadFloat_:
  0015b	c6 45 eb ea	 mov	 BYTE PTR __k$[ebp+3], -22 ; ffffffeaH
  0015f	eb 10		 jmp	 SHORT $LN1@LoadFloat_
$LN94@LoadFloat_:
  00161	c6 45 ea eb	 mov	 BYTE PTR __k$[ebp+2], -21 ; ffffffebH
  00165	eb 0a		 jmp	 SHORT $LN1@LoadFloat_
$LN95@LoadFloat_:
  00167	c6 45 e9 ec	 mov	 BYTE PTR __k$[ebp+1], -20 ; ffffffecH
  0016b	eb 04		 jmp	 SHORT $LN1@LoadFloat_
$LN96@LoadFloat_:
  0016d	c6 45 e8 ed	 mov	 BYTE PTR __k$[ebp], -19	; ffffffedH
$LN1@LoadFloat_:
  00171	6a 03		 push	 3
  00173	8d 45 e8	 lea	 eax, DWORD PTR __k$[ebp]
  00176	c6 45 f4 00	 mov	 BYTE PTR __k$[ebp+12], 0
  0017a	5a		 pop	 edx
$LL104@LoadFloat_:
  0017b	81 30 ed ec eb
	ea		 xor	 DWORD PTR [eax], -353637139 ; eaebecedH
  00181	83 c0 04	 add	 eax, 4
  00184	4a		 dec	 edx
  00185	75 f4		 jne	 SHORT $LL104@LoadFloat_

; 137  : 		return LoadFloat(_k, f);

  00187	f3 0f 10 45 0c	 movss	 xmm0, DWORD PTR _f$[ebp]
  0018c	51		 push	 ecx
  0018d	8d 45 e8	 lea	 eax, DWORD PTR __k$[ebp]
  00190	f3 0f 11 04 24	 movss	 DWORD PTR [esp], xmm0
  00195	50		 push	 eax
  00196	8b ce		 mov	 ecx, esi
  00198	ff 15 00 00 00
	00		 call	 DWORD PTR __imp_?LoadFloat@ioINILoader@@QAEMPBDM@Z

; 138  : 	}

  0019e	8b 4d fc	 mov	 ecx, DWORD PTR __$ArrayPad$[ebp]
  001a1	33 cd		 xor	 ecx, ebp
  001a3	5e		 pop	 esi
  001a4	e8 00 00 00 00	 call	 @__security_check_cookie@4
  001a9	c9		 leave
  001aa	c2 08 00	 ret	 8
??$LoadFloat_e@$0N@@ioINILoader@@QAEMAAY0N@$$CBDM@Z ENDP ; ioINILoader::LoadFloat_e<13>
_TEXT	ENDS
PUBLIC	__$ArrayPad$
PUBLIC	??$LoadInt_e@$0BC@@ioINILoader@@QAEHAAY0BC@$$CBDH@Z ; ioINILoader::LoadInt_e<18>
; Function compile flags: /Ogsp
;	COMDAT ??$LoadInt_e@$0BC@@ioINILoader@@QAEHAAY0BC@$$CBDH@Z
_TEXT	SEGMENT
__k$ = -28						; size = 18
__$ArrayPad$ = -4					; size = 4
_k$ = 8							; size = 4
_i$ = 12						; size = 4
??$LoadInt_e@$0BC@@ioINILoader@@QAEHAAY0BC@$$CBDH@Z PROC ; ioINILoader::LoadInt_e<18>, COMDAT
; _this$ = ecx

; 118  : 	{

  00000	55		 push	 ebp
  00001	8b ec		 mov	 ebp, esp
  00003	83 ec 1c	 sub	 esp, 28			; 0000001cH
  00006	a1 00 00 00 00	 mov	 eax, DWORD PTR ___security_cookie
  0000b	33 c5		 xor	 eax, ebp
  0000d	89 45 fc	 mov	 DWORD PTR __$ArrayPad$[ebp], eax
  00010	8b 45 08	 mov	 eax, DWORD PTR _k$[ebp]

; 119  : 		_ENCSTR(k, _k);

  00013	8a 10		 mov	 dl, BYTE PTR [eax]
  00015	56		 push	 esi
  00016	8b f1		 mov	 esi, ecx
  00018	84 d2		 test	 dl, dl
  0001a	0f 84 be 01 00
	00		 je	 $LN96@LoadInt_e@2
  00020	80 f2 ed	 xor	 dl, -19			; ffffffedH
  00023	88 55 e4	 mov	 BYTE PTR __k$[ebp], dl
  00026	8a 50 01	 mov	 dl, BYTE PTR [eax+1]
  00029	84 d2		 test	 dl, dl
  0002b	0f 84 a7 01 00
	00		 je	 $LN95@LoadInt_e@2
  00031	80 f2 ec	 xor	 dl, -20			; ffffffecH
  00034	88 55 e5	 mov	 BYTE PTR __k$[ebp+1], dl
  00037	8a 50 02	 mov	 dl, BYTE PTR [eax+2]
  0003a	84 d2		 test	 dl, dl
  0003c	0f 84 90 01 00
	00		 je	 $LN94@LoadInt_e@2
  00042	b1 eb		 mov	 cl, -21			; ffffffebH
  00044	32 d1		 xor	 dl, cl
  00046	88 55 e6	 mov	 BYTE PTR __k$[ebp+2], dl
  00049	8a 50 03	 mov	 dl, BYTE PTR [eax+3]
  0004c	84 d2		 test	 dl, dl
  0004e	0f 84 78 01 00
	00		 je	 $LN93@LoadInt_e@2
  00054	80 f2 ea	 xor	 dl, -22			; ffffffeaH
  00057	88 55 e7	 mov	 BYTE PTR __k$[ebp+3], dl
  0005a	8a 50 04	 mov	 dl, BYTE PTR [eax+4]
  0005d	84 d2		 test	 dl, dl
  0005f	0f 84 61 01 00
	00		 je	 $LN92@LoadInt_e@2
  00065	80 f2 ed	 xor	 dl, -19			; ffffffedH
  00068	88 55 e8	 mov	 BYTE PTR __k$[ebp+4], dl
  0006b	8a 50 05	 mov	 dl, BYTE PTR [eax+5]
  0006e	84 d2		 test	 dl, dl
  00070	0f 84 4a 01 00
	00		 je	 $LN91@LoadInt_e@2
  00076	80 f2 ec	 xor	 dl, -20			; ffffffecH
  00079	88 55 e9	 mov	 BYTE PTR __k$[ebp+5], dl
  0007c	8a 50 06	 mov	 dl, BYTE PTR [eax+6]
  0007f	84 d2		 test	 dl, dl
  00081	0f 84 34 01 00
	00		 je	 $LN90@LoadInt_e@2
  00087	32 d1		 xor	 dl, cl
  00089	88 55 ea	 mov	 BYTE PTR __k$[ebp+6], dl
  0008c	8a 50 07	 mov	 dl, BYTE PTR [eax+7]
  0008f	84 d2		 test	 dl, dl
  00091	0f 84 1e 01 00
	00		 je	 $LN89@LoadInt_e@2
  00097	80 f2 ea	 xor	 dl, -22			; ffffffeaH
  0009a	88 55 eb	 mov	 BYTE PTR __k$[ebp+7], dl
  0009d	8a 50 08	 mov	 dl, BYTE PTR [eax+8]
  000a0	84 d2		 test	 dl, dl
  000a2	0f 84 07 01 00
	00		 je	 $LN88@LoadInt_e@2
  000a8	80 f2 ed	 xor	 dl, -19			; ffffffedH
  000ab	88 55 ec	 mov	 BYTE PTR __k$[ebp+8], dl
  000ae	8a 50 09	 mov	 dl, BYTE PTR [eax+9]
  000b1	84 d2		 test	 dl, dl
  000b3	0f 84 f0 00 00
	00		 je	 $LN87@LoadInt_e@2
  000b9	80 f2 ec	 xor	 dl, -20			; ffffffecH
  000bc	88 55 ed	 mov	 BYTE PTR __k$[ebp+9], dl
  000bf	8a 50 0a	 mov	 dl, BYTE PTR [eax+10]
  000c2	84 d2		 test	 dl, dl
  000c4	0f 84 da 00 00
	00		 je	 $LN86@LoadInt_e@2
  000ca	32 d1		 xor	 dl, cl
  000cc	88 55 ee	 mov	 BYTE PTR __k$[ebp+10], dl
  000cf	8a 50 0b	 mov	 dl, BYTE PTR [eax+11]
  000d2	84 d2		 test	 dl, dl
  000d4	0f 84 c4 00 00
	00		 je	 $LN85@LoadInt_e@2
  000da	80 f2 ea	 xor	 dl, -22			; ffffffeaH
  000dd	88 55 ef	 mov	 BYTE PTR __k$[ebp+11], dl
  000e0	8a 50 0c	 mov	 dl, BYTE PTR [eax+12]
  000e3	84 d2		 test	 dl, dl
  000e5	0f 84 ad 00 00
	00		 je	 $LN84@LoadInt_e@2
  000eb	80 f2 ed	 xor	 dl, -19			; ffffffedH
  000ee	88 55 f0	 mov	 BYTE PTR __k$[ebp+12], dl
  000f1	8a 50 0d	 mov	 dl, BYTE PTR [eax+13]
  000f4	84 d2		 test	 dl, dl
  000f6	0f 84 96 00 00
	00		 je	 $LN83@LoadInt_e@2
  000fc	80 f2 ec	 xor	 dl, -20			; ffffffecH
  000ff	88 55 f1	 mov	 BYTE PTR __k$[ebp+13], dl
  00102	8a 50 0e	 mov	 dl, BYTE PTR [eax+14]
  00105	84 d2		 test	 dl, dl
  00107	0f 84 80 00 00
	00		 je	 $LN82@LoadInt_e@2
  0010d	32 d1		 xor	 dl, cl
  0010f	88 55 f2	 mov	 BYTE PTR __k$[ebp+14], dl
  00112	8a 50 0f	 mov	 dl, BYTE PTR [eax+15]
  00115	84 d2		 test	 dl, dl
  00117	74 6e		 je	 SHORT $LN81@LoadInt_e@2
  00119	80 f2 ea	 xor	 dl, -22			; ffffffeaH
  0011c	88 55 f3	 mov	 BYTE PTR __k$[ebp+15], dl
  0011f	8a 50 10	 mov	 dl, BYTE PTR [eax+16]
  00122	84 d2		 test	 dl, dl
  00124	74 5b		 je	 SHORT $LN80@LoadInt_e@2
  00126	80 f2 ed	 xor	 dl, -19			; ffffffedH
  00129	80 78 11 00	 cmp	 BYTE PTR [eax+17], 0
  0012d	88 55 f4	 mov	 BYTE PTR __k$[ebp+16], dl
  00130	0f 84 ac 00 00
	00		 je	 $LN1@LoadInt_e@2
  00136	8a 50 12	 mov	 dl, BYTE PTR [eax+18]
  00139	84 d2		 test	 dl, dl
  0013b	74 3f		 je	 SHORT $LN78@LoadInt_e@2
  0013d	32 d1		 xor	 dl, cl
  0013f	88 55 f6	 mov	 BYTE PTR __k$[ebp+18], dl
  00142	8a 50 13	 mov	 dl, BYTE PTR [eax+19]
  00145	84 d2		 test	 dl, dl
  00147	74 2d		 je	 SHORT $LN77@LoadInt_e@2
  00149	80 f2 ea	 xor	 dl, -22			; ffffffeaH
  0014c	88 55 f7	 mov	 BYTE PTR __k$[ebp+19], dl
  0014f	8a 50 14	 mov	 dl, BYTE PTR [eax+20]
  00152	84 d2		 test	 dl, dl
  00154	74 1a		 je	 SHORT $LN76@LoadInt_e@2
  00156	8a 40 15	 mov	 al, BYTE PTR [eax+21]
  00159	80 f2 ed	 xor	 dl, -19			; ffffffedH
  0015c	88 55 f8	 mov	 BYTE PTR __k$[ebp+20], dl
  0015f	84 c0		 test	 al, al
  00161	74 07		 je	 SHORT $LN75@LoadInt_e@2
  00163	34 ec		 xor	 al, -20			; ffffffecH
  00165	88 45 f9	 mov	 BYTE PTR __k$[ebp+21], al
  00168	eb 78		 jmp	 SHORT $LN1@LoadInt_e@2
$LN75@LoadInt_e@2:
  0016a	c6 45 f9 ec	 mov	 BYTE PTR __k$[ebp+21], -20 ; ffffffecH
  0016e	eb 72		 jmp	 SHORT $LN1@LoadInt_e@2
$LN76@LoadInt_e@2:
  00170	c6 45 f8 ed	 mov	 BYTE PTR __k$[ebp+20], -19 ; ffffffedH
  00174	eb 6c		 jmp	 SHORT $LN1@LoadInt_e@2
$LN77@LoadInt_e@2:
  00176	c6 45 f7 ea	 mov	 BYTE PTR __k$[ebp+19], -22 ; ffffffeaH
  0017a	eb 66		 jmp	 SHORT $LN1@LoadInt_e@2
$LN78@LoadInt_e@2:
  0017c	88 4d f6	 mov	 BYTE PTR __k$[ebp+18], cl
  0017f	eb 61		 jmp	 SHORT $LN1@LoadInt_e@2
$LN80@LoadInt_e@2:
  00181	c6 45 f4 ed	 mov	 BYTE PTR __k$[ebp+16], -19 ; ffffffedH
  00185	eb 5b		 jmp	 SHORT $LN1@LoadInt_e@2
$LN81@LoadInt_e@2:
  00187	c6 45 f3 ea	 mov	 BYTE PTR __k$[ebp+15], -22 ; ffffffeaH
  0018b	eb 55		 jmp	 SHORT $LN1@LoadInt_e@2
$LN82@LoadInt_e@2:
  0018d	88 4d f2	 mov	 BYTE PTR __k$[ebp+14], cl
  00190	eb 50		 jmp	 SHORT $LN1@LoadInt_e@2
$LN83@LoadInt_e@2:
  00192	c6 45 f1 ec	 mov	 BYTE PTR __k$[ebp+13], -20 ; ffffffecH
  00196	eb 4a		 jmp	 SHORT $LN1@LoadInt_e@2
$LN84@LoadInt_e@2:
  00198	c6 45 f0 ed	 mov	 BYTE PTR __k$[ebp+12], -19 ; ffffffedH
  0019c	eb 44		 jmp	 SHORT $LN1@LoadInt_e@2
$LN85@LoadInt_e@2:
  0019e	c6 45 ef ea	 mov	 BYTE PTR __k$[ebp+11], -22 ; ffffffeaH
  001a2	eb 3e		 jmp	 SHORT $LN1@LoadInt_e@2
$LN86@LoadInt_e@2:
  001a4	88 4d ee	 mov	 BYTE PTR __k$[ebp+10], cl
  001a7	eb 39		 jmp	 SHORT $LN1@LoadInt_e@2
$LN87@LoadInt_e@2:
  001a9	c6 45 ed ec	 mov	 BYTE PTR __k$[ebp+9], -20 ; ffffffecH
  001ad	eb 33		 jmp	 SHORT $LN1@LoadInt_e@2
$LN88@LoadInt_e@2:
  001af	c6 45 ec ed	 mov	 BYTE PTR __k$[ebp+8], -19 ; ffffffedH
  001b3	eb 2d		 jmp	 SHORT $LN1@LoadInt_e@2
$LN89@LoadInt_e@2:
  001b5	c6 45 eb ea	 mov	 BYTE PTR __k$[ebp+7], -22 ; ffffffeaH
  001b9	eb 27		 jmp	 SHORT $LN1@LoadInt_e@2
$LN90@LoadInt_e@2:
  001bb	88 4d ea	 mov	 BYTE PTR __k$[ebp+6], cl
  001be	eb 22		 jmp	 SHORT $LN1@LoadInt_e@2
$LN91@LoadInt_e@2:
  001c0	c6 45 e9 ec	 mov	 BYTE PTR __k$[ebp+5], -20 ; ffffffecH
  001c4	eb 1c		 jmp	 SHORT $LN1@LoadInt_e@2
$LN92@LoadInt_e@2:
  001c6	c6 45 e8 ed	 mov	 BYTE PTR __k$[ebp+4], -19 ; ffffffedH
  001ca	eb 16		 jmp	 SHORT $LN1@LoadInt_e@2
$LN93@LoadInt_e@2:
  001cc	c6 45 e7 ea	 mov	 BYTE PTR __k$[ebp+3], -22 ; ffffffeaH
  001d0	eb 10		 jmp	 SHORT $LN1@LoadInt_e@2
$LN94@LoadInt_e@2:
  001d2	c6 45 e6 eb	 mov	 BYTE PTR __k$[ebp+2], -21 ; ffffffebH
  001d6	eb 0a		 jmp	 SHORT $LN1@LoadInt_e@2
$LN95@LoadInt_e@2:
  001d8	c6 45 e5 ec	 mov	 BYTE PTR __k$[ebp+1], -20 ; ffffffecH
  001dc	eb 04		 jmp	 SHORT $LN1@LoadInt_e@2
$LN96@LoadInt_e@2:
  001de	c6 45 e4 ed	 mov	 BYTE PTR __k$[ebp], -19	; ffffffedH
$LN1@LoadInt_e@2:
  001e2	6a 04		 push	 4
  001e4	8d 45 e4	 lea	 eax, DWORD PTR __k$[ebp]
  001e7	c6 45 f5 00	 mov	 BYTE PTR __k$[ebp+17], 0
  001eb	5a		 pop	 edx
$LL104@LoadInt_e@2:
  001ec	81 30 ed ec eb
	ea		 xor	 DWORD PTR [eax], -353637139 ; eaebecedH
  001f2	83 c0 04	 add	 eax, 4
  001f5	4a		 dec	 edx
  001f6	75 f4		 jne	 SHORT $LL104@LoadInt_e@2

; 120  : 		return LoadInt(_k, i);

  001f8	ff 75 0c	 push	 DWORD PTR _i$[ebp]
  001fb	80 75 f4 ed	 xor	 BYTE PTR __k$[ebp+16], -19 ; ffffffedH
  001ff	8d 45 e4	 lea	 eax, DWORD PTR __k$[ebp]
  00202	50		 push	 eax
  00203	8b ce		 mov	 ecx, esi
  00205	ff 15 00 00 00
	00		 call	 DWORD PTR __imp_?LoadInt@ioINILoader@@QAEHPBDH@Z

; 121  : 	}

  0020b	8b 4d fc	 mov	 ecx, DWORD PTR __$ArrayPad$[ebp]
  0020e	33 cd		 xor	 ecx, ebp
  00210	5e		 pop	 esi
  00211	e8 00 00 00 00	 call	 @__security_check_cookie@4
  00216	c9		 leave
  00217	c2 08 00	 ret	 8
??$LoadInt_e@$0BC@@ioINILoader@@QAEHAAY0BC@$$CBDH@Z ENDP ; ioINILoader::LoadInt_e<18>
_TEXT	ENDS
PUBLIC	__$ArrayPad$
PUBLIC	??$LoadInt_e@$0BE@@ioINILoader@@QAEHAAY0BE@$$CBDH@Z ; ioINILoader::LoadInt_e<20>
; Function compile flags: /Ogsp
;	COMDAT ??$LoadInt_e@$0BE@@ioINILoader@@QAEHAAY0BE@$$CBDH@Z
_TEXT	SEGMENT
__k$ = -28						; size = 20
__$ArrayPad$ = -4					; size = 4
_k$ = 8							; size = 4
_i$ = 12						; size = 4
??$LoadInt_e@$0BE@@ioINILoader@@QAEHAAY0BE@$$CBDH@Z PROC ; ioINILoader::LoadInt_e<20>, COMDAT
; _this$ = ecx

; 118  : 	{

  00000	55		 push	 ebp
  00001	8b ec		 mov	 ebp, esp
  00003	83 ec 1c	 sub	 esp, 28			; 0000001cH
  00006	a1 00 00 00 00	 mov	 eax, DWORD PTR ___security_cookie
  0000b	33 c5		 xor	 eax, ebp
  0000d	89 45 fc	 mov	 DWORD PTR __$ArrayPad$[ebp], eax
  00010	8b 45 08	 mov	 eax, DWORD PTR _k$[ebp]

; 119  : 		_ENCSTR(k, _k);

  00013	8a 10		 mov	 dl, BYTE PTR [eax]
  00015	53		 push	 ebx
  00016	56		 push	 esi
  00017	8b f1		 mov	 esi, ecx
  00019	84 d2		 test	 dl, dl
  0001b	0f 84 dd 01 00
	00		 je	 $LN96@LoadInt_e@3
  00021	80 f2 ed	 xor	 dl, -19			; ffffffedH
  00024	88 55 e4	 mov	 BYTE PTR __k$[ebp], dl
  00027	8a 50 01	 mov	 dl, BYTE PTR [eax+1]
  0002a	84 d2		 test	 dl, dl
  0002c	0f 84 c6 01 00
	00		 je	 $LN95@LoadInt_e@3
  00032	b3 ec		 mov	 bl, -20			; ffffffecH
  00034	32 d3		 xor	 dl, bl
  00036	88 55 e5	 mov	 BYTE PTR __k$[ebp+1], dl
  00039	8a 50 02	 mov	 dl, BYTE PTR [eax+2]
  0003c	84 d2		 test	 dl, dl
  0003e	0f 84 ae 01 00
	00		 je	 $LN94@LoadInt_e@3
  00044	b1 eb		 mov	 cl, -21			; ffffffebH
  00046	32 d1		 xor	 dl, cl
  00048	88 55 e6	 mov	 BYTE PTR __k$[ebp+2], dl
  0004b	8a 50 03	 mov	 dl, BYTE PTR [eax+3]
  0004e	84 d2		 test	 dl, dl
  00050	0f 84 96 01 00
	00		 je	 $LN93@LoadInt_e@3
  00056	80 f2 ea	 xor	 dl, -22			; ffffffeaH
  00059	88 55 e7	 mov	 BYTE PTR __k$[ebp+3], dl
  0005c	8a 50 04	 mov	 dl, BYTE PTR [eax+4]
  0005f	84 d2		 test	 dl, dl
  00061	0f 84 7f 01 00
	00		 je	 $LN92@LoadInt_e@3
  00067	80 f2 ed	 xor	 dl, -19			; ffffffedH
  0006a	88 55 e8	 mov	 BYTE PTR __k$[ebp+4], dl
  0006d	8a 50 05	 mov	 dl, BYTE PTR [eax+5]
  00070	84 d2		 test	 dl, dl
  00072	0f 84 69 01 00
	00		 je	 $LN91@LoadInt_e@3
  00078	32 d3		 xor	 dl, bl
  0007a	88 55 e9	 mov	 BYTE PTR __k$[ebp+5], dl
  0007d	8a 50 06	 mov	 dl, BYTE PTR [eax+6]
  00080	84 d2		 test	 dl, dl
  00082	0f 84 54 01 00
	00		 je	 $LN90@LoadInt_e@3
  00088	32 d1		 xor	 dl, cl
  0008a	88 55 ea	 mov	 BYTE PTR __k$[ebp+6], dl
  0008d	8a 50 07	 mov	 dl, BYTE PTR [eax+7]
  00090	84 d2		 test	 dl, dl
  00092	0f 84 3e 01 00
	00		 je	 $LN89@LoadInt_e@3
  00098	80 f2 ea	 xor	 dl, -22			; ffffffeaH
  0009b	88 55 eb	 mov	 BYTE PTR __k$[ebp+7], dl
  0009e	8a 50 08	 mov	 dl, BYTE PTR [eax+8]
  000a1	84 d2		 test	 dl, dl
  000a3	0f 84 27 01 00
	00		 je	 $LN88@LoadInt_e@3
  000a9	80 f2 ed	 xor	 dl, -19			; ffffffedH
  000ac	88 55 ec	 mov	 BYTE PTR __k$[ebp+8], dl
  000af	8a 50 09	 mov	 dl, BYTE PTR [eax+9]
  000b2	84 d2		 test	 dl, dl
  000b4	0f 84 11 01 00
	00		 je	 $LN87@LoadInt_e@3
  000ba	32 d3		 xor	 dl, bl
  000bc	88 55 ed	 mov	 BYTE PTR __k$[ebp+9], dl
  000bf	8a 50 0a	 mov	 dl, BYTE PTR [eax+10]
  000c2	84 d2		 test	 dl, dl
  000c4	0f 84 fc 00 00
	00		 je	 $LN86@LoadInt_e@3
  000ca	32 d1		 xor	 dl, cl
  000cc	88 55 ee	 mov	 BYTE PTR __k$[ebp+10], dl
  000cf	8a 50 0b	 mov	 dl, BYTE PTR [eax+11]
  000d2	84 d2		 test	 dl, dl
  000d4	0f 84 e6 00 00
	00		 je	 $LN85@LoadInt_e@3
  000da	80 f2 ea	 xor	 dl, -22			; ffffffeaH
  000dd	88 55 ef	 mov	 BYTE PTR __k$[ebp+11], dl
  000e0	8a 50 0c	 mov	 dl, BYTE PTR [eax+12]
  000e3	84 d2		 test	 dl, dl
  000e5	0f 84 cf 00 00
	00		 je	 $LN84@LoadInt_e@3
  000eb	80 f2 ed	 xor	 dl, -19			; ffffffedH
  000ee	88 55 f0	 mov	 BYTE PTR __k$[ebp+12], dl
  000f1	8a 50 0d	 mov	 dl, BYTE PTR [eax+13]
  000f4	84 d2		 test	 dl, dl
  000f6	0f 84 b9 00 00
	00		 je	 $LN83@LoadInt_e@3
  000fc	32 d3		 xor	 dl, bl
  000fe	88 55 f1	 mov	 BYTE PTR __k$[ebp+13], dl
  00101	8a 50 0e	 mov	 dl, BYTE PTR [eax+14]
  00104	84 d2		 test	 dl, dl
  00106	0f 84 a4 00 00
	00		 je	 $LN82@LoadInt_e@3
  0010c	32 d1		 xor	 dl, cl
  0010e	88 55 f2	 mov	 BYTE PTR __k$[ebp+14], dl
  00111	8a 50 0f	 mov	 dl, BYTE PTR [eax+15]
  00114	84 d2		 test	 dl, dl
  00116	0f 84 8e 00 00
	00		 je	 $LN81@LoadInt_e@3
  0011c	80 f2 ea	 xor	 dl, -22			; ffffffeaH
  0011f	88 55 f3	 mov	 BYTE PTR __k$[ebp+15], dl
  00122	8a 50 10	 mov	 dl, BYTE PTR [eax+16]
  00125	84 d2		 test	 dl, dl
  00127	74 7b		 je	 SHORT $LN80@LoadInt_e@3
  00129	80 f2 ed	 xor	 dl, -19			; ffffffedH
  0012c	88 55 f4	 mov	 BYTE PTR __k$[ebp+16], dl
  0012f	8a 50 11	 mov	 dl, BYTE PTR [eax+17]
  00132	84 d2		 test	 dl, dl
  00134	74 69		 je	 SHORT $LN79@LoadInt_e@3
  00136	32 d3		 xor	 dl, bl
  00138	88 55 f5	 mov	 BYTE PTR __k$[ebp+17], dl
  0013b	8a 50 12	 mov	 dl, BYTE PTR [eax+18]
  0013e	84 d2		 test	 dl, dl
  00140	74 58		 je	 SHORT $LN78@LoadInt_e@3
  00142	32 d1		 xor	 dl, cl
  00144	80 78 13 00	 cmp	 BYTE PTR [eax+19], 0
  00148	88 55 f6	 mov	 BYTE PTR __k$[ebp+18], dl
  0014b	0f 84 b1 00 00
	00		 je	 $LN1@LoadInt_e@3
  00151	8a 50 14	 mov	 dl, BYTE PTR [eax+20]
  00154	84 d2		 test	 dl, dl
  00156	74 3c		 je	 SHORT $LN76@LoadInt_e@3
  00158	80 f2 ed	 xor	 dl, -19			; ffffffedH
  0015b	88 55 f8	 mov	 BYTE PTR __k$[ebp+20], dl
  0015e	8a 50 15	 mov	 dl, BYTE PTR [eax+21]
  00161	84 d2		 test	 dl, dl
  00163	74 2a		 je	 SHORT $LN75@LoadInt_e@3
  00165	32 d3		 xor	 dl, bl
  00167	88 55 f9	 mov	 BYTE PTR __k$[ebp+21], dl
  0016a	8a 50 16	 mov	 dl, BYTE PTR [eax+22]
  0016d	84 d2		 test	 dl, dl
  0016f	74 19		 je	 SHORT $LN74@LoadInt_e@3
  00171	8a 40 17	 mov	 al, BYTE PTR [eax+23]
  00174	32 d1		 xor	 dl, cl
  00176	88 55 fa	 mov	 BYTE PTR __k$[ebp+22], dl
  00179	84 c0		 test	 al, al
  0017b	74 07		 je	 SHORT $LN73@LoadInt_e@3
  0017d	34 ea		 xor	 al, -22			; ffffffeaH
  0017f	88 45 fb	 mov	 BYTE PTR __k$[ebp+23], al
  00182	eb 7e		 jmp	 SHORT $LN1@LoadInt_e@3
$LN73@LoadInt_e@3:
  00184	c6 45 fb ea	 mov	 BYTE PTR __k$[ebp+23], -22 ; ffffffeaH
  00188	eb 78		 jmp	 SHORT $LN1@LoadInt_e@3
$LN74@LoadInt_e@3:
  0018a	88 4d fa	 mov	 BYTE PTR __k$[ebp+22], cl
  0018d	eb 73		 jmp	 SHORT $LN1@LoadInt_e@3
$LN75@LoadInt_e@3:
  0018f	88 5d f9	 mov	 BYTE PTR __k$[ebp+21], bl
  00192	eb 6e		 jmp	 SHORT $LN1@LoadInt_e@3
$LN76@LoadInt_e@3:
  00194	c6 45 f8 ed	 mov	 BYTE PTR __k$[ebp+20], -19 ; ffffffedH
  00198	eb 68		 jmp	 SHORT $LN1@LoadInt_e@3
$LN78@LoadInt_e@3:
  0019a	88 4d f6	 mov	 BYTE PTR __k$[ebp+18], cl
  0019d	eb 63		 jmp	 SHORT $LN1@LoadInt_e@3
$LN79@LoadInt_e@3:
  0019f	88 5d f5	 mov	 BYTE PTR __k$[ebp+17], bl
  001a2	eb 5e		 jmp	 SHORT $LN1@LoadInt_e@3
$LN80@LoadInt_e@3:
  001a4	c6 45 f4 ed	 mov	 BYTE PTR __k$[ebp+16], -19 ; ffffffedH
  001a8	eb 58		 jmp	 SHORT $LN1@LoadInt_e@3
$LN81@LoadInt_e@3:
  001aa	c6 45 f3 ea	 mov	 BYTE PTR __k$[ebp+15], -22 ; ffffffeaH
  001ae	eb 52		 jmp	 SHORT $LN1@LoadInt_e@3
$LN82@LoadInt_e@3:
  001b0	88 4d f2	 mov	 BYTE PTR __k$[ebp+14], cl
  001b3	eb 4d		 jmp	 SHORT $LN1@LoadInt_e@3
$LN83@LoadInt_e@3:
  001b5	88 5d f1	 mov	 BYTE PTR __k$[ebp+13], bl
  001b8	eb 48		 jmp	 SHORT $LN1@LoadInt_e@3
$LN84@LoadInt_e@3:
  001ba	c6 45 f0 ed	 mov	 BYTE PTR __k$[ebp+12], -19 ; ffffffedH
  001be	eb 42		 jmp	 SHORT $LN1@LoadInt_e@3
$LN85@LoadInt_e@3:
  001c0	c6 45 ef ea	 mov	 BYTE PTR __k$[ebp+11], -22 ; ffffffeaH
  001c4	eb 3c		 jmp	 SHORT $LN1@LoadInt_e@3
$LN86@LoadInt_e@3:
  001c6	88 4d ee	 mov	 BYTE PTR __k$[ebp+10], cl
  001c9	eb 37		 jmp	 SHORT $LN1@LoadInt_e@3
$LN87@LoadInt_e@3:
  001cb	88 5d ed	 mov	 BYTE PTR __k$[ebp+9], bl
  001ce	eb 32		 jmp	 SHORT $LN1@LoadInt_e@3
$LN88@LoadInt_e@3:
  001d0	c6 45 ec ed	 mov	 BYTE PTR __k$[ebp+8], -19 ; ffffffedH
  001d4	eb 2c		 jmp	 SHORT $LN1@LoadInt_e@3
$LN89@LoadInt_e@3:
  001d6	c6 45 eb ea	 mov	 BYTE PTR __k$[ebp+7], -22 ; ffffffeaH
  001da	eb 26		 jmp	 SHORT $LN1@LoadInt_e@3
$LN90@LoadInt_e@3:
  001dc	88 4d ea	 mov	 BYTE PTR __k$[ebp+6], cl
  001df	eb 21		 jmp	 SHORT $LN1@LoadInt_e@3
$LN91@LoadInt_e@3:
  001e1	88 5d e9	 mov	 BYTE PTR __k$[ebp+5], bl
  001e4	eb 1c		 jmp	 SHORT $LN1@LoadInt_e@3
$LN92@LoadInt_e@3:
  001e6	c6 45 e8 ed	 mov	 BYTE PTR __k$[ebp+4], -19 ; ffffffedH
  001ea	eb 16		 jmp	 SHORT $LN1@LoadInt_e@3
$LN93@LoadInt_e@3:
  001ec	c6 45 e7 ea	 mov	 BYTE PTR __k$[ebp+3], -22 ; ffffffeaH
  001f0	eb 10		 jmp	 SHORT $LN1@LoadInt_e@3
$LN94@LoadInt_e@3:
  001f2	c6 45 e6 eb	 mov	 BYTE PTR __k$[ebp+2], -21 ; ffffffebH
  001f6	eb 0a		 jmp	 SHORT $LN1@LoadInt_e@3
$LN95@LoadInt_e@3:
  001f8	c6 45 e5 ec	 mov	 BYTE PTR __k$[ebp+1], -20 ; ffffffecH
  001fc	eb 04		 jmp	 SHORT $LN1@LoadInt_e@3
$LN96@LoadInt_e@3:
  001fe	c6 45 e4 ed	 mov	 BYTE PTR __k$[ebp], -19	; ffffffedH
$LN1@LoadInt_e@3:
  00202	6a 04		 push	 4
  00204	8d 45 e4	 lea	 eax, DWORD PTR __k$[ebp]
  00207	c6 45 f7 00	 mov	 BYTE PTR __k$[ebp+19], 0
  0020b	5a		 pop	 edx
$LL104@LoadInt_e@3:
  0020c	81 30 ed ec eb
	ea		 xor	 DWORD PTR [eax], -353637139 ; eaebecedH
  00212	83 c0 04	 add	 eax, 4
  00215	4a		 dec	 edx
  00216	75 f4		 jne	 SHORT $LL104@LoadInt_e@3
  00218	6a 10		 push	 16			; 00000010H
  0021a	58		 pop	 eax
$LL101@LoadInt_e@3:
  0021b	8b c8		 mov	 ecx, eax
  0021d	81 e1 03 00 00
	80		 and	 ecx, -2147483645	; 80000003H
  00223	79 05		 jns	 SHORT $LN111@LoadInt_e@3
  00225	49		 dec	 ecx
  00226	83 c9 fc	 or	 ecx, -4			; fffffffcH
  00229	41		 inc	 ecx
$LN111@LoadInt_e@3:
  0022a	b2 ed		 mov	 dl, -19			; ffffffedH
  0022c	2a d1		 sub	 dl, cl
  0022e	30 54 05 e4	 xor	 BYTE PTR __k$[ebp+eax], dl
  00232	40		 inc	 eax
  00233	83 f8 13	 cmp	 eax, 19			; 00000013H
  00236	7c e3		 jl	 SHORT $LL101@LoadInt_e@3

; 120  : 		return LoadInt(_k, i);

  00238	ff 75 0c	 push	 DWORD PTR _i$[ebp]
  0023b	8d 45 e4	 lea	 eax, DWORD PTR __k$[ebp]
  0023e	50		 push	 eax
  0023f	8b ce		 mov	 ecx, esi
  00241	ff 15 00 00 00
	00		 call	 DWORD PTR __imp_?LoadInt@ioINILoader@@QAEHPBDH@Z

; 121  : 	}

  00247	8b 4d fc	 mov	 ecx, DWORD PTR __$ArrayPad$[ebp]
  0024a	5e		 pop	 esi
  0024b	33 cd		 xor	 ecx, ebp
  0024d	5b		 pop	 ebx
  0024e	e8 00 00 00 00	 call	 @__security_check_cookie@4
  00253	c9		 leave
  00254	c2 08 00	 ret	 8
??$LoadInt_e@$0BE@@ioINILoader@@QAEHAAY0BE@$$CBDH@Z ENDP ; ioINILoader::LoadInt_e<20>
_TEXT	ENDS
PUBLIC	__$ArrayPad$
PUBLIC	??$LoadInt_e@$0BB@@ioINILoader@@QAEHAAY0BB@$$CBDH@Z ; ioINILoader::LoadInt_e<17>
; Function compile flags: /Ogsp
;	COMDAT ??$LoadInt_e@$0BB@@ioINILoader@@QAEHAAY0BB@$$CBDH@Z
_TEXT	SEGMENT
__k$ = -28						; size = 17
__$ArrayPad$ = -4					; size = 4
_k$ = 8							; size = 4
_i$ = 12						; size = 4
??$LoadInt_e@$0BB@@ioINILoader@@QAEHAAY0BB@$$CBDH@Z PROC ; ioINILoader::LoadInt_e<17>, COMDAT
; _this$ = ecx

; 118  : 	{

  00000	55		 push	 ebp
  00001	8b ec		 mov	 ebp, esp
  00003	83 ec 1c	 sub	 esp, 28			; 0000001cH
  00006	a1 00 00 00 00	 mov	 eax, DWORD PTR ___security_cookie
  0000b	33 c5		 xor	 eax, ebp
  0000d	89 45 fc	 mov	 DWORD PTR __$ArrayPad$[ebp], eax
  00010	8b 45 08	 mov	 eax, DWORD PTR _k$[ebp]

; 119  : 		_ENCSTR(k, _k);

  00013	8a 10		 mov	 dl, BYTE PTR [eax]
  00015	56		 push	 esi
  00016	8b f1		 mov	 esi, ecx
  00018	84 d2		 test	 dl, dl
  0001a	0f 84 a7 01 00
	00		 je	 $LN96@LoadInt_e@4
  00020	80 f2 ed	 xor	 dl, -19			; ffffffedH
  00023	88 55 e4	 mov	 BYTE PTR __k$[ebp], dl
  00026	8a 50 01	 mov	 dl, BYTE PTR [eax+1]
  00029	84 d2		 test	 dl, dl
  0002b	0f 84 90 01 00
	00		 je	 $LN95@LoadInt_e@4
  00031	b1 ec		 mov	 cl, -20			; ffffffecH
  00033	32 d1		 xor	 dl, cl
  00035	88 55 e5	 mov	 BYTE PTR __k$[ebp+1], dl
  00038	8a 50 02	 mov	 dl, BYTE PTR [eax+2]
  0003b	84 d2		 test	 dl, dl
  0003d	0f 84 78 01 00
	00		 je	 $LN94@LoadInt_e@4
  00043	80 f2 eb	 xor	 dl, -21			; ffffffebH
  00046	88 55 e6	 mov	 BYTE PTR __k$[ebp+2], dl
  00049	8a 50 03	 mov	 dl, BYTE PTR [eax+3]
  0004c	84 d2		 test	 dl, dl
  0004e	0f 84 61 01 00
	00		 je	 $LN93@LoadInt_e@4
  00054	80 f2 ea	 xor	 dl, -22			; ffffffeaH
  00057	88 55 e7	 mov	 BYTE PTR __k$[ebp+3], dl
  0005a	8a 50 04	 mov	 dl, BYTE PTR [eax+4]
  0005d	84 d2		 test	 dl, dl
  0005f	0f 84 4a 01 00
	00		 je	 $LN92@LoadInt_e@4
  00065	80 f2 ed	 xor	 dl, -19			; ffffffedH
  00068	88 55 e8	 mov	 BYTE PTR __k$[ebp+4], dl
  0006b	8a 50 05	 mov	 dl, BYTE PTR [eax+5]
  0006e	84 d2		 test	 dl, dl
  00070	0f 84 34 01 00
	00		 je	 $LN91@LoadInt_e@4
  00076	32 d1		 xor	 dl, cl
  00078	88 55 e9	 mov	 BYTE PTR __k$[ebp+5], dl
  0007b	8a 50 06	 mov	 dl, BYTE PTR [eax+6]
  0007e	84 d2		 test	 dl, dl
  00080	0f 84 1e 01 00
	00		 je	 $LN90@LoadInt_e@4
  00086	80 f2 eb	 xor	 dl, -21			; ffffffebH
  00089	88 55 ea	 mov	 BYTE PTR __k$[ebp+6], dl
  0008c	8a 50 07	 mov	 dl, BYTE PTR [eax+7]
  0008f	84 d2		 test	 dl, dl
  00091	0f 84 07 01 00
	00		 je	 $LN89@LoadInt_e@4
  00097	80 f2 ea	 xor	 dl, -22			; ffffffeaH
  0009a	88 55 eb	 mov	 BYTE PTR __k$[ebp+7], dl
  0009d	8a 50 08	 mov	 dl, BYTE PTR [eax+8]
  000a0	84 d2		 test	 dl, dl
  000a2	0f 84 f0 00 00
	00		 je	 $LN88@LoadInt_e@4
  000a8	80 f2 ed	 xor	 dl, -19			; ffffffedH
  000ab	88 55 ec	 mov	 BYTE PTR __k$[ebp+8], dl
  000ae	8a 50 09	 mov	 dl, BYTE PTR [eax+9]
  000b1	84 d2		 test	 dl, dl
  000b3	0f 84 da 00 00
	00		 je	 $LN87@LoadInt_e@4
  000b9	32 d1		 xor	 dl, cl
  000bb	88 55 ed	 mov	 BYTE PTR __k$[ebp+9], dl
  000be	8a 50 0a	 mov	 dl, BYTE PTR [eax+10]
  000c1	84 d2		 test	 dl, dl
  000c3	0f 84 c4 00 00
	00		 je	 $LN86@LoadInt_e@4
  000c9	80 f2 eb	 xor	 dl, -21			; ffffffebH
  000cc	88 55 ee	 mov	 BYTE PTR __k$[ebp+10], dl
  000cf	8a 50 0b	 mov	 dl, BYTE PTR [eax+11]
  000d2	84 d2		 test	 dl, dl
  000d4	0f 84 ad 00 00
	00		 je	 $LN85@LoadInt_e@4
  000da	80 f2 ea	 xor	 dl, -22			; ffffffeaH
  000dd	88 55 ef	 mov	 BYTE PTR __k$[ebp+11], dl
  000e0	8a 50 0c	 mov	 dl, BYTE PTR [eax+12]
  000e3	84 d2		 test	 dl, dl
  000e5	0f 84 96 00 00
	00		 je	 $LN84@LoadInt_e@4
  000eb	80 f2 ed	 xor	 dl, -19			; ffffffedH
  000ee	88 55 f0	 mov	 BYTE PTR __k$[ebp+12], dl
  000f1	8a 50 0d	 mov	 dl, BYTE PTR [eax+13]
  000f4	84 d2		 test	 dl, dl
  000f6	0f 84 80 00 00
	00		 je	 $LN83@LoadInt_e@4
  000fc	32 d1		 xor	 dl, cl
  000fe	88 55 f1	 mov	 BYTE PTR __k$[ebp+13], dl
  00101	8a 50 0e	 mov	 dl, BYTE PTR [eax+14]
  00104	84 d2		 test	 dl, dl
  00106	74 6e		 je	 SHORT $LN82@LoadInt_e@4
  00108	80 f2 eb	 xor	 dl, -21			; ffffffebH
  0010b	88 55 f2	 mov	 BYTE PTR __k$[ebp+14], dl
  0010e	8a 50 0f	 mov	 dl, BYTE PTR [eax+15]
  00111	84 d2		 test	 dl, dl
  00113	74 5b		 je	 SHORT $LN81@LoadInt_e@4
  00115	80 f2 ea	 xor	 dl, -22			; ffffffeaH
  00118	80 78 10 00	 cmp	 BYTE PTR [eax+16], 0
  0011c	88 55 f3	 mov	 BYTE PTR __k$[ebp+15], dl
  0011f	0f 84 a6 00 00
	00		 je	 $LN1@LoadInt_e@4
  00125	8a 50 11	 mov	 dl, BYTE PTR [eax+17]
  00128	84 d2		 test	 dl, dl
  0012a	74 3f		 je	 SHORT $LN79@LoadInt_e@4
  0012c	32 d1		 xor	 dl, cl
  0012e	88 55 f5	 mov	 BYTE PTR __k$[ebp+17], dl
  00131	8a 50 12	 mov	 dl, BYTE PTR [eax+18]
  00134	84 d2		 test	 dl, dl
  00136	74 2d		 je	 SHORT $LN78@LoadInt_e@4
  00138	80 f2 eb	 xor	 dl, -21			; ffffffebH
  0013b	88 55 f6	 mov	 BYTE PTR __k$[ebp+18], dl
  0013e	8a 50 13	 mov	 dl, BYTE PTR [eax+19]
  00141	84 d2		 test	 dl, dl
  00143	74 1a		 je	 SHORT $LN77@LoadInt_e@4
  00145	8a 40 14	 mov	 al, BYTE PTR [eax+20]
  00148	80 f2 ea	 xor	 dl, -22			; ffffffeaH
  0014b	88 55 f7	 mov	 BYTE PTR __k$[ebp+19], dl
  0014e	84 c0		 test	 al, al
  00150	74 07		 je	 SHORT $LN76@LoadInt_e@4
  00152	34 ed		 xor	 al, -19			; ffffffedH
  00154	88 45 f8	 mov	 BYTE PTR __k$[ebp+20], al
  00157	eb 72		 jmp	 SHORT $LN1@LoadInt_e@4
$LN76@LoadInt_e@4:
  00159	c6 45 f8 ed	 mov	 BYTE PTR __k$[ebp+20], -19 ; ffffffedH
  0015d	eb 6c		 jmp	 SHORT $LN1@LoadInt_e@4
$LN77@LoadInt_e@4:
  0015f	c6 45 f7 ea	 mov	 BYTE PTR __k$[ebp+19], -22 ; ffffffeaH
  00163	eb 66		 jmp	 SHORT $LN1@LoadInt_e@4
$LN78@LoadInt_e@4:
  00165	c6 45 f6 eb	 mov	 BYTE PTR __k$[ebp+18], -21 ; ffffffebH
  00169	eb 60		 jmp	 SHORT $LN1@LoadInt_e@4
$LN79@LoadInt_e@4:
  0016b	88 4d f5	 mov	 BYTE PTR __k$[ebp+17], cl
  0016e	eb 5b		 jmp	 SHORT $LN1@LoadInt_e@4
$LN81@LoadInt_e@4:
  00170	c6 45 f3 ea	 mov	 BYTE PTR __k$[ebp+15], -22 ; ffffffeaH
  00174	eb 55		 jmp	 SHORT $LN1@LoadInt_e@4
$LN82@LoadInt_e@4:
  00176	c6 45 f2 eb	 mov	 BYTE PTR __k$[ebp+14], -21 ; ffffffebH
  0017a	eb 4f		 jmp	 SHORT $LN1@LoadInt_e@4
$LN83@LoadInt_e@4:
  0017c	88 4d f1	 mov	 BYTE PTR __k$[ebp+13], cl
  0017f	eb 4a		 jmp	 SHORT $LN1@LoadInt_e@4
$LN84@LoadInt_e@4:
  00181	c6 45 f0 ed	 mov	 BYTE PTR __k$[ebp+12], -19 ; ffffffedH
  00185	eb 44		 jmp	 SHORT $LN1@LoadInt_e@4
$LN85@LoadInt_e@4:
  00187	c6 45 ef ea	 mov	 BYTE PTR __k$[ebp+11], -22 ; ffffffeaH
  0018b	eb 3e		 jmp	 SHORT $LN1@LoadInt_e@4
$LN86@LoadInt_e@4:
  0018d	c6 45 ee eb	 mov	 BYTE PTR __k$[ebp+10], -21 ; ffffffebH
  00191	eb 38		 jmp	 SHORT $LN1@LoadInt_e@4
$LN87@LoadInt_e@4:
  00193	88 4d ed	 mov	 BYTE PTR __k$[ebp+9], cl
  00196	eb 33		 jmp	 SHORT $LN1@LoadInt_e@4
$LN88@LoadInt_e@4:
  00198	c6 45 ec ed	 mov	 BYTE PTR __k$[ebp+8], -19 ; ffffffedH
  0019c	eb 2d		 jmp	 SHORT $LN1@LoadInt_e@4
$LN89@LoadInt_e@4:
  0019e	c6 45 eb ea	 mov	 BYTE PTR __k$[ebp+7], -22 ; ffffffeaH
  001a2	eb 27		 jmp	 SHORT $LN1@LoadInt_e@4
$LN90@LoadInt_e@4:
  001a4	c6 45 ea eb	 mov	 BYTE PTR __k$[ebp+6], -21 ; ffffffebH
  001a8	eb 21		 jmp	 SHORT $LN1@LoadInt_e@4
$LN91@LoadInt_e@4:
  001aa	88 4d e9	 mov	 BYTE PTR __k$[ebp+5], cl
  001ad	eb 1c		 jmp	 SHORT $LN1@LoadInt_e@4
$LN92@LoadInt_e@4:
  001af	c6 45 e8 ed	 mov	 BYTE PTR __k$[ebp+4], -19 ; ffffffedH
  001b3	eb 16		 jmp	 SHORT $LN1@LoadInt_e@4
$LN93@LoadInt_e@4:
  001b5	c6 45 e7 ea	 mov	 BYTE PTR __k$[ebp+3], -22 ; ffffffeaH
  001b9	eb 10		 jmp	 SHORT $LN1@LoadInt_e@4
$LN94@LoadInt_e@4:
  001bb	c6 45 e6 eb	 mov	 BYTE PTR __k$[ebp+2], -21 ; ffffffebH
  001bf	eb 0a		 jmp	 SHORT $LN1@LoadInt_e@4
$LN95@LoadInt_e@4:
  001c1	c6 45 e5 ec	 mov	 BYTE PTR __k$[ebp+1], -20 ; ffffffecH
  001c5	eb 04		 jmp	 SHORT $LN1@LoadInt_e@4
$LN96@LoadInt_e@4:
  001c7	c6 45 e4 ed	 mov	 BYTE PTR __k$[ebp], -19	; ffffffedH
$LN1@LoadInt_e@4:
  001cb	6a 04		 push	 4
  001cd	8d 45 e4	 lea	 eax, DWORD PTR __k$[ebp]
  001d0	c6 45 f4 00	 mov	 BYTE PTR __k$[ebp+16], 0
  001d4	5a		 pop	 edx
$LL104@LoadInt_e@4:
  001d5	81 30 ed ec eb
	ea		 xor	 DWORD PTR [eax], -353637139 ; eaebecedH
  001db	83 c0 04	 add	 eax, 4
  001de	4a		 dec	 edx
  001df	75 f4		 jne	 SHORT $LL104@LoadInt_e@4

; 120  : 		return LoadInt(_k, i);

  001e1	ff 75 0c	 push	 DWORD PTR _i$[ebp]
  001e4	8d 45 e4	 lea	 eax, DWORD PTR __k$[ebp]
  001e7	50		 push	 eax
  001e8	8b ce		 mov	 ecx, esi
  001ea	ff 15 00 00 00
	00		 call	 DWORD PTR __imp_?LoadInt@ioINILoader@@QAEHPBDH@Z

; 121  : 	}

  001f0	8b 4d fc	 mov	 ecx, DWORD PTR __$ArrayPad$[ebp]
  001f3	33 cd		 xor	 ecx, ebp
  001f5	5e		 pop	 esi
  001f6	e8 00 00 00 00	 call	 @__security_check_cookie@4
  001fb	c9		 leave
  001fc	c2 08 00	 ret	 8
??$LoadInt_e@$0BB@@ioINILoader@@QAEHAAY0BB@$$CBDH@Z ENDP ; ioINILoader::LoadInt_e<17>
_TEXT	ENDS
PUBLIC	__$ArrayPad$
PUBLIC	??$LoadFloat_e@$0O@@ioINILoader@@QAEMAAY0O@$$CBDM@Z ; ioINILoader::LoadFloat_e<14>
; Function compile flags: /Ogsp
;	COMDAT ??$LoadFloat_e@$0O@@ioINILoader@@QAEMAAY0O@$$CBDM@Z
_TEXT	SEGMENT
__k$ = -24						; size = 14
__$ArrayPad$ = -4					; size = 4
_k$ = 8							; size = 4
_f$ = 12						; size = 4
??$LoadFloat_e@$0O@@ioINILoader@@QAEMAAY0O@$$CBDM@Z PROC ; ioINILoader::LoadFloat_e<14>, COMDAT
; _this$ = ecx

; 135  : 	{

  00000	55		 push	 ebp
  00001	8b ec		 mov	 ebp, esp
  00003	83 ec 18	 sub	 esp, 24			; 00000018H
  00006	a1 00 00 00 00	 mov	 eax, DWORD PTR ___security_cookie
  0000b	33 c5		 xor	 eax, ebp
  0000d	89 45 fc	 mov	 DWORD PTR __$ArrayPad$[ebp], eax
  00010	8b 45 08	 mov	 eax, DWORD PTR _k$[ebp]

; 136  : 		_ENCSTR(k, _k);

  00013	8a 10		 mov	 dl, BYTE PTR [eax]
  00015	56		 push	 esi
  00016	8b f1		 mov	 esi, ecx
  00018	84 d2		 test	 dl, dl
  0001a	0f 84 64 01 00
	00		 je	 $LN96@LoadFloat_@2
  00020	80 f2 ed	 xor	 dl, -19			; ffffffedH
  00023	88 55 e8	 mov	 BYTE PTR __k$[ebp], dl
  00026	8a 50 01	 mov	 dl, BYTE PTR [eax+1]
  00029	84 d2		 test	 dl, dl
  0002b	0f 84 4d 01 00
	00		 je	 $LN95@LoadFloat_@2
  00031	80 f2 ec	 xor	 dl, -20			; ffffffecH
  00034	88 55 e9	 mov	 BYTE PTR __k$[ebp+1], dl
  00037	8a 50 02	 mov	 dl, BYTE PTR [eax+2]
  0003a	84 d2		 test	 dl, dl
  0003c	0f 84 36 01 00
	00		 je	 $LN94@LoadFloat_@2
  00042	b1 eb		 mov	 cl, -21			; ffffffebH
  00044	32 d1		 xor	 dl, cl
  00046	88 55 ea	 mov	 BYTE PTR __k$[ebp+2], dl
  00049	8a 50 03	 mov	 dl, BYTE PTR [eax+3]
  0004c	84 d2		 test	 dl, dl
  0004e	0f 84 1e 01 00
	00		 je	 $LN93@LoadFloat_@2
  00054	80 f2 ea	 xor	 dl, -22			; ffffffeaH
  00057	88 55 eb	 mov	 BYTE PTR __k$[ebp+3], dl
  0005a	8a 50 04	 mov	 dl, BYTE PTR [eax+4]
  0005d	84 d2		 test	 dl, dl
  0005f	0f 84 07 01 00
	00		 je	 $LN92@LoadFloat_@2
  00065	80 f2 ed	 xor	 dl, -19			; ffffffedH
  00068	88 55 ec	 mov	 BYTE PTR __k$[ebp+4], dl
  0006b	8a 50 05	 mov	 dl, BYTE PTR [eax+5]
  0006e	84 d2		 test	 dl, dl
  00070	0f 84 f0 00 00
	00		 je	 $LN91@LoadFloat_@2
  00076	80 f2 ec	 xor	 dl, -20			; ffffffecH
  00079	88 55 ed	 mov	 BYTE PTR __k$[ebp+5], dl
  0007c	8a 50 06	 mov	 dl, BYTE PTR [eax+6]
  0007f	84 d2		 test	 dl, dl
  00081	0f 84 da 00 00
	00		 je	 $LN90@LoadFloat_@2
  00087	32 d1		 xor	 dl, cl
  00089	88 55 ee	 mov	 BYTE PTR __k$[ebp+6], dl
  0008c	8a 50 07	 mov	 dl, BYTE PTR [eax+7]
  0008f	84 d2		 test	 dl, dl
  00091	0f 84 c4 00 00
	00		 je	 $LN89@LoadFloat_@2
  00097	80 f2 ea	 xor	 dl, -22			; ffffffeaH
  0009a	88 55 ef	 mov	 BYTE PTR __k$[ebp+7], dl
  0009d	8a 50 08	 mov	 dl, BYTE PTR [eax+8]
  000a0	84 d2		 test	 dl, dl
  000a2	0f 84 ad 00 00
	00		 je	 $LN88@LoadFloat_@2
  000a8	80 f2 ed	 xor	 dl, -19			; ffffffedH
  000ab	88 55 f0	 mov	 BYTE PTR __k$[ebp+8], dl
  000ae	8a 50 09	 mov	 dl, BYTE PTR [eax+9]
  000b1	84 d2		 test	 dl, dl
  000b3	0f 84 96 00 00
	00		 je	 $LN87@LoadFloat_@2
  000b9	80 f2 ec	 xor	 dl, -20			; ffffffecH
  000bc	88 55 f1	 mov	 BYTE PTR __k$[ebp+9], dl
  000bf	8a 50 0a	 mov	 dl, BYTE PTR [eax+10]
  000c2	84 d2		 test	 dl, dl
  000c4	0f 84 80 00 00
	00		 je	 $LN86@LoadFloat_@2
  000ca	32 d1		 xor	 dl, cl
  000cc	88 55 f2	 mov	 BYTE PTR __k$[ebp+10], dl
  000cf	8a 50 0b	 mov	 dl, BYTE PTR [eax+11]
  000d2	84 d2		 test	 dl, dl
  000d4	74 6e		 je	 SHORT $LN85@LoadFloat_@2
  000d6	80 f2 ea	 xor	 dl, -22			; ffffffeaH
  000d9	88 55 f3	 mov	 BYTE PTR __k$[ebp+11], dl
  000dc	8a 50 0c	 mov	 dl, BYTE PTR [eax+12]
  000df	84 d2		 test	 dl, dl
  000e1	74 5b		 je	 SHORT $LN84@LoadFloat_@2
  000e3	80 f2 ed	 xor	 dl, -19			; ffffffedH
  000e6	80 78 0d 00	 cmp	 BYTE PTR [eax+13], 0
  000ea	88 55 f4	 mov	 BYTE PTR __k$[ebp+12], dl
  000ed	0f 84 95 00 00
	00		 je	 $LN1@LoadFloat_@2
  000f3	8a 50 0e	 mov	 dl, BYTE PTR [eax+14]
  000f6	84 d2		 test	 dl, dl
  000f8	74 3f		 je	 SHORT $LN82@LoadFloat_@2
  000fa	32 d1		 xor	 dl, cl
  000fc	88 55 f6	 mov	 BYTE PTR __k$[ebp+14], dl
  000ff	8a 50 0f	 mov	 dl, BYTE PTR [eax+15]
  00102	84 d2		 test	 dl, dl
  00104	74 2d		 je	 SHORT $LN81@LoadFloat_@2
  00106	80 f2 ea	 xor	 dl, -22			; ffffffeaH
  00109	88 55 f7	 mov	 BYTE PTR __k$[ebp+15], dl
  0010c	8a 50 10	 mov	 dl, BYTE PTR [eax+16]
  0010f	84 d2		 test	 dl, dl
  00111	74 1a		 je	 SHORT $LN80@LoadFloat_@2
  00113	8a 40 11	 mov	 al, BYTE PTR [eax+17]
  00116	80 f2 ed	 xor	 dl, -19			; ffffffedH
  00119	88 55 f8	 mov	 BYTE PTR __k$[ebp+16], dl
  0011c	84 c0		 test	 al, al
  0011e	74 07		 je	 SHORT $LN79@LoadFloat_@2
  00120	34 ec		 xor	 al, -20			; ffffffecH
  00122	88 45 f9	 mov	 BYTE PTR __k$[ebp+17], al
  00125	eb 61		 jmp	 SHORT $LN1@LoadFloat_@2
$LN79@LoadFloat_@2:
  00127	c6 45 f9 ec	 mov	 BYTE PTR __k$[ebp+17], -20 ; ffffffecH
  0012b	eb 5b		 jmp	 SHORT $LN1@LoadFloat_@2
$LN80@LoadFloat_@2:
  0012d	c6 45 f8 ed	 mov	 BYTE PTR __k$[ebp+16], -19 ; ffffffedH
  00131	eb 55		 jmp	 SHORT $LN1@LoadFloat_@2
$LN81@LoadFloat_@2:
  00133	c6 45 f7 ea	 mov	 BYTE PTR __k$[ebp+15], -22 ; ffffffeaH
  00137	eb 4f		 jmp	 SHORT $LN1@LoadFloat_@2
$LN82@LoadFloat_@2:
  00139	88 4d f6	 mov	 BYTE PTR __k$[ebp+14], cl
  0013c	eb 4a		 jmp	 SHORT $LN1@LoadFloat_@2
$LN84@LoadFloat_@2:
  0013e	c6 45 f4 ed	 mov	 BYTE PTR __k$[ebp+12], -19 ; ffffffedH
  00142	eb 44		 jmp	 SHORT $LN1@LoadFloat_@2
$LN85@LoadFloat_@2:
  00144	c6 45 f3 ea	 mov	 BYTE PTR __k$[ebp+11], -22 ; ffffffeaH
  00148	eb 3e		 jmp	 SHORT $LN1@LoadFloat_@2
$LN86@LoadFloat_@2:
  0014a	88 4d f2	 mov	 BYTE PTR __k$[ebp+10], cl
  0014d	eb 39		 jmp	 SHORT $LN1@LoadFloat_@2
$LN87@LoadFloat_@2:
  0014f	c6 45 f1 ec	 mov	 BYTE PTR __k$[ebp+9], -20 ; ffffffecH
  00153	eb 33		 jmp	 SHORT $LN1@LoadFloat_@2
$LN88@LoadFloat_@2:
  00155	c6 45 f0 ed	 mov	 BYTE PTR __k$[ebp+8], -19 ; ffffffedH
  00159	eb 2d		 jmp	 SHORT $LN1@LoadFloat_@2
$LN89@LoadFloat_@2:
  0015b	c6 45 ef ea	 mov	 BYTE PTR __k$[ebp+7], -22 ; ffffffeaH
  0015f	eb 27		 jmp	 SHORT $LN1@LoadFloat_@2
$LN90@LoadFloat_@2:
  00161	88 4d ee	 mov	 BYTE PTR __k$[ebp+6], cl
  00164	eb 22		 jmp	 SHORT $LN1@LoadFloat_@2
$LN91@LoadFloat_@2:
  00166	c6 45 ed ec	 mov	 BYTE PTR __k$[ebp+5], -20 ; ffffffecH
  0016a	eb 1c		 jmp	 SHORT $LN1@LoadFloat_@2
$LN92@LoadFloat_@2:
  0016c	c6 45 ec ed	 mov	 BYTE PTR __k$[ebp+4], -19 ; ffffffedH
  00170	eb 16		 jmp	 SHORT $LN1@LoadFloat_@2
$LN93@LoadFloat_@2:
  00172	c6 45 eb ea	 mov	 BYTE PTR __k$[ebp+3], -22 ; ffffffeaH
  00176	eb 10		 jmp	 SHORT $LN1@LoadFloat_@2
$LN94@LoadFloat_@2:
  00178	c6 45 ea eb	 mov	 BYTE PTR __k$[ebp+2], -21 ; ffffffebH
  0017c	eb 0a		 jmp	 SHORT $LN1@LoadFloat_@2
$LN95@LoadFloat_@2:
  0017e	c6 45 e9 ec	 mov	 BYTE PTR __k$[ebp+1], -20 ; ffffffecH
  00182	eb 04		 jmp	 SHORT $LN1@LoadFloat_@2
$LN96@LoadFloat_@2:
  00184	c6 45 e8 ed	 mov	 BYTE PTR __k$[ebp], -19	; ffffffedH
$LN1@LoadFloat_@2:
  00188	6a 03		 push	 3
  0018a	8d 45 e8	 lea	 eax, DWORD PTR __k$[ebp]
  0018d	c6 45 f5 00	 mov	 BYTE PTR __k$[ebp+13], 0
  00191	5a		 pop	 edx
$LL104@LoadFloat_@2:
  00192	81 30 ed ec eb
	ea		 xor	 DWORD PTR [eax], -353637139 ; eaebecedH
  00198	83 c0 04	 add	 eax, 4
  0019b	4a		 dec	 edx
  0019c	75 f4		 jne	 SHORT $LL104@LoadFloat_@2

; 137  : 		return LoadFloat(_k, f);

  0019e	f3 0f 10 45 0c	 movss	 xmm0, DWORD PTR _f$[ebp]
  001a3	80 75 f4 ed	 xor	 BYTE PTR __k$[ebp+12], -19 ; ffffffedH
  001a7	51		 push	 ecx
  001a8	8d 45 e8	 lea	 eax, DWORD PTR __k$[ebp]
  001ab	f3 0f 11 04 24	 movss	 DWORD PTR [esp], xmm0
  001b0	50		 push	 eax
  001b1	8b ce		 mov	 ecx, esi
  001b3	ff 15 00 00 00
	00		 call	 DWORD PTR __imp_?LoadFloat@ioINILoader@@QAEMPBDM@Z

; 138  : 	}

  001b9	8b 4d fc	 mov	 ecx, DWORD PTR __$ArrayPad$[ebp]
  001bc	33 cd		 xor	 ecx, ebp
  001be	5e		 pop	 esi
  001bf	e8 00 00 00 00	 call	 @__security_check_cookie@4
  001c4	c9		 leave
  001c5	c2 08 00	 ret	 8
??$LoadFloat_e@$0O@@ioINILoader@@QAEMAAY0O@$$CBDM@Z ENDP ; ioINILoader::LoadFloat_e<14>
_TEXT	ENDS
PUBLIC	__$ArrayPad$
PUBLIC	??$LoadFloat_e@$0M@@ioINILoader@@QAEMAAY0M@$$CBDM@Z ; ioINILoader::LoadFloat_e<12>
; Function compile flags: /Ogsp
;	COMDAT ??$LoadFloat_e@$0M@@ioINILoader@@QAEMAAY0M@$$CBDM@Z
_TEXT	SEGMENT
__k$ = -20						; size = 12
__$ArrayPad$ = -4					; size = 4
_k$ = 8							; size = 4
_f$ = 12						; size = 4
??$LoadFloat_e@$0M@@ioINILoader@@QAEMAAY0M@$$CBDM@Z PROC ; ioINILoader::LoadFloat_e<12>, COMDAT
; _this$ = ecx

; 135  : 	{

  00000	55		 push	 ebp
  00001	8b ec		 mov	 ebp, esp
  00003	83 ec 14	 sub	 esp, 20			; 00000014H
  00006	a1 00 00 00 00	 mov	 eax, DWORD PTR ___security_cookie
  0000b	33 c5		 xor	 eax, ebp
  0000d	89 45 fc	 mov	 DWORD PTR __$ArrayPad$[ebp], eax
  00010	8b 45 08	 mov	 eax, DWORD PTR _k$[ebp]

; 136  : 		_ENCSTR(k, _k);

  00013	8a 10		 mov	 dl, BYTE PTR [eax]
  00015	56		 push	 esi
  00016	8b f1		 mov	 esi, ecx
  00018	84 d2		 test	 dl, dl
  0001a	0f 84 32 01 00
	00		 je	 $LN96@LoadFloat_@3
  00020	80 f2 ed	 xor	 dl, -19			; ffffffedH
  00023	88 55 ec	 mov	 BYTE PTR __k$[ebp], dl
  00026	8a 50 01	 mov	 dl, BYTE PTR [eax+1]
  00029	84 d2		 test	 dl, dl
  0002b	0f 84 1b 01 00
	00		 je	 $LN95@LoadFloat_@3
  00031	80 f2 ec	 xor	 dl, -20			; ffffffecH
  00034	88 55 ed	 mov	 BYTE PTR __k$[ebp+1], dl
  00037	8a 50 02	 mov	 dl, BYTE PTR [eax+2]
  0003a	84 d2		 test	 dl, dl
  0003c	0f 84 04 01 00
	00		 je	 $LN94@LoadFloat_@3
  00042	b1 eb		 mov	 cl, -21			; ffffffebH
  00044	32 d1		 xor	 dl, cl
  00046	88 55 ee	 mov	 BYTE PTR __k$[ebp+2], dl
  00049	8a 50 03	 mov	 dl, BYTE PTR [eax+3]
  0004c	84 d2		 test	 dl, dl
  0004e	0f 84 ec 00 00
	00		 je	 $LN93@LoadFloat_@3
  00054	80 f2 ea	 xor	 dl, -22			; ffffffeaH
  00057	88 55 ef	 mov	 BYTE PTR __k$[ebp+3], dl
  0005a	8a 50 04	 mov	 dl, BYTE PTR [eax+4]
  0005d	84 d2		 test	 dl, dl
  0005f	0f 84 d5 00 00
	00		 je	 $LN92@LoadFloat_@3
  00065	80 f2 ed	 xor	 dl, -19			; ffffffedH
  00068	88 55 f0	 mov	 BYTE PTR __k$[ebp+4], dl
  0006b	8a 50 05	 mov	 dl, BYTE PTR [eax+5]
  0006e	84 d2		 test	 dl, dl
  00070	0f 84 be 00 00
	00		 je	 $LN91@LoadFloat_@3
  00076	80 f2 ec	 xor	 dl, -20			; ffffffecH
  00079	88 55 f1	 mov	 BYTE PTR __k$[ebp+5], dl
  0007c	8a 50 06	 mov	 dl, BYTE PTR [eax+6]
  0007f	84 d2		 test	 dl, dl
  00081	0f 84 a8 00 00
	00		 je	 $LN90@LoadFloat_@3
  00087	32 d1		 xor	 dl, cl
  00089	88 55 f2	 mov	 BYTE PTR __k$[ebp+6], dl
  0008c	8a 50 07	 mov	 dl, BYTE PTR [eax+7]
  0008f	84 d2		 test	 dl, dl
  00091	0f 84 92 00 00
	00		 je	 $LN89@LoadFloat_@3
  00097	80 f2 ea	 xor	 dl, -22			; ffffffeaH
  0009a	88 55 f3	 mov	 BYTE PTR __k$[ebp+7], dl
  0009d	8a 50 08	 mov	 dl, BYTE PTR [eax+8]
  000a0	84 d2		 test	 dl, dl
  000a2	74 7f		 je	 SHORT $LN88@LoadFloat_@3
  000a4	80 f2 ed	 xor	 dl, -19			; ffffffedH
  000a7	88 55 f4	 mov	 BYTE PTR __k$[ebp+8], dl
  000aa	8a 50 09	 mov	 dl, BYTE PTR [eax+9]
  000ad	84 d2		 test	 dl, dl
  000af	74 6c		 je	 SHORT $LN87@LoadFloat_@3
  000b1	80 f2 ec	 xor	 dl, -20			; ffffffecH
  000b4	88 55 f5	 mov	 BYTE PTR __k$[ebp+9], dl
  000b7	8a 50 0a	 mov	 dl, BYTE PTR [eax+10]
  000ba	84 d2		 test	 dl, dl
  000bc	74 5a		 je	 SHORT $LN86@LoadFloat_@3
  000be	32 d1		 xor	 dl, cl
  000c0	80 78 0b 00	 cmp	 BYTE PTR [eax+11], 0
  000c4	88 55 f6	 mov	 BYTE PTR __k$[ebp+10], dl
  000c7	0f 84 89 00 00
	00		 je	 $LN1@LoadFloat_@3
  000cd	8a 50 0c	 mov	 dl, BYTE PTR [eax+12]
  000d0	84 d2		 test	 dl, dl
  000d2	74 3e		 je	 SHORT $LN84@LoadFloat_@3
  000d4	80 f2 ed	 xor	 dl, -19			; ffffffedH
  000d7	88 55 f8	 mov	 BYTE PTR __k$[ebp+12], dl
  000da	8a 50 0d	 mov	 dl, BYTE PTR [eax+13]
  000dd	84 d2		 test	 dl, dl
  000df	74 2b		 je	 SHORT $LN83@LoadFloat_@3
  000e1	80 f2 ec	 xor	 dl, -20			; ffffffecH
  000e4	88 55 f9	 mov	 BYTE PTR __k$[ebp+13], dl
  000e7	8a 50 0e	 mov	 dl, BYTE PTR [eax+14]
  000ea	84 d2		 test	 dl, dl
  000ec	74 19		 je	 SHORT $LN82@LoadFloat_@3
  000ee	8a 40 0f	 mov	 al, BYTE PTR [eax+15]
  000f1	32 d1		 xor	 dl, cl
  000f3	88 55 fa	 mov	 BYTE PTR __k$[ebp+14], dl
  000f6	84 c0		 test	 al, al
  000f8	74 07		 je	 SHORT $LN81@LoadFloat_@3
  000fa	34 ea		 xor	 al, -22			; ffffffeaH
  000fc	88 45 fb	 mov	 BYTE PTR __k$[ebp+15], al
  000ff	eb 55		 jmp	 SHORT $LN1@LoadFloat_@3
$LN81@LoadFloat_@3:
  00101	c6 45 fb ea	 mov	 BYTE PTR __k$[ebp+15], -22 ; ffffffeaH
  00105	eb 4f		 jmp	 SHORT $LN1@LoadFloat_@3
$LN82@LoadFloat_@3:
  00107	88 4d fa	 mov	 BYTE PTR __k$[ebp+14], cl
  0010a	eb 4a		 jmp	 SHORT $LN1@LoadFloat_@3
$LN83@LoadFloat_@3:
  0010c	c6 45 f9 ec	 mov	 BYTE PTR __k$[ebp+13], -20 ; ffffffecH
  00110	eb 44		 jmp	 SHORT $LN1@LoadFloat_@3
$LN84@LoadFloat_@3:
  00112	c6 45 f8 ed	 mov	 BYTE PTR __k$[ebp+12], -19 ; ffffffedH
  00116	eb 3e		 jmp	 SHORT $LN1@LoadFloat_@3
$LN86@LoadFloat_@3:
  00118	88 4d f6	 mov	 BYTE PTR __k$[ebp+10], cl
  0011b	eb 39		 jmp	 SHORT $LN1@LoadFloat_@3
$LN87@LoadFloat_@3:
  0011d	c6 45 f5 ec	 mov	 BYTE PTR __k$[ebp+9], -20 ; ffffffecH
  00121	eb 33		 jmp	 SHORT $LN1@LoadFloat_@3
$LN88@LoadFloat_@3:
  00123	c6 45 f4 ed	 mov	 BYTE PTR __k$[ebp+8], -19 ; ffffffedH
  00127	eb 2d		 jmp	 SHORT $LN1@LoadFloat_@3
$LN89@LoadFloat_@3:
  00129	c6 45 f3 ea	 mov	 BYTE PTR __k$[ebp+7], -22 ; ffffffeaH
  0012d	eb 27		 jmp	 SHORT $LN1@LoadFloat_@3
$LN90@LoadFloat_@3:
  0012f	88 4d f2	 mov	 BYTE PTR __k$[ebp+6], cl
  00132	eb 22		 jmp	 SHORT $LN1@LoadFloat_@3
$LN91@LoadFloat_@3:
  00134	c6 45 f1 ec	 mov	 BYTE PTR __k$[ebp+5], -20 ; ffffffecH
  00138	eb 1c		 jmp	 SHORT $LN1@LoadFloat_@3
$LN92@LoadFloat_@3:
  0013a	c6 45 f0 ed	 mov	 BYTE PTR __k$[ebp+4], -19 ; ffffffedH
  0013e	eb 16		 jmp	 SHORT $LN1@LoadFloat_@3
$LN93@LoadFloat_@3:
  00140	c6 45 ef ea	 mov	 BYTE PTR __k$[ebp+3], -22 ; ffffffeaH
  00144	eb 10		 jmp	 SHORT $LN1@LoadFloat_@3
$LN94@LoadFloat_@3:
  00146	c6 45 ee eb	 mov	 BYTE PTR __k$[ebp+2], -21 ; ffffffebH
  0014a	eb 0a		 jmp	 SHORT $LN1@LoadFloat_@3
$LN95@LoadFloat_@3:
  0014c	c6 45 ed ec	 mov	 BYTE PTR __k$[ebp+1], -20 ; ffffffecH
  00150	eb 04		 jmp	 SHORT $LN1@LoadFloat_@3
$LN96@LoadFloat_@3:
  00152	c6 45 ec ed	 mov	 BYTE PTR __k$[ebp], -19	; ffffffedH
$LN1@LoadFloat_@3:
  00156	6a 02		 push	 2
  00158	8d 45 ec	 lea	 eax, DWORD PTR __k$[ebp]
  0015b	c6 45 f7 00	 mov	 BYTE PTR __k$[ebp+11], 0
  0015f	5a		 pop	 edx
$LL104@LoadFloat_@3:
  00160	81 30 ed ec eb
	ea		 xor	 DWORD PTR [eax], -353637139 ; eaebecedH
  00166	83 c0 04	 add	 eax, 4
  00169	4a		 dec	 edx
  0016a	75 f4		 jne	 SHORT $LL104@LoadFloat_@3
  0016c	6a 08		 push	 8
  0016e	58		 pop	 eax
$LL101@LoadFloat_@3:
  0016f	8b c8		 mov	 ecx, eax
  00171	81 e1 03 00 00
	80		 and	 ecx, -2147483645	; 80000003H
  00177	79 05		 jns	 SHORT $LN111@LoadFloat_@3
  00179	49		 dec	 ecx
  0017a	83 c9 fc	 or	 ecx, -4			; fffffffcH
  0017d	41		 inc	 ecx
$LN111@LoadFloat_@3:
  0017e	b2 ed		 mov	 dl, -19			; ffffffedH
  00180	2a d1		 sub	 dl, cl
  00182	30 54 05 ec	 xor	 BYTE PTR __k$[ebp+eax], dl
  00186	40		 inc	 eax
  00187	83 f8 0b	 cmp	 eax, 11			; 0000000bH
  0018a	7c e3		 jl	 SHORT $LL101@LoadFloat_@3

; 137  : 		return LoadFloat(_k, f);

  0018c	f3 0f 10 45 0c	 movss	 xmm0, DWORD PTR _f$[ebp]
  00191	51		 push	 ecx
  00192	8d 45 ec	 lea	 eax, DWORD PTR __k$[ebp]
  00195	f3 0f 11 04 24	 movss	 DWORD PTR [esp], xmm0
  0019a	50		 push	 eax
  0019b	8b ce		 mov	 ecx, esi
  0019d	ff 15 00 00 00
	00		 call	 DWORD PTR __imp_?LoadFloat@ioINILoader@@QAEMPBDM@Z

; 138  : 	}

  001a3	8b 4d fc	 mov	 ecx, DWORD PTR __$ArrayPad$[ebp]
  001a6	33 cd		 xor	 ecx, ebp
  001a8	5e		 pop	 esi
  001a9	e8 00 00 00 00	 call	 @__security_check_cookie@4
  001ae	c9		 leave
  001af	c2 08 00	 ret	 8
??$LoadFloat_e@$0M@@ioINILoader@@QAEMAAY0M@$$CBDM@Z ENDP ; ioINILoader::LoadFloat_e<12>
_TEXT	ENDS
PUBLIC	__$ArrayPad$
PUBLIC	??$LoadFloat_e@$0BD@@ioINILoader@@QAEMAAY0BD@$$CBDM@Z ; ioINILoader::LoadFloat_e<19>
; Function compile flags: /Ogsp
;	COMDAT ??$LoadFloat_e@$0BD@@ioINILoader@@QAEMAAY0BD@$$CBDM@Z
_TEXT	SEGMENT
__k$ = -28						; size = 19
__$ArrayPad$ = -4					; size = 4
_k$ = 8							; size = 4
_f$ = 12						; size = 4
??$LoadFloat_e@$0BD@@ioINILoader@@QAEMAAY0BD@$$CBDM@Z PROC ; ioINILoader::LoadFloat_e<19>, COMDAT
; _this$ = ecx

; 135  : 	{

  00000	55		 push	 ebp
  00001	8b ec		 mov	 ebp, esp
  00003	83 ec 1c	 sub	 esp, 28			; 0000001cH
  00006	a1 00 00 00 00	 mov	 eax, DWORD PTR ___security_cookie
  0000b	33 c5		 xor	 eax, ebp
  0000d	89 45 fc	 mov	 DWORD PTR __$ArrayPad$[ebp], eax
  00010	8b 45 08	 mov	 eax, DWORD PTR _k$[ebp]

; 136  : 		_ENCSTR(k, _k);

  00013	8a 10		 mov	 dl, BYTE PTR [eax]
  00015	56		 push	 esi
  00016	8b f1		 mov	 esi, ecx
  00018	84 d2		 test	 dl, dl
  0001a	0f 84 cf 01 00
	00		 je	 $LN96@LoadFloat_@4
  00020	80 f2 ed	 xor	 dl, -19			; ffffffedH
  00023	88 55 e4	 mov	 BYTE PTR __k$[ebp], dl
  00026	8a 50 01	 mov	 dl, BYTE PTR [eax+1]
  00029	84 d2		 test	 dl, dl
  0002b	0f 84 b8 01 00
	00		 je	 $LN95@LoadFloat_@4
  00031	b1 ec		 mov	 cl, -20			; ffffffecH
  00033	32 d1		 xor	 dl, cl
  00035	88 55 e5	 mov	 BYTE PTR __k$[ebp+1], dl
  00038	8a 50 02	 mov	 dl, BYTE PTR [eax+2]
  0003b	84 d2		 test	 dl, dl
  0003d	0f 84 a0 01 00
	00		 je	 $LN94@LoadFloat_@4
  00043	80 f2 eb	 xor	 dl, -21			; ffffffebH
  00046	88 55 e6	 mov	 BYTE PTR __k$[ebp+2], dl
  00049	8a 50 03	 mov	 dl, BYTE PTR [eax+3]
  0004c	84 d2		 test	 dl, dl
  0004e	0f 84 89 01 00
	00		 je	 $LN93@LoadFloat_@4
  00054	80 f2 ea	 xor	 dl, -22			; ffffffeaH
  00057	88 55 e7	 mov	 BYTE PTR __k$[ebp+3], dl
  0005a	8a 50 04	 mov	 dl, BYTE PTR [eax+4]
  0005d	84 d2		 test	 dl, dl
  0005f	0f 84 72 01 00
	00		 je	 $LN92@LoadFloat_@4
  00065	80 f2 ed	 xor	 dl, -19			; ffffffedH
  00068	88 55 e8	 mov	 BYTE PTR __k$[ebp+4], dl
  0006b	8a 50 05	 mov	 dl, BYTE PTR [eax+5]
  0006e	84 d2		 test	 dl, dl
  00070	0f 84 5c 01 00
	00		 je	 $LN91@LoadFloat_@4
  00076	32 d1		 xor	 dl, cl
  00078	88 55 e9	 mov	 BYTE PTR __k$[ebp+5], dl
  0007b	8a 50 06	 mov	 dl, BYTE PTR [eax+6]
  0007e	84 d2		 test	 dl, dl
  00080	0f 84 46 01 00
	00		 je	 $LN90@LoadFloat_@4
  00086	80 f2 eb	 xor	 dl, -21			; ffffffebH
  00089	88 55 ea	 mov	 BYTE PTR __k$[ebp+6], dl
  0008c	8a 50 07	 mov	 dl, BYTE PTR [eax+7]
  0008f	84 d2		 test	 dl, dl
  00091	0f 84 2f 01 00
	00		 je	 $LN89@LoadFloat_@4
  00097	80 f2 ea	 xor	 dl, -22			; ffffffeaH
  0009a	88 55 eb	 mov	 BYTE PTR __k$[ebp+7], dl
  0009d	8a 50 08	 mov	 dl, BYTE PTR [eax+8]
  000a0	84 d2		 test	 dl, dl
  000a2	0f 84 18 01 00
	00		 je	 $LN88@LoadFloat_@4
  000a8	80 f2 ed	 xor	 dl, -19			; ffffffedH
  000ab	88 55 ec	 mov	 BYTE PTR __k$[ebp+8], dl
  000ae	8a 50 09	 mov	 dl, BYTE PTR [eax+9]
  000b1	84 d2		 test	 dl, dl
  000b3	0f 84 02 01 00
	00		 je	 $LN87@LoadFloat_@4
  000b9	32 d1		 xor	 dl, cl
  000bb	88 55 ed	 mov	 BYTE PTR __k$[ebp+9], dl
  000be	8a 50 0a	 mov	 dl, BYTE PTR [eax+10]
  000c1	84 d2		 test	 dl, dl
  000c3	0f 84 ec 00 00
	00		 je	 $LN86@LoadFloat_@4
  000c9	80 f2 eb	 xor	 dl, -21			; ffffffebH
  000cc	88 55 ee	 mov	 BYTE PTR __k$[ebp+10], dl
  000cf	8a 50 0b	 mov	 dl, BYTE PTR [eax+11]
  000d2	84 d2		 test	 dl, dl
  000d4	0f 84 d5 00 00
	00		 je	 $LN85@LoadFloat_@4
  000da	80 f2 ea	 xor	 dl, -22			; ffffffeaH
  000dd	88 55 ef	 mov	 BYTE PTR __k$[ebp+11], dl
  000e0	8a 50 0c	 mov	 dl, BYTE PTR [eax+12]
  000e3	84 d2		 test	 dl, dl
  000e5	0f 84 be 00 00
	00		 je	 $LN84@LoadFloat_@4
  000eb	80 f2 ed	 xor	 dl, -19			; ffffffedH
  000ee	88 55 f0	 mov	 BYTE PTR __k$[ebp+12], dl
  000f1	8a 50 0d	 mov	 dl, BYTE PTR [eax+13]
  000f4	84 d2		 test	 dl, dl
  000f6	0f 84 a8 00 00
	00		 je	 $LN83@LoadFloat_@4
  000fc	32 d1		 xor	 dl, cl
  000fe	88 55 f1	 mov	 BYTE PTR __k$[ebp+13], dl
  00101	8a 50 0e	 mov	 dl, BYTE PTR [eax+14]
  00104	84 d2		 test	 dl, dl
  00106	0f 84 92 00 00
	00		 je	 $LN82@LoadFloat_@4
  0010c	80 f2 eb	 xor	 dl, -21			; ffffffebH
  0010f	88 55 f2	 mov	 BYTE PTR __k$[ebp+14], dl
  00112	8a 50 0f	 mov	 dl, BYTE PTR [eax+15]
  00115	84 d2		 test	 dl, dl
  00117	74 7f		 je	 SHORT $LN81@LoadFloat_@4
  00119	80 f2 ea	 xor	 dl, -22			; ffffffeaH
  0011c	88 55 f3	 mov	 BYTE PTR __k$[ebp+15], dl
  0011f	8a 50 10	 mov	 dl, BYTE PTR [eax+16]
  00122	84 d2		 test	 dl, dl
  00124	74 6c		 je	 SHORT $LN80@LoadFloat_@4
  00126	80 f2 ed	 xor	 dl, -19			; ffffffedH
  00129	88 55 f4	 mov	 BYTE PTR __k$[ebp+16], dl
  0012c	8a 50 11	 mov	 dl, BYTE PTR [eax+17]
  0012f	84 d2		 test	 dl, dl
  00131	74 5a		 je	 SHORT $LN79@LoadFloat_@4
  00133	32 d1		 xor	 dl, cl
  00135	80 78 12 00	 cmp	 BYTE PTR [eax+18], 0
  00139	88 55 f5	 mov	 BYTE PTR __k$[ebp+17], dl
  0013c	0f 84 b1 00 00
	00		 je	 $LN1@LoadFloat_@4
  00142	8a 50 13	 mov	 dl, BYTE PTR [eax+19]
  00145	84 d2		 test	 dl, dl
  00147	74 3e		 je	 SHORT $LN77@LoadFloat_@4
  00149	80 f2 ea	 xor	 dl, -22			; ffffffeaH
  0014c	88 55 f7	 mov	 BYTE PTR __k$[ebp+19], dl
  0014f	8a 50 14	 mov	 dl, BYTE PTR [eax+20]
  00152	84 d2		 test	 dl, dl
  00154	74 2b		 je	 SHORT $LN76@LoadFloat_@4
  00156	80 f2 ed	 xor	 dl, -19			; ffffffedH
  00159	88 55 f8	 mov	 BYTE PTR __k$[ebp+20], dl
  0015c	8a 50 15	 mov	 dl, BYTE PTR [eax+21]
  0015f	84 d2		 test	 dl, dl
  00161	74 19		 je	 SHORT $LN75@LoadFloat_@4
  00163	8a 40 16	 mov	 al, BYTE PTR [eax+22]
  00166	32 d1		 xor	 dl, cl
  00168	88 55 f9	 mov	 BYTE PTR __k$[ebp+21], dl
  0016b	84 c0		 test	 al, al
  0016d	74 07		 je	 SHORT $LN74@LoadFloat_@4
  0016f	34 eb		 xor	 al, -21			; ffffffebH
  00171	88 45 fa	 mov	 BYTE PTR __k$[ebp+22], al
  00174	eb 7d		 jmp	 SHORT $LN1@LoadFloat_@4
$LN74@LoadFloat_@4:
  00176	c6 45 fa eb	 mov	 BYTE PTR __k$[ebp+22], -21 ; ffffffebH
  0017a	eb 77		 jmp	 SHORT $LN1@LoadFloat_@4
$LN75@LoadFloat_@4:
  0017c	88 4d f9	 mov	 BYTE PTR __k$[ebp+21], cl
  0017f	eb 72		 jmp	 SHORT $LN1@LoadFloat_@4
$LN76@LoadFloat_@4:
  00181	c6 45 f8 ed	 mov	 BYTE PTR __k$[ebp+20], -19 ; ffffffedH
  00185	eb 6c		 jmp	 SHORT $LN1@LoadFloat_@4
$LN77@LoadFloat_@4:
  00187	c6 45 f7 ea	 mov	 BYTE PTR __k$[ebp+19], -22 ; ffffffeaH
  0018b	eb 66		 jmp	 SHORT $LN1@LoadFloat_@4
$LN79@LoadFloat_@4:
  0018d	88 4d f5	 mov	 BYTE PTR __k$[ebp+17], cl
  00190	eb 61		 jmp	 SHORT $LN1@LoadFloat_@4
$LN80@LoadFloat_@4:
  00192	c6 45 f4 ed	 mov	 BYTE PTR __k$[ebp+16], -19 ; ffffffedH
  00196	eb 5b		 jmp	 SHORT $LN1@LoadFloat_@4
$LN81@LoadFloat_@4:
  00198	c6 45 f3 ea	 mov	 BYTE PTR __k$[ebp+15], -22 ; ffffffeaH
  0019c	eb 55		 jmp	 SHORT $LN1@LoadFloat_@4
$LN82@LoadFloat_@4:
  0019e	c6 45 f2 eb	 mov	 BYTE PTR __k$[ebp+14], -21 ; ffffffebH
  001a2	eb 4f		 jmp	 SHORT $LN1@LoadFloat_@4
$LN83@LoadFloat_@4:
  001a4	88 4d f1	 mov	 BYTE PTR __k$[ebp+13], cl
  001a7	eb 4a		 jmp	 SHORT $LN1@LoadFloat_@4
$LN84@LoadFloat_@4:
  001a9	c6 45 f0 ed	 mov	 BYTE PTR __k$[ebp+12], -19 ; ffffffedH
  001ad	eb 44		 jmp	 SHORT $LN1@LoadFloat_@4
$LN85@LoadFloat_@4:
  001af	c6 45 ef ea	 mov	 BYTE PTR __k$[ebp+11], -22 ; ffffffeaH
  001b3	eb 3e		 jmp	 SHORT $LN1@LoadFloat_@4
$LN86@LoadFloat_@4:
  001b5	c6 45 ee eb	 mov	 BYTE PTR __k$[ebp+10], -21 ; ffffffebH
  001b9	eb 38		 jmp	 SHORT $LN1@LoadFloat_@4
$LN87@LoadFloat_@4:
  001bb	88 4d ed	 mov	 BYTE PTR __k$[ebp+9], cl
  001be	eb 33		 jmp	 SHORT $LN1@LoadFloat_@4
$LN88@LoadFloat_@4:
  001c0	c6 45 ec ed	 mov	 BYTE PTR __k$[ebp+8], -19 ; ffffffedH
  001c4	eb 2d		 jmp	 SHORT $LN1@LoadFloat_@4
$LN89@LoadFloat_@4:
  001c6	c6 45 eb ea	 mov	 BYTE PTR __k$[ebp+7], -22 ; ffffffeaH
  001ca	eb 27		 jmp	 SHORT $LN1@LoadFloat_@4
$LN90@LoadFloat_@4:
  001cc	c6 45 ea eb	 mov	 BYTE PTR __k$[ebp+6], -21 ; ffffffebH
  001d0	eb 21		 jmp	 SHORT $LN1@LoadFloat_@4
$LN91@LoadFloat_@4:
  001d2	88 4d e9	 mov	 BYTE PTR __k$[ebp+5], cl
  001d5	eb 1c		 jmp	 SHORT $LN1@LoadFloat_@4
$LN92@LoadFloat_@4:
  001d7	c6 45 e8 ed	 mov	 BYTE PTR __k$[ebp+4], -19 ; ffffffedH
  001db	eb 16		 jmp	 SHORT $LN1@LoadFloat_@4
$LN93@LoadFloat_@4:
  001dd	c6 45 e7 ea	 mov	 BYTE PTR __k$[ebp+3], -22 ; ffffffeaH
  001e1	eb 10		 jmp	 SHORT $LN1@LoadFloat_@4
$LN94@LoadFloat_@4:
  001e3	c6 45 e6 eb	 mov	 BYTE PTR __k$[ebp+2], -21 ; ffffffebH
  001e7	eb 0a		 jmp	 SHORT $LN1@LoadFloat_@4
$LN95@LoadFloat_@4:
  001e9	c6 45 e5 ec	 mov	 BYTE PTR __k$[ebp+1], -20 ; ffffffecH
  001ed	eb 04		 jmp	 SHORT $LN1@LoadFloat_@4
$LN96@LoadFloat_@4:
  001ef	c6 45 e4 ed	 mov	 BYTE PTR __k$[ebp], -19	; ffffffedH
$LN1@LoadFloat_@4:
  001f3	6a 04		 push	 4
  001f5	8d 45 e4	 lea	 eax, DWORD PTR __k$[ebp]
  001f8	c6 45 f6 00	 mov	 BYTE PTR __k$[ebp+18], 0
  001fc	5a		 pop	 edx
$LL104@LoadFloat_@4:
  001fd	81 30 ed ec eb
	ea		 xor	 DWORD PTR [eax], -353637139 ; eaebecedH
  00203	83 c0 04	 add	 eax, 4
  00206	4a		 dec	 edx
  00207	75 f4		 jne	 SHORT $LL104@LoadFloat_@4
  00209	6a 10		 push	 16			; 00000010H
  0020b	58		 pop	 eax
$LL101@LoadFloat_@4:
  0020c	8b c8		 mov	 ecx, eax
  0020e	81 e1 03 00 00
	80		 and	 ecx, -2147483645	; 80000003H
  00214	79 05		 jns	 SHORT $LN111@LoadFloat_@4
  00216	49		 dec	 ecx
  00217	83 c9 fc	 or	 ecx, -4			; fffffffcH
  0021a	41		 inc	 ecx
$LN111@LoadFloat_@4:
  0021b	b2 ed		 mov	 dl, -19			; ffffffedH
  0021d	2a d1		 sub	 dl, cl
  0021f	30 54 05 e4	 xor	 BYTE PTR __k$[ebp+eax], dl
  00223	40		 inc	 eax
  00224	83 f8 12	 cmp	 eax, 18			; 00000012H
  00227	7c e3		 jl	 SHORT $LL101@LoadFloat_@4

; 137  : 		return LoadFloat(_k, f);

  00229	f3 0f 10 45 0c	 movss	 xmm0, DWORD PTR _f$[ebp]
  0022e	51		 push	 ecx
  0022f	8d 45 e4	 lea	 eax, DWORD PTR __k$[ebp]
  00232	f3 0f 11 04 24	 movss	 DWORD PTR [esp], xmm0
  00237	50		 push	 eax
  00238	8b ce		 mov	 ecx, esi
  0023a	ff 15 00 00 00
	00		 call	 DWORD PTR __imp_?LoadFloat@ioINILoader@@QAEMPBDM@Z

; 138  : 	}

  00240	8b 4d fc	 mov	 ecx, DWORD PTR __$ArrayPad$[ebp]
  00243	33 cd		 xor	 ecx, ebp
  00245	5e		 pop	 esi
  00246	e8 00 00 00 00	 call	 @__security_check_cookie@4
  0024b	c9		 leave
  0024c	c2 08 00	 ret	 8
??$LoadFloat_e@$0BD@@ioINILoader@@QAEMAAY0BD@$$CBDM@Z ENDP ; ioINILoader::LoadFloat_e<19>
_TEXT	ENDS
PUBLIC	__$ArrayPad$
PUBLIC	??$LoadInt_e@$0P@@ioINILoader@@QAEHAAY0P@$$CBDH@Z ; ioINILoader::LoadInt_e<15>
; Function compile flags: /Ogsp
;	COMDAT ??$LoadInt_e@$0P@@ioINILoader@@QAEHAAY0P@$$CBDH@Z
_TEXT	SEGMENT
__k$ = -24						; size = 15
__$ArrayPad$ = -4					; size = 4
_k$ = 8							; size = 4
_i$ = 12						; size = 4
??$LoadInt_e@$0P@@ioINILoader@@QAEHAAY0P@$$CBDH@Z PROC	; ioINILoader::LoadInt_e<15>, COMDAT
; _this$ = ecx

; 118  : 	{

  00000	55		 push	 ebp
  00001	8b ec		 mov	 ebp, esp
  00003	83 ec 18	 sub	 esp, 24			; 00000018H
  00006	a1 00 00 00 00	 mov	 eax, DWORD PTR ___security_cookie
  0000b	33 c5		 xor	 eax, ebp
  0000d	89 45 fc	 mov	 DWORD PTR __$ArrayPad$[ebp], eax
  00010	8b 45 08	 mov	 eax, DWORD PTR _k$[ebp]

; 119  : 		_ENCSTR(k, _k);

  00013	8a 10		 mov	 dl, BYTE PTR [eax]
  00015	56		 push	 esi
  00016	8b f1		 mov	 esi, ecx
  00018	84 d2		 test	 dl, dl
  0001a	0f 84 75 01 00
	00		 je	 $LN96@LoadInt_e@5
  00020	80 f2 ed	 xor	 dl, -19			; ffffffedH
  00023	88 55 e8	 mov	 BYTE PTR __k$[ebp], dl
  00026	8a 50 01	 mov	 dl, BYTE PTR [eax+1]
  00029	84 d2		 test	 dl, dl
  0002b	0f 84 5e 01 00
	00		 je	 $LN95@LoadInt_e@5
  00031	b1 ec		 mov	 cl, -20			; ffffffecH
  00033	32 d1		 xor	 dl, cl
  00035	88 55 e9	 mov	 BYTE PTR __k$[ebp+1], dl
  00038	8a 50 02	 mov	 dl, BYTE PTR [eax+2]
  0003b	84 d2		 test	 dl, dl
  0003d	0f 84 46 01 00
	00		 je	 $LN94@LoadInt_e@5
  00043	80 f2 eb	 xor	 dl, -21			; ffffffebH
  00046	88 55 ea	 mov	 BYTE PTR __k$[ebp+2], dl
  00049	8a 50 03	 mov	 dl, BYTE PTR [eax+3]
  0004c	84 d2		 test	 dl, dl
  0004e	0f 84 2f 01 00
	00		 je	 $LN93@LoadInt_e@5
  00054	80 f2 ea	 xor	 dl, -22			; ffffffeaH
  00057	88 55 eb	 mov	 BYTE PTR __k$[ebp+3], dl
  0005a	8a 50 04	 mov	 dl, BYTE PTR [eax+4]
  0005d	84 d2		 test	 dl, dl
  0005f	0f 84 18 01 00
	00		 je	 $LN92@LoadInt_e@5
  00065	80 f2 ed	 xor	 dl, -19			; ffffffedH
  00068	88 55 ec	 mov	 BYTE PTR __k$[ebp+4], dl
  0006b	8a 50 05	 mov	 dl, BYTE PTR [eax+5]
  0006e	84 d2		 test	 dl, dl
  00070	0f 84 02 01 00
	00		 je	 $LN91@LoadInt_e@5
  00076	32 d1		 xor	 dl, cl
  00078	88 55 ed	 mov	 BYTE PTR __k$[ebp+5], dl
  0007b	8a 50 06	 mov	 dl, BYTE PTR [eax+6]
  0007e	84 d2		 test	 dl, dl
  00080	0f 84 ec 00 00
	00		 je	 $LN90@LoadInt_e@5
  00086	80 f2 eb	 xor	 dl, -21			; ffffffebH
  00089	88 55 ee	 mov	 BYTE PTR __k$[ebp+6], dl
  0008c	8a 50 07	 mov	 dl, BYTE PTR [eax+7]
  0008f	84 d2		 test	 dl, dl
  00091	0f 84 d5 00 00
	00		 je	 $LN89@LoadInt_e@5
  00097	80 f2 ea	 xor	 dl, -22			; ffffffeaH
  0009a	88 55 ef	 mov	 BYTE PTR __k$[ebp+7], dl
  0009d	8a 50 08	 mov	 dl, BYTE PTR [eax+8]
  000a0	84 d2		 test	 dl, dl
  000a2	0f 84 be 00 00
	00		 je	 $LN88@LoadInt_e@5
  000a8	80 f2 ed	 xor	 dl, -19			; ffffffedH
  000ab	88 55 f0	 mov	 BYTE PTR __k$[ebp+8], dl
  000ae	8a 50 09	 mov	 dl, BYTE PTR [eax+9]
  000b1	84 d2		 test	 dl, dl
  000b3	0f 84 a8 00 00
	00		 je	 $LN87@LoadInt_e@5
  000b9	32 d1		 xor	 dl, cl
  000bb	88 55 f1	 mov	 BYTE PTR __k$[ebp+9], dl
  000be	8a 50 0a	 mov	 dl, BYTE PTR [eax+10]
  000c1	84 d2		 test	 dl, dl
  000c3	0f 84 92 00 00
	00		 je	 $LN86@LoadInt_e@5
  000c9	80 f2 eb	 xor	 dl, -21			; ffffffebH
  000cc	88 55 f2	 mov	 BYTE PTR __k$[ebp+10], dl
  000cf	8a 50 0b	 mov	 dl, BYTE PTR [eax+11]
  000d2	84 d2		 test	 dl, dl
  000d4	74 7f		 je	 SHORT $LN85@LoadInt_e@5
  000d6	80 f2 ea	 xor	 dl, -22			; ffffffeaH
  000d9	88 55 f3	 mov	 BYTE PTR __k$[ebp+11], dl
  000dc	8a 50 0c	 mov	 dl, BYTE PTR [eax+12]
  000df	84 d2		 test	 dl, dl
  000e1	74 6c		 je	 SHORT $LN84@LoadInt_e@5
  000e3	80 f2 ed	 xor	 dl, -19			; ffffffedH
  000e6	88 55 f4	 mov	 BYTE PTR __k$[ebp+12], dl
  000e9	8a 50 0d	 mov	 dl, BYTE PTR [eax+13]
  000ec	84 d2		 test	 dl, dl
  000ee	74 5a		 je	 SHORT $LN83@LoadInt_e@5
  000f0	32 d1		 xor	 dl, cl
  000f2	80 78 0e 00	 cmp	 BYTE PTR [eax+14], 0
  000f6	88 55 f5	 mov	 BYTE PTR __k$[ebp+13], dl
  000f9	0f 84 9a 00 00
	00		 je	 $LN1@LoadInt_e@5
  000ff	8a 50 0f	 mov	 dl, BYTE PTR [eax+15]
  00102	84 d2		 test	 dl, dl
  00104	74 3e		 je	 SHORT $LN81@LoadInt_e@5
  00106	80 f2 ea	 xor	 dl, -22			; ffffffeaH
  00109	88 55 f7	 mov	 BYTE PTR __k$[ebp+15], dl
  0010c	8a 50 10	 mov	 dl, BYTE PTR [eax+16]
  0010f	84 d2		 test	 dl, dl
  00111	74 2b		 je	 SHORT $LN80@LoadInt_e@5
  00113	80 f2 ed	 xor	 dl, -19			; ffffffedH
  00116	88 55 f8	 mov	 BYTE PTR __k$[ebp+16], dl
  00119	8a 50 11	 mov	 dl, BYTE PTR [eax+17]
  0011c	84 d2		 test	 dl, dl
  0011e	74 19		 je	 SHORT $LN79@LoadInt_e@5
  00120	8a 40 12	 mov	 al, BYTE PTR [eax+18]
  00123	32 d1		 xor	 dl, cl
  00125	88 55 f9	 mov	 BYTE PTR __k$[ebp+17], dl
  00128	84 c0		 test	 al, al
  0012a	74 07		 je	 SHORT $LN78@LoadInt_e@5
  0012c	34 eb		 xor	 al, -21			; ffffffebH
  0012e	88 45 fa	 mov	 BYTE PTR __k$[ebp+18], al
  00131	eb 66		 jmp	 SHORT $LN1@LoadInt_e@5
$LN78@LoadInt_e@5:
  00133	c6 45 fa eb	 mov	 BYTE PTR __k$[ebp+18], -21 ; ffffffebH
  00137	eb 60		 jmp	 SHORT $LN1@LoadInt_e@5
$LN79@LoadInt_e@5:
  00139	88 4d f9	 mov	 BYTE PTR __k$[ebp+17], cl
  0013c	eb 5b		 jmp	 SHORT $LN1@LoadInt_e@5
$LN80@LoadInt_e@5:
  0013e	c6 45 f8 ed	 mov	 BYTE PTR __k$[ebp+16], -19 ; ffffffedH
  00142	eb 55		 jmp	 SHORT $LN1@LoadInt_e@5
$LN81@LoadInt_e@5:
  00144	c6 45 f7 ea	 mov	 BYTE PTR __k$[ebp+15], -22 ; ffffffeaH
  00148	eb 4f		 jmp	 SHORT $LN1@LoadInt_e@5
$LN83@LoadInt_e@5:
  0014a	88 4d f5	 mov	 BYTE PTR __k$[ebp+13], cl
  0014d	eb 4a		 jmp	 SHORT $LN1@LoadInt_e@5
$LN84@LoadInt_e@5:
  0014f	c6 45 f4 ed	 mov	 BYTE PTR __k$[ebp+12], -19 ; ffffffedH
  00153	eb 44		 jmp	 SHORT $LN1@LoadInt_e@5
$LN85@LoadInt_e@5:
  00155	c6 45 f3 ea	 mov	 BYTE PTR __k$[ebp+11], -22 ; ffffffeaH
  00159	eb 3e		 jmp	 SHORT $LN1@LoadInt_e@5
$LN86@LoadInt_e@5:
  0015b	c6 45 f2 eb	 mov	 BYTE PTR __k$[ebp+10], -21 ; ffffffebH
  0015f	eb 38		 jmp	 SHORT $LN1@LoadInt_e@5
$LN87@LoadInt_e@5:
  00161	88 4d f1	 mov	 BYTE PTR __k$[ebp+9], cl
  00164	eb 33		 jmp	 SHORT $LN1@LoadInt_e@5
$LN88@LoadInt_e@5:
  00166	c6 45 f0 ed	 mov	 BYTE PTR __k$[ebp+8], -19 ; ffffffedH
  0016a	eb 2d		 jmp	 SHORT $LN1@LoadInt_e@5
$LN89@LoadInt_e@5:
  0016c	c6 45 ef ea	 mov	 BYTE PTR __k$[ebp+7], -22 ; ffffffeaH
  00170	eb 27		 jmp	 SHORT $LN1@LoadInt_e@5
$LN90@LoadInt_e@5:
  00172	c6 45 ee eb	 mov	 BYTE PTR __k$[ebp+6], -21 ; ffffffebH
  00176	eb 21		 jmp	 SHORT $LN1@LoadInt_e@5
$LN91@LoadInt_e@5:
  00178	88 4d ed	 mov	 BYTE PTR __k$[ebp+5], cl
  0017b	eb 1c		 jmp	 SHORT $LN1@LoadInt_e@5
$LN92@LoadInt_e@5:
  0017d	c6 45 ec ed	 mov	 BYTE PTR __k$[ebp+4], -19 ; ffffffedH
  00181	eb 16		 jmp	 SHORT $LN1@LoadInt_e@5
$LN93@LoadInt_e@5:
  00183	c6 45 eb ea	 mov	 BYTE PTR __k$[ebp+3], -22 ; ffffffeaH
  00187	eb 10		 jmp	 SHORT $LN1@LoadInt_e@5
$LN94@LoadInt_e@5:
  00189	c6 45 ea eb	 mov	 BYTE PTR __k$[ebp+2], -21 ; ffffffebH
  0018d	eb 0a		 jmp	 SHORT $LN1@LoadInt_e@5
$LN95@LoadInt_e@5:
  0018f	c6 45 e9 ec	 mov	 BYTE PTR __k$[ebp+1], -20 ; ffffffecH
  00193	eb 04		 jmp	 SHORT $LN1@LoadInt_e@5
$LN96@LoadInt_e@5:
  00195	c6 45 e8 ed	 mov	 BYTE PTR __k$[ebp], -19	; ffffffedH
$LN1@LoadInt_e@5:
  00199	6a 03		 push	 3
  0019b	8d 45 e8	 lea	 eax, DWORD PTR __k$[ebp]
  0019e	c6 45 f6 00	 mov	 BYTE PTR __k$[ebp+14], 0
  001a2	5a		 pop	 edx
$LL104@LoadInt_e@5:
  001a3	81 30 ed ec eb
	ea		 xor	 DWORD PTR [eax], -353637139 ; eaebecedH
  001a9	83 c0 04	 add	 eax, 4
  001ac	4a		 dec	 edx
  001ad	75 f4		 jne	 SHORT $LL104@LoadInt_e@5
  001af	6a 0c		 push	 12			; 0000000cH
  001b1	58		 pop	 eax
$LL101@LoadInt_e@5:
  001b2	8b c8		 mov	 ecx, eax
  001b4	81 e1 03 00 00
	80		 and	 ecx, -2147483645	; 80000003H
  001ba	79 05		 jns	 SHORT $LN111@LoadInt_e@5
  001bc	49		 dec	 ecx
  001bd	83 c9 fc	 or	 ecx, -4			; fffffffcH
  001c0	41		 inc	 ecx
$LN111@LoadInt_e@5:
  001c1	b2 ed		 mov	 dl, -19			; ffffffedH
  001c3	2a d1		 sub	 dl, cl
  001c5	30 54 05 e8	 xor	 BYTE PTR __k$[ebp+eax], dl
  001c9	40		 inc	 eax
  001ca	83 f8 0e	 cmp	 eax, 14			; 0000000eH
  001cd	7c e3		 jl	 SHORT $LL101@LoadInt_e@5

; 120  : 		return LoadInt(_k, i);

  001cf	ff 75 0c	 push	 DWORD PTR _i$[ebp]
  001d2	8d 45 e8	 lea	 eax, DWORD PTR __k$[ebp]
  001d5	50		 push	 eax
  001d6	8b ce		 mov	 ecx, esi
  001d8	ff 15 00 00 00
	00		 call	 DWORD PTR __imp_?LoadInt@ioINILoader@@QAEHPBDH@Z

; 121  : 	}

  001de	8b 4d fc	 mov	 ecx, DWORD PTR __$ArrayPad$[ebp]
  001e1	33 cd		 xor	 ecx, ebp
  001e3	5e		 pop	 esi
  001e4	e8 00 00 00 00	 call	 @__security_check_cookie@4
  001e9	c9		 leave
  001ea	c2 08 00	 ret	 8
??$LoadInt_e@$0P@@ioINILoader@@QAEHAAY0P@$$CBDH@Z ENDP	; ioINILoader::LoadInt_e<15>
_TEXT	ENDS
PUBLIC	__real@3fd2ee0d320154cb
PUBLIC	__real@41f0000000000000
PUBLIC	??$RADtoDEG@M@@YAMM@Z				; RADtoDEG<float>
;	COMDAT __real@3fd2ee0d320154cb
; File d:\lost saga for developer\youtube\tutorial\source\src\lsclient\veryoftenusedefine.h
CONST	SEGMENT
__real@3fd2ee0d320154cb DQ 03fd2ee0d320154cbr	; 0.29578
CONST	ENDS
;	COMDAT __real@41f0000000000000
CONST	SEGMENT
__real@41f0000000000000 DQ 041f0000000000000r	; 4.29497e+009
; Function compile flags: /Ogsp
CONST	ENDS
;	COMDAT ??$RADtoDEG@M@@YAMM@Z
_TEXT	SEGMENT
tv130 = -4						; size = 4
tv75 = 8						; size = 4
_val$ = 8						; size = 4
??$RADtoDEG@M@@YAMM@Z PROC				; RADtoDEG<float>, COMDAT

; 18   : type  RADtoDEG (type val) {return (type) (val * (return57() + 0.2957795132)); }

  00000	55		 push	 ebp
  00001	8b ec		 mov	 ebp, esp
  00003	51		 push	 ecx
  00004	b8 39 00 00 00	 mov	 eax, 57			; 00000039H
  00009	89 45 fc	 mov	 DWORD PTR tv130[ebp], eax
  0000c	db 45 fc	 fild	 DWORD PTR tv130[ebp]
  0000f	85 c0		 test	 eax, eax
  00011	79 06		 jns	 SHORT $LN5@RADtoDEG
  00013	dc 05 00 00 00
	00		 fadd	 QWORD PTR __real@41f0000000000000
$LN5@RADtoDEG:
  00019	dc 05 00 00 00
	00		 fadd	 QWORD PTR __real@3fd2ee0d320154cb
  0001f	d8 4d 08	 fmul	 DWORD PTR _val$[ebp]
  00022	d9 5d 08	 fstp	 DWORD PTR tv75[ebp]
  00025	d9 45 08	 fld	 DWORD PTR tv75[ebp]
  00028	c9		 leave
  00029	c3		 ret	 0
??$RADtoDEG@M@@YAMM@Z ENDP				; RADtoDEG<float>
_TEXT	ENDS
PUBLIC	??$_Cons_val@V?$allocator@UChangeDirInfo@@@std@@UChangeDirInfo@@AAU3@@std@@YAXAAV?$allocator@UChangeDirInfo@@@0@PAUChangeDirInfo@@AAU2@@Z ; std::_Cons_val<std::allocator<ChangeDirInfo>,ChangeDirInfo,ChangeDirInfo &>
; Function compile flags: /Ogsp
; File c:\program files (x86)\microsoft visual studio 10.0\vc\include\xmemory
;	COMDAT ??$_Cons_val@V?$allocator@UChangeDirInfo@@@std@@UChangeDirInfo@@AAU3@@std@@YAXAAV?$allocator@UChangeDirInfo@@@0@PAUChangeDirInfo@@AAU2@@Z
_TEXT	SEGMENT
__Alval$ = 8						; size = 4
__Pdest$ = 12						; size = 4
__Src$ = 16						; size = 4
??$_Cons_val@V?$allocator@UChangeDirInfo@@@std@@UChangeDirInfo@@AAU3@@std@@YAXAAV?$allocator@UChangeDirInfo@@@0@PAUChangeDirInfo@@AAU2@@Z PROC ; std::_Cons_val<std::allocator<ChangeDirInfo>,ChangeDirInfo,ChangeDirInfo &>, COMDAT

; 279  : 	{	// construct using allocator

  00000	55		 push	 ebp
  00001	8b ec		 mov	 ebp, esp
  00003	57		 push	 edi

; 280  : 	_Alval.construct(_Pdest, _STD forward<_Ty2>(_Src));

  00004	8b 7d 0c	 mov	 edi, DWORD PTR __Pdest$[ebp]
  00007	85 ff		 test	 edi, edi
  00009	74 0a		 je	 SHORT $LN7@Cons_val
  0000b	56		 push	 esi
  0000c	8b 75 10	 mov	 esi, DWORD PTR __Src$[ebp]
  0000f	6a 07		 push	 7
  00011	59		 pop	 ecx
  00012	f3 a5		 rep movsd
  00014	5e		 pop	 esi
$LN7@Cons_val:
  00015	5f		 pop	 edi

; 281  : 	}

  00016	5d		 pop	 ebp
  00017	c3		 ret	 0
??$_Cons_val@V?$allocator@UChangeDirInfo@@@std@@UChangeDirInfo@@AAU3@@std@@YAXAAV?$allocator@UChangeDirInfo@@@0@PAUChangeDirInfo@@AAU2@@Z ENDP ; std::_Cons_val<std::allocator<ChangeDirInfo>,ChangeDirInfo,ChangeDirInfo &>
_TEXT	ENDS
PUBLIC	?construct@?$allocator@UChangeDirInfo@@@std@@QAEXPAUChangeDirInfo@@ABU3@@Z ; std::allocator<ChangeDirInfo>::construct
; Function compile flags: /Ogsp
;	COMDAT ?construct@?$allocator@UChangeDirInfo@@@std@@QAEXPAUChangeDirInfo@@ABU3@@Z
_TEXT	SEGMENT
__Ptr$ = 8						; size = 4
__Val$ = 12						; size = 4
?construct@?$allocator@UChangeDirInfo@@@std@@QAEXPAUChangeDirInfo@@ABU3@@Z PROC ; std::allocator<ChangeDirInfo>::construct, COMDAT
; _this$ = ecx

; 196  : 		{	// construct object at _Ptr with value _Val

  00000	55		 push	 ebp
  00001	8b ec		 mov	 ebp, esp
  00003	57		 push	 edi

; 197  : 		_Construct(_Ptr, _Val);

  00004	8b 7d 08	 mov	 edi, DWORD PTR __Ptr$[ebp]
  00007	85 ff		 test	 edi, edi
  00009	74 0a		 je	 SHORT $LN5@construct@2
  0000b	56		 push	 esi
  0000c	8b 75 0c	 mov	 esi, DWORD PTR __Val$[ebp]
  0000f	6a 07		 push	 7
  00011	59		 pop	 ecx
  00012	f3 a5		 rep movsd
  00014	5e		 pop	 esi
$LN5@construct@2:
  00015	5f		 pop	 edi

; 198  : 		}

  00016	5d		 pop	 ebp
  00017	c2 08 00	 ret	 8
?construct@?$allocator@UChangeDirInfo@@@std@@QAEXPAUChangeDirInfo@@ABU3@@Z ENDP ; std::allocator<ChangeDirInfo>::construct
_TEXT	ENDS
PUBLIC	??G?$_Vector_iterator@V?$_Vector_val@UChangeDirInfo@@V?$allocator@UChangeDirInfo@@@std@@@std@@@std@@QBEHABV?$_Vector_const_iterator@V?$_Vector_val@UChangeDirInfo@@V?$allocator@UChangeDirInfo@@@std@@@std@@@1@@Z ; std::_Vector_iterator<std::_Vector_val<ChangeDirInfo,std::allocator<ChangeDirInfo> > >::operator-
; Function compile flags: /Ogsp
; File c:\program files (x86)\microsoft visual studio 10.0\vc\include\vector
;	COMDAT ??G?$_Vector_iterator@V?$_Vector_val@UChangeDirInfo@@V?$allocator@UChangeDirInfo@@@std@@@std@@@std@@QBEHABV?$_Vector_const_iterator@V?$_Vector_val@UChangeDirInfo@@V?$allocator@UChangeDirInfo@@@std@@@std@@@1@@Z
_TEXT	SEGMENT
__Right$ = 8						; size = 4
??G?$_Vector_iterator@V?$_Vector_val@UChangeDirInfo@@V?$allocator@UChangeDirInfo@@@std@@@std@@@std@@QBEHABV?$_Vector_const_iterator@V?$_Vector_val@UChangeDirInfo@@V?$allocator@UChangeDirInfo@@@std@@@std@@@1@@Z PROC ; std::_Vector_iterator<std::_Vector_val<ChangeDirInfo,std::allocator<ChangeDirInfo> > >::operator-, COMDAT
; _this$ = ecx

; 380  : 		{	// return difference of iterators

  00000	55		 push	 ebp
  00001	8b ec		 mov	 ebp, esp

; 381  : 		return (*(_Mybase *)this - _Right);

  00003	8b 01		 mov	 eax, DWORD PTR [ecx]
  00005	8b 4d 08	 mov	 ecx, DWORD PTR __Right$[ebp]
  00008	2b 01		 sub	 eax, DWORD PTR [ecx]
  0000a	6a 1c		 push	 28			; 0000001cH
  0000c	99		 cdq
  0000d	59		 pop	 ecx
  0000e	f7 f9		 idiv	 ecx

; 382  : 		}

  00010	5d		 pop	 ebp
  00011	c2 04 00	 ret	 4
??G?$_Vector_iterator@V?$_Vector_val@UChangeDirInfo@@V?$allocator@UChangeDirInfo@@@std@@@std@@@std@@QBEHABV?$_Vector_const_iterator@V?$_Vector_val@UChangeDirInfo@@V?$allocator@UChangeDirInfo@@@std@@@std@@@1@@Z ENDP ; std::_Vector_iterator<std::_Vector_val<ChangeDirInfo,std::allocator<ChangeDirInfo> > >::operator-
_TEXT	ENDS
PUBLIC	??$_Unchecked@V?$_Vector_val@UChangeDirInfo@@V?$allocator@UChangeDirInfo@@@std@@@std@@@std@@YAPAUChangeDirInfo@@V?$_Vector_iterator@V?$_Vector_val@UChangeDirInfo@@V?$allocator@UChangeDirInfo@@@std@@@std@@@0@@Z ; std::_Unchecked<std::_Vector_val<ChangeDirInfo,std::allocator<ChangeDirInfo> > >
; Function compile flags: /Ogsp
;	COMDAT ??$_Unchecked@V?$_Vector_val@UChangeDirInfo@@V?$allocator@UChangeDirInfo@@@std@@@std@@@std@@YAPAUChangeDirInfo@@V?$_Vector_iterator@V?$_Vector_val@UChangeDirInfo@@V?$allocator@UChangeDirInfo@@@std@@@std@@@0@@Z
_TEXT	SEGMENT
__Iter$ = 8						; size = 4
??$_Unchecked@V?$_Vector_val@UChangeDirInfo@@V?$allocator@UChangeDirInfo@@@std@@@std@@@std@@YAPAUChangeDirInfo@@V?$_Vector_iterator@V?$_Vector_val@UChangeDirInfo@@V?$allocator@UChangeDirInfo@@@std@@@std@@@0@@Z PROC ; std::_Unchecked<std::_Vector_val<ChangeDirInfo,std::allocator<ChangeDirInfo> > >, COMDAT

; 393  : 	{	// convert to unchecked

  00000	55		 push	 ebp
  00001	8b ec		 mov	 ebp, esp

; 394  : 	return (_Iter._Unchecked());

  00003	8b 45 08	 mov	 eax, DWORD PTR __Iter$[ebp]

; 395  : 	}

  00006	5d		 pop	 ebp
  00007	c3		 ret	 0
??$_Unchecked@V?$_Vector_val@UChangeDirInfo@@V?$allocator@UChangeDirInfo@@@std@@@std@@@std@@YAPAUChangeDirInfo@@V?$_Vector_iterator@V?$_Vector_val@UChangeDirInfo@@V?$allocator@UChangeDirInfo@@@std@@@std@@@0@@Z ENDP ; std::_Unchecked<std::_Vector_val<ChangeDirInfo,std::allocator<ChangeDirInfo> > >
_TEXT	ENDS
PUBLIC	??$_Move@PAUChangeDirInfo@@PAU1@@std@@YAPAUChangeDirInfo@@PAU1@00U_Nonscalar_ptr_iterator_tag@0@@Z ; std::_Move<ChangeDirInfo *,ChangeDirInfo *>
; Function compile flags: /Ogsp
; File c:\program files (x86)\microsoft visual studio 10.0\vc\include\xutility
;	COMDAT ??$_Move@PAUChangeDirInfo@@PAU1@@std@@YAPAUChangeDirInfo@@PAU1@00U_Nonscalar_ptr_iterator_tag@0@@Z
_TEXT	SEGMENT
__First$ = 8						; size = 4
__Last$ = 12						; size = 4
__Dest$ = 16						; size = 4
___formal$ = 20						; size = 1
??$_Move@PAUChangeDirInfo@@PAU1@@std@@YAPAUChangeDirInfo@@PAU1@00U_Nonscalar_ptr_iterator_tag@0@@Z PROC ; std::_Move<ChangeDirInfo *,ChangeDirInfo *>, COMDAT

; 2512 : 	{	// move [_First, _Last) to [_Dest, ...), arbitrary iterators

  00000	55		 push	 ebp
  00001	8b ec		 mov	 ebp, esp

; 2513 : 	for (; _First != _Last; ++_Dest, ++_First)

  00003	8b 45 08	 mov	 eax, DWORD PTR __First$[ebp]
  00006	3b 45 0c	 cmp	 eax, DWORD PTR __Last$[ebp]
  00009	74 1a		 je	 SHORT $LN10@Move
  0000b	56		 push	 esi
  0000c	57		 push	 edi
$LL3@Move:

; 2514 : 		*_Dest = _STD move(*_First);

  0000d	8b 7d 10	 mov	 edi, DWORD PTR __Dest$[ebp]
  00010	83 45 10 1c	 add	 DWORD PTR __Dest$[ebp], 28 ; 0000001cH
  00014	8b f0		 mov	 esi, eax
  00016	6a 07		 push	 7
  00018	83 c0 1c	 add	 eax, 28			; 0000001cH
  0001b	59		 pop	 ecx
  0001c	f3 a5		 rep movsd
  0001e	3b 45 0c	 cmp	 eax, DWORD PTR __Last$[ebp]
  00021	75 ea		 jne	 SHORT $LL3@Move
  00023	5f		 pop	 edi
  00024	5e		 pop	 esi
$LN10@Move:

; 2515 : 	return (_Dest);

  00025	8b 45 10	 mov	 eax, DWORD PTR __Dest$[ebp]

; 2516 : 	}

  00028	5d		 pop	 ebp
  00029	c3		 ret	 0
??$_Move@PAUChangeDirInfo@@PAU1@@std@@YAPAUChangeDirInfo@@PAU1@00U_Nonscalar_ptr_iterator_tag@0@@Z ENDP ; std::_Move<ChangeDirInfo *,ChangeDirInfo *>
_TEXT	ENDS
PUBLIC	?destroy@?$allocator@UChangeDirInfo@@@std@@QAEXPAUChangeDirInfo@@@Z ; std::allocator<ChangeDirInfo>::destroy
; Function compile flags: /Ogsp
; File c:\program files (x86)\microsoft visual studio 10.0\vc\include\xmemory
;	COMDAT ?destroy@?$allocator@UChangeDirInfo@@@std@@QAEXPAUChangeDirInfo@@@Z
_TEXT	SEGMENT
__Ptr$ = 8						; size = 4
?destroy@?$allocator@UChangeDirInfo@@@std@@QAEXPAUChangeDirInfo@@@Z PROC ; std::allocator<ChangeDirInfo>::destroy, COMDAT
; _this$ = ecx

; 213  : 		_Destroy(_Ptr);
; 214  : 		}

  00000	c2 04 00	 ret	 4
?destroy@?$allocator@UChangeDirInfo@@@std@@QAEXPAUChangeDirInfo@@@Z ENDP ; std::allocator<ChangeDirInfo>::destroy
_TEXT	ENDS
PUBLIC	??$?0AAPAUChangeDirInfo@@AAPAU0@@?$pair@PAUChangeDirInfo@@PAU1@@std@@QAE@AAPAUChangeDirInfo@@0@Z ; std::pair<ChangeDirInfo *,ChangeDirInfo *>::pair<ChangeDirInfo *,ChangeDirInfo *><ChangeDirInfo * &,ChangeDirInfo * &>
; Function compile flags: /Ogsp
; File c:\program files (x86)\microsoft visual studio 10.0\vc\include\utility
;	COMDAT ??$?0AAPAUChangeDirInfo@@AAPAU0@@?$pair@PAUChangeDirInfo@@PAU1@@std@@QAE@AAPAUChangeDirInfo@@0@Z
_TEXT	SEGMENT
__Val1$ = 8						; size = 4
__Val2$ = 12						; size = 4
??$?0AAPAUChangeDirInfo@@AAPAU0@@?$pair@PAUChangeDirInfo@@PAU1@@std@@QAE@AAPAUChangeDirInfo@@0@Z PROC ; std::pair<ChangeDirInfo *,ChangeDirInfo *>::pair<ChangeDirInfo *,ChangeDirInfo *><ChangeDirInfo * &,ChangeDirInfo * &>, COMDAT
; _this$ = ecx

; 247  : 		{	// construct from moved values

  00000	55		 push	 ebp
  00001	8b ec		 mov	 ebp, esp
  00003	8b c1		 mov	 eax, ecx
  00005	8b 4d 08	 mov	 ecx, DWORD PTR __Val1$[ebp]
  00008	8b 09		 mov	 ecx, DWORD PTR [ecx]
  0000a	89 08		 mov	 DWORD PTR [eax], ecx
  0000c	8b 4d 0c	 mov	 ecx, DWORD PTR __Val2$[ebp]
  0000f	8b 09		 mov	 ecx, DWORD PTR [ecx]
  00011	89 48 04	 mov	 DWORD PTR [eax+4], ecx

; 248  : 		}

  00014	5d		 pop	 ebp
  00015	c2 08 00	 ret	 8
??$?0AAPAUChangeDirInfo@@AAPAU0@@?$pair@PAUChangeDirInfo@@PAU1@@std@@QAE@AAPAUChangeDirInfo@@0@Z ENDP ; std::pair<ChangeDirInfo *,ChangeDirInfo *>::pair<ChangeDirInfo *,ChangeDirInfo *><ChangeDirInfo * &,ChangeDirInfo * &>
_TEXT	ENDS
PUBLIC	?construct@?$allocator@UChangeDirInfo@@@std@@QAEXPAUChangeDirInfo@@$$QAU3@@Z ; std::allocator<ChangeDirInfo>::construct
; Function compile flags: /Ogsp
; File c:\program files (x86)\microsoft visual studio 10.0\vc\include\xmemory
;	COMDAT ?construct@?$allocator@UChangeDirInfo@@@std@@QAEXPAUChangeDirInfo@@$$QAU3@@Z
_TEXT	SEGMENT
__Ptr$ = 8						; size = 4
__Val$ = 12						; size = 4
?construct@?$allocator@UChangeDirInfo@@@std@@QAEXPAUChangeDirInfo@@$$QAU3@@Z PROC ; std::allocator<ChangeDirInfo>::construct, COMDAT
; _this$ = ecx

; 201  : 		{	// construct object at _Ptr with value _Val

  00000	55		 push	 ebp
  00001	8b ec		 mov	 ebp, esp
  00003	57		 push	 edi

; 202  : 		::new ((void _FARQ *)_Ptr) _Ty(_STD forward<_Ty>(_Val));

  00004	8b 7d 08	 mov	 edi, DWORD PTR __Ptr$[ebp]
  00007	85 ff		 test	 edi, edi
  00009	74 0a		 je	 SHORT $LN3@construct@3
  0000b	56		 push	 esi
  0000c	8b 75 0c	 mov	 esi, DWORD PTR __Val$[ebp]
  0000f	6a 07		 push	 7
  00011	59		 pop	 ecx
  00012	f3 a5		 rep movsd
  00014	5e		 pop	 esi
$LN3@construct@3:
  00015	5f		 pop	 edi

; 203  : 		}

  00016	5d		 pop	 ebp
  00017	c2 08 00	 ret	 8
?construct@?$allocator@UChangeDirInfo@@@std@@QAEXPAUChangeDirInfo@@$$QAU3@@Z ENDP ; std::allocator<ChangeDirInfo>::construct
_TEXT	ENDS
PUBLIC	??$swap@UChangeDirInfo@@@std@@YAXAAUChangeDirInfo@@0@Z ; std::swap<ChangeDirInfo>
; Function compile flags: /Ogsp
; File c:\program files (x86)\microsoft visual studio 10.0\vc\include\utility
;	COMDAT ??$swap@UChangeDirInfo@@@std@@YAXAAUChangeDirInfo@@0@Z
_TEXT	SEGMENT
__Tmp$ = -28						; size = 28
__Left$ = 8						; size = 4
__Right$ = 12						; size = 4
??$swap@UChangeDirInfo@@@std@@YAXAAUChangeDirInfo@@0@Z PROC ; std::swap<ChangeDirInfo>, COMDAT

; 101  : 	{	// exchange values stored at _Left and _Right

  00000	55		 push	 ebp
  00001	8b ec		 mov	 ebp, esp
  00003	83 ec 1c	 sub	 esp, 28			; 0000001cH
  00006	56		 push	 esi

; 102  : 	_Ty _Tmp = _Move(_Left);

  00007	8b 75 08	 mov	 esi, DWORD PTR __Left$[ebp]
  0000a	57		 push	 edi
  0000b	6a 07		 push	 7
  0000d	59		 pop	 ecx

; 103  : 	_Left = _Move(_Right);

  0000e	6a 07		 push	 7
  00010	8d 7d e4	 lea	 edi, DWORD PTR __Tmp$[ebp]
  00013	f3 a5		 rep movsd
  00015	8b 75 0c	 mov	 esi, DWORD PTR __Right$[ebp]
  00018	8b 7d 08	 mov	 edi, DWORD PTR __Left$[ebp]
  0001b	59		 pop	 ecx
  0001c	f3 a5		 rep movsd

; 104  : 	_Right = _Move(_Tmp);

  0001e	8b 7d 0c	 mov	 edi, DWORD PTR __Right$[ebp]
  00021	6a 07		 push	 7
  00023	59		 pop	 ecx
  00024	8d 75 e4	 lea	 esi, DWORD PTR __Tmp$[ebp]
  00027	f3 a5		 rep movsd
  00029	5f		 pop	 edi
  0002a	5e		 pop	 esi

; 105  : 	}

  0002b	c9		 leave
  0002c	c3		 ret	 0
??$swap@UChangeDirInfo@@@std@@YAXAAUChangeDirInfo@@0@Z ENDP ; std::swap<ChangeDirInfo>
_TEXT	ENDS
PUBLIC	??$_Move_backward@PAUChangeDirInfo@@PAU1@@std@@YAPAUChangeDirInfo@@PAU1@00@Z ; std::_Move_backward<ChangeDirInfo *,ChangeDirInfo *>
; Function compile flags: /Ogsp
; File c:\program files (x86)\microsoft visual studio 10.0\vc\include\xutility
;	COMDAT ??$_Move_backward@PAUChangeDirInfo@@PAU1@@std@@YAPAUChangeDirInfo@@PAU1@00@Z
_TEXT	SEGMENT
__Cat$536523 = -4					; size = 1
__First$ = 8						; size = 4
__Last$ = 12						; size = 4
__Dest$ = 16						; size = 4
??$_Move_backward@PAUChangeDirInfo@@PAU1@@std@@YAPAUChangeDirInfo@@PAU1@00@Z PROC ; std::_Move_backward<ChangeDirInfo *,ChangeDirInfo *>, COMDAT

; 2638 : 	{	// move [_First, _Last) backwards to [..., _Dest), unchecked

  00000	55		 push	 ebp
  00001	8b ec		 mov	 ebp, esp
  00003	51		 push	 ecx

; 2639 : 	return (_Move_backward(_First, _Last,
; 2640 : 		_Dest, _Ptr_cat(_First, _Dest)));

  00004	ff 75 fc	 push	 DWORD PTR __Cat$536523[ebp]
  00007	ff 75 10	 push	 DWORD PTR __Dest$[ebp]
  0000a	ff 75 0c	 push	 DWORD PTR __Last$[ebp]
  0000d	ff 75 08	 push	 DWORD PTR __First$[ebp]
  00010	e8 00 00 00 00	 call	 ??$_Move_backward@PAUChangeDirInfo@@PAU1@@std@@YAPAUChangeDirInfo@@PAU1@00U_Nonscalar_ptr_iterator_tag@0@@Z ; std::_Move_backward<ChangeDirInfo *,ChangeDirInfo *>
  00015	83 c4 10	 add	 esp, 16			; 00000010H

; 2641 : 	}

  00018	c9		 leave
  00019	c3		 ret	 0
??$_Move_backward@PAUChangeDirInfo@@PAU1@@std@@YAPAUChangeDirInfo@@PAU1@00@Z ENDP ; std::_Move_backward<ChangeDirInfo *,ChangeDirInfo *>
_TEXT	ENDS
PUBLIC	??$_Push_heap@PAUChangeDirInfo@@HU1@VChangeDirSort@@@std@@YAXPAUChangeDirInfo@@HH$$QAU1@VChangeDirSort@@@Z ; std::_Push_heap<ChangeDirInfo *,int,ChangeDirInfo,ChangeDirSort>
; Function compile flags: /Ogsp
; File c:\program files (x86)\microsoft visual studio 10.0\vc\include\algorithm
;	COMDAT ??$_Push_heap@PAUChangeDirInfo@@HU1@VChangeDirSort@@@std@@YAXPAUChangeDirInfo@@HH$$QAU1@VChangeDirSort@@@Z
_TEXT	SEGMENT
__First$ = 8						; size = 4
__Hole$ = 12						; size = 4
__Top$ = 16						; size = 4
__Val$ = 20						; size = 4
__Pred$ = 24						; size = 1
??$_Push_heap@PAUChangeDirInfo@@HU1@VChangeDirSort@@@std@@YAXPAUChangeDirInfo@@HH$$QAU1@VChangeDirSort@@@Z PROC ; std::_Push_heap<ChangeDirInfo *,int,ChangeDirInfo,ChangeDirSort>, COMDAT

; 2455 : 	{	// percolate _Hole to _Top or where _Val belongs, using operator<

  00000	55		 push	 ebp
  00001	8b ec		 mov	 ebp, esp
  00003	53		 push	 ebx

; 2456 : 	for (_Diff _Idx = (_Hole - 1) / 2;
; 2457 : 		_Top < _Hole && _DEBUG_LT_PRED(_Pred, *(_First + _Idx), _Val);
; 2458 : 		_Idx = (_Hole - 1) / 2)

  00004	8b 5d 08	 mov	 ebx, DWORD PTR __First$[ebp]
  00007	56		 push	 esi
  00008	57		 push	 edi
  00009	8b 7d 0c	 mov	 edi, DWORD PTR __Hole$[ebp]
  0000c	8d 47 ff	 lea	 eax, DWORD PTR [edi-1]
  0000f	99		 cdq
  00010	2b c2		 sub	 eax, edx
  00012	8b d0		 mov	 edx, eax
  00014	d1 fa		 sar	 edx, 1
  00016	eb 5a		 jmp	 SHORT $LN19@Push_heap
$LL3@Push_heap:
  00018	8b 4d 14	 mov	 ecx, DWORD PTR __Val$[ebp]
  0001b	f3 0f 10 09	 movss	 xmm1, DWORD PTR [ecx]
  0001f	8b f2		 mov	 esi, edx
  00021	6b f6 1c	 imul	 esi, 28			; 0000001cH
  00024	03 f3		 add	 esi, ebx
  00026	f3 0f 10 06	 movss	 xmm0, DWORD PTR [esi]
  0002a	0f 5a d0	 cvtps2pd xmm2, xmm0
  0002d	0f 5a d9	 cvtps2pd xmm3, xmm1
  00030	66 0f 2f da	 comisd	 xmm3, xmm2
  00034	77 26		 ja	 SHORT $LN18@Push_heap
  00036	0f 5a c0	 cvtps2pd xmm0, xmm0
  00039	0f 5a c9	 cvtps2pd xmm1, xmm1
  0003c	66 0f 2e c1	 ucomisd xmm0, xmm1
  00040	9f		 lahf
  00041	f6 c4 44	 test	 ah, 68			; 00000044H
  00044	7a 31		 jp	 SHORT $LN6@Push_heap
  00046	f3 0f 10 46 0c	 movss	 xmm0, DWORD PTR [esi+12]
  0004b	f3 0f 10 49 0c	 movss	 xmm1, DWORD PTR [ecx+12]
  00050	0f 5a c0	 cvtps2pd xmm0, xmm0
  00053	0f 5a c9	 cvtps2pd xmm1, xmm1
  00056	66 0f 2f c8	 comisd	 xmm1, xmm0
  0005a	76 1b		 jbe	 SHORT $LN6@Push_heap
$LN18@Push_heap:

; 2459 : 		{	// move _Hole up to parent
; 2460 : 		*(_First + _Hole) = _Move(*(_First + _Idx));

  0005c	6b ff 1c	 imul	 edi, 28			; 0000001cH
  0005f	03 fb		 add	 edi, ebx
  00061	6a 07		 push	 7
  00063	59		 pop	 ecx
  00064	8d 42 ff	 lea	 eax, DWORD PTR [edx-1]
  00067	f3 a5		 rep movsd

; 2461 : 		_Hole = _Idx;

  00069	8b fa		 mov	 edi, edx
  0006b	99		 cdq
  0006c	2b c2		 sub	 eax, edx
  0006e	d1 f8		 sar	 eax, 1
  00070	8b d0		 mov	 edx, eax
$LN19@Push_heap:

; 2456 : 	for (_Diff _Idx = (_Hole - 1) / 2;
; 2457 : 		_Top < _Hole && _DEBUG_LT_PRED(_Pred, *(_First + _Idx), _Val);
; 2458 : 		_Idx = (_Hole - 1) / 2)

  00072	39 7d 10	 cmp	 DWORD PTR __Top$[ebp], edi
  00075	7c a1		 jl	 SHORT $LL3@Push_heap
$LN6@Push_heap:

; 2462 : 		}
; 2463 : 
; 2464 : 	*(_First + _Hole) = _Move(_Val);	// drop _Val into final hole

  00077	8b 75 14	 mov	 esi, DWORD PTR __Val$[ebp]
  0007a	6b ff 1c	 imul	 edi, 28			; 0000001cH
  0007d	6a 07		 push	 7
  0007f	59		 pop	 ecx
  00080	03 fb		 add	 edi, ebx
  00082	f3 a5		 rep movsd
  00084	5f		 pop	 edi
  00085	5e		 pop	 esi
  00086	5b		 pop	 ebx

; 2465 : 	}

  00087	5d		 pop	 ebp
  00088	c3		 ret	 0
??$_Push_heap@PAUChangeDirInfo@@HU1@VChangeDirSort@@@std@@YAXPAUChangeDirInfo@@HH$$QAU1@VChangeDirSort@@@Z ENDP ; std::_Push_heap<ChangeDirInfo *,int,ChangeDirInfo,ChangeDirSort>
_TEXT	ENDS
PUBLIC	??0?$CEncrypt@M@@QAE@XZ				; CEncrypt<float>::CEncrypt<float>
EXTRN	??0ccddaabb@@QAE@XZ:PROC			; ccddaabb::ccddaabb
;	COMDAT xdata$x
; File d:\lost saga for developer\youtube\tutorial\source\src\lsclient\encryptvalue.h
xdata$x	SEGMENT
__unwindtable$??0?$CEncrypt@M@@QAE@XZ DD 0ffffffffH
	DD	FLAT:__unwindfunclet$??0?$CEncrypt@M@@QAE@XZ$0
__ehfuncinfo$??0?$CEncrypt@M@@QAE@XZ DD 019930522H
	DD	01H
	DD	FLAT:__unwindtable$??0?$CEncrypt@M@@QAE@XZ
	DD	2 DUP(00H)
	DD	2 DUP(00H)
	DD	00H
	DD	01H
; Function compile flags: /Ogsp
xdata$x	ENDS
;	COMDAT ??0?$CEncrypt@M@@QAE@XZ
_TEXT	SEGMENT
_this$ = -16						; size = 4
__$EHRec$ = -12						; size = 12
??0?$CEncrypt@M@@QAE@XZ PROC				; CEncrypt<float>::CEncrypt<float>, COMDAT
; _this$ = ecx

; 109  : 	CEncrypt()

  00000	6a 04		 push	 4
  00002	b8 00 00 00 00	 mov	 eax, __ehhandler$??0?$CEncrypt@M@@QAE@XZ
  00007	e8 00 00 00 00	 call	 __EH_prolog3
  0000c	8b f1		 mov	 esi, ecx
  0000e	89 75 f0	 mov	 DWORD PTR _this$[ebp], esi
  00011	8d 4e 0c	 lea	 ecx, DWORD PTR [esi+12]
  00014	c7 06 00 00 00
	00		 mov	 DWORD PTR [esi], OFFSET ??_7?$CEncrypt@M@@6B@
  0001a	e8 00 00 00 00	 call	 ??0ccddaabb@@QAE@XZ	; ccddaabb::ccddaabb
  0001f	83 65 fc 00	 and	 DWORD PTR __$EHRec$[ebp+8], 0

; 110  : 	{
; 111  : 		Init();

  00023	8b ce		 mov	 ecx, esi
  00025	e8 00 00 00 00	 call	 ?Init@?$CEncrypt@M@@AAEXXZ ; CEncrypt<float>::Init

; 112  : 	}

  0002a	8b c6		 mov	 eax, esi
  0002c	e8 00 00 00 00	 call	 __EH_epilog3
  00031	c3		 ret	 0
_TEXT	ENDS
;	COMDAT text$x
text$x	SEGMENT
__unwindfunclet$??0?$CEncrypt@M@@QAE@XZ$0:
  00000	8b 4d f0	 mov	 ecx, DWORD PTR _this$[ebp]
  00003	83 c1 0c	 add	 ecx, 12			; 0000000cH
  00006	e9 00 00 00 00	 jmp	 ??1ccddaabb@@UAE@XZ	; ccddaabb::~ccddaabb
__ehhandler$??0?$CEncrypt@M@@QAE@XZ:
  0000b	8b 54 24 08	 mov	 edx, DWORD PTR [esp+8]
  0000f	8d 42 0c	 lea	 eax, DWORD PTR [edx+12]
  00012	8b 4a ec	 mov	 ecx, DWORD PTR [edx-20]
  00015	33 c8		 xor	 ecx, eax
  00017	e8 00 00 00 00	 call	 @__security_check_cookie@4
  0001c	b8 00 00 00 00	 mov	 eax, OFFSET __ehfuncinfo$??0?$CEncrypt@M@@QAE@XZ
  00021	e9 00 00 00 00	 jmp	 ___CxxFrameHandler3
text$x	ENDS
??0?$CEncrypt@M@@QAE@XZ ENDP				; CEncrypt<float>::CEncrypt<float>
PUBLIC	??B?$CEncrypt@M@@QAEMXZ				; CEncrypt<float>::operator float
; Function compile flags: /Ogsp
;	COMDAT ??B?$CEncrypt@M@@QAEMXZ
_TEXT	SEGMENT
_value$ = -4						; size = 4
??B?$CEncrypt@M@@QAEMXZ PROC				; CEncrypt<float>::operator float, COMDAT
; _this$ = ecx

; 134  : 	{

  00000	55		 push	 ebp
  00001	8b ec		 mov	 ebp, esp
  00003	51		 push	 ecx

; 135  : 		type value;
; 136  : 		DecryptValueToPool(&value);

  00004	8d 45 fc	 lea	 eax, DWORD PTR _value$[ebp]
  00007	50		 push	 eax
  00008	e8 00 00 00 00	 call	 ?DecryptValueToPool@?$CEncrypt@M@@QAEXPAM@Z ; CEncrypt<float>::DecryptValueToPool

; 137  : 
; 138  : #ifdef _NOTUSE
; 139  : 		Debug();
; 140  : #endif
; 141  : 		return value;

  0000d	d9 45 fc	 fld	 DWORD PTR _value$[ebp]

; 142  : 	}

  00010	c9		 leave
  00011	c3		 ret	 0
??B?$CEncrypt@M@@QAEMXZ ENDP				; CEncrypt<float>::operator float
_TEXT	ENDS
PUBLIC	??4?$CEncrypt@M@@QAEMM@Z			; CEncrypt<float>::operator=
; Function compile flags: /Ogsp
;	COMDAT ??4?$CEncrypt@M@@QAEMM@Z
_TEXT	SEGMENT
_value$ = 8						; size = 4
_inValue$ = 8						; size = 4
??4?$CEncrypt@M@@QAEMM@Z PROC				; CEncrypt<float>::operator=, COMDAT
; _this$ = ecx

; 1654 : 	{	

  00000	55		 push	 ebp
  00001	8b ec		 mov	 ebp, esp

; 1655 : 		type value = inValue;

  00003	d9 45 08	 fld	 DWORD PTR _inValue$[ebp]

; 1656 : 		EncryptValueToPool((char*)&value);

  00006	8d 45 08	 lea	 eax, DWORD PTR _value$[ebp]
  00009	50		 push	 eax
  0000a	d9 5d 08	 fstp	 DWORD PTR _value$[ebp]
  0000d	e8 00 00 00 00	 call	 ?EncryptValueToPool@?$CEncrypt@M@@AAEXPBD@Z ; CEncrypt<float>::EncryptValueToPool

; 1657 : #ifdef _NOTUSE
; 1658 : 		m_value = inValue;
; 1659 : 		Debug();
; 1660 : #endif
; 1661 : 		return value;

  00012	d9 45 08	 fld	 DWORD PTR _value$[ebp]

; 1662 : 	}

  00015	5d		 pop	 ebp
  00016	c2 04 00	 ret	 4
??4?$CEncrypt@M@@QAEMM@Z ENDP				; CEncrypt<float>::operator=
_TEXT	ENDS
PUBLIC	??O?$CEncrypt@M@@QAE_NABM@Z			; CEncrypt<float>::operator>
; Function compile flags: /Ogsp
;	COMDAT ??O?$CEncrypt@M@@QAE_NABM@Z
_TEXT	SEGMENT
_value$ = -4						; size = 4
_inValue$ = 8						; size = 4
??O?$CEncrypt@M@@QAE_NABM@Z PROC			; CEncrypt<float>::operator>, COMDAT
; _this$ = ecx

; 1811 : 	{

  00000	55		 push	 ebp
  00001	8b ec		 mov	 ebp, esp
  00003	51		 push	 ecx

; 1812 : 		type value;
; 1813 : 		DecryptValueToPool(&value);

  00004	8d 45 fc	 lea	 eax, DWORD PTR _value$[ebp]
  00007	50		 push	 eax
  00008	e8 00 00 00 00	 call	 ?DecryptValueToPool@?$CEncrypt@M@@QAEXPAM@Z ; CEncrypt<float>::DecryptValueToPool

; 1814 : #ifdef _NOTUSE
; 1815 : 		Debug();
; 1816 : #endif
; 1817 : 		return (value > inValue);

  0000d	8b 45 08	 mov	 eax, DWORD PTR _inValue$[ebp]
  00010	f3 0f 10 08	 movss	 xmm1, DWORD PTR [eax]
  00014	f3 0f 10 45 fc	 movss	 xmm0, DWORD PTR _value$[ebp]
  00019	0f 5a c0	 cvtps2pd xmm0, xmm0
  0001c	0f 5a c9	 cvtps2pd xmm1, xmm1
  0001f	33 c0		 xor	 eax, eax
  00021	66 0f 2f c1	 comisd	 xmm0, xmm1
  00025	76 01		 jbe	 SHORT $LN4@operator@4
  00027	40		 inc	 eax
$LN4@operator@4:

; 1818 : 	}		

  00028	c9		 leave
  00029	c2 04 00	 ret	 4
??O?$CEncrypt@M@@QAE_NABM@Z ENDP			; CEncrypt<float>::operator>
_TEXT	ENDS
PUBLIC	??0?$CEncrypt@K@@QAE@XZ				; CEncrypt<unsigned long>::CEncrypt<unsigned long>
;	COMDAT xdata$x
xdata$x	SEGMENT
__unwindtable$??0?$CEncrypt@K@@QAE@XZ DD 0ffffffffH
	DD	FLAT:__unwindfunclet$??0?$CEncrypt@K@@QAE@XZ$0
__ehfuncinfo$??0?$CEncrypt@K@@QAE@XZ DD 019930522H
	DD	01H
	DD	FLAT:__unwindtable$??0?$CEncrypt@K@@QAE@XZ
	DD	2 DUP(00H)
	DD	2 DUP(00H)
	DD	00H
	DD	01H
; Function compile flags: /Ogsp
xdata$x	ENDS
;	COMDAT ??0?$CEncrypt@K@@QAE@XZ
_TEXT	SEGMENT
_this$ = -16						; size = 4
__$EHRec$ = -12						; size = 12
??0?$CEncrypt@K@@QAE@XZ PROC				; CEncrypt<unsigned long>::CEncrypt<unsigned long>, COMDAT
; _this$ = ecx

; 109  : 	CEncrypt()

  00000	6a 04		 push	 4
  00002	b8 00 00 00 00	 mov	 eax, __ehhandler$??0?$CEncrypt@K@@QAE@XZ
  00007	e8 00 00 00 00	 call	 __EH_prolog3
  0000c	8b f1		 mov	 esi, ecx
  0000e	89 75 f0	 mov	 DWORD PTR _this$[ebp], esi
  00011	8d 4e 0c	 lea	 ecx, DWORD PTR [esi+12]
  00014	c7 06 00 00 00
	00		 mov	 DWORD PTR [esi], OFFSET ??_7?$CEncrypt@K@@6B@
  0001a	e8 00 00 00 00	 call	 ??0ccddaabb@@QAE@XZ	; ccddaabb::ccddaabb
  0001f	83 65 fc 00	 and	 DWORD PTR __$EHRec$[ebp+8], 0

; 110  : 	{
; 111  : 		Init();

  00023	8b ce		 mov	 ecx, esi
  00025	e8 00 00 00 00	 call	 ?Init@?$CEncrypt@K@@AAEXXZ ; CEncrypt<unsigned long>::Init

; 112  : 	}

  0002a	8b c6		 mov	 eax, esi
  0002c	e8 00 00 00 00	 call	 __EH_epilog3
  00031	c3		 ret	 0
_TEXT	ENDS
;	COMDAT text$x
text$x	SEGMENT
__unwindfunclet$??0?$CEncrypt@K@@QAE@XZ$0:
  00000	8b 4d f0	 mov	 ecx, DWORD PTR _this$[ebp]
  00003	83 c1 0c	 add	 ecx, 12			; 0000000cH
  00006	e9 00 00 00 00	 jmp	 ??1ccddaabb@@UAE@XZ	; ccddaabb::~ccddaabb
__ehhandler$??0?$CEncrypt@K@@QAE@XZ:
  0000b	8b 54 24 08	 mov	 edx, DWORD PTR [esp+8]
  0000f	8d 42 0c	 lea	 eax, DWORD PTR [edx+12]
  00012	8b 4a ec	 mov	 ecx, DWORD PTR [edx-20]
  00015	33 c8		 xor	 ecx, eax
  00017	e8 00 00 00 00	 call	 @__security_check_cookie@4
  0001c	b8 00 00 00 00	 mov	 eax, OFFSET __ehfuncinfo$??0?$CEncrypt@K@@QAE@XZ
  00021	e9 00 00 00 00	 jmp	 ___CxxFrameHandler3
text$x	ENDS
??0?$CEncrypt@K@@QAE@XZ ENDP				; CEncrypt<unsigned long>::CEncrypt<unsigned long>
PUBLIC	??B?$CEncrypt@K@@QAEKXZ				; CEncrypt<unsigned long>::operator unsigned long
; Function compile flags: /Ogsp
;	COMDAT ??B?$CEncrypt@K@@QAEKXZ
_TEXT	SEGMENT
_value$ = -4						; size = 4
??B?$CEncrypt@K@@QAEKXZ PROC				; CEncrypt<unsigned long>::operator unsigned long, COMDAT
; _this$ = ecx

; 134  : 	{

  00000	55		 push	 ebp
  00001	8b ec		 mov	 ebp, esp
  00003	51		 push	 ecx

; 135  : 		type value;
; 136  : 		DecryptValueToPool(&value);

  00004	8d 45 fc	 lea	 eax, DWORD PTR _value$[ebp]
  00007	50		 push	 eax
  00008	e8 00 00 00 00	 call	 ?DecryptValueToPool@?$CEncrypt@K@@QAEXPAK@Z ; CEncrypt<unsigned long>::DecryptValueToPool

; 137  : 
; 138  : #ifdef _NOTUSE
; 139  : 		Debug();
; 140  : #endif
; 141  : 		return value;

  0000d	8b 45 fc	 mov	 eax, DWORD PTR _value$[ebp]

; 142  : 	}

  00010	c9		 leave
  00011	c3		 ret	 0
??B?$CEncrypt@K@@QAEKXZ ENDP				; CEncrypt<unsigned long>::operator unsigned long
_TEXT	ENDS
PUBLIC	??B?$CEncrypt@K@@QBEKXZ				; CEncrypt<unsigned long>::operator unsigned long
; Function compile flags: /Ogsp
;	COMDAT ??B?$CEncrypt@K@@QBEKXZ
_TEXT	SEGMENT
_value$ = -4						; size = 4
??B?$CEncrypt@K@@QBEKXZ PROC				; CEncrypt<unsigned long>::operator unsigned long, COMDAT
; _this$ = ecx

; 145  : 	{

  00000	55		 push	 ebp
  00001	8b ec		 mov	 ebp, esp
  00003	51		 push	 ecx

; 146  : 		//UJ 130829, const도 똑같이 하면 된다 --start
; 147  : 		type value;
; 148  : 		CEncrypt<type>* pThis = const_cast<CEncrypt<type>*>(this);
; 149  : 		pThis->DecryptValueToPool(&value);

  00004	8d 45 fc	 lea	 eax, DWORD PTR _value$[ebp]
  00007	50		 push	 eax
  00008	e8 00 00 00 00	 call	 ?DecryptValueToPool@?$CEncrypt@K@@QAEXPAK@Z ; CEncrypt<unsigned long>::DecryptValueToPool

; 150  : 		//// const에서 DecryptValueToPool 사용할 수 없으므로 아래와 같이함.
; 151  :  		//type value;
; 152  : 		//char szTempMem[MAX_ENCRYPT];
; 153  : 		//m_RC5.DecryptByte( m_MemPool, szTempMem, max(m_ValueSize, DEFAULT_ENCRYPT) );
; 154  : 		//memcpy( &value, szTempMem, m_ValueSize );
; 155  : 		//UJ --end
; 156  : 
; 157  : #ifdef _NOTUSE
; 158  : 		Debug();
; 159  : #endif
; 160  : 		return value;

  0000d	8b 45 fc	 mov	 eax, DWORD PTR _value$[ebp]

; 161  : 	}

  00010	c9		 leave
  00011	c3		 ret	 0
??B?$CEncrypt@K@@QBEKXZ ENDP				; CEncrypt<unsigned long>::operator unsigned long
_TEXT	ENDS
PUBLIC	??4?$CEncrypt@K@@QAEKK@Z			; CEncrypt<unsigned long>::operator=
; Function compile flags: /Ogsp
;	COMDAT ??4?$CEncrypt@K@@QAEKK@Z
_TEXT	SEGMENT
_value$ = 8						; size = 4
_inValue$ = 8						; size = 4
??4?$CEncrypt@K@@QAEKK@Z PROC				; CEncrypt<unsigned long>::operator=, COMDAT
; _this$ = ecx

; 1262 : 	{

  00000	55		 push	 ebp
  00001	8b ec		 mov	 ebp, esp

; 1263 : 		
; 1264 : 		type value = inValue;

  00003	8b 45 08	 mov	 eax, DWORD PTR _inValue$[ebp]
  00006	89 45 08	 mov	 DWORD PTR _value$[ebp], eax

; 1265 : 		EncryptValueToPool((char*)&value);

  00009	8d 45 08	 lea	 eax, DWORD PTR _value$[ebp]
  0000c	50		 push	 eax
  0000d	e8 00 00 00 00	 call	 ?EncryptValueToPool@?$CEncrypt@K@@AAEXPBD@Z ; CEncrypt<unsigned long>::EncryptValueToPool

; 1266 : #ifdef _NOTUSE
; 1267 : 		m_value = inValue;
; 1268 : 		Debug();
; 1269 : #endif
; 1270 : 		return value;

  00012	8b 45 08	 mov	 eax, DWORD PTR _value$[ebp]

; 1271 : 	}

  00015	5d		 pop	 ebp
  00016	c2 04 00	 ret	 4
??4?$CEncrypt@K@@QAEKK@Z ENDP				; CEncrypt<unsigned long>::operator=
_TEXT	ENDS
PUBLIC	??B?$CEncrypt@W4TeamType@@@@QBE?AW4TeamType@@XZ	; CEncrypt<enum TeamType>::operator enum TeamType
; Function compile flags: /Ogsp
;	COMDAT ??B?$CEncrypt@W4TeamType@@@@QBE?AW4TeamType@@XZ
_TEXT	SEGMENT
_value$ = -4						; size = 4
??B?$CEncrypt@W4TeamType@@@@QBE?AW4TeamType@@XZ PROC	; CEncrypt<enum TeamType>::operator enum TeamType, COMDAT
; _this$ = ecx

; 145  : 	{

  00000	55		 push	 ebp
  00001	8b ec		 mov	 ebp, esp
  00003	51		 push	 ecx

; 146  : 		//UJ 130829, const도 똑같이 하면 된다 --start
; 147  : 		type value;
; 148  : 		CEncrypt<type>* pThis = const_cast<CEncrypt<type>*>(this);
; 149  : 		pThis->DecryptValueToPool(&value);

  00004	8d 45 fc	 lea	 eax, DWORD PTR _value$[ebp]
  00007	50		 push	 eax
  00008	e8 00 00 00 00	 call	 ?DecryptValueToPool@?$CEncrypt@W4TeamType@@@@QAEXPAW4TeamType@@@Z ; CEncrypt<enum TeamType>::DecryptValueToPool

; 150  : 		//// const에서 DecryptValueToPool 사용할 수 없으므로 아래와 같이함.
; 151  :  		//type value;
; 152  : 		//char szTempMem[MAX_ENCRYPT];
; 153  : 		//m_RC5.DecryptByte( m_MemPool, szTempMem, max(m_ValueSize, DEFAULT_ENCRYPT) );
; 154  : 		//memcpy( &value, szTempMem, m_ValueSize );
; 155  : 		//UJ --end
; 156  : 
; 157  : #ifdef _NOTUSE
; 158  : 		Debug();
; 159  : #endif
; 160  : 		return value;

  0000d	8b 45 fc	 mov	 eax, DWORD PTR _value$[ebp]

; 161  : 	}

  00010	c9		 leave
  00011	c3		 ret	 0
??B?$CEncrypt@W4TeamType@@@@QBE?AW4TeamType@@XZ ENDP	; CEncrypt<enum TeamType>::operator enum TeamType
_TEXT	ENDS
PUBLIC	?GetExperienceMode@ioBaseChar@@QBE?BKXZ		; ioBaseChar::GetExperienceMode
; Function compile flags: /Ogsp
; File d:\lost saga for developer\youtube\tutorial\source\src\lsclient\iobasechar.h
;	COMDAT ?GetExperienceMode@ioBaseChar@@QBE?BKXZ
_TEXT	SEGMENT
_value$536585 = -4					; size = 4
?GetExperienceMode@ioBaseChar@@QBE?BKXZ PROC		; ioBaseChar::GetExperienceMode, COMDAT
; _this$ = ecx

; 3193 : 	inline const DWORD GetExperienceMode() const { return m_ExperienceMode; }

  00000	55		 push	 ebp
  00001	8b ec		 mov	 ebp, esp
  00003	51		 push	 ecx
  00004	8d 45 fc	 lea	 eax, DWORD PTR _value$536585[ebp]
  00007	50		 push	 eax
  00008	81 c1 94 1d 00
	00		 add	 ecx, 7572		; 00001d94H
  0000e	e8 00 00 00 00	 call	 ?DecryptValueToPool@?$CEncrypt@K@@QAEXPAK@Z ; CEncrypt<unsigned long>::DecryptValueToPool
  00013	8b 45 fc	 mov	 eax, DWORD PTR _value$536585[ebp]
  00016	c9		 leave
  00017	c3		 ret	 0
?GetExperienceMode@ioBaseChar@@QBE?BKXZ ENDP		; ioBaseChar::GetExperienceMode
_TEXT	ENDS
PUBLIC	?InitResource@ioTraceWeapon6@@UAE_NXZ		; ioTraceWeapon6::InitResource
EXTRN	?InitResource@ioWeapon@@UAE_NXZ:PROC		; ioWeapon::InitResource
; Function compile flags: /Ogsp
; File d:\lost saga for developer\youtube\tutorial\source\src\lsclient\iotraceweapon6.cpp
;	COMDAT ?InitResource@ioTraceWeapon6@@UAE_NXZ
_TEXT	SEGMENT
?InitResource@ioTraceWeapon6@@UAE_NXZ PROC		; ioTraceWeapon6::InitResource, COMDAT
; _this$ = ecx

; 96   : {

  00000	56		 push	 esi
  00001	8b f1		 mov	 esi, ecx

; 97   : 	if( ioWeapon::InitResource() )

  00003	e8 00 00 00 00	 call	 ?InitResource@ioWeapon@@UAE_NXZ ; ioWeapon::InitResource
  00008	84 c0		 test	 al, al
  0000a	74 25		 je	 SHORT $LN1@InitResour

; 98   : 	{
; 99   : 		DestroyResource();

  0000c	8b 06		 mov	 eax, DWORD PTR [esi]
  0000e	6a 00		 push	 0
  00010	8b ce		 mov	 ecx, esi
  00012	ff 90 9c 00 00
	00		 call	 DWORD PTR [eax+156]

; 100  : 		return CreateFireBall( GetAttribute()->m_WeaponEffect );

  00018	8b 06		 mov	 eax, DWORD PTR [esi]
  0001a	8b ce		 mov	 ecx, esi
  0001c	ff 90 3c 01 00
	00		 call	 DWORD PTR [eax+316]
  00022	05 34 01 00 00	 add	 eax, 308		; 00000134H
  00027	50		 push	 eax
  00028	8b ce		 mov	 ecx, esi
  0002a	e8 00 00 00 00	 call	 ?CreateFireBall@ioTraceWeapon6@@IAE_NABVioHashString@@@Z ; ioTraceWeapon6::CreateFireBall
  0002f	5e		 pop	 esi

; 104  : }

  00030	c3		 ret	 0
$LN1@InitResour:

; 101  : 	}
; 102  : 
; 103  : 	return false;

  00031	32 c0		 xor	 al, al
  00033	5e		 pop	 esi

; 104  : }

  00034	c3		 ret	 0
?InitResource@ioTraceWeapon6@@UAE_NXZ ENDP		; ioTraceWeapon6::InitResource
_TEXT	ENDS
PUBLIC	_vPos$GSCopy$
PUBLIC	?SetStartPosition@ioTraceWeapon6@@UAEXABUD3DXVECTOR3@@PAVioPlayStage@@@Z ; ioTraceWeapon6::SetStartPosition
EXTRN	__imp_?HasLinkedSystem@ioEffect@@QBE_NXZ:PROC
;	COMDAT xdata$x
; File d:\lost saga for developer\youtube\tutorial\source\src\lsclient\encryptvalue.h
xdata$x	SEGMENT
__unwindtable$?SetStartPosition@ioTraceWeapon6@@UAEXABUD3DXVECTOR3@@PAVioPlayStage@@@Z DD 0ffffffffH
	DD	FLAT:__unwindfunclet$?SetStartPosition@ioTraceWeapon6@@UAEXABUD3DXVECTOR3@@PAVioPlayStage@@@Z$0
__ehfuncinfo$?SetStartPosition@ioTraceWeapon6@@UAEXABUD3DXVECTOR3@@PAVioPlayStage@@@Z DD 019930522H
	DD	01H
	DD	FLAT:__unwindtable$?SetStartPosition@ioTraceWeapon6@@UAEXABUD3DXVECTOR3@@PAVioPlayStage@@@Z
	DD	2 DUP(00H)
	DD	2 DUP(00H)
	DD	00H
	DD	01H
; Function compile flags: /Ogsp
; File d:\lost saga for developer\youtube\tutorial\source\src\lsclient\iotraceweapon6.cpp
xdata$x	ENDS
;	COMDAT ?SetStartPosition@ioTraceWeapon6@@UAEXABUD3DXVECTOR3@@PAVioPlayStage@@@Z
_TEXT	SEGMENT
tv418 = -80						; size = 4
tv378 = -80						; size = 4
$T536597 = -80						; size = 4
_vPos$GSCopy$ = -76					; size = 4
_value$536638 = -76					; size = 4
_value$536619 = -76					; size = 4
$T536593 = -69						; size = 1
$T536594 = -68						; size = 16
$T531778 = -64						; size = 12
$T531773 = -64						; size = 12
$T531772 = -52						; size = 12
_vNewPos$ = -40						; size = 12
$T531777 = -28						; size = 12
_vNewPos$531774 = -28					; size = 12
__$EHRec$ = -12						; size = 12
_vPos$ = 8						; size = 4
_pStage$ = 12						; size = 4
?SetStartPosition@ioTraceWeapon6@@UAEXABUD3DXVECTOR3@@PAVioPlayStage@@@Z PROC ; ioTraceWeapon6::SetStartPosition, COMDAT
; _this$ = ecx

; 141  : {	

  00000	6a 44		 push	 68			; 00000044H
  00002	b8 00 00 00 00	 mov	 eax, __ehhandler$?SetStartPosition@ioTraceWeapon6@@UAEXABUD3DXVECTOR3@@PAVioPlayStage@@@Z
  00007	e8 00 00 00 00	 call	 __EH_prolog3_GS
  0000c	83 65 b0 00	 and	 DWORD PTR $T536597[ebp], 0

; 142  : 	if( m_pFireBall && m_pFireBall->GetSkeletonName().IsEmpty() && m_pFireBall->HasLinkedSystem() )

  00010	8b 45 08	 mov	 eax, DWORD PTR _vPos$[ebp]
  00013	8b d9		 mov	 ebx, ecx
  00015	8b 8b 28 0a 00
	00		 mov	 ecx, DWORD PTR [ebx+2600]
  0001b	89 45 b4	 mov	 DWORD PTR _vPos$GSCopy$[ebp], eax
  0001e	85 c9		 test	 ecx, ecx
  00020	74 35		 je	 SHORT $LN6@SetStartPo
  00022	8d 45 bc	 lea	 eax, DWORD PTR $T536594[ebp]
  00025	50		 push	 eax
  00026	ff 15 00 00 00
	00		 call	 DWORD PTR __imp_?GetSkeletonName@ioEffect@@QBE?AVioHashString@@XZ
  0002c	83 65 fc 00	 and	 DWORD PTR __$EHRec$[ebp+8], 0
  00030	8b c8		 mov	 ecx, eax
  00032	c7 45 b0 01 00
	00 00		 mov	 DWORD PTR $T536597[ebp], 1
  00039	ff 15 00 00 00
	00		 call	 DWORD PTR __imp_?IsEmpty@ioHashString@@QBE_NXZ
  0003f	84 c0		 test	 al, al
  00041	74 14		 je	 SHORT $LN6@SetStartPo
  00043	8b 8b 28 0a 00
	00		 mov	 ecx, DWORD PTR [ebx+2600]
  00049	ff 15 00 00 00
	00		 call	 DWORD PTR __imp_?HasLinkedSystem@ioEffect@@QBE_NXZ
  0004f	c6 45 bb 01	 mov	 BYTE PTR $T536593[ebp], 1
  00053	84 c0		 test	 al, al
  00055	75 04		 jne	 SHORT $LN7@SetStartPo
$LN6@SetStartPo:
  00057	c6 45 bb 00	 mov	 BYTE PTR $T536593[ebp], 0
$LN7@SetStartPo:
  0005b	83 4d fc ff	 or	 DWORD PTR __$EHRec$[ebp+8], -1
  0005f	f6 45 b0 01	 test	 BYTE PTR $T536597[ebp], 1
  00063	74 09		 je	 SHORT $LN10@SetStartPo
  00065	8d 4d bc	 lea	 ecx, DWORD PTR $T536594[ebp]
  00068	ff 15 00 00 00
	00		 call	 DWORD PTR __imp_??1ioHashString@@QAE@XZ
$LN10@SetStartPo:

; 143  : 	{
; 144  : 		if( GetOwner() )

  0006e	8b cb		 mov	 ecx, ebx
  00070	e8 00 00 00 00	 call	 ?GetOwner@ioWeapon@@QBEPAVioBaseChar@@XZ ; ioWeapon::GetOwner
  00075	80 7d bb 00	 cmp	 BYTE PTR $T536593[ebp], 0
  00079	0f 84 a5 00 00
	00		 je	 $LN3@SetStartPo
  0007f	85 c0		 test	 eax, eax
  00081	74 64		 je	 SHORT $LN2@SetStartPo

; 145  : 		{
; 146  : 			m_vMoveDir = GetOwner()->GetTargetRot() * D3DXVECTOR3( 0.0f, 0.0f, -FLOAT1 );

  00083	b8 01 00 00 00	 mov	 eax, 1
  00088	0f 57 c0	 xorps	 xmm0, xmm0
  0008b	89 45 b0	 mov	 DWORD PTR tv418[ebp], eax
  0008e	db 45 b0	 fild	 DWORD PTR tv418[ebp]
  00091	f3 0f 11 45 cc	 movss	 DWORD PTR $T531772[ebp], xmm0
  00096	f3 0f 11 45 d0	 movss	 DWORD PTR $T531772[ebp+4], xmm0
  0009b	85 c0		 test	 eax, eax
  0009d	79 06		 jns	 SHORT $LN33@SetStartPo
  0009f	d8 05 00 00 00
	00		 fadd	 DWORD PTR __real@4f800000
$LN33@SetStartPo:
  000a5	d9 e0		 fchs
  000a7	8b cb		 mov	 ecx, ebx
  000a9	d9 5d d4	 fstp	 DWORD PTR $T531772[ebp+8]
  000ac	e8 00 00 00 00	 call	 ?GetOwner@ioWeapon@@QBEPAVioBaseChar@@XZ ; ioWeapon::GetOwner
  000b1	8d 4d cc	 lea	 ecx, DWORD PTR $T531772[ebp]
  000b4	51		 push	 ecx
  000b5	05 a4 06 00 00	 add	 eax, 1700		; 000006a4H
  000ba	50		 push	 eax
  000bb	8d 45 c0	 lea	 eax, DWORD PTR $T531773[ebp]
  000be	50		 push	 eax
  000bf	ff 15 00 00 00
	00		 call	 DWORD PTR __imp_??D@YA?AUD3DXVECTOR3@@ABUD3DXQUATERNION@@ABU0@@Z
  000c5	8b f0		 mov	 esi, eax
  000c7	8d bb d8 09 00
	00		 lea	 edi, DWORD PTR [ebx+2520]
  000cd	a5		 movsd
  000ce	a5		 movsd
  000cf	83 c4 0c	 add	 esp, 12			; 0000000cH

; 147  : 			SetOrientation( GetOwner()->GetTargetRot() );

  000d2	8b cb		 mov	 ecx, ebx
  000d4	a5		 movsd
  000d5	e8 00 00 00 00	 call	 ?GetOwner@ioWeapon@@QBEPAVioBaseChar@@XZ ; ioWeapon::GetOwner
  000da	05 a4 06 00 00	 add	 eax, 1700		; 000006a4H
  000df	50		 push	 eax
  000e0	8b cb		 mov	 ecx, ebx
  000e2	e8 00 00 00 00	 call	 ?SetOrientation@ioWeapon@@QAEXABUD3DXQUATERNION@@@Z ; ioWeapon::SetOrientation
$LN2@SetStartPo:

; 148  : 		}
; 149  : 
; 150  : 		D3DXVECTOR3 vNewPos = vPos;

  000e7	8b 75 b4	 mov	 esi, DWORD PTR _vPos$GSCopy$[ebp]
  000ea	8d 7d e4	 lea	 edi, DWORD PTR _vNewPos$531774[ebp]
  000ed	a5		 movsd
  000ee	a5		 movsd

; 151  : 		vNewPos.y += m_fStartHeight;

  000ef	8d 45 b4	 lea	 eax, DWORD PTR _value$536619[ebp]
  000f2	50		 push	 eax
  000f3	8d 8b 80 0a 00
	00		 lea	 ecx, DWORD PTR [ebx+2688]
  000f9	a5		 movsd
  000fa	e8 00 00 00 00	 call	 ?DecryptValueToPool@?$CEncrypt@M@@QAEXPAM@Z ; CEncrypt<float>::DecryptValueToPool
  000ff	f3 0f 10 4d e8	 movss	 xmm1, DWORD PTR _vNewPos$531774[ebp+4]
  00104	f3 0f 10 45 b4	 movss	 xmm0, DWORD PTR _value$536619[ebp]
  00109	0f 5a c0	 cvtps2pd xmm0, xmm0
  0010c	0f 5a c9	 cvtps2pd xmm1, xmm1
  0010f	f2 0f 58 c1	 addsd	 xmm0, xmm1
  00113	66 0f 5a c0	 cvtpd2ps xmm0, xmm0
  00117	f3 0f 11 45 e8	 movss	 DWORD PTR _vNewPos$531774[ebp+4], xmm0

; 152  : 		SetPosition( vNewPos );

  0011c	8d 45 e4	 lea	 eax, DWORD PTR _vNewPos$531774[ebp]

; 153  : 		m_vStartPos = GetPosition();
; 154  : 		return;

  0011f	e9 a0 00 00 00	 jmp	 $LN35@SetStartPo
$LN3@SetStartPo:

; 155  : 	}
; 156  : 
; 157  : 	if( GetOwner() )

  00124	85 c0		 test	 eax, eax
  00126	74 64		 je	 SHORT $LN1@SetStartPo

; 158  : 	{
; 159  : 		m_vMoveDir = GetOwner()->GetTargetRot() * D3DXVECTOR3( 0.0f, 0.0f, -FLOAT1 );

  00128	b8 01 00 00 00	 mov	 eax, 1
  0012d	0f 57 c0	 xorps	 xmm0, xmm0
  00130	89 45 b0	 mov	 DWORD PTR tv378[ebp], eax
  00133	db 45 b0	 fild	 DWORD PTR tv378[ebp]
  00136	f3 0f 11 45 e4	 movss	 DWORD PTR $T531777[ebp], xmm0
  0013b	f3 0f 11 45 e8	 movss	 DWORD PTR $T531777[ebp+4], xmm0
  00140	85 c0		 test	 eax, eax
  00142	79 06		 jns	 SHORT $LN34@SetStartPo
  00144	d8 05 00 00 00
	00		 fadd	 DWORD PTR __real@4f800000
$LN34@SetStartPo:
  0014a	d9 e0		 fchs
  0014c	8b cb		 mov	 ecx, ebx
  0014e	d9 5d ec	 fstp	 DWORD PTR $T531777[ebp+8]
  00151	e8 00 00 00 00	 call	 ?GetOwner@ioWeapon@@QBEPAVioBaseChar@@XZ ; ioWeapon::GetOwner
  00156	8d 4d e4	 lea	 ecx, DWORD PTR $T531777[ebp]
  00159	51		 push	 ecx
  0015a	05 a4 06 00 00	 add	 eax, 1700		; 000006a4H
  0015f	50		 push	 eax
  00160	8d 45 c0	 lea	 eax, DWORD PTR $T531778[ebp]
  00163	50		 push	 eax
  00164	ff 15 00 00 00
	00		 call	 DWORD PTR __imp_??D@YA?AUD3DXVECTOR3@@ABUD3DXQUATERNION@@ABU0@@Z
  0016a	8b f0		 mov	 esi, eax
  0016c	8d bb d8 09 00
	00		 lea	 edi, DWORD PTR [ebx+2520]
  00172	a5		 movsd
  00173	a5		 movsd
  00174	83 c4 0c	 add	 esp, 12			; 0000000cH

; 160  : 		SetOrientation( GetOwner()->GetTargetRot() );

  00177	8b cb		 mov	 ecx, ebx
  00179	a5		 movsd
  0017a	e8 00 00 00 00	 call	 ?GetOwner@ioWeapon@@QBEPAVioBaseChar@@XZ ; ioWeapon::GetOwner
  0017f	05 a4 06 00 00	 add	 eax, 1700		; 000006a4H
  00184	50		 push	 eax
  00185	8b cb		 mov	 ecx, ebx
  00187	e8 00 00 00 00	 call	 ?SetOrientation@ioWeapon@@QAEXABUD3DXQUATERNION@@@Z ; ioWeapon::SetOrientation
$LN1@SetStartPo:

; 161  : 	}
; 162  : 
; 163  : 	D3DXVECTOR3 vNewPos = vPos;

  0018c	8b 75 b4	 mov	 esi, DWORD PTR _vPos$GSCopy$[ebp]
  0018f	8d 7d d8	 lea	 edi, DWORD PTR _vNewPos$[ebp]
  00192	a5		 movsd
  00193	a5		 movsd

; 164  : 	vNewPos.y += m_fStartHeight;

  00194	8d 45 b4	 lea	 eax, DWORD PTR _value$536638[ebp]
  00197	50		 push	 eax
  00198	8d 8b 80 0a 00
	00		 lea	 ecx, DWORD PTR [ebx+2688]
  0019e	a5		 movsd
  0019f	e8 00 00 00 00	 call	 ?DecryptValueToPool@?$CEncrypt@M@@QAEXPAM@Z ; CEncrypt<float>::DecryptValueToPool
  001a4	f3 0f 10 4d dc	 movss	 xmm1, DWORD PTR _vNewPos$[ebp+4]
  001a9	f3 0f 10 45 b4	 movss	 xmm0, DWORD PTR _value$536638[ebp]
  001ae	0f 5a c0	 cvtps2pd xmm0, xmm0
  001b1	0f 5a c9	 cvtps2pd xmm1, xmm1
  001b4	f2 0f 58 c1	 addsd	 xmm0, xmm1
  001b8	66 0f 5a c0	 cvtpd2ps xmm0, xmm0
  001bc	f3 0f 11 45 dc	 movss	 DWORD PTR _vNewPos$[ebp+4], xmm0

; 165  : 	SetPosition( vNewPos );

  001c1	8d 45 d8	 lea	 eax, DWORD PTR _vNewPos$[ebp]
$LN35@SetStartPo:
  001c4	50		 push	 eax
  001c5	8b cb		 mov	 ecx, ebx
  001c7	e8 00 00 00 00	 call	 ?SetPosition@ioWeapon@@QAEXABUD3DXVECTOR3@@@Z ; ioWeapon::SetPosition

; 166  : 	m_vStartPos = GetPosition();	

  001cc	8b 03		 mov	 eax, DWORD PTR [ebx]
  001ce	8b cb		 mov	 ecx, ebx
  001d0	ff 50 70	 call	 DWORD PTR [eax+112]
  001d3	8d bb 98 08 00
	00		 lea	 edi, DWORD PTR [ebx+2200]
  001d9	8b f0		 mov	 esi, eax
  001db	a5		 movsd
  001dc	a5		 movsd
  001dd	a5		 movsd

; 167  : }

  001de	e8 00 00 00 00	 call	 __EH_epilog3_GS
  001e3	c2 08 00	 ret	 8
_TEXT	ENDS
;	COMDAT text$x
text$x	SEGMENT
__unwindfunclet$?SetStartPosition@ioTraceWeapon6@@UAEXABUD3DXVECTOR3@@PAVioPlayStage@@@Z$0:
  00000	8b 45 b0	 mov	 eax, DWORD PTR $T536597[ebp]
  00003	83 e0 01	 and	 eax, 1
  00006	0f 84 0d 00 00
	00		 je	 $LN9@SetStartPo
  0000c	83 65 b0 fe	 and	 DWORD PTR $T536597[ebp], -2 ; fffffffeH
  00010	8d 4d bc	 lea	 ecx, DWORD PTR $T536594[ebp]
  00013	ff 25 00 00 00
	00		 jmp	 DWORD PTR __imp_??1ioHashString@@QAE@XZ
$LN9@SetStartPo:
  00019	c3		 ret	 0
__ehhandler$?SetStartPosition@ioTraceWeapon6@@UAEXABUD3DXVECTOR3@@PAVioPlayStage@@@Z:
  0001a	8b 54 24 08	 mov	 edx, DWORD PTR [esp+8]
  0001e	8d 42 0c	 lea	 eax, DWORD PTR [edx+12]
  00021	8b 4a ac	 mov	 ecx, DWORD PTR [edx-84]
  00024	33 c8		 xor	 ecx, eax
  00026	e8 00 00 00 00	 call	 @__security_check_cookie@4
  0002b	8b 4a fc	 mov	 ecx, DWORD PTR [edx-4]
  0002e	33 c8		 xor	 ecx, eax
  00030	e8 00 00 00 00	 call	 @__security_check_cookie@4
  00035	b8 00 00 00 00	 mov	 eax, OFFSET __ehfuncinfo$?SetStartPosition@ioTraceWeapon6@@UAEXABUD3DXVECTOR3@@PAVioPlayStage@@@Z
  0003a	e9 00 00 00 00	 jmp	 ___CxxFrameHandler3
text$x	ENDS
?SetStartPosition@ioTraceWeapon6@@UAEXABUD3DXVECTOR3@@PAVioPlayStage@@@Z ENDP ; ioTraceWeapon6::SetStartPosition
PUBLIC	__$ArrayPad$
PUBLIC	?SetTraceState@ioTraceWeapon6@@QAEXPAVioPlayStage@@_N@Z ; ioTraceWeapon6::SetTraceState
EXTRN	??1SP2Packet@@UAE@XZ:PROC			; SP2Packet::~SP2Packet
EXTRN	?SendToAllPlayingUser@P2PNetwork@@YAXAAVSP2Packet@@PAVioBaseChar@@@Z:PROC ; P2PNetwork::SendToAllPlayingUser
EXTRN	??6SP2Packet@@QAEAAV0@ABUD3DXVECTOR3@@@Z:PROC	; SP2Packet::operator<<
EXTRN	??6SP2Packet@@QAEAAV0@K@Z:PROC			; SP2Packet::operator<<
EXTRN	??6SP2Packet@@QAEAAV0@ABVioHashString@@@Z:PROC	; SP2Packet::operator<<
EXTRN	??0SP2Packet@@QAE@K@Z:PROC			; SP2Packet::SP2Packet
EXTRN	?IsNetworkMode@ioPlayStage@@QAE_NXZ:PROC	; ioPlayStage::IsNetworkMode
EXTRN	?IsNetworkPlaying@P2PNetwork@@YA_NXZ:PROC	; P2PNetwork::IsNetworkPlaying
EXTRN	__imp_?GetLoopSec@ioFrameTimer@@QBEKXZ:PROC
EXTRN	__imp_?GetSingleton@ioFrameTimer@@SAAAV1@XZ:PROC
EXTRN	__chkstk:PROC
;	COMDAT xdata$x
; File d:\lost saga for developer\youtube\tutorial\source\src\lsclient\ioweapon.h
xdata$x	SEGMENT
__unwindtable$?SetTraceState@ioTraceWeapon6@@QAEXPAVioPlayStage@@_N@Z DD 0ffffffffH
	DD	FLAT:__unwindfunclet$?SetTraceState@ioTraceWeapon6@@QAEXPAVioPlayStage@@_N@Z$0
__ehfuncinfo$?SetTraceState@ioTraceWeapon6@@QAEXPAVioPlayStage@@_N@Z DD 019930522H
	DD	01H
	DD	FLAT:__unwindtable$?SetTraceState@ioTraceWeapon6@@QAEXPAVioPlayStage@@_N@Z
	DD	2 DUP(00H)
	DD	2 DUP(00H)
	DD	00H
	DD	01H
; Function compile flags: /Ogsp
; File d:\lost saga for developer\youtube\tutorial\source\src\lsclient\iotraceweapon6.cpp
xdata$x	ENDS
;	COMDAT ?SetTraceState@ioTraceWeapon6@@QAEXPAVioPlayStage@@_N@Z
_TEXT	SEGMENT
_value$536658 = -32812					; size = 4
_kPacket$532008 = -32808				; size = 32792
__$ArrayPad$ = -16					; size = 4
__$EHRec$ = -12						; size = 12
_pStage$ = 8						; size = 4
_bSendNetwork$ = 12					; size = 1
?SetTraceState@ioTraceWeapon6@@QAEXPAVioPlayStage@@_N@Z PROC ; ioTraceWeapon6::SetTraceState, COMDAT
; _this$ = ecx

; 390  : {

  00000	55		 push	 ebp
  00001	8b ec		 mov	 ebp, esp
  00003	6a ff		 push	 -1
  00005	68 00 00 00 00	 push	 __ehhandler$?SetTraceState@ioTraceWeapon6@@QAEXPAVioPlayStage@@_N@Z
  0000a	64 a1 00 00 00
	00		 mov	 eax, DWORD PTR fs:0
  00010	50		 push	 eax
  00011	b8 20 80 00 00	 mov	 eax, 32800		; 00008020H
  00016	e8 00 00 00 00	 call	 __chkstk
  0001b	a1 00 00 00 00	 mov	 eax, DWORD PTR ___security_cookie
  00020	33 c5		 xor	 eax, ebp
  00022	89 45 f0	 mov	 DWORD PTR __$ArrayPad$[ebp], eax
  00025	56		 push	 esi
  00026	57		 push	 edi
  00027	50		 push	 eax
  00028	8d 45 f4	 lea	 eax, DWORD PTR __$EHRec$[ebp]
  0002b	64 a3 00 00 00
	00		 mov	 DWORD PTR fs:0, eax
  00031	8b 7d 08	 mov	 edi, DWORD PTR _pStage$[ebp]
  00034	8b f1		 mov	 esi, ecx

; 391  : 	m_State = TS_TRACING;
; 392  : 	m_dwTraceEndTime = FRAMEGETTIME() + m_dwTraceDuration;

  00036	8d 85 d4 7f ff
	ff		 lea	 eax, DWORD PTR _value$536658[ebp]
  0003c	50		 push	 eax
  0003d	8d 8e f4 09 00
	00		 lea	 ecx, DWORD PTR [esi+2548]
  00043	c7 86 94 08 00
	00 02 00 00 00	 mov	 DWORD PTR [esi+2196], 2
  0004d	e8 00 00 00 00	 call	 ?DecryptValueToPool@?$CEncrypt@K@@QAEXPAK@Z ; CEncrypt<unsigned long>::DecryptValueToPool
  00052	ff 15 00 00 00
	00		 call	 DWORD PTR __imp_?GetSingleton@ioFrameTimer@@SAAAV1@XZ
  00058	8b c8		 mov	 ecx, eax
  0005a	ff 15 00 00 00
	00		 call	 DWORD PTR __imp_?GetLoopSec@ioFrameTimer@@QBEKXZ
  00060	03 85 d4 7f ff
	ff		 add	 eax, DWORD PTR _value$536658[ebp]

; 393  : 
; 394  : 	if( bSendNetwork )

  00066	80 7d 0c 00	 cmp	 BYTE PTR _bSendNetwork$[ebp], 0
  0006a	89 86 24 0a 00
	00		 mov	 DWORD PTR [esi+2596], eax
  00070	0f 84 90 00 00
	00		 je	 $LN1@SetTraceSt

; 395  : 	{
; 396  : 		if( P2PNetwork::IsNetworkPlaying() && pStage->IsNetworkMode() )

  00076	e8 00 00 00 00	 call	 ?IsNetworkPlaying@P2PNetwork@@YA_NXZ ; P2PNetwork::IsNetworkPlaying
  0007b	84 c0		 test	 al, al
  0007d	0f 84 83 00 00
	00		 je	 $LN1@SetTraceSt
  00083	8b cf		 mov	 ecx, edi
  00085	e8 00 00 00 00	 call	 ?IsNetworkMode@ioPlayStage@@QAE_NXZ ; ioPlayStage::IsNetworkMode
  0008a	84 c0		 test	 al, al
  0008c	74 78		 je	 SHORT $LN1@SetTraceSt

; 397  : 		{
; 398  : 			SP2Packet kPacket( CUPK_TRACE_WEAPON );

  0008e	68 96 41 00 00	 push	 16790			; 00004196H
  00093	8d 8d d8 7f ff
	ff		 lea	 ecx, DWORD PTR _kPacket$532008[ebp]
  00099	e8 00 00 00 00	 call	 ??0SP2Packet@@QAE@K@Z	; SP2Packet::SP2Packet
  0009e	83 65 fc 00	 and	 DWORD PTR __$EHRec$[ebp+8], 0

; 399  : 			kPacket << GetOwnerName();

  000a2	8d 46 10	 lea	 eax, DWORD PTR [esi+16]
  000a5	50		 push	 eax
  000a6	8d 8d d8 7f ff
	ff		 lea	 ecx, DWORD PTR _kPacket$532008[ebp]
  000ac	e8 00 00 00 00	 call	 ??6SP2Packet@@QAEAAV0@ABVioHashString@@@Z ; SP2Packet::operator<<

; 400  : 			kPacket << m_dwWeaponIdx;

  000b1	ff b6 b8 04 00
	00		 push	 DWORD PTR [esi+1208]
  000b7	8d 8d d8 7f ff
	ff		 lea	 ecx, DWORD PTR _kPacket$532008[ebp]
  000bd	e8 00 00 00 00	 call	 ??6SP2Packet@@QAEAAV0@K@Z ; SP2Packet::operator<<

; 401  : 			kPacket << GetPosition();

  000c2	8b 06		 mov	 eax, DWORD PTR [esi]
  000c4	8b ce		 mov	 ecx, esi
  000c6	ff 50 70	 call	 DWORD PTR [eax+112]
  000c9	50		 push	 eax
  000ca	8d 8d d8 7f ff
	ff		 lea	 ecx, DWORD PTR _kPacket$532008[ebp]
  000d0	e8 00 00 00 00	 call	 ??6SP2Packet@@QAEAAV0@ABUD3DXVECTOR3@@@Z ; SP2Packet::operator<<

; 402  : 			kPacket << m_TargetName;

  000d5	81 c6 e4 09 00
	00		 add	 esi, 2532		; 000009e4H
  000db	56		 push	 esi
  000dc	8d 8d d8 7f ff
	ff		 lea	 ecx, DWORD PTR _kPacket$532008[ebp]
  000e2	e8 00 00 00 00	 call	 ??6SP2Packet@@QAEAAV0@ABVioHashString@@@Z ; SP2Packet::operator<<

; 403  : 			P2PNetwork::SendToAllPlayingUser( kPacket );

  000e7	8d 85 d8 7f ff
	ff		 lea	 eax, DWORD PTR _kPacket$532008[ebp]
  000ed	6a 00		 push	 0
  000ef	50		 push	 eax
  000f0	e8 00 00 00 00	 call	 ?SendToAllPlayingUser@P2PNetwork@@YAXAAVSP2Packet@@PAVioBaseChar@@@Z ; P2PNetwork::SendToAllPlayingUser

; 404  : 		}

  000f5	83 4d fc ff	 or	 DWORD PTR __$EHRec$[ebp+8], -1
  000f9	59		 pop	 ecx
  000fa	59		 pop	 ecx
  000fb	8d 8d d8 7f ff
	ff		 lea	 ecx, DWORD PTR _kPacket$532008[ebp]
  00101	e8 00 00 00 00	 call	 ??1SP2Packet@@UAE@XZ	; SP2Packet::~SP2Packet
$LN1@SetTraceSt:

; 405  : 	}
; 406  : }

  00106	8b 4d f4	 mov	 ecx, DWORD PTR __$EHRec$[ebp]
  00109	64 89 0d 00 00
	00 00		 mov	 DWORD PTR fs:0, ecx
  00110	59		 pop	 ecx
  00111	5f		 pop	 edi
  00112	5e		 pop	 esi
  00113	8b 4d f0	 mov	 ecx, DWORD PTR __$ArrayPad$[ebp]
  00116	33 cd		 xor	 ecx, ebp
  00118	e8 00 00 00 00	 call	 @__security_check_cookie@4
  0011d	c9		 leave
  0011e	c2 08 00	 ret	 8
_TEXT	ENDS
;	COMDAT text$x
text$x	SEGMENT
__unwindfunclet$?SetTraceState@ioTraceWeapon6@@QAEXPAVioPlayStage@@_N@Z$0:
  00000	8d 8d d8 7f ff
	ff		 lea	 ecx, DWORD PTR _kPacket$532008[ebp]
  00006	e9 00 00 00 00	 jmp	 ??1SP2Packet@@UAE@XZ	; SP2Packet::~SP2Packet
__ehhandler$?SetTraceState@ioTraceWeapon6@@QAEXPAVioPlayStage@@_N@Z:
  0000b	8b 54 24 08	 mov	 edx, DWORD PTR [esp+8]
  0000f	8d 42 0c	 lea	 eax, DWORD PTR [edx+12]
  00012	8b 8a d4 7f ff
	ff		 mov	 ecx, DWORD PTR [edx-32812]
  00018	33 c8		 xor	 ecx, eax
  0001a	e8 00 00 00 00	 call	 @__security_check_cookie@4
  0001f	8b 4a fc	 mov	 ecx, DWORD PTR [edx-4]
  00022	33 c8		 xor	 ecx, eax
  00024	e8 00 00 00 00	 call	 @__security_check_cookie@4
  00029	b8 00 00 00 00	 mov	 eax, OFFSET __ehfuncinfo$?SetTraceState@ioTraceWeapon6@@QAEXPAVioPlayStage@@_N@Z
  0002e	e9 00 00 00 00	 jmp	 ___CxxFrameHandler3
text$x	ENDS
?SetTraceState@ioTraceWeapon6@@QAEXPAVioPlayStage@@_N@Z ENDP ; ioTraceWeapon6::SetTraceState
PUBLIC	__$ArrayPad$
PUBLIC	?SetOwnerChargeScaleRate@ioTraceWeapon6@@MAEXM@Z ; ioTraceWeapon6::SetOwnerChargeScaleRate
; Function compile flags: /Ogsp
;	COMDAT ?SetOwnerChargeScaleRate@ioTraceWeapon6@@MAEXM@Z
_TEXT	SEGMENT
_value$536700 = -28					; size = 4
tv217 = -24						; size = 4
_value$536695 = -24					; size = 4
_value$536705 = -20					; size = 4
_value$536691 = -20					; size = 4
_value$536679 = -20					; size = 4
_vScale$532091 = -16					; size = 12
__$ArrayPad$ = -4					; size = 4
_fRate$ = 8						; size = 4
?SetOwnerChargeScaleRate@ioTraceWeapon6@@MAEXM@Z PROC	; ioTraceWeapon6::SetOwnerChargeScaleRate, COMDAT
; _this$ = ecx

; 542  : {

  00000	55		 push	 ebp
  00001	8b ec		 mov	 ebp, esp
  00003	83 ec 1c	 sub	 esp, 28			; 0000001cH
  00006	a1 00 00 00 00	 mov	 eax, DWORD PTR ___security_cookie
  0000b	33 c5		 xor	 eax, ebp
  0000d	89 45 fc	 mov	 DWORD PTR __$ArrayPad$[ebp], eax

; 543  : 	m_fOwnerChargeScaleRate = fRate;

  00010	f3 0f 10 45 08	 movss	 xmm0, DWORD PTR _fRate$[ebp]
  00015	53		 push	 ebx
  00016	56		 push	 esi
  00017	57		 push	 edi
  00018	8b f9		 mov	 edi, ecx
  0001a	8d 45 ec	 lea	 eax, DWORD PTR _value$536679[ebp]
  0001d	50		 push	 eax
  0001e	8d 8f b0 01 00
	00		 lea	 ecx, DWORD PTR [edi+432]
  00024	f3 0f 11 45 ec	 movss	 DWORD PTR _value$536679[ebp], xmm0
  00029	e8 00 00 00 00	 call	 ?EncryptValueToPool@?$CEncrypt@M@@AAEXPBD@Z ; CEncrypt<float>::EncryptValueToPool

; 544  : 
; 545  : 	if( m_fOwnerChargeScaleRate > FLOAT1 )

  0002e	b8 01 00 00 00	 mov	 eax, 1
  00033	8b d8		 mov	 ebx, eax
  00035	8d 45 ec	 lea	 eax, DWORD PTR _value$536691[ebp]
  00038	50		 push	 eax
  00039	8d 8f b0 01 00
	00		 lea	 ecx, DWORD PTR [edi+432]
  0003f	e8 00 00 00 00	 call	 ?DecryptValueToPool@?$CEncrypt@M@@QAEXPAM@Z ; CEncrypt<float>::DecryptValueToPool
  00044	d9 45 ec	 fld	 DWORD PTR _value$536691[ebp]
  00047	89 5d e8	 mov	 DWORD PTR tv217[ebp], ebx
  0004a	db 45 e8	 fild	 DWORD PTR tv217[ebp]
  0004d	85 db		 test	 ebx, ebx
  0004f	79 06		 jns	 SHORT $LN23@SetOwnerCh
  00051	d8 05 00 00 00
	00		 fadd	 DWORD PTR __real@4f800000
$LN23@SetOwnerCh:
  00057	d9 c9		 fxch	 ST(1)
  00059	df f1		 fcomip	 ST(1)
  0005b	dd d8		 fstp	 ST(0)
  0005d	76 57		 jbe	 SHORT $LN1@SetOwnerCh

; 546  : 	{
; 547  : 		D3DXVECTOR3 vScale( m_fOwnerChargeScaleRate, m_fOwnerChargeScaleRate, m_fOwnerChargeScaleRate );

  0005f	8d 45 e8	 lea	 eax, DWORD PTR _value$536695[ebp]
  00062	50		 push	 eax
  00063	8d 8f b0 01 00
	00		 lea	 ecx, DWORD PTR [edi+432]
  00069	e8 00 00 00 00	 call	 ?DecryptValueToPool@?$CEncrypt@M@@QAEXPAM@Z ; CEncrypt<float>::DecryptValueToPool
  0006e	8d 45 e4	 lea	 eax, DWORD PTR _value$536700[ebp]
  00071	50		 push	 eax
  00072	8d 8f b0 01 00
	00		 lea	 ecx, DWORD PTR [edi+432]
  00078	e8 00 00 00 00	 call	 ?DecryptValueToPool@?$CEncrypt@M@@QAEXPAM@Z ; CEncrypt<float>::DecryptValueToPool
  0007d	8d 45 ec	 lea	 eax, DWORD PTR _value$536705[ebp]
  00080	50		 push	 eax
  00081	8d 8f b0 01 00
	00		 lea	 ecx, DWORD PTR [edi+432]
  00087	e8 00 00 00 00	 call	 ?DecryptValueToPool@?$CEncrypt@M@@QAEXPAM@Z ; CEncrypt<float>::DecryptValueToPool
  0008c	f3 0f 10 45 ec	 movss	 xmm0, DWORD PTR _value$536705[ebp]

; 548  : 		GetParentSceneNode()->SetScale( vScale );

  00091	8b 4f 04	 mov	 ecx, DWORD PTR [edi+4]
  00094	f3 0f 11 45 f0	 movss	 DWORD PTR _vScale$532091[ebp], xmm0
  00099	f3 0f 10 45 e4	 movss	 xmm0, DWORD PTR _value$536700[ebp]
  0009e	f3 0f 11 45 f4	 movss	 DWORD PTR _vScale$532091[ebp+4], xmm0
  000a3	f3 0f 10 45 e8	 movss	 xmm0, DWORD PTR _value$536695[ebp]
  000a8	8d 55 f0	 lea	 edx, DWORD PTR _vScale$532091[ebp]
  000ab	f3 0f 11 45 f8	 movss	 DWORD PTR _vScale$532091[ebp+8], xmm0
  000b0	8b 01		 mov	 eax, DWORD PTR [ecx]
  000b2	52		 push	 edx
  000b3	ff 50 20	 call	 DWORD PTR [eax+32]
$LN1@SetOwnerCh:

; 549  : 	}
; 550  : }

  000b6	8b 4d fc	 mov	 ecx, DWORD PTR __$ArrayPad$[ebp]
  000b9	5f		 pop	 edi
  000ba	5e		 pop	 esi
  000bb	33 cd		 xor	 ecx, ebp
  000bd	5b		 pop	 ebx
  000be	e8 00 00 00 00	 call	 @__security_check_cookie@4
  000c3	c9		 leave
  000c4	c2 04 00	 ret	 4
?SetOwnerChargeScaleRate@ioTraceWeapon6@@MAEXM@Z ENDP	; ioTraceWeapon6::SetOwnerChargeScaleRate
_TEXT	ENDS
PUBLIC	__$ArrayPad$
PUBLIC	?UpdateWorldAttackBox@ioTraceWeapon6@@MAEXM_N@Z	; ioTraceWeapon6::UpdateWorldAttackBox
EXTRN	__imp_?SetNull@ioOrientBox@@QAEXXZ:PROC
EXTRN	__imp_?UNIT_ALL@ioMath@@2UD3DXVECTOR3@@A:BYTE
EXTRN	__imp_?Transform@ioOrientBox@@QAEXABUD3DXVECTOR3@@0ABUD3DXQUATERNION@@@Z:PROC
EXTRN	?GetOrientation@ioWeapon@@QBEABUD3DXQUATERNION@@XZ:PROC ; ioWeapon::GetOrientation
EXTRN	__imp_?IsNull@ioOrientBox@@QBE_NXZ:PROC
EXTRN	__imp_?SetExtents@ioOrientBox@@QAEXHM@Z:PROC
EXTRN	__imp_?GetExtents@ioOrientBox@@QBEMH@Z:PROC
; Function compile flags: /Ogsp
;	COMDAT ?UpdateWorldAttackBox@ioTraceWeapon6@@MAEXM_N@Z
_TEXT	SEGMENT
tv397 = -32						; size = 4
_value$536740 = -32					; size = 4
tv417 = -28						; size = 4
tv399 = -28						; size = 4
_value$536745 = -24					; size = 4
$T536728 = -24						; size = 4
_fMapCollisionRate$ = -24				; size = 4
tv411 = -20						; size = 4
tv405 = -20						; size = 4
_value$536750 = -20					; size = 4
_value$536736 = -20					; size = 4
_vScale$532104 = -16					; size = 12
__$ArrayPad$ = -4					; size = 4
_fTimePerSec$ = 8					; size = 4
_bSetNull$ = 12						; size = 1
?UpdateWorldAttackBox@ioTraceWeapon6@@MAEXM_N@Z PROC	; ioTraceWeapon6::UpdateWorldAttackBox, COMDAT
; _this$ = ecx

; 553  : {

  00000	55		 push	 ebp
  00001	8b ec		 mov	 ebp, esp
  00003	83 ec 20	 sub	 esp, 32			; 00000020H
  00006	a1 00 00 00 00	 mov	 eax, DWORD PTR ___security_cookie
  0000b	33 c5		 xor	 eax, ebp
  0000d	89 45 fc	 mov	 DWORD PTR __$ArrayPad$[ebp], eax
  00010	53		 push	 ebx
  00011	8b d9		 mov	 ebx, ecx

; 554  : 	if( !IsLive() || bSetNull )

  00013	80 bb 82 05 00
	00 00		 cmp	 BYTE PTR [ebx+1410], 0
  0001a	56		 push	 esi
  0001b	57		 push	 edi
  0001c	0f 84 b7 01 00
	00		 je	 $LN4@UpdateWorl
  00022	80 7d 0c 00	 cmp	 BYTE PTR _bSetNull$[ebp], 0
  00026	0f 85 ad 01 00
	00		 jne	 $LN4@UpdateWorl

; 558  : 		return;
; 559  : 	}
; 560  : 
; 561  : 	m_WorldAttackBox = GetLocalAttackBox();

  0002c	8b 03		 mov	 eax, DWORD PTR [ebx]
  0002e	ff 90 00 01 00
	00		 call	 DWORD PTR [eax+256]
  00034	6a 11		 push	 17			; 00000011H
  00036	59		 pop	 ecx
  00037	8b f0		 mov	 esi, eax
  00039	8d bb e8 04 00
	00		 lea	 edi, DWORD PTR [ebx+1256]
  0003f	f3 a5		 rep movsd

; 562  : 	m_WorldAttackBoxForMap = m_WorldAttackBox;

  00041	6a 11		 push	 17			; 00000011H
  00043	8b f0		 mov	 esi, eax

; 563  : 
; 564  : 	float fMapCollisionRate = GetAttribute()->m_fMapCollisionBoxRate;

  00045	8b 03		 mov	 eax, DWORD PTR [ebx]
  00047	59		 pop	 ecx
  00048	8d bb 2c 05 00
	00		 lea	 edi, DWORD PTR [ebx+1324]
  0004e	f3 a5		 rep movsd
  00050	8b cb		 mov	 ecx, ebx
  00052	ff 90 3c 01 00
	00		 call	 DWORD PTR [eax+316]

; 565  : 	m_WorldAttackBoxForMap.SetExtents( 0, m_WorldAttackBox.GetExtents(0)*fMapCollisionRate );

  00058	6a 00		 push	 0
  0005a	d9 80 a8 01 00
	00		 fld	 DWORD PTR [eax+424]
  00060	8d 8b e8 04 00
	00		 lea	 ecx, DWORD PTR [ebx+1256]
  00066	d9 5d e8	 fstp	 DWORD PTR _fMapCollisionRate$[ebp]
  00069	ff 15 00 00 00
	00		 call	 DWORD PTR __imp_?GetExtents@ioOrientBox@@QBEMH@Z
  0006f	d8 4d e8	 fmul	 DWORD PTR _fMapCollisionRate$[ebp]
  00072	8b 35 00 00 00
	00		 mov	 esi, DWORD PTR __imp_?SetExtents@ioOrientBox@@QAEXHM@Z
  00078	51		 push	 ecx
  00079	8d 8b 2c 05 00
	00		 lea	 ecx, DWORD PTR [ebx+1324]
  0007f	d9 5d e4	 fstp	 DWORD PTR tv417[ebp]
  00082	d9 45 e4	 fld	 DWORD PTR tv417[ebp]
  00085	89 4d e4	 mov	 DWORD PTR tv399[ebp], ecx
  00088	d9 1c 24	 fstp	 DWORD PTR [esp]
  0008b	6a 00		 push	 0
  0008d	ff d6		 call	 esi

; 566  : 	m_WorldAttackBoxForMap.SetExtents( 1, m_WorldAttackBox.GetExtents(1)*fMapCollisionRate );

  0008f	6a 01		 push	 1
  00091	8d 8b e8 04 00
	00		 lea	 ecx, DWORD PTR [ebx+1256]
  00097	ff 15 00 00 00
	00		 call	 DWORD PTR __imp_?GetExtents@ioOrientBox@@QBEMH@Z
  0009d	d8 4d e8	 fmul	 DWORD PTR _fMapCollisionRate$[ebp]
  000a0	51		 push	 ecx
  000a1	8b 4d e4	 mov	 ecx, DWORD PTR tv399[ebp]
  000a4	d9 5d ec	 fstp	 DWORD PTR tv411[ebp]
  000a7	d9 45 ec	 fld	 DWORD PTR tv411[ebp]
  000aa	d9 1c 24	 fstp	 DWORD PTR [esp]
  000ad	6a 01		 push	 1
  000af	ff d6		 call	 esi

; 567  : 	m_WorldAttackBoxForMap.SetExtents( 2, m_WorldAttackBox.GetExtents(2)*fMapCollisionRate );

  000b1	6a 02		 push	 2
  000b3	8d 8b e8 04 00
	00		 lea	 ecx, DWORD PTR [ebx+1256]
  000b9	ff 15 00 00 00
	00		 call	 DWORD PTR __imp_?GetExtents@ioOrientBox@@QBEMH@Z
  000bf	d8 4d e8	 fmul	 DWORD PTR _fMapCollisionRate$[ebp]
  000c2	51		 push	 ecx
  000c3	8b 4d e4	 mov	 ecx, DWORD PTR tv399[ebp]
  000c6	d9 5d ec	 fstp	 DWORD PTR tv405[ebp]
  000c9	d9 45 ec	 fld	 DWORD PTR tv405[ebp]
  000cc	d9 1c 24	 fstp	 DWORD PTR [esp]
  000cf	6a 02		 push	 2
  000d1	ff d6		 call	 esi

; 568  : 
; 569  : 	if( !m_WorldAttackBox.IsNull() )

  000d3	8d 8b e8 04 00
	00		 lea	 ecx, DWORD PTR [ebx+1256]
  000d9	ff 15 00 00 00
	00		 call	 DWORD PTR __imp_?IsNull@ioOrientBox@@QBE_NXZ
  000df	84 c0		 test	 al, al
  000e1	0f 85 08 01 00
	00		 jne	 $LN1@UpdateWorl

; 570  : 	{
; 571  : 		if( m_fOwnerChargeScaleRate > FLOAT1 )

  000e7	b8 01 00 00 00	 mov	 eax, 1
  000ec	89 45 e8	 mov	 DWORD PTR $T536728[ebp], eax
  000ef	8d 45 ec	 lea	 eax, DWORD PTR _value$536736[ebp]
  000f2	50		 push	 eax
  000f3	8d 8b b0 01 00
	00		 lea	 ecx, DWORD PTR [ebx+432]
  000f9	e8 00 00 00 00	 call	 ?DecryptValueToPool@?$CEncrypt@M@@QAEXPAM@Z ; CEncrypt<float>::DecryptValueToPool
  000fe	d9 45 ec	 fld	 DWORD PTR _value$536736[ebp]
  00101	8b 45 e8	 mov	 eax, DWORD PTR $T536728[ebp]
  00104	db 45 e8	 fild	 DWORD PTR $T536728[ebp]
  00107	85 c0		 test	 eax, eax
  00109	79 06		 jns	 SHORT $LN25@UpdateWorl
  0010b	d8 05 00 00 00
	00		 fadd	 DWORD PTR __real@4f800000
$LN25@UpdateWorl:
  00111	d9 c9		 fxch	 ST(1)
  00113	df f1		 fcomip	 ST(1)
  00115	dd d8		 fstp	 ST(0)
  00117	0f 86 88 00 00
	00		 jbe	 $LN2@UpdateWorl

; 572  : 		{
; 573  : 			D3DXVECTOR3 vScale( m_fOwnerChargeScaleRate, m_fOwnerChargeScaleRate, m_fOwnerChargeScaleRate );

  0011d	8d 45 e0	 lea	 eax, DWORD PTR _value$536740[ebp]
  00120	50		 push	 eax
  00121	8d 8b b0 01 00
	00		 lea	 ecx, DWORD PTR [ebx+432]
  00127	e8 00 00 00 00	 call	 ?DecryptValueToPool@?$CEncrypt@M@@QAEXPAM@Z ; CEncrypt<float>::DecryptValueToPool
  0012c	8d 45 e8	 lea	 eax, DWORD PTR _value$536745[ebp]
  0012f	50		 push	 eax
  00130	8d 8b b0 01 00
	00		 lea	 ecx, DWORD PTR [ebx+432]
  00136	e8 00 00 00 00	 call	 ?DecryptValueToPool@?$CEncrypt@M@@QAEXPAM@Z ; CEncrypt<float>::DecryptValueToPool
  0013b	8d 45 ec	 lea	 eax, DWORD PTR _value$536750[ebp]
  0013e	50		 push	 eax
  0013f	8d 8b b0 01 00
	00		 lea	 ecx, DWORD PTR [ebx+432]
  00145	e8 00 00 00 00	 call	 ?DecryptValueToPool@?$CEncrypt@M@@QAEXPAM@Z ; CEncrypt<float>::DecryptValueToPool
  0014a	f3 0f 10 45 ec	 movss	 xmm0, DWORD PTR _value$536750[ebp]
  0014f	f3 0f 11 45 f0	 movss	 DWORD PTR _vScale$532104[ebp], xmm0
  00154	f3 0f 10 45 e8	 movss	 xmm0, DWORD PTR _value$536745[ebp]
  00159	f3 0f 11 45 f4	 movss	 DWORD PTR _vScale$532104[ebp+4], xmm0
  0015e	f3 0f 10 45 e0	 movss	 xmm0, DWORD PTR _value$536740[ebp]

; 574  : 			m_WorldAttackBox.Transform( GetPosition(), vScale, GetOrientation() );

  00163	8b cb		 mov	 ecx, ebx
  00165	f3 0f 11 45 f8	 movss	 DWORD PTR _vScale$532104[ebp+8], xmm0
  0016a	e8 00 00 00 00	 call	 ?GetOrientation@ioWeapon@@QBEABUD3DXQUATERNION@@XZ ; ioWeapon::GetOrientation
  0016f	50		 push	 eax
  00170	8d 45 f0	 lea	 eax, DWORD PTR _vScale$532104[ebp]
  00173	50		 push	 eax
  00174	8b 03		 mov	 eax, DWORD PTR [ebx]
  00176	8b cb		 mov	 ecx, ebx
  00178	ff 50 70	 call	 DWORD PTR [eax+112]
  0017b	8b 35 00 00 00
	00		 mov	 esi, DWORD PTR __imp_?Transform@ioOrientBox@@QAEXABUD3DXVECTOR3@@0ABUD3DXQUATERNION@@@Z
  00181	50		 push	 eax
  00182	8d 8b e8 04 00
	00		 lea	 ecx, DWORD PTR [ebx+1256]
  00188	ff d6		 call	 esi

; 575  : 			m_WorldAttackBoxForMap.Transform( GetPosition(), vScale, GetOrientation() );

  0018a	8b cb		 mov	 ecx, ebx
  0018c	e8 00 00 00 00	 call	 ?GetOrientation@ioWeapon@@QBEABUD3DXQUATERNION@@XZ ; ioWeapon::GetOrientation
  00191	50		 push	 eax
  00192	8d 45 f0	 lea	 eax, DWORD PTR _vScale$532104[ebp]
  00195	50		 push	 eax
$LN26@UpdateWorl:
  00196	8b 03		 mov	 eax, DWORD PTR [ebx]
  00198	8b cb		 mov	 ecx, ebx
  0019a	ff 50 70	 call	 DWORD PTR [eax+112]
  0019d	8b 4d e4	 mov	 ecx, DWORD PTR tv399[ebp]
  001a0	50		 push	 eax
  001a1	ff d6		 call	 esi

; 576  : 		}
; 577  : 		else

  001a3	eb 4a		 jmp	 SHORT $LN1@UpdateWorl
$LN2@UpdateWorl:

; 578  : 		{
; 579  : 			m_WorldAttackBox.Transform( GetPosition(), ioMath::UNIT_ALL, GetOrientation() );

  001a5	8b cb		 mov	 ecx, ebx
  001a7	e8 00 00 00 00	 call	 ?GetOrientation@ioWeapon@@QBEABUD3DXQUATERNION@@XZ ; ioWeapon::GetOrientation
  001ac	50		 push	 eax
  001ad	ff 35 00 00 00
	00		 push	 DWORD PTR __imp_?UNIT_ALL@ioMath@@2UD3DXVECTOR3@@A
  001b3	8b 03		 mov	 eax, DWORD PTR [ebx]
  001b5	8b cb		 mov	 ecx, ebx
  001b7	ff 50 70	 call	 DWORD PTR [eax+112]
  001ba	8b 35 00 00 00
	00		 mov	 esi, DWORD PTR __imp_?Transform@ioOrientBox@@QAEXABUD3DXVECTOR3@@0ABUD3DXQUATERNION@@@Z
  001c0	50		 push	 eax
  001c1	8d 8b e8 04 00
	00		 lea	 ecx, DWORD PTR [ebx+1256]
  001c7	ff d6		 call	 esi

; 580  : 			m_WorldAttackBoxForMap.Transform( GetPosition(), ioMath::UNIT_ALL, GetOrientation() );

  001c9	8b cb		 mov	 ecx, ebx
  001cb	e8 00 00 00 00	 call	 ?GetOrientation@ioWeapon@@QBEABUD3DXQUATERNION@@XZ ; ioWeapon::GetOrientation
  001d0	50		 push	 eax
  001d1	ff 35 00 00 00
	00		 push	 DWORD PTR __imp_?UNIT_ALL@ioMath@@2UD3DXVECTOR3@@A
  001d7	eb bd		 jmp	 SHORT $LN26@UpdateWorl
$LN4@UpdateWorl:

; 555  : 	{
; 556  : 		m_WorldAttackBox.SetNull();

  001d9	8b 35 00 00 00
	00		 mov	 esi, DWORD PTR __imp_?SetNull@ioOrientBox@@QAEXXZ
  001df	8d 8b e8 04 00
	00		 lea	 ecx, DWORD PTR [ebx+1256]
  001e5	ff d6		 call	 esi

; 557  : 		m_WorldAttackBoxForMap.SetNull();

  001e7	8d 8b 2c 05 00
	00		 lea	 ecx, DWORD PTR [ebx+1324]
  001ed	ff d6		 call	 esi
$LN1@UpdateWorl:

; 581  : 		}
; 582  : 	}
; 583  : }

  001ef	8b 4d fc	 mov	 ecx, DWORD PTR __$ArrayPad$[ebp]
  001f2	5f		 pop	 edi
  001f3	5e		 pop	 esi
  001f4	33 cd		 xor	 ecx, ebp
  001f6	5b		 pop	 ebx
  001f7	e8 00 00 00 00	 call	 @__security_check_cookie@4
  001fc	c9		 leave
  001fd	c2 08 00	 ret	 8
?UpdateWorldAttackBox@ioTraceWeapon6@@MAEXM_N@Z ENDP	; ioTraceWeapon6::UpdateWorldAttackBox
_TEXT	ENDS
PUBLIC	_this$GSCopy$
PUBLIC	__$ArrayPad$
PUBLIC	?ProcessTrace@ioTraceWeapon6@@QAE_NUD3DXVECTOR3@@0M_N@Z ; ioTraceWeapon6::ProcessTrace
EXTRN	__imp_?UNIT_X@ioMath@@2UD3DXVECTOR3@@A:BYTE
EXTRN	_D3DXVec3Normalize@8:PROC
; Function compile flags: /Ogsp
;	COMDAT ?ProcessTrace@ioTraceWeapon6@@QAE_NUD3DXVECTOR3@@0M_N@Z
_TEXT	SEGMENT
_v$536962 = -224					; size = 12
_vPreDir$532136 = -212					; size = 12
$T532142 = -200						; size = 12
_v$536985 = -188					; size = 12
_v$537028 = -176					; size = 12
_v$536939 = -164					; size = 12
$T532135 = -152						; size = 12
_vCurForce$532137 = -140				; size = 12
tv2230 = -128						; size = 4
_fPreCos$532119 = -128					; size = 4
_this$GSCopy$ = -124					; size = 4
_value$536860 = -120					; size = 4
_fRangeSq$ = -120					; size = 4
_value$536832 = -116					; size = 4
_value$536785 = -116					; size = 4
tv2101 = -112						; size = 4
_value$536781 = -112					; size = 4
_fCos$532143 = -112					; size = 4
tv2200 = -108						; size = 4
_fTimeGap$532120 = -108					; size = 4
tv2219 = -104						; size = 4
tv2210 = -104						; size = 4
tv2206 = -104						; size = 4
tv2194 = -104						; size = 4
tv2109 = -104						; size = 4
tv2097 = -104						; size = 4
tv2089 = -104						; size = 4
tv1982 = -104						; size = 4
tv1974 = -104						; size = 4
_fGapAngle$532161 = -104				; size = 4
_fCurLoopTimePerSec$532123 = -104			; size = 4
_vAxis$532166 = -100					; size = 12
$T532155 = -88						; size = 12
$T532157 = -76						; size = 12
$T532158 = -64						; size = 12
$T532167 = -52						; size = 12
_vAxis2$532153 = -40					; size = 12
_vAxis1$532152 = -28					; size = 12
_vDiff$ = -16						; size = 12
__$ArrayPad$ = -4					; size = 4
_vPos$ = 8						; size = 12
_vTargetPos$ = 20					; size = 12
_fTimePerSec$ = 32					; size = 4
_bIgnoreTraceTime$ = 36					; size = 1
?ProcessTrace@ioTraceWeapon6@@QAE_NUD3DXVECTOR3@@0M_N@Z PROC ; ioTraceWeapon6::ProcessTrace, COMDAT
; _this$ = ecx

; 588  : {	

  00000	55		 push	 ebp
  00001	8b ec		 mov	 ebp, esp
  00003	81 ec e0 00 00
	00		 sub	 esp, 224		; 000000e0H
  00009	a1 00 00 00 00	 mov	 eax, DWORD PTR ___security_cookie
  0000e	33 c5		 xor	 eax, ebp
  00010	89 45 fc	 mov	 DWORD PTR __$ArrayPad$[ebp], eax

; 589  : 	m_vPrePos = vPos;
; 590  : 	D3DXVECTOR3 vDiff = vTargetPos - m_vPrePos;

  00013	f3 0f 10 45 14	 movss	 xmm0, DWORD PTR _vTargetPos$[ebp]
  00018	53		 push	 ebx
  00019	56		 push	 esi
  0001a	8b d9		 mov	 ebx, ecx
  0001c	57		 push	 edi
  0001d	8d 75 08	 lea	 esi, DWORD PTR _vPos$[ebp]
  00020	8d bb cc 09 00
	00		 lea	 edi, DWORD PTR [ebx+2508]
  00026	a5		 movsd
  00027	a5		 movsd
  00028	a5		 movsd
  00029	f3 0f 10 8b cc
	09 00 00	 movss	 xmm1, DWORD PTR [ebx+2508]
  00031	f3 0f 10 93 d0
	09 00 00	 movss	 xmm2, DWORD PTR [ebx+2512]
  00039	f3 0f 10 9b d4
	09 00 00	 movss	 xmm3, DWORD PTR [ebx+2516]
  00041	0f 5a c9	 cvtps2pd xmm1, xmm1
  00044	0f 5a c0	 cvtps2pd xmm0, xmm0
  00047	f2 0f 5c c1	 subsd	 xmm0, xmm1
  0004b	f3 0f 10 4d 18	 movss	 xmm1, DWORD PTR _vTargetPos$[ebp+4]
  00050	0f 5a d2	 cvtps2pd xmm2, xmm2
  00053	0f 5a c9	 cvtps2pd xmm1, xmm1
  00056	f2 0f 5c ca	 subsd	 xmm1, xmm2
  0005a	f3 0f 10 55 1c	 movss	 xmm2, DWORD PTR _vTargetPos$[ebp+8]
  0005f	66 0f 5a c0	 cvtpd2ps xmm0, xmm0
  00063	f3 0f 11 45 f0	 movss	 DWORD PTR _vDiff$[ebp], xmm0
  00068	66 0f 5a c9	 cvtpd2ps xmm1, xmm1
  0006c	0f 5a d2	 cvtps2pd xmm2, xmm2

; 591  : 
; 592  : 	float fRangeSq = D3DXVec3LengthSq( & vDiff );

  0006f	f3 0f 5a c0	 cvtss2sd xmm0, xmm0
  00073	f3 0f 11 4d f4	 movss	 DWORD PTR _vDiff$[ebp+4], xmm1
  00078	f2 0f 59 c0	 mulsd	 xmm0, xmm0
  0007c	0f 5a db	 cvtps2pd xmm3, xmm3
  0007f	f2 0f 5c d3	 subsd	 xmm2, xmm3
  00083	66 0f 5a d2	 cvtpd2ps xmm2, xmm2
  00087	f3 0f 5a c9	 cvtss2sd xmm1, xmm1
  0008b	f3 0f 11 55 f8	 movss	 DWORD PTR _vDiff$[ebp+8], xmm2
  00090	f2 0f 59 c9	 mulsd	 xmm1, xmm1
  00094	f3 0f 5a d2	 cvtss2sd xmm2, xmm2
  00098	f2 0f 58 c8	 addsd	 xmm1, xmm0
  0009c	f2 0f 59 d2	 mulsd	 xmm2, xmm2

; 593  : 	if( fRangeSq < m_fTraceRange * m_fTraceRange || bIgnoreTraceTime )

  000a0	8d 45 90	 lea	 eax, DWORD PTR _value$536781[ebp]
  000a3	f2 0f 58 ca	 addsd	 xmm1, xmm2
  000a7	66 0f 5a c1	 cvtpd2ps xmm0, xmm1
  000ab	50		 push	 eax
  000ac	8d 8b 6c 09 00
	00		 lea	 ecx, DWORD PTR [ebx+2412]

; 597  : 		float fCurLoopTimeGap;
; 598  : 		float fCurLoopTimePerSec;
; 599  : 		while( fTimeGap > 0.0f )

  000b2	89 5d 84	 mov	 DWORD PTR _this$GSCopy$[ebp], ebx
  000b5	f3 0f 11 45 88	 movss	 DWORD PTR _fRangeSq$[ebp], xmm0
  000ba	e8 00 00 00 00	 call	 ?DecryptValueToPool@?$CEncrypt@M@@QAEXPAM@Z ; CEncrypt<float>::DecryptValueToPool
  000bf	8d 45 8c	 lea	 eax, DWORD PTR _value$536785[ebp]
  000c2	50		 push	 eax
  000c3	8d 8b 6c 09 00
	00		 lea	 ecx, DWORD PTR [ebx+2412]
  000c9	e8 00 00 00 00	 call	 ?DecryptValueToPool@?$CEncrypt@M@@QAEXPAM@Z ; CEncrypt<float>::DecryptValueToPool
  000ce	f3 0f 10 4d 8c	 movss	 xmm1, DWORD PTR _value$536785[ebp]
  000d3	f3 0f 10 55 90	 movss	 xmm2, DWORD PTR _value$536781[ebp]
  000d8	f3 0f 10 45 88	 movss	 xmm0, DWORD PTR _fRangeSq$[ebp]
  000dd	0f 5a c9	 cvtps2pd xmm1, xmm1
  000e0	0f 5a d2	 cvtps2pd xmm2, xmm2
  000e3	f2 0f 59 ca	 mulsd	 xmm1, xmm2
  000e7	66 0f 5a c9	 cvtpd2ps xmm1, xmm1
  000eb	0f 5a c0	 cvtps2pd xmm0, xmm0
  000ee	f3 0f 5a c9	 cvtss2sd xmm1, xmm1
  000f2	66 0f 2f c8	 comisd	 xmm1, xmm0
  000f6	77 0d		 ja	 SHORT $LN13@ProcessTra

; 593  : 	if( fRangeSq < m_fTraceRange * m_fTraceRange || bIgnoreTraceTime )

  000f8	80 7d 24 00	 cmp	 BYTE PTR _bIgnoreTraceTime$[ebp], 0
  000fc	75 07		 jne	 SHORT $LN13@ProcessTra

; 668  : 	}
; 669  : 	else
; 670  : 	{
; 671  : 		return false;

  000fe	32 c0		 xor	 al, al
  00100	e9 20 08 00 00	 jmp	 $LN1@ProcessTra
$LN13@ProcessTra:

; 594  : 	{		
; 595  : 		float fPreCos = 0.0f;
; 596  : 		float fTimeGap = fTimePerSec * FLOAT1000;

  00105	b8 e8 03 00 00	 mov	 eax, 1000		; 000003e8H
  0010a	89 45 80	 mov	 DWORD PTR tv2230[ebp], eax
  0010d	db 45 80	 fild	 DWORD PTR tv2230[ebp]
  00110	85 c0		 test	 eax, eax
  00112	79 06		 jns	 SHORT $LN135@ProcessTra
  00114	d8 05 00 00 00
	00		 fadd	 DWORD PTR __real@4f800000
$LN135@ProcessTra:
  0011a	d8 4d 20	 fmul	 DWORD PTR _fTimePerSec$[ebp]
  0011d	d9 5d 94	 fstp	 DWORD PTR _fTimeGap$532120[ebp]

; 597  : 		float fCurLoopTimeGap;
; 598  : 		float fCurLoopTimePerSec;
; 599  : 		while( fTimeGap > 0.0f )

  00120	d9 ee		 fldz
  00122	d9 45 94	 fld	 DWORD PTR _fTimeGap$532120[ebp]
  00125	df f1		 fcomip	 ST(1)
  00127	dd d8		 fstp	 ST(0)
  00129	0f 86 f4 07 00
	00		 jbe	 $LN11@ProcessTra
  0012f	81 c3 d8 09 00
	00		 add	 ebx, 2520		; 000009d8H
$LL12@ProcessTra:

; 600  : 		{
; 601  : 			if( fTimeGap > FLOAT10 )

  00135	b8 0a 00 00 00	 mov	 eax, 10			; 0000000aH
  0013a	d9 45 94	 fld	 DWORD PTR _fTimeGap$532120[ebp]
  0013d	89 45 98	 mov	 DWORD PTR tv2219[ebp], eax
  00140	db 45 98	 fild	 DWORD PTR tv2219[ebp]
  00143	85 c0		 test	 eax, eax
  00145	79 06		 jns	 SHORT $LN136@ProcessTra
  00147	d8 05 00 00 00
	00		 fadd	 DWORD PTR __real@4f800000
$LN136@ProcessTra:
  0014d	d9 c9		 fxch	 ST(1)
  0014f	df f1		 fcomip	 ST(1)
  00151	dd d8		 fstp	 ST(0)
  00153	76 55		 jbe	 SHORT $LN10@ProcessTra

; 602  : 			{
; 603  : 				fCurLoopTimeGap = FLOAT10;

  00155	b8 0a 00 00 00	 mov	 eax, 10			; 0000000aH

; 604  : 				fCurLoopTimePerSec = FLOAT10 / FLOAT1000;

  0015a	b8 0a 00 00 00	 mov	 eax, 10			; 0000000aH
  0015f	8b c8		 mov	 ecx, eax
  00161	b8 e8 03 00 00	 mov	 eax, 1000		; 000003e8H
  00166	89 4d 98	 mov	 DWORD PTR tv2210[ebp], ecx
  00169	db 45 98	 fild	 DWORD PTR tv2210[ebp]
  0016c	85 c9		 test	 ecx, ecx
  0016e	79 06		 jns	 SHORT $LN137@ProcessTra
  00170	d8 05 00 00 00
	00		 fadd	 DWORD PTR __real@4f800000
$LN137@ProcessTra:
  00176	89 45 98	 mov	 DWORD PTR tv2206[ebp], eax
  00179	db 45 98	 fild	 DWORD PTR tv2206[ebp]
  0017c	85 c0		 test	 eax, eax
  0017e	79 06		 jns	 SHORT $LN138@ProcessTra
  00180	d8 05 00 00 00
	00		 fadd	 DWORD PTR __real@4f800000
$LN138@ProcessTra:
  00186	de f9		 fdivp	 ST(1), ST(0)
  00188	d9 5d 98	 fstp	 DWORD PTR _fCurLoopTimePerSec$532123[ebp]

; 605  : 
; 606  : 				fTimeGap -= FLOAT10;

  0018b	b8 0a 00 00 00	 mov	 eax, 10			; 0000000aH
  00190	d9 45 94	 fld	 DWORD PTR _fTimeGap$532120[ebp]
  00193	89 45 94	 mov	 DWORD PTR tv2200[ebp], eax
  00196	db 45 94	 fild	 DWORD PTR tv2200[ebp]
  00199	85 c0		 test	 eax, eax
  0019b	79 06		 jns	 SHORT $LN139@ProcessTra
  0019d	d8 05 00 00 00
	00		 fadd	 DWORD PTR __real@4f800000
$LN139@ProcessTra:
  001a3	de e9		 fsubp	 ST(1), ST(0)
  001a5	d9 5d 94	 fstp	 DWORD PTR _fTimeGap$532120[ebp]

; 607  : 			}
; 608  : 			else

  001a8	eb 25		 jmp	 SHORT $LN9@ProcessTra
$LN10@ProcessTra:

; 609  : 			{
; 610  : 				fCurLoopTimeGap = fTimeGap;
; 611  : 				fCurLoopTimePerSec = fTimeGap / FLOAT1000;

  001aa	b8 e8 03 00 00	 mov	 eax, 1000		; 000003e8H
  001af	d9 45 94	 fld	 DWORD PTR _fTimeGap$532120[ebp]
  001b2	89 45 98	 mov	 DWORD PTR tv2194[ebp], eax
  001b5	db 45 98	 fild	 DWORD PTR tv2194[ebp]
  001b8	85 c0		 test	 eax, eax
  001ba	79 06		 jns	 SHORT $LN140@ProcessTra
  001bc	d8 05 00 00 00
	00		 fadd	 DWORD PTR __real@4f800000
$LN140@ProcessTra:
  001c2	de f9		 fdivp	 ST(1), ST(0)

; 612  : 
; 613  : 				fTimeGap = 0.0f;

  001c4	0f 57 c0	 xorps	 xmm0, xmm0
  001c7	f3 0f 11 45 94	 movss	 DWORD PTR _fTimeGap$532120[ebp], xmm0
  001cc	d9 5d 98	 fstp	 DWORD PTR _fCurLoopTimePerSec$532123[ebp]
$LN9@ProcessTra:

; 614  : 			}
; 615  : 						
; 616  : 			vDiff = vTargetPos - vPos;

  001cf	f3 0f 10 45 14	 movss	 xmm0, DWORD PTR _vTargetPos$[ebp]
  001d4	f3 0f 10 4d 08	 movss	 xmm1, DWORD PTR _vPos$[ebp]
  001d9	0f 5a c0	 cvtps2pd xmm0, xmm0
  001dc	0f 5a c9	 cvtps2pd xmm1, xmm1
  001df	f2 0f 5c c1	 subsd	 xmm0, xmm1
  001e3	f3 0f 10 4d 0c	 movss	 xmm1, DWORD PTR _vPos$[ebp+4]
  001e8	66 0f 5a c0	 cvtpd2ps xmm0, xmm0
  001ec	f3 0f 11 85 68
	ff ff ff	 movss	 DWORD PTR $T532135[ebp], xmm0
  001f4	f3 0f 10 45 18	 movss	 xmm0, DWORD PTR _vTargetPos$[ebp+4]
  001f9	0f 5a c0	 cvtps2pd xmm0, xmm0
  001fc	0f 5a c9	 cvtps2pd xmm1, xmm1
  001ff	f2 0f 5c c1	 subsd	 xmm0, xmm1
  00203	f3 0f 10 4d 10	 movss	 xmm1, DWORD PTR _vPos$[ebp+8]
  00208	66 0f 5a c0	 cvtpd2ps xmm0, xmm0
  0020c	f3 0f 11 85 6c
	ff ff ff	 movss	 DWORD PTR $T532135[ebp+4], xmm0
  00214	f3 0f 10 45 1c	 movss	 xmm0, DWORD PTR _vTargetPos$[ebp+8]
  00219	0f 5a c0	 cvtps2pd xmm0, xmm0
  0021c	0f 5a c9	 cvtps2pd xmm1, xmm1
  0021f	f2 0f 5c c1	 subsd	 xmm0, xmm1
  00223	66 0f 5a c0	 cvtpd2ps xmm0, xmm0
  00227	f3 0f 11 85 70
	ff ff ff	 movss	 DWORD PTR $T532135[ebp+8], xmm0
  0022f	8d b5 68 ff ff
	ff		 lea	 esi, DWORD PTR $T532135[ebp]
  00235	8d 7d f0	 lea	 edi, DWORD PTR _vDiff$[ebp]
  00238	a5		 movsd

; 617  : 			D3DXVec3Normalize( &vDiff, &vDiff );

  00239	8d 45 f0	 lea	 eax, DWORD PTR _vDiff$[ebp]
  0023c	a5		 movsd
  0023d	50		 push	 eax
  0023e	50		 push	 eax
  0023f	a5		 movsd
  00240	e8 00 00 00 00	 call	 _D3DXVec3Normalize@8

; 618  : 
; 619  : 			fPreCos = D3DXVec3Dot( &m_vMoveDir, &vDiff );

  00245	f3 0f 10 45 f0	 movss	 xmm0, DWORD PTR _vDiff$[ebp]
  0024a	f3 0f 10 0b	 movss	 xmm1, DWORD PTR [ebx]
  0024e	f3 0f 10 55 f4	 movss	 xmm2, DWORD PTR _vDiff$[ebp+4]
  00253	0f 5a c9	 cvtps2pd xmm1, xmm1

; 620  : 
; 621  : 			D3DXVECTOR3 vPreDir = m_vMoveDir;

  00256	8b f3		 mov	 esi, ebx
  00258	8d bd 2c ff ff
	ff		 lea	 edi, DWORD PTR _vPreDir$532136[ebp]
  0025e	a5		 movsd
  0025f	0f 5a c0	 cvtps2pd xmm0, xmm0
  00262	f2 0f 59 c1	 mulsd	 xmm0, xmm1
  00266	f3 0f 10 4b 04	 movss	 xmm1, DWORD PTR [ebx+4]
  0026b	0f 5a c9	 cvtps2pd xmm1, xmm1
  0026e	0f 5a d2	 cvtps2pd xmm2, xmm2
  00271	f2 0f 59 ca	 mulsd	 xmm1, xmm2
  00275	f3 0f 10 55 f8	 movss	 xmm2, DWORD PTR _vDiff$[ebp+8]
  0027a	f2 0f 58 c1	 addsd	 xmm0, xmm1
  0027e	f3 0f 10 4b 08	 movss	 xmm1, DWORD PTR [ebx+8]
  00283	a5		 movsd
  00284	0f 5a c9	 cvtps2pd xmm1, xmm1
  00287	0f 5a d2	 cvtps2pd xmm2, xmm2
  0028a	a5		 movsd

; 622  : 			D3DXVECTOR3 vCurForce = m_vMoveDir * m_fTraceSpeed * fCurLoopTimePerSec;

  0028b	8b 75 84	 mov	 esi, DWORD PTR _this$GSCopy$[ebp]
  0028e	f2 0f 59 ca	 mulsd	 xmm1, xmm2
  00292	8d 45 8c	 lea	 eax, DWORD PTR _value$536832[ebp]
  00295	f2 0f 58 c1	 addsd	 xmm0, xmm1
  00299	66 0f 5a c0	 cvtpd2ps xmm0, xmm0
  0029d	50		 push	 eax
  0029e	8d 8e 3c 09 00
	00		 lea	 ecx, DWORD PTR [esi+2364]
  002a4	f3 0f 11 45 80	 movss	 DWORD PTR _fPreCos$532119[ebp], xmm0
  002a9	e8 00 00 00 00	 call	 ?DecryptValueToPool@?$CEncrypt@M@@QAEXPAM@Z ; CEncrypt<float>::DecryptValueToPool
  002ae	f3 0f 10 45 8c	 movss	 xmm0, DWORD PTR _value$536832[ebp]
  002b3	f3 0f 10 0b	 movss	 xmm1, DWORD PTR [ebx]
  002b7	f3 0f 10 55 8c	 movss	 xmm2, DWORD PTR _value$536832[ebp]
  002bc	f3 0f 10 5d 8c	 movss	 xmm3, DWORD PTR _value$536832[ebp]
  002c1	0f 5a c9	 cvtps2pd xmm1, xmm1
  002c4	0f 5a c0	 cvtps2pd xmm0, xmm0
  002c7	f2 0f 59 c1	 mulsd	 xmm0, xmm1
  002cb	f3 0f 10 4b 04	 movss	 xmm1, DWORD PTR [ebx+4]
  002d0	0f 5a d2	 cvtps2pd xmm2, xmm2
  002d3	0f 5a c9	 cvtps2pd xmm1, xmm1
  002d6	f2 0f 59 ca	 mulsd	 xmm1, xmm2
  002da	f3 0f 10 53 08	 movss	 xmm2, DWORD PTR [ebx+8]
  002df	0f 5a db	 cvtps2pd xmm3, xmm3
  002e2	0f 5a d2	 cvtps2pd xmm2, xmm2
  002e5	f2 0f 59 d3	 mulsd	 xmm2, xmm3
  002e9	f3 0f 10 5d 98	 movss	 xmm3, DWORD PTR _fCurLoopTimePerSec$532123[ebp]
  002ee	f2 0f 5a c0	 cvtsd2ss xmm0, xmm0
  002f2	f3 0f 5a c0	 cvtss2sd xmm0, xmm0
  002f6	0f 5a db	 cvtps2pd xmm3, xmm3
  002f9	66 0f 5a c9	 cvtpd2ps xmm1, xmm1
  002fd	66 0f 5a d2	 cvtpd2ps xmm2, xmm2
  00301	f2 0f 59 c3	 mulsd	 xmm0, xmm3
  00305	f2 0f 5a c0	 cvtsd2ss xmm0, xmm0
  00309	f3 0f 11 85 74
	ff ff ff	 movss	 DWORD PTR _vCurForce$532137[ebp], xmm0
  00311	0f 57 c0	 xorps	 xmm0, xmm0
  00314	f3 0f 5a c1	 cvtss2sd xmm0, xmm1
  00318	f3 0f 10 4d 98	 movss	 xmm1, DWORD PTR _fCurLoopTimePerSec$532123[ebp]
  0031d	0f 5a c9	 cvtps2pd xmm1, xmm1
  00320	f2 0f 59 c1	 mulsd	 xmm0, xmm1
  00324	f3 0f 10 4d 98	 movss	 xmm1, DWORD PTR _fCurLoopTimePerSec$532123[ebp]
  00329	66 0f 5a c0	 cvtpd2ps xmm0, xmm0
  0032d	f3 0f 11 85 78
	ff ff ff	 movss	 DWORD PTR _vCurForce$532137[ebp+4], xmm0
  00335	0f 57 c0	 xorps	 xmm0, xmm0
  00338	f3 0f 5a c2	 cvtss2sd xmm0, xmm2
  0033c	0f 5a c9	 cvtps2pd xmm1, xmm1

; 623  : 			m_vMoveDir = vCurForce + (vDiff * m_fTraceRotSpeed * fCurLoopTimePerSec);

  0033f	8d 45 88	 lea	 eax, DWORD PTR _value$536860[ebp]
  00342	f2 0f 59 c1	 mulsd	 xmm0, xmm1
  00346	66 0f 5a c0	 cvtpd2ps xmm0, xmm0
  0034a	50		 push	 eax
  0034b	8d 8e 9c 09 00
	00		 lea	 ecx, DWORD PTR [esi+2460]
  00351	f3 0f 11 85 7c
	ff ff ff	 movss	 DWORD PTR _vCurForce$532137[ebp+8], xmm0
  00359	e8 00 00 00 00	 call	 ?DecryptValueToPool@?$CEncrypt@M@@QAEXPAM@Z ; CEncrypt<float>::DecryptValueToPool
  0035e	f3 0f 10 45 88	 movss	 xmm0, DWORD PTR _value$536860[ebp]
  00363	f3 0f 10 4d f0	 movss	 xmm1, DWORD PTR _vDiff$[ebp]
  00368	f3 0f 10 55 88	 movss	 xmm2, DWORD PTR _value$536860[ebp]
  0036d	f3 0f 10 5d 88	 movss	 xmm3, DWORD PTR _value$536860[ebp]
  00372	0f 5a c0	 cvtps2pd xmm0, xmm0
  00375	0f 5a c9	 cvtps2pd xmm1, xmm1
  00378	f2 0f 59 c1	 mulsd	 xmm0, xmm1
  0037c	f3 0f 10 4d f4	 movss	 xmm1, DWORD PTR _vDiff$[ebp+4]
  00381	f2 0f 5a c0	 cvtsd2ss xmm0, xmm0
  00385	0f 5a c9	 cvtps2pd xmm1, xmm1
  00388	0f 5a d2	 cvtps2pd xmm2, xmm2
  0038b	f2 0f 59 ca	 mulsd	 xmm1, xmm2
  0038f	f3 0f 10 55 f8	 movss	 xmm2, DWORD PTR _vDiff$[ebp+8]
  00394	f3 0f 5a c0	 cvtss2sd xmm0, xmm0
  00398	0f 5a db	 cvtps2pd xmm3, xmm3
  0039b	0f 5a d2	 cvtps2pd xmm2, xmm2
  0039e	f2 0f 59 d3	 mulsd	 xmm2, xmm3
  003a2	f3 0f 10 5d 98	 movss	 xmm3, DWORD PTR _fCurLoopTimePerSec$532123[ebp]
  003a7	0f 5a db	 cvtps2pd xmm3, xmm3
  003aa	f2 0f 59 c3	 mulsd	 xmm0, xmm3
  003ae	f3 0f 10 5d 98	 movss	 xmm3, DWORD PTR _fCurLoopTimePerSec$532123[ebp]
  003b3	66 0f 5a c9	 cvtpd2ps xmm1, xmm1
  003b7	f2 0f 5a c0	 cvtsd2ss xmm0, xmm0
  003bb	f3 0f 5a c9	 cvtss2sd xmm1, xmm1
  003bf	0f 5a db	 cvtps2pd xmm3, xmm3
  003c2	f2 0f 59 cb	 mulsd	 xmm1, xmm3
  003c6	f3 0f 10 5d 98	 movss	 xmm3, DWORD PTR _fCurLoopTimePerSec$532123[ebp]
  003cb	f3 0f 5a c0	 cvtss2sd xmm0, xmm0
  003cf	66 0f 5a d2	 cvtpd2ps xmm2, xmm2
  003d3	0f 5a db	 cvtps2pd xmm3, xmm3
  003d6	f3 0f 5a d2	 cvtss2sd xmm2, xmm2
  003da	f2 0f 59 d3	 mulsd	 xmm2, xmm3
  003de	f3 0f 10 9d 74
	ff ff ff	 movss	 xmm3, DWORD PTR _vCurForce$532137[ebp]
  003e6	66 0f 5a c9	 cvtpd2ps xmm1, xmm1
  003ea	0f 5a db	 cvtps2pd xmm3, xmm3
  003ed	f2 0f 58 c3	 addsd	 xmm0, xmm3
  003f1	f2 0f 5a c0	 cvtsd2ss xmm0, xmm0
  003f5	f3 0f 11 85 38
	ff ff ff	 movss	 DWORD PTR $T532142[ebp], xmm0
  003fd	0f 57 c0	 xorps	 xmm0, xmm0
  00400	f3 0f 5a c1	 cvtss2sd xmm0, xmm1
  00404	f3 0f 10 8d 78
	ff ff ff	 movss	 xmm1, DWORD PTR _vCurForce$532137[ebp+4]
  0040c	0f 5a c9	 cvtps2pd xmm1, xmm1
  0040f	f2 0f 58 c1	 addsd	 xmm0, xmm1
  00413	f3 0f 10 8d 7c
	ff ff ff	 movss	 xmm1, DWORD PTR _vCurForce$532137[ebp+8]
  0041b	66 0f 5a c0	 cvtpd2ps xmm0, xmm0
  0041f	f3 0f 11 85 3c
	ff ff ff	 movss	 DWORD PTR $T532142[ebp+4], xmm0
  00427	0f 57 c0	 xorps	 xmm0, xmm0
  0042a	66 0f 5a d2	 cvtpd2ps xmm2, xmm2
  0042e	f3 0f 5a c2	 cvtss2sd xmm0, xmm2
  00432	0f 5a c9	 cvtps2pd xmm1, xmm1
  00435	f2 0f 58 c1	 addsd	 xmm0, xmm1
  00439	66 0f 5a c0	 cvtpd2ps xmm0, xmm0
  0043d	f3 0f 11 85 40
	ff ff ff	 movss	 DWORD PTR $T532142[ebp+8], xmm0
  00445	8d b5 38 ff ff
	ff		 lea	 esi, DWORD PTR $T532142[ebp]
  0044b	8b fb		 mov	 edi, ebx
  0044d	a5		 movsd
  0044e	a5		 movsd

; 624  : 
; 625  : 			D3DXVec3Normalize( &m_vMoveDir, &m_vMoveDir );

  0044f	53		 push	 ebx
  00450	53		 push	 ebx
  00451	a5		 movsd
  00452	e8 00 00 00 00	 call	 _D3DXVec3Normalize@8

; 626  : 
; 627  : 			float fCos = D3DXVec3Dot( &vPreDir, &m_vMoveDir );

  00457	f3 0f 10 85 2c
	ff ff ff	 movss	 xmm0, DWORD PTR _vPreDir$532136[ebp]
  0045f	f3 0f 10 0b	 movss	 xmm1, DWORD PTR [ebx]
  00463	f3 0f 10 95 30
	ff ff ff	 movss	 xmm2, DWORD PTR _vPreDir$532136[ebp+4]
  0046b	0f 5a c9	 cvtps2pd xmm1, xmm1
  0046e	0f 5a c0	 cvtps2pd xmm0, xmm0
  00471	f2 0f 59 c1	 mulsd	 xmm0, xmm1
  00475	f3 0f 10 4b 04	 movss	 xmm1, DWORD PTR [ebx+4]
  0047a	0f 5a c9	 cvtps2pd xmm1, xmm1
  0047d	0f 5a d2	 cvtps2pd xmm2, xmm2
  00480	f2 0f 59 ca	 mulsd	 xmm1, xmm2
  00484	f3 0f 10 95 34
	ff ff ff	 movss	 xmm2, DWORD PTR _vPreDir$532136[ebp+8]
  0048c	f2 0f 58 c1	 addsd	 xmm0, xmm1
  00490	f3 0f 10 4b 08	 movss	 xmm1, DWORD PTR [ebx+8]
  00495	0f 5a c9	 cvtps2pd xmm1, xmm1
  00498	0f 5a d2	 cvtps2pd xmm2, xmm2
  0049b	f2 0f 59 ca	 mulsd	 xmm1, xmm2
  0049f	f2 0f 58 c1	 addsd	 xmm0, xmm1
  004a3	66 0f 5a c0	 cvtpd2ps xmm0, xmm0
  004a7	f3 0f 11 45 90	 movss	 DWORD PTR _fCos$532143[ebp], xmm0

; 628  : 			if( fPreCos <= -FLOAT1 )

  004ac	b8 01 00 00 00	 mov	 eax, 1
  004b1	d9 45 80	 fld	 DWORD PTR _fPreCos$532119[ebp]
  004b4	89 45 98	 mov	 DWORD PTR tv2109[ebp], eax
  004b7	db 45 98	 fild	 DWORD PTR tv2109[ebp]
  004ba	85 c0		 test	 eax, eax
  004bc	79 06		 jns	 SHORT $LN141@ProcessTra
  004be	d8 05 00 00 00
	00		 fadd	 DWORD PTR __real@4f800000
$LN141@ProcessTra:
  004c4	d9 e0		 fchs
  004c6	df f1		 fcomip	 ST(1)
  004c8	dd d8		 fstp	 ST(0)
  004ca	72 1a		 jb	 SHORT $LN8@ProcessTra

; 629  : 				fCos = -FLOAT1;

  004cc	b8 01 00 00 00	 mov	 eax, 1
  004d1	89 45 90	 mov	 DWORD PTR tv2101[ebp], eax
  004d4	db 45 90	 fild	 DWORD PTR tv2101[ebp]
  004d7	85 c0		 test	 eax, eax
  004d9	79 06		 jns	 SHORT $LN142@ProcessTra
  004db	d8 05 00 00 00
	00		 fadd	 DWORD PTR __real@4f800000
$LN142@ProcessTra:
  004e1	d9 e0		 fchs
  004e3	d9 5d 90	 fstp	 DWORD PTR _fCos$532143[ebp]
$LN8@ProcessTra:

; 630  : 
; 631  : 			// 0도 일때
; 632  : 			if( fCos >= FLOAT1 )

  004e6	b8 01 00 00 00	 mov	 eax, 1
  004eb	d9 45 90	 fld	 DWORD PTR _fCos$532143[ebp]
  004ee	89 45 98	 mov	 DWORD PTR tv2097[ebp], eax
  004f1	db 45 98	 fild	 DWORD PTR tv2097[ebp]
  004f4	85 c0		 test	 eax, eax
  004f6	79 06		 jns	 SHORT $LN143@ProcessTra
  004f8	d8 05 00 00 00
	00		 fadd	 DWORD PTR __real@4f800000
$LN143@ProcessTra:
  004fe	d9 c9		 fxch	 ST(1)
  00500	df f1		 fcomip	 ST(1)
  00502	dd d8		 fstp	 ST(0)
  00504	0f 83 07 04 00
	00		 jae	 $LN2@ProcessTra

; 633  : 			{
; 634  : 				// 처리 필요없음
; 635  : 			}
; 636  : 			else if( fCos <= -FLOAT1 ) // 180도 일때

  0050a	b8 01 00 00 00	 mov	 eax, 1
  0050f	d9 45 90	 fld	 DWORD PTR _fCos$532143[ebp]
  00512	89 45 98	 mov	 DWORD PTR tv2089[ebp], eax
  00515	db 45 98	 fild	 DWORD PTR tv2089[ebp]
  00518	85 c0		 test	 eax, eax
  0051a	79 06		 jns	 SHORT $LN144@ProcessTra
  0051c	d8 05 00 00 00
	00		 fadd	 DWORD PTR __real@4f800000
$LN144@ProcessTra:
  00522	d9 e0		 fchs
  00524	df f1		 fcomip	 ST(1)
  00526	dd d8		 fstp	 ST(0)
  00528	0f 82 d8 02 00
	00		 jb	 $LN5@ProcessTra

; 637  : 			{
; 638  : 				D3DXVECTOR3 vAxis1, vAxis2;
; 639  : 				if( m_vMoveDir != ioMath::UNIT_Y )

  0052e	8b 0d 00 00 00
	00		 mov	 ecx, DWORD PTR __imp_?UNIT_Y@ioMath@@2UD3DXVECTOR3@@A
  00534	f3 0f 10 2b	 movss	 xmm5, DWORD PTR [ebx]
  00538	f3 0f 10 01	 movss	 xmm0, DWORD PTR [ecx]
  0053c	0f 57 c9	 xorps	 xmm1, xmm1
  0053f	0f 5a cd	 cvtps2pd xmm1, xmm5
  00542	0f 5a c0	 cvtps2pd xmm0, xmm0
  00545	66 0f 2e c8	 ucomisd xmm1, xmm0
  00549	9f		 lahf
  0054a	f6 c4 44	 test	 ah, 68			; 00000044H
  0054d	7a 3e		 jp	 SHORT $LN87@ProcessTra
  0054f	f3 0f 10 73 04	 movss	 xmm6, DWORD PTR [ebx+4]
  00554	f3 0f 10 49 04	 movss	 xmm1, DWORD PTR [ecx+4]
  00559	0f 57 c0	 xorps	 xmm0, xmm0
  0055c	0f 5a c6	 cvtps2pd xmm0, xmm6
  0055f	0f 5a c9	 cvtps2pd xmm1, xmm1
  00562	66 0f 2e c1	 ucomisd xmm0, xmm1
  00566	9f		 lahf
  00567	f6 c4 44	 test	 ah, 68			; 00000044H
  0056a	7a 21		 jp	 SHORT $LN87@ProcessTra
  0056c	f3 0f 10 53 08	 movss	 xmm2, DWORD PTR [ebx+8]
  00571	f3 0f 10 49 08	 movss	 xmm1, DWORD PTR [ecx+8]
  00576	0f 57 c0	 xorps	 xmm0, xmm0
  00579	0f 5a c2	 cvtps2pd xmm0, xmm2
  0057c	0f 5a c9	 cvtps2pd xmm1, xmm1
  0057f	66 0f 2e c1	 ucomisd xmm0, xmm1
  00583	9f		 lahf
  00584	f6 c4 44	 test	 ah, 68			; 00000044H
  00587	0f 8b b5 00 00
	00		 jnp	 $LN4@ProcessTra
$LN87@ProcessTra:

; 640  : 				{
; 641  : 					D3DXVec3Cross( &vAxis1, &m_vMoveDir, &ioMath::UNIT_Y );

  0058d	f3 0f 10 43 04	 movss	 xmm0, DWORD PTR [ebx+4]
  00592	f3 0f 10 5b 08	 movss	 xmm3, DWORD PTR [ebx+8]
  00597	f3 0f 10 51 08	 movss	 xmm2, DWORD PTR [ecx+8]
  0059c	f3 0f 10 61 04	 movss	 xmm4, DWORD PTR [ecx+4]
  005a1	0f 5a fb	 cvtps2pd xmm7, xmm3
  005a4	0f 5a f0	 cvtps2pd xmm6, xmm0
  005a7	0f 5a ca	 cvtps2pd xmm1, xmm2
  005aa	0f 5a db	 cvtps2pd xmm3, xmm3
  005ad	f2 0f 59 ce	 mulsd	 xmm1, xmm6
  005b1	0f 5a d2	 cvtps2pd xmm2, xmm2
  005b4	0f 5a c0	 cvtps2pd xmm0, xmm0
  005b7	0f 5a f4	 cvtps2pd xmm6, xmm4
  005ba	f2 0f 59 f7	 mulsd	 xmm6, xmm7
  005be	f2 0f 5c ce	 subsd	 xmm1, xmm6
  005c2	f3 0f 10 31	 movss	 xmm6, DWORD PTR [ecx]
  005c6	0f 5a fe	 cvtps2pd xmm7, xmm6
  005c9	f2 0f 59 fb	 mulsd	 xmm7, xmm3
  005cd	0f 5a dd	 cvtps2pd xmm3, xmm5
  005d0	f2 0f 59 d3	 mulsd	 xmm2, xmm3
  005d4	f2 0f 5c fa	 subsd	 xmm7, xmm2
  005d8	0f 57 d2	 xorps	 xmm2, xmm2
  005db	66 0f 5a c9	 cvtpd2ps xmm1, xmm1
  005df	66 0f 5a d7	 cvtpd2ps xmm2, xmm7
  005e3	0f 5a dc	 cvtps2pd xmm3, xmm4
  005e6	0f 5a e5	 cvtps2pd xmm4, xmm5
  005e9	f2 0f 59 dc	 mulsd	 xmm3, xmm4
  005ed	f3 0f 11 8d 5c
	ff ff ff	 movss	 DWORD PTR _v$536939[ebp], xmm1
  005f5	f3 0f 11 95 60
	ff ff ff	 movss	 DWORD PTR _v$536939[ebp+4], xmm2
  005fd	8d b5 5c ff ff
	ff		 lea	 esi, DWORD PTR _v$536939[ebp]

; 642  : 					D3DXVec3Normalize( &vAxis1, &-vAxis1 );

  00603	8d 45 a8	 lea	 eax, DWORD PTR $T532155[ebp]
  00606	0f 5a e6	 cvtps2pd xmm4, xmm6
  00609	f2 0f 59 e0	 mulsd	 xmm4, xmm0
  0060d	f3 0f 10 05 00
	00 00 00	 movss	 xmm0, DWORD PTR __mask@@NegFloat@
  00615	f2 0f 5c dc	 subsd	 xmm3, xmm4
  00619	66 0f 5a db	 cvtpd2ps xmm3, xmm3
  0061d	f3 0f 11 9d 64
	ff ff ff	 movss	 DWORD PTR _v$536939[ebp+8], xmm3
  00625	0f 57 c8	 xorps	 xmm1, xmm0
  00628	0f 57 d0	 xorps	 xmm2, xmm0
  0062b	0f 57 d8	 xorps	 xmm3, xmm0
  0062e	f3 0f 11 4d a8	 movss	 DWORD PTR $T532155[ebp], xmm1
  00633	f3 0f 11 55 ac	 movss	 DWORD PTR $T532155[ebp+4], xmm2
  00638	f3 0f 11 5d b0	 movss	 DWORD PTR $T532155[ebp+8], xmm3

; 643  : 				}
; 644  : 				else

  0063d	e9 ab 00 00 00	 jmp	 $LN146@ProcessTra
$LN4@ProcessTra:

; 645  : 				{
; 646  : 					D3DXVec3Cross( &vAxis1, &m_vMoveDir, &ioMath::UNIT_X );

  00642	a1 00 00 00 00	 mov	 eax, DWORD PTR __imp_?UNIT_X@ioMath@@2UD3DXVECTOR3@@A
  00647	f3 0f 10 40 08	 movss	 xmm0, DWORD PTR [eax+8]
  0064c	f3 0f 10 58 04	 movss	 xmm3, DWORD PTR [eax+4]
  00651	0f 5a c8	 cvtps2pd xmm1, xmm0
  00654	0f 5a e6	 cvtps2pd xmm4, xmm6
  00657	0f 5a fa	 cvtps2pd xmm7, xmm2
  0065a	f2 0f 59 cc	 mulsd	 xmm1, xmm4
  0065e	0f 5a d2	 cvtps2pd xmm2, xmm2
  00661	0f 5a c0	 cvtps2pd xmm0, xmm0
  00664	8d b5 20 ff ff
	ff		 lea	 esi, DWORD PTR _v$536962[ebp]
  0066a	0f 5a e3	 cvtps2pd xmm4, xmm3
  0066d	f2 0f 59 e7	 mulsd	 xmm4, xmm7
  00671	f2 0f 5c cc	 subsd	 xmm1, xmm4
  00675	f3 0f 10 20	 movss	 xmm4, DWORD PTR [eax]
  00679	0f 5a fc	 cvtps2pd xmm7, xmm4
  0067c	f2 0f 59 fa	 mulsd	 xmm7, xmm2
  00680	0f 5a d5	 cvtps2pd xmm2, xmm5
  00683	f2 0f 59 c2	 mulsd	 xmm0, xmm2
  00687	f2 0f 5c f8	 subsd	 xmm7, xmm0
  0068b	0f 57 d2	 xorps	 xmm2, xmm2
  0068e	66 0f 5a c9	 cvtpd2ps xmm1, xmm1
  00692	66 0f 5a d7	 cvtpd2ps xmm2, xmm7
  00696	f3 0f 11 8d 20
	ff ff ff	 movss	 DWORD PTR _v$536962[ebp], xmm1
  0069e	0f 5a c3	 cvtps2pd xmm0, xmm3
  006a1	0f 5a dd	 cvtps2pd xmm3, xmm5
  006a4	f2 0f 59 c3	 mulsd	 xmm0, xmm3
  006a8	f3 0f 11 95 24
	ff ff ff	 movss	 DWORD PTR _v$536962[ebp+4], xmm2

; 647  : 					D3DXVec3Normalize( &vAxis1, &-vAxis1 );

  006b0	8d 45 b4	 lea	 eax, DWORD PTR $T532157[ebp]
  006b3	0f 5a dc	 cvtps2pd xmm3, xmm4
  006b6	0f 5a e6	 cvtps2pd xmm4, xmm6
  006b9	f2 0f 59 dc	 mulsd	 xmm3, xmm4
  006bd	f2 0f 5c c3	 subsd	 xmm0, xmm3
  006c1	66 0f 5a d8	 cvtpd2ps xmm3, xmm0
  006c5	f3 0f 10 05 00
	00 00 00	 movss	 xmm0, DWORD PTR __mask@@NegFloat@
  006cd	f3 0f 11 9d 28
	ff ff ff	 movss	 DWORD PTR _v$536962[ebp+8], xmm3
  006d5	0f 57 c8	 xorps	 xmm1, xmm0
  006d8	0f 57 d0	 xorps	 xmm2, xmm0
  006db	0f 57 d8	 xorps	 xmm3, xmm0
  006de	f3 0f 11 4d b4	 movss	 DWORD PTR $T532157[ebp], xmm1
  006e3	f3 0f 11 55 b8	 movss	 DWORD PTR $T532157[ebp+4], xmm2
  006e8	f3 0f 11 5d bc	 movss	 DWORD PTR $T532157[ebp+8], xmm3
$LN146@ProcessTra:

; 645  : 				{
; 646  : 					D3DXVec3Cross( &vAxis1, &m_vMoveDir, &ioMath::UNIT_X );

  006ed	8d 7d e4	 lea	 edi, DWORD PTR _vAxis1$532152[ebp]
  006f0	a5		 movsd

; 647  : 					D3DXVec3Normalize( &vAxis1, &-vAxis1 );

  006f1	50		 push	 eax
  006f2	a5		 movsd
  006f3	8d 45 e4	 lea	 eax, DWORD PTR _vAxis1$532152[ebp]
  006f6	50		 push	 eax
  006f7	a5		 movsd
  006f8	e8 00 00 00 00	 call	 _D3DXVec3Normalize@8

; 648  : 				}
; 649  : 
; 650  : 				D3DXVec3Cross( &vAxis2, &m_vMoveDir, &vAxis1 );

  006fd	f3 0f 10 43 04	 movss	 xmm0, DWORD PTR [ebx+4]
  00702	f3 0f 10 4d ec	 movss	 xmm1, DWORD PTR _vAxis1$532152[ebp+8]
  00707	f3 0f 10 53 08	 movss	 xmm2, DWORD PTR [ebx+8]
  0070c	0f 5a d8	 cvtps2pd xmm3, xmm0
  0070f	0f 5a e2	 cvtps2pd xmm4, xmm2
  00712	0f 5a c9	 cvtps2pd xmm1, xmm1
  00715	f2 0f 59 cb	 mulsd	 xmm1, xmm3
  00719	f3 0f 10 5d e8	 movss	 xmm3, DWORD PTR _vAxis1$532152[ebp+4]
  0071e	0f 5a db	 cvtps2pd xmm3, xmm3
  00721	f2 0f 59 dc	 mulsd	 xmm3, xmm4
  00725	f3 0f 10 65 e4	 movss	 xmm4, DWORD PTR _vAxis1$532152[ebp]
  0072a	f2 0f 5c cb	 subsd	 xmm1, xmm3
  0072e	f3 0f 10 1b	 movss	 xmm3, DWORD PTR [ebx]
  00732	0f 5a d2	 cvtps2pd xmm2, xmm2
  00735	0f 5a e4	 cvtps2pd xmm4, xmm4
  00738	f2 0f 59 e2	 mulsd	 xmm4, xmm2
  0073c	f3 0f 10 55 ec	 movss	 xmm2, DWORD PTR _vAxis1$532152[ebp+8]
  00741	0f 5a d2	 cvtps2pd xmm2, xmm2
  00744	0f 57 ed	 xorps	 xmm5, xmm5
  00747	0f 5a eb	 cvtps2pd xmm5, xmm3
  0074a	f2 0f 59 d5	 mulsd	 xmm2, xmm5
  0074e	f2 0f 5c e2	 subsd	 xmm4, xmm2
  00752	0f 5a db	 cvtps2pd xmm3, xmm3
  00755	0f 57 d2	 xorps	 xmm2, xmm2
  00758	f2 0f 5a d4	 cvtsd2ss xmm2, xmm4
  0075c	f3 0f 10 65 e8	 movss	 xmm4, DWORD PTR _vAxis1$532152[ebp+4]
  00761	0f 5a e4	 cvtps2pd xmm4, xmm4
  00764	f2 0f 59 e3	 mulsd	 xmm4, xmm3
  00768	f3 0f 10 5d e4	 movss	 xmm3, DWORD PTR _vAxis1$532152[ebp]
  0076d	0f 5a db	 cvtps2pd xmm3, xmm3
  00770	0f 5a c0	 cvtps2pd xmm0, xmm0
  00773	f2 0f 59 d8	 mulsd	 xmm3, xmm0

; 651  : 				D3DXVec3Normalize( &vAxis2, &-vAxis2 );

  00777	f3 0f 10 05 00
	00 00 00	 movss	 xmm0, DWORD PTR __mask@@NegFloat@
  0077f	f2 0f 5c e3	 subsd	 xmm4, xmm3
  00783	f3 0f 11 95 48
	ff ff ff	 movss	 DWORD PTR _v$536985[ebp+4], xmm2
  0078b	0f 57 db	 xorps	 xmm3, xmm3
  0078e	f2 0f 5a c9	 cvtsd2ss xmm1, xmm1
  00792	f3 0f 11 8d 44
	ff ff ff	 movss	 DWORD PTR _v$536985[ebp], xmm1
  0079a	f2 0f 5a dc	 cvtsd2ss xmm3, xmm4
  0079e	f3 0f 11 9d 4c
	ff ff ff	 movss	 DWORD PTR _v$536985[ebp+8], xmm3
  007a6	8d b5 44 ff ff
	ff		 lea	 esi, DWORD PTR _v$536985[ebp]
  007ac	8d 7d d8	 lea	 edi, DWORD PTR _vAxis2$532153[ebp]
  007af	a5		 movsd
  007b0	8d 45 c0	 lea	 eax, DWORD PTR $T532158[ebp]
  007b3	a5		 movsd
  007b4	50		 push	 eax
  007b5	8d 45 d8	 lea	 eax, DWORD PTR _vAxis2$532153[ebp]
  007b8	0f 57 c8	 xorps	 xmm1, xmm0
  007bb	0f 57 d0	 xorps	 xmm2, xmm0
  007be	0f 57 d8	 xorps	 xmm3, xmm0
  007c1	50		 push	 eax
  007c2	a5		 movsd
  007c3	f3 0f 11 4d c0	 movss	 DWORD PTR $T532158[ebp], xmm1
  007c8	f3 0f 11 55 c4	 movss	 DWORD PTR $T532158[ebp+4], xmm2
  007cd	f3 0f 11 5d c8	 movss	 DWORD PTR $T532158[ebp+8], xmm3
  007d2	e8 00 00 00 00	 call	 _D3DXVec3Normalize@8

; 652  : 
; 653  : 				GetParentSceneNode()->Rotate( vAxis2, FLOAT1 );

  007d7	8b 45 84	 mov	 eax, DWORD PTR _this$GSCopy$[ebp]
  007da	8b 48 04	 mov	 ecx, DWORD PTR [eax+4]
  007dd	b8 01 00 00 00	 mov	 eax, 1
  007e2	8b 11		 mov	 edx, DWORD PTR [ecx]
  007e4	89 45 98	 mov	 DWORD PTR tv1982[ebp], eax
  007e7	db 45 98	 fild	 DWORD PTR tv1982[ebp]
  007ea	6a 01		 push	 1
  007ec	85 c0		 test	 eax, eax
  007ee	79 06		 jns	 SHORT $LN145@ProcessTra
  007f0	d8 05 00 00 00
	00		 fadd	 DWORD PTR __real@4f800000
$LN145@ProcessTra:
  007f6	51		 push	 ecx
  007f7	8d 45 d8	 lea	 eax, DWORD PTR _vAxis2$532153[ebp]
  007fa	d9 1c 24	 fstp	 DWORD PTR [esp]
  007fd	50		 push	 eax
  007fe	ff 52 50	 call	 DWORD PTR [edx+80]

; 654  : 			}
; 655  : 			else // 그외

  00801	e9 0b 01 00 00	 jmp	 $LN2@ProcessTra
$LN5@ProcessTra:

; 656  : 			{
; 657  : 				float fGapAngle = RADtoDEG( acos( fCos ) );

  00806	d9 45 90	 fld	 DWORD PTR _fCos$532143[ebp]
  00809	e8 00 00 00 00	 call	 __CIacos
  0080e	d9 5d 98	 fstp	 DWORD PTR tv1974[ebp]
  00811	d9 45 98	 fld	 DWORD PTR tv1974[ebp]
  00814	51		 push	 ecx
  00815	d9 1c 24	 fstp	 DWORD PTR [esp]
  00818	e8 00 00 00 00	 call	 ??$RADtoDEG@M@@YAMM@Z	; RADtoDEG<float>

; 658  : 
; 659  : 				D3DXVECTOR3 vAxis;
; 660  : 				D3DXVec3Cross( &vAxis, &vDiff, &m_vMoveDir );

  0081d	f3 0f 10 43 08	 movss	 xmm0, DWORD PTR [ebx+8]
  00822	d9 5d 98	 fstp	 DWORD PTR _fGapAngle$532161[ebp]
  00825	f3 0f 10 4d f4	 movss	 xmm1, DWORD PTR _vDiff$[ebp+4]
  0082a	f3 0f 10 5b 04	 movss	 xmm3, DWORD PTR [ebx+4]
  0082f	0f 5a d0	 cvtps2pd xmm2, xmm0
  00832	0f 5a e3	 cvtps2pd xmm4, xmm3
  00835	0f 5a c9	 cvtps2pd xmm1, xmm1
  00838	f2 0f 59 ca	 mulsd	 xmm1, xmm2
  0083c	f3 0f 10 55 f8	 movss	 xmm2, DWORD PTR _vDiff$[ebp+8]
  00841	0f 5a d2	 cvtps2pd xmm2, xmm2
  00844	f2 0f 59 d4	 mulsd	 xmm2, xmm4
  00848	f3 0f 10 23	 movss	 xmm4, DWORD PTR [ebx]
  0084c	f2 0f 5c ca	 subsd	 xmm1, xmm2
  00850	f3 0f 10 55 f8	 movss	 xmm2, DWORD PTR _vDiff$[ebp+8]
  00855	0f 5a ec	 cvtps2pd xmm5, xmm4
  00858	0f 5a d2	 cvtps2pd xmm2, xmm2
  0085b	f2 0f 59 d5	 mulsd	 xmm2, xmm5
  0085f	f3 0f 10 6d f0	 movss	 xmm5, DWORD PTR _vDiff$[ebp]
  00864	0f 5a c0	 cvtps2pd xmm0, xmm0
  00867	0f 5a db	 cvtps2pd xmm3, xmm3
  0086a	0f 5a ed	 cvtps2pd xmm5, xmm5
  0086d	f2 0f 59 e8	 mulsd	 xmm5, xmm0
  00871	f3 0f 10 45 f0	 movss	 xmm0, DWORD PTR _vDiff$[ebp]
  00876	0f 5a c0	 cvtps2pd xmm0, xmm0
  00879	f2 0f 59 c3	 mulsd	 xmm0, xmm3
  0087d	f3 0f 10 5d f4	 movss	 xmm3, DWORD PTR _vDiff$[ebp+4]
  00882	0f 5a db	 cvtps2pd xmm3, xmm3
  00885	0f 5a e4	 cvtps2pd xmm4, xmm4
  00888	f2 0f 59 dc	 mulsd	 xmm3, xmm4
  0088c	f2 0f 5c c3	 subsd	 xmm0, xmm3
  00890	f2 0f 5c d5	 subsd	 xmm2, xmm5
  00894	0f 57 db	 xorps	 xmm3, xmm3
  00897	f2 0f 5a d8	 cvtsd2ss xmm3, xmm0

; 661  : 				D3DXVec3Normalize( &vAxis, &-vAxis );

  0089b	f3 0f 10 05 00
	00 00 00	 movss	 xmm0, DWORD PTR __mask@@NegFloat@
  008a3	f3 0f 11 9d 58
	ff ff ff	 movss	 DWORD PTR _v$537028[ebp+8], xmm3
  008ab	f2 0f 5a c9	 cvtsd2ss xmm1, xmm1
  008af	f3 0f 11 8d 50
	ff ff ff	 movss	 DWORD PTR _v$537028[ebp], xmm1
  008b7	f2 0f 5a d2	 cvtsd2ss xmm2, xmm2
  008bb	f3 0f 11 95 54
	ff ff ff	 movss	 DWORD PTR _v$537028[ebp+4], xmm2
  008c3	8d b5 50 ff ff
	ff		 lea	 esi, DWORD PTR _v$537028[ebp]
  008c9	8d 7d 9c	 lea	 edi, DWORD PTR _vAxis$532166[ebp]
  008cc	a5		 movsd
  008cd	59		 pop	 ecx
  008ce	8d 45 cc	 lea	 eax, DWORD PTR $T532167[ebp]
  008d1	a5		 movsd
  008d2	50		 push	 eax
  008d3	8d 45 9c	 lea	 eax, DWORD PTR _vAxis$532166[ebp]
  008d6	0f 57 c8	 xorps	 xmm1, xmm0
  008d9	0f 57 d0	 xorps	 xmm2, xmm0
  008dc	0f 57 d8	 xorps	 xmm3, xmm0
  008df	50		 push	 eax
  008e0	a5		 movsd
  008e1	f3 0f 11 4d cc	 movss	 DWORD PTR $T532167[ebp], xmm1
  008e6	f3 0f 11 55 d0	 movss	 DWORD PTR $T532167[ebp+4], xmm2
  008eb	f3 0f 11 5d d4	 movss	 DWORD PTR $T532167[ebp+8], xmm3
  008f0	e8 00 00 00 00	 call	 _D3DXVec3Normalize@8

; 662  : 
; 663  : 				GetParentSceneNode()->Rotate( vAxis, fGapAngle );

  008f5	8b 45 84	 mov	 eax, DWORD PTR _this$GSCopy$[ebp]
  008f8	8b 48 04	 mov	 ecx, DWORD PTR [eax+4]
  008fb	f3 0f 10 45 98	 movss	 xmm0, DWORD PTR _fGapAngle$532161[ebp]
  00900	8b 01		 mov	 eax, DWORD PTR [ecx]
  00902	6a 01		 push	 1
  00904	51		 push	 ecx
  00905	8d 55 9c	 lea	 edx, DWORD PTR _vAxis$532166[ebp]
  00908	f3 0f 11 04 24	 movss	 DWORD PTR [esp], xmm0
  0090d	52		 push	 edx
  0090e	ff 50 50	 call	 DWORD PTR [eax+80]
$LN2@ProcessTra:

; 597  : 		float fCurLoopTimeGap;
; 598  : 		float fCurLoopTimePerSec;
; 599  : 		while( fTimeGap > 0.0f )

  00911	f3 0f 10 45 94	 movss	 xmm0, DWORD PTR _fTimeGap$532120[ebp]
  00916	0f 2f 05 00 00
	00 00		 comiss	 xmm0, DWORD PTR __real@00000000
  0091d	0f 87 12 f8 ff
	ff		 ja	 $LL12@ProcessTra
$LN11@ProcessTra:

; 664  : 			}
; 665  : 		}
; 666  : 
; 667  : 		return true;

  00923	b0 01		 mov	 al, 1
$LN1@ProcessTra:

; 672  : 	}
; 673  : }

  00925	8b 4d fc	 mov	 ecx, DWORD PTR __$ArrayPad$[ebp]
  00928	5f		 pop	 edi
  00929	5e		 pop	 esi
  0092a	33 cd		 xor	 ecx, ebp
  0092c	5b		 pop	 ebx
  0092d	e8 00 00 00 00	 call	 @__security_check_cookie@4
  00932	c9		 leave
  00933	c2 20 00	 ret	 32			; 00000020H
?ProcessTrace@ioTraceWeapon6@@QAE_NUD3DXVECTOR3@@0M_N@Z ENDP ; ioTraceWeapon6::ProcessTrace
_TEXT	ENDS
PUBLIC	??0?$vector@UChangeDirInfo@@V?$allocator@UChangeDirInfo@@@std@@@std@@QAE@XZ ; std::vector<ChangeDirInfo,std::allocator<ChangeDirInfo> >::vector<ChangeDirInfo,std::allocator<ChangeDirInfo> >
; Function compile flags: /Ogsp
; File c:\program files (x86)\microsoft visual studio 10.0\vc\include\vector
;	COMDAT ??0?$vector@UChangeDirInfo@@V?$allocator@UChangeDirInfo@@@std@@@std@@QAE@XZ
_TEXT	SEGMENT
??0?$vector@UChangeDirInfo@@V?$allocator@UChangeDirInfo@@@std@@@std@@QAE@XZ PROC ; std::vector<ChangeDirInfo,std::allocator<ChangeDirInfo> >::vector<ChangeDirInfo,std::allocator<ChangeDirInfo> >, COMDAT
; _this$ = ecx

; 507  : 		{	// construct empty vector

  00000	8b c1		 mov	 eax, ecx
  00002	33 c9		 xor	 ecx, ecx
  00004	89 08		 mov	 DWORD PTR [eax], ecx
  00006	89 48 04	 mov	 DWORD PTR [eax+4], ecx
  00009	89 48 08	 mov	 DWORD PTR [eax+8], ecx

; 508  : 		}

  0000c	c3		 ret	 0
??0?$vector@UChangeDirInfo@@V?$allocator@UChangeDirInfo@@@std@@@std@@QAE@XZ ENDP ; std::vector<ChangeDirInfo,std::allocator<ChangeDirInfo> >::vector<ChangeDirInfo,std::allocator<ChangeDirInfo> >
_TEXT	ENDS
PUBLIC	?begin@?$vector@UChangeDirInfo@@V?$allocator@UChangeDirInfo@@@std@@@std@@QAE?AV?$_Vector_iterator@V?$_Vector_val@UChangeDirInfo@@V?$allocator@UChangeDirInfo@@@std@@@std@@@2@XZ ; std::vector<ChangeDirInfo,std::allocator<ChangeDirInfo> >::begin
; Function compile flags: /Ogsp
;	COMDAT ?begin@?$vector@UChangeDirInfo@@V?$allocator@UChangeDirInfo@@@std@@@std@@QAE?AV?$_Vector_iterator@V?$_Vector_val@UChangeDirInfo@@V?$allocator@UChangeDirInfo@@@std@@@std@@@2@XZ
_TEXT	SEGMENT
___$ReturnUdt$ = 8					; size = 4
?begin@?$vector@UChangeDirInfo@@V?$allocator@UChangeDirInfo@@@std@@@std@@QAE?AV?$_Vector_iterator@V?$_Vector_val@UChangeDirInfo@@V?$allocator@UChangeDirInfo@@@std@@@std@@@2@XZ PROC ; std::vector<ChangeDirInfo,std::allocator<ChangeDirInfo> >::begin, COMDAT
; _this$ = ecx

; 781  : 		{	// return iterator for beginning of mutable sequence

  00000	55		 push	 ebp
  00001	8b ec		 mov	 ebp, esp

; 782  : 		return (iterator(this->_Myfirst, this));

  00003	8b 09		 mov	 ecx, DWORD PTR [ecx]
  00005	8b 45 08	 mov	 eax, DWORD PTR ___$ReturnUdt$[ebp]
  00008	89 08		 mov	 DWORD PTR [eax], ecx

; 783  : 		}

  0000a	5d		 pop	 ebp
  0000b	c2 04 00	 ret	 4
?begin@?$vector@UChangeDirInfo@@V?$allocator@UChangeDirInfo@@@std@@@std@@QAE?AV?$_Vector_iterator@V?$_Vector_val@UChangeDirInfo@@V?$allocator@UChangeDirInfo@@@std@@@std@@@2@XZ ENDP ; std::vector<ChangeDirInfo,std::allocator<ChangeDirInfo> >::begin
_TEXT	ENDS
PUBLIC	?end@?$vector@UChangeDirInfo@@V?$allocator@UChangeDirInfo@@@std@@@std@@QAE?AV?$_Vector_iterator@V?$_Vector_val@UChangeDirInfo@@V?$allocator@UChangeDirInfo@@@std@@@std@@@2@XZ ; std::vector<ChangeDirInfo,std::allocator<ChangeDirInfo> >::end
; Function compile flags: /Ogsp
;	COMDAT ?end@?$vector@UChangeDirInfo@@V?$allocator@UChangeDirInfo@@@std@@@std@@QAE?AV?$_Vector_iterator@V?$_Vector_val@UChangeDirInfo@@V?$allocator@UChangeDirInfo@@@std@@@std@@@2@XZ
_TEXT	SEGMENT
___$ReturnUdt$ = 8					; size = 4
?end@?$vector@UChangeDirInfo@@V?$allocator@UChangeDirInfo@@@std@@@std@@QAE?AV?$_Vector_iterator@V?$_Vector_val@UChangeDirInfo@@V?$allocator@UChangeDirInfo@@@std@@@std@@@2@XZ PROC ; std::vector<ChangeDirInfo,std::allocator<ChangeDirInfo> >::end, COMDAT
; _this$ = ecx

; 791  : 		{	// return iterator for end of mutable sequence

  00000	55		 push	 ebp
  00001	8b ec		 mov	 ebp, esp

; 792  : 		return (iterator(this->_Mylast, this));

  00003	8b 49 04	 mov	 ecx, DWORD PTR [ecx+4]
  00006	8b 45 08	 mov	 eax, DWORD PTR ___$ReturnUdt$[ebp]
  00009	89 08		 mov	 DWORD PTR [eax], ecx

; 793  : 		}

  0000b	5d		 pop	 ebp
  0000c	c2 04 00	 ret	 4
?end@?$vector@UChangeDirInfo@@V?$allocator@UChangeDirInfo@@@std@@@std@@QAE?AV?$_Vector_iterator@V?$_Vector_val@UChangeDirInfo@@V?$allocator@UChangeDirInfo@@@std@@@std@@@2@XZ ENDP ; std::vector<ChangeDirInfo,std::allocator<ChangeDirInfo> >::end
_TEXT	ENDS
PUBLIC	??9?$_Vector_const_iterator@V?$_Vector_val@PAVioBaseChar@@V?$allocator@PAVioBaseChar@@@std@@@std@@@std@@QBE_NABV01@@Z ; std::_Vector_const_iterator<std::_Vector_val<ioBaseChar *,std::allocator<ioBaseChar *> > >::operator!=
; Function compile flags: /Ogsp
;	COMDAT ??9?$_Vector_const_iterator@V?$_Vector_val@PAVioBaseChar@@V?$allocator@PAVioBaseChar@@@std@@@std@@@std@@QBE_NABV01@@Z
_TEXT	SEGMENT
__Right$ = 8						; size = 4
??9?$_Vector_const_iterator@V?$_Vector_val@PAVioBaseChar@@V?$allocator@PAVioBaseChar@@@std@@@std@@@std@@QBE_NABV01@@Z PROC ; std::_Vector_const_iterator<std::_Vector_val<ioBaseChar *,std::allocator<ioBaseChar *> > >::operator!=, COMDAT
; _this$ = ecx

; 207  : 		{	// test for iterator inequality

  00000	55		 push	 ebp
  00001	8b ec		 mov	 ebp, esp

; 208  : 		return (!(*this == _Right));

  00003	8b 01		 mov	 eax, DWORD PTR [ecx]
  00005	8b 55 08	 mov	 edx, DWORD PTR __Right$[ebp]
  00008	33 c9		 xor	 ecx, ecx
  0000a	3b 02		 cmp	 eax, DWORD PTR [edx]
  0000c	0f 95 c0	 setne	 al

; 209  : 		}

  0000f	5d		 pop	 ebp
  00010	c2 04 00	 ret	 4
??9?$_Vector_const_iterator@V?$_Vector_val@PAVioBaseChar@@V?$allocator@PAVioBaseChar@@@std@@@std@@@std@@QBE_NABV01@@Z ENDP ; std::_Vector_const_iterator<std::_Vector_val<ioBaseChar *,std::allocator<ioBaseChar *> > >::operator!=
_TEXT	ENDS
PUBLIC	?_Make_iter@?$vector@UChangeDirInfo@@V?$allocator@UChangeDirInfo@@@std@@@std@@QBE?AV?$_Vector_iterator@V?$_Vector_val@UChangeDirInfo@@V?$allocator@UChangeDirInfo@@@std@@@std@@@2@V?$_Vector_const_iterator@V?$_Vector_val@UChangeDirInfo@@V?$allocator@UChangeDirInfo@@@std@@@std@@@2@@Z ; std::vector<ChangeDirInfo,std::allocator<ChangeDirInfo> >::_Make_iter
; Function compile flags: /Ogsp
;	COMDAT ?_Make_iter@?$vector@UChangeDirInfo@@V?$allocator@UChangeDirInfo@@@std@@@std@@QBE?AV?$_Vector_iterator@V?$_Vector_val@UChangeDirInfo@@V?$allocator@UChangeDirInfo@@@std@@@std@@@2@V?$_Vector_const_iterator@V?$_Vector_val@UChangeDirInfo@@V?$allocator@UChangeDirInfo@@@std@@@std@@@2@@Z
_TEXT	SEGMENT
___$ReturnUdt$ = 8					; size = 4
__Where$ = 12						; size = 4
?_Make_iter@?$vector@UChangeDirInfo@@V?$allocator@UChangeDirInfo@@@std@@@std@@QBE?AV?$_Vector_iterator@V?$_Vector_val@UChangeDirInfo@@V?$allocator@UChangeDirInfo@@@std@@@std@@@2@V?$_Vector_const_iterator@V?$_Vector_val@UChangeDirInfo@@V?$allocator@UChangeDirInfo@@@std@@@std@@@2@@Z PROC ; std::vector<ChangeDirInfo,std::allocator<ChangeDirInfo> >::_Make_iter, COMDAT
; _this$ = ecx

; 801  : 		{	// make iterator from const_iterator

  00000	55		 push	 ebp
  00001	8b ec		 mov	 ebp, esp

; 802  : 		return (iterator(_Where._Ptr, this));

  00003	8b 45 08	 mov	 eax, DWORD PTR ___$ReturnUdt$[ebp]
  00006	8b 4d 0c	 mov	 ecx, DWORD PTR __Where$[ebp]
  00009	89 08		 mov	 DWORD PTR [eax], ecx

; 803  : 		}

  0000b	5d		 pop	 ebp
  0000c	c2 08 00	 ret	 8
?_Make_iter@?$vector@UChangeDirInfo@@V?$allocator@UChangeDirInfo@@@std@@@std@@QBE?AV?$_Vector_iterator@V?$_Vector_val@UChangeDirInfo@@V?$allocator@UChangeDirInfo@@@std@@@std@@@2@V?$_Vector_const_iterator@V?$_Vector_val@UChangeDirInfo@@V?$allocator@UChangeDirInfo@@@std@@@std@@@2@@Z ENDP ; std::vector<ChangeDirInfo,std::allocator<ChangeDirInfo> >::_Make_iter
_TEXT	ENDS
PUBLIC	??9?$_Vector_const_iterator@V?$_Vector_val@UChangeDirInfo@@V?$allocator@UChangeDirInfo@@@std@@@std@@@std@@QBE_NABV01@@Z ; std::_Vector_const_iterator<std::_Vector_val<ChangeDirInfo,std::allocator<ChangeDirInfo> > >::operator!=
; Function compile flags: /Ogsp
;	COMDAT ??9?$_Vector_const_iterator@V?$_Vector_val@UChangeDirInfo@@V?$allocator@UChangeDirInfo@@@std@@@std@@@std@@QBE_NABV01@@Z
_TEXT	SEGMENT
__Right$ = 8						; size = 4
??9?$_Vector_const_iterator@V?$_Vector_val@UChangeDirInfo@@V?$allocator@UChangeDirInfo@@@std@@@std@@@std@@QBE_NABV01@@Z PROC ; std::_Vector_const_iterator<std::_Vector_val<ChangeDirInfo,std::allocator<ChangeDirInfo> > >::operator!=, COMDAT
; _this$ = ecx

; 207  : 		{	// test for iterator inequality

  00000	55		 push	 ebp
  00001	8b ec		 mov	 ebp, esp

; 208  : 		return (!(*this == _Right));

  00003	8b 01		 mov	 eax, DWORD PTR [ecx]
  00005	8b 55 08	 mov	 edx, DWORD PTR __Right$[ebp]
  00008	33 c9		 xor	 ecx, ecx
  0000a	3b 02		 cmp	 eax, DWORD PTR [edx]
  0000c	0f 95 c0	 setne	 al

; 209  : 		}

  0000f	5d		 pop	 ebp
  00010	c2 04 00	 ret	 4
??9?$_Vector_const_iterator@V?$_Vector_val@UChangeDirInfo@@V?$allocator@UChangeDirInfo@@@std@@@std@@@std@@QBE_NABV01@@Z ENDP ; std::_Vector_const_iterator<std::_Vector_val<ChangeDirInfo,std::allocator<ChangeDirInfo> > >::operator!=
_TEXT	ENDS
PUBLIC	??$_Cons_val@V?$allocator@UChangeDirInfo@@@std@@UChangeDirInfo@@ABU3@@std@@YAXAAV?$allocator@UChangeDirInfo@@@0@PAUChangeDirInfo@@ABU2@@Z ; std::_Cons_val<std::allocator<ChangeDirInfo>,ChangeDirInfo,ChangeDirInfo const &>
; Function compile flags: /Ogsp
; File c:\program files (x86)\microsoft visual studio 10.0\vc\include\xmemory
;	COMDAT ??$_Cons_val@V?$allocator@UChangeDirInfo@@@std@@UChangeDirInfo@@ABU3@@std@@YAXAAV?$allocator@UChangeDirInfo@@@0@PAUChangeDirInfo@@ABU2@@Z
_TEXT	SEGMENT
__Alval$ = 8						; size = 4
__Pdest$ = 12						; size = 4
__Src$ = 16						; size = 4
??$_Cons_val@V?$allocator@UChangeDirInfo@@@std@@UChangeDirInfo@@ABU3@@std@@YAXAAV?$allocator@UChangeDirInfo@@@0@PAUChangeDirInfo@@ABU2@@Z PROC ; std::_Cons_val<std::allocator<ChangeDirInfo>,ChangeDirInfo,ChangeDirInfo const &>, COMDAT

; 279  : 	{	// construct using allocator

  00000	55		 push	 ebp
  00001	8b ec		 mov	 ebp, esp
  00003	57		 push	 edi

; 280  : 	_Alval.construct(_Pdest, _STD forward<_Ty2>(_Src));

  00004	8b 7d 0c	 mov	 edi, DWORD PTR __Pdest$[ebp]
  00007	85 ff		 test	 edi, edi
  00009	74 0a		 je	 SHORT $LN9@Cons_val@2
  0000b	56		 push	 esi
  0000c	8b 75 10	 mov	 esi, DWORD PTR __Src$[ebp]
  0000f	6a 07		 push	 7
  00011	59		 pop	 ecx
  00012	f3 a5		 rep movsd
  00014	5e		 pop	 esi
$LN9@Cons_val@2:
  00015	5f		 pop	 edi

; 281  : 	}

  00016	5d		 pop	 ebp
  00017	c3		 ret	 0
??$_Cons_val@V?$allocator@UChangeDirInfo@@@std@@UChangeDirInfo@@ABU3@@std@@YAXAAV?$allocator@UChangeDirInfo@@@0@PAUChangeDirInfo@@ABU2@@Z ENDP ; std::_Cons_val<std::allocator<ChangeDirInfo>,ChangeDirInfo,ChangeDirInfo const &>
_TEXT	ENDS
PUBLIC	??$_Move@PAUChangeDirInfo@@PAU1@@std@@YAPAUChangeDirInfo@@PAU1@00@Z ; std::_Move<ChangeDirInfo *,ChangeDirInfo *>
; Function compile flags: /Ogsp
; File c:\program files (x86)\microsoft visual studio 10.0\vc\include\xutility
;	COMDAT ??$_Move@PAUChangeDirInfo@@PAU1@@std@@YAPAUChangeDirInfo@@PAU1@00@Z
_TEXT	SEGMENT
__Cat$537196 = -4					; size = 1
__First$ = 8						; size = 4
__Last$ = 12						; size = 4
__Dest$ = 16						; size = 4
??$_Move@PAUChangeDirInfo@@PAU1@@std@@YAPAUChangeDirInfo@@PAU1@00@Z PROC ; std::_Move<ChangeDirInfo *,ChangeDirInfo *>, COMDAT

; 2533 : 	{	// move [_First, _Last) to [_Dest, ...), unchecked

  00000	55		 push	 ebp
  00001	8b ec		 mov	 ebp, esp
  00003	51		 push	 ecx

; 2534 : 	return (_Move(_First, _Last,
; 2535 : 		_Dest, _Ptr_cat(_First, _Dest)));

  00004	ff 75 fc	 push	 DWORD PTR __Cat$537196[ebp]
  00007	ff 75 10	 push	 DWORD PTR __Dest$[ebp]
  0000a	ff 75 0c	 push	 DWORD PTR __Last$[ebp]
  0000d	ff 75 08	 push	 DWORD PTR __First$[ebp]
  00010	e8 00 00 00 00	 call	 ??$_Move@PAUChangeDirInfo@@PAU1@@std@@YAPAUChangeDirInfo@@PAU1@00U_Nonscalar_ptr_iterator_tag@0@@Z ; std::_Move<ChangeDirInfo *,ChangeDirInfo *>
  00015	83 c4 10	 add	 esp, 16			; 00000010H

; 2536 : 	}

  00018	c9		 leave
  00019	c3		 ret	 0
??$_Move@PAUChangeDirInfo@@PAU1@@std@@YAPAUChangeDirInfo@@PAU1@00@Z ENDP ; std::_Move<ChangeDirInfo *,ChangeDirInfo *>
_TEXT	ENDS
PUBLIC	??$_Dest_val@V?$allocator@UChangeDirInfo@@@std@@UChangeDirInfo@@@std@@YAXAAV?$allocator@UChangeDirInfo@@@0@PAUChangeDirInfo@@@Z ; std::_Dest_val<std::allocator<ChangeDirInfo>,ChangeDirInfo>
; Function compile flags: /Ogsp
; File c:\program files (x86)\microsoft visual studio 10.0\vc\include\xmemory
;	COMDAT ??$_Dest_val@V?$allocator@UChangeDirInfo@@@std@@UChangeDirInfo@@@std@@YAXAAV?$allocator@UChangeDirInfo@@@0@PAUChangeDirInfo@@@Z
_TEXT	SEGMENT
__Alval$ = 8						; size = 4
__Pdest$ = 12						; size = 4
??$_Dest_val@V?$allocator@UChangeDirInfo@@@std@@UChangeDirInfo@@@std@@YAXAAV?$allocator@UChangeDirInfo@@@0@PAUChangeDirInfo@@@Z PROC ; std::_Dest_val<std::allocator<ChangeDirInfo>,ChangeDirInfo>, COMDAT

; 287  : 	_Alval.destroy(_Pdest);
; 288  : 	}

  00000	c3		 ret	 0
??$_Dest_val@V?$allocator@UChangeDirInfo@@@std@@UChangeDirInfo@@@std@@YAXAAV?$allocator@UChangeDirInfo@@@0@PAUChangeDirInfo@@@Z ENDP ; std::_Dest_val<std::allocator<ChangeDirInfo>,ChangeDirInfo>
_TEXT	ENDS
PUBLIC	??$iter_swap@PAUChangeDirInfo@@PAU1@@std@@YAXPAUChangeDirInfo@@0@Z ; std::iter_swap<ChangeDirInfo *,ChangeDirInfo *>
; Function compile flags: /Ogsp
; File c:\program files (x86)\microsoft visual studio 10.0\vc\include\xutility
;	COMDAT ??$iter_swap@PAUChangeDirInfo@@PAU1@@std@@YAXPAUChangeDirInfo@@0@Z
_TEXT	SEGMENT
__Left$ = 8						; size = 4
__Right$ = 12						; size = 4
??$iter_swap@PAUChangeDirInfo@@PAU1@@std@@YAXPAUChangeDirInfo@@0@Z PROC ; std::iter_swap<ChangeDirInfo *,ChangeDirInfo *>, COMDAT

; 2133 : 	{	// swap *_Left and *_Right

  00000	55		 push	 ebp
  00001	8b ec		 mov	 ebp, esp

; 2135 : 	}

  00003	5d		 pop	 ebp

; 2134 : 	swap(*_Left, *_Right);

  00004	e9 00 00 00 00	 jmp	 ??$swap@UChangeDirInfo@@@std@@YAXAAUChangeDirInfo@@0@Z ; std::swap<ChangeDirInfo>
??$iter_swap@PAUChangeDirInfo@@PAU1@@std@@YAXPAUChangeDirInfo@@0@Z ENDP ; std::iter_swap<ChangeDirInfo *,ChangeDirInfo *>
_TEXT	ENDS
PUBLIC	??$_Insertion_sort1@PAUChangeDirInfo@@VChangeDirSort@@U1@@std@@YAXPAUChangeDirInfo@@0VChangeDirSort@@0@Z ; std::_Insertion_sort1<ChangeDirInfo *,ChangeDirSort,ChangeDirInfo>
; Function compile flags: /Ogsp
; File c:\program files (x86)\microsoft visual studio 10.0\vc\include\algorithm
;	COMDAT ??$_Insertion_sort1@PAUChangeDirInfo@@VChangeDirSort@@U1@@std@@YAXPAUChangeDirInfo@@0VChangeDirSort@@0@Z
_TEXT	SEGMENT
__Val$534878 = -32					; size = 28
__Next1$534877 = -4					; size = 4
__Cat$537237 = 8					; size = 1
__First$ = 8						; size = 4
__Last$ = 12						; size = 4
__Pred$ = 16						; size = 1
___formal$ = 20						; size = 4
??$_Insertion_sort1@PAUChangeDirInfo@@VChangeDirSort@@U1@@std@@YAXPAUChangeDirInfo@@0VChangeDirSort@@0@Z PROC ; std::_Insertion_sort1<ChangeDirInfo *,ChangeDirSort,ChangeDirInfo>, COMDAT

; 3650 : 	{	// insertion sort [_First, _Last), using _Pred

  00000	55		 push	 ebp
  00001	8b ec		 mov	 ebp, esp

; 3651 : 	if (_First != _Last)

  00003	8b 55 08	 mov	 edx, DWORD PTR __First$[ebp]
  00006	83 ec 20	 sub	 esp, 32			; 00000020H
  00009	3b 55 0c	 cmp	 edx, DWORD PTR __Last$[ebp]
  0000c	0f 84 e1 00 00
	00		 je	 $LN6@Insertion_

; 3652 : 		for (_BidIt _Next = _First; ++_Next != _Last; )

  00012	53		 push	 ebx
  00013	8d 5a 1c	 lea	 ebx, DWORD PTR [edx+28]
  00016	3b 5d 0c	 cmp	 ebx, DWORD PTR __Last$[ebp]
  00019	0f 84 d3 00 00
	00		 je	 $LN40@Insertion_
  0001f	56		 push	 esi
  00020	57		 push	 edi
  00021	eb 03		 jmp	 SHORT $LN7@Insertion_
$LL39@Insertion_:
  00023	8b 55 08	 mov	 edx, DWORD PTR __First$[ebp]
$LN7@Insertion_:

; 3653 : 			{	// order next element
; 3654 : 			_BidIt _Next1 = _Next;
; 3655 : 			_Ty _Val = _Move(*_Next);
; 3656 : 
; 3657 : 			if (_DEBUG_LT_PRED(_Pred, _Val, *_First))

  00026	f3 0f 10 02	 movss	 xmm0, DWORD PTR [edx]
  0002a	6a 07		 push	 7
  0002c	59		 pop	 ecx
  0002d	8b f3		 mov	 esi, ebx
  0002f	8d 7d e0	 lea	 edi, DWORD PTR __Val$534878[ebp]
  00032	f3 a5		 rep movsd
  00034	f3 0f 10 4d e0	 movss	 xmm1, DWORD PTR __Val$534878[ebp]
  00039	0f 5a d1	 cvtps2pd xmm2, xmm1
  0003c	0f 5a d8	 cvtps2pd xmm3, xmm0
  0003f	66 0f 2f da	 comisd	 xmm3, xmm2
  00043	89 5d fc	 mov	 DWORD PTR __Next1$534877[ebp], ebx
  00046	77 29		 ja	 SHORT $LN37@Insertion_
  00048	0f 57 d2	 xorps	 xmm2, xmm2
  0004b	0f 5a d1	 cvtps2pd xmm2, xmm1
  0004e	0f 5a c0	 cvtps2pd xmm0, xmm0
  00051	66 0f 2e d0	 ucomisd xmm2, xmm0
  00055	9f		 lahf
  00056	f6 c4 44	 test	 ah, 68			; 00000044H
  00059	7a 2c		 jp	 SHORT $LN5@Insertion_
  0005b	f3 0f 10 45 ec	 movss	 xmm0, DWORD PTR __Val$534878[ebp+12]
  00060	f3 0f 10 52 0c	 movss	 xmm2, DWORD PTR [edx+12]
  00065	0f 5a c0	 cvtps2pd xmm0, xmm0
  00068	0f 5a d2	 cvtps2pd xmm2, xmm2
  0006b	66 0f 2f d0	 comisd	 xmm2, xmm0
  0006f	76 16		 jbe	 SHORT $LN5@Insertion_
$LN37@Insertion_:

; 3658 : 				{	// found new earliest element, move to front
; 3659 : 				_Move_backward(_First, _Next, ++_Next1);

  00071	ff 75 08	 push	 DWORD PTR __Cat$537237[ebp]
  00074	8d 43 1c	 lea	 eax, DWORD PTR [ebx+28]
  00077	50		 push	 eax
  00078	53		 push	 ebx
  00079	52		 push	 edx
  0007a	e8 00 00 00 00	 call	 ??$_Move_backward@PAUChangeDirInfo@@PAU1@@std@@YAPAUChangeDirInfo@@PAU1@00U_Nonscalar_ptr_iterator_tag@0@@Z ; std::_Move_backward<ChangeDirInfo *,ChangeDirInfo *>

; 3660 : 				*_First = _Move(_Val);

  0007f	8b 7d 08	 mov	 edi, DWORD PTR __First$[ebp]
  00082	83 c4 10	 add	 esp, 16			; 00000010H

; 3661 : 				}
; 3662 : 			else

  00085	eb 55		 jmp	 SHORT $LN42@Insertion_
$LN5@Insertion_:

; 3663 : 				{	// look for insertion point after first
; 3664 : 				for (_BidIt _First1 = _Next1;

  00087	8b d3		 mov	 edx, ebx
$LL3@Insertion_:

; 3665 : 					_DEBUG_LT_PRED(_Pred, _Val, *--_First1);
; 3666 : 					_Next1 = _First1)

  00089	83 ea 1c	 sub	 edx, 28			; 0000001cH
  0008c	f3 0f 10 02	 movss	 xmm0, DWORD PTR [edx]
  00090	0f 57 d2	 xorps	 xmm2, xmm2
  00093	f3 0f 5a d1	 cvtss2sd xmm2, xmm1
  00097	0f 5a d8	 cvtps2pd xmm3, xmm0
  0009a	66 0f 2f da	 comisd	 xmm3, xmm2
  0009e	77 2a		 ja	 SHORT $LN38@Insertion_
  000a0	0f 57 d2	 xorps	 xmm2, xmm2
  000a3	f3 0f 5a d1	 cvtss2sd xmm2, xmm1
  000a7	0f 5a c0	 cvtps2pd xmm0, xmm0
  000aa	66 0f 2e d0	 ucomisd xmm2, xmm0
  000ae	9f		 lahf
  000af	f6 c4 44	 test	 ah, 68			; 00000044H
  000b2	7a 25		 jp	 SHORT $LN25@Insertion_
  000b4	f3 0f 10 45 ec	 movss	 xmm0, DWORD PTR __Val$534878[ebp+12]
  000b9	f3 0f 10 52 0c	 movss	 xmm2, DWORD PTR [edx+12]
  000be	0f 5a c0	 cvtps2pd xmm0, xmm0
  000c1	0f 5a d2	 cvtps2pd xmm2, xmm2
  000c4	66 0f 2f d0	 comisd	 xmm2, xmm0
  000c8	76 0f		 jbe	 SHORT $LN25@Insertion_
$LN38@Insertion_:

; 3667 : 					*_Next1 = _Move(*_First1);	// move hole down

  000ca	8b 7d fc	 mov	 edi, DWORD PTR __Next1$534877[ebp]
  000cd	6a 07		 push	 7
  000cf	59		 pop	 ecx
  000d0	8b f2		 mov	 esi, edx
  000d2	f3 a5		 rep movsd
  000d4	89 55 fc	 mov	 DWORD PTR __Next1$534877[ebp], edx
  000d7	eb b0		 jmp	 SHORT $LL3@Insertion_

; 3665 : 					_DEBUG_LT_PRED(_Pred, _Val, *--_First1);
; 3666 : 					_Next1 = _First1)

$LN25@Insertion_:

; 3668 : 				*_Next1 = _Move(_Val);	// insert element in hole

  000d9	8b 7d fc	 mov	 edi, DWORD PTR __Next1$534877[ebp]
$LN42@Insertion_:
  000dc	6a 07		 push	 7
  000de	83 c3 1c	 add	 ebx, 28			; 0000001cH
  000e1	59		 pop	 ecx
  000e2	8d 75 e0	 lea	 esi, DWORD PTR __Val$534878[ebp]
  000e5	f3 a5		 rep movsd
  000e7	3b 5d 0c	 cmp	 ebx, DWORD PTR __Last$[ebp]
  000ea	0f 85 33 ff ff
	ff		 jne	 $LL39@Insertion_
  000f0	5f		 pop	 edi
  000f1	5e		 pop	 esi
$LN40@Insertion_:
  000f2	5b		 pop	 ebx
$LN6@Insertion_:

; 3669 : 				}
; 3670 : 			}
; 3671 : 	}

  000f3	c9		 leave
  000f4	c3		 ret	 0
??$_Insertion_sort1@PAUChangeDirInfo@@VChangeDirSort@@U1@@std@@YAXPAUChangeDirInfo@@0VChangeDirSort@@0@Z ENDP ; std::_Insertion_sort1<ChangeDirInfo *,ChangeDirSort,ChangeDirInfo>
_TEXT	ENDS
PUBLIC	??$_Cons_val@V?$allocator@UChangeDirInfo@@@std@@UChangeDirInfo@@U3@@std@@YAXAAV?$allocator@UChangeDirInfo@@@0@PAUChangeDirInfo@@$$QAU2@@Z ; std::_Cons_val<std::allocator<ChangeDirInfo>,ChangeDirInfo,ChangeDirInfo>
; Function compile flags: /Ogsp
; File c:\program files (x86)\microsoft visual studio 10.0\vc\include\xmemory
;	COMDAT ??$_Cons_val@V?$allocator@UChangeDirInfo@@@std@@UChangeDirInfo@@U3@@std@@YAXAAV?$allocator@UChangeDirInfo@@@0@PAUChangeDirInfo@@$$QAU2@@Z
_TEXT	SEGMENT
__Alval$ = 8						; size = 4
__Pdest$ = 12						; size = 4
__Src$ = 16						; size = 4
??$_Cons_val@V?$allocator@UChangeDirInfo@@@std@@UChangeDirInfo@@U3@@std@@YAXAAV?$allocator@UChangeDirInfo@@@0@PAUChangeDirInfo@@$$QAU2@@Z PROC ; std::_Cons_val<std::allocator<ChangeDirInfo>,ChangeDirInfo,ChangeDirInfo>, COMDAT

; 279  : 	{	// construct using allocator

  00000	55		 push	 ebp
  00001	8b ec		 mov	 ebp, esp
  00003	57		 push	 edi

; 280  : 	_Alval.construct(_Pdest, _STD forward<_Ty2>(_Src));

  00004	8b 7d 0c	 mov	 edi, DWORD PTR __Pdest$[ebp]
  00007	85 ff		 test	 edi, edi
  00009	74 0a		 je	 SHORT $LN7@Cons_val@3
  0000b	56		 push	 esi
  0000c	8b 75 10	 mov	 esi, DWORD PTR __Src$[ebp]
  0000f	6a 07		 push	 7
  00011	59		 pop	 ecx
  00012	f3 a5		 rep movsd
  00014	5e		 pop	 esi
$LN7@Cons_val@3:
  00015	5f		 pop	 edi

; 281  : 	}

  00016	5d		 pop	 ebp
  00017	c3		 ret	 0
??$_Cons_val@V?$allocator@UChangeDirInfo@@@std@@UChangeDirInfo@@U3@@std@@YAXAAV?$allocator@UChangeDirInfo@@@0@PAUChangeDirInfo@@$$QAU2@@Z ENDP ; std::_Cons_val<std::allocator<ChangeDirInfo>,ChangeDirInfo,ChangeDirInfo>
_TEXT	ENDS
PUBLIC	??$_Med3@PAUChangeDirInfo@@VChangeDirSort@@@std@@YAXPAUChangeDirInfo@@00VChangeDirSort@@@Z ; std::_Med3<ChangeDirInfo *,ChangeDirSort>
; Function compile flags: /Ogsp
; File c:\program files (x86)\microsoft visual studio 10.0\vc\include\algorithm
;	COMDAT ??$_Med3@PAUChangeDirInfo@@VChangeDirSort@@@std@@YAXPAUChangeDirInfo@@00VChangeDirSort@@@Z
_TEXT	SEGMENT
__First$ = 8						; size = 4
__Mid$ = 12						; size = 4
__Last$ = 16						; size = 4
__Pred$ = 20						; size = 1
??$_Med3@PAUChangeDirInfo@@VChangeDirSort@@@std@@YAXPAUChangeDirInfo@@00VChangeDirSort@@@Z PROC ; std::_Med3<ChangeDirInfo *,ChangeDirSort>, COMDAT

; 3683 : 	{	// sort median of three elements to middle

  00000	55		 push	 ebp
  00001	8b ec		 mov	 ebp, esp
  00003	56		 push	 esi

; 3684 : 	if (_DEBUG_LT_PRED(_Pred, *_Mid, *_First))

  00004	8b 75 0c	 mov	 esi, DWORD PTR __Mid$[ebp]
  00007	f3 0f 10 06	 movss	 xmm0, DWORD PTR [esi]
  0000b	57		 push	 edi
  0000c	8b 7d 08	 mov	 edi, DWORD PTR __First$[ebp]
  0000f	f3 0f 10 0f	 movss	 xmm1, DWORD PTR [edi]
  00013	0f 5a d0	 cvtps2pd xmm2, xmm0
  00016	0f 5a d9	 cvtps2pd xmm3, xmm1
  00019	66 0f 2f da	 comisd	 xmm3, xmm2
  0001d	77 26		 ja	 SHORT $LN30@Med3
  0001f	0f 5a c0	 cvtps2pd xmm0, xmm0
  00022	0f 5a c9	 cvtps2pd xmm1, xmm1
  00025	66 0f 2e c1	 ucomisd xmm0, xmm1
  00029	9f		 lahf
  0002a	f6 c4 44	 test	 ah, 68			; 00000044H
  0002d	7a 1f		 jp	 SHORT $LN12@Med3
  0002f	f3 0f 10 46 0c	 movss	 xmm0, DWORD PTR [esi+12]
  00034	f3 0f 10 4f 0c	 movss	 xmm1, DWORD PTR [edi+12]
  00039	0f 5a c0	 cvtps2pd xmm0, xmm0
  0003c	0f 5a c9	 cvtps2pd xmm1, xmm1
  0003f	66 0f 2f c8	 comisd	 xmm1, xmm0
  00043	76 09		 jbe	 SHORT $LN12@Med3
$LN30@Med3:

; 3685 : 		_STD iter_swap(_Mid, _First);

  00045	57		 push	 edi
  00046	56		 push	 esi
  00047	e8 00 00 00 00	 call	 ??$swap@UChangeDirInfo@@@std@@YAXAAUChangeDirInfo@@0@Z ; std::swap<ChangeDirInfo>
  0004c	59		 pop	 ecx
  0004d	59		 pop	 ecx
$LN12@Med3:

; 3686 : 	if (_DEBUG_LT_PRED(_Pred, *_Last, *_Mid))

  0004e	8b 4d 10	 mov	 ecx, DWORD PTR __Last$[ebp]
  00051	f3 0f 10 01	 movss	 xmm0, DWORD PTR [ecx]
  00055	f3 0f 10 0e	 movss	 xmm1, DWORD PTR [esi]
  00059	0f 5a d0	 cvtps2pd xmm2, xmm0
  0005c	0f 5a d9	 cvtps2pd xmm3, xmm1
  0005f	66 0f 2f da	 comisd	 xmm3, xmm2
  00063	77 26		 ja	 SHORT $LN31@Med3
  00065	0f 5a c0	 cvtps2pd xmm0, xmm0
  00068	0f 5a c9	 cvtps2pd xmm1, xmm1
  0006b	66 0f 2e c1	 ucomisd xmm0, xmm1
  0006f	9f		 lahf
  00070	f6 c4 44	 test	 ah, 68			; 00000044H
  00073	7a 1f		 jp	 SHORT $LN20@Med3
  00075	f3 0f 10 41 0c	 movss	 xmm0, DWORD PTR [ecx+12]
  0007a	f3 0f 10 4e 0c	 movss	 xmm1, DWORD PTR [esi+12]
  0007f	0f 5a c0	 cvtps2pd xmm0, xmm0
  00082	0f 5a c9	 cvtps2pd xmm1, xmm1
  00085	66 0f 2f c8	 comisd	 xmm1, xmm0
  00089	76 09		 jbe	 SHORT $LN20@Med3
$LN31@Med3:

; 3687 : 		_STD iter_swap(_Last, _Mid);

  0008b	56		 push	 esi
  0008c	51		 push	 ecx
  0008d	e8 00 00 00 00	 call	 ??$swap@UChangeDirInfo@@@std@@YAXAAUChangeDirInfo@@0@Z ; std::swap<ChangeDirInfo>
  00092	59		 pop	 ecx
  00093	59		 pop	 ecx
$LN20@Med3:

; 3688 : 	if (_DEBUG_LT_PRED(_Pred, *_Mid, *_First))

  00094	f3 0f 10 06	 movss	 xmm0, DWORD PTR [esi]
  00098	f3 0f 10 0f	 movss	 xmm1, DWORD PTR [edi]
  0009c	0f 5a d0	 cvtps2pd xmm2, xmm0
  0009f	0f 5a d9	 cvtps2pd xmm3, xmm1
  000a2	66 0f 2f da	 comisd	 xmm3, xmm2
  000a6	77 26		 ja	 SHORT $LN32@Med3
  000a8	0f 5a c0	 cvtps2pd xmm0, xmm0
  000ab	0f 5a c9	 cvtps2pd xmm1, xmm1
  000ae	66 0f 2e c1	 ucomisd xmm0, xmm1
  000b2	9f		 lahf
  000b3	f6 c4 44	 test	 ah, 68			; 00000044H
  000b6	7a 1f		 jp	 SHORT $LN28@Med3
  000b8	f3 0f 10 46 0c	 movss	 xmm0, DWORD PTR [esi+12]
  000bd	f3 0f 10 4f 0c	 movss	 xmm1, DWORD PTR [edi+12]
  000c2	0f 5a c0	 cvtps2pd xmm0, xmm0
  000c5	0f 5a c9	 cvtps2pd xmm1, xmm1
  000c8	66 0f 2f c8	 comisd	 xmm1, xmm0
  000cc	76 09		 jbe	 SHORT $LN28@Med3
$LN32@Med3:

; 3689 : 		_STD iter_swap(_Mid, _First);

  000ce	57		 push	 edi
  000cf	56		 push	 esi
  000d0	e8 00 00 00 00	 call	 ??$swap@UChangeDirInfo@@@std@@YAXAAUChangeDirInfo@@0@Z ; std::swap<ChangeDirInfo>
  000d5	59		 pop	 ecx
  000d6	59		 pop	 ecx
$LN28@Med3:
  000d7	5f		 pop	 edi
  000d8	5e		 pop	 esi

; 3690 : 	}

  000d9	5d		 pop	 ebp
  000da	c3		 ret	 0
??$_Med3@PAUChangeDirInfo@@VChangeDirSort@@@std@@YAXPAUChangeDirInfo@@00VChangeDirSort@@@Z ENDP ; std::_Med3<ChangeDirInfo *,ChangeDirSort>
_TEXT	ENDS
PUBLIC	??$_Adjust_heap@PAUChangeDirInfo@@HU1@VChangeDirSort@@@std@@YAXPAUChangeDirInfo@@HH$$QAU1@VChangeDirSort@@@Z ; std::_Adjust_heap<ChangeDirInfo *,int,ChangeDirInfo,ChangeDirSort>
; Function compile flags: /Ogsp
;	COMDAT ??$_Adjust_heap@PAUChangeDirInfo@@HU1@VChangeDirSort@@@std@@YAXPAUChangeDirInfo@@HH$$QAU1@VChangeDirSort@@@Z
_TEXT	SEGMENT
__First$ = 8						; size = 4
__Top$ = 12						; size = 4
__Hole$ = 12						; size = 4
__Bottom$ = 16						; size = 4
__Val$ = 20						; size = 4
__Pred$ = 24						; size = 1
??$_Adjust_heap@PAUChangeDirInfo@@HU1@VChangeDirSort@@@std@@YAXPAUChangeDirInfo@@HH$$QAU1@VChangeDirSort@@@Z PROC ; std::_Adjust_heap<ChangeDirInfo *,int,ChangeDirInfo,ChangeDirSort>, COMDAT

; 2565 : 	{	// percolate _Hole to _Bottom, then push _Val, using _Pred

  00000	55		 push	 ebp
  00001	8b ec		 mov	 ebp, esp
  00003	53		 push	 ebx

; 2566 : 	_Diff _Top = _Hole;
; 2567 : 	_Diff _Idx = 2 * _Hole + 2;
; 2568 : 
; 2569 : 	for (; _Idx < _Bottom; _Idx = 2 * _Idx + 2)

  00004	8b 5d 08	 mov	 ebx, DWORD PTR __First$[ebp]
  00007	56		 push	 esi
  00008	57		 push	 edi
  00009	8b 7d 0c	 mov	 edi, DWORD PTR __Hole$[ebp]
  0000c	89 7d 0c	 mov	 DWORD PTR __Top$[ebp], edi
  0000f	8d 54 3f 02	 lea	 edx, DWORD PTR [edi+edi+2]
  00013	eb 5a		 jmp	 SHORT $LN25@Adjust_hea
$LL5@Adjust_hea:

; 2570 : 		{	// move _Hole down to larger child
; 2571 : 		if (_DEBUG_LT_PRED(_Pred, *(_First + _Idx), *(_First + (_Idx - 1))))

  00015	8b ca		 mov	 ecx, edx
  00017	6b c9 1c	 imul	 ecx, 28			; 0000001cH
  0001a	03 cb		 add	 ecx, ebx
  0001c	f3 0f 10 01	 movss	 xmm0, DWORD PTR [ecx]
  00020	f3 0f 10 49 e4	 movss	 xmm1, DWORD PTR [ecx-28]
  00025	0f 5a d0	 cvtps2pd xmm2, xmm0
  00028	0f 5a d9	 cvtps2pd xmm3, xmm1
  0002b	66 0f 2f da	 comisd	 xmm3, xmm2
  0002f	77 26		 ja	 SHORT $LN22@Adjust_hea
  00031	0f 5a c0	 cvtps2pd xmm0, xmm0
  00034	0f 5a c9	 cvtps2pd xmm1, xmm1
  00037	66 0f 2e c1	 ucomisd xmm0, xmm1
  0003b	9f		 lahf
  0003c	f6 c4 44	 test	 ah, 68			; 00000044H
  0003f	7a 17		 jp	 SHORT $LN23@Adjust_hea
  00041	f3 0f 10 41 0c	 movss	 xmm0, DWORD PTR [ecx+12]
  00046	f3 0f 10 49 f0	 movss	 xmm1, DWORD PTR [ecx-16]
  0004b	0f 5a c0	 cvtps2pd xmm0, xmm0
  0004e	0f 5a c9	 cvtps2pd xmm1, xmm1
  00051	66 0f 2f c8	 comisd	 xmm1, xmm0
  00055	76 01		 jbe	 SHORT $LN23@Adjust_hea
$LN22@Adjust_hea:

; 2572 : 			--_Idx;

  00057	4a		 dec	 edx
$LN23@Adjust_hea:

; 2573 : 		*(_First + _Hole) = _Move(*(_First + _Idx));

  00058	8b f2		 mov	 esi, edx
  0005a	6b ff 1c	 imul	 edi, 28			; 0000001cH
  0005d	6b f6 1c	 imul	 esi, 28			; 0000001cH
  00060	03 f3		 add	 esi, ebx
  00062	6a 07		 push	 7
  00064	03 fb		 add	 edi, ebx
  00066	59		 pop	 ecx
  00067	f3 a5		 rep movsd

; 2574 : 		_Hole = _Idx;

  00069	8b fa		 mov	 edi, edx
  0006b	8d 54 12 02	 lea	 edx, DWORD PTR [edx+edx+2]
$LN25@Adjust_hea:

; 2566 : 	_Diff _Top = _Hole;
; 2567 : 	_Diff _Idx = 2 * _Hole + 2;
; 2568 : 
; 2569 : 	for (; _Idx < _Bottom; _Idx = 2 * _Idx + 2)

  0006f	8b 45 10	 mov	 eax, DWORD PTR __Bottom$[ebp]
  00072	3b d0		 cmp	 edx, eax
  00074	7c 9f		 jl	 SHORT $LL5@Adjust_hea

; 2575 : 		}
; 2576 : 
; 2577 : 	if (_Idx == _Bottom)

  00076	75 16		 jne	 SHORT $LN1@Adjust_hea

; 2578 : 		{	// only child at bottom, move _Hole down to it
; 2579 : 		*(_First + _Hole) = _Move(*(_First + (_Bottom - 1)));

  00078	8b c8		 mov	 ecx, eax
  0007a	6b ff 1c	 imul	 edi, 28			; 0000001cH
  0007d	6b c9 1c	 imul	 ecx, 28			; 0000001cH
  00080	8d 74 19 e4	 lea	 esi, DWORD PTR [ecx+ebx-28]
  00084	6a 07		 push	 7
  00086	03 fb		 add	 edi, ebx
  00088	59		 pop	 ecx
  00089	f3 a5		 rep movsd

; 2580 : 		_Hole = _Bottom - 1;

  0008b	8d 78 ff	 lea	 edi, DWORD PTR [eax-1]
$LN1@Adjust_hea:

; 2581 : 		}
; 2582 : 	_Push_heap(_First, _Hole, _Top, _Move(_Val), _Pred);

  0008e	ff 75 18	 push	 DWORD PTR __Pred$[ebp]
  00091	ff 75 14	 push	 DWORD PTR __Val$[ebp]
  00094	ff 75 0c	 push	 DWORD PTR __Top$[ebp]
  00097	57		 push	 edi
  00098	53		 push	 ebx
  00099	e8 00 00 00 00	 call	 ??$_Push_heap@PAUChangeDirInfo@@HU1@VChangeDirSort@@@std@@YAXPAUChangeDirInfo@@HH$$QAU1@VChangeDirSort@@@Z ; std::_Push_heap<ChangeDirInfo *,int,ChangeDirInfo,ChangeDirSort>
  0009e	83 c4 14	 add	 esp, 20			; 00000014H
  000a1	5f		 pop	 edi
  000a2	5e		 pop	 esi
  000a3	5b		 pop	 ebx

; 2583 : 	}

  000a4	5d		 pop	 ebp
  000a5	c3		 ret	 0
??$_Adjust_heap@PAUChangeDirInfo@@HU1@VChangeDirSort@@@std@@YAXPAUChangeDirInfo@@HH$$QAU1@VChangeDirSort@@@Z ENDP ; std::_Adjust_heap<ChangeDirInfo *,int,ChangeDirInfo,ChangeDirSort>
_TEXT	ENDS
PUBLIC	??$_Pop_heap@PAUChangeDirInfo@@HU1@VChangeDirSort@@@std@@YAXPAUChangeDirInfo@@00$$QAU1@VChangeDirSort@@PAH@Z ; std::_Pop_heap<ChangeDirInfo *,int,ChangeDirInfo,ChangeDirSort>
; Function compile flags: /Ogsp
;	COMDAT ??$_Pop_heap@PAUChangeDirInfo@@HU1@VChangeDirSort@@@std@@YAXPAUChangeDirInfo@@00$$QAU1@VChangeDirSort@@PAH@Z
_TEXT	SEGMENT
__First$ = 8						; size = 4
__Last$ = 12						; size = 4
__Dest$ = 16						; size = 4
__Val$ = 20						; size = 4
__Pred$ = 24						; size = 1
___formal$ = 28						; size = 4
??$_Pop_heap@PAUChangeDirInfo@@HU1@VChangeDirSort@@@std@@YAXPAUChangeDirInfo@@00$$QAU1@VChangeDirSort@@PAH@Z PROC ; std::_Pop_heap<ChangeDirInfo *,int,ChangeDirInfo,ChangeDirSort>, COMDAT

; 2591 : 	{	// pop *_First to *_Dest and reheap, using _Pred

  00000	55		 push	 ebp
  00001	8b ec		 mov	 ebp, esp

; 2592 : 	*_Dest = _Move(*_First);
; 2593 : 	_Adjust_heap(_First, _Diff(0), _Diff(_Last - _First),
; 2594 : 		_Move(_Val), _Pred);

  00003	8b 45 0c	 mov	 eax, DWORD PTR __Last$[ebp]
  00006	2b 45 08	 sub	 eax, DWORD PTR __First$[ebp]
  00009	56		 push	 esi
  0000a	8b 75 08	 mov	 esi, DWORD PTR __First$[ebp]
  0000d	57		 push	 edi
  0000e	8b 7d 10	 mov	 edi, DWORD PTR __Dest$[ebp]
  00011	6a 07		 push	 7
  00013	59		 pop	 ecx
  00014	ff 75 18	 push	 DWORD PTR __Pred$[ebp]
  00017	f3 a5		 rep movsd
  00019	ff 75 14	 push	 DWORD PTR __Val$[ebp]
  0001c	99		 cdq
  0001d	6a 1c		 push	 28			; 0000001cH
  0001f	59		 pop	 ecx
  00020	f7 f9		 idiv	 ecx
  00022	50		 push	 eax
  00023	6a 00		 push	 0
  00025	ff 75 08	 push	 DWORD PTR __First$[ebp]
  00028	e8 00 00 00 00	 call	 ??$_Adjust_heap@PAUChangeDirInfo@@HU1@VChangeDirSort@@@std@@YAXPAUChangeDirInfo@@HH$$QAU1@VChangeDirSort@@@Z ; std::_Adjust_heap<ChangeDirInfo *,int,ChangeDirInfo,ChangeDirSort>
  0002d	83 c4 14	 add	 esp, 20			; 00000014H
  00030	5f		 pop	 edi
  00031	5e		 pop	 esi

; 2595 : 	}

  00032	5d		 pop	 ebp
  00033	c3		 ret	 0
??$_Pop_heap@PAUChangeDirInfo@@HU1@VChangeDirSort@@@std@@YAXPAUChangeDirInfo@@00$$QAU1@VChangeDirSort@@PAH@Z ENDP ; std::_Pop_heap<ChangeDirInfo *,int,ChangeDirInfo,ChangeDirSort>
_TEXT	ENDS
PUBLIC	?GetTeam@ioPlayEntity@@QBE?AW4TeamType@@XZ	; ioPlayEntity::GetTeam
; Function compile flags: /Ogsp
; File d:\lost saga for developer\youtube\tutorial\source\src\lsclient\ioplayentity.h
;	COMDAT ?GetTeam@ioPlayEntity@@QBE?AW4TeamType@@XZ
_TEXT	SEGMENT
_value$537368 = -4					; size = 4
?GetTeam@ioPlayEntity@@QBE?AW4TeamType@@XZ PROC		; ioPlayEntity::GetTeam, COMDAT
; _this$ = ecx

; 107  : 	inline TeamType GetTeam() const { return m_TeamType; }

  00000	55		 push	 ebp
  00001	8b ec		 mov	 ebp, esp
  00003	51		 push	 ecx
  00004	8d 45 fc	 lea	 eax, DWORD PTR _value$537368[ebp]
  00007	50		 push	 eax
  00008	81 c1 90 00 00
	00		 add	 ecx, 144		; 00000090H
  0000e	e8 00 00 00 00	 call	 ?DecryptValueToPool@?$CEncrypt@W4TeamType@@@@QAEXPAW4TeamType@@@Z ; CEncrypt<enum TeamType>::DecryptValueToPool
  00013	8b 45 fc	 mov	 eax, DWORD PTR _value$537368[ebp]
  00016	c9		 leave
  00017	c3		 ret	 0
?GetTeam@ioPlayEntity@@QBE?AW4TeamType@@XZ ENDP		; ioPlayEntity::GetTeam
_TEXT	ENDS
PUBLIC	?GetTeam@ioWeapon@@QBE?AW4TeamType@@XZ		; ioWeapon::GetTeam
; Function compile flags: /Ogsp
; File d:\lost saga for developer\youtube\tutorial\source\src\lsclient\ioweapon.h
;	COMDAT ?GetTeam@ioWeapon@@QBE?AW4TeamType@@XZ
_TEXT	SEGMENT
_value$537375 = -4					; size = 4
?GetTeam@ioWeapon@@QBE?AW4TeamType@@XZ PROC		; ioWeapon::GetTeam, COMDAT
; _this$ = ecx

; 534  : 	inline TeamType GetTeam() const { return m_TeamType; }

  00000	55		 push	 ebp
  00001	8b ec		 mov	 ebp, esp
  00003	51		 push	 ecx
  00004	8d 45 fc	 lea	 eax, DWORD PTR _value$537375[ebp]
  00007	50		 push	 eax
  00008	83 c1 30	 add	 ecx, 48			; 00000030H
  0000b	e8 00 00 00 00	 call	 ?DecryptValueToPool@?$CEncrypt@W4TeamType@@@@QAEXPAW4TeamType@@@Z ; CEncrypt<enum TeamType>::DecryptValueToPool
  00010	8b 45 fc	 mov	 eax, DWORD PTR _value$537375[ebp]
  00013	c9		 leave
  00014	c3		 ret	 0
?GetTeam@ioWeapon@@QBE?AW4TeamType@@XZ ENDP		; ioWeapon::GetTeam
_TEXT	ENDS
PUBLIC	_pStage$GSCopy$
PUBLIC	?OnSensing@ioTraceWeapon6@@IAEXPAVioPlayStage@@M@Z ; ioTraceWeapon6::OnSensing
EXTRN	?GetBaseChar@ioPlayStage@@QAEPAVioBaseChar@@ABVioHashString@@@Z:PROC ; ioPlayStage::GetBaseChar
EXTRN	?GetMidPositionByRate@ioGameEntity@@QBE?AUD3DXVECTOR3@@M@Z:PROC ; ioGameEntity::GetMidPositionByRate
EXTRN	?IsExperienceOwner@ioWeapon@@QAE_NXZ:PROC	; ioWeapon::IsExperienceOwner
;	COMDAT xdata$x
; File d:\lost saga for developer\youtube\tutorial\source\src\lsclient\iobasechar.h
xdata$x	SEGMENT
__unwindtable$?OnSensing@ioTraceWeapon6@@IAEXPAVioPlayStage@@M@Z DD 0ffffffffH
	DD	FLAT:__unwindfunclet$?OnSensing@ioTraceWeapon6@@IAEXPAVioPlayStage@@M@Z$0
__ehfuncinfo$?OnSensing@ioTraceWeapon6@@IAEXPAVioPlayStage@@M@Z DD 019930522H
	DD	01H
	DD	FLAT:__unwindtable$?OnSensing@ioTraceWeapon6@@IAEXPAVioPlayStage@@M@Z
	DD	2 DUP(00H)
	DD	2 DUP(00H)
	DD	00H
	DD	01H
; Function compile flags: /Ogsp
; File d:\lost saga for developer\youtube\tutorial\source\src\lsclient\iotraceweapon6.cpp
xdata$x	ENDS
;	COMDAT ?OnSensing@ioTraceWeapon6@@IAEXPAVioPlayStage@@M@Z
_TEXT	SEGMENT
_value$537531 = -112					; size = 4
_value$537500 = -108					; size = 4
_fHalfValue$ = -104					; size = 4
_fSensingRangeSq$ = -100				; size = 4
_value$537513 = -96					; size = 4
$T537384 = -92						; size = 4
_szTarget$ = -88					; size = 16
tv1012 = -72						; size = 4
tv1008 = -72						; size = 4
tv1004 = -72						; size = 4
tv954 = -72						; size = 4
tv1048 = -68						; size = 4
tv1044 = -68						; size = 4
tv1024 = -68						; size = 4
_fDiffRangeSq$531957 = -68				; size = 4
_pStage$GSCopy$ = -64					; size = 4
_pChar$531946 = -64					; size = 4
_value$537407 = -60					; size = 4
_fCurGap$ = -60						; size = 4
$T537381 = -60						; size = 4
_fMoveDist$ = -60					; size = 4
tv1040 = -56						; size = 4
tv1037 = -56						; size = 4
tv1028 = -56						; size = 4
tv890 = -56						; size = 4
_value$537423 = -56					; size = 4
_value$537411 = -56					; size = 4
_fSensingHalfAnigle$ = -56				; size = 4
_vDiff2$531960 = -52					; size = 12
_vCurPos$ = -40						; size = 12
$T531827 = -40						; size = 12
_vTargetPos$531954 = -28				; size = 12
__$EHRec$ = -12						; size = 12
_pStage$ = 8						; size = 4
_fTimePerSec$ = 12					; size = 4
?OnSensing@ioTraceWeapon6@@IAEXPAVioPlayStage@@M@Z PROC	; ioTraceWeapon6::OnSensing, COMDAT
; _this$ = ecx

; 246  : {

  00000	6a 64		 push	 100			; 00000064H
  00002	b8 00 00 00 00	 mov	 eax, __ehhandler$?OnSensing@ioTraceWeapon6@@IAEXPAVioPlayStage@@M@Z
  00007	e8 00 00 00 00	 call	 __EH_prolog3_GS
  0000c	8b 7d 08	 mov	 edi, DWORD PTR _pStage$[ebp]
  0000f	8b d9		 mov	 ebx, ecx

; 247  : 	if( !m_TargetName.IsEmpty() )

  00011	8d 8b e4 09 00
	00		 lea	 ecx, DWORD PTR [ebx+2532]

; 327  : 		}
; 328  : 	}
; 329  : 
; 330  : 	UpdateWorldAttackBox( fTimePerSec, false );

  00017	89 7d c0	 mov	 DWORD PTR _pStage$GSCopy$[ebp], edi
  0001a	ff 15 00 00 00
	00		 call	 DWORD PTR __imp_?IsEmpty@ioHashString@@QBE_NXZ
  00020	84 c0		 test	 al, al
  00022	75 0c		 jne	 SHORT $LN20@OnSensing

; 248  : 		m_TargetName.Clear();	

  00024	8d 8b e4 09 00
	00		 lea	 ecx, DWORD PTR [ebx+2532]
  0002a	ff 15 00 00 00
	00		 call	 DWORD PTR __imp_?Clear@ioHashString@@QAEXXZ
$LN20@OnSensing:

; 249  : 	
; 250  : 	DWORD dwCurTime = FRAMEGETTIME();

  00030	ff 15 00 00 00
	00		 call	 DWORD PTR __imp_?GetSingleton@ioFrameTimer@@SAAAV1@XZ
  00036	8b c8		 mov	 ecx, eax
  00038	ff 15 00 00 00
	00		 call	 DWORD PTR __imp_?GetLoopSec@ioFrameTimer@@QBEKXZ

; 251  : 
; 252  : 	// Sensing 시간동안 타겟 잡지 못하면 처음 생성된 지역으로 돌아간다.
; 253  : 	if( m_dwSensingStartTime + m_dwSensingDuration < dwCurTime )

  0003e	8b 8b 38 09 00
	00		 mov	 ecx, DWORD PTR [ebx+2360]
  00044	03 8b d4 08 00
	00		 add	 ecx, DWORD PTR [ebx+2260]
  0004a	3b c8		 cmp	 ecx, eax

; 254  : 	{
; 255  : 		SetReturnState( pStage );

  0004c	8b cb		 mov	 ecx, ebx
  0004e	73 0b		 jae	 SHORT $LN19@OnSensing
  00050	57		 push	 edi
  00051	e8 00 00 00 00	 call	 ?SetReturnState@ioTraceWeapon6@@IAEXPAVioPlayStage@@@Z ; ioTraceWeapon6::SetReturnState

; 256  : 		return;

  00056	e9 a0 04 00 00	 jmp	 $LN21@OnSensing
$LN19@OnSensing:

; 257  : 	}
; 258  : 
; 259  : 	float fMoveDist = GetMoveSpeed() * fTimePerSec;

  0005b	e8 00 00 00 00	 call	 ?GetMoveSpeed@ioTraceWeapon6@@IAEMXZ ; ioTraceWeapon6::GetMoveSpeed
  00060	d8 4d 0c	 fmul	 DWORD PTR _fTimePerSec$[ebp]

; 260  : 	GetParentSceneNode()->Translate( m_vMoveDir * fMoveDist );

  00063	f3 0f 10 83 d8
	09 00 00	 movss	 xmm0, DWORD PTR [ebx+2520]
  0006b	8b 4b 04	 mov	 ecx, DWORD PTR [ebx+4]
  0006e	d9 5d c4	 fstp	 DWORD PTR _fMoveDist$[ebp]
  00071	f3 0f 10 4d c4	 movss	 xmm1, DWORD PTR _fMoveDist$[ebp]
  00076	f3 0f 10 55 c4	 movss	 xmm2, DWORD PTR _fMoveDist$[ebp]
  0007b	f3 0f 10 5d c4	 movss	 xmm3, DWORD PTR _fMoveDist$[ebp]
  00080	0f 5a c9	 cvtps2pd xmm1, xmm1
  00083	0f 5a c0	 cvtps2pd xmm0, xmm0
  00086	f2 0f 59 c1	 mulsd	 xmm0, xmm1
  0008a	f3 0f 10 8b dc
	09 00 00	 movss	 xmm1, DWORD PTR [ebx+2524]
  00092	0f 5a d2	 cvtps2pd xmm2, xmm2
  00095	0f 5a c9	 cvtps2pd xmm1, xmm1
  00098	f2 0f 59 ca	 mulsd	 xmm1, xmm2
  0009c	f3 0f 10 93 e0
	09 00 00	 movss	 xmm2, DWORD PTR [ebx+2528]
  000a4	0f 5a d2	 cvtps2pd xmm2, xmm2
  000a7	0f 5a db	 cvtps2pd xmm3, xmm3
  000aa	f2 0f 59 d3	 mulsd	 xmm2, xmm3
  000ae	66 0f 5a c0	 cvtpd2ps xmm0, xmm0
  000b2	66 0f 5a c9	 cvtpd2ps xmm1, xmm1
  000b6	66 0f 5a d2	 cvtpd2ps xmm2, xmm2
  000ba	6a 01		 push	 1
  000bc	8d 55 d8	 lea	 edx, DWORD PTR $T531827[ebp]
  000bf	f3 0f 11 45 d8	 movss	 DWORD PTR $T531827[ebp], xmm0
  000c4	f3 0f 11 4d dc	 movss	 DWORD PTR $T531827[ebp+4], xmm1
  000c9	f3 0f 11 55 e0	 movss	 DWORD PTR $T531827[ebp+8], xmm2
  000ce	8b 01		 mov	 eax, DWORD PTR [ecx]
  000d0	52		 push	 edx
  000d1	ff 50 3c	 call	 DWORD PTR [eax+60]

; 261  : 
; 262  : 	D3DXVECTOR3 vDiff;
; 263  : 	D3DXVECTOR3 vCurPos = GetPosition();

  000d4	8b 03		 mov	 eax, DWORD PTR [ebx]
  000d6	8b cb		 mov	 ecx, ebx
  000d8	ff 50 70	 call	 DWORD PTR [eax+112]
  000db	8b f0		 mov	 esi, eax
  000dd	8d 7d d8	 lea	 edi, DWORD PTR _vCurPos$[ebp]
  000e0	a5		 movsd
  000e1	a5		 movsd

; 264  : 	float fSensingRangeSq = m_fSensingRange * m_fSensingRange;

  000e2	8d 45 c4	 lea	 eax, DWORD PTR _value$537407[ebp]
  000e5	50		 push	 eax
  000e6	8d 8b d8 08 00
	00		 lea	 ecx, DWORD PTR [ebx+2264]
  000ec	a5		 movsd
  000ed	e8 00 00 00 00	 call	 ?DecryptValueToPool@?$CEncrypt@M@@QAEXPAM@Z ; CEncrypt<float>::DecryptValueToPool
  000f2	8d 45 c8	 lea	 eax, DWORD PTR _value$537411[ebp]
  000f5	50		 push	 eax
  000f6	8d 8b d8 08 00
	00		 lea	 ecx, DWORD PTR [ebx+2264]
  000fc	e8 00 00 00 00	 call	 ?DecryptValueToPool@?$CEncrypt@M@@QAEXPAM@Z ; CEncrypt<float>::DecryptValueToPool
  00101	f3 0f 10 45 c8	 movss	 xmm0, DWORD PTR _value$537411[ebp]
  00106	f3 0f 10 4d c4	 movss	 xmm1, DWORD PTR _value$537407[ebp]
  0010b	0f 5a c0	 cvtps2pd xmm0, xmm0
  0010e	0f 5a c9	 cvtps2pd xmm1, xmm1
  00111	f2 0f 59 c1	 mulsd	 xmm0, xmm1
  00115	66 0f 5a c0	 cvtpd2ps xmm0, xmm0
  00119	f3 0f 11 45 9c	 movss	 DWORD PTR _fSensingRangeSq$[ebp], xmm0

; 265  : 	// /2.0f 를 * FLOAT05로 변경
; 266  : 	float fSensingHalfAnigle = m_fSensingAngle * FLOAT05;

  0011e	b8 05 00 00 00	 mov	 eax, 5
  00123	8b c8		 mov	 ecx, eax
  00125	b8 0a 00 00 00	 mov	 eax, 10			; 0000000aH
  0012a	89 4d bc	 mov	 DWORD PTR tv1048[ebp], ecx
  0012d	db 45 bc	 fild	 DWORD PTR tv1048[ebp]
  00130	85 c9		 test	 ecx, ecx
  00132	79 06		 jns	 SHORT $LN118@OnSensing
  00134	d8 05 00 00 00
	00		 fadd	 DWORD PTR __real@4f800000
$LN118@OnSensing:
  0013a	89 45 bc	 mov	 DWORD PTR tv1044[ebp], eax
  0013d	db 45 bc	 fild	 DWORD PTR tv1044[ebp]
  00140	85 c0		 test	 eax, eax
  00142	79 06		 jns	 SHORT $LN119@OnSensing
  00144	d8 05 00 00 00
	00		 fadd	 DWORD PTR __real@4f800000
$LN119@OnSensing:
  0014a	de f9		 fdivp	 ST(1), ST(0)
  0014c	8d 45 c8	 lea	 eax, DWORD PTR _value$537423[ebp]
  0014f	8d 8b 08 09 00
	00		 lea	 ecx, DWORD PTR [ebx+2312]
  00155	50		 push	 eax
  00156	d9 5d c8	 fstp	 DWORD PTR tv1040[ebp]
  00159	d9 45 c8	 fld	 DWORD PTR tv1040[ebp]
  0015c	d9 5d c4	 fstp	 DWORD PTR $T537381[ebp]
  0015f	e8 00 00 00 00	 call	 ?DecryptValueToPool@?$CEncrypt@M@@QAEXPAM@Z ; CEncrypt<float>::DecryptValueToPool

; 267  : 	fSensingHalfAnigle = ioMath::ArrangeHead(fSensingHalfAnigle);

  00164	d9 45 c8	 fld	 DWORD PTR _value$537423[ebp]
  00167	d8 4d c4	 fmul	 DWORD PTR $T537381[ebp]
  0016a	51		 push	 ecx
  0016b	d9 5d c8	 fstp	 DWORD PTR tv1037[ebp]
  0016e	d9 45 c8	 fld	 DWORD PTR tv1037[ebp]
  00171	d9 1c 24	 fstp	 DWORD PTR [esp]
  00174	ff 15 00 00 00
	00		 call	 DWORD PTR __imp_?ArrangeHead@ioMath@@SAMM@Z
  0017a	d9 5d c8	 fstp	 DWORD PTR _fSensingHalfAnigle$[ebp]
  0017d	59		 pop	 ecx

; 268  : 	float fHalfValue = cosf(fSensingHalfAnigle);

  0017e	d9 45 c8	 fld	 DWORD PTR _fSensingHalfAnigle$[ebp]
  00181	e8 00 00 00 00	 call	 __CIcos
  00186	d9 5d c8	 fstp	 DWORD PTR tv1028[ebp]
  00189	d9 45 c8	 fld	 DWORD PTR tv1028[ebp]

; 269  : 
; 270  : 	// Char Check
; 271  : 	const BaseCharList &rkCharList = pStage->GetBaseCharList();
; 272  : 	BaseCharList::const_iterator iter;
; 273  : 
; 274  : 	ioHashString szTarget;

  0018c	8d 4d a8	 lea	 ecx, DWORD PTR _szTarget$[ebp]
  0018f	d9 5d 98	 fstp	 DWORD PTR _fHalfValue$[ebp]
  00192	ff 15 00 00 00
	00		 call	 DWORD PTR __imp_??0ioHashString@@QAE@XZ
  00198	83 65 fc 00	 and	 DWORD PTR __$EHRec$[ebp+8], 0

; 275  : 	float fCurGap = -FLOAT1;

  0019c	b8 01 00 00 00	 mov	 eax, 1
  001a1	89 45 bc	 mov	 DWORD PTR tv1024[ebp], eax
  001a4	db 45 bc	 fild	 DWORD PTR tv1024[ebp]
  001a7	85 c0		 test	 eax, eax
  001a9	79 06		 jns	 SHORT $LN120@OnSensing
  001ab	d8 05 00 00 00
	00		 fadd	 DWORD PTR __real@4f800000
$LN120@OnSensing:

; 276  : 	for( iter=rkCharList.begin() ; iter!=rkCharList.end() ; ++iter )

  001b1	8b 75 c0	 mov	 esi, DWORD PTR _pStage$GSCopy$[ebp]
  001b4	d9 e0		 fchs
  001b6	8b 7e 2c	 mov	 edi, DWORD PTR [esi+44]
  001b9	d9 5d c4	 fstp	 DWORD PTR _fCurGap$[ebp]
  001bc	e9 c9 02 00 00	 jmp	 $LN124@OnSensing
$LN56@OnSensing:

; 277  : 	{
; 278  : 		ioBaseChar *pChar = *iter;

  001c1	8b 07		 mov	 eax, DWORD PTR [edi]
  001c3	89 45 c0	 mov	 DWORD PTR _pChar$531946[ebp], eax

; 279  : 		if( !pChar ) continue;

  001c6	85 c0		 test	 eax, eax
  001c8	0f 84 b9 02 00
	00		 je	 $LN17@OnSensing

; 280  : 
; 281  : 		if( pChar->GetTeam() == GetTeam() ) continue;

  001ce	8d 88 90 00 00
	00		 lea	 ecx, DWORD PTR [eax+144]
  001d4	8d 45 94	 lea	 eax, DWORD PTR _value$537500[ebp]
  001d7	50		 push	 eax
  001d8	e8 00 00 00 00	 call	 ?DecryptValueToPool@?$CEncrypt@W4TeamType@@@@QAEXPAW4TeamType@@@Z ; CEncrypt<enum TeamType>::DecryptValueToPool
  001dd	8d 45 a0	 lea	 eax, DWORD PTR _value$537513[ebp]
  001e0	8d 4b 30	 lea	 ecx, DWORD PTR [ebx+48]
  001e3	50		 push	 eax
  001e4	e8 00 00 00 00	 call	 ?DecryptValueToPool@?$CEncrypt@W4TeamType@@@@QAEXPAW4TeamType@@@Z ; CEncrypt<enum TeamType>::DecryptValueToPool
  001e9	8b 45 94	 mov	 eax, DWORD PTR _value$537500[ebp]
  001ec	3b 45 a0	 cmp	 eax, DWORD PTR _value$537513[ebp]
  001ef	0f 84 92 02 00
	00		 je	 $LN17@OnSensing

; 282  : 		if( pChar->GetCharName() == GetOwnerName() ) continue;

  001f5	8b 4d c0	 mov	 ecx, DWORD PTR _pChar$531946[ebp]
  001f8	8d 43 10	 lea	 eax, DWORD PTR [ebx+16]
  001fb	81 c1 d4 02 00
	00		 add	 ecx, 724		; 000002d4H
  00201	50		 push	 eax
  00202	89 4d c8	 mov	 DWORD PTR tv890[ebp], ecx
  00205	ff 15 00 00 00
	00		 call	 DWORD PTR __imp_??8ioHashString@@QBE_NABV0@@Z
  0020b	84 c0		 test	 al, al
  0020d	0f 85 74 02 00
	00		 jne	 $LN17@OnSensing

; 283  : 		if( pChar->GetExperienceMode() == EMS_EXPERIENCE ) continue;

  00213	8b 4d c0	 mov	 ecx, DWORD PTR _pChar$531946[ebp]
  00216	8d 45 90	 lea	 eax, DWORD PTR _value$537531[ebp]
  00219	81 c1 94 1d 00
	00		 add	 ecx, 7572		; 00001d94H
  0021f	50		 push	 eax
  00220	e8 00 00 00 00	 call	 ?DecryptValueToPool@?$CEncrypt@K@@QAEXPAK@Z ; CEncrypt<unsigned long>::DecryptValueToPool
  00225	83 7d 90 02	 cmp	 DWORD PTR _value$537531[ebp], 2
  00229	0f 84 58 02 00
	00		 je	 $LN17@OnSensing

; 284  : 		if( pChar->GetCharName() == m_szReturnTargetName ) continue;

  0022f	8b 4d c8	 mov	 ecx, DWORD PTR tv890[ebp]
  00232	8d 83 a4 08 00
	00		 lea	 eax, DWORD PTR [ebx+2212]
  00238	50		 push	 eax
  00239	ff 15 00 00 00
	00		 call	 DWORD PTR __imp_??8ioHashString@@QBE_NABV0@@Z
  0023f	84 c0		 test	 al, al
  00241	0f 85 40 02 00
	00		 jne	 $LN17@OnSensing

; 285  : 		if( IsExperienceOwner() ) continue;

  00247	8b cb		 mov	 ecx, ebx
  00249	e8 00 00 00 00	 call	 ?IsExperienceOwner@ioWeapon@@QAE_NXZ ; ioWeapon::IsExperienceOwner
  0024e	84 c0		 test	 al, al
  00250	0f 85 31 02 00
	00		 jne	 $LN17@OnSensing

; 286  : 		if( !IsEnableTargetState( pChar ) )

  00256	ff 75 c0	 push	 DWORD PTR _pChar$531946[ebp]
  00259	8b cb		 mov	 ecx, ebx
  0025b	e8 00 00 00 00	 call	 ?IsEnableTargetState@ioTraceWeapon6@@IAE_NPAVioBaseChar@@@Z ; ioTraceWeapon6::IsEnableTargetState
  00260	84 c0		 test	 al, al
  00262	0f 84 1f 02 00
	00		 je	 $LN17@OnSensing

; 287  : 			continue;
; 288  : 
; 289  : 		D3DXVECTOR3 vTargetPos = pChar->GetMidPositionByRate();

  00268	b8 05 00 00 00	 mov	 eax, 5
  0026d	8b c8		 mov	 ecx, eax
  0026f	b8 0a 00 00 00	 mov	 eax, 10			; 0000000aH
  00274	89 4d b8	 mov	 DWORD PTR tv1012[ebp], ecx
  00277	db 45 b8	 fild	 DWORD PTR tv1012[ebp]
  0027a	85 c9		 test	 ecx, ecx
  0027c	79 06		 jns	 SHORT $LN121@OnSensing
  0027e	d8 05 00 00 00
	00		 fadd	 DWORD PTR __real@4f800000
$LN121@OnSensing:
  00284	89 45 b8	 mov	 DWORD PTR tv1008[ebp], eax
  00287	db 45 b8	 fild	 DWORD PTR tv1008[ebp]
  0028a	85 c0		 test	 eax, eax
  0028c	79 06		 jns	 SHORT $LN122@OnSensing
  0028e	d8 05 00 00 00
	00		 fadd	 DWORD PTR __real@4f800000
$LN122@OnSensing:
  00294	de f9		 fdivp	 ST(1), ST(0)
  00296	51		 push	 ecx
  00297	8b 4d c0	 mov	 ecx, DWORD PTR _pChar$531946[ebp]
  0029a	8d 45 e4	 lea	 eax, DWORD PTR _vTargetPos$531954[ebp]
  0029d	d9 5d b8	 fstp	 DWORD PTR tv1004[ebp]
  002a0	d9 45 b8	 fld	 DWORD PTR tv1004[ebp]
  002a3	d9 1c 24	 fstp	 DWORD PTR [esp]
  002a6	50		 push	 eax
  002a7	e8 00 00 00 00	 call	 ?GetMidPositionByRate@ioGameEntity@@QBE?AUD3DXVECTOR3@@M@Z ; ioGameEntity::GetMidPositionByRate

; 290  : 		vDiff = vCurPos - vTargetPos;

  002ac	f3 0f 10 45 d8	 movss	 xmm0, DWORD PTR _vCurPos$[ebp]
  002b1	f3 0f 10 4d e4	 movss	 xmm1, DWORD PTR _vTargetPos$531954[ebp]
  002b6	f3 0f 10 55 e8	 movss	 xmm2, DWORD PTR _vTargetPos$531954[ebp+4]
  002bb	f3 0f 10 5d ec	 movss	 xmm3, DWORD PTR _vTargetPos$531954[ebp+8]
  002c0	0f 5a c0	 cvtps2pd xmm0, xmm0
  002c3	0f 5a c9	 cvtps2pd xmm1, xmm1
  002c6	f2 0f 5c c1	 subsd	 xmm0, xmm1
  002ca	0f 57 c9	 xorps	 xmm1, xmm1
  002cd	f2 0f 5a c8	 cvtsd2ss xmm1, xmm0
  002d1	f3 0f 10 45 dc	 movss	 xmm0, DWORD PTR _vCurPos$[ebp+4]
  002d6	0f 5a c0	 cvtps2pd xmm0, xmm0
  002d9	0f 5a d2	 cvtps2pd xmm2, xmm2
  002dc	f2 0f 5c c2	 subsd	 xmm0, xmm2
  002e0	f3 0f 10 55 e0	 movss	 xmm2, DWORD PTR _vCurPos$[ebp+8]
  002e5	f2 0f 5a c0	 cvtsd2ss xmm0, xmm0
  002e9	0f 5a d2	 cvtps2pd xmm2, xmm2

; 291  : 		float fDiffRangeSq = D3DXVec3LengthSq( &vDiff );

  002ec	f3 0f 5a c0	 cvtss2sd xmm0, xmm0
  002f0	0f 5a db	 cvtps2pd xmm3, xmm3
  002f3	f2 0f 5c d3	 subsd	 xmm2, xmm3
  002f7	0f 5a c9	 cvtps2pd xmm1, xmm1
  002fa	f2 0f 59 c0	 mulsd	 xmm0, xmm0
  002fe	f2 0f 5a d2	 cvtsd2ss xmm2, xmm2
  00302	f2 0f 59 c9	 mulsd	 xmm1, xmm1
  00306	f2 0f 58 c8	 addsd	 xmm1, xmm0
  0030a	f3 0f 5a d2	 cvtss2sd xmm2, xmm2
  0030e	f2 0f 59 d2	 mulsd	 xmm2, xmm2
  00312	0f 57 c0	 xorps	 xmm0, xmm0
  00315	f2 0f 58 ca	 addsd	 xmm1, xmm2
  00319	66 0f 5a c1	 cvtpd2ps xmm0, xmm1

; 292  : 
; 293  : 		// 각도 체크
; 294  : 		if( m_fSensingAngle != 0.0f && GetOwner() )

  0031d	8d 45 a4	 lea	 eax, DWORD PTR $T537384[ebp]
  00320	f3 0f 11 45 bc	 movss	 DWORD PTR _fDiffRangeSq$531957[ebp], xmm0
  00325	0f 57 c0	 xorps	 xmm0, xmm0
  00328	50		 push	 eax
  00329	8d 8b 08 09 00
	00		 lea	 ecx, DWORD PTR [ebx+2312]
  0032f	f3 0f 11 45 a4	 movss	 DWORD PTR $T537384[ebp], xmm0
  00334	e8 00 00 00 00	 call	 ??9?$CEncrypt@M@@QAE_NABM@Z ; CEncrypt<float>::operator!=
  00339	84 c0		 test	 al, al
  0033b	0f 84 d9 00 00
	00		 je	 $LN7@OnSensing
  00341	8b cb		 mov	 ecx, ebx
  00343	e8 00 00 00 00	 call	 ?GetOwner@ioWeapon@@QBEPAVioBaseChar@@XZ ; ioWeapon::GetOwner
  00348	85 c0		 test	 eax, eax
  0034a	0f 84 ca 00 00
	00		 je	 $LN7@OnSensing

; 295  : 		{
; 296  : 			D3DXVECTOR3 vDiff2 = vTargetPos - GetPosition();

  00350	8b 03		 mov	 eax, DWORD PTR [ebx]
  00352	8b cb		 mov	 ecx, ebx
  00354	ff 50 70	 call	 DWORD PTR [eax+112]
  00357	f3 0f 10 08	 movss	 xmm1, DWORD PTR [eax]
  0035b	f3 0f 10 50 04	 movss	 xmm2, DWORD PTR [eax+4]
  00360	f3 0f 10 45 e4	 movss	 xmm0, DWORD PTR _vTargetPos$531954[ebp]
  00365	f3 0f 10 58 08	 movss	 xmm3, DWORD PTR [eax+8]
  0036a	0f 5a c9	 cvtps2pd xmm1, xmm1
  0036d	0f 5a c0	 cvtps2pd xmm0, xmm0
  00370	f2 0f 5c c1	 subsd	 xmm0, xmm1
  00374	f3 0f 10 4d e8	 movss	 xmm1, DWORD PTR _vTargetPos$531954[ebp+4]
  00379	0f 5a d2	 cvtps2pd xmm2, xmm2
  0037c	0f 5a c9	 cvtps2pd xmm1, xmm1
  0037f	f2 0f 5c ca	 subsd	 xmm1, xmm2
  00383	f3 0f 10 55 ec	 movss	 xmm2, DWORD PTR _vTargetPos$531954[ebp+8]

; 297  : 			D3DXVec3Normalize( &vDiff2, &vDiff2 );

  00388	8d 45 cc	 lea	 eax, DWORD PTR _vDiff2$531960[ebp]
  0038b	0f 5a d2	 cvtps2pd xmm2, xmm2
  0038e	0f 5a db	 cvtps2pd xmm3, xmm3
  00391	50		 push	 eax
  00392	f2 0f 5c d3	 subsd	 xmm2, xmm3
  00396	66 0f 5a c0	 cvtpd2ps xmm0, xmm0
  0039a	66 0f 5a c9	 cvtpd2ps xmm1, xmm1
  0039e	66 0f 5a d2	 cvtpd2ps xmm2, xmm2
  003a2	50		 push	 eax
  003a3	f3 0f 11 45 cc	 movss	 DWORD PTR _vDiff2$531960[ebp], xmm0
  003a8	f3 0f 11 4d d0	 movss	 DWORD PTR _vDiff2$531960[ebp+4], xmm1
  003ad	f3 0f 11 55 d4	 movss	 DWORD PTR _vDiff2$531960[ebp+8], xmm2
  003b2	e8 00 00 00 00	 call	 _D3DXVec3Normalize@8

; 298  : 
; 299  : 			float fCurValue = D3DXVec3Dot( &m_vMoveDir, &vDiff2 );

  003b7	f3 0f 10 8b dc
	09 00 00	 movss	 xmm1, DWORD PTR [ebx+2524]
  003bf	f3 0f 10 45 d0	 movss	 xmm0, DWORD PTR _vDiff2$531960[ebp+4]
  003c4	f3 0f 10 93 d8
	09 00 00	 movss	 xmm2, DWORD PTR [ebx+2520]
  003cc	0f 5a c9	 cvtps2pd xmm1, xmm1
  003cf	0f 5a c0	 cvtps2pd xmm0, xmm0
  003d2	f2 0f 59 c1	 mulsd	 xmm0, xmm1
  003d6	f3 0f 10 4d cc	 movss	 xmm1, DWORD PTR _vDiff2$531960[ebp]
  003db	0f 5a c9	 cvtps2pd xmm1, xmm1
  003de	0f 5a d2	 cvtps2pd xmm2, xmm2
  003e1	f2 0f 59 ca	 mulsd	 xmm1, xmm2
  003e5	f3 0f 10 93 e0
	09 00 00	 movss	 xmm2, DWORD PTR [ebx+2528]
  003ed	f2 0f 58 c1	 addsd	 xmm0, xmm1
  003f1	f3 0f 10 4d d4	 movss	 xmm1, DWORD PTR _vDiff2$531960[ebp+8]
  003f6	0f 5a c9	 cvtps2pd xmm1, xmm1
  003f9	0f 5a d2	 cvtps2pd xmm2, xmm2
  003fc	f2 0f 59 ca	 mulsd	 xmm1, xmm2
  00400	f2 0f 58 c1	 addsd	 xmm0, xmm1

; 300  : 			if( fCurValue < fHalfValue )

  00404	f3 0f 10 4d 98	 movss	 xmm1, DWORD PTR _fHalfValue$[ebp]
  00409	66 0f 5a c0	 cvtpd2ps xmm0, xmm0
  0040d	f3 0f 5a c0	 cvtss2sd xmm0, xmm0
  00411	0f 5a c9	 cvtps2pd xmm1, xmm1
  00414	66 0f 2f c8	 comisd	 xmm1, xmm0
  00418	77 6d		 ja	 SHORT $LN17@OnSensing
$LN7@OnSensing:

; 301  : 				continue;
; 302  : 		}
; 303  : 
; 304  : 		// 거리 체크
; 305  : 		if( fDiffRangeSq < fSensingRangeSq )

  0041a	f3 0f 10 45 bc	 movss	 xmm0, DWORD PTR _fDiffRangeSq$531957[ebp]
  0041f	f3 0f 10 55 9c	 movss	 xmm2, DWORD PTR _fSensingRangeSq$[ebp]
  00424	0f 57 c9	 xorps	 xmm1, xmm1
  00427	0f 5a c8	 cvtps2pd xmm1, xmm0
  0042a	0f 5a d2	 cvtps2pd xmm2, xmm2
  0042d	66 0f 2f d1	 comisd	 xmm2, xmm1
  00431	76 54		 jbe	 SHORT $LN17@OnSensing

; 306  : 		{
; 307  : 			if( fCurGap == -FLOAT1 )

  00433	b8 01 00 00 00	 mov	 eax, 1
  00438	d9 45 c4	 fld	 DWORD PTR _fCurGap$[ebp]
  0043b	89 45 b8	 mov	 DWORD PTR tv954[ebp], eax
  0043e	db 45 b8	 fild	 DWORD PTR tv954[ebp]
  00441	85 c0		 test	 eax, eax
  00443	79 06		 jns	 SHORT $LN123@OnSensing
  00445	d8 05 00 00 00
	00		 fadd	 DWORD PTR __real@4f800000
$LN123@OnSensing:
  0044b	d9 e0		 fchs
  0044d	d9 c9		 fxch	 ST(1)
  0044f	df e9		 fucomip ST(1)
  00451	dd d8		 fstp	 ST(0)
  00453	9f		 lahf
  00454	f6 c4 44	 test	 ah, 68			; 00000044H

; 308  : 			{
; 309  : 				fCurGap = fDiffRangeSq;
; 310  : 				szTarget = pChar->GetCharName();

  00457	7b 1d		 jnp	 SHORT $LN125@OnSensing

; 311  : 			}
; 312  : 			else if( fCurGap >= 0.0f && fDiffRangeSq < fCurGap )

  00459	f3 0f 10 4d c4	 movss	 xmm1, DWORD PTR _fCurGap$[ebp]
  0045e	0f 2f 0d 00 00
	00 00		 comiss	 xmm1, DWORD PTR __real@00000000
  00465	72 20		 jb	 SHORT $LN17@OnSensing
  00467	0f 57 d2	 xorps	 xmm2, xmm2
  0046a	0f 5a d0	 cvtps2pd xmm2, xmm0
  0046d	0f 5a c9	 cvtps2pd xmm1, xmm1
  00470	66 0f 2f ca	 comisd	 xmm1, xmm2
  00474	76 11		 jbe	 SHORT $LN17@OnSensing
$LN125@OnSensing:

; 313  : 			{
; 314  : 				fCurGap = fDiffRangeSq;
; 315  : 				szTarget = pChar->GetCharName();

  00476	ff 75 c8	 push	 DWORD PTR tv890[ebp]
  00479	8d 4d a8	 lea	 ecx, DWORD PTR _szTarget$[ebp]
  0047c	f3 0f 11 45 c4	 movss	 DWORD PTR _fCurGap$[ebp], xmm0
  00481	ff 15 00 00 00
	00		 call	 DWORD PTR __imp_??4ioHashString@@QAEAAV0@ABV0@@Z
$LN17@OnSensing:

; 276  : 	for( iter=rkCharList.begin() ; iter!=rkCharList.end() ; ++iter )

  00487	83 c7 04	 add	 edi, 4
$LN124@OnSensing:
  0048a	3b 7e 30	 cmp	 edi, DWORD PTR [esi+48]
  0048d	0f 85 2e fd ff
	ff		 jne	 $LN56@OnSensing

; 316  : 			}
; 317  : 		}
; 318  : 	}
; 319  : 
; 320  : 	if( !szTarget.IsEmpty() )

  00493	8d 4d a8	 lea	 ecx, DWORD PTR _szTarget$[ebp]
  00496	ff 15 00 00 00
	00		 call	 DWORD PTR __imp_?IsEmpty@ioHashString@@QBE_NXZ
  0049c	84 c0		 test	 al, al
  0049e	75 37		 jne	 SHORT $LN1@OnSensing

; 321  : 	{
; 322  : 		ioBaseChar *pTarget = pStage->GetBaseChar( szTarget );

  004a0	8d 45 a8	 lea	 eax, DWORD PTR _szTarget$[ebp]
  004a3	50		 push	 eax
  004a4	8b ce		 mov	 ecx, esi
  004a6	e8 00 00 00 00	 call	 ?GetBaseChar@ioPlayStage@@QAEPAVioBaseChar@@ABVioHashString@@@Z ; ioPlayStage::GetBaseChar

; 323  : 		if( pTarget && pTarget->IsNeedProcess() )

  004ab	85 c0		 test	 eax, eax
  004ad	74 28		 je	 SHORT $LN1@OnSensing
  004af	8b 10		 mov	 edx, DWORD PTR [eax]
  004b1	8b c8		 mov	 ecx, eax
  004b3	ff 92 00 01 00
	00		 call	 DWORD PTR [edx+256]
  004b9	84 c0		 test	 al, al
  004bb	74 1a		 je	 SHORT $LN1@OnSensing

; 324  : 		{
; 325  : 			m_TargetName = szTarget;

  004bd	8d 45 a8	 lea	 eax, DWORD PTR _szTarget$[ebp]
  004c0	50		 push	 eax
  004c1	8d 8b e4 09 00
	00		 lea	 ecx, DWORD PTR [ebx+2532]
  004c7	ff 15 00 00 00
	00		 call	 DWORD PTR __imp_??4ioHashString@@QAEAAV0@ABV0@@Z

; 326  : 			SetTraceState( pStage, true );

  004cd	6a 01		 push	 1
  004cf	56		 push	 esi
  004d0	8b cb		 mov	 ecx, ebx
  004d2	e8 00 00 00 00	 call	 ?SetTraceState@ioTraceWeapon6@@QAEXPAVioPlayStage@@_N@Z ; ioTraceWeapon6::SetTraceState
$LN1@OnSensing:

; 327  : 		}
; 328  : 	}
; 329  : 
; 330  : 	UpdateWorldAttackBox( fTimePerSec, false );

  004d7	f3 0f 10 45 0c	 movss	 xmm0, DWORD PTR _fTimePerSec$[ebp]
  004dc	8b 03		 mov	 eax, DWORD PTR [ebx]
  004de	6a 00		 push	 0
  004e0	51		 push	 ecx
  004e1	8b cb		 mov	 ecx, ebx
  004e3	f3 0f 11 04 24	 movss	 DWORD PTR [esp], xmm0
  004e8	ff 90 38 01 00
	00		 call	 DWORD PTR [eax+312]

; 331  : }

  004ee	83 4d fc ff	 or	 DWORD PTR __$EHRec$[ebp+8], -1
  004f2	8d 4d a8	 lea	 ecx, DWORD PTR _szTarget$[ebp]
  004f5	ff 15 00 00 00
	00		 call	 DWORD PTR __imp_??1ioHashString@@QAE@XZ
$LN21@OnSensing:
  004fb	e8 00 00 00 00	 call	 __EH_epilog3_GS
  00500	c2 08 00	 ret	 8
_TEXT	ENDS
;	COMDAT text$x
text$x	SEGMENT
__unwindfunclet$?OnSensing@ioTraceWeapon6@@IAEXPAVioPlayStage@@M@Z$0:
  00000	8d 4d a8	 lea	 ecx, DWORD PTR _szTarget$[ebp]
  00003	ff 25 00 00 00
	00		 jmp	 DWORD PTR __imp_??1ioHashString@@QAE@XZ
__ehhandler$?OnSensing@ioTraceWeapon6@@IAEXPAVioPlayStage@@M@Z:
  00009	8b 54 24 08	 mov	 edx, DWORD PTR [esp+8]
  0000d	8d 42 0c	 lea	 eax, DWORD PTR [edx+12]
  00010	8b 4a 8c	 mov	 ecx, DWORD PTR [edx-116]
  00013	33 c8		 xor	 ecx, eax
  00015	e8 00 00 00 00	 call	 @__security_check_cookie@4
  0001a	8b 4a fc	 mov	 ecx, DWORD PTR [edx-4]
  0001d	33 c8		 xor	 ecx, eax
  0001f	e8 00 00 00 00	 call	 @__security_check_cookie@4
  00024	b8 00 00 00 00	 mov	 eax, OFFSET __ehfuncinfo$?OnSensing@ioTraceWeapon6@@IAEXPAVioPlayStage@@M@Z
  00029	e9 00 00 00 00	 jmp	 ___CxxFrameHandler3
text$x	ENDS
?OnSensing@ioTraceWeapon6@@IAEXPAVioPlayStage@@M@Z ENDP	; ioTraceWeapon6::OnSensing
PUBLIC	_szTarget$GSCopy$
PUBLIC	__$ArrayPad$
PUBLIC	?OnTracing@ioTraceWeapon6@@IAE_NAAVioHashString@@PAVioPlayStage@@M@Z ; ioTraceWeapon6::OnTracing
; Function compile flags: /Ogsp
;	COMDAT ?OnTracing@ioTraceWeapon6@@IAE_NAAVioHashString@@PAVioPlayStage@@M@Z
_TEXT	SEGMENT
_szTarget$GSCopy$ = -32					; size = 4
_value$537620 = -28					; size = 4
_dwCurTime$ = -28					; size = 4
tv345 = -24						; size = 4
tv341 = -24						; size = 4
tv337 = -24						; size = 4
_bTarget$ = -17						; size = 1
$T531991 = -16						; size = 12
$T531985 = -16						; size = 12
__$ArrayPad$ = -4					; size = 4
_szTarget$ = 8						; size = 4
_pStage$ = 12						; size = 4
_fTimePerSec$ = 16					; size = 4
?OnTracing@ioTraceWeapon6@@IAE_NAAVioHashString@@PAVioPlayStage@@M@Z PROC ; ioTraceWeapon6::OnTracing, COMDAT
; _this$ = ecx

; 334  : {

  00000	55		 push	 ebp
  00001	8b ec		 mov	 ebp, esp
  00003	83 ec 20	 sub	 esp, 32			; 00000020H
  00006	a1 00 00 00 00	 mov	 eax, DWORD PTR ___security_cookie
  0000b	33 c5		 xor	 eax, ebp
  0000d	89 45 fc	 mov	 DWORD PTR __$ArrayPad$[ebp], eax
  00010	53		 push	 ebx
  00011	56		 push	 esi
  00012	8b 75 0c	 mov	 esi, DWORD PTR _pStage$[ebp]
  00015	57		 push	 edi
  00016	8b 7d 08	 mov	 edi, DWORD PTR _szTarget$[ebp]
  00019	8b d9		 mov	 ebx, ecx

; 335  : 	bool bTarget = true;

  0001b	89 7d e0	 mov	 DWORD PTR _szTarget$GSCopy$[ebp], edi
  0001e	c6 45 ef 01	 mov	 BYTE PTR _bTarget$[ebp], 1

; 336  : 	DWORD dwCurTime = FRAMEGETTIME();

  00022	ff 15 00 00 00
	00		 call	 DWORD PTR __imp_?GetSingleton@ioFrameTimer@@SAAAV1@XZ
  00028	8b c8		 mov	 ecx, eax
  0002a	ff 15 00 00 00
	00		 call	 DWORD PTR __imp_?GetLoopSec@ioFrameTimer@@QBEKXZ

; 337  : 	ioBaseChar *pTarget = pStage->GetBaseChar( szTarget );

  00030	57		 push	 edi
  00031	8b ce		 mov	 ecx, esi
  00033	89 45 e4	 mov	 DWORD PTR _dwCurTime$[ebp], eax
  00036	e8 00 00 00 00	 call	 ?GetBaseChar@ioPlayStage@@QAEPAVioBaseChar@@ABVioHashString@@@Z ; ioPlayStage::GetBaseChar
  0003b	8b f0		 mov	 esi, eax

; 338  : 	if( pTarget )

  0003d	85 f6		 test	 esi, esi
  0003f	0f 84 e1 00 00
	00		 je	 $LN8@OnTracing

; 339  : 	{
; 340  : 		if( !szTarget.IsEmpty() && pTarget->IsSystemState() )

  00045	8b cf		 mov	 ecx, edi
  00047	ff 15 00 00 00
	00		 call	 DWORD PTR __imp_?IsEmpty@ioHashString@@QBE_NXZ
  0004d	84 c0		 test	 al, al
  0004f	75 13		 jne	 SHORT $LN7@OnTracing
  00051	8b ce		 mov	 ecx, esi
  00053	e8 00 00 00 00	 call	 ?IsSystemState@ioBaseChar@@QAE_NXZ ; ioBaseChar::IsSystemState
  00058	84 c0		 test	 al, al
  0005a	74 08		 je	 SHORT $LN7@OnTracing

; 341  : 		{
; 342  : 			szTarget.Clear();

  0005c	8b cf		 mov	 ecx, edi
  0005e	ff 15 00 00 00
	00		 call	 DWORD PTR __imp_?Clear@ioHashString@@QAEXXZ
$LN7@OnTracing:

; 343  : 		}
; 344  : 		
; 345  : 		if( !szTarget.IsEmpty() && !pTarget->IsEnableTarget() )

  00064	8b cf		 mov	 ecx, edi
  00066	ff 15 00 00 00
	00		 call	 DWORD PTR __imp_?IsEmpty@ioHashString@@QBE_NXZ
  0006c	84 c0		 test	 al, al
  0006e	75 17		 jne	 SHORT $LN23@OnTracing
  00070	6a 01		 push	 1
  00072	6a 01		 push	 1
  00074	8b ce		 mov	 ecx, esi
  00076	e8 00 00 00 00	 call	 ?IsEnableTarget@ioBaseChar@@QAE_N_N0@Z ; ioBaseChar::IsEnableTarget
  0007b	84 c0		 test	 al, al
  0007d	75 08		 jne	 SHORT $LN23@OnTracing

; 346  : 		{
; 347  : 			szTarget.Clear();

  0007f	8b cf		 mov	 ecx, edi
  00081	ff 15 00 00 00
	00		 call	 DWORD PTR __imp_?Clear@ioHashString@@QAEXXZ
$LN23@OnTracing:

; 348  : 		}
; 349  : 
; 350  : 		if( !szTarget.IsEmpty() )

  00087	8b cf		 mov	 ecx, edi
  00089	ff 15 00 00 00
	00		 call	 DWORD PTR __imp_?IsEmpty@ioHashString@@QBE_NXZ
  0008f	84 c0		 test	 al, al
  00091	75 7c		 jne	 SHORT $LN4@OnTracing

; 351  : 		{
; 352  : 			if( !ProcessTrace( GetPosition(), pTarget->GetMidPositionByRate(), fTimePerSec ) )			

  00093	b8 05 00 00 00	 mov	 eax, 5
  00098	8b c8		 mov	 ecx, eax
  0009a	b8 0a 00 00 00	 mov	 eax, 10			; 0000000aH
  0009f	89 4d e8	 mov	 DWORD PTR tv345[ebp], ecx
  000a2	db 45 e8	 fild	 DWORD PTR tv345[ebp]
  000a5	85 c9		 test	 ecx, ecx
  000a7	79 06		 jns	 SHORT $LN25@OnTracing
  000a9	d8 05 00 00 00
	00		 fadd	 DWORD PTR __real@4f800000
$LN25@OnTracing:
  000af	89 45 e8	 mov	 DWORD PTR tv341[ebp], eax
  000b2	db 45 e8	 fild	 DWORD PTR tv341[ebp]
  000b5	85 c0		 test	 eax, eax
  000b7	79 06		 jns	 SHORT $LN26@OnTracing
  000b9	d8 05 00 00 00
	00		 fadd	 DWORD PTR __real@4f800000
$LN26@OnTracing:
  000bf	de f9		 fdivp	 ST(1), ST(0)
  000c1	51		 push	 ecx
  000c2	8d 45 f0	 lea	 eax, DWORD PTR $T531985[ebp]
  000c5	8b ce		 mov	 ecx, esi
  000c7	d9 5d e8	 fstp	 DWORD PTR tv337[ebp]
  000ca	d9 45 e8	 fld	 DWORD PTR tv337[ebp]
  000cd	d9 1c 24	 fstp	 DWORD PTR [esp]
  000d0	50		 push	 eax
  000d1	e8 00 00 00 00	 call	 ?GetMidPositionByRate@ioGameEntity@@QBE?AUD3DXVECTOR3@@M@Z ; ioGameEntity::GetMidPositionByRate
  000d6	8b f0		 mov	 esi, eax
  000d8	8b 03		 mov	 eax, DWORD PTR [ebx]
  000da	8b cb		 mov	 ecx, ebx
  000dc	ff 50 70	 call	 DWORD PTR [eax+112]
  000df	f3 0f 10 45 10	 movss	 xmm0, DWORD PTR _fTimePerSec$[ebp]
  000e4	6a 00		 push	 0
  000e6	83 ec 10	 sub	 esp, 16			; 00000010H
  000e9	f3 0f 11 44 24
	0c		 movss	 DWORD PTR [esp+12], xmm0
  000ef	8b fc		 mov	 edi, esp
  000f1	a5		 movsd
  000f2	a5		 movsd
  000f3	a5		 movsd
  000f4	83 ec 0c	 sub	 esp, 12			; 0000000cH
  000f7	8b f0		 mov	 esi, eax
  000f9	8b fc		 mov	 edi, esp
  000fb	a5		 movsd
  000fc	a5		 movsd
  000fd	8b cb		 mov	 ecx, ebx
  000ff	a5		 movsd
  00100	e8 00 00 00 00	 call	 ?ProcessTrace@ioTraceWeapon6@@QAE_NUD3DXVECTOR3@@0M_N@Z ; ioTraceWeapon6::ProcessTrace

; 353  : 			{
; 354  : 				bTarget = false;

  00105	8b 7d e0	 mov	 edi, DWORD PTR _szTarget$GSCopy$[ebp]
  00108	84 c0		 test	 al, al
  0010a	75 03		 jne	 SHORT $LN4@OnTracing
  0010c	88 45 ef	 mov	 BYTE PTR _bTarget$[ebp], al
$LN4@OnTracing:

; 355  : 			}
; 356  : 		}
; 357  : 
; 358  : 		if( !szTarget.IsEmpty() )

  0010f	8b cf		 mov	 ecx, edi
  00111	ff 15 00 00 00
	00		 call	 DWORD PTR __imp_?IsEmpty@ioHashString@@QBE_NXZ
  00117	84 c0		 test	 al, al
  00119	75 0f		 jne	 SHORT $LN1@OnTracing

; 359  : 		{
; 360  : 			if( m_dwTraceEndTime < dwCurTime )

  0011b	8b 45 e4	 mov	 eax, DWORD PTR _dwCurTime$[ebp]
  0011e	39 83 24 0a 00
	00		 cmp	 DWORD PTR [ebx+2596], eax
  00124	73 04		 jae	 SHORT $LN1@OnTracing
$LN8@OnTracing:

; 361  : 			{
; 362  : 				bTarget = false;
; 363  : 			}
; 364  : 		}
; 365  : 	}
; 366  : 	else
; 367  : 	{
; 368  : 		bTarget = false;

  00126	c6 45 ef 00	 mov	 BYTE PTR _bTarget$[ebp], 0
$LN1@OnTracing:

; 369  : 	}
; 370  : 
; 371  : 	float fMoveDist = m_fTraceSpeed * fTimePerSec;

  0012a	8d 45 e4	 lea	 eax, DWORD PTR _value$537620[ebp]
  0012d	50		 push	 eax
  0012e	8d 8b 3c 09 00
	00		 lea	 ecx, DWORD PTR [ebx+2364]
  00134	e8 00 00 00 00	 call	 ?DecryptValueToPool@?$CEncrypt@M@@QAEXPAM@Z ; CEncrypt<float>::DecryptValueToPool
  00139	f3 0f 10 45 e4	 movss	 xmm0, DWORD PTR _value$537620[ebp]
  0013e	f3 0f 10 4d 10	 movss	 xmm1, DWORD PTR _fTimePerSec$[ebp]

; 372  : 	GetParentSceneNode()->Translate( m_vMoveDir * fMoveDist );

  00143	8b 4b 04	 mov	 ecx, DWORD PTR [ebx+4]
  00146	0f 5a c9	 cvtps2pd xmm1, xmm1
  00149	0f 5a c0	 cvtps2pd xmm0, xmm0
  0014c	f2 0f 59 c1	 mulsd	 xmm0, xmm1
  00150	f3 0f 10 8b d8
	09 00 00	 movss	 xmm1, DWORD PTR [ebx+2520]
  00158	0f 5a c9	 cvtps2pd xmm1, xmm1
  0015b	66 0f 5a c0	 cvtpd2ps xmm0, xmm0
  0015f	0f 57 d2	 xorps	 xmm2, xmm2
  00162	f3 0f 5a d0	 cvtss2sd xmm2, xmm0
  00166	f2 0f 59 ca	 mulsd	 xmm1, xmm2
  0016a	66 0f 5a c9	 cvtpd2ps xmm1, xmm1
  0016e	f3 0f 11 4d f0	 movss	 DWORD PTR $T531991[ebp], xmm1
  00173	f3 0f 10 8b dc
	09 00 00	 movss	 xmm1, DWORD PTR [ebx+2524]
  0017b	0f 5a c9	 cvtps2pd xmm1, xmm1
  0017e	0f 57 d2	 xorps	 xmm2, xmm2
  00181	f3 0f 5a d0	 cvtss2sd xmm2, xmm0
  00185	f2 0f 59 ca	 mulsd	 xmm1, xmm2
  00189	66 0f 5a c9	 cvtpd2ps xmm1, xmm1
  0018d	f3 0f 5a c0	 cvtss2sd xmm0, xmm0
  00191	f3 0f 11 4d f4	 movss	 DWORD PTR $T531991[ebp+4], xmm1
  00196	f3 0f 10 8b e0
	09 00 00	 movss	 xmm1, DWORD PTR [ebx+2528]
  0019e	0f 5a c9	 cvtps2pd xmm1, xmm1
  001a1	f2 0f 59 c8	 mulsd	 xmm1, xmm0
  001a5	6a 01		 push	 1
  001a7	66 0f 5a c1	 cvtpd2ps xmm0, xmm1
  001ab	8d 55 f0	 lea	 edx, DWORD PTR $T531991[ebp]
  001ae	f3 0f 11 45 f8	 movss	 DWORD PTR $T531991[ebp+8], xmm0
  001b3	8b 01		 mov	 eax, DWORD PTR [ecx]
  001b5	52		 push	 edx
  001b6	ff 50 3c	 call	 DWORD PTR [eax+60]

; 373  : 
; 374  : 	UpdateWorldAttackBox( fTimePerSec, false );

  001b9	f3 0f 10 45 10	 movss	 xmm0, DWORD PTR _fTimePerSec$[ebp]
  001be	8b 03		 mov	 eax, DWORD PTR [ebx]
  001c0	6a 00		 push	 0
  001c2	51		 push	 ecx
  001c3	8b cb		 mov	 ecx, ebx
  001c5	f3 0f 11 04 24	 movss	 DWORD PTR [esp], xmm0
  001ca	ff 90 38 01 00
	00		 call	 DWORD PTR [eax+312]

; 375  : 
; 376  : 	return bTarget;
; 377  : }

  001d0	8b 4d fc	 mov	 ecx, DWORD PTR __$ArrayPad$[ebp]
  001d3	8a 45 ef	 mov	 al, BYTE PTR _bTarget$[ebp]
  001d6	5f		 pop	 edi
  001d7	5e		 pop	 esi
  001d8	33 cd		 xor	 ecx, ebp
  001da	5b		 pop	 ebx
  001db	e8 00 00 00 00	 call	 @__security_check_cookie@4
  001e0	c9		 leave
  001e1	c2 0c 00	 ret	 12			; 0000000cH
?OnTracing@ioTraceWeapon6@@IAE_NAAVioHashString@@PAVioPlayStage@@M@Z ENDP ; ioTraceWeapon6::OnTracing
_TEXT	ENDS
PUBLIC	?OnReturning@ioTraceWeapon6@@IAEXPAVioPlayStage@@M@Z ; ioTraceWeapon6::OnReturning
; Function compile flags: /Ogsp
;	COMDAT ?OnReturning@ioTraceWeapon6@@IAEXPAVioPlayStage@@M@Z
_TEXT	SEGMENT
_pStage$ = 8						; size = 4
_fTimePerSec$ = 12					; size = 4
?OnReturning@ioTraceWeapon6@@IAEXPAVioPlayStage@@M@Z PROC ; ioTraceWeapon6::OnReturning, COMDAT
; _this$ = ecx

; 380  : {

  00000	55		 push	 ebp
  00001	8b ec		 mov	 ebp, esp

; 381  : 	OnTracing( m_szReturnTargetName, pStage, fTimePerSec );	

  00003	f3 0f 10 45 0c	 movss	 xmm0, DWORD PTR _fTimePerSec$[ebp]
  00008	51		 push	 ecx
  00009	f3 0f 11 04 24	 movss	 DWORD PTR [esp], xmm0
  0000e	ff 75 08	 push	 DWORD PTR _pStage$[ebp]
  00011	8d 81 a4 08 00
	00		 lea	 eax, DWORD PTR [ecx+2212]
  00017	50		 push	 eax
  00018	e8 00 00 00 00	 call	 ?OnTracing@ioTraceWeapon6@@IAE_NAAVioHashString@@PAVioPlayStage@@M@Z ; ioTraceWeapon6::OnTracing

; 382  : }

  0001d	5d		 pop	 ebp
  0001e	c2 08 00	 ret	 8
?OnReturning@ioTraceWeapon6@@IAEXPAVioPlayStage@@M@Z ENDP ; ioTraceWeapon6::OnReturning
_TEXT	ENDS
PUBLIC	??$_Destroy_range@V?$allocator@UChangeDirInfo@@@std@@@std@@YAXPAUChangeDirInfo@@0AAV?$allocator@UChangeDirInfo@@@0@U_Nonscalar_ptr_iterator_tag@0@@Z ; std::_Destroy_range<std::allocator<ChangeDirInfo> >
; Function compile flags: /Ogsp
; File c:\program files (x86)\microsoft visual studio 10.0\vc\include\xmemory
;	COMDAT ??$_Destroy_range@V?$allocator@UChangeDirInfo@@@std@@@std@@YAXPAUChangeDirInfo@@0AAV?$allocator@UChangeDirInfo@@@0@U_Nonscalar_ptr_iterator_tag@0@@Z
_TEXT	SEGMENT
__First$ = 8						; size = 4
__Last$ = 12						; size = 4
__Al$ = 16						; size = 4
___formal$ = 20						; size = 1
??$_Destroy_range@V?$allocator@UChangeDirInfo@@@std@@@std@@YAXPAUChangeDirInfo@@0AAV?$allocator@UChangeDirInfo@@@0@U_Nonscalar_ptr_iterator_tag@0@@Z PROC ; std::_Destroy_range<std::allocator<ChangeDirInfo> >, COMDAT

; 96   : 	for (; _First != _Last; ++_First)
; 97   : 		_Dest_val(_Al, _First);
; 98   : 	}

  00000	c3		 ret	 0
??$_Destroy_range@V?$allocator@UChangeDirInfo@@@std@@@std@@YAXPAUChangeDirInfo@@0AAV?$allocator@UChangeDirInfo@@@0@U_Nonscalar_ptr_iterator_tag@0@@Z ENDP ; std::_Destroy_range<std::allocator<ChangeDirInfo> >
_TEXT	ENDS
PUBLIC	??$_Insertion_sort@PAUChangeDirInfo@@VChangeDirSort@@@std@@YAXPAUChangeDirInfo@@0VChangeDirSort@@@Z ; std::_Insertion_sort<ChangeDirInfo *,ChangeDirSort>
; Function compile flags: /Ogsp
; File c:\program files (x86)\microsoft visual studio 10.0\vc\include\algorithm
;	COMDAT ??$_Insertion_sort@PAUChangeDirInfo@@VChangeDirSort@@@std@@YAXPAUChangeDirInfo@@0VChangeDirSort@@@Z
_TEXT	SEGMENT
__First$ = 8						; size = 4
__Last$ = 12						; size = 4
__Pred$ = 16						; size = 1
??$_Insertion_sort@PAUChangeDirInfo@@VChangeDirSort@@@std@@YAXPAUChangeDirInfo@@0VChangeDirSort@@@Z PROC ; std::_Insertion_sort<ChangeDirInfo *,ChangeDirSort>, COMDAT

; 3676 : 	{	// insertion sort [_First, _Last), using _Pred

  00000	55		 push	 ebp
  00001	8b ec		 mov	 ebp, esp

; 3677 : 	_Insertion_sort1(_First, _Last, _Pred, _Val_type(_First));

  00003	6a 00		 push	 0
  00005	ff 75 10	 push	 DWORD PTR __Pred$[ebp]
  00008	ff 75 0c	 push	 DWORD PTR __Last$[ebp]
  0000b	ff 75 08	 push	 DWORD PTR __First$[ebp]
  0000e	e8 00 00 00 00	 call	 ??$_Insertion_sort1@PAUChangeDirInfo@@VChangeDirSort@@U1@@std@@YAXPAUChangeDirInfo@@0VChangeDirSort@@0@Z ; std::_Insertion_sort1<ChangeDirInfo *,ChangeDirSort,ChangeDirInfo>
  00013	83 c4 10	 add	 esp, 16			; 00000010H

; 3678 : 	}

  00016	5d		 pop	 ebp
  00017	c3		 ret	 0
??$_Insertion_sort@PAUChangeDirInfo@@VChangeDirSort@@@std@@YAXPAUChangeDirInfo@@0VChangeDirSort@@@Z ENDP ; std::_Insertion_sort<ChangeDirInfo *,ChangeDirSort>
_TEXT	ENDS
PUBLIC	??$_Uninit_move@PAUChangeDirInfo@@PAU1@V?$allocator@UChangeDirInfo@@@std@@U1@@std@@YAPAUChangeDirInfo@@PAU1@00AAV?$allocator@UChangeDirInfo@@@0@0U_Nonscalar_ptr_iterator_tag@0@@Z ; std::_Uninit_move<ChangeDirInfo *,ChangeDirInfo *,std::allocator<ChangeDirInfo>,ChangeDirInfo>
; Function compile flags: /Ogsp
; File c:\program files (x86)\microsoft visual studio 10.0\vc\include\memory
;	COMDAT ??$_Uninit_move@PAUChangeDirInfo@@PAU1@V?$allocator@UChangeDirInfo@@@std@@U1@@std@@YAPAUChangeDirInfo@@PAU1@00AAV?$allocator@UChangeDirInfo@@@0@0U_Nonscalar_ptr_iterator_tag@0@@Z
_TEXT	SEGMENT
__First$ = 8						; size = 4
__Last$ = 12						; size = 4
__Dest$ = 16						; size = 4
__Al$ = 20						; size = 4
___formal$ = 24						; size = 4
___formal$ = 28						; size = 1
??$_Uninit_move@PAUChangeDirInfo@@PAU1@V?$allocator@UChangeDirInfo@@@std@@U1@@std@@YAPAUChangeDirInfo@@PAU1@00AAV?$allocator@UChangeDirInfo@@@0@0U_Nonscalar_ptr_iterator_tag@0@@Z PROC ; std::_Uninit_move<ChangeDirInfo *,ChangeDirInfo *,std::allocator<ChangeDirInfo>,ChangeDirInfo>, COMDAT

; 424  : 	{	// move [_First, _Last) to raw _Dest, using _Al, arbitrary type

  00000	55		 push	 ebp
  00001	8b ec		 mov	 ebp, esp
  00003	56		 push	 esi

; 425  : 	_DEBUG_RANGE(_First, _Last);
; 426  : 	_DEBUG_POINTER(_Dest);
; 427  : 	_FwdIt _Next = _Dest;
; 428  : 
; 429  : 	_TRY_BEGIN
; 430  : 	for (; _First != _Last; ++_Dest, ++_First)

  00004	8b 75 08	 mov	 esi, DWORD PTR __First$[ebp]
  00007	eb 16		 jmp	 SHORT $LN24@Uninit_mov
$LL6@Uninit_mov:

; 431  : 		_Cons_val(_Al, _Dest, (_Valty &&)*_First);

  00009	56		 push	 esi
  0000a	ff 75 10	 push	 DWORD PTR __Dest$[ebp]
  0000d	ff 75 14	 push	 DWORD PTR __Al$[ebp]
  00010	e8 00 00 00 00	 call	 ??$_Cons_val@V?$allocator@UChangeDirInfo@@@std@@UChangeDirInfo@@U3@@std@@YAXAAV?$allocator@UChangeDirInfo@@@0@PAUChangeDirInfo@@$$QAU2@@Z ; std::_Cons_val<std::allocator<ChangeDirInfo>,ChangeDirInfo,ChangeDirInfo>
  00015	83 45 10 1c	 add	 DWORD PTR __Dest$[ebp], 28 ; 0000001cH
  00019	83 c4 0c	 add	 esp, 12			; 0000000cH
  0001c	83 c6 1c	 add	 esi, 28			; 0000001cH
$LN24@Uninit_mov:

; 425  : 	_DEBUG_RANGE(_First, _Last);
; 426  : 	_DEBUG_POINTER(_Dest);
; 427  : 	_FwdIt _Next = _Dest;
; 428  : 
; 429  : 	_TRY_BEGIN
; 430  : 	for (; _First != _Last; ++_Dest, ++_First)

  0001f	3b 75 0c	 cmp	 esi, DWORD PTR __Last$[ebp]
  00022	75 e5		 jne	 SHORT $LL6@Uninit_mov

; 432  : 	_CATCH_ALL
; 433  : 	for (; _Next != _Dest; ++_Next)
; 434  : 		_Dest_val(_Al, _Next);
; 435  : 	_RERAISE;
; 436  : 	_CATCH_END
; 437  : 	return (_Dest);

  00024	8b 45 10	 mov	 eax, DWORD PTR __Dest$[ebp]
  00027	5e		 pop	 esi

; 438  : 	}

  00028	5d		 pop	 ebp
  00029	c3		 ret	 0
??$_Uninit_move@PAUChangeDirInfo@@PAU1@V?$allocator@UChangeDirInfo@@@std@@U1@@std@@YAPAUChangeDirInfo@@PAU1@00AAV?$allocator@UChangeDirInfo@@@0@0U_Nonscalar_ptr_iterator_tag@0@@Z ENDP ; std::_Uninit_move<ChangeDirInfo *,ChangeDirInfo *,std::allocator<ChangeDirInfo>,ChangeDirInfo>
_TEXT	ENDS
PUBLIC	??$_Median@PAUChangeDirInfo@@VChangeDirSort@@@std@@YAXPAUChangeDirInfo@@00VChangeDirSort@@@Z ; std::_Median<ChangeDirInfo *,ChangeDirSort>
; Function compile flags: /Ogsp
; File c:\program files (x86)\microsoft visual studio 10.0\vc\include\algorithm
;	COMDAT ??$_Median@PAUChangeDirInfo@@VChangeDirSort@@@std@@YAXPAUChangeDirInfo@@00VChangeDirSort@@@Z
_TEXT	SEGMENT
tv200 = 8						; size = 4
__First$ = 8						; size = 4
__Mid$ = 12						; size = 4
tv203 = 16						; size = 4
__Last$ = 16						; size = 4
__Pred$ = 20						; size = 1
??$_Median@PAUChangeDirInfo@@VChangeDirSort@@@std@@YAXPAUChangeDirInfo@@00VChangeDirSort@@@Z PROC ; std::_Median<ChangeDirInfo *,ChangeDirSort>, COMDAT

; 3695 : 	{	// sort median element to middle

  00000	55		 push	 ebp
  00001	8b ec		 mov	 ebp, esp

; 3696 : 	if (40 < _Last - _First)

  00003	8b 4d 08	 mov	 ecx, DWORD PTR __First$[ebp]
  00006	53		 push	 ebx
  00007	8b 5d 10	 mov	 ebx, DWORD PTR __Last$[ebp]
  0000a	56		 push	 esi
  0000b	8b c3		 mov	 eax, ebx
  0000d	2b c1		 sub	 eax, ecx
  0000f	6a 1c		 push	 28			; 0000001cH
  00011	99		 cdq
  00012	5e		 pop	 esi
  00013	f7 fe		 idiv	 esi
  00015	83 f8 28	 cmp	 eax, 40			; 00000028H
  00018	7e 68		 jle	 SHORT $LN2@Median

; 3697 : 		{	// median of nine
; 3698 : 		size_t _Step = (_Last - _First + 1) / 8;

  0001a	40		 inc	 eax
  0001b	99		 cdq
  0001c	83 e2 07	 and	 edx, 7
  0001f	03 c2		 add	 eax, edx
  00021	57		 push	 edi

; 3699 : 		_Med3(_First, _First + _Step, _First + 2 * _Step, _Pred);

  00022	ff 75 14	 push	 DWORD PTR __Pred$[ebp]
  00025	c1 f8 03	 sar	 eax, 3
  00028	8b f8		 mov	 edi, eax
  0002a	8b f0		 mov	 esi, eax
  0002c	6b ff 38	 imul	 edi, 56			; 00000038H
  0002f	6b f6 1c	 imul	 esi, 28			; 0000001cH
  00032	8d 14 0f	 lea	 edx, DWORD PTR [edi+ecx]
  00035	8d 04 0e	 lea	 eax, DWORD PTR [esi+ecx]
  00038	52		 push	 edx
  00039	50		 push	 eax
  0003a	51		 push	 ecx
  0003b	89 45 08	 mov	 DWORD PTR tv200[ebp], eax
  0003e	e8 00 00 00 00	 call	 ??$_Med3@PAUChangeDirInfo@@VChangeDirSort@@@std@@YAXPAUChangeDirInfo@@00VChangeDirSort@@@Z ; std::_Med3<ChangeDirInfo *,ChangeDirSort>

; 3700 : 		_Med3(_Mid - _Step, _Mid, _Mid + _Step, _Pred);

  00043	8b 45 0c	 mov	 eax, DWORD PTR __Mid$[ebp]
  00046	ff 75 14	 push	 DWORD PTR __Pred$[ebp]
  00049	8d 0c 06	 lea	 ecx, DWORD PTR [esi+eax]
  0004c	51		 push	 ecx
  0004d	50		 push	 eax
  0004e	2b c6		 sub	 eax, esi
  00050	50		 push	 eax
  00051	e8 00 00 00 00	 call	 ??$_Med3@PAUChangeDirInfo@@VChangeDirSort@@@std@@YAXPAUChangeDirInfo@@00VChangeDirSort@@@Z ; std::_Med3<ChangeDirInfo *,ChangeDirSort>

; 3701 : 		_Med3(_Last - 2 * _Step, _Last - _Step, _Last, _Pred);

  00056	ff 75 14	 push	 DWORD PTR __Pred$[ebp]
  00059	89 5d 10	 mov	 DWORD PTR tv203[ebp], ebx
  0005c	29 75 10	 sub	 DWORD PTR tv203[ebp], esi
  0005f	53		 push	 ebx
  00060	ff 75 10	 push	 DWORD PTR tv203[ebp]
  00063	2b df		 sub	 ebx, edi
  00065	53		 push	 ebx
  00066	e8 00 00 00 00	 call	 ??$_Med3@PAUChangeDirInfo@@VChangeDirSort@@@std@@YAXPAUChangeDirInfo@@00VChangeDirSort@@@Z ; std::_Med3<ChangeDirInfo *,ChangeDirSort>

; 3702 : 		_Med3(_First + _Step, _Mid, _Last - _Step, _Pred);

  0006b	ff 75 14	 push	 DWORD PTR __Pred$[ebp]
  0006e	ff 75 10	 push	 DWORD PTR tv203[ebp]
  00071	ff 75 0c	 push	 DWORD PTR __Mid$[ebp]
  00074	ff 75 08	 push	 DWORD PTR tv200[ebp]
  00077	e8 00 00 00 00	 call	 ??$_Med3@PAUChangeDirInfo@@VChangeDirSort@@@std@@YAXPAUChangeDirInfo@@00VChangeDirSort@@@Z ; std::_Med3<ChangeDirInfo *,ChangeDirSort>
  0007c	83 c4 40	 add	 esp, 64			; 00000040H
  0007f	5f		 pop	 edi

; 3703 : 		}
; 3704 : 	else

  00080	eb 10		 jmp	 SHORT $LN1@Median
$LN2@Median:

; 3705 : 		_Med3(_First, _Mid, _Last, _Pred);

  00082	ff 75 14	 push	 DWORD PTR __Pred$[ebp]
  00085	53		 push	 ebx
  00086	ff 75 0c	 push	 DWORD PTR __Mid$[ebp]
  00089	51		 push	 ecx
  0008a	e8 00 00 00 00	 call	 ??$_Med3@PAUChangeDirInfo@@VChangeDirSort@@@std@@YAXPAUChangeDirInfo@@00VChangeDirSort@@@Z ; std::_Med3<ChangeDirInfo *,ChangeDirSort>
  0008f	83 c4 10	 add	 esp, 16			; 00000010H
$LN1@Median:
  00092	5e		 pop	 esi
  00093	5b		 pop	 ebx

; 3706 : 	}

  00094	5d		 pop	 ebp
  00095	c3		 ret	 0
??$_Median@PAUChangeDirInfo@@VChangeDirSort@@@std@@YAXPAUChangeDirInfo@@00VChangeDirSort@@@Z ENDP ; std::_Median<ChangeDirInfo *,ChangeDirSort>
_TEXT	ENDS
PUBLIC	??$_Make_heap@PAUChangeDirInfo@@HU1@VChangeDirSort@@@std@@YAXPAUChangeDirInfo@@0VChangeDirSort@@PAH0@Z ; std::_Make_heap<ChangeDirInfo *,int,ChangeDirInfo,ChangeDirSort>
; Function compile flags: /Ogsp
;	COMDAT ??$_Make_heap@PAUChangeDirInfo@@HU1@VChangeDirSort@@@std@@YAXPAUChangeDirInfo@@0VChangeDirSort@@PAH0@Z
_TEXT	SEGMENT
__Val$534843 = -32					; size = 28
__Bottom$ = -4						; size = 4
__First$ = 8						; size = 4
tv149 = 12						; size = 4
__Last$ = 12						; size = 4
__Pred$ = 16						; size = 1
___formal$ = 20						; size = 4
___formal$ = 24						; size = 4
??$_Make_heap@PAUChangeDirInfo@@HU1@VChangeDirSort@@@std@@YAXPAUChangeDirInfo@@0VChangeDirSort@@PAH0@Z PROC ; std::_Make_heap<ChangeDirInfo *,int,ChangeDirInfo,ChangeDirSort>, COMDAT

; 2658 : 	{	// make nontrivial [_First, _Last) into a heap, using _Pred

  00000	55		 push	 ebp
  00001	8b ec		 mov	 ebp, esp
  00003	83 ec 20	 sub	 esp, 32			; 00000020H

; 2659 : 	_Diff _Bottom = _Last - _First;

  00006	8b 45 0c	 mov	 eax, DWORD PTR __Last$[ebp]
  00009	2b 45 08	 sub	 eax, DWORD PTR __First$[ebp]
  0000c	53		 push	 ebx
  0000d	99		 cdq
  0000e	6a 1c		 push	 28			; 0000001cH
  00010	59		 pop	 ecx
  00011	f7 f9		 idiv	 ecx
  00013	89 45 fc	 mov	 DWORD PTR __Bottom$[ebp], eax

; 2660 : 	for (_Diff _Hole = _Bottom / 2; 0 < _Hole; )

  00016	99		 cdq
  00017	2b c2		 sub	 eax, edx
  00019	8b d8		 mov	 ebx, eax
  0001b	d1 fb		 sar	 ebx, 1
  0001d	85 db		 test	 ebx, ebx
  0001f	7e 3a		 jle	 SHORT $LN1@Make_heap

; 2659 : 	_Diff _Bottom = _Last - _First;

  00021	56		 push	 esi
  00022	8b f3		 mov	 esi, ebx
  00024	6b f6 1c	 imul	 esi, 28			; 0000001cH
  00027	03 75 08	 add	 esi, DWORD PTR __First$[ebp]
  0002a	57		 push	 edi
  0002b	eb 03		 jmp	 SHORT $LN2@Make_heap
$LL11@Make_heap:
  0002d	8b 75 0c	 mov	 esi, DWORD PTR tv149[ebp]
$LN2@Make_heap:

; 2661 : 		{	// reheap top half, bottom to top
; 2662 : 		--_Hole;
; 2663 : 		_Ty _Val = _Move(*(_First + _Hole));

  00030	6a 07		 push	 7
  00032	59		 pop	 ecx

; 2664 : 		_Adjust_heap(_First, _Hole, _Bottom,
; 2665 : 			_Move(_Val), _Pred);

  00033	ff 75 10	 push	 DWORD PTR __Pred$[ebp]
  00036	8d 45 e0	 lea	 eax, DWORD PTR __Val$534843[ebp]
  00039	50		 push	 eax
  0003a	ff 75 fc	 push	 DWORD PTR __Bottom$[ebp]
  0003d	4b		 dec	 ebx
  0003e	83 ee 1c	 sub	 esi, 28			; 0000001cH
  00041	53		 push	 ebx
  00042	ff 75 08	 push	 DWORD PTR __First$[ebp]
  00045	8d 7d e0	 lea	 edi, DWORD PTR __Val$534843[ebp]
  00048	89 75 0c	 mov	 DWORD PTR tv149[ebp], esi
  0004b	f3 a5		 rep movsd
  0004d	e8 00 00 00 00	 call	 ??$_Adjust_heap@PAUChangeDirInfo@@HU1@VChangeDirSort@@@std@@YAXPAUChangeDirInfo@@HH$$QAU1@VChangeDirSort@@@Z ; std::_Adjust_heap<ChangeDirInfo *,int,ChangeDirInfo,ChangeDirSort>
  00052	83 c4 14	 add	 esp, 20			; 00000014H
  00055	85 db		 test	 ebx, ebx
  00057	7f d4		 jg	 SHORT $LL11@Make_heap
  00059	5f		 pop	 edi
  0005a	5e		 pop	 esi
$LN1@Make_heap:
  0005b	5b		 pop	 ebx

; 2666 : 		}
; 2667 : 	}

  0005c	c9		 leave
  0005d	c3		 ret	 0
??$_Make_heap@PAUChangeDirInfo@@HU1@VChangeDirSort@@@std@@YAXPAUChangeDirInfo@@0VChangeDirSort@@PAH0@Z ENDP ; std::_Make_heap<ChangeDirInfo *,int,ChangeDirInfo,ChangeDirSort>
_TEXT	ENDS
PUBLIC	??$_Pop_heap_0@PAUChangeDirInfo@@U1@VChangeDirSort@@@std@@YAXPAUChangeDirInfo@@0VChangeDirSort@@0@Z ; std::_Pop_heap_0<ChangeDirInfo *,ChangeDirInfo,ChangeDirSort>
; Function compile flags: /Ogsp
;	COMDAT ??$_Pop_heap_0@PAUChangeDirInfo@@U1@VChangeDirSort@@@std@@YAXPAUChangeDirInfo@@0VChangeDirSort@@0@Z
_TEXT	SEGMENT
__Val$ = -28						; size = 28
__First$ = 8						; size = 4
__Last$ = 12						; size = 4
__Pred$ = 16						; size = 1
___formal$ = 20						; size = 4
??$_Pop_heap_0@PAUChangeDirInfo@@U1@VChangeDirSort@@@std@@YAXPAUChangeDirInfo@@0VChangeDirSort@@0@Z PROC ; std::_Pop_heap_0<ChangeDirInfo *,ChangeDirInfo,ChangeDirSort>, COMDAT

; 2601 : 	{	// pop *_First to *(_Last - 1) and reheap, using _Pred

  00000	55		 push	 ebp
  00001	8b ec		 mov	 ebp, esp

; 2602 : 	_Ty _Val = _Move(*(_Last - 1));

  00003	8b 45 0c	 mov	 eax, DWORD PTR __Last$[ebp]
  00006	83 ec 1c	 sub	 esp, 28			; 0000001cH
  00009	56		 push	 esi
  0000a	57		 push	 edi
  0000b	6a 07		 push	 7
  0000d	59		 pop	 ecx
  0000e	83 c0 e4	 add	 eax, -28		; ffffffe4H

; 2603 : 	_Pop_heap(_First, _Last - 1, _Last - 1,
; 2604 : 		_Move(_Val), _Pred, _Dist_type(_First));

  00011	6a 00		 push	 0
  00013	ff 75 10	 push	 DWORD PTR __Pred$[ebp]
  00016	8b f0		 mov	 esi, eax
  00018	8d 7d e4	 lea	 edi, DWORD PTR __Val$[ebp]
  0001b	f3 a5		 rep movsd
  0001d	8d 4d e4	 lea	 ecx, DWORD PTR __Val$[ebp]
  00020	51		 push	 ecx
  00021	50		 push	 eax
  00022	50		 push	 eax
  00023	ff 75 08	 push	 DWORD PTR __First$[ebp]
  00026	e8 00 00 00 00	 call	 ??$_Pop_heap@PAUChangeDirInfo@@HU1@VChangeDirSort@@@std@@YAXPAUChangeDirInfo@@00$$QAU1@VChangeDirSort@@PAH@Z ; std::_Pop_heap<ChangeDirInfo *,int,ChangeDirInfo,ChangeDirSort>
  0002b	83 c4 18	 add	 esp, 24			; 00000018H
  0002e	5f		 pop	 edi
  0002f	5e		 pop	 esi

; 2605 : 	}

  00030	c9		 leave
  00031	c3		 ret	 0
??$_Pop_heap_0@PAUChangeDirInfo@@U1@VChangeDirSort@@@std@@YAXPAUChangeDirInfo@@0VChangeDirSort@@0@Z ENDP ; std::_Pop_heap_0<ChangeDirInfo *,ChangeDirInfo,ChangeDirSort>
_TEXT	ENDS
PUBLIC	??$_Destroy_range@V?$allocator@UChangeDirInfo@@@std@@@std@@YAXPAUChangeDirInfo@@0AAV?$allocator@UChangeDirInfo@@@0@@Z ; std::_Destroy_range<std::allocator<ChangeDirInfo> >
; Function compile flags: /Ogsp
; File c:\program files (x86)\microsoft visual studio 10.0\vc\include\xmemory
;	COMDAT ??$_Destroy_range@V?$allocator@UChangeDirInfo@@@std@@@std@@YAXPAUChangeDirInfo@@0AAV?$allocator@UChangeDirInfo@@@0@@Z
_TEXT	SEGMENT
__First$ = 8						; size = 4
__Last$ = 12						; size = 4
__Al$ = 16						; size = 4
??$_Destroy_range@V?$allocator@UChangeDirInfo@@@std@@@std@@YAXPAUChangeDirInfo@@0AAV?$allocator@UChangeDirInfo@@@0@@Z PROC ; std::_Destroy_range<std::allocator<ChangeDirInfo> >, COMDAT

; 88   : 	_Destroy_range(_First, _Last, _Al, _Ptr_cat(_First, _Last));
; 89   : 	}

  00000	c3		 ret	 0
??$_Destroy_range@V?$allocator@UChangeDirInfo@@@std@@@std@@YAXPAUChangeDirInfo@@0AAV?$allocator@UChangeDirInfo@@@0@@Z ENDP ; std::_Destroy_range<std::allocator<ChangeDirInfo> >
_TEXT	ENDS
PUBLIC	??$_Uninitialized_move@PAUChangeDirInfo@@PAU1@V?$allocator@UChangeDirInfo@@@std@@@std@@YAPAUChangeDirInfo@@PAU1@00AAV?$allocator@UChangeDirInfo@@@0@@Z ; std::_Uninitialized_move<ChangeDirInfo *,ChangeDirInfo *,std::allocator<ChangeDirInfo> >
; Function compile flags: /Ogsp
; File c:\program files (x86)\microsoft visual studio 10.0\vc\include\memory
;	COMDAT ??$_Uninitialized_move@PAUChangeDirInfo@@PAU1@V?$allocator@UChangeDirInfo@@@std@@@std@@YAPAUChangeDirInfo@@PAU1@00AAV?$allocator@UChangeDirInfo@@@0@@Z
_TEXT	SEGMENT
__Cat$537768 = -4					; size = 1
__First$ = 8						; size = 4
__Last$ = 12						; size = 4
__Dest$ = 16						; size = 4
__Al$ = 20						; size = 4
??$_Uninitialized_move@PAUChangeDirInfo@@PAU1@V?$allocator@UChangeDirInfo@@@std@@@std@@YAPAUChangeDirInfo@@PAU1@00AAV?$allocator@UChangeDirInfo@@@0@@Z PROC ; std::_Uninitialized_move<ChangeDirInfo *,ChangeDirInfo *,std::allocator<ChangeDirInfo> >, COMDAT

; 469  : 	{	// move [_First, _Last) to raw _Dest, using _Al

  00000	55		 push	 ebp
  00001	8b ec		 mov	 ebp, esp
  00003	51		 push	 ecx

; 470  : 	return (_Uninit_move(_First, _Last, _Dest, _Al,
; 471  : 		_Val_type(_First), _Ptr_cat(_First, _Dest)));

  00004	ff 75 fc	 push	 DWORD PTR __Cat$537768[ebp]
  00007	6a 00		 push	 0
  00009	ff 75 14	 push	 DWORD PTR __Al$[ebp]
  0000c	ff 75 10	 push	 DWORD PTR __Dest$[ebp]
  0000f	ff 75 0c	 push	 DWORD PTR __Last$[ebp]
  00012	ff 75 08	 push	 DWORD PTR __First$[ebp]
  00015	e8 00 00 00 00	 call	 ??$_Uninit_move@PAUChangeDirInfo@@PAU1@V?$allocator@UChangeDirInfo@@@std@@U1@@std@@YAPAUChangeDirInfo@@PAU1@00AAV?$allocator@UChangeDirInfo@@@0@0U_Nonscalar_ptr_iterator_tag@0@@Z ; std::_Uninit_move<ChangeDirInfo *,ChangeDirInfo *,std::allocator<ChangeDirInfo>,ChangeDirInfo>
  0001a	83 c4 18	 add	 esp, 24			; 00000018H

; 472  : 	}

  0001d	c9		 leave
  0001e	c3		 ret	 0
??$_Uninitialized_move@PAUChangeDirInfo@@PAU1@V?$allocator@UChangeDirInfo@@@std@@@std@@YAPAUChangeDirInfo@@PAU1@00AAV?$allocator@UChangeDirInfo@@@0@@Z ENDP ; std::_Uninitialized_move<ChangeDirInfo *,ChangeDirInfo *,std::allocator<ChangeDirInfo> >
_TEXT	ENDS
PUBLIC	??$_Unguarded_partition@PAUChangeDirInfo@@VChangeDirSort@@@std@@YA?AU?$pair@PAUChangeDirInfo@@PAU1@@0@PAUChangeDirInfo@@0VChangeDirSort@@@Z ; std::_Unguarded_partition<ChangeDirInfo *,ChangeDirSort>
; Function compile flags: /Ogsp
; File c:\program files (x86)\microsoft visual studio 10.0\vc\include\algorithm
;	COMDAT ??$_Unguarded_partition@PAUChangeDirInfo@@VChangeDirSort@@@std@@YA?AU?$pair@PAUChangeDirInfo@@PAU1@@0@PAUChangeDirInfo@@0VChangeDirSort@@@Z
_TEXT	SEGMENT
tv426 = -8						; size = 4
__Glast$ = -4						; size = 4
___$ReturnUdt$ = 8					; size = 4
__First$ = 12						; size = 4
__Last$ = 16						; size = 4
__Pred$ = 20						; size = 1
??$_Unguarded_partition@PAUChangeDirInfo@@VChangeDirSort@@@std@@YA?AU?$pair@PAUChangeDirInfo@@PAU1@@0@PAUChangeDirInfo@@0VChangeDirSort@@@Z PROC ; std::_Unguarded_partition<ChangeDirInfo *,ChangeDirSort>, COMDAT

; 3712 : 	{	// partition [_First, _Last), using _Pred

  00000	55		 push	 ebp
  00001	8b ec		 mov	 ebp, esp
  00003	51		 push	 ecx
  00004	51		 push	 ecx

; 3713 : 	_RanIt _Mid = _First + (_Last - _First) / 2;

  00005	8b 4d 10	 mov	 ecx, DWORD PTR __Last$[ebp]
  00008	53		 push	 ebx
  00009	56		 push	 esi
  0000a	57		 push	 edi
  0000b	8b 7d 0c	 mov	 edi, DWORD PTR __First$[ebp]
  0000e	8b c1		 mov	 eax, ecx
  00010	2b c7		 sub	 eax, edi
  00012	6a 1c		 push	 28			; 0000001cH
  00014	5e		 pop	 esi
  00015	99		 cdq
  00016	f7 fe		 idiv	 esi

; 3714 : 	_Median(_First, _Mid, _Last - 1, _Pred);

  00018	ff 75 14	 push	 DWORD PTR __Pred$[ebp]
  0001b	83 c1 e4	 add	 ecx, -28		; ffffffe4H
  0001e	51		 push	 ecx
  0001f	99		 cdq
  00020	2b c2		 sub	 eax, edx
  00022	8b f0		 mov	 esi, eax
  00024	d1 fe		 sar	 esi, 1
  00026	6b f6 1c	 imul	 esi, 28			; 0000001cH
  00029	03 f7		 add	 esi, edi
  0002b	56		 push	 esi
  0002c	57		 push	 edi
  0002d	e8 00 00 00 00	 call	 ??$_Median@PAUChangeDirInfo@@VChangeDirSort@@@std@@YAXPAUChangeDirInfo@@00VChangeDirSort@@@Z ; std::_Median<ChangeDirInfo *,ChangeDirSort>
  00032	83 c4 10	 add	 esp, 16			; 00000010H

; 3715 : 	_RanIt _Pfirst = _Mid;
; 3716 : 	_RanIt _Plast = _Pfirst + 1;

  00035	8d 5e 1c	 lea	 ebx, DWORD PTR [esi+28]
  00038	eb 76		 jmp	 SHORT $LN132@Unguarded_
$LL27@Unguarded_:

; 3717 : 
; 3718 : 	while (_First < _Pfirst
; 3719 : 		&& !_DEBUG_LT_PRED(_Pred, *(_Pfirst - 1), *_Pfirst)
; 3720 : 		&& !_Pred(*_Pfirst, *(_Pfirst - 1)))

  0003a	f3 0f 10 46 e4	 movss	 xmm0, DWORD PTR [esi-28]
  0003f	f3 0f 10 0e	 movss	 xmm1, DWORD PTR [esi]
  00043	0f 5a d0	 cvtps2pd xmm2, xmm0
  00046	0f 5a d9	 cvtps2pd xmm3, xmm1
  00049	66 0f 2f da	 comisd	 xmm3, xmm2
  0004d	77 65		 ja	 SHORT $LN120@Unguarded_
  0004f	0f 57 d2	 xorps	 xmm2, xmm2
  00052	0f 57 db	 xorps	 xmm3, xmm3
  00055	0f 5a d0	 cvtps2pd xmm2, xmm0
  00058	0f 5a d9	 cvtps2pd xmm3, xmm1
  0005b	66 0f 2e d3	 ucomisd xmm2, xmm3
  0005f	9f		 lahf
  00060	f6 c4 44	 test	 ah, 68			; 00000044H
  00063	7a 16		 jp	 SHORT $LN30@Unguarded_
  00065	f3 0f 10 56 f0	 movss	 xmm2, DWORD PTR [esi-16]
  0006a	f3 0f 10 5e 0c	 movss	 xmm3, DWORD PTR [esi+12]
  0006f	0f 5a d2	 cvtps2pd xmm2, xmm2
  00072	0f 5a db	 cvtps2pd xmm3, xmm3
  00075	66 0f 2f da	 comisd	 xmm3, xmm2
  00079	77 39		 ja	 SHORT $LN120@Unguarded_
$LN30@Unguarded_:
  0007b	0f 5a d1	 cvtps2pd xmm2, xmm1
  0007e	0f 5a d8	 cvtps2pd xmm3, xmm0
  00081	66 0f 2f da	 comisd	 xmm3, xmm2
  00085	77 2d		 ja	 SHORT $LN120@Unguarded_
  00087	0f 5a c9	 cvtps2pd xmm1, xmm1
  0008a	0f 5a c0	 cvtps2pd xmm0, xmm0
  0008d	66 0f 2e c8	 ucomisd xmm1, xmm0
  00091	9f		 lahf
  00092	f6 c4 44	 test	 ah, 68			; 00000044H
  00095	7a 16		 jp	 SHORT $LN36@Unguarded_
  00097	f3 0f 10 46 0c	 movss	 xmm0, DWORD PTR [esi+12]
  0009c	f3 0f 10 4e f0	 movss	 xmm1, DWORD PTR [esi-16]
  000a1	0f 5a c0	 cvtps2pd xmm0, xmm0
  000a4	0f 5a c9	 cvtps2pd xmm1, xmm1
  000a7	66 0f 2f c8	 comisd	 xmm1, xmm0
  000ab	77 07		 ja	 SHORT $LN120@Unguarded_
$LN36@Unguarded_:

; 3721 : 		--_Pfirst;

  000ad	83 c6 e4	 add	 esi, -28		; ffffffe4H
$LN132@Unguarded_:

; 3717 : 
; 3718 : 	while (_First < _Pfirst
; 3719 : 		&& !_DEBUG_LT_PRED(_Pred, *(_Pfirst - 1), *_Pfirst)
; 3720 : 		&& !_Pred(*_Pfirst, *(_Pfirst - 1)))

  000b0	3b fe		 cmp	 edi, esi
  000b2	72 86		 jb	 SHORT $LL27@Unguarded_
$LN120@Unguarded_:

; 3722 : 	while (_Plast < _Last
; 3723 : 		&& !_DEBUG_LT_PRED(_Pred, *_Plast, *_Pfirst)
; 3724 : 		&& !_Pred(*_Pfirst, *_Plast))

  000b4	3b 5d 10	 cmp	 ebx, DWORD PTR __Last$[ebp]
  000b7	0f 83 8b 00 00
	00		 jae	 $LN124@Unguarded_
  000bd	f3 0f 10 0e	 movss	 xmm1, DWORD PTR [esi]
$LL25@Unguarded_:
  000c1	f3 0f 10 03	 movss	 xmm0, DWORD PTR [ebx]
  000c5	0f 57 db	 xorps	 xmm3, xmm3
  000c8	0f 5a d0	 cvtps2pd xmm2, xmm0
  000cb	f3 0f 5a d9	 cvtss2sd xmm3, xmm1
  000cf	66 0f 2f da	 comisd	 xmm3, xmm2
  000d3	77 73		 ja	 SHORT $LN124@Unguarded_
  000d5	0f 57 d2	 xorps	 xmm2, xmm2
  000d8	0f 57 db	 xorps	 xmm3, xmm3
  000db	0f 5a d0	 cvtps2pd xmm2, xmm0
  000de	f3 0f 5a d9	 cvtss2sd xmm3, xmm1
  000e2	66 0f 2e d3	 ucomisd xmm2, xmm3
  000e6	9f		 lahf
  000e7	f6 c4 44	 test	 ah, 68			; 00000044H
  000ea	7a 16		 jp	 SHORT $LN42@Unguarded_
  000ec	f3 0f 10 53 0c	 movss	 xmm2, DWORD PTR [ebx+12]
  000f1	f3 0f 10 5e 0c	 movss	 xmm3, DWORD PTR [esi+12]
  000f6	0f 5a d2	 cvtps2pd xmm2, xmm2
  000f9	0f 5a db	 cvtps2pd xmm3, xmm3
  000fc	66 0f 2f da	 comisd	 xmm3, xmm2
  00100	77 46		 ja	 SHORT $LN124@Unguarded_
$LN42@Unguarded_:
  00102	0f 57 d2	 xorps	 xmm2, xmm2
  00105	f3 0f 5a d1	 cvtss2sd xmm2, xmm1
  00109	0f 5a d8	 cvtps2pd xmm3, xmm0
  0010c	66 0f 2f da	 comisd	 xmm3, xmm2
  00110	77 36		 ja	 SHORT $LN124@Unguarded_
  00112	0f 57 d2	 xorps	 xmm2, xmm2
  00115	f3 0f 5a d1	 cvtss2sd xmm2, xmm1
  00119	0f 5a c0	 cvtps2pd xmm0, xmm0
  0011c	66 0f 2e d0	 ucomisd xmm2, xmm0
  00120	9f		 lahf
  00121	f6 c4 44	 test	 ah, 68			; 00000044H
  00124	7a 16		 jp	 SHORT $LN48@Unguarded_
  00126	f3 0f 10 46 0c	 movss	 xmm0, DWORD PTR [esi+12]
  0012b	f3 0f 10 53 0c	 movss	 xmm2, DWORD PTR [ebx+12]
  00130	0f 5a c0	 cvtps2pd xmm0, xmm0
  00133	0f 5a d2	 cvtps2pd xmm2, xmm2
  00136	66 0f 2f d0	 comisd	 xmm2, xmm0
  0013a	77 0c		 ja	 SHORT $LN124@Unguarded_
$LN48@Unguarded_:

; 3725 : 		++_Plast;

  0013c	83 c3 1c	 add	 ebx, 28			; 0000001cH
  0013f	3b 5d 10	 cmp	 ebx, DWORD PTR __Last$[ebp]
  00142	0f 82 79 ff ff
	ff		 jb	 $LL25@Unguarded_
$LN124@Unguarded_:

; 3726 : 
; 3727 : 	_RanIt _Gfirst = _Plast;

  00148	8b fb		 mov	 edi, ebx

; 3728 : 	_RanIt _Glast = _Pfirst;

  0014a	89 75 fc	 mov	 DWORD PTR __Glast$[ebp], esi

; 3729 : 
; 3730 : 	for (; ; )
; 3731 : 		{	// partition
; 3732 : 		for (; _Gfirst < _Last; ++_Gfirst)

  0014d	e9 83 00 00 00	 jmp	 $LN134@Unguarded_
$LL21@Unguarded_:

; 3733 : 			if (_DEBUG_LT_PRED(_Pred, *_Pfirst, *_Gfirst))

  00152	f3 0f 10 06	 movss	 xmm0, DWORD PTR [esi]
  00156	f3 0f 10 0f	 movss	 xmm1, DWORD PTR [edi]
  0015a	0f 5a d0	 cvtps2pd xmm2, xmm0
  0015d	0f 5a d9	 cvtps2pd xmm3, xmm1
  00160	66 0f 2f da	 comisd	 xmm3, xmm2
  00164	77 6c		 ja	 SHORT $LN20@Unguarded_
  00166	0f 57 d2	 xorps	 xmm2, xmm2
  00169	0f 57 db	 xorps	 xmm3, xmm3
  0016c	0f 5a d0	 cvtps2pd xmm2, xmm0
  0016f	0f 5a d9	 cvtps2pd xmm3, xmm1
  00172	66 0f 2e d3	 ucomisd xmm2, xmm3
  00176	9f		 lahf
  00177	f6 c4 44	 test	 ah, 68			; 00000044H
  0017a	7a 16		 jp	 SHORT $LN54@Unguarded_
  0017c	f3 0f 10 56 0c	 movss	 xmm2, DWORD PTR [esi+12]
  00181	f3 0f 10 5f 0c	 movss	 xmm3, DWORD PTR [edi+12]
  00186	0f 5a d2	 cvtps2pd xmm2, xmm2
  00189	0f 5a db	 cvtps2pd xmm3, xmm3
  0018c	66 0f 2f da	 comisd	 xmm3, xmm2
  00190	77 40		 ja	 SHORT $LN20@Unguarded_
$LN54@Unguarded_:

; 3734 : 				;
; 3735 : 			else if (_Pred(*_Gfirst, *_Pfirst))

  00192	0f 5a d1	 cvtps2pd xmm2, xmm1
  00195	0f 5a d8	 cvtps2pd xmm3, xmm0
  00198	66 0f 2f da	 comisd	 xmm3, xmm2
  0019c	77 40		 ja	 SHORT $LN130@Unguarded_
  0019e	0f 5a c9	 cvtps2pd xmm1, xmm1
  001a1	0f 5a c0	 cvtps2pd xmm0, xmm0
  001a4	66 0f 2e c8	 ucomisd xmm1, xmm0
  001a8	9f		 lahf
  001a9	f6 c4 44	 test	 ah, 68			; 00000044H
  001ac	7a 16		 jp	 SHORT $LN60@Unguarded_
  001ae	f3 0f 10 47 0c	 movss	 xmm0, DWORD PTR [edi+12]
  001b3	f3 0f 10 4e 0c	 movss	 xmm1, DWORD PTR [esi+12]
  001b8	0f 5a c0	 cvtps2pd xmm0, xmm0
  001bb	0f 5a c9	 cvtps2pd xmm1, xmm1
  001be	66 0f 2f c8	 comisd	 xmm1, xmm0
  001c2	77 1a		 ja	 SHORT $LN130@Unguarded_
$LN60@Unguarded_:

; 3736 : 				break;
; 3737 : 			else
; 3738 : 				_STD iter_swap(_Plast++, _Gfirst);

  001c4	8b c3		 mov	 eax, ebx
  001c6	57		 push	 edi
  001c7	83 c3 1c	 add	 ebx, 28			; 0000001cH
  001ca	50		 push	 eax
$LN135@Unguarded_:
  001cb	e8 00 00 00 00	 call	 ??$swap@UChangeDirInfo@@@std@@YAXAAUChangeDirInfo@@0@Z ; std::swap<ChangeDirInfo>
  001d0	59		 pop	 ecx
  001d1	59		 pop	 ecx
$LN20@Unguarded_:

; 3729 : 
; 3730 : 	for (; ; )
; 3731 : 		{	// partition
; 3732 : 		for (; _Gfirst < _Last; ++_Gfirst)

  001d2	83 c7 1c	 add	 edi, 28			; 0000001cH
$LN134@Unguarded_:
  001d5	3b 7d 10	 cmp	 edi, DWORD PTR __Last$[ebp]
  001d8	0f 82 74 ff ff
	ff		 jb	 $LL21@Unguarded_
$LN130@Unguarded_:

; 3739 : 		for (; _First < _Glast; --_Glast)

  001de	8b 45 0c	 mov	 eax, DWORD PTR __First$[ebp]
  001e1	3b 45 fc	 cmp	 eax, DWORD PTR __Glast$[ebp]
  001e4	0f 83 96 00 00
	00		 jae	 $LN131@Unguarded_
$LL129@Unguarded_:
  001ea	8b 55 fc	 mov	 edx, DWORD PTR __Glast$[ebp]

; 3740 : 			if (_DEBUG_LT_PRED(_Pred, *(_Glast - 1), *_Pfirst))

  001ed	f3 0f 10 0e	 movss	 xmm1, DWORD PTR [esi]
  001f1	8d 4a e4	 lea	 ecx, DWORD PTR [edx-28]
  001f4	f3 0f 10 01	 movss	 xmm0, DWORD PTR [ecx]
  001f8	0f 5a d0	 cvtps2pd xmm2, xmm0
  001fb	0f 5a d9	 cvtps2pd xmm3, xmm1
  001fe	66 0f 2f da	 comisd	 xmm3, xmm2
  00202	89 4d f8	 mov	 DWORD PTR tv426[ebp], ecx
  00205	77 6d		 ja	 SHORT $LN13@Unguarded_
  00207	0f 57 d2	 xorps	 xmm2, xmm2
  0020a	0f 57 db	 xorps	 xmm3, xmm3
  0020d	0f 5a d0	 cvtps2pd xmm2, xmm0
  00210	0f 5a d9	 cvtps2pd xmm3, xmm1
  00213	66 0f 2e d3	 ucomisd xmm2, xmm3
  00217	9f		 lahf
  00218	f6 c4 44	 test	 ah, 68			; 00000044H
  0021b	7a 16		 jp	 SHORT $LN68@Unguarded_
  0021d	f3 0f 10 52 f0	 movss	 xmm2, DWORD PTR [edx-16]
  00222	f3 0f 10 5e 0c	 movss	 xmm3, DWORD PTR [esi+12]
  00227	0f 5a d2	 cvtps2pd xmm2, xmm2
  0022a	0f 5a db	 cvtps2pd xmm3, xmm3
  0022d	66 0f 2f da	 comisd	 xmm3, xmm2
  00231	77 41		 ja	 SHORT $LN13@Unguarded_
$LN68@Unguarded_:

; 3741 : 				;
; 3742 : 			else if (_Pred(*_Pfirst, *(_Glast - 1)))

  00233	0f 5a d1	 cvtps2pd xmm2, xmm1
  00236	0f 5a d8	 cvtps2pd xmm3, xmm0
  00239	66 0f 2f da	 comisd	 xmm3, xmm2
  0023d	77 41		 ja	 SHORT $LN131@Unguarded_
  0023f	0f 5a c9	 cvtps2pd xmm1, xmm1
  00242	0f 5a c0	 cvtps2pd xmm0, xmm0
  00245	66 0f 2e c8	 ucomisd xmm1, xmm0
  00249	9f		 lahf
  0024a	f6 c4 44	 test	 ah, 68			; 00000044H
  0024d	7a 16		 jp	 SHORT $LN74@Unguarded_
  0024f	f3 0f 10 46 0c	 movss	 xmm0, DWORD PTR [esi+12]
  00254	f3 0f 10 4a f0	 movss	 xmm1, DWORD PTR [edx-16]
  00259	0f 5a c0	 cvtps2pd xmm0, xmm0
  0025c	0f 5a c9	 cvtps2pd xmm1, xmm1
  0025f	66 0f 2f c8	 comisd	 xmm1, xmm0
  00263	77 1b		 ja	 SHORT $LN131@Unguarded_
$LN74@Unguarded_:

; 3743 : 				break;
; 3744 : 			else
; 3745 : 				_STD iter_swap(--_Pfirst, _Glast - 1);

  00265	83 ee 1c	 sub	 esi, 28			; 0000001cH
  00268	51		 push	 ecx
  00269	56		 push	 esi
  0026a	e8 00 00 00 00	 call	 ??$swap@UChangeDirInfo@@@std@@YAXAAUChangeDirInfo@@0@Z ; std::swap<ChangeDirInfo>
  0026f	59		 pop	 ecx
  00270	59		 pop	 ecx
  00271	8b 4d f8	 mov	 ecx, DWORD PTR tv426[ebp]
$LN13@Unguarded_:

; 3739 : 		for (; _First < _Glast; --_Glast)

  00274	89 4d fc	 mov	 DWORD PTR __Glast$[ebp], ecx
  00277	39 4d 0c	 cmp	 DWORD PTR __First$[ebp], ecx
  0027a	0f 82 6a ff ff
	ff		 jb	 $LL129@Unguarded_
$LN131@Unguarded_:

; 3746 : 		if (_Glast == _First && _Gfirst == _Last)

  00280	8b 45 fc	 mov	 eax, DWORD PTR __Glast$[ebp]
  00283	3b 45 0c	 cmp	 eax, DWORD PTR __First$[ebp]
  00286	75 1f		 jne	 SHORT $LN6@Unguarded_
  00288	3b 7d 10	 cmp	 edi, DWORD PTR __Last$[ebp]
  0028b	74 50		 je	 SHORT $LN112@Unguarded_

; 3748 : 
; 3749 : 		if (_Glast == _First)
; 3750 : 			{	// no room at bottom, rotate pivot upward
; 3751 : 			if (_Plast != _Gfirst)

  0028d	3b df		 cmp	 ebx, edi
  0028f	74 09		 je	 SHORT $LN94@Unguarded_

; 3752 : 				_STD iter_swap(_Pfirst, _Plast);

  00291	53		 push	 ebx
  00292	56		 push	 esi
  00293	e8 00 00 00 00	 call	 ??$swap@UChangeDirInfo@@@std@@YAXAAUChangeDirInfo@@0@Z ; std::swap<ChangeDirInfo>
  00298	59		 pop	 ecx
  00299	59		 pop	 ecx
$LN94@Unguarded_:

; 3753 : 			++_Plast;
; 3754 : 			_STD iter_swap(_Pfirst++, _Gfirst++);

  0029a	57		 push	 edi
  0029b	56		 push	 esi
  0029c	83 c3 1c	 add	 ebx, 28			; 0000001cH
  0029f	83 c6 1c	 add	 esi, 28			; 0000001cH
  002a2	83 c7 1c	 add	 edi, 28			; 0000001cH
  002a5	eb 21		 jmp	 SHORT $LN133@Unguarded_
$LN6@Unguarded_:

; 3755 : 			}
; 3756 : 		else if (_Gfirst == _Last)
; 3757 : 			{	// no room at top, rotate pivot downward
; 3758 : 			if (--_Glast != --_Pfirst)

  002a7	83 6d fc 1c	 sub	 DWORD PTR __Glast$[ebp], 28 ; 0000001cH
  002ab	3b 7d 10	 cmp	 edi, DWORD PTR __Last$[ebp]
  002ae	75 24		 jne	 SHORT $LN3@Unguarded_
  002b0	83 ee 1c	 sub	 esi, 28			; 0000001cH
  002b3	39 75 fc	 cmp	 DWORD PTR __Glast$[ebp], esi
  002b6	74 0b		 je	 SHORT $LN98@Unguarded_

; 3759 : 				_STD iter_swap(_Glast, _Pfirst);

  002b8	56		 push	 esi
  002b9	ff 75 fc	 push	 DWORD PTR __Glast$[ebp]
  002bc	e8 00 00 00 00	 call	 ??$swap@UChangeDirInfo@@@std@@YAXAAUChangeDirInfo@@0@Z ; std::swap<ChangeDirInfo>
  002c1	59		 pop	 ecx
  002c2	59		 pop	 ecx
$LN98@Unguarded_:

; 3760 : 			_STD iter_swap(_Pfirst, --_Plast);

  002c3	83 eb 1c	 sub	 ebx, 28			; 0000001cH
  002c6	53		 push	 ebx
  002c7	56		 push	 esi
$LN133@Unguarded_:
  002c8	e8 00 00 00 00	 call	 ??$swap@UChangeDirInfo@@@std@@YAXAAUChangeDirInfo@@0@Z ; std::swap<ChangeDirInfo>
  002cd	59		 pop	 ecx
  002ce	59		 pop	 ecx

; 3761 : 			}
; 3762 : 		else

  002cf	e9 01 ff ff ff	 jmp	 $LN134@Unguarded_
$LN3@Unguarded_:

; 3763 : 			_STD iter_swap(_Gfirst++, --_Glast);

  002d4	ff 75 fc	 push	 DWORD PTR __Glast$[ebp]
  002d7	57		 push	 edi

; 3764 : 		}

  002d8	e9 ee fe ff ff	 jmp	 $LN135@Unguarded_
$LN112@Unguarded_:

; 3747 : 			return (_STD pair<_RanIt, _RanIt>(_Pfirst, _Plast));

  002dd	8b 45 08	 mov	 eax, DWORD PTR ___$ReturnUdt$[ebp]
  002e0	5f		 pop	 edi
  002e1	89 30		 mov	 DWORD PTR [eax], esi
  002e3	5e		 pop	 esi
  002e4	89 58 04	 mov	 DWORD PTR [eax+4], ebx
  002e7	5b		 pop	 ebx

; 3765 : 	}

  002e8	c9		 leave
  002e9	c3		 ret	 0
??$_Unguarded_partition@PAUChangeDirInfo@@VChangeDirSort@@@std@@YA?AU?$pair@PAUChangeDirInfo@@PAU1@@0@PAUChangeDirInfo@@0VChangeDirSort@@@Z ENDP ; std::_Unguarded_partition<ChangeDirInfo *,ChangeDirSort>
_TEXT	ENDS
PUBLIC	??$make_heap@PAUChangeDirInfo@@VChangeDirSort@@@std@@YAXPAUChangeDirInfo@@0VChangeDirSort@@@Z ; std::make_heap<ChangeDirInfo *,ChangeDirSort>
; Function compile flags: /Ogsp
;	COMDAT ??$make_heap@PAUChangeDirInfo@@VChangeDirSort@@@std@@YAXPAUChangeDirInfo@@0VChangeDirSort@@@Z
_TEXT	SEGMENT
__First$ = 8						; size = 4
__Last$ = 12						; size = 4
__Pred$ = 16						; size = 1
??$make_heap@PAUChangeDirInfo@@VChangeDirSort@@@std@@YAXPAUChangeDirInfo@@0VChangeDirSort@@@Z PROC ; std::make_heap<ChangeDirInfo *,ChangeDirSort>, COMDAT

; 2672 : 	{	// make [_First, _Last) into a heap, using _Pred

  00000	55		 push	 ebp
  00001	8b ec		 mov	 ebp, esp

; 2673 : 	_DEBUG_RANGE(_First, _Last);
; 2674 : 	_DEBUG_POINTER(_Pred);
; 2675 : 	if (1 < _Last - _First)

  00003	8b 45 0c	 mov	 eax, DWORD PTR __Last$[ebp]
  00006	2b 45 08	 sub	 eax, DWORD PTR __First$[ebp]
  00009	6a 1c		 push	 28			; 0000001cH
  0000b	99		 cdq
  0000c	59		 pop	 ecx
  0000d	f7 f9		 idiv	 ecx
  0000f	83 f8 01	 cmp	 eax, 1
  00012	7e 15		 jle	 SHORT $LN1@make_heap

; 2676 : 		_Make_heap(_Unchecked(_First), _Unchecked(_Last), _Pred,
; 2677 : 			_Dist_type(_First), _Val_type(_First));

  00014	6a 00		 push	 0
  00016	6a 00		 push	 0
  00018	ff 75 10	 push	 DWORD PTR __Pred$[ebp]
  0001b	ff 75 0c	 push	 DWORD PTR __Last$[ebp]
  0001e	ff 75 08	 push	 DWORD PTR __First$[ebp]
  00021	e8 00 00 00 00	 call	 ??$_Make_heap@PAUChangeDirInfo@@HU1@VChangeDirSort@@@std@@YAXPAUChangeDirInfo@@0VChangeDirSort@@PAH0@Z ; std::_Make_heap<ChangeDirInfo *,int,ChangeDirInfo,ChangeDirSort>
  00026	83 c4 14	 add	 esp, 20			; 00000014H
$LN1@make_heap:

; 2678 : 	}

  00029	5d		 pop	 ebp
  0002a	c3		 ret	 0
??$make_heap@PAUChangeDirInfo@@VChangeDirSort@@@std@@YAXPAUChangeDirInfo@@0VChangeDirSort@@@Z ENDP ; std::make_heap<ChangeDirInfo *,ChangeDirSort>
_TEXT	ENDS
PUBLIC	??$_Pop_heap@PAUChangeDirInfo@@VChangeDirSort@@@std@@YAXPAUChangeDirInfo@@0VChangeDirSort@@@Z ; std::_Pop_heap<ChangeDirInfo *,ChangeDirSort>
; Function compile flags: /Ogsp
;	COMDAT ??$_Pop_heap@PAUChangeDirInfo@@VChangeDirSort@@@std@@YAXPAUChangeDirInfo@@0VChangeDirSort@@@Z
_TEXT	SEGMENT
__First$ = 8						; size = 4
__Last$ = 12						; size = 4
__Pred$ = 16						; size = 1
??$_Pop_heap@PAUChangeDirInfo@@VChangeDirSort@@@std@@YAXPAUChangeDirInfo@@0VChangeDirSort@@@Z PROC ; std::_Pop_heap<ChangeDirInfo *,ChangeDirSort>, COMDAT

; 2610 : 	{	// pop *_First to *(_Last - 1) and reheap, using _Pred

  00000	55		 push	 ebp
  00001	8b ec		 mov	 ebp, esp

; 2611 : 	_Pop_heap_0(_Unchecked(_First), _Unchecked(_Last), _Pred,
; 2612 : 		_Val_type(_First));

  00003	6a 00		 push	 0
  00005	ff 75 10	 push	 DWORD PTR __Pred$[ebp]
  00008	ff 75 0c	 push	 DWORD PTR __Last$[ebp]
  0000b	ff 75 08	 push	 DWORD PTR __First$[ebp]
  0000e	e8 00 00 00 00	 call	 ??$_Pop_heap_0@PAUChangeDirInfo@@U1@VChangeDirSort@@@std@@YAXPAUChangeDirInfo@@0VChangeDirSort@@0@Z ; std::_Pop_heap_0<ChangeDirInfo *,ChangeDirInfo,ChangeDirSort>
  00013	83 c4 10	 add	 esp, 16			; 00000010H

; 2613 : 	}

  00016	5d		 pop	 ebp
  00017	c3		 ret	 0
??$_Pop_heap@PAUChangeDirInfo@@VChangeDirSort@@@std@@YAXPAUChangeDirInfo@@0VChangeDirSort@@@Z ENDP ; std::_Pop_heap<ChangeDirInfo *,ChangeDirSort>
_TEXT	ENDS
PUBLIC	?_Destroy@?$vector@UChangeDirInfo@@V?$allocator@UChangeDirInfo@@@std@@@std@@IAEXPAUChangeDirInfo@@0@Z ; std::vector<ChangeDirInfo,std::allocator<ChangeDirInfo> >::_Destroy
; Function compile flags: /Ogsp
; File c:\program files (x86)\microsoft visual studio 10.0\vc\include\vector
;	COMDAT ?_Destroy@?$vector@UChangeDirInfo@@V?$allocator@UChangeDirInfo@@@std@@@std@@IAEXPAUChangeDirInfo@@0@Z
_TEXT	SEGMENT
__First$ = 8						; size = 4
__Last$ = 12						; size = 4
?_Destroy@?$vector@UChangeDirInfo@@V?$allocator@UChangeDirInfo@@@std@@@std@@IAEXPAUChangeDirInfo@@0@Z PROC ; std::vector<ChangeDirInfo,std::allocator<ChangeDirInfo> >::_Destroy, COMDAT
; _this$ = ecx

; 1270 : 		_Destroy_range(_First, _Last, this->_Alval);
; 1271 : 		}

  00000	c2 08 00	 ret	 8
?_Destroy@?$vector@UChangeDirInfo@@V?$allocator@UChangeDirInfo@@@std@@@std@@IAEXPAUChangeDirInfo@@0@Z ENDP ; std::vector<ChangeDirInfo,std::allocator<ChangeDirInfo> >::_Destroy
_TEXT	ENDS
PUBLIC	?_Tidy@?$vector@UChangeDirInfo@@V?$allocator@UChangeDirInfo@@@std@@@std@@IAEXXZ ; std::vector<ChangeDirInfo,std::allocator<ChangeDirInfo> >::_Tidy
EXTRN	__imp_?_Orphan_all@_Container_base0@std@@QAEXXZ:PROC
; Function compile flags: /Ogsp
;	COMDAT ?_Tidy@?$vector@UChangeDirInfo@@V?$allocator@UChangeDirInfo@@@std@@@std@@IAEXXZ
_TEXT	SEGMENT
?_Tidy@?$vector@UChangeDirInfo@@V?$allocator@UChangeDirInfo@@@std@@@std@@IAEXXZ PROC ; std::vector<ChangeDirInfo,std::allocator<ChangeDirInfo> >::_Tidy, COMDAT
; _this$ = ecx

; 1301 : 		{	// free all storage

  00000	56		 push	 esi
  00001	8b f1		 mov	 esi, ecx

; 1302 : 		if (this->_Myfirst != 0)

  00003	83 3e 00	 cmp	 DWORD PTR [esi], 0
  00006	74 0e		 je	 SHORT $LN21@Tidy

; 1303 : 			{	// something to free, destroy and deallocate it
; 1304 : 			this->_Orphan_all();

  00008	ff 15 00 00 00
	00		 call	 DWORD PTR __imp_?_Orphan_all@_Container_base0@std@@QAEXXZ

; 1305 : 			_Destroy(this->_Myfirst, this->_Mylast);
; 1306 : 			this->_Alval.deallocate(this->_Myfirst,
; 1307 : 				this->_Myend - this->_Myfirst);

  0000e	ff 36		 push	 DWORD PTR [esi]
  00010	e8 00 00 00 00	 call	 ??3@YAXPAX@Z		; operator delete
  00015	59		 pop	 ecx
$LN21@Tidy:

; 1308 : 			}
; 1309 : 		this->_Myfirst = 0;

  00016	83 26 00	 and	 DWORD PTR [esi], 0

; 1310 : 		this->_Mylast = 0;

  00019	83 66 04 00	 and	 DWORD PTR [esi+4], 0

; 1311 : 		this->_Myend = 0;

  0001d	83 66 08 00	 and	 DWORD PTR [esi+8], 0
  00021	5e		 pop	 esi

; 1312 : 		}

  00022	c3		 ret	 0
?_Tidy@?$vector@UChangeDirInfo@@V?$allocator@UChangeDirInfo@@@std@@@std@@IAEXXZ ENDP ; std::vector<ChangeDirInfo,std::allocator<ChangeDirInfo> >::_Tidy
_TEXT	ENDS
PUBLIC	??$_Umove@PAUChangeDirInfo@@@?$vector@UChangeDirInfo@@V?$allocator@UChangeDirInfo@@@std@@@std@@IAEPAUChangeDirInfo@@PAU2@00@Z ; std::vector<ChangeDirInfo,std::allocator<ChangeDirInfo> >::_Umove<ChangeDirInfo *>
; Function compile flags: /Ogsp
;	COMDAT ??$_Umove@PAUChangeDirInfo@@@?$vector@UChangeDirInfo@@V?$allocator@UChangeDirInfo@@@std@@@std@@IAEPAUChangeDirInfo@@PAU2@00@Z
_TEXT	SEGMENT
__First$ = 8						; size = 4
__Last$ = 12						; size = 4
__Ptr$ = 16						; size = 4
??$_Umove@PAUChangeDirInfo@@@?$vector@UChangeDirInfo@@V?$allocator@UChangeDirInfo@@@std@@@std@@IAEPAUChangeDirInfo@@PAU2@00@Z PROC ; std::vector<ChangeDirInfo,std::allocator<ChangeDirInfo> >::_Umove<ChangeDirInfo *>, COMDAT
; _this$ = ecx

; 1322 : 		pointer _Umove(_Iter _First, _Iter _Last, pointer _Ptr)

  00000	55		 push	 ebp
  00001	8b ec		 mov	 ebp, esp

; 1323 : 		{	// move initializing [_First, _Last), using allocator
; 1324 : 		return (_Uninitialized_move(_First, _Last,
; 1325 : 			_Ptr, this->_Alval));

  00003	83 c1 0c	 add	 ecx, 12			; 0000000cH
  00006	51		 push	 ecx
  00007	ff 75 10	 push	 DWORD PTR __Ptr$[ebp]
  0000a	ff 75 0c	 push	 DWORD PTR __Last$[ebp]
  0000d	ff 75 08	 push	 DWORD PTR __First$[ebp]
  00010	e8 00 00 00 00	 call	 ??$_Uninitialized_move@PAUChangeDirInfo@@PAU1@V?$allocator@UChangeDirInfo@@@std@@@std@@YAPAUChangeDirInfo@@PAU1@00AAV?$allocator@UChangeDirInfo@@@0@@Z ; std::_Uninitialized_move<ChangeDirInfo *,ChangeDirInfo *,std::allocator<ChangeDirInfo> >
  00015	83 c4 10	 add	 esp, 16			; 00000010H

; 1326 : 		}

  00018	5d		 pop	 ebp
  00019	c2 0c 00	 ret	 12			; 0000000cH
??$_Umove@PAUChangeDirInfo@@@?$vector@UChangeDirInfo@@V?$allocator@UChangeDirInfo@@@std@@@std@@IAEPAUChangeDirInfo@@PAU2@00@Z ENDP ; std::vector<ChangeDirInfo,std::allocator<ChangeDirInfo> >::_Umove<ChangeDirInfo *>
_TEXT	ENDS
PUBLIC	??$_Sort_heap@PAUChangeDirInfo@@VChangeDirSort@@@std@@YAXPAUChangeDirInfo@@0VChangeDirSort@@@Z ; std::_Sort_heap<ChangeDirInfo *,ChangeDirSort>
; Function compile flags: /Ogsp
; File c:\program files (x86)\microsoft visual studio 10.0\vc\include\algorithm
;	COMDAT ??$_Sort_heap@PAUChangeDirInfo@@VChangeDirSort@@@std@@YAXPAUChangeDirInfo@@0VChangeDirSort@@@Z
_TEXT	SEGMENT
__First$ = 8						; size = 4
__Last$ = 12						; size = 4
__Pred$ = 16						; size = 1
??$_Sort_heap@PAUChangeDirInfo@@VChangeDirSort@@@std@@YAXPAUChangeDirInfo@@0VChangeDirSort@@@Z PROC ; std::_Sort_heap<ChangeDirInfo *,ChangeDirSort>, COMDAT

; 2700 : 	{	// order heap by repeatedly popping, using _Pred

  00000	55		 push	 ebp
  00001	8b ec		 mov	 ebp, esp

; 2701 : 	for (; 1 < _Last - _First; --_Last)

  00003	8b 4d 0c	 mov	 ecx, DWORD PTR __Last$[ebp]
  00006	2b 4d 08	 sub	 ecx, DWORD PTR __First$[ebp]
  00009	57		 push	 edi
  0000a	8b c1		 mov	 eax, ecx
  0000c	6a 1c		 push	 28			; 0000001cH
  0000e	99		 cdq
  0000f	5f		 pop	 edi
  00010	f7 ff		 idiv	 edi
  00012	83 f8 01	 cmp	 eax, 1
  00015	7e 29		 jle	 SHORT $LN1@Sort_heap
  00017	8b f9		 mov	 edi, ecx
$LL3@Sort_heap:

; 2702 : 		_Pop_heap(_First, _Last, _Pred);

  00019	6a 00		 push	 0
  0001b	ff 75 10	 push	 DWORD PTR __Pred$[ebp]
  0001e	ff 75 0c	 push	 DWORD PTR __Last$[ebp]
  00021	ff 75 08	 push	 DWORD PTR __First$[ebp]
  00024	e8 00 00 00 00	 call	 ??$_Pop_heap_0@PAUChangeDirInfo@@U1@VChangeDirSort@@@std@@YAXPAUChangeDirInfo@@0VChangeDirSort@@0@Z ; std::_Pop_heap_0<ChangeDirInfo *,ChangeDirInfo,ChangeDirSort>
  00029	83 c4 10	 add	 esp, 16			; 00000010H
  0002c	83 ef 1c	 sub	 edi, 28			; 0000001cH
  0002f	8b c7		 mov	 eax, edi
  00031	6a 1c		 push	 28			; 0000001cH
  00033	99		 cdq
  00034	59		 pop	 ecx
  00035	f7 f9		 idiv	 ecx
  00037	83 6d 0c 1c	 sub	 DWORD PTR __Last$[ebp], 28 ; 0000001cH
  0003b	83 f8 01	 cmp	 eax, 1
  0003e	7f d9		 jg	 SHORT $LL3@Sort_heap
$LN1@Sort_heap:
  00040	5f		 pop	 edi

; 2703 : 	}

  00041	5d		 pop	 ebp
  00042	c3		 ret	 0
??$_Sort_heap@PAUChangeDirInfo@@VChangeDirSort@@@std@@YAXPAUChangeDirInfo@@0VChangeDirSort@@@Z ENDP ; std::_Sort_heap<ChangeDirInfo *,ChangeDirSort>
_TEXT	ENDS
PUBLIC	??1?$vector@UChangeDirInfo@@V?$allocator@UChangeDirInfo@@@std@@@std@@QAE@XZ ; std::vector<ChangeDirInfo,std::allocator<ChangeDirInfo> >::~vector<ChangeDirInfo,std::allocator<ChangeDirInfo> >
; Function compile flags: /Ogsp
; File c:\program files (x86)\microsoft visual studio 10.0\vc\include\vector
;	COMDAT ??1?$vector@UChangeDirInfo@@V?$allocator@UChangeDirInfo@@@std@@@std@@QAE@XZ
_TEXT	SEGMENT
??1?$vector@UChangeDirInfo@@V?$allocator@UChangeDirInfo@@@std@@@std@@QAE@XZ PROC ; std::vector<ChangeDirInfo,std::allocator<ChangeDirInfo> >::~vector<ChangeDirInfo,std::allocator<ChangeDirInfo> >, COMDAT
; _this$ = ecx

; 705  : 		_Tidy();

  00000	e9 00 00 00 00	 jmp	 ?_Tidy@?$vector@UChangeDirInfo@@V?$allocator@UChangeDirInfo@@@std@@@std@@IAEXXZ ; std::vector<ChangeDirInfo,std::allocator<ChangeDirInfo> >::_Tidy
??1?$vector@UChangeDirInfo@@V?$allocator@UChangeDirInfo@@@std@@@std@@QAE@XZ ENDP ; std::vector<ChangeDirInfo,std::allocator<ChangeDirInfo> >::~vector<ChangeDirInfo,std::allocator<ChangeDirInfo> >
_TEXT	ENDS
PUBLIC	?reserve@?$vector@UChangeDirInfo@@V?$allocator@UChangeDirInfo@@@std@@@std@@QAEXI@Z ; std::vector<ChangeDirInfo,std::allocator<ChangeDirInfo> >::reserve
EXTRN	__EH_prolog3_catch:PROC
;	COMDAT xdata$x
; File c:\program files (x86)\microsoft visual studio 10.0\vc\include\xmemory
xdata$x	SEGMENT
__catchsym$?reserve@?$vector@UChangeDirInfo@@V?$allocator@UChangeDirInfo@@@std@@@std@@QAEXI@Z$2 DD 040H
	DD	00H
	DD	00H
	DD	FLAT:__catch$?reserve@?$vector@UChangeDirInfo@@V?$allocator@UChangeDirInfo@@@std@@@std@@QAEXI@Z$0
__unwindtable$?reserve@?$vector@UChangeDirInfo@@V?$allocator@UChangeDirInfo@@@std@@@std@@QAEXI@Z DD 0ffffffffH
	DD	00H
	DD	0ffffffffH
	DD	00H
__tryblocktable$?reserve@?$vector@UChangeDirInfo@@V?$allocator@UChangeDirInfo@@@std@@@std@@QAEXI@Z DD 00H
	DD	00H
	DD	01H
	DD	01H
	DD	FLAT:__catchsym$?reserve@?$vector@UChangeDirInfo@@V?$allocator@UChangeDirInfo@@@std@@@std@@QAEXI@Z$2
__ehfuncinfo$?reserve@?$vector@UChangeDirInfo@@V?$allocator@UChangeDirInfo@@@std@@@std@@QAEXI@Z DD 019930522H
	DD	02H
	DD	FLAT:__unwindtable$?reserve@?$vector@UChangeDirInfo@@V?$allocator@UChangeDirInfo@@@std@@@std@@QAEXI@Z
	DD	01H
	DD	FLAT:__tryblocktable$?reserve@?$vector@UChangeDirInfo@@V?$allocator@UChangeDirInfo@@@std@@@std@@QAEXI@Z
	DD	2 DUP(00H)
	DD	00H
	DD	01H
; Function compile flags: /Ogsp
; File c:\program files (x86)\microsoft visual studio 10.0\vc\include\vector
xdata$x	ENDS
;	COMDAT ?reserve@?$vector@UChangeDirInfo@@V?$allocator@UChangeDirInfo@@@std@@@std@@QAEXI@Z
_TEXT	SEGMENT
__$EHRec$ = -16						; size = 16
__Ptr$532214 = 8					; size = 4
__Count$ = 8						; size = 4
?reserve@?$vector@UChangeDirInfo@@V?$allocator@UChangeDirInfo@@@std@@@std@@QAEXI@Z PROC ; std::vector<ChangeDirInfo,std::allocator<ChangeDirInfo> >::reserve, COMDAT
; _this$ = ecx

; 746  : 		{	// determine new minimum length of allocated storage

  00000	6a 04		 push	 4
  00002	b8 00 00 00 00	 mov	 eax, __ehhandler$?reserve@?$vector@UChangeDirInfo@@V?$allocator@UChangeDirInfo@@@std@@@std@@QAEXI@Z
  00007	e8 00 00 00 00	 call	 __EH_prolog3_catch
  0000c	8b f1		 mov	 esi, ecx

; 747  : 		if (max_size() < _Count)

  0000e	8b 5d 08	 mov	 ebx, DWORD PTR __Count$[ebp]
  00011	81 fb 49 92 24
	09		 cmp	 ebx, 153391689		; 09249249H
  00017	76 0b		 jbe	 SHORT $LN5@reserve

; 748  : 			_Xlen();	// result too long

  00019	68 00 00 00 00	 push	 OFFSET ??_C@_0BD@OLBABOEK@vector?$DMT?$DO?5too?5long?$AA@
  0001e	ff 15 00 00 00
	00		 call	 DWORD PTR __imp_?_Xlength_error@std@@YAXPBD@Z
$LN56@reserve:
$LN5@reserve:

; 749  : 		else if (capacity() < _Count)

  00024	8b 46 08	 mov	 eax, DWORD PTR [esi+8]
  00027	2b 06		 sub	 eax, DWORD PTR [esi]
  00029	6a 1c		 push	 28			; 0000001cH
  0002b	99		 cdq
  0002c	59		 pop	 ecx
  0002d	f7 f9		 idiv	 ecx
  0002f	3b c3		 cmp	 eax, ebx
  00031	73 6b		 jae	 SHORT $LN3@reserve

; 750  : 			{	// not enough room, reallocate
; 751  : 			pointer _Ptr = this->_Alval.allocate(_Count);

  00033	6a 00		 push	 0
  00035	53		 push	 ebx
  00036	e8 00 00 00 00	 call	 ??$_Allocate@UChangeDirInfo@@@std@@YAPAUChangeDirInfo@@IPAU1@@Z ; std::_Allocate<ChangeDirInfo>

; 752  : 
; 753  : 			_TRY_BEGIN
; 754  : 			_Umove(this->_Myfirst, this->_Mylast, _Ptr);

  0003b	8b 0e		 mov	 ecx, DWORD PTR [esi]
  0003d	83 65 fc 00	 and	 DWORD PTR __$EHRec$[ebp+12], 0
  00041	8d 56 0c	 lea	 edx, DWORD PTR [esi+12]
  00044	52		 push	 edx
  00045	89 45 08	 mov	 DWORD PTR __Ptr$532214[ebp], eax
  00048	ff 75 08	 push	 DWORD PTR __Ptr$532214[ebp]
  0004b	8b 46 04	 mov	 eax, DWORD PTR [esi+4]
  0004e	50		 push	 eax
  0004f	51		 push	 ecx
  00050	e8 00 00 00 00	 call	 ??$_Uninitialized_move@PAUChangeDirInfo@@PAU1@V?$allocator@UChangeDirInfo@@@std@@@std@@YAPAUChangeDirInfo@@PAU1@00AAV?$allocator@UChangeDirInfo@@@0@@Z ; std::_Uninitialized_move<ChangeDirInfo *,ChangeDirInfo *,std::allocator<ChangeDirInfo> >

; 758  : 			_CATCH_END
; 759  : 
; 760  : 			size_type _Size = size();

  00055	8b 0e		 mov	 ecx, DWORD PTR [esi]
  00057	8b 46 04	 mov	 eax, DWORD PTR [esi+4]
  0005a	83 c4 18	 add	 esp, 24			; 00000018H
  0005d	2b c1		 sub	 eax, ecx
  0005f	6a 1c		 push	 28			; 0000001cH
  00061	99		 cdq
  00062	5f		 pop	 edi
  00063	f7 ff		 idiv	 edi
  00065	83 4d fc ff	 or	 DWORD PTR __$EHRec$[ebp+12], -1
  00069	8b f8		 mov	 edi, eax
  0006b	85 c9		 test	 ecx, ecx
  0006d	74 12		 je	 SHORT $LN48@reserve

; 761  : 			if (this->_Myfirst != 0)

  0006f	eb 03		 jmp	 SHORT $LN55@reserve

; 762  : 				{	// destroy and deallocate old array
; 763  : 				_Destroy(this->_Myfirst, this->_Mylast);

$LL39@reserve:
  00071	83 c1 1c	 add	 ecx, 28			; 0000001cH
$LN55@reserve:
  00074	3b 4e 04	 cmp	 ecx, DWORD PTR [esi+4]
  00077	75 f8		 jne	 SHORT $LL39@reserve

; 764  : 				this->_Alval.deallocate(this->_Myfirst,
; 765  : 					this->_Myend - this->_Myfirst);

  00079	ff 36		 push	 DWORD PTR [esi]
  0007b	e8 00 00 00 00	 call	 ??3@YAXPAX@Z		; operator delete
  00080	59		 pop	 ecx
$LN48@reserve:

; 766  : 				}
; 767  : 
; 768  : 			this->_Orphan_all();

  00081	8b ce		 mov	 ecx, esi
  00083	ff 15 00 00 00
	00		 call	 DWORD PTR __imp_?_Orphan_all@_Container_base0@std@@QAEXXZ

; 769  : 			this->_Myend = _Ptr + _Count;

  00089	6b db 1c	 imul	 ebx, 28			; 0000001cH

; 770  : 			this->_Mylast = _Ptr + _Size;

  0008c	6b ff 1c	 imul	 edi, 28			; 0000001cH
  0008f	8b 45 08	 mov	 eax, DWORD PTR __Ptr$532214[ebp]
  00092	03 d8		 add	 ebx, eax
  00094	03 f8		 add	 edi, eax
  00096	89 5e 08	 mov	 DWORD PTR [esi+8], ebx
  00099	89 7e 04	 mov	 DWORD PTR [esi+4], edi

; 771  : 			this->_Myfirst = _Ptr;

  0009c	89 06		 mov	 DWORD PTR [esi], eax
$LN3@reserve:

; 772  : 			}
; 773  : 		}

  0009e	e8 00 00 00 00	 call	 __EH_epilog3
  000a3	c2 04 00	 ret	 4
__catch$?reserve@?$vector@UChangeDirInfo@@V?$allocator@UChangeDirInfo@@@std@@@std@@QAEXI@Z$0:

; 755  : 			_CATCH_ALL
; 756  : 			this->_Alval.deallocate(_Ptr, _Count);

  000a6	ff 75 08	 push	 DWORD PTR __Ptr$532214[ebp]
  000a9	e8 00 00 00 00	 call	 ??3@YAXPAX@Z		; operator delete
  000ae	59		 pop	 ecx

; 757  : 			_RERAISE;

  000af	6a 00		 push	 0
  000b1	6a 00		 push	 0
  000b3	e8 00 00 00 00	 call	 __CxxThrowException@8
$LN57@reserve:
$LN54@reserve:
  000b8	cc		 int	 3
_TEXT	ENDS
;	COMDAT text$x
text$x	SEGMENT
__ehhandler$?reserve@?$vector@UChangeDirInfo@@V?$allocator@UChangeDirInfo@@@std@@@std@@QAEXI@Z:
  00000	8b 54 24 08	 mov	 edx, DWORD PTR [esp+8]
  00004	8d 42 0c	 lea	 eax, DWORD PTR [edx+12]
  00007	8b 4a ec	 mov	 ecx, DWORD PTR [edx-20]
  0000a	33 c8		 xor	 ecx, eax
  0000c	e8 00 00 00 00	 call	 @__security_check_cookie@4
  00011	b8 00 00 00 00	 mov	 eax, OFFSET __ehfuncinfo$?reserve@?$vector@UChangeDirInfo@@V?$allocator@UChangeDirInfo@@@std@@@std@@QAEXI@Z
  00016	e9 00 00 00 00	 jmp	 ___CxxFrameHandler3
text$x	ENDS
?reserve@?$vector@UChangeDirInfo@@V?$allocator@UChangeDirInfo@@@std@@@std@@QAEXI@Z ENDP ; std::vector<ChangeDirInfo,std::allocator<ChangeDirInfo> >::reserve
PUBLIC	?erase@?$vector@UChangeDirInfo@@V?$allocator@UChangeDirInfo@@@std@@@std@@QAE?AV?$_Vector_iterator@V?$_Vector_val@UChangeDirInfo@@V?$allocator@UChangeDirInfo@@@std@@@std@@@2@V?$_Vector_const_iterator@V?$_Vector_val@UChangeDirInfo@@V?$allocator@UChangeDirInfo@@@std@@@std@@@2@@Z ; std::vector<ChangeDirInfo,std::allocator<ChangeDirInfo> >::erase
; Function compile flags: /Ogsp
;	COMDAT ?erase@?$vector@UChangeDirInfo@@V?$allocator@UChangeDirInfo@@@std@@@std@@QAE?AV?$_Vector_iterator@V?$_Vector_val@UChangeDirInfo@@V?$allocator@UChangeDirInfo@@@std@@@std@@@2@V?$_Vector_const_iterator@V?$_Vector_val@UChangeDirInfo@@V?$allocator@UChangeDirInfo@@@std@@@std@@@2@@Z
_TEXT	SEGMENT
___$ReturnUdt$ = 8					; size = 4
__Cat$538278 = 12					; size = 1
__Where$ = 12						; size = 4
?erase@?$vector@UChangeDirInfo@@V?$allocator@UChangeDirInfo@@@std@@@std@@QAE?AV?$_Vector_iterator@V?$_Vector_val@UChangeDirInfo@@V?$allocator@UChangeDirInfo@@@std@@@std@@@2@V?$_Vector_const_iterator@V?$_Vector_val@UChangeDirInfo@@V?$allocator@UChangeDirInfo@@@std@@@std@@@2@@Z PROC ; std::vector<ChangeDirInfo,std::allocator<ChangeDirInfo> >::erase, COMDAT
; _this$ = ecx

; 1179 : 		{	// erase element at where

  00000	55		 push	 ebp
  00001	8b ec		 mov	 ebp, esp

; 1180 : 		_Move(_VIPTR(_Where) + 1, this->_Mylast,
; 1181 : 			_VIPTR(_Where));

  00003	8b 45 0c	 mov	 eax, DWORD PTR __Where$[ebp]
  00006	56		 push	 esi
  00007	ff 75 0c	 push	 DWORD PTR __Cat$538278[ebp]
  0000a	8b f1		 mov	 esi, ecx
  0000c	50		 push	 eax
  0000d	ff 76 04	 push	 DWORD PTR [esi+4]
  00010	83 c0 1c	 add	 eax, 28			; 0000001cH
  00013	50		 push	 eax
  00014	e8 00 00 00 00	 call	 ??$_Move@PAUChangeDirInfo@@PAU1@@std@@YAPAUChangeDirInfo@@PAU1@00U_Nonscalar_ptr_iterator_tag@0@@Z ; std::_Move<ChangeDirInfo *,ChangeDirInfo *>

; 1182 : 		_Destroy(this->_Mylast - 1, this->_Mylast);
; 1183 : 		--this->_Mylast;
; 1184 : 		return (_Make_iter(_Where));

  00019	8b 45 08	 mov	 eax, DWORD PTR ___$ReturnUdt$[ebp]
  0001c	8b 4d 0c	 mov	 ecx, DWORD PTR __Where$[ebp]
  0001f	83 c4 10	 add	 esp, 16			; 00000010H
  00022	83 46 04 e4	 add	 DWORD PTR [esi+4], -28	; ffffffe4H
  00026	89 08		 mov	 DWORD PTR [eax], ecx
  00028	5e		 pop	 esi

; 1185 : 		}

  00029	5d		 pop	 ebp
  0002a	c2 08 00	 ret	 8
?erase@?$vector@UChangeDirInfo@@V?$allocator@UChangeDirInfo@@@std@@@std@@QAE?AV?$_Vector_iterator@V?$_Vector_val@UChangeDirInfo@@V?$allocator@UChangeDirInfo@@@std@@@std@@@2@V?$_Vector_const_iterator@V?$_Vector_val@UChangeDirInfo@@V?$allocator@UChangeDirInfo@@@std@@@std@@@2@@Z ENDP ; std::vector<ChangeDirInfo,std::allocator<ChangeDirInfo> >::erase
_TEXT	ENDS
PUBLIC	?erase@?$vector@UChangeDirInfo@@V?$allocator@UChangeDirInfo@@@std@@@std@@QAE?AV?$_Vector_iterator@V?$_Vector_val@UChangeDirInfo@@V?$allocator@UChangeDirInfo@@@std@@@std@@@2@V?$_Vector_const_iterator@V?$_Vector_val@UChangeDirInfo@@V?$allocator@UChangeDirInfo@@@std@@@std@@@2@0@Z ; std::vector<ChangeDirInfo,std::allocator<ChangeDirInfo> >::erase
; Function compile flags: /Ogsp
;	COMDAT ?erase@?$vector@UChangeDirInfo@@V?$allocator@UChangeDirInfo@@@std@@@std@@QAE?AV?$_Vector_iterator@V?$_Vector_val@UChangeDirInfo@@V?$allocator@UChangeDirInfo@@@std@@@std@@@2@V?$_Vector_const_iterator@V?$_Vector_val@UChangeDirInfo@@V?$allocator@UChangeDirInfo@@@std@@@std@@@2@0@Z
_TEXT	SEGMENT
___$ReturnUdt$ = 8					; size = 4
__First_arg$ = 12					; size = 4
__Cat$538453 = 16					; size = 1
__Last_arg$ = 16					; size = 4
?erase@?$vector@UChangeDirInfo@@V?$allocator@UChangeDirInfo@@@std@@@std@@QAE?AV?$_Vector_iterator@V?$_Vector_val@UChangeDirInfo@@V?$allocator@UChangeDirInfo@@@std@@@std@@@2@V?$_Vector_const_iterator@V?$_Vector_val@UChangeDirInfo@@V?$allocator@UChangeDirInfo@@@std@@@std@@@2@0@Z PROC ; std::vector<ChangeDirInfo,std::allocator<ChangeDirInfo> >::erase, COMDAT
; _this$ = ecx

; 1190 : 		{	// erase [_First, _Last)

  00000	55		 push	 ebp
  00001	8b ec		 mov	 ebp, esp

; 1191 : 		iterator _First = _Make_iter(_First_arg);

  00003	8b 45 0c	 mov	 eax, DWORD PTR __First_arg$[ebp]
  00006	56		 push	 esi
  00007	57		 push	 edi
  00008	8b 7d 08	 mov	 edi, DWORD PTR ___$ReturnUdt$[ebp]
  0000b	8b f1		 mov	 esi, ecx
  0000d	89 07		 mov	 DWORD PTR [edi], eax

; 1192 : 		iterator _Last = _Make_iter(_Last_arg);
; 1193 : 
; 1194 : 		if (_First != _Last)

  0000f	3b 45 10	 cmp	 eax, DWORD PTR __Last_arg$[ebp]
  00012	74 16		 je	 SHORT $LN1@erase

; 1195 : 			{	// worth doing, copy down over hole
; 1196 :  #if _ITERATOR_DEBUG_LEVEL == 2
; 1197 : 			if (_Last < _First || _VICONT(_First) != this
; 1198 : 				|| _VIPTR(_First) < this->_Myfirst
; 1199 : 				|| this->_Mylast < _VIPTR(_Last))
; 1200 : 				_DEBUG_ERROR("vector erase iterator outside range");
; 1201 : 			pointer _Ptr = _Move(_VIPTR(_Last), this->_Mylast,
; 1202 : 				_VIPTR(_First));
; 1203 : 			_Orphan_range(_VIPTR(_First), this->_Mylast);
; 1204 : 
; 1205 :  #else /* _ITERATOR_DEBUG_LEVEL == 2 */
; 1206 : 			pointer _Ptr = _Move(_VIPTR(_Last), this->_Mylast,
; 1207 : 				_VIPTR(_First));

  00014	ff 75 10	 push	 DWORD PTR __Cat$538453[ebp]
  00017	8b 4e 04	 mov	 ecx, DWORD PTR [esi+4]
  0001a	50		 push	 eax
  0001b	51		 push	 ecx
  0001c	ff 75 10	 push	 DWORD PTR __Last_arg$[ebp]
  0001f	e8 00 00 00 00	 call	 ??$_Move@PAUChangeDirInfo@@PAU1@@std@@YAPAUChangeDirInfo@@PAU1@00U_Nonscalar_ptr_iterator_tag@0@@Z ; std::_Move<ChangeDirInfo *,ChangeDirInfo *>
  00024	83 c4 10	 add	 esp, 16			; 00000010H

; 1208 :  #endif /* _ITERATOR_DEBUG_LEVEL == 2 */
; 1209 : 
; 1210 : 			_Destroy(_Ptr, this->_Mylast);
; 1211 : 			this->_Mylast = _Ptr;

  00027	89 46 04	 mov	 DWORD PTR [esi+4], eax
$LN1@erase:

; 1212 : 			}
; 1213 : 		return (_First);

  0002a	8b c7		 mov	 eax, edi
  0002c	5f		 pop	 edi
  0002d	5e		 pop	 esi

; 1214 : 		}

  0002e	5d		 pop	 ebp
  0002f	c2 0c 00	 ret	 12			; 0000000cH
?erase@?$vector@UChangeDirInfo@@V?$allocator@UChangeDirInfo@@@std@@@std@@QAE?AV?$_Vector_iterator@V?$_Vector_val@UChangeDirInfo@@V?$allocator@UChangeDirInfo@@@std@@@std@@@2@V?$_Vector_const_iterator@V?$_Vector_val@UChangeDirInfo@@V?$allocator@UChangeDirInfo@@@std@@@std@@@2@0@Z ENDP ; std::vector<ChangeDirInfo,std::allocator<ChangeDirInfo> >::erase
_TEXT	ENDS
PUBLIC	?_Reserve@?$vector@UChangeDirInfo@@V?$allocator@UChangeDirInfo@@@std@@@std@@IAEXI@Z ; std::vector<ChangeDirInfo,std::allocator<ChangeDirInfo> >::_Reserve
; Function compile flags: /Ogsp
;	COMDAT ?_Reserve@?$vector@UChangeDirInfo@@V?$allocator@UChangeDirInfo@@@std@@@std@@IAEXI@Z
_TEXT	SEGMENT
__Count$ = 8						; size = 4
?_Reserve@?$vector@UChangeDirInfo@@V?$allocator@UChangeDirInfo@@@std@@@std@@IAEXI@Z PROC ; std::vector<ChangeDirInfo,std::allocator<ChangeDirInfo> >::_Reserve, COMDAT
; _this$ = ecx

; 1290 : 		{	// ensure room for _Count new elements, grow exponentially

  00000	55		 push	 ebp
  00001	8b ec		 mov	 ebp, esp
  00003	56		 push	 esi
  00004	8b f1		 mov	 esi, ecx

; 1291 : 		size_type _Size = size();

  00006	8b 0e		 mov	 ecx, DWORD PTR [esi]
  00008	8b 46 04	 mov	 eax, DWORD PTR [esi+4]
  0000b	2b c1		 sub	 eax, ecx
  0000d	57		 push	 edi
  0000e	99		 cdq
  0000f	6a 1c		 push	 28			; 0000001cH
  00011	5f		 pop	 edi
  00012	f7 ff		 idiv	 edi
  00014	8b f8		 mov	 edi, eax

; 1292 : 		if (max_size() - _Count < _Size)

  00016	b8 49 92 24 09	 mov	 eax, 153391689		; 09249249H
  0001b	2b 45 08	 sub	 eax, DWORD PTR __Count$[ebp]
  0001e	3b c7		 cmp	 eax, edi
  00020	73 0b		 jae	 SHORT $LN4@Reserve

; 1293 : 			_Xlen();

  00022	68 00 00 00 00	 push	 OFFSET ??_C@_0BD@OLBABOEK@vector?$DMT?$DO?5too?5long?$AA@
  00027	ff 15 00 00 00
	00		 call	 DWORD PTR __imp_?_Xlength_error@std@@YAXPBD@Z
$LN21@Reserve:
$LN4@Reserve:

; 1294 : 		else if ((_Size += _Count) <= capacity())

  0002d	8b 46 08	 mov	 eax, DWORD PTR [esi+8]
  00030	2b c1		 sub	 eax, ecx
  00032	6a 1c		 push	 28			; 0000001cH
  00034	99		 cdq
  00035	59		 pop	 ecx
  00036	f7 f9		 idiv	 ecx
  00038	03 7d 08	 add	 edi, DWORD PTR __Count$[ebp]
  0003b	3b f8		 cmp	 edi, eax
  0003d	76 10		 jbe	 SHORT $LN1@Reserve

; 1295 : 			;
; 1296 : 		else
; 1297 : 			reserve(_Grow_to(_Size));

  0003f	57		 push	 edi
  00040	8b ce		 mov	 ecx, esi
  00042	e8 00 00 00 00	 call	 ?_Grow_to@?$vector@UChangeDirInfo@@V?$allocator@UChangeDirInfo@@@std@@@std@@IBEII@Z ; std::vector<ChangeDirInfo,std::allocator<ChangeDirInfo> >::_Grow_to
  00047	50		 push	 eax
  00048	8b ce		 mov	 ecx, esi
  0004a	e8 00 00 00 00	 call	 ?reserve@?$vector@UChangeDirInfo@@V?$allocator@UChangeDirInfo@@@std@@@std@@QAEXI@Z ; std::vector<ChangeDirInfo,std::allocator<ChangeDirInfo> >::reserve
$LN1@Reserve:
  0004f	5f		 pop	 edi
  00050	5e		 pop	 esi

; 1298 : 		}

  00051	5d		 pop	 ebp
  00052	c2 04 00	 ret	 4
$LN20@Reserve:
?_Reserve@?$vector@UChangeDirInfo@@V?$allocator@UChangeDirInfo@@@std@@@std@@IAEXI@Z ENDP ; std::vector<ChangeDirInfo,std::allocator<ChangeDirInfo> >::_Reserve
_TEXT	ENDS
PUBLIC	??$sort_heap@PAUChangeDirInfo@@VChangeDirSort@@@std@@YAXPAUChangeDirInfo@@0VChangeDirSort@@@Z ; std::sort_heap<ChangeDirInfo *,ChangeDirSort>
; Function compile flags: /Ogsp
; File c:\program files (x86)\microsoft visual studio 10.0\vc\include\algorithm
;	COMDAT ??$sort_heap@PAUChangeDirInfo@@VChangeDirSort@@@std@@YAXPAUChangeDirInfo@@0VChangeDirSort@@@Z
_TEXT	SEGMENT
__First$ = 8						; size = 4
__Last$ = 12						; size = 4
__Pred$ = 16						; size = 1
??$sort_heap@PAUChangeDirInfo@@VChangeDirSort@@@std@@YAXPAUChangeDirInfo@@0VChangeDirSort@@@Z PROC ; std::sort_heap<ChangeDirInfo *,ChangeDirSort>, COMDAT

; 2708 : 	{	// order heap by repeatedly popping, using _Pred

  00000	55		 push	 ebp
  00001	8b ec		 mov	 ebp, esp

; 2709 : 	_DEBUG_RANGE(_First, _Last);
; 2710 : 	_DEBUG_POINTER(_Pred);
; 2711 : 	_DEBUG_HEAP_PRED(_First, _Last, _Pred);
; 2712 : 	_Sort_heap(_Unchecked(_First), _Unchecked(_Last), _Pred);

  00003	ff 75 10	 push	 DWORD PTR __Pred$[ebp]
  00006	ff 75 0c	 push	 DWORD PTR __Last$[ebp]
  00009	ff 75 08	 push	 DWORD PTR __First$[ebp]
  0000c	e8 00 00 00 00	 call	 ??$_Sort_heap@PAUChangeDirInfo@@VChangeDirSort@@@std@@YAXPAUChangeDirInfo@@0VChangeDirSort@@@Z ; std::_Sort_heap<ChangeDirInfo *,ChangeDirSort>
  00011	83 c4 0c	 add	 esp, 12			; 0000000cH

; 2713 : 	}

  00014	5d		 pop	 ebp
  00015	c3		 ret	 0
??$sort_heap@PAUChangeDirInfo@@VChangeDirSort@@@std@@YAXPAUChangeDirInfo@@0VChangeDirSort@@@Z ENDP ; std::sort_heap<ChangeDirInfo *,ChangeDirSort>
_TEXT	ENDS
PUBLIC	??_7ioTraceWeapon6@@6B@				; ioTraceWeapon6::`vftable'
PUBLIC	??0ioTraceWeapon6@@QAE@PAVioBaseChar@@PBUWeaponAttribute@@@Z ; ioTraceWeapon6::ioTraceWeapon6
PUBLIC	??_R4ioTraceWeapon6@@6B@			; ioTraceWeapon6::`RTTI Complete Object Locator'
PUBLIC	??_R0?AVioTraceWeapon6@@@8			; ioTraceWeapon6 `RTTI Type Descriptor'
PUBLIC	??_R3ioTraceWeapon6@@8				; ioTraceWeapon6::`RTTI Class Hierarchy Descriptor'
PUBLIC	??_R2ioTraceWeapon6@@8				; ioTraceWeapon6::`RTTI Base Class Array'
PUBLIC	??_R1A@?0A@EA@ioTraceWeapon6@@8			; ioTraceWeapon6::`RTTI Base Class Descriptor at (0,-1,0,64)'
PUBLIC	??_R1A@?0A@EA@ioWeapon@@8			; ioWeapon::`RTTI Base Class Descriptor at (0,-1,0,64)'
PUBLIC	??_R0?AVioWeapon@@@8				; ioWeapon `RTTI Type Descriptor'
PUBLIC	??_R3ioWeapon@@8				; ioWeapon::`RTTI Class Hierarchy Descriptor'
PUBLIC	??_R2ioWeapon@@8				; ioWeapon::`RTTI Base Class Array'
PUBLIC	?LoadProperty@ioTraceWeapon6@@UAEXAAVioINILoader@@@Z ; ioTraceWeapon6::LoadProperty
PUBLIC	?Process@ioTraceWeapon6@@UAEXMPAVioPlayStage@@@Z ; ioTraceWeapon6::Process
EXTRN	__imp_??1ioOrientBox@@QAE@XZ:PROC
EXTRN	??1ioWeapon@@UAE@XZ:PROC			; ioWeapon::~ioWeapon
EXTRN	?SetPeculiarity@ioWeapon@@QAEXK@Z:PROC		; ioWeapon::SetPeculiarity
EXTRN	__imp_??0ioOrientBox@@QAE@XZ:PROC
EXTRN	??0ioWeapon@@QAE@PAVioBaseChar@@PBUWeaponAttribute@@@Z:PROC ; ioWeapon::ioWeapon
EXTRN	?IsAlreadyCollisioned@ioWeapon@@UAE_NPAVioPlayEntity@@@Z:PROC ; ioWeapon::IsAlreadyCollisioned
EXTRN	?AddCollisionEntity@ioWeapon@@UAEXPAVioPlayEntity@@@Z:PROC ; ioWeapon::AddCollisionEntity
EXTRN	?SetOwnerDamageRate@ioWeapon@@UAEXM@Z:PROC	; ioWeapon::SetOwnerDamageRate
EXTRN	?SetOwnerChargeDamageRate@ioWeapon@@UAEXM@Z:PROC ; ioWeapon::SetOwnerChargeDamageRate
EXTRN	?SetOwnerChargeForceRate@ioWeapon@@UAEXM@Z:PROC	; ioWeapon::SetOwnerChargeForceRate
EXTRN	?SetOwnerChargeRangeRate@ioWeapon@@UAEXM@Z:PROC	; ioWeapon::SetOwnerChargeRangeRate
EXTRN	?SetOwnerChargeSpeedRate@ioWeapon@@UAEXM@Z:PROC	; ioWeapon::SetOwnerChargeSpeedRate
EXTRN	?SetOwnerChargeBlowRate@ioWeapon@@UAEXM@Z:PROC	; ioWeapon::SetOwnerChargeBlowRate
EXTRN	?SetOwnerChargeFloatRate@ioWeapon@@UAEXM@Z:PROC	; ioWeapon::SetOwnerChargeFloatRate
EXTRN	?SetOwnerChargeExplosionRate@ioWeapon@@UAEXM@Z:PROC ; ioWeapon::SetOwnerChargeExplosionRate
EXTRN	?SetOwnerChargeWoundedTimeRate@ioWeapon@@UAEXM@Z:PROC ; ioWeapon::SetOwnerChargeWoundedTimeRate
EXTRN	?SetOwnerChargeLiveTimeRate@ioWeapon@@UAEXM@Z:PROC ; ioWeapon::SetOwnerChargeLiveTimeRate
EXTRN	?SetOwnerChargeBuffLiveTimeRate@ioWeapon@@UAEXM@Z:PROC ; ioWeapon::SetOwnerChargeBuffLiveTimeRate
EXTRN	?SetWeaponIndex@ioWeapon@@UAEXK@Z:PROC		; ioWeapon::SetWeaponIndex
EXTRN	?SetGrapplingTargetName@ioWeapon@@UAEXABVioHashString@@@Z:PROC ; ioWeapon::SetGrapplingTargetName
EXTRN	?SetCreateItem@ioWeapon@@UAEXABVioHashString@@@Z:PROC ; ioWeapon::SetCreateItem
EXTRN	?SetTeam@ioWeapon@@UAEXPAVioPlayStage@@W4TeamType@@@Z:PROC ; ioWeapon::SetTeam
EXTRN	?CallReserveAreaWeapon@ioWeapon@@UAEXXZ:PROC	; ioWeapon::CallReserveAreaWeapon
EXTRN	?PlayExplosionSound@ioWeapon@@UAEXXZ:PROC	; ioWeapon::PlayExplosionSound
EXTRN	?PlayWoundedSound@ioWeapon@@UAEXPAVioPlayEntity@@@Z:PROC ; ioWeapon::PlayWoundedSound
EXTRN	?PlayDefensedSound@ioWeapon@@UAEXPAVioPlayEntity@@@Z:PROC ; ioWeapon::PlayDefensedSound
EXTRN	?PlayLoopSound@ioWeapon@@UAEXXZ:PROC		; ioWeapon::PlayLoopSound
EXTRN	?StopLoopSound@ioWeapon@@UAEXXZ:PROC		; ioWeapon::StopLoopSound
EXTRN	?GetTargetAirBuffList@ioWeapon@@UBEABV?$vector@UBuffInfoStruct@@V?$allocator@UBuffInfoStruct@@@std@@@std@@XZ:PROC ; ioWeapon::GetTargetAirBuffList
EXTRN	?GetTargetBuffList@ioWeapon@@UBEABV?$vector@UBuffInfoStruct@@V?$allocator@UBuffInfoStruct@@@std@@@std@@XZ:PROC ; ioWeapon::GetTargetBuffList
EXTRN	?GetTargetDownBuffList@ioWeapon@@UBEABV?$vector@UBuffInfoStruct@@V?$allocator@UBuffInfoStruct@@@std@@@std@@XZ:PROC ; ioWeapon::GetTargetDownBuffList
EXTRN	?GetPosition@ioWeapon@@UBEABUD3DXVECTOR3@@XZ:PROC ; ioWeapon::GetPosition
EXTRN	?GetBlowType@ioWeapon@@UBE?AW4BlowTargetType@@XZ:PROC ; ioWeapon::GetBlowType
EXTRN	?GetPushPower@ioWeapon@@UBEMM@Z:PROC		; ioWeapon::GetPushPower
EXTRN	?GetBlowPower@ioWeapon@@UBEMM@Z:PROC		; ioWeapon::GetBlowPower
EXTRN	?GetAirPushPower@ioWeapon@@UBEMM@Z:PROC		; ioWeapon::GetAirPushPower
EXTRN	?GetAirBlowPower@ioWeapon@@UBEMM@Z:PROC		; ioWeapon::GetAirBlowPower
EXTRN	?GetDefensePushPower@ioWeapon@@UBEMM@Z:PROC	; ioWeapon::GetDefensePushPower
EXTRN	?SetSylphid@ioWeapon@@UAEHXZ:PROC		; ioWeapon::SetSylphid
EXTRN	?ApplyExtraReserveWeaponByWeaponInfo@ioWeapon@@UAEXPAV1@@Z:PROC ; ioWeapon::ApplyExtraReserveWeaponByWeaponInfo
EXTRN	?SetResistanceAttr@ioWeapon@@UAEXH@Z:PROC	; ioWeapon::SetResistanceAttr
EXTRN	?SetStartCollisionBox@ioWeapon@@UAEXXZ:PROC	; ioWeapon::SetStartCollisionBox
EXTRN	?SetMoveSpeed@ioWeapon@@UAEXM@Z:PROC		; ioWeapon::SetMoveSpeed
EXTRN	?SetFloatPower@ioWeapon@@UAEXM@Z:PROC		; ioWeapon::SetFloatPower
EXTRN	?CheckPreCollision@ioWeapon@@UAEXPAVioPlayEntity@@PAVioPlayStage@@@Z:PROC ; ioWeapon::CheckPreCollision
EXTRN	?CheckStructAndDummy@ioWeapon@@UAEXPAVioPlayEntity@@PAVioPlayStage@@@Z:PROC ; ioWeapon::CheckStructAndDummy
EXTRN	?GetDamage@ioWeapon@@UAEMPAVioPlayEntity@@@Z:PROC ; ioWeapon::GetDamage
EXTRN	?GetBaseDamage@ioWeapon@@UAEMPAVioPlayEntity@@@Z:PROC ; ioWeapon::GetBaseDamage
EXTRN	?GetPushAngle@ioWeapon@@UBEMXZ:PROC		; ioWeapon::GetPushAngle
EXTRN	?IsResistanceMagic@ioWeapon@@UAEHPAVioBaseChar@@@Z:PROC ; ioWeapon::IsResistanceMagic
EXTRN	?IsResistanceBomb@ioWeapon@@UAEHPAVioBaseChar@@@Z:PROC ; ioWeapon::IsResistanceBomb
EXTRN	?IsCanMineExplosion@ioWeapon@@UAE_NXZ:PROC	; ioWeapon::IsCanMineExplosion
EXTRN	?CheckGrapplingState@ioWeapon@@UAE?AW4GrapplingType@@XZ:PROC ; ioWeapon::CheckGrapplingState
EXTRN	?CheckCurAttribute@ioWeapon@@UAEXPBVioPlayEntity@@@Z:PROC ; ioWeapon::CheckCurAttribute
EXTRN	?CheckItemNotDrop@ioWeapon@@UAE_NPAVioBaseChar@@@Z:PROC ; ioWeapon::CheckItemNotDrop
EXTRN	?GetWorldAttackBoxList@ioWeapon@@UAEXAAV?$vector@VioOrientBox@@V?$allocator@VioOrientBox@@@std@@@std@@@Z:PROC ; ioWeapon::GetWorldAttackBoxList
EXTRN	?GetAttackDir@ioWeapon@@UBE?AUD3DXVECTOR3@@PBVioPlayEntity@@@Z:PROC ; ioWeapon::GetAttackDir
EXTRN	?GetLiveTime@ioWeapon@@UAEKXZ:PROC		; ioWeapon::GetLiveTime
EXTRN	?GetMoveDir@ioWeapon@@UAE?AUD3DXVECTOR3@@XZ:PROC ; ioWeapon::GetMoveDir
EXTRN	?CheckWeaponCollision@ioWeapon@@UAEXXZ:PROC	; ioWeapon::CheckWeaponCollision
EXTRN	?GetRefreshDuration@ioWeapon@@UAEKXZ:PROC	; ioWeapon::GetRefreshDuration
EXTRN	?GetIgnoreDuration@ioWeapon@@UAEKXZ:PROC	; ioWeapon::GetIgnoreDuration
EXTRN	?GetIgnoreTimeTypeDuration@ioWeapon@@UAEKXZ:PROC ; ioWeapon::GetIgnoreTimeTypeDuration
EXTRN	?GetIgnoreTimeType@ioWeapon@@UAEKXZ:PROC	; ioWeapon::GetIgnoreTimeType
EXTRN	?ApplyWeaponSync@ioWeapon@@UAEXAAVSP2Packet@@PAVioPlayStage@@@Z:PROC ; ioWeapon::ApplyWeaponSync
EXTRN	?IsSkillDependency@ioWeapon@@UAE_NABVioHashString@@@Z:PROC ; ioWeapon::IsSkillDependency
EXTRN	?SetSkillDependencyAction@ioWeapon@@UAEXXZ:PROC	; ioWeapon::SetSkillDependencyAction
EXTRN	?GetAttribute@ioWeapon@@MBEPBUWeaponAttribute@@XZ:PROC ; ioWeapon::GetAttribute
EXTRN	?CalcFinalDamage@ioWeapon@@MAEMXZ:PROC		; ioWeapon::CalcFinalDamage
EXTRN	?CalcFinalBoundDamage@ioWeapon@@MAEMXZ:PROC	; ioWeapon::CalcFinalBoundDamage
EXTRN	?CheckPiercing@ioWeapon@@MAE_N_N@Z:PROC		; ioWeapon::CheckPiercing
EXTRN	?ClearCollisionList@ioWeapon@@MAEXXZ:PROC	; ioWeapon::ClearCollisionList
EXTRN	?CheckCreateWeaponList@ioWeapon@@MAEXXZ:PROC	; ioWeapon::CheckCreateWeaponList
EXTRN	?CreateCollisionAreaWeapon@ioWeapon@@MAEXXZ:PROC ; ioWeapon::CreateCollisionAreaWeapon
EXTRN	?SetMapCollision@ioWeapon@@UAEXXZ:PROC		; ioWeapon::SetMapCollision
EXTRN	?IsIgnoreMapCollision@ioWeapon@@UBE_NXZ:PROC	; ioWeapon::IsIgnoreMapCollision
EXTRN	?IsIgnoreMapCollisionEffect@ioWeapon@@UBE_NXZ:PROC ; ioWeapon::IsIgnoreMapCollisionEffect
EXTRN	?AddEffectEvent@ioWeapon@@MAEXPAVioEffect@@@Z:PROC ; ioWeapon::AddEffectEvent
EXTRN	??_EioTraceWeapon6@@UAEPAXI@Z:PROC		; ioTraceWeapon6::`vector deleting destructor'
;	COMDAT ??_R2ioWeapon@@8
; File c:\program files (x86)\microsoft directx sdk (june 2010)\include\d3dx9math.h
rdata$r	SEGMENT
??_R2ioWeapon@@8 DD FLAT:??_R1A@?0A@EA@ioWeapon@@8	; ioWeapon::`RTTI Base Class Array'
rdata$r	ENDS
;	COMDAT ??_R3ioWeapon@@8
rdata$r	SEGMENT
??_R3ioWeapon@@8 DD 00H					; ioWeapon::`RTTI Class Hierarchy Descriptor'
	DD	00H
	DD	01H
	DD	FLAT:??_R2ioWeapon@@8
rdata$r	ENDS
;	COMDAT ??_R0?AVioWeapon@@@8
_DATA	SEGMENT
??_R0?AVioWeapon@@@8 DD FLAT:??_7type_info@@6B@		; ioWeapon `RTTI Type Descriptor'
	DD	00H
	DB	'.?AVioWeapon@@', 00H
_DATA	ENDS
;	COMDAT ??_R1A@?0A@EA@ioWeapon@@8
rdata$r	SEGMENT
??_R1A@?0A@EA@ioWeapon@@8 DD FLAT:??_R0?AVioWeapon@@@8	; ioWeapon::`RTTI Base Class Descriptor at (0,-1,0,64)'
	DD	00H
	DD	00H
	DD	0ffffffffH
	DD	00H
	DD	040H
	DD	FLAT:??_R3ioWeapon@@8
rdata$r	ENDS
;	COMDAT ??_R1A@?0A@EA@ioTraceWeapon6@@8
rdata$r	SEGMENT
??_R1A@?0A@EA@ioTraceWeapon6@@8 DD FLAT:??_R0?AVioTraceWeapon6@@@8 ; ioTraceWeapon6::`RTTI Base Class Descriptor at (0,-1,0,64)'
	DD	01H
	DD	00H
	DD	0ffffffffH
	DD	00H
	DD	040H
	DD	FLAT:??_R3ioTraceWeapon6@@8
rdata$r	ENDS
;	COMDAT ??_R2ioTraceWeapon6@@8
rdata$r	SEGMENT
??_R2ioTraceWeapon6@@8 DD FLAT:??_R1A@?0A@EA@ioTraceWeapon6@@8 ; ioTraceWeapon6::`RTTI Base Class Array'
	DD	FLAT:??_R1A@?0A@EA@ioWeapon@@8
rdata$r	ENDS
;	COMDAT ??_R3ioTraceWeapon6@@8
rdata$r	SEGMENT
??_R3ioTraceWeapon6@@8 DD 00H				; ioTraceWeapon6::`RTTI Class Hierarchy Descriptor'
	DD	00H
	DD	02H
	DD	FLAT:??_R2ioTraceWeapon6@@8
rdata$r	ENDS
;	COMDAT ??_R0?AVioTraceWeapon6@@@8
_DATA	SEGMENT
??_R0?AVioTraceWeapon6@@@8 DD FLAT:??_7type_info@@6B@	; ioTraceWeapon6 `RTTI Type Descriptor'
	DD	00H
	DB	'.?AVioTraceWeapon6@@', 00H
_DATA	ENDS
;	COMDAT ??_R4ioTraceWeapon6@@6B@
rdata$r	SEGMENT
??_R4ioTraceWeapon6@@6B@ DD 00H				; ioTraceWeapon6::`RTTI Complete Object Locator'
	DD	00H
	DD	00H
	DD	FLAT:??_R0?AVioTraceWeapon6@@@8
	DD	FLAT:??_R3ioTraceWeapon6@@8
rdata$r	ENDS
;	COMDAT ??_7ioTraceWeapon6@@6B@
CONST	SEGMENT
??_7ioTraceWeapon6@@6B@ DD FLAT:??_R4ioTraceWeapon6@@6B@ ; ioTraceWeapon6::`vftable'
	DD	FLAT:?IsAlreadyCollisioned@ioWeapon@@UAE_NPAVioPlayEntity@@@Z
	DD	FLAT:?AddCollisionEntity@ioWeapon@@UAEXPAVioPlayEntity@@@Z
	DD	FLAT:?SetOwnerDamageRate@ioWeapon@@UAEXM@Z
	DD	FLAT:?SetOwnerChargeDamageRate@ioWeapon@@UAEXM@Z
	DD	FLAT:?SetOwnerChargeForceRate@ioWeapon@@UAEXM@Z
	DD	FLAT:?SetOwnerChargeRangeRate@ioWeapon@@UAEXM@Z
	DD	FLAT:?SetOwnerChargeSpeedRate@ioWeapon@@UAEXM@Z
	DD	FLAT:?SetOwnerChargeBlowRate@ioWeapon@@UAEXM@Z
	DD	FLAT:?SetOwnerChargeFloatRate@ioWeapon@@UAEXM@Z
	DD	FLAT:?SetOwnerChargeScaleRate@ioTraceWeapon6@@MAEXM@Z
	DD	FLAT:?SetOwnerChargeExplosionRate@ioWeapon@@UAEXM@Z
	DD	FLAT:?SetOwnerChargeWoundedTimeRate@ioWeapon@@UAEXM@Z
	DD	FLAT:?SetOwnerChargeLiveTimeRate@ioWeapon@@UAEXM@Z
	DD	FLAT:?SetOwnerChargeBuffLiveTimeRate@ioWeapon@@UAEXM@Z
	DD	FLAT:?SetWeaponIndex@ioWeapon@@UAEXK@Z
	DD	FLAT:?SetGrapplingTargetName@ioWeapon@@UAEXABVioHashString@@@Z
	DD	FLAT:?SetCreateItem@ioWeapon@@UAEXABVioHashString@@@Z
	DD	FLAT:?SetTeam@ioWeapon@@UAEXPAVioPlayStage@@W4TeamType@@@Z
	DD	FLAT:?CallReserveAreaWeapon@ioWeapon@@UAEXXZ
	DD	FLAT:?SetWeaponDead@ioTraceWeapon6@@UAEXXZ
	DD	FLAT:?PlayExplosionSound@ioWeapon@@UAEXXZ
	DD	FLAT:?PlayWoundedSound@ioWeapon@@UAEXPAVioPlayEntity@@@Z
	DD	FLAT:?PlayDefensedSound@ioWeapon@@UAEXPAVioPlayEntity@@@Z
	DD	FLAT:?PlayLoopSound@ioWeapon@@UAEXXZ
	DD	FLAT:?StopLoopSound@ioWeapon@@UAEXXZ
	DD	FLAT:?GetTargetAirBuffList@ioWeapon@@UBEABV?$vector@UBuffInfoStruct@@V?$allocator@UBuffInfoStruct@@@std@@@std@@XZ
	DD	FLAT:?GetTargetBuffList@ioWeapon@@UBEABV?$vector@UBuffInfoStruct@@V?$allocator@UBuffInfoStruct@@@std@@@std@@XZ
	DD	FLAT:?GetTargetDownBuffList@ioWeapon@@UBEABV?$vector@UBuffInfoStruct@@V?$allocator@UBuffInfoStruct@@@std@@@std@@XZ
	DD	FLAT:?GetPosition@ioWeapon@@UBEABUD3DXVECTOR3@@XZ
	DD	FLAT:?GetBlowType@ioWeapon@@UBE?AW4BlowTargetType@@XZ
	DD	FLAT:?GetPushPower@ioWeapon@@UBEMM@Z
	DD	FLAT:?GetBlowPower@ioWeapon@@UBEMM@Z
	DD	FLAT:?GetAirPushPower@ioWeapon@@UBEMM@Z
	DD	FLAT:?GetAirBlowPower@ioWeapon@@UBEMM@Z
	DD	FLAT:?GetDefensePushPower@ioWeapon@@UBEMM@Z
	DD	FLAT:?GetCollisionEnableTime@ioTraceWeapon6@@UBEKXZ
	DD	FLAT:?SetSylphid@ioWeapon@@UAEHXZ
	DD	FLAT:?ApplyExtraReserveWeaponByWeaponInfo@ioWeapon@@UAEXPAV1@@Z
	DD	FLAT:?InitResource@ioTraceWeapon6@@UAE_NXZ
	DD	FLAT:?DestroyResource@ioTraceWeapon6@@UAEXPAVioPlayStage@@@Z
	DD	FLAT:?LoadProperty@ioTraceWeapon6@@UAEXAAVioINILoader@@@Z
	DD	FLAT:?SetResistanceAttr@ioWeapon@@UAEXH@Z
	DD	FLAT:?SetStartCollisionBox@ioWeapon@@UAEXXZ
	DD	FLAT:?SetLiveTime@ioTraceWeapon6@@UAEXK@Z
	DD	FLAT:?SetMoveDir@ioTraceWeapon6@@UAEXABUD3DXVECTOR3@@@Z
	DD	FLAT:?SetMoveSpeed@ioWeapon@@UAEXM@Z
	DD	FLAT:?SetFloatPower@ioWeapon@@UAEXM@Z
	DD	FLAT:?SetStartPosition@ioTraceWeapon6@@UAEXABUD3DXVECTOR3@@PAVioPlayStage@@@Z
	DD	FLAT:?Process@ioTraceWeapon6@@UAEXMPAVioPlayStage@@@Z
	DD	FLAT:?IsCollision@ioTraceWeapon6@@UAE_NPAVioPlayEntity@@_N@Z
	DD	FLAT:?TestMapCollision@ioTraceWeapon6@@UAE_NPAVioOpcodeShape@@PAVioPlayStage@@PBUD3DXMATRIX@@@Z
	DD	FLAT:?CheckPreCollision@ioWeapon@@UAEXPAVioPlayEntity@@PAVioPlayStage@@@Z
	DD	FLAT:?CheckStructAndDummy@ioWeapon@@UAEXPAVioPlayEntity@@PAVioPlayStage@@@Z
	DD	FLAT:?GetDamage@ioWeapon@@UAEMPAVioPlayEntity@@@Z
	DD	FLAT:?GetBaseDamage@ioWeapon@@UAEMPAVioPlayEntity@@@Z
	DD	FLAT:?GetPushAngle@ioWeapon@@UBEMXZ
	DD	FLAT:?IsResistanceMagic@ioWeapon@@UAEHPAVioBaseChar@@@Z
	DD	FLAT:?IsResistanceBomb@ioWeapon@@UAEHPAVioBaseChar@@@Z
	DD	FLAT:?IsCanMineExplosion@ioWeapon@@UAE_NXZ
	DD	FLAT:?CheckGrapplingState@ioWeapon@@UAE?AW4GrapplingType@@XZ
	DD	FLAT:?CheckCurAttribute@ioWeapon@@UAEXPBVioPlayEntity@@@Z
	DD	FLAT:?CheckItemNotDrop@ioWeapon@@UAE_NPAVioBaseChar@@@Z
	DD	FLAT:?GetWorldAttackBoxList@ioWeapon@@UAEXAAV?$vector@VioOrientBox@@V?$allocator@VioOrientBox@@@std@@@std@@@Z
	DD	FLAT:?GetAttackDir@ioWeapon@@UBE?AUD3DXVECTOR3@@PBVioPlayEntity@@@Z
	DD	FLAT:?GetLocalAttackBox@ioTraceWeapon6@@UBEABVioOrientBox@@XZ
	DD	FLAT:?GetLiveTime@ioWeapon@@UAEKXZ
	DD	FLAT:?GetMoveDir@ioWeapon@@UAE?AUD3DXVECTOR3@@XZ
	DD	FLAT:?CheckWeaponCollision@ioWeapon@@UAEXXZ
	DD	FLAT:?GetType@ioTraceWeapon6@@UBE?AW4WeaponType@ioWeapon@@XZ
	DD	FLAT:?GetActionStopType@ioTraceWeapon6@@UBE?AW4ActionStopType@@XZ
	DD	FLAT:?GetDieActionStopType@ioTraceWeapon6@@UBE?AW4ActionStopType@@XZ
	DD	FLAT:?GetRefreshDuration@ioWeapon@@UAEKXZ
	DD	FLAT:?GetIgnoreDuration@ioWeapon@@UAEKXZ
	DD	FLAT:?GetIgnoreTimeTypeDuration@ioWeapon@@UAEKXZ
	DD	FLAT:?GetIgnoreTimeType@ioWeapon@@UAEKXZ
	DD	FLAT:?ApplyWeaponSync@ioWeapon@@UAEXAAVSP2Packet@@PAVioPlayStage@@@Z
	DD	FLAT:?IsSkillDependency@ioWeapon@@UAE_NABVioHashString@@@Z
	DD	FLAT:?SetSkillDependencyAction@ioWeapon@@UAEXXZ
	DD	FLAT:?UpdateWorldAttackBox@ioTraceWeapon6@@MAEXM_N@Z
	DD	FLAT:?GetAttribute@ioWeapon@@MBEPBUWeaponAttribute@@XZ
	DD	FLAT:?CalcFinalDamage@ioWeapon@@MAEMXZ
	DD	FLAT:?CalcFinalBoundDamage@ioWeapon@@MAEMXZ
	DD	FLAT:?CheckPiercing@ioWeapon@@MAE_N_N@Z
	DD	FLAT:?ClearCollisionList@ioWeapon@@MAEXXZ
	DD	FLAT:?CheckCreateWeaponList@ioWeapon@@MAEXXZ
	DD	FLAT:?CreateCollisionAreaWeapon@ioWeapon@@MAEXXZ
	DD	FLAT:?SetMapCollision@ioWeapon@@UAEXXZ
	DD	FLAT:?IsIgnoreMapCollision@ioWeapon@@UBE_NXZ
	DD	FLAT:?IsIgnoreTestMapCollision@ioTraceWeapon6@@UBE_NXZ
	DD	FLAT:?IsIgnoreMapCollisionEffect@ioWeapon@@UBE_NXZ
	DD	FLAT:?AddEffectEvent@ioWeapon@@MAEXPAVioEffect@@@Z
	DD	FLAT:??_EioTraceWeapon6@@UAEPAXI@Z
CONST	ENDS
;	COMDAT xdata$x
xdata$x	SEGMENT
__ehfuncinfo$??0ioTraceWeapon6@@QAE@PAVioBaseChar@@PBUWeaponAttribute@@@Z DD 019930522H
	DD	0dH
	DD	FLAT:__unwindtable$??0ioTraceWeapon6@@QAE@PAVioBaseChar@@PBUWeaponAttribute@@@Z
	DD	2 DUP(00H)
	DD	2 DUP(00H)
	DD	00H
	DD	01H
__unwindtable$??0ioTraceWeapon6@@QAE@PAVioBaseChar@@PBUWeaponAttribute@@@Z DD 0ffffffffH
	DD	FLAT:__unwindfunclet$??0ioTraceWeapon6@@QAE@PAVioBaseChar@@PBUWeaponAttribute@@@Z$0
	DD	00H
	DD	FLAT:__unwindfunclet$??0ioTraceWeapon6@@QAE@PAVioBaseChar@@PBUWeaponAttribute@@@Z$1
	DD	01H
	DD	FLAT:__unwindfunclet$??0ioTraceWeapon6@@QAE@PAVioBaseChar@@PBUWeaponAttribute@@@Z$2
	DD	02H
	DD	FLAT:__unwindfunclet$??0ioTraceWeapon6@@QAE@PAVioBaseChar@@PBUWeaponAttribute@@@Z$3
	DD	03H
	DD	FLAT:__unwindfunclet$??0ioTraceWeapon6@@QAE@PAVioBaseChar@@PBUWeaponAttribute@@@Z$4
	DD	04H
	DD	FLAT:__unwindfunclet$??0ioTraceWeapon6@@QAE@PAVioBaseChar@@PBUWeaponAttribute@@@Z$5
	DD	05H
	DD	FLAT:__unwindfunclet$??0ioTraceWeapon6@@QAE@PAVioBaseChar@@PBUWeaponAttribute@@@Z$6
	DD	06H
	DD	FLAT:__unwindfunclet$??0ioTraceWeapon6@@QAE@PAVioBaseChar@@PBUWeaponAttribute@@@Z$7
	DD	07H
	DD	FLAT:__unwindfunclet$??0ioTraceWeapon6@@QAE@PAVioBaseChar@@PBUWeaponAttribute@@@Z$8
	DD	08H
	DD	FLAT:__unwindfunclet$??0ioTraceWeapon6@@QAE@PAVioBaseChar@@PBUWeaponAttribute@@@Z$9
	DD	09H
	DD	FLAT:__unwindfunclet$??0ioTraceWeapon6@@QAE@PAVioBaseChar@@PBUWeaponAttribute@@@Z$10
	DD	0aH
	DD	FLAT:__unwindfunclet$??0ioTraceWeapon6@@QAE@PAVioBaseChar@@PBUWeaponAttribute@@@Z$11
	DD	0bH
	DD	FLAT:__unwindfunclet$??0ioTraceWeapon6@@QAE@PAVioBaseChar@@PBUWeaponAttribute@@@Z$12
; Function compile flags: /Ogsp
; File d:\lost saga for developer\youtube\tutorial\source\src\lsclient\iotraceweapon6.cpp
xdata$x	ENDS
;	COMDAT ??0ioTraceWeapon6@@QAE@PAVioBaseChar@@PBUWeaponAttribute@@@Z
_TEXT	SEGMENT
_this$ = -16						; size = 4
__$EHRec$ = -12						; size = 12
_pOwner$ = 8						; size = 4
_pAttr$ = 12						; size = 4
??0ioTraceWeapon6@@QAE@PAVioBaseChar@@PBUWeaponAttribute@@@Z PROC ; ioTraceWeapon6::ioTraceWeapon6, COMDAT
; _this$ = ecx

; 15   : {

  00000	6a 04		 push	 4
  00002	b8 00 00 00 00	 mov	 eax, __ehhandler$??0ioTraceWeapon6@@QAE@PAVioBaseChar@@PBUWeaponAttribute@@@Z
  00007	e8 00 00 00 00	 call	 __EH_prolog3
  0000c	8b f1		 mov	 esi, ecx
  0000e	89 75 f0	 mov	 DWORD PTR _this$[ebp], esi
  00011	ff 75 0c	 push	 DWORD PTR _pAttr$[ebp]
  00014	ff 75 08	 push	 DWORD PTR _pOwner$[ebp]
  00017	e8 00 00 00 00	 call	 ??0ioWeapon@@QAE@PAVioBaseChar@@PBUWeaponAttribute@@@Z ; ioWeapon::ioWeapon
  0001c	8b 3d 00 00 00
	00		 mov	 edi, DWORD PTR __imp_??0ioHashString@@QAE@XZ
  00022	33 db		 xor	 ebx, ebx
  00024	8d 8e a4 08 00
	00		 lea	 ecx, DWORD PTR [esi+2212]
  0002a	89 5d fc	 mov	 DWORD PTR __$EHRec$[ebp+8], ebx
  0002d	c7 06 00 00 00
	00		 mov	 DWORD PTR [esi], OFFSET ??_7ioTraceWeapon6@@6B@
  00033	ff d7		 call	 edi
  00035	89 9e b4 08 00
	00		 mov	 DWORD PTR [esi+2228], ebx
  0003b	89 9e b8 08 00
	00		 mov	 DWORD PTR [esi+2232], ebx
  00041	89 9e bc 08 00
	00		 mov	 DWORD PTR [esi+2236], ebx
  00047	8d 8e d8 08 00
	00		 lea	 ecx, DWORD PTR [esi+2264]
  0004d	c6 45 fc 02	 mov	 BYTE PTR __$EHRec$[ebp+8], 2
  00051	e8 00 00 00 00	 call	 ??0?$CEncrypt@M@@QAE@XZ	; CEncrypt<float>::CEncrypt<float>
  00056	8d 8e 08 09 00
	00		 lea	 ecx, DWORD PTR [esi+2312]
  0005c	c6 45 fc 03	 mov	 BYTE PTR __$EHRec$[ebp+8], 3
  00060	e8 00 00 00 00	 call	 ??0?$CEncrypt@M@@QAE@XZ	; CEncrypt<float>::CEncrypt<float>
  00065	8d 8e 3c 09 00
	00		 lea	 ecx, DWORD PTR [esi+2364]
  0006b	c6 45 fc 04	 mov	 BYTE PTR __$EHRec$[ebp+8], 4
  0006f	e8 00 00 00 00	 call	 ??0?$CEncrypt@M@@QAE@XZ	; CEncrypt<float>::CEncrypt<float>
  00074	8d 8e 6c 09 00
	00		 lea	 ecx, DWORD PTR [esi+2412]
  0007a	c6 45 fc 05	 mov	 BYTE PTR __$EHRec$[ebp+8], 5
  0007e	e8 00 00 00 00	 call	 ??0?$CEncrypt@M@@QAE@XZ	; CEncrypt<float>::CEncrypt<float>
  00083	8d 8e 9c 09 00
	00		 lea	 ecx, DWORD PTR [esi+2460]
  00089	c6 45 fc 06	 mov	 BYTE PTR __$EHRec$[ebp+8], 6
  0008d	e8 00 00 00 00	 call	 ??0?$CEncrypt@M@@QAE@XZ	; CEncrypt<float>::CEncrypt<float>
  00092	8d 8e e4 09 00
	00		 lea	 ecx, DWORD PTR [esi+2532]
  00098	c6 45 fc 07	 mov	 BYTE PTR __$EHRec$[ebp+8], 7
  0009c	ff d7		 call	 edi
  0009e	8d 8e f4 09 00
	00		 lea	 ecx, DWORD PTR [esi+2548]
  000a4	c6 45 fc 08	 mov	 BYTE PTR __$EHRec$[ebp+8], 8
  000a8	e8 00 00 00 00	 call	 ??0?$CEncrypt@K@@QAE@XZ	; CEncrypt<unsigned long>::CEncrypt<unsigned long>
  000ad	8d 8e 2c 0a 00
	00		 lea	 ecx, DWORD PTR [esi+2604]
  000b3	c6 45 fc 09	 mov	 BYTE PTR __$EHRec$[ebp+8], 9
  000b7	ff 15 00 00 00
	00		 call	 DWORD PTR __imp_??0ioOrientBox@@QAE@XZ
  000bd	8d 8e 70 0a 00
	00		 lea	 ecx, DWORD PTR [esi+2672]
  000c3	c6 45 fc 0a	 mov	 BYTE PTR __$EHRec$[ebp+8], 10 ; 0000000aH
  000c7	ff d7		 call	 edi
  000c9	8d 8e 80 0a 00
	00		 lea	 ecx, DWORD PTR [esi+2688]
  000cf	c6 45 fc 0b	 mov	 BYTE PTR __$EHRec$[ebp+8], 11 ; 0000000bH
  000d3	e8 00 00 00 00	 call	 ??0?$CEncrypt@M@@QAE@XZ	; CEncrypt<float>::CEncrypt<float>

; 16   : 	SetPeculiarity( WP_ONE_TIME_USE | WP_MISSILE_WEAPON | WP_DIVIDE_ACTION );

  000d8	68 03 01 00 00	 push	 259			; 00000103H
  000dd	8b ce		 mov	 ecx, esi
  000df	c6 45 fc 0c	 mov	 BYTE PTR __$EHRec$[ebp+8], 12 ; 0000000cH
  000e3	e8 00 00 00 00	 call	 ?SetPeculiarity@ioWeapon@@QAEXK@Z ; ioWeapon::SetPeculiarity

; 17   : 
; 18   : 	m_pFireBall = NULL;
; 19   : 	m_State = TS_MOVE;
; 20   : 		
; 21   : 	m_fCurMoveSpeed = 0.0f;

  000e8	0f 57 c0	 xorps	 xmm0, xmm0

; 22   : 	m_fCurMoveRange = 0.0f;
; 23   : 	m_dwSensingStartTime = 0;
; 24   : 
; 25   : 	m_dwTraceEndTime = 0;
; 26   : 
; 27   : 	m_bResistance = false;
; 28   : 
; 29   : 	m_szReturnTargetName.Clear();

  000eb	8d 8e a4 08 00
	00		 lea	 ecx, DWORD PTR [esi+2212]
  000f1	89 9e 28 0a 00
	00		 mov	 DWORD PTR [esi+2600], ebx
  000f7	89 9e 94 08 00
	00		 mov	 DWORD PTR [esi+2196], ebx
  000fd	f3 0f 11 86 c4
	08 00 00	 movss	 DWORD PTR [esi+2244], xmm0
  00105	f3 0f 11 86 c8
	08 00 00	 movss	 DWORD PTR [esi+2248], xmm0
  0010d	89 9e 38 09 00
	00		 mov	 DWORD PTR [esi+2360], ebx
  00113	89 9e 24 0a 00
	00		 mov	 DWORD PTR [esi+2596], ebx
  00119	88 9e 3c 06 00
	00		 mov	 BYTE PTR [esi+1596], bl
  0011f	ff 15 00 00 00
	00		 call	 DWORD PTR __imp_?Clear@ioHashString@@QAEXXZ

; 30   : }

  00125	8b c6		 mov	 eax, esi
  00127	e8 00 00 00 00	 call	 __EH_epilog3
  0012c	c2 08 00	 ret	 8
_TEXT	ENDS
;	COMDAT text$x
text$x	SEGMENT
__unwindfunclet$??0ioTraceWeapon6@@QAE@PAVioBaseChar@@PBUWeaponAttribute@@@Z$0:
  00000	8b 4d f0	 mov	 ecx, DWORD PTR _this$[ebp]
  00003	e9 00 00 00 00	 jmp	 ??1ioWeapon@@UAE@XZ	; ioWeapon::~ioWeapon
__unwindfunclet$??0ioTraceWeapon6@@QAE@PAVioBaseChar@@PBUWeaponAttribute@@@Z$1:
  00008	8b 4d f0	 mov	 ecx, DWORD PTR _this$[ebp]
  0000b	81 c1 a4 08 00
	00		 add	 ecx, 2212		; 000008a4H
  00011	ff 25 00 00 00
	00		 jmp	 DWORD PTR __imp_??1ioHashString@@QAE@XZ
__unwindfunclet$??0ioTraceWeapon6@@QAE@PAVioBaseChar@@PBUWeaponAttribute@@@Z$2:
  00017	8b 4d f0	 mov	 ecx, DWORD PTR _this$[ebp]
  0001a	81 c1 b4 08 00
	00		 add	 ecx, 2228		; 000008b4H
  00020	e9 00 00 00 00	 jmp	 ??1?$vector@UChangeDirInfo@@V?$allocator@UChangeDirInfo@@@std@@@std@@QAE@XZ ; std::vector<ChangeDirInfo,std::allocator<ChangeDirInfo> >::~vector<ChangeDirInfo,std::allocator<ChangeDirInfo> >
__unwindfunclet$??0ioTraceWeapon6@@QAE@PAVioBaseChar@@PBUWeaponAttribute@@@Z$3:
  00025	8b 4d f0	 mov	 ecx, DWORD PTR _this$[ebp]
  00028	81 c1 d8 08 00
	00		 add	 ecx, 2264		; 000008d8H
  0002e	e9 00 00 00 00	 jmp	 ??1?$CEncrypt@M@@UAE@XZ	; CEncrypt<float>::~CEncrypt<float>
__unwindfunclet$??0ioTraceWeapon6@@QAE@PAVioBaseChar@@PBUWeaponAttribute@@@Z$4:
  00033	8b 4d f0	 mov	 ecx, DWORD PTR _this$[ebp]
  00036	81 c1 08 09 00
	00		 add	 ecx, 2312		; 00000908H
  0003c	e9 00 00 00 00	 jmp	 ??1?$CEncrypt@M@@UAE@XZ	; CEncrypt<float>::~CEncrypt<float>
__unwindfunclet$??0ioTraceWeapon6@@QAE@PAVioBaseChar@@PBUWeaponAttribute@@@Z$5:
  00041	8b 4d f0	 mov	 ecx, DWORD PTR _this$[ebp]
  00044	81 c1 3c 09 00
	00		 add	 ecx, 2364		; 0000093cH
  0004a	e9 00 00 00 00	 jmp	 ??1?$CEncrypt@M@@UAE@XZ	; CEncrypt<float>::~CEncrypt<float>
__unwindfunclet$??0ioTraceWeapon6@@QAE@PAVioBaseChar@@PBUWeaponAttribute@@@Z$6:
  0004f	8b 4d f0	 mov	 ecx, DWORD PTR _this$[ebp]
  00052	81 c1 6c 09 00
	00		 add	 ecx, 2412		; 0000096cH
  00058	e9 00 00 00 00	 jmp	 ??1?$CEncrypt@M@@UAE@XZ	; CEncrypt<float>::~CEncrypt<float>
__unwindfunclet$??0ioTraceWeapon6@@QAE@PAVioBaseChar@@PBUWeaponAttribute@@@Z$7:
  0005d	8b 4d f0	 mov	 ecx, DWORD PTR _this$[ebp]
  00060	81 c1 9c 09 00
	00		 add	 ecx, 2460		; 0000099cH
  00066	e9 00 00 00 00	 jmp	 ??1?$CEncrypt@M@@UAE@XZ	; CEncrypt<float>::~CEncrypt<float>
__unwindfunclet$??0ioTraceWeapon6@@QAE@PAVioBaseChar@@PBUWeaponAttribute@@@Z$8:
  0006b	8b 4d f0	 mov	 ecx, DWORD PTR _this$[ebp]
  0006e	81 c1 e4 09 00
	00		 add	 ecx, 2532		; 000009e4H
  00074	ff 25 00 00 00
	00		 jmp	 DWORD PTR __imp_??1ioHashString@@QAE@XZ
__unwindfunclet$??0ioTraceWeapon6@@QAE@PAVioBaseChar@@PBUWeaponAttribute@@@Z$9:
  0007a	8b 4d f0	 mov	 ecx, DWORD PTR _this$[ebp]
  0007d	81 c1 f4 09 00
	00		 add	 ecx, 2548		; 000009f4H
  00083	e9 00 00 00 00	 jmp	 ??1?$CEncrypt@K@@UAE@XZ	; CEncrypt<unsigned long>::~CEncrypt<unsigned long>
__unwindfunclet$??0ioTraceWeapon6@@QAE@PAVioBaseChar@@PBUWeaponAttribute@@@Z$10:
  00088	8b 4d f0	 mov	 ecx, DWORD PTR _this$[ebp]
  0008b	81 c1 2c 0a 00
	00		 add	 ecx, 2604		; 00000a2cH
  00091	ff 25 00 00 00
	00		 jmp	 DWORD PTR __imp_??1ioOrientBox@@QAE@XZ
__unwindfunclet$??0ioTraceWeapon6@@QAE@PAVioBaseChar@@PBUWeaponAttribute@@@Z$11:
  00097	8b 4d f0	 mov	 ecx, DWORD PTR _this$[ebp]
  0009a	81 c1 70 0a 00
	00		 add	 ecx, 2672		; 00000a70H
  000a0	ff 25 00 00 00
	00		 jmp	 DWORD PTR __imp_??1ioHashString@@QAE@XZ
__unwindfunclet$??0ioTraceWeapon6@@QAE@PAVioBaseChar@@PBUWeaponAttribute@@@Z$12:
  000a6	8b 4d f0	 mov	 ecx, DWORD PTR _this$[ebp]
  000a9	81 c1 80 0a 00
	00		 add	 ecx, 2688		; 00000a80H
  000af	e9 00 00 00 00	 jmp	 ??1?$CEncrypt@M@@UAE@XZ	; CEncrypt<float>::~CEncrypt<float>
__ehhandler$??0ioTraceWeapon6@@QAE@PAVioBaseChar@@PBUWeaponAttribute@@@Z:
  000b4	8b 54 24 08	 mov	 edx, DWORD PTR [esp+8]
  000b8	8d 42 0c	 lea	 eax, DWORD PTR [edx+12]
  000bb	8b 4a ec	 mov	 ecx, DWORD PTR [edx-20]
  000be	33 c8		 xor	 ecx, eax
  000c0	e8 00 00 00 00	 call	 @__security_check_cookie@4
  000c5	b8 00 00 00 00	 mov	 eax, OFFSET __ehfuncinfo$??0ioTraceWeapon6@@QAE@PAVioBaseChar@@PBUWeaponAttribute@@@Z
  000ca	e9 00 00 00 00	 jmp	 ___CxxFrameHandler3
text$x	ENDS
??0ioTraceWeapon6@@QAE@PAVioBaseChar@@PBUWeaponAttribute@@@Z ENDP ; ioTraceWeapon6::ioTraceWeapon6
PUBLIC	??_C@_0DG@CMJFFOBI@ioTraceWeapon6?3?3?$HOioTraceWeapon6?5@ ; `string'
PUBLIC	??1ioTraceWeapon6@@UAE@XZ			; ioTraceWeapon6::~ioTraceWeapon6
EXTRN	__imp_?PrintTimeAndLog@CLog@@QAAXHPADZZ:PROC
EXTRN	__imp_?LOG@@3VCLog@@A:BYTE
;	COMDAT ??_C@_0DG@CMJFFOBI@ioTraceWeapon6?3?3?$HOioTraceWeapon6?5@
; File c:\program files (x86)\microsoft visual studio 10.0\vc\include\vector
CONST	SEGMENT
??_C@_0DG@CMJFFOBI@ioTraceWeapon6?3?3?$HOioTraceWeapon6?5@ DB 'ioTraceWea'
	DB	'pon6::~ioTraceWeapon6 - UnReleased Resource', 00H ; `string'
CONST	ENDS
;	COMDAT xdata$x
xdata$x	SEGMENT
__ehfuncinfo$??1ioTraceWeapon6@@UAE@XZ DD 019930522H
	DD	0dH
	DD	FLAT:__unwindtable$??1ioTraceWeapon6@@UAE@XZ
	DD	2 DUP(00H)
	DD	2 DUP(00H)
	DD	00H
	DD	01H
__unwindtable$??1ioTraceWeapon6@@UAE@XZ DD 0ffffffffH
	DD	FLAT:__unwindfunclet$??1ioTraceWeapon6@@UAE@XZ$0
	DD	00H
	DD	FLAT:__unwindfunclet$??1ioTraceWeapon6@@UAE@XZ$1
	DD	01H
	DD	FLAT:__unwindfunclet$??1ioTraceWeapon6@@UAE@XZ$2
	DD	02H
	DD	FLAT:__unwindfunclet$??1ioTraceWeapon6@@UAE@XZ$3
	DD	03H
	DD	FLAT:__unwindfunclet$??1ioTraceWeapon6@@UAE@XZ$4
	DD	04H
	DD	FLAT:__unwindfunclet$??1ioTraceWeapon6@@UAE@XZ$5
	DD	05H
	DD	FLAT:__unwindfunclet$??1ioTraceWeapon6@@UAE@XZ$6
	DD	06H
	DD	FLAT:__unwindfunclet$??1ioTraceWeapon6@@UAE@XZ$7
	DD	07H
	DD	FLAT:__unwindfunclet$??1ioTraceWeapon6@@UAE@XZ$8
	DD	08H
	DD	FLAT:__unwindfunclet$??1ioTraceWeapon6@@UAE@XZ$9
	DD	09H
	DD	FLAT:__unwindfunclet$??1ioTraceWeapon6@@UAE@XZ$10
	DD	0aH
	DD	FLAT:__unwindfunclet$??1ioTraceWeapon6@@UAE@XZ$11
	DD	0bH
	DD	FLAT:__unwindfunclet$??1ioTraceWeapon6@@UAE@XZ$12
; Function compile flags: /Ogsp
; File d:\lost saga for developer\youtube\tutorial\source\src\lsclient\iotraceweapon6.cpp
xdata$x	ENDS
;	COMDAT ??1ioTraceWeapon6@@UAE@XZ
_TEXT	SEGMENT
_this$ = -16						; size = 4
__$EHRec$ = -12						; size = 12
??1ioTraceWeapon6@@UAE@XZ PROC				; ioTraceWeapon6::~ioTraceWeapon6, COMDAT
; _this$ = ecx

; 33   : {

  00000	6a 04		 push	 4
  00002	b8 00 00 00 00	 mov	 eax, __ehhandler$??1ioTraceWeapon6@@UAE@XZ
  00007	e8 00 00 00 00	 call	 __EH_prolog3
  0000c	8b f1		 mov	 esi, ecx
  0000e	89 75 f0	 mov	 DWORD PTR _this$[ebp], esi
  00011	c7 06 00 00 00
	00		 mov	 DWORD PTR [esi], OFFSET ??_7ioTraceWeapon6@@6B@

; 34   : 	if( m_pFireBall )

  00017	83 be 28 0a 00
	00 00		 cmp	 DWORD PTR [esi+2600], 0
  0001e	c7 45 fc 0c 00
	00 00		 mov	 DWORD PTR __$EHRec$[ebp+8], 12 ; 0000000cH
  00025	74 16		 je	 SHORT $LN1@ioTraceWea

; 35   : 	{
; 36   : 		LOG.PrintTimeAndLog( 0, "ioTraceWeapon6::~ioTraceWeapon6 - UnReleased Resource" );

  00027	68 00 00 00 00	 push	 OFFSET ??_C@_0DG@CMJFFOBI@ioTraceWeapon6?3?3?$HOioTraceWeapon6?5@
  0002c	6a 00		 push	 0
  0002e	ff 35 00 00 00
	00		 push	 DWORD PTR __imp_?LOG@@3VCLog@@A
  00034	ff 15 00 00 00
	00		 call	 DWORD PTR __imp_?PrintTimeAndLog@CLog@@QAAXHPADZZ
  0003a	83 c4 0c	 add	 esp, 12			; 0000000cH
$LN1@ioTraceWea:

; 37   : 	}
; 38   : }

  0003d	bf 00 00 00 00	 mov	 edi, OFFSET ??_7?$CEncrypt@M@@6B@
  00042	8d 8e 8c 0a 00
	00		 lea	 ecx, DWORD PTR [esi+2700]
  00048	c6 45 fc 0b	 mov	 BYTE PTR __$EHRec$[ebp+8], 11 ; 0000000bH
  0004c	89 be 80 0a 00
	00		 mov	 DWORD PTR [esi+2688], edi
  00052	e8 00 00 00 00	 call	 ??1ccddaabb@@UAE@XZ	; ccddaabb::~ccddaabb
  00057	8b 1d 00 00 00
	00		 mov	 ebx, DWORD PTR __imp_??1ioHashString@@QAE@XZ
  0005d	8d 8e 70 0a 00
	00		 lea	 ecx, DWORD PTR [esi+2672]
  00063	c6 45 fc 0a	 mov	 BYTE PTR __$EHRec$[ebp+8], 10 ; 0000000aH
  00067	ff d3		 call	 ebx
  00069	8d 8e 2c 0a 00
	00		 lea	 ecx, DWORD PTR [esi+2604]
  0006f	c6 45 fc 09	 mov	 BYTE PTR __$EHRec$[ebp+8], 9
  00073	ff 15 00 00 00
	00		 call	 DWORD PTR __imp_??1ioOrientBox@@QAE@XZ
  00079	8d 8e 00 0a 00
	00		 lea	 ecx, DWORD PTR [esi+2560]
  0007f	c6 45 fc 08	 mov	 BYTE PTR __$EHRec$[ebp+8], 8
  00083	c7 86 f4 09 00
	00 00 00 00 00	 mov	 DWORD PTR [esi+2548], OFFSET ??_7?$CEncrypt@K@@6B@
  0008d	e8 00 00 00 00	 call	 ??1ccddaabb@@UAE@XZ	; ccddaabb::~ccddaabb
  00092	8d 8e e4 09 00
	00		 lea	 ecx, DWORD PTR [esi+2532]
  00098	c6 45 fc 07	 mov	 BYTE PTR __$EHRec$[ebp+8], 7
  0009c	ff d3		 call	 ebx
  0009e	8d 8e a8 09 00
	00		 lea	 ecx, DWORD PTR [esi+2472]
  000a4	c6 45 fc 06	 mov	 BYTE PTR __$EHRec$[ebp+8], 6
  000a8	89 be 9c 09 00
	00		 mov	 DWORD PTR [esi+2460], edi
  000ae	e8 00 00 00 00	 call	 ??1ccddaabb@@UAE@XZ	; ccddaabb::~ccddaabb
  000b3	8d 8e 78 09 00
	00		 lea	 ecx, DWORD PTR [esi+2424]
  000b9	c6 45 fc 05	 mov	 BYTE PTR __$EHRec$[ebp+8], 5
  000bd	89 be 6c 09 00
	00		 mov	 DWORD PTR [esi+2412], edi
  000c3	e8 00 00 00 00	 call	 ??1ccddaabb@@UAE@XZ	; ccddaabb::~ccddaabb
  000c8	8d 8e 48 09 00
	00		 lea	 ecx, DWORD PTR [esi+2376]
  000ce	c6 45 fc 04	 mov	 BYTE PTR __$EHRec$[ebp+8], 4
  000d2	89 be 3c 09 00
	00		 mov	 DWORD PTR [esi+2364], edi
  000d8	e8 00 00 00 00	 call	 ??1ccddaabb@@UAE@XZ	; ccddaabb::~ccddaabb
  000dd	8d 8e 14 09 00
	00		 lea	 ecx, DWORD PTR [esi+2324]
  000e3	c6 45 fc 03	 mov	 BYTE PTR __$EHRec$[ebp+8], 3
  000e7	89 be 08 09 00
	00		 mov	 DWORD PTR [esi+2312], edi
  000ed	e8 00 00 00 00	 call	 ??1ccddaabb@@UAE@XZ	; ccddaabb::~ccddaabb
  000f2	8d 8e e4 08 00
	00		 lea	 ecx, DWORD PTR [esi+2276]
  000f8	c6 45 fc 02	 mov	 BYTE PTR __$EHRec$[ebp+8], 2
  000fc	89 be d8 08 00
	00		 mov	 DWORD PTR [esi+2264], edi
  00102	e8 00 00 00 00	 call	 ??1ccddaabb@@UAE@XZ	; ccddaabb::~ccddaabb
  00107	8d 8e b4 08 00
	00		 lea	 ecx, DWORD PTR [esi+2228]
  0010d	c6 45 fc 01	 mov	 BYTE PTR __$EHRec$[ebp+8], 1
  00111	e8 00 00 00 00	 call	 ?_Tidy@?$vector@UChangeDirInfo@@V?$allocator@UChangeDirInfo@@@std@@@std@@IAEXXZ ; std::vector<ChangeDirInfo,std::allocator<ChangeDirInfo> >::_Tidy
  00116	8d 8e a4 08 00
	00		 lea	 ecx, DWORD PTR [esi+2212]
  0011c	c6 45 fc 00	 mov	 BYTE PTR __$EHRec$[ebp+8], 0
  00120	ff d3		 call	 ebx
  00122	83 4d fc ff	 or	 DWORD PTR __$EHRec$[ebp+8], -1
  00126	8b ce		 mov	 ecx, esi
  00128	e8 00 00 00 00	 call	 ??1ioWeapon@@UAE@XZ	; ioWeapon::~ioWeapon
  0012d	e8 00 00 00 00	 call	 __EH_epilog3
  00132	c3		 ret	 0
_TEXT	ENDS
;	COMDAT text$x
text$x	SEGMENT
__unwindfunclet$??1ioTraceWeapon6@@UAE@XZ$0:
  00000	8b 4d f0	 mov	 ecx, DWORD PTR _this$[ebp]
  00003	e9 00 00 00 00	 jmp	 ??1ioWeapon@@UAE@XZ	; ioWeapon::~ioWeapon
__unwindfunclet$??1ioTraceWeapon6@@UAE@XZ$1:
  00008	8b 4d f0	 mov	 ecx, DWORD PTR _this$[ebp]
  0000b	81 c1 a4 08 00
	00		 add	 ecx, 2212		; 000008a4H
  00011	ff 25 00 00 00
	00		 jmp	 DWORD PTR __imp_??1ioHashString@@QAE@XZ
__unwindfunclet$??1ioTraceWeapon6@@UAE@XZ$2:
  00017	8b 4d f0	 mov	 ecx, DWORD PTR _this$[ebp]
  0001a	81 c1 b4 08 00
	00		 add	 ecx, 2228		; 000008b4H
  00020	e9 00 00 00 00	 jmp	 ??1?$vector@UChangeDirInfo@@V?$allocator@UChangeDirInfo@@@std@@@std@@QAE@XZ ; std::vector<ChangeDirInfo,std::allocator<ChangeDirInfo> >::~vector<ChangeDirInfo,std::allocator<ChangeDirInfo> >
__unwindfunclet$??1ioTraceWeapon6@@UAE@XZ$3:
  00025	8b 4d f0	 mov	 ecx, DWORD PTR _this$[ebp]
  00028	81 c1 d8 08 00
	00		 add	 ecx, 2264		; 000008d8H
  0002e	e9 00 00 00 00	 jmp	 ??1?$CEncrypt@M@@UAE@XZ	; CEncrypt<float>::~CEncrypt<float>
__unwindfunclet$??1ioTraceWeapon6@@UAE@XZ$4:
  00033	8b 4d f0	 mov	 ecx, DWORD PTR _this$[ebp]
  00036	81 c1 08 09 00
	00		 add	 ecx, 2312		; 00000908H
  0003c	e9 00 00 00 00	 jmp	 ??1?$CEncrypt@M@@UAE@XZ	; CEncrypt<float>::~CEncrypt<float>
__unwindfunclet$??1ioTraceWeapon6@@UAE@XZ$5:
  00041	8b 4d f0	 mov	 ecx, DWORD PTR _this$[ebp]
  00044	81 c1 3c 09 00
	00		 add	 ecx, 2364		; 0000093cH
  0004a	e9 00 00 00 00	 jmp	 ??1?$CEncrypt@M@@UAE@XZ	; CEncrypt<float>::~CEncrypt<float>
__unwindfunclet$??1ioTraceWeapon6@@UAE@XZ$6:
  0004f	8b 4d f0	 mov	 ecx, DWORD PTR _this$[ebp]
  00052	81 c1 6c 09 00
	00		 add	 ecx, 2412		; 0000096cH
  00058	e9 00 00 00 00	 jmp	 ??1?$CEncrypt@M@@UAE@XZ	; CEncrypt<float>::~CEncrypt<float>
__unwindfunclet$??1ioTraceWeapon6@@UAE@XZ$7:
  0005d	8b 4d f0	 mov	 ecx, DWORD PTR _this$[ebp]
  00060	81 c1 9c 09 00
	00		 add	 ecx, 2460		; 0000099cH
  00066	e9 00 00 00 00	 jmp	 ??1?$CEncrypt@M@@UAE@XZ	; CEncrypt<float>::~CEncrypt<float>
__unwindfunclet$??1ioTraceWeapon6@@UAE@XZ$8:
  0006b	8b 4d f0	 mov	 ecx, DWORD PTR _this$[ebp]
  0006e	81 c1 e4 09 00
	00		 add	 ecx, 2532		; 000009e4H
  00074	ff 25 00 00 00
	00		 jmp	 DWORD PTR __imp_??1ioHashString@@QAE@XZ
__unwindfunclet$??1ioTraceWeapon6@@UAE@XZ$9:
  0007a	8b 4d f0	 mov	 ecx, DWORD PTR _this$[ebp]
  0007d	81 c1 f4 09 00
	00		 add	 ecx, 2548		; 000009f4H
  00083	e9 00 00 00 00	 jmp	 ??1?$CEncrypt@K@@UAE@XZ	; CEncrypt<unsigned long>::~CEncrypt<unsigned long>
__unwindfunclet$??1ioTraceWeapon6@@UAE@XZ$10:
  00088	8b 4d f0	 mov	 ecx, DWORD PTR _this$[ebp]
  0008b	81 c1 2c 0a 00
	00		 add	 ecx, 2604		; 00000a2cH
  00091	ff 25 00 00 00
	00		 jmp	 DWORD PTR __imp_??1ioOrientBox@@QAE@XZ
__unwindfunclet$??1ioTraceWeapon6@@UAE@XZ$11:
  00097	8b 4d f0	 mov	 ecx, DWORD PTR _this$[ebp]
  0009a	81 c1 70 0a 00
	00		 add	 ecx, 2672		; 00000a70H
  000a0	ff 25 00 00 00
	00		 jmp	 DWORD PTR __imp_??1ioHashString@@QAE@XZ
__unwindfunclet$??1ioTraceWeapon6@@UAE@XZ$12:
  000a6	8b 4d f0	 mov	 ecx, DWORD PTR _this$[ebp]
  000a9	81 c1 80 0a 00
	00		 add	 ecx, 2688		; 00000a80H
  000af	e9 00 00 00 00	 jmp	 ??1?$CEncrypt@M@@UAE@XZ	; CEncrypt<float>::~CEncrypt<float>
__ehhandler$??1ioTraceWeapon6@@UAE@XZ:
  000b4	8b 54 24 08	 mov	 edx, DWORD PTR [esp+8]
  000b8	8d 42 0c	 lea	 eax, DWORD PTR [edx+12]
  000bb	8b 4a ec	 mov	 ecx, DWORD PTR [edx-20]
  000be	33 c8		 xor	 ecx, eax
  000c0	e8 00 00 00 00	 call	 @__security_check_cookie@4
  000c5	b8 00 00 00 00	 mov	 eax, OFFSET __ehfuncinfo$??1ioTraceWeapon6@@UAE@XZ
  000ca	e9 00 00 00 00	 jmp	 ___CxxFrameHandler3
text$x	ENDS
??1ioTraceWeapon6@@UAE@XZ ENDP				; ioTraceWeapon6::~ioTraceWeapon6
PUBLIC	?CheckChangeDir@ioTraceWeapon6@@IAEXXZ		; ioTraceWeapon6::CheckChangeDir
; Function compile flags: /Ogsp
;	COMDAT ?CheckChangeDir@ioTraceWeapon6@@IAEXXZ
_TEXT	SEGMENT
$T538692 = -4						; size = 4
?CheckChangeDir@ioTraceWeapon6@@IAEXXZ PROC		; ioTraceWeapon6::CheckChangeDir, COMDAT
; _this$ = ecx

; 490  : {

  00000	55		 push	 ebp
  00001	8b ec		 mov	 ebp, esp
  00003	51		 push	 ecx
  00004	56		 push	 esi

; 491  : 	if( m_ChangeDirInfoList.empty() ) return;

  00005	8d b1 b4 08 00
	00		 lea	 esi, DWORD PTR [ecx+2228]
  0000b	8b 06		 mov	 eax, DWORD PTR [esi]
  0000d	3b 46 04	 cmp	 eax, DWORD PTR [esi+4]
  00010	74 57		 je	 SHORT $LN2@CheckChang

; 492  : 
; 493  : 	float fChangeRange = m_ChangeDirInfoList[0].m_fChangeRange;
; 494  : 
; 495  : 	if( m_fCurMoveRange >= fChangeRange )

  00012	f3 0f 10 81 c8
	08 00 00	 movss	 xmm0, DWORD PTR [ecx+2248]
  0001a	f3 0f 10 08	 movss	 xmm1, DWORD PTR [eax]
  0001e	0f 5a c0	 cvtps2pd xmm0, xmm0
  00021	0f 5a c9	 cvtps2pd xmm1, xmm1
  00024	66 0f 2f c1	 comisd	 xmm0, xmm1
  00028	72 3f		 jb	 SHORT $LN2@CheckChang

; 496  : 	{
; 497  : 		if( m_ChangeDirInfoList[0].m_fChangeSpeed > 0.0f )

  0002a	f3 0f 10 40 04	 movss	 xmm0, DWORD PTR [eax+4]
  0002f	0f 2f 05 00 00
	00 00		 comiss	 xmm0, DWORD PTR __real@00000000
  00036	76 08		 jbe	 SHORT $LN1@CheckChang

; 498  : 			m_fCurMoveSpeed = m_ChangeDirInfoList[0].m_fChangeSpeed;

  00038	f3 0f 11 81 c4
	08 00 00	 movss	 DWORD PTR [ecx+2244], xmm0
$LN1@CheckChang:

; 499  : 
; 500  : 		RotateMoveDir( m_ChangeDirInfoList[0].m_fChangeAngleH, m_ChangeDirInfoList[0].m_fChangeAngleV );

  00040	f3 0f 10 40 0c	 movss	 xmm0, DWORD PTR [eax+12]
  00045	51		 push	 ecx
  00046	51		 push	 ecx
  00047	f3 0f 11 44 24
	04		 movss	 DWORD PTR [esp+4], xmm0
  0004d	f3 0f 10 40 08	 movss	 xmm0, DWORD PTR [eax+8]
  00052	f3 0f 11 04 24	 movss	 DWORD PTR [esp], xmm0
  00057	e8 00 00 00 00	 call	 ?RotateMoveDir@ioTraceWeapon6@@IAEXMM@Z ; ioTraceWeapon6::RotateMoveDir

; 501  : 		m_ChangeDirInfoList.erase( m_ChangeDirInfoList.begin() );

  0005c	ff 36		 push	 DWORD PTR [esi]
  0005e	8d 45 fc	 lea	 eax, DWORD PTR $T538692[ebp]
  00061	50		 push	 eax
  00062	8b ce		 mov	 ecx, esi
  00064	e8 00 00 00 00	 call	 ?erase@?$vector@UChangeDirInfo@@V?$allocator@UChangeDirInfo@@@std@@@std@@QAE?AV?$_Vector_iterator@V?$_Vector_val@UChangeDirInfo@@V?$allocator@UChangeDirInfo@@@std@@@std@@@2@V?$_Vector_const_iterator@V?$_Vector_val@UChangeDirInfo@@V?$allocator@UChangeDirInfo@@@std@@@std@@@2@@Z ; std::vector<ChangeDirInfo,std::allocator<ChangeDirInfo> >::erase
$LN2@CheckChang:
  00069	5e		 pop	 esi

; 502  : 	}
; 503  : }

  0006a	c9		 leave
  0006b	c3		 ret	 0
?CheckChangeDir@ioTraceWeapon6@@IAEXXZ ENDP		; ioTraceWeapon6::CheckChangeDir
_TEXT	ENDS
PUBLIC	?push_back@?$vector@UChangeDirInfo@@V?$allocator@UChangeDirInfo@@@std@@@std@@QAEXABUChangeDirInfo@@@Z ; std::vector<ChangeDirInfo,std::allocator<ChangeDirInfo> >::push_back
; Function compile flags: /Ogsp
; File c:\program files (x86)\microsoft visual studio 10.0\vc\include\vector
;	COMDAT ?push_back@?$vector@UChangeDirInfo@@V?$allocator@UChangeDirInfo@@@std@@@std@@QAEXABUChangeDirInfo@@@Z
_TEXT	SEGMENT
__Val$ = 8						; size = 4
?push_back@?$vector@UChangeDirInfo@@V?$allocator@UChangeDirInfo@@@std@@@std@@QAEXABUChangeDirInfo@@@Z PROC ; std::vector<ChangeDirInfo,std::allocator<ChangeDirInfo> >::push_back, COMDAT
; _this$ = ecx

; 976  : 		{	// insert element at end

  00000	55		 push	 ebp
  00001	8b ec		 mov	 ebp, esp
  00003	56		 push	 esi
  00004	8b f1		 mov	 esi, ecx

; 977  : 		if (_Inside(_STD addressof(_Val)))

  00006	8b 4e 04	 mov	 ecx, DWORD PTR [esi+4]
  00009	57		 push	 edi
  0000a	8b 7d 08	 mov	 edi, DWORD PTR __Val$[ebp]
  0000d	3b f9		 cmp	 edi, ecx
  0000f	73 34		 jae	 SHORT $LN4@push_back
  00011	8b 16		 mov	 edx, DWORD PTR [esi]
  00013	3b d7		 cmp	 edx, edi
  00015	77 2e		 ja	 SHORT $LN4@push_back

; 978  : 			{	// push back an element
; 979  : 			size_type _Idx = _STD addressof(_Val) - this->_Myfirst;

  00017	8b c7		 mov	 eax, edi
  00019	2b c2		 sub	 eax, edx
  0001b	6a 1c		 push	 28			; 0000001cH
  0001d	99		 cdq
  0001e	5f		 pop	 edi
  0001f	f7 ff		 idiv	 edi
  00021	8b f8		 mov	 edi, eax

; 980  : 			if (this->_Mylast == this->_Myend)

  00023	3b 4e 08	 cmp	 ecx, DWORD PTR [esi+8]
  00026	75 09		 jne	 SHORT $LN3@push_back

; 981  : 				_Reserve(1);

  00028	6a 01		 push	 1
  0002a	8b ce		 mov	 ecx, esi
  0002c	e8 00 00 00 00	 call	 ?_Reserve@?$vector@UChangeDirInfo@@V?$allocator@UChangeDirInfo@@@std@@@std@@IAEXI@Z ; std::vector<ChangeDirInfo,std::allocator<ChangeDirInfo> >::_Reserve
$LN3@push_back:

; 982  : 			_Orphan_range(this->_Mylast, this->_Mylast);
; 983  : 			_Cons_val(this->_Alval,
; 984  : 				this->_Mylast,
; 985  : 				this->_Myfirst[_Idx]);

  00031	6b ff 1c	 imul	 edi, 28			; 0000001cH
  00034	03 3e		 add	 edi, DWORD PTR [esi]
  00036	8d 46 0c	 lea	 eax, DWORD PTR [esi+12]
  00039	57		 push	 edi
  0003a	ff 76 04	 push	 DWORD PTR [esi+4]
  0003d	50		 push	 eax
  0003e	e8 00 00 00 00	 call	 ??$_Cons_val@V?$allocator@UChangeDirInfo@@@std@@UChangeDirInfo@@AAU3@@std@@YAXAAV?$allocator@UChangeDirInfo@@@0@PAUChangeDirInfo@@AAU2@@Z ; std::_Cons_val<std::allocator<ChangeDirInfo>,ChangeDirInfo,ChangeDirInfo &>

; 986  : 			++this->_Mylast;
; 987  : 			}
; 988  : 		else

  00043	eb 1b		 jmp	 SHORT $LN20@push_back
$LN4@push_back:

; 989  : 			{	// push back a non-element
; 990  : 			if (this->_Mylast == this->_Myend)

  00045	3b 4e 08	 cmp	 ecx, DWORD PTR [esi+8]
  00048	75 09		 jne	 SHORT $LN1@push_back

; 991  : 				_Reserve(1);

  0004a	6a 01		 push	 1
  0004c	8b ce		 mov	 ecx, esi
  0004e	e8 00 00 00 00	 call	 ?_Reserve@?$vector@UChangeDirInfo@@V?$allocator@UChangeDirInfo@@@std@@@std@@IAEXI@Z ; std::vector<ChangeDirInfo,std::allocator<ChangeDirInfo> >::_Reserve
$LN1@push_back:

; 992  : 			_Orphan_range(this->_Mylast, this->_Mylast);
; 993  : 			_Cons_val(this->_Alval,
; 994  : 				this->_Mylast,
; 995  : 				_Val);

  00053	57		 push	 edi
  00054	ff 76 04	 push	 DWORD PTR [esi+4]
  00057	8d 46 0c	 lea	 eax, DWORD PTR [esi+12]
  0005a	50		 push	 eax
  0005b	e8 00 00 00 00	 call	 ??$_Cons_val@V?$allocator@UChangeDirInfo@@@std@@UChangeDirInfo@@ABU3@@std@@YAXAAV?$allocator@UChangeDirInfo@@@0@PAUChangeDirInfo@@ABU2@@Z ; std::_Cons_val<std::allocator<ChangeDirInfo>,ChangeDirInfo,ChangeDirInfo const &>
$LN20@push_back:
  00060	83 c4 0c	 add	 esp, 12			; 0000000cH

; 996  : 			++this->_Mylast;

  00063	83 46 04 1c	 add	 DWORD PTR [esi+4], 28	; 0000001cH
  00067	5f		 pop	 edi
  00068	5e		 pop	 esi

; 997  : 			}
; 998  : 		}

  00069	5d		 pop	 ebp
  0006a	c2 04 00	 ret	 4
?push_back@?$vector@UChangeDirInfo@@V?$allocator@UChangeDirInfo@@@std@@@std@@QAEXABUChangeDirInfo@@@Z ENDP ; std::vector<ChangeDirInfo,std::allocator<ChangeDirInfo> >::push_back
_TEXT	ENDS
PUBLIC	?clear@?$vector@UChangeDirInfo@@V?$allocator@UChangeDirInfo@@@std@@@std@@QAEXXZ ; std::vector<ChangeDirInfo,std::allocator<ChangeDirInfo> >::clear
; Function compile flags: /Ogsp
;	COMDAT ?clear@?$vector@UChangeDirInfo@@V?$allocator@UChangeDirInfo@@@std@@@std@@QAEXXZ
_TEXT	SEGMENT
$T538766 = -4						; size = 4
?clear@?$vector@UChangeDirInfo@@V?$allocator@UChangeDirInfo@@@std@@@std@@QAEXXZ PROC ; std::vector<ChangeDirInfo,std::allocator<ChangeDirInfo> >::clear, COMDAT
; _this$ = ecx

; 1217 : 		{	// erase all

  00000	55		 push	 ebp
  00001	8b ec		 mov	 ebp, esp
  00003	51		 push	 ecx

; 1218 : 		erase(begin(), end());

  00004	8b 41 04	 mov	 eax, DWORD PTR [ecx+4]
  00007	8b 11		 mov	 edx, DWORD PTR [ecx]
  00009	50		 push	 eax
  0000a	52		 push	 edx
  0000b	8d 45 fc	 lea	 eax, DWORD PTR $T538766[ebp]
  0000e	50		 push	 eax
  0000f	e8 00 00 00 00	 call	 ?erase@?$vector@UChangeDirInfo@@V?$allocator@UChangeDirInfo@@@std@@@std@@QAE?AV?$_Vector_iterator@V?$_Vector_val@UChangeDirInfo@@V?$allocator@UChangeDirInfo@@@std@@@std@@@2@V?$_Vector_const_iterator@V?$_Vector_val@UChangeDirInfo@@V?$allocator@UChangeDirInfo@@@std@@@std@@@2@0@Z ; std::vector<ChangeDirInfo,std::allocator<ChangeDirInfo> >::erase

; 1219 : 		}

  00014	c9		 leave
  00015	c3		 ret	 0
?clear@?$vector@UChangeDirInfo@@V?$allocator@UChangeDirInfo@@@std@@@std@@QAEXXZ ENDP ; std::vector<ChangeDirInfo,std::allocator<ChangeDirInfo> >::clear
_TEXT	ENDS
PUBLIC	??$_Sort@PAUChangeDirInfo@@HVChangeDirSort@@@std@@YAXPAUChangeDirInfo@@0HVChangeDirSort@@@Z ; std::_Sort<ChangeDirInfo *,int,ChangeDirSort>
; Function compile flags: /Ogsp
; File c:\program files (x86)\microsoft visual studio 10.0\vc\include\algorithm
;	COMDAT ??$_Sort@PAUChangeDirInfo@@HVChangeDirSort@@@std@@YAXPAUChangeDirInfo@@0HVChangeDirSort@@@Z
_TEXT	SEGMENT
__Mid$534491 = -8					; size = 8
__First$ = 8						; size = 4
__Last$ = 12						; size = 4
__Ideal$ = 16						; size = 4
__Pred$ = 20						; size = 1
??$_Sort@PAUChangeDirInfo@@HVChangeDirSort@@@std@@YAXPAUChangeDirInfo@@0HVChangeDirSort@@@Z PROC ; std::_Sort<ChangeDirInfo *,int,ChangeDirSort>, COMDAT

; 3771 : 	{	// order [_First, _Last), using _Pred

  00000	55		 push	 ebp
  00001	8b ec		 mov	 ebp, esp
  00003	51		 push	 ecx
  00004	51		 push	 ecx
  00005	53		 push	 ebx

; 3772 : 	_Diff _Count;
; 3773 : 	for (; _ISORT_MAX < (_Count = _Last - _First) && 0 < _Ideal; )

  00006	8b 5d 08	 mov	 ebx, DWORD PTR __First$[ebp]
  00009	57		 push	 edi
  0000a	8b 7d 0c	 mov	 edi, DWORD PTR __Last$[ebp]
  0000d	8b c7		 mov	 eax, edi
  0000f	2b c3		 sub	 eax, ebx
  00011	6a 1c		 push	 28			; 0000001cH
  00013	99		 cdq
  00014	59		 pop	 ecx
  00015	f7 f9		 idiv	 ecx
  00017	83 f8 20	 cmp	 eax, 32			; 00000020H
  0001a	0f 8e 9c 00 00
	00		 jle	 $LN22@Sort
  00020	56		 push	 esi
  00021	8b 75 10	 mov	 esi, DWORD PTR __Ideal$[ebp]
$LL7@Sort:
  00024	85 f6		 test	 esi, esi
  00026	7e 75		 jle	 SHORT $LN6@Sort

; 3774 : 		{	// divide and conquer by quicksort
; 3775 : 		_STD pair<_RanIt, _RanIt> _Mid =
; 3776 : 			_Unguarded_partition(_First, _Last, _Pred);

  00028	ff 75 14	 push	 DWORD PTR __Pred$[ebp]
  0002b	8d 45 f8	 lea	 eax, DWORD PTR __Mid$534491[ebp]
  0002e	57		 push	 edi
  0002f	53		 push	 ebx
  00030	50		 push	 eax
  00031	e8 00 00 00 00	 call	 ??$_Unguarded_partition@PAUChangeDirInfo@@VChangeDirSort@@@std@@YA?AU?$pair@PAUChangeDirInfo@@PAU1@@0@PAUChangeDirInfo@@0VChangeDirSort@@@Z ; std::_Unguarded_partition<ChangeDirInfo *,ChangeDirSort>

; 3777 : 		_Ideal /= 2, _Ideal += _Ideal / 2;	// allow 1.5 log2(N) divisions

  00036	8b c6		 mov	 eax, esi
  00038	99		 cdq
  00039	2b c2		 sub	 eax, edx
  0003b	d1 f8		 sar	 eax, 1
  0003d	8b f0		 mov	 esi, eax
  0003f	99		 cdq
  00040	2b c2		 sub	 eax, edx
  00042	d1 f8		 sar	 eax, 1
  00044	03 f0		 add	 esi, eax
  00046	83 c4 10	 add	 esp, 16			; 00000010H

; 3778 : 
; 3779 : 		if (_Mid.first - _First < _Last - _Mid.second)

  00049	8b c7		 mov	 eax, edi
  0004b	2b 45 fc	 sub	 eax, DWORD PTR __Mid$534491[ebp+4]
  0004e	6a 1c		 push	 28			; 0000001cH
  00050	99		 cdq
  00051	59		 pop	 ecx
  00052	f7 f9		 idiv	 ecx
  00054	6a 1c		 push	 28			; 0000001cH
  00056	8b c8		 mov	 ecx, eax
  00058	8b 45 f8	 mov	 eax, DWORD PTR __Mid$534491[ebp]
  0005b	2b c3		 sub	 eax, ebx
  0005d	5b		 pop	 ebx
  0005e	99		 cdq
  0005f	f7 fb		 idiv	 ebx

; 3780 : 			{	// loop on second half
; 3781 : 			_Sort(_First, _Mid.first, _Ideal, _Pred);

  00061	ff 75 14	 push	 DWORD PTR __Pred$[ebp]
  00064	56		 push	 esi
  00065	3b c1		 cmp	 eax, ecx
  00067	7d 13		 jge	 SHORT $LN5@Sort
  00069	ff 75 f8	 push	 DWORD PTR __Mid$534491[ebp]
  0006c	ff 75 08	 push	 DWORD PTR __First$[ebp]
  0006f	e8 00 00 00 00	 call	 ??$_Sort@PAUChangeDirInfo@@HVChangeDirSort@@@std@@YAXPAUChangeDirInfo@@0HVChangeDirSort@@@Z ; std::_Sort<ChangeDirInfo *,int,ChangeDirSort>

; 3782 : 			_First = _Mid.second;

  00074	8b 5d fc	 mov	 ebx, DWORD PTR __Mid$534491[ebp+4]
  00077	89 5d 08	 mov	 DWORD PTR __First$[ebp], ebx

; 3783 : 			}
; 3784 : 		else

  0007a	eb 0f		 jmp	 SHORT $LN23@Sort
$LN5@Sort:

; 3785 : 			{	// loop on first half
; 3786 : 			_Sort(_Mid.second, _Last, _Ideal, _Pred);

  0007c	57		 push	 edi
  0007d	ff 75 fc	 push	 DWORD PTR __Mid$534491[ebp+4]
  00080	e8 00 00 00 00	 call	 ??$_Sort@PAUChangeDirInfo@@HVChangeDirSort@@@std@@YAXPAUChangeDirInfo@@0HVChangeDirSort@@@Z ; std::_Sort<ChangeDirInfo *,int,ChangeDirSort>

; 3787 : 			_Last = _Mid.first;

  00085	8b 7d f8	 mov	 edi, DWORD PTR __Mid$534491[ebp]
  00088	8b 5d 08	 mov	 ebx, DWORD PTR __First$[ebp]
$LN23@Sort:

; 3772 : 	_Diff _Count;
; 3773 : 	for (; _ISORT_MAX < (_Count = _Last - _First) && 0 < _Ideal; )

  0008b	83 c4 10	 add	 esp, 16			; 00000010H
  0008e	8b c7		 mov	 eax, edi
  00090	2b c3		 sub	 eax, ebx
  00092	6a 1c		 push	 28			; 0000001cH
  00094	99		 cdq
  00095	59		 pop	 ecx
  00096	f7 f9		 idiv	 ecx
  00098	83 f8 20	 cmp	 eax, 32			; 00000020H
  0009b	7f 87		 jg	 SHORT $LL7@Sort
$LN6@Sort:
  0009d	5e		 pop	 esi

; 3788 : 			}
; 3789 : 		}
; 3790 : 
; 3791 : 	if (_ISORT_MAX < _Count)

  0009e	83 f8 20	 cmp	 eax, 32			; 00000020H
  000a1	7e 19		 jle	 SHORT $LN22@Sort

; 3792 : 		{	// heap sort if too many divisions
; 3793 : 		_STD make_heap(_First, _Last, _Pred);

  000a3	ff 75 14	 push	 DWORD PTR __Pred$[ebp]
  000a6	57		 push	 edi
  000a7	53		 push	 ebx
  000a8	e8 00 00 00 00	 call	 ??$make_heap@PAUChangeDirInfo@@VChangeDirSort@@@std@@YAXPAUChangeDirInfo@@0VChangeDirSort@@@Z ; std::make_heap<ChangeDirInfo *,ChangeDirSort>

; 3794 : 		_STD sort_heap(_First, _Last, _Pred);

  000ad	ff 75 14	 push	 DWORD PTR __Pred$[ebp]
  000b0	57		 push	 edi
  000b1	53		 push	 ebx
  000b2	e8 00 00 00 00	 call	 ??$_Sort_heap@PAUChangeDirInfo@@VChangeDirSort@@@std@@YAXPAUChangeDirInfo@@0VChangeDirSort@@@Z ; std::_Sort_heap<ChangeDirInfo *,ChangeDirSort>
  000b7	83 c4 18	 add	 esp, 24			; 00000018H
  000ba	eb 14		 jmp	 SHORT $LN16@Sort
$LN22@Sort:

; 3795 : 		}
; 3796 : 	else if (1 < _Count)

  000bc	83 f8 01	 cmp	 eax, 1
  000bf	7e 0f		 jle	 SHORT $LN16@Sort

; 3797 : 		_Insertion_sort(_First, _Last, _Pred);	// small

  000c1	6a 00		 push	 0
  000c3	ff 75 14	 push	 DWORD PTR __Pred$[ebp]
  000c6	57		 push	 edi
  000c7	53		 push	 ebx
  000c8	e8 00 00 00 00	 call	 ??$_Insertion_sort1@PAUChangeDirInfo@@VChangeDirSort@@U1@@std@@YAXPAUChangeDirInfo@@0VChangeDirSort@@0@Z ; std::_Insertion_sort1<ChangeDirInfo *,ChangeDirSort,ChangeDirInfo>
  000cd	83 c4 10	 add	 esp, 16			; 00000010H
$LN16@Sort:
  000d0	5f		 pop	 edi
  000d1	5b		 pop	 ebx

; 3798 : 	}

  000d2	c9		 leave
  000d3	c3		 ret	 0
??$_Sort@PAUChangeDirInfo@@HVChangeDirSort@@@std@@YAXPAUChangeDirInfo@@0HVChangeDirSort@@@Z ENDP ; std::_Sort<ChangeDirInfo *,int,ChangeDirSort>
; Function compile flags: /Ogsp
_TEXT	ENDS
;	COMDAT ??_GioTraceWeapon6@@UAEPAXI@Z
_TEXT	SEGMENT
___flags$ = 8						; size = 4
??_GioTraceWeapon6@@UAEPAXI@Z PROC			; ioTraceWeapon6::`scalar deleting destructor', COMDAT
; _this$ = ecx
  00000	55		 push	 ebp
  00001	8b ec		 mov	 ebp, esp
  00003	56		 push	 esi
  00004	8b f1		 mov	 esi, ecx
  00006	e8 00 00 00 00	 call	 ??1ioTraceWeapon6@@UAE@XZ ; ioTraceWeapon6::~ioTraceWeapon6
  0000b	f6 45 08 01	 test	 BYTE PTR ___flags$[ebp], 1
  0000f	74 07		 je	 SHORT $LN1@scalar@4
  00011	56		 push	 esi
  00012	e8 00 00 00 00	 call	 ??3@YAXPAX@Z		; operator delete
  00017	59		 pop	 ecx
$LN1@scalar@4:
  00018	8b c6		 mov	 eax, esi
  0001a	5e		 pop	 esi
  0001b	5d		 pop	 ebp
  0001c	c2 04 00	 ret	 4
??_GioTraceWeapon6@@UAEPAXI@Z ENDP			; ioTraceWeapon6::`scalar deleting destructor'
_TEXT	ENDS
PUBLIC	__$ArrayPad$
PUBLIC	?OnMove@ioTraceWeapon6@@IAEXPAVioPlayStage@@M@Z	; ioTraceWeapon6::OnMove
; Function compile flags: /Ogsp
; File d:\lost saga for developer\youtube\tutorial\source\src\lsclient\iotraceweapon6.cpp
;	COMDAT ?OnMove@ioTraceWeapon6@@IAEXPAVioPlayStage@@M@Z
_TEXT	SEGMENT
_fMoveDist$ = -20					; size = 4
$T531817 = -16						; size = 12
__$ArrayPad$ = -4					; size = 4
_pStage$ = 8						; size = 4
_fTimePerSec$ = 12					; size = 4
?OnMove@ioTraceWeapon6@@IAEXPAVioPlayStage@@M@Z PROC	; ioTraceWeapon6::OnMove, COMDAT
; _this$ = ecx

; 227  : {

  00000	55		 push	 ebp
  00001	8b ec		 mov	 ebp, esp
  00003	83 ec 14	 sub	 esp, 20			; 00000014H
  00006	a1 00 00 00 00	 mov	 eax, DWORD PTR ___security_cookie
  0000b	33 c5		 xor	 eax, ebp
  0000d	89 45 fc	 mov	 DWORD PTR __$ArrayPad$[ebp], eax
  00010	56		 push	 esi
  00011	8b f1		 mov	 esi, ecx

; 228  : 	DWORD dwCurTime = FRAMEGETTIME();

  00013	ff 15 00 00 00
	00		 call	 DWORD PTR __imp_?GetSingleton@ioFrameTimer@@SAAAV1@XZ
  00019	8b c8		 mov	 ecx, eax
  0001b	ff 15 00 00 00
	00		 call	 DWORD PTR __imp_?GetLoopSec@ioFrameTimer@@QBEKXZ

; 229  : 	if( m_dwCreatedTime + m_dwSensingEnableTime < dwCurTime )

  00021	8b 8e d0 08 00
	00		 mov	 ecx, DWORD PTR [esi+2256]
  00027	03 8e d4 04 00
	00		 add	 ecx, DWORD PTR [esi+1236]
  0002d	3b c8		 cmp	 ecx, eax
  0002f	73 12		 jae	 SHORT $LN1@OnMove

; 230  : 	{
; 231  : 		m_State = TS_SENSING;

  00031	c7 86 94 08 00
	00 01 00 00 00	 mov	 DWORD PTR [esi+2196], 1

; 232  : 		m_dwSensingStartTime = dwCurTime;

  0003b	89 86 38 09 00
	00		 mov	 DWORD PTR [esi+2360], eax

; 233  : 		return;

  00041	eb 6c		 jmp	 SHORT $LN2@OnMove
$LN1@OnMove:

; 234  : 	}
; 235  : 
; 236  : 	CheckChangeDir();

  00043	8b ce		 mov	 ecx, esi
  00045	e8 00 00 00 00	 call	 ?CheckChangeDir@ioTraceWeapon6@@IAEXXZ ; ioTraceWeapon6::CheckChangeDir

; 237  : 
; 238  : 	float fMoveDist = GetMoveSpeed() * fTimePerSec;

  0004a	8b ce		 mov	 ecx, esi
  0004c	e8 00 00 00 00	 call	 ?GetMoveSpeed@ioTraceWeapon6@@IAEMXZ ; ioTraceWeapon6::GetMoveSpeed
  00051	d8 4d 0c	 fmul	 DWORD PTR _fTimePerSec$[ebp]

; 239  : 	GetParentSceneNode()->Translate( m_vMoveDir * fMoveDist );

  00054	8b 4e 04	 mov	 ecx, DWORD PTR [esi+4]
  00057	6a 01		 push	 1
  00059	d9 5d ec	 fstp	 DWORD PTR _fMoveDist$[ebp]
  0005c	8d 55 f0	 lea	 edx, DWORD PTR $T531817[ebp]
  0005f	d9 86 d8 09 00
	00		 fld	 DWORD PTR [esi+2520]
  00065	52		 push	 edx
  00066	d8 4d ec	 fmul	 DWORD PTR _fMoveDist$[ebp]
  00069	d9 5d f0	 fstp	 DWORD PTR $T531817[ebp]
  0006c	d9 86 dc 09 00
	00		 fld	 DWORD PTR [esi+2524]
  00072	d8 4d ec	 fmul	 DWORD PTR _fMoveDist$[ebp]
  00075	d9 5d f4	 fstp	 DWORD PTR $T531817[ebp+4]
  00078	d9 86 e0 09 00
	00		 fld	 DWORD PTR [esi+2528]
  0007e	d8 4d ec	 fmul	 DWORD PTR _fMoveDist$[ebp]
  00081	d9 5d f8	 fstp	 DWORD PTR $T531817[ebp+8]
  00084	8b 01		 mov	 eax, DWORD PTR [ecx]
  00086	ff 50 3c	 call	 DWORD PTR [eax+60]

; 240  : 	m_fCurMoveRange += fMoveDist;

  00089	d9 86 c8 08 00
	00		 fld	 DWORD PTR [esi+2248]
  0008f	d8 45 ec	 fadd	 DWORD PTR _fMoveDist$[ebp]

; 241  : 
; 242  : 	UpdateWorldAttackBox( fTimePerSec, false );

  00092	f3 0f 10 45 0c	 movss	 xmm0, DWORD PTR _fTimePerSec$[ebp]
  00097	8b 06		 mov	 eax, DWORD PTR [esi]
  00099	6a 00		 push	 0
  0009b	51		 push	 ecx
  0009c	d9 9e c8 08 00
	00		 fstp	 DWORD PTR [esi+2248]
  000a2	8b ce		 mov	 ecx, esi
  000a4	f3 0f 11 04 24	 movss	 DWORD PTR [esp], xmm0
  000a9	ff 90 38 01 00
	00		 call	 DWORD PTR [eax+312]
$LN2@OnMove:

; 243  : }

  000af	8b 4d fc	 mov	 ecx, DWORD PTR __$ArrayPad$[ebp]
  000b2	33 cd		 xor	 ecx, ebp
  000b4	5e		 pop	 esi
  000b5	e8 00 00 00 00	 call	 @__security_check_cookie@4
  000ba	c9		 leave
  000bb	c2 08 00	 ret	 8
?OnMove@ioTraceWeapon6@@IAEXPAVioPlayStage@@M@Z ENDP	; ioTraceWeapon6::OnMove
_TEXT	ENDS
PUBLIC	??$sort@V?$_Vector_iterator@V?$_Vector_val@UChangeDirInfo@@V?$allocator@UChangeDirInfo@@@std@@@std@@@std@@VChangeDirSort@@@std@@YAXV?$_Vector_iterator@V?$_Vector_val@UChangeDirInfo@@V?$allocator@UChangeDirInfo@@@std@@@std@@@0@0VChangeDirSort@@@Z ; std::sort<std::_Vector_iterator<std::_Vector_val<ChangeDirInfo,std::allocator<ChangeDirInfo> > >,ChangeDirSort>
; Function compile flags: /Ogsp
; File c:\program files (x86)\microsoft visual studio 10.0\vc\include\algorithm
;	COMDAT ??$sort@V?$_Vector_iterator@V?$_Vector_val@UChangeDirInfo@@V?$allocator@UChangeDirInfo@@@std@@@std@@@std@@VChangeDirSort@@@std@@YAXV?$_Vector_iterator@V?$_Vector_val@UChangeDirInfo@@V?$allocator@UChangeDirInfo@@@std@@@std@@@0@0VChangeDirSort@@@Z
_TEXT	SEGMENT
__First$ = 8						; size = 4
__Last$ = 12						; size = 4
__Pred$ = 16						; size = 1
??$sort@V?$_Vector_iterator@V?$_Vector_val@UChangeDirInfo@@V?$allocator@UChangeDirInfo@@@std@@@std@@@std@@VChangeDirSort@@@std@@YAXV?$_Vector_iterator@V?$_Vector_val@UChangeDirInfo@@V?$allocator@UChangeDirInfo@@@std@@@std@@@0@0VChangeDirSort@@@Z PROC ; std::sort<std::_Vector_iterator<std::_Vector_val<ChangeDirInfo,std::allocator<ChangeDirInfo> > >,ChangeDirSort>, COMDAT

; 3803 : 	{	// order [_First, _Last), using _Pred

  00000	55		 push	 ebp
  00001	8b ec		 mov	 ebp, esp

; 3804 : 	_DEBUG_RANGE(_First, _Last);
; 3805 : 	_DEBUG_POINTER(_Pred);
; 3806 : 	_Sort(_Unchecked(_First), _Unchecked(_Last), _Last - _First, _Pred);

  00003	ff 75 10	 push	 DWORD PTR __Pred$[ebp]
  00006	8b 45 0c	 mov	 eax, DWORD PTR __Last$[ebp]
  00009	2b 45 08	 sub	 eax, DWORD PTR __First$[ebp]
  0000c	6a 1c		 push	 28			; 0000001cH
  0000e	59		 pop	 ecx
  0000f	99		 cdq
  00010	f7 f9		 idiv	 ecx
  00012	50		 push	 eax
  00013	ff 75 0c	 push	 DWORD PTR __Last$[ebp]
  00016	ff 75 08	 push	 DWORD PTR __First$[ebp]
  00019	e8 00 00 00 00	 call	 ??$_Sort@PAUChangeDirInfo@@HVChangeDirSort@@@std@@YAXPAUChangeDirInfo@@0HVChangeDirSort@@@Z ; std::_Sort<ChangeDirInfo *,int,ChangeDirSort>
  0001e	83 c4 10	 add	 esp, 16			; 00000010H

; 3807 : 	}

  00021	5d		 pop	 ebp
  00022	c3		 ret	 0
??$sort@V?$_Vector_iterator@V?$_Vector_val@UChangeDirInfo@@V?$allocator@UChangeDirInfo@@@std@@@std@@@std@@VChangeDirSort@@@std@@YAXV?$_Vector_iterator@V?$_Vector_val@UChangeDirInfo@@V?$allocator@UChangeDirInfo@@@std@@@std@@@0@0VChangeDirSort@@@Z ENDP ; std::sort<std::_Vector_iterator<std::_Vector_val<ChangeDirInfo,std::allocator<ChangeDirInfo> > >,ChangeDirSort>
_TEXT	ENDS
PUBLIC	??_C@_00CNPNBAHC@?$AA@				; `string'
PUBLIC	_rkLoader$GSCopy$
PUBLIC	__$ArrayPad$
EXTRN	__imp__wsprintfA:PROC
EXTRN	__imp_??4ioHashString@@QAEAAV0@PBD@Z:PROC
EXTRN	?LoadProperty@ioWeapon@@UAEXAAVioINILoader@@@Z:PROC ; ioWeapon::LoadProperty
EXTRN	_memset:PROC
;	COMDAT ??_C@_00CNPNBAHC@?$AA@
; File c:\program files (x86)\microsoft visual studio 10.0\vc\include\xutility
CONST	SEGMENT
??_C@_00CNPNBAHC@?$AA@ DB 00H				; `string'
; Function compile flags: /Ogsp
; File d:\lost saga for developer\youtube\tutorial\source\src\lsclient\iotraceweapon6.cpp
CONST	ENDS
;	COMDAT ?LoadProperty@ioTraceWeapon6@@UAEXAAVioINILoader@@@Z
_TEXT	SEGMENT
tv3090 = -332						; size = 4
tv14912 = -328						; size = 4
_rkLoader$GSCopy$ = -324				; size = 4
tv12730 = -320						; size = 4
$T538904 = -320						; size = 1
_value$540439 = -320					; size = 4
_value$540310 = -320					; size = 4
_value$540180 = -320					; size = 4
_value$540050 = -320					; size = 4
_value$539920 = -320					; size = 4
_value$539790 = -320					; size = 4
_value$539285 = -320					; size = 4
_kInfo$530987 = -316					; size = 28
_szBuf$ = -288						; size = 260
__k$540197 = -28					; size = 19
__k$539552 = -28					; size = 17
__k$539427 = -28					; size = 20
__k$539302 = -28					; size = 18
___encStr$531448 = -28					; size = 17
___encStr$531296 = -28					; size = 17
__k$540457 = -24					; size = 15
__k$540327 = -24					; size = 15
__k$539853 = -24					; size = 14
__k$539723 = -24					; size = 14
__k$539172 = -24					; size = 13
___encStr$531144 = -24					; size = 15
___encStr$530991 = -24					; size = 15
__k$540067 = -20					; size = 12
__k$539937 = -20					; size = 12
__k$539047 = -20					; size = 10
__k$538922 = -20					; size = 12
__$ArrayPad$ = -4					; size = 4
_rkLoader$ = 8						; size = 4
?LoadProperty@ioTraceWeapon6@@UAEXAAVioINILoader@@@Z PROC ; ioTraceWeapon6::LoadProperty, COMDAT
; _this$ = ecx

; 41   : {

  00000	55		 push	 ebp
  00001	8b ec		 mov	 ebp, esp
  00003	81 ec 4c 01 00
	00		 sub	 esp, 332		; 0000014cH
  00009	a1 00 00 00 00	 mov	 eax, DWORD PTR ___security_cookie
  0000e	33 c5		 xor	 eax, ebp
  00010	89 45 fc	 mov	 DWORD PTR __$ArrayPad$[ebp], eax
  00013	8b 45 08	 mov	 eax, DWORD PTR _rkLoader$[ebp]
  00016	53		 push	 ebx
  00017	56		 push	 esi
  00018	57		 push	 edi

; 42   : 	ioWeapon::LoadProperty( rkLoader );

  00019	50		 push	 eax
  0001a	8b d9		 mov	 ebx, ecx

; 90   : 	}
; 91   : 
; 92   : 	std::sort( m_ChangeDirInfoList.begin(), m_ChangeDirInfoList.end(), ChangeDirSort() );

  0001c	89 85 bc fe ff
	ff		 mov	 DWORD PTR _rkLoader$GSCopy$[ebp], eax
  00022	e8 00 00 00 00	 call	 ?LoadProperty@ioWeapon@@UAEXAAVioINILoader@@@Z ; ioWeapon::LoadProperty
  00027	68 03 01 00 00	 push	 259			; 00000103H
  0002c	8d 85 e1 fe ff
	ff		 lea	 eax, DWORD PTR _szBuf$[ebp+1]
  00032	6a 00		 push	 0
  00034	50		 push	 eax
  00035	c6 85 e0 fe ff
	ff 00		 mov	 BYTE PTR _szBuf$[ebp], 0
  0003c	e8 00 00 00 00	 call	 _memset
  00041	83 c4 0c	 add	 esp, 12			; 0000000cH
  00044	6a 02		 push	 2
  00046	c7 45 ec 8f 83
	84 87		 mov	 DWORD PTR __k$538922[ebp], -2021358705 ; 8784838fH
  0004d	c7 45 f0 b2 89
	8d 8c		 mov	 DWORD PTR __k$538922[ebp+4], -1936881230 ; 8c8d89b2H
  00054	8d 45 ec	 lea	 eax, DWORD PTR __k$538922[ebp]
  00057	c7 45 f4 88 8f
	9f 00		 mov	 DWORD PTR __k$538922[ebp+8], 10456968 ; 009f8f88H
  0005e	59		 pop	 ecx
  0005f	bf ed ec eb ea	 mov	 edi, -353637139		; eaebecedH
$LL506@LoadProper:

; 43   : 
; 44   : 	char szBuf[MAX_PATH] = "";
; 45   : 	rkLoader.LoadString_e( "boom_effect", "", szBuf, MAX_PATH );

  00064	31 38		 xor	 DWORD PTR [eax], edi
  00066	83 c0 04	 add	 eax, 4
  00069	49		 dec	 ecx
  0006a	75 f8		 jne	 SHORT $LL506@LoadProper
  0006c	6a 08		 push	 8
  0006e	5e		 pop	 esi
$LL503@LoadProper:
  0006f	8b c6		 mov	 eax, esi
  00071	25 03 00 00 80	 and	 eax, -2147483645	; 80000003H
  00076	79 05		 jns	 SHORT $LN1917@LoadProper
  00078	48		 dec	 eax
  00079	83 c8 fc	 or	 eax, -4			; fffffffcH
  0007c	40		 inc	 eax
$LN1917@LoadProper:
  0007d	b1 ed		 mov	 cl, -19			; ffffffedH
  0007f	2a c8		 sub	 cl, al
  00081	30 4c 35 ec	 xor	 BYTE PTR __k$538922[ebp+esi], cl
  00085	46		 inc	 esi
  00086	83 fe 0b	 cmp	 esi, 11			; 0000000bH
  00089	7c e4		 jl	 SHORT $LL503@LoadProper
  0008b	8b 8d bc fe ff
	ff		 mov	 ecx, DWORD PTR _rkLoader$GSCopy$[ebp]
  00091	68 04 01 00 00	 push	 260			; 00000104H
  00096	8d 85 e0 fe ff
	ff		 lea	 eax, DWORD PTR _szBuf$[ebp]
  0009c	50		 push	 eax
  0009d	68 00 00 00 00	 push	 OFFSET ??_C@_00CNPNBAHC@?$AA@
  000a2	8d 45 ec	 lea	 eax, DWORD PTR __k$538922[ebp]
  000a5	50		 push	 eax
  000a6	ff 15 00 00 00
	00		 call	 DWORD PTR __imp_?LoadStringA@ioINILoader@@QAEXPBD0PADH@Z

; 46   : 	m_BoomEffect = szBuf;

  000ac	8d 85 e0 fe ff
	ff		 lea	 eax, DWORD PTR _szBuf$[ebp]
  000b2	50		 push	 eax
  000b3	8d 8b 70 0a 00
	00		 lea	 ecx, DWORD PTR [ebx+2672]
  000b9	ff 15 00 00 00
	00		 call	 DWORD PTR __imp_??4ioHashString@@QAEAAV0@PBD@Z
  000bf	6a 02		 push	 2

; 47   : 
; 48   : 	m_dwLiveTime = rkLoader.LoadInt_e( "live_time", 0 );

  000c1	c7 45 ec 81 85
	9d 8f		 mov	 DWORD PTR __k$539047[ebp], -1885502079 ; 8f9d8581H
  000c8	c7 45 f0 b2 98
	82 87		 mov	 DWORD PTR __k$539047[ebp+4], -2021484366 ; 878298b2H
  000cf	8d 45 ec	 lea	 eax, DWORD PTR __k$539047[ebp]
  000d2	66 c7 45 f4 88
	00		 mov	 WORD PTR __k$539047[ebp+8], 136 ; 00000088H
  000d8	59		 pop	 ecx
$LL612@LoadProper:
  000d9	31 38		 xor	 DWORD PTR [eax], edi
  000db	83 c0 04	 add	 eax, 4
  000de	49		 dec	 ecx
  000df	75 f8		 jne	 SHORT $LL612@LoadProper
  000e1	8b 35 00 00 00
	00		 mov	 esi, DWORD PTR __imp_?LoadInt@ioINILoader@@QAEHPBDH@Z
  000e7	80 75 f4 ed	 xor	 BYTE PTR __k$539047[ebp+8], -19 ; ffffffedH
  000eb	51		 push	 ecx
  000ec	8b 8d bc fe ff
	ff		 mov	 ecx, DWORD PTR _rkLoader$GSCopy$[ebp]
  000f2	8d 45 ec	 lea	 eax, DWORD PTR __k$539047[ebp]
  000f5	50		 push	 eax
  000f6	ff d6		 call	 esi
  000f8	6a 03		 push	 3
  000fa	89 83 d8 04 00
	00		 mov	 DWORD PTR [ebx+1240], eax

; 49   : 	m_fStartHeight = rkLoader.LoadFloat_e( "start_height", 0.0f );

  00100	c7 45 e8 9e 98
	8a 98		 mov	 DWORD PTR __k$539172[ebp], -1735747426 ; 988a989eH
  00107	c7 45 ec 99 b3
	83 8f		 mov	 DWORD PTR __k$539172[ebp+4], -1887194215 ; 8f83b399H
  0010e	c7 45 f0 84 8b
	83 9e		 mov	 DWORD PTR __k$539172[ebp+8], -1635546236 ; 9e838b84H
  00115	8d 45 e8	 lea	 eax, DWORD PTR __k$539172[ebp]
  00118	c6 45 f4 00	 mov	 BYTE PTR __k$539172[ebp+12], 0
  0011c	59		 pop	 ecx
$LL718@LoadProper:
  0011d	31 38		 xor	 DWORD PTR [eax], edi
  0011f	83 c0 04	 add	 eax, 4
  00122	49		 dec	 ecx
  00123	75 f8		 jne	 SHORT $LL718@LoadProper
  00125	0f 57 c0	 xorps	 xmm0, xmm0
  00128	51		 push	 ecx
  00129	8b 8d bc fe ff
	ff		 mov	 ecx, DWORD PTR _rkLoader$GSCopy$[ebp]
  0012f	8d 45 e8	 lea	 eax, DWORD PTR __k$539172[ebp]
  00132	f3 0f 11 04 24	 movss	 DWORD PTR [esp], xmm0
  00137	50		 push	 eax
  00138	ff 15 00 00 00
	00		 call	 DWORD PTR __imp_?LoadFloat@ioINILoader@@QAEMPBDM@Z
  0013e	d9 9d c0 fe ff
	ff		 fstp	 DWORD PTR _value$539285[ebp]
  00144	8d 85 c0 fe ff
	ff		 lea	 eax, DWORD PTR _value$539285[ebp]
  0014a	50		 push	 eax
  0014b	8d 8b 80 0a 00
	00		 lea	 ecx, DWORD PTR [ebx+2688]
  00151	e8 00 00 00 00	 call	 ?EncryptValueToPool@?$CEncrypt@M@@AAEXPBD@Z ; CEncrypt<float>::EncryptValueToPool
  00156	6a 04		 push	 4

; 50   : 
; 51   : 	// Sensing
; 52   : 	m_TargetWoundType = (TargetWoundType)rkLoader.LoadInt_e( "target_wound_type", TWT_ALL );

  00158	c7 45 e4 99 8d
	99 8d		 mov	 DWORD PTR __k$539302[ebp], -1919316583 ; 8d998d99H
  0015f	c7 45 e8 88 98
	b4 9d		 mov	 DWORD PTR __k$539302[ebp+4], -1649108856 ; 9db49888H
  00166	c7 45 ec 82 99
	85 8e		 mov	 DWORD PTR __k$539302[ebp+8], -1903847038 ; 8e859982H
  0016d	c7 45 f0 b2 98
	92 9a		 mov	 DWORD PTR __k$539302[ebp+12], -1701668686 ; 9a9298b2H
  00174	8d 45 e4	 lea	 eax, DWORD PTR __k$539302[ebp]
  00177	66 c7 45 f4 88
	00		 mov	 WORD PTR __k$539302[ebp+16], 136 ; 00000088H
  0017d	59		 pop	 ecx
$LL826@LoadProper:
  0017e	31 38		 xor	 DWORD PTR [eax], edi
  00180	83 c0 04	 add	 eax, 4
  00183	49		 dec	 ecx
  00184	75 f8		 jne	 SHORT $LL826@LoadProper
  00186	8b 8d bc fe ff
	ff		 mov	 ecx, DWORD PTR _rkLoader$GSCopy$[ebp]
  0018c	80 75 f4 ed	 xor	 BYTE PTR __k$539302[ebp+16], -19 ; ffffffedH
  00190	6a 01		 push	 1
  00192	8d 45 e4	 lea	 eax, DWORD PTR __k$539302[ebp]
  00195	50		 push	 eax
  00196	ff d6		 call	 esi
  00198	6a 04		 push	 4
  0019a	89 83 cc 08 00
	00		 mov	 DWORD PTR [ebx+2252], eax

; 53   : 
; 54   : 	m_dwSensingEnableTime = rkLoader.LoadInt_e( "sensing_enable_time", 0 );

  001a0	c7 45 e4 9e 89
	85 99		 mov	 DWORD PTR __k$539427[ebp], -1719301730 ; 9985899eH
  001a7	c7 45 e8 84 82
	8c b5		 mov	 DWORD PTR __k$539427[ebp+4], -1249082748 ; b58c8284H
  001ae	c7 45 ec 88 82
	8a 88		 mov	 DWORD PTR __k$539427[ebp+8], -2004188536 ; 888a8288H
  001b5	c7 45 f0 81 89
	b4 9e		 mov	 DWORD PTR __k$539427[ebp+12], -1632335487 ; 9eb48981H
  001bc	8d 45 e4	 lea	 eax, DWORD PTR __k$539427[ebp]
  001bf	c7 45 f4 84 81
	8e 00		 mov	 DWORD PTR __k$539427[ebp+16], 9339268 ; 008e8184H
  001c6	59		 pop	 ecx
$LL932@LoadProper:
  001c7	31 38		 xor	 DWORD PTR [eax], edi
  001c9	83 c0 04	 add	 eax, 4
  001cc	49		 dec	 ecx
  001cd	75 f8		 jne	 SHORT $LL932@LoadProper
  001cf	6a 10		 push	 16			; 00000010H
  001d1	58		 pop	 eax
$LL929@LoadProper:
  001d2	8b c8		 mov	 ecx, eax
  001d4	81 e1 03 00 00
	80		 and	 ecx, -2147483645	; 80000003H
  001da	79 05		 jns	 SHORT $LN1918@LoadProper
  001dc	49		 dec	 ecx
  001dd	83 c9 fc	 or	 ecx, -4			; fffffffcH
  001e0	41		 inc	 ecx
$LN1918@LoadProper:
  001e1	b2 ed		 mov	 dl, -19			; ffffffedH
  001e3	2a d1		 sub	 dl, cl
  001e5	30 54 05 e4	 xor	 BYTE PTR __k$539427[ebp+eax], dl
  001e9	40		 inc	 eax
  001ea	83 f8 13	 cmp	 eax, 19			; 00000013H
  001ed	7c e3		 jl	 SHORT $LL929@LoadProper
  001ef	8b 8d bc fe ff
	ff		 mov	 ecx, DWORD PTR _rkLoader$GSCopy$[ebp]
  001f5	6a 00		 push	 0
  001f7	8d 45 e4	 lea	 eax, DWORD PTR __k$539427[ebp]
  001fa	50		 push	 eax
  001fb	ff d6		 call	 esi
  001fd	6a 04		 push	 4
  001ff	89 83 d0 08 00
	00		 mov	 DWORD PTR [ebx+2256], eax

; 55   : 	m_dwSensingDuration = rkLoader.LoadInt_e( "sensing_duration", 0 );

  00205	c7 45 e4 9e 89
	85 99		 mov	 DWORD PTR __k$539552[ebp], -1719301730 ; 9985899eH
  0020c	c7 45 e8 84 82
	8c b5		 mov	 DWORD PTR __k$539552[ebp+4], -1249082748 ; b58c8284H
  00213	c7 45 ec 89 99
	99 8b		 mov	 DWORD PTR __k$539552[ebp+8], -1952867959 ; 8b999989H
  0021a	c7 45 f0 99 85
	84 84		 mov	 DWORD PTR __k$539552[ebp+12], -2071689831 ; 84848599H
  00221	8d 45 e4	 lea	 eax, DWORD PTR __k$539552[ebp]
  00224	c6 45 f4 00	 mov	 BYTE PTR __k$539552[ebp+16], 0
  00228	59		 pop	 ecx
$LL1038@LoadProper:
  00229	31 38		 xor	 DWORD PTR [eax], edi
  0022b	83 c0 04	 add	 eax, 4
  0022e	49		 dec	 ecx
  0022f	75 f8		 jne	 SHORT $LL1038@LoadProper
  00231	51		 push	 ecx
  00232	8b 8d bc fe ff
	ff		 mov	 ecx, DWORD PTR _rkLoader$GSCopy$[ebp]
  00238	8d 45 e4	 lea	 eax, DWORD PTR __k$539552[ebp]
  0023b	50		 push	 eax
  0023c	ff d6		 call	 esi
  0023e	6a 03		 push	 3
  00240	89 83 d4 08 00
	00		 mov	 DWORD PTR [ebx+2260], eax

; 56   : 	m_fSensingRange = rkLoader.LoadFloat_e( "sensing_range", 0.0f );

  00246	c7 45 e8 9e 89
	85 99		 mov	 DWORD PTR __k$539723[ebp], -1719301730 ; 9985899eH
  0024d	c7 45 ec 84 82
	8c b5		 mov	 DWORD PTR __k$539723[ebp+4], -1249082748 ; b58c8284H
  00254	c7 45 f0 9f 8d
	85 8d		 mov	 DWORD PTR __k$539723[ebp+8], -1920627297 ; 8d858d9fH
  0025b	8d 45 e8	 lea	 eax, DWORD PTR __k$539723[ebp]
  0025e	66 c7 45 f4 88
	00		 mov	 WORD PTR __k$539723[ebp+12], 136 ; 00000088H
  00264	59		 pop	 ecx
$LL1144@LoadProper:
  00265	31 38		 xor	 DWORD PTR [eax], edi
  00267	83 c0 04	 add	 eax, 4
  0026a	49		 dec	 ecx
  0026b	75 f8		 jne	 SHORT $LL1144@LoadProper
  0026d	0f 57 c0	 xorps	 xmm0, xmm0
  00270	80 75 f4 ed	 xor	 BYTE PTR __k$539723[ebp+12], -19 ; ffffffedH
  00274	51		 push	 ecx
  00275	8b 8d bc fe ff
	ff		 mov	 ecx, DWORD PTR _rkLoader$GSCopy$[ebp]
  0027b	8d 45 e8	 lea	 eax, DWORD PTR __k$539723[ebp]
  0027e	f3 0f 11 04 24	 movss	 DWORD PTR [esp], xmm0
  00283	50		 push	 eax
  00284	ff 15 00 00 00
	00		 call	 DWORD PTR __imp_?LoadFloat@ioINILoader@@QAEMPBDM@Z
  0028a	d9 9d c0 fe ff
	ff		 fstp	 DWORD PTR _value$539790[ebp]
  00290	8d 85 c0 fe ff
	ff		 lea	 eax, DWORD PTR _value$539790[ebp]
  00296	50		 push	 eax
  00297	8d 8b d8 08 00
	00		 lea	 ecx, DWORD PTR [ebx+2264]
  0029d	e8 00 00 00 00	 call	 ?EncryptValueToPool@?$CEncrypt@M@@AAEXPBD@Z ; CEncrypt<float>::EncryptValueToPool
  002a2	6a 03		 push	 3

; 57   : 	m_fSensingAngle = rkLoader.LoadFloat_e( "sensing_angle", 0.0f );

  002a4	c7 45 e8 9e 89
	85 99		 mov	 DWORD PTR __k$539853[ebp], -1719301730 ; 9985899eH
  002ab	c7 45 ec 84 82
	8c b5		 mov	 DWORD PTR __k$539853[ebp+4], -1249082748 ; b58c8284H
  002b2	c7 45 f0 8c 82
	8c 86		 mov	 DWORD PTR __k$539853[ebp+8], -2037611892 ; 868c828cH
  002b9	8d 45 e8	 lea	 eax, DWORD PTR __k$539853[ebp]
  002bc	66 c7 45 f4 88
	00		 mov	 WORD PTR __k$539853[ebp+12], 136 ; 00000088H
  002c2	59		 pop	 ecx
$LL1252@LoadProper:
  002c3	31 38		 xor	 DWORD PTR [eax], edi
  002c5	83 c0 04	 add	 eax, 4
  002c8	49		 dec	 ecx
  002c9	75 f8		 jne	 SHORT $LL1252@LoadProper
  002cb	0f 57 c0	 xorps	 xmm0, xmm0
  002ce	80 75 f4 ed	 xor	 BYTE PTR __k$539853[ebp+12], -19 ; ffffffedH
  002d2	51		 push	 ecx
  002d3	8b 8d bc fe ff
	ff		 mov	 ecx, DWORD PTR _rkLoader$GSCopy$[ebp]
  002d9	8d 45 e8	 lea	 eax, DWORD PTR __k$539853[ebp]
  002dc	f3 0f 11 04 24	 movss	 DWORD PTR [esp], xmm0
  002e1	50		 push	 eax
  002e2	ff 15 00 00 00
	00		 call	 DWORD PTR __imp_?LoadFloat@ioINILoader@@QAEMPBDM@Z
  002e8	d9 9d c0 fe ff
	ff		 fstp	 DWORD PTR _value$539920[ebp]
  002ee	8d 85 c0 fe ff
	ff		 lea	 eax, DWORD PTR _value$539920[ebp]
  002f4	50		 push	 eax
  002f5	8d 8b 08 09 00
	00		 lea	 ecx, DWORD PTR [ebx+2312]
  002fb	e8 00 00 00 00	 call	 ?EncryptValueToPool@?$CEncrypt@M@@AAEXPBD@Z ; CEncrypt<float>::EncryptValueToPool
  00300	6a 02		 push	 2

; 58   : 
; 59   : 	// Tracing
; 60   : 	m_fTraceSpeed = rkLoader.LoadFloat_e( "trace_speed", 0.0f );

  00302	c7 45 ec 99 9e
	8a 89		 mov	 DWORD PTR __k$539937[ebp], -1987404135 ; 898a9e99H
  00309	c7 45 f0 88 b3
	98 9a		 mov	 DWORD PTR __k$539937[ebp+4], -1701268600 ; 9a98b388H
  00310	8d 45 ec	 lea	 eax, DWORD PTR __k$539937[ebp]
  00313	c7 45 f4 88 89
	8f 00		 mov	 DWORD PTR __k$539937[ebp+8], 9406856 ; 008f8988H
  0031a	59		 pop	 ecx
$LL1360@LoadProper:
  0031b	31 38		 xor	 DWORD PTR [eax], edi
  0031d	83 c0 04	 add	 eax, 4
  00320	49		 dec	 ecx
  00321	75 f8		 jne	 SHORT $LL1360@LoadProper
  00323	6a 08		 push	 8
  00325	58		 pop	 eax
$LL1357@LoadProper:
  00326	8b c8		 mov	 ecx, eax
  00328	81 e1 03 00 00
	80		 and	 ecx, -2147483645	; 80000003H
  0032e	79 05		 jns	 SHORT $LN1919@LoadProper
  00330	49		 dec	 ecx
  00331	83 c9 fc	 or	 ecx, -4			; fffffffcH
  00334	41		 inc	 ecx
$LN1919@LoadProper:
  00335	b2 ed		 mov	 dl, -19			; ffffffedH
  00337	2a d1		 sub	 dl, cl
  00339	30 54 05 ec	 xor	 BYTE PTR __k$539937[ebp+eax], dl
  0033d	40		 inc	 eax
  0033e	83 f8 0b	 cmp	 eax, 11			; 0000000bH
  00341	7c e3		 jl	 SHORT $LL1357@LoadProper
  00343	0f 57 c0	 xorps	 xmm0, xmm0
  00346	51		 push	 ecx
  00347	8b 8d bc fe ff
	ff		 mov	 ecx, DWORD PTR _rkLoader$GSCopy$[ebp]
  0034d	8d 45 ec	 lea	 eax, DWORD PTR __k$539937[ebp]
  00350	f3 0f 11 04 24	 movss	 DWORD PTR [esp], xmm0
  00355	50		 push	 eax
  00356	ff 15 00 00 00
	00		 call	 DWORD PTR __imp_?LoadFloat@ioINILoader@@QAEMPBDM@Z
  0035c	d9 9d c0 fe ff
	ff		 fstp	 DWORD PTR _value$540050[ebp]
  00362	8d 85 c0 fe ff
	ff		 lea	 eax, DWORD PTR _value$540050[ebp]
  00368	50		 push	 eax
  00369	8d 8b 3c 09 00
	00		 lea	 ecx, DWORD PTR [ebx+2364]
  0036f	e8 00 00 00 00	 call	 ?EncryptValueToPool@?$CEncrypt@M@@AAEXPBD@Z ; CEncrypt<float>::EncryptValueToPool
  00374	6a 02		 push	 2

; 61   : 	m_fTraceRange = rkLoader.LoadFloat_e( "trace_range", 0.0f );

  00376	c7 45 ec 99 9e
	8a 89		 mov	 DWORD PTR __k$540067[ebp], -1987404135 ; 898a9e99H
  0037d	c7 45 f0 88 b3
	99 8b		 mov	 DWORD PTR __k$540067[ebp+4], -1952861304 ; 8b99b388H
  00384	8d 45 ec	 lea	 eax, DWORD PTR __k$540067[ebp]
  00387	c7 45 f4 83 8b
	8e 00		 mov	 DWORD PTR __k$540067[ebp+8], 9341827 ; 008e8b83H
  0038e	59		 pop	 ecx
$LL1468@LoadProper:
  0038f	31 38		 xor	 DWORD PTR [eax], edi
  00391	83 c0 04	 add	 eax, 4
  00394	49		 dec	 ecx
  00395	75 f8		 jne	 SHORT $LL1468@LoadProper
  00397	6a 08		 push	 8
  00399	58		 pop	 eax
$LL1465@LoadProper:
  0039a	8b c8		 mov	 ecx, eax
  0039c	81 e1 03 00 00
	80		 and	 ecx, -2147483645	; 80000003H
  003a2	79 05		 jns	 SHORT $LN1920@LoadProper
  003a4	49		 dec	 ecx
  003a5	83 c9 fc	 or	 ecx, -4			; fffffffcH
  003a8	41		 inc	 ecx
$LN1920@LoadProper:
  003a9	b2 ed		 mov	 dl, -19			; ffffffedH
  003ab	2a d1		 sub	 dl, cl
  003ad	30 54 05 ec	 xor	 BYTE PTR __k$540067[ebp+eax], dl
  003b1	40		 inc	 eax
  003b2	83 f8 0b	 cmp	 eax, 11			; 0000000bH
  003b5	7c e3		 jl	 SHORT $LL1465@LoadProper
  003b7	0f 57 c0	 xorps	 xmm0, xmm0
  003ba	51		 push	 ecx
  003bb	8b 8d bc fe ff
	ff		 mov	 ecx, DWORD PTR _rkLoader$GSCopy$[ebp]
  003c1	8d 45 ec	 lea	 eax, DWORD PTR __k$540067[ebp]
  003c4	f3 0f 11 04 24	 movss	 DWORD PTR [esp], xmm0
  003c9	50		 push	 eax
  003ca	ff 15 00 00 00
	00		 call	 DWORD PTR __imp_?LoadFloat@ioINILoader@@QAEMPBDM@Z
  003d0	d9 9d c0 fe ff
	ff		 fstp	 DWORD PTR _value$540180[ebp]
  003d6	8d 85 c0 fe ff
	ff		 lea	 eax, DWORD PTR _value$540180[ebp]
  003dc	50		 push	 eax
  003dd	8d 8b 6c 09 00
	00		 lea	 ecx, DWORD PTR [ebx+2412]
  003e3	e8 00 00 00 00	 call	 ?EncryptValueToPool@?$CEncrypt@M@@AAEXPBD@Z ; CEncrypt<float>::EncryptValueToPool
  003e8	6a 04		 push	 4

; 62   : 	m_fTraceRotSpeed = rkLoader.LoadFloat_e( "trace_rotate_speed", 0.0f );

  003ea	c7 45 e4 99 9e
	8a 89		 mov	 DWORD PTR __k$540197[ebp], -1987404135 ; 898a9e99H
  003f1	c7 45 e8 88 b3
	99 85		 mov	 DWORD PTR __k$540197[ebp+4], -2053524600 ; 8599b388H
  003f8	c7 45 ec 99 8d
	9f 8f		 mov	 DWORD PTR __k$540197[ebp+8], -1885368935 ; 8f9f8d99H
  003ff	c7 45 f0 b2 9f
	9b 8f		 mov	 DWORD PTR __k$540197[ebp+12], -1885626446 ; 8f9b9fb2H
  00406	66 c7 45 f4 88
	88		 mov	 WORD PTR __k$540197[ebp+16], 34952 ; 00008888H
  0040c	8d 45 e4	 lea	 eax, DWORD PTR __k$540197[ebp]
  0040f	c6 45 f6 00	 mov	 BYTE PTR __k$540197[ebp+18], 0
  00413	59		 pop	 ecx
$LL1576@LoadProper:
  00414	31 38		 xor	 DWORD PTR [eax], edi
  00416	83 c0 04	 add	 eax, 4
  00419	49		 dec	 ecx
  0041a	75 f8		 jne	 SHORT $LL1576@LoadProper
  0041c	6a 10		 push	 16			; 00000010H
  0041e	58		 pop	 eax
$LL1573@LoadProper:
  0041f	8b c8		 mov	 ecx, eax
  00421	81 e1 03 00 00
	80		 and	 ecx, -2147483645	; 80000003H
  00427	79 05		 jns	 SHORT $LN1921@LoadProper
  00429	49		 dec	 ecx
  0042a	83 c9 fc	 or	 ecx, -4			; fffffffcH
  0042d	41		 inc	 ecx
$LN1921@LoadProper:
  0042e	b2 ed		 mov	 dl, -19			; ffffffedH
  00430	2a d1		 sub	 dl, cl
  00432	30 54 05 e4	 xor	 BYTE PTR __k$540197[ebp+eax], dl
  00436	40		 inc	 eax
  00437	83 f8 12	 cmp	 eax, 18			; 00000012H
  0043a	7c e3		 jl	 SHORT $LL1573@LoadProper
  0043c	0f 57 c0	 xorps	 xmm0, xmm0
  0043f	51		 push	 ecx
  00440	8b 8d bc fe ff
	ff		 mov	 ecx, DWORD PTR _rkLoader$GSCopy$[ebp]
  00446	8d 45 e4	 lea	 eax, DWORD PTR __k$540197[ebp]
  00449	f3 0f 11 04 24	 movss	 DWORD PTR [esp], xmm0
  0044e	50		 push	 eax
  0044f	ff 15 00 00 00
	00		 call	 DWORD PTR __imp_?LoadFloat@ioINILoader@@QAEMPBDM@Z
  00455	d9 9d c0 fe ff
	ff		 fstp	 DWORD PTR _value$540310[ebp]
  0045b	8d 85 c0 fe ff
	ff		 lea	 eax, DWORD PTR _value$540310[ebp]
  00461	50		 push	 eax
  00462	8d 8b 9c 09 00
	00		 lea	 ecx, DWORD PTR [ebx+2460]
  00468	e8 00 00 00 00	 call	 ?EncryptValueToPool@?$CEncrypt@M@@AAEXPBD@Z ; CEncrypt<float>::EncryptValueToPool
  0046d	6a 03		 push	 3

; 63   : 
; 64   : 	m_dwTraceDuration = (DWORD)rkLoader.LoadInt_e( "trace_duration", 0 );

  0046f	c7 45 e8 99 9e
	8a 89		 mov	 DWORD PTR __k$540327[ebp], -1987404135 ; 898a9e99H
  00476	c7 45 ec 88 b3
	8f 9f		 mov	 DWORD PTR __k$540327[ebp+4], -1617972344 ; 9f8fb388H
  0047d	c7 45 f0 9f 8d
	9f 83		 mov	 DWORD PTR __k$540327[ebp+8], -2086695521 ; 839f8d9fH
  00484	66 c7 45 f4 82
	82		 mov	 WORD PTR __k$540327[ebp+12], 33410 ; 00008282H
  0048a	8d 45 e8	 lea	 eax, DWORD PTR __k$540327[ebp]
  0048d	c6 45 f6 00	 mov	 BYTE PTR __k$540327[ebp+14], 0
  00491	59		 pop	 ecx
$LL1684@LoadProper:
  00492	31 38		 xor	 DWORD PTR [eax], edi
  00494	83 c0 04	 add	 eax, 4
  00497	49		 dec	 ecx
  00498	75 f8		 jne	 SHORT $LL1684@LoadProper
  0049a	6a 0c		 push	 12			; 0000000cH
  0049c	58		 pop	 eax
$LL1681@LoadProper:
  0049d	8b c8		 mov	 ecx, eax
  0049f	81 e1 03 00 00
	80		 and	 ecx, -2147483645	; 80000003H
  004a5	79 05		 jns	 SHORT $LN1922@LoadProper
  004a7	49		 dec	 ecx
  004a8	83 c9 fc	 or	 ecx, -4			; fffffffcH
  004ab	41		 inc	 ecx
$LN1922@LoadProper:
  004ac	b2 ed		 mov	 dl, -19			; ffffffedH
  004ae	2a d1		 sub	 dl, cl
  004b0	30 54 05 e8	 xor	 BYTE PTR __k$540327[ebp+eax], dl
  004b4	40		 inc	 eax
  004b5	83 f8 0e	 cmp	 eax, 14			; 0000000eH
  004b8	7c e3		 jl	 SHORT $LL1681@LoadProper
  004ba	8b 8d bc fe ff
	ff		 mov	 ecx, DWORD PTR _rkLoader$GSCopy$[ebp]
  004c0	6a 00		 push	 0
  004c2	8d 45 e8	 lea	 eax, DWORD PTR __k$540327[ebp]
  004c5	50		 push	 eax
  004c6	ff d6		 call	 esi
  004c8	89 85 c0 fe ff
	ff		 mov	 DWORD PTR _value$540439[ebp], eax
  004ce	8d 85 c0 fe ff
	ff		 lea	 eax, DWORD PTR _value$540439[ebp]
  004d4	50		 push	 eax
  004d5	8d 8b f4 09 00
	00		 lea	 ecx, DWORD PTR [ebx+2548]
  004db	e8 00 00 00 00	 call	 ?EncryptValueToPool@?$CEncrypt@K@@AAEXPBD@Z ; CEncrypt<unsigned long>::EncryptValueToPool
  004e0	6a 03		 push	 3

; 65   : 	
; 66   : 	// Move
; 67   : 	int iCnt = rkLoader.LoadInt_e( "change_dir_cnt", 0 );

  004e2	c7 45 e8 8e 84
	8a 84		 mov	 DWORD PTR __k$540457[ebp], -2071296882 ; 848a848eH
  004e9	c7 45 ec 8a 89
	b4 8e		 mov	 DWORD PTR __k$540457[ebp+4], -1900770934 ; 8eb4898aH
  004f0	c7 45 f0 84 9e
	b4 89		 mov	 DWORD PTR __k$540457[ebp+8], -1984651644 ; 89b49e84H
  004f7	66 c7 45 f4 83
	98		 mov	 WORD PTR __k$540457[ebp+12], 39043 ; 00009883H
  004fd	8d 45 e8	 lea	 eax, DWORD PTR __k$540457[ebp]
  00500	c6 45 f6 00	 mov	 BYTE PTR __k$540457[ebp+14], 0
  00504	59		 pop	 ecx
$LL1792@LoadProper:
  00505	31 38		 xor	 DWORD PTR [eax], edi
  00507	83 c0 04	 add	 eax, 4
  0050a	49		 dec	 ecx
  0050b	75 f8		 jne	 SHORT $LL1792@LoadProper
  0050d	6a 0c		 push	 12			; 0000000cH
  0050f	5f		 pop	 edi
$LL1789@LoadProper:
  00510	8b c7		 mov	 eax, edi
  00512	25 03 00 00 80	 and	 eax, -2147483645	; 80000003H
  00517	79 05		 jns	 SHORT $LN1923@LoadProper
  00519	48		 dec	 eax
  0051a	83 c8 fc	 or	 eax, -4			; fffffffcH
  0051d	40		 inc	 eax
$LN1923@LoadProper:
  0051e	b1 ed		 mov	 cl, -19			; ffffffedH
  00520	2a c8		 sub	 cl, al
  00522	30 4c 3d e8	 xor	 BYTE PTR __k$540457[ebp+edi], cl
  00526	47		 inc	 edi
  00527	83 ff 0e	 cmp	 edi, 14			; 0000000eH
  0052a	7c e4		 jl	 SHORT $LL1789@LoadProper
  0052c	8b 8d bc fe ff
	ff		 mov	 ecx, DWORD PTR _rkLoader$GSCopy$[ebp]
  00532	6a 00		 push	 0
  00534	8d 45 e8	 lea	 eax, DWORD PTR __k$540457[ebp]
  00537	50		 push	 eax
  00538	ff d6		 call	 esi
  0053a	8b f8		 mov	 edi, eax

; 68   : 	if( iCnt <= 0 ) return;

  0053c	85 ff		 test	 edi, edi
  0053e	0f 8e 60 02 00
	00		 jle	 $LN401@LoadProper

; 69   : 
; 70   : 	m_ChangeDirInfoList.clear();

  00544	8d b3 b4 08 00
	00		 lea	 esi, DWORD PTR [ebx+2228]
  0054a	8b ce		 mov	 ecx, esi
  0054c	89 b5 c0 fe ff
	ff		 mov	 DWORD PTR tv12730[ebp], esi
  00552	e8 00 00 00 00	 call	 ?clear@?$vector@UChangeDirInfo@@V?$allocator@UChangeDirInfo@@@std@@@std@@QAEXXZ ; std::vector<ChangeDirInfo,std::allocator<ChangeDirInfo> >::clear

; 71   : 	m_ChangeDirInfoList.reserve( iCnt );

  00557	57		 push	 edi
  00558	8b ce		 mov	 ecx, esi
  0055a	e8 00 00 00 00	 call	 ?reserve@?$vector@UChangeDirInfo@@V?$allocator@UChangeDirInfo@@@std@@@std@@QAEXI@Z ; std::vector<ChangeDirInfo,std::allocator<ChangeDirInfo> >::reserve

; 72   : 
; 73   : 	for( int i=0; i < iCnt; ++i )

  0055f	85 ff		 test	 edi, edi
  00561	0f 8e 1f 02 00
	00		 jle	 $LN397@LoadProper

; 69   : 
; 70   : 	m_ChangeDirInfoList.clear();

  00567	c7 85 b8 fe ff
	ff 01 00 00 00	 mov	 DWORD PTR tv14912[ebp], 1
  00571	89 bd b4 fe ff
	ff		 mov	 DWORD PTR tv3090[ebp], edi
$LL399@LoadProper:

; 74   : 	{
; 75   : 		ChangeDirInfo kInfo;

  00577	8b 35 00 00 00
	00		 mov	 esi, DWORD PTR __imp_?VEC3_ZERO@ioMath@@2UD3DXVECTOR3@@A
  0057d	8d bd d4 fe ff
	ff		 lea	 edi, DWORD PTR _kInfo$530987[ebp+16]
  00583	a5		 movsd
  00584	a5		 movsd
  00585	6a 03		 push	 3
  00587	a5		 movsd

; 76   : 
; 77   : 		wsprintf_e( szBuf, "change_range%d", i+1 );

  00588	c7 45 e8 8e 84
	8a 84		 mov	 DWORD PTR ___encStr$530991[ebp], -2071296882 ; 848a848eH
  0058f	c7 45 ec 8a 89
	b4 98		 mov	 DWORD PTR ___encStr$530991[ebp+4], -1732998774 ; 98b4898aH
  00596	c7 45 f0 8c 82
	8c 8f		 mov	 DWORD PTR ___encStr$530991[ebp+8], -1886616948 ; 8f8c828cH
  0059d	66 c7 45 f4 c8
	88		 mov	 WORD PTR ___encStr$530991[ebp+12], 35016 ; 000088c8H
  005a3	8d 45 e8	 lea	 eax, DWORD PTR ___encStr$530991[ebp]
  005a6	c6 45 f6 00	 mov	 BYTE PTR ___encStr$530991[ebp+14], 0
  005aa	59		 pop	 ecx
$LL1804@LoadProper:
  005ab	81 30 ed ec eb
	ea		 xor	 DWORD PTR [eax], -353637139 ; eaebecedH
  005b1	83 c0 04	 add	 eax, 4
  005b4	49		 dec	 ecx
  005b5	75 f4		 jne	 SHORT $LL1804@LoadProper
  005b7	6a 0c		 push	 12			; 0000000cH
  005b9	5e		 pop	 esi
$LL1801@LoadProper:
  005ba	8b c6		 mov	 eax, esi
  005bc	25 03 00 00 80	 and	 eax, -2147483645	; 80000003H
  005c1	79 05		 jns	 SHORT $LN1924@LoadProper
  005c3	48		 dec	 eax
  005c4	83 c8 fc	 or	 eax, -4			; fffffffcH
  005c7	40		 inc	 eax
$LN1924@LoadProper:
  005c8	b1 ed		 mov	 cl, -19			; ffffffedH
  005ca	2a c8		 sub	 cl, al
  005cc	30 4c 35 e8	 xor	 BYTE PTR ___encStr$530991[ebp+esi], cl
  005d0	46		 inc	 esi
  005d1	83 fe 0e	 cmp	 esi, 14			; 0000000eH
  005d4	7c e4		 jl	 SHORT $LL1801@LoadProper
  005d6	ff b5 b8 fe ff
	ff		 push	 DWORD PTR tv14912[ebp]
  005dc	8b 35 00 00 00
	00		 mov	 esi, DWORD PTR __imp__wsprintfA
  005e2	8d 45 e8	 lea	 eax, DWORD PTR ___encStr$530991[ebp]
  005e5	50		 push	 eax
  005e6	8d 85 e0 fe ff
	ff		 lea	 eax, DWORD PTR _szBuf$[ebp]
  005ec	50		 push	 eax
  005ed	ff d6		 call	 esi

; 78   : 		kInfo.m_fChangeRange = rkLoader.LoadFloat( szBuf, 0.0f );

  005ef	0f 57 c0	 xorps	 xmm0, xmm0
  005f2	59		 pop	 ecx
  005f3	59		 pop	 ecx
  005f4	8b 8d bc fe ff
	ff		 mov	 ecx, DWORD PTR _rkLoader$GSCopy$[ebp]
  005fa	8d 85 e0 fe ff
	ff		 lea	 eax, DWORD PTR _szBuf$[ebp]
  00600	f3 0f 11 04 24	 movss	 DWORD PTR [esp], xmm0
  00605	50		 push	 eax
  00606	ff 15 00 00 00
	00		 call	 DWORD PTR __imp_?LoadFloat@ioINILoader@@QAEMPBDM@Z
  0060c	d9 9d c4 fe ff
	ff		 fstp	 DWORD PTR _kInfo$530987[ebp]
  00612	6a 03		 push	 3

; 79   : 
; 80   : 		wsprintf_e( szBuf, "change_speed%d", i+1 );

  00614	c7 45 e8 8e 84
	8a 84		 mov	 DWORD PTR ___encStr$531144[ebp], -2071296882 ; 848a848eH
  0061b	c7 45 ec 8a 89
	b4 99		 mov	 DWORD PTR ___encStr$531144[ebp+4], -1716221558 ; 99b4898aH
  00622	c7 45 f0 9d 89
	8e 8e		 mov	 DWORD PTR ___encStr$531144[ebp+8], -1903261283 ; 8e8e899dH
  00629	66 c7 45 f4 c8
	88		 mov	 WORD PTR ___encStr$531144[ebp+12], 35016 ; 000088c8H
  0062f	8d 45 e8	 lea	 eax, DWORD PTR ___encStr$531144[ebp]
  00632	c6 45 f6 00	 mov	 BYTE PTR ___encStr$531144[ebp+14], 0
  00636	59		 pop	 ecx
  00637	bf ed ec eb ea	 mov	 edi, -353637139		; eaebecedH
$LL1812@LoadProper:
  0063c	31 38		 xor	 DWORD PTR [eax], edi
  0063e	83 c0 04	 add	 eax, 4
  00641	49		 dec	 ecx
  00642	75 f8		 jne	 SHORT $LL1812@LoadProper
  00644	6a 0c		 push	 12			; 0000000cH
  00646	58		 pop	 eax
$LL1809@LoadProper:
  00647	8b c8		 mov	 ecx, eax
  00649	81 e1 03 00 00
	80		 and	 ecx, -2147483645	; 80000003H
  0064f	79 05		 jns	 SHORT $LN1925@LoadProper
  00651	49		 dec	 ecx
  00652	83 c9 fc	 or	 ecx, -4			; fffffffcH
  00655	41		 inc	 ecx
$LN1925@LoadProper:
  00656	b2 ed		 mov	 dl, -19			; ffffffedH
  00658	2a d1		 sub	 dl, cl
  0065a	30 54 05 e8	 xor	 BYTE PTR ___encStr$531144[ebp+eax], dl
  0065e	40		 inc	 eax
  0065f	83 f8 0e	 cmp	 eax, 14			; 0000000eH
  00662	7c e3		 jl	 SHORT $LL1809@LoadProper
  00664	ff b5 b8 fe ff
	ff		 push	 DWORD PTR tv14912[ebp]
  0066a	8d 45 e8	 lea	 eax, DWORD PTR ___encStr$531144[ebp]
  0066d	50		 push	 eax
  0066e	8d 85 e0 fe ff
	ff		 lea	 eax, DWORD PTR _szBuf$[ebp]
  00674	50		 push	 eax
  00675	ff d6		 call	 esi

; 81   : 		kInfo.m_fChangeSpeed = rkLoader.LoadFloat( szBuf, 0.0f );

  00677	0f 57 c0	 xorps	 xmm0, xmm0
  0067a	59		 pop	 ecx
  0067b	59		 pop	 ecx
  0067c	8b 8d bc fe ff
	ff		 mov	 ecx, DWORD PTR _rkLoader$GSCopy$[ebp]
  00682	8d 85 e0 fe ff
	ff		 lea	 eax, DWORD PTR _szBuf$[ebp]
  00688	f3 0f 11 04 24	 movss	 DWORD PTR [esp], xmm0
  0068d	50		 push	 eax
  0068e	ff 15 00 00 00
	00		 call	 DWORD PTR __imp_?LoadFloat@ioINILoader@@QAEMPBDM@Z
  00694	d9 9d c8 fe ff
	ff		 fstp	 DWORD PTR _kInfo$530987[ebp+4]
  0069a	6a 04		 push	 4

; 82   : 
; 83   : 		wsprintf_e( szBuf, "change_angle_h%d", i+1 );

  0069c	c7 45 e4 8e 84
	8a 84		 mov	 DWORD PTR ___encStr$531296[ebp], -2071296882 ; 848a848eH
  006a3	c7 45 e8 8a 89
	b4 8b		 mov	 DWORD PTR ___encStr$531296[ebp+4], -1951102582 ; 8bb4898aH
  006aa	c7 45 ec 83 8b
	87 8f		 mov	 DWORD PTR ___encStr$531296[ebp+8], -1886942333 ; 8f878b83H
  006b1	c7 45 f0 b2 84
	ce 8e		 mov	 DWORD PTR ___encStr$531296[ebp+12], -1899068238 ; 8ece84b2H
  006b8	8d 45 e4	 lea	 eax, DWORD PTR ___encStr$531296[ebp]
  006bb	c6 45 f4 00	 mov	 BYTE PTR ___encStr$531296[ebp+16], 0
  006bf	59		 pop	 ecx
$LL1820@LoadProper:
  006c0	31 38		 xor	 DWORD PTR [eax], edi
  006c2	83 c0 04	 add	 eax, 4
  006c5	49		 dec	 ecx
  006c6	75 f8		 jne	 SHORT $LL1820@LoadProper
  006c8	ff b5 b8 fe ff
	ff		 push	 DWORD PTR tv14912[ebp]
  006ce	8d 45 e4	 lea	 eax, DWORD PTR ___encStr$531296[ebp]
  006d1	50		 push	 eax
  006d2	8d 85 e0 fe ff
	ff		 lea	 eax, DWORD PTR _szBuf$[ebp]
  006d8	50		 push	 eax
  006d9	ff d6		 call	 esi

; 84   : 		kInfo.m_fChangeAngleH = rkLoader.LoadFloat( szBuf, 0.0f );

  006db	0f 57 c0	 xorps	 xmm0, xmm0
  006de	59		 pop	 ecx
  006df	59		 pop	 ecx
  006e0	8b 8d bc fe ff
	ff		 mov	 ecx, DWORD PTR _rkLoader$GSCopy$[ebp]
  006e6	8d 85 e0 fe ff
	ff		 lea	 eax, DWORD PTR _szBuf$[ebp]
  006ec	f3 0f 11 04 24	 movss	 DWORD PTR [esp], xmm0
  006f1	50		 push	 eax
  006f2	ff 15 00 00 00
	00		 call	 DWORD PTR __imp_?LoadFloat@ioINILoader@@QAEMPBDM@Z
  006f8	d9 9d cc fe ff
	ff		 fstp	 DWORD PTR _kInfo$530987[ebp+8]
  006fe	6a 04		 push	 4

; 85   : 
; 86   : 		wsprintf_e( szBuf, "change_angle_v%d", i+1 );

  00700	c7 45 e4 8e 84
	8a 84		 mov	 DWORD PTR ___encStr$531448[ebp], -2071296882 ; 848a848eH
  00707	c7 45 e8 8a 89
	b4 8b		 mov	 DWORD PTR ___encStr$531448[ebp+4], -1951102582 ; 8bb4898aH
  0070e	c7 45 ec 83 8b
	87 8f		 mov	 DWORD PTR ___encStr$531448[ebp+8], -1886942333 ; 8f878b83H
  00715	c7 45 f0 b2 9a
	ce 8e		 mov	 DWORD PTR ___encStr$531448[ebp+12], -1899062606 ; 8ece9ab2H
  0071c	8d 45 e4	 lea	 eax, DWORD PTR ___encStr$531448[ebp]
  0071f	c6 45 f4 00	 mov	 BYTE PTR ___encStr$531448[ebp+16], 0
  00723	59		 pop	 ecx
$LL1828@LoadProper:
  00724	31 38		 xor	 DWORD PTR [eax], edi
  00726	83 c0 04	 add	 eax, 4
  00729	49		 dec	 ecx
  0072a	75 f8		 jne	 SHORT $LL1828@LoadProper
  0072c	ff b5 b8 fe ff
	ff		 push	 DWORD PTR tv14912[ebp]
  00732	8d 45 e4	 lea	 eax, DWORD PTR ___encStr$531448[ebp]
  00735	50		 push	 eax
  00736	8d 85 e0 fe ff
	ff		 lea	 eax, DWORD PTR _szBuf$[ebp]
  0073c	50		 push	 eax
  0073d	ff d6		 call	 esi

; 87   : 		kInfo.m_fChangeAngleV = rkLoader.LoadFloat( szBuf, 0.0f );

  0073f	0f 57 c0	 xorps	 xmm0, xmm0
  00742	59		 pop	 ecx
  00743	59		 pop	 ecx
  00744	8b 8d bc fe ff
	ff		 mov	 ecx, DWORD PTR _rkLoader$GSCopy$[ebp]
  0074a	8d 85 e0 fe ff
	ff		 lea	 eax, DWORD PTR _szBuf$[ebp]
  00750	f3 0f 11 04 24	 movss	 DWORD PTR [esp], xmm0
  00755	50		 push	 eax
  00756	ff 15 00 00 00
	00		 call	 DWORD PTR __imp_?LoadFloat@ioINILoader@@QAEMPBDM@Z
  0075c	d9 9d d0 fe ff
	ff		 fstp	 DWORD PTR _kInfo$530987[ebp+12]

; 88   : 
; 89   : 		m_ChangeDirInfoList.push_back( kInfo );

  00762	8b 8d c0 fe ff
	ff		 mov	 ecx, DWORD PTR tv12730[ebp]
  00768	8d 85 c4 fe ff
	ff		 lea	 eax, DWORD PTR _kInfo$530987[ebp]
  0076e	50		 push	 eax
  0076f	e8 00 00 00 00	 call	 ?push_back@?$vector@UChangeDirInfo@@V?$allocator@UChangeDirInfo@@@std@@@std@@QAEXABUChangeDirInfo@@@Z ; std::vector<ChangeDirInfo,std::allocator<ChangeDirInfo> >::push_back
  00774	ff 85 b8 fe ff
	ff		 inc	 DWORD PTR tv14912[ebp]
  0077a	ff 8d b4 fe ff
	ff		 dec	 DWORD PTR tv3090[ebp]
  00780	0f 85 f1 fd ff
	ff		 jne	 $LL399@LoadProper
$LN397@LoadProper:

; 90   : 	}
; 91   : 
; 92   : 	std::sort( m_ChangeDirInfoList.begin(), m_ChangeDirInfoList.end(), ChangeDirSort() );

  00786	ff b5 c0 fe ff
	ff		 push	 DWORD PTR $T538904[ebp]
  0078c	8b 9b b8 08 00
	00		 mov	 ebx, DWORD PTR [ebx+2232]
  00792	8b 85 c0 fe ff
	ff		 mov	 eax, DWORD PTR tv12730[ebp]
  00798	8b 00		 mov	 eax, DWORD PTR [eax]
  0079a	53		 push	 ebx
  0079b	50		 push	 eax
  0079c	e8 00 00 00 00	 call	 ??$sort@V?$_Vector_iterator@V?$_Vector_val@UChangeDirInfo@@V?$allocator@UChangeDirInfo@@@std@@@std@@@std@@VChangeDirSort@@@std@@YAXV?$_Vector_iterator@V?$_Vector_val@UChangeDirInfo@@V?$allocator@UChangeDirInfo@@@std@@@std@@@0@0VChangeDirSort@@@Z ; std::sort<std::_Vector_iterator<std::_Vector_val<ChangeDirInfo,std::allocator<ChangeDirInfo> > >,ChangeDirSort>
  007a1	83 c4 0c	 add	 esp, 12			; 0000000cH
$LN401@LoadProper:

; 93   : }

  007a4	8b 4d fc	 mov	 ecx, DWORD PTR __$ArrayPad$[ebp]
  007a7	5f		 pop	 edi
  007a8	5e		 pop	 esi
  007a9	33 cd		 xor	 ecx, ebp
  007ab	5b		 pop	 ebx
  007ac	e8 00 00 00 00	 call	 @__security_check_cookie@4
  007b1	c9		 leave
  007b2	c2 04 00	 ret	 4
?LoadProperty@ioTraceWeapon6@@UAEXAAVioINILoader@@@Z ENDP ; ioTraceWeapon6::LoadProperty
; Function compile flags: /Ogsp
_TEXT	ENDS
;	COMDAT ?Process@ioTraceWeapon6@@UAEXMPAVioPlayStage@@@Z
_TEXT	SEGMENT
tv199 = 8						; size = 4
_fTimePerSec$ = 8					; size = 4
tv202 = 12						; size = 4
_pStage$ = 12						; size = 4
?Process@ioTraceWeapon6@@UAEXMPAVioPlayStage@@@Z PROC	; ioTraceWeapon6::Process, COMDAT
; _this$ = ecx

; 193  : {

  00000	55		 push	 ebp
  00001	8b ec		 mov	 ebp, esp
  00003	56		 push	 esi
  00004	57		 push	 edi
  00005	8b f1		 mov	 esi, ecx

; 194  : 	// 생존시간 넘긴 경우 폭발
; 195  : 	if( m_dwCreatedTime + GetLiveTime() < FRAMEGETTIME() )

  00007	ff 15 00 00 00
	00		 call	 DWORD PTR __imp_?GetSingleton@ioFrameTimer@@SAAAV1@XZ
  0000d	8b c8		 mov	 ecx, eax
  0000f	ff 15 00 00 00
	00		 call	 DWORD PTR __imp_?GetLoopSec@ioFrameTimer@@QBEKXZ
  00015	8b f8		 mov	 edi, eax
  00017	8b 06		 mov	 eax, DWORD PTR [esi]
  00019	8b ce		 mov	 ecx, esi
  0001b	ff 90 04 01 00
	00		 call	 DWORD PTR [eax+260]
  00021	03 86 d4 04 00
	00		 add	 eax, DWORD PTR [esi+1236]
  00027	3b c7		 cmp	 eax, edi
  00029	73 0a		 jae	 SHORT $LN9@Process

; 196  : 	{
; 197  : 		m_State = TS_END;

  0002b	c7 86 94 08 00
	00 04 00 00 00	 mov	 DWORD PTR [esi+2196], 4
$LN9@Process:

; 198  : 	}
; 199  : 
; 200  : 	//
; 201  : 	switch( m_State )

  00035	8b 86 94 08 00
	00		 mov	 eax, DWORD PTR [esi+2196]
  0003b	83 e8 00	 sub	 eax, 0
  0003e	74 61		 je	 SHORT $LN6@Process
  00040	48		 dec	 eax
  00041	74 47		 je	 SHORT $LN5@Process
  00043	48		 dec	 eax
  00044	74 26		 je	 SHORT $LN4@Process
  00046	48		 dec	 eax
  00047	74 0c		 je	 SHORT $LN3@Process
  00049	48		 dec	 eax
  0004a	75 6a		 jne	 SHORT $LN7@Process

; 215  : 	case TS_END:
; 216  : 		SetWeaponDead();

  0004c	8b 06		 mov	 eax, DWORD PTR [esi]
  0004e	8b ce		 mov	 ecx, esi
  00050	ff 50 4c	 call	 DWORD PTR [eax+76]

; 217  : 		break;

  00053	eb 61		 jmp	 SHORT $LN7@Process
$LN3@Process:

; 212  : 	case TS_RETURNING:
; 213  : 		OnReturning( pStage, fTimePerSec );

  00055	f3 0f 10 45 08	 movss	 xmm0, DWORD PTR _fTimePerSec$[ebp]
  0005a	51		 push	 ecx
  0005b	f3 0f 11 04 24	 movss	 DWORD PTR [esp], xmm0
  00060	ff 75 0c	 push	 DWORD PTR _pStage$[ebp]
  00063	8b ce		 mov	 ecx, esi
  00065	e8 00 00 00 00	 call	 ?OnReturning@ioTraceWeapon6@@IAEXPAVioPlayStage@@M@Z ; ioTraceWeapon6::OnReturning

; 214  : 		break;

  0006a	eb 4a		 jmp	 SHORT $LN7@Process
$LN4@Process:

; 209  : 	case TS_TRACING:
; 210  : 		OnTracing( m_TargetName, pStage, fTimePerSec );

  0006c	f3 0f 10 45 08	 movss	 xmm0, DWORD PTR _fTimePerSec$[ebp]
  00071	51		 push	 ecx
  00072	f3 0f 11 04 24	 movss	 DWORD PTR [esp], xmm0
  00077	ff 75 0c	 push	 DWORD PTR _pStage$[ebp]
  0007a	8d 86 e4 09 00
	00		 lea	 eax, DWORD PTR [esi+2532]
  00080	50		 push	 eax
  00081	8b ce		 mov	 ecx, esi
  00083	e8 00 00 00 00	 call	 ?OnTracing@ioTraceWeapon6@@IAE_NAAVioHashString@@PAVioPlayStage@@M@Z ; ioTraceWeapon6::OnTracing

; 211  : 		break;

  00088	eb 2c		 jmp	 SHORT $LN7@Process
$LN5@Process:

; 205  : 		break;
; 206  : 	case TS_SENSING:
; 207  : 		OnSensing( pStage, fTimePerSec );

  0008a	f3 0f 10 45 08	 movss	 xmm0, DWORD PTR _fTimePerSec$[ebp]
  0008f	51		 push	 ecx
  00090	f3 0f 11 04 24	 movss	 DWORD PTR [esp], xmm0
  00095	ff 75 0c	 push	 DWORD PTR _pStage$[ebp]
  00098	8b ce		 mov	 ecx, esi
  0009a	e8 00 00 00 00	 call	 ?OnSensing@ioTraceWeapon6@@IAEXPAVioPlayStage@@M@Z ; ioTraceWeapon6::OnSensing

; 208  : 		break;

  0009f	eb 15		 jmp	 SHORT $LN7@Process
$LN6@Process:

; 202  : 	{
; 203  : 	case TS_MOVE:
; 204  : 		OnMove( pStage, fTimePerSec );

  000a1	f3 0f 10 45 08	 movss	 xmm0, DWORD PTR _fTimePerSec$[ebp]
  000a6	51		 push	 ecx
  000a7	f3 0f 11 04 24	 movss	 DWORD PTR [esp], xmm0
  000ac	ff 75 0c	 push	 DWORD PTR _pStage$[ebp]
  000af	8b ce		 mov	 ecx, esi
  000b1	e8 00 00 00 00	 call	 ?OnMove@ioTraceWeapon6@@IAEXPAVioPlayStage@@M@Z ; ioTraceWeapon6::OnMove
$LN7@Process:

; 218  : 	}
; 219  : 
; 220  : 	if( m_pFireBall )

  000b6	8d 8e 28 0a 00
	00		 lea	 ecx, DWORD PTR [esi+2600]
  000bc	83 39 00	 cmp	 DWORD PTR [ecx], 0
  000bf	5f		 pop	 edi
  000c0	5e		 pop	 esi
  000c1	74 2c		 je	 SHORT $LN1@Process

; 221  : 	{
; 222  : 		m_pFireBall->Update( fTimePerSec * FLOAT1000 );

  000c3	b8 e8 03 00 00	 mov	 eax, 1000		; 000003e8H
  000c8	8b 09		 mov	 ecx, DWORD PTR [ecx]
  000ca	83 c1 14	 add	 ecx, 20			; 00000014H
  000cd	8b 11		 mov	 edx, DWORD PTR [ecx]
  000cf	89 45 0c	 mov	 DWORD PTR tv202[ebp], eax
  000d2	db 45 0c	 fild	 DWORD PTR tv202[ebp]
  000d5	85 c0		 test	 eax, eax
  000d7	79 06		 jns	 SHORT $LN14@Process
  000d9	d8 05 00 00 00
	00		 fadd	 DWORD PTR __real@4f800000
$LN14@Process:
  000df	d8 4d 08	 fmul	 DWORD PTR _fTimePerSec$[ebp]
  000e2	51		 push	 ecx
  000e3	d9 5d 08	 fstp	 DWORD PTR tv199[ebp]
  000e6	d9 45 08	 fld	 DWORD PTR tv199[ebp]
  000e9	d9 1c 24	 fstp	 DWORD PTR [esp]
  000ec	ff 52 40	 call	 DWORD PTR [edx+64]
$LN1@Process:

; 223  : 	}
; 224  : }

  000ef	5d		 pop	 ebp
  000f0	c2 08 00	 ret	 8
?Process@ioTraceWeapon6@@UAEXMPAVioPlayStage@@@Z ENDP	; ioTraceWeapon6::Process
_TEXT	ENDS
END
