; Listing generated by Microsoft (R) Optimizing Compiler Version 16.00.30319.01 

	TITLE	D:\Lost Saga For Developer\Youtube\Tutorial\Source\src\LSClient\ioTraceWeapon5.cpp
	.686P
	.XMM
	include listing.inc
	.model	flat

INCLUDELIB MSVCRT
INCLUDELIB OLDNAMES

PUBLIC	?_EEM_DS@?$deque@UD3DXVECTOR3@@V?$allocator@UD3DXVECTOR3@@@std@@@std@@2HB ; std::deque<D3DXVECTOR3,std::allocator<D3DXVECTOR3> >::_EEM_DS
PUBLIC	?m_ActionStopType@ioTraceWeapon5@@2W4ActionStopType@@A ; ioTraceWeapon5::m_ActionStopType
PUBLIC	?m_DieActionStopType@ioTraceWeapon5@@2W4ActionStopType@@A ; ioTraceWeapon5::m_DieActionStopType
_BSS	SEGMENT
?m_ActionStopType@ioTraceWeapon5@@2W4ActionStopType@@A DD 01H DUP (?) ; ioTraceWeapon5::m_ActionStopType
?m_DieActionStopType@ioTraceWeapon5@@2W4ActionStopType@@A DD 01H DUP (?) ; ioTraceWeapon5::m_DieActionStopType
_BSS	ENDS
;	COMDAT ?_EEM_DS@?$deque@UD3DXVECTOR3@@V?$allocator@UD3DXVECTOR3@@@std@@@std@@2HB
CONST	SEGMENT
?_EEM_DS@?$deque@UD3DXVECTOR3@@V?$allocator@UD3DXVECTOR3@@@std@@@std@@2HB DD 01H ; std::deque<D3DXVECTOR3,std::allocator<D3DXVECTOR3> >::_EEM_DS
CONST	ENDS
PUBLIC	?return1@@YAIXZ					; return1
; Function compile flags: /Ogsp
; File d:\lost saga for developer\youtube\tutorial\source\src\lsclient\stdafx.h
;	COMDAT ?return1@@YAIXZ
_TEXT	SEGMENT
?return1@@YAIXZ PROC					; return1, COMDAT

; 17   : 	__forceinline unsigned int return1() { __asm mov eax, 1 };

  00000	b8 01 00 00 00	 mov	 eax, 1
  00005	c3		 ret	 0
?return1@@YAIXZ ENDP					; return1
_TEXT	ENDS
PUBLIC	?return5@@YAIXZ					; return5
; Function compile flags: /Ogsp
;	COMDAT ?return5@@YAIXZ
_TEXT	SEGMENT
?return5@@YAIXZ PROC					; return5, COMDAT

; 18   : 	__forceinline unsigned int return5() { __asm mov eax, 5 };

  00000	b8 05 00 00 00	 mov	 eax, 5
  00005	c3		 ret	 0
?return5@@YAIXZ ENDP					; return5
_TEXT	ENDS
PUBLIC	?return10@@YAIXZ				; return10
; Function compile flags: /Ogsp
;	COMDAT ?return10@@YAIXZ
_TEXT	SEGMENT
?return10@@YAIXZ PROC					; return10, COMDAT

; 21   : 	__forceinline unsigned int return10() { __asm mov eax, 10 };

  00000	b8 0a 00 00 00	 mov	 eax, 10			; 0000000aH
  00005	c3		 ret	 0
?return10@@YAIXZ ENDP					; return10
_TEXT	ENDS
PUBLIC	?return360@@YAIXZ				; return360
; Function compile flags: /Ogsp
;	COMDAT ?return360@@YAIXZ
_TEXT	SEGMENT
?return360@@YAIXZ PROC					; return360, COMDAT

; 27   : 	__forceinline unsigned int return360() { __asm mov eax, 360 };

  00000	b8 68 01 00 00	 mov	 eax, 360		; 00000168H
  00005	c3		 ret	 0
?return360@@YAIXZ ENDP					; return360
_TEXT	ENDS
PUBLIC	?return1000@@YAIXZ				; return1000
; Function compile flags: /Ogsp
;	COMDAT ?return1000@@YAIXZ
_TEXT	SEGMENT
?return1000@@YAIXZ PROC					; return1000, COMDAT

; 29   : 	__forceinline unsigned int return1000() { __asm mov eax, 1000 };

  00000	b8 e8 03 00 00	 mov	 eax, 1000		; 000003e8H
  00005	c3		 ret	 0
?return1000@@YAIXZ ENDP					; return1000
_TEXT	ENDS
PUBLIC	?GetBlowStopMotionState@ioBaseChar@@QBE_NXZ	; ioBaseChar::GetBlowStopMotionState
; Function compile flags: /Ogsp
; File d:\lost saga for developer\youtube\tutorial\source\src\lsclient\iobasechar.h
;	COMDAT ?GetBlowStopMotionState@ioBaseChar@@QBE_NXZ
_TEXT	SEGMENT
?GetBlowStopMotionState@ioBaseChar@@QBE_NXZ PROC	; ioBaseChar::GetBlowStopMotionState, COMDAT
; _this$ = ecx

; 1566 : 	inline bool GetBlowStopMotionState() const { return m_bBlowStopMotion; }

  00000	8a 81 c7 15 00
	00		 mov	 al, BYTE PTR [ecx+5575]
  00006	c3		 ret	 0
?GetBlowStopMotionState@ioBaseChar@@QBE_NXZ ENDP	; ioBaseChar::GetBlowStopMotionState
_TEXT	ENDS
PUBLIC	?GetBlowFrozenState@ioBaseChar@@QBE_NXZ		; ioBaseChar::GetBlowFrozenState
; Function compile flags: /Ogsp
;	COMDAT ?GetBlowFrozenState@ioBaseChar@@QBE_NXZ
_TEXT	SEGMENT
?GetBlowFrozenState@ioBaseChar@@QBE_NXZ PROC		; ioBaseChar::GetBlowFrozenState, COMDAT
; _this$ = ecx

; 1571 : 	inline bool GetBlowFrozenState() const { return m_bBlowFrozenState; }

  00000	8a 81 c5 15 00
	00		 mov	 al, BYTE PTR [ecx+5573]
  00006	c3		 ret	 0
?GetBlowFrozenState@ioBaseChar@@QBE_NXZ ENDP		; ioBaseChar::GetBlowFrozenState
_TEXT	ENDS
PUBLIC	?GetState@ioBaseChar@@QBE?AW4CharState@@XZ	; ioBaseChar::GetState
; Function compile flags: /Ogsp
;	COMDAT ?GetState@ioBaseChar@@QBE?AW4CharState@@XZ
_TEXT	SEGMENT
?GetState@ioBaseChar@@QBE?AW4CharState@@XZ PROC		; ioBaseChar::GetState, COMDAT
; _this$ = ecx

; 2156 : 	inline CharState GetState() const { return m_CharState; }	

  00000	8a 81 10 03 00
	00		 mov	 al, BYTE PTR [ecx+784]
  00006	c3		 ret	 0
?GetState@ioBaseChar@@QBE?AW4CharState@@XZ ENDP		; ioBaseChar::GetState
_TEXT	ENDS
PUBLIC	?GetCharName@ioBaseChar@@QBEABVioHashString@@XZ	; ioBaseChar::GetCharName
; Function compile flags: /Ogsp
;	COMDAT ?GetCharName@ioBaseChar@@QBEABVioHashString@@XZ
_TEXT	SEGMENT
?GetCharName@ioBaseChar@@QBEABVioHashString@@XZ PROC	; ioBaseChar::GetCharName, COMDAT
; _this$ = ecx

; 2594 : 	inline const ioHashString& GetCharName() const { return m_Name; }

  00000	8d 81 d4 02 00
	00		 lea	 eax, DWORD PTR [ecx+724]
  00006	c3		 ret	 0
?GetCharName@ioBaseChar@@QBEABVioHashString@@XZ ENDP	; ioBaseChar::GetCharName
_TEXT	ENDS
PUBLIC	?GetTargetRot@ioBaseChar@@QBEABUD3DXQUATERNION@@XZ ; ioBaseChar::GetTargetRot
; Function compile flags: /Ogsp
;	COMDAT ?GetTargetRot@ioBaseChar@@QBEABUD3DXQUATERNION@@XZ
_TEXT	SEGMENT
?GetTargetRot@ioBaseChar@@QBEABUD3DXQUATERNION@@XZ PROC	; ioBaseChar::GetTargetRot, COMDAT
; _this$ = ecx

; 2599 : 	inline const D3DXQUATERNION& GetTargetRot() const { return m_qtTargetRot; }

  00000	8d 81 a4 06 00
	00		 lea	 eax, DWORD PTR [ecx+1700]
  00006	c3		 ret	 0
?GetTargetRot@ioBaseChar@@QBEABUD3DXQUATERNION@@XZ ENDP	; ioBaseChar::GetTargetRot
_TEXT	ENDS
PUBLIC	_acosf
EXTRN	__fltused:DWORD
EXTRN	__CIacos:PROC
; Function compile flags: /Ogsp
; File c:\program files (x86)\microsoft visual studio 10.0\vc\include\math.h
;	COMDAT _acosf
_TEXT	SEGMENT
tv69 = 8						; size = 4
__X$ = 8						; size = 4
_acosf	PROC						; COMDAT

; 400  :         {return ((float)acos((double)_X)); }

  00000	55		 push	 ebp
  00001	8b ec		 mov	 ebp, esp
  00003	d9 45 08	 fld	 DWORD PTR __X$[ebp]
  00006	e8 00 00 00 00	 call	 __CIacos
  0000b	d9 5d 08	 fstp	 DWORD PTR tv69[ebp]
  0000e	d9 45 08	 fld	 DWORD PTR tv69[ebp]
  00011	5d		 pop	 ebp
  00012	c3		 ret	 0
_acosf	ENDP
_TEXT	ENDS
PUBLIC	_sqrtf
EXTRN	__CIsqrt:PROC
; Function compile flags: /Ogsp
;	COMDAT _sqrtf
_TEXT	SEGMENT
tv69 = 8						; size = 4
__X$ = 8						; size = 4
_sqrtf	PROC						; COMDAT

; 434  :         {return ((float)sqrt((double)_X)); }

  00000	55		 push	 ebp
  00001	8b ec		 mov	 ebp, esp
  00003	d9 45 08	 fld	 DWORD PTR __X$[ebp]
  00006	e8 00 00 00 00	 call	 __CIsqrt
  0000b	d9 5d 08	 fstp	 DWORD PTR tv69[ebp]
  0000e	d9 45 08	 fld	 DWORD PTR tv69[ebp]
  00011	5d		 pop	 ebp
  00012	c3		 ret	 0
_sqrtf	ENDP
_TEXT	ENDS
PUBLIC	?acos@@YAMM@Z					; acos
; Function compile flags: /Ogsp
;	COMDAT ?acos@@YAMM@Z
_TEXT	SEGMENT
tv73 = 8						; size = 4
__X$ = 8						; size = 4
?acos@@YAMM@Z PROC					; acos, COMDAT

; 502  :         {return (acosf(_X)); }

  00000	55		 push	 ebp
  00001	8b ec		 mov	 ebp, esp
  00003	d9 45 08	 fld	 DWORD PTR __X$[ebp]
  00006	e8 00 00 00 00	 call	 __CIacos
  0000b	d9 5d 08	 fstp	 DWORD PTR tv73[ebp]
  0000e	d9 45 08	 fld	 DWORD PTR tv73[ebp]
  00011	5d		 pop	 ebp
  00012	c3		 ret	 0
?acos@@YAMM@Z ENDP					; acos
_TEXT	ENDS
PUBLIC	?GetCreator@ioBaseChar@@QAEPAVioPlayStage@@XZ	; ioBaseChar::GetCreator
; Function compile flags: /Ogsp
; File d:\lost saga for developer\youtube\tutorial\source\src\lsclient\iobasechar.h
;	COMDAT ?GetCreator@ioBaseChar@@QAEPAVioPlayStage@@XZ
_TEXT	SEGMENT
?GetCreator@ioBaseChar@@QAEPAVioPlayStage@@XZ PROC	; ioBaseChar::GetCreator, COMDAT
; _this$ = ecx

; 4013 : 	inline ioPlayStage* GetCreator() { return m_pCreator; }

  00000	8b 81 44 03 00
	00		 mov	 eax, DWORD PTR [ecx+836]
  00006	c3		 ret	 0
?GetCreator@ioBaseChar@@QAEPAVioPlayStage@@XZ ENDP	; ioBaseChar::GetCreator
_TEXT	ENDS
PUBLIC	?SetLiveTime@ioTraceWeapon5@@UAEXK@Z		; ioTraceWeapon5::SetLiveTime
; Function compile flags: /Ogsp
; File d:\lost saga for developer\youtube\tutorial\source\src\lsclient\iotraceweapon5.cpp
;	COMDAT ?SetLiveTime@ioTraceWeapon5@@UAEXK@Z
_TEXT	SEGMENT
_dwTime$ = 8						; size = 4
?SetLiveTime@ioTraceWeapon5@@UAEXK@Z PROC		; ioTraceWeapon5::SetLiveTime, COMDAT
; _this$ = ecx

; 112  : }

  00000	c2 04 00	 ret	 4
?SetLiveTime@ioTraceWeapon5@@UAEXK@Z ENDP		; ioTraceWeapon5::SetLiveTime
_TEXT	ENDS
PUBLIC	?SetTraceTarget@ioTraceWeapon5@@QAEXAAVioHashString@@@Z ; ioTraceWeapon5::SetTraceTarget
EXTRN	__imp_?GetLoopSec@ioFrameTimer@@QBEKXZ:PROC
EXTRN	__imp_?GetSingleton@ioFrameTimer@@SAAAV1@XZ:PROC
EXTRN	__imp_??4ioHashString@@QAEAAV0@ABV0@@Z:PROC
; Function compile flags: /Ogsp
;	COMDAT ?SetTraceTarget@ioTraceWeapon5@@QAEXAAVioHashString@@@Z
_TEXT	SEGMENT
_szName$ = 8						; size = 4
?SetTraceTarget@ioTraceWeapon5@@QAEXAAVioHashString@@@Z PROC ; ioTraceWeapon5::SetTraceTarget, COMDAT
; _this$ = ecx

; 353  : {

  00000	55		 push	 ebp
  00001	8b ec		 mov	 ebp, esp
  00003	56		 push	 esi

; 354  : 	m_TargetName = szName;

  00004	ff 75 08	 push	 DWORD PTR _szName$[ebp]
  00007	8b f1		 mov	 esi, ecx
  00009	8d 8e 50 0a 00
	00		 lea	 ecx, DWORD PTR [esi+2640]
  0000f	ff 15 00 00 00
	00		 call	 DWORD PTR __imp_??4ioHashString@@QAEAAV0@ABV0@@Z

; 355  : 	m_dwCreatedTime = FRAMEGETTIME();

  00015	ff 15 00 00 00
	00		 call	 DWORD PTR __imp_?GetSingleton@ioFrameTimer@@SAAAV1@XZ
  0001b	8b c8		 mov	 ecx, eax
  0001d	ff 15 00 00 00
	00		 call	 DWORD PTR __imp_?GetLoopSec@ioFrameTimer@@QBEKXZ
  00023	89 86 d4 04 00
	00		 mov	 DWORD PTR [esi+1236], eax
  00029	5e		 pop	 esi

; 356  : 
; 357  : 	/*if( GetOwner()->IsNeedSendNetwork() )
; 358  : 	{
; 359  : 		SP2Packet kPacket( CUPK_WEAPON_SYNC );			
; 360  : 		kPacket << GetOwnerName();
; 361  : 		kPacket << m_iWeaponIdx;
; 362  : 		kPacket << szName;
; 363  : 		P2PNetwork::SendToAllPlayingUser( kPacket );
; 364  : 	}*/
; 365  : }

  0002a	5d		 pop	 ebp
  0002b	c2 04 00	 ret	 4
?SetTraceTarget@ioTraceWeapon5@@QAEXAAVioHashString@@@Z ENDP ; ioTraceWeapon5::SetTraceTarget
_TEXT	ENDS
PUBLIC	?DestroyResource@ioTraceWeapon5@@UAEXPAVioPlayStage@@@Z ; ioTraceWeapon5::DestroyResource
EXTRN	__imp_?DestroyEffect@ioEffectFactory@@QAEXPAVioEffect@@@Z:PROC
EXTRN	__imp_?GetSingleton@ioEffectFactory@@SAAAV1@XZ:PROC
; Function compile flags: /Ogsp
;	COMDAT ?DestroyResource@ioTraceWeapon5@@UAEXPAVioPlayStage@@@Z
_TEXT	SEGMENT
_pStage$ = 8						; size = 4
?DestroyResource@ioTraceWeapon5@@UAEXPAVioPlayStage@@@Z PROC ; ioTraceWeapon5::DestroyResource, COMDAT
; _this$ = ecx

; 376  : {

  00000	56		 push	 esi

; 377  : 	if( m_pFireBall )

  00001	8d b1 94 0a 00
	00		 lea	 esi, DWORD PTR [ecx+2708]
  00007	8b 06		 mov	 eax, DWORD PTR [esi]
  00009	85 c0		 test	 eax, eax
  0000b	74 12		 je	 SHORT $LN1@DestroyRes

; 378  : 	{
; 379  : 		g_EffectFactory.DestroyEffect( m_pFireBall );

  0000d	50		 push	 eax
  0000e	ff 15 00 00 00
	00		 call	 DWORD PTR __imp_?GetSingleton@ioEffectFactory@@SAAAV1@XZ
  00014	8b c8		 mov	 ecx, eax
  00016	ff 15 00 00 00
	00		 call	 DWORD PTR __imp_?DestroyEffect@ioEffectFactory@@QAEXPAVioEffect@@@Z

; 380  : 		m_pFireBall = NULL;

  0001c	83 26 00	 and	 DWORD PTR [esi], 0
$LN1@DestroyRes:
  0001f	5e		 pop	 esi

; 381  : 	}
; 382  : }

  00020	c2 04 00	 ret	 4
?DestroyResource@ioTraceWeapon5@@UAEXPAVioPlayStage@@@Z ENDP ; ioTraceWeapon5::DestroyResource
_TEXT	ENDS
PUBLIC	?GetLocalAttackBox@ioTraceWeapon5@@UBEABVioOrientBox@@XZ ; ioTraceWeapon5::GetLocalAttackBox
EXTRN	?GetLocalAttackBox@ioWeapon@@UBEABVioOrientBox@@XZ:PROC ; ioWeapon::GetLocalAttackBox
EXTRN	__imp_?GetCollisionBox@ioEffect@@QBEABVioOrientBox@@XZ:PROC
; Function compile flags: /Ogsp
;	COMDAT ?GetLocalAttackBox@ioTraceWeapon5@@UBEABVioOrientBox@@XZ
_TEXT	SEGMENT
?GetLocalAttackBox@ioTraceWeapon5@@UBEABVioOrientBox@@XZ PROC ; ioTraceWeapon5::GetLocalAttackBox, COMDAT
; _this$ = ecx

; 386  : 	if( m_pFireBall )

  00000	8b 81 94 0a 00
	00		 mov	 eax, DWORD PTR [ecx+2708]
  00006	85 c0		 test	 eax, eax
  00008	74 08		 je	 SHORT $LN1@GetLocalAt

; 387  : 		return m_pFireBall->GetCollisionBox();

  0000a	8b c8		 mov	 ecx, eax
  0000c	ff 25 00 00 00
	00		 jmp	 DWORD PTR __imp_?GetCollisionBox@ioEffect@@QBEABVioOrientBox@@XZ
$LN1@GetLocalAt:

; 388  : 
; 389  : 	return ioWeapon::GetLocalAttackBox();

  00012	e9 00 00 00 00	 jmp	 ?GetLocalAttackBox@ioWeapon@@UBEABVioOrientBox@@XZ ; ioWeapon::GetLocalAttackBox
?GetLocalAttackBox@ioTraceWeapon5@@UBEABVioOrientBox@@XZ ENDP ; ioTraceWeapon5::GetLocalAttackBox
_TEXT	ENDS
PUBLIC	?GetType@ioTraceWeapon5@@UBE?AW4WeaponType@ioWeapon@@XZ ; ioTraceWeapon5::GetType
; Function compile flags: /Ogsp
;	COMDAT ?GetType@ioTraceWeapon5@@UBE?AW4WeaponType@ioWeapon@@XZ
_TEXT	SEGMENT
?GetType@ioTraceWeapon5@@UBE?AW4WeaponType@ioWeapon@@XZ PROC ; ioTraceWeapon5::GetType, COMDAT
; _this$ = ecx

; 394  : 	return WT_TRACE5;

  00000	6a 3d		 push	 61			; 0000003dH
  00002	58		 pop	 eax

; 395  : }

  00003	c3		 ret	 0
?GetType@ioTraceWeapon5@@UBE?AW4WeaponType@ioWeapon@@XZ ENDP ; ioTraceWeapon5::GetType
_TEXT	ENDS
PUBLIC	?GetActionStopType@ioTraceWeapon5@@UBE?AW4ActionStopType@@XZ ; ioTraceWeapon5::GetActionStopType
; Function compile flags: /Ogsp
;	COMDAT ?GetActionStopType@ioTraceWeapon5@@UBE?AW4ActionStopType@@XZ
_TEXT	SEGMENT
?GetActionStopType@ioTraceWeapon5@@UBE?AW4ActionStopType@@XZ PROC ; ioTraceWeapon5::GetActionStopType, COMDAT
; _this$ = ecx

; 399  : 	return m_ActionStopType;

  00000	a1 00 00 00 00	 mov	 eax, DWORD PTR ?m_ActionStopType@ioTraceWeapon5@@2W4ActionStopType@@A ; ioTraceWeapon5::m_ActionStopType

; 400  : }

  00005	c3		 ret	 0
?GetActionStopType@ioTraceWeapon5@@UBE?AW4ActionStopType@@XZ ENDP ; ioTraceWeapon5::GetActionStopType
_TEXT	ENDS
PUBLIC	?GetDieActionStopType@ioTraceWeapon5@@UBE?AW4ActionStopType@@XZ ; ioTraceWeapon5::GetDieActionStopType
; Function compile flags: /Ogsp
;	COMDAT ?GetDieActionStopType@ioTraceWeapon5@@UBE?AW4ActionStopType@@XZ
_TEXT	SEGMENT
?GetDieActionStopType@ioTraceWeapon5@@UBE?AW4ActionStopType@@XZ PROC ; ioTraceWeapon5::GetDieActionStopType, COMDAT
; _this$ = ecx

; 404  : 	return m_DieActionStopType;

  00000	a1 00 00 00 00	 mov	 eax, DWORD PTR ?m_DieActionStopType@ioTraceWeapon5@@2W4ActionStopType@@A ; ioTraceWeapon5::m_DieActionStopType

; 405  : }

  00005	c3		 ret	 0
?GetDieActionStopType@ioTraceWeapon5@@UBE?AW4ActionStopType@@XZ ENDP ; ioTraceWeapon5::GetDieActionStopType
_TEXT	ENDS
PUBLIC	__real@00000000
PUBLIC	?GetMoveSpeed@ioTraceWeapon5@@IAEMXZ		; ioTraceWeapon5::GetMoveSpeed
;	COMDAT __real@00000000
CONST	SEGMENT
__real@00000000 DD 000000000r			; 0
; Function compile flags: /Ogsp
CONST	ENDS
;	COMDAT ?GetMoveSpeed@ioTraceWeapon5@@IAEMXZ
_TEXT	SEGMENT
?GetMoveSpeed@ioTraceWeapon5@@IAEMXZ PROC		; ioTraceWeapon5::GetMoveSpeed, COMDAT
; _this$ = ecx

; 442  : {

  00000	56		 push	 esi
  00001	8b f1		 mov	 esi, ecx

; 443  : 	if( m_fCurMoveSpeed == 0.0f )

  00003	f3 0f 10 86 08
	09 00 00	 movss	 xmm0, DWORD PTR [esi+2312]
  0000b	0f 2e 05 00 00
	00 00		 ucomiss xmm0, DWORD PTR __real@00000000
  00012	9f		 lahf
  00013	f6 c4 44	 test	 ah, 68			; 00000044H
  00016	7a 14		 jp	 SHORT $LN1@GetMoveSpe

; 444  : 		m_fCurMoveSpeed = GetAttribute()->m_fMoveSpeed;

  00018	8b 06		 mov	 eax, DWORD PTR [esi]
  0001a	ff 90 3c 01 00
	00		 call	 DWORD PTR [eax+316]
  00020	d9 80 98 01 00
	00		 fld	 DWORD PTR [eax+408]
  00026	d9 9e 08 09 00
	00		 fstp	 DWORD PTR [esi+2312]
$LN1@GetMoveSpe:

; 445  : 
; 446  : 	return m_fCurMoveSpeed;

  0002c	d9 86 08 09 00
	00		 fld	 DWORD PTR [esi+2312]
  00032	5e		 pop	 esi

; 447  : }

  00033	c3		 ret	 0
?GetMoveSpeed@ioTraceWeapon5@@IAEMXZ ENDP		; ioTraceWeapon5::GetMoveSpeed
_TEXT	ENDS
PUBLIC	?ApplyWeaponSync@ioTraceWeapon5@@UAEXAAVSP2Packet@@PAVioPlayStage@@@Z ; ioTraceWeapon5::ApplyWeaponSync
; Function compile flags: /Ogsp
;	COMDAT ?ApplyWeaponSync@ioTraceWeapon5@@UAEXAAVSP2Packet@@PAVioPlayStage@@@Z
_TEXT	SEGMENT
_rkPacket$ = 8						; size = 4
_pStage$ = 12						; size = 4
?ApplyWeaponSync@ioTraceWeapon5@@UAEXAAVSP2Packet@@PAVioPlayStage@@@Z PROC ; ioTraceWeapon5::ApplyWeaponSync, COMDAT
; _this$ = ecx

; 451  : }

  00000	c2 08 00	 ret	 8
?ApplyWeaponSync@ioTraceWeapon5@@UAEXAAVSP2Packet@@PAVioPlayStage@@@Z ENDP ; ioTraceWeapon5::ApplyWeaponSync
_TEXT	ENDS
PUBLIC	?SetWeaponDead@ioTraceWeapon5@@UAEXXZ		; ioTraceWeapon5::SetWeaponDead
EXTRN	?CreateMapEffect@ioPlayStage@@QAEPAVioMapEffect@@ABVioHashString@@ABUD3DXVECTOR3@@1@Z:PROC ; ioPlayStage::CreateMapEffect
EXTRN	?GetExplosionEffectName@ioWeapon@@QBEABVioHashString@@XZ:PROC ; ioWeapon::GetExplosionEffectName
EXTRN	__imp_?GetCenter@ioOrientBox@@QBEABUD3DXVECTOR3@@XZ:PROC
EXTRN	?GetWorldAttackBox@ioWeapon@@QBEABVioOrientBox@@_N@Z:PROC ; ioWeapon::GetWorldAttackBox
EXTRN	?GetScale@ioWeapon@@QBEABUD3DXVECTOR3@@XZ:PROC	; ioWeapon::GetScale
EXTRN	?GetOwner@ioWeapon@@QBEPAVioBaseChar@@XZ:PROC	; ioWeapon::GetOwner
; Function compile flags: /Ogsp
;	COMDAT ?SetWeaponDead@ioTraceWeapon5@@UAEXXZ
_TEXT	SEGMENT
?SetWeaponDead@ioTraceWeapon5@@UAEXXZ PROC		; ioTraceWeapon5::SetWeaponDead, COMDAT
; _this$ = ecx

; 465  : {

  00000	56		 push	 esi
  00001	8b f1		 mov	 esi, ecx

; 466  : 	if( m_State == TS_ROTATE && GetOwner() && GetOwner()->GetCreator() )

  00003	83 be 94 08 00
	00 00		 cmp	 DWORD PTR [esi+2196], 0
  0000a	75 58		 jne	 SHORT $LN1@SetWeaponD
  0000c	e8 00 00 00 00	 call	 ?GetOwner@ioWeapon@@QBEPAVioBaseChar@@XZ ; ioWeapon::GetOwner
  00011	85 c0		 test	 eax, eax
  00013	74 4f		 je	 SHORT $LN1@SetWeaponD
  00015	8b ce		 mov	 ecx, esi
  00017	e8 00 00 00 00	 call	 ?GetOwner@ioWeapon@@QBEPAVioBaseChar@@XZ ; ioWeapon::GetOwner
  0001c	83 b8 44 03 00
	00 00		 cmp	 DWORD PTR [eax+836], 0
  00023	74 3f		 je	 SHORT $LN1@SetWeaponD

; 467  : 	{
; 468  : 		GetOwner()->GetCreator()->CreateMapEffect( GetExplosionEffectName(), GetWorldAttackBox().GetCenter(), GetScale() );

  00025	57		 push	 edi
  00026	8b ce		 mov	 ecx, esi
  00028	e8 00 00 00 00	 call	 ?GetOwner@ioWeapon@@QBEPAVioBaseChar@@XZ ; ioWeapon::GetOwner
  0002d	8b b8 44 03 00
	00		 mov	 edi, DWORD PTR [eax+836]
  00033	8b ce		 mov	 ecx, esi
  00035	e8 00 00 00 00	 call	 ?GetScale@ioWeapon@@QBEABUD3DXVECTOR3@@XZ ; ioWeapon::GetScale
  0003a	50		 push	 eax
  0003b	6a 00		 push	 0
  0003d	8b ce		 mov	 ecx, esi
  0003f	e8 00 00 00 00	 call	 ?GetWorldAttackBox@ioWeapon@@QBEABVioOrientBox@@_N@Z ; ioWeapon::GetWorldAttackBox
  00044	8b c8		 mov	 ecx, eax
  00046	ff 15 00 00 00
	00		 call	 DWORD PTR __imp_?GetCenter@ioOrientBox@@QBEABUD3DXVECTOR3@@XZ
  0004c	50		 push	 eax
  0004d	8b ce		 mov	 ecx, esi
  0004f	e8 00 00 00 00	 call	 ?GetExplosionEffectName@ioWeapon@@QBEABVioHashString@@XZ ; ioWeapon::GetExplosionEffectName
  00054	50		 push	 eax
  00055	8b cf		 mov	 ecx, edi
  00057	e8 00 00 00 00	 call	 ?CreateMapEffect@ioPlayStage@@QAEPAVioMapEffect@@ABVioHashString@@ABUD3DXVECTOR3@@1@Z ; ioPlayStage::CreateMapEffect

; 469  : 		PlayExplosionSound();

  0005c	8b 06		 mov	 eax, DWORD PTR [esi]
  0005e	8b ce		 mov	 ecx, esi
  00060	ff 50 50	 call	 DWORD PTR [eax+80]
  00063	5f		 pop	 edi
$LN1@SetWeaponD:

; 470  : 	}
; 471  : 
; 472  : 	StopLoopSound();

  00064	8b 06		 mov	 eax, DWORD PTR [esi]
  00066	8b ce		 mov	 ecx, esi
  00068	ff 50 60	 call	 DWORD PTR [eax+96]

; 473  : 	m_bLive = false;

  0006b	c6 86 82 05 00
	00 00		 mov	 BYTE PTR [esi+1410], 0
  00072	5e		 pop	 esi

; 474  : }

  00073	c3		 ret	 0
?SetWeaponDead@ioTraceWeapon5@@UAEXXZ ENDP		; ioTraceWeapon5::SetWeaponDead
_TEXT	ENDS
PUBLIC	?CheckDownTargetState@ioTraceWeapon5@@IAE_NPAVioBaseChar@@@Z ; ioTraceWeapon5::CheckDownTargetState
EXTRN	?IsApplyDownState@ioBaseChar@@QAE_N_N@Z:PROC	; ioBaseChar::IsApplyDownState
EXTRN	?IsFloatingState@ioBaseChar@@QBE_NXZ:PROC	; ioBaseChar::IsFloatingState
; Function compile flags: /Ogsp
;	COMDAT ?CheckDownTargetState@ioTraceWeapon5@@IAE_NPAVioBaseChar@@@Z
_TEXT	SEGMENT
_pTarget$ = 8						; size = 4
?CheckDownTargetState@ioTraceWeapon5@@IAE_NPAVioBaseChar@@@Z PROC ; ioTraceWeapon5::CheckDownTargetState, COMDAT
; _this$ = ecx

; 510  : {

  00000	55		 push	 ebp
  00001	8b ec		 mov	 ebp, esp

; 511  : 	if( !pTarget ) return false;

  00003	8b 4d 08	 mov	 ecx, DWORD PTR _pTarget$[ebp]
  00006	33 d2		 xor	 edx, edx
  00008	3b ca		 cmp	 ecx, edx
  0000a	74 23		 je	 SHORT $LN1@CheckDownT

; 512  : 
; 513  : 	CharState eState = pTarget->GetState();

  0000c	8a 81 10 03 00
	00		 mov	 al, BYTE PTR [ecx+784]

; 514  : 
; 515  : 	if( eState == CS_FROZEN && pTarget->GetBlowFrozenState() )

  00012	3c 17		 cmp	 al, 23			; 00000017H
  00014	75 0c		 jne	 SHORT $LN6@CheckDownT
  00016	38 91 c5 15 00
	00		 cmp	 BYTE PTR [ecx+5573], dl
$LN17@CheckDownT:
  0001c	74 11		 je	 SHORT $LN1@CheckDownT
$LN16@CheckDownT:

; 516  : 		return true;

  0001e	b0 01		 mov	 al, 1
  00020	eb 0f		 jmp	 SHORT $LN8@CheckDownT
$LN6@CheckDownT:

; 517  : 
; 518  : 	if( eState == CS_BLOW_WOUNDED && !pTarget->IsFloatingState() )

  00022	3c 0c		 cmp	 al, 12			; 0000000cH
  00024	75 0f		 jne	 SHORT $LN5@CheckDownT
$LN19@CheckDownT:
  00026	e8 00 00 00 00	 call	 ?IsFloatingState@ioBaseChar@@QBE_NXZ ; ioBaseChar::IsFloatingState
  0002b	84 c0		 test	 al, al
  0002d	74 ef		 je	 SHORT $LN16@CheckDownT
$LN1@CheckDownT:

; 532  : 
; 533  : 	return false;

  0002f	32 c0		 xor	 al, al
$LN8@CheckDownT:

; 534  : }

  00031	5d		 pop	 ebp
  00032	c2 04 00	 ret	 4
$LN5@CheckDownT:

; 519  : 		return true;
; 520  : 
; 521  : 	if( eState == CS_BOUND_BLOW_WOUNDED && !pTarget->IsFloatingState() )

  00035	3c 31		 cmp	 al, 49			; 00000031H

; 522  : 		return true;

  00037	74 ed		 je	 SHORT $LN19@CheckDownT

; 523  : 
; 524  : 	if( eState == CS_ETC_STATE && pTarget->IsApplyDownState(false) )

  00039	3c 0f		 cmp	 al, 15			; 0000000fH
  0003b	75 0a		 jne	 SHORT $LN3@CheckDownT
$LN18@CheckDownT:
  0003d	52		 push	 edx
  0003e	e8 00 00 00 00	 call	 ?IsApplyDownState@ioBaseChar@@QAE_N_N@Z ; ioBaseChar::IsApplyDownState
  00043	84 c0		 test	 al, al

; 525  : 		return true;

  00045	eb d5		 jmp	 SHORT $LN17@CheckDownT
$LN3@CheckDownT:

; 526  : 
; 527  : 	if( eState == CS_USING_SKILL && pTarget->IsApplyDownState(false) )

  00047	3c 07		 cmp	 al, 7

; 528  : 		return true;

  00049	74 f2		 je	 SHORT $LN18@CheckDownT

; 529  : 
; 530  : 	if( eState == CS_STOP_MOTION && pTarget->GetBlowStopMotionState() )

  0004b	3c 26		 cmp	 al, 38			; 00000026H
  0004d	75 e0		 jne	 SHORT $LN1@CheckDownT
  0004f	38 91 c7 15 00
	00		 cmp	 BYTE PTR [ecx+5575], dl

; 531  : 		return true;

  00055	eb c5		 jmp	 SHORT $LN17@CheckDownT
?CheckDownTargetState@ioTraceWeapon5@@IAE_NPAVioBaseChar@@@Z ENDP ; ioTraceWeapon5::CheckDownTargetState
_TEXT	ENDS
PUBLIC	?IsIgnoreMapCollision@ioTraceWeapon5@@UBE_NXZ	; ioTraceWeapon5::IsIgnoreMapCollision
; Function compile flags: /Ogsp
;	COMDAT ?IsIgnoreMapCollision@ioTraceWeapon5@@UBE_NXZ
_TEXT	SEGMENT
?IsIgnoreMapCollision@ioTraceWeapon5@@UBE_NXZ PROC	; ioTraceWeapon5::IsIgnoreMapCollision, COMDAT
; _this$ = ecx

; 538  : 	if( m_State == TS_ROTATE )

  00000	83 b9 94 08 00
	00 00		 cmp	 DWORD PTR [ecx+2196], 0
  00007	0f 94 c0	 sete	 al

; 539  : 		return true;
; 540  : 
; 541  : 	return false;
; 542  : }

  0000a	c3		 ret	 0
?IsIgnoreMapCollision@ioTraceWeapon5@@UBE_NXZ ENDP	; ioTraceWeapon5::IsIgnoreMapCollision
_TEXT	ENDS
PUBLIC	?IsIgnoreTestMapCollision@ioTraceWeapon5@@UBE_NXZ ; ioTraceWeapon5::IsIgnoreTestMapCollision
; Function compile flags: /Ogsp
;	COMDAT ?IsIgnoreTestMapCollision@ioTraceWeapon5@@UBE_NXZ
_TEXT	SEGMENT
?IsIgnoreTestMapCollision@ioTraceWeapon5@@UBE_NXZ PROC	; ioTraceWeapon5::IsIgnoreTestMapCollision, COMDAT
; _this$ = ecx

; 546  : 	if( m_State == TS_ROTATE )

  00000	83 b9 94 08 00
	00 00		 cmp	 DWORD PTR [ecx+2196], 0
  00007	0f 94 c0	 sete	 al

; 547  : 		return true;
; 548  : 
; 549  : 	return false;
; 550  : }

  0000a	c3		 ret	 0
?IsIgnoreTestMapCollision@ioTraceWeapon5@@UBE_NXZ ENDP	; ioTraceWeapon5::IsIgnoreTestMapCollision
_TEXT	ENDS
PUBLIC	__real@3f91df46a2526c7a
PUBLIC	??$DEGtoRAD@M@@YAMM@Z				; DEGtoRAD<float>
;	COMDAT __real@3f91df46a2526c7a
; File d:\lost saga for developer\youtube\tutorial\source\src\lsclient\veryoftenusedefine.h
CONST	SEGMENT
__real@3f91df46a2526c7a DQ 03f91df46a2526c7ar	; 0.0174533
; Function compile flags: /Ogsp
CONST	ENDS
;	COMDAT ??$DEGtoRAD@M@@YAMM@Z
_TEXT	SEGMENT
tv129 = 8						; size = 4
_val$ = 8						; size = 4
??$DEGtoRAD@M@@YAMM@Z PROC				; DEGtoRAD<float>, COMDAT

; 20   : type  DEGtoRAD (type val) {return (type) (val * 0.0174532925199);}

  00000	55		 push	 ebp
  00001	8b ec		 mov	 ebp, esp
  00003	d9 45 08	 fld	 DWORD PTR _val$[ebp]
  00006	dc 0d 00 00 00
	00		 fmul	 QWORD PTR __real@3f91df46a2526c7a
  0000c	d9 5d 08	 fstp	 DWORD PTR tv129[ebp]
  0000f	d9 45 08	 fld	 DWORD PTR tv129[ebp]
  00012	5d		 pop	 ebp
  00013	c3		 ret	 0
??$DEGtoRAD@M@@YAMM@Z ENDP				; DEGtoRAD<float>
_TEXT	ENDS
PUBLIC	??0D3DXVECTOR3@@QAE@XZ				; D3DXVECTOR3::D3DXVECTOR3
; Function compile flags: /Ogsp
; File c:\program files (x86)\microsoft directx sdk (june 2010)\include\d3dx9math.h
;	COMDAT ??0D3DXVECTOR3@@QAE@XZ
_TEXT	SEGMENT
??0D3DXVECTOR3@@QAE@XZ PROC				; D3DXVECTOR3::D3DXVECTOR3, COMDAT
; _this$ = ecx

; 165  :     D3DXVECTOR3() {};

  00000	8b c1		 mov	 eax, ecx
  00002	c3		 ret	 0
??0D3DXVECTOR3@@QAE@XZ ENDP				; D3DXVECTOR3::D3DXVECTOR3
_TEXT	ENDS
PUBLIC	??0D3DXQUATERNION@@QAE@XZ			; D3DXQUATERNION::D3DXQUATERNION
; Function compile flags: /Ogsp
;	COMDAT ??0D3DXQUATERNION@@QAE@XZ
_TEXT	SEGMENT
??0D3DXQUATERNION@@QAE@XZ PROC				; D3DXQUATERNION::D3DXQUATERNION, COMDAT
; _this$ = ecx

; 429  :     D3DXQUATERNION() {}

  00000	8b c1		 mov	 eax, ecx
  00002	c3		 ret	 0
??0D3DXQUATERNION@@QAE@XZ ENDP				; D3DXQUATERNION::D3DXQUATERNION
_TEXT	ENDS
PUBLIC	??0D3DXVECTOR3@@QAE@MMM@Z			; D3DXVECTOR3::D3DXVECTOR3
; Function compile flags: /Ogsp
; File c:\program files (x86)\microsoft directx sdk (june 2010)\include\d3dx9math.inl
;	COMDAT ??0D3DXVECTOR3@@QAE@MMM@Z
_TEXT	SEGMENT
_fx$ = 8						; size = 4
_fy$ = 12						; size = 4
_fz$ = 16						; size = 4
??0D3DXVECTOR3@@QAE@MMM@Z PROC				; D3DXVECTOR3::D3DXVECTOR3, COMDAT
; _this$ = ecx

; 303  : {

  00000	55		 push	 ebp
  00001	8b ec		 mov	 ebp, esp

; 304  :     x = fx;

  00003	f3 0f 10 45 08	 movss	 xmm0, DWORD PTR _fx$[ebp]
  00008	8b c1		 mov	 eax, ecx
  0000a	f3 0f 11 00	 movss	 DWORD PTR [eax], xmm0

; 305  :     y = fy;

  0000e	f3 0f 10 45 0c	 movss	 xmm0, DWORD PTR _fy$[ebp]
  00013	f3 0f 11 40 04	 movss	 DWORD PTR [eax+4], xmm0

; 306  :     z = fz;

  00018	f3 0f 10 45 10	 movss	 xmm0, DWORD PTR _fz$[ebp]
  0001d	f3 0f 11 40 08	 movss	 DWORD PTR [eax+8], xmm0

; 307  : }

  00022	5d		 pop	 ebp
  00023	c2 0c 00	 ret	 12			; 0000000cH
??0D3DXVECTOR3@@QAE@MMM@Z ENDP				; D3DXVECTOR3::D3DXVECTOR3
_TEXT	ENDS
PUBLIC	??YD3DXVECTOR3@@QAEAAU0@ABU0@@Z			; D3DXVECTOR3::operator+=
; Function compile flags: /Ogsp
;	COMDAT ??YD3DXVECTOR3@@QAEAAU0@ABU0@@Z
_TEXT	SEGMENT
_v$ = 8							; size = 4
??YD3DXVECTOR3@@QAEAAU0@ABU0@@Z PROC			; D3DXVECTOR3::operator+=, COMDAT
; _this$ = ecx

; 327  : {

  00000	55		 push	 ebp
  00001	8b ec		 mov	 ebp, esp
  00003	8b c1		 mov	 eax, ecx

; 328  :     x += v.x;

  00005	8b 4d 08	 mov	 ecx, DWORD PTR _v$[ebp]
  00008	f3 0f 10 01	 movss	 xmm0, DWORD PTR [ecx]
  0000c	f3 0f 10 08	 movss	 xmm1, DWORD PTR [eax]
  00010	0f 5a c0	 cvtps2pd xmm0, xmm0
  00013	0f 5a c9	 cvtps2pd xmm1, xmm1
  00016	f2 0f 58 c1	 addsd	 xmm0, xmm1

; 329  :     y += v.y;

  0001a	f3 0f 10 48 04	 movss	 xmm1, DWORD PTR [eax+4]
  0001f	66 0f 5a c0	 cvtpd2ps xmm0, xmm0
  00023	f3 0f 11 00	 movss	 DWORD PTR [eax], xmm0
  00027	f3 0f 10 41 04	 movss	 xmm0, DWORD PTR [ecx+4]
  0002c	0f 5a c0	 cvtps2pd xmm0, xmm0
  0002f	0f 5a c9	 cvtps2pd xmm1, xmm1
  00032	f2 0f 58 c1	 addsd	 xmm0, xmm1

; 330  :     z += v.z;

  00036	f3 0f 10 48 08	 movss	 xmm1, DWORD PTR [eax+8]
  0003b	66 0f 5a c0	 cvtpd2ps xmm0, xmm0
  0003f	f3 0f 11 40 04	 movss	 DWORD PTR [eax+4], xmm0
  00044	f3 0f 10 41 08	 movss	 xmm0, DWORD PTR [ecx+8]
  00049	0f 5a c0	 cvtps2pd xmm0, xmm0
  0004c	0f 5a c9	 cvtps2pd xmm1, xmm1
  0004f	f2 0f 58 c1	 addsd	 xmm0, xmm1
  00053	66 0f 5a c0	 cvtpd2ps xmm0, xmm0
  00057	f3 0f 11 40 08	 movss	 DWORD PTR [eax+8], xmm0

; 331  :     return *this;
; 332  : }

  0005c	5d		 pop	 ebp
  0005d	c2 04 00	 ret	 4
??YD3DXVECTOR3@@QAEAAU0@ABU0@@Z ENDP			; D3DXVECTOR3::operator+=
_TEXT	ENDS
PUBLIC	__mask@@NegFloat@
PUBLIC	??GD3DXVECTOR3@@QBE?AU0@XZ			; D3DXVECTOR3::operator-
;	COMDAT __mask@@NegFloat@
CONST	SEGMENT
__mask@@NegFloat@ DB 00H, 00H, 00H, 080H, 00H, 00H, 00H, 080H, 00H, 00H, 00H
	DB	080H, 00H, 00H, 00H, 080H
; Function compile flags: /Ogsp
CONST	ENDS
;	COMDAT ??GD3DXVECTOR3@@QBE?AU0@XZ
_TEXT	SEGMENT
___$ReturnUdt$ = 8					; size = 4
??GD3DXVECTOR3@@QBE?AU0@XZ PROC				; D3DXVECTOR3::operator-, COMDAT
; _this$ = ecx

; 372  : {

  00000	55		 push	 ebp
  00001	8b ec		 mov	 ebp, esp

; 373  :     return D3DXVECTOR3(-x, -y, -z);

  00003	f3 0f 10 05 00
	00 00 00	 movss	 xmm0, DWORD PTR __mask@@NegFloat@
  0000b	8b 45 08	 mov	 eax, DWORD PTR ___$ReturnUdt$[ebp]
  0000e	f3 0f 10 09	 movss	 xmm1, DWORD PTR [ecx]
  00012	0f 57 c8	 xorps	 xmm1, xmm0
  00015	f3 0f 11 08	 movss	 DWORD PTR [eax], xmm1
  00019	f3 0f 10 49 04	 movss	 xmm1, DWORD PTR [ecx+4]
  0001e	0f 57 c8	 xorps	 xmm1, xmm0
  00021	f3 0f 11 48 04	 movss	 DWORD PTR [eax+4], xmm1
  00026	f3 0f 10 49 08	 movss	 xmm1, DWORD PTR [ecx+8]
  0002b	0f 57 c8	 xorps	 xmm1, xmm0
  0002e	f3 0f 11 48 08	 movss	 DWORD PTR [eax+8], xmm1

; 374  : }

  00033	5d		 pop	 ebp
  00034	c2 04 00	 ret	 4
??GD3DXVECTOR3@@QBE?AU0@XZ ENDP				; D3DXVECTOR3::operator-
_TEXT	ENDS
PUBLIC	??HD3DXVECTOR3@@QBE?AU0@ABU0@@Z			; D3DXVECTOR3::operator+
; Function compile flags: /Ogsp
;	COMDAT ??HD3DXVECTOR3@@QBE?AU0@ABU0@@Z
_TEXT	SEGMENT
___$ReturnUdt$ = 8					; size = 4
_v$ = 12						; size = 4
??HD3DXVECTOR3@@QBE?AU0@ABU0@@Z PROC			; D3DXVECTOR3::operator+, COMDAT
; _this$ = ecx

; 380  : {

  00000	55		 push	 ebp
  00001	8b ec		 mov	 ebp, esp

; 381  :     return D3DXVECTOR3(x + v.x, y + v.y, z + v.z);

  00003	8b 55 0c	 mov	 edx, DWORD PTR _v$[ebp]
  00006	f3 0f 10 02	 movss	 xmm0, DWORD PTR [edx]
  0000a	f3 0f 10 09	 movss	 xmm1, DWORD PTR [ecx]
  0000e	8b 45 08	 mov	 eax, DWORD PTR ___$ReturnUdt$[ebp]
  00011	0f 5a c0	 cvtps2pd xmm0, xmm0
  00014	0f 5a c9	 cvtps2pd xmm1, xmm1
  00017	f2 0f 58 c1	 addsd	 xmm0, xmm1
  0001b	f3 0f 10 49 04	 movss	 xmm1, DWORD PTR [ecx+4]
  00020	66 0f 5a c0	 cvtpd2ps xmm0, xmm0
  00024	f3 0f 11 00	 movss	 DWORD PTR [eax], xmm0
  00028	f3 0f 10 42 04	 movss	 xmm0, DWORD PTR [edx+4]
  0002d	0f 5a c0	 cvtps2pd xmm0, xmm0
  00030	0f 5a c9	 cvtps2pd xmm1, xmm1
  00033	f2 0f 58 c1	 addsd	 xmm0, xmm1
  00037	f3 0f 10 49 08	 movss	 xmm1, DWORD PTR [ecx+8]
  0003c	66 0f 5a c0	 cvtpd2ps xmm0, xmm0
  00040	f3 0f 11 40 04	 movss	 DWORD PTR [eax+4], xmm0
  00045	f3 0f 10 42 08	 movss	 xmm0, DWORD PTR [edx+8]
  0004a	0f 5a c0	 cvtps2pd xmm0, xmm0
  0004d	0f 5a c9	 cvtps2pd xmm1, xmm1
  00050	f2 0f 58 c1	 addsd	 xmm0, xmm1
  00054	66 0f 5a c0	 cvtpd2ps xmm0, xmm0
  00058	f3 0f 11 40 08	 movss	 DWORD PTR [eax+8], xmm0

; 382  : }

  0005d	5d		 pop	 ebp
  0005e	c2 08 00	 ret	 8
??HD3DXVECTOR3@@QBE?AU0@ABU0@@Z ENDP			; D3DXVECTOR3::operator+
_TEXT	ENDS
PUBLIC	??GD3DXVECTOR3@@QBE?AU0@ABU0@@Z			; D3DXVECTOR3::operator-
; Function compile flags: /Ogsp
;	COMDAT ??GD3DXVECTOR3@@QBE?AU0@ABU0@@Z
_TEXT	SEGMENT
___$ReturnUdt$ = 8					; size = 4
_v$ = 12						; size = 4
??GD3DXVECTOR3@@QBE?AU0@ABU0@@Z PROC			; D3DXVECTOR3::operator-, COMDAT
; _this$ = ecx

; 386  : {

  00000	55		 push	 ebp
  00001	8b ec		 mov	 ebp, esp

; 387  :     return D3DXVECTOR3(x - v.x, y - v.y, z - v.z);

  00003	8b 55 0c	 mov	 edx, DWORD PTR _v$[ebp]
  00006	f3 0f 10 01	 movss	 xmm0, DWORD PTR [ecx]
  0000a	f3 0f 10 0a	 movss	 xmm1, DWORD PTR [edx]
  0000e	8b 45 08	 mov	 eax, DWORD PTR ___$ReturnUdt$[ebp]
  00011	0f 5a c0	 cvtps2pd xmm0, xmm0
  00014	0f 5a c9	 cvtps2pd xmm1, xmm1
  00017	f2 0f 5c c1	 subsd	 xmm0, xmm1
  0001b	f3 0f 10 4a 04	 movss	 xmm1, DWORD PTR [edx+4]
  00020	66 0f 5a c0	 cvtpd2ps xmm0, xmm0
  00024	f3 0f 11 00	 movss	 DWORD PTR [eax], xmm0
  00028	f3 0f 10 41 04	 movss	 xmm0, DWORD PTR [ecx+4]
  0002d	0f 5a c0	 cvtps2pd xmm0, xmm0
  00030	0f 5a c9	 cvtps2pd xmm1, xmm1
  00033	f2 0f 5c c1	 subsd	 xmm0, xmm1
  00037	f3 0f 10 4a 08	 movss	 xmm1, DWORD PTR [edx+8]
  0003c	66 0f 5a c0	 cvtpd2ps xmm0, xmm0
  00040	f3 0f 11 40 04	 movss	 DWORD PTR [eax+4], xmm0
  00045	f3 0f 10 41 08	 movss	 xmm0, DWORD PTR [ecx+8]
  0004a	0f 5a c0	 cvtps2pd xmm0, xmm0
  0004d	0f 5a c9	 cvtps2pd xmm1, xmm1
  00050	f2 0f 5c c1	 subsd	 xmm0, xmm1
  00054	66 0f 5a c0	 cvtpd2ps xmm0, xmm0
  00058	f3 0f 11 40 08	 movss	 DWORD PTR [eax+8], xmm0

; 388  : }

  0005d	5d		 pop	 ebp
  0005e	c2 08 00	 ret	 8
??GD3DXVECTOR3@@QBE?AU0@ABU0@@Z ENDP			; D3DXVECTOR3::operator-
_TEXT	ENDS
PUBLIC	??DD3DXVECTOR3@@QBE?AU0@M@Z			; D3DXVECTOR3::operator*
; Function compile flags: /Ogsp
;	COMDAT ??DD3DXVECTOR3@@QBE?AU0@M@Z
_TEXT	SEGMENT
___$ReturnUdt$ = 8					; size = 4
_f$ = 12						; size = 4
??DD3DXVECTOR3@@QBE?AU0@M@Z PROC			; D3DXVECTOR3::operator*, COMDAT
; _this$ = ecx

; 392  : {

  00000	55		 push	 ebp
  00001	8b ec		 mov	 ebp, esp

; 393  :     return D3DXVECTOR3(x * f, y * f, z * f);

  00003	f3 0f 10 4d 0c	 movss	 xmm1, DWORD PTR _f$[ebp]
  00008	f3 0f 10 01	 movss	 xmm0, DWORD PTR [ecx]
  0000c	8b 45 08	 mov	 eax, DWORD PTR ___$ReturnUdt$[ebp]
  0000f	0f 5a c0	 cvtps2pd xmm0, xmm0
  00012	0f 5a c9	 cvtps2pd xmm1, xmm1
  00015	f2 0f 59 c1	 mulsd	 xmm0, xmm1
  00019	f3 0f 10 4d 0c	 movss	 xmm1, DWORD PTR _f$[ebp]
  0001e	66 0f 5a c0	 cvtpd2ps xmm0, xmm0
  00022	f3 0f 11 00	 movss	 DWORD PTR [eax], xmm0
  00026	f3 0f 10 41 04	 movss	 xmm0, DWORD PTR [ecx+4]
  0002b	0f 5a c0	 cvtps2pd xmm0, xmm0
  0002e	0f 5a c9	 cvtps2pd xmm1, xmm1
  00031	f2 0f 59 c1	 mulsd	 xmm0, xmm1
  00035	f3 0f 10 4d 0c	 movss	 xmm1, DWORD PTR _f$[ebp]
  0003a	66 0f 5a c0	 cvtpd2ps xmm0, xmm0
  0003e	f3 0f 11 40 04	 movss	 DWORD PTR [eax+4], xmm0
  00043	f3 0f 10 41 08	 movss	 xmm0, DWORD PTR [ecx+8]
  00048	0f 5a c0	 cvtps2pd xmm0, xmm0
  0004b	0f 5a c9	 cvtps2pd xmm1, xmm1
  0004e	f2 0f 59 c1	 mulsd	 xmm0, xmm1
  00052	66 0f 5a c0	 cvtpd2ps xmm0, xmm0
  00056	f3 0f 11 40 08	 movss	 DWORD PTR [eax+8], xmm0

; 394  : }

  0005b	5d		 pop	 ebp
  0005c	c2 08 00	 ret	 8
??DD3DXVECTOR3@@QBE?AU0@M@Z ENDP			; D3DXVECTOR3::operator*
_TEXT	ENDS
PUBLIC	??9D3DXVECTOR3@@QBEHABU0@@Z			; D3DXVECTOR3::operator!=
; Function compile flags: /Ogsp
;	COMDAT ??9D3DXVECTOR3@@QBEHABU0@@Z
_TEXT	SEGMENT
_v$ = 8							; size = 4
??9D3DXVECTOR3@@QBEHABU0@@Z PROC			; D3DXVECTOR3::operator!=, COMDAT
; _this$ = ecx

; 419  : {

  00000	55		 push	 ebp
  00001	8b ec		 mov	 ebp, esp

; 420  :     return x != v.x || y != v.y || z != v.z;

  00003	8b 55 08	 mov	 edx, DWORD PTR _v$[ebp]
  00006	f3 0f 10 01	 movss	 xmm0, DWORD PTR [ecx]
  0000a	f3 0f 10 0a	 movss	 xmm1, DWORD PTR [edx]
  0000e	0f 5a c0	 cvtps2pd xmm0, xmm0
  00011	0f 5a c9	 cvtps2pd xmm1, xmm1
  00014	66 0f 2e c1	 ucomisd xmm0, xmm1
  00018	9f		 lahf
  00019	f6 c4 44	 test	 ah, 68			; 00000044H
  0001c	7a 38		 jp	 SHORT $LN3@operator
  0001e	f3 0f 10 41 04	 movss	 xmm0, DWORD PTR [ecx+4]
  00023	f3 0f 10 4a 04	 movss	 xmm1, DWORD PTR [edx+4]
  00028	0f 5a c0	 cvtps2pd xmm0, xmm0
  0002b	0f 5a c9	 cvtps2pd xmm1, xmm1
  0002e	66 0f 2e c1	 ucomisd xmm0, xmm1
  00032	9f		 lahf
  00033	f6 c4 44	 test	 ah, 68			; 00000044H
  00036	7a 1e		 jp	 SHORT $LN3@operator
  00038	f3 0f 10 41 08	 movss	 xmm0, DWORD PTR [ecx+8]
  0003d	f3 0f 10 4a 08	 movss	 xmm1, DWORD PTR [edx+8]
  00042	0f 5a c0	 cvtps2pd xmm0, xmm0
  00045	0f 5a c9	 cvtps2pd xmm1, xmm1
  00048	66 0f 2e c1	 ucomisd xmm0, xmm1
  0004c	9f		 lahf
  0004d	f6 c4 44	 test	 ah, 68			; 00000044H
  00050	7a 04		 jp	 SHORT $LN3@operator
  00052	33 c0		 xor	 eax, eax
  00054	eb 03		 jmp	 SHORT $LN4@operator
$LN3@operator:
  00056	33 c0		 xor	 eax, eax
  00058	40		 inc	 eax
$LN4@operator:

; 421  : }

  00059	5d		 pop	 ebp
  0005a	c2 04 00	 ret	 4
??9D3DXVECTOR3@@QBEHABU0@@Z ENDP			; D3DXVECTOR3::operator!=
_TEXT	ENDS
PUBLIC	?D3DXVec3Length@@YAMPBUD3DXVECTOR3@@@Z		; D3DXVec3Length
; Function compile flags: /Ogsp
;	COMDAT ?D3DXVec3Length@@YAMPBUD3DXVECTOR3@@@Z
_TEXT	SEGMENT
tv169 = 8						; size = 4
tv160 = 8						; size = 4
_pV$ = 8						; size = 4
?D3DXVec3Length@@YAMPBUD3DXVECTOR3@@@Z PROC		; D3DXVec3Length, COMDAT

; 1710 : {

  00000	55		 push	 ebp
  00001	8b ec		 mov	 ebp, esp

; 1711 : #ifdef D3DX_DEBUG
; 1712 :     if(!pV)
; 1713 :         return 0.0f;
; 1714 : #endif
; 1715 : 
; 1716 : #ifdef __cplusplus
; 1717 :     return sqrtf(pV->x * pV->x + pV->y * pV->y + pV->z * pV->z);

  00003	8b 45 08	 mov	 eax, DWORD PTR _pV$[ebp]
  00006	d9 40 04	 fld	 DWORD PTR [eax+4]
  00009	d9 00		 fld	 DWORD PTR [eax]
  0000b	d9 40 08	 fld	 DWORD PTR [eax+8]
  0000e	d9 c1		 fld	 ST(1)
  00010	de ca		 fmulp	 ST(2), ST(0)
  00012	d9 c2		 fld	 ST(2)
  00014	de cb		 fmulp	 ST(3), ST(0)
  00016	d9 c9		 fxch	 ST(1)
  00018	de c2		 faddp	 ST(2), ST(0)
  0001a	d9 c0		 fld	 ST(0)
  0001c	de c9		 fmulp	 ST(1), ST(0)
  0001e	de c1		 faddp	 ST(1), ST(0)
  00020	d9 5d 08	 fstp	 DWORD PTR tv169[ebp]
  00023	d9 45 08	 fld	 DWORD PTR tv169[ebp]
  00026	e8 00 00 00 00	 call	 __CIsqrt
  0002b	d9 5d 08	 fstp	 DWORD PTR tv160[ebp]
  0002e	d9 45 08	 fld	 DWORD PTR tv160[ebp]

; 1718 : #else
; 1719 :     return (FLOAT) sqrt(pV->x * pV->x + pV->y * pV->y + pV->z * pV->z);
; 1720 : #endif
; 1721 : }

  00031	5d		 pop	 ebp
  00032	c3		 ret	 0
?D3DXVec3Length@@YAMPBUD3DXVECTOR3@@@Z ENDP		; D3DXVec3Length
_TEXT	ENDS
PUBLIC	?D3DXVec3LengthSq@@YAMPBUD3DXVECTOR3@@@Z	; D3DXVec3LengthSq
; Function compile flags: /Ogsp
;	COMDAT ?D3DXVec3LengthSq@@YAMPBUD3DXVECTOR3@@@Z
_TEXT	SEGMENT
tv165 = 8						; size = 4
_pV$ = 8						; size = 4
?D3DXVec3LengthSq@@YAMPBUD3DXVECTOR3@@@Z PROC		; D3DXVec3LengthSq, COMDAT

; 1725 : {

  00000	55		 push	 ebp
  00001	8b ec		 mov	 ebp, esp

; 1726 : #ifdef D3DX_DEBUG
; 1727 :     if(!pV)
; 1728 :         return 0.0f;
; 1729 : #endif
; 1730 : 
; 1731 :     return pV->x * pV->x + pV->y * pV->y + pV->z * pV->z;

  00003	8b 45 08	 mov	 eax, DWORD PTR _pV$[ebp]
  00006	d9 40 04	 fld	 DWORD PTR [eax+4]
  00009	d9 00		 fld	 DWORD PTR [eax]
  0000b	d9 40 08	 fld	 DWORD PTR [eax+8]
  0000e	d9 c1		 fld	 ST(1)
  00010	de ca		 fmulp	 ST(2), ST(0)
  00012	d9 c2		 fld	 ST(2)
  00014	de cb		 fmulp	 ST(3), ST(0)
  00016	d9 c9		 fxch	 ST(1)
  00018	de c2		 faddp	 ST(2), ST(0)
  0001a	d9 c0		 fld	 ST(0)
  0001c	de c9		 fmulp	 ST(1), ST(0)
  0001e	de c1		 faddp	 ST(1), ST(0)
  00020	d9 5d 08	 fstp	 DWORD PTR tv165[ebp]
  00023	d9 45 08	 fld	 DWORD PTR tv165[ebp]

; 1732 : }

  00026	5d		 pop	 ebp
  00027	c3		 ret	 0
?D3DXVec3LengthSq@@YAMPBUD3DXVECTOR3@@@Z ENDP		; D3DXVec3LengthSq
_TEXT	ENDS
PUBLIC	?D3DXVec3Dot@@YAMPBUD3DXVECTOR3@@0@Z		; D3DXVec3Dot
; Function compile flags: /Ogsp
;	COMDAT ?D3DXVec3Dot@@YAMPBUD3DXVECTOR3@@0@Z
_TEXT	SEGMENT
tv188 = 8						; size = 4
_pV1$ = 8						; size = 4
_pV2$ = 12						; size = 4
?D3DXVec3Dot@@YAMPBUD3DXVECTOR3@@0@Z PROC		; D3DXVec3Dot, COMDAT

; 1736 : {

  00000	55		 push	 ebp
  00001	8b ec		 mov	 ebp, esp

; 1737 : #ifdef D3DX_DEBUG
; 1738 :     if(!pV1 || !pV2)
; 1739 :         return 0.0f;
; 1740 : #endif
; 1741 : 
; 1742 :     return pV1->x * pV2->x + pV1->y * pV2->y + pV1->z * pV2->z;

  00003	8b 45 08	 mov	 eax, DWORD PTR _pV1$[ebp]
  00006	8b 4d 0c	 mov	 ecx, DWORD PTR _pV2$[ebp]
  00009	d9 40 04	 fld	 DWORD PTR [eax+4]
  0000c	d8 49 04	 fmul	 DWORD PTR [ecx+4]
  0000f	d9 00		 fld	 DWORD PTR [eax]
  00011	d8 09		 fmul	 DWORD PTR [ecx]
  00013	de c1		 faddp	 ST(1), ST(0)
  00015	d9 40 08	 fld	 DWORD PTR [eax+8]
  00018	d8 49 08	 fmul	 DWORD PTR [ecx+8]
  0001b	de c1		 faddp	 ST(1), ST(0)
  0001d	d9 5d 08	 fstp	 DWORD PTR tv188[ebp]
  00020	d9 45 08	 fld	 DWORD PTR tv188[ebp]

; 1743 : }

  00023	5d		 pop	 ebp
  00024	c3		 ret	 0
?D3DXVec3Dot@@YAMPBUD3DXVECTOR3@@0@Z ENDP		; D3DXVec3Dot
_TEXT	ENDS
PUBLIC	?D3DXVec3Cross@@YAPAUD3DXVECTOR3@@PAU1@PBU1@1@Z	; D3DXVec3Cross
; Function compile flags: /Ogsp
;	COMDAT ?D3DXVec3Cross@@YAPAUD3DXVECTOR3@@PAU1@PBU1@1@Z
_TEXT	SEGMENT
_v$ = -12						; size = 12
_pOut$ = 8						; size = 4
_pV1$ = 12						; size = 4
_pV2$ = 16						; size = 4
?D3DXVec3Cross@@YAPAUD3DXVECTOR3@@PAU1@PBU1@1@Z PROC	; D3DXVec3Cross, COMDAT

; 1747 : {

  00000	55		 push	 ebp
  00001	8b ec		 mov	 ebp, esp
  00003	83 ec 0c	 sub	 esp, 12			; 0000000cH

; 1757 :     v.z = pV1->x * pV2->y - pV1->y * pV2->x;
; 1758 : 
; 1759 :     *pOut = v;

  00006	56		 push	 esi
  00007	57		 push	 edi

; 1748 :     D3DXVECTOR3 v;
; 1749 : 
; 1750 : #ifdef D3DX_DEBUG
; 1751 :     if(!pOut || !pV1 || !pV2)
; 1752 :         return NULL;
; 1753 : #endif
; 1754 : 
; 1755 :     v.x = pV1->y * pV2->z - pV1->z * pV2->y;

  00008	8b 45 0c	 mov	 eax, DWORD PTR _pV1$[ebp]
  0000b	f3 0f 10 40 04	 movss	 xmm0, DWORD PTR [eax+4]
  00010	f3 0f 10 50 08	 movss	 xmm2, DWORD PTR [eax+8]
  00015	8b 4d 10	 mov	 ecx, DWORD PTR _pV2$[ebp]
  00018	f3 0f 10 49 08	 movss	 xmm1, DWORD PTR [ecx+8]
  0001d	f3 0f 10 59 04	 movss	 xmm3, DWORD PTR [ecx+4]
  00022	0f 5a e8	 cvtps2pd xmm5, xmm0
  00025	0f 5a e1	 cvtps2pd xmm4, xmm1
  00028	0f 5a f2	 cvtps2pd xmm6, xmm2
  0002b	f2 0f 59 e5	 mulsd	 xmm4, xmm5

; 1756 :     v.y = pV1->z * pV2->x - pV1->x * pV2->z;

  0002f	0f 5a d2	 cvtps2pd xmm2, xmm2
  00032	0f 5a c9	 cvtps2pd xmm1, xmm1
  00035	0f 5a eb	 cvtps2pd xmm5, xmm3
  00038	f2 0f 59 ee	 mulsd	 xmm5, xmm6
  0003c	f2 0f 5c e5	 subsd	 xmm4, xmm5
  00040	f3 0f 10 28	 movss	 xmm5, DWORD PTR [eax]

; 1757 :     v.z = pV1->x * pV2->y - pV1->y * pV2->x;
; 1758 : 
; 1759 :     *pOut = v;

  00044	8b 45 08	 mov	 eax, DWORD PTR _pOut$[ebp]
  00047	66 0f 5a e4	 cvtpd2ps xmm4, xmm4
  0004b	f3 0f 11 65 f4	 movss	 DWORD PTR _v$[ebp], xmm4
  00050	f3 0f 10 21	 movss	 xmm4, DWORD PTR [ecx]
  00054	0f 5a f4	 cvtps2pd xmm6, xmm4
  00057	f2 0f 59 f2	 mulsd	 xmm6, xmm2
  0005b	0f 5a d5	 cvtps2pd xmm2, xmm5
  0005e	f2 0f 59 d1	 mulsd	 xmm2, xmm1
  00062	f2 0f 5c f2	 subsd	 xmm6, xmm2
  00066	66 0f 5a ce	 cvtpd2ps xmm1, xmm6
  0006a	f3 0f 11 4d f8	 movss	 DWORD PTR _v$[ebp+4], xmm1
  0006f	0f 5a c0	 cvtps2pd xmm0, xmm0
  00072	0f 5a d3	 cvtps2pd xmm2, xmm3
  00075	0f 5a cd	 cvtps2pd xmm1, xmm5
  00078	f2 0f 59 ca	 mulsd	 xmm1, xmm2
  0007c	8d 75 f4	 lea	 esi, DWORD PTR _v$[ebp]
  0007f	8b f8		 mov	 edi, eax
  00081	0f 5a d4	 cvtps2pd xmm2, xmm4
  00084	f2 0f 59 d0	 mulsd	 xmm2, xmm0
  00088	f2 0f 5c ca	 subsd	 xmm1, xmm2
  0008c	66 0f 5a c1	 cvtpd2ps xmm0, xmm1
  00090	f3 0f 11 45 fc	 movss	 DWORD PTR _v$[ebp+8], xmm0
  00095	a5		 movsd
  00096	a5		 movsd
  00097	a5		 movsd
  00098	5f		 pop	 edi
  00099	5e		 pop	 esi

; 1760 :     return pOut;
; 1761 : }

  0009a	c9		 leave
  0009b	c3		 ret	 0
?D3DXVec3Cross@@YAPAUD3DXVECTOR3@@PAU1@PBU1@1@Z ENDP	; D3DXVec3Cross
_TEXT	ENDS
PUBLIC	?_DECSTR@@YAXPADH@Z				; _DECSTR
; Function compile flags: /Ogsp
; File d:\lost saga for developer\youtube\tutorial\source\src\lsclient\stringprotect.h
;	COMDAT ?_DECSTR@@YAXPADH@Z
_TEXT	SEGMENT
_s$ = 8							; size = 4
_l$ = 12						; size = 4
?_DECSTR@@YAXPADH@Z PROC				; _DECSTR, COMDAT

; 40   : __forceinline void _DECSTR(char* s, int l){int i=0,l4=(l-1)/4,*p=(int*)s;s[l-1]=0;for(;i<l4;++i)*(p++)^=0xEAEBECED;for(i=l4*4;i<l-1;++i)s[i]^=0xED-i%4;}

  00000	55		 push	 ebp
  00001	8b ec		 mov	 ebp, esp
  00003	8b 4d 0c	 mov	 ecx, DWORD PTR _l$[ebp]
  00006	56		 push	 esi
  00007	8b 75 08	 mov	 esi, DWORD PTR _s$[ebp]
  0000a	57		 push	 edi
  0000b	8d 79 ff	 lea	 edi, DWORD PTR [ecx-1]
  0000e	8b c7		 mov	 eax, edi
  00010	99		 cdq
  00011	83 e2 03	 and	 edx, 3
  00014	03 c2		 add	 eax, edx
  00016	c1 f8 02	 sar	 eax, 2
  00019	8b d6		 mov	 edx, esi
  0001b	c6 44 0e ff 00	 mov	 BYTE PTR [esi+ecx-1], 0
  00020	85 c0		 test	 eax, eax
  00022	7e 0e		 jle	 SHORT $LN4@DECSTR
  00024	8b c8		 mov	 ecx, eax
$LL6@DECSTR:
  00026	81 32 ed ec eb
	ea		 xor	 DWORD PTR [edx], -353637139 ; eaebecedH
  0002c	83 c2 04	 add	 edx, 4
  0002f	49		 dec	 ecx
  00030	75 f4		 jne	 SHORT $LL6@DECSTR
$LN4@DECSTR:
  00032	c1 e0 02	 shl	 eax, 2
  00035	eb 17		 jmp	 SHORT $LN14@DECSTR
$LL3@DECSTR:
  00037	8b c8		 mov	 ecx, eax
  00039	81 e1 03 00 00
	80		 and	 ecx, -2147483645	; 80000003H
  0003f	79 05		 jns	 SHORT $LN13@DECSTR
  00041	49		 dec	 ecx
  00042	83 c9 fc	 or	 ecx, -4			; fffffffcH
  00045	41		 inc	 ecx
$LN13@DECSTR:
  00046	b2 ed		 mov	 dl, -19			; ffffffedH
  00048	2a d1		 sub	 dl, cl
  0004a	30 14 30	 xor	 BYTE PTR [eax+esi], dl
  0004d	40		 inc	 eax
$LN14@DECSTR:
  0004e	3b c7		 cmp	 eax, edi
  00050	7c e5		 jl	 SHORT $LL3@DECSTR
  00052	5f		 pop	 edi
  00053	5e		 pop	 esi
  00054	5d		 pop	 ebp
  00055	c3		 ret	 0
?_DECSTR@@YAXPADH@Z ENDP				; _DECSTR
_TEXT	ENDS
PUBLIC	?return57@@YAIXZ				; return57
; Function compile flags: /Ogsp
; File d:\lost saga for developer\youtube\tutorial\source\src\lsclient\veryoftenusedefine.h
;	COMDAT ?return57@@YAIXZ
_TEXT	SEGMENT
?return57@@YAIXZ PROC					; return57, COMDAT

; 15   : __forceinline unsigned int return57() { __asm mov eax, 57 };

  00000	b8 39 00 00 00	 mov	 eax, 57			; 00000039H
  00005	c3		 ret	 0
?return57@@YAIXZ ENDP					; return57
_TEXT	ENDS
PUBLIC	?GetGroup@ioGameEntity@@QBEPAVioEntityGroup@@XZ	; ioGameEntity::GetGroup
; Function compile flags: /Ogsp
; File d:\lost saga for developer\youtube\tutorial\source\src\lsclient\iogameentity.h
;	COMDAT ?GetGroup@ioGameEntity@@QBEPAVioEntityGroup@@XZ
_TEXT	SEGMENT
?GetGroup@ioGameEntity@@QBEPAVioEntityGroup@@XZ PROC	; ioGameEntity::GetGroup, COMDAT
; _this$ = ecx

; 166  : 	inline ioEntityGroup* GetGroup() const { return m_pGroup; }

  00000	8b 41 04	 mov	 eax, DWORD PTR [ecx+4]
  00003	c3		 ret	 0
?GetGroup@ioGameEntity@@QBEPAVioEntityGroup@@XZ ENDP	; ioGameEntity::GetGroup
_TEXT	ENDS
PUBLIC	??_R0?AVioGameEntity@@@8			; ioGameEntity `RTTI Type Descriptor'
PUBLIC	??_R0?AVioPlayEntity@@@8			; ioPlayEntity `RTTI Type Descriptor'
PUBLIC	?ToPlayEntity@@YAPAVioPlayEntity@@PAVioGameEntity@@@Z ; ToPlayEntity
EXTRN	___RTDynamicCast:PROC
EXTRN	??_7type_info@@6B@:QWORD			; type_info::`vftable'
;	COMDAT ??_R0?AVioGameEntity@@@8
; File d:\lost saga for developer\youtube\tutorial\source\src\lsclient\ioplayentity.h
_DATA	SEGMENT
??_R0?AVioGameEntity@@@8 DD FLAT:??_7type_info@@6B@	; ioGameEntity `RTTI Type Descriptor'
	DD	00H
	DB	'.?AVioGameEntity@@', 00H
_DATA	ENDS
;	COMDAT ??_R0?AVioPlayEntity@@@8
_DATA	SEGMENT
??_R0?AVioPlayEntity@@@8 DD FLAT:??_7type_info@@6B@	; ioPlayEntity `RTTI Type Descriptor'
	DD	00H
	DB	'.?AVioPlayEntity@@', 00H
; Function compile flags: /Ogsp
_DATA	ENDS
;	COMDAT ?ToPlayEntity@@YAPAVioPlayEntity@@PAVioGameEntity@@@Z
_TEXT	SEGMENT
_pObj$ = 8						; size = 4
?ToPlayEntity@@YAPAVioPlayEntity@@PAVioGameEntity@@@Z PROC ; ToPlayEntity, COMDAT

; 121  : {

  00000	55		 push	 ebp
  00001	8b ec		 mov	 ebp, esp
  00003	56		 push	 esi

; 122  : 	if( !pObj || pObj->GetTypeID() != ioGameEntity::GET_PLAY_ENTITY )

  00004	8b 75 08	 mov	 esi, DWORD PTR _pObj$[ebp]
  00007	85 f6		 test	 esi, esi
  00009	74 25		 je	 SHORT $LN1@ToPlayEnti
  0000b	8b 06		 mov	 eax, DWORD PTR [esi]
  0000d	8b ce		 mov	 ecx, esi
  0000f	ff 50 10	 call	 DWORD PTR [eax+16]
  00012	83 f8 01	 cmp	 eax, 1
  00015	75 19		 jne	 SHORT $LN1@ToPlayEnti

; 124  : 
; 125  : 	return dynamic_cast< ioPlayEntity* >( pObj );

  00017	6a 00		 push	 0
  00019	68 00 00 00 00	 push	 OFFSET ??_R0?AVioPlayEntity@@@8
  0001e	68 00 00 00 00	 push	 OFFSET ??_R0?AVioGameEntity@@@8
  00023	6a 00		 push	 0
  00025	56		 push	 esi
  00026	e8 00 00 00 00	 call	 ___RTDynamicCast
  0002b	83 c4 14	 add	 esp, 20			; 00000014H
  0002e	eb 02		 jmp	 SHORT $LN3@ToPlayEnti
$LN1@ToPlayEnti:

; 123  : 		return NULL;

  00030	33 c0		 xor	 eax, eax
$LN3@ToPlayEnti:
  00032	5e		 pop	 esi

; 126  : }

  00033	5d		 pop	 ebp
  00034	c3		 ret	 0
?ToPlayEntity@@YAPAVioPlayEntity@@PAVioGameEntity@@@Z ENDP ; ToPlayEntity
_TEXT	ENDS
PUBLIC	?IsLive@ioWeapon@@QBE_NXZ			; ioWeapon::IsLive
; Function compile flags: /Ogsp
; File d:\lost saga for developer\youtube\tutorial\source\src\lsclient\ioweapon.h
;	COMDAT ?IsLive@ioWeapon@@QBE_NXZ
_TEXT	SEGMENT
?IsLive@ioWeapon@@QBE_NXZ PROC				; ioWeapon::IsLive, COMDAT
; _this$ = ecx

; 533  : 	inline bool IsLive() const { return m_bLive; }

  00000	8a 81 82 05 00
	00		 mov	 al, BYTE PTR [ecx+1410]
  00006	c3		 ret	 0
?IsLive@ioWeapon@@QBE_NXZ ENDP				; ioWeapon::IsLive
_TEXT	ENDS
PUBLIC	?GetParentSceneNode@ioWeapon@@QBEPAVioSceneNode@@XZ ; ioWeapon::GetParentSceneNode
; Function compile flags: /Ogsp
;	COMDAT ?GetParentSceneNode@ioWeapon@@QBEPAVioSceneNode@@XZ
_TEXT	SEGMENT
?GetParentSceneNode@ioWeapon@@QBEPAVioSceneNode@@XZ PROC ; ioWeapon::GetParentSceneNode, COMDAT
; _this$ = ecx

; 797  : 	ioSceneNode* GetParentSceneNode() const { return m_pSceneNode; }

  00000	8b 41 04	 mov	 eax, DWORD PTR [ecx+4]
  00003	c3		 ret	 0
?GetParentSceneNode@ioWeapon@@QBEPAVioSceneNode@@XZ ENDP ; ioWeapon::GetParentSceneNode
_TEXT	ENDS
PUBLIC	??_7?$CEncrypt@M@@6B@				; CEncrypt<float>::`vftable'
PUBLIC	??1?$CEncrypt@M@@UAE@XZ				; CEncrypt<float>::~CEncrypt<float>
PUBLIC	??_R4?$CEncrypt@M@@6B@				; CEncrypt<float>::`RTTI Complete Object Locator'
PUBLIC	??_R0?AV?$CEncrypt@M@@@8			; CEncrypt<float> `RTTI Type Descriptor'
PUBLIC	??_R3?$CEncrypt@M@@8				; CEncrypt<float>::`RTTI Class Hierarchy Descriptor'
PUBLIC	??_R2?$CEncrypt@M@@8				; CEncrypt<float>::`RTTI Base Class Array'
PUBLIC	??_R1A@?0A@EA@?$CEncrypt@M@@8			; CEncrypt<float>::`RTTI Base Class Descriptor at (0,-1,0,64)'
EXTRN	??1ccddaabb@@UAE@XZ:PROC			; ccddaabb::~ccddaabb
EXTRN	??_E?$CEncrypt@M@@UAEPAXI@Z:PROC		; CEncrypt<float>::`vector deleting destructor'
;	COMDAT ??_R1A@?0A@EA@?$CEncrypt@M@@8
; File d:\lost saga for developer\youtube\tutorial\source\src\lsclient\encryptvalue.h
rdata$r	SEGMENT
??_R1A@?0A@EA@?$CEncrypt@M@@8 DD FLAT:??_R0?AV?$CEncrypt@M@@@8 ; CEncrypt<float>::`RTTI Base Class Descriptor at (0,-1,0,64)'
	DD	00H
	DD	00H
	DD	0ffffffffH
	DD	00H
	DD	040H
	DD	FLAT:??_R3?$CEncrypt@M@@8
rdata$r	ENDS
;	COMDAT ??_R2?$CEncrypt@M@@8
rdata$r	SEGMENT
??_R2?$CEncrypt@M@@8 DD FLAT:??_R1A@?0A@EA@?$CEncrypt@M@@8 ; CEncrypt<float>::`RTTI Base Class Array'
rdata$r	ENDS
;	COMDAT ??_R3?$CEncrypt@M@@8
rdata$r	SEGMENT
??_R3?$CEncrypt@M@@8 DD 00H				; CEncrypt<float>::`RTTI Class Hierarchy Descriptor'
	DD	00H
	DD	01H
	DD	FLAT:??_R2?$CEncrypt@M@@8
rdata$r	ENDS
;	COMDAT ??_R0?AV?$CEncrypt@M@@@8
_DATA	SEGMENT
??_R0?AV?$CEncrypt@M@@@8 DD FLAT:??_7type_info@@6B@	; CEncrypt<float> `RTTI Type Descriptor'
	DD	00H
	DB	'.?AV?$CEncrypt@M@@', 00H
_DATA	ENDS
;	COMDAT ??_R4?$CEncrypt@M@@6B@
rdata$r	SEGMENT
??_R4?$CEncrypt@M@@6B@ DD 00H				; CEncrypt<float>::`RTTI Complete Object Locator'
	DD	00H
	DD	00H
	DD	FLAT:??_R0?AV?$CEncrypt@M@@@8
	DD	FLAT:??_R3?$CEncrypt@M@@8
rdata$r	ENDS
;	COMDAT ??_7?$CEncrypt@M@@6B@
CONST	SEGMENT
??_7?$CEncrypt@M@@6B@ DD FLAT:??_R4?$CEncrypt@M@@6B@	; CEncrypt<float>::`vftable'
	DD	FLAT:??_E?$CEncrypt@M@@UAEPAXI@Z
; Function compile flags: /Ogsp
CONST	ENDS
;	COMDAT ??1?$CEncrypt@M@@UAE@XZ
_TEXT	SEGMENT
??1?$CEncrypt@M@@UAE@XZ PROC				; CEncrypt<float>::~CEncrypt<float>, COMDAT
; _this$ = ecx

; 127  : 	{

  00000	c7 01 00 00 00
	00		 mov	 DWORD PTR [ecx], OFFSET ??_7?$CEncrypt@M@@6B@

; 128  : 	}

  00006	83 c1 0c	 add	 ecx, 12			; 0000000cH
  00009	e9 00 00 00 00	 jmp	 ??1ccddaabb@@UAE@XZ	; ccddaabb::~ccddaabb
??1?$CEncrypt@M@@UAE@XZ ENDP				; CEncrypt<float>::~CEncrypt<float>
_TEXT	ENDS
PUBLIC	??_7?$CEncrypt@K@@6B@				; CEncrypt<unsigned long>::`vftable'
PUBLIC	??1?$CEncrypt@K@@UAE@XZ				; CEncrypt<unsigned long>::~CEncrypt<unsigned long>
PUBLIC	??_R4?$CEncrypt@K@@6B@				; CEncrypt<unsigned long>::`RTTI Complete Object Locator'
PUBLIC	??_R0?AV?$CEncrypt@K@@@8			; CEncrypt<unsigned long> `RTTI Type Descriptor'
PUBLIC	??_R3?$CEncrypt@K@@8				; CEncrypt<unsigned long>::`RTTI Class Hierarchy Descriptor'
PUBLIC	??_R2?$CEncrypt@K@@8				; CEncrypt<unsigned long>::`RTTI Base Class Array'
PUBLIC	??_R1A@?0A@EA@?$CEncrypt@K@@8			; CEncrypt<unsigned long>::`RTTI Base Class Descriptor at (0,-1,0,64)'
EXTRN	??_E?$CEncrypt@K@@UAEPAXI@Z:PROC		; CEncrypt<unsigned long>::`vector deleting destructor'
;	COMDAT ??_R1A@?0A@EA@?$CEncrypt@K@@8
rdata$r	SEGMENT
??_R1A@?0A@EA@?$CEncrypt@K@@8 DD FLAT:??_R0?AV?$CEncrypt@K@@@8 ; CEncrypt<unsigned long>::`RTTI Base Class Descriptor at (0,-1,0,64)'
	DD	00H
	DD	00H
	DD	0ffffffffH
	DD	00H
	DD	040H
	DD	FLAT:??_R3?$CEncrypt@K@@8
rdata$r	ENDS
;	COMDAT ??_R2?$CEncrypt@K@@8
rdata$r	SEGMENT
??_R2?$CEncrypt@K@@8 DD FLAT:??_R1A@?0A@EA@?$CEncrypt@K@@8 ; CEncrypt<unsigned long>::`RTTI Base Class Array'
rdata$r	ENDS
;	COMDAT ??_R3?$CEncrypt@K@@8
rdata$r	SEGMENT
??_R3?$CEncrypt@K@@8 DD 00H				; CEncrypt<unsigned long>::`RTTI Class Hierarchy Descriptor'
	DD	00H
	DD	01H
	DD	FLAT:??_R2?$CEncrypt@K@@8
rdata$r	ENDS
;	COMDAT ??_R0?AV?$CEncrypt@K@@@8
_DATA	SEGMENT
??_R0?AV?$CEncrypt@K@@@8 DD FLAT:??_7type_info@@6B@	; CEncrypt<unsigned long> `RTTI Type Descriptor'
	DD	00H
	DB	'.?AV?$CEncrypt@K@@', 00H
_DATA	ENDS
;	COMDAT ??_R4?$CEncrypt@K@@6B@
rdata$r	SEGMENT
??_R4?$CEncrypt@K@@6B@ DD 00H				; CEncrypt<unsigned long>::`RTTI Complete Object Locator'
	DD	00H
	DD	00H
	DD	FLAT:??_R0?AV?$CEncrypt@K@@@8
	DD	FLAT:??_R3?$CEncrypt@K@@8
rdata$r	ENDS
;	COMDAT ??_7?$CEncrypt@K@@6B@
CONST	SEGMENT
??_7?$CEncrypt@K@@6B@ DD FLAT:??_R4?$CEncrypt@K@@6B@	; CEncrypt<unsigned long>::`vftable'
	DD	FLAT:??_E?$CEncrypt@K@@UAEPAXI@Z
; Function compile flags: /Ogsp
CONST	ENDS
;	COMDAT ??1?$CEncrypt@K@@UAE@XZ
_TEXT	SEGMENT
??1?$CEncrypt@K@@UAE@XZ PROC				; CEncrypt<unsigned long>::~CEncrypt<unsigned long>, COMDAT
; _this$ = ecx

; 127  : 	{

  00000	c7 01 00 00 00
	00		 mov	 DWORD PTR [ecx], OFFSET ??_7?$CEncrypt@K@@6B@

; 128  : 	}

  00006	83 c1 0c	 add	 ecx, 12			; 0000000cH
  00009	e9 00 00 00 00	 jmp	 ??1ccddaabb@@UAE@XZ	; ccddaabb::~ccddaabb
??1?$CEncrypt@K@@UAE@XZ ENDP				; CEncrypt<unsigned long>::~CEncrypt<unsigned long>
_TEXT	ENDS
PUBLIC	??_7?$CEncrypt@_N@@6B@				; CEncrypt<bool>::`vftable'
PUBLIC	??1?$CEncrypt@_N@@UAE@XZ			; CEncrypt<bool>::~CEncrypt<bool>
PUBLIC	??_R4?$CEncrypt@_N@@6B@				; CEncrypt<bool>::`RTTI Complete Object Locator'
PUBLIC	??_R0?AV?$CEncrypt@_N@@@8			; CEncrypt<bool> `RTTI Type Descriptor'
PUBLIC	??_R3?$CEncrypt@_N@@8				; CEncrypt<bool>::`RTTI Class Hierarchy Descriptor'
PUBLIC	??_R2?$CEncrypt@_N@@8				; CEncrypt<bool>::`RTTI Base Class Array'
PUBLIC	??_R1A@?0A@EA@?$CEncrypt@_N@@8			; CEncrypt<bool>::`RTTI Base Class Descriptor at (0,-1,0,64)'
EXTRN	??_E?$CEncrypt@_N@@UAEPAXI@Z:PROC		; CEncrypt<bool>::`vector deleting destructor'
;	COMDAT ??_R1A@?0A@EA@?$CEncrypt@_N@@8
rdata$r	SEGMENT
??_R1A@?0A@EA@?$CEncrypt@_N@@8 DD FLAT:??_R0?AV?$CEncrypt@_N@@@8 ; CEncrypt<bool>::`RTTI Base Class Descriptor at (0,-1,0,64)'
	DD	00H
	DD	00H
	DD	0ffffffffH
	DD	00H
	DD	040H
	DD	FLAT:??_R3?$CEncrypt@_N@@8
rdata$r	ENDS
;	COMDAT ??_R2?$CEncrypt@_N@@8
rdata$r	SEGMENT
??_R2?$CEncrypt@_N@@8 DD FLAT:??_R1A@?0A@EA@?$CEncrypt@_N@@8 ; CEncrypt<bool>::`RTTI Base Class Array'
rdata$r	ENDS
;	COMDAT ??_R3?$CEncrypt@_N@@8
rdata$r	SEGMENT
??_R3?$CEncrypt@_N@@8 DD 00H				; CEncrypt<bool>::`RTTI Class Hierarchy Descriptor'
	DD	00H
	DD	01H
	DD	FLAT:??_R2?$CEncrypt@_N@@8
rdata$r	ENDS
;	COMDAT ??_R0?AV?$CEncrypt@_N@@@8
_DATA	SEGMENT
??_R0?AV?$CEncrypt@_N@@@8 DD FLAT:??_7type_info@@6B@	; CEncrypt<bool> `RTTI Type Descriptor'
	DD	00H
	DB	'.?AV?$CEncrypt@_N@@', 00H
_DATA	ENDS
;	COMDAT ??_R4?$CEncrypt@_N@@6B@
rdata$r	SEGMENT
??_R4?$CEncrypt@_N@@6B@ DD 00H				; CEncrypt<bool>::`RTTI Complete Object Locator'
	DD	00H
	DD	00H
	DD	FLAT:??_R0?AV?$CEncrypt@_N@@@8
	DD	FLAT:??_R3?$CEncrypt@_N@@8
rdata$r	ENDS
;	COMDAT ??_7?$CEncrypt@_N@@6B@
CONST	SEGMENT
??_7?$CEncrypt@_N@@6B@ DD FLAT:??_R4?$CEncrypt@_N@@6B@	; CEncrypt<bool>::`vftable'
	DD	FLAT:??_E?$CEncrypt@_N@@UAEPAXI@Z
; Function compile flags: /Ogsp
CONST	ENDS
;	COMDAT ??1?$CEncrypt@_N@@UAE@XZ
_TEXT	SEGMENT
??1?$CEncrypt@_N@@UAE@XZ PROC				; CEncrypt<bool>::~CEncrypt<bool>, COMDAT
; _this$ = ecx

; 127  : 	{

  00000	c7 01 00 00 00
	00		 mov	 DWORD PTR [ecx], OFFSET ??_7?$CEncrypt@_N@@6B@

; 128  : 	}

  00006	83 c1 0c	 add	 ecx, 12			; 0000000cH
  00009	e9 00 00 00 00	 jmp	 ??1ccddaabb@@UAE@XZ	; ccddaabb::~ccddaabb
??1?$CEncrypt@_N@@UAE@XZ ENDP				; CEncrypt<bool>::~CEncrypt<bool>
_TEXT	ENDS
EXTRN	??3@YAXPAX@Z:PROC				; operator delete
; Function compile flags: /Ogsp
;	COMDAT ??_G?$CEncrypt@M@@UAEPAXI@Z
_TEXT	SEGMENT
___flags$ = 8						; size = 4
??_G?$CEncrypt@M@@UAEPAXI@Z PROC			; CEncrypt<float>::`scalar deleting destructor', COMDAT
; _this$ = ecx
  00000	55		 push	 ebp
  00001	8b ec		 mov	 ebp, esp
  00003	56		 push	 esi
  00004	8b f1		 mov	 esi, ecx
  00006	8d 4e 0c	 lea	 ecx, DWORD PTR [esi+12]
  00009	c7 06 00 00 00
	00		 mov	 DWORD PTR [esi], OFFSET ??_7?$CEncrypt@M@@6B@
  0000f	e8 00 00 00 00	 call	 ??1ccddaabb@@UAE@XZ	; ccddaabb::~ccddaabb
  00014	f6 45 08 01	 test	 BYTE PTR ___flags$[ebp], 1
  00018	74 07		 je	 SHORT $LN1@scalar
  0001a	56		 push	 esi
  0001b	e8 00 00 00 00	 call	 ??3@YAXPAX@Z		; operator delete
  00020	59		 pop	 ecx
$LN1@scalar:
  00021	8b c6		 mov	 eax, esi
  00023	5e		 pop	 esi
  00024	5d		 pop	 ebp
  00025	c2 04 00	 ret	 4
??_G?$CEncrypt@M@@UAEPAXI@Z ENDP			; CEncrypt<float>::`scalar deleting destructor'
; Function compile flags: /Ogsp
_TEXT	ENDS
;	COMDAT ??_G?$CEncrypt@K@@UAEPAXI@Z
_TEXT	SEGMENT
___flags$ = 8						; size = 4
??_G?$CEncrypt@K@@UAEPAXI@Z PROC			; CEncrypt<unsigned long>::`scalar deleting destructor', COMDAT
; _this$ = ecx
  00000	55		 push	 ebp
  00001	8b ec		 mov	 ebp, esp
  00003	56		 push	 esi
  00004	8b f1		 mov	 esi, ecx
  00006	8d 4e 0c	 lea	 ecx, DWORD PTR [esi+12]
  00009	c7 06 00 00 00
	00		 mov	 DWORD PTR [esi], OFFSET ??_7?$CEncrypt@K@@6B@
  0000f	e8 00 00 00 00	 call	 ??1ccddaabb@@UAE@XZ	; ccddaabb::~ccddaabb
  00014	f6 45 08 01	 test	 BYTE PTR ___flags$[ebp], 1
  00018	74 07		 je	 SHORT $LN1@scalar@2
  0001a	56		 push	 esi
  0001b	e8 00 00 00 00	 call	 ??3@YAXPAX@Z		; operator delete
  00020	59		 pop	 ecx
$LN1@scalar@2:
  00021	8b c6		 mov	 eax, esi
  00023	5e		 pop	 esi
  00024	5d		 pop	 ebp
  00025	c2 04 00	 ret	 4
??_G?$CEncrypt@K@@UAEPAXI@Z ENDP			; CEncrypt<unsigned long>::`scalar deleting destructor'
; Function compile flags: /Ogsp
_TEXT	ENDS
;	COMDAT ??_G?$CEncrypt@_N@@UAEPAXI@Z
_TEXT	SEGMENT
___flags$ = 8						; size = 4
??_G?$CEncrypt@_N@@UAEPAXI@Z PROC			; CEncrypt<bool>::`scalar deleting destructor', COMDAT
; _this$ = ecx
  00000	55		 push	 ebp
  00001	8b ec		 mov	 ebp, esp
  00003	56		 push	 esi
  00004	8b f1		 mov	 esi, ecx
  00006	8d 4e 0c	 lea	 ecx, DWORD PTR [esi+12]
  00009	c7 06 00 00 00
	00		 mov	 DWORD PTR [esi], OFFSET ??_7?$CEncrypt@_N@@6B@
  0000f	e8 00 00 00 00	 call	 ??1ccddaabb@@UAE@XZ	; ccddaabb::~ccddaabb
  00014	f6 45 08 01	 test	 BYTE PTR ___flags$[ebp], 1
  00018	74 07		 je	 SHORT $LN1@scalar@3
  0001a	56		 push	 esi
  0001b	e8 00 00 00 00	 call	 ??3@YAXPAX@Z		; operator delete
  00020	59		 pop	 ecx
$LN1@scalar@3:
  00021	8b c6		 mov	 eax, esi
  00023	5e		 pop	 esi
  00024	5d		 pop	 ebp
  00025	c2 04 00	 ret	 4
??_G?$CEncrypt@_N@@UAEPAXI@Z ENDP			; CEncrypt<bool>::`scalar deleting destructor'
_TEXT	ENDS
PUBLIC	?EncryptValueToPool@?$CEncrypt@M@@AAEXPBD@Z	; CEncrypt<float>::EncryptValueToPool
EXTRN	?EncryptByte@ccddaabb@@QAEXPBDPADH@Z:PROC	; ccddaabb::EncryptByte
; Function compile flags: /Ogsp
;	COMDAT ?EncryptValueToPool@?$CEncrypt@M@@AAEXPBD@Z
_TEXT	SEGMENT
_value$ = 8						; size = 4
?EncryptValueToPool@?$CEncrypt@M@@AAEXPBD@Z PROC	; CEncrypt<float>::EncryptValueToPool, COMDAT
; _this$ = ecx

; 67   : 	{

  00000	55		 push	 ebp
  00001	8b ec		 mov	 ebp, esp

; 68   : 		m_RC5.EncryptByte( value, m_MemPool, max(m_ValueSize, DEFAULT_ENCRYPT) );

  00003	0f b7 41 06	 movzx	 eax, WORD PTR [ecx+6]
  00007	83 f8 04	 cmp	 eax, 4
  0000a	77 03		 ja	 SHORT $LN4@EncryptVal
  0000c	6a 04		 push	 4
  0000e	58		 pop	 eax
$LN4@EncryptVal:
  0000f	50		 push	 eax
  00010	8d 41 1c	 lea	 eax, DWORD PTR [ecx+28]
  00013	50		 push	 eax
  00014	ff 75 08	 push	 DWORD PTR _value$[ebp]
  00017	83 c1 0c	 add	 ecx, 12			; 0000000cH
  0001a	e8 00 00 00 00	 call	 ?EncryptByte@ccddaabb@@QAEXPBDPADH@Z ; ccddaabb::EncryptByte

; 69   : 		
; 70   : 	}

  0001f	5d		 pop	 ebp
  00020	c2 04 00	 ret	 4
?EncryptValueToPool@?$CEncrypt@M@@AAEXPBD@Z ENDP	; CEncrypt<float>::EncryptValueToPool
_TEXT	ENDS
PUBLIC	?Init@?$CEncrypt@M@@AAEXXZ			; CEncrypt<float>::Init
EXTRN	?Setup@ccddaabb@@QAEXPBDHH@Z:PROC		; ccddaabb::Setup
EXTRN	__imp__rand:PROC
EXTRN	__imp__timeGetTime@0:PROC
EXTRN	__imp__GetCurrentProcessId@0:PROC
; Function compile flags: /Ogsp
;	COMDAT ?Init@?$CEncrypt@M@@AAEXXZ
_TEXT	SEGMENT
_pid$ = -8						; size = 4
_tick$ = -4						; size = 4
?Init@?$CEncrypt@M@@AAEXXZ PROC				; CEncrypt<float>::Init, COMDAT
; _this$ = ecx

; 73   : 	{

  00000	55		 push	 ebp
  00001	8b ec		 mov	 ebp, esp
  00003	51		 push	 ecx
  00004	51		 push	 ecx
  00005	53		 push	 ebx
  00006	56		 push	 esi
  00007	57		 push	 edi
  00008	8b f1		 mov	 esi, ecx

; 74   : 		DWORD pid = GetCurrentProcessId();

  0000a	ff 15 00 00 00
	00		 call	 DWORD PTR __imp__GetCurrentProcessId@0
  00010	89 45 f8	 mov	 DWORD PTR _pid$[ebp], eax

; 75   : 		DWORD tick = timeGetTime();

  00013	ff 15 00 00 00
	00		 call	 DWORD PTR __imp__timeGetTime@0

; 76   : 		m_ValueSize    = sizeof(type);
; 77   : 		m_MemPoolPos   = (unsigned short)( rand()+pid+tick )%(MAX_MEM_POOL-m_ValueSize);

  00019	8b 3d 00 00 00
	00		 mov	 edi, DWORD PTR __imp__rand
  0001f	89 45 fc	 mov	 DWORD PTR _tick$[ebp], eax
  00022	6a 04		 push	 4
  00024	58		 pop	 eax
  00025	66 89 46 06	 mov	 WORD PTR [esi+6], ax
  00029	ff d7		 call	 edi
  0002b	03 45 f8	 add	 eax, DWORD PTR _pid$[ebp]
  0002e	0f b7 4e 06	 movzx	 ecx, WORD PTR [esi+6]
  00032	03 45 fc	 add	 eax, DWORD PTR _tick$[ebp]
  00035	6a 0c		 push	 12			; 0000000cH
  00037	0f b7 c0	 movzx	 eax, ax
  0003a	5b		 pop	 ebx
  0003b	99		 cdq
  0003c	2b d9		 sub	 ebx, ecx
  0003e	f7 fb		 idiv	 ebx
  00040	66 89 56 04	 mov	 WORD PTR [esi+4], dx

; 78   : 		m_EncryptSeed  = (char)( rand()+pid+tick )%256;

  00044	ff d7		 call	 edi
  00046	02 45 f8	 add	 al, BYTE PTR _pid$[ebp]
  00049	02 45 fc	 add	 al, BYTE PTR _tick$[ebp]
  0004c	0f be c0	 movsx	 eax, al
  0004f	25 ff 00 00 80	 and	 eax, -2147483393	; 800000ffH
  00054	79 07		 jns	 SHORT $LN8@Init
  00056	48		 dec	 eax
  00057	0d 00 ff ff ff	 or	 eax, -256		; ffffff00H
  0005c	40		 inc	 eax
$LN8@Init:
  0005d	88 46 08	 mov	 BYTE PTR [esi+8], al

; 79   : 
; 80   : 		for (int i = 0; i < MAX_MEM_POOL ; i++)

  00060	33 db		 xor	 ebx, ebx
$LL3@Init:

; 81   : 			m_MemPool[i] = (char)( rand()+pid+tick )%256; // 

  00062	ff d7		 call	 edi
  00064	02 45 f8	 add	 al, BYTE PTR _pid$[ebp]
  00067	02 45 fc	 add	 al, BYTE PTR _tick$[ebp]
  0006a	0f be c0	 movsx	 eax, al
  0006d	25 ff 00 00 80	 and	 eax, -2147483393	; 800000ffH
  00072	79 07		 jns	 SHORT $LN9@Init
  00074	48		 dec	 eax
  00075	0d 00 ff ff ff	 or	 eax, -256		; ffffff00H
  0007a	40		 inc	 eax
$LN9@Init:
  0007b	88 44 1e 1c	 mov	 BYTE PTR [esi+ebx+28], al
  0007f	43		 inc	 ebx
  00080	83 fb 0c	 cmp	 ebx, 12			; 0000000cH
  00083	7c dd		 jl	 SHORT $LL3@Init

; 82   : 
; 83   : 		//UJ 130913, : szKey  
; 84   : 		//char szKey[ccddaabb::KEY_SIZE];//="";
; 85   : 		//for (int i = 0; i < ccddaabb::KEY_SIZE  ; i++)
; 86   : 		//	szKey[i] = (char)( rand()+pid+tick )%256; // 
; 87   : 		m_RC5.Setup( NULL, pid, tick );

  00085	ff 75 fc	 push	 DWORD PTR _tick$[ebp]
  00088	8d 4e 0c	 lea	 ecx, DWORD PTR [esi+12]
  0008b	ff 75 f8	 push	 DWORD PTR _pid$[ebp]
  0008e	6a 00		 push	 0
  00090	e8 00 00 00 00	 call	 ?Setup@ccddaabb@@QAEXPBDHH@Z ; ccddaabb::Setup
  00095	5f		 pop	 edi
  00096	5e		 pop	 esi
  00097	5b		 pop	 ebx

; 88   : 
; 89   : #ifdef _NOTUSE
; 90   : 		m_value        = 0;
; 91   : 		EncryptValueToPool((char*)&m_value);
; 92   : 		Debug();
; 93   : #endif
; 94   : 	}

  00098	c9		 leave
  00099	c3		 ret	 0
?Init@?$CEncrypt@M@@AAEXXZ ENDP				; CEncrypt<float>::Init
_TEXT	ENDS
PUBLIC	?DecryptValueToPool@?$CEncrypt@M@@QAEXPAM@Z	; CEncrypt<float>::DecryptValueToPool
EXTRN	?DecryptByte@ccddaabb@@QBEXPBDPADH@Z:PROC	; ccddaabb::DecryptByte
; Function compile flags: /Ogsp
;	COMDAT ?DecryptValueToPool@?$CEncrypt@M@@QAEXPAM@Z
_TEXT	SEGMENT
_value$ = 8						; size = 4
?DecryptValueToPool@?$CEncrypt@M@@QAEXPAM@Z PROC	; CEncrypt<float>::DecryptValueToPool, COMDAT
; _this$ = ecx

; 1648 : 	{

  00000	55		 push	 ebp
  00001	8b ec		 mov	 ebp, esp
  00003	56		 push	 esi

; 1649 : 		m_RC5.DecryptByte( m_MemPool, m_TempMem, 4 );

  00004	8d 71 28	 lea	 esi, DWORD PTR [ecx+40]
  00007	6a 04		 push	 4
  00009	8d 41 1c	 lea	 eax, DWORD PTR [ecx+28]
  0000c	56		 push	 esi
  0000d	50		 push	 eax
  0000e	83 c1 0c	 add	 ecx, 12			; 0000000cH
  00011	e8 00 00 00 00	 call	 ?DecryptByte@ccddaabb@@QBEXPBDPADH@Z ; ccddaabb::DecryptByte

; 1650 : 		*value = *((float*)m_TempMem);

  00016	d9 06		 fld	 DWORD PTR [esi]
  00018	8b 45 08	 mov	 eax, DWORD PTR _value$[ebp]
  0001b	d9 18		 fstp	 DWORD PTR [eax]
  0001d	5e		 pop	 esi

; 1651 : 	}

  0001e	5d		 pop	 ebp
  0001f	c2 04 00	 ret	 4
?DecryptValueToPool@?$CEncrypt@M@@QAEXPAM@Z ENDP	; CEncrypt<float>::DecryptValueToPool
_TEXT	ENDS
PUBLIC	?EncryptValueToPool@?$CEncrypt@K@@AAEXPBD@Z	; CEncrypt<unsigned long>::EncryptValueToPool
; Function compile flags: /Ogsp
;	COMDAT ?EncryptValueToPool@?$CEncrypt@K@@AAEXPBD@Z
_TEXT	SEGMENT
_value$ = 8						; size = 4
?EncryptValueToPool@?$CEncrypt@K@@AAEXPBD@Z PROC	; CEncrypt<unsigned long>::EncryptValueToPool, COMDAT
; _this$ = ecx

; 67   : 	{

  00000	55		 push	 ebp
  00001	8b ec		 mov	 ebp, esp

; 68   : 		m_RC5.EncryptByte( value, m_MemPool, max(m_ValueSize, DEFAULT_ENCRYPT) );

  00003	0f b7 41 06	 movzx	 eax, WORD PTR [ecx+6]
  00007	83 f8 04	 cmp	 eax, 4
  0000a	77 03		 ja	 SHORT $LN4@EncryptVal@2
  0000c	6a 04		 push	 4
  0000e	58		 pop	 eax
$LN4@EncryptVal@2:
  0000f	50		 push	 eax
  00010	8d 41 1c	 lea	 eax, DWORD PTR [ecx+28]
  00013	50		 push	 eax
  00014	ff 75 08	 push	 DWORD PTR _value$[ebp]
  00017	83 c1 0c	 add	 ecx, 12			; 0000000cH
  0001a	e8 00 00 00 00	 call	 ?EncryptByte@ccddaabb@@QAEXPBDPADH@Z ; ccddaabb::EncryptByte

; 69   : 		
; 70   : 	}

  0001f	5d		 pop	 ebp
  00020	c2 04 00	 ret	 4
?EncryptValueToPool@?$CEncrypt@K@@AAEXPBD@Z ENDP	; CEncrypt<unsigned long>::EncryptValueToPool
_TEXT	ENDS
PUBLIC	?Init@?$CEncrypt@K@@AAEXXZ			; CEncrypt<unsigned long>::Init
; Function compile flags: /Ogsp
;	COMDAT ?Init@?$CEncrypt@K@@AAEXXZ
_TEXT	SEGMENT
_pid$ = -8						; size = 4
_tick$ = -4						; size = 4
?Init@?$CEncrypt@K@@AAEXXZ PROC				; CEncrypt<unsigned long>::Init, COMDAT
; _this$ = ecx

; 73   : 	{

  00000	55		 push	 ebp
  00001	8b ec		 mov	 ebp, esp
  00003	51		 push	 ecx
  00004	51		 push	 ecx
  00005	53		 push	 ebx
  00006	56		 push	 esi
  00007	57		 push	 edi
  00008	8b f1		 mov	 esi, ecx

; 74   : 		DWORD pid = GetCurrentProcessId();

  0000a	ff 15 00 00 00
	00		 call	 DWORD PTR __imp__GetCurrentProcessId@0
  00010	89 45 f8	 mov	 DWORD PTR _pid$[ebp], eax

; 75   : 		DWORD tick = timeGetTime();

  00013	ff 15 00 00 00
	00		 call	 DWORD PTR __imp__timeGetTime@0

; 76   : 		m_ValueSize    = sizeof(type);
; 77   : 		m_MemPoolPos   = (unsigned short)( rand()+pid+tick )%(MAX_MEM_POOL-m_ValueSize);

  00019	8b 3d 00 00 00
	00		 mov	 edi, DWORD PTR __imp__rand
  0001f	89 45 fc	 mov	 DWORD PTR _tick$[ebp], eax
  00022	6a 04		 push	 4
  00024	58		 pop	 eax
  00025	66 89 46 06	 mov	 WORD PTR [esi+6], ax
  00029	ff d7		 call	 edi
  0002b	03 45 f8	 add	 eax, DWORD PTR _pid$[ebp]
  0002e	0f b7 4e 06	 movzx	 ecx, WORD PTR [esi+6]
  00032	03 45 fc	 add	 eax, DWORD PTR _tick$[ebp]
  00035	6a 0c		 push	 12			; 0000000cH
  00037	0f b7 c0	 movzx	 eax, ax
  0003a	5b		 pop	 ebx
  0003b	99		 cdq
  0003c	2b d9		 sub	 ebx, ecx
  0003e	f7 fb		 idiv	 ebx
  00040	66 89 56 04	 mov	 WORD PTR [esi+4], dx

; 78   : 		m_EncryptSeed  = (char)( rand()+pid+tick )%256;

  00044	ff d7		 call	 edi
  00046	02 45 f8	 add	 al, BYTE PTR _pid$[ebp]
  00049	02 45 fc	 add	 al, BYTE PTR _tick$[ebp]
  0004c	0f be c0	 movsx	 eax, al
  0004f	25 ff 00 00 80	 and	 eax, -2147483393	; 800000ffH
  00054	79 07		 jns	 SHORT $LN8@Init@2
  00056	48		 dec	 eax
  00057	0d 00 ff ff ff	 or	 eax, -256		; ffffff00H
  0005c	40		 inc	 eax
$LN8@Init@2:
  0005d	88 46 08	 mov	 BYTE PTR [esi+8], al

; 79   : 
; 80   : 		for (int i = 0; i < MAX_MEM_POOL ; i++)

  00060	33 db		 xor	 ebx, ebx
$LL3@Init@2:

; 81   : 			m_MemPool[i] = (char)( rand()+pid+tick )%256; // 

  00062	ff d7		 call	 edi
  00064	02 45 f8	 add	 al, BYTE PTR _pid$[ebp]
  00067	02 45 fc	 add	 al, BYTE PTR _tick$[ebp]
  0006a	0f be c0	 movsx	 eax, al
  0006d	25 ff 00 00 80	 and	 eax, -2147483393	; 800000ffH
  00072	79 07		 jns	 SHORT $LN9@Init@2
  00074	48		 dec	 eax
  00075	0d 00 ff ff ff	 or	 eax, -256		; ffffff00H
  0007a	40		 inc	 eax
$LN9@Init@2:
  0007b	88 44 1e 1c	 mov	 BYTE PTR [esi+ebx+28], al
  0007f	43		 inc	 ebx
  00080	83 fb 0c	 cmp	 ebx, 12			; 0000000cH
  00083	7c dd		 jl	 SHORT $LL3@Init@2

; 82   : 
; 83   : 		//UJ 130913, : szKey  
; 84   : 		//char szKey[ccddaabb::KEY_SIZE];//="";
; 85   : 		//for (int i = 0; i < ccddaabb::KEY_SIZE  ; i++)
; 86   : 		//	szKey[i] = (char)( rand()+pid+tick )%256; // 
; 87   : 		m_RC5.Setup( NULL, pid, tick );

  00085	ff 75 fc	 push	 DWORD PTR _tick$[ebp]
  00088	8d 4e 0c	 lea	 ecx, DWORD PTR [esi+12]
  0008b	ff 75 f8	 push	 DWORD PTR _pid$[ebp]
  0008e	6a 00		 push	 0
  00090	e8 00 00 00 00	 call	 ?Setup@ccddaabb@@QAEXPBDHH@Z ; ccddaabb::Setup
  00095	5f		 pop	 edi
  00096	5e		 pop	 esi
  00097	5b		 pop	 ebx

; 88   : 
; 89   : #ifdef _NOTUSE
; 90   : 		m_value        = 0;
; 91   : 		EncryptValueToPool((char*)&m_value);
; 92   : 		Debug();
; 93   : #endif
; 94   : 	}

  00098	c9		 leave
  00099	c3		 ret	 0
?Init@?$CEncrypt@K@@AAEXXZ ENDP				; CEncrypt<unsigned long>::Init
_TEXT	ENDS
PUBLIC	?DecryptValueToPool@?$CEncrypt@K@@QAEXPAK@Z	; CEncrypt<unsigned long>::DecryptValueToPool
; Function compile flags: /Ogsp
;	COMDAT ?DecryptValueToPool@?$CEncrypt@K@@QAEXPAK@Z
_TEXT	SEGMENT
_value$ = 8						; size = 4
?DecryptValueToPool@?$CEncrypt@K@@QAEXPAK@Z PROC	; CEncrypt<unsigned long>::DecryptValueToPool, COMDAT
; _this$ = ecx

; 1256 : 	{

  00000	55		 push	 ebp
  00001	8b ec		 mov	 ebp, esp
  00003	56		 push	 esi

; 1257 : 		m_RC5.DecryptByte( m_MemPool, m_TempMem, 4 );

  00004	8d 71 28	 lea	 esi, DWORD PTR [ecx+40]
  00007	6a 04		 push	 4
  00009	8d 41 1c	 lea	 eax, DWORD PTR [ecx+28]
  0000c	56		 push	 esi
  0000d	50		 push	 eax
  0000e	83 c1 0c	 add	 ecx, 12			; 0000000cH
  00011	e8 00 00 00 00	 call	 ?DecryptByte@ccddaabb@@QBEXPBDPADH@Z ; ccddaabb::DecryptByte

; 1258 : 		*value = *((DWORD*)m_TempMem);

  00016	8b 06		 mov	 eax, DWORD PTR [esi]
  00018	8b 4d 08	 mov	 ecx, DWORD PTR _value$[ebp]
  0001b	89 01		 mov	 DWORD PTR [ecx], eax
  0001d	5e		 pop	 esi

; 1259 : 	}

  0001e	5d		 pop	 ebp
  0001f	c2 04 00	 ret	 4
?DecryptValueToPool@?$CEncrypt@K@@QAEXPAK@Z ENDP	; CEncrypt<unsigned long>::DecryptValueToPool
_TEXT	ENDS
PUBLIC	?EncryptValueToPool@?$CEncrypt@_N@@AAEXPBD@Z	; CEncrypt<bool>::EncryptValueToPool
; Function compile flags: /Ogsp
;	COMDAT ?EncryptValueToPool@?$CEncrypt@_N@@AAEXPBD@Z
_TEXT	SEGMENT
_value$ = 8						; size = 4
?EncryptValueToPool@?$CEncrypt@_N@@AAEXPBD@Z PROC	; CEncrypt<bool>::EncryptValueToPool, COMDAT
; _this$ = ecx

; 67   : 	{

  00000	55		 push	 ebp
  00001	8b ec		 mov	 ebp, esp

; 68   : 		m_RC5.EncryptByte( value, m_MemPool, max(m_ValueSize, DEFAULT_ENCRYPT) );

  00003	0f b7 41 06	 movzx	 eax, WORD PTR [ecx+6]
  00007	83 f8 04	 cmp	 eax, 4
  0000a	77 03		 ja	 SHORT $LN4@EncryptVal@3
  0000c	6a 04		 push	 4
  0000e	58		 pop	 eax
$LN4@EncryptVal@3:
  0000f	50		 push	 eax
  00010	8d 41 1c	 lea	 eax, DWORD PTR [ecx+28]
  00013	50		 push	 eax
  00014	ff 75 08	 push	 DWORD PTR _value$[ebp]
  00017	83 c1 0c	 add	 ecx, 12			; 0000000cH
  0001a	e8 00 00 00 00	 call	 ?EncryptByte@ccddaabb@@QAEXPBDPADH@Z ; ccddaabb::EncryptByte

; 69   : 		
; 70   : 	}

  0001f	5d		 pop	 ebp
  00020	c2 04 00	 ret	 4
?EncryptValueToPool@?$CEncrypt@_N@@AAEXPBD@Z ENDP	; CEncrypt<bool>::EncryptValueToPool
_TEXT	ENDS
PUBLIC	?Init@?$CEncrypt@_N@@AAEXXZ			; CEncrypt<bool>::Init
; Function compile flags: /Ogsp
;	COMDAT ?Init@?$CEncrypt@_N@@AAEXXZ
_TEXT	SEGMENT
_pid$ = -8						; size = 4
_tick$ = -4						; size = 4
?Init@?$CEncrypt@_N@@AAEXXZ PROC			; CEncrypt<bool>::Init, COMDAT
; _this$ = ecx

; 73   : 	{

  00000	55		 push	 ebp
  00001	8b ec		 mov	 ebp, esp
  00003	51		 push	 ecx
  00004	51		 push	 ecx
  00005	53		 push	 ebx
  00006	56		 push	 esi
  00007	57		 push	 edi
  00008	8b f1		 mov	 esi, ecx

; 74   : 		DWORD pid = GetCurrentProcessId();

  0000a	ff 15 00 00 00
	00		 call	 DWORD PTR __imp__GetCurrentProcessId@0
  00010	89 45 f8	 mov	 DWORD PTR _pid$[ebp], eax

; 75   : 		DWORD tick = timeGetTime();

  00013	ff 15 00 00 00
	00		 call	 DWORD PTR __imp__timeGetTime@0

; 76   : 		m_ValueSize    = sizeof(type);
; 77   : 		m_MemPoolPos   = (unsigned short)( rand()+pid+tick )%(MAX_MEM_POOL-m_ValueSize);

  00019	8b 3d 00 00 00
	00		 mov	 edi, DWORD PTR __imp__rand
  0001f	89 45 fc	 mov	 DWORD PTR _tick$[ebp], eax
  00022	33 c0		 xor	 eax, eax
  00024	40		 inc	 eax
  00025	66 89 46 06	 mov	 WORD PTR [esi+6], ax
  00029	ff d7		 call	 edi
  0002b	03 45 f8	 add	 eax, DWORD PTR _pid$[ebp]
  0002e	0f b7 4e 06	 movzx	 ecx, WORD PTR [esi+6]
  00032	03 45 fc	 add	 eax, DWORD PTR _tick$[ebp]
  00035	6a 0c		 push	 12			; 0000000cH
  00037	0f b7 c0	 movzx	 eax, ax
  0003a	5b		 pop	 ebx
  0003b	99		 cdq
  0003c	2b d9		 sub	 ebx, ecx
  0003e	f7 fb		 idiv	 ebx
  00040	66 89 56 04	 mov	 WORD PTR [esi+4], dx

; 78   : 		m_EncryptSeed  = (char)( rand()+pid+tick )%256;

  00044	ff d7		 call	 edi
  00046	02 45 f8	 add	 al, BYTE PTR _pid$[ebp]
  00049	02 45 fc	 add	 al, BYTE PTR _tick$[ebp]
  0004c	0f be c0	 movsx	 eax, al
  0004f	25 ff 00 00 80	 and	 eax, -2147483393	; 800000ffH
  00054	79 07		 jns	 SHORT $LN8@Init@3
  00056	48		 dec	 eax
  00057	0d 00 ff ff ff	 or	 eax, -256		; ffffff00H
  0005c	40		 inc	 eax
$LN8@Init@3:
  0005d	88 46 08	 mov	 BYTE PTR [esi+8], al

; 79   : 
; 80   : 		for (int i = 0; i < MAX_MEM_POOL ; i++)

  00060	33 db		 xor	 ebx, ebx
$LL3@Init@3:

; 81   : 			m_MemPool[i] = (char)( rand()+pid+tick )%256; // 

  00062	ff d7		 call	 edi
  00064	02 45 f8	 add	 al, BYTE PTR _pid$[ebp]
  00067	02 45 fc	 add	 al, BYTE PTR _tick$[ebp]
  0006a	0f be c0	 movsx	 eax, al
  0006d	25 ff 00 00 80	 and	 eax, -2147483393	; 800000ffH
  00072	79 07		 jns	 SHORT $LN9@Init@3
  00074	48		 dec	 eax
  00075	0d 00 ff ff ff	 or	 eax, -256		; ffffff00H
  0007a	40		 inc	 eax
$LN9@Init@3:
  0007b	88 44 1e 1c	 mov	 BYTE PTR [esi+ebx+28], al
  0007f	43		 inc	 ebx
  00080	83 fb 0c	 cmp	 ebx, 12			; 0000000cH
  00083	7c dd		 jl	 SHORT $LL3@Init@3

; 82   : 
; 83   : 		//UJ 130913, : szKey  
; 84   : 		//char szKey[ccddaabb::KEY_SIZE];//="";
; 85   : 		//for (int i = 0; i < ccddaabb::KEY_SIZE  ; i++)
; 86   : 		//	szKey[i] = (char)( rand()+pid+tick )%256; // 
; 87   : 		m_RC5.Setup( NULL, pid, tick );

  00085	ff 75 fc	 push	 DWORD PTR _tick$[ebp]
  00088	8d 4e 0c	 lea	 ecx, DWORD PTR [esi+12]
  0008b	ff 75 f8	 push	 DWORD PTR _pid$[ebp]
  0008e	6a 00		 push	 0
  00090	e8 00 00 00 00	 call	 ?Setup@ccddaabb@@QAEXPBDHH@Z ; ccddaabb::Setup
  00095	5f		 pop	 edi
  00096	5e		 pop	 esi
  00097	5b		 pop	 ebx

; 88   : 
; 89   : #ifdef _NOTUSE
; 90   : 		m_value        = 0;
; 91   : 		EncryptValueToPool((char*)&m_value);
; 92   : 		Debug();
; 93   : #endif
; 94   : 	}

  00098	c9		 leave
  00099	c3		 ret	 0
?Init@?$CEncrypt@_N@@AAEXXZ ENDP			; CEncrypt<bool>::Init
_TEXT	ENDS
PUBLIC	?DecryptValueToPool@?$CEncrypt@_N@@QAEXPA_N@Z	; CEncrypt<bool>::DecryptValueToPool
; Function compile flags: /Ogsp
;	COMDAT ?DecryptValueToPool@?$CEncrypt@_N@@QAEXPA_N@Z
_TEXT	SEGMENT
_value$ = 8						; size = 4
?DecryptValueToPool@?$CEncrypt@_N@@QAEXPA_N@Z PROC	; CEncrypt<bool>::DecryptValueToPool, COMDAT
; _this$ = ecx

; 219  : 	{

  00000	55		 push	 ebp
  00001	8b ec		 mov	 ebp, esp
  00003	56		 push	 esi

; 220  : 		m_RC5.DecryptByte( m_MemPool, m_TempMem, 4 );

  00004	8d 71 28	 lea	 esi, DWORD PTR [ecx+40]
  00007	6a 04		 push	 4
  00009	8d 41 1c	 lea	 eax, DWORD PTR [ecx+28]
  0000c	56		 push	 esi
  0000d	50		 push	 eax
  0000e	83 c1 0c	 add	 ecx, 12			; 0000000cH
  00011	e8 00 00 00 00	 call	 ?DecryptByte@ccddaabb@@QBEXPBDPADH@Z ; ccddaabb::DecryptByte

; 221  : 		*value = *((bool*)m_TempMem);

  00016	8a 06		 mov	 al, BYTE PTR [esi]
  00018	8b 4d 08	 mov	 ecx, DWORD PTR _value$[ebp]
  0001b	88 01		 mov	 BYTE PTR [ecx], al
  0001d	5e		 pop	 esi

; 222  : 	}

  0001e	5d		 pop	 ebp
  0001f	c2 04 00	 ret	 4
?DecryptValueToPool@?$CEncrypt@_N@@QAEXPA_N@Z ENDP	; CEncrypt<bool>::DecryptValueToPool
_TEXT	ENDS
PUBLIC	??_R0?AVioBaseChar@@@8				; ioBaseChar `RTTI Type Descriptor'
PUBLIC	?ToBaseChar@@YAPAVioBaseChar@@PAVioGameEntity@@@Z ; ToBaseChar
;	COMDAT ??_R0?AVioBaseChar@@@8
; File d:\lost saga for developer\youtube\tutorial\source\src\lsclient\iobasechar.h
_DATA	SEGMENT
??_R0?AVioBaseChar@@@8 DD FLAT:??_7type_info@@6B@	; ioBaseChar `RTTI Type Descriptor'
	DD	00H
	DB	'.?AVioBaseChar@@', 00H
; Function compile flags: /Ogsp
_DATA	ENDS
;	COMDAT ?ToBaseChar@@YAPAVioBaseChar@@PAVioGameEntity@@@Z
_TEXT	SEGMENT
_pObj$ = 8						; size = 4
?ToBaseChar@@YAPAVioBaseChar@@PAVioGameEntity@@@Z PROC	; ToBaseChar, COMDAT

; 4326 : {

  00000	55		 push	 ebp
  00001	8b ec		 mov	 ebp, esp
  00003	56		 push	 esi

; 4327 : 	ioPlayEntity *pPlay = ToPlayEntity( pObj );

  00004	ff 75 08	 push	 DWORD PTR _pObj$[ebp]
  00007	e8 00 00 00 00	 call	 ?ToPlayEntity@@YAPAVioPlayEntity@@PAVioGameEntity@@@Z ; ToPlayEntity
  0000c	8b f0		 mov	 esi, eax
  0000e	59		 pop	 ecx

; 4328 : 	if( !pPlay || pPlay->GetSubType() != ioPlayEntity::PST_CHAR )

  0000f	85 f6		 test	 esi, esi
  00011	74 25		 je	 SHORT $LN1@ToBaseChar
  00013	8b 06		 mov	 eax, DWORD PTR [esi]
  00015	8b ce		 mov	 ecx, esi
  00017	ff 90 a4 00 00
	00		 call	 DWORD PTR [eax+164]
  0001d	85 c0		 test	 eax, eax
  0001f	75 17		 jne	 SHORT $LN1@ToBaseChar

; 4330 : 
; 4331 : 	return dynamic_cast< ioBaseChar* >( pPlay );

  00021	50		 push	 eax
  00022	68 00 00 00 00	 push	 OFFSET ??_R0?AVioBaseChar@@@8
  00027	68 00 00 00 00	 push	 OFFSET ??_R0?AVioPlayEntity@@@8
  0002c	50		 push	 eax
  0002d	56		 push	 esi
  0002e	e8 00 00 00 00	 call	 ___RTDynamicCast
  00033	83 c4 14	 add	 esp, 20			; 00000014H
  00036	eb 02		 jmp	 SHORT $LN3@ToBaseChar
$LN1@ToBaseChar:

; 4329 : 		return NULL;

  00038	33 c0		 xor	 eax, eax
$LN3@ToBaseChar:
  0003a	5e		 pop	 esi

; 4332 : }

  0003b	5d		 pop	 ebp
  0003c	c3		 ret	 0
?ToBaseChar@@YAPAVioBaseChar@@PAVioGameEntity@@@Z ENDP	; ToBaseChar
_TEXT	ENDS
PUBLIC	??_C@_0DG@JHMCEAJC@ioTraceWeapon5?3?3?$HOioTraceWeapon5?5@ ; `string'
PUBLIC	??_7ioTraceWeapon5@@6B@				; ioTraceWeapon5::`vftable'
PUBLIC	??1ioTraceWeapon5@@UAE@XZ			; ioTraceWeapon5::~ioTraceWeapon5
PUBLIC	??_R4ioTraceWeapon5@@6B@			; ioTraceWeapon5::`RTTI Complete Object Locator'
PUBLIC	??_R0?AVioTraceWeapon5@@@8			; ioTraceWeapon5 `RTTI Type Descriptor'
PUBLIC	??_R3ioTraceWeapon5@@8				; ioTraceWeapon5::`RTTI Class Hierarchy Descriptor'
PUBLIC	??_R2ioTraceWeapon5@@8				; ioTraceWeapon5::`RTTI Base Class Array'
PUBLIC	??_R1A@?0A@EA@ioTraceWeapon5@@8			; ioTraceWeapon5::`RTTI Base Class Descriptor at (0,-1,0,64)'
PUBLIC	??_R1A@?0A@EA@ioWeapon@@8			; ioWeapon::`RTTI Base Class Descriptor at (0,-1,0,64)'
PUBLIC	??_R0?AVioWeapon@@@8				; ioWeapon `RTTI Type Descriptor'
PUBLIC	??_R3ioWeapon@@8				; ioWeapon::`RTTI Class Hierarchy Descriptor'
PUBLIC	??_R2ioWeapon@@8				; ioWeapon::`RTTI Base Class Array'
PUBLIC	?SetOwnerChargeScaleRate@ioTraceWeapon5@@UAEXM@Z ; ioTraceWeapon5::SetOwnerChargeScaleRate
PUBLIC	?InitResource@ioTraceWeapon5@@UAE_NXZ		; ioTraceWeapon5::InitResource
PUBLIC	?LoadProperty@ioTraceWeapon5@@UAEXAAVioINILoader@@@Z ; ioTraceWeapon5::LoadProperty
PUBLIC	?SetMoveDir@ioTraceWeapon5@@UAEXABUD3DXVECTOR3@@@Z ; ioTraceWeapon5::SetMoveDir
PUBLIC	?SetStartPosition@ioTraceWeapon5@@UAEXABUD3DXVECTOR3@@PAVioPlayStage@@@Z ; ioTraceWeapon5::SetStartPosition
PUBLIC	?Process@ioTraceWeapon5@@UAEXMPAVioPlayStage@@@Z ; ioTraceWeapon5::Process
PUBLIC	?IsCollision@ioTraceWeapon5@@UAE_NPAVioPlayEntity@@_N@Z ; ioTraceWeapon5::IsCollision
PUBLIC	?UpdateWorldAttackBox@ioTraceWeapon5@@MAEXM_N@Z	; ioTraceWeapon5::UpdateWorldAttackBox
EXTRN	??1ioWeapon@@UAE@XZ:PROC			; ioWeapon::~ioWeapon
EXTRN	__imp_??1ioHashString@@QAE@XZ:PROC
EXTRN	__imp_??1ioOrientBox@@QAE@XZ:PROC
EXTRN	__imp_?PrintTimeAndLog@CLog@@QAAXHPADZZ:PROC
EXTRN	__imp_?LOG@@3VCLog@@A:BYTE
EXTRN	___CxxFrameHandler3:PROC
EXTRN	@__security_check_cookie@4:PROC
EXTRN	__EH_epilog3:PROC
EXTRN	__EH_prolog3:PROC
EXTRN	?IsAlreadyCollisioned@ioWeapon@@UAE_NPAVioPlayEntity@@@Z:PROC ; ioWeapon::IsAlreadyCollisioned
EXTRN	?AddCollisionEntity@ioWeapon@@UAEXPAVioPlayEntity@@@Z:PROC ; ioWeapon::AddCollisionEntity
EXTRN	?SetOwnerDamageRate@ioWeapon@@UAEXM@Z:PROC	; ioWeapon::SetOwnerDamageRate
EXTRN	?SetOwnerChargeDamageRate@ioWeapon@@UAEXM@Z:PROC ; ioWeapon::SetOwnerChargeDamageRate
EXTRN	?SetOwnerChargeForceRate@ioWeapon@@UAEXM@Z:PROC	; ioWeapon::SetOwnerChargeForceRate
EXTRN	?SetOwnerChargeRangeRate@ioWeapon@@UAEXM@Z:PROC	; ioWeapon::SetOwnerChargeRangeRate
EXTRN	?SetOwnerChargeSpeedRate@ioWeapon@@UAEXM@Z:PROC	; ioWeapon::SetOwnerChargeSpeedRate
EXTRN	?SetOwnerChargeBlowRate@ioWeapon@@UAEXM@Z:PROC	; ioWeapon::SetOwnerChargeBlowRate
EXTRN	?SetOwnerChargeFloatRate@ioWeapon@@UAEXM@Z:PROC	; ioWeapon::SetOwnerChargeFloatRate
EXTRN	?SetOwnerChargeExplosionRate@ioWeapon@@UAEXM@Z:PROC ; ioWeapon::SetOwnerChargeExplosionRate
EXTRN	?SetOwnerChargeWoundedTimeRate@ioWeapon@@UAEXM@Z:PROC ; ioWeapon::SetOwnerChargeWoundedTimeRate
EXTRN	?SetOwnerChargeLiveTimeRate@ioWeapon@@UAEXM@Z:PROC ; ioWeapon::SetOwnerChargeLiveTimeRate
EXTRN	?SetOwnerChargeBuffLiveTimeRate@ioWeapon@@UAEXM@Z:PROC ; ioWeapon::SetOwnerChargeBuffLiveTimeRate
EXTRN	?SetWeaponIndex@ioWeapon@@UAEXK@Z:PROC		; ioWeapon::SetWeaponIndex
EXTRN	?SetGrapplingTargetName@ioWeapon@@UAEXABVioHashString@@@Z:PROC ; ioWeapon::SetGrapplingTargetName
EXTRN	?SetCreateItem@ioWeapon@@UAEXABVioHashString@@@Z:PROC ; ioWeapon::SetCreateItem
EXTRN	?SetTeam@ioWeapon@@UAEXPAVioPlayStage@@W4TeamType@@@Z:PROC ; ioWeapon::SetTeam
EXTRN	?CallReserveAreaWeapon@ioWeapon@@UAEXXZ:PROC	; ioWeapon::CallReserveAreaWeapon
EXTRN	?PlayExplosionSound@ioWeapon@@UAEXXZ:PROC	; ioWeapon::PlayExplosionSound
EXTRN	?PlayWoundedSound@ioWeapon@@UAEXPAVioPlayEntity@@@Z:PROC ; ioWeapon::PlayWoundedSound
EXTRN	?PlayDefensedSound@ioWeapon@@UAEXPAVioPlayEntity@@@Z:PROC ; ioWeapon::PlayDefensedSound
EXTRN	?PlayLoopSound@ioWeapon@@UAEXXZ:PROC		; ioWeapon::PlayLoopSound
EXTRN	?StopLoopSound@ioWeapon@@UAEXXZ:PROC		; ioWeapon::StopLoopSound
EXTRN	?GetTargetAirBuffList@ioWeapon@@UBEABV?$vector@UBuffInfoStruct@@V?$allocator@UBuffInfoStruct@@@std@@@std@@XZ:PROC ; ioWeapon::GetTargetAirBuffList
EXTRN	?GetTargetBuffList@ioWeapon@@UBEABV?$vector@UBuffInfoStruct@@V?$allocator@UBuffInfoStruct@@@std@@@std@@XZ:PROC ; ioWeapon::GetTargetBuffList
EXTRN	?GetTargetDownBuffList@ioWeapon@@UBEABV?$vector@UBuffInfoStruct@@V?$allocator@UBuffInfoStruct@@@std@@@std@@XZ:PROC ; ioWeapon::GetTargetDownBuffList
EXTRN	?GetPosition@ioWeapon@@UBEABUD3DXVECTOR3@@XZ:PROC ; ioWeapon::GetPosition
EXTRN	?GetBlowType@ioWeapon@@UBE?AW4BlowTargetType@@XZ:PROC ; ioWeapon::GetBlowType
EXTRN	?GetPushPower@ioWeapon@@UBEMM@Z:PROC		; ioWeapon::GetPushPower
EXTRN	?GetBlowPower@ioWeapon@@UBEMM@Z:PROC		; ioWeapon::GetBlowPower
EXTRN	?GetAirPushPower@ioWeapon@@UBEMM@Z:PROC		; ioWeapon::GetAirPushPower
EXTRN	?GetAirBlowPower@ioWeapon@@UBEMM@Z:PROC		; ioWeapon::GetAirBlowPower
EXTRN	?GetDefensePushPower@ioWeapon@@UBEMM@Z:PROC	; ioWeapon::GetDefensePushPower
EXTRN	?GetCollisionEnableTime@ioWeapon@@UBEKXZ:PROC	; ioWeapon::GetCollisionEnableTime
EXTRN	?SetSylphid@ioWeapon@@UAEHXZ:PROC		; ioWeapon::SetSylphid
EXTRN	?ApplyExtraReserveWeaponByWeaponInfo@ioWeapon@@UAEXPAV1@@Z:PROC ; ioWeapon::ApplyExtraReserveWeaponByWeaponInfo
EXTRN	?SetResistanceAttr@ioWeapon@@UAEXH@Z:PROC	; ioWeapon::SetResistanceAttr
EXTRN	?SetStartCollisionBox@ioWeapon@@UAEXXZ:PROC	; ioWeapon::SetStartCollisionBox
EXTRN	?SetMoveSpeed@ioWeapon@@UAEXM@Z:PROC		; ioWeapon::SetMoveSpeed
EXTRN	?SetFloatPower@ioWeapon@@UAEXM@Z:PROC		; ioWeapon::SetFloatPower
EXTRN	?TestMapCollision@ioWeapon@@UAE_NPAVioOpcodeShape@@PAVioPlayStage@@PBUD3DXMATRIX@@@Z:PROC ; ioWeapon::TestMapCollision
EXTRN	?CheckPreCollision@ioWeapon@@UAEXPAVioPlayEntity@@PAVioPlayStage@@@Z:PROC ; ioWeapon::CheckPreCollision
EXTRN	?CheckStructAndDummy@ioWeapon@@UAEXPAVioPlayEntity@@PAVioPlayStage@@@Z:PROC ; ioWeapon::CheckStructAndDummy
EXTRN	?GetDamage@ioWeapon@@UAEMPAVioPlayEntity@@@Z:PROC ; ioWeapon::GetDamage
EXTRN	?GetBaseDamage@ioWeapon@@UAEMPAVioPlayEntity@@@Z:PROC ; ioWeapon::GetBaseDamage
EXTRN	?GetPushAngle@ioWeapon@@UBEMXZ:PROC		; ioWeapon::GetPushAngle
EXTRN	?IsResistanceMagic@ioWeapon@@UAEHPAVioBaseChar@@@Z:PROC ; ioWeapon::IsResistanceMagic
EXTRN	?IsResistanceBomb@ioWeapon@@UAEHPAVioBaseChar@@@Z:PROC ; ioWeapon::IsResistanceBomb
EXTRN	?IsCanMineExplosion@ioWeapon@@UAE_NXZ:PROC	; ioWeapon::IsCanMineExplosion
EXTRN	?CheckGrapplingState@ioWeapon@@UAE?AW4GrapplingType@@XZ:PROC ; ioWeapon::CheckGrapplingState
EXTRN	?CheckCurAttribute@ioWeapon@@UAEXPBVioPlayEntity@@@Z:PROC ; ioWeapon::CheckCurAttribute
EXTRN	?CheckItemNotDrop@ioWeapon@@UAE_NPAVioBaseChar@@@Z:PROC ; ioWeapon::CheckItemNotDrop
EXTRN	?GetWorldAttackBoxList@ioWeapon@@UAEXAAV?$vector@VioOrientBox@@V?$allocator@VioOrientBox@@@std@@@std@@@Z:PROC ; ioWeapon::GetWorldAttackBoxList
EXTRN	?GetAttackDir@ioWeapon@@UBE?AUD3DXVECTOR3@@PBVioPlayEntity@@@Z:PROC ; ioWeapon::GetAttackDir
EXTRN	?GetLiveTime@ioWeapon@@UAEKXZ:PROC		; ioWeapon::GetLiveTime
EXTRN	?GetMoveDir@ioWeapon@@UAE?AUD3DXVECTOR3@@XZ:PROC ; ioWeapon::GetMoveDir
EXTRN	?CheckWeaponCollision@ioWeapon@@UAEXXZ:PROC	; ioWeapon::CheckWeaponCollision
EXTRN	?GetRefreshDuration@ioWeapon@@UAEKXZ:PROC	; ioWeapon::GetRefreshDuration
EXTRN	?GetIgnoreDuration@ioWeapon@@UAEKXZ:PROC	; ioWeapon::GetIgnoreDuration
EXTRN	?GetIgnoreTimeTypeDuration@ioWeapon@@UAEKXZ:PROC ; ioWeapon::GetIgnoreTimeTypeDuration
EXTRN	?GetIgnoreTimeType@ioWeapon@@UAEKXZ:PROC	; ioWeapon::GetIgnoreTimeType
EXTRN	?IsSkillDependency@ioWeapon@@UAE_NABVioHashString@@@Z:PROC ; ioWeapon::IsSkillDependency
EXTRN	?SetSkillDependencyAction@ioWeapon@@UAEXXZ:PROC	; ioWeapon::SetSkillDependencyAction
EXTRN	?GetAttribute@ioWeapon@@MBEPBUWeaponAttribute@@XZ:PROC ; ioWeapon::GetAttribute
EXTRN	?CalcFinalDamage@ioWeapon@@MAEMXZ:PROC		; ioWeapon::CalcFinalDamage
EXTRN	?CalcFinalBoundDamage@ioWeapon@@MAEMXZ:PROC	; ioWeapon::CalcFinalBoundDamage
EXTRN	?CheckPiercing@ioWeapon@@MAE_N_N@Z:PROC		; ioWeapon::CheckPiercing
EXTRN	?ClearCollisionList@ioWeapon@@MAEXXZ:PROC	; ioWeapon::ClearCollisionList
EXTRN	?CheckCreateWeaponList@ioWeapon@@MAEXXZ:PROC	; ioWeapon::CheckCreateWeaponList
EXTRN	?CreateCollisionAreaWeapon@ioWeapon@@MAEXXZ:PROC ; ioWeapon::CreateCollisionAreaWeapon
EXTRN	?SetMapCollision@ioWeapon@@UAEXXZ:PROC		; ioWeapon::SetMapCollision
EXTRN	?IsIgnoreMapCollisionEffect@ioWeapon@@UBE_NXZ:PROC ; ioWeapon::IsIgnoreMapCollisionEffect
EXTRN	?AddEffectEvent@ioWeapon@@MAEXPAVioEffect@@@Z:PROC ; ioWeapon::AddEffectEvent
EXTRN	??_EioTraceWeapon5@@UAEPAXI@Z:PROC		; ioTraceWeapon5::`vector deleting destructor'
;	COMDAT ??_R2ioWeapon@@8
; File d:\lost saga for developer\youtube\tutorial\source\src\lsclient\encryptvalue.h
rdata$r	SEGMENT
??_R2ioWeapon@@8 DD FLAT:??_R1A@?0A@EA@ioWeapon@@8	; ioWeapon::`RTTI Base Class Array'
rdata$r	ENDS
;	COMDAT ??_R3ioWeapon@@8
rdata$r	SEGMENT
??_R3ioWeapon@@8 DD 00H					; ioWeapon::`RTTI Class Hierarchy Descriptor'
	DD	00H
	DD	01H
	DD	FLAT:??_R2ioWeapon@@8
rdata$r	ENDS
;	COMDAT ??_R0?AVioWeapon@@@8
_DATA	SEGMENT
??_R0?AVioWeapon@@@8 DD FLAT:??_7type_info@@6B@		; ioWeapon `RTTI Type Descriptor'
	DD	00H
	DB	'.?AVioWeapon@@', 00H
_DATA	ENDS
;	COMDAT ??_R1A@?0A@EA@ioWeapon@@8
rdata$r	SEGMENT
??_R1A@?0A@EA@ioWeapon@@8 DD FLAT:??_R0?AVioWeapon@@@8	; ioWeapon::`RTTI Base Class Descriptor at (0,-1,0,64)'
	DD	00H
	DD	00H
	DD	0ffffffffH
	DD	00H
	DD	040H
	DD	FLAT:??_R3ioWeapon@@8
rdata$r	ENDS
;	COMDAT ??_R1A@?0A@EA@ioTraceWeapon5@@8
rdata$r	SEGMENT
??_R1A@?0A@EA@ioTraceWeapon5@@8 DD FLAT:??_R0?AVioTraceWeapon5@@@8 ; ioTraceWeapon5::`RTTI Base Class Descriptor at (0,-1,0,64)'
	DD	01H
	DD	00H
	DD	0ffffffffH
	DD	00H
	DD	040H
	DD	FLAT:??_R3ioTraceWeapon5@@8
rdata$r	ENDS
;	COMDAT ??_R2ioTraceWeapon5@@8
rdata$r	SEGMENT
??_R2ioTraceWeapon5@@8 DD FLAT:??_R1A@?0A@EA@ioTraceWeapon5@@8 ; ioTraceWeapon5::`RTTI Base Class Array'
	DD	FLAT:??_R1A@?0A@EA@ioWeapon@@8
rdata$r	ENDS
;	COMDAT ??_R3ioTraceWeapon5@@8
rdata$r	SEGMENT
??_R3ioTraceWeapon5@@8 DD 00H				; ioTraceWeapon5::`RTTI Class Hierarchy Descriptor'
	DD	00H
	DD	02H
	DD	FLAT:??_R2ioTraceWeapon5@@8
rdata$r	ENDS
;	COMDAT ??_R0?AVioTraceWeapon5@@@8
_DATA	SEGMENT
??_R0?AVioTraceWeapon5@@@8 DD FLAT:??_7type_info@@6B@	; ioTraceWeapon5 `RTTI Type Descriptor'
	DD	00H
	DB	'.?AVioTraceWeapon5@@', 00H
_DATA	ENDS
;	COMDAT ??_R4ioTraceWeapon5@@6B@
rdata$r	SEGMENT
??_R4ioTraceWeapon5@@6B@ DD 00H				; ioTraceWeapon5::`RTTI Complete Object Locator'
	DD	00H
	DD	00H
	DD	FLAT:??_R0?AVioTraceWeapon5@@@8
	DD	FLAT:??_R3ioTraceWeapon5@@8
rdata$r	ENDS
;	COMDAT ??_C@_0DG@JHMCEAJC@ioTraceWeapon5?3?3?$HOioTraceWeapon5?5@
CONST	SEGMENT
??_C@_0DG@JHMCEAJC@ioTraceWeapon5?3?3?$HOioTraceWeapon5?5@ DB 'ioTraceWea'
	DB	'pon5::~ioTraceWeapon5 - UnReleased Resource', 00H ; `string'
CONST	ENDS
;	COMDAT ??_7ioTraceWeapon5@@6B@
CONST	SEGMENT
??_7ioTraceWeapon5@@6B@ DD FLAT:??_R4ioTraceWeapon5@@6B@ ; ioTraceWeapon5::`vftable'
	DD	FLAT:?IsAlreadyCollisioned@ioWeapon@@UAE_NPAVioPlayEntity@@@Z
	DD	FLAT:?AddCollisionEntity@ioWeapon@@UAEXPAVioPlayEntity@@@Z
	DD	FLAT:?SetOwnerDamageRate@ioWeapon@@UAEXM@Z
	DD	FLAT:?SetOwnerChargeDamageRate@ioWeapon@@UAEXM@Z
	DD	FLAT:?SetOwnerChargeForceRate@ioWeapon@@UAEXM@Z
	DD	FLAT:?SetOwnerChargeRangeRate@ioWeapon@@UAEXM@Z
	DD	FLAT:?SetOwnerChargeSpeedRate@ioWeapon@@UAEXM@Z
	DD	FLAT:?SetOwnerChargeBlowRate@ioWeapon@@UAEXM@Z
	DD	FLAT:?SetOwnerChargeFloatRate@ioWeapon@@UAEXM@Z
	DD	FLAT:?SetOwnerChargeScaleRate@ioTraceWeapon5@@UAEXM@Z
	DD	FLAT:?SetOwnerChargeExplosionRate@ioWeapon@@UAEXM@Z
	DD	FLAT:?SetOwnerChargeWoundedTimeRate@ioWeapon@@UAEXM@Z
	DD	FLAT:?SetOwnerChargeLiveTimeRate@ioWeapon@@UAEXM@Z
	DD	FLAT:?SetOwnerChargeBuffLiveTimeRate@ioWeapon@@UAEXM@Z
	DD	FLAT:?SetWeaponIndex@ioWeapon@@UAEXK@Z
	DD	FLAT:?SetGrapplingTargetName@ioWeapon@@UAEXABVioHashString@@@Z
	DD	FLAT:?SetCreateItem@ioWeapon@@UAEXABVioHashString@@@Z
	DD	FLAT:?SetTeam@ioWeapon@@UAEXPAVioPlayStage@@W4TeamType@@@Z
	DD	FLAT:?CallReserveAreaWeapon@ioWeapon@@UAEXXZ
	DD	FLAT:?SetWeaponDead@ioTraceWeapon5@@UAEXXZ
	DD	FLAT:?PlayExplosionSound@ioWeapon@@UAEXXZ
	DD	FLAT:?PlayWoundedSound@ioWeapon@@UAEXPAVioPlayEntity@@@Z
	DD	FLAT:?PlayDefensedSound@ioWeapon@@UAEXPAVioPlayEntity@@@Z
	DD	FLAT:?PlayLoopSound@ioWeapon@@UAEXXZ
	DD	FLAT:?StopLoopSound@ioWeapon@@UAEXXZ
	DD	FLAT:?GetTargetAirBuffList@ioWeapon@@UBEABV?$vector@UBuffInfoStruct@@V?$allocator@UBuffInfoStruct@@@std@@@std@@XZ
	DD	FLAT:?GetTargetBuffList@ioWeapon@@UBEABV?$vector@UBuffInfoStruct@@V?$allocator@UBuffInfoStruct@@@std@@@std@@XZ
	DD	FLAT:?GetTargetDownBuffList@ioWeapon@@UBEABV?$vector@UBuffInfoStruct@@V?$allocator@UBuffInfoStruct@@@std@@@std@@XZ
	DD	FLAT:?GetPosition@ioWeapon@@UBEABUD3DXVECTOR3@@XZ
	DD	FLAT:?GetBlowType@ioWeapon@@UBE?AW4BlowTargetType@@XZ
	DD	FLAT:?GetPushPower@ioWeapon@@UBEMM@Z
	DD	FLAT:?GetBlowPower@ioWeapon@@UBEMM@Z
	DD	FLAT:?GetAirPushPower@ioWeapon@@UBEMM@Z
	DD	FLAT:?GetAirBlowPower@ioWeapon@@UBEMM@Z
	DD	FLAT:?GetDefensePushPower@ioWeapon@@UBEMM@Z
	DD	FLAT:?GetCollisionEnableTime@ioWeapon@@UBEKXZ
	DD	FLAT:?SetSylphid@ioWeapon@@UAEHXZ
	DD	FLAT:?ApplyExtraReserveWeaponByWeaponInfo@ioWeapon@@UAEXPAV1@@Z
	DD	FLAT:?InitResource@ioTraceWeapon5@@UAE_NXZ
	DD	FLAT:?DestroyResource@ioTraceWeapon5@@UAEXPAVioPlayStage@@@Z
	DD	FLAT:?LoadProperty@ioTraceWeapon5@@UAEXAAVioINILoader@@@Z
	DD	FLAT:?SetResistanceAttr@ioWeapon@@UAEXH@Z
	DD	FLAT:?SetStartCollisionBox@ioWeapon@@UAEXXZ
	DD	FLAT:?SetLiveTime@ioTraceWeapon5@@UAEXK@Z
	DD	FLAT:?SetMoveDir@ioTraceWeapon5@@UAEXABUD3DXVECTOR3@@@Z
	DD	FLAT:?SetMoveSpeed@ioWeapon@@UAEXM@Z
	DD	FLAT:?SetFloatPower@ioWeapon@@UAEXM@Z
	DD	FLAT:?SetStartPosition@ioTraceWeapon5@@UAEXABUD3DXVECTOR3@@PAVioPlayStage@@@Z
	DD	FLAT:?Process@ioTraceWeapon5@@UAEXMPAVioPlayStage@@@Z
	DD	FLAT:?IsCollision@ioTraceWeapon5@@UAE_NPAVioPlayEntity@@_N@Z
	DD	FLAT:?TestMapCollision@ioWeapon@@UAE_NPAVioOpcodeShape@@PAVioPlayStage@@PBUD3DXMATRIX@@@Z
	DD	FLAT:?CheckPreCollision@ioWeapon@@UAEXPAVioPlayEntity@@PAVioPlayStage@@@Z
	DD	FLAT:?CheckStructAndDummy@ioWeapon@@UAEXPAVioPlayEntity@@PAVioPlayStage@@@Z
	DD	FLAT:?GetDamage@ioWeapon@@UAEMPAVioPlayEntity@@@Z
	DD	FLAT:?GetBaseDamage@ioWeapon@@UAEMPAVioPlayEntity@@@Z
	DD	FLAT:?GetPushAngle@ioWeapon@@UBEMXZ
	DD	FLAT:?IsResistanceMagic@ioWeapon@@UAEHPAVioBaseChar@@@Z
	DD	FLAT:?IsResistanceBomb@ioWeapon@@UAEHPAVioBaseChar@@@Z
	DD	FLAT:?IsCanMineExplosion@ioWeapon@@UAE_NXZ
	DD	FLAT:?CheckGrapplingState@ioWeapon@@UAE?AW4GrapplingType@@XZ
	DD	FLAT:?CheckCurAttribute@ioWeapon@@UAEXPBVioPlayEntity@@@Z
	DD	FLAT:?CheckItemNotDrop@ioWeapon@@UAE_NPAVioBaseChar@@@Z
	DD	FLAT:?GetWorldAttackBoxList@ioWeapon@@UAEXAAV?$vector@VioOrientBox@@V?$allocator@VioOrientBox@@@std@@@std@@@Z
	DD	FLAT:?GetAttackDir@ioWeapon@@UBE?AUD3DXVECTOR3@@PBVioPlayEntity@@@Z
	DD	FLAT:?GetLocalAttackBox@ioTraceWeapon5@@UBEABVioOrientBox@@XZ
	DD	FLAT:?GetLiveTime@ioWeapon@@UAEKXZ
	DD	FLAT:?GetMoveDir@ioWeapon@@UAE?AUD3DXVECTOR3@@XZ
	DD	FLAT:?CheckWeaponCollision@ioWeapon@@UAEXXZ
	DD	FLAT:?GetType@ioTraceWeapon5@@UBE?AW4WeaponType@ioWeapon@@XZ
	DD	FLAT:?GetActionStopType@ioTraceWeapon5@@UBE?AW4ActionStopType@@XZ
	DD	FLAT:?GetDieActionStopType@ioTraceWeapon5@@UBE?AW4ActionStopType@@XZ
	DD	FLAT:?GetRefreshDuration@ioWeapon@@UAEKXZ
	DD	FLAT:?GetIgnoreDuration@ioWeapon@@UAEKXZ
	DD	FLAT:?GetIgnoreTimeTypeDuration@ioWeapon@@UAEKXZ
	DD	FLAT:?GetIgnoreTimeType@ioWeapon@@UAEKXZ
	DD	FLAT:?ApplyWeaponSync@ioTraceWeapon5@@UAEXAAVSP2Packet@@PAVioPlayStage@@@Z
	DD	FLAT:?IsSkillDependency@ioWeapon@@UAE_NABVioHashString@@@Z
	DD	FLAT:?SetSkillDependencyAction@ioWeapon@@UAEXXZ
	DD	FLAT:?UpdateWorldAttackBox@ioTraceWeapon5@@MAEXM_N@Z
	DD	FLAT:?GetAttribute@ioWeapon@@MBEPBUWeaponAttribute@@XZ
	DD	FLAT:?CalcFinalDamage@ioWeapon@@MAEMXZ
	DD	FLAT:?CalcFinalBoundDamage@ioWeapon@@MAEMXZ
	DD	FLAT:?CheckPiercing@ioWeapon@@MAE_N_N@Z
	DD	FLAT:?ClearCollisionList@ioWeapon@@MAEXXZ
	DD	FLAT:?CheckCreateWeaponList@ioWeapon@@MAEXXZ
	DD	FLAT:?CreateCollisionAreaWeapon@ioWeapon@@MAEXXZ
	DD	FLAT:?SetMapCollision@ioWeapon@@UAEXXZ
	DD	FLAT:?IsIgnoreMapCollision@ioTraceWeapon5@@UBE_NXZ
	DD	FLAT:?IsIgnoreTestMapCollision@ioTraceWeapon5@@UBE_NXZ
	DD	FLAT:?IsIgnoreMapCollisionEffect@ioWeapon@@UBE_NXZ
	DD	FLAT:?AddEffectEvent@ioWeapon@@MAEXPAVioEffect@@@Z
	DD	FLAT:??_EioTraceWeapon5@@UAEPAXI@Z
CONST	ENDS
;	COMDAT xdata$x
xdata$x	SEGMENT
__ehfuncinfo$??1ioTraceWeapon5@@UAE@XZ DD 019930522H
	DD	0eH
	DD	FLAT:__unwindtable$??1ioTraceWeapon5@@UAE@XZ
	DD	2 DUP(00H)
	DD	2 DUP(00H)
	DD	00H
	DD	01H
__unwindtable$??1ioTraceWeapon5@@UAE@XZ DD 0ffffffffH
	DD	FLAT:__unwindfunclet$??1ioTraceWeapon5@@UAE@XZ$0
	DD	00H
	DD	FLAT:__unwindfunclet$??1ioTraceWeapon5@@UAE@XZ$1
	DD	01H
	DD	FLAT:__unwindfunclet$??1ioTraceWeapon5@@UAE@XZ$2
	DD	02H
	DD	FLAT:__unwindfunclet$??1ioTraceWeapon5@@UAE@XZ$3
	DD	03H
	DD	FLAT:__unwindfunclet$??1ioTraceWeapon5@@UAE@XZ$4
	DD	04H
	DD	FLAT:__unwindfunclet$??1ioTraceWeapon5@@UAE@XZ$5
	DD	05H
	DD	FLAT:__unwindfunclet$??1ioTraceWeapon5@@UAE@XZ$6
	DD	06H
	DD	FLAT:__unwindfunclet$??1ioTraceWeapon5@@UAE@XZ$7
	DD	07H
	DD	FLAT:__unwindfunclet$??1ioTraceWeapon5@@UAE@XZ$8
	DD	08H
	DD	FLAT:__unwindfunclet$??1ioTraceWeapon5@@UAE@XZ$9
	DD	09H
	DD	FLAT:__unwindfunclet$??1ioTraceWeapon5@@UAE@XZ$10
	DD	0aH
	DD	FLAT:__unwindfunclet$??1ioTraceWeapon5@@UAE@XZ$11
	DD	0bH
	DD	FLAT:__unwindfunclet$??1ioTraceWeapon5@@UAE@XZ$12
	DD	0cH
	DD	FLAT:__unwindfunclet$??1ioTraceWeapon5@@UAE@XZ$13
; Function compile flags: /Ogsp
; File d:\lost saga for developer\youtube\tutorial\source\src\lsclient\iotraceweapon5.cpp
xdata$x	ENDS
;	COMDAT ??1ioTraceWeapon5@@UAE@XZ
_TEXT	SEGMENT
_this$ = -16						; size = 4
__$EHRec$ = -12						; size = 12
??1ioTraceWeapon5@@UAE@XZ PROC				; ioTraceWeapon5::~ioTraceWeapon5, COMDAT
; _this$ = ecx

; 31   : {

  00000	6a 04		 push	 4
  00002	b8 00 00 00 00	 mov	 eax, __ehhandler$??1ioTraceWeapon5@@UAE@XZ
  00007	e8 00 00 00 00	 call	 __EH_prolog3
  0000c	8b f1		 mov	 esi, ecx
  0000e	89 75 f0	 mov	 DWORD PTR _this$[ebp], esi
  00011	c7 06 00 00 00
	00		 mov	 DWORD PTR [esi], OFFSET ??_7ioTraceWeapon5@@6B@

; 32   : 	if( m_pFireBall )

  00017	83 be 94 0a 00
	00 00		 cmp	 DWORD PTR [esi+2708], 0
  0001e	c7 45 fc 0d 00
	00 00		 mov	 DWORD PTR __$EHRec$[ebp+8], 13 ; 0000000dH
  00025	74 16		 je	 SHORT $LN1@ioTraceWea

; 33   : 	{
; 34   : 		LOG.PrintTimeAndLog( 0, "ioTraceWeapon5::~ioTraceWeapon5 - UnReleased Resource" );

  00027	68 00 00 00 00	 push	 OFFSET ??_C@_0DG@JHMCEAJC@ioTraceWeapon5?3?3?$HOioTraceWeapon5?5@
  0002c	6a 00		 push	 0
  0002e	ff 35 00 00 00
	00		 push	 DWORD PTR __imp_?LOG@@3VCLog@@A
  00034	ff 15 00 00 00
	00		 call	 DWORD PTR __imp_?PrintTimeAndLog@CLog@@QAAXHPADZZ
  0003a	83 c4 0c	 add	 esp, 12			; 0000000cH
$LN1@ioTraceWea:

; 35   : 	}
; 36   : }

  0003d	8d 8e e8 0a 00
	00		 lea	 ecx, DWORD PTR [esi+2792]
  00043	c6 45 fc 0c	 mov	 BYTE PTR __$EHRec$[ebp+8], 12 ; 0000000cH
  00047	c7 86 dc 0a 00
	00 00 00 00 00	 mov	 DWORD PTR [esi+2780], OFFSET ??_7?$CEncrypt@_N@@6B@
  00051	e8 00 00 00 00	 call	 ??1ccddaabb@@UAE@XZ	; ccddaabb::~ccddaabb
  00056	8d 8e 98 0a 00
	00		 lea	 ecx, DWORD PTR [esi+2712]
  0005c	c6 45 fc 0b	 mov	 BYTE PTR __$EHRec$[ebp+8], 11 ; 0000000bH
  00060	ff 15 00 00 00
	00		 call	 DWORD PTR __imp_??1ioOrientBox@@QAE@XZ
  00066	8d 8e 6c 0a 00
	00		 lea	 ecx, DWORD PTR [esi+2668]
  0006c	c6 45 fc 0a	 mov	 BYTE PTR __$EHRec$[ebp+8], 10 ; 0000000aH
  00070	c7 86 60 0a 00
	00 00 00 00 00	 mov	 DWORD PTR [esi+2656], OFFSET ??_7?$CEncrypt@K@@6B@
  0007a	e8 00 00 00 00	 call	 ??1ccddaabb@@UAE@XZ	; ccddaabb::~ccddaabb
  0007f	8b 1d 00 00 00
	00		 mov	 ebx, DWORD PTR __imp_??1ioHashString@@QAE@XZ
  00085	8d 8e 50 0a 00
	00		 lea	 ecx, DWORD PTR [esi+2640]
  0008b	c6 45 fc 09	 mov	 BYTE PTR __$EHRec$[ebp+8], 9
  0008f	ff d3		 call	 ebx
  00091	bf 00 00 00 00	 mov	 edi, OFFSET ??_7?$CEncrypt@M@@6B@
  00096	8d 8e 14 0a 00
	00		 lea	 ecx, DWORD PTR [esi+2580]
  0009c	c6 45 fc 08	 mov	 BYTE PTR __$EHRec$[ebp+8], 8
  000a0	89 be 08 0a 00
	00		 mov	 DWORD PTR [esi+2568], edi
  000a6	e8 00 00 00 00	 call	 ??1ccddaabb@@UAE@XZ	; ccddaabb::~ccddaabb
  000ab	8d 8e e4 09 00
	00		 lea	 ecx, DWORD PTR [esi+2532]
  000b1	c6 45 fc 07	 mov	 BYTE PTR __$EHRec$[ebp+8], 7
  000b5	89 be d8 09 00
	00		 mov	 DWORD PTR [esi+2520], edi
  000bb	e8 00 00 00 00	 call	 ??1ccddaabb@@UAE@XZ	; ccddaabb::~ccddaabb
  000c0	8d 8e b4 09 00
	00		 lea	 ecx, DWORD PTR [esi+2484]
  000c6	c6 45 fc 06	 mov	 BYTE PTR __$EHRec$[ebp+8], 6
  000ca	89 be a8 09 00
	00		 mov	 DWORD PTR [esi+2472], edi
  000d0	e8 00 00 00 00	 call	 ??1ccddaabb@@UAE@XZ	; ccddaabb::~ccddaabb
  000d5	8d 8e 84 09 00
	00		 lea	 ecx, DWORD PTR [esi+2436]
  000db	c6 45 fc 05	 mov	 BYTE PTR __$EHRec$[ebp+8], 5
  000df	89 be 78 09 00
	00		 mov	 DWORD PTR [esi+2424], edi
  000e5	e8 00 00 00 00	 call	 ??1ccddaabb@@UAE@XZ	; ccddaabb::~ccddaabb
  000ea	8d 8e 50 09 00
	00		 lea	 ecx, DWORD PTR [esi+2384]
  000f0	c6 45 fc 04	 mov	 BYTE PTR __$EHRec$[ebp+8], 4
  000f4	89 be 44 09 00
	00		 mov	 DWORD PTR [esi+2372], edi
  000fa	e8 00 00 00 00	 call	 ??1ccddaabb@@UAE@XZ	; ccddaabb::~ccddaabb
  000ff	8d 8e 20 09 00
	00		 lea	 ecx, DWORD PTR [esi+2336]
  00105	c6 45 fc 03	 mov	 BYTE PTR __$EHRec$[ebp+8], 3
  00109	89 be 14 09 00
	00		 mov	 DWORD PTR [esi+2324], edi
  0010f	e8 00 00 00 00	 call	 ??1ccddaabb@@UAE@XZ	; ccddaabb::~ccddaabb
  00114	8d 8e e4 08 00
	00		 lea	 ecx, DWORD PTR [esi+2276]
  0011a	c6 45 fc 02	 mov	 BYTE PTR __$EHRec$[ebp+8], 2
  0011e	89 be d8 08 00
	00		 mov	 DWORD PTR [esi+2264], edi
  00124	e8 00 00 00 00	 call	 ??1ccddaabb@@UAE@XZ	; ccddaabb::~ccddaabb
  00129	8d 8e b4 08 00
	00		 lea	 ecx, DWORD PTR [esi+2228]
  0012f	c6 45 fc 01	 mov	 BYTE PTR __$EHRec$[ebp+8], 1
  00133	89 be a8 08 00
	00		 mov	 DWORD PTR [esi+2216], edi
  00139	e8 00 00 00 00	 call	 ??1ccddaabb@@UAE@XZ	; ccddaabb::~ccddaabb
  0013e	8d 8e 98 08 00
	00		 lea	 ecx, DWORD PTR [esi+2200]
  00144	c6 45 fc 00	 mov	 BYTE PTR __$EHRec$[ebp+8], 0
  00148	ff d3		 call	 ebx
  0014a	83 4d fc ff	 or	 DWORD PTR __$EHRec$[ebp+8], -1
  0014e	8b ce		 mov	 ecx, esi
  00150	e8 00 00 00 00	 call	 ??1ioWeapon@@UAE@XZ	; ioWeapon::~ioWeapon
  00155	e8 00 00 00 00	 call	 __EH_epilog3
  0015a	c3		 ret	 0
_TEXT	ENDS
;	COMDAT text$x
text$x	SEGMENT
__unwindfunclet$??1ioTraceWeapon5@@UAE@XZ$0:
  00000	8b 4d f0	 mov	 ecx, DWORD PTR _this$[ebp]
  00003	e9 00 00 00 00	 jmp	 ??1ioWeapon@@UAE@XZ	; ioWeapon::~ioWeapon
__unwindfunclet$??1ioTraceWeapon5@@UAE@XZ$1:
  00008	8b 4d f0	 mov	 ecx, DWORD PTR _this$[ebp]
  0000b	81 c1 98 08 00
	00		 add	 ecx, 2200		; 00000898H
  00011	ff 25 00 00 00
	00		 jmp	 DWORD PTR __imp_??1ioHashString@@QAE@XZ
__unwindfunclet$??1ioTraceWeapon5@@UAE@XZ$2:
  00017	8b 4d f0	 mov	 ecx, DWORD PTR _this$[ebp]
  0001a	81 c1 a8 08 00
	00		 add	 ecx, 2216		; 000008a8H
  00020	e9 00 00 00 00	 jmp	 ??1?$CEncrypt@M@@UAE@XZ	; CEncrypt<float>::~CEncrypt<float>
__unwindfunclet$??1ioTraceWeapon5@@UAE@XZ$3:
  00025	8b 4d f0	 mov	 ecx, DWORD PTR _this$[ebp]
  00028	81 c1 d8 08 00
	00		 add	 ecx, 2264		; 000008d8H
  0002e	e9 00 00 00 00	 jmp	 ??1?$CEncrypt@M@@UAE@XZ	; CEncrypt<float>::~CEncrypt<float>
__unwindfunclet$??1ioTraceWeapon5@@UAE@XZ$4:
  00033	8b 4d f0	 mov	 ecx, DWORD PTR _this$[ebp]
  00036	81 c1 14 09 00
	00		 add	 ecx, 2324		; 00000914H
  0003c	e9 00 00 00 00	 jmp	 ??1?$CEncrypt@M@@UAE@XZ	; CEncrypt<float>::~CEncrypt<float>
__unwindfunclet$??1ioTraceWeapon5@@UAE@XZ$5:
  00041	8b 4d f0	 mov	 ecx, DWORD PTR _this$[ebp]
  00044	81 c1 44 09 00
	00		 add	 ecx, 2372		; 00000944H
  0004a	e9 00 00 00 00	 jmp	 ??1?$CEncrypt@M@@UAE@XZ	; CEncrypt<float>::~CEncrypt<float>
__unwindfunclet$??1ioTraceWeapon5@@UAE@XZ$6:
  0004f	8b 4d f0	 mov	 ecx, DWORD PTR _this$[ebp]
  00052	81 c1 78 09 00
	00		 add	 ecx, 2424		; 00000978H
  00058	e9 00 00 00 00	 jmp	 ??1?$CEncrypt@M@@UAE@XZ	; CEncrypt<float>::~CEncrypt<float>
__unwindfunclet$??1ioTraceWeapon5@@UAE@XZ$7:
  0005d	8b 4d f0	 mov	 ecx, DWORD PTR _this$[ebp]
  00060	81 c1 a8 09 00
	00		 add	 ecx, 2472		; 000009a8H
  00066	e9 00 00 00 00	 jmp	 ??1?$CEncrypt@M@@UAE@XZ	; CEncrypt<float>::~CEncrypt<float>
__unwindfunclet$??1ioTraceWeapon5@@UAE@XZ$8:
  0006b	8b 4d f0	 mov	 ecx, DWORD PTR _this$[ebp]
  0006e	81 c1 d8 09 00
	00		 add	 ecx, 2520		; 000009d8H
  00074	e9 00 00 00 00	 jmp	 ??1?$CEncrypt@M@@UAE@XZ	; CEncrypt<float>::~CEncrypt<float>
__unwindfunclet$??1ioTraceWeapon5@@UAE@XZ$9:
  00079	8b 4d f0	 mov	 ecx, DWORD PTR _this$[ebp]
  0007c	81 c1 08 0a 00
	00		 add	 ecx, 2568		; 00000a08H
  00082	e9 00 00 00 00	 jmp	 ??1?$CEncrypt@M@@UAE@XZ	; CEncrypt<float>::~CEncrypt<float>
__unwindfunclet$??1ioTraceWeapon5@@UAE@XZ$10:
  00087	8b 4d f0	 mov	 ecx, DWORD PTR _this$[ebp]
  0008a	81 c1 50 0a 00
	00		 add	 ecx, 2640		; 00000a50H
  00090	ff 25 00 00 00
	00		 jmp	 DWORD PTR __imp_??1ioHashString@@QAE@XZ
__unwindfunclet$??1ioTraceWeapon5@@UAE@XZ$11:
  00096	8b 4d f0	 mov	 ecx, DWORD PTR _this$[ebp]
  00099	81 c1 60 0a 00
	00		 add	 ecx, 2656		; 00000a60H
  0009f	e9 00 00 00 00	 jmp	 ??1?$CEncrypt@K@@UAE@XZ	; CEncrypt<unsigned long>::~CEncrypt<unsigned long>
__unwindfunclet$??1ioTraceWeapon5@@UAE@XZ$12:
  000a4	8b 4d f0	 mov	 ecx, DWORD PTR _this$[ebp]
  000a7	81 c1 98 0a 00
	00		 add	 ecx, 2712		; 00000a98H
  000ad	ff 25 00 00 00
	00		 jmp	 DWORD PTR __imp_??1ioOrientBox@@QAE@XZ
__unwindfunclet$??1ioTraceWeapon5@@UAE@XZ$13:
  000b3	8b 4d f0	 mov	 ecx, DWORD PTR _this$[ebp]
  000b6	81 c1 dc 0a 00
	00		 add	 ecx, 2780		; 00000adcH
  000bc	e9 00 00 00 00	 jmp	 ??1?$CEncrypt@_N@@UAE@XZ ; CEncrypt<bool>::~CEncrypt<bool>
__ehhandler$??1ioTraceWeapon5@@UAE@XZ:
  000c1	8b 54 24 08	 mov	 edx, DWORD PTR [esp+8]
  000c5	8d 42 0c	 lea	 eax, DWORD PTR [edx+12]
  000c8	8b 4a ec	 mov	 ecx, DWORD PTR [edx-20]
  000cb	33 c8		 xor	 ecx, eax
  000cd	e8 00 00 00 00	 call	 @__security_check_cookie@4
  000d2	b8 00 00 00 00	 mov	 eax, OFFSET __ehfuncinfo$??1ioTraceWeapon5@@UAE@XZ
  000d7	e9 00 00 00 00	 jmp	 ___CxxFrameHandler3
text$x	ENDS
??1ioTraceWeapon5@@UAE@XZ ENDP				; ioTraceWeapon5::~ioTraceWeapon5
PUBLIC	_this$GSCopy$
PUBLIC	?CreateFireBall@ioTraceWeapon5@@IAE_NABVioHashString@@@Z ; ioTraceWeapon5::CreateFireBall
EXTRN	?SetPosition@ioWeapon@@QAEXABUD3DXVECTOR3@@@Z:PROC ; ioWeapon::SetPosition
EXTRN	__imp_??D@YA?AUD3DXVECTOR3@@ABU0@0@Z:PROC
EXTRN	__imp_??D@YA?AUD3DXVECTOR3@@ABUD3DXQUATERNION@@ABU0@@Z:PROC
EXTRN	__imp_?GetBiped@ioEntityGroup@@QAEPAVioBiped@@ABVioHashString@@@Z:PROC
EXTRN	__imp_?GetFirstLinkOffset@ioEffect@@QAE_NAAVioHashString@@AAUD3DXVECTOR3@@AAUD3DXQUATERNION@@@Z:PROC
EXTRN	__imp_?IsEmpty@ioHashString@@QBE_NXZ:PROC
EXTRN	__imp_?GetSkeletonName@ioEffect@@QBE?AVioHashString@@XZ:PROC
EXTRN	__imp_??0ioHashString@@QAE@XZ:PROC
EXTRN	__imp_?CreateEffect@ioEffectFactory@@QAEPAVioEffect@@ABVioHashString@@@Z:PROC
EXTRN	__EH_epilog3_GS:PROC
EXTRN	__EH_prolog3_GS:PROC
;	COMDAT xdata$x
; File c:\program files (x86)\microsoft directx sdk (june 2010)\include\d3dx9math.inl
xdata$x	SEGMENT
__unwindtable$?CreateFireBall@ioTraceWeapon5@@IAE_NABVioHashString@@@Z DD 0ffffffffH
	DD	FLAT:__unwindfunclet$?CreateFireBall@ioTraceWeapon5@@IAE_NABVioHashString@@@Z$0
	DD	00H
	DD	FLAT:__unwindfunclet$?CreateFireBall@ioTraceWeapon5@@IAE_NABVioHashString@@@Z$1
__ehfuncinfo$?CreateFireBall@ioTraceWeapon5@@IAE_NABVioHashString@@@Z DD 019930522H
	DD	02H
	DD	FLAT:__unwindtable$?CreateFireBall@ioTraceWeapon5@@IAE_NABVioHashString@@@Z
	DD	2 DUP(00H)
	DD	2 DUP(00H)
	DD	00H
	DD	01H
; Function compile flags: /Ogsp
; File d:\lost saga for developer\youtube\tutorial\source\src\lsclient\iotraceweapon5.cpp
xdata$x	ENDS
;	COMDAT ?CreateFireBall@ioTraceWeapon5@@IAE_NABVioHashString@@@Z
_TEXT	SEGMENT
_qtLinkRotOffset$ = -100				; size = 16
_szLinkBiped$ = -84					; size = 16
$T533580 = -68						; size = 4
_this$GSCopy$ = -64					; size = 4
$T533574 = -57						; size = 1
$T533575 = -56						; size = 16
$T530675 = -52						; size = 12
_vLinkPosOffset$ = -40					; size = 12
$T530676 = -28						; size = 12
$T530674 = -28						; size = 12
$T530673 = -28						; size = 12
$T530672 = -28						; size = 12
__$EHRec$ = -12						; size = 12
_szFileName$ = 8					; size = 4
?CreateFireBall@ioTraceWeapon5@@IAE_NABVioHashString@@@Z PROC ; ioTraceWeapon5::CreateFireBall, COMDAT
; _this$ = ecx

; 81   : {

  00000	6a 58		 push	 88			; 00000058H
  00002	b8 00 00 00 00	 mov	 eax, __ehhandler$?CreateFireBall@ioTraceWeapon5@@IAE_NABVioHashString@@@Z
  00007	e8 00 00 00 00	 call	 __EH_prolog3_GS
  0000c	8b 7d 08	 mov	 edi, DWORD PTR _szFileName$[ebp]
  0000f	83 65 bc 00	 and	 DWORD PTR $T533580[ebp], 0
  00013	8b f1		 mov	 esi, ecx

; 98   : 		{
; 99   : 			vLinkPosOffset = pLinked->GetDerivedOrientation() * vLinkPosOffset + pLinked->GetDerivedPosition();

  00015	89 75 c0	 mov	 DWORD PTR _this$GSCopy$[ebp], esi
  00018	e8 00 00 00 00	 call	 ?GetOwner@ioWeapon@@QBEPAVioBaseChar@@XZ ; ioWeapon::GetOwner
  0001d	8b d8		 mov	 ebx, eax
  0001f	85 db		 test	 ebx, ebx
  00021	75 07		 jne	 SHORT $LN4@CreateFire
$LN33@CreateFire:

; 82   : 	ioBaseChar *pOwner = GetOwner();
; 83   : 	if( !pOwner )	return false;

  00023	32 c0		 xor	 al, al
  00025	e9 fd 01 00 00	 jmp	 $LN5@CreateFire
$LN4@CreateFire:

; 84   : 
; 85   : 	m_pFireBall = g_EffectFactory.CreateEffect( szFileName );

  0002a	57		 push	 edi
  0002b	ff 15 00 00 00
	00		 call	 DWORD PTR __imp_?GetSingleton@ioEffectFactory@@SAAAV1@XZ
  00031	8b c8		 mov	 ecx, eax
  00033	ff 15 00 00 00
	00		 call	 DWORD PTR __imp_?CreateEffect@ioEffectFactory@@QAEPAVioEffect@@ABVioHashString@@@Z
  00039	89 86 94 0a 00
	00		 mov	 DWORD PTR [esi+2708], eax

; 86   : 	if( !m_pFireBall )	return false;

  0003f	85 c0		 test	 eax, eax
  00041	74 e0		 je	 SHORT $LN33@CreateFire

; 87   : 
; 88   : 	GetParentSceneNode()->AttachObject( m_pFireBall );

  00043	8b 4e 04	 mov	 ecx, DWORD PTR [esi+4]
  00046	8b 11		 mov	 edx, DWORD PTR [ecx]
  00048	83 c0 14	 add	 eax, 20			; 00000014H
  0004b	50		 push	 eax
  0004c	ff 92 ac 00 00
	00		 call	 DWORD PTR [edx+172]

; 89   : 
; 90   : 	ioHashString szLinkBiped;

  00052	8d 4d ac	 lea	 ecx, DWORD PTR _szLinkBiped$[ebp]
  00055	ff 15 00 00 00
	00		 call	 DWORD PTR __imp_??0ioHashString@@QAE@XZ

; 91   : 	D3DXVECTOR3 vLinkPosOffset;
; 92   : 	D3DXQUATERNION qtLinkRotOffset;
; 93   : 
; 94   : 	if( m_pFireBall->GetSkeletonName().IsEmpty() && m_pFireBall->GetFirstLinkOffset(szLinkBiped, vLinkPosOffset, qtLinkRotOffset ) )

  0005b	8b 8e 94 0a 00
	00		 mov	 ecx, DWORD PTR [esi+2708]
  00061	83 65 fc 00	 and	 DWORD PTR __$EHRec$[ebp+8], 0
  00065	8d 45 c8	 lea	 eax, DWORD PTR $T533575[ebp]
  00068	50		 push	 eax
  00069	ff 15 00 00 00
	00		 call	 DWORD PTR __imp_?GetSkeletonName@ioEffect@@QBE?AVioHashString@@XZ
  0006f	8b c8		 mov	 ecx, eax
  00071	c6 45 fc 01	 mov	 BYTE PTR __$EHRec$[ebp+8], 1
  00075	c7 45 bc 01 00
	00 00		 mov	 DWORD PTR $T533580[ebp], 1
  0007c	ff 15 00 00 00
	00		 call	 DWORD PTR __imp_?IsEmpty@ioHashString@@QBE_NXZ
  00082	84 c0		 test	 al, al
  00084	74 20		 je	 SHORT $LN9@CreateFire
  00086	8b 8e 94 0a 00
	00		 mov	 ecx, DWORD PTR [esi+2708]
  0008c	8d 45 9c	 lea	 eax, DWORD PTR _qtLinkRotOffset$[ebp]
  0008f	50		 push	 eax
  00090	8d 45 d8	 lea	 eax, DWORD PTR _vLinkPosOffset$[ebp]
  00093	50		 push	 eax
  00094	8d 45 ac	 lea	 eax, DWORD PTR _szLinkBiped$[ebp]
  00097	50		 push	 eax
  00098	ff 15 00 00 00
	00		 call	 DWORD PTR __imp_?GetFirstLinkOffset@ioEffect@@QAE_NAAVioHashString@@AAUD3DXVECTOR3@@AAUD3DXQUATERNION@@@Z
  0009e	c6 45 c7 01	 mov	 BYTE PTR $T533574[ebp], 1
  000a2	84 c0		 test	 al, al
  000a4	75 04		 jne	 SHORT $LN10@CreateFire
$LN9@CreateFire:
  000a6	c6 45 c7 00	 mov	 BYTE PTR $T533574[ebp], 0
$LN10@CreateFire:
  000aa	83 65 fc 00	 and	 DWORD PTR __$EHRec$[ebp+8], 0
  000ae	8d 4d c8	 lea	 ecx, DWORD PTR $T533575[ebp]
  000b1	ff 15 00 00 00
	00		 call	 DWORD PTR __imp_??1ioHashString@@QAE@XZ
  000b7	80 7d c7 00	 cmp	 BYTE PTR $T533574[ebp], 0
  000bb	0f 84 47 01 00
	00		 je	 $LN1@CreateFire

; 95   : 	{
; 96   : 		ioBiped *pLinked = pOwner->GetGroup()->GetBiped( szLinkBiped );

  000c1	8b 4b 04	 mov	 ecx, DWORD PTR [ebx+4]
  000c4	8d 45 ac	 lea	 eax, DWORD PTR _szLinkBiped$[ebp]
  000c7	50		 push	 eax
  000c8	ff 15 00 00 00
	00		 call	 DWORD PTR __imp_?GetBiped@ioEntityGroup@@QAEPAVioBiped@@ABVioHashString@@@Z
  000ce	8b f8		 mov	 edi, eax

; 97   : 		if( pLinked )

  000d0	85 ff		 test	 edi, edi
  000d2	0f 84 30 01 00
	00		 je	 $LN1@CreateFire

; 98   : 		{
; 99   : 			vLinkPosOffset = pLinked->GetDerivedOrientation() * vLinkPosOffset + pLinked->GetDerivedPosition();

  000d8	8b 07		 mov	 eax, DWORD PTR [edi]
  000da	8b cf		 mov	 ecx, edi
  000dc	ff 50 7c	 call	 DWORD PTR [eax+124]
  000df	8b f0		 mov	 esi, eax
  000e1	8d 45 d8	 lea	 eax, DWORD PTR _vLinkPosOffset$[ebp]
  000e4	50		 push	 eax
  000e5	8b 07		 mov	 eax, DWORD PTR [edi]
  000e7	8b cf		 mov	 ecx, edi
  000e9	ff 50 78	 call	 DWORD PTR [eax+120]
  000ec	50		 push	 eax
  000ed	8d 45 e4	 lea	 eax, DWORD PTR $T530672[ebp]
  000f0	50		 push	 eax
  000f1	ff 15 00 00 00
	00		 call	 DWORD PTR __imp_??D@YA?AUD3DXVECTOR3@@ABUD3DXQUATERNION@@ABU0@@Z
  000f7	f3 0f 10 06	 movss	 xmm0, DWORD PTR [esi]
  000fb	f3 0f 10 08	 movss	 xmm1, DWORD PTR [eax]
  000ff	f3 0f 10 50 04	 movss	 xmm2, DWORD PTR [eax+4]
  00104	f3 0f 10 58 08	 movss	 xmm3, DWORD PTR [eax+8]
  00109	0f 5a c9	 cvtps2pd xmm1, xmm1
  0010c	0f 5a c0	 cvtps2pd xmm0, xmm0
  0010f	f2 0f 58 c1	 addsd	 xmm0, xmm1
  00113	f3 0f 10 4e 04	 movss	 xmm1, DWORD PTR [esi+4]
  00118	0f 5a d2	 cvtps2pd xmm2, xmm2
  0011b	0f 5a c9	 cvtps2pd xmm1, xmm1
  0011e	f2 0f 58 ca	 addsd	 xmm1, xmm2
  00122	f3 0f 10 56 08	 movss	 xmm2, DWORD PTR [esi+8]
  00127	0f 5a d2	 cvtps2pd xmm2, xmm2
  0012a	0f 5a db	 cvtps2pd xmm3, xmm3
  0012d	f2 0f 58 d3	 addsd	 xmm2, xmm3
  00131	66 0f 5a c0	 cvtpd2ps xmm0, xmm0
  00135	f3 0f 11 45 e4	 movss	 DWORD PTR $T530673[ebp], xmm0
  0013a	66 0f 5a c9	 cvtpd2ps xmm1, xmm1
  0013e	f3 0f 11 4d e8	 movss	 DWORD PTR $T530673[ebp+4], xmm1
  00143	66 0f 5a d2	 cvtpd2ps xmm2, xmm2
  00147	f3 0f 11 55 ec	 movss	 DWORD PTR $T530673[ebp+8], xmm2
  0014c	8d 75 e4	 lea	 esi, DWORD PTR $T530673[ebp]
  0014f	8d 7d d8	 lea	 edi, DWORD PTR _vLinkPosOffset$[ebp]
  00152	a5		 movsd
  00153	a5		 movsd
  00154	a5		 movsd

; 100  : 			vLinkPosOffset = vLinkPosOffset * pOwner->GetWorldScale();

  00155	8b 03		 mov	 eax, DWORD PTR [ebx]
  00157	83 c4 0c	 add	 esp, 12			; 0000000cH
  0015a	8b cb		 mov	 ecx, ebx
  0015c	ff 50 78	 call	 DWORD PTR [eax+120]
  0015f	50		 push	 eax
  00160	8d 45 d8	 lea	 eax, DWORD PTR _vLinkPosOffset$[ebp]
  00163	50		 push	 eax
  00164	8d 45 e4	 lea	 eax, DWORD PTR $T530674[ebp]
  00167	50		 push	 eax
  00168	ff 15 00 00 00
	00		 call	 DWORD PTR __imp_??D@YA?AUD3DXVECTOR3@@ABU0@0@Z
  0016e	8b f0		 mov	 esi, eax
  00170	8d 7d d8	 lea	 edi, DWORD PTR _vLinkPosOffset$[ebp]
  00173	a5		 movsd
  00174	a5		 movsd
  00175	a5		 movsd

; 101  : 			vLinkPosOffset = pOwner->GetWorldOrientation() * vLinkPosOffset + pOwner->GetWorldPosition();

  00176	8b 03		 mov	 eax, DWORD PTR [ebx]
  00178	83 c4 0c	 add	 esp, 12			; 0000000cH
  0017b	8b cb		 mov	 ecx, ebx
  0017d	ff 50 70	 call	 DWORD PTR [eax+112]
  00180	8b f0		 mov	 esi, eax
  00182	8d 45 d8	 lea	 eax, DWORD PTR _vLinkPosOffset$[ebp]
  00185	50		 push	 eax
  00186	8b 03		 mov	 eax, DWORD PTR [ebx]
  00188	8b cb		 mov	 ecx, ebx
  0018a	ff 50 74	 call	 DWORD PTR [eax+116]
  0018d	50		 push	 eax
  0018e	8d 45 cc	 lea	 eax, DWORD PTR $T530675[ebp]
  00191	50		 push	 eax
  00192	ff 15 00 00 00
	00		 call	 DWORD PTR __imp_??D@YA?AUD3DXVECTOR3@@ABUD3DXQUATERNION@@ABU0@@Z
  00198	f3 0f 10 06	 movss	 xmm0, DWORD PTR [esi]
  0019c	f3 0f 10 08	 movss	 xmm1, DWORD PTR [eax]
  001a0	f3 0f 10 50 04	 movss	 xmm2, DWORD PTR [eax+4]
  001a5	0f 5a c9	 cvtps2pd xmm1, xmm1
  001a8	0f 5a c0	 cvtps2pd xmm0, xmm0
  001ab	f2 0f 58 c1	 addsd	 xmm0, xmm1
  001af	f3 0f 10 4e 04	 movss	 xmm1, DWORD PTR [esi+4]
  001b4	0f 5a c9	 cvtps2pd xmm1, xmm1
  001b7	0f 5a d2	 cvtps2pd xmm2, xmm2
  001ba	f2 0f 58 ca	 addsd	 xmm1, xmm2
  001be	83 c4 0c	 add	 esp, 12			; 0000000cH
  001c1	66 0f 5a c0	 cvtpd2ps xmm0, xmm0
  001c5	66 0f 5a c9	 cvtpd2ps xmm1, xmm1
  001c9	f3 0f 10 56 08	 movss	 xmm2, DWORD PTR [esi+8]
  001ce	f3 0f 10 58 08	 movss	 xmm3, DWORD PTR [eax+8]

; 102  : 			SetPosition( vLinkPosOffset );

  001d3	8b 4d c0	 mov	 ecx, DWORD PTR _this$GSCopy$[ebp]
  001d6	0f 5a d2	 cvtps2pd xmm2, xmm2
  001d9	0f 5a db	 cvtps2pd xmm3, xmm3
  001dc	f2 0f 58 d3	 addsd	 xmm2, xmm3
  001e0	f3 0f 11 45 e4	 movss	 DWORD PTR $T530676[ebp], xmm0
  001e5	f3 0f 11 4d e8	 movss	 DWORD PTR $T530676[ebp+4], xmm1
  001ea	66 0f 5a d2	 cvtpd2ps xmm2, xmm2
  001ee	f3 0f 11 55 ec	 movss	 DWORD PTR $T530676[ebp+8], xmm2
  001f3	8d 75 e4	 lea	 esi, DWORD PTR $T530676[ebp]
  001f6	8d 7d d8	 lea	 edi, DWORD PTR _vLinkPosOffset$[ebp]
  001f9	a5		 movsd
  001fa	a5		 movsd
  001fb	8d 45 d8	 lea	 eax, DWORD PTR _vLinkPosOffset$[ebp]
  001fe	50		 push	 eax
  001ff	a5		 movsd
  00200	e8 00 00 00 00	 call	 ?SetPosition@ioWeapon@@QAEXABUD3DXVECTOR3@@@Z ; ioWeapon::SetPosition
  00205	8b 75 c0	 mov	 esi, DWORD PTR _this$GSCopy$[ebp]
$LN1@CreateFire:

; 103  : 		}
; 104  : 	}
; 105  : 
; 106  : 	AddEffectEvent( m_pFireBall );

  00208	ff b6 94 0a 00
	00		 push	 DWORD PTR [esi+2708]
  0020e	8b 06		 mov	 eax, DWORD PTR [esi]
  00210	8b ce		 mov	 ecx, esi
  00212	ff 90 68 01 00
	00		 call	 DWORD PTR [eax+360]

; 107  : 	return true;

  00218	83 4d fc ff	 or	 DWORD PTR __$EHRec$[ebp+8], -1
  0021c	8d 4d ac	 lea	 ecx, DWORD PTR _szLinkBiped$[ebp]
  0021f	ff 15 00 00 00
	00		 call	 DWORD PTR __imp_??1ioHashString@@QAE@XZ
  00225	b0 01		 mov	 al, 1
$LN5@CreateFire:

; 108  : }

  00227	e8 00 00 00 00	 call	 __EH_epilog3_GS
  0022c	c2 04 00	 ret	 4
_TEXT	ENDS
;	COMDAT text$x
text$x	SEGMENT
__unwindfunclet$?CreateFireBall@ioTraceWeapon5@@IAE_NABVioHashString@@@Z$0:
  00000	8d 4d ac	 lea	 ecx, DWORD PTR _szLinkBiped$[ebp]
  00003	ff 25 00 00 00
	00		 jmp	 DWORD PTR __imp_??1ioHashString@@QAE@XZ
__unwindfunclet$?CreateFireBall@ioTraceWeapon5@@IAE_NABVioHashString@@@Z$1:
  00009	8b 45 bc	 mov	 eax, DWORD PTR $T533580[ebp]
  0000c	83 e0 01	 and	 eax, 1
  0000f	0f 84 0d 00 00
	00		 je	 $LN13@CreateFire
  00015	83 65 bc fe	 and	 DWORD PTR $T533580[ebp], -2 ; fffffffeH
  00019	8d 4d c8	 lea	 ecx, DWORD PTR $T533575[ebp]
  0001c	ff 25 00 00 00
	00		 jmp	 DWORD PTR __imp_??1ioHashString@@QAE@XZ
$LN13@CreateFire:
  00022	c3		 ret	 0
__ehhandler$?CreateFireBall@ioTraceWeapon5@@IAE_NABVioHashString@@@Z:
  00023	8b 54 24 08	 mov	 edx, DWORD PTR [esp+8]
  00027	8d 42 0c	 lea	 eax, DWORD PTR [edx+12]
  0002a	8b 4a 98	 mov	 ecx, DWORD PTR [edx-104]
  0002d	33 c8		 xor	 ecx, eax
  0002f	e8 00 00 00 00	 call	 @__security_check_cookie@4
  00034	8b 4a fc	 mov	 ecx, DWORD PTR [edx-4]
  00037	33 c8		 xor	 ecx, eax
  00039	e8 00 00 00 00	 call	 @__security_check_cookie@4
  0003e	b8 00 00 00 00	 mov	 eax, OFFSET __ehfuncinfo$?CreateFireBall@ioTraceWeapon5@@IAE_NABVioHashString@@@Z
  00043	e9 00 00 00 00	 jmp	 ___CxxFrameHandler3
text$x	ENDS
?CreateFireBall@ioTraceWeapon5@@IAE_NABVioHashString@@@Z ENDP ; ioTraceWeapon5::CreateFireBall
PUBLIC	__$ArrayPad$
EXTRN	?SetOrientation@ioWeapon@@QAEXABUD3DXQUATERNION@@@Z:PROC ; ioWeapon::SetOrientation
EXTRN	__imp_?CalcDirectionQuaternion@ioMath@@SAXAAUD3DXQUATERNION@@ABUD3DXVECTOR3@@@Z:PROC
EXTRN	__imp_?VEC3_ZERO@ioMath@@2UD3DXVECTOR3@@A:BYTE
EXTRN	___security_cookie:DWORD
; Function compile flags: /Ogsp
;	COMDAT ?SetMoveDir@ioTraceWeapon5@@UAEXABUD3DXVECTOR3@@@Z
_TEXT	SEGMENT
_qtRot$ = -32						; size = 16
$T530688 = -16						; size = 12
__$ArrayPad$ = -4					; size = 4
_vDir$ = 8						; size = 4
?SetMoveDir@ioTraceWeapon5@@UAEXABUD3DXVECTOR3@@@Z PROC	; ioTraceWeapon5::SetMoveDir, COMDAT
; _this$ = ecx

; 115  : {

  00000	55		 push	 ebp
  00001	8b ec		 mov	 ebp, esp
  00003	83 ec 20	 sub	 esp, 32			; 00000020H
  00006	a1 00 00 00 00	 mov	 eax, DWORD PTR ___security_cookie
  0000b	33 c5		 xor	 eax, ebp
  0000d	89 45 fc	 mov	 DWORD PTR __$ArrayPad$[ebp], eax
  00010	8b 55 08	 mov	 edx, DWORD PTR _vDir$[ebp]
  00013	53		 push	 ebx
  00014	8b d9		 mov	 ebx, ecx

; 116  : 	if( m_vMoveDir != ioMath::VEC3_ZERO )

  00016	8b 0d 00 00 00
	00		 mov	 ecx, DWORD PTR __imp_?VEC3_ZERO@ioMath@@2UD3DXVECTOR3@@A
  0001c	f3 0f 10 09	 movss	 xmm1, DWORD PTR [ecx]
  00020	57		 push	 edi
  00021	8d bb 44 0a 00
	00		 lea	 edi, DWORD PTR [ebx+2628]
  00027	f3 0f 10 07	 movss	 xmm0, DWORD PTR [edi]
  0002b	0f 5a c0	 cvtps2pd xmm0, xmm0
  0002e	0f 5a c9	 cvtps2pd xmm1, xmm1
  00031	66 0f 2e c1	 ucomisd xmm0, xmm1
  00035	9f		 lahf
  00036	f6 c4 44	 test	 ah, 68			; 00000044H
  00039	0f 8a 84 00 00
	00		 jp	 $LN2@SetMoveDir
  0003f	f3 0f 10 47 04	 movss	 xmm0, DWORD PTR [edi+4]
  00044	f3 0f 10 49 04	 movss	 xmm1, DWORD PTR [ecx+4]
  00049	0f 5a c0	 cvtps2pd xmm0, xmm0
  0004c	0f 5a c9	 cvtps2pd xmm1, xmm1
  0004f	66 0f 2e c1	 ucomisd xmm0, xmm1
  00053	9f		 lahf
  00054	f6 c4 44	 test	 ah, 68			; 00000044H
  00057	7a 6a		 jp	 SHORT $LN2@SetMoveDir
  00059	f3 0f 10 47 08	 movss	 xmm0, DWORD PTR [edi+8]
  0005e	f3 0f 10 49 08	 movss	 xmm1, DWORD PTR [ecx+8]
  00063	0f 5a c0	 cvtps2pd xmm0, xmm0
  00066	0f 5a c9	 cvtps2pd xmm1, xmm1
  00069	66 0f 2e c1	 ucomisd xmm0, xmm1
  0006d	9f		 lahf
  0006e	f6 c4 44	 test	 ah, 68			; 00000044H
  00071	7a 50		 jp	 SHORT $LN2@SetMoveDir

; 117  : 		return;
; 118  : 
; 119  : 	m_vMoveDir = vDir;

  00073	56		 push	 esi
  00074	8b f2		 mov	 esi, edx
  00076	a5		 movsd
  00077	a5		 movsd
  00078	a5		 movsd

; 120  : 
; 121  : 	D3DXQUATERNION qtRot;
; 122  : 	ioMath::CalcDirectionQuaternion( qtRot, -vDir );

  00079	f3 0f 10 05 00
	00 00 00	 movss	 xmm0, DWORD PTR __mask@@NegFloat@
  00081	f3 0f 10 0a	 movss	 xmm1, DWORD PTR [edx]
  00085	0f 57 c8	 xorps	 xmm1, xmm0
  00088	f3 0f 11 4d f0	 movss	 DWORD PTR $T530688[ebp], xmm1
  0008d	f3 0f 10 4a 04	 movss	 xmm1, DWORD PTR [edx+4]
  00092	0f 57 c8	 xorps	 xmm1, xmm0
  00095	8d 45 f0	 lea	 eax, DWORD PTR $T530688[ebp]
  00098	50		 push	 eax
  00099	f3 0f 11 4d f4	 movss	 DWORD PTR $T530688[ebp+4], xmm1
  0009e	f3 0f 10 4a 08	 movss	 xmm1, DWORD PTR [edx+8]
  000a3	8d 45 e0	 lea	 eax, DWORD PTR _qtRot$[ebp]
  000a6	0f 57 c8	 xorps	 xmm1, xmm0
  000a9	50		 push	 eax
  000aa	f3 0f 11 4d f8	 movss	 DWORD PTR $T530688[ebp+8], xmm1
  000af	ff 15 00 00 00
	00		 call	 DWORD PTR __imp_?CalcDirectionQuaternion@ioMath@@SAXAAUD3DXQUATERNION@@ABUD3DXVECTOR3@@@Z
  000b5	59		 pop	 ecx
  000b6	59		 pop	 ecx

; 123  : 	SetOrientation( qtRot );

  000b7	8d 45 e0	 lea	 eax, DWORD PTR _qtRot$[ebp]
  000ba	50		 push	 eax
  000bb	8b cb		 mov	 ecx, ebx
  000bd	e8 00 00 00 00	 call	 ?SetOrientation@ioWeapon@@QAEXABUD3DXQUATERNION@@@Z ; ioWeapon::SetOrientation
  000c2	5e		 pop	 esi
$LN2@SetMoveDir:

; 124  : }

  000c3	8b 4d fc	 mov	 ecx, DWORD PTR __$ArrayPad$[ebp]
  000c6	5f		 pop	 edi
  000c7	33 cd		 xor	 ecx, ebp
  000c9	5b		 pop	 ebx
  000ca	e8 00 00 00 00	 call	 @__security_check_cookie@4
  000cf	c9		 leave
  000d0	c2 04 00	 ret	 4
?SetMoveDir@ioTraceWeapon5@@UAEXABUD3DXVECTOR3@@@Z ENDP	; ioTraceWeapon5::SetMoveDir
_TEXT	ENDS
PUBLIC	??D?$CEncrypt@M@@QAEMABM@Z			; CEncrypt<float>::operator*
; Function compile flags: /Ogsp
; File d:\lost saga for developer\youtube\tutorial\source\src\lsclient\encryptvalue.h
;	COMDAT ??D?$CEncrypt@M@@QAEMABM@Z
_TEXT	SEGMENT
_value$ = -4						; size = 4
tv130 = 8						; size = 4
_inValue$ = 8						; size = 4
??D?$CEncrypt@M@@QAEMABM@Z PROC				; CEncrypt<float>::operator*, COMDAT
; _this$ = ecx

; 1685 : 	{	

  00000	55		 push	 ebp
  00001	8b ec		 mov	 ebp, esp
  00003	51		 push	 ecx

; 1686 : 		type value;
; 1687 : 		DecryptValueToPool(&value);

  00004	8d 45 fc	 lea	 eax, DWORD PTR _value$[ebp]
  00007	50		 push	 eax
  00008	e8 00 00 00 00	 call	 ?DecryptValueToPool@?$CEncrypt@M@@QAEXPAM@Z ; CEncrypt<float>::DecryptValueToPool

; 1688 : #ifdef _NOTUSE
; 1689 : 		Debug();
; 1690 : #endif
; 1691 : 		return value * inValue;

  0000d	8b 45 08	 mov	 eax, DWORD PTR _inValue$[ebp]
  00010	d9 00		 fld	 DWORD PTR [eax]
  00012	d8 4d fc	 fmul	 DWORD PTR _value$[ebp]
  00015	d9 5d 08	 fstp	 DWORD PTR tv130[ebp]
  00018	d9 45 08	 fld	 DWORD PTR tv130[ebp]

; 1692 : 	}

  0001b	c9		 leave
  0001c	c2 04 00	 ret	 4
??D?$CEncrypt@M@@QAEMABM@Z ENDP				; CEncrypt<float>::operator*
_TEXT	ENDS
PUBLIC	??N?$CEncrypt@M@@QAE_NABM@Z			; CEncrypt<float>::operator<=
; Function compile flags: /Ogsp
;	COMDAT ??N?$CEncrypt@M@@QAE_NABM@Z
_TEXT	SEGMENT
_value$ = -4						; size = 4
_inValue$ = 8						; size = 4
??N?$CEncrypt@M@@QAE_NABM@Z PROC			; CEncrypt<float>::operator<=, COMDAT
; _this$ = ecx

; 1821 : 	{

  00000	55		 push	 ebp
  00001	8b ec		 mov	 ebp, esp
  00003	51		 push	 ecx

; 1822 : 		type value;
; 1823 : 		DecryptValueToPool(&value);

  00004	8d 45 fc	 lea	 eax, DWORD PTR _value$[ebp]
  00007	50		 push	 eax
  00008	e8 00 00 00 00	 call	 ?DecryptValueToPool@?$CEncrypt@M@@QAEXPAM@Z ; CEncrypt<float>::DecryptValueToPool

; 1824 : #ifdef _NOTUSE
; 1825 : 		Debug();
; 1826 : #endif
; 1827 : 		return (value <= inValue);

  0000d	8b 45 08	 mov	 eax, DWORD PTR _inValue$[ebp]
  00010	f3 0f 10 08	 movss	 xmm1, DWORD PTR [eax]
  00014	f3 0f 10 45 fc	 movss	 xmm0, DWORD PTR _value$[ebp]
  00019	0f 5a c0	 cvtps2pd xmm0, xmm0
  0001c	0f 5a c9	 cvtps2pd xmm1, xmm1
  0001f	33 c0		 xor	 eax, eax
  00021	66 0f 2f c8	 comisd	 xmm1, xmm0
  00025	72 01		 jb	 SHORT $LN4@operator@2
  00027	40		 inc	 eax
$LN4@operator@2:

; 1828 : 	}

  00028	c9		 leave
  00029	c2 04 00	 ret	 4
??N?$CEncrypt@M@@QAE_NABM@Z ENDP			; CEncrypt<float>::operator<=
_TEXT	ENDS
PUBLIC	__$ArrayPad$
PUBLIC	??$LoadString_e@$0L@@ioINILoader@@QAEXAAY0L@$$CBDAAY00$$CBDPADH@Z ; ioINILoader::LoadString_e<11>
EXTRN	__imp_?LoadStringA@ioINILoader@@QAEXPBD0PADH@Z:PROC
; Function compile flags: /Ogsp
; File d:\lost saga for developer\youtube\tutorial\source\src\io3dengine\ioiniloader.h
;	COMDAT ??$LoadString_e@$0L@@ioINILoader@@QAEXAAY0L@$$CBDAAY00$$CBDPADH@Z
_TEXT	SEGMENT
__k$ = -20						; size = 11
__$ArrayPad$ = -4					; size = 4
_k$ = 8							; size = 4
_d$ = 12						; size = 4
_b$ = 16						; size = 4
_i$ = 20						; size = 4
??$LoadString_e@$0L@@ioINILoader@@QAEXAAY0L@$$CBDAAY00$$CBDPADH@Z PROC ; ioINILoader::LoadString_e<11>, COMDAT
; _this$ = ecx

; 161  : 	{

  00000	55		 push	 ebp
  00001	8b ec		 mov	 ebp, esp
  00003	83 ec 14	 sub	 esp, 20			; 00000014H
  00006	a1 00 00 00 00	 mov	 eax, DWORD PTR ___security_cookie
  0000b	33 c5		 xor	 eax, ebp
  0000d	89 45 fc	 mov	 DWORD PTR __$ArrayPad$[ebp], eax
  00010	8b 45 08	 mov	 eax, DWORD PTR _k$[ebp]

; 162  : 		_ENCSTR(k, _k);

  00013	8a 10		 mov	 dl, BYTE PTR [eax]
  00015	53		 push	 ebx
  00016	56		 push	 esi
  00017	8b 75 0c	 mov	 esi, DWORD PTR _d$[ebp]
  0001a	57		 push	 edi
  0001b	8b 7d 10	 mov	 edi, DWORD PTR _b$[ebp]
  0001e	84 d2		 test	 dl, dl
  00020	0f 84 1b 01 00
	00		 je	 $LN96@LoadString
  00026	80 f2 ed	 xor	 dl, -19			; ffffffedH
  00029	88 55 ec	 mov	 BYTE PTR __k$[ebp], dl
  0002c	8a 50 01	 mov	 dl, BYTE PTR [eax+1]
  0002f	84 d2		 test	 dl, dl
  00031	0f 84 04 01 00
	00		 je	 $LN95@LoadString
  00037	b3 ec		 mov	 bl, -20			; ffffffecH
  00039	32 d3		 xor	 dl, bl
  0003b	88 55 ed	 mov	 BYTE PTR __k$[ebp+1], dl
  0003e	8a 50 02	 mov	 dl, BYTE PTR [eax+2]
  00041	84 d2		 test	 dl, dl
  00043	0f 84 ec 00 00
	00		 je	 $LN94@LoadString
  00049	80 f2 eb	 xor	 dl, -21			; ffffffebH
  0004c	88 55 ee	 mov	 BYTE PTR __k$[ebp+2], dl
  0004f	8a 50 03	 mov	 dl, BYTE PTR [eax+3]
  00052	84 d2		 test	 dl, dl
  00054	0f 84 d5 00 00
	00		 je	 $LN93@LoadString
  0005a	80 f2 ea	 xor	 dl, -22			; ffffffeaH
  0005d	88 55 ef	 mov	 BYTE PTR __k$[ebp+3], dl
  00060	8a 50 04	 mov	 dl, BYTE PTR [eax+4]
  00063	84 d2		 test	 dl, dl
  00065	0f 84 be 00 00
	00		 je	 $LN92@LoadString
  0006b	80 f2 ed	 xor	 dl, -19			; ffffffedH
  0006e	88 55 f0	 mov	 BYTE PTR __k$[ebp+4], dl
  00071	8a 50 05	 mov	 dl, BYTE PTR [eax+5]
  00074	84 d2		 test	 dl, dl
  00076	0f 84 a8 00 00
	00		 je	 $LN91@LoadString
  0007c	32 d3		 xor	 dl, bl
  0007e	88 55 f1	 mov	 BYTE PTR __k$[ebp+5], dl
  00081	8a 50 06	 mov	 dl, BYTE PTR [eax+6]
  00084	84 d2		 test	 dl, dl
  00086	0f 84 92 00 00
	00		 je	 $LN90@LoadString
  0008c	80 f2 eb	 xor	 dl, -21			; ffffffebH
  0008f	88 55 f2	 mov	 BYTE PTR __k$[ebp+6], dl
  00092	8a 50 07	 mov	 dl, BYTE PTR [eax+7]
  00095	84 d2		 test	 dl, dl
  00097	74 7f		 je	 SHORT $LN89@LoadString
  00099	80 f2 ea	 xor	 dl, -22			; ffffffeaH
  0009c	88 55 f3	 mov	 BYTE PTR __k$[ebp+7], dl
  0009f	8a 50 08	 mov	 dl, BYTE PTR [eax+8]
  000a2	84 d2		 test	 dl, dl
  000a4	74 6c		 je	 SHORT $LN88@LoadString
  000a6	80 f2 ed	 xor	 dl, -19			; ffffffedH
  000a9	88 55 f4	 mov	 BYTE PTR __k$[ebp+8], dl
  000ac	8a 50 09	 mov	 dl, BYTE PTR [eax+9]
  000af	84 d2		 test	 dl, dl
  000b1	74 5a		 je	 SHORT $LN87@LoadString
  000b3	32 d3		 xor	 dl, bl
  000b5	80 78 0a 00	 cmp	 BYTE PTR [eax+10], 0
  000b9	88 55 f5	 mov	 BYTE PTR __k$[ebp+9], dl
  000bc	0f 84 83 00 00
	00		 je	 $LN1@LoadString
  000c2	8a 50 0b	 mov	 dl, BYTE PTR [eax+11]
  000c5	84 d2		 test	 dl, dl
  000c7	74 3e		 je	 SHORT $LN85@LoadString
  000c9	80 f2 ea	 xor	 dl, -22			; ffffffeaH
  000cc	88 55 f7	 mov	 BYTE PTR __k$[ebp+11], dl
  000cf	8a 50 0c	 mov	 dl, BYTE PTR [eax+12]
  000d2	84 d2		 test	 dl, dl
  000d4	74 2b		 je	 SHORT $LN84@LoadString
  000d6	80 f2 ed	 xor	 dl, -19			; ffffffedH
  000d9	88 55 f8	 mov	 BYTE PTR __k$[ebp+12], dl
  000dc	8a 50 0d	 mov	 dl, BYTE PTR [eax+13]
  000df	84 d2		 test	 dl, dl
  000e1	74 19		 je	 SHORT $LN83@LoadString
  000e3	8a 40 0e	 mov	 al, BYTE PTR [eax+14]
  000e6	32 d3		 xor	 dl, bl
  000e8	88 55 f9	 mov	 BYTE PTR __k$[ebp+13], dl
  000eb	84 c0		 test	 al, al
  000ed	74 07		 je	 SHORT $LN82@LoadString
  000ef	34 eb		 xor	 al, -21			; ffffffebH
  000f1	88 45 fa	 mov	 BYTE PTR __k$[ebp+14], al
  000f4	eb 4f		 jmp	 SHORT $LN1@LoadString
$LN82@LoadString:
  000f6	c6 45 fa eb	 mov	 BYTE PTR __k$[ebp+14], -21 ; ffffffebH
  000fa	eb 49		 jmp	 SHORT $LN1@LoadString
$LN83@LoadString:
  000fc	88 5d f9	 mov	 BYTE PTR __k$[ebp+13], bl
  000ff	eb 44		 jmp	 SHORT $LN1@LoadString
$LN84@LoadString:
  00101	c6 45 f8 ed	 mov	 BYTE PTR __k$[ebp+12], -19 ; ffffffedH
  00105	eb 3e		 jmp	 SHORT $LN1@LoadString
$LN85@LoadString:
  00107	c6 45 f7 ea	 mov	 BYTE PTR __k$[ebp+11], -22 ; ffffffeaH
  0010b	eb 38		 jmp	 SHORT $LN1@LoadString
$LN87@LoadString:
  0010d	88 5d f5	 mov	 BYTE PTR __k$[ebp+9], bl
  00110	eb 33		 jmp	 SHORT $LN1@LoadString
$LN88@LoadString:
  00112	c6 45 f4 ed	 mov	 BYTE PTR __k$[ebp+8], -19 ; ffffffedH
  00116	eb 2d		 jmp	 SHORT $LN1@LoadString
$LN89@LoadString:
  00118	c6 45 f3 ea	 mov	 BYTE PTR __k$[ebp+7], -22 ; ffffffeaH
  0011c	eb 27		 jmp	 SHORT $LN1@LoadString
$LN90@LoadString:
  0011e	c6 45 f2 eb	 mov	 BYTE PTR __k$[ebp+6], -21 ; ffffffebH
  00122	eb 21		 jmp	 SHORT $LN1@LoadString
$LN91@LoadString:
  00124	88 5d f1	 mov	 BYTE PTR __k$[ebp+5], bl
  00127	eb 1c		 jmp	 SHORT $LN1@LoadString
$LN92@LoadString:
  00129	c6 45 f0 ed	 mov	 BYTE PTR __k$[ebp+4], -19 ; ffffffedH
  0012d	eb 16		 jmp	 SHORT $LN1@LoadString
$LN93@LoadString:
  0012f	c6 45 ef ea	 mov	 BYTE PTR __k$[ebp+3], -22 ; ffffffeaH
  00133	eb 10		 jmp	 SHORT $LN1@LoadString
$LN94@LoadString:
  00135	c6 45 ee eb	 mov	 BYTE PTR __k$[ebp+2], -21 ; ffffffebH
  00139	eb 0a		 jmp	 SHORT $LN1@LoadString
$LN95@LoadString:
  0013b	c6 45 ed ec	 mov	 BYTE PTR __k$[ebp+1], -20 ; ffffffecH
  0013f	eb 04		 jmp	 SHORT $LN1@LoadString
$LN96@LoadString:
  00141	c6 45 ec ed	 mov	 BYTE PTR __k$[ebp], -19	; ffffffedH
$LN1@LoadString:
  00145	6a 02		 push	 2
  00147	8d 45 ec	 lea	 eax, DWORD PTR __k$[ebp]
  0014a	c6 45 f6 00	 mov	 BYTE PTR __k$[ebp+10], 0
  0014e	5a		 pop	 edx
$LL104@LoadString:
  0014f	81 30 ed ec eb
	ea		 xor	 DWORD PTR [eax], -353637139 ; eaebecedH
  00155	83 c0 04	 add	 eax, 4
  00158	4a		 dec	 edx
  00159	75 f4		 jne	 SHORT $LL104@LoadString
  0015b	6a 08		 push	 8
  0015d	58		 pop	 eax
$LL101@LoadString:
  0015e	8b d0		 mov	 edx, eax
  00160	81 e2 03 00 00
	80		 and	 edx, -2147483645	; 80000003H
  00166	79 05		 jns	 SHORT $LN111@LoadString
  00168	4a		 dec	 edx
  00169	83 ca fc	 or	 edx, -4			; fffffffcH
  0016c	42		 inc	 edx
$LN111@LoadString:
  0016d	b3 ed		 mov	 bl, -19			; ffffffedH
  0016f	2a da		 sub	 bl, dl
  00171	30 5c 05 ec	 xor	 BYTE PTR __k$[ebp+eax], bl
  00175	40		 inc	 eax
  00176	83 f8 0a	 cmp	 eax, 10			; 0000000aH
  00179	7c e3		 jl	 SHORT $LL101@LoadString

; 163  : 		LoadString(_k, d, b, i);

  0017b	ff 75 14	 push	 DWORD PTR _i$[ebp]
  0017e	8d 45 ec	 lea	 eax, DWORD PTR __k$[ebp]
  00181	57		 push	 edi
  00182	56		 push	 esi
  00183	50		 push	 eax
  00184	ff 15 00 00 00
	00		 call	 DWORD PTR __imp_?LoadStringA@ioINILoader@@QAEXPBD0PADH@Z

; 164  : 	}

  0018a	8b 4d fc	 mov	 ecx, DWORD PTR __$ArrayPad$[ebp]
  0018d	5f		 pop	 edi
  0018e	5e		 pop	 esi
  0018f	33 cd		 xor	 ecx, ebp
  00191	5b		 pop	 ebx
  00192	e8 00 00 00 00	 call	 @__security_check_cookie@4
  00197	c9		 leave
  00198	c2 10 00	 ret	 16			; 00000010H
??$LoadString_e@$0L@@ioINILoader@@QAEXAAY0L@$$CBDAAY00$$CBDPADH@Z ENDP ; ioINILoader::LoadString_e<11>
_TEXT	ENDS
PUBLIC	__$ArrayPad$
PUBLIC	??$LoadInt_e@$09@ioINILoader@@QAEHAAY09$$CBDH@Z	; ioINILoader::LoadInt_e<10>
EXTRN	__imp_?LoadInt@ioINILoader@@QAEHPBDH@Z:PROC
; Function compile flags: /Ogsp
;	COMDAT ??$LoadInt_e@$09@ioINILoader@@QAEHAAY09$$CBDH@Z
_TEXT	SEGMENT
__k$ = -20						; size = 10
__$ArrayPad$ = -4					; size = 4
_k$ = 8							; size = 4
_i$ = 12						; size = 4
??$LoadInt_e@$09@ioINILoader@@QAEHAAY09$$CBDH@Z PROC	; ioINILoader::LoadInt_e<10>, COMDAT
; _this$ = ecx

; 118  : 	{

  00000	55		 push	 ebp
  00001	8b ec		 mov	 ebp, esp
  00003	83 ec 14	 sub	 esp, 20			; 00000014H
  00006	a1 00 00 00 00	 mov	 eax, DWORD PTR ___security_cookie
  0000b	33 c5		 xor	 eax, ebp
  0000d	89 45 fc	 mov	 DWORD PTR __$ArrayPad$[ebp], eax
  00010	8b 45 08	 mov	 eax, DWORD PTR _k$[ebp]

; 119  : 		_ENCSTR(k, _k);

  00013	8a 10		 mov	 dl, BYTE PTR [eax]
  00015	84 d2		 test	 dl, dl
  00017	0f 84 0d 01 00
	00		 je	 $LN96@LoadInt_e
  0001d	80 f2 ed	 xor	 dl, -19			; ffffffedH
  00020	88 55 ec	 mov	 BYTE PTR __k$[ebp], dl
  00023	8a 50 01	 mov	 dl, BYTE PTR [eax+1]
  00026	84 d2		 test	 dl, dl
  00028	0f 84 f6 00 00
	00		 je	 $LN95@LoadInt_e
  0002e	80 f2 ec	 xor	 dl, -20			; ffffffecH
  00031	88 55 ed	 mov	 BYTE PTR __k$[ebp+1], dl
  00034	8a 50 02	 mov	 dl, BYTE PTR [eax+2]
  00037	84 d2		 test	 dl, dl
  00039	0f 84 df 00 00
	00		 je	 $LN94@LoadInt_e
  0003f	80 f2 eb	 xor	 dl, -21			; ffffffebH
  00042	88 55 ee	 mov	 BYTE PTR __k$[ebp+2], dl
  00045	8a 50 03	 mov	 dl, BYTE PTR [eax+3]
  00048	84 d2		 test	 dl, dl
  0004a	0f 84 c8 00 00
	00		 je	 $LN93@LoadInt_e
  00050	80 f2 ea	 xor	 dl, -22			; ffffffeaH
  00053	88 55 ef	 mov	 BYTE PTR __k$[ebp+3], dl
  00056	8a 50 04	 mov	 dl, BYTE PTR [eax+4]
  00059	84 d2		 test	 dl, dl
  0005b	0f 84 b1 00 00
	00		 je	 $LN92@LoadInt_e
  00061	80 f2 ed	 xor	 dl, -19			; ffffffedH
  00064	88 55 f0	 mov	 BYTE PTR __k$[ebp+4], dl
  00067	8a 50 05	 mov	 dl, BYTE PTR [eax+5]
  0006a	84 d2		 test	 dl, dl
  0006c	0f 84 9a 00 00
	00		 je	 $LN91@LoadInt_e
  00072	80 f2 ec	 xor	 dl, -20			; ffffffecH
  00075	88 55 f1	 mov	 BYTE PTR __k$[ebp+5], dl
  00078	8a 50 06	 mov	 dl, BYTE PTR [eax+6]
  0007b	84 d2		 test	 dl, dl
  0007d	0f 84 83 00 00
	00		 je	 $LN90@LoadInt_e
  00083	80 f2 eb	 xor	 dl, -21			; ffffffebH
  00086	88 55 f2	 mov	 BYTE PTR __k$[ebp+6], dl
  00089	8a 50 07	 mov	 dl, BYTE PTR [eax+7]
  0008c	84 d2		 test	 dl, dl
  0008e	74 70		 je	 SHORT $LN89@LoadInt_e
  00090	80 f2 ea	 xor	 dl, -22			; ffffffeaH
  00093	88 55 f3	 mov	 BYTE PTR __k$[ebp+7], dl
  00096	8a 50 08	 mov	 dl, BYTE PTR [eax+8]
  00099	84 d2		 test	 dl, dl
  0009b	74 5d		 je	 SHORT $LN88@LoadInt_e
  0009d	80 f2 ed	 xor	 dl, -19			; ffffffedH
  000a0	80 78 09 00	 cmp	 BYTE PTR [eax+9], 0
  000a4	88 55 f4	 mov	 BYTE PTR __k$[ebp+8], dl
  000a7	0f 84 81 00 00
	00		 je	 $LN1@LoadInt_e
  000ad	8a 50 0a	 mov	 dl, BYTE PTR [eax+10]
  000b0	84 d2		 test	 dl, dl
  000b2	74 40		 je	 SHORT $LN86@LoadInt_e
  000b4	80 f2 eb	 xor	 dl, -21			; ffffffebH
  000b7	88 55 f6	 mov	 BYTE PTR __k$[ebp+10], dl
  000ba	8a 50 0b	 mov	 dl, BYTE PTR [eax+11]
  000bd	84 d2		 test	 dl, dl
  000bf	74 2d		 je	 SHORT $LN85@LoadInt_e
  000c1	80 f2 ea	 xor	 dl, -22			; ffffffeaH
  000c4	88 55 f7	 mov	 BYTE PTR __k$[ebp+11], dl
  000c7	8a 50 0c	 mov	 dl, BYTE PTR [eax+12]
  000ca	84 d2		 test	 dl, dl
  000cc	74 1a		 je	 SHORT $LN84@LoadInt_e
  000ce	8a 40 0d	 mov	 al, BYTE PTR [eax+13]
  000d1	80 f2 ed	 xor	 dl, -19			; ffffffedH
  000d4	88 55 f8	 mov	 BYTE PTR __k$[ebp+12], dl
  000d7	84 c0		 test	 al, al
  000d9	74 07		 je	 SHORT $LN83@LoadInt_e
  000db	34 ec		 xor	 al, -20			; ffffffecH
  000dd	88 45 f9	 mov	 BYTE PTR __k$[ebp+13], al
  000e0	eb 4c		 jmp	 SHORT $LN1@LoadInt_e
$LN83@LoadInt_e:
  000e2	c6 45 f9 ec	 mov	 BYTE PTR __k$[ebp+13], -20 ; ffffffecH
  000e6	eb 46		 jmp	 SHORT $LN1@LoadInt_e
$LN84@LoadInt_e:
  000e8	c6 45 f8 ed	 mov	 BYTE PTR __k$[ebp+12], -19 ; ffffffedH
  000ec	eb 40		 jmp	 SHORT $LN1@LoadInt_e
$LN85@LoadInt_e:
  000ee	c6 45 f7 ea	 mov	 BYTE PTR __k$[ebp+11], -22 ; ffffffeaH
  000f2	eb 3a		 jmp	 SHORT $LN1@LoadInt_e
$LN86@LoadInt_e:
  000f4	c6 45 f6 eb	 mov	 BYTE PTR __k$[ebp+10], -21 ; ffffffebH
  000f8	eb 34		 jmp	 SHORT $LN1@LoadInt_e
$LN88@LoadInt_e:
  000fa	c6 45 f4 ed	 mov	 BYTE PTR __k$[ebp+8], -19 ; ffffffedH
  000fe	eb 2e		 jmp	 SHORT $LN1@LoadInt_e
$LN89@LoadInt_e:
  00100	c6 45 f3 ea	 mov	 BYTE PTR __k$[ebp+7], -22 ; ffffffeaH
  00104	eb 28		 jmp	 SHORT $LN1@LoadInt_e
$LN90@LoadInt_e:
  00106	c6 45 f2 eb	 mov	 BYTE PTR __k$[ebp+6], -21 ; ffffffebH
  0010a	eb 22		 jmp	 SHORT $LN1@LoadInt_e
$LN91@LoadInt_e:
  0010c	c6 45 f1 ec	 mov	 BYTE PTR __k$[ebp+5], -20 ; ffffffecH
  00110	eb 1c		 jmp	 SHORT $LN1@LoadInt_e
$LN92@LoadInt_e:
  00112	c6 45 f0 ed	 mov	 BYTE PTR __k$[ebp+4], -19 ; ffffffedH
  00116	eb 16		 jmp	 SHORT $LN1@LoadInt_e
$LN93@LoadInt_e:
  00118	c6 45 ef ea	 mov	 BYTE PTR __k$[ebp+3], -22 ; ffffffeaH
  0011c	eb 10		 jmp	 SHORT $LN1@LoadInt_e
$LN94@LoadInt_e:
  0011e	c6 45 ee eb	 mov	 BYTE PTR __k$[ebp+2], -21 ; ffffffebH
  00122	eb 0a		 jmp	 SHORT $LN1@LoadInt_e
$LN95@LoadInt_e:
  00124	c6 45 ed ec	 mov	 BYTE PTR __k$[ebp+1], -20 ; ffffffecH
  00128	eb 04		 jmp	 SHORT $LN1@LoadInt_e
$LN96@LoadInt_e:
  0012a	c6 45 ec ed	 mov	 BYTE PTR __k$[ebp], -19	; ffffffedH
$LN1@LoadInt_e:
  0012e	6a 02		 push	 2
  00130	8d 45 ec	 lea	 eax, DWORD PTR __k$[ebp]
  00133	c6 45 f5 00	 mov	 BYTE PTR __k$[ebp+9], 0
  00137	5a		 pop	 edx
$LL104@LoadInt_e:
  00138	81 30 ed ec eb
	ea		 xor	 DWORD PTR [eax], -353637139 ; eaebecedH
  0013e	83 c0 04	 add	 eax, 4
  00141	4a		 dec	 edx
  00142	75 f4		 jne	 SHORT $LL104@LoadInt_e

; 120  : 		return LoadInt(_k, i);

  00144	ff 75 0c	 push	 DWORD PTR _i$[ebp]
  00147	80 75 f4 ed	 xor	 BYTE PTR __k$[ebp+8], -19 ; ffffffedH
  0014b	8d 45 ec	 lea	 eax, DWORD PTR __k$[ebp]
  0014e	50		 push	 eax
  0014f	ff 15 00 00 00
	00		 call	 DWORD PTR __imp_?LoadInt@ioINILoader@@QAEHPBDH@Z

; 121  : 	}

  00155	8b 4d fc	 mov	 ecx, DWORD PTR __$ArrayPad$[ebp]
  00158	33 cd		 xor	 ecx, ebp
  0015a	e8 00 00 00 00	 call	 @__security_check_cookie@4
  0015f	c9		 leave
  00160	c2 08 00	 ret	 8
??$LoadInt_e@$09@ioINILoader@@QAEHAAY09$$CBDH@Z ENDP	; ioINILoader::LoadInt_e<10>
_TEXT	ENDS
PUBLIC	__$ArrayPad$
PUBLIC	??$LoadFloat_e@$0N@@ioINILoader@@QAEMAAY0N@$$CBDM@Z ; ioINILoader::LoadFloat_e<13>
EXTRN	__imp_?LoadFloat@ioINILoader@@QAEMPBDM@Z:PROC
; Function compile flags: /Ogsp
;	COMDAT ??$LoadFloat_e@$0N@@ioINILoader@@QAEMAAY0N@$$CBDM@Z
_TEXT	SEGMENT
__k$ = -24						; size = 13
__$ArrayPad$ = -4					; size = 4
_k$ = 8							; size = 4
_f$ = 12						; size = 4
??$LoadFloat_e@$0N@@ioINILoader@@QAEMAAY0N@$$CBDM@Z PROC ; ioINILoader::LoadFloat_e<13>, COMDAT
; _this$ = ecx

; 135  : 	{

  00000	55		 push	 ebp
  00001	8b ec		 mov	 ebp, esp
  00003	83 ec 18	 sub	 esp, 24			; 00000018H
  00006	a1 00 00 00 00	 mov	 eax, DWORD PTR ___security_cookie
  0000b	33 c5		 xor	 eax, ebp
  0000d	89 45 fc	 mov	 DWORD PTR __$ArrayPad$[ebp], eax
  00010	8b 45 08	 mov	 eax, DWORD PTR _k$[ebp]

; 136  : 		_ENCSTR(k, _k);

  00013	8a 10		 mov	 dl, BYTE PTR [eax]
  00015	56		 push	 esi
  00016	8b f1		 mov	 esi, ecx
  00018	84 d2		 test	 dl, dl
  0001a	0f 84 4d 01 00
	00		 je	 $LN96@LoadFloat_
  00020	80 f2 ed	 xor	 dl, -19			; ffffffedH
  00023	88 55 e8	 mov	 BYTE PTR __k$[ebp], dl
  00026	8a 50 01	 mov	 dl, BYTE PTR [eax+1]
  00029	84 d2		 test	 dl, dl
  0002b	0f 84 36 01 00
	00		 je	 $LN95@LoadFloat_
  00031	b1 ec		 mov	 cl, -20			; ffffffecH
  00033	32 d1		 xor	 dl, cl
  00035	88 55 e9	 mov	 BYTE PTR __k$[ebp+1], dl
  00038	8a 50 02	 mov	 dl, BYTE PTR [eax+2]
  0003b	84 d2		 test	 dl, dl
  0003d	0f 84 1e 01 00
	00		 je	 $LN94@LoadFloat_
  00043	80 f2 eb	 xor	 dl, -21			; ffffffebH
  00046	88 55 ea	 mov	 BYTE PTR __k$[ebp+2], dl
  00049	8a 50 03	 mov	 dl, BYTE PTR [eax+3]
  0004c	84 d2		 test	 dl, dl
  0004e	0f 84 07 01 00
	00		 je	 $LN93@LoadFloat_
  00054	80 f2 ea	 xor	 dl, -22			; ffffffeaH
  00057	88 55 eb	 mov	 BYTE PTR __k$[ebp+3], dl
  0005a	8a 50 04	 mov	 dl, BYTE PTR [eax+4]
  0005d	84 d2		 test	 dl, dl
  0005f	0f 84 f0 00 00
	00		 je	 $LN92@LoadFloat_
  00065	80 f2 ed	 xor	 dl, -19			; ffffffedH
  00068	88 55 ec	 mov	 BYTE PTR __k$[ebp+4], dl
  0006b	8a 50 05	 mov	 dl, BYTE PTR [eax+5]
  0006e	84 d2		 test	 dl, dl
  00070	0f 84 da 00 00
	00		 je	 $LN91@LoadFloat_
  00076	32 d1		 xor	 dl, cl
  00078	88 55 ed	 mov	 BYTE PTR __k$[ebp+5], dl
  0007b	8a 50 06	 mov	 dl, BYTE PTR [eax+6]
  0007e	84 d2		 test	 dl, dl
  00080	0f 84 c4 00 00
	00		 je	 $LN90@LoadFloat_
  00086	80 f2 eb	 xor	 dl, -21			; ffffffebH
  00089	88 55 ee	 mov	 BYTE PTR __k$[ebp+6], dl
  0008c	8a 50 07	 mov	 dl, BYTE PTR [eax+7]
  0008f	84 d2		 test	 dl, dl
  00091	0f 84 ad 00 00
	00		 je	 $LN89@LoadFloat_
  00097	80 f2 ea	 xor	 dl, -22			; ffffffeaH
  0009a	88 55 ef	 mov	 BYTE PTR __k$[ebp+7], dl
  0009d	8a 50 08	 mov	 dl, BYTE PTR [eax+8]
  000a0	84 d2		 test	 dl, dl
  000a2	0f 84 96 00 00
	00		 je	 $LN88@LoadFloat_
  000a8	80 f2 ed	 xor	 dl, -19			; ffffffedH
  000ab	88 55 f0	 mov	 BYTE PTR __k$[ebp+8], dl
  000ae	8a 50 09	 mov	 dl, BYTE PTR [eax+9]
  000b1	84 d2		 test	 dl, dl
  000b3	0f 84 80 00 00
	00		 je	 $LN87@LoadFloat_
  000b9	32 d1		 xor	 dl, cl
  000bb	88 55 f1	 mov	 BYTE PTR __k$[ebp+9], dl
  000be	8a 50 0a	 mov	 dl, BYTE PTR [eax+10]
  000c1	84 d2		 test	 dl, dl
  000c3	74 6e		 je	 SHORT $LN86@LoadFloat_
  000c5	80 f2 eb	 xor	 dl, -21			; ffffffebH
  000c8	88 55 f2	 mov	 BYTE PTR __k$[ebp+10], dl
  000cb	8a 50 0b	 mov	 dl, BYTE PTR [eax+11]
  000ce	84 d2		 test	 dl, dl
  000d0	74 5b		 je	 SHORT $LN85@LoadFloat_
  000d2	80 f2 ea	 xor	 dl, -22			; ffffffeaH
  000d5	80 78 0c 00	 cmp	 BYTE PTR [eax+12], 0
  000d9	88 55 f3	 mov	 BYTE PTR __k$[ebp+11], dl
  000dc	0f 84 8f 00 00
	00		 je	 $LN1@LoadFloat_
  000e2	8a 50 0d	 mov	 dl, BYTE PTR [eax+13]
  000e5	84 d2		 test	 dl, dl
  000e7	74 3f		 je	 SHORT $LN83@LoadFloat_
  000e9	32 d1		 xor	 dl, cl
  000eb	88 55 f5	 mov	 BYTE PTR __k$[ebp+13], dl
  000ee	8a 50 0e	 mov	 dl, BYTE PTR [eax+14]
  000f1	84 d2		 test	 dl, dl
  000f3	74 2d		 je	 SHORT $LN82@LoadFloat_
  000f5	80 f2 eb	 xor	 dl, -21			; ffffffebH
  000f8	88 55 f6	 mov	 BYTE PTR __k$[ebp+14], dl
  000fb	8a 50 0f	 mov	 dl, BYTE PTR [eax+15]
  000fe	84 d2		 test	 dl, dl
  00100	74 1a		 je	 SHORT $LN81@LoadFloat_
  00102	8a 40 10	 mov	 al, BYTE PTR [eax+16]
  00105	80 f2 ea	 xor	 dl, -22			; ffffffeaH
  00108	88 55 f7	 mov	 BYTE PTR __k$[ebp+15], dl
  0010b	84 c0		 test	 al, al
  0010d	74 07		 je	 SHORT $LN80@LoadFloat_
  0010f	34 ed		 xor	 al, -19			; ffffffedH
  00111	88 45 f8	 mov	 BYTE PTR __k$[ebp+16], al
  00114	eb 5b		 jmp	 SHORT $LN1@LoadFloat_
$LN80@LoadFloat_:
  00116	c6 45 f8 ed	 mov	 BYTE PTR __k$[ebp+16], -19 ; ffffffedH
  0011a	eb 55		 jmp	 SHORT $LN1@LoadFloat_
$LN81@LoadFloat_:
  0011c	c6 45 f7 ea	 mov	 BYTE PTR __k$[ebp+15], -22 ; ffffffeaH
  00120	eb 4f		 jmp	 SHORT $LN1@LoadFloat_
$LN82@LoadFloat_:
  00122	c6 45 f6 eb	 mov	 BYTE PTR __k$[ebp+14], -21 ; ffffffebH
  00126	eb 49		 jmp	 SHORT $LN1@LoadFloat_
$LN83@LoadFloat_:
  00128	88 4d f5	 mov	 BYTE PTR __k$[ebp+13], cl
  0012b	eb 44		 jmp	 SHORT $LN1@LoadFloat_
$LN85@LoadFloat_:
  0012d	c6 45 f3 ea	 mov	 BYTE PTR __k$[ebp+11], -22 ; ffffffeaH
  00131	eb 3e		 jmp	 SHORT $LN1@LoadFloat_
$LN86@LoadFloat_:
  00133	c6 45 f2 eb	 mov	 BYTE PTR __k$[ebp+10], -21 ; ffffffebH
  00137	eb 38		 jmp	 SHORT $LN1@LoadFloat_
$LN87@LoadFloat_:
  00139	88 4d f1	 mov	 BYTE PTR __k$[ebp+9], cl
  0013c	eb 33		 jmp	 SHORT $LN1@LoadFloat_
$LN88@LoadFloat_:
  0013e	c6 45 f0 ed	 mov	 BYTE PTR __k$[ebp+8], -19 ; ffffffedH
  00142	eb 2d		 jmp	 SHORT $LN1@LoadFloat_
$LN89@LoadFloat_:
  00144	c6 45 ef ea	 mov	 BYTE PTR __k$[ebp+7], -22 ; ffffffeaH
  00148	eb 27		 jmp	 SHORT $LN1@LoadFloat_
$LN90@LoadFloat_:
  0014a	c6 45 ee eb	 mov	 BYTE PTR __k$[ebp+6], -21 ; ffffffebH
  0014e	eb 21		 jmp	 SHORT $LN1@LoadFloat_
$LN91@LoadFloat_:
  00150	88 4d ed	 mov	 BYTE PTR __k$[ebp+5], cl
  00153	eb 1c		 jmp	 SHORT $LN1@LoadFloat_
$LN92@LoadFloat_:
  00155	c6 45 ec ed	 mov	 BYTE PTR __k$[ebp+4], -19 ; ffffffedH
  00159	eb 16		 jmp	 SHORT $LN1@LoadFloat_
$LN93@LoadFloat_:
  0015b	c6 45 eb ea	 mov	 BYTE PTR __k$[ebp+3], -22 ; ffffffeaH
  0015f	eb 10		 jmp	 SHORT $LN1@LoadFloat_
$LN94@LoadFloat_:
  00161	c6 45 ea eb	 mov	 BYTE PTR __k$[ebp+2], -21 ; ffffffebH
  00165	eb 0a		 jmp	 SHORT $LN1@LoadFloat_
$LN95@LoadFloat_:
  00167	c6 45 e9 ec	 mov	 BYTE PTR __k$[ebp+1], -20 ; ffffffecH
  0016b	eb 04		 jmp	 SHORT $LN1@LoadFloat_
$LN96@LoadFloat_:
  0016d	c6 45 e8 ed	 mov	 BYTE PTR __k$[ebp], -19	; ffffffedH
$LN1@LoadFloat_:
  00171	6a 03		 push	 3
  00173	8d 45 e8	 lea	 eax, DWORD PTR __k$[ebp]
  00176	c6 45 f4 00	 mov	 BYTE PTR __k$[ebp+12], 0
  0017a	5a		 pop	 edx
$LL104@LoadFloat_:
  0017b	81 30 ed ec eb
	ea		 xor	 DWORD PTR [eax], -353637139 ; eaebecedH
  00181	83 c0 04	 add	 eax, 4
  00184	4a		 dec	 edx
  00185	75 f4		 jne	 SHORT $LL104@LoadFloat_

; 137  : 		return LoadFloat(_k, f);

  00187	f3 0f 10 45 0c	 movss	 xmm0, DWORD PTR _f$[ebp]
  0018c	51		 push	 ecx
  0018d	8d 45 e8	 lea	 eax, DWORD PTR __k$[ebp]
  00190	f3 0f 11 04 24	 movss	 DWORD PTR [esp], xmm0
  00195	50		 push	 eax
  00196	8b ce		 mov	 ecx, esi
  00198	ff 15 00 00 00
	00		 call	 DWORD PTR __imp_?LoadFloat@ioINILoader@@QAEMPBDM@Z

; 138  : 	}

  0019e	8b 4d fc	 mov	 ecx, DWORD PTR __$ArrayPad$[ebp]
  001a1	33 cd		 xor	 ecx, ebp
  001a3	5e		 pop	 esi
  001a4	e8 00 00 00 00	 call	 @__security_check_cookie@4
  001a9	c9		 leave
  001aa	c2 08 00	 ret	 8
??$LoadFloat_e@$0N@@ioINILoader@@QAEMAAY0N@$$CBDM@Z ENDP ; ioINILoader::LoadFloat_e<13>
_TEXT	ENDS
PUBLIC	__$ArrayPad$
PUBLIC	??$LoadInt_e@$0BC@@ioINILoader@@QAEHAAY0BC@$$CBDH@Z ; ioINILoader::LoadInt_e<18>
; Function compile flags: /Ogsp
;	COMDAT ??$LoadInt_e@$0BC@@ioINILoader@@QAEHAAY0BC@$$CBDH@Z
_TEXT	SEGMENT
__k$ = -28						; size = 18
__$ArrayPad$ = -4					; size = 4
_k$ = 8							; size = 4
_i$ = 12						; size = 4
??$LoadInt_e@$0BC@@ioINILoader@@QAEHAAY0BC@$$CBDH@Z PROC ; ioINILoader::LoadInt_e<18>, COMDAT
; _this$ = ecx

; 118  : 	{

  00000	55		 push	 ebp
  00001	8b ec		 mov	 ebp, esp
  00003	83 ec 1c	 sub	 esp, 28			; 0000001cH
  00006	a1 00 00 00 00	 mov	 eax, DWORD PTR ___security_cookie
  0000b	33 c5		 xor	 eax, ebp
  0000d	89 45 fc	 mov	 DWORD PTR __$ArrayPad$[ebp], eax
  00010	8b 45 08	 mov	 eax, DWORD PTR _k$[ebp]

; 119  : 		_ENCSTR(k, _k);

  00013	8a 10		 mov	 dl, BYTE PTR [eax]
  00015	56		 push	 esi
  00016	8b f1		 mov	 esi, ecx
  00018	84 d2		 test	 dl, dl
  0001a	0f 84 be 01 00
	00		 je	 $LN96@LoadInt_e@2
  00020	80 f2 ed	 xor	 dl, -19			; ffffffedH
  00023	88 55 e4	 mov	 BYTE PTR __k$[ebp], dl
  00026	8a 50 01	 mov	 dl, BYTE PTR [eax+1]
  00029	84 d2		 test	 dl, dl
  0002b	0f 84 a7 01 00
	00		 je	 $LN95@LoadInt_e@2
  00031	80 f2 ec	 xor	 dl, -20			; ffffffecH
  00034	88 55 e5	 mov	 BYTE PTR __k$[ebp+1], dl
  00037	8a 50 02	 mov	 dl, BYTE PTR [eax+2]
  0003a	84 d2		 test	 dl, dl
  0003c	0f 84 90 01 00
	00		 je	 $LN94@LoadInt_e@2
  00042	b1 eb		 mov	 cl, -21			; ffffffebH
  00044	32 d1		 xor	 dl, cl
  00046	88 55 e6	 mov	 BYTE PTR __k$[ebp+2], dl
  00049	8a 50 03	 mov	 dl, BYTE PTR [eax+3]
  0004c	84 d2		 test	 dl, dl
  0004e	0f 84 78 01 00
	00		 je	 $LN93@LoadInt_e@2
  00054	80 f2 ea	 xor	 dl, -22			; ffffffeaH
  00057	88 55 e7	 mov	 BYTE PTR __k$[ebp+3], dl
  0005a	8a 50 04	 mov	 dl, BYTE PTR [eax+4]
  0005d	84 d2		 test	 dl, dl
  0005f	0f 84 61 01 00
	00		 je	 $LN92@LoadInt_e@2
  00065	80 f2 ed	 xor	 dl, -19			; ffffffedH
  00068	88 55 e8	 mov	 BYTE PTR __k$[ebp+4], dl
  0006b	8a 50 05	 mov	 dl, BYTE PTR [eax+5]
  0006e	84 d2		 test	 dl, dl
  00070	0f 84 4a 01 00
	00		 je	 $LN91@LoadInt_e@2
  00076	80 f2 ec	 xor	 dl, -20			; ffffffecH
  00079	88 55 e9	 mov	 BYTE PTR __k$[ebp+5], dl
  0007c	8a 50 06	 mov	 dl, BYTE PTR [eax+6]
  0007f	84 d2		 test	 dl, dl
  00081	0f 84 34 01 00
	00		 je	 $LN90@LoadInt_e@2
  00087	32 d1		 xor	 dl, cl
  00089	88 55 ea	 mov	 BYTE PTR __k$[ebp+6], dl
  0008c	8a 50 07	 mov	 dl, BYTE PTR [eax+7]
  0008f	84 d2		 test	 dl, dl
  00091	0f 84 1e 01 00
	00		 je	 $LN89@LoadInt_e@2
  00097	80 f2 ea	 xor	 dl, -22			; ffffffeaH
  0009a	88 55 eb	 mov	 BYTE PTR __k$[ebp+7], dl
  0009d	8a 50 08	 mov	 dl, BYTE PTR [eax+8]
  000a0	84 d2		 test	 dl, dl
  000a2	0f 84 07 01 00
	00		 je	 $LN88@LoadInt_e@2
  000a8	80 f2 ed	 xor	 dl, -19			; ffffffedH
  000ab	88 55 ec	 mov	 BYTE PTR __k$[ebp+8], dl
  000ae	8a 50 09	 mov	 dl, BYTE PTR [eax+9]
  000b1	84 d2		 test	 dl, dl
  000b3	0f 84 f0 00 00
	00		 je	 $LN87@LoadInt_e@2
  000b9	80 f2 ec	 xor	 dl, -20			; ffffffecH
  000bc	88 55 ed	 mov	 BYTE PTR __k$[ebp+9], dl
  000bf	8a 50 0a	 mov	 dl, BYTE PTR [eax+10]
  000c2	84 d2		 test	 dl, dl
  000c4	0f 84 da 00 00
	00		 je	 $LN86@LoadInt_e@2
  000ca	32 d1		 xor	 dl, cl
  000cc	88 55 ee	 mov	 BYTE PTR __k$[ebp+10], dl
  000cf	8a 50 0b	 mov	 dl, BYTE PTR [eax+11]
  000d2	84 d2		 test	 dl, dl
  000d4	0f 84 c4 00 00
	00		 je	 $LN85@LoadInt_e@2
  000da	80 f2 ea	 xor	 dl, -22			; ffffffeaH
  000dd	88 55 ef	 mov	 BYTE PTR __k$[ebp+11], dl
  000e0	8a 50 0c	 mov	 dl, BYTE PTR [eax+12]
  000e3	84 d2		 test	 dl, dl
  000e5	0f 84 ad 00 00
	00		 je	 $LN84@LoadInt_e@2
  000eb	80 f2 ed	 xor	 dl, -19			; ffffffedH
  000ee	88 55 f0	 mov	 BYTE PTR __k$[ebp+12], dl
  000f1	8a 50 0d	 mov	 dl, BYTE PTR [eax+13]
  000f4	84 d2		 test	 dl, dl
  000f6	0f 84 96 00 00
	00		 je	 $LN83@LoadInt_e@2
  000fc	80 f2 ec	 xor	 dl, -20			; ffffffecH
  000ff	88 55 f1	 mov	 BYTE PTR __k$[ebp+13], dl
  00102	8a 50 0e	 mov	 dl, BYTE PTR [eax+14]
  00105	84 d2		 test	 dl, dl
  00107	0f 84 80 00 00
	00		 je	 $LN82@LoadInt_e@2
  0010d	32 d1		 xor	 dl, cl
  0010f	88 55 f2	 mov	 BYTE PTR __k$[ebp+14], dl
  00112	8a 50 0f	 mov	 dl, BYTE PTR [eax+15]
  00115	84 d2		 test	 dl, dl
  00117	74 6e		 je	 SHORT $LN81@LoadInt_e@2
  00119	80 f2 ea	 xor	 dl, -22			; ffffffeaH
  0011c	88 55 f3	 mov	 BYTE PTR __k$[ebp+15], dl
  0011f	8a 50 10	 mov	 dl, BYTE PTR [eax+16]
  00122	84 d2		 test	 dl, dl
  00124	74 5b		 je	 SHORT $LN80@LoadInt_e@2
  00126	80 f2 ed	 xor	 dl, -19			; ffffffedH
  00129	80 78 11 00	 cmp	 BYTE PTR [eax+17], 0
  0012d	88 55 f4	 mov	 BYTE PTR __k$[ebp+16], dl
  00130	0f 84 ac 00 00
	00		 je	 $LN1@LoadInt_e@2
  00136	8a 50 12	 mov	 dl, BYTE PTR [eax+18]
  00139	84 d2		 test	 dl, dl
  0013b	74 3f		 je	 SHORT $LN78@LoadInt_e@2
  0013d	32 d1		 xor	 dl, cl
  0013f	88 55 f6	 mov	 BYTE PTR __k$[ebp+18], dl
  00142	8a 50 13	 mov	 dl, BYTE PTR [eax+19]
  00145	84 d2		 test	 dl, dl
  00147	74 2d		 je	 SHORT $LN77@LoadInt_e@2
  00149	80 f2 ea	 xor	 dl, -22			; ffffffeaH
  0014c	88 55 f7	 mov	 BYTE PTR __k$[ebp+19], dl
  0014f	8a 50 14	 mov	 dl, BYTE PTR [eax+20]
  00152	84 d2		 test	 dl, dl
  00154	74 1a		 je	 SHORT $LN76@LoadInt_e@2
  00156	8a 40 15	 mov	 al, BYTE PTR [eax+21]
  00159	80 f2 ed	 xor	 dl, -19			; ffffffedH
  0015c	88 55 f8	 mov	 BYTE PTR __k$[ebp+20], dl
  0015f	84 c0		 test	 al, al
  00161	74 07		 je	 SHORT $LN75@LoadInt_e@2
  00163	34 ec		 xor	 al, -20			; ffffffecH
  00165	88 45 f9	 mov	 BYTE PTR __k$[ebp+21], al
  00168	eb 78		 jmp	 SHORT $LN1@LoadInt_e@2
$LN75@LoadInt_e@2:
  0016a	c6 45 f9 ec	 mov	 BYTE PTR __k$[ebp+21], -20 ; ffffffecH
  0016e	eb 72		 jmp	 SHORT $LN1@LoadInt_e@2
$LN76@LoadInt_e@2:
  00170	c6 45 f8 ed	 mov	 BYTE PTR __k$[ebp+20], -19 ; ffffffedH
  00174	eb 6c		 jmp	 SHORT $LN1@LoadInt_e@2
$LN77@LoadInt_e@2:
  00176	c6 45 f7 ea	 mov	 BYTE PTR __k$[ebp+19], -22 ; ffffffeaH
  0017a	eb 66		 jmp	 SHORT $LN1@LoadInt_e@2
$LN78@LoadInt_e@2:
  0017c	88 4d f6	 mov	 BYTE PTR __k$[ebp+18], cl
  0017f	eb 61		 jmp	 SHORT $LN1@LoadInt_e@2
$LN80@LoadInt_e@2:
  00181	c6 45 f4 ed	 mov	 BYTE PTR __k$[ebp+16], -19 ; ffffffedH
  00185	eb 5b		 jmp	 SHORT $LN1@LoadInt_e@2
$LN81@LoadInt_e@2:
  00187	c6 45 f3 ea	 mov	 BYTE PTR __k$[ebp+15], -22 ; ffffffeaH
  0018b	eb 55		 jmp	 SHORT $LN1@LoadInt_e@2
$LN82@LoadInt_e@2:
  0018d	88 4d f2	 mov	 BYTE PTR __k$[ebp+14], cl
  00190	eb 50		 jmp	 SHORT $LN1@LoadInt_e@2
$LN83@LoadInt_e@2:
  00192	c6 45 f1 ec	 mov	 BYTE PTR __k$[ebp+13], -20 ; ffffffecH
  00196	eb 4a		 jmp	 SHORT $LN1@LoadInt_e@2
$LN84@LoadInt_e@2:
  00198	c6 45 f0 ed	 mov	 BYTE PTR __k$[ebp+12], -19 ; ffffffedH
  0019c	eb 44		 jmp	 SHORT $LN1@LoadInt_e@2
$LN85@LoadInt_e@2:
  0019e	c6 45 ef ea	 mov	 BYTE PTR __k$[ebp+11], -22 ; ffffffeaH
  001a2	eb 3e		 jmp	 SHORT $LN1@LoadInt_e@2
$LN86@LoadInt_e@2:
  001a4	88 4d ee	 mov	 BYTE PTR __k$[ebp+10], cl
  001a7	eb 39		 jmp	 SHORT $LN1@LoadInt_e@2
$LN87@LoadInt_e@2:
  001a9	c6 45 ed ec	 mov	 BYTE PTR __k$[ebp+9], -20 ; ffffffecH
  001ad	eb 33		 jmp	 SHORT $LN1@LoadInt_e@2
$LN88@LoadInt_e@2:
  001af	c6 45 ec ed	 mov	 BYTE PTR __k$[ebp+8], -19 ; ffffffedH
  001b3	eb 2d		 jmp	 SHORT $LN1@LoadInt_e@2
$LN89@LoadInt_e@2:
  001b5	c6 45 eb ea	 mov	 BYTE PTR __k$[ebp+7], -22 ; ffffffeaH
  001b9	eb 27		 jmp	 SHORT $LN1@LoadInt_e@2
$LN90@LoadInt_e@2:
  001bb	88 4d ea	 mov	 BYTE PTR __k$[ebp+6], cl
  001be	eb 22		 jmp	 SHORT $LN1@LoadInt_e@2
$LN91@LoadInt_e@2:
  001c0	c6 45 e9 ec	 mov	 BYTE PTR __k$[ebp+5], -20 ; ffffffecH
  001c4	eb 1c		 jmp	 SHORT $LN1@LoadInt_e@2
$LN92@LoadInt_e@2:
  001c6	c6 45 e8 ed	 mov	 BYTE PTR __k$[ebp+4], -19 ; ffffffedH
  001ca	eb 16		 jmp	 SHORT $LN1@LoadInt_e@2
$LN93@LoadInt_e@2:
  001cc	c6 45 e7 ea	 mov	 BYTE PTR __k$[ebp+3], -22 ; ffffffeaH
  001d0	eb 10		 jmp	 SHORT $LN1@LoadInt_e@2
$LN94@LoadInt_e@2:
  001d2	c6 45 e6 eb	 mov	 BYTE PTR __k$[ebp+2], -21 ; ffffffebH
  001d6	eb 0a		 jmp	 SHORT $LN1@LoadInt_e@2
$LN95@LoadInt_e@2:
  001d8	c6 45 e5 ec	 mov	 BYTE PTR __k$[ebp+1], -20 ; ffffffecH
  001dc	eb 04		 jmp	 SHORT $LN1@LoadInt_e@2
$LN96@LoadInt_e@2:
  001de	c6 45 e4 ed	 mov	 BYTE PTR __k$[ebp], -19	; ffffffedH
$LN1@LoadInt_e@2:
  001e2	6a 04		 push	 4
  001e4	8d 45 e4	 lea	 eax, DWORD PTR __k$[ebp]
  001e7	c6 45 f5 00	 mov	 BYTE PTR __k$[ebp+17], 0
  001eb	5a		 pop	 edx
$LL104@LoadInt_e@2:
  001ec	81 30 ed ec eb
	ea		 xor	 DWORD PTR [eax], -353637139 ; eaebecedH
  001f2	83 c0 04	 add	 eax, 4
  001f5	4a		 dec	 edx
  001f6	75 f4		 jne	 SHORT $LL104@LoadInt_e@2

; 120  : 		return LoadInt(_k, i);

  001f8	ff 75 0c	 push	 DWORD PTR _i$[ebp]
  001fb	80 75 f4 ed	 xor	 BYTE PTR __k$[ebp+16], -19 ; ffffffedH
  001ff	8d 45 e4	 lea	 eax, DWORD PTR __k$[ebp]
  00202	50		 push	 eax
  00203	8b ce		 mov	 ecx, esi
  00205	ff 15 00 00 00
	00		 call	 DWORD PTR __imp_?LoadInt@ioINILoader@@QAEHPBDH@Z

; 121  : 	}

  0020b	8b 4d fc	 mov	 ecx, DWORD PTR __$ArrayPad$[ebp]
  0020e	33 cd		 xor	 ecx, ebp
  00210	5e		 pop	 esi
  00211	e8 00 00 00 00	 call	 @__security_check_cookie@4
  00216	c9		 leave
  00217	c2 08 00	 ret	 8
??$LoadInt_e@$0BC@@ioINILoader@@QAEHAAY0BC@$$CBDH@Z ENDP ; ioINILoader::LoadInt_e<18>
_TEXT	ENDS
PUBLIC	__$ArrayPad$
PUBLIC	??$LoadFloat_e@$0M@@ioINILoader@@QAEMAAY0M@$$CBDM@Z ; ioINILoader::LoadFloat_e<12>
; Function compile flags: /Ogsp
;	COMDAT ??$LoadFloat_e@$0M@@ioINILoader@@QAEMAAY0M@$$CBDM@Z
_TEXT	SEGMENT
__k$ = -20						; size = 12
__$ArrayPad$ = -4					; size = 4
_k$ = 8							; size = 4
_f$ = 12						; size = 4
??$LoadFloat_e@$0M@@ioINILoader@@QAEMAAY0M@$$CBDM@Z PROC ; ioINILoader::LoadFloat_e<12>, COMDAT
; _this$ = ecx

; 135  : 	{

  00000	55		 push	 ebp
  00001	8b ec		 mov	 ebp, esp
  00003	83 ec 14	 sub	 esp, 20			; 00000014H
  00006	a1 00 00 00 00	 mov	 eax, DWORD PTR ___security_cookie
  0000b	33 c5		 xor	 eax, ebp
  0000d	89 45 fc	 mov	 DWORD PTR __$ArrayPad$[ebp], eax
  00010	8b 45 08	 mov	 eax, DWORD PTR _k$[ebp]

; 136  : 		_ENCSTR(k, _k);

  00013	8a 10		 mov	 dl, BYTE PTR [eax]
  00015	56		 push	 esi
  00016	8b f1		 mov	 esi, ecx
  00018	84 d2		 test	 dl, dl
  0001a	0f 84 32 01 00
	00		 je	 $LN96@LoadFloat_@2
  00020	80 f2 ed	 xor	 dl, -19			; ffffffedH
  00023	88 55 ec	 mov	 BYTE PTR __k$[ebp], dl
  00026	8a 50 01	 mov	 dl, BYTE PTR [eax+1]
  00029	84 d2		 test	 dl, dl
  0002b	0f 84 1b 01 00
	00		 je	 $LN95@LoadFloat_@2
  00031	80 f2 ec	 xor	 dl, -20			; ffffffecH
  00034	88 55 ed	 mov	 BYTE PTR __k$[ebp+1], dl
  00037	8a 50 02	 mov	 dl, BYTE PTR [eax+2]
  0003a	84 d2		 test	 dl, dl
  0003c	0f 84 04 01 00
	00		 je	 $LN94@LoadFloat_@2
  00042	b1 eb		 mov	 cl, -21			; ffffffebH
  00044	32 d1		 xor	 dl, cl
  00046	88 55 ee	 mov	 BYTE PTR __k$[ebp+2], dl
  00049	8a 50 03	 mov	 dl, BYTE PTR [eax+3]
  0004c	84 d2		 test	 dl, dl
  0004e	0f 84 ec 00 00
	00		 je	 $LN93@LoadFloat_@2
  00054	80 f2 ea	 xor	 dl, -22			; ffffffeaH
  00057	88 55 ef	 mov	 BYTE PTR __k$[ebp+3], dl
  0005a	8a 50 04	 mov	 dl, BYTE PTR [eax+4]
  0005d	84 d2		 test	 dl, dl
  0005f	0f 84 d5 00 00
	00		 je	 $LN92@LoadFloat_@2
  00065	80 f2 ed	 xor	 dl, -19			; ffffffedH
  00068	88 55 f0	 mov	 BYTE PTR __k$[ebp+4], dl
  0006b	8a 50 05	 mov	 dl, BYTE PTR [eax+5]
  0006e	84 d2		 test	 dl, dl
  00070	0f 84 be 00 00
	00		 je	 $LN91@LoadFloat_@2
  00076	80 f2 ec	 xor	 dl, -20			; ffffffecH
  00079	88 55 f1	 mov	 BYTE PTR __k$[ebp+5], dl
  0007c	8a 50 06	 mov	 dl, BYTE PTR [eax+6]
  0007f	84 d2		 test	 dl, dl
  00081	0f 84 a8 00 00
	00		 je	 $LN90@LoadFloat_@2
  00087	32 d1		 xor	 dl, cl
  00089	88 55 f2	 mov	 BYTE PTR __k$[ebp+6], dl
  0008c	8a 50 07	 mov	 dl, BYTE PTR [eax+7]
  0008f	84 d2		 test	 dl, dl
  00091	0f 84 92 00 00
	00		 je	 $LN89@LoadFloat_@2
  00097	80 f2 ea	 xor	 dl, -22			; ffffffeaH
  0009a	88 55 f3	 mov	 BYTE PTR __k$[ebp+7], dl
  0009d	8a 50 08	 mov	 dl, BYTE PTR [eax+8]
  000a0	84 d2		 test	 dl, dl
  000a2	74 7f		 je	 SHORT $LN88@LoadFloat_@2
  000a4	80 f2 ed	 xor	 dl, -19			; ffffffedH
  000a7	88 55 f4	 mov	 BYTE PTR __k$[ebp+8], dl
  000aa	8a 50 09	 mov	 dl, BYTE PTR [eax+9]
  000ad	84 d2		 test	 dl, dl
  000af	74 6c		 je	 SHORT $LN87@LoadFloat_@2
  000b1	80 f2 ec	 xor	 dl, -20			; ffffffecH
  000b4	88 55 f5	 mov	 BYTE PTR __k$[ebp+9], dl
  000b7	8a 50 0a	 mov	 dl, BYTE PTR [eax+10]
  000ba	84 d2		 test	 dl, dl
  000bc	74 5a		 je	 SHORT $LN86@LoadFloat_@2
  000be	32 d1		 xor	 dl, cl
  000c0	80 78 0b 00	 cmp	 BYTE PTR [eax+11], 0
  000c4	88 55 f6	 mov	 BYTE PTR __k$[ebp+10], dl
  000c7	0f 84 89 00 00
	00		 je	 $LN1@LoadFloat_@2
  000cd	8a 50 0c	 mov	 dl, BYTE PTR [eax+12]
  000d0	84 d2		 test	 dl, dl
  000d2	74 3e		 je	 SHORT $LN84@LoadFloat_@2
  000d4	80 f2 ed	 xor	 dl, -19			; ffffffedH
  000d7	88 55 f8	 mov	 BYTE PTR __k$[ebp+12], dl
  000da	8a 50 0d	 mov	 dl, BYTE PTR [eax+13]
  000dd	84 d2		 test	 dl, dl
  000df	74 2b		 je	 SHORT $LN83@LoadFloat_@2
  000e1	80 f2 ec	 xor	 dl, -20			; ffffffecH
  000e4	88 55 f9	 mov	 BYTE PTR __k$[ebp+13], dl
  000e7	8a 50 0e	 mov	 dl, BYTE PTR [eax+14]
  000ea	84 d2		 test	 dl, dl
  000ec	74 19		 je	 SHORT $LN82@LoadFloat_@2
  000ee	8a 40 0f	 mov	 al, BYTE PTR [eax+15]
  000f1	32 d1		 xor	 dl, cl
  000f3	88 55 fa	 mov	 BYTE PTR __k$[ebp+14], dl
  000f6	84 c0		 test	 al, al
  000f8	74 07		 je	 SHORT $LN81@LoadFloat_@2
  000fa	34 ea		 xor	 al, -22			; ffffffeaH
  000fc	88 45 fb	 mov	 BYTE PTR __k$[ebp+15], al
  000ff	eb 55		 jmp	 SHORT $LN1@LoadFloat_@2
$LN81@LoadFloat_@2:
  00101	c6 45 fb ea	 mov	 BYTE PTR __k$[ebp+15], -22 ; ffffffeaH
  00105	eb 4f		 jmp	 SHORT $LN1@LoadFloat_@2
$LN82@LoadFloat_@2:
  00107	88 4d fa	 mov	 BYTE PTR __k$[ebp+14], cl
  0010a	eb 4a		 jmp	 SHORT $LN1@LoadFloat_@2
$LN83@LoadFloat_@2:
  0010c	c6 45 f9 ec	 mov	 BYTE PTR __k$[ebp+13], -20 ; ffffffecH
  00110	eb 44		 jmp	 SHORT $LN1@LoadFloat_@2
$LN84@LoadFloat_@2:
  00112	c6 45 f8 ed	 mov	 BYTE PTR __k$[ebp+12], -19 ; ffffffedH
  00116	eb 3e		 jmp	 SHORT $LN1@LoadFloat_@2
$LN86@LoadFloat_@2:
  00118	88 4d f6	 mov	 BYTE PTR __k$[ebp+10], cl
  0011b	eb 39		 jmp	 SHORT $LN1@LoadFloat_@2
$LN87@LoadFloat_@2:
  0011d	c6 45 f5 ec	 mov	 BYTE PTR __k$[ebp+9], -20 ; ffffffecH
  00121	eb 33		 jmp	 SHORT $LN1@LoadFloat_@2
$LN88@LoadFloat_@2:
  00123	c6 45 f4 ed	 mov	 BYTE PTR __k$[ebp+8], -19 ; ffffffedH
  00127	eb 2d		 jmp	 SHORT $LN1@LoadFloat_@2
$LN89@LoadFloat_@2:
  00129	c6 45 f3 ea	 mov	 BYTE PTR __k$[ebp+7], -22 ; ffffffeaH
  0012d	eb 27		 jmp	 SHORT $LN1@LoadFloat_@2
$LN90@LoadFloat_@2:
  0012f	88 4d f2	 mov	 BYTE PTR __k$[ebp+6], cl
  00132	eb 22		 jmp	 SHORT $LN1@LoadFloat_@2
$LN91@LoadFloat_@2:
  00134	c6 45 f1 ec	 mov	 BYTE PTR __k$[ebp+5], -20 ; ffffffecH
  00138	eb 1c		 jmp	 SHORT $LN1@LoadFloat_@2
$LN92@LoadFloat_@2:
  0013a	c6 45 f0 ed	 mov	 BYTE PTR __k$[ebp+4], -19 ; ffffffedH
  0013e	eb 16		 jmp	 SHORT $LN1@LoadFloat_@2
$LN93@LoadFloat_@2:
  00140	c6 45 ef ea	 mov	 BYTE PTR __k$[ebp+3], -22 ; ffffffeaH
  00144	eb 10		 jmp	 SHORT $LN1@LoadFloat_@2
$LN94@LoadFloat_@2:
  00146	c6 45 ee eb	 mov	 BYTE PTR __k$[ebp+2], -21 ; ffffffebH
  0014a	eb 0a		 jmp	 SHORT $LN1@LoadFloat_@2
$LN95@LoadFloat_@2:
  0014c	c6 45 ed ec	 mov	 BYTE PTR __k$[ebp+1], -20 ; ffffffecH
  00150	eb 04		 jmp	 SHORT $LN1@LoadFloat_@2
$LN96@LoadFloat_@2:
  00152	c6 45 ec ed	 mov	 BYTE PTR __k$[ebp], -19	; ffffffedH
$LN1@LoadFloat_@2:
  00156	6a 02		 push	 2
  00158	8d 45 ec	 lea	 eax, DWORD PTR __k$[ebp]
  0015b	c6 45 f7 00	 mov	 BYTE PTR __k$[ebp+11], 0
  0015f	5a		 pop	 edx
$LL104@LoadFloat_@2:
  00160	81 30 ed ec eb
	ea		 xor	 DWORD PTR [eax], -353637139 ; eaebecedH
  00166	83 c0 04	 add	 eax, 4
  00169	4a		 dec	 edx
  0016a	75 f4		 jne	 SHORT $LL104@LoadFloat_@2
  0016c	6a 08		 push	 8
  0016e	58		 pop	 eax
$LL101@LoadFloat_@2:
  0016f	8b c8		 mov	 ecx, eax
  00171	81 e1 03 00 00
	80		 and	 ecx, -2147483645	; 80000003H
  00177	79 05		 jns	 SHORT $LN111@LoadFloat_@2
  00179	49		 dec	 ecx
  0017a	83 c9 fc	 or	 ecx, -4			; fffffffcH
  0017d	41		 inc	 ecx
$LN111@LoadFloat_@2:
  0017e	b2 ed		 mov	 dl, -19			; ffffffedH
  00180	2a d1		 sub	 dl, cl
  00182	30 54 05 ec	 xor	 BYTE PTR __k$[ebp+eax], dl
  00186	40		 inc	 eax
  00187	83 f8 0b	 cmp	 eax, 11			; 0000000bH
  0018a	7c e3		 jl	 SHORT $LL101@LoadFloat_@2

; 137  : 		return LoadFloat(_k, f);

  0018c	f3 0f 10 45 0c	 movss	 xmm0, DWORD PTR _f$[ebp]
  00191	51		 push	 ecx
  00192	8d 45 ec	 lea	 eax, DWORD PTR __k$[ebp]
  00195	f3 0f 11 04 24	 movss	 DWORD PTR [esp], xmm0
  0019a	50		 push	 eax
  0019b	8b ce		 mov	 ecx, esi
  0019d	ff 15 00 00 00
	00		 call	 DWORD PTR __imp_?LoadFloat@ioINILoader@@QAEMPBDM@Z

; 138  : 	}

  001a3	8b 4d fc	 mov	 ecx, DWORD PTR __$ArrayPad$[ebp]
  001a6	33 cd		 xor	 ecx, ebp
  001a8	5e		 pop	 esi
  001a9	e8 00 00 00 00	 call	 @__security_check_cookie@4
  001ae	c9		 leave
  001af	c2 08 00	 ret	 8
??$LoadFloat_e@$0M@@ioINILoader@@QAEMAAY0M@$$CBDM@Z ENDP ; ioINILoader::LoadFloat_e<12>
_TEXT	ENDS
PUBLIC	__$ArrayPad$
PUBLIC	??$LoadFloat_e@$0BD@@ioINILoader@@QAEMAAY0BD@$$CBDM@Z ; ioINILoader::LoadFloat_e<19>
; Function compile flags: /Ogsp
;	COMDAT ??$LoadFloat_e@$0BD@@ioINILoader@@QAEMAAY0BD@$$CBDM@Z
_TEXT	SEGMENT
__k$ = -28						; size = 19
__$ArrayPad$ = -4					; size = 4
_k$ = 8							; size = 4
_f$ = 12						; size = 4
??$LoadFloat_e@$0BD@@ioINILoader@@QAEMAAY0BD@$$CBDM@Z PROC ; ioINILoader::LoadFloat_e<19>, COMDAT
; _this$ = ecx

; 135  : 	{

  00000	55		 push	 ebp
  00001	8b ec		 mov	 ebp, esp
  00003	83 ec 1c	 sub	 esp, 28			; 0000001cH
  00006	a1 00 00 00 00	 mov	 eax, DWORD PTR ___security_cookie
  0000b	33 c5		 xor	 eax, ebp
  0000d	89 45 fc	 mov	 DWORD PTR __$ArrayPad$[ebp], eax
  00010	8b 45 08	 mov	 eax, DWORD PTR _k$[ebp]

; 136  : 		_ENCSTR(k, _k);

  00013	8a 10		 mov	 dl, BYTE PTR [eax]
  00015	56		 push	 esi
  00016	8b f1		 mov	 esi, ecx
  00018	84 d2		 test	 dl, dl
  0001a	0f 84 cf 01 00
	00		 je	 $LN96@LoadFloat_@3
  00020	80 f2 ed	 xor	 dl, -19			; ffffffedH
  00023	88 55 e4	 mov	 BYTE PTR __k$[ebp], dl
  00026	8a 50 01	 mov	 dl, BYTE PTR [eax+1]
  00029	84 d2		 test	 dl, dl
  0002b	0f 84 b8 01 00
	00		 je	 $LN95@LoadFloat_@3
  00031	b1 ec		 mov	 cl, -20			; ffffffecH
  00033	32 d1		 xor	 dl, cl
  00035	88 55 e5	 mov	 BYTE PTR __k$[ebp+1], dl
  00038	8a 50 02	 mov	 dl, BYTE PTR [eax+2]
  0003b	84 d2		 test	 dl, dl
  0003d	0f 84 a0 01 00
	00		 je	 $LN94@LoadFloat_@3
  00043	80 f2 eb	 xor	 dl, -21			; ffffffebH
  00046	88 55 e6	 mov	 BYTE PTR __k$[ebp+2], dl
  00049	8a 50 03	 mov	 dl, BYTE PTR [eax+3]
  0004c	84 d2		 test	 dl, dl
  0004e	0f 84 89 01 00
	00		 je	 $LN93@LoadFloat_@3
  00054	80 f2 ea	 xor	 dl, -22			; ffffffeaH
  00057	88 55 e7	 mov	 BYTE PTR __k$[ebp+3], dl
  0005a	8a 50 04	 mov	 dl, BYTE PTR [eax+4]
  0005d	84 d2		 test	 dl, dl
  0005f	0f 84 72 01 00
	00		 je	 $LN92@LoadFloat_@3
  00065	80 f2 ed	 xor	 dl, -19			; ffffffedH
  00068	88 55 e8	 mov	 BYTE PTR __k$[ebp+4], dl
  0006b	8a 50 05	 mov	 dl, BYTE PTR [eax+5]
  0006e	84 d2		 test	 dl, dl
  00070	0f 84 5c 01 00
	00		 je	 $LN91@LoadFloat_@3
  00076	32 d1		 xor	 dl, cl
  00078	88 55 e9	 mov	 BYTE PTR __k$[ebp+5], dl
  0007b	8a 50 06	 mov	 dl, BYTE PTR [eax+6]
  0007e	84 d2		 test	 dl, dl
  00080	0f 84 46 01 00
	00		 je	 $LN90@LoadFloat_@3
  00086	80 f2 eb	 xor	 dl, -21			; ffffffebH
  00089	88 55 ea	 mov	 BYTE PTR __k$[ebp+6], dl
  0008c	8a 50 07	 mov	 dl, BYTE PTR [eax+7]
  0008f	84 d2		 test	 dl, dl
  00091	0f 84 2f 01 00
	00		 je	 $LN89@LoadFloat_@3
  00097	80 f2 ea	 xor	 dl, -22			; ffffffeaH
  0009a	88 55 eb	 mov	 BYTE PTR __k$[ebp+7], dl
  0009d	8a 50 08	 mov	 dl, BYTE PTR [eax+8]
  000a0	84 d2		 test	 dl, dl
  000a2	0f 84 18 01 00
	00		 je	 $LN88@LoadFloat_@3
  000a8	80 f2 ed	 xor	 dl, -19			; ffffffedH
  000ab	88 55 ec	 mov	 BYTE PTR __k$[ebp+8], dl
  000ae	8a 50 09	 mov	 dl, BYTE PTR [eax+9]
  000b1	84 d2		 test	 dl, dl
  000b3	0f 84 02 01 00
	00		 je	 $LN87@LoadFloat_@3
  000b9	32 d1		 xor	 dl, cl
  000bb	88 55 ed	 mov	 BYTE PTR __k$[ebp+9], dl
  000be	8a 50 0a	 mov	 dl, BYTE PTR [eax+10]
  000c1	84 d2		 test	 dl, dl
  000c3	0f 84 ec 00 00
	00		 je	 $LN86@LoadFloat_@3
  000c9	80 f2 eb	 xor	 dl, -21			; ffffffebH
  000cc	88 55 ee	 mov	 BYTE PTR __k$[ebp+10], dl
  000cf	8a 50 0b	 mov	 dl, BYTE PTR [eax+11]
  000d2	84 d2		 test	 dl, dl
  000d4	0f 84 d5 00 00
	00		 je	 $LN85@LoadFloat_@3
  000da	80 f2 ea	 xor	 dl, -22			; ffffffeaH
  000dd	88 55 ef	 mov	 BYTE PTR __k$[ebp+11], dl
  000e0	8a 50 0c	 mov	 dl, BYTE PTR [eax+12]
  000e3	84 d2		 test	 dl, dl
  000e5	0f 84 be 00 00
	00		 je	 $LN84@LoadFloat_@3
  000eb	80 f2 ed	 xor	 dl, -19			; ffffffedH
  000ee	88 55 f0	 mov	 BYTE PTR __k$[ebp+12], dl
  000f1	8a 50 0d	 mov	 dl, BYTE PTR [eax+13]
  000f4	84 d2		 test	 dl, dl
  000f6	0f 84 a8 00 00
	00		 je	 $LN83@LoadFloat_@3
  000fc	32 d1		 xor	 dl, cl
  000fe	88 55 f1	 mov	 BYTE PTR __k$[ebp+13], dl
  00101	8a 50 0e	 mov	 dl, BYTE PTR [eax+14]
  00104	84 d2		 test	 dl, dl
  00106	0f 84 92 00 00
	00		 je	 $LN82@LoadFloat_@3
  0010c	80 f2 eb	 xor	 dl, -21			; ffffffebH
  0010f	88 55 f2	 mov	 BYTE PTR __k$[ebp+14], dl
  00112	8a 50 0f	 mov	 dl, BYTE PTR [eax+15]
  00115	84 d2		 test	 dl, dl
  00117	74 7f		 je	 SHORT $LN81@LoadFloat_@3
  00119	80 f2 ea	 xor	 dl, -22			; ffffffeaH
  0011c	88 55 f3	 mov	 BYTE PTR __k$[ebp+15], dl
  0011f	8a 50 10	 mov	 dl, BYTE PTR [eax+16]
  00122	84 d2		 test	 dl, dl
  00124	74 6c		 je	 SHORT $LN80@LoadFloat_@3
  00126	80 f2 ed	 xor	 dl, -19			; ffffffedH
  00129	88 55 f4	 mov	 BYTE PTR __k$[ebp+16], dl
  0012c	8a 50 11	 mov	 dl, BYTE PTR [eax+17]
  0012f	84 d2		 test	 dl, dl
  00131	74 5a		 je	 SHORT $LN79@LoadFloat_@3
  00133	32 d1		 xor	 dl, cl
  00135	80 78 12 00	 cmp	 BYTE PTR [eax+18], 0
  00139	88 55 f5	 mov	 BYTE PTR __k$[ebp+17], dl
  0013c	0f 84 b1 00 00
	00		 je	 $LN1@LoadFloat_@3
  00142	8a 50 13	 mov	 dl, BYTE PTR [eax+19]
  00145	84 d2		 test	 dl, dl
  00147	74 3e		 je	 SHORT $LN77@LoadFloat_@3
  00149	80 f2 ea	 xor	 dl, -22			; ffffffeaH
  0014c	88 55 f7	 mov	 BYTE PTR __k$[ebp+19], dl
  0014f	8a 50 14	 mov	 dl, BYTE PTR [eax+20]
  00152	84 d2		 test	 dl, dl
  00154	74 2b		 je	 SHORT $LN76@LoadFloat_@3
  00156	80 f2 ed	 xor	 dl, -19			; ffffffedH
  00159	88 55 f8	 mov	 BYTE PTR __k$[ebp+20], dl
  0015c	8a 50 15	 mov	 dl, BYTE PTR [eax+21]
  0015f	84 d2		 test	 dl, dl
  00161	74 19		 je	 SHORT $LN75@LoadFloat_@3
  00163	8a 40 16	 mov	 al, BYTE PTR [eax+22]
  00166	32 d1		 xor	 dl, cl
  00168	88 55 f9	 mov	 BYTE PTR __k$[ebp+21], dl
  0016b	84 c0		 test	 al, al
  0016d	74 07		 je	 SHORT $LN74@LoadFloat_@3
  0016f	34 eb		 xor	 al, -21			; ffffffebH
  00171	88 45 fa	 mov	 BYTE PTR __k$[ebp+22], al
  00174	eb 7d		 jmp	 SHORT $LN1@LoadFloat_@3
$LN74@LoadFloat_@3:
  00176	c6 45 fa eb	 mov	 BYTE PTR __k$[ebp+22], -21 ; ffffffebH
  0017a	eb 77		 jmp	 SHORT $LN1@LoadFloat_@3
$LN75@LoadFloat_@3:
  0017c	88 4d f9	 mov	 BYTE PTR __k$[ebp+21], cl
  0017f	eb 72		 jmp	 SHORT $LN1@LoadFloat_@3
$LN76@LoadFloat_@3:
  00181	c6 45 f8 ed	 mov	 BYTE PTR __k$[ebp+20], -19 ; ffffffedH
  00185	eb 6c		 jmp	 SHORT $LN1@LoadFloat_@3
$LN77@LoadFloat_@3:
  00187	c6 45 f7 ea	 mov	 BYTE PTR __k$[ebp+19], -22 ; ffffffeaH
  0018b	eb 66		 jmp	 SHORT $LN1@LoadFloat_@3
$LN79@LoadFloat_@3:
  0018d	88 4d f5	 mov	 BYTE PTR __k$[ebp+17], cl
  00190	eb 61		 jmp	 SHORT $LN1@LoadFloat_@3
$LN80@LoadFloat_@3:
  00192	c6 45 f4 ed	 mov	 BYTE PTR __k$[ebp+16], -19 ; ffffffedH
  00196	eb 5b		 jmp	 SHORT $LN1@LoadFloat_@3
$LN81@LoadFloat_@3:
  00198	c6 45 f3 ea	 mov	 BYTE PTR __k$[ebp+15], -22 ; ffffffeaH
  0019c	eb 55		 jmp	 SHORT $LN1@LoadFloat_@3
$LN82@LoadFloat_@3:
  0019e	c6 45 f2 eb	 mov	 BYTE PTR __k$[ebp+14], -21 ; ffffffebH
  001a2	eb 4f		 jmp	 SHORT $LN1@LoadFloat_@3
$LN83@LoadFloat_@3:
  001a4	88 4d f1	 mov	 BYTE PTR __k$[ebp+13], cl
  001a7	eb 4a		 jmp	 SHORT $LN1@LoadFloat_@3
$LN84@LoadFloat_@3:
  001a9	c6 45 f0 ed	 mov	 BYTE PTR __k$[ebp+12], -19 ; ffffffedH
  001ad	eb 44		 jmp	 SHORT $LN1@LoadFloat_@3
$LN85@LoadFloat_@3:
  001af	c6 45 ef ea	 mov	 BYTE PTR __k$[ebp+11], -22 ; ffffffeaH
  001b3	eb 3e		 jmp	 SHORT $LN1@LoadFloat_@3
$LN86@LoadFloat_@3:
  001b5	c6 45 ee eb	 mov	 BYTE PTR __k$[ebp+10], -21 ; ffffffebH
  001b9	eb 38		 jmp	 SHORT $LN1@LoadFloat_@3
$LN87@LoadFloat_@3:
  001bb	88 4d ed	 mov	 BYTE PTR __k$[ebp+9], cl
  001be	eb 33		 jmp	 SHORT $LN1@LoadFloat_@3
$LN88@LoadFloat_@3:
  001c0	c6 45 ec ed	 mov	 BYTE PTR __k$[ebp+8], -19 ; ffffffedH
  001c4	eb 2d		 jmp	 SHORT $LN1@LoadFloat_@3
$LN89@LoadFloat_@3:
  001c6	c6 45 eb ea	 mov	 BYTE PTR __k$[ebp+7], -22 ; ffffffeaH
  001ca	eb 27		 jmp	 SHORT $LN1@LoadFloat_@3
$LN90@LoadFloat_@3:
  001cc	c6 45 ea eb	 mov	 BYTE PTR __k$[ebp+6], -21 ; ffffffebH
  001d0	eb 21		 jmp	 SHORT $LN1@LoadFloat_@3
$LN91@LoadFloat_@3:
  001d2	88 4d e9	 mov	 BYTE PTR __k$[ebp+5], cl
  001d5	eb 1c		 jmp	 SHORT $LN1@LoadFloat_@3
$LN92@LoadFloat_@3:
  001d7	c6 45 e8 ed	 mov	 BYTE PTR __k$[ebp+4], -19 ; ffffffedH
  001db	eb 16		 jmp	 SHORT $LN1@LoadFloat_@3
$LN93@LoadFloat_@3:
  001dd	c6 45 e7 ea	 mov	 BYTE PTR __k$[ebp+3], -22 ; ffffffeaH
  001e1	eb 10		 jmp	 SHORT $LN1@LoadFloat_@3
$LN94@LoadFloat_@3:
  001e3	c6 45 e6 eb	 mov	 BYTE PTR __k$[ebp+2], -21 ; ffffffebH
  001e7	eb 0a		 jmp	 SHORT $LN1@LoadFloat_@3
$LN95@LoadFloat_@3:
  001e9	c6 45 e5 ec	 mov	 BYTE PTR __k$[ebp+1], -20 ; ffffffecH
  001ed	eb 04		 jmp	 SHORT $LN1@LoadFloat_@3
$LN96@LoadFloat_@3:
  001ef	c6 45 e4 ed	 mov	 BYTE PTR __k$[ebp], -19	; ffffffedH
$LN1@LoadFloat_@3:
  001f3	6a 04		 push	 4
  001f5	8d 45 e4	 lea	 eax, DWORD PTR __k$[ebp]
  001f8	c6 45 f6 00	 mov	 BYTE PTR __k$[ebp+18], 0
  001fc	5a		 pop	 edx
$LL104@LoadFloat_@3:
  001fd	81 30 ed ec eb
	ea		 xor	 DWORD PTR [eax], -353637139 ; eaebecedH
  00203	83 c0 04	 add	 eax, 4
  00206	4a		 dec	 edx
  00207	75 f4		 jne	 SHORT $LL104@LoadFloat_@3
  00209	6a 10		 push	 16			; 00000010H
  0020b	58		 pop	 eax
$LL101@LoadFloat_@3:
  0020c	8b c8		 mov	 ecx, eax
  0020e	81 e1 03 00 00
	80		 and	 ecx, -2147483645	; 80000003H
  00214	79 05		 jns	 SHORT $LN111@LoadFloat_@3
  00216	49		 dec	 ecx
  00217	83 c9 fc	 or	 ecx, -4			; fffffffcH
  0021a	41		 inc	 ecx
$LN111@LoadFloat_@3:
  0021b	b2 ed		 mov	 dl, -19			; ffffffedH
  0021d	2a d1		 sub	 dl, cl
  0021f	30 54 05 e4	 xor	 BYTE PTR __k$[ebp+eax], dl
  00223	40		 inc	 eax
  00224	83 f8 12	 cmp	 eax, 18			; 00000012H
  00227	7c e3		 jl	 SHORT $LL101@LoadFloat_@3

; 137  : 		return LoadFloat(_k, f);

  00229	f3 0f 10 45 0c	 movss	 xmm0, DWORD PTR _f$[ebp]
  0022e	51		 push	 ecx
  0022f	8d 45 e4	 lea	 eax, DWORD PTR __k$[ebp]
  00232	f3 0f 11 04 24	 movss	 DWORD PTR [esp], xmm0
  00237	50		 push	 eax
  00238	8b ce		 mov	 ecx, esi
  0023a	ff 15 00 00 00
	00		 call	 DWORD PTR __imp_?LoadFloat@ioINILoader@@QAEMPBDM@Z

; 138  : 	}

  00240	8b 4d fc	 mov	 ecx, DWORD PTR __$ArrayPad$[ebp]
  00243	33 cd		 xor	 ecx, ebp
  00245	5e		 pop	 esi
  00246	e8 00 00 00 00	 call	 @__security_check_cookie@4
  0024b	c9		 leave
  0024c	c2 08 00	 ret	 8
??$LoadFloat_e@$0BD@@ioINILoader@@QAEMAAY0BD@$$CBDM@Z ENDP ; ioINILoader::LoadFloat_e<19>
_TEXT	ENDS
PUBLIC	__$ArrayPad$
PUBLIC	??$LoadInt_e@$0P@@ioINILoader@@QAEHAAY0P@$$CBDH@Z ; ioINILoader::LoadInt_e<15>
; Function compile flags: /Ogsp
;	COMDAT ??$LoadInt_e@$0P@@ioINILoader@@QAEHAAY0P@$$CBDH@Z
_TEXT	SEGMENT
__k$ = -24						; size = 15
__$ArrayPad$ = -4					; size = 4
_k$ = 8							; size = 4
_i$ = 12						; size = 4
??$LoadInt_e@$0P@@ioINILoader@@QAEHAAY0P@$$CBDH@Z PROC	; ioINILoader::LoadInt_e<15>, COMDAT
; _this$ = ecx

; 118  : 	{

  00000	55		 push	 ebp
  00001	8b ec		 mov	 ebp, esp
  00003	83 ec 18	 sub	 esp, 24			; 00000018H
  00006	a1 00 00 00 00	 mov	 eax, DWORD PTR ___security_cookie
  0000b	33 c5		 xor	 eax, ebp
  0000d	89 45 fc	 mov	 DWORD PTR __$ArrayPad$[ebp], eax
  00010	8b 45 08	 mov	 eax, DWORD PTR _k$[ebp]

; 119  : 		_ENCSTR(k, _k);

  00013	8a 10		 mov	 dl, BYTE PTR [eax]
  00015	56		 push	 esi
  00016	8b f1		 mov	 esi, ecx
  00018	84 d2		 test	 dl, dl
  0001a	0f 84 75 01 00
	00		 je	 $LN96@LoadInt_e@3
  00020	80 f2 ed	 xor	 dl, -19			; ffffffedH
  00023	88 55 e8	 mov	 BYTE PTR __k$[ebp], dl
  00026	8a 50 01	 mov	 dl, BYTE PTR [eax+1]
  00029	84 d2		 test	 dl, dl
  0002b	0f 84 5e 01 00
	00		 je	 $LN95@LoadInt_e@3
  00031	b1 ec		 mov	 cl, -20			; ffffffecH
  00033	32 d1		 xor	 dl, cl
  00035	88 55 e9	 mov	 BYTE PTR __k$[ebp+1], dl
  00038	8a 50 02	 mov	 dl, BYTE PTR [eax+2]
  0003b	84 d2		 test	 dl, dl
  0003d	0f 84 46 01 00
	00		 je	 $LN94@LoadInt_e@3
  00043	80 f2 eb	 xor	 dl, -21			; ffffffebH
  00046	88 55 ea	 mov	 BYTE PTR __k$[ebp+2], dl
  00049	8a 50 03	 mov	 dl, BYTE PTR [eax+3]
  0004c	84 d2		 test	 dl, dl
  0004e	0f 84 2f 01 00
	00		 je	 $LN93@LoadInt_e@3
  00054	80 f2 ea	 xor	 dl, -22			; ffffffeaH
  00057	88 55 eb	 mov	 BYTE PTR __k$[ebp+3], dl
  0005a	8a 50 04	 mov	 dl, BYTE PTR [eax+4]
  0005d	84 d2		 test	 dl, dl
  0005f	0f 84 18 01 00
	00		 je	 $LN92@LoadInt_e@3
  00065	80 f2 ed	 xor	 dl, -19			; ffffffedH
  00068	88 55 ec	 mov	 BYTE PTR __k$[ebp+4], dl
  0006b	8a 50 05	 mov	 dl, BYTE PTR [eax+5]
  0006e	84 d2		 test	 dl, dl
  00070	0f 84 02 01 00
	00		 je	 $LN91@LoadInt_e@3
  00076	32 d1		 xor	 dl, cl
  00078	88 55 ed	 mov	 BYTE PTR __k$[ebp+5], dl
  0007b	8a 50 06	 mov	 dl, BYTE PTR [eax+6]
  0007e	84 d2		 test	 dl, dl
  00080	0f 84 ec 00 00
	00		 je	 $LN90@LoadInt_e@3
  00086	80 f2 eb	 xor	 dl, -21			; ffffffebH
  00089	88 55 ee	 mov	 BYTE PTR __k$[ebp+6], dl
  0008c	8a 50 07	 mov	 dl, BYTE PTR [eax+7]
  0008f	84 d2		 test	 dl, dl
  00091	0f 84 d5 00 00
	00		 je	 $LN89@LoadInt_e@3
  00097	80 f2 ea	 xor	 dl, -22			; ffffffeaH
  0009a	88 55 ef	 mov	 BYTE PTR __k$[ebp+7], dl
  0009d	8a 50 08	 mov	 dl, BYTE PTR [eax+8]
  000a0	84 d2		 test	 dl, dl
  000a2	0f 84 be 00 00
	00		 je	 $LN88@LoadInt_e@3
  000a8	80 f2 ed	 xor	 dl, -19			; ffffffedH
  000ab	88 55 f0	 mov	 BYTE PTR __k$[ebp+8], dl
  000ae	8a 50 09	 mov	 dl, BYTE PTR [eax+9]
  000b1	84 d2		 test	 dl, dl
  000b3	0f 84 a8 00 00
	00		 je	 $LN87@LoadInt_e@3
  000b9	32 d1		 xor	 dl, cl
  000bb	88 55 f1	 mov	 BYTE PTR __k$[ebp+9], dl
  000be	8a 50 0a	 mov	 dl, BYTE PTR [eax+10]
  000c1	84 d2		 test	 dl, dl
  000c3	0f 84 92 00 00
	00		 je	 $LN86@LoadInt_e@3
  000c9	80 f2 eb	 xor	 dl, -21			; ffffffebH
  000cc	88 55 f2	 mov	 BYTE PTR __k$[ebp+10], dl
  000cf	8a 50 0b	 mov	 dl, BYTE PTR [eax+11]
  000d2	84 d2		 test	 dl, dl
  000d4	74 7f		 je	 SHORT $LN85@LoadInt_e@3
  000d6	80 f2 ea	 xor	 dl, -22			; ffffffeaH
  000d9	88 55 f3	 mov	 BYTE PTR __k$[ebp+11], dl
  000dc	8a 50 0c	 mov	 dl, BYTE PTR [eax+12]
  000df	84 d2		 test	 dl, dl
  000e1	74 6c		 je	 SHORT $LN84@LoadInt_e@3
  000e3	80 f2 ed	 xor	 dl, -19			; ffffffedH
  000e6	88 55 f4	 mov	 BYTE PTR __k$[ebp+12], dl
  000e9	8a 50 0d	 mov	 dl, BYTE PTR [eax+13]
  000ec	84 d2		 test	 dl, dl
  000ee	74 5a		 je	 SHORT $LN83@LoadInt_e@3
  000f0	32 d1		 xor	 dl, cl
  000f2	80 78 0e 00	 cmp	 BYTE PTR [eax+14], 0
  000f6	88 55 f5	 mov	 BYTE PTR __k$[ebp+13], dl
  000f9	0f 84 9a 00 00
	00		 je	 $LN1@LoadInt_e@3
  000ff	8a 50 0f	 mov	 dl, BYTE PTR [eax+15]
  00102	84 d2		 test	 dl, dl
  00104	74 3e		 je	 SHORT $LN81@LoadInt_e@3
  00106	80 f2 ea	 xor	 dl, -22			; ffffffeaH
  00109	88 55 f7	 mov	 BYTE PTR __k$[ebp+15], dl
  0010c	8a 50 10	 mov	 dl, BYTE PTR [eax+16]
  0010f	84 d2		 test	 dl, dl
  00111	74 2b		 je	 SHORT $LN80@LoadInt_e@3
  00113	80 f2 ed	 xor	 dl, -19			; ffffffedH
  00116	88 55 f8	 mov	 BYTE PTR __k$[ebp+16], dl
  00119	8a 50 11	 mov	 dl, BYTE PTR [eax+17]
  0011c	84 d2		 test	 dl, dl
  0011e	74 19		 je	 SHORT $LN79@LoadInt_e@3
  00120	8a 40 12	 mov	 al, BYTE PTR [eax+18]
  00123	32 d1		 xor	 dl, cl
  00125	88 55 f9	 mov	 BYTE PTR __k$[ebp+17], dl
  00128	84 c0		 test	 al, al
  0012a	74 07		 je	 SHORT $LN78@LoadInt_e@3
  0012c	34 eb		 xor	 al, -21			; ffffffebH
  0012e	88 45 fa	 mov	 BYTE PTR __k$[ebp+18], al
  00131	eb 66		 jmp	 SHORT $LN1@LoadInt_e@3
$LN78@LoadInt_e@3:
  00133	c6 45 fa eb	 mov	 BYTE PTR __k$[ebp+18], -21 ; ffffffebH
  00137	eb 60		 jmp	 SHORT $LN1@LoadInt_e@3
$LN79@LoadInt_e@3:
  00139	88 4d f9	 mov	 BYTE PTR __k$[ebp+17], cl
  0013c	eb 5b		 jmp	 SHORT $LN1@LoadInt_e@3
$LN80@LoadInt_e@3:
  0013e	c6 45 f8 ed	 mov	 BYTE PTR __k$[ebp+16], -19 ; ffffffedH
  00142	eb 55		 jmp	 SHORT $LN1@LoadInt_e@3
$LN81@LoadInt_e@3:
  00144	c6 45 f7 ea	 mov	 BYTE PTR __k$[ebp+15], -22 ; ffffffeaH
  00148	eb 4f		 jmp	 SHORT $LN1@LoadInt_e@3
$LN83@LoadInt_e@3:
  0014a	88 4d f5	 mov	 BYTE PTR __k$[ebp+13], cl
  0014d	eb 4a		 jmp	 SHORT $LN1@LoadInt_e@3
$LN84@LoadInt_e@3:
  0014f	c6 45 f4 ed	 mov	 BYTE PTR __k$[ebp+12], -19 ; ffffffedH
  00153	eb 44		 jmp	 SHORT $LN1@LoadInt_e@3
$LN85@LoadInt_e@3:
  00155	c6 45 f3 ea	 mov	 BYTE PTR __k$[ebp+11], -22 ; ffffffeaH
  00159	eb 3e		 jmp	 SHORT $LN1@LoadInt_e@3
$LN86@LoadInt_e@3:
  0015b	c6 45 f2 eb	 mov	 BYTE PTR __k$[ebp+10], -21 ; ffffffebH
  0015f	eb 38		 jmp	 SHORT $LN1@LoadInt_e@3
$LN87@LoadInt_e@3:
  00161	88 4d f1	 mov	 BYTE PTR __k$[ebp+9], cl
  00164	eb 33		 jmp	 SHORT $LN1@LoadInt_e@3
$LN88@LoadInt_e@3:
  00166	c6 45 f0 ed	 mov	 BYTE PTR __k$[ebp+8], -19 ; ffffffedH
  0016a	eb 2d		 jmp	 SHORT $LN1@LoadInt_e@3
$LN89@LoadInt_e@3:
  0016c	c6 45 ef ea	 mov	 BYTE PTR __k$[ebp+7], -22 ; ffffffeaH
  00170	eb 27		 jmp	 SHORT $LN1@LoadInt_e@3
$LN90@LoadInt_e@3:
  00172	c6 45 ee eb	 mov	 BYTE PTR __k$[ebp+6], -21 ; ffffffebH
  00176	eb 21		 jmp	 SHORT $LN1@LoadInt_e@3
$LN91@LoadInt_e@3:
  00178	88 4d ed	 mov	 BYTE PTR __k$[ebp+5], cl
  0017b	eb 1c		 jmp	 SHORT $LN1@LoadInt_e@3
$LN92@LoadInt_e@3:
  0017d	c6 45 ec ed	 mov	 BYTE PTR __k$[ebp+4], -19 ; ffffffedH
  00181	eb 16		 jmp	 SHORT $LN1@LoadInt_e@3
$LN93@LoadInt_e@3:
  00183	c6 45 eb ea	 mov	 BYTE PTR __k$[ebp+3], -22 ; ffffffeaH
  00187	eb 10		 jmp	 SHORT $LN1@LoadInt_e@3
$LN94@LoadInt_e@3:
  00189	c6 45 ea eb	 mov	 BYTE PTR __k$[ebp+2], -21 ; ffffffebH
  0018d	eb 0a		 jmp	 SHORT $LN1@LoadInt_e@3
$LN95@LoadInt_e@3:
  0018f	c6 45 e9 ec	 mov	 BYTE PTR __k$[ebp+1], -20 ; ffffffecH
  00193	eb 04		 jmp	 SHORT $LN1@LoadInt_e@3
$LN96@LoadInt_e@3:
  00195	c6 45 e8 ed	 mov	 BYTE PTR __k$[ebp], -19	; ffffffedH
$LN1@LoadInt_e@3:
  00199	6a 03		 push	 3
  0019b	8d 45 e8	 lea	 eax, DWORD PTR __k$[ebp]
  0019e	c6 45 f6 00	 mov	 BYTE PTR __k$[ebp+14], 0
  001a2	5a		 pop	 edx
$LL104@LoadInt_e@3:
  001a3	81 30 ed ec eb
	ea		 xor	 DWORD PTR [eax], -353637139 ; eaebecedH
  001a9	83 c0 04	 add	 eax, 4
  001ac	4a		 dec	 edx
  001ad	75 f4		 jne	 SHORT $LL104@LoadInt_e@3
  001af	6a 0c		 push	 12			; 0000000cH
  001b1	58		 pop	 eax
$LL101@LoadInt_e@3:
  001b2	8b c8		 mov	 ecx, eax
  001b4	81 e1 03 00 00
	80		 and	 ecx, -2147483645	; 80000003H
  001ba	79 05		 jns	 SHORT $LN111@LoadInt_e@3
  001bc	49		 dec	 ecx
  001bd	83 c9 fc	 or	 ecx, -4			; fffffffcH
  001c0	41		 inc	 ecx
$LN111@LoadInt_e@3:
  001c1	b2 ed		 mov	 dl, -19			; ffffffedH
  001c3	2a d1		 sub	 dl, cl
  001c5	30 54 05 e8	 xor	 BYTE PTR __k$[ebp+eax], dl
  001c9	40		 inc	 eax
  001ca	83 f8 0e	 cmp	 eax, 14			; 0000000eH
  001cd	7c e3		 jl	 SHORT $LL101@LoadInt_e@3

; 120  : 		return LoadInt(_k, i);

  001cf	ff 75 0c	 push	 DWORD PTR _i$[ebp]
  001d2	8d 45 e8	 lea	 eax, DWORD PTR __k$[ebp]
  001d5	50		 push	 eax
  001d6	8b ce		 mov	 ecx, esi
  001d8	ff 15 00 00 00
	00		 call	 DWORD PTR __imp_?LoadInt@ioINILoader@@QAEHPBDH@Z

; 121  : 	}

  001de	8b 4d fc	 mov	 ecx, DWORD PTR __$ArrayPad$[ebp]
  001e1	33 cd		 xor	 ecx, ebp
  001e3	5e		 pop	 esi
  001e4	e8 00 00 00 00	 call	 @__security_check_cookie@4
  001e9	c9		 leave
  001ea	c2 08 00	 ret	 8
??$LoadInt_e@$0P@@ioINILoader@@QAEHAAY0P@$$CBDH@Z ENDP	; ioINILoader::LoadInt_e<15>
_TEXT	ENDS
PUBLIC	__$ArrayPad$
PUBLIC	??$LoadFloat_e@$0BA@@ioINILoader@@QAEMAAY0BA@$$CBDM@Z ; ioINILoader::LoadFloat_e<16>
; Function compile flags: /Ogsp
;	COMDAT ??$LoadFloat_e@$0BA@@ioINILoader@@QAEMAAY0BA@$$CBDM@Z
_TEXT	SEGMENT
__k$ = -24						; size = 16
__$ArrayPad$ = -4					; size = 4
_k$ = 8							; size = 4
_f$ = 12						; size = 4
??$LoadFloat_e@$0BA@@ioINILoader@@QAEMAAY0BA@$$CBDM@Z PROC ; ioINILoader::LoadFloat_e<16>, COMDAT
; _this$ = ecx

; 135  : 	{

  00000	55		 push	 ebp
  00001	8b ec		 mov	 ebp, esp
  00003	83 ec 18	 sub	 esp, 24			; 00000018H
  00006	a1 00 00 00 00	 mov	 eax, DWORD PTR ___security_cookie
  0000b	33 c5		 xor	 eax, ebp
  0000d	89 45 fc	 mov	 DWORD PTR __$ArrayPad$[ebp], eax
  00010	8b 45 08	 mov	 eax, DWORD PTR _k$[ebp]

; 136  : 		_ENCSTR(k, _k);

  00013	8a 10		 mov	 dl, BYTE PTR [eax]
  00015	56		 push	 esi
  00016	8b f1		 mov	 esi, ecx
  00018	84 d2		 test	 dl, dl
  0001a	0f 84 8c 01 00
	00		 je	 $LN96@LoadFloat_@4
  00020	80 f2 ed	 xor	 dl, -19			; ffffffedH
  00023	88 55 e8	 mov	 BYTE PTR __k$[ebp], dl
  00026	8a 50 01	 mov	 dl, BYTE PTR [eax+1]
  00029	84 d2		 test	 dl, dl
  0002b	0f 84 75 01 00
	00		 je	 $LN95@LoadFloat_@4
  00031	80 f2 ec	 xor	 dl, -20			; ffffffecH
  00034	88 55 e9	 mov	 BYTE PTR __k$[ebp+1], dl
  00037	8a 50 02	 mov	 dl, BYTE PTR [eax+2]
  0003a	84 d2		 test	 dl, dl
  0003c	0f 84 5e 01 00
	00		 je	 $LN94@LoadFloat_@4
  00042	b1 eb		 mov	 cl, -21			; ffffffebH
  00044	32 d1		 xor	 dl, cl
  00046	88 55 ea	 mov	 BYTE PTR __k$[ebp+2], dl
  00049	8a 50 03	 mov	 dl, BYTE PTR [eax+3]
  0004c	84 d2		 test	 dl, dl
  0004e	0f 84 46 01 00
	00		 je	 $LN93@LoadFloat_@4
  00054	80 f2 ea	 xor	 dl, -22			; ffffffeaH
  00057	88 55 eb	 mov	 BYTE PTR __k$[ebp+3], dl
  0005a	8a 50 04	 mov	 dl, BYTE PTR [eax+4]
  0005d	84 d2		 test	 dl, dl
  0005f	0f 84 2f 01 00
	00		 je	 $LN92@LoadFloat_@4
  00065	80 f2 ed	 xor	 dl, -19			; ffffffedH
  00068	88 55 ec	 mov	 BYTE PTR __k$[ebp+4], dl
  0006b	8a 50 05	 mov	 dl, BYTE PTR [eax+5]
  0006e	84 d2		 test	 dl, dl
  00070	0f 84 18 01 00
	00		 je	 $LN91@LoadFloat_@4
  00076	80 f2 ec	 xor	 dl, -20			; ffffffecH
  00079	88 55 ed	 mov	 BYTE PTR __k$[ebp+5], dl
  0007c	8a 50 06	 mov	 dl, BYTE PTR [eax+6]
  0007f	84 d2		 test	 dl, dl
  00081	0f 84 02 01 00
	00		 je	 $LN90@LoadFloat_@4
  00087	32 d1		 xor	 dl, cl
  00089	88 55 ee	 mov	 BYTE PTR __k$[ebp+6], dl
  0008c	8a 50 07	 mov	 dl, BYTE PTR [eax+7]
  0008f	84 d2		 test	 dl, dl
  00091	0f 84 ec 00 00
	00		 je	 $LN89@LoadFloat_@4
  00097	80 f2 ea	 xor	 dl, -22			; ffffffeaH
  0009a	88 55 ef	 mov	 BYTE PTR __k$[ebp+7], dl
  0009d	8a 50 08	 mov	 dl, BYTE PTR [eax+8]
  000a0	84 d2		 test	 dl, dl
  000a2	0f 84 d5 00 00
	00		 je	 $LN88@LoadFloat_@4
  000a8	80 f2 ed	 xor	 dl, -19			; ffffffedH
  000ab	88 55 f0	 mov	 BYTE PTR __k$[ebp+8], dl
  000ae	8a 50 09	 mov	 dl, BYTE PTR [eax+9]
  000b1	84 d2		 test	 dl, dl
  000b3	0f 84 be 00 00
	00		 je	 $LN87@LoadFloat_@4
  000b9	80 f2 ec	 xor	 dl, -20			; ffffffecH
  000bc	88 55 f1	 mov	 BYTE PTR __k$[ebp+9], dl
  000bf	8a 50 0a	 mov	 dl, BYTE PTR [eax+10]
  000c2	84 d2		 test	 dl, dl
  000c4	0f 84 a8 00 00
	00		 je	 $LN86@LoadFloat_@4
  000ca	32 d1		 xor	 dl, cl
  000cc	88 55 f2	 mov	 BYTE PTR __k$[ebp+10], dl
  000cf	8a 50 0b	 mov	 dl, BYTE PTR [eax+11]
  000d2	84 d2		 test	 dl, dl
  000d4	0f 84 92 00 00
	00		 je	 $LN85@LoadFloat_@4
  000da	80 f2 ea	 xor	 dl, -22			; ffffffeaH
  000dd	88 55 f3	 mov	 BYTE PTR __k$[ebp+11], dl
  000e0	8a 50 0c	 mov	 dl, BYTE PTR [eax+12]
  000e3	84 d2		 test	 dl, dl
  000e5	74 7f		 je	 SHORT $LN84@LoadFloat_@4
  000e7	80 f2 ed	 xor	 dl, -19			; ffffffedH
  000ea	88 55 f4	 mov	 BYTE PTR __k$[ebp+12], dl
  000ed	8a 50 0d	 mov	 dl, BYTE PTR [eax+13]
  000f0	84 d2		 test	 dl, dl
  000f2	74 6c		 je	 SHORT $LN83@LoadFloat_@4
  000f4	80 f2 ec	 xor	 dl, -20			; ffffffecH
  000f7	88 55 f5	 mov	 BYTE PTR __k$[ebp+13], dl
  000fa	8a 50 0e	 mov	 dl, BYTE PTR [eax+14]
  000fd	84 d2		 test	 dl, dl
  000ff	74 5a		 je	 SHORT $LN82@LoadFloat_@4
  00101	32 d1		 xor	 dl, cl
  00103	80 78 0f 00	 cmp	 BYTE PTR [eax+15], 0
  00107	88 55 f6	 mov	 BYTE PTR __k$[ebp+14], dl
  0010a	0f 84 a0 00 00
	00		 je	 $LN1@LoadFloat_@4
  00110	8a 50 10	 mov	 dl, BYTE PTR [eax+16]
  00113	84 d2		 test	 dl, dl
  00115	74 3e		 je	 SHORT $LN80@LoadFloat_@4
  00117	80 f2 ed	 xor	 dl, -19			; ffffffedH
  0011a	88 55 f8	 mov	 BYTE PTR __k$[ebp+16], dl
  0011d	8a 50 11	 mov	 dl, BYTE PTR [eax+17]
  00120	84 d2		 test	 dl, dl
  00122	74 2b		 je	 SHORT $LN79@LoadFloat_@4
  00124	80 f2 ec	 xor	 dl, -20			; ffffffecH
  00127	88 55 f9	 mov	 BYTE PTR __k$[ebp+17], dl
  0012a	8a 50 12	 mov	 dl, BYTE PTR [eax+18]
  0012d	84 d2		 test	 dl, dl
  0012f	74 19		 je	 SHORT $LN78@LoadFloat_@4
  00131	8a 40 13	 mov	 al, BYTE PTR [eax+19]
  00134	32 d1		 xor	 dl, cl
  00136	88 55 fa	 mov	 BYTE PTR __k$[ebp+18], dl
  00139	84 c0		 test	 al, al
  0013b	74 07		 je	 SHORT $LN77@LoadFloat_@4
  0013d	34 ea		 xor	 al, -22			; ffffffeaH
  0013f	88 45 fb	 mov	 BYTE PTR __k$[ebp+19], al
  00142	eb 6c		 jmp	 SHORT $LN1@LoadFloat_@4
$LN77@LoadFloat_@4:
  00144	c6 45 fb ea	 mov	 BYTE PTR __k$[ebp+19], -22 ; ffffffeaH
  00148	eb 66		 jmp	 SHORT $LN1@LoadFloat_@4
$LN78@LoadFloat_@4:
  0014a	88 4d fa	 mov	 BYTE PTR __k$[ebp+18], cl
  0014d	eb 61		 jmp	 SHORT $LN1@LoadFloat_@4
$LN79@LoadFloat_@4:
  0014f	c6 45 f9 ec	 mov	 BYTE PTR __k$[ebp+17], -20 ; ffffffecH
  00153	eb 5b		 jmp	 SHORT $LN1@LoadFloat_@4
$LN80@LoadFloat_@4:
  00155	c6 45 f8 ed	 mov	 BYTE PTR __k$[ebp+16], -19 ; ffffffedH
  00159	eb 55		 jmp	 SHORT $LN1@LoadFloat_@4
$LN82@LoadFloat_@4:
  0015b	88 4d f6	 mov	 BYTE PTR __k$[ebp+14], cl
  0015e	eb 50		 jmp	 SHORT $LN1@LoadFloat_@4
$LN83@LoadFloat_@4:
  00160	c6 45 f5 ec	 mov	 BYTE PTR __k$[ebp+13], -20 ; ffffffecH
  00164	eb 4a		 jmp	 SHORT $LN1@LoadFloat_@4
$LN84@LoadFloat_@4:
  00166	c6 45 f4 ed	 mov	 BYTE PTR __k$[ebp+12], -19 ; ffffffedH
  0016a	eb 44		 jmp	 SHORT $LN1@LoadFloat_@4
$LN85@LoadFloat_@4:
  0016c	c6 45 f3 ea	 mov	 BYTE PTR __k$[ebp+11], -22 ; ffffffeaH
  00170	eb 3e		 jmp	 SHORT $LN1@LoadFloat_@4
$LN86@LoadFloat_@4:
  00172	88 4d f2	 mov	 BYTE PTR __k$[ebp+10], cl
  00175	eb 39		 jmp	 SHORT $LN1@LoadFloat_@4
$LN87@LoadFloat_@4:
  00177	c6 45 f1 ec	 mov	 BYTE PTR __k$[ebp+9], -20 ; ffffffecH
  0017b	eb 33		 jmp	 SHORT $LN1@LoadFloat_@4
$LN88@LoadFloat_@4:
  0017d	c6 45 f0 ed	 mov	 BYTE PTR __k$[ebp+8], -19 ; ffffffedH
  00181	eb 2d		 jmp	 SHORT $LN1@LoadFloat_@4
$LN89@LoadFloat_@4:
  00183	c6 45 ef ea	 mov	 BYTE PTR __k$[ebp+7], -22 ; ffffffeaH
  00187	eb 27		 jmp	 SHORT $LN1@LoadFloat_@4
$LN90@LoadFloat_@4:
  00189	88 4d ee	 mov	 BYTE PTR __k$[ebp+6], cl
  0018c	eb 22		 jmp	 SHORT $LN1@LoadFloat_@4
$LN91@LoadFloat_@4:
  0018e	c6 45 ed ec	 mov	 BYTE PTR __k$[ebp+5], -20 ; ffffffecH
  00192	eb 1c		 jmp	 SHORT $LN1@LoadFloat_@4
$LN92@LoadFloat_@4:
  00194	c6 45 ec ed	 mov	 BYTE PTR __k$[ebp+4], -19 ; ffffffedH
  00198	eb 16		 jmp	 SHORT $LN1@LoadFloat_@4
$LN93@LoadFloat_@4:
  0019a	c6 45 eb ea	 mov	 BYTE PTR __k$[ebp+3], -22 ; ffffffeaH
  0019e	eb 10		 jmp	 SHORT $LN1@LoadFloat_@4
$LN94@LoadFloat_@4:
  001a0	c6 45 ea eb	 mov	 BYTE PTR __k$[ebp+2], -21 ; ffffffebH
  001a4	eb 0a		 jmp	 SHORT $LN1@LoadFloat_@4
$LN95@LoadFloat_@4:
  001a6	c6 45 e9 ec	 mov	 BYTE PTR __k$[ebp+1], -20 ; ffffffecH
  001aa	eb 04		 jmp	 SHORT $LN1@LoadFloat_@4
$LN96@LoadFloat_@4:
  001ac	c6 45 e8 ed	 mov	 BYTE PTR __k$[ebp], -19	; ffffffedH
$LN1@LoadFloat_@4:
  001b0	6a 03		 push	 3
  001b2	8d 45 e8	 lea	 eax, DWORD PTR __k$[ebp]
  001b5	c6 45 f7 00	 mov	 BYTE PTR __k$[ebp+15], 0
  001b9	5a		 pop	 edx
$LL104@LoadFloat_@4:
  001ba	81 30 ed ec eb
	ea		 xor	 DWORD PTR [eax], -353637139 ; eaebecedH
  001c0	83 c0 04	 add	 eax, 4
  001c3	4a		 dec	 edx
  001c4	75 f4		 jne	 SHORT $LL104@LoadFloat_@4
  001c6	6a 0c		 push	 12			; 0000000cH
  001c8	58		 pop	 eax
$LL101@LoadFloat_@4:
  001c9	8b c8		 mov	 ecx, eax
  001cb	81 e1 03 00 00
	80		 and	 ecx, -2147483645	; 80000003H
  001d1	79 05		 jns	 SHORT $LN111@LoadFloat_@4
  001d3	49		 dec	 ecx
  001d4	83 c9 fc	 or	 ecx, -4			; fffffffcH
  001d7	41		 inc	 ecx
$LN111@LoadFloat_@4:
  001d8	b2 ed		 mov	 dl, -19			; ffffffedH
  001da	2a d1		 sub	 dl, cl
  001dc	30 54 05 e8	 xor	 BYTE PTR __k$[ebp+eax], dl
  001e0	40		 inc	 eax
  001e1	83 f8 0f	 cmp	 eax, 15			; 0000000fH
  001e4	7c e3		 jl	 SHORT $LL101@LoadFloat_@4

; 137  : 		return LoadFloat(_k, f);

  001e6	f3 0f 10 45 0c	 movss	 xmm0, DWORD PTR _f$[ebp]
  001eb	51		 push	 ecx
  001ec	8d 45 e8	 lea	 eax, DWORD PTR __k$[ebp]
  001ef	f3 0f 11 04 24	 movss	 DWORD PTR [esp], xmm0
  001f4	50		 push	 eax
  001f5	8b ce		 mov	 ecx, esi
  001f7	ff 15 00 00 00
	00		 call	 DWORD PTR __imp_?LoadFloat@ioINILoader@@QAEMPBDM@Z

; 138  : 	}

  001fd	8b 4d fc	 mov	 ecx, DWORD PTR __$ArrayPad$[ebp]
  00200	33 cd		 xor	 ecx, ebp
  00202	5e		 pop	 esi
  00203	e8 00 00 00 00	 call	 @__security_check_cookie@4
  00208	c9		 leave
  00209	c2 08 00	 ret	 8
??$LoadFloat_e@$0BA@@ioINILoader@@QAEMAAY0BA@$$CBDM@Z ENDP ; ioINILoader::LoadFloat_e<16>
_TEXT	ENDS
PUBLIC	__$ArrayPad$
PUBLIC	??$LoadFloat_e@$0BG@@ioINILoader@@QAEMAAY0BG@$$CBDM@Z ; ioINILoader::LoadFloat_e<22>
; Function compile flags: /Ogsp
;	COMDAT ??$LoadFloat_e@$0BG@@ioINILoader@@QAEMAAY0BG@$$CBDM@Z
_TEXT	SEGMENT
__k$ = -32						; size = 22
__$ArrayPad$ = -4					; size = 4
_k$ = 8							; size = 4
_f$ = 12						; size = 4
??$LoadFloat_e@$0BG@@ioINILoader@@QAEMAAY0BG@$$CBDM@Z PROC ; ioINILoader::LoadFloat_e<22>, COMDAT
; _this$ = ecx

; 135  : 	{

  00000	55		 push	 ebp
  00001	8b ec		 mov	 ebp, esp
  00003	83 ec 20	 sub	 esp, 32			; 00000020H
  00006	a1 00 00 00 00	 mov	 eax, DWORD PTR ___security_cookie
  0000b	33 c5		 xor	 eax, ebp
  0000d	89 45 fc	 mov	 DWORD PTR __$ArrayPad$[ebp], eax
  00010	8b 45 08	 mov	 eax, DWORD PTR _k$[ebp]

; 136  : 		_ENCSTR(k, _k);

  00013	8a 10		 mov	 dl, BYTE PTR [eax]
  00015	53		 push	 ebx
  00016	56		 push	 esi
  00017	8b f1		 mov	 esi, ecx
  00019	84 d2		 test	 dl, dl
  0001b	0f 84 15 02 00
	00		 je	 $LN96@LoadFloat_@5
  00021	80 f2 ed	 xor	 dl, -19			; ffffffedH
  00024	88 55 e0	 mov	 BYTE PTR __k$[ebp], dl
  00027	8a 50 01	 mov	 dl, BYTE PTR [eax+1]
  0002a	84 d2		 test	 dl, dl
  0002c	0f 84 fe 01 00
	00		 je	 $LN95@LoadFloat_@5
  00032	80 f2 ec	 xor	 dl, -20			; ffffffecH
  00035	88 55 e1	 mov	 BYTE PTR __k$[ebp+1], dl
  00038	8a 50 02	 mov	 dl, BYTE PTR [eax+2]
  0003b	84 d2		 test	 dl, dl
  0003d	0f 84 e7 01 00
	00		 je	 $LN94@LoadFloat_@5
  00043	b1 eb		 mov	 cl, -21			; ffffffebH
  00045	32 d1		 xor	 dl, cl
  00047	88 55 e2	 mov	 BYTE PTR __k$[ebp+2], dl
  0004a	8a 50 03	 mov	 dl, BYTE PTR [eax+3]
  0004d	84 d2		 test	 dl, dl
  0004f	0f 84 cf 01 00
	00		 je	 $LN93@LoadFloat_@5
  00055	b3 ea		 mov	 bl, -22			; ffffffeaH
  00057	32 d3		 xor	 dl, bl
  00059	88 55 e3	 mov	 BYTE PTR __k$[ebp+3], dl
  0005c	8a 50 04	 mov	 dl, BYTE PTR [eax+4]
  0005f	84 d2		 test	 dl, dl
  00061	0f 84 b7 01 00
	00		 je	 $LN92@LoadFloat_@5
  00067	80 f2 ed	 xor	 dl, -19			; ffffffedH
  0006a	88 55 e4	 mov	 BYTE PTR __k$[ebp+4], dl
  0006d	8a 50 05	 mov	 dl, BYTE PTR [eax+5]
  00070	84 d2		 test	 dl, dl
  00072	0f 84 a0 01 00
	00		 je	 $LN91@LoadFloat_@5
  00078	80 f2 ec	 xor	 dl, -20			; ffffffecH
  0007b	88 55 e5	 mov	 BYTE PTR __k$[ebp+5], dl
  0007e	8a 50 06	 mov	 dl, BYTE PTR [eax+6]
  00081	84 d2		 test	 dl, dl
  00083	0f 84 8a 01 00
	00		 je	 $LN90@LoadFloat_@5
  00089	32 d1		 xor	 dl, cl
  0008b	88 55 e6	 mov	 BYTE PTR __k$[ebp+6], dl
  0008e	8a 50 07	 mov	 dl, BYTE PTR [eax+7]
  00091	84 d2		 test	 dl, dl
  00093	0f 84 75 01 00
	00		 je	 $LN89@LoadFloat_@5
  00099	32 d3		 xor	 dl, bl
  0009b	88 55 e7	 mov	 BYTE PTR __k$[ebp+7], dl
  0009e	8a 50 08	 mov	 dl, BYTE PTR [eax+8]
  000a1	84 d2		 test	 dl, dl
  000a3	0f 84 5f 01 00
	00		 je	 $LN88@LoadFloat_@5
  000a9	80 f2 ed	 xor	 dl, -19			; ffffffedH
  000ac	88 55 e8	 mov	 BYTE PTR __k$[ebp+8], dl
  000af	8a 50 09	 mov	 dl, BYTE PTR [eax+9]
  000b2	84 d2		 test	 dl, dl
  000b4	0f 84 48 01 00
	00		 je	 $LN87@LoadFloat_@5
  000ba	80 f2 ec	 xor	 dl, -20			; ffffffecH
  000bd	88 55 e9	 mov	 BYTE PTR __k$[ebp+9], dl
  000c0	8a 50 0a	 mov	 dl, BYTE PTR [eax+10]
  000c3	84 d2		 test	 dl, dl
  000c5	0f 84 32 01 00
	00		 je	 $LN86@LoadFloat_@5
  000cb	32 d1		 xor	 dl, cl
  000cd	88 55 ea	 mov	 BYTE PTR __k$[ebp+10], dl
  000d0	8a 50 0b	 mov	 dl, BYTE PTR [eax+11]
  000d3	84 d2		 test	 dl, dl
  000d5	0f 84 1d 01 00
	00		 je	 $LN85@LoadFloat_@5
  000db	32 d3		 xor	 dl, bl
  000dd	88 55 eb	 mov	 BYTE PTR __k$[ebp+11], dl
  000e0	8a 50 0c	 mov	 dl, BYTE PTR [eax+12]
  000e3	84 d2		 test	 dl, dl
  000e5	0f 84 07 01 00
	00		 je	 $LN84@LoadFloat_@5
  000eb	80 f2 ed	 xor	 dl, -19			; ffffffedH
  000ee	88 55 ec	 mov	 BYTE PTR __k$[ebp+12], dl
  000f1	8a 50 0d	 mov	 dl, BYTE PTR [eax+13]
  000f4	84 d2		 test	 dl, dl
  000f6	0f 84 f0 00 00
	00		 je	 $LN83@LoadFloat_@5
  000fc	80 f2 ec	 xor	 dl, -20			; ffffffecH
  000ff	88 55 ed	 mov	 BYTE PTR __k$[ebp+13], dl
  00102	8a 50 0e	 mov	 dl, BYTE PTR [eax+14]
  00105	84 d2		 test	 dl, dl
  00107	0f 84 da 00 00
	00		 je	 $LN82@LoadFloat_@5
  0010d	32 d1		 xor	 dl, cl
  0010f	88 55 ee	 mov	 BYTE PTR __k$[ebp+14], dl
  00112	8a 50 0f	 mov	 dl, BYTE PTR [eax+15]
  00115	84 d2		 test	 dl, dl
  00117	0f 84 c5 00 00
	00		 je	 $LN81@LoadFloat_@5
  0011d	32 d3		 xor	 dl, bl
  0011f	88 55 ef	 mov	 BYTE PTR __k$[ebp+15], dl
  00122	8a 50 10	 mov	 dl, BYTE PTR [eax+16]
  00125	84 d2		 test	 dl, dl
  00127	0f 84 af 00 00
	00		 je	 $LN80@LoadFloat_@5
  0012d	80 f2 ed	 xor	 dl, -19			; ffffffedH
  00130	88 55 f0	 mov	 BYTE PTR __k$[ebp+16], dl
  00133	8a 50 11	 mov	 dl, BYTE PTR [eax+17]
  00136	84 d2		 test	 dl, dl
  00138	0f 84 98 00 00
	00		 je	 $LN79@LoadFloat_@5
  0013e	80 f2 ec	 xor	 dl, -20			; ffffffecH
  00141	88 55 f1	 mov	 BYTE PTR __k$[ebp+17], dl
  00144	8a 50 12	 mov	 dl, BYTE PTR [eax+18]
  00147	84 d2		 test	 dl, dl
  00149	0f 84 82 00 00
	00		 je	 $LN78@LoadFloat_@5
  0014f	32 d1		 xor	 dl, cl
  00151	88 55 f2	 mov	 BYTE PTR __k$[ebp+18], dl
  00154	8a 50 13	 mov	 dl, BYTE PTR [eax+19]
  00157	84 d2		 test	 dl, dl
  00159	74 71		 je	 SHORT $LN77@LoadFloat_@5
  0015b	32 d3		 xor	 dl, bl
  0015d	88 55 f3	 mov	 BYTE PTR __k$[ebp+19], dl
  00160	8a 50 14	 mov	 dl, BYTE PTR [eax+20]
  00163	84 d2		 test	 dl, dl
  00165	74 5f		 je	 SHORT $LN76@LoadFloat_@5
  00167	80 f2 ed	 xor	 dl, -19			; ffffffedH
  0016a	80 78 15 00	 cmp	 BYTE PTR [eax+21], 0
  0016e	88 55 f4	 mov	 BYTE PTR __k$[ebp+20], dl
  00171	0f 84 c3 00 00
	00		 je	 $LN1@LoadFloat_@5
  00177	8a 50 16	 mov	 dl, BYTE PTR [eax+22]
  0017a	84 d2		 test	 dl, dl
  0017c	74 43		 je	 SHORT $LN74@LoadFloat_@5
  0017e	32 d1		 xor	 dl, cl
  00180	88 55 f6	 mov	 BYTE PTR __k$[ebp+22], dl
  00183	8a 50 17	 mov	 dl, BYTE PTR [eax+23]
  00186	84 d2		 test	 dl, dl
  00188	74 32		 je	 SHORT $LN73@LoadFloat_@5
  0018a	32 d3		 xor	 dl, bl
  0018c	88 55 f7	 mov	 BYTE PTR __k$[ebp+23], dl
  0018f	8a 50 18	 mov	 dl, BYTE PTR [eax+24]
  00192	84 d2		 test	 dl, dl
  00194	74 20		 je	 SHORT $LN72@LoadFloat_@5
  00196	8a 40 19	 mov	 al, BYTE PTR [eax+25]
  00199	80 f2 ed	 xor	 dl, -19			; ffffffedH
  0019c	88 55 f8	 mov	 BYTE PTR __k$[ebp+24], dl
  0019f	84 c0		 test	 al, al
  001a1	74 0a		 je	 SHORT $LN71@LoadFloat_@5
  001a3	34 ec		 xor	 al, -20			; ffffffecH
  001a5	88 45 f9	 mov	 BYTE PTR __k$[ebp+25], al
  001a8	e9 8d 00 00 00	 jmp	 $LN1@LoadFloat_@5
$LN71@LoadFloat_@5:
  001ad	c6 45 f9 ec	 mov	 BYTE PTR __k$[ebp+25], -20 ; ffffffecH
  001b1	e9 84 00 00 00	 jmp	 $LN1@LoadFloat_@5
$LN72@LoadFloat_@5:
  001b6	c6 45 f8 ed	 mov	 BYTE PTR __k$[ebp+24], -19 ; ffffffedH
  001ba	eb 7e		 jmp	 SHORT $LN1@LoadFloat_@5
$LN73@LoadFloat_@5:
  001bc	88 5d f7	 mov	 BYTE PTR __k$[ebp+23], bl
  001bf	eb 79		 jmp	 SHORT $LN1@LoadFloat_@5
$LN74@LoadFloat_@5:
  001c1	88 4d f6	 mov	 BYTE PTR __k$[ebp+22], cl
  001c4	eb 74		 jmp	 SHORT $LN1@LoadFloat_@5
$LN76@LoadFloat_@5:
  001c6	c6 45 f4 ed	 mov	 BYTE PTR __k$[ebp+20], -19 ; ffffffedH
  001ca	eb 6e		 jmp	 SHORT $LN1@LoadFloat_@5
$LN77@LoadFloat_@5:
  001cc	88 5d f3	 mov	 BYTE PTR __k$[ebp+19], bl
  001cf	eb 69		 jmp	 SHORT $LN1@LoadFloat_@5
$LN78@LoadFloat_@5:
  001d1	88 4d f2	 mov	 BYTE PTR __k$[ebp+18], cl
  001d4	eb 64		 jmp	 SHORT $LN1@LoadFloat_@5
$LN79@LoadFloat_@5:
  001d6	c6 45 f1 ec	 mov	 BYTE PTR __k$[ebp+17], -20 ; ffffffecH
  001da	eb 5e		 jmp	 SHORT $LN1@LoadFloat_@5
$LN80@LoadFloat_@5:
  001dc	c6 45 f0 ed	 mov	 BYTE PTR __k$[ebp+16], -19 ; ffffffedH
  001e0	eb 58		 jmp	 SHORT $LN1@LoadFloat_@5
$LN81@LoadFloat_@5:
  001e2	88 5d ef	 mov	 BYTE PTR __k$[ebp+15], bl
  001e5	eb 53		 jmp	 SHORT $LN1@LoadFloat_@5
$LN82@LoadFloat_@5:
  001e7	88 4d ee	 mov	 BYTE PTR __k$[ebp+14], cl
  001ea	eb 4e		 jmp	 SHORT $LN1@LoadFloat_@5
$LN83@LoadFloat_@5:
  001ec	c6 45 ed ec	 mov	 BYTE PTR __k$[ebp+13], -20 ; ffffffecH
  001f0	eb 48		 jmp	 SHORT $LN1@LoadFloat_@5
$LN84@LoadFloat_@5:
  001f2	c6 45 ec ed	 mov	 BYTE PTR __k$[ebp+12], -19 ; ffffffedH
  001f6	eb 42		 jmp	 SHORT $LN1@LoadFloat_@5
$LN85@LoadFloat_@5:
  001f8	88 5d eb	 mov	 BYTE PTR __k$[ebp+11], bl
  001fb	eb 3d		 jmp	 SHORT $LN1@LoadFloat_@5
$LN86@LoadFloat_@5:
  001fd	88 4d ea	 mov	 BYTE PTR __k$[ebp+10], cl
  00200	eb 38		 jmp	 SHORT $LN1@LoadFloat_@5
$LN87@LoadFloat_@5:
  00202	c6 45 e9 ec	 mov	 BYTE PTR __k$[ebp+9], -20 ; ffffffecH
  00206	eb 32		 jmp	 SHORT $LN1@LoadFloat_@5
$LN88@LoadFloat_@5:
  00208	c6 45 e8 ed	 mov	 BYTE PTR __k$[ebp+8], -19 ; ffffffedH
  0020c	eb 2c		 jmp	 SHORT $LN1@LoadFloat_@5
$LN89@LoadFloat_@5:
  0020e	88 5d e7	 mov	 BYTE PTR __k$[ebp+7], bl
  00211	eb 27		 jmp	 SHORT $LN1@LoadFloat_@5
$LN90@LoadFloat_@5:
  00213	88 4d e6	 mov	 BYTE PTR __k$[ebp+6], cl
  00216	eb 22		 jmp	 SHORT $LN1@LoadFloat_@5
$LN91@LoadFloat_@5:
  00218	c6 45 e5 ec	 mov	 BYTE PTR __k$[ebp+5], -20 ; ffffffecH
  0021c	eb 1c		 jmp	 SHORT $LN1@LoadFloat_@5
$LN92@LoadFloat_@5:
  0021e	c6 45 e4 ed	 mov	 BYTE PTR __k$[ebp+4], -19 ; ffffffedH
  00222	eb 16		 jmp	 SHORT $LN1@LoadFloat_@5
$LN93@LoadFloat_@5:
  00224	c6 45 e3 ea	 mov	 BYTE PTR __k$[ebp+3], -22 ; ffffffeaH
  00228	eb 10		 jmp	 SHORT $LN1@LoadFloat_@5
$LN94@LoadFloat_@5:
  0022a	c6 45 e2 eb	 mov	 BYTE PTR __k$[ebp+2], -21 ; ffffffebH
  0022e	eb 0a		 jmp	 SHORT $LN1@LoadFloat_@5
$LN95@LoadFloat_@5:
  00230	c6 45 e1 ec	 mov	 BYTE PTR __k$[ebp+1], -20 ; ffffffecH
  00234	eb 04		 jmp	 SHORT $LN1@LoadFloat_@5
$LN96@LoadFloat_@5:
  00236	c6 45 e0 ed	 mov	 BYTE PTR __k$[ebp], -19	; ffffffedH
$LN1@LoadFloat_@5:
  0023a	6a 05		 push	 5
  0023c	8d 45 e0	 lea	 eax, DWORD PTR __k$[ebp]
  0023f	c6 45 f5 00	 mov	 BYTE PTR __k$[ebp+21], 0
  00243	5a		 pop	 edx
$LL104@LoadFloat_@5:
  00244	81 30 ed ec eb
	ea		 xor	 DWORD PTR [eax], -353637139 ; eaebecedH
  0024a	83 c0 04	 add	 eax, 4
  0024d	4a		 dec	 edx
  0024e	75 f4		 jne	 SHORT $LL104@LoadFloat_@5

; 137  : 		return LoadFloat(_k, f);

  00250	f3 0f 10 45 0c	 movss	 xmm0, DWORD PTR _f$[ebp]
  00255	80 75 f4 ed	 xor	 BYTE PTR __k$[ebp+20], -19 ; ffffffedH
  00259	51		 push	 ecx
  0025a	8d 45 e0	 lea	 eax, DWORD PTR __k$[ebp]
  0025d	f3 0f 11 04 24	 movss	 DWORD PTR [esp], xmm0
  00262	50		 push	 eax
  00263	8b ce		 mov	 ecx, esi
  00265	ff 15 00 00 00
	00		 call	 DWORD PTR __imp_?LoadFloat@ioINILoader@@QAEMPBDM@Z

; 138  : 	}

  0026b	8b 4d fc	 mov	 ecx, DWORD PTR __$ArrayPad$[ebp]
  0026e	5e		 pop	 esi
  0026f	33 cd		 xor	 ecx, ebp
  00271	5b		 pop	 ebx
  00272	e8 00 00 00 00	 call	 @__security_check_cookie@4
  00277	c9		 leave
  00278	c2 08 00	 ret	 8
??$LoadFloat_e@$0BG@@ioINILoader@@QAEMAAY0BG@$$CBDM@Z ENDP ; ioINILoader::LoadFloat_e<22>
_TEXT	ENDS
PUBLIC	__$ArrayPad$
PUBLIC	??$LoadFloat_e@$0BL@@ioINILoader@@QAEMAAY0BL@$$CBDM@Z ; ioINILoader::LoadFloat_e<27>
; Function compile flags: /Ogsp
;	COMDAT ??$LoadFloat_e@$0BL@@ioINILoader@@QAEMAAY0BL@$$CBDM@Z
_TEXT	SEGMENT
__k$ = -36						; size = 27
__$ArrayPad$ = -4					; size = 4
_k$ = 8							; size = 4
_f$ = 12						; size = 4
??$LoadFloat_e@$0BL@@ioINILoader@@QAEMAAY0BL@$$CBDM@Z PROC ; ioINILoader::LoadFloat_e<27>, COMDAT
; _this$ = ecx

; 135  : 	{

  00000	55		 push	 ebp
  00001	8b ec		 mov	 ebp, esp
  00003	83 ec 24	 sub	 esp, 36			; 00000024H
  00006	a1 00 00 00 00	 mov	 eax, DWORD PTR ___security_cookie
  0000b	33 c5		 xor	 eax, ebp
  0000d	89 45 fc	 mov	 DWORD PTR __$ArrayPad$[ebp], eax
  00010	8b 45 08	 mov	 eax, DWORD PTR _k$[ebp]

; 136  : 		_ENCSTR(k, _k);

  00013	8a 10		 mov	 dl, BYTE PTR [eax]
  00015	53		 push	 ebx
  00016	56		 push	 esi
  00017	8b f1		 mov	 esi, ecx
  00019	84 d2		 test	 dl, dl
  0001b	0f 84 91 02 00
	00		 je	 $LN96@LoadFloat_@6
  00021	80 f2 ed	 xor	 dl, -19			; ffffffedH
  00024	88 55 dc	 mov	 BYTE PTR __k$[ebp], dl
  00027	8a 50 01	 mov	 dl, BYTE PTR [eax+1]
  0002a	84 d2		 test	 dl, dl
  0002c	0f 84 7a 02 00
	00		 je	 $LN95@LoadFloat_@6
  00032	b1 ec		 mov	 cl, -20			; ffffffecH
  00034	32 d1		 xor	 dl, cl
  00036	88 55 dd	 mov	 BYTE PTR __k$[ebp+1], dl
  00039	8a 50 02	 mov	 dl, BYTE PTR [eax+2]
  0003c	84 d2		 test	 dl, dl
  0003e	0f 84 62 02 00
	00		 je	 $LN94@LoadFloat_@6
  00044	80 f2 eb	 xor	 dl, -21			; ffffffebH
  00047	88 55 de	 mov	 BYTE PTR __k$[ebp+2], dl
  0004a	8a 50 03	 mov	 dl, BYTE PTR [eax+3]
  0004d	84 d2		 test	 dl, dl
  0004f	0f 84 4b 02 00
	00		 je	 $LN93@LoadFloat_@6
  00055	b3 ea		 mov	 bl, -22			; ffffffeaH
  00057	32 d3		 xor	 dl, bl
  00059	88 55 df	 mov	 BYTE PTR __k$[ebp+3], dl
  0005c	8a 50 04	 mov	 dl, BYTE PTR [eax+4]
  0005f	84 d2		 test	 dl, dl
  00061	0f 84 33 02 00
	00		 je	 $LN92@LoadFloat_@6
  00067	80 f2 ed	 xor	 dl, -19			; ffffffedH
  0006a	88 55 e0	 mov	 BYTE PTR __k$[ebp+4], dl
  0006d	8a 50 05	 mov	 dl, BYTE PTR [eax+5]
  00070	84 d2		 test	 dl, dl
  00072	0f 84 1d 02 00
	00		 je	 $LN91@LoadFloat_@6
  00078	32 d1		 xor	 dl, cl
  0007a	88 55 e1	 mov	 BYTE PTR __k$[ebp+5], dl
  0007d	8a 50 06	 mov	 dl, BYTE PTR [eax+6]
  00080	84 d2		 test	 dl, dl
  00082	0f 84 07 02 00
	00		 je	 $LN90@LoadFloat_@6
  00088	80 f2 eb	 xor	 dl, -21			; ffffffebH
  0008b	88 55 e2	 mov	 BYTE PTR __k$[ebp+6], dl
  0008e	8a 50 07	 mov	 dl, BYTE PTR [eax+7]
  00091	84 d2		 test	 dl, dl
  00093	0f 84 f1 01 00
	00		 je	 $LN89@LoadFloat_@6
  00099	32 d3		 xor	 dl, bl
  0009b	88 55 e3	 mov	 BYTE PTR __k$[ebp+7], dl
  0009e	8a 50 08	 mov	 dl, BYTE PTR [eax+8]
  000a1	84 d2		 test	 dl, dl
  000a3	0f 84 db 01 00
	00		 je	 $LN88@LoadFloat_@6
  000a9	80 f2 ed	 xor	 dl, -19			; ffffffedH
  000ac	88 55 e4	 mov	 BYTE PTR __k$[ebp+8], dl
  000af	8a 50 09	 mov	 dl, BYTE PTR [eax+9]
  000b2	84 d2		 test	 dl, dl
  000b4	0f 84 c5 01 00
	00		 je	 $LN87@LoadFloat_@6
  000ba	32 d1		 xor	 dl, cl
  000bc	88 55 e5	 mov	 BYTE PTR __k$[ebp+9], dl
  000bf	8a 50 0a	 mov	 dl, BYTE PTR [eax+10]
  000c2	84 d2		 test	 dl, dl
  000c4	0f 84 af 01 00
	00		 je	 $LN86@LoadFloat_@6
  000ca	80 f2 eb	 xor	 dl, -21			; ffffffebH
  000cd	88 55 e6	 mov	 BYTE PTR __k$[ebp+10], dl
  000d0	8a 50 0b	 mov	 dl, BYTE PTR [eax+11]
  000d3	84 d2		 test	 dl, dl
  000d5	0f 84 99 01 00
	00		 je	 $LN85@LoadFloat_@6
  000db	32 d3		 xor	 dl, bl
  000dd	88 55 e7	 mov	 BYTE PTR __k$[ebp+11], dl
  000e0	8a 50 0c	 mov	 dl, BYTE PTR [eax+12]
  000e3	84 d2		 test	 dl, dl
  000e5	0f 84 83 01 00
	00		 je	 $LN84@LoadFloat_@6
  000eb	80 f2 ed	 xor	 dl, -19			; ffffffedH
  000ee	88 55 e8	 mov	 BYTE PTR __k$[ebp+12], dl
  000f1	8a 50 0d	 mov	 dl, BYTE PTR [eax+13]
  000f4	84 d2		 test	 dl, dl
  000f6	0f 84 6d 01 00
	00		 je	 $LN83@LoadFloat_@6
  000fc	32 d1		 xor	 dl, cl
  000fe	88 55 e9	 mov	 BYTE PTR __k$[ebp+13], dl
  00101	8a 50 0e	 mov	 dl, BYTE PTR [eax+14]
  00104	84 d2		 test	 dl, dl
  00106	0f 84 57 01 00
	00		 je	 $LN82@LoadFloat_@6
  0010c	80 f2 eb	 xor	 dl, -21			; ffffffebH
  0010f	88 55 ea	 mov	 BYTE PTR __k$[ebp+14], dl
  00112	8a 50 0f	 mov	 dl, BYTE PTR [eax+15]
  00115	84 d2		 test	 dl, dl
  00117	0f 84 41 01 00
	00		 je	 $LN81@LoadFloat_@6
  0011d	32 d3		 xor	 dl, bl
  0011f	88 55 eb	 mov	 BYTE PTR __k$[ebp+15], dl
  00122	8a 50 10	 mov	 dl, BYTE PTR [eax+16]
  00125	84 d2		 test	 dl, dl
  00127	0f 84 2b 01 00
	00		 je	 $LN80@LoadFloat_@6
  0012d	80 f2 ed	 xor	 dl, -19			; ffffffedH
  00130	88 55 ec	 mov	 BYTE PTR __k$[ebp+16], dl
  00133	8a 50 11	 mov	 dl, BYTE PTR [eax+17]
  00136	84 d2		 test	 dl, dl
  00138	0f 84 15 01 00
	00		 je	 $LN79@LoadFloat_@6
  0013e	32 d1		 xor	 dl, cl
  00140	88 55 ed	 mov	 BYTE PTR __k$[ebp+17], dl
  00143	8a 50 12	 mov	 dl, BYTE PTR [eax+18]
  00146	84 d2		 test	 dl, dl
  00148	0f 84 ff 00 00
	00		 je	 $LN78@LoadFloat_@6
  0014e	80 f2 eb	 xor	 dl, -21			; ffffffebH
  00151	88 55 ee	 mov	 BYTE PTR __k$[ebp+18], dl
  00154	8a 50 13	 mov	 dl, BYTE PTR [eax+19]
  00157	84 d2		 test	 dl, dl
  00159	0f 84 e9 00 00
	00		 je	 $LN77@LoadFloat_@6
  0015f	32 d3		 xor	 dl, bl
  00161	88 55 ef	 mov	 BYTE PTR __k$[ebp+19], dl
  00164	8a 50 14	 mov	 dl, BYTE PTR [eax+20]
  00167	84 d2		 test	 dl, dl
  00169	0f 84 d3 00 00
	00		 je	 $LN76@LoadFloat_@6
  0016f	80 f2 ed	 xor	 dl, -19			; ffffffedH
  00172	88 55 f0	 mov	 BYTE PTR __k$[ebp+20], dl
  00175	8a 50 15	 mov	 dl, BYTE PTR [eax+21]
  00178	84 d2		 test	 dl, dl
  0017a	0f 84 bd 00 00
	00		 je	 $LN75@LoadFloat_@6
  00180	32 d1		 xor	 dl, cl
  00182	88 55 f1	 mov	 BYTE PTR __k$[ebp+21], dl
  00185	8a 50 16	 mov	 dl, BYTE PTR [eax+22]
  00188	84 d2		 test	 dl, dl
  0018a	0f 84 a7 00 00
	00		 je	 $LN74@LoadFloat_@6
  00190	80 f2 eb	 xor	 dl, -21			; ffffffebH
  00193	88 55 f2	 mov	 BYTE PTR __k$[ebp+22], dl
  00196	8a 50 17	 mov	 dl, BYTE PTR [eax+23]
  00199	84 d2		 test	 dl, dl
  0019b	0f 84 91 00 00
	00		 je	 $LN73@LoadFloat_@6
  001a1	32 d3		 xor	 dl, bl
  001a3	88 55 f3	 mov	 BYTE PTR __k$[ebp+23], dl
  001a6	8a 50 18	 mov	 dl, BYTE PTR [eax+24]
  001a9	84 d2		 test	 dl, dl
  001ab	74 7c		 je	 SHORT $LN72@LoadFloat_@6
  001ad	80 f2 ed	 xor	 dl, -19			; ffffffedH
  001b0	88 55 f4	 mov	 BYTE PTR __k$[ebp+24], dl
  001b3	8a 50 19	 mov	 dl, BYTE PTR [eax+25]
  001b6	84 d2		 test	 dl, dl
  001b8	74 67		 je	 SHORT $LN71@LoadFloat_@6
  001ba	32 d1		 xor	 dl, cl
  001bc	80 78 1a 00	 cmp	 BYTE PTR [eax+26], 0
  001c0	88 55 f5	 mov	 BYTE PTR __k$[ebp+25], dl
  001c3	0f 84 ed 00 00
	00		 je	 $LN1@LoadFloat_@6
  001c9	8a 50 1b	 mov	 dl, BYTE PTR [eax+27]
  001cc	84 d2		 test	 dl, dl
  001ce	74 49		 je	 SHORT $LN69@LoadFloat_@6
  001d0	32 d3		 xor	 dl, bl
  001d2	88 55 f7	 mov	 BYTE PTR __k$[ebp+27], dl
  001d5	8a 50 1c	 mov	 dl, BYTE PTR [eax+28]
  001d8	84 d2		 test	 dl, dl
  001da	74 34		 je	 SHORT $LN68@LoadFloat_@6
  001dc	80 f2 ed	 xor	 dl, -19			; ffffffedH
  001df	88 55 f8	 mov	 BYTE PTR __k$[ebp+28], dl
  001e2	8a 50 1d	 mov	 dl, BYTE PTR [eax+29]
  001e5	84 d2		 test	 dl, dl
  001e7	74 1f		 je	 SHORT $LN67@LoadFloat_@6
  001e9	8a 40 1e	 mov	 al, BYTE PTR [eax+30]
  001ec	32 d1		 xor	 dl, cl
  001ee	88 55 f9	 mov	 BYTE PTR __k$[ebp+29], dl
  001f1	84 c0		 test	 al, al
  001f3	74 0a		 je	 SHORT $LN66@LoadFloat_@6
  001f5	34 eb		 xor	 al, -21			; ffffffebH
  001f7	88 45 fa	 mov	 BYTE PTR __k$[ebp+30], al
  001fa	e9 b7 00 00 00	 jmp	 $LN1@LoadFloat_@6
$LN66@LoadFloat_@6:
  001ff	c6 45 fa eb	 mov	 BYTE PTR __k$[ebp+30], -21 ; ffffffebH
  00203	e9 ae 00 00 00	 jmp	 $LN1@LoadFloat_@6
$LN67@LoadFloat_@6:
  00208	88 4d f9	 mov	 BYTE PTR __k$[ebp+29], cl
  0020b	e9 a6 00 00 00	 jmp	 $LN1@LoadFloat_@6
$LN68@LoadFloat_@6:
  00210	c6 45 f8 ed	 mov	 BYTE PTR __k$[ebp+28], -19 ; ffffffedH
  00214	e9 9d 00 00 00	 jmp	 $LN1@LoadFloat_@6
$LN69@LoadFloat_@6:
  00219	88 5d f7	 mov	 BYTE PTR __k$[ebp+27], bl
  0021c	e9 95 00 00 00	 jmp	 $LN1@LoadFloat_@6
$LN71@LoadFloat_@6:
  00221	88 4d f5	 mov	 BYTE PTR __k$[ebp+25], cl
  00224	e9 8d 00 00 00	 jmp	 $LN1@LoadFloat_@6
$LN72@LoadFloat_@6:
  00229	c6 45 f4 ed	 mov	 BYTE PTR __k$[ebp+24], -19 ; ffffffedH
  0022d	e9 84 00 00 00	 jmp	 $LN1@LoadFloat_@6
$LN73@LoadFloat_@6:
  00232	88 5d f3	 mov	 BYTE PTR __k$[ebp+23], bl
  00235	eb 7f		 jmp	 SHORT $LN1@LoadFloat_@6
$LN74@LoadFloat_@6:
  00237	c6 45 f2 eb	 mov	 BYTE PTR __k$[ebp+22], -21 ; ffffffebH
  0023b	eb 79		 jmp	 SHORT $LN1@LoadFloat_@6
$LN75@LoadFloat_@6:
  0023d	88 4d f1	 mov	 BYTE PTR __k$[ebp+21], cl
  00240	eb 74		 jmp	 SHORT $LN1@LoadFloat_@6
$LN76@LoadFloat_@6:
  00242	c6 45 f0 ed	 mov	 BYTE PTR __k$[ebp+20], -19 ; ffffffedH
  00246	eb 6e		 jmp	 SHORT $LN1@LoadFloat_@6
$LN77@LoadFloat_@6:
  00248	88 5d ef	 mov	 BYTE PTR __k$[ebp+19], bl
  0024b	eb 69		 jmp	 SHORT $LN1@LoadFloat_@6
$LN78@LoadFloat_@6:
  0024d	c6 45 ee eb	 mov	 BYTE PTR __k$[ebp+18], -21 ; ffffffebH
  00251	eb 63		 jmp	 SHORT $LN1@LoadFloat_@6
$LN79@LoadFloat_@6:
  00253	88 4d ed	 mov	 BYTE PTR __k$[ebp+17], cl
  00256	eb 5e		 jmp	 SHORT $LN1@LoadFloat_@6
$LN80@LoadFloat_@6:
  00258	c6 45 ec ed	 mov	 BYTE PTR __k$[ebp+16], -19 ; ffffffedH
  0025c	eb 58		 jmp	 SHORT $LN1@LoadFloat_@6
$LN81@LoadFloat_@6:
  0025e	88 5d eb	 mov	 BYTE PTR __k$[ebp+15], bl
  00261	eb 53		 jmp	 SHORT $LN1@LoadFloat_@6
$LN82@LoadFloat_@6:
  00263	c6 45 ea eb	 mov	 BYTE PTR __k$[ebp+14], -21 ; ffffffebH
  00267	eb 4d		 jmp	 SHORT $LN1@LoadFloat_@6
$LN83@LoadFloat_@6:
  00269	88 4d e9	 mov	 BYTE PTR __k$[ebp+13], cl
  0026c	eb 48		 jmp	 SHORT $LN1@LoadFloat_@6
$LN84@LoadFloat_@6:
  0026e	c6 45 e8 ed	 mov	 BYTE PTR __k$[ebp+12], -19 ; ffffffedH
  00272	eb 42		 jmp	 SHORT $LN1@LoadFloat_@6
$LN85@LoadFloat_@6:
  00274	88 5d e7	 mov	 BYTE PTR __k$[ebp+11], bl
  00277	eb 3d		 jmp	 SHORT $LN1@LoadFloat_@6
$LN86@LoadFloat_@6:
  00279	c6 45 e6 eb	 mov	 BYTE PTR __k$[ebp+10], -21 ; ffffffebH
  0027d	eb 37		 jmp	 SHORT $LN1@LoadFloat_@6
$LN87@LoadFloat_@6:
  0027f	88 4d e5	 mov	 BYTE PTR __k$[ebp+9], cl
  00282	eb 32		 jmp	 SHORT $LN1@LoadFloat_@6
$LN88@LoadFloat_@6:
  00284	c6 45 e4 ed	 mov	 BYTE PTR __k$[ebp+8], -19 ; ffffffedH
  00288	eb 2c		 jmp	 SHORT $LN1@LoadFloat_@6
$LN89@LoadFloat_@6:
  0028a	88 5d e3	 mov	 BYTE PTR __k$[ebp+7], bl
  0028d	eb 27		 jmp	 SHORT $LN1@LoadFloat_@6
$LN90@LoadFloat_@6:
  0028f	c6 45 e2 eb	 mov	 BYTE PTR __k$[ebp+6], -21 ; ffffffebH
  00293	eb 21		 jmp	 SHORT $LN1@LoadFloat_@6
$LN91@LoadFloat_@6:
  00295	88 4d e1	 mov	 BYTE PTR __k$[ebp+5], cl
  00298	eb 1c		 jmp	 SHORT $LN1@LoadFloat_@6
$LN92@LoadFloat_@6:
  0029a	c6 45 e0 ed	 mov	 BYTE PTR __k$[ebp+4], -19 ; ffffffedH
  0029e	eb 16		 jmp	 SHORT $LN1@LoadFloat_@6
$LN93@LoadFloat_@6:
  002a0	c6 45 df ea	 mov	 BYTE PTR __k$[ebp+3], -22 ; ffffffeaH
  002a4	eb 10		 jmp	 SHORT $LN1@LoadFloat_@6
$LN94@LoadFloat_@6:
  002a6	c6 45 de eb	 mov	 BYTE PTR __k$[ebp+2], -21 ; ffffffebH
  002aa	eb 0a		 jmp	 SHORT $LN1@LoadFloat_@6
$LN95@LoadFloat_@6:
  002ac	c6 45 dd ec	 mov	 BYTE PTR __k$[ebp+1], -20 ; ffffffecH
  002b0	eb 04		 jmp	 SHORT $LN1@LoadFloat_@6
$LN96@LoadFloat_@6:
  002b2	c6 45 dc ed	 mov	 BYTE PTR __k$[ebp], -19	; ffffffedH
$LN1@LoadFloat_@6:
  002b6	6a 06		 push	 6
  002b8	8d 45 dc	 lea	 eax, DWORD PTR __k$[ebp]
  002bb	c6 45 f6 00	 mov	 BYTE PTR __k$[ebp+26], 0
  002bf	5a		 pop	 edx
$LL104@LoadFloat_@6:
  002c0	81 30 ed ec eb
	ea		 xor	 DWORD PTR [eax], -353637139 ; eaebecedH
  002c6	83 c0 04	 add	 eax, 4
  002c9	4a		 dec	 edx
  002ca	75 f4		 jne	 SHORT $LL104@LoadFloat_@6
  002cc	6a 18		 push	 24			; 00000018H
  002ce	58		 pop	 eax
$LL101@LoadFloat_@6:
  002cf	8b c8		 mov	 ecx, eax
  002d1	81 e1 03 00 00
	80		 and	 ecx, -2147483645	; 80000003H
  002d7	79 05		 jns	 SHORT $LN111@LoadFloat_@6
  002d9	49		 dec	 ecx
  002da	83 c9 fc	 or	 ecx, -4			; fffffffcH
  002dd	41		 inc	 ecx
$LN111@LoadFloat_@6:
  002de	b2 ed		 mov	 dl, -19			; ffffffedH
  002e0	2a d1		 sub	 dl, cl
  002e2	30 54 05 dc	 xor	 BYTE PTR __k$[ebp+eax], dl
  002e6	40		 inc	 eax
  002e7	83 f8 1a	 cmp	 eax, 26			; 0000001aH
  002ea	7c e3		 jl	 SHORT $LL101@LoadFloat_@6

; 137  : 		return LoadFloat(_k, f);

  002ec	f3 0f 10 45 0c	 movss	 xmm0, DWORD PTR _f$[ebp]
  002f1	51		 push	 ecx
  002f2	8d 45 dc	 lea	 eax, DWORD PTR __k$[ebp]
  002f5	f3 0f 11 04 24	 movss	 DWORD PTR [esp], xmm0
  002fa	50		 push	 eax
  002fb	8b ce		 mov	 ecx, esi
  002fd	ff 15 00 00 00
	00		 call	 DWORD PTR __imp_?LoadFloat@ioINILoader@@QAEMPBDM@Z

; 138  : 	}

  00303	8b 4d fc	 mov	 ecx, DWORD PTR __$ArrayPad$[ebp]
  00306	5e		 pop	 esi
  00307	33 cd		 xor	 ecx, ebp
  00309	5b		 pop	 ebx
  0030a	e8 00 00 00 00	 call	 @__security_check_cookie@4
  0030f	c9		 leave
  00310	c2 08 00	 ret	 8
??$LoadFloat_e@$0BL@@ioINILoader@@QAEMAAY0BL@$$CBDM@Z ENDP ; ioINILoader::LoadFloat_e<27>
_TEXT	ENDS
PUBLIC	__$ArrayPad$
PUBLIC	??$LoadBool_e@$0BE@@ioINILoader@@QAE_NAAY0BE@$$CBD_N@Z ; ioINILoader::LoadBool_e<20>
EXTRN	__imp_?LoadBool@ioINILoader@@QAE_NPBD_N@Z:PROC
; Function compile flags: /Ogsp
;	COMDAT ??$LoadBool_e@$0BE@@ioINILoader@@QAE_NAAY0BE@$$CBD_N@Z
_TEXT	SEGMENT
__k$ = -28						; size = 20
__$ArrayPad$ = -4					; size = 4
_k$ = 8							; size = 4
_b$ = 12						; size = 1
??$LoadBool_e@$0BE@@ioINILoader@@QAE_NAAY0BE@$$CBD_N@Z PROC ; ioINILoader::LoadBool_e<20>, COMDAT
; _this$ = ecx

; 101  : 	{

  00000	55		 push	 ebp
  00001	8b ec		 mov	 ebp, esp
  00003	83 ec 1c	 sub	 esp, 28			; 0000001cH
  00006	a1 00 00 00 00	 mov	 eax, DWORD PTR ___security_cookie
  0000b	33 c5		 xor	 eax, ebp
  0000d	89 45 fc	 mov	 DWORD PTR __$ArrayPad$[ebp], eax
  00010	8b 45 08	 mov	 eax, DWORD PTR _k$[ebp]

; 102  : 		_ENCSTR(k, _k);

  00013	8a 10		 mov	 dl, BYTE PTR [eax]
  00015	53		 push	 ebx
  00016	56		 push	 esi
  00017	8b f1		 mov	 esi, ecx
  00019	84 d2		 test	 dl, dl
  0001b	0f 84 dd 01 00
	00		 je	 $LN96@LoadBool_e
  00021	80 f2 ed	 xor	 dl, -19			; ffffffedH
  00024	88 55 e4	 mov	 BYTE PTR __k$[ebp], dl
  00027	8a 50 01	 mov	 dl, BYTE PTR [eax+1]
  0002a	84 d2		 test	 dl, dl
  0002c	0f 84 c6 01 00
	00		 je	 $LN95@LoadBool_e
  00032	b3 ec		 mov	 bl, -20			; ffffffecH
  00034	32 d3		 xor	 dl, bl
  00036	88 55 e5	 mov	 BYTE PTR __k$[ebp+1], dl
  00039	8a 50 02	 mov	 dl, BYTE PTR [eax+2]
  0003c	84 d2		 test	 dl, dl
  0003e	0f 84 ae 01 00
	00		 je	 $LN94@LoadBool_e
  00044	b1 eb		 mov	 cl, -21			; ffffffebH
  00046	32 d1		 xor	 dl, cl
  00048	88 55 e6	 mov	 BYTE PTR __k$[ebp+2], dl
  0004b	8a 50 03	 mov	 dl, BYTE PTR [eax+3]
  0004e	84 d2		 test	 dl, dl
  00050	0f 84 96 01 00
	00		 je	 $LN93@LoadBool_e
  00056	80 f2 ea	 xor	 dl, -22			; ffffffeaH
  00059	88 55 e7	 mov	 BYTE PTR __k$[ebp+3], dl
  0005c	8a 50 04	 mov	 dl, BYTE PTR [eax+4]
  0005f	84 d2		 test	 dl, dl
  00061	0f 84 7f 01 00
	00		 je	 $LN92@LoadBool_e
  00067	80 f2 ed	 xor	 dl, -19			; ffffffedH
  0006a	88 55 e8	 mov	 BYTE PTR __k$[ebp+4], dl
  0006d	8a 50 05	 mov	 dl, BYTE PTR [eax+5]
  00070	84 d2		 test	 dl, dl
  00072	0f 84 69 01 00
	00		 je	 $LN91@LoadBool_e
  00078	32 d3		 xor	 dl, bl
  0007a	88 55 e9	 mov	 BYTE PTR __k$[ebp+5], dl
  0007d	8a 50 06	 mov	 dl, BYTE PTR [eax+6]
  00080	84 d2		 test	 dl, dl
  00082	0f 84 54 01 00
	00		 je	 $LN90@LoadBool_e
  00088	32 d1		 xor	 dl, cl
  0008a	88 55 ea	 mov	 BYTE PTR __k$[ebp+6], dl
  0008d	8a 50 07	 mov	 dl, BYTE PTR [eax+7]
  00090	84 d2		 test	 dl, dl
  00092	0f 84 3e 01 00
	00		 je	 $LN89@LoadBool_e
  00098	80 f2 ea	 xor	 dl, -22			; ffffffeaH
  0009b	88 55 eb	 mov	 BYTE PTR __k$[ebp+7], dl
  0009e	8a 50 08	 mov	 dl, BYTE PTR [eax+8]
  000a1	84 d2		 test	 dl, dl
  000a3	0f 84 27 01 00
	00		 je	 $LN88@LoadBool_e
  000a9	80 f2 ed	 xor	 dl, -19			; ffffffedH
  000ac	88 55 ec	 mov	 BYTE PTR __k$[ebp+8], dl
  000af	8a 50 09	 mov	 dl, BYTE PTR [eax+9]
  000b2	84 d2		 test	 dl, dl
  000b4	0f 84 11 01 00
	00		 je	 $LN87@LoadBool_e
  000ba	32 d3		 xor	 dl, bl
  000bc	88 55 ed	 mov	 BYTE PTR __k$[ebp+9], dl
  000bf	8a 50 0a	 mov	 dl, BYTE PTR [eax+10]
  000c2	84 d2		 test	 dl, dl
  000c4	0f 84 fc 00 00
	00		 je	 $LN86@LoadBool_e
  000ca	32 d1		 xor	 dl, cl
  000cc	88 55 ee	 mov	 BYTE PTR __k$[ebp+10], dl
  000cf	8a 50 0b	 mov	 dl, BYTE PTR [eax+11]
  000d2	84 d2		 test	 dl, dl
  000d4	0f 84 e6 00 00
	00		 je	 $LN85@LoadBool_e
  000da	80 f2 ea	 xor	 dl, -22			; ffffffeaH
  000dd	88 55 ef	 mov	 BYTE PTR __k$[ebp+11], dl
  000e0	8a 50 0c	 mov	 dl, BYTE PTR [eax+12]
  000e3	84 d2		 test	 dl, dl
  000e5	0f 84 cf 00 00
	00		 je	 $LN84@LoadBool_e
  000eb	80 f2 ed	 xor	 dl, -19			; ffffffedH
  000ee	88 55 f0	 mov	 BYTE PTR __k$[ebp+12], dl
  000f1	8a 50 0d	 mov	 dl, BYTE PTR [eax+13]
  000f4	84 d2		 test	 dl, dl
  000f6	0f 84 b9 00 00
	00		 je	 $LN83@LoadBool_e
  000fc	32 d3		 xor	 dl, bl
  000fe	88 55 f1	 mov	 BYTE PTR __k$[ebp+13], dl
  00101	8a 50 0e	 mov	 dl, BYTE PTR [eax+14]
  00104	84 d2		 test	 dl, dl
  00106	0f 84 a4 00 00
	00		 je	 $LN82@LoadBool_e
  0010c	32 d1		 xor	 dl, cl
  0010e	88 55 f2	 mov	 BYTE PTR __k$[ebp+14], dl
  00111	8a 50 0f	 mov	 dl, BYTE PTR [eax+15]
  00114	84 d2		 test	 dl, dl
  00116	0f 84 8e 00 00
	00		 je	 $LN81@LoadBool_e
  0011c	80 f2 ea	 xor	 dl, -22			; ffffffeaH
  0011f	88 55 f3	 mov	 BYTE PTR __k$[ebp+15], dl
  00122	8a 50 10	 mov	 dl, BYTE PTR [eax+16]
  00125	84 d2		 test	 dl, dl
  00127	74 7b		 je	 SHORT $LN80@LoadBool_e
  00129	80 f2 ed	 xor	 dl, -19			; ffffffedH
  0012c	88 55 f4	 mov	 BYTE PTR __k$[ebp+16], dl
  0012f	8a 50 11	 mov	 dl, BYTE PTR [eax+17]
  00132	84 d2		 test	 dl, dl
  00134	74 69		 je	 SHORT $LN79@LoadBool_e
  00136	32 d3		 xor	 dl, bl
  00138	88 55 f5	 mov	 BYTE PTR __k$[ebp+17], dl
  0013b	8a 50 12	 mov	 dl, BYTE PTR [eax+18]
  0013e	84 d2		 test	 dl, dl
  00140	74 58		 je	 SHORT $LN78@LoadBool_e
  00142	32 d1		 xor	 dl, cl
  00144	80 78 13 00	 cmp	 BYTE PTR [eax+19], 0
  00148	88 55 f6	 mov	 BYTE PTR __k$[ebp+18], dl
  0014b	0f 84 b1 00 00
	00		 je	 $LN1@LoadBool_e
  00151	8a 50 14	 mov	 dl, BYTE PTR [eax+20]
  00154	84 d2		 test	 dl, dl
  00156	74 3c		 je	 SHORT $LN76@LoadBool_e
  00158	80 f2 ed	 xor	 dl, -19			; ffffffedH
  0015b	88 55 f8	 mov	 BYTE PTR __k$[ebp+20], dl
  0015e	8a 50 15	 mov	 dl, BYTE PTR [eax+21]
  00161	84 d2		 test	 dl, dl
  00163	74 2a		 je	 SHORT $LN75@LoadBool_e
  00165	32 d3		 xor	 dl, bl
  00167	88 55 f9	 mov	 BYTE PTR __k$[ebp+21], dl
  0016a	8a 50 16	 mov	 dl, BYTE PTR [eax+22]
  0016d	84 d2		 test	 dl, dl
  0016f	74 19		 je	 SHORT $LN74@LoadBool_e
  00171	8a 40 17	 mov	 al, BYTE PTR [eax+23]
  00174	32 d1		 xor	 dl, cl
  00176	88 55 fa	 mov	 BYTE PTR __k$[ebp+22], dl
  00179	84 c0		 test	 al, al
  0017b	74 07		 je	 SHORT $LN73@LoadBool_e
  0017d	34 ea		 xor	 al, -22			; ffffffeaH
  0017f	88 45 fb	 mov	 BYTE PTR __k$[ebp+23], al
  00182	eb 7e		 jmp	 SHORT $LN1@LoadBool_e
$LN73@LoadBool_e:
  00184	c6 45 fb ea	 mov	 BYTE PTR __k$[ebp+23], -22 ; ffffffeaH
  00188	eb 78		 jmp	 SHORT $LN1@LoadBool_e
$LN74@LoadBool_e:
  0018a	88 4d fa	 mov	 BYTE PTR __k$[ebp+22], cl
  0018d	eb 73		 jmp	 SHORT $LN1@LoadBool_e
$LN75@LoadBool_e:
  0018f	88 5d f9	 mov	 BYTE PTR __k$[ebp+21], bl
  00192	eb 6e		 jmp	 SHORT $LN1@LoadBool_e
$LN76@LoadBool_e:
  00194	c6 45 f8 ed	 mov	 BYTE PTR __k$[ebp+20], -19 ; ffffffedH
  00198	eb 68		 jmp	 SHORT $LN1@LoadBool_e
$LN78@LoadBool_e:
  0019a	88 4d f6	 mov	 BYTE PTR __k$[ebp+18], cl
  0019d	eb 63		 jmp	 SHORT $LN1@LoadBool_e
$LN79@LoadBool_e:
  0019f	88 5d f5	 mov	 BYTE PTR __k$[ebp+17], bl
  001a2	eb 5e		 jmp	 SHORT $LN1@LoadBool_e
$LN80@LoadBool_e:
  001a4	c6 45 f4 ed	 mov	 BYTE PTR __k$[ebp+16], -19 ; ffffffedH
  001a8	eb 58		 jmp	 SHORT $LN1@LoadBool_e
$LN81@LoadBool_e:
  001aa	c6 45 f3 ea	 mov	 BYTE PTR __k$[ebp+15], -22 ; ffffffeaH
  001ae	eb 52		 jmp	 SHORT $LN1@LoadBool_e
$LN82@LoadBool_e:
  001b0	88 4d f2	 mov	 BYTE PTR __k$[ebp+14], cl
  001b3	eb 4d		 jmp	 SHORT $LN1@LoadBool_e
$LN83@LoadBool_e:
  001b5	88 5d f1	 mov	 BYTE PTR __k$[ebp+13], bl
  001b8	eb 48		 jmp	 SHORT $LN1@LoadBool_e
$LN84@LoadBool_e:
  001ba	c6 45 f0 ed	 mov	 BYTE PTR __k$[ebp+12], -19 ; ffffffedH
  001be	eb 42		 jmp	 SHORT $LN1@LoadBool_e
$LN85@LoadBool_e:
  001c0	c6 45 ef ea	 mov	 BYTE PTR __k$[ebp+11], -22 ; ffffffeaH
  001c4	eb 3c		 jmp	 SHORT $LN1@LoadBool_e
$LN86@LoadBool_e:
  001c6	88 4d ee	 mov	 BYTE PTR __k$[ebp+10], cl
  001c9	eb 37		 jmp	 SHORT $LN1@LoadBool_e
$LN87@LoadBool_e:
  001cb	88 5d ed	 mov	 BYTE PTR __k$[ebp+9], bl
  001ce	eb 32		 jmp	 SHORT $LN1@LoadBool_e
$LN88@LoadBool_e:
  001d0	c6 45 ec ed	 mov	 BYTE PTR __k$[ebp+8], -19 ; ffffffedH
  001d4	eb 2c		 jmp	 SHORT $LN1@LoadBool_e
$LN89@LoadBool_e:
  001d6	c6 45 eb ea	 mov	 BYTE PTR __k$[ebp+7], -22 ; ffffffeaH
  001da	eb 26		 jmp	 SHORT $LN1@LoadBool_e
$LN90@LoadBool_e:
  001dc	88 4d ea	 mov	 BYTE PTR __k$[ebp+6], cl
  001df	eb 21		 jmp	 SHORT $LN1@LoadBool_e
$LN91@LoadBool_e:
  001e1	88 5d e9	 mov	 BYTE PTR __k$[ebp+5], bl
  001e4	eb 1c		 jmp	 SHORT $LN1@LoadBool_e
$LN92@LoadBool_e:
  001e6	c6 45 e8 ed	 mov	 BYTE PTR __k$[ebp+4], -19 ; ffffffedH
  001ea	eb 16		 jmp	 SHORT $LN1@LoadBool_e
$LN93@LoadBool_e:
  001ec	c6 45 e7 ea	 mov	 BYTE PTR __k$[ebp+3], -22 ; ffffffeaH
  001f0	eb 10		 jmp	 SHORT $LN1@LoadBool_e
$LN94@LoadBool_e:
  001f2	c6 45 e6 eb	 mov	 BYTE PTR __k$[ebp+2], -21 ; ffffffebH
  001f6	eb 0a		 jmp	 SHORT $LN1@LoadBool_e
$LN95@LoadBool_e:
  001f8	c6 45 e5 ec	 mov	 BYTE PTR __k$[ebp+1], -20 ; ffffffecH
  001fc	eb 04		 jmp	 SHORT $LN1@LoadBool_e
$LN96@LoadBool_e:
  001fe	c6 45 e4 ed	 mov	 BYTE PTR __k$[ebp], -19	; ffffffedH
$LN1@LoadBool_e:
  00202	6a 04		 push	 4
  00204	8d 45 e4	 lea	 eax, DWORD PTR __k$[ebp]
  00207	c6 45 f7 00	 mov	 BYTE PTR __k$[ebp+19], 0
  0020b	5a		 pop	 edx
$LL104@LoadBool_e:
  0020c	81 30 ed ec eb
	ea		 xor	 DWORD PTR [eax], -353637139 ; eaebecedH
  00212	83 c0 04	 add	 eax, 4
  00215	4a		 dec	 edx
  00216	75 f4		 jne	 SHORT $LL104@LoadBool_e
  00218	6a 10		 push	 16			; 00000010H
  0021a	58		 pop	 eax
$LL101@LoadBool_e:
  0021b	8b c8		 mov	 ecx, eax
  0021d	81 e1 03 00 00
	80		 and	 ecx, -2147483645	; 80000003H
  00223	79 05		 jns	 SHORT $LN111@LoadBool_e
  00225	49		 dec	 ecx
  00226	83 c9 fc	 or	 ecx, -4			; fffffffcH
  00229	41		 inc	 ecx
$LN111@LoadBool_e:
  0022a	b2 ed		 mov	 dl, -19			; ffffffedH
  0022c	2a d1		 sub	 dl, cl
  0022e	30 54 05 e4	 xor	 BYTE PTR __k$[ebp+eax], dl
  00232	40		 inc	 eax
  00233	83 f8 13	 cmp	 eax, 19			; 00000013H
  00236	7c e3		 jl	 SHORT $LL101@LoadBool_e

; 103  : 		return LoadBool(_k, b);

  00238	ff 75 0c	 push	 DWORD PTR _b$[ebp]
  0023b	8d 45 e4	 lea	 eax, DWORD PTR __k$[ebp]
  0023e	50		 push	 eax
  0023f	8b ce		 mov	 ecx, esi
  00241	ff 15 00 00 00
	00		 call	 DWORD PTR __imp_?LoadBool@ioINILoader@@QAE_NPBD_N@Z

; 104  : 	}

  00247	8b 4d fc	 mov	 ecx, DWORD PTR __$ArrayPad$[ebp]
  0024a	5e		 pop	 esi
  0024b	33 cd		 xor	 ecx, ebp
  0024d	5b		 pop	 ebx
  0024e	e8 00 00 00 00	 call	 @__security_check_cookie@4
  00253	c9		 leave
  00254	c2 08 00	 ret	 8
??$LoadBool_e@$0BE@@ioINILoader@@QAE_NAAY0BE@$$CBD_N@Z ENDP ; ioINILoader::LoadBool_e<20>
_TEXT	ENDS
PUBLIC	__$ArrayPad$
PUBLIC	??$LoadBool_e@$0BH@@ioINILoader@@QAE_NAAY0BH@$$CBD_N@Z ; ioINILoader::LoadBool_e<23>
; Function compile flags: /Ogsp
;	COMDAT ??$LoadBool_e@$0BH@@ioINILoader@@QAE_NAAY0BH@$$CBD_N@Z
_TEXT	SEGMENT
__k$ = -32						; size = 23
__$ArrayPad$ = -4					; size = 4
_k$ = 8							; size = 4
_b$ = 12						; size = 1
??$LoadBool_e@$0BH@@ioINILoader@@QAE_NAAY0BH@$$CBD_N@Z PROC ; ioINILoader::LoadBool_e<23>, COMDAT
; _this$ = ecx

; 101  : 	{

  00000	55		 push	 ebp
  00001	8b ec		 mov	 ebp, esp
  00003	83 ec 20	 sub	 esp, 32			; 00000020H
  00006	a1 00 00 00 00	 mov	 eax, DWORD PTR ___security_cookie
  0000b	33 c5		 xor	 eax, ebp
  0000d	89 45 fc	 mov	 DWORD PTR __$ArrayPad$[ebp], eax
  00010	8b 45 08	 mov	 eax, DWORD PTR _k$[ebp]

; 102  : 		_ENCSTR(k, _k);

  00013	8a 10		 mov	 dl, BYTE PTR [eax]
  00015	53		 push	 ebx
  00016	56		 push	 esi
  00017	8b f1		 mov	 esi, ecx
  00019	84 d2		 test	 dl, dl
  0001b	0f 84 2d 02 00
	00		 je	 $LN96@LoadBool_e@2
  00021	80 f2 ed	 xor	 dl, -19			; ffffffedH
  00024	88 55 e0	 mov	 BYTE PTR __k$[ebp], dl
  00027	8a 50 01	 mov	 dl, BYTE PTR [eax+1]
  0002a	84 d2		 test	 dl, dl
  0002c	0f 84 16 02 00
	00		 je	 $LN95@LoadBool_e@2
  00032	b1 ec		 mov	 cl, -20			; ffffffecH
  00034	32 d1		 xor	 dl, cl
  00036	88 55 e1	 mov	 BYTE PTR __k$[ebp+1], dl
  00039	8a 50 02	 mov	 dl, BYTE PTR [eax+2]
  0003c	84 d2		 test	 dl, dl
  0003e	0f 84 fe 01 00
	00		 je	 $LN94@LoadBool_e@2
  00044	80 f2 eb	 xor	 dl, -21			; ffffffebH
  00047	88 55 e2	 mov	 BYTE PTR __k$[ebp+2], dl
  0004a	8a 50 03	 mov	 dl, BYTE PTR [eax+3]
  0004d	84 d2		 test	 dl, dl
  0004f	0f 84 e7 01 00
	00		 je	 $LN93@LoadBool_e@2
  00055	b3 ea		 mov	 bl, -22			; ffffffeaH
  00057	32 d3		 xor	 dl, bl
  00059	88 55 e3	 mov	 BYTE PTR __k$[ebp+3], dl
  0005c	8a 50 04	 mov	 dl, BYTE PTR [eax+4]
  0005f	84 d2		 test	 dl, dl
  00061	0f 84 cf 01 00
	00		 je	 $LN92@LoadBool_e@2
  00067	80 f2 ed	 xor	 dl, -19			; ffffffedH
  0006a	88 55 e4	 mov	 BYTE PTR __k$[ebp+4], dl
  0006d	8a 50 05	 mov	 dl, BYTE PTR [eax+5]
  00070	84 d2		 test	 dl, dl
  00072	0f 84 b9 01 00
	00		 je	 $LN91@LoadBool_e@2
  00078	32 d1		 xor	 dl, cl
  0007a	88 55 e5	 mov	 BYTE PTR __k$[ebp+5], dl
  0007d	8a 50 06	 mov	 dl, BYTE PTR [eax+6]
  00080	84 d2		 test	 dl, dl
  00082	0f 84 a3 01 00
	00		 je	 $LN90@LoadBool_e@2
  00088	80 f2 eb	 xor	 dl, -21			; ffffffebH
  0008b	88 55 e6	 mov	 BYTE PTR __k$[ebp+6], dl
  0008e	8a 50 07	 mov	 dl, BYTE PTR [eax+7]
  00091	84 d2		 test	 dl, dl
  00093	0f 84 8d 01 00
	00		 je	 $LN89@LoadBool_e@2
  00099	32 d3		 xor	 dl, bl
  0009b	88 55 e7	 mov	 BYTE PTR __k$[ebp+7], dl
  0009e	8a 50 08	 mov	 dl, BYTE PTR [eax+8]
  000a1	84 d2		 test	 dl, dl
  000a3	0f 84 77 01 00
	00		 je	 $LN88@LoadBool_e@2
  000a9	80 f2 ed	 xor	 dl, -19			; ffffffedH
  000ac	88 55 e8	 mov	 BYTE PTR __k$[ebp+8], dl
  000af	8a 50 09	 mov	 dl, BYTE PTR [eax+9]
  000b2	84 d2		 test	 dl, dl
  000b4	0f 84 61 01 00
	00		 je	 $LN87@LoadBool_e@2
  000ba	32 d1		 xor	 dl, cl
  000bc	88 55 e9	 mov	 BYTE PTR __k$[ebp+9], dl
  000bf	8a 50 0a	 mov	 dl, BYTE PTR [eax+10]
  000c2	84 d2		 test	 dl, dl
  000c4	0f 84 4b 01 00
	00		 je	 $LN86@LoadBool_e@2
  000ca	80 f2 eb	 xor	 dl, -21			; ffffffebH
  000cd	88 55 ea	 mov	 BYTE PTR __k$[ebp+10], dl
  000d0	8a 50 0b	 mov	 dl, BYTE PTR [eax+11]
  000d3	84 d2		 test	 dl, dl
  000d5	0f 84 35 01 00
	00		 je	 $LN85@LoadBool_e@2
  000db	32 d3		 xor	 dl, bl
  000dd	88 55 eb	 mov	 BYTE PTR __k$[ebp+11], dl
  000e0	8a 50 0c	 mov	 dl, BYTE PTR [eax+12]
  000e3	84 d2		 test	 dl, dl
  000e5	0f 84 1f 01 00
	00		 je	 $LN84@LoadBool_e@2
  000eb	80 f2 ed	 xor	 dl, -19			; ffffffedH
  000ee	88 55 ec	 mov	 BYTE PTR __k$[ebp+12], dl
  000f1	8a 50 0d	 mov	 dl, BYTE PTR [eax+13]
  000f4	84 d2		 test	 dl, dl
  000f6	0f 84 09 01 00
	00		 je	 $LN83@LoadBool_e@2
  000fc	32 d1		 xor	 dl, cl
  000fe	88 55 ed	 mov	 BYTE PTR __k$[ebp+13], dl
  00101	8a 50 0e	 mov	 dl, BYTE PTR [eax+14]
  00104	84 d2		 test	 dl, dl
  00106	0f 84 f3 00 00
	00		 je	 $LN82@LoadBool_e@2
  0010c	80 f2 eb	 xor	 dl, -21			; ffffffebH
  0010f	88 55 ee	 mov	 BYTE PTR __k$[ebp+14], dl
  00112	8a 50 0f	 mov	 dl, BYTE PTR [eax+15]
  00115	84 d2		 test	 dl, dl
  00117	0f 84 dd 00 00
	00		 je	 $LN81@LoadBool_e@2
  0011d	32 d3		 xor	 dl, bl
  0011f	88 55 ef	 mov	 BYTE PTR __k$[ebp+15], dl
  00122	8a 50 10	 mov	 dl, BYTE PTR [eax+16]
  00125	84 d2		 test	 dl, dl
  00127	0f 84 c7 00 00
	00		 je	 $LN80@LoadBool_e@2
  0012d	80 f2 ed	 xor	 dl, -19			; ffffffedH
  00130	88 55 f0	 mov	 BYTE PTR __k$[ebp+16], dl
  00133	8a 50 11	 mov	 dl, BYTE PTR [eax+17]
  00136	84 d2		 test	 dl, dl
  00138	0f 84 b1 00 00
	00		 je	 $LN79@LoadBool_e@2
  0013e	32 d1		 xor	 dl, cl
  00140	88 55 f1	 mov	 BYTE PTR __k$[ebp+17], dl
  00143	8a 50 12	 mov	 dl, BYTE PTR [eax+18]
  00146	84 d2		 test	 dl, dl
  00148	0f 84 9b 00 00
	00		 je	 $LN78@LoadBool_e@2
  0014e	80 f2 eb	 xor	 dl, -21			; ffffffebH
  00151	88 55 f2	 mov	 BYTE PTR __k$[ebp+18], dl
  00154	8a 50 13	 mov	 dl, BYTE PTR [eax+19]
  00157	84 d2		 test	 dl, dl
  00159	0f 84 85 00 00
	00		 je	 $LN77@LoadBool_e@2
  0015f	32 d3		 xor	 dl, bl
  00161	88 55 f3	 mov	 BYTE PTR __k$[ebp+19], dl
  00164	8a 50 14	 mov	 dl, BYTE PTR [eax+20]
  00167	84 d2		 test	 dl, dl
  00169	74 73		 je	 SHORT $LN76@LoadBool_e@2
  0016b	80 f2 ed	 xor	 dl, -19			; ffffffedH
  0016e	88 55 f4	 mov	 BYTE PTR __k$[ebp+20], dl
  00171	8a 50 15	 mov	 dl, BYTE PTR [eax+21]
  00174	84 d2		 test	 dl, dl
  00176	74 61		 je	 SHORT $LN75@LoadBool_e@2
  00178	32 d1		 xor	 dl, cl
  0017a	80 78 16 00	 cmp	 BYTE PTR [eax+22], 0
  0017e	88 55 f5	 mov	 BYTE PTR __k$[ebp+21], dl
  00181	0f 84 cb 00 00
	00		 je	 $LN1@LoadBool_e@2
  00187	8a 50 17	 mov	 dl, BYTE PTR [eax+23]
  0018a	84 d2		 test	 dl, dl
  0018c	74 46		 je	 SHORT $LN73@LoadBool_e@2
  0018e	32 d3		 xor	 dl, bl
  00190	88 55 f7	 mov	 BYTE PTR __k$[ebp+23], dl
  00193	8a 50 18	 mov	 dl, BYTE PTR [eax+24]
  00196	84 d2		 test	 dl, dl
  00198	74 34		 je	 SHORT $LN72@LoadBool_e@2
  0019a	80 f2 ed	 xor	 dl, -19			; ffffffedH
  0019d	88 55 f8	 mov	 BYTE PTR __k$[ebp+24], dl
  001a0	8a 50 19	 mov	 dl, BYTE PTR [eax+25]
  001a3	84 d2		 test	 dl, dl
  001a5	74 1f		 je	 SHORT $LN71@LoadBool_e@2
  001a7	8a 40 1a	 mov	 al, BYTE PTR [eax+26]
  001aa	32 d1		 xor	 dl, cl
  001ac	88 55 f9	 mov	 BYTE PTR __k$[ebp+25], dl
  001af	84 c0		 test	 al, al
  001b1	74 0a		 je	 SHORT $LN70@LoadBool_e@2
  001b3	34 eb		 xor	 al, -21			; ffffffebH
  001b5	88 45 fa	 mov	 BYTE PTR __k$[ebp+26], al
  001b8	e9 95 00 00 00	 jmp	 $LN1@LoadBool_e@2
$LN70@LoadBool_e@2:
  001bd	c6 45 fa eb	 mov	 BYTE PTR __k$[ebp+26], -21 ; ffffffebH
  001c1	e9 8c 00 00 00	 jmp	 $LN1@LoadBool_e@2
$LN71@LoadBool_e@2:
  001c6	88 4d f9	 mov	 BYTE PTR __k$[ebp+25], cl
  001c9	e9 84 00 00 00	 jmp	 $LN1@LoadBool_e@2
$LN72@LoadBool_e@2:
  001ce	c6 45 f8 ed	 mov	 BYTE PTR __k$[ebp+24], -19 ; ffffffedH
  001d2	eb 7e		 jmp	 SHORT $LN1@LoadBool_e@2
$LN73@LoadBool_e@2:
  001d4	88 5d f7	 mov	 BYTE PTR __k$[ebp+23], bl
  001d7	eb 79		 jmp	 SHORT $LN1@LoadBool_e@2
$LN75@LoadBool_e@2:
  001d9	88 4d f5	 mov	 BYTE PTR __k$[ebp+21], cl
  001dc	eb 74		 jmp	 SHORT $LN1@LoadBool_e@2
$LN76@LoadBool_e@2:
  001de	c6 45 f4 ed	 mov	 BYTE PTR __k$[ebp+20], -19 ; ffffffedH
  001e2	eb 6e		 jmp	 SHORT $LN1@LoadBool_e@2
$LN77@LoadBool_e@2:
  001e4	88 5d f3	 mov	 BYTE PTR __k$[ebp+19], bl
  001e7	eb 69		 jmp	 SHORT $LN1@LoadBool_e@2
$LN78@LoadBool_e@2:
  001e9	c6 45 f2 eb	 mov	 BYTE PTR __k$[ebp+18], -21 ; ffffffebH
  001ed	eb 63		 jmp	 SHORT $LN1@LoadBool_e@2
$LN79@LoadBool_e@2:
  001ef	88 4d f1	 mov	 BYTE PTR __k$[ebp+17], cl
  001f2	eb 5e		 jmp	 SHORT $LN1@LoadBool_e@2
$LN80@LoadBool_e@2:
  001f4	c6 45 f0 ed	 mov	 BYTE PTR __k$[ebp+16], -19 ; ffffffedH
  001f8	eb 58		 jmp	 SHORT $LN1@LoadBool_e@2
$LN81@LoadBool_e@2:
  001fa	88 5d ef	 mov	 BYTE PTR __k$[ebp+15], bl
  001fd	eb 53		 jmp	 SHORT $LN1@LoadBool_e@2
$LN82@LoadBool_e@2:
  001ff	c6 45 ee eb	 mov	 BYTE PTR __k$[ebp+14], -21 ; ffffffebH
  00203	eb 4d		 jmp	 SHORT $LN1@LoadBool_e@2
$LN83@LoadBool_e@2:
  00205	88 4d ed	 mov	 BYTE PTR __k$[ebp+13], cl
  00208	eb 48		 jmp	 SHORT $LN1@LoadBool_e@2
$LN84@LoadBool_e@2:
  0020a	c6 45 ec ed	 mov	 BYTE PTR __k$[ebp+12], -19 ; ffffffedH
  0020e	eb 42		 jmp	 SHORT $LN1@LoadBool_e@2
$LN85@LoadBool_e@2:
  00210	88 5d eb	 mov	 BYTE PTR __k$[ebp+11], bl
  00213	eb 3d		 jmp	 SHORT $LN1@LoadBool_e@2
$LN86@LoadBool_e@2:
  00215	c6 45 ea eb	 mov	 BYTE PTR __k$[ebp+10], -21 ; ffffffebH
  00219	eb 37		 jmp	 SHORT $LN1@LoadBool_e@2
$LN87@LoadBool_e@2:
  0021b	88 4d e9	 mov	 BYTE PTR __k$[ebp+9], cl
  0021e	eb 32		 jmp	 SHORT $LN1@LoadBool_e@2
$LN88@LoadBool_e@2:
  00220	c6 45 e8 ed	 mov	 BYTE PTR __k$[ebp+8], -19 ; ffffffedH
  00224	eb 2c		 jmp	 SHORT $LN1@LoadBool_e@2
$LN89@LoadBool_e@2:
  00226	88 5d e7	 mov	 BYTE PTR __k$[ebp+7], bl
  00229	eb 27		 jmp	 SHORT $LN1@LoadBool_e@2
$LN90@LoadBool_e@2:
  0022b	c6 45 e6 eb	 mov	 BYTE PTR __k$[ebp+6], -21 ; ffffffebH
  0022f	eb 21		 jmp	 SHORT $LN1@LoadBool_e@2
$LN91@LoadBool_e@2:
  00231	88 4d e5	 mov	 BYTE PTR __k$[ebp+5], cl
  00234	eb 1c		 jmp	 SHORT $LN1@LoadBool_e@2
$LN92@LoadBool_e@2:
  00236	c6 45 e4 ed	 mov	 BYTE PTR __k$[ebp+4], -19 ; ffffffedH
  0023a	eb 16		 jmp	 SHORT $LN1@LoadBool_e@2
$LN93@LoadBool_e@2:
  0023c	c6 45 e3 ea	 mov	 BYTE PTR __k$[ebp+3], -22 ; ffffffeaH
  00240	eb 10		 jmp	 SHORT $LN1@LoadBool_e@2
$LN94@LoadBool_e@2:
  00242	c6 45 e2 eb	 mov	 BYTE PTR __k$[ebp+2], -21 ; ffffffebH
  00246	eb 0a		 jmp	 SHORT $LN1@LoadBool_e@2
$LN95@LoadBool_e@2:
  00248	c6 45 e1 ec	 mov	 BYTE PTR __k$[ebp+1], -20 ; ffffffecH
  0024c	eb 04		 jmp	 SHORT $LN1@LoadBool_e@2
$LN96@LoadBool_e@2:
  0024e	c6 45 e0 ed	 mov	 BYTE PTR __k$[ebp], -19	; ffffffedH
$LN1@LoadBool_e@2:
  00252	6a 05		 push	 5
  00254	8d 45 e0	 lea	 eax, DWORD PTR __k$[ebp]
  00257	c6 45 f6 00	 mov	 BYTE PTR __k$[ebp+22], 0
  0025b	5a		 pop	 edx
$LL104@LoadBool_e@2:
  0025c	81 30 ed ec eb
	ea		 xor	 DWORD PTR [eax], -353637139 ; eaebecedH
  00262	83 c0 04	 add	 eax, 4
  00265	4a		 dec	 edx
  00266	75 f4		 jne	 SHORT $LL104@LoadBool_e@2
  00268	6a 14		 push	 20			; 00000014H
  0026a	58		 pop	 eax
$LL101@LoadBool_e@2:
  0026b	8b c8		 mov	 ecx, eax
  0026d	81 e1 03 00 00
	80		 and	 ecx, -2147483645	; 80000003H
  00273	79 05		 jns	 SHORT $LN111@LoadBool_e@2
  00275	49		 dec	 ecx
  00276	83 c9 fc	 or	 ecx, -4			; fffffffcH
  00279	41		 inc	 ecx
$LN111@LoadBool_e@2:
  0027a	b2 ed		 mov	 dl, -19			; ffffffedH
  0027c	2a d1		 sub	 dl, cl
  0027e	30 54 05 e0	 xor	 BYTE PTR __k$[ebp+eax], dl
  00282	40		 inc	 eax
  00283	83 f8 16	 cmp	 eax, 22			; 00000016H
  00286	7c e3		 jl	 SHORT $LL101@LoadBool_e@2

; 103  : 		return LoadBool(_k, b);

  00288	ff 75 0c	 push	 DWORD PTR _b$[ebp]
  0028b	8d 45 e0	 lea	 eax, DWORD PTR __k$[ebp]
  0028e	50		 push	 eax
  0028f	8b ce		 mov	 ecx, esi
  00291	ff 15 00 00 00
	00		 call	 DWORD PTR __imp_?LoadBool@ioINILoader@@QAE_NPBD_N@Z

; 104  : 	}

  00297	8b 4d fc	 mov	 ecx, DWORD PTR __$ArrayPad$[ebp]
  0029a	5e		 pop	 esi
  0029b	33 cd		 xor	 ecx, ebp
  0029d	5b		 pop	 ebx
  0029e	e8 00 00 00 00	 call	 @__security_check_cookie@4
  002a3	c9		 leave
  002a4	c2 08 00	 ret	 8
??$LoadBool_e@$0BH@@ioINILoader@@QAE_NAAY0BH@$$CBD_N@Z ENDP ; ioINILoader::LoadBool_e<23>
_TEXT	ENDS
PUBLIC	__real@3fd2ee0d320154cb
PUBLIC	__real@41f0000000000000
PUBLIC	??$RADtoDEG@M@@YAMM@Z				; RADtoDEG<float>
;	COMDAT __real@3fd2ee0d320154cb
; File d:\lost saga for developer\youtube\tutorial\source\src\lsclient\veryoftenusedefine.h
CONST	SEGMENT
__real@3fd2ee0d320154cb DQ 03fd2ee0d320154cbr	; 0.29578
CONST	ENDS
;	COMDAT __real@41f0000000000000
CONST	SEGMENT
__real@41f0000000000000 DQ 041f0000000000000r	; 4.29497e+009
; Function compile flags: /Ogsp
CONST	ENDS
;	COMDAT ??$RADtoDEG@M@@YAMM@Z
_TEXT	SEGMENT
tv130 = -4						; size = 4
tv75 = 8						; size = 4
_val$ = 8						; size = 4
??$RADtoDEG@M@@YAMM@Z PROC				; RADtoDEG<float>, COMDAT

; 18   : type  RADtoDEG (type val) {return (type) (val * (return57() + 0.2957795132)); }

  00000	55		 push	 ebp
  00001	8b ec		 mov	 ebp, esp
  00003	51		 push	 ecx
  00004	b8 39 00 00 00	 mov	 eax, 57			; 00000039H
  00009	89 45 fc	 mov	 DWORD PTR tv130[ebp], eax
  0000c	db 45 fc	 fild	 DWORD PTR tv130[ebp]
  0000f	85 c0		 test	 eax, eax
  00011	79 06		 jns	 SHORT $LN5@RADtoDEG
  00013	dc 05 00 00 00
	00		 fadd	 QWORD PTR __real@41f0000000000000
$LN5@RADtoDEG:
  00019	dc 05 00 00 00
	00		 fadd	 QWORD PTR __real@3fd2ee0d320154cb
  0001f	d8 4d 08	 fmul	 DWORD PTR _val$[ebp]
  00022	d9 5d 08	 fstp	 DWORD PTR tv75[ebp]
  00025	d9 45 08	 fld	 DWORD PTR tv75[ebp]
  00028	c9		 leave
  00029	c3		 ret	 0
??$RADtoDEG@M@@YAMM@Z ENDP				; RADtoDEG<float>
_TEXT	ENDS
PUBLIC	??0?$CEncrypt@M@@QAE@XZ				; CEncrypt<float>::CEncrypt<float>
EXTRN	??0ccddaabb@@QAE@XZ:PROC			; ccddaabb::ccddaabb
;	COMDAT xdata$x
; File d:\lost saga for developer\youtube\tutorial\source\src\lsclient\encryptvalue.h
xdata$x	SEGMENT
__unwindtable$??0?$CEncrypt@M@@QAE@XZ DD 0ffffffffH
	DD	FLAT:__unwindfunclet$??0?$CEncrypt@M@@QAE@XZ$0
__ehfuncinfo$??0?$CEncrypt@M@@QAE@XZ DD 019930522H
	DD	01H
	DD	FLAT:__unwindtable$??0?$CEncrypt@M@@QAE@XZ
	DD	2 DUP(00H)
	DD	2 DUP(00H)
	DD	00H
	DD	01H
; Function compile flags: /Ogsp
xdata$x	ENDS
;	COMDAT ??0?$CEncrypt@M@@QAE@XZ
_TEXT	SEGMENT
_this$ = -16						; size = 4
__$EHRec$ = -12						; size = 12
??0?$CEncrypt@M@@QAE@XZ PROC				; CEncrypt<float>::CEncrypt<float>, COMDAT
; _this$ = ecx

; 109  : 	CEncrypt()

  00000	6a 04		 push	 4
  00002	b8 00 00 00 00	 mov	 eax, __ehhandler$??0?$CEncrypt@M@@QAE@XZ
  00007	e8 00 00 00 00	 call	 __EH_prolog3
  0000c	8b f1		 mov	 esi, ecx
  0000e	89 75 f0	 mov	 DWORD PTR _this$[ebp], esi
  00011	8d 4e 0c	 lea	 ecx, DWORD PTR [esi+12]
  00014	c7 06 00 00 00
	00		 mov	 DWORD PTR [esi], OFFSET ??_7?$CEncrypt@M@@6B@
  0001a	e8 00 00 00 00	 call	 ??0ccddaabb@@QAE@XZ	; ccddaabb::ccddaabb
  0001f	83 65 fc 00	 and	 DWORD PTR __$EHRec$[ebp+8], 0

; 110  : 	{
; 111  : 		Init();

  00023	8b ce		 mov	 ecx, esi
  00025	e8 00 00 00 00	 call	 ?Init@?$CEncrypt@M@@AAEXXZ ; CEncrypt<float>::Init

; 112  : 	}

  0002a	8b c6		 mov	 eax, esi
  0002c	e8 00 00 00 00	 call	 __EH_epilog3
  00031	c3		 ret	 0
_TEXT	ENDS
;	COMDAT text$x
text$x	SEGMENT
__unwindfunclet$??0?$CEncrypt@M@@QAE@XZ$0:
  00000	8b 4d f0	 mov	 ecx, DWORD PTR _this$[ebp]
  00003	83 c1 0c	 add	 ecx, 12			; 0000000cH
  00006	e9 00 00 00 00	 jmp	 ??1ccddaabb@@UAE@XZ	; ccddaabb::~ccddaabb
__ehhandler$??0?$CEncrypt@M@@QAE@XZ:
  0000b	8b 54 24 08	 mov	 edx, DWORD PTR [esp+8]
  0000f	8d 42 0c	 lea	 eax, DWORD PTR [edx+12]
  00012	8b 4a ec	 mov	 ecx, DWORD PTR [edx-20]
  00015	33 c8		 xor	 ecx, eax
  00017	e8 00 00 00 00	 call	 @__security_check_cookie@4
  0001c	b8 00 00 00 00	 mov	 eax, OFFSET __ehfuncinfo$??0?$CEncrypt@M@@QAE@XZ
  00021	e9 00 00 00 00	 jmp	 ___CxxFrameHandler3
text$x	ENDS
??0?$CEncrypt@M@@QAE@XZ ENDP				; CEncrypt<float>::CEncrypt<float>
PUBLIC	??B?$CEncrypt@M@@QAEMXZ				; CEncrypt<float>::operator float
; Function compile flags: /Ogsp
;	COMDAT ??B?$CEncrypt@M@@QAEMXZ
_TEXT	SEGMENT
_value$ = -4						; size = 4
??B?$CEncrypt@M@@QAEMXZ PROC				; CEncrypt<float>::operator float, COMDAT
; _this$ = ecx

; 134  : 	{

  00000	55		 push	 ebp
  00001	8b ec		 mov	 ebp, esp
  00003	51		 push	 ecx

; 135  : 		type value;
; 136  : 		DecryptValueToPool(&value);

  00004	8d 45 fc	 lea	 eax, DWORD PTR _value$[ebp]
  00007	50		 push	 eax
  00008	e8 00 00 00 00	 call	 ?DecryptValueToPool@?$CEncrypt@M@@QAEXPAM@Z ; CEncrypt<float>::DecryptValueToPool

; 137  : 
; 138  : #ifdef _NOTUSE
; 139  : 		Debug();
; 140  : #endif
; 141  : 		return value;

  0000d	d9 45 fc	 fld	 DWORD PTR _value$[ebp]

; 142  : 	}

  00010	c9		 leave
  00011	c3		 ret	 0
??B?$CEncrypt@M@@QAEMXZ ENDP				; CEncrypt<float>::operator float
_TEXT	ENDS
PUBLIC	??4?$CEncrypt@M@@QAEMM@Z			; CEncrypt<float>::operator=
; Function compile flags: /Ogsp
;	COMDAT ??4?$CEncrypt@M@@QAEMM@Z
_TEXT	SEGMENT
_value$ = 8						; size = 4
_inValue$ = 8						; size = 4
??4?$CEncrypt@M@@QAEMM@Z PROC				; CEncrypt<float>::operator=, COMDAT
; _this$ = ecx

; 1654 : 	{	

  00000	55		 push	 ebp
  00001	8b ec		 mov	 ebp, esp

; 1655 : 		type value = inValue;

  00003	d9 45 08	 fld	 DWORD PTR _inValue$[ebp]

; 1656 : 		EncryptValueToPool((char*)&value);

  00006	8d 45 08	 lea	 eax, DWORD PTR _value$[ebp]
  00009	50		 push	 eax
  0000a	d9 5d 08	 fstp	 DWORD PTR _value$[ebp]
  0000d	e8 00 00 00 00	 call	 ?EncryptValueToPool@?$CEncrypt@M@@AAEXPBD@Z ; CEncrypt<float>::EncryptValueToPool

; 1657 : #ifdef _NOTUSE
; 1658 : 		m_value = inValue;
; 1659 : 		Debug();
; 1660 : #endif
; 1661 : 		return value;

  00012	d9 45 08	 fld	 DWORD PTR _value$[ebp]

; 1662 : 	}

  00015	5d		 pop	 ebp
  00016	c2 04 00	 ret	 4
??4?$CEncrypt@M@@QAEMM@Z ENDP				; CEncrypt<float>::operator=
_TEXT	ENDS
PUBLIC	??O?$CEncrypt@M@@QAE_NABM@Z			; CEncrypt<float>::operator>
; Function compile flags: /Ogsp
;	COMDAT ??O?$CEncrypt@M@@QAE_NABM@Z
_TEXT	SEGMENT
_value$ = -4						; size = 4
_inValue$ = 8						; size = 4
??O?$CEncrypt@M@@QAE_NABM@Z PROC			; CEncrypt<float>::operator>, COMDAT
; _this$ = ecx

; 1811 : 	{

  00000	55		 push	 ebp
  00001	8b ec		 mov	 ebp, esp
  00003	51		 push	 ecx

; 1812 : 		type value;
; 1813 : 		DecryptValueToPool(&value);

  00004	8d 45 fc	 lea	 eax, DWORD PTR _value$[ebp]
  00007	50		 push	 eax
  00008	e8 00 00 00 00	 call	 ?DecryptValueToPool@?$CEncrypt@M@@QAEXPAM@Z ; CEncrypt<float>::DecryptValueToPool

; 1814 : #ifdef _NOTUSE
; 1815 : 		Debug();
; 1816 : #endif
; 1817 : 		return (value > inValue);

  0000d	8b 45 08	 mov	 eax, DWORD PTR _inValue$[ebp]
  00010	f3 0f 10 08	 movss	 xmm1, DWORD PTR [eax]
  00014	f3 0f 10 45 fc	 movss	 xmm0, DWORD PTR _value$[ebp]
  00019	0f 5a c0	 cvtps2pd xmm0, xmm0
  0001c	0f 5a c9	 cvtps2pd xmm1, xmm1
  0001f	33 c0		 xor	 eax, eax
  00021	66 0f 2f c1	 comisd	 xmm0, xmm1
  00025	76 01		 jbe	 SHORT $LN4@operator@3
  00027	40		 inc	 eax
$LN4@operator@3:

; 1818 : 	}		

  00028	c9		 leave
  00029	c2 04 00	 ret	 4
??O?$CEncrypt@M@@QAE_NABM@Z ENDP			; CEncrypt<float>::operator>
_TEXT	ENDS
PUBLIC	??0?$CEncrypt@K@@QAE@XZ				; CEncrypt<unsigned long>::CEncrypt<unsigned long>
;	COMDAT xdata$x
xdata$x	SEGMENT
__unwindtable$??0?$CEncrypt@K@@QAE@XZ DD 0ffffffffH
	DD	FLAT:__unwindfunclet$??0?$CEncrypt@K@@QAE@XZ$0
__ehfuncinfo$??0?$CEncrypt@K@@QAE@XZ DD 019930522H
	DD	01H
	DD	FLAT:__unwindtable$??0?$CEncrypt@K@@QAE@XZ
	DD	2 DUP(00H)
	DD	2 DUP(00H)
	DD	00H
	DD	01H
; Function compile flags: /Ogsp
xdata$x	ENDS
;	COMDAT ??0?$CEncrypt@K@@QAE@XZ
_TEXT	SEGMENT
_this$ = -16						; size = 4
__$EHRec$ = -12						; size = 12
??0?$CEncrypt@K@@QAE@XZ PROC				; CEncrypt<unsigned long>::CEncrypt<unsigned long>, COMDAT
; _this$ = ecx

; 109  : 	CEncrypt()

  00000	6a 04		 push	 4
  00002	b8 00 00 00 00	 mov	 eax, __ehhandler$??0?$CEncrypt@K@@QAE@XZ
  00007	e8 00 00 00 00	 call	 __EH_prolog3
  0000c	8b f1		 mov	 esi, ecx
  0000e	89 75 f0	 mov	 DWORD PTR _this$[ebp], esi
  00011	8d 4e 0c	 lea	 ecx, DWORD PTR [esi+12]
  00014	c7 06 00 00 00
	00		 mov	 DWORD PTR [esi], OFFSET ??_7?$CEncrypt@K@@6B@
  0001a	e8 00 00 00 00	 call	 ??0ccddaabb@@QAE@XZ	; ccddaabb::ccddaabb
  0001f	83 65 fc 00	 and	 DWORD PTR __$EHRec$[ebp+8], 0

; 110  : 	{
; 111  : 		Init();

  00023	8b ce		 mov	 ecx, esi
  00025	e8 00 00 00 00	 call	 ?Init@?$CEncrypt@K@@AAEXXZ ; CEncrypt<unsigned long>::Init

; 112  : 	}

  0002a	8b c6		 mov	 eax, esi
  0002c	e8 00 00 00 00	 call	 __EH_epilog3
  00031	c3		 ret	 0
_TEXT	ENDS
;	COMDAT text$x
text$x	SEGMENT
__unwindfunclet$??0?$CEncrypt@K@@QAE@XZ$0:
  00000	8b 4d f0	 mov	 ecx, DWORD PTR _this$[ebp]
  00003	83 c1 0c	 add	 ecx, 12			; 0000000cH
  00006	e9 00 00 00 00	 jmp	 ??1ccddaabb@@UAE@XZ	; ccddaabb::~ccddaabb
__ehhandler$??0?$CEncrypt@K@@QAE@XZ:
  0000b	8b 54 24 08	 mov	 edx, DWORD PTR [esp+8]
  0000f	8d 42 0c	 lea	 eax, DWORD PTR [edx+12]
  00012	8b 4a ec	 mov	 ecx, DWORD PTR [edx-20]
  00015	33 c8		 xor	 ecx, eax
  00017	e8 00 00 00 00	 call	 @__security_check_cookie@4
  0001c	b8 00 00 00 00	 mov	 eax, OFFSET __ehfuncinfo$??0?$CEncrypt@K@@QAE@XZ
  00021	e9 00 00 00 00	 jmp	 ___CxxFrameHandler3
text$x	ENDS
??0?$CEncrypt@K@@QAE@XZ ENDP				; CEncrypt<unsigned long>::CEncrypt<unsigned long>
PUBLIC	??B?$CEncrypt@K@@QAEKXZ				; CEncrypt<unsigned long>::operator unsigned long
; Function compile flags: /Ogsp
;	COMDAT ??B?$CEncrypt@K@@QAEKXZ
_TEXT	SEGMENT
_value$ = -4						; size = 4
??B?$CEncrypt@K@@QAEKXZ PROC				; CEncrypt<unsigned long>::operator unsigned long, COMDAT
; _this$ = ecx

; 134  : 	{

  00000	55		 push	 ebp
  00001	8b ec		 mov	 ebp, esp
  00003	51		 push	 ecx

; 135  : 		type value;
; 136  : 		DecryptValueToPool(&value);

  00004	8d 45 fc	 lea	 eax, DWORD PTR _value$[ebp]
  00007	50		 push	 eax
  00008	e8 00 00 00 00	 call	 ?DecryptValueToPool@?$CEncrypt@K@@QAEXPAK@Z ; CEncrypt<unsigned long>::DecryptValueToPool

; 137  : 
; 138  : #ifdef _NOTUSE
; 139  : 		Debug();
; 140  : #endif
; 141  : 		return value;

  0000d	8b 45 fc	 mov	 eax, DWORD PTR _value$[ebp]

; 142  : 	}

  00010	c9		 leave
  00011	c3		 ret	 0
??B?$CEncrypt@K@@QAEKXZ ENDP				; CEncrypt<unsigned long>::operator unsigned long
_TEXT	ENDS
PUBLIC	??4?$CEncrypt@K@@QAEKK@Z			; CEncrypt<unsigned long>::operator=
; Function compile flags: /Ogsp
;	COMDAT ??4?$CEncrypt@K@@QAEKK@Z
_TEXT	SEGMENT
_value$ = 8						; size = 4
_inValue$ = 8						; size = 4
??4?$CEncrypt@K@@QAEKK@Z PROC				; CEncrypt<unsigned long>::operator=, COMDAT
; _this$ = ecx

; 1262 : 	{

  00000	55		 push	 ebp
  00001	8b ec		 mov	 ebp, esp

; 1263 : 		
; 1264 : 		type value = inValue;

  00003	8b 45 08	 mov	 eax, DWORD PTR _inValue$[ebp]
  00006	89 45 08	 mov	 DWORD PTR _value$[ebp], eax

; 1265 : 		EncryptValueToPool((char*)&value);

  00009	8d 45 08	 lea	 eax, DWORD PTR _value$[ebp]
  0000c	50		 push	 eax
  0000d	e8 00 00 00 00	 call	 ?EncryptValueToPool@?$CEncrypt@K@@AAEXPBD@Z ; CEncrypt<unsigned long>::EncryptValueToPool

; 1266 : #ifdef _NOTUSE
; 1267 : 		m_value = inValue;
; 1268 : 		Debug();
; 1269 : #endif
; 1270 : 		return value;

  00012	8b 45 08	 mov	 eax, DWORD PTR _value$[ebp]

; 1271 : 	}

  00015	5d		 pop	 ebp
  00016	c2 04 00	 ret	 4
??4?$CEncrypt@K@@QAEKK@Z ENDP				; CEncrypt<unsigned long>::operator=
_TEXT	ENDS
PUBLIC	??0?$CEncrypt@_N@@QAE@XZ			; CEncrypt<bool>::CEncrypt<bool>
;	COMDAT xdata$x
xdata$x	SEGMENT
__unwindtable$??0?$CEncrypt@_N@@QAE@XZ DD 0ffffffffH
	DD	FLAT:__unwindfunclet$??0?$CEncrypt@_N@@QAE@XZ$0
__ehfuncinfo$??0?$CEncrypt@_N@@QAE@XZ DD 019930522H
	DD	01H
	DD	FLAT:__unwindtable$??0?$CEncrypt@_N@@QAE@XZ
	DD	2 DUP(00H)
	DD	2 DUP(00H)
	DD	00H
	DD	01H
; Function compile flags: /Ogsp
xdata$x	ENDS
;	COMDAT ??0?$CEncrypt@_N@@QAE@XZ
_TEXT	SEGMENT
_this$ = -16						; size = 4
__$EHRec$ = -12						; size = 12
??0?$CEncrypt@_N@@QAE@XZ PROC				; CEncrypt<bool>::CEncrypt<bool>, COMDAT
; _this$ = ecx

; 109  : 	CEncrypt()

  00000	6a 04		 push	 4
  00002	b8 00 00 00 00	 mov	 eax, __ehhandler$??0?$CEncrypt@_N@@QAE@XZ
  00007	e8 00 00 00 00	 call	 __EH_prolog3
  0000c	8b f1		 mov	 esi, ecx
  0000e	89 75 f0	 mov	 DWORD PTR _this$[ebp], esi
  00011	8d 4e 0c	 lea	 ecx, DWORD PTR [esi+12]
  00014	c7 06 00 00 00
	00		 mov	 DWORD PTR [esi], OFFSET ??_7?$CEncrypt@_N@@6B@
  0001a	e8 00 00 00 00	 call	 ??0ccddaabb@@QAE@XZ	; ccddaabb::ccddaabb
  0001f	83 65 fc 00	 and	 DWORD PTR __$EHRec$[ebp+8], 0

; 110  : 	{
; 111  : 		Init();

  00023	8b ce		 mov	 ecx, esi
  00025	e8 00 00 00 00	 call	 ?Init@?$CEncrypt@_N@@AAEXXZ ; CEncrypt<bool>::Init

; 112  : 	}

  0002a	8b c6		 mov	 eax, esi
  0002c	e8 00 00 00 00	 call	 __EH_epilog3
  00031	c3		 ret	 0
_TEXT	ENDS
;	COMDAT text$x
text$x	SEGMENT
__unwindfunclet$??0?$CEncrypt@_N@@QAE@XZ$0:
  00000	8b 4d f0	 mov	 ecx, DWORD PTR _this$[ebp]
  00003	83 c1 0c	 add	 ecx, 12			; 0000000cH
  00006	e9 00 00 00 00	 jmp	 ??1ccddaabb@@UAE@XZ	; ccddaabb::~ccddaabb
__ehhandler$??0?$CEncrypt@_N@@QAE@XZ:
  0000b	8b 54 24 08	 mov	 edx, DWORD PTR [esp+8]
  0000f	8d 42 0c	 lea	 eax, DWORD PTR [edx+12]
  00012	8b 4a ec	 mov	 ecx, DWORD PTR [edx-20]
  00015	33 c8		 xor	 ecx, eax
  00017	e8 00 00 00 00	 call	 @__security_check_cookie@4
  0001c	b8 00 00 00 00	 mov	 eax, OFFSET __ehfuncinfo$??0?$CEncrypt@_N@@QAE@XZ
  00021	e9 00 00 00 00	 jmp	 ___CxxFrameHandler3
text$x	ENDS
??0?$CEncrypt@_N@@QAE@XZ ENDP				; CEncrypt<bool>::CEncrypt<bool>
PUBLIC	??B?$CEncrypt@_N@@QAE_NXZ			; CEncrypt<bool>::operator bool
; Function compile flags: /Ogsp
;	COMDAT ??B?$CEncrypt@_N@@QAE_NXZ
_TEXT	SEGMENT
_value$ = -1						; size = 1
??B?$CEncrypt@_N@@QAE_NXZ PROC				; CEncrypt<bool>::operator bool, COMDAT
; _this$ = ecx

; 134  : 	{

  00000	55		 push	 ebp
  00001	8b ec		 mov	 ebp, esp
  00003	51		 push	 ecx

; 135  : 		type value;
; 136  : 		DecryptValueToPool(&value);

  00004	8d 45 ff	 lea	 eax, DWORD PTR _value$[ebp]
  00007	50		 push	 eax
  00008	e8 00 00 00 00	 call	 ?DecryptValueToPool@?$CEncrypt@_N@@QAEXPA_N@Z ; CEncrypt<bool>::DecryptValueToPool

; 137  : 
; 138  : #ifdef _NOTUSE
; 139  : 		Debug();
; 140  : #endif
; 141  : 		return value;

  0000d	8a 45 ff	 mov	 al, BYTE PTR _value$[ebp]

; 142  : 	}

  00010	c9		 leave
  00011	c3		 ret	 0
??B?$CEncrypt@_N@@QAE_NXZ ENDP				; CEncrypt<bool>::operator bool
_TEXT	ENDS
PUBLIC	??4?$CEncrypt@_N@@QAE_N_N@Z			; CEncrypt<bool>::operator=
; Function compile flags: /Ogsp
;	COMDAT ??4?$CEncrypt@_N@@QAE_N_N@Z
_TEXT	SEGMENT
_inValue$ = 8						; size = 1
_value$ = 11						; size = 1
??4?$CEncrypt@_N@@QAE_N_N@Z PROC			; CEncrypt<bool>::operator=, COMDAT
; _this$ = ecx

; 225  : 	{

  00000	55		 push	 ebp
  00001	8b ec		 mov	 ebp, esp

; 226  : 		type value = inValue;

  00003	8a 45 08	 mov	 al, BYTE PTR _inValue$[ebp]
  00006	88 45 0b	 mov	 BYTE PTR _value$[ebp], al

; 227  : 		EncryptValueToPool((char*)&value);

  00009	8d 45 0b	 lea	 eax, DWORD PTR _value$[ebp]
  0000c	50		 push	 eax
  0000d	e8 00 00 00 00	 call	 ?EncryptValueToPool@?$CEncrypt@_N@@AAEXPBD@Z ; CEncrypt<bool>::EncryptValueToPool

; 228  : #ifdef _NOTUSE
; 229  : 		m_value = inValue;
; 230  : 		Debug();
; 231  : #endif
; 232  : 		return value;

  00012	8a 45 0b	 mov	 al, BYTE PTR _value$[ebp]

; 233  : 	}

  00015	5d		 pop	 ebp
  00016	c2 04 00	 ret	 4
??4?$CEncrypt@_N@@QAE_N_N@Z ENDP			; CEncrypt<bool>::operator=
_TEXT	ENDS
PUBLIC	??0ioTraceWeapon5@@QAE@PAVioBaseChar@@PBUWeaponAttribute@@@Z ; ioTraceWeapon5::ioTraceWeapon5
EXTRN	?SetPeculiarity@ioWeapon@@QAEXK@Z:PROC		; ioWeapon::SetPeculiarity
EXTRN	__imp_??0ioOrientBox@@QAE@XZ:PROC
EXTRN	??0ioWeapon@@QAE@PAVioBaseChar@@PBUWeaponAttribute@@@Z:PROC ; ioWeapon::ioWeapon
;	COMDAT xdata$x
; File c:\program files (x86)\microsoft directx sdk (june 2010)\include\d3dx9math.h
xdata$x	SEGMENT
__ehfuncinfo$??0ioTraceWeapon5@@QAE@PAVioBaseChar@@PBUWeaponAttribute@@@Z DD 019930522H
	DD	0eH
	DD	FLAT:__unwindtable$??0ioTraceWeapon5@@QAE@PAVioBaseChar@@PBUWeaponAttribute@@@Z
	DD	2 DUP(00H)
	DD	2 DUP(00H)
	DD	00H
	DD	01H
__unwindtable$??0ioTraceWeapon5@@QAE@PAVioBaseChar@@PBUWeaponAttribute@@@Z DD 0ffffffffH
	DD	FLAT:__unwindfunclet$??0ioTraceWeapon5@@QAE@PAVioBaseChar@@PBUWeaponAttribute@@@Z$0
	DD	00H
	DD	FLAT:__unwindfunclet$??0ioTraceWeapon5@@QAE@PAVioBaseChar@@PBUWeaponAttribute@@@Z$1
	DD	01H
	DD	FLAT:__unwindfunclet$??0ioTraceWeapon5@@QAE@PAVioBaseChar@@PBUWeaponAttribute@@@Z$2
	DD	02H
	DD	FLAT:__unwindfunclet$??0ioTraceWeapon5@@QAE@PAVioBaseChar@@PBUWeaponAttribute@@@Z$3
	DD	03H
	DD	FLAT:__unwindfunclet$??0ioTraceWeapon5@@QAE@PAVioBaseChar@@PBUWeaponAttribute@@@Z$4
	DD	04H
	DD	FLAT:__unwindfunclet$??0ioTraceWeapon5@@QAE@PAVioBaseChar@@PBUWeaponAttribute@@@Z$5
	DD	05H
	DD	FLAT:__unwindfunclet$??0ioTraceWeapon5@@QAE@PAVioBaseChar@@PBUWeaponAttribute@@@Z$6
	DD	06H
	DD	FLAT:__unwindfunclet$??0ioTraceWeapon5@@QAE@PAVioBaseChar@@PBUWeaponAttribute@@@Z$7
	DD	07H
	DD	FLAT:__unwindfunclet$??0ioTraceWeapon5@@QAE@PAVioBaseChar@@PBUWeaponAttribute@@@Z$8
	DD	08H
	DD	FLAT:__unwindfunclet$??0ioTraceWeapon5@@QAE@PAVioBaseChar@@PBUWeaponAttribute@@@Z$9
	DD	09H
	DD	FLAT:__unwindfunclet$??0ioTraceWeapon5@@QAE@PAVioBaseChar@@PBUWeaponAttribute@@@Z$10
	DD	0aH
	DD	FLAT:__unwindfunclet$??0ioTraceWeapon5@@QAE@PAVioBaseChar@@PBUWeaponAttribute@@@Z$11
	DD	0bH
	DD	FLAT:__unwindfunclet$??0ioTraceWeapon5@@QAE@PAVioBaseChar@@PBUWeaponAttribute@@@Z$12
	DD	0cH
	DD	FLAT:__unwindfunclet$??0ioTraceWeapon5@@QAE@PAVioBaseChar@@PBUWeaponAttribute@@@Z$13
; Function compile flags: /Ogsp
; File d:\lost saga for developer\youtube\tutorial\source\src\lsclient\iotraceweapon5.cpp
xdata$x	ENDS
;	COMDAT ??0ioTraceWeapon5@@QAE@PAVioBaseChar@@PBUWeaponAttribute@@@Z
_TEXT	SEGMENT
_this$ = -16						; size = 4
__$EHRec$ = -12						; size = 12
_pOwner$ = 8						; size = 4
_pAttr$ = 12						; size = 4
??0ioTraceWeapon5@@QAE@PAVioBaseChar@@PBUWeaponAttribute@@@Z PROC ; ioTraceWeapon5::ioTraceWeapon5, COMDAT
; _this$ = ecx

; 15   : {

  00000	6a 04		 push	 4
  00002	b8 00 00 00 00	 mov	 eax, __ehhandler$??0ioTraceWeapon5@@QAE@PAVioBaseChar@@PBUWeaponAttribute@@@Z
  00007	e8 00 00 00 00	 call	 __EH_prolog3
  0000c	8b d9		 mov	 ebx, ecx
  0000e	89 5d f0	 mov	 DWORD PTR _this$[ebp], ebx
  00011	ff 75 0c	 push	 DWORD PTR _pAttr$[ebp]
  00014	ff 75 08	 push	 DWORD PTR _pOwner$[ebp]
  00017	e8 00 00 00 00	 call	 ??0ioWeapon@@QAE@PAVioBaseChar@@PBUWeaponAttribute@@@Z ; ioWeapon::ioWeapon
  0001c	8b 35 00 00 00
	00		 mov	 esi, DWORD PTR __imp_??0ioHashString@@QAE@XZ
  00022	33 ff		 xor	 edi, edi
  00024	8d 8b 98 08 00
	00		 lea	 ecx, DWORD PTR [ebx+2200]
  0002a	89 7d fc	 mov	 DWORD PTR __$EHRec$[ebp+8], edi
  0002d	c7 03 00 00 00
	00		 mov	 DWORD PTR [ebx], OFFSET ??_7ioTraceWeapon5@@6B@
  00033	ff d6		 call	 esi
  00035	8d 8b a8 08 00
	00		 lea	 ecx, DWORD PTR [ebx+2216]
  0003b	c6 45 fc 01	 mov	 BYTE PTR __$EHRec$[ebp+8], 1
  0003f	e8 00 00 00 00	 call	 ??0?$CEncrypt@M@@QAE@XZ	; CEncrypt<float>::CEncrypt<float>
  00044	8d 8b d8 08 00
	00		 lea	 ecx, DWORD PTR [ebx+2264]
  0004a	c6 45 fc 02	 mov	 BYTE PTR __$EHRec$[ebp+8], 2
  0004e	e8 00 00 00 00	 call	 ??0?$CEncrypt@M@@QAE@XZ	; CEncrypt<float>::CEncrypt<float>
  00053	8d 8b 14 09 00
	00		 lea	 ecx, DWORD PTR [ebx+2324]
  00059	c6 45 fc 03	 mov	 BYTE PTR __$EHRec$[ebp+8], 3
  0005d	e8 00 00 00 00	 call	 ??0?$CEncrypt@M@@QAE@XZ	; CEncrypt<float>::CEncrypt<float>
  00062	8d 8b 44 09 00
	00		 lea	 ecx, DWORD PTR [ebx+2372]
  00068	c6 45 fc 04	 mov	 BYTE PTR __$EHRec$[ebp+8], 4
  0006c	e8 00 00 00 00	 call	 ??0?$CEncrypt@M@@QAE@XZ	; CEncrypt<float>::CEncrypt<float>
  00071	8d 8b 78 09 00
	00		 lea	 ecx, DWORD PTR [ebx+2424]
  00077	c6 45 fc 05	 mov	 BYTE PTR __$EHRec$[ebp+8], 5
  0007b	e8 00 00 00 00	 call	 ??0?$CEncrypt@M@@QAE@XZ	; CEncrypt<float>::CEncrypt<float>
  00080	8d 8b a8 09 00
	00		 lea	 ecx, DWORD PTR [ebx+2472]
  00086	c6 45 fc 06	 mov	 BYTE PTR __$EHRec$[ebp+8], 6
  0008a	e8 00 00 00 00	 call	 ??0?$CEncrypt@M@@QAE@XZ	; CEncrypt<float>::CEncrypt<float>
  0008f	8d 8b d8 09 00
	00		 lea	 ecx, DWORD PTR [ebx+2520]
  00095	c6 45 fc 07	 mov	 BYTE PTR __$EHRec$[ebp+8], 7
  00099	e8 00 00 00 00	 call	 ??0?$CEncrypt@M@@QAE@XZ	; CEncrypt<float>::CEncrypt<float>
  0009e	8d 8b 08 0a 00
	00		 lea	 ecx, DWORD PTR [ebx+2568]
  000a4	c6 45 fc 08	 mov	 BYTE PTR __$EHRec$[ebp+8], 8
  000a8	e8 00 00 00 00	 call	 ??0?$CEncrypt@M@@QAE@XZ	; CEncrypt<float>::CEncrypt<float>
  000ad	8d 8b 50 0a 00
	00		 lea	 ecx, DWORD PTR [ebx+2640]
  000b3	c6 45 fc 09	 mov	 BYTE PTR __$EHRec$[ebp+8], 9
  000b7	ff d6		 call	 esi
  000b9	8d 8b 60 0a 00
	00		 lea	 ecx, DWORD PTR [ebx+2656]
  000bf	c6 45 fc 0a	 mov	 BYTE PTR __$EHRec$[ebp+8], 10 ; 0000000aH
  000c3	e8 00 00 00 00	 call	 ??0?$CEncrypt@K@@QAE@XZ	; CEncrypt<unsigned long>::CEncrypt<unsigned long>
  000c8	8d 8b 98 0a 00
	00		 lea	 ecx, DWORD PTR [ebx+2712]
  000ce	c6 45 fc 0b	 mov	 BYTE PTR __$EHRec$[ebp+8], 11 ; 0000000bH
  000d2	ff 15 00 00 00
	00		 call	 DWORD PTR __imp_??0ioOrientBox@@QAE@XZ
  000d8	8d 8b dc 0a 00
	00		 lea	 ecx, DWORD PTR [ebx+2780]
  000de	c6 45 fc 0c	 mov	 BYTE PTR __$EHRec$[ebp+8], 12 ; 0000000cH
  000e2	e8 00 00 00 00	 call	 ??0?$CEncrypt@_N@@QAE@XZ ; CEncrypt<bool>::CEncrypt<bool>

; 16   : 	SetPeculiarity( WP_ONE_TIME_USE | WP_MISSILE_WEAPON | WP_DIVIDE_ACTION );

  000e7	68 03 01 00 00	 push	 259			; 00000103H
  000ec	8b cb		 mov	 ecx, ebx
  000ee	c6 45 fc 0d	 mov	 BYTE PTR __$EHRec$[ebp+8], 13 ; 0000000dH
  000f2	e8 00 00 00 00	 call	 ?SetPeculiarity@ioWeapon@@QAEXK@Z ; ioWeapon::SetPeculiarity

; 17   : 
; 18   : 	m_pFireBall = NULL;
; 19   : 	m_State = TS_ROTATE;
; 20   : 	
; 21   : 	m_fCurMoveSpeed = 0.0f;

  000f7	0f 57 c0	 xorps	 xmm0, xmm0
  000fa	89 bb 94 0a 00
	00		 mov	 DWORD PTR [ebx+2708], edi
  00100	89 bb 94 08 00
	00		 mov	 DWORD PTR [ebx+2196], edi

; 22   : 	m_fCurMoveRange = 0.0f;
; 23   : 
; 24   : 	m_dwTraceEndTime = 0;

  00106	89 bb 90 0a 00
	00		 mov	 DWORD PTR [ebx+2704], edi
  0010c	f3 0f 11 83 08
	09 00 00	 movss	 DWORD PTR [ebx+2312], xmm0
  00114	f3 0f 11 83 0c
	09 00 00	 movss	 DWORD PTR [ebx+2316], xmm0

; 25   : 
; 26   : 	m_bResistance = false;

  0011c	c6 83 3c 06 00
	00 00		 mov	 BYTE PTR [ebx+1596], 0

; 27   : 	m_vMoveDir = ioMath::VEC3_ZERO;

  00123	8b 35 00 00 00
	00		 mov	 esi, DWORD PTR __imp_?VEC3_ZERO@ioMath@@2UD3DXVECTOR3@@A
  00129	8d bb 44 0a 00
	00		 lea	 edi, DWORD PTR [ebx+2628]
  0012f	a5		 movsd
  00130	a5		 movsd
  00131	a5		 movsd

; 28   : }

  00132	8b c3		 mov	 eax, ebx
  00134	e8 00 00 00 00	 call	 __EH_epilog3
  00139	c2 08 00	 ret	 8
_TEXT	ENDS
;	COMDAT text$x
text$x	SEGMENT
__unwindfunclet$??0ioTraceWeapon5@@QAE@PAVioBaseChar@@PBUWeaponAttribute@@@Z$0:
  00000	8b 4d f0	 mov	 ecx, DWORD PTR _this$[ebp]
  00003	e9 00 00 00 00	 jmp	 ??1ioWeapon@@UAE@XZ	; ioWeapon::~ioWeapon
__unwindfunclet$??0ioTraceWeapon5@@QAE@PAVioBaseChar@@PBUWeaponAttribute@@@Z$1:
  00008	8b 4d f0	 mov	 ecx, DWORD PTR _this$[ebp]
  0000b	81 c1 98 08 00
	00		 add	 ecx, 2200		; 00000898H
  00011	ff 25 00 00 00
	00		 jmp	 DWORD PTR __imp_??1ioHashString@@QAE@XZ
__unwindfunclet$??0ioTraceWeapon5@@QAE@PAVioBaseChar@@PBUWeaponAttribute@@@Z$2:
  00017	8b 4d f0	 mov	 ecx, DWORD PTR _this$[ebp]
  0001a	81 c1 a8 08 00
	00		 add	 ecx, 2216		; 000008a8H
  00020	e9 00 00 00 00	 jmp	 ??1?$CEncrypt@M@@UAE@XZ	; CEncrypt<float>::~CEncrypt<float>
__unwindfunclet$??0ioTraceWeapon5@@QAE@PAVioBaseChar@@PBUWeaponAttribute@@@Z$3:
  00025	8b 4d f0	 mov	 ecx, DWORD PTR _this$[ebp]
  00028	81 c1 d8 08 00
	00		 add	 ecx, 2264		; 000008d8H
  0002e	e9 00 00 00 00	 jmp	 ??1?$CEncrypt@M@@UAE@XZ	; CEncrypt<float>::~CEncrypt<float>
__unwindfunclet$??0ioTraceWeapon5@@QAE@PAVioBaseChar@@PBUWeaponAttribute@@@Z$4:
  00033	8b 4d f0	 mov	 ecx, DWORD PTR _this$[ebp]
  00036	81 c1 14 09 00
	00		 add	 ecx, 2324		; 00000914H
  0003c	e9 00 00 00 00	 jmp	 ??1?$CEncrypt@M@@UAE@XZ	; CEncrypt<float>::~CEncrypt<float>
__unwindfunclet$??0ioTraceWeapon5@@QAE@PAVioBaseChar@@PBUWeaponAttribute@@@Z$5:
  00041	8b 4d f0	 mov	 ecx, DWORD PTR _this$[ebp]
  00044	81 c1 44 09 00
	00		 add	 ecx, 2372		; 00000944H
  0004a	e9 00 00 00 00	 jmp	 ??1?$CEncrypt@M@@UAE@XZ	; CEncrypt<float>::~CEncrypt<float>
__unwindfunclet$??0ioTraceWeapon5@@QAE@PAVioBaseChar@@PBUWeaponAttribute@@@Z$6:
  0004f	8b 4d f0	 mov	 ecx, DWORD PTR _this$[ebp]
  00052	81 c1 78 09 00
	00		 add	 ecx, 2424		; 00000978H
  00058	e9 00 00 00 00	 jmp	 ??1?$CEncrypt@M@@UAE@XZ	; CEncrypt<float>::~CEncrypt<float>
__unwindfunclet$??0ioTraceWeapon5@@QAE@PAVioBaseChar@@PBUWeaponAttribute@@@Z$7:
  0005d	8b 4d f0	 mov	 ecx, DWORD PTR _this$[ebp]
  00060	81 c1 a8 09 00
	00		 add	 ecx, 2472		; 000009a8H
  00066	e9 00 00 00 00	 jmp	 ??1?$CEncrypt@M@@UAE@XZ	; CEncrypt<float>::~CEncrypt<float>
__unwindfunclet$??0ioTraceWeapon5@@QAE@PAVioBaseChar@@PBUWeaponAttribute@@@Z$8:
  0006b	8b 4d f0	 mov	 ecx, DWORD PTR _this$[ebp]
  0006e	81 c1 d8 09 00
	00		 add	 ecx, 2520		; 000009d8H
  00074	e9 00 00 00 00	 jmp	 ??1?$CEncrypt@M@@UAE@XZ	; CEncrypt<float>::~CEncrypt<float>
__unwindfunclet$??0ioTraceWeapon5@@QAE@PAVioBaseChar@@PBUWeaponAttribute@@@Z$9:
  00079	8b 4d f0	 mov	 ecx, DWORD PTR _this$[ebp]
  0007c	81 c1 08 0a 00
	00		 add	 ecx, 2568		; 00000a08H
  00082	e9 00 00 00 00	 jmp	 ??1?$CEncrypt@M@@UAE@XZ	; CEncrypt<float>::~CEncrypt<float>
__unwindfunclet$??0ioTraceWeapon5@@QAE@PAVioBaseChar@@PBUWeaponAttribute@@@Z$10:
  00087	8b 4d f0	 mov	 ecx, DWORD PTR _this$[ebp]
  0008a	81 c1 50 0a 00
	00		 add	 ecx, 2640		; 00000a50H
  00090	ff 25 00 00 00
	00		 jmp	 DWORD PTR __imp_??1ioHashString@@QAE@XZ
__unwindfunclet$??0ioTraceWeapon5@@QAE@PAVioBaseChar@@PBUWeaponAttribute@@@Z$11:
  00096	8b 4d f0	 mov	 ecx, DWORD PTR _this$[ebp]
  00099	81 c1 60 0a 00
	00		 add	 ecx, 2656		; 00000a60H
  0009f	e9 00 00 00 00	 jmp	 ??1?$CEncrypt@K@@UAE@XZ	; CEncrypt<unsigned long>::~CEncrypt<unsigned long>
__unwindfunclet$??0ioTraceWeapon5@@QAE@PAVioBaseChar@@PBUWeaponAttribute@@@Z$12:
  000a4	8b 4d f0	 mov	 ecx, DWORD PTR _this$[ebp]
  000a7	81 c1 98 0a 00
	00		 add	 ecx, 2712		; 00000a98H
  000ad	ff 25 00 00 00
	00		 jmp	 DWORD PTR __imp_??1ioOrientBox@@QAE@XZ
__unwindfunclet$??0ioTraceWeapon5@@QAE@PAVioBaseChar@@PBUWeaponAttribute@@@Z$13:
  000b3	8b 4d f0	 mov	 ecx, DWORD PTR _this$[ebp]
  000b6	81 c1 dc 0a 00
	00		 add	 ecx, 2780		; 00000adcH
  000bc	e9 00 00 00 00	 jmp	 ??1?$CEncrypt@_N@@UAE@XZ ; CEncrypt<bool>::~CEncrypt<bool>
__ehhandler$??0ioTraceWeapon5@@QAE@PAVioBaseChar@@PBUWeaponAttribute@@@Z:
  000c1	8b 54 24 08	 mov	 edx, DWORD PTR [esp+8]
  000c5	8d 42 0c	 lea	 eax, DWORD PTR [edx+12]
  000c8	8b 4a ec	 mov	 ecx, DWORD PTR [edx-20]
  000cb	33 c8		 xor	 ecx, eax
  000cd	e8 00 00 00 00	 call	 @__security_check_cookie@4
  000d2	b8 00 00 00 00	 mov	 eax, OFFSET __ehfuncinfo$??0ioTraceWeapon5@@QAE@PAVioBaseChar@@PBUWeaponAttribute@@@Z
  000d7	e9 00 00 00 00	 jmp	 ___CxxFrameHandler3
text$x	ENDS
??0ioTraceWeapon5@@QAE@PAVioBaseChar@@PBUWeaponAttribute@@@Z ENDP ; ioTraceWeapon5::ioTraceWeapon5
; Function compile flags: /Ogsp
;	COMDAT ??_GioTraceWeapon5@@UAEPAXI@Z
_TEXT	SEGMENT
___flags$ = 8						; size = 4
??_GioTraceWeapon5@@UAEPAXI@Z PROC			; ioTraceWeapon5::`scalar deleting destructor', COMDAT
; _this$ = ecx
  00000	55		 push	 ebp
  00001	8b ec		 mov	 ebp, esp
  00003	56		 push	 esi
  00004	8b f1		 mov	 esi, ecx
  00006	e8 00 00 00 00	 call	 ??1ioTraceWeapon5@@UAE@XZ ; ioTraceWeapon5::~ioTraceWeapon5
  0000b	f6 45 08 01	 test	 BYTE PTR ___flags$[ebp], 1
  0000f	74 07		 je	 SHORT $LN1@scalar@4
  00011	56		 push	 esi
  00012	e8 00 00 00 00	 call	 ??3@YAXPAX@Z		; operator delete
  00017	59		 pop	 ecx
$LN1@scalar@4:
  00018	8b c6		 mov	 eax, esi
  0001a	5e		 pop	 esi
  0001b	5d		 pop	 ebp
  0001c	c2 04 00	 ret	 4
??_GioTraceWeapon5@@UAEPAXI@Z ENDP			; ioTraceWeapon5::`scalar deleting destructor'
_TEXT	ENDS
PUBLIC	__real@4f800000
PUBLIC	??_C@_00CNPNBAHC@?$AA@				; `string'
PUBLIC	__$ArrayPad$
EXTRN	__imp_??4ioHashString@@QAEAAV0@PBD@Z:PROC
EXTRN	?LoadProperty@ioWeapon@@UAEXAAVioINILoader@@@Z:PROC ; ioWeapon::LoadProperty
EXTRN	_memset:PROC
;	COMDAT __real@4f800000
; File d:\lost saga for developer\youtube\tutorial\source\src\lsclient\stringprotect.h
CONST	SEGMENT
__real@4f800000 DD 04f800000r			; 4.29497e+009
CONST	ENDS
;	COMDAT ??_C@_00CNPNBAHC@?$AA@
CONST	SEGMENT
??_C@_00CNPNBAHC@?$AA@ DB 00H				; `string'
; Function compile flags: /Ogsp
; File d:\lost saga for developer\youtube\tutorial\source\src\lsclient\iotraceweapon5.cpp
CONST	ENDS
;	COMDAT ?LoadProperty@ioTraceWeapon5@@UAEXAAVioINILoader@@@Z
_TEXT	SEGMENT
tv12034 = -308						; size = 4
tv12030 = -308						; size = 4
_value$535571 = -301					; size = 1
tv12026 = -300						; size = 4
_value$535440 = -300					; size = 4
_value$535310 = -300					; size = 4
$T535182 = -300						; size = 4
_value$535173 = -300					; size = 4
_value$535043 = -300					; size = 4
_value$534913 = -300					; size = 4
_value$534783 = -300					; size = 4
_value$534653 = -300					; size = 4
_value$534397 = -300					; size = 4
_szBuf$ = -296						; size = 260
__k$535373 = -36					; size = 27
__k$535601 = -32					; size = 23
__k$535458 = -32					; size = 20
__k$535211 = -32					; size = 22
__k$535073 = -28					; size = 16
__k$534813 = -28					; size = 19
__k$534415 = -28					; size = 18
__k$534943 = -24					; size = 15
__k$534683 = -24					; size = 12
__k$534551 = -24					; size = 12
__k$534317 = -24					; size = 13
__k$534173 = -20					; size = 10
__k$534048 = -20					; size = 11
__$ArrayPad$ = -4					; size = 4
_rkLoader$ = 8						; size = 4
?LoadProperty@ioTraceWeapon5@@UAEXAAVioINILoader@@@Z PROC ; ioTraceWeapon5::LoadProperty, COMDAT
; _this$ = ecx

; 39   : {

  00000	55		 push	 ebp
  00001	8b ec		 mov	 ebp, esp
  00003	81 ec 34 01 00
	00		 sub	 esp, 308		; 00000134H
  00009	a1 00 00 00 00	 mov	 eax, DWORD PTR ___security_cookie
  0000e	33 c5		 xor	 eax, ebp
  00010	89 45 fc	 mov	 DWORD PTR __$ArrayPad$[ebp], eax
  00013	53		 push	 ebx
  00014	56		 push	 esi
  00015	57		 push	 edi
  00016	8b 7d 08	 mov	 edi, DWORD PTR _rkLoader$[ebp]

; 40   : 	ioWeapon::LoadProperty( rkLoader );

  00019	57		 push	 edi
  0001a	8b f1		 mov	 esi, ecx
  0001c	e8 00 00 00 00	 call	 ?LoadProperty@ioWeapon@@UAEXAAVioINILoader@@@Z ; ioWeapon::LoadProperty

; 41   : 
; 42   : 	char szBuf[MAX_PATH] = "";

  00021	33 db		 xor	 ebx, ebx
  00023	68 03 01 00 00	 push	 259			; 00000103H
  00028	8d 85 d9 fe ff
	ff		 lea	 eax, DWORD PTR _szBuf$[ebp+1]
  0002e	53		 push	 ebx
  0002f	50		 push	 eax
  00030	88 9d d8 fe ff
	ff		 mov	 BYTE PTR _szBuf$[ebp], bl
  00036	e8 00 00 00 00	 call	 _memset
  0003b	83 c4 0c	 add	 esp, 12			; 0000000cH

; 43   : 
; 44   : 	rkLoader.LoadString_e( "fire_sound", "", szBuf, MAX_PATH );

  0003e	6a 02		 push	 2
  00040	c7 45 ec 8b 85
	99 8f		 mov	 DWORD PTR __k$534048[ebp], -1885764213 ; 8f99858bH
  00047	c7 45 f0 b2 9f
	84 9f		 mov	 DWORD PTR __k$534048[ebp+4], -1618698318 ; 9f849fb2H
  0004e	66 c7 45 f4 83
	88		 mov	 WORD PTR __k$534048[ebp+8], 34947 ; 00008883H
  00054	8d 45 ec	 lea	 eax, DWORD PTR __k$534048[ebp]
  00057	88 5d f6	 mov	 BYTE PTR __k$534048[ebp+10], bl
  0005a	59		 pop	 ecx
$LL106@LoadProper:
  0005b	81 30 ed ec eb
	ea		 xor	 DWORD PTR [eax], -353637139 ; eaebecedH
  00061	83 c0 04	 add	 eax, 4
  00064	49		 dec	 ecx
  00065	75 f4		 jne	 SHORT $LL106@LoadProper
  00067	6a 08		 push	 8
  00069	58		 pop	 eax
$LL103@LoadProper:
  0006a	8b c8		 mov	 ecx, eax
  0006c	81 e1 03 00 00
	80		 and	 ecx, -2147483645	; 80000003H
  00072	79 05		 jns	 SHORT $LN1455@LoadProper
  00074	49		 dec	 ecx
  00075	83 c9 fc	 or	 ecx, -4			; fffffffcH
  00078	41		 inc	 ecx
$LN1455@LoadProper:
  00079	b2 ed		 mov	 dl, -19			; ffffffedH
  0007b	2a d1		 sub	 dl, cl
  0007d	30 54 05 ec	 xor	 BYTE PTR __k$534048[ebp+eax], dl
  00081	40		 inc	 eax
  00082	83 f8 0a	 cmp	 eax, 10			; 0000000aH
  00085	7c e3		 jl	 SHORT $LL103@LoadProper
  00087	68 04 01 00 00	 push	 260			; 00000104H
  0008c	8d 85 d8 fe ff
	ff		 lea	 eax, DWORD PTR _szBuf$[ebp]
  00092	50		 push	 eax
  00093	68 00 00 00 00	 push	 OFFSET ??_C@_00CNPNBAHC@?$AA@
  00098	8d 45 ec	 lea	 eax, DWORD PTR __k$534048[ebp]
  0009b	50		 push	 eax
  0009c	8b cf		 mov	 ecx, edi
  0009e	ff 15 00 00 00
	00		 call	 DWORD PTR __imp_?LoadStringA@ioINILoader@@QAEXPBD0PADH@Z

; 45   : 	m_FireSound = szBuf;

  000a4	8d 85 d8 fe ff
	ff		 lea	 eax, DWORD PTR _szBuf$[ebp]
  000aa	50		 push	 eax
  000ab	8d 8e 98 08 00
	00		 lea	 ecx, DWORD PTR [esi+2200]
  000b1	ff 15 00 00 00
	00		 call	 DWORD PTR __imp_??4ioHashString@@QAEAAV0@PBD@Z
  000b7	6a 02		 push	 2

; 46   : 
; 47   : 	m_dwLiveTime = rkLoader.LoadInt_e( "live_time", 0 );

  000b9	c7 45 ec 81 85
	9d 8f		 mov	 DWORD PTR __k$534173[ebp], -1885502079 ; 8f9d8581H
  000c0	c7 45 f0 b2 98
	82 87		 mov	 DWORD PTR __k$534173[ebp+4], -2021484366 ; 878298b2H
  000c7	8d 45 ec	 lea	 eax, DWORD PTR __k$534173[ebp]
  000ca	66 c7 45 f4 88
	00		 mov	 WORD PTR __k$534173[ebp+8], 136 ; 00000088H
  000d0	59		 pop	 ecx
$LL212@LoadProper:
  000d1	81 30 ed ec eb
	ea		 xor	 DWORD PTR [eax], -353637139 ; eaebecedH
  000d7	83 c0 04	 add	 eax, 4
  000da	49		 dec	 ecx
  000db	75 f4		 jne	 SHORT $LL212@LoadProper
  000dd	80 75 f4 ed	 xor	 BYTE PTR __k$534173[ebp+8], -19 ; ffffffedH
  000e1	53		 push	 ebx
  000e2	8d 45 ec	 lea	 eax, DWORD PTR __k$534173[ebp]
  000e5	50		 push	 eax
  000e6	8b cf		 mov	 ecx, edi
  000e8	ff 15 00 00 00
	00		 call	 DWORD PTR __imp_?LoadInt@ioINILoader@@QAEHPBDH@Z
  000ee	6a 03		 push	 3
  000f0	89 86 d8 04 00
	00		 mov	 DWORD PTR [esi+1240], eax

; 48   : 
; 49   : 	// Rotate
; 50   : 	m_fRotateSpeed = rkLoader.LoadFloat_e( "rotate_speed", 0.0f );

  000f6	c7 45 e8 9f 83
	9f 8b		 mov	 DWORD PTR __k$534317[ebp], -1952480353 ; 8b9f839fH
  000fd	c7 45 ec 99 89
	b4 99		 mov	 DWORD PTR __k$534317[ebp+4], -1716221543 ; 99b48999H
  00104	c7 45 f0 9d 89
	8e 8e		 mov	 DWORD PTR __k$534317[ebp+8], -1903261283 ; 8e8e899dH
  0010b	8d 45 e8	 lea	 eax, DWORD PTR __k$534317[ebp]
  0010e	88 5d f4	 mov	 BYTE PTR __k$534317[ebp+12], bl
  00111	59		 pop	 ecx
$LL318@LoadProper:
  00112	81 30 ed ec eb
	ea		 xor	 DWORD PTR [eax], -353637139 ; eaebecedH
  00118	83 c0 04	 add	 eax, 4
  0011b	49		 dec	 ecx
  0011c	75 f4		 jne	 SHORT $LL318@LoadProper
  0011e	0f 57 c0	 xorps	 xmm0, xmm0
  00121	51		 push	 ecx
  00122	8d 45 e8	 lea	 eax, DWORD PTR __k$534317[ebp]
  00125	f3 0f 11 04 24	 movss	 DWORD PTR [esp], xmm0
  0012a	50		 push	 eax
  0012b	8b cf		 mov	 ecx, edi
  0012d	ff 15 00 00 00
	00		 call	 DWORD PTR __imp_?LoadFloat@ioINILoader@@QAEMPBDM@Z
  00133	d9 9d d4 fe ff
	ff		 fstp	 DWORD PTR _value$534397[ebp]
  00139	8d 85 d4 fe ff
	ff		 lea	 eax, DWORD PTR _value$534397[ebp]
  0013f	50		 push	 eax
  00140	8d 8e a8 08 00
	00		 lea	 ecx, DWORD PTR [esi+2216]
  00146	e8 00 00 00 00	 call	 ?EncryptValueToPool@?$CEncrypt@M@@AAEXPBD@Z ; CEncrypt<float>::EncryptValueToPool
  0014b	6a 04		 push	 4

; 51   : 
; 52   : 	// Tracing
; 53   : 	m_dwTraceEnableTime = rkLoader.LoadInt_e( "trace_enable_time", 0 );

  0014d	c7 45 e4 99 9e
	8a 89		 mov	 DWORD PTR __k$534415[ebp], -1987404135 ; 898a9e99H
  00154	c7 45 e8 88 b3
	8e 84		 mov	 DWORD PTR __k$534415[ebp+4], -2071022712 ; 848eb388H
  0015b	c7 45 ec 8c 8e
	87 8f		 mov	 DWORD PTR __k$534415[ebp+8], -1886941556 ; 8f878e8cH
  00162	c7 45 f0 b2 98
	82 87		 mov	 DWORD PTR __k$534415[ebp+12], -2021484366 ; 878298b2H
  00169	8d 45 e4	 lea	 eax, DWORD PTR __k$534415[ebp]
  0016c	66 c7 45 f4 88
	00		 mov	 WORD PTR __k$534415[ebp+16], 136 ; 00000088H
  00172	59		 pop	 ecx
$LL426@LoadProper:
  00173	81 30 ed ec eb
	ea		 xor	 DWORD PTR [eax], -353637139 ; eaebecedH
  00179	83 c0 04	 add	 eax, 4
  0017c	49		 dec	 ecx
  0017d	75 f4		 jne	 SHORT $LL426@LoadProper
  0017f	80 75 f4 ed	 xor	 BYTE PTR __k$534415[ebp+16], -19 ; ffffffedH
  00183	53		 push	 ebx
  00184	8d 45 e4	 lea	 eax, DWORD PTR __k$534415[ebp]
  00187	50		 push	 eax
  00188	8b cf		 mov	 ecx, edi
  0018a	ff 15 00 00 00
	00		 call	 DWORD PTR __imp_?LoadInt@ioINILoader@@QAEHPBDH@Z
  00190	6a 02		 push	 2
  00192	89 86 74 09 00
	00		 mov	 DWORD PTR [esi+2420], eax

; 54   : 
; 55   : 	m_fTraceSpeed = rkLoader.LoadFloat_e( "trace_speed", 0.0f );

  00198	c7 45 e8 99 9e
	8a 89		 mov	 DWORD PTR __k$534551[ebp], -1987404135 ; 898a9e99H
  0019f	c7 45 ec 88 b3
	98 9a		 mov	 DWORD PTR __k$534551[ebp+4], -1701268600 ; 9a98b388H
  001a6	8d 45 e8	 lea	 eax, DWORD PTR __k$534551[ebp]
  001a9	c7 45 f0 88 89
	8f 00		 mov	 DWORD PTR __k$534551[ebp+8], 9406856 ; 008f8988H
  001b0	59		 pop	 ecx
$LL532@LoadProper:
  001b1	81 30 ed ec eb
	ea		 xor	 DWORD PTR [eax], -353637139 ; eaebecedH
  001b7	83 c0 04	 add	 eax, 4
  001ba	49		 dec	 ecx
  001bb	75 f4		 jne	 SHORT $LL532@LoadProper
  001bd	6a 08		 push	 8
  001bf	58		 pop	 eax
$LL529@LoadProper:
  001c0	8b c8		 mov	 ecx, eax
  001c2	81 e1 03 00 00
	80		 and	 ecx, -2147483645	; 80000003H
  001c8	79 05		 jns	 SHORT $LN1456@LoadProper
  001ca	49		 dec	 ecx
  001cb	83 c9 fc	 or	 ecx, -4			; fffffffcH
  001ce	41		 inc	 ecx
$LN1456@LoadProper:
  001cf	b2 ed		 mov	 dl, -19			; ffffffedH
  001d1	2a d1		 sub	 dl, cl
  001d3	30 54 05 e8	 xor	 BYTE PTR __k$534551[ebp+eax], dl
  001d7	40		 inc	 eax
  001d8	83 f8 0b	 cmp	 eax, 11			; 0000000bH
  001db	7c e3		 jl	 SHORT $LL529@LoadProper
  001dd	0f 57 c0	 xorps	 xmm0, xmm0
  001e0	51		 push	 ecx
  001e1	8d 45 e8	 lea	 eax, DWORD PTR __k$534551[ebp]
  001e4	f3 0f 11 04 24	 movss	 DWORD PTR [esp], xmm0
  001e9	50		 push	 eax
  001ea	8b cf		 mov	 ecx, edi
  001ec	ff 15 00 00 00
	00		 call	 DWORD PTR __imp_?LoadFloat@ioINILoader@@QAEMPBDM@Z
  001f2	d9 9d d4 fe ff
	ff		 fstp	 DWORD PTR _value$534653[ebp]
  001f8	8d 85 d4 fe ff
	ff		 lea	 eax, DWORD PTR _value$534653[ebp]
  001fe	50		 push	 eax
  001ff	8d 8e 78 09 00
	00		 lea	 ecx, DWORD PTR [esi+2424]
  00205	e8 00 00 00 00	 call	 ?EncryptValueToPool@?$CEncrypt@M@@AAEXPBD@Z ; CEncrypt<float>::EncryptValueToPool
  0020a	6a 02		 push	 2

; 56   : 	m_fTraceRange = rkLoader.LoadFloat_e( "trace_range", 0.0f );

  0020c	c7 45 e8 99 9e
	8a 89		 mov	 DWORD PTR __k$534683[ebp], -1987404135 ; 898a9e99H
  00213	c7 45 ec 88 b3
	99 8b		 mov	 DWORD PTR __k$534683[ebp+4], -1952861304 ; 8b99b388H
  0021a	8d 45 e8	 lea	 eax, DWORD PTR __k$534683[ebp]
  0021d	c7 45 f0 83 8b
	8e 00		 mov	 DWORD PTR __k$534683[ebp+8], 9341827 ; 008e8b83H
  00224	59		 pop	 ecx
$LL640@LoadProper:
  00225	81 30 ed ec eb
	ea		 xor	 DWORD PTR [eax], -353637139 ; eaebecedH
  0022b	83 c0 04	 add	 eax, 4
  0022e	49		 dec	 ecx
  0022f	75 f4		 jne	 SHORT $LL640@LoadProper
  00231	6a 08		 push	 8
  00233	58		 pop	 eax
$LL637@LoadProper:
  00234	8b c8		 mov	 ecx, eax
  00236	81 e1 03 00 00
	80		 and	 ecx, -2147483645	; 80000003H
  0023c	79 05		 jns	 SHORT $LN1457@LoadProper
  0023e	49		 dec	 ecx
  0023f	83 c9 fc	 or	 ecx, -4			; fffffffcH
  00242	41		 inc	 ecx
$LN1457@LoadProper:
  00243	b2 ed		 mov	 dl, -19			; ffffffedH
  00245	2a d1		 sub	 dl, cl
  00247	30 54 05 e8	 xor	 BYTE PTR __k$534683[ebp+eax], dl
  0024b	40		 inc	 eax
  0024c	83 f8 0b	 cmp	 eax, 11			; 0000000bH
  0024f	7c e3		 jl	 SHORT $LL637@LoadProper
  00251	0f 57 c0	 xorps	 xmm0, xmm0
  00254	51		 push	 ecx
  00255	8d 45 e8	 lea	 eax, DWORD PTR __k$534683[ebp]
  00258	f3 0f 11 04 24	 movss	 DWORD PTR [esp], xmm0
  0025d	50		 push	 eax
  0025e	8b cf		 mov	 ecx, edi
  00260	ff 15 00 00 00
	00		 call	 DWORD PTR __imp_?LoadFloat@ioINILoader@@QAEMPBDM@Z
  00266	d9 9d d4 fe ff
	ff		 fstp	 DWORD PTR _value$534783[ebp]
  0026c	8d 85 d4 fe ff
	ff		 lea	 eax, DWORD PTR _value$534783[ebp]
  00272	50		 push	 eax
  00273	8d 8e a8 09 00
	00		 lea	 ecx, DWORD PTR [esi+2472]
  00279	e8 00 00 00 00	 call	 ?EncryptValueToPool@?$CEncrypt@M@@AAEXPBD@Z ; CEncrypt<float>::EncryptValueToPool
  0027e	6a 04		 push	 4

; 57   : 	m_fTraceRotSpeed = rkLoader.LoadFloat_e( "trace_rotate_speed", 0.0f );

  00280	c7 45 e4 99 9e
	8a 89		 mov	 DWORD PTR __k$534813[ebp], -1987404135 ; 898a9e99H
  00287	c7 45 e8 88 b3
	99 85		 mov	 DWORD PTR __k$534813[ebp+4], -2053524600 ; 8599b388H
  0028e	c7 45 ec 99 8d
	9f 8f		 mov	 DWORD PTR __k$534813[ebp+8], -1885368935 ; 8f9f8d99H
  00295	c7 45 f0 b2 9f
	9b 8f		 mov	 DWORD PTR __k$534813[ebp+12], -1885626446 ; 8f9b9fb2H
  0029c	66 c7 45 f4 88
	88		 mov	 WORD PTR __k$534813[ebp+16], 34952 ; 00008888H
  002a2	8d 45 e4	 lea	 eax, DWORD PTR __k$534813[ebp]
  002a5	88 5d f6	 mov	 BYTE PTR __k$534813[ebp+18], bl
  002a8	59		 pop	 ecx
$LL748@LoadProper:
  002a9	81 30 ed ec eb
	ea		 xor	 DWORD PTR [eax], -353637139 ; eaebecedH
  002af	83 c0 04	 add	 eax, 4
  002b2	49		 dec	 ecx
  002b3	75 f4		 jne	 SHORT $LL748@LoadProper
  002b5	6a 10		 push	 16			; 00000010H
  002b7	58		 pop	 eax
$LL745@LoadProper:
  002b8	8b c8		 mov	 ecx, eax
  002ba	81 e1 03 00 00
	80		 and	 ecx, -2147483645	; 80000003H
  002c0	79 05		 jns	 SHORT $LN1458@LoadProper
  002c2	49		 dec	 ecx
  002c3	83 c9 fc	 or	 ecx, -4			; fffffffcH
  002c6	41		 inc	 ecx
$LN1458@LoadProper:
  002c7	b2 ed		 mov	 dl, -19			; ffffffedH
  002c9	2a d1		 sub	 dl, cl
  002cb	30 54 05 e4	 xor	 BYTE PTR __k$534813[ebp+eax], dl
  002cf	40		 inc	 eax
  002d0	83 f8 12	 cmp	 eax, 18			; 00000012H
  002d3	7c e3		 jl	 SHORT $LL745@LoadProper
  002d5	0f 57 c0	 xorps	 xmm0, xmm0
  002d8	51		 push	 ecx
  002d9	8d 45 e4	 lea	 eax, DWORD PTR __k$534813[ebp]
  002dc	f3 0f 11 04 24	 movss	 DWORD PTR [esp], xmm0
  002e1	50		 push	 eax
  002e2	8b cf		 mov	 ecx, edi
  002e4	ff 15 00 00 00
	00		 call	 DWORD PTR __imp_?LoadFloat@ioINILoader@@QAEMPBDM@Z
  002ea	d9 9d d4 fe ff
	ff		 fstp	 DWORD PTR _value$534913[ebp]
  002f0	8d 85 d4 fe ff
	ff		 lea	 eax, DWORD PTR _value$534913[ebp]
  002f6	50		 push	 eax
  002f7	8d 8e d8 09 00
	00		 lea	 ecx, DWORD PTR [esi+2520]
  002fd	e8 00 00 00 00	 call	 ?EncryptValueToPool@?$CEncrypt@M@@AAEXPBD@Z ; CEncrypt<float>::EncryptValueToPool
  00302	6a 03		 push	 3

; 58   : 	m_dwTraceDuration = (DWORD)rkLoader.LoadInt_e( "trace_duration", 0 );

  00304	c7 45 e8 99 9e
	8a 89		 mov	 DWORD PTR __k$534943[ebp], -1987404135 ; 898a9e99H
  0030b	c7 45 ec 88 b3
	8f 9f		 mov	 DWORD PTR __k$534943[ebp+4], -1617972344 ; 9f8fb388H
  00312	c7 45 f0 9f 8d
	9f 83		 mov	 DWORD PTR __k$534943[ebp+8], -2086695521 ; 839f8d9fH
  00319	66 c7 45 f4 82
	82		 mov	 WORD PTR __k$534943[ebp+12], 33410 ; 00008282H
  0031f	8d 45 e8	 lea	 eax, DWORD PTR __k$534943[ebp]
  00322	88 5d f6	 mov	 BYTE PTR __k$534943[ebp+14], bl
  00325	59		 pop	 ecx
$LL856@LoadProper:
  00326	81 30 ed ec eb
	ea		 xor	 DWORD PTR [eax], -353637139 ; eaebecedH
  0032c	83 c0 04	 add	 eax, 4
  0032f	49		 dec	 ecx
  00330	75 f4		 jne	 SHORT $LL856@LoadProper
  00332	6a 0c		 push	 12			; 0000000cH
  00334	58		 pop	 eax
$LL853@LoadProper:
  00335	8b c8		 mov	 ecx, eax
  00337	81 e1 03 00 00
	80		 and	 ecx, -2147483645	; 80000003H
  0033d	79 05		 jns	 SHORT $LN1459@LoadProper
  0033f	49		 dec	 ecx
  00340	83 c9 fc	 or	 ecx, -4			; fffffffcH
  00343	41		 inc	 ecx
$LN1459@LoadProper:
  00344	b2 ed		 mov	 dl, -19			; ffffffedH
  00346	2a d1		 sub	 dl, cl
  00348	30 54 05 e8	 xor	 BYTE PTR __k$534943[ebp+eax], dl
  0034c	40		 inc	 eax
  0034d	83 f8 0e	 cmp	 eax, 14			; 0000000eH
  00350	7c e3		 jl	 SHORT $LL853@LoadProper
  00352	53		 push	 ebx
  00353	8d 45 e8	 lea	 eax, DWORD PTR __k$534943[ebp]
  00356	50		 push	 eax
  00357	8b cf		 mov	 ecx, edi
  00359	ff 15 00 00 00
	00		 call	 DWORD PTR __imp_?LoadInt@ioINILoader@@QAEHPBDH@Z
  0035f	89 85 d4 fe ff
	ff		 mov	 DWORD PTR _value$535043[ebp], eax
  00365	8d 85 d4 fe ff
	ff		 lea	 eax, DWORD PTR _value$535043[ebp]
  0036b	50		 push	 eax
  0036c	8d 8e 60 0a 00
	00		 lea	 ecx, DWORD PTR [esi+2656]
  00372	e8 00 00 00 00	 call	 ?EncryptValueToPool@?$CEncrypt@K@@AAEXPBD@Z ; CEncrypt<unsigned long>::EncryptValueToPool
  00377	6a 03		 push	 3

; 59   : 	m_fTraceEndRange = rkLoader.LoadFloat_e( "trace_end_range", 0.0f );

  00379	c7 45 e4 99 9e
	8a 89		 mov	 DWORD PTR __k$535073[ebp], -1987404135 ; 898a9e99H
  00380	c7 45 e8 88 b3
	8e 84		 mov	 DWORD PTR __k$535073[ebp+4], -2071022712 ; 848eb388H
  00387	c7 45 ec 89 b3
	99 8b		 mov	 DWORD PTR __k$535073[ebp+8], -1952861303 ; 8b99b389H
  0038e	8d 45 e4	 lea	 eax, DWORD PTR __k$535073[ebp]
  00391	c7 45 f0 83 8b
	8e 00		 mov	 DWORD PTR __k$535073[ebp+12], 9341827 ; 008e8b83H
  00398	59		 pop	 ecx
$LL964@LoadProper:
  00399	81 30 ed ec eb
	ea		 xor	 DWORD PTR [eax], -353637139 ; eaebecedH
  0039f	83 c0 04	 add	 eax, 4
  003a2	49		 dec	 ecx
  003a3	75 f4		 jne	 SHORT $LL964@LoadProper
  003a5	6a 0c		 push	 12			; 0000000cH
  003a7	58		 pop	 eax
$LL961@LoadProper:
  003a8	8b c8		 mov	 ecx, eax
  003aa	81 e1 03 00 00
	80		 and	 ecx, -2147483645	; 80000003H
  003b0	79 05		 jns	 SHORT $LN1460@LoadProper
  003b2	49		 dec	 ecx
  003b3	83 c9 fc	 or	 ecx, -4			; fffffffcH
  003b6	41		 inc	 ecx
$LN1460@LoadProper:
  003b7	b2 ed		 mov	 dl, -19			; ffffffedH
  003b9	2a d1		 sub	 dl, cl
  003bb	30 54 05 e4	 xor	 BYTE PTR __k$535073[ebp+eax], dl
  003bf	40		 inc	 eax
  003c0	83 f8 0f	 cmp	 eax, 15			; 0000000fH
  003c3	7c e3		 jl	 SHORT $LL961@LoadProper
  003c5	0f 57 c0	 xorps	 xmm0, xmm0
  003c8	51		 push	 ecx
  003c9	8d 45 e4	 lea	 eax, DWORD PTR __k$535073[ebp]
  003cc	f3 0f 11 04 24	 movss	 DWORD PTR [esp], xmm0
  003d1	50		 push	 eax
  003d2	8b cf		 mov	 ecx, edi
  003d4	ff 15 00 00 00
	00		 call	 DWORD PTR __imp_?LoadFloat@ioINILoader@@QAEMPBDM@Z
  003da	d9 9d d4 fe ff
	ff		 fstp	 DWORD PTR _value$535173[ebp]
  003e0	8d 85 d4 fe ff
	ff		 lea	 eax, DWORD PTR _value$535173[ebp]
  003e6	50		 push	 eax
  003e7	8d 8e 08 0a 00
	00		 lea	 ecx, DWORD PTR [esi+2568]
  003ed	e8 00 00 00 00	 call	 ?EncryptValueToPool@?$CEncrypt@M@@AAEXPBD@Z ; CEncrypt<float>::EncryptValueToPool

; 60   : 
; 61   : 	m_fTargetTracePosRate = rkLoader.LoadFloat_e( "target_trace_pos_rate", FLOAT05 );

  003f2	b8 05 00 00 00	 mov	 eax, 5
  003f7	8b d0		 mov	 edx, eax
  003f9	b8 0a 00 00 00	 mov	 eax, 10			; 0000000aH
  003fe	6a 05		 push	 5
  00400	89 85 d4 fe ff
	ff		 mov	 DWORD PTR $T535182[ebp], eax
  00406	c7 45 e0 99 8d
	99 8d		 mov	 DWORD PTR __k$535211[ebp], -1919316583 ; 8d998d99H
  0040d	c7 45 e4 88 98
	b4 9e		 mov	 DWORD PTR __k$535211[ebp+4], -1632331640 ; 9eb49888H
  00414	c7 45 e8 9f 8d
	88 8f		 mov	 DWORD PTR __k$535211[ebp+8], -1886876257 ; 8f888d9fH
  0041b	c7 45 ec b2 9c
	84 99		 mov	 DWORD PTR __k$535211[ebp+12], -1719362382 ; 99849cb2H
  00422	c7 45 f0 b2 9e
	8a 9e		 mov	 DWORD PTR __k$535211[ebp+16], -1635082574 ; 9e8a9eb2H
  00429	8d 4d e0	 lea	 ecx, DWORD PTR __k$535211[ebp]
  0042c	66 c7 45 f4 88
	00		 mov	 WORD PTR __k$535211[ebp+20], 136 ; 00000088H
  00432	58		 pop	 eax
$LL1076@LoadProper:
  00433	81 31 ed ec eb
	ea		 xor	 DWORD PTR [ecx], -353637139 ; eaebecedH
  00439	83 c1 04	 add	 ecx, 4
  0043c	48		 dec	 eax
  0043d	75 f4		 jne	 SHORT $LL1076@LoadProper
  0043f	80 75 f4 ed	 xor	 BYTE PTR __k$535211[ebp+20], -19 ; ffffffedH
  00443	89 95 cc fe ff
	ff		 mov	 DWORD PTR tv12034[ebp], edx
  00449	db 85 cc fe ff
	ff		 fild	 DWORD PTR tv12034[ebp]
  0044f	85 d2		 test	 edx, edx
  00451	79 06		 jns	 SHORT $LN1461@LoadProper
  00453	d8 05 00 00 00
	00		 fadd	 DWORD PTR __real@4f800000
$LN1461@LoadProper:
  00459	8b 85 d4 fe ff
	ff		 mov	 eax, DWORD PTR $T535182[ebp]
  0045f	db 85 d4 fe ff
	ff		 fild	 DWORD PTR $T535182[ebp]
  00465	85 c0		 test	 eax, eax
  00467	79 06		 jns	 SHORT $LN1462@LoadProper
  00469	d8 05 00 00 00
	00		 fadd	 DWORD PTR __real@4f800000
$LN1462@LoadProper:
  0046f	de f9		 fdivp	 ST(1), ST(0)
  00471	51		 push	 ecx
  00472	8d 45 e0	 lea	 eax, DWORD PTR __k$535211[ebp]
  00475	8b cf		 mov	 ecx, edi
  00477	d9 9d d4 fe ff
	ff		 fstp	 DWORD PTR tv12026[ebp]
  0047d	d9 85 d4 fe ff
	ff		 fld	 DWORD PTR tv12026[ebp]
  00483	d9 1c 24	 fstp	 DWORD PTR [esp]
  00486	50		 push	 eax
  00487	ff 15 00 00 00
	00		 call	 DWORD PTR __imp_?LoadFloat@ioINILoader@@QAEMPBDM@Z
  0048d	d9 9d d4 fe ff
	ff		 fstp	 DWORD PTR _value$535310[ebp]
  00493	8d 85 d4 fe ff
	ff		 lea	 eax, DWORD PTR _value$535310[ebp]
  00499	50		 push	 eax
  0049a	8d 8e 14 09 00
	00		 lea	 ecx, DWORD PTR [esi+2324]
  004a0	e8 00 00 00 00	 call	 ?EncryptValueToPool@?$CEncrypt@M@@AAEXPBD@Z ; CEncrypt<float>::EncryptValueToPool
  004a5	6a 06		 push	 6

; 62   : 	m_fDownTargetTracePosRate = rkLoader.LoadFloat_e( "down_target_trace_pos_rate", 0.0f );

  004a7	c7 45 dc 89 83
	9c 84		 mov	 DWORD PTR __k$535373[ebp], -2070117495 ; 849c8389H
  004ae	c7 45 e0 b2 98
	8a 98		 mov	 DWORD PTR __k$535373[ebp+4], -1735747406 ; 988a98b2H
  004b5	c7 45 e4 8a 89
	9f b5		 mov	 DWORD PTR __k$535373[ebp+8], -1247835766 ; b59f898aH
  004bc	c7 45 e8 99 9e
	8a 89		 mov	 DWORD PTR __k$535373[ebp+12], -1987404135 ; 898a9e99H
  004c3	c7 45 ec 88 b3
	9b 85		 mov	 DWORD PTR __k$535373[ebp+16], -2053393528 ; 859bb388H
  004ca	c7 45 f0 9e b3
	99 8b		 mov	 DWORD PTR __k$535373[ebp+20], -1952861282 ; 8b99b39eH
  004d1	66 c7 45 f4 99
	89		 mov	 WORD PTR __k$535373[ebp+24], 35225 ; 00008999H
  004d7	8d 45 dc	 lea	 eax, DWORD PTR __k$535373[ebp]
  004da	88 5d f6	 mov	 BYTE PTR __k$535373[ebp+26], bl
  004dd	59		 pop	 ecx
$LL1184@LoadProper:
  004de	81 30 ed ec eb
	ea		 xor	 DWORD PTR [eax], -353637139 ; eaebecedH
  004e4	83 c0 04	 add	 eax, 4
  004e7	49		 dec	 ecx
  004e8	75 f4		 jne	 SHORT $LL1184@LoadProper
  004ea	6a 18		 push	 24			; 00000018H
  004ec	58		 pop	 eax
$LL1181@LoadProper:
  004ed	8b c8		 mov	 ecx, eax
  004ef	81 e1 03 00 00
	80		 and	 ecx, -2147483645	; 80000003H
  004f5	79 05		 jns	 SHORT $LN1463@LoadProper
  004f7	49		 dec	 ecx
  004f8	83 c9 fc	 or	 ecx, -4			; fffffffcH
  004fb	41		 inc	 ecx
$LN1463@LoadProper:
  004fc	b2 ed		 mov	 dl, -19			; ffffffedH
  004fe	2a d1		 sub	 dl, cl
  00500	30 54 05 dc	 xor	 BYTE PTR __k$535373[ebp+eax], dl
  00504	40		 inc	 eax
  00505	83 f8 1a	 cmp	 eax, 26			; 0000001aH
  00508	7c e3		 jl	 SHORT $LL1181@LoadProper
  0050a	0f 57 c0	 xorps	 xmm0, xmm0
  0050d	51		 push	 ecx
  0050e	8d 45 dc	 lea	 eax, DWORD PTR __k$535373[ebp]
  00511	f3 0f 11 04 24	 movss	 DWORD PTR [esp], xmm0
  00516	50		 push	 eax
  00517	8b cf		 mov	 ecx, edi
  00519	ff 15 00 00 00
	00		 call	 DWORD PTR __imp_?LoadFloat@ioINILoader@@QAEMPBDM@Z
  0051f	d9 9d d4 fe ff
	ff		 fstp	 DWORD PTR _value$535440[ebp]
  00525	8d 85 d4 fe ff
	ff		 lea	 eax, DWORD PTR _value$535440[ebp]
  0052b	50		 push	 eax
  0052c	8d 8e 44 09 00
	00		 lea	 ecx, DWORD PTR [esi+2372]
  00532	e8 00 00 00 00	 call	 ?EncryptValueToPool@?$CEncrypt@M@@AAEXPBD@Z ; CEncrypt<float>::EncryptValueToPool
  00537	6a 04		 push	 4

; 63   : 
; 64   : 	m_bOnlyCharCollision	= rkLoader.LoadBool_e( "only_char_collision", false );

  00539	c7 45 e0 82 82
	87 93		 mov	 DWORD PTR __k$535458[ebp], -1819835774 ; 93878282H
  00540	c7 45 e4 b2 8f
	83 8b		 mov	 DWORD PTR __k$535458[ebp+4], -1954312270 ; 8b838fb2H
  00547	c7 45 e8 9f b3
	88 85		 mov	 DWORD PTR __k$535458[ebp+8], -2054638689 ; 8588b39fH
  0054e	c7 45 ec 81 80
	82 99		 mov	 DWORD PTR __k$535458[ebp+12], -1719500671 ; 99828081H
  00555	8d 45 e0	 lea	 eax, DWORD PTR __k$535458[ebp]
  00558	c7 45 f0 84 83
	85 00		 mov	 DWORD PTR __k$535458[ebp+16], 8749956 ; 00858384H
  0055f	59		 pop	 ecx
$LL1292@LoadProper:
  00560	81 30 ed ec eb
	ea		 xor	 DWORD PTR [eax], -353637139 ; eaebecedH
  00566	83 c0 04	 add	 eax, 4
  00569	49		 dec	 ecx
  0056a	75 f4		 jne	 SHORT $LL1292@LoadProper
  0056c	6a 10		 push	 16			; 00000010H
  0056e	58		 pop	 eax
$LL1289@LoadProper:
  0056f	8b c8		 mov	 ecx, eax
  00571	81 e1 03 00 00
	80		 and	 ecx, -2147483645	; 80000003H
  00577	79 05		 jns	 SHORT $LN1464@LoadProper
  00579	49		 dec	 ecx
  0057a	83 c9 fc	 or	 ecx, -4			; fffffffcH
  0057d	41		 inc	 ecx
$LN1464@LoadProper:
  0057e	b2 ed		 mov	 dl, -19			; ffffffedH
  00580	2a d1		 sub	 dl, cl
  00582	30 54 05 e0	 xor	 BYTE PTR __k$535458[ebp+eax], dl
  00586	40		 inc	 eax
  00587	83 f8 13	 cmp	 eax, 19			; 00000013H
  0058a	7c e3		 jl	 SHORT $LL1289@LoadProper
  0058c	53		 push	 ebx
  0058d	8d 45 e0	 lea	 eax, DWORD PTR __k$535458[ebp]
  00590	50		 push	 eax
  00591	8b cf		 mov	 ecx, edi
  00593	ff 15 00 00 00
	00		 call	 DWORD PTR __imp_?LoadBool@ioINILoader@@QAE_NPBD_N@Z
  00599	88 85 d3 fe ff
	ff		 mov	 BYTE PTR _value$535571[ebp], al
  0059f	8d 85 d3 fe ff
	ff		 lea	 eax, DWORD PTR _value$535571[ebp]
  005a5	50		 push	 eax
  005a6	8d 8e dc 0a 00
	00		 lea	 ecx, DWORD PTR [esi+2780]
  005ac	e8 00 00 00 00	 call	 ?EncryptValueToPool@?$CEncrypt@_N@@AAEXPBD@Z ; CEncrypt<bool>::EncryptValueToPool
  005b1	6a 05		 push	 5

; 65   : 
; 66   : 	m_bSetDeadArriveTarget = rkLoader.LoadBool_e( "set_dead_arrive_target", false );

  005b3	c7 45 e0 9e 89
	9f b5		 mov	 DWORD PTR __k$535601[ebp], -1247835746 ; b59f899eH
  005ba	c7 45 e4 89 89
	8a 8e		 mov	 DWORD PTR __k$535601[ebp+4], -1903523447 ; 8e8a8989H
  005c1	c7 45 e8 b2 8d
	99 98		 mov	 DWORD PTR __k$535601[ebp+8], -1734767182 ; 98998db2H
  005c8	c7 45 ec 84 9a
	8e b5		 mov	 DWORD PTR __k$535601[ebp+12], -1248945532 ; b58e9a84H
  005cf	c7 45 f0 99 8d
	99 8d		 mov	 DWORD PTR __k$535601[ebp+16], -1919316583 ; 8d998d99H
  005d6	66 c7 45 f4 88
	98		 mov	 WORD PTR __k$535601[ebp+20], 39048 ; 00009888H
  005dc	8d 45 e0	 lea	 eax, DWORD PTR __k$535601[ebp]
  005df	88 5d f6	 mov	 BYTE PTR __k$535601[ebp+22], bl
  005e2	59		 pop	 ecx
$LL1400@LoadProper:
  005e3	81 30 ed ec eb
	ea		 xor	 DWORD PTR [eax], -353637139 ; eaebecedH
  005e9	83 c0 04	 add	 eax, 4
  005ec	49		 dec	 ecx
  005ed	75 f4		 jne	 SHORT $LL1400@LoadProper
  005ef	6a 14		 push	 20			; 00000014H
  005f1	58		 pop	 eax
$LL1397@LoadProper:
  005f2	8b c8		 mov	 ecx, eax
  005f4	81 e1 03 00 00
	80		 and	 ecx, -2147483645	; 80000003H
  005fa	79 05		 jns	 SHORT $LN1465@LoadProper
  005fc	49		 dec	 ecx
  005fd	83 c9 fc	 or	 ecx, -4			; fffffffcH
  00600	41		 inc	 ecx
$LN1465@LoadProper:
  00601	b2 ed		 mov	 dl, -19			; ffffffedH
  00603	2a d1		 sub	 dl, cl
  00605	30 54 05 e0	 xor	 BYTE PTR __k$535601[ebp+eax], dl
  00609	40		 inc	 eax
  0060a	83 f8 16	 cmp	 eax, 22			; 00000016H
  0060d	7c e3		 jl	 SHORT $LL1397@LoadProper
  0060f	53		 push	 ebx
  00610	8d 45 e0	 lea	 eax, DWORD PTR __k$535601[ebp]
  00613	50		 push	 eax
  00614	8b cf		 mov	 ecx, edi
  00616	ff 15 00 00 00
	00		 call	 DWORD PTR __imp_?LoadBool@ioINILoader@@QAE_NPBD_N@Z

; 67   : }

  0061c	8b 4d fc	 mov	 ecx, DWORD PTR __$ArrayPad$[ebp]
  0061f	5f		 pop	 edi
  00620	88 86 0c 0b 00
	00		 mov	 BYTE PTR [esi+2828], al
  00626	5e		 pop	 esi
  00627	33 cd		 xor	 ecx, ebp
  00629	5b		 pop	 ebx
  0062a	e8 00 00 00 00	 call	 @__security_check_cookie@4
  0062f	c9		 leave
  00630	c2 04 00	 ret	 4
?LoadProperty@ioTraceWeapon5@@UAEXAAVioINILoader@@@Z ENDP ; ioTraceWeapon5::LoadProperty
_TEXT	ENDS
EXTRN	?InitResource@ioWeapon@@UAE_NXZ:PROC		; ioWeapon::InitResource
; Function compile flags: /Ogsp
;	COMDAT ?InitResource@ioTraceWeapon5@@UAE_NXZ
_TEXT	SEGMENT
?InitResource@ioTraceWeapon5@@UAE_NXZ PROC		; ioTraceWeapon5::InitResource, COMDAT
; _this$ = ecx

; 70   : {

  00000	56		 push	 esi
  00001	8b f1		 mov	 esi, ecx

; 71   : 	if( ioWeapon::InitResource() )

  00003	e8 00 00 00 00	 call	 ?InitResource@ioWeapon@@UAE_NXZ ; ioWeapon::InitResource
  00008	84 c0		 test	 al, al
  0000a	74 25		 je	 SHORT $LN1@InitResour

; 72   : 	{
; 73   : 		DestroyResource();

  0000c	8b 06		 mov	 eax, DWORD PTR [esi]
  0000e	6a 00		 push	 0
  00010	8b ce		 mov	 ecx, esi
  00012	ff 90 9c 00 00
	00		 call	 DWORD PTR [eax+156]

; 74   : 		return CreateFireBall( GetAttribute()->m_WeaponEffect );

  00018	8b 06		 mov	 eax, DWORD PTR [esi]
  0001a	8b ce		 mov	 ecx, esi
  0001c	ff 90 3c 01 00
	00		 call	 DWORD PTR [eax+316]
  00022	05 34 01 00 00	 add	 eax, 308		; 00000134H
  00027	50		 push	 eax
  00028	8b ce		 mov	 ecx, esi
  0002a	e8 00 00 00 00	 call	 ?CreateFireBall@ioTraceWeapon5@@IAE_NABVioHashString@@@Z ; ioTraceWeapon5::CreateFireBall
  0002f	5e		 pop	 esi

; 78   : }

  00030	c3		 ret	 0
$LN1@InitResour:

; 75   : 	}
; 76   : 
; 77   : 	return false;

  00031	32 c0		 xor	 al, al
  00033	5e		 pop	 esi

; 78   : }

  00034	c3		 ret	 0
?InitResource@ioTraceWeapon5@@UAE_NXZ ENDP		; ioTraceWeapon5::InitResource
_TEXT	ENDS
EXTRN	_D3DXVec3Normalize@8:PROC
EXTRN	?GetMidPositionByRate@ioGameEntity@@QBE?AUD3DXVECTOR3@@M@Z:PROC ; ioGameEntity::GetMidPositionByRate
EXTRN	__imp_?HasLinkedSystem@ioEffect@@QBE_NXZ:PROC
;	COMDAT xdata$x
; File c:\program files (x86)\microsoft directx sdk (june 2010)\include\d3dx9math.inl
xdata$x	SEGMENT
__unwindtable$?SetStartPosition@ioTraceWeapon5@@UAEXABUD3DXVECTOR3@@PAVioPlayStage@@@Z DD 0ffffffffH
	DD	FLAT:__unwindfunclet$?SetStartPosition@ioTraceWeapon5@@UAEXABUD3DXVECTOR3@@PAVioPlayStage@@@Z$0
__ehfuncinfo$?SetStartPosition@ioTraceWeapon5@@UAEXABUD3DXVECTOR3@@PAVioPlayStage@@@Z DD 019930522H
	DD	01H
	DD	FLAT:__unwindtable$?SetStartPosition@ioTraceWeapon5@@UAEXABUD3DXVECTOR3@@PAVioPlayStage@@@Z
	DD	2 DUP(00H)
	DD	2 DUP(00H)
	DD	00H
	DD	01H
; Function compile flags: /Ogsp
; File d:\lost saga for developer\youtube\tutorial\source\src\lsclient\iotraceweapon5.cpp
xdata$x	ENDS
;	COMDAT ?SetStartPosition@ioTraceWeapon5@@UAEXABUD3DXVECTOR3@@PAVioPlayStage@@@Z
_TEXT	SEGMENT
_qtRot$ = -92						; size = 16
tv543 = -76						; size = 4
tv525 = -76						; size = 4
tv521 = -76						; size = 4
tv517 = -76						; size = 4
_value$535827 = -76					; size = 4
$T535776 = -76						; size = 4
$T535772 = -69						; size = 1
$T535773 = -68						; size = 16
$T530699 = -64						; size = 12
$T530704 = -52						; size = 12
$T530701 = -40						; size = 12
$T530698 = -40						; size = 12
_vDiff$ = -28						; size = 12
__$EHRec$ = -12						; size = 12
_vPos$ = 8						; size = 4
_pStage$ = 12						; size = 4
?SetStartPosition@ioTraceWeapon5@@UAEXABUD3DXVECTOR3@@PAVioPlayStage@@@Z PROC ; ioTraceWeapon5::SetStartPosition, COMDAT
; _this$ = ecx

; 127  : {

  00000	6a 50		 push	 80			; 00000050H
  00002	b8 00 00 00 00	 mov	 eax, __ehhandler$?SetStartPosition@ioTraceWeapon5@@UAEXABUD3DXVECTOR3@@PAVioPlayStage@@@Z
  00007	e8 00 00 00 00	 call	 __EH_prolog3_GS
  0000c	83 65 b4 00	 and	 DWORD PTR $T535776[ebp], 0
  00010	8b 75 08	 mov	 esi, DWORD PTR _vPos$[ebp]
  00013	8b d9		 mov	 ebx, ecx

; 128  : 	if( m_pFireBall && m_pFireBall->GetSkeletonName().IsEmpty() && m_pFireBall->HasLinkedSystem() )

  00015	8b 8b 94 0a 00
	00		 mov	 ecx, DWORD PTR [ebx+2708]
  0001b	85 c9		 test	 ecx, ecx
  0001d	74 35		 je	 SHORT $LN4@SetStartPo
  0001f	8d 45 bc	 lea	 eax, DWORD PTR $T535773[ebp]
  00022	50		 push	 eax
  00023	ff 15 00 00 00
	00		 call	 DWORD PTR __imp_?GetSkeletonName@ioEffect@@QBE?AVioHashString@@XZ
  00029	83 65 fc 00	 and	 DWORD PTR __$EHRec$[ebp+8], 0
  0002d	8b c8		 mov	 ecx, eax
  0002f	c7 45 b4 01 00
	00 00		 mov	 DWORD PTR $T535776[ebp], 1
  00036	ff 15 00 00 00
	00		 call	 DWORD PTR __imp_?IsEmpty@ioHashString@@QBE_NXZ
  0003c	84 c0		 test	 al, al
  0003e	74 14		 je	 SHORT $LN4@SetStartPo
  00040	8b 8b 94 0a 00
	00		 mov	 ecx, DWORD PTR [ebx+2708]
  00046	ff 15 00 00 00
	00		 call	 DWORD PTR __imp_?HasLinkedSystem@ioEffect@@QBE_NXZ
  0004c	c6 45 bb 01	 mov	 BYTE PTR $T535772[ebp], 1
  00050	84 c0		 test	 al, al
  00052	75 04		 jne	 SHORT $LN5@SetStartPo
$LN4@SetStartPo:
  00054	c6 45 bb 00	 mov	 BYTE PTR $T535772[ebp], 0
$LN5@SetStartPo:
  00058	83 4d fc ff	 or	 DWORD PTR __$EHRec$[ebp+8], -1
  0005c	f6 45 b4 01	 test	 BYTE PTR $T535776[ebp], 1
  00060	74 09		 je	 SHORT $LN8@SetStartPo
  00062	8d 4d bc	 lea	 ecx, DWORD PTR $T535773[ebp]
  00065	ff 15 00 00 00
	00		 call	 DWORD PTR __imp_??1ioHashString@@QAE@XZ
$LN8@SetStartPo:
  0006b	80 7d bb 00	 cmp	 BYTE PTR $T535772[ebp], 0
  0006f	74 61		 je	 SHORT $LN1@SetStartPo

; 129  : 	{
; 130  : 		m_vMoveDir = GetOwner()->GetTargetRot() * D3DXVECTOR3( 0.0f, 0.0f, -FLOAT1 );

  00071	b8 01 00 00 00	 mov	 eax, 1
  00076	0f 57 c0	 xorps	 xmm0, xmm0
  00079	89 45 b4	 mov	 DWORD PTR tv543[ebp], eax
  0007c	db 45 b4	 fild	 DWORD PTR tv543[ebp]
  0007f	f3 0f 11 45 d8	 movss	 DWORD PTR $T530698[ebp], xmm0
  00084	f3 0f 11 45 dc	 movss	 DWORD PTR $T530698[ebp+4], xmm0
  00089	85 c0		 test	 eax, eax
  0008b	79 06		 jns	 SHORT $LN39@SetStartPo
  0008d	d8 05 00 00 00
	00		 fadd	 DWORD PTR __real@4f800000
$LN39@SetStartPo:
  00093	d9 e0		 fchs
  00095	8b cb		 mov	 ecx, ebx
  00097	d9 5d e0	 fstp	 DWORD PTR $T530698[ebp+8]
  0009a	e8 00 00 00 00	 call	 ?GetOwner@ioWeapon@@QBEPAVioBaseChar@@XZ ; ioWeapon::GetOwner
  0009f	8d 4d d8	 lea	 ecx, DWORD PTR $T530698[ebp]
  000a2	51		 push	 ecx
  000a3	05 a4 06 00 00	 add	 eax, 1700		; 000006a4H
  000a8	50		 push	 eax
  000a9	8d 45 c0	 lea	 eax, DWORD PTR $T530699[ebp]
  000ac	50		 push	 eax
  000ad	ff 15 00 00 00
	00		 call	 DWORD PTR __imp_??D@YA?AUD3DXVECTOR3@@ABUD3DXQUATERNION@@ABU0@@Z
  000b3	8b f0		 mov	 esi, eax
  000b5	8d bb 44 0a 00
	00		 lea	 edi, DWORD PTR [ebx+2628]
  000bb	a5		 movsd
  000bc	a5		 movsd
  000bd	83 c4 0c	 add	 esp, 12			; 0000000cH

; 131  : 		SetOrientation( GetOwner()->GetTargetRot() );

  000c0	8b cb		 mov	 ecx, ebx
  000c2	a5		 movsd
  000c3	e8 00 00 00 00	 call	 ?GetOwner@ioWeapon@@QBEPAVioBaseChar@@XZ ; ioWeapon::GetOwner
  000c8	05 a4 06 00 00	 add	 eax, 1700		; 000006a4H

; 132  : 		return;

  000cd	e9 43 01 00 00	 jmp	 $LN42@SetStartPo
$LN1@SetStartPo:

; 133  : 	}
; 134  : 
; 135  : 	SetPosition( vPos );

  000d2	56		 push	 esi
  000d3	8b cb		 mov	 ecx, ebx
  000d5	e8 00 00 00 00	 call	 ?SetPosition@ioWeapon@@QAEXABUD3DXVECTOR3@@@Z ; ioWeapon::SetPosition

; 136  : 	D3DXVECTOR3 vDiff = vPos - GetOwner()->GetMidPositionByRate();

  000da	b8 05 00 00 00	 mov	 eax, 5
  000df	8b c8		 mov	 ecx, eax
  000e1	b8 0a 00 00 00	 mov	 eax, 10			; 0000000aH
  000e6	89 4d b4	 mov	 DWORD PTR tv525[ebp], ecx
  000e9	db 45 b4	 fild	 DWORD PTR tv525[ebp]
  000ec	85 c9		 test	 ecx, ecx
  000ee	79 06		 jns	 SHORT $LN40@SetStartPo
  000f0	d8 05 00 00 00
	00		 fadd	 DWORD PTR __real@4f800000
$LN40@SetStartPo:
  000f6	89 45 b4	 mov	 DWORD PTR tv521[ebp], eax
  000f9	db 45 b4	 fild	 DWORD PTR tv521[ebp]
  000fc	85 c0		 test	 eax, eax
  000fe	79 06		 jns	 SHORT $LN41@SetStartPo
  00100	d8 05 00 00 00
	00		 fadd	 DWORD PTR __real@4f800000
$LN41@SetStartPo:
  00106	de f9		 fdivp	 ST(1), ST(0)
  00108	51		 push	 ecx
  00109	8d 45 d8	 lea	 eax, DWORD PTR $T530701[ebp]
  0010c	8b cb		 mov	 ecx, ebx
  0010e	d9 5d b4	 fstp	 DWORD PTR tv517[ebp]
  00111	d9 45 b4	 fld	 DWORD PTR tv517[ebp]
  00114	d9 1c 24	 fstp	 DWORD PTR [esp]
  00117	50		 push	 eax
  00118	e8 00 00 00 00	 call	 ?GetOwner@ioWeapon@@QBEPAVioBaseChar@@XZ ; ioWeapon::GetOwner
  0011d	8b c8		 mov	 ecx, eax
  0011f	e8 00 00 00 00	 call	 ?GetMidPositionByRate@ioGameEntity@@QBE?AUD3DXVECTOR3@@M@Z ; ioGameEntity::GetMidPositionByRate
  00124	f3 0f 10 48 04	 movss	 xmm1, DWORD PTR [eax+4]
  00129	f3 0f 10 50 08	 movss	 xmm2, DWORD PTR [eax+8]
  0012e	f3 0f 10 46 04	 movss	 xmm0, DWORD PTR [esi+4]
  00133	f3 0f 10 18	 movss	 xmm3, DWORD PTR [eax]
  00137	0f 5a c0	 cvtps2pd xmm0, xmm0
  0013a	0f 5a c9	 cvtps2pd xmm1, xmm1
  0013d	f2 0f 5c c1	 subsd	 xmm0, xmm1
  00141	f3 0f 10 4e 08	 movss	 xmm1, DWORD PTR [esi+8]
  00146	0f 5a d2	 cvtps2pd xmm2, xmm2
  00149	66 0f 5a c0	 cvtpd2ps xmm0, xmm0
  0014d	0f 5a c9	 cvtps2pd xmm1, xmm1
  00150	f2 0f 5c ca	 subsd	 xmm1, xmm2
  00154	f3 0f 10 16	 movss	 xmm2, DWORD PTR [esi]
  00158	f3 0f 11 45 e8	 movss	 DWORD PTR _vDiff$[ebp+4], xmm0
  0015d	0f 5a d2	 cvtps2pd xmm2, xmm2
  00160	f3 0f 5a c0	 cvtss2sd xmm0, xmm0
  00164	0f 5a db	 cvtps2pd xmm3, xmm3
  00167	f2 0f 5c d3	 subsd	 xmm2, xmm3
  0016b	66 0f 5a d2	 cvtpd2ps xmm2, xmm2

; 137  : 	m_fRotateRange = D3DXVec3Length( &vDiff );

  0016f	f2 0f 59 c0	 mulsd	 xmm0, xmm0
  00173	66 0f 5a c9	 cvtpd2ps xmm1, xmm1
  00177	f3 0f 11 55 e4	 movss	 DWORD PTR _vDiff$[ebp], xmm2
  0017c	f3 0f 11 4d ec	 movss	 DWORD PTR _vDiff$[ebp+8], xmm1
  00181	f3 0f 5a d2	 cvtss2sd xmm2, xmm2
  00185	f3 0f 5a c9	 cvtss2sd xmm1, xmm1
  00189	f2 0f 59 d2	 mulsd	 xmm2, xmm2
  0018d	f2 0f 58 c2	 addsd	 xmm0, xmm2
  00191	f2 0f 59 c9	 mulsd	 xmm1, xmm1
  00195	f2 0f 58 c1	 addsd	 xmm0, xmm1
  00199	66 0f 5a c0	 cvtpd2ps xmm0, xmm0
  0019d	f3 0f 5a c0	 cvtss2sd xmm0, xmm0
  001a1	8d 45 b4	 lea	 eax, DWORD PTR _value$535827[ebp]
  001a4	f2 0f 51 c0	 sqrtsd	 xmm0, xmm0
  001a8	66 0f 5a c0	 cvtpd2ps xmm0, xmm0
  001ac	50		 push	 eax
  001ad	8d 8b d8 08 00
	00		 lea	 ecx, DWORD PTR [ebx+2264]
  001b3	f3 0f 11 45 b4	 movss	 DWORD PTR _value$535827[ebp], xmm0
  001b8	e8 00 00 00 00	 call	 ?EncryptValueToPool@?$CEncrypt@M@@AAEXPBD@Z ; CEncrypt<float>::EncryptValueToPool

; 138  : 	D3DXVec3Normalize( &vDiff, &vDiff );

  001bd	8d 45 e4	 lea	 eax, DWORD PTR _vDiff$[ebp]
  001c0	50		 push	 eax
  001c1	50		 push	 eax
  001c2	e8 00 00 00 00	 call	 _D3DXVec3Normalize@8

; 139  : 	m_vMoveDir = vDiff;
; 140  : 	//m_vMoveDir = GetOwner()->GetTargetRot() * D3DXVECTOR3( 0.0f, 0.0f, -FLOAT1 );
; 141  : 	//SetOrientation( GetOwner()->GetTargetRot() );
; 142  : 	D3DXQUATERNION qtRot;
; 143  : 	ioMath::CalcDirectionQuaternion( qtRot, -vDiff );

  001c7	f3 0f 10 4d e4	 movss	 xmm1, DWORD PTR _vDiff$[ebp]
  001cc	8d bb 44 0a 00
	00		 lea	 edi, DWORD PTR [ebx+2628]
  001d2	8d 75 e4	 lea	 esi, DWORD PTR _vDiff$[ebp]
  001d5	a5		 movsd
  001d6	a5		 movsd
  001d7	a5		 movsd
  001d8	f3 0f 10 05 00
	00 00 00	 movss	 xmm0, DWORD PTR __mask@@NegFloat@
  001e0	0f 57 c8	 xorps	 xmm1, xmm0
  001e3	f3 0f 11 4d cc	 movss	 DWORD PTR $T530704[ebp], xmm1
  001e8	f3 0f 10 4d e8	 movss	 xmm1, DWORD PTR _vDiff$[ebp+4]
  001ed	0f 57 c8	 xorps	 xmm1, xmm0
  001f0	8d 45 cc	 lea	 eax, DWORD PTR $T530704[ebp]
  001f3	50		 push	 eax
  001f4	f3 0f 11 4d d0	 movss	 DWORD PTR $T530704[ebp+4], xmm1
  001f9	f3 0f 10 4d ec	 movss	 xmm1, DWORD PTR _vDiff$[ebp+8]
  001fe	8d 45 a4	 lea	 eax, DWORD PTR _qtRot$[ebp]
  00201	0f 57 c8	 xorps	 xmm1, xmm0
  00204	50		 push	 eax
  00205	f3 0f 11 4d d4	 movss	 DWORD PTR $T530704[ebp+8], xmm1
  0020a	ff 15 00 00 00
	00		 call	 DWORD PTR __imp_?CalcDirectionQuaternion@ioMath@@SAXAAUD3DXQUATERNION@@ABUD3DXVECTOR3@@@Z
  00210	59		 pop	 ecx
  00211	59		 pop	 ecx

; 144  : 	SetOrientation( qtRot );

  00212	8d 45 a4	 lea	 eax, DWORD PTR _qtRot$[ebp]
$LN42@SetStartPo:
  00215	50		 push	 eax
  00216	8b cb		 mov	 ecx, ebx
  00218	e8 00 00 00 00	 call	 ?SetOrientation@ioWeapon@@QAEXABUD3DXQUATERNION@@@Z ; ioWeapon::SetOrientation

; 145  : }

  0021d	e8 00 00 00 00	 call	 __EH_epilog3_GS
  00222	c2 08 00	 ret	 8
_TEXT	ENDS
;	COMDAT text$x
text$x	SEGMENT
__unwindfunclet$?SetStartPosition@ioTraceWeapon5@@UAEXABUD3DXVECTOR3@@PAVioPlayStage@@@Z$0:
  00000	8b 45 b4	 mov	 eax, DWORD PTR $T535776[ebp]
  00003	83 e0 01	 and	 eax, 1
  00006	0f 84 0d 00 00
	00		 je	 $LN7@SetStartPo
  0000c	83 65 b4 fe	 and	 DWORD PTR $T535776[ebp], -2 ; fffffffeH
  00010	8d 4d bc	 lea	 ecx, DWORD PTR $T535773[ebp]
  00013	ff 25 00 00 00
	00		 jmp	 DWORD PTR __imp_??1ioHashString@@QAE@XZ
$LN7@SetStartPo:
  00019	c3		 ret	 0
__ehhandler$?SetStartPosition@ioTraceWeapon5@@UAEXABUD3DXVECTOR3@@PAVioPlayStage@@@Z:
  0001a	8b 54 24 08	 mov	 edx, DWORD PTR [esp+8]
  0001e	8d 42 0c	 lea	 eax, DWORD PTR [edx+12]
  00021	8b 4a a0	 mov	 ecx, DWORD PTR [edx-96]
  00024	33 c8		 xor	 ecx, eax
  00026	e8 00 00 00 00	 call	 @__security_check_cookie@4
  0002b	8b 4a fc	 mov	 ecx, DWORD PTR [edx-4]
  0002e	33 c8		 xor	 ecx, eax
  00030	e8 00 00 00 00	 call	 @__security_check_cookie@4
  00035	b8 00 00 00 00	 mov	 eax, OFFSET __ehfuncinfo$?SetStartPosition@ioTraceWeapon5@@UAEXABUD3DXVECTOR3@@PAVioPlayStage@@@Z
  0003a	e9 00 00 00 00	 jmp	 ___CxxFrameHandler3
text$x	ENDS
?SetStartPosition@ioTraceWeapon5@@UAEXABUD3DXVECTOR3@@PAVioPlayStage@@@Z ENDP ; ioTraceWeapon5::SetStartPosition
PUBLIC	_this$GSCopy$
PUBLIC	__$ArrayPad$
PUBLIC	?OnTracing@ioTraceWeapon5@@IAEXPAVioPlayStage@@M@Z ; ioTraceWeapon5::OnTracing
EXTRN	__imp_?UNIT_X@ioMath@@2UD3DXVECTOR3@@A:BYTE
EXTRN	__imp_?UNIT_Y@ioMath@@2UD3DXVECTOR3@@A:BYTE
EXTRN	?IsEnableTarget@ioBaseChar@@QAE_N_N0@Z:PROC	; ioBaseChar::IsEnableTarget
EXTRN	__imp_?Clear@ioHashString@@QAEXXZ:PROC
EXTRN	?IsSystemState@ioBaseChar@@QAE_NXZ:PROC		; ioBaseChar::IsSystemState
EXTRN	?GetBaseChar@ioPlayStage@@QAEPAVioBaseChar@@ABVioHashString@@@Z:PROC ; ioPlayStage::GetBaseChar
; Function compile flags: /Ogsp
;	COMDAT ?OnTracing@ioTraceWeapon5@@IAEXPAVioPlayStage@@M@Z
_TEXT	SEGMENT
_vPreDir$530784 = -252					; size = 12
_v$536090 = -240					; size = 12
_v$536067 = -228					; size = 12
_v$536044 = -216					; size = 12
$T530790 = -204						; size = 12
_v$536133 = -192					; size = 12
$T530783 = -180						; size = 12
_value$535924 = -168					; size = 4
tv2542 = -164						; size = 4
tv2534 = -164						; size = 4
tv2428 = -164						; size = 4
tv2372 = -164						; size = 4
tv2368 = -164						; size = 4
_pTarget$ = -160					; size = 4
tv2702 = -156						; size = 4
tv2698 = -156						; size = 4
tv2661 = -156						; size = 4
_value$535928 = -156					; size = 4
_value$535973 = -152					; size = 4
_value$535892 = -152					; size = 4
_value$535945 = -148					; size = 4
_value$535888 = -148					; size = 4
_this$GSCopy$ = -144					; size = 4
tv2694 = -140						; size = 4
_fPosRate$530780 = -140					; size = 4
_fRangeSq$530762 = -140					; size = 4
tv2628 = -136						; size = 4
_fTimeGap$530765 = -136					; size = 4
tv2364 = -132						; size = 4
_value$536193 = -132					; size = 4
_value$536190 = -132					; size = 4
_value$536157 = -132					; size = 4
_dwCurTime$ = -132					; size = 4
tv2649 = -128						; size = 4
tv2640 = -128						; size = 4
tv2635 = -128						; size = 4
tv2621 = -128						; size = 4
tv2420 = -128						; size = 4
_fGapAngle$530806 = -128				; size = 4
_fCos$530791 = -128					; size = 4
_fCurLoopTimePerSec$530768 = -128			; size = 4
$T530782 = -124						; size = 12
_vAxis$530811 = -112					; size = 12
$T530803 = -100						; size = 12
$T530802 = -88						; size = 12
$T530800 = -76						; size = 12
_vAxis2$530798 = -64					; size = 12
$T530826 = -52						; size = 12
$T530812 = -52						; size = 12
_vLength$530820 = -40					; size = 12
_vCurForce$530785 = -40					; size = 12
$T530760 = -40						; size = 12
_vPos$530818 = -28					; size = 12
_vAxis1$530797 = -28					; size = 12
_vDiff$530759 = -16					; size = 12
__$ArrayPad$ = -4					; size = 4
_pStage$ = 8						; size = 4
_fTimePerSec$ = 12					; size = 4
?OnTracing@ioTraceWeapon5@@IAEXPAVioPlayStage@@M@Z PROC	; ioTraceWeapon5::OnTracing, COMDAT
; _this$ = ecx

; 224  : {

  00000	55		 push	 ebp
  00001	8b ec		 mov	 ebp, esp
  00003	81 ec fc 00 00
	00		 sub	 esp, 252		; 000000fcH
  00009	a1 00 00 00 00	 mov	 eax, DWORD PTR ___security_cookie
  0000e	33 c5		 xor	 eax, ebp
  00010	89 45 fc	 mov	 DWORD PTR __$ArrayPad$[ebp], eax
  00013	53		 push	 ebx
  00014	56		 push	 esi
  00015	8b 75 08	 mov	 esi, DWORD PTR _pStage$[ebp]
  00018	8b d9		 mov	 ebx, ecx
  0001a	57		 push	 edi

; 225  : 	DWORD dwCurTime = FRAMEGETTIME();

  0001b	89 9d 70 ff ff
	ff		 mov	 DWORD PTR _this$GSCopy$[ebp], ebx
  00021	ff 15 00 00 00
	00		 call	 DWORD PTR __imp_?GetSingleton@ioFrameTimer@@SAAAV1@XZ
  00027	8b c8		 mov	 ecx, eax
  00029	ff 15 00 00 00
	00		 call	 DWORD PTR __imp_?GetLoopSec@ioFrameTimer@@QBEKXZ

; 226  : 	ioBaseChar *pTarget = pStage->GetBaseChar( m_TargetName );

  0002f	8d bb 50 0a 00
	00		 lea	 edi, DWORD PTR [ebx+2640]
  00035	57		 push	 edi
  00036	8b ce		 mov	 ecx, esi
  00038	89 85 7c ff ff
	ff		 mov	 DWORD PTR _dwCurTime$[ebp], eax
  0003e	e8 00 00 00 00	 call	 ?GetBaseChar@ioPlayStage@@QAEPAVioBaseChar@@ABVioHashString@@@Z ; ioPlayStage::GetBaseChar
  00043	8b f0		 mov	 esi, eax
  00045	89 b5 60 ff ff
	ff		 mov	 DWORD PTR _pTarget$[ebp], esi

; 227  : 	if( pTarget )
; 228  : 	{
; 229  : 		if( !m_TargetName.IsEmpty() && pTarget->IsSystemState() )

  0004b	8b cf		 mov	 ecx, edi
  0004d	85 f6		 test	 esi, esi
  0004f	0f 84 67 0b 00
	00		 je	 $LN22@OnTracing
  00055	ff 15 00 00 00
	00		 call	 DWORD PTR __imp_?IsEmpty@ioHashString@@QBE_NXZ
  0005b	84 c0		 test	 al, al
  0005d	75 13		 jne	 SHORT $LN172@OnTracing
  0005f	8b ce		 mov	 ecx, esi
  00061	e8 00 00 00 00	 call	 ?IsSystemState@ioBaseChar@@QAE_NXZ ; ioBaseChar::IsSystemState
  00066	84 c0		 test	 al, al
  00068	74 08		 je	 SHORT $LN172@OnTracing

; 230  : 		{
; 231  : 			m_TargetName.Clear();

  0006a	8b cf		 mov	 ecx, edi
  0006c	ff 15 00 00 00
	00		 call	 DWORD PTR __imp_?Clear@ioHashString@@QAEXXZ
$LN172@OnTracing:

; 232  : 		}
; 233  : 		if( !m_TargetName.IsEmpty() && !pTarget->IsEnableTarget() )

  00072	8b cf		 mov	 ecx, edi
  00074	ff 15 00 00 00
	00		 call	 DWORD PTR __imp_?IsEmpty@ioHashString@@QBE_NXZ
  0007a	84 c0		 test	 al, al
  0007c	75 17		 jne	 SHORT $LN173@OnTracing
  0007e	6a 01		 push	 1
  00080	6a 01		 push	 1
  00082	8b ce		 mov	 ecx, esi
  00084	e8 00 00 00 00	 call	 ?IsEnableTarget@ioBaseChar@@QAE_N_N0@Z ; ioBaseChar::IsEnableTarget
  00089	84 c0		 test	 al, al
  0008b	75 08		 jne	 SHORT $LN173@OnTracing

; 234  : 		{
; 235  : 			m_TargetName.Clear();

  0008d	8b cf		 mov	 ecx, edi
  0008f	ff 15 00 00 00
	00		 call	 DWORD PTR __imp_?Clear@ioHashString@@QAEXXZ
$LN173@OnTracing:

; 236  : 		}
; 237  : 
; 238  : 		if( !m_TargetName.IsEmpty() )

  00095	8b cf		 mov	 ecx, edi
  00097	ff 15 00 00 00
	00		 call	 DWORD PTR __imp_?IsEmpty@ioHashString@@QBE_NXZ
  0009d	84 c0		 test	 al, al
  0009f	0f 85 91 09 00
	00		 jne	 $LN174@OnTracing

; 239  : 		{
; 240  : 			m_vPrePos = GetPosition();

  000a5	8b 03		 mov	 eax, DWORD PTR [ebx]
  000a7	8b cb		 mov	 ecx, ebx
  000a9	ff 50 70	 call	 DWORD PTR [eax+112]
  000ac	8d bb 38 0a 00
	00		 lea	 edi, DWORD PTR [ebx+2616]
  000b2	8b f0		 mov	 esi, eax
  000b4	a5		 movsd
  000b5	a5		 movsd
  000b6	a5		 movsd

; 241  : 			D3DXVECTOR3 vDiff = pTarget->GetMidPositionByRate() - m_vPrePos;

  000b7	b8 05 00 00 00	 mov	 eax, 5
  000bc	8b c8		 mov	 ecx, eax
  000be	b8 0a 00 00 00	 mov	 eax, 10			; 0000000aH
  000c3	89 8d 64 ff ff
	ff		 mov	 DWORD PTR tv2702[ebp], ecx
  000c9	db 85 64 ff ff
	ff		 fild	 DWORD PTR tv2702[ebp]
  000cf	85 c9		 test	 ecx, ecx
  000d1	79 06		 jns	 SHORT $LN177@OnTracing
  000d3	d8 05 00 00 00
	00		 fadd	 DWORD PTR __real@4f800000
$LN177@OnTracing:
  000d9	89 85 64 ff ff
	ff		 mov	 DWORD PTR tv2698[ebp], eax
  000df	db 85 64 ff ff
	ff		 fild	 DWORD PTR tv2698[ebp]
  000e5	85 c0		 test	 eax, eax
  000e7	79 06		 jns	 SHORT $LN178@OnTracing
  000e9	d8 05 00 00 00
	00		 fadd	 DWORD PTR __real@4f800000
$LN178@OnTracing:
  000ef	de f9		 fdivp	 ST(1), ST(0)
  000f1	51		 push	 ecx
  000f2	8b 8d 60 ff ff
	ff		 mov	 ecx, DWORD PTR _pTarget$[ebp]
  000f8	8d 45 d8	 lea	 eax, DWORD PTR $T530760[ebp]
  000fb	d9 9d 74 ff ff
	ff		 fstp	 DWORD PTR tv2694[ebp]
  00101	d9 85 74 ff ff
	ff		 fld	 DWORD PTR tv2694[ebp]
  00107	d9 1c 24	 fstp	 DWORD PTR [esp]
  0010a	50		 push	 eax
  0010b	e8 00 00 00 00	 call	 ?GetMidPositionByRate@ioGameEntity@@QBE?AUD3DXVECTOR3@@M@Z ; ioGameEntity::GetMidPositionByRate
  00110	f3 0f 10 40 04	 movss	 xmm0, DWORD PTR [eax+4]
  00115	f3 0f 10 8b 3c
	0a 00 00	 movss	 xmm1, DWORD PTR [ebx+2620]
  0011d	f3 0f 10 93 40
	0a 00 00	 movss	 xmm2, DWORD PTR [ebx+2624]
  00125	f3 0f 10 9b 38
	0a 00 00	 movss	 xmm3, DWORD PTR [ebx+2616]
  0012d	0f 5a c9	 cvtps2pd xmm1, xmm1
  00130	0f 5a d2	 cvtps2pd xmm2, xmm2
  00133	0f 5a c0	 cvtps2pd xmm0, xmm0
  00136	f2 0f 5c c1	 subsd	 xmm0, xmm1
  0013a	f3 0f 10 48 08	 movss	 xmm1, DWORD PTR [eax+8]
  0013f	0f 5a c9	 cvtps2pd xmm1, xmm1
  00142	f2 0f 5c ca	 subsd	 xmm1, xmm2
  00146	f3 0f 10 10	 movss	 xmm2, DWORD PTR [eax]
  0014a	66 0f 5a c0	 cvtpd2ps xmm0, xmm0
  0014e	0f 5a d2	 cvtps2pd xmm2, xmm2
  00151	f3 0f 11 45 f4	 movss	 DWORD PTR _vDiff$530759[ebp+4], xmm0

; 242  : 
; 243  : 			float fRangeSq = D3DXVec3LengthSq( & vDiff );

  00156	f3 0f 5a c0	 cvtss2sd xmm0, xmm0
  0015a	0f 5a db	 cvtps2pd xmm3, xmm3
  0015d	f2 0f 5c d3	 subsd	 xmm2, xmm3
  00161	66 0f 5a d2	 cvtpd2ps xmm2, xmm2
  00165	f3 0f 11 55 f0	 movss	 DWORD PTR _vDiff$530759[ebp], xmm2
  0016a	f2 0f 59 c0	 mulsd	 xmm0, xmm0
  0016e	66 0f 5a c9	 cvtpd2ps xmm1, xmm1
  00172	f3 0f 5a d2	 cvtss2sd xmm2, xmm2
  00176	f3 0f 11 4d f8	 movss	 DWORD PTR _vDiff$530759[ebp+8], xmm1
  0017b	f2 0f 59 d2	 mulsd	 xmm2, xmm2
  0017f	f3 0f 5a c9	 cvtss2sd xmm1, xmm1
  00183	f2 0f 58 d0	 addsd	 xmm2, xmm0
  00187	f2 0f 59 c9	 mulsd	 xmm1, xmm1

; 244  : 			if( fRangeSq < m_fTraceRange * m_fTraceRange )

  0018b	8d 85 6c ff ff
	ff		 lea	 eax, DWORD PTR _value$535888[ebp]
  00191	f2 0f 58 d1	 addsd	 xmm2, xmm1
  00195	66 0f 5a c2	 cvtpd2ps xmm0, xmm2
  00199	50		 push	 eax
  0019a	8d 8b a8 09 00
	00		 lea	 ecx, DWORD PTR [ebx+2472]
  001a0	f3 0f 11 85 74
	ff ff ff	 movss	 DWORD PTR _fRangeSq$530762[ebp], xmm0
  001a8	e8 00 00 00 00	 call	 ?DecryptValueToPool@?$CEncrypt@M@@QAEXPAM@Z ; CEncrypt<float>::DecryptValueToPool
  001ad	8d 85 68 ff ff
	ff		 lea	 eax, DWORD PTR _value$535892[ebp]
  001b3	50		 push	 eax
  001b4	8d 8b a8 09 00
	00		 lea	 ecx, DWORD PTR [ebx+2472]
  001ba	e8 00 00 00 00	 call	 ?DecryptValueToPool@?$CEncrypt@M@@QAEXPAM@Z ; CEncrypt<float>::DecryptValueToPool
  001bf	f3 0f 10 8d 68
	ff ff ff	 movss	 xmm1, DWORD PTR _value$535892[ebp]
  001c7	f3 0f 10 95 6c
	ff ff ff	 movss	 xmm2, DWORD PTR _value$535888[ebp]
  001cf	f3 0f 10 85 74
	ff ff ff	 movss	 xmm0, DWORD PTR _fRangeSq$530762[ebp]
  001d7	0f 5a c9	 cvtps2pd xmm1, xmm1
  001da	0f 5a d2	 cvtps2pd xmm2, xmm2
  001dd	f2 0f 59 ca	 mulsd	 xmm1, xmm2
  001e1	66 0f 5a c9	 cvtpd2ps xmm1, xmm1
  001e5	0f 5a c0	 cvtps2pd xmm0, xmm0
  001e8	f3 0f 5a c9	 cvtss2sd xmm1, xmm1
  001ec	66 0f 2f c8	 comisd	 xmm1, xmm0
  001f0	0f 86 34 08 00
	00		 jbe	 $LN18@OnTracing

; 245  : 			{
; 246  : 				float fTimeGap = fTimePerSec * FLOAT1000;

  001f6	b8 e8 03 00 00	 mov	 eax, 1000		; 000003e8H
  001fb	89 85 64 ff ff
	ff		 mov	 DWORD PTR tv2661[ebp], eax
  00201	db 85 64 ff ff
	ff		 fild	 DWORD PTR tv2661[ebp]
  00207	85 c0		 test	 eax, eax
  00209	79 06		 jns	 SHORT $LN179@OnTracing
  0020b	d8 05 00 00 00
	00		 fadd	 DWORD PTR __real@4f800000
$LN179@OnTracing:
  00211	d8 4d 0c	 fmul	 DWORD PTR _fTimePerSec$[ebp]
  00214	d9 9d 78 ff ff
	ff		 fstp	 DWORD PTR _fTimeGap$530765[ebp]

; 247  : 				float fCurLoopTimeGap;
; 248  : 				float fCurLoopTimePerSec;
; 249  : 				while( fTimeGap > 0.0f )

  0021a	d9 ee		 fldz
  0021c	d9 85 78 ff ff
	ff		 fld	 DWORD PTR _fTimeGap$530765[ebp]
  00222	df f1		 fcomip	 ST(1)
  00224	dd d8		 fstp	 ST(0)
  00226	0f 86 0a 08 00
	00		 jbe	 $LN174@OnTracing
  0022c	81 c3 44 0a 00
	00		 add	 ebx, 2628		; 00000a44H
$LL17@OnTracing:

; 250  : 				{
; 251  : 					if( fTimeGap > FLOAT10 )

  00232	b8 0a 00 00 00	 mov	 eax, 10			; 0000000aH
  00237	d9 85 78 ff ff
	ff		 fld	 DWORD PTR _fTimeGap$530765[ebp]
  0023d	89 45 80	 mov	 DWORD PTR tv2649[ebp], eax
  00240	db 45 80	 fild	 DWORD PTR tv2649[ebp]
  00243	85 c0		 test	 eax, eax
  00245	79 06		 jns	 SHORT $LN180@OnTracing
  00247	d8 05 00 00 00
	00		 fadd	 DWORD PTR __real@4f800000
$LN180@OnTracing:
  0024d	d9 c9		 fxch	 ST(1)
  0024f	df f1		 fcomip	 ST(1)
  00251	dd d8		 fstp	 ST(0)
  00253	76 61		 jbe	 SHORT $LN15@OnTracing

; 252  : 					{
; 253  : 						fCurLoopTimeGap = FLOAT10;

  00255	b8 0a 00 00 00	 mov	 eax, 10			; 0000000aH

; 254  : 						fCurLoopTimePerSec = FLOAT10 / FLOAT1000;

  0025a	b8 0a 00 00 00	 mov	 eax, 10			; 0000000aH
  0025f	8b c8		 mov	 ecx, eax
  00261	b8 e8 03 00 00	 mov	 eax, 1000		; 000003e8H
  00266	89 4d 80	 mov	 DWORD PTR tv2640[ebp], ecx
  00269	db 45 80	 fild	 DWORD PTR tv2640[ebp]
  0026c	85 c9		 test	 ecx, ecx
  0026e	79 06		 jns	 SHORT $LN181@OnTracing
  00270	d8 05 00 00 00
	00		 fadd	 DWORD PTR __real@4f800000
$LN181@OnTracing:
  00276	89 45 80	 mov	 DWORD PTR tv2635[ebp], eax
  00279	db 45 80	 fild	 DWORD PTR tv2635[ebp]
  0027c	85 c0		 test	 eax, eax
  0027e	79 06		 jns	 SHORT $LN182@OnTracing
  00280	d8 05 00 00 00
	00		 fadd	 DWORD PTR __real@4f800000
$LN182@OnTracing:
  00286	de f9		 fdivp	 ST(1), ST(0)
  00288	d9 5d 80	 fstp	 DWORD PTR _fCurLoopTimePerSec$530768[ebp]

; 255  : 
; 256  : 						fTimeGap -= FLOAT10;

  0028b	b8 0a 00 00 00	 mov	 eax, 10			; 0000000aH
  00290	d9 85 78 ff ff
	ff		 fld	 DWORD PTR _fTimeGap$530765[ebp]
  00296	89 85 78 ff ff
	ff		 mov	 DWORD PTR tv2628[ebp], eax
  0029c	db 85 78 ff ff
	ff		 fild	 DWORD PTR tv2628[ebp]
  002a2	85 c0		 test	 eax, eax
  002a4	79 06		 jns	 SHORT $LN183@OnTracing
  002a6	d8 05 00 00 00
	00		 fadd	 DWORD PTR __real@4f800000
$LN183@OnTracing:
  002ac	de e9		 fsubp	 ST(1), ST(0)
  002ae	d9 9d 78 ff ff
	ff		 fstp	 DWORD PTR _fTimeGap$530765[ebp]

; 257  : 					}
; 258  : 					else

  002b4	eb 2b		 jmp	 SHORT $LN14@OnTracing
$LN15@OnTracing:

; 259  : 					{
; 260  : 						fCurLoopTimeGap = fTimeGap;
; 261  : 						fCurLoopTimePerSec = fTimeGap / FLOAT1000;

  002b6	b8 e8 03 00 00	 mov	 eax, 1000		; 000003e8H
  002bb	d9 85 78 ff ff
	ff		 fld	 DWORD PTR _fTimeGap$530765[ebp]
  002c1	89 45 80	 mov	 DWORD PTR tv2621[ebp], eax
  002c4	db 45 80	 fild	 DWORD PTR tv2621[ebp]
  002c7	85 c0		 test	 eax, eax
  002c9	79 06		 jns	 SHORT $LN184@OnTracing
  002cb	d8 05 00 00 00
	00		 fadd	 DWORD PTR __real@4f800000
$LN184@OnTracing:
  002d1	de f9		 fdivp	 ST(1), ST(0)

; 262  : 
; 263  : 						fTimeGap = 0.0f;

  002d3	0f 57 c0	 xorps	 xmm0, xmm0
  002d6	f3 0f 11 85 78
	ff ff ff	 movss	 DWORD PTR _fTimeGap$530765[ebp], xmm0
  002de	d9 5d 80	 fstp	 DWORD PTR _fCurLoopTimePerSec$530768[ebp]
$LN14@OnTracing:

; 264  : 					}
; 265  : 
; 266  : 					float fPosRate = m_fTargetTracePosRate;

  002e1	8b 8d 70 ff ff
	ff		 mov	 ecx, DWORD PTR _this$GSCopy$[ebp]
  002e7	8d 85 58 ff ff
	ff		 lea	 eax, DWORD PTR _value$535924[ebp]
  002ed	50		 push	 eax
  002ee	81 c1 14 09 00
	00		 add	 ecx, 2324		; 00000914H
  002f4	e8 00 00 00 00	 call	 ?DecryptValueToPool@?$CEncrypt@M@@QAEXPAM@Z ; CEncrypt<float>::DecryptValueToPool

; 267  : 					if( CheckDownTargetState( pTarget ) )

  002f9	8b b5 70 ff ff
	ff		 mov	 esi, DWORD PTR _this$GSCopy$[ebp]
  002ff	f3 0f 10 85 58
	ff ff ff	 movss	 xmm0, DWORD PTR _value$535924[ebp]
  00307	ff b5 60 ff ff
	ff		 push	 DWORD PTR _pTarget$[ebp]
  0030d	8b ce		 mov	 ecx, esi
  0030f	f3 0f 11 85 74
	ff ff ff	 movss	 DWORD PTR _fPosRate$530780[ebp], xmm0
  00317	e8 00 00 00 00	 call	 ?CheckDownTargetState@ioTraceWeapon5@@IAE_NPAVioBaseChar@@@Z ; ioTraceWeapon5::CheckDownTargetState
  0031c	84 c0		 test	 al, al
  0031e	74 22		 je	 SHORT $LN13@OnTracing

; 268  : 						fPosRate = m_fDownTargetTracePosRate;

  00320	8d 85 64 ff ff
	ff		 lea	 eax, DWORD PTR _value$535928[ebp]
  00326	50		 push	 eax
  00327	8d 8e 44 09 00
	00		 lea	 ecx, DWORD PTR [esi+2372]
  0032d	e8 00 00 00 00	 call	 ?DecryptValueToPool@?$CEncrypt@M@@QAEXPAM@Z ; CEncrypt<float>::DecryptValueToPool
  00332	f3 0f 10 85 64
	ff ff ff	 movss	 xmm0, DWORD PTR _value$535928[ebp]
  0033a	f3 0f 11 85 74
	ff ff ff	 movss	 DWORD PTR _fPosRate$530780[ebp], xmm0
$LN13@OnTracing:

; 269  : 
; 270  : 					vDiff = pTarget->GetMidPositionByRate(fPosRate) - GetPosition();

  00342	8b 06		 mov	 eax, DWORD PTR [esi]
  00344	8b ce		 mov	 ecx, esi
  00346	ff 50 70	 call	 DWORD PTR [eax+112]
  00349	f3 0f 10 85 74
	ff ff ff	 movss	 xmm0, DWORD PTR _fPosRate$530780[ebp]
  00351	51		 push	 ecx
  00352	8b 8d 60 ff ff
	ff		 mov	 ecx, DWORD PTR _pTarget$[ebp]
  00358	8b f0		 mov	 esi, eax
  0035a	8d 45 84	 lea	 eax, DWORD PTR $T530782[ebp]
  0035d	f3 0f 11 04 24	 movss	 DWORD PTR [esp], xmm0
  00362	50		 push	 eax
  00363	e8 00 00 00 00	 call	 ?GetMidPositionByRate@ioGameEntity@@QBE?AUD3DXVECTOR3@@M@Z ; ioGameEntity::GetMidPositionByRate
  00368	f3 0f 10 00	 movss	 xmm0, DWORD PTR [eax]
  0036c	f3 0f 10 0e	 movss	 xmm1, DWORD PTR [esi]
  00370	0f 5a c0	 cvtps2pd xmm0, xmm0
  00373	0f 5a c9	 cvtps2pd xmm1, xmm1
  00376	f2 0f 5c c1	 subsd	 xmm0, xmm1
  0037a	f3 0f 10 4e 04	 movss	 xmm1, DWORD PTR [esi+4]
  0037f	66 0f 5a c0	 cvtpd2ps xmm0, xmm0
  00383	f3 0f 11 85 4c
	ff ff ff	 movss	 DWORD PTR $T530783[ebp], xmm0
  0038b	f3 0f 10 40 04	 movss	 xmm0, DWORD PTR [eax+4]
  00390	0f 5a c0	 cvtps2pd xmm0, xmm0
  00393	0f 5a c9	 cvtps2pd xmm1, xmm1
  00396	f2 0f 5c c1	 subsd	 xmm0, xmm1
  0039a	f3 0f 10 4e 08	 movss	 xmm1, DWORD PTR [esi+8]
  0039f	66 0f 5a c0	 cvtpd2ps xmm0, xmm0
  003a3	f3 0f 11 85 50
	ff ff ff	 movss	 DWORD PTR $T530783[ebp+4], xmm0
  003ab	f3 0f 10 40 08	 movss	 xmm0, DWORD PTR [eax+8]
  003b0	0f 5a c0	 cvtps2pd xmm0, xmm0
  003b3	0f 5a c9	 cvtps2pd xmm1, xmm1
  003b6	f2 0f 5c c1	 subsd	 xmm0, xmm1
  003ba	66 0f 5a c0	 cvtpd2ps xmm0, xmm0
  003be	f3 0f 11 85 54
	ff ff ff	 movss	 DWORD PTR $T530783[ebp+8], xmm0
  003c6	8d b5 4c ff ff
	ff		 lea	 esi, DWORD PTR $T530783[ebp]
  003cc	8d 7d f0	 lea	 edi, DWORD PTR _vDiff$530759[ebp]
  003cf	a5		 movsd

; 271  : 					D3DXVec3Normalize( &vDiff, &vDiff );

  003d0	8d 45 f0	 lea	 eax, DWORD PTR _vDiff$530759[ebp]
  003d3	a5		 movsd
  003d4	50		 push	 eax
  003d5	50		 push	 eax
  003d6	a5		 movsd
  003d7	e8 00 00 00 00	 call	 _D3DXVec3Normalize@8

; 272  : 
; 273  : 					D3DXVECTOR3 vPreDir = m_vMoveDir;

  003dc	8b f3		 mov	 esi, ebx
  003de	8d bd 04 ff ff
	ff		 lea	 edi, DWORD PTR _vPreDir$530784[ebp]
  003e4	a5		 movsd
  003e5	a5		 movsd
  003e6	a5		 movsd

; 274  : 					D3DXVECTOR3 vCurForce = m_vMoveDir * m_fTraceSpeed * fCurLoopTimePerSec;

  003e7	8b b5 70 ff ff
	ff		 mov	 esi, DWORD PTR _this$GSCopy$[ebp]
  003ed	8d 85 6c ff ff
	ff		 lea	 eax, DWORD PTR _value$535945[ebp]
  003f3	50		 push	 eax
  003f4	8d 8e 78 09 00
	00		 lea	 ecx, DWORD PTR [esi+2424]
  003fa	e8 00 00 00 00	 call	 ?DecryptValueToPool@?$CEncrypt@M@@QAEXPAM@Z ; CEncrypt<float>::DecryptValueToPool
  003ff	f3 0f 10 85 6c
	ff ff ff	 movss	 xmm0, DWORD PTR _value$535945[ebp]
  00407	f3 0f 10 0b	 movss	 xmm1, DWORD PTR [ebx]
  0040b	f3 0f 10 53 04	 movss	 xmm2, DWORD PTR [ebx+4]
  00410	f3 0f 10 5b 08	 movss	 xmm3, DWORD PTR [ebx+8]
  00415	0f 5a c0	 cvtps2pd xmm0, xmm0
  00418	0f 5a c9	 cvtps2pd xmm1, xmm1
  0041b	f2 0f 59 c1	 mulsd	 xmm0, xmm1
  0041f	f3 0f 10 8d 6c
	ff ff ff	 movss	 xmm1, DWORD PTR _value$535945[ebp]
  00427	0f 5a d2	 cvtps2pd xmm2, xmm2
  0042a	0f 5a c9	 cvtps2pd xmm1, xmm1
  0042d	f2 0f 59 ca	 mulsd	 xmm1, xmm2
  00431	f3 0f 10 95 6c
	ff ff ff	 movss	 xmm2, DWORD PTR _value$535945[ebp]
  00439	f2 0f 5a c0	 cvtsd2ss xmm0, xmm0
  0043d	0f 5a db	 cvtps2pd xmm3, xmm3
  00440	f3 0f 5a c0	 cvtss2sd xmm0, xmm0
  00444	0f 5a d2	 cvtps2pd xmm2, xmm2
  00447	f2 0f 59 d3	 mulsd	 xmm2, xmm3
  0044b	f3 0f 10 5d 80	 movss	 xmm3, DWORD PTR _fCurLoopTimePerSec$530768[ebp]
  00450	0f 5a db	 cvtps2pd xmm3, xmm3
  00453	f2 0f 59 c3	 mulsd	 xmm0, xmm3
  00457	f2 0f 5a c0	 cvtsd2ss xmm0, xmm0
  0045b	f3 0f 11 45 d8	 movss	 DWORD PTR _vCurForce$530785[ebp], xmm0
  00460	f2 0f 5a c9	 cvtsd2ss xmm1, xmm1
  00464	0f 57 c0	 xorps	 xmm0, xmm0
  00467	f3 0f 5a c1	 cvtss2sd xmm0, xmm1
  0046b	f3 0f 10 4d 80	 movss	 xmm1, DWORD PTR _fCurLoopTimePerSec$530768[ebp]
  00470	0f 5a c9	 cvtps2pd xmm1, xmm1
  00473	f2 0f 59 c1	 mulsd	 xmm0, xmm1
  00477	f2 0f 5a d2	 cvtsd2ss xmm2, xmm2
  0047b	66 0f 5a c0	 cvtpd2ps xmm0, xmm0
  0047f	f3 0f 10 4d 80	 movss	 xmm1, DWORD PTR _fCurLoopTimePerSec$530768[ebp]
  00484	f3 0f 11 45 dc	 movss	 DWORD PTR _vCurForce$530785[ebp+4], xmm0
  00489	0f 57 c0	 xorps	 xmm0, xmm0
  0048c	f3 0f 5a c2	 cvtss2sd xmm0, xmm2
  00490	0f 5a c9	 cvtps2pd xmm1, xmm1

; 275  : 					m_vMoveDir = vCurForce + (vDiff * m_fTraceRotSpeed * fCurLoopTimePerSec);

  00493	8d 85 68 ff ff
	ff		 lea	 eax, DWORD PTR _value$535973[ebp]
  00499	f2 0f 59 c1	 mulsd	 xmm0, xmm1
  0049d	66 0f 5a c0	 cvtpd2ps xmm0, xmm0
  004a1	50		 push	 eax
  004a2	8d 8e d8 09 00
	00		 lea	 ecx, DWORD PTR [esi+2520]
  004a8	f3 0f 11 45 e0	 movss	 DWORD PTR _vCurForce$530785[ebp+8], xmm0
  004ad	e8 00 00 00 00	 call	 ?DecryptValueToPool@?$CEncrypt@M@@QAEXPAM@Z ; CEncrypt<float>::DecryptValueToPool
  004b2	f3 0f 10 85 68
	ff ff ff	 movss	 xmm0, DWORD PTR _value$535973[ebp]
  004ba	f3 0f 10 4d f0	 movss	 xmm1, DWORD PTR _vDiff$530759[ebp]
  004bf	f3 0f 10 95 68
	ff ff ff	 movss	 xmm2, DWORD PTR _value$535973[ebp]
  004c7	f3 0f 10 9d 68
	ff ff ff	 movss	 xmm3, DWORD PTR _value$535973[ebp]
  004cf	0f 5a c0	 cvtps2pd xmm0, xmm0
  004d2	0f 5a c9	 cvtps2pd xmm1, xmm1
  004d5	f2 0f 59 c1	 mulsd	 xmm0, xmm1
  004d9	f3 0f 10 4d f4	 movss	 xmm1, DWORD PTR _vDiff$530759[ebp+4]
  004de	f2 0f 5a c0	 cvtsd2ss xmm0, xmm0
  004e2	0f 5a c9	 cvtps2pd xmm1, xmm1
  004e5	0f 5a d2	 cvtps2pd xmm2, xmm2
  004e8	f2 0f 59 ca	 mulsd	 xmm1, xmm2
  004ec	f3 0f 10 55 f8	 movss	 xmm2, DWORD PTR _vDiff$530759[ebp+8]
  004f1	f3 0f 5a c0	 cvtss2sd xmm0, xmm0
  004f5	0f 5a db	 cvtps2pd xmm3, xmm3
  004f8	0f 5a d2	 cvtps2pd xmm2, xmm2
  004fb	f2 0f 59 d3	 mulsd	 xmm2, xmm3
  004ff	f3 0f 10 5d 80	 movss	 xmm3, DWORD PTR _fCurLoopTimePerSec$530768[ebp]
  00504	0f 5a db	 cvtps2pd xmm3, xmm3
  00507	f2 0f 59 c3	 mulsd	 xmm0, xmm3
  0050b	f3 0f 10 5d 80	 movss	 xmm3, DWORD PTR _fCurLoopTimePerSec$530768[ebp]
  00510	66 0f 5a c9	 cvtpd2ps xmm1, xmm1
  00514	f2 0f 5a c0	 cvtsd2ss xmm0, xmm0
  00518	f3 0f 5a c9	 cvtss2sd xmm1, xmm1
  0051c	0f 5a db	 cvtps2pd xmm3, xmm3
  0051f	f2 0f 59 cb	 mulsd	 xmm1, xmm3
  00523	f3 0f 10 5d 80	 movss	 xmm3, DWORD PTR _fCurLoopTimePerSec$530768[ebp]
  00528	f3 0f 5a c0	 cvtss2sd xmm0, xmm0
  0052c	66 0f 5a d2	 cvtpd2ps xmm2, xmm2
  00530	0f 5a db	 cvtps2pd xmm3, xmm3
  00533	f3 0f 5a d2	 cvtss2sd xmm2, xmm2
  00537	f2 0f 59 d3	 mulsd	 xmm2, xmm3
  0053b	f3 0f 10 5d d8	 movss	 xmm3, DWORD PTR _vCurForce$530785[ebp]
  00540	66 0f 5a c9	 cvtpd2ps xmm1, xmm1
  00544	0f 5a db	 cvtps2pd xmm3, xmm3
  00547	f2 0f 58 c3	 addsd	 xmm0, xmm3
  0054b	f2 0f 5a c0	 cvtsd2ss xmm0, xmm0
  0054f	f3 0f 11 85 34
	ff ff ff	 movss	 DWORD PTR $T530790[ebp], xmm0
  00557	0f 57 c0	 xorps	 xmm0, xmm0
  0055a	f3 0f 5a c1	 cvtss2sd xmm0, xmm1
  0055e	f3 0f 10 4d dc	 movss	 xmm1, DWORD PTR _vCurForce$530785[ebp+4]
  00563	0f 5a c9	 cvtps2pd xmm1, xmm1
  00566	f2 0f 58 c1	 addsd	 xmm0, xmm1
  0056a	f3 0f 10 4d e0	 movss	 xmm1, DWORD PTR _vCurForce$530785[ebp+8]
  0056f	66 0f 5a c0	 cvtpd2ps xmm0, xmm0
  00573	f3 0f 11 85 38
	ff ff ff	 movss	 DWORD PTR $T530790[ebp+4], xmm0
  0057b	0f 57 c0	 xorps	 xmm0, xmm0
  0057e	66 0f 5a d2	 cvtpd2ps xmm2, xmm2
  00582	f3 0f 5a c2	 cvtss2sd xmm0, xmm2
  00586	0f 5a c9	 cvtps2pd xmm1, xmm1
  00589	f2 0f 58 c1	 addsd	 xmm0, xmm1
  0058d	66 0f 5a c0	 cvtpd2ps xmm0, xmm0
  00591	f3 0f 11 85 3c
	ff ff ff	 movss	 DWORD PTR $T530790[ebp+8], xmm0
  00599	8d b5 34 ff ff
	ff		 lea	 esi, DWORD PTR $T530790[ebp]
  0059f	8b fb		 mov	 edi, ebx
  005a1	a5		 movsd
  005a2	a5		 movsd

; 276  : 
; 277  : 					D3DXVec3Normalize( &m_vMoveDir, &m_vMoveDir );

  005a3	53		 push	 ebx
  005a4	53		 push	 ebx
  005a5	a5		 movsd
  005a6	e8 00 00 00 00	 call	 _D3DXVec3Normalize@8

; 278  : 
; 279  : 					float fCos = D3DXVec3Dot( &vPreDir, &m_vMoveDir );

  005ab	d9 85 08 ff ff
	ff		 fld	 DWORD PTR _vPreDir$530784[ebp+4]
  005b1	d8 4b 04	 fmul	 DWORD PTR [ebx+4]
  005b4	d9 85 04 ff ff
	ff		 fld	 DWORD PTR _vPreDir$530784[ebp]
  005ba	d8 0b		 fmul	 DWORD PTR [ebx]
  005bc	de c1		 faddp	 ST(1), ST(0)
  005be	d9 85 0c ff ff
	ff		 fld	 DWORD PTR _vPreDir$530784[ebp+8]
  005c4	d8 4b 08	 fmul	 DWORD PTR [ebx+8]
  005c7	de c1		 faddp	 ST(1), ST(0)
  005c9	d9 5d 80	 fstp	 DWORD PTR _fCos$530791[ebp]

; 280  : 					// 0 
; 281  : 					if( fCos >= FLOAT1 )

  005cc	b8 01 00 00 00	 mov	 eax, 1
  005d1	d9 45 80	 fld	 DWORD PTR _fCos$530791[ebp]
  005d4	89 85 5c ff ff
	ff		 mov	 DWORD PTR tv2542[ebp], eax
  005da	db 85 5c ff ff
	ff		 fild	 DWORD PTR tv2542[ebp]
  005e0	85 c0		 test	 eax, eax
  005e2	79 06		 jns	 SHORT $LN185@OnTracing
  005e4	d8 05 00 00 00
	00		 fadd	 DWORD PTR __real@4f800000
$LN185@OnTracing:
  005ea	d9 c9		 fxch	 ST(1)
  005ec	df f1		 fcomip	 ST(1)
  005ee	dd d8		 fstp	 ST(0)
  005f0	0f 83 17 04 00
	00		 jae	 $LN7@OnTracing

; 282  : 					{
; 283  : 						//  
; 284  : 					}
; 285  : 					else if( fCos <= -FLOAT1 ) // 180 

  005f6	b8 01 00 00 00	 mov	 eax, 1
  005fb	d9 45 80	 fld	 DWORD PTR _fCos$530791[ebp]
  005fe	89 85 5c ff ff
	ff		 mov	 DWORD PTR tv2534[ebp], eax
  00604	db 85 5c ff ff
	ff		 fild	 DWORD PTR tv2534[ebp]
  0060a	85 c0		 test	 eax, eax
  0060c	79 06		 jns	 SHORT $LN186@OnTracing
  0060e	d8 05 00 00 00
	00		 fadd	 DWORD PTR __real@4f800000
$LN186@OnTracing:
  00614	d9 e0		 fchs
  00616	df f1		 fcomip	 ST(1)
  00618	dd d8		 fstp	 ST(0)
  0061a	0f 82 df 02 00
	00		 jb	 $LN10@OnTracing

; 286  : 					{
; 287  : 						D3DXVECTOR3 vAxis1, vAxis2;
; 288  : 						if( m_vMoveDir != ioMath::UNIT_Y )

  00620	8b 0d 00 00 00
	00		 mov	 ecx, DWORD PTR __imp_?UNIT_Y@ioMath@@2UD3DXVECTOR3@@A
  00626	f3 0f 10 33	 movss	 xmm6, DWORD PTR [ebx]
  0062a	f3 0f 10 01	 movss	 xmm0, DWORD PTR [ecx]
  0062e	0f 57 c9	 xorps	 xmm1, xmm1
  00631	0f 5a ce	 cvtps2pd xmm1, xmm6
  00634	0f 5a c0	 cvtps2pd xmm0, xmm0
  00637	66 0f 2e c8	 ucomisd xmm1, xmm0
  0063b	9f		 lahf
  0063c	f6 c4 44	 test	 ah, 68			; 00000044H
  0063f	7a 38		 jp	 SHORT $LN97@OnTracing
  00641	f3 0f 10 43 04	 movss	 xmm0, DWORD PTR [ebx+4]
  00646	f3 0f 10 49 04	 movss	 xmm1, DWORD PTR [ecx+4]
  0064b	0f 5a c0	 cvtps2pd xmm0, xmm0
  0064e	0f 5a c9	 cvtps2pd xmm1, xmm1
  00651	66 0f 2e c1	 ucomisd xmm0, xmm1
  00655	9f		 lahf
  00656	f6 c4 44	 test	 ah, 68			; 00000044H
  00659	7a 1e		 jp	 SHORT $LN97@OnTracing
  0065b	f3 0f 10 43 08	 movss	 xmm0, DWORD PTR [ebx+8]
  00660	f3 0f 10 49 08	 movss	 xmm1, DWORD PTR [ecx+8]
  00665	0f 5a c0	 cvtps2pd xmm0, xmm0
  00668	0f 5a c9	 cvtps2pd xmm1, xmm1
  0066b	66 0f 2e c1	 ucomisd xmm0, xmm1
  0066f	9f		 lahf
  00670	f6 c4 44	 test	 ah, 68			; 00000044H
  00673	0f 8b b5 00 00
	00		 jnp	 $LN9@OnTracing
$LN97@OnTracing:

; 289  : 						{
; 290  : 							D3DXVec3Cross( &vAxis1, &m_vMoveDir, &ioMath::UNIT_Y );

  00679	f3 0f 10 51 08	 movss	 xmm2, DWORD PTR [ecx+8]
  0067e	f3 0f 10 5b 08	 movss	 xmm3, DWORD PTR [ebx+8]
  00683	f3 0f 10 43 04	 movss	 xmm0, DWORD PTR [ebx+4]
  00688	f3 0f 10 61 04	 movss	 xmm4, DWORD PTR [ecx+4]
  0068d	0f 5a ea	 cvtps2pd xmm5, xmm2
  00690	0f 5a c8	 cvtps2pd xmm1, xmm0
  00693	f2 0f 59 cd	 mulsd	 xmm1, xmm5
  00697	0f 5a fc	 cvtps2pd xmm7, xmm4
  0069a	0f 5a d2	 cvtps2pd xmm2, xmm2
  0069d	0f 5a c0	 cvtps2pd xmm0, xmm0
  006a0	0f 5a eb	 cvtps2pd xmm5, xmm3
  006a3	f2 0f 59 ef	 mulsd	 xmm5, xmm7
  006a7	f2 0f 5c cd	 subsd	 xmm1, xmm5
  006ab	0f 5a e4	 cvtps2pd xmm4, xmm4
  006ae	66 0f 5a c9	 cvtpd2ps xmm1, xmm1
  006b2	f3 0f 11 8d 28
	ff ff ff	 movss	 DWORD PTR _v$536044[ebp], xmm1
  006ba	8d b5 28 ff ff
	ff		 lea	 esi, DWORD PTR _v$536044[ebp]
  006c0	0f 5a eb	 cvtps2pd xmm5, xmm3
  006c3	f3 0f 10 19	 movss	 xmm3, DWORD PTR [ecx]
  006c7	0f 5a fb	 cvtps2pd xmm7, xmm3
  006ca	f2 0f 59 ef	 mulsd	 xmm5, xmm7
  006ce	0f 5a db	 cvtps2pd xmm3, xmm3
  006d1	f2 0f 59 c3	 mulsd	 xmm0, xmm3

; 291  : 							D3DXVec3Normalize( &vAxis1, &-vAxis1 );

  006d5	8d 45 b4	 lea	 eax, DWORD PTR $T530800[ebp]
  006d8	0f 5a fe	 cvtps2pd xmm7, xmm6
  006db	f2 0f 59 fa	 mulsd	 xmm7, xmm2
  006df	f2 0f 5c ef	 subsd	 xmm5, xmm7
  006e3	0f 57 d2	 xorps	 xmm2, xmm2
  006e6	66 0f 5a d5	 cvtpd2ps xmm2, xmm5
  006ea	f3 0f 11 95 2c
	ff ff ff	 movss	 DWORD PTR _v$536044[ebp+4], xmm2
  006f2	0f 5a ee	 cvtps2pd xmm5, xmm6
  006f5	f2 0f 59 ec	 mulsd	 xmm5, xmm4
  006f9	f2 0f 5c e8	 subsd	 xmm5, xmm0
  006fd	f3 0f 10 05 00
	00 00 00	 movss	 xmm0, DWORD PTR __mask@@NegFloat@
  00705	66 0f 5a dd	 cvtpd2ps xmm3, xmm5
  00709	f3 0f 11 9d 30
	ff ff ff	 movss	 DWORD PTR _v$536044[ebp+8], xmm3
  00711	0f 57 c8	 xorps	 xmm1, xmm0
  00714	0f 57 d0	 xorps	 xmm2, xmm0
  00717	0f 57 d8	 xorps	 xmm3, xmm0
  0071a	f3 0f 11 4d b4	 movss	 DWORD PTR $T530800[ebp], xmm1
  0071f	f3 0f 11 55 b8	 movss	 DWORD PTR $T530800[ebp+4], xmm2
  00724	f3 0f 11 5d bc	 movss	 DWORD PTR $T530800[ebp+8], xmm3

; 292  : 						}
; 293  : 						else

  00729	e9 b5 00 00 00	 jmp	 $LN190@OnTracing
$LN9@OnTracing:

; 294  : 						{
; 295  : 							D3DXVec3Cross( &vAxis1, &m_vMoveDir, &ioMath::UNIT_X );

  0072e	a1 00 00 00 00	 mov	 eax, DWORD PTR __imp_?UNIT_X@ioMath@@2UD3DXVECTOR3@@A
  00733	f3 0f 10 50 08	 movss	 xmm2, DWORD PTR [eax+8]
  00738	f3 0f 10 60 04	 movss	 xmm4, DWORD PTR [eax+4]
  0073d	f3 0f 10 43 04	 movss	 xmm0, DWORD PTR [ebx+4]
  00742	f3 0f 10 5b 08	 movss	 xmm3, DWORD PTR [ebx+8]
  00747	0f 5a ea	 cvtps2pd xmm5, xmm2
  0074a	0f 5a c8	 cvtps2pd xmm1, xmm0
  0074d	0f 5a fc	 cvtps2pd xmm7, xmm4
  00750	f2 0f 59 cd	 mulsd	 xmm1, xmm5
  00754	0f 5a d2	 cvtps2pd xmm2, xmm2
  00757	0f 5a e4	 cvtps2pd xmm4, xmm4
  0075a	0f 5a eb	 cvtps2pd xmm5, xmm3
  0075d	f2 0f 59 ef	 mulsd	 xmm5, xmm7
  00761	f2 0f 5c cd	 subsd	 xmm1, xmm5
  00765	f3 0f 10 28	 movss	 xmm5, DWORD PTR [eax]
  00769	0f 5a fd	 cvtps2pd xmm7, xmm5
  0076c	0f 5a db	 cvtps2pd xmm3, xmm3
  0076f	f2 0f 59 df	 mulsd	 xmm3, xmm7
  00773	0f 5a c0	 cvtps2pd xmm0, xmm0
  00776	66 0f 5a c9	 cvtpd2ps xmm1, xmm1
  0077a	f3 0f 11 8d 1c
	ff ff ff	 movss	 DWORD PTR _v$536067[ebp], xmm1
  00782	0f 5a fe	 cvtps2pd xmm7, xmm6
  00785	f2 0f 59 fa	 mulsd	 xmm7, xmm2
  00789	f2 0f 5c df	 subsd	 xmm3, xmm7
  0078d	0f 57 d2	 xorps	 xmm2, xmm2
  00790	66 0f 5a d3	 cvtpd2ps xmm2, xmm3
  00794	f3 0f 11 95 20
	ff ff ff	 movss	 DWORD PTR _v$536067[ebp+4], xmm2
  0079c	8d b5 1c ff ff
	ff		 lea	 esi, DWORD PTR _v$536067[ebp]

; 296  : 							D3DXVec3Normalize( &vAxis1, &-vAxis1 );

  007a2	8d 45 a8	 lea	 eax, DWORD PTR $T530802[ebp]
  007a5	0f 5a de	 cvtps2pd xmm3, xmm6
  007a8	f2 0f 59 dc	 mulsd	 xmm3, xmm4
  007ac	0f 5a e5	 cvtps2pd xmm4, xmm5
  007af	f2 0f 59 c4	 mulsd	 xmm0, xmm4
  007b3	f2 0f 5c d8	 subsd	 xmm3, xmm0
  007b7	f3 0f 10 05 00
	00 00 00	 movss	 xmm0, DWORD PTR __mask@@NegFloat@
  007bf	66 0f 5a db	 cvtpd2ps xmm3, xmm3
  007c3	f3 0f 11 9d 24
	ff ff ff	 movss	 DWORD PTR _v$536067[ebp+8], xmm3
  007cb	0f 57 c8	 xorps	 xmm1, xmm0
  007ce	0f 57 d0	 xorps	 xmm2, xmm0
  007d1	0f 57 d8	 xorps	 xmm3, xmm0
  007d4	f3 0f 11 4d a8	 movss	 DWORD PTR $T530802[ebp], xmm1
  007d9	f3 0f 11 55 ac	 movss	 DWORD PTR $T530802[ebp+4], xmm2
  007de	f3 0f 11 5d b0	 movss	 DWORD PTR $T530802[ebp+8], xmm3
$LN190@OnTracing:

; 294  : 						{
; 295  : 							D3DXVec3Cross( &vAxis1, &m_vMoveDir, &ioMath::UNIT_X );

  007e3	8d 7d e4	 lea	 edi, DWORD PTR _vAxis1$530797[ebp]
  007e6	a5		 movsd

; 296  : 							D3DXVec3Normalize( &vAxis1, &-vAxis1 );

  007e7	50		 push	 eax
  007e8	a5		 movsd
  007e9	8d 45 e4	 lea	 eax, DWORD PTR _vAxis1$530797[ebp]
  007ec	50		 push	 eax
  007ed	a5		 movsd
  007ee	e8 00 00 00 00	 call	 _D3DXVec3Normalize@8

; 297  : 						}
; 298  : 
; 299  : 						D3DXVec3Cross( &vAxis2, &m_vMoveDir, &vAxis1 );

  007f3	f3 0f 10 43 04	 movss	 xmm0, DWORD PTR [ebx+4]
  007f8	f3 0f 10 4d ec	 movss	 xmm1, DWORD PTR _vAxis1$530797[ebp+8]
  007fd	f3 0f 10 53 08	 movss	 xmm2, DWORD PTR [ebx+8]
  00802	0f 5a d8	 cvtps2pd xmm3, xmm0
  00805	0f 5a e2	 cvtps2pd xmm4, xmm2
  00808	0f 5a c9	 cvtps2pd xmm1, xmm1
  0080b	f2 0f 59 cb	 mulsd	 xmm1, xmm3
  0080f	f3 0f 10 5d e8	 movss	 xmm3, DWORD PTR _vAxis1$530797[ebp+4]
  00814	0f 5a db	 cvtps2pd xmm3, xmm3
  00817	f2 0f 59 dc	 mulsd	 xmm3, xmm4
  0081b	f3 0f 10 65 e4	 movss	 xmm4, DWORD PTR _vAxis1$530797[ebp]
  00820	f2 0f 5c cb	 subsd	 xmm1, xmm3
  00824	f3 0f 10 1b	 movss	 xmm3, DWORD PTR [ebx]
  00828	0f 5a e4	 cvtps2pd xmm4, xmm4
  0082b	0f 5a d2	 cvtps2pd xmm2, xmm2
  0082e	f2 0f 59 d4	 mulsd	 xmm2, xmm4
  00832	f3 0f 10 65 ec	 movss	 xmm4, DWORD PTR _vAxis1$530797[ebp+8]
  00837	0f 5a eb	 cvtps2pd xmm5, xmm3
  0083a	0f 5a e4	 cvtps2pd xmm4, xmm4
  0083d	f2 0f 59 e5	 mulsd	 xmm4, xmm5
  00841	f2 0f 5c d4	 subsd	 xmm2, xmm4
  00845	f3 0f 10 65 e8	 movss	 xmm4, DWORD PTR _vAxis1$530797[ebp+4]
  0084a	0f 5a db	 cvtps2pd xmm3, xmm3
  0084d	0f 5a e4	 cvtps2pd xmm4, xmm4
  00850	f2 0f 59 e3	 mulsd	 xmm4, xmm3
  00854	f3 0f 10 5d e4	 movss	 xmm3, DWORD PTR _vAxis1$530797[ebp]
  00859	0f 5a db	 cvtps2pd xmm3, xmm3
  0085c	0f 5a c0	 cvtps2pd xmm0, xmm0
  0085f	f2 0f 59 c3	 mulsd	 xmm0, xmm3
  00863	f2 0f 5c e0	 subsd	 xmm4, xmm0

; 300  : 						D3DXVec3Normalize( &vAxis2, &-vAxis2 );

  00867	f3 0f 10 05 00
	00 00 00	 movss	 xmm0, DWORD PTR __mask@@NegFloat@
  0086f	0f 57 db	 xorps	 xmm3, xmm3
  00872	f2 0f 5a c9	 cvtsd2ss xmm1, xmm1
  00876	f3 0f 11 8d 10
	ff ff ff	 movss	 DWORD PTR _v$536090[ebp], xmm1
  0087e	66 0f 5a d2	 cvtpd2ps xmm2, xmm2
  00882	f3 0f 11 95 14
	ff ff ff	 movss	 DWORD PTR _v$536090[ebp+4], xmm2
  0088a	f2 0f 5a dc	 cvtsd2ss xmm3, xmm4
  0088e	f3 0f 11 9d 18
	ff ff ff	 movss	 DWORD PTR _v$536090[ebp+8], xmm3
  00896	8d b5 10 ff ff
	ff		 lea	 esi, DWORD PTR _v$536090[ebp]
  0089c	8d 7d c0	 lea	 edi, DWORD PTR _vAxis2$530798[ebp]
  0089f	a5		 movsd
  008a0	8d 45 9c	 lea	 eax, DWORD PTR $T530803[ebp]
  008a3	a5		 movsd
  008a4	50		 push	 eax
  008a5	8d 45 c0	 lea	 eax, DWORD PTR _vAxis2$530798[ebp]
  008a8	0f 57 c8	 xorps	 xmm1, xmm0
  008ab	0f 57 d0	 xorps	 xmm2, xmm0
  008ae	0f 57 d8	 xorps	 xmm3, xmm0
  008b1	50		 push	 eax
  008b2	a5		 movsd
  008b3	f3 0f 11 4d 9c	 movss	 DWORD PTR $T530803[ebp], xmm1
  008b8	f3 0f 11 55 a0	 movss	 DWORD PTR $T530803[ebp+4], xmm2
  008bd	f3 0f 11 5d a4	 movss	 DWORD PTR $T530803[ebp+8], xmm3
  008c2	e8 00 00 00 00	 call	 _D3DXVec3Normalize@8

; 301  : 
; 302  : 						GetParentSceneNode()->Rotate( vAxis2, FLOAT1 );

  008c7	8b 85 70 ff ff
	ff		 mov	 eax, DWORD PTR _this$GSCopy$[ebp]
  008cd	8b 48 04	 mov	 ecx, DWORD PTR [eax+4]
  008d0	b8 01 00 00 00	 mov	 eax, 1
  008d5	8b 11		 mov	 edx, DWORD PTR [ecx]
  008d7	89 85 5c ff ff
	ff		 mov	 DWORD PTR tv2428[ebp], eax
  008dd	db 85 5c ff ff
	ff		 fild	 DWORD PTR tv2428[ebp]
  008e3	6a 01		 push	 1
  008e5	85 c0		 test	 eax, eax
  008e7	79 06		 jns	 SHORT $LN187@OnTracing
  008e9	d8 05 00 00 00
	00		 fadd	 DWORD PTR __real@4f800000
$LN187@OnTracing:
  008ef	51		 push	 ecx
  008f0	8d 45 c0	 lea	 eax, DWORD PTR _vAxis2$530798[ebp]
  008f3	d9 1c 24	 fstp	 DWORD PTR [esp]
  008f6	50		 push	 eax
  008f7	ff 52 50	 call	 DWORD PTR [edx+80]

; 303  : 					}
; 304  : 					else // 

  008fa	e9 0e 01 00 00	 jmp	 $LN7@OnTracing
$LN10@OnTracing:

; 305  : 					{
; 306  : 						float fGapAngle = RADtoDEG( acos( fCos ) );

  008ff	d9 45 80	 fld	 DWORD PTR _fCos$530791[ebp]
  00902	e8 00 00 00 00	 call	 __CIacos
  00907	d9 5d 80	 fstp	 DWORD PTR tv2420[ebp]
  0090a	d9 45 80	 fld	 DWORD PTR tv2420[ebp]
  0090d	51		 push	 ecx
  0090e	d9 1c 24	 fstp	 DWORD PTR [esp]
  00911	e8 00 00 00 00	 call	 ??$RADtoDEG@M@@YAMM@Z	; RADtoDEG<float>

; 307  : 
; 308  : 						D3DXVECTOR3 vAxis;
; 309  : 						D3DXVec3Cross( &vAxis, &vDiff, &m_vMoveDir );

  00916	f3 0f 10 55 f4	 movss	 xmm2, DWORD PTR _vDiff$530759[ebp+4]
  0091b	d9 5d 80	 fstp	 DWORD PTR _fGapAngle$530806[ebp]
  0091e	f3 0f 10 43 08	 movss	 xmm0, DWORD PTR [ebx+8]
  00923	f3 0f 10 5b 04	 movss	 xmm3, DWORD PTR [ebx+4]
  00928	f3 0f 10 65 f8	 movss	 xmm4, DWORD PTR _vDiff$530759[ebp+8]
  0092d	0f 5a d2	 cvtps2pd xmm2, xmm2
  00930	0f 5a c8	 cvtps2pd xmm1, xmm0
  00933	f2 0f 59 ca	 mulsd	 xmm1, xmm2
  00937	0f 5a e4	 cvtps2pd xmm4, xmm4
  0093a	0f 5a c0	 cvtps2pd xmm0, xmm0
  0093d	8d b5 40 ff ff
	ff		 lea	 esi, DWORD PTR _v$536133[ebp]
  00943	0f 5a d3	 cvtps2pd xmm2, xmm3
  00946	f2 0f 59 d4	 mulsd	 xmm2, xmm4
  0094a	f3 0f 10 23	 movss	 xmm4, DWORD PTR [ebx]
  0094e	f2 0f 5c ca	 subsd	 xmm1, xmm2
  00952	f3 0f 10 55 f8	 movss	 xmm2, DWORD PTR _vDiff$530759[ebp+8]
  00957	0f 5a d2	 cvtps2pd xmm2, xmm2
  0095a	0f 5a ec	 cvtps2pd xmm5, xmm4
  0095d	f2 0f 59 d5	 mulsd	 xmm2, xmm5
  00961	f3 0f 10 6d f0	 movss	 xmm5, DWORD PTR _vDiff$530759[ebp]
  00966	0f 5a ed	 cvtps2pd xmm5, xmm5
  00969	f2 0f 59 c5	 mulsd	 xmm0, xmm5
  0096d	f2 0f 5c d0	 subsd	 xmm2, xmm0
  00971	0f 5a e4	 cvtps2pd xmm4, xmm4
  00974	66 0f 5a c9	 cvtpd2ps xmm1, xmm1
  00978	f3 0f 11 8d 40
	ff ff ff	 movss	 DWORD PTR _v$536133[ebp], xmm1
  00980	f2 0f 5a d2	 cvtsd2ss xmm2, xmm2
  00984	0f 5a c3	 cvtps2pd xmm0, xmm3
  00987	f3 0f 10 5d f0	 movss	 xmm3, DWORD PTR _vDiff$530759[ebp]
  0098c	0f 5a db	 cvtps2pd xmm3, xmm3
  0098f	f2 0f 59 c3	 mulsd	 xmm0, xmm3
  00993	f3 0f 10 5d f4	 movss	 xmm3, DWORD PTR _vDiff$530759[ebp+4]
  00998	0f 5a db	 cvtps2pd xmm3, xmm3
  0099b	f2 0f 59 dc	 mulsd	 xmm3, xmm4
  0099f	f2 0f 5c c3	 subsd	 xmm0, xmm3
  009a3	f3 0f 11 95 44
	ff ff ff	 movss	 DWORD PTR _v$536133[ebp+4], xmm2
  009ab	0f 57 db	 xorps	 xmm3, xmm3
  009ae	66 0f 5a d8	 cvtpd2ps xmm3, xmm0

; 310  : 						D3DXVec3Normalize( &vAxis, &-vAxis );

  009b2	f3 0f 10 05 00
	00 00 00	 movss	 xmm0, DWORD PTR __mask@@NegFloat@
  009ba	f3 0f 11 9d 48
	ff ff ff	 movss	 DWORD PTR _v$536133[ebp+8], xmm3
  009c2	8d 7d 90	 lea	 edi, DWORD PTR _vAxis$530811[ebp]
  009c5	a5		 movsd
  009c6	59		 pop	 ecx
  009c7	8d 45 cc	 lea	 eax, DWORD PTR $T530812[ebp]
  009ca	a5		 movsd
  009cb	50		 push	 eax
  009cc	8d 45 90	 lea	 eax, DWORD PTR _vAxis$530811[ebp]
  009cf	0f 57 c8	 xorps	 xmm1, xmm0
  009d2	0f 57 d0	 xorps	 xmm2, xmm0
  009d5	0f 57 d8	 xorps	 xmm3, xmm0
  009d8	50		 push	 eax
  009d9	a5		 movsd
  009da	f3 0f 11 4d cc	 movss	 DWORD PTR $T530812[ebp], xmm1
  009df	f3 0f 11 55 d0	 movss	 DWORD PTR $T530812[ebp+4], xmm2
  009e4	f3 0f 11 5d d4	 movss	 DWORD PTR $T530812[ebp+8], xmm3
  009e9	e8 00 00 00 00	 call	 _D3DXVec3Normalize@8

; 311  : 
; 312  : 						GetParentSceneNode()->Rotate( vAxis, fGapAngle );

  009ee	8b 85 70 ff ff
	ff		 mov	 eax, DWORD PTR _this$GSCopy$[ebp]
  009f4	8b 48 04	 mov	 ecx, DWORD PTR [eax+4]
  009f7	f3 0f 10 45 80	 movss	 xmm0, DWORD PTR _fGapAngle$530806[ebp]
  009fc	8b 01		 mov	 eax, DWORD PTR [ecx]
  009fe	6a 01		 push	 1
  00a00	51		 push	 ecx
  00a01	8d 55 90	 lea	 edx, DWORD PTR _vAxis$530811[ebp]
  00a04	f3 0f 11 04 24	 movss	 DWORD PTR [esp], xmm0
  00a09	52		 push	 edx
  00a0a	ff 50 50	 call	 DWORD PTR [eax+80]
$LN7@OnTracing:

; 247  : 				float fCurLoopTimeGap;
; 248  : 				float fCurLoopTimePerSec;
; 249  : 				while( fTimeGap > 0.0f )

  00a0d	f3 0f 10 85 78
	ff ff ff	 movss	 xmm0, DWORD PTR _fTimeGap$530765[ebp]
  00a15	0f 2f 05 00 00
	00 00		 comiss	 xmm0, DWORD PTR __real@00000000
  00a1c	0f 87 10 f8 ff
	ff		 ja	 $LL17@OnTracing

; 313  : 					}
; 314  : 				}
; 315  : 			}
; 316  : 			else

  00a22	8b 9d 70 ff ff
	ff		 mov	 ebx, DWORD PTR _this$GSCopy$[ebp]
  00a28	eb 0c		 jmp	 SHORT $LN174@OnTracing
$LN18@OnTracing:

; 317  : 			{
; 318  : 				m_TargetName.Clear();

  00a2a	8d 8b 50 0a 00
	00		 lea	 ecx, DWORD PTR [ebx+2640]
  00a30	ff 15 00 00 00
	00		 call	 DWORD PTR __imp_?Clear@ioHashString@@QAEXXZ
$LN174@OnTracing:

; 319  : 			}
; 320  : 		}
; 321  : 
; 322  : 		if( !m_TargetName.IsEmpty() )

  00a36	8d 8b 50 0a 00
	00		 lea	 ecx, DWORD PTR [ebx+2640]
  00a3c	ff 15 00 00 00
	00		 call	 DWORD PTR __imp_?IsEmpty@ioHashString@@QBE_NXZ
  00a42	84 c0		 test	 al, al
  00a44	75 1a		 jne	 SHORT $LN4@OnTracing

; 323  : 		{
; 324  : 			if( m_dwTraceEndTime < dwCurTime )

  00a46	8b 85 7c ff ff
	ff		 mov	 eax, DWORD PTR _dwCurTime$[ebp]
  00a4c	39 83 90 0a 00
	00		 cmp	 DWORD PTR [ebx+2704], eax
  00a52	73 0c		 jae	 SHORT $LN4@OnTracing

; 325  : 			{
; 326  : 				m_TargetName.Clear();

  00a54	8d 8b 50 0a 00
	00		 lea	 ecx, DWORD PTR [ebx+2640]
  00a5a	ff 15 00 00 00
	00		 call	 DWORD PTR __imp_?Clear@ioHashString@@QAEXXZ
$LN4@OnTracing:

; 327  : 			}
; 328  : 		}
; 329  : 
; 330  : 		if( !m_TargetName.IsEmpty() && m_fTraceEndRange > 0.0f )

  00a60	8d 8b 50 0a 00
	00		 lea	 ecx, DWORD PTR [ebx+2640]
  00a66	ff 15 00 00 00
	00		 call	 DWORD PTR __imp_?IsEmpty@ioHashString@@QBE_NXZ
  00a6c	84 c0		 test	 al, al
  00a6e	0f 85 4e 01 00
	00		 jne	 $LN175@OnTracing
  00a74	8d 85 7c ff ff
	ff		 lea	 eax, DWORD PTR _value$536157[ebp]
  00a7a	50		 push	 eax
  00a7b	8d 8b 08 0a 00
	00		 lea	 ecx, DWORD PTR [ebx+2568]
  00a81	e8 00 00 00 00	 call	 ?DecryptValueToPool@?$CEncrypt@M@@QAEXPAM@Z ; CEncrypt<float>::DecryptValueToPool
  00a86	f3 0f 10 85 7c
	ff ff ff	 movss	 xmm0, DWORD PTR _value$536157[ebp]
  00a8e	0f 2f 05 00 00
	00 00		 comiss	 xmm0, DWORD PTR __real@00000000
  00a95	0f 86 27 01 00
	00		 jbe	 $LN175@OnTracing

; 331  : 		{
; 332  : 			D3DXVECTOR3 vPos = pTarget->GetMidPositionByRate();

  00a9b	b8 05 00 00 00	 mov	 eax, 5
  00aa0	8b c8		 mov	 ecx, eax
  00aa2	b8 0a 00 00 00	 mov	 eax, 10			; 0000000aH
  00aa7	89 8d 5c ff ff
	ff		 mov	 DWORD PTR tv2372[ebp], ecx
  00aad	db 85 5c ff ff
	ff		 fild	 DWORD PTR tv2372[ebp]
  00ab3	85 c9		 test	 ecx, ecx
  00ab5	79 06		 jns	 SHORT $LN188@OnTracing
  00ab7	d8 05 00 00 00
	00		 fadd	 DWORD PTR __real@4f800000
$LN188@OnTracing:
  00abd	89 85 5c ff ff
	ff		 mov	 DWORD PTR tv2368[ebp], eax
  00ac3	db 85 5c ff ff
	ff		 fild	 DWORD PTR tv2368[ebp]
  00ac9	85 c0		 test	 eax, eax
  00acb	79 06		 jns	 SHORT $LN189@OnTracing
  00acd	d8 05 00 00 00
	00		 fadd	 DWORD PTR __real@4f800000
$LN189@OnTracing:
  00ad3	de f9		 fdivp	 ST(1), ST(0)
  00ad5	51		 push	 ecx
  00ad6	8b 8d 60 ff ff
	ff		 mov	 ecx, DWORD PTR _pTarget$[ebp]
  00adc	8d 45 e4	 lea	 eax, DWORD PTR _vPos$530818[ebp]
  00adf	d9 9d 7c ff ff
	ff		 fstp	 DWORD PTR tv2364[ebp]
  00ae5	d9 85 7c ff ff
	ff		 fld	 DWORD PTR tv2364[ebp]
  00aeb	d9 1c 24	 fstp	 DWORD PTR [esp]
  00aee	50		 push	 eax
  00aef	e8 00 00 00 00	 call	 ?GetMidPositionByRate@ioGameEntity@@QBE?AUD3DXVECTOR3@@M@Z ; ioGameEntity::GetMidPositionByRate

; 333  : 			D3DXVECTOR3 vLength = vPos - GetPosition();

  00af4	8b 03		 mov	 eax, DWORD PTR [ebx]
  00af6	8b cb		 mov	 ecx, ebx
  00af8	ff 50 70	 call	 DWORD PTR [eax+112]
  00afb	f3 0f 10 08	 movss	 xmm1, DWORD PTR [eax]
  00aff	f3 0f 10 45 e4	 movss	 xmm0, DWORD PTR _vPos$530818[ebp]
  00b04	0f 5a c0	 cvtps2pd xmm0, xmm0
  00b07	0f 5a c9	 cvtps2pd xmm1, xmm1
  00b0a	f2 0f 5c c1	 subsd	 xmm0, xmm1
  00b0e	f3 0f 10 48 04	 movss	 xmm1, DWORD PTR [eax+4]
  00b13	66 0f 5a c0	 cvtpd2ps xmm0, xmm0
  00b17	f3 0f 11 45 d8	 movss	 DWORD PTR _vLength$530820[ebp], xmm0
  00b1c	f3 0f 10 45 e8	 movss	 xmm0, DWORD PTR _vPos$530818[ebp+4]
  00b21	0f 5a c0	 cvtps2pd xmm0, xmm0
  00b24	0f 5a c9	 cvtps2pd xmm1, xmm1
  00b27	f2 0f 5c c1	 subsd	 xmm0, xmm1
  00b2b	f3 0f 10 48 08	 movss	 xmm1, DWORD PTR [eax+8]
  00b30	66 0f 5a c0	 cvtpd2ps xmm0, xmm0
  00b34	f3 0f 11 45 dc	 movss	 DWORD PTR _vLength$530820[ebp+4], xmm0
  00b39	f3 0f 10 45 ec	 movss	 xmm0, DWORD PTR _vPos$530818[ebp+8]
  00b3e	0f 5a c0	 cvtps2pd xmm0, xmm0
  00b41	0f 5a c9	 cvtps2pd xmm1, xmm1

; 334  : 			float fLength = D3DXVec3Length( &vLength );
; 335  : 			if( fLength <= m_fTraceEndRange )

  00b44	8d 85 7c ff ff
	ff		 lea	 eax, DWORD PTR _value$536190[ebp]
  00b4a	f2 0f 5c c1	 subsd	 xmm0, xmm1
  00b4e	66 0f 5a c0	 cvtpd2ps xmm0, xmm0
  00b52	50		 push	 eax
  00b53	8d 8b 08 0a 00
	00		 lea	 ecx, DWORD PTR [ebx+2568]
  00b59	f3 0f 11 45 e0	 movss	 DWORD PTR _vLength$530820[ebp+8], xmm0
  00b5e	e8 00 00 00 00	 call	 ?DecryptValueToPool@?$CEncrypt@M@@QAEXPAM@Z ; CEncrypt<float>::DecryptValueToPool
  00b63	f3 0f 10 45 dc	 movss	 xmm0, DWORD PTR _vLength$530820[ebp+4]
  00b68	f3 0f 10 4d d8	 movss	 xmm1, DWORD PTR _vLength$530820[ebp]
  00b6d	f3 0f 10 55 e0	 movss	 xmm2, DWORD PTR _vLength$530820[ebp+8]
  00b72	0f 5a c0	 cvtps2pd xmm0, xmm0
  00b75	f2 0f 59 c0	 mulsd	 xmm0, xmm0
  00b79	0f 5a c9	 cvtps2pd xmm1, xmm1
  00b7c	f2 0f 59 c9	 mulsd	 xmm1, xmm1
  00b80	f2 0f 58 c8	 addsd	 xmm1, xmm0
  00b84	0f 57 c0	 xorps	 xmm0, xmm0
  00b87	0f 5a d2	 cvtps2pd xmm2, xmm2
  00b8a	f2 0f 59 d2	 mulsd	 xmm2, xmm2
  00b8e	f2 0f 58 ca	 addsd	 xmm1, xmm2
  00b92	f2 0f 5a c1	 cvtsd2ss xmm0, xmm1
  00b96	f3 0f 10 8d 7c
	ff ff ff	 movss	 xmm1, DWORD PTR _value$536190[ebp]
  00b9e	0f 5a c0	 cvtps2pd xmm0, xmm0
  00ba1	f2 0f 51 c0	 sqrtsd	 xmm0, xmm0
  00ba5	66 0f 5a c0	 cvtpd2ps xmm0, xmm0
  00ba9	f3 0f 5a c0	 cvtss2sd xmm0, xmm0
  00bad	0f 5a c9	 cvtps2pd xmm1, xmm1
  00bb0	66 0f 2f c8	 comisd	 xmm1, xmm0
  00bb4	72 0c		 jb	 SHORT $LN175@OnTracing

; 336  : 			{
; 337  : 				m_TargetName.Clear();

  00bb6	8d 8b 50 0a 00
	00		 lea	 ecx, DWORD PTR [ebx+2640]
$LN22@OnTracing:

; 338  : 			}
; 339  : 		}
; 340  : 	}
; 341  : 	else
; 342  : 	{
; 343  : 		m_TargetName.Clear();

  00bbc	ff 15 00 00 00
	00		 call	 DWORD PTR __imp_?Clear@ioHashString@@QAEXXZ
$LN175@OnTracing:

; 344  : 	}
; 345  : 
; 346  : 	float fMoveDist = m_fTraceSpeed * fTimePerSec;

  00bc2	8d 85 7c ff ff
	ff		 lea	 eax, DWORD PTR _value$536193[ebp]
  00bc8	50		 push	 eax
  00bc9	8d 8b 78 09 00
	00		 lea	 ecx, DWORD PTR [ebx+2424]
  00bcf	e8 00 00 00 00	 call	 ?DecryptValueToPool@?$CEncrypt@M@@QAEXPAM@Z ; CEncrypt<float>::DecryptValueToPool
  00bd4	f3 0f 10 85 7c
	ff ff ff	 movss	 xmm0, DWORD PTR _value$536193[ebp]
  00bdc	f3 0f 10 4d 0c	 movss	 xmm1, DWORD PTR _fTimePerSec$[ebp]

; 347  : 	GetParentSceneNode()->Translate( m_vMoveDir * fMoveDist );

  00be1	f3 0f 10 93 44
	0a 00 00	 movss	 xmm2, DWORD PTR [ebx+2628]
  00be9	8b 4b 04	 mov	 ecx, DWORD PTR [ebx+4]
  00bec	0f 5a c9	 cvtps2pd xmm1, xmm1
  00bef	0f 5a c0	 cvtps2pd xmm0, xmm0
  00bf2	f2 0f 59 c1	 mulsd	 xmm0, xmm1
  00bf6	0f 57 c9	 xorps	 xmm1, xmm1
  00bf9	66 0f 5a c0	 cvtpd2ps xmm0, xmm0
  00bfd	f3 0f 5a c8	 cvtss2sd xmm1, xmm0
  00c01	0f 5a d2	 cvtps2pd xmm2, xmm2
  00c04	f2 0f 59 ca	 mulsd	 xmm1, xmm2
  00c08	66 0f 5a c9	 cvtpd2ps xmm1, xmm1
  00c0c	f3 0f 11 4d cc	 movss	 DWORD PTR $T530826[ebp], xmm1
  00c11	f3 0f 10 8b 48
	0a 00 00	 movss	 xmm1, DWORD PTR [ebx+2632]
  00c19	0f 5a c9	 cvtps2pd xmm1, xmm1
  00c1c	0f 57 d2	 xorps	 xmm2, xmm2
  00c1f	f3 0f 5a d0	 cvtss2sd xmm2, xmm0
  00c23	f2 0f 59 ca	 mulsd	 xmm1, xmm2
  00c27	66 0f 5a c9	 cvtpd2ps xmm1, xmm1
  00c2b	f3 0f 5a c0	 cvtss2sd xmm0, xmm0
  00c2f	f3 0f 11 4d d0	 movss	 DWORD PTR $T530826[ebp+4], xmm1
  00c34	f3 0f 10 8b 4c
	0a 00 00	 movss	 xmm1, DWORD PTR [ebx+2636]
  00c3c	0f 5a c9	 cvtps2pd xmm1, xmm1
  00c3f	f2 0f 59 c8	 mulsd	 xmm1, xmm0
  00c43	6a 01		 push	 1
  00c45	66 0f 5a c1	 cvtpd2ps xmm0, xmm1
  00c49	8d 55 cc	 lea	 edx, DWORD PTR $T530826[ebp]
  00c4c	f3 0f 11 45 d4	 movss	 DWORD PTR $T530826[ebp+8], xmm0
  00c51	8b 01		 mov	 eax, DWORD PTR [ecx]
  00c53	52		 push	 edx
  00c54	ff 50 3c	 call	 DWORD PTR [eax+60]

; 348  : 
; 349  : 	UpdateWorldAttackBox( fTimePerSec, false );

  00c57	f3 0f 10 45 0c	 movss	 xmm0, DWORD PTR _fTimePerSec$[ebp]
  00c5c	8b 03		 mov	 eax, DWORD PTR [ebx]
  00c5e	6a 00		 push	 0
  00c60	51		 push	 ecx
  00c61	8b cb		 mov	 ecx, ebx
  00c63	f3 0f 11 04 24	 movss	 DWORD PTR [esp], xmm0
  00c68	ff 90 38 01 00
	00		 call	 DWORD PTR [eax+312]

; 350  : }

  00c6e	8b 4d fc	 mov	 ecx, DWORD PTR __$ArrayPad$[ebp]
  00c71	5f		 pop	 edi
  00c72	5e		 pop	 esi
  00c73	33 cd		 xor	 ecx, ebp
  00c75	5b		 pop	 ebx
  00c76	e8 00 00 00 00	 call	 @__security_check_cookie@4
  00c7b	c9		 leave
  00c7c	c2 08 00	 ret	 8
?OnTracing@ioTraceWeapon5@@IAEXPAVioPlayStage@@M@Z ENDP	; ioTraceWeapon5::OnTracing
_TEXT	ENDS
PUBLIC	?SetTraceState@ioTraceWeapon5@@QAEXPAVioPlayStage@@@Z ; ioTraceWeapon5::SetTraceState
EXTRN	__imp_?PlaySoundA@ioSoundManager@@QAEKABVioHashString@@PAVioSceneNode@@K@Z:PROC
EXTRN	__imp_?GetSingleton@ioSoundManager@@SAAAV1@XZ:PROC
; Function compile flags: /Ogsp
;	COMDAT ?SetTraceState@ioTraceWeapon5@@QAEXPAVioPlayStage@@@Z
_TEXT	SEGMENT
_value$536240 = -4					; size = 4
_pStage$ = 8						; size = 4
?SetTraceState@ioTraceWeapon5@@QAEXPAVioPlayStage@@@Z PROC ; ioTraceWeapon5::SetTraceState, COMDAT
; _this$ = ecx

; 368  : {

  00000	55		 push	 ebp
  00001	8b ec		 mov	 ebp, esp
  00003	51		 push	 ecx
  00004	56		 push	 esi
  00005	8b f1		 mov	 esi, ecx

; 369  : 	m_State = TS_TRACING;
; 370  : 	m_dwTraceEndTime = FRAMEGETTIME() + m_dwTraceDuration;

  00007	8d 45 fc	 lea	 eax, DWORD PTR _value$536240[ebp]
  0000a	50		 push	 eax
  0000b	8d 8e 60 0a 00
	00		 lea	 ecx, DWORD PTR [esi+2656]
  00011	c7 86 94 08 00
	00 01 00 00 00	 mov	 DWORD PTR [esi+2196], 1
  0001b	e8 00 00 00 00	 call	 ?DecryptValueToPool@?$CEncrypt@K@@QAEXPAK@Z ; CEncrypt<unsigned long>::DecryptValueToPool
  00020	ff 15 00 00 00
	00		 call	 DWORD PTR __imp_?GetSingleton@ioFrameTimer@@SAAAV1@XZ
  00026	8b c8		 mov	 ecx, eax
  00028	ff 15 00 00 00
	00		 call	 DWORD PTR __imp_?GetLoopSec@ioFrameTimer@@QBEKXZ
  0002e	03 45 fc	 add	 eax, DWORD PTR _value$536240[ebp]

; 371  : 
; 372  : 	g_SoundMgr.PlaySound( m_FireSound, GetParentSceneNode() );

  00031	6a 04		 push	 4
  00033	89 86 90 0a 00
	00		 mov	 DWORD PTR [esi+2704], eax
  00039	8b 46 04	 mov	 eax, DWORD PTR [esi+4]
  0003c	50		 push	 eax
  0003d	81 c6 98 08 00
	00		 add	 esi, 2200		; 00000898H
  00043	56		 push	 esi
  00044	ff 15 00 00 00
	00		 call	 DWORD PTR __imp_?GetSingleton@ioSoundManager@@SAAAV1@XZ
  0004a	8b c8		 mov	 ecx, eax
  0004c	ff 15 00 00 00
	00		 call	 DWORD PTR __imp_?PlaySoundA@ioSoundManager@@QAEKABVioHashString@@PAVioSceneNode@@K@Z
  00052	5e		 pop	 esi

; 373  : }

  00053	c9		 leave
  00054	c2 04 00	 ret	 4
?SetTraceState@ioTraceWeapon5@@QAEXPAVioPlayStage@@@Z ENDP ; ioTraceWeapon5::SetTraceState
_TEXT	ENDS
PUBLIC	_bMapCollision$GSCopy$
PUBLIC	__$ArrayPad$
EXTRN	__imp_??8ioHashString@@QBE_NABV0@@Z:PROC
; Function compile flags: /Ogsp
;	COMDAT ?IsCollision@ioTraceWeapon5@@UAE_NPAVioPlayEntity@@_N@Z
_TEXT	SEGMENT
_bMapCollision$GSCopy$ = -25				; size = 1
_bCollision$ = -21					; size = 1
_value$536252 = -17					; size = 1
_vColPoint$ = -16					; size = 12
__$ArrayPad$ = -4					; size = 4
_pEntity$ = 8						; size = 4
_bMapCollision$ = 12					; size = 1
?IsCollision@ioTraceWeapon5@@UAE_NPAVioPlayEntity@@_N@Z PROC ; ioTraceWeapon5::IsCollision, COMDAT
; _this$ = ecx

; 408  : {

  00000	55		 push	 ebp
  00001	8b ec		 mov	 ebp, esp
  00003	83 ec 1c	 sub	 esp, 28			; 0000001cH
  00006	a1 00 00 00 00	 mov	 eax, DWORD PTR ___security_cookie
  0000b	33 c5		 xor	 eax, ebp
  0000d	89 45 fc	 mov	 DWORD PTR __$ArrayPad$[ebp], eax

; 409  : 	if( m_State == TS_ROTATE )

  00010	8a 45 0c	 mov	 al, BYTE PTR _bMapCollision$[ebp]
  00013	56		 push	 esi
  00014	8b f1		 mov	 esi, ecx
  00016	83 be 94 08 00
	00 00		 cmp	 DWORD PTR [esi+2196], 0
  0001d	57		 push	 edi
  0001e	8b 7d 08	 mov	 edi, DWORD PTR _pEntity$[ebp]
  00021	88 45 e7	 mov	 BYTE PTR _bMapCollision$GSCopy$[ebp], al
  00024	75 07		 jne	 SHORT $LN6@IsCollisio
$LN17@IsCollisio:

; 410  : 		return false;

  00026	32 c0		 xor	 al, al
  00028	e9 a1 00 00 00	 jmp	 $LN7@IsCollisio
$LN6@IsCollisio:

; 411  : 	
; 412  : 	bool bCollision = false;
; 413  : 
; 414  : 	if( m_bOnlyCharCollision )

  0002d	8d 45 ef	 lea	 eax, DWORD PTR _value$536252[ebp]
  00030	50		 push	 eax
  00031	8d 8e dc 0a 00
	00		 lea	 ecx, DWORD PTR [esi+2780]
  00037	c6 45 eb 00	 mov	 BYTE PTR _bCollision$[ebp], 0
  0003b	e8 00 00 00 00	 call	 ?DecryptValueToPool@?$CEncrypt@_N@@QAEXPA_N@Z ; CEncrypt<bool>::DecryptValueToPool
  00040	80 7d ef 00	 cmp	 BYTE PTR _value$536252[ebp], 0
  00044	74 0b		 je	 SHORT $LN4@IsCollisio

; 415  : 	{
; 416  : 		ioBaseChar *pTarget = ToBaseChar( pEntity );

  00046	57		 push	 edi
  00047	e8 00 00 00 00	 call	 ?ToBaseChar@@YAPAVioBaseChar@@PAVioGameEntity@@@Z ; ToBaseChar
  0004c	59		 pop	 ecx

; 417  : 		if( !pTarget )

  0004d	85 c0		 test	 eax, eax

; 418  : 			return false;

  0004f	74 d5		 je	 SHORT $LN17@IsCollisio
$LN4@IsCollisio:

; 419  : 	}
; 420  : 
; 421  : 	D3DXVECTOR3 vColPoint( 0.0f, 0.0f, 0.0f );

  00051	0f 57 c0	 xorps	 xmm0, xmm0
  00054	53		 push	 ebx

; 422  : 	if( pEntity->IsWoundedCollision( GetWorldAttackBox(bMapCollision), &vColPoint ) )

  00055	8b 1f		 mov	 ebx, DWORD PTR [edi]
  00057	8d 45 f0	 lea	 eax, DWORD PTR _vColPoint$[ebp]
  0005a	50		 push	 eax
  0005b	ff 75 e7	 push	 DWORD PTR _bMapCollision$GSCopy$[ebp]
  0005e	8b ce		 mov	 ecx, esi
  00060	f3 0f 11 45 f0	 movss	 DWORD PTR _vColPoint$[ebp], xmm0
  00065	f3 0f 11 45 f4	 movss	 DWORD PTR _vColPoint$[ebp+4], xmm0
  0006a	f3 0f 11 45 f8	 movss	 DWORD PTR _vColPoint$[ebp+8], xmm0
  0006f	e8 00 00 00 00	 call	 ?GetWorldAttackBox@ioWeapon@@QBEABVioOrientBox@@_N@Z ; ioWeapon::GetWorldAttackBox
  00074	50		 push	 eax
  00075	8b cf		 mov	 ecx, edi
  00077	ff 93 90 00 00
	00		 call	 DWORD PTR [ebx+144]
  0007d	5b		 pop	 ebx
  0007e	84 c0		 test	 al, al
  00080	74 04		 je	 SHORT $LN15@IsCollisio

; 423  : 		bCollision = true;

  00082	c6 45 eb 01	 mov	 BYTE PTR _bCollision$[ebp], 1
$LN15@IsCollisio:

; 424  : 
; 425  : 	CheckPiercing( bCollision );

  00086	ff 75 eb	 push	 DWORD PTR _bCollision$[ebp]
  00089	8b 06		 mov	 eax, DWORD PTR [esi]
  0008b	8b ce		 mov	 ecx, esi
  0008d	ff 90 48 01 00
	00		 call	 DWORD PTR [eax+328]

; 426  : 	
; 427  : 	// (    )
; 428  : 	if ( m_bSetDeadArriveTarget )

  00093	80 be 0c 0b 00
	00 00		 cmp	 BYTE PTR [esi+2828], 0
  0009a	74 2f		 je	 SHORT $LN16@IsCollisio

; 429  : 	{
; 430  : 		ioBaseChar *pTarget = ToBaseChar( pEntity );

  0009c	57		 push	 edi
  0009d	e8 00 00 00 00	 call	 ?ToBaseChar@@YAPAVioBaseChar@@PAVioGameEntity@@@Z ; ToBaseChar

; 431  : 		//   
; 432  : 		if ( bCollision && pTarget && pTarget->GetCharName() == m_TargetName )

  000a2	80 7d eb 00	 cmp	 BYTE PTR _bCollision$[ebp], 0
  000a6	59		 pop	 ecx
  000a7	74 22		 je	 SHORT $LN16@IsCollisio
  000a9	85 c0		 test	 eax, eax
  000ab	74 1e		 je	 SHORT $LN16@IsCollisio
  000ad	8d 8e 50 0a 00
	00		 lea	 ecx, DWORD PTR [esi+2640]
  000b3	51		 push	 ecx
  000b4	8d 88 d4 02 00
	00		 lea	 ecx, DWORD PTR [eax+724]
  000ba	ff 15 00 00 00
	00		 call	 DWORD PTR __imp_??8ioHashString@@QBE_NABV0@@Z
  000c0	84 c0		 test	 al, al
  000c2	74 07		 je	 SHORT $LN16@IsCollisio

; 433  : 		{
; 434  : 			SetWeaponDead();

  000c4	8b 06		 mov	 eax, DWORD PTR [esi]
  000c6	8b ce		 mov	 ecx, esi
  000c8	ff 50 4c	 call	 DWORD PTR [eax+76]
$LN16@IsCollisio:

; 435  : 		}
; 436  : 	}
; 437  : 	
; 438  : 	return bCollision;

  000cb	8a 45 eb	 mov	 al, BYTE PTR _bCollision$[ebp]
$LN7@IsCollisio:

; 439  : }

  000ce	8b 4d fc	 mov	 ecx, DWORD PTR __$ArrayPad$[ebp]
  000d1	5f		 pop	 edi
  000d2	33 cd		 xor	 ecx, ebp
  000d4	5e		 pop	 esi
  000d5	e8 00 00 00 00	 call	 @__security_check_cookie@4
  000da	c9		 leave
  000db	c2 08 00	 ret	 8
?IsCollision@ioTraceWeapon5@@UAE_NPAVioPlayEntity@@_N@Z ENDP ; ioTraceWeapon5::IsCollision
_TEXT	ENDS
PUBLIC	__$ArrayPad$
; Function compile flags: /Ogsp
;	COMDAT ?SetOwnerChargeScaleRate@ioTraceWeapon5@@UAEXM@Z
_TEXT	SEGMENT
_value$536292 = -28					; size = 4
tv217 = -24						; size = 4
_value$536288 = -24					; size = 4
_value$536297 = -20					; size = 4
_value$536284 = -20					; size = 4
_value$536272 = -20					; size = 4
_vScale$530884 = -16					; size = 12
__$ArrayPad$ = -4					; size = 4
_fRate$ = 8						; size = 4
?SetOwnerChargeScaleRate@ioTraceWeapon5@@UAEXM@Z PROC	; ioTraceWeapon5::SetOwnerChargeScaleRate, COMDAT
; _this$ = ecx

; 454  : {

  00000	55		 push	 ebp
  00001	8b ec		 mov	 ebp, esp
  00003	83 ec 1c	 sub	 esp, 28			; 0000001cH
  00006	a1 00 00 00 00	 mov	 eax, DWORD PTR ___security_cookie
  0000b	33 c5		 xor	 eax, ebp
  0000d	89 45 fc	 mov	 DWORD PTR __$ArrayPad$[ebp], eax

; 455  : 	m_fOwnerChargeScaleRate = fRate;

  00010	f3 0f 10 45 08	 movss	 xmm0, DWORD PTR _fRate$[ebp]
  00015	53		 push	 ebx
  00016	56		 push	 esi
  00017	57		 push	 edi
  00018	8b f9		 mov	 edi, ecx
  0001a	8d 45 ec	 lea	 eax, DWORD PTR _value$536272[ebp]
  0001d	50		 push	 eax
  0001e	8d 8f b0 01 00
	00		 lea	 ecx, DWORD PTR [edi+432]
  00024	f3 0f 11 45 ec	 movss	 DWORD PTR _value$536272[ebp], xmm0
  00029	e8 00 00 00 00	 call	 ?EncryptValueToPool@?$CEncrypt@M@@AAEXPBD@Z ; CEncrypt<float>::EncryptValueToPool

; 456  : 
; 457  : 	if( m_fOwnerChargeScaleRate > FLOAT1 )

  0002e	b8 01 00 00 00	 mov	 eax, 1
  00033	8b d8		 mov	 ebx, eax
  00035	8d 45 ec	 lea	 eax, DWORD PTR _value$536284[ebp]
  00038	50		 push	 eax
  00039	8d 8f b0 01 00
	00		 lea	 ecx, DWORD PTR [edi+432]
  0003f	e8 00 00 00 00	 call	 ?DecryptValueToPool@?$CEncrypt@M@@QAEXPAM@Z ; CEncrypt<float>::DecryptValueToPool
  00044	d9 45 ec	 fld	 DWORD PTR _value$536284[ebp]
  00047	89 5d e8	 mov	 DWORD PTR tv217[ebp], ebx
  0004a	db 45 e8	 fild	 DWORD PTR tv217[ebp]
  0004d	85 db		 test	 ebx, ebx
  0004f	79 06		 jns	 SHORT $LN23@SetOwnerCh
  00051	d8 05 00 00 00
	00		 fadd	 DWORD PTR __real@4f800000
$LN23@SetOwnerCh:
  00057	d9 c9		 fxch	 ST(1)
  00059	df f1		 fcomip	 ST(1)
  0005b	dd d8		 fstp	 ST(0)
  0005d	76 57		 jbe	 SHORT $LN1@SetOwnerCh

; 458  : 	{
; 459  : 		D3DXVECTOR3 vScale( m_fOwnerChargeScaleRate, m_fOwnerChargeScaleRate, m_fOwnerChargeScaleRate );

  0005f	8d 45 e8	 lea	 eax, DWORD PTR _value$536288[ebp]
  00062	50		 push	 eax
  00063	8d 8f b0 01 00
	00		 lea	 ecx, DWORD PTR [edi+432]
  00069	e8 00 00 00 00	 call	 ?DecryptValueToPool@?$CEncrypt@M@@QAEXPAM@Z ; CEncrypt<float>::DecryptValueToPool
  0006e	8d 45 e4	 lea	 eax, DWORD PTR _value$536292[ebp]
  00071	50		 push	 eax
  00072	8d 8f b0 01 00
	00		 lea	 ecx, DWORD PTR [edi+432]
  00078	e8 00 00 00 00	 call	 ?DecryptValueToPool@?$CEncrypt@M@@QAEXPAM@Z ; CEncrypt<float>::DecryptValueToPool
  0007d	8d 45 ec	 lea	 eax, DWORD PTR _value$536297[ebp]
  00080	50		 push	 eax
  00081	8d 8f b0 01 00
	00		 lea	 ecx, DWORD PTR [edi+432]
  00087	e8 00 00 00 00	 call	 ?DecryptValueToPool@?$CEncrypt@M@@QAEXPAM@Z ; CEncrypt<float>::DecryptValueToPool
  0008c	f3 0f 10 45 ec	 movss	 xmm0, DWORD PTR _value$536297[ebp]

; 460  : 		GetParentSceneNode()->SetScale( vScale );

  00091	8b 4f 04	 mov	 ecx, DWORD PTR [edi+4]
  00094	f3 0f 11 45 f0	 movss	 DWORD PTR _vScale$530884[ebp], xmm0
  00099	f3 0f 10 45 e4	 movss	 xmm0, DWORD PTR _value$536292[ebp]
  0009e	f3 0f 11 45 f4	 movss	 DWORD PTR _vScale$530884[ebp+4], xmm0
  000a3	f3 0f 10 45 e8	 movss	 xmm0, DWORD PTR _value$536288[ebp]
  000a8	8d 55 f0	 lea	 edx, DWORD PTR _vScale$530884[ebp]
  000ab	f3 0f 11 45 f8	 movss	 DWORD PTR _vScale$530884[ebp+8], xmm0
  000b0	8b 01		 mov	 eax, DWORD PTR [ecx]
  000b2	52		 push	 edx
  000b3	ff 50 20	 call	 DWORD PTR [eax+32]
$LN1@SetOwnerCh:

; 461  : 	}
; 462  : }

  000b6	8b 4d fc	 mov	 ecx, DWORD PTR __$ArrayPad$[ebp]
  000b9	5f		 pop	 edi
  000ba	5e		 pop	 esi
  000bb	33 cd		 xor	 ecx, ebp
  000bd	5b		 pop	 ebx
  000be	e8 00 00 00 00	 call	 @__security_check_cookie@4
  000c3	c9		 leave
  000c4	c2 04 00	 ret	 4
?SetOwnerChargeScaleRate@ioTraceWeapon5@@UAEXM@Z ENDP	; ioTraceWeapon5::SetOwnerChargeScaleRate
_TEXT	ENDS
PUBLIC	__$ArrayPad$
EXTRN	__imp_?SetNull@ioOrientBox@@QAEXXZ:PROC
EXTRN	__imp_?UNIT_ALL@ioMath@@2UD3DXVECTOR3@@A:BYTE
EXTRN	__imp_?Transform@ioOrientBox@@QAEXABUD3DXVECTOR3@@0ABUD3DXQUATERNION@@@Z:PROC
EXTRN	?GetOrientation@ioWeapon@@QBEABUD3DXQUATERNION@@XZ:PROC ; ioWeapon::GetOrientation
EXTRN	__imp_?IsNull@ioOrientBox@@QBE_NXZ:PROC
EXTRN	__imp_?SetExtents@ioOrientBox@@QAEXHM@Z:PROC
EXTRN	__imp_?GetExtents@ioOrientBox@@QBEMH@Z:PROC
; Function compile flags: /Ogsp
;	COMDAT ?UpdateWorldAttackBox@ioTraceWeapon5@@MAEXM_N@Z
_TEXT	SEGMENT
tv397 = -32						; size = 4
_value$536332 = -32					; size = 4
tv417 = -28						; size = 4
tv399 = -28						; size = 4
_value$536337 = -24					; size = 4
$T536321 = -24						; size = 4
_fMapCollisionRate$ = -24				; size = 4
tv411 = -20						; size = 4
tv405 = -20						; size = 4
_value$536342 = -20					; size = 4
_value$536326 = -20					; size = 4
_vScale$530901 = -16					; size = 12
__$ArrayPad$ = -4					; size = 4
_fTimePerSec$ = 8					; size = 4
_bSetNull$ = 12						; size = 1
?UpdateWorldAttackBox@ioTraceWeapon5@@MAEXM_N@Z PROC	; ioTraceWeapon5::UpdateWorldAttackBox, COMDAT
; _this$ = ecx

; 477  : {

  00000	55		 push	 ebp
  00001	8b ec		 mov	 ebp, esp
  00003	83 ec 20	 sub	 esp, 32			; 00000020H
  00006	a1 00 00 00 00	 mov	 eax, DWORD PTR ___security_cookie
  0000b	33 c5		 xor	 eax, ebp
  0000d	89 45 fc	 mov	 DWORD PTR __$ArrayPad$[ebp], eax
  00010	53		 push	 ebx
  00011	8b d9		 mov	 ebx, ecx

; 478  : 	if( !IsLive() || bSetNull )

  00013	80 bb 82 05 00
	00 00		 cmp	 BYTE PTR [ebx+1410], 0
  0001a	56		 push	 esi
  0001b	57		 push	 edi
  0001c	0f 84 b7 01 00
	00		 je	 $LN4@UpdateWorl
  00022	80 7d 0c 00	 cmp	 BYTE PTR _bSetNull$[ebp], 0
  00026	0f 85 ad 01 00
	00		 jne	 $LN4@UpdateWorl

; 482  : 		return;
; 483  : 	}
; 484  : 
; 485  : 	m_WorldAttackBox = GetLocalAttackBox();

  0002c	8b 03		 mov	 eax, DWORD PTR [ebx]
  0002e	ff 90 00 01 00
	00		 call	 DWORD PTR [eax+256]
  00034	6a 11		 push	 17			; 00000011H
  00036	59		 pop	 ecx
  00037	8b f0		 mov	 esi, eax
  00039	8d bb e8 04 00
	00		 lea	 edi, DWORD PTR [ebx+1256]
  0003f	f3 a5		 rep movsd

; 486  : 	m_WorldAttackBoxForMap = m_WorldAttackBox;

  00041	6a 11		 push	 17			; 00000011H
  00043	8b f0		 mov	 esi, eax

; 487  : 
; 488  : 	float fMapCollisionRate = GetAttribute()->m_fMapCollisionBoxRate;

  00045	8b 03		 mov	 eax, DWORD PTR [ebx]
  00047	59		 pop	 ecx
  00048	8d bb 2c 05 00
	00		 lea	 edi, DWORD PTR [ebx+1324]
  0004e	f3 a5		 rep movsd
  00050	8b cb		 mov	 ecx, ebx
  00052	ff 90 3c 01 00
	00		 call	 DWORD PTR [eax+316]

; 489  : 	m_WorldAttackBoxForMap.SetExtents( 0, m_WorldAttackBox.GetExtents(0)*fMapCollisionRate );

  00058	6a 00		 push	 0
  0005a	d9 80 a8 01 00
	00		 fld	 DWORD PTR [eax+424]
  00060	8d 8b e8 04 00
	00		 lea	 ecx, DWORD PTR [ebx+1256]
  00066	d9 5d e8	 fstp	 DWORD PTR _fMapCollisionRate$[ebp]
  00069	ff 15 00 00 00
	00		 call	 DWORD PTR __imp_?GetExtents@ioOrientBox@@QBEMH@Z
  0006f	d8 4d e8	 fmul	 DWORD PTR _fMapCollisionRate$[ebp]
  00072	8b 35 00 00 00
	00		 mov	 esi, DWORD PTR __imp_?SetExtents@ioOrientBox@@QAEXHM@Z
  00078	51		 push	 ecx
  00079	8d 8b 2c 05 00
	00		 lea	 ecx, DWORD PTR [ebx+1324]
  0007f	d9 5d e4	 fstp	 DWORD PTR tv417[ebp]
  00082	d9 45 e4	 fld	 DWORD PTR tv417[ebp]
  00085	89 4d e4	 mov	 DWORD PTR tv399[ebp], ecx
  00088	d9 1c 24	 fstp	 DWORD PTR [esp]
  0008b	6a 00		 push	 0
  0008d	ff d6		 call	 esi

; 490  : 	m_WorldAttackBoxForMap.SetExtents( 1, m_WorldAttackBox.GetExtents(1)*fMapCollisionRate );

  0008f	6a 01		 push	 1
  00091	8d 8b e8 04 00
	00		 lea	 ecx, DWORD PTR [ebx+1256]
  00097	ff 15 00 00 00
	00		 call	 DWORD PTR __imp_?GetExtents@ioOrientBox@@QBEMH@Z
  0009d	d8 4d e8	 fmul	 DWORD PTR _fMapCollisionRate$[ebp]
  000a0	51		 push	 ecx
  000a1	8b 4d e4	 mov	 ecx, DWORD PTR tv399[ebp]
  000a4	d9 5d ec	 fstp	 DWORD PTR tv411[ebp]
  000a7	d9 45 ec	 fld	 DWORD PTR tv411[ebp]
  000aa	d9 1c 24	 fstp	 DWORD PTR [esp]
  000ad	6a 01		 push	 1
  000af	ff d6		 call	 esi

; 491  : 	m_WorldAttackBoxForMap.SetExtents( 2, m_WorldAttackBox.GetExtents(2)*fMapCollisionRate );

  000b1	6a 02		 push	 2
  000b3	8d 8b e8 04 00
	00		 lea	 ecx, DWORD PTR [ebx+1256]
  000b9	ff 15 00 00 00
	00		 call	 DWORD PTR __imp_?GetExtents@ioOrientBox@@QBEMH@Z
  000bf	d8 4d e8	 fmul	 DWORD PTR _fMapCollisionRate$[ebp]
  000c2	51		 push	 ecx
  000c3	8b 4d e4	 mov	 ecx, DWORD PTR tv399[ebp]
  000c6	d9 5d ec	 fstp	 DWORD PTR tv405[ebp]
  000c9	d9 45 ec	 fld	 DWORD PTR tv405[ebp]
  000cc	d9 1c 24	 fstp	 DWORD PTR [esp]
  000cf	6a 02		 push	 2
  000d1	ff d6		 call	 esi

; 492  : 
; 493  : 	if( !m_WorldAttackBox.IsNull() )

  000d3	8d 8b e8 04 00
	00		 lea	 ecx, DWORD PTR [ebx+1256]
  000d9	ff 15 00 00 00
	00		 call	 DWORD PTR __imp_?IsNull@ioOrientBox@@QBE_NXZ
  000df	84 c0		 test	 al, al
  000e1	0f 85 08 01 00
	00		 jne	 $LN1@UpdateWorl

; 494  : 	{
; 495  : 		if( m_fOwnerChargeScaleRate > FLOAT1 )

  000e7	b8 01 00 00 00	 mov	 eax, 1
  000ec	89 45 e8	 mov	 DWORD PTR $T536321[ebp], eax
  000ef	8d 45 ec	 lea	 eax, DWORD PTR _value$536326[ebp]
  000f2	50		 push	 eax
  000f3	8d 8b b0 01 00
	00		 lea	 ecx, DWORD PTR [ebx+432]
  000f9	e8 00 00 00 00	 call	 ?DecryptValueToPool@?$CEncrypt@M@@QAEXPAM@Z ; CEncrypt<float>::DecryptValueToPool
  000fe	d9 45 ec	 fld	 DWORD PTR _value$536326[ebp]
  00101	8b 45 e8	 mov	 eax, DWORD PTR $T536321[ebp]
  00104	db 45 e8	 fild	 DWORD PTR $T536321[ebp]
  00107	85 c0		 test	 eax, eax
  00109	79 06		 jns	 SHORT $LN25@UpdateWorl
  0010b	d8 05 00 00 00
	00		 fadd	 DWORD PTR __real@4f800000
$LN25@UpdateWorl:
  00111	d9 c9		 fxch	 ST(1)
  00113	df f1		 fcomip	 ST(1)
  00115	dd d8		 fstp	 ST(0)
  00117	0f 86 88 00 00
	00		 jbe	 $LN2@UpdateWorl

; 496  : 		{
; 497  : 			D3DXVECTOR3 vScale( m_fOwnerChargeScaleRate, m_fOwnerChargeScaleRate, m_fOwnerChargeScaleRate );

  0011d	8d 45 e0	 lea	 eax, DWORD PTR _value$536332[ebp]
  00120	50		 push	 eax
  00121	8d 8b b0 01 00
	00		 lea	 ecx, DWORD PTR [ebx+432]
  00127	e8 00 00 00 00	 call	 ?DecryptValueToPool@?$CEncrypt@M@@QAEXPAM@Z ; CEncrypt<float>::DecryptValueToPool
  0012c	8d 45 e8	 lea	 eax, DWORD PTR _value$536337[ebp]
  0012f	50		 push	 eax
  00130	8d 8b b0 01 00
	00		 lea	 ecx, DWORD PTR [ebx+432]
  00136	e8 00 00 00 00	 call	 ?DecryptValueToPool@?$CEncrypt@M@@QAEXPAM@Z ; CEncrypt<float>::DecryptValueToPool
  0013b	8d 45 ec	 lea	 eax, DWORD PTR _value$536342[ebp]
  0013e	50		 push	 eax
  0013f	8d 8b b0 01 00
	00		 lea	 ecx, DWORD PTR [ebx+432]
  00145	e8 00 00 00 00	 call	 ?DecryptValueToPool@?$CEncrypt@M@@QAEXPAM@Z ; CEncrypt<float>::DecryptValueToPool
  0014a	f3 0f 10 45 ec	 movss	 xmm0, DWORD PTR _value$536342[ebp]
  0014f	f3 0f 11 45 f0	 movss	 DWORD PTR _vScale$530901[ebp], xmm0
  00154	f3 0f 10 45 e8	 movss	 xmm0, DWORD PTR _value$536337[ebp]
  00159	f3 0f 11 45 f4	 movss	 DWORD PTR _vScale$530901[ebp+4], xmm0
  0015e	f3 0f 10 45 e0	 movss	 xmm0, DWORD PTR _value$536332[ebp]

; 498  : 			m_WorldAttackBox.Transform( GetPosition(), vScale, GetOrientation() );

  00163	8b cb		 mov	 ecx, ebx
  00165	f3 0f 11 45 f8	 movss	 DWORD PTR _vScale$530901[ebp+8], xmm0
  0016a	e8 00 00 00 00	 call	 ?GetOrientation@ioWeapon@@QBEABUD3DXQUATERNION@@XZ ; ioWeapon::GetOrientation
  0016f	50		 push	 eax
  00170	8d 45 f0	 lea	 eax, DWORD PTR _vScale$530901[ebp]
  00173	50		 push	 eax
  00174	8b 03		 mov	 eax, DWORD PTR [ebx]
  00176	8b cb		 mov	 ecx, ebx
  00178	ff 50 70	 call	 DWORD PTR [eax+112]
  0017b	8b 35 00 00 00
	00		 mov	 esi, DWORD PTR __imp_?Transform@ioOrientBox@@QAEXABUD3DXVECTOR3@@0ABUD3DXQUATERNION@@@Z
  00181	50		 push	 eax
  00182	8d 8b e8 04 00
	00		 lea	 ecx, DWORD PTR [ebx+1256]
  00188	ff d6		 call	 esi

; 499  : 			m_WorldAttackBoxForMap.Transform( GetPosition(), vScale, GetOrientation() );

  0018a	8b cb		 mov	 ecx, ebx
  0018c	e8 00 00 00 00	 call	 ?GetOrientation@ioWeapon@@QBEABUD3DXQUATERNION@@XZ ; ioWeapon::GetOrientation
  00191	50		 push	 eax
  00192	8d 45 f0	 lea	 eax, DWORD PTR _vScale$530901[ebp]
  00195	50		 push	 eax
$LN26@UpdateWorl:
  00196	8b 03		 mov	 eax, DWORD PTR [ebx]
  00198	8b cb		 mov	 ecx, ebx
  0019a	ff 50 70	 call	 DWORD PTR [eax+112]
  0019d	8b 4d e4	 mov	 ecx, DWORD PTR tv399[ebp]
  001a0	50		 push	 eax
  001a1	ff d6		 call	 esi

; 500  : 		}
; 501  : 		else

  001a3	eb 4a		 jmp	 SHORT $LN1@UpdateWorl
$LN2@UpdateWorl:

; 502  : 		{
; 503  : 			m_WorldAttackBox.Transform( GetPosition(), ioMath::UNIT_ALL, GetOrientation() );

  001a5	8b cb		 mov	 ecx, ebx
  001a7	e8 00 00 00 00	 call	 ?GetOrientation@ioWeapon@@QBEABUD3DXQUATERNION@@XZ ; ioWeapon::GetOrientation
  001ac	50		 push	 eax
  001ad	ff 35 00 00 00
	00		 push	 DWORD PTR __imp_?UNIT_ALL@ioMath@@2UD3DXVECTOR3@@A
  001b3	8b 03		 mov	 eax, DWORD PTR [ebx]
  001b5	8b cb		 mov	 ecx, ebx
  001b7	ff 50 70	 call	 DWORD PTR [eax+112]
  001ba	8b 35 00 00 00
	00		 mov	 esi, DWORD PTR __imp_?Transform@ioOrientBox@@QAEXABUD3DXVECTOR3@@0ABUD3DXQUATERNION@@@Z
  001c0	50		 push	 eax
  001c1	8d 8b e8 04 00
	00		 lea	 ecx, DWORD PTR [ebx+1256]
  001c7	ff d6		 call	 esi

; 504  : 			m_WorldAttackBoxForMap.Transform( GetPosition(), ioMath::UNIT_ALL, GetOrientation() );

  001c9	8b cb		 mov	 ecx, ebx
  001cb	e8 00 00 00 00	 call	 ?GetOrientation@ioWeapon@@QBEABUD3DXQUATERNION@@XZ ; ioWeapon::GetOrientation
  001d0	50		 push	 eax
  001d1	ff 35 00 00 00
	00		 push	 DWORD PTR __imp_?UNIT_ALL@ioMath@@2UD3DXVECTOR3@@A
  001d7	eb bd		 jmp	 SHORT $LN26@UpdateWorl
$LN4@UpdateWorl:

; 479  : 	{
; 480  : 		m_WorldAttackBox.SetNull();

  001d9	8b 35 00 00 00
	00		 mov	 esi, DWORD PTR __imp_?SetNull@ioOrientBox@@QAEXXZ
  001df	8d 8b e8 04 00
	00		 lea	 ecx, DWORD PTR [ebx+1256]
  001e5	ff d6		 call	 esi

; 481  : 		m_WorldAttackBoxForMap.SetNull();

  001e7	8d 8b 2c 05 00
	00		 lea	 ecx, DWORD PTR [ebx+1324]
  001ed	ff d6		 call	 esi
$LN1@UpdateWorl:

; 505  : 		}
; 506  : 	}
; 507  : }

  001ef	8b 4d fc	 mov	 ecx, DWORD PTR __$ArrayPad$[ebp]
  001f2	5f		 pop	 edi
  001f3	5e		 pop	 esi
  001f4	33 cd		 xor	 ecx, ebp
  001f6	5b		 pop	 ebx
  001f7	e8 00 00 00 00	 call	 @__security_check_cookie@4
  001fc	c9		 leave
  001fd	c2 08 00	 ret	 8
?UpdateWorldAttackBox@ioTraceWeapon5@@MAEXM_N@Z ENDP	; ioTraceWeapon5::UpdateWorldAttackBox
_TEXT	ENDS
PUBLIC	__real@408f400000000000
PUBLIC	_this$GSCopy$
PUBLIC	__$ArrayPad$
PUBLIC	?OnRotate@ioTraceWeapon5@@IAEXPAVioPlayStage@@M@Z ; ioTraceWeapon5::OnRotate
EXTRN	_D3DXQuaternionRotationAxis@12:PROC
EXTRN	__imp_?ArrangeHead@ioMath@@SAMM@Z:PROC
;	COMDAT __real@408f400000000000
; File d:\lost saga for developer\youtube\tutorial\source\src\lsclient\ioweapon.h
CONST	SEGMENT
__real@408f400000000000 DQ 0408f400000000000r	; 1000
; Function compile flags: /Ogsp
; File d:\lost saga for developer\youtube\tutorial\source\src\lsclient\iotraceweapon5.cpp
CONST	ENDS
;	COMDAT ?OnRotate@ioTraceWeapon5@@IAEXPAVioPlayStage@@M@Z
_TEXT	SEGMENT
_this$GSCopy$ = -68					; size = 4
_qtNewRot$ = -64					; size = 16
tv530 = -48						; size = 4
tv511 = -48						; size = 4
tv507 = -48						; size = 4
tv503 = -48						; size = 4
_value$536400 = -48					; size = 4
tv557 = -44						; size = 4
tv552 = -44						; size = 4
tv549 = -44						; size = 4
_value$536360 = -44					; size = 4
_value$536366 = -44					; size = 4
_fRotateAngle$ = -44					; size = 4
$T530744 = -40						; size = 12
$T530739 = -40						; size = 12
_vAxis$ = -28						; size = 12
_vNewPos$ = -16						; size = 12
__$ArrayPad$ = -4					; size = 4
_pStage$ = 8						; size = 4
_fTimePerSec$ = 12					; size = 4
?OnRotate@ioTraceWeapon5@@IAEXPAVioPlayStage@@M@Z PROC	; ioTraceWeapon5::OnRotate, COMDAT
; _this$ = ecx

; 188  : {

  00000	55		 push	 ebp
  00001	8b ec		 mov	 ebp, esp
  00003	83 ec 44	 sub	 esp, 68			; 00000044H
  00006	a1 00 00 00 00	 mov	 eax, DWORD PTR ___security_cookie
  0000b	33 c5		 xor	 eax, ebp
  0000d	89 45 fc	 mov	 DWORD PTR __$ArrayPad$[ebp], eax

; 189  : 	if( !pStage )	return;

  00010	83 7d 08 00	 cmp	 DWORD PTR _pStage$[ebp], 0
  00014	53		 push	 ebx
  00015	8b d9		 mov	 ebx, ecx

; 194  : 	
; 195  : 	DWORD dwCurTime = FRAMEGETTIME();

  00017	89 5d bc	 mov	 DWORD PTR _this$GSCopy$[ebp], ebx
  0001a	0f 84 51 02 00
	00		 je	 $LN4@OnRotate

; 190  : 	if( m_fRotateSpeed <= 0.0f )	return;

  00020	56		 push	 esi
  00021	8d 45 d4	 lea	 eax, DWORD PTR _value$536360[ebp]
  00024	50		 push	 eax
  00025	8d 8b a8 08 00
	00		 lea	 ecx, DWORD PTR [ebx+2216]
  0002b	e8 00 00 00 00	 call	 ?DecryptValueToPool@?$CEncrypt@M@@QAEXPAM@Z ; CEncrypt<float>::DecryptValueToPool
  00030	0f 57 c0	 xorps	 xmm0, xmm0
  00033	0f 2f 45 d4	 comiss	 xmm0, DWORD PTR _value$536360[ebp]
  00037	0f 83 33 02 00
	00		 jae	 $LN36@OnRotate

; 191  : 
; 192  : 	if( !m_TargetName.IsEmpty() )

  0003d	8d 8b 50 0a 00
	00		 lea	 ecx, DWORD PTR [ebx+2640]
  00043	ff 15 00 00 00
	00		 call	 DWORD PTR __imp_?IsEmpty@ioHashString@@QBE_NXZ
  00049	84 c0		 test	 al, al
  0004b	75 0a		 jne	 SHORT $LN1@OnRotate

; 193  : 		SetTraceState( pStage );

  0004d	ff 75 08	 push	 DWORD PTR _pStage$[ebp]
  00050	8b cb		 mov	 ecx, ebx
  00052	e8 00 00 00 00	 call	 ?SetTraceState@ioTraceWeapon5@@QAEXPAVioPlayStage@@@Z ; ioTraceWeapon5::SetTraceState
$LN1@OnRotate:

; 194  : 	
; 195  : 	DWORD dwCurTime = FRAMEGETTIME();

  00057	57		 push	 edi
  00058	ff 15 00 00 00
	00		 call	 DWORD PTR __imp_?GetSingleton@ioFrameTimer@@SAAAV1@XZ
  0005e	8b c8		 mov	 ecx, eax
  00060	ff 15 00 00 00
	00		 call	 DWORD PTR __imp_?GetLoopSec@ioFrameTimer@@QBEKXZ

; 196  : 
; 197  : 	// Rotate Weapon.
; 198  : 	float fRate = (fTimePerSec*1000) / m_fRotateSpeed;

  00066	8d 45 d4	 lea	 eax, DWORD PTR _value$536366[ebp]
  00069	50		 push	 eax
  0006a	8d 8b a8 08 00
	00		 lea	 ecx, DWORD PTR [ebx+2216]
  00070	e8 00 00 00 00	 call	 ?DecryptValueToPool@?$CEncrypt@M@@QAEXPAM@Z ; CEncrypt<float>::DecryptValueToPool

; 199  : 	float fRotateAngle = FLOAT360 * fRate;

  00075	b8 68 01 00 00	 mov	 eax, 360		; 00000168H

; 200  : 
; 201  : 	fRotateAngle = ioMath::ArrangeHead( fRotateAngle );

  0007a	d9 45 0c	 fld	 DWORD PTR _fTimePerSec$[ebp]
  0007d	dc 0d 00 00 00
	00		 fmul	 QWORD PTR __real@408f400000000000
  00083	d8 75 d4	 fdiv	 DWORD PTR _value$536366[ebp]
  00086	d9 5d d4	 fstp	 DWORD PTR tv557[ebp]
  00089	d9 45 d4	 fld	 DWORD PTR tv557[ebp]
  0008c	89 45 d4	 mov	 DWORD PTR tv552[ebp], eax
  0008f	db 45 d4	 fild	 DWORD PTR tv552[ebp]
  00092	85 c0		 test	 eax, eax
  00094	79 06		 jns	 SHORT $LN37@OnRotate
  00096	d8 05 00 00 00
	00		 fadd	 DWORD PTR __real@4f800000
$LN37@OnRotate:

; 199  : 	float fRotateAngle = FLOAT360 * fRate;

  0009c	de c9		 fmulp	 ST(1), ST(0)

; 200  : 
; 201  : 	fRotateAngle = ioMath::ArrangeHead( fRotateAngle );

  0009e	51		 push	 ecx
  0009f	d9 5d d4	 fstp	 DWORD PTR tv549[ebp]
  000a2	d9 45 d4	 fld	 DWORD PTR tv549[ebp]
  000a5	d9 1c 24	 fstp	 DWORD PTR [esp]
  000a8	ff 15 00 00 00
	00		 call	 DWORD PTR __imp_?ArrangeHead@ioMath@@SAMM@Z

; 202  : 
; 203  : 	D3DXQUATERNION	qtNewRot;
; 204  : 	D3DXVECTOR3 vAxis = ioMath::UNIT_Y;

  000ae	8b 35 00 00 00
	00		 mov	 esi, DWORD PTR __imp_?UNIT_Y@ioMath@@2UD3DXVECTOR3@@A
  000b4	d9 5d d4	 fstp	 DWORD PTR _fRotateAngle$[ebp]

; 205  : 
; 206  : 	/*if( m_bReverseLoopRotate )
; 207  : 		vAxis = -ioMath::UNIT_Y;*/
; 208  : 	ioMath::CalcDirectionQuaternion( qtNewRot, -m_vMoveDir );

  000b7	f3 0f 10 05 00
	00 00 00	 movss	 xmm0, DWORD PTR __mask@@NegFloat@
  000bf	8d 7d e4	 lea	 edi, DWORD PTR _vAxis$[ebp]
  000c2	a5		 movsd
  000c3	81 c3 44 0a 00
	00		 add	 ebx, 2628		; 00000a44H
  000c9	f3 0f 10 0b	 movss	 xmm1, DWORD PTR [ebx]
  000cd	0f 57 c8	 xorps	 xmm1, xmm0
  000d0	f3 0f 11 4d d8	 movss	 DWORD PTR $T530739[ebp], xmm1
  000d5	f3 0f 10 4b 04	 movss	 xmm1, DWORD PTR [ebx+4]
  000da	0f 57 c8	 xorps	 xmm1, xmm0
  000dd	8d 45 d8	 lea	 eax, DWORD PTR $T530739[ebp]
  000e0	a5		 movsd
  000e1	50		 push	 eax
  000e2	f3 0f 11 4d dc	 movss	 DWORD PTR $T530739[ebp+4], xmm1
  000e7	f3 0f 10 4b 08	 movss	 xmm1, DWORD PTR [ebx+8]
  000ec	8d 45 c0	 lea	 eax, DWORD PTR _qtNewRot$[ebp]
  000ef	0f 57 c8	 xorps	 xmm1, xmm0
  000f2	50		 push	 eax
  000f3	a5		 movsd
  000f4	f3 0f 11 4d e0	 movss	 DWORD PTR $T530739[ebp+8], xmm1
  000f9	ff 15 00 00 00
	00		 call	 DWORD PTR __imp_?CalcDirectionQuaternion@ioMath@@SAXAAUD3DXQUATERNION@@ABUD3DXVECTOR3@@@Z

; 209  : 
; 210  : 	D3DXQuaternionRotationAxis( &qtNewRot, &vAxis, DEGtoRAD(fRotateAngle) );

  000ff	d9 45 d4	 fld	 DWORD PTR _fRotateAngle$[ebp]
  00102	83 c4 08	 add	 esp, 8
  00105	dc 0d 00 00 00
	00		 fmul	 QWORD PTR __real@3f91df46a2526c7a
  0010b	8d 45 e4	 lea	 eax, DWORD PTR _vAxis$[ebp]
  0010e	d9 5d d0	 fstp	 DWORD PTR tv530[ebp]
  00111	d9 45 d0	 fld	 DWORD PTR tv530[ebp]
  00114	d9 1c 24	 fstp	 DWORD PTR [esp]
  00117	50		 push	 eax
  00118	8d 45 c0	 lea	 eax, DWORD PTR _qtNewRot$[ebp]
  0011b	50		 push	 eax
  0011c	e8 00 00 00 00	 call	 _D3DXQuaternionRotationAxis@12

; 211  : 
; 212  : 	m_vMoveDir = qtNewRot * m_vMoveDir;

  00121	53		 push	 ebx
  00122	8d 45 c0	 lea	 eax, DWORD PTR _qtNewRot$[ebp]
  00125	50		 push	 eax
  00126	8d 45 d8	 lea	 eax, DWORD PTR $T530744[ebp]
  00129	50		 push	 eax
  0012a	ff 15 00 00 00
	00		 call	 DWORD PTR __imp_??D@YA?AUD3DXVECTOR3@@ABUD3DXQUATERNION@@ABU0@@Z
  00130	8b f0		 mov	 esi, eax
  00132	8b fb		 mov	 edi, ebx
  00134	a5		 movsd
  00135	83 c4 0c	 add	 esp, 12			; 0000000cH
  00138	a5		 movsd

; 213  : 	D3DXVec3Normalize( &m_vMoveDir, &m_vMoveDir );

  00139	53		 push	 ebx
  0013a	53		 push	 ebx
  0013b	a5		 movsd
  0013c	e8 00 00 00 00	 call	 _D3DXVec3Normalize@8

; 214  : 
; 215  : 	D3DXVECTOR3 vNewPos = GetOwner()->GetMidPositionByRate();

  00141	b8 05 00 00 00	 mov	 eax, 5
  00146	8b c8		 mov	 ecx, eax
  00148	b8 0a 00 00 00	 mov	 eax, 10			; 0000000aH
  0014d	89 4d d0	 mov	 DWORD PTR tv511[ebp], ecx
  00150	db 45 d0	 fild	 DWORD PTR tv511[ebp]
  00153	85 c9		 test	 ecx, ecx
  00155	79 06		 jns	 SHORT $LN38@OnRotate
  00157	d8 05 00 00 00
	00		 fadd	 DWORD PTR __real@4f800000
$LN38@OnRotate:
  0015d	89 45 d0	 mov	 DWORD PTR tv507[ebp], eax
  00160	db 45 d0	 fild	 DWORD PTR tv507[ebp]
  00163	85 c0		 test	 eax, eax
  00165	79 06		 jns	 SHORT $LN39@OnRotate
  00167	d8 05 00 00 00
	00		 fadd	 DWORD PTR __real@4f800000
$LN39@OnRotate:
  0016d	de f9		 fdivp	 ST(1), ST(0)
  0016f	8b 75 bc	 mov	 esi, DWORD PTR _this$GSCopy$[ebp]
  00172	51		 push	 ecx
  00173	8d 45 f0	 lea	 eax, DWORD PTR _vNewPos$[ebp]
  00176	8b ce		 mov	 ecx, esi
  00178	d9 5d d0	 fstp	 DWORD PTR tv503[ebp]
  0017b	d9 45 d0	 fld	 DWORD PTR tv503[ebp]
  0017e	d9 1c 24	 fstp	 DWORD PTR [esp]
  00181	50		 push	 eax
  00182	e8 00 00 00 00	 call	 ?GetOwner@ioWeapon@@QBEPAVioBaseChar@@XZ ; ioWeapon::GetOwner
  00187	8b c8		 mov	 ecx, eax
  00189	e8 00 00 00 00	 call	 ?GetMidPositionByRate@ioGameEntity@@QBE?AUD3DXVECTOR3@@M@Z ; ioGameEntity::GetMidPositionByRate

; 216  : 	vNewPos += m_vMoveDir * m_fRotateRange;

  0018e	8d 45 d0	 lea	 eax, DWORD PTR _value$536400[ebp]
  00191	50		 push	 eax
  00192	8d 8e d8 08 00
	00		 lea	 ecx, DWORD PTR [esi+2264]
  00198	e8 00 00 00 00	 call	 ?DecryptValueToPool@?$CEncrypt@M@@QAEXPAM@Z ; CEncrypt<float>::DecryptValueToPool
  0019d	f3 0f 10 0b	 movss	 xmm1, DWORD PTR [ebx]
  001a1	f3 0f 10 45 d0	 movss	 xmm0, DWORD PTR _value$536400[ebp]
  001a6	f3 0f 10 55 d0	 movss	 xmm2, DWORD PTR _value$536400[ebp]
  001ab	f3 0f 10 5d d0	 movss	 xmm3, DWORD PTR _value$536400[ebp]
  001b0	0f 5a c0	 cvtps2pd xmm0, xmm0
  001b3	0f 5a c9	 cvtps2pd xmm1, xmm1
  001b6	f2 0f 59 c1	 mulsd	 xmm0, xmm1
  001ba	f3 0f 10 4b 04	 movss	 xmm1, DWORD PTR [ebx+4]
  001bf	f2 0f 5a c0	 cvtsd2ss xmm0, xmm0
  001c3	0f 5a c9	 cvtps2pd xmm1, xmm1
  001c6	0f 5a d2	 cvtps2pd xmm2, xmm2
  001c9	f2 0f 59 ca	 mulsd	 xmm1, xmm2
  001cd	f3 0f 10 53 08	 movss	 xmm2, DWORD PTR [ebx+8]
  001d2	f3 0f 5a c0	 cvtss2sd xmm0, xmm0
  001d6	0f 5a db	 cvtps2pd xmm3, xmm3
  001d9	0f 5a d2	 cvtps2pd xmm2, xmm2
  001dc	f2 0f 59 d3	 mulsd	 xmm2, xmm3
  001e0	f3 0f 10 5d f0	 movss	 xmm3, DWORD PTR _vNewPos$[ebp]
  001e5	0f 5a db	 cvtps2pd xmm3, xmm3
  001e8	f2 0f 58 c3	 addsd	 xmm0, xmm3
  001ec	f2 0f 5a c0	 cvtsd2ss xmm0, xmm0
  001f0	f3 0f 11 45 f0	 movss	 DWORD PTR _vNewPos$[ebp], xmm0
  001f5	f3 0f 10 45 f4	 movss	 xmm0, DWORD PTR _vNewPos$[ebp+4]
  001fa	0f 5a c0	 cvtps2pd xmm0, xmm0
  001fd	66 0f 5a c9	 cvtpd2ps xmm1, xmm1
  00201	f3 0f 5a c9	 cvtss2sd xmm1, xmm1
  00205	f2 0f 58 c1	 addsd	 xmm0, xmm1
  00209	66 0f 5a c0	 cvtpd2ps xmm0, xmm0
  0020d	f3 0f 11 45 f4	 movss	 DWORD PTR _vNewPos$[ebp+4], xmm0
  00212	f3 0f 10 45 f8	 movss	 xmm0, DWORD PTR _vNewPos$[ebp+8]
  00217	66 0f 5a d2	 cvtpd2ps xmm2, xmm2
  0021b	0f 5a c0	 cvtps2pd xmm0, xmm0
  0021e	0f 57 c9	 xorps	 xmm1, xmm1
  00221	f3 0f 5a ca	 cvtss2sd xmm1, xmm2

; 217  : 
; 218  : 	SetPosition( vNewPos );

  00225	8d 45 f0	 lea	 eax, DWORD PTR _vNewPos$[ebp]
  00228	f2 0f 58 c1	 addsd	 xmm0, xmm1
  0022c	66 0f 5a c0	 cvtpd2ps xmm0, xmm0
  00230	50		 push	 eax
  00231	8b ce		 mov	 ecx, esi
  00233	f3 0f 11 45 f8	 movss	 DWORD PTR _vNewPos$[ebp+8], xmm0
  00238	e8 00 00 00 00	 call	 ?SetPosition@ioWeapon@@QAEXABUD3DXVECTOR3@@@Z ; ioWeapon::SetPosition

; 219  : 	GetParentSceneNode()->Rotate( ioMath::UNIT_Y, fRotateAngle );

  0023d	8b 4e 04	 mov	 ecx, DWORD PTR [esi+4]
  00240	f3 0f 10 45 d4	 movss	 xmm0, DWORD PTR _fRotateAngle$[ebp]
  00245	8b 01		 mov	 eax, DWORD PTR [ecx]
  00247	6a 01		 push	 1
  00249	51		 push	 ecx
  0024a	f3 0f 11 04 24	 movss	 DWORD PTR [esp], xmm0
  0024f	ff 35 00 00 00
	00		 push	 DWORD PTR __imp_?UNIT_Y@ioMath@@2UD3DXVECTOR3@@A
  00255	ff 50 50	 call	 DWORD PTR [eax+80]

; 220  : 	UpdateWorldAttackBox( fTimePerSec, false );

  00258	f3 0f 10 45 0c	 movss	 xmm0, DWORD PTR _fTimePerSec$[ebp]
  0025d	8b 06		 mov	 eax, DWORD PTR [esi]
  0025f	6a 00		 push	 0
  00261	51		 push	 ecx
  00262	8b ce		 mov	 ecx, esi
  00264	f3 0f 11 04 24	 movss	 DWORD PTR [esp], xmm0
  00269	ff 90 38 01 00
	00		 call	 DWORD PTR [eax+312]
  0026f	5f		 pop	 edi
$LN36@OnRotate:
  00270	5e		 pop	 esi
$LN4@OnRotate:

; 221  : }

  00271	8b 4d fc	 mov	 ecx, DWORD PTR __$ArrayPad$[ebp]
  00274	33 cd		 xor	 ecx, ebp
  00276	5b		 pop	 ebx
  00277	e8 00 00 00 00	 call	 @__security_check_cookie@4
  0027c	c9		 leave
  0027d	c2 08 00	 ret	 8
?OnRotate@ioTraceWeapon5@@IAEXPAVioPlayStage@@M@Z ENDP	; ioTraceWeapon5::OnRotate
_TEXT	ENDS
EXTRN	?HasBuff@ioBaseChar@@QBE_NH@Z:PROC		; ioBaseChar::HasBuff
; Function compile flags: /Ogsp
;	COMDAT ?Process@ioTraceWeapon5@@UAEXMPAVioPlayStage@@@Z
_TEXT	SEGMENT
tv291 = 8						; size = 4
tv268 = 8						; size = 4
tv260 = 8						; size = 4
_fTimePerSec$ = 8					; size = 4
tv294 = 12						; size = 4
tv271 = 12						; size = 4
tv263 = 12						; size = 4
_pStage$ = 12						; size = 4
?Process@ioTraceWeapon5@@UAEXMPAVioPlayStage@@@Z PROC	; ioTraceWeapon5::Process, COMDAT
; _this$ = ecx

; 148  : {

  00000	55		 push	 ebp
  00001	8b ec		 mov	 ebp, esp
  00003	56		 push	 esi
  00004	57		 push	 edi
  00005	8b f1		 mov	 esi, ecx

; 149  : 	//    Weapon .
; 150  : 	if( m_State != TS_ROTATE && m_dwCreatedTime + GetLiveTime() < FRAMEGETTIME() )

  00007	33 ff		 xor	 edi, edi
  00009	39 be 94 08 00
	00		 cmp	 DWORD PTR [esi+2196], edi
  0000f	74 7d		 je	 SHORT $LN9@Process
  00011	53		 push	 ebx
  00012	ff 15 00 00 00
	00		 call	 DWORD PTR __imp_?GetSingleton@ioFrameTimer@@SAAAV1@XZ
  00018	8b c8		 mov	 ecx, eax
  0001a	ff 15 00 00 00
	00		 call	 DWORD PTR __imp_?GetLoopSec@ioFrameTimer@@QBEKXZ
  00020	8b d8		 mov	 ebx, eax
  00022	8b 06		 mov	 eax, DWORD PTR [esi]
  00024	8b ce		 mov	 ecx, esi
  00026	ff 90 04 01 00
	00		 call	 DWORD PTR [eax+260]
  0002c	03 86 d4 04 00
	00		 add	 eax, DWORD PTR [esi+1236]
  00032	3b c3		 cmp	 eax, ebx
  00034	5b		 pop	 ebx
  00035	73 57		 jae	 SHORT $LN9@Process

; 151  : 	{
; 152  : 		UpdateWorldAttackBox( fTimePerSec, false );

  00037	f3 0f 10 45 08	 movss	 xmm0, DWORD PTR _fTimePerSec$[ebp]
  0003c	8b 06		 mov	 eax, DWORD PTR [esi]
  0003e	57		 push	 edi
  0003f	51		 push	 ecx
  00040	8b ce		 mov	 ecx, esi
  00042	f3 0f 11 04 24	 movss	 DWORD PTR [esp], xmm0
  00047	ff 90 38 01 00
	00		 call	 DWORD PTR [eax+312]

; 153  : 
; 154  : 		if( m_pFireBall )

  0004d	39 be 94 0a 00
	00		 cmp	 DWORD PTR [esi+2708], edi
  00053	74 30		 je	 SHORT $LN8@Process

; 155  : 			m_pFireBall->Update( fTimePerSec * FLOAT1000 );

  00055	b8 e8 03 00 00	 mov	 eax, 1000		; 000003e8H
  0005a	8b 8e 94 0a 00
	00		 mov	 ecx, DWORD PTR [esi+2708]
  00060	83 c1 14	 add	 ecx, 20			; 00000014H
  00063	8b 11		 mov	 edx, DWORD PTR [ecx]
  00065	89 45 0c	 mov	 DWORD PTR tv294[ebp], eax
  00068	db 45 0c	 fild	 DWORD PTR tv294[ebp]
  0006b	85 c0		 test	 eax, eax
  0006d	79 06		 jns	 SHORT $LN18@Process
  0006f	d8 05 00 00 00
	00		 fadd	 DWORD PTR __real@4f800000
$LN18@Process:
  00075	d8 4d 08	 fmul	 DWORD PTR _fTimePerSec$[ebp]
  00078	d9 5d 08	 fstp	 DWORD PTR tv291[ebp]
  0007b	d9 45 08	 fld	 DWORD PTR tv291[ebp]
$LN21@Process:
  0007e	51		 push	 ecx
  0007f	d9 1c 24	 fstp	 DWORD PTR [esp]
  00082	ff 52 40	 call	 DWORD PTR [edx+64]
$LN8@Process:

; 156  : 
; 157  : 		SetWeaponDead();

  00085	8b 06		 mov	 eax, DWORD PTR [esi]
  00087	8b ce		 mov	 ecx, esi
  00089	ff 50 4c	 call	 DWORD PTR [eax+76]

; 158  : 		return;

  0008c	eb 5a		 jmp	 SHORT $LN1@Process
$LN9@Process:

; 159  : 	}
; 160  : 
; 161  : 	switch( m_State )

  0008e	8b 86 94 08 00
	00		 mov	 eax, DWORD PTR [esi+2196]
  00094	2b c7		 sub	 eax, edi
  00096	74 56		 je	 SHORT $LN5@Process
  00098	48		 dec	 eax
  00099	75 15		 jne	 SHORT $LN4@Process

; 174  : 		}
; 175  : 		break;
; 176  : 	case TS_TRACING:
; 177  : 		OnTracing( pStage, fTimePerSec );

  0009b	f3 0f 10 45 08	 movss	 xmm0, DWORD PTR _fTimePerSec$[ebp]
  000a0	51		 push	 ecx
  000a1	f3 0f 11 04 24	 movss	 DWORD PTR [esp], xmm0
  000a6	ff 75 0c	 push	 DWORD PTR _pStage$[ebp]
  000a9	8b ce		 mov	 ecx, esi
  000ab	e8 00 00 00 00	 call	 ?OnTracing@ioTraceWeapon5@@IAEXPAVioPlayStage@@M@Z ; ioTraceWeapon5::OnTracing
$LN4@Process:

; 178  : 		break;
; 179  : 	}
; 180  : 
; 181  : 	if( m_pFireBall )

  000b0	39 be 94 0a 00
	00		 cmp	 DWORD PTR [esi+2708], edi
  000b6	74 30		 je	 SHORT $LN1@Process

; 182  : 	{
; 183  : 		m_pFireBall->Update( fTimePerSec * FLOAT1000 );

  000b8	b8 e8 03 00 00	 mov	 eax, 1000		; 000003e8H
  000bd	8b 8e 94 0a 00
	00		 mov	 ecx, DWORD PTR [esi+2708]
  000c3	83 c1 14	 add	 ecx, 20			; 00000014H
  000c6	8b 11		 mov	 edx, DWORD PTR [ecx]
  000c8	89 45 0c	 mov	 DWORD PTR tv263[ebp], eax
  000cb	db 45 0c	 fild	 DWORD PTR tv263[ebp]
  000ce	85 c0		 test	 eax, eax
  000d0	79 06		 jns	 SHORT $LN20@Process
  000d2	d8 05 00 00 00
	00		 fadd	 DWORD PTR __real@4f800000
$LN20@Process:
  000d8	d8 4d 08	 fmul	 DWORD PTR _fTimePerSec$[ebp]
  000db	51		 push	 ecx
  000dc	d9 5d 08	 fstp	 DWORD PTR tv260[ebp]
  000df	d9 45 08	 fld	 DWORD PTR tv260[ebp]
  000e2	d9 1c 24	 fstp	 DWORD PTR [esp]
  000e5	ff 52 40	 call	 DWORD PTR [edx+64]
$LN1@Process:
  000e8	5f		 pop	 edi
  000e9	5e		 pop	 esi

; 184  : 	}
; 185  : }

  000ea	5d		 pop	 ebp
  000eb	c2 08 00	 ret	 8
$LN5@Process:

; 162  : 	{
; 163  : 	case TS_ROTATE:
; 164  : 		OnRotate( pStage, fTimePerSec );

  000ee	f3 0f 10 45 08	 movss	 xmm0, DWORD PTR _fTimePerSec$[ebp]
  000f3	51		 push	 ecx
  000f4	f3 0f 11 04 24	 movss	 DWORD PTR [esp], xmm0
  000f9	ff 75 0c	 push	 DWORD PTR _pStage$[ebp]
  000fc	8b ce		 mov	 ecx, esi
  000fe	e8 00 00 00 00	 call	 ?OnRotate@ioTraceWeapon5@@IAEXPAVioPlayStage@@M@Z ; ioTraceWeapon5::OnRotate

; 165  : 		if( GetOwner() && !GetOwner()->HasBuff( BT_CONTROL_WEAPON ) )

  00103	8b ce		 mov	 ecx, esi
  00105	e8 00 00 00 00	 call	 ?GetOwner@ioWeapon@@QBEPAVioBaseChar@@XZ ; ioWeapon::GetOwner
  0010a	85 c0		 test	 eax, eax
  0010c	74 a2		 je	 SHORT $LN4@Process
  0010e	6a 63		 push	 99			; 00000063H
  00110	8b ce		 mov	 ecx, esi
  00112	e8 00 00 00 00	 call	 ?GetOwner@ioWeapon@@QBEPAVioBaseChar@@XZ ; ioWeapon::GetOwner
  00117	8b c8		 mov	 ecx, eax
  00119	e8 00 00 00 00	 call	 ?HasBuff@ioBaseChar@@QBE_NH@Z ; ioBaseChar::HasBuff
  0011e	84 c0		 test	 al, al
  00120	75 8e		 jne	 SHORT $LN4@Process

; 166  : 		{
; 167  : 			UpdateWorldAttackBox( fTimePerSec, false );

  00122	f3 0f 10 45 08	 movss	 xmm0, DWORD PTR _fTimePerSec$[ebp]
  00127	8b 06		 mov	 eax, DWORD PTR [esi]
  00129	57		 push	 edi
  0012a	51		 push	 ecx
  0012b	8b ce		 mov	 ecx, esi
  0012d	f3 0f 11 04 24	 movss	 DWORD PTR [esp], xmm0
  00132	ff 90 38 01 00
	00		 call	 DWORD PTR [eax+312]

; 168  : 
; 169  : 			if( m_pFireBall )

  00138	39 be 94 0a 00
	00		 cmp	 DWORD PTR [esi+2708], edi
  0013e	0f 84 41 ff ff
	ff		 je	 $LN8@Process

; 170  : 				m_pFireBall->Update( fTimePerSec * FLOAT1000 );

  00144	b8 e8 03 00 00	 mov	 eax, 1000		; 000003e8H
  00149	8b 8e 94 0a 00
	00		 mov	 ecx, DWORD PTR [esi+2708]
  0014f	83 c1 14	 add	 ecx, 20			; 00000014H
  00152	8b 11		 mov	 edx, DWORD PTR [ecx]
  00154	89 45 0c	 mov	 DWORD PTR tv271[ebp], eax
  00157	db 45 0c	 fild	 DWORD PTR tv271[ebp]
  0015a	85 c0		 test	 eax, eax
  0015c	79 06		 jns	 SHORT $LN19@Process
  0015e	d8 05 00 00 00
	00		 fadd	 DWORD PTR __real@4f800000
$LN19@Process:
  00164	d8 4d 08	 fmul	 DWORD PTR _fTimePerSec$[ebp]
  00167	d9 5d 08	 fstp	 DWORD PTR tv268[ebp]
  0016a	d9 45 08	 fld	 DWORD PTR tv268[ebp]

; 171  : 
; 172  : 			SetWeaponDead();
; 173  : 			return;

  0016d	e9 0c ff ff ff	 jmp	 $LN21@Process
?Process@ioTraceWeapon5@@UAEXMPAVioPlayStage@@@Z ENDP	; ioTraceWeapon5::Process
_TEXT	ENDS
END
