; Listing generated by Microsoft (R) Optimizing Compiler Version 16.00.30319.01 

	TITLE	D:\Lost Saga For Developer\Youtube\Tutorial\Source\src\LSClient\ioTrinityItem.cpp
	.686P
	.XMM
	include listing.inc
	.model	flat

INCLUDELIB MSVCRT
INCLUDELIB OLDNAMES

PUBLIC	?_EEM_DS@?$deque@UD3DXVECTOR3@@V?$allocator@UD3DXVECTOR3@@@std@@@std@@2HB ; std::deque<D3DXVECTOR3,std::allocator<D3DXVECTOR3> >::_EEM_DS
;	COMDAT ?_EEM_DS@?$deque@UD3DXVECTOR3@@V?$allocator@UD3DXVECTOR3@@@std@@@std@@2HB
CONST	SEGMENT
?_EEM_DS@?$deque@UD3DXVECTOR3@@V?$allocator@UD3DXVECTOR3@@@std@@@std@@2HB DD 01H ; std::deque<D3DXVECTOR3,std::allocator<D3DXVECTOR3> >::_EEM_DS
CONST	ENDS
PUBLIC	?return1@@YAIXZ					; return1
; Function compile flags: /Ogsp
; File d:\lost saga for developer\youtube\tutorial\source\src\lsclient\stdafx.h
;	COMDAT ?return1@@YAIXZ
_TEXT	SEGMENT
?return1@@YAIXZ PROC					; return1, COMDAT

; 17   : 	__forceinline unsigned int return1() { __asm mov eax, 1 };

  00000	b8 01 00 00 00	 mov	 eax, 1
  00005	c3		 ret	 0
?return1@@YAIXZ ENDP					; return1
_TEXT	ENDS
PUBLIC	?return10@@YAIXZ				; return10
; Function compile flags: /Ogsp
;	COMDAT ?return10@@YAIXZ
_TEXT	SEGMENT
?return10@@YAIXZ PROC					; return10, COMDAT

; 21   : 	__forceinline unsigned int return10() { __asm mov eax, 10 };

  00000	b8 0a 00 00 00	 mov	 eax, 10			; 0000000aH
  00005	c3		 ret	 0
?return10@@YAIXZ ENDP					; return10
_TEXT	ENDS
PUBLIC	?return100@@YAIXZ				; return100
; Function compile flags: /Ogsp
;	COMDAT ?return100@@YAIXZ
_TEXT	SEGMENT
?return100@@YAIXZ PROC					; return100, COMDAT

; 25   : 	__forceinline unsigned int return100() { __asm mov eax, 100 };

  00000	b8 64 00 00 00	 mov	 eax, 100		; 00000064H
  00005	c3		 ret	 0
?return100@@YAIXZ ENDP					; return100
_TEXT	ENDS
PUBLIC	?GetState@ioBaseChar@@QBE?AW4CharState@@XZ	; ioBaseChar::GetState
; Function compile flags: /Ogsp
; File d:\lost saga for developer\youtube\tutorial\source\src\lsclient\iobasechar.h
;	COMDAT ?GetState@ioBaseChar@@QBE?AW4CharState@@XZ
_TEXT	SEGMENT
?GetState@ioBaseChar@@QBE?AW4CharState@@XZ PROC		; ioBaseChar::GetState, COMDAT
; _this$ = ecx

; 2156 : 	inline CharState GetState() const { return m_CharState; }	

  00000	8a 81 10 03 00
	00		 mov	 al, BYTE PTR [ecx+784]
  00006	c3		 ret	 0
?GetState@ioBaseChar@@QBE?AW4CharState@@XZ ENDP		; ioBaseChar::GetState
_TEXT	ENDS
PUBLIC	?GetTargetRot@ioBaseChar@@QBEABUD3DXQUATERNION@@XZ ; ioBaseChar::GetTargetRot
; Function compile flags: /Ogsp
;	COMDAT ?GetTargetRot@ioBaseChar@@QBEABUD3DXQUATERNION@@XZ
_TEXT	SEGMENT
?GetTargetRot@ioBaseChar@@QBEABUD3DXQUATERNION@@XZ PROC	; ioBaseChar::GetTargetRot, COMDAT
; _this$ = ecx

; 2599 : 	inline const D3DXQUATERNION& GetTargetRot() const { return m_qtTargetRot; }

  00000	8d 81 a4 06 00
	00		 lea	 eax, DWORD PTR [ecx+1700]
  00006	c3		 ret	 0
?GetTargetRot@ioBaseChar@@QBEABUD3DXQUATERNION@@XZ ENDP	; ioBaseChar::GetTargetRot
_TEXT	ENDS
PUBLIC	?SetChargingState@ioBaseChar@@QAEX_N@Z		; ioBaseChar::SetChargingState
; Function compile flags: /Ogsp
;	COMDAT ?SetChargingState@ioBaseChar@@QAEX_N@Z
_TEXT	SEGMENT
_bState$ = 8						; size = 1
?SetChargingState@ioBaseChar@@QAEX_N@Z PROC		; ioBaseChar::SetChargingState, COMDAT
; _this$ = ecx

; 2937 : 	inline void SetChargingState( bool bState ) { m_bChargingState = bState; }

  00000	55		 push	 ebp
  00001	8b ec		 mov	 ebp, esp
  00003	8a 45 08	 mov	 al, BYTE PTR _bState$[ebp]
  00006	88 81 54 20 00
	00		 mov	 BYTE PTR [ecx+8276], al
  0000c	5d		 pop	 ebp
  0000d	c2 04 00	 ret	 4
?SetChargingState@ioBaseChar@@QAEX_N@Z ENDP		; ioBaseChar::SetChargingState
_TEXT	ENDS
PUBLIC	??_7bad_alloc@std@@6B@				; std::bad_alloc::`vftable'
PUBLIC	??0bad_alloc@std@@QAE@PBD@Z			; std::bad_alloc::bad_alloc
PUBLIC	??_R4bad_alloc@std@@6B@				; std::bad_alloc::`RTTI Complete Object Locator'
PUBLIC	??_R0?AVbad_alloc@std@@@8			; std::bad_alloc `RTTI Type Descriptor'
PUBLIC	??_R3bad_alloc@std@@8				; std::bad_alloc::`RTTI Class Hierarchy Descriptor'
PUBLIC	??_R2bad_alloc@std@@8				; std::bad_alloc::`RTTI Base Class Array'
PUBLIC	??_R1A@?0A@EA@bad_alloc@std@@8			; std::bad_alloc::`RTTI Base Class Descriptor at (0,-1,0,64)'
PUBLIC	??_R1A@?0A@EA@exception@std@@8			; std::exception::`RTTI Base Class Descriptor at (0,-1,0,64)'
PUBLIC	??_R0?AVexception@std@@@8			; std::exception `RTTI Type Descriptor'
PUBLIC	??_R3exception@std@@8				; std::exception::`RTTI Class Hierarchy Descriptor'
PUBLIC	??_R2exception@std@@8				; std::exception::`RTTI Base Class Array'
EXTRN	__imp_??0exception@std@@QAE@ABQBD@Z:PROC
EXTRN	??_7type_info@@6B@:QWORD			; type_info::`vftable'
EXTRN	??_Ebad_alloc@std@@UAEPAXI@Z:PROC		; std::bad_alloc::`vector deleting destructor'
EXTRN	?what@exception@std@@UBEPBDXZ:PROC		; std::exception::what
;	COMDAT ??_R2exception@std@@8
; File c:\program files (x86)\microsoft visual studio 10.0\vc\include\exception
rdata$r	SEGMENT
??_R2exception@std@@8 DD FLAT:??_R1A@?0A@EA@exception@std@@8 ; std::exception::`RTTI Base Class Array'
rdata$r	ENDS
;	COMDAT ??_R3exception@std@@8
rdata$r	SEGMENT
??_R3exception@std@@8 DD 00H				; std::exception::`RTTI Class Hierarchy Descriptor'
	DD	00H
	DD	01H
	DD	FLAT:??_R2exception@std@@8
rdata$r	ENDS
;	COMDAT ??_R0?AVexception@std@@@8
_DATA	SEGMENT
??_R0?AVexception@std@@@8 DD FLAT:??_7type_info@@6B@	; std::exception `RTTI Type Descriptor'
	DD	00H
	DB	'.?AVexception@std@@', 00H
_DATA	ENDS
;	COMDAT ??_R1A@?0A@EA@exception@std@@8
rdata$r	SEGMENT
??_R1A@?0A@EA@exception@std@@8 DD FLAT:??_R0?AVexception@std@@@8 ; std::exception::`RTTI Base Class Descriptor at (0,-1,0,64)'
	DD	00H
	DD	00H
	DD	0ffffffffH
	DD	00H
	DD	040H
	DD	FLAT:??_R3exception@std@@8
rdata$r	ENDS
;	COMDAT ??_R1A@?0A@EA@bad_alloc@std@@8
rdata$r	SEGMENT
??_R1A@?0A@EA@bad_alloc@std@@8 DD FLAT:??_R0?AVbad_alloc@std@@@8 ; std::bad_alloc::`RTTI Base Class Descriptor at (0,-1,0,64)'
	DD	01H
	DD	00H
	DD	0ffffffffH
	DD	00H
	DD	040H
	DD	FLAT:??_R3bad_alloc@std@@8
rdata$r	ENDS
;	COMDAT ??_R2bad_alloc@std@@8
rdata$r	SEGMENT
??_R2bad_alloc@std@@8 DD FLAT:??_R1A@?0A@EA@bad_alloc@std@@8 ; std::bad_alloc::`RTTI Base Class Array'
	DD	FLAT:??_R1A@?0A@EA@exception@std@@8
rdata$r	ENDS
;	COMDAT ??_R3bad_alloc@std@@8
rdata$r	SEGMENT
??_R3bad_alloc@std@@8 DD 00H				; std::bad_alloc::`RTTI Class Hierarchy Descriptor'
	DD	00H
	DD	02H
	DD	FLAT:??_R2bad_alloc@std@@8
rdata$r	ENDS
;	COMDAT ??_R0?AVbad_alloc@std@@@8
_DATA	SEGMENT
??_R0?AVbad_alloc@std@@@8 DD FLAT:??_7type_info@@6B@	; std::bad_alloc `RTTI Type Descriptor'
	DD	00H
	DB	'.?AVbad_alloc@std@@', 00H
_DATA	ENDS
;	COMDAT ??_R4bad_alloc@std@@6B@
rdata$r	SEGMENT
??_R4bad_alloc@std@@6B@ DD 00H				; std::bad_alloc::`RTTI Complete Object Locator'
	DD	00H
	DD	00H
	DD	FLAT:??_R0?AVbad_alloc@std@@@8
	DD	FLAT:??_R3bad_alloc@std@@8
rdata$r	ENDS
;	COMDAT ??_7bad_alloc@std@@6B@
CONST	SEGMENT
??_7bad_alloc@std@@6B@ DD FLAT:??_R4bad_alloc@std@@6B@	; std::bad_alloc::`vftable'
	DD	FLAT:??_Ebad_alloc@std@@UAEPAXI@Z
	DD	FLAT:?what@exception@std@@UBEPBDXZ
; Function compile flags: /Ogsp
CONST	ENDS
;	COMDAT ??0bad_alloc@std@@QAE@PBD@Z
_TEXT	SEGMENT
__Message$ = 8						; size = 4
??0bad_alloc@std@@QAE@PBD@Z PROC			; std::bad_alloc::bad_alloc, COMDAT
; _this$ = ecx

; 345  : 		{	// construct from message string

  00000	55		 push	 ebp
  00001	8b ec		 mov	 ebp, esp
  00003	56		 push	 esi
  00004	8d 45 08	 lea	 eax, DWORD PTR __Message$[ebp]
  00007	50		 push	 eax
  00008	8b f1		 mov	 esi, ecx
  0000a	ff 15 00 00 00
	00		 call	 DWORD PTR __imp_??0exception@std@@QAE@ABQBD@Z
  00010	c7 06 00 00 00
	00		 mov	 DWORD PTR [esi], OFFSET ??_7bad_alloc@std@@6B@

; 346  : 		}

  00016	8b c6		 mov	 eax, esi
  00018	5e		 pop	 esi
  00019	5d		 pop	 ebp
  0001a	c2 04 00	 ret	 4
??0bad_alloc@std@@QAE@PBD@Z ENDP			; std::bad_alloc::bad_alloc
_TEXT	ENDS
PUBLIC	??1bad_alloc@std@@UAE@XZ			; std::bad_alloc::~bad_alloc
EXTRN	__imp_??1exception@std@@UAE@XZ:PROC
; Function compile flags: /Ogsp
;	COMDAT ??1bad_alloc@std@@UAE@XZ
_TEXT	SEGMENT
??1bad_alloc@std@@UAE@XZ PROC				; std::bad_alloc::~bad_alloc, COMDAT
; _this$ = ecx

; 354  : 		{	// destroy the object

  00000	c7 01 00 00 00
	00		 mov	 DWORD PTR [ecx], OFFSET ??_7bad_alloc@std@@6B@

; 355  : 		}

  00006	ff 25 00 00 00
	00		 jmp	 DWORD PTR __imp_??1exception@std@@UAE@XZ
??1bad_alloc@std@@UAE@XZ ENDP				; std::bad_alloc::~bad_alloc
_TEXT	ENDS
EXTRN	??3@YAXPAX@Z:PROC				; operator delete
; Function compile flags: /Ogsp
;	COMDAT ??_Gbad_alloc@std@@UAEPAXI@Z
_TEXT	SEGMENT
___flags$ = 8						; size = 4
??_Gbad_alloc@std@@UAEPAXI@Z PROC			; std::bad_alloc::`scalar deleting destructor', COMDAT
; _this$ = ecx
  00000	55		 push	 ebp
  00001	8b ec		 mov	 ebp, esp
  00003	56		 push	 esi
  00004	8b f1		 mov	 esi, ecx
  00006	c7 06 00 00 00
	00		 mov	 DWORD PTR [esi], OFFSET ??_7bad_alloc@std@@6B@
  0000c	ff 15 00 00 00
	00		 call	 DWORD PTR __imp_??1exception@std@@UAE@XZ
  00012	f6 45 08 01	 test	 BYTE PTR ___flags$[ebp], 1
  00016	74 07		 je	 SHORT $LN1@scalar
  00018	56		 push	 esi
  00019	e8 00 00 00 00	 call	 ??3@YAXPAX@Z		; operator delete
  0001e	59		 pop	 ecx
$LN1@scalar:
  0001f	8b c6		 mov	 eax, esi
  00021	5e		 pop	 esi
  00022	5d		 pop	 ebp
  00023	c2 04 00	 ret	 4
??_Gbad_alloc@std@@UAEPAXI@Z ENDP			; std::bad_alloc::`scalar deleting destructor'
_TEXT	ENDS
PUBLIC	??2@YAPAXIPAX@Z					; operator new
; Function compile flags: /Ogsp
; File c:\program files (x86)\microsoft visual studio 10.0\vc\include\new
;	COMDAT ??2@YAPAXIPAX@Z
_TEXT	SEGMENT
___formal$ = 8						; size = 4
__Where$ = 12						; size = 4
??2@YAPAXIPAX@Z PROC					; operator new, COMDAT

; 56   : 	{	// construct array with placement at _Where

  00000	55		 push	 ebp
  00001	8b ec		 mov	 ebp, esp

; 57   : 	return (_Where);

  00003	8b 45 0c	 mov	 eax, DWORD PTR __Where$[ebp]

; 58   : 	}

  00006	5d		 pop	 ebp
  00007	c3		 ret	 0
??2@YAPAXIPAX@Z ENDP					; operator new
_TEXT	ENDS
PUBLIC	??3@YAXPAX0@Z					; operator delete
; Function compile flags: /Ogsp
;	COMDAT ??3@YAXPAX0@Z
_TEXT	SEGMENT
___formal$ = 8						; size = 4
___formal$ = 12						; size = 4
??3@YAXPAX0@Z PROC					; operator delete, COMDAT

; 62   : 	}

  00000	c3		 ret	 0
??3@YAXPAX0@Z ENDP					; operator delete
_TEXT	ENDS
PUBLIC	??_R0?AVioWeapon@@@8				; ioWeapon `RTTI Type Descriptor'
PUBLIC	??_R0?AVioZoneEffectWeapon@@@8			; ioZoneEffectWeapon `RTTI Type Descriptor'
PUBLIC	?ToZoneEffectWeapon@@YAPAVioZoneEffectWeapon@@PAVioWeapon@@@Z ; ToZoneEffectWeapon
EXTRN	___RTDynamicCast:PROC
;	COMDAT ??_R0?AVioWeapon@@@8
; File d:\lost saga for developer\youtube\tutorial\source\src\lsclient\iozoneeffectweapon.h
_DATA	SEGMENT
??_R0?AVioWeapon@@@8 DD FLAT:??_7type_info@@6B@		; ioWeapon `RTTI Type Descriptor'
	DD	00H
	DB	'.?AVioWeapon@@', 00H
_DATA	ENDS
;	COMDAT ??_R0?AVioZoneEffectWeapon@@@8
_DATA	SEGMENT
??_R0?AVioZoneEffectWeapon@@@8 DD FLAT:??_7type_info@@6B@ ; ioZoneEffectWeapon `RTTI Type Descriptor'
	DD	00H
	DB	'.?AVioZoneEffectWeapon@@', 00H
; Function compile flags: /Ogsp
_DATA	ENDS
;	COMDAT ?ToZoneEffectWeapon@@YAPAVioZoneEffectWeapon@@PAVioWeapon@@@Z
_TEXT	SEGMENT
_pWeapon$ = 8						; size = 4
?ToZoneEffectWeapon@@YAPAVioZoneEffectWeapon@@PAVioWeapon@@@Z PROC ; ToZoneEffectWeapon, COMDAT

; 217  : {

  00000	55		 push	 ebp
  00001	8b ec		 mov	 ebp, esp
  00003	56		 push	 esi

; 218  : 	if( !pWeapon || pWeapon->GetType() != ioWeapon::WT_ZONE_EFFECT )

  00004	8b 75 08	 mov	 esi, DWORD PTR _pWeapon$[ebp]
  00007	85 f6		 test	 esi, esi
  00009	74 28		 je	 SHORT $LN1@ToZoneEffe
  0000b	8b 06		 mov	 eax, DWORD PTR [esi]
  0000d	8b ce		 mov	 ecx, esi
  0000f	ff 90 10 01 00
	00		 call	 DWORD PTR [eax+272]
  00015	83 f8 08	 cmp	 eax, 8
  00018	75 19		 jne	 SHORT $LN1@ToZoneEffe

; 220  : 
; 221  : 	return dynamic_cast< ioZoneEffectWeapon* >( pWeapon );

  0001a	6a 00		 push	 0
  0001c	68 00 00 00 00	 push	 OFFSET ??_R0?AVioZoneEffectWeapon@@@8
  00021	68 00 00 00 00	 push	 OFFSET ??_R0?AVioWeapon@@@8
  00026	6a 00		 push	 0
  00028	56		 push	 esi
  00029	e8 00 00 00 00	 call	 ___RTDynamicCast
  0002e	83 c4 14	 add	 esp, 20			; 00000014H
  00031	eb 02		 jmp	 SHORT $LN3@ToZoneEffe
$LN1@ToZoneEffe:

; 219  : 		return NULL;

  00033	33 c0		 xor	 eax, eax
$LN3@ToZoneEffe:
  00035	5e		 pop	 esi

; 222  : }

  00036	5d		 pop	 ebp
  00037	c3		 ret	 0
?ToZoneEffectWeapon@@YAPAVioZoneEffectWeapon@@PAVioWeapon@@@Z ENDP ; ToZoneEffectWeapon
_TEXT	ENDS
PUBLIC	?_Adopt@_Iterator_base0@std@@QAEXPBX@Z		; std::_Iterator_base0::_Adopt
; Function compile flags: /Ogsp
; File c:\program files (x86)\microsoft visual studio 10.0\vc\include\xutility
;	COMDAT ?_Adopt@_Iterator_base0@std@@QAEXPBX@Z
_TEXT	SEGMENT
___formal$ = 8						; size = 4
?_Adopt@_Iterator_base0@std@@QAEXPBX@Z PROC		; std::_Iterator_base0::_Adopt, COMDAT
; _this$ = ecx

; 49   : 		}

  00000	c2 04 00	 ret	 4
?_Adopt@_Iterator_base0@std@@QAEXPBX@Z ENDP		; std::_Iterator_base0::_Adopt
_TEXT	ENDS
PUBLIC	?GetSubType@ioTrinityItem@@UBE?AW4WeaponSubType@ioWeaponItem@@XZ ; ioTrinityItem::GetSubType
; Function compile flags: /Ogsp
; File d:\lost saga for developer\youtube\tutorial\source\src\lsclient\iotrinityitem.cpp
;	COMDAT ?GetSubType@ioTrinityItem@@UBE?AW4WeaponSubType@ioWeaponItem@@XZ
_TEXT	SEGMENT
?GetSubType@ioTrinityItem@@UBE?AW4WeaponSubType@ioWeaponItem@@XZ PROC ; ioTrinityItem::GetSubType, COMDAT
; _this$ = ecx

; 181  : 	return WST_TRINITY;

  00000	6a 42		 push	 66			; 00000042H
  00002	58		 pop	 eax

; 182  : }

  00003	c3		 ret	 0
?GetSubType@ioTrinityItem@@UBE?AW4WeaponSubType@ioWeaponItem@@XZ ENDP ; ioTrinityItem::GetSubType
_TEXT	ENDS
PUBLIC	??0D3DXQUATERNION@@QAE@XZ			; D3DXQUATERNION::D3DXQUATERNION
; Function compile flags: /Ogsp
; File c:\program files (x86)\microsoft directx sdk (june 2010)\include\d3dx9math.h
;	COMDAT ??0D3DXQUATERNION@@QAE@XZ
_TEXT	SEGMENT
??0D3DXQUATERNION@@QAE@XZ PROC				; D3DXQUATERNION::D3DXQUATERNION, COMDAT
; _this$ = ecx

; 429  :     D3DXQUATERNION() {}

  00000	8b c1		 mov	 eax, ecx
  00002	c3		 ret	 0
??0D3DXQUATERNION@@QAE@XZ ENDP				; D3DXQUATERNION::D3DXQUATERNION
_TEXT	ENDS
PUBLIC	??0D3DXVECTOR3@@QAE@MMM@Z			; D3DXVECTOR3::D3DXVECTOR3
EXTRN	__fltused:DWORD
; Function compile flags: /Ogsp
; File c:\program files (x86)\microsoft directx sdk (june 2010)\include\d3dx9math.inl
;	COMDAT ??0D3DXVECTOR3@@QAE@MMM@Z
_TEXT	SEGMENT
_fx$ = 8						; size = 4
_fy$ = 12						; size = 4
_fz$ = 16						; size = 4
??0D3DXVECTOR3@@QAE@MMM@Z PROC				; D3DXVECTOR3::D3DXVECTOR3, COMDAT
; _this$ = ecx

; 303  : {

  00000	55		 push	 ebp
  00001	8b ec		 mov	 ebp, esp

; 304  :     x = fx;

  00003	f3 0f 10 45 08	 movss	 xmm0, DWORD PTR _fx$[ebp]
  00008	8b c1		 mov	 eax, ecx
  0000a	f3 0f 11 00	 movss	 DWORD PTR [eax], xmm0

; 305  :     y = fy;

  0000e	f3 0f 10 45 0c	 movss	 xmm0, DWORD PTR _fy$[ebp]
  00013	f3 0f 11 40 04	 movss	 DWORD PTR [eax+4], xmm0

; 306  :     z = fz;

  00018	f3 0f 10 45 10	 movss	 xmm0, DWORD PTR _fz$[ebp]
  0001d	f3 0f 11 40 08	 movss	 DWORD PTR [eax+8], xmm0

; 307  : }

  00022	5d		 pop	 ebp
  00023	c2 0c 00	 ret	 12			; 0000000cH
??0D3DXVECTOR3@@QAE@MMM@Z ENDP				; D3DXVECTOR3::D3DXVECTOR3
_TEXT	ENDS
PUBLIC	__real@4f800000
PUBLIC	__$ArrayPad$
PUBLIC	?SetExtraInfoToWeapon@ioTrinityItem@@UAEXPAVioWeapon@@_N@Z ; ioTrinityItem::SetExtraInfoToWeapon
EXTRN	?SetZoneValue@ioZoneEffectWeapon@@QAEX_N0@Z:PROC ; ioZoneEffectWeapon::SetZoneValue
EXTRN	?SetCollisionDir@ioZoneEffectWeapon@@QAEXAAUD3DXVECTOR3@@@Z:PROC ; ioZoneEffectWeapon::SetCollisionDir
EXTRN	__imp_??D@YA?AUD3DXVECTOR3@@ABUD3DXQUATERNION@@ABU0@@Z:PROC
EXTRN	?GetOwner@ioWeapon@@QBEPAVioBaseChar@@XZ:PROC	; ioWeapon::GetOwner
EXTRN	?SetExtraInfoToWeapon@ioAttackableItem@@UAEXPAVioWeapon@@_N@Z:PROC ; ioAttackableItem::SetExtraInfoToWeapon
EXTRN	___security_cookie:DWORD
EXTRN	@__security_check_cookie@4:PROC
;	COMDAT __real@4f800000
; File d:\lost saga for developer\youtube\tutorial\source\src\lsclient\iobasechar.h
CONST	SEGMENT
__real@4f800000 DD 04f800000r			; 4.29497e+009
; Function compile flags: /Ogsp
; File d:\lost saga for developer\youtube\tutorial\source\src\lsclient\iotrinityitem.cpp
CONST	ENDS
;	COMDAT ?SetExtraInfoToWeapon@ioTrinityItem@@UAEXPAVioWeapon@@_N@Z
_TEXT	SEGMENT
tv167 = -32						; size = 4
_vDir$550996 = -28					; size = 12
$T550998 = -16						; size = 12
__$ArrayPad$ = -4					; size = 4
_pWeapon$ = 8						; size = 4
_bJumpAttack$ = 12					; size = 1
?SetExtraInfoToWeapon@ioTrinityItem@@UAEXPAVioWeapon@@_N@Z PROC ; ioTrinityItem::SetExtraInfoToWeapon, COMDAT
; _this$ = ecx

; 671  : {

  00000	55		 push	 ebp
  00001	8b ec		 mov	 ebp, esp
  00003	83 ec 20	 sub	 esp, 32			; 00000020H
  00006	a1 00 00 00 00	 mov	 eax, DWORD PTR ___security_cookie
  0000b	33 c5		 xor	 eax, ebp
  0000d	89 45 fc	 mov	 DWORD PTR __$ArrayPad$[ebp], eax
  00010	56		 push	 esi

; 672  : 	ioAttackableItem::SetExtraInfoToWeapon( pWeapon, bJumpAttack );

  00011	ff 75 0c	 push	 DWORD PTR _bJumpAttack$[ebp]
  00014	8b 75 08	 mov	 esi, DWORD PTR _pWeapon$[ebp]
  00017	56		 push	 esi
  00018	e8 00 00 00 00	 call	 ?SetExtraInfoToWeapon@ioAttackableItem@@UAEXPAVioWeapon@@_N@Z ; ioAttackableItem::SetExtraInfoToWeapon

; 673  : 
; 674  : 	ioZoneEffectWeapon *pZone = ToZoneEffectWeapon( pWeapon );

  0001d	56		 push	 esi
  0001e	e8 00 00 00 00	 call	 ?ToZoneEffectWeapon@@YAPAVioZoneEffectWeapon@@PAVioWeapon@@@Z ; ToZoneEffectWeapon
  00023	8b f0		 mov	 esi, eax
  00025	59		 pop	 ecx

; 675  : 	if( pZone )

  00026	85 f6		 test	 esi, esi
  00028	74 62		 je	 SHORT $LN1@SetExtraIn

; 676  : 	{
; 677  : 		ioBaseChar *pChar = pZone->GetOwner();

  0002a	8b ce		 mov	 ecx, esi
  0002c	e8 00 00 00 00	 call	 ?GetOwner@ioWeapon@@QBEPAVioBaseChar@@XZ ; ioWeapon::GetOwner
  00031	8b c8		 mov	 ecx, eax

; 678  : 		if( pChar )

  00033	85 c9		 test	 ecx, ecx
  00035	74 55		 je	 SHORT $LN1@SetExtraIn

; 679  : 		{
; 680  : 			D3DXVECTOR3 vDir = pChar->GetTargetRot() * D3DXVECTOR3( 0.0f, 0.0f, -FLOAT1 );

  00037	b8 01 00 00 00	 mov	 eax, 1
  0003c	0f 57 c0	 xorps	 xmm0, xmm0
  0003f	89 45 e0	 mov	 DWORD PTR tv167[ebp], eax
  00042	db 45 e0	 fild	 DWORD PTR tv167[ebp]
  00045	f3 0f 11 45 f0	 movss	 DWORD PTR $T550998[ebp], xmm0
  0004a	f3 0f 11 45 f4	 movss	 DWORD PTR $T550998[ebp+4], xmm0
  0004f	85 c0		 test	 eax, eax
  00051	79 06		 jns	 SHORT $LN11@SetExtraIn
  00053	d8 05 00 00 00
	00		 fadd	 DWORD PTR __real@4f800000
$LN11@SetExtraIn:
  00059	8d 45 f0	 lea	 eax, DWORD PTR $T550998[ebp]
  0005c	d9 e0		 fchs
  0005e	50		 push	 eax
  0005f	d9 5d f8	 fstp	 DWORD PTR $T550998[ebp+8]
  00062	81 c1 a4 06 00
	00		 add	 ecx, 1700		; 000006a4H
  00068	51		 push	 ecx
  00069	8d 45 e4	 lea	 eax, DWORD PTR _vDir$550996[ebp]
  0006c	50		 push	 eax
  0006d	ff 15 00 00 00
	00		 call	 DWORD PTR __imp_??D@YA?AUD3DXVECTOR3@@ABUD3DXQUATERNION@@ABU0@@Z
  00073	83 c4 0c	 add	 esp, 12			; 0000000cH

; 681  : 			pZone->SetCollisionDir( vDir );

  00076	8d 45 e4	 lea	 eax, DWORD PTR _vDir$550996[ebp]
  00079	50		 push	 eax
  0007a	8b ce		 mov	 ecx, esi
  0007c	e8 00 00 00 00	 call	 ?SetCollisionDir@ioZoneEffectWeapon@@QAEXAAUD3DXVECTOR3@@@Z ; ioZoneEffectWeapon::SetCollisionDir

; 682  : 			pZone->SetZoneValue( false, false );

  00081	6a 00		 push	 0
  00083	6a 00		 push	 0
  00085	8b ce		 mov	 ecx, esi
  00087	e8 00 00 00 00	 call	 ?SetZoneValue@ioZoneEffectWeapon@@QAEX_N0@Z ; ioZoneEffectWeapon::SetZoneValue
$LN1@SetExtraIn:

; 683  : 		}
; 684  : 	}
; 685  : }

  0008c	8b 4d fc	 mov	 ecx, DWORD PTR __$ArrayPad$[ebp]
  0008f	33 cd		 xor	 ecx, ebp
  00091	5e		 pop	 esi
  00092	e8 00 00 00 00	 call	 @__security_check_cookie@4
  00097	c9		 leave
  00098	c2 08 00	 ret	 8
?SetExtraInfoToWeapon@ioTrinityItem@@UAEXPAVioWeapon@@_N@Z ENDP ; ioTrinityItem::SetExtraInfoToWeapon
_TEXT	ENDS
PUBLIC	?IsChargeAttackState@ioTrinityItem@@UAE_NPAVioBaseChar@@@Z ; ioTrinityItem::IsChargeAttackState
; Function compile flags: /Ogsp
;	COMDAT ?IsChargeAttackState@ioTrinityItem@@UAE_NPAVioBaseChar@@@Z
_TEXT	SEGMENT
_pOwner$ = 8						; size = 4
?IsChargeAttackState@ioTrinityItem@@UAE_NPAVioBaseChar@@@Z PROC ; ioTrinityItem::IsChargeAttackState, COMDAT
; _this$ = ecx

; 688  : {

  00000	55		 push	 ebp
  00001	8b ec		 mov	 ebp, esp

; 689  : 	if( pOwner->GetState() == CS_ATTACK )

  00003	8b 45 08	 mov	 eax, DWORD PTR _pOwner$[ebp]
  00006	80 b8 10 03 00
	00 05		 cmp	 BYTE PTR [eax+784], 5
  0000d	75 0d		 jne	 SHORT $LN2@IsChargeAt

; 690  : 	{
; 691  : 		switch( m_ChargeState )

  0000f	8b 81 80 19 00
	00		 mov	 eax, DWORD PTR [ecx+6528]
  00015	48		 dec	 eax
  00016	75 04		 jne	 SHORT $LN2@IsChargeAt

; 692  : 		{
; 693  : 		case CS_CHARGING:
; 694  : 			return true;

  00018	b0 01		 mov	 al, 1
  0001a	eb 02		 jmp	 SHORT $LN5@IsChargeAt
$LN2@IsChargeAt:

; 695  : 		}
; 696  : 	}
; 697  : 
; 698  : 	return false;

  0001c	32 c0		 xor	 al, al
$LN5@IsChargeAt:

; 699  : }

  0001e	5d		 pop	 ebp
  0001f	c2 04 00	 ret	 4
?IsChargeAttackState@ioTrinityItem@@UAE_NPAVioBaseChar@@@Z ENDP ; ioTrinityItem::IsChargeAttackState
_TEXT	ENDS
PUBLIC	?IsTrinityState@ioTrinityItem@@QAE_NXZ		; ioTrinityItem::IsTrinityState
; Function compile flags: /Ogsp
;	COMDAT ?IsTrinityState@ioTrinityItem@@QAE_NXZ
_TEXT	SEGMENT
?IsTrinityState@ioTrinityItem@@QAE_NXZ PROC		; ioTrinityItem::IsTrinityState, COMDAT
; _this$ = ecx

; 922  : 	/*switch( m_State )
; 923  : 	{
; 924  : 	case CFS_DELAY:
; 925  : 		return true;
; 926  : 	}*/
; 927  : 
; 928  : 	return false;

  00000	32 c0		 xor	 al, al

; 929  : }

  00002	c3		 ret	 0
?IsTrinityState@ioTrinityItem@@QAE_NXZ ENDP		; ioTrinityItem::IsTrinityState
_TEXT	ENDS
PUBLIC	?GetAttackSpeedRate@ioTrinityItem@@UBEMXZ	; ioTrinityItem::GetAttackSpeedRate
; Function compile flags: /Ogsp
;	COMDAT ?GetAttackSpeedRate@ioTrinityItem@@UBEMXZ
_TEXT	SEGMENT
tv135 = -4						; size = 4
?GetAttackSpeedRate@ioTrinityItem@@UBEMXZ PROC		; ioTrinityItem::GetAttackSpeedRate, COMDAT
; _this$ = ecx

; 984  : {

  00000	55		 push	 ebp
  00001	8b ec		 mov	 ebp, esp
  00003	51		 push	 ecx

; 985  : 	if( m_State != TS_NONE )

  00004	83 b9 84 19 00
	00 00		 cmp	 DWORD PTR [ecx+6532], 0
  0000b	74 08		 je	 SHORT $LN1@GetAttackS

; 986  : 		return m_fAttackSpeedRate;

  0000d	d9 81 18 0a 00
	00		 fld	 DWORD PTR [ecx+2584]

; 989  : }

  00013	c9		 leave
  00014	c3		 ret	 0
$LN1@GetAttackS:

; 987  : 
; 988  : 	return FLOAT1;

  00015	b8 01 00 00 00	 mov	 eax, 1
  0001a	89 45 fc	 mov	 DWORD PTR tv135[ebp], eax
  0001d	db 45 fc	 fild	 DWORD PTR tv135[ebp]
  00020	85 c0		 test	 eax, eax
  00022	79 06		 jns	 SHORT $LN2@GetAttackS
  00024	d8 05 00 00 00
	00		 fadd	 DWORD PTR __real@4f800000
$LN2@GetAttackS:

; 989  : }

  0002a	c9		 leave
  0002b	c3		 ret	 0
?GetAttackSpeedRate@ioTrinityItem@@UBEMXZ ENDP		; ioTrinityItem::GetAttackSpeedRate
_TEXT	ENDS
PUBLIC	?GetCurWeapon@ioTrinityItem@@QAEHXZ		; ioTrinityItem::GetCurWeapon
; Function compile flags: /Ogsp
;	COMDAT ?GetCurWeapon@ioTrinityItem@@QAEHXZ
_TEXT	SEGMENT
?GetCurWeapon@ioTrinityItem@@QAEHXZ PROC		; ioTrinityItem::GetCurWeapon, COMDAT
; _this$ = ecx

; 1133 : 	return m_nWeaponIndex;

  00000	8b 81 00 21 00
	00		 mov	 eax, DWORD PTR [ecx+8448]

; 1134 : }

  00006	c3		 ret	 0
?GetCurWeapon@ioTrinityItem@@QAEHXZ ENDP		; ioTrinityItem::GetCurWeapon
_TEXT	ENDS
PUBLIC	?SetCurWeapon@ioTrinityItem@@QAEXH@Z		; ioTrinityItem::SetCurWeapon
; Function compile flags: /Ogsp
;	COMDAT ?SetCurWeapon@ioTrinityItem@@QAEXH@Z
_TEXT	SEGMENT
_nCurWeapon$ = 8					; size = 4
?SetCurWeapon@ioTrinityItem@@QAEXH@Z PROC		; ioTrinityItem::SetCurWeapon, COMDAT
; _this$ = ecx

; 1137 : {

  00000	55		 push	 ebp
  00001	8b ec		 mov	 ebp, esp

; 1138 : 	m_nWeaponIndex = nCurWeapon;

  00003	8b 45 08	 mov	 eax, DWORD PTR _nCurWeapon$[ebp]
  00006	89 81 00 21 00
	00		 mov	 DWORD PTR [ecx+8448], eax

; 1139 : }

  0000c	5d		 pop	 ebp
  0000d	c2 04 00	 ret	 4
?SetCurWeapon@ioTrinityItem@@QAEXH@Z ENDP		; ioTrinityItem::SetCurWeapon
_TEXT	ENDS
PUBLIC	??_7ioTrinitySpecialState@@6B@			; ioTrinitySpecialState::`vftable'
PUBLIC	??0ioTrinitySpecialState@@QAE@XZ		; ioTrinitySpecialState::ioTrinitySpecialState
PUBLIC	??_R4ioTrinitySpecialState@@6B@			; ioTrinitySpecialState::`RTTI Complete Object Locator'
PUBLIC	??_R0?AVioTrinitySpecialState@@@8		; ioTrinitySpecialState `RTTI Type Descriptor'
PUBLIC	??_R3ioTrinitySpecialState@@8			; ioTrinitySpecialState::`RTTI Class Hierarchy Descriptor'
PUBLIC	??_R2ioTrinitySpecialState@@8			; ioTrinitySpecialState::`RTTI Base Class Array'
PUBLIC	??_R1A@?0A@EA@ioTrinitySpecialState@@8		; ioTrinitySpecialState::`RTTI Base Class Descriptor at (0,-1,0,64)'
PUBLIC	??_R1A@?0A@EA@ioSpecialStateBase@@8		; ioSpecialStateBase::`RTTI Base Class Descriptor at (0,-1,0,64)'
PUBLIC	??_R0?AVioSpecialStateBase@@@8			; ioSpecialStateBase `RTTI Type Descriptor'
PUBLIC	??_R3ioSpecialStateBase@@8			; ioSpecialStateBase::`RTTI Class Hierarchy Descriptor'
PUBLIC	??_R2ioSpecialStateBase@@8			; ioSpecialStateBase::`RTTI Base Class Array'
PUBLIC	?Initialize@ioTrinitySpecialState@@UAEXPAVioBaseChar@@W4CharState@@@Z ; ioTrinitySpecialState::Initialize
PUBLIC	?Finalize@ioTrinitySpecialState@@UAEXPAVioBaseChar@@W4CharState@@1@Z ; ioTrinitySpecialState::Finalize
PUBLIC	?LoadProperty@ioSpecialStateBase@@UAEXAAVioINILoader@@@Z ; ioSpecialStateBase::LoadProperty
PUBLIC	?GetStateName@ioTrinitySpecialState@@UAEPBDXZ	; ioTrinitySpecialState::GetStateName
PUBLIC	?GetState@ioTrinitySpecialState@@UAE?BW4CharState@@XZ ; ioTrinitySpecialState::GetState
PUBLIC	?GetAttackSpeedRate@ioSpecialStateBase@@UAEMPAVioBaseChar@@M@Z ; ioSpecialStateBase::GetAttackSpeedRate
PUBLIC	?CheckSpecialState@ioTrinitySpecialState@@UAEXPAVioBaseChar@@@Z ; ioTrinitySpecialState::CheckSpecialState
PUBLIC	?ProcessState@ioSpecialStateBase@@UAEXPAVioBaseChar@@@Z ; ioSpecialStateBase::ProcessState
PUBLIC	?ProcessMoveSpeed@ioSpecialStateBase@@UAEXPAVioBaseChar@@@Z ; ioSpecialStateBase::ProcessMoveSpeed
PUBLIC	?IsCanNoWound@ioSpecialStateBase@@UAE_NPAVioBaseChar@@@Z ; ioSpecialStateBase::IsCanNoWound
PUBLIC	?IsCollisionAvailableWeapon@ioSpecialStateBase@@UAE_NPAVioBaseChar@@PAVioWeapon@@@Z ; ioSpecialStateBase::IsCollisionAvailableWeapon
PUBLIC	?IsEntityCollisionSkipState@ioSpecialStateBase@@UBE_NQBVioBaseChar@@PAVioGameEntity@@@Z ; ioSpecialStateBase::IsEntityCollisionSkipState
PUBLIC	?IsSendControlInfoToUser@ioSpecialStateBase@@UAE_NPAVioBaseChar@@@Z ; ioSpecialStateBase::IsSendControlInfoToUser
PUBLIC	?IsIgnoreAttackOverDelay@ioSpecialStateBase@@UAE_NXZ ; ioSpecialStateBase::IsIgnoreAttackOverDelay
PUBLIC	?IsLandingEnable@ioSpecialStateBase@@UAE_NXZ	; ioSpecialStateBase::IsLandingEnable
PUBLIC	?IsFallStateCheck@ioSpecialStateBase@@UAE_NXZ	; ioSpecialStateBase::IsFallStateCheck
PUBLIC	?IsEnableBlowWounded@ioTrinitySpecialState@@UAE_NPAVioBaseChar@@@Z ; ioTrinitySpecialState::IsEnableBlowWounded
PUBLIC	?IsNoDropState@ioSpecialStateBase@@UAE_NPAVioBaseChar@@@Z ; ioSpecialStateBase::IsNoDropState
PUBLIC	?IsCanChangeJumppingState@ioSpecialStateBase@@UAE_NPAVioBaseChar@@@Z ; ioSpecialStateBase::IsCanChangeJumppingState
PUBLIC	?IsEnableDashState@ioSpecialStateBase@@UAE_NPAVioBaseChar@@@Z ; ioSpecialStateBase::IsEnableDashState
PUBLIC	?IsStateEnd@ioSpecialStateBase@@UAE_NPAVioBaseChar@@@Z ; ioSpecialStateBase::IsStateEnd
PUBLIC	?IsProcessFlyMove@ioSpecialStateBase@@UAE_NXZ	; ioSpecialStateBase::IsProcessFlyMove
PUBLIC	?IsFloatingState@ioSpecialStateBase@@UBE_NQBVioBaseChar@@@Z ; ioSpecialStateBase::IsFloatingState
PUBLIC	?IsInitializeSync@ioSpecialStateBase@@UAE_NXZ	; ioSpecialStateBase::IsInitializeSync
PUBLIC	?IsJoinSync@ioSpecialStateBase@@UAE_NXZ		; ioSpecialStateBase::IsJoinSync
EXTRN	??0ioSpecialStateBase@@QAE@XZ:PROC		; ioSpecialStateBase::ioSpecialStateBase
EXTRN	?ProcessMove@ioSpecialStateBase@@UAE_NPAVioBaseChar@@MKK@Z:PROC ; ioSpecialStateBase::ProcessMove
EXTRN	?ProcessKeyInput@ioSpecialStateBase@@UAEXPAVioBaseChar@@@Z:PROC ; ioSpecialStateBase::ProcessKeyInput
EXTRN	?IsCharCollisionSkipState@ioSpecialStateBase@@UBE_NQBVioBaseChar@@KKK_N1W4TeamType@@2@Z:PROC ; ioSpecialStateBase::IsCharCollisionSkipState
EXTRN	?GetGravity@ioSpecialStateBase@@UAEXPAVioBaseChar@@AAM@Z:PROC ; ioSpecialStateBase::GetGravity
EXTRN	?FillJoinSync@ioSpecialStateBase@@UAEXAAVSP2Packet@@PAVioBaseChar@@@Z:PROC ; ioSpecialStateBase::FillJoinSync
EXTRN	?ApplyJoinSync@ioSpecialStateBase@@UAEXAAVSP2Packet@@PAVioBaseChar@@@Z:PROC ; ioSpecialStateBase::ApplyJoinSync
EXTRN	?ApplyStateSync@ioSpecialStateBase@@UAEXAAVSP2Packet@@PAVioBaseChar@@@Z:PROC ; ioSpecialStateBase::ApplyStateSync
EXTRN	?CheckFallStateChange@ioSpecialStateBase@@UAEXPAVioBaseChar@@MM_NM@Z:PROC ; ioSpecialStateBase::CheckFallStateChange
EXTRN	??_EioTrinitySpecialState@@UAEPAXI@Z:PROC	; ioTrinitySpecialState::`vector deleting destructor'
;	COMDAT ??_R2ioSpecialStateBase@@8
rdata$r	SEGMENT
??_R2ioSpecialStateBase@@8 DD FLAT:??_R1A@?0A@EA@ioSpecialStateBase@@8 ; ioSpecialStateBase::`RTTI Base Class Array'
rdata$r	ENDS
;	COMDAT ??_R3ioSpecialStateBase@@8
rdata$r	SEGMENT
??_R3ioSpecialStateBase@@8 DD 00H			; ioSpecialStateBase::`RTTI Class Hierarchy Descriptor'
	DD	00H
	DD	01H
	DD	FLAT:??_R2ioSpecialStateBase@@8
rdata$r	ENDS
;	COMDAT ??_R0?AVioSpecialStateBase@@@8
_DATA	SEGMENT
??_R0?AVioSpecialStateBase@@@8 DD FLAT:??_7type_info@@6B@ ; ioSpecialStateBase `RTTI Type Descriptor'
	DD	00H
	DB	'.?AVioSpecialStateBase@@', 00H
_DATA	ENDS
;	COMDAT ??_R1A@?0A@EA@ioSpecialStateBase@@8
rdata$r	SEGMENT
??_R1A@?0A@EA@ioSpecialStateBase@@8 DD FLAT:??_R0?AVioSpecialStateBase@@@8 ; ioSpecialStateBase::`RTTI Base Class Descriptor at (0,-1,0,64)'
	DD	00H
	DD	00H
	DD	0ffffffffH
	DD	00H
	DD	040H
	DD	FLAT:??_R3ioSpecialStateBase@@8
rdata$r	ENDS
;	COMDAT ??_R1A@?0A@EA@ioTrinitySpecialState@@8
rdata$r	SEGMENT
??_R1A@?0A@EA@ioTrinitySpecialState@@8 DD FLAT:??_R0?AVioTrinitySpecialState@@@8 ; ioTrinitySpecialState::`RTTI Base Class Descriptor at (0,-1,0,64)'
	DD	01H
	DD	00H
	DD	0ffffffffH
	DD	00H
	DD	040H
	DD	FLAT:??_R3ioTrinitySpecialState@@8
rdata$r	ENDS
;	COMDAT ??_R2ioTrinitySpecialState@@8
rdata$r	SEGMENT
??_R2ioTrinitySpecialState@@8 DD FLAT:??_R1A@?0A@EA@ioTrinitySpecialState@@8 ; ioTrinitySpecialState::`RTTI Base Class Array'
	DD	FLAT:??_R1A@?0A@EA@ioSpecialStateBase@@8
rdata$r	ENDS
;	COMDAT ??_R3ioTrinitySpecialState@@8
rdata$r	SEGMENT
??_R3ioTrinitySpecialState@@8 DD 00H			; ioTrinitySpecialState::`RTTI Class Hierarchy Descriptor'
	DD	00H
	DD	02H
	DD	FLAT:??_R2ioTrinitySpecialState@@8
rdata$r	ENDS
;	COMDAT ??_R0?AVioTrinitySpecialState@@@8
_DATA	SEGMENT
??_R0?AVioTrinitySpecialState@@@8 DD FLAT:??_7type_info@@6B@ ; ioTrinitySpecialState `RTTI Type Descriptor'
	DD	00H
	DB	'.?AVioTrinitySpecialState@@', 00H
_DATA	ENDS
;	COMDAT ??_R4ioTrinitySpecialState@@6B@
rdata$r	SEGMENT
??_R4ioTrinitySpecialState@@6B@ DD 00H			; ioTrinitySpecialState::`RTTI Complete Object Locator'
	DD	00H
	DD	00H
	DD	FLAT:??_R0?AVioTrinitySpecialState@@@8
	DD	FLAT:??_R3ioTrinitySpecialState@@8
rdata$r	ENDS
;	COMDAT ??_7ioTrinitySpecialState@@6B@
CONST	SEGMENT
??_7ioTrinitySpecialState@@6B@ DD FLAT:??_R4ioTrinitySpecialState@@6B@ ; ioTrinitySpecialState::`vftable'
	DD	FLAT:?Initialize@ioTrinitySpecialState@@UAEXPAVioBaseChar@@W4CharState@@@Z
	DD	FLAT:?Finalize@ioTrinitySpecialState@@UAEXPAVioBaseChar@@W4CharState@@1@Z
	DD	FLAT:?LoadProperty@ioSpecialStateBase@@UAEXAAVioINILoader@@@Z
	DD	FLAT:?GetStateName@ioTrinitySpecialState@@UAEPBDXZ
	DD	FLAT:?GetState@ioTrinitySpecialState@@UAE?BW4CharState@@XZ
	DD	FLAT:?GetAttackSpeedRate@ioSpecialStateBase@@UAEMPAVioBaseChar@@M@Z
	DD	FLAT:?CheckSpecialState@ioTrinitySpecialState@@UAEXPAVioBaseChar@@@Z
	DD	FLAT:?ProcessState@ioSpecialStateBase@@UAEXPAVioBaseChar@@@Z
	DD	FLAT:?ProcessMoveSpeed@ioSpecialStateBase@@UAEXPAVioBaseChar@@@Z
	DD	FLAT:?ProcessMove@ioSpecialStateBase@@UAE_NPAVioBaseChar@@MKK@Z
	DD	FLAT:?ProcessKeyInput@ioSpecialStateBase@@UAEXPAVioBaseChar@@@Z
	DD	FLAT:?IsCanNoWound@ioSpecialStateBase@@UAE_NPAVioBaseChar@@@Z
	DD	FLAT:?IsCollisionAvailableWeapon@ioSpecialStateBase@@UAE_NPAVioBaseChar@@PAVioWeapon@@@Z
	DD	FLAT:?IsEntityCollisionSkipState@ioSpecialStateBase@@UBE_NQBVioBaseChar@@PAVioGameEntity@@@Z
	DD	FLAT:?IsCharCollisionSkipState@ioSpecialStateBase@@UBE_NQBVioBaseChar@@KKK_N1W4TeamType@@2@Z
	DD	FLAT:?IsSendControlInfoToUser@ioSpecialStateBase@@UAE_NPAVioBaseChar@@@Z
	DD	FLAT:?IsIgnoreAttackOverDelay@ioSpecialStateBase@@UAE_NXZ
	DD	FLAT:?IsLandingEnable@ioSpecialStateBase@@UAE_NXZ
	DD	FLAT:?IsFallStateCheck@ioSpecialStateBase@@UAE_NXZ
	DD	FLAT:?IsEnableBlowWounded@ioTrinitySpecialState@@UAE_NPAVioBaseChar@@@Z
	DD	FLAT:?IsNoDropState@ioSpecialStateBase@@UAE_NPAVioBaseChar@@@Z
	DD	FLAT:?GetGravity@ioSpecialStateBase@@UAEXPAVioBaseChar@@AAM@Z
	DD	FLAT:?IsCanChangeJumppingState@ioSpecialStateBase@@UAE_NPAVioBaseChar@@@Z
	DD	FLAT:?IsEnableDashState@ioSpecialStateBase@@UAE_NPAVioBaseChar@@@Z
	DD	FLAT:?IsStateEnd@ioSpecialStateBase@@UAE_NPAVioBaseChar@@@Z
	DD	FLAT:?IsProcessFlyMove@ioSpecialStateBase@@UAE_NXZ
	DD	FLAT:?IsFloatingState@ioSpecialStateBase@@UBE_NQBVioBaseChar@@@Z
	DD	FLAT:?IsInitializeSync@ioSpecialStateBase@@UAE_NXZ
	DD	FLAT:?IsJoinSync@ioSpecialStateBase@@UAE_NXZ
	DD	FLAT:?FillJoinSync@ioSpecialStateBase@@UAEXAAVSP2Packet@@PAVioBaseChar@@@Z
	DD	FLAT:?ApplyJoinSync@ioSpecialStateBase@@UAEXAAVSP2Packet@@PAVioBaseChar@@@Z
	DD	FLAT:?ApplyStateSync@ioSpecialStateBase@@UAEXAAVSP2Packet@@PAVioBaseChar@@@Z
	DD	FLAT:?CheckFallStateChange@ioSpecialStateBase@@UAEXPAVioBaseChar@@MM_NM@Z
	DD	FLAT:??_EioTrinitySpecialState@@UAEPAXI@Z
; Function compile flags: /Ogsp
CONST	ENDS
;	COMDAT ??0ioTrinitySpecialState@@QAE@XZ
_TEXT	SEGMENT
??0ioTrinitySpecialState@@QAE@XZ PROC			; ioTrinitySpecialState::ioTrinitySpecialState, COMDAT
; _this$ = ecx

; 1180 : {

  00000	56		 push	 esi
  00001	8b f1		 mov	 esi, ecx
  00003	e8 00 00 00 00	 call	 ??0ioSpecialStateBase@@QAE@XZ ; ioSpecialStateBase::ioSpecialStateBase
  00008	c7 06 00 00 00
	00		 mov	 DWORD PTR [esi], OFFSET ??_7ioTrinitySpecialState@@6B@

; 1181 : }

  0000e	8b c6		 mov	 eax, esi
  00010	5e		 pop	 esi
  00011	c3		 ret	 0
??0ioTrinitySpecialState@@QAE@XZ ENDP			; ioTrinitySpecialState::ioTrinitySpecialState
; Function compile flags: /Ogsp
; File d:\lost saga for developer\youtube\tutorial\source\src\lsclient\iospecialstatebase.h
_TEXT	ENDS
;	COMDAT ?LoadProperty@ioSpecialStateBase@@UAEXAAVioINILoader@@@Z
_TEXT	SEGMENT
_rkLoader$ = 8						; size = 4
?LoadProperty@ioSpecialStateBase@@UAEXAAVioINILoader@@@Z PROC ; ioSpecialStateBase::LoadProperty, COMDAT
; _this$ = ecx

; 18   : 	virtual void LoadProperty( ioINILoader &rkLoader ){}

  00000	c2 04 00	 ret	 4
?LoadProperty@ioSpecialStateBase@@UAEXAAVioINILoader@@@Z ENDP ; ioSpecialStateBase::LoadProperty
; Function compile flags: /Ogsp
_TEXT	ENDS
;	COMDAT ?GetAttackSpeedRate@ioSpecialStateBase@@UAEMPAVioBaseChar@@M@Z
_TEXT	SEGMENT
_pOwner$ = 8						; size = 4
_fMaxSpeed$ = 12					; size = 4
?GetAttackSpeedRate@ioSpecialStateBase@@UAEMPAVioBaseChar@@M@Z PROC ; ioSpecialStateBase::GetAttackSpeedRate, COMDAT
; _this$ = ecx

; 26   : 	virtual float GetAttackSpeedRate( ioBaseChar* pOwner, float fMaxSpeed ){ return fMaxSpeed; }

  00000	55		 push	 ebp
  00001	8b ec		 mov	 ebp, esp
  00003	d9 45 0c	 fld	 DWORD PTR _fMaxSpeed$[ebp]
  00006	5d		 pop	 ebp
  00007	c2 08 00	 ret	 8
?GetAttackSpeedRate@ioSpecialStateBase@@UAEMPAVioBaseChar@@M@Z ENDP ; ioSpecialStateBase::GetAttackSpeedRate
; Function compile flags: /Ogsp
_TEXT	ENDS
;	COMDAT ?ProcessState@ioSpecialStateBase@@UAEXPAVioBaseChar@@@Z
_TEXT	SEGMENT
_pOwner$ = 8						; size = 4
?ProcessState@ioSpecialStateBase@@UAEXPAVioBaseChar@@@Z PROC ; ioSpecialStateBase::ProcessState, COMDAT
; _this$ = ecx

; 30   : 	virtual void ProcessState( IN ioBaseChar* pOwner ){}

  00000	c2 04 00	 ret	 4
?ProcessState@ioSpecialStateBase@@UAEXPAVioBaseChar@@@Z ENDP ; ioSpecialStateBase::ProcessState
; Function compile flags: /Ogsp
_TEXT	ENDS
;	COMDAT ?ProcessMoveSpeed@ioSpecialStateBase@@UAEXPAVioBaseChar@@@Z
_TEXT	SEGMENT
_pOwner$ = 8						; size = 4
?ProcessMoveSpeed@ioSpecialStateBase@@UAEXPAVioBaseChar@@@Z PROC ; ioSpecialStateBase::ProcessMoveSpeed, COMDAT
; _this$ = ecx

; 31   : 	virtual void ProcessMoveSpeed( ioBaseChar* pOwner ){}

  00000	c2 04 00	 ret	 4
?ProcessMoveSpeed@ioSpecialStateBase@@UAEXPAVioBaseChar@@@Z ENDP ; ioSpecialStateBase::ProcessMoveSpeed
; Function compile flags: /Ogsp
_TEXT	ENDS
;	COMDAT ?IsCanNoWound@ioSpecialStateBase@@UAE_NPAVioBaseChar@@@Z
_TEXT	SEGMENT
_pOwner$ = 8						; size = 4
?IsCanNoWound@ioSpecialStateBase@@UAE_NPAVioBaseChar@@@Z PROC ; ioSpecialStateBase::IsCanNoWound, COMDAT
; _this$ = ecx

; 37   : 	virtual bool IsCanNoWound( ioBaseChar* pOwner ) { return false; };

  00000	32 c0		 xor	 al, al
  00002	c2 04 00	 ret	 4
?IsCanNoWound@ioSpecialStateBase@@UAE_NPAVioBaseChar@@@Z ENDP ; ioSpecialStateBase::IsCanNoWound
; Function compile flags: /Ogsp
_TEXT	ENDS
;	COMDAT ?IsCollisionAvailableWeapon@ioSpecialStateBase@@UAE_NPAVioBaseChar@@PAVioWeapon@@@Z
_TEXT	SEGMENT
_pOwner$ = 8						; size = 4
_pWeapon$ = 12						; size = 4
?IsCollisionAvailableWeapon@ioSpecialStateBase@@UAE_NPAVioBaseChar@@PAVioWeapon@@@Z PROC ; ioSpecialStateBase::IsCollisionAvailableWeapon, COMDAT
; _this$ = ecx

; 38   : 	virtual bool IsCollisionAvailableWeapon( ioBaseChar* pOwner, ioWeapon *pWeapon ) { return true; }

  00000	b0 01		 mov	 al, 1
  00002	c2 08 00	 ret	 8
?IsCollisionAvailableWeapon@ioSpecialStateBase@@UAE_NPAVioBaseChar@@PAVioWeapon@@@Z ENDP ; ioSpecialStateBase::IsCollisionAvailableWeapon
; Function compile flags: /Ogsp
_TEXT	ENDS
;	COMDAT ?IsEntityCollisionSkipState@ioSpecialStateBase@@UBE_NQBVioBaseChar@@PAVioGameEntity@@@Z
_TEXT	SEGMENT
_pOwner$ = 8						; size = 4
_pColEntity$ = 12					; size = 4
?IsEntityCollisionSkipState@ioSpecialStateBase@@UBE_NQBVioBaseChar@@PAVioGameEntity@@@Z PROC ; ioSpecialStateBase::IsEntityCollisionSkipState, COMDAT
; _this$ = ecx

; 39   : 	virtual bool IsEntityCollisionSkipState( const ioBaseChar *const pOwner, ioGameEntity* pColEntity ) const { return false; }

  00000	32 c0		 xor	 al, al
  00002	c2 08 00	 ret	 8
?IsEntityCollisionSkipState@ioSpecialStateBase@@UBE_NQBVioBaseChar@@PAVioGameEntity@@@Z ENDP ; ioSpecialStateBase::IsEntityCollisionSkipState
; Function compile flags: /Ogsp
_TEXT	ENDS
;	COMDAT ?IsSendControlInfoToUser@ioSpecialStateBase@@UAE_NPAVioBaseChar@@@Z
_TEXT	SEGMENT
_pOwner$ = 8						; size = 4
?IsSendControlInfoToUser@ioSpecialStateBase@@UAE_NPAVioBaseChar@@@Z PROC ; ioSpecialStateBase::IsSendControlInfoToUser, COMDAT
; _this$ = ecx

; 49   : 	virtual bool IsSendControlInfoToUser( ioBaseChar* pOwner ){ return true; }	

  00000	b0 01		 mov	 al, 1
  00002	c2 04 00	 ret	 4
?IsSendControlInfoToUser@ioSpecialStateBase@@UAE_NPAVioBaseChar@@@Z ENDP ; ioSpecialStateBase::IsSendControlInfoToUser
; Function compile flags: /Ogsp
_TEXT	ENDS
;	COMDAT ?IsIgnoreAttackOverDelay@ioSpecialStateBase@@UAE_NXZ
_TEXT	SEGMENT
?IsIgnoreAttackOverDelay@ioSpecialStateBase@@UAE_NXZ PROC ; ioSpecialStateBase::IsIgnoreAttackOverDelay, COMDAT
; _this$ = ecx

; 50   : 	virtual bool IsIgnoreAttackOverDelay(){ return false; }

  00000	32 c0		 xor	 al, al
  00002	c3		 ret	 0
?IsIgnoreAttackOverDelay@ioSpecialStateBase@@UAE_NXZ ENDP ; ioSpecialStateBase::IsIgnoreAttackOverDelay
; Function compile flags: /Ogsp
_TEXT	ENDS
;	COMDAT ?IsLandingEnable@ioSpecialStateBase@@UAE_NXZ
_TEXT	SEGMENT
?IsLandingEnable@ioSpecialStateBase@@UAE_NXZ PROC	; ioSpecialStateBase::IsLandingEnable, COMDAT
; _this$ = ecx

; 51   : 	virtual bool IsLandingEnable(){ return true; }

  00000	b0 01		 mov	 al, 1
  00002	c3		 ret	 0
?IsLandingEnable@ioSpecialStateBase@@UAE_NXZ ENDP	; ioSpecialStateBase::IsLandingEnable
; Function compile flags: /Ogsp
_TEXT	ENDS
;	COMDAT ?IsFallStateCheck@ioSpecialStateBase@@UAE_NXZ
_TEXT	SEGMENT
?IsFallStateCheck@ioSpecialStateBase@@UAE_NXZ PROC	; ioSpecialStateBase::IsFallStateCheck, COMDAT
; _this$ = ecx

; 52   : 	virtual bool IsFallStateCheck(){ return true; }

  00000	b0 01		 mov	 al, 1
  00002	c3		 ret	 0
?IsFallStateCheck@ioSpecialStateBase@@UAE_NXZ ENDP	; ioSpecialStateBase::IsFallStateCheck
; Function compile flags: /Ogsp
_TEXT	ENDS
;	COMDAT ?IsNoDropState@ioSpecialStateBase@@UAE_NPAVioBaseChar@@@Z
_TEXT	SEGMENT
_pOwner$ = 8						; size = 4
?IsNoDropState@ioSpecialStateBase@@UAE_NPAVioBaseChar@@@Z PROC ; ioSpecialStateBase::IsNoDropState, COMDAT
; _this$ = ecx

; 54   : 	virtual bool IsNoDropState( ioBaseChar* pOwner ) { return false; }

  00000	32 c0		 xor	 al, al
  00002	c2 04 00	 ret	 4
?IsNoDropState@ioSpecialStateBase@@UAE_NPAVioBaseChar@@@Z ENDP ; ioSpecialStateBase::IsNoDropState
; Function compile flags: /Ogsp
_TEXT	ENDS
;	COMDAT ?IsCanChangeJumppingState@ioSpecialStateBase@@UAE_NPAVioBaseChar@@@Z
_TEXT	SEGMENT
_pOwner$ = 8						; size = 4
?IsCanChangeJumppingState@ioSpecialStateBase@@UAE_NPAVioBaseChar@@@Z PROC ; ioSpecialStateBase::IsCanChangeJumppingState, COMDAT
; _this$ = ecx

; 56   : 	virtual bool IsCanChangeJumppingState( ioBaseChar* pOwner ) { return false; }

  00000	32 c0		 xor	 al, al
  00002	c2 04 00	 ret	 4
?IsCanChangeJumppingState@ioSpecialStateBase@@UAE_NPAVioBaseChar@@@Z ENDP ; ioSpecialStateBase::IsCanChangeJumppingState
; Function compile flags: /Ogsp
_TEXT	ENDS
;	COMDAT ?IsEnableDashState@ioSpecialStateBase@@UAE_NPAVioBaseChar@@@Z
_TEXT	SEGMENT
_pOwner$ = 8						; size = 4
?IsEnableDashState@ioSpecialStateBase@@UAE_NPAVioBaseChar@@@Z PROC ; ioSpecialStateBase::IsEnableDashState, COMDAT
; _this$ = ecx

; 58   : 	virtual bool IsEnableDashState( ioBaseChar* pOwner ){ return false; }

  00000	32 c0		 xor	 al, al
  00002	c2 04 00	 ret	 4
?IsEnableDashState@ioSpecialStateBase@@UAE_NPAVioBaseChar@@@Z ENDP ; ioSpecialStateBase::IsEnableDashState
; Function compile flags: /Ogsp
_TEXT	ENDS
;	COMDAT ?IsStateEnd@ioSpecialStateBase@@UAE_NPAVioBaseChar@@@Z
_TEXT	SEGMENT
_pOwner$ = 8						; size = 4
?IsStateEnd@ioSpecialStateBase@@UAE_NPAVioBaseChar@@@Z PROC ; ioSpecialStateBase::IsStateEnd, COMDAT
; _this$ = ecx

; 61   : 	virtual bool IsStateEnd( ioBaseChar* pOwner ){ return false; }

  00000	32 c0		 xor	 al, al
  00002	c2 04 00	 ret	 4
?IsStateEnd@ioSpecialStateBase@@UAE_NPAVioBaseChar@@@Z ENDP ; ioSpecialStateBase::IsStateEnd
; Function compile flags: /Ogsp
_TEXT	ENDS
;	COMDAT ?IsProcessFlyMove@ioSpecialStateBase@@UAE_NXZ
_TEXT	SEGMENT
?IsProcessFlyMove@ioSpecialStateBase@@UAE_NXZ PROC	; ioSpecialStateBase::IsProcessFlyMove, COMDAT
; _this$ = ecx

; 62   : 	virtual bool IsProcessFlyMove(){ return false; }	

  00000	32 c0		 xor	 al, al
  00002	c3		 ret	 0
?IsProcessFlyMove@ioSpecialStateBase@@UAE_NXZ ENDP	; ioSpecialStateBase::IsProcessFlyMove
; Function compile flags: /Ogsp
_TEXT	ENDS
;	COMDAT ?IsFloatingState@ioSpecialStateBase@@UBE_NQBVioBaseChar@@@Z
_TEXT	SEGMENT
_pOwner$ = 8						; size = 4
?IsFloatingState@ioSpecialStateBase@@UBE_NQBVioBaseChar@@@Z PROC ; ioSpecialStateBase::IsFloatingState, COMDAT
; _this$ = ecx

; 64   : 	virtual bool IsFloatingState( const ioBaseChar * const pOwner ) const { return false; }	

  00000	32 c0		 xor	 al, al
  00002	c2 04 00	 ret	 4
?IsFloatingState@ioSpecialStateBase@@UBE_NQBVioBaseChar@@@Z ENDP ; ioSpecialStateBase::IsFloatingState
; Function compile flags: /Ogsp
_TEXT	ENDS
;	COMDAT ?IsInitializeSync@ioSpecialStateBase@@UAE_NXZ
_TEXT	SEGMENT
?IsInitializeSync@ioSpecialStateBase@@UAE_NXZ PROC	; ioSpecialStateBase::IsInitializeSync, COMDAT
; _this$ = ecx

; 68   : 	virtual bool IsInitializeSync(){ return false; }

  00000	32 c0		 xor	 al, al
  00002	c3		 ret	 0
?IsInitializeSync@ioSpecialStateBase@@UAE_NXZ ENDP	; ioSpecialStateBase::IsInitializeSync
; Function compile flags: /Ogsp
_TEXT	ENDS
;	COMDAT ?IsJoinSync@ioSpecialStateBase@@UAE_NXZ
_TEXT	SEGMENT
?IsJoinSync@ioSpecialStateBase@@UAE_NXZ PROC		; ioSpecialStateBase::IsJoinSync, COMDAT
; _this$ = ecx

; 71   : 	virtual bool IsJoinSync(){ return true; }

  00000	b0 01		 mov	 al, 1
  00002	c3		 ret	 0
?IsJoinSync@ioSpecialStateBase@@UAE_NXZ ENDP		; ioSpecialStateBase::IsJoinSync
_TEXT	ENDS
PUBLIC	??_C@_0L@GIHIENPJ@CS_TRINITY?$AA@		; `string'
;	COMDAT ??_C@_0L@GIHIENPJ@CS_TRINITY?$AA@
; File d:\lost saga for developer\youtube\tutorial\source\src\lsclient\iotrinityitem.h
CONST	SEGMENT
??_C@_0L@GIHIENPJ@CS_TRINITY?$AA@ DB 'CS_TRINITY', 00H	; `string'
; Function compile flags: /Ogsp
CONST	ENDS
;	COMDAT ?GetStateName@ioTrinitySpecialState@@UAEPBDXZ
_TEXT	SEGMENT
?GetStateName@ioTrinitySpecialState@@UAEPBDXZ PROC	; ioTrinitySpecialState::GetStateName, COMDAT
; _this$ = ecx

; 192  : 	virtual const char* GetStateName(){ return "CS_TRINITY"; }

  00000	b8 00 00 00 00	 mov	 eax, OFFSET ??_C@_0L@GIHIENPJ@CS_TRINITY?$AA@
  00005	c3		 ret	 0
?GetStateName@ioTrinitySpecialState@@UAEPBDXZ ENDP	; ioTrinitySpecialState::GetStateName
; Function compile flags: /Ogsp
_TEXT	ENDS
;	COMDAT ?GetState@ioTrinitySpecialState@@UAE?BW4CharState@@XZ
_TEXT	SEGMENT
?GetState@ioTrinitySpecialState@@UAE?BW4CharState@@XZ PROC ; ioTrinitySpecialState::GetState, COMDAT
; _this$ = ecx

; 193  : 	virtual const CharState GetState(){ return CS_TRINITY; }	

  00000	b0 63		 mov	 al, 99			; 00000063H
  00002	c3		 ret	 0
?GetState@ioTrinitySpecialState@@UAE?BW4CharState@@XZ ENDP ; ioTrinitySpecialState::GetState
; Function compile flags: /Ogsp
_TEXT	ENDS
;	COMDAT ?IsEnableBlowWounded@ioTrinitySpecialState@@UAE_NPAVioBaseChar@@@Z
_TEXT	SEGMENT
_pOwner$ = 8						; size = 4
?IsEnableBlowWounded@ioTrinitySpecialState@@UAE_NPAVioBaseChar@@@Z PROC ; ioTrinitySpecialState::IsEnableBlowWounded, COMDAT
; _this$ = ecx

; 194  : 	virtual bool IsEnableBlowWounded( ioBaseChar *pOwner ){ return false; }

  00000	32 c0		 xor	 al, al
  00002	c2 04 00	 ret	 4
?IsEnableBlowWounded@ioTrinitySpecialState@@UAE_NPAVioBaseChar@@@Z ENDP ; ioTrinitySpecialState::IsEnableBlowWounded
_TEXT	ENDS
PUBLIC	??1ioTrinitySpecialState@@UAE@XZ		; ioTrinitySpecialState::~ioTrinitySpecialState
EXTRN	??1ioSpecialStateBase@@UAE@XZ:PROC		; ioSpecialStateBase::~ioSpecialStateBase
; Function compile flags: /Ogsp
; File d:\lost saga for developer\youtube\tutorial\source\src\lsclient\iotrinityitem.cpp
;	COMDAT ??1ioTrinitySpecialState@@UAE@XZ
_TEXT	SEGMENT
??1ioTrinitySpecialState@@UAE@XZ PROC			; ioTrinitySpecialState::~ioTrinitySpecialState, COMDAT
; _this$ = ecx

; 1184 : {

  00000	c7 01 00 00 00
	00		 mov	 DWORD PTR [ecx], OFFSET ??_7ioTrinitySpecialState@@6B@

; 1185 : }

  00006	e9 00 00 00 00	 jmp	 ??1ioSpecialStateBase@@UAE@XZ ; ioSpecialStateBase::~ioSpecialStateBase
??1ioTrinitySpecialState@@UAE@XZ ENDP			; ioTrinitySpecialState::~ioTrinitySpecialState
_TEXT	ENDS
EXTRN	?Initialize@ioSpecialStateBase@@UAEXPAVioBaseChar@@W4CharState@@@Z:PROC ; ioSpecialStateBase::Initialize
; Function compile flags: /Ogsp
;	COMDAT ?Initialize@ioTrinitySpecialState@@UAEXPAVioBaseChar@@W4CharState@@@Z
_TEXT	SEGMENT
_pOwner$ = 8						; size = 4
_eCurrState$ = 12					; size = 1
?Initialize@ioTrinitySpecialState@@UAEXPAVioBaseChar@@W4CharState@@@Z PROC ; ioTrinitySpecialState::Initialize, COMDAT
; _this$ = ecx

; 1188 : {

  00000	55		 push	 ebp
  00001	8b ec		 mov	 ebp, esp

; 1190 : }

  00003	5d		 pop	 ebp

; 1189 : 	ioSpecialStateBase::Initialize( pOwner, eCurrState );

  00004	e9 00 00 00 00	 jmp	 ?Initialize@ioSpecialStateBase@@UAEXPAVioBaseChar@@W4CharState@@@Z ; ioSpecialStateBase::Initialize
?Initialize@ioTrinitySpecialState@@UAEXPAVioBaseChar@@W4CharState@@@Z ENDP ; ioTrinitySpecialState::Initialize
_TEXT	ENDS
PUBLIC	??A?$vector@VioHashString@@V?$allocator@VioHashString@@@std@@@std@@QAEAAVioHashString@@I@Z ; std::vector<ioHashString,std::allocator<ioHashString> >::operator[]
; Function compile flags: /Ogsp
; File c:\program files (x86)\microsoft visual studio 10.0\vc\include\vector
;	COMDAT ??A?$vector@VioHashString@@V?$allocator@VioHashString@@@std@@@std@@QAEAAVioHashString@@I@Z
_TEXT	SEGMENT
__Pos$ = 8						; size = 4
??A?$vector@VioHashString@@V?$allocator@VioHashString@@@std@@@std@@QAEAAVioHashString@@I@Z PROC ; std::vector<ioHashString,std::allocator<ioHashString> >::operator[], COMDAT
; _this$ = ecx

; 928  : 		{	// subscript mutable sequence

  00000	55		 push	 ebp
  00001	8b ec		 mov	 ebp, esp

; 929  :  #if _ITERATOR_DEBUG_LEVEL == 2
; 930  : 		if (size() <= _Pos)
; 931  : 			{	// report error
; 932  : 			_DEBUG_ERROR("vector subscript out of range");
; 933  : 			_SCL_SECURE_OUT_OF_RANGE;
; 934  : 			}
; 935  : 
; 936  :  #elif _ITERATOR_DEBUG_LEVEL == 1
; 937  : 		_SCL_SECURE_VALIDATE_RANGE(_Pos < size());
; 938  :  #endif /* _ITERATOR_DEBUG_LEVEL */
; 939  : 
; 940  : 		return (*(this->_Myfirst + _Pos));

  00003	8b 45 08	 mov	 eax, DWORD PTR __Pos$[ebp]
  00006	c1 e0 04	 shl	 eax, 4
  00009	03 01		 add	 eax, DWORD PTR [ecx]

; 941  : 		}

  0000b	5d		 pop	 ebp
  0000c	c2 04 00	 ret	 4
??A?$vector@VioHashString@@V?$allocator@VioHashString@@@std@@@std@@QAEAAVioHashString@@I@Z ENDP ; std::vector<ioHashString,std::allocator<ioHashString> >::operator[]
_TEXT	ENDS
PUBLIC	?capacity@?$vector@VioHashString@@V?$allocator@VioHashString@@@std@@@std@@QBEIXZ ; std::vector<ioHashString,std::allocator<ioHashString> >::capacity
; Function compile flags: /Ogsp
;	COMDAT ?capacity@?$vector@VioHashString@@V?$allocator@VioHashString@@@std@@@std@@QBEIXZ
_TEXT	SEGMENT
?capacity@?$vector@VioHashString@@V?$allocator@VioHashString@@@std@@@std@@QBEIXZ PROC ; std::vector<ioHashString,std::allocator<ioHashString> >::capacity, COMDAT
; _this$ = ecx

; 777  : 		return (this->_Myend - this->_Myfirst);

  00000	8b 41 08	 mov	 eax, DWORD PTR [ecx+8]
  00003	2b 01		 sub	 eax, DWORD PTR [ecx]
  00005	c1 f8 04	 sar	 eax, 4

; 778  : 		}

  00008	c3		 ret	 0
?capacity@?$vector@VioHashString@@V?$allocator@VioHashString@@@std@@@std@@QBEIXZ ENDP ; std::vector<ioHashString,std::allocator<ioHashString> >::capacity
_TEXT	ENDS
PUBLIC	?_Inside@?$vector@VioHashString@@V?$allocator@VioHashString@@@std@@@std@@IBE_NPBVioHashString@@@Z ; std::vector<ioHashString,std::allocator<ioHashString> >::_Inside
; Function compile flags: /Ogsp
;	COMDAT ?_Inside@?$vector@VioHashString@@V?$allocator@VioHashString@@@std@@@std@@IBE_NPBVioHashString@@@Z
_TEXT	SEGMENT
__Ptr$ = 8						; size = 4
?_Inside@?$vector@VioHashString@@V?$allocator@VioHashString@@@std@@@std@@IBE_NPBVioHashString@@@Z PROC ; std::vector<ioHashString,std::allocator<ioHashString> >::_Inside, COMDAT
; _this$ = ecx

; 1285 : 		{	// test if _Ptr points inside vector

  00000	55		 push	 ebp
  00001	8b ec		 mov	 ebp, esp

; 1286 : 		return (_Ptr < this->_Mylast && this->_Myfirst <= _Ptr);

  00003	8b 45 08	 mov	 eax, DWORD PTR __Ptr$[ebp]
  00006	3b 41 04	 cmp	 eax, DWORD PTR [ecx+4]
  00009	73 09		 jae	 SHORT $LN3@Inside
  0000b	39 01		 cmp	 DWORD PTR [ecx], eax
  0000d	77 05		 ja	 SHORT $LN3@Inside
  0000f	33 c0		 xor	 eax, eax
  00011	40		 inc	 eax
  00012	eb 02		 jmp	 SHORT $LN4@Inside
$LN3@Inside:
  00014	33 c0		 xor	 eax, eax
$LN4@Inside:

; 1287 : 		}

  00016	5d		 pop	 ebp
  00017	c2 04 00	 ret	 4
?_Inside@?$vector@VioHashString@@V?$allocator@VioHashString@@@std@@@std@@IBE_NPBVioHashString@@@Z ENDP ; std::vector<ioHashString,std::allocator<ioHashString> >::_Inside
_TEXT	ENDS
PUBLIC	?_Orphan_range@?$vector@VioHashString@@V?$allocator@VioHashString@@@std@@@std@@IBEXPAVioHashString@@0@Z ; std::vector<ioHashString,std::allocator<ioHashString> >::_Orphan_range
; Function compile flags: /Ogsp
;	COMDAT ?_Orphan_range@?$vector@VioHashString@@V?$allocator@VioHashString@@@std@@@std@@IBEXPAVioHashString@@0@Z
_TEXT	SEGMENT
___formal$ = 8						; size = 4
___formal$ = 12						; size = 4
?_Orphan_range@?$vector@VioHashString@@V?$allocator@VioHashString@@@std@@@std@@IBEXPAVioHashString@@0@Z PROC ; std::vector<ioHashString,std::allocator<ioHashString> >::_Orphan_range, COMDAT
; _this$ = ecx

; 1454 : 		}

  00000	c2 08 00	 ret	 8
?_Orphan_range@?$vector@VioHashString@@V?$allocator@VioHashString@@@std@@@std@@IBEXPAVioHashString@@0@Z ENDP ; std::vector<ioHashString,std::allocator<ioHashString> >::_Orphan_range
_TEXT	ENDS
PUBLIC	??$addressof@VioHashString@@@std@@YAPAVioHashString@@AAV1@@Z ; std::addressof<ioHashString>
; Function compile flags: /Ogsp
; File c:\program files (x86)\microsoft visual studio 10.0\vc\include\xmemory
;	COMDAT ??$addressof@VioHashString@@@std@@YAPAVioHashString@@AAV1@@Z
_TEXT	SEGMENT
__Val$ = 8						; size = 4
??$addressof@VioHashString@@@std@@YAPAVioHashString@@AAV1@@Z PROC ; std::addressof<ioHashString>, COMDAT

; 110  : 	{	// return address of _Val

  00000	55		 push	 ebp
  00001	8b ec		 mov	 ebp, esp

; 111  : 	return ((_Ty *) &(char&)_Val);

  00003	8b 45 08	 mov	 eax, DWORD PTR __Val$[ebp]

; 112  : 	}

  00006	5d		 pop	 ebp
  00007	c3		 ret	 0
??$addressof@VioHashString@@@std@@YAPAVioHashString@@AAV1@@Z ENDP ; std::addressof<ioHashString>
_TEXT	ENDS
PUBLIC	??$forward@VioHashString@@@std@@YA$$QAVioHashString@@AAV1@@Z ; std::forward<ioHashString>
; Function compile flags: /Ogsp
; File c:\program files (x86)\microsoft visual studio 10.0\vc\include\utility
;	COMDAT ??$forward@VioHashString@@@std@@YA$$QAVioHashString@@AAV1@@Z
_TEXT	SEGMENT
__Arg$ = 8						; size = 4
??$forward@VioHashString@@@std@@YA$$QAVioHashString@@AAV1@@Z PROC ; std::forward<ioHashString>, COMDAT

; 78   : 	{	// forward _Arg, given explicitly specified type parameter

  00000	55		 push	 ebp
  00001	8b ec		 mov	 ebp, esp

; 79   : 	return ((_Ty&&)_Arg);

  00003	8b 45 08	 mov	 eax, DWORD PTR __Arg$[ebp]

; 80   : 	}

  00006	5d		 pop	 ebp
  00007	c3		 ret	 0
??$forward@VioHashString@@@std@@YA$$QAVioHashString@@AAV1@@Z ENDP ; std::forward<ioHashString>
_TEXT	ENDS
PUBLIC	??$addressof@$$CBVioHashString@@@std@@YAPBVioHashString@@ABV1@@Z ; std::addressof<ioHashString const >
; Function compile flags: /Ogsp
; File c:\program files (x86)\microsoft visual studio 10.0\vc\include\xmemory
;	COMDAT ??$addressof@$$CBVioHashString@@@std@@YAPBVioHashString@@ABV1@@Z
_TEXT	SEGMENT
__Val$ = 8						; size = 4
??$addressof@$$CBVioHashString@@@std@@YAPBVioHashString@@ABV1@@Z PROC ; std::addressof<ioHashString const >, COMDAT

; 110  : 	{	// return address of _Val

  00000	55		 push	 ebp
  00001	8b ec		 mov	 ebp, esp

; 111  : 	return ((_Ty *) &(char&)_Val);

  00003	8b 45 08	 mov	 eax, DWORD PTR __Val$[ebp]

; 112  : 	}

  00006	5d		 pop	 ebp
  00007	c3		 ret	 0
??$addressof@$$CBVioHashString@@@std@@YAPBVioHashString@@ABV1@@Z ENDP ; std::addressof<ioHashString const >
_TEXT	ENDS
PUBLIC	?construct@?$allocator@VioHashString@@@std@@QAEXPAVioHashString@@$$QAV3@@Z ; std::allocator<ioHashString>::construct
EXTRN	__imp_??0ioHashString@@QAE@ABV0@@Z:PROC
EXTRN	___CxxFrameHandler3:PROC
EXTRN	__EH_epilog3:PROC
EXTRN	__EH_prolog3:PROC
;	COMDAT xdata$x
; File c:\program files (x86)\microsoft visual studio 10.0\vc\include\utility
xdata$x	SEGMENT
__unwindtable$?construct@?$allocator@VioHashString@@@std@@QAEXPAVioHashString@@$$QAV3@@Z DD 0ffffffffH
	DD	FLAT:__unwindfunclet$?construct@?$allocator@VioHashString@@@std@@QAEXPAVioHashString@@$$QAV3@@Z$0
__ehfuncinfo$?construct@?$allocator@VioHashString@@@std@@QAEXPAVioHashString@@$$QAV3@@Z DD 019930522H
	DD	01H
	DD	FLAT:__unwindtable$?construct@?$allocator@VioHashString@@@std@@QAEXPAVioHashString@@$$QAV3@@Z
	DD	2 DUP(00H)
	DD	2 DUP(00H)
	DD	00H
	DD	01H
; Function compile flags: /Ogsp
; File c:\program files (x86)\microsoft visual studio 10.0\vc\include\xmemory
xdata$x	ENDS
;	COMDAT ?construct@?$allocator@VioHashString@@@std@@QAEXPAVioHashString@@$$QAV3@@Z
_TEXT	SEGMENT
$T554420 = -16						; size = 4
__$EHRec$ = -12						; size = 12
__Ptr$ = 8						; size = 4
__Val$ = 12						; size = 4
?construct@?$allocator@VioHashString@@@std@@QAEXPAVioHashString@@$$QAV3@@Z PROC ; std::allocator<ioHashString>::construct, COMDAT
; _this$ = ecx

; 201  : 		{	// construct object at _Ptr with value _Val

  00000	6a 04		 push	 4
  00002	b8 00 00 00 00	 mov	 eax, __ehhandler$?construct@?$allocator@VioHashString@@@std@@QAEXPAVioHashString@@$$QAV3@@Z
  00007	e8 00 00 00 00	 call	 __EH_prolog3

; 202  : 		::new ((void _FARQ *)_Ptr) _Ty(_STD forward<_Ty>(_Val));

  0000c	8b 4d 08	 mov	 ecx, DWORD PTR __Ptr$[ebp]
  0000f	89 4d f0	 mov	 DWORD PTR $T554420[ebp], ecx
  00012	83 65 fc 00	 and	 DWORD PTR __$EHRec$[ebp+8], 0
  00016	85 c9		 test	 ecx, ecx
  00018	74 09		 je	 SHORT $LN3@construct
  0001a	ff 75 0c	 push	 DWORD PTR __Val$[ebp]
  0001d	ff 15 00 00 00
	00		 call	 DWORD PTR __imp_??0ioHashString@@QAE@ABV0@@Z
$LN3@construct:

; 203  : 		}

  00023	e8 00 00 00 00	 call	 __EH_epilog3
  00028	c2 08 00	 ret	 8
_TEXT	ENDS
;	COMDAT text$x
text$x	SEGMENT
__unwindfunclet$?construct@?$allocator@VioHashString@@@std@@QAEXPAVioHashString@@$$QAV3@@Z$0:
  00000	ff 75 08	 push	 DWORD PTR __Ptr$[ebp]
  00003	ff 75 f0	 push	 DWORD PTR $T554420[ebp]
  00006	e8 00 00 00 00	 call	 ??3@YAXPAX0@Z		; operator delete
  0000b	59		 pop	 ecx
  0000c	59		 pop	 ecx
  0000d	c3		 ret	 0
__ehhandler$?construct@?$allocator@VioHashString@@@std@@QAEXPAVioHashString@@$$QAV3@@Z:
  0000e	8b 54 24 08	 mov	 edx, DWORD PTR [esp+8]
  00012	8d 42 0c	 lea	 eax, DWORD PTR [edx+12]
  00015	8b 4a ec	 mov	 ecx, DWORD PTR [edx-20]
  00018	33 c8		 xor	 ecx, eax
  0001a	e8 00 00 00 00	 call	 @__security_check_cookie@4
  0001f	b8 00 00 00 00	 mov	 eax, OFFSET __ehfuncinfo$?construct@?$allocator@VioHashString@@@std@@QAEXPAVioHashString@@$$QAV3@@Z
  00024	e9 00 00 00 00	 jmp	 ___CxxFrameHandler3
text$x	ENDS
?construct@?$allocator@VioHashString@@@std@@QAEXPAVioHashString@@$$QAV3@@Z ENDP ; std::allocator<ioHashString>::construct
PUBLIC	??$_Ptr_cat@V?$_Vector_const_iterator@V?$_Vector_val@UWeaponInfo@@V?$allocator@UWeaponInfo@@@std@@@std@@@std@@PAUWeaponInfo@@@std@@YA?AU_Nonscalar_ptr_iterator_tag@0@AAV?$_Vector_const_iterator@V?$_Vector_val@UWeaponInfo@@V?$allocator@UWeaponInfo@@@std@@@std@@@0@AAPAUWeaponInfo@@@Z ; std::_Ptr_cat<std::_Vector_const_iterator<std::_Vector_val<WeaponInfo,std::allocator<WeaponInfo> > >,WeaponInfo *>
; Function compile flags: /Ogsp
; File c:\program files (x86)\microsoft visual studio 10.0\vc\include\xutility
;	COMDAT ??$_Ptr_cat@V?$_Vector_const_iterator@V?$_Vector_val@UWeaponInfo@@V?$allocator@UWeaponInfo@@@std@@@std@@@std@@PAUWeaponInfo@@@std@@YA?AU_Nonscalar_ptr_iterator_tag@0@AAV?$_Vector_const_iterator@V?$_Vector_val@UWeaponInfo@@V?$allocator@UWeaponInfo@@@std@@@std@@@0@AAPAUWeaponInfo@@@Z
_TEXT	SEGMENT
__Cat$ = -1						; size = 1
___formal$ = 8						; size = 4
___formal$ = 12						; size = 4
??$_Ptr_cat@V?$_Vector_const_iterator@V?$_Vector_val@UWeaponInfo@@V?$allocator@UWeaponInfo@@@std@@@std@@@std@@PAUWeaponInfo@@@std@@YA?AU_Nonscalar_ptr_iterator_tag@0@AAV?$_Vector_const_iterator@V?$_Vector_val@UWeaponInfo@@V?$allocator@UWeaponInfo@@@std@@@std@@@0@AAPAUWeaponInfo@@@Z PROC ; std::_Ptr_cat<std::_Vector_const_iterator<std::_Vector_val<WeaponInfo,std::allocator<WeaponInfo> > >,WeaponInfo *>, COMDAT

; 485  : 	{	// return pointer category from arbitrary arguments

  00000	55		 push	 ebp
  00001	8b ec		 mov	 ebp, esp
  00003	51		 push	 ecx

; 486  : 	_Nonscalar_ptr_iterator_tag _Cat;
; 487  : 	return (_Cat);

  00004	8a 45 ff	 mov	 al, BYTE PTR __Cat$[ebp]

; 488  : 	}

  00007	c9		 leave
  00008	c3		 ret	 0
??$_Ptr_cat@V?$_Vector_const_iterator@V?$_Vector_val@UWeaponInfo@@V?$allocator@UWeaponInfo@@@std@@@std@@@std@@PAUWeaponInfo@@@std@@YA?AU_Nonscalar_ptr_iterator_tag@0@AAV?$_Vector_const_iterator@V?$_Vector_val@UWeaponInfo@@V?$allocator@UWeaponInfo@@@std@@@std@@@0@AAPAUWeaponInfo@@@Z ENDP ; std::_Ptr_cat<std::_Vector_const_iterator<std::_Vector_val<WeaponInfo,std::allocator<WeaponInfo> > >,WeaponInfo *>
_TEXT	ENDS
PUBLIC	??$_Ptr_cat@V?$_Vector_const_iterator@V?$_Vector_val@UForceInfo@@V?$allocator@UForceInfo@@@std@@@std@@@std@@PAUForceInfo@@@std@@YA?AU_Nonscalar_ptr_iterator_tag@0@AAV?$_Vector_const_iterator@V?$_Vector_val@UForceInfo@@V?$allocator@UForceInfo@@@std@@@std@@@0@AAPAUForceInfo@@@Z ; std::_Ptr_cat<std::_Vector_const_iterator<std::_Vector_val<ForceInfo,std::allocator<ForceInfo> > >,ForceInfo *>
; Function compile flags: /Ogsp
;	COMDAT ??$_Ptr_cat@V?$_Vector_const_iterator@V?$_Vector_val@UForceInfo@@V?$allocator@UForceInfo@@@std@@@std@@@std@@PAUForceInfo@@@std@@YA?AU_Nonscalar_ptr_iterator_tag@0@AAV?$_Vector_const_iterator@V?$_Vector_val@UForceInfo@@V?$allocator@UForceInfo@@@std@@@std@@@0@AAPAUForceInfo@@@Z
_TEXT	SEGMENT
__Cat$ = -1						; size = 1
___formal$ = 8						; size = 4
___formal$ = 12						; size = 4
??$_Ptr_cat@V?$_Vector_const_iterator@V?$_Vector_val@UForceInfo@@V?$allocator@UForceInfo@@@std@@@std@@@std@@PAUForceInfo@@@std@@YA?AU_Nonscalar_ptr_iterator_tag@0@AAV?$_Vector_const_iterator@V?$_Vector_val@UForceInfo@@V?$allocator@UForceInfo@@@std@@@std@@@0@AAPAUForceInfo@@@Z PROC ; std::_Ptr_cat<std::_Vector_const_iterator<std::_Vector_val<ForceInfo,std::allocator<ForceInfo> > >,ForceInfo *>, COMDAT

; 485  : 	{	// return pointer category from arbitrary arguments

  00000	55		 push	 ebp
  00001	8b ec		 mov	 ebp, esp
  00003	51		 push	 ecx

; 486  : 	_Nonscalar_ptr_iterator_tag _Cat;
; 487  : 	return (_Cat);

  00004	8a 45 ff	 mov	 al, BYTE PTR __Cat$[ebp]

; 488  : 	}

  00007	c9		 leave
  00008	c3		 ret	 0
??$_Ptr_cat@V?$_Vector_const_iterator@V?$_Vector_val@UForceInfo@@V?$allocator@UForceInfo@@@std@@@std@@@std@@PAUForceInfo@@@std@@YA?AU_Nonscalar_ptr_iterator_tag@0@AAV?$_Vector_const_iterator@V?$_Vector_val@UForceInfo@@V?$allocator@UForceInfo@@@std@@@std@@@0@AAPAUForceInfo@@@Z ENDP ; std::_Ptr_cat<std::_Vector_const_iterator<std::_Vector_val<ForceInfo,std::allocator<ForceInfo> > >,ForceInfo *>
_TEXT	ENDS
PUBLIC	??$_Val_type@PAVioHashString@@@std@@YAPAVioHashString@@PAV1@@Z ; std::_Val_type<ioHashString *>
; Function compile flags: /Ogsp
;	COMDAT ??$_Val_type@PAVioHashString@@@std@@YAPAVioHashString@@PAV1@@Z
_TEXT	SEGMENT
___formal$ = 8						; size = 4
??$_Val_type@PAVioHashString@@@std@@YAPAVioHashString@@PAV1@@Z PROC ; std::_Val_type<ioHashString *>, COMDAT

; 790  : 	return (0);

  00000	33 c0		 xor	 eax, eax

; 791  : 	}

  00002	c3		 ret	 0
??$_Val_type@PAVioHashString@@@std@@YAPAVioHashString@@PAV1@@Z ENDP ; std::_Val_type<ioHashString *>
_TEXT	ENDS
PUBLIC	??D?$_Vector_const_iterator@V?$_Vector_val@UWeaponInfo@@V?$allocator@UWeaponInfo@@@std@@@std@@@std@@QBEABUWeaponInfo@@XZ ; std::_Vector_const_iterator<std::_Vector_val<WeaponInfo,std::allocator<WeaponInfo> > >::operator*
; Function compile flags: /Ogsp
; File c:\program files (x86)\microsoft visual studio 10.0\vc\include\vector
;	COMDAT ??D?$_Vector_const_iterator@V?$_Vector_val@UWeaponInfo@@V?$allocator@UWeaponInfo@@@std@@@std@@@std@@QBEABUWeaponInfo@@XZ
_TEXT	SEGMENT
??D?$_Vector_const_iterator@V?$_Vector_val@UWeaponInfo@@V?$allocator@UWeaponInfo@@@std@@@std@@@std@@QBEABUWeaponInfo@@XZ PROC ; std::_Vector_const_iterator<std::_Vector_val<WeaponInfo,std::allocator<WeaponInfo> > >::operator*, COMDAT
; _this$ = ecx

; 64   :  #if _ITERATOR_DEBUG_LEVEL == 2
; 65   : 		if (this->_Getcont() == 0
; 66   : 			|| this->_Ptr == 0
; 67   : 			|| this->_Ptr < ((_Myvec *)this->_Getcont())->_Myfirst
; 68   : 			|| ((_Myvec *)this->_Getcont())->_Mylast <= this->_Ptr)
; 69   : 			{	// report error
; 70   : 			_DEBUG_ERROR("vector iterator not dereferencable");
; 71   : 			_SCL_SECURE_OUT_OF_RANGE;
; 72   : 			}
; 73   : 
; 74   :  #elif _ITERATOR_DEBUG_LEVEL == 1
; 75   : 		_SCL_SECURE_VALIDATE(this->_Getcont() != 0);
; 76   : 		_SCL_SECURE_VALIDATE_RANGE(
; 77   : 			this->_Ptr != 0
; 78   : 			&& ((_Myvec *)this->_Getcont())->_Myfirst <= this->_Ptr
; 79   : 			&& this->_Ptr < ((_Myvec *)this->_Getcont())->_Mylast);
; 80   :  #endif /* _ITERATOR_DEBUG_LEVEL */
; 81   : 
; 82   : 		__analysis_assume(this->_Ptr != 0);
; 83   : 
; 84   : 		return (*this->_Ptr);

  00000	8b 01		 mov	 eax, DWORD PTR [ecx]

; 85   : 		}

  00002	c3		 ret	 0
??D?$_Vector_const_iterator@V?$_Vector_val@UWeaponInfo@@V?$allocator@UWeaponInfo@@@std@@@std@@@std@@QBEABUWeaponInfo@@XZ ENDP ; std::_Vector_const_iterator<std::_Vector_val<WeaponInfo,std::allocator<WeaponInfo> > >::operator*
_TEXT	ENDS
PUBLIC	??E?$_Vector_const_iterator@V?$_Vector_val@UWeaponInfo@@V?$allocator@UWeaponInfo@@@std@@@std@@@std@@QAEAAV01@XZ ; std::_Vector_const_iterator<std::_Vector_val<WeaponInfo,std::allocator<WeaponInfo> > >::operator++
; Function compile flags: /Ogsp
;	COMDAT ??E?$_Vector_const_iterator@V?$_Vector_val@UWeaponInfo@@V?$allocator@UWeaponInfo@@@std@@@std@@@std@@QAEAAV01@XZ
_TEXT	SEGMENT
??E?$_Vector_const_iterator@V?$_Vector_val@UWeaponInfo@@V?$allocator@UWeaponInfo@@@std@@@std@@@std@@QAEAAV01@XZ PROC ; std::_Vector_const_iterator<std::_Vector_val<WeaponInfo,std::allocator<WeaponInfo> > >::operator++, COMDAT
; _this$ = ecx

; 93   : 		{	// preincrement

  00000	8b c1		 mov	 eax, ecx

; 94   :  #if _ITERATOR_DEBUG_LEVEL == 2
; 95   : 		if (this->_Getcont() == 0
; 96   : 			|| this->_Ptr == 0
; 97   : 			|| ((_Myvec *)this->_Getcont())->_Mylast <= this->_Ptr)
; 98   : 			{	// report error
; 99   : 			_DEBUG_ERROR("vector iterator not incrementable");
; 100  : 			_SCL_SECURE_OUT_OF_RANGE;
; 101  : 			}
; 102  : 
; 103  :  #elif _ITERATOR_DEBUG_LEVEL == 1
; 104  : 		_SCL_SECURE_VALIDATE(this->_Getcont() != 0);
; 105  : 		_SCL_SECURE_VALIDATE_RANGE(
; 106  : 			this->_Ptr != 0
; 107  : 			&& this->_Ptr < ((_Myvec *)this->_Getcont())->_Mylast);
; 108  :  #endif /* _ITERATOR_DEBUG_LEVEL */
; 109  : 
; 110  : 		++this->_Ptr;

  00002	83 00 28	 add	 DWORD PTR [eax], 40	; 00000028H

; 111  : 		return (*this);
; 112  : 		}

  00005	c3		 ret	 0
??E?$_Vector_const_iterator@V?$_Vector_val@UWeaponInfo@@V?$allocator@UWeaponInfo@@@std@@@std@@@std@@QAEAAV01@XZ ENDP ; std::_Vector_const_iterator<std::_Vector_val<WeaponInfo,std::allocator<WeaponInfo> > >::operator++
_TEXT	ENDS
PUBLIC	??D?$_Vector_const_iterator@V?$_Vector_val@UForceInfo@@V?$allocator@UForceInfo@@@std@@@std@@@std@@QBEABUForceInfo@@XZ ; std::_Vector_const_iterator<std::_Vector_val<ForceInfo,std::allocator<ForceInfo> > >::operator*
; Function compile flags: /Ogsp
;	COMDAT ??D?$_Vector_const_iterator@V?$_Vector_val@UForceInfo@@V?$allocator@UForceInfo@@@std@@@std@@@std@@QBEABUForceInfo@@XZ
_TEXT	SEGMENT
??D?$_Vector_const_iterator@V?$_Vector_val@UForceInfo@@V?$allocator@UForceInfo@@@std@@@std@@@std@@QBEABUForceInfo@@XZ PROC ; std::_Vector_const_iterator<std::_Vector_val<ForceInfo,std::allocator<ForceInfo> > >::operator*, COMDAT
; _this$ = ecx

; 64   :  #if _ITERATOR_DEBUG_LEVEL == 2
; 65   : 		if (this->_Getcont() == 0
; 66   : 			|| this->_Ptr == 0
; 67   : 			|| this->_Ptr < ((_Myvec *)this->_Getcont())->_Myfirst
; 68   : 			|| ((_Myvec *)this->_Getcont())->_Mylast <= this->_Ptr)
; 69   : 			{	// report error
; 70   : 			_DEBUG_ERROR("vector iterator not dereferencable");
; 71   : 			_SCL_SECURE_OUT_OF_RANGE;
; 72   : 			}
; 73   : 
; 74   :  #elif _ITERATOR_DEBUG_LEVEL == 1
; 75   : 		_SCL_SECURE_VALIDATE(this->_Getcont() != 0);
; 76   : 		_SCL_SECURE_VALIDATE_RANGE(
; 77   : 			this->_Ptr != 0
; 78   : 			&& ((_Myvec *)this->_Getcont())->_Myfirst <= this->_Ptr
; 79   : 			&& this->_Ptr < ((_Myvec *)this->_Getcont())->_Mylast);
; 80   :  #endif /* _ITERATOR_DEBUG_LEVEL */
; 81   : 
; 82   : 		__analysis_assume(this->_Ptr != 0);
; 83   : 
; 84   : 		return (*this->_Ptr);

  00000	8b 01		 mov	 eax, DWORD PTR [ecx]

; 85   : 		}

  00002	c3		 ret	 0
??D?$_Vector_const_iterator@V?$_Vector_val@UForceInfo@@V?$allocator@UForceInfo@@@std@@@std@@@std@@QBEABUForceInfo@@XZ ENDP ; std::_Vector_const_iterator<std::_Vector_val<ForceInfo,std::allocator<ForceInfo> > >::operator*
_TEXT	ENDS
PUBLIC	??E?$_Vector_const_iterator@V?$_Vector_val@UForceInfo@@V?$allocator@UForceInfo@@@std@@@std@@@std@@QAEAAV01@XZ ; std::_Vector_const_iterator<std::_Vector_val<ForceInfo,std::allocator<ForceInfo> > >::operator++
; Function compile flags: /Ogsp
;	COMDAT ??E?$_Vector_const_iterator@V?$_Vector_val@UForceInfo@@V?$allocator@UForceInfo@@@std@@@std@@@std@@QAEAAV01@XZ
_TEXT	SEGMENT
??E?$_Vector_const_iterator@V?$_Vector_val@UForceInfo@@V?$allocator@UForceInfo@@@std@@@std@@@std@@QAEAAV01@XZ PROC ; std::_Vector_const_iterator<std::_Vector_val<ForceInfo,std::allocator<ForceInfo> > >::operator++, COMDAT
; _this$ = ecx

; 93   : 		{	// preincrement

  00000	8b c1		 mov	 eax, ecx

; 94   :  #if _ITERATOR_DEBUG_LEVEL == 2
; 95   : 		if (this->_Getcont() == 0
; 96   : 			|| this->_Ptr == 0
; 97   : 			|| ((_Myvec *)this->_Getcont())->_Mylast <= this->_Ptr)
; 98   : 			{	// report error
; 99   : 			_DEBUG_ERROR("vector iterator not incrementable");
; 100  : 			_SCL_SECURE_OUT_OF_RANGE;
; 101  : 			}
; 102  : 
; 103  :  #elif _ITERATOR_DEBUG_LEVEL == 1
; 104  : 		_SCL_SECURE_VALIDATE(this->_Getcont() != 0);
; 105  : 		_SCL_SECURE_VALIDATE_RANGE(
; 106  : 			this->_Ptr != 0
; 107  : 			&& this->_Ptr < ((_Myvec *)this->_Getcont())->_Mylast);
; 108  :  #endif /* _ITERATOR_DEBUG_LEVEL */
; 109  : 
; 110  : 		++this->_Ptr;

  00002	83 00 0c	 add	 DWORD PTR [eax], 12	; 0000000cH

; 111  : 		return (*this);
; 112  : 		}

  00005	c3		 ret	 0
??E?$_Vector_const_iterator@V?$_Vector_val@UForceInfo@@V?$allocator@UForceInfo@@@std@@@std@@@std@@QAEAAV01@XZ ENDP ; std::_Vector_const_iterator<std::_Vector_val<ForceInfo,std::allocator<ForceInfo> > >::operator++
_TEXT	ENDS
PUBLIC	??$forward@ABUWeaponInfo@@@std@@YAABUWeaponInfo@@ABU1@@Z ; std::forward<WeaponInfo const &>
; Function compile flags: /Ogsp
; File c:\program files (x86)\microsoft visual studio 10.0\vc\include\utility
;	COMDAT ??$forward@ABUWeaponInfo@@@std@@YAABUWeaponInfo@@ABU1@@Z
_TEXT	SEGMENT
__Arg$ = 8						; size = 4
??$forward@ABUWeaponInfo@@@std@@YAABUWeaponInfo@@ABU1@@Z PROC ; std::forward<WeaponInfo const &>, COMDAT

; 78   : 	{	// forward _Arg, given explicitly specified type parameter

  00000	55		 push	 ebp
  00001	8b ec		 mov	 ebp, esp

; 79   : 	return ((_Ty&&)_Arg);

  00003	8b 45 08	 mov	 eax, DWORD PTR __Arg$[ebp]

; 80   : 	}

  00006	5d		 pop	 ebp
  00007	c3		 ret	 0
??$forward@ABUWeaponInfo@@@std@@YAABUWeaponInfo@@ABU1@@Z ENDP ; std::forward<WeaponInfo const &>
_TEXT	ENDS
PUBLIC	??$forward@ABUForceInfo@@@std@@YAABUForceInfo@@ABU1@@Z ; std::forward<ForceInfo const &>
; Function compile flags: /Ogsp
;	COMDAT ??$forward@ABUForceInfo@@@std@@YAABUForceInfo@@ABU1@@Z
_TEXT	SEGMENT
__Arg$ = 8						; size = 4
??$forward@ABUForceInfo@@@std@@YAABUForceInfo@@ABU1@@Z PROC ; std::forward<ForceInfo const &>, COMDAT

; 78   : 	{	// forward _Arg, given explicitly specified type parameter

  00000	55		 push	 ebp
  00001	8b ec		 mov	 ebp, esp

; 79   : 	return ((_Ty&&)_Arg);

  00003	8b 45 08	 mov	 eax, DWORD PTR __Arg$[ebp]

; 80   : 	}

  00006	5d		 pop	 ebp
  00007	c3		 ret	 0
??$forward@ABUForceInfo@@@std@@YAABUForceInfo@@ABU1@@Z ENDP ; std::forward<ForceInfo const &>
_TEXT	ENDS
PUBLIC	??$_Construct@UForceInfo@@ABU1@@std@@YAXPAUForceInfo@@ABU1@@Z ; std::_Construct<ForceInfo,ForceInfo const &>
; Function compile flags: /Ogsp
; File c:\program files (x86)\microsoft visual studio 10.0\vc\include\xmemory
;	COMDAT ??$_Construct@UForceInfo@@ABU1@@std@@YAXPAUForceInfo@@ABU1@@Z
_TEXT	SEGMENT
__Ptr$ = 8						; size = 4
__Val$ = 12						; size = 4
??$_Construct@UForceInfo@@ABU1@@std@@YAXPAUForceInfo@@ABU1@@Z PROC ; std::_Construct<ForceInfo,ForceInfo const &>, COMDAT

; 46   : 	{	// construct object at _Ptr with value _Val

  00000	55		 push	 ebp
  00001	8b ec		 mov	 ebp, esp
  00003	57		 push	 edi

; 47   : 	void _FARQ *_Vptr = _Ptr;
; 48   : 	::new (_Vptr) _Ty1(_STD forward<_Ty2>(_Val));

  00004	8b 7d 08	 mov	 edi, DWORD PTR __Ptr$[ebp]
  00007	85 ff		 test	 edi, edi
  00009	74 08		 je	 SHORT $LN3@Construct
  0000b	56		 push	 esi
  0000c	8b 75 0c	 mov	 esi, DWORD PTR __Val$[ebp]
  0000f	a5		 movsd
  00010	a5		 movsd
  00011	a5		 movsd
  00012	5e		 pop	 esi
$LN3@Construct:
  00013	5f		 pop	 edi

; 49   : 	}

  00014	5d		 pop	 ebp
  00015	c3		 ret	 0
??$_Construct@UForceInfo@@ABU1@@std@@YAXPAUForceInfo@@ABU1@@Z ENDP ; std::_Construct<ForceInfo,ForceInfo const &>
_TEXT	ENDS
PUBLIC	?_DECSTR@@YAXPADH@Z				; _DECSTR
; Function compile flags: /Ogsp
; File d:\lost saga for developer\youtube\tutorial\source\src\lsclient\stringprotect.h
;	COMDAT ?_DECSTR@@YAXPADH@Z
_TEXT	SEGMENT
_s$ = 8							; size = 4
_l$ = 12						; size = 4
?_DECSTR@@YAXPADH@Z PROC				; _DECSTR, COMDAT

; 40   : __forceinline void _DECSTR(char* s, int l){int i=0,l4=(l-1)/4,*p=(int*)s;s[l-1]=0;for(;i<l4;++i)*(p++)^=0xEAEBECED;for(i=l4*4;i<l-1;++i)s[i]^=0xED-i%4;}

  00000	55		 push	 ebp
  00001	8b ec		 mov	 ebp, esp
  00003	8b 4d 0c	 mov	 ecx, DWORD PTR _l$[ebp]
  00006	56		 push	 esi
  00007	8b 75 08	 mov	 esi, DWORD PTR _s$[ebp]
  0000a	57		 push	 edi
  0000b	8d 79 ff	 lea	 edi, DWORD PTR [ecx-1]
  0000e	8b c7		 mov	 eax, edi
  00010	99		 cdq
  00011	83 e2 03	 and	 edx, 3
  00014	03 c2		 add	 eax, edx
  00016	c1 f8 02	 sar	 eax, 2
  00019	8b d6		 mov	 edx, esi
  0001b	c6 44 0e ff 00	 mov	 BYTE PTR [esi+ecx-1], 0
  00020	85 c0		 test	 eax, eax
  00022	7e 0e		 jle	 SHORT $LN4@DECSTR
  00024	8b c8		 mov	 ecx, eax
$LL6@DECSTR:
  00026	81 32 ed ec eb
	ea		 xor	 DWORD PTR [edx], -353637139 ; eaebecedH
  0002c	83 c2 04	 add	 edx, 4
  0002f	49		 dec	 ecx
  00030	75 f4		 jne	 SHORT $LL6@DECSTR
$LN4@DECSTR:
  00032	c1 e0 02	 shl	 eax, 2
  00035	eb 17		 jmp	 SHORT $LN14@DECSTR
$LL3@DECSTR:
  00037	8b c8		 mov	 ecx, eax
  00039	81 e1 03 00 00
	80		 and	 ecx, -2147483645	; 80000003H
  0003f	79 05		 jns	 SHORT $LN13@DECSTR
  00041	49		 dec	 ecx
  00042	83 c9 fc	 or	 ecx, -4			; fffffffcH
  00045	41		 inc	 ecx
$LN13@DECSTR:
  00046	b2 ed		 mov	 dl, -19			; ffffffedH
  00048	2a d1		 sub	 dl, cl
  0004a	30 14 30	 xor	 BYTE PTR [eax+esi], dl
  0004d	40		 inc	 eax
$LN14@DECSTR:
  0004e	3b c7		 cmp	 eax, edi
  00050	7c e5		 jl	 SHORT $LL3@DECSTR
  00052	5f		 pop	 edi
  00053	5e		 pop	 esi
  00054	5d		 pop	 ebp
  00055	c3		 ret	 0
?_DECSTR@@YAXPADH@Z ENDP				; _DECSTR
_TEXT	ENDS
PUBLIC	?GetGroup@ioGameEntity@@QBEPAVioEntityGroup@@XZ	; ioGameEntity::GetGroup
; Function compile flags: /Ogsp
; File d:\lost saga for developer\youtube\tutorial\source\src\lsclient\iogameentity.h
;	COMDAT ?GetGroup@ioGameEntity@@QBEPAVioEntityGroup@@XZ
_TEXT	SEGMENT
?GetGroup@ioGameEntity@@QBEPAVioEntityGroup@@XZ PROC	; ioGameEntity::GetGroup, COMDAT
; _this$ = ecx

; 166  : 	inline ioEntityGroup* GetGroup() const { return m_pGroup; }

  00000	8b 41 04	 mov	 eax, DWORD PTR [ecx+4]
  00003	c3		 ret	 0
?GetGroup@ioGameEntity@@QBEPAVioEntityGroup@@XZ ENDP	; ioGameEntity::GetGroup
_TEXT	ENDS
PUBLIC	??1WeaponInfo@@QAE@XZ				; WeaponInfo::~WeaponInfo
EXTRN	__imp_??1ioHashString@@QAE@XZ:PROC
; Function compile flags: /Ogsp
;	COMDAT ??1WeaponInfo@@QAE@XZ
_TEXT	SEGMENT
??1WeaponInfo@@QAE@XZ PROC				; WeaponInfo::~WeaponInfo, COMDAT
; _this$ = ecx
  00000	83 c1 08	 add	 ecx, 8
  00003	ff 25 00 00 00
	00		 jmp	 DWORD PTR __imp_??1ioHashString@@QAE@XZ
??1WeaponInfo@@QAE@XZ ENDP				; WeaponInfo::~WeaponInfo
_TEXT	ENDS
PUBLIC	?Init@tagTrinityInfo@@QAEXXZ			; tagTrinityInfo::Init
EXTRN	?Init@AttackAttribute@@QAEXXZ:PROC		; AttackAttribute::Init
; Function compile flags: /Ogsp
; File d:\lost saga for developer\youtube\tutorial\source\src\lsclient\playentityhelpstruct.h
;	COMDAT ?Init@tagTrinityInfo@@QAEXXZ
_TEXT	SEGMENT
tv208 = -4						; size = 4
?Init@tagTrinityInfo@@QAEXXZ PROC			; tagTrinityInfo::Init, COMDAT
; _this$ = ecx

; 2775 : 	{

  00000	55		 push	 ebp
  00001	8b ec		 mov	 ebp, esp
  00003	51		 push	 ecx
  00004	53		 push	 ebx
  00005	56		 push	 esi
  00006	8b f1		 mov	 esi, ecx
  00008	57		 push	 edi

; 2776 : 		for( size_t i = 0; i < MAX_TRINITY_ATTACK_CNT; i++ )

  00009	33 ff		 xor	 edi, edi
  0000b	8b de		 mov	 ebx, esi
$LL3@Init:

; 2777 : 		{
; 2778 : 			m_FullAttack[i].Init();

  0000d	8b cb		 mov	 ecx, ebx
  0000f	e8 00 00 00 00	 call	 ?Init@AttackAttribute@@QAEXXZ ; AttackAttribute::Init

; 2779 : 			m_NoneFullAttack[i].Init();

  00014	8d 8b e0 01 00
	00		 lea	 ecx, DWORD PTR [ebx+480]
  0001a	e8 00 00 00 00	 call	 ?Init@AttackAttribute@@QAEXXZ ; AttackAttribute::Init

; 2780 : 			m_bUseGravityForJumpAttack[i] = false;

  0001f	c6 84 3e c0 06
	00 00 00	 mov	 BYTE PTR [esi+edi+1728], 0
  00027	47		 inc	 edi
  00028	83 c3 50	 add	 ebx, 80			; 00000050H
  0002b	83 ff 06	 cmp	 edi, 6
  0002e	72 dd		 jb	 SHORT $LL3@Init

; 2781 : 		}
; 2782 : 
; 2783 : 		m_fReloadAniRate = FLOAT1;

  00030	b8 01 00 00 00	 mov	 eax, 1
  00035	89 45 fc	 mov	 DWORD PTR tv208[ebp], eax
  00038	db 45 fc	 fild	 DWORD PTR tv208[ebp]
  0003b	85 c0		 test	 eax, eax
  0003d	79 06		 jns	 SHORT $LN10@Init
  0003f	d8 05 00 00 00
	00		 fadd	 DWORD PTR __real@4f800000
$LN10@Init:
  00045	5f		 pop	 edi
  00046	d9 9e d8 06 00
	00		 fstp	 DWORD PTR [esi+1752]
  0004c	5e		 pop	 esi
  0004d	5b		 pop	 ebx

; 2784 : 	}

  0004e	c9		 leave
  0004f	c3		 ret	 0
?Init@tagTrinityInfo@@QAEXXZ ENDP			; tagTrinityInfo::Init
_TEXT	ENDS
PUBLIC	??_R0?AVioItem@@@8				; ioItem `RTTI Type Descriptor'
PUBLIC	??_R0?AVioWeaponItem@@@8			; ioWeaponItem `RTTI Type Descriptor'
PUBLIC	?ToWeaponItem@@YAPAVioWeaponItem@@PAVioItem@@@Z	; ToWeaponItem
;	COMDAT ??_R0?AVioItem@@@8
; File d:\lost saga for developer\youtube\tutorial\source\src\lsclient\ioweaponitem.h
_DATA	SEGMENT
??_R0?AVioItem@@@8 DD FLAT:??_7type_info@@6B@		; ioItem `RTTI Type Descriptor'
	DD	00H
	DB	'.?AVioItem@@', 00H
_DATA	ENDS
;	COMDAT ??_R0?AVioWeaponItem@@@8
_DATA	SEGMENT
??_R0?AVioWeaponItem@@@8 DD FLAT:??_7type_info@@6B@	; ioWeaponItem `RTTI Type Descriptor'
	DD	00H
	DB	'.?AVioWeaponItem@@', 00H
; Function compile flags: /Ogsp
_DATA	ENDS
;	COMDAT ?ToWeaponItem@@YAPAVioWeaponItem@@PAVioItem@@@Z
_TEXT	SEGMENT
_pItem$ = 8						; size = 4
?ToWeaponItem@@YAPAVioWeaponItem@@PAVioItem@@@Z PROC	; ToWeaponItem, COMDAT

; 303  : {

  00000	55		 push	 ebp
  00001	8b ec		 mov	 ebp, esp
  00003	56		 push	 esi

; 304  : 	if( !pItem || pItem->GetType() != ioItem::IT_WEAPON )

  00004	8b 75 08	 mov	 esi, DWORD PTR _pItem$[ebp]
  00007	85 f6		 test	 esi, esi
  00009	74 25		 je	 SHORT $LN1@ToWeaponIt
  0000b	8b 06		 mov	 eax, DWORD PTR [esi]
  0000d	8b ce		 mov	 ecx, esi
  0000f	ff 50 08	 call	 DWORD PTR [eax+8]
  00012	83 f8 01	 cmp	 eax, 1
  00015	75 19		 jne	 SHORT $LN1@ToWeaponIt

; 306  : 
; 307  : 	return dynamic_cast< ioWeaponItem* >( pItem );

  00017	6a 00		 push	 0
  00019	68 00 00 00 00	 push	 OFFSET ??_R0?AVioWeaponItem@@@8
  0001e	68 00 00 00 00	 push	 OFFSET ??_R0?AVioItem@@@8
  00023	6a 00		 push	 0
  00025	56		 push	 esi
  00026	e8 00 00 00 00	 call	 ___RTDynamicCast
  0002b	83 c4 14	 add	 esp, 20			; 00000014H
  0002e	eb 02		 jmp	 SHORT $LN3@ToWeaponIt
$LN1@ToWeaponIt:

; 305  : 		return NULL;

  00030	33 c0		 xor	 eax, eax
$LN3@ToWeaponIt:
  00032	5e		 pop	 esi

; 308  : }

  00033	5d		 pop	 ebp
  00034	c3		 ret	 0
?ToWeaponItem@@YAPAVioWeaponItem@@PAVioItem@@@Z ENDP	; ToWeaponItem
_TEXT	ENDS
PUBLIC	?size@?$vector@VioHashString@@V?$allocator@VioHashString@@@std@@@std@@QBEIXZ ; std::vector<ioHashString,std::allocator<ioHashString> >::size
; Function compile flags: /Ogsp
; File c:\program files (x86)\microsoft visual studio 10.0\vc\include\vector
;	COMDAT ?size@?$vector@VioHashString@@V?$allocator@VioHashString@@@std@@@std@@QBEIXZ
_TEXT	SEGMENT
?size@?$vector@VioHashString@@V?$allocator@VioHashString@@@std@@@std@@QBEIXZ PROC ; std::vector<ioHashString,std::allocator<ioHashString> >::size, COMDAT
; _this$ = ecx

; 879  : 		return (this->_Mylast - this->_Myfirst);

  00000	8b 41 04	 mov	 eax, DWORD PTR [ecx+4]
  00003	2b 01		 sub	 eax, DWORD PTR [ecx]
  00005	c1 f8 04	 sar	 eax, 4

; 880  : 		}

  00008	c3		 ret	 0
?size@?$vector@VioHashString@@V?$allocator@VioHashString@@@std@@@std@@QBEIXZ ENDP ; std::vector<ioHashString,std::allocator<ioHashString> >::size
_TEXT	ENDS
PUBLIC	??_7?$CEncrypt@M@@6B@				; CEncrypt<float>::`vftable'
PUBLIC	??1?$CEncrypt@M@@UAE@XZ				; CEncrypt<float>::~CEncrypt<float>
PUBLIC	??_R4?$CEncrypt@M@@6B@				; CEncrypt<float>::`RTTI Complete Object Locator'
PUBLIC	??_R0?AV?$CEncrypt@M@@@8			; CEncrypt<float> `RTTI Type Descriptor'
PUBLIC	??_R3?$CEncrypt@M@@8				; CEncrypt<float>::`RTTI Class Hierarchy Descriptor'
PUBLIC	??_R2?$CEncrypt@M@@8				; CEncrypt<float>::`RTTI Base Class Array'
PUBLIC	??_R1A@?0A@EA@?$CEncrypt@M@@8			; CEncrypt<float>::`RTTI Base Class Descriptor at (0,-1,0,64)'
EXTRN	??1ccddaabb@@UAE@XZ:PROC			; ccddaabb::~ccddaabb
EXTRN	??_E?$CEncrypt@M@@UAEPAXI@Z:PROC		; CEncrypt<float>::`vector deleting destructor'
;	COMDAT ??_R1A@?0A@EA@?$CEncrypt@M@@8
; File d:\lost saga for developer\youtube\tutorial\source\src\lsclient\encryptvalue.h
rdata$r	SEGMENT
??_R1A@?0A@EA@?$CEncrypt@M@@8 DD FLAT:??_R0?AV?$CEncrypt@M@@@8 ; CEncrypt<float>::`RTTI Base Class Descriptor at (0,-1,0,64)'
	DD	00H
	DD	00H
	DD	0ffffffffH
	DD	00H
	DD	040H
	DD	FLAT:??_R3?$CEncrypt@M@@8
rdata$r	ENDS
;	COMDAT ??_R2?$CEncrypt@M@@8
rdata$r	SEGMENT
??_R2?$CEncrypt@M@@8 DD FLAT:??_R1A@?0A@EA@?$CEncrypt@M@@8 ; CEncrypt<float>::`RTTI Base Class Array'
rdata$r	ENDS
;	COMDAT ??_R3?$CEncrypt@M@@8
rdata$r	SEGMENT
??_R3?$CEncrypt@M@@8 DD 00H				; CEncrypt<float>::`RTTI Class Hierarchy Descriptor'
	DD	00H
	DD	01H
	DD	FLAT:??_R2?$CEncrypt@M@@8
rdata$r	ENDS
;	COMDAT ??_R0?AV?$CEncrypt@M@@@8
_DATA	SEGMENT
??_R0?AV?$CEncrypt@M@@@8 DD FLAT:??_7type_info@@6B@	; CEncrypt<float> `RTTI Type Descriptor'
	DD	00H
	DB	'.?AV?$CEncrypt@M@@', 00H
_DATA	ENDS
;	COMDAT ??_R4?$CEncrypt@M@@6B@
rdata$r	SEGMENT
??_R4?$CEncrypt@M@@6B@ DD 00H				; CEncrypt<float>::`RTTI Complete Object Locator'
	DD	00H
	DD	00H
	DD	FLAT:??_R0?AV?$CEncrypt@M@@@8
	DD	FLAT:??_R3?$CEncrypt@M@@8
rdata$r	ENDS
;	COMDAT ??_7?$CEncrypt@M@@6B@
CONST	SEGMENT
??_7?$CEncrypt@M@@6B@ DD FLAT:??_R4?$CEncrypt@M@@6B@	; CEncrypt<float>::`vftable'
	DD	FLAT:??_E?$CEncrypt@M@@UAEPAXI@Z
; Function compile flags: /Ogsp
CONST	ENDS
;	COMDAT ??1?$CEncrypt@M@@UAE@XZ
_TEXT	SEGMENT
??1?$CEncrypt@M@@UAE@XZ PROC				; CEncrypt<float>::~CEncrypt<float>, COMDAT
; _this$ = ecx

; 127  : 	{

  00000	c7 01 00 00 00
	00		 mov	 DWORD PTR [ecx], OFFSET ??_7?$CEncrypt@M@@6B@

; 128  : 	}

  00006	83 c1 0c	 add	 ecx, 12			; 0000000cH
  00009	e9 00 00 00 00	 jmp	 ??1ccddaabb@@UAE@XZ	; ccddaabb::~ccddaabb
??1?$CEncrypt@M@@UAE@XZ ENDP				; CEncrypt<float>::~CEncrypt<float>
; Function compile flags: /Ogsp
_TEXT	ENDS
;	COMDAT ??_G?$CEncrypt@M@@UAEPAXI@Z
_TEXT	SEGMENT
___flags$ = 8						; size = 4
??_G?$CEncrypt@M@@UAEPAXI@Z PROC			; CEncrypt<float>::`scalar deleting destructor', COMDAT
; _this$ = ecx
  00000	55		 push	 ebp
  00001	8b ec		 mov	 ebp, esp
  00003	56		 push	 esi
  00004	8b f1		 mov	 esi, ecx
  00006	8d 4e 0c	 lea	 ecx, DWORD PTR [esi+12]
  00009	c7 06 00 00 00
	00		 mov	 DWORD PTR [esi], OFFSET ??_7?$CEncrypt@M@@6B@
  0000f	e8 00 00 00 00	 call	 ??1ccddaabb@@UAE@XZ	; ccddaabb::~ccddaabb
  00014	f6 45 08 01	 test	 BYTE PTR ___flags$[ebp], 1
  00018	74 07		 je	 SHORT $LN1@scalar@2
  0001a	56		 push	 esi
  0001b	e8 00 00 00 00	 call	 ??3@YAXPAX@Z		; operator delete
  00020	59		 pop	 ecx
$LN1@scalar@2:
  00021	8b c6		 mov	 eax, esi
  00023	5e		 pop	 esi
  00024	5d		 pop	 ebp
  00025	c2 04 00	 ret	 4
??_G?$CEncrypt@M@@UAEPAXI@Z ENDP			; CEncrypt<float>::`scalar deleting destructor'
_TEXT	ENDS
PUBLIC	??1?$_Vector_val@VioHashString@@V?$allocator@VioHashString@@@std@@@std@@QAE@XZ ; std::_Vector_val<ioHashString,std::allocator<ioHashString> >::~_Vector_val<ioHashString,std::allocator<ioHashString> >
; Function compile flags: /Ogsp
; File c:\program files (x86)\microsoft visual studio 10.0\vc\include\vector
;	COMDAT ??1?$_Vector_val@VioHashString@@V?$allocator@VioHashString@@@std@@@std@@QAE@XZ
_TEXT	SEGMENT
??1?$_Vector_val@VioHashString@@V?$allocator@VioHashString@@@std@@@std@@QAE@XZ PROC ; std::_Vector_val<ioHashString,std::allocator<ioHashString> >::~_Vector_val<ioHashString,std::allocator<ioHashString> >, COMDAT
; _this$ = ecx

; 434  : 		}

  00000	c3		 ret	 0
??1?$_Vector_val@VioHashString@@V?$allocator@VioHashString@@@std@@@std@@QAE@XZ ENDP ; std::_Vector_val<ioHashString,std::allocator<ioHashString> >::~_Vector_val<ioHashString,std::allocator<ioHashString> >
_TEXT	ENDS
PUBLIC	??0?$allocator@VioHashString@@@std@@QAE@XZ	; std::allocator<ioHashString>::allocator<ioHashString>
; Function compile flags: /Ogsp
; File c:\program files (x86)\microsoft visual studio 10.0\vc\include\xmemory
;	COMDAT ??0?$allocator@VioHashString@@@std@@QAE@XZ
_TEXT	SEGMENT
??0?$allocator@VioHashString@@@std@@QAE@XZ PROC		; std::allocator<ioHashString>::allocator<ioHashString>, COMDAT
; _this$ = ecx

; 161  : 	_ALLOCATOR() _THROW0()

  00000	8b c1		 mov	 eax, ecx

; 162  : 		{	// construct default allocator (do nothing)
; 163  : 		}

  00002	c3		 ret	 0
??0?$allocator@VioHashString@@@std@@QAE@XZ ENDP		; std::allocator<ioHashString>::allocator<ioHashString>
_TEXT	ENDS
PUBLIC	??0?$allocator@VioHashString@@@std@@QAE@ABV01@@Z ; std::allocator<ioHashString>::allocator<ioHashString>
; Function compile flags: /Ogsp
;	COMDAT ??0?$allocator@VioHashString@@@std@@QAE@ABV01@@Z
_TEXT	SEGMENT
___formal$ = 8						; size = 4
??0?$allocator@VioHashString@@@std@@QAE@ABV01@@Z PROC	; std::allocator<ioHashString>::allocator<ioHashString>, COMDAT
; _this$ = ecx

; 165  : 	_ALLOCATOR(const _ALLOCATOR<_Ty>&) _THROW0()

  00000	8b c1		 mov	 eax, ecx

; 166  : 		{	// construct by copying (do nothing)
; 167  : 		}

  00002	c2 04 00	 ret	 4
??0?$allocator@VioHashString@@@std@@QAE@ABV01@@Z ENDP	; std::allocator<ioHashString>::allocator<ioHashString>
_TEXT	ENDS
PUBLIC	??1?$_Vector_val@UWeaponInfo@@V?$allocator@UWeaponInfo@@@std@@@std@@QAE@XZ ; std::_Vector_val<WeaponInfo,std::allocator<WeaponInfo> >::~_Vector_val<WeaponInfo,std::allocator<WeaponInfo> >
; Function compile flags: /Ogsp
; File c:\program files (x86)\microsoft visual studio 10.0\vc\include\vector
;	COMDAT ??1?$_Vector_val@UWeaponInfo@@V?$allocator@UWeaponInfo@@@std@@@std@@QAE@XZ
_TEXT	SEGMENT
??1?$_Vector_val@UWeaponInfo@@V?$allocator@UWeaponInfo@@@std@@@std@@QAE@XZ PROC ; std::_Vector_val<WeaponInfo,std::allocator<WeaponInfo> >::~_Vector_val<WeaponInfo,std::allocator<WeaponInfo> >, COMDAT
; _this$ = ecx

; 434  : 		}

  00000	c3		 ret	 0
??1?$_Vector_val@UWeaponInfo@@V?$allocator@UWeaponInfo@@@std@@@std@@QAE@XZ ENDP ; std::_Vector_val<WeaponInfo,std::allocator<WeaponInfo> >::~_Vector_val<WeaponInfo,std::allocator<WeaponInfo> >
_TEXT	ENDS
PUBLIC	??0?$allocator@UWeaponInfo@@@std@@QAE@XZ	; std::allocator<WeaponInfo>::allocator<WeaponInfo>
; Function compile flags: /Ogsp
; File c:\program files (x86)\microsoft visual studio 10.0\vc\include\xmemory
;	COMDAT ??0?$allocator@UWeaponInfo@@@std@@QAE@XZ
_TEXT	SEGMENT
??0?$allocator@UWeaponInfo@@@std@@QAE@XZ PROC		; std::allocator<WeaponInfo>::allocator<WeaponInfo>, COMDAT
; _this$ = ecx

; 161  : 	_ALLOCATOR() _THROW0()

  00000	8b c1		 mov	 eax, ecx

; 162  : 		{	// construct default allocator (do nothing)
; 163  : 		}

  00002	c3		 ret	 0
??0?$allocator@UWeaponInfo@@@std@@QAE@XZ ENDP		; std::allocator<WeaponInfo>::allocator<WeaponInfo>
_TEXT	ENDS
PUBLIC	??1?$_Vector_val@UForceInfo@@V?$allocator@UForceInfo@@@std@@@std@@QAE@XZ ; std::_Vector_val<ForceInfo,std::allocator<ForceInfo> >::~_Vector_val<ForceInfo,std::allocator<ForceInfo> >
; Function compile flags: /Ogsp
; File c:\program files (x86)\microsoft visual studio 10.0\vc\include\vector
;	COMDAT ??1?$_Vector_val@UForceInfo@@V?$allocator@UForceInfo@@@std@@@std@@QAE@XZ
_TEXT	SEGMENT
??1?$_Vector_val@UForceInfo@@V?$allocator@UForceInfo@@@std@@@std@@QAE@XZ PROC ; std::_Vector_val<ForceInfo,std::allocator<ForceInfo> >::~_Vector_val<ForceInfo,std::allocator<ForceInfo> >, COMDAT
; _this$ = ecx

; 434  : 		}

  00000	c3		 ret	 0
??1?$_Vector_val@UForceInfo@@V?$allocator@UForceInfo@@@std@@@std@@QAE@XZ ENDP ; std::_Vector_val<ForceInfo,std::allocator<ForceInfo> >::~_Vector_val<ForceInfo,std::allocator<ForceInfo> >
_TEXT	ENDS
PUBLIC	??0?$allocator@UForceInfo@@@std@@QAE@XZ		; std::allocator<ForceInfo>::allocator<ForceInfo>
; Function compile flags: /Ogsp
; File c:\program files (x86)\microsoft visual studio 10.0\vc\include\xmemory
;	COMDAT ??0?$allocator@UForceInfo@@@std@@QAE@XZ
_TEXT	SEGMENT
??0?$allocator@UForceInfo@@@std@@QAE@XZ PROC		; std::allocator<ForceInfo>::allocator<ForceInfo>, COMDAT
; _this$ = ecx

; 161  : 	_ALLOCATOR() _THROW0()

  00000	8b c1		 mov	 eax, ecx

; 162  : 		{	// construct default allocator (do nothing)
; 163  : 		}

  00002	c3		 ret	 0
??0?$allocator@UForceInfo@@@std@@QAE@XZ ENDP		; std::allocator<ForceInfo>::allocator<ForceInfo>
_TEXT	ENDS
PUBLIC	?EncryptValueToPool@?$CEncrypt@M@@AAEXPBD@Z	; CEncrypt<float>::EncryptValueToPool
EXTRN	?EncryptByte@ccddaabb@@QAEXPBDPADH@Z:PROC	; ccddaabb::EncryptByte
; Function compile flags: /Ogsp
; File d:\lost saga for developer\youtube\tutorial\source\src\lsclient\encryptvalue.h
;	COMDAT ?EncryptValueToPool@?$CEncrypt@M@@AAEXPBD@Z
_TEXT	SEGMENT
_value$ = 8						; size = 4
?EncryptValueToPool@?$CEncrypt@M@@AAEXPBD@Z PROC	; CEncrypt<float>::EncryptValueToPool, COMDAT
; _this$ = ecx

; 67   : 	{

  00000	55		 push	 ebp
  00001	8b ec		 mov	 ebp, esp

; 68   : 		m_RC5.EncryptByte( value, m_MemPool, max(m_ValueSize, DEFAULT_ENCRYPT) );

  00003	0f b7 41 06	 movzx	 eax, WORD PTR [ecx+6]
  00007	83 f8 04	 cmp	 eax, 4
  0000a	77 03		 ja	 SHORT $LN4@EncryptVal
  0000c	6a 04		 push	 4
  0000e	58		 pop	 eax
$LN4@EncryptVal:
  0000f	50		 push	 eax
  00010	8d 41 1c	 lea	 eax, DWORD PTR [ecx+28]
  00013	50		 push	 eax
  00014	ff 75 08	 push	 DWORD PTR _value$[ebp]
  00017	83 c1 0c	 add	 ecx, 12			; 0000000cH
  0001a	e8 00 00 00 00	 call	 ?EncryptByte@ccddaabb@@QAEXPBDPADH@Z ; ccddaabb::EncryptByte

; 69   : 		
; 70   : 	}

  0001f	5d		 pop	 ebp
  00020	c2 04 00	 ret	 4
?EncryptValueToPool@?$CEncrypt@M@@AAEXPBD@Z ENDP	; CEncrypt<float>::EncryptValueToPool
_TEXT	ENDS
PUBLIC	?Init@?$CEncrypt@M@@AAEXXZ			; CEncrypt<float>::Init
EXTRN	?Setup@ccddaabb@@QAEXPBDHH@Z:PROC		; ccddaabb::Setup
EXTRN	__imp__rand:PROC
EXTRN	__imp__timeGetTime@0:PROC
EXTRN	__imp__GetCurrentProcessId@0:PROC
; Function compile flags: /Ogsp
;	COMDAT ?Init@?$CEncrypt@M@@AAEXXZ
_TEXT	SEGMENT
_pid$ = -8						; size = 4
_tick$ = -4						; size = 4
?Init@?$CEncrypt@M@@AAEXXZ PROC				; CEncrypt<float>::Init, COMDAT
; _this$ = ecx

; 73   : 	{

  00000	55		 push	 ebp
  00001	8b ec		 mov	 ebp, esp
  00003	51		 push	 ecx
  00004	51		 push	 ecx
  00005	53		 push	 ebx
  00006	56		 push	 esi
  00007	57		 push	 edi
  00008	8b f1		 mov	 esi, ecx

; 74   : 		DWORD pid = GetCurrentProcessId();

  0000a	ff 15 00 00 00
	00		 call	 DWORD PTR __imp__GetCurrentProcessId@0
  00010	89 45 f8	 mov	 DWORD PTR _pid$[ebp], eax

; 75   : 		DWORD tick = timeGetTime();

  00013	ff 15 00 00 00
	00		 call	 DWORD PTR __imp__timeGetTime@0

; 76   : 		m_ValueSize    = sizeof(type);
; 77   : 		m_MemPoolPos   = (unsigned short)( rand()+pid+tick )%(MAX_MEM_POOL-m_ValueSize);

  00019	8b 3d 00 00 00
	00		 mov	 edi, DWORD PTR __imp__rand
  0001f	89 45 fc	 mov	 DWORD PTR _tick$[ebp], eax
  00022	6a 04		 push	 4
  00024	58		 pop	 eax
  00025	66 89 46 06	 mov	 WORD PTR [esi+6], ax
  00029	ff d7		 call	 edi
  0002b	03 45 f8	 add	 eax, DWORD PTR _pid$[ebp]
  0002e	0f b7 4e 06	 movzx	 ecx, WORD PTR [esi+6]
  00032	03 45 fc	 add	 eax, DWORD PTR _tick$[ebp]
  00035	6a 0c		 push	 12			; 0000000cH
  00037	0f b7 c0	 movzx	 eax, ax
  0003a	5b		 pop	 ebx
  0003b	99		 cdq
  0003c	2b d9		 sub	 ebx, ecx
  0003e	f7 fb		 idiv	 ebx
  00040	66 89 56 04	 mov	 WORD PTR [esi+4], dx

; 78   : 		m_EncryptSeed  = (char)( rand()+pid+tick )%256;

  00044	ff d7		 call	 edi
  00046	02 45 f8	 add	 al, BYTE PTR _pid$[ebp]
  00049	02 45 fc	 add	 al, BYTE PTR _tick$[ebp]
  0004c	0f be c0	 movsx	 eax, al
  0004f	25 ff 00 00 80	 and	 eax, -2147483393	; 800000ffH
  00054	79 07		 jns	 SHORT $LN8@Init@2
  00056	48		 dec	 eax
  00057	0d 00 ff ff ff	 or	 eax, -256		; ffffff00H
  0005c	40		 inc	 eax
$LN8@Init@2:
  0005d	88 46 08	 mov	 BYTE PTR [esi+8], al

; 79   : 
; 80   : 		for (int i = 0; i < MAX_MEM_POOL ; i++)

  00060	33 db		 xor	 ebx, ebx
$LL3@Init@2:

; 81   : 			m_MemPool[i] = (char)( rand()+pid+tick )%256; // 

  00062	ff d7		 call	 edi
  00064	02 45 f8	 add	 al, BYTE PTR _pid$[ebp]
  00067	02 45 fc	 add	 al, BYTE PTR _tick$[ebp]
  0006a	0f be c0	 movsx	 eax, al
  0006d	25 ff 00 00 80	 and	 eax, -2147483393	; 800000ffH
  00072	79 07		 jns	 SHORT $LN9@Init@2
  00074	48		 dec	 eax
  00075	0d 00 ff ff ff	 or	 eax, -256		; ffffff00H
  0007a	40		 inc	 eax
$LN9@Init@2:
  0007b	88 44 1e 1c	 mov	 BYTE PTR [esi+ebx+28], al
  0007f	43		 inc	 ebx
  00080	83 fb 0c	 cmp	 ebx, 12			; 0000000cH
  00083	7c dd		 jl	 SHORT $LL3@Init@2

; 82   : 
; 83   : 		//UJ 130913, : szKey  
; 84   : 		//char szKey[ccddaabb::KEY_SIZE];//="";
; 85   : 		//for (int i = 0; i < ccddaabb::KEY_SIZE  ; i++)
; 86   : 		//	szKey[i] = (char)( rand()+pid+tick )%256; // 
; 87   : 		m_RC5.Setup( NULL, pid, tick );

  00085	ff 75 fc	 push	 DWORD PTR _tick$[ebp]
  00088	8d 4e 0c	 lea	 ecx, DWORD PTR [esi+12]
  0008b	ff 75 f8	 push	 DWORD PTR _pid$[ebp]
  0008e	6a 00		 push	 0
  00090	e8 00 00 00 00	 call	 ?Setup@ccddaabb@@QAEXPBDHH@Z ; ccddaabb::Setup
  00095	5f		 pop	 edi
  00096	5e		 pop	 esi
  00097	5b		 pop	 ebx

; 88   : 
; 89   : #ifdef _NOTUSE
; 90   : 		m_value        = 0;
; 91   : 		EncryptValueToPool((char*)&m_value);
; 92   : 		Debug();
; 93   : #endif
; 94   : 	}

  00098	c9		 leave
  00099	c3		 ret	 0
?Init@?$CEncrypt@M@@AAEXXZ ENDP				; CEncrypt<float>::Init
_TEXT	ENDS
PUBLIC	?DecryptValueToPool@?$CEncrypt@M@@QAEXPAM@Z	; CEncrypt<float>::DecryptValueToPool
EXTRN	?DecryptByte@ccddaabb@@QBEXPBDPADH@Z:PROC	; ccddaabb::DecryptByte
; Function compile flags: /Ogsp
;	COMDAT ?DecryptValueToPool@?$CEncrypt@M@@QAEXPAM@Z
_TEXT	SEGMENT
_value$ = 8						; size = 4
?DecryptValueToPool@?$CEncrypt@M@@QAEXPAM@Z PROC	; CEncrypt<float>::DecryptValueToPool, COMDAT
; _this$ = ecx

; 1648 : 	{

  00000	55		 push	 ebp
  00001	8b ec		 mov	 ebp, esp
  00003	56		 push	 esi

; 1649 : 		m_RC5.DecryptByte( m_MemPool, m_TempMem, 4 );

  00004	8d 71 28	 lea	 esi, DWORD PTR [ecx+40]
  00007	6a 04		 push	 4
  00009	8d 41 1c	 lea	 eax, DWORD PTR [ecx+28]
  0000c	56		 push	 esi
  0000d	50		 push	 eax
  0000e	83 c1 0c	 add	 ecx, 12			; 0000000cH
  00011	e8 00 00 00 00	 call	 ?DecryptByte@ccddaabb@@QBEXPBDPADH@Z ; ccddaabb::DecryptByte

; 1650 : 		*value = *((float*)m_TempMem);

  00016	d9 06		 fld	 DWORD PTR [esi]
  00018	8b 45 08	 mov	 eax, DWORD PTR _value$[ebp]
  0001b	d9 18		 fstp	 DWORD PTR [eax]
  0001d	5e		 pop	 esi

; 1651 : 	}

  0001e	5d		 pop	 ebp
  0001f	c2 04 00	 ret	 4
?DecryptValueToPool@?$CEncrypt@M@@QAEXPAM@Z ENDP	; CEncrypt<float>::DecryptValueToPool
_TEXT	ENDS
PUBLIC	?DecryptValueToPool@?$CEncrypt@K@@QAEXPAK@Z	; CEncrypt<unsigned long>::DecryptValueToPool
; Function compile flags: /Ogsp
;	COMDAT ?DecryptValueToPool@?$CEncrypt@K@@QAEXPAK@Z
_TEXT	SEGMENT
_value$ = 8						; size = 4
?DecryptValueToPool@?$CEncrypt@K@@QAEXPAK@Z PROC	; CEncrypt<unsigned long>::DecryptValueToPool, COMDAT
; _this$ = ecx

; 1256 : 	{

  00000	55		 push	 ebp
  00001	8b ec		 mov	 ebp, esp
  00003	56		 push	 esi

; 1257 : 		m_RC5.DecryptByte( m_MemPool, m_TempMem, 4 );

  00004	8d 71 28	 lea	 esi, DWORD PTR [ecx+40]
  00007	6a 04		 push	 4
  00009	8d 41 1c	 lea	 eax, DWORD PTR [ecx+28]
  0000c	56		 push	 esi
  0000d	50		 push	 eax
  0000e	83 c1 0c	 add	 ecx, 12			; 0000000cH
  00011	e8 00 00 00 00	 call	 ?DecryptByte@ccddaabb@@QBEXPBDPADH@Z ; ccddaabb::DecryptByte

; 1258 : 		*value = *((DWORD*)m_TempMem);

  00016	8b 06		 mov	 eax, DWORD PTR [esi]
  00018	8b 4d 08	 mov	 ecx, DWORD PTR _value$[ebp]
  0001b	89 01		 mov	 DWORD PTR [ecx], eax
  0001d	5e		 pop	 esi

; 1259 : 	}

  0001e	5d		 pop	 ebp
  0001f	c2 04 00	 ret	 4
?DecryptValueToPool@?$CEncrypt@K@@QAEXPAK@Z ENDP	; CEncrypt<unsigned long>::DecryptValueToPool
_TEXT	ENDS
PUBLIC	?DecryptValueToPool@?$CEncrypt@_N@@QAEXPA_N@Z	; CEncrypt<bool>::DecryptValueToPool
; Function compile flags: /Ogsp
;	COMDAT ?DecryptValueToPool@?$CEncrypt@_N@@QAEXPA_N@Z
_TEXT	SEGMENT
_value$ = 8						; size = 4
?DecryptValueToPool@?$CEncrypt@_N@@QAEXPA_N@Z PROC	; CEncrypt<bool>::DecryptValueToPool, COMDAT
; _this$ = ecx

; 219  : 	{

  00000	55		 push	 ebp
  00001	8b ec		 mov	 ebp, esp
  00003	56		 push	 esi

; 220  : 		m_RC5.DecryptByte( m_MemPool, m_TempMem, 4 );

  00004	8d 71 28	 lea	 esi, DWORD PTR [ecx+40]
  00007	6a 04		 push	 4
  00009	8d 41 1c	 lea	 eax, DWORD PTR [ecx+28]
  0000c	56		 push	 esi
  0000d	50		 push	 eax
  0000e	83 c1 0c	 add	 ecx, 12			; 0000000cH
  00011	e8 00 00 00 00	 call	 ?DecryptByte@ccddaabb@@QBEXPBDPADH@Z ; ccddaabb::DecryptByte

; 221  : 		*value = *((bool*)m_TempMem);

  00016	8a 06		 mov	 al, BYTE PTR [esi]
  00018	8b 4d 08	 mov	 ecx, DWORD PTR _value$[ebp]
  0001b	88 01		 mov	 BYTE PTR [ecx], al
  0001d	5e		 pop	 esi

; 222  : 	}

  0001e	5d		 pop	 ebp
  0001f	c2 04 00	 ret	 4
?DecryptValueToPool@?$CEncrypt@_N@@QAEXPA_N@Z ENDP	; CEncrypt<bool>::DecryptValueToPool
_TEXT	ENDS
PUBLIC	??_C@_0BD@OLBABOEK@vector?$DMT?$DO?5too?5long?$AA@ ; `string'
PUBLIC	?_Xlen@?$vector@VioHashString@@V?$allocator@VioHashString@@@std@@@std@@IBEXXZ ; std::vector<ioHashString,std::allocator<ioHashString> >::_Xlen
EXTRN	__imp_?_Xlength_error@std@@YAXPBD@Z:PROC
;	COMDAT ??_C@_0BD@OLBABOEK@vector?$DMT?$DO?5too?5long?$AA@
; File c:\program files (x86)\microsoft visual studio 10.0\vc\include\vector
CONST	SEGMENT
??_C@_0BD@OLBABOEK@vector?$DMT?$DO?5too?5long?$AA@ DB 'vector<T> too long'
	DB	00H						; `string'
; Function compile flags: /Ogsp
CONST	ENDS
;	COMDAT ?_Xlen@?$vector@VioHashString@@V?$allocator@VioHashString@@@std@@@std@@IBEXXZ
_TEXT	SEGMENT
?_Xlen@?$vector@VioHashString@@V?$allocator@VioHashString@@@std@@@std@@IBEXXZ PROC ; std::vector<ioHashString,std::allocator<ioHashString> >::_Xlen, COMDAT
; _this$ = ecx

; 1427 : 		_Xlength_error("vector<T> too long");

  00000	68 00 00 00 00	 push	 OFFSET ??_C@_0BD@OLBABOEK@vector?$DMT?$DO?5too?5long?$AA@
  00005	ff 15 00 00 00
	00		 call	 DWORD PTR __imp_?_Xlength_error@std@@YAXPBD@Z
$LN4@Xlen:
$LN3@Xlen:
  0000b	cc		 int	 3
?_Xlen@?$vector@VioHashString@@V?$allocator@VioHashString@@@std@@@std@@IBEXXZ ENDP ; std::vector<ioHashString,std::allocator<ioHashString> >::_Xlen
_TEXT	ENDS
PUBLIC	?deallocate@?$allocator@VioHashString@@@std@@QAEXPAVioHashString@@I@Z ; std::allocator<ioHashString>::deallocate
; Function compile flags: /Ogsp
; File c:\program files (x86)\microsoft visual studio 10.0\vc\include\xmemory
;	COMDAT ?deallocate@?$allocator@VioHashString@@@std@@QAEXPAVioHashString@@I@Z
_TEXT	SEGMENT
__Ptr$ = 8						; size = 4
___formal$ = 12						; size = 4
?deallocate@?$allocator@VioHashString@@@std@@QAEXPAVioHashString@@I@Z PROC ; std::allocator<ioHashString>::deallocate, COMDAT
; _this$ = ecx

; 181  : 		{	// deallocate object at _Ptr, ignore size

  00000	55		 push	 ebp
  00001	8b ec		 mov	 ebp, esp

; 182  : 		::operator delete(_Ptr);

  00003	ff 75 08	 push	 DWORD PTR __Ptr$[ebp]
  00006	e8 00 00 00 00	 call	 ??3@YAXPAX@Z		; operator delete
  0000b	59		 pop	 ecx

; 183  : 		}

  0000c	5d		 pop	 ebp
  0000d	c2 08 00	 ret	 8
?deallocate@?$allocator@VioHashString@@@std@@QAEXPAVioHashString@@I@Z ENDP ; std::allocator<ioHashString>::deallocate
_TEXT	ENDS
PUBLIC	??0?$allocator@UWeaponInfo@@@std@@QAE@ABV01@@Z	; std::allocator<WeaponInfo>::allocator<WeaponInfo>
; Function compile flags: /Ogsp
;	COMDAT ??0?$allocator@UWeaponInfo@@@std@@QAE@ABV01@@Z
_TEXT	SEGMENT
___formal$ = 8						; size = 4
??0?$allocator@UWeaponInfo@@@std@@QAE@ABV01@@Z PROC	; std::allocator<WeaponInfo>::allocator<WeaponInfo>, COMDAT
; _this$ = ecx

; 165  : 	_ALLOCATOR(const _ALLOCATOR<_Ty>&) _THROW0()

  00000	8b c1		 mov	 eax, ecx

; 166  : 		{	// construct by copying (do nothing)
; 167  : 		}

  00002	c2 04 00	 ret	 4
??0?$allocator@UWeaponInfo@@@std@@QAE@ABV01@@Z ENDP	; std::allocator<WeaponInfo>::allocator<WeaponInfo>
_TEXT	ENDS
PUBLIC	?deallocate@?$allocator@UWeaponInfo@@@std@@QAEXPAUWeaponInfo@@I@Z ; std::allocator<WeaponInfo>::deallocate
; Function compile flags: /Ogsp
;	COMDAT ?deallocate@?$allocator@UWeaponInfo@@@std@@QAEXPAUWeaponInfo@@I@Z
_TEXT	SEGMENT
__Ptr$ = 8						; size = 4
___formal$ = 12						; size = 4
?deallocate@?$allocator@UWeaponInfo@@@std@@QAEXPAUWeaponInfo@@I@Z PROC ; std::allocator<WeaponInfo>::deallocate, COMDAT
; _this$ = ecx

; 181  : 		{	// deallocate object at _Ptr, ignore size

  00000	55		 push	 ebp
  00001	8b ec		 mov	 ebp, esp

; 182  : 		::operator delete(_Ptr);

  00003	ff 75 08	 push	 DWORD PTR __Ptr$[ebp]
  00006	e8 00 00 00 00	 call	 ??3@YAXPAX@Z		; operator delete
  0000b	59		 pop	 ecx

; 183  : 		}

  0000c	5d		 pop	 ebp
  0000d	c2 08 00	 ret	 8
?deallocate@?$allocator@UWeaponInfo@@@std@@QAEXPAUWeaponInfo@@I@Z ENDP ; std::allocator<WeaponInfo>::deallocate
_TEXT	ENDS
PUBLIC	??0?$allocator@UForceInfo@@@std@@QAE@ABV01@@Z	; std::allocator<ForceInfo>::allocator<ForceInfo>
; Function compile flags: /Ogsp
;	COMDAT ??0?$allocator@UForceInfo@@@std@@QAE@ABV01@@Z
_TEXT	SEGMENT
___formal$ = 8						; size = 4
??0?$allocator@UForceInfo@@@std@@QAE@ABV01@@Z PROC	; std::allocator<ForceInfo>::allocator<ForceInfo>, COMDAT
; _this$ = ecx

; 165  : 	_ALLOCATOR(const _ALLOCATOR<_Ty>&) _THROW0()

  00000	8b c1		 mov	 eax, ecx

; 166  : 		{	// construct by copying (do nothing)
; 167  : 		}

  00002	c2 04 00	 ret	 4
??0?$allocator@UForceInfo@@@std@@QAE@ABV01@@Z ENDP	; std::allocator<ForceInfo>::allocator<ForceInfo>
_TEXT	ENDS
PUBLIC	?deallocate@?$allocator@UForceInfo@@@std@@QAEXPAUForceInfo@@I@Z ; std::allocator<ForceInfo>::deallocate
; Function compile flags: /Ogsp
;	COMDAT ?deallocate@?$allocator@UForceInfo@@@std@@QAEXPAUForceInfo@@I@Z
_TEXT	SEGMENT
__Ptr$ = 8						; size = 4
___formal$ = 12						; size = 4
?deallocate@?$allocator@UForceInfo@@@std@@QAEXPAUForceInfo@@I@Z PROC ; std::allocator<ForceInfo>::deallocate, COMDAT
; _this$ = ecx

; 181  : 		{	// deallocate object at _Ptr, ignore size

  00000	55		 push	 ebp
  00001	8b ec		 mov	 ebp, esp

; 182  : 		::operator delete(_Ptr);

  00003	ff 75 08	 push	 DWORD PTR __Ptr$[ebp]
  00006	e8 00 00 00 00	 call	 ??3@YAXPAX@Z		; operator delete
  0000b	59		 pop	 ecx

; 183  : 		}

  0000c	5d		 pop	 ebp
  0000d	c2 08 00	 ret	 8
?deallocate@?$allocator@UForceInfo@@@std@@QAEXPAUForceInfo@@I@Z ENDP ; std::allocator<ForceInfo>::deallocate
_TEXT	ENDS
PUBLIC	??0?$_Vector_const_iterator@V?$_Vector_val@VioHashString@@V?$allocator@VioHashString@@@std@@@std@@@std@@QAE@PAVioHashString@@PBU_Container_base0@1@@Z ; std::_Vector_const_iterator<std::_Vector_val<ioHashString,std::allocator<ioHashString> > >::_Vector_const_iterator<std::_Vector_val<ioHashString,std::allocator<ioHashString> > >
; Function compile flags: /Ogsp
; File c:\program files (x86)\microsoft visual studio 10.0\vc\include\vector
;	COMDAT ??0?$_Vector_const_iterator@V?$_Vector_val@VioHashString@@V?$allocator@VioHashString@@@std@@@std@@@std@@QAE@PAVioHashString@@PBU_Container_base0@1@@Z
_TEXT	SEGMENT
__Parg$ = 8						; size = 4
__Pvector$ = 12						; size = 4
??0?$_Vector_const_iterator@V?$_Vector_val@VioHashString@@V?$allocator@VioHashString@@@std@@@std@@@std@@QAE@PAVioHashString@@PBU_Container_base0@1@@Z PROC ; std::_Vector_const_iterator<std::_Vector_val<ioHashString,std::allocator<ioHashString> > >::_Vector_const_iterator<std::_Vector_val<ioHashString,std::allocator<ioHashString> > >, COMDAT
; _this$ = ecx

; 45   : 		{	// construct with pointer _Parg

  00000	55		 push	 ebp
  00001	8b ec		 mov	 ebp, esp
  00003	8b c1		 mov	 eax, ecx
  00005	8b 4d 08	 mov	 ecx, DWORD PTR __Parg$[ebp]
  00008	89 08		 mov	 DWORD PTR [eax], ecx

; 46   : 		this->_Adopt(_Pvector);
; 47   : 		}

  0000a	5d		 pop	 ebp
  0000b	c2 08 00	 ret	 8
??0?$_Vector_const_iterator@V?$_Vector_val@VioHashString@@V?$allocator@VioHashString@@@std@@@std@@@std@@QAE@PAVioHashString@@PBU_Container_base0@1@@Z ENDP ; std::_Vector_const_iterator<std::_Vector_val<ioHashString,std::allocator<ioHashString> > >::_Vector_const_iterator<std::_Vector_val<ioHashString,std::allocator<ioHashString> > >
_TEXT	ENDS
PUBLIC	??0?$_Vector_iterator@V?$_Vector_val@VioHashString@@V?$allocator@VioHashString@@@std@@@std@@@std@@QAE@PAVioHashString@@PBU_Container_base0@1@@Z ; std::_Vector_iterator<std::_Vector_val<ioHashString,std::allocator<ioHashString> > >::_Vector_iterator<std::_Vector_val<ioHashString,std::allocator<ioHashString> > >
; Function compile flags: /Ogsp
;	COMDAT ??0?$_Vector_iterator@V?$_Vector_val@VioHashString@@V?$allocator@VioHashString@@@std@@@std@@@std@@QAE@PAVioHashString@@PBU_Container_base0@1@@Z
_TEXT	SEGMENT
__Parg$ = 8						; size = 4
__Pvector$ = 12						; size = 4
??0?$_Vector_iterator@V?$_Vector_val@VioHashString@@V?$allocator@VioHashString@@@std@@@std@@@std@@QAE@PAVioHashString@@PBU_Container_base0@1@@Z PROC ; std::_Vector_iterator<std::_Vector_val<ioHashString,std::allocator<ioHashString> > >::_Vector_iterator<std::_Vector_val<ioHashString,std::allocator<ioHashString> > >, COMDAT
; _this$ = ecx

; 304  : 		{	// construct with pointer _Parg

  00000	55		 push	 ebp
  00001	8b ec		 mov	 ebp, esp
  00003	8b c1		 mov	 eax, ecx
  00005	8b 4d 08	 mov	 ecx, DWORD PTR __Parg$[ebp]
  00008	89 08		 mov	 DWORD PTR [eax], ecx

; 305  : 		}

  0000a	5d		 pop	 ebp
  0000b	c2 08 00	 ret	 8
??0?$_Vector_iterator@V?$_Vector_val@VioHashString@@V?$allocator@VioHashString@@@std@@@std@@@std@@QAE@PAVioHashString@@PBU_Container_base0@1@@Z ENDP ; std::_Vector_iterator<std::_Vector_val<ioHashString,std::allocator<ioHashString> > >::_Vector_iterator<std::_Vector_val<ioHashString,std::allocator<ioHashString> > >
_TEXT	ENDS
PUBLIC	?max_size@?$allocator@VioHashString@@@std@@QBEIXZ ; std::allocator<ioHashString>::max_size
; Function compile flags: /Ogsp
; File c:\program files (x86)\microsoft visual studio 10.0\vc\include\xmemory
;	COMDAT ?max_size@?$allocator@VioHashString@@@std@@QBEIXZ
_TEXT	SEGMENT
?max_size@?$allocator@VioHashString@@@std@@QBEIXZ PROC	; std::allocator<ioHashString>::max_size, COMDAT
; _this$ = ecx

; 218  : 		_SIZT _Count = (_SIZT)(-1) / sizeof (_Ty);
; 219  : 		return (0 < _Count ? _Count : 1);

  00000	b8 ff ff ff 0f	 mov	 eax, 268435455		; 0fffffffH

; 220  : 		}

  00005	c3		 ret	 0
?max_size@?$allocator@VioHashString@@@std@@QBEIXZ ENDP	; std::allocator<ioHashString>::max_size
_TEXT	ENDS
PUBLIC	?_Compat@?$_Vector_const_iterator@V?$_Vector_val@VioHashString@@V?$allocator@VioHashString@@@std@@@std@@@std@@QBEXABV12@@Z ; std::_Vector_const_iterator<std::_Vector_val<ioHashString,std::allocator<ioHashString> > >::_Compat
; Function compile flags: /Ogsp
; File c:\program files (x86)\microsoft visual studio 10.0\vc\include\vector
;	COMDAT ?_Compat@?$_Vector_const_iterator@V?$_Vector_val@VioHashString@@V?$allocator@VioHashString@@@std@@@std@@@std@@QBEXABV12@@Z
_TEXT	SEGMENT
___formal$ = 8						; size = 4
?_Compat@?$_Vector_const_iterator@V?$_Vector_val@VioHashString@@V?$allocator@VioHashString@@@std@@@std@@@std@@QBEXABV12@@Z PROC ; std::_Vector_const_iterator<std::_Vector_val<ioHashString,std::allocator<ioHashString> > >::_Compat, COMDAT
; _this$ = ecx

; 253  : 		}

  00000	c2 04 00	 ret	 4
?_Compat@?$_Vector_const_iterator@V?$_Vector_val@VioHashString@@V?$allocator@VioHashString@@@std@@@std@@@std@@QBEXABV12@@Z ENDP ; std::_Vector_const_iterator<std::_Vector_val<ioHashString,std::allocator<ioHashString> > >::_Compat
_TEXT	ENDS
PUBLIC	__TI2?AVbad_alloc@std@@
PUBLIC	??$_Allocate@VioHashString@@@std@@YAPAVioHashString@@IPAV1@@Z ; std::_Allocate<ioHashString>
PUBLIC	__CTA2?AVbad_alloc@std@@
PUBLIC	__CT??_R0?AVbad_alloc@std@@@8??0bad_alloc@std@@QAE@ABV01@@Z12
PUBLIC	??0bad_alloc@std@@QAE@ABV01@@Z			; std::bad_alloc::bad_alloc
PUBLIC	__CT??_R0?AVexception@std@@@8??0exception@std@@QAE@ABV01@@Z12
EXTRN	??2@YAPAXI@Z:PROC				; operator new
EXTRN	__CxxThrowException@8:PROC
EXTRN	??0exception@std@@QAE@ABV01@@Z:PROC		; std::exception::exception
;	COMDAT __CT??_R0?AVexception@std@@@8??0exception@std@@QAE@ABV01@@Z12
; File c:\program files (x86)\microsoft visual studio 10.0\vc\include\exception
xdata$x	SEGMENT
__CT??_R0?AVexception@std@@@8??0exception@std@@QAE@ABV01@@Z12 DD 00H
	DD	FLAT:??_R0?AVexception@std@@@8
	DD	00H
	DD	0ffffffffH
	ORG $+4
	DD	0cH
	DD	FLAT:??0exception@std@@QAE@ABV01@@Z
xdata$x	ENDS
;	COMDAT __CT??_R0?AVbad_alloc@std@@@8??0bad_alloc@std@@QAE@ABV01@@Z12
xdata$x	SEGMENT
__CT??_R0?AVbad_alloc@std@@@8??0bad_alloc@std@@QAE@ABV01@@Z12 DD 00H
	DD	FLAT:??_R0?AVbad_alloc@std@@@8
	DD	00H
	DD	0ffffffffH
	ORG $+4
	DD	0cH
	DD	FLAT:??0bad_alloc@std@@QAE@ABV01@@Z
xdata$x	ENDS
;	COMDAT __CTA2?AVbad_alloc@std@@
xdata$x	SEGMENT
__CTA2?AVbad_alloc@std@@ DD 02H
	DD	FLAT:__CT??_R0?AVbad_alloc@std@@@8??0bad_alloc@std@@QAE@ABV01@@Z12
	DD	FLAT:__CT??_R0?AVexception@std@@@8??0exception@std@@QAE@ABV01@@Z12
xdata$x	ENDS
;	COMDAT __TI2?AVbad_alloc@std@@
xdata$x	SEGMENT
__TI2?AVbad_alloc@std@@ DD 00H
	DD	FLAT:??1bad_alloc@std@@UAE@XZ
	DD	00H
	DD	FLAT:__CTA2?AVbad_alloc@std@@
; Function compile flags: /Ogsp
; File c:\program files (x86)\microsoft visual studio 10.0\vc\include\xmemory
xdata$x	ENDS
;	COMDAT ??$_Allocate@VioHashString@@@std@@YAPAVioHashString@@IPAV1@@Z
_TEXT	SEGMENT
$T554596 = -12						; size = 12
$T554601 = 8						; size = 4
__Count$ = 8						; size = 4
___formal$ = 12						; size = 4
??$_Allocate@VioHashString@@@std@@YAPAVioHashString@@IPAV1@@Z PROC ; std::_Allocate<ioHashString>, COMDAT

; 30   : 	{	// allocate storage for _Count elements of type _Ty

  00000	55		 push	 ebp
  00001	8b ec		 mov	 ebp, esp

; 31   : 	void *_Ptr = 0;
; 32   : 
; 33   : 	if (_Count <= 0)

  00003	8b 4d 08	 mov	 ecx, DWORD PTR __Count$[ebp]
  00006	83 ec 0c	 sub	 esp, 12			; 0000000cH
  00009	33 c0		 xor	 eax, eax
  0000b	85 c9		 test	 ecx, ecx

; 34   : 		_Count = 0;
; 35   : 	else if (((_SIZT)(-1) / sizeof (_Ty) < _Count)

  0000d	74 3c		 je	 SHORT $LN5@Allocate

; 36   : 		|| (_Ptr = ::operator new(_Count * sizeof (_Ty))) == 0)

  0000f	81 f9 ff ff ff
	0f		 cmp	 ecx, 268435455		; 0fffffffH
  00015	77 0e		 ja	 SHORT $LN1@Allocate
  00017	c1 e1 04	 shl	 ecx, 4
  0001a	51		 push	 ecx
  0001b	e8 00 00 00 00	 call	 ??2@YAPAXI@Z		; operator new
  00020	59		 pop	 ecx
  00021	85 c0		 test	 eax, eax

; 38   : 
; 39   : 	return ((_Ty _FARQ *)_Ptr);

  00023	75 26		 jne	 SHORT $LN5@Allocate
$LN1@Allocate:

; 37   : 		_THROW_NCEE(bad_alloc, 0);

  00025	83 65 08 00	 and	 DWORD PTR $T554601[ebp], 0
  00029	8d 45 08	 lea	 eax, DWORD PTR $T554601[ebp]
  0002c	50		 push	 eax
  0002d	8d 4d f4	 lea	 ecx, DWORD PTR $T554596[ebp]
  00030	ff 15 00 00 00
	00		 call	 DWORD PTR __imp_??0exception@std@@QAE@ABQBD@Z
  00036	68 00 00 00 00	 push	 OFFSET __TI2?AVbad_alloc@std@@
  0003b	8d 45 f4	 lea	 eax, DWORD PTR $T554596[ebp]
  0003e	50		 push	 eax
  0003f	c7 45 f4 00 00
	00 00		 mov	 DWORD PTR $T554596[ebp], OFFSET ??_7bad_alloc@std@@6B@
  00046	e8 00 00 00 00	 call	 __CxxThrowException@8
$LN10@Allocate:
$LN5@Allocate:

; 40   : 	}

  0004b	c9		 leave
  0004c	c3		 ret	 0
$LN9@Allocate:
??$_Allocate@VioHashString@@@std@@YAPAVioHashString@@IPAV1@@Z ENDP ; std::_Allocate<ioHashString>
_TEXT	ENDS
EXTRN	__imp_??0exception@std@@QAE@ABV01@@Z:PROC
; Function compile flags: /Ogsp
;	COMDAT ??0bad_alloc@std@@QAE@ABV01@@Z
_TEXT	SEGMENT
___that$ = 8						; size = 4
??0bad_alloc@std@@QAE@ABV01@@Z PROC			; std::bad_alloc::bad_alloc, COMDAT
; _this$ = ecx
  00000	55		 push	 ebp
  00001	8b ec		 mov	 ebp, esp
  00003	56		 push	 esi
  00004	ff 75 08	 push	 DWORD PTR ___that$[ebp]
  00007	8b f1		 mov	 esi, ecx
  00009	ff 15 00 00 00
	00		 call	 DWORD PTR __imp_??0exception@std@@QAE@ABV01@@Z
  0000f	c7 06 00 00 00
	00		 mov	 DWORD PTR [esi], OFFSET ??_7bad_alloc@std@@6B@
  00015	8b c6		 mov	 eax, esi
  00017	5e		 pop	 esi
  00018	5d		 pop	 ebp
  00019	c2 04 00	 ret	 4
??0bad_alloc@std@@QAE@ABV01@@Z ENDP			; std::bad_alloc::bad_alloc
_TEXT	ENDS
PUBLIC	??$forward@ABVioHashString@@@std@@YAABVioHashString@@ABV1@@Z ; std::forward<ioHashString const &>
; Function compile flags: /Ogsp
; File c:\program files (x86)\microsoft visual studio 10.0\vc\include\utility
;	COMDAT ??$forward@ABVioHashString@@@std@@YAABVioHashString@@ABV1@@Z
_TEXT	SEGMENT
__Arg$ = 8						; size = 4
??$forward@ABVioHashString@@@std@@YAABVioHashString@@ABV1@@Z PROC ; std::forward<ioHashString const &>, COMDAT

; 78   : 	{	// forward _Arg, given explicitly specified type parameter

  00000	55		 push	 ebp
  00001	8b ec		 mov	 ebp, esp

; 79   : 	return ((_Ty&&)_Arg);

  00003	8b 45 08	 mov	 eax, DWORD PTR __Arg$[ebp]

; 80   : 	}

  00006	5d		 pop	 ebp
  00007	c3		 ret	 0
??$forward@ABVioHashString@@@std@@YAABVioHashString@@ABV1@@Z ENDP ; std::forward<ioHashString const &>
_TEXT	ENDS
PUBLIC	??$forward@AAVioHashString@@@std@@YAAAVioHashString@@AAV1@@Z ; std::forward<ioHashString &>
; Function compile flags: /Ogsp
;	COMDAT ??$forward@AAVioHashString@@@std@@YAAAVioHashString@@AAV1@@Z
_TEXT	SEGMENT
__Arg$ = 8						; size = 4
??$forward@AAVioHashString@@@std@@YAAAVioHashString@@AAV1@@Z PROC ; std::forward<ioHashString &>, COMDAT

; 78   : 	{	// forward _Arg, given explicitly specified type parameter

  00000	55		 push	 ebp
  00001	8b ec		 mov	 ebp, esp

; 79   : 	return ((_Ty&&)_Arg);

  00003	8b 45 08	 mov	 eax, DWORD PTR __Arg$[ebp]

; 80   : 	}

  00006	5d		 pop	 ebp
  00007	c3		 ret	 0
??$forward@AAVioHashString@@@std@@YAAAVioHashString@@AAV1@@Z ENDP ; std::forward<ioHashString &>
_TEXT	ENDS
PUBLIC	??$_Ptr_cat@VioHashString@@V1@@std@@YA?AU_Nonscalar_ptr_iterator_tag@0@PAVioHashString@@0@Z ; std::_Ptr_cat<ioHashString,ioHashString>
; Function compile flags: /Ogsp
; File c:\program files (x86)\microsoft visual studio 10.0\vc\include\xutility
;	COMDAT ??$_Ptr_cat@VioHashString@@V1@@std@@YA?AU_Nonscalar_ptr_iterator_tag@0@PAVioHashString@@0@Z
_TEXT	SEGMENT
__Cat$ = -1						; size = 1
___formal$ = 8						; size = 4
___formal$ = 12						; size = 4
??$_Ptr_cat@VioHashString@@V1@@std@@YA?AU_Nonscalar_ptr_iterator_tag@0@PAVioHashString@@0@Z PROC ; std::_Ptr_cat<ioHashString,ioHashString>, COMDAT

; 516  : 	{	// return pointer category from pointers

  00000	55		 push	 ebp
  00001	8b ec		 mov	 ebp, esp
  00003	51		 push	 ecx

; 517  : 	typename _Ptr_cat_helper<_Elem1, _Elem2>::_Type _Cat;
; 518  : 	return (_Cat);

  00004	8a 45 ff	 mov	 al, BYTE PTR __Cat$[ebp]

; 519  : 	}

  00007	c9		 leave
  00008	c3		 ret	 0
??$_Ptr_cat@VioHashString@@V1@@std@@YA?AU_Nonscalar_ptr_iterator_tag@0@PAVioHashString@@0@Z ENDP ; std::_Ptr_cat<ioHashString,ioHashString>
_TEXT	ENDS
PUBLIC	??$_Ptr_cat@UWeaponInfo@@U1@@std@@YA?AU_Nonscalar_ptr_iterator_tag@0@PAUWeaponInfo@@0@Z ; std::_Ptr_cat<WeaponInfo,WeaponInfo>
; Function compile flags: /Ogsp
;	COMDAT ??$_Ptr_cat@UWeaponInfo@@U1@@std@@YA?AU_Nonscalar_ptr_iterator_tag@0@PAUWeaponInfo@@0@Z
_TEXT	SEGMENT
__Cat$ = -1						; size = 1
___formal$ = 8						; size = 4
___formal$ = 12						; size = 4
??$_Ptr_cat@UWeaponInfo@@U1@@std@@YA?AU_Nonscalar_ptr_iterator_tag@0@PAUWeaponInfo@@0@Z PROC ; std::_Ptr_cat<WeaponInfo,WeaponInfo>, COMDAT

; 516  : 	{	// return pointer category from pointers

  00000	55		 push	 ebp
  00001	8b ec		 mov	 ebp, esp
  00003	51		 push	 ecx

; 517  : 	typename _Ptr_cat_helper<_Elem1, _Elem2>::_Type _Cat;
; 518  : 	return (_Cat);

  00004	8a 45 ff	 mov	 al, BYTE PTR __Cat$[ebp]

; 519  : 	}

  00007	c9		 leave
  00008	c3		 ret	 0
??$_Ptr_cat@UWeaponInfo@@U1@@std@@YA?AU_Nonscalar_ptr_iterator_tag@0@PAUWeaponInfo@@0@Z ENDP ; std::_Ptr_cat<WeaponInfo,WeaponInfo>
_TEXT	ENDS
PUBLIC	??$_Ptr_cat@UForceInfo@@U1@@std@@YA?AU_Nonscalar_ptr_iterator_tag@0@PAUForceInfo@@0@Z ; std::_Ptr_cat<ForceInfo,ForceInfo>
; Function compile flags: /Ogsp
;	COMDAT ??$_Ptr_cat@UForceInfo@@U1@@std@@YA?AU_Nonscalar_ptr_iterator_tag@0@PAUForceInfo@@0@Z
_TEXT	SEGMENT
__Cat$ = -1						; size = 1
___formal$ = 8						; size = 4
___formal$ = 12						; size = 4
??$_Ptr_cat@UForceInfo@@U1@@std@@YA?AU_Nonscalar_ptr_iterator_tag@0@PAUForceInfo@@0@Z PROC ; std::_Ptr_cat<ForceInfo,ForceInfo>, COMDAT

; 516  : 	{	// return pointer category from pointers

  00000	55		 push	 ebp
  00001	8b ec		 mov	 ebp, esp
  00003	51		 push	 ecx

; 517  : 	typename _Ptr_cat_helper<_Elem1, _Elem2>::_Type _Cat;
; 518  : 	return (_Cat);

  00004	8a 45 ff	 mov	 al, BYTE PTR __Cat$[ebp]

; 519  : 	}

  00007	c9		 leave
  00008	c3		 ret	 0
??$_Ptr_cat@UForceInfo@@U1@@std@@YA?AU_Nonscalar_ptr_iterator_tag@0@PAUForceInfo@@0@Z ENDP ; std::_Ptr_cat<ForceInfo,ForceInfo>
_TEXT	ENDS
PUBLIC	?size@?$vector@UWeaponInfo@@V?$allocator@UWeaponInfo@@@std@@@std@@QBEIXZ ; std::vector<WeaponInfo,std::allocator<WeaponInfo> >::size
; Function compile flags: /Ogsp
; File c:\program files (x86)\microsoft visual studio 10.0\vc\include\vector
;	COMDAT ?size@?$vector@UWeaponInfo@@V?$allocator@UWeaponInfo@@@std@@@std@@QBEIXZ
_TEXT	SEGMENT
?size@?$vector@UWeaponInfo@@V?$allocator@UWeaponInfo@@@std@@@std@@QBEIXZ PROC ; std::vector<WeaponInfo,std::allocator<WeaponInfo> >::size, COMDAT
; _this$ = ecx

; 879  : 		return (this->_Mylast - this->_Myfirst);

  00000	8b 41 04	 mov	 eax, DWORD PTR [ecx+4]
  00003	2b 01		 sub	 eax, DWORD PTR [ecx]
  00005	6a 28		 push	 40			; 00000028H
  00007	99		 cdq
  00008	59		 pop	 ecx
  00009	f7 f9		 idiv	 ecx

; 880  : 		}

  0000b	c3		 ret	 0
?size@?$vector@UWeaponInfo@@V?$allocator@UWeaponInfo@@@std@@@std@@QBEIXZ ENDP ; std::vector<WeaponInfo,std::allocator<WeaponInfo> >::size
_TEXT	ENDS
PUBLIC	?size@?$vector@UForceInfo@@V?$allocator@UForceInfo@@@std@@@std@@QBEIXZ ; std::vector<ForceInfo,std::allocator<ForceInfo> >::size
; Function compile flags: /Ogsp
;	COMDAT ?size@?$vector@UForceInfo@@V?$allocator@UForceInfo@@@std@@@std@@QBEIXZ
_TEXT	SEGMENT
?size@?$vector@UForceInfo@@V?$allocator@UForceInfo@@@std@@@std@@QBEIXZ PROC ; std::vector<ForceInfo,std::allocator<ForceInfo> >::size, COMDAT
; _this$ = ecx

; 879  : 		return (this->_Mylast - this->_Myfirst);

  00000	8b 41 04	 mov	 eax, DWORD PTR [ecx+4]
  00003	2b 01		 sub	 eax, DWORD PTR [ecx]
  00005	6a 0c		 push	 12			; 0000000cH
  00007	99		 cdq
  00008	59		 pop	 ecx
  00009	f7 f9		 idiv	 ecx

; 880  : 		}

  0000b	c3		 ret	 0
?size@?$vector@UForceInfo@@V?$allocator@UForceInfo@@@std@@@std@@QBEIXZ ENDP ; std::vector<ForceInfo,std::allocator<ForceInfo> >::size
_TEXT	ENDS
PUBLIC	?_Xlen@?$vector@UWeaponInfo@@V?$allocator@UWeaponInfo@@@std@@@std@@IBEXXZ ; std::vector<WeaponInfo,std::allocator<WeaponInfo> >::_Xlen
; Function compile flags: /Ogsp
;	COMDAT ?_Xlen@?$vector@UWeaponInfo@@V?$allocator@UWeaponInfo@@@std@@@std@@IBEXXZ
_TEXT	SEGMENT
?_Xlen@?$vector@UWeaponInfo@@V?$allocator@UWeaponInfo@@@std@@@std@@IBEXXZ PROC ; std::vector<WeaponInfo,std::allocator<WeaponInfo> >::_Xlen, COMDAT
; _this$ = ecx

; 1427 : 		_Xlength_error("vector<T> too long");

  00000	68 00 00 00 00	 push	 OFFSET ??_C@_0BD@OLBABOEK@vector?$DMT?$DO?5too?5long?$AA@
  00005	ff 15 00 00 00
	00		 call	 DWORD PTR __imp_?_Xlength_error@std@@YAXPBD@Z
$LN4@Xlen@2:
$LN3@Xlen@2:
  0000b	cc		 int	 3
?_Xlen@?$vector@UWeaponInfo@@V?$allocator@UWeaponInfo@@@std@@@std@@IBEXXZ ENDP ; std::vector<WeaponInfo,std::allocator<WeaponInfo> >::_Xlen
_TEXT	ENDS
PUBLIC	?_Xlen@?$vector@UForceInfo@@V?$allocator@UForceInfo@@@std@@@std@@IBEXXZ ; std::vector<ForceInfo,std::allocator<ForceInfo> >::_Xlen
; Function compile flags: /Ogsp
;	COMDAT ?_Xlen@?$vector@UForceInfo@@V?$allocator@UForceInfo@@@std@@@std@@IBEXXZ
_TEXT	SEGMENT
?_Xlen@?$vector@UForceInfo@@V?$allocator@UForceInfo@@@std@@@std@@IBEXXZ PROC ; std::vector<ForceInfo,std::allocator<ForceInfo> >::_Xlen, COMDAT
; _this$ = ecx

; 1427 : 		_Xlength_error("vector<T> too long");

  00000	68 00 00 00 00	 push	 OFFSET ??_C@_0BD@OLBABOEK@vector?$DMT?$DO?5too?5long?$AA@
  00005	ff 15 00 00 00
	00		 call	 DWORD PTR __imp_?_Xlength_error@std@@YAXPBD@Z
$LN4@Xlen@3:
$LN3@Xlen@3:
  0000b	cc		 int	 3
?_Xlen@?$vector@UForceInfo@@V?$allocator@UForceInfo@@@std@@@std@@IBEXXZ ENDP ; std::vector<ForceInfo,std::allocator<ForceInfo> >::_Xlen
_TEXT	ENDS
PUBLIC	?max_size@?$allocator@UWeaponInfo@@@std@@QBEIXZ	; std::allocator<WeaponInfo>::max_size
; Function compile flags: /Ogsp
; File c:\program files (x86)\microsoft visual studio 10.0\vc\include\xmemory
;	COMDAT ?max_size@?$allocator@UWeaponInfo@@@std@@QBEIXZ
_TEXT	SEGMENT
?max_size@?$allocator@UWeaponInfo@@@std@@QBEIXZ PROC	; std::allocator<WeaponInfo>::max_size, COMDAT
; _this$ = ecx

; 218  : 		_SIZT _Count = (_SIZT)(-1) / sizeof (_Ty);
; 219  : 		return (0 < _Count ? _Count : 1);

  00000	b8 66 66 66 06	 mov	 eax, 107374182		; 06666666H

; 220  : 		}

  00005	c3		 ret	 0
?max_size@?$allocator@UWeaponInfo@@@std@@QBEIXZ ENDP	; std::allocator<WeaponInfo>::max_size
_TEXT	ENDS
PUBLIC	?max_size@?$allocator@UForceInfo@@@std@@QBEIXZ	; std::allocator<ForceInfo>::max_size
; Function compile flags: /Ogsp
;	COMDAT ?max_size@?$allocator@UForceInfo@@@std@@QBEIXZ
_TEXT	SEGMENT
?max_size@?$allocator@UForceInfo@@@std@@QBEIXZ PROC	; std::allocator<ForceInfo>::max_size, COMDAT
; _this$ = ecx

; 218  : 		_SIZT _Count = (_SIZT)(-1) / sizeof (_Ty);
; 219  : 		return (0 < _Count ? _Count : 1);

  00000	b8 55 55 55 15	 mov	 eax, 357913941		; 15555555H

; 220  : 		}

  00005	c3		 ret	 0
?max_size@?$allocator@UForceInfo@@@std@@QBEIXZ ENDP	; std::allocator<ForceInfo>::max_size
_TEXT	ENDS
PUBLIC	??0?$_Vector_const_iterator@V?$_Vector_val@UWeaponInfo@@V?$allocator@UWeaponInfo@@@std@@@std@@@std@@QAE@PAUWeaponInfo@@PBU_Container_base0@1@@Z ; std::_Vector_const_iterator<std::_Vector_val<WeaponInfo,std::allocator<WeaponInfo> > >::_Vector_const_iterator<std::_Vector_val<WeaponInfo,std::allocator<WeaponInfo> > >
; Function compile flags: /Ogsp
; File c:\program files (x86)\microsoft visual studio 10.0\vc\include\vector
;	COMDAT ??0?$_Vector_const_iterator@V?$_Vector_val@UWeaponInfo@@V?$allocator@UWeaponInfo@@@std@@@std@@@std@@QAE@PAUWeaponInfo@@PBU_Container_base0@1@@Z
_TEXT	SEGMENT
__Parg$ = 8						; size = 4
__Pvector$ = 12						; size = 4
??0?$_Vector_const_iterator@V?$_Vector_val@UWeaponInfo@@V?$allocator@UWeaponInfo@@@std@@@std@@@std@@QAE@PAUWeaponInfo@@PBU_Container_base0@1@@Z PROC ; std::_Vector_const_iterator<std::_Vector_val<WeaponInfo,std::allocator<WeaponInfo> > >::_Vector_const_iterator<std::_Vector_val<WeaponInfo,std::allocator<WeaponInfo> > >, COMDAT
; _this$ = ecx

; 45   : 		{	// construct with pointer _Parg

  00000	55		 push	 ebp
  00001	8b ec		 mov	 ebp, esp
  00003	8b c1		 mov	 eax, ecx
  00005	8b 4d 08	 mov	 ecx, DWORD PTR __Parg$[ebp]
  00008	89 08		 mov	 DWORD PTR [eax], ecx

; 46   : 		this->_Adopt(_Pvector);
; 47   : 		}

  0000a	5d		 pop	 ebp
  0000b	c2 08 00	 ret	 8
??0?$_Vector_const_iterator@V?$_Vector_val@UWeaponInfo@@V?$allocator@UWeaponInfo@@@std@@@std@@@std@@QAE@PAUWeaponInfo@@PBU_Container_base0@1@@Z ENDP ; std::_Vector_const_iterator<std::_Vector_val<WeaponInfo,std::allocator<WeaponInfo> > >::_Vector_const_iterator<std::_Vector_val<WeaponInfo,std::allocator<WeaponInfo> > >
_TEXT	ENDS
PUBLIC	??0?$_Vector_const_iterator@V?$_Vector_val@UForceInfo@@V?$allocator@UForceInfo@@@std@@@std@@@std@@QAE@PAUForceInfo@@PBU_Container_base0@1@@Z ; std::_Vector_const_iterator<std::_Vector_val<ForceInfo,std::allocator<ForceInfo> > >::_Vector_const_iterator<std::_Vector_val<ForceInfo,std::allocator<ForceInfo> > >
; Function compile flags: /Ogsp
;	COMDAT ??0?$_Vector_const_iterator@V?$_Vector_val@UForceInfo@@V?$allocator@UForceInfo@@@std@@@std@@@std@@QAE@PAUForceInfo@@PBU_Container_base0@1@@Z
_TEXT	SEGMENT
__Parg$ = 8						; size = 4
__Pvector$ = 12						; size = 4
??0?$_Vector_const_iterator@V?$_Vector_val@UForceInfo@@V?$allocator@UForceInfo@@@std@@@std@@@std@@QAE@PAUForceInfo@@PBU_Container_base0@1@@Z PROC ; std::_Vector_const_iterator<std::_Vector_val<ForceInfo,std::allocator<ForceInfo> > >::_Vector_const_iterator<std::_Vector_val<ForceInfo,std::allocator<ForceInfo> > >, COMDAT
; _this$ = ecx

; 45   : 		{	// construct with pointer _Parg

  00000	55		 push	 ebp
  00001	8b ec		 mov	 ebp, esp
  00003	8b c1		 mov	 eax, ecx
  00005	8b 4d 08	 mov	 ecx, DWORD PTR __Parg$[ebp]
  00008	89 08		 mov	 DWORD PTR [eax], ecx

; 46   : 		this->_Adopt(_Pvector);
; 47   : 		}

  0000a	5d		 pop	 ebp
  0000b	c2 08 00	 ret	 8
??0?$_Vector_const_iterator@V?$_Vector_val@UForceInfo@@V?$allocator@UForceInfo@@@std@@@std@@@std@@QAE@PAUForceInfo@@PBU_Container_base0@1@@Z ENDP ; std::_Vector_const_iterator<std::_Vector_val<ForceInfo,std::allocator<ForceInfo> > >::_Vector_const_iterator<std::_Vector_val<ForceInfo,std::allocator<ForceInfo> > >
_TEXT	ENDS
PUBLIC	?_Compat@?$_Vector_const_iterator@V?$_Vector_val@UWeaponInfo@@V?$allocator@UWeaponInfo@@@std@@@std@@@std@@QBEXABV12@@Z ; std::_Vector_const_iterator<std::_Vector_val<WeaponInfo,std::allocator<WeaponInfo> > >::_Compat
; Function compile flags: /Ogsp
;	COMDAT ?_Compat@?$_Vector_const_iterator@V?$_Vector_val@UWeaponInfo@@V?$allocator@UWeaponInfo@@@std@@@std@@@std@@QBEXABV12@@Z
_TEXT	SEGMENT
___formal$ = 8						; size = 4
?_Compat@?$_Vector_const_iterator@V?$_Vector_val@UWeaponInfo@@V?$allocator@UWeaponInfo@@@std@@@std@@@std@@QBEXABV12@@Z PROC ; std::_Vector_const_iterator<std::_Vector_val<WeaponInfo,std::allocator<WeaponInfo> > >::_Compat, COMDAT
; _this$ = ecx

; 253  : 		}

  00000	c2 04 00	 ret	 4
?_Compat@?$_Vector_const_iterator@V?$_Vector_val@UWeaponInfo@@V?$allocator@UWeaponInfo@@@std@@@std@@@std@@QBEXABV12@@Z ENDP ; std::_Vector_const_iterator<std::_Vector_val<WeaponInfo,std::allocator<WeaponInfo> > >::_Compat
_TEXT	ENDS
PUBLIC	?_Compat@?$_Vector_const_iterator@V?$_Vector_val@UForceInfo@@V?$allocator@UForceInfo@@@std@@@std@@@std@@QBEXABV12@@Z ; std::_Vector_const_iterator<std::_Vector_val<ForceInfo,std::allocator<ForceInfo> > >::_Compat
; Function compile flags: /Ogsp
;	COMDAT ?_Compat@?$_Vector_const_iterator@V?$_Vector_val@UForceInfo@@V?$allocator@UForceInfo@@@std@@@std@@@std@@QBEXABV12@@Z
_TEXT	SEGMENT
___formal$ = 8						; size = 4
?_Compat@?$_Vector_const_iterator@V?$_Vector_val@UForceInfo@@V?$allocator@UForceInfo@@@std@@@std@@@std@@QBEXABV12@@Z PROC ; std::_Vector_const_iterator<std::_Vector_val<ForceInfo,std::allocator<ForceInfo> > >::_Compat, COMDAT
; _this$ = ecx

; 253  : 		}

  00000	c2 04 00	 ret	 4
?_Compat@?$_Vector_const_iterator@V?$_Vector_val@UForceInfo@@V?$allocator@UForceInfo@@@std@@@std@@@std@@QBEXABV12@@Z ENDP ; std::_Vector_const_iterator<std::_Vector_val<ForceInfo,std::allocator<ForceInfo> > >::_Compat
_TEXT	ENDS
PUBLIC	??$_Ptr_cat@V?$_Vector_const_iterator@V?$_Vector_val@VioHashString@@V?$allocator@VioHashString@@@std@@@std@@@std@@PAVioHashString@@@std@@YA?AU_Nonscalar_ptr_iterator_tag@0@AAV?$_Vector_const_iterator@V?$_Vector_val@VioHashString@@V?$allocator@VioHashString@@@std@@@std@@@0@AAPAVioHashString@@@Z ; std::_Ptr_cat<std::_Vector_const_iterator<std::_Vector_val<ioHashString,std::allocator<ioHashString> > >,ioHashString *>
; Function compile flags: /Ogsp
; File c:\program files (x86)\microsoft visual studio 10.0\vc\include\xutility
;	COMDAT ??$_Ptr_cat@V?$_Vector_const_iterator@V?$_Vector_val@VioHashString@@V?$allocator@VioHashString@@@std@@@std@@@std@@PAVioHashString@@@std@@YA?AU_Nonscalar_ptr_iterator_tag@0@AAV?$_Vector_const_iterator@V?$_Vector_val@VioHashString@@V?$allocator@VioHashString@@@std@@@std@@@0@AAPAVioHashString@@@Z
_TEXT	SEGMENT
__Cat$ = -1						; size = 1
___formal$ = 8						; size = 4
___formal$ = 12						; size = 4
??$_Ptr_cat@V?$_Vector_const_iterator@V?$_Vector_val@VioHashString@@V?$allocator@VioHashString@@@std@@@std@@@std@@PAVioHashString@@@std@@YA?AU_Nonscalar_ptr_iterator_tag@0@AAV?$_Vector_const_iterator@V?$_Vector_val@VioHashString@@V?$allocator@VioHashString@@@std@@@std@@@0@AAPAVioHashString@@@Z PROC ; std::_Ptr_cat<std::_Vector_const_iterator<std::_Vector_val<ioHashString,std::allocator<ioHashString> > >,ioHashString *>, COMDAT

; 485  : 	{	// return pointer category from arbitrary arguments

  00000	55		 push	 ebp
  00001	8b ec		 mov	 ebp, esp
  00003	51		 push	 ecx

; 486  : 	_Nonscalar_ptr_iterator_tag _Cat;
; 487  : 	return (_Cat);

  00004	8a 45 ff	 mov	 al, BYTE PTR __Cat$[ebp]

; 488  : 	}

  00007	c9		 leave
  00008	c3		 ret	 0
??$_Ptr_cat@V?$_Vector_const_iterator@V?$_Vector_val@VioHashString@@V?$allocator@VioHashString@@@std@@@std@@@std@@PAVioHashString@@@std@@YA?AU_Nonscalar_ptr_iterator_tag@0@AAV?$_Vector_const_iterator@V?$_Vector_val@VioHashString@@V?$allocator@VioHashString@@@std@@@std@@@0@AAPAVioHashString@@@Z ENDP ; std::_Ptr_cat<std::_Vector_const_iterator<std::_Vector_val<ioHashString,std::allocator<ioHashString> > >,ioHashString *>
_TEXT	ENDS
PUBLIC	??$move@AAVioHashString@@@std@@YA$$QAVioHashString@@AAV1@@Z ; std::move<ioHashString &>
; Function compile flags: /Ogsp
; File c:\program files (x86)\microsoft visual studio 10.0\vc\include\utility
;	COMDAT ??$move@AAVioHashString@@@std@@YA$$QAVioHashString@@AAV1@@Z
_TEXT	SEGMENT
__Arg$ = 8						; size = 4
??$move@AAVioHashString@@@std@@YA$$QAVioHashString@@AAV1@@Z PROC ; std::move<ioHashString &>, COMDAT

; 86   : 	{	// forward _Arg as movable

  00000	55		 push	 ebp
  00001	8b ec		 mov	 ebp, esp

; 87   : 	return ((typename tr1::_Remove_reference<_Ty>::_Type&&)_Arg);

  00003	8b 45 08	 mov	 eax, DWORD PTR __Arg$[ebp]

; 88   : 	}

  00006	5d		 pop	 ebp
  00007	c3		 ret	 0
??$move@AAVioHashString@@@std@@YA$$QAVioHashString@@AAV1@@Z ENDP ; std::move<ioHashString &>
_TEXT	ENDS
PUBLIC	??$_Allocate@UWeaponInfo@@@std@@YAPAUWeaponInfo@@IPAU1@@Z ; std::_Allocate<WeaponInfo>
; Function compile flags: /Ogsp
; File c:\program files (x86)\microsoft visual studio 10.0\vc\include\xmemory
;	COMDAT ??$_Allocate@UWeaponInfo@@@std@@YAPAUWeaponInfo@@IPAU1@@Z
_TEXT	SEGMENT
$T554665 = -12						; size = 12
$T554669 = 8						; size = 4
__Count$ = 8						; size = 4
___formal$ = 12						; size = 4
??$_Allocate@UWeaponInfo@@@std@@YAPAUWeaponInfo@@IPAU1@@Z PROC ; std::_Allocate<WeaponInfo>, COMDAT

; 30   : 	{	// allocate storage for _Count elements of type _Ty

  00000	55		 push	 ebp
  00001	8b ec		 mov	 ebp, esp

; 31   : 	void *_Ptr = 0;
; 32   : 
; 33   : 	if (_Count <= 0)

  00003	8b 4d 08	 mov	 ecx, DWORD PTR __Count$[ebp]
  00006	83 ec 0c	 sub	 esp, 12			; 0000000cH
  00009	33 c0		 xor	 eax, eax
  0000b	85 c9		 test	 ecx, ecx

; 34   : 		_Count = 0;
; 35   : 	else if (((_SIZT)(-1) / sizeof (_Ty) < _Count)

  0000d	74 3c		 je	 SHORT $LN5@Allocate@2

; 36   : 		|| (_Ptr = ::operator new(_Count * sizeof (_Ty))) == 0)

  0000f	81 f9 66 66 66
	06		 cmp	 ecx, 107374182		; 06666666H
  00015	77 0e		 ja	 SHORT $LN1@Allocate@2
  00017	6b c9 28	 imul	 ecx, 40			; 00000028H
  0001a	51		 push	 ecx
  0001b	e8 00 00 00 00	 call	 ??2@YAPAXI@Z		; operator new
  00020	59		 pop	 ecx
  00021	85 c0		 test	 eax, eax

; 38   : 
; 39   : 	return ((_Ty _FARQ *)_Ptr);

  00023	75 26		 jne	 SHORT $LN5@Allocate@2
$LN1@Allocate@2:

; 37   : 		_THROW_NCEE(bad_alloc, 0);

  00025	83 65 08 00	 and	 DWORD PTR $T554669[ebp], 0
  00029	8d 45 08	 lea	 eax, DWORD PTR $T554669[ebp]
  0002c	50		 push	 eax
  0002d	8d 4d f4	 lea	 ecx, DWORD PTR $T554665[ebp]
  00030	ff 15 00 00 00
	00		 call	 DWORD PTR __imp_??0exception@std@@QAE@ABQBD@Z
  00036	68 00 00 00 00	 push	 OFFSET __TI2?AVbad_alloc@std@@
  0003b	8d 45 f4	 lea	 eax, DWORD PTR $T554665[ebp]
  0003e	50		 push	 eax
  0003f	c7 45 f4 00 00
	00 00		 mov	 DWORD PTR $T554665[ebp], OFFSET ??_7bad_alloc@std@@6B@
  00046	e8 00 00 00 00	 call	 __CxxThrowException@8
$LN10@Allocate@2:
$LN5@Allocate@2:

; 40   : 	}

  0004b	c9		 leave
  0004c	c3		 ret	 0
$LN9@Allocate@2:
??$_Allocate@UWeaponInfo@@@std@@YAPAUWeaponInfo@@IPAU1@@Z ENDP ; std::_Allocate<WeaponInfo>
_TEXT	ENDS
PUBLIC	??$_Allocate@UForceInfo@@@std@@YAPAUForceInfo@@IPAU1@@Z ; std::_Allocate<ForceInfo>
; Function compile flags: /Ogsp
;	COMDAT ??$_Allocate@UForceInfo@@@std@@YAPAUForceInfo@@IPAU1@@Z
_TEXT	SEGMENT
$T554674 = -12						; size = 12
$T554678 = 8						; size = 4
__Count$ = 8						; size = 4
___formal$ = 12						; size = 4
??$_Allocate@UForceInfo@@@std@@YAPAUForceInfo@@IPAU1@@Z PROC ; std::_Allocate<ForceInfo>, COMDAT

; 30   : 	{	// allocate storage for _Count elements of type _Ty

  00000	55		 push	 ebp
  00001	8b ec		 mov	 ebp, esp

; 31   : 	void *_Ptr = 0;
; 32   : 
; 33   : 	if (_Count <= 0)

  00003	8b 4d 08	 mov	 ecx, DWORD PTR __Count$[ebp]
  00006	83 ec 0c	 sub	 esp, 12			; 0000000cH
  00009	33 c0		 xor	 eax, eax
  0000b	85 c9		 test	 ecx, ecx

; 34   : 		_Count = 0;
; 35   : 	else if (((_SIZT)(-1) / sizeof (_Ty) < _Count)

  0000d	74 3c		 je	 SHORT $LN5@Allocate@3

; 36   : 		|| (_Ptr = ::operator new(_Count * sizeof (_Ty))) == 0)

  0000f	81 f9 55 55 55
	15		 cmp	 ecx, 357913941		; 15555555H
  00015	77 0e		 ja	 SHORT $LN1@Allocate@3
  00017	6b c9 0c	 imul	 ecx, 12			; 0000000cH
  0001a	51		 push	 ecx
  0001b	e8 00 00 00 00	 call	 ??2@YAPAXI@Z		; operator new
  00020	59		 pop	 ecx
  00021	85 c0		 test	 eax, eax

; 38   : 
; 39   : 	return ((_Ty _FARQ *)_Ptr);

  00023	75 26		 jne	 SHORT $LN5@Allocate@3
$LN1@Allocate@3:

; 37   : 		_THROW_NCEE(bad_alloc, 0);

  00025	83 65 08 00	 and	 DWORD PTR $T554678[ebp], 0
  00029	8d 45 08	 lea	 eax, DWORD PTR $T554678[ebp]
  0002c	50		 push	 eax
  0002d	8d 4d f4	 lea	 ecx, DWORD PTR $T554674[ebp]
  00030	ff 15 00 00 00
	00		 call	 DWORD PTR __imp_??0exception@std@@QAE@ABQBD@Z
  00036	68 00 00 00 00	 push	 OFFSET __TI2?AVbad_alloc@std@@
  0003b	8d 45 f4	 lea	 eax, DWORD PTR $T554674[ebp]
  0003e	50		 push	 eax
  0003f	c7 45 f4 00 00
	00 00		 mov	 DWORD PTR $T554674[ebp], OFFSET ??_7bad_alloc@std@@6B@
  00046	e8 00 00 00 00	 call	 __CxxThrowException@8
$LN10@Allocate@3:
$LN5@Allocate@3:

; 40   : 	}

  0004b	c9		 leave
  0004c	c3		 ret	 0
$LN9@Allocate@3:
??$_Allocate@UForceInfo@@@std@@YAPAUForceInfo@@IPAU1@@Z ENDP ; std::_Allocate<ForceInfo>
_TEXT	ENDS
PUBLIC	??D?$_Vector_const_iterator@V?$_Vector_val@VioHashString@@V?$allocator@VioHashString@@@std@@@std@@@std@@QBEABVioHashString@@XZ ; std::_Vector_const_iterator<std::_Vector_val<ioHashString,std::allocator<ioHashString> > >::operator*
; Function compile flags: /Ogsp
; File c:\program files (x86)\microsoft visual studio 10.0\vc\include\vector
;	COMDAT ??D?$_Vector_const_iterator@V?$_Vector_val@VioHashString@@V?$allocator@VioHashString@@@std@@@std@@@std@@QBEABVioHashString@@XZ
_TEXT	SEGMENT
??D?$_Vector_const_iterator@V?$_Vector_val@VioHashString@@V?$allocator@VioHashString@@@std@@@std@@@std@@QBEABVioHashString@@XZ PROC ; std::_Vector_const_iterator<std::_Vector_val<ioHashString,std::allocator<ioHashString> > >::operator*, COMDAT
; _this$ = ecx

; 64   :  #if _ITERATOR_DEBUG_LEVEL == 2
; 65   : 		if (this->_Getcont() == 0
; 66   : 			|| this->_Ptr == 0
; 67   : 			|| this->_Ptr < ((_Myvec *)this->_Getcont())->_Myfirst
; 68   : 			|| ((_Myvec *)this->_Getcont())->_Mylast <= this->_Ptr)
; 69   : 			{	// report error
; 70   : 			_DEBUG_ERROR("vector iterator not dereferencable");
; 71   : 			_SCL_SECURE_OUT_OF_RANGE;
; 72   : 			}
; 73   : 
; 74   :  #elif _ITERATOR_DEBUG_LEVEL == 1
; 75   : 		_SCL_SECURE_VALIDATE(this->_Getcont() != 0);
; 76   : 		_SCL_SECURE_VALIDATE_RANGE(
; 77   : 			this->_Ptr != 0
; 78   : 			&& ((_Myvec *)this->_Getcont())->_Myfirst <= this->_Ptr
; 79   : 			&& this->_Ptr < ((_Myvec *)this->_Getcont())->_Mylast);
; 80   :  #endif /* _ITERATOR_DEBUG_LEVEL */
; 81   : 
; 82   : 		__analysis_assume(this->_Ptr != 0);
; 83   : 
; 84   : 		return (*this->_Ptr);

  00000	8b 01		 mov	 eax, DWORD PTR [ecx]

; 85   : 		}

  00002	c3		 ret	 0
??D?$_Vector_const_iterator@V?$_Vector_val@VioHashString@@V?$allocator@VioHashString@@@std@@@std@@@std@@QBEABVioHashString@@XZ ENDP ; std::_Vector_const_iterator<std::_Vector_val<ioHashString,std::allocator<ioHashString> > >::operator*
_TEXT	ENDS
PUBLIC	??E?$_Vector_const_iterator@V?$_Vector_val@VioHashString@@V?$allocator@VioHashString@@@std@@@std@@@std@@QAEAAV01@XZ ; std::_Vector_const_iterator<std::_Vector_val<ioHashString,std::allocator<ioHashString> > >::operator++
; Function compile flags: /Ogsp
;	COMDAT ??E?$_Vector_const_iterator@V?$_Vector_val@VioHashString@@V?$allocator@VioHashString@@@std@@@std@@@std@@QAEAAV01@XZ
_TEXT	SEGMENT
??E?$_Vector_const_iterator@V?$_Vector_val@VioHashString@@V?$allocator@VioHashString@@@std@@@std@@@std@@QAEAAV01@XZ PROC ; std::_Vector_const_iterator<std::_Vector_val<ioHashString,std::allocator<ioHashString> > >::operator++, COMDAT
; _this$ = ecx

; 93   : 		{	// preincrement

  00000	8b c1		 mov	 eax, ecx

; 94   :  #if _ITERATOR_DEBUG_LEVEL == 2
; 95   : 		if (this->_Getcont() == 0
; 96   : 			|| this->_Ptr == 0
; 97   : 			|| ((_Myvec *)this->_Getcont())->_Mylast <= this->_Ptr)
; 98   : 			{	// report error
; 99   : 			_DEBUG_ERROR("vector iterator not incrementable");
; 100  : 			_SCL_SECURE_OUT_OF_RANGE;
; 101  : 			}
; 102  : 
; 103  :  #elif _ITERATOR_DEBUG_LEVEL == 1
; 104  : 		_SCL_SECURE_VALIDATE(this->_Getcont() != 0);
; 105  : 		_SCL_SECURE_VALIDATE_RANGE(
; 106  : 			this->_Ptr != 0
; 107  : 			&& this->_Ptr < ((_Myvec *)this->_Getcont())->_Mylast);
; 108  :  #endif /* _ITERATOR_DEBUG_LEVEL */
; 109  : 
; 110  : 		++this->_Ptr;

  00002	83 00 10	 add	 DWORD PTR [eax], 16	; 00000010H

; 111  : 		return (*this);
; 112  : 		}

  00005	c3		 ret	 0
??E?$_Vector_const_iterator@V?$_Vector_val@VioHashString@@V?$allocator@VioHashString@@@std@@@std@@@std@@QAEAAV01@XZ ENDP ; std::_Vector_const_iterator<std::_Vector_val<ioHashString,std::allocator<ioHashString> > >::operator++
_TEXT	ENDS
PUBLIC	??$_Destroy@UForceInfo@@@std@@YAXPAUForceInfo@@@Z ; std::_Destroy<ForceInfo>
; Function compile flags: /Ogsp
; File c:\program files (x86)\microsoft visual studio 10.0\vc\include\xmemory
;	COMDAT ??$_Destroy@UForceInfo@@@std@@YAXPAUForceInfo@@@Z
_TEXT	SEGMENT
__Ptr$ = 8						; size = 4
??$_Destroy@UForceInfo@@@std@@YAXPAUForceInfo@@@Z PROC	; std::_Destroy<ForceInfo>, COMDAT

; 63   : 	_Ptr->~_Ty();
; 64   : 	}

  00000	c3		 ret	 0
??$_Destroy@UForceInfo@@@std@@YAXPAUForceInfo@@@Z ENDP	; std::_Destroy<ForceInfo>
_TEXT	ENDS
PUBLIC	??_GioHashString@@QAEPAXI@Z			; ioHashString::`scalar deleting destructor'
; Function compile flags: /Ogsp
;	COMDAT ??_GioHashString@@QAEPAXI@Z
_TEXT	SEGMENT
___flags$ = 8						; size = 4
??_GioHashString@@QAEPAXI@Z PROC			; ioHashString::`scalar deleting destructor', COMDAT
; _this$ = ecx
  00000	55		 push	 ebp
  00001	8b ec		 mov	 ebp, esp
  00003	56		 push	 esi
  00004	8b f1		 mov	 esi, ecx
  00006	ff 15 00 00 00
	00		 call	 DWORD PTR __imp_??1ioHashString@@QAE@XZ
  0000c	f6 45 08 01	 test	 BYTE PTR ___flags$[ebp], 1
  00010	74 07		 je	 SHORT $LN1@scalar@3
  00012	56		 push	 esi
  00013	e8 00 00 00 00	 call	 ??3@YAXPAX@Z		; operator delete
  00018	59		 pop	 ecx
$LN1@scalar@3:
  00019	8b c6		 mov	 eax, esi
  0001b	5e		 pop	 esi
  0001c	5d		 pop	 ebp
  0001d	c2 04 00	 ret	 4
??_GioHashString@@QAEPAXI@Z ENDP			; ioHashString::`scalar deleting destructor'
_TEXT	ENDS
PUBLIC	??_GWeaponInfo@@QAEPAXI@Z			; WeaponInfo::`scalar deleting destructor'
; Function compile flags: /Ogsp
;	COMDAT ??_GWeaponInfo@@QAEPAXI@Z
_TEXT	SEGMENT
___flags$ = 8						; size = 4
??_GWeaponInfo@@QAEPAXI@Z PROC				; WeaponInfo::`scalar deleting destructor', COMDAT
; _this$ = ecx
  00000	55		 push	 ebp
  00001	8b ec		 mov	 ebp, esp
  00003	56		 push	 esi
  00004	8b f1		 mov	 esi, ecx
  00006	8d 4e 08	 lea	 ecx, DWORD PTR [esi+8]
  00009	ff 15 00 00 00
	00		 call	 DWORD PTR __imp_??1ioHashString@@QAE@XZ
  0000f	f6 45 08 01	 test	 BYTE PTR ___flags$[ebp], 1
  00013	74 07		 je	 SHORT $LN1@scalar@4
  00015	56		 push	 esi
  00016	e8 00 00 00 00	 call	 ??3@YAXPAX@Z		; operator delete
  0001b	59		 pop	 ecx
$LN1@scalar@4:
  0001c	8b c6		 mov	 eax, esi
  0001e	5e		 pop	 esi
  0001f	5d		 pop	 ebp
  00020	c2 04 00	 ret	 4
??_GWeaponInfo@@QAEPAXI@Z ENDP				; WeaponInfo::`scalar deleting destructor'
_TEXT	ENDS
PUBLIC	??$_Construct@VioHashString@@ABV1@@std@@YAXPAVioHashString@@ABV1@@Z ; std::_Construct<ioHashString,ioHashString const &>
;	COMDAT xdata$x
; File c:\program files (x86)\microsoft visual studio 10.0\vc\include\utility
xdata$x	SEGMENT
__unwindtable$??$_Construct@VioHashString@@ABV1@@std@@YAXPAVioHashString@@ABV1@@Z DD 0ffffffffH
	DD	FLAT:__unwindfunclet$??$_Construct@VioHashString@@ABV1@@std@@YAXPAVioHashString@@ABV1@@Z$0
__ehfuncinfo$??$_Construct@VioHashString@@ABV1@@std@@YAXPAVioHashString@@ABV1@@Z DD 019930522H
	DD	01H
	DD	FLAT:__unwindtable$??$_Construct@VioHashString@@ABV1@@std@@YAXPAVioHashString@@ABV1@@Z
	DD	2 DUP(00H)
	DD	2 DUP(00H)
	DD	00H
	DD	01H
; Function compile flags: /Ogsp
; File c:\program files (x86)\microsoft visual studio 10.0\vc\include\xmemory
xdata$x	ENDS
;	COMDAT ??$_Construct@VioHashString@@ABV1@@std@@YAXPAVioHashString@@ABV1@@Z
_TEXT	SEGMENT
$T554701 = -16						; size = 4
__$EHRec$ = -12						; size = 12
__Vptr$ = 8						; size = 4
__Ptr$ = 8						; size = 4
__Val$ = 12						; size = 4
??$_Construct@VioHashString@@ABV1@@std@@YAXPAVioHashString@@ABV1@@Z PROC ; std::_Construct<ioHashString,ioHashString const &>, COMDAT

; 46   : 	{	// construct object at _Ptr with value _Val

  00000	6a 04		 push	 4
  00002	b8 00 00 00 00	 mov	 eax, __ehhandler$??$_Construct@VioHashString@@ABV1@@std@@YAXPAVioHashString@@ABV1@@Z
  00007	e8 00 00 00 00	 call	 __EH_prolog3

; 47   : 	void _FARQ *_Vptr = _Ptr;

  0000c	8b 4d 08	 mov	 ecx, DWORD PTR __Ptr$[ebp]
  0000f	89 4d 08	 mov	 DWORD PTR __Vptr$[ebp], ecx

; 48   : 	::new (_Vptr) _Ty1(_STD forward<_Ty2>(_Val));

  00012	89 4d f0	 mov	 DWORD PTR $T554701[ebp], ecx
  00015	83 65 fc 00	 and	 DWORD PTR __$EHRec$[ebp+8], 0
  00019	85 c9		 test	 ecx, ecx
  0001b	74 09		 je	 SHORT $LN3@Construct@2
  0001d	ff 75 0c	 push	 DWORD PTR __Val$[ebp]
  00020	ff 15 00 00 00
	00		 call	 DWORD PTR __imp_??0ioHashString@@QAE@ABV0@@Z
$LN3@Construct@2:

; 49   : 	}

  00026	e8 00 00 00 00	 call	 __EH_epilog3
  0002b	c3		 ret	 0
_TEXT	ENDS
;	COMDAT text$x
text$x	SEGMENT
__unwindfunclet$??$_Construct@VioHashString@@ABV1@@std@@YAXPAVioHashString@@ABV1@@Z$0:
  00000	ff 75 08	 push	 DWORD PTR __Vptr$[ebp]
  00003	ff 75 f0	 push	 DWORD PTR $T554701[ebp]
  00006	e8 00 00 00 00	 call	 ??3@YAXPAX0@Z		; operator delete
  0000b	59		 pop	 ecx
  0000c	59		 pop	 ecx
  0000d	c3		 ret	 0
__ehhandler$??$_Construct@VioHashString@@ABV1@@std@@YAXPAVioHashString@@ABV1@@Z:
  0000e	8b 54 24 08	 mov	 edx, DWORD PTR [esp+8]
  00012	8d 42 0c	 lea	 eax, DWORD PTR [edx+12]
  00015	8b 4a ec	 mov	 ecx, DWORD PTR [edx-20]
  00018	33 c8		 xor	 ecx, eax
  0001a	e8 00 00 00 00	 call	 @__security_check_cookie@4
  0001f	b8 00 00 00 00	 mov	 eax, OFFSET __ehfuncinfo$??$_Construct@VioHashString@@ABV1@@std@@YAXPAVioHashString@@ABV1@@Z
  00024	e9 00 00 00 00	 jmp	 ___CxxFrameHandler3
text$x	ENDS
??$_Construct@VioHashString@@ABV1@@std@@YAXPAVioHashString@@ABV1@@Z ENDP ; std::_Construct<ioHashString,ioHashString const &>
PUBLIC	??0WeaponInfo@@QAE@ABU0@@Z			; WeaponInfo::WeaponInfo
; Function compile flags: /Ogsp
;	COMDAT ??0WeaponInfo@@QAE@ABU0@@Z
_TEXT	SEGMENT
___that$ = 8						; size = 4
??0WeaponInfo@@QAE@ABU0@@Z PROC				; WeaponInfo::WeaponInfo, COMDAT
; _this$ = ecx
  00000	55		 push	 ebp
  00001	8b ec		 mov	 ebp, esp
  00003	56		 push	 esi
  00004	57		 push	 edi
  00005	8b 7d 08	 mov	 edi, DWORD PTR ___that$[ebp]
  00008	8b 07		 mov	 eax, DWORD PTR [edi]
  0000a	8b f1		 mov	 esi, ecx
  0000c	89 06		 mov	 DWORD PTR [esi], eax
  0000e	8b 47 04	 mov	 eax, DWORD PTR [edi+4]
  00011	89 46 04	 mov	 DWORD PTR [esi+4], eax
  00014	8d 47 08	 lea	 eax, DWORD PTR [edi+8]
  00017	50		 push	 eax
  00018	8d 4e 08	 lea	 ecx, DWORD PTR [esi+8]
  0001b	ff 15 00 00 00
	00		 call	 DWORD PTR __imp_??0ioHashString@@QAE@ABV0@@Z
  00021	8b 47 18	 mov	 eax, DWORD PTR [edi+24]
  00024	89 46 18	 mov	 DWORD PTR [esi+24], eax
  00027	8b 47 1c	 mov	 eax, DWORD PTR [edi+28]
  0002a	89 46 1c	 mov	 DWORD PTR [esi+28], eax
  0002d	8a 47 20	 mov	 al, BYTE PTR [edi+32]
  00030	88 46 20	 mov	 BYTE PTR [esi+32], al
  00033	8b 47 24	 mov	 eax, DWORD PTR [edi+36]
  00036	89 46 24	 mov	 DWORD PTR [esi+36], eax
  00039	5f		 pop	 edi
  0003a	8b c6		 mov	 eax, esi
  0003c	5e		 pop	 esi
  0003d	5d		 pop	 ebp
  0003e	c2 04 00	 ret	 4
??0WeaponInfo@@QAE@ABU0@@Z ENDP				; WeaponInfo::WeaponInfo
_TEXT	ENDS
PUBLIC	??_R0?AVioTrinityItem@@@8			; ioTrinityItem `RTTI Type Descriptor'
PUBLIC	?ToTrinityItem@@YAPAVioTrinityItem@@PAVioItem@@@Z ; ToTrinityItem
;	COMDAT ??_R0?AVioTrinityItem@@@8
; File d:\lost saga for developer\youtube\tutorial\source\src\lsclient\iotrinityitem.h
_DATA	SEGMENT
??_R0?AVioTrinityItem@@@8 DD FLAT:??_7type_info@@6B@	; ioTrinityItem `RTTI Type Descriptor'
	DD	00H
	DB	'.?AVioTrinityItem@@', 00H
; Function compile flags: /Ogsp
_DATA	ENDS
;	COMDAT ?ToTrinityItem@@YAPAVioTrinityItem@@PAVioItem@@@Z
_TEXT	SEGMENT
_pItem$ = 8						; size = 4
?ToTrinityItem@@YAPAVioTrinityItem@@PAVioItem@@@Z PROC	; ToTrinityItem, COMDAT

; 176  : {

  00000	55		 push	 ebp
  00001	8b ec		 mov	 ebp, esp

; 177  : 	ioWeaponItem *pWeapon = ToWeaponItem( pItem );

  00003	ff 75 08	 push	 DWORD PTR _pItem$[ebp]
  00006	e8 00 00 00 00	 call	 ?ToWeaponItem@@YAPAVioWeaponItem@@PAVioItem@@@Z ; ToWeaponItem
  0000b	59		 pop	 ecx

; 178  : 	if( !pWeapon || pWeapon->GetSubType() != ioWeaponItem::WST_TRINITY )

  0000c	85 c0		 test	 eax, eax
  0000e	74 2a		 je	 SHORT $LN1@ToTrinityI
  00010	8b 10		 mov	 edx, DWORD PTR [eax]
  00012	8b c8		 mov	 ecx, eax
  00014	ff 92 f0 02 00
	00		 call	 DWORD PTR [edx+752]
  0001a	83 f8 42	 cmp	 eax, 66			; 00000042H
  0001d	75 1b		 jne	 SHORT $LN1@ToTrinityI

; 180  : 
; 181  : 	return dynamic_cast< ioTrinityItem* >( pItem );

  0001f	6a 00		 push	 0
  00021	68 00 00 00 00	 push	 OFFSET ??_R0?AVioTrinityItem@@@8
  00026	68 00 00 00 00	 push	 OFFSET ??_R0?AVioItem@@@8
  0002b	6a 00		 push	 0
  0002d	ff 75 08	 push	 DWORD PTR _pItem$[ebp]
  00030	e8 00 00 00 00	 call	 ___RTDynamicCast
  00035	83 c4 14	 add	 esp, 20			; 00000014H

; 182  : }

  00038	5d		 pop	 ebp
  00039	c3		 ret	 0
$LN1@ToTrinityI:

; 179  : 		return NULL;

  0003a	33 c0		 xor	 eax, eax

; 182  : }

  0003c	5d		 pop	 ebp
  0003d	c3		 ret	 0
?ToTrinityItem@@YAPAVioTrinityItem@@PAVioItem@@@Z ENDP	; ToTrinityItem
_TEXT	ENDS
PUBLIC	__$ArrayPad$
PUBLIC	?ChangeReloadState@ioTrinityItem@@IAEXPAVioBaseChar@@@Z ; ioTrinityItem::ChangeReloadState
EXTRN	??1SP2Packet@@UAE@XZ:PROC			; SP2Packet::~SP2Packet
EXTRN	?SendToAllPlayingUser@P2PNetwork@@YAXAAVSP2Packet@@PAVioBaseChar@@@Z:PROC ; P2PNetwork::SendToAllPlayingUser
EXTRN	??6SP2Packet@@QAEAAV0@AAV?$CEncrypt@M@@@Z:PROC	; SP2Packet::operator<<
EXTRN	??6SP2Packet@@QAEAAV0@ABUD3DXQUATERNION@@@Z:PROC ; SP2Packet::operator<<
EXTRN	??6SP2Packet@@QAEAAV0@H@Z:PROC			; SP2Packet::operator<<
EXTRN	?FillItemGaugePacketHeader@ioAttackableItem@@QAEXPAVioBaseChar@@AAVSP2Packet@@@Z:PROC ; ioAttackableItem::FillItemGaugePacketHeader
EXTRN	??0SP2Packet@@QAE@K@Z:PROC			; SP2Packet::SP2Packet
EXTRN	__imp_?GetAnimationFullTime@ioEntityGroup@@QAEMH@Z:PROC
EXTRN	__imp_?SetActionAni@ioEntityGroup@@QAE_NHMMMMMM_N0@Z:PROC
EXTRN	__imp_?GetAnimationIdx@ioEntityGroup@@QAEHABVioHashString@@@Z:PROC
EXTRN	__imp_?ClearAllActionAni@ioEntityGroup@@QAEXM_N@Z:PROC
EXTRN	__imp_?ClearAllLoopAni@ioEntityGroup@@QAEXM_N@Z:PROC
EXTRN	?InitExtendAttackTagInfo@ioBaseChar@@QAEXXZ:PROC ; ioBaseChar::InitExtendAttackTagInfo
EXTRN	?SetAttackMoveEnable@ioBaseChar@@QAEX_N@Z:PROC	; ioBaseChar::SetAttackMoveEnable
EXTRN	__imp_?GetLoopSec@ioFrameTimer@@QBEKXZ:PROC
EXTRN	__imp_?GetSingleton@ioFrameTimer@@SAAAV1@XZ:PROC
EXTRN	__chkstk:PROC
EXTRN	__ftol2:PROC
;	COMDAT xdata$x
; File d:\lost saga for developer\youtube\tutorial\source\src\lsclient\iobasechar.h
xdata$x	SEGMENT
__unwindtable$?ChangeReloadState@ioTrinityItem@@IAEXPAVioBaseChar@@@Z DD 0ffffffffH
	DD	FLAT:__unwindfunclet$?ChangeReloadState@ioTrinityItem@@IAEXPAVioBaseChar@@@Z$0
__ehfuncinfo$?ChangeReloadState@ioTrinityItem@@IAEXPAVioBaseChar@@@Z DD 019930522H
	DD	01H
	DD	FLAT:__unwindtable$?ChangeReloadState@ioTrinityItem@@IAEXPAVioBaseChar@@@Z
	DD	2 DUP(00H)
	DD	2 DUP(00H)
	DD	00H
	DD	01H
; Function compile flags: /Ogsp
; File d:\lost saga for developer\youtube\tutorial\source\src\lsclient\iotrinityitem.cpp
xdata$x	ENDS
;	COMDAT ?ChangeReloadState@ioTrinityItem@@IAEXPAVioBaseChar@@@Z
_TEXT	SEGMENT
_iAniID$ = -32828					; size = 4
_fTimeRate$ = -32824					; size = 4
tv74 = -32820						; size = 4
_dwCurTime$ = -32820					; size = 4
tv245 = -32816						; size = 4
tv242 = -32816						; size = 4
tv240 = -32816						; size = 4
tv260 = -32812						; size = 4
tv255 = -32812						; size = 4
tv238 = -32812						; size = 4
tv236 = -32812						; size = 4
$T554751 = -32812					; size = 4
_kPacket$550924 = -32808				; size = 32792
__$ArrayPad$ = -16					; size = 4
__$EHRec$ = -12						; size = 12
_pOwner$ = 8						; size = 4
?ChangeReloadState@ioTrinityItem@@IAEXPAVioBaseChar@@@Z PROC ; ioTrinityItem::ChangeReloadState, COMDAT
; _this$ = ecx

; 497  : {

  00000	55		 push	 ebp
  00001	8b ec		 mov	 ebp, esp
  00003	6a ff		 push	 -1
  00005	68 00 00 00 00	 push	 __ehhandler$?ChangeReloadState@ioTrinityItem@@IAEXPAVioBaseChar@@@Z
  0000a	64 a1 00 00 00
	00		 mov	 eax, DWORD PTR fs:0
  00010	50		 push	 eax
  00011	b8 30 80 00 00	 mov	 eax, 32816		; 00008030H
  00016	e8 00 00 00 00	 call	 __chkstk
  0001b	a1 00 00 00 00	 mov	 eax, DWORD PTR ___security_cookie
  00020	33 c5		 xor	 eax, ebp
  00022	89 45 f0	 mov	 DWORD PTR __$ArrayPad$[ebp], eax
  00025	53		 push	 ebx
  00026	56		 push	 esi
  00027	57		 push	 edi
  00028	50		 push	 eax
  00029	8d 45 f4	 lea	 eax, DWORD PTR __$EHRec$[ebp]
  0002c	64 a3 00 00 00
	00		 mov	 DWORD PTR fs:0, eax
  00032	8b 7d 08	 mov	 edi, DWORD PTR _pOwner$[ebp]
  00035	8b f1		 mov	 esi, ecx

; 498  : 	if( !pOwner ) return;

  00037	85 ff		 test	 edi, edi
  00039	0f 84 4c 02 00
	00		 je	 $LN1@ChangeRelo

; 499  : 
; 500  : 	DWORD dwCurTime = FRAMEGETTIME();

  0003f	ff 15 00 00 00
	00		 call	 DWORD PTR __imp_?GetSingleton@ioFrameTimer@@SAAAV1@XZ
  00045	8b c8		 mov	 ecx, eax
  00047	ff 15 00 00 00
	00		 call	 DWORD PTR __imp_?GetLoopSec@ioFrameTimer@@QBEKXZ

; 501  : 
; 502  : 	m_State = TS_RELOAD;

  0004d	c7 86 84 19 00
	00 04 00 00 00	 mov	 DWORD PTR [esi+6532], 4

; 503  : 
; 504  : 	ioEntityGroup *pGrp = pOwner->GetGroup();

  00057	8b 5f 04	 mov	 ebx, DWORD PTR [edi+4]
  0005a	89 85 cc 7f ff
	ff		 mov	 DWORD PTR _dwCurTime$[ebp], eax

; 505  : 	if( !pGrp )

  00060	85 db		 test	 ebx, ebx
  00062	0f 84 23 02 00
	00		 je	 $LN1@ChangeRelo

; 506  : 		return;
; 507  : 
; 508  : 	pOwner->SetAttackMoveEnable( true );

  00068	6a 01		 push	 1
  0006a	8b cf		 mov	 ecx, edi
  0006c	e8 00 00 00 00	 call	 ?SetAttackMoveEnable@ioBaseChar@@QAEX_N@Z ; ioBaseChar::SetAttackMoveEnable

; 509  : 	pOwner->SetChargingState( true );
; 510  : 
; 511  : 	pOwner->InitExtendAttackTagInfo();

  00071	8b cf		 mov	 ecx, edi
  00073	c6 87 54 20 00
	00 01		 mov	 BYTE PTR [edi+8276], 1
  0007a	e8 00 00 00 00	 call	 ?InitExtendAttackTagInfo@ioBaseChar@@QAEXXZ ; ioBaseChar::InitExtendAttackTagInfo

; 512  : 
; 513  : 	pGrp->ClearAllLoopAni( FLOAT10, true );

  0007f	b8 0a 00 00 00	 mov	 eax, 10			; 0000000aH
  00084	89 85 d4 7f ff
	ff		 mov	 DWORD PTR tv260[ebp], eax
  0008a	db 85 d4 7f ff
	ff		 fild	 DWORD PTR tv260[ebp]
  00090	6a 01		 push	 1
  00092	85 c0		 test	 eax, eax
  00094	79 06		 jns	 SHORT $LN26@ChangeRelo
  00096	d8 05 00 00 00
	00		 fadd	 DWORD PTR __real@4f800000
$LN26@ChangeRelo:
  0009c	51		 push	 ecx
  0009d	8b cb		 mov	 ecx, ebx
  0009f	d9 1c 24	 fstp	 DWORD PTR [esp]
  000a2	ff 15 00 00 00
	00		 call	 DWORD PTR __imp_?ClearAllLoopAni@ioEntityGroup@@QAEXM_N@Z

; 514  : 	pGrp->ClearAllActionAni( FLOAT10, true );

  000a8	b8 0a 00 00 00	 mov	 eax, 10			; 0000000aH
  000ad	89 85 d4 7f ff
	ff		 mov	 DWORD PTR tv255[ebp], eax
  000b3	db 85 d4 7f ff
	ff		 fild	 DWORD PTR tv255[ebp]
  000b9	6a 01		 push	 1
  000bb	85 c0		 test	 eax, eax
  000bd	79 06		 jns	 SHORT $LN27@ChangeRelo
  000bf	d8 05 00 00 00
	00		 fadd	 DWORD PTR __real@4f800000
$LN27@ChangeRelo:
  000c5	51		 push	 ecx
  000c6	8b cb		 mov	 ecx, ebx
  000c8	d9 1c 24	 fstp	 DWORD PTR [esp]
  000cb	ff 15 00 00 00
	00		 call	 DWORD PTR __imp_?ClearAllActionAni@ioEntityGroup@@QAEXM_N@Z

; 515  : 
; 516  : 	int iAniID	     = pGrp->GetAnimationIdx(m_AttackInfo.m_ReloadAni );

  000d1	8d 86 58 20 00
	00		 lea	 eax, DWORD PTR [esi+8280]
  000d7	50		 push	 eax
  000d8	8b cb		 mov	 ecx, ebx
  000da	ff 15 00 00 00
	00		 call	 DWORD PTR __imp_?GetAnimationIdx@ioEntityGroup@@QAEHABVioHashString@@@Z

; 517  : 	float fTimeRate  = m_AttackInfo.m_fReloadAniRate;

  000e0	d9 86 68 20 00
	00		 fld	 DWORD PTR [esi+8296]
  000e6	d9 9d c8 7f ff
	ff		 fstp	 DWORD PTR _fTimeRate$[ebp]
  000ec	89 85 c4 7f ff
	ff		 mov	 DWORD PTR _iAniID$[ebp], eax

; 518  : 
; 519  : 	pGrp->SetActionAni( iAniID, FLOAT100, FLOAT100, FLOAT1, FLOAT1/fTimeRate, 0.0f, 0.0f, true );

  000f2	b8 01 00 00 00	 mov	 eax, 1
  000f7	8b c8		 mov	 ecx, eax
  000f9	b8 01 00 00 00	 mov	 eax, 1
  000fe	8b d0		 mov	 edx, eax
  00100	b8 64 00 00 00	 mov	 eax, 100		; 00000064H
  00105	89 85 d4 7f ff
	ff		 mov	 DWORD PTR $T554751[ebp], eax
  0010b	b8 64 00 00 00	 mov	 eax, 100		; 00000064H
  00110	0f 57 c0	 xorps	 xmm0, xmm0
  00113	6a 01		 push	 1
  00115	6a 01		 push	 1
  00117	83 ec 18	 sub	 esp, 24			; 00000018H
  0011a	89 8d d0 7f ff
	ff		 mov	 DWORD PTR tv245[ebp], ecx
  00120	db 85 d0 7f ff
	ff		 fild	 DWORD PTR tv245[ebp]
  00126	f3 0f 11 44 24
	14		 movss	 DWORD PTR [esp+20], xmm0
  0012c	f3 0f 11 44 24
	10		 movss	 DWORD PTR [esp+16], xmm0
  00132	85 c9		 test	 ecx, ecx
  00134	79 06		 jns	 SHORT $LN28@ChangeRelo
  00136	d8 05 00 00 00
	00		 fadd	 DWORD PTR __real@4f800000
$LN28@ChangeRelo:
  0013c	d8 b5 c8 7f ff
	ff		 fdiv	 DWORD PTR _fTimeRate$[ebp]
  00142	d9 9d d0 7f ff
	ff		 fstp	 DWORD PTR tv242[ebp]
  00148	d9 85 d0 7f ff
	ff		 fld	 DWORD PTR tv242[ebp]
  0014e	d9 5c 24 0c	 fstp	 DWORD PTR [esp+12]
  00152	89 95 d0 7f ff
	ff		 mov	 DWORD PTR tv240[ebp], edx
  00158	db 85 d0 7f ff
	ff		 fild	 DWORD PTR tv240[ebp]
  0015e	85 d2		 test	 edx, edx
  00160	79 06		 jns	 SHORT $LN29@ChangeRelo
  00162	d8 05 00 00 00
	00		 fadd	 DWORD PTR __real@4f800000
$LN29@ChangeRelo:
  00168	8b 8d d4 7f ff
	ff		 mov	 ecx, DWORD PTR $T554751[ebp]
  0016e	d9 5c 24 08	 fstp	 DWORD PTR [esp+8]
  00172	db 85 d4 7f ff
	ff		 fild	 DWORD PTR $T554751[ebp]
  00178	85 c9		 test	 ecx, ecx
  0017a	79 06		 jns	 SHORT $LN30@ChangeRelo
  0017c	d8 05 00 00 00
	00		 fadd	 DWORD PTR __real@4f800000
$LN30@ChangeRelo:
  00182	89 85 d4 7f ff
	ff		 mov	 DWORD PTR tv236[ebp], eax
  00188	d9 5c 24 04	 fstp	 DWORD PTR [esp+4]
  0018c	db 85 d4 7f ff
	ff		 fild	 DWORD PTR tv236[ebp]
  00192	85 c0		 test	 eax, eax
  00194	79 06		 jns	 SHORT $LN31@ChangeRelo
  00196	d8 05 00 00 00
	00		 fadd	 DWORD PTR __real@4f800000
$LN31@ChangeRelo:
  0019c	d9 1c 24	 fstp	 DWORD PTR [esp]
  0019f	ff b5 c4 7f ff
	ff		 push	 DWORD PTR _iAniID$[ebp]
  001a5	8b cb		 mov	 ecx, ebx
  001a7	ff 15 00 00 00
	00		 call	 DWORD PTR __imp_?SetActionAni@ioEntityGroup@@QAE_NHMMMMMM_N0@Z

; 520  : 
; 521  : 	m_dwMotionEndTime = dwCurTime + pGrp->GetAnimationFullTime( iAniID ) * fTimeRate;

  001ad	ff b5 c4 7f ff
	ff		 push	 DWORD PTR _iAniID$[ebp]
  001b3	8b cb		 mov	 ecx, ebx
  001b5	ff 15 00 00 00
	00		 call	 DWORD PTR __imp_?GetAnimationFullTime@ioEntityGroup@@QAEMH@Z
  001bb	d8 8d c8 7f ff
	ff		 fmul	 DWORD PTR _fTimeRate$[ebp]
  001c1	8b 85 cc 7f ff
	ff		 mov	 eax, DWORD PTR _dwCurTime$[ebp]
  001c7	db 85 cc 7f ff
	ff		 fild	 DWORD PTR _dwCurTime$[ebp]
  001cd	85 c0		 test	 eax, eax
  001cf	79 06		 jns	 SHORT $LN32@ChangeRelo
  001d1	d8 05 00 00 00
	00		 fadd	 DWORD PTR __real@4f800000
$LN32@ChangeRelo:
  001d7	de c1		 faddp	 ST(1), ST(0)
  001d9	e8 00 00 00 00	 call	 __ftol2
  001de	89 86 fc 20 00
	00		 mov	 DWORD PTR [esi+8444], eax

; 522  : 
; 523  : 	if( pOwner->IsNeedProcess() )

  001e4	8b 07		 mov	 eax, DWORD PTR [edi]
  001e6	8b cf		 mov	 ecx, edi
  001e8	ff 90 00 01 00
	00		 call	 DWORD PTR [eax+256]
  001ee	84 c0		 test	 al, al
  001f0	0f 84 95 00 00
	00		 je	 $LN1@ChangeRelo

; 524  : 	{
; 525  : 		SP2Packet kPacket( CUPK_ITEM_GAUGE_CANCEL );

  001f6	68 28 41 00 00	 push	 16680			; 00004128H
  001fb	8d 8d d8 7f ff
	ff		 lea	 ecx, DWORD PTR _kPacket$550924[ebp]
  00201	e8 00 00 00 00	 call	 ??0SP2Packet@@QAE@K@Z	; SP2Packet::SP2Packet
  00206	83 65 fc 00	 and	 DWORD PTR __$EHRec$[ebp+8], 0

; 526  : 		FillItemGaugePacketHeader( pOwner, kPacket );

  0020a	8d 85 d8 7f ff
	ff		 lea	 eax, DWORD PTR _kPacket$550924[ebp]
  00210	50		 push	 eax
  00211	57		 push	 edi
  00212	8b ce		 mov	 ecx, esi
  00214	e8 00 00 00 00	 call	 ?FillItemGaugePacketHeader@ioAttackableItem@@QAEXPAVioBaseChar@@AAVSP2Packet@@@Z ; ioAttackableItem::FillItemGaugePacketHeader

; 527  : 		kPacket << SST_RELOAD;

  00219	6a 02		 push	 2
  0021b	8d 8d d8 7f ff
	ff		 lea	 ecx, DWORD PTR _kPacket$550924[ebp]
  00221	e8 00 00 00 00	 call	 ??6SP2Packet@@QAEAAV0@H@Z ; SP2Packet::operator<<

; 528  : 		kPacket << m_State;

  00226	ff b6 84 19 00
	00		 push	 DWORD PTR [esi+6532]
  0022c	8d 8d d8 7f ff
	ff		 lea	 ecx, DWORD PTR _kPacket$550924[ebp]
  00232	e8 00 00 00 00	 call	 ??6SP2Packet@@QAEAAV0@H@Z ; SP2Packet::operator<<

; 529  : 		kPacket << pOwner->GetTargetRot();

  00237	81 c7 a4 06 00
	00		 add	 edi, 1700		; 000006a4H
  0023d	57		 push	 edi
  0023e	8d 8d d8 7f ff
	ff		 lea	 ecx, DWORD PTR _kPacket$550924[ebp]
  00244	e8 00 00 00 00	 call	 ??6SP2Packet@@QAEAAV0@ABUD3DXQUATERNION@@@Z ; SP2Packet::operator<<

; 530  : 		kPacket << m_fCurGauge;

  00249	8d 86 9c 20 00
	00		 lea	 eax, DWORD PTR [esi+8348]
  0024f	50		 push	 eax
  00250	8d 8d d8 7f ff
	ff		 lea	 ecx, DWORD PTR _kPacket$550924[ebp]
  00256	e8 00 00 00 00	 call	 ??6SP2Packet@@QAEAAV0@AAV?$CEncrypt@M@@@Z ; SP2Packet::operator<<

; 531  : 		kPacket << m_nWeaponIndex;

  0025b	ff b6 00 21 00
	00		 push	 DWORD PTR [esi+8448]
  00261	8d 8d d8 7f ff
	ff		 lea	 ecx, DWORD PTR _kPacket$550924[ebp]
  00267	e8 00 00 00 00	 call	 ??6SP2Packet@@QAEAAV0@H@Z ; SP2Packet::operator<<

; 532  : 		P2PNetwork::SendToAllPlayingUser( kPacket );

  0026c	8d 85 d8 7f ff
	ff		 lea	 eax, DWORD PTR _kPacket$550924[ebp]
  00272	6a 00		 push	 0
  00274	50		 push	 eax
  00275	e8 00 00 00 00	 call	 ?SendToAllPlayingUser@P2PNetwork@@YAXAAVSP2Packet@@PAVioBaseChar@@@Z ; P2PNetwork::SendToAllPlayingUser

; 533  : 	}

  0027a	83 4d fc ff	 or	 DWORD PTR __$EHRec$[ebp+8], -1
  0027e	59		 pop	 ecx
  0027f	59		 pop	 ecx
  00280	8d 8d d8 7f ff
	ff		 lea	 ecx, DWORD PTR _kPacket$550924[ebp]
  00286	e8 00 00 00 00	 call	 ??1SP2Packet@@UAE@XZ	; SP2Packet::~SP2Packet
$LN1@ChangeRelo:

; 534  : }

  0028b	8b 4d f4	 mov	 ecx, DWORD PTR __$EHRec$[ebp]
  0028e	64 89 0d 00 00
	00 00		 mov	 DWORD PTR fs:0, ecx
  00295	59		 pop	 ecx
  00296	5f		 pop	 edi
  00297	5e		 pop	 esi
  00298	5b		 pop	 ebx
  00299	8b 4d f0	 mov	 ecx, DWORD PTR __$ArrayPad$[ebp]
  0029c	33 cd		 xor	 ecx, ebp
  0029e	e8 00 00 00 00	 call	 @__security_check_cookie@4
  002a3	c9		 leave
  002a4	c2 04 00	 ret	 4
_TEXT	ENDS
;	COMDAT text$x
text$x	SEGMENT
__unwindfunclet$?ChangeReloadState@ioTrinityItem@@IAEXPAVioBaseChar@@@Z$0:
  00000	8d 8d d8 7f ff
	ff		 lea	 ecx, DWORD PTR _kPacket$550924[ebp]
  00006	e9 00 00 00 00	 jmp	 ??1SP2Packet@@UAE@XZ	; SP2Packet::~SP2Packet
__ehhandler$?ChangeReloadState@ioTrinityItem@@IAEXPAVioBaseChar@@@Z:
  0000b	8b 54 24 08	 mov	 edx, DWORD PTR [esp+8]
  0000f	8d 42 0c	 lea	 eax, DWORD PTR [edx+12]
  00012	8b 8a c0 7f ff
	ff		 mov	 ecx, DWORD PTR [edx-32832]
  00018	33 c8		 xor	 ecx, eax
  0001a	e8 00 00 00 00	 call	 @__security_check_cookie@4
  0001f	8b 4a fc	 mov	 ecx, DWORD PTR [edx-4]
  00022	33 c8		 xor	 ecx, eax
  00024	e8 00 00 00 00	 call	 @__security_check_cookie@4
  00029	b8 00 00 00 00	 mov	 eax, OFFSET __ehfuncinfo$?ChangeReloadState@ioTrinityItem@@IAEXPAVioBaseChar@@@Z
  0002e	e9 00 00 00 00	 jmp	 ___CxxFrameHandler3
text$x	ENDS
?ChangeReloadState@ioTrinityItem@@IAEXPAVioBaseChar@@@Z ENDP ; ioTrinityItem::ChangeReloadState
PUBLIC	?AddEntityAndEffect@ioTrinityItem@@QAEXPAVioBaseChar@@_N@Z ; ioTrinityItem::AddEntityAndEffect
EXTRN	__imp_?GetUniqueID@ioMovableObject@@QBEKXZ:PROC
EXTRN	?AttachEffect@ioBaseChar@@QAEPAVioEffect@@ABVioHashString@@PAVioEntityEvent@@_N@Z:PROC ; ioBaseChar::AttachEffect
EXTRN	__imp_?IsEmpty@ioHashString@@QBE_NXZ:PROC
;	COMDAT xdata$x
; File c:\program files (x86)\microsoft visual studio 10.0\vc\include\vector
xdata$x	SEGMENT
__ehfuncinfo$?AddEntityAndEffect@ioTrinityItem@@QAEXPAVioBaseChar@@_N@Z DD 019930522H
	DD	06H
	DD	FLAT:__unwindtable$?AddEntityAndEffect@ioTrinityItem@@QAEXPAVioBaseChar@@_N@Z
	DD	2 DUP(00H)
	DD	2 DUP(00H)
	DD	00H
	DD	01H
__unwindtable$?AddEntityAndEffect@ioTrinityItem@@QAEXPAVioBaseChar@@_N@Z DD 0ffffffffH
	DD	FLAT:__unwindfunclet$?AddEntityAndEffect@ioTrinityItem@@QAEXPAVioBaseChar@@_N@Z$0
	DD	0ffffffffH
	DD	FLAT:__unwindfunclet$?AddEntityAndEffect@ioTrinityItem@@QAEXPAVioBaseChar@@_N@Z$1
	DD	0ffffffffH
	DD	FLAT:__unwindfunclet$?AddEntityAndEffect@ioTrinityItem@@QAEXPAVioBaseChar@@_N@Z$2
	DD	0ffffffffH
	DD	FLAT:__unwindfunclet$?AddEntityAndEffect@ioTrinityItem@@QAEXPAVioBaseChar@@_N@Z$3
	DD	0ffffffffH
	DD	FLAT:__unwindfunclet$?AddEntityAndEffect@ioTrinityItem@@QAEXPAVioBaseChar@@_N@Z$4
	DD	0ffffffffH
	DD	FLAT:__unwindfunclet$?AddEntityAndEffect@ioTrinityItem@@QAEXPAVioBaseChar@@_N@Z$5
; Function compile flags: /Ogsp
; File d:\lost saga for developer\youtube\tutorial\source\src\lsclient\iotrinityitem.cpp
xdata$x	ENDS
;	COMDAT ?AddEntityAndEffect@ioTrinityItem@@QAEXPAVioBaseChar@@_N@Z
_TEXT	SEGMENT
_szMeshName$551242 = -80				; size = 16
_szMeshName$551231 = -64				; size = 16
_szMeshName$551220 = -64				; size = 16
_szEffectName$551243 = -48				; size = 16
_szEffectName$551232 = -32				; size = 16
_szEffectName$551221 = -32				; size = 16
tv322 = -16						; size = 4
__$EHRec$ = -12						; size = 12
tv227 = 8						; size = 4
tv192 = 8						; size = 4
_pOwner$ = 8						; size = 4
tv512 = 12						; size = 4
tv498 = 12						; size = 4
tv484 = 12						; size = 4
_bJumpAttack$ = 12					; size = 1
?AddEntityAndEffect@ioTrinityItem@@QAEXPAVioBaseChar@@_N@Z PROC ; ioTrinityItem::AddEntityAndEffect, COMDAT
; _this$ = ecx

; 992  : {

  00000	6a 44		 push	 68			; 00000044H
  00002	b8 00 00 00 00	 mov	 eax, __ehhandler$?AddEntityAndEffect@ioTrinityItem@@QAEXPAVioBaseChar@@_N@Z
  00007	e8 00 00 00 00	 call	 __EH_prolog3
  0000c	8b f1		 mov	 esi, ecx

; 993  : 	if( bJumpAttack == false )

  0000e	80 7d 0c 00	 cmp	 BYTE PTR _bJumpAttack$[ebp], 0
  00012	0f 85 a1 01 00
	00		 jne	 $LN19@AddEntityA

; 994  : 	{
; 995  : 		// add mesh
; 996  : 		if( m_State == TS_SPECIAL_FULL_CHARGE )

  00018	83 be 84 19 00
	00 03		 cmp	 DWORD PTR [esi+6532], 3
  0001f	8b 5d 08	 mov	 ebx, DWORD PTR _pOwner$[ebp]
  00022	8b 3d 00 00 00
	00		 mov	 edi, DWORD PTR __imp_??0ioHashString@@QAE@ABV0@@Z
  00028	0f 85 c0 00 00
	00		 jne	 $LN18@AddEntityA

; 997  : 		{
; 998  : 			int iMeshCnt = m_AttackInfo.m_AddFullMesh[m_nWeaponIndex].size();

  0002e	8b 86 00 21 00
	00		 mov	 eax, DWORD PTR [esi+8448]
  00034	05 d5 01 00 00	 add	 eax, 469		; 000001d5H
  00039	03 c0		 add	 eax, eax
  0003b	8b 4c c6 04	 mov	 ecx, DWORD PTR [esi+eax*8+4]
  0003f	2b 0c c6	 sub	 ecx, DWORD PTR [esi+eax*8]
  00042	c1 f9 04	 sar	 ecx, 4

; 999  : 			for( int i=0; i < iMeshCnt; ++i )

  00045	85 c9		 test	 ecx, ecx
  00047	7e 4c		 jle	 SHORT $LN15@AddEntityA

; 997  : 		{
; 998  : 			int iMeshCnt = m_AttackInfo.m_AddFullMesh[m_nWeaponIndex].size();

  00049	83 65 0c 00	 and	 DWORD PTR tv484[ebp], 0
  0004d	89 4d 08	 mov	 DWORD PTR tv227[ebp], ecx
$LN17@AddEntityA:

; 1000 : 			{
; 1001 : 				ioHashString szMeshName = (m_AttackInfo.m_AddFullMesh[m_nWeaponIndex])[i];

  00050	8b 86 00 21 00
	00		 mov	 eax, DWORD PTR [esi+8448]
  00056	05 d5 01 00 00	 add	 eax, 469		; 000001d5H
  0005b	03 c0		 add	 eax, eax
  0005d	8b 04 c6	 mov	 eax, DWORD PTR [esi+eax*8]
  00060	03 45 0c	 add	 eax, DWORD PTR tv484[ebp]
  00063	8d 4d c0	 lea	 ecx, DWORD PTR _szMeshName$551220[ebp]
  00066	50		 push	 eax
  00067	ff d7		 call	 edi

; 1002 : 				pOwner->AddEntity( szMeshName );

  00069	8b 03		 mov	 eax, DWORD PTR [ebx]
  0006b	83 65 fc 00	 and	 DWORD PTR __$EHRec$[ebp+8], 0
  0006f	8d 4d c0	 lea	 ecx, DWORD PTR _szMeshName$551220[ebp]
  00072	51		 push	 ecx
  00073	8b cb		 mov	 ecx, ebx
  00075	ff 50 2c	 call	 DWORD PTR [eax+44]

; 1003 : 
; 1004 : 				m_bVisibleMesh = true;
; 1005 : 			}

  00078	83 4d fc ff	 or	 DWORD PTR __$EHRec$[ebp+8], -1
  0007c	8d 4d c0	 lea	 ecx, DWORD PTR _szMeshName$551220[ebp]
  0007f	c6 86 54 19 00
	00 01		 mov	 BYTE PTR [esi+6484], 1
  00086	ff 15 00 00 00
	00		 call	 DWORD PTR __imp_??1ioHashString@@QAE@XZ
  0008c	83 45 0c 10	 add	 DWORD PTR tv484[ebp], 16 ; 00000010H
  00090	ff 4d 08	 dec	 DWORD PTR tv227[ebp]
  00093	75 bb		 jne	 SHORT $LN17@AddEntityA
$LN15@AddEntityA:

; 1006 : 
; 1007 : 			ioHashString szEffectName = m_AttackInfo.m_AddFullEffect[m_nWeaponIndex];

  00095	8b 86 00 21 00
	00		 mov	 eax, DWORD PTR [esi+8448]
  0009b	05 ed 01 00 00	 add	 eax, 493		; 000001edH
  000a0	c1 e0 04	 shl	 eax, 4
  000a3	03 c6		 add	 eax, esi
  000a5	50		 push	 eax
  000a6	8d 4d e0	 lea	 ecx, DWORD PTR _szEffectName$551221[ebp]
  000a9	ff d7		 call	 edi

; 1008 : 			if( !szEffectName.IsEmpty() )

  000ab	8d 4d e0	 lea	 ecx, DWORD PTR _szEffectName$551221[ebp]
  000ae	c7 45 fc 01 00
	00 00		 mov	 DWORD PTR __$EHRec$[ebp+8], 1
  000b5	ff 15 00 00 00
	00		 call	 DWORD PTR __imp_?IsEmpty@ioHashString@@QBE_NXZ
  000bb	84 c0		 test	 al, al
  000bd	75 22		 jne	 SHORT $LN13@AddEntityA

; 1009 : 			{
; 1010 : 				ioEffect *pEffect = pOwner->AttachEffect(szEffectName);

  000bf	6a 01		 push	 1
  000c1	6a 00		 push	 0
  000c3	8d 45 e0	 lea	 eax, DWORD PTR _szEffectName$551221[ebp]
  000c6	50		 push	 eax
  000c7	8b cb		 mov	 ecx, ebx
  000c9	e8 00 00 00 00	 call	 ?AttachEffect@ioBaseChar@@QAEPAVioEffect@@ABVioHashString@@PAVioEntityEvent@@_N@Z ; ioBaseChar::AttachEffect

; 1011 : 				if( pEffect )

  000ce	85 c0		 test	 eax, eax
  000d0	74 0f		 je	 SHORT $LN13@AddEntityA

; 1012 : 				{
; 1013 : 					m_dwEffect = pEffect->GetUniqueID();

  000d2	8d 48 14	 lea	 ecx, DWORD PTR [eax+20]
  000d5	ff 15 00 00 00
	00		 call	 DWORD PTR __imp_?GetUniqueID@ioMovableObject@@QBEKXZ
  000db	89 86 08 21 00
	00		 mov	 DWORD PTR [esi+8456], eax
$LN13@AddEntityA:

; 1014 : 				}
; 1015 : 			}
; 1016 : 		}

  000e1	83 4d fc ff	 or	 DWORD PTR __$EHRec$[ebp+8], -1
  000e5	8d 4d e0	 lea	 ecx, DWORD PTR _szEffectName$551221[ebp]
  000e8	ff 15 00 00 00
	00		 call	 DWORD PTR __imp_??1ioHashString@@QAE@XZ
$LN18@AddEntityA:

; 1017 : 
; 1018 : 		if( m_State == TS_SPECIAL_NONE_CHARGE )

  000ee	83 be 84 19 00
	00 02		 cmp	 DWORD PTR [esi+6532], 2
  000f5	0f 85 88 01 00
	00		 jne	 $LN6@AddEntityA

; 1019 : 		{
; 1020 : 			int iMeshCnt = m_AttackInfo.m_AddNoneMesh[m_nWeaponIndex].size();

  000fb	8b 86 00 21 00
	00		 mov	 eax, DWORD PTR [esi+8448]
  00101	05 db 01 00 00	 add	 eax, 475		; 000001dbH
  00106	03 c0		 add	 eax, eax
  00108	8b 4c c6 04	 mov	 ecx, DWORD PTR [esi+eax*8+4]
  0010c	2b 0c c6	 sub	 ecx, DWORD PTR [esi+eax*8]
  0010f	c1 f9 04	 sar	 ecx, 4

; 1021 : 			for( int i=0; i < iMeshCnt; ++i )

  00112	85 c9		 test	 ecx, ecx
  00114	7e 4f		 jle	 SHORT $LN9@AddEntityA

; 1019 : 		{
; 1020 : 			int iMeshCnt = m_AttackInfo.m_AddNoneMesh[m_nWeaponIndex].size();

  00116	83 65 0c 00	 and	 DWORD PTR tv498[ebp], 0
  0011a	89 4d 08	 mov	 DWORD PTR tv192[ebp], ecx
$LN11@AddEntityA:

; 1022 : 			{
; 1023 : 				ioHashString szMeshName = (m_AttackInfo.m_AddNoneMesh[m_nWeaponIndex])[i];

  0011d	8b 86 00 21 00
	00		 mov	 eax, DWORD PTR [esi+8448]
  00123	05 db 01 00 00	 add	 eax, 475		; 000001dbH
  00128	03 c0		 add	 eax, eax
  0012a	8b 04 c6	 mov	 eax, DWORD PTR [esi+eax*8]
  0012d	03 45 0c	 add	 eax, DWORD PTR tv498[ebp]
  00130	8d 4d c0	 lea	 ecx, DWORD PTR _szMeshName$551231[ebp]
  00133	50		 push	 eax
  00134	ff d7		 call	 edi

; 1024 : 				pOwner->AddEntity( szMeshName );

  00136	8b 03		 mov	 eax, DWORD PTR [ebx]
  00138	8d 4d c0	 lea	 ecx, DWORD PTR _szMeshName$551231[ebp]
  0013b	51		 push	 ecx
  0013c	8b cb		 mov	 ecx, ebx
  0013e	c7 45 fc 02 00
	00 00		 mov	 DWORD PTR __$EHRec$[ebp+8], 2
  00145	ff 50 2c	 call	 DWORD PTR [eax+44]

; 1025 : 
; 1026 : 				m_bVisibleMesh = true;
; 1027 : 			}

  00148	83 4d fc ff	 or	 DWORD PTR __$EHRec$[ebp+8], -1
  0014c	8d 4d c0	 lea	 ecx, DWORD PTR _szMeshName$551231[ebp]
  0014f	c6 86 54 19 00
	00 01		 mov	 BYTE PTR [esi+6484], 1
  00156	ff 15 00 00 00
	00		 call	 DWORD PTR __imp_??1ioHashString@@QAE@XZ
  0015c	83 45 0c 10	 add	 DWORD PTR tv498[ebp], 16 ; 00000010H
  00160	ff 4d 08	 dec	 DWORD PTR tv192[ebp]
  00163	75 b8		 jne	 SHORT $LN11@AddEntityA
$LN9@AddEntityA:

; 1028 : 
; 1029 : 			ioHashString szEffectName = m_AttackInfo.m_AddNoneEffect[m_nWeaponIndex];

  00165	8b 86 00 21 00
	00		 mov	 eax, DWORD PTR [esi+8448]
  0016b	05 f3 01 00 00	 add	 eax, 499		; 000001f3H
  00170	c1 e0 04	 shl	 eax, 4
  00173	03 c6		 add	 eax, esi
  00175	50		 push	 eax
  00176	8d 4d e0	 lea	 ecx, DWORD PTR _szEffectName$551232[ebp]
  00179	ff d7		 call	 edi

; 1030 : 			if( !szEffectName.IsEmpty() )

  0017b	8d 4d e0	 lea	 ecx, DWORD PTR _szEffectName$551232[ebp]
  0017e	c7 45 fc 03 00
	00 00		 mov	 DWORD PTR __$EHRec$[ebp+8], 3
  00185	ff 15 00 00 00
	00		 call	 DWORD PTR __imp_?IsEmpty@ioHashString@@QBE_NXZ
  0018b	84 c0		 test	 al, al
  0018d	75 22		 jne	 SHORT $LN7@AddEntityA

; 1031 : 			{
; 1032 : 				ioEffect *pEffect = pOwner->AttachEffect(szEffectName);

  0018f	6a 01		 push	 1
  00191	6a 00		 push	 0
  00193	8d 45 e0	 lea	 eax, DWORD PTR _szEffectName$551232[ebp]
  00196	50		 push	 eax
  00197	8b cb		 mov	 ecx, ebx
  00199	e8 00 00 00 00	 call	 ?AttachEffect@ioBaseChar@@QAEPAVioEffect@@ABVioHashString@@PAVioEntityEvent@@_N@Z ; ioBaseChar::AttachEffect

; 1033 : 				if( pEffect )

  0019e	85 c0		 test	 eax, eax
  001a0	74 0f		 je	 SHORT $LN7@AddEntityA

; 1034 : 				{
; 1035 : 					m_dwEffect = pEffect->GetUniqueID();

  001a2	8d 48 14	 lea	 ecx, DWORD PTR [eax+20]
  001a5	ff 15 00 00 00
	00		 call	 DWORD PTR __imp_?GetUniqueID@ioMovableObject@@QBEKXZ
  001ab	89 86 08 21 00
	00		 mov	 DWORD PTR [esi+8456], eax
$LN7@AddEntityA:

; 1036 : 				}
; 1037 : 			}
; 1038 : 		}

  001b1	8d 4d e0	 lea	 ecx, DWORD PTR _szEffectName$551232[ebp]

; 1039 : 	}
; 1040 : 	else

  001b4	e9 c0 00 00 00	 jmp	 $LN50@AddEntityA
$LN19@AddEntityA:

; 1041 : 	{
; 1042 : 		int iMeshCnt = m_AttackInfo.m_AddNoneMeshForJump[m_nWeaponIndex].size();

  001b9	8b 86 00 21 00
	00		 mov	 eax, DWORD PTR [esi+8448]

; 1043 : 		for( int i=0; i < iMeshCnt; ++i )

  001bf	8b 1d 00 00 00
	00		 mov	 ebx, DWORD PTR __imp_??0ioHashString@@QAE@ABV0@@Z
  001c5	bf e1 01 00 00	 mov	 edi, 481		; 000001e1H
  001ca	03 c7		 add	 eax, edi
  001cc	03 c0		 add	 eax, eax
  001ce	8b 4c c6 04	 mov	 ecx, DWORD PTR [esi+eax*8+4]
  001d2	2b 0c c6	 sub	 ecx, DWORD PTR [esi+eax*8]
  001d5	c1 f9 04	 sar	 ecx, 4
  001d8	85 c9		 test	 ecx, ecx
  001da	7e 4d		 jle	 SHORT $LN3@AddEntityA

; 1041 : 	{
; 1042 : 		int iMeshCnt = m_AttackInfo.m_AddNoneMeshForJump[m_nWeaponIndex].size();

  001dc	83 65 0c 00	 and	 DWORD PTR tv512[ebp], 0
  001e0	89 4d f0	 mov	 DWORD PTR tv322[ebp], ecx
$LN5@AddEntityA:

; 1044 : 		{
; 1045 : 			ioHashString szMeshName = (m_AttackInfo.m_AddNoneMeshForJump[m_nWeaponIndex])[i];

  001e3	8b 86 00 21 00
	00		 mov	 eax, DWORD PTR [esi+8448]
  001e9	03 c7		 add	 eax, edi
  001eb	03 c0		 add	 eax, eax
  001ed	8b 04 c6	 mov	 eax, DWORD PTR [esi+eax*8]
  001f0	03 45 0c	 add	 eax, DWORD PTR tv512[ebp]
  001f3	8d 4d b0	 lea	 ecx, DWORD PTR _szMeshName$551242[ebp]
  001f6	50		 push	 eax
  001f7	ff d3		 call	 ebx

; 1046 : 			pOwner->AddEntity( szMeshName );

  001f9	8b 4d 08	 mov	 ecx, DWORD PTR _pOwner$[ebp]
  001fc	8b 01		 mov	 eax, DWORD PTR [ecx]
  001fe	8d 55 b0	 lea	 edx, DWORD PTR _szMeshName$551242[ebp]
  00201	52		 push	 edx
  00202	c7 45 fc 04 00
	00 00		 mov	 DWORD PTR __$EHRec$[ebp+8], 4
  00209	ff 50 2c	 call	 DWORD PTR [eax+44]

; 1047 : 
; 1048 : 			m_bVisibleMesh = true;
; 1049 : 		}

  0020c	83 4d fc ff	 or	 DWORD PTR __$EHRec$[ebp+8], -1
  00210	8d 4d b0	 lea	 ecx, DWORD PTR _szMeshName$551242[ebp]
  00213	c6 86 54 19 00
	00 01		 mov	 BYTE PTR [esi+6484], 1
  0021a	ff 15 00 00 00
	00		 call	 DWORD PTR __imp_??1ioHashString@@QAE@XZ
  00220	83 45 0c 10	 add	 DWORD PTR tv512[ebp], 16 ; 00000010H
  00224	ff 4d f0	 dec	 DWORD PTR tv322[ebp]
  00227	75 ba		 jne	 SHORT $LN5@AddEntityA
$LN3@AddEntityA:

; 1050 : 
; 1051 : 		ioHashString szEffectName = m_AttackInfo.m_AddNoneEffectForJump[m_nWeaponIndex];

  00229	8b 86 00 21 00
	00		 mov	 eax, DWORD PTR [esi+8448]
  0022f	05 f9 01 00 00	 add	 eax, 505		; 000001f9H
  00234	c1 e0 04	 shl	 eax, 4
  00237	03 c6		 add	 eax, esi
  00239	50		 push	 eax
  0023a	8d 4d d0	 lea	 ecx, DWORD PTR _szEffectName$551243[ebp]
  0023d	ff d3		 call	 ebx

; 1052 : 		if( !szEffectName.IsEmpty() )

  0023f	8d 4d d0	 lea	 ecx, DWORD PTR _szEffectName$551243[ebp]
  00242	c7 45 fc 05 00
	00 00		 mov	 DWORD PTR __$EHRec$[ebp+8], 5
  00249	ff 15 00 00 00
	00		 call	 DWORD PTR __imp_?IsEmpty@ioHashString@@QBE_NXZ
  0024f	84 c0		 test	 al, al
  00251	75 23		 jne	 SHORT $LN1@AddEntityA

; 1053 : 		{
; 1054 : 			ioEffect *pEffect = pOwner->AttachEffect(szEffectName);

  00253	8b 4d 08	 mov	 ecx, DWORD PTR _pOwner$[ebp]
  00256	6a 01		 push	 1
  00258	6a 00		 push	 0
  0025a	8d 45 d0	 lea	 eax, DWORD PTR _szEffectName$551243[ebp]
  0025d	50		 push	 eax
  0025e	e8 00 00 00 00	 call	 ?AttachEffect@ioBaseChar@@QAEPAVioEffect@@ABVioHashString@@PAVioEntityEvent@@_N@Z ; ioBaseChar::AttachEffect

; 1055 : 			if( pEffect )

  00263	85 c0		 test	 eax, eax
  00265	74 0f		 je	 SHORT $LN1@AddEntityA

; 1056 : 			{
; 1057 : 				m_dwEffect = pEffect->GetUniqueID();

  00267	8d 48 14	 lea	 ecx, DWORD PTR [eax+20]
  0026a	ff 15 00 00 00
	00		 call	 DWORD PTR __imp_?GetUniqueID@ioMovableObject@@QBEKXZ
  00270	89 86 08 21 00
	00		 mov	 DWORD PTR [esi+8456], eax
$LN1@AddEntityA:

; 1058 : 			}
; 1059 : 		}
; 1060 : 	}

  00276	8d 4d d0	 lea	 ecx, DWORD PTR _szEffectName$551243[ebp]
$LN50@AddEntityA:
  00279	83 4d fc ff	 or	 DWORD PTR __$EHRec$[ebp+8], -1
  0027d	ff 15 00 00 00
	00		 call	 DWORD PTR __imp_??1ioHashString@@QAE@XZ
$LN6@AddEntityA:

; 1061 : }

  00283	e8 00 00 00 00	 call	 __EH_epilog3
  00288	c2 08 00	 ret	 8
_TEXT	ENDS
;	COMDAT text$x
text$x	SEGMENT
__unwindfunclet$?AddEntityAndEffect@ioTrinityItem@@QAEXPAVioBaseChar@@_N@Z$0:
  00000	8d 4d c0	 lea	 ecx, DWORD PTR _szMeshName$551220[ebp]
  00003	ff 25 00 00 00
	00		 jmp	 DWORD PTR __imp_??1ioHashString@@QAE@XZ
__unwindfunclet$?AddEntityAndEffect@ioTrinityItem@@QAEXPAVioBaseChar@@_N@Z$1:
  00009	8d 4d e0	 lea	 ecx, DWORD PTR _szEffectName$551221[ebp]
  0000c	ff 25 00 00 00
	00		 jmp	 DWORD PTR __imp_??1ioHashString@@QAE@XZ
__unwindfunclet$?AddEntityAndEffect@ioTrinityItem@@QAEXPAVioBaseChar@@_N@Z$2:
  00012	8d 4d c0	 lea	 ecx, DWORD PTR _szMeshName$551231[ebp]
  00015	ff 25 00 00 00
	00		 jmp	 DWORD PTR __imp_??1ioHashString@@QAE@XZ
__unwindfunclet$?AddEntityAndEffect@ioTrinityItem@@QAEXPAVioBaseChar@@_N@Z$3:
  0001b	8d 4d e0	 lea	 ecx, DWORD PTR _szEffectName$551232[ebp]
  0001e	ff 25 00 00 00
	00		 jmp	 DWORD PTR __imp_??1ioHashString@@QAE@XZ
__unwindfunclet$?AddEntityAndEffect@ioTrinityItem@@QAEXPAVioBaseChar@@_N@Z$4:
  00024	8d 4d b0	 lea	 ecx, DWORD PTR _szMeshName$551242[ebp]
  00027	ff 25 00 00 00
	00		 jmp	 DWORD PTR __imp_??1ioHashString@@QAE@XZ
__unwindfunclet$?AddEntityAndEffect@ioTrinityItem@@QAEXPAVioBaseChar@@_N@Z$5:
  0002d	8d 4d d0	 lea	 ecx, DWORD PTR _szEffectName$551243[ebp]
  00030	ff 25 00 00 00
	00		 jmp	 DWORD PTR __imp_??1ioHashString@@QAE@XZ
__ehhandler$?AddEntityAndEffect@ioTrinityItem@@QAEXPAVioBaseChar@@_N@Z:
  00036	8b 54 24 08	 mov	 edx, DWORD PTR [esp+8]
  0003a	8d 42 0c	 lea	 eax, DWORD PTR [edx+12]
  0003d	8b 4a ac	 mov	 ecx, DWORD PTR [edx-84]
  00040	33 c8		 xor	 ecx, eax
  00042	e8 00 00 00 00	 call	 @__security_check_cookie@4
  00047	b8 00 00 00 00	 mov	 eax, OFFSET __ehfuncinfo$?AddEntityAndEffect@ioTrinityItem@@QAEXPAVioBaseChar@@_N@Z
  0004c	e9 00 00 00 00	 jmp	 ___CxxFrameHandler3
text$x	ENDS
?AddEntityAndEffect@ioTrinityItem@@QAEXPAVioBaseChar@@_N@Z ENDP ; ioTrinityItem::AddEntityAndEffect
PUBLIC	?AddNormalEntityAndEffect@ioTrinityItem@@QAEXPAVioBaseChar@@@Z ; ioTrinityItem::AddNormalEntityAndEffect
;	COMDAT xdata$x
; File c:\program files (x86)\microsoft visual studio 10.0\vc\include\vector
xdata$x	SEGMENT
__unwindtable$?AddNormalEntityAndEffect@ioTrinityItem@@QAEXPAVioBaseChar@@@Z DD 0ffffffffH
	DD	FLAT:__unwindfunclet$?AddNormalEntityAndEffect@ioTrinityItem@@QAEXPAVioBaseChar@@@Z$0
	DD	0ffffffffH
	DD	FLAT:__unwindfunclet$?AddNormalEntityAndEffect@ioTrinityItem@@QAEXPAVioBaseChar@@@Z$1
__ehfuncinfo$?AddNormalEntityAndEffect@ioTrinityItem@@QAEXPAVioBaseChar@@@Z DD 019930522H
	DD	02H
	DD	FLAT:__unwindtable$?AddNormalEntityAndEffect@ioTrinityItem@@QAEXPAVioBaseChar@@@Z
	DD	2 DUP(00H)
	DD	2 DUP(00H)
	DD	00H
	DD	01H
; Function compile flags: /Ogsp
; File d:\lost saga for developer\youtube\tutorial\source\src\lsclient\iotrinityitem.cpp
xdata$x	ENDS
;	COMDAT ?AddNormalEntityAndEffect@ioTrinityItem@@QAEXPAVioBaseChar@@@Z
_TEXT	SEGMENT
_szMeshName$551256 = -52				; size = 16
_szEffectName$ = -36					; size = 16
tv77 = -20						; size = 4
tv242 = -16						; size = 4
__$EHRec$ = -12						; size = 12
_pOwner$ = 8						; size = 4
?AddNormalEntityAndEffect@ioTrinityItem@@QAEXPAVioBaseChar@@@Z PROC ; ioTrinityItem::AddNormalEntityAndEffect, COMDAT
; _this$ = ecx

; 1064 : {

  00000	6a 28		 push	 40			; 00000028H
  00002	b8 00 00 00 00	 mov	 eax, __ehhandler$?AddNormalEntityAndEffect@ioTrinityItem@@QAEXPAVioBaseChar@@@Z
  00007	e8 00 00 00 00	 call	 __EH_prolog3
  0000c	8b f1		 mov	 esi, ecx

; 1065 : 	int iMeshCnt = m_AttackInfo.m_AddNormalMesh[m_nWeaponIndex].size();

  0000e	8b 86 00 21 00
	00		 mov	 eax, DWORD PTR [esi+8448]

; 1066 : 	for( int i = 0; i < iMeshCnt; i++ )

  00014	8b 1d 00 00 00
	00		 mov	 ebx, DWORD PTR __imp_??0ioHashString@@QAE@ABV0@@Z
  0001a	bf e7 01 00 00	 mov	 edi, 487		; 000001e7H
  0001f	03 c7		 add	 eax, edi
  00021	03 c0		 add	 eax, eax
  00023	8b 4c c6 04	 mov	 ecx, DWORD PTR [esi+eax*8+4]
  00027	2b 0c c6	 sub	 ecx, DWORD PTR [esi+eax*8]
  0002a	c1 f9 04	 sar	 ecx, 4
  0002d	85 c9		 test	 ecx, ecx
  0002f	7e 4a		 jle	 SHORT $LN3@AddNormalE

; 1065 : 	int iMeshCnt = m_AttackInfo.m_AddNormalMesh[m_nWeaponIndex].size();

  00031	83 65 f0 00	 and	 DWORD PTR tv242[ebp], 0
  00035	89 4d ec	 mov	 DWORD PTR tv77[ebp], ecx
$LN5@AddNormalE:

; 1067 : 	{
; 1068 : 		ioHashString szMeshName = (m_AttackInfo.m_AddNormalMesh[m_nWeaponIndex])[i];

  00038	8b 86 00 21 00
	00		 mov	 eax, DWORD PTR [esi+8448]
  0003e	03 c7		 add	 eax, edi
  00040	03 c0		 add	 eax, eax
  00042	8b 04 c6	 mov	 eax, DWORD PTR [esi+eax*8]
  00045	03 45 f0	 add	 eax, DWORD PTR tv242[ebp]
  00048	8d 4d cc	 lea	 ecx, DWORD PTR _szMeshName$551256[ebp]
  0004b	50		 push	 eax
  0004c	ff d3		 call	 ebx

; 1069 : 		pOwner->AddEntity( szMeshName );

  0004e	8b 4d 08	 mov	 ecx, DWORD PTR _pOwner$[ebp]
  00051	8b 01		 mov	 eax, DWORD PTR [ecx]
  00053	83 65 fc 00	 and	 DWORD PTR __$EHRec$[ebp+8], 0
  00057	8d 55 cc	 lea	 edx, DWORD PTR _szMeshName$551256[ebp]
  0005a	52		 push	 edx
  0005b	ff 50 2c	 call	 DWORD PTR [eax+44]

; 1070 : 
; 1071 : 		m_bVisibleMesh = true;
; 1072 : 	}

  0005e	83 4d fc ff	 or	 DWORD PTR __$EHRec$[ebp+8], -1
  00062	8d 4d cc	 lea	 ecx, DWORD PTR _szMeshName$551256[ebp]
  00065	c6 86 54 19 00
	00 01		 mov	 BYTE PTR [esi+6484], 1
  0006c	ff 15 00 00 00
	00		 call	 DWORD PTR __imp_??1ioHashString@@QAE@XZ
  00072	83 45 f0 10	 add	 DWORD PTR tv242[ebp], 16 ; 00000010H
  00076	ff 4d ec	 dec	 DWORD PTR tv77[ebp]
  00079	75 bd		 jne	 SHORT $LN5@AddNormalE
$LN3@AddNormalE:

; 1073 : 
; 1074 : 	ioHashString szEffectName = m_AttackInfo.m_AddNormalEffect[m_nWeaponIndex];

  0007b	8b 86 00 21 00
	00		 mov	 eax, DWORD PTR [esi+8448]
  00081	05 ff 01 00 00	 add	 eax, 511		; 000001ffH
  00086	c1 e0 04	 shl	 eax, 4
  00089	03 c6		 add	 eax, esi
  0008b	50		 push	 eax
  0008c	8d 4d dc	 lea	 ecx, DWORD PTR _szEffectName$[ebp]
  0008f	ff d3		 call	 ebx
  00091	33 ff		 xor	 edi, edi
  00093	47		 inc	 edi

; 1075 : 	if( !szEffectName.IsEmpty() )

  00094	8d 4d dc	 lea	 ecx, DWORD PTR _szEffectName$[ebp]
  00097	89 7d fc	 mov	 DWORD PTR __$EHRec$[ebp+8], edi
  0009a	ff 15 00 00 00
	00		 call	 DWORD PTR __imp_?IsEmpty@ioHashString@@QBE_NXZ
  000a0	84 c0		 test	 al, al
  000a2	75 22		 jne	 SHORT $LN1@AddNormalE

; 1076 : 	{
; 1077 : 		ioEffect *pEffect = pOwner->AttachEffect(szEffectName);

  000a4	8b 4d 08	 mov	 ecx, DWORD PTR _pOwner$[ebp]
  000a7	57		 push	 edi
  000a8	6a 00		 push	 0
  000aa	8d 45 dc	 lea	 eax, DWORD PTR _szEffectName$[ebp]
  000ad	50		 push	 eax
  000ae	e8 00 00 00 00	 call	 ?AttachEffect@ioBaseChar@@QAEPAVioEffect@@ABVioHashString@@PAVioEntityEvent@@_N@Z ; ioBaseChar::AttachEffect

; 1078 : 		if( pEffect )

  000b3	85 c0		 test	 eax, eax
  000b5	74 0f		 je	 SHORT $LN1@AddNormalE

; 1079 : 		{
; 1080 : 			m_dwEffect = pEffect->GetUniqueID();

  000b7	8d 48 14	 lea	 ecx, DWORD PTR [eax+20]
  000ba	ff 15 00 00 00
	00		 call	 DWORD PTR __imp_?GetUniqueID@ioMovableObject@@QBEKXZ
  000c0	89 86 08 21 00
	00		 mov	 DWORD PTR [esi+8456], eax
$LN1@AddNormalE:

; 1081 : 		}
; 1082 : 	}
; 1083 : }

  000c6	83 4d fc ff	 or	 DWORD PTR __$EHRec$[ebp+8], -1
  000ca	8d 4d dc	 lea	 ecx, DWORD PTR _szEffectName$[ebp]
  000cd	ff 15 00 00 00
	00		 call	 DWORD PTR __imp_??1ioHashString@@QAE@XZ
  000d3	e8 00 00 00 00	 call	 __EH_epilog3
  000d8	c2 04 00	 ret	 4
_TEXT	ENDS
;	COMDAT text$x
text$x	SEGMENT
__unwindfunclet$?AddNormalEntityAndEffect@ioTrinityItem@@QAEXPAVioBaseChar@@@Z$0:
  00000	8d 4d cc	 lea	 ecx, DWORD PTR _szMeshName$551256[ebp]
  00003	ff 25 00 00 00
	00		 jmp	 DWORD PTR __imp_??1ioHashString@@QAE@XZ
__unwindfunclet$?AddNormalEntityAndEffect@ioTrinityItem@@QAEXPAVioBaseChar@@@Z$1:
  00009	8d 4d dc	 lea	 ecx, DWORD PTR _szEffectName$[ebp]
  0000c	ff 25 00 00 00
	00		 jmp	 DWORD PTR __imp_??1ioHashString@@QAE@XZ
__ehhandler$?AddNormalEntityAndEffect@ioTrinityItem@@QAEXPAVioBaseChar@@@Z:
  00012	8b 54 24 08	 mov	 edx, DWORD PTR [esp+8]
  00016	8d 42 0c	 lea	 eax, DWORD PTR [edx+12]
  00019	8b 4a c8	 mov	 ecx, DWORD PTR [edx-56]
  0001c	33 c8		 xor	 ecx, eax
  0001e	e8 00 00 00 00	 call	 @__security_check_cookie@4
  00023	b8 00 00 00 00	 mov	 eax, OFFSET __ehfuncinfo$?AddNormalEntityAndEffect@ioTrinityItem@@QAEXPAVioBaseChar@@@Z
  00028	e9 00 00 00 00	 jmp	 ___CxxFrameHandler3
text$x	ENDS
?AddNormalEntityAndEffect@ioTrinityItem@@QAEXPAVioBaseChar@@@Z ENDP ; ioTrinityItem::AddNormalEntityAndEffect
PUBLIC	?EraseEntityAndEffect@ioTrinityItem@@QAEXPAVioBaseChar@@@Z ; ioTrinityItem::EraseEntityAndEffect
EXTRN	?EndEffect@ioBaseChar@@QAEXK_N@Z:PROC		; ioBaseChar::EndEffect
;	COMDAT xdata$x
; File c:\program files (x86)\microsoft visual studio 10.0\vc\include\vector
xdata$x	SEGMENT
__unwindtable$?EraseEntityAndEffect@ioTrinityItem@@QAEXPAVioBaseChar@@@Z DD 0ffffffffH
	DD	FLAT:__unwindfunclet$?EraseEntityAndEffect@ioTrinityItem@@QAEXPAVioBaseChar@@@Z$0
	DD	0ffffffffH
	DD	FLAT:__unwindfunclet$?EraseEntityAndEffect@ioTrinityItem@@QAEXPAVioBaseChar@@@Z$1
	DD	0ffffffffH
	DD	FLAT:__unwindfunclet$?EraseEntityAndEffect@ioTrinityItem@@QAEXPAVioBaseChar@@@Z$2
	DD	0ffffffffH
	DD	FLAT:__unwindfunclet$?EraseEntityAndEffect@ioTrinityItem@@QAEXPAVioBaseChar@@@Z$3
__ehfuncinfo$?EraseEntityAndEffect@ioTrinityItem@@QAEXPAVioBaseChar@@@Z DD 019930522H
	DD	04H
	DD	FLAT:__unwindtable$?EraseEntityAndEffect@ioTrinityItem@@QAEXPAVioBaseChar@@@Z
	DD	2 DUP(00H)
	DD	2 DUP(00H)
	DD	00H
	DD	01H
; Function compile flags: /Ogsp
; File d:\lost saga for developer\youtube\tutorial\source\src\lsclient\iotrinityitem.cpp
xdata$x	ENDS
;	COMDAT ?EraseEntityAndEffect@ioTrinityItem@@QAEXPAVioBaseChar@@@Z
_TEXT	SEGMENT
_szMeshName$551289 = -88				; size = 16
_szMeshName$551284 = -72				; size = 16
_szMeshName$551279 = -56				; size = 16
_szMeshName$551274 = -40				; size = 16
_this$ = -24						; size = 4
tv918 = -20						; size = 4
tv289 = -16						; size = 4
tv284 = -16						; size = 4
tv243 = -16						; size = 4
tv228 = -16						; size = 4
__$EHRec$ = -12						; size = 12
tv538 = 8						; size = 4
tv524 = 8						; size = 4
tv510 = 8						; size = 4
tv496 = 8						; size = 4
_pOwner$ = 8						; size = 4
?EraseEntityAndEffect@ioTrinityItem@@QAEXPAVioBaseChar@@@Z PROC ; ioTrinityItem::EraseEntityAndEffect, COMDAT
; _this$ = ecx

; 1086 : {

  00000	6a 4c		 push	 76			; 0000004cH
  00002	b8 00 00 00 00	 mov	 eax, __ehhandler$?EraseEntityAndEffect@ioTrinityItem@@QAEXPAVioBaseChar@@@Z
  00007	e8 00 00 00 00	 call	 __EH_prolog3
  0000c	89 4d e8	 mov	 DWORD PTR _this$[ebp], ecx

; 1087 : 	// remove mesh
; 1088 : 	//Full
; 1089 : 	for( int nWeaponIndex = 0; nWeaponIndex < MAX_TRINITY_ATTACK_CNT; nWeaponIndex++ )

  0000f	8b 7d 08	 mov	 edi, DWORD PTR _pOwner$[ebp]
  00012	8b 1d 00 00 00
	00		 mov	 ebx, DWORD PTR __imp_??0ioHashString@@QAE@ABV0@@Z
  00018	8d b1 b4 1d 00
	00		 lea	 esi, DWORD PTR [ecx+7604]
  0001e	c7 45 ec 06 00
	00 00		 mov	 DWORD PTR tv918[ebp], 6
$LL16@EraseEntit:

; 1090 : 	{
; 1091 : 		int iMeshCnt = m_AttackInfo.m_AddFullMesh[nWeaponIndex].size();

  00025	8b 46 a0	 mov	 eax, DWORD PTR [esi-96]
  00028	2b 46 9c	 sub	 eax, DWORD PTR [esi-100]
  0002b	c1 f8 04	 sar	 eax, 4

; 1092 : 		for( int i=0; i < iMeshCnt; ++i )

  0002e	85 c0		 test	 eax, eax
  00030	7e 38		 jle	 SHORT $LN11@EraseEntit

; 1090 : 	{
; 1091 : 		int iMeshCnt = m_AttackInfo.m_AddFullMesh[nWeaponIndex].size();

  00032	83 65 08 00	 and	 DWORD PTR tv496[ebp], 0
  00036	89 45 f0	 mov	 DWORD PTR tv284[ebp], eax
$LN13@EraseEntit:

; 1092 : 		for( int i=0; i < iMeshCnt; ++i )

  00039	8b 46 9c	 mov	 eax, DWORD PTR [esi-100]
  0003c	03 45 08	 add	 eax, DWORD PTR tv496[ebp]

; 1093 : 		{
; 1094 : 			ioHashString szMeshName = (m_AttackInfo.m_AddFullMesh[nWeaponIndex])[i];

  0003f	8d 4d d8	 lea	 ecx, DWORD PTR _szMeshName$551274[ebp]
  00042	50		 push	 eax
  00043	ff d3		 call	 ebx

; 1095 : 			pOwner->DestroyEntity( szMeshName );

  00045	8b 07		 mov	 eax, DWORD PTR [edi]
  00047	83 65 fc 00	 and	 DWORD PTR __$EHRec$[ebp+8], 0
  0004b	8d 4d d8	 lea	 ecx, DWORD PTR _szMeshName$551274[ebp]
  0004e	51		 push	 ecx
  0004f	8b cf		 mov	 ecx, edi
  00051	ff 50 30	 call	 DWORD PTR [eax+48]

; 1096 : 		}

  00054	83 4d fc ff	 or	 DWORD PTR __$EHRec$[ebp+8], -1
  00058	8d 4d d8	 lea	 ecx, DWORD PTR _szMeshName$551274[ebp]
  0005b	ff 15 00 00 00
	00		 call	 DWORD PTR __imp_??1ioHashString@@QAE@XZ
  00061	83 45 08 10	 add	 DWORD PTR tv496[ebp], 16 ; 00000010H
  00065	ff 4d f0	 dec	 DWORD PTR tv284[ebp]
  00068	75 cf		 jne	 SHORT $LN13@EraseEntit
$LN11@EraseEntit:

; 1097 : 
; 1098 : 		//None
; 1099 : 		iMeshCnt = m_AttackInfo.m_AddNoneMesh[nWeaponIndex].size();

  0006a	8b 06		 mov	 eax, DWORD PTR [esi]
  0006c	2b 46 fc	 sub	 eax, DWORD PTR [esi-4]
  0006f	c1 f8 04	 sar	 eax, 4

; 1100 : 		for( int i=0; i < iMeshCnt; ++i )

  00072	85 c0		 test	 eax, eax
  00074	7e 3b		 jle	 SHORT $LN8@EraseEntit

; 1097 : 
; 1098 : 		//None
; 1099 : 		iMeshCnt = m_AttackInfo.m_AddNoneMesh[nWeaponIndex].size();

  00076	83 65 08 00	 and	 DWORD PTR tv510[ebp], 0
  0007a	89 45 f0	 mov	 DWORD PTR tv289[ebp], eax
$LN10@EraseEntit:

; 1100 : 		for( int i=0; i < iMeshCnt; ++i )

  0007d	8b 46 fc	 mov	 eax, DWORD PTR [esi-4]
  00080	03 45 08	 add	 eax, DWORD PTR tv510[ebp]

; 1101 : 		{
; 1102 : 			ioHashString szMeshName = (m_AttackInfo.m_AddNoneMesh[nWeaponIndex])[i];

  00083	8d 4d c8	 lea	 ecx, DWORD PTR _szMeshName$551279[ebp]
  00086	50		 push	 eax
  00087	ff d3		 call	 ebx

; 1103 : 			pOwner->DestroyEntity( szMeshName );

  00089	8b 07		 mov	 eax, DWORD PTR [edi]
  0008b	8d 4d c8	 lea	 ecx, DWORD PTR _szMeshName$551279[ebp]
  0008e	51		 push	 ecx
  0008f	8b cf		 mov	 ecx, edi
  00091	c7 45 fc 01 00
	00 00		 mov	 DWORD PTR __$EHRec$[ebp+8], 1
  00098	ff 50 30	 call	 DWORD PTR [eax+48]

; 1104 : 		}

  0009b	83 4d fc ff	 or	 DWORD PTR __$EHRec$[ebp+8], -1
  0009f	8d 4d c8	 lea	 ecx, DWORD PTR _szMeshName$551279[ebp]
  000a2	ff 15 00 00 00
	00		 call	 DWORD PTR __imp_??1ioHashString@@QAE@XZ
  000a8	83 45 08 10	 add	 DWORD PTR tv510[ebp], 16 ; 00000010H
  000ac	ff 4d f0	 dec	 DWORD PTR tv289[ebp]
  000af	75 cc		 jne	 SHORT $LN10@EraseEntit
$LN8@EraseEntit:

; 1105 : 
; 1106 : 		//None _ Jump
; 1107 : 		iMeshCnt = m_AttackInfo.m_AddNoneMeshForJump[nWeaponIndex].size();

  000b1	8b 46 60	 mov	 eax, DWORD PTR [esi+96]
  000b4	2b 46 5c	 sub	 eax, DWORD PTR [esi+92]
  000b7	c1 f8 04	 sar	 eax, 4

; 1108 : 		for( int i=0; i < iMeshCnt; ++i )

  000ba	85 c0		 test	 eax, eax
  000bc	7e 3b		 jle	 SHORT $LN5@EraseEntit

; 1105 : 
; 1106 : 		//None _ Jump
; 1107 : 		iMeshCnt = m_AttackInfo.m_AddNoneMeshForJump[nWeaponIndex].size();

  000be	83 65 08 00	 and	 DWORD PTR tv524[ebp], 0
  000c2	89 45 f0	 mov	 DWORD PTR tv243[ebp], eax
$LN7@EraseEntit:

; 1108 : 		for( int i=0; i < iMeshCnt; ++i )

  000c5	8b 46 5c	 mov	 eax, DWORD PTR [esi+92]
  000c8	03 45 08	 add	 eax, DWORD PTR tv524[ebp]

; 1109 : 		{
; 1110 : 			ioHashString szMeshName = (m_AttackInfo.m_AddNoneMeshForJump[nWeaponIndex])[i];

  000cb	8d 4d b8	 lea	 ecx, DWORD PTR _szMeshName$551284[ebp]
  000ce	50		 push	 eax
  000cf	ff d3		 call	 ebx

; 1111 : 			pOwner->DestroyEntity( szMeshName );

  000d1	8b 07		 mov	 eax, DWORD PTR [edi]
  000d3	8d 4d b8	 lea	 ecx, DWORD PTR _szMeshName$551284[ebp]
  000d6	51		 push	 ecx
  000d7	8b cf		 mov	 ecx, edi
  000d9	c7 45 fc 02 00
	00 00		 mov	 DWORD PTR __$EHRec$[ebp+8], 2
  000e0	ff 50 30	 call	 DWORD PTR [eax+48]

; 1112 : 		}

  000e3	83 4d fc ff	 or	 DWORD PTR __$EHRec$[ebp+8], -1
  000e7	8d 4d b8	 lea	 ecx, DWORD PTR _szMeshName$551284[ebp]
  000ea	ff 15 00 00 00
	00		 call	 DWORD PTR __imp_??1ioHashString@@QAE@XZ
  000f0	83 45 08 10	 add	 DWORD PTR tv524[ebp], 16 ; 00000010H
  000f4	ff 4d f0	 dec	 DWORD PTR tv243[ebp]
  000f7	75 cc		 jne	 SHORT $LN7@EraseEntit
$LN5@EraseEntit:

; 1113 : 
; 1114 : 		//Normal
; 1115 : 		iMeshCnt = m_AttackInfo.m_AddNormalMesh[nWeaponIndex].size();

  000f9	8b 86 c0 00 00
	00		 mov	 eax, DWORD PTR [esi+192]
  000ff	2b 86 bc 00 00
	00		 sub	 eax, DWORD PTR [esi+188]
  00105	c1 f8 04	 sar	 eax, 4

; 1116 : 		for( int i = 0; i < iMeshCnt; i++ )

  00108	85 c0		 test	 eax, eax
  0010a	7e 3e		 jle	 SHORT $LN15@EraseEntit

; 1113 : 
; 1114 : 		//Normal
; 1115 : 		iMeshCnt = m_AttackInfo.m_AddNormalMesh[nWeaponIndex].size();

  0010c	83 65 08 00	 and	 DWORD PTR tv538[ebp], 0
  00110	89 45 f0	 mov	 DWORD PTR tv228[ebp], eax
$LN4@EraseEntit:

; 1116 : 		for( int i = 0; i < iMeshCnt; i++ )

  00113	8b 86 bc 00 00
	00		 mov	 eax, DWORD PTR [esi+188]
  00119	03 45 08	 add	 eax, DWORD PTR tv538[ebp]

; 1117 : 		{
; 1118 : 			ioHashString szMeshName = (m_AttackInfo.m_AddNormalMesh[nWeaponIndex])[i];

  0011c	8d 4d a8	 lea	 ecx, DWORD PTR _szMeshName$551289[ebp]
  0011f	50		 push	 eax
  00120	ff d3		 call	 ebx

; 1119 : 			pOwner->DestroyEntity( szMeshName );

  00122	8b 07		 mov	 eax, DWORD PTR [edi]
  00124	8d 4d a8	 lea	 ecx, DWORD PTR _szMeshName$551289[ebp]
  00127	51		 push	 ecx
  00128	8b cf		 mov	 ecx, edi
  0012a	c7 45 fc 03 00
	00 00		 mov	 DWORD PTR __$EHRec$[ebp+8], 3
  00131	ff 50 30	 call	 DWORD PTR [eax+48]

; 1120 : 		}

  00134	83 4d fc ff	 or	 DWORD PTR __$EHRec$[ebp+8], -1
  00138	8d 4d a8	 lea	 ecx, DWORD PTR _szMeshName$551289[ebp]
  0013b	ff 15 00 00 00
	00		 call	 DWORD PTR __imp_??1ioHashString@@QAE@XZ
  00141	83 45 08 10	 add	 DWORD PTR tv538[ebp], 16 ; 00000010H
  00145	ff 4d f0	 dec	 DWORD PTR tv228[ebp]
  00148	75 c9		 jne	 SHORT $LN4@EraseEntit
$LN15@EraseEntit:

; 1087 : 	// remove mesh
; 1088 : 	//Full
; 1089 : 	for( int nWeaponIndex = 0; nWeaponIndex < MAX_TRINITY_ATTACK_CNT; nWeaponIndex++ )

  0014a	83 c6 10	 add	 esi, 16			; 00000010H
  0014d	ff 4d ec	 dec	 DWORD PTR tv918[ebp]
  00150	0f 85 cf fe ff
	ff		 jne	 $LL16@EraseEntit

; 1121 : 	}
; 1122 : 
; 1123 : 	// 
; 1124 : 	if( m_dwEffect != 0 )

  00156	8b 75 e8	 mov	 esi, DWORD PTR _this$[ebp]
  00159	8b 86 08 21 00
	00		 mov	 eax, DWORD PTR [esi+8456]
  0015f	85 c0		 test	 eax, eax
  00161	74 11		 je	 SHORT $LN1@EraseEntit

; 1125 : 	{
; 1126 : 		pOwner->EndEffect(m_dwEffect, false );

  00163	6a 00		 push	 0
  00165	50		 push	 eax
  00166	8b cf		 mov	 ecx, edi
  00168	e8 00 00 00 00	 call	 ?EndEffect@ioBaseChar@@QAEXK_N@Z ; ioBaseChar::EndEffect

; 1127 : 		m_dwEffect = 0;

  0016d	83 a6 08 21 00
	00 00		 and	 DWORD PTR [esi+8456], 0
$LN1@EraseEntit:

; 1128 : 	}
; 1129 : }

  00174	e8 00 00 00 00	 call	 __EH_epilog3
  00179	c2 04 00	 ret	 4
_TEXT	ENDS
;	COMDAT text$x
text$x	SEGMENT
__unwindfunclet$?EraseEntityAndEffect@ioTrinityItem@@QAEXPAVioBaseChar@@@Z$0:
  00000	8d 4d d8	 lea	 ecx, DWORD PTR _szMeshName$551274[ebp]
  00003	ff 25 00 00 00
	00		 jmp	 DWORD PTR __imp_??1ioHashString@@QAE@XZ
__unwindfunclet$?EraseEntityAndEffect@ioTrinityItem@@QAEXPAVioBaseChar@@@Z$1:
  00009	8d 4d c8	 lea	 ecx, DWORD PTR _szMeshName$551279[ebp]
  0000c	ff 25 00 00 00
	00		 jmp	 DWORD PTR __imp_??1ioHashString@@QAE@XZ
__unwindfunclet$?EraseEntityAndEffect@ioTrinityItem@@QAEXPAVioBaseChar@@@Z$2:
  00012	8d 4d b8	 lea	 ecx, DWORD PTR _szMeshName$551284[ebp]
  00015	ff 25 00 00 00
	00		 jmp	 DWORD PTR __imp_??1ioHashString@@QAE@XZ
__unwindfunclet$?EraseEntityAndEffect@ioTrinityItem@@QAEXPAVioBaseChar@@@Z$3:
  0001b	8d 4d a8	 lea	 ecx, DWORD PTR _szMeshName$551289[ebp]
  0001e	ff 25 00 00 00
	00		 jmp	 DWORD PTR __imp_??1ioHashString@@QAE@XZ
__ehhandler$?EraseEntityAndEffect@ioTrinityItem@@QAEXPAVioBaseChar@@@Z:
  00024	8b 54 24 08	 mov	 edx, DWORD PTR [esp+8]
  00028	8d 42 0c	 lea	 eax, DWORD PTR [edx+12]
  0002b	8b 4a a4	 mov	 ecx, DWORD PTR [edx-92]
  0002e	33 c8		 xor	 ecx, eax
  00030	e8 00 00 00 00	 call	 @__security_check_cookie@4
  00035	b8 00 00 00 00	 mov	 eax, OFFSET __ehfuncinfo$?EraseEntityAndEffect@ioTrinityItem@@QAEXPAVioBaseChar@@@Z
  0003a	e9 00 00 00 00	 jmp	 ___CxxFrameHandler3
text$x	ENDS
?EraseEntityAndEffect@ioTrinityItem@@QAEXPAVioBaseChar@@@Z ENDP ; ioTrinityItem::EraseEntityAndEffect
PUBLIC	?SetVisible@ioTrinityItem@@UAEXPAVioBaseChar@@_N@Z ; ioTrinityItem::SetVisible
EXTRN	?SetVisible@ioItem@@UAEXPAVioBaseChar@@_N@Z:PROC ; ioItem::SetVisible
; Function compile flags: /Ogsp
;	COMDAT ?SetVisible@ioTrinityItem@@UAEXPAVioBaseChar@@_N@Z
_TEXT	SEGMENT
_pOwner$ = 8						; size = 4
_bVisible$ = 12						; size = 1
?SetVisible@ioTrinityItem@@UAEXPAVioBaseChar@@_N@Z PROC	; ioTrinityItem::SetVisible, COMDAT
; _this$ = ecx

; 1151 : {

  00000	55		 push	 ebp
  00001	8b ec		 mov	 ebp, esp
  00003	53		 push	 ebx

; 1152 : 	__super::SetVisible(pOwner, bVisible);

  00004	8b 5d 0c	 mov	 ebx, DWORD PTR _bVisible$[ebp]
  00007	56		 push	 esi
  00008	53		 push	 ebx
  00009	ff 75 08	 push	 DWORD PTR _pOwner$[ebp]
  0000c	8b f1		 mov	 esi, ecx
  0000e	e8 00 00 00 00	 call	 ?SetVisible@ioItem@@UAEXPAVioBaseChar@@_N@Z ; ioItem::SetVisible

; 1153 : 
; 1154 : 	if( bVisible == false )

  00013	84 db		 test	 bl, bl
  00015	75 06		 jne	 SHORT $LN4@SetVisible

; 1155 : 		m_bVisibleMesh = false;

  00017	88 9e 54 19 00
	00		 mov	 BYTE PTR [esi+6484], bl
$LN4@SetVisible:

; 1156 : 
; 1157 : 	if( m_bVisibleMesh && bVisible )

  0001d	80 be 54 19 00
	00 00		 cmp	 BYTE PTR [esi+6484], 0
  00024	74 04		 je	 SHORT $LN3@SetVisible
  00026	84 db		 test	 bl, bl
  00028	75 15		 jne	 SHORT $LN1@SetVisible
$LN3@SetVisible:

; 1158 : 		return;
; 1159 : 
; 1160 : 	if( bVisible )
; 1161 : 		AddNormalEntityAndEffect( pOwner );

  0002a	ff 75 08	 push	 DWORD PTR _pOwner$[ebp]
  0002d	8b ce		 mov	 ecx, esi
  0002f	84 db		 test	 bl, bl
  00031	74 07		 je	 SHORT $LN2@SetVisible
  00033	e8 00 00 00 00	 call	 ?AddNormalEntityAndEffect@ioTrinityItem@@QAEXPAVioBaseChar@@@Z ; ioTrinityItem::AddNormalEntityAndEffect

; 1162 : 	else

  00038	eb 05		 jmp	 SHORT $LN1@SetVisible
$LN2@SetVisible:

; 1163 : 		EraseEntityAndEffect(pOwner);

  0003a	e8 00 00 00 00	 call	 ?EraseEntityAndEffect@ioTrinityItem@@QAEXPAVioBaseChar@@@Z ; ioTrinityItem::EraseEntityAndEffect
$LN1@SetVisible:
  0003f	5e		 pop	 esi
  00040	5b		 pop	 ebx

; 1164 : }

  00041	5d		 pop	 ebp
  00042	c2 08 00	 ret	 8
?SetVisible@ioTrinityItem@@UAEXPAVioBaseChar@@_N@Z ENDP	; ioTrinityItem::SetVisible
_TEXT	ENDS
PUBLIC	?ShowWeapon@ioTrinityItem@@QAEXPAVioBaseChar@@@Z ; ioTrinityItem::ShowWeapon
; Function compile flags: /Ogsp
;	COMDAT ?ShowWeapon@ioTrinityItem@@QAEXPAVioBaseChar@@@Z
_TEXT	SEGMENT
_pOwner$ = 8						; size = 4
?ShowWeapon@ioTrinityItem@@QAEXPAVioBaseChar@@@Z PROC	; ioTrinityItem::ShowWeapon, COMDAT
; _this$ = ecx

; 1167 : {

  00000	55		 push	 ebp
  00001	8b ec		 mov	 ebp, esp
  00003	56		 push	 esi

; 1168 : 	EraseEntityAndEffect( pOwner );

  00004	ff 75 08	 push	 DWORD PTR _pOwner$[ebp]
  00007	8b f1		 mov	 esi, ecx
  00009	e8 00 00 00 00	 call	 ?EraseEntityAndEffect@ioTrinityItem@@QAEXPAVioBaseChar@@@Z ; ioTrinityItem::EraseEntityAndEffect

; 1169 : 	AddNormalEntityAndEffect( pOwner );

  0000e	ff 75 08	 push	 DWORD PTR _pOwner$[ebp]
  00011	8b ce		 mov	 ecx, esi
  00013	e8 00 00 00 00	 call	 ?AddNormalEntityAndEffect@ioTrinityItem@@QAEXPAVioBaseChar@@@Z ; ioTrinityItem::AddNormalEntityAndEffect
  00018	5e		 pop	 esi

; 1170 : }

  00019	5d		 pop	 ebp
  0001a	c2 04 00	 ret	 4
?ShowWeapon@ioTrinityItem@@QAEXPAVioBaseChar@@@Z ENDP	; ioTrinityItem::ShowWeapon
_TEXT	ENDS
PUBLIC	?HideWeapon@ioTrinityItem@@QAEXPAVioBaseChar@@@Z ; ioTrinityItem::HideWeapon
; Function compile flags: /Ogsp
;	COMDAT ?HideWeapon@ioTrinityItem@@QAEXPAVioBaseChar@@@Z
_TEXT	SEGMENT
_pOwner$ = 8						; size = 4
?HideWeapon@ioTrinityItem@@QAEXPAVioBaseChar@@@Z PROC	; ioTrinityItem::HideWeapon, COMDAT
; _this$ = ecx

; 1173 : {

  00000	55		 push	 ebp
  00001	8b ec		 mov	 ebp, esp

; 1175 : }

  00003	5d		 pop	 ebp

; 1174 : 	EraseEntityAndEffect(pOwner);

  00004	e9 00 00 00 00	 jmp	 ?EraseEntityAndEffect@ioTrinityItem@@QAEXPAVioBaseChar@@@Z ; ioTrinityItem::EraseEntityAndEffect
?HideWeapon@ioTrinityItem@@QAEXPAVioBaseChar@@@Z ENDP	; ioTrinityItem::HideWeapon
; Function compile flags: /Ogsp
_TEXT	ENDS
;	COMDAT ??_GioTrinitySpecialState@@UAEPAXI@Z
_TEXT	SEGMENT
___flags$ = 8						; size = 4
??_GioTrinitySpecialState@@UAEPAXI@Z PROC		; ioTrinitySpecialState::`scalar deleting destructor', COMDAT
; _this$ = ecx
  00000	55		 push	 ebp
  00001	8b ec		 mov	 ebp, esp
  00003	56		 push	 esi
  00004	8b f1		 mov	 esi, ecx
  00006	c7 06 00 00 00
	00		 mov	 DWORD PTR [esi], OFFSET ??_7ioTrinitySpecialState@@6B@
  0000c	e8 00 00 00 00	 call	 ??1ioSpecialStateBase@@UAE@XZ ; ioSpecialStateBase::~ioSpecialStateBase
  00011	f6 45 08 01	 test	 BYTE PTR ___flags$[ebp], 1
  00015	74 07		 je	 SHORT $LN1@scalar@5
  00017	56		 push	 esi
  00018	e8 00 00 00 00	 call	 ??3@YAXPAX@Z		; operator delete
  0001d	59		 pop	 ecx
$LN1@scalar@5:
  0001e	8b c6		 mov	 eax, esi
  00020	5e		 pop	 esi
  00021	5d		 pop	 ebp
  00022	c2 04 00	 ret	 4
??_GioTrinitySpecialState@@UAEPAXI@Z ENDP		; ioTrinitySpecialState::`scalar deleting destructor'
_TEXT	ENDS
PUBLIC	??4?$CEncrypt@M@@QAEMH@Z			; CEncrypt<float>::operator=
; Function compile flags: /Ogsp
; File d:\lost saga for developer\youtube\tutorial\source\src\lsclient\encryptvalue.h
;	COMDAT ??4?$CEncrypt@M@@QAEMH@Z
_TEXT	SEGMENT
_value$ = 8						; size = 4
_inValue$ = 8						; size = 4
??4?$CEncrypt@M@@QAEMH@Z PROC				; CEncrypt<float>::operator=, COMDAT
; _this$ = ecx

; 843  : 	{

  00000	55		 push	 ebp
  00001	8b ec		 mov	 ebp, esp

; 844  : 		type value = inValue;

  00003	db 45 08	 fild	 DWORD PTR _inValue$[ebp]

; 845  : 		EncryptValueToPool((char*)&value);

  00006	8d 45 08	 lea	 eax, DWORD PTR _value$[ebp]
  00009	50		 push	 eax
  0000a	d9 5d 08	 fstp	 DWORD PTR _value$[ebp]
  0000d	e8 00 00 00 00	 call	 ?EncryptValueToPool@?$CEncrypt@M@@AAEXPBD@Z ; CEncrypt<float>::EncryptValueToPool

; 846  : #ifdef _NOTUSE
; 847  : 		m_value = inValue;
; 848  : 		Debug();
; 849  : #endif
; 850  : 		return value;

  00012	d9 45 08	 fld	 DWORD PTR _value$[ebp]

; 851  : 	}

  00015	5d		 pop	 ebp
  00016	c2 04 00	 ret	 4
??4?$CEncrypt@M@@QAEMH@Z ENDP				; CEncrypt<float>::operator=
_TEXT	ENDS
PUBLIC	??G?$CEncrypt@M@@QAEMABM@Z			; CEncrypt<float>::operator-
; Function compile flags: /Ogsp
;	COMDAT ??G?$CEncrypt@M@@QAEMABM@Z
_TEXT	SEGMENT
_value$ = -4						; size = 4
tv130 = 8						; size = 4
_inValue$ = 8						; size = 4
??G?$CEncrypt@M@@QAEMABM@Z PROC				; CEncrypt<float>::operator-, COMDAT
; _this$ = ecx

; 1665 : 	{	

  00000	55		 push	 ebp
  00001	8b ec		 mov	 ebp, esp
  00003	51		 push	 ecx

; 1666 : 		type value;
; 1667 : 		DecryptValueToPool(&value);

  00004	8d 45 fc	 lea	 eax, DWORD PTR _value$[ebp]
  00007	50		 push	 eax
  00008	e8 00 00 00 00	 call	 ?DecryptValueToPool@?$CEncrypt@M@@QAEXPAM@Z ; CEncrypt<float>::DecryptValueToPool

; 1668 : #ifdef _NOTUSE
; 1669 : 		Debug();
; 1670 : #endif
; 1671 : 		return value - inValue;

  0000d	d9 45 fc	 fld	 DWORD PTR _value$[ebp]
  00010	8b 45 08	 mov	 eax, DWORD PTR _inValue$[ebp]
  00013	d8 20		 fsub	 DWORD PTR [eax]
  00015	d9 5d 08	 fstp	 DWORD PTR tv130[ebp]
  00018	d9 45 08	 fld	 DWORD PTR tv130[ebp]

; 1672 : 	}

  0001b	c9		 leave
  0001c	c2 04 00	 ret	 4
??G?$CEncrypt@M@@QAEMABM@Z ENDP				; CEncrypt<float>::operator-
_TEXT	ENDS
PUBLIC	??D?$CEncrypt@M@@QAEMABM@Z			; CEncrypt<float>::operator*
; Function compile flags: /Ogsp
;	COMDAT ??D?$CEncrypt@M@@QAEMABM@Z
_TEXT	SEGMENT
_value$ = -4						; size = 4
tv130 = 8						; size = 4
_inValue$ = 8						; size = 4
??D?$CEncrypt@M@@QAEMABM@Z PROC				; CEncrypt<float>::operator*, COMDAT
; _this$ = ecx

; 1685 : 	{	

  00000	55		 push	 ebp
  00001	8b ec		 mov	 ebp, esp
  00003	51		 push	 ecx

; 1686 : 		type value;
; 1687 : 		DecryptValueToPool(&value);

  00004	8d 45 fc	 lea	 eax, DWORD PTR _value$[ebp]
  00007	50		 push	 eax
  00008	e8 00 00 00 00	 call	 ?DecryptValueToPool@?$CEncrypt@M@@QAEXPAM@Z ; CEncrypt<float>::DecryptValueToPool

; 1688 : #ifdef _NOTUSE
; 1689 : 		Debug();
; 1690 : #endif
; 1691 : 		return value * inValue;

  0000d	8b 45 08	 mov	 eax, DWORD PTR _inValue$[ebp]
  00010	d9 00		 fld	 DWORD PTR [eax]
  00012	d8 4d fc	 fmul	 DWORD PTR _value$[ebp]
  00015	d9 5d 08	 fstp	 DWORD PTR tv130[ebp]
  00018	d9 45 08	 fld	 DWORD PTR tv130[ebp]

; 1692 : 	}

  0001b	c9		 leave
  0001c	c2 04 00	 ret	 4
??D?$CEncrypt@M@@QAEMABM@Z ENDP				; CEncrypt<float>::operator*
_TEXT	ENDS
PUBLIC	??8?$CEncrypt@M@@QAE_NABM@Z			; CEncrypt<float>::operator==
; Function compile flags: /Ogsp
;	COMDAT ??8?$CEncrypt@M@@QAE_NABM@Z
_TEXT	SEGMENT
_value$ = -4						; size = 4
_inValue$ = 8						; size = 4
??8?$CEncrypt@M@@QAE_NABM@Z PROC			; CEncrypt<float>::operator==, COMDAT
; _this$ = ecx

; 1781 : 	{

  00000	55		 push	 ebp
  00001	8b ec		 mov	 ebp, esp
  00003	51		 push	 ecx

; 1782 : 		type value;
; 1783 : 		DecryptValueToPool(&value);

  00004	8d 45 fc	 lea	 eax, DWORD PTR _value$[ebp]
  00007	50		 push	 eax
  00008	e8 00 00 00 00	 call	 ?DecryptValueToPool@?$CEncrypt@M@@QAEXPAM@Z ; CEncrypt<float>::DecryptValueToPool

; 1784 : #ifdef _NOTUSE
; 1785 : 		Debug();
; 1786 : #endif
; 1787 : 		return (value == inValue);

  0000d	8b 45 08	 mov	 eax, DWORD PTR _inValue$[ebp]
  00010	f3 0f 10 08	 movss	 xmm1, DWORD PTR [eax]
  00014	f3 0f 10 45 fc	 movss	 xmm0, DWORD PTR _value$[ebp]
  00019	0f 5a c0	 cvtps2pd xmm0, xmm0
  0001c	0f 5a c9	 cvtps2pd xmm1, xmm1
  0001f	66 0f 2e c1	 ucomisd xmm0, xmm1
  00023	9f		 lahf
  00024	f6 c4 44	 test	 ah, 68			; 00000044H
  00027	7a 05		 jp	 SHORT $LN3@operator
  00029	33 c0		 xor	 eax, eax
  0002b	40		 inc	 eax
  0002c	eb 02		 jmp	 SHORT $LN4@operator
$LN3@operator:
  0002e	33 c0		 xor	 eax, eax
$LN4@operator:

; 1788 : 	} 

  00030	c9		 leave
  00031	c2 04 00	 ret	 4
??8?$CEncrypt@M@@QAE_NABM@Z ENDP			; CEncrypt<float>::operator==
_TEXT	ENDS
PUBLIC	??M?$CEncrypt@M@@QAE_NABM@Z			; CEncrypt<float>::operator<
; Function compile flags: /Ogsp
;	COMDAT ??M?$CEncrypt@M@@QAE_NABM@Z
_TEXT	SEGMENT
_value$ = -4						; size = 4
_inValue$ = 8						; size = 4
??M?$CEncrypt@M@@QAE_NABM@Z PROC			; CEncrypt<float>::operator<, COMDAT
; _this$ = ecx

; 1791 : 	{

  00000	55		 push	 ebp
  00001	8b ec		 mov	 ebp, esp
  00003	51		 push	 ecx

; 1792 : 		type value;
; 1793 : 		DecryptValueToPool(&value);

  00004	8d 45 fc	 lea	 eax, DWORD PTR _value$[ebp]
  00007	50		 push	 eax
  00008	e8 00 00 00 00	 call	 ?DecryptValueToPool@?$CEncrypt@M@@QAEXPAM@Z ; CEncrypt<float>::DecryptValueToPool

; 1794 : #ifdef _NOTUSE
; 1795 : 		Debug();
; 1796 : #endif
; 1797 : 		return (value < inValue);

  0000d	8b 45 08	 mov	 eax, DWORD PTR _inValue$[ebp]
  00010	f3 0f 10 08	 movss	 xmm1, DWORD PTR [eax]
  00014	f3 0f 10 45 fc	 movss	 xmm0, DWORD PTR _value$[ebp]
  00019	0f 5a c0	 cvtps2pd xmm0, xmm0
  0001c	0f 5a c9	 cvtps2pd xmm1, xmm1
  0001f	33 c0		 xor	 eax, eax
  00021	66 0f 2f c8	 comisd	 xmm1, xmm0
  00025	76 01		 jbe	 SHORT $LN4@operator@2
  00027	40		 inc	 eax
$LN4@operator@2:

; 1798 : 	} 

  00028	c9		 leave
  00029	c2 04 00	 ret	 4
??M?$CEncrypt@M@@QAE_NABM@Z ENDP			; CEncrypt<float>::operator<
_TEXT	ENDS
PUBLIC	?begin@?$vector@UWeaponInfo@@V?$allocator@UWeaponInfo@@@std@@@std@@QBE?AV?$_Vector_const_iterator@V?$_Vector_val@UWeaponInfo@@V?$allocator@UWeaponInfo@@@std@@@std@@@2@XZ ; std::vector<WeaponInfo,std::allocator<WeaponInfo> >::begin
; Function compile flags: /Ogsp
; File c:\program files (x86)\microsoft visual studio 10.0\vc\include\vector
;	COMDAT ?begin@?$vector@UWeaponInfo@@V?$allocator@UWeaponInfo@@@std@@@std@@QBE?AV?$_Vector_const_iterator@V?$_Vector_val@UWeaponInfo@@V?$allocator@UWeaponInfo@@@std@@@std@@@2@XZ
_TEXT	SEGMENT
___$ReturnUdt$ = 8					; size = 4
?begin@?$vector@UWeaponInfo@@V?$allocator@UWeaponInfo@@@std@@@std@@QBE?AV?$_Vector_const_iterator@V?$_Vector_val@UWeaponInfo@@V?$allocator@UWeaponInfo@@@std@@@std@@@2@XZ PROC ; std::vector<WeaponInfo,std::allocator<WeaponInfo> >::begin, COMDAT
; _this$ = ecx

; 786  : 		{	// return iterator for beginning of nonmutable sequence

  00000	55		 push	 ebp
  00001	8b ec		 mov	 ebp, esp

; 787  : 		return (const_iterator(this->_Myfirst, this));

  00003	8b 09		 mov	 ecx, DWORD PTR [ecx]
  00005	8b 45 08	 mov	 eax, DWORD PTR ___$ReturnUdt$[ebp]
  00008	89 08		 mov	 DWORD PTR [eax], ecx

; 788  : 		}

  0000a	5d		 pop	 ebp
  0000b	c2 04 00	 ret	 4
?begin@?$vector@UWeaponInfo@@V?$allocator@UWeaponInfo@@@std@@@std@@QBE?AV?$_Vector_const_iterator@V?$_Vector_val@UWeaponInfo@@V?$allocator@UWeaponInfo@@@std@@@std@@@2@XZ ENDP ; std::vector<WeaponInfo,std::allocator<WeaponInfo> >::begin
_TEXT	ENDS
PUBLIC	?end@?$vector@UWeaponInfo@@V?$allocator@UWeaponInfo@@@std@@@std@@QBE?AV?$_Vector_const_iterator@V?$_Vector_val@UWeaponInfo@@V?$allocator@UWeaponInfo@@@std@@@std@@@2@XZ ; std::vector<WeaponInfo,std::allocator<WeaponInfo> >::end
; Function compile flags: /Ogsp
;	COMDAT ?end@?$vector@UWeaponInfo@@V?$allocator@UWeaponInfo@@@std@@@std@@QBE?AV?$_Vector_const_iterator@V?$_Vector_val@UWeaponInfo@@V?$allocator@UWeaponInfo@@@std@@@std@@@2@XZ
_TEXT	SEGMENT
___$ReturnUdt$ = 8					; size = 4
?end@?$vector@UWeaponInfo@@V?$allocator@UWeaponInfo@@@std@@@std@@QBE?AV?$_Vector_const_iterator@V?$_Vector_val@UWeaponInfo@@V?$allocator@UWeaponInfo@@@std@@@std@@@2@XZ PROC ; std::vector<WeaponInfo,std::allocator<WeaponInfo> >::end, COMDAT
; _this$ = ecx

; 796  : 		{	// return iterator for end of nonmutable sequence

  00000	55		 push	 ebp
  00001	8b ec		 mov	 ebp, esp

; 797  : 		return (const_iterator(this->_Mylast, this));

  00003	8b 49 04	 mov	 ecx, DWORD PTR [ecx+4]
  00006	8b 45 08	 mov	 eax, DWORD PTR ___$ReturnUdt$[ebp]
  00009	89 08		 mov	 DWORD PTR [eax], ecx

; 798  : 		}

  0000b	5d		 pop	 ebp
  0000c	c2 04 00	 ret	 4
?end@?$vector@UWeaponInfo@@V?$allocator@UWeaponInfo@@@std@@@std@@QBE?AV?$_Vector_const_iterator@V?$_Vector_val@UWeaponInfo@@V?$allocator@UWeaponInfo@@@std@@@std@@@2@XZ ENDP ; std::vector<WeaponInfo,std::allocator<WeaponInfo> >::end
_TEXT	ENDS
PUBLIC	?begin@?$vector@UForceInfo@@V?$allocator@UForceInfo@@@std@@@std@@QBE?AV?$_Vector_const_iterator@V?$_Vector_val@UForceInfo@@V?$allocator@UForceInfo@@@std@@@std@@@2@XZ ; std::vector<ForceInfo,std::allocator<ForceInfo> >::begin
; Function compile flags: /Ogsp
;	COMDAT ?begin@?$vector@UForceInfo@@V?$allocator@UForceInfo@@@std@@@std@@QBE?AV?$_Vector_const_iterator@V?$_Vector_val@UForceInfo@@V?$allocator@UForceInfo@@@std@@@std@@@2@XZ
_TEXT	SEGMENT
___$ReturnUdt$ = 8					; size = 4
?begin@?$vector@UForceInfo@@V?$allocator@UForceInfo@@@std@@@std@@QBE?AV?$_Vector_const_iterator@V?$_Vector_val@UForceInfo@@V?$allocator@UForceInfo@@@std@@@std@@@2@XZ PROC ; std::vector<ForceInfo,std::allocator<ForceInfo> >::begin, COMDAT
; _this$ = ecx

; 786  : 		{	// return iterator for beginning of nonmutable sequence

  00000	55		 push	 ebp
  00001	8b ec		 mov	 ebp, esp

; 787  : 		return (const_iterator(this->_Myfirst, this));

  00003	8b 09		 mov	 ecx, DWORD PTR [ecx]
  00005	8b 45 08	 mov	 eax, DWORD PTR ___$ReturnUdt$[ebp]
  00008	89 08		 mov	 DWORD PTR [eax], ecx

; 788  : 		}

  0000a	5d		 pop	 ebp
  0000b	c2 04 00	 ret	 4
?begin@?$vector@UForceInfo@@V?$allocator@UForceInfo@@@std@@@std@@QBE?AV?$_Vector_const_iterator@V?$_Vector_val@UForceInfo@@V?$allocator@UForceInfo@@@std@@@std@@@2@XZ ENDP ; std::vector<ForceInfo,std::allocator<ForceInfo> >::begin
_TEXT	ENDS
PUBLIC	?end@?$vector@UForceInfo@@V?$allocator@UForceInfo@@@std@@@std@@QBE?AV?$_Vector_const_iterator@V?$_Vector_val@UForceInfo@@V?$allocator@UForceInfo@@@std@@@std@@@2@XZ ; std::vector<ForceInfo,std::allocator<ForceInfo> >::end
; Function compile flags: /Ogsp
;	COMDAT ?end@?$vector@UForceInfo@@V?$allocator@UForceInfo@@@std@@@std@@QBE?AV?$_Vector_const_iterator@V?$_Vector_val@UForceInfo@@V?$allocator@UForceInfo@@@std@@@std@@@2@XZ
_TEXT	SEGMENT
___$ReturnUdt$ = 8					; size = 4
?end@?$vector@UForceInfo@@V?$allocator@UForceInfo@@@std@@@std@@QBE?AV?$_Vector_const_iterator@V?$_Vector_val@UForceInfo@@V?$allocator@UForceInfo@@@std@@@std@@@2@XZ PROC ; std::vector<ForceInfo,std::allocator<ForceInfo> >::end, COMDAT
; _this$ = ecx

; 796  : 		{	// return iterator for end of nonmutable sequence

  00000	55		 push	 ebp
  00001	8b ec		 mov	 ebp, esp

; 797  : 		return (const_iterator(this->_Mylast, this));

  00003	8b 49 04	 mov	 ecx, DWORD PTR [ecx+4]
  00006	8b 45 08	 mov	 eax, DWORD PTR ___$ReturnUdt$[ebp]
  00009	89 08		 mov	 DWORD PTR [eax], ecx

; 798  : 		}

  0000b	5d		 pop	 ebp
  0000c	c2 04 00	 ret	 4
?end@?$vector@UForceInfo@@V?$allocator@UForceInfo@@@std@@@std@@QBE?AV?$_Vector_const_iterator@V?$_Vector_val@UForceInfo@@V?$allocator@UForceInfo@@@std@@@std@@@2@XZ ENDP ; std::vector<ForceInfo,std::allocator<ForceInfo> >::end
_TEXT	ENDS
PUBLIC	__$ArrayPad$
PUBLIC	??$LoadFloat_e@$09@ioINILoader@@QAEMAAY09$$CBDM@Z ; ioINILoader::LoadFloat_e<10>
EXTRN	__imp_?LoadFloat@ioINILoader@@QAEMPBDM@Z:PROC
; Function compile flags: /Ogsp
; File d:\lost saga for developer\youtube\tutorial\source\src\io3dengine\ioiniloader.h
;	COMDAT ??$LoadFloat_e@$09@ioINILoader@@QAEMAAY09$$CBDM@Z
_TEXT	SEGMENT
__k$ = -20						; size = 10
__$ArrayPad$ = -4					; size = 4
_k$ = 8							; size = 4
_f$ = 12						; size = 4
??$LoadFloat_e@$09@ioINILoader@@QAEMAAY09$$CBDM@Z PROC	; ioINILoader::LoadFloat_e<10>, COMDAT
; _this$ = ecx

; 135  : 	{

  00000	55		 push	 ebp
  00001	8b ec		 mov	 ebp, esp
  00003	83 ec 14	 sub	 esp, 20			; 00000014H
  00006	a1 00 00 00 00	 mov	 eax, DWORD PTR ___security_cookie
  0000b	33 c5		 xor	 eax, ebp
  0000d	89 45 fc	 mov	 DWORD PTR __$ArrayPad$[ebp], eax
  00010	8b 45 08	 mov	 eax, DWORD PTR _k$[ebp]

; 136  : 		_ENCSTR(k, _k);

  00013	8a 10		 mov	 dl, BYTE PTR [eax]
  00015	84 d2		 test	 dl, dl
  00017	0f 84 0d 01 00
	00		 je	 $LN96@LoadFloat_
  0001d	80 f2 ed	 xor	 dl, -19			; ffffffedH
  00020	88 55 ec	 mov	 BYTE PTR __k$[ebp], dl
  00023	8a 50 01	 mov	 dl, BYTE PTR [eax+1]
  00026	84 d2		 test	 dl, dl
  00028	0f 84 f6 00 00
	00		 je	 $LN95@LoadFloat_
  0002e	80 f2 ec	 xor	 dl, -20			; ffffffecH
  00031	88 55 ed	 mov	 BYTE PTR __k$[ebp+1], dl
  00034	8a 50 02	 mov	 dl, BYTE PTR [eax+2]
  00037	84 d2		 test	 dl, dl
  00039	0f 84 df 00 00
	00		 je	 $LN94@LoadFloat_
  0003f	80 f2 eb	 xor	 dl, -21			; ffffffebH
  00042	88 55 ee	 mov	 BYTE PTR __k$[ebp+2], dl
  00045	8a 50 03	 mov	 dl, BYTE PTR [eax+3]
  00048	84 d2		 test	 dl, dl
  0004a	0f 84 c8 00 00
	00		 je	 $LN93@LoadFloat_
  00050	80 f2 ea	 xor	 dl, -22			; ffffffeaH
  00053	88 55 ef	 mov	 BYTE PTR __k$[ebp+3], dl
  00056	8a 50 04	 mov	 dl, BYTE PTR [eax+4]
  00059	84 d2		 test	 dl, dl
  0005b	0f 84 b1 00 00
	00		 je	 $LN92@LoadFloat_
  00061	80 f2 ed	 xor	 dl, -19			; ffffffedH
  00064	88 55 f0	 mov	 BYTE PTR __k$[ebp+4], dl
  00067	8a 50 05	 mov	 dl, BYTE PTR [eax+5]
  0006a	84 d2		 test	 dl, dl
  0006c	0f 84 9a 00 00
	00		 je	 $LN91@LoadFloat_
  00072	80 f2 ec	 xor	 dl, -20			; ffffffecH
  00075	88 55 f1	 mov	 BYTE PTR __k$[ebp+5], dl
  00078	8a 50 06	 mov	 dl, BYTE PTR [eax+6]
  0007b	84 d2		 test	 dl, dl
  0007d	0f 84 83 00 00
	00		 je	 $LN90@LoadFloat_
  00083	80 f2 eb	 xor	 dl, -21			; ffffffebH
  00086	88 55 f2	 mov	 BYTE PTR __k$[ebp+6], dl
  00089	8a 50 07	 mov	 dl, BYTE PTR [eax+7]
  0008c	84 d2		 test	 dl, dl
  0008e	74 70		 je	 SHORT $LN89@LoadFloat_
  00090	80 f2 ea	 xor	 dl, -22			; ffffffeaH
  00093	88 55 f3	 mov	 BYTE PTR __k$[ebp+7], dl
  00096	8a 50 08	 mov	 dl, BYTE PTR [eax+8]
  00099	84 d2		 test	 dl, dl
  0009b	74 5d		 je	 SHORT $LN88@LoadFloat_
  0009d	80 f2 ed	 xor	 dl, -19			; ffffffedH
  000a0	80 78 09 00	 cmp	 BYTE PTR [eax+9], 0
  000a4	88 55 f4	 mov	 BYTE PTR __k$[ebp+8], dl
  000a7	0f 84 81 00 00
	00		 je	 $LN1@LoadFloat_
  000ad	8a 50 0a	 mov	 dl, BYTE PTR [eax+10]
  000b0	84 d2		 test	 dl, dl
  000b2	74 40		 je	 SHORT $LN86@LoadFloat_
  000b4	80 f2 eb	 xor	 dl, -21			; ffffffebH
  000b7	88 55 f6	 mov	 BYTE PTR __k$[ebp+10], dl
  000ba	8a 50 0b	 mov	 dl, BYTE PTR [eax+11]
  000bd	84 d2		 test	 dl, dl
  000bf	74 2d		 je	 SHORT $LN85@LoadFloat_
  000c1	80 f2 ea	 xor	 dl, -22			; ffffffeaH
  000c4	88 55 f7	 mov	 BYTE PTR __k$[ebp+11], dl
  000c7	8a 50 0c	 mov	 dl, BYTE PTR [eax+12]
  000ca	84 d2		 test	 dl, dl
  000cc	74 1a		 je	 SHORT $LN84@LoadFloat_
  000ce	8a 40 0d	 mov	 al, BYTE PTR [eax+13]
  000d1	80 f2 ed	 xor	 dl, -19			; ffffffedH
  000d4	88 55 f8	 mov	 BYTE PTR __k$[ebp+12], dl
  000d7	84 c0		 test	 al, al
  000d9	74 07		 je	 SHORT $LN83@LoadFloat_
  000db	34 ec		 xor	 al, -20			; ffffffecH
  000dd	88 45 f9	 mov	 BYTE PTR __k$[ebp+13], al
  000e0	eb 4c		 jmp	 SHORT $LN1@LoadFloat_
$LN83@LoadFloat_:
  000e2	c6 45 f9 ec	 mov	 BYTE PTR __k$[ebp+13], -20 ; ffffffecH
  000e6	eb 46		 jmp	 SHORT $LN1@LoadFloat_
$LN84@LoadFloat_:
  000e8	c6 45 f8 ed	 mov	 BYTE PTR __k$[ebp+12], -19 ; ffffffedH
  000ec	eb 40		 jmp	 SHORT $LN1@LoadFloat_
$LN85@LoadFloat_:
  000ee	c6 45 f7 ea	 mov	 BYTE PTR __k$[ebp+11], -22 ; ffffffeaH
  000f2	eb 3a		 jmp	 SHORT $LN1@LoadFloat_
$LN86@LoadFloat_:
  000f4	c6 45 f6 eb	 mov	 BYTE PTR __k$[ebp+10], -21 ; ffffffebH
  000f8	eb 34		 jmp	 SHORT $LN1@LoadFloat_
$LN88@LoadFloat_:
  000fa	c6 45 f4 ed	 mov	 BYTE PTR __k$[ebp+8], -19 ; ffffffedH
  000fe	eb 2e		 jmp	 SHORT $LN1@LoadFloat_
$LN89@LoadFloat_:
  00100	c6 45 f3 ea	 mov	 BYTE PTR __k$[ebp+7], -22 ; ffffffeaH
  00104	eb 28		 jmp	 SHORT $LN1@LoadFloat_
$LN90@LoadFloat_:
  00106	c6 45 f2 eb	 mov	 BYTE PTR __k$[ebp+6], -21 ; ffffffebH
  0010a	eb 22		 jmp	 SHORT $LN1@LoadFloat_
$LN91@LoadFloat_:
  0010c	c6 45 f1 ec	 mov	 BYTE PTR __k$[ebp+5], -20 ; ffffffecH
  00110	eb 1c		 jmp	 SHORT $LN1@LoadFloat_
$LN92@LoadFloat_:
  00112	c6 45 f0 ed	 mov	 BYTE PTR __k$[ebp+4], -19 ; ffffffedH
  00116	eb 16		 jmp	 SHORT $LN1@LoadFloat_
$LN93@LoadFloat_:
  00118	c6 45 ef ea	 mov	 BYTE PTR __k$[ebp+3], -22 ; ffffffeaH
  0011c	eb 10		 jmp	 SHORT $LN1@LoadFloat_
$LN94@LoadFloat_:
  0011e	c6 45 ee eb	 mov	 BYTE PTR __k$[ebp+2], -21 ; ffffffebH
  00122	eb 0a		 jmp	 SHORT $LN1@LoadFloat_
$LN95@LoadFloat_:
  00124	c6 45 ed ec	 mov	 BYTE PTR __k$[ebp+1], -20 ; ffffffecH
  00128	eb 04		 jmp	 SHORT $LN1@LoadFloat_
$LN96@LoadFloat_:
  0012a	c6 45 ec ed	 mov	 BYTE PTR __k$[ebp], -19	; ffffffedH
$LN1@LoadFloat_:
  0012e	6a 02		 push	 2
  00130	8d 45 ec	 lea	 eax, DWORD PTR __k$[ebp]
  00133	c6 45 f5 00	 mov	 BYTE PTR __k$[ebp+9], 0
  00137	5a		 pop	 edx
$LL104@LoadFloat_:
  00138	81 30 ed ec eb
	ea		 xor	 DWORD PTR [eax], -353637139 ; eaebecedH
  0013e	83 c0 04	 add	 eax, 4
  00141	4a		 dec	 edx
  00142	75 f4		 jne	 SHORT $LL104@LoadFloat_

; 137  : 		return LoadFloat(_k, f);

  00144	f3 0f 10 45 0c	 movss	 xmm0, DWORD PTR _f$[ebp]
  00149	80 75 f4 ed	 xor	 BYTE PTR __k$[ebp+8], -19 ; ffffffedH
  0014d	51		 push	 ecx
  0014e	8d 45 ec	 lea	 eax, DWORD PTR __k$[ebp]
  00151	f3 0f 11 04 24	 movss	 DWORD PTR [esp], xmm0
  00156	50		 push	 eax
  00157	ff 15 00 00 00
	00		 call	 DWORD PTR __imp_?LoadFloat@ioINILoader@@QAEMPBDM@Z

; 138  : 	}

  0015d	8b 4d fc	 mov	 ecx, DWORD PTR __$ArrayPad$[ebp]
  00160	33 cd		 xor	 ecx, ebp
  00162	e8 00 00 00 00	 call	 @__security_check_cookie@4
  00167	c9		 leave
  00168	c2 08 00	 ret	 8
??$LoadFloat_e@$09@ioINILoader@@QAEMAAY09$$CBDM@Z ENDP	; ioINILoader::LoadFloat_e<10>
_TEXT	ENDS
PUBLIC	__$ArrayPad$
PUBLIC	??$LoadFloat_e@$0P@@ioINILoader@@QAEMAAY0P@$$CBDM@Z ; ioINILoader::LoadFloat_e<15>
; Function compile flags: /Ogsp
;	COMDAT ??$LoadFloat_e@$0P@@ioINILoader@@QAEMAAY0P@$$CBDM@Z
_TEXT	SEGMENT
__k$ = -24						; size = 15
__$ArrayPad$ = -4					; size = 4
_k$ = 8							; size = 4
_f$ = 12						; size = 4
??$LoadFloat_e@$0P@@ioINILoader@@QAEMAAY0P@$$CBDM@Z PROC ; ioINILoader::LoadFloat_e<15>, COMDAT
; _this$ = ecx

; 135  : 	{

  00000	55		 push	 ebp
  00001	8b ec		 mov	 ebp, esp
  00003	83 ec 18	 sub	 esp, 24			; 00000018H
  00006	a1 00 00 00 00	 mov	 eax, DWORD PTR ___security_cookie
  0000b	33 c5		 xor	 eax, ebp
  0000d	89 45 fc	 mov	 DWORD PTR __$ArrayPad$[ebp], eax
  00010	8b 45 08	 mov	 eax, DWORD PTR _k$[ebp]

; 136  : 		_ENCSTR(k, _k);

  00013	8a 10		 mov	 dl, BYTE PTR [eax]
  00015	56		 push	 esi
  00016	8b f1		 mov	 esi, ecx
  00018	84 d2		 test	 dl, dl
  0001a	0f 84 75 01 00
	00		 je	 $LN96@LoadFloat_@2
  00020	80 f2 ed	 xor	 dl, -19			; ffffffedH
  00023	88 55 e8	 mov	 BYTE PTR __k$[ebp], dl
  00026	8a 50 01	 mov	 dl, BYTE PTR [eax+1]
  00029	84 d2		 test	 dl, dl
  0002b	0f 84 5e 01 00
	00		 je	 $LN95@LoadFloat_@2
  00031	b1 ec		 mov	 cl, -20			; ffffffecH
  00033	32 d1		 xor	 dl, cl
  00035	88 55 e9	 mov	 BYTE PTR __k$[ebp+1], dl
  00038	8a 50 02	 mov	 dl, BYTE PTR [eax+2]
  0003b	84 d2		 test	 dl, dl
  0003d	0f 84 46 01 00
	00		 je	 $LN94@LoadFloat_@2
  00043	80 f2 eb	 xor	 dl, -21			; ffffffebH
  00046	88 55 ea	 mov	 BYTE PTR __k$[ebp+2], dl
  00049	8a 50 03	 mov	 dl, BYTE PTR [eax+3]
  0004c	84 d2		 test	 dl, dl
  0004e	0f 84 2f 01 00
	00		 je	 $LN93@LoadFloat_@2
  00054	80 f2 ea	 xor	 dl, -22			; ffffffeaH
  00057	88 55 eb	 mov	 BYTE PTR __k$[ebp+3], dl
  0005a	8a 50 04	 mov	 dl, BYTE PTR [eax+4]
  0005d	84 d2		 test	 dl, dl
  0005f	0f 84 18 01 00
	00		 je	 $LN92@LoadFloat_@2
  00065	80 f2 ed	 xor	 dl, -19			; ffffffedH
  00068	88 55 ec	 mov	 BYTE PTR __k$[ebp+4], dl
  0006b	8a 50 05	 mov	 dl, BYTE PTR [eax+5]
  0006e	84 d2		 test	 dl, dl
  00070	0f 84 02 01 00
	00		 je	 $LN91@LoadFloat_@2
  00076	32 d1		 xor	 dl, cl
  00078	88 55 ed	 mov	 BYTE PTR __k$[ebp+5], dl
  0007b	8a 50 06	 mov	 dl, BYTE PTR [eax+6]
  0007e	84 d2		 test	 dl, dl
  00080	0f 84 ec 00 00
	00		 je	 $LN90@LoadFloat_@2
  00086	80 f2 eb	 xor	 dl, -21			; ffffffebH
  00089	88 55 ee	 mov	 BYTE PTR __k$[ebp+6], dl
  0008c	8a 50 07	 mov	 dl, BYTE PTR [eax+7]
  0008f	84 d2		 test	 dl, dl
  00091	0f 84 d5 00 00
	00		 je	 $LN89@LoadFloat_@2
  00097	80 f2 ea	 xor	 dl, -22			; ffffffeaH
  0009a	88 55 ef	 mov	 BYTE PTR __k$[ebp+7], dl
  0009d	8a 50 08	 mov	 dl, BYTE PTR [eax+8]
  000a0	84 d2		 test	 dl, dl
  000a2	0f 84 be 00 00
	00		 je	 $LN88@LoadFloat_@2
  000a8	80 f2 ed	 xor	 dl, -19			; ffffffedH
  000ab	88 55 f0	 mov	 BYTE PTR __k$[ebp+8], dl
  000ae	8a 50 09	 mov	 dl, BYTE PTR [eax+9]
  000b1	84 d2		 test	 dl, dl
  000b3	0f 84 a8 00 00
	00		 je	 $LN87@LoadFloat_@2
  000b9	32 d1		 xor	 dl, cl
  000bb	88 55 f1	 mov	 BYTE PTR __k$[ebp+9], dl
  000be	8a 50 0a	 mov	 dl, BYTE PTR [eax+10]
  000c1	84 d2		 test	 dl, dl
  000c3	0f 84 92 00 00
	00		 je	 $LN86@LoadFloat_@2
  000c9	80 f2 eb	 xor	 dl, -21			; ffffffebH
  000cc	88 55 f2	 mov	 BYTE PTR __k$[ebp+10], dl
  000cf	8a 50 0b	 mov	 dl, BYTE PTR [eax+11]
  000d2	84 d2		 test	 dl, dl
  000d4	74 7f		 je	 SHORT $LN85@LoadFloat_@2
  000d6	80 f2 ea	 xor	 dl, -22			; ffffffeaH
  000d9	88 55 f3	 mov	 BYTE PTR __k$[ebp+11], dl
  000dc	8a 50 0c	 mov	 dl, BYTE PTR [eax+12]
  000df	84 d2		 test	 dl, dl
  000e1	74 6c		 je	 SHORT $LN84@LoadFloat_@2
  000e3	80 f2 ed	 xor	 dl, -19			; ffffffedH
  000e6	88 55 f4	 mov	 BYTE PTR __k$[ebp+12], dl
  000e9	8a 50 0d	 mov	 dl, BYTE PTR [eax+13]
  000ec	84 d2		 test	 dl, dl
  000ee	74 5a		 je	 SHORT $LN83@LoadFloat_@2
  000f0	32 d1		 xor	 dl, cl
  000f2	80 78 0e 00	 cmp	 BYTE PTR [eax+14], 0
  000f6	88 55 f5	 mov	 BYTE PTR __k$[ebp+13], dl
  000f9	0f 84 9a 00 00
	00		 je	 $LN1@LoadFloat_@2
  000ff	8a 50 0f	 mov	 dl, BYTE PTR [eax+15]
  00102	84 d2		 test	 dl, dl
  00104	74 3e		 je	 SHORT $LN81@LoadFloat_@2
  00106	80 f2 ea	 xor	 dl, -22			; ffffffeaH
  00109	88 55 f7	 mov	 BYTE PTR __k$[ebp+15], dl
  0010c	8a 50 10	 mov	 dl, BYTE PTR [eax+16]
  0010f	84 d2		 test	 dl, dl
  00111	74 2b		 je	 SHORT $LN80@LoadFloat_@2
  00113	80 f2 ed	 xor	 dl, -19			; ffffffedH
  00116	88 55 f8	 mov	 BYTE PTR __k$[ebp+16], dl
  00119	8a 50 11	 mov	 dl, BYTE PTR [eax+17]
  0011c	84 d2		 test	 dl, dl
  0011e	74 19		 je	 SHORT $LN79@LoadFloat_@2
  00120	8a 40 12	 mov	 al, BYTE PTR [eax+18]
  00123	32 d1		 xor	 dl, cl
  00125	88 55 f9	 mov	 BYTE PTR __k$[ebp+17], dl
  00128	84 c0		 test	 al, al
  0012a	74 07		 je	 SHORT $LN78@LoadFloat_@2
  0012c	34 eb		 xor	 al, -21			; ffffffebH
  0012e	88 45 fa	 mov	 BYTE PTR __k$[ebp+18], al
  00131	eb 66		 jmp	 SHORT $LN1@LoadFloat_@2
$LN78@LoadFloat_@2:
  00133	c6 45 fa eb	 mov	 BYTE PTR __k$[ebp+18], -21 ; ffffffebH
  00137	eb 60		 jmp	 SHORT $LN1@LoadFloat_@2
$LN79@LoadFloat_@2:
  00139	88 4d f9	 mov	 BYTE PTR __k$[ebp+17], cl
  0013c	eb 5b		 jmp	 SHORT $LN1@LoadFloat_@2
$LN80@LoadFloat_@2:
  0013e	c6 45 f8 ed	 mov	 BYTE PTR __k$[ebp+16], -19 ; ffffffedH
  00142	eb 55		 jmp	 SHORT $LN1@LoadFloat_@2
$LN81@LoadFloat_@2:
  00144	c6 45 f7 ea	 mov	 BYTE PTR __k$[ebp+15], -22 ; ffffffeaH
  00148	eb 4f		 jmp	 SHORT $LN1@LoadFloat_@2
$LN83@LoadFloat_@2:
  0014a	88 4d f5	 mov	 BYTE PTR __k$[ebp+13], cl
  0014d	eb 4a		 jmp	 SHORT $LN1@LoadFloat_@2
$LN84@LoadFloat_@2:
  0014f	c6 45 f4 ed	 mov	 BYTE PTR __k$[ebp+12], -19 ; ffffffedH
  00153	eb 44		 jmp	 SHORT $LN1@LoadFloat_@2
$LN85@LoadFloat_@2:
  00155	c6 45 f3 ea	 mov	 BYTE PTR __k$[ebp+11], -22 ; ffffffeaH
  00159	eb 3e		 jmp	 SHORT $LN1@LoadFloat_@2
$LN86@LoadFloat_@2:
  0015b	c6 45 f2 eb	 mov	 BYTE PTR __k$[ebp+10], -21 ; ffffffebH
  0015f	eb 38		 jmp	 SHORT $LN1@LoadFloat_@2
$LN87@LoadFloat_@2:
  00161	88 4d f1	 mov	 BYTE PTR __k$[ebp+9], cl
  00164	eb 33		 jmp	 SHORT $LN1@LoadFloat_@2
$LN88@LoadFloat_@2:
  00166	c6 45 f0 ed	 mov	 BYTE PTR __k$[ebp+8], -19 ; ffffffedH
  0016a	eb 2d		 jmp	 SHORT $LN1@LoadFloat_@2
$LN89@LoadFloat_@2:
  0016c	c6 45 ef ea	 mov	 BYTE PTR __k$[ebp+7], -22 ; ffffffeaH
  00170	eb 27		 jmp	 SHORT $LN1@LoadFloat_@2
$LN90@LoadFloat_@2:
  00172	c6 45 ee eb	 mov	 BYTE PTR __k$[ebp+6], -21 ; ffffffebH
  00176	eb 21		 jmp	 SHORT $LN1@LoadFloat_@2
$LN91@LoadFloat_@2:
  00178	88 4d ed	 mov	 BYTE PTR __k$[ebp+5], cl
  0017b	eb 1c		 jmp	 SHORT $LN1@LoadFloat_@2
$LN92@LoadFloat_@2:
  0017d	c6 45 ec ed	 mov	 BYTE PTR __k$[ebp+4], -19 ; ffffffedH
  00181	eb 16		 jmp	 SHORT $LN1@LoadFloat_@2
$LN93@LoadFloat_@2:
  00183	c6 45 eb ea	 mov	 BYTE PTR __k$[ebp+3], -22 ; ffffffeaH
  00187	eb 10		 jmp	 SHORT $LN1@LoadFloat_@2
$LN94@LoadFloat_@2:
  00189	c6 45 ea eb	 mov	 BYTE PTR __k$[ebp+2], -21 ; ffffffebH
  0018d	eb 0a		 jmp	 SHORT $LN1@LoadFloat_@2
$LN95@LoadFloat_@2:
  0018f	c6 45 e9 ec	 mov	 BYTE PTR __k$[ebp+1], -20 ; ffffffecH
  00193	eb 04		 jmp	 SHORT $LN1@LoadFloat_@2
$LN96@LoadFloat_@2:
  00195	c6 45 e8 ed	 mov	 BYTE PTR __k$[ebp], -19	; ffffffedH
$LN1@LoadFloat_@2:
  00199	6a 03		 push	 3
  0019b	8d 45 e8	 lea	 eax, DWORD PTR __k$[ebp]
  0019e	c6 45 f6 00	 mov	 BYTE PTR __k$[ebp+14], 0
  001a2	5a		 pop	 edx
$LL104@LoadFloat_@2:
  001a3	81 30 ed ec eb
	ea		 xor	 DWORD PTR [eax], -353637139 ; eaebecedH
  001a9	83 c0 04	 add	 eax, 4
  001ac	4a		 dec	 edx
  001ad	75 f4		 jne	 SHORT $LL104@LoadFloat_@2
  001af	6a 0c		 push	 12			; 0000000cH
  001b1	58		 pop	 eax
$LL101@LoadFloat_@2:
  001b2	8b c8		 mov	 ecx, eax
  001b4	81 e1 03 00 00
	80		 and	 ecx, -2147483645	; 80000003H
  001ba	79 05		 jns	 SHORT $LN111@LoadFloat_@2
  001bc	49		 dec	 ecx
  001bd	83 c9 fc	 or	 ecx, -4			; fffffffcH
  001c0	41		 inc	 ecx
$LN111@LoadFloat_@2:
  001c1	b2 ed		 mov	 dl, -19			; ffffffedH
  001c3	2a d1		 sub	 dl, cl
  001c5	30 54 05 e8	 xor	 BYTE PTR __k$[ebp+eax], dl
  001c9	40		 inc	 eax
  001ca	83 f8 0e	 cmp	 eax, 14			; 0000000eH
  001cd	7c e3		 jl	 SHORT $LL101@LoadFloat_@2

; 137  : 		return LoadFloat(_k, f);

  001cf	f3 0f 10 45 0c	 movss	 xmm0, DWORD PTR _f$[ebp]
  001d4	51		 push	 ecx
  001d5	8d 45 e8	 lea	 eax, DWORD PTR __k$[ebp]
  001d8	f3 0f 11 04 24	 movss	 DWORD PTR [esp], xmm0
  001dd	50		 push	 eax
  001de	8b ce		 mov	 ecx, esi
  001e0	ff 15 00 00 00
	00		 call	 DWORD PTR __imp_?LoadFloat@ioINILoader@@QAEMPBDM@Z

; 138  : 	}

  001e6	8b 4d fc	 mov	 ecx, DWORD PTR __$ArrayPad$[ebp]
  001e9	33 cd		 xor	 ecx, ebp
  001eb	5e		 pop	 esi
  001ec	e8 00 00 00 00	 call	 @__security_check_cookie@4
  001f1	c9		 leave
  001f2	c2 08 00	 ret	 8
??$LoadFloat_e@$0P@@ioINILoader@@QAEMAAY0P@$$CBDM@Z ENDP ; ioINILoader::LoadFloat_e<15>
_TEXT	ENDS
PUBLIC	__$ArrayPad$
PUBLIC	??$LoadFloat_e@$0BG@@ioINILoader@@QAEMAAY0BG@$$CBDM@Z ; ioINILoader::LoadFloat_e<22>
; Function compile flags: /Ogsp
;	COMDAT ??$LoadFloat_e@$0BG@@ioINILoader@@QAEMAAY0BG@$$CBDM@Z
_TEXT	SEGMENT
__k$ = -32						; size = 22
__$ArrayPad$ = -4					; size = 4
_k$ = 8							; size = 4
_f$ = 12						; size = 4
??$LoadFloat_e@$0BG@@ioINILoader@@QAEMAAY0BG@$$CBDM@Z PROC ; ioINILoader::LoadFloat_e<22>, COMDAT
; _this$ = ecx

; 135  : 	{

  00000	55		 push	 ebp
  00001	8b ec		 mov	 ebp, esp
  00003	83 ec 20	 sub	 esp, 32			; 00000020H
  00006	a1 00 00 00 00	 mov	 eax, DWORD PTR ___security_cookie
  0000b	33 c5		 xor	 eax, ebp
  0000d	89 45 fc	 mov	 DWORD PTR __$ArrayPad$[ebp], eax
  00010	8b 45 08	 mov	 eax, DWORD PTR _k$[ebp]

; 136  : 		_ENCSTR(k, _k);

  00013	8a 10		 mov	 dl, BYTE PTR [eax]
  00015	53		 push	 ebx
  00016	56		 push	 esi
  00017	8b f1		 mov	 esi, ecx
  00019	84 d2		 test	 dl, dl
  0001b	0f 84 15 02 00
	00		 je	 $LN96@LoadFloat_@3
  00021	80 f2 ed	 xor	 dl, -19			; ffffffedH
  00024	88 55 e0	 mov	 BYTE PTR __k$[ebp], dl
  00027	8a 50 01	 mov	 dl, BYTE PTR [eax+1]
  0002a	84 d2		 test	 dl, dl
  0002c	0f 84 fe 01 00
	00		 je	 $LN95@LoadFloat_@3
  00032	80 f2 ec	 xor	 dl, -20			; ffffffecH
  00035	88 55 e1	 mov	 BYTE PTR __k$[ebp+1], dl
  00038	8a 50 02	 mov	 dl, BYTE PTR [eax+2]
  0003b	84 d2		 test	 dl, dl
  0003d	0f 84 e7 01 00
	00		 je	 $LN94@LoadFloat_@3
  00043	b1 eb		 mov	 cl, -21			; ffffffebH
  00045	32 d1		 xor	 dl, cl
  00047	88 55 e2	 mov	 BYTE PTR __k$[ebp+2], dl
  0004a	8a 50 03	 mov	 dl, BYTE PTR [eax+3]
  0004d	84 d2		 test	 dl, dl
  0004f	0f 84 cf 01 00
	00		 je	 $LN93@LoadFloat_@3
  00055	b3 ea		 mov	 bl, -22			; ffffffeaH
  00057	32 d3		 xor	 dl, bl
  00059	88 55 e3	 mov	 BYTE PTR __k$[ebp+3], dl
  0005c	8a 50 04	 mov	 dl, BYTE PTR [eax+4]
  0005f	84 d2		 test	 dl, dl
  00061	0f 84 b7 01 00
	00		 je	 $LN92@LoadFloat_@3
  00067	80 f2 ed	 xor	 dl, -19			; ffffffedH
  0006a	88 55 e4	 mov	 BYTE PTR __k$[ebp+4], dl
  0006d	8a 50 05	 mov	 dl, BYTE PTR [eax+5]
  00070	84 d2		 test	 dl, dl
  00072	0f 84 a0 01 00
	00		 je	 $LN91@LoadFloat_@3
  00078	80 f2 ec	 xor	 dl, -20			; ffffffecH
  0007b	88 55 e5	 mov	 BYTE PTR __k$[ebp+5], dl
  0007e	8a 50 06	 mov	 dl, BYTE PTR [eax+6]
  00081	84 d2		 test	 dl, dl
  00083	0f 84 8a 01 00
	00		 je	 $LN90@LoadFloat_@3
  00089	32 d1		 xor	 dl, cl
  0008b	88 55 e6	 mov	 BYTE PTR __k$[ebp+6], dl
  0008e	8a 50 07	 mov	 dl, BYTE PTR [eax+7]
  00091	84 d2		 test	 dl, dl
  00093	0f 84 75 01 00
	00		 je	 $LN89@LoadFloat_@3
  00099	32 d3		 xor	 dl, bl
  0009b	88 55 e7	 mov	 BYTE PTR __k$[ebp+7], dl
  0009e	8a 50 08	 mov	 dl, BYTE PTR [eax+8]
  000a1	84 d2		 test	 dl, dl
  000a3	0f 84 5f 01 00
	00		 je	 $LN88@LoadFloat_@3
  000a9	80 f2 ed	 xor	 dl, -19			; ffffffedH
  000ac	88 55 e8	 mov	 BYTE PTR __k$[ebp+8], dl
  000af	8a 50 09	 mov	 dl, BYTE PTR [eax+9]
  000b2	84 d2		 test	 dl, dl
  000b4	0f 84 48 01 00
	00		 je	 $LN87@LoadFloat_@3
  000ba	80 f2 ec	 xor	 dl, -20			; ffffffecH
  000bd	88 55 e9	 mov	 BYTE PTR __k$[ebp+9], dl
  000c0	8a 50 0a	 mov	 dl, BYTE PTR [eax+10]
  000c3	84 d2		 test	 dl, dl
  000c5	0f 84 32 01 00
	00		 je	 $LN86@LoadFloat_@3
  000cb	32 d1		 xor	 dl, cl
  000cd	88 55 ea	 mov	 BYTE PTR __k$[ebp+10], dl
  000d0	8a 50 0b	 mov	 dl, BYTE PTR [eax+11]
  000d3	84 d2		 test	 dl, dl
  000d5	0f 84 1d 01 00
	00		 je	 $LN85@LoadFloat_@3
  000db	32 d3		 xor	 dl, bl
  000dd	88 55 eb	 mov	 BYTE PTR __k$[ebp+11], dl
  000e0	8a 50 0c	 mov	 dl, BYTE PTR [eax+12]
  000e3	84 d2		 test	 dl, dl
  000e5	0f 84 07 01 00
	00		 je	 $LN84@LoadFloat_@3
  000eb	80 f2 ed	 xor	 dl, -19			; ffffffedH
  000ee	88 55 ec	 mov	 BYTE PTR __k$[ebp+12], dl
  000f1	8a 50 0d	 mov	 dl, BYTE PTR [eax+13]
  000f4	84 d2		 test	 dl, dl
  000f6	0f 84 f0 00 00
	00		 je	 $LN83@LoadFloat_@3
  000fc	80 f2 ec	 xor	 dl, -20			; ffffffecH
  000ff	88 55 ed	 mov	 BYTE PTR __k$[ebp+13], dl
  00102	8a 50 0e	 mov	 dl, BYTE PTR [eax+14]
  00105	84 d2		 test	 dl, dl
  00107	0f 84 da 00 00
	00		 je	 $LN82@LoadFloat_@3
  0010d	32 d1		 xor	 dl, cl
  0010f	88 55 ee	 mov	 BYTE PTR __k$[ebp+14], dl
  00112	8a 50 0f	 mov	 dl, BYTE PTR [eax+15]
  00115	84 d2		 test	 dl, dl
  00117	0f 84 c5 00 00
	00		 je	 $LN81@LoadFloat_@3
  0011d	32 d3		 xor	 dl, bl
  0011f	88 55 ef	 mov	 BYTE PTR __k$[ebp+15], dl
  00122	8a 50 10	 mov	 dl, BYTE PTR [eax+16]
  00125	84 d2		 test	 dl, dl
  00127	0f 84 af 00 00
	00		 je	 $LN80@LoadFloat_@3
  0012d	80 f2 ed	 xor	 dl, -19			; ffffffedH
  00130	88 55 f0	 mov	 BYTE PTR __k$[ebp+16], dl
  00133	8a 50 11	 mov	 dl, BYTE PTR [eax+17]
  00136	84 d2		 test	 dl, dl
  00138	0f 84 98 00 00
	00		 je	 $LN79@LoadFloat_@3
  0013e	80 f2 ec	 xor	 dl, -20			; ffffffecH
  00141	88 55 f1	 mov	 BYTE PTR __k$[ebp+17], dl
  00144	8a 50 12	 mov	 dl, BYTE PTR [eax+18]
  00147	84 d2		 test	 dl, dl
  00149	0f 84 82 00 00
	00		 je	 $LN78@LoadFloat_@3
  0014f	32 d1		 xor	 dl, cl
  00151	88 55 f2	 mov	 BYTE PTR __k$[ebp+18], dl
  00154	8a 50 13	 mov	 dl, BYTE PTR [eax+19]
  00157	84 d2		 test	 dl, dl
  00159	74 71		 je	 SHORT $LN77@LoadFloat_@3
  0015b	32 d3		 xor	 dl, bl
  0015d	88 55 f3	 mov	 BYTE PTR __k$[ebp+19], dl
  00160	8a 50 14	 mov	 dl, BYTE PTR [eax+20]
  00163	84 d2		 test	 dl, dl
  00165	74 5f		 je	 SHORT $LN76@LoadFloat_@3
  00167	80 f2 ed	 xor	 dl, -19			; ffffffedH
  0016a	80 78 15 00	 cmp	 BYTE PTR [eax+21], 0
  0016e	88 55 f4	 mov	 BYTE PTR __k$[ebp+20], dl
  00171	0f 84 c3 00 00
	00		 je	 $LN1@LoadFloat_@3
  00177	8a 50 16	 mov	 dl, BYTE PTR [eax+22]
  0017a	84 d2		 test	 dl, dl
  0017c	74 43		 je	 SHORT $LN74@LoadFloat_@3
  0017e	32 d1		 xor	 dl, cl
  00180	88 55 f6	 mov	 BYTE PTR __k$[ebp+22], dl
  00183	8a 50 17	 mov	 dl, BYTE PTR [eax+23]
  00186	84 d2		 test	 dl, dl
  00188	74 32		 je	 SHORT $LN73@LoadFloat_@3
  0018a	32 d3		 xor	 dl, bl
  0018c	88 55 f7	 mov	 BYTE PTR __k$[ebp+23], dl
  0018f	8a 50 18	 mov	 dl, BYTE PTR [eax+24]
  00192	84 d2		 test	 dl, dl
  00194	74 20		 je	 SHORT $LN72@LoadFloat_@3
  00196	8a 40 19	 mov	 al, BYTE PTR [eax+25]
  00199	80 f2 ed	 xor	 dl, -19			; ffffffedH
  0019c	88 55 f8	 mov	 BYTE PTR __k$[ebp+24], dl
  0019f	84 c0		 test	 al, al
  001a1	74 0a		 je	 SHORT $LN71@LoadFloat_@3
  001a3	34 ec		 xor	 al, -20			; ffffffecH
  001a5	88 45 f9	 mov	 BYTE PTR __k$[ebp+25], al
  001a8	e9 8d 00 00 00	 jmp	 $LN1@LoadFloat_@3
$LN71@LoadFloat_@3:
  001ad	c6 45 f9 ec	 mov	 BYTE PTR __k$[ebp+25], -20 ; ffffffecH
  001b1	e9 84 00 00 00	 jmp	 $LN1@LoadFloat_@3
$LN72@LoadFloat_@3:
  001b6	c6 45 f8 ed	 mov	 BYTE PTR __k$[ebp+24], -19 ; ffffffedH
  001ba	eb 7e		 jmp	 SHORT $LN1@LoadFloat_@3
$LN73@LoadFloat_@3:
  001bc	88 5d f7	 mov	 BYTE PTR __k$[ebp+23], bl
  001bf	eb 79		 jmp	 SHORT $LN1@LoadFloat_@3
$LN74@LoadFloat_@3:
  001c1	88 4d f6	 mov	 BYTE PTR __k$[ebp+22], cl
  001c4	eb 74		 jmp	 SHORT $LN1@LoadFloat_@3
$LN76@LoadFloat_@3:
  001c6	c6 45 f4 ed	 mov	 BYTE PTR __k$[ebp+20], -19 ; ffffffedH
  001ca	eb 6e		 jmp	 SHORT $LN1@LoadFloat_@3
$LN77@LoadFloat_@3:
  001cc	88 5d f3	 mov	 BYTE PTR __k$[ebp+19], bl
  001cf	eb 69		 jmp	 SHORT $LN1@LoadFloat_@3
$LN78@LoadFloat_@3:
  001d1	88 4d f2	 mov	 BYTE PTR __k$[ebp+18], cl
  001d4	eb 64		 jmp	 SHORT $LN1@LoadFloat_@3
$LN79@LoadFloat_@3:
  001d6	c6 45 f1 ec	 mov	 BYTE PTR __k$[ebp+17], -20 ; ffffffecH
  001da	eb 5e		 jmp	 SHORT $LN1@LoadFloat_@3
$LN80@LoadFloat_@3:
  001dc	c6 45 f0 ed	 mov	 BYTE PTR __k$[ebp+16], -19 ; ffffffedH
  001e0	eb 58		 jmp	 SHORT $LN1@LoadFloat_@3
$LN81@LoadFloat_@3:
  001e2	88 5d ef	 mov	 BYTE PTR __k$[ebp+15], bl
  001e5	eb 53		 jmp	 SHORT $LN1@LoadFloat_@3
$LN82@LoadFloat_@3:
  001e7	88 4d ee	 mov	 BYTE PTR __k$[ebp+14], cl
  001ea	eb 4e		 jmp	 SHORT $LN1@LoadFloat_@3
$LN83@LoadFloat_@3:
  001ec	c6 45 ed ec	 mov	 BYTE PTR __k$[ebp+13], -20 ; ffffffecH
  001f0	eb 48		 jmp	 SHORT $LN1@LoadFloat_@3
$LN84@LoadFloat_@3:
  001f2	c6 45 ec ed	 mov	 BYTE PTR __k$[ebp+12], -19 ; ffffffedH
  001f6	eb 42		 jmp	 SHORT $LN1@LoadFloat_@3
$LN85@LoadFloat_@3:
  001f8	88 5d eb	 mov	 BYTE PTR __k$[ebp+11], bl
  001fb	eb 3d		 jmp	 SHORT $LN1@LoadFloat_@3
$LN86@LoadFloat_@3:
  001fd	88 4d ea	 mov	 BYTE PTR __k$[ebp+10], cl
  00200	eb 38		 jmp	 SHORT $LN1@LoadFloat_@3
$LN87@LoadFloat_@3:
  00202	c6 45 e9 ec	 mov	 BYTE PTR __k$[ebp+9], -20 ; ffffffecH
  00206	eb 32		 jmp	 SHORT $LN1@LoadFloat_@3
$LN88@LoadFloat_@3:
  00208	c6 45 e8 ed	 mov	 BYTE PTR __k$[ebp+8], -19 ; ffffffedH
  0020c	eb 2c		 jmp	 SHORT $LN1@LoadFloat_@3
$LN89@LoadFloat_@3:
  0020e	88 5d e7	 mov	 BYTE PTR __k$[ebp+7], bl
  00211	eb 27		 jmp	 SHORT $LN1@LoadFloat_@3
$LN90@LoadFloat_@3:
  00213	88 4d e6	 mov	 BYTE PTR __k$[ebp+6], cl
  00216	eb 22		 jmp	 SHORT $LN1@LoadFloat_@3
$LN91@LoadFloat_@3:
  00218	c6 45 e5 ec	 mov	 BYTE PTR __k$[ebp+5], -20 ; ffffffecH
  0021c	eb 1c		 jmp	 SHORT $LN1@LoadFloat_@3
$LN92@LoadFloat_@3:
  0021e	c6 45 e4 ed	 mov	 BYTE PTR __k$[ebp+4], -19 ; ffffffedH
  00222	eb 16		 jmp	 SHORT $LN1@LoadFloat_@3
$LN93@LoadFloat_@3:
  00224	c6 45 e3 ea	 mov	 BYTE PTR __k$[ebp+3], -22 ; ffffffeaH
  00228	eb 10		 jmp	 SHORT $LN1@LoadFloat_@3
$LN94@LoadFloat_@3:
  0022a	c6 45 e2 eb	 mov	 BYTE PTR __k$[ebp+2], -21 ; ffffffebH
  0022e	eb 0a		 jmp	 SHORT $LN1@LoadFloat_@3
$LN95@LoadFloat_@3:
  00230	c6 45 e1 ec	 mov	 BYTE PTR __k$[ebp+1], -20 ; ffffffecH
  00234	eb 04		 jmp	 SHORT $LN1@LoadFloat_@3
$LN96@LoadFloat_@3:
  00236	c6 45 e0 ed	 mov	 BYTE PTR __k$[ebp], -19	; ffffffedH
$LN1@LoadFloat_@3:
  0023a	6a 05		 push	 5
  0023c	8d 45 e0	 lea	 eax, DWORD PTR __k$[ebp]
  0023f	c6 45 f5 00	 mov	 BYTE PTR __k$[ebp+21], 0
  00243	5a		 pop	 edx
$LL104@LoadFloat_@3:
  00244	81 30 ed ec eb
	ea		 xor	 DWORD PTR [eax], -353637139 ; eaebecedH
  0024a	83 c0 04	 add	 eax, 4
  0024d	4a		 dec	 edx
  0024e	75 f4		 jne	 SHORT $LL104@LoadFloat_@3

; 137  : 		return LoadFloat(_k, f);

  00250	f3 0f 10 45 0c	 movss	 xmm0, DWORD PTR _f$[ebp]
  00255	80 75 f4 ed	 xor	 BYTE PTR __k$[ebp+20], -19 ; ffffffedH
  00259	51		 push	 ecx
  0025a	8d 45 e0	 lea	 eax, DWORD PTR __k$[ebp]
  0025d	f3 0f 11 04 24	 movss	 DWORD PTR [esp], xmm0
  00262	50		 push	 eax
  00263	8b ce		 mov	 ecx, esi
  00265	ff 15 00 00 00
	00		 call	 DWORD PTR __imp_?LoadFloat@ioINILoader@@QAEMPBDM@Z

; 138  : 	}

  0026b	8b 4d fc	 mov	 ecx, DWORD PTR __$ArrayPad$[ebp]
  0026e	5e		 pop	 esi
  0026f	33 cd		 xor	 ecx, ebp
  00271	5b		 pop	 ebx
  00272	e8 00 00 00 00	 call	 @__security_check_cookie@4
  00277	c9		 leave
  00278	c2 08 00	 ret	 8
??$LoadFloat_e@$0BG@@ioINILoader@@QAEMAAY0BG@$$CBDM@Z ENDP ; ioINILoader::LoadFloat_e<22>
_TEXT	ENDS
PUBLIC	_this$GSCopy$
PUBLIC	__$ArrayPad$
PUBLIC	??$LoadString_e@$0BE@@ioINILoader@@QAEXAAY0BE@$$CBDAAY00$$CBDPADH@Z ; ioINILoader::LoadString_e<20>
EXTRN	__imp_?LoadStringA@ioINILoader@@QAEXPBD0PADH@Z:PROC
; Function compile flags: /Ogsp
;	COMDAT ??$LoadString_e@$0BE@@ioINILoader@@QAEXAAY0BE@$$CBDAAY00$$CBDPADH@Z
_TEXT	SEGMENT
_this$GSCopy$ = -32					; size = 4
__k$ = -28						; size = 20
__$ArrayPad$ = -4					; size = 4
_k$ = 8							; size = 4
_d$ = 12						; size = 4
_b$ = 16						; size = 4
_i$ = 20						; size = 4
??$LoadString_e@$0BE@@ioINILoader@@QAEXAAY0BE@$$CBDAAY00$$CBDPADH@Z PROC ; ioINILoader::LoadString_e<20>, COMDAT
; _this$ = ecx

; 161  : 	{

  00000	55		 push	 ebp
  00001	8b ec		 mov	 ebp, esp
  00003	83 ec 20	 sub	 esp, 32			; 00000020H
  00006	a1 00 00 00 00	 mov	 eax, DWORD PTR ___security_cookie
  0000b	33 c5		 xor	 eax, ebp
  0000d	89 45 fc	 mov	 DWORD PTR __$ArrayPad$[ebp], eax
  00010	8b 45 08	 mov	 eax, DWORD PTR _k$[ebp]

; 162  : 		_ENCSTR(k, _k);

  00013	8a 10		 mov	 dl, BYTE PTR [eax]
  00015	53		 push	 ebx
  00016	56		 push	 esi
  00017	8b 75 0c	 mov	 esi, DWORD PTR _d$[ebp]
  0001a	57		 push	 edi
  0001b	8b 7d 10	 mov	 edi, DWORD PTR _b$[ebp]
  0001e	89 4d e0	 mov	 DWORD PTR _this$GSCopy$[ebp], ecx
  00021	84 d2		 test	 dl, dl
  00023	0f 84 dd 01 00
	00		 je	 $LN96@LoadString
  00029	80 f2 ed	 xor	 dl, -19			; ffffffedH
  0002c	88 55 e4	 mov	 BYTE PTR __k$[ebp], dl
  0002f	8a 50 01	 mov	 dl, BYTE PTR [eax+1]
  00032	84 d2		 test	 dl, dl
  00034	0f 84 c6 01 00
	00		 je	 $LN95@LoadString
  0003a	b3 ec		 mov	 bl, -20			; ffffffecH
  0003c	32 d3		 xor	 dl, bl
  0003e	88 55 e5	 mov	 BYTE PTR __k$[ebp+1], dl
  00041	8a 50 02	 mov	 dl, BYTE PTR [eax+2]
  00044	84 d2		 test	 dl, dl
  00046	0f 84 ae 01 00
	00		 je	 $LN94@LoadString
  0004c	b1 eb		 mov	 cl, -21			; ffffffebH
  0004e	32 d1		 xor	 dl, cl
  00050	88 55 e6	 mov	 BYTE PTR __k$[ebp+2], dl
  00053	8a 50 03	 mov	 dl, BYTE PTR [eax+3]
  00056	84 d2		 test	 dl, dl
  00058	0f 84 96 01 00
	00		 je	 $LN93@LoadString
  0005e	80 f2 ea	 xor	 dl, -22			; ffffffeaH
  00061	88 55 e7	 mov	 BYTE PTR __k$[ebp+3], dl
  00064	8a 50 04	 mov	 dl, BYTE PTR [eax+4]
  00067	84 d2		 test	 dl, dl
  00069	0f 84 7f 01 00
	00		 je	 $LN92@LoadString
  0006f	80 f2 ed	 xor	 dl, -19			; ffffffedH
  00072	88 55 e8	 mov	 BYTE PTR __k$[ebp+4], dl
  00075	8a 50 05	 mov	 dl, BYTE PTR [eax+5]
  00078	84 d2		 test	 dl, dl
  0007a	0f 84 69 01 00
	00		 je	 $LN91@LoadString
  00080	32 d3		 xor	 dl, bl
  00082	88 55 e9	 mov	 BYTE PTR __k$[ebp+5], dl
  00085	8a 50 06	 mov	 dl, BYTE PTR [eax+6]
  00088	84 d2		 test	 dl, dl
  0008a	0f 84 54 01 00
	00		 je	 $LN90@LoadString
  00090	32 d1		 xor	 dl, cl
  00092	88 55 ea	 mov	 BYTE PTR __k$[ebp+6], dl
  00095	8a 50 07	 mov	 dl, BYTE PTR [eax+7]
  00098	84 d2		 test	 dl, dl
  0009a	0f 84 3e 01 00
	00		 je	 $LN89@LoadString
  000a0	80 f2 ea	 xor	 dl, -22			; ffffffeaH
  000a3	88 55 eb	 mov	 BYTE PTR __k$[ebp+7], dl
  000a6	8a 50 08	 mov	 dl, BYTE PTR [eax+8]
  000a9	84 d2		 test	 dl, dl
  000ab	0f 84 27 01 00
	00		 je	 $LN88@LoadString
  000b1	80 f2 ed	 xor	 dl, -19			; ffffffedH
  000b4	88 55 ec	 mov	 BYTE PTR __k$[ebp+8], dl
  000b7	8a 50 09	 mov	 dl, BYTE PTR [eax+9]
  000ba	84 d2		 test	 dl, dl
  000bc	0f 84 11 01 00
	00		 je	 $LN87@LoadString
  000c2	32 d3		 xor	 dl, bl
  000c4	88 55 ed	 mov	 BYTE PTR __k$[ebp+9], dl
  000c7	8a 50 0a	 mov	 dl, BYTE PTR [eax+10]
  000ca	84 d2		 test	 dl, dl
  000cc	0f 84 fc 00 00
	00		 je	 $LN86@LoadString
  000d2	32 d1		 xor	 dl, cl
  000d4	88 55 ee	 mov	 BYTE PTR __k$[ebp+10], dl
  000d7	8a 50 0b	 mov	 dl, BYTE PTR [eax+11]
  000da	84 d2		 test	 dl, dl
  000dc	0f 84 e6 00 00
	00		 je	 $LN85@LoadString
  000e2	80 f2 ea	 xor	 dl, -22			; ffffffeaH
  000e5	88 55 ef	 mov	 BYTE PTR __k$[ebp+11], dl
  000e8	8a 50 0c	 mov	 dl, BYTE PTR [eax+12]
  000eb	84 d2		 test	 dl, dl
  000ed	0f 84 cf 00 00
	00		 je	 $LN84@LoadString
  000f3	80 f2 ed	 xor	 dl, -19			; ffffffedH
  000f6	88 55 f0	 mov	 BYTE PTR __k$[ebp+12], dl
  000f9	8a 50 0d	 mov	 dl, BYTE PTR [eax+13]
  000fc	84 d2		 test	 dl, dl
  000fe	0f 84 b9 00 00
	00		 je	 $LN83@LoadString
  00104	32 d3		 xor	 dl, bl
  00106	88 55 f1	 mov	 BYTE PTR __k$[ebp+13], dl
  00109	8a 50 0e	 mov	 dl, BYTE PTR [eax+14]
  0010c	84 d2		 test	 dl, dl
  0010e	0f 84 a4 00 00
	00		 je	 $LN82@LoadString
  00114	32 d1		 xor	 dl, cl
  00116	88 55 f2	 mov	 BYTE PTR __k$[ebp+14], dl
  00119	8a 50 0f	 mov	 dl, BYTE PTR [eax+15]
  0011c	84 d2		 test	 dl, dl
  0011e	0f 84 8e 00 00
	00		 je	 $LN81@LoadString
  00124	80 f2 ea	 xor	 dl, -22			; ffffffeaH
  00127	88 55 f3	 mov	 BYTE PTR __k$[ebp+15], dl
  0012a	8a 50 10	 mov	 dl, BYTE PTR [eax+16]
  0012d	84 d2		 test	 dl, dl
  0012f	74 7b		 je	 SHORT $LN80@LoadString
  00131	80 f2 ed	 xor	 dl, -19			; ffffffedH
  00134	88 55 f4	 mov	 BYTE PTR __k$[ebp+16], dl
  00137	8a 50 11	 mov	 dl, BYTE PTR [eax+17]
  0013a	84 d2		 test	 dl, dl
  0013c	74 69		 je	 SHORT $LN79@LoadString
  0013e	32 d3		 xor	 dl, bl
  00140	88 55 f5	 mov	 BYTE PTR __k$[ebp+17], dl
  00143	8a 50 12	 mov	 dl, BYTE PTR [eax+18]
  00146	84 d2		 test	 dl, dl
  00148	74 58		 je	 SHORT $LN78@LoadString
  0014a	32 d1		 xor	 dl, cl
  0014c	80 78 13 00	 cmp	 BYTE PTR [eax+19], 0
  00150	88 55 f6	 mov	 BYTE PTR __k$[ebp+18], dl
  00153	0f 84 b1 00 00
	00		 je	 $LN111@LoadString
  00159	8a 50 14	 mov	 dl, BYTE PTR [eax+20]
  0015c	84 d2		 test	 dl, dl
  0015e	74 3c		 je	 SHORT $LN76@LoadString
  00160	80 f2 ed	 xor	 dl, -19			; ffffffedH
  00163	88 55 f8	 mov	 BYTE PTR __k$[ebp+20], dl
  00166	8a 50 15	 mov	 dl, BYTE PTR [eax+21]
  00169	84 d2		 test	 dl, dl
  0016b	74 2a		 je	 SHORT $LN75@LoadString
  0016d	32 d3		 xor	 dl, bl
  0016f	88 55 f9	 mov	 BYTE PTR __k$[ebp+21], dl
  00172	8a 50 16	 mov	 dl, BYTE PTR [eax+22]
  00175	84 d2		 test	 dl, dl
  00177	74 19		 je	 SHORT $LN74@LoadString
  00179	8a 40 17	 mov	 al, BYTE PTR [eax+23]
  0017c	32 d1		 xor	 dl, cl
  0017e	88 55 fa	 mov	 BYTE PTR __k$[ebp+22], dl
  00181	84 c0		 test	 al, al
  00183	74 07		 je	 SHORT $LN73@LoadString
  00185	34 ea		 xor	 al, -22			; ffffffeaH
  00187	88 45 fb	 mov	 BYTE PTR __k$[ebp+23], al
  0018a	eb 7e		 jmp	 SHORT $LN111@LoadString
$LN73@LoadString:
  0018c	c6 45 fb ea	 mov	 BYTE PTR __k$[ebp+23], -22 ; ffffffeaH
  00190	eb 78		 jmp	 SHORT $LN111@LoadString
$LN74@LoadString:
  00192	88 4d fa	 mov	 BYTE PTR __k$[ebp+22], cl
  00195	eb 73		 jmp	 SHORT $LN111@LoadString
$LN75@LoadString:
  00197	88 5d f9	 mov	 BYTE PTR __k$[ebp+21], bl
  0019a	eb 6e		 jmp	 SHORT $LN111@LoadString
$LN76@LoadString:
  0019c	c6 45 f8 ed	 mov	 BYTE PTR __k$[ebp+20], -19 ; ffffffedH
  001a0	eb 68		 jmp	 SHORT $LN111@LoadString
$LN78@LoadString:
  001a2	88 4d f6	 mov	 BYTE PTR __k$[ebp+18], cl
  001a5	eb 63		 jmp	 SHORT $LN111@LoadString
$LN79@LoadString:
  001a7	88 5d f5	 mov	 BYTE PTR __k$[ebp+17], bl
  001aa	eb 5e		 jmp	 SHORT $LN111@LoadString
$LN80@LoadString:
  001ac	c6 45 f4 ed	 mov	 BYTE PTR __k$[ebp+16], -19 ; ffffffedH
  001b0	eb 58		 jmp	 SHORT $LN111@LoadString
$LN81@LoadString:
  001b2	c6 45 f3 ea	 mov	 BYTE PTR __k$[ebp+15], -22 ; ffffffeaH
  001b6	eb 52		 jmp	 SHORT $LN111@LoadString
$LN82@LoadString:
  001b8	88 4d f2	 mov	 BYTE PTR __k$[ebp+14], cl
  001bb	eb 4d		 jmp	 SHORT $LN111@LoadString
$LN83@LoadString:
  001bd	88 5d f1	 mov	 BYTE PTR __k$[ebp+13], bl
  001c0	eb 48		 jmp	 SHORT $LN111@LoadString
$LN84@LoadString:
  001c2	c6 45 f0 ed	 mov	 BYTE PTR __k$[ebp+12], -19 ; ffffffedH
  001c6	eb 42		 jmp	 SHORT $LN111@LoadString
$LN85@LoadString:
  001c8	c6 45 ef ea	 mov	 BYTE PTR __k$[ebp+11], -22 ; ffffffeaH
  001cc	eb 3c		 jmp	 SHORT $LN111@LoadString
$LN86@LoadString:
  001ce	88 4d ee	 mov	 BYTE PTR __k$[ebp+10], cl
  001d1	eb 37		 jmp	 SHORT $LN111@LoadString
$LN87@LoadString:
  001d3	88 5d ed	 mov	 BYTE PTR __k$[ebp+9], bl
  001d6	eb 32		 jmp	 SHORT $LN111@LoadString
$LN88@LoadString:
  001d8	c6 45 ec ed	 mov	 BYTE PTR __k$[ebp+8], -19 ; ffffffedH
  001dc	eb 2c		 jmp	 SHORT $LN111@LoadString
$LN89@LoadString:
  001de	c6 45 eb ea	 mov	 BYTE PTR __k$[ebp+7], -22 ; ffffffeaH
  001e2	eb 26		 jmp	 SHORT $LN111@LoadString
$LN90@LoadString:
  001e4	88 4d ea	 mov	 BYTE PTR __k$[ebp+6], cl
  001e7	eb 21		 jmp	 SHORT $LN111@LoadString
$LN91@LoadString:
  001e9	88 5d e9	 mov	 BYTE PTR __k$[ebp+5], bl
  001ec	eb 1c		 jmp	 SHORT $LN111@LoadString
$LN92@LoadString:
  001ee	c6 45 e8 ed	 mov	 BYTE PTR __k$[ebp+4], -19 ; ffffffedH
  001f2	eb 16		 jmp	 SHORT $LN111@LoadString
$LN93@LoadString:
  001f4	c6 45 e7 ea	 mov	 BYTE PTR __k$[ebp+3], -22 ; ffffffeaH
  001f8	eb 10		 jmp	 SHORT $LN111@LoadString
$LN94@LoadString:
  001fa	c6 45 e6 eb	 mov	 BYTE PTR __k$[ebp+2], -21 ; ffffffebH
  001fe	eb 0a		 jmp	 SHORT $LN111@LoadString
$LN95@LoadString:
  00200	c6 45 e5 ec	 mov	 BYTE PTR __k$[ebp+1], -20 ; ffffffecH
  00204	eb 04		 jmp	 SHORT $LN111@LoadString
$LN96@LoadString:
  00206	c6 45 e4 ed	 mov	 BYTE PTR __k$[ebp], -19	; ffffffedH
$LN111@LoadString:
  0020a	6a 04		 push	 4
  0020c	8d 45 e4	 lea	 eax, DWORD PTR __k$[ebp]
  0020f	c6 45 f7 00	 mov	 BYTE PTR __k$[ebp+19], 0
  00213	5a		 pop	 edx
$LL104@LoadString:
  00214	81 30 ed ec eb
	ea		 xor	 DWORD PTR [eax], -353637139 ; eaebecedH
  0021a	83 c0 04	 add	 eax, 4
  0021d	4a		 dec	 edx
  0021e	75 f4		 jne	 SHORT $LL104@LoadString
  00220	6a 10		 push	 16			; 00000010H
  00222	58		 pop	 eax
$LL101@LoadString:
  00223	8b c8		 mov	 ecx, eax
  00225	81 e1 03 00 00
	80		 and	 ecx, -2147483645	; 80000003H
  0022b	79 05		 jns	 SHORT $LN112@LoadString
  0022d	49		 dec	 ecx
  0022e	83 c9 fc	 or	 ecx, -4			; fffffffcH
  00231	41		 inc	 ecx
$LN112@LoadString:
  00232	b2 ed		 mov	 dl, -19			; ffffffedH
  00234	2a d1		 sub	 dl, cl
  00236	30 54 05 e4	 xor	 BYTE PTR __k$[ebp+eax], dl
  0023a	40		 inc	 eax
  0023b	83 f8 13	 cmp	 eax, 19			; 00000013H
  0023e	7c e3		 jl	 SHORT $LL101@LoadString

; 163  : 		LoadString(_k, d, b, i);

  00240	ff 75 14	 push	 DWORD PTR _i$[ebp]
  00243	8b 4d e0	 mov	 ecx, DWORD PTR _this$GSCopy$[ebp]
  00246	57		 push	 edi
  00247	56		 push	 esi
  00248	8d 45 e4	 lea	 eax, DWORD PTR __k$[ebp]
  0024b	50		 push	 eax
  0024c	ff 15 00 00 00
	00		 call	 DWORD PTR __imp_?LoadStringA@ioINILoader@@QAEXPBD0PADH@Z

; 164  : 	}

  00252	8b 4d fc	 mov	 ecx, DWORD PTR __$ArrayPad$[ebp]
  00255	5f		 pop	 edi
  00256	5e		 pop	 esi
  00257	33 cd		 xor	 ecx, ebp
  00259	5b		 pop	 ebx
  0025a	e8 00 00 00 00	 call	 @__security_check_cookie@4
  0025f	c9		 leave
  00260	c2 10 00	 ret	 16			; 00000010H
??$LoadString_e@$0BE@@ioINILoader@@QAEXAAY0BE@$$CBDAAY00$$CBDPADH@Z ENDP ; ioINILoader::LoadString_e<20>
_TEXT	ENDS
PUBLIC	__$ArrayPad$
PUBLIC	??$LoadFloat_e@$0BD@@ioINILoader@@QAEMAAY0BD@$$CBDM@Z ; ioINILoader::LoadFloat_e<19>
; Function compile flags: /Ogsp
;	COMDAT ??$LoadFloat_e@$0BD@@ioINILoader@@QAEMAAY0BD@$$CBDM@Z
_TEXT	SEGMENT
__k$ = -28						; size = 19
__$ArrayPad$ = -4					; size = 4
_k$ = 8							; size = 4
_f$ = 12						; size = 4
??$LoadFloat_e@$0BD@@ioINILoader@@QAEMAAY0BD@$$CBDM@Z PROC ; ioINILoader::LoadFloat_e<19>, COMDAT
; _this$ = ecx

; 135  : 	{

  00000	55		 push	 ebp
  00001	8b ec		 mov	 ebp, esp
  00003	83 ec 1c	 sub	 esp, 28			; 0000001cH
  00006	a1 00 00 00 00	 mov	 eax, DWORD PTR ___security_cookie
  0000b	33 c5		 xor	 eax, ebp
  0000d	89 45 fc	 mov	 DWORD PTR __$ArrayPad$[ebp], eax
  00010	8b 45 08	 mov	 eax, DWORD PTR _k$[ebp]

; 136  : 		_ENCSTR(k, _k);

  00013	8a 10		 mov	 dl, BYTE PTR [eax]
  00015	56		 push	 esi
  00016	8b f1		 mov	 esi, ecx
  00018	84 d2		 test	 dl, dl
  0001a	0f 84 cf 01 00
	00		 je	 $LN96@LoadFloat_@4
  00020	80 f2 ed	 xor	 dl, -19			; ffffffedH
  00023	88 55 e4	 mov	 BYTE PTR __k$[ebp], dl
  00026	8a 50 01	 mov	 dl, BYTE PTR [eax+1]
  00029	84 d2		 test	 dl, dl
  0002b	0f 84 b8 01 00
	00		 je	 $LN95@LoadFloat_@4
  00031	b1 ec		 mov	 cl, -20			; ffffffecH
  00033	32 d1		 xor	 dl, cl
  00035	88 55 e5	 mov	 BYTE PTR __k$[ebp+1], dl
  00038	8a 50 02	 mov	 dl, BYTE PTR [eax+2]
  0003b	84 d2		 test	 dl, dl
  0003d	0f 84 a0 01 00
	00		 je	 $LN94@LoadFloat_@4
  00043	80 f2 eb	 xor	 dl, -21			; ffffffebH
  00046	88 55 e6	 mov	 BYTE PTR __k$[ebp+2], dl
  00049	8a 50 03	 mov	 dl, BYTE PTR [eax+3]
  0004c	84 d2		 test	 dl, dl
  0004e	0f 84 89 01 00
	00		 je	 $LN93@LoadFloat_@4
  00054	80 f2 ea	 xor	 dl, -22			; ffffffeaH
  00057	88 55 e7	 mov	 BYTE PTR __k$[ebp+3], dl
  0005a	8a 50 04	 mov	 dl, BYTE PTR [eax+4]
  0005d	84 d2		 test	 dl, dl
  0005f	0f 84 72 01 00
	00		 je	 $LN92@LoadFloat_@4
  00065	80 f2 ed	 xor	 dl, -19			; ffffffedH
  00068	88 55 e8	 mov	 BYTE PTR __k$[ebp+4], dl
  0006b	8a 50 05	 mov	 dl, BYTE PTR [eax+5]
  0006e	84 d2		 test	 dl, dl
  00070	0f 84 5c 01 00
	00		 je	 $LN91@LoadFloat_@4
  00076	32 d1		 xor	 dl, cl
  00078	88 55 e9	 mov	 BYTE PTR __k$[ebp+5], dl
  0007b	8a 50 06	 mov	 dl, BYTE PTR [eax+6]
  0007e	84 d2		 test	 dl, dl
  00080	0f 84 46 01 00
	00		 je	 $LN90@LoadFloat_@4
  00086	80 f2 eb	 xor	 dl, -21			; ffffffebH
  00089	88 55 ea	 mov	 BYTE PTR __k$[ebp+6], dl
  0008c	8a 50 07	 mov	 dl, BYTE PTR [eax+7]
  0008f	84 d2		 test	 dl, dl
  00091	0f 84 2f 01 00
	00		 je	 $LN89@LoadFloat_@4
  00097	80 f2 ea	 xor	 dl, -22			; ffffffeaH
  0009a	88 55 eb	 mov	 BYTE PTR __k$[ebp+7], dl
  0009d	8a 50 08	 mov	 dl, BYTE PTR [eax+8]
  000a0	84 d2		 test	 dl, dl
  000a2	0f 84 18 01 00
	00		 je	 $LN88@LoadFloat_@4
  000a8	80 f2 ed	 xor	 dl, -19			; ffffffedH
  000ab	88 55 ec	 mov	 BYTE PTR __k$[ebp+8], dl
  000ae	8a 50 09	 mov	 dl, BYTE PTR [eax+9]
  000b1	84 d2		 test	 dl, dl
  000b3	0f 84 02 01 00
	00		 je	 $LN87@LoadFloat_@4
  000b9	32 d1		 xor	 dl, cl
  000bb	88 55 ed	 mov	 BYTE PTR __k$[ebp+9], dl
  000be	8a 50 0a	 mov	 dl, BYTE PTR [eax+10]
  000c1	84 d2		 test	 dl, dl
  000c3	0f 84 ec 00 00
	00		 je	 $LN86@LoadFloat_@4
  000c9	80 f2 eb	 xor	 dl, -21			; ffffffebH
  000cc	88 55 ee	 mov	 BYTE PTR __k$[ebp+10], dl
  000cf	8a 50 0b	 mov	 dl, BYTE PTR [eax+11]
  000d2	84 d2		 test	 dl, dl
  000d4	0f 84 d5 00 00
	00		 je	 $LN85@LoadFloat_@4
  000da	80 f2 ea	 xor	 dl, -22			; ffffffeaH
  000dd	88 55 ef	 mov	 BYTE PTR __k$[ebp+11], dl
  000e0	8a 50 0c	 mov	 dl, BYTE PTR [eax+12]
  000e3	84 d2		 test	 dl, dl
  000e5	0f 84 be 00 00
	00		 je	 $LN84@LoadFloat_@4
  000eb	80 f2 ed	 xor	 dl, -19			; ffffffedH
  000ee	88 55 f0	 mov	 BYTE PTR __k$[ebp+12], dl
  000f1	8a 50 0d	 mov	 dl, BYTE PTR [eax+13]
  000f4	84 d2		 test	 dl, dl
  000f6	0f 84 a8 00 00
	00		 je	 $LN83@LoadFloat_@4
  000fc	32 d1		 xor	 dl, cl
  000fe	88 55 f1	 mov	 BYTE PTR __k$[ebp+13], dl
  00101	8a 50 0e	 mov	 dl, BYTE PTR [eax+14]
  00104	84 d2		 test	 dl, dl
  00106	0f 84 92 00 00
	00		 je	 $LN82@LoadFloat_@4
  0010c	80 f2 eb	 xor	 dl, -21			; ffffffebH
  0010f	88 55 f2	 mov	 BYTE PTR __k$[ebp+14], dl
  00112	8a 50 0f	 mov	 dl, BYTE PTR [eax+15]
  00115	84 d2		 test	 dl, dl
  00117	74 7f		 je	 SHORT $LN81@LoadFloat_@4
  00119	80 f2 ea	 xor	 dl, -22			; ffffffeaH
  0011c	88 55 f3	 mov	 BYTE PTR __k$[ebp+15], dl
  0011f	8a 50 10	 mov	 dl, BYTE PTR [eax+16]
  00122	84 d2		 test	 dl, dl
  00124	74 6c		 je	 SHORT $LN80@LoadFloat_@4
  00126	80 f2 ed	 xor	 dl, -19			; ffffffedH
  00129	88 55 f4	 mov	 BYTE PTR __k$[ebp+16], dl
  0012c	8a 50 11	 mov	 dl, BYTE PTR [eax+17]
  0012f	84 d2		 test	 dl, dl
  00131	74 5a		 je	 SHORT $LN79@LoadFloat_@4
  00133	32 d1		 xor	 dl, cl
  00135	80 78 12 00	 cmp	 BYTE PTR [eax+18], 0
  00139	88 55 f5	 mov	 BYTE PTR __k$[ebp+17], dl
  0013c	0f 84 b1 00 00
	00		 je	 $LN1@LoadFloat_@4
  00142	8a 50 13	 mov	 dl, BYTE PTR [eax+19]
  00145	84 d2		 test	 dl, dl
  00147	74 3e		 je	 SHORT $LN77@LoadFloat_@4
  00149	80 f2 ea	 xor	 dl, -22			; ffffffeaH
  0014c	88 55 f7	 mov	 BYTE PTR __k$[ebp+19], dl
  0014f	8a 50 14	 mov	 dl, BYTE PTR [eax+20]
  00152	84 d2		 test	 dl, dl
  00154	74 2b		 je	 SHORT $LN76@LoadFloat_@4
  00156	80 f2 ed	 xor	 dl, -19			; ffffffedH
  00159	88 55 f8	 mov	 BYTE PTR __k$[ebp+20], dl
  0015c	8a 50 15	 mov	 dl, BYTE PTR [eax+21]
  0015f	84 d2		 test	 dl, dl
  00161	74 19		 je	 SHORT $LN75@LoadFloat_@4
  00163	8a 40 16	 mov	 al, BYTE PTR [eax+22]
  00166	32 d1		 xor	 dl, cl
  00168	88 55 f9	 mov	 BYTE PTR __k$[ebp+21], dl
  0016b	84 c0		 test	 al, al
  0016d	74 07		 je	 SHORT $LN74@LoadFloat_@4
  0016f	34 eb		 xor	 al, -21			; ffffffebH
  00171	88 45 fa	 mov	 BYTE PTR __k$[ebp+22], al
  00174	eb 7d		 jmp	 SHORT $LN1@LoadFloat_@4
$LN74@LoadFloat_@4:
  00176	c6 45 fa eb	 mov	 BYTE PTR __k$[ebp+22], -21 ; ffffffebH
  0017a	eb 77		 jmp	 SHORT $LN1@LoadFloat_@4
$LN75@LoadFloat_@4:
  0017c	88 4d f9	 mov	 BYTE PTR __k$[ebp+21], cl
  0017f	eb 72		 jmp	 SHORT $LN1@LoadFloat_@4
$LN76@LoadFloat_@4:
  00181	c6 45 f8 ed	 mov	 BYTE PTR __k$[ebp+20], -19 ; ffffffedH
  00185	eb 6c		 jmp	 SHORT $LN1@LoadFloat_@4
$LN77@LoadFloat_@4:
  00187	c6 45 f7 ea	 mov	 BYTE PTR __k$[ebp+19], -22 ; ffffffeaH
  0018b	eb 66		 jmp	 SHORT $LN1@LoadFloat_@4
$LN79@LoadFloat_@4:
  0018d	88 4d f5	 mov	 BYTE PTR __k$[ebp+17], cl
  00190	eb 61		 jmp	 SHORT $LN1@LoadFloat_@4
$LN80@LoadFloat_@4:
  00192	c6 45 f4 ed	 mov	 BYTE PTR __k$[ebp+16], -19 ; ffffffedH
  00196	eb 5b		 jmp	 SHORT $LN1@LoadFloat_@4
$LN81@LoadFloat_@4:
  00198	c6 45 f3 ea	 mov	 BYTE PTR __k$[ebp+15], -22 ; ffffffeaH
  0019c	eb 55		 jmp	 SHORT $LN1@LoadFloat_@4
$LN82@LoadFloat_@4:
  0019e	c6 45 f2 eb	 mov	 BYTE PTR __k$[ebp+14], -21 ; ffffffebH
  001a2	eb 4f		 jmp	 SHORT $LN1@LoadFloat_@4
$LN83@LoadFloat_@4:
  001a4	88 4d f1	 mov	 BYTE PTR __k$[ebp+13], cl
  001a7	eb 4a		 jmp	 SHORT $LN1@LoadFloat_@4
$LN84@LoadFloat_@4:
  001a9	c6 45 f0 ed	 mov	 BYTE PTR __k$[ebp+12], -19 ; ffffffedH
  001ad	eb 44		 jmp	 SHORT $LN1@LoadFloat_@4
$LN85@LoadFloat_@4:
  001af	c6 45 ef ea	 mov	 BYTE PTR __k$[ebp+11], -22 ; ffffffeaH
  001b3	eb 3e		 jmp	 SHORT $LN1@LoadFloat_@4
$LN86@LoadFloat_@4:
  001b5	c6 45 ee eb	 mov	 BYTE PTR __k$[ebp+10], -21 ; ffffffebH
  001b9	eb 38		 jmp	 SHORT $LN1@LoadFloat_@4
$LN87@LoadFloat_@4:
  001bb	88 4d ed	 mov	 BYTE PTR __k$[ebp+9], cl
  001be	eb 33		 jmp	 SHORT $LN1@LoadFloat_@4
$LN88@LoadFloat_@4:
  001c0	c6 45 ec ed	 mov	 BYTE PTR __k$[ebp+8], -19 ; ffffffedH
  001c4	eb 2d		 jmp	 SHORT $LN1@LoadFloat_@4
$LN89@LoadFloat_@4:
  001c6	c6 45 eb ea	 mov	 BYTE PTR __k$[ebp+7], -22 ; ffffffeaH
  001ca	eb 27		 jmp	 SHORT $LN1@LoadFloat_@4
$LN90@LoadFloat_@4:
  001cc	c6 45 ea eb	 mov	 BYTE PTR __k$[ebp+6], -21 ; ffffffebH
  001d0	eb 21		 jmp	 SHORT $LN1@LoadFloat_@4
$LN91@LoadFloat_@4:
  001d2	88 4d e9	 mov	 BYTE PTR __k$[ebp+5], cl
  001d5	eb 1c		 jmp	 SHORT $LN1@LoadFloat_@4
$LN92@LoadFloat_@4:
  001d7	c6 45 e8 ed	 mov	 BYTE PTR __k$[ebp+4], -19 ; ffffffedH
  001db	eb 16		 jmp	 SHORT $LN1@LoadFloat_@4
$LN93@LoadFloat_@4:
  001dd	c6 45 e7 ea	 mov	 BYTE PTR __k$[ebp+3], -22 ; ffffffeaH
  001e1	eb 10		 jmp	 SHORT $LN1@LoadFloat_@4
$LN94@LoadFloat_@4:
  001e3	c6 45 e6 eb	 mov	 BYTE PTR __k$[ebp+2], -21 ; ffffffebH
  001e7	eb 0a		 jmp	 SHORT $LN1@LoadFloat_@4
$LN95@LoadFloat_@4:
  001e9	c6 45 e5 ec	 mov	 BYTE PTR __k$[ebp+1], -20 ; ffffffecH
  001ed	eb 04		 jmp	 SHORT $LN1@LoadFloat_@4
$LN96@LoadFloat_@4:
  001ef	c6 45 e4 ed	 mov	 BYTE PTR __k$[ebp], -19	; ffffffedH
$LN1@LoadFloat_@4:
  001f3	6a 04		 push	 4
  001f5	8d 45 e4	 lea	 eax, DWORD PTR __k$[ebp]
  001f8	c6 45 f6 00	 mov	 BYTE PTR __k$[ebp+18], 0
  001fc	5a		 pop	 edx
$LL104@LoadFloat_@4:
  001fd	81 30 ed ec eb
	ea		 xor	 DWORD PTR [eax], -353637139 ; eaebecedH
  00203	83 c0 04	 add	 eax, 4
  00206	4a		 dec	 edx
  00207	75 f4		 jne	 SHORT $LL104@LoadFloat_@4
  00209	6a 10		 push	 16			; 00000010H
  0020b	58		 pop	 eax
$LL101@LoadFloat_@4:
  0020c	8b c8		 mov	 ecx, eax
  0020e	81 e1 03 00 00
	80		 and	 ecx, -2147483645	; 80000003H
  00214	79 05		 jns	 SHORT $LN111@LoadFloat_@4
  00216	49		 dec	 ecx
  00217	83 c9 fc	 or	 ecx, -4			; fffffffcH
  0021a	41		 inc	 ecx
$LN111@LoadFloat_@4:
  0021b	b2 ed		 mov	 dl, -19			; ffffffedH
  0021d	2a d1		 sub	 dl, cl
  0021f	30 54 05 e4	 xor	 BYTE PTR __k$[ebp+eax], dl
  00223	40		 inc	 eax
  00224	83 f8 12	 cmp	 eax, 18			; 00000012H
  00227	7c e3		 jl	 SHORT $LL101@LoadFloat_@4

; 137  : 		return LoadFloat(_k, f);

  00229	f3 0f 10 45 0c	 movss	 xmm0, DWORD PTR _f$[ebp]
  0022e	51		 push	 ecx
  0022f	8d 45 e4	 lea	 eax, DWORD PTR __k$[ebp]
  00232	f3 0f 11 04 24	 movss	 DWORD PTR [esp], xmm0
  00237	50		 push	 eax
  00238	8b ce		 mov	 ecx, esi
  0023a	ff 15 00 00 00
	00		 call	 DWORD PTR __imp_?LoadFloat@ioINILoader@@QAEMPBDM@Z

; 138  : 	}

  00240	8b 4d fc	 mov	 ecx, DWORD PTR __$ArrayPad$[ebp]
  00243	33 cd		 xor	 ecx, ebp
  00245	5e		 pop	 esi
  00246	e8 00 00 00 00	 call	 @__security_check_cookie@4
  0024b	c9		 leave
  0024c	c2 08 00	 ret	 8
??$LoadFloat_e@$0BD@@ioINILoader@@QAEMAAY0BD@$$CBDM@Z ENDP ; ioINILoader::LoadFloat_e<19>
_TEXT	ENDS
PUBLIC	__$ArrayPad$
PUBLIC	??$LoadInt_e@$0P@@ioINILoader@@QAEHAAY0P@$$CBDH@Z ; ioINILoader::LoadInt_e<15>
EXTRN	__imp_?LoadInt@ioINILoader@@QAEHPBDH@Z:PROC
; Function compile flags: /Ogsp
;	COMDAT ??$LoadInt_e@$0P@@ioINILoader@@QAEHAAY0P@$$CBDH@Z
_TEXT	SEGMENT
__k$ = -24						; size = 15
__$ArrayPad$ = -4					; size = 4
_k$ = 8							; size = 4
_i$ = 12						; size = 4
??$LoadInt_e@$0P@@ioINILoader@@QAEHAAY0P@$$CBDH@Z PROC	; ioINILoader::LoadInt_e<15>, COMDAT
; _this$ = ecx

; 118  : 	{

  00000	55		 push	 ebp
  00001	8b ec		 mov	 ebp, esp
  00003	83 ec 18	 sub	 esp, 24			; 00000018H
  00006	a1 00 00 00 00	 mov	 eax, DWORD PTR ___security_cookie
  0000b	33 c5		 xor	 eax, ebp
  0000d	89 45 fc	 mov	 DWORD PTR __$ArrayPad$[ebp], eax
  00010	8b 45 08	 mov	 eax, DWORD PTR _k$[ebp]

; 119  : 		_ENCSTR(k, _k);

  00013	8a 10		 mov	 dl, BYTE PTR [eax]
  00015	56		 push	 esi
  00016	8b f1		 mov	 esi, ecx
  00018	84 d2		 test	 dl, dl
  0001a	0f 84 75 01 00
	00		 je	 $LN96@LoadInt_e
  00020	80 f2 ed	 xor	 dl, -19			; ffffffedH
  00023	88 55 e8	 mov	 BYTE PTR __k$[ebp], dl
  00026	8a 50 01	 mov	 dl, BYTE PTR [eax+1]
  00029	84 d2		 test	 dl, dl
  0002b	0f 84 5e 01 00
	00		 je	 $LN95@LoadInt_e
  00031	b1 ec		 mov	 cl, -20			; ffffffecH
  00033	32 d1		 xor	 dl, cl
  00035	88 55 e9	 mov	 BYTE PTR __k$[ebp+1], dl
  00038	8a 50 02	 mov	 dl, BYTE PTR [eax+2]
  0003b	84 d2		 test	 dl, dl
  0003d	0f 84 46 01 00
	00		 je	 $LN94@LoadInt_e
  00043	80 f2 eb	 xor	 dl, -21			; ffffffebH
  00046	88 55 ea	 mov	 BYTE PTR __k$[ebp+2], dl
  00049	8a 50 03	 mov	 dl, BYTE PTR [eax+3]
  0004c	84 d2		 test	 dl, dl
  0004e	0f 84 2f 01 00
	00		 je	 $LN93@LoadInt_e
  00054	80 f2 ea	 xor	 dl, -22			; ffffffeaH
  00057	88 55 eb	 mov	 BYTE PTR __k$[ebp+3], dl
  0005a	8a 50 04	 mov	 dl, BYTE PTR [eax+4]
  0005d	84 d2		 test	 dl, dl
  0005f	0f 84 18 01 00
	00		 je	 $LN92@LoadInt_e
  00065	80 f2 ed	 xor	 dl, -19			; ffffffedH
  00068	88 55 ec	 mov	 BYTE PTR __k$[ebp+4], dl
  0006b	8a 50 05	 mov	 dl, BYTE PTR [eax+5]
  0006e	84 d2		 test	 dl, dl
  00070	0f 84 02 01 00
	00		 je	 $LN91@LoadInt_e
  00076	32 d1		 xor	 dl, cl
  00078	88 55 ed	 mov	 BYTE PTR __k$[ebp+5], dl
  0007b	8a 50 06	 mov	 dl, BYTE PTR [eax+6]
  0007e	84 d2		 test	 dl, dl
  00080	0f 84 ec 00 00
	00		 je	 $LN90@LoadInt_e
  00086	80 f2 eb	 xor	 dl, -21			; ffffffebH
  00089	88 55 ee	 mov	 BYTE PTR __k$[ebp+6], dl
  0008c	8a 50 07	 mov	 dl, BYTE PTR [eax+7]
  0008f	84 d2		 test	 dl, dl
  00091	0f 84 d5 00 00
	00		 je	 $LN89@LoadInt_e
  00097	80 f2 ea	 xor	 dl, -22			; ffffffeaH
  0009a	88 55 ef	 mov	 BYTE PTR __k$[ebp+7], dl
  0009d	8a 50 08	 mov	 dl, BYTE PTR [eax+8]
  000a0	84 d2		 test	 dl, dl
  000a2	0f 84 be 00 00
	00		 je	 $LN88@LoadInt_e
  000a8	80 f2 ed	 xor	 dl, -19			; ffffffedH
  000ab	88 55 f0	 mov	 BYTE PTR __k$[ebp+8], dl
  000ae	8a 50 09	 mov	 dl, BYTE PTR [eax+9]
  000b1	84 d2		 test	 dl, dl
  000b3	0f 84 a8 00 00
	00		 je	 $LN87@LoadInt_e
  000b9	32 d1		 xor	 dl, cl
  000bb	88 55 f1	 mov	 BYTE PTR __k$[ebp+9], dl
  000be	8a 50 0a	 mov	 dl, BYTE PTR [eax+10]
  000c1	84 d2		 test	 dl, dl
  000c3	0f 84 92 00 00
	00		 je	 $LN86@LoadInt_e
  000c9	80 f2 eb	 xor	 dl, -21			; ffffffebH
  000cc	88 55 f2	 mov	 BYTE PTR __k$[ebp+10], dl
  000cf	8a 50 0b	 mov	 dl, BYTE PTR [eax+11]
  000d2	84 d2		 test	 dl, dl
  000d4	74 7f		 je	 SHORT $LN85@LoadInt_e
  000d6	80 f2 ea	 xor	 dl, -22			; ffffffeaH
  000d9	88 55 f3	 mov	 BYTE PTR __k$[ebp+11], dl
  000dc	8a 50 0c	 mov	 dl, BYTE PTR [eax+12]
  000df	84 d2		 test	 dl, dl
  000e1	74 6c		 je	 SHORT $LN84@LoadInt_e
  000e3	80 f2 ed	 xor	 dl, -19			; ffffffedH
  000e6	88 55 f4	 mov	 BYTE PTR __k$[ebp+12], dl
  000e9	8a 50 0d	 mov	 dl, BYTE PTR [eax+13]
  000ec	84 d2		 test	 dl, dl
  000ee	74 5a		 je	 SHORT $LN83@LoadInt_e
  000f0	32 d1		 xor	 dl, cl
  000f2	80 78 0e 00	 cmp	 BYTE PTR [eax+14], 0
  000f6	88 55 f5	 mov	 BYTE PTR __k$[ebp+13], dl
  000f9	0f 84 9a 00 00
	00		 je	 $LN1@LoadInt_e
  000ff	8a 50 0f	 mov	 dl, BYTE PTR [eax+15]
  00102	84 d2		 test	 dl, dl
  00104	74 3e		 je	 SHORT $LN81@LoadInt_e
  00106	80 f2 ea	 xor	 dl, -22			; ffffffeaH
  00109	88 55 f7	 mov	 BYTE PTR __k$[ebp+15], dl
  0010c	8a 50 10	 mov	 dl, BYTE PTR [eax+16]
  0010f	84 d2		 test	 dl, dl
  00111	74 2b		 je	 SHORT $LN80@LoadInt_e
  00113	80 f2 ed	 xor	 dl, -19			; ffffffedH
  00116	88 55 f8	 mov	 BYTE PTR __k$[ebp+16], dl
  00119	8a 50 11	 mov	 dl, BYTE PTR [eax+17]
  0011c	84 d2		 test	 dl, dl
  0011e	74 19		 je	 SHORT $LN79@LoadInt_e
  00120	8a 40 12	 mov	 al, BYTE PTR [eax+18]
  00123	32 d1		 xor	 dl, cl
  00125	88 55 f9	 mov	 BYTE PTR __k$[ebp+17], dl
  00128	84 c0		 test	 al, al
  0012a	74 07		 je	 SHORT $LN78@LoadInt_e
  0012c	34 eb		 xor	 al, -21			; ffffffebH
  0012e	88 45 fa	 mov	 BYTE PTR __k$[ebp+18], al
  00131	eb 66		 jmp	 SHORT $LN1@LoadInt_e
$LN78@LoadInt_e:
  00133	c6 45 fa eb	 mov	 BYTE PTR __k$[ebp+18], -21 ; ffffffebH
  00137	eb 60		 jmp	 SHORT $LN1@LoadInt_e
$LN79@LoadInt_e:
  00139	88 4d f9	 mov	 BYTE PTR __k$[ebp+17], cl
  0013c	eb 5b		 jmp	 SHORT $LN1@LoadInt_e
$LN80@LoadInt_e:
  0013e	c6 45 f8 ed	 mov	 BYTE PTR __k$[ebp+16], -19 ; ffffffedH
  00142	eb 55		 jmp	 SHORT $LN1@LoadInt_e
$LN81@LoadInt_e:
  00144	c6 45 f7 ea	 mov	 BYTE PTR __k$[ebp+15], -22 ; ffffffeaH
  00148	eb 4f		 jmp	 SHORT $LN1@LoadInt_e
$LN83@LoadInt_e:
  0014a	88 4d f5	 mov	 BYTE PTR __k$[ebp+13], cl
  0014d	eb 4a		 jmp	 SHORT $LN1@LoadInt_e
$LN84@LoadInt_e:
  0014f	c6 45 f4 ed	 mov	 BYTE PTR __k$[ebp+12], -19 ; ffffffedH
  00153	eb 44		 jmp	 SHORT $LN1@LoadInt_e
$LN85@LoadInt_e:
  00155	c6 45 f3 ea	 mov	 BYTE PTR __k$[ebp+11], -22 ; ffffffeaH
  00159	eb 3e		 jmp	 SHORT $LN1@LoadInt_e
$LN86@LoadInt_e:
  0015b	c6 45 f2 eb	 mov	 BYTE PTR __k$[ebp+10], -21 ; ffffffebH
  0015f	eb 38		 jmp	 SHORT $LN1@LoadInt_e
$LN87@LoadInt_e:
  00161	88 4d f1	 mov	 BYTE PTR __k$[ebp+9], cl
  00164	eb 33		 jmp	 SHORT $LN1@LoadInt_e
$LN88@LoadInt_e:
  00166	c6 45 f0 ed	 mov	 BYTE PTR __k$[ebp+8], -19 ; ffffffedH
  0016a	eb 2d		 jmp	 SHORT $LN1@LoadInt_e
$LN89@LoadInt_e:
  0016c	c6 45 ef ea	 mov	 BYTE PTR __k$[ebp+7], -22 ; ffffffeaH
  00170	eb 27		 jmp	 SHORT $LN1@LoadInt_e
$LN90@LoadInt_e:
  00172	c6 45 ee eb	 mov	 BYTE PTR __k$[ebp+6], -21 ; ffffffebH
  00176	eb 21		 jmp	 SHORT $LN1@LoadInt_e
$LN91@LoadInt_e:
  00178	88 4d ed	 mov	 BYTE PTR __k$[ebp+5], cl
  0017b	eb 1c		 jmp	 SHORT $LN1@LoadInt_e
$LN92@LoadInt_e:
  0017d	c6 45 ec ed	 mov	 BYTE PTR __k$[ebp+4], -19 ; ffffffedH
  00181	eb 16		 jmp	 SHORT $LN1@LoadInt_e
$LN93@LoadInt_e:
  00183	c6 45 eb ea	 mov	 BYTE PTR __k$[ebp+3], -22 ; ffffffeaH
  00187	eb 10		 jmp	 SHORT $LN1@LoadInt_e
$LN94@LoadInt_e:
  00189	c6 45 ea eb	 mov	 BYTE PTR __k$[ebp+2], -21 ; ffffffebH
  0018d	eb 0a		 jmp	 SHORT $LN1@LoadInt_e
$LN95@LoadInt_e:
  0018f	c6 45 e9 ec	 mov	 BYTE PTR __k$[ebp+1], -20 ; ffffffecH
  00193	eb 04		 jmp	 SHORT $LN1@LoadInt_e
$LN96@LoadInt_e:
  00195	c6 45 e8 ed	 mov	 BYTE PTR __k$[ebp], -19	; ffffffedH
$LN1@LoadInt_e:
  00199	6a 03		 push	 3
  0019b	8d 45 e8	 lea	 eax, DWORD PTR __k$[ebp]
  0019e	c6 45 f6 00	 mov	 BYTE PTR __k$[ebp+14], 0
  001a2	5a		 pop	 edx
$LL104@LoadInt_e:
  001a3	81 30 ed ec eb
	ea		 xor	 DWORD PTR [eax], -353637139 ; eaebecedH
  001a9	83 c0 04	 add	 eax, 4
  001ac	4a		 dec	 edx
  001ad	75 f4		 jne	 SHORT $LL104@LoadInt_e
  001af	6a 0c		 push	 12			; 0000000cH
  001b1	58		 pop	 eax
$LL101@LoadInt_e:
  001b2	8b c8		 mov	 ecx, eax
  001b4	81 e1 03 00 00
	80		 and	 ecx, -2147483645	; 80000003H
  001ba	79 05		 jns	 SHORT $LN111@LoadInt_e
  001bc	49		 dec	 ecx
  001bd	83 c9 fc	 or	 ecx, -4			; fffffffcH
  001c0	41		 inc	 ecx
$LN111@LoadInt_e:
  001c1	b2 ed		 mov	 dl, -19			; ffffffedH
  001c3	2a d1		 sub	 dl, cl
  001c5	30 54 05 e8	 xor	 BYTE PTR __k$[ebp+eax], dl
  001c9	40		 inc	 eax
  001ca	83 f8 0e	 cmp	 eax, 14			; 0000000eH
  001cd	7c e3		 jl	 SHORT $LL101@LoadInt_e

; 120  : 		return LoadInt(_k, i);

  001cf	ff 75 0c	 push	 DWORD PTR _i$[ebp]
  001d2	8d 45 e8	 lea	 eax, DWORD PTR __k$[ebp]
  001d5	50		 push	 eax
  001d6	8b ce		 mov	 ecx, esi
  001d8	ff 15 00 00 00
	00		 call	 DWORD PTR __imp_?LoadInt@ioINILoader@@QAEHPBDH@Z

; 121  : 	}

  001de	8b 4d fc	 mov	 ecx, DWORD PTR __$ArrayPad$[ebp]
  001e1	33 cd		 xor	 ecx, ebp
  001e3	5e		 pop	 esi
  001e4	e8 00 00 00 00	 call	 @__security_check_cookie@4
  001e9	c9		 leave
  001ea	c2 08 00	 ret	 8
??$LoadInt_e@$0P@@ioINILoader@@QAEHAAY0P@$$CBDH@Z ENDP	; ioINILoader::LoadInt_e<15>
_TEXT	ENDS
PUBLIC	_this$GSCopy$
PUBLIC	__$ArrayPad$
PUBLIC	??$LoadString_e@$0BB@@ioINILoader@@QAEXAAY0BB@$$CBDAAY00$$CBDPADH@Z ; ioINILoader::LoadString_e<17>
; Function compile flags: /Ogsp
;	COMDAT ??$LoadString_e@$0BB@@ioINILoader@@QAEXAAY0BB@$$CBDAAY00$$CBDPADH@Z
_TEXT	SEGMENT
_this$GSCopy$ = -32					; size = 4
__k$ = -28						; size = 17
__$ArrayPad$ = -4					; size = 4
_k$ = 8							; size = 4
_d$ = 12						; size = 4
_b$ = 16						; size = 4
_i$ = 20						; size = 4
??$LoadString_e@$0BB@@ioINILoader@@QAEXAAY0BB@$$CBDAAY00$$CBDPADH@Z PROC ; ioINILoader::LoadString_e<17>, COMDAT
; _this$ = ecx

; 161  : 	{

  00000	55		 push	 ebp
  00001	8b ec		 mov	 ebp, esp
  00003	83 ec 20	 sub	 esp, 32			; 00000020H
  00006	a1 00 00 00 00	 mov	 eax, DWORD PTR ___security_cookie
  0000b	33 c5		 xor	 eax, ebp
  0000d	89 45 fc	 mov	 DWORD PTR __$ArrayPad$[ebp], eax
  00010	8b 45 08	 mov	 eax, DWORD PTR _k$[ebp]

; 162  : 		_ENCSTR(k, _k);

  00013	8a 10		 mov	 dl, BYTE PTR [eax]
  00015	56		 push	 esi
  00016	8b 75 0c	 mov	 esi, DWORD PTR _d$[ebp]
  00019	57		 push	 edi
  0001a	8b 7d 10	 mov	 edi, DWORD PTR _b$[ebp]
  0001d	89 4d e0	 mov	 DWORD PTR _this$GSCopy$[ebp], ecx
  00020	84 d2		 test	 dl, dl
  00022	0f 84 a7 01 00
	00		 je	 $LN96@LoadString@2
  00028	80 f2 ed	 xor	 dl, -19			; ffffffedH
  0002b	88 55 e4	 mov	 BYTE PTR __k$[ebp], dl
  0002e	8a 50 01	 mov	 dl, BYTE PTR [eax+1]
  00031	84 d2		 test	 dl, dl
  00033	0f 84 90 01 00
	00		 je	 $LN95@LoadString@2
  00039	b1 ec		 mov	 cl, -20			; ffffffecH
  0003b	32 d1		 xor	 dl, cl
  0003d	88 55 e5	 mov	 BYTE PTR __k$[ebp+1], dl
  00040	8a 50 02	 mov	 dl, BYTE PTR [eax+2]
  00043	84 d2		 test	 dl, dl
  00045	0f 84 78 01 00
	00		 je	 $LN94@LoadString@2
  0004b	80 f2 eb	 xor	 dl, -21			; ffffffebH
  0004e	88 55 e6	 mov	 BYTE PTR __k$[ebp+2], dl
  00051	8a 50 03	 mov	 dl, BYTE PTR [eax+3]
  00054	84 d2		 test	 dl, dl
  00056	0f 84 61 01 00
	00		 je	 $LN93@LoadString@2
  0005c	80 f2 ea	 xor	 dl, -22			; ffffffeaH
  0005f	88 55 e7	 mov	 BYTE PTR __k$[ebp+3], dl
  00062	8a 50 04	 mov	 dl, BYTE PTR [eax+4]
  00065	84 d2		 test	 dl, dl
  00067	0f 84 4a 01 00
	00		 je	 $LN92@LoadString@2
  0006d	80 f2 ed	 xor	 dl, -19			; ffffffedH
  00070	88 55 e8	 mov	 BYTE PTR __k$[ebp+4], dl
  00073	8a 50 05	 mov	 dl, BYTE PTR [eax+5]
  00076	84 d2		 test	 dl, dl
  00078	0f 84 34 01 00
	00		 je	 $LN91@LoadString@2
  0007e	32 d1		 xor	 dl, cl
  00080	88 55 e9	 mov	 BYTE PTR __k$[ebp+5], dl
  00083	8a 50 06	 mov	 dl, BYTE PTR [eax+6]
  00086	84 d2		 test	 dl, dl
  00088	0f 84 1e 01 00
	00		 je	 $LN90@LoadString@2
  0008e	80 f2 eb	 xor	 dl, -21			; ffffffebH
  00091	88 55 ea	 mov	 BYTE PTR __k$[ebp+6], dl
  00094	8a 50 07	 mov	 dl, BYTE PTR [eax+7]
  00097	84 d2		 test	 dl, dl
  00099	0f 84 07 01 00
	00		 je	 $LN89@LoadString@2
  0009f	80 f2 ea	 xor	 dl, -22			; ffffffeaH
  000a2	88 55 eb	 mov	 BYTE PTR __k$[ebp+7], dl
  000a5	8a 50 08	 mov	 dl, BYTE PTR [eax+8]
  000a8	84 d2		 test	 dl, dl
  000aa	0f 84 f0 00 00
	00		 je	 $LN88@LoadString@2
  000b0	80 f2 ed	 xor	 dl, -19			; ffffffedH
  000b3	88 55 ec	 mov	 BYTE PTR __k$[ebp+8], dl
  000b6	8a 50 09	 mov	 dl, BYTE PTR [eax+9]
  000b9	84 d2		 test	 dl, dl
  000bb	0f 84 da 00 00
	00		 je	 $LN87@LoadString@2
  000c1	32 d1		 xor	 dl, cl
  000c3	88 55 ed	 mov	 BYTE PTR __k$[ebp+9], dl
  000c6	8a 50 0a	 mov	 dl, BYTE PTR [eax+10]
  000c9	84 d2		 test	 dl, dl
  000cb	0f 84 c4 00 00
	00		 je	 $LN86@LoadString@2
  000d1	80 f2 eb	 xor	 dl, -21			; ffffffebH
  000d4	88 55 ee	 mov	 BYTE PTR __k$[ebp+10], dl
  000d7	8a 50 0b	 mov	 dl, BYTE PTR [eax+11]
  000da	84 d2		 test	 dl, dl
  000dc	0f 84 ad 00 00
	00		 je	 $LN85@LoadString@2
  000e2	80 f2 ea	 xor	 dl, -22			; ffffffeaH
  000e5	88 55 ef	 mov	 BYTE PTR __k$[ebp+11], dl
  000e8	8a 50 0c	 mov	 dl, BYTE PTR [eax+12]
  000eb	84 d2		 test	 dl, dl
  000ed	0f 84 96 00 00
	00		 je	 $LN84@LoadString@2
  000f3	80 f2 ed	 xor	 dl, -19			; ffffffedH
  000f6	88 55 f0	 mov	 BYTE PTR __k$[ebp+12], dl
  000f9	8a 50 0d	 mov	 dl, BYTE PTR [eax+13]
  000fc	84 d2		 test	 dl, dl
  000fe	0f 84 80 00 00
	00		 je	 $LN83@LoadString@2
  00104	32 d1		 xor	 dl, cl
  00106	88 55 f1	 mov	 BYTE PTR __k$[ebp+13], dl
  00109	8a 50 0e	 mov	 dl, BYTE PTR [eax+14]
  0010c	84 d2		 test	 dl, dl
  0010e	74 6e		 je	 SHORT $LN82@LoadString@2
  00110	80 f2 eb	 xor	 dl, -21			; ffffffebH
  00113	88 55 f2	 mov	 BYTE PTR __k$[ebp+14], dl
  00116	8a 50 0f	 mov	 dl, BYTE PTR [eax+15]
  00119	84 d2		 test	 dl, dl
  0011b	74 5b		 je	 SHORT $LN81@LoadString@2
  0011d	80 f2 ea	 xor	 dl, -22			; ffffffeaH
  00120	80 78 10 00	 cmp	 BYTE PTR [eax+16], 0
  00124	88 55 f3	 mov	 BYTE PTR __k$[ebp+15], dl
  00127	0f 84 a6 00 00
	00		 je	 $LN111@LoadString@2
  0012d	8a 50 11	 mov	 dl, BYTE PTR [eax+17]
  00130	84 d2		 test	 dl, dl
  00132	74 3f		 je	 SHORT $LN79@LoadString@2
  00134	32 d1		 xor	 dl, cl
  00136	88 55 f5	 mov	 BYTE PTR __k$[ebp+17], dl
  00139	8a 50 12	 mov	 dl, BYTE PTR [eax+18]
  0013c	84 d2		 test	 dl, dl
  0013e	74 2d		 je	 SHORT $LN78@LoadString@2
  00140	80 f2 eb	 xor	 dl, -21			; ffffffebH
  00143	88 55 f6	 mov	 BYTE PTR __k$[ebp+18], dl
  00146	8a 50 13	 mov	 dl, BYTE PTR [eax+19]
  00149	84 d2		 test	 dl, dl
  0014b	74 1a		 je	 SHORT $LN77@LoadString@2
  0014d	8a 40 14	 mov	 al, BYTE PTR [eax+20]
  00150	80 f2 ea	 xor	 dl, -22			; ffffffeaH
  00153	88 55 f7	 mov	 BYTE PTR __k$[ebp+19], dl
  00156	84 c0		 test	 al, al
  00158	74 07		 je	 SHORT $LN76@LoadString@2
  0015a	34 ed		 xor	 al, -19			; ffffffedH
  0015c	88 45 f8	 mov	 BYTE PTR __k$[ebp+20], al
  0015f	eb 72		 jmp	 SHORT $LN111@LoadString@2
$LN76@LoadString@2:
  00161	c6 45 f8 ed	 mov	 BYTE PTR __k$[ebp+20], -19 ; ffffffedH
  00165	eb 6c		 jmp	 SHORT $LN111@LoadString@2
$LN77@LoadString@2:
  00167	c6 45 f7 ea	 mov	 BYTE PTR __k$[ebp+19], -22 ; ffffffeaH
  0016b	eb 66		 jmp	 SHORT $LN111@LoadString@2
$LN78@LoadString@2:
  0016d	c6 45 f6 eb	 mov	 BYTE PTR __k$[ebp+18], -21 ; ffffffebH
  00171	eb 60		 jmp	 SHORT $LN111@LoadString@2
$LN79@LoadString@2:
  00173	88 4d f5	 mov	 BYTE PTR __k$[ebp+17], cl
  00176	eb 5b		 jmp	 SHORT $LN111@LoadString@2
$LN81@LoadString@2:
  00178	c6 45 f3 ea	 mov	 BYTE PTR __k$[ebp+15], -22 ; ffffffeaH
  0017c	eb 55		 jmp	 SHORT $LN111@LoadString@2
$LN82@LoadString@2:
  0017e	c6 45 f2 eb	 mov	 BYTE PTR __k$[ebp+14], -21 ; ffffffebH
  00182	eb 4f		 jmp	 SHORT $LN111@LoadString@2
$LN83@LoadString@2:
  00184	88 4d f1	 mov	 BYTE PTR __k$[ebp+13], cl
  00187	eb 4a		 jmp	 SHORT $LN111@LoadString@2
$LN84@LoadString@2:
  00189	c6 45 f0 ed	 mov	 BYTE PTR __k$[ebp+12], -19 ; ffffffedH
  0018d	eb 44		 jmp	 SHORT $LN111@LoadString@2
$LN85@LoadString@2:
  0018f	c6 45 ef ea	 mov	 BYTE PTR __k$[ebp+11], -22 ; ffffffeaH
  00193	eb 3e		 jmp	 SHORT $LN111@LoadString@2
$LN86@LoadString@2:
  00195	c6 45 ee eb	 mov	 BYTE PTR __k$[ebp+10], -21 ; ffffffebH
  00199	eb 38		 jmp	 SHORT $LN111@LoadString@2
$LN87@LoadString@2:
  0019b	88 4d ed	 mov	 BYTE PTR __k$[ebp+9], cl
  0019e	eb 33		 jmp	 SHORT $LN111@LoadString@2
$LN88@LoadString@2:
  001a0	c6 45 ec ed	 mov	 BYTE PTR __k$[ebp+8], -19 ; ffffffedH
  001a4	eb 2d		 jmp	 SHORT $LN111@LoadString@2
$LN89@LoadString@2:
  001a6	c6 45 eb ea	 mov	 BYTE PTR __k$[ebp+7], -22 ; ffffffeaH
  001aa	eb 27		 jmp	 SHORT $LN111@LoadString@2
$LN90@LoadString@2:
  001ac	c6 45 ea eb	 mov	 BYTE PTR __k$[ebp+6], -21 ; ffffffebH
  001b0	eb 21		 jmp	 SHORT $LN111@LoadString@2
$LN91@LoadString@2:
  001b2	88 4d e9	 mov	 BYTE PTR __k$[ebp+5], cl
  001b5	eb 1c		 jmp	 SHORT $LN111@LoadString@2
$LN92@LoadString@2:
  001b7	c6 45 e8 ed	 mov	 BYTE PTR __k$[ebp+4], -19 ; ffffffedH
  001bb	eb 16		 jmp	 SHORT $LN111@LoadString@2
$LN93@LoadString@2:
  001bd	c6 45 e7 ea	 mov	 BYTE PTR __k$[ebp+3], -22 ; ffffffeaH
  001c1	eb 10		 jmp	 SHORT $LN111@LoadString@2
$LN94@LoadString@2:
  001c3	c6 45 e6 eb	 mov	 BYTE PTR __k$[ebp+2], -21 ; ffffffebH
  001c7	eb 0a		 jmp	 SHORT $LN111@LoadString@2
$LN95@LoadString@2:
  001c9	c6 45 e5 ec	 mov	 BYTE PTR __k$[ebp+1], -20 ; ffffffecH
  001cd	eb 04		 jmp	 SHORT $LN111@LoadString@2
$LN96@LoadString@2:
  001cf	c6 45 e4 ed	 mov	 BYTE PTR __k$[ebp], -19	; ffffffedH
$LN111@LoadString@2:
  001d3	6a 04		 push	 4
  001d5	8d 45 e4	 lea	 eax, DWORD PTR __k$[ebp]
  001d8	c6 45 f4 00	 mov	 BYTE PTR __k$[ebp+16], 0
  001dc	5a		 pop	 edx
$LL104@LoadString@2:
  001dd	81 30 ed ec eb
	ea		 xor	 DWORD PTR [eax], -353637139 ; eaebecedH
  001e3	83 c0 04	 add	 eax, 4
  001e6	4a		 dec	 edx
  001e7	75 f4		 jne	 SHORT $LL104@LoadString@2

; 163  : 		LoadString(_k, d, b, i);

  001e9	ff 75 14	 push	 DWORD PTR _i$[ebp]
  001ec	8b 4d e0	 mov	 ecx, DWORD PTR _this$GSCopy$[ebp]
  001ef	57		 push	 edi
  001f0	56		 push	 esi
  001f1	8d 45 e4	 lea	 eax, DWORD PTR __k$[ebp]
  001f4	50		 push	 eax
  001f5	ff 15 00 00 00
	00		 call	 DWORD PTR __imp_?LoadStringA@ioINILoader@@QAEXPBD0PADH@Z

; 164  : 	}

  001fb	8b 4d fc	 mov	 ecx, DWORD PTR __$ArrayPad$[ebp]
  001fe	5f		 pop	 edi
  001ff	33 cd		 xor	 ecx, ebp
  00201	5e		 pop	 esi
  00202	e8 00 00 00 00	 call	 @__security_check_cookie@4
  00207	c9		 leave
  00208	c2 10 00	 ret	 16			; 00000010H
??$LoadString_e@$0BB@@ioINILoader@@QAEXAAY0BB@$$CBDAAY00$$CBDPADH@Z ENDP ; ioINILoader::LoadString_e<17>
_TEXT	ENDS
PUBLIC	__$ArrayPad$
PUBLIC	??$LoadFloat_e@$0BB@@ioINILoader@@QAEMAAY0BB@$$CBDM@Z ; ioINILoader::LoadFloat_e<17>
; Function compile flags: /Ogsp
;	COMDAT ??$LoadFloat_e@$0BB@@ioINILoader@@QAEMAAY0BB@$$CBDM@Z
_TEXT	SEGMENT
__k$ = -28						; size = 17
__$ArrayPad$ = -4					; size = 4
_k$ = 8							; size = 4
_f$ = 12						; size = 4
??$LoadFloat_e@$0BB@@ioINILoader@@QAEMAAY0BB@$$CBDM@Z PROC ; ioINILoader::LoadFloat_e<17>, COMDAT
; _this$ = ecx

; 135  : 	{

  00000	55		 push	 ebp
  00001	8b ec		 mov	 ebp, esp
  00003	83 ec 1c	 sub	 esp, 28			; 0000001cH
  00006	a1 00 00 00 00	 mov	 eax, DWORD PTR ___security_cookie
  0000b	33 c5		 xor	 eax, ebp
  0000d	89 45 fc	 mov	 DWORD PTR __$ArrayPad$[ebp], eax
  00010	8b 45 08	 mov	 eax, DWORD PTR _k$[ebp]

; 136  : 		_ENCSTR(k, _k);

  00013	8a 10		 mov	 dl, BYTE PTR [eax]
  00015	56		 push	 esi
  00016	8b f1		 mov	 esi, ecx
  00018	84 d2		 test	 dl, dl
  0001a	0f 84 a7 01 00
	00		 je	 $LN96@LoadFloat_@5
  00020	80 f2 ed	 xor	 dl, -19			; ffffffedH
  00023	88 55 e4	 mov	 BYTE PTR __k$[ebp], dl
  00026	8a 50 01	 mov	 dl, BYTE PTR [eax+1]
  00029	84 d2		 test	 dl, dl
  0002b	0f 84 90 01 00
	00		 je	 $LN95@LoadFloat_@5
  00031	b1 ec		 mov	 cl, -20			; ffffffecH
  00033	32 d1		 xor	 dl, cl
  00035	88 55 e5	 mov	 BYTE PTR __k$[ebp+1], dl
  00038	8a 50 02	 mov	 dl, BYTE PTR [eax+2]
  0003b	84 d2		 test	 dl, dl
  0003d	0f 84 78 01 00
	00		 je	 $LN94@LoadFloat_@5
  00043	80 f2 eb	 xor	 dl, -21			; ffffffebH
  00046	88 55 e6	 mov	 BYTE PTR __k$[ebp+2], dl
  00049	8a 50 03	 mov	 dl, BYTE PTR [eax+3]
  0004c	84 d2		 test	 dl, dl
  0004e	0f 84 61 01 00
	00		 je	 $LN93@LoadFloat_@5
  00054	80 f2 ea	 xor	 dl, -22			; ffffffeaH
  00057	88 55 e7	 mov	 BYTE PTR __k$[ebp+3], dl
  0005a	8a 50 04	 mov	 dl, BYTE PTR [eax+4]
  0005d	84 d2		 test	 dl, dl
  0005f	0f 84 4a 01 00
	00		 je	 $LN92@LoadFloat_@5
  00065	80 f2 ed	 xor	 dl, -19			; ffffffedH
  00068	88 55 e8	 mov	 BYTE PTR __k$[ebp+4], dl
  0006b	8a 50 05	 mov	 dl, BYTE PTR [eax+5]
  0006e	84 d2		 test	 dl, dl
  00070	0f 84 34 01 00
	00		 je	 $LN91@LoadFloat_@5
  00076	32 d1		 xor	 dl, cl
  00078	88 55 e9	 mov	 BYTE PTR __k$[ebp+5], dl
  0007b	8a 50 06	 mov	 dl, BYTE PTR [eax+6]
  0007e	84 d2		 test	 dl, dl
  00080	0f 84 1e 01 00
	00		 je	 $LN90@LoadFloat_@5
  00086	80 f2 eb	 xor	 dl, -21			; ffffffebH
  00089	88 55 ea	 mov	 BYTE PTR __k$[ebp+6], dl
  0008c	8a 50 07	 mov	 dl, BYTE PTR [eax+7]
  0008f	84 d2		 test	 dl, dl
  00091	0f 84 07 01 00
	00		 je	 $LN89@LoadFloat_@5
  00097	80 f2 ea	 xor	 dl, -22			; ffffffeaH
  0009a	88 55 eb	 mov	 BYTE PTR __k$[ebp+7], dl
  0009d	8a 50 08	 mov	 dl, BYTE PTR [eax+8]
  000a0	84 d2		 test	 dl, dl
  000a2	0f 84 f0 00 00
	00		 je	 $LN88@LoadFloat_@5
  000a8	80 f2 ed	 xor	 dl, -19			; ffffffedH
  000ab	88 55 ec	 mov	 BYTE PTR __k$[ebp+8], dl
  000ae	8a 50 09	 mov	 dl, BYTE PTR [eax+9]
  000b1	84 d2		 test	 dl, dl
  000b3	0f 84 da 00 00
	00		 je	 $LN87@LoadFloat_@5
  000b9	32 d1		 xor	 dl, cl
  000bb	88 55 ed	 mov	 BYTE PTR __k$[ebp+9], dl
  000be	8a 50 0a	 mov	 dl, BYTE PTR [eax+10]
  000c1	84 d2		 test	 dl, dl
  000c3	0f 84 c4 00 00
	00		 je	 $LN86@LoadFloat_@5
  000c9	80 f2 eb	 xor	 dl, -21			; ffffffebH
  000cc	88 55 ee	 mov	 BYTE PTR __k$[ebp+10], dl
  000cf	8a 50 0b	 mov	 dl, BYTE PTR [eax+11]
  000d2	84 d2		 test	 dl, dl
  000d4	0f 84 ad 00 00
	00		 je	 $LN85@LoadFloat_@5
  000da	80 f2 ea	 xor	 dl, -22			; ffffffeaH
  000dd	88 55 ef	 mov	 BYTE PTR __k$[ebp+11], dl
  000e0	8a 50 0c	 mov	 dl, BYTE PTR [eax+12]
  000e3	84 d2		 test	 dl, dl
  000e5	0f 84 96 00 00
	00		 je	 $LN84@LoadFloat_@5
  000eb	80 f2 ed	 xor	 dl, -19			; ffffffedH
  000ee	88 55 f0	 mov	 BYTE PTR __k$[ebp+12], dl
  000f1	8a 50 0d	 mov	 dl, BYTE PTR [eax+13]
  000f4	84 d2		 test	 dl, dl
  000f6	0f 84 80 00 00
	00		 je	 $LN83@LoadFloat_@5
  000fc	32 d1		 xor	 dl, cl
  000fe	88 55 f1	 mov	 BYTE PTR __k$[ebp+13], dl
  00101	8a 50 0e	 mov	 dl, BYTE PTR [eax+14]
  00104	84 d2		 test	 dl, dl
  00106	74 6e		 je	 SHORT $LN82@LoadFloat_@5
  00108	80 f2 eb	 xor	 dl, -21			; ffffffebH
  0010b	88 55 f2	 mov	 BYTE PTR __k$[ebp+14], dl
  0010e	8a 50 0f	 mov	 dl, BYTE PTR [eax+15]
  00111	84 d2		 test	 dl, dl
  00113	74 5b		 je	 SHORT $LN81@LoadFloat_@5
  00115	80 f2 ea	 xor	 dl, -22			; ffffffeaH
  00118	80 78 10 00	 cmp	 BYTE PTR [eax+16], 0
  0011c	88 55 f3	 mov	 BYTE PTR __k$[ebp+15], dl
  0011f	0f 84 a6 00 00
	00		 je	 $LN1@LoadFloat_@5
  00125	8a 50 11	 mov	 dl, BYTE PTR [eax+17]
  00128	84 d2		 test	 dl, dl
  0012a	74 3f		 je	 SHORT $LN79@LoadFloat_@5
  0012c	32 d1		 xor	 dl, cl
  0012e	88 55 f5	 mov	 BYTE PTR __k$[ebp+17], dl
  00131	8a 50 12	 mov	 dl, BYTE PTR [eax+18]
  00134	84 d2		 test	 dl, dl
  00136	74 2d		 je	 SHORT $LN78@LoadFloat_@5
  00138	80 f2 eb	 xor	 dl, -21			; ffffffebH
  0013b	88 55 f6	 mov	 BYTE PTR __k$[ebp+18], dl
  0013e	8a 50 13	 mov	 dl, BYTE PTR [eax+19]
  00141	84 d2		 test	 dl, dl
  00143	74 1a		 je	 SHORT $LN77@LoadFloat_@5
  00145	8a 40 14	 mov	 al, BYTE PTR [eax+20]
  00148	80 f2 ea	 xor	 dl, -22			; ffffffeaH
  0014b	88 55 f7	 mov	 BYTE PTR __k$[ebp+19], dl
  0014e	84 c0		 test	 al, al
  00150	74 07		 je	 SHORT $LN76@LoadFloat_@5
  00152	34 ed		 xor	 al, -19			; ffffffedH
  00154	88 45 f8	 mov	 BYTE PTR __k$[ebp+20], al
  00157	eb 72		 jmp	 SHORT $LN1@LoadFloat_@5
$LN76@LoadFloat_@5:
  00159	c6 45 f8 ed	 mov	 BYTE PTR __k$[ebp+20], -19 ; ffffffedH
  0015d	eb 6c		 jmp	 SHORT $LN1@LoadFloat_@5
$LN77@LoadFloat_@5:
  0015f	c6 45 f7 ea	 mov	 BYTE PTR __k$[ebp+19], -22 ; ffffffeaH
  00163	eb 66		 jmp	 SHORT $LN1@LoadFloat_@5
$LN78@LoadFloat_@5:
  00165	c6 45 f6 eb	 mov	 BYTE PTR __k$[ebp+18], -21 ; ffffffebH
  00169	eb 60		 jmp	 SHORT $LN1@LoadFloat_@5
$LN79@LoadFloat_@5:
  0016b	88 4d f5	 mov	 BYTE PTR __k$[ebp+17], cl
  0016e	eb 5b		 jmp	 SHORT $LN1@LoadFloat_@5
$LN81@LoadFloat_@5:
  00170	c6 45 f3 ea	 mov	 BYTE PTR __k$[ebp+15], -22 ; ffffffeaH
  00174	eb 55		 jmp	 SHORT $LN1@LoadFloat_@5
$LN82@LoadFloat_@5:
  00176	c6 45 f2 eb	 mov	 BYTE PTR __k$[ebp+14], -21 ; ffffffebH
  0017a	eb 4f		 jmp	 SHORT $LN1@LoadFloat_@5
$LN83@LoadFloat_@5:
  0017c	88 4d f1	 mov	 BYTE PTR __k$[ebp+13], cl
  0017f	eb 4a		 jmp	 SHORT $LN1@LoadFloat_@5
$LN84@LoadFloat_@5:
  00181	c6 45 f0 ed	 mov	 BYTE PTR __k$[ebp+12], -19 ; ffffffedH
  00185	eb 44		 jmp	 SHORT $LN1@LoadFloat_@5
$LN85@LoadFloat_@5:
  00187	c6 45 ef ea	 mov	 BYTE PTR __k$[ebp+11], -22 ; ffffffeaH
  0018b	eb 3e		 jmp	 SHORT $LN1@LoadFloat_@5
$LN86@LoadFloat_@5:
  0018d	c6 45 ee eb	 mov	 BYTE PTR __k$[ebp+10], -21 ; ffffffebH
  00191	eb 38		 jmp	 SHORT $LN1@LoadFloat_@5
$LN87@LoadFloat_@5:
  00193	88 4d ed	 mov	 BYTE PTR __k$[ebp+9], cl
  00196	eb 33		 jmp	 SHORT $LN1@LoadFloat_@5
$LN88@LoadFloat_@5:
  00198	c6 45 ec ed	 mov	 BYTE PTR __k$[ebp+8], -19 ; ffffffedH
  0019c	eb 2d		 jmp	 SHORT $LN1@LoadFloat_@5
$LN89@LoadFloat_@5:
  0019e	c6 45 eb ea	 mov	 BYTE PTR __k$[ebp+7], -22 ; ffffffeaH
  001a2	eb 27		 jmp	 SHORT $LN1@LoadFloat_@5
$LN90@LoadFloat_@5:
  001a4	c6 45 ea eb	 mov	 BYTE PTR __k$[ebp+6], -21 ; ffffffebH
  001a8	eb 21		 jmp	 SHORT $LN1@LoadFloat_@5
$LN91@LoadFloat_@5:
  001aa	88 4d e9	 mov	 BYTE PTR __k$[ebp+5], cl
  001ad	eb 1c		 jmp	 SHORT $LN1@LoadFloat_@5
$LN92@LoadFloat_@5:
  001af	c6 45 e8 ed	 mov	 BYTE PTR __k$[ebp+4], -19 ; ffffffedH
  001b3	eb 16		 jmp	 SHORT $LN1@LoadFloat_@5
$LN93@LoadFloat_@5:
  001b5	c6 45 e7 ea	 mov	 BYTE PTR __k$[ebp+3], -22 ; ffffffeaH
  001b9	eb 10		 jmp	 SHORT $LN1@LoadFloat_@5
$LN94@LoadFloat_@5:
  001bb	c6 45 e6 eb	 mov	 BYTE PTR __k$[ebp+2], -21 ; ffffffebH
  001bf	eb 0a		 jmp	 SHORT $LN1@LoadFloat_@5
$LN95@LoadFloat_@5:
  001c1	c6 45 e5 ec	 mov	 BYTE PTR __k$[ebp+1], -20 ; ffffffecH
  001c5	eb 04		 jmp	 SHORT $LN1@LoadFloat_@5
$LN96@LoadFloat_@5:
  001c7	c6 45 e4 ed	 mov	 BYTE PTR __k$[ebp], -19	; ffffffedH
$LN1@LoadFloat_@5:
  001cb	6a 04		 push	 4
  001cd	8d 45 e4	 lea	 eax, DWORD PTR __k$[ebp]
  001d0	c6 45 f4 00	 mov	 BYTE PTR __k$[ebp+16], 0
  001d4	5a		 pop	 edx
$LL104@LoadFloat_@5:
  001d5	81 30 ed ec eb
	ea		 xor	 DWORD PTR [eax], -353637139 ; eaebecedH
  001db	83 c0 04	 add	 eax, 4
  001de	4a		 dec	 edx
  001df	75 f4		 jne	 SHORT $LL104@LoadFloat_@5

; 137  : 		return LoadFloat(_k, f);

  001e1	f3 0f 10 45 0c	 movss	 xmm0, DWORD PTR _f$[ebp]
  001e6	51		 push	 ecx
  001e7	8d 45 e4	 lea	 eax, DWORD PTR __k$[ebp]
  001ea	f3 0f 11 04 24	 movss	 DWORD PTR [esp], xmm0
  001ef	50		 push	 eax
  001f0	8b ce		 mov	 ecx, esi
  001f2	ff 15 00 00 00
	00		 call	 DWORD PTR __imp_?LoadFloat@ioINILoader@@QAEMPBDM@Z

; 138  : 	}

  001f8	8b 4d fc	 mov	 ecx, DWORD PTR __$ArrayPad$[ebp]
  001fb	33 cd		 xor	 ecx, ebp
  001fd	5e		 pop	 esi
  001fe	e8 00 00 00 00	 call	 @__security_check_cookie@4
  00203	c9		 leave
  00204	c2 08 00	 ret	 8
??$LoadFloat_e@$0BB@@ioINILoader@@QAEMAAY0BB@$$CBDM@Z ENDP ; ioINILoader::LoadFloat_e<17>
_TEXT	ENDS
PUBLIC	??$_Cons_val@V?$allocator@VioHashString@@@std@@VioHashString@@V3@@std@@YAXAAV?$allocator@VioHashString@@@0@PAVioHashString@@$$QAV2@@Z ; std::_Cons_val<std::allocator<ioHashString>,ioHashString,ioHashString>
; Function compile flags: /Ogsp
; File c:\program files (x86)\microsoft visual studio 10.0\vc\include\xmemory
;	COMDAT ??$_Cons_val@V?$allocator@VioHashString@@@std@@VioHashString@@V3@@std@@YAXAAV?$allocator@VioHashString@@@0@PAVioHashString@@$$QAV2@@Z
_TEXT	SEGMENT
__Alval$ = 8						; size = 4
__Pdest$ = 12						; size = 4
__Src$ = 16						; size = 4
??$_Cons_val@V?$allocator@VioHashString@@@std@@VioHashString@@V3@@std@@YAXAAV?$allocator@VioHashString@@@0@PAVioHashString@@$$QAV2@@Z PROC ; std::_Cons_val<std::allocator<ioHashString>,ioHashString,ioHashString>, COMDAT

; 279  : 	{	// construct using allocator

  00000	55		 push	 ebp
  00001	8b ec		 mov	 ebp, esp

; 280  : 	_Alval.construct(_Pdest, _STD forward<_Ty2>(_Src));

  00003	ff 75 10	 push	 DWORD PTR __Src$[ebp]
  00006	8b 4d 08	 mov	 ecx, DWORD PTR __Alval$[ebp]
  00009	ff 75 0c	 push	 DWORD PTR __Pdest$[ebp]
  0000c	e8 00 00 00 00	 call	 ?construct@?$allocator@VioHashString@@@std@@QAEXPAVioHashString@@$$QAV3@@Z ; std::allocator<ioHashString>::construct

; 281  : 	}

  00011	5d		 pop	 ebp
  00012	c3		 ret	 0
??$_Cons_val@V?$allocator@VioHashString@@@std@@VioHashString@@V3@@std@@YAXAAV?$allocator@VioHashString@@@0@PAVioHashString@@$$QAV2@@Z ENDP ; std::_Cons_val<std::allocator<ioHashString>,ioHashString,ioHashString>
_TEXT	ENDS
PUBLIC	??$construct@AAVioHashString@@@?$allocator@VioHashString@@@std@@QAEXPAVioHashString@@AAV2@@Z ; std::allocator<ioHashString>::construct<ioHashString &>
;	COMDAT xdata$x
; File c:\program files (x86)\microsoft visual studio 10.0\vc\include\utility
xdata$x	SEGMENT
__unwindtable$??$construct@AAVioHashString@@@?$allocator@VioHashString@@@std@@QAEXPAVioHashString@@AAV2@@Z DD 0ffffffffH
	DD	FLAT:__unwindfunclet$??$construct@AAVioHashString@@@?$allocator@VioHashString@@@std@@QAEXPAVioHashString@@AAV2@@Z$0
__ehfuncinfo$??$construct@AAVioHashString@@@?$allocator@VioHashString@@@std@@QAEXPAVioHashString@@AAV2@@Z DD 019930522H
	DD	01H
	DD	FLAT:__unwindtable$??$construct@AAVioHashString@@@?$allocator@VioHashString@@@std@@QAEXPAVioHashString@@AAV2@@Z
	DD	2 DUP(00H)
	DD	2 DUP(00H)
	DD	00H
	DD	01H
; Function compile flags: /Ogsp
; File c:\program files (x86)\microsoft visual studio 10.0\vc\include\xmemory
xdata$x	ENDS
;	COMDAT ??$construct@AAVioHashString@@@?$allocator@VioHashString@@@std@@QAEXPAVioHashString@@AAV2@@Z
_TEXT	SEGMENT
$T555161 = -16						; size = 4
__$EHRec$ = -12						; size = 12
__Ptr$ = 8						; size = 4
__Val$ = 12						; size = 4
??$construct@AAVioHashString@@@?$allocator@VioHashString@@@std@@QAEXPAVioHashString@@AAV2@@Z PROC ; std::allocator<ioHashString>::construct<ioHashString &>, COMDAT
; _this$ = ecx

; 206  : 		void construct(pointer _Ptr, _Other&& _Val)

  00000	6a 04		 push	 4
  00002	b8 00 00 00 00	 mov	 eax, __ehhandler$??$construct@AAVioHashString@@@?$allocator@VioHashString@@@std@@QAEXPAVioHashString@@AAV2@@Z
  00007	e8 00 00 00 00	 call	 __EH_prolog3

; 207  : 		{	// construct object at _Ptr with value _Val
; 208  : 		::new ((void _FARQ *)_Ptr) _Ty(_STD forward<_Other>(_Val));

  0000c	8b 4d 08	 mov	 ecx, DWORD PTR __Ptr$[ebp]
  0000f	89 4d f0	 mov	 DWORD PTR $T555161[ebp], ecx
  00012	83 65 fc 00	 and	 DWORD PTR __$EHRec$[ebp+8], 0
  00016	85 c9		 test	 ecx, ecx
  00018	74 09		 je	 SHORT $LN3@construct@2
  0001a	ff 75 0c	 push	 DWORD PTR __Val$[ebp]
  0001d	ff 15 00 00 00
	00		 call	 DWORD PTR __imp_??0ioHashString@@QAE@ABV0@@Z
$LN3@construct@2:

; 209  : 		}

  00023	e8 00 00 00 00	 call	 __EH_epilog3
  00028	c2 08 00	 ret	 8
_TEXT	ENDS
;	COMDAT text$x
text$x	SEGMENT
__unwindfunclet$??$construct@AAVioHashString@@@?$allocator@VioHashString@@@std@@QAEXPAVioHashString@@AAV2@@Z$0:
  00000	ff 75 08	 push	 DWORD PTR __Ptr$[ebp]
  00003	ff 75 f0	 push	 DWORD PTR $T555161[ebp]
  00006	e8 00 00 00 00	 call	 ??3@YAXPAX0@Z		; operator delete
  0000b	59		 pop	 ecx
  0000c	59		 pop	 ecx
  0000d	c3		 ret	 0
__ehhandler$??$construct@AAVioHashString@@@?$allocator@VioHashString@@@std@@QAEXPAVioHashString@@AAV2@@Z:
  0000e	8b 54 24 08	 mov	 edx, DWORD PTR [esp+8]
  00012	8d 42 0c	 lea	 eax, DWORD PTR [edx+12]
  00015	8b 4a ec	 mov	 ecx, DWORD PTR [edx-20]
  00018	33 c8		 xor	 ecx, eax
  0001a	e8 00 00 00 00	 call	 @__security_check_cookie@4
  0001f	b8 00 00 00 00	 mov	 eax, OFFSET __ehfuncinfo$??$construct@AAVioHashString@@@?$allocator@VioHashString@@@std@@QAEXPAVioHashString@@AAV2@@Z
  00024	e9 00 00 00 00	 jmp	 ___CxxFrameHandler3
text$x	ENDS
??$construct@AAVioHashString@@@?$allocator@VioHashString@@@std@@QAEXPAVioHashString@@AAV2@@Z ENDP ; std::allocator<ioHashString>::construct<ioHashString &>
PUBLIC	?construct@?$allocator@UForceInfo@@@std@@QAEXPAUForceInfo@@ABU3@@Z ; std::allocator<ForceInfo>::construct
; Function compile flags: /Ogsp
;	COMDAT ?construct@?$allocator@UForceInfo@@@std@@QAEXPAUForceInfo@@ABU3@@Z
_TEXT	SEGMENT
__Ptr$ = 8						; size = 4
__Val$ = 12						; size = 4
?construct@?$allocator@UForceInfo@@@std@@QAEXPAUForceInfo@@ABU3@@Z PROC ; std::allocator<ForceInfo>::construct, COMDAT
; _this$ = ecx

; 196  : 		{	// construct object at _Ptr with value _Val

  00000	55		 push	 ebp
  00001	8b ec		 mov	 ebp, esp
  00003	57		 push	 edi

; 197  : 		_Construct(_Ptr, _Val);

  00004	8b 7d 08	 mov	 edi, DWORD PTR __Ptr$[ebp]
  00007	85 ff		 test	 edi, edi
  00009	74 08		 je	 SHORT $LN5@construct@3
  0000b	56		 push	 esi
  0000c	8b 75 0c	 mov	 esi, DWORD PTR __Val$[ebp]
  0000f	a5		 movsd
  00010	a5		 movsd
  00011	a5		 movsd
  00012	5e		 pop	 esi
$LN5@construct@3:
  00013	5f		 pop	 edi

; 198  : 		}

  00014	5d		 pop	 ebp
  00015	c2 08 00	 ret	 8
?construct@?$allocator@UForceInfo@@@std@@QAEXPAUForceInfo@@ABU3@@Z ENDP ; std::allocator<ForceInfo>::construct
_TEXT	ENDS
PUBLIC	??$_Construct@UWeaponInfo@@ABU1@@std@@YAXPAUWeaponInfo@@ABU1@@Z ; std::_Construct<WeaponInfo,WeaponInfo const &>
;	COMDAT xdata$x
; File c:\program files (x86)\microsoft visual studio 10.0\vc\include\utility
xdata$x	SEGMENT
__unwindtable$??$_Construct@UWeaponInfo@@ABU1@@std@@YAXPAUWeaponInfo@@ABU1@@Z DD 0ffffffffH
	DD	FLAT:__unwindfunclet$??$_Construct@UWeaponInfo@@ABU1@@std@@YAXPAUWeaponInfo@@ABU1@@Z$0
__ehfuncinfo$??$_Construct@UWeaponInfo@@ABU1@@std@@YAXPAUWeaponInfo@@ABU1@@Z DD 019930522H
	DD	01H
	DD	FLAT:__unwindtable$??$_Construct@UWeaponInfo@@ABU1@@std@@YAXPAUWeaponInfo@@ABU1@@Z
	DD	2 DUP(00H)
	DD	2 DUP(00H)
	DD	00H
	DD	01H
; Function compile flags: /Ogsp
; File c:\program files (x86)\microsoft visual studio 10.0\vc\include\xmemory
xdata$x	ENDS
;	COMDAT ??$_Construct@UWeaponInfo@@ABU1@@std@@YAXPAUWeaponInfo@@ABU1@@Z
_TEXT	SEGMENT
$T555204 = -16						; size = 4
__$EHRec$ = -12						; size = 12
__Vptr$ = 8						; size = 4
__Ptr$ = 8						; size = 4
__Val$ = 12						; size = 4
??$_Construct@UWeaponInfo@@ABU1@@std@@YAXPAUWeaponInfo@@ABU1@@Z PROC ; std::_Construct<WeaponInfo,WeaponInfo const &>, COMDAT

; 46   : 	{	// construct object at _Ptr with value _Val

  00000	6a 04		 push	 4
  00002	b8 00 00 00 00	 mov	 eax, __ehhandler$??$_Construct@UWeaponInfo@@ABU1@@std@@YAXPAUWeaponInfo@@ABU1@@Z
  00007	e8 00 00 00 00	 call	 __EH_prolog3

; 47   : 	void _FARQ *_Vptr = _Ptr;

  0000c	8b 4d 08	 mov	 ecx, DWORD PTR __Ptr$[ebp]
  0000f	89 4d 08	 mov	 DWORD PTR __Vptr$[ebp], ecx

; 48   : 	::new (_Vptr) _Ty1(_STD forward<_Ty2>(_Val));

  00012	89 4d f0	 mov	 DWORD PTR $T555204[ebp], ecx
  00015	83 65 fc 00	 and	 DWORD PTR __$EHRec$[ebp+8], 0
  00019	85 c9		 test	 ecx, ecx
  0001b	74 08		 je	 SHORT $LN3@Construct@3
  0001d	ff 75 0c	 push	 DWORD PTR __Val$[ebp]
  00020	e8 00 00 00 00	 call	 ??0WeaponInfo@@QAE@ABU0@@Z
$LN3@Construct@3:

; 49   : 	}

  00025	e8 00 00 00 00	 call	 __EH_epilog3
  0002a	c3		 ret	 0
_TEXT	ENDS
;	COMDAT text$x
text$x	SEGMENT
__unwindfunclet$??$_Construct@UWeaponInfo@@ABU1@@std@@YAXPAUWeaponInfo@@ABU1@@Z$0:
  00000	ff 75 08	 push	 DWORD PTR __Vptr$[ebp]
  00003	ff 75 f0	 push	 DWORD PTR $T555204[ebp]
  00006	e8 00 00 00 00	 call	 ??3@YAXPAX0@Z		; operator delete
  0000b	59		 pop	 ecx
  0000c	59		 pop	 ecx
  0000d	c3		 ret	 0
__ehhandler$??$_Construct@UWeaponInfo@@ABU1@@std@@YAXPAUWeaponInfo@@ABU1@@Z:
  0000e	8b 54 24 08	 mov	 edx, DWORD PTR [esp+8]
  00012	8d 42 0c	 lea	 eax, DWORD PTR [edx+12]
  00015	8b 4a ec	 mov	 ecx, DWORD PTR [edx-20]
  00018	33 c8		 xor	 ecx, eax
  0001a	e8 00 00 00 00	 call	 @__security_check_cookie@4
  0001f	b8 00 00 00 00	 mov	 eax, OFFSET __ehfuncinfo$??$_Construct@UWeaponInfo@@ABU1@@std@@YAXPAUWeaponInfo@@ABU1@@Z
  00024	e9 00 00 00 00	 jmp	 ___CxxFrameHandler3
text$x	ENDS
??$_Construct@UWeaponInfo@@ABU1@@std@@YAXPAUWeaponInfo@@ABU1@@Z ENDP ; std::_Construct<WeaponInfo,WeaponInfo const &>
PUBLIC	??0?$CEncrypt@M@@QAE@XZ				; CEncrypt<float>::CEncrypt<float>
EXTRN	??0ccddaabb@@QAE@XZ:PROC			; ccddaabb::ccddaabb
;	COMDAT xdata$x
; File d:\lost saga for developer\youtube\tutorial\source\src\lsclient\encryptvalue.h
xdata$x	SEGMENT
__unwindtable$??0?$CEncrypt@M@@QAE@XZ DD 0ffffffffH
	DD	FLAT:__unwindfunclet$??0?$CEncrypt@M@@QAE@XZ$0
__ehfuncinfo$??0?$CEncrypt@M@@QAE@XZ DD 019930522H
	DD	01H
	DD	FLAT:__unwindtable$??0?$CEncrypt@M@@QAE@XZ
	DD	2 DUP(00H)
	DD	2 DUP(00H)
	DD	00H
	DD	01H
; Function compile flags: /Ogsp
xdata$x	ENDS
;	COMDAT ??0?$CEncrypt@M@@QAE@XZ
_TEXT	SEGMENT
_this$ = -16						; size = 4
__$EHRec$ = -12						; size = 12
??0?$CEncrypt@M@@QAE@XZ PROC				; CEncrypt<float>::CEncrypt<float>, COMDAT
; _this$ = ecx

; 109  : 	CEncrypt()

  00000	6a 04		 push	 4
  00002	b8 00 00 00 00	 mov	 eax, __ehhandler$??0?$CEncrypt@M@@QAE@XZ
  00007	e8 00 00 00 00	 call	 __EH_prolog3
  0000c	8b f1		 mov	 esi, ecx
  0000e	89 75 f0	 mov	 DWORD PTR _this$[ebp], esi
  00011	8d 4e 0c	 lea	 ecx, DWORD PTR [esi+12]
  00014	c7 06 00 00 00
	00		 mov	 DWORD PTR [esi], OFFSET ??_7?$CEncrypt@M@@6B@
  0001a	e8 00 00 00 00	 call	 ??0ccddaabb@@QAE@XZ	; ccddaabb::ccddaabb
  0001f	83 65 fc 00	 and	 DWORD PTR __$EHRec$[ebp+8], 0

; 110  : 	{
; 111  : 		Init();

  00023	8b ce		 mov	 ecx, esi
  00025	e8 00 00 00 00	 call	 ?Init@?$CEncrypt@M@@AAEXXZ ; CEncrypt<float>::Init

; 112  : 	}

  0002a	8b c6		 mov	 eax, esi
  0002c	e8 00 00 00 00	 call	 __EH_epilog3
  00031	c3		 ret	 0
_TEXT	ENDS
;	COMDAT text$x
text$x	SEGMENT
__unwindfunclet$??0?$CEncrypt@M@@QAE@XZ$0:
  00000	8b 4d f0	 mov	 ecx, DWORD PTR _this$[ebp]
  00003	83 c1 0c	 add	 ecx, 12			; 0000000cH
  00006	e9 00 00 00 00	 jmp	 ??1ccddaabb@@UAE@XZ	; ccddaabb::~ccddaabb
__ehhandler$??0?$CEncrypt@M@@QAE@XZ:
  0000b	8b 54 24 08	 mov	 edx, DWORD PTR [esp+8]
  0000f	8d 42 0c	 lea	 eax, DWORD PTR [edx+12]
  00012	8b 4a ec	 mov	 ecx, DWORD PTR [edx-20]
  00015	33 c8		 xor	 ecx, eax
  00017	e8 00 00 00 00	 call	 @__security_check_cookie@4
  0001c	b8 00 00 00 00	 mov	 eax, OFFSET __ehfuncinfo$??0?$CEncrypt@M@@QAE@XZ
  00021	e9 00 00 00 00	 jmp	 ___CxxFrameHandler3
text$x	ENDS
??0?$CEncrypt@M@@QAE@XZ ENDP				; CEncrypt<float>::CEncrypt<float>
PUBLIC	??B?$CEncrypt@M@@QAEMXZ				; CEncrypt<float>::operator float
; Function compile flags: /Ogsp
;	COMDAT ??B?$CEncrypt@M@@QAEMXZ
_TEXT	SEGMENT
_value$ = -4						; size = 4
??B?$CEncrypt@M@@QAEMXZ PROC				; CEncrypt<float>::operator float, COMDAT
; _this$ = ecx

; 134  : 	{

  00000	55		 push	 ebp
  00001	8b ec		 mov	 ebp, esp
  00003	51		 push	 ecx

; 135  : 		type value;
; 136  : 		DecryptValueToPool(&value);

  00004	8d 45 fc	 lea	 eax, DWORD PTR _value$[ebp]
  00007	50		 push	 eax
  00008	e8 00 00 00 00	 call	 ?DecryptValueToPool@?$CEncrypt@M@@QAEXPAM@Z ; CEncrypt<float>::DecryptValueToPool

; 137  : 
; 138  : #ifdef _NOTUSE
; 139  : 		Debug();
; 140  : #endif
; 141  : 		return value;

  0000d	d9 45 fc	 fld	 DWORD PTR _value$[ebp]

; 142  : 	}

  00010	c9		 leave
  00011	c3		 ret	 0
??B?$CEncrypt@M@@QAEMXZ ENDP				; CEncrypt<float>::operator float
_TEXT	ENDS
PUBLIC	??B?$CEncrypt@M@@QBEMXZ				; CEncrypt<float>::operator float
; Function compile flags: /Ogsp
;	COMDAT ??B?$CEncrypt@M@@QBEMXZ
_TEXT	SEGMENT
_value$ = -4						; size = 4
??B?$CEncrypt@M@@QBEMXZ PROC				; CEncrypt<float>::operator float, COMDAT
; _this$ = ecx

; 145  : 	{

  00000	55		 push	 ebp
  00001	8b ec		 mov	 ebp, esp
  00003	51		 push	 ecx

; 146  : 		//UJ 130829, const    --start
; 147  : 		type value;
; 148  : 		CEncrypt<type>* pThis = const_cast<CEncrypt<type>*>(this);
; 149  : 		pThis->DecryptValueToPool(&value);

  00004	8d 45 fc	 lea	 eax, DWORD PTR _value$[ebp]
  00007	50		 push	 eax
  00008	e8 00 00 00 00	 call	 ?DecryptValueToPool@?$CEncrypt@M@@QAEXPAM@Z ; CEncrypt<float>::DecryptValueToPool

; 150  : 		//// const DecryptValueToPool     .
; 151  :  		//type value;
; 152  : 		//char szTempMem[MAX_ENCRYPT];
; 153  : 		//m_RC5.DecryptByte( m_MemPool, szTempMem, max(m_ValueSize, DEFAULT_ENCRYPT) );
; 154  : 		//memcpy( &value, szTempMem, m_ValueSize );
; 155  : 		//UJ --end
; 156  : 
; 157  : #ifdef _NOTUSE
; 158  : 		Debug();
; 159  : #endif
; 160  : 		return value;

  0000d	d9 45 fc	 fld	 DWORD PTR _value$[ebp]

; 161  : 	}

  00010	c9		 leave
  00011	c3		 ret	 0
??B?$CEncrypt@M@@QBEMXZ ENDP				; CEncrypt<float>::operator float
_TEXT	ENDS
PUBLIC	??4?$CEncrypt@M@@QAEMM@Z			; CEncrypt<float>::operator=
; Function compile flags: /Ogsp
;	COMDAT ??4?$CEncrypt@M@@QAEMM@Z
_TEXT	SEGMENT
_value$ = 8						; size = 4
_inValue$ = 8						; size = 4
??4?$CEncrypt@M@@QAEMM@Z PROC				; CEncrypt<float>::operator=, COMDAT
; _this$ = ecx

; 1654 : 	{	

  00000	55		 push	 ebp
  00001	8b ec		 mov	 ebp, esp

; 1655 : 		type value = inValue;

  00003	d9 45 08	 fld	 DWORD PTR _inValue$[ebp]

; 1656 : 		EncryptValueToPool((char*)&value);

  00006	8d 45 08	 lea	 eax, DWORD PTR _value$[ebp]
  00009	50		 push	 eax
  0000a	d9 5d 08	 fstp	 DWORD PTR _value$[ebp]
  0000d	e8 00 00 00 00	 call	 ?EncryptValueToPool@?$CEncrypt@M@@AAEXPBD@Z ; CEncrypt<float>::EncryptValueToPool

; 1657 : #ifdef _NOTUSE
; 1658 : 		m_value = inValue;
; 1659 : 		Debug();
; 1660 : #endif
; 1661 : 		return value;

  00012	d9 45 08	 fld	 DWORD PTR _value$[ebp]

; 1662 : 	}

  00015	5d		 pop	 ebp
  00016	c2 04 00	 ret	 4
??4?$CEncrypt@M@@QAEMM@Z ENDP				; CEncrypt<float>::operator=
_TEXT	ENDS
PUBLIC	??Y?$CEncrypt@M@@QAEAAMABM@Z			; CEncrypt<float>::operator+=
; Function compile flags: /Ogsp
;	COMDAT ??Y?$CEncrypt@M@@QAEAAMABM@Z
_TEXT	SEGMENT
_value$ = -4						; size = 4
_inValue$ = 8						; size = 4
??Y?$CEncrypt@M@@QAEAAMABM@Z PROC			; CEncrypt<float>::operator+=, COMDAT
; _this$ = ecx

; 1715 : 	{

  00000	55		 push	 ebp
  00001	8b ec		 mov	 ebp, esp
  00003	51		 push	 ecx
  00004	56		 push	 esi

; 1716 : 		type value;
; 1717 : 		DecryptValueToPool(&value);

  00005	8d 45 fc	 lea	 eax, DWORD PTR _value$[ebp]
  00008	50		 push	 eax
  00009	8b f1		 mov	 esi, ecx
  0000b	e8 00 00 00 00	 call	 ?DecryptValueToPool@?$CEncrypt@M@@QAEXPAM@Z ; CEncrypt<float>::DecryptValueToPool

; 1718 : 		value += inValue;

  00010	8b 45 08	 mov	 eax, DWORD PTR _inValue$[ebp]
  00013	f3 0f 10 00	 movss	 xmm0, DWORD PTR [eax]
  00017	f3 0f 10 4d fc	 movss	 xmm1, DWORD PTR _value$[ebp]
  0001c	0f 5a c0	 cvtps2pd xmm0, xmm0
  0001f	0f 5a c9	 cvtps2pd xmm1, xmm1

; 1719 : 		EncryptValueToPool((char*)&value);

  00022	8d 45 fc	 lea	 eax, DWORD PTR _value$[ebp]
  00025	f2 0f 58 c1	 addsd	 xmm0, xmm1
  00029	66 0f 5a c0	 cvtpd2ps xmm0, xmm0
  0002d	50		 push	 eax
  0002e	8b ce		 mov	 ecx, esi
  00030	f3 0f 11 45 fc	 movss	 DWORD PTR _value$[ebp], xmm0
  00035	e8 00 00 00 00	 call	 ?EncryptValueToPool@?$CEncrypt@M@@AAEXPBD@Z ; CEncrypt<float>::EncryptValueToPool

; 1720 : #ifdef _NOTUSE
; 1721 : 		m_value += inValue;
; 1722 : 		Debug();
; 1723 : #endif
; 1724 : 		return value;

  0003a	8d 45 fc	 lea	 eax, DWORD PTR _value$[ebp]
  0003d	5e		 pop	 esi

; 1725 : 	} 

  0003e	c9		 leave
  0003f	c2 04 00	 ret	 4
??Y?$CEncrypt@M@@QAEAAMABM@Z ENDP			; CEncrypt<float>::operator+=
_TEXT	ENDS
PUBLIC	??B?$CEncrypt@K@@QAEKXZ				; CEncrypt<unsigned long>::operator unsigned long
; Function compile flags: /Ogsp
;	COMDAT ??B?$CEncrypt@K@@QAEKXZ
_TEXT	SEGMENT
_value$ = -4						; size = 4
??B?$CEncrypt@K@@QAEKXZ PROC				; CEncrypt<unsigned long>::operator unsigned long, COMDAT
; _this$ = ecx

; 134  : 	{

  00000	55		 push	 ebp
  00001	8b ec		 mov	 ebp, esp
  00003	51		 push	 ecx

; 135  : 		type value;
; 136  : 		DecryptValueToPool(&value);

  00004	8d 45 fc	 lea	 eax, DWORD PTR _value$[ebp]
  00007	50		 push	 eax
  00008	e8 00 00 00 00	 call	 ?DecryptValueToPool@?$CEncrypt@K@@QAEXPAK@Z ; CEncrypt<unsigned long>::DecryptValueToPool

; 137  : 
; 138  : #ifdef _NOTUSE
; 139  : 		Debug();
; 140  : #endif
; 141  : 		return value;

  0000d	8b 45 fc	 mov	 eax, DWORD PTR _value$[ebp]

; 142  : 	}

  00010	c9		 leave
  00011	c3		 ret	 0
??B?$CEncrypt@K@@QAEKXZ ENDP				; CEncrypt<unsigned long>::operator unsigned long
_TEXT	ENDS
PUBLIC	??B?$CEncrypt@_N@@QAE_NXZ			; CEncrypt<bool>::operator bool
; Function compile flags: /Ogsp
;	COMDAT ??B?$CEncrypt@_N@@QAE_NXZ
_TEXT	SEGMENT
_value$ = -1						; size = 1
??B?$CEncrypt@_N@@QAE_NXZ PROC				; CEncrypt<bool>::operator bool, COMDAT
; _this$ = ecx

; 134  : 	{

  00000	55		 push	 ebp
  00001	8b ec		 mov	 ebp, esp
  00003	51		 push	 ecx

; 135  : 		type value;
; 136  : 		DecryptValueToPool(&value);

  00004	8d 45 ff	 lea	 eax, DWORD PTR _value$[ebp]
  00007	50		 push	 eax
  00008	e8 00 00 00 00	 call	 ?DecryptValueToPool@?$CEncrypt@_N@@QAEXPA_N@Z ; CEncrypt<bool>::DecryptValueToPool

; 137  : 
; 138  : #ifdef _NOTUSE
; 139  : 		Debug();
; 140  : #endif
; 141  : 		return value;

  0000d	8a 45 ff	 mov	 al, BYTE PTR _value$[ebp]

; 142  : 	}

  00010	c9		 leave
  00011	c3		 ret	 0
??B?$CEncrypt@_N@@QAE_NXZ ENDP				; CEncrypt<bool>::operator bool
_TEXT	ENDS
PUBLIC	?begin@?$vector@VioHashString@@V?$allocator@VioHashString@@@std@@@std@@QAE?AV?$_Vector_iterator@V?$_Vector_val@VioHashString@@V?$allocator@VioHashString@@@std@@@std@@@2@XZ ; std::vector<ioHashString,std::allocator<ioHashString> >::begin
; Function compile flags: /Ogsp
; File c:\program files (x86)\microsoft visual studio 10.0\vc\include\vector
;	COMDAT ?begin@?$vector@VioHashString@@V?$allocator@VioHashString@@@std@@@std@@QAE?AV?$_Vector_iterator@V?$_Vector_val@VioHashString@@V?$allocator@VioHashString@@@std@@@std@@@2@XZ
_TEXT	SEGMENT
___$ReturnUdt$ = 8					; size = 4
?begin@?$vector@VioHashString@@V?$allocator@VioHashString@@@std@@@std@@QAE?AV?$_Vector_iterator@V?$_Vector_val@VioHashString@@V?$allocator@VioHashString@@@std@@@std@@@2@XZ PROC ; std::vector<ioHashString,std::allocator<ioHashString> >::begin, COMDAT
; _this$ = ecx

; 781  : 		{	// return iterator for beginning of mutable sequence

  00000	55		 push	 ebp
  00001	8b ec		 mov	 ebp, esp

; 782  : 		return (iterator(this->_Myfirst, this));

  00003	8b 09		 mov	 ecx, DWORD PTR [ecx]
  00005	8b 45 08	 mov	 eax, DWORD PTR ___$ReturnUdt$[ebp]
  00008	89 08		 mov	 DWORD PTR [eax], ecx

; 783  : 		}

  0000a	5d		 pop	 ebp
  0000b	c2 04 00	 ret	 4
?begin@?$vector@VioHashString@@V?$allocator@VioHashString@@@std@@@std@@QAE?AV?$_Vector_iterator@V?$_Vector_val@VioHashString@@V?$allocator@VioHashString@@@std@@@std@@@2@XZ ENDP ; std::vector<ioHashString,std::allocator<ioHashString> >::begin
_TEXT	ENDS
PUBLIC	?begin@?$vector@VioHashString@@V?$allocator@VioHashString@@@std@@@std@@QBE?AV?$_Vector_const_iterator@V?$_Vector_val@VioHashString@@V?$allocator@VioHashString@@@std@@@std@@@2@XZ ; std::vector<ioHashString,std::allocator<ioHashString> >::begin
; Function compile flags: /Ogsp
;	COMDAT ?begin@?$vector@VioHashString@@V?$allocator@VioHashString@@@std@@@std@@QBE?AV?$_Vector_const_iterator@V?$_Vector_val@VioHashString@@V?$allocator@VioHashString@@@std@@@std@@@2@XZ
_TEXT	SEGMENT
___$ReturnUdt$ = 8					; size = 4
?begin@?$vector@VioHashString@@V?$allocator@VioHashString@@@std@@@std@@QBE?AV?$_Vector_const_iterator@V?$_Vector_val@VioHashString@@V?$allocator@VioHashString@@@std@@@std@@@2@XZ PROC ; std::vector<ioHashString,std::allocator<ioHashString> >::begin, COMDAT
; _this$ = ecx

; 786  : 		{	// return iterator for beginning of nonmutable sequence

  00000	55		 push	 ebp
  00001	8b ec		 mov	 ebp, esp

; 787  : 		return (const_iterator(this->_Myfirst, this));

  00003	8b 09		 mov	 ecx, DWORD PTR [ecx]
  00005	8b 45 08	 mov	 eax, DWORD PTR ___$ReturnUdt$[ebp]
  00008	89 08		 mov	 DWORD PTR [eax], ecx

; 788  : 		}

  0000a	5d		 pop	 ebp
  0000b	c2 04 00	 ret	 4
?begin@?$vector@VioHashString@@V?$allocator@VioHashString@@@std@@@std@@QBE?AV?$_Vector_const_iterator@V?$_Vector_val@VioHashString@@V?$allocator@VioHashString@@@std@@@std@@@2@XZ ENDP ; std::vector<ioHashString,std::allocator<ioHashString> >::begin
_TEXT	ENDS
PUBLIC	?end@?$vector@VioHashString@@V?$allocator@VioHashString@@@std@@@std@@QAE?AV?$_Vector_iterator@V?$_Vector_val@VioHashString@@V?$allocator@VioHashString@@@std@@@std@@@2@XZ ; std::vector<ioHashString,std::allocator<ioHashString> >::end
; Function compile flags: /Ogsp
;	COMDAT ?end@?$vector@VioHashString@@V?$allocator@VioHashString@@@std@@@std@@QAE?AV?$_Vector_iterator@V?$_Vector_val@VioHashString@@V?$allocator@VioHashString@@@std@@@std@@@2@XZ
_TEXT	SEGMENT
___$ReturnUdt$ = 8					; size = 4
?end@?$vector@VioHashString@@V?$allocator@VioHashString@@@std@@@std@@QAE?AV?$_Vector_iterator@V?$_Vector_val@VioHashString@@V?$allocator@VioHashString@@@std@@@std@@@2@XZ PROC ; std::vector<ioHashString,std::allocator<ioHashString> >::end, COMDAT
; _this$ = ecx

; 791  : 		{	// return iterator for end of mutable sequence

  00000	55		 push	 ebp
  00001	8b ec		 mov	 ebp, esp

; 792  : 		return (iterator(this->_Mylast, this));

  00003	8b 49 04	 mov	 ecx, DWORD PTR [ecx+4]
  00006	8b 45 08	 mov	 eax, DWORD PTR ___$ReturnUdt$[ebp]
  00009	89 08		 mov	 DWORD PTR [eax], ecx

; 793  : 		}

  0000b	5d		 pop	 ebp
  0000c	c2 04 00	 ret	 4
?end@?$vector@VioHashString@@V?$allocator@VioHashString@@@std@@@std@@QAE?AV?$_Vector_iterator@V?$_Vector_val@VioHashString@@V?$allocator@VioHashString@@@std@@@std@@@2@XZ ENDP ; std::vector<ioHashString,std::allocator<ioHashString> >::end
_TEXT	ENDS
PUBLIC	?end@?$vector@VioHashString@@V?$allocator@VioHashString@@@std@@@std@@QBE?AV?$_Vector_const_iterator@V?$_Vector_val@VioHashString@@V?$allocator@VioHashString@@@std@@@std@@@2@XZ ; std::vector<ioHashString,std::allocator<ioHashString> >::end
; Function compile flags: /Ogsp
;	COMDAT ?end@?$vector@VioHashString@@V?$allocator@VioHashString@@@std@@@std@@QBE?AV?$_Vector_const_iterator@V?$_Vector_val@VioHashString@@V?$allocator@VioHashString@@@std@@@std@@@2@XZ
_TEXT	SEGMENT
___$ReturnUdt$ = 8					; size = 4
?end@?$vector@VioHashString@@V?$allocator@VioHashString@@@std@@@std@@QBE?AV?$_Vector_const_iterator@V?$_Vector_val@VioHashString@@V?$allocator@VioHashString@@@std@@@std@@@2@XZ PROC ; std::vector<ioHashString,std::allocator<ioHashString> >::end, COMDAT
; _this$ = ecx

; 796  : 		{	// return iterator for end of nonmutable sequence

  00000	55		 push	 ebp
  00001	8b ec		 mov	 ebp, esp

; 797  : 		return (const_iterator(this->_Mylast, this));

  00003	8b 49 04	 mov	 ecx, DWORD PTR [ecx+4]
  00006	8b 45 08	 mov	 eax, DWORD PTR ___$ReturnUdt$[ebp]
  00009	89 08		 mov	 DWORD PTR [eax], ecx

; 798  : 		}

  0000b	5d		 pop	 ebp
  0000c	c2 04 00	 ret	 4
?end@?$vector@VioHashString@@V?$allocator@VioHashString@@@std@@@std@@QBE?AV?$_Vector_const_iterator@V?$_Vector_val@VioHashString@@V?$allocator@VioHashString@@@std@@@std@@@2@XZ ENDP ; std::vector<ioHashString,std::allocator<ioHashString> >::end
_TEXT	ENDS
PUBLIC	??0?$_Vector_val@VioHashString@@V?$allocator@VioHashString@@@std@@@std@@QAE@V?$allocator@VioHashString@@@1@@Z ; std::_Vector_val<ioHashString,std::allocator<ioHashString> >::_Vector_val<ioHashString,std::allocator<ioHashString> >
; Function compile flags: /Ogsp
;	COMDAT ??0?$_Vector_val@VioHashString@@V?$allocator@VioHashString@@@std@@@std@@QAE@V?$allocator@VioHashString@@@1@@Z
_TEXT	SEGMENT
__Al$ = 8						; size = 1
??0?$_Vector_val@VioHashString@@V?$allocator@VioHashString@@@std@@@std@@QAE@V?$allocator@VioHashString@@@1@@Z PROC ; std::_Vector_val<ioHashString,std::allocator<ioHashString> >::_Vector_val<ioHashString,std::allocator<ioHashString> >, COMDAT
; _this$ = ecx

; 426  : 		{	// construct allocator from _Al

  00000	8b c1		 mov	 eax, ecx

; 427  : 		_Myfirst = 0;

  00002	33 c9		 xor	 ecx, ecx
  00004	89 08		 mov	 DWORD PTR [eax], ecx

; 428  : 		_Mylast = 0;

  00006	89 48 04	 mov	 DWORD PTR [eax+4], ecx

; 429  : 		_Myend = 0;

  00009	89 48 08	 mov	 DWORD PTR [eax+8], ecx

; 430  : 		}

  0000c	c2 04 00	 ret	 4
??0?$_Vector_val@VioHashString@@V?$allocator@VioHashString@@@std@@@std@@QAE@V?$allocator@VioHashString@@@1@@Z ENDP ; std::_Vector_val<ioHashString,std::allocator<ioHashString> >::_Vector_val<ioHashString,std::allocator<ioHashString> >
_TEXT	ENDS
PUBLIC	??0?$_Vector_val@UWeaponInfo@@V?$allocator@UWeaponInfo@@@std@@@std@@QAE@V?$allocator@UWeaponInfo@@@1@@Z ; std::_Vector_val<WeaponInfo,std::allocator<WeaponInfo> >::_Vector_val<WeaponInfo,std::allocator<WeaponInfo> >
; Function compile flags: /Ogsp
;	COMDAT ??0?$_Vector_val@UWeaponInfo@@V?$allocator@UWeaponInfo@@@std@@@std@@QAE@V?$allocator@UWeaponInfo@@@1@@Z
_TEXT	SEGMENT
__Al$ = 8						; size = 1
??0?$_Vector_val@UWeaponInfo@@V?$allocator@UWeaponInfo@@@std@@@std@@QAE@V?$allocator@UWeaponInfo@@@1@@Z PROC ; std::_Vector_val<WeaponInfo,std::allocator<WeaponInfo> >::_Vector_val<WeaponInfo,std::allocator<WeaponInfo> >, COMDAT
; _this$ = ecx

; 426  : 		{	// construct allocator from _Al

  00000	8b c1		 mov	 eax, ecx

; 427  : 		_Myfirst = 0;

  00002	33 c9		 xor	 ecx, ecx
  00004	89 08		 mov	 DWORD PTR [eax], ecx

; 428  : 		_Mylast = 0;

  00006	89 48 04	 mov	 DWORD PTR [eax+4], ecx

; 429  : 		_Myend = 0;

  00009	89 48 08	 mov	 DWORD PTR [eax+8], ecx

; 430  : 		}

  0000c	c2 04 00	 ret	 4
??0?$_Vector_val@UWeaponInfo@@V?$allocator@UWeaponInfo@@@std@@@std@@QAE@V?$allocator@UWeaponInfo@@@1@@Z ENDP ; std::_Vector_val<WeaponInfo,std::allocator<WeaponInfo> >::_Vector_val<WeaponInfo,std::allocator<WeaponInfo> >
_TEXT	ENDS
PUBLIC	??0?$_Vector_val@UForceInfo@@V?$allocator@UForceInfo@@@std@@@std@@QAE@V?$allocator@UForceInfo@@@1@@Z ; std::_Vector_val<ForceInfo,std::allocator<ForceInfo> >::_Vector_val<ForceInfo,std::allocator<ForceInfo> >
; Function compile flags: /Ogsp
;	COMDAT ??0?$_Vector_val@UForceInfo@@V?$allocator@UForceInfo@@@std@@@std@@QAE@V?$allocator@UForceInfo@@@1@@Z
_TEXT	SEGMENT
__Al$ = 8						; size = 1
??0?$_Vector_val@UForceInfo@@V?$allocator@UForceInfo@@@std@@@std@@QAE@V?$allocator@UForceInfo@@@1@@Z PROC ; std::_Vector_val<ForceInfo,std::allocator<ForceInfo> >::_Vector_val<ForceInfo,std::allocator<ForceInfo> >, COMDAT
; _this$ = ecx

; 426  : 		{	// construct allocator from _Al

  00000	8b c1		 mov	 eax, ecx

; 427  : 		_Myfirst = 0;

  00002	33 c9		 xor	 ecx, ecx
  00004	89 08		 mov	 DWORD PTR [eax], ecx

; 428  : 		_Mylast = 0;

  00006	89 48 04	 mov	 DWORD PTR [eax+4], ecx

; 429  : 		_Myend = 0;

  00009	89 48 08	 mov	 DWORD PTR [eax+8], ecx

; 430  : 		}

  0000c	c2 04 00	 ret	 4
??0?$_Vector_val@UForceInfo@@V?$allocator@UForceInfo@@@std@@@std@@QAE@V?$allocator@UForceInfo@@@1@@Z ENDP ; std::_Vector_val<ForceInfo,std::allocator<ForceInfo> >::_Vector_val<ForceInfo,std::allocator<ForceInfo> >
_TEXT	ENDS
PUBLIC	?_Make_iter@?$vector@VioHashString@@V?$allocator@VioHashString@@@std@@@std@@QBE?AV?$_Vector_iterator@V?$_Vector_val@VioHashString@@V?$allocator@VioHashString@@@std@@@std@@@2@V?$_Vector_const_iterator@V?$_Vector_val@VioHashString@@V?$allocator@VioHashString@@@std@@@std@@@2@@Z ; std::vector<ioHashString,std::allocator<ioHashString> >::_Make_iter
; Function compile flags: /Ogsp
;	COMDAT ?_Make_iter@?$vector@VioHashString@@V?$allocator@VioHashString@@@std@@@std@@QBE?AV?$_Vector_iterator@V?$_Vector_val@VioHashString@@V?$allocator@VioHashString@@@std@@@std@@@2@V?$_Vector_const_iterator@V?$_Vector_val@VioHashString@@V?$allocator@VioHashString@@@std@@@std@@@2@@Z
_TEXT	SEGMENT
___$ReturnUdt$ = 8					; size = 4
__Where$ = 12						; size = 4
?_Make_iter@?$vector@VioHashString@@V?$allocator@VioHashString@@@std@@@std@@QBE?AV?$_Vector_iterator@V?$_Vector_val@VioHashString@@V?$allocator@VioHashString@@@std@@@std@@@2@V?$_Vector_const_iterator@V?$_Vector_val@VioHashString@@V?$allocator@VioHashString@@@std@@@std@@@2@@Z PROC ; std::vector<ioHashString,std::allocator<ioHashString> >::_Make_iter, COMDAT
; _this$ = ecx

; 801  : 		{	// make iterator from const_iterator

  00000	55		 push	 ebp
  00001	8b ec		 mov	 ebp, esp

; 802  : 		return (iterator(_Where._Ptr, this));

  00003	8b 45 08	 mov	 eax, DWORD PTR ___$ReturnUdt$[ebp]
  00006	8b 4d 0c	 mov	 ecx, DWORD PTR __Where$[ebp]
  00009	89 08		 mov	 DWORD PTR [eax], ecx

; 803  : 		}

  0000b	5d		 pop	 ebp
  0000c	c2 08 00	 ret	 8
?_Make_iter@?$vector@VioHashString@@V?$allocator@VioHashString@@@std@@@std@@QBE?AV?$_Vector_iterator@V?$_Vector_val@VioHashString@@V?$allocator@VioHashString@@@std@@@std@@@2@V?$_Vector_const_iterator@V?$_Vector_val@VioHashString@@V?$allocator@VioHashString@@@std@@@std@@@2@@Z ENDP ; std::vector<ioHashString,std::allocator<ioHashString> >::_Make_iter
_TEXT	ENDS
PUBLIC	?max_size@?$vector@VioHashString@@V?$allocator@VioHashString@@@std@@@std@@QBEIXZ ; std::vector<ioHashString,std::allocator<ioHashString> >::max_size
; Function compile flags: /Ogsp
;	COMDAT ?max_size@?$vector@VioHashString@@V?$allocator@VioHashString@@@std@@@std@@QBEIXZ
_TEXT	SEGMENT
?max_size@?$vector@VioHashString@@V?$allocator@VioHashString@@@std@@@std@@QBEIXZ PROC ; std::vector<ioHashString,std::allocator<ioHashString> >::max_size, COMDAT
; _this$ = ecx

; 884  : 		return (this->_Alval.max_size());

  00000	b8 ff ff ff 0f	 mov	 eax, 268435455		; 0fffffffH

; 885  : 		}

  00005	c3		 ret	 0
?max_size@?$vector@VioHashString@@V?$allocator@VioHashString@@@std@@@std@@QBEIXZ ENDP ; std::vector<ioHashString,std::allocator<ioHashString> >::max_size
_TEXT	ENDS
PUBLIC	?allocate@?$allocator@VioHashString@@@std@@QAEPAVioHashString@@I@Z ; std::allocator<ioHashString>::allocate
; Function compile flags: /Ogsp
; File c:\program files (x86)\microsoft visual studio 10.0\vc\include\xmemory
;	COMDAT ?allocate@?$allocator@VioHashString@@@std@@QAEPAVioHashString@@I@Z
_TEXT	SEGMENT
__Count$ = 8						; size = 4
?allocate@?$allocator@VioHashString@@@std@@QAEPAVioHashString@@I@Z PROC ; std::allocator<ioHashString>::allocate, COMDAT
; _this$ = ecx

; 186  : 		{	// allocate array of _Count elements

  00000	55		 push	 ebp
  00001	8b ec		 mov	 ebp, esp

; 187  : 		return (_Allocate(_Count, (pointer)0));

  00003	6a 00		 push	 0
  00005	ff 75 08	 push	 DWORD PTR __Count$[ebp]
  00008	e8 00 00 00 00	 call	 ??$_Allocate@VioHashString@@@std@@YAPAVioHashString@@IPAV1@@Z ; std::_Allocate<ioHashString>
  0000d	59		 pop	 ecx
  0000e	59		 pop	 ecx

; 188  : 		}

  0000f	5d		 pop	 ebp
  00010	c2 04 00	 ret	 4
?allocate@?$allocator@VioHashString@@@std@@QAEPAVioHashString@@I@Z ENDP ; std::allocator<ioHashString>::allocate
_TEXT	ENDS
PUBLIC	??8?$_Vector_const_iterator@V?$_Vector_val@VioHashString@@V?$allocator@VioHashString@@@std@@@std@@@std@@QBE_NABV01@@Z ; std::_Vector_const_iterator<std::_Vector_val<ioHashString,std::allocator<ioHashString> > >::operator==
; Function compile flags: /Ogsp
; File c:\program files (x86)\microsoft visual studio 10.0\vc\include\vector
;	COMDAT ??8?$_Vector_const_iterator@V?$_Vector_val@VioHashString@@V?$allocator@VioHashString@@@std@@@std@@@std@@QBE_NABV01@@Z
_TEXT	SEGMENT
__Right$ = 8						; size = 4
??8?$_Vector_const_iterator@V?$_Vector_val@VioHashString@@V?$allocator@VioHashString@@@std@@@std@@@std@@QBE_NABV01@@Z PROC ; std::_Vector_const_iterator<std::_Vector_val<ioHashString,std::allocator<ioHashString> > >::operator==, COMDAT
; _this$ = ecx

; 201  : 		{	// test for iterator equality

  00000	55		 push	 ebp
  00001	8b ec		 mov	 ebp, esp

; 202  : 		_Compat(_Right);
; 203  : 		return (this->_Ptr == _Right._Ptr);

  00003	8b 01		 mov	 eax, DWORD PTR [ecx]
  00005	8b 4d 08	 mov	 ecx, DWORD PTR __Right$[ebp]
  00008	2b 01		 sub	 eax, DWORD PTR [ecx]
  0000a	f7 d8		 neg	 eax
  0000c	1b c0		 sbb	 eax, eax
  0000e	40		 inc	 eax

; 204  : 		}

  0000f	5d		 pop	 ebp
  00010	c2 04 00	 ret	 4
??8?$_Vector_const_iterator@V?$_Vector_val@VioHashString@@V?$allocator@VioHashString@@@std@@@std@@@std@@QBE_NABV01@@Z ENDP ; std::_Vector_const_iterator<std::_Vector_val<ioHashString,std::allocator<ioHashString> > >::operator==
_TEXT	ENDS
PUBLIC	??$_Move@PAVioHashString@@PAV1@@std@@YAPAVioHashString@@PAV1@00U_Nonscalar_ptr_iterator_tag@0@@Z ; std::_Move<ioHashString *,ioHashString *>
EXTRN	__imp_??4ioHashString@@QAEAAV0@ABV0@@Z:PROC
; Function compile flags: /Ogsp
; File c:\program files (x86)\microsoft visual studio 10.0\vc\include\xutility
;	COMDAT ??$_Move@PAVioHashString@@PAV1@@std@@YAPAVioHashString@@PAV1@00U_Nonscalar_ptr_iterator_tag@0@@Z
_TEXT	SEGMENT
__First$ = 8						; size = 4
__Last$ = 12						; size = 4
__Dest$ = 16						; size = 4
___formal$ = 20						; size = 1
??$_Move@PAVioHashString@@PAV1@@std@@YAPAVioHashString@@PAV1@00U_Nonscalar_ptr_iterator_tag@0@@Z PROC ; std::_Move<ioHashString *,ioHashString *>, COMDAT

; 2512 : 	{	// move [_First, _Last) to [_Dest, ...), arbitrary iterators

  00000	55		 push	 ebp
  00001	8b ec		 mov	 ebp, esp
  00003	56		 push	 esi

; 2513 : 	for (; _First != _Last; ++_Dest, ++_First)

  00004	8b 75 08	 mov	 esi, DWORD PTR __First$[ebp]
  00007	eb 11		 jmp	 SHORT $LN11@Move
$LL3@Move:

; 2514 : 		*_Dest = _STD move(*_First);

  00009	8b 4d 10	 mov	 ecx, DWORD PTR __Dest$[ebp]
  0000c	56		 push	 esi
  0000d	ff 15 00 00 00
	00		 call	 DWORD PTR __imp_??4ioHashString@@QAEAAV0@ABV0@@Z
  00013	83 45 10 10	 add	 DWORD PTR __Dest$[ebp], 16 ; 00000010H
  00017	83 c6 10	 add	 esi, 16			; 00000010H
$LN11@Move:

; 2513 : 	for (; _First != _Last; ++_Dest, ++_First)

  0001a	3b 75 0c	 cmp	 esi, DWORD PTR __Last$[ebp]
  0001d	75 ea		 jne	 SHORT $LL3@Move

; 2515 : 	return (_Dest);

  0001f	8b 45 10	 mov	 eax, DWORD PTR __Dest$[ebp]
  00022	5e		 pop	 esi

; 2516 : 	}

  00023	5d		 pop	 ebp
  00024	c3		 ret	 0
??$_Move@PAVioHashString@@PAV1@@std@@YAPAVioHashString@@PAV1@00U_Nonscalar_ptr_iterator_tag@0@@Z ENDP ; std::_Move<ioHashString *,ioHashString *>
_TEXT	ENDS
PUBLIC	?max_size@?$vector@UWeaponInfo@@V?$allocator@UWeaponInfo@@@std@@@std@@QBEIXZ ; std::vector<WeaponInfo,std::allocator<WeaponInfo> >::max_size
; Function compile flags: /Ogsp
; File c:\program files (x86)\microsoft visual studio 10.0\vc\include\vector
;	COMDAT ?max_size@?$vector@UWeaponInfo@@V?$allocator@UWeaponInfo@@@std@@@std@@QBEIXZ
_TEXT	SEGMENT
?max_size@?$vector@UWeaponInfo@@V?$allocator@UWeaponInfo@@@std@@@std@@QBEIXZ PROC ; std::vector<WeaponInfo,std::allocator<WeaponInfo> >::max_size, COMDAT
; _this$ = ecx

; 884  : 		return (this->_Alval.max_size());

  00000	b8 66 66 66 06	 mov	 eax, 107374182		; 06666666H

; 885  : 		}

  00005	c3		 ret	 0
?max_size@?$vector@UWeaponInfo@@V?$allocator@UWeaponInfo@@@std@@@std@@QBEIXZ ENDP ; std::vector<WeaponInfo,std::allocator<WeaponInfo> >::max_size
_TEXT	ENDS
PUBLIC	?allocate@?$allocator@UWeaponInfo@@@std@@QAEPAUWeaponInfo@@I@Z ; std::allocator<WeaponInfo>::allocate
; Function compile flags: /Ogsp
; File c:\program files (x86)\microsoft visual studio 10.0\vc\include\xmemory
;	COMDAT ?allocate@?$allocator@UWeaponInfo@@@std@@QAEPAUWeaponInfo@@I@Z
_TEXT	SEGMENT
__Count$ = 8						; size = 4
?allocate@?$allocator@UWeaponInfo@@@std@@QAEPAUWeaponInfo@@I@Z PROC ; std::allocator<WeaponInfo>::allocate, COMDAT
; _this$ = ecx

; 186  : 		{	// allocate array of _Count elements

  00000	55		 push	 ebp
  00001	8b ec		 mov	 ebp, esp

; 187  : 		return (_Allocate(_Count, (pointer)0));

  00003	6a 00		 push	 0
  00005	ff 75 08	 push	 DWORD PTR __Count$[ebp]
  00008	e8 00 00 00 00	 call	 ??$_Allocate@UWeaponInfo@@@std@@YAPAUWeaponInfo@@IPAU1@@Z ; std::_Allocate<WeaponInfo>
  0000d	59		 pop	 ecx
  0000e	59		 pop	 ecx

; 188  : 		}

  0000f	5d		 pop	 ebp
  00010	c2 04 00	 ret	 4
?allocate@?$allocator@UWeaponInfo@@@std@@QAEPAUWeaponInfo@@I@Z ENDP ; std::allocator<WeaponInfo>::allocate
_TEXT	ENDS
PUBLIC	?max_size@?$vector@UForceInfo@@V?$allocator@UForceInfo@@@std@@@std@@QBEIXZ ; std::vector<ForceInfo,std::allocator<ForceInfo> >::max_size
; Function compile flags: /Ogsp
; File c:\program files (x86)\microsoft visual studio 10.0\vc\include\vector
;	COMDAT ?max_size@?$vector@UForceInfo@@V?$allocator@UForceInfo@@@std@@@std@@QBEIXZ
_TEXT	SEGMENT
?max_size@?$vector@UForceInfo@@V?$allocator@UForceInfo@@@std@@@std@@QBEIXZ PROC ; std::vector<ForceInfo,std::allocator<ForceInfo> >::max_size, COMDAT
; _this$ = ecx

; 884  : 		return (this->_Alval.max_size());

  00000	b8 55 55 55 15	 mov	 eax, 357913941		; 15555555H

; 885  : 		}

  00005	c3		 ret	 0
?max_size@?$vector@UForceInfo@@V?$allocator@UForceInfo@@@std@@@std@@QBEIXZ ENDP ; std::vector<ForceInfo,std::allocator<ForceInfo> >::max_size
_TEXT	ENDS
PUBLIC	?allocate@?$allocator@UForceInfo@@@std@@QAEPAUForceInfo@@I@Z ; std::allocator<ForceInfo>::allocate
; Function compile flags: /Ogsp
; File c:\program files (x86)\microsoft visual studio 10.0\vc\include\xmemory
;	COMDAT ?allocate@?$allocator@UForceInfo@@@std@@QAEPAUForceInfo@@I@Z
_TEXT	SEGMENT
__Count$ = 8						; size = 4
?allocate@?$allocator@UForceInfo@@@std@@QAEPAUForceInfo@@I@Z PROC ; std::allocator<ForceInfo>::allocate, COMDAT
; _this$ = ecx

; 186  : 		{	// allocate array of _Count elements

  00000	55		 push	 ebp
  00001	8b ec		 mov	 ebp, esp

; 187  : 		return (_Allocate(_Count, (pointer)0));

  00003	6a 00		 push	 0
  00005	ff 75 08	 push	 DWORD PTR __Count$[ebp]
  00008	e8 00 00 00 00	 call	 ??$_Allocate@UForceInfo@@@std@@YAPAUForceInfo@@IPAU1@@Z ; std::_Allocate<ForceInfo>
  0000d	59		 pop	 ecx
  0000e	59		 pop	 ecx

; 188  : 		}

  0000f	5d		 pop	 ebp
  00010	c2 04 00	 ret	 4
?allocate@?$allocator@UForceInfo@@@std@@QAEPAUForceInfo@@I@Z ENDP ; std::allocator<ForceInfo>::allocate
_TEXT	ENDS
PUBLIC	??8?$_Vector_const_iterator@V?$_Vector_val@UWeaponInfo@@V?$allocator@UWeaponInfo@@@std@@@std@@@std@@QBE_NABV01@@Z ; std::_Vector_const_iterator<std::_Vector_val<WeaponInfo,std::allocator<WeaponInfo> > >::operator==
; Function compile flags: /Ogsp
; File c:\program files (x86)\microsoft visual studio 10.0\vc\include\vector
;	COMDAT ??8?$_Vector_const_iterator@V?$_Vector_val@UWeaponInfo@@V?$allocator@UWeaponInfo@@@std@@@std@@@std@@QBE_NABV01@@Z
_TEXT	SEGMENT
__Right$ = 8						; size = 4
??8?$_Vector_const_iterator@V?$_Vector_val@UWeaponInfo@@V?$allocator@UWeaponInfo@@@std@@@std@@@std@@QBE_NABV01@@Z PROC ; std::_Vector_const_iterator<std::_Vector_val<WeaponInfo,std::allocator<WeaponInfo> > >::operator==, COMDAT
; _this$ = ecx

; 201  : 		{	// test for iterator equality

  00000	55		 push	 ebp
  00001	8b ec		 mov	 ebp, esp

; 202  : 		_Compat(_Right);
; 203  : 		return (this->_Ptr == _Right._Ptr);

  00003	8b 01		 mov	 eax, DWORD PTR [ecx]
  00005	8b 4d 08	 mov	 ecx, DWORD PTR __Right$[ebp]
  00008	2b 01		 sub	 eax, DWORD PTR [ecx]
  0000a	f7 d8		 neg	 eax
  0000c	1b c0		 sbb	 eax, eax
  0000e	40		 inc	 eax

; 204  : 		}

  0000f	5d		 pop	 ebp
  00010	c2 04 00	 ret	 4
??8?$_Vector_const_iterator@V?$_Vector_val@UWeaponInfo@@V?$allocator@UWeaponInfo@@@std@@@std@@@std@@QBE_NABV01@@Z ENDP ; std::_Vector_const_iterator<std::_Vector_val<WeaponInfo,std::allocator<WeaponInfo> > >::operator==
_TEXT	ENDS
PUBLIC	??8?$_Vector_const_iterator@V?$_Vector_val@UForceInfo@@V?$allocator@UForceInfo@@@std@@@std@@@std@@QBE_NABV01@@Z ; std::_Vector_const_iterator<std::_Vector_val<ForceInfo,std::allocator<ForceInfo> > >::operator==
; Function compile flags: /Ogsp
;	COMDAT ??8?$_Vector_const_iterator@V?$_Vector_val@UForceInfo@@V?$allocator@UForceInfo@@@std@@@std@@@std@@QBE_NABV01@@Z
_TEXT	SEGMENT
__Right$ = 8						; size = 4
??8?$_Vector_const_iterator@V?$_Vector_val@UForceInfo@@V?$allocator@UForceInfo@@@std@@@std@@@std@@QBE_NABV01@@Z PROC ; std::_Vector_const_iterator<std::_Vector_val<ForceInfo,std::allocator<ForceInfo> > >::operator==, COMDAT
; _this$ = ecx

; 201  : 		{	// test for iterator equality

  00000	55		 push	 ebp
  00001	8b ec		 mov	 ebp, esp

; 202  : 		_Compat(_Right);
; 203  : 		return (this->_Ptr == _Right._Ptr);

  00003	8b 01		 mov	 eax, DWORD PTR [ecx]
  00005	8b 4d 08	 mov	 ecx, DWORD PTR __Right$[ebp]
  00008	2b 01		 sub	 eax, DWORD PTR [ecx]
  0000a	f7 d8		 neg	 eax
  0000c	1b c0		 sbb	 eax, eax
  0000e	40		 inc	 eax

; 204  : 		}

  0000f	5d		 pop	 ebp
  00010	c2 04 00	 ret	 4
??8?$_Vector_const_iterator@V?$_Vector_val@UForceInfo@@V?$allocator@UForceInfo@@@std@@@std@@@std@@QBE_NABV01@@Z ENDP ; std::_Vector_const_iterator<std::_Vector_val<ForceInfo,std::allocator<ForceInfo> > >::operator==
_TEXT	ENDS
PUBLIC	?destroy@?$allocator@UForceInfo@@@std@@QAEXPAUForceInfo@@@Z ; std::allocator<ForceInfo>::destroy
; Function compile flags: /Ogsp
; File c:\program files (x86)\microsoft visual studio 10.0\vc\include\xmemory
;	COMDAT ?destroy@?$allocator@UForceInfo@@@std@@QAEXPAUForceInfo@@@Z
_TEXT	SEGMENT
__Ptr$ = 8						; size = 4
?destroy@?$allocator@UForceInfo@@@std@@QAEXPAUForceInfo@@@Z PROC ; std::allocator<ForceInfo>::destroy, COMDAT
; _this$ = ecx

; 213  : 		_Destroy(_Ptr);
; 214  : 		}

  00000	c2 04 00	 ret	 4
?destroy@?$allocator@UForceInfo@@@std@@QAEXPAUForceInfo@@@Z ENDP ; std::allocator<ForceInfo>::destroy
_TEXT	ENDS
PUBLIC	??$_Destroy@VioHashString@@@std@@YAXPAVioHashString@@@Z ; std::_Destroy<ioHashString>
; Function compile flags: /Ogsp
;	COMDAT ??$_Destroy@VioHashString@@@std@@YAXPAVioHashString@@@Z
_TEXT	SEGMENT
__Ptr$ = 8						; size = 4
??$_Destroy@VioHashString@@@std@@YAXPAVioHashString@@@Z PROC ; std::_Destroy<ioHashString>, COMDAT

; 62   : 	{	// destroy object at _Ptr

  00000	55		 push	 ebp
  00001	8b ec		 mov	 ebp, esp

; 63   : 	_Ptr->~_Ty();

  00003	8b 4d 08	 mov	 ecx, DWORD PTR __Ptr$[ebp]

; 64   : 	}

  00006	5d		 pop	 ebp

; 63   : 	_Ptr->~_Ty();

  00007	ff 25 00 00 00
	00		 jmp	 DWORD PTR __imp_??1ioHashString@@QAE@XZ
??$_Destroy@VioHashString@@@std@@YAXPAVioHashString@@@Z ENDP ; std::_Destroy<ioHashString>
_TEXT	ENDS
PUBLIC	??$_Destroy@UWeaponInfo@@@std@@YAXPAUWeaponInfo@@@Z ; std::_Destroy<WeaponInfo>
; Function compile flags: /Ogsp
;	COMDAT ??$_Destroy@UWeaponInfo@@@std@@YAXPAUWeaponInfo@@@Z
_TEXT	SEGMENT
__Ptr$ = 8						; size = 4
??$_Destroy@UWeaponInfo@@@std@@YAXPAUWeaponInfo@@@Z PROC ; std::_Destroy<WeaponInfo>, COMDAT

; 62   : 	{	// destroy object at _Ptr

  00000	55		 push	 ebp
  00001	8b ec		 mov	 ebp, esp

; 63   : 	_Ptr->~_Ty();

  00003	8b 4d 08	 mov	 ecx, DWORD PTR __Ptr$[ebp]
  00006	83 c1 08	 add	 ecx, 8

; 64   : 	}

  00009	5d		 pop	 ebp

; 63   : 	_Ptr->~_Ty();

  0000a	ff 25 00 00 00
	00		 jmp	 DWORD PTR __imp_??1ioHashString@@QAE@XZ
??$_Destroy@UWeaponInfo@@@std@@YAXPAUWeaponInfo@@@Z ENDP ; std::_Destroy<WeaponInfo>
_TEXT	ENDS
PUBLIC	?construct@?$allocator@VioHashString@@@std@@QAEXPAVioHashString@@ABV3@@Z ; std::allocator<ioHashString>::construct
; Function compile flags: /Ogsp
;	COMDAT ?construct@?$allocator@VioHashString@@@std@@QAEXPAVioHashString@@ABV3@@Z
_TEXT	SEGMENT
__Ptr$ = 8						; size = 4
__Val$ = 12						; size = 4
?construct@?$allocator@VioHashString@@@std@@QAEXPAVioHashString@@ABV3@@Z PROC ; std::allocator<ioHashString>::construct, COMDAT
; _this$ = ecx

; 196  : 		{	// construct object at _Ptr with value _Val

  00000	55		 push	 ebp
  00001	8b ec		 mov	 ebp, esp

; 197  : 		_Construct(_Ptr, _Val);

  00003	ff 75 0c	 push	 DWORD PTR __Val$[ebp]
  00006	ff 75 08	 push	 DWORD PTR __Ptr$[ebp]
  00009	e8 00 00 00 00	 call	 ??$_Construct@VioHashString@@ABV1@@std@@YAXPAVioHashString@@ABV1@@Z ; std::_Construct<ioHashString,ioHashString const &>
  0000e	59		 pop	 ecx
  0000f	59		 pop	 ecx

; 198  : 		}

  00010	5d		 pop	 ebp
  00011	c2 08 00	 ret	 8
?construct@?$allocator@VioHashString@@@std@@QAEXPAVioHashString@@ABV3@@Z ENDP ; std::allocator<ioHashString>::construct
_TEXT	ENDS
PUBLIC	?SetForcePowerAmt@ioBaseChar@@QAEXM@Z		; ioBaseChar::SetForcePowerAmt
; Function compile flags: /Ogsp
; File d:\lost saga for developer\youtube\tutorial\source\src\lsclient\iobasechar.h
;	COMDAT ?SetForcePowerAmt@ioBaseChar@@QAEXM@Z
_TEXT	SEGMENT
_value$555430 = 8					; size = 4
_fAmt$ = 8						; size = 4
?SetForcePowerAmt@ioBaseChar@@QAEXM@Z PROC		; ioBaseChar::SetForcePowerAmt, COMDAT
; _this$ = ecx

; 2641 : 	inline void SetForcePowerAmt( float fAmt ) { m_fForceAmt = fAmt; }

  00000	55		 push	 ebp
  00001	8b ec		 mov	 ebp, esp
  00003	f3 0f 10 45 08	 movss	 xmm0, DWORD PTR _fAmt$[ebp]
  00008	8d 45 08	 lea	 eax, DWORD PTR _value$555430[ebp]
  0000b	50		 push	 eax
  0000c	81 c1 88 0b 00
	00		 add	 ecx, 2952		; 00000b88H
  00012	f3 0f 11 45 08	 movss	 DWORD PTR _value$555430[ebp], xmm0
  00017	e8 00 00 00 00	 call	 ?EncryptValueToPool@?$CEncrypt@M@@AAEXPBD@Z ; CEncrypt<float>::EncryptValueToPool
  0001c	5d		 pop	 ebp
  0001d	c2 04 00	 ret	 4
?SetForcePowerAmt@ioBaseChar@@QAEXM@Z ENDP		; ioBaseChar::SetForcePowerAmt
_TEXT	ENDS
PUBLIC	?SetNormalAttack@ioTrinityItem@@UAEXPAVioBaseChar@@H@Z ; ioTrinityItem::SetNormalAttack
EXTRN	?SetNormalAttack@ioAttackableItem@@UAEXPAVioBaseChar@@H@Z:PROC ; ioAttackableItem::SetNormalAttack
EXTRN	?StopAutoTargetTracking@ioBaseChar@@QAEXXZ:PROC	; ioBaseChar::StopAutoTargetTracking
EXTRN	?SetState@ioBaseChar@@QAEXH_N@Z:PROC		; ioBaseChar::SetState
; Function compile flags: /Ogsp
; File d:\lost saga for developer\youtube\tutorial\source\src\lsclient\iotrinityitem.cpp
;	COMDAT ?SetNormalAttack@ioTrinityItem@@UAEXPAVioBaseChar@@H@Z
_TEXT	SEGMENT
tv289 = -16						; size = 8
tv317 = -12						; size = 4
tv312 = -12						; size = 4
tv310 = -12						; size = 4
tv308 = -12						; size = 4
tv328 = -8						; size = 4
$T555475 = -8						; size = 4
tv314 = -4						; size = 4
_value$555462 = -4					; size = 4
_fTimeRate$550812 = -4					; size = 4
tv340 = 8						; size = 4
tv335 = 8						; size = 4
_value$555440 = 8					; size = 4
_value$555436 = 8					; size = 4
_iAniID$550811 = 8					; size = 4
_pOwner$ = 8						; size = 4
_iCurCombo$ = 12					; size = 4
?SetNormalAttack@ioTrinityItem@@UAEXPAVioBaseChar@@H@Z PROC ; ioTrinityItem::SetNormalAttack, COMDAT
; _this$ = ecx

; 185  : {

  00000	55		 push	 ebp
  00001	8b ec		 mov	 ebp, esp
  00003	83 ec 10	 sub	 esp, 16			; 00000010H
  00006	56		 push	 esi
  00007	57		 push	 edi

; 186  : 	if( !pOwner ) 

  00008	8b 7d 08	 mov	 edi, DWORD PTR _pOwner$[ebp]
  0000b	8b f1		 mov	 esi, ecx
  0000d	85 ff		 test	 edi, edi
  0000f	0f 84 01 02 00
	00		 je	 $LN1@SetNormalA

; 187  : 		return;
; 188  : 
; 189  : 	m_fCurChargeRate = 0.0f;

  00015	0f 57 c0	 xorps	 xmm0, xmm0
  00018	53		 push	 ebx
  00019	8d 45 08	 lea	 eax, DWORD PTR _value$555436[ebp]
  0001c	50		 push	 eax
  0001d	8d 8e 8c 0f 00
	00		 lea	 ecx, DWORD PTR [esi+3980]
  00023	f3 0f 11 45 08	 movss	 DWORD PTR _value$555436[ebp], xmm0
  00028	e8 00 00 00 00	 call	 ?EncryptValueToPool@?$CEncrypt@M@@AAEXPBD@Z ; CEncrypt<float>::EncryptValueToPool

; 190  : 	m_fCurChargeRateForSkill = 0.0f;

  0002d	0f 57 c0	 xorps	 xmm0, xmm0
  00030	8d 45 08	 lea	 eax, DWORD PTR _value$555440[ebp]
  00033	50		 push	 eax
  00034	8d 8e bc 0f 00
	00		 lea	 ecx, DWORD PTR [esi+4028]
  0003a	f3 0f 11 45 08	 movss	 DWORD PTR _value$555440[ebp], xmm0
  0003f	e8 00 00 00 00	 call	 ?EncryptValueToPool@?$CEncrypt@M@@AAEXPBD@Z ; CEncrypt<float>::EncryptValueToPool

; 191  : 
; 192  : 	m_dwKeyReserveTime = 0;
; 193  : 
; 194  : 	m_iSkillInput = -1;
; 195  : 	m_bEnableDefenseState = false;
; 196  : 	m_bEnableAttackState = false;
; 197  : 	m_bEnableJumpState = false;
; 198  : 
; 199  : 	//ClearState( pOwner );
; 200  : 
; 201  : 	int iComboCnt = GetMaxCombo();

  00044	8b 06		 mov	 eax, DWORD PTR [esi]
  00046	83 a6 f8 0e 00
	00 00		 and	 DWORD PTR [esi+3832], 0
  0004d	83 8e fc 0e 00
	00 ff		 or	 DWORD PTR [esi+3836], -1
  00054	8b ce		 mov	 ecx, esi
  00056	66 c7 86 00 0f
	00 00 00 00	 mov	 WORD PTR [esi+3840], 0
  0005f	c6 86 02 0f 00
	00 00		 mov	 BYTE PTR [esi+3842], 0
  00066	ff 90 2c 02 00
	00		 call	 DWORD PTR [eax+556]

; 202  : 	if( !COMPARE( iCurCombo, 0, iComboCnt ) )

  0006c	8b 5d 0c	 mov	 ebx, DWORD PTR _iCurCombo$[ebp]
  0006f	85 db		 test	 ebx, ebx
  00071	0f 88 78 01 00
	00		 js	 $LN2@SetNormalA
  00077	3b d8		 cmp	 ebx, eax
  00079	0f 8d 70 01 00
	00		 jge	 $LN2@SetNormalA

; 211  : 	}
; 212  : 	else
; 213  : 	{
; 214  : 		ioEntityGroup *pGrp = pOwner->GetGroup();

  0007f	8b 5f 04	 mov	 ebx, DWORD PTR [edi+4]

; 215  : 		pGrp->ClearAllLoopAni( FLOAT100, true );

  00082	b8 64 00 00 00	 mov	 eax, 100		; 00000064H
  00087	89 45 08	 mov	 DWORD PTR tv340[ebp], eax
  0008a	db 45 08	 fild	 DWORD PTR tv340[ebp]
  0008d	6a 01		 push	 1
  0008f	85 c0		 test	 eax, eax
  00091	79 06		 jns	 SHORT $LN34@SetNormalA
  00093	d8 05 00 00 00
	00		 fadd	 DWORD PTR __real@4f800000
$LN34@SetNormalA:
  00099	51		 push	 ecx
  0009a	8b cb		 mov	 ecx, ebx
  0009c	d9 1c 24	 fstp	 DWORD PTR [esp]
  0009f	ff 15 00 00 00
	00		 call	 DWORD PTR __imp_?ClearAllLoopAni@ioEntityGroup@@QAEXM_N@Z

; 216  : 		pGrp->ClearAllActionAni( FLOAT100, true );

  000a5	b8 64 00 00 00	 mov	 eax, 100		; 00000064H
  000aa	89 45 08	 mov	 DWORD PTR tv335[ebp], eax
  000ad	db 45 08	 fild	 DWORD PTR tv335[ebp]
  000b0	6a 01		 push	 1
  000b2	85 c0		 test	 eax, eax
  000b4	79 06		 jns	 SHORT $LN35@SetNormalA
  000b6	d8 05 00 00 00
	00		 fadd	 DWORD PTR __real@4f800000
$LN35@SetNormalA:
  000bc	51		 push	 ecx
  000bd	8b cb		 mov	 ecx, ebx
  000bf	d9 1c 24	 fstp	 DWORD PTR [esp]
  000c2	ff 15 00 00 00
	00		 call	 DWORD PTR __imp_?ClearAllActionAni@ioEntityGroup@@QAEXM_N@Z

; 217  : 
; 218  : 		int iAniID = pGrp->GetAnimationIdx( m_AttackReadyAniList[iCurCombo] );

  000c8	8b 45 0c	 mov	 eax, DWORD PTR _iCurCombo$[ebp]
  000cb	c1 e0 04	 shl	 eax, 4
  000ce	03 86 58 19 00
	00		 add	 eax, DWORD PTR [esi+6488]
  000d4	8b cb		 mov	 ecx, ebx
  000d6	50		 push	 eax
  000d7	ff 15 00 00 00
	00		 call	 DWORD PTR __imp_?GetAnimationIdx@ioEntityGroup@@QAEHABVioHashString@@@Z
  000dd	89 45 08	 mov	 DWORD PTR _iAniID$550811[ebp], eax

; 219  : 		float fTimeRate = (float)m_dwChargeTime / pGrp->GetAnimationFullTime( iAniID );

  000e0	8d 45 fc	 lea	 eax, DWORD PTR _value$555462[ebp]
  000e3	50		 push	 eax
  000e4	8d 8e b0 18 00
	00		 lea	 ecx, DWORD PTR [esi+6320]
  000ea	e8 00 00 00 00	 call	 ?DecryptValueToPool@?$CEncrypt@K@@QAEXPAK@Z ; CEncrypt<unsigned long>::DecryptValueToPool
  000ef	db 45 fc	 fild	 DWORD PTR _value$555462[ebp]
  000f2	8b 45 fc	 mov	 eax, DWORD PTR _value$555462[ebp]
  000f5	85 c0		 test	 eax, eax
  000f7	79 06		 jns	 SHORT $LN36@SetNormalA
  000f9	d8 05 00 00 00
	00		 fadd	 DWORD PTR __real@4f800000
$LN36@SetNormalA:
  000ff	ff 75 08	 push	 DWORD PTR _iAniID$550811[ebp]
  00102	dd 5d f0	 fstp	 QWORD PTR tv289[ebp]
  00105	8b cb		 mov	 ecx, ebx
  00107	ff 15 00 00 00
	00		 call	 DWORD PTR __imp_?GetAnimationFullTime@ioEntityGroup@@QAEMH@Z
  0010d	dc 7d f0	 fdivr	 QWORD PTR tv289[ebp]
  00110	d9 5d fc	 fstp	 DWORD PTR _fTimeRate$550812[ebp]

; 220  : 		pGrp->SetActionAni( iAniID, FLOAT100, FLOAT100, FLOAT1, FLOAT1/fTimeRate, 0.0f, 0.0f, true );

  00113	b8 01 00 00 00	 mov	 eax, 1
  00118	8b c8		 mov	 ecx, eax
  0011a	b8 01 00 00 00	 mov	 eax, 1
  0011f	8b d0		 mov	 edx, eax
  00121	b8 64 00 00 00	 mov	 eax, 100		; 00000064H
  00126	89 45 f8	 mov	 DWORD PTR $T555475[ebp], eax
  00129	b8 64 00 00 00	 mov	 eax, 100		; 00000064H
  0012e	0f 57 c0	 xorps	 xmm0, xmm0
  00131	6a 01		 push	 1
  00133	6a 01		 push	 1
  00135	83 ec 18	 sub	 esp, 24			; 00000018H
  00138	89 4d f4	 mov	 DWORD PTR tv317[ebp], ecx
  0013b	db 45 f4	 fild	 DWORD PTR tv317[ebp]
  0013e	f3 0f 11 44 24
	14		 movss	 DWORD PTR [esp+20], xmm0
  00144	f3 0f 11 44 24
	10		 movss	 DWORD PTR [esp+16], xmm0
  0014a	85 c9		 test	 ecx, ecx
  0014c	79 06		 jns	 SHORT $LN37@SetNormalA
  0014e	d8 05 00 00 00
	00		 fadd	 DWORD PTR __real@4f800000
$LN37@SetNormalA:
  00154	d8 75 fc	 fdiv	 DWORD PTR _fTimeRate$550812[ebp]
  00157	89 55 f4	 mov	 DWORD PTR tv312[ebp], edx
  0015a	d9 5d fc	 fstp	 DWORD PTR tv314[ebp]
  0015d	d9 45 fc	 fld	 DWORD PTR tv314[ebp]
  00160	d9 5c 24 0c	 fstp	 DWORD PTR [esp+12]
  00164	db 45 f4	 fild	 DWORD PTR tv312[ebp]
  00167	85 d2		 test	 edx, edx
  00169	79 06		 jns	 SHORT $LN38@SetNormalA
  0016b	d8 05 00 00 00
	00		 fadd	 DWORD PTR __real@4f800000
$LN38@SetNormalA:
  00171	8b 4d f8	 mov	 ecx, DWORD PTR $T555475[ebp]
  00174	d9 5c 24 08	 fstp	 DWORD PTR [esp+8]
  00178	db 45 f8	 fild	 DWORD PTR $T555475[ebp]
  0017b	85 c9		 test	 ecx, ecx
  0017d	79 06		 jns	 SHORT $LN39@SetNormalA
  0017f	d8 05 00 00 00
	00		 fadd	 DWORD PTR __real@4f800000
$LN39@SetNormalA:
  00185	89 45 f4	 mov	 DWORD PTR tv308[ebp], eax
  00188	d9 5c 24 04	 fstp	 DWORD PTR [esp+4]
  0018c	db 45 f4	 fild	 DWORD PTR tv308[ebp]
  0018f	85 c0		 test	 eax, eax
  00191	79 06		 jns	 SHORT $LN40@SetNormalA
  00193	d8 05 00 00 00
	00		 fadd	 DWORD PTR __real@4f800000
$LN40@SetNormalA:
  00199	d9 1c 24	 fstp	 DWORD PTR [esp]
  0019c	ff 75 08	 push	 DWORD PTR _iAniID$550811[ebp]
  0019f	8b cb		 mov	 ecx, ebx
  001a1	ff 15 00 00 00
	00		 call	 DWORD PTR __imp_?SetActionAni@ioEntityGroup@@QAE_NHMMMMMM_N0@Z

; 221  : 
; 222  : 		m_ChargeState = CS_CHARGING;

  001a7	33 db		 xor	 ebx, ebx
  001a9	43		 inc	 ebx
  001aa	89 9e 80 19 00
	00		 mov	 DWORD PTR [esi+6528], ebx

; 223  : 		m_dwAttackStartTime = FRAMEGETTIME();

  001b0	ff 15 00 00 00
	00		 call	 DWORD PTR __imp_?GetSingleton@ioFrameTimer@@SAAAV1@XZ
  001b6	8b c8		 mov	 ecx, eax
  001b8	ff 15 00 00 00
	00		 call	 DWORD PTR __imp_?GetLoopSec@ioFrameTimer@@QBEKXZ
  001be	89 86 88 19 00
	00		 mov	 DWORD PTR [esi+6536], eax

; 224  : 		m_iCurCombo = iCurCombo;

  001c4	8b 45 0c	 mov	 eax, DWORD PTR _iCurCombo$[ebp]

; 225  : 		pOwner->SetState( CS_ATTACK );

  001c7	53		 push	 ebx
  001c8	6a 05		 push	 5
  001ca	8b cf		 mov	 ecx, edi
  001cc	89 86 8c 19 00
	00		 mov	 DWORD PTR [esi+6540], eax
  001d2	e8 00 00 00 00	 call	 ?SetState@ioBaseChar@@QAEXH_N@Z ; ioBaseChar::SetState

; 226  : 		pOwner->SetAttackMoveEnable( false );

  001d7	6a 00		 push	 0
  001d9	8b cf		 mov	 ecx, edi
  001db	e8 00 00 00 00	 call	 ?SetAttackMoveEnable@ioBaseChar@@QAEX_N@Z ; ioBaseChar::SetAttackMoveEnable

; 227  : 		pOwner->SetChargingState( true );
; 228  : 
; 229  : 		/*if( m_bChargeAutoTarget )
; 230  : 		{
; 231  : 			DWORD dwTrackingTime = FRAMEGETTIME();
; 232  : 			dwTrackingTime += pGrp->GetAnimationEventTime_e( iAniID, "tracking_e" ) * fTimeRate;
; 233  : 			pOwner->SetAutoTargetTrackingEndTime( dwTrackingTime );
; 234  : 		}
; 235  : 		else*/
; 236  : 		{
; 237  : 			pOwner->StopAutoTargetTracking();

  001e0	8b cf		 mov	 ecx, edi
  001e2	88 9f 54 20 00
	00		 mov	 BYTE PTR [edi+8276], bl
  001e8	e8 00 00 00 00	 call	 ?StopAutoTargetTracking@ioBaseChar@@QAEXXZ ; ioBaseChar::StopAutoTargetTracking
  001ed	eb 26		 jmp	 SHORT $LN33@SetNormalA
$LN2@SetNormalA:

; 203  : 	{
; 204  : 		ioWeaponItem::SetNormalAttack( pOwner, iCurCombo );

  001ef	53		 push	 ebx
  001f0	57		 push	 edi
  001f1	8b ce		 mov	 ecx, esi
  001f3	e8 00 00 00 00	 call	 ?SetNormalAttack@ioAttackableItem@@UAEXPAVioBaseChar@@H@Z ; ioAttackableItem::SetNormalAttack

; 205  : 
; 206  : 		m_ChargeState = CS_NONE;

  001f8	83 a6 80 19 00
	00 00		 and	 DWORD PTR [esi+6528], 0

; 207  : 		m_iCurCombo = iCurCombo;
; 208  : 
; 209  : 		pOwner->SetAttackMoveEnable( false );

  001ff	6a 00		 push	 0
  00201	8b cf		 mov	 ecx, edi
  00203	89 9e 8c 19 00
	00		 mov	 DWORD PTR [esi+6540], ebx
  00209	e8 00 00 00 00	 call	 ?SetAttackMoveEnable@ioBaseChar@@QAEX_N@Z ; ioBaseChar::SetAttackMoveEnable

; 210  : 		pOwner->SetChargingState( false );

  0020e	c6 87 54 20 00
	00 00		 mov	 BYTE PTR [edi+8276], 0
$LN33@SetNormalA:
  00215	5b		 pop	 ebx
$LN1@SetNormalA:
  00216	5f		 pop	 edi
  00217	5e		 pop	 esi

; 238  : 		}
; 239  : 	}
; 240  : }

  00218	c9		 leave
  00219	c2 08 00	 ret	 8
?SetNormalAttack@ioTrinityItem@@UAEXPAVioBaseChar@@H@Z ENDP ; ioTrinityItem::SetNormalAttack
_TEXT	ENDS
PUBLIC	__$ArrayPad$
PUBLIC	?ChangeGatheringState@ioTrinityItem@@IAEXPAVioBaseChar@@@Z ; ioTrinityItem::ChangeGatheringState
EXTRN	?ClearReservedSliding@ioBaseChar@@QAEXXZ:PROC	; ioBaseChar::ClearReservedSliding
;	COMDAT xdata$x
; File d:\lost saga for developer\youtube\tutorial\source\src\lsclient\iobasechar.h
xdata$x	SEGMENT
__unwindtable$?ChangeGatheringState@ioTrinityItem@@IAEXPAVioBaseChar@@@Z DD 0ffffffffH
	DD	FLAT:__unwindfunclet$?ChangeGatheringState@ioTrinityItem@@IAEXPAVioBaseChar@@@Z$0
__ehfuncinfo$?ChangeGatheringState@ioTrinityItem@@IAEXPAVioBaseChar@@@Z DD 019930522H
	DD	01H
	DD	FLAT:__unwindtable$?ChangeGatheringState@ioTrinityItem@@IAEXPAVioBaseChar@@@Z
	DD	2 DUP(00H)
	DD	2 DUP(00H)
	DD	00H
	DD	01H
; Function compile flags: /Ogsp
; File d:\lost saga for developer\youtube\tutorial\source\src\lsclient\iotrinityitem.cpp
xdata$x	ENDS
;	COMDAT ?ChangeGatheringState@ioTrinityItem@@IAEXPAVioBaseChar@@@Z
_TEXT	SEGMENT
_iAniID$ = -32832					; size = 4
tv208 = -32828						; size = 4
_dwCurTime$ = -32828					; size = 4
tv241 = -32824						; size = 4
tv238 = -32824						; size = 4
tv236 = -32824						; size = 4
_value$555506 = -32820					; size = 4
_fTimeRate$ = -32820					; size = 4
_pGrp$ = -32816						; size = 4
tv257 = -32812						; size = 4
tv252 = -32812						; size = 4
tv234 = -32812						; size = 4
tv232 = -32812						; size = 4
$T555527 = -32812					; size = 4
_kPacket$550867 = -32808				; size = 32792
__$ArrayPad$ = -16					; size = 4
__$EHRec$ = -12						; size = 12
_pOwner$ = 8						; size = 4
?ChangeGatheringState@ioTrinityItem@@IAEXPAVioBaseChar@@@Z PROC ; ioTrinityItem::ChangeGatheringState, COMDAT
; _this$ = ecx

; 309  : {

  00000	55		 push	 ebp
  00001	8b ec		 mov	 ebp, esp
  00003	6a ff		 push	 -1
  00005	68 00 00 00 00	 push	 __ehhandler$?ChangeGatheringState@ioTrinityItem@@IAEXPAVioBaseChar@@@Z
  0000a	64 a1 00 00 00
	00		 mov	 eax, DWORD PTR fs:0
  00010	50		 push	 eax
  00011	b8 34 80 00 00	 mov	 eax, 32820		; 00008034H
  00016	e8 00 00 00 00	 call	 __chkstk
  0001b	a1 00 00 00 00	 mov	 eax, DWORD PTR ___security_cookie
  00020	33 c5		 xor	 eax, ebp
  00022	89 45 f0	 mov	 DWORD PTR __$ArrayPad$[ebp], eax
  00025	53		 push	 ebx
  00026	56		 push	 esi
  00027	57		 push	 edi
  00028	50		 push	 eax
  00029	8d 45 f4	 lea	 eax, DWORD PTR __$EHRec$[ebp]
  0002c	64 a3 00 00 00
	00		 mov	 DWORD PTR fs:0, eax
  00032	8b 7d 08	 mov	 edi, DWORD PTR _pOwner$[ebp]
  00035	8b f1		 mov	 esi, ecx

; 310  : 	if( !pOwner )

  00037	85 ff		 test	 edi, edi
  00039	0f 84 74 02 00
	00		 je	 $LN1@ChangeGath

; 311  : 		return;
; 312  : 
; 313  : 	ioEntityGroup *pGrp = pOwner->GetGroup();

  0003f	8b 47 04	 mov	 eax, DWORD PTR [edi+4]
  00042	89 85 d0 7f ff
	ff		 mov	 DWORD PTR _pGrp$[ebp], eax

; 314  : 	if( !pGrp )

  00048	85 c0		 test	 eax, eax
  0004a	0f 84 63 02 00
	00		 je	 $LN1@ChangeGath

; 315  : 		return;
; 316  : 
; 317  : 	DWORD dwCurTime = FRAMEGETTIME();

  00050	ff 15 00 00 00
	00		 call	 DWORD PTR __imp_?GetSingleton@ioFrameTimer@@SAAAV1@XZ
  00056	8b c8		 mov	 ecx, eax
  00058	ff 15 00 00 00
	00		 call	 DWORD PTR __imp_?GetLoopSec@ioFrameTimer@@QBEKXZ

; 318  : 
; 319  : 	pOwner->InitExtendAttackTagInfo();

  0005e	8b cf		 mov	 ecx, edi
  00060	89 85 c4 7f ff
	ff		 mov	 DWORD PTR _dwCurTime$[ebp], eax
  00066	e8 00 00 00 00	 call	 ?InitExtendAttackTagInfo@ioBaseChar@@QAEXXZ ; ioBaseChar::InitExtendAttackTagInfo

; 320  : 
; 321  : 	pOwner->ClearReservedSliding();

  0006b	8b cf		 mov	 ecx, edi
  0006d	e8 00 00 00 00	 call	 ?ClearReservedSliding@ioBaseChar@@QAEXXZ ; ioBaseChar::ClearReservedSliding

; 322  : 	pOwner->SetForcePowerAmt( 0.0f );

  00072	0f 57 c0	 xorps	 xmm0, xmm0
  00075	8d 85 cc 7f ff
	ff		 lea	 eax, DWORD PTR _value$555506[ebp]
  0007b	50		 push	 eax
  0007c	8d 8f 88 0b 00
	00		 lea	 ecx, DWORD PTR [edi+2952]
  00082	f3 0f 11 85 cc
	7f ff ff	 movss	 DWORD PTR _value$555506[ebp], xmm0
  0008a	e8 00 00 00 00	 call	 ?EncryptValueToPool@?$CEncrypt@M@@AAEXPBD@Z ; CEncrypt<float>::EncryptValueToPool

; 323  : 
; 324  : 	pGrp->ClearAllLoopAni( FLOAT100, true );

  0008f	b8 64 00 00 00	 mov	 eax, 100		; 00000064H
  00094	33 db		 xor	 ebx, ebx
  00096	43		 inc	 ebx
  00097	89 85 d4 7f ff
	ff		 mov	 DWORD PTR tv257[ebp], eax
  0009d	db 85 d4 7f ff
	ff		 fild	 DWORD PTR tv257[ebp]
  000a3	53		 push	 ebx
  000a4	85 c0		 test	 eax, eax
  000a6	79 06		 jns	 SHORT $LN28@ChangeGath
  000a8	d8 05 00 00 00
	00		 fadd	 DWORD PTR __real@4f800000
$LN28@ChangeGath:
  000ae	51		 push	 ecx
  000af	8b 8d d0 7f ff
	ff		 mov	 ecx, DWORD PTR _pGrp$[ebp]
  000b5	d9 1c 24	 fstp	 DWORD PTR [esp]
  000b8	ff 15 00 00 00
	00		 call	 DWORD PTR __imp_?ClearAllLoopAni@ioEntityGroup@@QAEXM_N@Z

; 325  : 	pGrp->ClearAllActionAni( FLOAT100, true );

  000be	b8 64 00 00 00	 mov	 eax, 100		; 00000064H
  000c3	89 85 d4 7f ff
	ff		 mov	 DWORD PTR tv252[ebp], eax
  000c9	db 85 d4 7f ff
	ff		 fild	 DWORD PTR tv252[ebp]
  000cf	53		 push	 ebx
  000d0	85 c0		 test	 eax, eax
  000d2	79 06		 jns	 SHORT $LN29@ChangeGath
  000d4	d8 05 00 00 00
	00		 fadd	 DWORD PTR __real@4f800000
$LN29@ChangeGath:
  000da	51		 push	 ecx
  000db	8b 8d d0 7f ff
	ff		 mov	 ecx, DWORD PTR _pGrp$[ebp]
  000e1	d9 1c 24	 fstp	 DWORD PTR [esp]
  000e4	ff 15 00 00 00
	00		 call	 DWORD PTR __imp_?ClearAllActionAni@ioEntityGroup@@QAEXM_N@Z

; 326  : 
; 327  : 	int iAniID	     = pGrp->GetAnimationIdx( m_GatherAnimation );

  000ea	8b 8d d0 7f ff
	ff		 mov	 ecx, DWORD PTR _pGrp$[ebp]
  000f0	8d 86 68 19 00
	00		 lea	 eax, DWORD PTR [esi+6504]
  000f6	50		 push	 eax
  000f7	ff 15 00 00 00
	00		 call	 DWORD PTR __imp_?GetAnimationIdx@ioEntityGroup@@QAEHABVioHashString@@@Z

; 328  : 	float fTimeRate  = m_fGatherAniRate;

  000fd	d9 86 78 19 00
	00		 fld	 DWORD PTR [esi+6520]
  00103	d9 9d cc 7f ff
	ff		 fstp	 DWORD PTR _fTimeRate$[ebp]
  00109	89 85 c0 7f ff
	ff		 mov	 DWORD PTR _iAniID$[ebp], eax

; 329  : 
; 330  : 	pGrp->SetActionAni( iAniID, FLOAT100, FLOAT100, FLOAT1, FLOAT1/fTimeRate, 0.0f, 0.0f, true );

  0010f	b8 01 00 00 00	 mov	 eax, 1
  00114	8b c8		 mov	 ecx, eax
  00116	b8 01 00 00 00	 mov	 eax, 1
  0011b	8b d0		 mov	 edx, eax
  0011d	b8 64 00 00 00	 mov	 eax, 100		; 00000064H
  00122	89 85 d4 7f ff
	ff		 mov	 DWORD PTR $T555527[ebp], eax
  00128	b8 64 00 00 00	 mov	 eax, 100		; 00000064H
  0012d	0f 57 c0	 xorps	 xmm0, xmm0
  00130	53		 push	 ebx
  00131	53		 push	 ebx
  00132	83 ec 18	 sub	 esp, 24			; 00000018H
  00135	89 8d c8 7f ff
	ff		 mov	 DWORD PTR tv241[ebp], ecx
  0013b	db 85 c8 7f ff
	ff		 fild	 DWORD PTR tv241[ebp]
  00141	f3 0f 11 44 24
	14		 movss	 DWORD PTR [esp+20], xmm0
  00147	f3 0f 11 44 24
	10		 movss	 DWORD PTR [esp+16], xmm0
  0014d	85 c9		 test	 ecx, ecx
  0014f	79 06		 jns	 SHORT $LN30@ChangeGath
  00151	d8 05 00 00 00
	00		 fadd	 DWORD PTR __real@4f800000
$LN30@ChangeGath:
  00157	d8 b5 cc 7f ff
	ff		 fdiv	 DWORD PTR _fTimeRate$[ebp]
  0015d	d9 9d c8 7f ff
	ff		 fstp	 DWORD PTR tv238[ebp]
  00163	d9 85 c8 7f ff
	ff		 fld	 DWORD PTR tv238[ebp]
  00169	d9 5c 24 0c	 fstp	 DWORD PTR [esp+12]
  0016d	89 95 c8 7f ff
	ff		 mov	 DWORD PTR tv236[ebp], edx
  00173	db 85 c8 7f ff
	ff		 fild	 DWORD PTR tv236[ebp]
  00179	85 d2		 test	 edx, edx
  0017b	79 06		 jns	 SHORT $LN31@ChangeGath
  0017d	d8 05 00 00 00
	00		 fadd	 DWORD PTR __real@4f800000
$LN31@ChangeGath:
  00183	8b 8d d4 7f ff
	ff		 mov	 ecx, DWORD PTR $T555527[ebp]
  00189	d9 5c 24 08	 fstp	 DWORD PTR [esp+8]
  0018d	db 85 d4 7f ff
	ff		 fild	 DWORD PTR $T555527[ebp]
  00193	85 c9		 test	 ecx, ecx
  00195	79 06		 jns	 SHORT $LN32@ChangeGath
  00197	d8 05 00 00 00
	00		 fadd	 DWORD PTR __real@4f800000
$LN32@ChangeGath:
  0019d	89 85 d4 7f ff
	ff		 mov	 DWORD PTR tv232[ebp], eax
  001a3	d9 5c 24 04	 fstp	 DWORD PTR [esp+4]
  001a7	db 85 d4 7f ff
	ff		 fild	 DWORD PTR tv232[ebp]
  001ad	85 c0		 test	 eax, eax
  001af	79 06		 jns	 SHORT $LN33@ChangeGath
  001b1	d8 05 00 00 00
	00		 fadd	 DWORD PTR __real@4f800000
$LN33@ChangeGath:
  001b7	8b 8d d0 7f ff
	ff		 mov	 ecx, DWORD PTR _pGrp$[ebp]
  001bd	d9 1c 24	 fstp	 DWORD PTR [esp]
  001c0	ff b5 c0 7f ff
	ff		 push	 DWORD PTR _iAniID$[ebp]
  001c6	ff 15 00 00 00
	00		 call	 DWORD PTR __imp_?SetActionAni@ioEntityGroup@@QAE_NHMMMMMM_N0@Z

; 331  : 
; 332  : 	m_State = TS_GATHERING;
; 333  : 	m_dwMotionEndTime = dwCurTime + pGrp->GetAnimationFullTime( iAniID ) * fTimeRate;

  001cc	ff b5 c0 7f ff
	ff		 push	 DWORD PTR _iAniID$[ebp]
  001d2	8b 8d d0 7f ff
	ff		 mov	 ecx, DWORD PTR _pGrp$[ebp]
  001d8	89 9e 84 19 00
	00		 mov	 DWORD PTR [esi+6532], ebx
  001de	ff 15 00 00 00
	00		 call	 DWORD PTR __imp_?GetAnimationFullTime@ioEntityGroup@@QAEMH@Z
  001e4	d8 8d cc 7f ff
	ff		 fmul	 DWORD PTR _fTimeRate$[ebp]
  001ea	8b 85 c4 7f ff
	ff		 mov	 eax, DWORD PTR _dwCurTime$[ebp]
  001f0	db 85 c4 7f ff
	ff		 fild	 DWORD PTR _dwCurTime$[ebp]
  001f6	85 c0		 test	 eax, eax
  001f8	79 06		 jns	 SHORT $LN34@ChangeGath
  001fa	d8 05 00 00 00
	00		 fadd	 DWORD PTR __real@4f800000
$LN34@ChangeGath:
  00200	de c1		 faddp	 ST(1), ST(0)
  00202	e8 00 00 00 00	 call	 __ftol2
  00207	89 86 fc 20 00
	00		 mov	 DWORD PTR [esi+8444], eax

; 334  : 
; 335  : 	if( pOwner->IsNeedProcess() )

  0020d	8b 07		 mov	 eax, DWORD PTR [edi]
  0020f	8b cf		 mov	 ecx, edi
  00211	ff 90 00 01 00
	00		 call	 DWORD PTR [eax+256]
  00217	84 c0		 test	 al, al
  00219	0f 84 94 00 00
	00		 je	 $LN1@ChangeGath

; 336  : 	{
; 337  : 		SP2Packet kPacket( CUPK_ITEM_GAUGE_CANCEL );

  0021f	68 28 41 00 00	 push	 16680			; 00004128H
  00224	8d 8d d8 7f ff
	ff		 lea	 ecx, DWORD PTR _kPacket$550867[ebp]
  0022a	e8 00 00 00 00	 call	 ??0SP2Packet@@QAE@K@Z	; SP2Packet::SP2Packet
  0022f	83 65 fc 00	 and	 DWORD PTR __$EHRec$[ebp+8], 0

; 338  : 		FillItemGaugePacketHeader( pOwner, kPacket );

  00233	8d 85 d8 7f ff
	ff		 lea	 eax, DWORD PTR _kPacket$550867[ebp]
  00239	50		 push	 eax
  0023a	57		 push	 edi
  0023b	8b ce		 mov	 ecx, esi
  0023d	e8 00 00 00 00	 call	 ?FillItemGaugePacketHeader@ioAttackableItem@@QAEXPAVioBaseChar@@AAVSP2Packet@@@Z ; ioAttackableItem::FillItemGaugePacketHeader

; 339  : 		kPacket << SST_GATHERING;

  00242	53		 push	 ebx
  00243	8d 8d d8 7f ff
	ff		 lea	 ecx, DWORD PTR _kPacket$550867[ebp]
  00249	e8 00 00 00 00	 call	 ??6SP2Packet@@QAEAAV0@H@Z ; SP2Packet::operator<<

; 340  : 		kPacket << m_State;

  0024e	ff b6 84 19 00
	00		 push	 DWORD PTR [esi+6532]
  00254	8d 8d d8 7f ff
	ff		 lea	 ecx, DWORD PTR _kPacket$550867[ebp]
  0025a	e8 00 00 00 00	 call	 ??6SP2Packet@@QAEAAV0@H@Z ; SP2Packet::operator<<

; 341  : 		kPacket << pOwner->GetTargetRot();

  0025f	81 c7 a4 06 00
	00		 add	 edi, 1700		; 000006a4H
  00265	57		 push	 edi
  00266	8d 8d d8 7f ff
	ff		 lea	 ecx, DWORD PTR _kPacket$550867[ebp]
  0026c	e8 00 00 00 00	 call	 ??6SP2Packet@@QAEAAV0@ABUD3DXQUATERNION@@@Z ; SP2Packet::operator<<

; 342  : 		kPacket << m_fCurGauge;

  00271	8d 86 9c 20 00
	00		 lea	 eax, DWORD PTR [esi+8348]
  00277	50		 push	 eax
  00278	8d 8d d8 7f ff
	ff		 lea	 ecx, DWORD PTR _kPacket$550867[ebp]
  0027e	e8 00 00 00 00	 call	 ??6SP2Packet@@QAEAAV0@AAV?$CEncrypt@M@@@Z ; SP2Packet::operator<<

; 343  : 		kPacket << m_nWeaponIndex;

  00283	ff b6 00 21 00
	00		 push	 DWORD PTR [esi+8448]
  00289	8d 8d d8 7f ff
	ff		 lea	 ecx, DWORD PTR _kPacket$550867[ebp]
  0028f	e8 00 00 00 00	 call	 ??6SP2Packet@@QAEAAV0@H@Z ; SP2Packet::operator<<

; 344  : 		P2PNetwork::SendToAllPlayingUser( kPacket );

  00294	8d 85 d8 7f ff
	ff		 lea	 eax, DWORD PTR _kPacket$550867[ebp]
  0029a	6a 00		 push	 0
  0029c	50		 push	 eax
  0029d	e8 00 00 00 00	 call	 ?SendToAllPlayingUser@P2PNetwork@@YAXAAVSP2Packet@@PAVioBaseChar@@@Z ; P2PNetwork::SendToAllPlayingUser

; 345  : 	}

  002a2	83 4d fc ff	 or	 DWORD PTR __$EHRec$[ebp+8], -1
  002a6	59		 pop	 ecx
  002a7	59		 pop	 ecx
  002a8	8d 8d d8 7f ff
	ff		 lea	 ecx, DWORD PTR _kPacket$550867[ebp]
  002ae	e8 00 00 00 00	 call	 ??1SP2Packet@@UAE@XZ	; SP2Packet::~SP2Packet
$LN1@ChangeGath:

; 346  : }

  002b3	8b 4d f4	 mov	 ecx, DWORD PTR __$EHRec$[ebp]
  002b6	64 89 0d 00 00
	00 00		 mov	 DWORD PTR fs:0, ecx
  002bd	59		 pop	 ecx
  002be	5f		 pop	 edi
  002bf	5e		 pop	 esi
  002c0	5b		 pop	 ebx
  002c1	8b 4d f0	 mov	 ecx, DWORD PTR __$ArrayPad$[ebp]
  002c4	33 cd		 xor	 ecx, ebp
  002c6	e8 00 00 00 00	 call	 @__security_check_cookie@4
  002cb	c9		 leave
  002cc	c2 04 00	 ret	 4
_TEXT	ENDS
;	COMDAT text$x
text$x	SEGMENT
__unwindfunclet$?ChangeGatheringState@ioTrinityItem@@IAEXPAVioBaseChar@@@Z$0:
  00000	8d 8d d8 7f ff
	ff		 lea	 ecx, DWORD PTR _kPacket$550867[ebp]
  00006	e9 00 00 00 00	 jmp	 ??1SP2Packet@@UAE@XZ	; SP2Packet::~SP2Packet
__ehhandler$?ChangeGatheringState@ioTrinityItem@@IAEXPAVioBaseChar@@@Z:
  0000b	8b 54 24 08	 mov	 edx, DWORD PTR [esp+8]
  0000f	8d 42 0c	 lea	 eax, DWORD PTR [edx+12]
  00012	8b 8a bc 7f ff
	ff		 mov	 ecx, DWORD PTR [edx-32836]
  00018	33 c8		 xor	 ecx, eax
  0001a	e8 00 00 00 00	 call	 @__security_check_cookie@4
  0001f	8b 4a fc	 mov	 ecx, DWORD PTR [edx-4]
  00022	33 c8		 xor	 ecx, eax
  00024	e8 00 00 00 00	 call	 @__security_check_cookie@4
  00029	b8 00 00 00 00	 mov	 eax, OFFSET __ehfuncinfo$?ChangeGatheringState@ioTrinityItem@@IAEXPAVioBaseChar@@@Z
  0002e	e9 00 00 00 00	 jmp	 ___CxxFrameHandler3
text$x	ENDS
?ChangeGatheringState@ioTrinityItem@@IAEXPAVioBaseChar@@@Z ENDP ; ioTrinityItem::ChangeGatheringState
PUBLIC	__real@3f800000
PUBLIC	__$ArrayPad$
PUBLIC	?ChangeToNormalAttack@ioTrinityItem@@IAEXPAVioBaseChar@@@Z ; ioTrinityItem::ChangeToNormalAttack
EXTRN	?FillAutoTargetInfo@ioBaseChar@@QAEXAAVSP2Packet@@@Z:PROC ; ioBaseChar::FillAutoTargetInfo
EXTRN	?ApplyNormalAttackResult@ioBaseChar@@QAEXH_N@Z:PROC ; ioBaseChar::ApplyNormalAttackResult
EXTRN	?SetNormalAttackByAttribute@ioBaseChar@@QAEKABUAttackAttribute@@_NMM@Z:PROC ; ioBaseChar::SetNormalAttackByAttribute
EXTRN	?SetAutoTarget@ioBaseChar@@QAEXW4AutoTargetType@@@Z:PROC ; ioBaseChar::SetAutoTarget
EXTRN	?GetAttribute@ioFormalAttackGrp@@QBEPBUAttackAttribute@@W4AttackType@@H@Z:PROC ; ioFormalAttackGrp::GetAttribute
;	COMDAT __real@3f800000
; File d:\lost saga for developer\youtube\tutorial\source\src\lsclient\encryptvalue.h
CONST	SEGMENT
__real@3f800000 DD 03f800000r			; 1
CONST	ENDS
;	COMDAT xdata$x
xdata$x	SEGMENT
__unwindtable$?ChangeToNormalAttack@ioTrinityItem@@IAEXPAVioBaseChar@@@Z DD 0ffffffffH
	DD	FLAT:__unwindfunclet$?ChangeToNormalAttack@ioTrinityItem@@IAEXPAVioBaseChar@@@Z$0
__ehfuncinfo$?ChangeToNormalAttack@ioTrinityItem@@IAEXPAVioBaseChar@@@Z DD 019930522H
	DD	01H
	DD	FLAT:__unwindtable$?ChangeToNormalAttack@ioTrinityItem@@IAEXPAVioBaseChar@@@Z
	DD	2 DUP(00H)
	DD	2 DUP(00H)
	DD	00H
	DD	01H
; Function compile flags: /Ogsp
; File d:\lost saga for developer\youtube\tutorial\source\src\lsclient\iotrinityitem.cpp
xdata$x	ENDS
;	COMDAT ?ChangeToNormalAttack@ioTrinityItem@@IAEXPAVioBaseChar@@@Z
_TEXT	SEGMENT
_value$555564 = -32816					; size = 4
_value$555560 = -32816					; size = 4
_pAttribute$ = -32816					; size = 4
_value$555572 = -32809					; size = 1
_value$555568 = -32809					; size = 1
_kPacket$550877 = -32808				; size = 32792
__$ArrayPad$ = -16					; size = 4
__$EHRec$ = -12						; size = 12
_pOwner$ = 8						; size = 4
?ChangeToNormalAttack@ioTrinityItem@@IAEXPAVioBaseChar@@@Z PROC ; ioTrinityItem::ChangeToNormalAttack, COMDAT
; _this$ = ecx

; 349  : {

  00000	55		 push	 ebp
  00001	8b ec		 mov	 ebp, esp
  00003	6a ff		 push	 -1
  00005	68 00 00 00 00	 push	 __ehhandler$?ChangeToNormalAttack@ioTrinityItem@@IAEXPAVioBaseChar@@@Z
  0000a	64 a1 00 00 00
	00		 mov	 eax, DWORD PTR fs:0
  00010	50		 push	 eax
  00011	b8 24 80 00 00	 mov	 eax, 32804		; 00008024H
  00016	e8 00 00 00 00	 call	 __chkstk
  0001b	a1 00 00 00 00	 mov	 eax, DWORD PTR ___security_cookie
  00020	33 c5		 xor	 eax, ebp
  00022	89 45 f0	 mov	 DWORD PTR __$ArrayPad$[ebp], eax
  00025	53		 push	 ebx
  00026	56		 push	 esi
  00027	57		 push	 edi
  00028	50		 push	 eax
  00029	8d 45 f4	 lea	 eax, DWORD PTR __$EHRec$[ebp]
  0002c	64 a3 00 00 00
	00		 mov	 DWORD PTR fs:0, eax
  00032	8b 7d 08	 mov	 edi, DWORD PTR _pOwner$[ebp]
  00035	8b f1		 mov	 esi, ecx

; 350  : 	DWORD dwCurTime = FRAMEGETTIME();

  00037	ff 15 00 00 00
	00		 call	 DWORD PTR __imp_?GetSingleton@ioFrameTimer@@SAAAV1@XZ
  0003d	8b c8		 mov	 ecx, eax
  0003f	ff 15 00 00 00
	00		 call	 DWORD PTR __imp_?GetLoopSec@ioFrameTimer@@QBEKXZ

; 351  : 
; 352  : 	//
; 353  : 	pOwner->SetAttackMoveEnable( false );

  00045	33 db		 xor	 ebx, ebx
  00047	53		 push	 ebx
  00048	8b cf		 mov	 ecx, edi
  0004a	e8 00 00 00 00	 call	 ?SetAttackMoveEnable@ioBaseChar@@QAEX_N@Z ; ioBaseChar::SetAttackMoveEnable

; 354  : 	pOwner->SetChargingState( false );
; 355  : 
; 356  : 	m_fCurChargeRate = 0.0f;

  0004f	0f 57 c0	 xorps	 xmm0, xmm0
  00052	8d 85 d0 7f ff
	ff		 lea	 eax, DWORD PTR _value$555560[ebp]
  00058	50		 push	 eax
  00059	8d 8e 8c 0f 00
	00		 lea	 ecx, DWORD PTR [esi+3980]
  0005f	88 9f 54 20 00
	00		 mov	 BYTE PTR [edi+8276], bl
  00065	f3 0f 11 85 d0
	7f ff ff	 movss	 DWORD PTR _value$555560[ebp], xmm0
  0006d	e8 00 00 00 00	 call	 ?EncryptValueToPool@?$CEncrypt@M@@AAEXPBD@Z ; CEncrypt<float>::EncryptValueToPool

; 357  : 	m_fCurChargeRateForSkill = 0.0f;

  00072	0f 57 c0	 xorps	 xmm0, xmm0
  00075	8d 85 d0 7f ff
	ff		 lea	 eax, DWORD PTR _value$555564[ebp]
  0007b	50		 push	 eax
  0007c	8d 8e bc 0f 00
	00		 lea	 ecx, DWORD PTR [esi+4028]
  00082	f3 0f 11 85 d0
	7f ff ff	 movss	 DWORD PTR _value$555564[ebp], xmm0
  0008a	e8 00 00 00 00	 call	 ?EncryptValueToPool@?$CEncrypt@M@@AAEXPBD@Z ; CEncrypt<float>::EncryptValueToPool

; 358  : 
; 359  : 	const AttackAttribute *pAttribute = m_FormalAttack.GetAttribute( AT_NORMAL, m_iCurCombo );

  0008f	ff b6 8c 19 00
	00		 push	 DWORD PTR [esi+6540]
  00095	8d 8e 2c 06 00
	00		 lea	 ecx, DWORD PTR [esi+1580]
  0009b	53		 push	 ebx
  0009c	e8 00 00 00 00	 call	 ?GetAttribute@ioFormalAttackGrp@@QBEPBUAttackAttribute@@W4AttackType@@H@Z ; ioFormalAttackGrp::GetAttribute
  000a1	89 85 d0 7f ff
	ff		 mov	 DWORD PTR _pAttribute$[ebp], eax

; 360  : 	if( pAttribute )

  000a7	3b c3		 cmp	 eax, ebx
  000a9	74 46		 je	 SHORT $LN4@ChangeToNo

; 361  : 	{
; 362  : 		if( !m_bChargeAutoTarget )

  000ab	8d 85 d7 7f ff
	ff		 lea	 eax, DWORD PTR _value$555568[ebp]
  000b1	50		 push	 eax
  000b2	8d 8e 54 0e 00
	00		 lea	 ecx, DWORD PTR [esi+3668]
  000b8	e8 00 00 00 00	 call	 ?DecryptValueToPool@?$CEncrypt@_N@@QAEXPA_N@Z ; CEncrypt<bool>::DecryptValueToPool
  000bd	38 9d d7 7f ff
	ff		 cmp	 BYTE PTR _value$555568[ebp], bl
  000c3	75 08		 jne	 SHORT $LN3@ChangeToNo

; 363  : 		{
; 364  : 			pOwner->SetAutoTarget( ATT_NORMAL );

  000c5	53		 push	 ebx
  000c6	8b cf		 mov	 ecx, edi
  000c8	e8 00 00 00 00	 call	 ?SetAutoTarget@ioBaseChar@@QAEXW4AutoTargetType@@@Z ; ioBaseChar::SetAutoTarget
$LN3@ChangeToNo:

; 365  : 		}
; 366  : 
; 367  : 		pOwner->SetNormalAttackByAttribute( *pAttribute );

  000cd	f3 0f 10 05 00
	00 00 00	 movss	 xmm0, DWORD PTR __real@3f800000
  000d5	51		 push	 ecx
  000d6	51		 push	 ecx
  000d7	f3 0f 11 44 24
	04		 movss	 DWORD PTR [esp+4], xmm0
  000dd	f3 0f 11 04 24	 movss	 DWORD PTR [esp], xmm0
  000e2	6a 01		 push	 1
  000e4	ff b5 d0 7f ff
	ff		 push	 DWORD PTR _pAttribute$[ebp]
  000ea	8b cf		 mov	 ecx, edi
  000ec	e8 00 00 00 00	 call	 ?SetNormalAttackByAttribute@ioBaseChar@@QAEKABUAttackAttribute@@_NMM@Z ; ioBaseChar::SetNormalAttackByAttribute
$LN4@ChangeToNo:

; 368  : 	}
; 369  : 
; 370  : 	pOwner->ApplyNormalAttackResult( m_iCurCombo );

  000f1	53		 push	 ebx
  000f2	ff b6 8c 19 00
	00		 push	 DWORD PTR [esi+6540]
  000f8	8b cf		 mov	 ecx, edi
  000fa	e8 00 00 00 00	 call	 ?ApplyNormalAttackResult@ioBaseChar@@QAEXH_N@Z ; ioBaseChar::ApplyNormalAttackResult

; 371  : 
; 372  : 	m_ChargeState = CS_NORMAL_ATTACK;

  000ff	c7 86 80 19 00
	00 02 00 00 00	 mov	 DWORD PTR [esi+6528], 2

; 373  : 
; 374  : 	if( pOwner->IsNeedSendNetwork() )

  00109	8b 07		 mov	 eax, DWORD PTR [edi]
  0010b	8b cf		 mov	 ecx, edi
  0010d	ff 90 04 01 00
	00		 call	 DWORD PTR [eax+260]
  00113	84 c0		 test	 al, al
  00115	0f 84 8a 00 00
	00		 je	 $LN2@ChangeToNo

; 375  : 	{
; 376  : 		SP2Packet kPacket( CUPK_ITEM_GAUGE_OK );

  0011b	68 27 41 00 00	 push	 16679			; 00004127H
  00120	8d 8d d8 7f ff
	ff		 lea	 ecx, DWORD PTR _kPacket$550877[ebp]
  00126	e8 00 00 00 00	 call	 ??0SP2Packet@@QAE@K@Z	; SP2Packet::SP2Packet

; 377  : 		FillItemGaugePacketHeader( pOwner, kPacket );

  0012b	8d 85 d8 7f ff
	ff		 lea	 eax, DWORD PTR _kPacket$550877[ebp]
  00131	50		 push	 eax
  00132	57		 push	 edi
  00133	8b ce		 mov	 ecx, esi
  00135	89 5d fc	 mov	 DWORD PTR __$EHRec$[ebp+8], ebx
  00138	e8 00 00 00 00	 call	 ?FillItemGaugePacketHeader@ioAttackableItem@@QAEXPAVioBaseChar@@AAVSP2Packet@@@Z ; ioAttackableItem::FillItemGaugePacketHeader

; 378  : 		kPacket << m_ChargeState;

  0013d	ff b6 80 19 00
	00		 push	 DWORD PTR [esi+6528]
  00143	8d 8d d8 7f ff
	ff		 lea	 ecx, DWORD PTR _kPacket$550877[ebp]
  00149	e8 00 00 00 00	 call	 ??6SP2Packet@@QAEAAV0@H@Z ; SP2Packet::operator<<

; 379  : 		kPacket << m_iCurCombo;

  0014e	ff b6 8c 19 00
	00		 push	 DWORD PTR [esi+6540]
  00154	8d 8d d8 7f ff
	ff		 lea	 ecx, DWORD PTR _kPacket$550877[ebp]
  0015a	e8 00 00 00 00	 call	 ??6SP2Packet@@QAEAAV0@H@Z ; SP2Packet::operator<<

; 380  : 		if( !m_bChargeAutoTarget )

  0015f	8d 85 d7 7f ff
	ff		 lea	 eax, DWORD PTR _value$555572[ebp]
  00165	50		 push	 eax
  00166	8d 8e 54 0e 00
	00		 lea	 ecx, DWORD PTR [esi+3668]
  0016c	e8 00 00 00 00	 call	 ?DecryptValueToPool@?$CEncrypt@_N@@QAEXPA_N@Z ; CEncrypt<bool>::DecryptValueToPool
  00171	38 9d d7 7f ff
	ff		 cmp	 BYTE PTR _value$555572[ebp], bl
  00177	75 0e		 jne	 SHORT $LN1@ChangeToNo

; 381  : 			pOwner->FillAutoTargetInfo( kPacket );

  00179	8d 85 d8 7f ff
	ff		 lea	 eax, DWORD PTR _kPacket$550877[ebp]
  0017f	50		 push	 eax
  00180	8b cf		 mov	 ecx, edi
  00182	e8 00 00 00 00	 call	 ?FillAutoTargetInfo@ioBaseChar@@QAEXAAVSP2Packet@@@Z ; ioBaseChar::FillAutoTargetInfo
$LN1@ChangeToNo:

; 382  : 		P2PNetwork::SendToAllPlayingUser( kPacket );

  00187	8d 85 d8 7f ff
	ff		 lea	 eax, DWORD PTR _kPacket$550877[ebp]
  0018d	53		 push	 ebx
  0018e	50		 push	 eax
  0018f	e8 00 00 00 00	 call	 ?SendToAllPlayingUser@P2PNetwork@@YAXAAVSP2Packet@@PAVioBaseChar@@@Z ; P2PNetwork::SendToAllPlayingUser

; 383  : 	}

  00194	83 4d fc ff	 or	 DWORD PTR __$EHRec$[ebp+8], -1
  00198	59		 pop	 ecx
  00199	59		 pop	 ecx
  0019a	8d 8d d8 7f ff
	ff		 lea	 ecx, DWORD PTR _kPacket$550877[ebp]
  001a0	e8 00 00 00 00	 call	 ??1SP2Packet@@UAE@XZ	; SP2Packet::~SP2Packet
$LN2@ChangeToNo:

; 384  : }

  001a5	8b 4d f4	 mov	 ecx, DWORD PTR __$EHRec$[ebp]
  001a8	64 89 0d 00 00
	00 00		 mov	 DWORD PTR fs:0, ecx
  001af	59		 pop	 ecx
  001b0	5f		 pop	 edi
  001b1	5e		 pop	 esi
  001b2	5b		 pop	 ebx
  001b3	8b 4d f0	 mov	 ecx, DWORD PTR __$ArrayPad$[ebp]
  001b6	33 cd		 xor	 ecx, ebp
  001b8	e8 00 00 00 00	 call	 @__security_check_cookie@4
  001bd	c9		 leave
  001be	c2 04 00	 ret	 4
_TEXT	ENDS
;	COMDAT text$x
text$x	SEGMENT
__unwindfunclet$?ChangeToNormalAttack@ioTrinityItem@@IAEXPAVioBaseChar@@@Z$0:
  00000	8d 8d d8 7f ff
	ff		 lea	 ecx, DWORD PTR _kPacket$550877[ebp]
  00006	e9 00 00 00 00	 jmp	 ??1SP2Packet@@UAE@XZ	; SP2Packet::~SP2Packet
__ehhandler$?ChangeToNormalAttack@ioTrinityItem@@IAEXPAVioBaseChar@@@Z:
  0000b	8b 54 24 08	 mov	 edx, DWORD PTR [esp+8]
  0000f	8d 42 0c	 lea	 eax, DWORD PTR [edx+12]
  00012	8b 8a cc 7f ff
	ff		 mov	 ecx, DWORD PTR [edx-32820]
  00018	33 c8		 xor	 ecx, eax
  0001a	e8 00 00 00 00	 call	 @__security_check_cookie@4
  0001f	8b 4a fc	 mov	 ecx, DWORD PTR [edx-4]
  00022	33 c8		 xor	 ecx, eax
  00024	e8 00 00 00 00	 call	 @__security_check_cookie@4
  00029	b8 00 00 00 00	 mov	 eax, OFFSET __ehfuncinfo$?ChangeToNormalAttack@ioTrinityItem@@IAEXPAVioBaseChar@@@Z
  0002e	e9 00 00 00 00	 jmp	 ___CxxFrameHandler3
text$x	ENDS
?ChangeToNormalAttack@ioTrinityItem@@IAEXPAVioBaseChar@@@Z ENDP ; ioTrinityItem::ChangeToNormalAttack
PUBLIC	__$ArrayPad$
PUBLIC	?ChangeFullChargeAttack@ioTrinityItem@@IAEXPAVioBaseChar@@@Z ; ioTrinityItem::ChangeFullChargeAttack
;	COMDAT xdata$x
; File d:\lost saga for developer\youtube\tutorial\source\src\lsclient\iobasechar.h
xdata$x	SEGMENT
__unwindtable$?ChangeFullChargeAttack@ioTrinityItem@@IAEXPAVioBaseChar@@@Z DD 0ffffffffH
	DD	FLAT:__unwindfunclet$?ChangeFullChargeAttack@ioTrinityItem@@IAEXPAVioBaseChar@@@Z$0
__ehfuncinfo$?ChangeFullChargeAttack@ioTrinityItem@@IAEXPAVioBaseChar@@@Z DD 019930522H
	DD	01H
	DD	FLAT:__unwindtable$?ChangeFullChargeAttack@ioTrinityItem@@IAEXPAVioBaseChar@@@Z
	DD	2 DUP(00H)
	DD	2 DUP(00H)
	DD	00H
	DD	01H
; Function compile flags: /Ogsp
; File d:\lost saga for developer\youtube\tutorial\source\src\lsclient\iotrinityitem.cpp
xdata$x	ENDS
;	COMDAT ?ChangeFullChargeAttack@ioTrinityItem@@IAEXPAVioBaseChar@@@Z
_TEXT	SEGMENT
_iAniID$ = -32824					; size = 4
tv250 = -32820						; size = 4
_fTimeRate$ = -32820					; size = 4
tv247 = -32816						; size = 4
_dwPreDelay$ = -32816					; size = 4
_value$555592 = -32812					; size = 4
_dwCurTime$ = -32812					; size = 4
_kPacket$550892 = -32808				; size = 32792
__$ArrayPad$ = -16					; size = 4
__$EHRec$ = -12						; size = 12
_pOwner$ = 8						; size = 4
?ChangeFullChargeAttack@ioTrinityItem@@IAEXPAVioBaseChar@@@Z PROC ; ioTrinityItem::ChangeFullChargeAttack, COMDAT
; _this$ = ecx

; 387  : {

  00000	55		 push	 ebp
  00001	8b ec		 mov	 ebp, esp
  00003	6a ff		 push	 -1
  00005	68 00 00 00 00	 push	 __ehhandler$?ChangeFullChargeAttack@ioTrinityItem@@IAEXPAVioBaseChar@@@Z
  0000a	64 a1 00 00 00
	00		 mov	 eax, DWORD PTR fs:0
  00010	50		 push	 eax
  00011	b8 2c 80 00 00	 mov	 eax, 32812		; 0000802cH
  00016	e8 00 00 00 00	 call	 __chkstk
  0001b	a1 00 00 00 00	 mov	 eax, DWORD PTR ___security_cookie
  00020	33 c5		 xor	 eax, ebp
  00022	89 45 f0	 mov	 DWORD PTR __$ArrayPad$[ebp], eax
  00025	53		 push	 ebx
  00026	56		 push	 esi
  00027	57		 push	 edi
  00028	50		 push	 eax
  00029	8d 45 f4	 lea	 eax, DWORD PTR __$EHRec$[ebp]
  0002c	64 a3 00 00 00
	00		 mov	 DWORD PTR fs:0, eax
  00032	8b 7d 08	 mov	 edi, DWORD PTR _pOwner$[ebp]
  00035	8b f1		 mov	 esi, ecx

; 388  : 	if( !pOwner ) return;

  00037	85 ff		 test	 edi, edi
  00039	0f 84 c6 01 00
	00		 je	 $LN1@ChangeFull

; 389  : 
; 390  : 	DWORD dwCurTime = FRAMEGETTIME();

  0003f	ff 15 00 00 00
	00		 call	 DWORD PTR __imp_?GetSingleton@ioFrameTimer@@SAAAV1@XZ
  00045	8b c8		 mov	 ecx, eax
  00047	ff 15 00 00 00
	00		 call	 DWORD PTR __imp_?GetLoopSec@ioFrameTimer@@QBEKXZ

; 391  : 
; 392  : 	m_State = TS_SPECIAL_FULL_CHARGE;

  0004d	c7 86 84 19 00
	00 03 00 00 00	 mov	 DWORD PTR [esi+6532], 3

; 393  : 
; 394  : 	//pOwner->SetAutoTarget( ATT_NORMAL );
; 395  : 
; 396  : 	ioEntityGroup *pGrp = pOwner->GetGroup();

  00057	8b 5f 04	 mov	 ebx, DWORD PTR [edi+4]
  0005a	89 85 d4 7f ff
	ff		 mov	 DWORD PTR _dwCurTime$[ebp], eax

; 397  : 	if( !pGrp )

  00060	85 db		 test	 ebx, ebx
  00062	0f 84 9d 01 00
	00		 je	 $LN1@ChangeFull

; 398  : 		return;
; 399  : 
; 400  : 	/*pOwner->InitExtendAttackTagInfo();
; 401  : 
; 402  : 	pGrp->ClearAllLoopAni( FLOAT10, true );
; 403  : 	pGrp->ClearAllActionAni( FLOAT10, true );*/
; 404  : 
; 405  : 	int iAniID	     = pGrp->GetAnimationIdx(m_AttackInfo.m_FullAttack[m_nWeaponIndex].m_AttackAnimation);

  00068	8b 86 00 21 00
	00		 mov	 eax, DWORD PTR [esi+8448]
  0006e	6b c0 50	 imul	 eax, 80			; 00000050H
  00071	8d 84 30 90 19
	00 00		 lea	 eax, DWORD PTR [eax+esi+6544]
  00078	50		 push	 eax
  00079	8b cb		 mov	 ecx, ebx
  0007b	ff 15 00 00 00
	00		 call	 DWORD PTR __imp_?GetAnimationIdx@ioEntityGroup@@QAEHABVioHashString@@@Z
  00081	89 85 c8 7f ff
	ff		 mov	 DWORD PTR _iAniID$[ebp], eax

; 406  : 	float fTimeRate  = m_AttackInfo.m_FullAttack[m_nWeaponIndex].m_fAttackAniRate;

  00087	8b 86 00 21 00
	00		 mov	 eax, DWORD PTR [esi+8448]
  0008d	8d 48 52	 lea	 ecx, DWORD PTR [eax+82]

; 407  : 	
; 408  : 	DWORD dwPreDelay = m_AttackInfo.m_FullAttack[m_nWeaponIndex].m_dwPreDelay;

  00090	6b c0 50	 imul	 eax, 80			; 00000050H
  00093	8b 84 30 d8 19
	00 00		 mov	 eax, DWORD PTR [eax+esi+6616]
  0009a	6b c9 50	 imul	 ecx, 80			; 00000050H

; 409  : 	DWORD dwEndDelay = m_AttackInfo.m_FullAttack[m_nWeaponIndex].m_dwEndDelay;
; 410  : 
; 411  : 	/*pOwner->RefreshFireTimeList( iAniID, m_CurInfo.m_FullAttack[m_nWeaponIndex].m_vWeaponInfoList, FTT_NORMAL_ATTACK, fTimeRate, dwPreDelay );
; 412  : 	pOwner->IncreaseWeaponIndexBase();
; 413  : 
; 414  : 	pGrp->SetActionAni( iAniID, FLOAT100, FLOAT100, FLOAT1, FLOAT1/fTimeRate, 0.0f, 0.0f, true );*/
; 415  : 
; 416  : 	pOwner->SetAutoTarget( ATT_NORMAL );

  0009d	6a 00		 push	 0
  0009f	d9 04 31	 fld	 DWORD PTR [ecx+esi]
  000a2	8b cf		 mov	 ecx, edi
  000a4	d9 9d cc 7f ff
	ff		 fstp	 DWORD PTR _fTimeRate$[ebp]
  000aa	89 85 d0 7f ff
	ff		 mov	 DWORD PTR _dwPreDelay$[ebp], eax
  000b0	e8 00 00 00 00	 call	 ?SetAutoTarget@ioBaseChar@@QAEXW4AutoTargetType@@@Z ; ioBaseChar::SetAutoTarget

; 417  : 
; 418  : 	pOwner->SetNormalAttackByAttribute( m_AttackInfo.m_FullAttack[m_nWeaponIndex] );

  000b5	8b 86 00 21 00
	00		 mov	 eax, DWORD PTR [esi+8448]
  000bb	f3 0f 10 05 00
	00 00 00	 movss	 xmm0, DWORD PTR __real@3f800000
  000c3	6b c0 50	 imul	 eax, 80			; 00000050H
  000c6	51		 push	 ecx
  000c7	51		 push	 ecx
  000c8	f3 0f 11 44 24
	04		 movss	 DWORD PTR [esp+4], xmm0
  000ce	f3 0f 11 04 24	 movss	 DWORD PTR [esp], xmm0
  000d3	6a 01		 push	 1
  000d5	8d 84 30 90 19
	00 00		 lea	 eax, DWORD PTR [eax+esi+6544]
  000dc	50		 push	 eax
  000dd	8b cf		 mov	 ecx, edi
  000df	e8 00 00 00 00	 call	 ?SetNormalAttackByAttribute@ioBaseChar@@QAEKABUAttackAttribute@@_NMM@Z ; ioBaseChar::SetNormalAttackByAttribute

; 419  : 
; 420  : 	EraseEntityAndEffect(pOwner);

  000e4	57		 push	 edi
  000e5	8b ce		 mov	 ecx, esi
  000e7	e8 00 00 00 00	 call	 ?EraseEntityAndEffect@ioTrinityItem@@QAEXPAVioBaseChar@@@Z ; ioTrinityItem::EraseEntityAndEffect

; 421  : 	AddEntityAndEffect( pOwner );

  000ec	6a 00		 push	 0
  000ee	57		 push	 edi
  000ef	8b ce		 mov	 ecx, esi
  000f1	e8 00 00 00 00	 call	 ?AddEntityAndEffect@ioTrinityItem@@QAEXPAVioBaseChar@@_N@Z ; ioTrinityItem::AddEntityAndEffect

; 422  : 
; 423  : 
; 424  : 	m_dwMotionEndTime = dwCurTime + pGrp->GetAnimationFullTime( iAniID ) * fTimeRate  + dwPreDelay;

  000f6	ff b5 c8 7f ff
	ff		 push	 DWORD PTR _iAniID$[ebp]
  000fc	8b cb		 mov	 ecx, ebx
  000fe	ff 15 00 00 00
	00		 call	 DWORD PTR __imp_?GetAnimationFullTime@ioEntityGroup@@QAEMH@Z
  00104	d8 8d cc 7f ff
	ff		 fmul	 DWORD PTR _fTimeRate$[ebp]
  0010a	8b 85 d4 7f ff
	ff		 mov	 eax, DWORD PTR _dwCurTime$[ebp]
  00110	db 85 d4 7f ff
	ff		 fild	 DWORD PTR _dwCurTime$[ebp]
  00116	85 c0		 test	 eax, eax
  00118	79 06		 jns	 SHORT $LN14@ChangeFull
  0011a	d8 05 00 00 00
	00		 fadd	 DWORD PTR __real@4f800000
$LN14@ChangeFull:
  00120	8b 85 d0 7f ff
	ff		 mov	 eax, DWORD PTR _dwPreDelay$[ebp]
  00126	de c1		 faddp	 ST(1), ST(0)
  00128	db 85 d0 7f ff
	ff		 fild	 DWORD PTR _dwPreDelay$[ebp]
  0012e	85 c0		 test	 eax, eax
  00130	79 06		 jns	 SHORT $LN15@ChangeFull
  00132	d8 05 00 00 00
	00		 fadd	 DWORD PTR __real@4f800000
$LN15@ChangeFull:
  00138	de c1		 faddp	 ST(1), ST(0)
  0013a	e8 00 00 00 00	 call	 __ftol2
  0013f	89 86 fc 20 00
	00		 mov	 DWORD PTR [esi+8444], eax

; 425  : 
; 426  : 
; 427  : 	if( pOwner->IsNeedProcess() )

  00145	8b 07		 mov	 eax, DWORD PTR [edi]
  00147	8b cf		 mov	 ecx, edi
  00149	ff 90 00 01 00
	00		 call	 DWORD PTR [eax+256]
  0014f	84 c0		 test	 al, al
  00151	0f 84 ae 00 00
	00		 je	 $LN1@ChangeFull

; 428  : 	{
; 429  : 		m_fCurGauge = 0;

  00157	0f 57 c0	 xorps	 xmm0, xmm0
  0015a	8d 85 d4 7f ff
	ff		 lea	 eax, DWORD PTR _value$555592[ebp]
  00160	8d 9e 9c 20 00
	00		 lea	 ebx, DWORD PTR [esi+8348]
  00166	50		 push	 eax
  00167	8b cb		 mov	 ecx, ebx
  00169	f3 0f 11 85 d4
	7f ff ff	 movss	 DWORD PTR _value$555592[ebp], xmm0
  00171	e8 00 00 00 00	 call	 ?EncryptValueToPool@?$CEncrypt@M@@AAEXPBD@Z ; CEncrypt<float>::EncryptValueToPool

; 430  : 
; 431  : 		SP2Packet kPacket( CUPK_ITEM_GAUGE_CANCEL );

  00176	68 28 41 00 00	 push	 16680			; 00004128H
  0017b	8d 8d d8 7f ff
	ff		 lea	 ecx, DWORD PTR _kPacket$550892[ebp]
  00181	e8 00 00 00 00	 call	 ??0SP2Packet@@QAE@K@Z	; SP2Packet::SP2Packet
  00186	83 65 fc 00	 and	 DWORD PTR __$EHRec$[ebp+8], 0

; 432  : 		FillItemGaugePacketHeader( pOwner, kPacket );

  0018a	8d 85 d8 7f ff
	ff		 lea	 eax, DWORD PTR _kPacket$550892[ebp]
  00190	50		 push	 eax
  00191	57		 push	 edi
  00192	8b ce		 mov	 ecx, esi
  00194	e8 00 00 00 00	 call	 ?FillItemGaugePacketHeader@ioAttackableItem@@QAEXPAVioBaseChar@@AAVSP2Packet@@@Z ; ioAttackableItem::FillItemGaugePacketHeader

; 433  : 		kPacket << SST_CHARGE_FIRE;

  00199	6a 04		 push	 4
  0019b	8d 8d d8 7f ff
	ff		 lea	 ecx, DWORD PTR _kPacket$550892[ebp]
  001a1	e8 00 00 00 00	 call	 ??6SP2Packet@@QAEAAV0@H@Z ; SP2Packet::operator<<

; 434  : 		kPacket << m_State;

  001a6	ff b6 84 19 00
	00		 push	 DWORD PTR [esi+6532]
  001ac	8d 8d d8 7f ff
	ff		 lea	 ecx, DWORD PTR _kPacket$550892[ebp]
  001b2	e8 00 00 00 00	 call	 ??6SP2Packet@@QAEAAV0@H@Z ; SP2Packet::operator<<

; 435  : 		kPacket << pOwner->GetTargetRot();

  001b7	81 c7 a4 06 00
	00		 add	 edi, 1700		; 000006a4H
  001bd	57		 push	 edi
  001be	8d 8d d8 7f ff
	ff		 lea	 ecx, DWORD PTR _kPacket$550892[ebp]
  001c4	e8 00 00 00 00	 call	 ??6SP2Packet@@QAEAAV0@ABUD3DXQUATERNION@@@Z ; SP2Packet::operator<<

; 436  : 		kPacket << m_fCurGauge;

  001c9	53		 push	 ebx
  001ca	8d 8d d8 7f ff
	ff		 lea	 ecx, DWORD PTR _kPacket$550892[ebp]
  001d0	e8 00 00 00 00	 call	 ??6SP2Packet@@QAEAAV0@AAV?$CEncrypt@M@@@Z ; SP2Packet::operator<<

; 437  : 		kPacket << m_nWeaponIndex;

  001d5	ff b6 00 21 00
	00		 push	 DWORD PTR [esi+8448]
  001db	8d 8d d8 7f ff
	ff		 lea	 ecx, DWORD PTR _kPacket$550892[ebp]
  001e1	e8 00 00 00 00	 call	 ??6SP2Packet@@QAEAAV0@H@Z ; SP2Packet::operator<<

; 438  : 		P2PNetwork::SendToAllPlayingUser( kPacket );

  001e6	8d 85 d8 7f ff
	ff		 lea	 eax, DWORD PTR _kPacket$550892[ebp]
  001ec	6a 00		 push	 0
  001ee	50		 push	 eax
  001ef	e8 00 00 00 00	 call	 ?SendToAllPlayingUser@P2PNetwork@@YAXAAVSP2Packet@@PAVioBaseChar@@@Z ; P2PNetwork::SendToAllPlayingUser

; 439  : 	}

  001f4	83 4d fc ff	 or	 DWORD PTR __$EHRec$[ebp+8], -1
  001f8	59		 pop	 ecx
  001f9	59		 pop	 ecx
  001fa	8d 8d d8 7f ff
	ff		 lea	 ecx, DWORD PTR _kPacket$550892[ebp]
  00200	e8 00 00 00 00	 call	 ??1SP2Packet@@UAE@XZ	; SP2Packet::~SP2Packet
$LN1@ChangeFull:

; 440  : }

  00205	8b 4d f4	 mov	 ecx, DWORD PTR __$EHRec$[ebp]
  00208	64 89 0d 00 00
	00 00		 mov	 DWORD PTR fs:0, ecx
  0020f	59		 pop	 ecx
  00210	5f		 pop	 edi
  00211	5e		 pop	 esi
  00212	5b		 pop	 ebx
  00213	8b 4d f0	 mov	 ecx, DWORD PTR __$ArrayPad$[ebp]
  00216	33 cd		 xor	 ecx, ebp
  00218	e8 00 00 00 00	 call	 @__security_check_cookie@4
  0021d	c9		 leave
  0021e	c2 04 00	 ret	 4
_TEXT	ENDS
;	COMDAT text$x
text$x	SEGMENT
__unwindfunclet$?ChangeFullChargeAttack@ioTrinityItem@@IAEXPAVioBaseChar@@@Z$0:
  00000	8d 8d d8 7f ff
	ff		 lea	 ecx, DWORD PTR _kPacket$550892[ebp]
  00006	e9 00 00 00 00	 jmp	 ??1SP2Packet@@UAE@XZ	; SP2Packet::~SP2Packet
__ehhandler$?ChangeFullChargeAttack@ioTrinityItem@@IAEXPAVioBaseChar@@@Z:
  0000b	8b 54 24 08	 mov	 edx, DWORD PTR [esp+8]
  0000f	8d 42 0c	 lea	 eax, DWORD PTR [edx+12]
  00012	8b 8a c4 7f ff
	ff		 mov	 ecx, DWORD PTR [edx-32828]
  00018	33 c8		 xor	 ecx, eax
  0001a	e8 00 00 00 00	 call	 @__security_check_cookie@4
  0001f	8b 4a fc	 mov	 ecx, DWORD PTR [edx-4]
  00022	33 c8		 xor	 ecx, eax
  00024	e8 00 00 00 00	 call	 @__security_check_cookie@4
  00029	b8 00 00 00 00	 mov	 eax, OFFSET __ehfuncinfo$?ChangeFullChargeAttack@ioTrinityItem@@IAEXPAVioBaseChar@@@Z
  0002e	e9 00 00 00 00	 jmp	 ___CxxFrameHandler3
text$x	ENDS
?ChangeFullChargeAttack@ioTrinityItem@@IAEXPAVioBaseChar@@@Z ENDP ; ioTrinityItem::ChangeFullChargeAttack
PUBLIC	?OnItemGaugeOK@ioTrinityItem@@UAEXPAVioBaseChar@@AAVSP2Packet@@@Z ; ioTrinityItem::OnItemGaugeOK
EXTRN	?ApplyAutoTargetInfo@ioBaseChar@@QAEXAAVSP2Packet@@@Z:PROC ; ioBaseChar::ApplyAutoTargetInfo
EXTRN	??5SP2Packet@@QAEAAV0@AAH@Z:PROC		; SP2Packet::operator>>
; Function compile flags: /Ogsp
;	COMDAT ?OnItemGaugeOK@ioTrinityItem@@UAEXPAVioBaseChar@@AAVSP2Packet@@@Z
_TEXT	SEGMENT
_iState$ = -8						; size = 4
_value$555615 = -1					; size = 1
_pOwner$ = 8						; size = 4
_rkPacket$ = 12						; size = 4
?OnItemGaugeOK@ioTrinityItem@@UAEXPAVioBaseChar@@AAVSP2Packet@@@Z PROC ; ioTrinityItem::OnItemGaugeOK, COMDAT
; _this$ = ecx

; 582  : {

  00000	55		 push	 ebp
  00001	8b ec		 mov	 ebp, esp
  00003	51		 push	 ecx
  00004	51		 push	 ecx
  00005	53		 push	 ebx
  00006	56		 push	 esi

; 583  : 	int iState;
; 584  : 	rkPacket >> iState;

  00007	8d 45 f8	 lea	 eax, DWORD PTR _iState$[ebp]
  0000a	8b f1		 mov	 esi, ecx
  0000c	8b 4d 0c	 mov	 ecx, DWORD PTR _rkPacket$[ebp]
  0000f	50		 push	 eax
  00010	e8 00 00 00 00	 call	 ??5SP2Packet@@QAEAAV0@AAH@Z ; SP2Packet::operator>>

; 585  : 	rkPacket >> m_iCurCombo;

  00015	8b 4d 0c	 mov	 ecx, DWORD PTR _rkPacket$[ebp]
  00018	8d 86 8c 19 00
	00		 lea	 eax, DWORD PTR [esi+6540]
  0001e	50		 push	 eax
  0001f	e8 00 00 00 00	 call	 ??5SP2Packet@@QAEAAV0@AAH@Z ; SP2Packet::operator>>

; 586  : 
; 587  : 	switch( iState )

  00024	8b 45 f8	 mov	 eax, DWORD PTR _iState$[ebp]
  00027	33 db		 xor	 ebx, ebx
  00029	2b c3		 sub	 eax, ebx
  0002b	74 2f		 je	 SHORT $LN3@OnItemGaug
  0002d	48		 dec	 eax
  0002e	48		 dec	 eax
  0002f	75 44		 jne	 SHORT $LN4@OnItemGaug

; 594  : 		break;
; 595  : 	case CS_NORMAL_ATTACK:
; 596  : 		if( !m_bChargeAutoTarget )

  00031	8d 45 ff	 lea	 eax, DWORD PTR _value$555615[ebp]
  00034	50		 push	 eax
  00035	8d 8e 54 0e 00
	00		 lea	 ecx, DWORD PTR [esi+3668]
  0003b	e8 00 00 00 00	 call	 ?DecryptValueToPool@?$CEncrypt@_N@@QAEXPA_N@Z ; CEncrypt<bool>::DecryptValueToPool
  00040	38 5d ff	 cmp	 BYTE PTR _value$555615[ebp], bl
  00043	75 0b		 jne	 SHORT $LN1@OnItemGaug

; 597  : 			pOwner->ApplyAutoTargetInfo( rkPacket );

  00045	ff 75 0c	 push	 DWORD PTR _rkPacket$[ebp]
  00048	8b 4d 08	 mov	 ecx, DWORD PTR _pOwner$[ebp]
  0004b	e8 00 00 00 00	 call	 ?ApplyAutoTargetInfo@ioBaseChar@@QAEXAAVSP2Packet@@@Z ; ioBaseChar::ApplyAutoTargetInfo
$LN1@OnItemGaug:

; 598  : 		ChangeToNormalAttack( pOwner );

  00050	ff 75 08	 push	 DWORD PTR _pOwner$[ebp]
  00053	8b ce		 mov	 ecx, esi
  00055	e8 00 00 00 00	 call	 ?ChangeToNormalAttack@ioTrinityItem@@IAEXPAVioBaseChar@@@Z ; ioTrinityItem::ChangeToNormalAttack

; 599  : 		break;

  0005a	eb 19		 jmp	 SHORT $LN4@OnItemGaug
$LN3@OnItemGaug:
  0005c	57		 push	 edi

; 588  : 	{
; 589  : 	case CS_NONE:
; 590  : 		pOwner->SetAttackMoveEnable( false );

  0005d	8b 7d 08	 mov	 edi, DWORD PTR _pOwner$[ebp]
  00060	53		 push	 ebx
  00061	8b cf		 mov	 ecx, edi
  00063	e8 00 00 00 00	 call	 ?SetAttackMoveEnable@ioBaseChar@@QAEX_N@Z ; ioBaseChar::SetAttackMoveEnable

; 591  : 		pOwner->SetChargingState( false );

  00068	88 9f 54 20 00
	00		 mov	 BYTE PTR [edi+8276], bl

; 592  : 
; 593  : 		m_ChargeState = CS_NONE;

  0006e	89 9e 80 19 00
	00		 mov	 DWORD PTR [esi+6528], ebx
  00074	5f		 pop	 edi
$LN4@OnItemGaug:
  00075	5e		 pop	 esi
  00076	5b		 pop	 ebx

; 600  : 	}
; 601  : }

  00077	c9		 leave
  00078	c2 08 00	 ret	 8
?OnItemGaugeOK@ioTrinityItem@@UAEXPAVioBaseChar@@AAVSP2Packet@@@Z ENDP ; ioTrinityItem::OnItemGaugeOK
_TEXT	ENDS
PUBLIC	?OnEndExtendAttack@ioTrinityItem@@UAEXPAVioBaseChar@@_N@Z ; ioTrinityItem::OnEndExtendAttack
EXTRN	?ClearDirDoubleClick@ioBaseChar@@QAEXXZ:PROC	; ioBaseChar::ClearDirDoubleClick
; Function compile flags: /Ogsp
;	COMDAT ?OnEndExtendAttack@ioTrinityItem@@UAEXPAVioBaseChar@@_N@Z
_TEXT	SEGMENT
_value$555624 = 8					; size = 4
_pOwner$ = 8						; size = 4
_bReleaseItem$ = 12					; size = 1
?OnEndExtendAttack@ioTrinityItem@@UAEXPAVioBaseChar@@_N@Z PROC ; ioTrinityItem::OnEndExtendAttack, COMDAT
; _this$ = ecx

; 702  : {

  00000	55		 push	 ebp
  00001	8b ec		 mov	 ebp, esp
  00003	56		 push	 esi
  00004	57		 push	 edi

; 703  : 	m_ChargeState = CS_NONE;
; 704  : 
; 705  : 	pOwner->SetAttackMoveEnable( false );

  00005	8b 7d 08	 mov	 edi, DWORD PTR _pOwner$[ebp]
  00008	8b f1		 mov	 esi, ecx
  0000a	83 a6 80 19 00
	00 00		 and	 DWORD PTR [esi+6528], 0
  00011	6a 00		 push	 0
  00013	8b cf		 mov	 ecx, edi
  00015	e8 00 00 00 00	 call	 ?SetAttackMoveEnable@ioBaseChar@@QAEX_N@Z ; ioBaseChar::SetAttackMoveEnable

; 706  : 	pOwner->SetChargingState( false );
; 707  : 
; 708  : 	pOwner->ClearDirDoubleClick();

  0001a	8b cf		 mov	 ecx, edi
  0001c	c6 87 54 20 00
	00 00		 mov	 BYTE PTR [edi+8276], 0
  00023	e8 00 00 00 00	 call	 ?ClearDirDoubleClick@ioBaseChar@@QAEXXZ ; ioBaseChar::ClearDirDoubleClick

; 709  : 
; 710  : 	m_fCurChargeRate = 0.0f;

  00028	0f 57 c0	 xorps	 xmm0, xmm0
  0002b	8d 45 08	 lea	 eax, DWORD PTR _value$555624[ebp]
  0002e	50		 push	 eax
  0002f	8d 8e 8c 0f 00
	00		 lea	 ecx, DWORD PTR [esi+3980]
  00035	f3 0f 11 45 08	 movss	 DWORD PTR _value$555624[ebp], xmm0
  0003a	e8 00 00 00 00	 call	 ?EncryptValueToPool@?$CEncrypt@M@@AAEXPBD@Z ; CEncrypt<float>::EncryptValueToPool
  0003f	5f		 pop	 edi
  00040	5e		 pop	 esi

; 711  : }

  00041	5d		 pop	 ebp
  00042	c2 08 00	 ret	 8
?OnEndExtendAttack@ioTrinityItem@@UAEXPAVioBaseChar@@_N@Z ENDP ; ioTrinityItem::OnEndExtendAttack
_TEXT	ENDS
PUBLIC	?IsChargeAutoTarget@ioTrinityItem@@IAE_NPAVioBaseChar@@@Z ; ioTrinityItem::IsChargeAutoTarget
; Function compile flags: /Ogsp
;	COMDAT ?IsChargeAutoTarget@ioTrinityItem@@IAE_NPAVioBaseChar@@@Z
_TEXT	SEGMENT
$T555629 = 8						; size = 4
$T555628 = 8						; size = 4
$T555627 = 8						; size = 4
_pOwner$ = 8						; size = 4
?IsChargeAutoTarget@ioTrinityItem@@IAE_NPAVioBaseChar@@@Z PROC ; ioTrinityItem::IsChargeAutoTarget, COMDAT
; _this$ = ecx

; 714  : {

  00000	55		 push	 ebp
  00001	8b ec		 mov	 ebp, esp

; 715  : 	if( !pOwner )

  00003	8b 45 08	 mov	 eax, DWORD PTR _pOwner$[ebp]
  00006	56		 push	 esi
  00007	8b f1		 mov	 esi, ecx
  00009	85 c0		 test	 eax, eax

; 716  : 		return false;

  0000b	74 5e		 je	 SHORT $LN1@IsChargeAu

; 717  : 
; 718  : 	if( pOwner->GetState() != CS_ATTACK )

  0000d	80 b8 10 03 00
	00 05		 cmp	 BYTE PTR [eax+784], 5

; 719  : 		return false;

  00014	75 55		 jne	 SHORT $LN1@IsChargeAu

; 720  : 
; 721  : 	if( m_fCurChargeRate == 0.0f )

  00016	0f 57 c0	 xorps	 xmm0, xmm0
  00019	8d 45 08	 lea	 eax, DWORD PTR $T555627[ebp]
  0001c	50		 push	 eax
  0001d	8d 8e 8c 0f 00
	00		 lea	 ecx, DWORD PTR [esi+3980]
  00023	f3 0f 11 45 08	 movss	 DWORD PTR $T555627[ebp], xmm0
  00028	e8 00 00 00 00	 call	 ??8?$CEncrypt@M@@QAE_NABM@Z ; CEncrypt<float>::operator==
  0002d	84 c0		 test	 al, al

; 722  : 		return false;

  0002f	75 3a		 jne	 SHORT $LN1@IsChargeAu

; 723  : 
; 724  : 	if( m_fMaxTargetRangeRate == 0.0f || m_fMaxTargetAngleRate == 0.0f )

  00031	0f 57 c0	 xorps	 xmm0, xmm0
  00034	8d 45 08	 lea	 eax, DWORD PTR $T555628[ebp]
  00037	50		 push	 eax
  00038	8d 8e 3c 11 00
	00		 lea	 ecx, DWORD PTR [esi+4412]
  0003e	f3 0f 11 45 08	 movss	 DWORD PTR $T555628[ebp], xmm0
  00043	e8 00 00 00 00	 call	 ??8?$CEncrypt@M@@QAE_NABM@Z ; CEncrypt<float>::operator==
  00048	84 c0		 test	 al, al
  0004a	75 1f		 jne	 SHORT $LN1@IsChargeAu
  0004c	0f 57 c0	 xorps	 xmm0, xmm0
  0004f	8d 45 08	 lea	 eax, DWORD PTR $T555629[ebp]
  00052	50		 push	 eax
  00053	8d 8e 6c 11 00
	00		 lea	 ecx, DWORD PTR [esi+4460]
  00059	f3 0f 11 45 08	 movss	 DWORD PTR $T555629[ebp], xmm0
  0005e	e8 00 00 00 00	 call	 ??8?$CEncrypt@M@@QAE_NABM@Z ; CEncrypt<float>::operator==
  00063	84 c0		 test	 al, al
  00065	75 04		 jne	 SHORT $LN1@IsChargeAu

; 726  : 
; 727  : 	return true;

  00067	fe c0		 inc	 al
  00069	eb 02		 jmp	 SHORT $LN6@IsChargeAu
$LN1@IsChargeAu:

; 725  : 		return false;

  0006b	32 c0		 xor	 al, al
$LN6@IsChargeAu:
  0006d	5e		 pop	 esi

; 728  : }

  0006e	5d		 pop	 ebp
  0006f	c2 04 00	 ret	 4
?IsChargeAutoTarget@ioTrinityItem@@IAE_NPAVioBaseChar@@@Z ENDP ; ioTrinityItem::IsChargeAutoTarget
_TEXT	ENDS
PUBLIC	__real@00000000
PUBLIC	__real@0000000000000000
PUBLIC	?GetAutoTargetValue@ioTrinityItem@@UAEXPAVioBaseChar@@AAM11W4AutoTargetType@@@Z ; ioTrinityItem::GetAutoTargetValue
;	COMDAT __real@00000000
; File d:\lost saga for developer\youtube\tutorial\source\src\lsclient\encryptvalue.h
CONST	SEGMENT
__real@00000000 DD 000000000r			; 0
CONST	ENDS
;	COMDAT __real@0000000000000000
CONST	SEGMENT
__real@0000000000000000 DQ 00000000000000000r	; 0
; Function compile flags: /Ogsp
; File d:\lost saga for developer\youtube\tutorial\source\src\lsclient\iotrinityitem.cpp
CONST	ENDS
;	COMDAT ?GetAutoTargetValue@ioTrinityItem@@UAEXPAVioBaseChar@@AAM11W4AutoTargetType@@@Z
_TEXT	SEGMENT
_fCurTargetRangeRate$551036 = -16			; size = 4
_value$555683 = -12					; size = 4
_value$555687 = -8					; size = 4
_fCurMaxTargetRange$551039 = -4				; size = 4
tv488 = 8						; size = 4
tv481 = 8						; size = 4
tv476 = 8						; size = 4
tv463 = 8						; size = 4
tv459 = 8						; size = 4
tv453 = 8						; size = 4
tv449 = 8						; size = 4
tv437 = 8						; size = 4
tv433 = 8						; size = 4
_value$555678 = 8					; size = 4
_value$555670 = 8					; size = 4
_value$555662 = 8					; size = 4
_value$555654 = 8					; size = 4
_fCurMaxTargetAngle$551044 = 8				; size = 4
_pOwner$ = 8						; size = 4
_fRange$ = 12						; size = 4
_fMinAngle$ = 16					; size = 4
_fMaxAngle$ = 20					; size = 4
_fCurTargetAngleRate$551037 = 24			; size = 4
_eType$ = 24						; size = 4
?GetAutoTargetValue@ioTrinityItem@@UAEXPAVioBaseChar@@AAM11W4AutoTargetType@@@Z PROC ; ioTrinityItem::GetAutoTargetValue, COMDAT
; _this$ = ecx

; 733  : {

  00000	55		 push	 ebp
  00001	8b ec		 mov	 ebp, esp
  00003	83 ec 10	 sub	 esp, 16			; 00000010H
  00006	56		 push	 esi

; 734  : 	if( IsChargeAutoTarget(pOwner) )

  00007	ff 75 08	 push	 DWORD PTR _pOwner$[ebp]
  0000a	8b f1		 mov	 esi, ecx
  0000c	e8 00 00 00 00	 call	 ?IsChargeAutoTarget@ioTrinityItem@@IAE_NPAVioBaseChar@@@Z ; ioTrinityItem::IsChargeAutoTarget
  00011	84 c0		 test	 al, al
  00013	0f 84 d8 01 00
	00		 je	 $LN11@GetAutoTar

; 735  : 	{
; 736  : 		float fCurTargetRangeRate, fCurTargetAngleRate;
; 737  : 		fCurTargetRangeRate = fCurTargetAngleRate = FLOAT1;

  00019	53		 push	 ebx
  0001a	57		 push	 edi
  0001b	b8 01 00 00 00	 mov	 eax, 1
  00020	89 45 08	 mov	 DWORD PTR tv488[ebp], eax
  00023	db 45 08	 fild	 DWORD PTR tv488[ebp]
  00026	85 c0		 test	 eax, eax
  00028	79 06		 jns	 SHORT $LN40@GetAutoTar
  0002a	d8 05 00 00 00
	00		 fadd	 DWORD PTR __real@4f800000
$LN40@GetAutoTar:
  00030	d9 5d 18	 fstp	 DWORD PTR _fCurTargetAngleRate$551037[ebp]
  00033	d9 45 18	 fld	 DWORD PTR _fCurTargetAngleRate$551037[ebp]
  00036	d9 5d f0	 fstp	 DWORD PTR _fCurTargetRangeRate$551036[ebp]

; 738  : 
; 739  : 		float fCurMaxTargetRange = max( 0.0f, (m_fMaxTargetRangeRate - FLOAT1) );

  00039	b8 01 00 00 00	 mov	 eax, 1
  0003e	8b d8		 mov	 ebx, eax
  00040	8d 45 08	 lea	 eax, DWORD PTR _value$555654[ebp]
  00043	50		 push	 eax
  00044	8d 8e 3c 11 00
	00		 lea	 ecx, DWORD PTR [esi+4412]
  0004a	e8 00 00 00 00	 call	 ?DecryptValueToPool@?$CEncrypt@M@@QAEXPAM@Z ; CEncrypt<float>::DecryptValueToPool
  0004f	d9 45 08	 fld	 DWORD PTR _value$555654[ebp]
  00052	89 5d 08	 mov	 DWORD PTR tv481[ebp], ebx
  00055	db 45 08	 fild	 DWORD PTR tv481[ebp]
  00058	85 db		 test	 ebx, ebx
  0005a	79 06		 jns	 SHORT $LN41@GetAutoTar
  0005c	d8 05 00 00 00
	00		 fadd	 DWORD PTR __real@4f800000
$LN41@GetAutoTar:
  00062	de e9		 fsubp	 ST(1), ST(0)
  00064	d9 5d 08	 fstp	 DWORD PTR tv476[ebp]
  00067	d9 45 08	 fld	 DWORD PTR tv476[ebp]
  0006a	d9 ee		 fldz
  0006c	df f1		 fcomip	 ST(1)
  0006e	dd d8		 fstp	 ST(0)
  00070	76 0a		 jbe	 SHORT $LN14@GetAutoTar
  00072	0f 57 c0	 xorps	 xmm0, xmm0
  00075	f3 0f 11 45 fc	 movss	 DWORD PTR _fCurMaxTargetRange$551039[ebp], xmm0
  0007a	eb 34		 jmp	 SHORT $LN15@GetAutoTar
$LN14@GetAutoTar:
  0007c	b8 01 00 00 00	 mov	 eax, 1
  00081	8b d8		 mov	 ebx, eax
  00083	8d 45 08	 lea	 eax, DWORD PTR _value$555662[ebp]
  00086	50		 push	 eax
  00087	8d 8e 3c 11 00
	00		 lea	 ecx, DWORD PTR [esi+4412]
  0008d	e8 00 00 00 00	 call	 ?DecryptValueToPool@?$CEncrypt@M@@QAEXPAM@Z ; CEncrypt<float>::DecryptValueToPool
  00092	d9 45 08	 fld	 DWORD PTR _value$555662[ebp]
  00095	89 5d 08	 mov	 DWORD PTR tv463[ebp], ebx
  00098	db 45 08	 fild	 DWORD PTR tv463[ebp]
  0009b	85 db		 test	 ebx, ebx
  0009d	79 06		 jns	 SHORT $LN42@GetAutoTar
  0009f	d8 05 00 00 00
	00		 fadd	 DWORD PTR __real@4f800000
$LN42@GetAutoTar:
  000a5	de e9		 fsubp	 ST(1), ST(0)
  000a7	d9 5d 08	 fstp	 DWORD PTR tv459[ebp]
  000aa	d9 45 08	 fld	 DWORD PTR tv459[ebp]
  000ad	d9 5d fc	 fstp	 DWORD PTR _fCurMaxTargetRange$551039[ebp]
$LN15@GetAutoTar:

; 740  : 		float fCurMaxTargetAngle = max( 0.0f, (m_fMaxTargetAngleRate - FLOAT1) );

  000b0	b8 01 00 00 00	 mov	 eax, 1
  000b5	8b d8		 mov	 ebx, eax
  000b7	8d 45 08	 lea	 eax, DWORD PTR _value$555670[ebp]
  000ba	50		 push	 eax
  000bb	8d 8e 6c 11 00
	00		 lea	 ecx, DWORD PTR [esi+4460]
  000c1	e8 00 00 00 00	 call	 ?DecryptValueToPool@?$CEncrypt@M@@QAEXPAM@Z ; CEncrypt<float>::DecryptValueToPool
  000c6	d9 45 08	 fld	 DWORD PTR _value$555670[ebp]
  000c9	89 5d 08	 mov	 DWORD PTR tv453[ebp], ebx
  000cc	db 45 08	 fild	 DWORD PTR tv453[ebp]
  000cf	85 db		 test	 ebx, ebx
  000d1	79 06		 jns	 SHORT $LN43@GetAutoTar
  000d3	d8 05 00 00 00
	00		 fadd	 DWORD PTR __real@4f800000
$LN43@GetAutoTar:
  000d9	de e9		 fsubp	 ST(1), ST(0)
  000db	d9 5d 08	 fstp	 DWORD PTR tv449[ebp]
  000de	d9 45 08	 fld	 DWORD PTR tv449[ebp]
  000e1	d9 ee		 fldz
  000e3	df f1		 fcomip	 ST(1)
  000e5	dd d8		 fstp	 ST(0)
  000e7	76 0a		 jbe	 SHORT $LN16@GetAutoTar
  000e9	0f 57 c0	 xorps	 xmm0, xmm0
  000ec	f3 0f 11 45 08	 movss	 DWORD PTR _fCurMaxTargetAngle$551044[ebp], xmm0
  000f1	eb 34		 jmp	 SHORT $LN17@GetAutoTar
$LN16@GetAutoTar:
  000f3	b8 01 00 00 00	 mov	 eax, 1
  000f8	8b d8		 mov	 ebx, eax
  000fa	8d 45 08	 lea	 eax, DWORD PTR _value$555678[ebp]
  000fd	50		 push	 eax
  000fe	8d 8e 6c 11 00
	00		 lea	 ecx, DWORD PTR [esi+4460]
  00104	e8 00 00 00 00	 call	 ?DecryptValueToPool@?$CEncrypt@M@@QAEXPAM@Z ; CEncrypt<float>::DecryptValueToPool
  00109	d9 45 08	 fld	 DWORD PTR _value$555678[ebp]
  0010c	89 5d 08	 mov	 DWORD PTR tv437[ebp], ebx
  0010f	db 45 08	 fild	 DWORD PTR tv437[ebp]
  00112	85 db		 test	 ebx, ebx
  00114	79 06		 jns	 SHORT $LN44@GetAutoTar
  00116	d8 05 00 00 00
	00		 fadd	 DWORD PTR __real@4f800000
$LN44@GetAutoTar:
  0011c	de e9		 fsubp	 ST(1), ST(0)
  0011e	d9 5d 08	 fstp	 DWORD PTR tv433[ebp]
  00121	d9 45 08	 fld	 DWORD PTR tv433[ebp]
  00124	d9 5d 08	 fstp	 DWORD PTR _fCurMaxTargetAngle$551044[ebp]
$LN17@GetAutoTar:

; 741  : 
; 742  : 		fCurTargetRangeRate += fCurMaxTargetRange * m_fCurChargeRate;

  00127	8d 45 f4	 lea	 eax, DWORD PTR _value$555683[ebp]
  0012a	50		 push	 eax
  0012b	8d 8e 8c 0f 00
	00		 lea	 ecx, DWORD PTR [esi+3980]
  00131	e8 00 00 00 00	 call	 ?DecryptValueToPool@?$CEncrypt@M@@QAEXPAM@Z ; CEncrypt<float>::DecryptValueToPool

; 743  : 		fCurTargetAngleRate += fCurMaxTargetAngle * m_fCurChargeRate;

  00136	8d 45 f8	 lea	 eax, DWORD PTR _value$555687[ebp]
  00139	50		 push	 eax
  0013a	8d 8e 8c 0f 00
	00		 lea	 ecx, DWORD PTR [esi+3980]
  00140	e8 00 00 00 00	 call	 ?DecryptValueToPool@?$CEncrypt@M@@QAEXPAM@Z ; CEncrypt<float>::DecryptValueToPool
  00145	f3 0f 10 45 f8	 movss	 xmm0, DWORD PTR _value$555687[ebp]
  0014a	f3 0f 10 4d 08	 movss	 xmm1, DWORD PTR _fCurMaxTargetAngle$551044[ebp]

; 744  : 
; 745  : 		fRange = m_fAutoTargetRange * fCurTargetRangeRate;

  0014f	f3 0f 10 55 fc	 movss	 xmm2, DWORD PTR _fCurMaxTargetRange$551039[ebp]
  00154	8b 45 0c	 mov	 eax, DWORD PTR _fRange$[ebp]
  00157	0f 5a c9	 cvtps2pd xmm1, xmm1
  0015a	0f 5a c0	 cvtps2pd xmm0, xmm0
  0015d	f2 0f 59 c1	 mulsd	 xmm0, xmm1
  00161	f3 0f 10 4d 18	 movss	 xmm1, DWORD PTR _fCurTargetAngleRate$551037[ebp]
  00166	0f 5a c9	 cvtps2pd xmm1, xmm1
  00169	f2 0f 58 c1	 addsd	 xmm0, xmm1
  0016d	f3 0f 10 4d f4	 movss	 xmm1, DWORD PTR _value$555683[ebp]
  00172	0f 5a c9	 cvtps2pd xmm1, xmm1
  00175	0f 5a d2	 cvtps2pd xmm2, xmm2
  00178	f2 0f 59 ca	 mulsd	 xmm1, xmm2
  0017c	f3 0f 10 55 f0	 movss	 xmm2, DWORD PTR _fCurTargetRangeRate$551036[ebp]
  00181	0f 5a d2	 cvtps2pd xmm2, xmm2
  00184	f2 0f 58 ca	 addsd	 xmm1, xmm2
  00188	f3 0f 10 96 94
	12 00 00	 movss	 xmm2, DWORD PTR [esi+4756]
  00190	66 0f 5a c9	 cvtpd2ps xmm1, xmm1
  00194	f3 0f 5a c9	 cvtss2sd xmm1, xmm1
  00198	0f 5a d2	 cvtps2pd xmm2, xmm2
  0019b	f2 0f 59 ca	 mulsd	 xmm1, xmm2
  0019f	66 0f 5a c9	 cvtpd2ps xmm1, xmm1
  001a3	f3 0f 11 08	 movss	 DWORD PTR [eax], xmm1

; 746  : 		fMinAngle = m_fAutoTargetMinAngle / fCurTargetAngleRate;

  001a7	f3 0f 10 8e 8c
	12 00 00	 movss	 xmm1, DWORD PTR [esi+4748]
  001af	8b 45 10	 mov	 eax, DWORD PTR _fMinAngle$[ebp]
  001b2	66 0f 5a c0	 cvtpd2ps xmm0, xmm0
  001b6	0f 5a c9	 cvtps2pd xmm1, xmm1
  001b9	0f 57 d2	 xorps	 xmm2, xmm2
  001bc	f3 0f 5a d0	 cvtss2sd xmm2, xmm0
  001c0	f2 0f 5e ca	 divsd	 xmm1, xmm2
  001c4	66 0f 5a c9	 cvtpd2ps xmm1, xmm1
  001c8	f3 0f 11 08	 movss	 DWORD PTR [eax], xmm1

; 747  : 		fMaxAngle = m_fAutoTargetMaxAngle / fCurTargetAngleRate;

  001cc	f3 0f 10 8e 90
	12 00 00	 movss	 xmm1, DWORD PTR [esi+4752]
  001d4	8b 45 14	 mov	 eax, DWORD PTR _fMaxAngle$[ebp]
  001d7	f3 0f 5a c0	 cvtss2sd xmm0, xmm0
  001db	0f 5a c9	 cvtps2pd xmm1, xmm1
  001de	f2 0f 5e c8	 divsd	 xmm1, xmm0
  001e2	5f		 pop	 edi
  001e3	5b		 pop	 ebx
  001e4	66 0f 5a c1	 cvtpd2ps xmm0, xmm1
  001e8	f3 0f 11 00	 movss	 DWORD PTR [eax], xmm0

; 748  : 	}
; 749  : 	else

  001ec	e9 c7 00 00 00	 jmp	 $LN10@GetAutoTar
$LN11@GetAutoTar:

; 750  : 	{
; 751  : 		switch( eType )

  001f1	8b 45 18	 mov	 eax, DWORD PTR _eType$[ebp]
  001f4	83 e8 00	 sub	 eax, 0
  001f7	0f 84 9a 00 00
	00		 je	 $LN7@GetAutoTar
  001fd	48		 dec	 eax
  001fe	74 68		 je	 SHORT $LN6@GetAutoTar
  00200	48		 dec	 eax
  00201	74 36		 je	 SHORT $LN2@GetAutoTar
  00203	48		 dec	 eax
  00204	0f 85 8d 00 00
	00		 jne	 $LN7@GetAutoTar

; 766  : 		case ATT_JUMP:
; 767  : 			if( m_fJumpAutoTargetRange == 0.0f )

  0020a	f3 0f 10 86 ac
	12 00 00	 movss	 xmm0, DWORD PTR [esi+4780]
  00212	0f 2e 05 00 00
	00 00		 ucomiss xmm0, DWORD PTR __real@00000000
  00219	9f		 lahf
  0021a	f6 c4 44	 test	 ah, 68			; 00000044H
  0021d	7b 78		 jnp	 SHORT $LN7@GetAutoTar

; 768  : 				break;
; 769  : 
; 770  : 			fRange = m_fJumpAutoTargetRange;

  0021f	8b 45 0c	 mov	 eax, DWORD PTR _fRange$[ebp]
  00222	f3 0f 11 00	 movss	 DWORD PTR [eax], xmm0

; 771  : 			fMinAngle = m_fJumpAutoTargetMinAngle;

  00226	d9 86 a4 12 00
	00		 fld	 DWORD PTR [esi+4772]
  0022c	8b 45 10	 mov	 eax, DWORD PTR _fMinAngle$[ebp]
  0022f	d9 18		 fstp	 DWORD PTR [eax]

; 772  : 			fMaxAngle = m_fJumpAutoTargetMaxAngle;

  00231	d9 86 a8 12 00
	00		 fld	 DWORD PTR [esi+4776]

; 773  : 			return;

  00237	eb 7a		 jmp	 SHORT $LN45@GetAutoTar
$LN2@GetAutoTar:

; 774  : 		case ATT_COUNTER:
; 775  : 			if( m_fCountAutoTargetRange == 0.0f )

  00239	f3 0f 10 86 b8
	12 00 00	 movss	 xmm0, DWORD PTR [esi+4792]
  00241	0f 2e 05 00 00
	00 00		 ucomiss xmm0, DWORD PTR __real@00000000
  00248	9f		 lahf
  00249	f6 c4 44	 test	 ah, 68			; 00000044H
  0024c	7b 49		 jnp	 SHORT $LN7@GetAutoTar

; 776  : 				break;
; 777  : 
; 778  : 			fRange = m_fCountAutoTargetRange;

  0024e	8b 45 0c	 mov	 eax, DWORD PTR _fRange$[ebp]
  00251	f3 0f 11 00	 movss	 DWORD PTR [eax], xmm0

; 779  : 			fMinAngle = m_fCountAutoTargetMinAngle;

  00255	d9 86 b0 12 00
	00		 fld	 DWORD PTR [esi+4784]
  0025b	8b 45 10	 mov	 eax, DWORD PTR _fMinAngle$[ebp]
  0025e	d9 18		 fstp	 DWORD PTR [eax]

; 780  : 			fMaxAngle = m_fCountAutoTargetMaxAngle;

  00260	d9 86 b4 12 00
	00		 fld	 DWORD PTR [esi+4788]

; 781  : 			return;

  00266	eb 4b		 jmp	 SHORT $LN45@GetAutoTar
$LN6@GetAutoTar:

; 757  : 			return;
; 758  : 		case ATT_DASH:
; 759  : 			if( m_fDashAutoTargetRange == 0.0f )

  00268	f3 0f 10 86 a0
	12 00 00	 movss	 xmm0, DWORD PTR [esi+4768]
  00270	0f 2e 05 00 00
	00 00		 ucomiss xmm0, DWORD PTR __real@00000000
  00277	9f		 lahf
  00278	f6 c4 44	 test	 ah, 68			; 00000044H

; 782  : 		}
; 783  : 
; 784  : 
; 785  : 		fRange = m_fAutoTargetRange;
; 786  : 		fMinAngle = m_fAutoTargetMinAngle;
; 787  : 		fMaxAngle = m_fAutoTargetMaxAngle;
; 788  : 
; 789  : 		return;

  0027b	7b 1a		 jnp	 SHORT $LN7@GetAutoTar

; 760  : 				break;
; 761  : 
; 762  : 			fRange = m_fDashAutoTargetRange;

  0027d	8b 45 0c	 mov	 eax, DWORD PTR _fRange$[ebp]
  00280	f3 0f 11 00	 movss	 DWORD PTR [eax], xmm0

; 763  : 			fMinAngle = m_fDashAutoTargetMinAngle;

  00284	d9 86 98 12 00
	00		 fld	 DWORD PTR [esi+4760]
  0028a	8b 45 10	 mov	 eax, DWORD PTR _fMinAngle$[ebp]
  0028d	d9 18		 fstp	 DWORD PTR [eax]

; 764  : 			fMaxAngle = m_fDashAutoTargetMaxAngle;

  0028f	d9 86 9c 12 00
	00		 fld	 DWORD PTR [esi+4764]

; 765  : 			return;

  00295	eb 1c		 jmp	 SHORT $LN45@GetAutoTar
$LN7@GetAutoTar:

; 752  : 		{
; 753  : 		case ATT_NORMAL:
; 754  : 			fRange = m_fAutoTargetRange;

  00297	8b 45 0c	 mov	 eax, DWORD PTR _fRange$[ebp]
  0029a	d9 86 94 12 00
	00		 fld	 DWORD PTR [esi+4756]
  002a0	d9 18		 fstp	 DWORD PTR [eax]

; 755  : 			fMinAngle = m_fAutoTargetMinAngle;

  002a2	8b 45 10	 mov	 eax, DWORD PTR _fMinAngle$[ebp]
  002a5	d9 86 8c 12 00
	00		 fld	 DWORD PTR [esi+4748]
  002ab	d9 18		 fstp	 DWORD PTR [eax]

; 756  : 			fMaxAngle = m_fAutoTargetMaxAngle;

  002ad	d9 86 90 12 00
	00		 fld	 DWORD PTR [esi+4752]
$LN45@GetAutoTar:
  002b3	8b 45 14	 mov	 eax, DWORD PTR _fMaxAngle$[ebp]
  002b6	d9 18		 fstp	 DWORD PTR [eax]
$LN10@GetAutoTar:
  002b8	5e		 pop	 esi

; 790  : 	}
; 791  : }

  002b9	c9		 leave
  002ba	c2 14 00	 ret	 20			; 00000014H
?GetAutoTargetValue@ioTrinityItem@@UAEXPAVioBaseChar@@AAM11W4AutoTargetType@@@Z ENDP ; ioTrinityItem::GetAutoTargetValue
_TEXT	ENDS
PUBLIC	?GetMaxBullet@ioTrinityItem@@UAEHXZ		; ioTrinityItem::GetMaxBullet
; Function compile flags: /Ogsp
;	COMDAT ?GetMaxBullet@ioTrinityItem@@UAEHXZ
_TEXT	SEGMENT
_value$555701 = -4					; size = 4
?GetMaxBullet@ioTrinityItem@@UAEHXZ PROC		; ioTrinityItem::GetMaxBullet, COMDAT
; _this$ = ecx

; 871  : {

  00000	55		 push	 ebp
  00001	8b ec		 mov	 ebp, esp
  00003	51		 push	 ecx

; 872  : 	return (int)m_fMaxGauge;

  00004	8d 45 fc	 lea	 eax, DWORD PTR _value$555701[ebp]
  00007	50		 push	 eax
  00008	81 c1 6c 20 00
	00		 add	 ecx, 8300		; 0000206cH
  0000e	e8 00 00 00 00	 call	 ?DecryptValueToPool@?$CEncrypt@M@@QAEXPAM@Z ; CEncrypt<float>::DecryptValueToPool
  00013	f3 0f 2c 45 fc	 cvttss2si eax, DWORD PTR _value$555701[ebp]

; 873  : }

  00018	c9		 leave
  00019	c3		 ret	 0
?GetMaxBullet@ioTrinityItem@@UAEHXZ ENDP		; ioTrinityItem::GetMaxBullet
_TEXT	ENDS
PUBLIC	?GetCurBullet@ioTrinityItem@@UAEHXZ		; ioTrinityItem::GetCurBullet
; Function compile flags: /Ogsp
;	COMDAT ?GetCurBullet@ioTrinityItem@@UAEHXZ
_TEXT	SEGMENT
_fCurCoolTime$ = -12					; size = 4
_value$555729 = -8					; size = 4
_value$555725 = -8					; size = 4
_value$555721 = -8					; size = 4
_value$555717 = -8					; size = 4
_value$555713 = -4					; size = 4
?GetCurBullet@ioTrinityItem@@UAEHXZ PROC		; ioTrinityItem::GetCurBullet, COMDAT
; _this$ = ecx

; 876  : {

  00000	55		 push	 ebp
  00001	8b ec		 mov	 ebp, esp
  00003	83 ec 0c	 sub	 esp, 12			; 0000000cH
  00006	56		 push	 esi
  00007	8b f1		 mov	 esi, ecx

; 877  : 	float fCurCoolTime = m_fCurGauge;

  00009	8d 45 fc	 lea	 eax, DWORD PTR _value$555713[ebp]
  0000c	50		 push	 eax
  0000d	8d 8e 9c 20 00
	00		 lea	 ecx, DWORD PTR [esi+8348]
  00013	e8 00 00 00 00	 call	 ?DecryptValueToPool@?$CEncrypt@M@@QAEXPAM@Z ; CEncrypt<float>::DecryptValueToPool
  00018	f3 0f 10 45 fc	 movss	 xmm0, DWORD PTR _value$555713[ebp]

; 878  : 	fCurCoolTime = max( 0, min( fCurCoolTime, m_fMaxGauge ) );

  0001d	8d 45 f8	 lea	 eax, DWORD PTR _value$555717[ebp]
  00020	81 c6 6c 20 00
	00		 add	 esi, 8300		; 0000206cH
  00026	50		 push	 eax
  00027	8b ce		 mov	 ecx, esi
  00029	f3 0f 11 45 f4	 movss	 DWORD PTR _fCurCoolTime$[ebp], xmm0
  0002e	e8 00 00 00 00	 call	 ?DecryptValueToPool@?$CEncrypt@M@@QAEXPAM@Z ; CEncrypt<float>::DecryptValueToPool
  00033	f3 0f 10 45 fc	 movss	 xmm0, DWORD PTR _value$555713[ebp]
  00038	f3 0f 10 55 f8	 movss	 xmm2, DWORD PTR _value$555717[ebp]
  0003d	0f 57 c9	 xorps	 xmm1, xmm1
  00040	0f 5a c8	 cvtps2pd xmm1, xmm0
  00043	0f 5a d2	 cvtps2pd xmm2, xmm2
  00046	66 0f 2f d1	 comisd	 xmm2, xmm1
  0004a	77 10		 ja	 SHORT $LN4@GetCurBull
  0004c	8d 45 f8	 lea	 eax, DWORD PTR _value$555721[ebp]
  0004f	50		 push	 eax
  00050	8b ce		 mov	 ecx, esi
  00052	e8 00 00 00 00	 call	 ?DecryptValueToPool@?$CEncrypt@M@@QAEXPAM@Z ; CEncrypt<float>::DecryptValueToPool
  00057	f3 0f 10 45 f8	 movss	 xmm0, DWORD PTR _value$555721[ebp]
$LN4@GetCurBull:
  0005c	0f 57 c9	 xorps	 xmm1, xmm1
  0005f	0f 5a c0	 cvtps2pd xmm0, xmm0
  00062	66 0f 2f c8	 comisd	 xmm1, xmm0
  00066	76 05		 jbe	 SHORT $LN7@GetCurBull
  00068	0f 57 c0	 xorps	 xmm0, xmm0
  0006b	eb 38		 jmp	 SHORT $LN6@GetCurBull
$LN7@GetCurBull:
  0006d	8d 45 f8	 lea	 eax, DWORD PTR _value$555725[ebp]
  00070	50		 push	 eax
  00071	8b ce		 mov	 ecx, esi
  00073	e8 00 00 00 00	 call	 ?DecryptValueToPool@?$CEncrypt@M@@QAEXPAM@Z ; CEncrypt<float>::DecryptValueToPool
  00078	f3 0f 10 45 fc	 movss	 xmm0, DWORD PTR _value$555713[ebp]
  0007d	f3 0f 10 4d f8	 movss	 xmm1, DWORD PTR _value$555725[ebp]
  00082	0f 5a c0	 cvtps2pd xmm0, xmm0
  00085	0f 5a c9	 cvtps2pd xmm1, xmm1
  00088	66 0f 2f c8	 comisd	 xmm1, xmm0
  0008c	77 12		 ja	 SHORT $LN19@GetCurBull
  0008e	8d 45 f8	 lea	 eax, DWORD PTR _value$555729[ebp]
  00091	50		 push	 eax
  00092	8b ce		 mov	 ecx, esi
  00094	e8 00 00 00 00	 call	 ?DecryptValueToPool@?$CEncrypt@M@@QAEXPAM@Z ; CEncrypt<float>::DecryptValueToPool
  00099	f3 0f 10 45 f8	 movss	 xmm0, DWORD PTR _value$555729[ebp]
  0009e	eb 05		 jmp	 SHORT $LN6@GetCurBull
$LN19@GetCurBull:
  000a0	f3 0f 10 45 f4	 movss	 xmm0, DWORD PTR _fCurCoolTime$[ebp]
$LN6@GetCurBull:

; 879  : 
; 880  : 	return (int)fCurCoolTime;

  000a5	f3 0f 2c c0	 cvttss2si eax, xmm0
  000a9	5e		 pop	 esi

; 881  : }

  000aa	c9		 leave
  000ab	c3		 ret	 0
?GetCurBullet@ioTrinityItem@@UAEHXZ ENDP		; ioTrinityItem::GetCurBullet
_TEXT	ENDS
PUBLIC	?SetCurBullet@ioTrinityItem@@UAEXH@Z		; ioTrinityItem::SetCurBullet
; Function compile flags: /Ogsp
;	COMDAT ?SetCurBullet@ioTrinityItem@@UAEXH@Z
_TEXT	SEGMENT
_value$555749 = -4					; size = 4
_value$555746 = -4					; size = 4
_value$555742 = -4					; size = 4
_value$555758 = 8					; size = 4
_value$555753 = 8					; size = 4
_fCurBullet$ = 8					; size = 4
_iCurBullet$ = 8					; size = 4
?SetCurBullet@ioTrinityItem@@UAEXH@Z PROC		; ioTrinityItem::SetCurBullet, COMDAT
; _this$ = ecx

; 884  : {

  00000	55		 push	 ebp
  00001	8b ec		 mov	 ebp, esp
  00003	51		 push	 ecx

; 885  : 	if( iCurBullet < 0 )

  00004	83 7d 08 00	 cmp	 DWORD PTR _iCurBullet$[ebp], 0
  00008	57		 push	 edi
  00009	8b f9		 mov	 edi, ecx
  0000b	0f 8c a6 00 00
	00		 jl	 $LN18@SetCurBull

; 886  : 		return;
; 887  : 
; 888  : 	float fCurBullet = iCurBullet;

  00011	66 0f 6e 45 08	 movd	 xmm0, DWORD PTR _iCurBullet$[ebp]
  00016	56		 push	 esi

; 889  : 	fCurBullet = max( 0, min( fCurBullet, m_fMaxGauge ) );

  00017	8d 45 fc	 lea	 eax, DWORD PTR _value$555742[ebp]
  0001a	0f 5b c0	 cvtdq2ps xmm0, xmm0
  0001d	50		 push	 eax
  0001e	8d 8f 6c 20 00
	00		 lea	 ecx, DWORD PTR [edi+8300]
  00024	f3 0f 11 45 08	 movss	 DWORD PTR _fCurBullet$[ebp], xmm0
  00029	e8 00 00 00 00	 call	 ?DecryptValueToPool@?$CEncrypt@M@@QAEXPAM@Z ; CEncrypt<float>::DecryptValueToPool
  0002e	f3 0f 10 45 08	 movss	 xmm0, DWORD PTR _fCurBullet$[ebp]
  00033	f3 0f 10 55 fc	 movss	 xmm2, DWORD PTR _value$555742[ebp]
  00038	0f 5a c8	 cvtps2pd xmm1, xmm0
  0003b	0f 5a d2	 cvtps2pd xmm2, xmm2
  0003e	66 0f 2f d1	 comisd	 xmm2, xmm1
  00042	77 14		 ja	 SHORT $LN5@SetCurBull
  00044	8d 45 fc	 lea	 eax, DWORD PTR _value$555746[ebp]
  00047	50		 push	 eax
  00048	8d 8f 6c 20 00
	00		 lea	 ecx, DWORD PTR [edi+8300]
  0004e	e8 00 00 00 00	 call	 ?DecryptValueToPool@?$CEncrypt@M@@QAEXPAM@Z ; CEncrypt<float>::DecryptValueToPool
  00053	f3 0f 10 45 fc	 movss	 xmm0, DWORD PTR _value$555746[ebp]
$LN5@SetCurBull:
  00058	0f 57 c9	 xorps	 xmm1, xmm1
  0005b	0f 5a c0	 cvtps2pd xmm0, xmm0
  0005e	66 0f 2f c8	 comisd	 xmm1, xmm0
  00062	76 05		 jbe	 SHORT $LN8@SetCurBull
  00064	0f 57 c0	 xorps	 xmm0, xmm0
  00067	eb 39		 jmp	 SHORT $LN7@SetCurBull
$LN8@SetCurBull:
  00069	8d 45 fc	 lea	 eax, DWORD PTR _value$555749[ebp]
  0006c	50		 push	 eax
  0006d	8d 8f 6c 20 00
	00		 lea	 ecx, DWORD PTR [edi+8300]
  00073	e8 00 00 00 00	 call	 ?DecryptValueToPool@?$CEncrypt@M@@QAEXPAM@Z ; CEncrypt<float>::DecryptValueToPool
  00078	f3 0f 10 45 08	 movss	 xmm0, DWORD PTR _fCurBullet$[ebp]
  0007d	f3 0f 10 55 fc	 movss	 xmm2, DWORD PTR _value$555749[ebp]
  00082	0f 5a c8	 cvtps2pd xmm1, xmm0
  00085	0f 5a d2	 cvtps2pd xmm2, xmm2
  00088	66 0f 2f d1	 comisd	 xmm2, xmm1
  0008c	77 14		 ja	 SHORT $LN7@SetCurBull
  0008e	8d 45 08	 lea	 eax, DWORD PTR _value$555753[ebp]
  00091	50		 push	 eax
  00092	8d 8f 6c 20 00
	00		 lea	 ecx, DWORD PTR [edi+8300]
  00098	e8 00 00 00 00	 call	 ?DecryptValueToPool@?$CEncrypt@M@@QAEXPAM@Z ; CEncrypt<float>::DecryptValueToPool
  0009d	f3 0f 10 45 08	 movss	 xmm0, DWORD PTR _value$555753[ebp]
$LN7@SetCurBull:

; 890  : 
; 891  : 	m_fCurGauge = fCurBullet;

  000a2	8d 45 08	 lea	 eax, DWORD PTR _value$555758[ebp]
  000a5	50		 push	 eax
  000a6	8d 8f 9c 20 00
	00		 lea	 ecx, DWORD PTR [edi+8348]
  000ac	f3 0f 11 45 08	 movss	 DWORD PTR _value$555758[ebp], xmm0
  000b1	e8 00 00 00 00	 call	 ?EncryptValueToPool@?$CEncrypt@M@@AAEXPBD@Z ; CEncrypt<float>::EncryptValueToPool
  000b6	5e		 pop	 esi
$LN18@SetCurBull:
  000b7	5f		 pop	 edi

; 892  : }

  000b8	c9		 leave
  000b9	c2 04 00	 ret	 4
?SetCurBullet@ioTrinityItem@@UAEXH@Z ENDP		; ioTrinityItem::SetCurBullet
_TEXT	ENDS
PUBLIC	?InitGauge@ioTrinityItem@@QAEXXZ		; ioTrinityItem::InitGauge
; Function compile flags: /Ogsp
;	COMDAT ?InitGauge@ioTrinityItem@@QAEXXZ
_TEXT	SEGMENT
_value$555763 = -4					; size = 4
?InitGauge@ioTrinityItem@@QAEXXZ PROC			; ioTrinityItem::InitGauge, COMDAT
; _this$ = ecx

; 895  : {

  00000	55		 push	 ebp
  00001	8b ec		 mov	 ebp, esp
  00003	51		 push	 ecx

; 896  : 	m_fCurGauge = 0.0f;

  00004	0f 57 c0	 xorps	 xmm0, xmm0
  00007	8d 45 fc	 lea	 eax, DWORD PTR _value$555763[ebp]
  0000a	50		 push	 eax
  0000b	81 c1 9c 20 00
	00		 add	 ecx, 8348		; 0000209cH
  00011	f3 0f 11 45 fc	 movss	 DWORD PTR _value$555763[ebp], xmm0
  00016	e8 00 00 00 00	 call	 ?EncryptValueToPool@?$CEncrypt@M@@AAEXPBD@Z ; CEncrypt<float>::EncryptValueToPool

; 897  : }

  0001b	c9		 leave
  0001c	c3		 ret	 0
?InitGauge@ioTrinityItem@@QAEXXZ ENDP			; ioTrinityItem::InitGauge
_TEXT	ENDS
PUBLIC	?GetCurGauge@ioTrinityItem@@QAEMXZ		; ioTrinityItem::GetCurGauge
; Function compile flags: /Ogsp
;	COMDAT ?GetCurGauge@ioTrinityItem@@QAEMXZ
_TEXT	SEGMENT
_value$555769 = -4					; size = 4
?GetCurGauge@ioTrinityItem@@QAEMXZ PROC			; ioTrinityItem::GetCurGauge, COMDAT
; _this$ = ecx

; 905  : {

  00000	55		 push	 ebp
  00001	8b ec		 mov	 ebp, esp
  00003	51		 push	 ecx

; 906  : 	return m_fCurGauge;

  00004	8d 45 fc	 lea	 eax, DWORD PTR _value$555769[ebp]
  00007	50		 push	 eax
  00008	81 c1 9c 20 00
	00		 add	 ecx, 8348		; 0000209cH
  0000e	e8 00 00 00 00	 call	 ?DecryptValueToPool@?$CEncrypt@M@@QAEXPAM@Z ; CEncrypt<float>::DecryptValueToPool
  00013	d9 45 fc	 fld	 DWORD PTR _value$555769[ebp]

; 907  : }

  00016	c9		 leave
  00017	c3		 ret	 0
?GetCurGauge@ioTrinityItem@@QAEMXZ ENDP			; ioTrinityItem::GetCurGauge
_TEXT	ENDS
PUBLIC	?DecreaseGauge@ioTrinityItem@@QAEXXZ		; ioTrinityItem::DecreaseGauge
; Function compile flags: /Ogsp
;	COMDAT ?DecreaseGauge@ioTrinityItem@@QAEXXZ
_TEXT	SEGMENT
tv171 = -4						; size = 4
tv166 = -4						; size = 4
$T555797 = -4						; size = 4
tv80 = -4						; size = 4
tv71 = -4						; size = 4
_value$555795 = -4					; size = 4
_value$555791 = -4					; size = 4
_value$555783 = -4					; size = 4
?DecreaseGauge@ioTrinityItem@@QAEXXZ PROC		; ioTrinityItem::DecreaseGauge, COMDAT
; _this$ = ecx

; 916  : {

  00000	55		 push	 ebp
  00001	8b ec		 mov	 ebp, esp
  00003	51		 push	 ecx
  00004	56		 push	 esi
  00005	57		 push	 edi

; 917  : 	m_fCurGauge = max( 0.f, m_fCurGauge - FLOAT1 );

  00006	b8 01 00 00 00	 mov	 eax, 1
  0000b	8b f8		 mov	 edi, eax
  0000d	8d b1 9c 20 00
	00		 lea	 esi, DWORD PTR [ecx+8348]
  00013	8d 45 fc	 lea	 eax, DWORD PTR _value$555783[ebp]
  00016	50		 push	 eax
  00017	8b ce		 mov	 ecx, esi
  00019	e8 00 00 00 00	 call	 ?DecryptValueToPool@?$CEncrypt@M@@QAEXPAM@Z ; CEncrypt<float>::DecryptValueToPool
  0001e	d9 45 fc	 fld	 DWORD PTR _value$555783[ebp]
  00021	89 7d fc	 mov	 DWORD PTR tv171[ebp], edi
  00024	db 45 fc	 fild	 DWORD PTR tv171[ebp]
  00027	85 ff		 test	 edi, edi
  00029	79 06		 jns	 SHORT $LN15@DecreaseGa
  0002b	d8 05 00 00 00
	00		 fadd	 DWORD PTR __real@4f800000
$LN15@DecreaseGa:
  00031	de e9		 fsubp	 ST(1), ST(0)
  00033	d9 5d fc	 fstp	 DWORD PTR tv166[ebp]
  00036	d9 45 fc	 fld	 DWORD PTR tv166[ebp]
  00039	d9 ee		 fldz
  0003b	df f1		 fcomip	 ST(1)
  0003d	dd d8		 fstp	 ST(0)
  0003f	76 05		 jbe	 SHORT $LN3@DecreaseGa
  00041	0f 57 c0	 xorps	 xmm0, xmm0
  00044	eb 35		 jmp	 SHORT $LN4@DecreaseGa
$LN3@DecreaseGa:
  00046	b8 01 00 00 00	 mov	 eax, 1
  0004b	8b f8		 mov	 edi, eax
  0004d	8d 45 fc	 lea	 eax, DWORD PTR _value$555791[ebp]
  00050	50		 push	 eax
  00051	8b ce		 mov	 ecx, esi
  00053	e8 00 00 00 00	 call	 ?DecryptValueToPool@?$CEncrypt@M@@QAEXPAM@Z ; CEncrypt<float>::DecryptValueToPool
  00058	d9 45 fc	 fld	 DWORD PTR _value$555791[ebp]
  0005b	89 7d fc	 mov	 DWORD PTR tv80[ebp], edi
  0005e	db 45 fc	 fild	 DWORD PTR tv80[ebp]
  00061	85 ff		 test	 edi, edi
  00063	79 06		 jns	 SHORT $LN16@DecreaseGa
  00065	d8 05 00 00 00
	00		 fadd	 DWORD PTR __real@4f800000
$LN16@DecreaseGa:
  0006b	de e9		 fsubp	 ST(1), ST(0)
  0006d	d9 5d fc	 fstp	 DWORD PTR tv71[ebp]
  00070	d9 45 fc	 fld	 DWORD PTR tv71[ebp]
  00073	d9 5d fc	 fstp	 DWORD PTR $T555797[ebp]
  00076	f3 0f 10 45 fc	 movss	 xmm0, DWORD PTR $T555797[ebp]
$LN4@DecreaseGa:
  0007b	8d 45 fc	 lea	 eax, DWORD PTR _value$555795[ebp]
  0007e	50		 push	 eax
  0007f	8b ce		 mov	 ecx, esi
  00081	f3 0f 11 45 fc	 movss	 DWORD PTR _value$555795[ebp], xmm0
  00086	e8 00 00 00 00	 call	 ?EncryptValueToPool@?$CEncrypt@M@@AAEXPBD@Z ; CEncrypt<float>::EncryptValueToPool
  0008b	5f		 pop	 edi
  0008c	5e		 pop	 esi

; 918  : }

  0008d	c9		 leave
  0008e	c3		 ret	 0
?DecreaseGauge@ioTrinityItem@@QAEXXZ ENDP		; ioTrinityItem::DecreaseGauge
_TEXT	ENDS
PUBLIC	?ClearState@ioTrinityItem@@QAEXPAVioBaseChar@@@Z ; ioTrinityItem::ClearState
; Function compile flags: /Ogsp
;	COMDAT ?ClearState@ioTrinityItem@@QAEXPAVioBaseChar@@@Z
_TEXT	SEGMENT
_pOwner$ = 8						; size = 4
?ClearState@ioTrinityItem@@QAEXPAVioBaseChar@@@Z PROC	; ioTrinityItem::ClearState, COMDAT
; _this$ = ecx

; 959  : {

  00000	55		 push	 ebp
  00001	8b ec		 mov	 ebp, esp
  00003	56		 push	 esi

; 960  : 	m_State = TS_NONE;
; 961  : 	EraseEntityAndEffect(pOwner);

  00004	ff 75 08	 push	 DWORD PTR _pOwner$[ebp]
  00007	8b f1		 mov	 esi, ecx
  00009	83 a6 84 19 00
	00 00		 and	 DWORD PTR [esi+6532], 0
  00010	e8 00 00 00 00	 call	 ?EraseEntityAndEffect@ioTrinityItem@@QAEXPAVioBaseChar@@@Z ; ioTrinityItem::EraseEntityAndEffect

; 962  : 	AddNormalEntityAndEffect(pOwner);

  00015	ff 75 08	 push	 DWORD PTR _pOwner$[ebp]
  00018	8b ce		 mov	 ecx, esi
  0001a	e8 00 00 00 00	 call	 ?AddNormalEntityAndEffect@ioTrinityItem@@QAEXPAVioBaseChar@@@Z ; ioTrinityItem::AddNormalEntityAndEffect
  0001f	5e		 pop	 esi

; 963  : }

  00020	5d		 pop	 ebp
  00021	c2 04 00	 ret	 4
?ClearState@ioTrinityItem@@QAEXPAVioBaseChar@@@Z ENDP	; ioTrinityItem::ClearState
_TEXT	ENDS
PUBLIC	?OnEquiped@ioTrinityItem@@UAEXPAVioBaseChar@@@Z	; ioTrinityItem::OnEquiped
EXTRN	?OnEquiped@ioAttackableItem@@UAEXPAVioBaseChar@@@Z:PROC ; ioAttackableItem::OnEquiped
; Function compile flags: /Ogsp
;	COMDAT ?OnEquiped@ioTrinityItem@@UAEXPAVioBaseChar@@@Z
_TEXT	SEGMENT
_pOwner$ = 8						; size = 4
?OnEquiped@ioTrinityItem@@UAEXPAVioBaseChar@@@Z PROC	; ioTrinityItem::OnEquiped, COMDAT
; _this$ = ecx

; 966  : {

  00000	55		 push	 ebp
  00001	8b ec		 mov	 ebp, esp
  00003	56		 push	 esi

; 967  : 	ioWeaponItem::OnEquiped( pOwner );

  00004	ff 75 08	 push	 DWORD PTR _pOwner$[ebp]
  00007	8b f1		 mov	 esi, ecx
  00009	e8 00 00 00 00	 call	 ?OnEquiped@ioAttackableItem@@UAEXPAVioBaseChar@@@Z ; ioAttackableItem::OnEquiped

; 968  : 
; 969  : 	AddNormalEntityAndEffect(pOwner);

  0000e	ff 75 08	 push	 DWORD PTR _pOwner$[ebp]
  00011	8b ce		 mov	 ecx, esi
  00013	e8 00 00 00 00	 call	 ?AddNormalEntityAndEffect@ioTrinityItem@@QAEXPAVioBaseChar@@@Z ; ioTrinityItem::AddNormalEntityAndEffect
  00018	5e		 pop	 esi

; 970  : }

  00019	5d		 pop	 ebp
  0001a	c2 04 00	 ret	 4
?OnEquiped@ioTrinityItem@@UAEXPAVioBaseChar@@@Z ENDP	; ioTrinityItem::OnEquiped
_TEXT	ENDS
PUBLIC	?OnReleased@ioTrinityItem@@UAEXPAVioBaseChar@@@Z ; ioTrinityItem::OnReleased
EXTRN	?OnReleased@ioAttackableItem@@UAEXPAVioBaseChar@@@Z:PROC ; ioAttackableItem::OnReleased
; Function compile flags: /Ogsp
;	COMDAT ?OnReleased@ioTrinityItem@@UAEXPAVioBaseChar@@@Z
_TEXT	SEGMENT
_pOwner$ = 8						; size = 4
?OnReleased@ioTrinityItem@@UAEXPAVioBaseChar@@@Z PROC	; ioTrinityItem::OnReleased, COMDAT
; _this$ = ecx

; 973  : {

  00000	55		 push	 ebp
  00001	8b ec		 mov	 ebp, esp
  00003	56		 push	 esi

; 974  : 	//EraseEntityAndEffect( pOwner );
; 975  : 
; 976  : 	ClearState( pOwner );

  00004	ff 75 08	 push	 DWORD PTR _pOwner$[ebp]
  00007	8b f1		 mov	 esi, ecx
  00009	e8 00 00 00 00	 call	 ?ClearState@ioTrinityItem@@QAEXPAVioBaseChar@@@Z ; ioTrinityItem::ClearState

; 977  : 
; 978  : 	EraseEntityAndEffect( pOwner );

  0000e	ff 75 08	 push	 DWORD PTR _pOwner$[ebp]
  00011	8b ce		 mov	 ecx, esi
  00013	e8 00 00 00 00	 call	 ?EraseEntityAndEffect@ioTrinityItem@@QAEXPAVioBaseChar@@@Z ; ioTrinityItem::EraseEntityAndEffect

; 979  : 
; 980  : 	ioAttackableItem::OnReleased( pOwner );

  00018	ff 75 08	 push	 DWORD PTR _pOwner$[ebp]
  0001b	8b ce		 mov	 ecx, esi
  0001d	e8 00 00 00 00	 call	 ?OnReleased@ioAttackableItem@@UAEXPAVioBaseChar@@@Z ; ioAttackableItem::OnReleased
  00022	5e		 pop	 esi

; 981  : }

  00023	5d		 pop	 ebp
  00024	c2 04 00	 ret	 4
?OnReleased@ioTrinityItem@@UAEXPAVioBaseChar@@@Z ENDP	; ioTrinityItem::OnReleased
_TEXT	ENDS
EXTRN	?GetPriorityItem@ioBaseChar@@QBEPAVioAttackableItem@@W4StatePriorityType@@@Z:PROC ; ioBaseChar::GetPriorityItem
EXTRN	?Finalize@ioSpecialStateBase@@UAEXPAVioBaseChar@@W4CharState@@1@Z:PROC ; ioSpecialStateBase::Finalize
; Function compile flags: /Ogsp
;	COMDAT ?Finalize@ioTrinitySpecialState@@UAEXPAVioBaseChar@@W4CharState@@1@Z
_TEXT	SEGMENT
_pOwner$ = 8						; size = 4
_eCurrState$ = 12					; size = 1
_eNewState$ = 16					; size = 1
?Finalize@ioTrinitySpecialState@@UAEXPAVioBaseChar@@W4CharState@@1@Z PROC ; ioTrinitySpecialState::Finalize, COMDAT
; _this$ = ecx

; 1193 : {

  00000	55		 push	 ebp
  00001	8b ec		 mov	 ebp, esp

; 1194 : 	ioSpecialStateBase::Finalize( pOwner, eCurrState, eNewState );

  00003	ff 75 10	 push	 DWORD PTR _eNewState$[ebp]
  00006	ff 75 0c	 push	 DWORD PTR _eCurrState$[ebp]
  00009	ff 75 08	 push	 DWORD PTR _pOwner$[ebp]
  0000c	e8 00 00 00 00	 call	 ?Finalize@ioSpecialStateBase@@UAEXPAVioBaseChar@@W4CharState@@1@Z ; ioSpecialStateBase::Finalize

; 1195 : 
; 1196 : 	ioTrinityItem *pTrinityItem = ToTrinityItem( pOwner->GetPriorityItem( SPT_ATTACK ) );

  00011	8b 4d 08	 mov	 ecx, DWORD PTR _pOwner$[ebp]
  00014	6a 05		 push	 5
  00016	e8 00 00 00 00	 call	 ?GetPriorityItem@ioBaseChar@@QBEPAVioAttackableItem@@W4StatePriorityType@@@Z ; ioBaseChar::GetPriorityItem
  0001b	50		 push	 eax
  0001c	e8 00 00 00 00	 call	 ?ToTrinityItem@@YAPAVioTrinityItem@@PAVioItem@@@Z ; ToTrinityItem
  00021	59		 pop	 ecx

; 1197 : 	if( pTrinityItem )

  00022	85 c0		 test	 eax, eax
  00024	74 0a		 je	 SHORT $LN1@Finalize

; 1198 : 		pTrinityItem->ClearState( pOwner );

  00026	ff 75 08	 push	 DWORD PTR _pOwner$[ebp]
  00029	8b c8		 mov	 ecx, eax
  0002b	e8 00 00 00 00	 call	 ?ClearState@ioTrinityItem@@QAEXPAVioBaseChar@@@Z ; ioTrinityItem::ClearState
$LN1@Finalize:

; 1199 : }

  00030	5d		 pop	 ebp
  00031	c2 0c 00	 ret	 12			; 0000000cH
?Finalize@ioTrinitySpecialState@@UAEXPAVioBaseChar@@W4CharState@@1@Z ENDP ; ioTrinitySpecialState::Finalize
_TEXT	ENDS
PUBLIC	??4?$CEncrypt@M@@QAE_NAAV0@@Z			; CEncrypt<float>::operator=
; Function compile flags: /Ogsp
; File d:\lost saga for developer\youtube\tutorial\source\src\lsclient\encryptvalue.h
;	COMDAT ??4?$CEncrypt@M@@QAE_NAAV0@@Z
_TEXT	SEGMENT
_value$555814 = -4					; size = 4
_value$ = 8						; size = 4
_inValue$ = 8						; size = 4
??4?$CEncrypt@M@@QAE_NAAV0@@Z PROC			; CEncrypt<float>::operator=, COMDAT
; _this$ = ecx

; 3314 : 	 {

  00000	55		 push	 ebp
  00001	8b ec		 mov	 ebp, esp
  00003	51		 push	 ecx
  00004	56		 push	 esi

; 3315 : 		 type value = inValue;

  00005	8d 45 fc	 lea	 eax, DWORD PTR _value$555814[ebp]
  00008	8b f1		 mov	 esi, ecx
  0000a	8b 4d 08	 mov	 ecx, DWORD PTR _inValue$[ebp]
  0000d	50		 push	 eax
  0000e	e8 00 00 00 00	 call	 ?DecryptValueToPool@?$CEncrypt@M@@QAEXPAM@Z ; CEncrypt<float>::DecryptValueToPool
  00013	f3 0f 10 45 fc	 movss	 xmm0, DWORD PTR _value$555814[ebp]

; 3316 : 		 EncryptValueToPool((char*)&value);

  00018	8d 45 08	 lea	 eax, DWORD PTR _value$[ebp]
  0001b	50		 push	 eax
  0001c	8b ce		 mov	 ecx, esi
  0001e	f3 0f 11 45 08	 movss	 DWORD PTR _value$[ebp], xmm0
  00023	e8 00 00 00 00	 call	 ?EncryptValueToPool@?$CEncrypt@M@@AAEXPBD@Z ; CEncrypt<float>::EncryptValueToPool

; 3317 : #ifdef _NOTUSE
; 3318 : 		 m_value = inValue;
; 3319 : 		 Debug();
; 3320 : #endif
; 3321 : 		 return value;

  00028	f3 0f 10 45 08	 movss	 xmm0, DWORD PTR _value$[ebp]
  0002d	0f 2e 05 00 00
	00 00		 ucomiss xmm0, DWORD PTR __real@00000000
  00034	9f		 lahf
  00035	5e		 pop	 esi
  00036	f6 c4 44	 test	 ah, 68			; 00000044H
  00039	7b 04		 jnp	 SHORT $LN3@operator@3
  0003b	b0 01		 mov	 al, 1
  0003d	eb 02		 jmp	 SHORT $LN4@operator@3
$LN3@operator@3:
  0003f	32 c0		 xor	 al, al
$LN4@operator@3:

; 3322 : 	 }

  00041	c9		 leave
  00042	c2 04 00	 ret	 4
??4?$CEncrypt@M@@QAE_NAAV0@@Z ENDP			; CEncrypt<float>::operator=
_TEXT	ENDS
PUBLIC	?_Grow_to@?$vector@VioHashString@@V?$allocator@VioHashString@@@std@@@std@@IBEII@Z ; std::vector<ioHashString,std::allocator<ioHashString> >::_Grow_to
; Function compile flags: /Ogsp
; File c:\program files (x86)\microsoft visual studio 10.0\vc\include\vector
;	COMDAT ?_Grow_to@?$vector@VioHashString@@V?$allocator@VioHashString@@@std@@@std@@IBEII@Z
_TEXT	SEGMENT
__Count$ = 8						; size = 4
?_Grow_to@?$vector@VioHashString@@V?$allocator@VioHashString@@@std@@@std@@IBEII@Z PROC ; std::vector<ioHashString,std::allocator<ioHashString> >::_Grow_to, COMDAT
; _this$ = ecx

; 1274 : 		{	// grow by 50% or at least to _Count

  00000	55		 push	 ebp
  00001	8b ec		 mov	 ebp, esp

; 1275 : 		size_type _Capacity = capacity();

  00003	8b 41 08	 mov	 eax, DWORD PTR [ecx+8]
  00006	2b 01		 sub	 eax, DWORD PTR [ecx]

; 1276 : 
; 1277 : 		_Capacity = max_size() - _Capacity / 2 < _Capacity
; 1278 : 			? 0 : _Capacity + _Capacity / 2;	// try to grow by 50%

  00008	ba ff ff ff 0f	 mov	 edx, 268435455		; 0fffffffH
  0000d	c1 f8 04	 sar	 eax, 4
  00010	8b c8		 mov	 ecx, eax
  00012	d1 e9		 shr	 ecx, 1
  00014	2b d1		 sub	 edx, ecx
  00016	3b d0		 cmp	 edx, eax
  00018	73 04		 jae	 SHORT $LN4@Grow_to
  0001a	33 c0		 xor	 eax, eax
  0001c	eb 02		 jmp	 SHORT $LN5@Grow_to
$LN4@Grow_to:
  0001e	03 c1		 add	 eax, ecx
$LN5@Grow_to:

; 1279 : 		if (_Capacity < _Count)

  00020	3b 45 08	 cmp	 eax, DWORD PTR __Count$[ebp]

; 1280 : 			_Capacity = _Count;

  00023	0f 42 45 08	 cmovb	 eax, DWORD PTR __Count$[ebp]

; 1281 : 		return (_Capacity);
; 1282 : 		}

  00027	5d		 pop	 ebp
  00028	c2 04 00	 ret	 4
?_Grow_to@?$vector@VioHashString@@V?$allocator@VioHashString@@@std@@@std@@IBEII@Z ENDP ; std::vector<ioHashString,std::allocator<ioHashString> >::_Grow_to
_TEXT	ENDS
PUBLIC	??$_Cons_val@V?$allocator@VioHashString@@@std@@VioHashString@@AAV3@@std@@YAXAAV?$allocator@VioHashString@@@0@PAVioHashString@@AAV2@@Z ; std::_Cons_val<std::allocator<ioHashString>,ioHashString,ioHashString &>
; Function compile flags: /Ogsp
; File c:\program files (x86)\microsoft visual studio 10.0\vc\include\xmemory
;	COMDAT ??$_Cons_val@V?$allocator@VioHashString@@@std@@VioHashString@@AAV3@@std@@YAXAAV?$allocator@VioHashString@@@0@PAVioHashString@@AAV2@@Z
_TEXT	SEGMENT
__Alval$ = 8						; size = 4
__Pdest$ = 12						; size = 4
__Src$ = 16						; size = 4
??$_Cons_val@V?$allocator@VioHashString@@@std@@VioHashString@@AAV3@@std@@YAXAAV?$allocator@VioHashString@@@0@PAVioHashString@@AAV2@@Z PROC ; std::_Cons_val<std::allocator<ioHashString>,ioHashString,ioHashString &>, COMDAT

; 279  : 	{	// construct using allocator

  00000	55		 push	 ebp
  00001	8b ec		 mov	 ebp, esp

; 280  : 	_Alval.construct(_Pdest, _STD forward<_Ty2>(_Src));

  00003	ff 75 10	 push	 DWORD PTR __Src$[ebp]
  00006	8b 4d 08	 mov	 ecx, DWORD PTR __Alval$[ebp]
  00009	ff 75 0c	 push	 DWORD PTR __Pdest$[ebp]
  0000c	e8 00 00 00 00	 call	 ??$construct@AAVioHashString@@@?$allocator@VioHashString@@@std@@QAEXPAVioHashString@@AAV2@@Z ; std::allocator<ioHashString>::construct<ioHashString &>

; 281  : 	}

  00011	5d		 pop	 ebp
  00012	c3		 ret	 0
??$_Cons_val@V?$allocator@VioHashString@@@std@@VioHashString@@AAV3@@std@@YAXAAV?$allocator@VioHashString@@@0@PAVioHashString@@AAV2@@Z ENDP ; std::_Cons_val<std::allocator<ioHashString>,ioHashString,ioHashString &>
_TEXT	ENDS
PUBLIC	??$_Cons_val@V?$allocator@UForceInfo@@@std@@UForceInfo@@ABU3@@std@@YAXAAV?$allocator@UForceInfo@@@0@PAUForceInfo@@ABU2@@Z ; std::_Cons_val<std::allocator<ForceInfo>,ForceInfo,ForceInfo const &>
; Function compile flags: /Ogsp
;	COMDAT ??$_Cons_val@V?$allocator@UForceInfo@@@std@@UForceInfo@@ABU3@@std@@YAXAAV?$allocator@UForceInfo@@@0@PAUForceInfo@@ABU2@@Z
_TEXT	SEGMENT
__Alval$ = 8						; size = 4
__Pdest$ = 12						; size = 4
__Src$ = 16						; size = 4
??$_Cons_val@V?$allocator@UForceInfo@@@std@@UForceInfo@@ABU3@@std@@YAXAAV?$allocator@UForceInfo@@@0@PAUForceInfo@@ABU2@@Z PROC ; std::_Cons_val<std::allocator<ForceInfo>,ForceInfo,ForceInfo const &>, COMDAT

; 279  : 	{	// construct using allocator

  00000	55		 push	 ebp
  00001	8b ec		 mov	 ebp, esp
  00003	57		 push	 edi

; 280  : 	_Alval.construct(_Pdest, _STD forward<_Ty2>(_Src));

  00004	8b 7d 0c	 mov	 edi, DWORD PTR __Pdest$[ebp]
  00007	85 ff		 test	 edi, edi
  00009	74 08		 je	 SHORT $LN9@Cons_val
  0000b	56		 push	 esi
  0000c	8b 75 10	 mov	 esi, DWORD PTR __Src$[ebp]
  0000f	a5		 movsd
  00010	a5		 movsd
  00011	a5		 movsd
  00012	5e		 pop	 esi
$LN9@Cons_val:
  00013	5f		 pop	 edi

; 281  : 	}

  00014	5d		 pop	 ebp
  00015	c3		 ret	 0
??$_Cons_val@V?$allocator@UForceInfo@@@std@@UForceInfo@@ABU3@@std@@YAXAAV?$allocator@UForceInfo@@@0@PAUForceInfo@@ABU2@@Z ENDP ; std::_Cons_val<std::allocator<ForceInfo>,ForceInfo,ForceInfo const &>
_TEXT	ENDS
PUBLIC	?construct@?$allocator@UWeaponInfo@@@std@@QAEXPAUWeaponInfo@@ABU3@@Z ; std::allocator<WeaponInfo>::construct
; Function compile flags: /Ogsp
;	COMDAT ?construct@?$allocator@UWeaponInfo@@@std@@QAEXPAUWeaponInfo@@ABU3@@Z
_TEXT	SEGMENT
__Ptr$ = 8						; size = 4
__Val$ = 12						; size = 4
?construct@?$allocator@UWeaponInfo@@@std@@QAEXPAUWeaponInfo@@ABU3@@Z PROC ; std::allocator<WeaponInfo>::construct, COMDAT
; _this$ = ecx

; 196  : 		{	// construct object at _Ptr with value _Val

  00000	55		 push	 ebp
  00001	8b ec		 mov	 ebp, esp

; 197  : 		_Construct(_Ptr, _Val);

  00003	ff 75 0c	 push	 DWORD PTR __Val$[ebp]
  00006	ff 75 08	 push	 DWORD PTR __Ptr$[ebp]
  00009	e8 00 00 00 00	 call	 ??$_Construct@UWeaponInfo@@ABU1@@std@@YAXPAUWeaponInfo@@ABU1@@Z ; std::_Construct<WeaponInfo,WeaponInfo const &>
  0000e	59		 pop	 ecx
  0000f	59		 pop	 ecx

; 198  : 		}

  00010	5d		 pop	 ebp
  00011	c2 08 00	 ret	 8
?construct@?$allocator@UWeaponInfo@@@std@@QAEXPAUWeaponInfo@@ABU3@@Z ENDP ; std::allocator<WeaponInfo>::construct
_TEXT	ENDS
PUBLIC	??0?$vector@VioHashString@@V?$allocator@VioHashString@@@std@@@std@@QAE@XZ ; std::vector<ioHashString,std::allocator<ioHashString> >::vector<ioHashString,std::allocator<ioHashString> >
; Function compile flags: /Ogsp
; File c:\program files (x86)\microsoft visual studio 10.0\vc\include\vector
;	COMDAT ??0?$vector@VioHashString@@V?$allocator@VioHashString@@@std@@@std@@QAE@XZ
_TEXT	SEGMENT
??0?$vector@VioHashString@@V?$allocator@VioHashString@@@std@@@std@@QAE@XZ PROC ; std::vector<ioHashString,std::allocator<ioHashString> >::vector<ioHashString,std::allocator<ioHashString> >, COMDAT
; _this$ = ecx

; 507  : 		{	// construct empty vector

  00000	8b c1		 mov	 eax, ecx
  00002	33 c9		 xor	 ecx, ecx
  00004	89 08		 mov	 DWORD PTR [eax], ecx
  00006	89 48 04	 mov	 DWORD PTR [eax+4], ecx
  00009	89 48 08	 mov	 DWORD PTR [eax+8], ecx

; 508  : 		}

  0000c	c3		 ret	 0
??0?$vector@VioHashString@@V?$allocator@VioHashString@@@std@@@std@@QAE@XZ ENDP ; std::vector<ioHashString,std::allocator<ioHashString> >::vector<ioHashString,std::allocator<ioHashString> >
_TEXT	ENDS
PUBLIC	??0?$vector@UWeaponInfo@@V?$allocator@UWeaponInfo@@@std@@@std@@QAE@XZ ; std::vector<WeaponInfo,std::allocator<WeaponInfo> >::vector<WeaponInfo,std::allocator<WeaponInfo> >
; Function compile flags: /Ogsp
;	COMDAT ??0?$vector@UWeaponInfo@@V?$allocator@UWeaponInfo@@@std@@@std@@QAE@XZ
_TEXT	SEGMENT
??0?$vector@UWeaponInfo@@V?$allocator@UWeaponInfo@@@std@@@std@@QAE@XZ PROC ; std::vector<WeaponInfo,std::allocator<WeaponInfo> >::vector<WeaponInfo,std::allocator<WeaponInfo> >, COMDAT
; _this$ = ecx

; 507  : 		{	// construct empty vector

  00000	8b c1		 mov	 eax, ecx
  00002	33 c9		 xor	 ecx, ecx
  00004	89 08		 mov	 DWORD PTR [eax], ecx
  00006	89 48 04	 mov	 DWORD PTR [eax+4], ecx
  00009	89 48 08	 mov	 DWORD PTR [eax+8], ecx

; 508  : 		}

  0000c	c3		 ret	 0
??0?$vector@UWeaponInfo@@V?$allocator@UWeaponInfo@@@std@@@std@@QAE@XZ ENDP ; std::vector<WeaponInfo,std::allocator<WeaponInfo> >::vector<WeaponInfo,std::allocator<WeaponInfo> >
_TEXT	ENDS
PUBLIC	??0?$vector@UForceInfo@@V?$allocator@UForceInfo@@@std@@@std@@QAE@XZ ; std::vector<ForceInfo,std::allocator<ForceInfo> >::vector<ForceInfo,std::allocator<ForceInfo> >
; Function compile flags: /Ogsp
;	COMDAT ??0?$vector@UForceInfo@@V?$allocator@UForceInfo@@@std@@@std@@QAE@XZ
_TEXT	SEGMENT
??0?$vector@UForceInfo@@V?$allocator@UForceInfo@@@std@@@std@@QAE@XZ PROC ; std::vector<ForceInfo,std::allocator<ForceInfo> >::vector<ForceInfo,std::allocator<ForceInfo> >, COMDAT
; _this$ = ecx

; 507  : 		{	// construct empty vector

  00000	8b c1		 mov	 eax, ecx
  00002	33 c9		 xor	 ecx, ecx
  00004	89 08		 mov	 DWORD PTR [eax], ecx
  00006	89 48 04	 mov	 DWORD PTR [eax+4], ecx
  00009	89 48 08	 mov	 DWORD PTR [eax+8], ecx

; 508  : 		}

  0000c	c3		 ret	 0
??0?$vector@UForceInfo@@V?$allocator@UForceInfo@@@std@@@std@@QAE@XZ ENDP ; std::vector<ForceInfo,std::allocator<ForceInfo> >::vector<ForceInfo,std::allocator<ForceInfo> >
_TEXT	ENDS
PUBLIC	??0?$CEncrypt@M@@QAE@ABM@Z			; CEncrypt<float>::CEncrypt<float>
;	COMDAT xdata$x
; File d:\lost saga for developer\youtube\tutorial\source\src\lsclient\encryptvalue.h
xdata$x	SEGMENT
__unwindtable$??0?$CEncrypt@M@@QAE@ABM@Z DD 0ffffffffH
	DD	FLAT:__unwindfunclet$??0?$CEncrypt@M@@QAE@ABM@Z$0
__ehfuncinfo$??0?$CEncrypt@M@@QAE@ABM@Z DD 019930522H
	DD	01H
	DD	FLAT:__unwindtable$??0?$CEncrypt@M@@QAE@ABM@Z
	DD	2 DUP(00H)
	DD	2 DUP(00H)
	DD	00H
	DD	01H
; Function compile flags: /Ogsp
xdata$x	ENDS
;	COMDAT ??0?$CEncrypt@M@@QAE@ABM@Z
_TEXT	SEGMENT
_this$ = -16						; size = 4
__$EHRec$ = -12						; size = 12
_value$555943 = 8					; size = 4
_inValue$ = 8						; size = 4
??0?$CEncrypt@M@@QAE@ABM@Z PROC				; CEncrypt<float>::CEncrypt<float>, COMDAT
; _this$ = ecx

; 114  : 	CEncrypt( const type &inValue )        //     

  00000	6a 04		 push	 4
  00002	b8 00 00 00 00	 mov	 eax, __ehhandler$??0?$CEncrypt@M@@QAE@ABM@Z
  00007	e8 00 00 00 00	 call	 __EH_prolog3
  0000c	8b f1		 mov	 esi, ecx
  0000e	89 75 f0	 mov	 DWORD PTR _this$[ebp], esi
  00011	8d 4e 0c	 lea	 ecx, DWORD PTR [esi+12]
  00014	c7 06 00 00 00
	00		 mov	 DWORD PTR [esi], OFFSET ??_7?$CEncrypt@M@@6B@
  0001a	e8 00 00 00 00	 call	 ??0ccddaabb@@QAE@XZ	; ccddaabb::ccddaabb
  0001f	83 65 fc 00	 and	 DWORD PTR __$EHRec$[ebp+8], 0

; 115  : 	{
; 116  : 		Init();

  00023	8b ce		 mov	 ecx, esi
  00025	e8 00 00 00 00	 call	 ?Init@?$CEncrypt@M@@AAEXXZ ; CEncrypt<float>::Init

; 117  : 		*this = inValue;

  0002a	8b 45 08	 mov	 eax, DWORD PTR _inValue$[ebp]
  0002d	f3 0f 10 00	 movss	 xmm0, DWORD PTR [eax]
  00031	8d 45 08	 lea	 eax, DWORD PTR _value$555943[ebp]
  00034	50		 push	 eax
  00035	8b ce		 mov	 ecx, esi
  00037	f3 0f 11 45 08	 movss	 DWORD PTR _value$555943[ebp], xmm0
  0003c	e8 00 00 00 00	 call	 ?EncryptValueToPool@?$CEncrypt@M@@AAEXPBD@Z ; CEncrypt<float>::EncryptValueToPool

; 118  : 	}

  00041	8b c6		 mov	 eax, esi
  00043	e8 00 00 00 00	 call	 __EH_epilog3
  00048	c2 04 00	 ret	 4
_TEXT	ENDS
;	COMDAT text$x
text$x	SEGMENT
__unwindfunclet$??0?$CEncrypt@M@@QAE@ABM@Z$0:
  00000	8b 4d f0	 mov	 ecx, DWORD PTR _this$[ebp]
  00003	83 c1 0c	 add	 ecx, 12			; 0000000cH
  00006	e9 00 00 00 00	 jmp	 ??1ccddaabb@@UAE@XZ	; ccddaabb::~ccddaabb
__ehhandler$??0?$CEncrypt@M@@QAE@ABM@Z:
  0000b	8b 54 24 08	 mov	 edx, DWORD PTR [esp+8]
  0000f	8d 42 0c	 lea	 eax, DWORD PTR [edx+12]
  00012	8b 4a ec	 mov	 ecx, DWORD PTR [edx-20]
  00015	33 c8		 xor	 ecx, eax
  00017	e8 00 00 00 00	 call	 @__security_check_cookie@4
  0001c	b8 00 00 00 00	 mov	 eax, OFFSET __ehfuncinfo$??0?$CEncrypt@M@@QAE@ABM@Z
  00021	e9 00 00 00 00	 jmp	 ___CxxFrameHandler3
text$x	ENDS
??0?$CEncrypt@M@@QAE@ABM@Z ENDP				; CEncrypt<float>::CEncrypt<float>
PUBLIC	??0?$CEncrypt@M@@QAE@ABV0@@Z			; CEncrypt<float>::CEncrypt<float>
;	COMDAT xdata$x
xdata$x	SEGMENT
__unwindtable$??0?$CEncrypt@M@@QAE@ABV0@@Z DD 0ffffffffH
	DD	FLAT:__unwindfunclet$??0?$CEncrypt@M@@QAE@ABV0@@Z$0
__ehfuncinfo$??0?$CEncrypt@M@@QAE@ABV0@@Z DD 019930522H
	DD	01H
	DD	FLAT:__unwindtable$??0?$CEncrypt@M@@QAE@ABV0@@Z
	DD	2 DUP(00H)
	DD	2 DUP(00H)
	DD	00H
	DD	01H
; Function compile flags: /Ogsp
xdata$x	ENDS
;	COMDAT ??0?$CEncrypt@M@@QAE@ABV0@@Z
_TEXT	SEGMENT
_this$ = -16						; size = 4
__$EHRec$ = -12						; size = 12
_value$555962 = 8					; size = 4
_value$555957 = 8					; size = 4
_inValue$ = 8						; size = 4
??0?$CEncrypt@M@@QAE@ABV0@@Z PROC			; CEncrypt<float>::CEncrypt<float>, COMDAT
; _this$ = ecx

; 120  : 	CEncrypt( const CEncrypt<type> &inValue )   //     

  00000	6a 04		 push	 4
  00002	b8 00 00 00 00	 mov	 eax, __ehhandler$??0?$CEncrypt@M@@QAE@ABV0@@Z
  00007	e8 00 00 00 00	 call	 __EH_prolog3
  0000c	8b f1		 mov	 esi, ecx
  0000e	89 75 f0	 mov	 DWORD PTR _this$[ebp], esi
  00011	8d 4e 0c	 lea	 ecx, DWORD PTR [esi+12]
  00014	c7 06 00 00 00
	00		 mov	 DWORD PTR [esi], OFFSET ??_7?$CEncrypt@M@@6B@
  0001a	e8 00 00 00 00	 call	 ??0ccddaabb@@QAE@XZ	; ccddaabb::ccddaabb
  0001f	83 65 fc 00	 and	 DWORD PTR __$EHRec$[ebp+8], 0

; 121  : 	{
; 122  : 		Init();

  00023	8b ce		 mov	 ecx, esi
  00025	e8 00 00 00 00	 call	 ?Init@?$CEncrypt@M@@AAEXXZ ; CEncrypt<float>::Init

; 123  : 		*this = inValue;

  0002a	8b 4d 08	 mov	 ecx, DWORD PTR _inValue$[ebp]
  0002d	8d 45 08	 lea	 eax, DWORD PTR _value$555957[ebp]
  00030	50		 push	 eax
  00031	e8 00 00 00 00	 call	 ?DecryptValueToPool@?$CEncrypt@M@@QAEXPAM@Z ; CEncrypt<float>::DecryptValueToPool
  00036	f3 0f 10 45 08	 movss	 xmm0, DWORD PTR _value$555957[ebp]
  0003b	8d 45 08	 lea	 eax, DWORD PTR _value$555962[ebp]
  0003e	50		 push	 eax
  0003f	8b ce		 mov	 ecx, esi
  00041	f3 0f 11 45 08	 movss	 DWORD PTR _value$555962[ebp], xmm0
  00046	e8 00 00 00 00	 call	 ?EncryptValueToPool@?$CEncrypt@M@@AAEXPBD@Z ; CEncrypt<float>::EncryptValueToPool

; 124  : 	}

  0004b	8b c6		 mov	 eax, esi
  0004d	e8 00 00 00 00	 call	 __EH_epilog3
  00052	c2 04 00	 ret	 4
_TEXT	ENDS
;	COMDAT text$x
text$x	SEGMENT
__unwindfunclet$??0?$CEncrypt@M@@QAE@ABV0@@Z$0:
  00000	8b 4d f0	 mov	 ecx, DWORD PTR _this$[ebp]
  00003	83 c1 0c	 add	 ecx, 12			; 0000000cH
  00006	e9 00 00 00 00	 jmp	 ??1ccddaabb@@UAE@XZ	; ccddaabb::~ccddaabb
__ehhandler$??0?$CEncrypt@M@@QAE@ABV0@@Z:
  0000b	8b 54 24 08	 mov	 edx, DWORD PTR [esp+8]
  0000f	8d 42 0c	 lea	 eax, DWORD PTR [edx+12]
  00012	8b 4a ec	 mov	 ecx, DWORD PTR [edx-20]
  00015	33 c8		 xor	 ecx, eax
  00017	e8 00 00 00 00	 call	 @__security_check_cookie@4
  0001c	b8 00 00 00 00	 mov	 eax, OFFSET __ehfuncinfo$??0?$CEncrypt@M@@QAE@ABV0@@Z
  00021	e9 00 00 00 00	 jmp	 ___CxxFrameHandler3
text$x	ENDS
??0?$CEncrypt@M@@QAE@ABV0@@Z ENDP			; CEncrypt<float>::CEncrypt<float>
PUBLIC	?_Buy@?$vector@VioHashString@@V?$allocator@VioHashString@@@std@@@std@@IAE_NI@Z ; std::vector<ioHashString,std::allocator<ioHashString> >::_Buy
; Function compile flags: /Ogsp
; File c:\program files (x86)\microsoft visual studio 10.0\vc\include\vector
;	COMDAT ?_Buy@?$vector@VioHashString@@V?$allocator@VioHashString@@@std@@@std@@IAE_NI@Z
_TEXT	SEGMENT
__Capacity$ = 8						; size = 4
?_Buy@?$vector@VioHashString@@V?$allocator@VioHashString@@@std@@@std@@IAE_NI@Z PROC ; std::vector<ioHashString,std::allocator<ioHashString> >::_Buy, COMDAT
; _this$ = ecx

; 1250 : 		{	// allocate array with _Capacity elements

  00000	55		 push	 ebp
  00001	8b ec		 mov	 ebp, esp
  00003	56		 push	 esi

; 1251 : 		this->_Myfirst = 0;

  00004	33 c0		 xor	 eax, eax
  00006	57		 push	 edi

; 1252 : 		this->_Mylast = 0;
; 1253 : 		this->_Myend = 0;
; 1254 : 
; 1255 : 		if (_Capacity == 0)

  00007	8b 7d 08	 mov	 edi, DWORD PTR __Capacity$[ebp]
  0000a	8b f1		 mov	 esi, ecx
  0000c	89 06		 mov	 DWORD PTR [esi], eax
  0000e	89 46 04	 mov	 DWORD PTR [esi+4], eax
  00011	89 46 08	 mov	 DWORD PTR [esi+8], eax
  00014	3b f8		 cmp	 edi, eax
  00016	75 04		 jne	 SHORT $LN4@Buy

; 1256 : 			return (false);

  00018	32 c0		 xor	 al, al
  0001a	eb 2b		 jmp	 SHORT $LN5@Buy
$LN4@Buy:

; 1257 : 		else if (max_size() < _Capacity)

  0001c	81 ff ff ff ff
	0f		 cmp	 edi, 268435455		; 0fffffffH
  00022	76 0b		 jbe	 SHORT $LN2@Buy

; 1258 : 			_Xlen();	// result too long

  00024	68 00 00 00 00	 push	 OFFSET ??_C@_0BD@OLBABOEK@vector?$DMT?$DO?5too?5long?$AA@
  00029	ff 15 00 00 00
	00		 call	 DWORD PTR __imp_?_Xlength_error@std@@YAXPBD@Z
$LN19@Buy:
$LN2@Buy:

; 1259 : 		else
; 1260 : 			{	// nonempty array, allocate storage
; 1261 : 			this->_Myfirst = this->_Alval.allocate(_Capacity);

  0002f	50		 push	 eax
  00030	57		 push	 edi
  00031	e8 00 00 00 00	 call	 ??$_Allocate@VioHashString@@@std@@YAPAVioHashString@@IPAV1@@Z ; std::_Allocate<ioHashString>

; 1262 : 			this->_Mylast = this->_Myfirst;
; 1263 : 			this->_Myend = this->_Myfirst + _Capacity;

  00036	c1 e7 04	 shl	 edi, 4
  00039	03 f8		 add	 edi, eax
  0003b	59		 pop	 ecx
  0003c	89 06		 mov	 DWORD PTR [esi], eax
  0003e	89 46 04	 mov	 DWORD PTR [esi+4], eax
  00041	59		 pop	 ecx
  00042	89 7e 08	 mov	 DWORD PTR [esi+8], edi

; 1264 : 			}
; 1265 : 		return (true);

  00045	b0 01		 mov	 al, 1
$LN5@Buy:
  00047	5f		 pop	 edi
  00048	5e		 pop	 esi

; 1266 : 		}

  00049	5d		 pop	 ebp
  0004a	c2 04 00	 ret	 4
$LN18@Buy:
?_Buy@?$vector@VioHashString@@V?$allocator@VioHashString@@@std@@@std@@IAE_NI@Z ENDP ; std::vector<ioHashString,std::allocator<ioHashString> >::_Buy
_TEXT	ENDS
PUBLIC	??9?$_Vector_const_iterator@V?$_Vector_val@VioHashString@@V?$allocator@VioHashString@@@std@@@std@@@std@@QBE_NABV01@@Z ; std::_Vector_const_iterator<std::_Vector_val<ioHashString,std::allocator<ioHashString> > >::operator!=
; Function compile flags: /Ogsp
;	COMDAT ??9?$_Vector_const_iterator@V?$_Vector_val@VioHashString@@V?$allocator@VioHashString@@@std@@@std@@@std@@QBE_NABV01@@Z
_TEXT	SEGMENT
__Right$ = 8						; size = 4
??9?$_Vector_const_iterator@V?$_Vector_val@VioHashString@@V?$allocator@VioHashString@@@std@@@std@@@std@@QBE_NABV01@@Z PROC ; std::_Vector_const_iterator<std::_Vector_val<ioHashString,std::allocator<ioHashString> > >::operator!=, COMDAT
; _this$ = ecx

; 207  : 		{	// test for iterator inequality

  00000	55		 push	 ebp
  00001	8b ec		 mov	 ebp, esp

; 208  : 		return (!(*this == _Right));

  00003	8b 01		 mov	 eax, DWORD PTR [ecx]
  00005	8b 55 08	 mov	 edx, DWORD PTR __Right$[ebp]
  00008	33 c9		 xor	 ecx, ecx
  0000a	3b 02		 cmp	 eax, DWORD PTR [edx]
  0000c	0f 95 c0	 setne	 al

; 209  : 		}

  0000f	5d		 pop	 ebp
  00010	c2 04 00	 ret	 4
??9?$_Vector_const_iterator@V?$_Vector_val@VioHashString@@V?$allocator@VioHashString@@@std@@@std@@@std@@QBE_NABV01@@Z ENDP ; std::_Vector_const_iterator<std::_Vector_val<ioHashString,std::allocator<ioHashString> > >::operator!=
_TEXT	ENDS
PUBLIC	??$_Move@PAVioHashString@@PAV1@@std@@YAPAVioHashString@@PAV1@00@Z ; std::_Move<ioHashString *,ioHashString *>
; Function compile flags: /Ogsp
; File c:\program files (x86)\microsoft visual studio 10.0\vc\include\xutility
;	COMDAT ??$_Move@PAVioHashString@@PAV1@@std@@YAPAVioHashString@@PAV1@00@Z
_TEXT	SEGMENT
__Cat$556013 = -4					; size = 1
__First$ = 8						; size = 4
__Last$ = 12						; size = 4
__Dest$ = 16						; size = 4
??$_Move@PAVioHashString@@PAV1@@std@@YAPAVioHashString@@PAV1@00@Z PROC ; std::_Move<ioHashString *,ioHashString *>, COMDAT

; 2533 : 	{	// move [_First, _Last) to [_Dest, ...), unchecked

  00000	55		 push	 ebp
  00001	8b ec		 mov	 ebp, esp
  00003	51		 push	 ecx

; 2534 : 	return (_Move(_First, _Last,
; 2535 : 		_Dest, _Ptr_cat(_First, _Dest)));

  00004	ff 75 fc	 push	 DWORD PTR __Cat$556013[ebp]
  00007	ff 75 10	 push	 DWORD PTR __Dest$[ebp]
  0000a	ff 75 0c	 push	 DWORD PTR __Last$[ebp]
  0000d	ff 75 08	 push	 DWORD PTR __First$[ebp]
  00010	e8 00 00 00 00	 call	 ??$_Move@PAVioHashString@@PAV1@@std@@YAPAVioHashString@@PAV1@00U_Nonscalar_ptr_iterator_tag@0@@Z ; std::_Move<ioHashString *,ioHashString *>
  00015	83 c4 10	 add	 esp, 16			; 00000010H

; 2536 : 	}

  00018	c9		 leave
  00019	c3		 ret	 0
??$_Move@PAVioHashString@@PAV1@@std@@YAPAVioHashString@@PAV1@00@Z ENDP ; std::_Move<ioHashString *,ioHashString *>
_TEXT	ENDS
PUBLIC	?_Buy@?$vector@UWeaponInfo@@V?$allocator@UWeaponInfo@@@std@@@std@@IAE_NI@Z ; std::vector<WeaponInfo,std::allocator<WeaponInfo> >::_Buy
; Function compile flags: /Ogsp
; File c:\program files (x86)\microsoft visual studio 10.0\vc\include\vector
;	COMDAT ?_Buy@?$vector@UWeaponInfo@@V?$allocator@UWeaponInfo@@@std@@@std@@IAE_NI@Z
_TEXT	SEGMENT
__Capacity$ = 8						; size = 4
?_Buy@?$vector@UWeaponInfo@@V?$allocator@UWeaponInfo@@@std@@@std@@IAE_NI@Z PROC ; std::vector<WeaponInfo,std::allocator<WeaponInfo> >::_Buy, COMDAT
; _this$ = ecx

; 1250 : 		{	// allocate array with _Capacity elements

  00000	55		 push	 ebp
  00001	8b ec		 mov	 ebp, esp
  00003	56		 push	 esi

; 1251 : 		this->_Myfirst = 0;

  00004	33 c0		 xor	 eax, eax
  00006	57		 push	 edi

; 1252 : 		this->_Mylast = 0;
; 1253 : 		this->_Myend = 0;
; 1254 : 
; 1255 : 		if (_Capacity == 0)

  00007	8b 7d 08	 mov	 edi, DWORD PTR __Capacity$[ebp]
  0000a	8b f1		 mov	 esi, ecx
  0000c	89 06		 mov	 DWORD PTR [esi], eax
  0000e	89 46 04	 mov	 DWORD PTR [esi+4], eax
  00011	89 46 08	 mov	 DWORD PTR [esi+8], eax
  00014	3b f8		 cmp	 edi, eax
  00016	75 04		 jne	 SHORT $LN4@Buy@2

; 1256 : 			return (false);

  00018	32 c0		 xor	 al, al
  0001a	eb 2b		 jmp	 SHORT $LN5@Buy@2
$LN4@Buy@2:

; 1257 : 		else if (max_size() < _Capacity)

  0001c	81 ff 66 66 66
	06		 cmp	 edi, 107374182		; 06666666H
  00022	76 0b		 jbe	 SHORT $LN2@Buy@2

; 1258 : 			_Xlen();	// result too long

  00024	68 00 00 00 00	 push	 OFFSET ??_C@_0BD@OLBABOEK@vector?$DMT?$DO?5too?5long?$AA@
  00029	ff 15 00 00 00
	00		 call	 DWORD PTR __imp_?_Xlength_error@std@@YAXPBD@Z
$LN19@Buy@2:
$LN2@Buy@2:

; 1259 : 		else
; 1260 : 			{	// nonempty array, allocate storage
; 1261 : 			this->_Myfirst = this->_Alval.allocate(_Capacity);

  0002f	50		 push	 eax
  00030	57		 push	 edi
  00031	e8 00 00 00 00	 call	 ??$_Allocate@UWeaponInfo@@@std@@YAPAUWeaponInfo@@IPAU1@@Z ; std::_Allocate<WeaponInfo>

; 1262 : 			this->_Mylast = this->_Myfirst;
; 1263 : 			this->_Myend = this->_Myfirst + _Capacity;

  00036	6b ff 28	 imul	 edi, 40			; 00000028H
  00039	03 f8		 add	 edi, eax
  0003b	59		 pop	 ecx
  0003c	89 06		 mov	 DWORD PTR [esi], eax
  0003e	89 46 04	 mov	 DWORD PTR [esi+4], eax
  00041	59		 pop	 ecx
  00042	89 7e 08	 mov	 DWORD PTR [esi+8], edi

; 1264 : 			}
; 1265 : 		return (true);

  00045	b0 01		 mov	 al, 1
$LN5@Buy@2:
  00047	5f		 pop	 edi
  00048	5e		 pop	 esi

; 1266 : 		}

  00049	5d		 pop	 ebp
  0004a	c2 04 00	 ret	 4
$LN18@Buy@2:
?_Buy@?$vector@UWeaponInfo@@V?$allocator@UWeaponInfo@@@std@@@std@@IAE_NI@Z ENDP ; std::vector<WeaponInfo,std::allocator<WeaponInfo> >::_Buy
_TEXT	ENDS
PUBLIC	?_Buy@?$vector@UForceInfo@@V?$allocator@UForceInfo@@@std@@@std@@IAE_NI@Z ; std::vector<ForceInfo,std::allocator<ForceInfo> >::_Buy
; Function compile flags: /Ogsp
;	COMDAT ?_Buy@?$vector@UForceInfo@@V?$allocator@UForceInfo@@@std@@@std@@IAE_NI@Z
_TEXT	SEGMENT
__Capacity$ = 8						; size = 4
?_Buy@?$vector@UForceInfo@@V?$allocator@UForceInfo@@@std@@@std@@IAE_NI@Z PROC ; std::vector<ForceInfo,std::allocator<ForceInfo> >::_Buy, COMDAT
; _this$ = ecx

; 1250 : 		{	// allocate array with _Capacity elements

  00000	55		 push	 ebp
  00001	8b ec		 mov	 ebp, esp
  00003	56		 push	 esi

; 1251 : 		this->_Myfirst = 0;

  00004	33 c0		 xor	 eax, eax
  00006	57		 push	 edi

; 1252 : 		this->_Mylast = 0;
; 1253 : 		this->_Myend = 0;
; 1254 : 
; 1255 : 		if (_Capacity == 0)

  00007	8b 7d 08	 mov	 edi, DWORD PTR __Capacity$[ebp]
  0000a	8b f1		 mov	 esi, ecx
  0000c	89 06		 mov	 DWORD PTR [esi], eax
  0000e	89 46 04	 mov	 DWORD PTR [esi+4], eax
  00011	89 46 08	 mov	 DWORD PTR [esi+8], eax
  00014	3b f8		 cmp	 edi, eax
  00016	75 04		 jne	 SHORT $LN4@Buy@3

; 1256 : 			return (false);

  00018	32 c0		 xor	 al, al
  0001a	eb 2b		 jmp	 SHORT $LN5@Buy@3
$LN4@Buy@3:

; 1257 : 		else if (max_size() < _Capacity)

  0001c	81 ff 55 55 55
	15		 cmp	 edi, 357913941		; 15555555H
  00022	76 0b		 jbe	 SHORT $LN2@Buy@3

; 1258 : 			_Xlen();	// result too long

  00024	68 00 00 00 00	 push	 OFFSET ??_C@_0BD@OLBABOEK@vector?$DMT?$DO?5too?5long?$AA@
  00029	ff 15 00 00 00
	00		 call	 DWORD PTR __imp_?_Xlength_error@std@@YAXPBD@Z
$LN19@Buy@3:
$LN2@Buy@3:

; 1259 : 		else
; 1260 : 			{	// nonempty array, allocate storage
; 1261 : 			this->_Myfirst = this->_Alval.allocate(_Capacity);

  0002f	50		 push	 eax
  00030	57		 push	 edi
  00031	e8 00 00 00 00	 call	 ??$_Allocate@UForceInfo@@@std@@YAPAUForceInfo@@IPAU1@@Z ; std::_Allocate<ForceInfo>

; 1262 : 			this->_Mylast = this->_Myfirst;
; 1263 : 			this->_Myend = this->_Myfirst + _Capacity;

  00036	6b ff 0c	 imul	 edi, 12			; 0000000cH
  00039	03 f8		 add	 edi, eax
  0003b	59		 pop	 ecx
  0003c	89 06		 mov	 DWORD PTR [esi], eax
  0003e	89 46 04	 mov	 DWORD PTR [esi+4], eax
  00041	59		 pop	 ecx
  00042	89 7e 08	 mov	 DWORD PTR [esi+8], edi

; 1264 : 			}
; 1265 : 		return (true);

  00045	b0 01		 mov	 al, 1
$LN5@Buy@3:
  00047	5f		 pop	 edi
  00048	5e		 pop	 esi

; 1266 : 		}

  00049	5d		 pop	 ebp
  0004a	c2 04 00	 ret	 4
$LN18@Buy@3:
?_Buy@?$vector@UForceInfo@@V?$allocator@UForceInfo@@@std@@@std@@IAE_NI@Z ENDP ; std::vector<ForceInfo,std::allocator<ForceInfo> >::_Buy
_TEXT	ENDS
PUBLIC	??9?$_Vector_const_iterator@V?$_Vector_val@UWeaponInfo@@V?$allocator@UWeaponInfo@@@std@@@std@@@std@@QBE_NABV01@@Z ; std::_Vector_const_iterator<std::_Vector_val<WeaponInfo,std::allocator<WeaponInfo> > >::operator!=
; Function compile flags: /Ogsp
;	COMDAT ??9?$_Vector_const_iterator@V?$_Vector_val@UWeaponInfo@@V?$allocator@UWeaponInfo@@@std@@@std@@@std@@QBE_NABV01@@Z
_TEXT	SEGMENT
__Right$ = 8						; size = 4
??9?$_Vector_const_iterator@V?$_Vector_val@UWeaponInfo@@V?$allocator@UWeaponInfo@@@std@@@std@@@std@@QBE_NABV01@@Z PROC ; std::_Vector_const_iterator<std::_Vector_val<WeaponInfo,std::allocator<WeaponInfo> > >::operator!=, COMDAT
; _this$ = ecx

; 207  : 		{	// test for iterator inequality

  00000	55		 push	 ebp
  00001	8b ec		 mov	 ebp, esp

; 208  : 		return (!(*this == _Right));

  00003	8b 01		 mov	 eax, DWORD PTR [ecx]
  00005	8b 55 08	 mov	 edx, DWORD PTR __Right$[ebp]
  00008	33 c9		 xor	 ecx, ecx
  0000a	3b 02		 cmp	 eax, DWORD PTR [edx]
  0000c	0f 95 c0	 setne	 al

; 209  : 		}

  0000f	5d		 pop	 ebp
  00010	c2 04 00	 ret	 4
??9?$_Vector_const_iterator@V?$_Vector_val@UWeaponInfo@@V?$allocator@UWeaponInfo@@@std@@@std@@@std@@QBE_NABV01@@Z ENDP ; std::_Vector_const_iterator<std::_Vector_val<WeaponInfo,std::allocator<WeaponInfo> > >::operator!=
_TEXT	ENDS
PUBLIC	??9?$_Vector_const_iterator@V?$_Vector_val@UForceInfo@@V?$allocator@UForceInfo@@@std@@@std@@@std@@QBE_NABV01@@Z ; std::_Vector_const_iterator<std::_Vector_val<ForceInfo,std::allocator<ForceInfo> > >::operator!=
; Function compile flags: /Ogsp
;	COMDAT ??9?$_Vector_const_iterator@V?$_Vector_val@UForceInfo@@V?$allocator@UForceInfo@@@std@@@std@@@std@@QBE_NABV01@@Z
_TEXT	SEGMENT
__Right$ = 8						; size = 4
??9?$_Vector_const_iterator@V?$_Vector_val@UForceInfo@@V?$allocator@UForceInfo@@@std@@@std@@@std@@QBE_NABV01@@Z PROC ; std::_Vector_const_iterator<std::_Vector_val<ForceInfo,std::allocator<ForceInfo> > >::operator!=, COMDAT
; _this$ = ecx

; 207  : 		{	// test for iterator inequality

  00000	55		 push	 ebp
  00001	8b ec		 mov	 ebp, esp

; 208  : 		return (!(*this == _Right));

  00003	8b 01		 mov	 eax, DWORD PTR [ecx]
  00005	8b 55 08	 mov	 edx, DWORD PTR __Right$[ebp]
  00008	33 c9		 xor	 ecx, ecx
  0000a	3b 02		 cmp	 eax, DWORD PTR [edx]
  0000c	0f 95 c0	 setne	 al

; 209  : 		}

  0000f	5d		 pop	 ebp
  00010	c2 04 00	 ret	 4
??9?$_Vector_const_iterator@V?$_Vector_val@UForceInfo@@V?$allocator@UForceInfo@@@std@@@std@@@std@@QBE_NABV01@@Z ENDP ; std::_Vector_const_iterator<std::_Vector_val<ForceInfo,std::allocator<ForceInfo> > >::operator!=
_TEXT	ENDS
PUBLIC	??$_Dest_val@V?$allocator@UForceInfo@@@std@@UForceInfo@@@std@@YAXAAV?$allocator@UForceInfo@@@0@PAUForceInfo@@@Z ; std::_Dest_val<std::allocator<ForceInfo>,ForceInfo>
; Function compile flags: /Ogsp
; File c:\program files (x86)\microsoft visual studio 10.0\vc\include\xmemory
;	COMDAT ??$_Dest_val@V?$allocator@UForceInfo@@@std@@UForceInfo@@@std@@YAXAAV?$allocator@UForceInfo@@@0@PAUForceInfo@@@Z
_TEXT	SEGMENT
__Alval$ = 8						; size = 4
__Pdest$ = 12						; size = 4
??$_Dest_val@V?$allocator@UForceInfo@@@std@@UForceInfo@@@std@@YAXAAV?$allocator@UForceInfo@@@0@PAUForceInfo@@@Z PROC ; std::_Dest_val<std::allocator<ForceInfo>,ForceInfo>, COMDAT

; 287  : 	_Alval.destroy(_Pdest);
; 288  : 	}

  00000	c3		 ret	 0
??$_Dest_val@V?$allocator@UForceInfo@@@std@@UForceInfo@@@std@@YAXAAV?$allocator@UForceInfo@@@0@PAUForceInfo@@@Z ENDP ; std::_Dest_val<std::allocator<ForceInfo>,ForceInfo>
_TEXT	ENDS
PUBLIC	?destroy@?$allocator@VioHashString@@@std@@QAEXPAVioHashString@@@Z ; std::allocator<ioHashString>::destroy
; Function compile flags: /Ogsp
;	COMDAT ?destroy@?$allocator@VioHashString@@@std@@QAEXPAVioHashString@@@Z
_TEXT	SEGMENT
__Ptr$ = 8						; size = 4
?destroy@?$allocator@VioHashString@@@std@@QAEXPAVioHashString@@@Z PROC ; std::allocator<ioHashString>::destroy, COMDAT
; _this$ = ecx

; 212  : 		{	// destroy object at _Ptr

  00000	55		 push	 ebp
  00001	8b ec		 mov	 ebp, esp

; 213  : 		_Destroy(_Ptr);

  00003	8b 4d 08	 mov	 ecx, DWORD PTR __Ptr$[ebp]
  00006	ff 15 00 00 00
	00		 call	 DWORD PTR __imp_??1ioHashString@@QAE@XZ

; 214  : 		}

  0000c	5d		 pop	 ebp
  0000d	c2 04 00	 ret	 4
?destroy@?$allocator@VioHashString@@@std@@QAEXPAVioHashString@@@Z ENDP ; std::allocator<ioHashString>::destroy
_TEXT	ENDS
PUBLIC	?destroy@?$allocator@UWeaponInfo@@@std@@QAEXPAUWeaponInfo@@@Z ; std::allocator<WeaponInfo>::destroy
; Function compile flags: /Ogsp
;	COMDAT ?destroy@?$allocator@UWeaponInfo@@@std@@QAEXPAUWeaponInfo@@@Z
_TEXT	SEGMENT
__Ptr$ = 8						; size = 4
?destroy@?$allocator@UWeaponInfo@@@std@@QAEXPAUWeaponInfo@@@Z PROC ; std::allocator<WeaponInfo>::destroy, COMDAT
; _this$ = ecx

; 212  : 		{	// destroy object at _Ptr

  00000	55		 push	 ebp
  00001	8b ec		 mov	 ebp, esp

; 213  : 		_Destroy(_Ptr);

  00003	8b 4d 08	 mov	 ecx, DWORD PTR __Ptr$[ebp]
  00006	83 c1 08	 add	 ecx, 8
  00009	ff 15 00 00 00
	00		 call	 DWORD PTR __imp_??1ioHashString@@QAE@XZ

; 214  : 		}

  0000f	5d		 pop	 ebp
  00010	c2 04 00	 ret	 4
?destroy@?$allocator@UWeaponInfo@@@std@@QAEXPAUWeaponInfo@@@Z ENDP ; std::allocator<WeaponInfo>::destroy
_TEXT	ENDS
PUBLIC	??$_Cons_val@V?$allocator@VioHashString@@@std@@VioHashString@@ABV3@@std@@YAXAAV?$allocator@VioHashString@@@0@PAVioHashString@@ABV2@@Z ; std::_Cons_val<std::allocator<ioHashString>,ioHashString,ioHashString const &>
; Function compile flags: /Ogsp
;	COMDAT ??$_Cons_val@V?$allocator@VioHashString@@@std@@VioHashString@@ABV3@@std@@YAXAAV?$allocator@VioHashString@@@0@PAVioHashString@@ABV2@@Z
_TEXT	SEGMENT
__Alval$ = 8						; size = 4
__Pdest$ = 12						; size = 4
__Src$ = 16						; size = 4
??$_Cons_val@V?$allocator@VioHashString@@@std@@VioHashString@@ABV3@@std@@YAXAAV?$allocator@VioHashString@@@0@PAVioHashString@@ABV2@@Z PROC ; std::_Cons_val<std::allocator<ioHashString>,ioHashString,ioHashString const &>, COMDAT

; 279  : 	{	// construct using allocator

  00000	55		 push	 ebp
  00001	8b ec		 mov	 ebp, esp

; 280  : 	_Alval.construct(_Pdest, _STD forward<_Ty2>(_Src));

  00003	ff 75 10	 push	 DWORD PTR __Src$[ebp]
  00006	ff 75 0c	 push	 DWORD PTR __Pdest$[ebp]
  00009	e8 00 00 00 00	 call	 ??$_Construct@VioHashString@@ABV1@@std@@YAXPAVioHashString@@ABV1@@Z ; std::_Construct<ioHashString,ioHashString const &>
  0000e	59		 pop	 ecx
  0000f	59		 pop	 ecx

; 281  : 	}

  00010	5d		 pop	 ebp
  00011	c3		 ret	 0
??$_Cons_val@V?$allocator@VioHashString@@@std@@VioHashString@@ABV3@@std@@YAXAAV?$allocator@VioHashString@@@0@PAVioHashString@@ABV2@@Z ENDP ; std::_Cons_val<std::allocator<ioHashString>,ioHashString,ioHashString const &>
_TEXT	ENDS
PUBLIC	_this$GSCopy$
PUBLIC	__$ArrayPad$
PUBLIC	?SetTrinityState@ioTrinityItem@@QAEXPAVioBaseChar@@ABUtagTrinityInfo@@_N@Z ; ioTrinityItem::SetTrinityState
EXTRN	?SetTargetRotToRotate@ioBaseChar@@QAEXABUD3DXQUATERNION@@_N1@Z:PROC ; ioBaseChar::SetTargetRotToRotate
;	COMDAT xdata$x
; File d:\lost saga for developer\youtube\tutorial\source\src\lsclient\iobasechar.h
xdata$x	SEGMENT
__unwindtable$?SetTrinityState@ioTrinityItem@@QAEXPAVioBaseChar@@ABUtagTrinityInfo@@_N@Z DD 0ffffffffH
	DD	FLAT:__unwindfunclet$?SetTrinityState@ioTrinityItem@@QAEXPAVioBaseChar@@ABUtagTrinityInfo@@_N@Z$0
__ehfuncinfo$?SetTrinityState@ioTrinityItem@@QAEXPAVioBaseChar@@ABUtagTrinityInfo@@_N@Z DD 019930522H
	DD	01H
	DD	FLAT:__unwindtable$?SetTrinityState@ioTrinityItem@@QAEXPAVioBaseChar@@ABUtagTrinityInfo@@_N@Z
	DD	2 DUP(00H)
	DD	2 DUP(00H)
	DD	00H
	DD	01H
; Function compile flags: /Ogsp
; File d:\lost saga for developer\youtube\tutorial\source\src\lsclient\iotrinityitem.cpp
xdata$x	ENDS
;	COMDAT ?SetTrinityState@ioTrinityItem@@QAEXPAVioBaseChar@@ABUtagTrinityInfo@@_N@Z
_TEXT	SEGMENT
_qtRot$550847 = -32828					; size = 16
_this$GSCopy$ = -32812					; size = 4
_kPacket$550849 = -32808				; size = 32792
__$ArrayPad$ = -16					; size = 4
__$EHRec$ = -12						; size = 12
_pOwner$ = 8						; size = 4
_rkInfo$ = 12						; size = 4
_bSendNet$ = 16						; size = 1
?SetTrinityState@ioTrinityItem@@QAEXPAVioBaseChar@@ABUtagTrinityInfo@@_N@Z PROC ; ioTrinityItem::SetTrinityState, COMDAT
; _this$ = ecx

; 275  : {

  00000	55		 push	 ebp
  00001	8b ec		 mov	 ebp, esp
  00003	6a ff		 push	 -1
  00005	68 00 00 00 00	 push	 __ehhandler$?SetTrinityState@ioTrinityItem@@QAEXPAVioBaseChar@@ABUtagTrinityInfo@@_N@Z
  0000a	64 a1 00 00 00
	00		 mov	 eax, DWORD PTR fs:0
  00010	50		 push	 eax
  00011	b8 30 80 00 00	 mov	 eax, 32816		; 00008030H
  00016	e8 00 00 00 00	 call	 __chkstk
  0001b	a1 00 00 00 00	 mov	 eax, DWORD PTR ___security_cookie
  00020	33 c5		 xor	 eax, ebp
  00022	89 45 f0	 mov	 DWORD PTR __$ArrayPad$[ebp], eax
  00025	53		 push	 ebx
  00026	56		 push	 esi
  00027	57		 push	 edi
  00028	50		 push	 eax
  00029	8d 45 f4	 lea	 eax, DWORD PTR __$EHRec$[ebp]
  0002c	64 a3 00 00 00
	00		 mov	 DWORD PTR fs:0, eax
  00032	8b 5d 08	 mov	 ebx, DWORD PTR _pOwner$[ebp]
  00035	8b f1		 mov	 esi, ecx

; 296  : 	{
; 297  : 		SP2Packet kPacket( CUPK_ITEM_GAUGE_CANCEL );

  00037	89 b5 d4 7f ff
	ff		 mov	 DWORD PTR _this$GSCopy$[ebp], esi
  0003d	85 db		 test	 ebx, ebx
  0003f	0f 84 03 01 00
	00		 je	 $LN1@SetTrinity

; 276  : 	if( !pOwner )
; 277  : 		return;
; 278  : 
; 279  : 	ioEntityGroup *pGrp = pOwner->GetGroup();
; 280  : 	if( !pGrp )

  00045	83 7b 04 00	 cmp	 DWORD PTR [ebx+4], 0
  00049	0f 84 f9 00 00
	00		 je	 $LN1@SetTrinity

; 281  : 		return;
; 282  : 
; 283  : 	if( pOwner->IsNeedProcess() )

  0004f	8b 03		 mov	 eax, DWORD PTR [ebx]
  00051	8b cb		 mov	 ecx, ebx
  00053	ff 90 00 01 00
	00		 call	 DWORD PTR [eax+256]
  00059	84 c0		 test	 al, al
  0005b	74 28		 je	 SHORT $LN2@SetTrinity

; 284  : 	{
; 285  : 		D3DXQUATERNION qtRot = pOwner->GetTargetRot();

  0005d	8d b3 a4 06 00
	00		 lea	 esi, DWORD PTR [ebx+1700]
  00063	8d bd c4 7f ff
	ff		 lea	 edi, DWORD PTR _qtRot$550847[ebp]
  00069	a5		 movsd
  0006a	a5		 movsd

; 286  : 		pOwner->SetTargetRotToRotate( qtRot, true );

  0006b	6a 00		 push	 0
  0006d	a5		 movsd
  0006e	6a 01		 push	 1
  00070	8d 85 c4 7f ff
	ff		 lea	 eax, DWORD PTR _qtRot$550847[ebp]
  00076	50		 push	 eax
  00077	8b cb		 mov	 ecx, ebx
  00079	a5		 movsd
  0007a	e8 00 00 00 00	 call	 ?SetTargetRotToRotate@ioBaseChar@@QAEXABUD3DXQUATERNION@@_N1@Z ; ioBaseChar::SetTargetRotToRotate
  0007f	8b b5 d4 7f ff
	ff		 mov	 esi, DWORD PTR _this$GSCopy$[ebp]
$LN2@SetTrinity:

; 287  : 	}
; 288  : 
; 289  : 	pOwner->SetState( CS_TRINITY );

  00085	6a 01		 push	 1
  00087	6a 63		 push	 99			; 00000063H
  00089	8b cb		 mov	 ecx, ebx
  0008b	e8 00 00 00 00	 call	 ?SetState@ioBaseChar@@QAEXH_N@Z ; ioBaseChar::SetState

; 290  : 
; 291  : 	//m_CurInfo = rkInfo;
; 292  : 
; 293  : 	ChangeGatheringState( pOwner );

  00090	53		 push	 ebx
  00091	8b ce		 mov	 ecx, esi
  00093	e8 00 00 00 00	 call	 ?ChangeGatheringState@ioTrinityItem@@IAEXPAVioBaseChar@@@Z ; ioTrinityItem::ChangeGatheringState

; 294  : 
; 295  : 	if( bSendNet && pOwner->IsNeedSendNetwork() )

  00098	80 7d 10 00	 cmp	 BYTE PTR _bSendNet$[ebp], 0
  0009c	0f 84 a6 00 00
	00		 je	 $LN1@SetTrinity
  000a2	8b 03		 mov	 eax, DWORD PTR [ebx]
  000a4	8b cb		 mov	 ecx, ebx
  000a6	ff 90 04 01 00
	00		 call	 DWORD PTR [eax+260]
  000ac	84 c0		 test	 al, al
  000ae	0f 84 94 00 00
	00		 je	 $LN1@SetTrinity

; 296  : 	{
; 297  : 		SP2Packet kPacket( CUPK_ITEM_GAUGE_CANCEL );

  000b4	68 28 41 00 00	 push	 16680			; 00004128H
  000b9	8d 8d d8 7f ff
	ff		 lea	 ecx, DWORD PTR _kPacket$550849[ebp]
  000bf	e8 00 00 00 00	 call	 ??0SP2Packet@@QAE@K@Z	; SP2Packet::SP2Packet

; 298  : 		FillItemGaugePacketHeader( pOwner, kPacket );

  000c4	8d 85 d8 7f ff
	ff		 lea	 eax, DWORD PTR _kPacket$550849[ebp]
  000ca	50		 push	 eax
  000cb	33 ff		 xor	 edi, edi
  000cd	53		 push	 ebx
  000ce	8b ce		 mov	 ecx, esi
  000d0	89 7d fc	 mov	 DWORD PTR __$EHRec$[ebp+8], edi
  000d3	e8 00 00 00 00	 call	 ?FillItemGaugePacketHeader@ioAttackableItem@@QAEXPAVioBaseChar@@AAVSP2Packet@@@Z ; ioAttackableItem::FillItemGaugePacketHeader

; 299  : 		kPacket << SST_CHANGE_STATE;

  000d8	57		 push	 edi
  000d9	8d 8d d8 7f ff
	ff		 lea	 ecx, DWORD PTR _kPacket$550849[ebp]
  000df	e8 00 00 00 00	 call	 ??6SP2Packet@@QAEAAV0@H@Z ; SP2Packet::operator<<

; 300  : 		kPacket << m_State;

  000e4	ff b6 84 19 00
	00		 push	 DWORD PTR [esi+6532]
  000ea	8d 8d d8 7f ff
	ff		 lea	 ecx, DWORD PTR _kPacket$550849[ebp]
  000f0	e8 00 00 00 00	 call	 ??6SP2Packet@@QAEAAV0@H@Z ; SP2Packet::operator<<

; 301  : 		kPacket << pOwner->GetTargetRot();

  000f5	81 c3 a4 06 00
	00		 add	 ebx, 1700		; 000006a4H
  000fb	53		 push	 ebx
  000fc	8d 8d d8 7f ff
	ff		 lea	 ecx, DWORD PTR _kPacket$550849[ebp]
  00102	e8 00 00 00 00	 call	 ??6SP2Packet@@QAEAAV0@ABUD3DXQUATERNION@@@Z ; SP2Packet::operator<<

; 302  : 		kPacket << m_fCurGauge;

  00107	8d 86 9c 20 00
	00		 lea	 eax, DWORD PTR [esi+8348]
  0010d	50		 push	 eax
  0010e	8d 8d d8 7f ff
	ff		 lea	 ecx, DWORD PTR _kPacket$550849[ebp]
  00114	e8 00 00 00 00	 call	 ??6SP2Packet@@QAEAAV0@AAV?$CEncrypt@M@@@Z ; SP2Packet::operator<<

; 303  : 		kPacket << m_nWeaponIndex;

  00119	ff b6 00 21 00
	00		 push	 DWORD PTR [esi+8448]
  0011f	8d 8d d8 7f ff
	ff		 lea	 ecx, DWORD PTR _kPacket$550849[ebp]
  00125	e8 00 00 00 00	 call	 ??6SP2Packet@@QAEAAV0@H@Z ; SP2Packet::operator<<

; 304  : 		P2PNetwork::SendToAllPlayingUser( kPacket );

  0012a	8d 85 d8 7f ff
	ff		 lea	 eax, DWORD PTR _kPacket$550849[ebp]
  00130	57		 push	 edi
  00131	50		 push	 eax
  00132	e8 00 00 00 00	 call	 ?SendToAllPlayingUser@P2PNetwork@@YAXAAVSP2Packet@@PAVioBaseChar@@@Z ; P2PNetwork::SendToAllPlayingUser

; 305  : 	}

  00137	83 4d fc ff	 or	 DWORD PTR __$EHRec$[ebp+8], -1
  0013b	59		 pop	 ecx
  0013c	59		 pop	 ecx
  0013d	8d 8d d8 7f ff
	ff		 lea	 ecx, DWORD PTR _kPacket$550849[ebp]
  00143	e8 00 00 00 00	 call	 ??1SP2Packet@@UAE@XZ	; SP2Packet::~SP2Packet
$LN1@SetTrinity:

; 306  : }

  00148	8b 4d f4	 mov	 ecx, DWORD PTR __$EHRec$[ebp]
  0014b	64 89 0d 00 00
	00 00		 mov	 DWORD PTR fs:0, ecx
  00152	59		 pop	 ecx
  00153	5f		 pop	 edi
  00154	5e		 pop	 esi
  00155	5b		 pop	 ebx
  00156	8b 4d f0	 mov	 ecx, DWORD PTR __$ArrayPad$[ebp]
  00159	33 cd		 xor	 ecx, ebp
  0015b	e8 00 00 00 00	 call	 @__security_check_cookie@4
  00160	c9		 leave
  00161	c2 0c 00	 ret	 12			; 0000000cH
_TEXT	ENDS
;	COMDAT text$x
text$x	SEGMENT
__unwindfunclet$?SetTrinityState@ioTrinityItem@@QAEXPAVioBaseChar@@ABUtagTrinityInfo@@_N@Z$0:
  00000	8d 8d d8 7f ff
	ff		 lea	 ecx, DWORD PTR _kPacket$550849[ebp]
  00006	e9 00 00 00 00	 jmp	 ??1SP2Packet@@UAE@XZ	; SP2Packet::~SP2Packet
__ehhandler$?SetTrinityState@ioTrinityItem@@QAEXPAVioBaseChar@@ABUtagTrinityInfo@@_N@Z:
  0000b	8b 54 24 08	 mov	 edx, DWORD PTR [esp+8]
  0000f	8d 42 0c	 lea	 eax, DWORD PTR [edx+12]
  00012	8b 8a c0 7f ff
	ff		 mov	 ecx, DWORD PTR [edx-32832]
  00018	33 c8		 xor	 ecx, eax
  0001a	e8 00 00 00 00	 call	 @__security_check_cookie@4
  0001f	8b 4a fc	 mov	 ecx, DWORD PTR [edx-4]
  00022	33 c8		 xor	 ecx, eax
  00024	e8 00 00 00 00	 call	 @__security_check_cookie@4
  00029	b8 00 00 00 00	 mov	 eax, OFFSET __ehfuncinfo$?SetTrinityState@ioTrinityItem@@QAEXPAVioBaseChar@@ABUtagTrinityInfo@@_N@Z
  0002e	e9 00 00 00 00	 jmp	 ___CxxFrameHandler3
text$x	ENDS
?SetTrinityState@ioTrinityItem@@QAEXPAVioBaseChar@@ABUtagTrinityInfo@@_N@Z ENDP ; ioTrinityItem::SetTrinityState
PUBLIC	__$ArrayPad$
PUBLIC	?ChangeNoneChargeAttack@ioTrinityItem@@IAEXPAVioBaseChar@@@Z ; ioTrinityItem::ChangeNoneChargeAttack
;	COMDAT xdata$x
; File d:\lost saga for developer\youtube\tutorial\source\src\lsclient\iobasechar.h
xdata$x	SEGMENT
__unwindtable$?ChangeNoneChargeAttack@ioTrinityItem@@IAEXPAVioBaseChar@@@Z DD 0ffffffffH
	DD	FLAT:__unwindfunclet$?ChangeNoneChargeAttack@ioTrinityItem@@IAEXPAVioBaseChar@@@Z$0
__ehfuncinfo$?ChangeNoneChargeAttack@ioTrinityItem@@IAEXPAVioBaseChar@@@Z DD 019930522H
	DD	01H
	DD	FLAT:__unwindtable$?ChangeNoneChargeAttack@ioTrinityItem@@IAEXPAVioBaseChar@@@Z
	DD	2 DUP(00H)
	DD	2 DUP(00H)
	DD	00H
	DD	01H
; Function compile flags: /Ogsp
; File d:\lost saga for developer\youtube\tutorial\source\src\lsclient\iotrinityitem.cpp
xdata$x	ENDS
;	COMDAT ?ChangeNoneChargeAttack@ioTrinityItem@@IAEXPAVioBaseChar@@@Z
_TEXT	SEGMENT
_fTimeRate$ = -32824					; size = 4
_iAniID$ = -32820					; size = 4
tv247 = -32816						; size = 4
_dwPreDelay$ = -32816					; size = 4
tv250 = -32812						; size = 4
_dwCurTime$ = -32812					; size = 4
_kPacket$550906 = -32808				; size = 32792
__$ArrayPad$ = -16					; size = 4
__$EHRec$ = -12						; size = 12
_pOwner$ = 8						; size = 4
?ChangeNoneChargeAttack@ioTrinityItem@@IAEXPAVioBaseChar@@@Z PROC ; ioTrinityItem::ChangeNoneChargeAttack, COMDAT
; _this$ = ecx

; 443  : {

  00000	55		 push	 ebp
  00001	8b ec		 mov	 ebp, esp
  00003	6a ff		 push	 -1
  00005	68 00 00 00 00	 push	 __ehhandler$?ChangeNoneChargeAttack@ioTrinityItem@@IAEXPAVioBaseChar@@@Z
  0000a	64 a1 00 00 00
	00		 mov	 eax, DWORD PTR fs:0
  00010	50		 push	 eax
  00011	b8 2c 80 00 00	 mov	 eax, 32812		; 0000802cH
  00016	e8 00 00 00 00	 call	 __chkstk
  0001b	a1 00 00 00 00	 mov	 eax, DWORD PTR ___security_cookie
  00020	33 c5		 xor	 eax, ebp
  00022	89 45 f0	 mov	 DWORD PTR __$ArrayPad$[ebp], eax
  00025	53		 push	 ebx
  00026	56		 push	 esi
  00027	57		 push	 edi
  00028	50		 push	 eax
  00029	8d 45 f4	 lea	 eax, DWORD PTR __$EHRec$[ebp]
  0002c	64 a3 00 00 00
	00		 mov	 DWORD PTR fs:0, eax
  00032	8b 7d 08	 mov	 edi, DWORD PTR _pOwner$[ebp]
  00035	8b f1		 mov	 esi, ecx

; 444  : 	if( !pOwner ) return;

  00037	85 ff		 test	 edi, edi
  00039	0f 84 b3 01 00
	00		 je	 $LN1@ChangeNone@2

; 445  : 
; 446  : 	DWORD dwCurTime = FRAMEGETTIME();

  0003f	ff 15 00 00 00
	00		 call	 DWORD PTR __imp_?GetSingleton@ioFrameTimer@@SAAAV1@XZ
  00045	8b c8		 mov	 ecx, eax
  00047	ff 15 00 00 00
	00		 call	 DWORD PTR __imp_?GetLoopSec@ioFrameTimer@@QBEKXZ

; 447  : 
; 448  : 	m_State = TS_SPECIAL_NONE_CHARGE;

  0004d	c7 86 84 19 00
	00 02 00 00 00	 mov	 DWORD PTR [esi+6532], 2

; 449  : 
; 450  : 	//pOwner->SetAutoTarget( ATT_NORMAL );
; 451  : 
; 452  : 	ioEntityGroup *pGrp = pOwner->GetGroup();

  00057	8b 5f 04	 mov	 ebx, DWORD PTR [edi+4]
  0005a	89 85 d4 7f ff
	ff		 mov	 DWORD PTR _dwCurTime$[ebp], eax

; 453  : 	if( !pGrp )

  00060	85 db		 test	 ebx, ebx
  00062	0f 84 8a 01 00
	00		 je	 $LN1@ChangeNone@2

; 454  : 		return;
; 455  : 
; 456  : 	/*pOwner->InitExtendAttackTagInfo();
; 457  : 
; 458  : 	pGrp->ClearAllLoopAni( FLOAT10, true );
; 459  : 	pGrp->ClearAllActionAni( FLOAT10, true );*/
; 460  : 
; 461  : 	int iAniID	     = pGrp->GetAnimationIdx(m_AttackInfo.m_NoneFullAttack[m_nWeaponIndex].m_AttackAnimation);

  00068	8b 86 00 21 00
	00		 mov	 eax, DWORD PTR [esi+8448]
  0006e	6b c0 50	 imul	 eax, 80			; 00000050H
  00071	8d 84 30 70 1b
	00 00		 lea	 eax, DWORD PTR [eax+esi+7024]
  00078	50		 push	 eax
  00079	8b cb		 mov	 ecx, ebx
  0007b	ff 15 00 00 00
	00		 call	 DWORD PTR __imp_?GetAnimationIdx@ioEntityGroup@@QAEHABVioHashString@@@Z
  00081	89 85 cc 7f ff
	ff		 mov	 DWORD PTR _iAniID$[ebp], eax

; 462  : 	float fTimeRate  = m_AttackInfo.m_NoneFullAttack[m_nWeaponIndex].m_fAttackAniRate;

  00087	8b 86 00 21 00
	00		 mov	 eax, DWORD PTR [esi+8448]
  0008d	8d 48 58	 lea	 ecx, DWORD PTR [eax+88]

; 463  : 	DWORD dwPreDelay = m_AttackInfo.m_NoneFullAttack[m_nWeaponIndex].m_dwPreDelay;

  00090	6b c0 50	 imul	 eax, 80			; 00000050H
  00093	8b 84 30 b8 1b
	00 00		 mov	 eax, DWORD PTR [eax+esi+7096]
  0009a	6b c9 50	 imul	 ecx, 80			; 00000050H

; 464  : 	DWORD dwEndDelay = m_AttackInfo.m_NoneFullAttack[m_nWeaponIndex].m_dwEndDelay;
; 465  : 
; 466  : 	/*pOwner->RefreshFireTimeList( iAniID, m_CurInfo.m_NoneFullAttack[m_nWeaponIndex].m_vWeaponInfoList, FTT_NORMAL_ATTACK, fTimeRate, dwPreDelay );
; 467  : 	pOwner->IncreaseWeaponIndexBase();*
; 468  : 
; 469  : 	pGrp->SetActionAni( iAniID, FLOAT100, FLOAT100, FLOAT1, FLOAT1/fTimeRate, 0.0f, 0.0f, true );*/
; 470  : 
; 471  : 	pOwner->SetAutoTarget( ATT_NORMAL );

  0009d	6a 00		 push	 0
  0009f	d9 04 31	 fld	 DWORD PTR [ecx+esi]
  000a2	8b cf		 mov	 ecx, edi
  000a4	d9 9d c8 7f ff
	ff		 fstp	 DWORD PTR _fTimeRate$[ebp]
  000aa	89 85 d0 7f ff
	ff		 mov	 DWORD PTR _dwPreDelay$[ebp], eax
  000b0	e8 00 00 00 00	 call	 ?SetAutoTarget@ioBaseChar@@QAEXW4AutoTargetType@@@Z ; ioBaseChar::SetAutoTarget

; 472  : 
; 473  : 	pOwner->SetNormalAttackByAttribute( m_AttackInfo.m_NoneFullAttack[m_nWeaponIndex] );

  000b5	8b 86 00 21 00
	00		 mov	 eax, DWORD PTR [esi+8448]
  000bb	f3 0f 10 05 00
	00 00 00	 movss	 xmm0, DWORD PTR __real@3f800000
  000c3	6b c0 50	 imul	 eax, 80			; 00000050H
  000c6	51		 push	 ecx
  000c7	51		 push	 ecx
  000c8	f3 0f 11 44 24
	04		 movss	 DWORD PTR [esp+4], xmm0
  000ce	f3 0f 11 04 24	 movss	 DWORD PTR [esp], xmm0
  000d3	6a 01		 push	 1
  000d5	8d 84 30 70 1b
	00 00		 lea	 eax, DWORD PTR [eax+esi+7024]
  000dc	50		 push	 eax
  000dd	8b cf		 mov	 ecx, edi
  000df	e8 00 00 00 00	 call	 ?SetNormalAttackByAttribute@ioBaseChar@@QAEKABUAttackAttribute@@_NMM@Z ; ioBaseChar::SetNormalAttackByAttribute

; 474  : 
; 475  : 	m_dwMotionEndTime = dwCurTime + pGrp->GetAnimationFullTime( iAniID ) * fTimeRate  + dwPreDelay;

  000e4	ff b5 cc 7f ff
	ff		 push	 DWORD PTR _iAniID$[ebp]
  000ea	8b cb		 mov	 ecx, ebx
  000ec	ff 15 00 00 00
	00		 call	 DWORD PTR __imp_?GetAnimationFullTime@ioEntityGroup@@QAEMH@Z
  000f2	d8 8d c8 7f ff
	ff		 fmul	 DWORD PTR _fTimeRate$[ebp]
  000f8	8b 85 d4 7f ff
	ff		 mov	 eax, DWORD PTR _dwCurTime$[ebp]
  000fe	db 85 d4 7f ff
	ff		 fild	 DWORD PTR _dwCurTime$[ebp]
  00104	85 c0		 test	 eax, eax
  00106	79 06		 jns	 SHORT $LN12@ChangeNone@2
  00108	d8 05 00 00 00
	00		 fadd	 DWORD PTR __real@4f800000
$LN12@ChangeNone@2:
  0010e	8b 85 d0 7f ff
	ff		 mov	 eax, DWORD PTR _dwPreDelay$[ebp]
  00114	de c1		 faddp	 ST(1), ST(0)
  00116	db 85 d0 7f ff
	ff		 fild	 DWORD PTR _dwPreDelay$[ebp]
  0011c	85 c0		 test	 eax, eax
  0011e	79 06		 jns	 SHORT $LN13@ChangeNone@2
  00120	d8 05 00 00 00
	00		 fadd	 DWORD PTR __real@4f800000
$LN13@ChangeNone@2:
  00126	de c1		 faddp	 ST(1), ST(0)
  00128	e8 00 00 00 00	 call	 __ftol2

; 476  : 
; 477  : 	EraseEntityAndEffect(pOwner);

  0012d	57		 push	 edi
  0012e	8b ce		 mov	 ecx, esi
  00130	89 86 fc 20 00
	00		 mov	 DWORD PTR [esi+8444], eax
  00136	e8 00 00 00 00	 call	 ?EraseEntityAndEffect@ioTrinityItem@@QAEXPAVioBaseChar@@@Z ; ioTrinityItem::EraseEntityAndEffect

; 478  : 	AddEntityAndEffect( pOwner );

  0013b	33 db		 xor	 ebx, ebx
  0013d	53		 push	 ebx
  0013e	57		 push	 edi
  0013f	8b ce		 mov	 ecx, esi
  00141	e8 00 00 00 00	 call	 ?AddEntityAndEffect@ioTrinityItem@@QAEXPAVioBaseChar@@_N@Z ; ioTrinityItem::AddEntityAndEffect

; 479  : 
; 480  : 
; 481  : 	if( pOwner->IsNeedProcess() )

  00146	8b 07		 mov	 eax, DWORD PTR [edi]
  00148	8b cf		 mov	 ecx, edi
  0014a	ff 90 00 01 00
	00		 call	 DWORD PTR [eax+256]
  00150	84 c0		 test	 al, al
  00152	0f 84 9a 00 00
	00		 je	 $LN1@ChangeNone@2

; 482  : 	{
; 483  : 		DecreaseGauge();

  00158	8b ce		 mov	 ecx, esi
  0015a	e8 00 00 00 00	 call	 ?DecreaseGauge@ioTrinityItem@@QAEXXZ ; ioTrinityItem::DecreaseGauge

; 484  : 
; 485  : 		SP2Packet kPacket( CUPK_ITEM_GAUGE_CANCEL );

  0015f	68 28 41 00 00	 push	 16680			; 00004128H
  00164	8d 8d d8 7f ff
	ff		 lea	 ecx, DWORD PTR _kPacket$550906[ebp]
  0016a	e8 00 00 00 00	 call	 ??0SP2Packet@@QAE@K@Z	; SP2Packet::SP2Packet

; 486  : 		FillItemGaugePacketHeader( pOwner, kPacket );

  0016f	8d 85 d8 7f ff
	ff		 lea	 eax, DWORD PTR _kPacket$550906[ebp]
  00175	50		 push	 eax
  00176	57		 push	 edi
  00177	8b ce		 mov	 ecx, esi
  00179	89 5d fc	 mov	 DWORD PTR __$EHRec$[ebp+8], ebx
  0017c	e8 00 00 00 00	 call	 ?FillItemGaugePacketHeader@ioAttackableItem@@QAEXPAVioBaseChar@@AAVSP2Packet@@@Z ; ioAttackableItem::FillItemGaugePacketHeader

; 487  : 		kPacket << SST_NONE_FIRE;

  00181	6a 03		 push	 3
  00183	8d 8d d8 7f ff
	ff		 lea	 ecx, DWORD PTR _kPacket$550906[ebp]
  00189	e8 00 00 00 00	 call	 ??6SP2Packet@@QAEAAV0@H@Z ; SP2Packet::operator<<

; 488  : 		kPacket << m_State;

  0018e	ff b6 84 19 00
	00		 push	 DWORD PTR [esi+6532]
  00194	8d 8d d8 7f ff
	ff		 lea	 ecx, DWORD PTR _kPacket$550906[ebp]
  0019a	e8 00 00 00 00	 call	 ??6SP2Packet@@QAEAAV0@H@Z ; SP2Packet::operator<<

; 489  : 		kPacket << pOwner->GetTargetRot();

  0019f	81 c7 a4 06 00
	00		 add	 edi, 1700		; 000006a4H
  001a5	57		 push	 edi
  001a6	8d 8d d8 7f ff
	ff		 lea	 ecx, DWORD PTR _kPacket$550906[ebp]
  001ac	e8 00 00 00 00	 call	 ??6SP2Packet@@QAEAAV0@ABUD3DXQUATERNION@@@Z ; SP2Packet::operator<<

; 490  : 		kPacket << m_fCurGauge;

  001b1	8d 86 9c 20 00
	00		 lea	 eax, DWORD PTR [esi+8348]
  001b7	50		 push	 eax
  001b8	8d 8d d8 7f ff
	ff		 lea	 ecx, DWORD PTR _kPacket$550906[ebp]
  001be	e8 00 00 00 00	 call	 ??6SP2Packet@@QAEAAV0@AAV?$CEncrypt@M@@@Z ; SP2Packet::operator<<

; 491  : 		kPacket << m_nWeaponIndex;

  001c3	ff b6 00 21 00
	00		 push	 DWORD PTR [esi+8448]
  001c9	8d 8d d8 7f ff
	ff		 lea	 ecx, DWORD PTR _kPacket$550906[ebp]
  001cf	e8 00 00 00 00	 call	 ??6SP2Packet@@QAEAAV0@H@Z ; SP2Packet::operator<<

; 492  : 		P2PNetwork::SendToAllPlayingUser( kPacket );

  001d4	8d 85 d8 7f ff
	ff		 lea	 eax, DWORD PTR _kPacket$550906[ebp]
  001da	53		 push	 ebx
  001db	50		 push	 eax
  001dc	e8 00 00 00 00	 call	 ?SendToAllPlayingUser@P2PNetwork@@YAXAAVSP2Packet@@PAVioBaseChar@@@Z ; P2PNetwork::SendToAllPlayingUser

; 493  : 	}

  001e1	83 4d fc ff	 or	 DWORD PTR __$EHRec$[ebp+8], -1
  001e5	59		 pop	 ecx
  001e6	59		 pop	 ecx
  001e7	8d 8d d8 7f ff
	ff		 lea	 ecx, DWORD PTR _kPacket$550906[ebp]
  001ed	e8 00 00 00 00	 call	 ??1SP2Packet@@UAE@XZ	; SP2Packet::~SP2Packet
$LN1@ChangeNone@2:

; 494  : }

  001f2	8b 4d f4	 mov	 ecx, DWORD PTR __$EHRec$[ebp]
  001f5	64 89 0d 00 00
	00 00		 mov	 DWORD PTR fs:0, ecx
  001fc	59		 pop	 ecx
  001fd	5f		 pop	 edi
  001fe	5e		 pop	 esi
  001ff	5b		 pop	 ebx
  00200	8b 4d f0	 mov	 ecx, DWORD PTR __$ArrayPad$[ebp]
  00203	33 cd		 xor	 ecx, ebp
  00205	e8 00 00 00 00	 call	 @__security_check_cookie@4
  0020a	c9		 leave
  0020b	c2 04 00	 ret	 4
_TEXT	ENDS
;	COMDAT text$x
text$x	SEGMENT
__unwindfunclet$?ChangeNoneChargeAttack@ioTrinityItem@@IAEXPAVioBaseChar@@@Z$0:
  00000	8d 8d d8 7f ff
	ff		 lea	 ecx, DWORD PTR _kPacket$550906[ebp]
  00006	e9 00 00 00 00	 jmp	 ??1SP2Packet@@UAE@XZ	; SP2Packet::~SP2Packet
__ehhandler$?ChangeNoneChargeAttack@ioTrinityItem@@IAEXPAVioBaseChar@@@Z:
  0000b	8b 54 24 08	 mov	 edx, DWORD PTR [esp+8]
  0000f	8d 42 0c	 lea	 eax, DWORD PTR [edx+12]
  00012	8b 8a c4 7f ff
	ff		 mov	 ecx, DWORD PTR [edx-32828]
  00018	33 c8		 xor	 ecx, eax
  0001a	e8 00 00 00 00	 call	 @__security_check_cookie@4
  0001f	8b 4a fc	 mov	 ecx, DWORD PTR [edx-4]
  00022	33 c8		 xor	 ecx, eax
  00024	e8 00 00 00 00	 call	 @__security_check_cookie@4
  00029	b8 00 00 00 00	 mov	 eax, OFFSET __ehfuncinfo$?ChangeNoneChargeAttack@ioTrinityItem@@IAEXPAVioBaseChar@@@Z
  0002e	e9 00 00 00 00	 jmp	 ___CxxFrameHandler3
text$x	ENDS
?ChangeNoneChargeAttack@ioTrinityItem@@IAEXPAVioBaseChar@@@Z ENDP ; ioTrinityItem::ChangeNoneChargeAttack
PUBLIC	__$ArrayPad$
PUBLIC	?ChangeEndState@ioTrinityItem@@IAEXPAVioBaseChar@@@Z ; ioTrinityItem::ChangeEndState
;	COMDAT xdata$x
; File d:\lost saga for developer\youtube\tutorial\source\src\lsclient\iobasechar.h
xdata$x	SEGMENT
__unwindtable$?ChangeEndState@ioTrinityItem@@IAEXPAVioBaseChar@@@Z DD 0ffffffffH
	DD	FLAT:__unwindfunclet$?ChangeEndState@ioTrinityItem@@IAEXPAVioBaseChar@@@Z$0
__ehfuncinfo$?ChangeEndState@ioTrinityItem@@IAEXPAVioBaseChar@@@Z DD 019930522H
	DD	01H
	DD	FLAT:__unwindtable$?ChangeEndState@ioTrinityItem@@IAEXPAVioBaseChar@@@Z
	DD	2 DUP(00H)
	DD	2 DUP(00H)
	DD	00H
	DD	01H
; Function compile flags: /Ogsp
; File d:\lost saga for developer\youtube\tutorial\source\src\lsclient\iotrinityitem.cpp
xdata$x	ENDS
;	COMDAT ?ChangeEndState@ioTrinityItem@@IAEXPAVioBaseChar@@@Z
_TEXT	SEGMENT
_kPacket$550930 = -32808				; size = 32792
__$ArrayPad$ = -16					; size = 4
__$EHRec$ = -12						; size = 12
_pOwner$ = 8						; size = 4
?ChangeEndState@ioTrinityItem@@IAEXPAVioBaseChar@@@Z PROC ; ioTrinityItem::ChangeEndState, COMDAT
; _this$ = ecx

; 537  : {

  00000	55		 push	 ebp
  00001	8b ec		 mov	 ebp, esp
  00003	6a ff		 push	 -1
  00005	68 00 00 00 00	 push	 __ehhandler$?ChangeEndState@ioTrinityItem@@IAEXPAVioBaseChar@@@Z
  0000a	64 a1 00 00 00
	00		 mov	 eax, DWORD PTR fs:0
  00010	50		 push	 eax
  00011	b8 1c 80 00 00	 mov	 eax, 32796		; 0000801cH
  00016	e8 00 00 00 00	 call	 __chkstk
  0001b	a1 00 00 00 00	 mov	 eax, DWORD PTR ___security_cookie
  00020	33 c5		 xor	 eax, ebp
  00022	89 45 f0	 mov	 DWORD PTR __$ArrayPad$[ebp], eax
  00025	56		 push	 esi
  00026	57		 push	 edi
  00027	50		 push	 eax
  00028	8d 45 f4	 lea	 eax, DWORD PTR __$EHRec$[ebp]
  0002b	64 a3 00 00 00
	00		 mov	 DWORD PTR fs:0, eax
  00031	8b 75 08	 mov	 esi, DWORD PTR _pOwner$[ebp]

; 538  : 	ClearState(pOwner);

  00034	56		 push	 esi
  00035	8b f9		 mov	 edi, ecx
  00037	e8 00 00 00 00	 call	 ?ClearState@ioTrinityItem@@QAEXPAVioBaseChar@@@Z ; ioTrinityItem::ClearState

; 539  : 
; 540  : 	if( pOwner->IsNeedProcess() )

  0003c	8b 06		 mov	 eax, DWORD PTR [esi]
  0003e	8b ce		 mov	 ecx, esi
  00040	ff 90 00 01 00
	00		 call	 DWORD PTR [eax+256]
  00046	84 c0		 test	 al, al
  00048	0f 84 95 00 00
	00		 je	 $LN1@ChangeEndS

; 541  : 	{
; 542  : 		SP2Packet kPacket( CUPK_ITEM_GAUGE_CANCEL );

  0004e	68 28 41 00 00	 push	 16680			; 00004128H
  00053	8d 8d d8 7f ff
	ff		 lea	 ecx, DWORD PTR _kPacket$550930[ebp]
  00059	e8 00 00 00 00	 call	 ??0SP2Packet@@QAE@K@Z	; SP2Packet::SP2Packet
  0005e	83 65 fc 00	 and	 DWORD PTR __$EHRec$[ebp+8], 0

; 543  : 		FillItemGaugePacketHeader( pOwner, kPacket );

  00062	8d 85 d8 7f ff
	ff		 lea	 eax, DWORD PTR _kPacket$550930[ebp]
  00068	50		 push	 eax
  00069	56		 push	 esi
  0006a	8b cf		 mov	 ecx, edi
  0006c	e8 00 00 00 00	 call	 ?FillItemGaugePacketHeader@ioAttackableItem@@QAEXPAVioBaseChar@@AAVSP2Packet@@@Z ; ioAttackableItem::FillItemGaugePacketHeader

; 544  : 		kPacket << SST_END;

  00071	6a 06		 push	 6
  00073	8d 8d d8 7f ff
	ff		 lea	 ecx, DWORD PTR _kPacket$550930[ebp]
  00079	e8 00 00 00 00	 call	 ??6SP2Packet@@QAEAAV0@H@Z ; SP2Packet::operator<<

; 545  : 		kPacket << m_State;

  0007e	ff b7 84 19 00
	00		 push	 DWORD PTR [edi+6532]
  00084	8d 8d d8 7f ff
	ff		 lea	 ecx, DWORD PTR _kPacket$550930[ebp]
  0008a	e8 00 00 00 00	 call	 ??6SP2Packet@@QAEAAV0@H@Z ; SP2Packet::operator<<

; 546  : 		kPacket << pOwner->GetTargetRot();

  0008f	8d 86 a4 06 00
	00		 lea	 eax, DWORD PTR [esi+1700]
  00095	50		 push	 eax
  00096	8d 8d d8 7f ff
	ff		 lea	 ecx, DWORD PTR _kPacket$550930[ebp]
  0009c	e8 00 00 00 00	 call	 ??6SP2Packet@@QAEAAV0@ABUD3DXQUATERNION@@@Z ; SP2Packet::operator<<

; 547  : 		kPacket << m_fCurGauge;

  000a1	8d 87 9c 20 00
	00		 lea	 eax, DWORD PTR [edi+8348]
  000a7	50		 push	 eax
  000a8	8d 8d d8 7f ff
	ff		 lea	 ecx, DWORD PTR _kPacket$550930[ebp]
  000ae	e8 00 00 00 00	 call	 ??6SP2Packet@@QAEAAV0@AAV?$CEncrypt@M@@@Z ; SP2Packet::operator<<

; 548  : 		kPacket << m_nWeaponIndex;

  000b3	ff b7 00 21 00
	00		 push	 DWORD PTR [edi+8448]
  000b9	8d 8d d8 7f ff
	ff		 lea	 ecx, DWORD PTR _kPacket$550930[ebp]
  000bf	e8 00 00 00 00	 call	 ??6SP2Packet@@QAEAAV0@H@Z ; SP2Packet::operator<<

; 549  : 		P2PNetwork::SendToAllPlayingUser( kPacket );

  000c4	8d 85 d8 7f ff
	ff		 lea	 eax, DWORD PTR _kPacket$550930[ebp]
  000ca	6a 00		 push	 0
  000cc	50		 push	 eax
  000cd	e8 00 00 00 00	 call	 ?SendToAllPlayingUser@P2PNetwork@@YAXAAVSP2Packet@@PAVioBaseChar@@@Z ; P2PNetwork::SendToAllPlayingUser

; 550  : 	}

  000d2	83 4d fc ff	 or	 DWORD PTR __$EHRec$[ebp+8], -1
  000d6	59		 pop	 ecx
  000d7	59		 pop	 ecx
  000d8	8d 8d d8 7f ff
	ff		 lea	 ecx, DWORD PTR _kPacket$550930[ebp]
  000de	e8 00 00 00 00	 call	 ??1SP2Packet@@UAE@XZ	; SP2Packet::~SP2Packet
$LN1@ChangeEndS:

; 551  : 
; 552  : 	pOwner->SetState( CS_DELAY );

  000e3	6a 01		 push	 1
  000e5	6a 00		 push	 0
  000e7	8b ce		 mov	 ecx, esi
  000e9	e8 00 00 00 00	 call	 ?SetState@ioBaseChar@@QAEXH_N@Z ; ioBaseChar::SetState

; 553  : }

  000ee	8b 4d f4	 mov	 ecx, DWORD PTR __$EHRec$[ebp]
  000f1	64 89 0d 00 00
	00 00		 mov	 DWORD PTR fs:0, ecx
  000f8	59		 pop	 ecx
  000f9	5f		 pop	 edi
  000fa	5e		 pop	 esi
  000fb	8b 4d f0	 mov	 ecx, DWORD PTR __$ArrayPad$[ebp]
  000fe	33 cd		 xor	 ecx, ebp
  00100	e8 00 00 00 00	 call	 @__security_check_cookie@4
  00105	c9		 leave
  00106	c2 04 00	 ret	 4
_TEXT	ENDS
;	COMDAT text$x
text$x	SEGMENT
__unwindfunclet$?ChangeEndState@ioTrinityItem@@IAEXPAVioBaseChar@@@Z$0:
  00000	8d 8d d8 7f ff
	ff		 lea	 ecx, DWORD PTR _kPacket$550930[ebp]
  00006	e9 00 00 00 00	 jmp	 ??1SP2Packet@@UAE@XZ	; SP2Packet::~SP2Packet
__ehhandler$?ChangeEndState@ioTrinityItem@@IAEXPAVioBaseChar@@@Z:
  0000b	8b 54 24 08	 mov	 edx, DWORD PTR [esp+8]
  0000f	8d 42 0c	 lea	 eax, DWORD PTR [edx+12]
  00012	8b 8a d8 7f ff
	ff		 mov	 ecx, DWORD PTR [edx-32808]
  00018	33 c8		 xor	 ecx, eax
  0001a	e8 00 00 00 00	 call	 @__security_check_cookie@4
  0001f	8b 4a fc	 mov	 ecx, DWORD PTR [edx-4]
  00022	33 c8		 xor	 ecx, eax
  00024	e8 00 00 00 00	 call	 @__security_check_cookie@4
  00029	b8 00 00 00 00	 mov	 eax, OFFSET __ehfuncinfo$?ChangeEndState@ioTrinityItem@@IAEXPAVioBaseChar@@@Z
  0002e	e9 00 00 00 00	 jmp	 ___CxxFrameHandler3
text$x	ENDS
?ChangeEndState@ioTrinityItem@@IAEXPAVioBaseChar@@@Z ENDP ; ioTrinityItem::ChangeEndState
PUBLIC	?CheckNetWork@ioTrinityItem@@AAEXPAVioBaseChar@@AAVSP2Packet@@@Z ; ioTrinityItem::CheckNetWork
EXTRN	??5SP2Packet@@QAEAAV0@AAV?$CEncrypt@M@@@Z:PROC	; SP2Packet::operator>>
EXTRN	?SetTargetRot@ioBaseChar@@QAEXABUD3DXQUATERNION@@@Z:PROC ; ioBaseChar::SetTargetRot
EXTRN	??5SP2Packet@@QAEAAV0@AAUD3DXQUATERNION@@@Z:PROC ; SP2Packet::operator>>
; Function compile flags: /Ogsp
;	COMDAT ?CheckNetWork@ioTrinityItem@@AAEXPAVioBaseChar@@AAVSP2Packet@@@Z
_TEXT	SEGMENT
_qtRot$ = -16						; size = 16
_pOwner$ = 8						; size = 4
_nState$ = 12						; size = 4
_rkPacket$ = 12						; size = 4
?CheckNetWork@ioTrinityItem@@AAEXPAVioBaseChar@@AAVSP2Packet@@@Z PROC ; ioTrinityItem::CheckNetWork, COMDAT
; _this$ = ecx

; 650  : {

  00000	55		 push	 ebp
  00001	8b ec		 mov	 ebp, esp
  00003	83 ec 10	 sub	 esp, 16			; 00000010H
  00006	53		 push	 ebx
  00007	56		 push	 esi
  00008	57		 push	 edi

; 651  : 	int nState;
; 652  : 	rkPacket >> nState;

  00009	8b 7d 0c	 mov	 edi, DWORD PTR _rkPacket$[ebp]
  0000c	8d 45 0c	 lea	 eax, DWORD PTR _nState$[ebp]
  0000f	8b f1		 mov	 esi, ecx
  00011	50		 push	 eax
  00012	8b cf		 mov	 ecx, edi
  00014	e8 00 00 00 00	 call	 ??5SP2Packet@@QAEAAV0@AAH@Z ; SP2Packet::operator>>

; 653  : 	m_State = (TrinityState)nState;

  00019	8b 45 0c	 mov	 eax, DWORD PTR _nState$[ebp]
  0001c	89 86 84 19 00
	00		 mov	 DWORD PTR [esi+6532], eax

; 654  : 	D3DXQUATERNION qtRot;
; 655  : 	rkPacket >> qtRot;

  00022	8d 45 f0	 lea	 eax, DWORD PTR _qtRot$[ebp]
  00025	50		 push	 eax
  00026	8b cf		 mov	 ecx, edi
  00028	e8 00 00 00 00	 call	 ??5SP2Packet@@QAEAAV0@AAUD3DXQUATERNION@@@Z ; SP2Packet::operator>>

; 656  : 	pOwner->SetTargetRot( qtRot );

  0002d	8b 5d 08	 mov	 ebx, DWORD PTR _pOwner$[ebp]
  00030	8d 45 f0	 lea	 eax, DWORD PTR _qtRot$[ebp]
  00033	50		 push	 eax
  00034	8b cb		 mov	 ecx, ebx
  00036	e8 00 00 00 00	 call	 ?SetTargetRot@ioBaseChar@@QAEXABUD3DXQUATERNION@@@Z ; ioBaseChar::SetTargetRot

; 657  : 	rkPacket >> m_fCurGauge;

  0003b	8d 86 9c 20 00
	00		 lea	 eax, DWORD PTR [esi+8348]
  00041	50		 push	 eax
  00042	8b cf		 mov	 ecx, edi
  00044	e8 00 00 00 00	 call	 ??5SP2Packet@@QAEAAV0@AAV?$CEncrypt@M@@@Z ; SP2Packet::operator>>

; 658  : 	rkPacket >> m_nWeaponIndex;

  00049	8d 86 00 21 00
	00		 lea	 eax, DWORD PTR [esi+8448]
  0004f	50		 push	 eax
  00050	8b cf		 mov	 ecx, edi
  00052	e8 00 00 00 00	 call	 ??5SP2Packet@@QAEAAV0@AAH@Z ; SP2Packet::operator>>

; 659  : 
; 660  : 	if( m_State == TS_GATHERING )

  00057	8b 86 84 19 00
	00		 mov	 eax, DWORD PTR [esi+6532]
  0005d	83 f8 01	 cmp	 eax, 1
  00060	75 0a		 jne	 SHORT $LN7@CheckNetWo

; 661  : 		ChangeGatheringState(pOwner);

  00062	53		 push	 ebx
  00063	8b ce		 mov	 ecx, esi
  00065	e8 00 00 00 00	 call	 ?ChangeGatheringState@ioTrinityItem@@IAEXPAVioBaseChar@@@Z ; ioTrinityItem::ChangeGatheringState
  0006a	eb 2b		 jmp	 SHORT $LN1@CheckNetWo
$LN7@CheckNetWo:

; 662  : 	else if( m_State == TS_SPECIAL_NONE_CHARGE )

  0006c	83 f8 02	 cmp	 eax, 2
  0006f	75 0a		 jne	 SHORT $LN5@CheckNetWo

; 663  : 		ChangeNoneChargeAttack(pOwner);

  00071	53		 push	 ebx
  00072	8b ce		 mov	 ecx, esi
  00074	e8 00 00 00 00	 call	 ?ChangeNoneChargeAttack@ioTrinityItem@@IAEXPAVioBaseChar@@@Z ; ioTrinityItem::ChangeNoneChargeAttack
  00079	eb 1c		 jmp	 SHORT $LN1@CheckNetWo
$LN5@CheckNetWo:

; 664  : 	else if( m_State == TS_SPECIAL_FULL_CHARGE )

  0007b	83 f8 03	 cmp	 eax, 3
  0007e	75 0a		 jne	 SHORT $LN3@CheckNetWo

; 665  : 		ChangeFullChargeAttack(pOwner);

  00080	53		 push	 ebx
  00081	8b ce		 mov	 ecx, esi
  00083	e8 00 00 00 00	 call	 ?ChangeFullChargeAttack@ioTrinityItem@@IAEXPAVioBaseChar@@@Z ; ioTrinityItem::ChangeFullChargeAttack
  00088	eb 0d		 jmp	 SHORT $LN1@CheckNetWo
$LN3@CheckNetWo:

; 666  : 	else if( m_State == TS_RELOAD )

  0008a	83 f8 04	 cmp	 eax, 4
  0008d	75 08		 jne	 SHORT $LN1@CheckNetWo

; 667  : 		ChangeReloadState(pOwner);

  0008f	53		 push	 ebx
  00090	8b ce		 mov	 ecx, esi
  00092	e8 00 00 00 00	 call	 ?ChangeReloadState@ioTrinityItem@@IAEXPAVioBaseChar@@@Z ; ioTrinityItem::ChangeReloadState
$LN1@CheckNetWo:
  00097	5f		 pop	 edi
  00098	5e		 pop	 esi
  00099	5b		 pop	 ebx

; 668  : }

  0009a	c9		 leave
  0009b	c2 08 00	 ret	 8
?CheckNetWork@ioTrinityItem@@AAEXPAVioBaseChar@@AAVSP2Packet@@@Z ENDP ; ioTrinityItem::CheckNetWork
_TEXT	ENDS
PUBLIC	?CheckState@ioTrinityItem@@IAEXPAVioBaseChar@@AAVSP2Packet@@@Z ; ioTrinityItem::CheckState
; Function compile flags: /Ogsp
;	COMDAT ?CheckState@ioTrinityItem@@IAEXPAVioBaseChar@@AAVSP2Packet@@@Z
_TEXT	SEGMENT
_qtRot$ = -16						; size = 16
_pOwner$ = 8						; size = 4
_nState$ = 12						; size = 4
_rkPacket$ = 12						; size = 4
?CheckState@ioTrinityItem@@IAEXPAVioBaseChar@@AAVSP2Packet@@@Z PROC ; ioTrinityItem::CheckState, COMDAT
; _this$ = ecx

; 849  : {

  00000	55		 push	 ebp
  00001	8b ec		 mov	 ebp, esp
  00003	83 ec 10	 sub	 esp, 16			; 00000010H

; 850  : 	if( !pOwner )

  00006	83 7d 08 00	 cmp	 DWORD PTR _pOwner$[ebp], 0
  0000a	56		 push	 esi
  0000b	8b f1		 mov	 esi, ecx
  0000d	74 4f		 je	 SHORT $LN3@CheckState

; 851  : 		return;
; 852  : 
; 853  : 	int nState;
; 854  : 	rkPacket >> nState;

  0000f	57		 push	 edi
  00010	8b 7d 0c	 mov	 edi, DWORD PTR _rkPacket$[ebp]
  00013	8d 45 0c	 lea	 eax, DWORD PTR _nState$[ebp]
  00016	50		 push	 eax
  00017	8b cf		 mov	 ecx, edi
  00019	e8 00 00 00 00	 call	 ??5SP2Packet@@QAEAAV0@AAH@Z ; SP2Packet::operator>>

; 855  : 
; 856  : 	D3DXQUATERNION qtRot;
; 857  : 	rkPacket >> qtRot;

  0001e	8d 45 f0	 lea	 eax, DWORD PTR _qtRot$[ebp]
  00021	50		 push	 eax
  00022	8b cf		 mov	 ecx, edi
  00024	e8 00 00 00 00	 call	 ??5SP2Packet@@QAEAAV0@AAUD3DXQUATERNION@@@Z ; SP2Packet::operator>>

; 858  : 	rkPacket >> m_fCurGauge;

  00029	8d 86 9c 20 00
	00		 lea	 eax, DWORD PTR [esi+8348]
  0002f	50		 push	 eax
  00030	8b cf		 mov	 ecx, edi
  00032	e8 00 00 00 00	 call	 ??5SP2Packet@@QAEAAV0@AAV?$CEncrypt@M@@@Z ; SP2Packet::operator>>

; 859  : 	rkPacket >> m_nWeaponIndex;

  00037	8d 86 00 21 00
	00		 lea	 eax, DWORD PTR [esi+8448]
  0003d	50		 push	 eax
  0003e	8b cf		 mov	 ecx, edi
  00040	e8 00 00 00 00	 call	 ??5SP2Packet@@QAEAAV0@AAH@Z ; SP2Packet::operator>>

; 860  : 
; 861  : 	switch( nState )

  00045	8b 45 0c	 mov	 eax, DWORD PTR _nState$[ebp]
  00048	48		 dec	 eax
  00049	5f		 pop	 edi
  0004a	75 12		 jne	 SHORT $LN3@CheckState

; 862  : 	{
; 863  : 	case TS_GATHERING:
; 864  : 		SetTrinityState( pOwner, m_AttackInfo, false );

  0004c	50		 push	 eax
  0004d	8d 86 90 19 00
	00		 lea	 eax, DWORD PTR [esi+6544]
  00053	50		 push	 eax
  00054	ff 75 08	 push	 DWORD PTR _pOwner$[ebp]
  00057	8b ce		 mov	 ecx, esi
  00059	e8 00 00 00 00	 call	 ?SetTrinityState@ioTrinityItem@@QAEXPAVioBaseChar@@ABUtagTrinityInfo@@_N@Z ; ioTrinityItem::SetTrinityState
$LN3@CheckState:
  0005e	5e		 pop	 esi

; 865  : 		break;
; 866  : 	default: break;
; 867  : 	}
; 868  : }

  0005f	c9		 leave
  00060	c2 08 00	 ret	 8
?CheckState@ioTrinityItem@@IAEXPAVioBaseChar@@AAVSP2Packet@@@Z ENDP ; ioTrinityItem::CheckState
_TEXT	ENDS
PUBLIC	?MaxGauge@ioTrinityItem@@QAEXXZ			; ioTrinityItem::MaxGauge
; Function compile flags: /Ogsp
;	COMDAT ?MaxGauge@ioTrinityItem@@QAEXXZ
_TEXT	SEGMENT
?MaxGauge@ioTrinityItem@@QAEXXZ PROC			; ioTrinityItem::MaxGauge, COMDAT
; _this$ = ecx

; 901  : 	m_fCurGauge = m_fMaxGauge;

  00000	8d 81 6c 20 00
	00		 lea	 eax, DWORD PTR [ecx+8300]
  00006	50		 push	 eax
  00007	81 c1 9c 20 00
	00		 add	 ecx, 8348		; 0000209cH
  0000d	e8 00 00 00 00	 call	 ??4?$CEncrypt@M@@QAE_NAAV0@@Z ; CEncrypt<float>::operator=

; 902  : }

  00012	c3		 ret	 0
?MaxGauge@ioTrinityItem@@QAEXXZ ENDP			; ioTrinityItem::MaxGauge
_TEXT	ENDS
PUBLIC	?SetCurGauge@ioTrinityItem@@QAEXM@Z		; ioTrinityItem::SetCurGauge
EXTRN	__EH_epilog3_GS:PROC
EXTRN	__EH_prolog3_GS:PROC
;	COMDAT xdata$x
; File d:\lost saga for developer\youtube\tutorial\source\src\lsclient\encryptvalue.h
xdata$x	SEGMENT
__unwindtable$?SetCurGauge@ioTrinityItem@@QAEXM@Z DD 0ffffffffH
	DD	FLAT:__unwindfunclet$?SetCurGauge@ioTrinityItem@@QAEXM@Z$0
	DD	00H
	DD	FLAT:__unwindfunclet$?SetCurGauge@ioTrinityItem@@QAEXM@Z$1
__ehfuncinfo$?SetCurGauge@ioTrinityItem@@QAEXM@Z DD 019930522H
	DD	02H
	DD	FLAT:__unwindtable$?SetCurGauge@ioTrinityItem@@QAEXM@Z
	DD	2 DUP(00H)
	DD	2 DUP(00H)
	DD	00H
	DD	01H
; Function compile flags: /Ogsp
; File d:\lost saga for developer\youtube\tutorial\source\src\lsclient\iotrinityitem.cpp
xdata$x	ENDS
;	COMDAT ?SetCurGauge@ioTrinityItem@@QAEXM@Z
_TEXT	SEGMENT
_value$556271 = -128					; size = 4
_value$556255 = -124					; size = 4
_value$556247 = -124					; size = 4
_value$556235 = -124					; size = 4
$T556225 = -120						; size = 4
_value$556263 = -116					; size = 4
_value$556267 = -116					; size = 4
_value$556251 = -116					; size = 4
_value$556239 = -116					; size = 4
$T556218 = -116						; size = 4
$T551137 = -112						; size = 48
$T551134 = -64						; size = 48
__$EHRec$ = -12						; size = 12
_fGauge$ = 8						; size = 4
?SetCurGauge@ioTrinityItem@@QAEXM@Z PROC		; ioTrinityItem::SetCurGauge, COMDAT
; _this$ = ecx

; 910  : {

  00000	6a 74		 push	 116			; 00000074H
  00002	b8 00 00 00 00	 mov	 eax, __ehhandler$?SetCurGauge@ioTrinityItem@@QAEXM@Z
  00007	e8 00 00 00 00	 call	 __EH_prolog3_GS
  0000c	83 65 88 00	 and	 DWORD PTR $T556225[ebp], 0

; 911  : 	m_fCurGauge = fGauge;

  00010	f3 0f 10 45 08	 movss	 xmm0, DWORD PTR _fGauge$[ebp]
  00015	8b f1		 mov	 esi, ecx
  00017	8d 45 84	 lea	 eax, DWORD PTR _value$556235[ebp]
  0001a	8d be 9c 20 00
	00		 lea	 edi, DWORD PTR [esi+8348]
  00020	50		 push	 eax
  00021	8b cf		 mov	 ecx, edi
  00023	f3 0f 11 45 84	 movss	 DWORD PTR _value$556235[ebp], xmm0
  00028	e8 00 00 00 00	 call	 ?EncryptValueToPool@?$CEncrypt@M@@AAEXPBD@Z ; CEncrypt<float>::EncryptValueToPool

; 912  : 	m_fCurGauge = (float)max( 0, min( m_fCurGauge, m_fMaxGauge ) );

  0002d	8d 45 8c	 lea	 eax, DWORD PTR _value$556239[ebp]
  00030	81 c6 6c 20 00
	00		 add	 esi, 8300		; 0000206cH
  00036	50		 push	 eax
  00037	8b ce		 mov	 ecx, esi
  00039	e8 00 00 00 00	 call	 ?DecryptValueToPool@?$CEncrypt@M@@QAEXPAM@Z ; CEncrypt<float>::DecryptValueToPool
  0003e	8d 45 84	 lea	 eax, DWORD PTR _value$556247[ebp]
  00041	50		 push	 eax
  00042	8b cf		 mov	 ecx, edi
  00044	e8 00 00 00 00	 call	 ?DecryptValueToPool@?$CEncrypt@M@@QAEXPAM@Z ; CEncrypt<float>::DecryptValueToPool
  00049	f3 0f 10 45 84	 movss	 xmm0, DWORD PTR _value$556247[ebp]
  0004e	f3 0f 10 4d 8c	 movss	 xmm1, DWORD PTR _value$556239[ebp]
  00053	8d 45 8c	 lea	 eax, DWORD PTR _value$556251[ebp]
  00056	0f 5a c0	 cvtps2pd xmm0, xmm0
  00059	0f 5a c9	 cvtps2pd xmm1, xmm1
  0005c	66 0f 2f c8	 comisd	 xmm1, xmm0
  00060	8b cf		 mov	 ecx, edi
  00062	50		 push	 eax
  00063	0f 46 ce	 cmovbe	 ecx, esi
  00066	e8 00 00 00 00	 call	 ?DecryptValueToPool@?$CEncrypt@M@@QAEXPAM@Z ; CEncrypt<float>::DecryptValueToPool
  0006b	f3 0f 10 45 8c	 movss	 xmm0, DWORD PTR _value$556251[ebp]
  00070	0f 57 c9	 xorps	 xmm1, xmm1
  00073	0f 5a c0	 cvtps2pd xmm0, xmm0
  00076	66 0f 2f c8	 comisd	 xmm1, xmm0
  0007a	76 21		 jbe	 SHORT $LN7@SetCurGaug
  0007c	0f 57 c0	 xorps	 xmm0, xmm0
  0007f	8d 45 8c	 lea	 eax, DWORD PTR $T556218[ebp]
  00082	50		 push	 eax
  00083	8d 4d c0	 lea	 ecx, DWORD PTR $T551134[ebp]
  00086	f3 0f 11 45 8c	 movss	 DWORD PTR $T556218[ebp], xmm0
  0008b	e8 00 00 00 00	 call	 ??0?$CEncrypt@M@@QAE@ABM@Z ; CEncrypt<float>::CEncrypt<float>
  00090	83 65 fc 00	 and	 DWORD PTR __$EHRec$[ebp+8], 0
  00094	c7 45 88 01 00
	00 00		 mov	 DWORD PTR $T556225[ebp], 1
  0009b	eb 44		 jmp	 SHORT $LN8@SetCurGaug
$LN7@SetCurGaug:
  0009d	8d 45 84	 lea	 eax, DWORD PTR _value$556255[ebp]
  000a0	50		 push	 eax
  000a1	8b ce		 mov	 ecx, esi
  000a3	e8 00 00 00 00	 call	 ?DecryptValueToPool@?$CEncrypt@M@@QAEXPAM@Z ; CEncrypt<float>::DecryptValueToPool
  000a8	8d 45 8c	 lea	 eax, DWORD PTR _value$556263[ebp]
  000ab	50		 push	 eax
  000ac	8b cf		 mov	 ecx, edi
  000ae	e8 00 00 00 00	 call	 ?DecryptValueToPool@?$CEncrypt@M@@QAEXPAM@Z ; CEncrypt<float>::DecryptValueToPool
  000b3	f3 0f 10 45 8c	 movss	 xmm0, DWORD PTR _value$556263[ebp]
  000b8	f3 0f 10 4d 84	 movss	 xmm1, DWORD PTR _value$556255[ebp]
  000bd	0f 5a c0	 cvtps2pd xmm0, xmm0
  000c0	0f 5a c9	 cvtps2pd xmm1, xmm1
  000c3	66 0f 2f c8	 comisd	 xmm1, xmm0
  000c7	0f 47 f7	 cmova	 esi, edi
  000ca	56		 push	 esi
  000cb	8d 4d 90	 lea	 ecx, DWORD PTR $T551137[ebp]
  000ce	e8 00 00 00 00	 call	 ??0?$CEncrypt@M@@QAE@ABV0@@Z ; CEncrypt<float>::CEncrypt<float>
  000d3	c7 45 fc 01 00
	00 00		 mov	 DWORD PTR __$EHRec$[ebp+8], 1
  000da	c7 45 88 02 00
	00 00		 mov	 DWORD PTR $T556225[ebp], 2
$LN8@SetCurGaug:
  000e1	8d 4d 8c	 lea	 ecx, DWORD PTR _value$556267[ebp]
  000e4	51		 push	 ecx
  000e5	8b c8		 mov	 ecx, eax
  000e7	e8 00 00 00 00	 call	 ?DecryptValueToPool@?$CEncrypt@M@@QAEXPAM@Z ; CEncrypt<float>::DecryptValueToPool
  000ec	f3 0f 10 45 8c	 movss	 xmm0, DWORD PTR _value$556267[ebp]
  000f1	8d 45 80	 lea	 eax, DWORD PTR _value$556271[ebp]
  000f4	50		 push	 eax
  000f5	8b cf		 mov	 ecx, edi
  000f7	f3 0f 11 45 80	 movss	 DWORD PTR _value$556271[ebp], xmm0
  000fc	e8 00 00 00 00	 call	 ?EncryptValueToPool@?$CEncrypt@M@@AAEXPBD@Z ; CEncrypt<float>::EncryptValueToPool
  00101	83 65 fc 00	 and	 DWORD PTR __$EHRec$[ebp+8], 0
  00105	f6 45 88 02	 test	 BYTE PTR $T556225[ebp], 2
  00109	be 00 00 00 00	 mov	 esi, OFFSET ??_7?$CEncrypt@M@@6B@
  0010e	74 0f		 je	 SHORT $LN13@SetCurGaug
  00110	83 65 88 fd	 and	 DWORD PTR $T556225[ebp], -3 ; fffffffdH
  00114	8d 4d 9c	 lea	 ecx, DWORD PTR $T551137[ebp+12]
  00117	89 75 90	 mov	 DWORD PTR $T551137[ebp], esi
  0011a	e8 00 00 00 00	 call	 ??1ccddaabb@@UAE@XZ	; ccddaabb::~ccddaabb
$LN13@SetCurGaug:
  0011f	83 4d fc ff	 or	 DWORD PTR __$EHRec$[ebp+8], -1
  00123	f6 45 88 01	 test	 BYTE PTR $T556225[ebp], 1
  00127	74 0b		 je	 SHORT $LN14@SetCurGaug
  00129	8d 4d cc	 lea	 ecx, DWORD PTR $T551134[ebp+12]
  0012c	89 75 c0	 mov	 DWORD PTR $T551134[ebp], esi
  0012f	e8 00 00 00 00	 call	 ??1ccddaabb@@UAE@XZ	; ccddaabb::~ccddaabb
$LN14@SetCurGaug:

; 913  : }

  00134	e8 00 00 00 00	 call	 __EH_epilog3_GS
  00139	c2 04 00	 ret	 4
_TEXT	ENDS
;	COMDAT text$x
text$x	SEGMENT
__unwindfunclet$?SetCurGauge@ioTrinityItem@@QAEXM@Z$0:
  00000	8b 45 88	 mov	 eax, DWORD PTR $T556225[ebp]
  00003	83 e0 01	 and	 eax, 1
  00006	0f 84 0c 00 00
	00		 je	 $LN10@SetCurGaug
  0000c	83 65 88 fe	 and	 DWORD PTR $T556225[ebp], -2 ; fffffffeH
  00010	8d 4d c0	 lea	 ecx, DWORD PTR $T551134[ebp]
  00013	e9 00 00 00 00	 jmp	 ??1?$CEncrypt@M@@UAE@XZ	; CEncrypt<float>::~CEncrypt<float>
$LN10@SetCurGaug:
  00018	c3		 ret	 0
__unwindfunclet$?SetCurGauge@ioTrinityItem@@QAEXM@Z$1:
  00019	8b 45 88	 mov	 eax, DWORD PTR $T556225[ebp]
  0001c	83 e0 02	 and	 eax, 2
  0001f	0f 84 0c 00 00
	00		 je	 $LN12@SetCurGaug
  00025	83 65 88 fd	 and	 DWORD PTR $T556225[ebp], -3 ; fffffffdH
  00029	8d 4d 90	 lea	 ecx, DWORD PTR $T551137[ebp]
  0002c	e9 00 00 00 00	 jmp	 ??1?$CEncrypt@M@@UAE@XZ	; CEncrypt<float>::~CEncrypt<float>
$LN12@SetCurGaug:
  00031	c3		 ret	 0
__ehhandler$?SetCurGauge@ioTrinityItem@@QAEXM@Z:
  00032	8b 54 24 08	 mov	 edx, DWORD PTR [esp+8]
  00036	8d 42 0c	 lea	 eax, DWORD PTR [edx+12]
  00039	8b 8a 7c ff ff
	ff		 mov	 ecx, DWORD PTR [edx-132]
  0003f	33 c8		 xor	 ecx, eax
  00041	e8 00 00 00 00	 call	 @__security_check_cookie@4
  00046	8b 4a fc	 mov	 ecx, DWORD PTR [edx-4]
  00049	33 c8		 xor	 ecx, eax
  0004b	e8 00 00 00 00	 call	 @__security_check_cookie@4
  00050	b8 00 00 00 00	 mov	 eax, OFFSET __ehfuncinfo$?SetCurGauge@ioTrinityItem@@QAEXM@Z
  00055	e9 00 00 00 00	 jmp	 ___CxxFrameHandler3
text$x	ENDS
?SetCurGauge@ioTrinityItem@@QAEXM@Z ENDP		; ioTrinityItem::SetCurGauge
PUBLIC	?UpdateExtraData@ioTrinityItem@@UAEXPAVioBaseChar@@@Z ; ioTrinityItem::UpdateExtraData
EXTRN	?IsSystemState@ioBaseChar@@QAE_NXZ:PROC		; ioBaseChar::IsSystemState
EXTRN	__imp_?GetSecPerFrame@ioFrameTimer@@QBEMXZ:PROC
; Function compile flags: /Ogsp
;	COMDAT ?UpdateExtraData@ioTrinityItem@@UAEXPAVioBaseChar@@@Z
_TEXT	SEGMENT
_value$556327 = -8					; size = 4
_fTimePerSec$ = -8					; size = 4
_value$556318 = -4					; size = 4
_value$556306 = -4					; size = 4
_value$556335 = 8					; size = 4
_value$556322 = 8					; size = 4
_value$556314 = 8					; size = 4
_pOwner$ = 8						; size = 4
?UpdateExtraData@ioTrinityItem@@UAEXPAVioBaseChar@@@Z PROC ; ioTrinityItem::UpdateExtraData, COMDAT
; _this$ = ecx

; 932  : {

  00000	55		 push	 ebp
  00001	8b ec		 mov	 ebp, esp
  00003	51		 push	 ecx
  00004	51		 push	 ecx
  00005	56		 push	 esi
  00006	57		 push	 edi

; 933  : 	if( !pOwner )

  00007	8b 7d 08	 mov	 edi, DWORD PTR _pOwner$[ebp]
  0000a	8b f1		 mov	 esi, ecx
  0000c	85 ff		 test	 edi, edi
  0000e	0f 84 f6 00 00
	00		 je	 $LN1@UpdateExtr

; 934  : 		return;
; 935  : 
; 936  : 	// check owner state
; 937  : 	float fTimePerSec = g_FrameTimer.GetSecPerFrame();

  00014	ff 15 00 00 00
	00		 call	 DWORD PTR __imp_?GetSingleton@ioFrameTimer@@SAAAV1@XZ
  0001a	8b c8		 mov	 ecx, eax
  0001c	ff 15 00 00 00
	00		 call	 DWORD PTR __imp_?GetSecPerFrame@ioFrameTimer@@QBEMXZ
  00022	d9 5d f8	 fstp	 DWORD PTR _fTimePerSec$[ebp]

; 938  : 
; 939  : 	if( pOwner->IsSystemState() )

  00025	8b cf		 mov	 ecx, edi
  00027	e8 00 00 00 00	 call	 ?IsSystemState@ioBaseChar@@QAE_NXZ ; ioBaseChar::IsSystemState
  0002c	84 c0		 test	 al, al
  0002e	0f 85 d6 00 00
	00		 jne	 $LN1@UpdateExtr

; 940  : 		return;
; 941  : 
; 942  : 	switch( pOwner->GetState() )

  00034	80 bf 10 03 00
	00 63		 cmp	 BYTE PTR [edi+784], 99	; 00000063H
  0003b	0f 84 c9 00 00
	00		 je	 $LN1@UpdateExtr

; 943  : 	{
; 944  : 	case CS_TRINITY:
; 945  : 		return;
; 946  : 	default:
; 947  : 		if( m_fCurGauge < m_fMaxGauge )

  00041	53		 push	 ebx
  00042	8d 45 fc	 lea	 eax, DWORD PTR _value$556306[ebp]
  00045	8d 9e 6c 20 00
	00		 lea	 ebx, DWORD PTR [esi+8300]
  0004b	50		 push	 eax
  0004c	8b cb		 mov	 ecx, ebx
  0004e	e8 00 00 00 00	 call	 ?DecryptValueToPool@?$CEncrypt@M@@QAEXPAM@Z ; CEncrypt<float>::DecryptValueToPool
  00053	8d 45 08	 lea	 eax, DWORD PTR _value$556314[ebp]
  00056	8d be 9c 20 00
	00		 lea	 edi, DWORD PTR [esi+8348]
  0005c	50		 push	 eax
  0005d	8b cf		 mov	 ecx, edi
  0005f	e8 00 00 00 00	 call	 ?DecryptValueToPool@?$CEncrypt@M@@QAEXPAM@Z ; CEncrypt<float>::DecryptValueToPool
  00064	f3 0f 10 45 08	 movss	 xmm0, DWORD PTR _value$556314[ebp]
  00069	f3 0f 10 4d fc	 movss	 xmm1, DWORD PTR _value$556306[ebp]
  0006e	0f 5a c0	 cvtps2pd xmm0, xmm0
  00071	0f 5a c9	 cvtps2pd xmm1, xmm1
  00074	66 0f 2f c8	 comisd	 xmm1, xmm0
  00078	0f 86 8b 00 00
	00		 jbe	 $LN32@UpdateExtr

; 948  : 		{
; 949  : 			float fGauge = m_fIncreaseGauge * fTimePerSec;

  0007e	8d 45 fc	 lea	 eax, DWORD PTR _value$556318[ebp]
  00081	50		 push	 eax
  00082	8d 8e cc 20 00
	00		 lea	 ecx, DWORD PTR [esi+8396]
  00088	e8 00 00 00 00	 call	 ?DecryptValueToPool@?$CEncrypt@M@@QAEXPAM@Z ; CEncrypt<float>::DecryptValueToPool

; 950  : 
; 951  : 			m_fCurGauge += fGauge;

  0008d	8d 45 08	 lea	 eax, DWORD PTR _value$556322[ebp]
  00090	50		 push	 eax
  00091	8b cf		 mov	 ecx, edi
  00093	e8 00 00 00 00	 call	 ?DecryptValueToPool@?$CEncrypt@M@@QAEXPAM@Z ; CEncrypt<float>::DecryptValueToPool
  00098	f3 0f 10 45 fc	 movss	 xmm0, DWORD PTR _value$556318[ebp]
  0009d	f3 0f 10 4d f8	 movss	 xmm1, DWORD PTR _fTimePerSec$[ebp]
  000a2	0f 5a c0	 cvtps2pd xmm0, xmm0
  000a5	0f 5a c9	 cvtps2pd xmm1, xmm1
  000a8	f2 0f 59 c1	 mulsd	 xmm0, xmm1
  000ac	f3 0f 10 4d 08	 movss	 xmm1, DWORD PTR _value$556322[ebp]
  000b1	66 0f 5a c0	 cvtpd2ps xmm0, xmm0
  000b5	f3 0f 5a c0	 cvtss2sd xmm0, xmm0
  000b9	0f 5a c9	 cvtps2pd xmm1, xmm1
  000bc	8d 45 08	 lea	 eax, DWORD PTR _value$556322[ebp]
  000bf	f2 0f 58 c1	 addsd	 xmm0, xmm1
  000c3	66 0f 5a c0	 cvtpd2ps xmm0, xmm0
  000c7	50		 push	 eax
  000c8	8b cf		 mov	 ecx, edi
  000ca	f3 0f 11 45 08	 movss	 DWORD PTR _value$556322[ebp], xmm0
  000cf	e8 00 00 00 00	 call	 ?EncryptValueToPool@?$CEncrypt@M@@AAEXPBD@Z ; CEncrypt<float>::EncryptValueToPool

; 952  : 			m_fCurGauge = min( m_fCurGauge, m_fMaxGauge );

  000d4	8d 45 f8	 lea	 eax, DWORD PTR _value$556327[ebp]
  000d7	50		 push	 eax
  000d8	8b cb		 mov	 ecx, ebx
  000da	e8 00 00 00 00	 call	 ?DecryptValueToPool@?$CEncrypt@M@@QAEXPAM@Z ; CEncrypt<float>::DecryptValueToPool
  000df	8d 45 08	 lea	 eax, DWORD PTR _value$556335[ebp]
  000e2	50		 push	 eax
  000e3	8b cf		 mov	 ecx, edi
  000e5	e8 00 00 00 00	 call	 ?DecryptValueToPool@?$CEncrypt@M@@QAEXPAM@Z ; CEncrypt<float>::DecryptValueToPool
  000ea	f3 0f 10 45 08	 movss	 xmm0, DWORD PTR _value$556335[ebp]
  000ef	f3 0f 10 4d f8	 movss	 xmm1, DWORD PTR _value$556327[ebp]
  000f4	0f 5a c0	 cvtps2pd xmm0, xmm0
  000f7	0f 5a c9	 cvtps2pd xmm1, xmm1
  000fa	66 0f 2f c8	 comisd	 xmm1, xmm0
  000fe	0f 47 df	 cmova	 ebx, edi
  00101	53		 push	 ebx
  00102	8b cf		 mov	 ecx, edi
  00104	e8 00 00 00 00	 call	 ??4?$CEncrypt@M@@QAE_NAAV0@@Z ; CEncrypt<float>::operator=
$LN32@UpdateExtr:
  00109	5b		 pop	 ebx
$LN1@UpdateExtr:
  0010a	5f		 pop	 edi
  0010b	5e		 pop	 esi

; 953  : 		}
; 954  : 		return;
; 955  : 	}
; 956  : }

  0010c	c9		 leave
  0010d	c2 04 00	 ret	 4
?UpdateExtraData@ioTrinityItem@@UAEXPAVioBaseChar@@@Z ENDP ; ioTrinityItem::UpdateExtraData
_TEXT	ENDS
PUBLIC	?NextWeapon@ioTrinityItem@@QAEXXZ		; ioTrinityItem::NextWeapon
; Function compile flags: /Ogsp
;	COMDAT ?NextWeapon@ioTrinityItem@@QAEXXZ
_TEXT	SEGMENT
?NextWeapon@ioTrinityItem@@QAEXXZ PROC			; ioTrinityItem::NextWeapon, COMDAT
; _this$ = ecx

; 1142 : {

  00000	56		 push	 esi
  00001	8b f1		 mov	 esi, ecx

; 1143 : 	m_fCurGauge = m_fMaxGauge;

  00003	8d 86 6c 20 00
	00		 lea	 eax, DWORD PTR [esi+8300]
  00009	50		 push	 eax
  0000a	8d 8e 9c 20 00
	00		 lea	 ecx, DWORD PTR [esi+8348]
  00010	e8 00 00 00 00	 call	 ??4?$CEncrypt@M@@QAE_NAAV0@@Z ; CEncrypt<float>::operator=

; 1144 : 	m_nWeaponIndex++;

  00015	8d 86 00 21 00
	00		 lea	 eax, DWORD PTR [esi+8448]
  0001b	ff 00		 inc	 DWORD PTR [eax]
  0001d	8b 08		 mov	 ecx, DWORD PTR [eax]

; 1145 : 
; 1146 : 	if( m_nWeaponIndex >= m_nMaxWeaponCnt )

  0001f	3b 8e 04 21 00
	00		 cmp	 ecx, DWORD PTR [esi+8452]
  00025	5e		 pop	 esi
  00026	7c 03		 jl	 SHORT $LN1@NextWeapon

; 1147 : 		m_nWeaponIndex = 0;

  00028	83 20 00	 and	 DWORD PTR [eax], 0
$LN1@NextWeapon:

; 1148 : }

  0002b	c3		 ret	 0
?NextWeapon@ioTrinityItem@@QAEXXZ ENDP			; ioTrinityItem::NextWeapon
_TEXT	ENDS
PUBLIC	??$_Uninit_copy@V?$_Vector_const_iterator@V?$_Vector_val@UForceInfo@@V?$allocator@UForceInfo@@@std@@@std@@@std@@PAUForceInfo@@V?$allocator@UForceInfo@@@2@@std@@YAPAUForceInfo@@V?$_Vector_const_iterator@V?$_Vector_val@UForceInfo@@V?$allocator@UForceInfo@@@std@@@std@@@0@0PAU1@AAV?$allocator@UForceInfo@@@0@U_Nonscalar_ptr_iterator_tag@0@@Z ; std::_Uninit_copy<std::_Vector_const_iterator<std::_Vector_val<ForceInfo,std::allocator<ForceInfo> > >,ForceInfo *,std::allocator<ForceInfo> >
; Function compile flags: /Ogsp
; File c:\program files (x86)\microsoft visual studio 10.0\vc\include\memory
;	COMDAT ??$_Uninit_copy@V?$_Vector_const_iterator@V?$_Vector_val@UForceInfo@@V?$allocator@UForceInfo@@@std@@@std@@@std@@PAUForceInfo@@V?$allocator@UForceInfo@@@2@@std@@YAPAUForceInfo@@V?$_Vector_const_iterator@V?$_Vector_val@UForceInfo@@V?$allocator@UForceInfo@@@std@@@std@@@0@0PAU1@AAV?$allocator@UForceInfo@@@0@U_Nonscalar_ptr_iterator_tag@0@@Z
_TEXT	SEGMENT
__First$ = 8						; size = 4
__Last$ = 12						; size = 4
__Dest$ = 16						; size = 4
__Al$ = 20						; size = 4
___formal$ = 24						; size = 1
??$_Uninit_copy@V?$_Vector_const_iterator@V?$_Vector_val@UForceInfo@@V?$allocator@UForceInfo@@@std@@@std@@@std@@PAUForceInfo@@V?$allocator@UForceInfo@@@2@@std@@YAPAUForceInfo@@V?$_Vector_const_iterator@V?$_Vector_val@UForceInfo@@V?$allocator@UForceInfo@@@std@@@std@@@0@0PAU1@AAV?$allocator@UForceInfo@@@0@U_Nonscalar_ptr_iterator_tag@0@@Z PROC ; std::_Uninit_copy<std::_Vector_const_iterator<std::_Vector_val<ForceInfo,std::allocator<ForceInfo> > >,ForceInfo *,std::allocator<ForceInfo> >, COMDAT

; 369  : 	{	// copy [_First, _Last) to raw _Dest, using _Al, arbitrary type

  00000	55		 push	 ebp
  00001	8b ec		 mov	 ebp, esp

; 370  : 	_DEBUG_RANGE(_First, _Last);
; 371  : 	_DEBUG_POINTER(_Dest);
; 372  : 	_FwdIt _Next = _Dest;
; 373  : 
; 374  : 	_TRY_BEGIN
; 375  : 	for (; _First != _Last; ++_Dest, ++_First)

  00003	eb 19		 jmp	 SHORT $LN35@Uninit_cop
$LL14@Uninit_cop:

; 376  : 		_Cons_val(_Al, _Dest, *_First);

  00005	ff 75 08	 push	 DWORD PTR __First$[ebp]
  00008	ff 75 10	 push	 DWORD PTR __Dest$[ebp]
  0000b	ff 75 14	 push	 DWORD PTR __Al$[ebp]
  0000e	e8 00 00 00 00	 call	 ??$_Cons_val@V?$allocator@UForceInfo@@@std@@UForceInfo@@ABU3@@std@@YAXAAV?$allocator@UForceInfo@@@0@PAUForceInfo@@ABU2@@Z ; std::_Cons_val<std::allocator<ForceInfo>,ForceInfo,ForceInfo const &>
  00013	83 45 10 0c	 add	 DWORD PTR __Dest$[ebp], 12 ; 0000000cH
  00017	83 c4 0c	 add	 esp, 12			; 0000000cH
  0001a	83 45 08 0c	 add	 DWORD PTR __First$[ebp], 12 ; 0000000cH
$LN35@Uninit_cop:

; 370  : 	_DEBUG_RANGE(_First, _Last);
; 371  : 	_DEBUG_POINTER(_Dest);
; 372  : 	_FwdIt _Next = _Dest;
; 373  : 
; 374  : 	_TRY_BEGIN
; 375  : 	for (; _First != _Last; ++_Dest, ++_First)

  0001e	8b 45 08	 mov	 eax, DWORD PTR __First$[ebp]
  00021	3b 45 0c	 cmp	 eax, DWORD PTR __Last$[ebp]
  00024	75 df		 jne	 SHORT $LL14@Uninit_cop

; 377  : 	_CATCH_ALL
; 378  : 	for (; _Next != _Dest; ++_Next)
; 379  : 		_Dest_val(_Al, _Next);
; 380  : 	_RERAISE;
; 381  : 	_CATCH_END
; 382  : 	return (_Dest);

  00026	8b 45 10	 mov	 eax, DWORD PTR __Dest$[ebp]

; 383  : 	}

  00029	5d		 pop	 ebp
  0002a	c3		 ret	 0
??$_Uninit_copy@V?$_Vector_const_iterator@V?$_Vector_val@UForceInfo@@V?$allocator@UForceInfo@@@std@@@std@@@std@@PAUForceInfo@@V?$allocator@UForceInfo@@@2@@std@@YAPAUForceInfo@@V?$_Vector_const_iterator@V?$_Vector_val@UForceInfo@@V?$allocator@UForceInfo@@@std@@@std@@@0@0PAU1@AAV?$allocator@UForceInfo@@@0@U_Nonscalar_ptr_iterator_tag@0@@Z ENDP ; std::_Uninit_copy<std::_Vector_const_iterator<std::_Vector_val<ForceInfo,std::allocator<ForceInfo> > >,ForceInfo *,std::allocator<ForceInfo> >
_TEXT	ENDS
PUBLIC	??$_Cons_val@V?$allocator@UWeaponInfo@@@std@@UWeaponInfo@@ABU3@@std@@YAXAAV?$allocator@UWeaponInfo@@@0@PAUWeaponInfo@@ABU2@@Z ; std::_Cons_val<std::allocator<WeaponInfo>,WeaponInfo,WeaponInfo const &>
; Function compile flags: /Ogsp
; File c:\program files (x86)\microsoft visual studio 10.0\vc\include\xmemory
;	COMDAT ??$_Cons_val@V?$allocator@UWeaponInfo@@@std@@UWeaponInfo@@ABU3@@std@@YAXAAV?$allocator@UWeaponInfo@@@0@PAUWeaponInfo@@ABU2@@Z
_TEXT	SEGMENT
__Alval$ = 8						; size = 4
__Pdest$ = 12						; size = 4
__Src$ = 16						; size = 4
??$_Cons_val@V?$allocator@UWeaponInfo@@@std@@UWeaponInfo@@ABU3@@std@@YAXAAV?$allocator@UWeaponInfo@@@0@PAUWeaponInfo@@ABU2@@Z PROC ; std::_Cons_val<std::allocator<WeaponInfo>,WeaponInfo,WeaponInfo const &>, COMDAT

; 279  : 	{	// construct using allocator

  00000	55		 push	 ebp
  00001	8b ec		 mov	 ebp, esp

; 280  : 	_Alval.construct(_Pdest, _STD forward<_Ty2>(_Src));

  00003	ff 75 10	 push	 DWORD PTR __Src$[ebp]
  00006	ff 75 0c	 push	 DWORD PTR __Pdest$[ebp]
  00009	e8 00 00 00 00	 call	 ??$_Construct@UWeaponInfo@@ABU1@@std@@YAXPAUWeaponInfo@@ABU1@@Z ; std::_Construct<WeaponInfo,WeaponInfo const &>
  0000e	59		 pop	 ecx
  0000f	59		 pop	 ecx

; 281  : 	}

  00010	5d		 pop	 ebp
  00011	c3		 ret	 0
??$_Cons_val@V?$allocator@UWeaponInfo@@@std@@UWeaponInfo@@ABU3@@std@@YAXAAV?$allocator@UWeaponInfo@@@0@PAUWeaponInfo@@ABU2@@Z ENDP ; std::_Cons_val<std::allocator<WeaponInfo>,WeaponInfo,WeaponInfo const &>
_TEXT	ENDS
PUBLIC	??$_Destroy_range@V?$allocator@UForceInfo@@@std@@@std@@YAXPAUForceInfo@@0AAV?$allocator@UForceInfo@@@0@U_Nonscalar_ptr_iterator_tag@0@@Z ; std::_Destroy_range<std::allocator<ForceInfo> >
; Function compile flags: /Ogsp
;	COMDAT ??$_Destroy_range@V?$allocator@UForceInfo@@@std@@@std@@YAXPAUForceInfo@@0AAV?$allocator@UForceInfo@@@0@U_Nonscalar_ptr_iterator_tag@0@@Z
_TEXT	SEGMENT
__First$ = 8						; size = 4
__Last$ = 12						; size = 4
__Al$ = 16						; size = 4
___formal$ = 20						; size = 1
??$_Destroy_range@V?$allocator@UForceInfo@@@std@@@std@@YAXPAUForceInfo@@0AAV?$allocator@UForceInfo@@@0@U_Nonscalar_ptr_iterator_tag@0@@Z PROC ; std::_Destroy_range<std::allocator<ForceInfo> >, COMDAT

; 96   : 	for (; _First != _Last; ++_First)
; 97   : 		_Dest_val(_Al, _First);
; 98   : 	}

  00000	c3		 ret	 0
??$_Destroy_range@V?$allocator@UForceInfo@@@std@@@std@@YAXPAUForceInfo@@0AAV?$allocator@UForceInfo@@@0@U_Nonscalar_ptr_iterator_tag@0@@Z ENDP ; std::_Destroy_range<std::allocator<ForceInfo> >
_TEXT	ENDS
PUBLIC	??$_Dest_val@V?$allocator@VioHashString@@@std@@VioHashString@@@std@@YAXAAV?$allocator@VioHashString@@@0@PAVioHashString@@@Z ; std::_Dest_val<std::allocator<ioHashString>,ioHashString>
; Function compile flags: /Ogsp
;	COMDAT ??$_Dest_val@V?$allocator@VioHashString@@@std@@VioHashString@@@std@@YAXAAV?$allocator@VioHashString@@@0@PAVioHashString@@@Z
_TEXT	SEGMENT
__Alval$ = 8						; size = 4
__Pdest$ = 12						; size = 4
??$_Dest_val@V?$allocator@VioHashString@@@std@@VioHashString@@@std@@YAXAAV?$allocator@VioHashString@@@0@PAVioHashString@@@Z PROC ; std::_Dest_val<std::allocator<ioHashString>,ioHashString>, COMDAT

; 286  : 	{	// destroy using allocator

  00000	55		 push	 ebp
  00001	8b ec		 mov	 ebp, esp

; 287  : 	_Alval.destroy(_Pdest);

  00003	8b 4d 0c	 mov	 ecx, DWORD PTR __Pdest$[ebp]

; 288  : 	}

  00006	5d		 pop	 ebp

; 287  : 	_Alval.destroy(_Pdest);

  00007	ff 25 00 00 00
	00		 jmp	 DWORD PTR __imp_??1ioHashString@@QAE@XZ
??$_Dest_val@V?$allocator@VioHashString@@@std@@VioHashString@@@std@@YAXAAV?$allocator@VioHashString@@@0@PAVioHashString@@@Z ENDP ; std::_Dest_val<std::allocator<ioHashString>,ioHashString>
_TEXT	ENDS
PUBLIC	??$_Dest_val@V?$allocator@UWeaponInfo@@@std@@UWeaponInfo@@@std@@YAXAAV?$allocator@UWeaponInfo@@@0@PAUWeaponInfo@@@Z ; std::_Dest_val<std::allocator<WeaponInfo>,WeaponInfo>
; Function compile flags: /Ogsp
;	COMDAT ??$_Dest_val@V?$allocator@UWeaponInfo@@@std@@UWeaponInfo@@@std@@YAXAAV?$allocator@UWeaponInfo@@@0@PAUWeaponInfo@@@Z
_TEXT	SEGMENT
__Alval$ = 8						; size = 4
__Pdest$ = 12						; size = 4
??$_Dest_val@V?$allocator@UWeaponInfo@@@std@@UWeaponInfo@@@std@@YAXAAV?$allocator@UWeaponInfo@@@0@PAUWeaponInfo@@@Z PROC ; std::_Dest_val<std::allocator<WeaponInfo>,WeaponInfo>, COMDAT

; 286  : 	{	// destroy using allocator

  00000	55		 push	 ebp
  00001	8b ec		 mov	 ebp, esp

; 287  : 	_Alval.destroy(_Pdest);

  00003	8b 4d 0c	 mov	 ecx, DWORD PTR __Pdest$[ebp]
  00006	83 c1 08	 add	 ecx, 8

; 288  : 	}

  00009	5d		 pop	 ebp

; 287  : 	_Alval.destroy(_Pdest);

  0000a	ff 25 00 00 00
	00		 jmp	 DWORD PTR __imp_??1ioHashString@@QAE@XZ
??$_Dest_val@V?$allocator@UWeaponInfo@@@std@@UWeaponInfo@@@std@@YAXAAV?$allocator@UWeaponInfo@@@0@PAUWeaponInfo@@@Z ENDP ; std::_Dest_val<std::allocator<WeaponInfo>,WeaponInfo>
_TEXT	ENDS
PUBLIC	?OnCharging@ioTrinityItem@@IAEXPAVioBaseChar@@@Z ; ioTrinityItem::OnCharging
EXTRN	?IsAttackKeyDown@ioBaseChar@@QBE_NXZ:PROC	; ioBaseChar::IsAttackKeyDown
; Function compile flags: /Ogsp
; File d:\lost saga for developer\youtube\tutorial\source\src\lsclient\iotrinityitem.cpp
;	COMDAT ?OnCharging@ioTrinityItem@@IAEXPAVioBaseChar@@@Z
_TEXT	SEGMENT
_value$556477 = 8					; size = 4
_pOwner$ = 8						; size = 4
?OnCharging@ioTrinityItem@@IAEXPAVioBaseChar@@@Z PROC	; ioTrinityItem::OnCharging, COMDAT
; _this$ = ecx

; 256  : {

  00000	55		 push	 ebp
  00001	8b ec		 mov	 ebp, esp
  00003	56		 push	 esi
  00004	57		 push	 edi

; 257  : 	if( !pOwner ) return;

  00005	8b 7d 08	 mov	 edi, DWORD PTR _pOwner$[ebp]
  00008	8b f1		 mov	 esi, ecx
  0000a	85 ff		 test	 edi, edi
  0000c	74 5e		 je	 SHORT $LN1@OnCharging

; 258  : 	if( !pOwner->IsNeedProcess() )	return;

  0000e	8b 07		 mov	 eax, DWORD PTR [edi]
  00010	8b cf		 mov	 ecx, edi
  00012	ff 90 00 01 00
	00		 call	 DWORD PTR [eax+256]
  00018	84 c0		 test	 al, al
  0001a	74 50		 je	 SHORT $LN1@OnCharging

; 259  : 
; 260  : 	if( pOwner->IsAttackKeyDown() )//&& !pOwner->IsHasCrown() )

  0001c	8b cf		 mov	 ecx, edi
  0001e	e8 00 00 00 00	 call	 ?IsAttackKeyDown@ioBaseChar@@QBE_NXZ ; ioBaseChar::IsAttackKeyDown
  00023	84 c0		 test	 al, al
  00025	74 3d		 je	 SHORT $LN3@OnCharging

; 261  : 	{
; 262  : 		if( m_dwAttackStartTime + m_dwChargeTime <= FRAMEGETTIME() )

  00027	8d 45 08	 lea	 eax, DWORD PTR _value$556477[ebp]
  0002a	50		 push	 eax
  0002b	8d 8e b0 18 00
	00		 lea	 ecx, DWORD PTR [esi+6320]
  00031	e8 00 00 00 00	 call	 ?DecryptValueToPool@?$CEncrypt@K@@QAEXPAK@Z ; CEncrypt<unsigned long>::DecryptValueToPool
  00036	ff 15 00 00 00
	00		 call	 DWORD PTR __imp_?GetSingleton@ioFrameTimer@@SAAAV1@XZ
  0003c	8b c8		 mov	 ecx, eax
  0003e	ff 15 00 00 00
	00		 call	 DWORD PTR __imp_?GetLoopSec@ioFrameTimer@@QBEKXZ
  00044	8b 8e 88 19 00
	00		 mov	 ecx, DWORD PTR [esi+6536]
  0004a	03 4d 08	 add	 ecx, DWORD PTR _value$556477[ebp]
  0004d	3b c8		 cmp	 ecx, eax
  0004f	77 1b		 ja	 SHORT $LN1@OnCharging

; 263  : 		{
; 264  : 			SetTrinityState( pOwner, m_AttackInfo, true );

  00051	6a 01		 push	 1
  00053	8d 86 90 19 00
	00		 lea	 eax, DWORD PTR [esi+6544]
  00059	50		 push	 eax
  0005a	57		 push	 edi
  0005b	8b ce		 mov	 ecx, esi
  0005d	e8 00 00 00 00	 call	 ?SetTrinityState@ioTrinityItem@@QAEXPAVioBaseChar@@ABUtagTrinityInfo@@_N@Z ; ioTrinityItem::SetTrinityState

; 265  : 			return;

  00062	eb 08		 jmp	 SHORT $LN1@OnCharging
$LN3@OnCharging:

; 266  : 		}
; 267  : 	}
; 268  : 	else
; 269  : 	{
; 270  : 		ChangeToNormalAttack( pOwner );

  00064	57		 push	 edi
  00065	8b ce		 mov	 ecx, esi
  00067	e8 00 00 00 00	 call	 ?ChangeToNormalAttack@ioTrinityItem@@IAEXPAVioBaseChar@@@Z ; ioTrinityItem::ChangeToNormalAttack
$LN1@OnCharging:
  0006c	5f		 pop	 edi
  0006d	5e		 pop	 esi

; 271  : 	}
; 272  : }

  0006e	5d		 pop	 ebp
  0006f	c2 04 00	 ret	 4
?OnCharging@ioTrinityItem@@IAEXPAVioBaseChar@@@Z ENDP	; ioTrinityItem::OnCharging
_TEXT	ENDS
PUBLIC	__$ArrayPad$
PUBLIC	?ChangeReloadedState@ioTrinityItem@@IAEXPAVioBaseChar@@@Z ; ioTrinityItem::ChangeReloadedState
;	COMDAT xdata$x
; File d:\lost saga for developer\youtube\tutorial\source\src\lsclient\iobasechar.h
xdata$x	SEGMENT
__unwindtable$?ChangeReloadedState@ioTrinityItem@@IAEXPAVioBaseChar@@@Z DD 0ffffffffH
	DD	FLAT:__unwindfunclet$?ChangeReloadedState@ioTrinityItem@@IAEXPAVioBaseChar@@@Z$0
__ehfuncinfo$?ChangeReloadedState@ioTrinityItem@@IAEXPAVioBaseChar@@@Z DD 019930522H
	DD	01H
	DD	FLAT:__unwindtable$?ChangeReloadedState@ioTrinityItem@@IAEXPAVioBaseChar@@@Z
	DD	2 DUP(00H)
	DD	2 DUP(00H)
	DD	00H
	DD	01H
; Function compile flags: /Ogsp
; File d:\lost saga for developer\youtube\tutorial\source\src\lsclient\iotrinityitem.cpp
xdata$x	ENDS
;	COMDAT ?ChangeReloadedState@ioTrinityItem@@IAEXPAVioBaseChar@@@Z
_TEXT	SEGMENT
_kPacket$550937 = -32808				; size = 32792
__$ArrayPad$ = -16					; size = 4
__$EHRec$ = -12						; size = 12
_pOwner$ = 8						; size = 4
?ChangeReloadedState@ioTrinityItem@@IAEXPAVioBaseChar@@@Z PROC ; ioTrinityItem::ChangeReloadedState, COMDAT
; _this$ = ecx

; 556  : {

  00000	55		 push	 ebp
  00001	8b ec		 mov	 ebp, esp
  00003	6a ff		 push	 -1
  00005	68 00 00 00 00	 push	 __ehhandler$?ChangeReloadedState@ioTrinityItem@@IAEXPAVioBaseChar@@@Z
  0000a	64 a1 00 00 00
	00		 mov	 eax, DWORD PTR fs:0
  00010	50		 push	 eax
  00011	b8 1c 80 00 00	 mov	 eax, 32796		; 0000801cH
  00016	e8 00 00 00 00	 call	 __chkstk
  0001b	a1 00 00 00 00	 mov	 eax, DWORD PTR ___security_cookie
  00020	33 c5		 xor	 eax, ebp
  00022	89 45 f0	 mov	 DWORD PTR __$ArrayPad$[ebp], eax
  00025	56		 push	 esi
  00026	57		 push	 edi
  00027	50		 push	 eax
  00028	8d 45 f4	 lea	 eax, DWORD PTR __$EHRec$[ebp]
  0002b	64 a3 00 00 00
	00		 mov	 DWORD PTR fs:0, eax
  00031	8b 75 08	 mov	 esi, DWORD PTR _pOwner$[ebp]

; 557  : 	ClearState(pOwner);

  00034	56		 push	 esi
  00035	8b f9		 mov	 edi, ecx
  00037	e8 00 00 00 00	 call	 ?ClearState@ioTrinityItem@@QAEXPAVioBaseChar@@@Z ; ioTrinityItem::ClearState

; 558  : 	
; 559  : 	EraseEntityAndEffect( pOwner );

  0003c	56		 push	 esi
  0003d	8b cf		 mov	 ecx, edi
  0003f	e8 00 00 00 00	 call	 ?EraseEntityAndEffect@ioTrinityItem@@QAEXPAVioBaseChar@@@Z ; ioTrinityItem::EraseEntityAndEffect

; 560  : 
; 561  : 	if( pOwner->IsNeedProcess() )

  00044	8b 06		 mov	 eax, DWORD PTR [esi]
  00046	8b ce		 mov	 ecx, esi
  00048	ff 90 00 01 00
	00		 call	 DWORD PTR [eax+256]
  0004e	84 c0		 test	 al, al
  00050	74 07		 je	 SHORT $LN2@ChangeRelo@2

; 562  : 		NextWeapon();

  00052	8b cf		 mov	 ecx, edi
  00054	e8 00 00 00 00	 call	 ?NextWeapon@ioTrinityItem@@QAEXXZ ; ioTrinityItem::NextWeapon
$LN2@ChangeRelo@2:

; 563  : 
; 564  : 	AddNormalEntityAndEffect(pOwner);

  00059	56		 push	 esi
  0005a	8b cf		 mov	 ecx, edi
  0005c	e8 00 00 00 00	 call	 ?AddNormalEntityAndEffect@ioTrinityItem@@QAEXPAVioBaseChar@@@Z ; ioTrinityItem::AddNormalEntityAndEffect

; 565  : 
; 566  : 	if( pOwner->IsNeedProcess() )

  00061	8b 06		 mov	 eax, DWORD PTR [esi]
  00063	8b ce		 mov	 ecx, esi
  00065	ff 90 00 01 00
	00		 call	 DWORD PTR [eax+256]
  0006b	84 c0		 test	 al, al
  0006d	0f 84 95 00 00
	00		 je	 $LN1@ChangeRelo@2

; 567  : 	{
; 568  : 		SP2Packet kPacket( CUPK_ITEM_GAUGE_CANCEL );

  00073	68 28 41 00 00	 push	 16680			; 00004128H
  00078	8d 8d d8 7f ff
	ff		 lea	 ecx, DWORD PTR _kPacket$550937[ebp]
  0007e	e8 00 00 00 00	 call	 ??0SP2Packet@@QAE@K@Z	; SP2Packet::SP2Packet
  00083	83 65 fc 00	 and	 DWORD PTR __$EHRec$[ebp+8], 0

; 569  : 		FillItemGaugePacketHeader( pOwner, kPacket );

  00087	8d 85 d8 7f ff
	ff		 lea	 eax, DWORD PTR _kPacket$550937[ebp]
  0008d	50		 push	 eax
  0008e	56		 push	 esi
  0008f	8b cf		 mov	 ecx, edi
  00091	e8 00 00 00 00	 call	 ?FillItemGaugePacketHeader@ioAttackableItem@@QAEXPAVioBaseChar@@AAVSP2Packet@@@Z ; ioAttackableItem::FillItemGaugePacketHeader

; 570  : 		kPacket << SST_RELOADED;

  00096	6a 05		 push	 5
  00098	8d 8d d8 7f ff
	ff		 lea	 ecx, DWORD PTR _kPacket$550937[ebp]
  0009e	e8 00 00 00 00	 call	 ??6SP2Packet@@QAEAAV0@H@Z ; SP2Packet::operator<<

; 571  : 		kPacket << m_State;

  000a3	ff b7 84 19 00
	00		 push	 DWORD PTR [edi+6532]
  000a9	8d 8d d8 7f ff
	ff		 lea	 ecx, DWORD PTR _kPacket$550937[ebp]
  000af	e8 00 00 00 00	 call	 ??6SP2Packet@@QAEAAV0@H@Z ; SP2Packet::operator<<

; 572  : 		kPacket << pOwner->GetTargetRot();

  000b4	8d 86 a4 06 00
	00		 lea	 eax, DWORD PTR [esi+1700]
  000ba	50		 push	 eax
  000bb	8d 8d d8 7f ff
	ff		 lea	 ecx, DWORD PTR _kPacket$550937[ebp]
  000c1	e8 00 00 00 00	 call	 ??6SP2Packet@@QAEAAV0@ABUD3DXQUATERNION@@@Z ; SP2Packet::operator<<

; 573  : 		kPacket << m_fCurGauge;

  000c6	8d 87 9c 20 00
	00		 lea	 eax, DWORD PTR [edi+8348]
  000cc	50		 push	 eax
  000cd	8d 8d d8 7f ff
	ff		 lea	 ecx, DWORD PTR _kPacket$550937[ebp]
  000d3	e8 00 00 00 00	 call	 ??6SP2Packet@@QAEAAV0@AAV?$CEncrypt@M@@@Z ; SP2Packet::operator<<

; 574  : 		kPacket << m_nWeaponIndex;

  000d8	ff b7 00 21 00
	00		 push	 DWORD PTR [edi+8448]
  000de	8d 8d d8 7f ff
	ff		 lea	 ecx, DWORD PTR _kPacket$550937[ebp]
  000e4	e8 00 00 00 00	 call	 ??6SP2Packet@@QAEAAV0@H@Z ; SP2Packet::operator<<

; 575  : 		P2PNetwork::SendToAllPlayingUser( kPacket );

  000e9	8d 85 d8 7f ff
	ff		 lea	 eax, DWORD PTR _kPacket$550937[ebp]
  000ef	6a 00		 push	 0
  000f1	50		 push	 eax
  000f2	e8 00 00 00 00	 call	 ?SendToAllPlayingUser@P2PNetwork@@YAXAAVSP2Packet@@PAVioBaseChar@@@Z ; P2PNetwork::SendToAllPlayingUser

; 576  : 	}

  000f7	83 4d fc ff	 or	 DWORD PTR __$EHRec$[ebp+8], -1
  000fb	59		 pop	 ecx
  000fc	59		 pop	 ecx
  000fd	8d 8d d8 7f ff
	ff		 lea	 ecx, DWORD PTR _kPacket$550937[ebp]
  00103	e8 00 00 00 00	 call	 ??1SP2Packet@@UAE@XZ	; SP2Packet::~SP2Packet
$LN1@ChangeRelo@2:

; 577  : 
; 578  : 	pOwner->SetState( CS_DELAY );

  00108	6a 01		 push	 1
  0010a	6a 00		 push	 0
  0010c	8b ce		 mov	 ecx, esi
  0010e	e8 00 00 00 00	 call	 ?SetState@ioBaseChar@@QAEXH_N@Z ; ioBaseChar::SetState

; 579  : }

  00113	8b 4d f4	 mov	 ecx, DWORD PTR __$EHRec$[ebp]
  00116	64 89 0d 00 00
	00 00		 mov	 DWORD PTR fs:0, ecx
  0011d	59		 pop	 ecx
  0011e	5f		 pop	 edi
  0011f	5e		 pop	 esi
  00120	8b 4d f0	 mov	 ecx, DWORD PTR __$ArrayPad$[ebp]
  00123	33 cd		 xor	 ecx, ebp
  00125	e8 00 00 00 00	 call	 @__security_check_cookie@4
  0012a	c9		 leave
  0012b	c2 04 00	 ret	 4
_TEXT	ENDS
;	COMDAT text$x
text$x	SEGMENT
__unwindfunclet$?ChangeReloadedState@ioTrinityItem@@IAEXPAVioBaseChar@@@Z$0:
  00000	8d 8d d8 7f ff
	ff		 lea	 ecx, DWORD PTR _kPacket$550937[ebp]
  00006	e9 00 00 00 00	 jmp	 ??1SP2Packet@@UAE@XZ	; SP2Packet::~SP2Packet
__ehhandler$?ChangeReloadedState@ioTrinityItem@@IAEXPAVioBaseChar@@@Z:
  0000b	8b 54 24 08	 mov	 edx, DWORD PTR [esp+8]
  0000f	8d 42 0c	 lea	 eax, DWORD PTR [edx+12]
  00012	8b 8a d8 7f ff
	ff		 mov	 ecx, DWORD PTR [edx-32808]
  00018	33 c8		 xor	 ecx, eax
  0001a	e8 00 00 00 00	 call	 @__security_check_cookie@4
  0001f	8b 4a fc	 mov	 ecx, DWORD PTR [edx-4]
  00022	33 c8		 xor	 ecx, eax
  00024	e8 00 00 00 00	 call	 @__security_check_cookie@4
  00029	b8 00 00 00 00	 mov	 eax, OFFSET __ehfuncinfo$?ChangeReloadedState@ioTrinityItem@@IAEXPAVioBaseChar@@@Z
  0002e	e9 00 00 00 00	 jmp	 ___CxxFrameHandler3
text$x	ENDS
?ChangeReloadedState@ioTrinityItem@@IAEXPAVioBaseChar@@@Z ENDP ; ioTrinityItem::ChangeReloadedState
PUBLIC	?OnItemGaugeCancel@ioTrinityItem@@UAEXPAVioBaseChar@@AAVSP2Packet@@@Z ; ioTrinityItem::OnItemGaugeCancel
; Function compile flags: /Ogsp
;	COMDAT ?OnItemGaugeCancel@ioTrinityItem@@UAEXPAVioBaseChar@@AAVSP2Packet@@@Z
_TEXT	SEGMENT
_qtRot$550969 = -20					; size = 16
_nState$550967 = -4					; size = 4
_pOwner$ = 8						; size = 4
_iSyncType$ = 12					; size = 4
_rkPacket$ = 12						; size = 4
?OnItemGaugeCancel@ioTrinityItem@@UAEXPAVioBaseChar@@AAVSP2Packet@@@Z PROC ; ioTrinityItem::OnItemGaugeCancel, COMDAT
; _this$ = ecx

; 604  : {

  00000	55		 push	 ebp
  00001	8b ec		 mov	 ebp, esp
  00003	83 ec 14	 sub	 esp, 20			; 00000014H
  00006	56		 push	 esi
  00007	57		 push	 edi

; 605  : 	int iSyncType;
; 606  : 	rkPacket >> iSyncType;

  00008	8b 7d 0c	 mov	 edi, DWORD PTR _rkPacket$[ebp]
  0000b	8d 45 0c	 lea	 eax, DWORD PTR _iSyncType$[ebp]
  0000e	8b f1		 mov	 esi, ecx
  00010	50		 push	 eax
  00011	8b cf		 mov	 ecx, edi
  00013	e8 00 00 00 00	 call	 ??5SP2Packet@@QAEAAV0@AAH@Z ; SP2Packet::operator>>

; 607  : 
; 608  : 	switch( iSyncType )

  00018	8b 45 0c	 mov	 eax, DWORD PTR _iSyncType$[ebp]
  0001b	83 e8 00	 sub	 eax, 0
  0001e	74 7e		 je	 SHORT $LN8@OnItemGaug@2
  00020	48		 dec	 eax
  00021	74 6e		 je	 SHORT $LN7@OnItemGaug@2
  00023	48		 dec	 eax
  00024	74 6b		 je	 SHORT $LN7@OnItemGaug@2
  00026	48		 dec	 eax
  00027	74 68		 je	 SHORT $LN7@OnItemGaug@2
  00029	48		 dec	 eax
  0002a	74 65		 je	 SHORT $LN7@OnItemGaug@2
  0002c	48		 dec	 eax
  0002d	74 0f		 je	 SHORT $LN3@OnItemGaug@2
  0002f	48		 dec	 eax
  00030	75 77		 jne	 SHORT $LN9@OnItemGaug@2

; 642  : 	case SST_END:
; 643  : 		ChangeEndState(pOwner);

  00032	ff 75 08	 push	 DWORD PTR _pOwner$[ebp]
  00035	8b ce		 mov	 ecx, esi
  00037	e8 00 00 00 00	 call	 ?ChangeEndState@ioTrinityItem@@IAEXPAVioBaseChar@@@Z ; ioTrinityItem::ChangeEndState

; 644  : 		break;

  0003c	eb 6b		 jmp	 SHORT $LN9@OnItemGaug@2
$LN3@OnItemGaug@2:

; 618  : 	case SST_NONE_FIRE:
; 619  : 		CheckNetWork( pOwner, rkPacket );
; 620  : 		break;
; 621  : 	case SST_CHARGE_FIRE:
; 622  : 		CheckNetWork( pOwner, rkPacket );
; 623  : 		break;
; 624  : 	case SST_RELOAD:
; 625  : 		CheckNetWork( pOwner, rkPacket );
; 626  : 		break;
; 627  : 	case SST_RELOADED:
; 628  : 		{
; 629  : 
; 630  : 			int nState;
; 631  : 			rkPacket >> nState;

  0003e	8d 45 fc	 lea	 eax, DWORD PTR _nState$550967[ebp]
  00041	50		 push	 eax
  00042	8b cf		 mov	 ecx, edi
  00044	e8 00 00 00 00	 call	 ??5SP2Packet@@QAEAAV0@AAH@Z ; SP2Packet::operator>>

; 632  : 			m_State = (TrinityState)nState;

  00049	8b 45 fc	 mov	 eax, DWORD PTR _nState$550967[ebp]
  0004c	89 86 84 19 00
	00		 mov	 DWORD PTR [esi+6532], eax

; 633  : 			D3DXQUATERNION qtRot;
; 634  : 			rkPacket >> qtRot;

  00052	8d 45 ec	 lea	 eax, DWORD PTR _qtRot$550969[ebp]
  00055	50		 push	 eax
  00056	8b cf		 mov	 ecx, edi
  00058	e8 00 00 00 00	 call	 ??5SP2Packet@@QAEAAV0@AAUD3DXQUATERNION@@@Z ; SP2Packet::operator>>

; 635  : 			pOwner->SetTargetRot( qtRot );

  0005d	8b 4d 08	 mov	 ecx, DWORD PTR _pOwner$[ebp]
  00060	8d 45 ec	 lea	 eax, DWORD PTR _qtRot$550969[ebp]
  00063	50		 push	 eax
  00064	e8 00 00 00 00	 call	 ?SetTargetRot@ioBaseChar@@QAEXABUD3DXQUATERNION@@@Z ; ioBaseChar::SetTargetRot

; 636  : 			rkPacket >> m_fCurGauge;

  00069	8d 86 9c 20 00
	00		 lea	 eax, DWORD PTR [esi+8348]
  0006f	50		 push	 eax
  00070	8b cf		 mov	 ecx, edi
  00072	e8 00 00 00 00	 call	 ??5SP2Packet@@QAEAAV0@AAV?$CEncrypt@M@@@Z ; SP2Packet::operator>>

; 637  : 			rkPacket >> m_nWeaponIndex;

  00077	8d 86 00 21 00
	00		 lea	 eax, DWORD PTR [esi+8448]
  0007d	50		 push	 eax
  0007e	8b cf		 mov	 ecx, edi
  00080	e8 00 00 00 00	 call	 ??5SP2Packet@@QAEAAV0@AAH@Z ; SP2Packet::operator>>

; 638  : 
; 639  : 			ChangeReloadedState( pOwner );

  00085	ff 75 08	 push	 DWORD PTR _pOwner$[ebp]
  00088	8b ce		 mov	 ecx, esi
  0008a	e8 00 00 00 00	 call	 ?ChangeReloadedState@ioTrinityItem@@IAEXPAVioBaseChar@@@Z ; ioTrinityItem::ChangeReloadedState

; 640  : 		}
; 641  : 		break;

  0008f	eb 18		 jmp	 SHORT $LN9@OnItemGaug@2
$LN7@OnItemGaug@2:

; 613  : 		}
; 614  : 		break;
; 615  : 	case SST_GATHERING:
; 616  : 		CheckNetWork( pOwner, rkPacket );

  00091	57		 push	 edi
  00092	ff 75 08	 push	 DWORD PTR _pOwner$[ebp]
  00095	8b ce		 mov	 ecx, esi
  00097	e8 00 00 00 00	 call	 ?CheckNetWork@ioTrinityItem@@AAEXPAVioBaseChar@@AAVSP2Packet@@@Z ; ioTrinityItem::CheckNetWork

; 617  : 		break;

  0009c	eb 0b		 jmp	 SHORT $LN9@OnItemGaug@2
$LN8@OnItemGaug@2:

; 609  : 	{
; 610  : 	case SST_CHANGE_STATE:
; 611  : 		{
; 612  : 			CheckState( pOwner, rkPacket );

  0009e	57		 push	 edi
  0009f	ff 75 08	 push	 DWORD PTR _pOwner$[ebp]
  000a2	8b ce		 mov	 ecx, esi
  000a4	e8 00 00 00 00	 call	 ?CheckState@ioTrinityItem@@IAEXPAVioBaseChar@@AAVSP2Packet@@@Z ; ioTrinityItem::CheckState
$LN9@OnItemGaug@2:
  000a9	5f		 pop	 edi
  000aa	5e		 pop	 esi

; 645  : 	default: break;
; 646  : 	}
; 647  : }

  000ab	c9		 leave
  000ac	c2 08 00	 ret	 8
?OnItemGaugeCancel@ioTrinityItem@@UAEXPAVioBaseChar@@AAVSP2Packet@@@Z ENDP ; ioTrinityItem::OnItemGaugeCancel
_TEXT	ENDS
PUBLIC	?ProcessTrinityState@ioTrinityItem@@QAEXPAVioBaseChar@@@Z ; ioTrinityItem::ProcessTrinityState
; Function compile flags: /Ogsp
;	COMDAT ?ProcessTrinityState@ioTrinityItem@@QAEXPAVioBaseChar@@@Z
_TEXT	SEGMENT
$T556505 = -4						; size = 4
tv209 = 8						; size = 4
_value$556513 = 8					; size = 4
_pOwner$ = 8						; size = 4
?ProcessTrinityState@ioTrinityItem@@QAEXPAVioBaseChar@@@Z PROC ; ioTrinityItem::ProcessTrinityState, COMDAT
; _this$ = ecx

; 794  : {

  00000	55		 push	 ebp
  00001	8b ec		 mov	 ebp, esp
  00003	51		 push	 ecx
  00004	53		 push	 ebx

; 795  : 	if( !pOwner )

  00005	8b 5d 08	 mov	 ebx, DWORD PTR _pOwner$[ebp]
  00008	56		 push	 esi
  00009	8b f1		 mov	 esi, ecx
  0000b	85 db		 test	 ebx, ebx
  0000d	0f 84 e0 00 00
	00		 je	 $LN7@ProcessTri

; 796  : 		return;
; 797  : 
; 798  : 	DWORD dwCurTime = FRAMEGETTIME();

  00013	57		 push	 edi
  00014	ff 15 00 00 00
	00		 call	 DWORD PTR __imp_?GetSingleton@ioFrameTimer@@SAAAV1@XZ
  0001a	8b c8		 mov	 ecx, eax
  0001c	ff 15 00 00 00
	00		 call	 DWORD PTR __imp_?GetLoopSec@ioFrameTimer@@QBEKXZ
  00022	8b f8		 mov	 edi, eax

; 799  : 
; 800  : 	switch( m_State )

  00024	8b 86 84 19 00
	00		 mov	 eax, DWORD PTR [esi+6532]
  0002a	48		 dec	 eax
  0002b	74 58		 je	 SHORT $LN12@ProcessTri
  0002d	48		 dec	 eax
  0002e	74 35		 je	 SHORT $LN4@ProcessTri
  00030	48		 dec	 eax
  00031	74 32		 je	 SHORT $LN4@ProcessTri
  00033	48		 dec	 eax
  00034	0f 85 b8 00 00
	00		 jne	 $LN25@ProcessTri

; 839  : 	case TS_RELOAD:
; 840  : 		if( pOwner->IsNeedProcess() && dwCurTime > m_dwMotionEndTime )

  0003a	8b 03		 mov	 eax, DWORD PTR [ebx]
  0003c	8b cb		 mov	 ecx, ebx
  0003e	ff 90 00 01 00
	00		 call	 DWORD PTR [eax+256]
  00044	84 c0		 test	 al, al
  00046	0f 84 a6 00 00
	00		 je	 $LN25@ProcessTri
  0004c	3b be fc 20 00
	00		 cmp	 edi, DWORD PTR [esi+8444]
  00052	0f 86 9a 00 00
	00		 jbe	 $LN25@ProcessTri

; 841  : 		{
; 842  : 			ChangeReloadedState( pOwner );

  00058	53		 push	 ebx
  00059	8b ce		 mov	 ecx, esi
  0005b	e8 00 00 00 00	 call	 ?ChangeReloadedState@ioTrinityItem@@IAEXPAVioBaseChar@@@Z ; ioTrinityItem::ChangeReloadedState

; 843  : 		}
; 844  : 		break;

  00060	e9 8d 00 00 00	 jmp	 $LN25@ProcessTri
$LN4@ProcessTri:

; 821  : 			}
; 822  : 		}
; 823  : 
; 824  : 		break;
; 825  : 	case TS_SPECIAL_FULL_CHARGE:
; 826  : 		if( pOwner->IsNeedProcess() && dwCurTime > m_dwMotionEndTime )
; 827  : 		{
; 828  : 			ChangeEndState( pOwner );
; 829  : 			//AddNormalEntityAndEffect(pOwner);
; 830  : 		}
; 831  : 		break;
; 832  : 	case TS_SPECIAL_NONE_CHARGE:
; 833  : 		if( pOwner->IsNeedProcess() && dwCurTime > m_dwMotionEndTime )

  00065	8b 03		 mov	 eax, DWORD PTR [ebx]
  00067	8b cb		 mov	 ecx, ebx
  00069	ff 90 00 01 00
	00		 call	 DWORD PTR [eax+256]
  0006f	84 c0		 test	 al, al
  00071	74 7f		 je	 SHORT $LN25@ProcessTri
  00073	3b be fc 20 00
	00		 cmp	 edi, DWORD PTR [esi+8444]
  00079	76 77		 jbe	 SHORT $LN25@ProcessTri

; 834  : 		{
; 835  : 			ChangeEndState( pOwner );

  0007b	53		 push	 ebx
  0007c	8b ce		 mov	 ecx, esi
  0007e	e8 00 00 00 00	 call	 ?ChangeEndState@ioTrinityItem@@IAEXPAVioBaseChar@@@Z ; ioTrinityItem::ChangeEndState

; 836  : 			//AddNormalEntityAndEffect(pOwner);
; 837  : 		}
; 838  : 		break;

  00083	eb 6d		 jmp	 SHORT $LN25@ProcessTri
$LN12@ProcessTri:

; 801  : 	{
; 802  : 	case TS_GATHERING:
; 803  : 		if( pOwner->IsNeedProcess() )

  00085	8b 03		 mov	 eax, DWORD PTR [ebx]
  00087	8b cb		 mov	 ecx, ebx
  00089	ff 90 00 01 00
	00		 call	 DWORD PTR [eax+256]
  0008f	84 c0		 test	 al, al
  00091	74 5f		 je	 SHORT $LN25@ProcessTri

; 804  : 		{
; 805  : 			if( m_fCurGauge < FLOAT1 )

  00093	b8 01 00 00 00	 mov	 eax, 1
  00098	89 45 fc	 mov	 DWORD PTR $T556505[ebp], eax
  0009b	8d 45 08	 lea	 eax, DWORD PTR _value$556513[ebp]
  0009e	50		 push	 eax
  0009f	8d 8e 9c 20 00
	00		 lea	 ecx, DWORD PTR [esi+8348]
  000a5	e8 00 00 00 00	 call	 ?DecryptValueToPool@?$CEncrypt@M@@QAEXPAM@Z ; CEncrypt<float>::DecryptValueToPool
  000aa	d9 45 08	 fld	 DWORD PTR _value$556513[ebp]
  000ad	8b 45 fc	 mov	 eax, DWORD PTR $T556505[ebp]
  000b0	db 45 fc	 fild	 DWORD PTR $T556505[ebp]
  000b3	85 c0		 test	 eax, eax
  000b5	79 06		 jns	 SHORT $LN26@ProcessTri
  000b7	d8 05 00 00 00
	00		 fadd	 DWORD PTR __real@4f800000
$LN26@ProcessTri:
  000bd	df f1		 fcomip	 ST(1)
  000bf	dd d8		 fstp	 ST(0)
  000c1	76 0a		 jbe	 SHORT $LN10@ProcessTri

; 806  : 			{
; 807  : 				ChangeReloadState(pOwner);

  000c3	53		 push	 ebx
  000c4	8b ce		 mov	 ecx, esi
  000c6	e8 00 00 00 00	 call	 ?ChangeReloadState@ioTrinityItem@@IAEXPAVioBaseChar@@@Z ; ioTrinityItem::ChangeReloadState

; 808  : 				return;

  000cb	eb 25		 jmp	 SHORT $LN25@ProcessTri
$LN10@ProcessTri:

; 809  : 			}
; 810  : 
; 811  : 			if( pOwner->IsAttackKeyDown() )

  000cd	8b cb		 mov	 ecx, ebx
  000cf	e8 00 00 00 00	 call	 ?IsAttackKeyDown@ioBaseChar@@QBE_NXZ ; ioBaseChar::IsAttackKeyDown
  000d4	84 c0		 test	 al, al
  000d6	74 12		 je	 SHORT $LN9@ProcessTri

; 812  : 			{
; 813  : 				if(	dwCurTime > m_dwMotionEndTime )

  000d8	3b be fc 20 00
	00		 cmp	 edi, DWORD PTR [esi+8444]
  000de	76 12		 jbe	 SHORT $LN25@ProcessTri

; 814  : 				{
; 815  : 					ChangeFullChargeAttack( pOwner );

  000e0	53		 push	 ebx
  000e1	8b ce		 mov	 ecx, esi
  000e3	e8 00 00 00 00	 call	 ?ChangeFullChargeAttack@ioTrinityItem@@IAEXPAVioBaseChar@@@Z ; ioTrinityItem::ChangeFullChargeAttack

; 816  : 				}
; 817  : 			}
; 818  : 			else

  000e8	eb 08		 jmp	 SHORT $LN25@ProcessTri
$LN9@ProcessTri:

; 819  : 			{
; 820  : 				ChangeNoneChargeAttack( pOwner );

  000ea	53		 push	 ebx
  000eb	8b ce		 mov	 ecx, esi
  000ed	e8 00 00 00 00	 call	 ?ChangeNoneChargeAttack@ioTrinityItem@@IAEXPAVioBaseChar@@@Z ; ioTrinityItem::ChangeNoneChargeAttack
$LN25@ProcessTri:
  000f2	5f		 pop	 edi
$LN7@ProcessTri:
  000f3	5e		 pop	 esi
  000f4	5b		 pop	 ebx

; 845  : 	}
; 846  : }

  000f5	c9		 leave
  000f6	c2 04 00	 ret	 4
?ProcessTrinityState@ioTrinityItem@@QAEXPAVioBaseChar@@@Z ENDP ; ioTrinityItem::ProcessTrinityState
; Function compile flags: /Ogsp
_TEXT	ENDS
;	COMDAT ?CheckSpecialState@ioTrinitySpecialState@@UAEXPAVioBaseChar@@@Z
_TEXT	SEGMENT
_pOwner$ = 8						; size = 4
?CheckSpecialState@ioTrinitySpecialState@@UAEXPAVioBaseChar@@@Z PROC ; ioTrinitySpecialState::CheckSpecialState, COMDAT
; _this$ = ecx

; 1202 : {

  00000	55		 push	 ebp
  00001	8b ec		 mov	 ebp, esp

; 1203 : 	ioTrinityItem *pTrinity = ToTrinityItem( pOwner->GetPriorityItem( SPT_ATTACK ) );

  00003	8b 4d 08	 mov	 ecx, DWORD PTR _pOwner$[ebp]
  00006	6a 05		 push	 5
  00008	e8 00 00 00 00	 call	 ?GetPriorityItem@ioBaseChar@@QBEPAVioAttackableItem@@W4StatePriorityType@@@Z ; ioBaseChar::GetPriorityItem
  0000d	50		 push	 eax
  0000e	e8 00 00 00 00	 call	 ?ToTrinityItem@@YAPAVioTrinityItem@@PAVioItem@@@Z ; ToTrinityItem
  00013	59		 pop	 ecx

; 1204 : 	if( pTrinity )

  00014	85 c0		 test	 eax, eax
  00016	74 08		 je	 SHORT $LN2@CheckSpeci

; 1205 : 		pTrinity->ProcessTrinityState( pOwner );

  00018	8b c8		 mov	 ecx, eax

; 1209 : 		return;
; 1210 : 	}
; 1211 : }

  0001a	5d		 pop	 ebp

; 1205 : 		pTrinity->ProcessTrinityState( pOwner );

  0001b	e9 00 00 00 00	 jmp	 ?ProcessTrinityState@ioTrinityItem@@QAEXPAVioBaseChar@@@Z ; ioTrinityItem::ProcessTrinityState
$LN2@CheckSpeci:

; 1206 : 	else
; 1207 : 	{
; 1208 : 		pOwner->SetState( CS_DELAY );

  00020	8b 4d 08	 mov	 ecx, DWORD PTR _pOwner$[ebp]
  00023	6a 01		 push	 1
  00025	6a 00		 push	 0
  00027	e8 00 00 00 00	 call	 ?SetState@ioBaseChar@@QAEXH_N@Z ; ioBaseChar::SetState

; 1209 : 		return;
; 1210 : 	}
; 1211 : }

  0002c	5d		 pop	 ebp
  0002d	c2 04 00	 ret	 4
?CheckSpecialState@ioTrinitySpecialState@@UAEXPAVioBaseChar@@@Z ENDP ; ioTrinitySpecialState::CheckSpecialState
_TEXT	ENDS
PUBLIC	??$_Uninitialized_copy@V?$_Vector_const_iterator@V?$_Vector_val@UForceInfo@@V?$allocator@UForceInfo@@@std@@@std@@@std@@PAUForceInfo@@V?$allocator@UForceInfo@@@2@@std@@YAPAUForceInfo@@V?$_Vector_const_iterator@V?$_Vector_val@UForceInfo@@V?$allocator@UForceInfo@@@std@@@std@@@0@0PAU1@AAV?$allocator@UForceInfo@@@0@@Z ; std::_Uninitialized_copy<std::_Vector_const_iterator<std::_Vector_val<ForceInfo,std::allocator<ForceInfo> > >,ForceInfo *,std::allocator<ForceInfo> >
; Function compile flags: /Ogsp
; File c:\program files (x86)\microsoft visual studio 10.0\vc\include\memory
;	COMDAT ??$_Uninitialized_copy@V?$_Vector_const_iterator@V?$_Vector_val@UForceInfo@@V?$allocator@UForceInfo@@@std@@@std@@@std@@PAUForceInfo@@V?$allocator@UForceInfo@@@2@@std@@YAPAUForceInfo@@V?$_Vector_const_iterator@V?$_Vector_val@UForceInfo@@V?$allocator@UForceInfo@@@std@@@std@@@0@0PAU1@AAV?$allocator@UForceInfo@@@0@@Z
_TEXT	SEGMENT
__Cat$556526 = -4					; size = 1
__First$ = 8						; size = 4
__Last$ = 12						; size = 4
__Dest$ = 16						; size = 4
__Al$ = 20						; size = 4
??$_Uninitialized_copy@V?$_Vector_const_iterator@V?$_Vector_val@UForceInfo@@V?$allocator@UForceInfo@@@std@@@std@@@std@@PAUForceInfo@@V?$allocator@UForceInfo@@@2@@std@@YAPAUForceInfo@@V?$_Vector_const_iterator@V?$_Vector_val@UForceInfo@@V?$allocator@UForceInfo@@@std@@@std@@@0@0PAU1@AAV?$allocator@UForceInfo@@@0@@Z PROC ; std::_Uninitialized_copy<std::_Vector_const_iterator<std::_Vector_val<ForceInfo,std::allocator<ForceInfo> > >,ForceInfo *,std::allocator<ForceInfo> >, COMDAT

; 412  : 	{	// copy [_First, _Last) to raw _Dest, using _Al

  00000	55		 push	 ebp
  00001	8b ec		 mov	 ebp, esp
  00003	51		 push	 ecx

; 413  : 	return (_Uninit_copy(_First, _Last, _Dest, _Al,
; 414  : 		_Ptr_cat(_First, _Dest)));

  00004	ff 75 fc	 push	 DWORD PTR __Cat$556526[ebp]
  00007	ff 75 14	 push	 DWORD PTR __Al$[ebp]
  0000a	ff 75 10	 push	 DWORD PTR __Dest$[ebp]
  0000d	ff 75 0c	 push	 DWORD PTR __Last$[ebp]
  00010	ff 75 08	 push	 DWORD PTR __First$[ebp]
  00013	e8 00 00 00 00	 call	 ??$_Uninit_copy@V?$_Vector_const_iterator@V?$_Vector_val@UForceInfo@@V?$allocator@UForceInfo@@@std@@@std@@@std@@PAUForceInfo@@V?$allocator@UForceInfo@@@2@@std@@YAPAUForceInfo@@V?$_Vector_const_iterator@V?$_Vector_val@UForceInfo@@V?$allocator@UForceInfo@@@std@@@std@@@0@0PAU1@AAV?$allocator@UForceInfo@@@0@U_Nonscalar_ptr_iterator_tag@0@@Z ; std::_Uninit_copy<std::_Vector_const_iterator<std::_Vector_val<ForceInfo,std::allocator<ForceInfo> > >,ForceInfo *,std::allocator<ForceInfo> >
  00018	83 c4 14	 add	 esp, 20			; 00000014H

; 415  : 	}

  0001b	c9		 leave
  0001c	c3		 ret	 0
??$_Uninitialized_copy@V?$_Vector_const_iterator@V?$_Vector_val@UForceInfo@@V?$allocator@UForceInfo@@@std@@@std@@@std@@PAUForceInfo@@V?$allocator@UForceInfo@@@2@@std@@YAPAUForceInfo@@V?$_Vector_const_iterator@V?$_Vector_val@UForceInfo@@V?$allocator@UForceInfo@@@std@@@std@@@0@0PAU1@AAV?$allocator@UForceInfo@@@0@@Z ENDP ; std::_Uninitialized_copy<std::_Vector_const_iterator<std::_Vector_val<ForceInfo,std::allocator<ForceInfo> > >,ForceInfo *,std::allocator<ForceInfo> >
_TEXT	ENDS
PUBLIC	??$_Uninit_copy@V?$_Vector_const_iterator@V?$_Vector_val@UWeaponInfo@@V?$allocator@UWeaponInfo@@@std@@@std@@@std@@PAUWeaponInfo@@V?$allocator@UWeaponInfo@@@2@@std@@YAPAUWeaponInfo@@V?$_Vector_const_iterator@V?$_Vector_val@UWeaponInfo@@V?$allocator@UWeaponInfo@@@std@@@std@@@0@0PAU1@AAV?$allocator@UWeaponInfo@@@0@U_Nonscalar_ptr_iterator_tag@0@@Z ; std::_Uninit_copy<std::_Vector_const_iterator<std::_Vector_val<WeaponInfo,std::allocator<WeaponInfo> > >,WeaponInfo *,std::allocator<WeaponInfo> >
EXTRN	__EH_prolog3_catch:PROC
;	COMDAT xdata$x
; File d:\lost saga for developer\youtube\tutorial\source\src\lsclient\playentityhelpstruct.h
xdata$x	SEGMENT
__catchsym$??$_Uninit_copy@V?$_Vector_const_iterator@V?$_Vector_val@UWeaponInfo@@V?$allocator@UWeaponInfo@@@std@@@std@@@std@@PAUWeaponInfo@@V?$allocator@UWeaponInfo@@@2@@std@@YAPAUWeaponInfo@@V?$_Vector_const_iterator@V?$_Vector_val@UWeaponInfo@@V?$allocator@UWeaponInfo@@@std@@@std@@@0@0PAU1@AAV?$allocator@UWeaponInfo@@@0@U_Nonscalar_ptr_iterator_tag@0@@Z$3 DD 040H
	DD	00H
	DD	00H
	DD	FLAT:__catch$??$_Uninit_copy@V?$_Vector_const_iterator@V?$_Vector_val@UWeaponInfo@@V?$allocator@UWeaponInfo@@@std@@@std@@@std@@PAUWeaponInfo@@V?$allocator@UWeaponInfo@@@2@@std@@YAPAUWeaponInfo@@V?$_Vector_const_iterator@V?$_Vector_val@UWeaponInfo@@V?$allocator@UWeaponInfo@@@std@@@std@@@0@0PAU1@AAV?$allocator@UWeaponInfo@@@0@U_Nonscalar_ptr_iterator_tag@0@@Z$0
__unwindtable$??$_Uninit_copy@V?$_Vector_const_iterator@V?$_Vector_val@UWeaponInfo@@V?$allocator@UWeaponInfo@@@std@@@std@@@std@@PAUWeaponInfo@@V?$allocator@UWeaponInfo@@@2@@std@@YAPAUWeaponInfo@@V?$_Vector_const_iterator@V?$_Vector_val@UWeaponInfo@@V?$allocator@UWeaponInfo@@@std@@@std@@@0@0PAU1@AAV?$allocator@UWeaponInfo@@@0@U_Nonscalar_ptr_iterator_tag@0@@Z DD 0ffffffffH
	DD	00H
	DD	0ffffffffH
	DD	00H
__tryblocktable$??$_Uninit_copy@V?$_Vector_const_iterator@V?$_Vector_val@UWeaponInfo@@V?$allocator@UWeaponInfo@@@std@@@std@@@std@@PAUWeaponInfo@@V?$allocator@UWeaponInfo@@@2@@std@@YAPAUWeaponInfo@@V?$_Vector_const_iterator@V?$_Vector_val@UWeaponInfo@@V?$allocator@UWeaponInfo@@@std@@@std@@@0@0PAU1@AAV?$allocator@UWeaponInfo@@@0@U_Nonscalar_ptr_iterator_tag@0@@Z DD 00H
	DD	00H
	DD	01H
	DD	01H
	DD	FLAT:__catchsym$??$_Uninit_copy@V?$_Vector_const_iterator@V?$_Vector_val@UWeaponInfo@@V?$allocator@UWeaponInfo@@@std@@@std@@@std@@PAUWeaponInfo@@V?$allocator@UWeaponInfo@@@2@@std@@YAPAUWeaponInfo@@V?$_Vector_const_iterator@V?$_Vector_val@UWeaponInfo@@V?$allocator@UWeaponInfo@@@std@@@std@@@0@0PAU1@AAV?$allocator@UWeaponInfo@@@0@U_Nonscalar_ptr_iterator_tag@0@@Z$3
__ehfuncinfo$??$_Uninit_copy@V?$_Vector_const_iterator@V?$_Vector_val@UWeaponInfo@@V?$allocator@UWeaponInfo@@@std@@@std@@@std@@PAUWeaponInfo@@V?$allocator@UWeaponInfo@@@2@@std@@YAPAUWeaponInfo@@V?$_Vector_const_iterator@V?$_Vector_val@UWeaponInfo@@V?$allocator@UWeaponInfo@@@std@@@std@@@0@0PAU1@AAV?$allocator@UWeaponInfo@@@0@U_Nonscalar_ptr_iterator_tag@0@@Z DD 019930522H
	DD	02H
	DD	FLAT:__unwindtable$??$_Uninit_copy@V?$_Vector_const_iterator@V?$_Vector_val@UWeaponInfo@@V?$allocator@UWeaponInfo@@@std@@@std@@@std@@PAUWeaponInfo@@V?$allocator@UWeaponInfo@@@2@@std@@YAPAUWeaponInfo@@V?$_Vector_const_iterator@V?$_Vector_val@UWeaponInfo@@V?$allocator@UWeaponInfo@@@std@@@std@@@0@0PAU1@AAV?$allocator@UWeaponInfo@@@0@U_Nonscalar_ptr_iterator_tag@0@@Z
	DD	01H
	DD	FLAT:__tryblocktable$??$_Uninit_copy@V?$_Vector_const_iterator@V?$_Vector_val@UWeaponInfo@@V?$allocator@UWeaponInfo@@@std@@@std@@@std@@PAUWeaponInfo@@V?$allocator@UWeaponInfo@@@2@@std@@YAPAUWeaponInfo@@V?$_Vector_const_iterator@V?$_Vector_val@UWeaponInfo@@V?$allocator@UWeaponInfo@@@std@@@std@@@0@0PAU1@AAV?$allocator@UWeaponInfo@@@0@U_Nonscalar_ptr_iterator_tag@0@@Z
	DD	2 DUP(00H)
	DD	00H
	DD	01H
; Function compile flags: /Ogsp
; File c:\program files (x86)\microsoft visual studio 10.0\vc\include\memory
xdata$x	ENDS
;	COMDAT ??$_Uninit_copy@V?$_Vector_const_iterator@V?$_Vector_val@UWeaponInfo@@V?$allocator@UWeaponInfo@@@std@@@std@@@std@@PAUWeaponInfo@@V?$allocator@UWeaponInfo@@@2@@std@@YAPAUWeaponInfo@@V?$_Vector_const_iterator@V?$_Vector_val@UWeaponInfo@@V?$allocator@UWeaponInfo@@@std@@@std@@@0@0PAU1@AAV?$allocator@UWeaponInfo@@@0@U_Nonscalar_ptr_iterator_tag@0@@Z
_TEXT	SEGMENT
__Next$ = -20						; size = 4
__$EHRec$ = -16						; size = 16
__First$ = 8						; size = 4
__Last$ = 12						; size = 4
__Dest$ = 16						; size = 4
__Al$ = 20						; size = 4
___formal$ = 24						; size = 1
??$_Uninit_copy@V?$_Vector_const_iterator@V?$_Vector_val@UWeaponInfo@@V?$allocator@UWeaponInfo@@@std@@@std@@@std@@PAUWeaponInfo@@V?$allocator@UWeaponInfo@@@2@@std@@YAPAUWeaponInfo@@V?$_Vector_const_iterator@V?$_Vector_val@UWeaponInfo@@V?$allocator@UWeaponInfo@@@std@@@std@@@0@0PAU1@AAV?$allocator@UWeaponInfo@@@0@U_Nonscalar_ptr_iterator_tag@0@@Z PROC ; std::_Uninit_copy<std::_Vector_const_iterator<std::_Vector_val<WeaponInfo,std::allocator<WeaponInfo> > >,WeaponInfo *,std::allocator<WeaponInfo> >, COMDAT

; 369  : 	{	// copy [_First, _Last) to raw _Dest, using _Al, arbitrary type

  00000	6a 08		 push	 8
  00002	b8 00 00 00 00	 mov	 eax, __ehhandler$??$_Uninit_copy@V?$_Vector_const_iterator@V?$_Vector_val@UWeaponInfo@@V?$allocator@UWeaponInfo@@@std@@@std@@@std@@PAUWeaponInfo@@V?$allocator@UWeaponInfo@@@2@@std@@YAPAUWeaponInfo@@V?$_Vector_const_iterator@V?$_Vector_val@UWeaponInfo@@V?$allocator@UWeaponInfo@@@std@@@std@@@0@0PAU1@AAV?$allocator@UWeaponInfo@@@0@U_Nonscalar_ptr_iterator_tag@0@@Z
  00007	e8 00 00 00 00	 call	 __EH_prolog3_catch

; 370  : 	_DEBUG_RANGE(_First, _Last);
; 371  : 	_DEBUG_POINTER(_Dest);
; 372  : 	_FwdIt _Next = _Dest;

  0000c	8b 45 10	 mov	 eax, DWORD PTR __Dest$[ebp]

; 373  : 
; 374  : 	_TRY_BEGIN

  0000f	83 65 fc 00	 and	 DWORD PTR __$EHRec$[ebp+12], 0
  00013	89 45 ec	 mov	 DWORD PTR __Next$[ebp], eax

; 375  : 	for (; _First != _Last; ++_Dest, ++_First)

$LL14@Uninit_cop@2:
  00016	8b 45 08	 mov	 eax, DWORD PTR __First$[ebp]
  00019	3b 45 0c	 cmp	 eax, DWORD PTR __Last$[ebp]
  0001c	74 34		 je	 SHORT $LN4@Uninit_cop@2

; 376  : 		_Cons_val(_Al, _Dest, *_First);

  0001e	50		 push	 eax
  0001f	ff 75 10	 push	 DWORD PTR __Dest$[ebp]
  00022	e8 00 00 00 00	 call	 ??$_Construct@UWeaponInfo@@ABU1@@std@@YAXPAUWeaponInfo@@ABU1@@Z ; std::_Construct<WeaponInfo,WeaponInfo const &>
  00027	83 45 10 28	 add	 DWORD PTR __Dest$[ebp], 40 ; 00000028H
  0002b	83 45 08 28	 add	 DWORD PTR __First$[ebp], 40 ; 00000028H
  0002f	59		 pop	 ecx
  00030	59		 pop	 ecx
  00031	eb e3		 jmp	 SHORT $LL14@Uninit_cop@2
__catch$??$_Uninit_copy@V?$_Vector_const_iterator@V?$_Vector_val@UWeaponInfo@@V?$allocator@UWeaponInfo@@@std@@@std@@@std@@PAUWeaponInfo@@V?$allocator@UWeaponInfo@@@2@@std@@YAPAUWeaponInfo@@V?$_Vector_const_iterator@V?$_Vector_val@UWeaponInfo@@V?$allocator@UWeaponInfo@@@std@@@std@@@0@0PAU1@AAV?$allocator@UWeaponInfo@@@0@U_Nonscalar_ptr_iterator_tag@0@@Z$0:

; 377  : 	_CATCH_ALL
; 378  : 	for (; _Next != _Dest; ++_Next)

  00033	8b 75 ec	 mov	 esi, DWORD PTR __Next$[ebp]
  00036	eb 0c		 jmp	 SHORT $LN48@Uninit_cop@2
$LL3@Uninit_cop@2:

; 379  : 		_Dest_val(_Al, _Next);

  00038	8d 4e 08	 lea	 ecx, DWORD PTR [esi+8]
  0003b	ff 15 00 00 00
	00		 call	 DWORD PTR __imp_??1ioHashString@@QAE@XZ
  00041	83 c6 28	 add	 esi, 40			; 00000028H
$LN48@Uninit_cop@2:

; 377  : 	_CATCH_ALL
; 378  : 	for (; _Next != _Dest; ++_Next)

  00044	3b 75 10	 cmp	 esi, DWORD PTR __Dest$[ebp]
  00047	75 ef		 jne	 SHORT $LL3@Uninit_cop@2

; 380  : 	_RERAISE;

  00049	6a 00		 push	 0
  0004b	6a 00		 push	 0
  0004d	e8 00 00 00 00	 call	 __CxxThrowException@8
$LN49@Uninit_cop@2:
$LN4@Uninit_cop@2:

; 381  : 	_CATCH_END
; 382  : 	return (_Dest);

  00052	8b 45 10	 mov	 eax, DWORD PTR __Dest$[ebp]

; 383  : 	}

  00055	e8 00 00 00 00	 call	 __EH_epilog3
  0005a	c3		 ret	 0
$LN47@Uninit_cop@2:
_TEXT	ENDS
;	COMDAT text$x
text$x	SEGMENT
__ehhandler$??$_Uninit_copy@V?$_Vector_const_iterator@V?$_Vector_val@UWeaponInfo@@V?$allocator@UWeaponInfo@@@std@@@std@@@std@@PAUWeaponInfo@@V?$allocator@UWeaponInfo@@@2@@std@@YAPAUWeaponInfo@@V?$_Vector_const_iterator@V?$_Vector_val@UWeaponInfo@@V?$allocator@UWeaponInfo@@@std@@@std@@@0@0PAU1@AAV?$allocator@UWeaponInfo@@@0@U_Nonscalar_ptr_iterator_tag@0@@Z:
  00000	8b 54 24 08	 mov	 edx, DWORD PTR [esp+8]
  00004	8d 42 0c	 lea	 eax, DWORD PTR [edx+12]
  00007	8b 4a e8	 mov	 ecx, DWORD PTR [edx-24]
  0000a	33 c8		 xor	 ecx, eax
  0000c	e8 00 00 00 00	 call	 @__security_check_cookie@4
  00011	b8 00 00 00 00	 mov	 eax, OFFSET __ehfuncinfo$??$_Uninit_copy@V?$_Vector_const_iterator@V?$_Vector_val@UWeaponInfo@@V?$allocator@UWeaponInfo@@@std@@@std@@@std@@PAUWeaponInfo@@V?$allocator@UWeaponInfo@@@2@@std@@YAPAUWeaponInfo@@V?$_Vector_const_iterator@V?$_Vector_val@UWeaponInfo@@V?$allocator@UWeaponInfo@@@std@@@std@@@0@0PAU1@AAV?$allocator@UWeaponInfo@@@0@U_Nonscalar_ptr_iterator_tag@0@@Z
  00016	e9 00 00 00 00	 jmp	 ___CxxFrameHandler3
text$x	ENDS
??$_Uninit_copy@V?$_Vector_const_iterator@V?$_Vector_val@UWeaponInfo@@V?$allocator@UWeaponInfo@@@std@@@std@@@std@@PAUWeaponInfo@@V?$allocator@UWeaponInfo@@@2@@std@@YAPAUWeaponInfo@@V?$_Vector_const_iterator@V?$_Vector_val@UWeaponInfo@@V?$allocator@UWeaponInfo@@@std@@@std@@@0@0PAU1@AAV?$allocator@UWeaponInfo@@@0@U_Nonscalar_ptr_iterator_tag@0@@Z ENDP ; std::_Uninit_copy<std::_Vector_const_iterator<std::_Vector_val<WeaponInfo,std::allocator<WeaponInfo> > >,WeaponInfo *,std::allocator<WeaponInfo> >
PUBLIC	??$_Uninit_move@PAVioHashString@@PAV1@V?$allocator@VioHashString@@@std@@V1@@std@@YAPAVioHashString@@PAV1@00AAV?$allocator@VioHashString@@@0@0U_Nonscalar_ptr_iterator_tag@0@@Z ; std::_Uninit_move<ioHashString *,ioHashString *,std::allocator<ioHashString>,ioHashString>
;	COMDAT xdata$x
; File c:\program files (x86)\microsoft visual studio 10.0\vc\include\vector
xdata$x	SEGMENT
__catchsym$??$_Uninit_move@PAVioHashString@@PAV1@V?$allocator@VioHashString@@@std@@V1@@std@@YAPAVioHashString@@PAV1@00AAV?$allocator@VioHashString@@@0@0U_Nonscalar_ptr_iterator_tag@0@@Z$2 DD 040H
	DD	00H
	DD	00H
	DD	FLAT:__catch$??$_Uninit_move@PAVioHashString@@PAV1@V?$allocator@VioHashString@@@std@@V1@@std@@YAPAVioHashString@@PAV1@00AAV?$allocator@VioHashString@@@0@0U_Nonscalar_ptr_iterator_tag@0@@Z$0
__unwindtable$??$_Uninit_move@PAVioHashString@@PAV1@V?$allocator@VioHashString@@@std@@V1@@std@@YAPAVioHashString@@PAV1@00AAV?$allocator@VioHashString@@@0@0U_Nonscalar_ptr_iterator_tag@0@@Z DD 0ffffffffH
	DD	00H
	DD	0ffffffffH
	DD	00H
__tryblocktable$??$_Uninit_move@PAVioHashString@@PAV1@V?$allocator@VioHashString@@@std@@V1@@std@@YAPAVioHashString@@PAV1@00AAV?$allocator@VioHashString@@@0@0U_Nonscalar_ptr_iterator_tag@0@@Z DD 00H
	DD	00H
	DD	01H
	DD	01H
	DD	FLAT:__catchsym$??$_Uninit_move@PAVioHashString@@PAV1@V?$allocator@VioHashString@@@std@@V1@@std@@YAPAVioHashString@@PAV1@00AAV?$allocator@VioHashString@@@0@0U_Nonscalar_ptr_iterator_tag@0@@Z$2
__ehfuncinfo$??$_Uninit_move@PAVioHashString@@PAV1@V?$allocator@VioHashString@@@std@@V1@@std@@YAPAVioHashString@@PAV1@00AAV?$allocator@VioHashString@@@0@0U_Nonscalar_ptr_iterator_tag@0@@Z DD 019930522H
	DD	02H
	DD	FLAT:__unwindtable$??$_Uninit_move@PAVioHashString@@PAV1@V?$allocator@VioHashString@@@std@@V1@@std@@YAPAVioHashString@@PAV1@00AAV?$allocator@VioHashString@@@0@0U_Nonscalar_ptr_iterator_tag@0@@Z
	DD	01H
	DD	FLAT:__tryblocktable$??$_Uninit_move@PAVioHashString@@PAV1@V?$allocator@VioHashString@@@std@@V1@@std@@YAPAVioHashString@@PAV1@00AAV?$allocator@VioHashString@@@0@0U_Nonscalar_ptr_iterator_tag@0@@Z
	DD	2 DUP(00H)
	DD	00H
	DD	01H
; Function compile flags: /Ogsp
; File c:\program files (x86)\microsoft visual studio 10.0\vc\include\memory
xdata$x	ENDS
;	COMDAT ??$_Uninit_move@PAVioHashString@@PAV1@V?$allocator@VioHashString@@@std@@V1@@std@@YAPAVioHashString@@PAV1@00AAV?$allocator@VioHashString@@@0@0U_Nonscalar_ptr_iterator_tag@0@@Z
_TEXT	SEGMENT
__Next$ = -20						; size = 4
__$EHRec$ = -16						; size = 16
__First$ = 8						; size = 4
__Last$ = 12						; size = 4
__Dest$ = 16						; size = 4
__Al$ = 20						; size = 4
___formal$ = 24						; size = 4
___formal$ = 28						; size = 1
??$_Uninit_move@PAVioHashString@@PAV1@V?$allocator@VioHashString@@@std@@V1@@std@@YAPAVioHashString@@PAV1@00AAV?$allocator@VioHashString@@@0@0U_Nonscalar_ptr_iterator_tag@0@@Z PROC ; std::_Uninit_move<ioHashString *,ioHashString *,std::allocator<ioHashString>,ioHashString>, COMDAT

; 424  : 	{	// move [_First, _Last) to raw _Dest, using _Al, arbitrary type

  00000	6a 08		 push	 8
  00002	b8 00 00 00 00	 mov	 eax, __ehhandler$??$_Uninit_move@PAVioHashString@@PAV1@V?$allocator@VioHashString@@@std@@V1@@std@@YAPAVioHashString@@PAV1@00AAV?$allocator@VioHashString@@@0@0U_Nonscalar_ptr_iterator_tag@0@@Z
  00007	e8 00 00 00 00	 call	 __EH_prolog3_catch

; 425  : 	_DEBUG_RANGE(_First, _Last);
; 426  : 	_DEBUG_POINTER(_Dest);
; 427  : 	_FwdIt _Next = _Dest;

  0000c	8b 45 10	 mov	 eax, DWORD PTR __Dest$[ebp]

; 428  : 
; 429  : 	_TRY_BEGIN

  0000f	83 65 fc 00	 and	 DWORD PTR __$EHRec$[ebp+12], 0
  00013	8b 75 08	 mov	 esi, DWORD PTR __First$[ebp]
  00016	89 45 ec	 mov	 DWORD PTR __Next$[ebp], eax
$LL6@Uninit_mov:

; 430  : 	for (; _First != _Last; ++_Dest, ++_First)

  00019	3b 75 0c	 cmp	 esi, DWORD PTR __Last$[ebp]
  0001c	74 33		 je	 SHORT $LN4@Uninit_mov

; 431  : 		_Cons_val(_Al, _Dest, (_Valty &&)*_First);

  0001e	8b 4d 14	 mov	 ecx, DWORD PTR __Al$[ebp]
  00021	56		 push	 esi
  00022	ff 75 10	 push	 DWORD PTR __Dest$[ebp]
  00025	e8 00 00 00 00	 call	 ?construct@?$allocator@VioHashString@@@std@@QAEXPAVioHashString@@$$QAV3@@Z ; std::allocator<ioHashString>::construct
  0002a	83 45 10 10	 add	 DWORD PTR __Dest$[ebp], 16 ; 00000010H
  0002e	83 c6 10	 add	 esi, 16			; 00000010H
  00031	eb e6		 jmp	 SHORT $LL6@Uninit_mov
__catch$??$_Uninit_move@PAVioHashString@@PAV1@V?$allocator@VioHashString@@@std@@V1@@std@@YAPAVioHashString@@PAV1@00AAV?$allocator@VioHashString@@@0@0U_Nonscalar_ptr_iterator_tag@0@@Z$0:

; 432  : 	_CATCH_ALL
; 433  : 	for (; _Next != _Dest; ++_Next)

  00033	8b 75 ec	 mov	 esi, DWORD PTR __Next$[ebp]
  00036	eb 0b		 jmp	 SHORT $LN33@Uninit_mov
$LL3@Uninit_mov:

; 434  : 		_Dest_val(_Al, _Next);

  00038	8b ce		 mov	 ecx, esi
  0003a	ff 15 00 00 00
	00		 call	 DWORD PTR __imp_??1ioHashString@@QAE@XZ
  00040	83 c6 10	 add	 esi, 16			; 00000010H
$LN33@Uninit_mov:

; 432  : 	_CATCH_ALL
; 433  : 	for (; _Next != _Dest; ++_Next)

  00043	3b 75 10	 cmp	 esi, DWORD PTR __Dest$[ebp]
  00046	75 f0		 jne	 SHORT $LL3@Uninit_mov

; 435  : 	_RERAISE;

  00048	6a 00		 push	 0
  0004a	6a 00		 push	 0
  0004c	e8 00 00 00 00	 call	 __CxxThrowException@8
$LN34@Uninit_mov:
$LN4@Uninit_mov:

; 436  : 	_CATCH_END
; 437  : 	return (_Dest);

  00051	8b 45 10	 mov	 eax, DWORD PTR __Dest$[ebp]

; 438  : 	}

  00054	e8 00 00 00 00	 call	 __EH_epilog3
  00059	c3		 ret	 0
$LN32@Uninit_mov:
_TEXT	ENDS
;	COMDAT text$x
text$x	SEGMENT
__ehhandler$??$_Uninit_move@PAVioHashString@@PAV1@V?$allocator@VioHashString@@@std@@V1@@std@@YAPAVioHashString@@PAV1@00AAV?$allocator@VioHashString@@@0@0U_Nonscalar_ptr_iterator_tag@0@@Z:
  00000	8b 54 24 08	 mov	 edx, DWORD PTR [esp+8]
  00004	8d 42 0c	 lea	 eax, DWORD PTR [edx+12]
  00007	8b 4a e8	 mov	 ecx, DWORD PTR [edx-24]
  0000a	33 c8		 xor	 ecx, eax
  0000c	e8 00 00 00 00	 call	 @__security_check_cookie@4
  00011	b8 00 00 00 00	 mov	 eax, OFFSET __ehfuncinfo$??$_Uninit_move@PAVioHashString@@PAV1@V?$allocator@VioHashString@@@std@@V1@@std@@YAPAVioHashString@@PAV1@00AAV?$allocator@VioHashString@@@0@0U_Nonscalar_ptr_iterator_tag@0@@Z
  00016	e9 00 00 00 00	 jmp	 ___CxxFrameHandler3
text$x	ENDS
??$_Uninit_move@PAVioHashString@@PAV1@V?$allocator@VioHashString@@@std@@V1@@std@@YAPAVioHashString@@PAV1@00AAV?$allocator@VioHashString@@@0@0U_Nonscalar_ptr_iterator_tag@0@@Z ENDP ; std::_Uninit_move<ioHashString *,ioHashString *,std::allocator<ioHashString>,ioHashString>
PUBLIC	??$_Destroy_range@V?$allocator@UForceInfo@@@std@@@std@@YAXPAUForceInfo@@0AAV?$allocator@UForceInfo@@@0@@Z ; std::_Destroy_range<std::allocator<ForceInfo> >
; Function compile flags: /Ogsp
; File c:\program files (x86)\microsoft visual studio 10.0\vc\include\xmemory
;	COMDAT ??$_Destroy_range@V?$allocator@UForceInfo@@@std@@@std@@YAXPAUForceInfo@@0AAV?$allocator@UForceInfo@@@0@@Z
_TEXT	SEGMENT
__First$ = 8						; size = 4
__Last$ = 12						; size = 4
__Al$ = 16						; size = 4
??$_Destroy_range@V?$allocator@UForceInfo@@@std@@@std@@YAXPAUForceInfo@@0AAV?$allocator@UForceInfo@@@0@@Z PROC ; std::_Destroy_range<std::allocator<ForceInfo> >, COMDAT

; 88   : 	_Destroy_range(_First, _Last, _Al, _Ptr_cat(_First, _Last));
; 89   : 	}

  00000	c3		 ret	 0
??$_Destroy_range@V?$allocator@UForceInfo@@@std@@@std@@YAXPAUForceInfo@@0AAV?$allocator@UForceInfo@@@0@@Z ENDP ; std::_Destroy_range<std::allocator<ForceInfo> >
_TEXT	ENDS
PUBLIC	??$_Destroy_range@V?$allocator@VioHashString@@@std@@@std@@YAXPAVioHashString@@0AAV?$allocator@VioHashString@@@0@U_Nonscalar_ptr_iterator_tag@0@@Z ; std::_Destroy_range<std::allocator<ioHashString> >
; Function compile flags: /Ogsp
;	COMDAT ??$_Destroy_range@V?$allocator@VioHashString@@@std@@@std@@YAXPAVioHashString@@0AAV?$allocator@VioHashString@@@0@U_Nonscalar_ptr_iterator_tag@0@@Z
_TEXT	SEGMENT
__First$ = 8						; size = 4
__Last$ = 12						; size = 4
__Al$ = 16						; size = 4
___formal$ = 20						; size = 1
??$_Destroy_range@V?$allocator@VioHashString@@@std@@@std@@YAXPAVioHashString@@0AAV?$allocator@VioHashString@@@0@U_Nonscalar_ptr_iterator_tag@0@@Z PROC ; std::_Destroy_range<std::allocator<ioHashString> >, COMDAT

; 95   : 	{	// destroy [_First, _Last), arbitrary type

  00000	55		 push	 ebp
  00001	8b ec		 mov	 ebp, esp
  00003	56		 push	 esi

; 96   : 	for (; _First != _Last; ++_First)

  00004	8b 75 08	 mov	 esi, DWORD PTR __First$[ebp]
  00007	eb 0b		 jmp	 SHORT $LN17@Destroy_ra
$LL3@Destroy_ra:

; 97   : 		_Dest_val(_Al, _First);

  00009	8b ce		 mov	 ecx, esi
  0000b	ff 15 00 00 00
	00		 call	 DWORD PTR __imp_??1ioHashString@@QAE@XZ
  00011	83 c6 10	 add	 esi, 16			; 00000010H
$LN17@Destroy_ra:

; 96   : 	for (; _First != _Last; ++_First)

  00014	3b 75 0c	 cmp	 esi, DWORD PTR __Last$[ebp]
  00017	75 f0		 jne	 SHORT $LL3@Destroy_ra
  00019	5e		 pop	 esi

; 98   : 	}

  0001a	5d		 pop	 ebp
  0001b	c3		 ret	 0
??$_Destroy_range@V?$allocator@VioHashString@@@std@@@std@@YAXPAVioHashString@@0AAV?$allocator@VioHashString@@@0@U_Nonscalar_ptr_iterator_tag@0@@Z ENDP ; std::_Destroy_range<std::allocator<ioHashString> >
_TEXT	ENDS
PUBLIC	??$_Destroy_range@V?$allocator@UWeaponInfo@@@std@@@std@@YAXPAUWeaponInfo@@0AAV?$allocator@UWeaponInfo@@@0@U_Nonscalar_ptr_iterator_tag@0@@Z ; std::_Destroy_range<std::allocator<WeaponInfo> >
; Function compile flags: /Ogsp
;	COMDAT ??$_Destroy_range@V?$allocator@UWeaponInfo@@@std@@@std@@YAXPAUWeaponInfo@@0AAV?$allocator@UWeaponInfo@@@0@U_Nonscalar_ptr_iterator_tag@0@@Z
_TEXT	SEGMENT
__First$ = 8						; size = 4
__Last$ = 12						; size = 4
__Al$ = 16						; size = 4
___formal$ = 20						; size = 1
??$_Destroy_range@V?$allocator@UWeaponInfo@@@std@@@std@@YAXPAUWeaponInfo@@0AAV?$allocator@UWeaponInfo@@@0@U_Nonscalar_ptr_iterator_tag@0@@Z PROC ; std::_Destroy_range<std::allocator<WeaponInfo> >, COMDAT

; 95   : 	{	// destroy [_First, _Last), arbitrary type

  00000	55		 push	 ebp
  00001	8b ec		 mov	 ebp, esp
  00003	56		 push	 esi

; 96   : 	for (; _First != _Last; ++_First)

  00004	8b 75 08	 mov	 esi, DWORD PTR __First$[ebp]
  00007	eb 0c		 jmp	 SHORT $LN20@Destroy_ra@2
$LL3@Destroy_ra@2:

; 97   : 		_Dest_val(_Al, _First);

  00009	8d 4e 08	 lea	 ecx, DWORD PTR [esi+8]
  0000c	ff 15 00 00 00
	00		 call	 DWORD PTR __imp_??1ioHashString@@QAE@XZ
  00012	83 c6 28	 add	 esi, 40			; 00000028H
$LN20@Destroy_ra@2:

; 96   : 	for (; _First != _Last; ++_First)

  00015	3b 75 0c	 cmp	 esi, DWORD PTR __Last$[ebp]
  00018	75 ef		 jne	 SHORT $LL3@Destroy_ra@2
  0001a	5e		 pop	 esi

; 98   : 	}

  0001b	5d		 pop	 ebp
  0001c	c3		 ret	 0
??$_Destroy_range@V?$allocator@UWeaponInfo@@@std@@@std@@YAXPAUWeaponInfo@@0AAV?$allocator@UWeaponInfo@@@0@U_Nonscalar_ptr_iterator_tag@0@@Z ENDP ; std::_Destroy_range<std::allocator<WeaponInfo> >
_TEXT	ENDS
PUBLIC	??$_Uninit_copy@V?$_Vector_const_iterator@V?$_Vector_val@VioHashString@@V?$allocator@VioHashString@@@std@@@std@@@std@@PAVioHashString@@V?$allocator@VioHashString@@@2@@std@@YAPAVioHashString@@V?$_Vector_const_iterator@V?$_Vector_val@VioHashString@@V?$allocator@VioHashString@@@std@@@std@@@0@0PAV1@AAV?$allocator@VioHashString@@@0@U_Nonscalar_ptr_iterator_tag@0@@Z ; std::_Uninit_copy<std::_Vector_const_iterator<std::_Vector_val<ioHashString,std::allocator<ioHashString> > >,ioHashString *,std::allocator<ioHashString> >
;	COMDAT xdata$x
; File c:\program files (x86)\microsoft visual studio 10.0\vc\include\vector
xdata$x	SEGMENT
__catchsym$??$_Uninit_copy@V?$_Vector_const_iterator@V?$_Vector_val@VioHashString@@V?$allocator@VioHashString@@@std@@@std@@@std@@PAVioHashString@@V?$allocator@VioHashString@@@2@@std@@YAPAVioHashString@@V?$_Vector_const_iterator@V?$_Vector_val@VioHashString@@V?$allocator@VioHashString@@@std@@@std@@@0@0PAV1@AAV?$allocator@VioHashString@@@0@U_Nonscalar_ptr_iterator_tag@0@@Z$2 DD 040H
	DD	00H
	DD	00H
	DD	FLAT:__catch$??$_Uninit_copy@V?$_Vector_const_iterator@V?$_Vector_val@VioHashString@@V?$allocator@VioHashString@@@std@@@std@@@std@@PAVioHashString@@V?$allocator@VioHashString@@@2@@std@@YAPAVioHashString@@V?$_Vector_const_iterator@V?$_Vector_val@VioHashString@@V?$allocator@VioHashString@@@std@@@std@@@0@0PAV1@AAV?$allocator@VioHashString@@@0@U_Nonscalar_ptr_iterator_tag@0@@Z$0
__unwindtable$??$_Uninit_copy@V?$_Vector_const_iterator@V?$_Vector_val@VioHashString@@V?$allocator@VioHashString@@@std@@@std@@@std@@PAVioHashString@@V?$allocator@VioHashString@@@2@@std@@YAPAVioHashString@@V?$_Vector_const_iterator@V?$_Vector_val@VioHashString@@V?$allocator@VioHashString@@@std@@@std@@@0@0PAV1@AAV?$allocator@VioHashString@@@0@U_Nonscalar_ptr_iterator_tag@0@@Z DD 0ffffffffH
	DD	00H
	DD	0ffffffffH
	DD	00H
__tryblocktable$??$_Uninit_copy@V?$_Vector_const_iterator@V?$_Vector_val@VioHashString@@V?$allocator@VioHashString@@@std@@@std@@@std@@PAVioHashString@@V?$allocator@VioHashString@@@2@@std@@YAPAVioHashString@@V?$_Vector_const_iterator@V?$_Vector_val@VioHashString@@V?$allocator@VioHashString@@@std@@@std@@@0@0PAV1@AAV?$allocator@VioHashString@@@0@U_Nonscalar_ptr_iterator_tag@0@@Z DD 00H
	DD	00H
	DD	01H
	DD	01H
	DD	FLAT:__catchsym$??$_Uninit_copy@V?$_Vector_const_iterator@V?$_Vector_val@VioHashString@@V?$allocator@VioHashString@@@std@@@std@@@std@@PAVioHashString@@V?$allocator@VioHashString@@@2@@std@@YAPAVioHashString@@V?$_Vector_const_iterator@V?$_Vector_val@VioHashString@@V?$allocator@VioHashString@@@std@@@std@@@0@0PAV1@AAV?$allocator@VioHashString@@@0@U_Nonscalar_ptr_iterator_tag@0@@Z$2
__ehfuncinfo$??$_Uninit_copy@V?$_Vector_const_iterator@V?$_Vector_val@VioHashString@@V?$allocator@VioHashString@@@std@@@std@@@std@@PAVioHashString@@V?$allocator@VioHashString@@@2@@std@@YAPAVioHashString@@V?$_Vector_const_iterator@V?$_Vector_val@VioHashString@@V?$allocator@VioHashString@@@std@@@std@@@0@0PAV1@AAV?$allocator@VioHashString@@@0@U_Nonscalar_ptr_iterator_tag@0@@Z DD 019930522H
	DD	02H
	DD	FLAT:__unwindtable$??$_Uninit_copy@V?$_Vector_const_iterator@V?$_Vector_val@VioHashString@@V?$allocator@VioHashString@@@std@@@std@@@std@@PAVioHashString@@V?$allocator@VioHashString@@@2@@std@@YAPAVioHashString@@V?$_Vector_const_iterator@V?$_Vector_val@VioHashString@@V?$allocator@VioHashString@@@std@@@std@@@0@0PAV1@AAV?$allocator@VioHashString@@@0@U_Nonscalar_ptr_iterator_tag@0@@Z
	DD	01H
	DD	FLAT:__tryblocktable$??$_Uninit_copy@V?$_Vector_const_iterator@V?$_Vector_val@VioHashString@@V?$allocator@VioHashString@@@std@@@std@@@std@@PAVioHashString@@V?$allocator@VioHashString@@@2@@std@@YAPAVioHashString@@V?$_Vector_const_iterator@V?$_Vector_val@VioHashString@@V?$allocator@VioHashString@@@std@@@std@@@0@0PAV1@AAV?$allocator@VioHashString@@@0@U_Nonscalar_ptr_iterator_tag@0@@Z
	DD	2 DUP(00H)
	DD	00H
	DD	01H
; Function compile flags: /Ogsp
; File c:\program files (x86)\microsoft visual studio 10.0\vc\include\memory
xdata$x	ENDS
;	COMDAT ??$_Uninit_copy@V?$_Vector_const_iterator@V?$_Vector_val@VioHashString@@V?$allocator@VioHashString@@@std@@@std@@@std@@PAVioHashString@@V?$allocator@VioHashString@@@2@@std@@YAPAVioHashString@@V?$_Vector_const_iterator@V?$_Vector_val@VioHashString@@V?$allocator@VioHashString@@@std@@@std@@@0@0PAV1@AAV?$allocator@VioHashString@@@0@U_Nonscalar_ptr_iterator_tag@0@@Z
_TEXT	SEGMENT
__Next$ = -20						; size = 4
__$EHRec$ = -16						; size = 16
__First$ = 8						; size = 4
__Last$ = 12						; size = 4
__Dest$ = 16						; size = 4
__Al$ = 20						; size = 4
___formal$ = 24						; size = 1
??$_Uninit_copy@V?$_Vector_const_iterator@V?$_Vector_val@VioHashString@@V?$allocator@VioHashString@@@std@@@std@@@std@@PAVioHashString@@V?$allocator@VioHashString@@@2@@std@@YAPAVioHashString@@V?$_Vector_const_iterator@V?$_Vector_val@VioHashString@@V?$allocator@VioHashString@@@std@@@std@@@0@0PAV1@AAV?$allocator@VioHashString@@@0@U_Nonscalar_ptr_iterator_tag@0@@Z PROC ; std::_Uninit_copy<std::_Vector_const_iterator<std::_Vector_val<ioHashString,std::allocator<ioHashString> > >,ioHashString *,std::allocator<ioHashString> >, COMDAT

; 369  : 	{	// copy [_First, _Last) to raw _Dest, using _Al, arbitrary type

  00000	6a 08		 push	 8
  00002	b8 00 00 00 00	 mov	 eax, __ehhandler$??$_Uninit_copy@V?$_Vector_const_iterator@V?$_Vector_val@VioHashString@@V?$allocator@VioHashString@@@std@@@std@@@std@@PAVioHashString@@V?$allocator@VioHashString@@@2@@std@@YAPAVioHashString@@V?$_Vector_const_iterator@V?$_Vector_val@VioHashString@@V?$allocator@VioHashString@@@std@@@std@@@0@0PAV1@AAV?$allocator@VioHashString@@@0@U_Nonscalar_ptr_iterator_tag@0@@Z
  00007	e8 00 00 00 00	 call	 __EH_prolog3_catch

; 370  : 	_DEBUG_RANGE(_First, _Last);
; 371  : 	_DEBUG_POINTER(_Dest);
; 372  : 	_FwdIt _Next = _Dest;

  0000c	8b 45 10	 mov	 eax, DWORD PTR __Dest$[ebp]

; 373  : 
; 374  : 	_TRY_BEGIN

  0000f	83 65 fc 00	 and	 DWORD PTR __$EHRec$[ebp+12], 0
  00013	89 45 ec	 mov	 DWORD PTR __Next$[ebp], eax

; 375  : 	for (; _First != _Last; ++_Dest, ++_First)

$LL14@Uninit_cop@3:
  00016	8b 45 08	 mov	 eax, DWORD PTR __First$[ebp]
  00019	3b 45 0c	 cmp	 eax, DWORD PTR __Last$[ebp]
  0001c	74 33		 je	 SHORT $LN4@Uninit_cop@3

; 376  : 		_Cons_val(_Al, _Dest, *_First);

  0001e	50		 push	 eax
  0001f	ff 75 10	 push	 DWORD PTR __Dest$[ebp]
  00022	e8 00 00 00 00	 call	 ??$_Construct@VioHashString@@ABV1@@std@@YAXPAVioHashString@@ABV1@@Z ; std::_Construct<ioHashString,ioHashString const &>
  00027	83 45 10 10	 add	 DWORD PTR __Dest$[ebp], 16 ; 00000010H
  0002b	83 45 08 10	 add	 DWORD PTR __First$[ebp], 16 ; 00000010H
  0002f	59		 pop	 ecx
  00030	59		 pop	 ecx
  00031	eb e3		 jmp	 SHORT $LL14@Uninit_cop@3
__catch$??$_Uninit_copy@V?$_Vector_const_iterator@V?$_Vector_val@VioHashString@@V?$allocator@VioHashString@@@std@@@std@@@std@@PAVioHashString@@V?$allocator@VioHashString@@@2@@std@@YAPAVioHashString@@V?$_Vector_const_iterator@V?$_Vector_val@VioHashString@@V?$allocator@VioHashString@@@std@@@std@@@0@0PAV1@AAV?$allocator@VioHashString@@@0@U_Nonscalar_ptr_iterator_tag@0@@Z$0:

; 377  : 	_CATCH_ALL
; 378  : 	for (; _Next != _Dest; ++_Next)

  00033	8b 75 ec	 mov	 esi, DWORD PTR __Next$[ebp]
  00036	eb 0b		 jmp	 SHORT $LN45@Uninit_cop@3
$LL3@Uninit_cop@3:

; 379  : 		_Dest_val(_Al, _Next);

  00038	8b ce		 mov	 ecx, esi
  0003a	ff 15 00 00 00
	00		 call	 DWORD PTR __imp_??1ioHashString@@QAE@XZ
  00040	83 c6 10	 add	 esi, 16			; 00000010H
$LN45@Uninit_cop@3:

; 377  : 	_CATCH_ALL
; 378  : 	for (; _Next != _Dest; ++_Next)

  00043	3b 75 10	 cmp	 esi, DWORD PTR __Dest$[ebp]
  00046	75 f0		 jne	 SHORT $LL3@Uninit_cop@3

; 380  : 	_RERAISE;

  00048	6a 00		 push	 0
  0004a	6a 00		 push	 0
  0004c	e8 00 00 00 00	 call	 __CxxThrowException@8
$LN46@Uninit_cop@3:
$LN4@Uninit_cop@3:

; 381  : 	_CATCH_END
; 382  : 	return (_Dest);

  00051	8b 45 10	 mov	 eax, DWORD PTR __Dest$[ebp]

; 383  : 	}

  00054	e8 00 00 00 00	 call	 __EH_epilog3
  00059	c3		 ret	 0
$LN44@Uninit_cop@3:
_TEXT	ENDS
;	COMDAT text$x
text$x	SEGMENT
__ehhandler$??$_Uninit_copy@V?$_Vector_const_iterator@V?$_Vector_val@VioHashString@@V?$allocator@VioHashString@@@std@@@std@@@std@@PAVioHashString@@V?$allocator@VioHashString@@@2@@std@@YAPAVioHashString@@V?$_Vector_const_iterator@V?$_Vector_val@VioHashString@@V?$allocator@VioHashString@@@std@@@std@@@0@0PAV1@AAV?$allocator@VioHashString@@@0@U_Nonscalar_ptr_iterator_tag@0@@Z:
  00000	8b 54 24 08	 mov	 edx, DWORD PTR [esp+8]
  00004	8d 42 0c	 lea	 eax, DWORD PTR [edx+12]
  00007	8b 4a e8	 mov	 ecx, DWORD PTR [edx-24]
  0000a	33 c8		 xor	 ecx, eax
  0000c	e8 00 00 00 00	 call	 @__security_check_cookie@4
  00011	b8 00 00 00 00	 mov	 eax, OFFSET __ehfuncinfo$??$_Uninit_copy@V?$_Vector_const_iterator@V?$_Vector_val@VioHashString@@V?$allocator@VioHashString@@@std@@@std@@@std@@PAVioHashString@@V?$allocator@VioHashString@@@2@@std@@YAPAVioHashString@@V?$_Vector_const_iterator@V?$_Vector_val@VioHashString@@V?$allocator@VioHashString@@@std@@@std@@@0@0PAV1@AAV?$allocator@VioHashString@@@0@U_Nonscalar_ptr_iterator_tag@0@@Z
  00016	e9 00 00 00 00	 jmp	 ___CxxFrameHandler3
text$x	ENDS
??$_Uninit_copy@V?$_Vector_const_iterator@V?$_Vector_val@VioHashString@@V?$allocator@VioHashString@@@std@@@std@@@std@@PAVioHashString@@V?$allocator@VioHashString@@@2@@std@@YAPAVioHashString@@V?$_Vector_const_iterator@V?$_Vector_val@VioHashString@@V?$allocator@VioHashString@@@std@@@std@@@0@0PAV1@AAV?$allocator@VioHashString@@@0@U_Nonscalar_ptr_iterator_tag@0@@Z ENDP ; std::_Uninit_copy<std::_Vector_const_iterator<std::_Vector_val<ioHashString,std::allocator<ioHashString> > >,ioHashString *,std::allocator<ioHashString> >
PUBLIC	?CheckNormalAttack@ioTrinityItem@@UAEXPAVioBaseChar@@@Z ; ioTrinityItem::CheckNormalAttack
EXTRN	?CheckNormalAttack@ioAttackableItem@@UAEXPAVioBaseChar@@@Z:PROC ; ioAttackableItem::CheckNormalAttack
; Function compile flags: /Ogsp
; File d:\lost saga for developer\youtube\tutorial\source\src\lsclient\iotrinityitem.cpp
;	COMDAT ?CheckNormalAttack@ioTrinityItem@@UAEXPAVioBaseChar@@@Z
_TEXT	SEGMENT
_pOwner$ = 8						; size = 4
?CheckNormalAttack@ioTrinityItem@@UAEXPAVioBaseChar@@@Z PROC ; ioTrinityItem::CheckNormalAttack, COMDAT
; _this$ = ecx

; 243  : {

  00000	55		 push	 ebp
  00001	8b ec		 mov	 ebp, esp

; 244  : 	switch( m_ChargeState )

  00003	8b 81 80 19 00
	00		 mov	 eax, DWORD PTR [ecx+6528]
  00009	48		 dec	 eax
  0000a	74 09		 je	 SHORT $LN2@CheckNorma
  0000c	48		 dec	 eax
  0000d	75 0c		 jne	 SHORT $LN3@CheckNorma

; 251  : 		break;
; 252  : 	}
; 253  : }

  0000f	5d		 pop	 ebp

; 248  : 		break;
; 249  : 	case CS_NORMAL_ATTACK:
; 250  : 		ioWeaponItem::CheckNormalAttack( pOwner );

  00010	e9 00 00 00 00	 jmp	 ?CheckNormalAttack@ioAttackableItem@@UAEXPAVioBaseChar@@@Z ; ioAttackableItem::CheckNormalAttack
$LN2@CheckNorma:

; 251  : 		break;
; 252  : 	}
; 253  : }

  00015	5d		 pop	 ebp

; 245  : 	{
; 246  : 	case CS_CHARGING:
; 247  : 		OnCharging( pOwner );

  00016	e9 00 00 00 00	 jmp	 ?OnCharging@ioTrinityItem@@IAEXPAVioBaseChar@@@Z ; ioTrinityItem::OnCharging
$LN3@CheckNorma:

; 251  : 		break;
; 252  : 	}
; 253  : }

  0001b	5d		 pop	 ebp
  0001c	c2 04 00	 ret	 4
?CheckNormalAttack@ioTrinityItem@@UAEXPAVioBaseChar@@@Z ENDP ; ioTrinityItem::CheckNormalAttack
_TEXT	ENDS
PUBLIC	??$_Ucopy@V?$_Vector_const_iterator@V?$_Vector_val@UForceInfo@@V?$allocator@UForceInfo@@@std@@@std@@@std@@@?$vector@UForceInfo@@V?$allocator@UForceInfo@@@std@@@std@@IAEPAUForceInfo@@V?$_Vector_const_iterator@V?$_Vector_val@UForceInfo@@V?$allocator@UForceInfo@@@std@@@std@@@1@0PAU2@@Z ; std::vector<ForceInfo,std::allocator<ForceInfo> >::_Ucopy<std::_Vector_const_iterator<std::_Vector_val<ForceInfo,std::allocator<ForceInfo> > > >
; Function compile flags: /Ogsp
; File c:\program files (x86)\microsoft visual studio 10.0\vc\include\vector
;	COMDAT ??$_Ucopy@V?$_Vector_const_iterator@V?$_Vector_val@UForceInfo@@V?$allocator@UForceInfo@@@std@@@std@@@std@@@?$vector@UForceInfo@@V?$allocator@UForceInfo@@@std@@@std@@IAEPAUForceInfo@@V?$_Vector_const_iterator@V?$_Vector_val@UForceInfo@@V?$allocator@UForceInfo@@@std@@@std@@@1@0PAU2@@Z
_TEXT	SEGMENT
__First$ = 8						; size = 4
__Last$ = 12						; size = 4
__Cat$556898 = 16					; size = 1
__Ptr$ = 16						; size = 4
??$_Ucopy@V?$_Vector_const_iterator@V?$_Vector_val@UForceInfo@@V?$allocator@UForceInfo@@@std@@@std@@@std@@@?$vector@UForceInfo@@V?$allocator@UForceInfo@@@std@@@std@@IAEPAUForceInfo@@V?$_Vector_const_iterator@V?$_Vector_val@UForceInfo@@V?$allocator@UForceInfo@@@std@@@std@@@1@0PAU2@@Z PROC ; std::vector<ForceInfo,std::allocator<ForceInfo> >::_Ucopy<std::_Vector_const_iterator<std::_Vector_val<ForceInfo,std::allocator<ForceInfo> > > >, COMDAT
; _this$ = ecx

; 1315 : 		pointer _Ucopy(_Iter _First, _Iter _Last, pointer _Ptr)

  00000	55		 push	 ebp
  00001	8b ec		 mov	 ebp, esp

; 1316 : 		{	// copy initializing [_First, _Last), using allocator
; 1317 : 		return (_Uninitialized_copy(_First, _Last,
; 1318 : 			_Ptr, this->_Alval));

  00003	ff 75 10	 push	 DWORD PTR __Cat$556898[ebp]
  00006	83 c1 0c	 add	 ecx, 12			; 0000000cH
  00009	51		 push	 ecx
  0000a	ff 75 10	 push	 DWORD PTR __Ptr$[ebp]
  0000d	ff 75 0c	 push	 DWORD PTR __Last$[ebp]
  00010	ff 75 08	 push	 DWORD PTR __First$[ebp]
  00013	e8 00 00 00 00	 call	 ??$_Uninit_copy@V?$_Vector_const_iterator@V?$_Vector_val@UForceInfo@@V?$allocator@UForceInfo@@@std@@@std@@@std@@PAUForceInfo@@V?$allocator@UForceInfo@@@2@@std@@YAPAUForceInfo@@V?$_Vector_const_iterator@V?$_Vector_val@UForceInfo@@V?$allocator@UForceInfo@@@std@@@std@@@0@0PAU1@AAV?$allocator@UForceInfo@@@0@U_Nonscalar_ptr_iterator_tag@0@@Z ; std::_Uninit_copy<std::_Vector_const_iterator<std::_Vector_val<ForceInfo,std::allocator<ForceInfo> > >,ForceInfo *,std::allocator<ForceInfo> >
  00018	83 c4 14	 add	 esp, 20			; 00000014H

; 1319 : 		}

  0001b	5d		 pop	 ebp
  0001c	c2 0c 00	 ret	 12			; 0000000cH
??$_Ucopy@V?$_Vector_const_iterator@V?$_Vector_val@UForceInfo@@V?$allocator@UForceInfo@@@std@@@std@@@std@@@?$vector@UForceInfo@@V?$allocator@UForceInfo@@@std@@@std@@IAEPAUForceInfo@@V?$_Vector_const_iterator@V?$_Vector_val@UForceInfo@@V?$allocator@UForceInfo@@@std@@@std@@@1@0PAU2@@Z ENDP ; std::vector<ForceInfo,std::allocator<ForceInfo> >::_Ucopy<std::_Vector_const_iterator<std::_Vector_val<ForceInfo,std::allocator<ForceInfo> > > >
_TEXT	ENDS
PUBLIC	??$_Uninitialized_copy@V?$_Vector_const_iterator@V?$_Vector_val@UWeaponInfo@@V?$allocator@UWeaponInfo@@@std@@@std@@@std@@PAUWeaponInfo@@V?$allocator@UWeaponInfo@@@2@@std@@YAPAUWeaponInfo@@V?$_Vector_const_iterator@V?$_Vector_val@UWeaponInfo@@V?$allocator@UWeaponInfo@@@std@@@std@@@0@0PAU1@AAV?$allocator@UWeaponInfo@@@0@@Z ; std::_Uninitialized_copy<std::_Vector_const_iterator<std::_Vector_val<WeaponInfo,std::allocator<WeaponInfo> > >,WeaponInfo *,std::allocator<WeaponInfo> >
; Function compile flags: /Ogsp
; File c:\program files (x86)\microsoft visual studio 10.0\vc\include\memory
;	COMDAT ??$_Uninitialized_copy@V?$_Vector_const_iterator@V?$_Vector_val@UWeaponInfo@@V?$allocator@UWeaponInfo@@@std@@@std@@@std@@PAUWeaponInfo@@V?$allocator@UWeaponInfo@@@2@@std@@YAPAUWeaponInfo@@V?$_Vector_const_iterator@V?$_Vector_val@UWeaponInfo@@V?$allocator@UWeaponInfo@@@std@@@std@@@0@0PAU1@AAV?$allocator@UWeaponInfo@@@0@@Z
_TEXT	SEGMENT
__Cat$556907 = -4					; size = 1
__First$ = 8						; size = 4
__Last$ = 12						; size = 4
__Dest$ = 16						; size = 4
__Al$ = 20						; size = 4
??$_Uninitialized_copy@V?$_Vector_const_iterator@V?$_Vector_val@UWeaponInfo@@V?$allocator@UWeaponInfo@@@std@@@std@@@std@@PAUWeaponInfo@@V?$allocator@UWeaponInfo@@@2@@std@@YAPAUWeaponInfo@@V?$_Vector_const_iterator@V?$_Vector_val@UWeaponInfo@@V?$allocator@UWeaponInfo@@@std@@@std@@@0@0PAU1@AAV?$allocator@UWeaponInfo@@@0@@Z PROC ; std::_Uninitialized_copy<std::_Vector_const_iterator<std::_Vector_val<WeaponInfo,std::allocator<WeaponInfo> > >,WeaponInfo *,std::allocator<WeaponInfo> >, COMDAT

; 412  : 	{	// copy [_First, _Last) to raw _Dest, using _Al

  00000	55		 push	 ebp
  00001	8b ec		 mov	 ebp, esp
  00003	51		 push	 ecx

; 413  : 	return (_Uninit_copy(_First, _Last, _Dest, _Al,
; 414  : 		_Ptr_cat(_First, _Dest)));

  00004	ff 75 fc	 push	 DWORD PTR __Cat$556907[ebp]
  00007	ff 75 14	 push	 DWORD PTR __Al$[ebp]
  0000a	ff 75 10	 push	 DWORD PTR __Dest$[ebp]
  0000d	ff 75 0c	 push	 DWORD PTR __Last$[ebp]
  00010	ff 75 08	 push	 DWORD PTR __First$[ebp]
  00013	e8 00 00 00 00	 call	 ??$_Uninit_copy@V?$_Vector_const_iterator@V?$_Vector_val@UWeaponInfo@@V?$allocator@UWeaponInfo@@@std@@@std@@@std@@PAUWeaponInfo@@V?$allocator@UWeaponInfo@@@2@@std@@YAPAUWeaponInfo@@V?$_Vector_const_iterator@V?$_Vector_val@UWeaponInfo@@V?$allocator@UWeaponInfo@@@std@@@std@@@0@0PAU1@AAV?$allocator@UWeaponInfo@@@0@U_Nonscalar_ptr_iterator_tag@0@@Z ; std::_Uninit_copy<std::_Vector_const_iterator<std::_Vector_val<WeaponInfo,std::allocator<WeaponInfo> > >,WeaponInfo *,std::allocator<WeaponInfo> >
  00018	83 c4 14	 add	 esp, 20			; 00000014H

; 415  : 	}

  0001b	c9		 leave
  0001c	c3		 ret	 0
??$_Uninitialized_copy@V?$_Vector_const_iterator@V?$_Vector_val@UWeaponInfo@@V?$allocator@UWeaponInfo@@@std@@@std@@@std@@PAUWeaponInfo@@V?$allocator@UWeaponInfo@@@2@@std@@YAPAUWeaponInfo@@V?$_Vector_const_iterator@V?$_Vector_val@UWeaponInfo@@V?$allocator@UWeaponInfo@@@std@@@std@@@0@0PAU1@AAV?$allocator@UWeaponInfo@@@0@@Z ENDP ; std::_Uninitialized_copy<std::_Vector_const_iterator<std::_Vector_val<WeaponInfo,std::allocator<WeaponInfo> > >,WeaponInfo *,std::allocator<WeaponInfo> >
_TEXT	ENDS
PUBLIC	??$_Uninitialized_move@PAVioHashString@@PAV1@V?$allocator@VioHashString@@@std@@@std@@YAPAVioHashString@@PAV1@00AAV?$allocator@VioHashString@@@0@@Z ; std::_Uninitialized_move<ioHashString *,ioHashString *,std::allocator<ioHashString> >
; Function compile flags: /Ogsp
;	COMDAT ??$_Uninitialized_move@PAVioHashString@@PAV1@V?$allocator@VioHashString@@@std@@@std@@YAPAVioHashString@@PAV1@00AAV?$allocator@VioHashString@@@0@@Z
_TEXT	SEGMENT
__Cat$556914 = -4					; size = 1
__First$ = 8						; size = 4
__Last$ = 12						; size = 4
__Dest$ = 16						; size = 4
__Al$ = 20						; size = 4
??$_Uninitialized_move@PAVioHashString@@PAV1@V?$allocator@VioHashString@@@std@@@std@@YAPAVioHashString@@PAV1@00AAV?$allocator@VioHashString@@@0@@Z PROC ; std::_Uninitialized_move<ioHashString *,ioHashString *,std::allocator<ioHashString> >, COMDAT

; 469  : 	{	// move [_First, _Last) to raw _Dest, using _Al

  00000	55		 push	 ebp
  00001	8b ec		 mov	 ebp, esp
  00003	51		 push	 ecx

; 470  : 	return (_Uninit_move(_First, _Last, _Dest, _Al,
; 471  : 		_Val_type(_First), _Ptr_cat(_First, _Dest)));

  00004	ff 75 fc	 push	 DWORD PTR __Cat$556914[ebp]
  00007	6a 00		 push	 0
  00009	ff 75 14	 push	 DWORD PTR __Al$[ebp]
  0000c	ff 75 10	 push	 DWORD PTR __Dest$[ebp]
  0000f	ff 75 0c	 push	 DWORD PTR __Last$[ebp]
  00012	ff 75 08	 push	 DWORD PTR __First$[ebp]
  00015	e8 00 00 00 00	 call	 ??$_Uninit_move@PAVioHashString@@PAV1@V?$allocator@VioHashString@@@std@@V1@@std@@YAPAVioHashString@@PAV1@00AAV?$allocator@VioHashString@@@0@0U_Nonscalar_ptr_iterator_tag@0@@Z ; std::_Uninit_move<ioHashString *,ioHashString *,std::allocator<ioHashString>,ioHashString>
  0001a	83 c4 18	 add	 esp, 24			; 00000018H

; 472  : 	}

  0001d	c9		 leave
  0001e	c3		 ret	 0
??$_Uninitialized_move@PAVioHashString@@PAV1@V?$allocator@VioHashString@@@std@@@std@@YAPAVioHashString@@PAV1@00AAV?$allocator@VioHashString@@@0@@Z ENDP ; std::_Uninitialized_move<ioHashString *,ioHashString *,std::allocator<ioHashString> >
_TEXT	ENDS
PUBLIC	?_Destroy@?$vector@UForceInfo@@V?$allocator@UForceInfo@@@std@@@std@@IAEXPAUForceInfo@@0@Z ; std::vector<ForceInfo,std::allocator<ForceInfo> >::_Destroy
; Function compile flags: /Ogsp
; File c:\program files (x86)\microsoft visual studio 10.0\vc\include\vector
;	COMDAT ?_Destroy@?$vector@UForceInfo@@V?$allocator@UForceInfo@@@std@@@std@@IAEXPAUForceInfo@@0@Z
_TEXT	SEGMENT
__First$ = 8						; size = 4
__Last$ = 12						; size = 4
?_Destroy@?$vector@UForceInfo@@V?$allocator@UForceInfo@@@std@@@std@@IAEXPAUForceInfo@@0@Z PROC ; std::vector<ForceInfo,std::allocator<ForceInfo> >::_Destroy, COMDAT
; _this$ = ecx

; 1270 : 		_Destroy_range(_First, _Last, this->_Alval);
; 1271 : 		}

  00000	c2 08 00	 ret	 8
?_Destroy@?$vector@UForceInfo@@V?$allocator@UForceInfo@@@std@@@std@@IAEXPAUForceInfo@@0@Z ENDP ; std::vector<ForceInfo,std::allocator<ForceInfo> >::_Destroy
_TEXT	ENDS
PUBLIC	??$_Destroy_range@V?$allocator@VioHashString@@@std@@@std@@YAXPAVioHashString@@0AAV?$allocator@VioHashString@@@0@@Z ; std::_Destroy_range<std::allocator<ioHashString> >
; Function compile flags: /Ogsp
; File c:\program files (x86)\microsoft visual studio 10.0\vc\include\xmemory
;	COMDAT ??$_Destroy_range@V?$allocator@VioHashString@@@std@@@std@@YAXPAVioHashString@@0AAV?$allocator@VioHashString@@@0@@Z
_TEXT	SEGMENT
__First$ = 8						; size = 4
__Last$ = 12						; size = 4
__Al$ = 16						; size = 4
??$_Destroy_range@V?$allocator@VioHashString@@@std@@@std@@YAXPAVioHashString@@0AAV?$allocator@VioHashString@@@0@@Z PROC ; std::_Destroy_range<std::allocator<ioHashString> >, COMDAT

; 87   : 	{	// destroy [_First, _Last)

  00000	55		 push	 ebp
  00001	8b ec		 mov	 ebp, esp
  00003	56		 push	 esi

; 88   : 	_Destroy_range(_First, _Last, _Al, _Ptr_cat(_First, _Last));

  00004	8b 75 08	 mov	 esi, DWORD PTR __First$[ebp]
  00007	eb 0b		 jmp	 SHORT $LN21@Destroy_ra@3
$LL7@Destroy_ra@3:
  00009	8b ce		 mov	 ecx, esi
  0000b	ff 15 00 00 00
	00		 call	 DWORD PTR __imp_??1ioHashString@@QAE@XZ
  00011	83 c6 10	 add	 esi, 16			; 00000010H
$LN21@Destroy_ra@3:
  00014	3b 75 0c	 cmp	 esi, DWORD PTR __Last$[ebp]
  00017	75 f0		 jne	 SHORT $LL7@Destroy_ra@3
  00019	5e		 pop	 esi

; 89   : 	}

  0001a	5d		 pop	 ebp
  0001b	c3		 ret	 0
??$_Destroy_range@V?$allocator@VioHashString@@@std@@@std@@YAXPAVioHashString@@0AAV?$allocator@VioHashString@@@0@@Z ENDP ; std::_Destroy_range<std::allocator<ioHashString> >
_TEXT	ENDS
PUBLIC	??$_Destroy_range@V?$allocator@UWeaponInfo@@@std@@@std@@YAXPAUWeaponInfo@@0AAV?$allocator@UWeaponInfo@@@0@@Z ; std::_Destroy_range<std::allocator<WeaponInfo> >
; Function compile flags: /Ogsp
;	COMDAT ??$_Destroy_range@V?$allocator@UWeaponInfo@@@std@@@std@@YAXPAUWeaponInfo@@0AAV?$allocator@UWeaponInfo@@@0@@Z
_TEXT	SEGMENT
__First$ = 8						; size = 4
__Last$ = 12						; size = 4
__Al$ = 16						; size = 4
??$_Destroy_range@V?$allocator@UWeaponInfo@@@std@@@std@@YAXPAUWeaponInfo@@0AAV?$allocator@UWeaponInfo@@@0@@Z PROC ; std::_Destroy_range<std::allocator<WeaponInfo> >, COMDAT

; 87   : 	{	// destroy [_First, _Last)

  00000	55		 push	 ebp
  00001	8b ec		 mov	 ebp, esp
  00003	56		 push	 esi

; 88   : 	_Destroy_range(_First, _Last, _Al, _Ptr_cat(_First, _Last));

  00004	8b 75 08	 mov	 esi, DWORD PTR __First$[ebp]
  00007	eb 0c		 jmp	 SHORT $LN24@Destroy_ra@4
$LL7@Destroy_ra@4:
  00009	8d 4e 08	 lea	 ecx, DWORD PTR [esi+8]
  0000c	ff 15 00 00 00
	00		 call	 DWORD PTR __imp_??1ioHashString@@QAE@XZ
  00012	83 c6 28	 add	 esi, 40			; 00000028H
$LN24@Destroy_ra@4:
  00015	3b 75 0c	 cmp	 esi, DWORD PTR __Last$[ebp]
  00018	75 ef		 jne	 SHORT $LL7@Destroy_ra@4
  0001a	5e		 pop	 esi

; 89   : 	}

  0001b	5d		 pop	 ebp
  0001c	c3		 ret	 0
??$_Destroy_range@V?$allocator@UWeaponInfo@@@std@@@std@@YAXPAUWeaponInfo@@0AAV?$allocator@UWeaponInfo@@@0@@Z ENDP ; std::_Destroy_range<std::allocator<WeaponInfo> >
_TEXT	ENDS
PUBLIC	??$_Uninitialized_copy@V?$_Vector_const_iterator@V?$_Vector_val@VioHashString@@V?$allocator@VioHashString@@@std@@@std@@@std@@PAVioHashString@@V?$allocator@VioHashString@@@2@@std@@YAPAVioHashString@@V?$_Vector_const_iterator@V?$_Vector_val@VioHashString@@V?$allocator@VioHashString@@@std@@@std@@@0@0PAV1@AAV?$allocator@VioHashString@@@0@@Z ; std::_Uninitialized_copy<std::_Vector_const_iterator<std::_Vector_val<ioHashString,std::allocator<ioHashString> > >,ioHashString *,std::allocator<ioHashString> >
; Function compile flags: /Ogsp
; File c:\program files (x86)\microsoft visual studio 10.0\vc\include\memory
;	COMDAT ??$_Uninitialized_copy@V?$_Vector_const_iterator@V?$_Vector_val@VioHashString@@V?$allocator@VioHashString@@@std@@@std@@@std@@PAVioHashString@@V?$allocator@VioHashString@@@2@@std@@YAPAVioHashString@@V?$_Vector_const_iterator@V?$_Vector_val@VioHashString@@V?$allocator@VioHashString@@@std@@@std@@@0@0PAV1@AAV?$allocator@VioHashString@@@0@@Z
_TEXT	SEGMENT
__Cat$557103 = -4					; size = 1
__First$ = 8						; size = 4
__Last$ = 12						; size = 4
__Dest$ = 16						; size = 4
__Al$ = 20						; size = 4
??$_Uninitialized_copy@V?$_Vector_const_iterator@V?$_Vector_val@VioHashString@@V?$allocator@VioHashString@@@std@@@std@@@std@@PAVioHashString@@V?$allocator@VioHashString@@@2@@std@@YAPAVioHashString@@V?$_Vector_const_iterator@V?$_Vector_val@VioHashString@@V?$allocator@VioHashString@@@std@@@std@@@0@0PAV1@AAV?$allocator@VioHashString@@@0@@Z PROC ; std::_Uninitialized_copy<std::_Vector_const_iterator<std::_Vector_val<ioHashString,std::allocator<ioHashString> > >,ioHashString *,std::allocator<ioHashString> >, COMDAT

; 412  : 	{	// copy [_First, _Last) to raw _Dest, using _Al

  00000	55		 push	 ebp
  00001	8b ec		 mov	 ebp, esp
  00003	51		 push	 ecx

; 413  : 	return (_Uninit_copy(_First, _Last, _Dest, _Al,
; 414  : 		_Ptr_cat(_First, _Dest)));

  00004	ff 75 fc	 push	 DWORD PTR __Cat$557103[ebp]
  00007	ff 75 14	 push	 DWORD PTR __Al$[ebp]
  0000a	ff 75 10	 push	 DWORD PTR __Dest$[ebp]
  0000d	ff 75 0c	 push	 DWORD PTR __Last$[ebp]
  00010	ff 75 08	 push	 DWORD PTR __First$[ebp]
  00013	e8 00 00 00 00	 call	 ??$_Uninit_copy@V?$_Vector_const_iterator@V?$_Vector_val@VioHashString@@V?$allocator@VioHashString@@@std@@@std@@@std@@PAVioHashString@@V?$allocator@VioHashString@@@2@@std@@YAPAVioHashString@@V?$_Vector_const_iterator@V?$_Vector_val@VioHashString@@V?$allocator@VioHashString@@@std@@@std@@@0@0PAV1@AAV?$allocator@VioHashString@@@0@U_Nonscalar_ptr_iterator_tag@0@@Z ; std::_Uninit_copy<std::_Vector_const_iterator<std::_Vector_val<ioHashString,std::allocator<ioHashString> > >,ioHashString *,std::allocator<ioHashString> >
  00018	83 c4 14	 add	 esp, 20			; 00000014H

; 415  : 	}

  0001b	c9		 leave
  0001c	c3		 ret	 0
??$_Uninitialized_copy@V?$_Vector_const_iterator@V?$_Vector_val@VioHashString@@V?$allocator@VioHashString@@@std@@@std@@@std@@PAVioHashString@@V?$allocator@VioHashString@@@2@@std@@YAPAVioHashString@@V?$_Vector_const_iterator@V?$_Vector_val@VioHashString@@V?$allocator@VioHashString@@@std@@@std@@@0@0PAV1@AAV?$allocator@VioHashString@@@0@@Z ENDP ; std::_Uninitialized_copy<std::_Vector_const_iterator<std::_Vector_val<ioHashString,std::allocator<ioHashString> > >,ioHashString *,std::allocator<ioHashString> >
_TEXT	ENDS
PUBLIC	??$_Ucopy@V?$_Vector_const_iterator@V?$_Vector_val@UWeaponInfo@@V?$allocator@UWeaponInfo@@@std@@@std@@@std@@@?$vector@UWeaponInfo@@V?$allocator@UWeaponInfo@@@std@@@std@@IAEPAUWeaponInfo@@V?$_Vector_const_iterator@V?$_Vector_val@UWeaponInfo@@V?$allocator@UWeaponInfo@@@std@@@std@@@1@0PAU2@@Z ; std::vector<WeaponInfo,std::allocator<WeaponInfo> >::_Ucopy<std::_Vector_const_iterator<std::_Vector_val<WeaponInfo,std::allocator<WeaponInfo> > > >
; Function compile flags: /Ogsp
; File c:\program files (x86)\microsoft visual studio 10.0\vc\include\vector
;	COMDAT ??$_Ucopy@V?$_Vector_const_iterator@V?$_Vector_val@UWeaponInfo@@V?$allocator@UWeaponInfo@@@std@@@std@@@std@@@?$vector@UWeaponInfo@@V?$allocator@UWeaponInfo@@@std@@@std@@IAEPAUWeaponInfo@@V?$_Vector_const_iterator@V?$_Vector_val@UWeaponInfo@@V?$allocator@UWeaponInfo@@@std@@@std@@@1@0PAU2@@Z
_TEXT	SEGMENT
__First$ = 8						; size = 4
__Last$ = 12						; size = 4
__Cat$557116 = 16					; size = 1
__Ptr$ = 16						; size = 4
??$_Ucopy@V?$_Vector_const_iterator@V?$_Vector_val@UWeaponInfo@@V?$allocator@UWeaponInfo@@@std@@@std@@@std@@@?$vector@UWeaponInfo@@V?$allocator@UWeaponInfo@@@std@@@std@@IAEPAUWeaponInfo@@V?$_Vector_const_iterator@V?$_Vector_val@UWeaponInfo@@V?$allocator@UWeaponInfo@@@std@@@std@@@1@0PAU2@@Z PROC ; std::vector<WeaponInfo,std::allocator<WeaponInfo> >::_Ucopy<std::_Vector_const_iterator<std::_Vector_val<WeaponInfo,std::allocator<WeaponInfo> > > >, COMDAT
; _this$ = ecx

; 1315 : 		pointer _Ucopy(_Iter _First, _Iter _Last, pointer _Ptr)

  00000	55		 push	 ebp
  00001	8b ec		 mov	 ebp, esp

; 1316 : 		{	// copy initializing [_First, _Last), using allocator
; 1317 : 		return (_Uninitialized_copy(_First, _Last,
; 1318 : 			_Ptr, this->_Alval));

  00003	ff 75 10	 push	 DWORD PTR __Cat$557116[ebp]
  00006	83 c1 0c	 add	 ecx, 12			; 0000000cH
  00009	51		 push	 ecx
  0000a	ff 75 10	 push	 DWORD PTR __Ptr$[ebp]
  0000d	ff 75 0c	 push	 DWORD PTR __Last$[ebp]
  00010	ff 75 08	 push	 DWORD PTR __First$[ebp]
  00013	e8 00 00 00 00	 call	 ??$_Uninit_copy@V?$_Vector_const_iterator@V?$_Vector_val@UWeaponInfo@@V?$allocator@UWeaponInfo@@@std@@@std@@@std@@PAUWeaponInfo@@V?$allocator@UWeaponInfo@@@2@@std@@YAPAUWeaponInfo@@V?$_Vector_const_iterator@V?$_Vector_val@UWeaponInfo@@V?$allocator@UWeaponInfo@@@std@@@std@@@0@0PAU1@AAV?$allocator@UWeaponInfo@@@0@U_Nonscalar_ptr_iterator_tag@0@@Z ; std::_Uninit_copy<std::_Vector_const_iterator<std::_Vector_val<WeaponInfo,std::allocator<WeaponInfo> > >,WeaponInfo *,std::allocator<WeaponInfo> >
  00018	83 c4 14	 add	 esp, 20			; 00000014H

; 1319 : 		}

  0001b	5d		 pop	 ebp
  0001c	c2 0c 00	 ret	 12			; 0000000cH
??$_Ucopy@V?$_Vector_const_iterator@V?$_Vector_val@UWeaponInfo@@V?$allocator@UWeaponInfo@@@std@@@std@@@std@@@?$vector@UWeaponInfo@@V?$allocator@UWeaponInfo@@@std@@@std@@IAEPAUWeaponInfo@@V?$_Vector_const_iterator@V?$_Vector_val@UWeaponInfo@@V?$allocator@UWeaponInfo@@@std@@@std@@@1@0PAU2@@Z ENDP ; std::vector<WeaponInfo,std::allocator<WeaponInfo> >::_Ucopy<std::_Vector_const_iterator<std::_Vector_val<WeaponInfo,std::allocator<WeaponInfo> > > >
_TEXT	ENDS
PUBLIC	??$_Umove@PAVioHashString@@@?$vector@VioHashString@@V?$allocator@VioHashString@@@std@@@std@@IAEPAVioHashString@@PAV2@00@Z ; std::vector<ioHashString,std::allocator<ioHashString> >::_Umove<ioHashString *>
; Function compile flags: /Ogsp
;	COMDAT ??$_Umove@PAVioHashString@@@?$vector@VioHashString@@V?$allocator@VioHashString@@@std@@@std@@IAEPAVioHashString@@PAV2@00@Z
_TEXT	SEGMENT
__First$ = 8						; size = 4
__Last$ = 12						; size = 4
__Ptr$ = 16						; size = 4
??$_Umove@PAVioHashString@@@?$vector@VioHashString@@V?$allocator@VioHashString@@@std@@@std@@IAEPAVioHashString@@PAV2@00@Z PROC ; std::vector<ioHashString,std::allocator<ioHashString> >::_Umove<ioHashString *>, COMDAT
; _this$ = ecx

; 1322 : 		pointer _Umove(_Iter _First, _Iter _Last, pointer _Ptr)

  00000	55		 push	 ebp
  00001	8b ec		 mov	 ebp, esp

; 1323 : 		{	// move initializing [_First, _Last), using allocator
; 1324 : 		return (_Uninitialized_move(_First, _Last,
; 1325 : 			_Ptr, this->_Alval));

  00003	83 c1 0c	 add	 ecx, 12			; 0000000cH
  00006	51		 push	 ecx
  00007	ff 75 10	 push	 DWORD PTR __Ptr$[ebp]
  0000a	ff 75 0c	 push	 DWORD PTR __Last$[ebp]
  0000d	ff 75 08	 push	 DWORD PTR __First$[ebp]
  00010	e8 00 00 00 00	 call	 ??$_Uninitialized_move@PAVioHashString@@PAV1@V?$allocator@VioHashString@@@std@@@std@@YAPAVioHashString@@PAV1@00AAV?$allocator@VioHashString@@@0@@Z ; std::_Uninitialized_move<ioHashString *,ioHashString *,std::allocator<ioHashString> >
  00015	83 c4 10	 add	 esp, 16			; 00000010H

; 1326 : 		}

  00018	5d		 pop	 ebp
  00019	c2 0c 00	 ret	 12			; 0000000cH
??$_Umove@PAVioHashString@@@?$vector@VioHashString@@V?$allocator@VioHashString@@@std@@@std@@IAEPAVioHashString@@PAV2@00@Z ENDP ; std::vector<ioHashString,std::allocator<ioHashString> >::_Umove<ioHashString *>
_TEXT	ENDS
PUBLIC	?_Tidy@?$vector@UForceInfo@@V?$allocator@UForceInfo@@@std@@@std@@IAEXXZ ; std::vector<ForceInfo,std::allocator<ForceInfo> >::_Tidy
EXTRN	__imp_?_Orphan_all@_Container_base0@std@@QAEXXZ:PROC
; Function compile flags: /Ogsp
;	COMDAT ?_Tidy@?$vector@UForceInfo@@V?$allocator@UForceInfo@@@std@@@std@@IAEXXZ
_TEXT	SEGMENT
?_Tidy@?$vector@UForceInfo@@V?$allocator@UForceInfo@@@std@@@std@@IAEXXZ PROC ; std::vector<ForceInfo,std::allocator<ForceInfo> >::_Tidy, COMDAT
; _this$ = ecx

; 1301 : 		{	// free all storage

  00000	56		 push	 esi
  00001	8b f1		 mov	 esi, ecx

; 1302 : 		if (this->_Myfirst != 0)

  00003	83 3e 00	 cmp	 DWORD PTR [esi], 0
  00006	74 0e		 je	 SHORT $LN21@Tidy

; 1303 : 			{	// something to free, destroy and deallocate it
; 1304 : 			this->_Orphan_all();

  00008	ff 15 00 00 00
	00		 call	 DWORD PTR __imp_?_Orphan_all@_Container_base0@std@@QAEXXZ

; 1305 : 			_Destroy(this->_Myfirst, this->_Mylast);
; 1306 : 			this->_Alval.deallocate(this->_Myfirst,
; 1307 : 				this->_Myend - this->_Myfirst);

  0000e	ff 36		 push	 DWORD PTR [esi]
  00010	e8 00 00 00 00	 call	 ??3@YAXPAX@Z		; operator delete
  00015	59		 pop	 ecx
$LN21@Tidy:

; 1308 : 			}
; 1309 : 		this->_Myfirst = 0;

  00016	83 26 00	 and	 DWORD PTR [esi], 0

; 1310 : 		this->_Mylast = 0;

  00019	83 66 04 00	 and	 DWORD PTR [esi+4], 0

; 1311 : 		this->_Myend = 0;

  0001d	83 66 08 00	 and	 DWORD PTR [esi+8], 0
  00021	5e		 pop	 esi

; 1312 : 		}

  00022	c3		 ret	 0
?_Tidy@?$vector@UForceInfo@@V?$allocator@UForceInfo@@@std@@@std@@IAEXXZ ENDP ; std::vector<ForceInfo,std::allocator<ForceInfo> >::_Tidy
_TEXT	ENDS
PUBLIC	?_Destroy@?$vector@VioHashString@@V?$allocator@VioHashString@@@std@@@std@@IAEXPAVioHashString@@0@Z ; std::vector<ioHashString,std::allocator<ioHashString> >::_Destroy
; Function compile flags: /Ogsp
;	COMDAT ?_Destroy@?$vector@VioHashString@@V?$allocator@VioHashString@@@std@@@std@@IAEXPAVioHashString@@0@Z
_TEXT	SEGMENT
__First$ = 8						; size = 4
__Last$ = 12						; size = 4
?_Destroy@?$vector@VioHashString@@V?$allocator@VioHashString@@@std@@@std@@IAEXPAVioHashString@@0@Z PROC ; std::vector<ioHashString,std::allocator<ioHashString> >::_Destroy, COMDAT
; _this$ = ecx

; 1269 : 		{	// destroy [_First, _Last) using allocator

  00000	55		 push	 ebp
  00001	8b ec		 mov	 ebp, esp
  00003	56		 push	 esi

; 1270 : 		_Destroy_range(_First, _Last, this->_Alval);

  00004	8b 75 08	 mov	 esi, DWORD PTR __First$[ebp]
  00007	eb 0b		 jmp	 SHORT $LN23@Destroy
$LL9@Destroy:
  00009	8b ce		 mov	 ecx, esi
  0000b	ff 15 00 00 00
	00		 call	 DWORD PTR __imp_??1ioHashString@@QAE@XZ
  00011	83 c6 10	 add	 esi, 16			; 00000010H
$LN23@Destroy:
  00014	3b 75 0c	 cmp	 esi, DWORD PTR __Last$[ebp]
  00017	75 f0		 jne	 SHORT $LL9@Destroy
  00019	5e		 pop	 esi

; 1271 : 		}

  0001a	5d		 pop	 ebp
  0001b	c2 08 00	 ret	 8
?_Destroy@?$vector@VioHashString@@V?$allocator@VioHashString@@@std@@@std@@IAEXPAVioHashString@@0@Z ENDP ; std::vector<ioHashString,std::allocator<ioHashString> >::_Destroy
_TEXT	ENDS
PUBLIC	?_Destroy@?$vector@UWeaponInfo@@V?$allocator@UWeaponInfo@@@std@@@std@@IAEXPAUWeaponInfo@@0@Z ; std::vector<WeaponInfo,std::allocator<WeaponInfo> >::_Destroy
; Function compile flags: /Ogsp
;	COMDAT ?_Destroy@?$vector@UWeaponInfo@@V?$allocator@UWeaponInfo@@@std@@@std@@IAEXPAUWeaponInfo@@0@Z
_TEXT	SEGMENT
__First$ = 8						; size = 4
__Last$ = 12						; size = 4
?_Destroy@?$vector@UWeaponInfo@@V?$allocator@UWeaponInfo@@@std@@@std@@IAEXPAUWeaponInfo@@0@Z PROC ; std::vector<WeaponInfo,std::allocator<WeaponInfo> >::_Destroy, COMDAT
; _this$ = ecx

; 1269 : 		{	// destroy [_First, _Last) using allocator

  00000	55		 push	 ebp
  00001	8b ec		 mov	 ebp, esp

; 1270 : 		_Destroy_range(_First, _Last, this->_Alval);

  00003	83 c1 0c	 add	 ecx, 12			; 0000000cH
  00006	51		 push	 ecx
  00007	ff 75 0c	 push	 DWORD PTR __Last$[ebp]
  0000a	ff 75 08	 push	 DWORD PTR __First$[ebp]
  0000d	e8 00 00 00 00	 call	 ??$_Destroy_range@V?$allocator@UWeaponInfo@@@std@@@std@@YAXPAUWeaponInfo@@0AAV?$allocator@UWeaponInfo@@@0@@Z ; std::_Destroy_range<std::allocator<WeaponInfo> >
  00012	83 c4 0c	 add	 esp, 12			; 0000000cH

; 1271 : 		}

  00015	5d		 pop	 ebp
  00016	c2 08 00	 ret	 8
?_Destroy@?$vector@UWeaponInfo@@V?$allocator@UWeaponInfo@@@std@@@std@@IAEXPAUWeaponInfo@@0@Z ENDP ; std::vector<WeaponInfo,std::allocator<WeaponInfo> >::_Destroy
_TEXT	ENDS
PUBLIC	??$_Ucopy@V?$_Vector_const_iterator@V?$_Vector_val@VioHashString@@V?$allocator@VioHashString@@@std@@@std@@@std@@@?$vector@VioHashString@@V?$allocator@VioHashString@@@std@@@std@@IAEPAVioHashString@@V?$_Vector_const_iterator@V?$_Vector_val@VioHashString@@V?$allocator@VioHashString@@@std@@@std@@@1@0PAV2@@Z ; std::vector<ioHashString,std::allocator<ioHashString> >::_Ucopy<std::_Vector_const_iterator<std::_Vector_val<ioHashString,std::allocator<ioHashString> > > >
; Function compile flags: /Ogsp
;	COMDAT ??$_Ucopy@V?$_Vector_const_iterator@V?$_Vector_val@VioHashString@@V?$allocator@VioHashString@@@std@@@std@@@std@@@?$vector@VioHashString@@V?$allocator@VioHashString@@@std@@@std@@IAEPAVioHashString@@V?$_Vector_const_iterator@V?$_Vector_val@VioHashString@@V?$allocator@VioHashString@@@std@@@std@@@1@0PAV2@@Z
_TEXT	SEGMENT
__First$ = 8						; size = 4
__Last$ = 12						; size = 4
__Cat$557292 = 16					; size = 1
__Ptr$ = 16						; size = 4
??$_Ucopy@V?$_Vector_const_iterator@V?$_Vector_val@VioHashString@@V?$allocator@VioHashString@@@std@@@std@@@std@@@?$vector@VioHashString@@V?$allocator@VioHashString@@@std@@@std@@IAEPAVioHashString@@V?$_Vector_const_iterator@V?$_Vector_val@VioHashString@@V?$allocator@VioHashString@@@std@@@std@@@1@0PAV2@@Z PROC ; std::vector<ioHashString,std::allocator<ioHashString> >::_Ucopy<std::_Vector_const_iterator<std::_Vector_val<ioHashString,std::allocator<ioHashString> > > >, COMDAT
; _this$ = ecx

; 1315 : 		pointer _Ucopy(_Iter _First, _Iter _Last, pointer _Ptr)

  00000	55		 push	 ebp
  00001	8b ec		 mov	 ebp, esp

; 1316 : 		{	// copy initializing [_First, _Last), using allocator
; 1317 : 		return (_Uninitialized_copy(_First, _Last,
; 1318 : 			_Ptr, this->_Alval));

  00003	ff 75 10	 push	 DWORD PTR __Cat$557292[ebp]
  00006	83 c1 0c	 add	 ecx, 12			; 0000000cH
  00009	51		 push	 ecx
  0000a	ff 75 10	 push	 DWORD PTR __Ptr$[ebp]
  0000d	ff 75 0c	 push	 DWORD PTR __Last$[ebp]
  00010	ff 75 08	 push	 DWORD PTR __First$[ebp]
  00013	e8 00 00 00 00	 call	 ??$_Uninit_copy@V?$_Vector_const_iterator@V?$_Vector_val@VioHashString@@V?$allocator@VioHashString@@@std@@@std@@@std@@PAVioHashString@@V?$allocator@VioHashString@@@2@@std@@YAPAVioHashString@@V?$_Vector_const_iterator@V?$_Vector_val@VioHashString@@V?$allocator@VioHashString@@@std@@@std@@@0@0PAV1@AAV?$allocator@VioHashString@@@0@U_Nonscalar_ptr_iterator_tag@0@@Z ; std::_Uninit_copy<std::_Vector_const_iterator<std::_Vector_val<ioHashString,std::allocator<ioHashString> > >,ioHashString *,std::allocator<ioHashString> >
  00018	83 c4 14	 add	 esp, 20			; 00000014H

; 1319 : 		}

  0001b	5d		 pop	 ebp
  0001c	c2 0c 00	 ret	 12			; 0000000cH
??$_Ucopy@V?$_Vector_const_iterator@V?$_Vector_val@VioHashString@@V?$allocator@VioHashString@@@std@@@std@@@std@@@?$vector@VioHashString@@V?$allocator@VioHashString@@@std@@@std@@IAEPAVioHashString@@V?$_Vector_const_iterator@V?$_Vector_val@VioHashString@@V?$allocator@VioHashString@@@std@@@std@@@1@0PAV2@@Z ENDP ; std::vector<ioHashString,std::allocator<ioHashString> >::_Ucopy<std::_Vector_const_iterator<std::_Vector_val<ioHashString,std::allocator<ioHashString> > > >
_TEXT	ENDS
PUBLIC	??0?$vector@UForceInfo@@V?$allocator@UForceInfo@@@std@@@std@@QAE@ABV01@@Z ; std::vector<ForceInfo,std::allocator<ForceInfo> >::vector<ForceInfo,std::allocator<ForceInfo> >
;	COMDAT xdata$x
; File c:\program files (x86)\microsoft visual studio 10.0\vc\include\xutility
xdata$x	SEGMENT
__catchsym$??0?$vector@UForceInfo@@V?$allocator@UForceInfo@@@std@@@std@@QAE@ABV01@@Z$2 DD 040H
	DD	00H
	DD	00H
	DD	FLAT:__catch$??0?$vector@UForceInfo@@V?$allocator@UForceInfo@@@std@@@std@@QAE@ABV01@@Z$0
__unwindtable$??0?$vector@UForceInfo@@V?$allocator@UForceInfo@@@std@@@std@@QAE@ABV01@@Z DD 0ffffffffH
	DD	00H
	DD	0ffffffffH
	DD	00H
__tryblocktable$??0?$vector@UForceInfo@@V?$allocator@UForceInfo@@@std@@@std@@QAE@ABV01@@Z DD 00H
	DD	00H
	DD	01H
	DD	01H
	DD	FLAT:__catchsym$??0?$vector@UForceInfo@@V?$allocator@UForceInfo@@@std@@@std@@QAE@ABV01@@Z$2
__ehfuncinfo$??0?$vector@UForceInfo@@V?$allocator@UForceInfo@@@std@@@std@@QAE@ABV01@@Z DD 019930522H
	DD	02H
	DD	FLAT:__unwindtable$??0?$vector@UForceInfo@@V?$allocator@UForceInfo@@@std@@@std@@QAE@ABV01@@Z
	DD	01H
	DD	FLAT:__tryblocktable$??0?$vector@UForceInfo@@V?$allocator@UForceInfo@@@std@@@std@@QAE@ABV01@@Z
	DD	2 DUP(00H)
	DD	00H
	DD	01H
; Function compile flags: /Ogsp
; File c:\program files (x86)\microsoft visual studio 10.0\vc\include\vector
xdata$x	ENDS
;	COMDAT ??0?$vector@UForceInfo@@V?$allocator@UForceInfo@@@std@@@std@@QAE@ABV01@@Z
_TEXT	SEGMENT
_this$ = -20						; size = 4
__$EHRec$ = -16						; size = 16
__Cat$557375 = 8					; size = 1
__Right$ = 8						; size = 4
??0?$vector@UForceInfo@@V?$allocator@UForceInfo@@@std@@@std@@QAE@ABV01@@Z PROC ; std::vector<ForceInfo,std::allocator<ForceInfo> >::vector<ForceInfo,std::allocator<ForceInfo> >, COMDAT
; _this$ = ecx

; 535  : 		{	// construct by copying _Right

  00000	6a 08		 push	 8
  00002	b8 00 00 00 00	 mov	 eax, __ehhandler$??0?$vector@UForceInfo@@V?$allocator@UForceInfo@@@std@@@std@@QAE@ABV01@@Z
  00007	e8 00 00 00 00	 call	 __EH_prolog3_catch
  0000c	8b f1		 mov	 esi, ecx
  0000e	89 75 ec	 mov	 DWORD PTR _this$[ebp], esi

; 536  : 		if (_Buy(_Right.size()))

  00011	8b 7d 08	 mov	 edi, DWORD PTR __Right$[ebp]
  00014	33 db		 xor	 ebx, ebx
  00016	89 1e		 mov	 DWORD PTR [esi], ebx
  00018	89 5e 04	 mov	 DWORD PTR [esi+4], ebx
  0001b	89 5e 08	 mov	 DWORD PTR [esi+8], ebx
  0001e	8b 47 04	 mov	 eax, DWORD PTR [edi+4]
  00021	2b 07		 sub	 eax, DWORD PTR [edi]
  00023	6a 0c		 push	 12			; 0000000cH
  00025	59		 pop	 ecx
  00026	99		 cdq
  00027	f7 f9		 idiv	 ecx
  00029	8b ce		 mov	 ecx, esi
  0002b	50		 push	 eax
  0002c	e8 00 00 00 00	 call	 ?_Buy@?$vector@UForceInfo@@V?$allocator@UForceInfo@@@std@@@std@@IAE_NI@Z ; std::vector<ForceInfo,std::allocator<ForceInfo> >::_Buy
  00031	84 c0		 test	 al, al
  00033	74 1f		 je	 SHORT $LN7@vector

; 537  : 			_TRY_BEGIN
; 538  : 			this->_Mylast = _Ucopy(_Right.begin(), _Right.end(),
; 539  : 				this->_Myfirst);

  00035	ff 75 08	 push	 DWORD PTR __Cat$557375[ebp]
  00038	8b 0e		 mov	 ecx, DWORD PTR [esi]
  0003a	8b 47 04	 mov	 eax, DWORD PTR [edi+4]
  0003d	8b 3f		 mov	 edi, DWORD PTR [edi]
  0003f	8d 56 0c	 lea	 edx, DWORD PTR [esi+12]
  00042	52		 push	 edx
  00043	51		 push	 ecx
  00044	50		 push	 eax
  00045	57		 push	 edi
  00046	89 5d fc	 mov	 DWORD PTR __$EHRec$[ebp+12], ebx
  00049	e8 00 00 00 00	 call	 ??$_Uninit_copy@V?$_Vector_const_iterator@V?$_Vector_val@UForceInfo@@V?$allocator@UForceInfo@@@std@@@std@@@std@@PAUForceInfo@@V?$allocator@UForceInfo@@@2@@std@@YAPAUForceInfo@@V?$_Vector_const_iterator@V?$_Vector_val@UForceInfo@@V?$allocator@UForceInfo@@@std@@@std@@@0@0PAU1@AAV?$allocator@UForceInfo@@@0@U_Nonscalar_ptr_iterator_tag@0@@Z ; std::_Uninit_copy<std::_Vector_const_iterator<std::_Vector_val<ForceInfo,std::allocator<ForceInfo> > >,ForceInfo *,std::allocator<ForceInfo> >
  0004e	83 c4 14	 add	 esp, 20			; 00000014H
  00051	89 46 04	 mov	 DWORD PTR [esi+4], eax
$LN7@vector:

; 543  : 			_CATCH_END
; 544  : 		}

  00054	8b c6		 mov	 eax, esi
  00056	e8 00 00 00 00	 call	 __EH_epilog3
  0005b	c2 04 00	 ret	 4
__catch$??0?$vector@UForceInfo@@V?$allocator@UForceInfo@@@std@@@std@@QAE@ABV01@@Z$0:

; 540  : 			_CATCH_ALL
; 541  : 			_Tidy();

  0005e	8b 4d ec	 mov	 ecx, DWORD PTR _this$[ebp]
  00061	e8 00 00 00 00	 call	 ?_Tidy@?$vector@UForceInfo@@V?$allocator@UForceInfo@@@std@@@std@@IAEXXZ ; std::vector<ForceInfo,std::allocator<ForceInfo> >::_Tidy

; 542  : 			_RERAISE;

  00066	33 db		 xor	 ebx, ebx
  00068	53		 push	 ebx
  00069	53		 push	 ebx
  0006a	e8 00 00 00 00	 call	 __CxxThrowException@8
$LN38@vector:
$LN37@vector:
  0006f	cc		 int	 3
_TEXT	ENDS
;	COMDAT text$x
text$x	SEGMENT
__ehhandler$??0?$vector@UForceInfo@@V?$allocator@UForceInfo@@@std@@@std@@QAE@ABV01@@Z:
  00000	8b 54 24 08	 mov	 edx, DWORD PTR [esp+8]
  00004	8d 42 0c	 lea	 eax, DWORD PTR [edx+12]
  00007	8b 4a e8	 mov	 ecx, DWORD PTR [edx-24]
  0000a	33 c8		 xor	 ecx, eax
  0000c	e8 00 00 00 00	 call	 @__security_check_cookie@4
  00011	b8 00 00 00 00	 mov	 eax, OFFSET __ehfuncinfo$??0?$vector@UForceInfo@@V?$allocator@UForceInfo@@@std@@@std@@QAE@ABV01@@Z
  00016	e9 00 00 00 00	 jmp	 ___CxxFrameHandler3
text$x	ENDS
??0?$vector@UForceInfo@@V?$allocator@UForceInfo@@@std@@@std@@QAE@ABV01@@Z ENDP ; std::vector<ForceInfo,std::allocator<ForceInfo> >::vector<ForceInfo,std::allocator<ForceInfo> >
PUBLIC	?reserve@?$vector@VioHashString@@V?$allocator@VioHashString@@@std@@@std@@QAEXI@Z ; std::vector<ioHashString,std::allocator<ioHashString> >::reserve
;	COMDAT xdata$x
; File c:\program files (x86)\microsoft visual studio 10.0\vc\include\xmemory
xdata$x	SEGMENT
__catchsym$?reserve@?$vector@VioHashString@@V?$allocator@VioHashString@@@std@@@std@@QAEXI@Z$2 DD 040H
	DD	00H
	DD	00H
	DD	FLAT:__catch$?reserve@?$vector@VioHashString@@V?$allocator@VioHashString@@@std@@@std@@QAEXI@Z$0
__unwindtable$?reserve@?$vector@VioHashString@@V?$allocator@VioHashString@@@std@@@std@@QAEXI@Z DD 0ffffffffH
	DD	00H
	DD	0ffffffffH
	DD	00H
__tryblocktable$?reserve@?$vector@VioHashString@@V?$allocator@VioHashString@@@std@@@std@@QAEXI@Z DD 00H
	DD	00H
	DD	01H
	DD	01H
	DD	FLAT:__catchsym$?reserve@?$vector@VioHashString@@V?$allocator@VioHashString@@@std@@@std@@QAEXI@Z$2
__ehfuncinfo$?reserve@?$vector@VioHashString@@V?$allocator@VioHashString@@@std@@@std@@QAEXI@Z DD 019930522H
	DD	02H
	DD	FLAT:__unwindtable$?reserve@?$vector@VioHashString@@V?$allocator@VioHashString@@@std@@@std@@QAEXI@Z
	DD	01H
	DD	FLAT:__tryblocktable$?reserve@?$vector@VioHashString@@V?$allocator@VioHashString@@@std@@@std@@QAEXI@Z
	DD	2 DUP(00H)
	DD	00H
	DD	01H
; Function compile flags: /Ogsp
; File c:\program files (x86)\microsoft visual studio 10.0\vc\include\vector
xdata$x	ENDS
;	COMDAT ?reserve@?$vector@VioHashString@@V?$allocator@VioHashString@@@std@@@std@@QAEXI@Z
_TEXT	SEGMENT
tv300 = -24						; size = 4
__Ptr$551645 = -20					; size = 4
__$EHRec$ = -16						; size = 16
$T557484 = 8						; size = 4
__Count$ = 8						; size = 4
?reserve@?$vector@VioHashString@@V?$allocator@VioHashString@@@std@@@std@@QAEXI@Z PROC ; std::vector<ioHashString,std::allocator<ioHashString> >::reserve, COMDAT
; _this$ = ecx

; 746  : 		{	// determine new minimum length of allocated storage

  00000	6a 0c		 push	 12			; 0000000cH
  00002	b8 00 00 00 00	 mov	 eax, __ehhandler$?reserve@?$vector@VioHashString@@V?$allocator@VioHashString@@@std@@@std@@QAEXI@Z
  00007	e8 00 00 00 00	 call	 __EH_prolog3_catch
  0000c	8b f1		 mov	 esi, ecx

; 747  : 		if (max_size() < _Count)

  0000e	8b 5d 08	 mov	 ebx, DWORD PTR __Count$[ebp]
  00011	81 fb ff ff ff
	0f		 cmp	 ebx, 268435455		; 0fffffffH
  00017	76 0b		 jbe	 SHORT $LN5@reserve

; 748  : 			_Xlen();	// result too long

  00019	68 00 00 00 00	 push	 OFFSET ??_C@_0BD@OLBABOEK@vector?$DMT?$DO?5too?5long?$AA@
  0001e	ff 15 00 00 00
	00		 call	 DWORD PTR __imp_?_Xlength_error@std@@YAXPBD@Z
$LN59@reserve:
$LN5@reserve:

; 749  : 		else if (capacity() < _Count)

  00024	8b 46 08	 mov	 eax, DWORD PTR [esi+8]
  00027	2b 06		 sub	 eax, DWORD PTR [esi]
  00029	c1 f8 04	 sar	 eax, 4
  0002c	3b c3		 cmp	 eax, ebx
  0002e	73 7a		 jae	 SHORT $LN3@reserve

; 750  : 			{	// not enough room, reallocate
; 751  : 			pointer _Ptr = this->_Alval.allocate(_Count);

  00030	6a 00		 push	 0
  00032	53		 push	 ebx
  00033	e8 00 00 00 00	 call	 ??$_Allocate@VioHashString@@@std@@YAPAVioHashString@@IPAV1@@Z ; std::_Allocate<ioHashString>

; 752  : 
; 753  : 			_TRY_BEGIN
; 754  : 			_Umove(this->_Myfirst, this->_Mylast, _Ptr);

  00038	8b 0e		 mov	 ecx, DWORD PTR [esi]
  0003a	83 65 fc 00	 and	 DWORD PTR __$EHRec$[ebp+12], 0
  0003e	8d 56 0c	 lea	 edx, DWORD PTR [esi+12]
  00041	52		 push	 edx
  00042	89 45 ec	 mov	 DWORD PTR __Ptr$551645[ebp], eax
  00045	ff 75 ec	 push	 DWORD PTR __Ptr$551645[ebp]
  00048	8b 46 04	 mov	 eax, DWORD PTR [esi+4]
  0004b	50		 push	 eax
  0004c	51		 push	 ecx
  0004d	e8 00 00 00 00	 call	 ??$_Uninitialized_move@PAVioHashString@@PAV1@V?$allocator@VioHashString@@@std@@@std@@YAPAVioHashString@@PAV1@00AAV?$allocator@VioHashString@@@0@@Z ; std::_Uninitialized_move<ioHashString *,ioHashString *,std::allocator<ioHashString> >

; 758  : 			_CATCH_END
; 759  : 
; 760  : 			size_type _Size = size();

  00052	8b 4e 04	 mov	 ecx, DWORD PTR [esi+4]
  00055	8b 06		 mov	 eax, DWORD PTR [esi]
  00057	83 4d fc ff	 or	 DWORD PTR __$EHRec$[ebp+12], -1
  0005b	8b f9		 mov	 edi, ecx
  0005d	83 c4 18	 add	 esp, 24			; 00000018H
  00060	2b f8		 sub	 edi, eax
  00062	89 4d e8	 mov	 DWORD PTR tv300[ebp], ecx
  00065	85 c0		 test	 eax, eax
  00067	74 24		 je	 SHORT $LN51@reserve

; 761  : 			if (this->_Myfirst != 0)
; 762  : 				{	// destroy and deallocate old array
; 763  : 				_Destroy(this->_Myfirst, this->_Mylast);

  00069	89 45 08	 mov	 DWORD PTR $T557484[ebp], eax
  0006c	3b c1		 cmp	 eax, ecx
  0006e	74 15		 je	 SHORT $LN37@reserve
$LN39@reserve:
  00070	8b 4d 08	 mov	 ecx, DWORD PTR $T557484[ebp]
  00073	ff 15 00 00 00
	00		 call	 DWORD PTR __imp_??1ioHashString@@QAE@XZ
  00079	83 45 08 10	 add	 DWORD PTR $T557484[ebp], 16 ; 00000010H
  0007d	8b 45 08	 mov	 eax, DWORD PTR $T557484[ebp]
  00080	3b 45 e8	 cmp	 eax, DWORD PTR tv300[ebp]
  00083	75 eb		 jne	 SHORT $LN39@reserve
$LN37@reserve:

; 764  : 				this->_Alval.deallocate(this->_Myfirst,
; 765  : 					this->_Myend - this->_Myfirst);

  00085	ff 36		 push	 DWORD PTR [esi]
  00087	e8 00 00 00 00	 call	 ??3@YAXPAX@Z		; operator delete
  0008c	59		 pop	 ecx
$LN51@reserve:

; 766  : 				}
; 767  : 
; 768  : 			this->_Orphan_all();

  0008d	8b ce		 mov	 ecx, esi
  0008f	ff 15 00 00 00
	00		 call	 DWORD PTR __imp_?_Orphan_all@_Container_base0@std@@QAEXXZ

; 769  : 			this->_Myend = _Ptr + _Count;

  00095	8b 45 ec	 mov	 eax, DWORD PTR __Ptr$551645[ebp]
  00098	c1 e3 04	 shl	 ebx, 4
  0009b	03 d8		 add	 ebx, eax

; 770  : 			this->_Mylast = _Ptr + _Size;

  0009d	83 e7 f0	 and	 edi, -16		; fffffff0H
  000a0	03 f8		 add	 edi, eax
  000a2	89 5e 08	 mov	 DWORD PTR [esi+8], ebx
  000a5	89 7e 04	 mov	 DWORD PTR [esi+4], edi

; 771  : 			this->_Myfirst = _Ptr;

  000a8	89 06		 mov	 DWORD PTR [esi], eax
$LN3@reserve:

; 772  : 			}
; 773  : 		}

  000aa	e8 00 00 00 00	 call	 __EH_epilog3
  000af	c2 04 00	 ret	 4
__catch$?reserve@?$vector@VioHashString@@V?$allocator@VioHashString@@@std@@@std@@QAEXI@Z$0:

; 755  : 			_CATCH_ALL
; 756  : 			this->_Alval.deallocate(_Ptr, _Count);

  000b2	ff 75 ec	 push	 DWORD PTR __Ptr$551645[ebp]
  000b5	e8 00 00 00 00	 call	 ??3@YAXPAX@Z		; operator delete
  000ba	59		 pop	 ecx

; 757  : 			_RERAISE;

  000bb	6a 00		 push	 0
  000bd	6a 00		 push	 0
  000bf	e8 00 00 00 00	 call	 __CxxThrowException@8
$LN60@reserve:
$LN58@reserve:
  000c4	cc		 int	 3
_TEXT	ENDS
;	COMDAT text$x
text$x	SEGMENT
__ehhandler$?reserve@?$vector@VioHashString@@V?$allocator@VioHashString@@@std@@@std@@QAEXI@Z:
  00000	8b 54 24 08	 mov	 edx, DWORD PTR [esp+8]
  00004	8d 42 0c	 lea	 eax, DWORD PTR [edx+12]
  00007	8b 4a e4	 mov	 ecx, DWORD PTR [edx-28]
  0000a	33 c8		 xor	 ecx, eax
  0000c	e8 00 00 00 00	 call	 @__security_check_cookie@4
  00011	b8 00 00 00 00	 mov	 eax, OFFSET __ehfuncinfo$?reserve@?$vector@VioHashString@@V?$allocator@VioHashString@@@std@@@std@@QAEXI@Z
  00016	e9 00 00 00 00	 jmp	 ___CxxFrameHandler3
text$x	ENDS
?reserve@?$vector@VioHashString@@V?$allocator@VioHashString@@@std@@@std@@QAEXI@Z ENDP ; std::vector<ioHashString,std::allocator<ioHashString> >::reserve
PUBLIC	??1?$vector@UForceInfo@@V?$allocator@UForceInfo@@@std@@@std@@QAE@XZ ; std::vector<ForceInfo,std::allocator<ForceInfo> >::~vector<ForceInfo,std::allocator<ForceInfo> >
; Function compile flags: /Ogsp
;	COMDAT ??1?$vector@UForceInfo@@V?$allocator@UForceInfo@@@std@@@std@@QAE@XZ
_TEXT	SEGMENT
??1?$vector@UForceInfo@@V?$allocator@UForceInfo@@@std@@@std@@QAE@XZ PROC ; std::vector<ForceInfo,std::allocator<ForceInfo> >::~vector<ForceInfo,std::allocator<ForceInfo> >, COMDAT
; _this$ = ecx

; 705  : 		_Tidy();

  00000	e9 00 00 00 00	 jmp	 ?_Tidy@?$vector@UForceInfo@@V?$allocator@UForceInfo@@@std@@@std@@IAEXXZ ; std::vector<ForceInfo,std::allocator<ForceInfo> >::_Tidy
??1?$vector@UForceInfo@@V?$allocator@UForceInfo@@@std@@@std@@QAE@XZ ENDP ; std::vector<ForceInfo,std::allocator<ForceInfo> >::~vector<ForceInfo,std::allocator<ForceInfo> >
_TEXT	ENDS
PUBLIC	?erase@?$vector@VioHashString@@V?$allocator@VioHashString@@@std@@@std@@QAE?AV?$_Vector_iterator@V?$_Vector_val@VioHashString@@V?$allocator@VioHashString@@@std@@@std@@@2@V?$_Vector_const_iterator@V?$_Vector_val@VioHashString@@V?$allocator@VioHashString@@@std@@@std@@@2@0@Z ; std::vector<ioHashString,std::allocator<ioHashString> >::erase
; Function compile flags: /Ogsp
;	COMDAT ?erase@?$vector@VioHashString@@V?$allocator@VioHashString@@@std@@@std@@QAE?AV?$_Vector_iterator@V?$_Vector_val@VioHashString@@V?$allocator@VioHashString@@@std@@@std@@@2@V?$_Vector_const_iterator@V?$_Vector_val@VioHashString@@V?$allocator@VioHashString@@@std@@@std@@@2@0@Z
_TEXT	SEGMENT
$T557686 = -4						; size = 4
___$ReturnUdt$ = 8					; size = 4
__First_arg$ = 12					; size = 4
__Cat$557630 = 16					; size = 1
__Last_arg$ = 16					; size = 4
?erase@?$vector@VioHashString@@V?$allocator@VioHashString@@@std@@@std@@QAE?AV?$_Vector_iterator@V?$_Vector_val@VioHashString@@V?$allocator@VioHashString@@@std@@@std@@@2@V?$_Vector_const_iterator@V?$_Vector_val@VioHashString@@V?$allocator@VioHashString@@@std@@@std@@@2@0@Z PROC ; std::vector<ioHashString,std::allocator<ioHashString> >::erase, COMDAT
; _this$ = ecx

; 1190 : 		{	// erase [_First, _Last)

  00000	55		 push	 ebp
  00001	8b ec		 mov	 ebp, esp
  00003	51		 push	 ecx

; 1191 : 		iterator _First = _Make_iter(_First_arg);

  00004	8b 45 08	 mov	 eax, DWORD PTR ___$ReturnUdt$[ebp]
  00007	56		 push	 esi
  00008	8b f1		 mov	 esi, ecx
  0000a	8b 4d 0c	 mov	 ecx, DWORD PTR __First_arg$[ebp]
  0000d	89 08		 mov	 DWORD PTR [eax], ecx

; 1192 : 		iterator _Last = _Make_iter(_Last_arg);
; 1193 : 
; 1194 : 		if (_First != _Last)

  0000f	3b 4d 10	 cmp	 ecx, DWORD PTR __Last_arg$[ebp]
  00012	74 38		 je	 SHORT $LN1@erase

; 1195 : 			{	// worth doing, copy down over hole
; 1196 :  #if _ITERATOR_DEBUG_LEVEL == 2
; 1197 : 			if (_Last < _First || _VICONT(_First) != this
; 1198 : 				|| _VIPTR(_First) < this->_Myfirst
; 1199 : 				|| this->_Mylast < _VIPTR(_Last))
; 1200 : 				_DEBUG_ERROR("vector erase iterator outside range");
; 1201 : 			pointer _Ptr = _Move(_VIPTR(_Last), this->_Mylast,
; 1202 : 				_VIPTR(_First));
; 1203 : 			_Orphan_range(_VIPTR(_First), this->_Mylast);
; 1204 : 
; 1205 :  #else /* _ITERATOR_DEBUG_LEVEL == 2 */
; 1206 : 			pointer _Ptr = _Move(_VIPTR(_Last), this->_Mylast,
; 1207 : 				_VIPTR(_First));

  00014	8b 46 04	 mov	 eax, DWORD PTR [esi+4]
  00017	53		 push	 ebx
  00018	57		 push	 edi
  00019	ff 75 10	 push	 DWORD PTR __Cat$557630[ebp]
  0001c	51		 push	 ecx
  0001d	50		 push	 eax
  0001e	ff 75 10	 push	 DWORD PTR __Last_arg$[ebp]
  00021	e8 00 00 00 00	 call	 ??$_Move@PAVioHashString@@PAV1@@std@@YAPAVioHashString@@PAV1@00U_Nonscalar_ptr_iterator_tag@0@@Z ; std::_Move<ioHashString *,ioHashString *>

; 1208 :  #endif /* _ITERATOR_DEBUG_LEVEL == 2 */
; 1209 : 
; 1210 : 			_Destroy(_Ptr, this->_Mylast);

  00026	8b 7e 04	 mov	 edi, DWORD PTR [esi+4]
  00029	8b d8		 mov	 ebx, eax
  0002b	83 c4 10	 add	 esp, 16			; 00000010H
  0002e	89 5d fc	 mov	 DWORD PTR $T557686[ebp], ebx
  00031	3b df		 cmp	 ebx, edi
  00033	74 12		 je	 SHORT $LN36@erase
$LL52@erase:
  00035	8b 4d fc	 mov	 ecx, DWORD PTR $T557686[ebp]
  00038	ff 15 00 00 00
	00		 call	 DWORD PTR __imp_??1ioHashString@@QAE@XZ
  0003e	83 45 fc 10	 add	 DWORD PTR $T557686[ebp], 16 ; 00000010H
  00042	39 7d fc	 cmp	 DWORD PTR $T557686[ebp], edi
  00045	75 ee		 jne	 SHORT $LL52@erase
$LN36@erase:

; 1211 : 			this->_Mylast = _Ptr;

  00047	5f		 pop	 edi
  00048	89 5e 04	 mov	 DWORD PTR [esi+4], ebx
  0004b	5b		 pop	 ebx
$LN1@erase:

; 1212 : 			}
; 1213 : 		return (_First);

  0004c	8b 45 08	 mov	 eax, DWORD PTR ___$ReturnUdt$[ebp]
  0004f	5e		 pop	 esi

; 1214 : 		}

  00050	c9		 leave
  00051	c2 0c 00	 ret	 12			; 0000000cH
?erase@?$vector@VioHashString@@V?$allocator@VioHashString@@@std@@@std@@QAE?AV?$_Vector_iterator@V?$_Vector_val@VioHashString@@V?$allocator@VioHashString@@@std@@@std@@@2@V?$_Vector_const_iterator@V?$_Vector_val@VioHashString@@V?$allocator@VioHashString@@@std@@@std@@@2@0@Z ENDP ; std::vector<ioHashString,std::allocator<ioHashString> >::erase
_TEXT	ENDS
PUBLIC	?_Tidy@?$vector@VioHashString@@V?$allocator@VioHashString@@@std@@@std@@IAEXXZ ; std::vector<ioHashString,std::allocator<ioHashString> >::_Tidy
; Function compile flags: /Ogsp
;	COMDAT ?_Tidy@?$vector@VioHashString@@V?$allocator@VioHashString@@@std@@@std@@IAEXXZ
_TEXT	SEGMENT
?_Tidy@?$vector@VioHashString@@V?$allocator@VioHashString@@@std@@@std@@IAEXXZ PROC ; std::vector<ioHashString,std::allocator<ioHashString> >::_Tidy, COMDAT
; _this$ = ecx

; 1301 : 		{	// free all storage

  00000	56		 push	 esi
  00001	8b f1		 mov	 esi, ecx

; 1302 : 		if (this->_Myfirst != 0)

  00003	83 3e 00	 cmp	 DWORD PTR [esi], 0
  00006	74 28		 je	 SHORT $LN24@Tidy@2

; 1303 : 			{	// something to free, destroy and deallocate it
; 1304 : 			this->_Orphan_all();

  00008	53		 push	 ebx
  00009	57		 push	 edi
  0000a	ff 15 00 00 00
	00		 call	 DWORD PTR __imp_?_Orphan_all@_Container_base0@std@@QAEXXZ

; 1305 : 			_Destroy(this->_Myfirst, this->_Mylast);

  00010	8b 5e 04	 mov	 ebx, DWORD PTR [esi+4]
  00013	8b 3e		 mov	 edi, DWORD PTR [esi]
  00015	eb 0b		 jmp	 SHORT $LN28@Tidy@2
$LL12@Tidy@2:
  00017	8b cf		 mov	 ecx, edi
  00019	ff 15 00 00 00
	00		 call	 DWORD PTR __imp_??1ioHashString@@QAE@XZ
  0001f	83 c7 10	 add	 edi, 16			; 00000010H
$LN28@Tidy@2:
  00022	3b fb		 cmp	 edi, ebx
  00024	75 f1		 jne	 SHORT $LL12@Tidy@2

; 1306 : 			this->_Alval.deallocate(this->_Myfirst,
; 1307 : 				this->_Myend - this->_Myfirst);

  00026	ff 36		 push	 DWORD PTR [esi]
  00028	e8 00 00 00 00	 call	 ??3@YAXPAX@Z		; operator delete
  0002d	59		 pop	 ecx
  0002e	5f		 pop	 edi
  0002f	5b		 pop	 ebx
$LN24@Tidy@2:

; 1308 : 			}
; 1309 : 		this->_Myfirst = 0;

  00030	33 c0		 xor	 eax, eax
  00032	89 06		 mov	 DWORD PTR [esi], eax

; 1310 : 		this->_Mylast = 0;

  00034	89 46 04	 mov	 DWORD PTR [esi+4], eax

; 1311 : 		this->_Myend = 0;

  00037	89 46 08	 mov	 DWORD PTR [esi+8], eax
  0003a	5e		 pop	 esi

; 1312 : 		}

  0003b	c3		 ret	 0
?_Tidy@?$vector@VioHashString@@V?$allocator@VioHashString@@@std@@@std@@IAEXXZ ENDP ; std::vector<ioHashString,std::allocator<ioHashString> >::_Tidy
_TEXT	ENDS
PUBLIC	?_Tidy@?$vector@UWeaponInfo@@V?$allocator@UWeaponInfo@@@std@@@std@@IAEXXZ ; std::vector<WeaponInfo,std::allocator<WeaponInfo> >::_Tidy
; Function compile flags: /Ogsp
;	COMDAT ?_Tidy@?$vector@UWeaponInfo@@V?$allocator@UWeaponInfo@@@std@@@std@@IAEXXZ
_TEXT	SEGMENT
?_Tidy@?$vector@UWeaponInfo@@V?$allocator@UWeaponInfo@@@std@@@std@@IAEXXZ PROC ; std::vector<WeaponInfo,std::allocator<WeaponInfo> >::_Tidy, COMDAT
; _this$ = ecx

; 1301 : 		{	// free all storage

  00000	56		 push	 esi
  00001	8b f1		 mov	 esi, ecx

; 1302 : 		if (this->_Myfirst != 0)

  00003	83 3e 00	 cmp	 DWORD PTR [esi], 0
  00006	74 1e		 je	 SHORT $LN6@Tidy@3

; 1303 : 			{	// something to free, destroy and deallocate it
; 1304 : 			this->_Orphan_all();

  00008	ff 15 00 00 00
	00		 call	 DWORD PTR __imp_?_Orphan_all@_Container_base0@std@@QAEXXZ

; 1305 : 			_Destroy(this->_Myfirst, this->_Mylast);

  0000e	8d 46 0c	 lea	 eax, DWORD PTR [esi+12]
  00011	50		 push	 eax
  00012	ff 76 04	 push	 DWORD PTR [esi+4]
  00015	ff 36		 push	 DWORD PTR [esi]
  00017	e8 00 00 00 00	 call	 ??$_Destroy_range@V?$allocator@UWeaponInfo@@@std@@@std@@YAXPAUWeaponInfo@@0AAV?$allocator@UWeaponInfo@@@0@@Z ; std::_Destroy_range<std::allocator<WeaponInfo> >

; 1306 : 			this->_Alval.deallocate(this->_Myfirst,
; 1307 : 				this->_Myend - this->_Myfirst);

  0001c	ff 36		 push	 DWORD PTR [esi]
  0001e	e8 00 00 00 00	 call	 ??3@YAXPAX@Z		; operator delete
  00023	83 c4 10	 add	 esp, 16			; 00000010H
$LN6@Tidy@3:

; 1308 : 			}
; 1309 : 		this->_Myfirst = 0;

  00026	83 26 00	 and	 DWORD PTR [esi], 0

; 1310 : 		this->_Mylast = 0;

  00029	83 66 04 00	 and	 DWORD PTR [esi+4], 0

; 1311 : 		this->_Myend = 0;

  0002d	83 66 08 00	 and	 DWORD PTR [esi+8], 0
  00031	5e		 pop	 esi

; 1312 : 		}

  00032	c3		 ret	 0
?_Tidy@?$vector@UWeaponInfo@@V?$allocator@UWeaponInfo@@@std@@@std@@IAEXXZ ENDP ; std::vector<WeaponInfo,std::allocator<WeaponInfo> >::_Tidy
_TEXT	ENDS
PUBLIC	??0?$vector@UWeaponInfo@@V?$allocator@UWeaponInfo@@@std@@@std@@QAE@ABV01@@Z ; std::vector<WeaponInfo,std::allocator<WeaponInfo> >::vector<WeaponInfo,std::allocator<WeaponInfo> >
;	COMDAT xdata$x
; File c:\program files (x86)\microsoft visual studio 10.0\vc\include\xutility
xdata$x	SEGMENT
__catchsym$??0?$vector@UWeaponInfo@@V?$allocator@UWeaponInfo@@@std@@@std@@QAE@ABV01@@Z$2 DD 040H
	DD	00H
	DD	00H
	DD	FLAT:__catch$??0?$vector@UWeaponInfo@@V?$allocator@UWeaponInfo@@@std@@@std@@QAE@ABV01@@Z$0
__unwindtable$??0?$vector@UWeaponInfo@@V?$allocator@UWeaponInfo@@@std@@@std@@QAE@ABV01@@Z DD 0ffffffffH
	DD	00H
	DD	0ffffffffH
	DD	00H
__tryblocktable$??0?$vector@UWeaponInfo@@V?$allocator@UWeaponInfo@@@std@@@std@@QAE@ABV01@@Z DD 00H
	DD	00H
	DD	01H
	DD	01H
	DD	FLAT:__catchsym$??0?$vector@UWeaponInfo@@V?$allocator@UWeaponInfo@@@std@@@std@@QAE@ABV01@@Z$2
__ehfuncinfo$??0?$vector@UWeaponInfo@@V?$allocator@UWeaponInfo@@@std@@@std@@QAE@ABV01@@Z DD 019930522H
	DD	02H
	DD	FLAT:__unwindtable$??0?$vector@UWeaponInfo@@V?$allocator@UWeaponInfo@@@std@@@std@@QAE@ABV01@@Z
	DD	01H
	DD	FLAT:__tryblocktable$??0?$vector@UWeaponInfo@@V?$allocator@UWeaponInfo@@@std@@@std@@QAE@ABV01@@Z
	DD	2 DUP(00H)
	DD	00H
	DD	01H
; Function compile flags: /Ogsp
; File c:\program files (x86)\microsoft visual studio 10.0\vc\include\vector
xdata$x	ENDS
;	COMDAT ??0?$vector@UWeaponInfo@@V?$allocator@UWeaponInfo@@@std@@@std@@QAE@ABV01@@Z
_TEXT	SEGMENT
_this$ = -20						; size = 4
__$EHRec$ = -16						; size = 16
__Cat$557930 = 8					; size = 1
__Right$ = 8						; size = 4
??0?$vector@UWeaponInfo@@V?$allocator@UWeaponInfo@@@std@@@std@@QAE@ABV01@@Z PROC ; std::vector<WeaponInfo,std::allocator<WeaponInfo> >::vector<WeaponInfo,std::allocator<WeaponInfo> >, COMDAT
; _this$ = ecx

; 535  : 		{	// construct by copying _Right

  00000	6a 08		 push	 8
  00002	b8 00 00 00 00	 mov	 eax, __ehhandler$??0?$vector@UWeaponInfo@@V?$allocator@UWeaponInfo@@@std@@@std@@QAE@ABV01@@Z
  00007	e8 00 00 00 00	 call	 __EH_prolog3_catch
  0000c	8b f1		 mov	 esi, ecx
  0000e	89 75 ec	 mov	 DWORD PTR _this$[ebp], esi

; 536  : 		if (_Buy(_Right.size()))

  00011	8b 7d 08	 mov	 edi, DWORD PTR __Right$[ebp]
  00014	33 db		 xor	 ebx, ebx
  00016	89 1e		 mov	 DWORD PTR [esi], ebx
  00018	89 5e 04	 mov	 DWORD PTR [esi+4], ebx
  0001b	89 5e 08	 mov	 DWORD PTR [esi+8], ebx
  0001e	8b 47 04	 mov	 eax, DWORD PTR [edi+4]
  00021	2b 07		 sub	 eax, DWORD PTR [edi]
  00023	6a 28		 push	 40			; 00000028H
  00025	59		 pop	 ecx
  00026	99		 cdq
  00027	f7 f9		 idiv	 ecx
  00029	8b ce		 mov	 ecx, esi
  0002b	50		 push	 eax
  0002c	e8 00 00 00 00	 call	 ?_Buy@?$vector@UWeaponInfo@@V?$allocator@UWeaponInfo@@@std@@@std@@IAE_NI@Z ; std::vector<WeaponInfo,std::allocator<WeaponInfo> >::_Buy
  00031	84 c0		 test	 al, al
  00033	74 1f		 je	 SHORT $LN7@vector@2

; 537  : 			_TRY_BEGIN
; 538  : 			this->_Mylast = _Ucopy(_Right.begin(), _Right.end(),
; 539  : 				this->_Myfirst);

  00035	ff 75 08	 push	 DWORD PTR __Cat$557930[ebp]
  00038	8b 0e		 mov	 ecx, DWORD PTR [esi]
  0003a	8b 47 04	 mov	 eax, DWORD PTR [edi+4]
  0003d	8b 3f		 mov	 edi, DWORD PTR [edi]
  0003f	8d 56 0c	 lea	 edx, DWORD PTR [esi+12]
  00042	52		 push	 edx
  00043	51		 push	 ecx
  00044	50		 push	 eax
  00045	57		 push	 edi
  00046	89 5d fc	 mov	 DWORD PTR __$EHRec$[ebp+12], ebx
  00049	e8 00 00 00 00	 call	 ??$_Uninit_copy@V?$_Vector_const_iterator@V?$_Vector_val@UWeaponInfo@@V?$allocator@UWeaponInfo@@@std@@@std@@@std@@PAUWeaponInfo@@V?$allocator@UWeaponInfo@@@2@@std@@YAPAUWeaponInfo@@V?$_Vector_const_iterator@V?$_Vector_val@UWeaponInfo@@V?$allocator@UWeaponInfo@@@std@@@std@@@0@0PAU1@AAV?$allocator@UWeaponInfo@@@0@U_Nonscalar_ptr_iterator_tag@0@@Z ; std::_Uninit_copy<std::_Vector_const_iterator<std::_Vector_val<WeaponInfo,std::allocator<WeaponInfo> > >,WeaponInfo *,std::allocator<WeaponInfo> >
  0004e	83 c4 14	 add	 esp, 20			; 00000014H
  00051	89 46 04	 mov	 DWORD PTR [esi+4], eax
$LN7@vector@2:

; 543  : 			_CATCH_END
; 544  : 		}

  00054	8b c6		 mov	 eax, esi
  00056	e8 00 00 00 00	 call	 __EH_epilog3
  0005b	c2 04 00	 ret	 4
__catch$??0?$vector@UWeaponInfo@@V?$allocator@UWeaponInfo@@@std@@@std@@QAE@ABV01@@Z$0:

; 540  : 			_CATCH_ALL
; 541  : 			_Tidy();

  0005e	8b 4d ec	 mov	 ecx, DWORD PTR _this$[ebp]
  00061	e8 00 00 00 00	 call	 ?_Tidy@?$vector@UWeaponInfo@@V?$allocator@UWeaponInfo@@@std@@@std@@IAEXXZ ; std::vector<WeaponInfo,std::allocator<WeaponInfo> >::_Tidy

; 542  : 			_RERAISE;

  00066	33 db		 xor	 ebx, ebx
  00068	53		 push	 ebx
  00069	53		 push	 ebx
  0006a	e8 00 00 00 00	 call	 __CxxThrowException@8
$LN38@vector@2:
$LN37@vector@2:
  0006f	cc		 int	 3
_TEXT	ENDS
;	COMDAT text$x
text$x	SEGMENT
__ehhandler$??0?$vector@UWeaponInfo@@V?$allocator@UWeaponInfo@@@std@@@std@@QAE@ABV01@@Z:
  00000	8b 54 24 08	 mov	 edx, DWORD PTR [esp+8]
  00004	8d 42 0c	 lea	 eax, DWORD PTR [edx+12]
  00007	8b 4a e8	 mov	 ecx, DWORD PTR [edx-24]
  0000a	33 c8		 xor	 ecx, eax
  0000c	e8 00 00 00 00	 call	 @__security_check_cookie@4
  00011	b8 00 00 00 00	 mov	 eax, OFFSET __ehfuncinfo$??0?$vector@UWeaponInfo@@V?$allocator@UWeaponInfo@@@std@@@std@@QAE@ABV01@@Z
  00016	e9 00 00 00 00	 jmp	 ___CxxFrameHandler3
text$x	ENDS
??0?$vector@UWeaponInfo@@V?$allocator@UWeaponInfo@@@std@@@std@@QAE@ABV01@@Z ENDP ; std::vector<WeaponInfo,std::allocator<WeaponInfo> >::vector<WeaponInfo,std::allocator<WeaponInfo> >
PUBLIC	?_Reserve@?$vector@VioHashString@@V?$allocator@VioHashString@@@std@@@std@@IAEXI@Z ; std::vector<ioHashString,std::allocator<ioHashString> >::_Reserve
; Function compile flags: /Ogsp
;	COMDAT ?_Reserve@?$vector@VioHashString@@V?$allocator@VioHashString@@@std@@@std@@IAEXI@Z
_TEXT	SEGMENT
__Count$ = 8						; size = 4
?_Reserve@?$vector@VioHashString@@V?$allocator@VioHashString@@@std@@@std@@IAEXI@Z PROC ; std::vector<ioHashString,std::allocator<ioHashString> >::_Reserve, COMDAT
; _this$ = ecx

; 1290 : 		{	// ensure room for _Count new elements, grow exponentially

  00000	55		 push	 ebp
  00001	8b ec		 mov	 ebp, esp
  00003	56		 push	 esi
  00004	8b f1		 mov	 esi, ecx

; 1291 : 		size_type _Size = size();

  00006	8b 0e		 mov	 ecx, DWORD PTR [esi]
  00008	8b 46 04	 mov	 eax, DWORD PTR [esi+4]
  0000b	2b c1		 sub	 eax, ecx

; 1292 : 		if (max_size() - _Count < _Size)

  0000d	ba ff ff ff 0f	 mov	 edx, 268435455		; 0fffffffH
  00012	2b 55 08	 sub	 edx, DWORD PTR __Count$[ebp]
  00015	c1 f8 04	 sar	 eax, 4
  00018	3b d0		 cmp	 edx, eax
  0001a	73 0b		 jae	 SHORT $LN4@Reserve

; 1293 : 			_Xlen();

  0001c	68 00 00 00 00	 push	 OFFSET ??_C@_0BD@OLBABOEK@vector?$DMT?$DO?5too?5long?$AA@
  00021	ff 15 00 00 00
	00		 call	 DWORD PTR __imp_?_Xlength_error@std@@YAXPBD@Z
$LN21@Reserve:
$LN4@Reserve:

; 1294 : 		else if ((_Size += _Count) <= capacity())

  00027	8b 56 08	 mov	 edx, DWORD PTR [esi+8]
  0002a	03 45 08	 add	 eax, DWORD PTR __Count$[ebp]
  0002d	2b d1		 sub	 edx, ecx
  0002f	c1 fa 04	 sar	 edx, 4
  00032	3b c2		 cmp	 eax, edx
  00034	76 10		 jbe	 SHORT $LN1@Reserve

; 1295 : 			;
; 1296 : 		else
; 1297 : 			reserve(_Grow_to(_Size));

  00036	50		 push	 eax
  00037	8b ce		 mov	 ecx, esi
  00039	e8 00 00 00 00	 call	 ?_Grow_to@?$vector@VioHashString@@V?$allocator@VioHashString@@@std@@@std@@IBEII@Z ; std::vector<ioHashString,std::allocator<ioHashString> >::_Grow_to
  0003e	50		 push	 eax
  0003f	8b ce		 mov	 ecx, esi
  00041	e8 00 00 00 00	 call	 ?reserve@?$vector@VioHashString@@V?$allocator@VioHashString@@@std@@@std@@QAEXI@Z ; std::vector<ioHashString,std::allocator<ioHashString> >::reserve
$LN1@Reserve:
  00046	5e		 pop	 esi

; 1298 : 		}

  00047	5d		 pop	 ebp
  00048	c2 04 00	 ret	 4
$LN20@Reserve:
?_Reserve@?$vector@VioHashString@@V?$allocator@VioHashString@@@std@@@std@@IAEXI@Z ENDP ; std::vector<ioHashString,std::allocator<ioHashString> >::_Reserve
_TEXT	ENDS
PUBLIC	??0?$vector@VioHashString@@V?$allocator@VioHashString@@@std@@@std@@QAE@ABV01@@Z ; std::vector<ioHashString,std::allocator<ioHashString> >::vector<ioHashString,std::allocator<ioHashString> >
;	COMDAT xdata$x
; File c:\program files (x86)\microsoft visual studio 10.0\vc\include\xutility
xdata$x	SEGMENT
__catchsym$??0?$vector@VioHashString@@V?$allocator@VioHashString@@@std@@@std@@QAE@ABV01@@Z$2 DD 040H
	DD	00H
	DD	00H
	DD	FLAT:__catch$??0?$vector@VioHashString@@V?$allocator@VioHashString@@@std@@@std@@QAE@ABV01@@Z$0
__unwindtable$??0?$vector@VioHashString@@V?$allocator@VioHashString@@@std@@@std@@QAE@ABV01@@Z DD 0ffffffffH
	DD	00H
	DD	0ffffffffH
	DD	00H
__tryblocktable$??0?$vector@VioHashString@@V?$allocator@VioHashString@@@std@@@std@@QAE@ABV01@@Z DD 00H
	DD	00H
	DD	01H
	DD	01H
	DD	FLAT:__catchsym$??0?$vector@VioHashString@@V?$allocator@VioHashString@@@std@@@std@@QAE@ABV01@@Z$2
__ehfuncinfo$??0?$vector@VioHashString@@V?$allocator@VioHashString@@@std@@@std@@QAE@ABV01@@Z DD 019930522H
	DD	02H
	DD	FLAT:__unwindtable$??0?$vector@VioHashString@@V?$allocator@VioHashString@@@std@@@std@@QAE@ABV01@@Z
	DD	01H
	DD	FLAT:__tryblocktable$??0?$vector@VioHashString@@V?$allocator@VioHashString@@@std@@@std@@QAE@ABV01@@Z
	DD	2 DUP(00H)
	DD	00H
	DD	01H
; Function compile flags: /Ogsp
; File c:\program files (x86)\microsoft visual studio 10.0\vc\include\vector
xdata$x	ENDS
;	COMDAT ??0?$vector@VioHashString@@V?$allocator@VioHashString@@@std@@@std@@QAE@ABV01@@Z
_TEXT	SEGMENT
_this$ = -20						; size = 4
__$EHRec$ = -16						; size = 16
__Cat$558056 = 8					; size = 1
__Right$ = 8						; size = 4
??0?$vector@VioHashString@@V?$allocator@VioHashString@@@std@@@std@@QAE@ABV01@@Z PROC ; std::vector<ioHashString,std::allocator<ioHashString> >::vector<ioHashString,std::allocator<ioHashString> >, COMDAT
; _this$ = ecx

; 535  : 		{	// construct by copying _Right

  00000	6a 08		 push	 8
  00002	b8 00 00 00 00	 mov	 eax, __ehhandler$??0?$vector@VioHashString@@V?$allocator@VioHashString@@@std@@@std@@QAE@ABV01@@Z
  00007	e8 00 00 00 00	 call	 __EH_prolog3_catch
  0000c	8b f1		 mov	 esi, ecx
  0000e	89 75 ec	 mov	 DWORD PTR _this$[ebp], esi

; 536  : 		if (_Buy(_Right.size()))

  00011	8b 7d 08	 mov	 edi, DWORD PTR __Right$[ebp]
  00014	33 db		 xor	 ebx, ebx
  00016	89 1e		 mov	 DWORD PTR [esi], ebx
  00018	89 5e 04	 mov	 DWORD PTR [esi+4], ebx
  0001b	89 5e 08	 mov	 DWORD PTR [esi+8], ebx
  0001e	8b 47 04	 mov	 eax, DWORD PTR [edi+4]
  00021	2b 07		 sub	 eax, DWORD PTR [edi]
  00023	c1 f8 04	 sar	 eax, 4
  00026	50		 push	 eax
  00027	e8 00 00 00 00	 call	 ?_Buy@?$vector@VioHashString@@V?$allocator@VioHashString@@@std@@@std@@IAE_NI@Z ; std::vector<ioHashString,std::allocator<ioHashString> >::_Buy
  0002c	84 c0		 test	 al, al
  0002e	74 1f		 je	 SHORT $LN7@vector@3

; 537  : 			_TRY_BEGIN
; 538  : 			this->_Mylast = _Ucopy(_Right.begin(), _Right.end(),
; 539  : 				this->_Myfirst);

  00030	ff 75 08	 push	 DWORD PTR __Cat$558056[ebp]
  00033	8b 0e		 mov	 ecx, DWORD PTR [esi]
  00035	8b 47 04	 mov	 eax, DWORD PTR [edi+4]
  00038	8b 3f		 mov	 edi, DWORD PTR [edi]
  0003a	8d 56 0c	 lea	 edx, DWORD PTR [esi+12]
  0003d	52		 push	 edx
  0003e	51		 push	 ecx
  0003f	50		 push	 eax
  00040	57		 push	 edi
  00041	89 5d fc	 mov	 DWORD PTR __$EHRec$[ebp+12], ebx
  00044	e8 00 00 00 00	 call	 ??$_Uninit_copy@V?$_Vector_const_iterator@V?$_Vector_val@VioHashString@@V?$allocator@VioHashString@@@std@@@std@@@std@@PAVioHashString@@V?$allocator@VioHashString@@@2@@std@@YAPAVioHashString@@V?$_Vector_const_iterator@V?$_Vector_val@VioHashString@@V?$allocator@VioHashString@@@std@@@std@@@0@0PAV1@AAV?$allocator@VioHashString@@@0@U_Nonscalar_ptr_iterator_tag@0@@Z ; std::_Uninit_copy<std::_Vector_const_iterator<std::_Vector_val<ioHashString,std::allocator<ioHashString> > >,ioHashString *,std::allocator<ioHashString> >
  00049	83 c4 14	 add	 esp, 20			; 00000014H
  0004c	89 46 04	 mov	 DWORD PTR [esi+4], eax
$LN7@vector@3:

; 543  : 			_CATCH_END
; 544  : 		}

  0004f	8b c6		 mov	 eax, esi
  00051	e8 00 00 00 00	 call	 __EH_epilog3
  00056	c2 04 00	 ret	 4
__catch$??0?$vector@VioHashString@@V?$allocator@VioHashString@@@std@@@std@@QAE@ABV01@@Z$0:

; 540  : 			_CATCH_ALL
; 541  : 			_Tidy();

  00059	8b 4d ec	 mov	 ecx, DWORD PTR _this$[ebp]
  0005c	e8 00 00 00 00	 call	 ?_Tidy@?$vector@VioHashString@@V?$allocator@VioHashString@@@std@@@std@@IAEXXZ ; std::vector<ioHashString,std::allocator<ioHashString> >::_Tidy

; 542  : 			_RERAISE;

  00061	33 db		 xor	 ebx, ebx
  00063	53		 push	 ebx
  00064	53		 push	 ebx
  00065	e8 00 00 00 00	 call	 __CxxThrowException@8
$LN38@vector@3:
$LN37@vector@3:
  0006a	cc		 int	 3
_TEXT	ENDS
;	COMDAT text$x
text$x	SEGMENT
__ehhandler$??0?$vector@VioHashString@@V?$allocator@VioHashString@@@std@@@std@@QAE@ABV01@@Z:
  00000	8b 54 24 08	 mov	 edx, DWORD PTR [esp+8]
  00004	8d 42 0c	 lea	 eax, DWORD PTR [edx+12]
  00007	8b 4a e8	 mov	 ecx, DWORD PTR [edx-24]
  0000a	33 c8		 xor	 ecx, eax
  0000c	e8 00 00 00 00	 call	 @__security_check_cookie@4
  00011	b8 00 00 00 00	 mov	 eax, OFFSET __ehfuncinfo$??0?$vector@VioHashString@@V?$allocator@VioHashString@@@std@@@std@@QAE@ABV01@@Z
  00016	e9 00 00 00 00	 jmp	 ___CxxFrameHandler3
text$x	ENDS
??0?$vector@VioHashString@@V?$allocator@VioHashString@@@std@@@std@@QAE@ABV01@@Z ENDP ; std::vector<ioHashString,std::allocator<ioHashString> >::vector<ioHashString,std::allocator<ioHashString> >
PUBLIC	??1?$vector@VioHashString@@V?$allocator@VioHashString@@@std@@@std@@QAE@XZ ; std::vector<ioHashString,std::allocator<ioHashString> >::~vector<ioHashString,std::allocator<ioHashString> >
; Function compile flags: /Ogsp
;	COMDAT ??1?$vector@VioHashString@@V?$allocator@VioHashString@@@std@@@std@@QAE@XZ
_TEXT	SEGMENT
??1?$vector@VioHashString@@V?$allocator@VioHashString@@@std@@@std@@QAE@XZ PROC ; std::vector<ioHashString,std::allocator<ioHashString> >::~vector<ioHashString,std::allocator<ioHashString> >, COMDAT
; _this$ = ecx

; 705  : 		_Tidy();

  00000	e9 00 00 00 00	 jmp	 ?_Tidy@?$vector@VioHashString@@V?$allocator@VioHashString@@@std@@@std@@IAEXXZ ; std::vector<ioHashString,std::allocator<ioHashString> >::_Tidy
??1?$vector@VioHashString@@V?$allocator@VioHashString@@@std@@@std@@QAE@XZ ENDP ; std::vector<ioHashString,std::allocator<ioHashString> >::~vector<ioHashString,std::allocator<ioHashString> >
_TEXT	ENDS
PUBLIC	?clear@?$vector@VioHashString@@V?$allocator@VioHashString@@@std@@@std@@QAEXXZ ; std::vector<ioHashString,std::allocator<ioHashString> >::clear
; Function compile flags: /Ogsp
;	COMDAT ?clear@?$vector@VioHashString@@V?$allocator@VioHashString@@@std@@@std@@QAEXXZ
_TEXT	SEGMENT
$T558085 = -4						; size = 4
?clear@?$vector@VioHashString@@V?$allocator@VioHashString@@@std@@@std@@QAEXXZ PROC ; std::vector<ioHashString,std::allocator<ioHashString> >::clear, COMDAT
; _this$ = ecx

; 1217 : 		{	// erase all

  00000	55		 push	 ebp
  00001	8b ec		 mov	 ebp, esp
  00003	51		 push	 ecx

; 1218 : 		erase(begin(), end());

  00004	8b 41 04	 mov	 eax, DWORD PTR [ecx+4]
  00007	8b 11		 mov	 edx, DWORD PTR [ecx]
  00009	50		 push	 eax
  0000a	52		 push	 edx
  0000b	8d 45 fc	 lea	 eax, DWORD PTR $T558085[ebp]
  0000e	50		 push	 eax
  0000f	e8 00 00 00 00	 call	 ?erase@?$vector@VioHashString@@V?$allocator@VioHashString@@@std@@@std@@QAE?AV?$_Vector_iterator@V?$_Vector_val@VioHashString@@V?$allocator@VioHashString@@@std@@@std@@@2@V?$_Vector_const_iterator@V?$_Vector_val@VioHashString@@V?$allocator@VioHashString@@@std@@@std@@@2@0@Z ; std::vector<ioHashString,std::allocator<ioHashString> >::erase

; 1219 : 		}

  00014	c9		 leave
  00015	c3		 ret	 0
?clear@?$vector@VioHashString@@V?$allocator@VioHashString@@@std@@@std@@QAEXXZ ENDP ; std::vector<ioHashString,std::allocator<ioHashString> >::clear
_TEXT	ENDS
PUBLIC	??1?$vector@UWeaponInfo@@V?$allocator@UWeaponInfo@@@std@@@std@@QAE@XZ ; std::vector<WeaponInfo,std::allocator<WeaponInfo> >::~vector<WeaponInfo,std::allocator<WeaponInfo> >
; Function compile flags: /Ogsp
;	COMDAT ??1?$vector@UWeaponInfo@@V?$allocator@UWeaponInfo@@@std@@@std@@QAE@XZ
_TEXT	SEGMENT
??1?$vector@UWeaponInfo@@V?$allocator@UWeaponInfo@@@std@@@std@@QAE@XZ PROC ; std::vector<WeaponInfo,std::allocator<WeaponInfo> >::~vector<WeaponInfo,std::allocator<WeaponInfo> >, COMDAT
; _this$ = ecx

; 705  : 		_Tidy();

  00000	e9 00 00 00 00	 jmp	 ?_Tidy@?$vector@UWeaponInfo@@V?$allocator@UWeaponInfo@@@std@@@std@@IAEXXZ ; std::vector<WeaponInfo,std::allocator<WeaponInfo> >::_Tidy
??1?$vector@UWeaponInfo@@V?$allocator@UWeaponInfo@@@std@@@std@@QAE@XZ ENDP ; std::vector<WeaponInfo,std::allocator<WeaponInfo> >::~vector<WeaponInfo,std::allocator<WeaponInfo> >
_TEXT	ENDS
PUBLIC	??0AttackAttribute@@QAE@ABU0@@Z			; AttackAttribute::AttackAttribute
;	COMDAT xdata$x
xdata$x	SEGMENT
__unwindtable$??0AttackAttribute@@QAE@ABU0@@Z DD 0ffffffffH
	DD	FLAT:__unwindfunclet$??0AttackAttribute@@QAE@ABU0@@Z$0
	DD	00H
	DD	FLAT:__unwindfunclet$??0AttackAttribute@@QAE@ABU0@@Z$1
	DD	01H
	DD	FLAT:__unwindfunclet$??0AttackAttribute@@QAE@ABU0@@Z$2
__ehfuncinfo$??0AttackAttribute@@QAE@ABU0@@Z DD 019930522H
	DD	03H
	DD	FLAT:__unwindtable$??0AttackAttribute@@QAE@ABU0@@Z
	DD	2 DUP(00H)
	DD	2 DUP(00H)
	DD	00H
	DD	01H
; Function compile flags: /Ogsp
xdata$x	ENDS
;	COMDAT ??0AttackAttribute@@QAE@ABU0@@Z
_TEXT	SEGMENT
_this$ = -16						; size = 4
__$EHRec$ = -12						; size = 12
___that$ = 8						; size = 4
??0AttackAttribute@@QAE@ABU0@@Z PROC			; AttackAttribute::AttackAttribute, COMDAT
; _this$ = ecx
  00000	6a 04		 push	 4
  00002	b8 00 00 00 00	 mov	 eax, __ehhandler$??0AttackAttribute@@QAE@ABU0@@Z
  00007	e8 00 00 00 00	 call	 __EH_prolog3
  0000c	8b f1		 mov	 esi, ecx
  0000e	89 75 f0	 mov	 DWORD PTR _this$[ebp], esi
  00011	8b 7d 08	 mov	 edi, DWORD PTR ___that$[ebp]
  00014	8b 1d 00 00 00
	00		 mov	 ebx, DWORD PTR __imp_??0ioHashString@@QAE@ABV0@@Z
  0001a	57		 push	 edi
  0001b	ff d3		 call	 ebx
  0001d	d9 47 10	 fld	 DWORD PTR [edi+16]
  00020	83 65 fc 00	 and	 DWORD PTR __$EHRec$[ebp+8], 0
  00024	d9 5e 10	 fstp	 DWORD PTR [esi+16]
  00027	8d 47 14	 lea	 eax, DWORD PTR [edi+20]
  0002a	50		 push	 eax
  0002b	8d 4e 14	 lea	 ecx, DWORD PTR [esi+20]
  0002e	ff d3		 call	 ebx
  00030	d9 47 24	 fld	 DWORD PTR [edi+36]
  00033	8d 47 28	 lea	 eax, DWORD PTR [edi+40]
  00036	d9 5e 24	 fstp	 DWORD PTR [esi+36]
  00039	50		 push	 eax
  0003a	8d 4e 28	 lea	 ecx, DWORD PTR [esi+40]
  0003d	c6 45 fc 01	 mov	 BYTE PTR __$EHRec$[ebp+8], 1
  00041	e8 00 00 00 00	 call	 ??0?$vector@UWeaponInfo@@V?$allocator@UWeaponInfo@@@std@@@std@@QAE@ABV01@@Z ; std::vector<WeaponInfo,std::allocator<WeaponInfo> >::vector<WeaponInfo,std::allocator<WeaponInfo> >
  00046	8d 47 38	 lea	 eax, DWORD PTR [edi+56]
  00049	50		 push	 eax
  0004a	8d 4e 38	 lea	 ecx, DWORD PTR [esi+56]
  0004d	c6 45 fc 02	 mov	 BYTE PTR __$EHRec$[ebp+8], 2
  00051	e8 00 00 00 00	 call	 ??0?$vector@UForceInfo@@V?$allocator@UForceInfo@@@std@@@std@@QAE@ABV01@@Z ; std::vector<ForceInfo,std::allocator<ForceInfo> >::vector<ForceInfo,std::allocator<ForceInfo> >
  00056	8b 47 48	 mov	 eax, DWORD PTR [edi+72]
  00059	89 46 48	 mov	 DWORD PTR [esi+72], eax
  0005c	8b 47 4c	 mov	 eax, DWORD PTR [edi+76]
  0005f	89 46 4c	 mov	 DWORD PTR [esi+76], eax
  00062	8b c6		 mov	 eax, esi
  00064	e8 00 00 00 00	 call	 __EH_epilog3
  00069	c2 04 00	 ret	 4
_TEXT	ENDS
;	COMDAT text$x
text$x	SEGMENT
__unwindfunclet$??0AttackAttribute@@QAE@ABU0@@Z$0:
  00000	8b 4d f0	 mov	 ecx, DWORD PTR _this$[ebp]
  00003	ff 25 00 00 00
	00		 jmp	 DWORD PTR __imp_??1ioHashString@@QAE@XZ
__unwindfunclet$??0AttackAttribute@@QAE@ABU0@@Z$1:
  00009	8b 4d f0	 mov	 ecx, DWORD PTR _this$[ebp]
  0000c	83 c1 14	 add	 ecx, 20			; 00000014H
  0000f	ff 25 00 00 00
	00		 jmp	 DWORD PTR __imp_??1ioHashString@@QAE@XZ
__unwindfunclet$??0AttackAttribute@@QAE@ABU0@@Z$2:
  00015	8b 4d f0	 mov	 ecx, DWORD PTR _this$[ebp]
  00018	83 c1 28	 add	 ecx, 40			; 00000028H
  0001b	e9 00 00 00 00	 jmp	 ??1?$vector@UWeaponInfo@@V?$allocator@UWeaponInfo@@@std@@@std@@QAE@XZ ; std::vector<WeaponInfo,std::allocator<WeaponInfo> >::~vector<WeaponInfo,std::allocator<WeaponInfo> >
__ehhandler$??0AttackAttribute@@QAE@ABU0@@Z:
  00020	8b 54 24 08	 mov	 edx, DWORD PTR [esp+8]
  00024	8d 42 0c	 lea	 eax, DWORD PTR [edx+12]
  00027	8b 4a ec	 mov	 ecx, DWORD PTR [edx-20]
  0002a	33 c8		 xor	 ecx, eax
  0002c	e8 00 00 00 00	 call	 @__security_check_cookie@4
  00031	b8 00 00 00 00	 mov	 eax, OFFSET __ehfuncinfo$??0AttackAttribute@@QAE@ABU0@@Z
  00036	e9 00 00 00 00	 jmp	 ___CxxFrameHandler3
text$x	ENDS
??0AttackAttribute@@QAE@ABU0@@Z ENDP			; AttackAttribute::AttackAttribute
PUBLIC	?push_back@?$vector@VioHashString@@V?$allocator@VioHashString@@@std@@@std@@QAEX$$QAVioHashString@@@Z ; std::vector<ioHashString,std::allocator<ioHashString> >::push_back
; Function compile flags: /Ogsp
;	COMDAT ?push_back@?$vector@VioHashString@@V?$allocator@VioHashString@@@std@@@std@@QAEX$$QAVioHashString@@@Z
_TEXT	SEGMENT
__Val$ = 8						; size = 4
?push_back@?$vector@VioHashString@@V?$allocator@VioHashString@@@std@@@std@@QAEX$$QAVioHashString@@@Z PROC ; std::vector<ioHashString,std::allocator<ioHashString> >::push_back, COMDAT
; _this$ = ecx

; 631  : 		{	// insert element at end

  00000	55		 push	 ebp
  00001	8b ec		 mov	 ebp, esp
  00003	56		 push	 esi
  00004	8b f1		 mov	 esi, ecx

; 632  : 		if (_Inside(_STD addressof(_Val)))

  00006	8b 46 04	 mov	 eax, DWORD PTR [esi+4]
  00009	57		 push	 edi
  0000a	8b 7d 08	 mov	 edi, DWORD PTR __Val$[ebp]
  0000d	3b f8		 cmp	 edi, eax
  0000f	73 1d		 jae	 SHORT $LN4@push_back
  00011	8b 0e		 mov	 ecx, DWORD PTR [esi]
  00013	3b cf		 cmp	 ecx, edi
  00015	77 17		 ja	 SHORT $LN4@push_back

; 633  : 			{	// push back an element
; 634  : 			size_type _Idx = _STD addressof(_Val) - this->_Myfirst;

  00017	2b f9		 sub	 edi, ecx

; 635  : 			if (this->_Mylast == this->_Myend)

  00019	3b 46 08	 cmp	 eax, DWORD PTR [esi+8]
  0001c	75 09		 jne	 SHORT $LN3@push_back

; 636  : 				_Reserve(1);

  0001e	6a 01		 push	 1
  00020	8b ce		 mov	 ecx, esi
  00022	e8 00 00 00 00	 call	 ?_Reserve@?$vector@VioHashString@@V?$allocator@VioHashString@@@std@@@std@@IAEXI@Z ; std::vector<ioHashString,std::allocator<ioHashString> >::_Reserve
$LN3@push_back:

; 637  : 			_Orphan_range(this->_Mylast, this->_Mylast);
; 638  : 			_Cons_val(this->_Alval,
; 639  : 				this->_Mylast,
; 640  : 				_STD forward<_Ty>(this->_Myfirst[_Idx]));

  00027	83 e7 f0	 and	 edi, -16		; fffffff0H
  0002a	03 3e		 add	 edi, DWORD PTR [esi]

; 641  : 			++this->_Mylast;
; 642  : 			}
; 643  : 		else

  0002c	eb 0e		 jmp	 SHORT $LN1@push_back
$LN4@push_back:

; 644  : 			{	// push back a non-element
; 645  : 			if (this->_Mylast == this->_Myend)

  0002e	3b 46 08	 cmp	 eax, DWORD PTR [esi+8]
  00031	75 09		 jne	 SHORT $LN1@push_back

; 646  : 				_Reserve(1);

  00033	6a 01		 push	 1
  00035	8b ce		 mov	 ecx, esi
  00037	e8 00 00 00 00	 call	 ?_Reserve@?$vector@VioHashString@@V?$allocator@VioHashString@@@std@@@std@@IAEXI@Z ; std::vector<ioHashString,std::allocator<ioHashString> >::_Reserve
$LN1@push_back:

; 647  : 			_Orphan_range(this->_Mylast, this->_Mylast);
; 648  : 			_Cons_val(this->_Alval,
; 649  : 				this->_Mylast,
; 650  : 				_STD forward<_Ty>(_Val));

  0003c	57		 push	 edi
  0003d	ff 76 04	 push	 DWORD PTR [esi+4]
  00040	8d 4e 0c	 lea	 ecx, DWORD PTR [esi+12]
  00043	e8 00 00 00 00	 call	 ?construct@?$allocator@VioHashString@@@std@@QAEXPAVioHashString@@$$QAV3@@Z ; std::allocator<ioHashString>::construct

; 651  : 			++this->_Mylast;

  00048	83 46 04 10	 add	 DWORD PTR [esi+4], 16	; 00000010H
  0004c	5f		 pop	 edi
  0004d	5e		 pop	 esi

; 652  : 			}
; 653  : 		}

  0004e	5d		 pop	 ebp
  0004f	c2 04 00	 ret	 4
?push_back@?$vector@VioHashString@@V?$allocator@VioHashString@@@std@@@std@@QAEX$$QAVioHashString@@@Z ENDP ; std::vector<ioHashString,std::allocator<ioHashString> >::push_back
_TEXT	ENDS
PUBLIC	?push_back@?$vector@VioHashString@@V?$allocator@VioHashString@@@std@@@std@@QAEXABVioHashString@@@Z ; std::vector<ioHashString,std::allocator<ioHashString> >::push_back
; Function compile flags: /Ogsp
;	COMDAT ?push_back@?$vector@VioHashString@@V?$allocator@VioHashString@@@std@@@std@@QAEXABVioHashString@@@Z
_TEXT	SEGMENT
__Val$ = 8						; size = 4
?push_back@?$vector@VioHashString@@V?$allocator@VioHashString@@@std@@@std@@QAEXABVioHashString@@@Z PROC ; std::vector<ioHashString,std::allocator<ioHashString> >::push_back, COMDAT
; _this$ = ecx

; 976  : 		{	// insert element at end

  00000	55		 push	 ebp
  00001	8b ec		 mov	 ebp, esp
  00003	56		 push	 esi
  00004	8b f1		 mov	 esi, ecx

; 977  : 		if (_Inside(_STD addressof(_Val)))

  00006	8b 46 04	 mov	 eax, DWORD PTR [esi+4]
  00009	57		 push	 edi
  0000a	8b 7d 08	 mov	 edi, DWORD PTR __Val$[ebp]
  0000d	3b f8		 cmp	 edi, eax
  0000f	73 29		 jae	 SHORT $LN4@push_back@2
  00011	8b 0e		 mov	 ecx, DWORD PTR [esi]
  00013	3b cf		 cmp	 ecx, edi
  00015	77 23		 ja	 SHORT $LN4@push_back@2

; 978  : 			{	// push back an element
; 979  : 			size_type _Idx = _STD addressof(_Val) - this->_Myfirst;

  00017	2b f9		 sub	 edi, ecx

; 980  : 			if (this->_Mylast == this->_Myend)

  00019	3b 46 08	 cmp	 eax, DWORD PTR [esi+8]
  0001c	75 09		 jne	 SHORT $LN3@push_back@2

; 981  : 				_Reserve(1);

  0001e	6a 01		 push	 1
  00020	8b ce		 mov	 ecx, esi
  00022	e8 00 00 00 00	 call	 ?_Reserve@?$vector@VioHashString@@V?$allocator@VioHashString@@@std@@@std@@IAEXI@Z ; std::vector<ioHashString,std::allocator<ioHashString> >::_Reserve
$LN3@push_back@2:

; 982  : 			_Orphan_range(this->_Mylast, this->_Mylast);
; 983  : 			_Cons_val(this->_Alval,
; 984  : 				this->_Mylast,
; 985  : 				this->_Myfirst[_Idx]);

  00027	83 e7 f0	 and	 edi, -16		; fffffff0H
  0002a	03 3e		 add	 edi, DWORD PTR [esi]
  0002c	8d 4e 0c	 lea	 ecx, DWORD PTR [esi+12]
  0002f	57		 push	 edi
  00030	ff 76 04	 push	 DWORD PTR [esi+4]
  00033	e8 00 00 00 00	 call	 ??$construct@AAVioHashString@@@?$allocator@VioHashString@@@std@@QAEXPAVioHashString@@AAV2@@Z ; std::allocator<ioHashString>::construct<ioHashString &>

; 986  : 			++this->_Mylast;
; 987  : 			}
; 988  : 		else

  00038	eb 19		 jmp	 SHORT $LN30@push_back@2
$LN4@push_back@2:

; 989  : 			{	// push back a non-element
; 990  : 			if (this->_Mylast == this->_Myend)

  0003a	3b 46 08	 cmp	 eax, DWORD PTR [esi+8]
  0003d	75 09		 jne	 SHORT $LN1@push_back@2

; 991  : 				_Reserve(1);

  0003f	6a 01		 push	 1
  00041	8b ce		 mov	 ecx, esi
  00043	e8 00 00 00 00	 call	 ?_Reserve@?$vector@VioHashString@@V?$allocator@VioHashString@@@std@@@std@@IAEXI@Z ; std::vector<ioHashString,std::allocator<ioHashString> >::_Reserve
$LN1@push_back@2:

; 992  : 			_Orphan_range(this->_Mylast, this->_Mylast);
; 993  : 			_Cons_val(this->_Alval,
; 994  : 				this->_Mylast,
; 995  : 				_Val);

  00048	57		 push	 edi
  00049	ff 76 04	 push	 DWORD PTR [esi+4]
  0004c	e8 00 00 00 00	 call	 ??$_Construct@VioHashString@@ABV1@@std@@YAXPAVioHashString@@ABV1@@Z ; std::_Construct<ioHashString,ioHashString const &>
  00051	59		 pop	 ecx
  00052	59		 pop	 ecx
$LN30@push_back@2:

; 996  : 			++this->_Mylast;

  00053	83 46 04 10	 add	 DWORD PTR [esi+4], 16	; 00000010H
  00057	5f		 pop	 edi
  00058	5e		 pop	 esi

; 997  : 			}
; 998  : 		}

  00059	5d		 pop	 ebp
  0005a	c2 04 00	 ret	 4
?push_back@?$vector@VioHashString@@V?$allocator@VioHashString@@@std@@@std@@QAEXABVioHashString@@@Z ENDP ; std::vector<ioHashString,std::allocator<ioHashString> >::push_back
_TEXT	ENDS
PUBLIC	??0AttackAttribute@@QAE@XZ			; AttackAttribute::AttackAttribute
EXTRN	__imp_??0ioHashString@@QAE@XZ:PROC
;	COMDAT xdata$x
; File c:\program files (x86)\microsoft visual studio 10.0\vc\include\xmemory
xdata$x	SEGMENT
__unwindtable$??0AttackAttribute@@QAE@XZ DD 0ffffffffH
	DD	FLAT:__unwindfunclet$??0AttackAttribute@@QAE@XZ$0
	DD	00H
	DD	FLAT:__unwindfunclet$??0AttackAttribute@@QAE@XZ$1
	DD	01H
	DD	FLAT:__unwindfunclet$??0AttackAttribute@@QAE@XZ$2
	DD	02H
	DD	FLAT:__unwindfunclet$??0AttackAttribute@@QAE@XZ$3
__ehfuncinfo$??0AttackAttribute@@QAE@XZ DD 019930522H
	DD	04H
	DD	FLAT:__unwindtable$??0AttackAttribute@@QAE@XZ
	DD	2 DUP(00H)
	DD	2 DUP(00H)
	DD	00H
	DD	01H
; Function compile flags: /Ogsp
; File d:\lost saga for developer\youtube\tutorial\source\src\lsclient\ioattackattribute.h
xdata$x	ENDS
;	COMDAT ??0AttackAttribute@@QAE@XZ
_TEXT	SEGMENT
_this$ = -16						; size = 4
__$EHRec$ = -12						; size = 12
??0AttackAttribute@@QAE@XZ PROC				; AttackAttribute::AttackAttribute, COMDAT
; _this$ = ecx

; 107  : 	AttackAttribute()

  00000	6a 04		 push	 4
  00002	b8 00 00 00 00	 mov	 eax, __ehhandler$??0AttackAttribute@@QAE@XZ
  00007	e8 00 00 00 00	 call	 __EH_prolog3
  0000c	8b f1		 mov	 esi, ecx
  0000e	89 75 f0	 mov	 DWORD PTR _this$[ebp], esi
  00011	8b 3d 00 00 00
	00		 mov	 edi, DWORD PTR __imp_??0ioHashString@@QAE@XZ
  00017	ff d7		 call	 edi
  00019	33 db		 xor	 ebx, ebx
  0001b	8d 4e 14	 lea	 ecx, DWORD PTR [esi+20]
  0001e	89 5d fc	 mov	 DWORD PTR __$EHRec$[ebp+8], ebx
  00021	ff d7		 call	 edi
  00023	89 5e 28	 mov	 DWORD PTR [esi+40], ebx
  00026	89 5e 2c	 mov	 DWORD PTR [esi+44], ebx
  00029	89 5e 30	 mov	 DWORD PTR [esi+48], ebx
  0002c	89 5e 38	 mov	 DWORD PTR [esi+56], ebx
  0002f	89 5e 3c	 mov	 DWORD PTR [esi+60], ebx
  00032	89 5e 40	 mov	 DWORD PTR [esi+64], ebx

; 108  : 	{
; 109  : 		Init();

  00035	8b ce		 mov	 ecx, esi
  00037	c6 45 fc 03	 mov	 BYTE PTR __$EHRec$[ebp+8], 3
  0003b	e8 00 00 00 00	 call	 ?Init@AttackAttribute@@QAEXXZ ; AttackAttribute::Init

; 110  : 	}

  00040	8b c6		 mov	 eax, esi
  00042	e8 00 00 00 00	 call	 __EH_epilog3
  00047	c3		 ret	 0
_TEXT	ENDS
;	COMDAT text$x
text$x	SEGMENT
__unwindfunclet$??0AttackAttribute@@QAE@XZ$0:
  00000	8b 4d f0	 mov	 ecx, DWORD PTR _this$[ebp]
  00003	ff 25 00 00 00
	00		 jmp	 DWORD PTR __imp_??1ioHashString@@QAE@XZ
__unwindfunclet$??0AttackAttribute@@QAE@XZ$1:
  00009	8b 4d f0	 mov	 ecx, DWORD PTR _this$[ebp]
  0000c	83 c1 14	 add	 ecx, 20			; 00000014H
  0000f	ff 25 00 00 00
	00		 jmp	 DWORD PTR __imp_??1ioHashString@@QAE@XZ
__unwindfunclet$??0AttackAttribute@@QAE@XZ$2:
  00015	8b 4d f0	 mov	 ecx, DWORD PTR _this$[ebp]
  00018	83 c1 28	 add	 ecx, 40			; 00000028H
  0001b	e9 00 00 00 00	 jmp	 ??1?$vector@UWeaponInfo@@V?$allocator@UWeaponInfo@@@std@@@std@@QAE@XZ ; std::vector<WeaponInfo,std::allocator<WeaponInfo> >::~vector<WeaponInfo,std::allocator<WeaponInfo> >
__unwindfunclet$??0AttackAttribute@@QAE@XZ$3:
  00020	8b 4d f0	 mov	 ecx, DWORD PTR _this$[ebp]
  00023	83 c1 38	 add	 ecx, 56			; 00000038H
  00026	e9 00 00 00 00	 jmp	 ??1?$vector@UForceInfo@@V?$allocator@UForceInfo@@@std@@@std@@QAE@XZ ; std::vector<ForceInfo,std::allocator<ForceInfo> >::~vector<ForceInfo,std::allocator<ForceInfo> >
__ehhandler$??0AttackAttribute@@QAE@XZ:
  0002b	8b 54 24 08	 mov	 edx, DWORD PTR [esp+8]
  0002f	8d 42 0c	 lea	 eax, DWORD PTR [edx+12]
  00032	8b 4a ec	 mov	 ecx, DWORD PTR [edx-20]
  00035	33 c8		 xor	 ecx, eax
  00037	e8 00 00 00 00	 call	 @__security_check_cookie@4
  0003c	b8 00 00 00 00	 mov	 eax, OFFSET __ehfuncinfo$??0AttackAttribute@@QAE@XZ
  00041	e9 00 00 00 00	 jmp	 ___CxxFrameHandler3
text$x	ENDS
??0AttackAttribute@@QAE@XZ ENDP				; AttackAttribute::AttackAttribute
PUBLIC	??1AttackAttribute@@QAE@XZ			; AttackAttribute::~AttackAttribute
;	COMDAT xdata$x
xdata$x	SEGMENT
__unwindtable$??1AttackAttribute@@QAE@XZ DD 0ffffffffH
	DD	FLAT:__unwindfunclet$??1AttackAttribute@@QAE@XZ$0
	DD	00H
	DD	FLAT:__unwindfunclet$??1AttackAttribute@@QAE@XZ$1
	DD	01H
	DD	FLAT:__unwindfunclet$??1AttackAttribute@@QAE@XZ$2
__ehfuncinfo$??1AttackAttribute@@QAE@XZ DD 019930522H
	DD	03H
	DD	FLAT:__unwindtable$??1AttackAttribute@@QAE@XZ
	DD	2 DUP(00H)
	DD	2 DUP(00H)
	DD	00H
	DD	01H
; Function compile flags: /Ogsp
xdata$x	ENDS
;	COMDAT ??1AttackAttribute@@QAE@XZ
_TEXT	SEGMENT
_this$ = -16						; size = 4
__$EHRec$ = -12						; size = 12
??1AttackAttribute@@QAE@XZ PROC				; AttackAttribute::~AttackAttribute, COMDAT
; _this$ = ecx
  00000	6a 04		 push	 4
  00002	b8 00 00 00 00	 mov	 eax, __ehhandler$??1AttackAttribute@@QAE@XZ
  00007	e8 00 00 00 00	 call	 __EH_prolog3
  0000c	8b f1		 mov	 esi, ecx
  0000e	89 75 f0	 mov	 DWORD PTR _this$[ebp], esi
  00011	8d 4e 38	 lea	 ecx, DWORD PTR [esi+56]
  00014	c7 45 fc 02 00
	00 00		 mov	 DWORD PTR __$EHRec$[ebp+8], 2
  0001b	e8 00 00 00 00	 call	 ?_Tidy@?$vector@UForceInfo@@V?$allocator@UForceInfo@@@std@@@std@@IAEXXZ ; std::vector<ForceInfo,std::allocator<ForceInfo> >::_Tidy
  00020	8d 4e 28	 lea	 ecx, DWORD PTR [esi+40]
  00023	c6 45 fc 01	 mov	 BYTE PTR __$EHRec$[ebp+8], 1
  00027	e8 00 00 00 00	 call	 ?_Tidy@?$vector@UWeaponInfo@@V?$allocator@UWeaponInfo@@@std@@@std@@IAEXXZ ; std::vector<WeaponInfo,std::allocator<WeaponInfo> >::_Tidy
  0002c	8b 3d 00 00 00
	00		 mov	 edi, DWORD PTR __imp_??1ioHashString@@QAE@XZ
  00032	8d 4e 14	 lea	 ecx, DWORD PTR [esi+20]
  00035	c6 45 fc 00	 mov	 BYTE PTR __$EHRec$[ebp+8], 0
  00039	ff d7		 call	 edi
  0003b	83 4d fc ff	 or	 DWORD PTR __$EHRec$[ebp+8], -1
  0003f	8b ce		 mov	 ecx, esi
  00041	ff d7		 call	 edi
  00043	e8 00 00 00 00	 call	 __EH_epilog3
  00048	c3		 ret	 0
_TEXT	ENDS
;	COMDAT text$x
text$x	SEGMENT
__unwindfunclet$??1AttackAttribute@@QAE@XZ$0:
  00000	8b 4d f0	 mov	 ecx, DWORD PTR _this$[ebp]
  00003	ff 25 00 00 00
	00		 jmp	 DWORD PTR __imp_??1ioHashString@@QAE@XZ
__unwindfunclet$??1AttackAttribute@@QAE@XZ$1:
  00009	8b 4d f0	 mov	 ecx, DWORD PTR _this$[ebp]
  0000c	83 c1 14	 add	 ecx, 20			; 00000014H
  0000f	ff 25 00 00 00
	00		 jmp	 DWORD PTR __imp_??1ioHashString@@QAE@XZ
__unwindfunclet$??1AttackAttribute@@QAE@XZ$2:
  00015	8b 4d f0	 mov	 ecx, DWORD PTR _this$[ebp]
  00018	83 c1 28	 add	 ecx, 40			; 00000028H
  0001b	e9 00 00 00 00	 jmp	 ??1?$vector@UWeaponInfo@@V?$allocator@UWeaponInfo@@@std@@@std@@QAE@XZ ; std::vector<WeaponInfo,std::allocator<WeaponInfo> >::~vector<WeaponInfo,std::allocator<WeaponInfo> >
__ehhandler$??1AttackAttribute@@QAE@XZ:
  00020	8b 54 24 08	 mov	 edx, DWORD PTR [esp+8]
  00024	8d 42 0c	 lea	 eax, DWORD PTR [edx+12]
  00027	8b 4a ec	 mov	 ecx, DWORD PTR [edx-20]
  0002a	33 c8		 xor	 ecx, eax
  0002c	e8 00 00 00 00	 call	 @__security_check_cookie@4
  00031	b8 00 00 00 00	 mov	 eax, OFFSET __ehfuncinfo$??1AttackAttribute@@QAE@XZ
  00036	e9 00 00 00 00	 jmp	 ___CxxFrameHandler3
text$x	ENDS
??1AttackAttribute@@QAE@XZ ENDP				; AttackAttribute::~AttackAttribute
PUBLIC	??0tagTrinityInfo@@QAE@XZ			; tagTrinityInfo::tagTrinityInfo
EXTRN	??_M@YGXPAXIHP6EX0@Z@Z:PROC			; `eh vector destructor iterator'
EXTRN	??_L@YGXPAXIHP6EX0@Z1@Z:PROC			; `eh vector constructor iterator'
;	COMDAT xdata$x
; File d:\lost saga for developer\youtube\tutorial\source\src\lsclient\playentityhelpstruct.h
xdata$x	SEGMENT
__ehfuncinfo$??0tagTrinityInfo@@QAE@XZ DD 019930522H
	DD	0bH
	DD	FLAT:__unwindtable$??0tagTrinityInfo@@QAE@XZ
	DD	2 DUP(00H)
	DD	2 DUP(00H)
	DD	00H
	DD	01H
__unwindtable$??0tagTrinityInfo@@QAE@XZ DD 0ffffffffH
	DD	FLAT:__unwindfunclet$??0tagTrinityInfo@@QAE@XZ$0
	DD	00H
	DD	FLAT:__unwindfunclet$??0tagTrinityInfo@@QAE@XZ$1
	DD	01H
	DD	FLAT:__unwindfunclet$??0tagTrinityInfo@@QAE@XZ$2
	DD	02H
	DD	FLAT:__unwindfunclet$??0tagTrinityInfo@@QAE@XZ$3
	DD	03H
	DD	FLAT:__unwindfunclet$??0tagTrinityInfo@@QAE@XZ$4
	DD	04H
	DD	FLAT:__unwindfunclet$??0tagTrinityInfo@@QAE@XZ$5
	DD	05H
	DD	FLAT:__unwindfunclet$??0tagTrinityInfo@@QAE@XZ$6
	DD	06H
	DD	FLAT:__unwindfunclet$??0tagTrinityInfo@@QAE@XZ$7
	DD	07H
	DD	FLAT:__unwindfunclet$??0tagTrinityInfo@@QAE@XZ$8
	DD	08H
	DD	FLAT:__unwindfunclet$??0tagTrinityInfo@@QAE@XZ$9
	DD	09H
	DD	FLAT:__unwindfunclet$??0tagTrinityInfo@@QAE@XZ$10
; Function compile flags: /Ogsp
xdata$x	ENDS
;	COMDAT ??0tagTrinityInfo@@QAE@XZ
_TEXT	SEGMENT
_this$ = -16						; size = 4
__$EHRec$ = -12						; size = 12
??0tagTrinityInfo@@QAE@XZ PROC				; tagTrinityInfo::tagTrinityInfo, COMDAT
; _this$ = ecx

; 2769 : 	tagTrinityInfo()

  00000	6a 04		 push	 4
  00002	b8 00 00 00 00	 mov	 eax, __ehhandler$??0tagTrinityInfo@@QAE@XZ
  00007	e8 00 00 00 00	 call	 __EH_prolog3
  0000c	8b f1		 mov	 esi, ecx
  0000e	89 75 f0	 mov	 DWORD PTR _this$[ebp], esi
  00011	bb 00 00 00 00	 mov	 ebx, OFFSET ??1AttackAttribute@@QAE@XZ
  00016	53		 push	 ebx
  00017	bf 00 00 00 00	 mov	 edi, OFFSET ??0AttackAttribute@@QAE@XZ ; AttackAttribute::AttackAttribute
  0001c	57		 push	 edi
  0001d	6a 06		 push	 6
  0001f	6a 50		 push	 80			; 00000050H
  00021	56		 push	 esi
  00022	e8 00 00 00 00	 call	 ??_L@YGXPAXIHP6EX0@Z1@Z
  00027	83 65 fc 00	 and	 DWORD PTR __$EHRec$[ebp+8], 0
  0002b	53		 push	 ebx
  0002c	57		 push	 edi
  0002d	6a 06		 push	 6
  0002f	6a 50		 push	 80			; 00000050H
  00031	8d 86 e0 01 00
	00		 lea	 eax, DWORD PTR [esi+480]
  00037	50		 push	 eax
  00038	e8 00 00 00 00	 call	 ??_L@YGXPAXIHP6EX0@Z1@Z
  0003d	bb 00 00 00 00	 mov	 ebx, OFFSET ??1?$vector@VioHashString@@V?$allocator@VioHashString@@@std@@@std@@QAE@XZ ; std::vector<ioHashString,std::allocator<ioHashString> >::~vector<ioHashString,std::allocator<ioHashString> >
  00042	53		 push	 ebx
  00043	bf 00 00 00 00	 mov	 edi, OFFSET ??0?$vector@VioHashString@@V?$allocator@VioHashString@@@std@@@std@@QAE@XZ ; std::vector<ioHashString,std::allocator<ioHashString> >::vector<ioHashString,std::allocator<ioHashString> >
  00048	57		 push	 edi
  00049	6a 06		 push	 6
  0004b	6a 10		 push	 16			; 00000010H
  0004d	8d 86 c0 03 00
	00		 lea	 eax, DWORD PTR [esi+960]
  00053	50		 push	 eax
  00054	c6 45 fc 01	 mov	 BYTE PTR __$EHRec$[ebp+8], 1
  00058	e8 00 00 00 00	 call	 ??_L@YGXPAXIHP6EX0@Z1@Z
  0005d	53		 push	 ebx
  0005e	57		 push	 edi
  0005f	6a 06		 push	 6
  00061	6a 10		 push	 16			; 00000010H
  00063	8d 86 20 04 00
	00		 lea	 eax, DWORD PTR [esi+1056]
  00069	50		 push	 eax
  0006a	c6 45 fc 02	 mov	 BYTE PTR __$EHRec$[ebp+8], 2
  0006e	e8 00 00 00 00	 call	 ??_L@YGXPAXIHP6EX0@Z1@Z
  00073	53		 push	 ebx
  00074	57		 push	 edi
  00075	6a 06		 push	 6
  00077	6a 10		 push	 16			; 00000010H
  00079	8d 86 80 04 00
	00		 lea	 eax, DWORD PTR [esi+1152]
  0007f	50		 push	 eax
  00080	c6 45 fc 03	 mov	 BYTE PTR __$EHRec$[ebp+8], 3
  00084	e8 00 00 00 00	 call	 ??_L@YGXPAXIHP6EX0@Z1@Z
  00089	53		 push	 ebx
  0008a	57		 push	 edi
  0008b	6a 06		 push	 6
  0008d	6a 10		 push	 16			; 00000010H
  0008f	8d 86 e0 04 00
	00		 lea	 eax, DWORD PTR [esi+1248]
  00095	50		 push	 eax
  00096	c6 45 fc 04	 mov	 BYTE PTR __$EHRec$[ebp+8], 4
  0009a	e8 00 00 00 00	 call	 ??_L@YGXPAXIHP6EX0@Z1@Z
  0009f	8b 1d 00 00 00
	00		 mov	 ebx, DWORD PTR __imp_??1ioHashString@@QAE@XZ
  000a5	8b 3d 00 00 00
	00		 mov	 edi, DWORD PTR __imp_??0ioHashString@@QAE@XZ
  000ab	53		 push	 ebx
  000ac	57		 push	 edi
  000ad	6a 06		 push	 6
  000af	6a 10		 push	 16			; 00000010H
  000b1	8d 86 40 05 00
	00		 lea	 eax, DWORD PTR [esi+1344]
  000b7	50		 push	 eax
  000b8	c6 45 fc 05	 mov	 BYTE PTR __$EHRec$[ebp+8], 5
  000bc	e8 00 00 00 00	 call	 ??_L@YGXPAXIHP6EX0@Z1@Z
  000c1	53		 push	 ebx
  000c2	57		 push	 edi
  000c3	6a 06		 push	 6
  000c5	6a 10		 push	 16			; 00000010H
  000c7	8d 86 a0 05 00
	00		 lea	 eax, DWORD PTR [esi+1440]
  000cd	50		 push	 eax
  000ce	c6 45 fc 06	 mov	 BYTE PTR __$EHRec$[ebp+8], 6
  000d2	e8 00 00 00 00	 call	 ??_L@YGXPAXIHP6EX0@Z1@Z
  000d7	53		 push	 ebx
  000d8	57		 push	 edi
  000d9	6a 06		 push	 6
  000db	c6 45 fc 07	 mov	 BYTE PTR __$EHRec$[ebp+8], 7
  000df	6a 10		 push	 16			; 00000010H
  000e1	8d 86 00 06 00
	00		 lea	 eax, DWORD PTR [esi+1536]
  000e7	50		 push	 eax
  000e8	e8 00 00 00 00	 call	 ??_L@YGXPAXIHP6EX0@Z1@Z
  000ed	53		 push	 ebx
  000ee	57		 push	 edi
  000ef	6a 06		 push	 6
  000f1	6a 10		 push	 16			; 00000010H
  000f3	8d 86 60 06 00
	00		 lea	 eax, DWORD PTR [esi+1632]
  000f9	50		 push	 eax
  000fa	c6 45 fc 08	 mov	 BYTE PTR __$EHRec$[ebp+8], 8
  000fe	e8 00 00 00 00	 call	 ??_L@YGXPAXIHP6EX0@Z1@Z
  00103	8d 8e c8 06 00
	00		 lea	 ecx, DWORD PTR [esi+1736]
  00109	c6 45 fc 09	 mov	 BYTE PTR __$EHRec$[ebp+8], 9
  0010d	ff d7		 call	 edi

; 2770 : 	{
; 2771 : 		Init();

  0010f	8b ce		 mov	 ecx, esi
  00111	c6 45 fc 0a	 mov	 BYTE PTR __$EHRec$[ebp+8], 10 ; 0000000aH
  00115	e8 00 00 00 00	 call	 ?Init@tagTrinityInfo@@QAEXXZ ; tagTrinityInfo::Init

; 2772 : 	}

  0011a	8b c6		 mov	 eax, esi
  0011c	e8 00 00 00 00	 call	 __EH_epilog3
  00121	c3		 ret	 0
_TEXT	ENDS
;	COMDAT text$x
text$x	SEGMENT
__unwindfunclet$??0tagTrinityInfo@@QAE@XZ$0:
  00000	68 00 00 00 00	 push	 OFFSET ??1AttackAttribute@@QAE@XZ
  00005	6a 06		 push	 6
  00007	6a 50		 push	 80			; 00000050H
  00009	ff 75 f0	 push	 DWORD PTR _this$[ebp]
  0000c	e8 00 00 00 00	 call	 ??_M@YGXPAXIHP6EX0@Z@Z
  00011	c3		 ret	 0
__unwindfunclet$??0tagTrinityInfo@@QAE@XZ$1:
  00012	68 00 00 00 00	 push	 OFFSET ??1AttackAttribute@@QAE@XZ
  00017	6a 06		 push	 6
  00019	6a 50		 push	 80			; 00000050H
  0001b	8b 45 f0	 mov	 eax, DWORD PTR _this$[ebp]
  0001e	05 e0 01 00 00	 add	 eax, 480		; 000001e0H
  00023	50		 push	 eax
  00024	e8 00 00 00 00	 call	 ??_M@YGXPAXIHP6EX0@Z@Z
  00029	c3		 ret	 0
__unwindfunclet$??0tagTrinityInfo@@QAE@XZ$2:
  0002a	68 00 00 00 00	 push	 OFFSET ??1?$vector@VioHashString@@V?$allocator@VioHashString@@@std@@@std@@QAE@XZ ; std::vector<ioHashString,std::allocator<ioHashString> >::~vector<ioHashString,std::allocator<ioHashString> >
  0002f	6a 06		 push	 6
  00031	6a 10		 push	 16			; 00000010H
  00033	8b 45 f0	 mov	 eax, DWORD PTR _this$[ebp]
  00036	05 c0 03 00 00	 add	 eax, 960		; 000003c0H
  0003b	50		 push	 eax
  0003c	e8 00 00 00 00	 call	 ??_M@YGXPAXIHP6EX0@Z@Z
  00041	c3		 ret	 0
__unwindfunclet$??0tagTrinityInfo@@QAE@XZ$3:
  00042	68 00 00 00 00	 push	 OFFSET ??1?$vector@VioHashString@@V?$allocator@VioHashString@@@std@@@std@@QAE@XZ ; std::vector<ioHashString,std::allocator<ioHashString> >::~vector<ioHashString,std::allocator<ioHashString> >
  00047	6a 06		 push	 6
  00049	6a 10		 push	 16			; 00000010H
  0004b	8b 45 f0	 mov	 eax, DWORD PTR _this$[ebp]
  0004e	05 20 04 00 00	 add	 eax, 1056		; 00000420H
  00053	50		 push	 eax
  00054	e8 00 00 00 00	 call	 ??_M@YGXPAXIHP6EX0@Z@Z
  00059	c3		 ret	 0
__unwindfunclet$??0tagTrinityInfo@@QAE@XZ$4:
  0005a	68 00 00 00 00	 push	 OFFSET ??1?$vector@VioHashString@@V?$allocator@VioHashString@@@std@@@std@@QAE@XZ ; std::vector<ioHashString,std::allocator<ioHashString> >::~vector<ioHashString,std::allocator<ioHashString> >
  0005f	6a 06		 push	 6
  00061	6a 10		 push	 16			; 00000010H
  00063	8b 45 f0	 mov	 eax, DWORD PTR _this$[ebp]
  00066	05 80 04 00 00	 add	 eax, 1152		; 00000480H
  0006b	50		 push	 eax
  0006c	e8 00 00 00 00	 call	 ??_M@YGXPAXIHP6EX0@Z@Z
  00071	c3		 ret	 0
__unwindfunclet$??0tagTrinityInfo@@QAE@XZ$5:
  00072	68 00 00 00 00	 push	 OFFSET ??1?$vector@VioHashString@@V?$allocator@VioHashString@@@std@@@std@@QAE@XZ ; std::vector<ioHashString,std::allocator<ioHashString> >::~vector<ioHashString,std::allocator<ioHashString> >
  00077	6a 06		 push	 6
  00079	6a 10		 push	 16			; 00000010H
  0007b	8b 45 f0	 mov	 eax, DWORD PTR _this$[ebp]
  0007e	05 e0 04 00 00	 add	 eax, 1248		; 000004e0H
  00083	50		 push	 eax
  00084	e8 00 00 00 00	 call	 ??_M@YGXPAXIHP6EX0@Z@Z
  00089	c3		 ret	 0
__unwindfunclet$??0tagTrinityInfo@@QAE@XZ$6:
  0008a	ff 35 00 00 00
	00		 push	 DWORD PTR __imp_??1ioHashString@@QAE@XZ
  00090	6a 06		 push	 6
  00092	6a 10		 push	 16			; 00000010H
  00094	8b 45 f0	 mov	 eax, DWORD PTR _this$[ebp]
  00097	05 40 05 00 00	 add	 eax, 1344		; 00000540H
  0009c	50		 push	 eax
  0009d	e8 00 00 00 00	 call	 ??_M@YGXPAXIHP6EX0@Z@Z
  000a2	c3		 ret	 0
__unwindfunclet$??0tagTrinityInfo@@QAE@XZ$7:
  000a3	ff 35 00 00 00
	00		 push	 DWORD PTR __imp_??1ioHashString@@QAE@XZ
  000a9	6a 06		 push	 6
  000ab	6a 10		 push	 16			; 00000010H
  000ad	8b 45 f0	 mov	 eax, DWORD PTR _this$[ebp]
  000b0	05 a0 05 00 00	 add	 eax, 1440		; 000005a0H
  000b5	50		 push	 eax
  000b6	e8 00 00 00 00	 call	 ??_M@YGXPAXIHP6EX0@Z@Z
  000bb	c3		 ret	 0
__unwindfunclet$??0tagTrinityInfo@@QAE@XZ$8:
  000bc	ff 35 00 00 00
	00		 push	 DWORD PTR __imp_??1ioHashString@@QAE@XZ
  000c2	6a 06		 push	 6
  000c4	6a 10		 push	 16			; 00000010H
  000c6	8b 45 f0	 mov	 eax, DWORD PTR _this$[ebp]
  000c9	05 00 06 00 00	 add	 eax, 1536		; 00000600H
  000ce	50		 push	 eax
  000cf	e8 00 00 00 00	 call	 ??_M@YGXPAXIHP6EX0@Z@Z
  000d4	c3		 ret	 0
__unwindfunclet$??0tagTrinityInfo@@QAE@XZ$9:
  000d5	ff 35 00 00 00
	00		 push	 DWORD PTR __imp_??1ioHashString@@QAE@XZ
  000db	6a 06		 push	 6
  000dd	6a 10		 push	 16			; 00000010H
  000df	8b 45 f0	 mov	 eax, DWORD PTR _this$[ebp]
  000e2	05 60 06 00 00	 add	 eax, 1632		; 00000660H
  000e7	50		 push	 eax
  000e8	e8 00 00 00 00	 call	 ??_M@YGXPAXIHP6EX0@Z@Z
  000ed	c3		 ret	 0
__unwindfunclet$??0tagTrinityInfo@@QAE@XZ$10:
  000ee	8b 4d f0	 mov	 ecx, DWORD PTR _this$[ebp]
  000f1	81 c1 c8 06 00
	00		 add	 ecx, 1736		; 000006c8H
  000f7	ff 25 00 00 00
	00		 jmp	 DWORD PTR __imp_??1ioHashString@@QAE@XZ
__ehhandler$??0tagTrinityInfo@@QAE@XZ:
  000fd	8b 54 24 08	 mov	 edx, DWORD PTR [esp+8]
  00101	8d 42 0c	 lea	 eax, DWORD PTR [edx+12]
  00104	8b 4a ec	 mov	 ecx, DWORD PTR [edx-20]
  00107	33 c8		 xor	 ecx, eax
  00109	e8 00 00 00 00	 call	 @__security_check_cookie@4
  0010e	b8 00 00 00 00	 mov	 eax, OFFSET __ehfuncinfo$??0tagTrinityInfo@@QAE@XZ
  00113	e9 00 00 00 00	 jmp	 ___CxxFrameHandler3
text$x	ENDS
??0tagTrinityInfo@@QAE@XZ ENDP				; tagTrinityInfo::tagTrinityInfo
PUBLIC	??1tagTrinityInfo@@QAE@XZ			; tagTrinityInfo::~tagTrinityInfo
;	COMDAT xdata$x
xdata$x	SEGMENT
__ehfuncinfo$??1tagTrinityInfo@@QAE@XZ DD 019930522H
	DD	0aH
	DD	FLAT:__unwindtable$??1tagTrinityInfo@@QAE@XZ
	DD	2 DUP(00H)
	DD	2 DUP(00H)
	DD	00H
	DD	01H
__unwindtable$??1tagTrinityInfo@@QAE@XZ DD 0ffffffffH
	DD	FLAT:__unwindfunclet$??1tagTrinityInfo@@QAE@XZ$0
	DD	00H
	DD	FLAT:__unwindfunclet$??1tagTrinityInfo@@QAE@XZ$1
	DD	01H
	DD	FLAT:__unwindfunclet$??1tagTrinityInfo@@QAE@XZ$2
	DD	02H
	DD	FLAT:__unwindfunclet$??1tagTrinityInfo@@QAE@XZ$3
	DD	03H
	DD	FLAT:__unwindfunclet$??1tagTrinityInfo@@QAE@XZ$4
	DD	04H
	DD	FLAT:__unwindfunclet$??1tagTrinityInfo@@QAE@XZ$5
	DD	05H
	DD	FLAT:__unwindfunclet$??1tagTrinityInfo@@QAE@XZ$6
	DD	06H
	DD	FLAT:__unwindfunclet$??1tagTrinityInfo@@QAE@XZ$7
	DD	07H
	DD	FLAT:__unwindfunclet$??1tagTrinityInfo@@QAE@XZ$8
	DD	08H
	DD	FLAT:__unwindfunclet$??1tagTrinityInfo@@QAE@XZ$9
; Function compile flags: /Ogsp
xdata$x	ENDS
;	COMDAT ??1tagTrinityInfo@@QAE@XZ
_TEXT	SEGMENT
_this$ = -16						; size = 4
__$EHRec$ = -12						; size = 12
??1tagTrinityInfo@@QAE@XZ PROC				; tagTrinityInfo::~tagTrinityInfo, COMDAT
; _this$ = ecx
  00000	6a 04		 push	 4
  00002	b8 00 00 00 00	 mov	 eax, __ehhandler$??1tagTrinityInfo@@QAE@XZ
  00007	e8 00 00 00 00	 call	 __EH_prolog3
  0000c	8b f1		 mov	 esi, ecx
  0000e	89 75 f0	 mov	 DWORD PTR _this$[ebp], esi
  00011	8b 3d 00 00 00
	00		 mov	 edi, DWORD PTR __imp_??1ioHashString@@QAE@XZ
  00017	8d 8e c8 06 00
	00		 lea	 ecx, DWORD PTR [esi+1736]
  0001d	c7 45 fc 09 00
	00 00		 mov	 DWORD PTR __$EHRec$[ebp+8], 9
  00024	ff d7		 call	 edi
  00026	57		 push	 edi
  00027	6a 06		 push	 6
  00029	5b		 pop	 ebx
  0002a	53		 push	 ebx
  0002b	6a 10		 push	 16			; 00000010H
  0002d	8d 86 60 06 00
	00		 lea	 eax, DWORD PTR [esi+1632]
  00033	50		 push	 eax
  00034	c6 45 fc 08	 mov	 BYTE PTR __$EHRec$[ebp+8], 8
  00038	e8 00 00 00 00	 call	 ??_M@YGXPAXIHP6EX0@Z@Z
  0003d	57		 push	 edi
  0003e	53		 push	 ebx
  0003f	6a 10		 push	 16			; 00000010H
  00041	8d 86 00 06 00
	00		 lea	 eax, DWORD PTR [esi+1536]
  00047	50		 push	 eax
  00048	c6 45 fc 07	 mov	 BYTE PTR __$EHRec$[ebp+8], 7
  0004c	e8 00 00 00 00	 call	 ??_M@YGXPAXIHP6EX0@Z@Z
  00051	57		 push	 edi
  00052	53		 push	 ebx
  00053	6a 10		 push	 16			; 00000010H
  00055	8d 86 a0 05 00
	00		 lea	 eax, DWORD PTR [esi+1440]
  0005b	50		 push	 eax
  0005c	88 5d fc	 mov	 BYTE PTR __$EHRec$[ebp+8], bl
  0005f	e8 00 00 00 00	 call	 ??_M@YGXPAXIHP6EX0@Z@Z
  00064	57		 push	 edi
  00065	53		 push	 ebx
  00066	6a 10		 push	 16			; 00000010H
  00068	8d 86 40 05 00
	00		 lea	 eax, DWORD PTR [esi+1344]
  0006e	50		 push	 eax
  0006f	c6 45 fc 05	 mov	 BYTE PTR __$EHRec$[ebp+8], 5
  00073	e8 00 00 00 00	 call	 ??_M@YGXPAXIHP6EX0@Z@Z
  00078	bf 00 00 00 00	 mov	 edi, OFFSET ??1?$vector@VioHashString@@V?$allocator@VioHashString@@@std@@@std@@QAE@XZ ; std::vector<ioHashString,std::allocator<ioHashString> >::~vector<ioHashString,std::allocator<ioHashString> >
  0007d	57		 push	 edi
  0007e	53		 push	 ebx
  0007f	6a 10		 push	 16			; 00000010H
  00081	8d 86 e0 04 00
	00		 lea	 eax, DWORD PTR [esi+1248]
  00087	50		 push	 eax
  00088	c6 45 fc 04	 mov	 BYTE PTR __$EHRec$[ebp+8], 4
  0008c	e8 00 00 00 00	 call	 ??_M@YGXPAXIHP6EX0@Z@Z
  00091	57		 push	 edi
  00092	53		 push	 ebx
  00093	6a 10		 push	 16			; 00000010H
  00095	8d 86 80 04 00
	00		 lea	 eax, DWORD PTR [esi+1152]
  0009b	50		 push	 eax
  0009c	c6 45 fc 03	 mov	 BYTE PTR __$EHRec$[ebp+8], 3
  000a0	e8 00 00 00 00	 call	 ??_M@YGXPAXIHP6EX0@Z@Z
  000a5	57		 push	 edi
  000a6	53		 push	 ebx
  000a7	6a 10		 push	 16			; 00000010H
  000a9	8d 86 20 04 00
	00		 lea	 eax, DWORD PTR [esi+1056]
  000af	50		 push	 eax
  000b0	c6 45 fc 02	 mov	 BYTE PTR __$EHRec$[ebp+8], 2
  000b4	e8 00 00 00 00	 call	 ??_M@YGXPAXIHP6EX0@Z@Z
  000b9	57		 push	 edi
  000ba	53		 push	 ebx
  000bb	6a 10		 push	 16			; 00000010H
  000bd	8d 86 c0 03 00
	00		 lea	 eax, DWORD PTR [esi+960]
  000c3	50		 push	 eax
  000c4	c6 45 fc 01	 mov	 BYTE PTR __$EHRec$[ebp+8], 1
  000c8	e8 00 00 00 00	 call	 ??_M@YGXPAXIHP6EX0@Z@Z
  000cd	bf 00 00 00 00	 mov	 edi, OFFSET ??1AttackAttribute@@QAE@XZ
  000d2	57		 push	 edi
  000d3	53		 push	 ebx
  000d4	6a 50		 push	 80			; 00000050H
  000d6	8d 86 e0 01 00
	00		 lea	 eax, DWORD PTR [esi+480]
  000dc	50		 push	 eax
  000dd	c6 45 fc 00	 mov	 BYTE PTR __$EHRec$[ebp+8], 0
  000e1	e8 00 00 00 00	 call	 ??_M@YGXPAXIHP6EX0@Z@Z
  000e6	83 4d fc ff	 or	 DWORD PTR __$EHRec$[ebp+8], -1
  000ea	57		 push	 edi
  000eb	53		 push	 ebx
  000ec	6a 50		 push	 80			; 00000050H
  000ee	56		 push	 esi
  000ef	e8 00 00 00 00	 call	 ??_M@YGXPAXIHP6EX0@Z@Z
  000f4	e8 00 00 00 00	 call	 __EH_epilog3
  000f9	c3		 ret	 0
_TEXT	ENDS
;	COMDAT text$x
text$x	SEGMENT
__unwindfunclet$??1tagTrinityInfo@@QAE@XZ$0:
  00000	68 00 00 00 00	 push	 OFFSET ??1AttackAttribute@@QAE@XZ
  00005	6a 06		 push	 6
  00007	6a 50		 push	 80			; 00000050H
  00009	ff 75 f0	 push	 DWORD PTR _this$[ebp]
  0000c	e8 00 00 00 00	 call	 ??_M@YGXPAXIHP6EX0@Z@Z
  00011	c3		 ret	 0
__unwindfunclet$??1tagTrinityInfo@@QAE@XZ$1:
  00012	68 00 00 00 00	 push	 OFFSET ??1AttackAttribute@@QAE@XZ
  00017	6a 06		 push	 6
  00019	6a 50		 push	 80			; 00000050H
  0001b	8b 45 f0	 mov	 eax, DWORD PTR _this$[ebp]
  0001e	05 e0 01 00 00	 add	 eax, 480		; 000001e0H
  00023	50		 push	 eax
  00024	e8 00 00 00 00	 call	 ??_M@YGXPAXIHP6EX0@Z@Z
  00029	c3		 ret	 0
__unwindfunclet$??1tagTrinityInfo@@QAE@XZ$2:
  0002a	68 00 00 00 00	 push	 OFFSET ??1?$vector@VioHashString@@V?$allocator@VioHashString@@@std@@@std@@QAE@XZ ; std::vector<ioHashString,std::allocator<ioHashString> >::~vector<ioHashString,std::allocator<ioHashString> >
  0002f	6a 06		 push	 6
  00031	6a 10		 push	 16			; 00000010H
  00033	8b 45 f0	 mov	 eax, DWORD PTR _this$[ebp]
  00036	05 c0 03 00 00	 add	 eax, 960		; 000003c0H
  0003b	50		 push	 eax
  0003c	e8 00 00 00 00	 call	 ??_M@YGXPAXIHP6EX0@Z@Z
  00041	c3		 ret	 0
__unwindfunclet$??1tagTrinityInfo@@QAE@XZ$3:
  00042	68 00 00 00 00	 push	 OFFSET ??1?$vector@VioHashString@@V?$allocator@VioHashString@@@std@@@std@@QAE@XZ ; std::vector<ioHashString,std::allocator<ioHashString> >::~vector<ioHashString,std::allocator<ioHashString> >
  00047	6a 06		 push	 6
  00049	6a 10		 push	 16			; 00000010H
  0004b	8b 45 f0	 mov	 eax, DWORD PTR _this$[ebp]
  0004e	05 20 04 00 00	 add	 eax, 1056		; 00000420H
  00053	50		 push	 eax
  00054	e8 00 00 00 00	 call	 ??_M@YGXPAXIHP6EX0@Z@Z
  00059	c3		 ret	 0
__unwindfunclet$??1tagTrinityInfo@@QAE@XZ$4:
  0005a	68 00 00 00 00	 push	 OFFSET ??1?$vector@VioHashString@@V?$allocator@VioHashString@@@std@@@std@@QAE@XZ ; std::vector<ioHashString,std::allocator<ioHashString> >::~vector<ioHashString,std::allocator<ioHashString> >
  0005f	6a 06		 push	 6
  00061	6a 10		 push	 16			; 00000010H
  00063	8b 45 f0	 mov	 eax, DWORD PTR _this$[ebp]
  00066	05 80 04 00 00	 add	 eax, 1152		; 00000480H
  0006b	50		 push	 eax
  0006c	e8 00 00 00 00	 call	 ??_M@YGXPAXIHP6EX0@Z@Z
  00071	c3		 ret	 0
__unwindfunclet$??1tagTrinityInfo@@QAE@XZ$5:
  00072	68 00 00 00 00	 push	 OFFSET ??1?$vector@VioHashString@@V?$allocator@VioHashString@@@std@@@std@@QAE@XZ ; std::vector<ioHashString,std::allocator<ioHashString> >::~vector<ioHashString,std::allocator<ioHashString> >
  00077	6a 06		 push	 6
  00079	6a 10		 push	 16			; 00000010H
  0007b	8b 45 f0	 mov	 eax, DWORD PTR _this$[ebp]
  0007e	05 e0 04 00 00	 add	 eax, 1248		; 000004e0H
  00083	50		 push	 eax
  00084	e8 00 00 00 00	 call	 ??_M@YGXPAXIHP6EX0@Z@Z
  00089	c3		 ret	 0
__unwindfunclet$??1tagTrinityInfo@@QAE@XZ$6:
  0008a	ff 35 00 00 00
	00		 push	 DWORD PTR __imp_??1ioHashString@@QAE@XZ
  00090	6a 06		 push	 6
  00092	6a 10		 push	 16			; 00000010H
  00094	8b 45 f0	 mov	 eax, DWORD PTR _this$[ebp]
  00097	05 40 05 00 00	 add	 eax, 1344		; 00000540H
  0009c	50		 push	 eax
  0009d	e8 00 00 00 00	 call	 ??_M@YGXPAXIHP6EX0@Z@Z
  000a2	c3		 ret	 0
__unwindfunclet$??1tagTrinityInfo@@QAE@XZ$7:
  000a3	ff 35 00 00 00
	00		 push	 DWORD PTR __imp_??1ioHashString@@QAE@XZ
  000a9	6a 06		 push	 6
  000ab	6a 10		 push	 16			; 00000010H
  000ad	8b 45 f0	 mov	 eax, DWORD PTR _this$[ebp]
  000b0	05 a0 05 00 00	 add	 eax, 1440		; 000005a0H
  000b5	50		 push	 eax
  000b6	e8 00 00 00 00	 call	 ??_M@YGXPAXIHP6EX0@Z@Z
  000bb	c3		 ret	 0
__unwindfunclet$??1tagTrinityInfo@@QAE@XZ$8:
  000bc	ff 35 00 00 00
	00		 push	 DWORD PTR __imp_??1ioHashString@@QAE@XZ
  000c2	6a 06		 push	 6
  000c4	6a 10		 push	 16			; 00000010H
  000c6	8b 45 f0	 mov	 eax, DWORD PTR _this$[ebp]
  000c9	05 00 06 00 00	 add	 eax, 1536		; 00000600H
  000ce	50		 push	 eax
  000cf	e8 00 00 00 00	 call	 ??_M@YGXPAXIHP6EX0@Z@Z
  000d4	c3		 ret	 0
__unwindfunclet$??1tagTrinityInfo@@QAE@XZ$9:
  000d5	ff 35 00 00 00
	00		 push	 DWORD PTR __imp_??1ioHashString@@QAE@XZ
  000db	6a 06		 push	 6
  000dd	6a 10		 push	 16			; 00000010H
  000df	8b 45 f0	 mov	 eax, DWORD PTR _this$[ebp]
  000e2	05 60 06 00 00	 add	 eax, 1632		; 00000660H
  000e7	50		 push	 eax
  000e8	e8 00 00 00 00	 call	 ??_M@YGXPAXIHP6EX0@Z@Z
  000ed	c3		 ret	 0
__ehhandler$??1tagTrinityInfo@@QAE@XZ:
  000ee	8b 54 24 08	 mov	 edx, DWORD PTR [esp+8]
  000f2	8d 42 0c	 lea	 eax, DWORD PTR [edx+12]
  000f5	8b 4a ec	 mov	 ecx, DWORD PTR [edx-20]
  000f8	33 c8		 xor	 ecx, eax
  000fa	e8 00 00 00 00	 call	 @__security_check_cookie@4
  000ff	b8 00 00 00 00	 mov	 eax, OFFSET __ehfuncinfo$??1tagTrinityInfo@@QAE@XZ
  00104	e9 00 00 00 00	 jmp	 ___CxxFrameHandler3
text$x	ENDS
??1tagTrinityInfo@@QAE@XZ ENDP				; tagTrinityInfo::~tagTrinityInfo
PUBLIC	??0tagTrinityInfo@@QAE@ABU0@@Z			; tagTrinityInfo::tagTrinityInfo
EXTRN	??__C@YGXPAX0IHP6EX00@ZP6EX0@Z@Z:PROC		; `eh vector copy constructor iterator'
; Function compile flags: /Ogsp
;	COMDAT ??0tagTrinityInfo@@QAE@ABU0@@Z
_TEXT	SEGMENT
___that$ = 8						; size = 4
??0tagTrinityInfo@@QAE@ABU0@@Z PROC			; tagTrinityInfo::tagTrinityInfo, COMDAT
; _this$ = ecx
  00000	55		 push	 ebp
  00001	8b ec		 mov	 ebp, esp
  00003	53		 push	 ebx
  00004	56		 push	 esi
  00005	8b 75 08	 mov	 esi, DWORD PTR ___that$[ebp]
  00008	57		 push	 edi
  00009	68 00 00 00 00	 push	 OFFSET ??1AttackAttribute@@QAE@XZ
  0000e	bf 00 00 00 00	 mov	 edi, OFFSET ??0AttackAttribute@@QAE@ABU0@@Z
  00013	57		 push	 edi
  00014	6a 06		 push	 6
  00016	6a 50		 push	 80			; 00000050H
  00018	8b d9		 mov	 ebx, ecx
  0001a	56		 push	 esi
  0001b	53		 push	 ebx
  0001c	e8 00 00 00 00	 call	 ??__C@YGXPAX0IHP6EX00@ZP6EX0@Z@Z
  00021	68 00 00 00 00	 push	 OFFSET ??1AttackAttribute@@QAE@XZ
  00026	57		 push	 edi
  00027	6a 06		 push	 6
  00029	6a 50		 push	 80			; 00000050H
  0002b	8d 86 e0 01 00
	00		 lea	 eax, DWORD PTR [esi+480]
  00031	50		 push	 eax
  00032	8d 83 e0 01 00
	00		 lea	 eax, DWORD PTR [ebx+480]
  00038	50		 push	 eax
  00039	e8 00 00 00 00	 call	 ??__C@YGXPAX0IHP6EX00@ZP6EX0@Z@Z
  0003e	68 00 00 00 00	 push	 OFFSET ??1?$vector@VioHashString@@V?$allocator@VioHashString@@@std@@@std@@QAE@XZ ; std::vector<ioHashString,std::allocator<ioHashString> >::~vector<ioHashString,std::allocator<ioHashString> >
  00043	bf 00 00 00 00	 mov	 edi, OFFSET ??0?$vector@VioHashString@@V?$allocator@VioHashString@@@std@@@std@@QAE@ABV01@@Z ; std::vector<ioHashString,std::allocator<ioHashString> >::vector<ioHashString,std::allocator<ioHashString> >
  00048	57		 push	 edi
  00049	6a 06		 push	 6
  0004b	6a 10		 push	 16			; 00000010H
  0004d	8d 86 c0 03 00
	00		 lea	 eax, DWORD PTR [esi+960]
  00053	50		 push	 eax
  00054	8d 83 c0 03 00
	00		 lea	 eax, DWORD PTR [ebx+960]
  0005a	50		 push	 eax
  0005b	e8 00 00 00 00	 call	 ??__C@YGXPAX0IHP6EX00@ZP6EX0@Z@Z
  00060	68 00 00 00 00	 push	 OFFSET ??1?$vector@VioHashString@@V?$allocator@VioHashString@@@std@@@std@@QAE@XZ ; std::vector<ioHashString,std::allocator<ioHashString> >::~vector<ioHashString,std::allocator<ioHashString> >
  00065	57		 push	 edi
  00066	6a 06		 push	 6
  00068	6a 10		 push	 16			; 00000010H
  0006a	8d 86 20 04 00
	00		 lea	 eax, DWORD PTR [esi+1056]
  00070	50		 push	 eax
  00071	8d 83 20 04 00
	00		 lea	 eax, DWORD PTR [ebx+1056]
  00077	50		 push	 eax
  00078	e8 00 00 00 00	 call	 ??__C@YGXPAX0IHP6EX00@ZP6EX0@Z@Z
  0007d	68 00 00 00 00	 push	 OFFSET ??1?$vector@VioHashString@@V?$allocator@VioHashString@@@std@@@std@@QAE@XZ ; std::vector<ioHashString,std::allocator<ioHashString> >::~vector<ioHashString,std::allocator<ioHashString> >
  00082	57		 push	 edi
  00083	6a 06		 push	 6
  00085	6a 10		 push	 16			; 00000010H
  00087	8d 86 80 04 00
	00		 lea	 eax, DWORD PTR [esi+1152]
  0008d	50		 push	 eax
  0008e	8d 83 80 04 00
	00		 lea	 eax, DWORD PTR [ebx+1152]
  00094	50		 push	 eax
  00095	e8 00 00 00 00	 call	 ??__C@YGXPAX0IHP6EX00@ZP6EX0@Z@Z
  0009a	68 00 00 00 00	 push	 OFFSET ??1?$vector@VioHashString@@V?$allocator@VioHashString@@@std@@@std@@QAE@XZ ; std::vector<ioHashString,std::allocator<ioHashString> >::~vector<ioHashString,std::allocator<ioHashString> >
  0009f	57		 push	 edi
  000a0	6a 06		 push	 6
  000a2	6a 10		 push	 16			; 00000010H
  000a4	8d 86 e0 04 00
	00		 lea	 eax, DWORD PTR [esi+1248]
  000aa	50		 push	 eax
  000ab	8d 83 e0 04 00
	00		 lea	 eax, DWORD PTR [ebx+1248]
  000b1	50		 push	 eax
  000b2	e8 00 00 00 00	 call	 ??__C@YGXPAX0IHP6EX00@ZP6EX0@Z@Z
  000b7	ff 35 00 00 00
	00		 push	 DWORD PTR __imp_??1ioHashString@@QAE@XZ
  000bd	8b 3d 00 00 00
	00		 mov	 edi, DWORD PTR __imp_??0ioHashString@@QAE@ABV0@@Z
  000c3	57		 push	 edi
  000c4	6a 06		 push	 6
  000c6	6a 10		 push	 16			; 00000010H
  000c8	8d 86 40 05 00
	00		 lea	 eax, DWORD PTR [esi+1344]
  000ce	50		 push	 eax
  000cf	8d 83 40 05 00
	00		 lea	 eax, DWORD PTR [ebx+1344]
  000d5	50		 push	 eax
  000d6	e8 00 00 00 00	 call	 ??__C@YGXPAX0IHP6EX00@ZP6EX0@Z@Z
  000db	ff 35 00 00 00
	00		 push	 DWORD PTR __imp_??1ioHashString@@QAE@XZ
  000e1	8d 86 a0 05 00
	00		 lea	 eax, DWORD PTR [esi+1440]
  000e7	57		 push	 edi
  000e8	6a 06		 push	 6
  000ea	6a 10		 push	 16			; 00000010H
  000ec	50		 push	 eax
  000ed	8d 83 a0 05 00
	00		 lea	 eax, DWORD PTR [ebx+1440]
  000f3	50		 push	 eax
  000f4	e8 00 00 00 00	 call	 ??__C@YGXPAX0IHP6EX00@ZP6EX0@Z@Z
  000f9	ff 35 00 00 00
	00		 push	 DWORD PTR __imp_??1ioHashString@@QAE@XZ
  000ff	57		 push	 edi
  00100	6a 06		 push	 6
  00102	6a 10		 push	 16			; 00000010H
  00104	8d 86 00 06 00
	00		 lea	 eax, DWORD PTR [esi+1536]
  0010a	50		 push	 eax
  0010b	8d 83 00 06 00
	00		 lea	 eax, DWORD PTR [ebx+1536]
  00111	50		 push	 eax
  00112	e8 00 00 00 00	 call	 ??__C@YGXPAX0IHP6EX00@ZP6EX0@Z@Z
  00117	ff 35 00 00 00
	00		 push	 DWORD PTR __imp_??1ioHashString@@QAE@XZ
  0011d	8d 86 60 06 00
	00		 lea	 eax, DWORD PTR [esi+1632]
  00123	57		 push	 edi
  00124	6a 06		 push	 6
  00126	6a 10		 push	 16			; 00000010H
  00128	50		 push	 eax
  00129	8d 83 60 06 00
	00		 lea	 eax, DWORD PTR [ebx+1632]
  0012f	50		 push	 eax
  00130	e8 00 00 00 00	 call	 ??__C@YGXPAX0IHP6EX00@ZP6EX0@Z@Z
  00135	81 c6 c0 06 00
	00		 add	 esi, 1728		; 000006c0H
  0013b	8d bb c0 06 00
	00		 lea	 edi, DWORD PTR [ebx+1728]
  00141	a5		 movsd
  00142	66 a5		 movsw
  00144	8b 75 08	 mov	 esi, DWORD PTR ___that$[ebp]
  00147	8d 86 c8 06 00
	00		 lea	 eax, DWORD PTR [esi+1736]
  0014d	50		 push	 eax
  0014e	8d 8b c8 06 00
	00		 lea	 ecx, DWORD PTR [ebx+1736]
  00154	ff 15 00 00 00
	00		 call	 DWORD PTR __imp_??0ioHashString@@QAE@ABV0@@Z
  0015a	5f		 pop	 edi
  0015b	d9 86 d8 06 00
	00		 fld	 DWORD PTR [esi+1752]
  00161	5e		 pop	 esi
  00162	d9 9b d8 06 00
	00		 fstp	 DWORD PTR [ebx+1752]
  00168	8b c3		 mov	 eax, ebx
  0016a	5b		 pop	 ebx
  0016b	5d		 pop	 ebp
  0016c	c2 04 00	 ret	 4
??0tagTrinityInfo@@QAE@ABU0@@Z ENDP			; tagTrinityInfo::tagTrinityInfo
_TEXT	ENDS
PUBLIC	??_7ioTrinityItem@@6B@				; ioTrinityItem::`vftable'
PUBLIC	??1ioTrinityItem@@UAE@XZ			; ioTrinityItem::~ioTrinityItem
PUBLIC	??_R4ioTrinityItem@@6B@				; ioTrinityItem::`RTTI Complete Object Locator'
PUBLIC	??_R3ioTrinityItem@@8				; ioTrinityItem::`RTTI Class Hierarchy Descriptor'
PUBLIC	??_R2ioTrinityItem@@8				; ioTrinityItem::`RTTI Base Class Array'
PUBLIC	??_R1A@?0A@EA@ioTrinityItem@@8			; ioTrinityItem::`RTTI Base Class Descriptor at (0,-1,0,64)'
PUBLIC	??_R1A@?0A@EA@ioWeaponItem@@8			; ioWeaponItem::`RTTI Base Class Descriptor at (0,-1,0,64)'
PUBLIC	??_R3ioWeaponItem@@8				; ioWeaponItem::`RTTI Class Hierarchy Descriptor'
PUBLIC	??_R2ioWeaponItem@@8				; ioWeaponItem::`RTTI Base Class Array'
PUBLIC	??_R1A@?0A@EA@ioAttackableItem@@8		; ioAttackableItem::`RTTI Base Class Descriptor at (0,-1,0,64)'
PUBLIC	??_R0?AVioAttackableItem@@@8			; ioAttackableItem `RTTI Type Descriptor'
PUBLIC	??_R3ioAttackableItem@@8			; ioAttackableItem::`RTTI Class Hierarchy Descriptor'
PUBLIC	??_R2ioAttackableItem@@8			; ioAttackableItem::`RTTI Base Class Array'
PUBLIC	??_R1A@?0A@EA@ioItem@@8				; ioItem::`RTTI Base Class Descriptor at (0,-1,0,64)'
PUBLIC	??_R3ioItem@@8					; ioItem::`RTTI Class Hierarchy Descriptor'
PUBLIC	??_R2ioItem@@8					; ioItem::`RTTI Base Class Array'
PUBLIC	?LoadProperty@ioTrinityItem@@UAEXAAVioINILoader@@@Z ; ioTrinityItem::LoadProperty
PUBLIC	?Clone@ioTrinityItem@@UAEPAVioItem@@XZ		; ioTrinityItem::Clone
PUBLIC	?IsEnableExtraGauge@ioItem@@UAE_NPAVioBaseChar@@@Z ; ioItem::IsEnableExtraGauge
PUBLIC	?GetExtraGauge@ioItem@@UAEMXZ			; ioItem::GetExtraGauge
PUBLIC	?CheckOnHand@ioAttackableItem@@UAE_NXZ		; ioAttackableItem::CheckOnHand
PUBLIC	?CheckAimState@ioAttackableItem@@UAE_N_N@Z	; ioAttackableItem::CheckAimState
PUBLIC	?SetAimState@ioAttackableItem@@UAE_NPAVioBaseChar@@@Z ; ioAttackableItem::SetAimState
PUBLIC	?CheckExtendDefenseEnable@ioAttackableItem@@UAE_NPAVioBaseChar@@@Z ; ioAttackableItem::CheckExtendDefenseEnable
PUBLIC	?IsMoveAttackState@ioAttackableItem@@UAE_NPAVioBaseChar@@@Z ; ioAttackableItem::IsMoveAttackState
PUBLIC	?IsNoGhostWalk@ioAttackableItem@@UAE_NPAVioBaseChar@@@Z ; ioAttackableItem::IsNoGhostWalk
PUBLIC	?IsEnableAttackDashCheck@ioAttackableItem@@UAE_NPAVioBaseChar@@_N@Z ; ioAttackableItem::IsEnableAttackDashCheck
PUBLIC	?IsEnableItemDashCheck@ioAttackableItem@@UAE_NPAVioBaseChar@@_N@Z ; ioAttackableItem::IsEnableItemDashCheck
PUBLIC	?IsEnableAttackRotateCheck@ioAttackableItem@@UAE_NPAVioBaseChar@@@Z ; ioAttackableItem::IsEnableAttackRotateCheck
PUBLIC	?IsEnableChargeDefenseCheck@ioAttackableItem@@UAE_NXZ ; ioAttackableItem::IsEnableChargeDefenseCheck
PUBLIC	?IsUseDefenceCounterAttackEndDash@ioAttackableItem@@UAE_NXZ ; ioAttackableItem::IsUseDefenceCounterAttackEndDash
PUBLIC	?IsAutoTarget@ioAttackableItem@@UBE_NXZ		; ioAttackableItem::IsAutoTarget
PUBLIC	?IsWoundAfterUseExtendState@ioAttackableItem@@UAE_NXZ ; ioAttackableItem::IsWoundAfterUseExtendState
PUBLIC	?CheckWoundAfterUseExtendState@ioAttackableItem@@UAE_NPAVioBaseChar@@W4BlowTargetType@@@Z ; ioAttackableItem::CheckWoundAfterUseExtendState
PUBLIC	?IsCharSkipState@ioAttackableItem@@UAE_NPBVioBaseChar@@@Z ; ioAttackableItem::IsCharSkipState
EXTRN	??1ioWeaponItem@@UAE@XZ:PROC			; ioWeaponItem::~ioWeaponItem
EXTRN	?FindFieldEntityGrp@ioItem@@MBEABVioHashString@@XZ:PROC ; ioItem::FindFieldEntityGrp
EXTRN	?GetType@ioWeaponItem@@UBE?AW4ItemType@ioItem@@XZ:PROC ; ioWeaponItem::GetType
EXTRN	?UseCreateIndexItem@ioItem@@UBE_NXZ:PROC	; ioItem::UseCreateIndexItem
EXTRN	?GetSetFocusColor@ioItem@@UBEKXZ:PROC		; ioItem::GetSetFocusColor
EXTRN	?Initialize@ioItem@@UAEXABVioHashString@@PAVioPlayStage@@@Z:PROC ; ioItem::Initialize
EXTRN	?InitializeBeforeEquip@ioItem@@UAEXABVioHashString@@PAVioPlayStage@@@Z:PROC ; ioItem::InitializeBeforeEquip
EXTRN	?SetExtendEquipEffect@ioItem@@UAEXPAVioBaseChar@@@Z:PROC ; ioItem::SetExtendEquipEffect
EXTRN	?ReleaseExtendEquipEffect@ioItem@@UAEXPAVioBaseChar@@@Z:PROC ; ioItem::ReleaseExtendEquipEffect
EXTRN	?AddGlowLine@ioWeaponItem@@UAEXPAVioBaseChar@@@Z:PROC ; ioWeaponItem::AddGlowLine
EXTRN	?RemoveGlowLine@ioWeaponItem@@UAEXPAVioBaseChar@@@Z:PROC ; ioWeaponItem::RemoveGlowLine
EXTRN	?GetTargetName@ioItem@@UAE?AVioHashString@@XZ:PROC ; ioItem::GetTargetName
EXTRN	?ClearTarget@ioItem@@UAEXXZ:PROC		; ioItem::ClearTarget
EXTRN	?SetItemType@ioWeaponItem@@UAEXXZ:PROC		; ioWeaponItem::SetItemType
EXTRN	?CheckWeaponDefenseState@ioItem@@UAEXPAVioBaseChar@@@Z:PROC ; ioItem::CheckWeaponDefenseState
EXTRN	?CheckWoundedState@ioItem@@UAEXPAVioBaseChar@@@Z:PROC ; ioItem::CheckWoundedState
EXTRN	?UpdateSkillGauge@ioItem@@UAEXPAVioBaseChar@@M_N@Z:PROC ; ioItem::UpdateSkillGauge
EXTRN	?ReduceNeedGauge@ioItem@@UAEXMPAVioBaseChar@@@Z:PROC ; ioItem::ReduceNeedGauge
EXTRN	?GetCurSecoundBullet@ioItem@@UAEHXZ:PROC	; ioItem::GetCurSecoundBullet
EXTRN	?GetMaxSecoundBullet@ioItem@@UAEHXZ:PROC	; ioItem::GetMaxSecoundBullet
EXTRN	?SetCurSecoundBullet@ioItem@@UAEXH@Z:PROC	; ioItem::SetCurSecoundBullet
EXTRN	?GetGrowthInfoNum@ioItem@@UBEHH@Z:PROC		; ioItem::GetGrowthInfoNum
EXTRN	?GetGrowthInfoNumByType@ioItem@@UBEHHAAH@Z:PROC	; ioItem::GetGrowthInfoNumByType
EXTRN	?ClearCurChargeRateForSkill@ioItem@@UAEXXZ:PROC	; ioItem::ClearCurChargeRateForSkill
EXTRN	?GetChargeDamageRateForSkill@ioItem@@UAEMXZ:PROC ; ioItem::GetChargeDamageRateForSkill
EXTRN	?GetChargeForceRateForSkill@ioItem@@UAEMXZ:PROC	; ioItem::GetChargeForceRateForSkill
EXTRN	?GetChargeBlowRateForSkill@ioItem@@UAEMXZ:PROC	; ioItem::GetChargeBlowRateForSkill
EXTRN	?GetChargeRangeRateForSkill@ioItem@@UAEMXZ:PROC	; ioItem::GetChargeRangeRateForSkill
EXTRN	?GetChargeSpeedRateForSkill@ioItem@@UAEMXZ:PROC	; ioItem::GetChargeSpeedRateForSkill
EXTRN	?GetChargeFloatRateForSkill@ioItem@@UAEMXZ:PROC	; ioItem::GetChargeFloatRateForSkill
EXTRN	?GetChargeScaleRateForSkill@ioItem@@UAEMXZ:PROC	; ioItem::GetChargeScaleRateForSkill
EXTRN	?GetChargeExplosionRateForSkill@ioItem@@UAEMXZ:PROC ; ioItem::GetChargeExplosionRateForSkill
EXTRN	?GetChargeWoundedTimeRateForSkill@ioItem@@UAEMXZ:PROC ; ioItem::GetChargeWoundedTimeRateForSkill
EXTRN	?SetCurEquipEffect@ioItem@@UAEX_N@Z:PROC	; ioItem::SetCurEquipEffect
EXTRN	?SetCostume@ioItem@@UAEXH_N@Z:PROC		; ioItem::SetCostume
EXTRN	??_EioTrinityItem@@UAEPAXI@Z:PROC		; ioTrinityItem::`vector deleting destructor'
EXTRN	?IsCanFire@ioAttackableItem@@UBE_NPBVioBaseChar@@H_N@Z:PROC ; ioAttackableItem::IsCanFire
EXTRN	?CallItemProcess@ioAttackableItem@@UAEXPAVioBaseChar@@@Z:PROC ; ioAttackableItem::CallItemProcess
EXTRN	?CheckChargeInfo@ioAttackableItem@@UAEXPAVioWeapon@@_N@Z:PROC ; ioAttackableItem::CheckChargeInfo
EXTRN	?SetExtendDefenseState@ioAttackableItem@@UAE_NPAVioBaseChar@@@Z:PROC ; ioAttackableItem::SetExtendDefenseState
EXTRN	?CheckExtendDefenseState@ioAttackableItem@@UAEXPAVioBaseChar@@@Z:PROC ; ioAttackableItem::CheckExtendDefenseState
EXTRN	?CheckDefenseMoveAniState@ioAttackableItem@@UAEXPAVioBaseChar@@@Z:PROC ; ioAttackableItem::CheckDefenseMoveAniState
EXTRN	?SetDodgeDefenseState@ioAttackableItem@@UAE_NPAVioBaseChar@@@Z:PROC ; ioAttackableItem::SetDodgeDefenseState
EXTRN	?CheckDodgeDefenseState@ioAttackableItem@@UAEXPAVioBaseChar@@@Z:PROC ; ioAttackableItem::CheckDodgeDefenseState
EXTRN	?ApplyDodgeDefenseState@ioAttackableItem@@UAEXPAVioBaseChar@@AAVSP2Packet@@@Z:PROC ; ioAttackableItem::ApplyDodgeDefenseState
EXTRN	?SetDefenseAttackState@ioAttackableItem@@UAE_NPAVioBaseChar@@@Z:PROC ; ioAttackableItem::SetDefenseAttackState
EXTRN	?CheckDefenseAttackState@ioAttackableItem@@UAEXPAVioBaseChar@@@Z:PROC ; ioAttackableItem::CheckDefenseAttackState
EXTRN	?ApplyDefenseAttackState@ioAttackableItem@@UAEXPAVioBaseChar@@AAVSP2Packet@@@Z:PROC ; ioAttackableItem::ApplyDefenseAttackState
EXTRN	?SetExtendDashState@ioAttackableItem@@UAE_NPAVioBaseChar@@@Z:PROC ; ioAttackableItem::SetExtendDashState
EXTRN	?CheckExtendDashState@ioAttackableItem@@UAEXPAVioBaseChar@@@Z:PROC ; ioAttackableItem::CheckExtendDashState
EXTRN	?SetJumpAttack@ioAttackableItem@@UAE_NPAVioBaseChar@@HMW4AttackType@@@Z:PROC ; ioAttackableItem::SetJumpAttack
EXTRN	?CheckJumpAttack@ioAttackableItem@@UAEXPAVioBaseChar@@@Z:PROC ; ioAttackableItem::CheckJumpAttack
EXTRN	?SetJumpReloadState@ioAttackableItem@@UAE_NPAVioBaseChar@@@Z:PROC ; ioAttackableItem::SetJumpReloadState
EXTRN	?SetJumpReload@ioAttackableItem@@UAE_NPAVioBaseChar@@@Z:PROC ; ioAttackableItem::SetJumpReload
EXTRN	?CheckJumpReloadState@ioAttackableItem@@UAEXPAVioBaseChar@@@Z:PROC ; ioAttackableItem::CheckJumpReloadState
EXTRN	?CheckJumpReloadReserve@ioAttackableItem@@UAEXPAVioBaseChar@@@Z:PROC ; ioAttackableItem::CheckJumpReloadReserve
EXTRN	?ProcessJumpReloadState@ioAttackableItem@@UAEXPAVioBaseChar@@@Z:PROC ; ioAttackableItem::ProcessJumpReloadState
EXTRN	?ApplyJumpReload@ioAttackableItem@@UAEXPAVioBaseChar@@AAVSP2Packet@@@Z:PROC ; ioAttackableItem::ApplyJumpReload
EXTRN	?OnEndExtendDefense@ioAttackableItem@@UAEXPAVioBaseChar@@@Z:PROC ; ioAttackableItem::OnEndExtendDefense
EXTRN	?OnEndNormalAttack@ioAttackableItem@@UAEXPAVioBaseChar@@@Z:PROC ; ioAttackableItem::OnEndNormalAttack
EXTRN	?OnEndExtendJump@ioAttackableItem@@UAEXPAVioBaseChar@@@Z:PROC ; ioAttackableItem::OnEndExtendJump
EXTRN	?FillNormalAttackExtraInfo@ioAttackableItem@@UAEXAAVSP2Packet@@@Z:PROC ; ioAttackableItem::FillNormalAttackExtraInfo
EXTRN	?ApplyNormalAttackExtraInfo@ioAttackableItem@@UAEXAAVSP2Packet@@@Z:PROC ; ioAttackableItem::ApplyNormalAttackExtraInfo
EXTRN	?CheckLanding@ioAttackableItem@@UAE_NPAVioBaseChar@@@Z:PROC ; ioAttackableItem::CheckLanding
EXTRN	?SetNoneState@ioAttackableItem@@UAEXPAVioBaseChar@@H@Z:PROC ; ioAttackableItem::SetNoneState
EXTRN	?IsCanUpdateGauge@ioAttackableItem@@UAE_NPAVioBaseChar@@@Z:PROC ; ioAttackableItem::IsCanUpdateGauge
EXTRN	?CheckAimJumpState@ioAttackableItem@@UAEXPAVioBaseChar@@@Z:PROC ; ioAttackableItem::CheckAimJumpState
EXTRN	?GetJumppingAnimation@ioAttackableItem@@UBEABVioHashString@@XZ:PROC ; ioAttackableItem::GetJumppingAnimation
EXTRN	?GetExtendJumppingAnimation@ioAttackableItem@@UBEABVioHashString@@XZ:PROC ; ioAttackableItem::GetExtendJumppingAnimation
EXTRN	?CheckRetreatState@ioAttackableItem@@UAEXPAVioBaseChar@@@Z:PROC ; ioAttackableItem::CheckRetreatState
EXTRN	?SetNextItemState@ioAttackableItem@@UAEXPAVioBaseChar@@0PAVioWeapon@@_NM@Z:PROC ; ioAttackableItem::SetNextItemState
EXTRN	?WeaponWounded@ioWeaponItem@@UAEXPAVioWeapon@@PAVioBaseChar@@@Z:PROC ; ioWeaponItem::WeaponWounded
EXTRN	?WeaponMapColDead@ioAttackableItem@@UAEXPAVioWeapon@@@Z:PROC ; ioAttackableItem::WeaponMapColDead
EXTRN	?SetDefenceCounterState@ioAttackableItem@@UAEXPAVioBaseChar@@@Z:PROC ; ioAttackableItem::SetDefenceCounterState
EXTRN	?IsUseDefenceCounterAttack@ioAttackableItem@@UAE_NXZ:PROC ; ioAttackableItem::IsUseDefenceCounterAttack
EXTRN	?ProcessDefenceCounterAttack@ioAttackableItem@@UAEXPAVioBaseChar@@@Z:PROC ; ioAttackableItem::ProcessDefenceCounterAttack
EXTRN	?ProcessExtraJump@ioAttackableItem@@UAEXPAVioBaseChar@@@Z:PROC ; ioAttackableItem::ProcessExtraJump
EXTRN	?SetEndGrappling@ioAttackableItem@@UAEXPAVioBaseChar@@@Z:PROC ; ioAttackableItem::SetEndGrappling
EXTRN	?ClearKeyReserve@ioAttackableItem@@MAEXXZ:PROC	; ioAttackableItem::ClearKeyReserve
EXTRN	?CheckReserve@ioAttackableItem@@MAEXPAVioBaseChar@@@Z:PROC ; ioAttackableItem::CheckReserve
EXTRN	?ProcessReserveKeyInput@ioAttackableItem@@MAEXPAVioBaseChar@@@Z:PROC ; ioAttackableItem::ProcessReserveKeyInput
EXTRN	?SetJumpState@ioAttackableItem@@UAEXXZ:PROC	; ioAttackableItem::SetJumpState
EXTRN	?SetJumpping@ioAttackableItem@@UAEXPAVioBaseChar@@_N@Z:PROC ; ioAttackableItem::SetJumpping
EXTRN	?ProcessJumpping@ioAttackableItem@@UAEXPAVioBaseChar@@M@Z:PROC ; ioAttackableItem::ProcessJumpping
EXTRN	?ProcessJumppingByNoNeedProcess@ioAttackableItem@@UAEXPAVioBaseChar@@M@Z:PROC ; ioAttackableItem::ProcessJumppingByNoNeedProcess
EXTRN	?ProcessLanding@ioAttackableItem@@UAEXPAVioBaseChar@@@Z:PROC ; ioAttackableItem::ProcessLanding
EXTRN	?ProcessJumpAttack@ioAttackableItem@@UAEXPAVioBaseChar@@M@Z:PROC ; ioAttackableItem::ProcessJumpAttack
EXTRN	?ProcessAimJump@ioAttackableItem@@UAE_NPAVioBaseChar@@M@Z:PROC ; ioAttackableItem::ProcessAimJump
EXTRN	?ApplyJump@ioAttackableItem@@UAEXPAVioBaseChar@@AAVSP2Packet@@@Z:PROC ; ioAttackableItem::ApplyJump
EXTRN	?ApplyDash@ioAttackableItem@@UAEXPAVioBaseChar@@AAVSP2Packet@@@Z:PROC ; ioAttackableItem::ApplyDash
EXTRN	?ApplyCounterAttack@ioAttackableItem@@UAEXPAVioBaseChar@@AAVSP2Packet@@@Z:PROC ; ioAttackableItem::ApplyCounterAttack
EXTRN	?CheckComboJumpAttack@ioAttackableItem@@UAEXPAVioBaseChar@@@Z:PROC ; ioAttackableItem::CheckComboJumpAttack
EXTRN	?SetFlashJumpAttack@ioAttackableItem@@UAE_NPAVioBaseChar@@@Z:PROC ; ioAttackableItem::SetFlashJumpAttack
EXTRN	?SetComboFlashAttack@ioAttackableItem@@UAE_NPAVioBaseChar@@@Z:PROC ; ioAttackableItem::SetComboFlashAttack
EXTRN	?SetCollectJumpAttack@ioAttackableItem@@UAE_NPAVioBaseChar@@@Z:PROC ; ioAttackableItem::SetCollectJumpAttack
EXTRN	?SetPowerChargeJumpAttack@ioAttackableItem@@UAE_NPAVioBaseChar@@@Z:PROC ; ioAttackableItem::SetPowerChargeJumpAttack
EXTRN	?GetExtraJumpSpeedRate@ioAttackableItem@@UBEMABUD3DXVECTOR3@@ABUD3DXQUATERNION@@@Z:PROC ; ioAttackableItem::GetExtraJumpSpeedRate
EXTRN	?IsEnableExtendJump@ioAttackableItem@@UAE_NXZ:PROC ; ioAttackableItem::IsEnableExtendJump
EXTRN	?RecevieExtendJumpUse@ioAttackableItem@@UAEXPAVioBaseChar@@@Z:PROC ; ioAttackableItem::RecevieExtendJumpUse
EXTRN	?HasAniFile@ioAttackableItem@@UBE_NW4AttackType@@H@Z:PROC ; ioAttackableItem::HasAniFile
EXTRN	?HasEndAniFile@ioAttackableItem@@UBE_NW4AttackType@@H@Z:PROC ; ioAttackableItem::HasEndAniFile
EXTRN	?GetAttackAttribute@ioAttackableItem@@UBEPBUAttackAttribute@@W4AttackType@@H@Z:PROC ; ioAttackableItem::GetAttackAttribute
EXTRN	?GetAniFile@ioAttackableItem@@UBEABVioHashString@@W4AttackType@@H@Z:PROC ; ioAttackableItem::GetAniFile
EXTRN	?GetAttackAniRate@ioAttackableItem@@UBEMW4AttackType@@H@Z:PROC ; ioAttackableItem::GetAttackAniRate
EXTRN	?GetEndAniFile@ioAttackableItem@@UBEABVioHashString@@W4AttackType@@H@Z:PROC ; ioAttackableItem::GetEndAniFile
EXTRN	?GetAttackEndAniRate@ioAttackableItem@@UBEMW4AttackType@@H@Z:PROC ; ioAttackableItem::GetAttackEndAniRate
EXTRN	?GetAttackAttributeIdx@ioAttackableItem@@UBEABV?$vector@UWeaponInfo@@V?$allocator@UWeaponInfo@@@std@@@std@@W4AttackType@@H@Z:PROC ; ioAttackableItem::GetAttackAttributeIdx
EXTRN	?GetForceInfoList@ioAttackableItem@@UBEABV?$vector@UForceInfo@@V?$allocator@UForceInfo@@@std@@@std@@W4AttackType@@H@Z:PROC ; ioAttackableItem::GetForceInfoList
EXTRN	?GetAttackPreDelay@ioAttackableItem@@UBEKW4AttackType@@H@Z:PROC ; ioAttackableItem::GetAttackPreDelay
EXTRN	?GetAttackAnimationDelay@ioAttackableItem@@UBEKW4AttackType@@H@Z:PROC ; ioAttackableItem::GetAttackAnimationDelay
EXTRN	?GetMaxCombo@ioAttackableItem@@UBEHXZ:PROC	; ioAttackableItem::GetMaxCombo
EXTRN	?GetExtraDashAttackMax@ioAttackableItem@@UBEHXZ:PROC ; ioAttackableItem::GetExtraDashAttackMax
EXTRN	?HasJumpEndAnimation@ioAttackableItem@@UBE_N_NPAVioBaseChar@@@Z:PROC ; ioAttackableItem::HasJumpEndAnimation
EXTRN	?GetJumpEndAnimation@ioAttackableItem@@UBEABVioHashString@@_NPAVioBaseChar@@@Z:PROC ; ioAttackableItem::GetJumpEndAnimation
EXTRN	?ClearCancelInfo@ioAttackableItem@@MAEXXZ:PROC	; ioAttackableItem::ClearCancelInfo
EXTRN	?CheckCancelReserve@ioAttackableItem@@MAEXPAVioBaseChar@@@Z:PROC ; ioAttackableItem::CheckCancelReserve
EXTRN	?SetCurAttackAniForInputJump@ioAttackableItem@@MAEXABVioHashString@@M@Z:PROC ; ioAttackableItem::SetCurAttackAniForInputJump
EXTRN	?ProcessCancel@ioAttackableItem@@MAE_NPAVioBaseChar@@@Z:PROC ; ioAttackableItem::ProcessCancel
EXTRN	?ProcessCancelBySpeicalDash@ioAttackableItem@@MAE_NPAVioBaseChar@@@Z:PROC ; ioAttackableItem::ProcessCancelBySpeicalDash
EXTRN	?SetCurAttackAniForInputDashS@ioAttackableItem@@UAEXABVioHashString@@M@Z:PROC ; ioAttackableItem::SetCurAttackAniForInputDashS
EXTRN	?CheckCancelReserveByConditionalSpecialDash@ioAttackableItem@@UAEXPAVioBaseChar@@@Z:PROC ; ioAttackableItem::CheckCancelReserveByConditionalSpecialDash
EXTRN	?IsConditionalSpecialDashReserve@ioAttackableItem@@UAE_NPAVioBaseChar@@@Z:PROC ; ioAttackableItem::IsConditionalSpecialDashReserve
EXTRN	?SetChangeConditionalSpecialDash@ioAttackableItem@@UAEXPAVioBaseChar@@W4DirKeyInput@ioUserKeyInput@@H@Z:PROC ; ioAttackableItem::SetChangeConditionalSpecialDash
EXTRN	?CheckChangeWereWolfState@ioAttackableItem@@UAE_NPAVioBaseChar@@@Z:PROC ; ioAttackableItem::CheckChangeWereWolfState
EXTRN	?SetChangeWereWolfState@ioAttackableItem@@UAEXPAVioBaseChar@@@Z:PROC ; ioAttackableItem::SetChangeWereWolfState
EXTRN	?CheckReleaseWereWolfState@ioAttackableItem@@UAE_NPAVioBaseChar@@@Z:PROC ; ioAttackableItem::CheckReleaseWereWolfState
EXTRN	?ReleseWereWolfState@ioAttackableItem@@UAEXPAVioBaseChar@@@Z:PROC ; ioAttackableItem::ReleseWereWolfState
EXTRN	?ReleseWereWolfStateByOwner@ioAttackableItem@@UAEXPAVioBaseChar@@@Z:PROC ; ioAttackableItem::ReleseWereWolfStateByOwner
EXTRN	?IncreaseChangeDamage@ioAttackableItem@@UAEXMH_N@Z:PROC ; ioAttackableItem::IncreaseChangeDamage
EXTRN	?IncreaseChangeDamageByWeapon@ioAttackableItem@@UAEXM@Z:PROC ; ioAttackableItem::IncreaseChangeDamageByWeapon
EXTRN	?CheckIncreaseChangeDamage@ioAttackableItem@@UAEXPAVioBaseChar@@@Z:PROC ; ioAttackableItem::CheckIncreaseChangeDamage
EXTRN	?DecreaseChangeDamage@ioAttackableItem@@UAEXPAVioBaseChar@@@Z:PROC ; ioAttackableItem::DecreaseChangeDamage
EXTRN	?IsEnableActionStopDelay@ioAttackableItem@@UAE_NXZ:PROC ; ioAttackableItem::IsEnableActionStopDelay
EXTRN	?SetExtraGaugeTypeByWeapon@ioAttackableItem@@UAEXPAVioBaseChar@@HHM@Z:PROC ; ioAttackableItem::SetExtraGaugeTypeByWeapon
EXTRN	?SetUseExtraGauge@ioAttackableItem@@UAEXM@Z:PROC ; ioAttackableItem::SetUseExtraGauge
EXTRN	?InitExtraGauge@ioAttackableItem@@UAEXXZ:PROC	; ioAttackableItem::InitExtraGauge
EXTRN	?MaxExtraGauge@ioAttackableItem@@UAEXXZ:PROC	; ioAttackableItem::MaxExtraGauge
EXTRN	?GetMaxExtraGauge@ioAttackableItem@@UAEMXZ:PROC	; ioAttackableItem::GetMaxExtraGauge
EXTRN	?GetCurExtraGauge@ioAttackableItem@@UAEMXZ:PROC	; ioAttackableItem::GetCurExtraGauge
EXTRN	?SetCurExtraGauge@ioAttackableItem@@UAEXM@Z:PROC ; ioAttackableItem::SetCurExtraGauge
EXTRN	?ClearAirJump@ioAttackableItem@@UAEXXZ:PROC	; ioAttackableItem::ClearAirJump
EXTRN	?SetAirJump@ioAttackableItem@@UAEXPAVioBaseChar@@HM@Z:PROC ; ioAttackableItem::SetAirJump
EXTRN	?CheckAirJump@ioAttackableItem@@UAEXPAVioBaseChar@@@Z:PROC ; ioAttackableItem::CheckAirJump
EXTRN	?EquipObjectItemByAttakable@ioAttackableItem@@UAEXPAVioBaseChar@@PAVioItem@@@Z:PROC ; ioAttackableItem::EquipObjectItemByAttakable
EXTRN	?ReleaseObjectItemByAttack@ioAttackableItem@@UAEXPAVioBaseChar@@PAVioItem@@@Z:PROC ; ioAttackableItem::ReleaseObjectItemByAttack
EXTRN	?IsBuffFlyChange@ioAttackableItem@@UAE_NPAVioBaseChar@@@Z:PROC ; ioAttackableItem::IsBuffFlyChange
EXTRN	?GetAttackStateText@ioAttackableItem@@UBEPBDXZ:PROC ; ioAttackableItem::GetAttackStateText
EXTRN	?SetJumpLandingExtraState@ioAttackableItem@@UAE_NPAVioBaseChar@@@Z:PROC ; ioAttackableItem::SetJumpLandingExtraState
EXTRN	?ReleaseObjectState@ioWeaponItem@@UAEXPAVioBaseChar@@PAVioObjectItem@@@Z:PROC ; ioWeaponItem::ReleaseObjectState
EXTRN	?IsCmdCheckEnableTime@ioWeaponItem@@UAE_NXZ:PROC ; ioWeaponItem::IsCmdCheckEnableTime
EXTRN	?IsCmdSuccess@ioWeaponItem@@UAE_NXZ:PROC	; ioWeaponItem::IsCmdSuccess
EXTRN	?IsOneTimeWeaponItem@ioWeaponItem@@UBE_NXZ:PROC	; ioWeaponItem::IsOneTimeWeaponItem
EXTRN	?GetEquipMesh@ioWeaponItem@@UBEABVioHashString@@PAVioBaseChar@@@Z:PROC ; ioWeaponItem::GetEquipMesh
EXTRN	?IsCanSendControl@ioWeaponItem@@UBE_NXZ:PROC	; ioWeaponItem::IsCanSendControl
;	COMDAT ??_R2ioItem@@8
; File c:\program files (x86)\microsoft visual studio 10.0\vc\include\vector
rdata$r	SEGMENT
??_R2ioItem@@8 DD FLAT:??_R1A@?0A@EA@ioItem@@8		; ioItem::`RTTI Base Class Array'
rdata$r	ENDS
;	COMDAT ??_R3ioItem@@8
rdata$r	SEGMENT
??_R3ioItem@@8 DD 00H					; ioItem::`RTTI Class Hierarchy Descriptor'
	DD	00H
	DD	01H
	DD	FLAT:??_R2ioItem@@8
rdata$r	ENDS
;	COMDAT ??_R1A@?0A@EA@ioItem@@8
rdata$r	SEGMENT
??_R1A@?0A@EA@ioItem@@8 DD FLAT:??_R0?AVioItem@@@8	; ioItem::`RTTI Base Class Descriptor at (0,-1,0,64)'
	DD	00H
	DD	00H
	DD	0ffffffffH
	DD	00H
	DD	040H
	DD	FLAT:??_R3ioItem@@8
rdata$r	ENDS
;	COMDAT ??_R2ioAttackableItem@@8
rdata$r	SEGMENT
??_R2ioAttackableItem@@8 DD FLAT:??_R1A@?0A@EA@ioAttackableItem@@8 ; ioAttackableItem::`RTTI Base Class Array'
	DD	FLAT:??_R1A@?0A@EA@ioItem@@8
rdata$r	ENDS
;	COMDAT ??_R3ioAttackableItem@@8
rdata$r	SEGMENT
??_R3ioAttackableItem@@8 DD 00H				; ioAttackableItem::`RTTI Class Hierarchy Descriptor'
	DD	00H
	DD	02H
	DD	FLAT:??_R2ioAttackableItem@@8
rdata$r	ENDS
;	COMDAT ??_R0?AVioAttackableItem@@@8
_DATA	SEGMENT
??_R0?AVioAttackableItem@@@8 DD FLAT:??_7type_info@@6B@	; ioAttackableItem `RTTI Type Descriptor'
	DD	00H
	DB	'.?AVioAttackableItem@@', 00H
_DATA	ENDS
;	COMDAT ??_R1A@?0A@EA@ioAttackableItem@@8
rdata$r	SEGMENT
??_R1A@?0A@EA@ioAttackableItem@@8 DD FLAT:??_R0?AVioAttackableItem@@@8 ; ioAttackableItem::`RTTI Base Class Descriptor at (0,-1,0,64)'
	DD	01H
	DD	00H
	DD	0ffffffffH
	DD	00H
	DD	040H
	DD	FLAT:??_R3ioAttackableItem@@8
rdata$r	ENDS
;	COMDAT ??_R2ioWeaponItem@@8
rdata$r	SEGMENT
??_R2ioWeaponItem@@8 DD FLAT:??_R1A@?0A@EA@ioWeaponItem@@8 ; ioWeaponItem::`RTTI Base Class Array'
	DD	FLAT:??_R1A@?0A@EA@ioAttackableItem@@8
	DD	FLAT:??_R1A@?0A@EA@ioItem@@8
rdata$r	ENDS
;	COMDAT ??_R3ioWeaponItem@@8
rdata$r	SEGMENT
??_R3ioWeaponItem@@8 DD 00H				; ioWeaponItem::`RTTI Class Hierarchy Descriptor'
	DD	00H
	DD	03H
	DD	FLAT:??_R2ioWeaponItem@@8
rdata$r	ENDS
;	COMDAT ??_R1A@?0A@EA@ioWeaponItem@@8
rdata$r	SEGMENT
??_R1A@?0A@EA@ioWeaponItem@@8 DD FLAT:??_R0?AVioWeaponItem@@@8 ; ioWeaponItem::`RTTI Base Class Descriptor at (0,-1,0,64)'
	DD	02H
	DD	00H
	DD	0ffffffffH
	DD	00H
	DD	040H
	DD	FLAT:??_R3ioWeaponItem@@8
rdata$r	ENDS
;	COMDAT ??_R1A@?0A@EA@ioTrinityItem@@8
rdata$r	SEGMENT
??_R1A@?0A@EA@ioTrinityItem@@8 DD FLAT:??_R0?AVioTrinityItem@@@8 ; ioTrinityItem::`RTTI Base Class Descriptor at (0,-1,0,64)'
	DD	03H
	DD	00H
	DD	0ffffffffH
	DD	00H
	DD	040H
	DD	FLAT:??_R3ioTrinityItem@@8
rdata$r	ENDS
;	COMDAT ??_R2ioTrinityItem@@8
rdata$r	SEGMENT
??_R2ioTrinityItem@@8 DD FLAT:??_R1A@?0A@EA@ioTrinityItem@@8 ; ioTrinityItem::`RTTI Base Class Array'
	DD	FLAT:??_R1A@?0A@EA@ioWeaponItem@@8
	DD	FLAT:??_R1A@?0A@EA@ioAttackableItem@@8
	DD	FLAT:??_R1A@?0A@EA@ioItem@@8
rdata$r	ENDS
;	COMDAT ??_R3ioTrinityItem@@8
rdata$r	SEGMENT
??_R3ioTrinityItem@@8 DD 00H				; ioTrinityItem::`RTTI Class Hierarchy Descriptor'
	DD	00H
	DD	04H
	DD	FLAT:??_R2ioTrinityItem@@8
rdata$r	ENDS
;	COMDAT ??_R4ioTrinityItem@@6B@
rdata$r	SEGMENT
??_R4ioTrinityItem@@6B@ DD 00H				; ioTrinityItem::`RTTI Complete Object Locator'
	DD	00H
	DD	00H
	DD	FLAT:??_R0?AVioTrinityItem@@@8
	DD	FLAT:??_R3ioTrinityItem@@8
rdata$r	ENDS
;	COMDAT ??_7ioTrinityItem@@6B@
CONST	SEGMENT
??_7ioTrinityItem@@6B@ DD FLAT:??_R4ioTrinityItem@@6B@	; ioTrinityItem::`vftable'
	DD	FLAT:?FindFieldEntityGrp@ioItem@@MBEABVioHashString@@XZ
	DD	FLAT:?LoadProperty@ioTrinityItem@@UAEXAAVioINILoader@@@Z
	DD	FLAT:?GetType@ioWeaponItem@@UBE?AW4ItemType@ioItem@@XZ
	DD	FLAT:?Clone@ioTrinityItem@@UAEPAVioItem@@XZ
	DD	FLAT:?UseCreateIndexItem@ioItem@@UBE_NXZ
	DD	FLAT:?GetSetFocusColor@ioItem@@UBEKXZ
	DD	FLAT:?Initialize@ioItem@@UAEXABVioHashString@@PAVioPlayStage@@@Z
	DD	FLAT:?InitializeBeforeEquip@ioItem@@UAEXABVioHashString@@PAVioPlayStage@@@Z
	DD	FLAT:?OnEquiped@ioTrinityItem@@UAEXPAVioBaseChar@@@Z
	DD	FLAT:?OnReleased@ioTrinityItem@@UAEXPAVioBaseChar@@@Z
	DD	FLAT:?SetExtendEquipEffect@ioItem@@UAEXPAVioBaseChar@@@Z
	DD	FLAT:?ReleaseExtendEquipEffect@ioItem@@UAEXPAVioBaseChar@@@Z
	DD	FLAT:?AddGlowLine@ioWeaponItem@@UAEXPAVioBaseChar@@@Z
	DD	FLAT:?RemoveGlowLine@ioWeaponItem@@UAEXPAVioBaseChar@@@Z
	DD	FLAT:?GetTargetName@ioItem@@UAE?AVioHashString@@XZ
	DD	FLAT:?ClearTarget@ioItem@@UAEXXZ
	DD	FLAT:?SetItemType@ioWeaponItem@@UAEXXZ
	DD	FLAT:?UpdateExtraData@ioTrinityItem@@UAEXPAVioBaseChar@@@Z
	DD	FLAT:?CheckWeaponDefenseState@ioItem@@UAEXPAVioBaseChar@@@Z
	DD	FLAT:?CheckWoundedState@ioItem@@UAEXPAVioBaseChar@@@Z
	DD	FLAT:?SetVisible@ioTrinityItem@@UAEXPAVioBaseChar@@_N@Z
	DD	FLAT:?UpdateSkillGauge@ioItem@@UAEXPAVioBaseChar@@M_N@Z
	DD	FLAT:?IsEnableExtraGauge@ioItem@@UAE_NPAVioBaseChar@@@Z
	DD	FLAT:?GetExtraGauge@ioItem@@UAEMXZ
	DD	FLAT:?ReduceNeedGauge@ioItem@@UAEXMPAVioBaseChar@@@Z
	DD	FLAT:?GetCurBullet@ioTrinityItem@@UAEHXZ
	DD	FLAT:?GetMaxBullet@ioTrinityItem@@UAEHXZ
	DD	FLAT:?SetCurBullet@ioTrinityItem@@UAEXH@Z
	DD	FLAT:?GetCurSecoundBullet@ioItem@@UAEHXZ
	DD	FLAT:?GetMaxSecoundBullet@ioItem@@UAEHXZ
	DD	FLAT:?SetCurSecoundBullet@ioItem@@UAEXH@Z
	DD	FLAT:?GetGrowthInfoNum@ioItem@@UBEHH@Z
	DD	FLAT:?GetGrowthInfoNumByType@ioItem@@UBEHHAAH@Z
	DD	FLAT:?ClearCurChargeRateForSkill@ioItem@@UAEXXZ
	DD	FLAT:?GetChargeDamageRateForSkill@ioItem@@UAEMXZ
	DD	FLAT:?GetChargeForceRateForSkill@ioItem@@UAEMXZ
	DD	FLAT:?GetChargeBlowRateForSkill@ioItem@@UAEMXZ
	DD	FLAT:?GetChargeRangeRateForSkill@ioItem@@UAEMXZ
	DD	FLAT:?GetChargeSpeedRateForSkill@ioItem@@UAEMXZ
	DD	FLAT:?GetChargeFloatRateForSkill@ioItem@@UAEMXZ
	DD	FLAT:?GetChargeScaleRateForSkill@ioItem@@UAEMXZ
	DD	FLAT:?GetChargeExplosionRateForSkill@ioItem@@UAEMXZ
	DD	FLAT:?GetChargeWoundedTimeRateForSkill@ioItem@@UAEMXZ
	DD	FLAT:?SetCurEquipEffect@ioItem@@UAEX_N@Z
	DD	FLAT:?SetCostume@ioItem@@UAEXH_N@Z
	DD	FLAT:??_EioTrinityItem@@UAEPAXI@Z
	DD	FLAT:?IsCanFire@ioAttackableItem@@UBE_NPBVioBaseChar@@H_N@Z
	DD	FLAT:?CallItemProcess@ioAttackableItem@@UAEXPAVioBaseChar@@@Z
	DD	FLAT:?SetExtraInfoToWeapon@ioTrinityItem@@UAEXPAVioWeapon@@_N@Z
	DD	FLAT:?CheckChargeInfo@ioAttackableItem@@UAEXPAVioWeapon@@_N@Z
	DD	FLAT:?SetExtendDefenseState@ioAttackableItem@@UAE_NPAVioBaseChar@@@Z
	DD	FLAT:?CheckExtendDefenseState@ioAttackableItem@@UAEXPAVioBaseChar@@@Z
	DD	FLAT:?CheckDefenseMoveAniState@ioAttackableItem@@UAEXPAVioBaseChar@@@Z
	DD	FLAT:?SetDodgeDefenseState@ioAttackableItem@@UAE_NPAVioBaseChar@@@Z
	DD	FLAT:?CheckDodgeDefenseState@ioAttackableItem@@UAEXPAVioBaseChar@@@Z
	DD	FLAT:?ApplyDodgeDefenseState@ioAttackableItem@@UAEXPAVioBaseChar@@AAVSP2Packet@@@Z
	DD	FLAT:?SetDefenseAttackState@ioAttackableItem@@UAE_NPAVioBaseChar@@@Z
	DD	FLAT:?CheckDefenseAttackState@ioAttackableItem@@UAEXPAVioBaseChar@@@Z
	DD	FLAT:?ApplyDefenseAttackState@ioAttackableItem@@UAEXPAVioBaseChar@@AAVSP2Packet@@@Z
	DD	FLAT:?SetExtendDashState@ioAttackableItem@@UAE_NPAVioBaseChar@@@Z
	DD	FLAT:?CheckExtendDashState@ioAttackableItem@@UAEXPAVioBaseChar@@@Z
	DD	FLAT:?SetNormalAttack@ioTrinityItem@@UAEXPAVioBaseChar@@H@Z
	DD	FLAT:?CheckNormalAttack@ioTrinityItem@@UAEXPAVioBaseChar@@@Z
	DD	FLAT:?SetJumpAttack@ioAttackableItem@@UAE_NPAVioBaseChar@@HMW4AttackType@@@Z
	DD	FLAT:?CheckJumpAttack@ioAttackableItem@@UAEXPAVioBaseChar@@@Z
	DD	FLAT:?SetJumpReloadState@ioAttackableItem@@UAE_NPAVioBaseChar@@@Z
	DD	FLAT:?SetJumpReload@ioAttackableItem@@UAE_NPAVioBaseChar@@@Z
	DD	FLAT:?CheckJumpReloadState@ioAttackableItem@@UAEXPAVioBaseChar@@@Z
	DD	FLAT:?CheckJumpReloadReserve@ioAttackableItem@@UAEXPAVioBaseChar@@@Z
	DD	FLAT:?ProcessJumpReloadState@ioAttackableItem@@UAEXPAVioBaseChar@@@Z
	DD	FLAT:?ApplyJumpReload@ioAttackableItem@@UAEXPAVioBaseChar@@AAVSP2Packet@@@Z
	DD	FLAT:?OnItemGaugeOK@ioTrinityItem@@UAEXPAVioBaseChar@@AAVSP2Packet@@@Z
	DD	FLAT:?OnItemGaugeCancel@ioTrinityItem@@UAEXPAVioBaseChar@@AAVSP2Packet@@@Z
	DD	FLAT:?OnEndExtendDefense@ioAttackableItem@@UAEXPAVioBaseChar@@@Z
	DD	FLAT:?OnEndNormalAttack@ioAttackableItem@@UAEXPAVioBaseChar@@@Z
	DD	FLAT:?OnEndExtendAttack@ioTrinityItem@@UAEXPAVioBaseChar@@_N@Z
	DD	FLAT:?OnEndExtendJump@ioAttackableItem@@UAEXPAVioBaseChar@@@Z
	DD	FLAT:?FillNormalAttackExtraInfo@ioAttackableItem@@UAEXAAVSP2Packet@@@Z
	DD	FLAT:?ApplyNormalAttackExtraInfo@ioAttackableItem@@UAEXAAVSP2Packet@@@Z
	DD	FLAT:?CheckOnHand@ioAttackableItem@@UAE_NXZ
	DD	FLAT:?CheckAimState@ioAttackableItem@@UAE_N_N@Z
	DD	FLAT:?SetAimState@ioAttackableItem@@UAE_NPAVioBaseChar@@@Z
	DD	FLAT:?CheckLanding@ioAttackableItem@@UAE_NPAVioBaseChar@@@Z
	DD	FLAT:?SetNoneState@ioAttackableItem@@UAEXPAVioBaseChar@@H@Z
	DD	FLAT:?CheckExtendDefenseEnable@ioAttackableItem@@UAE_NPAVioBaseChar@@@Z
	DD	FLAT:?IsChargeAttackState@ioTrinityItem@@UAE_NPAVioBaseChar@@@Z
	DD	FLAT:?IsMoveAttackState@ioAttackableItem@@UAE_NPAVioBaseChar@@@Z
	DD	FLAT:?IsCanUpdateGauge@ioAttackableItem@@UAE_NPAVioBaseChar@@@Z
	DD	FLAT:?IsNoGhostWalk@ioAttackableItem@@UAE_NPAVioBaseChar@@@Z
	DD	FLAT:?IsEnableAttackDashCheck@ioAttackableItem@@UAE_NPAVioBaseChar@@_N@Z
	DD	FLAT:?IsEnableItemDashCheck@ioAttackableItem@@UAE_NPAVioBaseChar@@_N@Z
	DD	FLAT:?IsEnableAttackRotateCheck@ioAttackableItem@@UAE_NPAVioBaseChar@@@Z
	DD	FLAT:?IsEnableChargeDefenseCheck@ioAttackableItem@@UAE_NXZ
	DD	FLAT:?CheckAimJumpState@ioAttackableItem@@UAEXPAVioBaseChar@@@Z
	DD	FLAT:?GetJumppingAnimation@ioAttackableItem@@UBEABVioHashString@@XZ
	DD	FLAT:?GetExtendJumppingAnimation@ioAttackableItem@@UBEABVioHashString@@XZ
	DD	FLAT:?CheckRetreatState@ioAttackableItem@@UAEXPAVioBaseChar@@@Z
	DD	FLAT:?SetNextItemState@ioAttackableItem@@UAEXPAVioBaseChar@@0PAVioWeapon@@_NM@Z
	DD	FLAT:?WeaponWounded@ioWeaponItem@@UAEXPAVioWeapon@@PAVioBaseChar@@@Z
	DD	FLAT:?WeaponMapColDead@ioAttackableItem@@UAEXPAVioWeapon@@@Z
	DD	FLAT:?SetDefenceCounterState@ioAttackableItem@@UAEXPAVioBaseChar@@@Z
	DD	FLAT:?IsUseDefenceCounterAttack@ioAttackableItem@@UAE_NXZ
	DD	FLAT:?ProcessDefenceCounterAttack@ioAttackableItem@@UAEXPAVioBaseChar@@@Z
	DD	FLAT:?IsUseDefenceCounterAttackEndDash@ioAttackableItem@@UAE_NXZ
	DD	FLAT:?ProcessExtraJump@ioAttackableItem@@UAEXPAVioBaseChar@@@Z
	DD	FLAT:?SetEndGrappling@ioAttackableItem@@UAEXPAVioBaseChar@@@Z
	DD	FLAT:?ClearKeyReserve@ioAttackableItem@@MAEXXZ
	DD	FLAT:?CheckReserve@ioAttackableItem@@MAEXPAVioBaseChar@@@Z
	DD	FLAT:?ProcessReserveKeyInput@ioAttackableItem@@MAEXPAVioBaseChar@@@Z
	DD	FLAT:?SetJumpState@ioAttackableItem@@UAEXXZ
	DD	FLAT:?SetJumpping@ioAttackableItem@@UAEXPAVioBaseChar@@_N@Z
	DD	FLAT:?ProcessJumpping@ioAttackableItem@@UAEXPAVioBaseChar@@M@Z
	DD	FLAT:?ProcessJumppingByNoNeedProcess@ioAttackableItem@@UAEXPAVioBaseChar@@M@Z
	DD	FLAT:?ProcessLanding@ioAttackableItem@@UAEXPAVioBaseChar@@@Z
	DD	FLAT:?ProcessJumpAttack@ioAttackableItem@@UAEXPAVioBaseChar@@M@Z
	DD	FLAT:?ProcessAimJump@ioAttackableItem@@UAE_NPAVioBaseChar@@M@Z
	DD	FLAT:?ApplyJump@ioAttackableItem@@UAEXPAVioBaseChar@@AAVSP2Packet@@@Z
	DD	FLAT:?ApplyDash@ioAttackableItem@@UAEXPAVioBaseChar@@AAVSP2Packet@@@Z
	DD	FLAT:?ApplyCounterAttack@ioAttackableItem@@UAEXPAVioBaseChar@@AAVSP2Packet@@@Z
	DD	FLAT:?CheckComboJumpAttack@ioAttackableItem@@UAEXPAVioBaseChar@@@Z
	DD	FLAT:?SetFlashJumpAttack@ioAttackableItem@@UAE_NPAVioBaseChar@@@Z
	DD	FLAT:?SetComboFlashAttack@ioAttackableItem@@UAE_NPAVioBaseChar@@@Z
	DD	FLAT:?SetCollectJumpAttack@ioAttackableItem@@UAE_NPAVioBaseChar@@@Z
	DD	FLAT:?SetPowerChargeJumpAttack@ioAttackableItem@@UAE_NPAVioBaseChar@@@Z
	DD	FLAT:?GetAttackSpeedRate@ioTrinityItem@@UBEMXZ
	DD	FLAT:?GetExtraJumpSpeedRate@ioAttackableItem@@UBEMABUD3DXVECTOR3@@ABUD3DXQUATERNION@@@Z
	DD	FLAT:?IsEnableExtendJump@ioAttackableItem@@UAE_NXZ
	DD	FLAT:?RecevieExtendJumpUse@ioAttackableItem@@UAEXPAVioBaseChar@@@Z
	DD	FLAT:?HasAniFile@ioAttackableItem@@UBE_NW4AttackType@@H@Z
	DD	FLAT:?HasEndAniFile@ioAttackableItem@@UBE_NW4AttackType@@H@Z
	DD	FLAT:?GetAttackAttribute@ioAttackableItem@@UBEPBUAttackAttribute@@W4AttackType@@H@Z
	DD	FLAT:?GetAniFile@ioAttackableItem@@UBEABVioHashString@@W4AttackType@@H@Z
	DD	FLAT:?GetAttackAniRate@ioAttackableItem@@UBEMW4AttackType@@H@Z
	DD	FLAT:?GetEndAniFile@ioAttackableItem@@UBEABVioHashString@@W4AttackType@@H@Z
	DD	FLAT:?GetAttackEndAniRate@ioAttackableItem@@UBEMW4AttackType@@H@Z
	DD	FLAT:?GetAttackAttributeIdx@ioAttackableItem@@UBEABV?$vector@UWeaponInfo@@V?$allocator@UWeaponInfo@@@std@@@std@@W4AttackType@@H@Z
	DD	FLAT:?GetForceInfoList@ioAttackableItem@@UBEABV?$vector@UForceInfo@@V?$allocator@UForceInfo@@@std@@@std@@W4AttackType@@H@Z
	DD	FLAT:?GetAttackPreDelay@ioAttackableItem@@UBEKW4AttackType@@H@Z
	DD	FLAT:?GetAttackAnimationDelay@ioAttackableItem@@UBEKW4AttackType@@H@Z
	DD	FLAT:?GetMaxCombo@ioAttackableItem@@UBEHXZ
	DD	FLAT:?GetExtraDashAttackMax@ioAttackableItem@@UBEHXZ
	DD	FLAT:?HasJumpEndAnimation@ioAttackableItem@@UBE_N_NPAVioBaseChar@@@Z
	DD	FLAT:?GetJumpEndAnimation@ioAttackableItem@@UBEABVioHashString@@_NPAVioBaseChar@@@Z
	DD	FLAT:?ClearCancelInfo@ioAttackableItem@@MAEXXZ
	DD	FLAT:?CheckCancelReserve@ioAttackableItem@@MAEXPAVioBaseChar@@@Z
	DD	FLAT:?SetCurAttackAniForInputJump@ioAttackableItem@@MAEXABVioHashString@@M@Z
	DD	FLAT:?ProcessCancel@ioAttackableItem@@MAE_NPAVioBaseChar@@@Z
	DD	FLAT:?ProcessCancelBySpeicalDash@ioAttackableItem@@MAE_NPAVioBaseChar@@@Z
	DD	FLAT:?SetCurAttackAniForInputDashS@ioAttackableItem@@UAEXABVioHashString@@M@Z
	DD	FLAT:?CheckCancelReserveByConditionalSpecialDash@ioAttackableItem@@UAEXPAVioBaseChar@@@Z
	DD	FLAT:?IsConditionalSpecialDashReserve@ioAttackableItem@@UAE_NPAVioBaseChar@@@Z
	DD	FLAT:?SetChangeConditionalSpecialDash@ioAttackableItem@@UAEXPAVioBaseChar@@W4DirKeyInput@ioUserKeyInput@@H@Z
	DD	FLAT:?CheckChangeWereWolfState@ioAttackableItem@@UAE_NPAVioBaseChar@@@Z
	DD	FLAT:?SetChangeWereWolfState@ioAttackableItem@@UAEXPAVioBaseChar@@@Z
	DD	FLAT:?CheckReleaseWereWolfState@ioAttackableItem@@UAE_NPAVioBaseChar@@@Z
	DD	FLAT:?ReleseWereWolfState@ioAttackableItem@@UAEXPAVioBaseChar@@@Z
	DD	FLAT:?ReleseWereWolfStateByOwner@ioAttackableItem@@UAEXPAVioBaseChar@@@Z
	DD	FLAT:?IncreaseChangeDamage@ioAttackableItem@@UAEXMH_N@Z
	DD	FLAT:?IncreaseChangeDamageByWeapon@ioAttackableItem@@UAEXM@Z
	DD	FLAT:?CheckIncreaseChangeDamage@ioAttackableItem@@UAEXPAVioBaseChar@@@Z
	DD	FLAT:?DecreaseChangeDamage@ioAttackableItem@@UAEXPAVioBaseChar@@@Z
	DD	FLAT:?IsEnableActionStopDelay@ioAttackableItem@@UAE_NXZ
	DD	FLAT:?SetExtraGaugeTypeByWeapon@ioAttackableItem@@UAEXPAVioBaseChar@@HHM@Z
	DD	FLAT:?SetUseExtraGauge@ioAttackableItem@@UAEXM@Z
	DD	FLAT:?InitExtraGauge@ioAttackableItem@@UAEXXZ
	DD	FLAT:?MaxExtraGauge@ioAttackableItem@@UAEXXZ
	DD	FLAT:?GetMaxExtraGauge@ioAttackableItem@@UAEMXZ
	DD	FLAT:?GetCurExtraGauge@ioAttackableItem@@UAEMXZ
	DD	FLAT:?SetCurExtraGauge@ioAttackableItem@@UAEXM@Z
	DD	FLAT:?GetAutoTargetValue@ioTrinityItem@@UAEXPAVioBaseChar@@AAM11W4AutoTargetType@@@Z
	DD	FLAT:?ClearAirJump@ioAttackableItem@@UAEXXZ
	DD	FLAT:?SetAirJump@ioAttackableItem@@UAEXPAVioBaseChar@@HM@Z
	DD	FLAT:?CheckAirJump@ioAttackableItem@@UAEXPAVioBaseChar@@@Z
	DD	FLAT:?IsAutoTarget@ioAttackableItem@@UBE_NXZ
	DD	FLAT:?EquipObjectItemByAttakable@ioAttackableItem@@UAEXPAVioBaseChar@@PAVioItem@@@Z
	DD	FLAT:?ReleaseObjectItemByAttack@ioAttackableItem@@UAEXPAVioBaseChar@@PAVioItem@@@Z
	DD	FLAT:?IsBuffFlyChange@ioAttackableItem@@UAE_NPAVioBaseChar@@@Z
	DD	FLAT:?GetAttackStateText@ioAttackableItem@@UBEPBDXZ
	DD	FLAT:?SetJumpLandingExtraState@ioAttackableItem@@UAE_NPAVioBaseChar@@@Z
	DD	FLAT:?IsWoundAfterUseExtendState@ioAttackableItem@@UAE_NXZ
	DD	FLAT:?CheckWoundAfterUseExtendState@ioAttackableItem@@UAE_NPAVioBaseChar@@W4BlowTargetType@@@Z
	DD	FLAT:?IsCharSkipState@ioAttackableItem@@UAE_NPBVioBaseChar@@@Z
	DD	FLAT:?ReleaseObjectState@ioWeaponItem@@UAEXPAVioBaseChar@@PAVioObjectItem@@@Z
	DD	FLAT:?IsCmdCheckEnableTime@ioWeaponItem@@UAE_NXZ
	DD	FLAT:?IsCmdSuccess@ioWeaponItem@@UAE_NXZ
	DD	FLAT:?IsOneTimeWeaponItem@ioWeaponItem@@UBE_NXZ
	DD	FLAT:?GetEquipMesh@ioWeaponItem@@UBEABVioHashString@@PAVioBaseChar@@@Z
	DD	FLAT:?IsCanSendControl@ioWeaponItem@@UBE_NXZ
	DD	FLAT:?GetSubType@ioTrinityItem@@UBE?AW4WeaponSubType@ioWeaponItem@@XZ
CONST	ENDS
;	COMDAT xdata$x
xdata$x	SEGMENT
__ehfuncinfo$??1ioTrinityItem@@UAE@XZ DD 019930522H
	DD	06H
	DD	FLAT:__unwindtable$??1ioTrinityItem@@UAE@XZ
	DD	2 DUP(00H)
	DD	2 DUP(00H)
	DD	00H
	DD	01H
__unwindtable$??1ioTrinityItem@@UAE@XZ DD 0ffffffffH
	DD	FLAT:__unwindfunclet$??1ioTrinityItem@@UAE@XZ$0
	DD	00H
	DD	FLAT:__unwindfunclet$??1ioTrinityItem@@UAE@XZ$1
	DD	01H
	DD	FLAT:__unwindfunclet$??1ioTrinityItem@@UAE@XZ$2
	DD	02H
	DD	FLAT:__unwindfunclet$??1ioTrinityItem@@UAE@XZ$3
	DD	03H
	DD	FLAT:__unwindfunclet$??1ioTrinityItem@@UAE@XZ$4
	DD	04H
	DD	FLAT:__unwindfunclet$??1ioTrinityItem@@UAE@XZ$5
; Function compile flags: /Ogsp
; File d:\lost saga for developer\youtube\tutorial\source\src\lsclient\iotrinityitem.cpp
xdata$x	ENDS
;	COMDAT ??1ioTrinityItem@@UAE@XZ
_TEXT	SEGMENT
_this$ = -16						; size = 4
__$EHRec$ = -12						; size = 12
??1ioTrinityItem@@UAE@XZ PROC				; ioTrinityItem::~ioTrinityItem, COMDAT
; _this$ = ecx

; 56   : {

  00000	6a 04		 push	 4
  00002	b8 00 00 00 00	 mov	 eax, __ehhandler$??1ioTrinityItem@@UAE@XZ
  00007	e8 00 00 00 00	 call	 __EH_prolog3
  0000c	8b f1		 mov	 esi, ecx
  0000e	89 75 f0	 mov	 DWORD PTR _this$[ebp], esi
  00011	c7 06 00 00 00
	00		 mov	 DWORD PTR [esi], OFFSET ??_7ioTrinityItem@@6B@

; 57   : }

  00017	bf 00 00 00 00	 mov	 edi, OFFSET ??_7?$CEncrypt@M@@6B@
  0001c	8d 8e d8 20 00
	00		 lea	 ecx, DWORD PTR [esi+8408]
  00022	c7 45 fc 05 00
	00 00		 mov	 DWORD PTR __$EHRec$[ebp+8], 5
  00029	89 be cc 20 00
	00		 mov	 DWORD PTR [esi+8396], edi
  0002f	e8 00 00 00 00	 call	 ??1ccddaabb@@UAE@XZ	; ccddaabb::~ccddaabb
  00034	8d 8e a8 20 00
	00		 lea	 ecx, DWORD PTR [esi+8360]
  0003a	c6 45 fc 04	 mov	 BYTE PTR __$EHRec$[ebp+8], 4
  0003e	89 be 9c 20 00
	00		 mov	 DWORD PTR [esi+8348], edi
  00044	e8 00 00 00 00	 call	 ??1ccddaabb@@UAE@XZ	; ccddaabb::~ccddaabb
  00049	8d 8e 78 20 00
	00		 lea	 ecx, DWORD PTR [esi+8312]
  0004f	c6 45 fc 03	 mov	 BYTE PTR __$EHRec$[ebp+8], 3
  00053	89 be 6c 20 00
	00		 mov	 DWORD PTR [esi+8300], edi
  00059	e8 00 00 00 00	 call	 ??1ccddaabb@@UAE@XZ	; ccddaabb::~ccddaabb
  0005e	8d 8e 90 19 00
	00		 lea	 ecx, DWORD PTR [esi+6544]
  00064	c6 45 fc 02	 mov	 BYTE PTR __$EHRec$[ebp+8], 2
  00068	e8 00 00 00 00	 call	 ??1tagTrinityInfo@@QAE@XZ
  0006d	8d 8e 68 19 00
	00		 lea	 ecx, DWORD PTR [esi+6504]
  00073	c6 45 fc 01	 mov	 BYTE PTR __$EHRec$[ebp+8], 1
  00077	ff 15 00 00 00
	00		 call	 DWORD PTR __imp_??1ioHashString@@QAE@XZ
  0007d	8d 8e 58 19 00
	00		 lea	 ecx, DWORD PTR [esi+6488]
  00083	c6 45 fc 00	 mov	 BYTE PTR __$EHRec$[ebp+8], 0
  00087	e8 00 00 00 00	 call	 ?_Tidy@?$vector@VioHashString@@V?$allocator@VioHashString@@@std@@@std@@IAEXXZ ; std::vector<ioHashString,std::allocator<ioHashString> >::_Tidy
  0008c	83 4d fc ff	 or	 DWORD PTR __$EHRec$[ebp+8], -1
  00090	8b ce		 mov	 ecx, esi
  00092	e8 00 00 00 00	 call	 ??1ioWeaponItem@@UAE@XZ	; ioWeaponItem::~ioWeaponItem
  00097	e8 00 00 00 00	 call	 __EH_epilog3
  0009c	c3		 ret	 0
_TEXT	ENDS
;	COMDAT text$x
text$x	SEGMENT
__unwindfunclet$??1ioTrinityItem@@UAE@XZ$0:
  00000	8b 4d f0	 mov	 ecx, DWORD PTR _this$[ebp]
  00003	e9 00 00 00 00	 jmp	 ??1ioWeaponItem@@UAE@XZ	; ioWeaponItem::~ioWeaponItem
__unwindfunclet$??1ioTrinityItem@@UAE@XZ$1:
  00008	8b 4d f0	 mov	 ecx, DWORD PTR _this$[ebp]
  0000b	81 c1 58 19 00
	00		 add	 ecx, 6488		; 00001958H
  00011	e9 00 00 00 00	 jmp	 ??1?$vector@VioHashString@@V?$allocator@VioHashString@@@std@@@std@@QAE@XZ ; std::vector<ioHashString,std::allocator<ioHashString> >::~vector<ioHashString,std::allocator<ioHashString> >
__unwindfunclet$??1ioTrinityItem@@UAE@XZ$2:
  00016	8b 4d f0	 mov	 ecx, DWORD PTR _this$[ebp]
  00019	81 c1 68 19 00
	00		 add	 ecx, 6504		; 00001968H
  0001f	ff 25 00 00 00
	00		 jmp	 DWORD PTR __imp_??1ioHashString@@QAE@XZ
__unwindfunclet$??1ioTrinityItem@@UAE@XZ$3:
  00025	8b 4d f0	 mov	 ecx, DWORD PTR _this$[ebp]
  00028	81 c1 90 19 00
	00		 add	 ecx, 6544		; 00001990H
  0002e	e9 00 00 00 00	 jmp	 ??1tagTrinityInfo@@QAE@XZ
__unwindfunclet$??1ioTrinityItem@@UAE@XZ$4:
  00033	8b 4d f0	 mov	 ecx, DWORD PTR _this$[ebp]
  00036	81 c1 6c 20 00
	00		 add	 ecx, 8300		; 0000206cH
  0003c	e9 00 00 00 00	 jmp	 ??1?$CEncrypt@M@@UAE@XZ	; CEncrypt<float>::~CEncrypt<float>
__unwindfunclet$??1ioTrinityItem@@UAE@XZ$5:
  00041	8b 4d f0	 mov	 ecx, DWORD PTR _this$[ebp]
  00044	81 c1 9c 20 00
	00		 add	 ecx, 8348		; 0000209cH
  0004a	e9 00 00 00 00	 jmp	 ??1?$CEncrypt@M@@UAE@XZ	; CEncrypt<float>::~CEncrypt<float>
__ehhandler$??1ioTrinityItem@@UAE@XZ:
  0004f	8b 54 24 08	 mov	 edx, DWORD PTR [esp+8]
  00053	8d 42 0c	 lea	 eax, DWORD PTR [edx+12]
  00056	8b 4a ec	 mov	 ecx, DWORD PTR [edx-20]
  00059	33 c8		 xor	 ecx, eax
  0005b	e8 00 00 00 00	 call	 @__security_check_cookie@4
  00060	b8 00 00 00 00	 mov	 eax, OFFSET __ehfuncinfo$??1ioTrinityItem@@UAE@XZ
  00065	e9 00 00 00 00	 jmp	 ___CxxFrameHandler3
text$x	ENDS
??1ioTrinityItem@@UAE@XZ ENDP				; ioTrinityItem::~ioTrinityItem
; Function compile flags: /Ogsp
; File d:\lost saga for developer\youtube\tutorial\source\src\lsclient\ioitem.h
;	COMDAT ?IsEnableExtraGauge@ioItem@@UAE_NPAVioBaseChar@@@Z
_TEXT	SEGMENT
_pChar$ = 8						; size = 4
?IsEnableExtraGauge@ioItem@@UAE_NPAVioBaseChar@@@Z PROC	; ioItem::IsEnableExtraGauge, COMDAT
; _this$ = ecx

; 375  : 	virtual bool IsEnableExtraGauge( ioBaseChar *pChar ) { return true; }

  00000	b0 01		 mov	 al, 1
  00002	c2 04 00	 ret	 4
?IsEnableExtraGauge@ioItem@@UAE_NPAVioBaseChar@@@Z ENDP	; ioItem::IsEnableExtraGauge
; Function compile flags: /Ogsp
_TEXT	ENDS
;	COMDAT ?GetExtraGauge@ioItem@@UAEMXZ
_TEXT	SEGMENT
tv64 = -4						; size = 4
?GetExtraGauge@ioItem@@UAEMXZ PROC			; ioItem::GetExtraGauge, COMDAT
; _this$ = ecx

; 376  : 	virtual float GetExtraGauge() { return FLOAT1; }

  00000	55		 push	 ebp
  00001	8b ec		 mov	 ebp, esp
  00003	51		 push	 ecx
  00004	b8 01 00 00 00	 mov	 eax, 1
  00009	89 45 fc	 mov	 DWORD PTR tv64[ebp], eax
  0000c	db 45 fc	 fild	 DWORD PTR tv64[ebp]
  0000f	85 c0		 test	 eax, eax
  00011	79 06		 jns	 SHORT $LN5@GetExtraGa
  00013	d8 05 00 00 00
	00		 fadd	 DWORD PTR __real@4f800000
$LN5@GetExtraGa:
  00019	c9		 leave
  0001a	c3		 ret	 0
?GetExtraGauge@ioItem@@UAEMXZ ENDP			; ioItem::GetExtraGauge
; Function compile flags: /Ogsp
; File d:\lost saga for developer\youtube\tutorial\source\src\lsclient\ioattackableitem.h
_TEXT	ENDS
;	COMDAT ?CheckOnHand@ioAttackableItem@@UAE_NXZ
_TEXT	SEGMENT
?CheckOnHand@ioAttackableItem@@UAE_NXZ PROC		; ioAttackableItem::CheckOnHand, COMDAT
; _this$ = ecx

; 429  : 	virtual bool CheckOnHand() { return false; }

  00000	32 c0		 xor	 al, al
  00002	c3		 ret	 0
?CheckOnHand@ioAttackableItem@@UAE_NXZ ENDP		; ioAttackableItem::CheckOnHand
; Function compile flags: /Ogsp
_TEXT	ENDS
;	COMDAT ?CheckAimState@ioAttackableItem@@UAE_N_N@Z
_TEXT	SEGMENT
_bAimMove$ = 8						; size = 1
?CheckAimState@ioAttackableItem@@UAE_N_N@Z PROC		; ioAttackableItem::CheckAimState, COMDAT
; _this$ = ecx

; 430  : 	virtual bool CheckAimState( bool bAimMove = false ) { return false; }

  00000	32 c0		 xor	 al, al
  00002	c2 04 00	 ret	 4
?CheckAimState@ioAttackableItem@@UAE_N_N@Z ENDP		; ioAttackableItem::CheckAimState
; Function compile flags: /Ogsp
_TEXT	ENDS
;	COMDAT ?SetAimState@ioAttackableItem@@UAE_NPAVioBaseChar@@@Z
_TEXT	SEGMENT
_pChar$ = 8						; size = 4
?SetAimState@ioAttackableItem@@UAE_NPAVioBaseChar@@@Z PROC ; ioAttackableItem::SetAimState, COMDAT
; _this$ = ecx

; 431  : 	virtual bool SetAimState( ioBaseChar *pChar ) { return false; }

  00000	32 c0		 xor	 al, al
  00002	c2 04 00	 ret	 4
?SetAimState@ioAttackableItem@@UAE_NPAVioBaseChar@@@Z ENDP ; ioAttackableItem::SetAimState
; Function compile flags: /Ogsp
_TEXT	ENDS
;	COMDAT ?CheckExtendDefenseEnable@ioAttackableItem@@UAE_NPAVioBaseChar@@@Z
_TEXT	SEGMENT
_pChar$ = 8						; size = 4
?CheckExtendDefenseEnable@ioAttackableItem@@UAE_NPAVioBaseChar@@@Z PROC ; ioAttackableItem::CheckExtendDefenseEnable, COMDAT
; _this$ = ecx

; 434  : 	virtual bool CheckExtendDefenseEnable( ioBaseChar *pChar ) { return true; }

  00000	b0 01		 mov	 al, 1
  00002	c2 04 00	 ret	 4
?CheckExtendDefenseEnable@ioAttackableItem@@UAE_NPAVioBaseChar@@@Z ENDP ; ioAttackableItem::CheckExtendDefenseEnable
; Function compile flags: /Ogsp
_TEXT	ENDS
;	COMDAT ?IsMoveAttackState@ioAttackableItem@@UAE_NPAVioBaseChar@@@Z
_TEXT	SEGMENT
_pOwner$ = 8						; size = 4
?IsMoveAttackState@ioAttackableItem@@UAE_NPAVioBaseChar@@@Z PROC ; ioAttackableItem::IsMoveAttackState, COMDAT
; _this$ = ecx

; 437  : 	virtual bool IsMoveAttackState( ioBaseChar *pOwner ) { return false; }

  00000	32 c0		 xor	 al, al
  00002	c2 04 00	 ret	 4
?IsMoveAttackState@ioAttackableItem@@UAE_NPAVioBaseChar@@@Z ENDP ; ioAttackableItem::IsMoveAttackState
; Function compile flags: /Ogsp
_TEXT	ENDS
;	COMDAT ?IsNoGhostWalk@ioAttackableItem@@UAE_NPAVioBaseChar@@@Z
_TEXT	SEGMENT
_pOwner$ = 8						; size = 4
?IsNoGhostWalk@ioAttackableItem@@UAE_NPAVioBaseChar@@@Z PROC ; ioAttackableItem::IsNoGhostWalk, COMDAT
; _this$ = ecx

; 439  : 	virtual bool IsNoGhostWalk( ioBaseChar *pOwner ) { return false; }

  00000	32 c0		 xor	 al, al
  00002	c2 04 00	 ret	 4
?IsNoGhostWalk@ioAttackableItem@@UAE_NPAVioBaseChar@@@Z ENDP ; ioAttackableItem::IsNoGhostWalk
; Function compile flags: /Ogsp
_TEXT	ENDS
;	COMDAT ?IsEnableAttackDashCheck@ioAttackableItem@@UAE_NPAVioBaseChar@@_N@Z
_TEXT	SEGMENT
_pOwner$ = 8						; size = 4
_bCheck$ = 12						; size = 1
?IsEnableAttackDashCheck@ioAttackableItem@@UAE_NPAVioBaseChar@@_N@Z PROC ; ioAttackableItem::IsEnableAttackDashCheck, COMDAT
; _this$ = ecx

; 441  : 	virtual bool IsEnableAttackDashCheck( ioBaseChar *pOwner, bool bCheck ) { return false; }

  00000	32 c0		 xor	 al, al
  00002	c2 08 00	 ret	 8
?IsEnableAttackDashCheck@ioAttackableItem@@UAE_NPAVioBaseChar@@_N@Z ENDP ; ioAttackableItem::IsEnableAttackDashCheck
; Function compile flags: /Ogsp
_TEXT	ENDS
;	COMDAT ?IsEnableItemDashCheck@ioAttackableItem@@UAE_NPAVioBaseChar@@_N@Z
_TEXT	SEGMENT
_pOwner$ = 8						; size = 4
_bCheck$ = 12						; size = 1
?IsEnableItemDashCheck@ioAttackableItem@@UAE_NPAVioBaseChar@@_N@Z PROC ; ioAttackableItem::IsEnableItemDashCheck, COMDAT
; _this$ = ecx

; 442  : 	virtual bool IsEnableItemDashCheck( ioBaseChar *pOwner, bool bCheck ) { return false; }

  00000	32 c0		 xor	 al, al
  00002	c2 08 00	 ret	 8
?IsEnableItemDashCheck@ioAttackableItem@@UAE_NPAVioBaseChar@@_N@Z ENDP ; ioAttackableItem::IsEnableItemDashCheck
; Function compile flags: /Ogsp
_TEXT	ENDS
;	COMDAT ?IsEnableAttackRotateCheck@ioAttackableItem@@UAE_NPAVioBaseChar@@@Z
_TEXT	SEGMENT
_pOwner$ = 8						; size = 4
?IsEnableAttackRotateCheck@ioAttackableItem@@UAE_NPAVioBaseChar@@@Z PROC ; ioAttackableItem::IsEnableAttackRotateCheck, COMDAT
; _this$ = ecx

; 443  : 	virtual bool IsEnableAttackRotateCheck( ioBaseChar *pOwner ) { return false; }

  00000	32 c0		 xor	 al, al
  00002	c2 04 00	 ret	 4
?IsEnableAttackRotateCheck@ioAttackableItem@@UAE_NPAVioBaseChar@@@Z ENDP ; ioAttackableItem::IsEnableAttackRotateCheck
; Function compile flags: /Ogsp
_TEXT	ENDS
;	COMDAT ?IsEnableChargeDefenseCheck@ioAttackableItem@@UAE_NXZ
_TEXT	SEGMENT
?IsEnableChargeDefenseCheck@ioAttackableItem@@UAE_NXZ PROC ; ioAttackableItem::IsEnableChargeDefenseCheck, COMDAT
; _this$ = ecx

; 444  : 	virtual bool IsEnableChargeDefenseCheck() { return false; }

  00000	32 c0		 xor	 al, al
  00002	c3		 ret	 0
?IsEnableChargeDefenseCheck@ioAttackableItem@@UAE_NXZ ENDP ; ioAttackableItem::IsEnableChargeDefenseCheck
; Function compile flags: /Ogsp
_TEXT	ENDS
;	COMDAT ?IsUseDefenceCounterAttackEndDash@ioAttackableItem@@UAE_NXZ
_TEXT	SEGMENT
?IsUseDefenceCounterAttackEndDash@ioAttackableItem@@UAE_NXZ PROC ; ioAttackableItem::IsUseDefenceCounterAttackEndDash, COMDAT
; _this$ = ecx

; 464  : 	virtual bool IsUseDefenceCounterAttackEndDash() { return false; }

  00000	32 c0		 xor	 al, al
  00002	c3		 ret	 0
?IsUseDefenceCounterAttackEndDash@ioAttackableItem@@UAE_NXZ ENDP ; ioAttackableItem::IsUseDefenceCounterAttackEndDash
; Function compile flags: /Ogsp
_TEXT	ENDS
;	COMDAT ?IsAutoTarget@ioAttackableItem@@UBE_NXZ
_TEXT	SEGMENT
?IsAutoTarget@ioAttackableItem@@UBE_NXZ PROC		; ioAttackableItem::IsAutoTarget, COMDAT
; _this$ = ecx

; 707  : 	virtual bool IsAutoTarget() const { return true; }

  00000	b0 01		 mov	 al, 1
  00002	c3		 ret	 0
?IsAutoTarget@ioAttackableItem@@UBE_NXZ ENDP		; ioAttackableItem::IsAutoTarget
; Function compile flags: /Ogsp
_TEXT	ENDS
;	COMDAT ?IsWoundAfterUseExtendState@ioAttackableItem@@UAE_NXZ
_TEXT	SEGMENT
?IsWoundAfterUseExtendState@ioAttackableItem@@UAE_NXZ PROC ; ioAttackableItem::IsWoundAfterUseExtendState, COMDAT
; _this$ = ecx

; 724  : 	virtual bool IsWoundAfterUseExtendState(){ return false; }

  00000	32 c0		 xor	 al, al
  00002	c3		 ret	 0
?IsWoundAfterUseExtendState@ioAttackableItem@@UAE_NXZ ENDP ; ioAttackableItem::IsWoundAfterUseExtendState
; Function compile flags: /Ogsp
_TEXT	ENDS
;	COMDAT ?CheckWoundAfterUseExtendState@ioAttackableItem@@UAE_NPAVioBaseChar@@W4BlowTargetType@@@Z
_TEXT	SEGMENT
_pOwner$ = 8						; size = 4
_eType$ = 12						; size = 4
?CheckWoundAfterUseExtendState@ioAttackableItem@@UAE_NPAVioBaseChar@@W4BlowTargetType@@@Z PROC ; ioAttackableItem::CheckWoundAfterUseExtendState, COMDAT
; _this$ = ecx

; 725  : 	virtual bool CheckWoundAfterUseExtendState( ioBaseChar* pOwner, BlowTargetType eType ){ return false; }

  00000	32 c0		 xor	 al, al
  00002	c2 08 00	 ret	 8
?CheckWoundAfterUseExtendState@ioAttackableItem@@UAE_NPAVioBaseChar@@W4BlowTargetType@@@Z ENDP ; ioAttackableItem::CheckWoundAfterUseExtendState
; Function compile flags: /Ogsp
_TEXT	ENDS
;	COMDAT ?IsCharSkipState@ioAttackableItem@@UAE_NPBVioBaseChar@@@Z
_TEXT	SEGMENT
_pOwner$ = 8						; size = 4
?IsCharSkipState@ioAttackableItem@@UAE_NPBVioBaseChar@@@Z PROC ; ioAttackableItem::IsCharSkipState, COMDAT
; _this$ = ecx

; 728  : 	virtual bool IsCharSkipState( const ioBaseChar* pOwner ){ return false; }

  00000	32 c0		 xor	 al, al
  00002	c2 04 00	 ret	 4
?IsCharSkipState@ioAttackableItem@@UAE_NPBVioBaseChar@@@Z ENDP ; ioAttackableItem::IsCharSkipState
_TEXT	ENDS
PUBLIC	??_C@_00CNPNBAHC@?$AA@				; `string'
PUBLIC	_rkLoader$GSCopy$
PUBLIC	_this$GSCopy$
PUBLIC	?LoadTrinityInfo@ioTrinityItem@@IAEXAAVioINILoader@@@Z ; ioTrinityItem::LoadTrinityInfo
EXTRN	__imp_??0ioHashString@@QAE@PBD@Z:PROC
EXTRN	?LoadAttackAttribute@@YAXPBDAAUAttackAttribute@@AAVioINILoader@@@Z:PROC ; LoadAttackAttribute
EXTRN	__imp__wsprintfA:PROC
EXTRN	__imp_??4ioHashString@@QAEAAV0@PBD@Z:PROC
;	COMDAT ??_C@_00CNPNBAHC@?$AA@
; File d:\lost saga for developer\youtube\tutorial\source\src\lsclient\stringprotect.h
CONST	SEGMENT
??_C@_00CNPNBAHC@?$AA@ DB 00H				; `string'
CONST	ENDS
;	COMDAT xdata$x
xdata$x	SEGMENT
__unwindtable$?LoadTrinityInfo@ioTrinityItem@@IAEXAAVioINILoader@@@Z DD 0ffffffffH
	DD	FLAT:__unwindfunclet$?LoadTrinityInfo@ioTrinityItem@@IAEXAAVioINILoader@@@Z$0
	DD	0ffffffffH
	DD	FLAT:__unwindfunclet$?LoadTrinityInfo@ioTrinityItem@@IAEXAAVioINILoader@@@Z$1
	DD	0ffffffffH
	DD	FLAT:__unwindfunclet$?LoadTrinityInfo@ioTrinityItem@@IAEXAAVioINILoader@@@Z$2
	DD	0ffffffffH
	DD	FLAT:__unwindfunclet$?LoadTrinityInfo@ioTrinityItem@@IAEXAAVioINILoader@@@Z$3
__ehfuncinfo$?LoadTrinityInfo@ioTrinityItem@@IAEXAAVioINILoader@@@Z DD 019930522H
	DD	04H
	DD	FLAT:__unwindtable$?LoadTrinityInfo@ioTrinityItem@@IAEXAAVioINILoader@@@Z
	DD	2 DUP(00H)
	DD	2 DUP(00H)
	DD	00H
	DD	01H
; Function compile flags: /Ogsp
; File d:\lost saga for developer\youtube\tutorial\source\src\lsclient\iotrinityitem.cpp
xdata$x	ENDS
;	COMDAT ?LoadTrinityInfo@ioTrinityItem@@IAEXAAVioINILoader@@@Z
_TEXT	SEGMENT
$T558480 = -696						; size = 16
$T558479 = -680						; size = 16
$T558478 = -664						; size = 16
tv12491 = -648						; size = 4
tv12437 = -648						; size = 4
_nAddNoneMeshCntForJump$550002 = -648			; size = 4
_nAddNoneMeshCnt$549692 = -648				; size = 4
tv12601 = -644						; size = 4
tv12545 = -644						; size = 4
tv12494 = -644						; size = 4
_nAddNormalMeshCnt$549072 = -644			; size = 4
tv14850 = -640						; size = 4
tv14753 = -640						; size = 4
tv12604 = -640						; size = 4
tv12548 = -640						; size = 4
_nAddFullMeshCnt$549382 = -640				; size = 4
_this$GSCopy$ = -636					; size = 4
tv12354 = -632						; size = 4
tv12440 = -628						; size = 4
tv12356 = -628						; size = 4
_i$558951 = -628					; size = 4
_i$558927 = -628					; size = 4
_i$558730 = -624					; size = 4
_i$548612 = -624					; size = 4
_rkLoader$GSCopy$ = -620				; size = 4
_szKey$ = -616						; size = 260
_szBuf$ = -356						; size = 260
__k$559190 = -96					; size = 17
__k$559048 = -72					; size = 17
__k$558630 = -72					; size = 19
__k$558755 = -68					; size = 15
$T558481 = -68						; size = 16
___encStr$550619 = -48					; size = 27
___encStr$550010 = -48					; size = 25
___encStr$549853 = -48					; size = 26
___encStr$548771 = -48					; size = 24
___encStr$548619 = -48					; size = 24
__k$558501 = -44					; size = 20
___encStr$550467 = -44					; size = 22
___encStr$550163 = -44					; size = 21
___encStr$549700 = -44					; size = 20
___encStr$549543 = -44					; size = 21
___encStr$549390 = -44					; size = 20
___encStr$549233 = -44					; size = 21
___encStr$549080 = -44					; size = 22
___encStr$548923 = -44					; size = 23
___encStr$550315 = -40					; size = 19
__$EHRec$ = -12						; size = 12
_rkLoader$ = 8						; size = 4
?LoadTrinityInfo@ioTrinityItem@@IAEXAAVioINILoader@@@Z PROC ; ioTrinityItem::LoadTrinityInfo, COMDAT
; _this$ = ecx

; 82   : {

  00000	68 ac 02 00 00	 push	 684			; 000002acH
  00005	b8 00 00 00 00	 mov	 eax, __ehhandler$?LoadTrinityInfo@ioTrinityItem@@IAEXAAVioINILoader@@@Z
  0000a	e8 00 00 00 00	 call	 __EH_prolog3_GS

; 94   : 	for( int i = 0; i < m_nMaxWeaponCnt; i++ )

  0000f	8b 45 08	 mov	 eax, DWORD PTR _rkLoader$[ebp]
  00012	8b f1		 mov	 esi, ecx
  00014	8d 8e 90 19 00
	00		 lea	 ecx, DWORD PTR [esi+6544]

; 167  : 	}
; 168  : 
; 169  : 	rkLoader.LoadString_e( "reload_animation", "", szBuf, MAX_PATH );

  0001a	89 b5 84 fd ff
	ff		 mov	 DWORD PTR _this$GSCopy$[ebp], esi
  00020	89 85 94 fd ff
	ff		 mov	 DWORD PTR _rkLoader$GSCopy$[ebp], eax
  00026	e8 00 00 00 00	 call	 ?Init@tagTrinityInfo@@QAEXXZ ; tagTrinityInfo::Init
  0002b	6a 04		 push	 4
  0002d	c7 45 d4 8a 8d
	9f 82		 mov	 DWORD PTR __k$558501[ebp], -2103472758 ; 829f8d8aH
  00034	c7 45 d8 88 9e
	82 84		 mov	 DWORD PTR __k$558501[ebp+4], -2071814520 ; 84829e88H
  0003b	c7 45 dc 8a b3
	8a 84		 mov	 DWORD PTR __k$558501[ebp+8], -2071284854 ; 848ab38aH
  00042	c7 45 e0 84 81
	8a 9e		 mov	 DWORD PTR __k$558501[ebp+12], -1635090044 ; 9e8a8184H
  00049	8d 45 d4	 lea	 eax, DWORD PTR __k$558501[ebp]
  0004c	c7 45 e4 84 83
	85 00		 mov	 DWORD PTR __k$558501[ebp+16], 8749956 ; 00858384H
  00053	59		 pop	 ecx
$LL1513@LoadTrinit:

; 83   : 	char szBuf[MAX_PATH];
; 84   : 	char szKey[MAX_PATH];
; 85   : 	m_AttackInfo.Init();
; 86   : 
; 87   : 	rkLoader.LoadString_e( "gathering_animation", "", szBuf, MAX_PATH );

  00054	81 30 ed ec eb
	ea		 xor	 DWORD PTR [eax], -353637139 ; eaebecedH
  0005a	83 c0 04	 add	 eax, 4
  0005d	49		 dec	 ecx
  0005e	75 f4		 jne	 SHORT $LL1513@LoadTrinit
  00060	6a 10		 push	 16			; 00000010H
  00062	58		 pop	 eax
$LL1510@LoadTrinit:
  00063	8b c8		 mov	 ecx, eax
  00065	81 e1 03 00 00
	80		 and	 ecx, -2147483645	; 80000003H
  0006b	79 05		 jns	 SHORT $LN2145@LoadTrinit
  0006d	49		 dec	 ecx
  0006e	83 c9 fc	 or	 ecx, -4			; fffffffcH
  00071	41		 inc	 ecx
$LN2145@LoadTrinit:
  00072	b2 ed		 mov	 dl, -19			; ffffffedH
  00074	2a d1		 sub	 dl, cl
  00076	30 54 05 d4	 xor	 BYTE PTR __k$558501[ebp+eax], dl
  0007a	40		 inc	 eax
  0007b	83 f8 13	 cmp	 eax, 19			; 00000013H
  0007e	7c e3		 jl	 SHORT $LL1510@LoadTrinit
  00080	8b 8d 94 fd ff
	ff		 mov	 ecx, DWORD PTR _rkLoader$GSCopy$[ebp]
  00086	8b 3d 00 00 00
	00		 mov	 edi, DWORD PTR __imp_?LoadStringA@ioINILoader@@QAEXPBD0PADH@Z
  0008c	68 04 01 00 00	 push	 260			; 00000104H
  00091	8d 85 9c fe ff
	ff		 lea	 eax, DWORD PTR _szBuf$[ebp]
  00097	50		 push	 eax
  00098	bb 00 00 00 00	 mov	 ebx, OFFSET ??_C@_00CNPNBAHC@?$AA@
  0009d	53		 push	 ebx
  0009e	8d 45 d4	 lea	 eax, DWORD PTR __k$558501[ebp]
  000a1	50		 push	 eax
  000a2	ff d7		 call	 edi

; 88   : 	m_GatherAnimation = szBuf;

  000a4	8d 85 9c fe ff
	ff		 lea	 eax, DWORD PTR _szBuf$[ebp]
  000aa	50		 push	 eax
  000ab	8d 8e 68 19 00
	00		 lea	 ecx, DWORD PTR [esi+6504]
  000b1	ff 15 00 00 00
	00		 call	 DWORD PTR __imp_??4ioHashString@@QAEAAV0@PBD@Z

; 89   : 	m_fGatherAniRate = rkLoader.LoadFloat_e( "gathering_ani_rate", FLOAT1 );

  000b7	b8 01 00 00 00	 mov	 eax, 1
  000bc	6a 04		 push	 4
  000be	c7 45 b8 8a 8d
	9f 82		 mov	 DWORD PTR __k$558630[ebp], -2103472758 ; 829f8d8aH
  000c5	c7 45 bc 88 9e
	82 84		 mov	 DWORD PTR __k$558630[ebp+4], -2071814520 ; 84829e88H
  000cc	c7 45 c0 8a b3
	8a 84		 mov	 DWORD PTR __k$558630[ebp+8], -2071284854 ; 848ab38aH
  000d3	c7 45 c4 84 b3
	99 8b		 mov	 DWORD PTR __k$558630[ebp+12], -1952861308 ; 8b99b384H
  000da	66 c7 45 c8 99
	89		 mov	 WORD PTR __k$558630[ebp+16], 35225 ; 00008999H
  000e0	8d 4d b8	 lea	 ecx, DWORD PTR __k$558630[ebp]
  000e3	c6 45 ca 00	 mov	 BYTE PTR __k$558630[ebp+18], 0
  000e7	5a		 pop	 edx
$LL1621@LoadTrinit:
  000e8	81 31 ed ec eb
	ea		 xor	 DWORD PTR [ecx], -353637139 ; eaebecedH
  000ee	83 c1 04	 add	 ecx, 4
  000f1	4a		 dec	 edx
  000f2	75 f4		 jne	 SHORT $LL1621@LoadTrinit
  000f4	c7 85 90 fd ff
	ff 10 00 00 00	 mov	 DWORD PTR _i$558730[ebp], 16 ; 00000010H
$LL1618@LoadTrinit:
  000fe	8b 8d 90 fd ff
	ff		 mov	 ecx, DWORD PTR _i$558730[ebp]
  00104	81 e1 03 00 00
	80		 and	 ecx, -2147483645	; 80000003H
  0010a	79 05		 jns	 SHORT $LN2146@LoadTrinit
  0010c	49		 dec	 ecx
  0010d	83 c9 fc	 or	 ecx, -4			; fffffffcH
  00110	41		 inc	 ecx
$LN2146@LoadTrinit:
  00111	b2 ed		 mov	 dl, -19			; ffffffedH
  00113	2a d1		 sub	 dl, cl
  00115	8b 8d 90 fd ff
	ff		 mov	 ecx, DWORD PTR _i$558730[ebp]
  0011b	30 54 0d b8	 xor	 BYTE PTR __k$558630[ebp+ecx], dl
  0011f	ff 85 90 fd ff
	ff		 inc	 DWORD PTR _i$558730[ebp]
  00125	83 bd 90 fd ff
	ff 12		 cmp	 DWORD PTR _i$558730[ebp], 18 ; 00000012H
  0012c	7c d0		 jl	 SHORT $LL1618@LoadTrinit
  0012e	89 85 80 fd ff
	ff		 mov	 DWORD PTR tv14850[ebp], eax
  00134	db 85 80 fd ff
	ff		 fild	 DWORD PTR tv14850[ebp]
  0013a	85 c0		 test	 eax, eax
  0013c	79 06		 jns	 SHORT $LN2147@LoadTrinit
  0013e	d8 05 00 00 00
	00		 fadd	 DWORD PTR __real@4f800000
$LN2147@LoadTrinit:
  00144	51		 push	 ecx
  00145	8b 8d 94 fd ff
	ff		 mov	 ecx, DWORD PTR _rkLoader$GSCopy$[ebp]
  0014b	d9 1c 24	 fstp	 DWORD PTR [esp]
  0014e	8d 45 b8	 lea	 eax, DWORD PTR __k$558630[ebp]
  00151	50		 push	 eax
  00152	ff 15 00 00 00
	00		 call	 DWORD PTR __imp_?LoadFloat@ioINILoader@@QAEMPBDM@Z
  00158	d9 9e 78 19 00
	00		 fstp	 DWORD PTR [esi+6520]
  0015e	6a 03		 push	 3

; 90   : 
; 91   : 
; 92   : 	m_nMaxWeaponCnt = rkLoader.LoadInt_e( "max_weapon_cnt", 0 );

  00160	c7 45 bc 80 8d
	93 b5		 mov	 DWORD PTR __k$558755[ebp], -1248621184 ; b5938d80H
  00167	c7 45 c0 9a 89
	8a 9a		 mov	 DWORD PTR __k$558755[ebp+4], -1702196838 ; 9a8a899aH
  0016e	c7 45 c4 82 82
	b4 89		 mov	 DWORD PTR __k$558755[ebp+8], -1984658814 ; 89b48282H
  00175	66 c7 45 c8 83
	98		 mov	 WORD PTR __k$558755[ebp+12], 39043 ; 00009883H
  0017b	8d 45 bc	 lea	 eax, DWORD PTR __k$558755[ebp]
  0017e	c6 45 ca 00	 mov	 BYTE PTR __k$558755[ebp+14], 0
  00182	59		 pop	 ecx
$LL1727@LoadTrinit:
  00183	81 30 ed ec eb
	ea		 xor	 DWORD PTR [eax], -353637139 ; eaebecedH
  00189	83 c0 04	 add	 eax, 4
  0018c	49		 dec	 ecx
  0018d	75 f4		 jne	 SHORT $LL1727@LoadTrinit
  0018f	6a 0c		 push	 12			; 0000000cH
  00191	58		 pop	 eax
$LL1724@LoadTrinit:
  00192	8b c8		 mov	 ecx, eax
  00194	81 e1 03 00 00
	80		 and	 ecx, -2147483645	; 80000003H
  0019a	79 05		 jns	 SHORT $LN2148@LoadTrinit
  0019c	49		 dec	 ecx
  0019d	83 c9 fc	 or	 ecx, -4			; fffffffcH
  001a0	41		 inc	 ecx
$LN2148@LoadTrinit:
  001a1	b2 ed		 mov	 dl, -19			; ffffffedH
  001a3	2a d1		 sub	 dl, cl
  001a5	30 54 05 bc	 xor	 BYTE PTR __k$558755[ebp+eax], dl
  001a9	40		 inc	 eax
  001aa	83 f8 0e	 cmp	 eax, 14			; 0000000eH
  001ad	7c e3		 jl	 SHORT $LL1724@LoadTrinit
  001af	8b 8d 94 fd ff
	ff		 mov	 ecx, DWORD PTR _rkLoader$GSCopy$[ebp]
  001b5	6a 00		 push	 0
  001b7	8d 45 bc	 lea	 eax, DWORD PTR __k$558755[ebp]
  001ba	50		 push	 eax
  001bb	ff 15 00 00 00
	00		 call	 DWORD PTR __imp_?LoadInt@ioINILoader@@QAEHPBDH@Z
  001c1	89 86 04 21 00
	00		 mov	 DWORD PTR [esi+8452], eax

; 93   : 	m_nMaxWeaponCnt = max( 1, m_nMaxWeaponCnt );

  001c7	83 f8 01	 cmp	 eax, 1
  001ca	7d 03		 jge	 SHORT $LN1404@LoadTrinit
  001cc	33 c0		 xor	 eax, eax
  001ce	40		 inc	 eax
$LN1404@LoadTrinit:

; 94   : 	for( int i = 0; i < m_nMaxWeaponCnt; i++ )

  001cf	83 a5 90 fd ff
	ff 00		 and	 DWORD PTR _i$548612[ebp], 0
  001d6	89 86 04 21 00
	00		 mov	 DWORD PTR [esi+8452], eax
  001dc	85 c0		 test	 eax, eax
  001de	0f 8e c3 09 00
	00		 jle	 $LN1399@LoadTrinit
  001e4	8b 35 00 00 00
	00		 mov	 esi, DWORD PTR __imp__wsprintfA
$LN1401@LoadTrinit:

; 90   : 
; 91   : 
; 92   : 	m_nMaxWeaponCnt = rkLoader.LoadInt_e( "max_weapon_cnt", 0 );

  001ea	6a 05		 push	 5

; 95   : 	{
; 96   : 		//D~
; 97   : 		wsprintf_e( szBuf, "attack_atribute_full_%d", i+1 );

  001ec	c7 45 d0 8c 98
	9f 8b		 mov	 DWORD PTR ___encStr$548619[ebp], -1952474996 ; 8b9f988cH
  001f3	c7 45 d4 8e 87
	b4 8b		 mov	 DWORD PTR ___encStr$548619[ebp+4], -1951103090 ; 8bb4878eH
  001fa	c7 45 d8 99 9e
	82 88		 mov	 DWORD PTR ___encStr$548619[ebp+8], -2004705639 ; 88829e99H
  00201	c7 45 dc 98 98
	8e b5		 mov	 DWORD PTR ___encStr$548619[ebp+12], -1248946024 ; b58e9898H
  00208	c7 45 e0 8b 99
	87 86		 mov	 DWORD PTR ___encStr$548619[ebp+16], -2037933685 ; 8687998bH
  0020f	8d 45 d0	 lea	 eax, DWORD PTR ___encStr$548619[ebp]
  00212	c7 45 e4 b2 c9
	8f 00		 mov	 DWORD PTR ___encStr$548619[ebp+20], 9423282 ; 008fc9b2H
  00219	59		 pop	 ecx
$LL1735@LoadTrinit:
  0021a	81 30 ed ec eb
	ea		 xor	 DWORD PTR [eax], -353637139 ; eaebecedH
  00220	83 c0 04	 add	 eax, 4
  00223	49		 dec	 ecx
  00224	75 f4		 jne	 SHORT $LL1735@LoadTrinit
  00226	6a 14		 push	 20			; 00000014H
  00228	58		 pop	 eax
$LL1732@LoadTrinit:
  00229	8b c8		 mov	 ecx, eax
  0022b	81 e1 03 00 00
	80		 and	 ecx, -2147483645	; 80000003H
  00231	79 05		 jns	 SHORT $LN2149@LoadTrinit
  00233	49		 dec	 ecx
  00234	83 c9 fc	 or	 ecx, -4			; fffffffcH
  00237	41		 inc	 ecx
$LN2149@LoadTrinit:
  00238	b2 ed		 mov	 dl, -19			; ffffffedH
  0023a	2a d1		 sub	 dl, cl
  0023c	30 54 05 d0	 xor	 BYTE PTR ___encStr$548619[ebp+eax], dl
  00240	40		 inc	 eax
  00241	83 f8 17	 cmp	 eax, 23			; 00000017H
  00244	7c e3		 jl	 SHORT $LL1732@LoadTrinit
  00246	8b 85 90 fd ff
	ff		 mov	 eax, DWORD PTR _i$548612[ebp]
  0024c	40		 inc	 eax
  0024d	50		 push	 eax
  0024e	89 85 88 fd ff
	ff		 mov	 DWORD PTR tv12354[ebp], eax
  00254	8d 45 d0	 lea	 eax, DWORD PTR ___encStr$548619[ebp]
  00257	50		 push	 eax
  00258	8d 85 9c fe ff
	ff		 lea	 eax, DWORD PTR _szBuf$[ebp]
  0025e	50		 push	 eax
  0025f	ff d6		 call	 esi

; 98   : 		LoadAttackAttribute( szBuf, m_AttackInfo.m_FullAttack[i], rkLoader );

  00261	8b 85 90 fd ff
	ff		 mov	 eax, DWORD PTR _i$548612[ebp]
  00267	ff b5 94 fd ff
	ff		 push	 DWORD PTR _rkLoader$GSCopy$[ebp]
  0026d	6b c0 50	 imul	 eax, 80			; 00000050H
  00270	03 85 84 fd ff
	ff		 add	 eax, DWORD PTR _this$GSCopy$[ebp]
  00276	89 85 8c fd ff
	ff		 mov	 DWORD PTR tv12356[ebp], eax
  0027c	05 90 19 00 00	 add	 eax, 6544		; 00001990H
  00281	50		 push	 eax
  00282	8d 85 9c fe ff
	ff		 lea	 eax, DWORD PTR _szBuf$[ebp]
  00288	50		 push	 eax
  00289	e8 00 00 00 00	 call	 ?LoadAttackAttribute@@YAXPBDAAUAttackAttribute@@AAVioINILoader@@@Z ; LoadAttackAttribute
  0028e	83 c4 18	 add	 esp, 24			; 00000018H
  00291	6a 05		 push	 5

; 99   : 
; 100  : 		//~D
; 101  : 		wsprintf_e( szBuf, "attack_atribute_none_%d", i+1 );

  00293	c7 45 d0 8c 98
	9f 8b		 mov	 DWORD PTR ___encStr$548771[ebp], -1952474996 ; 8b9f988cH
  0029a	c7 45 d4 8e 87
	b4 8b		 mov	 DWORD PTR ___encStr$548771[ebp+4], -1951103090 ; 8bb4878eH
  002a1	c7 45 d8 99 9e
	82 88		 mov	 DWORD PTR ___encStr$548771[ebp+8], -2004705639 ; 88829e99H
  002a8	c7 45 dc 98 98
	8e b5		 mov	 DWORD PTR ___encStr$548771[ebp+12], -1248946024 ; b58e9898H
  002af	c7 45 e0 83 83
	85 8f		 mov	 DWORD PTR ___encStr$548771[ebp+16], -1887075453 ; 8f858383H
  002b6	8d 45 d0	 lea	 eax, DWORD PTR ___encStr$548771[ebp]
  002b9	c7 45 e4 b2 c9
	8f 00		 mov	 DWORD PTR ___encStr$548771[ebp+20], 9423282 ; 008fc9b2H
  002c0	59		 pop	 ecx
$LL1743@LoadTrinit:
  002c1	81 30 ed ec eb
	ea		 xor	 DWORD PTR [eax], -353637139 ; eaebecedH
  002c7	83 c0 04	 add	 eax, 4
  002ca	49		 dec	 ecx
  002cb	75 f4		 jne	 SHORT $LL1743@LoadTrinit
  002cd	6a 14		 push	 20			; 00000014H
  002cf	58		 pop	 eax
$LL1740@LoadTrinit:
  002d0	8b c8		 mov	 ecx, eax
  002d2	81 e1 03 00 00
	80		 and	 ecx, -2147483645	; 80000003H
  002d8	79 05		 jns	 SHORT $LN2150@LoadTrinit
  002da	49		 dec	 ecx
  002db	83 c9 fc	 or	 ecx, -4			; fffffffcH
  002de	41		 inc	 ecx
$LN2150@LoadTrinit:
  002df	b2 ed		 mov	 dl, -19			; ffffffedH
  002e1	2a d1		 sub	 dl, cl
  002e3	30 54 05 d0	 xor	 BYTE PTR ___encStr$548771[ebp+eax], dl
  002e7	40		 inc	 eax
  002e8	83 f8 17	 cmp	 eax, 23			; 00000017H
  002eb	7c e3		 jl	 SHORT $LL1740@LoadTrinit
  002ed	ff b5 88 fd ff
	ff		 push	 DWORD PTR tv12354[ebp]
  002f3	8d 45 d0	 lea	 eax, DWORD PTR ___encStr$548771[ebp]
  002f6	50		 push	 eax
  002f7	8d 85 9c fe ff
	ff		 lea	 eax, DWORD PTR _szBuf$[ebp]
  002fd	50		 push	 eax
  002fe	ff d6		 call	 esi

; 102  : 		LoadAttackAttribute( szBuf, m_AttackInfo.m_NoneFullAttack[i], rkLoader );

  00300	ff b5 94 fd ff
	ff		 push	 DWORD PTR _rkLoader$GSCopy$[ebp]
  00306	8b 85 8c fd ff
	ff		 mov	 eax, DWORD PTR tv12356[ebp]
  0030c	05 70 1b 00 00	 add	 eax, 7024		; 00001b70H
  00311	50		 push	 eax
  00312	8d 85 9c fe ff
	ff		 lea	 eax, DWORD PTR _szBuf$[ebp]
  00318	50		 push	 eax
  00319	e8 00 00 00 00	 call	 ?LoadAttackAttribute@@YAXPBDAAUAttackAttribute@@AAVioINILoader@@@Z ; LoadAttackAttribute
  0031e	83 c4 18	 add	 esp, 24			; 00000018H
  00321	6a 05		 push	 5

; 103  : 
; 104  : 		//
; 105  : 		//
; 106  : 		wsprintf_e( szKey, "add_normal_mesh_cnt_%d", i+1 );

  00323	c7 45 d4 8c 88
	8f b5		 mov	 DWORD PTR ___encStr$548923[ebp], -1248884596 ; b58f888cH
  0032a	c7 45 d8 83 83
	99 87		 mov	 DWORD PTR ___encStr$548923[ebp+4], -2019982461 ; 87998383H
  00331	c7 45 dc 8c 80
	b4 87		 mov	 DWORD PTR ___encStr$548923[ebp+8], -2018213748 ; 87b4808cH
  00338	c7 45 e0 88 9f
	83 b5		 mov	 DWORD PTR ___encStr$548923[ebp+12], -1249665144 ; b5839f88H
  0033f	c7 45 e4 8e 82
	9f b5		 mov	 DWORD PTR ___encStr$548923[ebp+16], -1247837554 ; b59f828eH
  00346	66 c7 45 e8 c8
	88		 mov	 WORD PTR ___encStr$548923[ebp+20], 35016 ; 000088c8H
  0034c	8d 45 d4	 lea	 eax, DWORD PTR ___encStr$548923[ebp]
  0034f	c6 45 ea 00	 mov	 BYTE PTR ___encStr$548923[ebp+22], 0
  00353	59		 pop	 ecx
$LL1751@LoadTrinit:
  00354	81 30 ed ec eb
	ea		 xor	 DWORD PTR [eax], -353637139 ; eaebecedH
  0035a	83 c0 04	 add	 eax, 4
  0035d	49		 dec	 ecx
  0035e	75 f4		 jne	 SHORT $LL1751@LoadTrinit
  00360	6a 14		 push	 20			; 00000014H
  00362	58		 pop	 eax
$LL1748@LoadTrinit:
  00363	8b c8		 mov	 ecx, eax
  00365	81 e1 03 00 00
	80		 and	 ecx, -2147483645	; 80000003H
  0036b	79 05		 jns	 SHORT $LN2151@LoadTrinit
  0036d	49		 dec	 ecx
  0036e	83 c9 fc	 or	 ecx, -4			; fffffffcH
  00371	41		 inc	 ecx
$LN2151@LoadTrinit:
  00372	b2 ed		 mov	 dl, -19			; ffffffedH
  00374	2a d1		 sub	 dl, cl
  00376	30 54 05 d4	 xor	 BYTE PTR ___encStr$548923[ebp+eax], dl
  0037a	40		 inc	 eax
  0037b	83 f8 16	 cmp	 eax, 22			; 00000016H
  0037e	7c e3		 jl	 SHORT $LL1748@LoadTrinit
  00380	ff b5 88 fd ff
	ff		 push	 DWORD PTR tv12354[ebp]
  00386	8d 45 d4	 lea	 eax, DWORD PTR ___encStr$548923[ebp]
  00389	50		 push	 eax
  0038a	8d 85 98 fd ff
	ff		 lea	 eax, DWORD PTR _szKey$[ebp]
  00390	50		 push	 eax
  00391	ff d6		 call	 esi

; 107  : 		int nAddNormalMeshCnt = rkLoader.LoadInt( szKey, 0 );

  00393	8b 8d 94 fd ff
	ff		 mov	 ecx, DWORD PTR _rkLoader$GSCopy$[ebp]
  00399	83 c4 0c	 add	 esp, 12			; 0000000cH
  0039c	6a 00		 push	 0
  0039e	8d 85 98 fd ff
	ff		 lea	 eax, DWORD PTR _szKey$[ebp]
  003a4	50		 push	 eax
  003a5	ff 15 00 00 00
	00		 call	 DWORD PTR __imp_?LoadInt@ioINILoader@@QAEHPBDH@Z

; 108  : 		for( int i2 = 0; i2 < nAddNormalMeshCnt; i2++ )

  003ab	33 c9		 xor	 ecx, ecx
  003ad	89 85 7c fd ff
	ff		 mov	 DWORD PTR _nAddNormalMeshCnt$549072[ebp], eax
  003b3	85 c0		 test	 eax, eax
  003b5	0f 8e e0 00 00
	00		 jle	 $LN999@LoadTrinit
  003bb	8b 85 90 fd ff
	ff		 mov	 eax, DWORD PTR _i$548612[ebp]
  003c1	05 e7 01 00 00	 add	 eax, 487		; 000001e7H
  003c6	c1 e0 04	 shl	 eax, 4
  003c9	03 85 84 fd ff
	ff		 add	 eax, DWORD PTR _this$GSCopy$[ebp]
  003cf	89 85 8c fd ff
	ff		 mov	 DWORD PTR tv12440[ebp], eax
$LL1101@LoadTrinit:

; 109  : 		{
; 110  : 			wsprintf_e( szKey, "add_normal_mesh_%d_%d", i+1, i2+1 );

  003d5	6a 05		 push	 5
  003d7	c7 45 d4 8c 88
	8f b5		 mov	 DWORD PTR ___encStr$549080[ebp], -1248884596 ; b58f888cH
  003de	c7 45 d8 83 83
	99 87		 mov	 DWORD PTR ___encStr$549080[ebp+4], -2019982461 ; 87998383H
  003e5	c7 45 dc 8c 80
	b4 87		 mov	 DWORD PTR ___encStr$549080[ebp+8], -2018213748 ; 87b4808cH
  003ec	c7 45 e0 88 9f
	83 b5		 mov	 DWORD PTR ___encStr$549080[ebp+12], -1249665144 ; b5839f88H
  003f3	c7 45 e4 c8 88
	b4 cf		 mov	 DWORD PTR ___encStr$549080[ebp+16], -810252088 ; cfb488c8H
  003fa	8d 45 d4	 lea	 eax, DWORD PTR ___encStr$549080[ebp]
  003fd	66 c7 45 e8 89
	00		 mov	 WORD PTR ___encStr$549080[ebp+20], 137 ; 00000089H
  00403	5a		 pop	 edx
$LL1759@LoadTrinit:
  00404	81 30 ed ec eb
	ea		 xor	 DWORD PTR [eax], -353637139 ; eaebecedH
  0040a	83 c0 04	 add	 eax, 4
  0040d	4a		 dec	 edx
  0040e	75 f4		 jne	 SHORT $LL1759@LoadTrinit
  00410	80 75 e8 ed	 xor	 BYTE PTR ___encStr$549080[ebp+20], -19 ; ffffffedH
  00414	8d 41 01	 lea	 eax, DWORD PTR [ecx+1]
  00417	50		 push	 eax
  00418	ff b5 88 fd ff
	ff		 push	 DWORD PTR tv12354[ebp]
  0041e	89 85 78 fd ff
	ff		 mov	 DWORD PTR tv12437[ebp], eax
  00424	8d 45 d4	 lea	 eax, DWORD PTR ___encStr$549080[ebp]
  00427	50		 push	 eax
  00428	8d 85 98 fd ff
	ff		 lea	 eax, DWORD PTR _szKey$[ebp]
  0042e	50		 push	 eax
  0042f	ff d6		 call	 esi

; 111  : 			rkLoader.LoadString( szKey, "", szBuf, MAX_PATH );

  00431	8b 8d 94 fd ff
	ff		 mov	 ecx, DWORD PTR _rkLoader$GSCopy$[ebp]
  00437	83 c4 10	 add	 esp, 16			; 00000010H
  0043a	68 04 01 00 00	 push	 260			; 00000104H
  0043f	8d 85 9c fe ff
	ff		 lea	 eax, DWORD PTR _szBuf$[ebp]
  00445	50		 push	 eax
  00446	53		 push	 ebx
  00447	8d 85 98 fd ff
	ff		 lea	 eax, DWORD PTR _szKey$[ebp]
  0044d	50		 push	 eax
  0044e	ff d7		 call	 edi

; 112  : 			m_AttackInfo.m_AddNormalMesh[i].push_back( szBuf );

  00450	8d 85 9c fe ff
	ff		 lea	 eax, DWORD PTR _szBuf$[ebp]
  00456	50		 push	 eax
  00457	8d 8d 68 fd ff
	ff		 lea	 ecx, DWORD PTR $T558478[ebp]
  0045d	ff 15 00 00 00
	00		 call	 DWORD PTR __imp_??0ioHashString@@QAE@PBD@Z
  00463	8b 8d 8c fd ff
	ff		 mov	 ecx, DWORD PTR tv12440[ebp]
  00469	83 65 fc 00	 and	 DWORD PTR __$EHRec$[ebp+8], 0
  0046d	8d 85 68 fd ff
	ff		 lea	 eax, DWORD PTR $T558478[ebp]
  00473	50		 push	 eax
  00474	e8 00 00 00 00	 call	 ?push_back@?$vector@VioHashString@@V?$allocator@VioHashString@@@std@@@std@@QAEXABVioHashString@@@Z ; std::vector<ioHashString,std::allocator<ioHashString> >::push_back
  00479	83 4d fc ff	 or	 DWORD PTR __$EHRec$[ebp+8], -1
  0047d	8d 8d 68 fd ff
	ff		 lea	 ecx, DWORD PTR $T558478[ebp]
  00483	ff 15 00 00 00
	00		 call	 DWORD PTR __imp_??1ioHashString@@QAE@XZ
  00489	8b 8d 78 fd ff
	ff		 mov	 ecx, DWORD PTR tv12437[ebp]
  0048f	3b 8d 7c fd ff
	ff		 cmp	 ecx, DWORD PTR _nAddNormalMeshCnt$549072[ebp]
  00495	0f 8c 3a ff ff
	ff		 jl	 $LL1101@LoadTrinit
$LN999@LoadTrinit:

; 109  : 		{
; 110  : 			wsprintf_e( szKey, "add_normal_mesh_%d_%d", i+1, i2+1 );

  0049b	6a 05		 push	 5

; 113  : 		}
; 114  : 
; 115  : 		//D~
; 116  : 		wsprintf_e( szKey, "add_full_mesh_cnt_%d", i+1 );

  0049d	c7 45 d4 8c 88
	8f b5		 mov	 DWORD PTR ___encStr$549233[ebp], -1248884596 ; b58f888cH
  004a4	c7 45 d8 8b 99
	87 86		 mov	 DWORD PTR ___encStr$549233[ebp+4], -2037933685 ; 8687998bH
  004ab	c7 45 dc b2 81
	8e 99		 mov	 DWORD PTR ___encStr$549233[ebp+8], -1718713934 ; 998e81b2H
  004b2	c7 45 e0 85 b3
	88 84		 mov	 DWORD PTR ___encStr$549233[ebp+12], -2071415931 ; 8488b385H
  004b9	c7 45 e4 99 b3
	ce 8e		 mov	 DWORD PTR ___encStr$549233[ebp+16], -1899056231 ; 8eceb399H
  004c0	8d 45 d4	 lea	 eax, DWORD PTR ___encStr$549233[ebp]
  004c3	c6 45 e8 00	 mov	 BYTE PTR ___encStr$549233[ebp+20], 0
  004c7	59		 pop	 ecx
$LL1767@LoadTrinit:
  004c8	81 30 ed ec eb
	ea		 xor	 DWORD PTR [eax], -353637139 ; eaebecedH
  004ce	83 c0 04	 add	 eax, 4
  004d1	49		 dec	 ecx
  004d2	75 f4		 jne	 SHORT $LL1767@LoadTrinit
  004d4	ff b5 88 fd ff
	ff		 push	 DWORD PTR tv12354[ebp]
  004da	8d 45 d4	 lea	 eax, DWORD PTR ___encStr$549233[ebp]
  004dd	50		 push	 eax
  004de	8d 85 98 fd ff
	ff		 lea	 eax, DWORD PTR _szKey$[ebp]
  004e4	50		 push	 eax
  004e5	ff d6		 call	 esi

; 117  : 		int nAddFullMeshCnt = rkLoader.LoadInt( szKey, 0 );

  004e7	8b 8d 94 fd ff
	ff		 mov	 ecx, DWORD PTR _rkLoader$GSCopy$[ebp]
  004ed	83 c4 0c	 add	 esp, 12			; 0000000cH
  004f0	6a 00		 push	 0
  004f2	8d 85 98 fd ff
	ff		 lea	 eax, DWORD PTR _szKey$[ebp]
  004f8	50		 push	 eax
  004f9	ff 15 00 00 00
	00		 call	 DWORD PTR __imp_?LoadInt@ioINILoader@@QAEHPBDH@Z

; 118  : 		for( int i2 = 0; i2 < nAddFullMeshCnt; i2++ )

  004ff	33 c9		 xor	 ecx, ecx
  00501	89 85 80 fd ff
	ff		 mov	 DWORD PTR _nAddFullMeshCnt$549382[ebp], eax
  00507	85 c0		 test	 eax, eax
  00509	0f 8e 12 01 00
	00		 jle	 $LN798@LoadTrinit
  0050f	8b 85 90 fd ff
	ff		 mov	 eax, DWORD PTR _i$548612[ebp]
  00515	05 d5 01 00 00	 add	 eax, 469		; 000001d5H
  0051a	c1 e0 04	 shl	 eax, 4
  0051d	03 85 84 fd ff
	ff		 add	 eax, DWORD PTR _this$GSCopy$[ebp]
  00523	89 85 7c fd ff
	ff		 mov	 DWORD PTR tv12494[ebp], eax
$LL900@LoadTrinit:

; 119  : 		{
; 120  : 			wsprintf_e( szKey, "add_full_mesh_%d_%d", i+1, i2+1 );

  00529	6a 04		 push	 4
  0052b	c7 45 d4 8c 88
	8f b5		 mov	 DWORD PTR ___encStr$549390[ebp], -1248884596 ; b58f888cH
  00532	c7 45 d8 8b 99
	87 86		 mov	 DWORD PTR ___encStr$549390[ebp+4], -2037933685 ; 8687998bH
  00539	c7 45 dc b2 81
	8e 99		 mov	 DWORD PTR ___encStr$549390[ebp+8], -1718713934 ; 998e81b2H
  00540	c7 45 e0 85 b3
	ce 8e		 mov	 DWORD PTR ___encStr$549390[ebp+12], -1899056251 ; 8eceb385H
  00547	8d 45 d4	 lea	 eax, DWORD PTR ___encStr$549390[ebp]
  0054a	c7 45 e4 b2 c9
	8f 00		 mov	 DWORD PTR ___encStr$549390[ebp+16], 9423282 ; 008fc9b2H
  00551	5a		 pop	 edx
$LL1775@LoadTrinit:
  00552	81 30 ed ec eb
	ea		 xor	 DWORD PTR [eax], -353637139 ; eaebecedH
  00558	83 c0 04	 add	 eax, 4
  0055b	4a		 dec	 edx
  0055c	75 f4		 jne	 SHORT $LL1775@LoadTrinit
  0055e	c7 85 8c fd ff
	ff 10 00 00 00	 mov	 DWORD PTR _i$558927[ebp], 16 ; 00000010H
$LL1772@LoadTrinit:
  00568	8b 85 8c fd ff
	ff		 mov	 eax, DWORD PTR _i$558927[ebp]
  0056e	25 03 00 00 80	 and	 eax, -2147483645	; 80000003H
  00573	79 05		 jns	 SHORT $LN2152@LoadTrinit
  00575	48		 dec	 eax
  00576	83 c8 fc	 or	 eax, -4			; fffffffcH
  00579	40		 inc	 eax
$LN2152@LoadTrinit:
  0057a	b2 ed		 mov	 dl, -19			; ffffffedH
  0057c	2a d0		 sub	 dl, al
  0057e	8b 85 8c fd ff
	ff		 mov	 eax, DWORD PTR _i$558927[ebp]
  00584	30 54 05 d4	 xor	 BYTE PTR ___encStr$549390[ebp+eax], dl
  00588	ff 85 8c fd ff
	ff		 inc	 DWORD PTR _i$558927[ebp]
  0058e	83 bd 8c fd ff
	ff 13		 cmp	 DWORD PTR _i$558927[ebp], 19 ; 00000013H
  00595	7c d1		 jl	 SHORT $LL1772@LoadTrinit
  00597	8d 41 01	 lea	 eax, DWORD PTR [ecx+1]
  0059a	50		 push	 eax
  0059b	ff b5 88 fd ff
	ff		 push	 DWORD PTR tv12354[ebp]
  005a1	89 85 78 fd ff
	ff		 mov	 DWORD PTR tv12491[ebp], eax
  005a7	8d 45 d4	 lea	 eax, DWORD PTR ___encStr$549390[ebp]
  005aa	50		 push	 eax
  005ab	8d 85 98 fd ff
	ff		 lea	 eax, DWORD PTR _szKey$[ebp]
  005b1	50		 push	 eax
  005b2	ff d6		 call	 esi

; 121  : 			rkLoader.LoadString( szKey, "", szBuf, MAX_PATH );

  005b4	8b 8d 94 fd ff
	ff		 mov	 ecx, DWORD PTR _rkLoader$GSCopy$[ebp]
  005ba	83 c4 10	 add	 esp, 16			; 00000010H
  005bd	68 04 01 00 00	 push	 260			; 00000104H
  005c2	8d 85 9c fe ff
	ff		 lea	 eax, DWORD PTR _szBuf$[ebp]
  005c8	50		 push	 eax
  005c9	53		 push	 ebx
  005ca	8d 85 98 fd ff
	ff		 lea	 eax, DWORD PTR _szKey$[ebp]
  005d0	50		 push	 eax
  005d1	ff d7		 call	 edi

; 122  : 			m_AttackInfo.m_AddFullMesh[i].push_back( szBuf );

  005d3	8d 85 9c fe ff
	ff		 lea	 eax, DWORD PTR _szBuf$[ebp]
  005d9	50		 push	 eax
  005da	8d 8d 58 fd ff
	ff		 lea	 ecx, DWORD PTR $T558479[ebp]
  005e0	ff 15 00 00 00
	00		 call	 DWORD PTR __imp_??0ioHashString@@QAE@PBD@Z
  005e6	8b 8d 7c fd ff
	ff		 mov	 ecx, DWORD PTR tv12494[ebp]
  005ec	8d 85 58 fd ff
	ff		 lea	 eax, DWORD PTR $T558479[ebp]
  005f2	50		 push	 eax
  005f3	c7 45 fc 01 00
	00 00		 mov	 DWORD PTR __$EHRec$[ebp+8], 1
  005fa	e8 00 00 00 00	 call	 ?push_back@?$vector@VioHashString@@V?$allocator@VioHashString@@@std@@@std@@QAEXABVioHashString@@@Z ; std::vector<ioHashString,std::allocator<ioHashString> >::push_back
  005ff	83 4d fc ff	 or	 DWORD PTR __$EHRec$[ebp+8], -1
  00603	8d 8d 58 fd ff
	ff		 lea	 ecx, DWORD PTR $T558479[ebp]
  00609	ff 15 00 00 00
	00		 call	 DWORD PTR __imp_??1ioHashString@@QAE@XZ
  0060f	8b 8d 78 fd ff
	ff		 mov	 ecx, DWORD PTR tv12491[ebp]
  00615	3b 8d 80 fd ff
	ff		 cmp	 ecx, DWORD PTR _nAddFullMeshCnt$549382[ebp]
  0061b	0f 8c 08 ff ff
	ff		 jl	 $LL900@LoadTrinit
$LN798@LoadTrinit:

; 119  : 		{
; 120  : 			wsprintf_e( szKey, "add_full_mesh_%d_%d", i+1, i2+1 );

  00621	6a 05		 push	 5

; 123  : 		}
; 124  : 
; 125  : 		//~D
; 126  : 		wsprintf_e( szKey, "add_none_mesh_cnt_%d", i+1 );

  00623	c7 45 d4 8c 88
	8f b5		 mov	 DWORD PTR ___encStr$549543[ebp], -1248884596 ; b58f888cH
  0062a	c7 45 d8 83 83
	85 8f		 mov	 DWORD PTR ___encStr$549543[ebp+4], -1887075453 ; 8f858383H
  00631	c7 45 dc b2 81
	8e 99		 mov	 DWORD PTR ___encStr$549543[ebp+8], -1718713934 ; 998e81b2H
  00638	c7 45 e0 85 b3
	88 84		 mov	 DWORD PTR ___encStr$549543[ebp+12], -2071415931 ; 8488b385H
  0063f	c7 45 e4 99 b3
	ce 8e		 mov	 DWORD PTR ___encStr$549543[ebp+16], -1899056231 ; 8eceb399H
  00646	8d 45 d4	 lea	 eax, DWORD PTR ___encStr$549543[ebp]
  00649	c6 45 e8 00	 mov	 BYTE PTR ___encStr$549543[ebp+20], 0
  0064d	59		 pop	 ecx
$LL1783@LoadTrinit:
  0064e	81 30 ed ec eb
	ea		 xor	 DWORD PTR [eax], -353637139 ; eaebecedH
  00654	83 c0 04	 add	 eax, 4
  00657	49		 dec	 ecx
  00658	75 f4		 jne	 SHORT $LL1783@LoadTrinit
  0065a	ff b5 88 fd ff
	ff		 push	 DWORD PTR tv12354[ebp]
  00660	8d 45 d4	 lea	 eax, DWORD PTR ___encStr$549543[ebp]
  00663	50		 push	 eax
  00664	8d 85 98 fd ff
	ff		 lea	 eax, DWORD PTR _szKey$[ebp]
  0066a	50		 push	 eax
  0066b	ff d6		 call	 esi

; 127  : 		int nAddNoneMeshCnt = rkLoader.LoadInt( szKey, 0 );

  0066d	8b 8d 94 fd ff
	ff		 mov	 ecx, DWORD PTR _rkLoader$GSCopy$[ebp]
  00673	83 c4 0c	 add	 esp, 12			; 0000000cH
  00676	6a 00		 push	 0
  00678	8d 85 98 fd ff
	ff		 lea	 eax, DWORD PTR _szKey$[ebp]
  0067e	50		 push	 eax
  0067f	ff 15 00 00 00
	00		 call	 DWORD PTR __imp_?LoadInt@ioINILoader@@QAEHPBDH@Z

; 128  : 		for( int i2 = 0; i2 < nAddNoneMeshCnt; i2++ )

  00685	33 c9		 xor	 ecx, ecx
  00687	89 85 78 fd ff
	ff		 mov	 DWORD PTR _nAddNoneMeshCnt$549692[ebp], eax
  0068d	85 c0		 test	 eax, eax
  0068f	0f 8e 12 01 00
	00		 jle	 $LN597@LoadTrinit
  00695	8b 85 90 fd ff
	ff		 mov	 eax, DWORD PTR _i$548612[ebp]
  0069b	05 db 01 00 00	 add	 eax, 475		; 000001dbH
  006a0	c1 e0 04	 shl	 eax, 4
  006a3	03 85 84 fd ff
	ff		 add	 eax, DWORD PTR _this$GSCopy$[ebp]
  006a9	89 85 80 fd ff
	ff		 mov	 DWORD PTR tv12548[ebp], eax
$LL699@LoadTrinit:

; 129  : 		{
; 130  : 			wsprintf_e( szKey, "add_none_mesh_%d_%d", i+1, i2+1 );

  006af	6a 04		 push	 4
  006b1	c7 45 d4 8c 88
	8f b5		 mov	 DWORD PTR ___encStr$549700[ebp], -1248884596 ; b58f888cH
  006b8	c7 45 d8 83 83
	85 8f		 mov	 DWORD PTR ___encStr$549700[ebp+4], -1887075453 ; 8f858383H
  006bf	c7 45 dc b2 81
	8e 99		 mov	 DWORD PTR ___encStr$549700[ebp+8], -1718713934 ; 998e81b2H
  006c6	c7 45 e0 85 b3
	ce 8e		 mov	 DWORD PTR ___encStr$549700[ebp+12], -1899056251 ; 8eceb385H
  006cd	8d 45 d4	 lea	 eax, DWORD PTR ___encStr$549700[ebp]
  006d0	c7 45 e4 b2 c9
	8f 00		 mov	 DWORD PTR ___encStr$549700[ebp+16], 9423282 ; 008fc9b2H
  006d7	5a		 pop	 edx
$LL1791@LoadTrinit:
  006d8	81 30 ed ec eb
	ea		 xor	 DWORD PTR [eax], -353637139 ; eaebecedH
  006de	83 c0 04	 add	 eax, 4
  006e1	4a		 dec	 edx
  006e2	75 f4		 jne	 SHORT $LL1791@LoadTrinit
  006e4	c7 85 8c fd ff
	ff 10 00 00 00	 mov	 DWORD PTR _i$558951[ebp], 16 ; 00000010H
$LL1788@LoadTrinit:
  006ee	8b 85 8c fd ff
	ff		 mov	 eax, DWORD PTR _i$558951[ebp]
  006f4	25 03 00 00 80	 and	 eax, -2147483645	; 80000003H
  006f9	79 05		 jns	 SHORT $LN2153@LoadTrinit
  006fb	48		 dec	 eax
  006fc	83 c8 fc	 or	 eax, -4			; fffffffcH
  006ff	40		 inc	 eax
$LN2153@LoadTrinit:
  00700	b2 ed		 mov	 dl, -19			; ffffffedH
  00702	2a d0		 sub	 dl, al
  00704	8b 85 8c fd ff
	ff		 mov	 eax, DWORD PTR _i$558951[ebp]
  0070a	30 54 05 d4	 xor	 BYTE PTR ___encStr$549700[ebp+eax], dl
  0070e	ff 85 8c fd ff
	ff		 inc	 DWORD PTR _i$558951[ebp]
  00714	83 bd 8c fd ff
	ff 13		 cmp	 DWORD PTR _i$558951[ebp], 19 ; 00000013H
  0071b	7c d1		 jl	 SHORT $LL1788@LoadTrinit
  0071d	8d 41 01	 lea	 eax, DWORD PTR [ecx+1]
  00720	50		 push	 eax
  00721	ff b5 88 fd ff
	ff		 push	 DWORD PTR tv12354[ebp]
  00727	89 85 7c fd ff
	ff		 mov	 DWORD PTR tv12545[ebp], eax
  0072d	8d 45 d4	 lea	 eax, DWORD PTR ___encStr$549700[ebp]
  00730	50		 push	 eax
  00731	8d 85 98 fd ff
	ff		 lea	 eax, DWORD PTR _szKey$[ebp]
  00737	50		 push	 eax
  00738	ff d6		 call	 esi

; 131  : 			rkLoader.LoadString( szKey, "", szBuf, MAX_PATH );

  0073a	8b 8d 94 fd ff
	ff		 mov	 ecx, DWORD PTR _rkLoader$GSCopy$[ebp]
  00740	83 c4 10	 add	 esp, 16			; 00000010H
  00743	68 04 01 00 00	 push	 260			; 00000104H
  00748	8d 85 9c fe ff
	ff		 lea	 eax, DWORD PTR _szBuf$[ebp]
  0074e	50		 push	 eax
  0074f	53		 push	 ebx
  00750	8d 85 98 fd ff
	ff		 lea	 eax, DWORD PTR _szKey$[ebp]
  00756	50		 push	 eax
  00757	ff d7		 call	 edi

; 132  : 			m_AttackInfo.m_AddNoneMesh[i].push_back( szBuf );

  00759	8d 85 9c fe ff
	ff		 lea	 eax, DWORD PTR _szBuf$[ebp]
  0075f	50		 push	 eax
  00760	8d 8d 48 fd ff
	ff		 lea	 ecx, DWORD PTR $T558480[ebp]
  00766	ff 15 00 00 00
	00		 call	 DWORD PTR __imp_??0ioHashString@@QAE@PBD@Z
  0076c	8b 8d 80 fd ff
	ff		 mov	 ecx, DWORD PTR tv12548[ebp]
  00772	8d 85 48 fd ff
	ff		 lea	 eax, DWORD PTR $T558480[ebp]
  00778	50		 push	 eax
  00779	c7 45 fc 02 00
	00 00		 mov	 DWORD PTR __$EHRec$[ebp+8], 2
  00780	e8 00 00 00 00	 call	 ?push_back@?$vector@VioHashString@@V?$allocator@VioHashString@@@std@@@std@@QAEXABVioHashString@@@Z ; std::vector<ioHashString,std::allocator<ioHashString> >::push_back
  00785	83 4d fc ff	 or	 DWORD PTR __$EHRec$[ebp+8], -1
  00789	8d 8d 48 fd ff
	ff		 lea	 ecx, DWORD PTR $T558480[ebp]
  0078f	ff 15 00 00 00
	00		 call	 DWORD PTR __imp_??1ioHashString@@QAE@XZ
  00795	8b 8d 7c fd ff
	ff		 mov	 ecx, DWORD PTR tv12545[ebp]
  0079b	3b 8d 78 fd ff
	ff		 cmp	 ecx, DWORD PTR _nAddNoneMeshCnt$549692[ebp]
  007a1	0f 8c 08 ff ff
	ff		 jl	 $LL699@LoadTrinit
$LN597@LoadTrinit:

; 129  : 		{
; 130  : 			wsprintf_e( szKey, "add_none_mesh_%d_%d", i+1, i2+1 );

  007a7	6a 06		 push	 6

; 133  : 		}
; 134  : 
; 135  : 		//~D()
; 136  : 		wsprintf_e( szKey, "jump_add_none_mesh_cnt_%d", i+1 );

  007a9	c7 45 d0 87 99
	86 9a		 mov	 DWORD PTR ___encStr$549853[ebp], -1702454905 ; 9a869987H
  007b0	c7 45 d4 b2 8d
	8f 8e		 mov	 DWORD PTR ___encStr$549853[ebp+4], -1903194702 ; 8e8f8db2H
  007b7	c7 45 d8 b2 82
	84 84		 mov	 DWORD PTR ___encStr$549853[ebp+8], -2071690574 ; 848482b2H
  007be	c7 45 dc 88 b3
	86 8f		 mov	 DWORD PTR ___encStr$549853[ebp+12], -1886997624 ; 8f86b388H
  007c5	c7 45 e0 9e 84
	b4 89		 mov	 DWORD PTR ___encStr$549853[ebp+16], -1984658274 ; 89b4849eH
  007cc	c7 45 e4 83 98
	b4 cf		 mov	 DWORD PTR ___encStr$549853[ebp+20], -810248061 ; cfb49883H
  007d3	8d 45 d0	 lea	 eax, DWORD PTR ___encStr$549853[ebp]
  007d6	66 c7 45 e8 89
	00		 mov	 WORD PTR ___encStr$549853[ebp+24], 137 ; 00000089H
  007dc	59		 pop	 ecx
$LL1799@LoadTrinit:
  007dd	81 30 ed ec eb
	ea		 xor	 DWORD PTR [eax], -353637139 ; eaebecedH
  007e3	83 c0 04	 add	 eax, 4
  007e6	49		 dec	 ecx
  007e7	75 f4		 jne	 SHORT $LL1799@LoadTrinit
  007e9	ff b5 88 fd ff
	ff		 push	 DWORD PTR tv12354[ebp]
  007ef	80 75 e8 ed	 xor	 BYTE PTR ___encStr$549853[ebp+24], -19 ; ffffffedH
  007f3	8d 45 d0	 lea	 eax, DWORD PTR ___encStr$549853[ebp]
  007f6	50		 push	 eax
  007f7	8d 85 98 fd ff
	ff		 lea	 eax, DWORD PTR _szKey$[ebp]
  007fd	50		 push	 eax
  007fe	ff d6		 call	 esi

; 137  : 		int nAddNoneMeshCntForJump = rkLoader.LoadInt( szKey, 0 );

  00800	8b 8d 94 fd ff
	ff		 mov	 ecx, DWORD PTR _rkLoader$GSCopy$[ebp]
  00806	83 c4 0c	 add	 esp, 12			; 0000000cH
  00809	6a 00		 push	 0
  0080b	8d 85 98 fd ff
	ff		 lea	 eax, DWORD PTR _szKey$[ebp]
  00811	50		 push	 eax
  00812	ff 15 00 00 00
	00		 call	 DWORD PTR __imp_?LoadInt@ioINILoader@@QAEHPBDH@Z

; 138  : 		for( int i2 = 0; i2 < nAddNoneMeshCntForJump; i2++ )

  00818	33 c9		 xor	 ecx, ecx
  0081a	89 85 78 fd ff
	ff		 mov	 DWORD PTR _nAddNoneMeshCntForJump$550002[ebp], eax
  00820	85 c0		 test	 eax, eax
  00822	0f 8e db 00 00
	00		 jle	 $LN396@LoadTrinit
  00828	8b 85 90 fd ff
	ff		 mov	 eax, DWORD PTR _i$548612[ebp]
  0082e	05 e1 01 00 00	 add	 eax, 481		; 000001e1H
  00833	c1 e0 04	 shl	 eax, 4
  00836	03 85 84 fd ff
	ff		 add	 eax, DWORD PTR _this$GSCopy$[ebp]
  0083c	89 85 80 fd ff
	ff		 mov	 DWORD PTR tv12604[ebp], eax
$LL498@LoadTrinit:

; 139  : 		{
; 140  : 			wsprintf_e( szKey, "jump_add_none_mesh_%d_%d", i+1, i2+1 );

  00842	6a 06		 push	 6
  00844	c7 45 d0 87 99
	86 9a		 mov	 DWORD PTR ___encStr$550010[ebp], -1702454905 ; 9a869987H
  0084b	c7 45 d4 b2 8d
	8f 8e		 mov	 DWORD PTR ___encStr$550010[ebp+4], -1903194702 ; 8e8f8db2H
  00852	c7 45 d8 b2 82
	84 84		 mov	 DWORD PTR ___encStr$550010[ebp+8], -2071690574 ; 848482b2H
  00859	c7 45 dc 88 b3
	86 8f		 mov	 DWORD PTR ___encStr$550010[ebp+12], -1886997624 ; 8f86b388H
  00860	c7 45 e0 9e 84
	b4 cf		 mov	 DWORD PTR ___encStr$550010[ebp+16], -810253154 ; cfb4849eH
  00867	c7 45 e4 89 b3
	ce 8e		 mov	 DWORD PTR ___encStr$550010[ebp+20], -1899056247 ; 8eceb389H
  0086e	8d 45 d0	 lea	 eax, DWORD PTR ___encStr$550010[ebp]
  00871	c6 45 e8 00	 mov	 BYTE PTR ___encStr$550010[ebp+24], 0
  00875	5a		 pop	 edx
$LL1807@LoadTrinit:
  00876	81 30 ed ec eb
	ea		 xor	 DWORD PTR [eax], -353637139 ; eaebecedH
  0087c	83 c0 04	 add	 eax, 4
  0087f	4a		 dec	 edx
  00880	75 f4		 jne	 SHORT $LL1807@LoadTrinit
  00882	8d 41 01	 lea	 eax, DWORD PTR [ecx+1]
  00885	50		 push	 eax
  00886	ff b5 88 fd ff
	ff		 push	 DWORD PTR tv12354[ebp]
  0088c	89 85 7c fd ff
	ff		 mov	 DWORD PTR tv12601[ebp], eax
  00892	8d 45 d0	 lea	 eax, DWORD PTR ___encStr$550010[ebp]
  00895	50		 push	 eax
  00896	8d 85 98 fd ff
	ff		 lea	 eax, DWORD PTR _szKey$[ebp]
  0089c	50		 push	 eax
  0089d	ff d6		 call	 esi

; 141  : 			rkLoader.LoadString( szKey, "", szBuf, MAX_PATH );

  0089f	8b 8d 94 fd ff
	ff		 mov	 ecx, DWORD PTR _rkLoader$GSCopy$[ebp]
  008a5	83 c4 10	 add	 esp, 16			; 00000010H
  008a8	68 04 01 00 00	 push	 260			; 00000104H
  008ad	8d 85 9c fe ff
	ff		 lea	 eax, DWORD PTR _szBuf$[ebp]
  008b3	50		 push	 eax
  008b4	53		 push	 ebx
  008b5	8d 85 98 fd ff
	ff		 lea	 eax, DWORD PTR _szKey$[ebp]
  008bb	50		 push	 eax
  008bc	ff d7		 call	 edi

; 142  : 			m_AttackInfo.m_AddNoneMeshForJump[i].push_back( szBuf );

  008be	8d 85 9c fe ff
	ff		 lea	 eax, DWORD PTR _szBuf$[ebp]
  008c4	50		 push	 eax
  008c5	8d 4d bc	 lea	 ecx, DWORD PTR $T558481[ebp]
  008c8	ff 15 00 00 00
	00		 call	 DWORD PTR __imp_??0ioHashString@@QAE@PBD@Z
  008ce	8b 8d 80 fd ff
	ff		 mov	 ecx, DWORD PTR tv12604[ebp]
  008d4	8d 45 bc	 lea	 eax, DWORD PTR $T558481[ebp]
  008d7	50		 push	 eax
  008d8	c7 45 fc 03 00
	00 00		 mov	 DWORD PTR __$EHRec$[ebp+8], 3
  008df	e8 00 00 00 00	 call	 ?push_back@?$vector@VioHashString@@V?$allocator@VioHashString@@@std@@@std@@QAEXABVioHashString@@@Z ; std::vector<ioHashString,std::allocator<ioHashString> >::push_back
  008e4	83 4d fc ff	 or	 DWORD PTR __$EHRec$[ebp+8], -1
  008e8	8d 4d bc	 lea	 ecx, DWORD PTR $T558481[ebp]
  008eb	ff 15 00 00 00
	00		 call	 DWORD PTR __imp_??1ioHashString@@QAE@XZ
  008f1	8b 8d 7c fd ff
	ff		 mov	 ecx, DWORD PTR tv12601[ebp]
  008f7	3b 8d 78 fd ff
	ff		 cmp	 ecx, DWORD PTR _nAddNoneMeshCntForJump$550002[ebp]
  008fd	0f 8c 3f ff ff
	ff		 jl	 $LL498@LoadTrinit
$LN396@LoadTrinit:

; 139  : 		{
; 140  : 			wsprintf_e( szKey, "jump_add_none_mesh_%d_%d", i+1, i2+1 );

  00903	6a 05		 push	 5

; 143  : 		}
; 144  : 
; 145  : 		//
; 146  : 		//
; 147  : 		wsprintf_e( szKey, "add_normal_effect_%d", i+1 );

  00905	c7 45 d4 8c 88
	8f b5		 mov	 DWORD PTR ___encStr$550163[ebp], -1248884596 ; b58f888cH
  0090c	c7 45 d8 83 83
	99 87		 mov	 DWORD PTR ___encStr$550163[ebp+4], -2019982461 ; 87998383H
  00913	c7 45 dc 8c 80
	b4 8f		 mov	 DWORD PTR ___encStr$550163[ebp+8], -1883996020 ; 8fb4808cH
  0091a	c7 45 e0 8b 8a
	8e 89		 mov	 DWORD PTR ___encStr$550163[ebp+12], -1987147125 ; 898e8a8bH
  00921	c7 45 e4 99 b3
	ce 8e		 mov	 DWORD PTR ___encStr$550163[ebp+16], -1899056231 ; 8eceb399H
  00928	8d 45 d4	 lea	 eax, DWORD PTR ___encStr$550163[ebp]
  0092b	c6 45 e8 00	 mov	 BYTE PTR ___encStr$550163[ebp+20], 0
  0092f	59		 pop	 ecx
$LL1815@LoadTrinit:
  00930	81 30 ed ec eb
	ea		 xor	 DWORD PTR [eax], -353637139 ; eaebecedH
  00936	83 c0 04	 add	 eax, 4
  00939	49		 dec	 ecx
  0093a	75 f4		 jne	 SHORT $LL1815@LoadTrinit
  0093c	ff b5 88 fd ff
	ff		 push	 DWORD PTR tv12354[ebp]
  00942	8d 45 d4	 lea	 eax, DWORD PTR ___encStr$550163[ebp]
  00945	50		 push	 eax
  00946	8d 85 98 fd ff
	ff		 lea	 eax, DWORD PTR _szKey$[ebp]
  0094c	50		 push	 eax
  0094d	ff d6		 call	 esi

; 148  : 		rkLoader.LoadString( szKey, "", szBuf, MAX_PATH );

  0094f	8b 8d 94 fd ff
	ff		 mov	 ecx, DWORD PTR _rkLoader$GSCopy$[ebp]
  00955	83 c4 0c	 add	 esp, 12			; 0000000cH
  00958	68 04 01 00 00	 push	 260			; 00000104H
  0095d	8d 85 9c fe ff
	ff		 lea	 eax, DWORD PTR _szBuf$[ebp]
  00963	50		 push	 eax
  00964	53		 push	 ebx
  00965	8d 85 98 fd ff
	ff		 lea	 eax, DWORD PTR _szKey$[ebp]
  0096b	50		 push	 eax
  0096c	ff d7		 call	 edi

; 149  : 		m_AttackInfo.m_AddNormalEffect[i]= szBuf;

  0096e	8b 8d 90 fd ff
	ff		 mov	 ecx, DWORD PTR _i$548612[ebp]
  00974	81 c1 ff 01 00
	00		 add	 ecx, 511		; 000001ffH
  0097a	c1 e1 04	 shl	 ecx, 4
  0097d	03 8d 84 fd ff
	ff		 add	 ecx, DWORD PTR _this$GSCopy$[ebp]
  00983	8d 85 9c fe ff
	ff		 lea	 eax, DWORD PTR _szBuf$[ebp]
  00989	50		 push	 eax
  0098a	ff 15 00 00 00
	00		 call	 DWORD PTR __imp_??4ioHashString@@QAEAAV0@PBD@Z
  00990	6a 04		 push	 4

; 150  : 		
; 151  : 
; 152  : 		//D~
; 153  : 		wsprintf_e( szKey, "add_full_effect_%d", i+1 );

  00992	c7 45 d8 8c 88
	8f b5		 mov	 DWORD PTR ___encStr$550315[ebp], -1248884596 ; b58f888cH
  00999	c7 45 dc 8b 99
	87 86		 mov	 DWORD PTR ___encStr$550315[ebp+4], -2037933685 ; 8687998bH
  009a0	c7 45 e0 b2 89
	8d 8c		 mov	 DWORD PTR ___encStr$550315[ebp+8], -1936881230 ; 8c8d89b2H
  009a7	c7 45 e4 88 8f
	9f b5		 mov	 DWORD PTR ___encStr$550315[ebp+12], -1247834232 ; b59f8f88H
  009ae	66 c7 45 e8 c8
	88		 mov	 WORD PTR ___encStr$550315[ebp+16], 35016 ; 000088c8H
  009b4	8d 45 d8	 lea	 eax, DWORD PTR ___encStr$550315[ebp]
  009b7	c6 45 ea 00	 mov	 BYTE PTR ___encStr$550315[ebp+18], 0
  009bb	59		 pop	 ecx
$LL1823@LoadTrinit:
  009bc	81 30 ed ec eb
	ea		 xor	 DWORD PTR [eax], -353637139 ; eaebecedH
  009c2	83 c0 04	 add	 eax, 4
  009c5	49		 dec	 ecx
  009c6	75 f4		 jne	 SHORT $LL1823@LoadTrinit
  009c8	6a 10		 push	 16			; 00000010H
  009ca	58		 pop	 eax
$LL1820@LoadTrinit:
  009cb	8b c8		 mov	 ecx, eax
  009cd	81 e1 03 00 00
	80		 and	 ecx, -2147483645	; 80000003H
  009d3	79 05		 jns	 SHORT $LN2154@LoadTrinit
  009d5	49		 dec	 ecx
  009d6	83 c9 fc	 or	 ecx, -4			; fffffffcH
  009d9	41		 inc	 ecx
$LN2154@LoadTrinit:
  009da	b2 ed		 mov	 dl, -19			; ffffffedH
  009dc	2a d1		 sub	 dl, cl
  009de	30 54 05 d8	 xor	 BYTE PTR ___encStr$550315[ebp+eax], dl
  009e2	40		 inc	 eax
  009e3	83 f8 12	 cmp	 eax, 18			; 00000012H
  009e6	7c e3		 jl	 SHORT $LL1820@LoadTrinit
  009e8	ff b5 88 fd ff
	ff		 push	 DWORD PTR tv12354[ebp]
  009ee	8d 45 d8	 lea	 eax, DWORD PTR ___encStr$550315[ebp]
  009f1	50		 push	 eax
  009f2	8d 85 98 fd ff
	ff		 lea	 eax, DWORD PTR _szKey$[ebp]
  009f8	50		 push	 eax
  009f9	ff d6		 call	 esi

; 154  : 		rkLoader.LoadString( szKey, "", szBuf, MAX_PATH );

  009fb	8b 8d 94 fd ff
	ff		 mov	 ecx, DWORD PTR _rkLoader$GSCopy$[ebp]
  00a01	83 c4 0c	 add	 esp, 12			; 0000000cH
  00a04	68 04 01 00 00	 push	 260			; 00000104H
  00a09	8d 85 9c fe ff
	ff		 lea	 eax, DWORD PTR _szBuf$[ebp]
  00a0f	50		 push	 eax
  00a10	53		 push	 ebx
  00a11	8d 85 98 fd ff
	ff		 lea	 eax, DWORD PTR _szKey$[ebp]
  00a17	50		 push	 eax
  00a18	ff d7		 call	 edi

; 155  : 		m_AttackInfo.m_AddFullEffect[i] = szBuf;

  00a1a	8b 8d 90 fd ff
	ff		 mov	 ecx, DWORD PTR _i$548612[ebp]
  00a20	81 c1 ed 01 00
	00		 add	 ecx, 493		; 000001edH
  00a26	c1 e1 04	 shl	 ecx, 4
  00a29	03 8d 84 fd ff
	ff		 add	 ecx, DWORD PTR _this$GSCopy$[ebp]
  00a2f	8d 85 9c fe ff
	ff		 lea	 eax, DWORD PTR _szBuf$[ebp]
  00a35	50		 push	 eax
  00a36	ff 15 00 00 00
	00		 call	 DWORD PTR __imp_??4ioHashString@@QAEAAV0@PBD@Z
  00a3c	6a 05		 push	 5

; 156  : 		
; 157  : 
; 158  : 		//~D
; 159  : 		wsprintf_e( szKey, "add_none_effect_%d_%d", i+1 );

  00a3e	c7 45 d4 8c 88
	8f b5		 mov	 DWORD PTR ___encStr$550467[ebp], -1248884596 ; b58f888cH
  00a45	c7 45 d8 83 83
	85 8f		 mov	 DWORD PTR ___encStr$550467[ebp+4], -1887075453 ; 8f858383H
  00a4c	c7 45 dc b2 89
	8d 8c		 mov	 DWORD PTR ___encStr$550467[ebp+8], -1936881230 ; 8c8d89b2H
  00a53	c7 45 e0 88 8f
	9f b5		 mov	 DWORD PTR ___encStr$550467[ebp+12], -1247834232 ; b59f8f88H
  00a5a	c7 45 e4 c8 88
	b4 cf		 mov	 DWORD PTR ___encStr$550467[ebp+16], -810252088 ; cfb488c8H
  00a61	8d 45 d4	 lea	 eax, DWORD PTR ___encStr$550467[ebp]
  00a64	66 c7 45 e8 89
	00		 mov	 WORD PTR ___encStr$550467[ebp+20], 137 ; 00000089H
  00a6a	59		 pop	 ecx
$LL1831@LoadTrinit:
  00a6b	81 30 ed ec eb
	ea		 xor	 DWORD PTR [eax], -353637139 ; eaebecedH
  00a71	83 c0 04	 add	 eax, 4
  00a74	49		 dec	 ecx
  00a75	75 f4		 jne	 SHORT $LL1831@LoadTrinit
  00a77	ff b5 88 fd ff
	ff		 push	 DWORD PTR tv12354[ebp]
  00a7d	80 75 e8 ed	 xor	 BYTE PTR ___encStr$550467[ebp+20], -19 ; ffffffedH
  00a81	8d 45 d4	 lea	 eax, DWORD PTR ___encStr$550467[ebp]
  00a84	50		 push	 eax
  00a85	8d 85 98 fd ff
	ff		 lea	 eax, DWORD PTR _szKey$[ebp]
  00a8b	50		 push	 eax
  00a8c	ff d6		 call	 esi

; 160  : 		rkLoader.LoadString( szKey, "", szBuf, MAX_PATH );

  00a8e	8b 8d 94 fd ff
	ff		 mov	 ecx, DWORD PTR _rkLoader$GSCopy$[ebp]
  00a94	83 c4 0c	 add	 esp, 12			; 0000000cH
  00a97	68 04 01 00 00	 push	 260			; 00000104H
  00a9c	8d 85 9c fe ff
	ff		 lea	 eax, DWORD PTR _szBuf$[ebp]
  00aa2	50		 push	 eax
  00aa3	53		 push	 ebx
  00aa4	8d 85 98 fd ff
	ff		 lea	 eax, DWORD PTR _szKey$[ebp]
  00aaa	50		 push	 eax
  00aab	ff d7		 call	 edi

; 161  : 		m_AttackInfo.m_AddNoneEffect[i] = szBuf;

  00aad	8b 8d 90 fd ff
	ff		 mov	 ecx, DWORD PTR _i$548612[ebp]
  00ab3	81 c1 f3 01 00
	00		 add	 ecx, 499		; 000001f3H
  00ab9	c1 e1 04	 shl	 ecx, 4
  00abc	03 8d 84 fd ff
	ff		 add	 ecx, DWORD PTR _this$GSCopy$[ebp]
  00ac2	8d 85 9c fe ff
	ff		 lea	 eax, DWORD PTR _szBuf$[ebp]
  00ac8	50		 push	 eax
  00ac9	ff 15 00 00 00
	00		 call	 DWORD PTR __imp_??4ioHashString@@QAEAAV0@PBD@Z
  00acf	6a 06		 push	 6

; 162  : 
; 163  : 		//~D()
; 164  : 		wsprintf_e( szKey, "jump_add_none_effect_%d_%d", i+1 );

  00ad1	c7 45 d0 87 99
	86 9a		 mov	 DWORD PTR ___encStr$550619[ebp], -1702454905 ; 9a869987H
  00ad8	c7 45 d4 b2 8d
	8f 8e		 mov	 DWORD PTR ___encStr$550619[ebp+4], -1903194702 ; 8e8f8db2H
  00adf	c7 45 d8 b2 82
	84 84		 mov	 DWORD PTR ___encStr$550619[ebp+8], -2071690574 ; 848482b2H
  00ae6	c7 45 dc 88 b3
	8e 8c		 mov	 DWORD PTR ___encStr$550619[ebp+12], -1936804984 ; 8c8eb388H
  00aed	c7 45 e0 8b 89
	88 9e		 mov	 DWORD PTR ___encStr$550619[ebp+16], -1635219061 ; 9e88898bH
  00af4	c7 45 e4 b2 c9
	8f b5		 mov	 DWORD PTR ___encStr$550619[ebp+20], -1248867918 ; b58fc9b2H
  00afb	66 c7 45 e8 c8
	88		 mov	 WORD PTR ___encStr$550619[ebp+24], 35016 ; 000088c8H
  00b01	8d 45 d0	 lea	 eax, DWORD PTR ___encStr$550619[ebp]
  00b04	c6 45 ea 00	 mov	 BYTE PTR ___encStr$550619[ebp+26], 0
  00b08	59		 pop	 ecx
$LL1839@LoadTrinit:
  00b09	81 30 ed ec eb
	ea		 xor	 DWORD PTR [eax], -353637139 ; eaebecedH
  00b0f	83 c0 04	 add	 eax, 4
  00b12	49		 dec	 ecx
  00b13	75 f4		 jne	 SHORT $LL1839@LoadTrinit
  00b15	6a 18		 push	 24			; 00000018H
  00b17	58		 pop	 eax
$LL1836@LoadTrinit:
  00b18	8b c8		 mov	 ecx, eax
  00b1a	81 e1 03 00 00
	80		 and	 ecx, -2147483645	; 80000003H
  00b20	79 05		 jns	 SHORT $LN2155@LoadTrinit
  00b22	49		 dec	 ecx
  00b23	83 c9 fc	 or	 ecx, -4			; fffffffcH
  00b26	41		 inc	 ecx
$LN2155@LoadTrinit:
  00b27	b2 ed		 mov	 dl, -19			; ffffffedH
  00b29	2a d1		 sub	 dl, cl
  00b2b	30 54 05 d0	 xor	 BYTE PTR ___encStr$550619[ebp+eax], dl
  00b2f	40		 inc	 eax
  00b30	83 f8 1a	 cmp	 eax, 26			; 0000001aH
  00b33	7c e3		 jl	 SHORT $LL1836@LoadTrinit
  00b35	ff b5 88 fd ff
	ff		 push	 DWORD PTR tv12354[ebp]
  00b3b	8d 45 d0	 lea	 eax, DWORD PTR ___encStr$550619[ebp]
  00b3e	50		 push	 eax
  00b3f	8d 85 98 fd ff
	ff		 lea	 eax, DWORD PTR _szKey$[ebp]
  00b45	50		 push	 eax
  00b46	ff d6		 call	 esi

; 165  : 		rkLoader.LoadString( szKey, "", szBuf, MAX_PATH );

  00b48	8b 8d 94 fd ff
	ff		 mov	 ecx, DWORD PTR _rkLoader$GSCopy$[ebp]
  00b4e	83 c4 0c	 add	 esp, 12			; 0000000cH
  00b51	68 04 01 00 00	 push	 260			; 00000104H
  00b56	8d 85 9c fe ff
	ff		 lea	 eax, DWORD PTR _szBuf$[ebp]
  00b5c	50		 push	 eax
  00b5d	53		 push	 ebx
  00b5e	8d 85 98 fd ff
	ff		 lea	 eax, DWORD PTR _szKey$[ebp]
  00b64	50		 push	 eax
  00b65	ff d7		 call	 edi

; 166  : 		m_AttackInfo.m_AddNoneEffectForJump[i] = szBuf;

  00b67	8b 8d 90 fd ff
	ff		 mov	 ecx, DWORD PTR _i$548612[ebp]
  00b6d	81 c1 f9 01 00
	00		 add	 ecx, 505		; 000001f9H
  00b73	c1 e1 04	 shl	 ecx, 4
  00b76	03 8d 84 fd ff
	ff		 add	 ecx, DWORD PTR _this$GSCopy$[ebp]
  00b7c	8d 85 9c fe ff
	ff		 lea	 eax, DWORD PTR _szBuf$[ebp]
  00b82	50		 push	 eax
  00b83	ff 15 00 00 00
	00		 call	 DWORD PTR __imp_??4ioHashString@@QAEAAV0@PBD@Z
  00b89	8b 85 88 fd ff
	ff		 mov	 eax, DWORD PTR tv12354[ebp]
  00b8f	8b 8d 84 fd ff
	ff		 mov	 ecx, DWORD PTR _this$GSCopy$[ebp]
  00b95	89 85 90 fd ff
	ff		 mov	 DWORD PTR _i$548612[ebp], eax
  00b9b	3b 81 04 21 00
	00		 cmp	 eax, DWORD PTR [ecx+8452]
  00ba1	0f 8c 43 f6 ff
	ff		 jl	 $LN1401@LoadTrinit
$LN1399@LoadTrinit:

; 167  : 	}
; 168  : 
; 169  : 	rkLoader.LoadString_e( "reload_animation", "", szBuf, MAX_PATH );

  00ba7	6a 04		 push	 4
  00ba9	c7 45 b8 9f 89
	87 85		 mov	 DWORD PTR __k$559048[ebp], -2054714977 ; 8587899fH
  00bb0	c7 45 bc 8c 88
	b4 8b		 mov	 DWORD PTR __k$559048[ebp+4], -1951102836 ; 8bb4888cH
  00bb7	c7 45 c0 83 85
	86 8b		 mov	 DWORD PTR __k$559048[ebp+8], -1954118269 ; 8b868583H
  00bbe	c7 45 c4 99 85
	84 84		 mov	 DWORD PTR __k$559048[ebp+12], -2071689831 ; 84848599H
  00bc5	8d 45 b8	 lea	 eax, DWORD PTR __k$559048[ebp]
  00bc8	c6 45 c8 00	 mov	 BYTE PTR __k$559048[ebp+16], 0
  00bcc	59		 pop	 ecx
  00bcd	be ed ec eb ea	 mov	 esi, -353637139		; eaebecedH
$LL1945@LoadTrinit:
  00bd2	31 30		 xor	 DWORD PTR [eax], esi
  00bd4	83 c0 04	 add	 eax, 4
  00bd7	49		 dec	 ecx
  00bd8	75 f8		 jne	 SHORT $LL1945@LoadTrinit
  00bda	8b 8d 94 fd ff
	ff		 mov	 ecx, DWORD PTR _rkLoader$GSCopy$[ebp]
  00be0	68 04 01 00 00	 push	 260			; 00000104H
  00be5	8d 85 9c fe ff
	ff		 lea	 eax, DWORD PTR _szBuf$[ebp]
  00beb	50		 push	 eax
  00bec	53		 push	 ebx
  00bed	8d 45 b8	 lea	 eax, DWORD PTR __k$559048[ebp]
  00bf0	50		 push	 eax
  00bf1	ff d7		 call	 edi

; 170  : 	m_AttackInfo.m_ReloadAni = szBuf;

  00bf3	8b bd 84 fd ff
	ff		 mov	 edi, DWORD PTR _this$GSCopy$[ebp]
  00bf9	8d 85 9c fe ff
	ff		 lea	 eax, DWORD PTR _szBuf$[ebp]
  00bff	50		 push	 eax
  00c00	8d 8f 58 20 00
	00		 lea	 ecx, DWORD PTR [edi+8280]
  00c06	ff 15 00 00 00
	00		 call	 DWORD PTR __imp_??4ioHashString@@QAEAAV0@PBD@Z

; 171  : 	m_AttackInfo.m_fReloadAniRate = rkLoader.LoadFloat_e( "reload_time_rate", FLOAT1 );

  00c0c	b8 01 00 00 00	 mov	 eax, 1
  00c11	6a 04		 push	 4
  00c13	c7 45 a0 9f 89
	87 85		 mov	 DWORD PTR __k$559190[ebp], -2054714977 ; 8587899fH
  00c1a	c7 45 a4 8c 88
	b4 9e		 mov	 DWORD PTR __k$559190[ebp+4], -1632335732 ; 9eb4888cH
  00c21	c7 45 a8 84 81
	8e b5		 mov	 DWORD PTR __k$559190[ebp+8], -1248951932 ; b58e8184H
  00c28	c7 45 ac 9f 8d
	9f 8f		 mov	 DWORD PTR __k$559190[ebp+12], -1885368929 ; 8f9f8d9fH
  00c2f	8d 4d a0	 lea	 ecx, DWORD PTR __k$559190[ebp]
  00c32	c6 45 b0 00	 mov	 BYTE PTR __k$559190[ebp+16], 0
  00c36	5a		 pop	 edx
$LL2053@LoadTrinit:
  00c37	31 31		 xor	 DWORD PTR [ecx], esi
  00c39	83 c1 04	 add	 ecx, 4
  00c3c	4a		 dec	 edx
  00c3d	75 f8		 jne	 SHORT $LL2053@LoadTrinit
  00c3f	89 85 80 fd ff
	ff		 mov	 DWORD PTR tv14753[ebp], eax
  00c45	db 85 80 fd ff
	ff		 fild	 DWORD PTR tv14753[ebp]
  00c4b	85 c0		 test	 eax, eax
  00c4d	79 06		 jns	 SHORT $LN2156@LoadTrinit
  00c4f	d8 05 00 00 00
	00		 fadd	 DWORD PTR __real@4f800000
$LN2156@LoadTrinit:
  00c55	51		 push	 ecx
  00c56	8b 8d 94 fd ff
	ff		 mov	 ecx, DWORD PTR _rkLoader$GSCopy$[ebp]
  00c5c	d9 1c 24	 fstp	 DWORD PTR [esp]
  00c5f	8d 45 a0	 lea	 eax, DWORD PTR __k$559190[ebp]
  00c62	50		 push	 eax
  00c63	ff 15 00 00 00
	00		 call	 DWORD PTR __imp_?LoadFloat@ioINILoader@@QAEMPBDM@Z
  00c69	d9 9f 68 20 00
	00		 fstp	 DWORD PTR [edi+8296]

; 172  : }

  00c6f	e8 00 00 00 00	 call	 __EH_epilog3_GS
  00c74	c2 04 00	 ret	 4
_TEXT	ENDS
;	COMDAT text$x
text$x	SEGMENT
__unwindfunclet$?LoadTrinityInfo@ioTrinityItem@@IAEXAAVioINILoader@@@Z$0:
  00000	8d 8d 68 fd ff
	ff		 lea	 ecx, DWORD PTR $T558478[ebp]
  00006	ff 25 00 00 00
	00		 jmp	 DWORD PTR __imp_??1ioHashString@@QAE@XZ
__unwindfunclet$?LoadTrinityInfo@ioTrinityItem@@IAEXAAVioINILoader@@@Z$1:
  0000c	8d 8d 58 fd ff
	ff		 lea	 ecx, DWORD PTR $T558479[ebp]
  00012	ff 25 00 00 00
	00		 jmp	 DWORD PTR __imp_??1ioHashString@@QAE@XZ
__unwindfunclet$?LoadTrinityInfo@ioTrinityItem@@IAEXAAVioINILoader@@@Z$2:
  00018	8d 8d 48 fd ff
	ff		 lea	 ecx, DWORD PTR $T558480[ebp]
  0001e	ff 25 00 00 00
	00		 jmp	 DWORD PTR __imp_??1ioHashString@@QAE@XZ
__unwindfunclet$?LoadTrinityInfo@ioTrinityItem@@IAEXAAVioINILoader@@@Z$3:
  00024	8d 4d bc	 lea	 ecx, DWORD PTR $T558481[ebp]
  00027	ff 25 00 00 00
	00		 jmp	 DWORD PTR __imp_??1ioHashString@@QAE@XZ
__ehhandler$?LoadTrinityInfo@ioTrinityItem@@IAEXAAVioINILoader@@@Z:
  0002d	8b 54 24 08	 mov	 edx, DWORD PTR [esp+8]
  00031	8d 42 0c	 lea	 eax, DWORD PTR [edx+12]
  00034	8b 8a 44 fd ff
	ff		 mov	 ecx, DWORD PTR [edx-700]
  0003a	33 c8		 xor	 ecx, eax
  0003c	e8 00 00 00 00	 call	 @__security_check_cookie@4
  00041	8b 4a fc	 mov	 ecx, DWORD PTR [edx-4]
  00044	33 c8		 xor	 ecx, eax
  00046	e8 00 00 00 00	 call	 @__security_check_cookie@4
  0004b	b8 00 00 00 00	 mov	 eax, OFFSET __ehfuncinfo$?LoadTrinityInfo@ioTrinityItem@@IAEXAAVioINILoader@@@Z
  00050	e9 00 00 00 00	 jmp	 ___CxxFrameHandler3
text$x	ENDS
?LoadTrinityInfo@ioTrinityItem@@IAEXAAVioINILoader@@@Z ENDP ; ioTrinityItem::LoadTrinityInfo
PUBLIC	??0ioTrinityItem@@QAE@XZ			; ioTrinityItem::ioTrinityItem
EXTRN	??0ioWeaponItem@@QAE@XZ:PROC			; ioWeaponItem::ioWeaponItem
;	COMDAT xdata$x
; File d:\lost saga for developer\youtube\tutorial\source\src\lsclient\encryptvalue.h
xdata$x	SEGMENT
__ehfuncinfo$??0ioTrinityItem@@QAE@XZ DD 019930522H
	DD	07H
	DD	FLAT:__unwindtable$??0ioTrinityItem@@QAE@XZ
	DD	2 DUP(00H)
	DD	2 DUP(00H)
	DD	00H
	DD	01H
__unwindtable$??0ioTrinityItem@@QAE@XZ DD 0ffffffffH
	DD	FLAT:__unwindfunclet$??0ioTrinityItem@@QAE@XZ$0
	DD	00H
	DD	FLAT:__unwindfunclet$??0ioTrinityItem@@QAE@XZ$1
	DD	01H
	DD	FLAT:__unwindfunclet$??0ioTrinityItem@@QAE@XZ$2
	DD	02H
	DD	FLAT:__unwindfunclet$??0ioTrinityItem@@QAE@XZ$3
	DD	03H
	DD	FLAT:__unwindfunclet$??0ioTrinityItem@@QAE@XZ$4
	DD	04H
	DD	FLAT:__unwindfunclet$??0ioTrinityItem@@QAE@XZ$5
	DD	05H
	DD	FLAT:__unwindfunclet$??0ioTrinityItem@@QAE@XZ$6
; Function compile flags: /Ogsp
; File d:\lost saga for developer\youtube\tutorial\source\src\lsclient\iotrinityitem.cpp
xdata$x	ENDS
;	COMDAT ??0ioTrinityItem@@QAE@XZ
_TEXT	SEGMENT
_this$ = -20						; size = 4
_value$559440 = -16					; size = 4
_value$559436 = -16					; size = 4
_value$559432 = -16					; size = 4
__$EHRec$ = -12						; size = 12
??0ioTrinityItem@@QAE@XZ PROC				; ioTrinityItem::ioTrinityItem, COMDAT
; _this$ = ecx

; 12   : {

  00000	6a 08		 push	 8
  00002	b8 00 00 00 00	 mov	 eax, __ehhandler$??0ioTrinityItem@@QAE@XZ
  00007	e8 00 00 00 00	 call	 __EH_prolog3
  0000c	8b f1		 mov	 esi, ecx
  0000e	89 75 ec	 mov	 DWORD PTR _this$[ebp], esi
  00011	e8 00 00 00 00	 call	 ??0ioWeaponItem@@QAE@XZ	; ioWeaponItem::ioWeaponItem
  00016	33 ff		 xor	 edi, edi
  00018	c7 06 00 00 00
	00		 mov	 DWORD PTR [esi], OFFSET ??_7ioTrinityItem@@6B@
  0001e	89 7d fc	 mov	 DWORD PTR __$EHRec$[ebp+8], edi
  00021	89 be 58 19 00
	00		 mov	 DWORD PTR [esi+6488], edi
  00027	89 be 5c 19 00
	00		 mov	 DWORD PTR [esi+6492], edi
  0002d	89 be 60 19 00
	00		 mov	 DWORD PTR [esi+6496], edi
  00033	8d 8e 68 19 00
	00		 lea	 ecx, DWORD PTR [esi+6504]
  00039	c6 45 fc 01	 mov	 BYTE PTR __$EHRec$[ebp+8], 1
  0003d	ff 15 00 00 00
	00		 call	 DWORD PTR __imp_??0ioHashString@@QAE@XZ
  00043	8d 8e 90 19 00
	00		 lea	 ecx, DWORD PTR [esi+6544]
  00049	c6 45 fc 02	 mov	 BYTE PTR __$EHRec$[ebp+8], 2
  0004d	e8 00 00 00 00	 call	 ??0tagTrinityInfo@@QAE@XZ ; tagTrinityInfo::tagTrinityInfo
  00052	8d 8e 6c 20 00
	00		 lea	 ecx, DWORD PTR [esi+8300]
  00058	c6 45 fc 03	 mov	 BYTE PTR __$EHRec$[ebp+8], 3
  0005c	e8 00 00 00 00	 call	 ??0?$CEncrypt@M@@QAE@XZ	; CEncrypt<float>::CEncrypt<float>
  00061	8d 8e 9c 20 00
	00		 lea	 ecx, DWORD PTR [esi+8348]
  00067	c6 45 fc 04	 mov	 BYTE PTR __$EHRec$[ebp+8], 4
  0006b	e8 00 00 00 00	 call	 ??0?$CEncrypt@M@@QAE@XZ	; CEncrypt<float>::CEncrypt<float>
  00070	8d 8e cc 20 00
	00		 lea	 ecx, DWORD PTR [esi+8396]
  00076	c6 45 fc 05	 mov	 BYTE PTR __$EHRec$[ebp+8], 5
  0007a	e8 00 00 00 00	 call	 ??0?$CEncrypt@M@@QAE@XZ	; CEncrypt<float>::CEncrypt<float>

; 13   : 	m_ChargeState = CS_NONE;
; 14   : 
; 15   : 	m_dwAttackStartTime = 0;
; 16   : 	m_iCurCombo = 0;
; 17   : 
; 18   : 	m_fCurChargeRate = 0.0f;

  0007f	0f 57 c0	 xorps	 xmm0, xmm0
  00082	8d 45 f0	 lea	 eax, DWORD PTR _value$559432[ebp]
  00085	50		 push	 eax
  00086	8d 8e 8c 0f 00
	00		 lea	 ecx, DWORD PTR [esi+3980]
  0008c	c6 45 fc 06	 mov	 BYTE PTR __$EHRec$[ebp+8], 6
  00090	89 be 80 19 00
	00		 mov	 DWORD PTR [esi+6528], edi
  00096	89 be 88 19 00
	00		 mov	 DWORD PTR [esi+6536], edi
  0009c	89 be 8c 19 00
	00		 mov	 DWORD PTR [esi+6540], edi
  000a2	f3 0f 11 45 f0	 movss	 DWORD PTR _value$559432[ebp], xmm0
  000a7	e8 00 00 00 00	 call	 ?EncryptValueToPool@?$CEncrypt@M@@AAEXPBD@Z ; CEncrypt<float>::EncryptValueToPool

; 19   : 	m_fCurChargeRateForSkill = 0.0f;

  000ac	0f 57 c0	 xorps	 xmm0, xmm0
  000af	8d 45 f0	 lea	 eax, DWORD PTR _value$559436[ebp]
  000b2	50		 push	 eax
  000b3	8d 8e bc 0f 00
	00		 lea	 ecx, DWORD PTR [esi+4028]
  000b9	f3 0f 11 45 f0	 movss	 DWORD PTR _value$559436[ebp], xmm0
  000be	e8 00 00 00 00	 call	 ?EncryptValueToPool@?$CEncrypt@M@@AAEXPBD@Z ; CEncrypt<float>::EncryptValueToPool

; 20   : 
; 21   : 	m_fCurGauge = 0.0f;

  000c3	0f 57 c0	 xorps	 xmm0, xmm0
  000c6	8d 45 f0	 lea	 eax, DWORD PTR _value$559440[ebp]
  000c9	50		 push	 eax
  000ca	8d 8e 9c 20 00
	00		 lea	 ecx, DWORD PTR [esi+8348]
  000d0	f3 0f 11 45 f0	 movss	 DWORD PTR _value$559440[ebp], xmm0
  000d5	e8 00 00 00 00	 call	 ?EncryptValueToPool@?$CEncrypt@M@@AAEXPBD@Z ; CEncrypt<float>::EncryptValueToPool

; 22   : 	m_nWeaponIndex = 0;

  000da	89 be 00 21 00
	00		 mov	 DWORD PTR [esi+8448], edi

; 23   : 
; 24   : 	m_State = TS_NONE;

  000e0	89 be 84 19 00
	00		 mov	 DWORD PTR [esi+6532], edi

; 25   : }

  000e6	8b c6		 mov	 eax, esi
  000e8	e8 00 00 00 00	 call	 __EH_epilog3
  000ed	c3		 ret	 0
_TEXT	ENDS
;	COMDAT text$x
text$x	SEGMENT
__unwindfunclet$??0ioTrinityItem@@QAE@XZ$0:
  00000	8b 4d ec	 mov	 ecx, DWORD PTR _this$[ebp]
  00003	e9 00 00 00 00	 jmp	 ??1ioWeaponItem@@UAE@XZ	; ioWeaponItem::~ioWeaponItem
__unwindfunclet$??0ioTrinityItem@@QAE@XZ$1:
  00008	8b 4d ec	 mov	 ecx, DWORD PTR _this$[ebp]
  0000b	81 c1 58 19 00
	00		 add	 ecx, 6488		; 00001958H
  00011	e9 00 00 00 00	 jmp	 ??1?$vector@VioHashString@@V?$allocator@VioHashString@@@std@@@std@@QAE@XZ ; std::vector<ioHashString,std::allocator<ioHashString> >::~vector<ioHashString,std::allocator<ioHashString> >
__unwindfunclet$??0ioTrinityItem@@QAE@XZ$2:
  00016	8b 4d ec	 mov	 ecx, DWORD PTR _this$[ebp]
  00019	81 c1 68 19 00
	00		 add	 ecx, 6504		; 00001968H
  0001f	ff 25 00 00 00
	00		 jmp	 DWORD PTR __imp_??1ioHashString@@QAE@XZ
__unwindfunclet$??0ioTrinityItem@@QAE@XZ$3:
  00025	8b 4d ec	 mov	 ecx, DWORD PTR _this$[ebp]
  00028	81 c1 90 19 00
	00		 add	 ecx, 6544		; 00001990H
  0002e	e9 00 00 00 00	 jmp	 ??1tagTrinityInfo@@QAE@XZ
__unwindfunclet$??0ioTrinityItem@@QAE@XZ$4:
  00033	8b 4d ec	 mov	 ecx, DWORD PTR _this$[ebp]
  00036	81 c1 6c 20 00
	00		 add	 ecx, 8300		; 0000206cH
  0003c	e9 00 00 00 00	 jmp	 ??1?$CEncrypt@M@@UAE@XZ	; CEncrypt<float>::~CEncrypt<float>
__unwindfunclet$??0ioTrinityItem@@QAE@XZ$5:
  00041	8b 4d ec	 mov	 ecx, DWORD PTR _this$[ebp]
  00044	81 c1 9c 20 00
	00		 add	 ecx, 8348		; 0000209cH
  0004a	e9 00 00 00 00	 jmp	 ??1?$CEncrypt@M@@UAE@XZ	; CEncrypt<float>::~CEncrypt<float>
__unwindfunclet$??0ioTrinityItem@@QAE@XZ$6:
  0004f	8b 4d ec	 mov	 ecx, DWORD PTR _this$[ebp]
  00052	81 c1 cc 20 00
	00		 add	 ecx, 8396		; 000020ccH
  00058	e9 00 00 00 00	 jmp	 ??1?$CEncrypt@M@@UAE@XZ	; CEncrypt<float>::~CEncrypt<float>
__ehhandler$??0ioTrinityItem@@QAE@XZ:
  0005d	8b 54 24 08	 mov	 edx, DWORD PTR [esp+8]
  00061	8d 42 0c	 lea	 eax, DWORD PTR [edx+12]
  00064	8b 4a e8	 mov	 ecx, DWORD PTR [edx-24]
  00067	33 c8		 xor	 ecx, eax
  00069	e8 00 00 00 00	 call	 @__security_check_cookie@4
  0006e	b8 00 00 00 00	 mov	 eax, OFFSET __ehfuncinfo$??0ioTrinityItem@@QAE@XZ
  00073	e9 00 00 00 00	 jmp	 ___CxxFrameHandler3
text$x	ENDS
??0ioTrinityItem@@QAE@XZ ENDP				; ioTrinityItem::ioTrinityItem
; Function compile flags: /Ogsp
;	COMDAT ??_GioTrinityItem@@UAEPAXI@Z
_TEXT	SEGMENT
___flags$ = 8						; size = 4
??_GioTrinityItem@@UAEPAXI@Z PROC			; ioTrinityItem::`scalar deleting destructor', COMDAT
; _this$ = ecx
  00000	55		 push	 ebp
  00001	8b ec		 mov	 ebp, esp
  00003	56		 push	 esi
  00004	8b f1		 mov	 esi, ecx
  00006	e8 00 00 00 00	 call	 ??1ioTrinityItem@@UAE@XZ ; ioTrinityItem::~ioTrinityItem
  0000b	f6 45 08 01	 test	 BYTE PTR ___flags$[ebp], 1
  0000f	74 07		 je	 SHORT $LN1@scalar@6
  00011	56		 push	 esi
  00012	e8 00 00 00 00	 call	 ??3@YAXPAX@Z		; operator delete
  00017	59		 pop	 ecx
$LN1@scalar@6:
  00018	8b c6		 mov	 eax, esi
  0001a	5e		 pop	 esi
  0001b	5d		 pop	 ebp
  0001c	c2 04 00	 ret	 4
??_GioTrinityItem@@UAEPAXI@Z ENDP			; ioTrinityItem::`scalar deleting destructor'
_TEXT	ENDS
PUBLIC	??0ioTrinityItem@@QAE@ABV0@@Z			; ioTrinityItem::ioTrinityItem
EXTRN	??0ioWeaponItem@@QAE@ABV0@@Z:PROC		; ioWeaponItem::ioWeaponItem
;	COMDAT xdata$x
; File d:\lost saga for developer\youtube\tutorial\source\src\lsclient\encryptvalue.h
xdata$x	SEGMENT
__ehfuncinfo$??0ioTrinityItem@@QAE@ABV0@@Z DD 019930522H
	DD	07H
	DD	FLAT:__unwindtable$??0ioTrinityItem@@QAE@ABV0@@Z
	DD	2 DUP(00H)
	DD	2 DUP(00H)
	DD	00H
	DD	01H
__unwindtable$??0ioTrinityItem@@QAE@ABV0@@Z DD 0ffffffffH
	DD	FLAT:__unwindfunclet$??0ioTrinityItem@@QAE@ABV0@@Z$0
	DD	00H
	DD	FLAT:__unwindfunclet$??0ioTrinityItem@@QAE@ABV0@@Z$1
	DD	01H
	DD	FLAT:__unwindfunclet$??0ioTrinityItem@@QAE@ABV0@@Z$2
	DD	02H
	DD	FLAT:__unwindfunclet$??0ioTrinityItem@@QAE@ABV0@@Z$3
	DD	03H
	DD	FLAT:__unwindfunclet$??0ioTrinityItem@@QAE@ABV0@@Z$4
	DD	04H
	DD	FLAT:__unwindfunclet$??0ioTrinityItem@@QAE@ABV0@@Z$5
	DD	05H
	DD	FLAT:__unwindfunclet$??0ioTrinityItem@@QAE@ABV0@@Z$6
; Function compile flags: /Ogsp
; File d:\lost saga for developer\youtube\tutorial\source\src\lsclient\iotrinityitem.cpp
xdata$x	ENDS
;	COMDAT ??0ioTrinityItem@@QAE@ABV0@@Z
_TEXT	SEGMENT
_this$ = -16						; size = 4
__$EHRec$ = -12						; size = 12
_value$559465 = 8					; size = 4
_value$559461 = 8					; size = 4
_rhs$ = 8						; size = 4
??0ioTrinityItem@@QAE@ABV0@@Z PROC			; ioTrinityItem::ioTrinityItem, COMDAT
; _this$ = ecx

; 36   : {

  00000	6a 04		 push	 4
  00002	b8 00 00 00 00	 mov	 eax, __ehhandler$??0ioTrinityItem@@QAE@ABV0@@Z
  00007	e8 00 00 00 00	 call	 __EH_prolog3
  0000c	8b f1		 mov	 esi, ecx
  0000e	89 75 f0	 mov	 DWORD PTR _this$[ebp], esi
  00011	8b 7d 08	 mov	 edi, DWORD PTR _rhs$[ebp]
  00014	57		 push	 edi
  00015	e8 00 00 00 00	 call	 ??0ioWeaponItem@@QAE@ABV0@@Z ; ioWeaponItem::ioWeaponItem
  0001a	8d 87 58 19 00
	00		 lea	 eax, DWORD PTR [edi+6488]
  00020	33 db		 xor	 ebx, ebx
  00022	50		 push	 eax
  00023	8d 8e 58 19 00
	00		 lea	 ecx, DWORD PTR [esi+6488]
  00029	89 5d fc	 mov	 DWORD PTR __$EHRec$[ebp+8], ebx
  0002c	c7 06 00 00 00
	00		 mov	 DWORD PTR [esi], OFFSET ??_7ioTrinityItem@@6B@
  00032	e8 00 00 00 00	 call	 ??0?$vector@VioHashString@@V?$allocator@VioHashString@@@std@@@std@@QAE@ABV01@@Z ; std::vector<ioHashString,std::allocator<ioHashString> >::vector<ioHashString,std::allocator<ioHashString> >
  00037	8d 87 68 19 00
	00		 lea	 eax, DWORD PTR [edi+6504]
  0003d	50		 push	 eax
  0003e	8d 8e 68 19 00
	00		 lea	 ecx, DWORD PTR [esi+6504]
  00044	c6 45 fc 01	 mov	 BYTE PTR __$EHRec$[ebp+8], 1
  00048	ff 15 00 00 00
	00		 call	 DWORD PTR __imp_??0ioHashString@@QAE@ABV0@@Z
  0004e	d9 87 78 19 00
	00		 fld	 DWORD PTR [edi+6520]
  00054	8d 87 90 19 00
	00		 lea	 eax, DWORD PTR [edi+6544]
  0005a	d9 9e 78 19 00
	00		 fstp	 DWORD PTR [esi+6520]
  00060	50		 push	 eax
  00061	8d 8e 90 19 00
	00		 lea	 ecx, DWORD PTR [esi+6544]
  00067	c6 45 fc 02	 mov	 BYTE PTR __$EHRec$[ebp+8], 2
  0006b	e8 00 00 00 00	 call	 ??0tagTrinityInfo@@QAE@ABU0@@Z
  00070	8d 87 6c 20 00
	00		 lea	 eax, DWORD PTR [edi+8300]
  00076	8d 8e 6c 20 00
	00		 lea	 ecx, DWORD PTR [esi+8300]
  0007c	50		 push	 eax
  0007d	c6 45 fc 03	 mov	 BYTE PTR __$EHRec$[ebp+8], 3
  00081	e8 00 00 00 00	 call	 ??0?$CEncrypt@M@@QAE@ABV0@@Z ; CEncrypt<float>::CEncrypt<float>
  00086	8d 8e 9c 20 00
	00		 lea	 ecx, DWORD PTR [esi+8348]
  0008c	c6 45 fc 04	 mov	 BYTE PTR __$EHRec$[ebp+8], 4
  00090	e8 00 00 00 00	 call	 ??0?$CEncrypt@M@@QAE@XZ	; CEncrypt<float>::CEncrypt<float>
  00095	8d 87 cc 20 00
	00		 lea	 eax, DWORD PTR [edi+8396]
  0009b	50		 push	 eax
  0009c	8d 8e cc 20 00
	00		 lea	 ecx, DWORD PTR [esi+8396]
  000a2	c6 45 fc 05	 mov	 BYTE PTR __$EHRec$[ebp+8], 5
  000a6	e8 00 00 00 00	 call	 ??0?$CEncrypt@M@@QAE@ABV0@@Z ; CEncrypt<float>::CEncrypt<float>
  000ab	8b 87 04 21 00
	00		 mov	 eax, DWORD PTR [edi+8452]

; 37   : 	m_ChargeState = CS_NONE;
; 38   : 
; 39   : 	m_dwAttackStartTime = 0;
; 40   : 	m_iCurCombo = 0;
; 41   : 
; 42   : 	m_fCurChargeRate = 0.0f;

  000b1	0f 57 c0	 xorps	 xmm0, xmm0
  000b4	89 86 04 21 00
	00		 mov	 DWORD PTR [esi+8452], eax
  000ba	8d 45 08	 lea	 eax, DWORD PTR _value$559461[ebp]
  000bd	50		 push	 eax
  000be	8d 8e 8c 0f 00
	00		 lea	 ecx, DWORD PTR [esi+3980]
  000c4	c6 45 fc 06	 mov	 BYTE PTR __$EHRec$[ebp+8], 6
  000c8	89 9e 80 19 00
	00		 mov	 DWORD PTR [esi+6528], ebx
  000ce	89 9e 88 19 00
	00		 mov	 DWORD PTR [esi+6536], ebx
  000d4	89 9e 8c 19 00
	00		 mov	 DWORD PTR [esi+6540], ebx
  000da	f3 0f 11 45 08	 movss	 DWORD PTR _value$559461[ebp], xmm0
  000df	e8 00 00 00 00	 call	 ?EncryptValueToPool@?$CEncrypt@M@@AAEXPBD@Z ; CEncrypt<float>::EncryptValueToPool

; 43   : 	m_fCurChargeRateForSkill = 0.0f;

  000e4	0f 57 c0	 xorps	 xmm0, xmm0
  000e7	8d 45 08	 lea	 eax, DWORD PTR _value$559465[ebp]
  000ea	50		 push	 eax
  000eb	8d 8e bc 0f 00
	00		 lea	 ecx, DWORD PTR [esi+4028]
  000f1	f3 0f 11 45 08	 movss	 DWORD PTR _value$559465[ebp], xmm0
  000f6	e8 00 00 00 00	 call	 ?EncryptValueToPool@?$CEncrypt@M@@AAEXPBD@Z ; CEncrypt<float>::EncryptValueToPool

; 44   : 
; 45   : 	m_fCurGauge = m_fMaxGauge;

  000fb	8d 86 6c 20 00
	00		 lea	 eax, DWORD PTR [esi+8300]
  00101	50		 push	 eax
  00102	8d 8e 9c 20 00
	00		 lea	 ecx, DWORD PTR [esi+8348]
  00108	e8 00 00 00 00	 call	 ??4?$CEncrypt@M@@QAE_NAAV0@@Z ; CEncrypt<float>::operator=

; 46   : 	m_nWeaponIndex = 0;

  0010d	89 9e 00 21 00
	00		 mov	 DWORD PTR [esi+8448], ebx

; 47   : 	m_dwGatheringStartTime = 0;

  00113	89 9e 7c 19 00
	00		 mov	 DWORD PTR [esi+6524], ebx

; 48   : 	m_dwEffect = 0;

  00119	89 9e 08 21 00
	00		 mov	 DWORD PTR [esi+8456], ebx

; 49   : 
; 50   : 	m_State = TS_NONE;

  0011f	89 9e 84 19 00
	00		 mov	 DWORD PTR [esi+6532], ebx

; 51   : 
; 52   : 	m_bVisibleMesh = false;

  00125	88 9e 54 19 00
	00		 mov	 BYTE PTR [esi+6484], bl

; 53   : }

  0012b	8b c6		 mov	 eax, esi
  0012d	e8 00 00 00 00	 call	 __EH_epilog3
  00132	c2 04 00	 ret	 4
_TEXT	ENDS
;	COMDAT text$x
text$x	SEGMENT
__unwindfunclet$??0ioTrinityItem@@QAE@ABV0@@Z$0:
  00000	8b 4d f0	 mov	 ecx, DWORD PTR _this$[ebp]
  00003	e9 00 00 00 00	 jmp	 ??1ioWeaponItem@@UAE@XZ	; ioWeaponItem::~ioWeaponItem
__unwindfunclet$??0ioTrinityItem@@QAE@ABV0@@Z$1:
  00008	8b 4d f0	 mov	 ecx, DWORD PTR _this$[ebp]
  0000b	81 c1 58 19 00
	00		 add	 ecx, 6488		; 00001958H
  00011	e9 00 00 00 00	 jmp	 ??1?$vector@VioHashString@@V?$allocator@VioHashString@@@std@@@std@@QAE@XZ ; std::vector<ioHashString,std::allocator<ioHashString> >::~vector<ioHashString,std::allocator<ioHashString> >
__unwindfunclet$??0ioTrinityItem@@QAE@ABV0@@Z$2:
  00016	8b 4d f0	 mov	 ecx, DWORD PTR _this$[ebp]
  00019	81 c1 68 19 00
	00		 add	 ecx, 6504		; 00001968H
  0001f	ff 25 00 00 00
	00		 jmp	 DWORD PTR __imp_??1ioHashString@@QAE@XZ
__unwindfunclet$??0ioTrinityItem@@QAE@ABV0@@Z$3:
  00025	8b 4d f0	 mov	 ecx, DWORD PTR _this$[ebp]
  00028	81 c1 90 19 00
	00		 add	 ecx, 6544		; 00001990H
  0002e	e9 00 00 00 00	 jmp	 ??1tagTrinityInfo@@QAE@XZ
__unwindfunclet$??0ioTrinityItem@@QAE@ABV0@@Z$4:
  00033	8b 4d f0	 mov	 ecx, DWORD PTR _this$[ebp]
  00036	81 c1 6c 20 00
	00		 add	 ecx, 8300		; 0000206cH
  0003c	e9 00 00 00 00	 jmp	 ??1?$CEncrypt@M@@UAE@XZ	; CEncrypt<float>::~CEncrypt<float>
__unwindfunclet$??0ioTrinityItem@@QAE@ABV0@@Z$5:
  00041	8b 4d f0	 mov	 ecx, DWORD PTR _this$[ebp]
  00044	81 c1 9c 20 00
	00		 add	 ecx, 8348		; 0000209cH
  0004a	e9 00 00 00 00	 jmp	 ??1?$CEncrypt@M@@UAE@XZ	; CEncrypt<float>::~CEncrypt<float>
__unwindfunclet$??0ioTrinityItem@@QAE@ABV0@@Z$6:
  0004f	8b 4d f0	 mov	 ecx, DWORD PTR _this$[ebp]
  00052	81 c1 cc 20 00
	00		 add	 ecx, 8396		; 000020ccH
  00058	e9 00 00 00 00	 jmp	 ??1?$CEncrypt@M@@UAE@XZ	; CEncrypt<float>::~CEncrypt<float>
__ehhandler$??0ioTrinityItem@@QAE@ABV0@@Z:
  0005d	8b 54 24 08	 mov	 edx, DWORD PTR [esp+8]
  00061	8d 42 0c	 lea	 eax, DWORD PTR [edx+12]
  00064	8b 4a ec	 mov	 ecx, DWORD PTR [edx-20]
  00067	33 c8		 xor	 ecx, eax
  00069	e8 00 00 00 00	 call	 @__security_check_cookie@4
  0006e	b8 00 00 00 00	 mov	 eax, OFFSET __ehfuncinfo$??0ioTrinityItem@@QAE@ABV0@@Z
  00073	e9 00 00 00 00	 jmp	 ___CxxFrameHandler3
text$x	ENDS
??0ioTrinityItem@@QAE@ABV0@@Z ENDP			; ioTrinityItem::ioTrinityItem
EXTRN	?LoadProperty@ioWeaponItem@@UAEXAAVioINILoader@@@Z:PROC ; ioWeaponItem::LoadProperty
;	COMDAT xdata$x
; File d:\lost saga for developer\youtube\tutorial\source\src\lsclient\stringprotect.h
xdata$x	SEGMENT
__unwindtable$?LoadProperty@ioTrinityItem@@UAEXAAVioINILoader@@@Z DD 0ffffffffH
	DD	FLAT:__unwindfunclet$?LoadProperty@ioTrinityItem@@UAEXAAVioINILoader@@@Z$0
__ehfuncinfo$?LoadProperty@ioTrinityItem@@UAEXAAVioINILoader@@@Z DD 019930522H
	DD	01H
	DD	FLAT:__unwindtable$?LoadProperty@ioTrinityItem@@UAEXAAVioINILoader@@@Z
	DD	2 DUP(00H)
	DD	2 DUP(00H)
	DD	00H
	DD	01H
; Function compile flags: /Ogsp
; File d:\lost saga for developer\youtube\tutorial\source\src\lsclient\iotrinityitem.cpp
xdata$x	ENDS
;	COMDAT ?LoadProperty@ioTrinityItem@@UAEXAAVioINILoader@@@Z
_TEXT	SEGMENT
_iMaxCombo$ = -364					; size = 4
tv3692 = -360						; size = 4
tv3681 = -360						; size = 4
tv3672 = -360						; size = 4
tv2997 = -360						; size = 4
_value$559835 = -360					; size = 4
_value$559701 = -360					; size = 4
$T559539 = -360						; size = 4
_szBuf$ = -356						; size = 260
___encStr$548412 = -96					; size = 25
__k$559856 = -64					; size = 22
__k$559752 = -36					; size = 15
$T559475 = -36						; size = 16
__k$559601 = -32					; size = 10
__$EHRec$ = -12						; size = 12
_rkLoader$ = 8						; size = 4
?LoadProperty@ioTrinityItem@@UAEXAAVioINILoader@@@Z PROC ; ioTrinityItem::LoadProperty, COMDAT
; _this$ = ecx

; 60   : {

  00000	68 60 01 00 00	 push	 352			; 00000160H
  00005	b8 00 00 00 00	 mov	 eax, __ehhandler$?LoadProperty@ioTrinityItem@@UAEXAAVioINILoader@@@Z
  0000a	e8 00 00 00 00	 call	 __EH_prolog3_GS
  0000f	8b 5d 08	 mov	 ebx, DWORD PTR _rkLoader$[ebp]

; 61   : 	ioWeaponItem::LoadProperty( rkLoader );

  00012	53		 push	 ebx
  00013	8b f1		 mov	 esi, ecx
  00015	e8 00 00 00 00	 call	 ?LoadProperty@ioWeaponItem@@UAEXAAVioINILoader@@@Z ; ioWeaponItem::LoadProperty

; 62   : 
; 63   : 	char szBuf[MAX_PATH];
; 64   : 
; 65   : 	int iMaxCombo = GetMaxCombo();

  0001a	8b 06		 mov	 eax, DWORD PTR [esi]
  0001c	8b ce		 mov	 ecx, esi
  0001e	ff 90 2c 02 00
	00		 call	 DWORD PTR [eax+556]

; 66   : 	m_AttackReadyAniList.clear();

  00024	8b 8e 58 19 00
	00		 mov	 ecx, DWORD PTR [esi+6488]
  0002a	89 85 94 fe ff
	ff		 mov	 DWORD PTR _iMaxCombo$[ebp], eax
  00030	8b 86 5c 19 00
	00		 mov	 eax, DWORD PTR [esi+6492]
  00036	50		 push	 eax
  00037	51		 push	 ecx
  00038	8d 85 98 fe ff
	ff		 lea	 eax, DWORD PTR $T559539[ebp]
  0003e	50		 push	 eax
  0003f	8d 8e 58 19 00
	00		 lea	 ecx, DWORD PTR [esi+6488]
  00045	e8 00 00 00 00	 call	 ?erase@?$vector@VioHashString@@V?$allocator@VioHashString@@@std@@@std@@QAE?AV?$_Vector_iterator@V?$_Vector_val@VioHashString@@V?$allocator@VioHashString@@@std@@@std@@@2@V?$_Vector_const_iterator@V?$_Vector_val@VioHashString@@V?$allocator@VioHashString@@@std@@@std@@@2@0@Z ; std::vector<ioHashString,std::allocator<ioHashString> >::erase

; 67   : 	for( int i=0; i < iMaxCombo; ++i )

  0004a	33 c9		 xor	 ecx, ecx
  0004c	39 8d 94 fe ff
	ff		 cmp	 DWORD PTR _iMaxCombo$[ebp], ecx
  00052	0f 8e b7 00 00
	00		 jle	 $LN100@LoadProper
$LL102@LoadProper:

; 66   : 	m_AttackReadyAniList.clear();

  00058	6a 06		 push	 6

; 68   : 	{
; 69   : 		wsprintf_e( szBuf, "attack_ready_animation%d", i+1 );

  0005a	c7 45 a0 8c 98
	9f 8b		 mov	 DWORD PTR ___encStr$548412[ebp], -1952474996 ; 8b9f988cH
  00061	c7 45 a4 8e 87
	b4 98		 mov	 DWORD PTR ___encStr$548412[ebp+4], -1732999282 ; 98b4878eH
  00068	c7 45 a8 88 8d
	8f 93		 mov	 DWORD PTR ___encStr$548412[ebp+8], -1819308664 ; 938f8d88H
  0006f	c7 45 ac b2 8d
	85 83		 mov	 DWORD PTR ___encStr$548412[ebp+12], -2088399438 ; 83858db2H
  00076	c7 45 b0 80 8d
	9f 83		 mov	 DWORD PTR ___encStr$548412[ebp+16], -2086695552 ; 839f8d80H
  0007d	c7 45 b4 82 82
	ce 8e		 mov	 DWORD PTR ___encStr$548412[ebp+20], -1899068798 ; 8ece8282H
  00084	8d 45 a0	 lea	 eax, DWORD PTR ___encStr$548412[ebp]
  00087	c6 45 b8 00	 mov	 BYTE PTR ___encStr$548412[ebp+24], 0
  0008b	5a		 pop	 edx
$LL129@LoadProper:
  0008c	81 30 ed ec eb
	ea		 xor	 DWORD PTR [eax], -353637139 ; eaebecedH
  00092	83 c0 04	 add	 eax, 4
  00095	4a		 dec	 edx
  00096	75 f4		 jne	 SHORT $LL129@LoadProper
  00098	8d 41 01	 lea	 eax, DWORD PTR [ecx+1]
  0009b	50		 push	 eax
  0009c	89 85 98 fe ff
	ff		 mov	 DWORD PTR tv2997[ebp], eax
  000a2	8d 45 a0	 lea	 eax, DWORD PTR ___encStr$548412[ebp]
  000a5	50		 push	 eax
  000a6	8d 85 9c fe ff
	ff		 lea	 eax, DWORD PTR _szBuf$[ebp]
  000ac	50		 push	 eax
  000ad	ff 15 00 00 00
	00		 call	 DWORD PTR __imp__wsprintfA
  000b3	83 c4 0c	 add	 esp, 12			; 0000000cH

; 70   : 		rkLoader.LoadString( szBuf, "", szBuf, MAX_PATH );

  000b6	68 04 01 00 00	 push	 260			; 00000104H
  000bb	8d 85 9c fe ff
	ff		 lea	 eax, DWORD PTR _szBuf$[ebp]
  000c1	50		 push	 eax
  000c2	68 00 00 00 00	 push	 OFFSET ??_C@_00CNPNBAHC@?$AA@
  000c7	50		 push	 eax
  000c8	8b cb		 mov	 ecx, ebx
  000ca	ff 15 00 00 00
	00		 call	 DWORD PTR __imp_?LoadStringA@ioINILoader@@QAEXPBD0PADH@Z

; 71   : 		m_AttackReadyAniList.push_back( ioHashString(szBuf) );

  000d0	8d 85 9c fe ff
	ff		 lea	 eax, DWORD PTR _szBuf$[ebp]
  000d6	50		 push	 eax
  000d7	8d 4d dc	 lea	 ecx, DWORD PTR $T559475[ebp]
  000da	ff 15 00 00 00
	00		 call	 DWORD PTR __imp_??0ioHashString@@QAE@PBD@Z
  000e0	83 65 fc 00	 and	 DWORD PTR __$EHRec$[ebp+8], 0
  000e4	50		 push	 eax
  000e5	8d 8e 58 19 00
	00		 lea	 ecx, DWORD PTR [esi+6488]
  000eb	e8 00 00 00 00	 call	 ?push_back@?$vector@VioHashString@@V?$allocator@VioHashString@@@std@@@std@@QAEX$$QAVioHashString@@@Z ; std::vector<ioHashString,std::allocator<ioHashString> >::push_back
  000f0	83 4d fc ff	 or	 DWORD PTR __$EHRec$[ebp+8], -1
  000f4	8d 4d dc	 lea	 ecx, DWORD PTR $T559475[ebp]
  000f7	ff 15 00 00 00
	00		 call	 DWORD PTR __imp_??1ioHashString@@QAE@XZ
  000fd	8b 8d 98 fe ff
	ff		 mov	 ecx, DWORD PTR tv2997[ebp]
  00103	3b 8d 94 fe ff
	ff		 cmp	 ecx, DWORD PTR _iMaxCombo$[ebp]
  00109	0f 8c 49 ff ff
	ff		 jl	 $LL102@LoadProper
$LN100@LoadProper:

; 72   : 	}
; 73   : 
; 74   : 	LoadTrinityInfo( rkLoader );

  0010f	53		 push	 ebx
  00110	8b ce		 mov	 ecx, esi
  00112	e8 00 00 00 00	 call	 ?LoadTrinityInfo@ioTrinityItem@@IAEXAAVioINILoader@@@Z ; ioTrinityItem::LoadTrinityInfo

; 75   : 
; 76   : 	m_fMaxGauge			= rkLoader.LoadFloat_e( "max_gauge", FLOAT100 );

  00117	b8 64 00 00 00	 mov	 eax, 100		; 00000064H
  0011c	6a 02		 push	 2
  0011e	c7 45 e0 80 8d
	93 b5		 mov	 DWORD PTR __k$559601[ebp], -1248621184 ; b5938d80H
  00125	c7 45 e4 8a 8d
	9e 8d		 mov	 DWORD PTR __k$559601[ebp+4], -1918988918 ; 8d9e8d8aH
  0012c	8d 4d e0	 lea	 ecx, DWORD PTR __k$559601[ebp]
  0012f	66 c7 45 e8 88
	00		 mov	 WORD PTR __k$559601[ebp+8], 136 ; 00000088H
  00135	5a		 pop	 edx
$LL237@LoadProper:
  00136	81 31 ed ec eb
	ea		 xor	 DWORD PTR [ecx], -353637139 ; eaebecedH
  0013c	83 c1 04	 add	 ecx, 4
  0013f	4a		 dec	 edx
  00140	75 f4		 jne	 SHORT $LL237@LoadProper
  00142	80 75 e8 ed	 xor	 BYTE PTR __k$559601[ebp+8], -19 ; ffffffedH
  00146	89 85 98 fe ff
	ff		 mov	 DWORD PTR tv3692[ebp], eax
  0014c	db 85 98 fe ff
	ff		 fild	 DWORD PTR tv3692[ebp]
  00152	85 c0		 test	 eax, eax
  00154	79 06		 jns	 SHORT $LN479@LoadProper
  00156	d8 05 00 00 00
	00		 fadd	 DWORD PTR __real@4f800000
$LN479@LoadProper:
  0015c	51		 push	 ecx
  0015d	8d 45 e0	 lea	 eax, DWORD PTR __k$559601[ebp]
  00160	d9 1c 24	 fstp	 DWORD PTR [esp]
  00163	50		 push	 eax
  00164	8b cb		 mov	 ecx, ebx
  00166	ff 15 00 00 00
	00		 call	 DWORD PTR __imp_?LoadFloat@ioINILoader@@QAEMPBDM@Z
  0016c	d9 9d 98 fe ff
	ff		 fstp	 DWORD PTR _value$559701[ebp]
  00172	8d 85 98 fe ff
	ff		 lea	 eax, DWORD PTR _value$559701[ebp]
  00178	50		 push	 eax
  00179	8d 8e 6c 20 00
	00		 lea	 ecx, DWORD PTR [esi+8300]
  0017f	e8 00 00 00 00	 call	 ?EncryptValueToPool@?$CEncrypt@M@@AAEXPBD@Z ; CEncrypt<float>::EncryptValueToPool

; 77   : 	m_fIncreaseGauge    = rkLoader.LoadFloat_e( "increase_gauge", FLOAT1 );

  00184	b8 01 00 00 00	 mov	 eax, 1
  00189	6a 03		 push	 3
  0018b	8b f8		 mov	 edi, eax
  0018d	c7 45 dc 84 82
	88 98		 mov	 DWORD PTR __k$559752[ebp], -1735884156 ; 98888284H
  00194	c7 45 e0 88 8d
	98 8f		 mov	 DWORD PTR __k$559752[ebp+4], -1885827704 ; 8f988d88H
  0019b	c7 45 e4 b2 8b
	8a 9f		 mov	 DWORD PTR __k$559752[ebp+8], -1618310222 ; 9f8a8bb2H
  001a2	66 c7 45 e8 8a
	89		 mov	 WORD PTR __k$559752[ebp+12], 35210 ; 0000898aH
  001a8	8d 4d dc	 lea	 ecx, DWORD PTR __k$559752[ebp]
  001ab	c6 45 ea 00	 mov	 BYTE PTR __k$559752[ebp+14], 0
  001af	58		 pop	 eax
$LL347@LoadProper:
  001b0	81 31 ed ec eb
	ea		 xor	 DWORD PTR [ecx], -353637139 ; eaebecedH
  001b6	83 c1 04	 add	 ecx, 4
  001b9	48		 dec	 eax
  001ba	75 f4		 jne	 SHORT $LL347@LoadProper
  001bc	6a 0c		 push	 12			; 0000000cH
  001be	58		 pop	 eax
$LL344@LoadProper:
  001bf	8b c8		 mov	 ecx, eax
  001c1	81 e1 03 00 00
	80		 and	 ecx, -2147483645	; 80000003H
  001c7	79 05		 jns	 SHORT $LN480@LoadProper
  001c9	49		 dec	 ecx
  001ca	83 c9 fc	 or	 ecx, -4			; fffffffcH
  001cd	41		 inc	 ecx
$LN480@LoadProper:
  001ce	b2 ed		 mov	 dl, -19			; ffffffedH
  001d0	2a d1		 sub	 dl, cl
  001d2	30 54 05 dc	 xor	 BYTE PTR __k$559752[ebp+eax], dl
  001d6	40		 inc	 eax
  001d7	83 f8 0e	 cmp	 eax, 14			; 0000000eH
  001da	7c e3		 jl	 SHORT $LL344@LoadProper
  001dc	89 bd 98 fe ff
	ff		 mov	 DWORD PTR tv3681[ebp], edi
  001e2	db 85 98 fe ff
	ff		 fild	 DWORD PTR tv3681[ebp]
  001e8	85 ff		 test	 edi, edi
  001ea	79 06		 jns	 SHORT $LN481@LoadProper
  001ec	d8 05 00 00 00
	00		 fadd	 DWORD PTR __real@4f800000
$LN481@LoadProper:
  001f2	51		 push	 ecx
  001f3	8d 45 dc	 lea	 eax, DWORD PTR __k$559752[ebp]
  001f6	d9 1c 24	 fstp	 DWORD PTR [esp]
  001f9	50		 push	 eax
  001fa	8b cb		 mov	 ecx, ebx
  001fc	ff 15 00 00 00
	00		 call	 DWORD PTR __imp_?LoadFloat@ioINILoader@@QAEMPBDM@Z
  00202	d9 9d 98 fe ff
	ff		 fstp	 DWORD PTR _value$559835[ebp]
  00208	8d 85 98 fe ff
	ff		 lea	 eax, DWORD PTR _value$559835[ebp]
  0020e	50		 push	 eax
  0020f	8d 8e cc 20 00
	00		 lea	 ecx, DWORD PTR [esi+8396]
  00215	e8 00 00 00 00	 call	 ?EncryptValueToPool@?$CEncrypt@M@@AAEXPBD@Z ; CEncrypt<float>::EncryptValueToPool

; 78   : 	m_fAttackSpeedRate	= rkLoader.LoadFloat_e( "attack_max_speed_rate", FLOAT1 );

  0021a	b8 01 00 00 00	 mov	 eax, 1
  0021f	6a 05		 push	 5
  00221	c7 45 c0 8c 98
	9f 8b		 mov	 DWORD PTR __k$559856[ebp], -1952474996 ; 8b9f988cH
  00228	c7 45 c4 8e 87
	b4 87		 mov	 DWORD PTR __k$559856[ebp+4], -2018211954 ; 87b4878eH
  0022f	c7 45 c8 8c 94
	b4 99		 mov	 DWORD PTR __k$559856[ebp+8], -1716218740 ; 99b4948cH
  00236	c7 45 cc 9d 89
	8e 8e		 mov	 DWORD PTR __k$559856[ebp+12], -1903261283 ; 8e8e899dH
  0023d	c7 45 d0 b2 9e
	8a 9e		 mov	 DWORD PTR __k$559856[ebp+16], -1635082574 ; 9e8a9eb2H
  00244	8d 4d c0	 lea	 ecx, DWORD PTR __k$559856[ebp]
  00247	66 c7 45 d4 88
	00		 mov	 WORD PTR __k$559856[ebp+20], 136 ; 00000088H
  0024d	5a		 pop	 edx
$LL457@LoadProper:
  0024e	81 31 ed ec eb
	ea		 xor	 DWORD PTR [ecx], -353637139 ; eaebecedH
  00254	83 c1 04	 add	 ecx, 4
  00257	4a		 dec	 edx
  00258	75 f4		 jne	 SHORT $LL457@LoadProper
  0025a	80 75 d4 ed	 xor	 BYTE PTR __k$559856[ebp+20], -19 ; ffffffedH
  0025e	89 85 98 fe ff
	ff		 mov	 DWORD PTR tv3672[ebp], eax
  00264	db 85 98 fe ff
	ff		 fild	 DWORD PTR tv3672[ebp]
  0026a	85 c0		 test	 eax, eax
  0026c	79 06		 jns	 SHORT $LN482@LoadProper
  0026e	d8 05 00 00 00
	00		 fadd	 DWORD PTR __real@4f800000
$LN482@LoadProper:
  00274	51		 push	 ecx
  00275	8d 45 c0	 lea	 eax, DWORD PTR __k$559856[ebp]
  00278	d9 1c 24	 fstp	 DWORD PTR [esp]
  0027b	50		 push	 eax
  0027c	8b cb		 mov	 ecx, ebx
  0027e	ff 15 00 00 00
	00		 call	 DWORD PTR __imp_?LoadFloat@ioINILoader@@QAEMPBDM@Z
  00284	d9 9e 18 0a 00
	00		 fstp	 DWORD PTR [esi+2584]

; 79   : }

  0028a	e8 00 00 00 00	 call	 __EH_epilog3_GS
  0028f	c2 04 00	 ret	 4
_TEXT	ENDS
;	COMDAT text$x
text$x	SEGMENT
__unwindfunclet$?LoadProperty@ioTrinityItem@@UAEXAAVioINILoader@@@Z$0:
  00000	8d 4d dc	 lea	 ecx, DWORD PTR $T559475[ebp]
  00003	ff 25 00 00 00
	00		 jmp	 DWORD PTR __imp_??1ioHashString@@QAE@XZ
__ehhandler$?LoadProperty@ioTrinityItem@@UAEXAAVioINILoader@@@Z:
  00009	8b 54 24 08	 mov	 edx, DWORD PTR [esp+8]
  0000d	8d 42 0c	 lea	 eax, DWORD PTR [edx+12]
  00010	8b 8a 90 fe ff
	ff		 mov	 ecx, DWORD PTR [edx-368]
  00016	33 c8		 xor	 ecx, eax
  00018	e8 00 00 00 00	 call	 @__security_check_cookie@4
  0001d	8b 4a fc	 mov	 ecx, DWORD PTR [edx-4]
  00020	33 c8		 xor	 ecx, eax
  00022	e8 00 00 00 00	 call	 @__security_check_cookie@4
  00027	b8 00 00 00 00	 mov	 eax, OFFSET __ehfuncinfo$?LoadProperty@ioTrinityItem@@UAEXAAVioINILoader@@@Z
  0002c	e9 00 00 00 00	 jmp	 ___CxxFrameHandler3
text$x	ENDS
?LoadProperty@ioTrinityItem@@UAEXAAVioINILoader@@@Z ENDP ; ioTrinityItem::LoadProperty
;	COMDAT xdata$x
xdata$x	SEGMENT
__unwindtable$?Clone@ioTrinityItem@@UAEPAVioItem@@XZ DD 0ffffffffH
	DD	FLAT:__unwindfunclet$?Clone@ioTrinityItem@@UAEPAVioItem@@XZ$0
__ehfuncinfo$?Clone@ioTrinityItem@@UAEPAVioItem@@XZ DD 019930522H
	DD	01H
	DD	FLAT:__unwindtable$?Clone@ioTrinityItem@@UAEPAVioItem@@XZ
	DD	2 DUP(00H)
	DD	2 DUP(00H)
	DD	00H
	DD	01H
; Function compile flags: /Ogsp
xdata$x	ENDS
;	COMDAT ?Clone@ioTrinityItem@@UAEPAVioItem@@XZ
_TEXT	SEGMENT
$T559999 = -16						; size = 4
__$EHRec$ = -12						; size = 12
?Clone@ioTrinityItem@@UAEPAVioItem@@XZ PROC		; ioTrinityItem::Clone, COMDAT
; _this$ = ecx

; 175  : {

  00000	6a 04		 push	 4
  00002	b8 00 00 00 00	 mov	 eax, __ehhandler$?Clone@ioTrinityItem@@UAEPAVioItem@@XZ
  00007	e8 00 00 00 00	 call	 __EH_prolog3
  0000c	8b f1		 mov	 esi, ecx

; 176  : 	return new ioTrinityItem( *this );

  0000e	68 0c 21 00 00	 push	 8460			; 0000210cH
  00013	e8 00 00 00 00	 call	 ??2@YAPAXI@Z		; operator new
  00018	59		 pop	 ecx
  00019	8b c8		 mov	 ecx, eax
  0001b	89 4d f0	 mov	 DWORD PTR $T559999[ebp], ecx
  0001e	33 c0		 xor	 eax, eax
  00020	89 45 fc	 mov	 DWORD PTR __$EHRec$[ebp+8], eax
  00023	3b c8		 cmp	 ecx, eax
  00025	74 06		 je	 SHORT $LN3@Clone
  00027	56		 push	 esi
  00028	e8 00 00 00 00	 call	 ??0ioTrinityItem@@QAE@ABV0@@Z ; ioTrinityItem::ioTrinityItem
$LN3@Clone:

; 177  : }

  0002d	e8 00 00 00 00	 call	 __EH_epilog3
  00032	c3		 ret	 0
_TEXT	ENDS
;	COMDAT text$x
text$x	SEGMENT
__unwindfunclet$?Clone@ioTrinityItem@@UAEPAVioItem@@XZ$0:
  00000	ff 75 f0	 push	 DWORD PTR $T559999[ebp]
  00003	e8 00 00 00 00	 call	 ??3@YAXPAX@Z		; operator delete
  00008	59		 pop	 ecx
  00009	c3		 ret	 0
__ehhandler$?Clone@ioTrinityItem@@UAEPAVioItem@@XZ:
  0000a	8b 54 24 08	 mov	 edx, DWORD PTR [esp+8]
  0000e	8d 42 0c	 lea	 eax, DWORD PTR [edx+12]
  00011	8b 4a ec	 mov	 ecx, DWORD PTR [edx-20]
  00014	33 c8		 xor	 ecx, eax
  00016	e8 00 00 00 00	 call	 @__security_check_cookie@4
  0001b	b8 00 00 00 00	 mov	 eax, OFFSET __ehfuncinfo$?Clone@ioTrinityItem@@UAEPAVioItem@@XZ
  00020	e9 00 00 00 00	 jmp	 ___CxxFrameHandler3
text$x	ENDS
?Clone@ioTrinityItem@@UAEPAVioItem@@XZ ENDP		; ioTrinityItem::Clone
END
