; Listing generated by Microsoft (R) Optimizing Compiler Version 16.00.30319.01 

	TITLE	D:\Lost Saga For Developer\Youtube\Tutorial\Source\src\LSClient\ioTraceWeaponType3.cpp
	.686P
	.XMM
	include listing.inc
	.model	flat

INCLUDELIB MSVCRT
INCLUDELIB OLDNAMES

PUBLIC	?_EEM_DS@?$deque@UD3DXVECTOR3@@V?$allocator@UD3DXVECTOR3@@@std@@@std@@2HB ; std::deque<D3DXVECTOR3,std::allocator<D3DXVECTOR3> >::_EEM_DS
PUBLIC	?m_ActionStopType@ioTraceWeaponType3@@2W4ActionStopType@@A ; ioTraceWeaponType3::m_ActionStopType
PUBLIC	?m_DieActionStopType@ioTraceWeaponType3@@2W4ActionStopType@@A ; ioTraceWeaponType3::m_DieActionStopType
_BSS	SEGMENT
?m_ActionStopType@ioTraceWeaponType3@@2W4ActionStopType@@A DD 01H DUP (?) ; ioTraceWeaponType3::m_ActionStopType
?m_DieActionStopType@ioTraceWeaponType3@@2W4ActionStopType@@A DD 01H DUP (?) ; ioTraceWeaponType3::m_DieActionStopType
_BSS	ENDS
;	COMDAT ?_EEM_DS@?$deque@UD3DXVECTOR3@@V?$allocator@UD3DXVECTOR3@@@std@@@std@@2HB
CONST	SEGMENT
?_EEM_DS@?$deque@UD3DXVECTOR3@@V?$allocator@UD3DXVECTOR3@@@std@@@std@@2HB DD 01H ; std::deque<D3DXVECTOR3,std::allocator<D3DXVECTOR3> >::_EEM_DS
CONST	ENDS
PUBLIC	?return1@@YAIXZ					; return1
; Function compile flags: /Ogsp
; File d:\lost saga for developer\youtube\tutorial\source\src\lsclient\stdafx.h
;	COMDAT ?return1@@YAIXZ
_TEXT	SEGMENT
?return1@@YAIXZ PROC					; return1, COMDAT

; 17   : 	__forceinline unsigned int return1() { __asm mov eax, 1 };

  00000	b8 01 00 00 00	 mov	 eax, 1
  00005	c3		 ret	 0
?return1@@YAIXZ ENDP					; return1
_TEXT	ENDS
PUBLIC	?return10@@YAIXZ				; return10
; Function compile flags: /Ogsp
;	COMDAT ?return10@@YAIXZ
_TEXT	SEGMENT
?return10@@YAIXZ PROC					; return10, COMDAT

; 21   : 	__forceinline unsigned int return10() { __asm mov eax, 10 };

  00000	b8 0a 00 00 00	 mov	 eax, 10			; 0000000aH
  00005	c3		 ret	 0
?return10@@YAIXZ ENDP					; return10
_TEXT	ENDS
PUBLIC	?return1000@@YAIXZ				; return1000
; Function compile flags: /Ogsp
;	COMDAT ?return1000@@YAIXZ
_TEXT	SEGMENT
?return1000@@YAIXZ PROC					; return1000, COMDAT

; 29   : 	__forceinline unsigned int return1000() { __asm mov eax, 1000 };

  00000	b8 e8 03 00 00	 mov	 eax, 1000		; 000003e8H
  00005	c3		 ret	 0
?return1000@@YAIXZ ENDP					; return1000
_TEXT	ENDS
PUBLIC	?GetTargetRot@ioBaseChar@@QBEABUD3DXQUATERNION@@XZ ; ioBaseChar::GetTargetRot
; Function compile flags: /Ogsp
; File d:\lost saga for developer\youtube\tutorial\source\src\lsclient\iobasechar.h
;	COMDAT ?GetTargetRot@ioBaseChar@@QBEABUD3DXQUATERNION@@XZ
_TEXT	SEGMENT
?GetTargetRot@ioBaseChar@@QBEABUD3DXQUATERNION@@XZ PROC	; ioBaseChar::GetTargetRot, COMDAT
; _this$ = ecx

; 2599 : 	inline const D3DXQUATERNION& GetTargetRot() const { return m_qtTargetRot; }

  00000	8d 81 a4 06 00
	00		 lea	 eax, DWORD PTR [ecx+1700]
  00006	c3		 ret	 0
?GetTargetRot@ioBaseChar@@QBEABUD3DXQUATERNION@@XZ ENDP	; ioBaseChar::GetTargetRot
_TEXT	ENDS
PUBLIC	_acosf
EXTRN	__fltused:DWORD
EXTRN	__CIacos:PROC
; Function compile flags: /Ogsp
; File c:\program files (x86)\microsoft visual studio 10.0\vc\include\math.h
;	COMDAT _acosf
_TEXT	SEGMENT
tv69 = 8						; size = 4
__X$ = 8						; size = 4
_acosf	PROC						; COMDAT

; 400  :         {return ((float)acos((double)_X)); }

  00000	55		 push	 ebp
  00001	8b ec		 mov	 ebp, esp
  00003	d9 45 08	 fld	 DWORD PTR __X$[ebp]
  00006	e8 00 00 00 00	 call	 __CIacos
  0000b	d9 5d 08	 fstp	 DWORD PTR tv69[ebp]
  0000e	d9 45 08	 fld	 DWORD PTR tv69[ebp]
  00011	5d		 pop	 ebp
  00012	c3		 ret	 0
_acosf	ENDP
_TEXT	ENDS
PUBLIC	?acos@@YAMM@Z					; acos
; Function compile flags: /Ogsp
;	COMDAT ?acos@@YAMM@Z
_TEXT	SEGMENT
tv73 = 8						; size = 4
__X$ = 8						; size = 4
?acos@@YAMM@Z PROC					; acos, COMDAT

; 502  :         {return (acosf(_X)); }

  00000	55		 push	 ebp
  00001	8b ec		 mov	 ebp, esp
  00003	d9 45 08	 fld	 DWORD PTR __X$[ebp]
  00006	e8 00 00 00 00	 call	 __CIacos
  0000b	d9 5d 08	 fstp	 DWORD PTR tv73[ebp]
  0000e	d9 45 08	 fld	 DWORD PTR tv73[ebp]
  00011	5d		 pop	 ebp
  00012	c3		 ret	 0
?acos@@YAMM@Z ENDP					; acos
_TEXT	ENDS
PUBLIC	??_7bad_alloc@std@@6B@				; std::bad_alloc::`vftable'
PUBLIC	??0bad_alloc@std@@QAE@PBD@Z			; std::bad_alloc::bad_alloc
PUBLIC	??_R4bad_alloc@std@@6B@				; std::bad_alloc::`RTTI Complete Object Locator'
PUBLIC	??_R0?AVbad_alloc@std@@@8			; std::bad_alloc `RTTI Type Descriptor'
PUBLIC	??_R3bad_alloc@std@@8				; std::bad_alloc::`RTTI Class Hierarchy Descriptor'
PUBLIC	??_R2bad_alloc@std@@8				; std::bad_alloc::`RTTI Base Class Array'
PUBLIC	??_R1A@?0A@EA@bad_alloc@std@@8			; std::bad_alloc::`RTTI Base Class Descriptor at (0,-1,0,64)'
PUBLIC	??_R1A@?0A@EA@exception@std@@8			; std::exception::`RTTI Base Class Descriptor at (0,-1,0,64)'
PUBLIC	??_R0?AVexception@std@@@8			; std::exception `RTTI Type Descriptor'
PUBLIC	??_R3exception@std@@8				; std::exception::`RTTI Class Hierarchy Descriptor'
PUBLIC	??_R2exception@std@@8				; std::exception::`RTTI Base Class Array'
EXTRN	__imp_??0exception@std@@QAE@ABQBD@Z:PROC
EXTRN	??_7type_info@@6B@:QWORD			; type_info::`vftable'
EXTRN	??_Ebad_alloc@std@@UAEPAXI@Z:PROC		; std::bad_alloc::`vector deleting destructor'
EXTRN	?what@exception@std@@UBEPBDXZ:PROC		; std::exception::what
;	COMDAT ??_R2exception@std@@8
; File c:\program files (x86)\microsoft visual studio 10.0\vc\include\exception
rdata$r	SEGMENT
??_R2exception@std@@8 DD FLAT:??_R1A@?0A@EA@exception@std@@8 ; std::exception::`RTTI Base Class Array'
rdata$r	ENDS
;	COMDAT ??_R3exception@std@@8
rdata$r	SEGMENT
??_R3exception@std@@8 DD 00H				; std::exception::`RTTI Class Hierarchy Descriptor'
	DD	00H
	DD	01H
	DD	FLAT:??_R2exception@std@@8
rdata$r	ENDS
;	COMDAT ??_R0?AVexception@std@@@8
_DATA	SEGMENT
??_R0?AVexception@std@@@8 DD FLAT:??_7type_info@@6B@	; std::exception `RTTI Type Descriptor'
	DD	00H
	DB	'.?AVexception@std@@', 00H
_DATA	ENDS
;	COMDAT ??_R1A@?0A@EA@exception@std@@8
rdata$r	SEGMENT
??_R1A@?0A@EA@exception@std@@8 DD FLAT:??_R0?AVexception@std@@@8 ; std::exception::`RTTI Base Class Descriptor at (0,-1,0,64)'
	DD	00H
	DD	00H
	DD	0ffffffffH
	DD	00H
	DD	040H
	DD	FLAT:??_R3exception@std@@8
rdata$r	ENDS
;	COMDAT ??_R1A@?0A@EA@bad_alloc@std@@8
rdata$r	SEGMENT
??_R1A@?0A@EA@bad_alloc@std@@8 DD FLAT:??_R0?AVbad_alloc@std@@@8 ; std::bad_alloc::`RTTI Base Class Descriptor at (0,-1,0,64)'
	DD	01H
	DD	00H
	DD	0ffffffffH
	DD	00H
	DD	040H
	DD	FLAT:??_R3bad_alloc@std@@8
rdata$r	ENDS
;	COMDAT ??_R2bad_alloc@std@@8
rdata$r	SEGMENT
??_R2bad_alloc@std@@8 DD FLAT:??_R1A@?0A@EA@bad_alloc@std@@8 ; std::bad_alloc::`RTTI Base Class Array'
	DD	FLAT:??_R1A@?0A@EA@exception@std@@8
rdata$r	ENDS
;	COMDAT ??_R3bad_alloc@std@@8
rdata$r	SEGMENT
??_R3bad_alloc@std@@8 DD 00H				; std::bad_alloc::`RTTI Class Hierarchy Descriptor'
	DD	00H
	DD	02H
	DD	FLAT:??_R2bad_alloc@std@@8
rdata$r	ENDS
;	COMDAT ??_R0?AVbad_alloc@std@@@8
_DATA	SEGMENT
??_R0?AVbad_alloc@std@@@8 DD FLAT:??_7type_info@@6B@	; std::bad_alloc `RTTI Type Descriptor'
	DD	00H
	DB	'.?AVbad_alloc@std@@', 00H
_DATA	ENDS
;	COMDAT ??_R4bad_alloc@std@@6B@
rdata$r	SEGMENT
??_R4bad_alloc@std@@6B@ DD 00H				; std::bad_alloc::`RTTI Complete Object Locator'
	DD	00H
	DD	00H
	DD	FLAT:??_R0?AVbad_alloc@std@@@8
	DD	FLAT:??_R3bad_alloc@std@@8
rdata$r	ENDS
;	COMDAT ??_7bad_alloc@std@@6B@
CONST	SEGMENT
??_7bad_alloc@std@@6B@ DD FLAT:??_R4bad_alloc@std@@6B@	; std::bad_alloc::`vftable'
	DD	FLAT:??_Ebad_alloc@std@@UAEPAXI@Z
	DD	FLAT:?what@exception@std@@UBEPBDXZ
; Function compile flags: /Ogsp
CONST	ENDS
;	COMDAT ??0bad_alloc@std@@QAE@PBD@Z
_TEXT	SEGMENT
__Message$ = 8						; size = 4
??0bad_alloc@std@@QAE@PBD@Z PROC			; std::bad_alloc::bad_alloc, COMDAT
; _this$ = ecx

; 345  : 		{	// construct from message string

  00000	55		 push	 ebp
  00001	8b ec		 mov	 ebp, esp
  00003	56		 push	 esi
  00004	8d 45 08	 lea	 eax, DWORD PTR __Message$[ebp]
  00007	50		 push	 eax
  00008	8b f1		 mov	 esi, ecx
  0000a	ff 15 00 00 00
	00		 call	 DWORD PTR __imp_??0exception@std@@QAE@ABQBD@Z
  00010	c7 06 00 00 00
	00		 mov	 DWORD PTR [esi], OFFSET ??_7bad_alloc@std@@6B@

; 346  : 		}

  00016	8b c6		 mov	 eax, esi
  00018	5e		 pop	 esi
  00019	5d		 pop	 ebp
  0001a	c2 04 00	 ret	 4
??0bad_alloc@std@@QAE@PBD@Z ENDP			; std::bad_alloc::bad_alloc
_TEXT	ENDS
PUBLIC	??1bad_alloc@std@@UAE@XZ			; std::bad_alloc::~bad_alloc
EXTRN	__imp_??1exception@std@@UAE@XZ:PROC
; Function compile flags: /Ogsp
;	COMDAT ??1bad_alloc@std@@UAE@XZ
_TEXT	SEGMENT
??1bad_alloc@std@@UAE@XZ PROC				; std::bad_alloc::~bad_alloc, COMDAT
; _this$ = ecx

; 354  : 		{	// destroy the object

  00000	c7 01 00 00 00
	00		 mov	 DWORD PTR [ecx], OFFSET ??_7bad_alloc@std@@6B@

; 355  : 		}

  00006	ff 25 00 00 00
	00		 jmp	 DWORD PTR __imp_??1exception@std@@UAE@XZ
??1bad_alloc@std@@UAE@XZ ENDP				; std::bad_alloc::~bad_alloc
_TEXT	ENDS
EXTRN	??3@YAXPAX@Z:PROC				; operator delete
; Function compile flags: /Ogsp
;	COMDAT ??_Gbad_alloc@std@@UAEPAXI@Z
_TEXT	SEGMENT
___flags$ = 8						; size = 4
??_Gbad_alloc@std@@UAEPAXI@Z PROC			; std::bad_alloc::`scalar deleting destructor', COMDAT
; _this$ = ecx
  00000	55		 push	 ebp
  00001	8b ec		 mov	 ebp, esp
  00003	56		 push	 esi
  00004	8b f1		 mov	 esi, ecx
  00006	c7 06 00 00 00
	00		 mov	 DWORD PTR [esi], OFFSET ??_7bad_alloc@std@@6B@
  0000c	ff 15 00 00 00
	00		 call	 DWORD PTR __imp_??1exception@std@@UAE@XZ
  00012	f6 45 08 01	 test	 BYTE PTR ___flags$[ebp], 1
  00016	74 07		 je	 SHORT $LN1@scalar
  00018	56		 push	 esi
  00019	e8 00 00 00 00	 call	 ??3@YAXPAX@Z		; operator delete
  0001e	59		 pop	 ecx
$LN1@scalar:
  0001f	8b c6		 mov	 eax, esi
  00021	5e		 pop	 esi
  00022	5d		 pop	 ebp
  00023	c2 04 00	 ret	 4
??_Gbad_alloc@std@@UAEPAXI@Z ENDP			; std::bad_alloc::`scalar deleting destructor'
_TEXT	ENDS
PUBLIC	??2@YAPAXIPAX@Z					; operator new
; Function compile flags: /Ogsp
; File c:\program files (x86)\microsoft visual studio 10.0\vc\include\new
;	COMDAT ??2@YAPAXIPAX@Z
_TEXT	SEGMENT
___formal$ = 8						; size = 4
__Where$ = 12						; size = 4
??2@YAPAXIPAX@Z PROC					; operator new, COMDAT

; 56   : 	{	// construct array with placement at _Where

  00000	55		 push	 ebp
  00001	8b ec		 mov	 ebp, esp

; 57   : 	return (_Where);

  00003	8b 45 0c	 mov	 eax, DWORD PTR __Where$[ebp]

; 58   : 	}

  00006	5d		 pop	 ebp
  00007	c3		 ret	 0
??2@YAPAXIPAX@Z ENDP					; operator new
_TEXT	ENDS
PUBLIC	??3@YAXPAX0@Z					; operator delete
; Function compile flags: /Ogsp
;	COMDAT ??3@YAXPAX0@Z
_TEXT	SEGMENT
___formal$ = 8						; size = 4
___formal$ = 12						; size = 4
??3@YAXPAX0@Z PROC					; operator delete, COMDAT

; 62   : 	}

  00000	c3		 ret	 0
??3@YAXPAX0@Z ENDP					; operator delete
_TEXT	ENDS
PUBLIC	?GetCreator@ioBaseChar@@QAEPAVioPlayStage@@XZ	; ioBaseChar::GetCreator
; Function compile flags: /Ogsp
; File d:\lost saga for developer\youtube\tutorial\source\src\lsclient\iobasechar.h
;	COMDAT ?GetCreator@ioBaseChar@@QAEPAVioPlayStage@@XZ
_TEXT	SEGMENT
?GetCreator@ioBaseChar@@QAEPAVioPlayStage@@XZ PROC	; ioBaseChar::GetCreator, COMDAT
; _this$ = ecx

; 4013 : 	inline ioPlayStage* GetCreator() { return m_pCreator; }

  00000	8b 81 44 03 00
	00		 mov	 eax, DWORD PTR [ecx+836]
  00006	c3		 ret	 0
?GetCreator@ioBaseChar@@QAEPAVioPlayStage@@XZ ENDP	; ioBaseChar::GetCreator
_TEXT	ENDS
PUBLIC	?_Adopt@_Iterator_base0@std@@QAEXPBX@Z		; std::_Iterator_base0::_Adopt
; Function compile flags: /Ogsp
; File c:\program files (x86)\microsoft visual studio 10.0\vc\include\xutility
;	COMDAT ?_Adopt@_Iterator_base0@std@@QAEXPBX@Z
_TEXT	SEGMENT
___formal$ = 8						; size = 4
?_Adopt@_Iterator_base0@std@@QAEXPBX@Z PROC		; std::_Iterator_base0::_Adopt, COMDAT
; _this$ = ecx

; 49   : 		}

  00000	c2 04 00	 ret	 4
?_Adopt@_Iterator_base0@std@@QAEXPBX@Z ENDP		; std::_Iterator_base0::_Adopt
_TEXT	ENDS
PUBLIC	?SetLiveTime@ioTraceWeaponType3@@UAEXK@Z	; ioTraceWeaponType3::SetLiveTime
; Function compile flags: /Ogsp
; File d:\lost saga for developer\youtube\tutorial\source\src\lsclient\iotraceweapontype3.cpp
;	COMDAT ?SetLiveTime@ioTraceWeaponType3@@UAEXK@Z
_TEXT	SEGMENT
_dwTime$ = 8						; size = 4
?SetLiveTime@ioTraceWeaponType3@@UAEXK@Z PROC		; ioTraceWeaponType3::SetLiveTime, COMDAT
; _this$ = ecx

; 154  : }

  00000	c2 04 00	 ret	 4
?SetLiveTime@ioTraceWeaponType3@@UAEXK@Z ENDP		; ioTraceWeaponType3::SetLiveTime
_TEXT	ENDS
PUBLIC	?OnExplosion@ioTraceWeaponType3@@IAEXM@Z	; ioTraceWeaponType3::OnExplosion
EXTRN	?EndEffectForce@ioMapEffect@@QAEXXZ:PROC	; ioMapEffect::EndEffectForce
EXTRN	?FindMapEffect@ioPlayStage@@QAEPAVioMapEffect@@K@Z:PROC ; ioPlayStage::FindMapEffect
EXTRN	?GetOwner@ioWeapon@@QBEPAVioBaseChar@@XZ:PROC	; ioWeapon::GetOwner
; Function compile flags: /Ogsp
;	COMDAT ?OnExplosion@ioTraceWeaponType3@@IAEXM@Z
_TEXT	SEGMENT
_fTimePerSec$ = 8					; size = 4
?OnExplosion@ioTraceWeaponType3@@IAEXM@Z PROC		; ioTraceWeaponType3::OnExplosion, COMDAT
; _this$ = ecx

; 429  : {

  00000	56		 push	 esi
  00001	8b f1		 mov	 esi, ecx

; 430  : 	if( m_dwLandMarkID != -1 )

  00003	83 be 50 0a 00
	00 ff		 cmp	 DWORD PTR [esi+2640], -1
  0000a	74 30		 je	 SHORT $LN1@OnExplosio

; 431  : 	{
; 432  : 		ioBaseChar *pOwner = GetOwner();

  0000c	e8 00 00 00 00	 call	 ?GetOwner@ioWeapon@@QBEPAVioBaseChar@@XZ ; ioWeapon::GetOwner

; 433  : 		if( pOwner )

  00011	85 c0		 test	 eax, eax
  00013	74 27		 je	 SHORT $LN1@OnExplosio

; 434  : 		{
; 435  : 			ioPlayStage *pStage = pOwner->GetCreator();

  00015	8b 88 44 03 00
	00		 mov	 ecx, DWORD PTR [eax+836]

; 436  : 			if( pStage )

  0001b	85 c9		 test	 ecx, ecx
  0001d	74 1d		 je	 SHORT $LN1@OnExplosio

; 437  : 			{
; 438  : 				ioMapEffect *pMapEffect = pStage->FindMapEffect( m_dwLandMarkID );

  0001f	ff b6 50 0a 00
	00		 push	 DWORD PTR [esi+2640]
  00025	e8 00 00 00 00	 call	 ?FindMapEffect@ioPlayStage@@QAEPAVioMapEffect@@K@Z ; ioPlayStage::FindMapEffect

; 439  : 				if( pMapEffect )

  0002a	85 c0		 test	 eax, eax
  0002c	74 0e		 je	 SHORT $LN1@OnExplosio

; 440  : 				{
; 441  : 					pMapEffect->EndEffectForce();

  0002e	8b c8		 mov	 ecx, eax
  00030	e8 00 00 00 00	 call	 ?EndEffectForce@ioMapEffect@@QAEXXZ ; ioMapEffect::EndEffectForce

; 442  : 					m_dwLandMarkID = -1;	

  00035	83 8e 50 0a 00
	00 ff		 or	 DWORD PTR [esi+2640], -1
$LN1@OnExplosio:

; 443  : 				}
; 444  : 			}
; 445  : 		}		
; 446  : 	}
; 447  : 
; 448  : 	SetWeaponDead();

  0003c	8b 06		 mov	 eax, DWORD PTR [esi]
  0003e	8b ce		 mov	 ecx, esi
  00040	ff 50 4c	 call	 DWORD PTR [eax+76]
  00043	5e		 pop	 esi

; 449  : }

  00044	c2 04 00	 ret	 4
?OnExplosion@ioTraceWeaponType3@@IAEXM@Z ENDP		; ioTraceWeaponType3::OnExplosion
_TEXT	ENDS
PUBLIC	?DestroyResource@ioTraceWeaponType3@@UAEXPAVioPlayStage@@@Z ; ioTraceWeaponType3::DestroyResource
EXTRN	__imp_?DestroyEffect@ioEffectFactory@@QAEXPAVioEffect@@@Z:PROC
EXTRN	__imp_?GetSingleton@ioEffectFactory@@SAAAV1@XZ:PROC
; Function compile flags: /Ogsp
;	COMDAT ?DestroyResource@ioTraceWeaponType3@@UAEXPAVioPlayStage@@@Z
_TEXT	SEGMENT
_pStage$ = 8						; size = 4
?DestroyResource@ioTraceWeaponType3@@UAEXPAVioPlayStage@@@Z PROC ; ioTraceWeaponType3::DestroyResource, COMDAT
; _this$ = ecx

; 524  : {

  00000	56		 push	 esi

; 525  : 	if( m_pFireBall )

  00001	8d b1 a4 09 00
	00		 lea	 esi, DWORD PTR [ecx+2468]
  00007	8b 06		 mov	 eax, DWORD PTR [esi]
  00009	85 c0		 test	 eax, eax
  0000b	74 12		 je	 SHORT $LN1@DestroyRes

; 526  : 	{
; 527  : 		g_EffectFactory.DestroyEffect( m_pFireBall );

  0000d	50		 push	 eax
  0000e	ff 15 00 00 00
	00		 call	 DWORD PTR __imp_?GetSingleton@ioEffectFactory@@SAAAV1@XZ
  00014	8b c8		 mov	 ecx, eax
  00016	ff 15 00 00 00
	00		 call	 DWORD PTR __imp_?DestroyEffect@ioEffectFactory@@QAEXPAVioEffect@@@Z

; 528  : 		m_pFireBall = NULL;

  0001c	83 26 00	 and	 DWORD PTR [esi], 0
$LN1@DestroyRes:
  0001f	5e		 pop	 esi

; 529  : 	}
; 530  : }

  00020	c2 04 00	 ret	 4
?DestroyResource@ioTraceWeaponType3@@UAEXPAVioPlayStage@@@Z ENDP ; ioTraceWeaponType3::DestroyResource
_TEXT	ENDS
PUBLIC	?GetLocalAttackBox@ioTraceWeaponType3@@UBEABVioOrientBox@@XZ ; ioTraceWeaponType3::GetLocalAttackBox
EXTRN	?GetLocalAttackBox@ioWeapon@@UBEABVioOrientBox@@XZ:PROC ; ioWeapon::GetLocalAttackBox
EXTRN	__imp_?GetCollisionBox@ioEffect@@QBEABVioOrientBox@@XZ:PROC
; Function compile flags: /Ogsp
;	COMDAT ?GetLocalAttackBox@ioTraceWeaponType3@@UBEABVioOrientBox@@XZ
_TEXT	SEGMENT
?GetLocalAttackBox@ioTraceWeaponType3@@UBEABVioOrientBox@@XZ PROC ; ioTraceWeaponType3::GetLocalAttackBox, COMDAT
; _this$ = ecx

; 534  : 	if( m_pFireBall )

  00000	8b 81 a4 09 00
	00		 mov	 eax, DWORD PTR [ecx+2468]
  00006	85 c0		 test	 eax, eax
  00008	74 08		 je	 SHORT $LN1@GetLocalAt

; 535  : 		return m_pFireBall->GetCollisionBox();

  0000a	8b c8		 mov	 ecx, eax
  0000c	ff 25 00 00 00
	00		 jmp	 DWORD PTR __imp_?GetCollisionBox@ioEffect@@QBEABVioOrientBox@@XZ
$LN1@GetLocalAt:

; 536  : 
; 537  : 	return ioWeapon::GetLocalAttackBox();

  00012	e9 00 00 00 00	 jmp	 ?GetLocalAttackBox@ioWeapon@@UBEABVioOrientBox@@XZ ; ioWeapon::GetLocalAttackBox
?GetLocalAttackBox@ioTraceWeaponType3@@UBEABVioOrientBox@@XZ ENDP ; ioTraceWeaponType3::GetLocalAttackBox
_TEXT	ENDS
PUBLIC	?GetType@ioTraceWeaponType3@@UBE?AW4WeaponType@ioWeapon@@XZ ; ioTraceWeaponType3::GetType
; Function compile flags: /Ogsp
;	COMDAT ?GetType@ioTraceWeaponType3@@UBE?AW4WeaponType@ioWeapon@@XZ
_TEXT	SEGMENT
?GetType@ioTraceWeaponType3@@UBE?AW4WeaponType@ioWeapon@@XZ PROC ; ioTraceWeaponType3::GetType, COMDAT
; _this$ = ecx

; 542  : 	return WT_TRACE3;

  00000	6a 31		 push	 49			; 00000031H
  00002	58		 pop	 eax

; 543  : }

  00003	c3		 ret	 0
?GetType@ioTraceWeaponType3@@UBE?AW4WeaponType@ioWeapon@@XZ ENDP ; ioTraceWeaponType3::GetType
_TEXT	ENDS
PUBLIC	?GetActionStopType@ioTraceWeaponType3@@UBE?AW4ActionStopType@@XZ ; ioTraceWeaponType3::GetActionStopType
; Function compile flags: /Ogsp
;	COMDAT ?GetActionStopType@ioTraceWeaponType3@@UBE?AW4ActionStopType@@XZ
_TEXT	SEGMENT
?GetActionStopType@ioTraceWeaponType3@@UBE?AW4ActionStopType@@XZ PROC ; ioTraceWeaponType3::GetActionStopType, COMDAT
; _this$ = ecx

; 547  : 	return m_ActionStopType;

  00000	a1 00 00 00 00	 mov	 eax, DWORD PTR ?m_ActionStopType@ioTraceWeaponType3@@2W4ActionStopType@@A ; ioTraceWeaponType3::m_ActionStopType

; 548  : }

  00005	c3		 ret	 0
?GetActionStopType@ioTraceWeaponType3@@UBE?AW4ActionStopType@@XZ ENDP ; ioTraceWeaponType3::GetActionStopType
_TEXT	ENDS
PUBLIC	?GetDieActionStopType@ioTraceWeaponType3@@UBE?AW4ActionStopType@@XZ ; ioTraceWeaponType3::GetDieActionStopType
; Function compile flags: /Ogsp
;	COMDAT ?GetDieActionStopType@ioTraceWeaponType3@@UBE?AW4ActionStopType@@XZ
_TEXT	SEGMENT
?GetDieActionStopType@ioTraceWeaponType3@@UBE?AW4ActionStopType@@XZ PROC ; ioTraceWeaponType3::GetDieActionStopType, COMDAT
; _this$ = ecx

; 552  : 	return m_DieActionStopType;

  00000	a1 00 00 00 00	 mov	 eax, DWORD PTR ?m_DieActionStopType@ioTraceWeaponType3@@2W4ActionStopType@@A ; ioTraceWeaponType3::m_DieActionStopType

; 553  : }

  00005	c3		 ret	 0
?GetDieActionStopType@ioTraceWeaponType3@@UBE?AW4ActionStopType@@XZ ENDP ; ioTraceWeaponType3::GetDieActionStopType
_TEXT	ENDS
PUBLIC	?GetCollisionEnableTime@ioTraceWeaponType3@@UBEKXZ ; ioTraceWeaponType3::GetCollisionEnableTime
; Function compile flags: /Ogsp
;	COMDAT ?GetCollisionEnableTime@ioTraceWeaponType3@@UBEKXZ
_TEXT	SEGMENT
?GetCollisionEnableTime@ioTraceWeaponType3@@UBEKXZ PROC	; ioTraceWeaponType3::GetCollisionEnableTime, COMDAT
; _this$ = ecx

; 612  : {

  00000	56		 push	 esi
  00001	8b f1		 mov	 esi, ecx

; 613  : 	if( m_State != TS_MOVE )

  00003	83 be 94 08 00
	00 00		 cmp	 DWORD PTR [esi+2196], 0
  0000a	74 08		 je	 SHORT $LN1@GetCollisi

; 614  : 		return m_dwCreatedTime;

  0000c	8b 86 d4 04 00
	00		 mov	 eax, DWORD PTR [esi+1236]
  00012	5e		 pop	 esi

; 617  : }

  00013	c3		 ret	 0
$LN1@GetCollisi:

; 615  : 
; 616  : 	return m_dwCreatedTime + GetAttribute()->m_dwCollisionDelay;

  00014	8b 06		 mov	 eax, DWORD PTR [esi]
  00016	ff 90 3c 01 00
	00		 call	 DWORD PTR [eax+316]
  0001c	8b 80 c4 01 00
	00		 mov	 eax, DWORD PTR [eax+452]
  00022	03 86 d4 04 00
	00		 add	 eax, DWORD PTR [esi+1236]
  00028	5e		 pop	 esi

; 617  : }

  00029	c3		 ret	 0
?GetCollisionEnableTime@ioTraceWeaponType3@@UBEKXZ ENDP	; ioTraceWeaponType3::GetCollisionEnableTime
_TEXT	ENDS
PUBLIC	?IsEnableTargetState@ioTraceWeaponType3@@IAE_NPAVioBaseChar@@@Z ; ioTraceWeaponType3::IsEnableTargetState
EXTRN	?IsEnableTarget@ioBaseChar@@QAE_N_N0@Z:PROC	; ioBaseChar::IsEnableTarget
EXTRN	?IsSystemState@ioBaseChar@@QAE_NXZ:PROC		; ioBaseChar::IsSystemState
; Function compile flags: /Ogsp
;	COMDAT ?IsEnableTargetState@ioTraceWeaponType3@@IAE_NPAVioBaseChar@@@Z
_TEXT	SEGMENT
_pChar$ = 8						; size = 4
?IsEnableTargetState@ioTraceWeaponType3@@IAE_NPAVioBaseChar@@@Z PROC ; ioTraceWeaponType3::IsEnableTargetState, COMDAT
; _this$ = ecx

; 620  : {

  00000	55		 push	 ebp
  00001	8b ec		 mov	 ebp, esp

; 621  : 	if( !pChar )

  00003	83 7d 08 00	 cmp	 DWORD PTR _pChar$[ebp], 0
  00007	75 04		 jne	 SHORT $LN3@IsEnableTa
$LN6@IsEnableTa:

; 622  : 		return false;

  00009	32 c0		 xor	 al, al
  0000b	eb 1d		 jmp	 SHORT $LN1@IsEnableTa
$LN3@IsEnableTa:

; 623  : 
; 624  : 	if( pChar->IsSystemState() )

  0000d	8b 4d 08	 mov	 ecx, DWORD PTR _pChar$[ebp]
  00010	e8 00 00 00 00	 call	 ?IsSystemState@ioBaseChar@@QAE_NXZ ; ioBaseChar::IsSystemState
  00015	84 c0		 test	 al, al

; 625  : 		return false;

  00017	75 f0		 jne	 SHORT $LN6@IsEnableTa

; 626  : 		
; 627  : 	if( !pChar->IsEnableTarget() )

  00019	8b 4d 08	 mov	 ecx, DWORD PTR _pChar$[ebp]
  0001c	6a 01		 push	 1
  0001e	6a 01		 push	 1
  00020	e8 00 00 00 00	 call	 ?IsEnableTarget@ioBaseChar@@QAE_N_N0@Z ; ioBaseChar::IsEnableTarget
  00025	84 c0		 test	 al, al
  00027	0f 95 c0	 setne	 al
$LN1@IsEnableTa:

; 628  : 		return false;
; 629  : 
; 630  : 	return true;
; 631  : }

  0002a	5d		 pop	 ebp
  0002b	c2 04 00	 ret	 4
?IsEnableTargetState@ioTraceWeaponType3@@IAE_NPAVioBaseChar@@@Z ENDP ; ioTraceWeaponType3::IsEnableTargetState
_TEXT	ENDS
PUBLIC	__real@00000000
PUBLIC	?GetMoveSpeed@ioTraceWeaponType3@@IAEMXZ	; ioTraceWeaponType3::GetMoveSpeed
;	COMDAT __real@00000000
CONST	SEGMENT
__real@00000000 DD 000000000r			; 0
; Function compile flags: /Ogsp
CONST	ENDS
;	COMDAT ?GetMoveSpeed@ioTraceWeaponType3@@IAEMXZ
_TEXT	SEGMENT
?GetMoveSpeed@ioTraceWeaponType3@@IAEMXZ PROC		; ioTraceWeaponType3::GetMoveSpeed, COMDAT
; _this$ = ecx

; 678  : {

  00000	56		 push	 esi
  00001	8b f1		 mov	 esi, ecx

; 679  : 	if( m_fCurMoveSpeed == 0.0f )

  00003	f3 0f 10 86 a8
	08 00 00	 movss	 xmm0, DWORD PTR [esi+2216]
  0000b	0f 2e 05 00 00
	00 00		 ucomiss xmm0, DWORD PTR __real@00000000
  00012	9f		 lahf
  00013	f6 c4 44	 test	 ah, 68			; 00000044H
  00016	7a 14		 jp	 SHORT $LN1@GetMoveSpe

; 680  : 		m_fCurMoveSpeed = GetAttribute()->m_fMoveSpeed;

  00018	8b 06		 mov	 eax, DWORD PTR [esi]
  0001a	ff 90 3c 01 00
	00		 call	 DWORD PTR [eax+316]
  00020	d9 80 98 01 00
	00		 fld	 DWORD PTR [eax+408]
  00026	d9 9e a8 08 00
	00		 fstp	 DWORD PTR [esi+2216]
$LN1@GetMoveSpe:

; 681  : 
; 682  : 	return m_fCurMoveSpeed;

  0002c	d9 86 a8 08 00
	00		 fld	 DWORD PTR [esi+2216]
  00032	5e		 pop	 esi

; 683  : }

  00033	c3		 ret	 0
?GetMoveSpeed@ioTraceWeaponType3@@IAEMXZ ENDP		; ioTraceWeaponType3::GetMoveSpeed
_TEXT	ENDS
PUBLIC	?empty@?$vector@UChangeDirInfo@@V?$allocator@UChangeDirInfo@@@std@@@std@@QBE_NXZ ; std::vector<ChangeDirInfo,std::allocator<ChangeDirInfo> >::empty
; Function compile flags: /Ogsp
; File c:\program files (x86)\microsoft visual studio 10.0\vc\include\vector
;	COMDAT ?empty@?$vector@UChangeDirInfo@@V?$allocator@UChangeDirInfo@@@std@@@std@@QBE_NXZ
_TEXT	SEGMENT
?empty@?$vector@UChangeDirInfo@@V?$allocator@UChangeDirInfo@@@std@@@std@@QBE_NXZ PROC ; std::vector<ChangeDirInfo,std::allocator<ChangeDirInfo> >::empty, COMDAT
; _this$ = ecx

; 889  : 		return (this->_Myfirst == this->_Mylast);

  00000	8b 01		 mov	 eax, DWORD PTR [ecx]
  00002	2b 41 04	 sub	 eax, DWORD PTR [ecx+4]
  00005	f7 d8		 neg	 eax
  00007	1b c0		 sbb	 eax, eax
  00009	40		 inc	 eax

; 890  : 		}

  0000a	c3		 ret	 0
?empty@?$vector@UChangeDirInfo@@V?$allocator@UChangeDirInfo@@@std@@@std@@QBE_NXZ ENDP ; std::vector<ChangeDirInfo,std::allocator<ChangeDirInfo> >::empty
_TEXT	ENDS
PUBLIC	??A?$vector@UChangeDirInfo@@V?$allocator@UChangeDirInfo@@@std@@@std@@QAEAAUChangeDirInfo@@I@Z ; std::vector<ChangeDirInfo,std::allocator<ChangeDirInfo> >::operator[]
; Function compile flags: /Ogsp
;	COMDAT ??A?$vector@UChangeDirInfo@@V?$allocator@UChangeDirInfo@@@std@@@std@@QAEAAUChangeDirInfo@@I@Z
_TEXT	SEGMENT
__Pos$ = 8						; size = 4
??A?$vector@UChangeDirInfo@@V?$allocator@UChangeDirInfo@@@std@@@std@@QAEAAUChangeDirInfo@@I@Z PROC ; std::vector<ChangeDirInfo,std::allocator<ChangeDirInfo> >::operator[], COMDAT
; _this$ = ecx

; 928  : 		{	// subscript mutable sequence

  00000	55		 push	 ebp
  00001	8b ec		 mov	 ebp, esp

; 929  :  #if _ITERATOR_DEBUG_LEVEL == 2
; 930  : 		if (size() <= _Pos)
; 931  : 			{	// report error
; 932  : 			_DEBUG_ERROR("vector subscript out of range");
; 933  : 			_SCL_SECURE_OUT_OF_RANGE;
; 934  : 			}
; 935  : 
; 936  :  #elif _ITERATOR_DEBUG_LEVEL == 1
; 937  : 		_SCL_SECURE_VALIDATE_RANGE(_Pos < size());
; 938  :  #endif /* _ITERATOR_DEBUG_LEVEL */
; 939  : 
; 940  : 		return (*(this->_Myfirst + _Pos));

  00003	8b 45 08	 mov	 eax, DWORD PTR __Pos$[ebp]
  00006	6b c0 1c	 imul	 eax, 28			; 0000001cH
  00009	03 01		 add	 eax, DWORD PTR [ecx]

; 941  : 		}

  0000b	5d		 pop	 ebp
  0000c	c2 04 00	 ret	 4
??A?$vector@UChangeDirInfo@@V?$allocator@UChangeDirInfo@@@std@@@std@@QAEAAUChangeDirInfo@@I@Z ENDP ; std::vector<ChangeDirInfo,std::allocator<ChangeDirInfo> >::operator[]
_TEXT	ENDS
PUBLIC	?capacity@?$vector@UChangeDirInfo@@V?$allocator@UChangeDirInfo@@@std@@@std@@QBEIXZ ; std::vector<ChangeDirInfo,std::allocator<ChangeDirInfo> >::capacity
; Function compile flags: /Ogsp
;	COMDAT ?capacity@?$vector@UChangeDirInfo@@V?$allocator@UChangeDirInfo@@@std@@@std@@QBEIXZ
_TEXT	SEGMENT
?capacity@?$vector@UChangeDirInfo@@V?$allocator@UChangeDirInfo@@@std@@@std@@QBEIXZ PROC ; std::vector<ChangeDirInfo,std::allocator<ChangeDirInfo> >::capacity, COMDAT
; _this$ = ecx

; 777  : 		return (this->_Myend - this->_Myfirst);

  00000	8b 41 08	 mov	 eax, DWORD PTR [ecx+8]
  00003	2b 01		 sub	 eax, DWORD PTR [ecx]
  00005	6a 1c		 push	 28			; 0000001cH
  00007	99		 cdq
  00008	59		 pop	 ecx
  00009	f7 f9		 idiv	 ecx

; 778  : 		}

  0000b	c3		 ret	 0
?capacity@?$vector@UChangeDirInfo@@V?$allocator@UChangeDirInfo@@@std@@@std@@QBEIXZ ENDP ; std::vector<ChangeDirInfo,std::allocator<ChangeDirInfo> >::capacity
_TEXT	ENDS
PUBLIC	?size@?$vector@UChangeDirInfo@@V?$allocator@UChangeDirInfo@@@std@@@std@@QBEIXZ ; std::vector<ChangeDirInfo,std::allocator<ChangeDirInfo> >::size
; Function compile flags: /Ogsp
;	COMDAT ?size@?$vector@UChangeDirInfo@@V?$allocator@UChangeDirInfo@@@std@@@std@@QBEIXZ
_TEXT	SEGMENT
?size@?$vector@UChangeDirInfo@@V?$allocator@UChangeDirInfo@@@std@@@std@@QBEIXZ PROC ; std::vector<ChangeDirInfo,std::allocator<ChangeDirInfo> >::size, COMDAT
; _this$ = ecx

; 879  : 		return (this->_Mylast - this->_Myfirst);

  00000	8b 41 04	 mov	 eax, DWORD PTR [ecx+4]
  00003	2b 01		 sub	 eax, DWORD PTR [ecx]
  00005	6a 1c		 push	 28			; 0000001cH
  00007	99		 cdq
  00008	59		 pop	 ecx
  00009	f7 f9		 idiv	 ecx

; 880  : 		}

  0000b	c3		 ret	 0
?size@?$vector@UChangeDirInfo@@V?$allocator@UChangeDirInfo@@@std@@@std@@QBEIXZ ENDP ; std::vector<ChangeDirInfo,std::allocator<ChangeDirInfo> >::size
_TEXT	ENDS
PUBLIC	?_Inside@?$vector@UChangeDirInfo@@V?$allocator@UChangeDirInfo@@@std@@@std@@IBE_NPBUChangeDirInfo@@@Z ; std::vector<ChangeDirInfo,std::allocator<ChangeDirInfo> >::_Inside
; Function compile flags: /Ogsp
;	COMDAT ?_Inside@?$vector@UChangeDirInfo@@V?$allocator@UChangeDirInfo@@@std@@@std@@IBE_NPBUChangeDirInfo@@@Z
_TEXT	SEGMENT
__Ptr$ = 8						; size = 4
?_Inside@?$vector@UChangeDirInfo@@V?$allocator@UChangeDirInfo@@@std@@@std@@IBE_NPBUChangeDirInfo@@@Z PROC ; std::vector<ChangeDirInfo,std::allocator<ChangeDirInfo> >::_Inside, COMDAT
; _this$ = ecx

; 1285 : 		{	// test if _Ptr points inside vector

  00000	55		 push	 ebp
  00001	8b ec		 mov	 ebp, esp

; 1286 : 		return (_Ptr < this->_Mylast && this->_Myfirst <= _Ptr);

  00003	8b 45 08	 mov	 eax, DWORD PTR __Ptr$[ebp]
  00006	3b 41 04	 cmp	 eax, DWORD PTR [ecx+4]
  00009	73 09		 jae	 SHORT $LN3@Inside
  0000b	39 01		 cmp	 DWORD PTR [ecx], eax
  0000d	77 05		 ja	 SHORT $LN3@Inside
  0000f	33 c0		 xor	 eax, eax
  00011	40		 inc	 eax
  00012	eb 02		 jmp	 SHORT $LN4@Inside
$LN3@Inside:
  00014	33 c0		 xor	 eax, eax
$LN4@Inside:

; 1287 : 		}

  00016	5d		 pop	 ebp
  00017	c2 04 00	 ret	 4
?_Inside@?$vector@UChangeDirInfo@@V?$allocator@UChangeDirInfo@@@std@@@std@@IBE_NPBUChangeDirInfo@@@Z ENDP ; std::vector<ChangeDirInfo,std::allocator<ChangeDirInfo> >::_Inside
_TEXT	ENDS
PUBLIC	??_C@_0BD@OLBABOEK@vector?$DMT?$DO?5too?5long?$AA@ ; `string'
PUBLIC	?_Xlen@?$vector@UChangeDirInfo@@V?$allocator@UChangeDirInfo@@@std@@@std@@IBEXXZ ; std::vector<ChangeDirInfo,std::allocator<ChangeDirInfo> >::_Xlen
EXTRN	__imp_?_Xlength_error@std@@YAXPBD@Z:PROC
;	COMDAT ??_C@_0BD@OLBABOEK@vector?$DMT?$DO?5too?5long?$AA@
CONST	SEGMENT
??_C@_0BD@OLBABOEK@vector?$DMT?$DO?5too?5long?$AA@ DB 'vector<T> too long'
	DB	00H						; `string'
; Function compile flags: /Ogsp
CONST	ENDS
;	COMDAT ?_Xlen@?$vector@UChangeDirInfo@@V?$allocator@UChangeDirInfo@@@std@@@std@@IBEXXZ
_TEXT	SEGMENT
?_Xlen@?$vector@UChangeDirInfo@@V?$allocator@UChangeDirInfo@@@std@@@std@@IBEXXZ PROC ; std::vector<ChangeDirInfo,std::allocator<ChangeDirInfo> >::_Xlen, COMDAT
; _this$ = ecx

; 1427 : 		_Xlength_error("vector<T> too long");

  00000	68 00 00 00 00	 push	 OFFSET ??_C@_0BD@OLBABOEK@vector?$DMT?$DO?5too?5long?$AA@
  00005	ff 15 00 00 00
	00		 call	 DWORD PTR __imp_?_Xlength_error@std@@YAXPBD@Z
$LN4@Xlen:
$LN3@Xlen:
  0000b	cc		 int	 3
?_Xlen@?$vector@UChangeDirInfo@@V?$allocator@UChangeDirInfo@@@std@@@std@@IBEXXZ ENDP ; std::vector<ChangeDirInfo,std::allocator<ChangeDirInfo> >::_Xlen
_TEXT	ENDS
PUBLIC	?_Orphan_range@?$vector@UChangeDirInfo@@V?$allocator@UChangeDirInfo@@@std@@@std@@IBEXPAUChangeDirInfo@@0@Z ; std::vector<ChangeDirInfo,std::allocator<ChangeDirInfo> >::_Orphan_range
; Function compile flags: /Ogsp
;	COMDAT ?_Orphan_range@?$vector@UChangeDirInfo@@V?$allocator@UChangeDirInfo@@@std@@@std@@IBEXPAUChangeDirInfo@@0@Z
_TEXT	SEGMENT
___formal$ = 8						; size = 4
___formal$ = 12						; size = 4
?_Orphan_range@?$vector@UChangeDirInfo@@V?$allocator@UChangeDirInfo@@@std@@@std@@IBEXPAUChangeDirInfo@@0@Z PROC ; std::vector<ChangeDirInfo,std::allocator<ChangeDirInfo> >::_Orphan_range, COMDAT
; _this$ = ecx

; 1454 : 		}

  00000	c2 08 00	 ret	 8
?_Orphan_range@?$vector@UChangeDirInfo@@V?$allocator@UChangeDirInfo@@@std@@@std@@IBEXPAUChangeDirInfo@@0@Z ENDP ; std::vector<ChangeDirInfo,std::allocator<ChangeDirInfo> >::_Orphan_range
_TEXT	ENDS
PUBLIC	??1?$_Vector_val@UChangeDirInfo@@V?$allocator@UChangeDirInfo@@@std@@@std@@QAE@XZ ; std::_Vector_val<ChangeDirInfo,std::allocator<ChangeDirInfo> >::~_Vector_val<ChangeDirInfo,std::allocator<ChangeDirInfo> >
; Function compile flags: /Ogsp
;	COMDAT ??1?$_Vector_val@UChangeDirInfo@@V?$allocator@UChangeDirInfo@@@std@@@std@@QAE@XZ
_TEXT	SEGMENT
??1?$_Vector_val@UChangeDirInfo@@V?$allocator@UChangeDirInfo@@@std@@@std@@QAE@XZ PROC ; std::_Vector_val<ChangeDirInfo,std::allocator<ChangeDirInfo> >::~_Vector_val<ChangeDirInfo,std::allocator<ChangeDirInfo> >, COMDAT
; _this$ = ecx

; 434  : 		}

  00000	c3		 ret	 0
??1?$_Vector_val@UChangeDirInfo@@V?$allocator@UChangeDirInfo@@@std@@@std@@QAE@XZ ENDP ; std::_Vector_val<ChangeDirInfo,std::allocator<ChangeDirInfo> >::~_Vector_val<ChangeDirInfo,std::allocator<ChangeDirInfo> >
_TEXT	ENDS
PUBLIC	??0?$allocator@UChangeDirInfo@@@std@@QAE@XZ	; std::allocator<ChangeDirInfo>::allocator<ChangeDirInfo>
; Function compile flags: /Ogsp
; File c:\program files (x86)\microsoft visual studio 10.0\vc\include\xmemory
;	COMDAT ??0?$allocator@UChangeDirInfo@@@std@@QAE@XZ
_TEXT	SEGMENT
??0?$allocator@UChangeDirInfo@@@std@@QAE@XZ PROC	; std::allocator<ChangeDirInfo>::allocator<ChangeDirInfo>, COMDAT
; _this$ = ecx

; 161  : 	_ALLOCATOR() _THROW0()

  00000	8b c1		 mov	 eax, ecx

; 162  : 		{	// construct default allocator (do nothing)
; 163  : 		}

  00002	c3		 ret	 0
??0?$allocator@UChangeDirInfo@@@std@@QAE@XZ ENDP	; std::allocator<ChangeDirInfo>::allocator<ChangeDirInfo>
_TEXT	ENDS
PUBLIC	?deallocate@?$allocator@UChangeDirInfo@@@std@@QAEXPAUChangeDirInfo@@I@Z ; std::allocator<ChangeDirInfo>::deallocate
; Function compile flags: /Ogsp
;	COMDAT ?deallocate@?$allocator@UChangeDirInfo@@@std@@QAEXPAUChangeDirInfo@@I@Z
_TEXT	SEGMENT
__Ptr$ = 8						; size = 4
___formal$ = 12						; size = 4
?deallocate@?$allocator@UChangeDirInfo@@@std@@QAEXPAUChangeDirInfo@@I@Z PROC ; std::allocator<ChangeDirInfo>::deallocate, COMDAT
; _this$ = ecx

; 181  : 		{	// deallocate object at _Ptr, ignore size

  00000	55		 push	 ebp
  00001	8b ec		 mov	 ebp, esp

; 182  : 		::operator delete(_Ptr);

  00003	ff 75 08	 push	 DWORD PTR __Ptr$[ebp]
  00006	e8 00 00 00 00	 call	 ??3@YAXPAX@Z		; operator delete
  0000b	59		 pop	 ecx

; 183  : 		}

  0000c	5d		 pop	 ebp
  0000d	c2 08 00	 ret	 8
?deallocate@?$allocator@UChangeDirInfo@@@std@@QAEXPAUChangeDirInfo@@I@Z ENDP ; std::allocator<ChangeDirInfo>::deallocate
_TEXT	ENDS
PUBLIC	??0?$allocator@UChangeDirInfo@@@std@@QAE@ABV01@@Z ; std::allocator<ChangeDirInfo>::allocator<ChangeDirInfo>
; Function compile flags: /Ogsp
;	COMDAT ??0?$allocator@UChangeDirInfo@@@std@@QAE@ABV01@@Z
_TEXT	SEGMENT
___formal$ = 8						; size = 4
??0?$allocator@UChangeDirInfo@@@std@@QAE@ABV01@@Z PROC	; std::allocator<ChangeDirInfo>::allocator<ChangeDirInfo>, COMDAT
; _this$ = ecx

; 165  : 	_ALLOCATOR(const _ALLOCATOR<_Ty>&) _THROW0()

  00000	8b c1		 mov	 eax, ecx

; 166  : 		{	// construct by copying (do nothing)
; 167  : 		}

  00002	c2 04 00	 ret	 4
??0?$allocator@UChangeDirInfo@@@std@@QAE@ABV01@@Z ENDP	; std::allocator<ChangeDirInfo>::allocator<ChangeDirInfo>
_TEXT	ENDS
PUBLIC	?max_size@?$allocator@UChangeDirInfo@@@std@@QBEIXZ ; std::allocator<ChangeDirInfo>::max_size
; Function compile flags: /Ogsp
;	COMDAT ?max_size@?$allocator@UChangeDirInfo@@@std@@QBEIXZ
_TEXT	SEGMENT
?max_size@?$allocator@UChangeDirInfo@@@std@@QBEIXZ PROC	; std::allocator<ChangeDirInfo>::max_size, COMDAT
; _this$ = ecx

; 218  : 		_SIZT _Count = (_SIZT)(-1) / sizeof (_Ty);
; 219  : 		return (0 < _Count ? _Count : 1);

  00000	b8 49 92 24 09	 mov	 eax, 153391689		; 09249249H

; 220  : 		}

  00005	c3		 ret	 0
?max_size@?$allocator@UChangeDirInfo@@@std@@QBEIXZ ENDP	; std::allocator<ChangeDirInfo>::max_size
_TEXT	ENDS
PUBLIC	??0?$_Vector_const_iterator@V?$_Vector_val@UChangeDirInfo@@V?$allocator@UChangeDirInfo@@@std@@@std@@@std@@QAE@PAUChangeDirInfo@@PBU_Container_base0@1@@Z ; std::_Vector_const_iterator<std::_Vector_val<ChangeDirInfo,std::allocator<ChangeDirInfo> > >::_Vector_const_iterator<std::_Vector_val<ChangeDirInfo,std::allocator<ChangeDirInfo> > >
; Function compile flags: /Ogsp
; File c:\program files (x86)\microsoft visual studio 10.0\vc\include\vector
;	COMDAT ??0?$_Vector_const_iterator@V?$_Vector_val@UChangeDirInfo@@V?$allocator@UChangeDirInfo@@@std@@@std@@@std@@QAE@PAUChangeDirInfo@@PBU_Container_base0@1@@Z
_TEXT	SEGMENT
__Parg$ = 8						; size = 4
__Pvector$ = 12						; size = 4
??0?$_Vector_const_iterator@V?$_Vector_val@UChangeDirInfo@@V?$allocator@UChangeDirInfo@@@std@@@std@@@std@@QAE@PAUChangeDirInfo@@PBU_Container_base0@1@@Z PROC ; std::_Vector_const_iterator<std::_Vector_val<ChangeDirInfo,std::allocator<ChangeDirInfo> > >::_Vector_const_iterator<std::_Vector_val<ChangeDirInfo,std::allocator<ChangeDirInfo> > >, COMDAT
; _this$ = ecx

; 45   : 		{	// construct with pointer _Parg

  00000	55		 push	 ebp
  00001	8b ec		 mov	 ebp, esp
  00003	8b c1		 mov	 eax, ecx
  00005	8b 4d 08	 mov	 ecx, DWORD PTR __Parg$[ebp]
  00008	89 08		 mov	 DWORD PTR [eax], ecx

; 46   : 		this->_Adopt(_Pvector);
; 47   : 		}

  0000a	5d		 pop	 ebp
  0000b	c2 08 00	 ret	 8
??0?$_Vector_const_iterator@V?$_Vector_val@UChangeDirInfo@@V?$allocator@UChangeDirInfo@@@std@@@std@@@std@@QAE@PAUChangeDirInfo@@PBU_Container_base0@1@@Z ENDP ; std::_Vector_const_iterator<std::_Vector_val<ChangeDirInfo,std::allocator<ChangeDirInfo> > >::_Vector_const_iterator<std::_Vector_val<ChangeDirInfo,std::allocator<ChangeDirInfo> > >
_TEXT	ENDS
PUBLIC	?_Compat@?$_Vector_const_iterator@V?$_Vector_val@UChangeDirInfo@@V?$allocator@UChangeDirInfo@@@std@@@std@@@std@@QBEXABV12@@Z ; std::_Vector_const_iterator<std::_Vector_val<ChangeDirInfo,std::allocator<ChangeDirInfo> > >::_Compat
; Function compile flags: /Ogsp
;	COMDAT ?_Compat@?$_Vector_const_iterator@V?$_Vector_val@UChangeDirInfo@@V?$allocator@UChangeDirInfo@@@std@@@std@@@std@@QBEXABV12@@Z
_TEXT	SEGMENT
___formal$ = 8						; size = 4
?_Compat@?$_Vector_const_iterator@V?$_Vector_val@UChangeDirInfo@@V?$allocator@UChangeDirInfo@@@std@@@std@@@std@@QBEXABV12@@Z PROC ; std::_Vector_const_iterator<std::_Vector_val<ChangeDirInfo,std::allocator<ChangeDirInfo> > >::_Compat, COMDAT
; _this$ = ecx

; 253  : 		}

  00000	c2 04 00	 ret	 4
?_Compat@?$_Vector_const_iterator@V?$_Vector_val@UChangeDirInfo@@V?$allocator@UChangeDirInfo@@@std@@@std@@@std@@QBEXABV12@@Z ENDP ; std::_Vector_const_iterator<std::_Vector_val<ChangeDirInfo,std::allocator<ChangeDirInfo> > >::_Compat
_TEXT	ENDS
PUBLIC	__real@3f91df46a2526c7a
PUBLIC	??$DEGtoRAD@M@@YAMM@Z				; DEGtoRAD<float>
;	COMDAT __real@3f91df46a2526c7a
; File d:\lost saga for developer\youtube\tutorial\source\src\lsclient\veryoftenusedefine.h
CONST	SEGMENT
__real@3f91df46a2526c7a DQ 03f91df46a2526c7ar	; 0.0174533
; Function compile flags: /Ogsp
CONST	ENDS
;	COMDAT ??$DEGtoRAD@M@@YAMM@Z
_TEXT	SEGMENT
tv129 = 8						; size = 4
_val$ = 8						; size = 4
??$DEGtoRAD@M@@YAMM@Z PROC				; DEGtoRAD<float>, COMDAT

; 20   : type  DEGtoRAD (type val) {return (type) (val * 0.0174532925199);}

  00000	55		 push	 ebp
  00001	8b ec		 mov	 ebp, esp
  00003	d9 45 08	 fld	 DWORD PTR _val$[ebp]
  00006	dc 0d 00 00 00
	00		 fmul	 QWORD PTR __real@3f91df46a2526c7a
  0000c	d9 5d 08	 fstp	 DWORD PTR tv129[ebp]
  0000f	d9 45 08	 fld	 DWORD PTR tv129[ebp]
  00012	5d		 pop	 ebp
  00013	c3		 ret	 0
??$DEGtoRAD@M@@YAMM@Z ENDP				; DEGtoRAD<float>
_TEXT	ENDS
PUBLIC	??$addressof@$$CBUChangeDirInfo@@@std@@YAPBUChangeDirInfo@@ABU1@@Z ; std::addressof<ChangeDirInfo const >
; Function compile flags: /Ogsp
; File c:\program files (x86)\microsoft visual studio 10.0\vc\include\xmemory
;	COMDAT ??$addressof@$$CBUChangeDirInfo@@@std@@YAPBUChangeDirInfo@@ABU1@@Z
_TEXT	SEGMENT
__Val$ = 8						; size = 4
??$addressof@$$CBUChangeDirInfo@@@std@@YAPBUChangeDirInfo@@ABU1@@Z PROC ; std::addressof<ChangeDirInfo const >, COMDAT

; 110  : 	{	// return address of _Val

  00000	55		 push	 ebp
  00001	8b ec		 mov	 ebp, esp

; 111  : 	return ((_Ty *) &(char&)_Val);

  00003	8b 45 08	 mov	 eax, DWORD PTR __Val$[ebp]

; 112  : 	}

  00006	5d		 pop	 ebp
  00007	c3		 ret	 0
??$addressof@$$CBUChangeDirInfo@@@std@@YAPBUChangeDirInfo@@ABU1@@Z ENDP ; std::addressof<ChangeDirInfo const >
_TEXT	ENDS
PUBLIC	__TI2?AVbad_alloc@std@@
PUBLIC	??$_Allocate@UChangeDirInfo@@@std@@YAPAUChangeDirInfo@@IPAU1@@Z ; std::_Allocate<ChangeDirInfo>
PUBLIC	__CTA2?AVbad_alloc@std@@
PUBLIC	__CT??_R0?AVbad_alloc@std@@@8??0bad_alloc@std@@QAE@ABV01@@Z12
PUBLIC	??0bad_alloc@std@@QAE@ABV01@@Z			; std::bad_alloc::bad_alloc
PUBLIC	__CT??_R0?AVexception@std@@@8??0exception@std@@QAE@ABV01@@Z12
EXTRN	??2@YAPAXI@Z:PROC				; operator new
EXTRN	__CxxThrowException@8:PROC
EXTRN	??0exception@std@@QAE@ABV01@@Z:PROC		; std::exception::exception
;	COMDAT __CT??_R0?AVexception@std@@@8??0exception@std@@QAE@ABV01@@Z12
; File c:\program files (x86)\microsoft visual studio 10.0\vc\include\exception
xdata$x	SEGMENT
__CT??_R0?AVexception@std@@@8??0exception@std@@QAE@ABV01@@Z12 DD 00H
	DD	FLAT:??_R0?AVexception@std@@@8
	DD	00H
	DD	0ffffffffH
	ORG $+4
	DD	0cH
	DD	FLAT:??0exception@std@@QAE@ABV01@@Z
xdata$x	ENDS
;	COMDAT __CT??_R0?AVbad_alloc@std@@@8??0bad_alloc@std@@QAE@ABV01@@Z12
xdata$x	SEGMENT
__CT??_R0?AVbad_alloc@std@@@8??0bad_alloc@std@@QAE@ABV01@@Z12 DD 00H
	DD	FLAT:??_R0?AVbad_alloc@std@@@8
	DD	00H
	DD	0ffffffffH
	ORG $+4
	DD	0cH
	DD	FLAT:??0bad_alloc@std@@QAE@ABV01@@Z
xdata$x	ENDS
;	COMDAT __CTA2?AVbad_alloc@std@@
xdata$x	SEGMENT
__CTA2?AVbad_alloc@std@@ DD 02H
	DD	FLAT:__CT??_R0?AVbad_alloc@std@@@8??0bad_alloc@std@@QAE@ABV01@@Z12
	DD	FLAT:__CT??_R0?AVexception@std@@@8??0exception@std@@QAE@ABV01@@Z12
xdata$x	ENDS
;	COMDAT __TI2?AVbad_alloc@std@@
xdata$x	SEGMENT
__TI2?AVbad_alloc@std@@ DD 00H
	DD	FLAT:??1bad_alloc@std@@UAE@XZ
	DD	00H
	DD	FLAT:__CTA2?AVbad_alloc@std@@
; Function compile flags: /Ogsp
; File c:\program files (x86)\microsoft visual studio 10.0\vc\include\xmemory
xdata$x	ENDS
;	COMDAT ??$_Allocate@UChangeDirInfo@@@std@@YAPAUChangeDirInfo@@IPAU1@@Z
_TEXT	SEGMENT
$T535678 = -12						; size = 12
$T535683 = 8						; size = 4
__Count$ = 8						; size = 4
___formal$ = 12						; size = 4
??$_Allocate@UChangeDirInfo@@@std@@YAPAUChangeDirInfo@@IPAU1@@Z PROC ; std::_Allocate<ChangeDirInfo>, COMDAT

; 30   : 	{	// allocate storage for _Count elements of type _Ty

  00000	55		 push	 ebp
  00001	8b ec		 mov	 ebp, esp

; 31   : 	void *_Ptr = 0;
; 32   : 
; 33   : 	if (_Count <= 0)

  00003	8b 4d 08	 mov	 ecx, DWORD PTR __Count$[ebp]
  00006	83 ec 0c	 sub	 esp, 12			; 0000000cH
  00009	33 c0		 xor	 eax, eax
  0000b	85 c9		 test	 ecx, ecx

; 34   : 		_Count = 0;
; 35   : 	else if (((_SIZT)(-1) / sizeof (_Ty) < _Count)

  0000d	74 3c		 je	 SHORT $LN5@Allocate

; 36   : 		|| (_Ptr = ::operator new(_Count * sizeof (_Ty))) == 0)

  0000f	81 f9 49 92 24
	09		 cmp	 ecx, 153391689		; 09249249H
  00015	77 0e		 ja	 SHORT $LN1@Allocate
  00017	6b c9 1c	 imul	 ecx, 28			; 0000001cH
  0001a	51		 push	 ecx
  0001b	e8 00 00 00 00	 call	 ??2@YAPAXI@Z		; operator new
  00020	59		 pop	 ecx
  00021	85 c0		 test	 eax, eax

; 38   : 
; 39   : 	return ((_Ty _FARQ *)_Ptr);

  00023	75 26		 jne	 SHORT $LN5@Allocate
$LN1@Allocate:

; 37   : 		_THROW_NCEE(bad_alloc, 0);

  00025	83 65 08 00	 and	 DWORD PTR $T535683[ebp], 0
  00029	8d 45 08	 lea	 eax, DWORD PTR $T535683[ebp]
  0002c	50		 push	 eax
  0002d	8d 4d f4	 lea	 ecx, DWORD PTR $T535678[ebp]
  00030	ff 15 00 00 00
	00		 call	 DWORD PTR __imp_??0exception@std@@QAE@ABQBD@Z
  00036	68 00 00 00 00	 push	 OFFSET __TI2?AVbad_alloc@std@@
  0003b	8d 45 f4	 lea	 eax, DWORD PTR $T535678[ebp]
  0003e	50		 push	 eax
  0003f	c7 45 f4 00 00
	00 00		 mov	 DWORD PTR $T535678[ebp], OFFSET ??_7bad_alloc@std@@6B@
  00046	e8 00 00 00 00	 call	 __CxxThrowException@8
$LN10@Allocate:
$LN5@Allocate:

; 40   : 	}

  0004b	c9		 leave
  0004c	c3		 ret	 0
$LN9@Allocate:
??$_Allocate@UChangeDirInfo@@@std@@YAPAUChangeDirInfo@@IPAU1@@Z ENDP ; std::_Allocate<ChangeDirInfo>
_TEXT	ENDS
PUBLIC	??G?$_Vector_const_iterator@V?$_Vector_val@UChangeDirInfo@@V?$allocator@UChangeDirInfo@@@std@@@std@@@std@@QBEHABV01@@Z ; std::_Vector_const_iterator<std::_Vector_val<ChangeDirInfo,std::allocator<ChangeDirInfo> > >::operator-
; Function compile flags: /Ogsp
; File c:\program files (x86)\microsoft visual studio 10.0\vc\include\vector
;	COMDAT ??G?$_Vector_const_iterator@V?$_Vector_val@UChangeDirInfo@@V?$allocator@UChangeDirInfo@@@std@@@std@@@std@@QBEHABV01@@Z
_TEXT	SEGMENT
__Right$ = 8						; size = 4
??G?$_Vector_const_iterator@V?$_Vector_val@UChangeDirInfo@@V?$allocator@UChangeDirInfo@@@std@@@std@@@std@@QBEHABV01@@Z PROC ; std::_Vector_const_iterator<std::_Vector_val<ChangeDirInfo,std::allocator<ChangeDirInfo> > >::operator-, COMDAT
; _this$ = ecx

; 190  : 		{	// return difference of iterators

  00000	55		 push	 ebp
  00001	8b ec		 mov	 ebp, esp

; 191  : 		_Compat(_Right);
; 192  : 		return (this->_Ptr - _Right._Ptr);

  00003	8b 01		 mov	 eax, DWORD PTR [ecx]
  00005	8b 4d 08	 mov	 ecx, DWORD PTR __Right$[ebp]
  00008	2b 01		 sub	 eax, DWORD PTR [ecx]
  0000a	6a 1c		 push	 28			; 0000001cH
  0000c	99		 cdq
  0000d	59		 pop	 ecx
  0000e	f7 f9		 idiv	 ecx

; 193  : 		}

  00010	5d		 pop	 ebp
  00011	c2 04 00	 ret	 4
??G?$_Vector_const_iterator@V?$_Vector_val@UChangeDirInfo@@V?$allocator@UChangeDirInfo@@@std@@@std@@@std@@QBEHABV01@@Z ENDP ; std::_Vector_const_iterator<std::_Vector_val<ChangeDirInfo,std::allocator<ChangeDirInfo> > >::operator-
_TEXT	ENDS
PUBLIC	??$forward@AAUChangeDirInfo@@@std@@YAAAUChangeDirInfo@@AAU1@@Z ; std::forward<ChangeDirInfo &>
; Function compile flags: /Ogsp
; File c:\program files (x86)\microsoft visual studio 10.0\vc\include\utility
;	COMDAT ??$forward@AAUChangeDirInfo@@@std@@YAAAUChangeDirInfo@@AAU1@@Z
_TEXT	SEGMENT
__Arg$ = 8						; size = 4
??$forward@AAUChangeDirInfo@@@std@@YAAAUChangeDirInfo@@AAU1@@Z PROC ; std::forward<ChangeDirInfo &>, COMDAT

; 78   : 	{	// forward _Arg, given explicitly specified type parameter

  00000	55		 push	 ebp
  00001	8b ec		 mov	 ebp, esp

; 79   : 	return ((_Ty&&)_Arg);

  00003	8b 45 08	 mov	 eax, DWORD PTR __Arg$[ebp]

; 80   : 	}

  00006	5d		 pop	 ebp
  00007	c3		 ret	 0
??$forward@AAUChangeDirInfo@@@std@@YAAAUChangeDirInfo@@AAU1@@Z ENDP ; std::forward<ChangeDirInfo &>
_TEXT	ENDS
PUBLIC	??$construct@AAUChangeDirInfo@@@?$allocator@UChangeDirInfo@@@std@@QAEXPAUChangeDirInfo@@AAU2@@Z ; std::allocator<ChangeDirInfo>::construct<ChangeDirInfo &>
; Function compile flags: /Ogsp
; File c:\program files (x86)\microsoft visual studio 10.0\vc\include\xmemory
;	COMDAT ??$construct@AAUChangeDirInfo@@@?$allocator@UChangeDirInfo@@@std@@QAEXPAUChangeDirInfo@@AAU2@@Z
_TEXT	SEGMENT
__Ptr$ = 8						; size = 4
__Val$ = 12						; size = 4
??$construct@AAUChangeDirInfo@@@?$allocator@UChangeDirInfo@@@std@@QAEXPAUChangeDirInfo@@AAU2@@Z PROC ; std::allocator<ChangeDirInfo>::construct<ChangeDirInfo &>, COMDAT
; _this$ = ecx

; 206  : 		void construct(pointer _Ptr, _Other&& _Val)

  00000	55		 push	 ebp
  00001	8b ec		 mov	 ebp, esp
  00003	57		 push	 edi

; 207  : 		{	// construct object at _Ptr with value _Val
; 208  : 		::new ((void _FARQ *)_Ptr) _Ty(_STD forward<_Other>(_Val));

  00004	8b 7d 08	 mov	 edi, DWORD PTR __Ptr$[ebp]
  00007	85 ff		 test	 edi, edi
  00009	74 0a		 je	 SHORT $LN3@construct
  0000b	56		 push	 esi
  0000c	8b 75 0c	 mov	 esi, DWORD PTR __Val$[ebp]
  0000f	6a 07		 push	 7
  00011	59		 pop	 ecx
  00012	f3 a5		 rep movsd
  00014	5e		 pop	 esi
$LN3@construct:
  00015	5f		 pop	 edi

; 209  : 		}

  00016	5d		 pop	 ebp
  00017	c2 08 00	 ret	 8
??$construct@AAUChangeDirInfo@@@?$allocator@UChangeDirInfo@@@std@@QAEXPAUChangeDirInfo@@AAU2@@Z ENDP ; std::allocator<ChangeDirInfo>::construct<ChangeDirInfo &>
_TEXT	ENDS
PUBLIC	??0D3DXVECTOR3@@QAE@XZ				; D3DXVECTOR3::D3DXVECTOR3
; Function compile flags: /Ogsp
; File c:\program files (x86)\microsoft directx sdk (june 2010)\include\d3dx9math.h
;	COMDAT ??0D3DXVECTOR3@@QAE@XZ
_TEXT	SEGMENT
??0D3DXVECTOR3@@QAE@XZ PROC				; D3DXVECTOR3::D3DXVECTOR3, COMDAT
; _this$ = ecx

; 165  :     D3DXVECTOR3() {};

  00000	8b c1		 mov	 eax, ecx
  00002	c3		 ret	 0
??0D3DXVECTOR3@@QAE@XZ ENDP				; D3DXVECTOR3::D3DXVECTOR3
_TEXT	ENDS
PUBLIC	??$forward@ABUChangeDirInfo@@@std@@YAABUChangeDirInfo@@ABU1@@Z ; std::forward<ChangeDirInfo const &>
; Function compile flags: /Ogsp
; File c:\program files (x86)\microsoft visual studio 10.0\vc\include\utility
;	COMDAT ??$forward@ABUChangeDirInfo@@@std@@YAABUChangeDirInfo@@ABU1@@Z
_TEXT	SEGMENT
__Arg$ = 8						; size = 4
??$forward@ABUChangeDirInfo@@@std@@YAABUChangeDirInfo@@ABU1@@Z PROC ; std::forward<ChangeDirInfo const &>, COMDAT

; 78   : 	{	// forward _Arg, given explicitly specified type parameter

  00000	55		 push	 ebp
  00001	8b ec		 mov	 ebp, esp

; 79   : 	return ((_Ty&&)_Arg);

  00003	8b 45 08	 mov	 eax, DWORD PTR __Arg$[ebp]

; 80   : 	}

  00006	5d		 pop	 ebp
  00007	c3		 ret	 0
??$forward@ABUChangeDirInfo@@@std@@YAABUChangeDirInfo@@ABU1@@Z ENDP ; std::forward<ChangeDirInfo const &>
_TEXT	ENDS
PUBLIC	??$_Ptr_cat@UChangeDirInfo@@U1@@std@@YA?AU_Nonscalar_ptr_iterator_tag@0@PAUChangeDirInfo@@0@Z ; std::_Ptr_cat<ChangeDirInfo,ChangeDirInfo>
; Function compile flags: /Ogsp
; File c:\program files (x86)\microsoft visual studio 10.0\vc\include\xutility
;	COMDAT ??$_Ptr_cat@UChangeDirInfo@@U1@@std@@YA?AU_Nonscalar_ptr_iterator_tag@0@PAUChangeDirInfo@@0@Z
_TEXT	SEGMENT
__Cat$ = -1						; size = 1
___formal$ = 8						; size = 4
___formal$ = 12						; size = 4
??$_Ptr_cat@UChangeDirInfo@@U1@@std@@YA?AU_Nonscalar_ptr_iterator_tag@0@PAUChangeDirInfo@@0@Z PROC ; std::_Ptr_cat<ChangeDirInfo,ChangeDirInfo>, COMDAT

; 516  : 	{	// return pointer category from pointers

  00000	55		 push	 ebp
  00001	8b ec		 mov	 ebp, esp
  00003	51		 push	 ecx

; 517  : 	typename _Ptr_cat_helper<_Elem1, _Elem2>::_Type _Cat;
; 518  : 	return (_Cat);

  00004	8a 45 ff	 mov	 al, BYTE PTR __Cat$[ebp]

; 519  : 	}

  00007	c9		 leave
  00008	c3		 ret	 0
??$_Ptr_cat@UChangeDirInfo@@U1@@std@@YA?AU_Nonscalar_ptr_iterator_tag@0@PAUChangeDirInfo@@0@Z ENDP ; std::_Ptr_cat<ChangeDirInfo,ChangeDirInfo>
_TEXT	ENDS
PUBLIC	??$_Construct@UChangeDirInfo@@ABU1@@std@@YAXPAUChangeDirInfo@@ABU1@@Z ; std::_Construct<ChangeDirInfo,ChangeDirInfo const &>
; Function compile flags: /Ogsp
; File c:\program files (x86)\microsoft visual studio 10.0\vc\include\xmemory
;	COMDAT ??$_Construct@UChangeDirInfo@@ABU1@@std@@YAXPAUChangeDirInfo@@ABU1@@Z
_TEXT	SEGMENT
__Ptr$ = 8						; size = 4
__Val$ = 12						; size = 4
??$_Construct@UChangeDirInfo@@ABU1@@std@@YAXPAUChangeDirInfo@@ABU1@@Z PROC ; std::_Construct<ChangeDirInfo,ChangeDirInfo const &>, COMDAT

; 46   : 	{	// construct object at _Ptr with value _Val

  00000	55		 push	 ebp
  00001	8b ec		 mov	 ebp, esp
  00003	57		 push	 edi

; 47   : 	void _FARQ *_Vptr = _Ptr;
; 48   : 	::new (_Vptr) _Ty1(_STD forward<_Ty2>(_Val));

  00004	8b 7d 08	 mov	 edi, DWORD PTR __Ptr$[ebp]
  00007	85 ff		 test	 edi, edi
  00009	74 0a		 je	 SHORT $LN3@Construct
  0000b	56		 push	 esi
  0000c	8b 75 0c	 mov	 esi, DWORD PTR __Val$[ebp]
  0000f	6a 07		 push	 7
  00011	59		 pop	 ecx
  00012	f3 a5		 rep movsd
  00014	5e		 pop	 esi
$LN3@Construct:
  00015	5f		 pop	 edi

; 49   : 	}

  00016	5d		 pop	 ebp
  00017	c3		 ret	 0
??$_Construct@UChangeDirInfo@@ABU1@@std@@YAXPAUChangeDirInfo@@ABU1@@Z ENDP ; std::_Construct<ChangeDirInfo,ChangeDirInfo const &>
_TEXT	ENDS
PUBLIC	??0D3DXQUATERNION@@QAE@XZ			; D3DXQUATERNION::D3DXQUATERNION
; Function compile flags: /Ogsp
; File c:\program files (x86)\microsoft directx sdk (june 2010)\include\d3dx9math.h
;	COMDAT ??0D3DXQUATERNION@@QAE@XZ
_TEXT	SEGMENT
??0D3DXQUATERNION@@QAE@XZ PROC				; D3DXQUATERNION::D3DXQUATERNION, COMDAT
; _this$ = ecx

; 429  :     D3DXQUATERNION() {}

  00000	8b c1		 mov	 eax, ecx
  00002	c3		 ret	 0
??0D3DXQUATERNION@@QAE@XZ ENDP				; D3DXQUATERNION::D3DXQUATERNION
_TEXT	ENDS
PUBLIC	?_Unchecked@?$_Vector_iterator@V?$_Vector_val@UChangeDirInfo@@V?$allocator@UChangeDirInfo@@@std@@@std@@@std@@QBEPAUChangeDirInfo@@XZ ; std::_Vector_iterator<std::_Vector_val<ChangeDirInfo,std::allocator<ChangeDirInfo> > >::_Unchecked
; Function compile flags: /Ogsp
; File c:\program files (x86)\microsoft visual studio 10.0\vc\include\vector
;	COMDAT ?_Unchecked@?$_Vector_iterator@V?$_Vector_val@UChangeDirInfo@@V?$allocator@UChangeDirInfo@@@std@@@std@@@std@@QBEPAUChangeDirInfo@@XZ
_TEXT	SEGMENT
?_Unchecked@?$_Vector_iterator@V?$_Vector_val@UChangeDirInfo@@V?$allocator@UChangeDirInfo@@@std@@@std@@@std@@QBEPAUChangeDirInfo@@XZ PROC ; std::_Vector_iterator<std::_Vector_val<ChangeDirInfo,std::allocator<ChangeDirInfo> > >::_Unchecked, COMDAT
; _this$ = ecx

; 317  : 		return (_Unchecked_type(this->_Ptr));

  00000	8b 01		 mov	 eax, DWORD PTR [ecx]

; 318  : 		}

  00002	c3		 ret	 0
?_Unchecked@?$_Vector_iterator@V?$_Vector_val@UChangeDirInfo@@V?$allocator@UChangeDirInfo@@@std@@@std@@@std@@QBEPAUChangeDirInfo@@XZ ENDP ; std::_Vector_iterator<std::_Vector_val<ChangeDirInfo,std::allocator<ChangeDirInfo> > >::_Unchecked
_TEXT	ENDS
PUBLIC	??$_Val_type@PAUChangeDirInfo@@@std@@YAPAUChangeDirInfo@@PAU1@@Z ; std::_Val_type<ChangeDirInfo *>
; Function compile flags: /Ogsp
; File c:\program files (x86)\microsoft visual studio 10.0\vc\include\xutility
;	COMDAT ??$_Val_type@PAUChangeDirInfo@@@std@@YAPAUChangeDirInfo@@PAU1@@Z
_TEXT	SEGMENT
___formal$ = 8						; size = 4
??$_Val_type@PAUChangeDirInfo@@@std@@YAPAUChangeDirInfo@@PAU1@@Z PROC ; std::_Val_type<ChangeDirInfo *>, COMDAT

; 790  : 	return (0);

  00000	33 c0		 xor	 eax, eax

; 791  : 	}

  00002	c3		 ret	 0
??$_Val_type@PAUChangeDirInfo@@@std@@YAPAUChangeDirInfo@@PAU1@@Z ENDP ; std::_Val_type<ChangeDirInfo *>
_TEXT	ENDS
PUBLIC	??$move@AAUChangeDirInfo@@@std@@YA$$QAUChangeDirInfo@@AAU1@@Z ; std::move<ChangeDirInfo &>
; Function compile flags: /Ogsp
; File c:\program files (x86)\microsoft visual studio 10.0\vc\include\utility
;	COMDAT ??$move@AAUChangeDirInfo@@@std@@YA$$QAUChangeDirInfo@@AAU1@@Z
_TEXT	SEGMENT
__Arg$ = 8						; size = 4
??$move@AAUChangeDirInfo@@@std@@YA$$QAUChangeDirInfo@@AAU1@@Z PROC ; std::move<ChangeDirInfo &>, COMDAT

; 86   : 	{	// forward _Arg as movable

  00000	55		 push	 ebp
  00001	8b ec		 mov	 ebp, esp

; 87   : 	return ((typename tr1::_Remove_reference<_Ty>::_Type&&)_Arg);

  00003	8b 45 08	 mov	 eax, DWORD PTR __Arg$[ebp]

; 88   : 	}

  00006	5d		 pop	 ebp
  00007	c3		 ret	 0
??$move@AAUChangeDirInfo@@@std@@YA$$QAUChangeDirInfo@@AAU1@@Z ENDP ; std::move<ChangeDirInfo &>
_TEXT	ENDS
PUBLIC	??$_Unchecked@PAUChangeDirInfo@@@std@@YAPAUChangeDirInfo@@PAU1@@Z ; std::_Unchecked<ChangeDirInfo *>
; Function compile flags: /Ogsp
; File c:\program files (x86)\microsoft visual studio 10.0\vc\include\xutility
;	COMDAT ??$_Unchecked@PAUChangeDirInfo@@@std@@YAPAUChangeDirInfo@@PAU1@@Z
_TEXT	SEGMENT
__Src$ = 8						; size = 4
??$_Unchecked@PAUChangeDirInfo@@@std@@YAPAUChangeDirInfo@@PAU1@@Z PROC ; std::_Unchecked<ChangeDirInfo *>, COMDAT

; 266  : 	{	// construct unchecked from checked, generic

  00000	55		 push	 ebp
  00001	8b ec		 mov	 ebp, esp

; 267  : 	return (_Src);

  00003	8b 45 08	 mov	 eax, DWORD PTR __Src$[ebp]

; 268  : 	}

  00006	5d		 pop	 ebp
  00007	c3		 ret	 0
??$_Unchecked@PAUChangeDirInfo@@@std@@YAPAUChangeDirInfo@@PAU1@@Z ENDP ; std::_Unchecked<ChangeDirInfo *>
_TEXT	ENDS
PUBLIC	??$_Dist_type@PAUChangeDirInfo@@@std@@YAPAHPAUChangeDirInfo@@@Z ; std::_Dist_type<ChangeDirInfo *>
; Function compile flags: /Ogsp
;	COMDAT ??$_Dist_type@PAUChangeDirInfo@@@std@@YAPAHPAUChangeDirInfo@@@Z
_TEXT	SEGMENT
___formal$ = 8						; size = 4
??$_Dist_type@PAUChangeDirInfo@@@std@@YAPAHPAUChangeDirInfo@@@Z PROC ; std::_Dist_type<ChangeDirInfo *>, COMDAT

; 850  : 	return (0);

  00000	33 c0		 xor	 eax, eax

; 851  : 	}

  00002	c3		 ret	 0
??$_Dist_type@PAUChangeDirInfo@@@std@@YAPAHPAUChangeDirInfo@@@Z ENDP ; std::_Dist_type<ChangeDirInfo *>
_TEXT	ENDS
PUBLIC	??$_Destroy@UChangeDirInfo@@@std@@YAXPAUChangeDirInfo@@@Z ; std::_Destroy<ChangeDirInfo>
; Function compile flags: /Ogsp
; File c:\program files (x86)\microsoft visual studio 10.0\vc\include\xmemory
;	COMDAT ??$_Destroy@UChangeDirInfo@@@std@@YAXPAUChangeDirInfo@@@Z
_TEXT	SEGMENT
__Ptr$ = 8						; size = 4
??$_Destroy@UChangeDirInfo@@@std@@YAXPAUChangeDirInfo@@@Z PROC ; std::_Destroy<ChangeDirInfo>, COMDAT

; 63   : 	_Ptr->~_Ty();
; 64   : 	}

  00000	c3		 ret	 0
??$_Destroy@UChangeDirInfo@@@std@@YAXPAUChangeDirInfo@@@Z ENDP ; std::_Destroy<ChangeDirInfo>
_TEXT	ENDS
PUBLIC	??0D3DXVECTOR3@@QAE@MMM@Z			; D3DXVECTOR3::D3DXVECTOR3
; Function compile flags: /Ogsp
; File c:\program files (x86)\microsoft directx sdk (june 2010)\include\d3dx9math.inl
;	COMDAT ??0D3DXVECTOR3@@QAE@MMM@Z
_TEXT	SEGMENT
_fx$ = 8						; size = 4
_fy$ = 12						; size = 4
_fz$ = 16						; size = 4
??0D3DXVECTOR3@@QAE@MMM@Z PROC				; D3DXVECTOR3::D3DXVECTOR3, COMDAT
; _this$ = ecx

; 303  : {

  00000	55		 push	 ebp
  00001	8b ec		 mov	 ebp, esp

; 304  :     x = fx;

  00003	f3 0f 10 45 08	 movss	 xmm0, DWORD PTR _fx$[ebp]
  00008	8b c1		 mov	 eax, ecx
  0000a	f3 0f 11 00	 movss	 DWORD PTR [eax], xmm0

; 305  :     y = fy;

  0000e	f3 0f 10 45 0c	 movss	 xmm0, DWORD PTR _fy$[ebp]
  00013	f3 0f 11 40 04	 movss	 DWORD PTR [eax+4], xmm0

; 306  :     z = fz;

  00018	f3 0f 10 45 10	 movss	 xmm0, DWORD PTR _fz$[ebp]
  0001d	f3 0f 11 40 08	 movss	 DWORD PTR [eax+8], xmm0

; 307  : }

  00022	5d		 pop	 ebp
  00023	c2 0c 00	 ret	 12			; 0000000cH
??0D3DXVECTOR3@@QAE@MMM@Z ENDP				; D3DXVECTOR3::D3DXVECTOR3
_TEXT	ENDS
PUBLIC	??$forward@AAPAUChangeDirInfo@@@std@@YAAAPAUChangeDirInfo@@AAPAU1@@Z ; std::forward<ChangeDirInfo * &>
; Function compile flags: /Ogsp
; File c:\program files (x86)\microsoft visual studio 10.0\vc\include\utility
;	COMDAT ??$forward@AAPAUChangeDirInfo@@@std@@YAAAPAUChangeDirInfo@@AAPAU1@@Z
_TEXT	SEGMENT
__Arg$ = 8						; size = 4
??$forward@AAPAUChangeDirInfo@@@std@@YAAAPAUChangeDirInfo@@AAPAU1@@Z PROC ; std::forward<ChangeDirInfo * &>, COMDAT

; 78   : 	{	// forward _Arg, given explicitly specified type parameter

  00000	55		 push	 ebp
  00001	8b ec		 mov	 ebp, esp

; 79   : 	return ((_Ty&&)_Arg);

  00003	8b 45 08	 mov	 eax, DWORD PTR __Arg$[ebp]

; 80   : 	}

  00006	5d		 pop	 ebp
  00007	c3		 ret	 0
??$forward@AAPAUChangeDirInfo@@@std@@YAAAPAUChangeDirInfo@@AAPAU1@@Z ENDP ; std::forward<ChangeDirInfo * &>
_TEXT	ENDS
PUBLIC	??$?0AAPAUChangeDirInfo@@AAPAU0@@?$_Pair_base@PAUChangeDirInfo@@PAU1@@std@@QAE@AAPAUChangeDirInfo@@0@Z ; std::_Pair_base<ChangeDirInfo *,ChangeDirInfo *>::_Pair_base<ChangeDirInfo *,ChangeDirInfo *><ChangeDirInfo * &,ChangeDirInfo * &>
; Function compile flags: /Ogsp
;	COMDAT ??$?0AAPAUChangeDirInfo@@AAPAU0@@?$_Pair_base@PAUChangeDirInfo@@PAU1@@std@@QAE@AAPAUChangeDirInfo@@0@Z
_TEXT	SEGMENT
__Val1$ = 8						; size = 4
__Val2$ = 12						; size = 4
??$?0AAPAUChangeDirInfo@@AAPAU0@@?$_Pair_base@PAUChangeDirInfo@@PAU1@@std@@QAE@AAPAUChangeDirInfo@@0@Z PROC ; std::_Pair_base<ChangeDirInfo *,ChangeDirInfo *>::_Pair_base<ChangeDirInfo *,ChangeDirInfo *><ChangeDirInfo * &,ChangeDirInfo * &>, COMDAT
; _this$ = ecx

; 163  : 		{	// construct from moved values

  00000	55		 push	 ebp
  00001	8b ec		 mov	 ebp, esp
  00003	8b c1		 mov	 eax, ecx
  00005	8b 4d 08	 mov	 ecx, DWORD PTR __Val1$[ebp]
  00008	8b 09		 mov	 ecx, DWORD PTR [ecx]
  0000a	89 08		 mov	 DWORD PTR [eax], ecx
  0000c	8b 4d 0c	 mov	 ecx, DWORD PTR __Val2$[ebp]
  0000f	8b 09		 mov	 ecx, DWORD PTR [ecx]
  00011	89 48 04	 mov	 DWORD PTR [eax+4], ecx

; 164  : 		}

  00014	5d		 pop	 ebp
  00015	c2 08 00	 ret	 8
??$?0AAPAUChangeDirInfo@@AAPAU0@@?$_Pair_base@PAUChangeDirInfo@@PAU1@@std@@QAE@AAPAUChangeDirInfo@@0@Z ENDP ; std::_Pair_base<ChangeDirInfo *,ChangeDirInfo *>::_Pair_base<ChangeDirInfo *,ChangeDirInfo *><ChangeDirInfo * &,ChangeDirInfo * &>
_TEXT	ENDS
PUBLIC	??$_Move@AAUChangeDirInfo@@@std@@YA$$QAUChangeDirInfo@@AAU1@@Z ; std::_Move<ChangeDirInfo &>
; Function compile flags: /Ogsp
;	COMDAT ??$_Move@AAUChangeDirInfo@@@std@@YA$$QAUChangeDirInfo@@AAU1@@Z
_TEXT	SEGMENT
__Arg$ = 8						; size = 4
??$_Move@AAUChangeDirInfo@@@std@@YA$$QAUChangeDirInfo@@AAU1@@Z PROC ; std::_Move<ChangeDirInfo &>, COMDAT

; 94   : 	{	// forward _Arg as movable

  00000	55		 push	 ebp
  00001	8b ec		 mov	 ebp, esp

; 95   : 	return ((typename tr1::_Remove_reference<_Ty>::_Type&&)_Arg);

  00003	8b 45 08	 mov	 eax, DWORD PTR __Arg$[ebp]

; 96   : 	}

  00006	5d		 pop	 ebp
  00007	c3		 ret	 0
??$_Move@AAUChangeDirInfo@@@std@@YA$$QAUChangeDirInfo@@AAU1@@Z ENDP ; std::_Move<ChangeDirInfo &>
_TEXT	ENDS
PUBLIC	__mask@@NegFloat@
PUBLIC	??GD3DXVECTOR3@@QBE?AU0@XZ			; D3DXVECTOR3::operator-
;	COMDAT __mask@@NegFloat@
; File c:\program files (x86)\microsoft directx sdk (june 2010)\include\d3dx9math.inl
CONST	SEGMENT
__mask@@NegFloat@ DB 00H, 00H, 00H, 080H, 00H, 00H, 00H, 080H, 00H, 00H, 00H
	DB	080H, 00H, 00H, 00H, 080H
; Function compile flags: /Ogsp
CONST	ENDS
;	COMDAT ??GD3DXVECTOR3@@QBE?AU0@XZ
_TEXT	SEGMENT
___$ReturnUdt$ = 8					; size = 4
??GD3DXVECTOR3@@QBE?AU0@XZ PROC				; D3DXVECTOR3::operator-, COMDAT
; _this$ = ecx

; 372  : {

  00000	55		 push	 ebp
  00001	8b ec		 mov	 ebp, esp

; 373  :     return D3DXVECTOR3(-x, -y, -z);

  00003	f3 0f 10 05 00
	00 00 00	 movss	 xmm0, DWORD PTR __mask@@NegFloat@
  0000b	8b 45 08	 mov	 eax, DWORD PTR ___$ReturnUdt$[ebp]
  0000e	f3 0f 10 09	 movss	 xmm1, DWORD PTR [ecx]
  00012	0f 57 c8	 xorps	 xmm1, xmm0
  00015	f3 0f 11 08	 movss	 DWORD PTR [eax], xmm1
  00019	f3 0f 10 49 04	 movss	 xmm1, DWORD PTR [ecx+4]
  0001e	0f 57 c8	 xorps	 xmm1, xmm0
  00021	f3 0f 11 48 04	 movss	 DWORD PTR [eax+4], xmm1
  00026	f3 0f 10 49 08	 movss	 xmm1, DWORD PTR [ecx+8]
  0002b	0f 57 c8	 xorps	 xmm1, xmm0
  0002e	f3 0f 11 48 08	 movss	 DWORD PTR [eax+8], xmm1

; 374  : }

  00033	5d		 pop	 ebp
  00034	c2 04 00	 ret	 4
??GD3DXVECTOR3@@QBE?AU0@XZ ENDP				; D3DXVECTOR3::operator-
_TEXT	ENDS
PUBLIC	??HD3DXVECTOR3@@QBE?AU0@ABU0@@Z			; D3DXVECTOR3::operator+
; Function compile flags: /Ogsp
;	COMDAT ??HD3DXVECTOR3@@QBE?AU0@ABU0@@Z
_TEXT	SEGMENT
___$ReturnUdt$ = 8					; size = 4
_v$ = 12						; size = 4
??HD3DXVECTOR3@@QBE?AU0@ABU0@@Z PROC			; D3DXVECTOR3::operator+, COMDAT
; _this$ = ecx

; 380  : {

  00000	55		 push	 ebp
  00001	8b ec		 mov	 ebp, esp

; 381  :     return D3DXVECTOR3(x + v.x, y + v.y, z + v.z);

  00003	8b 55 0c	 mov	 edx, DWORD PTR _v$[ebp]
  00006	f3 0f 10 02	 movss	 xmm0, DWORD PTR [edx]
  0000a	f3 0f 10 09	 movss	 xmm1, DWORD PTR [ecx]
  0000e	8b 45 08	 mov	 eax, DWORD PTR ___$ReturnUdt$[ebp]
  00011	0f 5a c0	 cvtps2pd xmm0, xmm0
  00014	0f 5a c9	 cvtps2pd xmm1, xmm1
  00017	f2 0f 58 c1	 addsd	 xmm0, xmm1
  0001b	f3 0f 10 49 04	 movss	 xmm1, DWORD PTR [ecx+4]
  00020	66 0f 5a c0	 cvtpd2ps xmm0, xmm0
  00024	f3 0f 11 00	 movss	 DWORD PTR [eax], xmm0
  00028	f3 0f 10 42 04	 movss	 xmm0, DWORD PTR [edx+4]
  0002d	0f 5a c0	 cvtps2pd xmm0, xmm0
  00030	0f 5a c9	 cvtps2pd xmm1, xmm1
  00033	f2 0f 58 c1	 addsd	 xmm0, xmm1
  00037	f3 0f 10 49 08	 movss	 xmm1, DWORD PTR [ecx+8]
  0003c	66 0f 5a c0	 cvtpd2ps xmm0, xmm0
  00040	f3 0f 11 40 04	 movss	 DWORD PTR [eax+4], xmm0
  00045	f3 0f 10 42 08	 movss	 xmm0, DWORD PTR [edx+8]
  0004a	0f 5a c0	 cvtps2pd xmm0, xmm0
  0004d	0f 5a c9	 cvtps2pd xmm1, xmm1
  00050	f2 0f 58 c1	 addsd	 xmm0, xmm1
  00054	66 0f 5a c0	 cvtpd2ps xmm0, xmm0
  00058	f3 0f 11 40 08	 movss	 DWORD PTR [eax+8], xmm0

; 382  : }

  0005d	5d		 pop	 ebp
  0005e	c2 08 00	 ret	 8
??HD3DXVECTOR3@@QBE?AU0@ABU0@@Z ENDP			; D3DXVECTOR3::operator+
_TEXT	ENDS
PUBLIC	??$forward@UChangeDirInfo@@@std@@YA$$QAUChangeDirInfo@@AAU1@@Z ; std::forward<ChangeDirInfo>
; Function compile flags: /Ogsp
; File c:\program files (x86)\microsoft visual studio 10.0\vc\include\utility
;	COMDAT ??$forward@UChangeDirInfo@@@std@@YA$$QAUChangeDirInfo@@AAU1@@Z
_TEXT	SEGMENT
__Arg$ = 8						; size = 4
??$forward@UChangeDirInfo@@@std@@YA$$QAUChangeDirInfo@@AAU1@@Z PROC ; std::forward<ChangeDirInfo>, COMDAT

; 78   : 	{	// forward _Arg, given explicitly specified type parameter

  00000	55		 push	 ebp
  00001	8b ec		 mov	 ebp, esp

; 79   : 	return ((_Ty&&)_Arg);

  00003	8b 45 08	 mov	 eax, DWORD PTR __Arg$[ebp]

; 80   : 	}

  00006	5d		 pop	 ebp
  00007	c3		 ret	 0
??$forward@UChangeDirInfo@@@std@@YA$$QAUChangeDirInfo@@AAU1@@Z ENDP ; std::forward<ChangeDirInfo>
_TEXT	ENDS
PUBLIC	??GD3DXVECTOR3@@QBE?AU0@ABU0@@Z			; D3DXVECTOR3::operator-
; Function compile flags: /Ogsp
; File c:\program files (x86)\microsoft directx sdk (june 2010)\include\d3dx9math.inl
;	COMDAT ??GD3DXVECTOR3@@QBE?AU0@ABU0@@Z
_TEXT	SEGMENT
___$ReturnUdt$ = 8					; size = 4
_v$ = 12						; size = 4
??GD3DXVECTOR3@@QBE?AU0@ABU0@@Z PROC			; D3DXVECTOR3::operator-, COMDAT
; _this$ = ecx

; 386  : {

  00000	55		 push	 ebp
  00001	8b ec		 mov	 ebp, esp

; 387  :     return D3DXVECTOR3(x - v.x, y - v.y, z - v.z);

  00003	8b 55 0c	 mov	 edx, DWORD PTR _v$[ebp]
  00006	f3 0f 10 01	 movss	 xmm0, DWORD PTR [ecx]
  0000a	f3 0f 10 0a	 movss	 xmm1, DWORD PTR [edx]
  0000e	8b 45 08	 mov	 eax, DWORD PTR ___$ReturnUdt$[ebp]
  00011	0f 5a c0	 cvtps2pd xmm0, xmm0
  00014	0f 5a c9	 cvtps2pd xmm1, xmm1
  00017	f2 0f 5c c1	 subsd	 xmm0, xmm1
  0001b	f3 0f 10 4a 04	 movss	 xmm1, DWORD PTR [edx+4]
  00020	66 0f 5a c0	 cvtpd2ps xmm0, xmm0
  00024	f3 0f 11 00	 movss	 DWORD PTR [eax], xmm0
  00028	f3 0f 10 41 04	 movss	 xmm0, DWORD PTR [ecx+4]
  0002d	0f 5a c0	 cvtps2pd xmm0, xmm0
  00030	0f 5a c9	 cvtps2pd xmm1, xmm1
  00033	f2 0f 5c c1	 subsd	 xmm0, xmm1
  00037	f3 0f 10 4a 08	 movss	 xmm1, DWORD PTR [edx+8]
  0003c	66 0f 5a c0	 cvtpd2ps xmm0, xmm0
  00040	f3 0f 11 40 04	 movss	 DWORD PTR [eax+4], xmm0
  00045	f3 0f 10 41 08	 movss	 xmm0, DWORD PTR [ecx+8]
  0004a	0f 5a c0	 cvtps2pd xmm0, xmm0
  0004d	0f 5a c9	 cvtps2pd xmm1, xmm1
  00050	f2 0f 5c c1	 subsd	 xmm0, xmm1
  00054	66 0f 5a c0	 cvtpd2ps xmm0, xmm0
  00058	f3 0f 11 40 08	 movss	 DWORD PTR [eax+8], xmm0

; 388  : }

  0005d	5d		 pop	 ebp
  0005e	c2 08 00	 ret	 8
??GD3DXVECTOR3@@QBE?AU0@ABU0@@Z ENDP			; D3DXVECTOR3::operator-
_TEXT	ENDS
PUBLIC	??$_Move_backward@PAUChangeDirInfo@@PAU1@@std@@YAPAUChangeDirInfo@@PAU1@00U_Nonscalar_ptr_iterator_tag@0@@Z ; std::_Move_backward<ChangeDirInfo *,ChangeDirInfo *>
; Function compile flags: /Ogsp
; File c:\program files (x86)\microsoft visual studio 10.0\vc\include\xutility
;	COMDAT ??$_Move_backward@PAUChangeDirInfo@@PAU1@@std@@YAPAUChangeDirInfo@@PAU1@00U_Nonscalar_ptr_iterator_tag@0@@Z
_TEXT	SEGMENT
__First$ = 8						; size = 4
__Last$ = 12						; size = 4
__Dest$ = 16						; size = 4
___formal$ = 20						; size = 1
??$_Move_backward@PAUChangeDirInfo@@PAU1@@std@@YAPAUChangeDirInfo@@PAU1@00U_Nonscalar_ptr_iterator_tag@0@@Z PROC ; std::_Move_backward<ChangeDirInfo *,ChangeDirInfo *>, COMDAT

; 2617 : 	{	// move [_First, _Last) backwards to [..., _Dest), arbitrary iterators

  00000	55		 push	 ebp
  00001	8b ec		 mov	 ebp, esp

; 2618 : 	while (_First != _Last)

  00003	8b 45 0c	 mov	 eax, DWORD PTR __Last$[ebp]
  00006	39 45 08	 cmp	 DWORD PTR __First$[ebp], eax
  00009	74 1a		 je	 SHORT $LN9@Move_backw
  0000b	56		 push	 esi
  0000c	57		 push	 edi
$LL2@Move_backw:

; 2619 : 		*--_Dest = _STD move(*--_Last);

  0000d	83 6d 10 1c	 sub	 DWORD PTR __Dest$[ebp], 28 ; 0000001cH
  00011	8b 7d 10	 mov	 edi, DWORD PTR __Dest$[ebp]
  00014	83 e8 1c	 sub	 eax, 28			; 0000001cH
  00017	6a 07		 push	 7
  00019	59		 pop	 ecx
  0001a	8b f0		 mov	 esi, eax
  0001c	f3 a5		 rep movsd
  0001e	3b 45 08	 cmp	 eax, DWORD PTR __First$[ebp]
  00021	75 ea		 jne	 SHORT $LL2@Move_backw
  00023	5f		 pop	 edi
  00024	5e		 pop	 esi
$LN9@Move_backw:

; 2620 : 	return (_Dest);

  00025	8b 45 10	 mov	 eax, DWORD PTR __Dest$[ebp]

; 2621 : 	}

  00028	5d		 pop	 ebp
  00029	c3		 ret	 0
??$_Move_backward@PAUChangeDirInfo@@PAU1@@std@@YAPAUChangeDirInfo@@PAU1@00U_Nonscalar_ptr_iterator_tag@0@@Z ENDP ; std::_Move_backward<ChangeDirInfo *,ChangeDirInfo *>
_TEXT	ENDS
PUBLIC	??DD3DXVECTOR3@@QBE?AU0@M@Z			; D3DXVECTOR3::operator*
; Function compile flags: /Ogsp
; File c:\program files (x86)\microsoft directx sdk (june 2010)\include\d3dx9math.inl
;	COMDAT ??DD3DXVECTOR3@@QBE?AU0@M@Z
_TEXT	SEGMENT
___$ReturnUdt$ = 8					; size = 4
_f$ = 12						; size = 4
??DD3DXVECTOR3@@QBE?AU0@M@Z PROC			; D3DXVECTOR3::operator*, COMDAT
; _this$ = ecx

; 392  : {

  00000	55		 push	 ebp
  00001	8b ec		 mov	 ebp, esp

; 393  :     return D3DXVECTOR3(x * f, y * f, z * f);

  00003	f3 0f 10 4d 0c	 movss	 xmm1, DWORD PTR _f$[ebp]
  00008	f3 0f 10 01	 movss	 xmm0, DWORD PTR [ecx]
  0000c	8b 45 08	 mov	 eax, DWORD PTR ___$ReturnUdt$[ebp]
  0000f	0f 5a c0	 cvtps2pd xmm0, xmm0
  00012	0f 5a c9	 cvtps2pd xmm1, xmm1
  00015	f2 0f 59 c1	 mulsd	 xmm0, xmm1
  00019	f3 0f 10 4d 0c	 movss	 xmm1, DWORD PTR _f$[ebp]
  0001e	66 0f 5a c0	 cvtpd2ps xmm0, xmm0
  00022	f3 0f 11 00	 movss	 DWORD PTR [eax], xmm0
  00026	f3 0f 10 41 04	 movss	 xmm0, DWORD PTR [ecx+4]
  0002b	0f 5a c0	 cvtps2pd xmm0, xmm0
  0002e	0f 5a c9	 cvtps2pd xmm1, xmm1
  00031	f2 0f 59 c1	 mulsd	 xmm0, xmm1
  00035	f3 0f 10 4d 0c	 movss	 xmm1, DWORD PTR _f$[ebp]
  0003a	66 0f 5a c0	 cvtpd2ps xmm0, xmm0
  0003e	f3 0f 11 40 04	 movss	 DWORD PTR [eax+4], xmm0
  00043	f3 0f 10 41 08	 movss	 xmm0, DWORD PTR [ecx+8]
  00048	0f 5a c0	 cvtps2pd xmm0, xmm0
  0004b	0f 5a c9	 cvtps2pd xmm1, xmm1
  0004e	f2 0f 59 c1	 mulsd	 xmm0, xmm1
  00052	66 0f 5a c0	 cvtpd2ps xmm0, xmm0
  00056	f3 0f 11 40 08	 movss	 DWORD PTR [eax+8], xmm0

; 394  : }

  0005b	5d		 pop	 ebp
  0005c	c2 08 00	 ret	 8
??DD3DXVECTOR3@@QBE?AU0@M@Z ENDP			; D3DXVECTOR3::operator*
_TEXT	ENDS
PUBLIC	??9D3DXVECTOR3@@QBEHABU0@@Z			; D3DXVECTOR3::operator!=
; Function compile flags: /Ogsp
;	COMDAT ??9D3DXVECTOR3@@QBEHABU0@@Z
_TEXT	SEGMENT
_v$ = 8							; size = 4
??9D3DXVECTOR3@@QBEHABU0@@Z PROC			; D3DXVECTOR3::operator!=, COMDAT
; _this$ = ecx

; 419  : {

  00000	55		 push	 ebp
  00001	8b ec		 mov	 ebp, esp

; 420  :     return x != v.x || y != v.y || z != v.z;

  00003	8b 55 08	 mov	 edx, DWORD PTR _v$[ebp]
  00006	f3 0f 10 01	 movss	 xmm0, DWORD PTR [ecx]
  0000a	f3 0f 10 0a	 movss	 xmm1, DWORD PTR [edx]
  0000e	0f 5a c0	 cvtps2pd xmm0, xmm0
  00011	0f 5a c9	 cvtps2pd xmm1, xmm1
  00014	66 0f 2e c1	 ucomisd xmm0, xmm1
  00018	9f		 lahf
  00019	f6 c4 44	 test	 ah, 68			; 00000044H
  0001c	7a 38		 jp	 SHORT $LN3@operator
  0001e	f3 0f 10 41 04	 movss	 xmm0, DWORD PTR [ecx+4]
  00023	f3 0f 10 4a 04	 movss	 xmm1, DWORD PTR [edx+4]
  00028	0f 5a c0	 cvtps2pd xmm0, xmm0
  0002b	0f 5a c9	 cvtps2pd xmm1, xmm1
  0002e	66 0f 2e c1	 ucomisd xmm0, xmm1
  00032	9f		 lahf
  00033	f6 c4 44	 test	 ah, 68			; 00000044H
  00036	7a 1e		 jp	 SHORT $LN3@operator
  00038	f3 0f 10 41 08	 movss	 xmm0, DWORD PTR [ecx+8]
  0003d	f3 0f 10 4a 08	 movss	 xmm1, DWORD PTR [edx+8]
  00042	0f 5a c0	 cvtps2pd xmm0, xmm0
  00045	0f 5a c9	 cvtps2pd xmm1, xmm1
  00048	66 0f 2e c1	 ucomisd xmm0, xmm1
  0004c	9f		 lahf
  0004d	f6 c4 44	 test	 ah, 68			; 00000044H
  00050	7a 04		 jp	 SHORT $LN3@operator
  00052	33 c0		 xor	 eax, eax
  00054	eb 03		 jmp	 SHORT $LN4@operator
$LN3@operator:
  00056	33 c0		 xor	 eax, eax
  00058	40		 inc	 eax
$LN4@operator:

; 421  : }

  00059	5d		 pop	 ebp
  0005a	c2 04 00	 ret	 4
??9D3DXVECTOR3@@QBEHABU0@@Z ENDP			; D3DXVECTOR3::operator!=
_TEXT	ENDS
PUBLIC	?D3DXVec3LengthSq@@YAMPBUD3DXVECTOR3@@@Z	; D3DXVec3LengthSq
; Function compile flags: /Ogsp
;	COMDAT ?D3DXVec3LengthSq@@YAMPBUD3DXVECTOR3@@@Z
_TEXT	SEGMENT
tv165 = 8						; size = 4
_pV$ = 8						; size = 4
?D3DXVec3LengthSq@@YAMPBUD3DXVECTOR3@@@Z PROC		; D3DXVec3LengthSq, COMDAT

; 1725 : {

  00000	55		 push	 ebp
  00001	8b ec		 mov	 ebp, esp

; 1726 : #ifdef D3DX_DEBUG
; 1727 :     if(!pV)
; 1728 :         return 0.0f;
; 1729 : #endif
; 1730 : 
; 1731 :     return pV->x * pV->x + pV->y * pV->y + pV->z * pV->z;

  00003	8b 45 08	 mov	 eax, DWORD PTR _pV$[ebp]
  00006	d9 40 04	 fld	 DWORD PTR [eax+4]
  00009	d9 00		 fld	 DWORD PTR [eax]
  0000b	d9 40 08	 fld	 DWORD PTR [eax+8]
  0000e	d9 c1		 fld	 ST(1)
  00010	de ca		 fmulp	 ST(2), ST(0)
  00012	d9 c2		 fld	 ST(2)
  00014	de cb		 fmulp	 ST(3), ST(0)
  00016	d9 c9		 fxch	 ST(1)
  00018	de c2		 faddp	 ST(2), ST(0)
  0001a	d9 c0		 fld	 ST(0)
  0001c	de c9		 fmulp	 ST(1), ST(0)
  0001e	de c1		 faddp	 ST(1), ST(0)
  00020	d9 5d 08	 fstp	 DWORD PTR tv165[ebp]
  00023	d9 45 08	 fld	 DWORD PTR tv165[ebp]

; 1732 : }

  00026	5d		 pop	 ebp
  00027	c3		 ret	 0
?D3DXVec3LengthSq@@YAMPBUD3DXVECTOR3@@@Z ENDP		; D3DXVec3LengthSq
_TEXT	ENDS
PUBLIC	?D3DXVec3Dot@@YAMPBUD3DXVECTOR3@@0@Z		; D3DXVec3Dot
; Function compile flags: /Ogsp
;	COMDAT ?D3DXVec3Dot@@YAMPBUD3DXVECTOR3@@0@Z
_TEXT	SEGMENT
tv188 = 8						; size = 4
_pV1$ = 8						; size = 4
_pV2$ = 12						; size = 4
?D3DXVec3Dot@@YAMPBUD3DXVECTOR3@@0@Z PROC		; D3DXVec3Dot, COMDAT

; 1736 : {

  00000	55		 push	 ebp
  00001	8b ec		 mov	 ebp, esp

; 1737 : #ifdef D3DX_DEBUG
; 1738 :     if(!pV1 || !pV2)
; 1739 :         return 0.0f;
; 1740 : #endif
; 1741 : 
; 1742 :     return pV1->x * pV2->x + pV1->y * pV2->y + pV1->z * pV2->z;

  00003	8b 45 08	 mov	 eax, DWORD PTR _pV1$[ebp]
  00006	8b 4d 0c	 mov	 ecx, DWORD PTR _pV2$[ebp]
  00009	d9 40 04	 fld	 DWORD PTR [eax+4]
  0000c	d8 49 04	 fmul	 DWORD PTR [ecx+4]
  0000f	d9 00		 fld	 DWORD PTR [eax]
  00011	d8 09		 fmul	 DWORD PTR [ecx]
  00013	de c1		 faddp	 ST(1), ST(0)
  00015	d9 40 08	 fld	 DWORD PTR [eax+8]
  00018	d8 49 08	 fmul	 DWORD PTR [ecx+8]
  0001b	de c1		 faddp	 ST(1), ST(0)
  0001d	d9 5d 08	 fstp	 DWORD PTR tv188[ebp]
  00020	d9 45 08	 fld	 DWORD PTR tv188[ebp]

; 1743 : }

  00023	5d		 pop	 ebp
  00024	c3		 ret	 0
?D3DXVec3Dot@@YAMPBUD3DXVECTOR3@@0@Z ENDP		; D3DXVec3Dot
_TEXT	ENDS
PUBLIC	?D3DXVec3Cross@@YAPAUD3DXVECTOR3@@PAU1@PBU1@1@Z	; D3DXVec3Cross
; Function compile flags: /Ogsp
;	COMDAT ?D3DXVec3Cross@@YAPAUD3DXVECTOR3@@PAU1@PBU1@1@Z
_TEXT	SEGMENT
_v$ = -12						; size = 12
_pOut$ = 8						; size = 4
_pV1$ = 12						; size = 4
_pV2$ = 16						; size = 4
?D3DXVec3Cross@@YAPAUD3DXVECTOR3@@PAU1@PBU1@1@Z PROC	; D3DXVec3Cross, COMDAT

; 1747 : {

  00000	55		 push	 ebp
  00001	8b ec		 mov	 ebp, esp
  00003	83 ec 0c	 sub	 esp, 12			; 0000000cH

; 1757 :     v.z = pV1->x * pV2->y - pV1->y * pV2->x;
; 1758 : 
; 1759 :     *pOut = v;

  00006	56		 push	 esi
  00007	57		 push	 edi

; 1748 :     D3DXVECTOR3 v;
; 1749 : 
; 1750 : #ifdef D3DX_DEBUG
; 1751 :     if(!pOut || !pV1 || !pV2)
; 1752 :         return NULL;
; 1753 : #endif
; 1754 : 
; 1755 :     v.x = pV1->y * pV2->z - pV1->z * pV2->y;

  00008	8b 45 0c	 mov	 eax, DWORD PTR _pV1$[ebp]
  0000b	f3 0f 10 40 04	 movss	 xmm0, DWORD PTR [eax+4]
  00010	f3 0f 10 50 08	 movss	 xmm2, DWORD PTR [eax+8]
  00015	8b 4d 10	 mov	 ecx, DWORD PTR _pV2$[ebp]
  00018	f3 0f 10 49 08	 movss	 xmm1, DWORD PTR [ecx+8]
  0001d	f3 0f 10 59 04	 movss	 xmm3, DWORD PTR [ecx+4]
  00022	0f 5a e8	 cvtps2pd xmm5, xmm0
  00025	0f 5a e1	 cvtps2pd xmm4, xmm1
  00028	0f 5a f2	 cvtps2pd xmm6, xmm2
  0002b	f2 0f 59 e5	 mulsd	 xmm4, xmm5

; 1756 :     v.y = pV1->z * pV2->x - pV1->x * pV2->z;

  0002f	0f 5a d2	 cvtps2pd xmm2, xmm2
  00032	0f 5a c9	 cvtps2pd xmm1, xmm1
  00035	0f 5a eb	 cvtps2pd xmm5, xmm3
  00038	f2 0f 59 ee	 mulsd	 xmm5, xmm6
  0003c	f2 0f 5c e5	 subsd	 xmm4, xmm5
  00040	f3 0f 10 28	 movss	 xmm5, DWORD PTR [eax]

; 1757 :     v.z = pV1->x * pV2->y - pV1->y * pV2->x;
; 1758 : 
; 1759 :     *pOut = v;

  00044	8b 45 08	 mov	 eax, DWORD PTR _pOut$[ebp]
  00047	66 0f 5a e4	 cvtpd2ps xmm4, xmm4
  0004b	f3 0f 11 65 f4	 movss	 DWORD PTR _v$[ebp], xmm4
  00050	f3 0f 10 21	 movss	 xmm4, DWORD PTR [ecx]
  00054	0f 5a f4	 cvtps2pd xmm6, xmm4
  00057	f2 0f 59 f2	 mulsd	 xmm6, xmm2
  0005b	0f 5a d5	 cvtps2pd xmm2, xmm5
  0005e	f2 0f 59 d1	 mulsd	 xmm2, xmm1
  00062	f2 0f 5c f2	 subsd	 xmm6, xmm2
  00066	66 0f 5a ce	 cvtpd2ps xmm1, xmm6
  0006a	f3 0f 11 4d f8	 movss	 DWORD PTR _v$[ebp+4], xmm1
  0006f	0f 5a c0	 cvtps2pd xmm0, xmm0
  00072	0f 5a d3	 cvtps2pd xmm2, xmm3
  00075	0f 5a cd	 cvtps2pd xmm1, xmm5
  00078	f2 0f 59 ca	 mulsd	 xmm1, xmm2
  0007c	8d 75 f4	 lea	 esi, DWORD PTR _v$[ebp]
  0007f	8b f8		 mov	 edi, eax
  00081	0f 5a d4	 cvtps2pd xmm2, xmm4
  00084	f2 0f 59 d0	 mulsd	 xmm2, xmm0
  00088	f2 0f 5c ca	 subsd	 xmm1, xmm2
  0008c	66 0f 5a c1	 cvtpd2ps xmm0, xmm1
  00090	f3 0f 11 45 fc	 movss	 DWORD PTR _v$[ebp+8], xmm0
  00095	a5		 movsd
  00096	a5		 movsd
  00097	a5		 movsd
  00098	5f		 pop	 edi
  00099	5e		 pop	 esi

; 1760 :     return pOut;
; 1761 : }

  0009a	c9		 leave
  0009b	c3		 ret	 0
?D3DXVec3Cross@@YAPAUD3DXVECTOR3@@PAU1@PBU1@1@Z ENDP	; D3DXVec3Cross
_TEXT	ENDS
PUBLIC	?_DECSTR@@YAXPADH@Z				; _DECSTR
; Function compile flags: /Ogsp
; File d:\lost saga for developer\youtube\tutorial\source\src\lsclient\stringprotect.h
;	COMDAT ?_DECSTR@@YAXPADH@Z
_TEXT	SEGMENT
_s$ = 8							; size = 4
_l$ = 12						; size = 4
?_DECSTR@@YAXPADH@Z PROC				; _DECSTR, COMDAT

; 40   : __forceinline void _DECSTR(char* s, int l){int i=0,l4=(l-1)/4,*p=(int*)s;s[l-1]=0;for(;i<l4;++i)*(p++)^=0xEAEBECED;for(i=l4*4;i<l-1;++i)s[i]^=0xED-i%4;}

  00000	55		 push	 ebp
  00001	8b ec		 mov	 ebp, esp
  00003	8b 4d 0c	 mov	 ecx, DWORD PTR _l$[ebp]
  00006	56		 push	 esi
  00007	8b 75 08	 mov	 esi, DWORD PTR _s$[ebp]
  0000a	57		 push	 edi
  0000b	8d 79 ff	 lea	 edi, DWORD PTR [ecx-1]
  0000e	8b c7		 mov	 eax, edi
  00010	99		 cdq
  00011	83 e2 03	 and	 edx, 3
  00014	03 c2		 add	 eax, edx
  00016	c1 f8 02	 sar	 eax, 2
  00019	8b d6		 mov	 edx, esi
  0001b	c6 44 0e ff 00	 mov	 BYTE PTR [esi+ecx-1], 0
  00020	85 c0		 test	 eax, eax
  00022	7e 0e		 jle	 SHORT $LN4@DECSTR
  00024	8b c8		 mov	 ecx, eax
$LL6@DECSTR:
  00026	81 32 ed ec eb
	ea		 xor	 DWORD PTR [edx], -353637139 ; eaebecedH
  0002c	83 c2 04	 add	 edx, 4
  0002f	49		 dec	 ecx
  00030	75 f4		 jne	 SHORT $LL6@DECSTR
$LN4@DECSTR:
  00032	c1 e0 02	 shl	 eax, 2
  00035	eb 17		 jmp	 SHORT $LN14@DECSTR
$LL3@DECSTR:
  00037	8b c8		 mov	 ecx, eax
  00039	81 e1 03 00 00
	80		 and	 ecx, -2147483645	; 80000003H
  0003f	79 05		 jns	 SHORT $LN13@DECSTR
  00041	49		 dec	 ecx
  00042	83 c9 fc	 or	 ecx, -4			; fffffffcH
  00045	41		 inc	 ecx
$LN13@DECSTR:
  00046	b2 ed		 mov	 dl, -19			; ffffffedH
  00048	2a d1		 sub	 dl, cl
  0004a	30 14 30	 xor	 BYTE PTR [eax+esi], dl
  0004d	40		 inc	 eax
$LN14@DECSTR:
  0004e	3b c7		 cmp	 eax, edi
  00050	7c e5		 jl	 SHORT $LL3@DECSTR
  00052	5f		 pop	 edi
  00053	5e		 pop	 esi
  00054	5d		 pop	 ebp
  00055	c3		 ret	 0
?_DECSTR@@YAXPADH@Z ENDP				; _DECSTR
_TEXT	ENDS
PUBLIC	?return57@@YAIXZ				; return57
; Function compile flags: /Ogsp
; File d:\lost saga for developer\youtube\tutorial\source\src\lsclient\veryoftenusedefine.h
;	COMDAT ?return57@@YAIXZ
_TEXT	SEGMENT
?return57@@YAIXZ PROC					; return57, COMDAT

; 15   : __forceinline unsigned int return57() { __asm mov eax, 57 };

  00000	b8 39 00 00 00	 mov	 eax, 57			; 00000039H
  00005	c3		 ret	 0
?return57@@YAIXZ ENDP					; return57
_TEXT	ENDS
PUBLIC	?GetGroup@ioGameEntity@@QBEPAVioEntityGroup@@XZ	; ioGameEntity::GetGroup
; Function compile flags: /Ogsp
; File d:\lost saga for developer\youtube\tutorial\source\src\lsclient\iogameentity.h
;	COMDAT ?GetGroup@ioGameEntity@@QBEPAVioEntityGroup@@XZ
_TEXT	SEGMENT
?GetGroup@ioGameEntity@@QBEPAVioEntityGroup@@XZ PROC	; ioGameEntity::GetGroup, COMDAT
; _this$ = ecx

; 166  : 	inline ioEntityGroup* GetGroup() const { return m_pGroup; }

  00000	8b 41 04	 mov	 eax, DWORD PTR [ecx+4]
  00003	c3		 ret	 0
?GetGroup@ioGameEntity@@QBEPAVioEntityGroup@@XZ ENDP	; ioGameEntity::GetGroup
_TEXT	ENDS
PUBLIC	??_R0?AVioGameEntity@@@8			; ioGameEntity `RTTI Type Descriptor'
PUBLIC	??_R0?AVioPlayEntity@@@8			; ioPlayEntity `RTTI Type Descriptor'
PUBLIC	?ToPlayEntity@@YAPAVioPlayEntity@@PAVioGameEntity@@@Z ; ToPlayEntity
EXTRN	___RTDynamicCast:PROC
;	COMDAT ??_R0?AVioGameEntity@@@8
; File d:\lost saga for developer\youtube\tutorial\source\src\lsclient\ioplayentity.h
_DATA	SEGMENT
??_R0?AVioGameEntity@@@8 DD FLAT:??_7type_info@@6B@	; ioGameEntity `RTTI Type Descriptor'
	DD	00H
	DB	'.?AVioGameEntity@@', 00H
_DATA	ENDS
;	COMDAT ??_R0?AVioPlayEntity@@@8
_DATA	SEGMENT
??_R0?AVioPlayEntity@@@8 DD FLAT:??_7type_info@@6B@	; ioPlayEntity `RTTI Type Descriptor'
	DD	00H
	DB	'.?AVioPlayEntity@@', 00H
; Function compile flags: /Ogsp
_DATA	ENDS
;	COMDAT ?ToPlayEntity@@YAPAVioPlayEntity@@PAVioGameEntity@@@Z
_TEXT	SEGMENT
_pObj$ = 8						; size = 4
?ToPlayEntity@@YAPAVioPlayEntity@@PAVioGameEntity@@@Z PROC ; ToPlayEntity, COMDAT

; 121  : {

  00000	55		 push	 ebp
  00001	8b ec		 mov	 ebp, esp
  00003	56		 push	 esi

; 122  : 	if( !pObj || pObj->GetTypeID() != ioGameEntity::GET_PLAY_ENTITY )

  00004	8b 75 08	 mov	 esi, DWORD PTR _pObj$[ebp]
  00007	85 f6		 test	 esi, esi
  00009	74 25		 je	 SHORT $LN1@ToPlayEnti
  0000b	8b 06		 mov	 eax, DWORD PTR [esi]
  0000d	8b ce		 mov	 ecx, esi
  0000f	ff 50 10	 call	 DWORD PTR [eax+16]
  00012	83 f8 01	 cmp	 eax, 1
  00015	75 19		 jne	 SHORT $LN1@ToPlayEnti

; 124  : 
; 125  : 	return dynamic_cast< ioPlayEntity* >( pObj );

  00017	6a 00		 push	 0
  00019	68 00 00 00 00	 push	 OFFSET ??_R0?AVioPlayEntity@@@8
  0001e	68 00 00 00 00	 push	 OFFSET ??_R0?AVioGameEntity@@@8
  00023	6a 00		 push	 0
  00025	56		 push	 esi
  00026	e8 00 00 00 00	 call	 ___RTDynamicCast
  0002b	83 c4 14	 add	 esp, 20			; 00000014H
  0002e	eb 02		 jmp	 SHORT $LN3@ToPlayEnti
$LN1@ToPlayEnti:

; 123  : 		return NULL;

  00030	33 c0		 xor	 eax, eax
$LN3@ToPlayEnti:
  00032	5e		 pop	 esi

; 126  : }

  00033	5d		 pop	 ebp
  00034	c3		 ret	 0
?ToPlayEntity@@YAPAVioPlayEntity@@PAVioGameEntity@@@Z ENDP ; ToPlayEntity
_TEXT	ENDS
PUBLIC	?GetEffect@ioMapEffect@@QBEPAVioEffect@@XZ	; ioMapEffect::GetEffect
; Function compile flags: /Ogsp
; File d:\lost saga for developer\youtube\tutorial\source\src\lsclient\iomapeffect.h
;	COMDAT ?GetEffect@ioMapEffect@@QBEPAVioEffect@@XZ
_TEXT	SEGMENT
?GetEffect@ioMapEffect@@QBEPAVioEffect@@XZ PROC		; ioMapEffect::GetEffect, COMDAT
; _this$ = ecx

; 40   : 	inline ioEffect* GetEffect() const { return m_pEffect; }

  00000	8b 41 04	 mov	 eax, DWORD PTR [ecx+4]
  00003	c3		 ret	 0
?GetEffect@ioMapEffect@@QBEPAVioEffect@@XZ ENDP		; ioMapEffect::GetEffect
_TEXT	ENDS
PUBLIC	??_R0?AVioDummyChar@@@8				; ioDummyChar `RTTI Type Descriptor'
PUBLIC	?ToDummyChar@@YAPAVioDummyChar@@PAVioGameEntity@@@Z ; ToDummyChar
;	COMDAT ??_R0?AVioDummyChar@@@8
; File d:\lost saga for developer\youtube\tutorial\source\src\lsclient\iodummychar.h
_DATA	SEGMENT
??_R0?AVioDummyChar@@@8 DD FLAT:??_7type_info@@6B@	; ioDummyChar `RTTI Type Descriptor'
	DD	00H
	DB	'.?AVioDummyChar@@', 00H
; Function compile flags: /Ogsp
_DATA	ENDS
;	COMDAT ?ToDummyChar@@YAPAVioDummyChar@@PAVioGameEntity@@@Z
_TEXT	SEGMENT
_pObj$ = 8						; size = 4
?ToDummyChar@@YAPAVioDummyChar@@PAVioGameEntity@@@Z PROC ; ToDummyChar, COMDAT

; 758  : {

  00000	55		 push	 ebp
  00001	8b ec		 mov	 ebp, esp
  00003	56		 push	 esi

; 759  : 	ioPlayEntity *pPlay = ToPlayEntity( pObj );

  00004	ff 75 08	 push	 DWORD PTR _pObj$[ebp]
  00007	e8 00 00 00 00	 call	 ?ToPlayEntity@@YAPAVioPlayEntity@@PAVioGameEntity@@@Z ; ToPlayEntity
  0000c	8b f0		 mov	 esi, eax
  0000e	59		 pop	 ecx

; 760  : 	if( !pPlay || pPlay->GetSubType() != ioPlayEntity::PST_DUMMY_CHAR )

  0000f	85 f6		 test	 esi, esi
  00011	74 28		 je	 SHORT $LN1@ToDummyCha
  00013	8b 06		 mov	 eax, DWORD PTR [esi]
  00015	8b ce		 mov	 ecx, esi
  00017	ff 90 a4 00 00
	00		 call	 DWORD PTR [eax+164]
  0001d	83 f8 0a	 cmp	 eax, 10			; 0000000aH
  00020	75 19		 jne	 SHORT $LN1@ToDummyCha

; 762  : 
; 763  : 	return dynamic_cast< ioDummyChar* >( pPlay );

  00022	6a 00		 push	 0
  00024	68 00 00 00 00	 push	 OFFSET ??_R0?AVioDummyChar@@@8
  00029	68 00 00 00 00	 push	 OFFSET ??_R0?AVioPlayEntity@@@8
  0002e	6a 00		 push	 0
  00030	56		 push	 esi
  00031	e8 00 00 00 00	 call	 ___RTDynamicCast
  00036	83 c4 14	 add	 esp, 20			; 00000014H
  00039	eb 02		 jmp	 SHORT $LN3@ToDummyCha
$LN1@ToDummyCha:

; 761  : 		return NULL;

  0003b	33 c0		 xor	 eax, eax
$LN3@ToDummyCha:
  0003d	5e		 pop	 esi

; 764  : }

  0003e	5d		 pop	 ebp
  0003f	c3		 ret	 0
?ToDummyChar@@YAPAVioDummyChar@@PAVioGameEntity@@@Z ENDP ; ToDummyChar
_TEXT	ENDS
PUBLIC	??0ChangeDirInfo@@QAE@XZ			; ChangeDirInfo::ChangeDirInfo
EXTRN	__imp_?VEC3_ZERO@ioMath@@2UD3DXVECTOR3@@A:BYTE
; Function compile flags: /Ogsp
; File d:\lost saga for developer\youtube\tutorial\source\src\lsclient\ioweapon.h
;	COMDAT ??0ChangeDirInfo@@QAE@XZ
_TEXT	SEGMENT
??0ChangeDirInfo@@QAE@XZ PROC				; ChangeDirInfo::ChangeDirInfo, COMDAT
; _this$ = ecx

; 34   : 	{
; 35   : 		m_fChangeRange	= 0.0f;

  00000	0f 57 c0	 xorps	 xmm0, xmm0
  00003	56		 push	 esi
  00004	8b c1		 mov	 eax, ecx
  00006	57		 push	 edi
  00007	f3 0f 11 00	 movss	 DWORD PTR [eax], xmm0

; 36   : 		m_fChangeSpeed	= 0.0f;

  0000b	f3 0f 11 40 04	 movss	 DWORD PTR [eax+4], xmm0

; 37   : 		m_fChangeAngleH	= 0.0f;

  00010	f3 0f 11 40 08	 movss	 DWORD PTR [eax+8], xmm0

; 38   : 		m_fChangeAngleV	= 0.0f;

  00015	f3 0f 11 40 0c	 movss	 DWORD PTR [eax+12], xmm0

; 39   : 		m_vFireOffset	= ioMath::VEC3_ZERO;

  0001a	8b 35 00 00 00
	00		 mov	 esi, DWORD PTR __imp_?VEC3_ZERO@ioMath@@2UD3DXVECTOR3@@A
  00020	8d 78 10	 lea	 edi, DWORD PTR [eax+16]
  00023	a5		 movsd
  00024	a5		 movsd
  00025	a5		 movsd
  00026	5f		 pop	 edi
  00027	5e		 pop	 esi

; 40   : 	}

  00028	c3		 ret	 0
??0ChangeDirInfo@@QAE@XZ ENDP				; ChangeDirInfo::ChangeDirInfo
_TEXT	ENDS
PUBLIC	??RChangeDirSort@@QBE_NABUChangeDirInfo@@0@Z	; ChangeDirSort::operator()
; Function compile flags: /Ogsp
;	COMDAT ??RChangeDirSort@@QBE_NABUChangeDirInfo@@0@Z
_TEXT	SEGMENT
_lhs$ = 8						; size = 4
_rhs$ = 12						; size = 4
??RChangeDirSort@@QBE_NABUChangeDirInfo@@0@Z PROC	; ChangeDirSort::operator(), COMDAT
; _this$ = ecx

; 49   : 	{

  00000	55		 push	 ebp
  00001	8b ec		 mov	 ebp, esp

; 50   : 		if( lhs.m_fChangeRange < rhs.m_fChangeRange )

  00003	8b 4d 08	 mov	 ecx, DWORD PTR _lhs$[ebp]
  00006	8b 55 0c	 mov	 edx, DWORD PTR _rhs$[ebp]
  00009	f3 0f 10 01	 movss	 xmm0, DWORD PTR [ecx]
  0000d	f3 0f 10 0a	 movss	 xmm1, DWORD PTR [edx]
  00011	0f 5a d0	 cvtps2pd xmm2, xmm0
  00014	0f 5a d9	 cvtps2pd xmm3, xmm1
  00017	66 0f 2f da	 comisd	 xmm3, xmm2
  0001b	76 04		 jbe	 SHORT $LN4@operator@2
$LN7@operator@2:

; 51   : 		{
; 52   : 			return true;

  0001d	b0 01		 mov	 al, 1
  0001f	eb 28		 jmp	 SHORT $LN5@operator@2
$LN4@operator@2:

; 53   : 		}
; 54   : 		else if( lhs.m_fChangeRange == rhs.m_fChangeRange )

  00021	0f 5a c0	 cvtps2pd xmm0, xmm0
  00024	0f 5a c9	 cvtps2pd xmm1, xmm1
  00027	66 0f 2e c1	 ucomisd xmm0, xmm1
  0002b	9f		 lahf
  0002c	f6 c4 44	 test	 ah, 68			; 00000044H
  0002f	7a 16		 jp	 SHORT $LN1@operator@2

; 55   : 		{
; 56   : 			if( lhs.m_fChangeAngleV < rhs.m_fChangeAngleV )

  00031	f3 0f 10 41 0c	 movss	 xmm0, DWORD PTR [ecx+12]
  00036	f3 0f 10 4a 0c	 movss	 xmm1, DWORD PTR [edx+12]
  0003b	0f 5a c0	 cvtps2pd xmm0, xmm0
  0003e	0f 5a c9	 cvtps2pd xmm1, xmm1
  00041	66 0f 2f c8	 comisd	 xmm1, xmm0

; 57   : 				return true;

  00045	77 d6		 ja	 SHORT $LN7@operator@2
$LN1@operator@2:

; 58   : 		}
; 59   : 		return false;

  00047	32 c0		 xor	 al, al
$LN5@operator@2:

; 60   : 	}

  00049	5d		 pop	 ebp
  0004a	c2 08 00	 ret	 8
??RChangeDirSort@@QBE_NABUChangeDirInfo@@0@Z ENDP	; ChangeDirSort::operator()
_TEXT	ENDS
PUBLIC	?IsLive@ioWeapon@@QBE_NXZ			; ioWeapon::IsLive
; Function compile flags: /Ogsp
;	COMDAT ?IsLive@ioWeapon@@QBE_NXZ
_TEXT	SEGMENT
?IsLive@ioWeapon@@QBE_NXZ PROC				; ioWeapon::IsLive, COMDAT
; _this$ = ecx

; 533  : 	inline bool IsLive() const { return m_bLive; }

  00000	8a 81 82 05 00
	00		 mov	 al, BYTE PTR [ecx+1410]
  00006	c3		 ret	 0
?IsLive@ioWeapon@@QBE_NXZ ENDP				; ioWeapon::IsLive
_TEXT	ENDS
PUBLIC	?GetOwnerName@ioWeapon@@QBEABVioHashString@@XZ	; ioWeapon::GetOwnerName
; Function compile flags: /Ogsp
;	COMDAT ?GetOwnerName@ioWeapon@@QBEABVioHashString@@XZ
_TEXT	SEGMENT
?GetOwnerName@ioWeapon@@QBEABVioHashString@@XZ PROC	; ioWeapon::GetOwnerName, COMDAT
; _this$ = ecx

; 636  : 	inline const ioHashString& GetOwnerName() const { return m_OwnerName; }

  00000	8d 41 10	 lea	 eax, DWORD PTR [ecx+16]
  00003	c3		 ret	 0
?GetOwnerName@ioWeapon@@QBEABVioHashString@@XZ ENDP	; ioWeapon::GetOwnerName
_TEXT	ENDS
PUBLIC	?GetParentSceneNode@ioWeapon@@QBEPAVioSceneNode@@XZ ; ioWeapon::GetParentSceneNode
; Function compile flags: /Ogsp
;	COMDAT ?GetParentSceneNode@ioWeapon@@QBEPAVioSceneNode@@XZ
_TEXT	SEGMENT
?GetParentSceneNode@ioWeapon@@QBEPAVioSceneNode@@XZ PROC ; ioWeapon::GetParentSceneNode, COMDAT
; _this$ = ecx

; 797  : 	ioSceneNode* GetParentSceneNode() const { return m_pSceneNode; }

  00000	8b 41 04	 mov	 eax, DWORD PTR [ecx+4]
  00003	c3		 ret	 0
?GetParentSceneNode@ioWeapon@@QBEPAVioSceneNode@@XZ ENDP ; ioWeapon::GetParentSceneNode
_TEXT	ENDS
PUBLIC	??_R0?AVioWallZone@@@8				; ioWallZone `RTTI Type Descriptor'
PUBLIC	?ToWallZone@@YAPAVioWallZone@@PAVioGameEntity@@@Z ; ToWallZone
;	COMDAT ??_R0?AVioWallZone@@@8
; File d:\lost saga for developer\youtube\tutorial\source\src\lsclient\iowallzone.h
_DATA	SEGMENT
??_R0?AVioWallZone@@@8 DD FLAT:??_7type_info@@6B@	; ioWallZone `RTTI Type Descriptor'
	DD	00H
	DB	'.?AVioWallZone@@', 00H
; Function compile flags: /Ogsp
_DATA	ENDS
;	COMDAT ?ToWallZone@@YAPAVioWallZone@@PAVioGameEntity@@@Z
_TEXT	SEGMENT
_pObj$ = 8						; size = 4
?ToWallZone@@YAPAVioWallZone@@PAVioGameEntity@@@Z PROC	; ToWallZone, COMDAT

; 50   : {

  00000	55		 push	 ebp
  00001	8b ec		 mov	 ebp, esp
  00003	56		 push	 esi

; 51   : 	ioPlayEntity *pPlay = ToPlayEntity( pObj );

  00004	ff 75 08	 push	 DWORD PTR _pObj$[ebp]
  00007	e8 00 00 00 00	 call	 ?ToPlayEntity@@YAPAVioPlayEntity@@PAVioGameEntity@@@Z ; ToPlayEntity
  0000c	8b f0		 mov	 esi, eax
  0000e	59		 pop	 ecx

; 52   : 	if( !pPlay || pPlay->GetSubType() != ioPlayEntity::PST_WALL_ZONE )

  0000f	85 f6		 test	 esi, esi
  00011	74 28		 je	 SHORT $LN1@ToWallZone
  00013	8b 06		 mov	 eax, DWORD PTR [esi]
  00015	8b ce		 mov	 ecx, esi
  00017	ff 90 a4 00 00
	00		 call	 DWORD PTR [eax+164]
  0001d	83 f8 0b	 cmp	 eax, 11			; 0000000bH
  00020	75 19		 jne	 SHORT $LN1@ToWallZone

; 54   : 
; 55   : 	return dynamic_cast< ioWallZone* >( pPlay );

  00022	6a 00		 push	 0
  00024	68 00 00 00 00	 push	 OFFSET ??_R0?AVioWallZone@@@8
  00029	68 00 00 00 00	 push	 OFFSET ??_R0?AVioPlayEntity@@@8
  0002e	6a 00		 push	 0
  00030	56		 push	 esi
  00031	e8 00 00 00 00	 call	 ___RTDynamicCast
  00036	83 c4 14	 add	 esp, 20			; 00000014H
  00039	eb 02		 jmp	 SHORT $LN3@ToWallZone
$LN1@ToWallZone:

; 53   : 		return NULL;

  0003b	33 c0		 xor	 eax, eax
$LN3@ToWallZone:
  0003d	5e		 pop	 esi

; 56   : }

  0003e	5d		 pop	 ebp
  0003f	c3		 ret	 0
?ToWallZone@@YAPAVioWallZone@@PAVioGameEntity@@@Z ENDP	; ToWallZone
_TEXT	ENDS
PUBLIC	??_R0?AVioSymbolStruct@@@8			; ioSymbolStruct `RTTI Type Descriptor'
PUBLIC	?ToSymbolStruct@@YAPAVioSymbolStruct@@PAVioGameEntity@@@Z ; ToSymbolStruct
;	COMDAT ??_R0?AVioSymbolStruct@@@8
; File d:\lost saga for developer\youtube\tutorial\source\src\lsclient\iosymbolstruct.h
_DATA	SEGMENT
??_R0?AVioSymbolStruct@@@8 DD FLAT:??_7type_info@@6B@	; ioSymbolStruct `RTTI Type Descriptor'
	DD	00H
	DB	'.?AVioSymbolStruct@@', 00H
; Function compile flags: /Ogsp
_DATA	ENDS
;	COMDAT ?ToSymbolStruct@@YAPAVioSymbolStruct@@PAVioGameEntity@@@Z
_TEXT	SEGMENT
_pObj$ = 8						; size = 4
?ToSymbolStruct@@YAPAVioSymbolStruct@@PAVioGameEntity@@@Z PROC ; ToSymbolStruct, COMDAT

; 171  : {

  00000	55		 push	 ebp
  00001	8b ec		 mov	 ebp, esp
  00003	56		 push	 esi

; 172  : 	ioPlayEntity *pPlay = ToPlayEntity( pObj );

  00004	ff 75 08	 push	 DWORD PTR _pObj$[ebp]
  00007	e8 00 00 00 00	 call	 ?ToPlayEntity@@YAPAVioPlayEntity@@PAVioGameEntity@@@Z ; ToPlayEntity
  0000c	8b f0		 mov	 esi, eax
  0000e	59		 pop	 ecx

; 173  : 	if( !pPlay || pPlay->GetSubType() != ioPlayEntity::PST_SYMBOL )

  0000f	85 f6		 test	 esi, esi
  00011	74 28		 je	 SHORT $LN1@ToSymbolSt
  00013	8b 06		 mov	 eax, DWORD PTR [esi]
  00015	8b ce		 mov	 ecx, esi
  00017	ff 90 a4 00 00
	00		 call	 DWORD PTR [eax+164]
  0001d	83 f8 01	 cmp	 eax, 1
  00020	75 19		 jne	 SHORT $LN1@ToSymbolSt

; 175  : 
; 176  : 	return dynamic_cast< ioSymbolStruct* >( pPlay );

  00022	6a 00		 push	 0
  00024	68 00 00 00 00	 push	 OFFSET ??_R0?AVioSymbolStruct@@@8
  00029	68 00 00 00 00	 push	 OFFSET ??_R0?AVioPlayEntity@@@8
  0002e	6a 00		 push	 0
  00030	56		 push	 esi
  00031	e8 00 00 00 00	 call	 ___RTDynamicCast
  00036	83 c4 14	 add	 esp, 20			; 00000014H
  00039	eb 02		 jmp	 SHORT $LN3@ToSymbolSt
$LN1@ToSymbolSt:

; 174  : 		return NULL;

  0003b	33 c0		 xor	 eax, eax
$LN3@ToSymbolSt:
  0003d	5e		 pop	 esi

; 177  : }

  0003e	5d		 pop	 ebp
  0003f	c3		 ret	 0
?ToSymbolStruct@@YAPAVioSymbolStruct@@PAVioGameEntity@@@Z ENDP ; ToSymbolStruct
_TEXT	ENDS
PUBLIC	??_R0?AVioBall@@@8				; ioBall `RTTI Type Descriptor'
PUBLIC	?ToBallStruct@@YAPAVioBall@@PAVioGameEntity@@@Z	; ToBallStruct
;	COMDAT ??_R0?AVioBall@@@8
; File d:\lost saga for developer\youtube\tutorial\source\src\lsclient\ioball.h
_DATA	SEGMENT
??_R0?AVioBall@@@8 DD FLAT:??_7type_info@@6B@		; ioBall `RTTI Type Descriptor'
	DD	00H
	DB	'.?AVioBall@@', 00H
; Function compile flags: /Ogsp
_DATA	ENDS
;	COMDAT ?ToBallStruct@@YAPAVioBall@@PAVioGameEntity@@@Z
_TEXT	SEGMENT
_pObj$ = 8						; size = 4
?ToBallStruct@@YAPAVioBall@@PAVioGameEntity@@@Z PROC	; ToBallStruct, COMDAT

; 252  : {

  00000	55		 push	 ebp
  00001	8b ec		 mov	 ebp, esp
  00003	56		 push	 esi

; 253  : 	ioPlayEntity *pPlay = ToPlayEntity( pObj );

  00004	ff 75 08	 push	 DWORD PTR _pObj$[ebp]
  00007	e8 00 00 00 00	 call	 ?ToPlayEntity@@YAPAVioPlayEntity@@PAVioGameEntity@@@Z ; ToPlayEntity
  0000c	8b f0		 mov	 esi, eax
  0000e	59		 pop	 ecx

; 254  : 	if( !pPlay || pPlay->GetSubType() != ioPlayEntity::PST_BALL )

  0000f	85 f6		 test	 esi, esi
  00011	74 28		 je	 SHORT $LN1@ToBallStru
  00013	8b 06		 mov	 eax, DWORD PTR [esi]
  00015	8b ce		 mov	 ecx, esi
  00017	ff 90 a4 00 00
	00		 call	 DWORD PTR [eax+164]
  0001d	83 f8 08	 cmp	 eax, 8
  00020	75 19		 jne	 SHORT $LN1@ToBallStru

; 256  : 
; 257  : 	return dynamic_cast< ioBall* >( pPlay );

  00022	6a 00		 push	 0
  00024	68 00 00 00 00	 push	 OFFSET ??_R0?AVioBall@@@8
  00029	68 00 00 00 00	 push	 OFFSET ??_R0?AVioPlayEntity@@@8
  0002e	6a 00		 push	 0
  00030	56		 push	 esi
  00031	e8 00 00 00 00	 call	 ___RTDynamicCast
  00036	83 c4 14	 add	 esp, 20			; 00000014H
  00039	eb 02		 jmp	 SHORT $LN3@ToBallStru
$LN1@ToBallStru:

; 255  : 		return NULL;

  0003b	33 c0		 xor	 eax, eax
$LN3@ToBallStru:
  0003d	5e		 pop	 esi

; 258  : }

  0003e	5d		 pop	 ebp
  0003f	c3		 ret	 0
?ToBallStruct@@YAPAVioBall@@PAVioGameEntity@@@Z ENDP	; ToBallStruct
_TEXT	ENDS
PUBLIC	??_R0?AVioPushStruct@@@8			; ioPushStruct `RTTI Type Descriptor'
PUBLIC	?ToPushStruct@@YAPAVioPushStruct@@PAVioGameEntity@@@Z ; ToPushStruct
;	COMDAT ??_R0?AVioPushStruct@@@8
; File d:\lost saga for developer\youtube\tutorial\source\src\lsclient\iopushstruct.h
_DATA	SEGMENT
??_R0?AVioPushStruct@@@8 DD FLAT:??_7type_info@@6B@	; ioPushStruct `RTTI Type Descriptor'
	DD	00H
	DB	'.?AVioPushStruct@@', 00H
; Function compile flags: /Ogsp
_DATA	ENDS
;	COMDAT ?ToPushStruct@@YAPAVioPushStruct@@PAVioGameEntity@@@Z
_TEXT	SEGMENT
_pObj$ = 8						; size = 4
?ToPushStruct@@YAPAVioPushStruct@@PAVioGameEntity@@@Z PROC ; ToPushStruct, COMDAT

; 440  : {

  00000	55		 push	 ebp
  00001	8b ec		 mov	 ebp, esp
  00003	56		 push	 esi

; 441  : 	ioPlayEntity *pPlay = ToPlayEntity( pObj );

  00004	ff 75 08	 push	 DWORD PTR _pObj$[ebp]
  00007	e8 00 00 00 00	 call	 ?ToPlayEntity@@YAPAVioPlayEntity@@PAVioGameEntity@@@Z ; ToPlayEntity
  0000c	8b f0		 mov	 esi, eax
  0000e	59		 pop	 ecx

; 442  : 	if( !pPlay || pPlay->GetSubType() != ioPlayEntity::PST_PUSHSTRUCT )

  0000f	85 f6		 test	 esi, esi
  00011	74 28		 je	 SHORT $LN1@ToPushStru
  00013	8b 06		 mov	 eax, DWORD PTR [esi]
  00015	8b ce		 mov	 ecx, esi
  00017	ff 90 a4 00 00
	00		 call	 DWORD PTR [eax+164]
  0001d	83 f8 02	 cmp	 eax, 2
  00020	75 19		 jne	 SHORT $LN1@ToPushStru

; 444  : 
; 445  : 	return dynamic_cast< ioPushStruct* >( pPlay );

  00022	6a 00		 push	 0
  00024	68 00 00 00 00	 push	 OFFSET ??_R0?AVioPushStruct@@@8
  00029	68 00 00 00 00	 push	 OFFSET ??_R0?AVioPlayEntity@@@8
  0002e	6a 00		 push	 0
  00030	56		 push	 esi
  00031	e8 00 00 00 00	 call	 ___RTDynamicCast
  00036	83 c4 14	 add	 esp, 20			; 00000014H
  00039	eb 02		 jmp	 SHORT $LN3@ToPushStru
$LN1@ToPushStru:

; 443  : 		return NULL;

  0003b	33 c0		 xor	 eax, eax
$LN3@ToPushStru:
  0003d	5e		 pop	 esi

; 446  : }

  0003e	5d		 pop	 ebp
  0003f	c3		 ret	 0
?ToPushStruct@@YAPAVioPushStruct@@PAVioGameEntity@@@Z ENDP ; ToPushStruct
_TEXT	ENDS
PUBLIC	??_7?$CEncrypt@M@@6B@				; CEncrypt<float>::`vftable'
PUBLIC	??1?$CEncrypt@M@@UAE@XZ				; CEncrypt<float>::~CEncrypt<float>
PUBLIC	??_R4?$CEncrypt@M@@6B@				; CEncrypt<float>::`RTTI Complete Object Locator'
PUBLIC	??_R0?AV?$CEncrypt@M@@@8			; CEncrypt<float> `RTTI Type Descriptor'
PUBLIC	??_R3?$CEncrypt@M@@8				; CEncrypt<float>::`RTTI Class Hierarchy Descriptor'
PUBLIC	??_R2?$CEncrypt@M@@8				; CEncrypt<float>::`RTTI Base Class Array'
PUBLIC	??_R1A@?0A@EA@?$CEncrypt@M@@8			; CEncrypt<float>::`RTTI Base Class Descriptor at (0,-1,0,64)'
EXTRN	??1ccddaabb@@UAE@XZ:PROC			; ccddaabb::~ccddaabb
EXTRN	??_E?$CEncrypt@M@@UAEPAXI@Z:PROC		; CEncrypt<float>::`vector deleting destructor'
;	COMDAT ??_R1A@?0A@EA@?$CEncrypt@M@@8
; File d:\lost saga for developer\youtube\tutorial\source\src\lsclient\encryptvalue.h
rdata$r	SEGMENT
??_R1A@?0A@EA@?$CEncrypt@M@@8 DD FLAT:??_R0?AV?$CEncrypt@M@@@8 ; CEncrypt<float>::`RTTI Base Class Descriptor at (0,-1,0,64)'
	DD	00H
	DD	00H
	DD	0ffffffffH
	DD	00H
	DD	040H
	DD	FLAT:??_R3?$CEncrypt@M@@8
rdata$r	ENDS
;	COMDAT ??_R2?$CEncrypt@M@@8
rdata$r	SEGMENT
??_R2?$CEncrypt@M@@8 DD FLAT:??_R1A@?0A@EA@?$CEncrypt@M@@8 ; CEncrypt<float>::`RTTI Base Class Array'
rdata$r	ENDS
;	COMDAT ??_R3?$CEncrypt@M@@8
rdata$r	SEGMENT
??_R3?$CEncrypt@M@@8 DD 00H				; CEncrypt<float>::`RTTI Class Hierarchy Descriptor'
	DD	00H
	DD	01H
	DD	FLAT:??_R2?$CEncrypt@M@@8
rdata$r	ENDS
;	COMDAT ??_R0?AV?$CEncrypt@M@@@8
_DATA	SEGMENT
??_R0?AV?$CEncrypt@M@@@8 DD FLAT:??_7type_info@@6B@	; CEncrypt<float> `RTTI Type Descriptor'
	DD	00H
	DB	'.?AV?$CEncrypt@M@@', 00H
_DATA	ENDS
;	COMDAT ??_R4?$CEncrypt@M@@6B@
rdata$r	SEGMENT
??_R4?$CEncrypt@M@@6B@ DD 00H				; CEncrypt<float>::`RTTI Complete Object Locator'
	DD	00H
	DD	00H
	DD	FLAT:??_R0?AV?$CEncrypt@M@@@8
	DD	FLAT:??_R3?$CEncrypt@M@@8
rdata$r	ENDS
;	COMDAT ??_7?$CEncrypt@M@@6B@
CONST	SEGMENT
??_7?$CEncrypt@M@@6B@ DD FLAT:??_R4?$CEncrypt@M@@6B@	; CEncrypt<float>::`vftable'
	DD	FLAT:??_E?$CEncrypt@M@@UAEPAXI@Z
; Function compile flags: /Ogsp
CONST	ENDS
;	COMDAT ??1?$CEncrypt@M@@UAE@XZ
_TEXT	SEGMENT
??1?$CEncrypt@M@@UAE@XZ PROC				; CEncrypt<float>::~CEncrypt<float>, COMDAT
; _this$ = ecx

; 127  : 	{

  00000	c7 01 00 00 00
	00		 mov	 DWORD PTR [ecx], OFFSET ??_7?$CEncrypt@M@@6B@

; 128  : 	}

  00006	83 c1 0c	 add	 ecx, 12			; 0000000cH
  00009	e9 00 00 00 00	 jmp	 ??1ccddaabb@@UAE@XZ	; ccddaabb::~ccddaabb
??1?$CEncrypt@M@@UAE@XZ ENDP				; CEncrypt<float>::~CEncrypt<float>
_TEXT	ENDS
PUBLIC	??_7?$CEncrypt@K@@6B@				; CEncrypt<unsigned long>::`vftable'
PUBLIC	??1?$CEncrypt@K@@UAE@XZ				; CEncrypt<unsigned long>::~CEncrypt<unsigned long>
PUBLIC	??_R4?$CEncrypt@K@@6B@				; CEncrypt<unsigned long>::`RTTI Complete Object Locator'
PUBLIC	??_R0?AV?$CEncrypt@K@@@8			; CEncrypt<unsigned long> `RTTI Type Descriptor'
PUBLIC	??_R3?$CEncrypt@K@@8				; CEncrypt<unsigned long>::`RTTI Class Hierarchy Descriptor'
PUBLIC	??_R2?$CEncrypt@K@@8				; CEncrypt<unsigned long>::`RTTI Base Class Array'
PUBLIC	??_R1A@?0A@EA@?$CEncrypt@K@@8			; CEncrypt<unsigned long>::`RTTI Base Class Descriptor at (0,-1,0,64)'
EXTRN	??_E?$CEncrypt@K@@UAEPAXI@Z:PROC		; CEncrypt<unsigned long>::`vector deleting destructor'
;	COMDAT ??_R1A@?0A@EA@?$CEncrypt@K@@8
rdata$r	SEGMENT
??_R1A@?0A@EA@?$CEncrypt@K@@8 DD FLAT:??_R0?AV?$CEncrypt@K@@@8 ; CEncrypt<unsigned long>::`RTTI Base Class Descriptor at (0,-1,0,64)'
	DD	00H
	DD	00H
	DD	0ffffffffH
	DD	00H
	DD	040H
	DD	FLAT:??_R3?$CEncrypt@K@@8
rdata$r	ENDS
;	COMDAT ??_R2?$CEncrypt@K@@8
rdata$r	SEGMENT
??_R2?$CEncrypt@K@@8 DD FLAT:??_R1A@?0A@EA@?$CEncrypt@K@@8 ; CEncrypt<unsigned long>::`RTTI Base Class Array'
rdata$r	ENDS
;	COMDAT ??_R3?$CEncrypt@K@@8
rdata$r	SEGMENT
??_R3?$CEncrypt@K@@8 DD 00H				; CEncrypt<unsigned long>::`RTTI Class Hierarchy Descriptor'
	DD	00H
	DD	01H
	DD	FLAT:??_R2?$CEncrypt@K@@8
rdata$r	ENDS
;	COMDAT ??_R0?AV?$CEncrypt@K@@@8
_DATA	SEGMENT
??_R0?AV?$CEncrypt@K@@@8 DD FLAT:??_7type_info@@6B@	; CEncrypt<unsigned long> `RTTI Type Descriptor'
	DD	00H
	DB	'.?AV?$CEncrypt@K@@', 00H
_DATA	ENDS
;	COMDAT ??_R4?$CEncrypt@K@@6B@
rdata$r	SEGMENT
??_R4?$CEncrypt@K@@6B@ DD 00H				; CEncrypt<unsigned long>::`RTTI Complete Object Locator'
	DD	00H
	DD	00H
	DD	FLAT:??_R0?AV?$CEncrypt@K@@@8
	DD	FLAT:??_R3?$CEncrypt@K@@8
rdata$r	ENDS
;	COMDAT ??_7?$CEncrypt@K@@6B@
CONST	SEGMENT
??_7?$CEncrypt@K@@6B@ DD FLAT:??_R4?$CEncrypt@K@@6B@	; CEncrypt<unsigned long>::`vftable'
	DD	FLAT:??_E?$CEncrypt@K@@UAEPAXI@Z
; Function compile flags: /Ogsp
CONST	ENDS
;	COMDAT ??1?$CEncrypt@K@@UAE@XZ
_TEXT	SEGMENT
??1?$CEncrypt@K@@UAE@XZ PROC				; CEncrypt<unsigned long>::~CEncrypt<unsigned long>, COMDAT
; _this$ = ecx

; 127  : 	{

  00000	c7 01 00 00 00
	00		 mov	 DWORD PTR [ecx], OFFSET ??_7?$CEncrypt@K@@6B@

; 128  : 	}

  00006	83 c1 0c	 add	 ecx, 12			; 0000000cH
  00009	e9 00 00 00 00	 jmp	 ??1ccddaabb@@UAE@XZ	; ccddaabb::~ccddaabb
??1?$CEncrypt@K@@UAE@XZ ENDP				; CEncrypt<unsigned long>::~CEncrypt<unsigned long>
_TEXT	ENDS
PUBLIC	??_7?$CEncrypt@_N@@6B@				; CEncrypt<bool>::`vftable'
PUBLIC	??1?$CEncrypt@_N@@UAE@XZ			; CEncrypt<bool>::~CEncrypt<bool>
PUBLIC	??_R4?$CEncrypt@_N@@6B@				; CEncrypt<bool>::`RTTI Complete Object Locator'
PUBLIC	??_R0?AV?$CEncrypt@_N@@@8			; CEncrypt<bool> `RTTI Type Descriptor'
PUBLIC	??_R3?$CEncrypt@_N@@8				; CEncrypt<bool>::`RTTI Class Hierarchy Descriptor'
PUBLIC	??_R2?$CEncrypt@_N@@8				; CEncrypt<bool>::`RTTI Base Class Array'
PUBLIC	??_R1A@?0A@EA@?$CEncrypt@_N@@8			; CEncrypt<bool>::`RTTI Base Class Descriptor at (0,-1,0,64)'
EXTRN	??_E?$CEncrypt@_N@@UAEPAXI@Z:PROC		; CEncrypt<bool>::`vector deleting destructor'
;	COMDAT ??_R1A@?0A@EA@?$CEncrypt@_N@@8
rdata$r	SEGMENT
??_R1A@?0A@EA@?$CEncrypt@_N@@8 DD FLAT:??_R0?AV?$CEncrypt@_N@@@8 ; CEncrypt<bool>::`RTTI Base Class Descriptor at (0,-1,0,64)'
	DD	00H
	DD	00H
	DD	0ffffffffH
	DD	00H
	DD	040H
	DD	FLAT:??_R3?$CEncrypt@_N@@8
rdata$r	ENDS
;	COMDAT ??_R2?$CEncrypt@_N@@8
rdata$r	SEGMENT
??_R2?$CEncrypt@_N@@8 DD FLAT:??_R1A@?0A@EA@?$CEncrypt@_N@@8 ; CEncrypt<bool>::`RTTI Base Class Array'
rdata$r	ENDS
;	COMDAT ??_R3?$CEncrypt@_N@@8
rdata$r	SEGMENT
??_R3?$CEncrypt@_N@@8 DD 00H				; CEncrypt<bool>::`RTTI Class Hierarchy Descriptor'
	DD	00H
	DD	01H
	DD	FLAT:??_R2?$CEncrypt@_N@@8
rdata$r	ENDS
;	COMDAT ??_R0?AV?$CEncrypt@_N@@@8
_DATA	SEGMENT
??_R0?AV?$CEncrypt@_N@@@8 DD FLAT:??_7type_info@@6B@	; CEncrypt<bool> `RTTI Type Descriptor'
	DD	00H
	DB	'.?AV?$CEncrypt@_N@@', 00H
_DATA	ENDS
;	COMDAT ??_R4?$CEncrypt@_N@@6B@
rdata$r	SEGMENT
??_R4?$CEncrypt@_N@@6B@ DD 00H				; CEncrypt<bool>::`RTTI Complete Object Locator'
	DD	00H
	DD	00H
	DD	FLAT:??_R0?AV?$CEncrypt@_N@@@8
	DD	FLAT:??_R3?$CEncrypt@_N@@8
rdata$r	ENDS
;	COMDAT ??_7?$CEncrypt@_N@@6B@
CONST	SEGMENT
??_7?$CEncrypt@_N@@6B@ DD FLAT:??_R4?$CEncrypt@_N@@6B@	; CEncrypt<bool>::`vftable'
	DD	FLAT:??_E?$CEncrypt@_N@@UAEPAXI@Z
; Function compile flags: /Ogsp
CONST	ENDS
;	COMDAT ??1?$CEncrypt@_N@@UAE@XZ
_TEXT	SEGMENT
??1?$CEncrypt@_N@@UAE@XZ PROC				; CEncrypt<bool>::~CEncrypt<bool>, COMDAT
; _this$ = ecx

; 127  : 	{

  00000	c7 01 00 00 00
	00		 mov	 DWORD PTR [ecx], OFFSET ??_7?$CEncrypt@_N@@6B@

; 128  : 	}

  00006	83 c1 0c	 add	 ecx, 12			; 0000000cH
  00009	e9 00 00 00 00	 jmp	 ??1ccddaabb@@UAE@XZ	; ccddaabb::~ccddaabb
??1?$CEncrypt@_N@@UAE@XZ ENDP				; CEncrypt<bool>::~CEncrypt<bool>
; Function compile flags: /Ogsp
_TEXT	ENDS
;	COMDAT ??_G?$CEncrypt@M@@UAEPAXI@Z
_TEXT	SEGMENT
___flags$ = 8						; size = 4
??_G?$CEncrypt@M@@UAEPAXI@Z PROC			; CEncrypt<float>::`scalar deleting destructor', COMDAT
; _this$ = ecx
  00000	55		 push	 ebp
  00001	8b ec		 mov	 ebp, esp
  00003	56		 push	 esi
  00004	8b f1		 mov	 esi, ecx
  00006	8d 4e 0c	 lea	 ecx, DWORD PTR [esi+12]
  00009	c7 06 00 00 00
	00		 mov	 DWORD PTR [esi], OFFSET ??_7?$CEncrypt@M@@6B@
  0000f	e8 00 00 00 00	 call	 ??1ccddaabb@@UAE@XZ	; ccddaabb::~ccddaabb
  00014	f6 45 08 01	 test	 BYTE PTR ___flags$[ebp], 1
  00018	74 07		 je	 SHORT $LN1@scalar@2
  0001a	56		 push	 esi
  0001b	e8 00 00 00 00	 call	 ??3@YAXPAX@Z		; operator delete
  00020	59		 pop	 ecx
$LN1@scalar@2:
  00021	8b c6		 mov	 eax, esi
  00023	5e		 pop	 esi
  00024	5d		 pop	 ebp
  00025	c2 04 00	 ret	 4
??_G?$CEncrypt@M@@UAEPAXI@Z ENDP			; CEncrypt<float>::`scalar deleting destructor'
; Function compile flags: /Ogsp
_TEXT	ENDS
;	COMDAT ??_G?$CEncrypt@K@@UAEPAXI@Z
_TEXT	SEGMENT
___flags$ = 8						; size = 4
??_G?$CEncrypt@K@@UAEPAXI@Z PROC			; CEncrypt<unsigned long>::`scalar deleting destructor', COMDAT
; _this$ = ecx
  00000	55		 push	 ebp
  00001	8b ec		 mov	 ebp, esp
  00003	56		 push	 esi
  00004	8b f1		 mov	 esi, ecx
  00006	8d 4e 0c	 lea	 ecx, DWORD PTR [esi+12]
  00009	c7 06 00 00 00
	00		 mov	 DWORD PTR [esi], OFFSET ??_7?$CEncrypt@K@@6B@
  0000f	e8 00 00 00 00	 call	 ??1ccddaabb@@UAE@XZ	; ccddaabb::~ccddaabb
  00014	f6 45 08 01	 test	 BYTE PTR ___flags$[ebp], 1
  00018	74 07		 je	 SHORT $LN1@scalar@3
  0001a	56		 push	 esi
  0001b	e8 00 00 00 00	 call	 ??3@YAXPAX@Z		; operator delete
  00020	59		 pop	 ecx
$LN1@scalar@3:
  00021	8b c6		 mov	 eax, esi
  00023	5e		 pop	 esi
  00024	5d		 pop	 ebp
  00025	c2 04 00	 ret	 4
??_G?$CEncrypt@K@@UAEPAXI@Z ENDP			; CEncrypt<unsigned long>::`scalar deleting destructor'
; Function compile flags: /Ogsp
_TEXT	ENDS
;	COMDAT ??_G?$CEncrypt@_N@@UAEPAXI@Z
_TEXT	SEGMENT
___flags$ = 8						; size = 4
??_G?$CEncrypt@_N@@UAEPAXI@Z PROC			; CEncrypt<bool>::`scalar deleting destructor', COMDAT
; _this$ = ecx
  00000	55		 push	 ebp
  00001	8b ec		 mov	 ebp, esp
  00003	56		 push	 esi
  00004	8b f1		 mov	 esi, ecx
  00006	8d 4e 0c	 lea	 ecx, DWORD PTR [esi+12]
  00009	c7 06 00 00 00
	00		 mov	 DWORD PTR [esi], OFFSET ??_7?$CEncrypt@_N@@6B@
  0000f	e8 00 00 00 00	 call	 ??1ccddaabb@@UAE@XZ	; ccddaabb::~ccddaabb
  00014	f6 45 08 01	 test	 BYTE PTR ___flags$[ebp], 1
  00018	74 07		 je	 SHORT $LN1@scalar@4
  0001a	56		 push	 esi
  0001b	e8 00 00 00 00	 call	 ??3@YAXPAX@Z		; operator delete
  00020	59		 pop	 ecx
$LN1@scalar@4:
  00021	8b c6		 mov	 eax, esi
  00023	5e		 pop	 esi
  00024	5d		 pop	 ebp
  00025	c2 04 00	 ret	 4
??_G?$CEncrypt@_N@@UAEPAXI@Z ENDP			; CEncrypt<bool>::`scalar deleting destructor'
_TEXT	ENDS
PUBLIC	?EncryptValueToPool@?$CEncrypt@M@@AAEXPBD@Z	; CEncrypt<float>::EncryptValueToPool
EXTRN	?EncryptByte@ccddaabb@@QAEXPBDPADH@Z:PROC	; ccddaabb::EncryptByte
; Function compile flags: /Ogsp
;	COMDAT ?EncryptValueToPool@?$CEncrypt@M@@AAEXPBD@Z
_TEXT	SEGMENT
_value$ = 8						; size = 4
?EncryptValueToPool@?$CEncrypt@M@@AAEXPBD@Z PROC	; CEncrypt<float>::EncryptValueToPool, COMDAT
; _this$ = ecx

; 67   : 	{

  00000	55		 push	 ebp
  00001	8b ec		 mov	 ebp, esp

; 68   : 		m_RC5.EncryptByte( value, m_MemPool, max(m_ValueSize, DEFAULT_ENCRYPT) );

  00003	0f b7 41 06	 movzx	 eax, WORD PTR [ecx+6]
  00007	83 f8 04	 cmp	 eax, 4
  0000a	77 03		 ja	 SHORT $LN4@EncryptVal
  0000c	6a 04		 push	 4
  0000e	58		 pop	 eax
$LN4@EncryptVal:
  0000f	50		 push	 eax
  00010	8d 41 1c	 lea	 eax, DWORD PTR [ecx+28]
  00013	50		 push	 eax
  00014	ff 75 08	 push	 DWORD PTR _value$[ebp]
  00017	83 c1 0c	 add	 ecx, 12			; 0000000cH
  0001a	e8 00 00 00 00	 call	 ?EncryptByte@ccddaabb@@QAEXPBDPADH@Z ; ccddaabb::EncryptByte

; 69   : 		
; 70   : 	}

  0001f	5d		 pop	 ebp
  00020	c2 04 00	 ret	 4
?EncryptValueToPool@?$CEncrypt@M@@AAEXPBD@Z ENDP	; CEncrypt<float>::EncryptValueToPool
_TEXT	ENDS
PUBLIC	?Init@?$CEncrypt@M@@AAEXXZ			; CEncrypt<float>::Init
EXTRN	?Setup@ccddaabb@@QAEXPBDHH@Z:PROC		; ccddaabb::Setup
EXTRN	__imp__rand:PROC
EXTRN	__imp__timeGetTime@0:PROC
EXTRN	__imp__GetCurrentProcessId@0:PROC
; Function compile flags: /Ogsp
;	COMDAT ?Init@?$CEncrypt@M@@AAEXXZ
_TEXT	SEGMENT
_pid$ = -8						; size = 4
_tick$ = -4						; size = 4
?Init@?$CEncrypt@M@@AAEXXZ PROC				; CEncrypt<float>::Init, COMDAT
; _this$ = ecx

; 73   : 	{

  00000	55		 push	 ebp
  00001	8b ec		 mov	 ebp, esp
  00003	51		 push	 ecx
  00004	51		 push	 ecx
  00005	53		 push	 ebx
  00006	56		 push	 esi
  00007	57		 push	 edi
  00008	8b f1		 mov	 esi, ecx

; 74   : 		DWORD pid = GetCurrentProcessId();

  0000a	ff 15 00 00 00
	00		 call	 DWORD PTR __imp__GetCurrentProcessId@0
  00010	89 45 f8	 mov	 DWORD PTR _pid$[ebp], eax

; 75   : 		DWORD tick = timeGetTime();

  00013	ff 15 00 00 00
	00		 call	 DWORD PTR __imp__timeGetTime@0

; 76   : 		m_ValueSize    = sizeof(type);
; 77   : 		m_MemPoolPos   = (unsigned short)( rand()+pid+tick )%(MAX_MEM_POOL-m_ValueSize);

  00019	8b 3d 00 00 00
	00		 mov	 edi, DWORD PTR __imp__rand
  0001f	89 45 fc	 mov	 DWORD PTR _tick$[ebp], eax
  00022	6a 04		 push	 4
  00024	58		 pop	 eax
  00025	66 89 46 06	 mov	 WORD PTR [esi+6], ax
  00029	ff d7		 call	 edi
  0002b	03 45 f8	 add	 eax, DWORD PTR _pid$[ebp]
  0002e	0f b7 4e 06	 movzx	 ecx, WORD PTR [esi+6]
  00032	03 45 fc	 add	 eax, DWORD PTR _tick$[ebp]
  00035	6a 0c		 push	 12			; 0000000cH
  00037	0f b7 c0	 movzx	 eax, ax
  0003a	5b		 pop	 ebx
  0003b	99		 cdq
  0003c	2b d9		 sub	 ebx, ecx
  0003e	f7 fb		 idiv	 ebx
  00040	66 89 56 04	 mov	 WORD PTR [esi+4], dx

; 78   : 		m_EncryptSeed  = (char)( rand()+pid+tick )%256;

  00044	ff d7		 call	 edi
  00046	02 45 f8	 add	 al, BYTE PTR _pid$[ebp]
  00049	02 45 fc	 add	 al, BYTE PTR _tick$[ebp]
  0004c	0f be c0	 movsx	 eax, al
  0004f	25 ff 00 00 80	 and	 eax, -2147483393	; 800000ffH
  00054	79 07		 jns	 SHORT $LN8@Init
  00056	48		 dec	 eax
  00057	0d 00 ff ff ff	 or	 eax, -256		; ffffff00H
  0005c	40		 inc	 eax
$LN8@Init:
  0005d	88 46 08	 mov	 BYTE PTR [esi+8], al

; 79   : 
; 80   : 		for (int i = 0; i < MAX_MEM_POOL ; i++)

  00060	33 db		 xor	 ebx, ebx
$LL3@Init:

; 81   : 			m_MemPool[i] = (char)( rand()+pid+tick )%256; // 

  00062	ff d7		 call	 edi
  00064	02 45 f8	 add	 al, BYTE PTR _pid$[ebp]
  00067	02 45 fc	 add	 al, BYTE PTR _tick$[ebp]
  0006a	0f be c0	 movsx	 eax, al
  0006d	25 ff 00 00 80	 and	 eax, -2147483393	; 800000ffH
  00072	79 07		 jns	 SHORT $LN9@Init
  00074	48		 dec	 eax
  00075	0d 00 ff ff ff	 or	 eax, -256		; ffffff00H
  0007a	40		 inc	 eax
$LN9@Init:
  0007b	88 44 1e 1c	 mov	 BYTE PTR [esi+ebx+28], al
  0007f	43		 inc	 ebx
  00080	83 fb 0c	 cmp	 ebx, 12			; 0000000cH
  00083	7c dd		 jl	 SHORT $LL3@Init

; 82   : 
; 83   : 		//UJ 130913, : szKey  
; 84   : 		//char szKey[ccddaabb::KEY_SIZE];//="";
; 85   : 		//for (int i = 0; i < ccddaabb::KEY_SIZE  ; i++)
; 86   : 		//	szKey[i] = (char)( rand()+pid+tick )%256; // 
; 87   : 		m_RC5.Setup( NULL, pid, tick );

  00085	ff 75 fc	 push	 DWORD PTR _tick$[ebp]
  00088	8d 4e 0c	 lea	 ecx, DWORD PTR [esi+12]
  0008b	ff 75 f8	 push	 DWORD PTR _pid$[ebp]
  0008e	6a 00		 push	 0
  00090	e8 00 00 00 00	 call	 ?Setup@ccddaabb@@QAEXPBDHH@Z ; ccddaabb::Setup
  00095	5f		 pop	 edi
  00096	5e		 pop	 esi
  00097	5b		 pop	 ebx

; 88   : 
; 89   : #ifdef _NOTUSE
; 90   : 		m_value        = 0;
; 91   : 		EncryptValueToPool((char*)&m_value);
; 92   : 		Debug();
; 93   : #endif
; 94   : 	}

  00098	c9		 leave
  00099	c3		 ret	 0
?Init@?$CEncrypt@M@@AAEXXZ ENDP				; CEncrypt<float>::Init
_TEXT	ENDS
PUBLIC	?DecryptValueToPool@?$CEncrypt@M@@QAEXPAM@Z	; CEncrypt<float>::DecryptValueToPool
EXTRN	?DecryptByte@ccddaabb@@QBEXPBDPADH@Z:PROC	; ccddaabb::DecryptByte
; Function compile flags: /Ogsp
;	COMDAT ?DecryptValueToPool@?$CEncrypt@M@@QAEXPAM@Z
_TEXT	SEGMENT
_value$ = 8						; size = 4
?DecryptValueToPool@?$CEncrypt@M@@QAEXPAM@Z PROC	; CEncrypt<float>::DecryptValueToPool, COMDAT
; _this$ = ecx

; 1648 : 	{

  00000	55		 push	 ebp
  00001	8b ec		 mov	 ebp, esp
  00003	56		 push	 esi

; 1649 : 		m_RC5.DecryptByte( m_MemPool, m_TempMem, 4 );

  00004	8d 71 28	 lea	 esi, DWORD PTR [ecx+40]
  00007	6a 04		 push	 4
  00009	8d 41 1c	 lea	 eax, DWORD PTR [ecx+28]
  0000c	56		 push	 esi
  0000d	50		 push	 eax
  0000e	83 c1 0c	 add	 ecx, 12			; 0000000cH
  00011	e8 00 00 00 00	 call	 ?DecryptByte@ccddaabb@@QBEXPBDPADH@Z ; ccddaabb::DecryptByte

; 1650 : 		*value = *((float*)m_TempMem);

  00016	d9 06		 fld	 DWORD PTR [esi]
  00018	8b 45 08	 mov	 eax, DWORD PTR _value$[ebp]
  0001b	d9 18		 fstp	 DWORD PTR [eax]
  0001d	5e		 pop	 esi

; 1651 : 	}

  0001e	5d		 pop	 ebp
  0001f	c2 04 00	 ret	 4
?DecryptValueToPool@?$CEncrypt@M@@QAEXPAM@Z ENDP	; CEncrypt<float>::DecryptValueToPool
_TEXT	ENDS
PUBLIC	?EncryptValueToPool@?$CEncrypt@K@@AAEXPBD@Z	; CEncrypt<unsigned long>::EncryptValueToPool
; Function compile flags: /Ogsp
;	COMDAT ?EncryptValueToPool@?$CEncrypt@K@@AAEXPBD@Z
_TEXT	SEGMENT
_value$ = 8						; size = 4
?EncryptValueToPool@?$CEncrypt@K@@AAEXPBD@Z PROC	; CEncrypt<unsigned long>::EncryptValueToPool, COMDAT
; _this$ = ecx

; 67   : 	{

  00000	55		 push	 ebp
  00001	8b ec		 mov	 ebp, esp

; 68   : 		m_RC5.EncryptByte( value, m_MemPool, max(m_ValueSize, DEFAULT_ENCRYPT) );

  00003	0f b7 41 06	 movzx	 eax, WORD PTR [ecx+6]
  00007	83 f8 04	 cmp	 eax, 4
  0000a	77 03		 ja	 SHORT $LN4@EncryptVal@2
  0000c	6a 04		 push	 4
  0000e	58		 pop	 eax
$LN4@EncryptVal@2:
  0000f	50		 push	 eax
  00010	8d 41 1c	 lea	 eax, DWORD PTR [ecx+28]
  00013	50		 push	 eax
  00014	ff 75 08	 push	 DWORD PTR _value$[ebp]
  00017	83 c1 0c	 add	 ecx, 12			; 0000000cH
  0001a	e8 00 00 00 00	 call	 ?EncryptByte@ccddaabb@@QAEXPBDPADH@Z ; ccddaabb::EncryptByte

; 69   : 		
; 70   : 	}

  0001f	5d		 pop	 ebp
  00020	c2 04 00	 ret	 4
?EncryptValueToPool@?$CEncrypt@K@@AAEXPBD@Z ENDP	; CEncrypt<unsigned long>::EncryptValueToPool
_TEXT	ENDS
PUBLIC	?Init@?$CEncrypt@K@@AAEXXZ			; CEncrypt<unsigned long>::Init
; Function compile flags: /Ogsp
;	COMDAT ?Init@?$CEncrypt@K@@AAEXXZ
_TEXT	SEGMENT
_pid$ = -8						; size = 4
_tick$ = -4						; size = 4
?Init@?$CEncrypt@K@@AAEXXZ PROC				; CEncrypt<unsigned long>::Init, COMDAT
; _this$ = ecx

; 73   : 	{

  00000	55		 push	 ebp
  00001	8b ec		 mov	 ebp, esp
  00003	51		 push	 ecx
  00004	51		 push	 ecx
  00005	53		 push	 ebx
  00006	56		 push	 esi
  00007	57		 push	 edi
  00008	8b f1		 mov	 esi, ecx

; 74   : 		DWORD pid = GetCurrentProcessId();

  0000a	ff 15 00 00 00
	00		 call	 DWORD PTR __imp__GetCurrentProcessId@0
  00010	89 45 f8	 mov	 DWORD PTR _pid$[ebp], eax

; 75   : 		DWORD tick = timeGetTime();

  00013	ff 15 00 00 00
	00		 call	 DWORD PTR __imp__timeGetTime@0

; 76   : 		m_ValueSize    = sizeof(type);
; 77   : 		m_MemPoolPos   = (unsigned short)( rand()+pid+tick )%(MAX_MEM_POOL-m_ValueSize);

  00019	8b 3d 00 00 00
	00		 mov	 edi, DWORD PTR __imp__rand
  0001f	89 45 fc	 mov	 DWORD PTR _tick$[ebp], eax
  00022	6a 04		 push	 4
  00024	58		 pop	 eax
  00025	66 89 46 06	 mov	 WORD PTR [esi+6], ax
  00029	ff d7		 call	 edi
  0002b	03 45 f8	 add	 eax, DWORD PTR _pid$[ebp]
  0002e	0f b7 4e 06	 movzx	 ecx, WORD PTR [esi+6]
  00032	03 45 fc	 add	 eax, DWORD PTR _tick$[ebp]
  00035	6a 0c		 push	 12			; 0000000cH
  00037	0f b7 c0	 movzx	 eax, ax
  0003a	5b		 pop	 ebx
  0003b	99		 cdq
  0003c	2b d9		 sub	 ebx, ecx
  0003e	f7 fb		 idiv	 ebx
  00040	66 89 56 04	 mov	 WORD PTR [esi+4], dx

; 78   : 		m_EncryptSeed  = (char)( rand()+pid+tick )%256;

  00044	ff d7		 call	 edi
  00046	02 45 f8	 add	 al, BYTE PTR _pid$[ebp]
  00049	02 45 fc	 add	 al, BYTE PTR _tick$[ebp]
  0004c	0f be c0	 movsx	 eax, al
  0004f	25 ff 00 00 80	 and	 eax, -2147483393	; 800000ffH
  00054	79 07		 jns	 SHORT $LN8@Init@2
  00056	48		 dec	 eax
  00057	0d 00 ff ff ff	 or	 eax, -256		; ffffff00H
  0005c	40		 inc	 eax
$LN8@Init@2:
  0005d	88 46 08	 mov	 BYTE PTR [esi+8], al

; 79   : 
; 80   : 		for (int i = 0; i < MAX_MEM_POOL ; i++)

  00060	33 db		 xor	 ebx, ebx
$LL3@Init@2:

; 81   : 			m_MemPool[i] = (char)( rand()+pid+tick )%256; // 

  00062	ff d7		 call	 edi
  00064	02 45 f8	 add	 al, BYTE PTR _pid$[ebp]
  00067	02 45 fc	 add	 al, BYTE PTR _tick$[ebp]
  0006a	0f be c0	 movsx	 eax, al
  0006d	25 ff 00 00 80	 and	 eax, -2147483393	; 800000ffH
  00072	79 07		 jns	 SHORT $LN9@Init@2
  00074	48		 dec	 eax
  00075	0d 00 ff ff ff	 or	 eax, -256		; ffffff00H
  0007a	40		 inc	 eax
$LN9@Init@2:
  0007b	88 44 1e 1c	 mov	 BYTE PTR [esi+ebx+28], al
  0007f	43		 inc	 ebx
  00080	83 fb 0c	 cmp	 ebx, 12			; 0000000cH
  00083	7c dd		 jl	 SHORT $LL3@Init@2

; 82   : 
; 83   : 		//UJ 130913, : szKey  
; 84   : 		//char szKey[ccddaabb::KEY_SIZE];//="";
; 85   : 		//for (int i = 0; i < ccddaabb::KEY_SIZE  ; i++)
; 86   : 		//	szKey[i] = (char)( rand()+pid+tick )%256; // 
; 87   : 		m_RC5.Setup( NULL, pid, tick );

  00085	ff 75 fc	 push	 DWORD PTR _tick$[ebp]
  00088	8d 4e 0c	 lea	 ecx, DWORD PTR [esi+12]
  0008b	ff 75 f8	 push	 DWORD PTR _pid$[ebp]
  0008e	6a 00		 push	 0
  00090	e8 00 00 00 00	 call	 ?Setup@ccddaabb@@QAEXPBDHH@Z ; ccddaabb::Setup
  00095	5f		 pop	 edi
  00096	5e		 pop	 esi
  00097	5b		 pop	 ebx

; 88   : 
; 89   : #ifdef _NOTUSE
; 90   : 		m_value        = 0;
; 91   : 		EncryptValueToPool((char*)&m_value);
; 92   : 		Debug();
; 93   : #endif
; 94   : 	}

  00098	c9		 leave
  00099	c3		 ret	 0
?Init@?$CEncrypt@K@@AAEXXZ ENDP				; CEncrypt<unsigned long>::Init
_TEXT	ENDS
PUBLIC	?DecryptValueToPool@?$CEncrypt@K@@QAEXPAK@Z	; CEncrypt<unsigned long>::DecryptValueToPool
; Function compile flags: /Ogsp
;	COMDAT ?DecryptValueToPool@?$CEncrypt@K@@QAEXPAK@Z
_TEXT	SEGMENT
_value$ = 8						; size = 4
?DecryptValueToPool@?$CEncrypt@K@@QAEXPAK@Z PROC	; CEncrypt<unsigned long>::DecryptValueToPool, COMDAT
; _this$ = ecx

; 1256 : 	{

  00000	55		 push	 ebp
  00001	8b ec		 mov	 ebp, esp
  00003	56		 push	 esi

; 1257 : 		m_RC5.DecryptByte( m_MemPool, m_TempMem, 4 );

  00004	8d 71 28	 lea	 esi, DWORD PTR [ecx+40]
  00007	6a 04		 push	 4
  00009	8d 41 1c	 lea	 eax, DWORD PTR [ecx+28]
  0000c	56		 push	 esi
  0000d	50		 push	 eax
  0000e	83 c1 0c	 add	 ecx, 12			; 0000000cH
  00011	e8 00 00 00 00	 call	 ?DecryptByte@ccddaabb@@QBEXPBDPADH@Z ; ccddaabb::DecryptByte

; 1258 : 		*value = *((DWORD*)m_TempMem);

  00016	8b 06		 mov	 eax, DWORD PTR [esi]
  00018	8b 4d 08	 mov	 ecx, DWORD PTR _value$[ebp]
  0001b	89 01		 mov	 DWORD PTR [ecx], eax
  0001d	5e		 pop	 esi

; 1259 : 	}

  0001e	5d		 pop	 ebp
  0001f	c2 04 00	 ret	 4
?DecryptValueToPool@?$CEncrypt@K@@QAEXPAK@Z ENDP	; CEncrypt<unsigned long>::DecryptValueToPool
_TEXT	ENDS
PUBLIC	?EncryptValueToPool@?$CEncrypt@_N@@AAEXPBD@Z	; CEncrypt<bool>::EncryptValueToPool
; Function compile flags: /Ogsp
;	COMDAT ?EncryptValueToPool@?$CEncrypt@_N@@AAEXPBD@Z
_TEXT	SEGMENT
_value$ = 8						; size = 4
?EncryptValueToPool@?$CEncrypt@_N@@AAEXPBD@Z PROC	; CEncrypt<bool>::EncryptValueToPool, COMDAT
; _this$ = ecx

; 67   : 	{

  00000	55		 push	 ebp
  00001	8b ec		 mov	 ebp, esp

; 68   : 		m_RC5.EncryptByte( value, m_MemPool, max(m_ValueSize, DEFAULT_ENCRYPT) );

  00003	0f b7 41 06	 movzx	 eax, WORD PTR [ecx+6]
  00007	83 f8 04	 cmp	 eax, 4
  0000a	77 03		 ja	 SHORT $LN4@EncryptVal@3
  0000c	6a 04		 push	 4
  0000e	58		 pop	 eax
$LN4@EncryptVal@3:
  0000f	50		 push	 eax
  00010	8d 41 1c	 lea	 eax, DWORD PTR [ecx+28]
  00013	50		 push	 eax
  00014	ff 75 08	 push	 DWORD PTR _value$[ebp]
  00017	83 c1 0c	 add	 ecx, 12			; 0000000cH
  0001a	e8 00 00 00 00	 call	 ?EncryptByte@ccddaabb@@QAEXPBDPADH@Z ; ccddaabb::EncryptByte

; 69   : 		
; 70   : 	}

  0001f	5d		 pop	 ebp
  00020	c2 04 00	 ret	 4
?EncryptValueToPool@?$CEncrypt@_N@@AAEXPBD@Z ENDP	; CEncrypt<bool>::EncryptValueToPool
_TEXT	ENDS
PUBLIC	?Init@?$CEncrypt@_N@@AAEXXZ			; CEncrypt<bool>::Init
; Function compile flags: /Ogsp
;	COMDAT ?Init@?$CEncrypt@_N@@AAEXXZ
_TEXT	SEGMENT
_pid$ = -8						; size = 4
_tick$ = -4						; size = 4
?Init@?$CEncrypt@_N@@AAEXXZ PROC			; CEncrypt<bool>::Init, COMDAT
; _this$ = ecx

; 73   : 	{

  00000	55		 push	 ebp
  00001	8b ec		 mov	 ebp, esp
  00003	51		 push	 ecx
  00004	51		 push	 ecx
  00005	53		 push	 ebx
  00006	56		 push	 esi
  00007	57		 push	 edi
  00008	8b f1		 mov	 esi, ecx

; 74   : 		DWORD pid = GetCurrentProcessId();

  0000a	ff 15 00 00 00
	00		 call	 DWORD PTR __imp__GetCurrentProcessId@0
  00010	89 45 f8	 mov	 DWORD PTR _pid$[ebp], eax

; 75   : 		DWORD tick = timeGetTime();

  00013	ff 15 00 00 00
	00		 call	 DWORD PTR __imp__timeGetTime@0

; 76   : 		m_ValueSize    = sizeof(type);
; 77   : 		m_MemPoolPos   = (unsigned short)( rand()+pid+tick )%(MAX_MEM_POOL-m_ValueSize);

  00019	8b 3d 00 00 00
	00		 mov	 edi, DWORD PTR __imp__rand
  0001f	89 45 fc	 mov	 DWORD PTR _tick$[ebp], eax
  00022	33 c0		 xor	 eax, eax
  00024	40		 inc	 eax
  00025	66 89 46 06	 mov	 WORD PTR [esi+6], ax
  00029	ff d7		 call	 edi
  0002b	03 45 f8	 add	 eax, DWORD PTR _pid$[ebp]
  0002e	0f b7 4e 06	 movzx	 ecx, WORD PTR [esi+6]
  00032	03 45 fc	 add	 eax, DWORD PTR _tick$[ebp]
  00035	6a 0c		 push	 12			; 0000000cH
  00037	0f b7 c0	 movzx	 eax, ax
  0003a	5b		 pop	 ebx
  0003b	99		 cdq
  0003c	2b d9		 sub	 ebx, ecx
  0003e	f7 fb		 idiv	 ebx
  00040	66 89 56 04	 mov	 WORD PTR [esi+4], dx

; 78   : 		m_EncryptSeed  = (char)( rand()+pid+tick )%256;

  00044	ff d7		 call	 edi
  00046	02 45 f8	 add	 al, BYTE PTR _pid$[ebp]
  00049	02 45 fc	 add	 al, BYTE PTR _tick$[ebp]
  0004c	0f be c0	 movsx	 eax, al
  0004f	25 ff 00 00 80	 and	 eax, -2147483393	; 800000ffH
  00054	79 07		 jns	 SHORT $LN8@Init@3
  00056	48		 dec	 eax
  00057	0d 00 ff ff ff	 or	 eax, -256		; ffffff00H
  0005c	40		 inc	 eax
$LN8@Init@3:
  0005d	88 46 08	 mov	 BYTE PTR [esi+8], al

; 79   : 
; 80   : 		for (int i = 0; i < MAX_MEM_POOL ; i++)

  00060	33 db		 xor	 ebx, ebx
$LL3@Init@3:

; 81   : 			m_MemPool[i] = (char)( rand()+pid+tick )%256; // 

  00062	ff d7		 call	 edi
  00064	02 45 f8	 add	 al, BYTE PTR _pid$[ebp]
  00067	02 45 fc	 add	 al, BYTE PTR _tick$[ebp]
  0006a	0f be c0	 movsx	 eax, al
  0006d	25 ff 00 00 80	 and	 eax, -2147483393	; 800000ffH
  00072	79 07		 jns	 SHORT $LN9@Init@3
  00074	48		 dec	 eax
  00075	0d 00 ff ff ff	 or	 eax, -256		; ffffff00H
  0007a	40		 inc	 eax
$LN9@Init@3:
  0007b	88 44 1e 1c	 mov	 BYTE PTR [esi+ebx+28], al
  0007f	43		 inc	 ebx
  00080	83 fb 0c	 cmp	 ebx, 12			; 0000000cH
  00083	7c dd		 jl	 SHORT $LL3@Init@3

; 82   : 
; 83   : 		//UJ 130913, : szKey  
; 84   : 		//char szKey[ccddaabb::KEY_SIZE];//="";
; 85   : 		//for (int i = 0; i < ccddaabb::KEY_SIZE  ; i++)
; 86   : 		//	szKey[i] = (char)( rand()+pid+tick )%256; // 
; 87   : 		m_RC5.Setup( NULL, pid, tick );

  00085	ff 75 fc	 push	 DWORD PTR _tick$[ebp]
  00088	8d 4e 0c	 lea	 ecx, DWORD PTR [esi+12]
  0008b	ff 75 f8	 push	 DWORD PTR _pid$[ebp]
  0008e	6a 00		 push	 0
  00090	e8 00 00 00 00	 call	 ?Setup@ccddaabb@@QAEXPBDHH@Z ; ccddaabb::Setup
  00095	5f		 pop	 edi
  00096	5e		 pop	 esi
  00097	5b		 pop	 ebx

; 88   : 
; 89   : #ifdef _NOTUSE
; 90   : 		m_value        = 0;
; 91   : 		EncryptValueToPool((char*)&m_value);
; 92   : 		Debug();
; 93   : #endif
; 94   : 	}

  00098	c9		 leave
  00099	c3		 ret	 0
?Init@?$CEncrypt@_N@@AAEXXZ ENDP			; CEncrypt<bool>::Init
_TEXT	ENDS
PUBLIC	?DecryptValueToPool@?$CEncrypt@_N@@QAEXPA_N@Z	; CEncrypt<bool>::DecryptValueToPool
; Function compile flags: /Ogsp
;	COMDAT ?DecryptValueToPool@?$CEncrypt@_N@@QAEXPA_N@Z
_TEXT	SEGMENT
_value$ = 8						; size = 4
?DecryptValueToPool@?$CEncrypt@_N@@QAEXPA_N@Z PROC	; CEncrypt<bool>::DecryptValueToPool, COMDAT
; _this$ = ecx

; 219  : 	{

  00000	55		 push	 ebp
  00001	8b ec		 mov	 ebp, esp
  00003	56		 push	 esi

; 220  : 		m_RC5.DecryptByte( m_MemPool, m_TempMem, 4 );

  00004	8d 71 28	 lea	 esi, DWORD PTR [ecx+40]
  00007	6a 04		 push	 4
  00009	8d 41 1c	 lea	 eax, DWORD PTR [ecx+28]
  0000c	56		 push	 esi
  0000d	50		 push	 eax
  0000e	83 c1 0c	 add	 ecx, 12			; 0000000cH
  00011	e8 00 00 00 00	 call	 ?DecryptByte@ccddaabb@@QBEXPBDPADH@Z ; ccddaabb::DecryptByte

; 221  : 		*value = *((bool*)m_TempMem);

  00016	8a 06		 mov	 al, BYTE PTR [esi]
  00018	8b 4d 08	 mov	 ecx, DWORD PTR _value$[ebp]
  0001b	88 01		 mov	 BYTE PTR [ecx], al
  0001d	5e		 pop	 esi

; 222  : 	}

  0001e	5d		 pop	 ebp
  0001f	c2 04 00	 ret	 4
?DecryptValueToPool@?$CEncrypt@_N@@QAEXPA_N@Z ENDP	; CEncrypt<bool>::DecryptValueToPool
_TEXT	ENDS
PUBLIC	?DecryptValueToPool@?$CEncrypt@W4TeamType@@@@QAEXPAW4TeamType@@@Z ; CEncrypt<enum TeamType>::DecryptValueToPool
; Function compile flags: /Ogsp
;	COMDAT ?DecryptValueToPool@?$CEncrypt@W4TeamType@@@@QAEXPAW4TeamType@@@Z
_TEXT	SEGMENT
_value$ = 8						; size = 4
?DecryptValueToPool@?$CEncrypt@W4TeamType@@@@QAEXPAW4TeamType@@@Z PROC ; CEncrypt<enum TeamType>::DecryptValueToPool, COMDAT
; _this$ = ecx

; 2959 : 	{

  00000	55		 push	 ebp
  00001	8b ec		 mov	 ebp, esp
  00003	56		 push	 esi

; 2960 : 		m_RC5.DecryptByte( m_MemPool, m_TempMem, sizeof(TeamType) );

  00004	8d 71 28	 lea	 esi, DWORD PTR [ecx+40]
  00007	6a 04		 push	 4
  00009	8d 41 1c	 lea	 eax, DWORD PTR [ecx+28]
  0000c	56		 push	 esi
  0000d	50		 push	 eax
  0000e	83 c1 0c	 add	 ecx, 12			; 0000000cH
  00011	e8 00 00 00 00	 call	 ?DecryptByte@ccddaabb@@QBEXPBDPADH@Z ; ccddaabb::DecryptByte

; 2961 : 		*value = *((TeamType*)m_TempMem);

  00016	8b 06		 mov	 eax, DWORD PTR [esi]
  00018	8b 4d 08	 mov	 ecx, DWORD PTR _value$[ebp]
  0001b	89 01		 mov	 DWORD PTR [ecx], eax
  0001d	5e		 pop	 esi

; 2962 : 	}

  0001e	5d		 pop	 ebp
  0001f	c2 04 00	 ret	 4
?DecryptValueToPool@?$CEncrypt@W4TeamType@@@@QAEXPAW4TeamType@@@Z ENDP ; CEncrypt<enum TeamType>::DecryptValueToPool
_TEXT	ENDS
EXTRN	__imp_??0exception@std@@QAE@ABV01@@Z:PROC
; Function compile flags: /Ogsp
;	COMDAT ??0bad_alloc@std@@QAE@ABV01@@Z
_TEXT	SEGMENT
___that$ = 8						; size = 4
??0bad_alloc@std@@QAE@ABV01@@Z PROC			; std::bad_alloc::bad_alloc, COMDAT
; _this$ = ecx
  00000	55		 push	 ebp
  00001	8b ec		 mov	 ebp, esp
  00003	56		 push	 esi
  00004	ff 75 08	 push	 DWORD PTR ___that$[ebp]
  00007	8b f1		 mov	 esi, ecx
  00009	ff 15 00 00 00
	00		 call	 DWORD PTR __imp_??0exception@std@@QAE@ABV01@@Z
  0000f	c7 06 00 00 00
	00		 mov	 DWORD PTR [esi], OFFSET ??_7bad_alloc@std@@6B@
  00015	8b c6		 mov	 eax, esi
  00017	5e		 pop	 esi
  00018	5d		 pop	 ebp
  00019	c2 04 00	 ret	 4
??0bad_alloc@std@@QAE@ABV01@@Z ENDP			; std::bad_alloc::bad_alloc
_TEXT	ENDS
PUBLIC	??_R0?AVioBaseChar@@@8				; ioBaseChar `RTTI Type Descriptor'
PUBLIC	?ToBaseChar@@YAPAVioBaseChar@@PAVioGameEntity@@@Z ; ToBaseChar
;	COMDAT ??_R0?AVioBaseChar@@@8
; File d:\lost saga for developer\youtube\tutorial\source\src\lsclient\iobasechar.h
_DATA	SEGMENT
??_R0?AVioBaseChar@@@8 DD FLAT:??_7type_info@@6B@	; ioBaseChar `RTTI Type Descriptor'
	DD	00H
	DB	'.?AVioBaseChar@@', 00H
; Function compile flags: /Ogsp
_DATA	ENDS
;	COMDAT ?ToBaseChar@@YAPAVioBaseChar@@PAVioGameEntity@@@Z
_TEXT	SEGMENT
_pObj$ = 8						; size = 4
?ToBaseChar@@YAPAVioBaseChar@@PAVioGameEntity@@@Z PROC	; ToBaseChar, COMDAT

; 4326 : {

  00000	55		 push	 ebp
  00001	8b ec		 mov	 ebp, esp
  00003	56		 push	 esi

; 4327 : 	ioPlayEntity *pPlay = ToPlayEntity( pObj );

  00004	ff 75 08	 push	 DWORD PTR _pObj$[ebp]
  00007	e8 00 00 00 00	 call	 ?ToPlayEntity@@YAPAVioPlayEntity@@PAVioGameEntity@@@Z ; ToPlayEntity
  0000c	8b f0		 mov	 esi, eax
  0000e	59		 pop	 ecx

; 4328 : 	if( !pPlay || pPlay->GetSubType() != ioPlayEntity::PST_CHAR )

  0000f	85 f6		 test	 esi, esi
  00011	74 25		 je	 SHORT $LN1@ToBaseChar
  00013	8b 06		 mov	 eax, DWORD PTR [esi]
  00015	8b ce		 mov	 ecx, esi
  00017	ff 90 a4 00 00
	00		 call	 DWORD PTR [eax+164]
  0001d	85 c0		 test	 eax, eax
  0001f	75 17		 jne	 SHORT $LN1@ToBaseChar

; 4330 : 
; 4331 : 	return dynamic_cast< ioBaseChar* >( pPlay );

  00021	50		 push	 eax
  00022	68 00 00 00 00	 push	 OFFSET ??_R0?AVioBaseChar@@@8
  00027	68 00 00 00 00	 push	 OFFSET ??_R0?AVioPlayEntity@@@8
  0002c	50		 push	 eax
  0002d	56		 push	 esi
  0002e	e8 00 00 00 00	 call	 ___RTDynamicCast
  00033	83 c4 14	 add	 esp, 20			; 00000014H
  00036	eb 02		 jmp	 SHORT $LN3@ToBaseChar
$LN1@ToBaseChar:

; 4329 : 		return NULL;

  00038	33 c0		 xor	 eax, eax
$LN3@ToBaseChar:
  0003a	5e		 pop	 esi

; 4332 : }

  0003b	5d		 pop	 ebp
  0003c	c3		 ret	 0
?ToBaseChar@@YAPAVioBaseChar@@PAVioGameEntity@@@Z ENDP	; ToBaseChar
_TEXT	ENDS
PUBLIC	_this$GSCopy$
PUBLIC	?CreateFireBall@ioTraceWeaponType3@@IAE_NABVioHashString@@@Z ; ioTraceWeaponType3::CreateFireBall
EXTRN	?SetPosition@ioWeapon@@QAEXABUD3DXVECTOR3@@@Z:PROC ; ioWeapon::SetPosition
EXTRN	__imp_??D@YA?AUD3DXVECTOR3@@ABU0@0@Z:PROC
EXTRN	__imp_??D@YA?AUD3DXVECTOR3@@ABUD3DXQUATERNION@@ABU0@@Z:PROC
EXTRN	__imp_?GetBiped@ioEntityGroup@@QAEPAVioBiped@@ABVioHashString@@@Z:PROC
EXTRN	__imp_??1ioHashString@@QAE@XZ:PROC
EXTRN	__imp_?GetFirstLinkOffset@ioEffect@@QAE_NAAVioHashString@@AAUD3DXVECTOR3@@AAUD3DXQUATERNION@@@Z:PROC
EXTRN	__imp_?IsEmpty@ioHashString@@QBE_NXZ:PROC
EXTRN	__imp_?GetSkeletonName@ioEffect@@QBE?AVioHashString@@XZ:PROC
EXTRN	__imp_??0ioHashString@@QAE@XZ:PROC
EXTRN	__imp_?CreateEffect@ioEffectFactory@@QAEPAVioEffect@@ABVioHashString@@@Z:PROC
EXTRN	___CxxFrameHandler3:PROC
EXTRN	@__security_check_cookie@4:PROC
EXTRN	__EH_epilog3_GS:PROC
EXTRN	__EH_prolog3_GS:PROC
;	COMDAT xdata$x
; File c:\program files (x86)\microsoft directx sdk (june 2010)\include\d3dx9math.inl
xdata$x	SEGMENT
__unwindtable$?CreateFireBall@ioTraceWeaponType3@@IAE_NABVioHashString@@@Z DD 0ffffffffH
	DD	FLAT:__unwindfunclet$?CreateFireBall@ioTraceWeaponType3@@IAE_NABVioHashString@@@Z$0
	DD	00H
	DD	FLAT:__unwindfunclet$?CreateFireBall@ioTraceWeaponType3@@IAE_NABVioHashString@@@Z$1
__ehfuncinfo$?CreateFireBall@ioTraceWeaponType3@@IAE_NABVioHashString@@@Z DD 019930522H
	DD	02H
	DD	FLAT:__unwindtable$?CreateFireBall@ioTraceWeaponType3@@IAE_NABVioHashString@@@Z
	DD	2 DUP(00H)
	DD	2 DUP(00H)
	DD	00H
	DD	01H
; Function compile flags: /Ogsp
; File d:\lost saga for developer\youtube\tutorial\source\src\lsclient\iotraceweapontype3.cpp
xdata$x	ENDS
;	COMDAT ?CreateFireBall@ioTraceWeaponType3@@IAE_NABVioHashString@@@Z
_TEXT	SEGMENT
_qtLinkRotOffset$ = -100				; size = 16
_szLinkBiped$ = -84					; size = 16
$T535953 = -68						; size = 4
_this$GSCopy$ = -64					; size = 4
$T535947 = -57						; size = 1
$T535948 = -56						; size = 16
$T531775 = -52						; size = 12
_vLinkPosOffset$ = -40					; size = 12
$T531776 = -28						; size = 12
$T531774 = -28						; size = 12
$T531773 = -28						; size = 12
$T531772 = -28						; size = 12
__$EHRec$ = -12						; size = 12
_szFileName$ = 8					; size = 4
?CreateFireBall@ioTraceWeaponType3@@IAE_NABVioHashString@@@Z PROC ; ioTraceWeaponType3::CreateFireBall, COMDAT
; _this$ = ecx

; 123  : {

  00000	6a 58		 push	 88			; 00000058H
  00002	b8 00 00 00 00	 mov	 eax, __ehhandler$?CreateFireBall@ioTraceWeaponType3@@IAE_NABVioHashString@@@Z
  00007	e8 00 00 00 00	 call	 __EH_prolog3_GS
  0000c	8b 7d 08	 mov	 edi, DWORD PTR _szFileName$[ebp]
  0000f	83 65 bc 00	 and	 DWORD PTR $T535953[ebp], 0
  00013	8b f1		 mov	 esi, ecx

; 140  : 		{
; 141  : 			vLinkPosOffset = pLinked->GetDerivedOrientation() * vLinkPosOffset + pLinked->GetDerivedPosition();

  00015	89 75 c0	 mov	 DWORD PTR _this$GSCopy$[ebp], esi
  00018	e8 00 00 00 00	 call	 ?GetOwner@ioWeapon@@QBEPAVioBaseChar@@XZ ; ioWeapon::GetOwner
  0001d	8b d8		 mov	 ebx, eax
  0001f	85 db		 test	 ebx, ebx
  00021	75 07		 jne	 SHORT $LN4@CreateFire
$LN33@CreateFire:

; 124  : 	ioBaseChar *pOwner = GetOwner();
; 125  : 	if( !pOwner )	return false;

  00023	32 c0		 xor	 al, al
  00025	e9 fd 01 00 00	 jmp	 $LN5@CreateFire
$LN4@CreateFire:

; 126  : 
; 127  : 	m_pFireBall = g_EffectFactory.CreateEffect( szFileName );

  0002a	57		 push	 edi
  0002b	ff 15 00 00 00
	00		 call	 DWORD PTR __imp_?GetSingleton@ioEffectFactory@@SAAAV1@XZ
  00031	8b c8		 mov	 ecx, eax
  00033	ff 15 00 00 00
	00		 call	 DWORD PTR __imp_?CreateEffect@ioEffectFactory@@QAEPAVioEffect@@ABVioHashString@@@Z
  00039	89 86 a4 09 00
	00		 mov	 DWORD PTR [esi+2468], eax

; 128  : 	if( !m_pFireBall )	return false;

  0003f	85 c0		 test	 eax, eax
  00041	74 e0		 je	 SHORT $LN33@CreateFire

; 129  : 
; 130  : 	GetParentSceneNode()->AttachObject( m_pFireBall );

  00043	8b 4e 04	 mov	 ecx, DWORD PTR [esi+4]
  00046	8b 11		 mov	 edx, DWORD PTR [ecx]
  00048	83 c0 14	 add	 eax, 20			; 00000014H
  0004b	50		 push	 eax
  0004c	ff 92 ac 00 00
	00		 call	 DWORD PTR [edx+172]

; 131  : 
; 132  : 	ioHashString szLinkBiped;

  00052	8d 4d ac	 lea	 ecx, DWORD PTR _szLinkBiped$[ebp]
  00055	ff 15 00 00 00
	00		 call	 DWORD PTR __imp_??0ioHashString@@QAE@XZ

; 133  : 	D3DXVECTOR3 vLinkPosOffset;
; 134  : 	D3DXQUATERNION qtLinkRotOffset;
; 135  : 
; 136  : 	if( m_pFireBall->GetSkeletonName().IsEmpty() && m_pFireBall->GetFirstLinkOffset(szLinkBiped, vLinkPosOffset, qtLinkRotOffset ) )

  0005b	8b 8e a4 09 00
	00		 mov	 ecx, DWORD PTR [esi+2468]
  00061	83 65 fc 00	 and	 DWORD PTR __$EHRec$[ebp+8], 0
  00065	8d 45 c8	 lea	 eax, DWORD PTR $T535948[ebp]
  00068	50		 push	 eax
  00069	ff 15 00 00 00
	00		 call	 DWORD PTR __imp_?GetSkeletonName@ioEffect@@QBE?AVioHashString@@XZ
  0006f	8b c8		 mov	 ecx, eax
  00071	c6 45 fc 01	 mov	 BYTE PTR __$EHRec$[ebp+8], 1
  00075	c7 45 bc 01 00
	00 00		 mov	 DWORD PTR $T535953[ebp], 1
  0007c	ff 15 00 00 00
	00		 call	 DWORD PTR __imp_?IsEmpty@ioHashString@@QBE_NXZ
  00082	84 c0		 test	 al, al
  00084	74 20		 je	 SHORT $LN9@CreateFire
  00086	8b 8e a4 09 00
	00		 mov	 ecx, DWORD PTR [esi+2468]
  0008c	8d 45 9c	 lea	 eax, DWORD PTR _qtLinkRotOffset$[ebp]
  0008f	50		 push	 eax
  00090	8d 45 d8	 lea	 eax, DWORD PTR _vLinkPosOffset$[ebp]
  00093	50		 push	 eax
  00094	8d 45 ac	 lea	 eax, DWORD PTR _szLinkBiped$[ebp]
  00097	50		 push	 eax
  00098	ff 15 00 00 00
	00		 call	 DWORD PTR __imp_?GetFirstLinkOffset@ioEffect@@QAE_NAAVioHashString@@AAUD3DXVECTOR3@@AAUD3DXQUATERNION@@@Z
  0009e	c6 45 c7 01	 mov	 BYTE PTR $T535947[ebp], 1
  000a2	84 c0		 test	 al, al
  000a4	75 04		 jne	 SHORT $LN10@CreateFire
$LN9@CreateFire:
  000a6	c6 45 c7 00	 mov	 BYTE PTR $T535947[ebp], 0
$LN10@CreateFire:
  000aa	83 65 fc 00	 and	 DWORD PTR __$EHRec$[ebp+8], 0
  000ae	8d 4d c8	 lea	 ecx, DWORD PTR $T535948[ebp]
  000b1	ff 15 00 00 00
	00		 call	 DWORD PTR __imp_??1ioHashString@@QAE@XZ
  000b7	80 7d c7 00	 cmp	 BYTE PTR $T535947[ebp], 0
  000bb	0f 84 47 01 00
	00		 je	 $LN1@CreateFire

; 137  : 	{
; 138  : 		ioBiped *pLinked = pOwner->GetGroup()->GetBiped( szLinkBiped );

  000c1	8b 4b 04	 mov	 ecx, DWORD PTR [ebx+4]
  000c4	8d 45 ac	 lea	 eax, DWORD PTR _szLinkBiped$[ebp]
  000c7	50		 push	 eax
  000c8	ff 15 00 00 00
	00		 call	 DWORD PTR __imp_?GetBiped@ioEntityGroup@@QAEPAVioBiped@@ABVioHashString@@@Z
  000ce	8b f8		 mov	 edi, eax

; 139  : 		if( pLinked )

  000d0	85 ff		 test	 edi, edi
  000d2	0f 84 30 01 00
	00		 je	 $LN1@CreateFire

; 140  : 		{
; 141  : 			vLinkPosOffset = pLinked->GetDerivedOrientation() * vLinkPosOffset + pLinked->GetDerivedPosition();

  000d8	8b 07		 mov	 eax, DWORD PTR [edi]
  000da	8b cf		 mov	 ecx, edi
  000dc	ff 50 7c	 call	 DWORD PTR [eax+124]
  000df	8b f0		 mov	 esi, eax
  000e1	8d 45 d8	 lea	 eax, DWORD PTR _vLinkPosOffset$[ebp]
  000e4	50		 push	 eax
  000e5	8b 07		 mov	 eax, DWORD PTR [edi]
  000e7	8b cf		 mov	 ecx, edi
  000e9	ff 50 78	 call	 DWORD PTR [eax+120]
  000ec	50		 push	 eax
  000ed	8d 45 e4	 lea	 eax, DWORD PTR $T531772[ebp]
  000f0	50		 push	 eax
  000f1	ff 15 00 00 00
	00		 call	 DWORD PTR __imp_??D@YA?AUD3DXVECTOR3@@ABUD3DXQUATERNION@@ABU0@@Z
  000f7	f3 0f 10 06	 movss	 xmm0, DWORD PTR [esi]
  000fb	f3 0f 10 08	 movss	 xmm1, DWORD PTR [eax]
  000ff	f3 0f 10 50 04	 movss	 xmm2, DWORD PTR [eax+4]
  00104	f3 0f 10 58 08	 movss	 xmm3, DWORD PTR [eax+8]
  00109	0f 5a c9	 cvtps2pd xmm1, xmm1
  0010c	0f 5a c0	 cvtps2pd xmm0, xmm0
  0010f	f2 0f 58 c1	 addsd	 xmm0, xmm1
  00113	f3 0f 10 4e 04	 movss	 xmm1, DWORD PTR [esi+4]
  00118	0f 5a d2	 cvtps2pd xmm2, xmm2
  0011b	0f 5a c9	 cvtps2pd xmm1, xmm1
  0011e	f2 0f 58 ca	 addsd	 xmm1, xmm2
  00122	f3 0f 10 56 08	 movss	 xmm2, DWORD PTR [esi+8]
  00127	0f 5a d2	 cvtps2pd xmm2, xmm2
  0012a	0f 5a db	 cvtps2pd xmm3, xmm3
  0012d	f2 0f 58 d3	 addsd	 xmm2, xmm3
  00131	66 0f 5a c0	 cvtpd2ps xmm0, xmm0
  00135	f3 0f 11 45 e4	 movss	 DWORD PTR $T531773[ebp], xmm0
  0013a	66 0f 5a c9	 cvtpd2ps xmm1, xmm1
  0013e	f3 0f 11 4d e8	 movss	 DWORD PTR $T531773[ebp+4], xmm1
  00143	66 0f 5a d2	 cvtpd2ps xmm2, xmm2
  00147	f3 0f 11 55 ec	 movss	 DWORD PTR $T531773[ebp+8], xmm2
  0014c	8d 75 e4	 lea	 esi, DWORD PTR $T531773[ebp]
  0014f	8d 7d d8	 lea	 edi, DWORD PTR _vLinkPosOffset$[ebp]
  00152	a5		 movsd
  00153	a5		 movsd
  00154	a5		 movsd

; 142  : 			vLinkPosOffset = vLinkPosOffset * pOwner->GetWorldScale();

  00155	8b 03		 mov	 eax, DWORD PTR [ebx]
  00157	83 c4 0c	 add	 esp, 12			; 0000000cH
  0015a	8b cb		 mov	 ecx, ebx
  0015c	ff 50 78	 call	 DWORD PTR [eax+120]
  0015f	50		 push	 eax
  00160	8d 45 d8	 lea	 eax, DWORD PTR _vLinkPosOffset$[ebp]
  00163	50		 push	 eax
  00164	8d 45 e4	 lea	 eax, DWORD PTR $T531774[ebp]
  00167	50		 push	 eax
  00168	ff 15 00 00 00
	00		 call	 DWORD PTR __imp_??D@YA?AUD3DXVECTOR3@@ABU0@0@Z
  0016e	8b f0		 mov	 esi, eax
  00170	8d 7d d8	 lea	 edi, DWORD PTR _vLinkPosOffset$[ebp]
  00173	a5		 movsd
  00174	a5		 movsd
  00175	a5		 movsd

; 143  : 			vLinkPosOffset = pOwner->GetWorldOrientation() * vLinkPosOffset + pOwner->GetWorldPosition();

  00176	8b 03		 mov	 eax, DWORD PTR [ebx]
  00178	83 c4 0c	 add	 esp, 12			; 0000000cH
  0017b	8b cb		 mov	 ecx, ebx
  0017d	ff 50 70	 call	 DWORD PTR [eax+112]
  00180	8b f0		 mov	 esi, eax
  00182	8d 45 d8	 lea	 eax, DWORD PTR _vLinkPosOffset$[ebp]
  00185	50		 push	 eax
  00186	8b 03		 mov	 eax, DWORD PTR [ebx]
  00188	8b cb		 mov	 ecx, ebx
  0018a	ff 50 74	 call	 DWORD PTR [eax+116]
  0018d	50		 push	 eax
  0018e	8d 45 cc	 lea	 eax, DWORD PTR $T531775[ebp]
  00191	50		 push	 eax
  00192	ff 15 00 00 00
	00		 call	 DWORD PTR __imp_??D@YA?AUD3DXVECTOR3@@ABUD3DXQUATERNION@@ABU0@@Z
  00198	f3 0f 10 06	 movss	 xmm0, DWORD PTR [esi]
  0019c	f3 0f 10 08	 movss	 xmm1, DWORD PTR [eax]
  001a0	f3 0f 10 50 04	 movss	 xmm2, DWORD PTR [eax+4]
  001a5	0f 5a c9	 cvtps2pd xmm1, xmm1
  001a8	0f 5a c0	 cvtps2pd xmm0, xmm0
  001ab	f2 0f 58 c1	 addsd	 xmm0, xmm1
  001af	f3 0f 10 4e 04	 movss	 xmm1, DWORD PTR [esi+4]
  001b4	0f 5a c9	 cvtps2pd xmm1, xmm1
  001b7	0f 5a d2	 cvtps2pd xmm2, xmm2
  001ba	f2 0f 58 ca	 addsd	 xmm1, xmm2
  001be	83 c4 0c	 add	 esp, 12			; 0000000cH
  001c1	66 0f 5a c0	 cvtpd2ps xmm0, xmm0
  001c5	66 0f 5a c9	 cvtpd2ps xmm1, xmm1
  001c9	f3 0f 10 56 08	 movss	 xmm2, DWORD PTR [esi+8]
  001ce	f3 0f 10 58 08	 movss	 xmm3, DWORD PTR [eax+8]

; 144  : 			SetPosition( vLinkPosOffset );

  001d3	8b 4d c0	 mov	 ecx, DWORD PTR _this$GSCopy$[ebp]
  001d6	0f 5a d2	 cvtps2pd xmm2, xmm2
  001d9	0f 5a db	 cvtps2pd xmm3, xmm3
  001dc	f2 0f 58 d3	 addsd	 xmm2, xmm3
  001e0	f3 0f 11 45 e4	 movss	 DWORD PTR $T531776[ebp], xmm0
  001e5	f3 0f 11 4d e8	 movss	 DWORD PTR $T531776[ebp+4], xmm1
  001ea	66 0f 5a d2	 cvtpd2ps xmm2, xmm2
  001ee	f3 0f 11 55 ec	 movss	 DWORD PTR $T531776[ebp+8], xmm2
  001f3	8d 75 e4	 lea	 esi, DWORD PTR $T531776[ebp]
  001f6	8d 7d d8	 lea	 edi, DWORD PTR _vLinkPosOffset$[ebp]
  001f9	a5		 movsd
  001fa	a5		 movsd
  001fb	8d 45 d8	 lea	 eax, DWORD PTR _vLinkPosOffset$[ebp]
  001fe	50		 push	 eax
  001ff	a5		 movsd
  00200	e8 00 00 00 00	 call	 ?SetPosition@ioWeapon@@QAEXABUD3DXVECTOR3@@@Z ; ioWeapon::SetPosition
  00205	8b 75 c0	 mov	 esi, DWORD PTR _this$GSCopy$[ebp]
$LN1@CreateFire:

; 145  : 		}
; 146  : 	}
; 147  : 
; 148  : 	AddEffectEvent( m_pFireBall );

  00208	ff b6 a4 09 00
	00		 push	 DWORD PTR [esi+2468]
  0020e	8b 06		 mov	 eax, DWORD PTR [esi]
  00210	8b ce		 mov	 ecx, esi
  00212	ff 90 68 01 00
	00		 call	 DWORD PTR [eax+360]

; 149  : 	return true;

  00218	83 4d fc ff	 or	 DWORD PTR __$EHRec$[ebp+8], -1
  0021c	8d 4d ac	 lea	 ecx, DWORD PTR _szLinkBiped$[ebp]
  0021f	ff 15 00 00 00
	00		 call	 DWORD PTR __imp_??1ioHashString@@QAE@XZ
  00225	b0 01		 mov	 al, 1
$LN5@CreateFire:

; 150  : }

  00227	e8 00 00 00 00	 call	 __EH_epilog3_GS
  0022c	c2 04 00	 ret	 4
_TEXT	ENDS
;	COMDAT text$x
text$x	SEGMENT
__unwindfunclet$?CreateFireBall@ioTraceWeaponType3@@IAE_NABVioHashString@@@Z$0:
  00000	8d 4d ac	 lea	 ecx, DWORD PTR _szLinkBiped$[ebp]
  00003	ff 25 00 00 00
	00		 jmp	 DWORD PTR __imp_??1ioHashString@@QAE@XZ
__unwindfunclet$?CreateFireBall@ioTraceWeaponType3@@IAE_NABVioHashString@@@Z$1:
  00009	8b 45 bc	 mov	 eax, DWORD PTR $T535953[ebp]
  0000c	83 e0 01	 and	 eax, 1
  0000f	0f 84 0d 00 00
	00		 je	 $LN13@CreateFire
  00015	83 65 bc fe	 and	 DWORD PTR $T535953[ebp], -2 ; fffffffeH
  00019	8d 4d c8	 lea	 ecx, DWORD PTR $T535948[ebp]
  0001c	ff 25 00 00 00
	00		 jmp	 DWORD PTR __imp_??1ioHashString@@QAE@XZ
$LN13@CreateFire:
  00022	c3		 ret	 0
__ehhandler$?CreateFireBall@ioTraceWeaponType3@@IAE_NABVioHashString@@@Z:
  00023	8b 54 24 08	 mov	 edx, DWORD PTR [esp+8]
  00027	8d 42 0c	 lea	 eax, DWORD PTR [edx+12]
  0002a	8b 4a 98	 mov	 ecx, DWORD PTR [edx-104]
  0002d	33 c8		 xor	 ecx, eax
  0002f	e8 00 00 00 00	 call	 @__security_check_cookie@4
  00034	8b 4a fc	 mov	 ecx, DWORD PTR [edx-4]
  00037	33 c8		 xor	 ecx, eax
  00039	e8 00 00 00 00	 call	 @__security_check_cookie@4
  0003e	b8 00 00 00 00	 mov	 eax, OFFSET __ehfuncinfo$?CreateFireBall@ioTraceWeaponType3@@IAE_NABVioHashString@@@Z
  00043	e9 00 00 00 00	 jmp	 ___CxxFrameHandler3
text$x	ENDS
?CreateFireBall@ioTraceWeaponType3@@IAE_NABVioHashString@@@Z ENDP ; ioTraceWeaponType3::CreateFireBall
PUBLIC	__real@4f800000
PUBLIC	?SetStartPosition@ioTraceWeaponType3@@UAEXABUD3DXVECTOR3@@PAVioPlayStage@@@Z ; ioTraceWeaponType3::SetStartPosition
EXTRN	?SetOrientation@ioWeapon@@QAEXABUD3DXQUATERNION@@@Z:PROC ; ioWeapon::SetOrientation
EXTRN	__imp_?HasLinkedSystem@ioEffect@@QBE_NXZ:PROC
;	COMDAT __real@4f800000
; File d:\lost saga for developer\youtube\tutorial\source\src\lsclient\iobasechar.h
CONST	SEGMENT
__real@4f800000 DD 04f800000r			; 4.29497e+009
CONST	ENDS
;	COMDAT xdata$x
xdata$x	SEGMENT
__unwindtable$?SetStartPosition@ioTraceWeaponType3@@UAEXABUD3DXVECTOR3@@PAVioPlayStage@@@Z DD 0ffffffffH
	DD	FLAT:__unwindfunclet$?SetStartPosition@ioTraceWeaponType3@@UAEXABUD3DXVECTOR3@@PAVioPlayStage@@@Z$0
__ehfuncinfo$?SetStartPosition@ioTraceWeaponType3@@UAEXABUD3DXVECTOR3@@PAVioPlayStage@@@Z DD 019930522H
	DD	01H
	DD	FLAT:__unwindtable$?SetStartPosition@ioTraceWeaponType3@@UAEXABUD3DXVECTOR3@@PAVioPlayStage@@@Z
	DD	2 DUP(00H)
	DD	2 DUP(00H)
	DD	00H
	DD	01H
; Function compile flags: /Ogsp
; File d:\lost saga for developer\youtube\tutorial\source\src\lsclient\iotraceweapontype3.cpp
xdata$x	ENDS
;	COMDAT ?SetStartPosition@ioTraceWeaponType3@@UAEXABUD3DXVECTOR3@@PAVioPlayStage@@@Z
_TEXT	SEGMENT
tv297 = -76						; size = 4
tv278 = -76						; size = 4
$T536020 = -76						; size = 4
$T536016 = -69						; size = 1
$T531795 = -68						; size = 12
$T536017 = -56						; size = 16
$T531792 = -52						; size = 12
$T531794 = -40						; size = 12
$T531791 = -28						; size = 12
__$EHRec$ = -12						; size = 12
_vPos$ = 8						; size = 4
_pStage$ = 12						; size = 4
?SetStartPosition@ioTraceWeaponType3@@UAEXABUD3DXVECTOR3@@PAVioPlayStage@@@Z PROC ; ioTraceWeaponType3::SetStartPosition, COMDAT
; _this$ = ecx

; 157  : {

  00000	6a 40		 push	 64			; 00000040H
  00002	b8 00 00 00 00	 mov	 eax, __ehhandler$?SetStartPosition@ioTraceWeaponType3@@UAEXABUD3DXVECTOR3@@PAVioPlayStage@@@Z
  00007	e8 00 00 00 00	 call	 __EH_prolog3_GS
  0000c	83 65 b4 00	 and	 DWORD PTR $T536020[ebp], 0
  00010	8b 75 08	 mov	 esi, DWORD PTR _vPos$[ebp]
  00013	8b d9		 mov	 ebx, ecx

; 158  : 	if( m_pFireBall && m_pFireBall->GetSkeletonName().IsEmpty() && m_pFireBall->HasLinkedSystem() )

  00015	8b 8b a4 09 00
	00		 mov	 ecx, DWORD PTR [ebx+2468]
  0001b	85 c9		 test	 ecx, ecx
  0001d	74 35		 je	 SHORT $LN4@SetStartPo
  0001f	8d 45 c8	 lea	 eax, DWORD PTR $T536017[ebp]
  00022	50		 push	 eax
  00023	ff 15 00 00 00
	00		 call	 DWORD PTR __imp_?GetSkeletonName@ioEffect@@QBE?AVioHashString@@XZ
  00029	83 65 fc 00	 and	 DWORD PTR __$EHRec$[ebp+8], 0
  0002d	8b c8		 mov	 ecx, eax
  0002f	c7 45 b4 01 00
	00 00		 mov	 DWORD PTR $T536020[ebp], 1
  00036	ff 15 00 00 00
	00		 call	 DWORD PTR __imp_?IsEmpty@ioHashString@@QBE_NXZ
  0003c	84 c0		 test	 al, al
  0003e	74 14		 je	 SHORT $LN4@SetStartPo
  00040	8b 8b a4 09 00
	00		 mov	 ecx, DWORD PTR [ebx+2468]
  00046	ff 15 00 00 00
	00		 call	 DWORD PTR __imp_?HasLinkedSystem@ioEffect@@QBE_NXZ
  0004c	c6 45 bb 01	 mov	 BYTE PTR $T536016[ebp], 1
  00050	84 c0		 test	 al, al
  00052	75 04		 jne	 SHORT $LN5@SetStartPo
$LN4@SetStartPo:
  00054	c6 45 bb 00	 mov	 BYTE PTR $T536016[ebp], 0
$LN5@SetStartPo:
  00058	83 4d fc ff	 or	 DWORD PTR __$EHRec$[ebp+8], -1
  0005c	f6 45 b4 01	 test	 BYTE PTR $T536020[ebp], 1
  00060	74 09		 je	 SHORT $LN8@SetStartPo
  00062	8d 4d c8	 lea	 ecx, DWORD PTR $T536017[ebp]
  00065	ff 15 00 00 00
	00		 call	 DWORD PTR __imp_??1ioHashString@@QAE@XZ
$LN8@SetStartPo:
  0006b	80 7d bb 00	 cmp	 BYTE PTR $T536016[ebp], 0
  0006f	74 3d		 je	 SHORT $LN1@SetStartPo

; 159  : 	{
; 160  : 		m_vMoveDir = GetOwner()->GetTargetRot() * D3DXVECTOR3( 0.0f, 0.0f, -FLOAT1 );

  00071	b8 01 00 00 00	 mov	 eax, 1
  00076	0f 57 c0	 xorps	 xmm0, xmm0
  00079	89 45 b4	 mov	 DWORD PTR tv297[ebp], eax
  0007c	db 45 b4	 fild	 DWORD PTR tv297[ebp]
  0007f	f3 0f 11 45 e4	 movss	 DWORD PTR $T531791[ebp], xmm0
  00084	f3 0f 11 45 e8	 movss	 DWORD PTR $T531791[ebp+4], xmm0
  00089	85 c0		 test	 eax, eax
  0008b	79 06		 jns	 SHORT $LN27@SetStartPo
  0008d	d8 05 00 00 00
	00		 fadd	 DWORD PTR __real@4f800000
$LN27@SetStartPo:
  00093	d9 e0		 fchs
  00095	8b cb		 mov	 ecx, ebx
  00097	d9 5d ec	 fstp	 DWORD PTR $T531791[ebp+8]
  0009a	e8 00 00 00 00	 call	 ?GetOwner@ioWeapon@@QBEPAVioBaseChar@@XZ ; ioWeapon::GetOwner
  0009f	8d 4d e4	 lea	 ecx, DWORD PTR $T531791[ebp]
  000a2	05 a4 06 00 00	 add	 eax, 1700		; 000006a4H
  000a7	51		 push	 ecx
  000a8	50		 push	 eax
  000a9	8d 45 cc	 lea	 eax, DWORD PTR $T531792[ebp]

; 161  : 		SetOrientation( GetOwner()->GetTargetRot() );
; 162  : 		return;

  000ac	eb 43		 jmp	 SHORT $LN29@SetStartPo
$LN1@SetStartPo:

; 163  : 	}
; 164  : 
; 165  : 	SetPosition( vPos );

  000ae	56		 push	 esi
  000af	8b cb		 mov	 ecx, ebx
  000b1	e8 00 00 00 00	 call	 ?SetPosition@ioWeapon@@QAEXABUD3DXVECTOR3@@@Z ; ioWeapon::SetPosition

; 166  : 	m_vMoveDir = GetOwner()->GetTargetRot() * D3DXVECTOR3( 0.0f, 0.0f, -FLOAT1 );

  000b6	b8 01 00 00 00	 mov	 eax, 1
  000bb	0f 57 c0	 xorps	 xmm0, xmm0
  000be	89 45 b4	 mov	 DWORD PTR tv278[ebp], eax
  000c1	db 45 b4	 fild	 DWORD PTR tv278[ebp]
  000c4	f3 0f 11 45 d8	 movss	 DWORD PTR $T531794[ebp], xmm0
  000c9	f3 0f 11 45 dc	 movss	 DWORD PTR $T531794[ebp+4], xmm0
  000ce	85 c0		 test	 eax, eax
  000d0	79 06		 jns	 SHORT $LN28@SetStartPo
  000d2	d8 05 00 00 00
	00		 fadd	 DWORD PTR __real@4f800000
$LN28@SetStartPo:
  000d8	d9 e0		 fchs
  000da	8b cb		 mov	 ecx, ebx
  000dc	d9 5d e0	 fstp	 DWORD PTR $T531794[ebp+8]
  000df	e8 00 00 00 00	 call	 ?GetOwner@ioWeapon@@QBEPAVioBaseChar@@XZ ; ioWeapon::GetOwner
  000e4	8d 4d d8	 lea	 ecx, DWORD PTR $T531794[ebp]
  000e7	05 a4 06 00 00	 add	 eax, 1700		; 000006a4H
  000ec	51		 push	 ecx
  000ed	50		 push	 eax
  000ee	8d 45 bc	 lea	 eax, DWORD PTR $T531795[ebp]
$LN29@SetStartPo:
  000f1	50		 push	 eax
  000f2	ff 15 00 00 00
	00		 call	 DWORD PTR __imp_??D@YA?AUD3DXVECTOR3@@ABUD3DXQUATERNION@@ABU0@@Z
  000f8	8b f0		 mov	 esi, eax
  000fa	8d bb 58 09 00
	00		 lea	 edi, DWORD PTR [ebx+2392]
  00100	a5		 movsd
  00101	a5		 movsd
  00102	83 c4 0c	 add	 esp, 12			; 0000000cH

; 167  : 	SetOrientation( GetOwner()->GetTargetRot() );

  00105	8b cb		 mov	 ecx, ebx
  00107	a5		 movsd
  00108	e8 00 00 00 00	 call	 ?GetOwner@ioWeapon@@QBEPAVioBaseChar@@XZ ; ioWeapon::GetOwner
  0010d	05 a4 06 00 00	 add	 eax, 1700		; 000006a4H
  00112	50		 push	 eax
  00113	8b cb		 mov	 ecx, ebx
  00115	e8 00 00 00 00	 call	 ?SetOrientation@ioWeapon@@QAEXABUD3DXQUATERNION@@@Z ; ioWeapon::SetOrientation

; 168  : }

  0011a	e8 00 00 00 00	 call	 __EH_epilog3_GS
  0011f	c2 08 00	 ret	 8
_TEXT	ENDS
;	COMDAT text$x
text$x	SEGMENT
__unwindfunclet$?SetStartPosition@ioTraceWeaponType3@@UAEXABUD3DXVECTOR3@@PAVioPlayStage@@@Z$0:
  00000	8b 45 b4	 mov	 eax, DWORD PTR $T536020[ebp]
  00003	83 e0 01	 and	 eax, 1
  00006	0f 84 0d 00 00
	00		 je	 $LN7@SetStartPo
  0000c	83 65 b4 fe	 and	 DWORD PTR $T536020[ebp], -2 ; fffffffeH
  00010	8d 4d c8	 lea	 ecx, DWORD PTR $T536017[ebp]
  00013	ff 25 00 00 00
	00		 jmp	 DWORD PTR __imp_??1ioHashString@@QAE@XZ
$LN7@SetStartPo:
  00019	c3		 ret	 0
__ehhandler$?SetStartPosition@ioTraceWeaponType3@@UAEXABUD3DXVECTOR3@@PAVioPlayStage@@@Z:
  0001a	8b 54 24 08	 mov	 edx, DWORD PTR [esp+8]
  0001e	8d 42 0c	 lea	 eax, DWORD PTR [edx+12]
  00021	8b 4a b0	 mov	 ecx, DWORD PTR [edx-80]
  00024	33 c8		 xor	 ecx, eax
  00026	e8 00 00 00 00	 call	 @__security_check_cookie@4
  0002b	8b 4a fc	 mov	 ecx, DWORD PTR [edx-4]
  0002e	33 c8		 xor	 ecx, eax
  00030	e8 00 00 00 00	 call	 @__security_check_cookie@4
  00035	b8 00 00 00 00	 mov	 eax, OFFSET __ehfuncinfo$?SetStartPosition@ioTraceWeaponType3@@UAEXABUD3DXVECTOR3@@PAVioPlayStage@@@Z
  0003a	e9 00 00 00 00	 jmp	 ___CxxFrameHandler3
text$x	ENDS
?SetStartPosition@ioTraceWeaponType3@@UAEXABUD3DXVECTOR3@@PAVioPlayStage@@@Z ENDP ; ioTraceWeaponType3::SetStartPosition
PUBLIC	__$ArrayPad$
PUBLIC	?SetExplosionWaitState@ioTraceWeaponType3@@QAEXPAVioPlayStage@@_N@Z ; ioTraceWeaponType3::SetExplosionWaitState
EXTRN	??1SP2Packet@@UAE@XZ:PROC			; SP2Packet::~SP2Packet
EXTRN	?SendToAllPlayingUser@P2PNetwork@@YAXAAVSP2Packet@@PAVioBaseChar@@@Z:PROC ; P2PNetwork::SendToAllPlayingUser
EXTRN	??6SP2Packet@@QAEAAV0@ABUD3DXVECTOR3@@@Z:PROC	; SP2Packet::operator<<
EXTRN	??6SP2Packet@@QAEAAV0@K@Z:PROC			; SP2Packet::operator<<
EXTRN	??6SP2Packet@@QAEAAV0@ABVioHashString@@@Z:PROC	; SP2Packet::operator<<
EXTRN	??0SP2Packet@@QAE@K@Z:PROC			; SP2Packet::SP2Packet
EXTRN	?IsNetworkMode@ioPlayStage@@QAE_NXZ:PROC	; ioPlayStage::IsNetworkMode
EXTRN	?IsNetworkPlaying@P2PNetwork@@YA_NXZ:PROC	; P2PNetwork::IsNetworkPlaying
EXTRN	__imp_?GetLoopSec@ioFrameTimer@@QBEKXZ:PROC
EXTRN	__imp_?GetSingleton@ioFrameTimer@@SAAAV1@XZ:PROC
EXTRN	___security_cookie:DWORD
EXTRN	__chkstk:PROC
;	COMDAT xdata$x
; File d:\lost saga for developer\youtube\tutorial\source\src\lsclient\ioweapon.h
xdata$x	SEGMENT
__unwindtable$?SetExplosionWaitState@ioTraceWeaponType3@@QAEXPAVioPlayStage@@_N@Z DD 0ffffffffH
	DD	FLAT:__unwindfunclet$?SetExplosionWaitState@ioTraceWeaponType3@@QAEXPAVioPlayStage@@_N@Z$0
__ehfuncinfo$?SetExplosionWaitState@ioTraceWeaponType3@@QAEXPAVioPlayStage@@_N@Z DD 019930522H
	DD	01H
	DD	FLAT:__unwindtable$?SetExplosionWaitState@ioTraceWeaponType3@@QAEXPAVioPlayStage@@_N@Z
	DD	2 DUP(00H)
	DD	2 DUP(00H)
	DD	00H
	DD	01H
; Function compile flags: /Ogsp
; File d:\lost saga for developer\youtube\tutorial\source\src\lsclient\iotraceweapontype3.cpp
xdata$x	ENDS
;	COMDAT ?SetExplosionWaitState@ioTraceWeaponType3@@QAEXPAVioPlayStage@@_N@Z
_TEXT	SEGMENT
_kPacket$531957 = -32808				; size = 32792
__$ArrayPad$ = -16					; size = 4
__$EHRec$ = -12						; size = 12
_pStage$ = 8						; size = 4
_bSendNetwork$ = 12					; size = 1
?SetExplosionWaitState@ioTraceWeaponType3@@QAEXPAVioPlayStage@@_N@Z PROC ; ioTraceWeaponType3::SetExplosionWaitState, COMDAT
; _this$ = ecx

; 452  : {

  00000	55		 push	 ebp
  00001	8b ec		 mov	 ebp, esp
  00003	6a ff		 push	 -1
  00005	68 00 00 00 00	 push	 __ehhandler$?SetExplosionWaitState@ioTraceWeaponType3@@QAEXPAVioPlayStage@@_N@Z
  0000a	64 a1 00 00 00
	00		 mov	 eax, DWORD PTR fs:0
  00010	50		 push	 eax
  00011	b8 1c 80 00 00	 mov	 eax, 32796		; 0000801cH
  00016	e8 00 00 00 00	 call	 __chkstk
  0001b	a1 00 00 00 00	 mov	 eax, DWORD PTR ___security_cookie
  00020	33 c5		 xor	 eax, ebp
  00022	89 45 f0	 mov	 DWORD PTR __$ArrayPad$[ebp], eax
  00025	53		 push	 ebx
  00026	56		 push	 esi
  00027	50		 push	 eax
  00028	8d 45 f4	 lea	 eax, DWORD PTR __$EHRec$[ebp]
  0002b	64 a3 00 00 00
	00		 mov	 DWORD PTR fs:0, eax
  00031	8b 5d 08	 mov	 ebx, DWORD PTR _pStage$[ebp]
  00034	8b f1		 mov	 esi, ecx

; 453  : 	if( m_State == TS_WAIT_EXPLOSION || m_State == TS_EXPLOSION )

  00036	8b 86 94 08 00
	00		 mov	 eax, DWORD PTR [esi+2196]
  0003c	83 f8 03	 cmp	 eax, 3
  0003f	0f 84 af 00 00
	00		 je	 $LN3@SetExplosi
  00045	83 f8 04	 cmp	 eax, 4
  00048	0f 84 a6 00 00
	00		 je	 $LN3@SetExplosi

; 454  : 		return;
; 455  : 
; 456  : 	DWORD dwCurTime = FRAMEGETTIME();

  0004e	ff 15 00 00 00
	00		 call	 DWORD PTR __imp_?GetSingleton@ioFrameTimer@@SAAAV1@XZ
  00054	8b c8		 mov	 ecx, eax
  00056	ff 15 00 00 00
	00		 call	 DWORD PTR __imp_?GetLoopSec@ioFrameTimer@@QBEKXZ

; 457  : 
; 458  : 	m_dwExplosionTime = dwCurTime + m_dwExplosionWaitTime;

  0005c	8b 8e 9c 09 00
	00		 mov	 ecx, DWORD PTR [esi+2460]
  00062	03 c8		 add	 ecx, eax

; 459  : 	m_State = TS_WAIT_EXPLOSION;
; 460  : 
; 461  : 	if( bSendNetwork )

  00064	80 7d 0c 00	 cmp	 BYTE PTR _bSendNetwork$[ebp], 0
  00068	89 8e 98 09 00
	00		 mov	 DWORD PTR [esi+2456], ecx
  0006e	c7 86 94 08 00
	00 03 00 00 00	 mov	 DWORD PTR [esi+2196], 3
  00078	74 7a		 je	 SHORT $LN3@SetExplosi

; 462  : 	{
; 463  : 		if( P2PNetwork::IsNetworkPlaying() && pStage->IsNetworkMode() )

  0007a	e8 00 00 00 00	 call	 ?IsNetworkPlaying@P2PNetwork@@YA_NXZ ; P2PNetwork::IsNetworkPlaying
  0007f	84 c0		 test	 al, al
  00081	74 71		 je	 SHORT $LN3@SetExplosi
  00083	8b cb		 mov	 ecx, ebx
  00085	e8 00 00 00 00	 call	 ?IsNetworkMode@ioPlayStage@@QAE_NXZ ; ioPlayStage::IsNetworkMode
  0008a	84 c0		 test	 al, al
  0008c	74 66		 je	 SHORT $LN3@SetExplosi

; 464  : 		{
; 465  : 			SP2Packet kPacket( CUPK_TRACE_WEAPON_WAIT );

  0008e	68 00 42 00 00	 push	 16896			; 00004200H
  00093	8d 8d d8 7f ff
	ff		 lea	 ecx, DWORD PTR _kPacket$531957[ebp]
  00099	e8 00 00 00 00	 call	 ??0SP2Packet@@QAE@K@Z	; SP2Packet::SP2Packet
  0009e	83 65 fc 00	 and	 DWORD PTR __$EHRec$[ebp+8], 0

; 466  : 			kPacket << GetOwnerName();

  000a2	8d 46 10	 lea	 eax, DWORD PTR [esi+16]
  000a5	50		 push	 eax
  000a6	8d 8d d8 7f ff
	ff		 lea	 ecx, DWORD PTR _kPacket$531957[ebp]
  000ac	e8 00 00 00 00	 call	 ??6SP2Packet@@QAEAAV0@ABVioHashString@@@Z ; SP2Packet::operator<<

; 467  : 			kPacket << m_dwWeaponIdx;

  000b1	ff b6 b8 04 00
	00		 push	 DWORD PTR [esi+1208]
  000b7	8d 8d d8 7f ff
	ff		 lea	 ecx, DWORD PTR _kPacket$531957[ebp]
  000bd	e8 00 00 00 00	 call	 ??6SP2Packet@@QAEAAV0@K@Z ; SP2Packet::operator<<

; 468  : 			kPacket << GetPosition();

  000c2	8b 06		 mov	 eax, DWORD PTR [esi]
  000c4	8b ce		 mov	 ecx, esi
  000c6	ff 50 70	 call	 DWORD PTR [eax+112]
  000c9	50		 push	 eax
  000ca	8d 8d d8 7f ff
	ff		 lea	 ecx, DWORD PTR _kPacket$531957[ebp]
  000d0	e8 00 00 00 00	 call	 ??6SP2Packet@@QAEAAV0@ABUD3DXVECTOR3@@@Z ; SP2Packet::operator<<

; 469  : 			P2PNetwork::SendToAllPlayingUser( kPacket );

  000d5	8d 85 d8 7f ff
	ff		 lea	 eax, DWORD PTR _kPacket$531957[ebp]
  000db	6a 00		 push	 0
  000dd	50		 push	 eax
  000de	e8 00 00 00 00	 call	 ?SendToAllPlayingUser@P2PNetwork@@YAXAAVSP2Packet@@PAVioBaseChar@@@Z ; P2PNetwork::SendToAllPlayingUser

; 470  : 		}

  000e3	83 4d fc ff	 or	 DWORD PTR __$EHRec$[ebp+8], -1
  000e7	59		 pop	 ecx
  000e8	59		 pop	 ecx
  000e9	8d 8d d8 7f ff
	ff		 lea	 ecx, DWORD PTR _kPacket$531957[ebp]
  000ef	e8 00 00 00 00	 call	 ??1SP2Packet@@UAE@XZ	; SP2Packet::~SP2Packet
$LN3@SetExplosi:

; 471  : 	}
; 472  : }

  000f4	8b 4d f4	 mov	 ecx, DWORD PTR __$EHRec$[ebp]
  000f7	64 89 0d 00 00
	00 00		 mov	 DWORD PTR fs:0, ecx
  000fe	59		 pop	 ecx
  000ff	5e		 pop	 esi
  00100	5b		 pop	 ebx
  00101	8b 4d f0	 mov	 ecx, DWORD PTR __$ArrayPad$[ebp]
  00104	33 cd		 xor	 ecx, ebp
  00106	e8 00 00 00 00	 call	 @__security_check_cookie@4
  0010b	c9		 leave
  0010c	c2 08 00	 ret	 8
_TEXT	ENDS
;	COMDAT text$x
text$x	SEGMENT
__unwindfunclet$?SetExplosionWaitState@ioTraceWeaponType3@@QAEXPAVioPlayStage@@_N@Z$0:
  00000	8d 8d d8 7f ff
	ff		 lea	 ecx, DWORD PTR _kPacket$531957[ebp]
  00006	e9 00 00 00 00	 jmp	 ??1SP2Packet@@UAE@XZ	; SP2Packet::~SP2Packet
__ehhandler$?SetExplosionWaitState@ioTraceWeaponType3@@QAEXPAVioPlayStage@@_N@Z:
  0000b	8b 54 24 08	 mov	 edx, DWORD PTR [esp+8]
  0000f	8d 42 0c	 lea	 eax, DWORD PTR [edx+12]
  00012	8b 8a d8 7f ff
	ff		 mov	 ecx, DWORD PTR [edx-32808]
  00018	33 c8		 xor	 ecx, eax
  0001a	e8 00 00 00 00	 call	 @__security_check_cookie@4
  0001f	8b 4a fc	 mov	 ecx, DWORD PTR [edx-4]
  00022	33 c8		 xor	 ecx, eax
  00024	e8 00 00 00 00	 call	 @__security_check_cookie@4
  00029	b8 00 00 00 00	 mov	 eax, OFFSET __ehfuncinfo$?SetExplosionWaitState@ioTraceWeaponType3@@QAEXPAVioPlayStage@@_N@Z
  0002e	e9 00 00 00 00	 jmp	 ___CxxFrameHandler3
text$x	ENDS
?SetExplosionWaitState@ioTraceWeaponType3@@QAEXPAVioPlayStage@@_N@Z ENDP ; ioTraceWeaponType3::SetExplosionWaitState
PUBLIC	?IsCanMineExplosion@ioTraceWeaponType3@@UAE_NXZ	; ioTraceWeaponType3::IsCanMineExplosion
EXTRN	?HasPeculiarity@ioWeapon@@QBE_NK@Z:PROC		; ioWeapon::HasPeculiarity
; Function compile flags: /Ogsp
;	COMDAT ?IsCanMineExplosion@ioTraceWeaponType3@@UAE_NXZ
_TEXT	SEGMENT
?IsCanMineExplosion@ioTraceWeaponType3@@UAE_NXZ PROC	; ioTraceWeaponType3::IsCanMineExplosion, COMDAT
; _this$ = ecx

; 508  : {

  00000	56		 push	 esi
  00001	8b f1		 mov	 esi, ecx

; 509  : 	if( !IsLive() )	return false;

  00003	80 be 82 05 00
	00 00		 cmp	 BYTE PTR [esi+1410], 0
  0000a	74 30		 je	 SHORT $LN2@IsCanMineE

; 510  : 	if( !HasPeculiarity( WP_MINE_EXPLOSION ) )

  0000c	6a 10		 push	 16			; 00000010H
  0000e	e8 00 00 00 00	 call	 ?HasPeculiarity@ioWeapon@@QBE_NK@Z ; ioWeapon::HasPeculiarity
  00013	84 c0		 test	 al, al

; 511  : 		return false;

  00015	74 25		 je	 SHORT $LN2@IsCanMineE

; 512  : 
; 513  : 	ioBaseChar *pOwner = GetOwner();

  00017	8b ce		 mov	 ecx, esi
  00019	e8 00 00 00 00	 call	 ?GetOwner@ioWeapon@@QBEPAVioBaseChar@@XZ ; ioWeapon::GetOwner

; 514  : 	if( !pOwner || !pOwner->IsNeedProcess() )

  0001e	85 c0		 test	 eax, eax
  00020	74 1a		 je	 SHORT $LN2@IsCanMineE
  00022	8b 10		 mov	 edx, DWORD PTR [eax]
  00024	8b c8		 mov	 ecx, eax
  00026	ff 92 00 01 00
	00		 call	 DWORD PTR [edx+256]
  0002c	84 c0		 test	 al, al
  0002e	74 0c		 je	 SHORT $LN2@IsCanMineE

; 516  : 
; 517  : 	if( m_State != TS_EXPLOSION )

  00030	83 be 94 08 00
	00 04		 cmp	 DWORD PTR [esi+2196], 4
  00037	5e		 pop	 esi
  00038	0f 94 c0	 sete	 al

; 518  : 		return false;
; 519  : 
; 520  : 	return true;
; 521  : }

  0003b	c3		 ret	 0
$LN2@IsCanMineE:

; 515  : 		return false;

  0003c	32 c0		 xor	 al, al
  0003e	5e		 pop	 esi

; 518  : 		return false;
; 519  : 
; 520  : 	return true;
; 521  : }

  0003f	c3		 ret	 0
?IsCanMineExplosion@ioTraceWeaponType3@@UAE_NXZ ENDP	; ioTraceWeaponType3::IsCanMineExplosion
_TEXT	ENDS
PUBLIC	_bMapCollision$GSCopy$
PUBLIC	__$ArrayPad$
PUBLIC	?IsCollision@ioTraceWeaponType3@@UAE_NPAVioPlayEntity@@_N@Z ; ioTraceWeaponType3::IsCollision
EXTRN	?GetWorldAttackBox@ioWeapon@@QBEABVioOrientBox@@_N@Z:PROC ; ioWeapon::GetWorldAttackBox
; Function compile flags: /Ogsp
;	COMDAT ?IsCollision@ioTraceWeaponType3@@UAE_NPAVioPlayEntity@@_N@Z
_TEXT	SEGMENT
_bCollision$ = -20					; size = 1
_bMapCollision$GSCopy$ = -20				; size = 1
_vColPoint$ = -16					; size = 12
__$ArrayPad$ = -4					; size = 4
_pEntity$ = 8						; size = 4
_bMapCollision$ = 12					; size = 1
?IsCollision@ioTraceWeaponType3@@UAE_NPAVioPlayEntity@@_N@Z PROC ; ioTraceWeaponType3::IsCollision, COMDAT
; _this$ = ecx

; 600  : {

  00000	55		 push	 ebp
  00001	8b ec		 mov	 ebp, esp
  00003	83 ec 14	 sub	 esp, 20			; 00000014H
  00006	a1 00 00 00 00	 mov	 eax, DWORD PTR ___security_cookie
  0000b	33 c5		 xor	 eax, ebp
  0000d	89 45 fc	 mov	 DWORD PTR __$ArrayPad$[ebp], eax

; 601  : 	bool bCollision = false;
; 602  : 
; 603  : 	D3DXVECTOR3 vColPoint( 0.0f, 0.0f, 0.0f );
; 604  : 	bCollision = pEntity->IsWoundedCollision( GetWorldAttackBox(bMapCollision), &vColPoint );

  00010	8a 45 0c	 mov	 al, BYTE PTR _bMapCollision$[ebp]
  00013	0f 57 c0	 xorps	 xmm0, xmm0
  00016	53		 push	 ebx
  00017	56		 push	 esi
  00018	8b 75 08	 mov	 esi, DWORD PTR _pEntity$[ebp]
  0001b	8b 1e		 mov	 ebx, DWORD PTR [esi]
  0001d	57		 push	 edi
  0001e	88 45 ec	 mov	 BYTE PTR _bMapCollision$GSCopy$[ebp], al
  00021	8d 45 f0	 lea	 eax, DWORD PTR _vColPoint$[ebp]
  00024	50		 push	 eax
  00025	ff 75 ec	 push	 DWORD PTR _bMapCollision$GSCopy$[ebp]
  00028	8b f9		 mov	 edi, ecx
  0002a	f3 0f 11 45 f0	 movss	 DWORD PTR _vColPoint$[ebp], xmm0
  0002f	f3 0f 11 45 f4	 movss	 DWORD PTR _vColPoint$[ebp+4], xmm0
  00034	f3 0f 11 45 f8	 movss	 DWORD PTR _vColPoint$[ebp+8], xmm0
  00039	e8 00 00 00 00	 call	 ?GetWorldAttackBox@ioWeapon@@QBEABVioOrientBox@@_N@Z ; ioWeapon::GetWorldAttackBox
  0003e	50		 push	 eax
  0003f	8b ce		 mov	 ecx, esi
  00041	ff 93 90 00 00
	00		 call	 DWORD PTR [ebx+144]
  00047	88 45 ec	 mov	 BYTE PTR _bCollision$[ebp], al

; 605  : 	
; 606  : 	CheckPiercing( bCollision );

  0004a	ff 75 ec	 push	 DWORD PTR _bCollision$[ebp]
  0004d	8b 07		 mov	 eax, DWORD PTR [edi]
  0004f	8b cf		 mov	 ecx, edi
  00051	ff 90 48 01 00
	00		 call	 DWORD PTR [eax+328]

; 607  : 
; 608  : 	return bCollision;
; 609  : }

  00057	8b 4d fc	 mov	 ecx, DWORD PTR __$ArrayPad$[ebp]
  0005a	8a 45 ec	 mov	 al, BYTE PTR _bCollision$[ebp]
  0005d	5f		 pop	 edi
  0005e	5e		 pop	 esi
  0005f	33 cd		 xor	 ecx, ebp
  00061	5b		 pop	 ebx
  00062	e8 00 00 00 00	 call	 @__security_check_cookie@4
  00067	c9		 leave
  00068	c2 08 00	 ret	 8
?IsCollision@ioTraceWeaponType3@@UAE_NPAVioPlayEntity@@_N@Z ENDP ; ioTraceWeaponType3::IsCollision
_TEXT	ENDS
PUBLIC	_this$GSCopy$
PUBLIC	__$ArrayPad$
PUBLIC	?RotateMoveDir@ioTraceWeaponType3@@IAEXMM@Z	; ioTraceWeaponType3::RotateMoveDir
EXTRN	_D3DXQuaternionRotationAxis@12:PROC
EXTRN	__imp_?UNIT_Y@ioMath@@2UD3DXVECTOR3@@A:BYTE
EXTRN	__imp_?ArrangeHead@ioMath@@SAMM@Z:PROC
; Function compile flags: /Ogsp
;	COMDAT ?RotateMoveDir@ioTraceWeaponType3@@IAEXMM@Z
_TEXT	SEGMENT
tv408 = -64						; size = 4
_v$536134 = -60						; size = 12
_qtRot$ = -48						; size = 16
_this$GSCopy$ = -32					; size = 4
$T532065 = -28						; size = 12
$T532064 = -28						; size = 12
$T532060 = -28						; size = 12
_vAxis$532062 = -16					; size = 12
__$ArrayPad$ = -4					; size = 4
_fAngleH$ = 8						; size = 4
_fAngleV$ = 12						; size = 4
?RotateMoveDir@ioTraceWeaponType3@@IAEXMM@Z PROC	; ioTraceWeaponType3::RotateMoveDir, COMDAT
; _this$ = ecx

; 650  : {

  00000	55		 push	 ebp
  00001	8b ec		 mov	 ebp, esp
  00003	83 ec 40	 sub	 esp, 64			; 00000040H
  00006	a1 00 00 00 00	 mov	 eax, DWORD PTR ___security_cookie
  0000b	33 c5		 xor	 eax, ebp
  0000d	89 45 fc	 mov	 DWORD PTR __$ArrayPad$[ebp], eax

; 651  : 	fAngleH = ioMath::ArrangeHead( fAngleH );

  00010	f3 0f 10 45 08	 movss	 xmm0, DWORD PTR _fAngleH$[ebp]
  00015	53		 push	 ebx
  00016	56		 push	 esi
  00017	57		 push	 edi
  00018	8b d9		 mov	 ebx, ecx
  0001a	51		 push	 ecx

; 667  : 	{
; 668  : 		D3DXVECTOR3 vAxis;
; 669  : 		D3DXVec3Cross( &vAxis, &m_vMoveDir, &D3DXVECTOR3( 0.0f, -FLOAT1, 0.0f ) );

  0001b	89 5d e0	 mov	 DWORD PTR _this$GSCopy$[ebp], ebx
  0001e	f3 0f 11 04 24	 movss	 DWORD PTR [esp], xmm0
  00023	ff 15 00 00 00
	00		 call	 DWORD PTR __imp_?ArrangeHead@ioMath@@SAMM@Z
  00029	d9 5d 08	 fstp	 DWORD PTR _fAngleH$[ebp]
  0002c	f3 0f 10 45 0c	 movss	 xmm0, DWORD PTR _fAngleV$[ebp]
  00031	f3 0f 11 04 24	 movss	 DWORD PTR [esp], xmm0
  00036	ff 15 00 00 00
	00		 call	 DWORD PTR __imp_?ArrangeHead@ioMath@@SAMM@Z
  0003c	d9 5d 0c	 fstp	 DWORD PTR _fAngleV$[ebp]
  0003f	d9 ee		 fldz
  00041	59		 pop	 ecx
  00042	d9 45 08	 fld	 DWORD PTR _fAngleH$[ebp]
  00045	df e9		 fucomip ST(1)
  00047	dd d8		 fstp	 ST(0)
  00049	9f		 lahf
  0004a	f6 c4 44	 test	 ah, 68			; 00000044H
  0004d	7b 61		 jnp	 SHORT $LN2@RotateMove

; 652  : 	fAngleV = ioMath::ArrangeHead( fAngleV );
; 653  : 
; 654  : 	D3DXQUATERNION qtRot;
; 655  : 
; 656  : 	// horizon
; 657  : 	if( fAngleH != 0.0f )
; 658  : 	{
; 659  : 		D3DXQuaternionRotationAxis( &qtRot, &ioMath::UNIT_Y, DEGtoRAD(fAngleH) );

  0004f	f3 0f 10 45 08	 movss	 xmm0, DWORD PTR _fAngleH$[ebp]
  00054	0f 5a c0	 cvtps2pd xmm0, xmm0
  00057	f2 0f 59 05 00
	00 00 00	 mulsd	 xmm0, QWORD PTR __real@3f91df46a2526c7a
  0005f	51		 push	 ecx
  00060	f2 0f 5a c0	 cvtsd2ss xmm0, xmm0
  00064	f3 0f 11 04 24	 movss	 DWORD PTR [esp], xmm0
  00069	ff 35 00 00 00
	00		 push	 DWORD PTR __imp_?UNIT_Y@ioMath@@2UD3DXVECTOR3@@A
  0006f	8d 45 d0	 lea	 eax, DWORD PTR _qtRot$[ebp]
  00072	50		 push	 eax
  00073	e8 00 00 00 00	 call	 _D3DXQuaternionRotationAxis@12

; 660  : 		m_vMoveDir = qtRot * m_vMoveDir;

  00078	8d bb 58 09 00
	00		 lea	 edi, DWORD PTR [ebx+2392]
  0007e	57		 push	 edi
  0007f	8d 45 d0	 lea	 eax, DWORD PTR _qtRot$[ebp]
  00082	50		 push	 eax
  00083	8d 45 e4	 lea	 eax, DWORD PTR $T532060[ebp]
  00086	50		 push	 eax
  00087	ff 15 00 00 00
	00		 call	 DWORD PTR __imp_??D@YA?AUD3DXVECTOR3@@ABUD3DXQUATERNION@@ABU0@@Z

; 661  : 
; 662  : 		GetParentSceneNode()->Rotate( ioMath::UNIT_Y, fAngleH );

  0008d	8b 4b 04	 mov	 ecx, DWORD PTR [ebx+4]
  00090	f3 0f 10 45 08	 movss	 xmm0, DWORD PTR _fAngleH$[ebp]
  00095	8b f0		 mov	 esi, eax
  00097	a5		 movsd
  00098	83 c4 0c	 add	 esp, 12			; 0000000cH
  0009b	a5		 movsd
  0009c	6a 01		 push	 1
  0009e	51		 push	 ecx
  0009f	a5		 movsd
  000a0	8b 01		 mov	 eax, DWORD PTR [ecx]
  000a2	f3 0f 11 04 24	 movss	 DWORD PTR [esp], xmm0
  000a7	ff 35 00 00 00
	00		 push	 DWORD PTR __imp_?UNIT_Y@ioMath@@2UD3DXVECTOR3@@A
  000ad	ff 50 50	 call	 DWORD PTR [eax+80]
$LN2@RotateMove:

; 663  : 	}
; 664  : 
; 665  : 	// vertical
; 666  : 	if( fAngleV != 0.0f )

  000b0	f3 0f 10 65 0c	 movss	 xmm4, DWORD PTR _fAngleV$[ebp]
  000b5	0f 2e 25 00 00
	00 00		 ucomiss xmm4, DWORD PTR __real@00000000
  000bc	9f		 lahf
  000bd	f6 c4 44	 test	 ah, 68			; 00000044H
  000c0	0f 8b f8 00 00
	00		 jnp	 $LN1@RotateMove

; 667  : 	{
; 668  : 		D3DXVECTOR3 vAxis;
; 669  : 		D3DXVec3Cross( &vAxis, &m_vMoveDir, &D3DXVECTOR3( 0.0f, -FLOAT1, 0.0f ) );

  000c6	b8 01 00 00 00	 mov	 eax, 1
  000cb	89 45 c0	 mov	 DWORD PTR tv408[ebp], eax
  000ce	db 45 c0	 fild	 DWORD PTR tv408[ebp]
  000d1	85 c0		 test	 eax, eax
  000d3	79 06		 jns	 SHORT $LN25@RotateMove
  000d5	d8 05 00 00 00
	00		 fadd	 DWORD PTR __real@4f800000
$LN25@RotateMove:
  000db	f3 0f 10 83 5c
	09 00 00	 movss	 xmm0, DWORD PTR [ebx+2396]
  000e3	d9 e0		 fchs
  000e5	f3 0f 10 93 60
	09 00 00	 movss	 xmm2, DWORD PTR [ebx+2400]
  000ed	d9 5d e8	 fstp	 DWORD PTR $T532064[ebp+4]
  000f0	f3 0f 10 6d e8	 movss	 xmm5, DWORD PTR $T532064[ebp+4]
  000f5	0f 5a c8	 cvtps2pd xmm1, xmm0
  000f8	0f 57 c0	 xorps	 xmm0, xmm0
  000fb	0f 5a da	 cvtps2pd xmm3, xmm2
  000fe	f2 0f 59 c8	 mulsd	 xmm1, xmm0
  00102	81 c3 58 09 00
	00		 add	 ebx, 2392		; 00000958H
  00108	0f 5a ed	 cvtps2pd xmm5, xmm5
  0010b	f2 0f 59 dd	 mulsd	 xmm3, xmm5
  0010f	66 0f 28 e9	 movapd	 xmm5, xmm1
  00113	f2 0f 5c eb	 subsd	 xmm5, xmm3
  00117	0f 57 db	 xorps	 xmm3, xmm3
  0011a	f2 0f 5a dd	 cvtsd2ss xmm3, xmm5
  0011e	f3 0f 11 5d c4	 movss	 DWORD PTR _v$536134[ebp], xmm3
  00123	f3 0f 10 1b	 movss	 xmm3, DWORD PTR [ebx]
  00127	0f 5a d2	 cvtps2pd xmm2, xmm2
  0012a	f2 0f 59 d0	 mulsd	 xmm2, xmm0
  0012e	0f 5a eb	 cvtps2pd xmm5, xmm3
  00131	f2 0f 59 e8	 mulsd	 xmm5, xmm0
  00135	f2 0f 5c d5	 subsd	 xmm2, xmm5
  00139	66 0f 5a c2	 cvtpd2ps xmm0, xmm2
  0013d	f3 0f 10 55 e8	 movss	 xmm2, DWORD PTR $T532064[ebp+4]
  00142	f3 0f 11 45 c8	 movss	 DWORD PTR _v$536134[ebp+4], xmm0
  00147	0f 5a d2	 cvtps2pd xmm2, xmm2
  0014a	8d 75 c4	 lea	 esi, DWORD PTR _v$536134[ebp]
  0014d	8d 7d f0	 lea	 edi, DWORD PTR _vAxis$532062[ebp]
  00150	0f 5a c3	 cvtps2pd xmm0, xmm3
  00153	f2 0f 59 c2	 mulsd	 xmm0, xmm2
  00157	f2 0f 5c c1	 subsd	 xmm0, xmm1
  0015b	66 0f 5a c0	 cvtpd2ps xmm0, xmm0
  0015f	f3 0f 11 45 cc	 movss	 DWORD PTR _v$536134[ebp+8], xmm0
  00164	a5		 movsd

; 670  : 		D3DXQuaternionRotationAxis( &qtRot, &vAxis, DEGtoRAD(fAngleV) );

  00165	0f 5a c4	 cvtps2pd xmm0, xmm4
  00168	f2 0f 59 05 00
	00 00 00	 mulsd	 xmm0, QWORD PTR __real@3f91df46a2526c7a
  00170	51		 push	 ecx
  00171	66 0f 5a c0	 cvtpd2ps xmm0, xmm0
  00175	f3 0f 11 04 24	 movss	 DWORD PTR [esp], xmm0
  0017a	8d 45 f0	 lea	 eax, DWORD PTR _vAxis$532062[ebp]
  0017d	a5		 movsd
  0017e	50		 push	 eax
  0017f	8d 45 d0	 lea	 eax, DWORD PTR _qtRot$[ebp]
  00182	50		 push	 eax
  00183	a5		 movsd
  00184	e8 00 00 00 00	 call	 _D3DXQuaternionRotationAxis@12

; 671  : 		m_vMoveDir = qtRot * m_vMoveDir;

  00189	53		 push	 ebx
  0018a	8d 45 d0	 lea	 eax, DWORD PTR _qtRot$[ebp]
  0018d	50		 push	 eax
  0018e	8d 45 e4	 lea	 eax, DWORD PTR $T532065[ebp]
  00191	50		 push	 eax
  00192	ff 15 00 00 00
	00		 call	 DWORD PTR __imp_??D@YA?AUD3DXVECTOR3@@ABUD3DXQUATERNION@@ABU0@@Z

; 672  : 
; 673  : 		GetParentSceneNode()->Rotate( vAxis, fAngleV );

  00198	f3 0f 10 45 0c	 movss	 xmm0, DWORD PTR _fAngleV$[ebp]
  0019d	8b f0		 mov	 esi, eax
  0019f	8b 45 e0	 mov	 eax, DWORD PTR _this$GSCopy$[ebp]
  001a2	8b 48 04	 mov	 ecx, DWORD PTR [eax+4]
  001a5	8b fb		 mov	 edi, ebx
  001a7	a5		 movsd
  001a8	83 c4 0c	 add	 esp, 12			; 0000000cH
  001ab	a5		 movsd
  001ac	6a 01		 push	 1
  001ae	51		 push	 ecx
  001af	8d 55 f0	 lea	 edx, DWORD PTR _vAxis$532062[ebp]
  001b2	a5		 movsd
  001b3	8b 01		 mov	 eax, DWORD PTR [ecx]
  001b5	f3 0f 11 04 24	 movss	 DWORD PTR [esp], xmm0
  001ba	52		 push	 edx
  001bb	ff 50 50	 call	 DWORD PTR [eax+80]
$LN1@RotateMove:

; 674  : 	}
; 675  : }

  001be	8b 4d fc	 mov	 ecx, DWORD PTR __$ArrayPad$[ebp]
  001c1	5f		 pop	 edi
  001c2	5e		 pop	 esi
  001c3	33 cd		 xor	 ecx, ebp
  001c5	5b		 pop	 ebx
  001c6	e8 00 00 00 00	 call	 @__security_check_cookie@4
  001cb	c9		 leave
  001cc	c2 08 00	 ret	 8
?RotateMoveDir@ioTraceWeaponType3@@IAEXMM@Z ENDP	; ioTraceWeaponType3::RotateMoveDir
_TEXT	ENDS
PUBLIC	??D?$CEncrypt@M@@QAEMABM@Z			; CEncrypt<float>::operator*
; Function compile flags: /Ogsp
; File d:\lost saga for developer\youtube\tutorial\source\src\lsclient\encryptvalue.h
;	COMDAT ??D?$CEncrypt@M@@QAEMABM@Z
_TEXT	SEGMENT
_value$ = -4						; size = 4
tv130 = 8						; size = 4
_inValue$ = 8						; size = 4
??D?$CEncrypt@M@@QAEMABM@Z PROC				; CEncrypt<float>::operator*, COMDAT
; _this$ = ecx

; 1685 : 	{	

  00000	55		 push	 ebp
  00001	8b ec		 mov	 ebp, esp
  00003	51		 push	 ecx

; 1686 : 		type value;
; 1687 : 		DecryptValueToPool(&value);

  00004	8d 45 fc	 lea	 eax, DWORD PTR _value$[ebp]
  00007	50		 push	 eax
  00008	e8 00 00 00 00	 call	 ?DecryptValueToPool@?$CEncrypt@M@@QAEXPAM@Z ; CEncrypt<float>::DecryptValueToPool

; 1688 : #ifdef _NOTUSE
; 1689 : 		Debug();
; 1690 : #endif
; 1691 : 		return value * inValue;

  0000d	8b 45 08	 mov	 eax, DWORD PTR _inValue$[ebp]
  00010	d9 00		 fld	 DWORD PTR [eax]
  00012	d8 4d fc	 fmul	 DWORD PTR _value$[ebp]
  00015	d9 5d 08	 fstp	 DWORD PTR tv130[ebp]
  00018	d9 45 08	 fld	 DWORD PTR tv130[ebp]

; 1692 : 	}

  0001b	c9		 leave
  0001c	c2 04 00	 ret	 4
??D?$CEncrypt@M@@QAEMABM@Z ENDP				; CEncrypt<float>::operator*
_TEXT	ENDS
PUBLIC	?max_size@?$vector@UChangeDirInfo@@V?$allocator@UChangeDirInfo@@@std@@@std@@QBEIXZ ; std::vector<ChangeDirInfo,std::allocator<ChangeDirInfo> >::max_size
; Function compile flags: /Ogsp
; File c:\program files (x86)\microsoft visual studio 10.0\vc\include\vector
;	COMDAT ?max_size@?$vector@UChangeDirInfo@@V?$allocator@UChangeDirInfo@@@std@@@std@@QBEIXZ
_TEXT	SEGMENT
?max_size@?$vector@UChangeDirInfo@@V?$allocator@UChangeDirInfo@@@std@@@std@@QBEIXZ PROC ; std::vector<ChangeDirInfo,std::allocator<ChangeDirInfo> >::max_size, COMDAT
; _this$ = ecx

; 884  : 		return (this->_Alval.max_size());

  00000	b8 49 92 24 09	 mov	 eax, 153391689		; 09249249H

; 885  : 		}

  00005	c3		 ret	 0
?max_size@?$vector@UChangeDirInfo@@V?$allocator@UChangeDirInfo@@@std@@@std@@QBEIXZ ENDP ; std::vector<ChangeDirInfo,std::allocator<ChangeDirInfo> >::max_size
_TEXT	ENDS
PUBLIC	??0?$_Vector_val@UChangeDirInfo@@V?$allocator@UChangeDirInfo@@@std@@@std@@QAE@V?$allocator@UChangeDirInfo@@@1@@Z ; std::_Vector_val<ChangeDirInfo,std::allocator<ChangeDirInfo> >::_Vector_val<ChangeDirInfo,std::allocator<ChangeDirInfo> >
; Function compile flags: /Ogsp
;	COMDAT ??0?$_Vector_val@UChangeDirInfo@@V?$allocator@UChangeDirInfo@@@std@@@std@@QAE@V?$allocator@UChangeDirInfo@@@1@@Z
_TEXT	SEGMENT
__Al$ = 8						; size = 1
??0?$_Vector_val@UChangeDirInfo@@V?$allocator@UChangeDirInfo@@@std@@@std@@QAE@V?$allocator@UChangeDirInfo@@@1@@Z PROC ; std::_Vector_val<ChangeDirInfo,std::allocator<ChangeDirInfo> >::_Vector_val<ChangeDirInfo,std::allocator<ChangeDirInfo> >, COMDAT
; _this$ = ecx

; 426  : 		{	// construct allocator from _Al

  00000	8b c1		 mov	 eax, ecx

; 427  : 		_Myfirst = 0;

  00002	33 c9		 xor	 ecx, ecx
  00004	89 08		 mov	 DWORD PTR [eax], ecx

; 428  : 		_Mylast = 0;

  00006	89 48 04	 mov	 DWORD PTR [eax+4], ecx

; 429  : 		_Myend = 0;

  00009	89 48 08	 mov	 DWORD PTR [eax+8], ecx

; 430  : 		}

  0000c	c2 04 00	 ret	 4
??0?$_Vector_val@UChangeDirInfo@@V?$allocator@UChangeDirInfo@@@std@@@std@@QAE@V?$allocator@UChangeDirInfo@@@1@@Z ENDP ; std::_Vector_val<ChangeDirInfo,std::allocator<ChangeDirInfo> >::_Vector_val<ChangeDirInfo,std::allocator<ChangeDirInfo> >
_TEXT	ENDS
PUBLIC	?allocate@?$allocator@UChangeDirInfo@@@std@@QAEPAUChangeDirInfo@@I@Z ; std::allocator<ChangeDirInfo>::allocate
; Function compile flags: /Ogsp
; File c:\program files (x86)\microsoft visual studio 10.0\vc\include\xmemory
;	COMDAT ?allocate@?$allocator@UChangeDirInfo@@@std@@QAEPAUChangeDirInfo@@I@Z
_TEXT	SEGMENT
__Count$ = 8						; size = 4
?allocate@?$allocator@UChangeDirInfo@@@std@@QAEPAUChangeDirInfo@@I@Z PROC ; std::allocator<ChangeDirInfo>::allocate, COMDAT
; _this$ = ecx

; 186  : 		{	// allocate array of _Count elements

  00000	55		 push	 ebp
  00001	8b ec		 mov	 ebp, esp

; 187  : 		return (_Allocate(_Count, (pointer)0));

  00003	6a 00		 push	 0
  00005	ff 75 08	 push	 DWORD PTR __Count$[ebp]
  00008	e8 00 00 00 00	 call	 ??$_Allocate@UChangeDirInfo@@@std@@YAPAUChangeDirInfo@@IPAU1@@Z ; std::_Allocate<ChangeDirInfo>
  0000d	59		 pop	 ecx
  0000e	59		 pop	 ecx

; 188  : 		}

  0000f	5d		 pop	 ebp
  00010	c2 04 00	 ret	 4
?allocate@?$allocator@UChangeDirInfo@@@std@@QAEPAUChangeDirInfo@@I@Z ENDP ; std::allocator<ChangeDirInfo>::allocate
_TEXT	ENDS
PUBLIC	??0?$_Vector_iterator@V?$_Vector_val@UChangeDirInfo@@V?$allocator@UChangeDirInfo@@@std@@@std@@@std@@QAE@PAUChangeDirInfo@@PBU_Container_base0@1@@Z ; std::_Vector_iterator<std::_Vector_val<ChangeDirInfo,std::allocator<ChangeDirInfo> > >::_Vector_iterator<std::_Vector_val<ChangeDirInfo,std::allocator<ChangeDirInfo> > >
; Function compile flags: /Ogsp
; File c:\program files (x86)\microsoft visual studio 10.0\vc\include\vector
;	COMDAT ??0?$_Vector_iterator@V?$_Vector_val@UChangeDirInfo@@V?$allocator@UChangeDirInfo@@@std@@@std@@@std@@QAE@PAUChangeDirInfo@@PBU_Container_base0@1@@Z
_TEXT	SEGMENT
__Parg$ = 8						; size = 4
__Pvector$ = 12						; size = 4
??0?$_Vector_iterator@V?$_Vector_val@UChangeDirInfo@@V?$allocator@UChangeDirInfo@@@std@@@std@@@std@@QAE@PAUChangeDirInfo@@PBU_Container_base0@1@@Z PROC ; std::_Vector_iterator<std::_Vector_val<ChangeDirInfo,std::allocator<ChangeDirInfo> > >::_Vector_iterator<std::_Vector_val<ChangeDirInfo,std::allocator<ChangeDirInfo> > >, COMDAT
; _this$ = ecx

; 304  : 		{	// construct with pointer _Parg

  00000	55		 push	 ebp
  00001	8b ec		 mov	 ebp, esp
  00003	8b c1		 mov	 eax, ecx
  00005	8b 4d 08	 mov	 ecx, DWORD PTR __Parg$[ebp]
  00008	89 08		 mov	 DWORD PTR [eax], ecx

; 305  : 		}

  0000a	5d		 pop	 ebp
  0000b	c2 08 00	 ret	 8
??0?$_Vector_iterator@V?$_Vector_val@UChangeDirInfo@@V?$allocator@UChangeDirInfo@@@std@@@std@@@std@@QAE@PAUChangeDirInfo@@PBU_Container_base0@1@@Z ENDP ; std::_Vector_iterator<std::_Vector_val<ChangeDirInfo,std::allocator<ChangeDirInfo> > >::_Vector_iterator<std::_Vector_val<ChangeDirInfo,std::allocator<ChangeDirInfo> > >
_TEXT	ENDS
PUBLIC	?_Grow_to@?$vector@UChangeDirInfo@@V?$allocator@UChangeDirInfo@@@std@@@std@@IBEII@Z ; std::vector<ChangeDirInfo,std::allocator<ChangeDirInfo> >::_Grow_to
; Function compile flags: /Ogsp
;	COMDAT ?_Grow_to@?$vector@UChangeDirInfo@@V?$allocator@UChangeDirInfo@@@std@@@std@@IBEII@Z
_TEXT	SEGMENT
__Count$ = 8						; size = 4
?_Grow_to@?$vector@UChangeDirInfo@@V?$allocator@UChangeDirInfo@@@std@@@std@@IBEII@Z PROC ; std::vector<ChangeDirInfo,std::allocator<ChangeDirInfo> >::_Grow_to, COMDAT
; _this$ = ecx

; 1274 : 		{	// grow by 50% or at least to _Count

  00000	55		 push	 ebp
  00001	8b ec		 mov	 ebp, esp

; 1275 : 		size_type _Capacity = capacity();

  00003	8b 41 08	 mov	 eax, DWORD PTR [ecx+8]
  00006	2b 01		 sub	 eax, DWORD PTR [ecx]
  00008	6a 1c		 push	 28			; 0000001cH
  0000a	99		 cdq
  0000b	59		 pop	 ecx
  0000c	f7 f9		 idiv	 ecx

; 1276 : 
; 1277 : 		_Capacity = max_size() - _Capacity / 2 < _Capacity
; 1278 : 			? 0 : _Capacity + _Capacity / 2;	// try to grow by 50%

  0000e	ba 49 92 24 09	 mov	 edx, 153391689		; 09249249H
  00013	8b c8		 mov	 ecx, eax
  00015	d1 e9		 shr	 ecx, 1
  00017	2b d1		 sub	 edx, ecx
  00019	3b d0		 cmp	 edx, eax
  0001b	73 04		 jae	 SHORT $LN4@Grow_to
  0001d	33 c0		 xor	 eax, eax
  0001f	eb 02		 jmp	 SHORT $LN5@Grow_to
$LN4@Grow_to:
  00021	03 c1		 add	 eax, ecx
$LN5@Grow_to:

; 1279 : 		if (_Capacity < _Count)

  00023	3b 45 08	 cmp	 eax, DWORD PTR __Count$[ebp]

; 1280 : 			_Capacity = _Count;

  00026	0f 42 45 08	 cmovb	 eax, DWORD PTR __Count$[ebp]

; 1281 : 		return (_Capacity);
; 1282 : 		}

  0002a	5d		 pop	 ebp
  0002b	c2 04 00	 ret	 4
?_Grow_to@?$vector@UChangeDirInfo@@V?$allocator@UChangeDirInfo@@@std@@@std@@IBEII@Z ENDP ; std::vector<ChangeDirInfo,std::allocator<ChangeDirInfo> >::_Grow_to
_TEXT	ENDS
PUBLIC	??8?$_Vector_const_iterator@V?$_Vector_val@UChangeDirInfo@@V?$allocator@UChangeDirInfo@@@std@@@std@@@std@@QBE_NABV01@@Z ; std::_Vector_const_iterator<std::_Vector_val<ChangeDirInfo,std::allocator<ChangeDirInfo> > >::operator==
; Function compile flags: /Ogsp
;	COMDAT ??8?$_Vector_const_iterator@V?$_Vector_val@UChangeDirInfo@@V?$allocator@UChangeDirInfo@@@std@@@std@@@std@@QBE_NABV01@@Z
_TEXT	SEGMENT
__Right$ = 8						; size = 4
??8?$_Vector_const_iterator@V?$_Vector_val@UChangeDirInfo@@V?$allocator@UChangeDirInfo@@@std@@@std@@@std@@QBE_NABV01@@Z PROC ; std::_Vector_const_iterator<std::_Vector_val<ChangeDirInfo,std::allocator<ChangeDirInfo> > >::operator==, COMDAT
; _this$ = ecx

; 201  : 		{	// test for iterator equality

  00000	55		 push	 ebp
  00001	8b ec		 mov	 ebp, esp

; 202  : 		_Compat(_Right);
; 203  : 		return (this->_Ptr == _Right._Ptr);

  00003	8b 01		 mov	 eax, DWORD PTR [ecx]
  00005	8b 4d 08	 mov	 ecx, DWORD PTR __Right$[ebp]
  00008	2b 01		 sub	 eax, DWORD PTR [ecx]
  0000a	f7 d8		 neg	 eax
  0000c	1b c0		 sbb	 eax, eax
  0000e	40		 inc	 eax

; 204  : 		}

  0000f	5d		 pop	 ebp
  00010	c2 04 00	 ret	 4
??8?$_Vector_const_iterator@V?$_Vector_val@UChangeDirInfo@@V?$allocator@UChangeDirInfo@@@std@@@std@@@std@@QBE_NABV01@@Z ENDP ; std::_Vector_const_iterator<std::_Vector_val<ChangeDirInfo,std::allocator<ChangeDirInfo> > >::operator==
_TEXT	ENDS
PUBLIC	_this$GSCopy$
PUBLIC	__$ArrayPad$
PUBLIC	??$LoadString_e@$0M@@ioINILoader@@QAEXAAY0M@$$CBDAAY00$$CBDPADH@Z ; ioINILoader::LoadString_e<12>
EXTRN	__imp_?LoadStringA@ioINILoader@@QAEXPBD0PADH@Z:PROC
; Function compile flags: /Ogsp
; File d:\lost saga for developer\youtube\tutorial\source\src\io3dengine\ioiniloader.h
;	COMDAT ??$LoadString_e@$0M@@ioINILoader@@QAEXAAY0M@$$CBDAAY00$$CBDPADH@Z
_TEXT	SEGMENT
_this$GSCopy$ = -24					; size = 4
__k$ = -20						; size = 12
__$ArrayPad$ = -4					; size = 4
_k$ = 8							; size = 4
_d$ = 12						; size = 4
_b$ = 16						; size = 4
_i$ = 20						; size = 4
??$LoadString_e@$0M@@ioINILoader@@QAEXAAY0M@$$CBDAAY00$$CBDPADH@Z PROC ; ioINILoader::LoadString_e<12>, COMDAT
; _this$ = ecx

; 161  : 	{

  00000	55		 push	 ebp
  00001	8b ec		 mov	 ebp, esp
  00003	83 ec 18	 sub	 esp, 24			; 00000018H
  00006	a1 00 00 00 00	 mov	 eax, DWORD PTR ___security_cookie
  0000b	33 c5		 xor	 eax, ebp
  0000d	89 45 fc	 mov	 DWORD PTR __$ArrayPad$[ebp], eax
  00010	8b 45 08	 mov	 eax, DWORD PTR _k$[ebp]

; 162  : 		_ENCSTR(k, _k);

  00013	8a 10		 mov	 dl, BYTE PTR [eax]
  00015	56		 push	 esi
  00016	8b 75 0c	 mov	 esi, DWORD PTR _d$[ebp]
  00019	57		 push	 edi
  0001a	8b 7d 10	 mov	 edi, DWORD PTR _b$[ebp]
  0001d	89 4d e8	 mov	 DWORD PTR _this$GSCopy$[ebp], ecx
  00020	84 d2		 test	 dl, dl
  00022	0f 84 32 01 00
	00		 je	 $LN96@LoadString
  00028	80 f2 ed	 xor	 dl, -19			; ffffffedH
  0002b	88 55 ec	 mov	 BYTE PTR __k$[ebp], dl
  0002e	8a 50 01	 mov	 dl, BYTE PTR [eax+1]
  00031	84 d2		 test	 dl, dl
  00033	0f 84 1b 01 00
	00		 je	 $LN95@LoadString
  00039	80 f2 ec	 xor	 dl, -20			; ffffffecH
  0003c	88 55 ed	 mov	 BYTE PTR __k$[ebp+1], dl
  0003f	8a 50 02	 mov	 dl, BYTE PTR [eax+2]
  00042	84 d2		 test	 dl, dl
  00044	0f 84 04 01 00
	00		 je	 $LN94@LoadString
  0004a	b1 eb		 mov	 cl, -21			; ffffffebH
  0004c	32 d1		 xor	 dl, cl
  0004e	88 55 ee	 mov	 BYTE PTR __k$[ebp+2], dl
  00051	8a 50 03	 mov	 dl, BYTE PTR [eax+3]
  00054	84 d2		 test	 dl, dl
  00056	0f 84 ec 00 00
	00		 je	 $LN93@LoadString
  0005c	80 f2 ea	 xor	 dl, -22			; ffffffeaH
  0005f	88 55 ef	 mov	 BYTE PTR __k$[ebp+3], dl
  00062	8a 50 04	 mov	 dl, BYTE PTR [eax+4]
  00065	84 d2		 test	 dl, dl
  00067	0f 84 d5 00 00
	00		 je	 $LN92@LoadString
  0006d	80 f2 ed	 xor	 dl, -19			; ffffffedH
  00070	88 55 f0	 mov	 BYTE PTR __k$[ebp+4], dl
  00073	8a 50 05	 mov	 dl, BYTE PTR [eax+5]
  00076	84 d2		 test	 dl, dl
  00078	0f 84 be 00 00
	00		 je	 $LN91@LoadString
  0007e	80 f2 ec	 xor	 dl, -20			; ffffffecH
  00081	88 55 f1	 mov	 BYTE PTR __k$[ebp+5], dl
  00084	8a 50 06	 mov	 dl, BYTE PTR [eax+6]
  00087	84 d2		 test	 dl, dl
  00089	0f 84 a8 00 00
	00		 je	 $LN90@LoadString
  0008f	32 d1		 xor	 dl, cl
  00091	88 55 f2	 mov	 BYTE PTR __k$[ebp+6], dl
  00094	8a 50 07	 mov	 dl, BYTE PTR [eax+7]
  00097	84 d2		 test	 dl, dl
  00099	0f 84 92 00 00
	00		 je	 $LN89@LoadString
  0009f	80 f2 ea	 xor	 dl, -22			; ffffffeaH
  000a2	88 55 f3	 mov	 BYTE PTR __k$[ebp+7], dl
  000a5	8a 50 08	 mov	 dl, BYTE PTR [eax+8]
  000a8	84 d2		 test	 dl, dl
  000aa	74 7f		 je	 SHORT $LN88@LoadString
  000ac	80 f2 ed	 xor	 dl, -19			; ffffffedH
  000af	88 55 f4	 mov	 BYTE PTR __k$[ebp+8], dl
  000b2	8a 50 09	 mov	 dl, BYTE PTR [eax+9]
  000b5	84 d2		 test	 dl, dl
  000b7	74 6c		 je	 SHORT $LN87@LoadString
  000b9	80 f2 ec	 xor	 dl, -20			; ffffffecH
  000bc	88 55 f5	 mov	 BYTE PTR __k$[ebp+9], dl
  000bf	8a 50 0a	 mov	 dl, BYTE PTR [eax+10]
  000c2	84 d2		 test	 dl, dl
  000c4	74 5a		 je	 SHORT $LN86@LoadString
  000c6	32 d1		 xor	 dl, cl
  000c8	80 78 0b 00	 cmp	 BYTE PTR [eax+11], 0
  000cc	88 55 f6	 mov	 BYTE PTR __k$[ebp+10], dl
  000cf	0f 84 89 00 00
	00		 je	 $LN111@LoadString
  000d5	8a 50 0c	 mov	 dl, BYTE PTR [eax+12]
  000d8	84 d2		 test	 dl, dl
  000da	74 3e		 je	 SHORT $LN84@LoadString
  000dc	80 f2 ed	 xor	 dl, -19			; ffffffedH
  000df	88 55 f8	 mov	 BYTE PTR __k$[ebp+12], dl
  000e2	8a 50 0d	 mov	 dl, BYTE PTR [eax+13]
  000e5	84 d2		 test	 dl, dl
  000e7	74 2b		 je	 SHORT $LN83@LoadString
  000e9	80 f2 ec	 xor	 dl, -20			; ffffffecH
  000ec	88 55 f9	 mov	 BYTE PTR __k$[ebp+13], dl
  000ef	8a 50 0e	 mov	 dl, BYTE PTR [eax+14]
  000f2	84 d2		 test	 dl, dl
  000f4	74 19		 je	 SHORT $LN82@LoadString
  000f6	8a 40 0f	 mov	 al, BYTE PTR [eax+15]
  000f9	32 d1		 xor	 dl, cl
  000fb	88 55 fa	 mov	 BYTE PTR __k$[ebp+14], dl
  000fe	84 c0		 test	 al, al
  00100	74 07		 je	 SHORT $LN81@LoadString
  00102	34 ea		 xor	 al, -22			; ffffffeaH
  00104	88 45 fb	 mov	 BYTE PTR __k$[ebp+15], al
  00107	eb 55		 jmp	 SHORT $LN111@LoadString
$LN81@LoadString:
  00109	c6 45 fb ea	 mov	 BYTE PTR __k$[ebp+15], -22 ; ffffffeaH
  0010d	eb 4f		 jmp	 SHORT $LN111@LoadString
$LN82@LoadString:
  0010f	88 4d fa	 mov	 BYTE PTR __k$[ebp+14], cl
  00112	eb 4a		 jmp	 SHORT $LN111@LoadString
$LN83@LoadString:
  00114	c6 45 f9 ec	 mov	 BYTE PTR __k$[ebp+13], -20 ; ffffffecH
  00118	eb 44		 jmp	 SHORT $LN111@LoadString
$LN84@LoadString:
  0011a	c6 45 f8 ed	 mov	 BYTE PTR __k$[ebp+12], -19 ; ffffffedH
  0011e	eb 3e		 jmp	 SHORT $LN111@LoadString
$LN86@LoadString:
  00120	88 4d f6	 mov	 BYTE PTR __k$[ebp+10], cl
  00123	eb 39		 jmp	 SHORT $LN111@LoadString
$LN87@LoadString:
  00125	c6 45 f5 ec	 mov	 BYTE PTR __k$[ebp+9], -20 ; ffffffecH
  00129	eb 33		 jmp	 SHORT $LN111@LoadString
$LN88@LoadString:
  0012b	c6 45 f4 ed	 mov	 BYTE PTR __k$[ebp+8], -19 ; ffffffedH
  0012f	eb 2d		 jmp	 SHORT $LN111@LoadString
$LN89@LoadString:
  00131	c6 45 f3 ea	 mov	 BYTE PTR __k$[ebp+7], -22 ; ffffffeaH
  00135	eb 27		 jmp	 SHORT $LN111@LoadString
$LN90@LoadString:
  00137	88 4d f2	 mov	 BYTE PTR __k$[ebp+6], cl
  0013a	eb 22		 jmp	 SHORT $LN111@LoadString
$LN91@LoadString:
  0013c	c6 45 f1 ec	 mov	 BYTE PTR __k$[ebp+5], -20 ; ffffffecH
  00140	eb 1c		 jmp	 SHORT $LN111@LoadString
$LN92@LoadString:
  00142	c6 45 f0 ed	 mov	 BYTE PTR __k$[ebp+4], -19 ; ffffffedH
  00146	eb 16		 jmp	 SHORT $LN111@LoadString
$LN93@LoadString:
  00148	c6 45 ef ea	 mov	 BYTE PTR __k$[ebp+3], -22 ; ffffffeaH
  0014c	eb 10		 jmp	 SHORT $LN111@LoadString
$LN94@LoadString:
  0014e	c6 45 ee eb	 mov	 BYTE PTR __k$[ebp+2], -21 ; ffffffebH
  00152	eb 0a		 jmp	 SHORT $LN111@LoadString
$LN95@LoadString:
  00154	c6 45 ed ec	 mov	 BYTE PTR __k$[ebp+1], -20 ; ffffffecH
  00158	eb 04		 jmp	 SHORT $LN111@LoadString
$LN96@LoadString:
  0015a	c6 45 ec ed	 mov	 BYTE PTR __k$[ebp], -19	; ffffffedH
$LN111@LoadString:
  0015e	6a 02		 push	 2
  00160	8d 45 ec	 lea	 eax, DWORD PTR __k$[ebp]
  00163	c6 45 f7 00	 mov	 BYTE PTR __k$[ebp+11], 0
  00167	5a		 pop	 edx
$LL104@LoadString:
  00168	81 30 ed ec eb
	ea		 xor	 DWORD PTR [eax], -353637139 ; eaebecedH
  0016e	83 c0 04	 add	 eax, 4
  00171	4a		 dec	 edx
  00172	75 f4		 jne	 SHORT $LL104@LoadString
  00174	6a 08		 push	 8
  00176	58		 pop	 eax
$LL101@LoadString:
  00177	8b c8		 mov	 ecx, eax
  00179	81 e1 03 00 00
	80		 and	 ecx, -2147483645	; 80000003H
  0017f	79 05		 jns	 SHORT $LN112@LoadString
  00181	49		 dec	 ecx
  00182	83 c9 fc	 or	 ecx, -4			; fffffffcH
  00185	41		 inc	 ecx
$LN112@LoadString:
  00186	b2 ed		 mov	 dl, -19			; ffffffedH
  00188	2a d1		 sub	 dl, cl
  0018a	30 54 05 ec	 xor	 BYTE PTR __k$[ebp+eax], dl
  0018e	40		 inc	 eax
  0018f	83 f8 0b	 cmp	 eax, 11			; 0000000bH
  00192	7c e3		 jl	 SHORT $LL101@LoadString

; 163  : 		LoadString(_k, d, b, i);

  00194	ff 75 14	 push	 DWORD PTR _i$[ebp]
  00197	8b 4d e8	 mov	 ecx, DWORD PTR _this$GSCopy$[ebp]
  0019a	57		 push	 edi
  0019b	56		 push	 esi
  0019c	8d 45 ec	 lea	 eax, DWORD PTR __k$[ebp]
  0019f	50		 push	 eax
  001a0	ff 15 00 00 00
	00		 call	 DWORD PTR __imp_?LoadStringA@ioINILoader@@QAEXPBD0PADH@Z

; 164  : 	}

  001a6	8b 4d fc	 mov	 ecx, DWORD PTR __$ArrayPad$[ebp]
  001a9	5f		 pop	 edi
  001aa	33 cd		 xor	 ecx, ebp
  001ac	5e		 pop	 esi
  001ad	e8 00 00 00 00	 call	 @__security_check_cookie@4
  001b2	c9		 leave
  001b3	c2 10 00	 ret	 16			; 00000010H
??$LoadString_e@$0M@@ioINILoader@@QAEXAAY0M@$$CBDAAY00$$CBDPADH@Z ENDP ; ioINILoader::LoadString_e<12>
_TEXT	ENDS
PUBLIC	__$ArrayPad$
PUBLIC	??$LoadInt_e@$09@ioINILoader@@QAEHAAY09$$CBDH@Z	; ioINILoader::LoadInt_e<10>
EXTRN	__imp_?LoadInt@ioINILoader@@QAEHPBDH@Z:PROC
; Function compile flags: /Ogsp
;	COMDAT ??$LoadInt_e@$09@ioINILoader@@QAEHAAY09$$CBDH@Z
_TEXT	SEGMENT
__k$ = -20						; size = 10
__$ArrayPad$ = -4					; size = 4
_k$ = 8							; size = 4
_i$ = 12						; size = 4
??$LoadInt_e@$09@ioINILoader@@QAEHAAY09$$CBDH@Z PROC	; ioINILoader::LoadInt_e<10>, COMDAT
; _this$ = ecx

; 118  : 	{

  00000	55		 push	 ebp
  00001	8b ec		 mov	 ebp, esp
  00003	83 ec 14	 sub	 esp, 20			; 00000014H
  00006	a1 00 00 00 00	 mov	 eax, DWORD PTR ___security_cookie
  0000b	33 c5		 xor	 eax, ebp
  0000d	89 45 fc	 mov	 DWORD PTR __$ArrayPad$[ebp], eax
  00010	8b 45 08	 mov	 eax, DWORD PTR _k$[ebp]

; 119  : 		_ENCSTR(k, _k);

  00013	8a 10		 mov	 dl, BYTE PTR [eax]
  00015	84 d2		 test	 dl, dl
  00017	0f 84 0d 01 00
	00		 je	 $LN96@LoadInt_e
  0001d	80 f2 ed	 xor	 dl, -19			; ffffffedH
  00020	88 55 ec	 mov	 BYTE PTR __k$[ebp], dl
  00023	8a 50 01	 mov	 dl, BYTE PTR [eax+1]
  00026	84 d2		 test	 dl, dl
  00028	0f 84 f6 00 00
	00		 je	 $LN95@LoadInt_e
  0002e	80 f2 ec	 xor	 dl, -20			; ffffffecH
  00031	88 55 ed	 mov	 BYTE PTR __k$[ebp+1], dl
  00034	8a 50 02	 mov	 dl, BYTE PTR [eax+2]
  00037	84 d2		 test	 dl, dl
  00039	0f 84 df 00 00
	00		 je	 $LN94@LoadInt_e
  0003f	80 f2 eb	 xor	 dl, -21			; ffffffebH
  00042	88 55 ee	 mov	 BYTE PTR __k$[ebp+2], dl
  00045	8a 50 03	 mov	 dl, BYTE PTR [eax+3]
  00048	84 d2		 test	 dl, dl
  0004a	0f 84 c8 00 00
	00		 je	 $LN93@LoadInt_e
  00050	80 f2 ea	 xor	 dl, -22			; ffffffeaH
  00053	88 55 ef	 mov	 BYTE PTR __k$[ebp+3], dl
  00056	8a 50 04	 mov	 dl, BYTE PTR [eax+4]
  00059	84 d2		 test	 dl, dl
  0005b	0f 84 b1 00 00
	00		 je	 $LN92@LoadInt_e
  00061	80 f2 ed	 xor	 dl, -19			; ffffffedH
  00064	88 55 f0	 mov	 BYTE PTR __k$[ebp+4], dl
  00067	8a 50 05	 mov	 dl, BYTE PTR [eax+5]
  0006a	84 d2		 test	 dl, dl
  0006c	0f 84 9a 00 00
	00		 je	 $LN91@LoadInt_e
  00072	80 f2 ec	 xor	 dl, -20			; ffffffecH
  00075	88 55 f1	 mov	 BYTE PTR __k$[ebp+5], dl
  00078	8a 50 06	 mov	 dl, BYTE PTR [eax+6]
  0007b	84 d2		 test	 dl, dl
  0007d	0f 84 83 00 00
	00		 je	 $LN90@LoadInt_e
  00083	80 f2 eb	 xor	 dl, -21			; ffffffebH
  00086	88 55 f2	 mov	 BYTE PTR __k$[ebp+6], dl
  00089	8a 50 07	 mov	 dl, BYTE PTR [eax+7]
  0008c	84 d2		 test	 dl, dl
  0008e	74 70		 je	 SHORT $LN89@LoadInt_e
  00090	80 f2 ea	 xor	 dl, -22			; ffffffeaH
  00093	88 55 f3	 mov	 BYTE PTR __k$[ebp+7], dl
  00096	8a 50 08	 mov	 dl, BYTE PTR [eax+8]
  00099	84 d2		 test	 dl, dl
  0009b	74 5d		 je	 SHORT $LN88@LoadInt_e
  0009d	80 f2 ed	 xor	 dl, -19			; ffffffedH
  000a0	80 78 09 00	 cmp	 BYTE PTR [eax+9], 0
  000a4	88 55 f4	 mov	 BYTE PTR __k$[ebp+8], dl
  000a7	0f 84 81 00 00
	00		 je	 $LN1@LoadInt_e
  000ad	8a 50 0a	 mov	 dl, BYTE PTR [eax+10]
  000b0	84 d2		 test	 dl, dl
  000b2	74 40		 je	 SHORT $LN86@LoadInt_e
  000b4	80 f2 eb	 xor	 dl, -21			; ffffffebH
  000b7	88 55 f6	 mov	 BYTE PTR __k$[ebp+10], dl
  000ba	8a 50 0b	 mov	 dl, BYTE PTR [eax+11]
  000bd	84 d2		 test	 dl, dl
  000bf	74 2d		 je	 SHORT $LN85@LoadInt_e
  000c1	80 f2 ea	 xor	 dl, -22			; ffffffeaH
  000c4	88 55 f7	 mov	 BYTE PTR __k$[ebp+11], dl
  000c7	8a 50 0c	 mov	 dl, BYTE PTR [eax+12]
  000ca	84 d2		 test	 dl, dl
  000cc	74 1a		 je	 SHORT $LN84@LoadInt_e
  000ce	8a 40 0d	 mov	 al, BYTE PTR [eax+13]
  000d1	80 f2 ed	 xor	 dl, -19			; ffffffedH
  000d4	88 55 f8	 mov	 BYTE PTR __k$[ebp+12], dl
  000d7	84 c0		 test	 al, al
  000d9	74 07		 je	 SHORT $LN83@LoadInt_e
  000db	34 ec		 xor	 al, -20			; ffffffecH
  000dd	88 45 f9	 mov	 BYTE PTR __k$[ebp+13], al
  000e0	eb 4c		 jmp	 SHORT $LN1@LoadInt_e
$LN83@LoadInt_e:
  000e2	c6 45 f9 ec	 mov	 BYTE PTR __k$[ebp+13], -20 ; ffffffecH
  000e6	eb 46		 jmp	 SHORT $LN1@LoadInt_e
$LN84@LoadInt_e:
  000e8	c6 45 f8 ed	 mov	 BYTE PTR __k$[ebp+12], -19 ; ffffffedH
  000ec	eb 40		 jmp	 SHORT $LN1@LoadInt_e
$LN85@LoadInt_e:
  000ee	c6 45 f7 ea	 mov	 BYTE PTR __k$[ebp+11], -22 ; ffffffeaH
  000f2	eb 3a		 jmp	 SHORT $LN1@LoadInt_e
$LN86@LoadInt_e:
  000f4	c6 45 f6 eb	 mov	 BYTE PTR __k$[ebp+10], -21 ; ffffffebH
  000f8	eb 34		 jmp	 SHORT $LN1@LoadInt_e
$LN88@LoadInt_e:
  000fa	c6 45 f4 ed	 mov	 BYTE PTR __k$[ebp+8], -19 ; ffffffedH
  000fe	eb 2e		 jmp	 SHORT $LN1@LoadInt_e
$LN89@LoadInt_e:
  00100	c6 45 f3 ea	 mov	 BYTE PTR __k$[ebp+7], -22 ; ffffffeaH
  00104	eb 28		 jmp	 SHORT $LN1@LoadInt_e
$LN90@LoadInt_e:
  00106	c6 45 f2 eb	 mov	 BYTE PTR __k$[ebp+6], -21 ; ffffffebH
  0010a	eb 22		 jmp	 SHORT $LN1@LoadInt_e
$LN91@LoadInt_e:
  0010c	c6 45 f1 ec	 mov	 BYTE PTR __k$[ebp+5], -20 ; ffffffecH
  00110	eb 1c		 jmp	 SHORT $LN1@LoadInt_e
$LN92@LoadInt_e:
  00112	c6 45 f0 ed	 mov	 BYTE PTR __k$[ebp+4], -19 ; ffffffedH
  00116	eb 16		 jmp	 SHORT $LN1@LoadInt_e
$LN93@LoadInt_e:
  00118	c6 45 ef ea	 mov	 BYTE PTR __k$[ebp+3], -22 ; ffffffeaH
  0011c	eb 10		 jmp	 SHORT $LN1@LoadInt_e
$LN94@LoadInt_e:
  0011e	c6 45 ee eb	 mov	 BYTE PTR __k$[ebp+2], -21 ; ffffffebH
  00122	eb 0a		 jmp	 SHORT $LN1@LoadInt_e
$LN95@LoadInt_e:
  00124	c6 45 ed ec	 mov	 BYTE PTR __k$[ebp+1], -20 ; ffffffecH
  00128	eb 04		 jmp	 SHORT $LN1@LoadInt_e
$LN96@LoadInt_e:
  0012a	c6 45 ec ed	 mov	 BYTE PTR __k$[ebp], -19	; ffffffedH
$LN1@LoadInt_e:
  0012e	6a 02		 push	 2
  00130	8d 45 ec	 lea	 eax, DWORD PTR __k$[ebp]
  00133	c6 45 f5 00	 mov	 BYTE PTR __k$[ebp+9], 0
  00137	5a		 pop	 edx
$LL104@LoadInt_e:
  00138	81 30 ed ec eb
	ea		 xor	 DWORD PTR [eax], -353637139 ; eaebecedH
  0013e	83 c0 04	 add	 eax, 4
  00141	4a		 dec	 edx
  00142	75 f4		 jne	 SHORT $LL104@LoadInt_e

; 120  : 		return LoadInt(_k, i);

  00144	ff 75 0c	 push	 DWORD PTR _i$[ebp]
  00147	80 75 f4 ed	 xor	 BYTE PTR __k$[ebp+8], -19 ; ffffffedH
  0014b	8d 45 ec	 lea	 eax, DWORD PTR __k$[ebp]
  0014e	50		 push	 eax
  0014f	ff 15 00 00 00
	00		 call	 DWORD PTR __imp_?LoadInt@ioINILoader@@QAEHPBDH@Z

; 121  : 	}

  00155	8b 4d fc	 mov	 ecx, DWORD PTR __$ArrayPad$[ebp]
  00158	33 cd		 xor	 ecx, ebp
  0015a	e8 00 00 00 00	 call	 @__security_check_cookie@4
  0015f	c9		 leave
  00160	c2 08 00	 ret	 8
??$LoadInt_e@$09@ioINILoader@@QAEHAAY09$$CBDH@Z ENDP	; ioINILoader::LoadInt_e<10>
_TEXT	ENDS
PUBLIC	__$ArrayPad$
PUBLIC	??$LoadBool_e@$0BA@@ioINILoader@@QAE_NAAY0BA@$$CBD_N@Z ; ioINILoader::LoadBool_e<16>
EXTRN	__imp_?LoadBool@ioINILoader@@QAE_NPBD_N@Z:PROC
; Function compile flags: /Ogsp
;	COMDAT ??$LoadBool_e@$0BA@@ioINILoader@@QAE_NAAY0BA@$$CBD_N@Z
_TEXT	SEGMENT
__k$ = -24						; size = 16
__$ArrayPad$ = -4					; size = 4
_k$ = 8							; size = 4
_b$ = 12						; size = 1
??$LoadBool_e@$0BA@@ioINILoader@@QAE_NAAY0BA@$$CBD_N@Z PROC ; ioINILoader::LoadBool_e<16>, COMDAT
; _this$ = ecx

; 101  : 	{

  00000	55		 push	 ebp
  00001	8b ec		 mov	 ebp, esp
  00003	83 ec 18	 sub	 esp, 24			; 00000018H
  00006	a1 00 00 00 00	 mov	 eax, DWORD PTR ___security_cookie
  0000b	33 c5		 xor	 eax, ebp
  0000d	89 45 fc	 mov	 DWORD PTR __$ArrayPad$[ebp], eax
  00010	8b 45 08	 mov	 eax, DWORD PTR _k$[ebp]

; 102  : 		_ENCSTR(k, _k);

  00013	8a 10		 mov	 dl, BYTE PTR [eax]
  00015	56		 push	 esi
  00016	8b f1		 mov	 esi, ecx
  00018	84 d2		 test	 dl, dl
  0001a	0f 84 8c 01 00
	00		 je	 $LN96@LoadBool_e
  00020	80 f2 ed	 xor	 dl, -19			; ffffffedH
  00023	88 55 e8	 mov	 BYTE PTR __k$[ebp], dl
  00026	8a 50 01	 mov	 dl, BYTE PTR [eax+1]
  00029	84 d2		 test	 dl, dl
  0002b	0f 84 75 01 00
	00		 je	 $LN95@LoadBool_e
  00031	80 f2 ec	 xor	 dl, -20			; ffffffecH
  00034	88 55 e9	 mov	 BYTE PTR __k$[ebp+1], dl
  00037	8a 50 02	 mov	 dl, BYTE PTR [eax+2]
  0003a	84 d2		 test	 dl, dl
  0003c	0f 84 5e 01 00
	00		 je	 $LN94@LoadBool_e
  00042	b1 eb		 mov	 cl, -21			; ffffffebH
  00044	32 d1		 xor	 dl, cl
  00046	88 55 ea	 mov	 BYTE PTR __k$[ebp+2], dl
  00049	8a 50 03	 mov	 dl, BYTE PTR [eax+3]
  0004c	84 d2		 test	 dl, dl
  0004e	0f 84 46 01 00
	00		 je	 $LN93@LoadBool_e
  00054	80 f2 ea	 xor	 dl, -22			; ffffffeaH
  00057	88 55 eb	 mov	 BYTE PTR __k$[ebp+3], dl
  0005a	8a 50 04	 mov	 dl, BYTE PTR [eax+4]
  0005d	84 d2		 test	 dl, dl
  0005f	0f 84 2f 01 00
	00		 je	 $LN92@LoadBool_e
  00065	80 f2 ed	 xor	 dl, -19			; ffffffedH
  00068	88 55 ec	 mov	 BYTE PTR __k$[ebp+4], dl
  0006b	8a 50 05	 mov	 dl, BYTE PTR [eax+5]
  0006e	84 d2		 test	 dl, dl
  00070	0f 84 18 01 00
	00		 je	 $LN91@LoadBool_e
  00076	80 f2 ec	 xor	 dl, -20			; ffffffecH
  00079	88 55 ed	 mov	 BYTE PTR __k$[ebp+5], dl
  0007c	8a 50 06	 mov	 dl, BYTE PTR [eax+6]
  0007f	84 d2		 test	 dl, dl
  00081	0f 84 02 01 00
	00		 je	 $LN90@LoadBool_e
  00087	32 d1		 xor	 dl, cl
  00089	88 55 ee	 mov	 BYTE PTR __k$[ebp+6], dl
  0008c	8a 50 07	 mov	 dl, BYTE PTR [eax+7]
  0008f	84 d2		 test	 dl, dl
  00091	0f 84 ec 00 00
	00		 je	 $LN89@LoadBool_e
  00097	80 f2 ea	 xor	 dl, -22			; ffffffeaH
  0009a	88 55 ef	 mov	 BYTE PTR __k$[ebp+7], dl
  0009d	8a 50 08	 mov	 dl, BYTE PTR [eax+8]
  000a0	84 d2		 test	 dl, dl
  000a2	0f 84 d5 00 00
	00		 je	 $LN88@LoadBool_e
  000a8	80 f2 ed	 xor	 dl, -19			; ffffffedH
  000ab	88 55 f0	 mov	 BYTE PTR __k$[ebp+8], dl
  000ae	8a 50 09	 mov	 dl, BYTE PTR [eax+9]
  000b1	84 d2		 test	 dl, dl
  000b3	0f 84 be 00 00
	00		 je	 $LN87@LoadBool_e
  000b9	80 f2 ec	 xor	 dl, -20			; ffffffecH
  000bc	88 55 f1	 mov	 BYTE PTR __k$[ebp+9], dl
  000bf	8a 50 0a	 mov	 dl, BYTE PTR [eax+10]
  000c2	84 d2		 test	 dl, dl
  000c4	0f 84 a8 00 00
	00		 je	 $LN86@LoadBool_e
  000ca	32 d1		 xor	 dl, cl
  000cc	88 55 f2	 mov	 BYTE PTR __k$[ebp+10], dl
  000cf	8a 50 0b	 mov	 dl, BYTE PTR [eax+11]
  000d2	84 d2		 test	 dl, dl
  000d4	0f 84 92 00 00
	00		 je	 $LN85@LoadBool_e
  000da	80 f2 ea	 xor	 dl, -22			; ffffffeaH
  000dd	88 55 f3	 mov	 BYTE PTR __k$[ebp+11], dl
  000e0	8a 50 0c	 mov	 dl, BYTE PTR [eax+12]
  000e3	84 d2		 test	 dl, dl
  000e5	74 7f		 je	 SHORT $LN84@LoadBool_e
  000e7	80 f2 ed	 xor	 dl, -19			; ffffffedH
  000ea	88 55 f4	 mov	 BYTE PTR __k$[ebp+12], dl
  000ed	8a 50 0d	 mov	 dl, BYTE PTR [eax+13]
  000f0	84 d2		 test	 dl, dl
  000f2	74 6c		 je	 SHORT $LN83@LoadBool_e
  000f4	80 f2 ec	 xor	 dl, -20			; ffffffecH
  000f7	88 55 f5	 mov	 BYTE PTR __k$[ebp+13], dl
  000fa	8a 50 0e	 mov	 dl, BYTE PTR [eax+14]
  000fd	84 d2		 test	 dl, dl
  000ff	74 5a		 je	 SHORT $LN82@LoadBool_e
  00101	32 d1		 xor	 dl, cl
  00103	80 78 0f 00	 cmp	 BYTE PTR [eax+15], 0
  00107	88 55 f6	 mov	 BYTE PTR __k$[ebp+14], dl
  0010a	0f 84 a0 00 00
	00		 je	 $LN1@LoadBool_e
  00110	8a 50 10	 mov	 dl, BYTE PTR [eax+16]
  00113	84 d2		 test	 dl, dl
  00115	74 3e		 je	 SHORT $LN80@LoadBool_e
  00117	80 f2 ed	 xor	 dl, -19			; ffffffedH
  0011a	88 55 f8	 mov	 BYTE PTR __k$[ebp+16], dl
  0011d	8a 50 11	 mov	 dl, BYTE PTR [eax+17]
  00120	84 d2		 test	 dl, dl
  00122	74 2b		 je	 SHORT $LN79@LoadBool_e
  00124	80 f2 ec	 xor	 dl, -20			; ffffffecH
  00127	88 55 f9	 mov	 BYTE PTR __k$[ebp+17], dl
  0012a	8a 50 12	 mov	 dl, BYTE PTR [eax+18]
  0012d	84 d2		 test	 dl, dl
  0012f	74 19		 je	 SHORT $LN78@LoadBool_e
  00131	8a 40 13	 mov	 al, BYTE PTR [eax+19]
  00134	32 d1		 xor	 dl, cl
  00136	88 55 fa	 mov	 BYTE PTR __k$[ebp+18], dl
  00139	84 c0		 test	 al, al
  0013b	74 07		 je	 SHORT $LN77@LoadBool_e
  0013d	34 ea		 xor	 al, -22			; ffffffeaH
  0013f	88 45 fb	 mov	 BYTE PTR __k$[ebp+19], al
  00142	eb 6c		 jmp	 SHORT $LN1@LoadBool_e
$LN77@LoadBool_e:
  00144	c6 45 fb ea	 mov	 BYTE PTR __k$[ebp+19], -22 ; ffffffeaH
  00148	eb 66		 jmp	 SHORT $LN1@LoadBool_e
$LN78@LoadBool_e:
  0014a	88 4d fa	 mov	 BYTE PTR __k$[ebp+18], cl
  0014d	eb 61		 jmp	 SHORT $LN1@LoadBool_e
$LN79@LoadBool_e:
  0014f	c6 45 f9 ec	 mov	 BYTE PTR __k$[ebp+17], -20 ; ffffffecH
  00153	eb 5b		 jmp	 SHORT $LN1@LoadBool_e
$LN80@LoadBool_e:
  00155	c6 45 f8 ed	 mov	 BYTE PTR __k$[ebp+16], -19 ; ffffffedH
  00159	eb 55		 jmp	 SHORT $LN1@LoadBool_e
$LN82@LoadBool_e:
  0015b	88 4d f6	 mov	 BYTE PTR __k$[ebp+14], cl
  0015e	eb 50		 jmp	 SHORT $LN1@LoadBool_e
$LN83@LoadBool_e:
  00160	c6 45 f5 ec	 mov	 BYTE PTR __k$[ebp+13], -20 ; ffffffecH
  00164	eb 4a		 jmp	 SHORT $LN1@LoadBool_e
$LN84@LoadBool_e:
  00166	c6 45 f4 ed	 mov	 BYTE PTR __k$[ebp+12], -19 ; ffffffedH
  0016a	eb 44		 jmp	 SHORT $LN1@LoadBool_e
$LN85@LoadBool_e:
  0016c	c6 45 f3 ea	 mov	 BYTE PTR __k$[ebp+11], -22 ; ffffffeaH
  00170	eb 3e		 jmp	 SHORT $LN1@LoadBool_e
$LN86@LoadBool_e:
  00172	88 4d f2	 mov	 BYTE PTR __k$[ebp+10], cl
  00175	eb 39		 jmp	 SHORT $LN1@LoadBool_e
$LN87@LoadBool_e:
  00177	c6 45 f1 ec	 mov	 BYTE PTR __k$[ebp+9], -20 ; ffffffecH
  0017b	eb 33		 jmp	 SHORT $LN1@LoadBool_e
$LN88@LoadBool_e:
  0017d	c6 45 f0 ed	 mov	 BYTE PTR __k$[ebp+8], -19 ; ffffffedH
  00181	eb 2d		 jmp	 SHORT $LN1@LoadBool_e
$LN89@LoadBool_e:
  00183	c6 45 ef ea	 mov	 BYTE PTR __k$[ebp+7], -22 ; ffffffeaH
  00187	eb 27		 jmp	 SHORT $LN1@LoadBool_e
$LN90@LoadBool_e:
  00189	88 4d ee	 mov	 BYTE PTR __k$[ebp+6], cl
  0018c	eb 22		 jmp	 SHORT $LN1@LoadBool_e
$LN91@LoadBool_e:
  0018e	c6 45 ed ec	 mov	 BYTE PTR __k$[ebp+5], -20 ; ffffffecH
  00192	eb 1c		 jmp	 SHORT $LN1@LoadBool_e
$LN92@LoadBool_e:
  00194	c6 45 ec ed	 mov	 BYTE PTR __k$[ebp+4], -19 ; ffffffedH
  00198	eb 16		 jmp	 SHORT $LN1@LoadBool_e
$LN93@LoadBool_e:
  0019a	c6 45 eb ea	 mov	 BYTE PTR __k$[ebp+3], -22 ; ffffffeaH
  0019e	eb 10		 jmp	 SHORT $LN1@LoadBool_e
$LN94@LoadBool_e:
  001a0	c6 45 ea eb	 mov	 BYTE PTR __k$[ebp+2], -21 ; ffffffebH
  001a4	eb 0a		 jmp	 SHORT $LN1@LoadBool_e
$LN95@LoadBool_e:
  001a6	c6 45 e9 ec	 mov	 BYTE PTR __k$[ebp+1], -20 ; ffffffecH
  001aa	eb 04		 jmp	 SHORT $LN1@LoadBool_e
$LN96@LoadBool_e:
  001ac	c6 45 e8 ed	 mov	 BYTE PTR __k$[ebp], -19	; ffffffedH
$LN1@LoadBool_e:
  001b0	6a 03		 push	 3
  001b2	8d 45 e8	 lea	 eax, DWORD PTR __k$[ebp]
  001b5	c6 45 f7 00	 mov	 BYTE PTR __k$[ebp+15], 0
  001b9	5a		 pop	 edx
$LL104@LoadBool_e:
  001ba	81 30 ed ec eb
	ea		 xor	 DWORD PTR [eax], -353637139 ; eaebecedH
  001c0	83 c0 04	 add	 eax, 4
  001c3	4a		 dec	 edx
  001c4	75 f4		 jne	 SHORT $LL104@LoadBool_e
  001c6	6a 0c		 push	 12			; 0000000cH
  001c8	58		 pop	 eax
$LL101@LoadBool_e:
  001c9	8b c8		 mov	 ecx, eax
  001cb	81 e1 03 00 00
	80		 and	 ecx, -2147483645	; 80000003H
  001d1	79 05		 jns	 SHORT $LN111@LoadBool_e
  001d3	49		 dec	 ecx
  001d4	83 c9 fc	 or	 ecx, -4			; fffffffcH
  001d7	41		 inc	 ecx
$LN111@LoadBool_e:
  001d8	b2 ed		 mov	 dl, -19			; ffffffedH
  001da	2a d1		 sub	 dl, cl
  001dc	30 54 05 e8	 xor	 BYTE PTR __k$[ebp+eax], dl
  001e0	40		 inc	 eax
  001e1	83 f8 0f	 cmp	 eax, 15			; 0000000fH
  001e4	7c e3		 jl	 SHORT $LL101@LoadBool_e

; 103  : 		return LoadBool(_k, b);

  001e6	ff 75 0c	 push	 DWORD PTR _b$[ebp]
  001e9	8d 45 e8	 lea	 eax, DWORD PTR __k$[ebp]
  001ec	50		 push	 eax
  001ed	8b ce		 mov	 ecx, esi
  001ef	ff 15 00 00 00
	00		 call	 DWORD PTR __imp_?LoadBool@ioINILoader@@QAE_NPBD_N@Z

; 104  : 	}

  001f5	8b 4d fc	 mov	 ecx, DWORD PTR __$ArrayPad$[ebp]
  001f8	33 cd		 xor	 ecx, ebp
  001fa	5e		 pop	 esi
  001fb	e8 00 00 00 00	 call	 @__security_check_cookie@4
  00200	c9		 leave
  00201	c2 08 00	 ret	 8
??$LoadBool_e@$0BA@@ioINILoader@@QAE_NAAY0BA@$$CBD_N@Z ENDP ; ioINILoader::LoadBool_e<16>
_TEXT	ENDS
PUBLIC	__$ArrayPad$
PUBLIC	??$LoadInt_e@$0BC@@ioINILoader@@QAEHAAY0BC@$$CBDH@Z ; ioINILoader::LoadInt_e<18>
; Function compile flags: /Ogsp
;	COMDAT ??$LoadInt_e@$0BC@@ioINILoader@@QAEHAAY0BC@$$CBDH@Z
_TEXT	SEGMENT
__k$ = -28						; size = 18
__$ArrayPad$ = -4					; size = 4
_k$ = 8							; size = 4
_i$ = 12						; size = 4
??$LoadInt_e@$0BC@@ioINILoader@@QAEHAAY0BC@$$CBDH@Z PROC ; ioINILoader::LoadInt_e<18>, COMDAT
; _this$ = ecx

; 118  : 	{

  00000	55		 push	 ebp
  00001	8b ec		 mov	 ebp, esp
  00003	83 ec 1c	 sub	 esp, 28			; 0000001cH
  00006	a1 00 00 00 00	 mov	 eax, DWORD PTR ___security_cookie
  0000b	33 c5		 xor	 eax, ebp
  0000d	89 45 fc	 mov	 DWORD PTR __$ArrayPad$[ebp], eax
  00010	8b 45 08	 mov	 eax, DWORD PTR _k$[ebp]

; 119  : 		_ENCSTR(k, _k);

  00013	8a 10		 mov	 dl, BYTE PTR [eax]
  00015	56		 push	 esi
  00016	8b f1		 mov	 esi, ecx
  00018	84 d2		 test	 dl, dl
  0001a	0f 84 be 01 00
	00		 je	 $LN96@LoadInt_e@2
  00020	80 f2 ed	 xor	 dl, -19			; ffffffedH
  00023	88 55 e4	 mov	 BYTE PTR __k$[ebp], dl
  00026	8a 50 01	 mov	 dl, BYTE PTR [eax+1]
  00029	84 d2		 test	 dl, dl
  0002b	0f 84 a7 01 00
	00		 je	 $LN95@LoadInt_e@2
  00031	80 f2 ec	 xor	 dl, -20			; ffffffecH
  00034	88 55 e5	 mov	 BYTE PTR __k$[ebp+1], dl
  00037	8a 50 02	 mov	 dl, BYTE PTR [eax+2]
  0003a	84 d2		 test	 dl, dl
  0003c	0f 84 90 01 00
	00		 je	 $LN94@LoadInt_e@2
  00042	b1 eb		 mov	 cl, -21			; ffffffebH
  00044	32 d1		 xor	 dl, cl
  00046	88 55 e6	 mov	 BYTE PTR __k$[ebp+2], dl
  00049	8a 50 03	 mov	 dl, BYTE PTR [eax+3]
  0004c	84 d2		 test	 dl, dl
  0004e	0f 84 78 01 00
	00		 je	 $LN93@LoadInt_e@2
  00054	80 f2 ea	 xor	 dl, -22			; ffffffeaH
  00057	88 55 e7	 mov	 BYTE PTR __k$[ebp+3], dl
  0005a	8a 50 04	 mov	 dl, BYTE PTR [eax+4]
  0005d	84 d2		 test	 dl, dl
  0005f	0f 84 61 01 00
	00		 je	 $LN92@LoadInt_e@2
  00065	80 f2 ed	 xor	 dl, -19			; ffffffedH
  00068	88 55 e8	 mov	 BYTE PTR __k$[ebp+4], dl
  0006b	8a 50 05	 mov	 dl, BYTE PTR [eax+5]
  0006e	84 d2		 test	 dl, dl
  00070	0f 84 4a 01 00
	00		 je	 $LN91@LoadInt_e@2
  00076	80 f2 ec	 xor	 dl, -20			; ffffffecH
  00079	88 55 e9	 mov	 BYTE PTR __k$[ebp+5], dl
  0007c	8a 50 06	 mov	 dl, BYTE PTR [eax+6]
  0007f	84 d2		 test	 dl, dl
  00081	0f 84 34 01 00
	00		 je	 $LN90@LoadInt_e@2
  00087	32 d1		 xor	 dl, cl
  00089	88 55 ea	 mov	 BYTE PTR __k$[ebp+6], dl
  0008c	8a 50 07	 mov	 dl, BYTE PTR [eax+7]
  0008f	84 d2		 test	 dl, dl
  00091	0f 84 1e 01 00
	00		 je	 $LN89@LoadInt_e@2
  00097	80 f2 ea	 xor	 dl, -22			; ffffffeaH
  0009a	88 55 eb	 mov	 BYTE PTR __k$[ebp+7], dl
  0009d	8a 50 08	 mov	 dl, BYTE PTR [eax+8]
  000a0	84 d2		 test	 dl, dl
  000a2	0f 84 07 01 00
	00		 je	 $LN88@LoadInt_e@2
  000a8	80 f2 ed	 xor	 dl, -19			; ffffffedH
  000ab	88 55 ec	 mov	 BYTE PTR __k$[ebp+8], dl
  000ae	8a 50 09	 mov	 dl, BYTE PTR [eax+9]
  000b1	84 d2		 test	 dl, dl
  000b3	0f 84 f0 00 00
	00		 je	 $LN87@LoadInt_e@2
  000b9	80 f2 ec	 xor	 dl, -20			; ffffffecH
  000bc	88 55 ed	 mov	 BYTE PTR __k$[ebp+9], dl
  000bf	8a 50 0a	 mov	 dl, BYTE PTR [eax+10]
  000c2	84 d2		 test	 dl, dl
  000c4	0f 84 da 00 00
	00		 je	 $LN86@LoadInt_e@2
  000ca	32 d1		 xor	 dl, cl
  000cc	88 55 ee	 mov	 BYTE PTR __k$[ebp+10], dl
  000cf	8a 50 0b	 mov	 dl, BYTE PTR [eax+11]
  000d2	84 d2		 test	 dl, dl
  000d4	0f 84 c4 00 00
	00		 je	 $LN85@LoadInt_e@2
  000da	80 f2 ea	 xor	 dl, -22			; ffffffeaH
  000dd	88 55 ef	 mov	 BYTE PTR __k$[ebp+11], dl
  000e0	8a 50 0c	 mov	 dl, BYTE PTR [eax+12]
  000e3	84 d2		 test	 dl, dl
  000e5	0f 84 ad 00 00
	00		 je	 $LN84@LoadInt_e@2
  000eb	80 f2 ed	 xor	 dl, -19			; ffffffedH
  000ee	88 55 f0	 mov	 BYTE PTR __k$[ebp+12], dl
  000f1	8a 50 0d	 mov	 dl, BYTE PTR [eax+13]
  000f4	84 d2		 test	 dl, dl
  000f6	0f 84 96 00 00
	00		 je	 $LN83@LoadInt_e@2
  000fc	80 f2 ec	 xor	 dl, -20			; ffffffecH
  000ff	88 55 f1	 mov	 BYTE PTR __k$[ebp+13], dl
  00102	8a 50 0e	 mov	 dl, BYTE PTR [eax+14]
  00105	84 d2		 test	 dl, dl
  00107	0f 84 80 00 00
	00		 je	 $LN82@LoadInt_e@2
  0010d	32 d1		 xor	 dl, cl
  0010f	88 55 f2	 mov	 BYTE PTR __k$[ebp+14], dl
  00112	8a 50 0f	 mov	 dl, BYTE PTR [eax+15]
  00115	84 d2		 test	 dl, dl
  00117	74 6e		 je	 SHORT $LN81@LoadInt_e@2
  00119	80 f2 ea	 xor	 dl, -22			; ffffffeaH
  0011c	88 55 f3	 mov	 BYTE PTR __k$[ebp+15], dl
  0011f	8a 50 10	 mov	 dl, BYTE PTR [eax+16]
  00122	84 d2		 test	 dl, dl
  00124	74 5b		 je	 SHORT $LN80@LoadInt_e@2
  00126	80 f2 ed	 xor	 dl, -19			; ffffffedH
  00129	80 78 11 00	 cmp	 BYTE PTR [eax+17], 0
  0012d	88 55 f4	 mov	 BYTE PTR __k$[ebp+16], dl
  00130	0f 84 ac 00 00
	00		 je	 $LN1@LoadInt_e@2
  00136	8a 50 12	 mov	 dl, BYTE PTR [eax+18]
  00139	84 d2		 test	 dl, dl
  0013b	74 3f		 je	 SHORT $LN78@LoadInt_e@2
  0013d	32 d1		 xor	 dl, cl
  0013f	88 55 f6	 mov	 BYTE PTR __k$[ebp+18], dl
  00142	8a 50 13	 mov	 dl, BYTE PTR [eax+19]
  00145	84 d2		 test	 dl, dl
  00147	74 2d		 je	 SHORT $LN77@LoadInt_e@2
  00149	80 f2 ea	 xor	 dl, -22			; ffffffeaH
  0014c	88 55 f7	 mov	 BYTE PTR __k$[ebp+19], dl
  0014f	8a 50 14	 mov	 dl, BYTE PTR [eax+20]
  00152	84 d2		 test	 dl, dl
  00154	74 1a		 je	 SHORT $LN76@LoadInt_e@2
  00156	8a 40 15	 mov	 al, BYTE PTR [eax+21]
  00159	80 f2 ed	 xor	 dl, -19			; ffffffedH
  0015c	88 55 f8	 mov	 BYTE PTR __k$[ebp+20], dl
  0015f	84 c0		 test	 al, al
  00161	74 07		 je	 SHORT $LN75@LoadInt_e@2
  00163	34 ec		 xor	 al, -20			; ffffffecH
  00165	88 45 f9	 mov	 BYTE PTR __k$[ebp+21], al
  00168	eb 78		 jmp	 SHORT $LN1@LoadInt_e@2
$LN75@LoadInt_e@2:
  0016a	c6 45 f9 ec	 mov	 BYTE PTR __k$[ebp+21], -20 ; ffffffecH
  0016e	eb 72		 jmp	 SHORT $LN1@LoadInt_e@2
$LN76@LoadInt_e@2:
  00170	c6 45 f8 ed	 mov	 BYTE PTR __k$[ebp+20], -19 ; ffffffedH
  00174	eb 6c		 jmp	 SHORT $LN1@LoadInt_e@2
$LN77@LoadInt_e@2:
  00176	c6 45 f7 ea	 mov	 BYTE PTR __k$[ebp+19], -22 ; ffffffeaH
  0017a	eb 66		 jmp	 SHORT $LN1@LoadInt_e@2
$LN78@LoadInt_e@2:
  0017c	88 4d f6	 mov	 BYTE PTR __k$[ebp+18], cl
  0017f	eb 61		 jmp	 SHORT $LN1@LoadInt_e@2
$LN80@LoadInt_e@2:
  00181	c6 45 f4 ed	 mov	 BYTE PTR __k$[ebp+16], -19 ; ffffffedH
  00185	eb 5b		 jmp	 SHORT $LN1@LoadInt_e@2
$LN81@LoadInt_e@2:
  00187	c6 45 f3 ea	 mov	 BYTE PTR __k$[ebp+15], -22 ; ffffffeaH
  0018b	eb 55		 jmp	 SHORT $LN1@LoadInt_e@2
$LN82@LoadInt_e@2:
  0018d	88 4d f2	 mov	 BYTE PTR __k$[ebp+14], cl
  00190	eb 50		 jmp	 SHORT $LN1@LoadInt_e@2
$LN83@LoadInt_e@2:
  00192	c6 45 f1 ec	 mov	 BYTE PTR __k$[ebp+13], -20 ; ffffffecH
  00196	eb 4a		 jmp	 SHORT $LN1@LoadInt_e@2
$LN84@LoadInt_e@2:
  00198	c6 45 f0 ed	 mov	 BYTE PTR __k$[ebp+12], -19 ; ffffffedH
  0019c	eb 44		 jmp	 SHORT $LN1@LoadInt_e@2
$LN85@LoadInt_e@2:
  0019e	c6 45 ef ea	 mov	 BYTE PTR __k$[ebp+11], -22 ; ffffffeaH
  001a2	eb 3e		 jmp	 SHORT $LN1@LoadInt_e@2
$LN86@LoadInt_e@2:
  001a4	88 4d ee	 mov	 BYTE PTR __k$[ebp+10], cl
  001a7	eb 39		 jmp	 SHORT $LN1@LoadInt_e@2
$LN87@LoadInt_e@2:
  001a9	c6 45 ed ec	 mov	 BYTE PTR __k$[ebp+9], -20 ; ffffffecH
  001ad	eb 33		 jmp	 SHORT $LN1@LoadInt_e@2
$LN88@LoadInt_e@2:
  001af	c6 45 ec ed	 mov	 BYTE PTR __k$[ebp+8], -19 ; ffffffedH
  001b3	eb 2d		 jmp	 SHORT $LN1@LoadInt_e@2
$LN89@LoadInt_e@2:
  001b5	c6 45 eb ea	 mov	 BYTE PTR __k$[ebp+7], -22 ; ffffffeaH
  001b9	eb 27		 jmp	 SHORT $LN1@LoadInt_e@2
$LN90@LoadInt_e@2:
  001bb	88 4d ea	 mov	 BYTE PTR __k$[ebp+6], cl
  001be	eb 22		 jmp	 SHORT $LN1@LoadInt_e@2
$LN91@LoadInt_e@2:
  001c0	c6 45 e9 ec	 mov	 BYTE PTR __k$[ebp+5], -20 ; ffffffecH
  001c4	eb 1c		 jmp	 SHORT $LN1@LoadInt_e@2
$LN92@LoadInt_e@2:
  001c6	c6 45 e8 ed	 mov	 BYTE PTR __k$[ebp+4], -19 ; ffffffedH
  001ca	eb 16		 jmp	 SHORT $LN1@LoadInt_e@2
$LN93@LoadInt_e@2:
  001cc	c6 45 e7 ea	 mov	 BYTE PTR __k$[ebp+3], -22 ; ffffffeaH
  001d0	eb 10		 jmp	 SHORT $LN1@LoadInt_e@2
$LN94@LoadInt_e@2:
  001d2	c6 45 e6 eb	 mov	 BYTE PTR __k$[ebp+2], -21 ; ffffffebH
  001d6	eb 0a		 jmp	 SHORT $LN1@LoadInt_e@2
$LN95@LoadInt_e@2:
  001d8	c6 45 e5 ec	 mov	 BYTE PTR __k$[ebp+1], -20 ; ffffffecH
  001dc	eb 04		 jmp	 SHORT $LN1@LoadInt_e@2
$LN96@LoadInt_e@2:
  001de	c6 45 e4 ed	 mov	 BYTE PTR __k$[ebp], -19	; ffffffedH
$LN1@LoadInt_e@2:
  001e2	6a 04		 push	 4
  001e4	8d 45 e4	 lea	 eax, DWORD PTR __k$[ebp]
  001e7	c6 45 f5 00	 mov	 BYTE PTR __k$[ebp+17], 0
  001eb	5a		 pop	 edx
$LL104@LoadInt_e@2:
  001ec	81 30 ed ec eb
	ea		 xor	 DWORD PTR [eax], -353637139 ; eaebecedH
  001f2	83 c0 04	 add	 eax, 4
  001f5	4a		 dec	 edx
  001f6	75 f4		 jne	 SHORT $LL104@LoadInt_e@2

; 120  : 		return LoadInt(_k, i);

  001f8	ff 75 0c	 push	 DWORD PTR _i$[ebp]
  001fb	80 75 f4 ed	 xor	 BYTE PTR __k$[ebp+16], -19 ; ffffffedH
  001ff	8d 45 e4	 lea	 eax, DWORD PTR __k$[ebp]
  00202	50		 push	 eax
  00203	8b ce		 mov	 ecx, esi
  00205	ff 15 00 00 00
	00		 call	 DWORD PTR __imp_?LoadInt@ioINILoader@@QAEHPBDH@Z

; 121  : 	}

  0020b	8b 4d fc	 mov	 ecx, DWORD PTR __$ArrayPad$[ebp]
  0020e	33 cd		 xor	 ecx, ebp
  00210	5e		 pop	 esi
  00211	e8 00 00 00 00	 call	 @__security_check_cookie@4
  00216	c9		 leave
  00217	c2 08 00	 ret	 8
??$LoadInt_e@$0BC@@ioINILoader@@QAEHAAY0BC@$$CBDH@Z ENDP ; ioINILoader::LoadInt_e<18>
_TEXT	ENDS
PUBLIC	__$ArrayPad$
PUBLIC	??$LoadInt_e@$0BE@@ioINILoader@@QAEHAAY0BE@$$CBDH@Z ; ioINILoader::LoadInt_e<20>
; Function compile flags: /Ogsp
;	COMDAT ??$LoadInt_e@$0BE@@ioINILoader@@QAEHAAY0BE@$$CBDH@Z
_TEXT	SEGMENT
__k$ = -28						; size = 20
__$ArrayPad$ = -4					; size = 4
_k$ = 8							; size = 4
_i$ = 12						; size = 4
??$LoadInt_e@$0BE@@ioINILoader@@QAEHAAY0BE@$$CBDH@Z PROC ; ioINILoader::LoadInt_e<20>, COMDAT
; _this$ = ecx

; 118  : 	{

  00000	55		 push	 ebp
  00001	8b ec		 mov	 ebp, esp
  00003	83 ec 1c	 sub	 esp, 28			; 0000001cH
  00006	a1 00 00 00 00	 mov	 eax, DWORD PTR ___security_cookie
  0000b	33 c5		 xor	 eax, ebp
  0000d	89 45 fc	 mov	 DWORD PTR __$ArrayPad$[ebp], eax
  00010	8b 45 08	 mov	 eax, DWORD PTR _k$[ebp]

; 119  : 		_ENCSTR(k, _k);

  00013	8a 10		 mov	 dl, BYTE PTR [eax]
  00015	53		 push	 ebx
  00016	56		 push	 esi
  00017	8b f1		 mov	 esi, ecx
  00019	84 d2		 test	 dl, dl
  0001b	0f 84 dd 01 00
	00		 je	 $LN96@LoadInt_e@3
  00021	80 f2 ed	 xor	 dl, -19			; ffffffedH
  00024	88 55 e4	 mov	 BYTE PTR __k$[ebp], dl
  00027	8a 50 01	 mov	 dl, BYTE PTR [eax+1]
  0002a	84 d2		 test	 dl, dl
  0002c	0f 84 c6 01 00
	00		 je	 $LN95@LoadInt_e@3
  00032	b3 ec		 mov	 bl, -20			; ffffffecH
  00034	32 d3		 xor	 dl, bl
  00036	88 55 e5	 mov	 BYTE PTR __k$[ebp+1], dl
  00039	8a 50 02	 mov	 dl, BYTE PTR [eax+2]
  0003c	84 d2		 test	 dl, dl
  0003e	0f 84 ae 01 00
	00		 je	 $LN94@LoadInt_e@3
  00044	b1 eb		 mov	 cl, -21			; ffffffebH
  00046	32 d1		 xor	 dl, cl
  00048	88 55 e6	 mov	 BYTE PTR __k$[ebp+2], dl
  0004b	8a 50 03	 mov	 dl, BYTE PTR [eax+3]
  0004e	84 d2		 test	 dl, dl
  00050	0f 84 96 01 00
	00		 je	 $LN93@LoadInt_e@3
  00056	80 f2 ea	 xor	 dl, -22			; ffffffeaH
  00059	88 55 e7	 mov	 BYTE PTR __k$[ebp+3], dl
  0005c	8a 50 04	 mov	 dl, BYTE PTR [eax+4]
  0005f	84 d2		 test	 dl, dl
  00061	0f 84 7f 01 00
	00		 je	 $LN92@LoadInt_e@3
  00067	80 f2 ed	 xor	 dl, -19			; ffffffedH
  0006a	88 55 e8	 mov	 BYTE PTR __k$[ebp+4], dl
  0006d	8a 50 05	 mov	 dl, BYTE PTR [eax+5]
  00070	84 d2		 test	 dl, dl
  00072	0f 84 69 01 00
	00		 je	 $LN91@LoadInt_e@3
  00078	32 d3		 xor	 dl, bl
  0007a	88 55 e9	 mov	 BYTE PTR __k$[ebp+5], dl
  0007d	8a 50 06	 mov	 dl, BYTE PTR [eax+6]
  00080	84 d2		 test	 dl, dl
  00082	0f 84 54 01 00
	00		 je	 $LN90@LoadInt_e@3
  00088	32 d1		 xor	 dl, cl
  0008a	88 55 ea	 mov	 BYTE PTR __k$[ebp+6], dl
  0008d	8a 50 07	 mov	 dl, BYTE PTR [eax+7]
  00090	84 d2		 test	 dl, dl
  00092	0f 84 3e 01 00
	00		 je	 $LN89@LoadInt_e@3
  00098	80 f2 ea	 xor	 dl, -22			; ffffffeaH
  0009b	88 55 eb	 mov	 BYTE PTR __k$[ebp+7], dl
  0009e	8a 50 08	 mov	 dl, BYTE PTR [eax+8]
  000a1	84 d2		 test	 dl, dl
  000a3	0f 84 27 01 00
	00		 je	 $LN88@LoadInt_e@3
  000a9	80 f2 ed	 xor	 dl, -19			; ffffffedH
  000ac	88 55 ec	 mov	 BYTE PTR __k$[ebp+8], dl
  000af	8a 50 09	 mov	 dl, BYTE PTR [eax+9]
  000b2	84 d2		 test	 dl, dl
  000b4	0f 84 11 01 00
	00		 je	 $LN87@LoadInt_e@3
  000ba	32 d3		 xor	 dl, bl
  000bc	88 55 ed	 mov	 BYTE PTR __k$[ebp+9], dl
  000bf	8a 50 0a	 mov	 dl, BYTE PTR [eax+10]
  000c2	84 d2		 test	 dl, dl
  000c4	0f 84 fc 00 00
	00		 je	 $LN86@LoadInt_e@3
  000ca	32 d1		 xor	 dl, cl
  000cc	88 55 ee	 mov	 BYTE PTR __k$[ebp+10], dl
  000cf	8a 50 0b	 mov	 dl, BYTE PTR [eax+11]
  000d2	84 d2		 test	 dl, dl
  000d4	0f 84 e6 00 00
	00		 je	 $LN85@LoadInt_e@3
  000da	80 f2 ea	 xor	 dl, -22			; ffffffeaH
  000dd	88 55 ef	 mov	 BYTE PTR __k$[ebp+11], dl
  000e0	8a 50 0c	 mov	 dl, BYTE PTR [eax+12]
  000e3	84 d2		 test	 dl, dl
  000e5	0f 84 cf 00 00
	00		 je	 $LN84@LoadInt_e@3
  000eb	80 f2 ed	 xor	 dl, -19			; ffffffedH
  000ee	88 55 f0	 mov	 BYTE PTR __k$[ebp+12], dl
  000f1	8a 50 0d	 mov	 dl, BYTE PTR [eax+13]
  000f4	84 d2		 test	 dl, dl
  000f6	0f 84 b9 00 00
	00		 je	 $LN83@LoadInt_e@3
  000fc	32 d3		 xor	 dl, bl
  000fe	88 55 f1	 mov	 BYTE PTR __k$[ebp+13], dl
  00101	8a 50 0e	 mov	 dl, BYTE PTR [eax+14]
  00104	84 d2		 test	 dl, dl
  00106	0f 84 a4 00 00
	00		 je	 $LN82@LoadInt_e@3
  0010c	32 d1		 xor	 dl, cl
  0010e	88 55 f2	 mov	 BYTE PTR __k$[ebp+14], dl
  00111	8a 50 0f	 mov	 dl, BYTE PTR [eax+15]
  00114	84 d2		 test	 dl, dl
  00116	0f 84 8e 00 00
	00		 je	 $LN81@LoadInt_e@3
  0011c	80 f2 ea	 xor	 dl, -22			; ffffffeaH
  0011f	88 55 f3	 mov	 BYTE PTR __k$[ebp+15], dl
  00122	8a 50 10	 mov	 dl, BYTE PTR [eax+16]
  00125	84 d2		 test	 dl, dl
  00127	74 7b		 je	 SHORT $LN80@LoadInt_e@3
  00129	80 f2 ed	 xor	 dl, -19			; ffffffedH
  0012c	88 55 f4	 mov	 BYTE PTR __k$[ebp+16], dl
  0012f	8a 50 11	 mov	 dl, BYTE PTR [eax+17]
  00132	84 d2		 test	 dl, dl
  00134	74 69		 je	 SHORT $LN79@LoadInt_e@3
  00136	32 d3		 xor	 dl, bl
  00138	88 55 f5	 mov	 BYTE PTR __k$[ebp+17], dl
  0013b	8a 50 12	 mov	 dl, BYTE PTR [eax+18]
  0013e	84 d2		 test	 dl, dl
  00140	74 58		 je	 SHORT $LN78@LoadInt_e@3
  00142	32 d1		 xor	 dl, cl
  00144	80 78 13 00	 cmp	 BYTE PTR [eax+19], 0
  00148	88 55 f6	 mov	 BYTE PTR __k$[ebp+18], dl
  0014b	0f 84 b1 00 00
	00		 je	 $LN1@LoadInt_e@3
  00151	8a 50 14	 mov	 dl, BYTE PTR [eax+20]
  00154	84 d2		 test	 dl, dl
  00156	74 3c		 je	 SHORT $LN76@LoadInt_e@3
  00158	80 f2 ed	 xor	 dl, -19			; ffffffedH
  0015b	88 55 f8	 mov	 BYTE PTR __k$[ebp+20], dl
  0015e	8a 50 15	 mov	 dl, BYTE PTR [eax+21]
  00161	84 d2		 test	 dl, dl
  00163	74 2a		 je	 SHORT $LN75@LoadInt_e@3
  00165	32 d3		 xor	 dl, bl
  00167	88 55 f9	 mov	 BYTE PTR __k$[ebp+21], dl
  0016a	8a 50 16	 mov	 dl, BYTE PTR [eax+22]
  0016d	84 d2		 test	 dl, dl
  0016f	74 19		 je	 SHORT $LN74@LoadInt_e@3
  00171	8a 40 17	 mov	 al, BYTE PTR [eax+23]
  00174	32 d1		 xor	 dl, cl
  00176	88 55 fa	 mov	 BYTE PTR __k$[ebp+22], dl
  00179	84 c0		 test	 al, al
  0017b	74 07		 je	 SHORT $LN73@LoadInt_e@3
  0017d	34 ea		 xor	 al, -22			; ffffffeaH
  0017f	88 45 fb	 mov	 BYTE PTR __k$[ebp+23], al
  00182	eb 7e		 jmp	 SHORT $LN1@LoadInt_e@3
$LN73@LoadInt_e@3:
  00184	c6 45 fb ea	 mov	 BYTE PTR __k$[ebp+23], -22 ; ffffffeaH
  00188	eb 78		 jmp	 SHORT $LN1@LoadInt_e@3
$LN74@LoadInt_e@3:
  0018a	88 4d fa	 mov	 BYTE PTR __k$[ebp+22], cl
  0018d	eb 73		 jmp	 SHORT $LN1@LoadInt_e@3
$LN75@LoadInt_e@3:
  0018f	88 5d f9	 mov	 BYTE PTR __k$[ebp+21], bl
  00192	eb 6e		 jmp	 SHORT $LN1@LoadInt_e@3
$LN76@LoadInt_e@3:
  00194	c6 45 f8 ed	 mov	 BYTE PTR __k$[ebp+20], -19 ; ffffffedH
  00198	eb 68		 jmp	 SHORT $LN1@LoadInt_e@3
$LN78@LoadInt_e@3:
  0019a	88 4d f6	 mov	 BYTE PTR __k$[ebp+18], cl
  0019d	eb 63		 jmp	 SHORT $LN1@LoadInt_e@3
$LN79@LoadInt_e@3:
  0019f	88 5d f5	 mov	 BYTE PTR __k$[ebp+17], bl
  001a2	eb 5e		 jmp	 SHORT $LN1@LoadInt_e@3
$LN80@LoadInt_e@3:
  001a4	c6 45 f4 ed	 mov	 BYTE PTR __k$[ebp+16], -19 ; ffffffedH
  001a8	eb 58		 jmp	 SHORT $LN1@LoadInt_e@3
$LN81@LoadInt_e@3:
  001aa	c6 45 f3 ea	 mov	 BYTE PTR __k$[ebp+15], -22 ; ffffffeaH
  001ae	eb 52		 jmp	 SHORT $LN1@LoadInt_e@3
$LN82@LoadInt_e@3:
  001b0	88 4d f2	 mov	 BYTE PTR __k$[ebp+14], cl
  001b3	eb 4d		 jmp	 SHORT $LN1@LoadInt_e@3
$LN83@LoadInt_e@3:
  001b5	88 5d f1	 mov	 BYTE PTR __k$[ebp+13], bl
  001b8	eb 48		 jmp	 SHORT $LN1@LoadInt_e@3
$LN84@LoadInt_e@3:
  001ba	c6 45 f0 ed	 mov	 BYTE PTR __k$[ebp+12], -19 ; ffffffedH
  001be	eb 42		 jmp	 SHORT $LN1@LoadInt_e@3
$LN85@LoadInt_e@3:
  001c0	c6 45 ef ea	 mov	 BYTE PTR __k$[ebp+11], -22 ; ffffffeaH
  001c4	eb 3c		 jmp	 SHORT $LN1@LoadInt_e@3
$LN86@LoadInt_e@3:
  001c6	88 4d ee	 mov	 BYTE PTR __k$[ebp+10], cl
  001c9	eb 37		 jmp	 SHORT $LN1@LoadInt_e@3
$LN87@LoadInt_e@3:
  001cb	88 5d ed	 mov	 BYTE PTR __k$[ebp+9], bl
  001ce	eb 32		 jmp	 SHORT $LN1@LoadInt_e@3
$LN88@LoadInt_e@3:
  001d0	c6 45 ec ed	 mov	 BYTE PTR __k$[ebp+8], -19 ; ffffffedH
  001d4	eb 2c		 jmp	 SHORT $LN1@LoadInt_e@3
$LN89@LoadInt_e@3:
  001d6	c6 45 eb ea	 mov	 BYTE PTR __k$[ebp+7], -22 ; ffffffeaH
  001da	eb 26		 jmp	 SHORT $LN1@LoadInt_e@3
$LN90@LoadInt_e@3:
  001dc	88 4d ea	 mov	 BYTE PTR __k$[ebp+6], cl
  001df	eb 21		 jmp	 SHORT $LN1@LoadInt_e@3
$LN91@LoadInt_e@3:
  001e1	88 5d e9	 mov	 BYTE PTR __k$[ebp+5], bl
  001e4	eb 1c		 jmp	 SHORT $LN1@LoadInt_e@3
$LN92@LoadInt_e@3:
  001e6	c6 45 e8 ed	 mov	 BYTE PTR __k$[ebp+4], -19 ; ffffffedH
  001ea	eb 16		 jmp	 SHORT $LN1@LoadInt_e@3
$LN93@LoadInt_e@3:
  001ec	c6 45 e7 ea	 mov	 BYTE PTR __k$[ebp+3], -22 ; ffffffeaH
  001f0	eb 10		 jmp	 SHORT $LN1@LoadInt_e@3
$LN94@LoadInt_e@3:
  001f2	c6 45 e6 eb	 mov	 BYTE PTR __k$[ebp+2], -21 ; ffffffebH
  001f6	eb 0a		 jmp	 SHORT $LN1@LoadInt_e@3
$LN95@LoadInt_e@3:
  001f8	c6 45 e5 ec	 mov	 BYTE PTR __k$[ebp+1], -20 ; ffffffecH
  001fc	eb 04		 jmp	 SHORT $LN1@LoadInt_e@3
$LN96@LoadInt_e@3:
  001fe	c6 45 e4 ed	 mov	 BYTE PTR __k$[ebp], -19	; ffffffedH
$LN1@LoadInt_e@3:
  00202	6a 04		 push	 4
  00204	8d 45 e4	 lea	 eax, DWORD PTR __k$[ebp]
  00207	c6 45 f7 00	 mov	 BYTE PTR __k$[ebp+19], 0
  0020b	5a		 pop	 edx
$LL104@LoadInt_e@3:
  0020c	81 30 ed ec eb
	ea		 xor	 DWORD PTR [eax], -353637139 ; eaebecedH
  00212	83 c0 04	 add	 eax, 4
  00215	4a		 dec	 edx
  00216	75 f4		 jne	 SHORT $LL104@LoadInt_e@3
  00218	6a 10		 push	 16			; 00000010H
  0021a	58		 pop	 eax
$LL101@LoadInt_e@3:
  0021b	8b c8		 mov	 ecx, eax
  0021d	81 e1 03 00 00
	80		 and	 ecx, -2147483645	; 80000003H
  00223	79 05		 jns	 SHORT $LN111@LoadInt_e@3
  00225	49		 dec	 ecx
  00226	83 c9 fc	 or	 ecx, -4			; fffffffcH
  00229	41		 inc	 ecx
$LN111@LoadInt_e@3:
  0022a	b2 ed		 mov	 dl, -19			; ffffffedH
  0022c	2a d1		 sub	 dl, cl
  0022e	30 54 05 e4	 xor	 BYTE PTR __k$[ebp+eax], dl
  00232	40		 inc	 eax
  00233	83 f8 13	 cmp	 eax, 19			; 00000013H
  00236	7c e3		 jl	 SHORT $LL101@LoadInt_e@3

; 120  : 		return LoadInt(_k, i);

  00238	ff 75 0c	 push	 DWORD PTR _i$[ebp]
  0023b	8d 45 e4	 lea	 eax, DWORD PTR __k$[ebp]
  0023e	50		 push	 eax
  0023f	8b ce		 mov	 ecx, esi
  00241	ff 15 00 00 00
	00		 call	 DWORD PTR __imp_?LoadInt@ioINILoader@@QAEHPBDH@Z

; 121  : 	}

  00247	8b 4d fc	 mov	 ecx, DWORD PTR __$ArrayPad$[ebp]
  0024a	5e		 pop	 esi
  0024b	33 cd		 xor	 ecx, ebp
  0024d	5b		 pop	 ebx
  0024e	e8 00 00 00 00	 call	 @__security_check_cookie@4
  00253	c9		 leave
  00254	c2 08 00	 ret	 8
??$LoadInt_e@$0BE@@ioINILoader@@QAEHAAY0BE@$$CBDH@Z ENDP ; ioINILoader::LoadInt_e<20>
_TEXT	ENDS
PUBLIC	__$ArrayPad$
PUBLIC	??$LoadFloat_e@$0M@@ioINILoader@@QAEMAAY0M@$$CBDM@Z ; ioINILoader::LoadFloat_e<12>
EXTRN	__imp_?LoadFloat@ioINILoader@@QAEMPBDM@Z:PROC
; Function compile flags: /Ogsp
;	COMDAT ??$LoadFloat_e@$0M@@ioINILoader@@QAEMAAY0M@$$CBDM@Z
_TEXT	SEGMENT
__k$ = -20						; size = 12
__$ArrayPad$ = -4					; size = 4
_k$ = 8							; size = 4
_f$ = 12						; size = 4
??$LoadFloat_e@$0M@@ioINILoader@@QAEMAAY0M@$$CBDM@Z PROC ; ioINILoader::LoadFloat_e<12>, COMDAT
; _this$ = ecx

; 135  : 	{

  00000	55		 push	 ebp
  00001	8b ec		 mov	 ebp, esp
  00003	83 ec 14	 sub	 esp, 20			; 00000014H
  00006	a1 00 00 00 00	 mov	 eax, DWORD PTR ___security_cookie
  0000b	33 c5		 xor	 eax, ebp
  0000d	89 45 fc	 mov	 DWORD PTR __$ArrayPad$[ebp], eax
  00010	8b 45 08	 mov	 eax, DWORD PTR _k$[ebp]

; 136  : 		_ENCSTR(k, _k);

  00013	8a 10		 mov	 dl, BYTE PTR [eax]
  00015	56		 push	 esi
  00016	8b f1		 mov	 esi, ecx
  00018	84 d2		 test	 dl, dl
  0001a	0f 84 32 01 00
	00		 je	 $LN96@LoadFloat_
  00020	80 f2 ed	 xor	 dl, -19			; ffffffedH
  00023	88 55 ec	 mov	 BYTE PTR __k$[ebp], dl
  00026	8a 50 01	 mov	 dl, BYTE PTR [eax+1]
  00029	84 d2		 test	 dl, dl
  0002b	0f 84 1b 01 00
	00		 je	 $LN95@LoadFloat_
  00031	80 f2 ec	 xor	 dl, -20			; ffffffecH
  00034	88 55 ed	 mov	 BYTE PTR __k$[ebp+1], dl
  00037	8a 50 02	 mov	 dl, BYTE PTR [eax+2]
  0003a	84 d2		 test	 dl, dl
  0003c	0f 84 04 01 00
	00		 je	 $LN94@LoadFloat_
  00042	b1 eb		 mov	 cl, -21			; ffffffebH
  00044	32 d1		 xor	 dl, cl
  00046	88 55 ee	 mov	 BYTE PTR __k$[ebp+2], dl
  00049	8a 50 03	 mov	 dl, BYTE PTR [eax+3]
  0004c	84 d2		 test	 dl, dl
  0004e	0f 84 ec 00 00
	00		 je	 $LN93@LoadFloat_
  00054	80 f2 ea	 xor	 dl, -22			; ffffffeaH
  00057	88 55 ef	 mov	 BYTE PTR __k$[ebp+3], dl
  0005a	8a 50 04	 mov	 dl, BYTE PTR [eax+4]
  0005d	84 d2		 test	 dl, dl
  0005f	0f 84 d5 00 00
	00		 je	 $LN92@LoadFloat_
  00065	80 f2 ed	 xor	 dl, -19			; ffffffedH
  00068	88 55 f0	 mov	 BYTE PTR __k$[ebp+4], dl
  0006b	8a 50 05	 mov	 dl, BYTE PTR [eax+5]
  0006e	84 d2		 test	 dl, dl
  00070	0f 84 be 00 00
	00		 je	 $LN91@LoadFloat_
  00076	80 f2 ec	 xor	 dl, -20			; ffffffecH
  00079	88 55 f1	 mov	 BYTE PTR __k$[ebp+5], dl
  0007c	8a 50 06	 mov	 dl, BYTE PTR [eax+6]
  0007f	84 d2		 test	 dl, dl
  00081	0f 84 a8 00 00
	00		 je	 $LN90@LoadFloat_
  00087	32 d1		 xor	 dl, cl
  00089	88 55 f2	 mov	 BYTE PTR __k$[ebp+6], dl
  0008c	8a 50 07	 mov	 dl, BYTE PTR [eax+7]
  0008f	84 d2		 test	 dl, dl
  00091	0f 84 92 00 00
	00		 je	 $LN89@LoadFloat_
  00097	80 f2 ea	 xor	 dl, -22			; ffffffeaH
  0009a	88 55 f3	 mov	 BYTE PTR __k$[ebp+7], dl
  0009d	8a 50 08	 mov	 dl, BYTE PTR [eax+8]
  000a0	84 d2		 test	 dl, dl
  000a2	74 7f		 je	 SHORT $LN88@LoadFloat_
  000a4	80 f2 ed	 xor	 dl, -19			; ffffffedH
  000a7	88 55 f4	 mov	 BYTE PTR __k$[ebp+8], dl
  000aa	8a 50 09	 mov	 dl, BYTE PTR [eax+9]
  000ad	84 d2		 test	 dl, dl
  000af	74 6c		 je	 SHORT $LN87@LoadFloat_
  000b1	80 f2 ec	 xor	 dl, -20			; ffffffecH
  000b4	88 55 f5	 mov	 BYTE PTR __k$[ebp+9], dl
  000b7	8a 50 0a	 mov	 dl, BYTE PTR [eax+10]
  000ba	84 d2		 test	 dl, dl
  000bc	74 5a		 je	 SHORT $LN86@LoadFloat_
  000be	32 d1		 xor	 dl, cl
  000c0	80 78 0b 00	 cmp	 BYTE PTR [eax+11], 0
  000c4	88 55 f6	 mov	 BYTE PTR __k$[ebp+10], dl
  000c7	0f 84 89 00 00
	00		 je	 $LN1@LoadFloat_
  000cd	8a 50 0c	 mov	 dl, BYTE PTR [eax+12]
  000d0	84 d2		 test	 dl, dl
  000d2	74 3e		 je	 SHORT $LN84@LoadFloat_
  000d4	80 f2 ed	 xor	 dl, -19			; ffffffedH
  000d7	88 55 f8	 mov	 BYTE PTR __k$[ebp+12], dl
  000da	8a 50 0d	 mov	 dl, BYTE PTR [eax+13]
  000dd	84 d2		 test	 dl, dl
  000df	74 2b		 je	 SHORT $LN83@LoadFloat_
  000e1	80 f2 ec	 xor	 dl, -20			; ffffffecH
  000e4	88 55 f9	 mov	 BYTE PTR __k$[ebp+13], dl
  000e7	8a 50 0e	 mov	 dl, BYTE PTR [eax+14]
  000ea	84 d2		 test	 dl, dl
  000ec	74 19		 je	 SHORT $LN82@LoadFloat_
  000ee	8a 40 0f	 mov	 al, BYTE PTR [eax+15]
  000f1	32 d1		 xor	 dl, cl
  000f3	88 55 fa	 mov	 BYTE PTR __k$[ebp+14], dl
  000f6	84 c0		 test	 al, al
  000f8	74 07		 je	 SHORT $LN81@LoadFloat_
  000fa	34 ea		 xor	 al, -22			; ffffffeaH
  000fc	88 45 fb	 mov	 BYTE PTR __k$[ebp+15], al
  000ff	eb 55		 jmp	 SHORT $LN1@LoadFloat_
$LN81@LoadFloat_:
  00101	c6 45 fb ea	 mov	 BYTE PTR __k$[ebp+15], -22 ; ffffffeaH
  00105	eb 4f		 jmp	 SHORT $LN1@LoadFloat_
$LN82@LoadFloat_:
  00107	88 4d fa	 mov	 BYTE PTR __k$[ebp+14], cl
  0010a	eb 4a		 jmp	 SHORT $LN1@LoadFloat_
$LN83@LoadFloat_:
  0010c	c6 45 f9 ec	 mov	 BYTE PTR __k$[ebp+13], -20 ; ffffffecH
  00110	eb 44		 jmp	 SHORT $LN1@LoadFloat_
$LN84@LoadFloat_:
  00112	c6 45 f8 ed	 mov	 BYTE PTR __k$[ebp+12], -19 ; ffffffedH
  00116	eb 3e		 jmp	 SHORT $LN1@LoadFloat_
$LN86@LoadFloat_:
  00118	88 4d f6	 mov	 BYTE PTR __k$[ebp+10], cl
  0011b	eb 39		 jmp	 SHORT $LN1@LoadFloat_
$LN87@LoadFloat_:
  0011d	c6 45 f5 ec	 mov	 BYTE PTR __k$[ebp+9], -20 ; ffffffecH
  00121	eb 33		 jmp	 SHORT $LN1@LoadFloat_
$LN88@LoadFloat_:
  00123	c6 45 f4 ed	 mov	 BYTE PTR __k$[ebp+8], -19 ; ffffffedH
  00127	eb 2d		 jmp	 SHORT $LN1@LoadFloat_
$LN89@LoadFloat_:
  00129	c6 45 f3 ea	 mov	 BYTE PTR __k$[ebp+7], -22 ; ffffffeaH
  0012d	eb 27		 jmp	 SHORT $LN1@LoadFloat_
$LN90@LoadFloat_:
  0012f	88 4d f2	 mov	 BYTE PTR __k$[ebp+6], cl
  00132	eb 22		 jmp	 SHORT $LN1@LoadFloat_
$LN91@LoadFloat_:
  00134	c6 45 f1 ec	 mov	 BYTE PTR __k$[ebp+5], -20 ; ffffffecH
  00138	eb 1c		 jmp	 SHORT $LN1@LoadFloat_
$LN92@LoadFloat_:
  0013a	c6 45 f0 ed	 mov	 BYTE PTR __k$[ebp+4], -19 ; ffffffedH
  0013e	eb 16		 jmp	 SHORT $LN1@LoadFloat_
$LN93@LoadFloat_:
  00140	c6 45 ef ea	 mov	 BYTE PTR __k$[ebp+3], -22 ; ffffffeaH
  00144	eb 10		 jmp	 SHORT $LN1@LoadFloat_
$LN94@LoadFloat_:
  00146	c6 45 ee eb	 mov	 BYTE PTR __k$[ebp+2], -21 ; ffffffebH
  0014a	eb 0a		 jmp	 SHORT $LN1@LoadFloat_
$LN95@LoadFloat_:
  0014c	c6 45 ed ec	 mov	 BYTE PTR __k$[ebp+1], -20 ; ffffffecH
  00150	eb 04		 jmp	 SHORT $LN1@LoadFloat_
$LN96@LoadFloat_:
  00152	c6 45 ec ed	 mov	 BYTE PTR __k$[ebp], -19	; ffffffedH
$LN1@LoadFloat_:
  00156	6a 02		 push	 2
  00158	8d 45 ec	 lea	 eax, DWORD PTR __k$[ebp]
  0015b	c6 45 f7 00	 mov	 BYTE PTR __k$[ebp+11], 0
  0015f	5a		 pop	 edx
$LL104@LoadFloat_:
  00160	81 30 ed ec eb
	ea		 xor	 DWORD PTR [eax], -353637139 ; eaebecedH
  00166	83 c0 04	 add	 eax, 4
  00169	4a		 dec	 edx
  0016a	75 f4		 jne	 SHORT $LL104@LoadFloat_
  0016c	6a 08		 push	 8
  0016e	58		 pop	 eax
$LL101@LoadFloat_:
  0016f	8b c8		 mov	 ecx, eax
  00171	81 e1 03 00 00
	80		 and	 ecx, -2147483645	; 80000003H
  00177	79 05		 jns	 SHORT $LN111@LoadFloat_
  00179	49		 dec	 ecx
  0017a	83 c9 fc	 or	 ecx, -4			; fffffffcH
  0017d	41		 inc	 ecx
$LN111@LoadFloat_:
  0017e	b2 ed		 mov	 dl, -19			; ffffffedH
  00180	2a d1		 sub	 dl, cl
  00182	30 54 05 ec	 xor	 BYTE PTR __k$[ebp+eax], dl
  00186	40		 inc	 eax
  00187	83 f8 0b	 cmp	 eax, 11			; 0000000bH
  0018a	7c e3		 jl	 SHORT $LL101@LoadFloat_

; 137  : 		return LoadFloat(_k, f);

  0018c	f3 0f 10 45 0c	 movss	 xmm0, DWORD PTR _f$[ebp]
  00191	51		 push	 ecx
  00192	8d 45 ec	 lea	 eax, DWORD PTR __k$[ebp]
  00195	f3 0f 11 04 24	 movss	 DWORD PTR [esp], xmm0
  0019a	50		 push	 eax
  0019b	8b ce		 mov	 ecx, esi
  0019d	ff 15 00 00 00
	00		 call	 DWORD PTR __imp_?LoadFloat@ioINILoader@@QAEMPBDM@Z

; 138  : 	}

  001a3	8b 4d fc	 mov	 ecx, DWORD PTR __$ArrayPad$[ebp]
  001a6	33 cd		 xor	 ecx, ebp
  001a8	5e		 pop	 esi
  001a9	e8 00 00 00 00	 call	 @__security_check_cookie@4
  001ae	c9		 leave
  001af	c2 08 00	 ret	 8
??$LoadFloat_e@$0M@@ioINILoader@@QAEMAAY0M@$$CBDM@Z ENDP ; ioINILoader::LoadFloat_e<12>
_TEXT	ENDS
PUBLIC	__$ArrayPad$
PUBLIC	??$LoadFloat_e@$0BD@@ioINILoader@@QAEMAAY0BD@$$CBDM@Z ; ioINILoader::LoadFloat_e<19>
; Function compile flags: /Ogsp
;	COMDAT ??$LoadFloat_e@$0BD@@ioINILoader@@QAEMAAY0BD@$$CBDM@Z
_TEXT	SEGMENT
__k$ = -28						; size = 19
__$ArrayPad$ = -4					; size = 4
_k$ = 8							; size = 4
_f$ = 12						; size = 4
??$LoadFloat_e@$0BD@@ioINILoader@@QAEMAAY0BD@$$CBDM@Z PROC ; ioINILoader::LoadFloat_e<19>, COMDAT
; _this$ = ecx

; 135  : 	{

  00000	55		 push	 ebp
  00001	8b ec		 mov	 ebp, esp
  00003	83 ec 1c	 sub	 esp, 28			; 0000001cH
  00006	a1 00 00 00 00	 mov	 eax, DWORD PTR ___security_cookie
  0000b	33 c5		 xor	 eax, ebp
  0000d	89 45 fc	 mov	 DWORD PTR __$ArrayPad$[ebp], eax
  00010	8b 45 08	 mov	 eax, DWORD PTR _k$[ebp]

; 136  : 		_ENCSTR(k, _k);

  00013	8a 10		 mov	 dl, BYTE PTR [eax]
  00015	56		 push	 esi
  00016	8b f1		 mov	 esi, ecx
  00018	84 d2		 test	 dl, dl
  0001a	0f 84 cf 01 00
	00		 je	 $LN96@LoadFloat_@2
  00020	80 f2 ed	 xor	 dl, -19			; ffffffedH
  00023	88 55 e4	 mov	 BYTE PTR __k$[ebp], dl
  00026	8a 50 01	 mov	 dl, BYTE PTR [eax+1]
  00029	84 d2		 test	 dl, dl
  0002b	0f 84 b8 01 00
	00		 je	 $LN95@LoadFloat_@2
  00031	b1 ec		 mov	 cl, -20			; ffffffecH
  00033	32 d1		 xor	 dl, cl
  00035	88 55 e5	 mov	 BYTE PTR __k$[ebp+1], dl
  00038	8a 50 02	 mov	 dl, BYTE PTR [eax+2]
  0003b	84 d2		 test	 dl, dl
  0003d	0f 84 a0 01 00
	00		 je	 $LN94@LoadFloat_@2
  00043	80 f2 eb	 xor	 dl, -21			; ffffffebH
  00046	88 55 e6	 mov	 BYTE PTR __k$[ebp+2], dl
  00049	8a 50 03	 mov	 dl, BYTE PTR [eax+3]
  0004c	84 d2		 test	 dl, dl
  0004e	0f 84 89 01 00
	00		 je	 $LN93@LoadFloat_@2
  00054	80 f2 ea	 xor	 dl, -22			; ffffffeaH
  00057	88 55 e7	 mov	 BYTE PTR __k$[ebp+3], dl
  0005a	8a 50 04	 mov	 dl, BYTE PTR [eax+4]
  0005d	84 d2		 test	 dl, dl
  0005f	0f 84 72 01 00
	00		 je	 $LN92@LoadFloat_@2
  00065	80 f2 ed	 xor	 dl, -19			; ffffffedH
  00068	88 55 e8	 mov	 BYTE PTR __k$[ebp+4], dl
  0006b	8a 50 05	 mov	 dl, BYTE PTR [eax+5]
  0006e	84 d2		 test	 dl, dl
  00070	0f 84 5c 01 00
	00		 je	 $LN91@LoadFloat_@2
  00076	32 d1		 xor	 dl, cl
  00078	88 55 e9	 mov	 BYTE PTR __k$[ebp+5], dl
  0007b	8a 50 06	 mov	 dl, BYTE PTR [eax+6]
  0007e	84 d2		 test	 dl, dl
  00080	0f 84 46 01 00
	00		 je	 $LN90@LoadFloat_@2
  00086	80 f2 eb	 xor	 dl, -21			; ffffffebH
  00089	88 55 ea	 mov	 BYTE PTR __k$[ebp+6], dl
  0008c	8a 50 07	 mov	 dl, BYTE PTR [eax+7]
  0008f	84 d2		 test	 dl, dl
  00091	0f 84 2f 01 00
	00		 je	 $LN89@LoadFloat_@2
  00097	80 f2 ea	 xor	 dl, -22			; ffffffeaH
  0009a	88 55 eb	 mov	 BYTE PTR __k$[ebp+7], dl
  0009d	8a 50 08	 mov	 dl, BYTE PTR [eax+8]
  000a0	84 d2		 test	 dl, dl
  000a2	0f 84 18 01 00
	00		 je	 $LN88@LoadFloat_@2
  000a8	80 f2 ed	 xor	 dl, -19			; ffffffedH
  000ab	88 55 ec	 mov	 BYTE PTR __k$[ebp+8], dl
  000ae	8a 50 09	 mov	 dl, BYTE PTR [eax+9]
  000b1	84 d2		 test	 dl, dl
  000b3	0f 84 02 01 00
	00		 je	 $LN87@LoadFloat_@2
  000b9	32 d1		 xor	 dl, cl
  000bb	88 55 ed	 mov	 BYTE PTR __k$[ebp+9], dl
  000be	8a 50 0a	 mov	 dl, BYTE PTR [eax+10]
  000c1	84 d2		 test	 dl, dl
  000c3	0f 84 ec 00 00
	00		 je	 $LN86@LoadFloat_@2
  000c9	80 f2 eb	 xor	 dl, -21			; ffffffebH
  000cc	88 55 ee	 mov	 BYTE PTR __k$[ebp+10], dl
  000cf	8a 50 0b	 mov	 dl, BYTE PTR [eax+11]
  000d2	84 d2		 test	 dl, dl
  000d4	0f 84 d5 00 00
	00		 je	 $LN85@LoadFloat_@2
  000da	80 f2 ea	 xor	 dl, -22			; ffffffeaH
  000dd	88 55 ef	 mov	 BYTE PTR __k$[ebp+11], dl
  000e0	8a 50 0c	 mov	 dl, BYTE PTR [eax+12]
  000e3	84 d2		 test	 dl, dl
  000e5	0f 84 be 00 00
	00		 je	 $LN84@LoadFloat_@2
  000eb	80 f2 ed	 xor	 dl, -19			; ffffffedH
  000ee	88 55 f0	 mov	 BYTE PTR __k$[ebp+12], dl
  000f1	8a 50 0d	 mov	 dl, BYTE PTR [eax+13]
  000f4	84 d2		 test	 dl, dl
  000f6	0f 84 a8 00 00
	00		 je	 $LN83@LoadFloat_@2
  000fc	32 d1		 xor	 dl, cl
  000fe	88 55 f1	 mov	 BYTE PTR __k$[ebp+13], dl
  00101	8a 50 0e	 mov	 dl, BYTE PTR [eax+14]
  00104	84 d2		 test	 dl, dl
  00106	0f 84 92 00 00
	00		 je	 $LN82@LoadFloat_@2
  0010c	80 f2 eb	 xor	 dl, -21			; ffffffebH
  0010f	88 55 f2	 mov	 BYTE PTR __k$[ebp+14], dl
  00112	8a 50 0f	 mov	 dl, BYTE PTR [eax+15]
  00115	84 d2		 test	 dl, dl
  00117	74 7f		 je	 SHORT $LN81@LoadFloat_@2
  00119	80 f2 ea	 xor	 dl, -22			; ffffffeaH
  0011c	88 55 f3	 mov	 BYTE PTR __k$[ebp+15], dl
  0011f	8a 50 10	 mov	 dl, BYTE PTR [eax+16]
  00122	84 d2		 test	 dl, dl
  00124	74 6c		 je	 SHORT $LN80@LoadFloat_@2
  00126	80 f2 ed	 xor	 dl, -19			; ffffffedH
  00129	88 55 f4	 mov	 BYTE PTR __k$[ebp+16], dl
  0012c	8a 50 11	 mov	 dl, BYTE PTR [eax+17]
  0012f	84 d2		 test	 dl, dl
  00131	74 5a		 je	 SHORT $LN79@LoadFloat_@2
  00133	32 d1		 xor	 dl, cl
  00135	80 78 12 00	 cmp	 BYTE PTR [eax+18], 0
  00139	88 55 f5	 mov	 BYTE PTR __k$[ebp+17], dl
  0013c	0f 84 b1 00 00
	00		 je	 $LN1@LoadFloat_@2
  00142	8a 50 13	 mov	 dl, BYTE PTR [eax+19]
  00145	84 d2		 test	 dl, dl
  00147	74 3e		 je	 SHORT $LN77@LoadFloat_@2
  00149	80 f2 ea	 xor	 dl, -22			; ffffffeaH
  0014c	88 55 f7	 mov	 BYTE PTR __k$[ebp+19], dl
  0014f	8a 50 14	 mov	 dl, BYTE PTR [eax+20]
  00152	84 d2		 test	 dl, dl
  00154	74 2b		 je	 SHORT $LN76@LoadFloat_@2
  00156	80 f2 ed	 xor	 dl, -19			; ffffffedH
  00159	88 55 f8	 mov	 BYTE PTR __k$[ebp+20], dl
  0015c	8a 50 15	 mov	 dl, BYTE PTR [eax+21]
  0015f	84 d2		 test	 dl, dl
  00161	74 19		 je	 SHORT $LN75@LoadFloat_@2
  00163	8a 40 16	 mov	 al, BYTE PTR [eax+22]
  00166	32 d1		 xor	 dl, cl
  00168	88 55 f9	 mov	 BYTE PTR __k$[ebp+21], dl
  0016b	84 c0		 test	 al, al
  0016d	74 07		 je	 SHORT $LN74@LoadFloat_@2
  0016f	34 eb		 xor	 al, -21			; ffffffebH
  00171	88 45 fa	 mov	 BYTE PTR __k$[ebp+22], al
  00174	eb 7d		 jmp	 SHORT $LN1@LoadFloat_@2
$LN74@LoadFloat_@2:
  00176	c6 45 fa eb	 mov	 BYTE PTR __k$[ebp+22], -21 ; ffffffebH
  0017a	eb 77		 jmp	 SHORT $LN1@LoadFloat_@2
$LN75@LoadFloat_@2:
  0017c	88 4d f9	 mov	 BYTE PTR __k$[ebp+21], cl
  0017f	eb 72		 jmp	 SHORT $LN1@LoadFloat_@2
$LN76@LoadFloat_@2:
  00181	c6 45 f8 ed	 mov	 BYTE PTR __k$[ebp+20], -19 ; ffffffedH
  00185	eb 6c		 jmp	 SHORT $LN1@LoadFloat_@2
$LN77@LoadFloat_@2:
  00187	c6 45 f7 ea	 mov	 BYTE PTR __k$[ebp+19], -22 ; ffffffeaH
  0018b	eb 66		 jmp	 SHORT $LN1@LoadFloat_@2
$LN79@LoadFloat_@2:
  0018d	88 4d f5	 mov	 BYTE PTR __k$[ebp+17], cl
  00190	eb 61		 jmp	 SHORT $LN1@LoadFloat_@2
$LN80@LoadFloat_@2:
  00192	c6 45 f4 ed	 mov	 BYTE PTR __k$[ebp+16], -19 ; ffffffedH
  00196	eb 5b		 jmp	 SHORT $LN1@LoadFloat_@2
$LN81@LoadFloat_@2:
  00198	c6 45 f3 ea	 mov	 BYTE PTR __k$[ebp+15], -22 ; ffffffeaH
  0019c	eb 55		 jmp	 SHORT $LN1@LoadFloat_@2
$LN82@LoadFloat_@2:
  0019e	c6 45 f2 eb	 mov	 BYTE PTR __k$[ebp+14], -21 ; ffffffebH
  001a2	eb 4f		 jmp	 SHORT $LN1@LoadFloat_@2
$LN83@LoadFloat_@2:
  001a4	88 4d f1	 mov	 BYTE PTR __k$[ebp+13], cl
  001a7	eb 4a		 jmp	 SHORT $LN1@LoadFloat_@2
$LN84@LoadFloat_@2:
  001a9	c6 45 f0 ed	 mov	 BYTE PTR __k$[ebp+12], -19 ; ffffffedH
  001ad	eb 44		 jmp	 SHORT $LN1@LoadFloat_@2
$LN85@LoadFloat_@2:
  001af	c6 45 ef ea	 mov	 BYTE PTR __k$[ebp+11], -22 ; ffffffeaH
  001b3	eb 3e		 jmp	 SHORT $LN1@LoadFloat_@2
$LN86@LoadFloat_@2:
  001b5	c6 45 ee eb	 mov	 BYTE PTR __k$[ebp+10], -21 ; ffffffebH
  001b9	eb 38		 jmp	 SHORT $LN1@LoadFloat_@2
$LN87@LoadFloat_@2:
  001bb	88 4d ed	 mov	 BYTE PTR __k$[ebp+9], cl
  001be	eb 33		 jmp	 SHORT $LN1@LoadFloat_@2
$LN88@LoadFloat_@2:
  001c0	c6 45 ec ed	 mov	 BYTE PTR __k$[ebp+8], -19 ; ffffffedH
  001c4	eb 2d		 jmp	 SHORT $LN1@LoadFloat_@2
$LN89@LoadFloat_@2:
  001c6	c6 45 eb ea	 mov	 BYTE PTR __k$[ebp+7], -22 ; ffffffeaH
  001ca	eb 27		 jmp	 SHORT $LN1@LoadFloat_@2
$LN90@LoadFloat_@2:
  001cc	c6 45 ea eb	 mov	 BYTE PTR __k$[ebp+6], -21 ; ffffffebH
  001d0	eb 21		 jmp	 SHORT $LN1@LoadFloat_@2
$LN91@LoadFloat_@2:
  001d2	88 4d e9	 mov	 BYTE PTR __k$[ebp+5], cl
  001d5	eb 1c		 jmp	 SHORT $LN1@LoadFloat_@2
$LN92@LoadFloat_@2:
  001d7	c6 45 e8 ed	 mov	 BYTE PTR __k$[ebp+4], -19 ; ffffffedH
  001db	eb 16		 jmp	 SHORT $LN1@LoadFloat_@2
$LN93@LoadFloat_@2:
  001dd	c6 45 e7 ea	 mov	 BYTE PTR __k$[ebp+3], -22 ; ffffffeaH
  001e1	eb 10		 jmp	 SHORT $LN1@LoadFloat_@2
$LN94@LoadFloat_@2:
  001e3	c6 45 e6 eb	 mov	 BYTE PTR __k$[ebp+2], -21 ; ffffffebH
  001e7	eb 0a		 jmp	 SHORT $LN1@LoadFloat_@2
$LN95@LoadFloat_@2:
  001e9	c6 45 e5 ec	 mov	 BYTE PTR __k$[ebp+1], -20 ; ffffffecH
  001ed	eb 04		 jmp	 SHORT $LN1@LoadFloat_@2
$LN96@LoadFloat_@2:
  001ef	c6 45 e4 ed	 mov	 BYTE PTR __k$[ebp], -19	; ffffffedH
$LN1@LoadFloat_@2:
  001f3	6a 04		 push	 4
  001f5	8d 45 e4	 lea	 eax, DWORD PTR __k$[ebp]
  001f8	c6 45 f6 00	 mov	 BYTE PTR __k$[ebp+18], 0
  001fc	5a		 pop	 edx
$LL104@LoadFloat_@2:
  001fd	81 30 ed ec eb
	ea		 xor	 DWORD PTR [eax], -353637139 ; eaebecedH
  00203	83 c0 04	 add	 eax, 4
  00206	4a		 dec	 edx
  00207	75 f4		 jne	 SHORT $LL104@LoadFloat_@2
  00209	6a 10		 push	 16			; 00000010H
  0020b	58		 pop	 eax
$LL101@LoadFloat_@2:
  0020c	8b c8		 mov	 ecx, eax
  0020e	81 e1 03 00 00
	80		 and	 ecx, -2147483645	; 80000003H
  00214	79 05		 jns	 SHORT $LN111@LoadFloat_@2
  00216	49		 dec	 ecx
  00217	83 c9 fc	 or	 ecx, -4			; fffffffcH
  0021a	41		 inc	 ecx
$LN111@LoadFloat_@2:
  0021b	b2 ed		 mov	 dl, -19			; ffffffedH
  0021d	2a d1		 sub	 dl, cl
  0021f	30 54 05 e4	 xor	 BYTE PTR __k$[ebp+eax], dl
  00223	40		 inc	 eax
  00224	83 f8 12	 cmp	 eax, 18			; 00000012H
  00227	7c e3		 jl	 SHORT $LL101@LoadFloat_@2

; 137  : 		return LoadFloat(_k, f);

  00229	f3 0f 10 45 0c	 movss	 xmm0, DWORD PTR _f$[ebp]
  0022e	51		 push	 ecx
  0022f	8d 45 e4	 lea	 eax, DWORD PTR __k$[ebp]
  00232	f3 0f 11 04 24	 movss	 DWORD PTR [esp], xmm0
  00237	50		 push	 eax
  00238	8b ce		 mov	 ecx, esi
  0023a	ff 15 00 00 00
	00		 call	 DWORD PTR __imp_?LoadFloat@ioINILoader@@QAEMPBDM@Z

; 138  : 	}

  00240	8b 4d fc	 mov	 ecx, DWORD PTR __$ArrayPad$[ebp]
  00243	33 cd		 xor	 ecx, ebp
  00245	5e		 pop	 esi
  00246	e8 00 00 00 00	 call	 @__security_check_cookie@4
  0024b	c9		 leave
  0024c	c2 08 00	 ret	 8
??$LoadFloat_e@$0BD@@ioINILoader@@QAEMAAY0BD@$$CBDM@Z ENDP ; ioINILoader::LoadFloat_e<19>
_TEXT	ENDS
PUBLIC	__$ArrayPad$
PUBLIC	??$LoadInt_e@$0P@@ioINILoader@@QAEHAAY0P@$$CBDH@Z ; ioINILoader::LoadInt_e<15>
; Function compile flags: /Ogsp
;	COMDAT ??$LoadInt_e@$0P@@ioINILoader@@QAEHAAY0P@$$CBDH@Z
_TEXT	SEGMENT
__k$ = -24						; size = 15
__$ArrayPad$ = -4					; size = 4
_k$ = 8							; size = 4
_i$ = 12						; size = 4
??$LoadInt_e@$0P@@ioINILoader@@QAEHAAY0P@$$CBDH@Z PROC	; ioINILoader::LoadInt_e<15>, COMDAT
; _this$ = ecx

; 118  : 	{

  00000	55		 push	 ebp
  00001	8b ec		 mov	 ebp, esp
  00003	83 ec 18	 sub	 esp, 24			; 00000018H
  00006	a1 00 00 00 00	 mov	 eax, DWORD PTR ___security_cookie
  0000b	33 c5		 xor	 eax, ebp
  0000d	89 45 fc	 mov	 DWORD PTR __$ArrayPad$[ebp], eax
  00010	8b 45 08	 mov	 eax, DWORD PTR _k$[ebp]

; 119  : 		_ENCSTR(k, _k);

  00013	8a 10		 mov	 dl, BYTE PTR [eax]
  00015	56		 push	 esi
  00016	8b f1		 mov	 esi, ecx
  00018	84 d2		 test	 dl, dl
  0001a	0f 84 75 01 00
	00		 je	 $LN96@LoadInt_e@4
  00020	80 f2 ed	 xor	 dl, -19			; ffffffedH
  00023	88 55 e8	 mov	 BYTE PTR __k$[ebp], dl
  00026	8a 50 01	 mov	 dl, BYTE PTR [eax+1]
  00029	84 d2		 test	 dl, dl
  0002b	0f 84 5e 01 00
	00		 je	 $LN95@LoadInt_e@4
  00031	b1 ec		 mov	 cl, -20			; ffffffecH
  00033	32 d1		 xor	 dl, cl
  00035	88 55 e9	 mov	 BYTE PTR __k$[ebp+1], dl
  00038	8a 50 02	 mov	 dl, BYTE PTR [eax+2]
  0003b	84 d2		 test	 dl, dl
  0003d	0f 84 46 01 00
	00		 je	 $LN94@LoadInt_e@4
  00043	80 f2 eb	 xor	 dl, -21			; ffffffebH
  00046	88 55 ea	 mov	 BYTE PTR __k$[ebp+2], dl
  00049	8a 50 03	 mov	 dl, BYTE PTR [eax+3]
  0004c	84 d2		 test	 dl, dl
  0004e	0f 84 2f 01 00
	00		 je	 $LN93@LoadInt_e@4
  00054	80 f2 ea	 xor	 dl, -22			; ffffffeaH
  00057	88 55 eb	 mov	 BYTE PTR __k$[ebp+3], dl
  0005a	8a 50 04	 mov	 dl, BYTE PTR [eax+4]
  0005d	84 d2		 test	 dl, dl
  0005f	0f 84 18 01 00
	00		 je	 $LN92@LoadInt_e@4
  00065	80 f2 ed	 xor	 dl, -19			; ffffffedH
  00068	88 55 ec	 mov	 BYTE PTR __k$[ebp+4], dl
  0006b	8a 50 05	 mov	 dl, BYTE PTR [eax+5]
  0006e	84 d2		 test	 dl, dl
  00070	0f 84 02 01 00
	00		 je	 $LN91@LoadInt_e@4
  00076	32 d1		 xor	 dl, cl
  00078	88 55 ed	 mov	 BYTE PTR __k$[ebp+5], dl
  0007b	8a 50 06	 mov	 dl, BYTE PTR [eax+6]
  0007e	84 d2		 test	 dl, dl
  00080	0f 84 ec 00 00
	00		 je	 $LN90@LoadInt_e@4
  00086	80 f2 eb	 xor	 dl, -21			; ffffffebH
  00089	88 55 ee	 mov	 BYTE PTR __k$[ebp+6], dl
  0008c	8a 50 07	 mov	 dl, BYTE PTR [eax+7]
  0008f	84 d2		 test	 dl, dl
  00091	0f 84 d5 00 00
	00		 je	 $LN89@LoadInt_e@4
  00097	80 f2 ea	 xor	 dl, -22			; ffffffeaH
  0009a	88 55 ef	 mov	 BYTE PTR __k$[ebp+7], dl
  0009d	8a 50 08	 mov	 dl, BYTE PTR [eax+8]
  000a0	84 d2		 test	 dl, dl
  000a2	0f 84 be 00 00
	00		 je	 $LN88@LoadInt_e@4
  000a8	80 f2 ed	 xor	 dl, -19			; ffffffedH
  000ab	88 55 f0	 mov	 BYTE PTR __k$[ebp+8], dl
  000ae	8a 50 09	 mov	 dl, BYTE PTR [eax+9]
  000b1	84 d2		 test	 dl, dl
  000b3	0f 84 a8 00 00
	00		 je	 $LN87@LoadInt_e@4
  000b9	32 d1		 xor	 dl, cl
  000bb	88 55 f1	 mov	 BYTE PTR __k$[ebp+9], dl
  000be	8a 50 0a	 mov	 dl, BYTE PTR [eax+10]
  000c1	84 d2		 test	 dl, dl
  000c3	0f 84 92 00 00
	00		 je	 $LN86@LoadInt_e@4
  000c9	80 f2 eb	 xor	 dl, -21			; ffffffebH
  000cc	88 55 f2	 mov	 BYTE PTR __k$[ebp+10], dl
  000cf	8a 50 0b	 mov	 dl, BYTE PTR [eax+11]
  000d2	84 d2		 test	 dl, dl
  000d4	74 7f		 je	 SHORT $LN85@LoadInt_e@4
  000d6	80 f2 ea	 xor	 dl, -22			; ffffffeaH
  000d9	88 55 f3	 mov	 BYTE PTR __k$[ebp+11], dl
  000dc	8a 50 0c	 mov	 dl, BYTE PTR [eax+12]
  000df	84 d2		 test	 dl, dl
  000e1	74 6c		 je	 SHORT $LN84@LoadInt_e@4
  000e3	80 f2 ed	 xor	 dl, -19			; ffffffedH
  000e6	88 55 f4	 mov	 BYTE PTR __k$[ebp+12], dl
  000e9	8a 50 0d	 mov	 dl, BYTE PTR [eax+13]
  000ec	84 d2		 test	 dl, dl
  000ee	74 5a		 je	 SHORT $LN83@LoadInt_e@4
  000f0	32 d1		 xor	 dl, cl
  000f2	80 78 0e 00	 cmp	 BYTE PTR [eax+14], 0
  000f6	88 55 f5	 mov	 BYTE PTR __k$[ebp+13], dl
  000f9	0f 84 9a 00 00
	00		 je	 $LN1@LoadInt_e@4
  000ff	8a 50 0f	 mov	 dl, BYTE PTR [eax+15]
  00102	84 d2		 test	 dl, dl
  00104	74 3e		 je	 SHORT $LN81@LoadInt_e@4
  00106	80 f2 ea	 xor	 dl, -22			; ffffffeaH
  00109	88 55 f7	 mov	 BYTE PTR __k$[ebp+15], dl
  0010c	8a 50 10	 mov	 dl, BYTE PTR [eax+16]
  0010f	84 d2		 test	 dl, dl
  00111	74 2b		 je	 SHORT $LN80@LoadInt_e@4
  00113	80 f2 ed	 xor	 dl, -19			; ffffffedH
  00116	88 55 f8	 mov	 BYTE PTR __k$[ebp+16], dl
  00119	8a 50 11	 mov	 dl, BYTE PTR [eax+17]
  0011c	84 d2		 test	 dl, dl
  0011e	74 19		 je	 SHORT $LN79@LoadInt_e@4
  00120	8a 40 12	 mov	 al, BYTE PTR [eax+18]
  00123	32 d1		 xor	 dl, cl
  00125	88 55 f9	 mov	 BYTE PTR __k$[ebp+17], dl
  00128	84 c0		 test	 al, al
  0012a	74 07		 je	 SHORT $LN78@LoadInt_e@4
  0012c	34 eb		 xor	 al, -21			; ffffffebH
  0012e	88 45 fa	 mov	 BYTE PTR __k$[ebp+18], al
  00131	eb 66		 jmp	 SHORT $LN1@LoadInt_e@4
$LN78@LoadInt_e@4:
  00133	c6 45 fa eb	 mov	 BYTE PTR __k$[ebp+18], -21 ; ffffffebH
  00137	eb 60		 jmp	 SHORT $LN1@LoadInt_e@4
$LN79@LoadInt_e@4:
  00139	88 4d f9	 mov	 BYTE PTR __k$[ebp+17], cl
  0013c	eb 5b		 jmp	 SHORT $LN1@LoadInt_e@4
$LN80@LoadInt_e@4:
  0013e	c6 45 f8 ed	 mov	 BYTE PTR __k$[ebp+16], -19 ; ffffffedH
  00142	eb 55		 jmp	 SHORT $LN1@LoadInt_e@4
$LN81@LoadInt_e@4:
  00144	c6 45 f7 ea	 mov	 BYTE PTR __k$[ebp+15], -22 ; ffffffeaH
  00148	eb 4f		 jmp	 SHORT $LN1@LoadInt_e@4
$LN83@LoadInt_e@4:
  0014a	88 4d f5	 mov	 BYTE PTR __k$[ebp+13], cl
  0014d	eb 4a		 jmp	 SHORT $LN1@LoadInt_e@4
$LN84@LoadInt_e@4:
  0014f	c6 45 f4 ed	 mov	 BYTE PTR __k$[ebp+12], -19 ; ffffffedH
  00153	eb 44		 jmp	 SHORT $LN1@LoadInt_e@4
$LN85@LoadInt_e@4:
  00155	c6 45 f3 ea	 mov	 BYTE PTR __k$[ebp+11], -22 ; ffffffeaH
  00159	eb 3e		 jmp	 SHORT $LN1@LoadInt_e@4
$LN86@LoadInt_e@4:
  0015b	c6 45 f2 eb	 mov	 BYTE PTR __k$[ebp+10], -21 ; ffffffebH
  0015f	eb 38		 jmp	 SHORT $LN1@LoadInt_e@4
$LN87@LoadInt_e@4:
  00161	88 4d f1	 mov	 BYTE PTR __k$[ebp+9], cl
  00164	eb 33		 jmp	 SHORT $LN1@LoadInt_e@4
$LN88@LoadInt_e@4:
  00166	c6 45 f0 ed	 mov	 BYTE PTR __k$[ebp+8], -19 ; ffffffedH
  0016a	eb 2d		 jmp	 SHORT $LN1@LoadInt_e@4
$LN89@LoadInt_e@4:
  0016c	c6 45 ef ea	 mov	 BYTE PTR __k$[ebp+7], -22 ; ffffffeaH
  00170	eb 27		 jmp	 SHORT $LN1@LoadInt_e@4
$LN90@LoadInt_e@4:
  00172	c6 45 ee eb	 mov	 BYTE PTR __k$[ebp+6], -21 ; ffffffebH
  00176	eb 21		 jmp	 SHORT $LN1@LoadInt_e@4
$LN91@LoadInt_e@4:
  00178	88 4d ed	 mov	 BYTE PTR __k$[ebp+5], cl
  0017b	eb 1c		 jmp	 SHORT $LN1@LoadInt_e@4
$LN92@LoadInt_e@4:
  0017d	c6 45 ec ed	 mov	 BYTE PTR __k$[ebp+4], -19 ; ffffffedH
  00181	eb 16		 jmp	 SHORT $LN1@LoadInt_e@4
$LN93@LoadInt_e@4:
  00183	c6 45 eb ea	 mov	 BYTE PTR __k$[ebp+3], -22 ; ffffffeaH
  00187	eb 10		 jmp	 SHORT $LN1@LoadInt_e@4
$LN94@LoadInt_e@4:
  00189	c6 45 ea eb	 mov	 BYTE PTR __k$[ebp+2], -21 ; ffffffebH
  0018d	eb 0a		 jmp	 SHORT $LN1@LoadInt_e@4
$LN95@LoadInt_e@4:
  0018f	c6 45 e9 ec	 mov	 BYTE PTR __k$[ebp+1], -20 ; ffffffecH
  00193	eb 04		 jmp	 SHORT $LN1@LoadInt_e@4
$LN96@LoadInt_e@4:
  00195	c6 45 e8 ed	 mov	 BYTE PTR __k$[ebp], -19	; ffffffedH
$LN1@LoadInt_e@4:
  00199	6a 03		 push	 3
  0019b	8d 45 e8	 lea	 eax, DWORD PTR __k$[ebp]
  0019e	c6 45 f6 00	 mov	 BYTE PTR __k$[ebp+14], 0
  001a2	5a		 pop	 edx
$LL104@LoadInt_e@4:
  001a3	81 30 ed ec eb
	ea		 xor	 DWORD PTR [eax], -353637139 ; eaebecedH
  001a9	83 c0 04	 add	 eax, 4
  001ac	4a		 dec	 edx
  001ad	75 f4		 jne	 SHORT $LL104@LoadInt_e@4
  001af	6a 0c		 push	 12			; 0000000cH
  001b1	58		 pop	 eax
$LL101@LoadInt_e@4:
  001b2	8b c8		 mov	 ecx, eax
  001b4	81 e1 03 00 00
	80		 and	 ecx, -2147483645	; 80000003H
  001ba	79 05		 jns	 SHORT $LN111@LoadInt_e@4
  001bc	49		 dec	 ecx
  001bd	83 c9 fc	 or	 ecx, -4			; fffffffcH
  001c0	41		 inc	 ecx
$LN111@LoadInt_e@4:
  001c1	b2 ed		 mov	 dl, -19			; ffffffedH
  001c3	2a d1		 sub	 dl, cl
  001c5	30 54 05 e8	 xor	 BYTE PTR __k$[ebp+eax], dl
  001c9	40		 inc	 eax
  001ca	83 f8 0e	 cmp	 eax, 14			; 0000000eH
  001cd	7c e3		 jl	 SHORT $LL101@LoadInt_e@4

; 120  : 		return LoadInt(_k, i);

  001cf	ff 75 0c	 push	 DWORD PTR _i$[ebp]
  001d2	8d 45 e8	 lea	 eax, DWORD PTR __k$[ebp]
  001d5	50		 push	 eax
  001d6	8b ce		 mov	 ecx, esi
  001d8	ff 15 00 00 00
	00		 call	 DWORD PTR __imp_?LoadInt@ioINILoader@@QAEHPBDH@Z

; 121  : 	}

  001de	8b 4d fc	 mov	 ecx, DWORD PTR __$ArrayPad$[ebp]
  001e1	33 cd		 xor	 ecx, ebp
  001e3	5e		 pop	 esi
  001e4	e8 00 00 00 00	 call	 @__security_check_cookie@4
  001e9	c9		 leave
  001ea	c2 08 00	 ret	 8
??$LoadInt_e@$0P@@ioINILoader@@QAEHAAY0P@$$CBDH@Z ENDP	; ioINILoader::LoadInt_e<15>
_TEXT	ENDS
PUBLIC	__$ArrayPad$
PUBLIC	??$LoadBool_e@$0O@@ioINILoader@@QAE_NAAY0O@$$CBD_N@Z ; ioINILoader::LoadBool_e<14>
; Function compile flags: /Ogsp
;	COMDAT ??$LoadBool_e@$0O@@ioINILoader@@QAE_NAAY0O@$$CBD_N@Z
_TEXT	SEGMENT
__k$ = -24						; size = 14
__$ArrayPad$ = -4					; size = 4
_k$ = 8							; size = 4
_b$ = 12						; size = 1
??$LoadBool_e@$0O@@ioINILoader@@QAE_NAAY0O@$$CBD_N@Z PROC ; ioINILoader::LoadBool_e<14>, COMDAT
; _this$ = ecx

; 101  : 	{

  00000	55		 push	 ebp
  00001	8b ec		 mov	 ebp, esp
  00003	83 ec 18	 sub	 esp, 24			; 00000018H
  00006	a1 00 00 00 00	 mov	 eax, DWORD PTR ___security_cookie
  0000b	33 c5		 xor	 eax, ebp
  0000d	89 45 fc	 mov	 DWORD PTR __$ArrayPad$[ebp], eax
  00010	8b 45 08	 mov	 eax, DWORD PTR _k$[ebp]

; 102  : 		_ENCSTR(k, _k);

  00013	8a 10		 mov	 dl, BYTE PTR [eax]
  00015	56		 push	 esi
  00016	8b f1		 mov	 esi, ecx
  00018	84 d2		 test	 dl, dl
  0001a	0f 84 64 01 00
	00		 je	 $LN96@LoadBool_e@2
  00020	80 f2 ed	 xor	 dl, -19			; ffffffedH
  00023	88 55 e8	 mov	 BYTE PTR __k$[ebp], dl
  00026	8a 50 01	 mov	 dl, BYTE PTR [eax+1]
  00029	84 d2		 test	 dl, dl
  0002b	0f 84 4d 01 00
	00		 je	 $LN95@LoadBool_e@2
  00031	80 f2 ec	 xor	 dl, -20			; ffffffecH
  00034	88 55 e9	 mov	 BYTE PTR __k$[ebp+1], dl
  00037	8a 50 02	 mov	 dl, BYTE PTR [eax+2]
  0003a	84 d2		 test	 dl, dl
  0003c	0f 84 36 01 00
	00		 je	 $LN94@LoadBool_e@2
  00042	b1 eb		 mov	 cl, -21			; ffffffebH
  00044	32 d1		 xor	 dl, cl
  00046	88 55 ea	 mov	 BYTE PTR __k$[ebp+2], dl
  00049	8a 50 03	 mov	 dl, BYTE PTR [eax+3]
  0004c	84 d2		 test	 dl, dl
  0004e	0f 84 1e 01 00
	00		 je	 $LN93@LoadBool_e@2
  00054	80 f2 ea	 xor	 dl, -22			; ffffffeaH
  00057	88 55 eb	 mov	 BYTE PTR __k$[ebp+3], dl
  0005a	8a 50 04	 mov	 dl, BYTE PTR [eax+4]
  0005d	84 d2		 test	 dl, dl
  0005f	0f 84 07 01 00
	00		 je	 $LN92@LoadBool_e@2
  00065	80 f2 ed	 xor	 dl, -19			; ffffffedH
  00068	88 55 ec	 mov	 BYTE PTR __k$[ebp+4], dl
  0006b	8a 50 05	 mov	 dl, BYTE PTR [eax+5]
  0006e	84 d2		 test	 dl, dl
  00070	0f 84 f0 00 00
	00		 je	 $LN91@LoadBool_e@2
  00076	80 f2 ec	 xor	 dl, -20			; ffffffecH
  00079	88 55 ed	 mov	 BYTE PTR __k$[ebp+5], dl
  0007c	8a 50 06	 mov	 dl, BYTE PTR [eax+6]
  0007f	84 d2		 test	 dl, dl
  00081	0f 84 da 00 00
	00		 je	 $LN90@LoadBool_e@2
  00087	32 d1		 xor	 dl, cl
  00089	88 55 ee	 mov	 BYTE PTR __k$[ebp+6], dl
  0008c	8a 50 07	 mov	 dl, BYTE PTR [eax+7]
  0008f	84 d2		 test	 dl, dl
  00091	0f 84 c4 00 00
	00		 je	 $LN89@LoadBool_e@2
  00097	80 f2 ea	 xor	 dl, -22			; ffffffeaH
  0009a	88 55 ef	 mov	 BYTE PTR __k$[ebp+7], dl
  0009d	8a 50 08	 mov	 dl, BYTE PTR [eax+8]
  000a0	84 d2		 test	 dl, dl
  000a2	0f 84 ad 00 00
	00		 je	 $LN88@LoadBool_e@2
  000a8	80 f2 ed	 xor	 dl, -19			; ffffffedH
  000ab	88 55 f0	 mov	 BYTE PTR __k$[ebp+8], dl
  000ae	8a 50 09	 mov	 dl, BYTE PTR [eax+9]
  000b1	84 d2		 test	 dl, dl
  000b3	0f 84 96 00 00
	00		 je	 $LN87@LoadBool_e@2
  000b9	80 f2 ec	 xor	 dl, -20			; ffffffecH
  000bc	88 55 f1	 mov	 BYTE PTR __k$[ebp+9], dl
  000bf	8a 50 0a	 mov	 dl, BYTE PTR [eax+10]
  000c2	84 d2		 test	 dl, dl
  000c4	0f 84 80 00 00
	00		 je	 $LN86@LoadBool_e@2
  000ca	32 d1		 xor	 dl, cl
  000cc	88 55 f2	 mov	 BYTE PTR __k$[ebp+10], dl
  000cf	8a 50 0b	 mov	 dl, BYTE PTR [eax+11]
  000d2	84 d2		 test	 dl, dl
  000d4	74 6e		 je	 SHORT $LN85@LoadBool_e@2
  000d6	80 f2 ea	 xor	 dl, -22			; ffffffeaH
  000d9	88 55 f3	 mov	 BYTE PTR __k$[ebp+11], dl
  000dc	8a 50 0c	 mov	 dl, BYTE PTR [eax+12]
  000df	84 d2		 test	 dl, dl
  000e1	74 5b		 je	 SHORT $LN84@LoadBool_e@2
  000e3	80 f2 ed	 xor	 dl, -19			; ffffffedH
  000e6	80 78 0d 00	 cmp	 BYTE PTR [eax+13], 0
  000ea	88 55 f4	 mov	 BYTE PTR __k$[ebp+12], dl
  000ed	0f 84 95 00 00
	00		 je	 $LN1@LoadBool_e@2
  000f3	8a 50 0e	 mov	 dl, BYTE PTR [eax+14]
  000f6	84 d2		 test	 dl, dl
  000f8	74 3f		 je	 SHORT $LN82@LoadBool_e@2
  000fa	32 d1		 xor	 dl, cl
  000fc	88 55 f6	 mov	 BYTE PTR __k$[ebp+14], dl
  000ff	8a 50 0f	 mov	 dl, BYTE PTR [eax+15]
  00102	84 d2		 test	 dl, dl
  00104	74 2d		 je	 SHORT $LN81@LoadBool_e@2
  00106	80 f2 ea	 xor	 dl, -22			; ffffffeaH
  00109	88 55 f7	 mov	 BYTE PTR __k$[ebp+15], dl
  0010c	8a 50 10	 mov	 dl, BYTE PTR [eax+16]
  0010f	84 d2		 test	 dl, dl
  00111	74 1a		 je	 SHORT $LN80@LoadBool_e@2
  00113	8a 40 11	 mov	 al, BYTE PTR [eax+17]
  00116	80 f2 ed	 xor	 dl, -19			; ffffffedH
  00119	88 55 f8	 mov	 BYTE PTR __k$[ebp+16], dl
  0011c	84 c0		 test	 al, al
  0011e	74 07		 je	 SHORT $LN79@LoadBool_e@2
  00120	34 ec		 xor	 al, -20			; ffffffecH
  00122	88 45 f9	 mov	 BYTE PTR __k$[ebp+17], al
  00125	eb 61		 jmp	 SHORT $LN1@LoadBool_e@2
$LN79@LoadBool_e@2:
  00127	c6 45 f9 ec	 mov	 BYTE PTR __k$[ebp+17], -20 ; ffffffecH
  0012b	eb 5b		 jmp	 SHORT $LN1@LoadBool_e@2
$LN80@LoadBool_e@2:
  0012d	c6 45 f8 ed	 mov	 BYTE PTR __k$[ebp+16], -19 ; ffffffedH
  00131	eb 55		 jmp	 SHORT $LN1@LoadBool_e@2
$LN81@LoadBool_e@2:
  00133	c6 45 f7 ea	 mov	 BYTE PTR __k$[ebp+15], -22 ; ffffffeaH
  00137	eb 4f		 jmp	 SHORT $LN1@LoadBool_e@2
$LN82@LoadBool_e@2:
  00139	88 4d f6	 mov	 BYTE PTR __k$[ebp+14], cl
  0013c	eb 4a		 jmp	 SHORT $LN1@LoadBool_e@2
$LN84@LoadBool_e@2:
  0013e	c6 45 f4 ed	 mov	 BYTE PTR __k$[ebp+12], -19 ; ffffffedH
  00142	eb 44		 jmp	 SHORT $LN1@LoadBool_e@2
$LN85@LoadBool_e@2:
  00144	c6 45 f3 ea	 mov	 BYTE PTR __k$[ebp+11], -22 ; ffffffeaH
  00148	eb 3e		 jmp	 SHORT $LN1@LoadBool_e@2
$LN86@LoadBool_e@2:
  0014a	88 4d f2	 mov	 BYTE PTR __k$[ebp+10], cl
  0014d	eb 39		 jmp	 SHORT $LN1@LoadBool_e@2
$LN87@LoadBool_e@2:
  0014f	c6 45 f1 ec	 mov	 BYTE PTR __k$[ebp+9], -20 ; ffffffecH
  00153	eb 33		 jmp	 SHORT $LN1@LoadBool_e@2
$LN88@LoadBool_e@2:
  00155	c6 45 f0 ed	 mov	 BYTE PTR __k$[ebp+8], -19 ; ffffffedH
  00159	eb 2d		 jmp	 SHORT $LN1@LoadBool_e@2
$LN89@LoadBool_e@2:
  0015b	c6 45 ef ea	 mov	 BYTE PTR __k$[ebp+7], -22 ; ffffffeaH
  0015f	eb 27		 jmp	 SHORT $LN1@LoadBool_e@2
$LN90@LoadBool_e@2:
  00161	88 4d ee	 mov	 BYTE PTR __k$[ebp+6], cl
  00164	eb 22		 jmp	 SHORT $LN1@LoadBool_e@2
$LN91@LoadBool_e@2:
  00166	c6 45 ed ec	 mov	 BYTE PTR __k$[ebp+5], -20 ; ffffffecH
  0016a	eb 1c		 jmp	 SHORT $LN1@LoadBool_e@2
$LN92@LoadBool_e@2:
  0016c	c6 45 ec ed	 mov	 BYTE PTR __k$[ebp+4], -19 ; ffffffedH
  00170	eb 16		 jmp	 SHORT $LN1@LoadBool_e@2
$LN93@LoadBool_e@2:
  00172	c6 45 eb ea	 mov	 BYTE PTR __k$[ebp+3], -22 ; ffffffeaH
  00176	eb 10		 jmp	 SHORT $LN1@LoadBool_e@2
$LN94@LoadBool_e@2:
  00178	c6 45 ea eb	 mov	 BYTE PTR __k$[ebp+2], -21 ; ffffffebH
  0017c	eb 0a		 jmp	 SHORT $LN1@LoadBool_e@2
$LN95@LoadBool_e@2:
  0017e	c6 45 e9 ec	 mov	 BYTE PTR __k$[ebp+1], -20 ; ffffffecH
  00182	eb 04		 jmp	 SHORT $LN1@LoadBool_e@2
$LN96@LoadBool_e@2:
  00184	c6 45 e8 ed	 mov	 BYTE PTR __k$[ebp], -19	; ffffffedH
$LN1@LoadBool_e@2:
  00188	6a 03		 push	 3
  0018a	8d 45 e8	 lea	 eax, DWORD PTR __k$[ebp]
  0018d	c6 45 f5 00	 mov	 BYTE PTR __k$[ebp+13], 0
  00191	5a		 pop	 edx
$LL104@LoadBool_e@2:
  00192	81 30 ed ec eb
	ea		 xor	 DWORD PTR [eax], -353637139 ; eaebecedH
  00198	83 c0 04	 add	 eax, 4
  0019b	4a		 dec	 edx
  0019c	75 f4		 jne	 SHORT $LL104@LoadBool_e@2

; 103  : 		return LoadBool(_k, b);

  0019e	ff 75 0c	 push	 DWORD PTR _b$[ebp]
  001a1	80 75 f4 ed	 xor	 BYTE PTR __k$[ebp+12], -19 ; ffffffedH
  001a5	8d 45 e8	 lea	 eax, DWORD PTR __k$[ebp]
  001a8	50		 push	 eax
  001a9	8b ce		 mov	 ecx, esi
  001ab	ff 15 00 00 00
	00		 call	 DWORD PTR __imp_?LoadBool@ioINILoader@@QAE_NPBD_N@Z

; 104  : 	}

  001b1	8b 4d fc	 mov	 ecx, DWORD PTR __$ArrayPad$[ebp]
  001b4	33 cd		 xor	 ecx, ebp
  001b6	5e		 pop	 esi
  001b7	e8 00 00 00 00	 call	 @__security_check_cookie@4
  001bc	c9		 leave
  001bd	c2 08 00	 ret	 8
??$LoadBool_e@$0O@@ioINILoader@@QAE_NAAY0O@$$CBD_N@Z ENDP ; ioINILoader::LoadBool_e<14>
_TEXT	ENDS
PUBLIC	_this$GSCopy$
PUBLIC	__$ArrayPad$
PUBLIC	??$LoadString_e@$0BF@@ioINILoader@@QAEXAAY0BF@$$CBDAAY00$$CBDPADH@Z ; ioINILoader::LoadString_e<21>
; Function compile flags: /Ogsp
;	COMDAT ??$LoadString_e@$0BF@@ioINILoader@@QAEXAAY0BF@$$CBDAAY00$$CBDPADH@Z
_TEXT	SEGMENT
_this$GSCopy$ = -36					; size = 4
__k$ = -32						; size = 21
__$ArrayPad$ = -4					; size = 4
_k$ = 8							; size = 4
_d$ = 12						; size = 4
_b$ = 16						; size = 4
_i$ = 20						; size = 4
??$LoadString_e@$0BF@@ioINILoader@@QAEXAAY0BF@$$CBDAAY00$$CBDPADH@Z PROC ; ioINILoader::LoadString_e<21>, COMDAT
; _this$ = ecx

; 161  : 	{

  00000	55		 push	 ebp
  00001	8b ec		 mov	 ebp, esp
  00003	83 ec 24	 sub	 esp, 36			; 00000024H
  00006	a1 00 00 00 00	 mov	 eax, DWORD PTR ___security_cookie
  0000b	33 c5		 xor	 eax, ebp
  0000d	89 45 fc	 mov	 DWORD PTR __$ArrayPad$[ebp], eax
  00010	8b 45 08	 mov	 eax, DWORD PTR _k$[ebp]

; 162  : 		_ENCSTR(k, _k);

  00013	8a 10		 mov	 dl, BYTE PTR [eax]
  00015	53		 push	 ebx
  00016	56		 push	 esi
  00017	8b 75 0c	 mov	 esi, DWORD PTR _d$[ebp]
  0001a	57		 push	 edi
  0001b	8b 7d 10	 mov	 edi, DWORD PTR _b$[ebp]
  0001e	89 4d dc	 mov	 DWORD PTR _this$GSCopy$[ebp], ecx
  00021	84 d2		 test	 dl, dl
  00023	0f 84 f7 01 00
	00		 je	 $LN96@LoadString@2
  00029	80 f2 ed	 xor	 dl, -19			; ffffffedH
  0002c	88 55 e0	 mov	 BYTE PTR __k$[ebp], dl
  0002f	8a 50 01	 mov	 dl, BYTE PTR [eax+1]
  00032	84 d2		 test	 dl, dl
  00034	0f 84 e0 01 00
	00		 je	 $LN95@LoadString@2
  0003a	b1 ec		 mov	 cl, -20			; ffffffecH
  0003c	32 d1		 xor	 dl, cl
  0003e	88 55 e1	 mov	 BYTE PTR __k$[ebp+1], dl
  00041	8a 50 02	 mov	 dl, BYTE PTR [eax+2]
  00044	84 d2		 test	 dl, dl
  00046	0f 84 c8 01 00
	00		 je	 $LN94@LoadString@2
  0004c	b3 eb		 mov	 bl, -21			; ffffffebH
  0004e	32 d3		 xor	 dl, bl
  00050	88 55 e2	 mov	 BYTE PTR __k$[ebp+2], dl
  00053	8a 50 03	 mov	 dl, BYTE PTR [eax+3]
  00056	84 d2		 test	 dl, dl
  00058	0f 84 b0 01 00
	00		 je	 $LN93@LoadString@2
  0005e	80 f2 ea	 xor	 dl, -22			; ffffffeaH
  00061	88 55 e3	 mov	 BYTE PTR __k$[ebp+3], dl
  00064	8a 50 04	 mov	 dl, BYTE PTR [eax+4]
  00067	84 d2		 test	 dl, dl
  00069	0f 84 99 01 00
	00		 je	 $LN92@LoadString@2
  0006f	80 f2 ed	 xor	 dl, -19			; ffffffedH
  00072	88 55 e4	 mov	 BYTE PTR __k$[ebp+4], dl
  00075	8a 50 05	 mov	 dl, BYTE PTR [eax+5]
  00078	84 d2		 test	 dl, dl
  0007a	0f 84 83 01 00
	00		 je	 $LN91@LoadString@2
  00080	32 d1		 xor	 dl, cl
  00082	88 55 e5	 mov	 BYTE PTR __k$[ebp+5], dl
  00085	8a 50 06	 mov	 dl, BYTE PTR [eax+6]
  00088	84 d2		 test	 dl, dl
  0008a	0f 84 6e 01 00
	00		 je	 $LN90@LoadString@2
  00090	32 d3		 xor	 dl, bl
  00092	88 55 e6	 mov	 BYTE PTR __k$[ebp+6], dl
  00095	8a 50 07	 mov	 dl, BYTE PTR [eax+7]
  00098	84 d2		 test	 dl, dl
  0009a	0f 84 58 01 00
	00		 je	 $LN89@LoadString@2
  000a0	80 f2 ea	 xor	 dl, -22			; ffffffeaH
  000a3	88 55 e7	 mov	 BYTE PTR __k$[ebp+7], dl
  000a6	8a 50 08	 mov	 dl, BYTE PTR [eax+8]
  000a9	84 d2		 test	 dl, dl
  000ab	0f 84 41 01 00
	00		 je	 $LN88@LoadString@2
  000b1	80 f2 ed	 xor	 dl, -19			; ffffffedH
  000b4	88 55 e8	 mov	 BYTE PTR __k$[ebp+8], dl
  000b7	8a 50 09	 mov	 dl, BYTE PTR [eax+9]
  000ba	84 d2		 test	 dl, dl
  000bc	0f 84 2b 01 00
	00		 je	 $LN87@LoadString@2
  000c2	32 d1		 xor	 dl, cl
  000c4	88 55 e9	 mov	 BYTE PTR __k$[ebp+9], dl
  000c7	8a 50 0a	 mov	 dl, BYTE PTR [eax+10]
  000ca	84 d2		 test	 dl, dl
  000cc	0f 84 16 01 00
	00		 je	 $LN86@LoadString@2
  000d2	32 d3		 xor	 dl, bl
  000d4	88 55 ea	 mov	 BYTE PTR __k$[ebp+10], dl
  000d7	8a 50 0b	 mov	 dl, BYTE PTR [eax+11]
  000da	84 d2		 test	 dl, dl
  000dc	0f 84 00 01 00
	00		 je	 $LN85@LoadString@2
  000e2	80 f2 ea	 xor	 dl, -22			; ffffffeaH
  000e5	88 55 eb	 mov	 BYTE PTR __k$[ebp+11], dl
  000e8	8a 50 0c	 mov	 dl, BYTE PTR [eax+12]
  000eb	84 d2		 test	 dl, dl
  000ed	0f 84 e9 00 00
	00		 je	 $LN84@LoadString@2
  000f3	80 f2 ed	 xor	 dl, -19			; ffffffedH
  000f6	88 55 ec	 mov	 BYTE PTR __k$[ebp+12], dl
  000f9	8a 50 0d	 mov	 dl, BYTE PTR [eax+13]
  000fc	84 d2		 test	 dl, dl
  000fe	0f 84 d3 00 00
	00		 je	 $LN83@LoadString@2
  00104	32 d1		 xor	 dl, cl
  00106	88 55 ed	 mov	 BYTE PTR __k$[ebp+13], dl
  00109	8a 50 0e	 mov	 dl, BYTE PTR [eax+14]
  0010c	84 d2		 test	 dl, dl
  0010e	0f 84 be 00 00
	00		 je	 $LN82@LoadString@2
  00114	32 d3		 xor	 dl, bl
  00116	88 55 ee	 mov	 BYTE PTR __k$[ebp+14], dl
  00119	8a 50 0f	 mov	 dl, BYTE PTR [eax+15]
  0011c	84 d2		 test	 dl, dl
  0011e	0f 84 a8 00 00
	00		 je	 $LN81@LoadString@2
  00124	80 f2 ea	 xor	 dl, -22			; ffffffeaH
  00127	88 55 ef	 mov	 BYTE PTR __k$[ebp+15], dl
  0012a	8a 50 10	 mov	 dl, BYTE PTR [eax+16]
  0012d	84 d2		 test	 dl, dl
  0012f	0f 84 91 00 00
	00		 je	 $LN80@LoadString@2
  00135	80 f2 ed	 xor	 dl, -19			; ffffffedH
  00138	88 55 f0	 mov	 BYTE PTR __k$[ebp+16], dl
  0013b	8a 50 11	 mov	 dl, BYTE PTR [eax+17]
  0013e	84 d2		 test	 dl, dl
  00140	74 7f		 je	 SHORT $LN79@LoadString@2
  00142	32 d1		 xor	 dl, cl
  00144	88 55 f1	 mov	 BYTE PTR __k$[ebp+17], dl
  00147	8a 50 12	 mov	 dl, BYTE PTR [eax+18]
  0014a	84 d2		 test	 dl, dl
  0014c	74 6e		 je	 SHORT $LN78@LoadString@2
  0014e	32 d3		 xor	 dl, bl
  00150	88 55 f2	 mov	 BYTE PTR __k$[ebp+18], dl
  00153	8a 50 13	 mov	 dl, BYTE PTR [eax+19]
  00156	84 d2		 test	 dl, dl
  00158	74 5c		 je	 SHORT $LN77@LoadString@2
  0015a	80 f2 ea	 xor	 dl, -22			; ffffffeaH
  0015d	80 78 14 00	 cmp	 BYTE PTR [eax+20], 0
  00161	88 55 f3	 mov	 BYTE PTR __k$[ebp+19], dl
  00164	0f 84 ba 00 00
	00		 je	 $LN111@LoadString@2
  0016a	8a 50 15	 mov	 dl, BYTE PTR [eax+21]
  0016d	84 d2		 test	 dl, dl
  0016f	74 40		 je	 SHORT $LN75@LoadString@2
  00171	32 d1		 xor	 dl, cl
  00173	88 55 f5	 mov	 BYTE PTR __k$[ebp+21], dl
  00176	8a 50 16	 mov	 dl, BYTE PTR [eax+22]
  00179	84 d2		 test	 dl, dl
  0017b	74 2f		 je	 SHORT $LN74@LoadString@2
  0017d	32 d3		 xor	 dl, bl
  0017f	88 55 f6	 mov	 BYTE PTR __k$[ebp+22], dl
  00182	8a 50 17	 mov	 dl, BYTE PTR [eax+23]
  00185	84 d2		 test	 dl, dl
  00187	74 1d		 je	 SHORT $LN73@LoadString@2
  00189	8a 40 18	 mov	 al, BYTE PTR [eax+24]
  0018c	80 f2 ea	 xor	 dl, -22			; ffffffeaH
  0018f	88 55 f7	 mov	 BYTE PTR __k$[ebp+23], dl
  00192	84 c0		 test	 al, al
  00194	74 0a		 je	 SHORT $LN72@LoadString@2
  00196	34 ed		 xor	 al, -19			; ffffffedH
  00198	88 45 f8	 mov	 BYTE PTR __k$[ebp+24], al
  0019b	e9 84 00 00 00	 jmp	 $LN111@LoadString@2
$LN72@LoadString@2:
  001a0	c6 45 f8 ed	 mov	 BYTE PTR __k$[ebp+24], -19 ; ffffffedH
  001a4	eb 7e		 jmp	 SHORT $LN111@LoadString@2
$LN73@LoadString@2:
  001a6	c6 45 f7 ea	 mov	 BYTE PTR __k$[ebp+23], -22 ; ffffffeaH
  001aa	eb 78		 jmp	 SHORT $LN111@LoadString@2
$LN74@LoadString@2:
  001ac	88 5d f6	 mov	 BYTE PTR __k$[ebp+22], bl
  001af	eb 73		 jmp	 SHORT $LN111@LoadString@2
$LN75@LoadString@2:
  001b1	88 4d f5	 mov	 BYTE PTR __k$[ebp+21], cl
  001b4	eb 6e		 jmp	 SHORT $LN111@LoadString@2
$LN77@LoadString@2:
  001b6	c6 45 f3 ea	 mov	 BYTE PTR __k$[ebp+19], -22 ; ffffffeaH
  001ba	eb 68		 jmp	 SHORT $LN111@LoadString@2
$LN78@LoadString@2:
  001bc	88 5d f2	 mov	 BYTE PTR __k$[ebp+18], bl
  001bf	eb 63		 jmp	 SHORT $LN111@LoadString@2
$LN79@LoadString@2:
  001c1	88 4d f1	 mov	 BYTE PTR __k$[ebp+17], cl
  001c4	eb 5e		 jmp	 SHORT $LN111@LoadString@2
$LN80@LoadString@2:
  001c6	c6 45 f0 ed	 mov	 BYTE PTR __k$[ebp+16], -19 ; ffffffedH
  001ca	eb 58		 jmp	 SHORT $LN111@LoadString@2
$LN81@LoadString@2:
  001cc	c6 45 ef ea	 mov	 BYTE PTR __k$[ebp+15], -22 ; ffffffeaH
  001d0	eb 52		 jmp	 SHORT $LN111@LoadString@2
$LN82@LoadString@2:
  001d2	88 5d ee	 mov	 BYTE PTR __k$[ebp+14], bl
  001d5	eb 4d		 jmp	 SHORT $LN111@LoadString@2
$LN83@LoadString@2:
  001d7	88 4d ed	 mov	 BYTE PTR __k$[ebp+13], cl
  001da	eb 48		 jmp	 SHORT $LN111@LoadString@2
$LN84@LoadString@2:
  001dc	c6 45 ec ed	 mov	 BYTE PTR __k$[ebp+12], -19 ; ffffffedH
  001e0	eb 42		 jmp	 SHORT $LN111@LoadString@2
$LN85@LoadString@2:
  001e2	c6 45 eb ea	 mov	 BYTE PTR __k$[ebp+11], -22 ; ffffffeaH
  001e6	eb 3c		 jmp	 SHORT $LN111@LoadString@2
$LN86@LoadString@2:
  001e8	88 5d ea	 mov	 BYTE PTR __k$[ebp+10], bl
  001eb	eb 37		 jmp	 SHORT $LN111@LoadString@2
$LN87@LoadString@2:
  001ed	88 4d e9	 mov	 BYTE PTR __k$[ebp+9], cl
  001f0	eb 32		 jmp	 SHORT $LN111@LoadString@2
$LN88@LoadString@2:
  001f2	c6 45 e8 ed	 mov	 BYTE PTR __k$[ebp+8], -19 ; ffffffedH
  001f6	eb 2c		 jmp	 SHORT $LN111@LoadString@2
$LN89@LoadString@2:
  001f8	c6 45 e7 ea	 mov	 BYTE PTR __k$[ebp+7], -22 ; ffffffeaH
  001fc	eb 26		 jmp	 SHORT $LN111@LoadString@2
$LN90@LoadString@2:
  001fe	88 5d e6	 mov	 BYTE PTR __k$[ebp+6], bl
  00201	eb 21		 jmp	 SHORT $LN111@LoadString@2
$LN91@LoadString@2:
  00203	88 4d e5	 mov	 BYTE PTR __k$[ebp+5], cl
  00206	eb 1c		 jmp	 SHORT $LN111@LoadString@2
$LN92@LoadString@2:
  00208	c6 45 e4 ed	 mov	 BYTE PTR __k$[ebp+4], -19 ; ffffffedH
  0020c	eb 16		 jmp	 SHORT $LN111@LoadString@2
$LN93@LoadString@2:
  0020e	c6 45 e3 ea	 mov	 BYTE PTR __k$[ebp+3], -22 ; ffffffeaH
  00212	eb 10		 jmp	 SHORT $LN111@LoadString@2
$LN94@LoadString@2:
  00214	c6 45 e2 eb	 mov	 BYTE PTR __k$[ebp+2], -21 ; ffffffebH
  00218	eb 0a		 jmp	 SHORT $LN111@LoadString@2
$LN95@LoadString@2:
  0021a	c6 45 e1 ec	 mov	 BYTE PTR __k$[ebp+1], -20 ; ffffffecH
  0021e	eb 04		 jmp	 SHORT $LN111@LoadString@2
$LN96@LoadString@2:
  00220	c6 45 e0 ed	 mov	 BYTE PTR __k$[ebp], -19	; ffffffedH
$LN111@LoadString@2:
  00224	6a 05		 push	 5
  00226	8d 45 e0	 lea	 eax, DWORD PTR __k$[ebp]
  00229	c6 45 f4 00	 mov	 BYTE PTR __k$[ebp+20], 0
  0022d	5a		 pop	 edx
$LL104@LoadString@2:
  0022e	81 30 ed ec eb
	ea		 xor	 DWORD PTR [eax], -353637139 ; eaebecedH
  00234	83 c0 04	 add	 eax, 4
  00237	4a		 dec	 edx
  00238	75 f4		 jne	 SHORT $LL104@LoadString@2

; 163  : 		LoadString(_k, d, b, i);

  0023a	ff 75 14	 push	 DWORD PTR _i$[ebp]
  0023d	8b 4d dc	 mov	 ecx, DWORD PTR _this$GSCopy$[ebp]
  00240	57		 push	 edi
  00241	56		 push	 esi
  00242	8d 45 e0	 lea	 eax, DWORD PTR __k$[ebp]
  00245	50		 push	 eax
  00246	ff 15 00 00 00
	00		 call	 DWORD PTR __imp_?LoadStringA@ioINILoader@@QAEXPBD0PADH@Z

; 164  : 	}

  0024c	8b 4d fc	 mov	 ecx, DWORD PTR __$ArrayPad$[ebp]
  0024f	5f		 pop	 edi
  00250	5e		 pop	 esi
  00251	33 cd		 xor	 ecx, ebp
  00253	5b		 pop	 ebx
  00254	e8 00 00 00 00	 call	 @__security_check_cookie@4
  00259	c9		 leave
  0025a	c2 10 00	 ret	 16			; 00000010H
??$LoadString_e@$0BF@@ioINILoader@@QAEXAAY0BF@$$CBDAAY00$$CBDPADH@Z ENDP ; ioINILoader::LoadString_e<21>
_TEXT	ENDS
PUBLIC	_this$GSCopy$
PUBLIC	__$ArrayPad$
PUBLIC	??$LoadString_e@$0BG@@ioINILoader@@QAEXAAY0BG@$$CBDAAY00$$CBDPADH@Z ; ioINILoader::LoadString_e<22>
; Function compile flags: /Ogsp
;	COMDAT ??$LoadString_e@$0BG@@ioINILoader@@QAEXAAY0BG@$$CBDAAY00$$CBDPADH@Z
_TEXT	SEGMENT
_this$GSCopy$ = -36					; size = 4
__k$ = -32						; size = 22
__$ArrayPad$ = -4					; size = 4
_k$ = 8							; size = 4
_d$ = 12						; size = 4
_b$ = 16						; size = 4
_i$ = 20						; size = 4
??$LoadString_e@$0BG@@ioINILoader@@QAEXAAY0BG@$$CBDAAY00$$CBDPADH@Z PROC ; ioINILoader::LoadString_e<22>, COMDAT
; _this$ = ecx

; 161  : 	{

  00000	55		 push	 ebp
  00001	8b ec		 mov	 ebp, esp
  00003	83 ec 24	 sub	 esp, 36			; 00000024H
  00006	a1 00 00 00 00	 mov	 eax, DWORD PTR ___security_cookie
  0000b	33 c5		 xor	 eax, ebp
  0000d	89 45 fc	 mov	 DWORD PTR __$ArrayPad$[ebp], eax
  00010	8b 45 08	 mov	 eax, DWORD PTR _k$[ebp]

; 162  : 		_ENCSTR(k, _k);

  00013	8a 10		 mov	 dl, BYTE PTR [eax]
  00015	53		 push	 ebx
  00016	56		 push	 esi
  00017	8b 75 0c	 mov	 esi, DWORD PTR _d$[ebp]
  0001a	57		 push	 edi
  0001b	8b 7d 10	 mov	 edi, DWORD PTR _b$[ebp]
  0001e	89 4d dc	 mov	 DWORD PTR _this$GSCopy$[ebp], ecx
  00021	84 d2		 test	 dl, dl
  00023	0f 84 15 02 00
	00		 je	 $LN96@LoadString@3
  00029	80 f2 ed	 xor	 dl, -19			; ffffffedH
  0002c	88 55 e0	 mov	 BYTE PTR __k$[ebp], dl
  0002f	8a 50 01	 mov	 dl, BYTE PTR [eax+1]
  00032	84 d2		 test	 dl, dl
  00034	0f 84 fe 01 00
	00		 je	 $LN95@LoadString@3
  0003a	80 f2 ec	 xor	 dl, -20			; ffffffecH
  0003d	88 55 e1	 mov	 BYTE PTR __k$[ebp+1], dl
  00040	8a 50 02	 mov	 dl, BYTE PTR [eax+2]
  00043	84 d2		 test	 dl, dl
  00045	0f 84 e7 01 00
	00		 je	 $LN94@LoadString@3
  0004b	b1 eb		 mov	 cl, -21			; ffffffebH
  0004d	32 d1		 xor	 dl, cl
  0004f	88 55 e2	 mov	 BYTE PTR __k$[ebp+2], dl
  00052	8a 50 03	 mov	 dl, BYTE PTR [eax+3]
  00055	84 d2		 test	 dl, dl
  00057	0f 84 cf 01 00
	00		 je	 $LN93@LoadString@3
  0005d	b3 ea		 mov	 bl, -22			; ffffffeaH
  0005f	32 d3		 xor	 dl, bl
  00061	88 55 e3	 mov	 BYTE PTR __k$[ebp+3], dl
  00064	8a 50 04	 mov	 dl, BYTE PTR [eax+4]
  00067	84 d2		 test	 dl, dl
  00069	0f 84 b7 01 00
	00		 je	 $LN92@LoadString@3
  0006f	80 f2 ed	 xor	 dl, -19			; ffffffedH
  00072	88 55 e4	 mov	 BYTE PTR __k$[ebp+4], dl
  00075	8a 50 05	 mov	 dl, BYTE PTR [eax+5]
  00078	84 d2		 test	 dl, dl
  0007a	0f 84 a0 01 00
	00		 je	 $LN91@LoadString@3
  00080	80 f2 ec	 xor	 dl, -20			; ffffffecH
  00083	88 55 e5	 mov	 BYTE PTR __k$[ebp+5], dl
  00086	8a 50 06	 mov	 dl, BYTE PTR [eax+6]
  00089	84 d2		 test	 dl, dl
  0008b	0f 84 8a 01 00
	00		 je	 $LN90@LoadString@3
  00091	32 d1		 xor	 dl, cl
  00093	88 55 e6	 mov	 BYTE PTR __k$[ebp+6], dl
  00096	8a 50 07	 mov	 dl, BYTE PTR [eax+7]
  00099	84 d2		 test	 dl, dl
  0009b	0f 84 75 01 00
	00		 je	 $LN89@LoadString@3
  000a1	32 d3		 xor	 dl, bl
  000a3	88 55 e7	 mov	 BYTE PTR __k$[ebp+7], dl
  000a6	8a 50 08	 mov	 dl, BYTE PTR [eax+8]
  000a9	84 d2		 test	 dl, dl
  000ab	0f 84 5f 01 00
	00		 je	 $LN88@LoadString@3
  000b1	80 f2 ed	 xor	 dl, -19			; ffffffedH
  000b4	88 55 e8	 mov	 BYTE PTR __k$[ebp+8], dl
  000b7	8a 50 09	 mov	 dl, BYTE PTR [eax+9]
  000ba	84 d2		 test	 dl, dl
  000bc	0f 84 48 01 00
	00		 je	 $LN87@LoadString@3
  000c2	80 f2 ec	 xor	 dl, -20			; ffffffecH
  000c5	88 55 e9	 mov	 BYTE PTR __k$[ebp+9], dl
  000c8	8a 50 0a	 mov	 dl, BYTE PTR [eax+10]
  000cb	84 d2		 test	 dl, dl
  000cd	0f 84 32 01 00
	00		 je	 $LN86@LoadString@3
  000d3	32 d1		 xor	 dl, cl
  000d5	88 55 ea	 mov	 BYTE PTR __k$[ebp+10], dl
  000d8	8a 50 0b	 mov	 dl, BYTE PTR [eax+11]
  000db	84 d2		 test	 dl, dl
  000dd	0f 84 1d 01 00
	00		 je	 $LN85@LoadString@3
  000e3	32 d3		 xor	 dl, bl
  000e5	88 55 eb	 mov	 BYTE PTR __k$[ebp+11], dl
  000e8	8a 50 0c	 mov	 dl, BYTE PTR [eax+12]
  000eb	84 d2		 test	 dl, dl
  000ed	0f 84 07 01 00
	00		 je	 $LN84@LoadString@3
  000f3	80 f2 ed	 xor	 dl, -19			; ffffffedH
  000f6	88 55 ec	 mov	 BYTE PTR __k$[ebp+12], dl
  000f9	8a 50 0d	 mov	 dl, BYTE PTR [eax+13]
  000fc	84 d2		 test	 dl, dl
  000fe	0f 84 f0 00 00
	00		 je	 $LN83@LoadString@3
  00104	80 f2 ec	 xor	 dl, -20			; ffffffecH
  00107	88 55 ed	 mov	 BYTE PTR __k$[ebp+13], dl
  0010a	8a 50 0e	 mov	 dl, BYTE PTR [eax+14]
  0010d	84 d2		 test	 dl, dl
  0010f	0f 84 da 00 00
	00		 je	 $LN82@LoadString@3
  00115	32 d1		 xor	 dl, cl
  00117	88 55 ee	 mov	 BYTE PTR __k$[ebp+14], dl
  0011a	8a 50 0f	 mov	 dl, BYTE PTR [eax+15]
  0011d	84 d2		 test	 dl, dl
  0011f	0f 84 c5 00 00
	00		 je	 $LN81@LoadString@3
  00125	32 d3		 xor	 dl, bl
  00127	88 55 ef	 mov	 BYTE PTR __k$[ebp+15], dl
  0012a	8a 50 10	 mov	 dl, BYTE PTR [eax+16]
  0012d	84 d2		 test	 dl, dl
  0012f	0f 84 af 00 00
	00		 je	 $LN80@LoadString@3
  00135	80 f2 ed	 xor	 dl, -19			; ffffffedH
  00138	88 55 f0	 mov	 BYTE PTR __k$[ebp+16], dl
  0013b	8a 50 11	 mov	 dl, BYTE PTR [eax+17]
  0013e	84 d2		 test	 dl, dl
  00140	0f 84 98 00 00
	00		 je	 $LN79@LoadString@3
  00146	80 f2 ec	 xor	 dl, -20			; ffffffecH
  00149	88 55 f1	 mov	 BYTE PTR __k$[ebp+17], dl
  0014c	8a 50 12	 mov	 dl, BYTE PTR [eax+18]
  0014f	84 d2		 test	 dl, dl
  00151	0f 84 82 00 00
	00		 je	 $LN78@LoadString@3
  00157	32 d1		 xor	 dl, cl
  00159	88 55 f2	 mov	 BYTE PTR __k$[ebp+18], dl
  0015c	8a 50 13	 mov	 dl, BYTE PTR [eax+19]
  0015f	84 d2		 test	 dl, dl
  00161	74 71		 je	 SHORT $LN77@LoadString@3
  00163	32 d3		 xor	 dl, bl
  00165	88 55 f3	 mov	 BYTE PTR __k$[ebp+19], dl
  00168	8a 50 14	 mov	 dl, BYTE PTR [eax+20]
  0016b	84 d2		 test	 dl, dl
  0016d	74 5f		 je	 SHORT $LN76@LoadString@3
  0016f	80 f2 ed	 xor	 dl, -19			; ffffffedH
  00172	80 78 15 00	 cmp	 BYTE PTR [eax+21], 0
  00176	88 55 f4	 mov	 BYTE PTR __k$[ebp+20], dl
  00179	0f 84 c3 00 00
	00		 je	 $LN111@LoadString@3
  0017f	8a 50 16	 mov	 dl, BYTE PTR [eax+22]
  00182	84 d2		 test	 dl, dl
  00184	74 43		 je	 SHORT $LN74@LoadString@3
  00186	32 d1		 xor	 dl, cl
  00188	88 55 f6	 mov	 BYTE PTR __k$[ebp+22], dl
  0018b	8a 50 17	 mov	 dl, BYTE PTR [eax+23]
  0018e	84 d2		 test	 dl, dl
  00190	74 32		 je	 SHORT $LN73@LoadString@3
  00192	32 d3		 xor	 dl, bl
  00194	88 55 f7	 mov	 BYTE PTR __k$[ebp+23], dl
  00197	8a 50 18	 mov	 dl, BYTE PTR [eax+24]
  0019a	84 d2		 test	 dl, dl
  0019c	74 20		 je	 SHORT $LN72@LoadString@3
  0019e	8a 40 19	 mov	 al, BYTE PTR [eax+25]
  001a1	80 f2 ed	 xor	 dl, -19			; ffffffedH
  001a4	88 55 f8	 mov	 BYTE PTR __k$[ebp+24], dl
  001a7	84 c0		 test	 al, al
  001a9	74 0a		 je	 SHORT $LN71@LoadString@3
  001ab	34 ec		 xor	 al, -20			; ffffffecH
  001ad	88 45 f9	 mov	 BYTE PTR __k$[ebp+25], al
  001b0	e9 8d 00 00 00	 jmp	 $LN111@LoadString@3
$LN71@LoadString@3:
  001b5	c6 45 f9 ec	 mov	 BYTE PTR __k$[ebp+25], -20 ; ffffffecH
  001b9	e9 84 00 00 00	 jmp	 $LN111@LoadString@3
$LN72@LoadString@3:
  001be	c6 45 f8 ed	 mov	 BYTE PTR __k$[ebp+24], -19 ; ffffffedH
  001c2	eb 7e		 jmp	 SHORT $LN111@LoadString@3
$LN73@LoadString@3:
  001c4	88 5d f7	 mov	 BYTE PTR __k$[ebp+23], bl
  001c7	eb 79		 jmp	 SHORT $LN111@LoadString@3
$LN74@LoadString@3:
  001c9	88 4d f6	 mov	 BYTE PTR __k$[ebp+22], cl
  001cc	eb 74		 jmp	 SHORT $LN111@LoadString@3
$LN76@LoadString@3:
  001ce	c6 45 f4 ed	 mov	 BYTE PTR __k$[ebp+20], -19 ; ffffffedH
  001d2	eb 6e		 jmp	 SHORT $LN111@LoadString@3
$LN77@LoadString@3:
  001d4	88 5d f3	 mov	 BYTE PTR __k$[ebp+19], bl
  001d7	eb 69		 jmp	 SHORT $LN111@LoadString@3
$LN78@LoadString@3:
  001d9	88 4d f2	 mov	 BYTE PTR __k$[ebp+18], cl
  001dc	eb 64		 jmp	 SHORT $LN111@LoadString@3
$LN79@LoadString@3:
  001de	c6 45 f1 ec	 mov	 BYTE PTR __k$[ebp+17], -20 ; ffffffecH
  001e2	eb 5e		 jmp	 SHORT $LN111@LoadString@3
$LN80@LoadString@3:
  001e4	c6 45 f0 ed	 mov	 BYTE PTR __k$[ebp+16], -19 ; ffffffedH
  001e8	eb 58		 jmp	 SHORT $LN111@LoadString@3
$LN81@LoadString@3:
  001ea	88 5d ef	 mov	 BYTE PTR __k$[ebp+15], bl
  001ed	eb 53		 jmp	 SHORT $LN111@LoadString@3
$LN82@LoadString@3:
  001ef	88 4d ee	 mov	 BYTE PTR __k$[ebp+14], cl
  001f2	eb 4e		 jmp	 SHORT $LN111@LoadString@3
$LN83@LoadString@3:
  001f4	c6 45 ed ec	 mov	 BYTE PTR __k$[ebp+13], -20 ; ffffffecH
  001f8	eb 48		 jmp	 SHORT $LN111@LoadString@3
$LN84@LoadString@3:
  001fa	c6 45 ec ed	 mov	 BYTE PTR __k$[ebp+12], -19 ; ffffffedH
  001fe	eb 42		 jmp	 SHORT $LN111@LoadString@3
$LN85@LoadString@3:
  00200	88 5d eb	 mov	 BYTE PTR __k$[ebp+11], bl
  00203	eb 3d		 jmp	 SHORT $LN111@LoadString@3
$LN86@LoadString@3:
  00205	88 4d ea	 mov	 BYTE PTR __k$[ebp+10], cl
  00208	eb 38		 jmp	 SHORT $LN111@LoadString@3
$LN87@LoadString@3:
  0020a	c6 45 e9 ec	 mov	 BYTE PTR __k$[ebp+9], -20 ; ffffffecH
  0020e	eb 32		 jmp	 SHORT $LN111@LoadString@3
$LN88@LoadString@3:
  00210	c6 45 e8 ed	 mov	 BYTE PTR __k$[ebp+8], -19 ; ffffffedH
  00214	eb 2c		 jmp	 SHORT $LN111@LoadString@3
$LN89@LoadString@3:
  00216	88 5d e7	 mov	 BYTE PTR __k$[ebp+7], bl
  00219	eb 27		 jmp	 SHORT $LN111@LoadString@3
$LN90@LoadString@3:
  0021b	88 4d e6	 mov	 BYTE PTR __k$[ebp+6], cl
  0021e	eb 22		 jmp	 SHORT $LN111@LoadString@3
$LN91@LoadString@3:
  00220	c6 45 e5 ec	 mov	 BYTE PTR __k$[ebp+5], -20 ; ffffffecH
  00224	eb 1c		 jmp	 SHORT $LN111@LoadString@3
$LN92@LoadString@3:
  00226	c6 45 e4 ed	 mov	 BYTE PTR __k$[ebp+4], -19 ; ffffffedH
  0022a	eb 16		 jmp	 SHORT $LN111@LoadString@3
$LN93@LoadString@3:
  0022c	c6 45 e3 ea	 mov	 BYTE PTR __k$[ebp+3], -22 ; ffffffeaH
  00230	eb 10		 jmp	 SHORT $LN111@LoadString@3
$LN94@LoadString@3:
  00232	c6 45 e2 eb	 mov	 BYTE PTR __k$[ebp+2], -21 ; ffffffebH
  00236	eb 0a		 jmp	 SHORT $LN111@LoadString@3
$LN95@LoadString@3:
  00238	c6 45 e1 ec	 mov	 BYTE PTR __k$[ebp+1], -20 ; ffffffecH
  0023c	eb 04		 jmp	 SHORT $LN111@LoadString@3
$LN96@LoadString@3:
  0023e	c6 45 e0 ed	 mov	 BYTE PTR __k$[ebp], -19	; ffffffedH
$LN111@LoadString@3:
  00242	6a 05		 push	 5
  00244	8d 45 e0	 lea	 eax, DWORD PTR __k$[ebp]
  00247	c6 45 f5 00	 mov	 BYTE PTR __k$[ebp+21], 0
  0024b	5a		 pop	 edx
$LL104@LoadString@3:
  0024c	81 30 ed ec eb
	ea		 xor	 DWORD PTR [eax], -353637139 ; eaebecedH
  00252	83 c0 04	 add	 eax, 4
  00255	4a		 dec	 edx
  00256	75 f4		 jne	 SHORT $LL104@LoadString@3

; 163  : 		LoadString(_k, d, b, i);

  00258	ff 75 14	 push	 DWORD PTR _i$[ebp]
  0025b	8b 4d dc	 mov	 ecx, DWORD PTR _this$GSCopy$[ebp]
  0025e	80 75 f4 ed	 xor	 BYTE PTR __k$[ebp+20], -19 ; ffffffedH
  00262	57		 push	 edi
  00263	56		 push	 esi
  00264	8d 45 e0	 lea	 eax, DWORD PTR __k$[ebp]
  00267	50		 push	 eax
  00268	ff 15 00 00 00
	00		 call	 DWORD PTR __imp_?LoadStringA@ioINILoader@@QAEXPBD0PADH@Z

; 164  : 	}

  0026e	8b 4d fc	 mov	 ecx, DWORD PTR __$ArrayPad$[ebp]
  00271	5f		 pop	 edi
  00272	5e		 pop	 esi
  00273	33 cd		 xor	 ecx, ebp
  00275	5b		 pop	 ebx
  00276	e8 00 00 00 00	 call	 @__security_check_cookie@4
  0027b	c9		 leave
  0027c	c2 10 00	 ret	 16			; 00000010H
??$LoadString_e@$0BG@@ioINILoader@@QAEXAAY0BG@$$CBDAAY00$$CBDPADH@Z ENDP ; ioINILoader::LoadString_e<22>
_TEXT	ENDS
PUBLIC	__real@3fd2ee0d320154cb
PUBLIC	__real@41f0000000000000
PUBLIC	??$RADtoDEG@M@@YAMM@Z				; RADtoDEG<float>
;	COMDAT __real@3fd2ee0d320154cb
; File d:\lost saga for developer\youtube\tutorial\source\src\lsclient\veryoftenusedefine.h
CONST	SEGMENT
__real@3fd2ee0d320154cb DQ 03fd2ee0d320154cbr	; 0.29578
CONST	ENDS
;	COMDAT __real@41f0000000000000
CONST	SEGMENT
__real@41f0000000000000 DQ 041f0000000000000r	; 4.29497e+009
; Function compile flags: /Ogsp
CONST	ENDS
;	COMDAT ??$RADtoDEG@M@@YAMM@Z
_TEXT	SEGMENT
tv130 = -4						; size = 4
tv75 = 8						; size = 4
_val$ = 8						; size = 4
??$RADtoDEG@M@@YAMM@Z PROC				; RADtoDEG<float>, COMDAT

; 18   : type  RADtoDEG (type val) {return (type) (val * (return57() + 0.2957795132)); }

  00000	55		 push	 ebp
  00001	8b ec		 mov	 ebp, esp
  00003	51		 push	 ecx
  00004	b8 39 00 00 00	 mov	 eax, 57			; 00000039H
  00009	89 45 fc	 mov	 DWORD PTR tv130[ebp], eax
  0000c	db 45 fc	 fild	 DWORD PTR tv130[ebp]
  0000f	85 c0		 test	 eax, eax
  00011	79 06		 jns	 SHORT $LN5@RADtoDEG
  00013	dc 05 00 00 00
	00		 fadd	 QWORD PTR __real@41f0000000000000
$LN5@RADtoDEG:
  00019	dc 05 00 00 00
	00		 fadd	 QWORD PTR __real@3fd2ee0d320154cb
  0001f	d8 4d 08	 fmul	 DWORD PTR _val$[ebp]
  00022	d9 5d 08	 fstp	 DWORD PTR tv75[ebp]
  00025	d9 45 08	 fld	 DWORD PTR tv75[ebp]
  00028	c9		 leave
  00029	c3		 ret	 0
??$RADtoDEG@M@@YAMM@Z ENDP				; RADtoDEG<float>
_TEXT	ENDS
PUBLIC	??$_Cons_val@V?$allocator@UChangeDirInfo@@@std@@UChangeDirInfo@@AAU3@@std@@YAXAAV?$allocator@UChangeDirInfo@@@0@PAUChangeDirInfo@@AAU2@@Z ; std::_Cons_val<std::allocator<ChangeDirInfo>,ChangeDirInfo,ChangeDirInfo &>
; Function compile flags: /Ogsp
; File c:\program files (x86)\microsoft visual studio 10.0\vc\include\xmemory
;	COMDAT ??$_Cons_val@V?$allocator@UChangeDirInfo@@@std@@UChangeDirInfo@@AAU3@@std@@YAXAAV?$allocator@UChangeDirInfo@@@0@PAUChangeDirInfo@@AAU2@@Z
_TEXT	SEGMENT
__Alval$ = 8						; size = 4
__Pdest$ = 12						; size = 4
__Src$ = 16						; size = 4
??$_Cons_val@V?$allocator@UChangeDirInfo@@@std@@UChangeDirInfo@@AAU3@@std@@YAXAAV?$allocator@UChangeDirInfo@@@0@PAUChangeDirInfo@@AAU2@@Z PROC ; std::_Cons_val<std::allocator<ChangeDirInfo>,ChangeDirInfo,ChangeDirInfo &>, COMDAT

; 279  : 	{	// construct using allocator

  00000	55		 push	 ebp
  00001	8b ec		 mov	 ebp, esp
  00003	57		 push	 edi

; 280  : 	_Alval.construct(_Pdest, _STD forward<_Ty2>(_Src));

  00004	8b 7d 0c	 mov	 edi, DWORD PTR __Pdest$[ebp]
  00007	85 ff		 test	 edi, edi
  00009	74 0a		 je	 SHORT $LN7@Cons_val
  0000b	56		 push	 esi
  0000c	8b 75 10	 mov	 esi, DWORD PTR __Src$[ebp]
  0000f	6a 07		 push	 7
  00011	59		 pop	 ecx
  00012	f3 a5		 rep movsd
  00014	5e		 pop	 esi
$LN7@Cons_val:
  00015	5f		 pop	 edi

; 281  : 	}

  00016	5d		 pop	 ebp
  00017	c3		 ret	 0
??$_Cons_val@V?$allocator@UChangeDirInfo@@@std@@UChangeDirInfo@@AAU3@@std@@YAXAAV?$allocator@UChangeDirInfo@@@0@PAUChangeDirInfo@@AAU2@@Z ENDP ; std::_Cons_val<std::allocator<ChangeDirInfo>,ChangeDirInfo,ChangeDirInfo &>
_TEXT	ENDS
PUBLIC	?construct@?$allocator@UChangeDirInfo@@@std@@QAEXPAUChangeDirInfo@@ABU3@@Z ; std::allocator<ChangeDirInfo>::construct
; Function compile flags: /Ogsp
;	COMDAT ?construct@?$allocator@UChangeDirInfo@@@std@@QAEXPAUChangeDirInfo@@ABU3@@Z
_TEXT	SEGMENT
__Ptr$ = 8						; size = 4
__Val$ = 12						; size = 4
?construct@?$allocator@UChangeDirInfo@@@std@@QAEXPAUChangeDirInfo@@ABU3@@Z PROC ; std::allocator<ChangeDirInfo>::construct, COMDAT
; _this$ = ecx

; 196  : 		{	// construct object at _Ptr with value _Val

  00000	55		 push	 ebp
  00001	8b ec		 mov	 ebp, esp
  00003	57		 push	 edi

; 197  : 		_Construct(_Ptr, _Val);

  00004	8b 7d 08	 mov	 edi, DWORD PTR __Ptr$[ebp]
  00007	85 ff		 test	 edi, edi
  00009	74 0a		 je	 SHORT $LN5@construct@2
  0000b	56		 push	 esi
  0000c	8b 75 0c	 mov	 esi, DWORD PTR __Val$[ebp]
  0000f	6a 07		 push	 7
  00011	59		 pop	 ecx
  00012	f3 a5		 rep movsd
  00014	5e		 pop	 esi
$LN5@construct@2:
  00015	5f		 pop	 edi

; 198  : 		}

  00016	5d		 pop	 ebp
  00017	c2 08 00	 ret	 8
?construct@?$allocator@UChangeDirInfo@@@std@@QAEXPAUChangeDirInfo@@ABU3@@Z ENDP ; std::allocator<ChangeDirInfo>::construct
_TEXT	ENDS
PUBLIC	??G?$_Vector_iterator@V?$_Vector_val@UChangeDirInfo@@V?$allocator@UChangeDirInfo@@@std@@@std@@@std@@QBEHABV?$_Vector_const_iterator@V?$_Vector_val@UChangeDirInfo@@V?$allocator@UChangeDirInfo@@@std@@@std@@@1@@Z ; std::_Vector_iterator<std::_Vector_val<ChangeDirInfo,std::allocator<ChangeDirInfo> > >::operator-
; Function compile flags: /Ogsp
; File c:\program files (x86)\microsoft visual studio 10.0\vc\include\vector
;	COMDAT ??G?$_Vector_iterator@V?$_Vector_val@UChangeDirInfo@@V?$allocator@UChangeDirInfo@@@std@@@std@@@std@@QBEHABV?$_Vector_const_iterator@V?$_Vector_val@UChangeDirInfo@@V?$allocator@UChangeDirInfo@@@std@@@std@@@1@@Z
_TEXT	SEGMENT
__Right$ = 8						; size = 4
??G?$_Vector_iterator@V?$_Vector_val@UChangeDirInfo@@V?$allocator@UChangeDirInfo@@@std@@@std@@@std@@QBEHABV?$_Vector_const_iterator@V?$_Vector_val@UChangeDirInfo@@V?$allocator@UChangeDirInfo@@@std@@@std@@@1@@Z PROC ; std::_Vector_iterator<std::_Vector_val<ChangeDirInfo,std::allocator<ChangeDirInfo> > >::operator-, COMDAT
; _this$ = ecx

; 380  : 		{	// return difference of iterators

  00000	55		 push	 ebp
  00001	8b ec		 mov	 ebp, esp

; 381  : 		return (*(_Mybase *)this - _Right);

  00003	8b 01		 mov	 eax, DWORD PTR [ecx]
  00005	8b 4d 08	 mov	 ecx, DWORD PTR __Right$[ebp]
  00008	2b 01		 sub	 eax, DWORD PTR [ecx]
  0000a	6a 1c		 push	 28			; 0000001cH
  0000c	99		 cdq
  0000d	59		 pop	 ecx
  0000e	f7 f9		 idiv	 ecx

; 382  : 		}

  00010	5d		 pop	 ebp
  00011	c2 04 00	 ret	 4
??G?$_Vector_iterator@V?$_Vector_val@UChangeDirInfo@@V?$allocator@UChangeDirInfo@@@std@@@std@@@std@@QBEHABV?$_Vector_const_iterator@V?$_Vector_val@UChangeDirInfo@@V?$allocator@UChangeDirInfo@@@std@@@std@@@1@@Z ENDP ; std::_Vector_iterator<std::_Vector_val<ChangeDirInfo,std::allocator<ChangeDirInfo> > >::operator-
_TEXT	ENDS
PUBLIC	??$_Unchecked@V?$_Vector_val@UChangeDirInfo@@V?$allocator@UChangeDirInfo@@@std@@@std@@@std@@YAPAUChangeDirInfo@@V?$_Vector_iterator@V?$_Vector_val@UChangeDirInfo@@V?$allocator@UChangeDirInfo@@@std@@@std@@@0@@Z ; std::_Unchecked<std::_Vector_val<ChangeDirInfo,std::allocator<ChangeDirInfo> > >
; Function compile flags: /Ogsp
;	COMDAT ??$_Unchecked@V?$_Vector_val@UChangeDirInfo@@V?$allocator@UChangeDirInfo@@@std@@@std@@@std@@YAPAUChangeDirInfo@@V?$_Vector_iterator@V?$_Vector_val@UChangeDirInfo@@V?$allocator@UChangeDirInfo@@@std@@@std@@@0@@Z
_TEXT	SEGMENT
__Iter$ = 8						; size = 4
??$_Unchecked@V?$_Vector_val@UChangeDirInfo@@V?$allocator@UChangeDirInfo@@@std@@@std@@@std@@YAPAUChangeDirInfo@@V?$_Vector_iterator@V?$_Vector_val@UChangeDirInfo@@V?$allocator@UChangeDirInfo@@@std@@@std@@@0@@Z PROC ; std::_Unchecked<std::_Vector_val<ChangeDirInfo,std::allocator<ChangeDirInfo> > >, COMDAT

; 393  : 	{	// convert to unchecked

  00000	55		 push	 ebp
  00001	8b ec		 mov	 ebp, esp

; 394  : 	return (_Iter._Unchecked());

  00003	8b 45 08	 mov	 eax, DWORD PTR __Iter$[ebp]

; 395  : 	}

  00006	5d		 pop	 ebp
  00007	c3		 ret	 0
??$_Unchecked@V?$_Vector_val@UChangeDirInfo@@V?$allocator@UChangeDirInfo@@@std@@@std@@@std@@YAPAUChangeDirInfo@@V?$_Vector_iterator@V?$_Vector_val@UChangeDirInfo@@V?$allocator@UChangeDirInfo@@@std@@@std@@@0@@Z ENDP ; std::_Unchecked<std::_Vector_val<ChangeDirInfo,std::allocator<ChangeDirInfo> > >
_TEXT	ENDS
PUBLIC	??$_Move@PAUChangeDirInfo@@PAU1@@std@@YAPAUChangeDirInfo@@PAU1@00U_Nonscalar_ptr_iterator_tag@0@@Z ; std::_Move<ChangeDirInfo *,ChangeDirInfo *>
; Function compile flags: /Ogsp
; File c:\program files (x86)\microsoft visual studio 10.0\vc\include\xutility
;	COMDAT ??$_Move@PAUChangeDirInfo@@PAU1@@std@@YAPAUChangeDirInfo@@PAU1@00U_Nonscalar_ptr_iterator_tag@0@@Z
_TEXT	SEGMENT
__First$ = 8						; size = 4
__Last$ = 12						; size = 4
__Dest$ = 16						; size = 4
___formal$ = 20						; size = 1
??$_Move@PAUChangeDirInfo@@PAU1@@std@@YAPAUChangeDirInfo@@PAU1@00U_Nonscalar_ptr_iterator_tag@0@@Z PROC ; std::_Move<ChangeDirInfo *,ChangeDirInfo *>, COMDAT

; 2512 : 	{	// move [_First, _Last) to [_Dest, ...), arbitrary iterators

  00000	55		 push	 ebp
  00001	8b ec		 mov	 ebp, esp

; 2513 : 	for (; _First != _Last; ++_Dest, ++_First)

  00003	8b 45 08	 mov	 eax, DWORD PTR __First$[ebp]
  00006	3b 45 0c	 cmp	 eax, DWORD PTR __Last$[ebp]
  00009	74 1a		 je	 SHORT $LN10@Move
  0000b	56		 push	 esi
  0000c	57		 push	 edi
$LL3@Move:

; 2514 : 		*_Dest = _STD move(*_First);

  0000d	8b 7d 10	 mov	 edi, DWORD PTR __Dest$[ebp]
  00010	83 45 10 1c	 add	 DWORD PTR __Dest$[ebp], 28 ; 0000001cH
  00014	8b f0		 mov	 esi, eax
  00016	6a 07		 push	 7
  00018	83 c0 1c	 add	 eax, 28			; 0000001cH
  0001b	59		 pop	 ecx
  0001c	f3 a5		 rep movsd
  0001e	3b 45 0c	 cmp	 eax, DWORD PTR __Last$[ebp]
  00021	75 ea		 jne	 SHORT $LL3@Move
  00023	5f		 pop	 edi
  00024	5e		 pop	 esi
$LN10@Move:

; 2515 : 	return (_Dest);

  00025	8b 45 10	 mov	 eax, DWORD PTR __Dest$[ebp]

; 2516 : 	}

  00028	5d		 pop	 ebp
  00029	c3		 ret	 0
??$_Move@PAUChangeDirInfo@@PAU1@@std@@YAPAUChangeDirInfo@@PAU1@00U_Nonscalar_ptr_iterator_tag@0@@Z ENDP ; std::_Move<ChangeDirInfo *,ChangeDirInfo *>
_TEXT	ENDS
PUBLIC	?destroy@?$allocator@UChangeDirInfo@@@std@@QAEXPAUChangeDirInfo@@@Z ; std::allocator<ChangeDirInfo>::destroy
; Function compile flags: /Ogsp
; File c:\program files (x86)\microsoft visual studio 10.0\vc\include\xmemory
;	COMDAT ?destroy@?$allocator@UChangeDirInfo@@@std@@QAEXPAUChangeDirInfo@@@Z
_TEXT	SEGMENT
__Ptr$ = 8						; size = 4
?destroy@?$allocator@UChangeDirInfo@@@std@@QAEXPAUChangeDirInfo@@@Z PROC ; std::allocator<ChangeDirInfo>::destroy, COMDAT
; _this$ = ecx

; 213  : 		_Destroy(_Ptr);
; 214  : 		}

  00000	c2 04 00	 ret	 4
?destroy@?$allocator@UChangeDirInfo@@@std@@QAEXPAUChangeDirInfo@@@Z ENDP ; std::allocator<ChangeDirInfo>::destroy
_TEXT	ENDS
PUBLIC	??$?0AAPAUChangeDirInfo@@AAPAU0@@?$pair@PAUChangeDirInfo@@PAU1@@std@@QAE@AAPAUChangeDirInfo@@0@Z ; std::pair<ChangeDirInfo *,ChangeDirInfo *>::pair<ChangeDirInfo *,ChangeDirInfo *><ChangeDirInfo * &,ChangeDirInfo * &>
; Function compile flags: /Ogsp
; File c:\program files (x86)\microsoft visual studio 10.0\vc\include\utility
;	COMDAT ??$?0AAPAUChangeDirInfo@@AAPAU0@@?$pair@PAUChangeDirInfo@@PAU1@@std@@QAE@AAPAUChangeDirInfo@@0@Z
_TEXT	SEGMENT
__Val1$ = 8						; size = 4
__Val2$ = 12						; size = 4
??$?0AAPAUChangeDirInfo@@AAPAU0@@?$pair@PAUChangeDirInfo@@PAU1@@std@@QAE@AAPAUChangeDirInfo@@0@Z PROC ; std::pair<ChangeDirInfo *,ChangeDirInfo *>::pair<ChangeDirInfo *,ChangeDirInfo *><ChangeDirInfo * &,ChangeDirInfo * &>, COMDAT
; _this$ = ecx

; 247  : 		{	// construct from moved values

  00000	55		 push	 ebp
  00001	8b ec		 mov	 ebp, esp
  00003	8b c1		 mov	 eax, ecx
  00005	8b 4d 08	 mov	 ecx, DWORD PTR __Val1$[ebp]
  00008	8b 09		 mov	 ecx, DWORD PTR [ecx]
  0000a	89 08		 mov	 DWORD PTR [eax], ecx
  0000c	8b 4d 0c	 mov	 ecx, DWORD PTR __Val2$[ebp]
  0000f	8b 09		 mov	 ecx, DWORD PTR [ecx]
  00011	89 48 04	 mov	 DWORD PTR [eax+4], ecx

; 248  : 		}

  00014	5d		 pop	 ebp
  00015	c2 08 00	 ret	 8
??$?0AAPAUChangeDirInfo@@AAPAU0@@?$pair@PAUChangeDirInfo@@PAU1@@std@@QAE@AAPAUChangeDirInfo@@0@Z ENDP ; std::pair<ChangeDirInfo *,ChangeDirInfo *>::pair<ChangeDirInfo *,ChangeDirInfo *><ChangeDirInfo * &,ChangeDirInfo * &>
_TEXT	ENDS
PUBLIC	?construct@?$allocator@UChangeDirInfo@@@std@@QAEXPAUChangeDirInfo@@$$QAU3@@Z ; std::allocator<ChangeDirInfo>::construct
; Function compile flags: /Ogsp
; File c:\program files (x86)\microsoft visual studio 10.0\vc\include\xmemory
;	COMDAT ?construct@?$allocator@UChangeDirInfo@@@std@@QAEXPAUChangeDirInfo@@$$QAU3@@Z
_TEXT	SEGMENT
__Ptr$ = 8						; size = 4
__Val$ = 12						; size = 4
?construct@?$allocator@UChangeDirInfo@@@std@@QAEXPAUChangeDirInfo@@$$QAU3@@Z PROC ; std::allocator<ChangeDirInfo>::construct, COMDAT
; _this$ = ecx

; 201  : 		{	// construct object at _Ptr with value _Val

  00000	55		 push	 ebp
  00001	8b ec		 mov	 ebp, esp
  00003	57		 push	 edi

; 202  : 		::new ((void _FARQ *)_Ptr) _Ty(_STD forward<_Ty>(_Val));

  00004	8b 7d 08	 mov	 edi, DWORD PTR __Ptr$[ebp]
  00007	85 ff		 test	 edi, edi
  00009	74 0a		 je	 SHORT $LN3@construct@3
  0000b	56		 push	 esi
  0000c	8b 75 0c	 mov	 esi, DWORD PTR __Val$[ebp]
  0000f	6a 07		 push	 7
  00011	59		 pop	 ecx
  00012	f3 a5		 rep movsd
  00014	5e		 pop	 esi
$LN3@construct@3:
  00015	5f		 pop	 edi

; 203  : 		}

  00016	5d		 pop	 ebp
  00017	c2 08 00	 ret	 8
?construct@?$allocator@UChangeDirInfo@@@std@@QAEXPAUChangeDirInfo@@$$QAU3@@Z ENDP ; std::allocator<ChangeDirInfo>::construct
_TEXT	ENDS
PUBLIC	??$swap@UChangeDirInfo@@@std@@YAXAAUChangeDirInfo@@0@Z ; std::swap<ChangeDirInfo>
; Function compile flags: /Ogsp
; File c:\program files (x86)\microsoft visual studio 10.0\vc\include\utility
;	COMDAT ??$swap@UChangeDirInfo@@@std@@YAXAAUChangeDirInfo@@0@Z
_TEXT	SEGMENT
__Tmp$ = -28						; size = 28
__Left$ = 8						; size = 4
__Right$ = 12						; size = 4
??$swap@UChangeDirInfo@@@std@@YAXAAUChangeDirInfo@@0@Z PROC ; std::swap<ChangeDirInfo>, COMDAT

; 101  : 	{	// exchange values stored at _Left and _Right

  00000	55		 push	 ebp
  00001	8b ec		 mov	 ebp, esp
  00003	83 ec 1c	 sub	 esp, 28			; 0000001cH
  00006	56		 push	 esi

; 102  : 	_Ty _Tmp = _Move(_Left);

  00007	8b 75 08	 mov	 esi, DWORD PTR __Left$[ebp]
  0000a	57		 push	 edi
  0000b	6a 07		 push	 7
  0000d	59		 pop	 ecx

; 103  : 	_Left = _Move(_Right);

  0000e	6a 07		 push	 7
  00010	8d 7d e4	 lea	 edi, DWORD PTR __Tmp$[ebp]
  00013	f3 a5		 rep movsd
  00015	8b 75 0c	 mov	 esi, DWORD PTR __Right$[ebp]
  00018	8b 7d 08	 mov	 edi, DWORD PTR __Left$[ebp]
  0001b	59		 pop	 ecx
  0001c	f3 a5		 rep movsd

; 104  : 	_Right = _Move(_Tmp);

  0001e	8b 7d 0c	 mov	 edi, DWORD PTR __Right$[ebp]
  00021	6a 07		 push	 7
  00023	59		 pop	 ecx
  00024	8d 75 e4	 lea	 esi, DWORD PTR __Tmp$[ebp]
  00027	f3 a5		 rep movsd
  00029	5f		 pop	 edi
  0002a	5e		 pop	 esi

; 105  : 	}

  0002b	c9		 leave
  0002c	c3		 ret	 0
??$swap@UChangeDirInfo@@@std@@YAXAAUChangeDirInfo@@0@Z ENDP ; std::swap<ChangeDirInfo>
_TEXT	ENDS
PUBLIC	??$_Move_backward@PAUChangeDirInfo@@PAU1@@std@@YAPAUChangeDirInfo@@PAU1@00@Z ; std::_Move_backward<ChangeDirInfo *,ChangeDirInfo *>
; Function compile flags: /Ogsp
; File c:\program files (x86)\microsoft visual studio 10.0\vc\include\xutility
;	COMDAT ??$_Move_backward@PAUChangeDirInfo@@PAU1@@std@@YAPAUChangeDirInfo@@PAU1@00@Z
_TEXT	SEGMENT
__Cat$536594 = -4					; size = 1
__First$ = 8						; size = 4
__Last$ = 12						; size = 4
__Dest$ = 16						; size = 4
??$_Move_backward@PAUChangeDirInfo@@PAU1@@std@@YAPAUChangeDirInfo@@PAU1@00@Z PROC ; std::_Move_backward<ChangeDirInfo *,ChangeDirInfo *>, COMDAT

; 2638 : 	{	// move [_First, _Last) backwards to [..., _Dest), unchecked

  00000	55		 push	 ebp
  00001	8b ec		 mov	 ebp, esp
  00003	51		 push	 ecx

; 2639 : 	return (_Move_backward(_First, _Last,
; 2640 : 		_Dest, _Ptr_cat(_First, _Dest)));

  00004	ff 75 fc	 push	 DWORD PTR __Cat$536594[ebp]
  00007	ff 75 10	 push	 DWORD PTR __Dest$[ebp]
  0000a	ff 75 0c	 push	 DWORD PTR __Last$[ebp]
  0000d	ff 75 08	 push	 DWORD PTR __First$[ebp]
  00010	e8 00 00 00 00	 call	 ??$_Move_backward@PAUChangeDirInfo@@PAU1@@std@@YAPAUChangeDirInfo@@PAU1@00U_Nonscalar_ptr_iterator_tag@0@@Z ; std::_Move_backward<ChangeDirInfo *,ChangeDirInfo *>
  00015	83 c4 10	 add	 esp, 16			; 00000010H

; 2641 : 	}

  00018	c9		 leave
  00019	c3		 ret	 0
??$_Move_backward@PAUChangeDirInfo@@PAU1@@std@@YAPAUChangeDirInfo@@PAU1@00@Z ENDP ; std::_Move_backward<ChangeDirInfo *,ChangeDirInfo *>
_TEXT	ENDS
PUBLIC	??$_Push_heap@PAUChangeDirInfo@@HU1@VChangeDirSort@@@std@@YAXPAUChangeDirInfo@@HH$$QAU1@VChangeDirSort@@@Z ; std::_Push_heap<ChangeDirInfo *,int,ChangeDirInfo,ChangeDirSort>
; Function compile flags: /Ogsp
; File c:\program files (x86)\microsoft visual studio 10.0\vc\include\algorithm
;	COMDAT ??$_Push_heap@PAUChangeDirInfo@@HU1@VChangeDirSort@@@std@@YAXPAUChangeDirInfo@@HH$$QAU1@VChangeDirSort@@@Z
_TEXT	SEGMENT
__First$ = 8						; size = 4
__Hole$ = 12						; size = 4
__Top$ = 16						; size = 4
__Val$ = 20						; size = 4
__Pred$ = 24						; size = 1
??$_Push_heap@PAUChangeDirInfo@@HU1@VChangeDirSort@@@std@@YAXPAUChangeDirInfo@@HH$$QAU1@VChangeDirSort@@@Z PROC ; std::_Push_heap<ChangeDirInfo *,int,ChangeDirInfo,ChangeDirSort>, COMDAT

; 2455 : 	{	// percolate _Hole to _Top or where _Val belongs, using operator<

  00000	55		 push	 ebp
  00001	8b ec		 mov	 ebp, esp
  00003	53		 push	 ebx

; 2456 : 	for (_Diff _Idx = (_Hole - 1) / 2;
; 2457 : 		_Top < _Hole && _DEBUG_LT_PRED(_Pred, *(_First + _Idx), _Val);
; 2458 : 		_Idx = (_Hole - 1) / 2)

  00004	8b 5d 08	 mov	 ebx, DWORD PTR __First$[ebp]
  00007	56		 push	 esi
  00008	57		 push	 edi
  00009	8b 7d 0c	 mov	 edi, DWORD PTR __Hole$[ebp]
  0000c	8d 47 ff	 lea	 eax, DWORD PTR [edi-1]
  0000f	99		 cdq
  00010	2b c2		 sub	 eax, edx
  00012	8b d0		 mov	 edx, eax
  00014	d1 fa		 sar	 edx, 1
  00016	eb 5a		 jmp	 SHORT $LN19@Push_heap
$LL3@Push_heap:
  00018	8b 4d 14	 mov	 ecx, DWORD PTR __Val$[ebp]
  0001b	f3 0f 10 09	 movss	 xmm1, DWORD PTR [ecx]
  0001f	8b f2		 mov	 esi, edx
  00021	6b f6 1c	 imul	 esi, 28			; 0000001cH
  00024	03 f3		 add	 esi, ebx
  00026	f3 0f 10 06	 movss	 xmm0, DWORD PTR [esi]
  0002a	0f 5a d0	 cvtps2pd xmm2, xmm0
  0002d	0f 5a d9	 cvtps2pd xmm3, xmm1
  00030	66 0f 2f da	 comisd	 xmm3, xmm2
  00034	77 26		 ja	 SHORT $LN18@Push_heap
  00036	0f 5a c0	 cvtps2pd xmm0, xmm0
  00039	0f 5a c9	 cvtps2pd xmm1, xmm1
  0003c	66 0f 2e c1	 ucomisd xmm0, xmm1
  00040	9f		 lahf
  00041	f6 c4 44	 test	 ah, 68			; 00000044H
  00044	7a 31		 jp	 SHORT $LN6@Push_heap
  00046	f3 0f 10 46 0c	 movss	 xmm0, DWORD PTR [esi+12]
  0004b	f3 0f 10 49 0c	 movss	 xmm1, DWORD PTR [ecx+12]
  00050	0f 5a c0	 cvtps2pd xmm0, xmm0
  00053	0f 5a c9	 cvtps2pd xmm1, xmm1
  00056	66 0f 2f c8	 comisd	 xmm1, xmm0
  0005a	76 1b		 jbe	 SHORT $LN6@Push_heap
$LN18@Push_heap:

; 2459 : 		{	// move _Hole up to parent
; 2460 : 		*(_First + _Hole) = _Move(*(_First + _Idx));

  0005c	6b ff 1c	 imul	 edi, 28			; 0000001cH
  0005f	03 fb		 add	 edi, ebx
  00061	6a 07		 push	 7
  00063	59		 pop	 ecx
  00064	8d 42 ff	 lea	 eax, DWORD PTR [edx-1]
  00067	f3 a5		 rep movsd

; 2461 : 		_Hole = _Idx;

  00069	8b fa		 mov	 edi, edx
  0006b	99		 cdq
  0006c	2b c2		 sub	 eax, edx
  0006e	d1 f8		 sar	 eax, 1
  00070	8b d0		 mov	 edx, eax
$LN19@Push_heap:

; 2456 : 	for (_Diff _Idx = (_Hole - 1) / 2;
; 2457 : 		_Top < _Hole && _DEBUG_LT_PRED(_Pred, *(_First + _Idx), _Val);
; 2458 : 		_Idx = (_Hole - 1) / 2)

  00072	39 7d 10	 cmp	 DWORD PTR __Top$[ebp], edi
  00075	7c a1		 jl	 SHORT $LL3@Push_heap
$LN6@Push_heap:

; 2462 : 		}
; 2463 : 
; 2464 : 	*(_First + _Hole) = _Move(_Val);	// drop _Val into final hole

  00077	8b 75 14	 mov	 esi, DWORD PTR __Val$[ebp]
  0007a	6b ff 1c	 imul	 edi, 28			; 0000001cH
  0007d	6a 07		 push	 7
  0007f	59		 pop	 ecx
  00080	03 fb		 add	 edi, ebx
  00082	f3 a5		 rep movsd
  00084	5f		 pop	 edi
  00085	5e		 pop	 esi
  00086	5b		 pop	 ebx

; 2465 : 	}

  00087	5d		 pop	 ebp
  00088	c3		 ret	 0
??$_Push_heap@PAUChangeDirInfo@@HU1@VChangeDirSort@@@std@@YAXPAUChangeDirInfo@@HH$$QAU1@VChangeDirSort@@@Z ENDP ; std::_Push_heap<ChangeDirInfo *,int,ChangeDirInfo,ChangeDirSort>
_TEXT	ENDS
PUBLIC	??0?$CEncrypt@M@@QAE@XZ				; CEncrypt<float>::CEncrypt<float>
EXTRN	??0ccddaabb@@QAE@XZ:PROC			; ccddaabb::ccddaabb
EXTRN	__EH_epilog3:PROC
EXTRN	__EH_prolog3:PROC
;	COMDAT xdata$x
; File d:\lost saga for developer\youtube\tutorial\source\src\lsclient\encryptvalue.h
xdata$x	SEGMENT
__unwindtable$??0?$CEncrypt@M@@QAE@XZ DD 0ffffffffH
	DD	FLAT:__unwindfunclet$??0?$CEncrypt@M@@QAE@XZ$0
__ehfuncinfo$??0?$CEncrypt@M@@QAE@XZ DD 019930522H
	DD	01H
	DD	FLAT:__unwindtable$??0?$CEncrypt@M@@QAE@XZ
	DD	2 DUP(00H)
	DD	2 DUP(00H)
	DD	00H
	DD	01H
; Function compile flags: /Ogsp
xdata$x	ENDS
;	COMDAT ??0?$CEncrypt@M@@QAE@XZ
_TEXT	SEGMENT
_this$ = -16						; size = 4
__$EHRec$ = -12						; size = 12
??0?$CEncrypt@M@@QAE@XZ PROC				; CEncrypt<float>::CEncrypt<float>, COMDAT
; _this$ = ecx

; 109  : 	CEncrypt()

  00000	6a 04		 push	 4
  00002	b8 00 00 00 00	 mov	 eax, __ehhandler$??0?$CEncrypt@M@@QAE@XZ
  00007	e8 00 00 00 00	 call	 __EH_prolog3
  0000c	8b f1		 mov	 esi, ecx
  0000e	89 75 f0	 mov	 DWORD PTR _this$[ebp], esi
  00011	8d 4e 0c	 lea	 ecx, DWORD PTR [esi+12]
  00014	c7 06 00 00 00
	00		 mov	 DWORD PTR [esi], OFFSET ??_7?$CEncrypt@M@@6B@
  0001a	e8 00 00 00 00	 call	 ??0ccddaabb@@QAE@XZ	; ccddaabb::ccddaabb
  0001f	83 65 fc 00	 and	 DWORD PTR __$EHRec$[ebp+8], 0

; 110  : 	{
; 111  : 		Init();

  00023	8b ce		 mov	 ecx, esi
  00025	e8 00 00 00 00	 call	 ?Init@?$CEncrypt@M@@AAEXXZ ; CEncrypt<float>::Init

; 112  : 	}

  0002a	8b c6		 mov	 eax, esi
  0002c	e8 00 00 00 00	 call	 __EH_epilog3
  00031	c3		 ret	 0
_TEXT	ENDS
;	COMDAT text$x
text$x	SEGMENT
__unwindfunclet$??0?$CEncrypt@M@@QAE@XZ$0:
  00000	8b 4d f0	 mov	 ecx, DWORD PTR _this$[ebp]
  00003	83 c1 0c	 add	 ecx, 12			; 0000000cH
  00006	e9 00 00 00 00	 jmp	 ??1ccddaabb@@UAE@XZ	; ccddaabb::~ccddaabb
__ehhandler$??0?$CEncrypt@M@@QAE@XZ:
  0000b	8b 54 24 08	 mov	 edx, DWORD PTR [esp+8]
  0000f	8d 42 0c	 lea	 eax, DWORD PTR [edx+12]
  00012	8b 4a ec	 mov	 ecx, DWORD PTR [edx-20]
  00015	33 c8		 xor	 ecx, eax
  00017	e8 00 00 00 00	 call	 @__security_check_cookie@4
  0001c	b8 00 00 00 00	 mov	 eax, OFFSET __ehfuncinfo$??0?$CEncrypt@M@@QAE@XZ
  00021	e9 00 00 00 00	 jmp	 ___CxxFrameHandler3
text$x	ENDS
??0?$CEncrypt@M@@QAE@XZ ENDP				; CEncrypt<float>::CEncrypt<float>
PUBLIC	??B?$CEncrypt@M@@QAEMXZ				; CEncrypt<float>::operator float
; Function compile flags: /Ogsp
;	COMDAT ??B?$CEncrypt@M@@QAEMXZ
_TEXT	SEGMENT
_value$ = -4						; size = 4
??B?$CEncrypt@M@@QAEMXZ PROC				; CEncrypt<float>::operator float, COMDAT
; _this$ = ecx

; 134  : 	{

  00000	55		 push	 ebp
  00001	8b ec		 mov	 ebp, esp
  00003	51		 push	 ecx

; 135  : 		type value;
; 136  : 		DecryptValueToPool(&value);

  00004	8d 45 fc	 lea	 eax, DWORD PTR _value$[ebp]
  00007	50		 push	 eax
  00008	e8 00 00 00 00	 call	 ?DecryptValueToPool@?$CEncrypt@M@@QAEXPAM@Z ; CEncrypt<float>::DecryptValueToPool

; 137  : 
; 138  : #ifdef _NOTUSE
; 139  : 		Debug();
; 140  : #endif
; 141  : 		return value;

  0000d	d9 45 fc	 fld	 DWORD PTR _value$[ebp]

; 142  : 	}

  00010	c9		 leave
  00011	c3		 ret	 0
??B?$CEncrypt@M@@QAEMXZ ENDP				; CEncrypt<float>::operator float
_TEXT	ENDS
PUBLIC	??4?$CEncrypt@M@@QAEMM@Z			; CEncrypt<float>::operator=
; Function compile flags: /Ogsp
;	COMDAT ??4?$CEncrypt@M@@QAEMM@Z
_TEXT	SEGMENT
_value$ = 8						; size = 4
_inValue$ = 8						; size = 4
??4?$CEncrypt@M@@QAEMM@Z PROC				; CEncrypt<float>::operator=, COMDAT
; _this$ = ecx

; 1654 : 	{	

  00000	55		 push	 ebp
  00001	8b ec		 mov	 ebp, esp

; 1655 : 		type value = inValue;

  00003	d9 45 08	 fld	 DWORD PTR _inValue$[ebp]

; 1656 : 		EncryptValueToPool((char*)&value);

  00006	8d 45 08	 lea	 eax, DWORD PTR _value$[ebp]
  00009	50		 push	 eax
  0000a	d9 5d 08	 fstp	 DWORD PTR _value$[ebp]
  0000d	e8 00 00 00 00	 call	 ?EncryptValueToPool@?$CEncrypt@M@@AAEXPBD@Z ; CEncrypt<float>::EncryptValueToPool

; 1657 : #ifdef _NOTUSE
; 1658 : 		m_value = inValue;
; 1659 : 		Debug();
; 1660 : #endif
; 1661 : 		return value;

  00012	d9 45 08	 fld	 DWORD PTR _value$[ebp]

; 1662 : 	}

  00015	5d		 pop	 ebp
  00016	c2 04 00	 ret	 4
??4?$CEncrypt@M@@QAEMM@Z ENDP				; CEncrypt<float>::operator=
_TEXT	ENDS
PUBLIC	??O?$CEncrypt@M@@QAE_NABM@Z			; CEncrypt<float>::operator>
; Function compile flags: /Ogsp
;	COMDAT ??O?$CEncrypt@M@@QAE_NABM@Z
_TEXT	SEGMENT
_value$ = -4						; size = 4
_inValue$ = 8						; size = 4
??O?$CEncrypt@M@@QAE_NABM@Z PROC			; CEncrypt<float>::operator>, COMDAT
; _this$ = ecx

; 1811 : 	{

  00000	55		 push	 ebp
  00001	8b ec		 mov	 ebp, esp
  00003	51		 push	 ecx

; 1812 : 		type value;
; 1813 : 		DecryptValueToPool(&value);

  00004	8d 45 fc	 lea	 eax, DWORD PTR _value$[ebp]
  00007	50		 push	 eax
  00008	e8 00 00 00 00	 call	 ?DecryptValueToPool@?$CEncrypt@M@@QAEXPAM@Z ; CEncrypt<float>::DecryptValueToPool

; 1814 : #ifdef _NOTUSE
; 1815 : 		Debug();
; 1816 : #endif
; 1817 : 		return (value > inValue);

  0000d	8b 45 08	 mov	 eax, DWORD PTR _inValue$[ebp]
  00010	f3 0f 10 08	 movss	 xmm1, DWORD PTR [eax]
  00014	f3 0f 10 45 fc	 movss	 xmm0, DWORD PTR _value$[ebp]
  00019	0f 5a c0	 cvtps2pd xmm0, xmm0
  0001c	0f 5a c9	 cvtps2pd xmm1, xmm1
  0001f	33 c0		 xor	 eax, eax
  00021	66 0f 2f c1	 comisd	 xmm0, xmm1
  00025	76 01		 jbe	 SHORT $LN4@operator@3
  00027	40		 inc	 eax
$LN4@operator@3:

; 1818 : 	}		

  00028	c9		 leave
  00029	c2 04 00	 ret	 4
??O?$CEncrypt@M@@QAE_NABM@Z ENDP			; CEncrypt<float>::operator>
_TEXT	ENDS
PUBLIC	??0?$CEncrypt@K@@QAE@XZ				; CEncrypt<unsigned long>::CEncrypt<unsigned long>
;	COMDAT xdata$x
xdata$x	SEGMENT
__unwindtable$??0?$CEncrypt@K@@QAE@XZ DD 0ffffffffH
	DD	FLAT:__unwindfunclet$??0?$CEncrypt@K@@QAE@XZ$0
__ehfuncinfo$??0?$CEncrypt@K@@QAE@XZ DD 019930522H
	DD	01H
	DD	FLAT:__unwindtable$??0?$CEncrypt@K@@QAE@XZ
	DD	2 DUP(00H)
	DD	2 DUP(00H)
	DD	00H
	DD	01H
; Function compile flags: /Ogsp
xdata$x	ENDS
;	COMDAT ??0?$CEncrypt@K@@QAE@XZ
_TEXT	SEGMENT
_this$ = -16						; size = 4
__$EHRec$ = -12						; size = 12
??0?$CEncrypt@K@@QAE@XZ PROC				; CEncrypt<unsigned long>::CEncrypt<unsigned long>, COMDAT
; _this$ = ecx

; 109  : 	CEncrypt()

  00000	6a 04		 push	 4
  00002	b8 00 00 00 00	 mov	 eax, __ehhandler$??0?$CEncrypt@K@@QAE@XZ
  00007	e8 00 00 00 00	 call	 __EH_prolog3
  0000c	8b f1		 mov	 esi, ecx
  0000e	89 75 f0	 mov	 DWORD PTR _this$[ebp], esi
  00011	8d 4e 0c	 lea	 ecx, DWORD PTR [esi+12]
  00014	c7 06 00 00 00
	00		 mov	 DWORD PTR [esi], OFFSET ??_7?$CEncrypt@K@@6B@
  0001a	e8 00 00 00 00	 call	 ??0ccddaabb@@QAE@XZ	; ccddaabb::ccddaabb
  0001f	83 65 fc 00	 and	 DWORD PTR __$EHRec$[ebp+8], 0

; 110  : 	{
; 111  : 		Init();

  00023	8b ce		 mov	 ecx, esi
  00025	e8 00 00 00 00	 call	 ?Init@?$CEncrypt@K@@AAEXXZ ; CEncrypt<unsigned long>::Init

; 112  : 	}

  0002a	8b c6		 mov	 eax, esi
  0002c	e8 00 00 00 00	 call	 __EH_epilog3
  00031	c3		 ret	 0
_TEXT	ENDS
;	COMDAT text$x
text$x	SEGMENT
__unwindfunclet$??0?$CEncrypt@K@@QAE@XZ$0:
  00000	8b 4d f0	 mov	 ecx, DWORD PTR _this$[ebp]
  00003	83 c1 0c	 add	 ecx, 12			; 0000000cH
  00006	e9 00 00 00 00	 jmp	 ??1ccddaabb@@UAE@XZ	; ccddaabb::~ccddaabb
__ehhandler$??0?$CEncrypt@K@@QAE@XZ:
  0000b	8b 54 24 08	 mov	 edx, DWORD PTR [esp+8]
  0000f	8d 42 0c	 lea	 eax, DWORD PTR [edx+12]
  00012	8b 4a ec	 mov	 ecx, DWORD PTR [edx-20]
  00015	33 c8		 xor	 ecx, eax
  00017	e8 00 00 00 00	 call	 @__security_check_cookie@4
  0001c	b8 00 00 00 00	 mov	 eax, OFFSET __ehfuncinfo$??0?$CEncrypt@K@@QAE@XZ
  00021	e9 00 00 00 00	 jmp	 ___CxxFrameHandler3
text$x	ENDS
??0?$CEncrypt@K@@QAE@XZ ENDP				; CEncrypt<unsigned long>::CEncrypt<unsigned long>
PUBLIC	??B?$CEncrypt@K@@QAEKXZ				; CEncrypt<unsigned long>::operator unsigned long
; Function compile flags: /Ogsp
;	COMDAT ??B?$CEncrypt@K@@QAEKXZ
_TEXT	SEGMENT
_value$ = -4						; size = 4
??B?$CEncrypt@K@@QAEKXZ PROC				; CEncrypt<unsigned long>::operator unsigned long, COMDAT
; _this$ = ecx

; 134  : 	{

  00000	55		 push	 ebp
  00001	8b ec		 mov	 ebp, esp
  00003	51		 push	 ecx

; 135  : 		type value;
; 136  : 		DecryptValueToPool(&value);

  00004	8d 45 fc	 lea	 eax, DWORD PTR _value$[ebp]
  00007	50		 push	 eax
  00008	e8 00 00 00 00	 call	 ?DecryptValueToPool@?$CEncrypt@K@@QAEXPAK@Z ; CEncrypt<unsigned long>::DecryptValueToPool

; 137  : 
; 138  : #ifdef _NOTUSE
; 139  : 		Debug();
; 140  : #endif
; 141  : 		return value;

  0000d	8b 45 fc	 mov	 eax, DWORD PTR _value$[ebp]

; 142  : 	}

  00010	c9		 leave
  00011	c3		 ret	 0
??B?$CEncrypt@K@@QAEKXZ ENDP				; CEncrypt<unsigned long>::operator unsigned long
_TEXT	ENDS
PUBLIC	??4?$CEncrypt@K@@QAEKK@Z			; CEncrypt<unsigned long>::operator=
; Function compile flags: /Ogsp
;	COMDAT ??4?$CEncrypt@K@@QAEKK@Z
_TEXT	SEGMENT
_value$ = 8						; size = 4
_inValue$ = 8						; size = 4
??4?$CEncrypt@K@@QAEKK@Z PROC				; CEncrypt<unsigned long>::operator=, COMDAT
; _this$ = ecx

; 1262 : 	{

  00000	55		 push	 ebp
  00001	8b ec		 mov	 ebp, esp

; 1263 : 		
; 1264 : 		type value = inValue;

  00003	8b 45 08	 mov	 eax, DWORD PTR _inValue$[ebp]
  00006	89 45 08	 mov	 DWORD PTR _value$[ebp], eax

; 1265 : 		EncryptValueToPool((char*)&value);

  00009	8d 45 08	 lea	 eax, DWORD PTR _value$[ebp]
  0000c	50		 push	 eax
  0000d	e8 00 00 00 00	 call	 ?EncryptValueToPool@?$CEncrypt@K@@AAEXPBD@Z ; CEncrypt<unsigned long>::EncryptValueToPool

; 1266 : #ifdef _NOTUSE
; 1267 : 		m_value = inValue;
; 1268 : 		Debug();
; 1269 : #endif
; 1270 : 		return value;

  00012	8b 45 08	 mov	 eax, DWORD PTR _value$[ebp]

; 1271 : 	}

  00015	5d		 pop	 ebp
  00016	c2 04 00	 ret	 4
??4?$CEncrypt@K@@QAEKK@Z ENDP				; CEncrypt<unsigned long>::operator=
_TEXT	ENDS
PUBLIC	??0?$CEncrypt@_N@@QAE@XZ			; CEncrypt<bool>::CEncrypt<bool>
;	COMDAT xdata$x
xdata$x	SEGMENT
__unwindtable$??0?$CEncrypt@_N@@QAE@XZ DD 0ffffffffH
	DD	FLAT:__unwindfunclet$??0?$CEncrypt@_N@@QAE@XZ$0
__ehfuncinfo$??0?$CEncrypt@_N@@QAE@XZ DD 019930522H
	DD	01H
	DD	FLAT:__unwindtable$??0?$CEncrypt@_N@@QAE@XZ
	DD	2 DUP(00H)
	DD	2 DUP(00H)
	DD	00H
	DD	01H
; Function compile flags: /Ogsp
xdata$x	ENDS
;	COMDAT ??0?$CEncrypt@_N@@QAE@XZ
_TEXT	SEGMENT
_this$ = -16						; size = 4
__$EHRec$ = -12						; size = 12
??0?$CEncrypt@_N@@QAE@XZ PROC				; CEncrypt<bool>::CEncrypt<bool>, COMDAT
; _this$ = ecx

; 109  : 	CEncrypt()

  00000	6a 04		 push	 4
  00002	b8 00 00 00 00	 mov	 eax, __ehhandler$??0?$CEncrypt@_N@@QAE@XZ
  00007	e8 00 00 00 00	 call	 __EH_prolog3
  0000c	8b f1		 mov	 esi, ecx
  0000e	89 75 f0	 mov	 DWORD PTR _this$[ebp], esi
  00011	8d 4e 0c	 lea	 ecx, DWORD PTR [esi+12]
  00014	c7 06 00 00 00
	00		 mov	 DWORD PTR [esi], OFFSET ??_7?$CEncrypt@_N@@6B@
  0001a	e8 00 00 00 00	 call	 ??0ccddaabb@@QAE@XZ	; ccddaabb::ccddaabb
  0001f	83 65 fc 00	 and	 DWORD PTR __$EHRec$[ebp+8], 0

; 110  : 	{
; 111  : 		Init();

  00023	8b ce		 mov	 ecx, esi
  00025	e8 00 00 00 00	 call	 ?Init@?$CEncrypt@_N@@AAEXXZ ; CEncrypt<bool>::Init

; 112  : 	}

  0002a	8b c6		 mov	 eax, esi
  0002c	e8 00 00 00 00	 call	 __EH_epilog3
  00031	c3		 ret	 0
_TEXT	ENDS
;	COMDAT text$x
text$x	SEGMENT
__unwindfunclet$??0?$CEncrypt@_N@@QAE@XZ$0:
  00000	8b 4d f0	 mov	 ecx, DWORD PTR _this$[ebp]
  00003	83 c1 0c	 add	 ecx, 12			; 0000000cH
  00006	e9 00 00 00 00	 jmp	 ??1ccddaabb@@UAE@XZ	; ccddaabb::~ccddaabb
__ehhandler$??0?$CEncrypt@_N@@QAE@XZ:
  0000b	8b 54 24 08	 mov	 edx, DWORD PTR [esp+8]
  0000f	8d 42 0c	 lea	 eax, DWORD PTR [edx+12]
  00012	8b 4a ec	 mov	 ecx, DWORD PTR [edx-20]
  00015	33 c8		 xor	 ecx, eax
  00017	e8 00 00 00 00	 call	 @__security_check_cookie@4
  0001c	b8 00 00 00 00	 mov	 eax, OFFSET __ehfuncinfo$??0?$CEncrypt@_N@@QAE@XZ
  00021	e9 00 00 00 00	 jmp	 ___CxxFrameHandler3
text$x	ENDS
??0?$CEncrypt@_N@@QAE@XZ ENDP				; CEncrypt<bool>::CEncrypt<bool>
PUBLIC	??B?$CEncrypt@_N@@QAE_NXZ			; CEncrypt<bool>::operator bool
; Function compile flags: /Ogsp
;	COMDAT ??B?$CEncrypt@_N@@QAE_NXZ
_TEXT	SEGMENT
_value$ = -1						; size = 1
??B?$CEncrypt@_N@@QAE_NXZ PROC				; CEncrypt<bool>::operator bool, COMDAT
; _this$ = ecx

; 134  : 	{

  00000	55		 push	 ebp
  00001	8b ec		 mov	 ebp, esp
  00003	51		 push	 ecx

; 135  : 		type value;
; 136  : 		DecryptValueToPool(&value);

  00004	8d 45 ff	 lea	 eax, DWORD PTR _value$[ebp]
  00007	50		 push	 eax
  00008	e8 00 00 00 00	 call	 ?DecryptValueToPool@?$CEncrypt@_N@@QAEXPA_N@Z ; CEncrypt<bool>::DecryptValueToPool

; 137  : 
; 138  : #ifdef _NOTUSE
; 139  : 		Debug();
; 140  : #endif
; 141  : 		return value;

  0000d	8a 45 ff	 mov	 al, BYTE PTR _value$[ebp]

; 142  : 	}

  00010	c9		 leave
  00011	c3		 ret	 0
??B?$CEncrypt@_N@@QAE_NXZ ENDP				; CEncrypt<bool>::operator bool
_TEXT	ENDS
PUBLIC	??4?$CEncrypt@_N@@QAE_N_N@Z			; CEncrypt<bool>::operator=
; Function compile flags: /Ogsp
;	COMDAT ??4?$CEncrypt@_N@@QAE_N_N@Z
_TEXT	SEGMENT
_inValue$ = 8						; size = 1
_value$ = 11						; size = 1
??4?$CEncrypt@_N@@QAE_N_N@Z PROC			; CEncrypt<bool>::operator=, COMDAT
; _this$ = ecx

; 225  : 	{

  00000	55		 push	 ebp
  00001	8b ec		 mov	 ebp, esp

; 226  : 		type value = inValue;

  00003	8a 45 08	 mov	 al, BYTE PTR _inValue$[ebp]
  00006	88 45 0b	 mov	 BYTE PTR _value$[ebp], al

; 227  : 		EncryptValueToPool((char*)&value);

  00009	8d 45 0b	 lea	 eax, DWORD PTR _value$[ebp]
  0000c	50		 push	 eax
  0000d	e8 00 00 00 00	 call	 ?EncryptValueToPool@?$CEncrypt@_N@@AAEXPBD@Z ; CEncrypt<bool>::EncryptValueToPool

; 228  : #ifdef _NOTUSE
; 229  : 		m_value = inValue;
; 230  : 		Debug();
; 231  : #endif
; 232  : 		return value;

  00012	8a 45 0b	 mov	 al, BYTE PTR _value$[ebp]

; 233  : 	}

  00015	5d		 pop	 ebp
  00016	c2 04 00	 ret	 4
??4?$CEncrypt@_N@@QAE_N_N@Z ENDP			; CEncrypt<bool>::operator=
_TEXT	ENDS
PUBLIC	??B?$CEncrypt@W4TeamType@@@@QBE?AW4TeamType@@XZ	; CEncrypt<enum TeamType>::operator enum TeamType
; Function compile flags: /Ogsp
;	COMDAT ??B?$CEncrypt@W4TeamType@@@@QBE?AW4TeamType@@XZ
_TEXT	SEGMENT
_value$ = -4						; size = 4
??B?$CEncrypt@W4TeamType@@@@QBE?AW4TeamType@@XZ PROC	; CEncrypt<enum TeamType>::operator enum TeamType, COMDAT
; _this$ = ecx

; 145  : 	{

  00000	55		 push	 ebp
  00001	8b ec		 mov	 ebp, esp
  00003	51		 push	 ecx

; 146  : 		//UJ 130829, const    --start
; 147  : 		type value;
; 148  : 		CEncrypt<type>* pThis = const_cast<CEncrypt<type>*>(this);
; 149  : 		pThis->DecryptValueToPool(&value);

  00004	8d 45 fc	 lea	 eax, DWORD PTR _value$[ebp]
  00007	50		 push	 eax
  00008	e8 00 00 00 00	 call	 ?DecryptValueToPool@?$CEncrypt@W4TeamType@@@@QAEXPAW4TeamType@@@Z ; CEncrypt<enum TeamType>::DecryptValueToPool

; 150  : 		//// const DecryptValueToPool     .
; 151  :  		//type value;
; 152  : 		//char szTempMem[MAX_ENCRYPT];
; 153  : 		//m_RC5.DecryptByte( m_MemPool, szTempMem, max(m_ValueSize, DEFAULT_ENCRYPT) );
; 154  : 		//memcpy( &value, szTempMem, m_ValueSize );
; 155  : 		//UJ --end
; 156  : 
; 157  : #ifdef _NOTUSE
; 158  : 		Debug();
; 159  : #endif
; 160  : 		return value;

  0000d	8b 45 fc	 mov	 eax, DWORD PTR _value$[ebp]

; 161  : 	}

  00010	c9		 leave
  00011	c3		 ret	 0
??B?$CEncrypt@W4TeamType@@@@QBE?AW4TeamType@@XZ ENDP	; CEncrypt<enum TeamType>::operator enum TeamType
_TEXT	ENDS
PUBLIC	?InitResource@ioTraceWeaponType3@@UAE_NXZ	; ioTraceWeaponType3::InitResource
EXTRN	?InitResource@ioWeapon@@UAE_NXZ:PROC		; ioWeapon::InitResource
; Function compile flags: /Ogsp
; File d:\lost saga for developer\youtube\tutorial\source\src\lsclient\iotraceweapontype3.cpp
;	COMDAT ?InitResource@ioTraceWeaponType3@@UAE_NXZ
_TEXT	SEGMENT
?InitResource@ioTraceWeaponType3@@UAE_NXZ PROC		; ioTraceWeaponType3::InitResource, COMDAT
; _this$ = ecx

; 112  : {

  00000	56		 push	 esi
  00001	8b f1		 mov	 esi, ecx

; 113  : 	if( ioWeapon::InitResource() )

  00003	e8 00 00 00 00	 call	 ?InitResource@ioWeapon@@UAE_NXZ ; ioWeapon::InitResource
  00008	84 c0		 test	 al, al
  0000a	74 25		 je	 SHORT $LN1@InitResour

; 114  : 	{
; 115  : 		DestroyResource();

  0000c	8b 06		 mov	 eax, DWORD PTR [esi]
  0000e	6a 00		 push	 0
  00010	8b ce		 mov	 ecx, esi
  00012	ff 90 9c 00 00
	00		 call	 DWORD PTR [eax+156]

; 116  : 		return CreateFireBall( GetAttribute()->m_WeaponEffect );

  00018	8b 06		 mov	 eax, DWORD PTR [esi]
  0001a	8b ce		 mov	 ecx, esi
  0001c	ff 90 3c 01 00
	00		 call	 DWORD PTR [eax+316]
  00022	05 34 01 00 00	 add	 eax, 308		; 00000134H
  00027	50		 push	 eax
  00028	8b ce		 mov	 ecx, esi
  0002a	e8 00 00 00 00	 call	 ?CreateFireBall@ioTraceWeaponType3@@IAE_NABVioHashString@@@Z ; ioTraceWeaponType3::CreateFireBall
  0002f	5e		 pop	 esi

; 120  : }

  00030	c3		 ret	 0
$LN1@InitResour:

; 117  : 	}
; 118  : 
; 119  : 	return false;

  00031	32 c0		 xor	 al, al
  00033	5e		 pop	 esi

; 120  : }

  00034	c3		 ret	 0
?InitResource@ioTraceWeaponType3@@UAE_NXZ ENDP		; ioTraceWeaponType3::InitResource
_TEXT	ENDS
PUBLIC	_pShapeWorldMat$GSCopy$
PUBLIC	_pStage$GSCopy$
PUBLIC	__$ArrayPad$
PUBLIC	?TestMapCollision@ioTraceWeaponType3@@UAE_NPAVioOpcodeShape@@PAVioPlayStage@@PBUD3DXMATRIX@@@Z ; ioTraceWeaponType3::TestMapCollision
EXTRN	?GetUniqueID@ioMapEffect@@QBEKXZ:PROC		; ioMapEffect::GetUniqueID
EXTRN	?CreateMapEffect@ioPlayStage@@QAEPAVioMapEffect@@ABVioHashString@@ABUD3DXVECTOR3@@1@Z:PROC ; ioPlayStage::CreateMapEffect
EXTRN	?GetOrientation@ioWeapon@@QBEABUD3DXQUATERNION@@XZ:PROC ; ioWeapon::GetOrientation
EXTRN	?GetScale@ioWeapon@@QBEABUD3DXVECTOR3@@XZ:PROC	; ioWeapon::GetScale
; Function compile flags: /Ogsp
;	COMDAT ?TestMapCollision@ioTraceWeaponType3@@UAE_NPAVioOpcodeShape@@PAVioPlayStage@@PBUD3DXMATRIX@@@Z
_TEXT	SEGMENT
_qtRot$531808 = -52					; size = 16
_pShapeWorldMat$GSCopy$ = -36				; size = 4
_pStage$GSCopy$ = -32					; size = 4
_vPos$531806 = -28					; size = 12
_vScale$531807 = -16					; size = 12
__$ArrayPad$ = -4					; size = 4
_pShape$ = 8						; size = 4
_pStage$ = 12						; size = 4
_pShapeWorldMat$ = 16					; size = 4
?TestMapCollision@ioTraceWeaponType3@@UAE_NPAVioOpcodeShape@@PAVioPlayStage@@PBUD3DXMATRIX@@@Z PROC ; ioTraceWeaponType3::TestMapCollision, COMDAT
; _this$ = ecx

; 171  : {

  00000	55		 push	 ebp
  00001	8b ec		 mov	 ebp, esp
  00003	83 ec 34	 sub	 esp, 52			; 00000034H
  00006	a1 00 00 00 00	 mov	 eax, DWORD PTR ___security_cookie
  0000b	33 c5		 xor	 eax, ebp
  0000d	89 45 fc	 mov	 DWORD PTR __$ArrayPad$[ebp], eax

; 198  : 		return true;

  00010	8b 45 0c	 mov	 eax, DWORD PTR _pStage$[ebp]
  00013	53		 push	 ebx
  00014	89 45 e0	 mov	 DWORD PTR _pStage$GSCopy$[ebp], eax
  00017	8b 45 10	 mov	 eax, DWORD PTR _pShapeWorldMat$[ebp]
  0001a	8b d9		 mov	 ebx, ecx
  0001c	89 45 dc	 mov	 DWORD PTR _pShapeWorldMat$GSCopy$[ebp], eax
  0001f	8b 83 94 08 00
	00		 mov	 eax, DWORD PTR [ebx+2196]
  00025	56		 push	 esi
  00026	8b 75 08	 mov	 esi, DWORD PTR _pShape$[ebp]
  00029	57		 push	 edi
  0002a	83 f8 03	 cmp	 eax, 3
  0002d	0f 84 be 00 00
	00		 je	 $LN5@TestMapCol

; 172  : 	//pShape        TRUE
; 173  : 	//     1   N   TestMapCollision()   
; 174  : 
; 175  : 	if( m_State == TS_WAIT_EXPLOSION || m_State == TS_EXPLOSION )

  00033	83 f8 04	 cmp	 eax, 4
  00036	0f 84 b5 00 00
	00		 je	 $LN5@TestMapCol

; 177  : 
; 178  : 	if( pShape->TestIntersection( pShapeWorldMat, GetWorldAttackBox(true) ) )

  0003c	8b 3e		 mov	 edi, DWORD PTR [esi]
  0003e	6a 01		 push	 1
  00040	e8 00 00 00 00	 call	 ?GetWorldAttackBox@ioWeapon@@QBEABVioOrientBox@@_N@Z ; ioWeapon::GetWorldAttackBox
  00045	50		 push	 eax
  00046	ff 75 dc	 push	 DWORD PTR _pShapeWorldMat$GSCopy$[ebp]
  00049	8b ce		 mov	 ecx, esi
  0004b	ff 57 24	 call	 DWORD PTR [edi+36]
  0004e	84 c0		 test	 al, al
  00050	0f 84 ae 00 00
	00		 je	 $LN4@TestMapCol

; 179  : 	{
; 180  : 		if( m_dwDeadWeaponID == -1 && !m_szDeadWeapon.IsEmpty() )

  00056	83 bb 64 0a 00
	00 ff		 cmp	 DWORD PTR [ebx+2660], -1
  0005d	0f 85 82 00 00
	00		 jne	 $LN11@TestMapCol
  00063	8d 8b 54 0a 00
	00		 lea	 ecx, DWORD PTR [ebx+2644]
  00069	ff 15 00 00 00
	00		 call	 DWORD PTR __imp_?IsEmpty@ioHashString@@QBE_NXZ
  0006f	84 c0		 test	 al, al
  00071	75 72		 jne	 SHORT $LN11@TestMapCol

; 181  : 		{
; 182  : 			D3DXVECTOR3		vPos = GetPosition();

  00073	8b 03		 mov	 eax, DWORD PTR [ebx]
  00075	8b cb		 mov	 ecx, ebx
  00077	ff 50 70	 call	 DWORD PTR [eax+112]
  0007a	8b f0		 mov	 esi, eax
  0007c	8d 7d e4	 lea	 edi, DWORD PTR _vPos$531806[ebp]
  0007f	a5		 movsd
  00080	a5		 movsd

; 183  : 			D3DXVECTOR3		vScale = GetScale();

  00081	8b cb		 mov	 ecx, ebx
  00083	a5		 movsd
  00084	e8 00 00 00 00	 call	 ?GetScale@ioWeapon@@QBEABUD3DXVECTOR3@@XZ ; ioWeapon::GetScale
  00089	8b f0		 mov	 esi, eax
  0008b	8d 7d f0	 lea	 edi, DWORD PTR _vScale$531807[ebp]
  0008e	a5		 movsd
  0008f	a5		 movsd

; 184  : 			D3DXQUATERNION	qtRot = GetOrientation();

  00090	8b cb		 mov	 ecx, ebx
  00092	a5		 movsd
  00093	e8 00 00 00 00	 call	 ?GetOrientation@ioWeapon@@QBEABUD3DXQUATERNION@@XZ ; ioWeapon::GetOrientation

; 185  : 			ioMapEffect *pMapEffect = pStage->CreateMapEffect( m_szDeadWeapon, vPos, vScale );

  00098	8b 4d e0	 mov	 ecx, DWORD PTR _pStage$GSCopy$[ebp]
  0009b	8b f0		 mov	 esi, eax
  0009d	8d 7d cc	 lea	 edi, DWORD PTR _qtRot$531808[ebp]
  000a0	a5		 movsd
  000a1	a5		 movsd
  000a2	8d 45 f0	 lea	 eax, DWORD PTR _vScale$531807[ebp]
  000a5	50		 push	 eax
  000a6	8d 45 e4	 lea	 eax, DWORD PTR _vPos$531806[ebp]
  000a9	a5		 movsd
  000aa	50		 push	 eax
  000ab	8d 83 54 0a 00
	00		 lea	 eax, DWORD PTR [ebx+2644]
  000b1	50		 push	 eax
  000b2	a5		 movsd
  000b3	e8 00 00 00 00	 call	 ?CreateMapEffect@ioPlayStage@@QAEPAVioMapEffect@@ABVioHashString@@ABUD3DXVECTOR3@@1@Z ; ioPlayStage::CreateMapEffect
  000b8	8b f0		 mov	 esi, eax

; 186  : 			if( pMapEffect )

  000ba	85 f6		 test	 esi, esi
  000bc	74 27		 je	 SHORT $LN11@TestMapCol

; 187  : 			{
; 188  : 				m_dwDeadWeaponID = pMapEffect->GetUniqueID();

  000be	8b ce		 mov	 ecx, esi
  000c0	e8 00 00 00 00	 call	 ?GetUniqueID@ioMapEffect@@QBEKXZ ; ioMapEffect::GetUniqueID
  000c5	89 83 64 0a 00
	00		 mov	 DWORD PTR [ebx+2660], eax

; 189  : 				ioEffect *pEffect = pMapEffect->GetEffect();

  000cb	8b 76 04	 mov	 esi, DWORD PTR [esi+4]

; 190  : 				if( pEffect )

  000ce	85 f6		 test	 esi, esi
  000d0	74 13		 je	 SHORT $LN11@TestMapCol

; 191  : 				{
; 192  : 					pEffect->GetParentNode()->SetOrientation( qtRot );

  000d2	8d 4e 14	 lea	 ecx, DWORD PTR [esi+20]
  000d5	8b 01		 mov	 eax, DWORD PTR [ecx]
  000d7	ff 50 30	 call	 DWORD PTR [eax+48]
  000da	8b 10		 mov	 edx, DWORD PTR [eax]
  000dc	8d 4d cc	 lea	 ecx, DWORD PTR _qtRot$531808[ebp]
  000df	51		 push	 ecx
  000e0	8b c8		 mov	 ecx, eax
  000e2	ff 52 08	 call	 DWORD PTR [edx+8]
$LN11@TestMapCol:

; 193  : 				}
; 194  : 			}
; 195  : 		}
; 196  : 
; 197  : 		SetExplosionWaitState( pStage, false );

  000e5	6a 00		 push	 0
  000e7	ff 75 e0	 push	 DWORD PTR _pStage$GSCopy$[ebp]
  000ea	8b cb		 mov	 ecx, ebx
  000ec	e8 00 00 00 00	 call	 ?SetExplosionWaitState@ioTraceWeaponType3@@QAEXPAVioPlayStage@@_N@Z ; ioTraceWeaponType3::SetExplosionWaitState
$LN5@TestMapCol:

; 176  : 		return true;

  000f1	b0 01		 mov	 al, 1
$LN7@TestMapCol:

; 202  : }

  000f3	8b 4d fc	 mov	 ecx, DWORD PTR __$ArrayPad$[ebp]
  000f6	5f		 pop	 edi
  000f7	5e		 pop	 esi
  000f8	33 cd		 xor	 ecx, ebp
  000fa	5b		 pop	 ebx
  000fb	e8 00 00 00 00	 call	 @__security_check_cookie@4
  00100	c9		 leave
  00101	c2 0c 00	 ret	 12			; 0000000cH
$LN4@TestMapCol:

; 199  : 	}
; 200  : 
; 201  : 	return false;

  00104	32 c0		 xor	 al, al
  00106	eb eb		 jmp	 SHORT $LN7@TestMapCol
?TestMapCollision@ioTraceWeaponType3@@UAE_NPAVioOpcodeShape@@PAVioPlayStage@@PBUD3DXMATRIX@@@Z ENDP ; ioTraceWeaponType3::TestMapCollision
_TEXT	ENDS
PUBLIC	_this$GSCopy$
PUBLIC	__$ArrayPad$
PUBLIC	?OnTracing@ioTraceWeaponType3@@IAEXPAVioPlayStage@@M@Z ; ioTraceWeaponType3::OnTracing
EXTRN	__imp_?UNIT_X@ioMath@@2UD3DXVECTOR3@@A:BYTE
EXTRN	_D3DXVec3Normalize@8:PROC
EXTRN	?GetMapHeight@ioPlayStage@@QAEMMMPBVioGameEntity@@_NM1@Z:PROC ; ioPlayStage::GetMapHeight
EXTRN	?GetMagicCirclePos@ioBaseGUISupport@@QBE?AUD3DXVECTOR3@@M_N@Z:PROC ; ioBaseGUISupport::GetMagicCirclePos
EXTRN	?CheckMagicCircle@ioBaseGUISupport@@QBE_NXZ:PROC ; ioBaseGUISupport::CheckMagicCircle
; Function compile flags: /Ogsp
;	COMDAT ?OnTracing@ioTraceWeaponType3@@IAEXPAVioPlayStage@@M@Z
_TEXT	SEGMENT
_v$536870 = -232					; size = 12
_vPreDir$531895 = -220					; size = 12
$T531901 = -208						; size = 12
_v$536893 = -196					; size = 12
_v$536936 = -184					; size = 12
_v$536847 = -172					; size = 12
$T531894 = -160						; size = 12
_vCurForce$531896 = -148				; size = 12
tv2249 = -136						; size = 4
tv2241 = -136						; size = 4
tv2135 = -136						; size = 4
_value$536748 = -132					; size = 4
_value$536704 = -132					; size = 4
_this$GSCopy$ = -128					; size = 4
tv2358 = -124						; size = 4
_value$536956 = -124					; size = 4
_value$536776 = -124					; size = 4
_fRangeSq$531876 = -124					; size = 4
tv2328 = -120						; size = 4
_value$536700 = -120					; size = 4
_fTimeGap$531879 = -120					; size = 4
tv2347 = -116						; size = 4
tv2338 = -116						; size = 4
tv2334 = -116						; size = 4
tv2322 = -116						; size = 4
tv2127 = -116						; size = 4
_fGapAngle$531917 = -116				; size = 4
_fCos$531902 = -116					; size = 4
_fCurLoopTimePerSec$531882 = -116			; size = 4
_vAxis$531922 = -112					; size = 12
$T531913 = -100						; size = 12
$T531911 = -88						; size = 12
$T531914 = -76						; size = 12
_vAxis2$531909 = -64					; size = 12
$T531925 = -52						; size = 12
$T531923 = -52						; size = 12
_vAxis1$531908 = -40					; size = 12
_vMagicCirclePosition$531872 = -28			; size = 12
_vDiff$531874 = -16					; size = 12
__$ArrayPad$ = -4					; size = 4
_pStage$ = 8						; size = 4
_fTimePerSec$ = 12					; size = 4
?OnTracing@ioTraceWeaponType3@@IAEXPAVioPlayStage@@M@Z PROC ; ioTraceWeaponType3::OnTracing, COMDAT
; _this$ = ecx

; 319  : {	

  00000	55		 push	 ebp
  00001	8b ec		 mov	 ebp, esp
  00003	81 ec e8 00 00
	00		 sub	 esp, 232		; 000000e8H
  00009	a1 00 00 00 00	 mov	 eax, DWORD PTR ___security_cookie
  0000e	33 c5		 xor	 eax, ebp
  00010	89 45 fc	 mov	 DWORD PTR __$ArrayPad$[ebp], eax
  00013	53		 push	 ebx
  00014	8b d9		 mov	 ebx, ecx
  00016	56		 push	 esi
  00017	8b 75 08	 mov	 esi, DWORD PTR _pStage$[ebp]

; 334  : 			float fCurLoopTimeGap;
; 335  : 			float fCurLoopTimePerSec;
; 336  : 			while( fTimeGap > 0.0f )

  0001a	89 5d 80	 mov	 DWORD PTR _this$GSCopy$[ebp], ebx
  0001d	e8 00 00 00 00	 call	 ?GetOwner@ioWeapon@@QBEPAVioBaseChar@@XZ ; ioWeapon::GetOwner
  00022	85 f6		 test	 esi, esi
  00024	0f 84 db 08 00
	00		 je	 $LN135@OnTracing

; 320  : 	ioBaseChar *pOwner = GetOwner();
; 321  : 	if( pStage && pOwner && pOwner->CheckMagicCircle() )

  0002a	85 c0		 test	 eax, eax
  0002c	0f 84 d3 08 00
	00		 je	 $LN135@OnTracing
  00032	57		 push	 edi
  00033	8d b8 cc 01 00
	00		 lea	 edi, DWORD PTR [eax+460]
  00039	8b cf		 mov	 ecx, edi
  0003b	e8 00 00 00 00	 call	 ?CheckMagicCircle@ioBaseGUISupport@@QBE_NXZ ; ioBaseGUISupport::CheckMagicCircle
  00040	84 c0		 test	 al, al
  00042	0f 84 bc 08 00
	00		 je	 $LN137@OnTracing

; 322  : 	{
; 323  : 		D3DXVECTOR3 vMagicCirclePosition = pOwner->GetMagicCirclePos();

  00048	0f 57 c0	 xorps	 xmm0, xmm0
  0004b	6a 00		 push	 0
  0004d	51		 push	 ecx
  0004e	8d 45 e4	 lea	 eax, DWORD PTR _vMagicCirclePosition$531872[ebp]
  00051	f3 0f 11 04 24	 movss	 DWORD PTR [esp], xmm0
  00056	50		 push	 eax
  00057	8b cf		 mov	 ecx, edi
  00059	e8 00 00 00 00	 call	 ?GetMagicCirclePos@ioBaseGUISupport@@QBE?AUD3DXVECTOR3@@M_N@Z ; ioBaseGUISupport::GetMagicCirclePos

; 324  : 		
; 325  : 		vMagicCirclePosition.y = pStage->GetMapHeight( vMagicCirclePosition.x, vMagicCirclePosition.z, NULL, false );

  0005e	0f 57 c0	 xorps	 xmm0, xmm0
  00061	33 c0		 xor	 eax, eax
  00063	50		 push	 eax
  00064	51		 push	 ecx
  00065	f3 0f 11 04 24	 movss	 DWORD PTR [esp], xmm0
  0006a	f3 0f 10 45 ec	 movss	 xmm0, DWORD PTR _vMagicCirclePosition$531872[ebp+8]
  0006f	50		 push	 eax
  00070	50		 push	 eax
  00071	51		 push	 ecx
  00072	51		 push	 ecx
  00073	f3 0f 11 44 24
	04		 movss	 DWORD PTR [esp+4], xmm0
  00079	f3 0f 10 45 e4	 movss	 xmm0, DWORD PTR _vMagicCirclePosition$531872[ebp]
  0007e	8b ce		 mov	 ecx, esi
  00080	f3 0f 11 04 24	 movss	 DWORD PTR [esp], xmm0
  00085	e8 00 00 00 00	 call	 ?GetMapHeight@ioPlayStage@@QAEMMMPBVioGameEntity@@_NM1@Z ; ioPlayStage::GetMapHeight
  0008a	d9 5d e8	 fstp	 DWORD PTR _vMagicCirclePosition$531872[ebp+4]

; 326  : 
; 327  : 		m_vPrePos = GetPosition();

  0008d	8b 03		 mov	 eax, DWORD PTR [ebx]
  0008f	8b cb		 mov	 ecx, ebx
  00091	ff 50 70	 call	 DWORD PTR [eax+112]

; 328  : 		D3DXVECTOR3 vDiff = vMagicCirclePosition - m_vPrePos;

  00094	f3 0f 10 45 e4	 movss	 xmm0, DWORD PTR _vMagicCirclePosition$531872[ebp]
  00099	8b f0		 mov	 esi, eax
  0009b	8d bb 4c 09 00
	00		 lea	 edi, DWORD PTR [ebx+2380]
  000a1	a5		 movsd
  000a2	a5		 movsd
  000a3	a5		 movsd
  000a4	f3 0f 10 8b 4c
	09 00 00	 movss	 xmm1, DWORD PTR [ebx+2380]
  000ac	f3 0f 10 93 50
	09 00 00	 movss	 xmm2, DWORD PTR [ebx+2384]
  000b4	f3 0f 10 9b 54
	09 00 00	 movss	 xmm3, DWORD PTR [ebx+2388]
  000bc	0f 5a c9	 cvtps2pd xmm1, xmm1
  000bf	0f 5a c0	 cvtps2pd xmm0, xmm0
  000c2	f2 0f 5c c1	 subsd	 xmm0, xmm1
  000c6	f3 0f 10 4d e8	 movss	 xmm1, DWORD PTR _vMagicCirclePosition$531872[ebp+4]
  000cb	0f 5a d2	 cvtps2pd xmm2, xmm2
  000ce	0f 5a c9	 cvtps2pd xmm1, xmm1
  000d1	f2 0f 5c ca	 subsd	 xmm1, xmm2
  000d5	f3 0f 10 55 ec	 movss	 xmm2, DWORD PTR _vMagicCirclePosition$531872[ebp+8]
  000da	66 0f 5a c0	 cvtpd2ps xmm0, xmm0
  000de	f3 0f 11 45 f0	 movss	 DWORD PTR _vDiff$531874[ebp], xmm0
  000e3	66 0f 5a c9	 cvtpd2ps xmm1, xmm1
  000e7	0f 5a d2	 cvtps2pd xmm2, xmm2

; 329  : 
; 330  : 		float fRangeSq = D3DXVec3LengthSq( & vDiff );

  000ea	f3 0f 5a c0	 cvtss2sd xmm0, xmm0
  000ee	f3 0f 11 4d f4	 movss	 DWORD PTR _vDiff$531874[ebp+4], xmm1
  000f3	f2 0f 59 c0	 mulsd	 xmm0, xmm0
  000f7	0f 5a db	 cvtps2pd xmm3, xmm3
  000fa	f2 0f 5c d3	 subsd	 xmm2, xmm3
  000fe	66 0f 5a d2	 cvtpd2ps xmm2, xmm2
  00102	f3 0f 5a c9	 cvtss2sd xmm1, xmm1
  00106	f3 0f 11 55 f8	 movss	 DWORD PTR _vDiff$531874[ebp+8], xmm2
  0010b	f2 0f 59 c9	 mulsd	 xmm1, xmm1
  0010f	f3 0f 5a d2	 cvtss2sd xmm2, xmm2
  00113	f2 0f 58 c8	 addsd	 xmm1, xmm0
  00117	f2 0f 59 d2	 mulsd	 xmm2, xmm2

; 331  : 		if( fRangeSq < m_fTraceRange * m_fTraceRange )

  0011b	8d 45 88	 lea	 eax, DWORD PTR _value$536700[ebp]
  0011e	f2 0f 58 ca	 addsd	 xmm1, xmm2
  00122	66 0f 5a c1	 cvtpd2ps xmm0, xmm1
  00126	50		 push	 eax
  00127	8d 8b ec 08 00
	00		 lea	 ecx, DWORD PTR [ebx+2284]
  0012d	f3 0f 11 45 84	 movss	 DWORD PTR _fRangeSq$531876[ebp], xmm0
  00132	e8 00 00 00 00	 call	 ?DecryptValueToPool@?$CEncrypt@M@@QAEXPAM@Z ; CEncrypt<float>::DecryptValueToPool
  00137	8d 85 7c ff ff
	ff		 lea	 eax, DWORD PTR _value$536704[ebp]
  0013d	50		 push	 eax
  0013e	8d 8b ec 08 00
	00		 lea	 ecx, DWORD PTR [ebx+2284]
  00144	e8 00 00 00 00	 call	 ?DecryptValueToPool@?$CEncrypt@M@@QAEXPAM@Z ; CEncrypt<float>::DecryptValueToPool
  00149	f3 0f 10 8d 7c
	ff ff ff	 movss	 xmm1, DWORD PTR _value$536704[ebp]
  00151	f3 0f 10 55 88	 movss	 xmm2, DWORD PTR _value$536700[ebp]
  00156	f3 0f 10 45 84	 movss	 xmm0, DWORD PTR _fRangeSq$531876[ebp]
  0015b	0f 5a c9	 cvtps2pd xmm1, xmm1
  0015e	0f 5a d2	 cvtps2pd xmm2, xmm2
  00161	f2 0f 59 ca	 mulsd	 xmm1, xmm2
  00165	66 0f 5a c9	 cvtpd2ps xmm1, xmm1
  00169	0f 5a c0	 cvtps2pd xmm0, xmm0
  0016c	f3 0f 5a c9	 cvtss2sd xmm1, xmm1
  00170	66 0f 2f c8	 comisd	 xmm1, xmm0
  00174	0f 86 8a 07 00
	00		 jbe	 $LN137@OnTracing

; 332  : 		{
; 333  : 			float fTimeGap = fTimePerSec * FLOAT1000;

  0017a	b8 e8 03 00 00	 mov	 eax, 1000		; 000003e8H
  0017f	89 45 84	 mov	 DWORD PTR tv2358[ebp], eax
  00182	db 45 84	 fild	 DWORD PTR tv2358[ebp]
  00185	85 c0		 test	 eax, eax
  00187	79 06		 jns	 SHORT $LN138@OnTracing
  00189	d8 05 00 00 00
	00		 fadd	 DWORD PTR __real@4f800000
$LN138@OnTracing:
  0018f	d8 4d 0c	 fmul	 DWORD PTR _fTimePerSec$[ebp]
  00192	d9 5d 88	 fstp	 DWORD PTR _fTimeGap$531879[ebp]

; 334  : 			float fCurLoopTimeGap;
; 335  : 			float fCurLoopTimePerSec;
; 336  : 			while( fTimeGap > 0.0f )

  00195	d9 ee		 fldz
  00197	d9 45 88	 fld	 DWORD PTR _fTimeGap$531879[ebp]
  0019a	df f1		 fcomip	 ST(1)
  0019c	dd d8		 fstp	 ST(0)
  0019e	0f 86 60 07 00
	00		 jbe	 $LN137@OnTracing
  001a4	81 c3 58 09 00
	00		 add	 ebx, 2392		; 00000958H
$LL10@OnTracing:

; 337  : 			{
; 338  : 				if( fTimeGap > FLOAT10 )

  001aa	b8 0a 00 00 00	 mov	 eax, 10			; 0000000aH
  001af	d9 45 88	 fld	 DWORD PTR _fTimeGap$531879[ebp]
  001b2	89 45 8c	 mov	 DWORD PTR tv2347[ebp], eax
  001b5	db 45 8c	 fild	 DWORD PTR tv2347[ebp]
  001b8	85 c0		 test	 eax, eax
  001ba	79 06		 jns	 SHORT $LN139@OnTracing
  001bc	d8 05 00 00 00
	00		 fadd	 DWORD PTR __real@4f800000
$LN139@OnTracing:
  001c2	d9 c9		 fxch	 ST(1)
  001c4	df f1		 fcomip	 ST(1)
  001c6	dd d8		 fstp	 ST(0)
  001c8	76 55		 jbe	 SHORT $LN8@OnTracing

; 339  : 				{
; 340  : 					fCurLoopTimeGap = FLOAT10;

  001ca	b8 0a 00 00 00	 mov	 eax, 10			; 0000000aH

; 341  : 					fCurLoopTimePerSec = FLOAT10 / FLOAT1000;

  001cf	b8 0a 00 00 00	 mov	 eax, 10			; 0000000aH
  001d4	8b c8		 mov	 ecx, eax
  001d6	b8 e8 03 00 00	 mov	 eax, 1000		; 000003e8H
  001db	89 4d 8c	 mov	 DWORD PTR tv2338[ebp], ecx
  001de	db 45 8c	 fild	 DWORD PTR tv2338[ebp]
  001e1	85 c9		 test	 ecx, ecx
  001e3	79 06		 jns	 SHORT $LN140@OnTracing
  001e5	d8 05 00 00 00
	00		 fadd	 DWORD PTR __real@4f800000
$LN140@OnTracing:
  001eb	89 45 8c	 mov	 DWORD PTR tv2334[ebp], eax
  001ee	db 45 8c	 fild	 DWORD PTR tv2334[ebp]
  001f1	85 c0		 test	 eax, eax
  001f3	79 06		 jns	 SHORT $LN141@OnTracing
  001f5	d8 05 00 00 00
	00		 fadd	 DWORD PTR __real@4f800000
$LN141@OnTracing:
  001fb	de f9		 fdivp	 ST(1), ST(0)
  001fd	d9 5d 8c	 fstp	 DWORD PTR _fCurLoopTimePerSec$531882[ebp]

; 342  : 
; 343  : 					fTimeGap -= FLOAT10;

  00200	b8 0a 00 00 00	 mov	 eax, 10			; 0000000aH
  00205	d9 45 88	 fld	 DWORD PTR _fTimeGap$531879[ebp]
  00208	89 45 88	 mov	 DWORD PTR tv2328[ebp], eax
  0020b	db 45 88	 fild	 DWORD PTR tv2328[ebp]
  0020e	85 c0		 test	 eax, eax
  00210	79 06		 jns	 SHORT $LN142@OnTracing
  00212	d8 05 00 00 00
	00		 fadd	 DWORD PTR __real@4f800000
$LN142@OnTracing:
  00218	de e9		 fsubp	 ST(1), ST(0)
  0021a	d9 5d 88	 fstp	 DWORD PTR _fTimeGap$531879[ebp]

; 344  : 				}
; 345  : 				else

  0021d	eb 25		 jmp	 SHORT $LN7@OnTracing
$LN8@OnTracing:

; 346  : 				{
; 347  : 					fCurLoopTimeGap = fTimeGap;
; 348  : 					fCurLoopTimePerSec = fTimeGap / FLOAT1000;

  0021f	b8 e8 03 00 00	 mov	 eax, 1000		; 000003e8H
  00224	d9 45 88	 fld	 DWORD PTR _fTimeGap$531879[ebp]
  00227	89 45 8c	 mov	 DWORD PTR tv2322[ebp], eax
  0022a	db 45 8c	 fild	 DWORD PTR tv2322[ebp]
  0022d	85 c0		 test	 eax, eax
  0022f	79 06		 jns	 SHORT $LN143@OnTracing
  00231	d8 05 00 00 00
	00		 fadd	 DWORD PTR __real@4f800000
$LN143@OnTracing:
  00237	de f9		 fdivp	 ST(1), ST(0)

; 349  : 
; 350  : 					fTimeGap = 0.0f;

  00239	0f 57 c0	 xorps	 xmm0, xmm0
  0023c	f3 0f 11 45 88	 movss	 DWORD PTR _fTimeGap$531879[ebp], xmm0
  00241	d9 5d 8c	 fstp	 DWORD PTR _fCurLoopTimePerSec$531882[ebp]
$LN7@OnTracing:

; 351  : 				}
; 352  : 
; 353  : 				vDiff = vMagicCirclePosition - GetPosition();

  00244	8b 4d 80	 mov	 ecx, DWORD PTR _this$GSCopy$[ebp]
  00247	8b 01		 mov	 eax, DWORD PTR [ecx]
  00249	ff 50 70	 call	 DWORD PTR [eax+112]
  0024c	f3 0f 10 08	 movss	 xmm1, DWORD PTR [eax]
  00250	f3 0f 10 45 e4	 movss	 xmm0, DWORD PTR _vMagicCirclePosition$531872[ebp]
  00255	0f 5a c0	 cvtps2pd xmm0, xmm0
  00258	0f 5a c9	 cvtps2pd xmm1, xmm1
  0025b	f2 0f 5c c1	 subsd	 xmm0, xmm1
  0025f	f3 0f 10 48 04	 movss	 xmm1, DWORD PTR [eax+4]
  00264	66 0f 5a c0	 cvtpd2ps xmm0, xmm0
  00268	f3 0f 11 85 60
	ff ff ff	 movss	 DWORD PTR $T531894[ebp], xmm0
  00270	f3 0f 10 45 e8	 movss	 xmm0, DWORD PTR _vMagicCirclePosition$531872[ebp+4]
  00275	0f 5a c0	 cvtps2pd xmm0, xmm0
  00278	0f 5a c9	 cvtps2pd xmm1, xmm1
  0027b	f2 0f 5c c1	 subsd	 xmm0, xmm1
  0027f	f3 0f 10 48 08	 movss	 xmm1, DWORD PTR [eax+8]
  00284	66 0f 5a c0	 cvtpd2ps xmm0, xmm0
  00288	f3 0f 11 85 64
	ff ff ff	 movss	 DWORD PTR $T531894[ebp+4], xmm0
  00290	f3 0f 10 45 ec	 movss	 xmm0, DWORD PTR _vMagicCirclePosition$531872[ebp+8]
  00295	0f 5a c0	 cvtps2pd xmm0, xmm0
  00298	0f 5a c9	 cvtps2pd xmm1, xmm1
  0029b	f2 0f 5c c1	 subsd	 xmm0, xmm1
  0029f	66 0f 5a c0	 cvtpd2ps xmm0, xmm0
  002a3	f3 0f 11 85 68
	ff ff ff	 movss	 DWORD PTR $T531894[ebp+8], xmm0
  002ab	8d b5 60 ff ff
	ff		 lea	 esi, DWORD PTR $T531894[ebp]
  002b1	8d 7d f0	 lea	 edi, DWORD PTR _vDiff$531874[ebp]
  002b4	a5		 movsd

; 354  : 				D3DXVec3Normalize( &vDiff, &vDiff );

  002b5	8d 45 f0	 lea	 eax, DWORD PTR _vDiff$531874[ebp]
  002b8	a5		 movsd
  002b9	50		 push	 eax
  002ba	50		 push	 eax
  002bb	a5		 movsd
  002bc	e8 00 00 00 00	 call	 _D3DXVec3Normalize@8

; 355  : 
; 356  : 				D3DXVECTOR3 vPreDir = m_vMoveDir;

  002c1	8b f3		 mov	 esi, ebx
  002c3	8d bd 24 ff ff
	ff		 lea	 edi, DWORD PTR _vPreDir$531895[ebp]
  002c9	a5		 movsd
  002ca	a5		 movsd
  002cb	a5		 movsd

; 357  : 				D3DXVECTOR3 vCurForce = m_vMoveDir * m_fTraceSpeed * fCurLoopTimePerSec;

  002cc	8b 75 80	 mov	 esi, DWORD PTR _this$GSCopy$[ebp]
  002cf	8d 85 7c ff ff
	ff		 lea	 eax, DWORD PTR _value$536748[ebp]
  002d5	50		 push	 eax
  002d6	8d 8e bc 08 00
	00		 lea	 ecx, DWORD PTR [esi+2236]
  002dc	e8 00 00 00 00	 call	 ?DecryptValueToPool@?$CEncrypt@M@@QAEXPAM@Z ; CEncrypt<float>::DecryptValueToPool
  002e1	f3 0f 10 03	 movss	 xmm0, DWORD PTR [ebx]
  002e5	f3 0f 10 8d 7c
	ff ff ff	 movss	 xmm1, DWORD PTR _value$536748[ebp]
  002ed	f3 0f 10 53 04	 movss	 xmm2, DWORD PTR [ebx+4]
  002f2	f3 0f 10 5b 08	 movss	 xmm3, DWORD PTR [ebx+8]
  002f7	0f 5a c0	 cvtps2pd xmm0, xmm0
  002fa	0f 5a c9	 cvtps2pd xmm1, xmm1
  002fd	f2 0f 59 c1	 mulsd	 xmm0, xmm1
  00301	f3 0f 10 8d 7c
	ff ff ff	 movss	 xmm1, DWORD PTR _value$536748[ebp]
  00309	66 0f 5a c0	 cvtpd2ps xmm0, xmm0
  0030d	0f 5a c9	 cvtps2pd xmm1, xmm1
  00310	0f 5a d2	 cvtps2pd xmm2, xmm2
  00313	f2 0f 59 ca	 mulsd	 xmm1, xmm2
  00317	f3 0f 10 95 7c
	ff ff ff	 movss	 xmm2, DWORD PTR _value$536748[ebp]
  0031f	f3 0f 5a c0	 cvtss2sd xmm0, xmm0
  00323	0f 5a db	 cvtps2pd xmm3, xmm3
  00326	0f 5a d2	 cvtps2pd xmm2, xmm2
  00329	f2 0f 59 d3	 mulsd	 xmm2, xmm3
  0032d	f3 0f 10 5d 8c	 movss	 xmm3, DWORD PTR _fCurLoopTimePerSec$531882[ebp]
  00332	f2 0f 5a c9	 cvtsd2ss xmm1, xmm1
  00336	0f 5a db	 cvtps2pd xmm3, xmm3
  00339	f2 0f 59 c3	 mulsd	 xmm0, xmm3
  0033d	66 0f 5a c0	 cvtpd2ps xmm0, xmm0
  00341	f3 0f 11 85 6c
	ff ff ff	 movss	 DWORD PTR _vCurForce$531896[ebp], xmm0
  00349	0f 57 c0	 xorps	 xmm0, xmm0
  0034c	f3 0f 5a c1	 cvtss2sd xmm0, xmm1
  00350	f3 0f 10 4d 8c	 movss	 xmm1, DWORD PTR _fCurLoopTimePerSec$531882[ebp]
  00355	0f 5a c9	 cvtps2pd xmm1, xmm1
  00358	f2 0f 59 c1	 mulsd	 xmm0, xmm1
  0035c	f3 0f 10 4d 8c	 movss	 xmm1, DWORD PTR _fCurLoopTimePerSec$531882[ebp]
  00361	66 0f 5a c0	 cvtpd2ps xmm0, xmm0
  00365	f3 0f 11 85 70
	ff ff ff	 movss	 DWORD PTR _vCurForce$531896[ebp+4], xmm0
  0036d	0f 57 c0	 xorps	 xmm0, xmm0
  00370	f2 0f 5a d2	 cvtsd2ss xmm2, xmm2
  00374	f3 0f 5a c2	 cvtss2sd xmm0, xmm2
  00378	0f 5a c9	 cvtps2pd xmm1, xmm1
  0037b	f2 0f 59 c1	 mulsd	 xmm0, xmm1
  0037f	66 0f 5a c0	 cvtpd2ps xmm0, xmm0
  00383	f3 0f 11 85 74
	ff ff ff	 movss	 DWORD PTR _vCurForce$531896[ebp+8], xmm0

; 358  : 				m_vMoveDir = vCurForce + (vDiff * m_fTraceRotSpeed * fCurLoopTimePerSec);

  0038b	8d 45 84	 lea	 eax, DWORD PTR _value$536776[ebp]
  0038e	50		 push	 eax
  0038f	8d 8e 1c 09 00
	00		 lea	 ecx, DWORD PTR [esi+2332]
  00395	e8 00 00 00 00	 call	 ?DecryptValueToPool@?$CEncrypt@M@@QAEXPAM@Z ; CEncrypt<float>::DecryptValueToPool
  0039a	f3 0f 10 45 84	 movss	 xmm0, DWORD PTR _value$536776[ebp]
  0039f	f3 0f 10 4d f0	 movss	 xmm1, DWORD PTR _vDiff$531874[ebp]
  003a4	f3 0f 10 55 84	 movss	 xmm2, DWORD PTR _value$536776[ebp]
  003a9	f3 0f 10 5d 84	 movss	 xmm3, DWORD PTR _value$536776[ebp]
  003ae	0f 5a c0	 cvtps2pd xmm0, xmm0
  003b1	0f 5a c9	 cvtps2pd xmm1, xmm1
  003b4	f2 0f 59 c1	 mulsd	 xmm0, xmm1
  003b8	f3 0f 10 4d f4	 movss	 xmm1, DWORD PTR _vDiff$531874[ebp+4]
  003bd	f2 0f 5a c0	 cvtsd2ss xmm0, xmm0
  003c1	0f 5a c9	 cvtps2pd xmm1, xmm1
  003c4	0f 5a d2	 cvtps2pd xmm2, xmm2
  003c7	f2 0f 59 ca	 mulsd	 xmm1, xmm2
  003cb	f3 0f 10 55 f8	 movss	 xmm2, DWORD PTR _vDiff$531874[ebp+8]
  003d0	f3 0f 5a c0	 cvtss2sd xmm0, xmm0
  003d4	0f 5a db	 cvtps2pd xmm3, xmm3
  003d7	0f 5a d2	 cvtps2pd xmm2, xmm2
  003da	f2 0f 59 d3	 mulsd	 xmm2, xmm3
  003de	f3 0f 10 5d 8c	 movss	 xmm3, DWORD PTR _fCurLoopTimePerSec$531882[ebp]
  003e3	0f 5a db	 cvtps2pd xmm3, xmm3
  003e6	f2 0f 59 c3	 mulsd	 xmm0, xmm3
  003ea	f3 0f 10 5d 8c	 movss	 xmm3, DWORD PTR _fCurLoopTimePerSec$531882[ebp]
  003ef	66 0f 5a c9	 cvtpd2ps xmm1, xmm1
  003f3	f2 0f 5a c0	 cvtsd2ss xmm0, xmm0
  003f7	f3 0f 5a c9	 cvtss2sd xmm1, xmm1
  003fb	0f 5a db	 cvtps2pd xmm3, xmm3
  003fe	f2 0f 59 cb	 mulsd	 xmm1, xmm3
  00402	f3 0f 10 5d 8c	 movss	 xmm3, DWORD PTR _fCurLoopTimePerSec$531882[ebp]
  00407	f3 0f 5a c0	 cvtss2sd xmm0, xmm0
  0040b	66 0f 5a d2	 cvtpd2ps xmm2, xmm2
  0040f	0f 5a db	 cvtps2pd xmm3, xmm3
  00412	f3 0f 5a d2	 cvtss2sd xmm2, xmm2
  00416	f2 0f 59 d3	 mulsd	 xmm2, xmm3
  0041a	f3 0f 10 9d 6c
	ff ff ff	 movss	 xmm3, DWORD PTR _vCurForce$531896[ebp]
  00422	66 0f 5a c9	 cvtpd2ps xmm1, xmm1
  00426	0f 5a db	 cvtps2pd xmm3, xmm3
  00429	f2 0f 58 c3	 addsd	 xmm0, xmm3
  0042d	f2 0f 5a c0	 cvtsd2ss xmm0, xmm0
  00431	f3 0f 11 85 30
	ff ff ff	 movss	 DWORD PTR $T531901[ebp], xmm0
  00439	0f 57 c0	 xorps	 xmm0, xmm0
  0043c	f3 0f 5a c1	 cvtss2sd xmm0, xmm1
  00440	f3 0f 10 8d 70
	ff ff ff	 movss	 xmm1, DWORD PTR _vCurForce$531896[ebp+4]
  00448	0f 5a c9	 cvtps2pd xmm1, xmm1
  0044b	f2 0f 58 c1	 addsd	 xmm0, xmm1
  0044f	f3 0f 10 8d 74
	ff ff ff	 movss	 xmm1, DWORD PTR _vCurForce$531896[ebp+8]
  00457	66 0f 5a c0	 cvtpd2ps xmm0, xmm0
  0045b	f3 0f 11 85 34
	ff ff ff	 movss	 DWORD PTR $T531901[ebp+4], xmm0
  00463	0f 57 c0	 xorps	 xmm0, xmm0
  00466	66 0f 5a d2	 cvtpd2ps xmm2, xmm2
  0046a	f3 0f 5a c2	 cvtss2sd xmm0, xmm2
  0046e	0f 5a c9	 cvtps2pd xmm1, xmm1
  00471	f2 0f 58 c1	 addsd	 xmm0, xmm1
  00475	66 0f 5a c0	 cvtpd2ps xmm0, xmm0
  00479	f3 0f 11 85 38
	ff ff ff	 movss	 DWORD PTR $T531901[ebp+8], xmm0
  00481	8d b5 30 ff ff
	ff		 lea	 esi, DWORD PTR $T531901[ebp]
  00487	8b fb		 mov	 edi, ebx
  00489	a5		 movsd
  0048a	a5		 movsd

; 359  : 
; 360  : 				D3DXVec3Normalize( &m_vMoveDir, &m_vMoveDir );

  0048b	53		 push	 ebx
  0048c	53		 push	 ebx
  0048d	a5		 movsd
  0048e	e8 00 00 00 00	 call	 _D3DXVec3Normalize@8

; 361  : 
; 362  : 				float fCos = D3DXVec3Dot( &vPreDir, &m_vMoveDir );

  00493	d9 85 28 ff ff
	ff		 fld	 DWORD PTR _vPreDir$531895[ebp+4]
  00499	d8 4b 04	 fmul	 DWORD PTR [ebx+4]
  0049c	d9 03		 fld	 DWORD PTR [ebx]
  0049e	d8 8d 24 ff ff
	ff		 fmul	 DWORD PTR _vPreDir$531895[ebp]
  004a4	de c1		 faddp	 ST(1), ST(0)
  004a6	d9 85 2c ff ff
	ff		 fld	 DWORD PTR _vPreDir$531895[ebp+8]
  004ac	d8 4b 08	 fmul	 DWORD PTR [ebx+8]
  004af	de c1		 faddp	 ST(1), ST(0)
  004b1	d9 5d 8c	 fstp	 DWORD PTR _fCos$531902[ebp]

; 363  : 				// 0 
; 364  : 				if( fCos >= FLOAT1 )

  004b4	b8 01 00 00 00	 mov	 eax, 1
  004b9	d9 45 8c	 fld	 DWORD PTR _fCos$531902[ebp]
  004bc	89 85 78 ff ff
	ff		 mov	 DWORD PTR tv2249[ebp], eax
  004c2	db 85 78 ff ff
	ff		 fild	 DWORD PTR tv2249[ebp]
  004c8	85 c0		 test	 eax, eax
  004ca	79 06		 jns	 SHORT $LN144@OnTracing
  004cc	d8 05 00 00 00
	00		 fadd	 DWORD PTR __real@4f800000
$LN144@OnTracing:
  004d2	d9 c9		 fxch	 ST(1)
  004d4	df f1		 fcomip	 ST(1)
  004d6	dd d8		 fstp	 ST(0)
  004d8	0f 83 11 04 00
	00		 jae	 $LN1@OnTracing

; 365  : 				{
; 366  : 					//  
; 367  : 				}
; 368  : 				else if( fCos <= -FLOAT1 ) // 180 

  004de	b8 01 00 00 00	 mov	 eax, 1
  004e3	d9 45 8c	 fld	 DWORD PTR _fCos$531902[ebp]
  004e6	89 85 78 ff ff
	ff		 mov	 DWORD PTR tv2241[ebp], eax
  004ec	db 85 78 ff ff
	ff		 fild	 DWORD PTR tv2241[ebp]
  004f2	85 c0		 test	 eax, eax
  004f4	79 06		 jns	 SHORT $LN145@OnTracing
  004f6	d8 05 00 00 00
	00		 fadd	 DWORD PTR __real@4f800000
$LN145@OnTracing:
  004fc	d9 e0		 fchs
  004fe	df f1		 fcomip	 ST(1)
  00500	dd d8		 fstp	 ST(0)
  00502	0f 82 dc 02 00
	00		 jb	 $LN4@OnTracing

; 369  : 				{
; 370  : 					D3DXVECTOR3 vAxis1, vAxis2;
; 371  : 					if( m_vMoveDir != ioMath::UNIT_Y )

  00508	8b 0d 00 00 00
	00		 mov	 ecx, DWORD PTR __imp_?UNIT_Y@ioMath@@2UD3DXVECTOR3@@A
  0050e	f3 0f 10 33	 movss	 xmm6, DWORD PTR [ebx]
  00512	f3 0f 10 01	 movss	 xmm0, DWORD PTR [ecx]
  00516	0f 57 c9	 xorps	 xmm1, xmm1
  00519	0f 5a ce	 cvtps2pd xmm1, xmm6
  0051c	0f 5a c0	 cvtps2pd xmm0, xmm0
  0051f	66 0f 2e c8	 ucomisd xmm1, xmm0
  00523	9f		 lahf
  00524	f6 c4 44	 test	 ah, 68			; 00000044H
  00527	7a 38		 jp	 SHORT $LN79@OnTracing
  00529	f3 0f 10 43 04	 movss	 xmm0, DWORD PTR [ebx+4]
  0052e	f3 0f 10 49 04	 movss	 xmm1, DWORD PTR [ecx+4]
  00533	0f 5a c0	 cvtps2pd xmm0, xmm0
  00536	0f 5a c9	 cvtps2pd xmm1, xmm1
  00539	66 0f 2e c1	 ucomisd xmm0, xmm1
  0053d	9f		 lahf
  0053e	f6 c4 44	 test	 ah, 68			; 00000044H
  00541	7a 1e		 jp	 SHORT $LN79@OnTracing
  00543	f3 0f 10 43 08	 movss	 xmm0, DWORD PTR [ebx+8]
  00548	f3 0f 10 49 08	 movss	 xmm1, DWORD PTR [ecx+8]
  0054d	0f 5a c0	 cvtps2pd xmm0, xmm0
  00550	0f 5a c9	 cvtps2pd xmm1, xmm1
  00553	66 0f 2e c1	 ucomisd xmm0, xmm1
  00557	9f		 lahf
  00558	f6 c4 44	 test	 ah, 68			; 00000044H
  0055b	0f 8b b5 00 00
	00		 jnp	 $LN3@OnTracing
$LN79@OnTracing:

; 372  : 					{
; 373  : 						D3DXVec3Cross( &vAxis1, &m_vMoveDir, &ioMath::UNIT_Y );

  00561	f3 0f 10 43 04	 movss	 xmm0, DWORD PTR [ebx+4]
  00566	f3 0f 10 5b 08	 movss	 xmm3, DWORD PTR [ebx+8]
  0056b	f3 0f 10 51 08	 movss	 xmm2, DWORD PTR [ecx+8]
  00570	f3 0f 10 61 04	 movss	 xmm4, DWORD PTR [ecx+4]
  00575	0f 5a fb	 cvtps2pd xmm7, xmm3
  00578	0f 5a e8	 cvtps2pd xmm5, xmm0
  0057b	0f 5a ca	 cvtps2pd xmm1, xmm2
  0057e	0f 5a db	 cvtps2pd xmm3, xmm3
  00581	f2 0f 59 cd	 mulsd	 xmm1, xmm5
  00585	0f 5a d2	 cvtps2pd xmm2, xmm2
  00588	0f 5a c0	 cvtps2pd xmm0, xmm0
  0058b	0f 5a ec	 cvtps2pd xmm5, xmm4
  0058e	f2 0f 59 ef	 mulsd	 xmm5, xmm7
  00592	f2 0f 5c cd	 subsd	 xmm1, xmm5
  00596	f3 0f 10 29	 movss	 xmm5, DWORD PTR [ecx]
  0059a	0f 5a fd	 cvtps2pd xmm7, xmm5
  0059d	f2 0f 59 fb	 mulsd	 xmm7, xmm3
  005a1	0f 5a de	 cvtps2pd xmm3, xmm6
  005a4	f2 0f 59 d3	 mulsd	 xmm2, xmm3
  005a8	f2 0f 5c fa	 subsd	 xmm7, xmm2
  005ac	0f 57 d2	 xorps	 xmm2, xmm2
  005af	66 0f 5a c9	 cvtpd2ps xmm1, xmm1
  005b3	66 0f 5a d7	 cvtpd2ps xmm2, xmm7
  005b7	0f 5a dc	 cvtps2pd xmm3, xmm4
  005ba	0f 5a e6	 cvtps2pd xmm4, xmm6
  005bd	f2 0f 59 dc	 mulsd	 xmm3, xmm4
  005c1	f3 0f 11 8d 54
	ff ff ff	 movss	 DWORD PTR _v$536847[ebp], xmm1
  005c9	f3 0f 11 95 58
	ff ff ff	 movss	 DWORD PTR _v$536847[ebp+4], xmm2
  005d1	8d b5 54 ff ff
	ff		 lea	 esi, DWORD PTR _v$536847[ebp]

; 374  : 						D3DXVec3Normalize( &vAxis1, &-vAxis1 );

  005d7	8d 45 a8	 lea	 eax, DWORD PTR $T531911[ebp]
  005da	0f 5a e5	 cvtps2pd xmm4, xmm5
  005dd	f2 0f 59 e0	 mulsd	 xmm4, xmm0
  005e1	f3 0f 10 05 00
	00 00 00	 movss	 xmm0, DWORD PTR __mask@@NegFloat@
  005e9	f2 0f 5c dc	 subsd	 xmm3, xmm4
  005ed	66 0f 5a db	 cvtpd2ps xmm3, xmm3
  005f1	f3 0f 11 9d 5c
	ff ff ff	 movss	 DWORD PTR _v$536847[ebp+8], xmm3
  005f9	0f 57 c8	 xorps	 xmm1, xmm0
  005fc	0f 57 d0	 xorps	 xmm2, xmm0
  005ff	0f 57 d8	 xorps	 xmm3, xmm0
  00602	f3 0f 11 4d a8	 movss	 DWORD PTR $T531911[ebp], xmm1
  00607	f3 0f 11 55 ac	 movss	 DWORD PTR $T531911[ebp+4], xmm2
  0060c	f3 0f 11 5d b0	 movss	 DWORD PTR $T531911[ebp+8], xmm3

; 375  : 					}
; 376  : 					else

  00611	e9 b5 00 00 00	 jmp	 $LN147@OnTracing
$LN3@OnTracing:

; 377  : 					{
; 378  : 						D3DXVec3Cross( &vAxis1, &m_vMoveDir, &ioMath::UNIT_X );

  00616	f3 0f 10 43 04	 movss	 xmm0, DWORD PTR [ebx+4]
  0061b	a1 00 00 00 00	 mov	 eax, DWORD PTR __imp_?UNIT_X@ioMath@@2UD3DXVECTOR3@@A
  00620	f3 0f 10 5b 08	 movss	 xmm3, DWORD PTR [ebx+8]
  00625	f3 0f 10 50 08	 movss	 xmm2, DWORD PTR [eax+8]
  0062a	f3 0f 10 60 04	 movss	 xmm4, DWORD PTR [eax+4]
  0062f	0f 5a fb	 cvtps2pd xmm7, xmm3
  00632	0f 5a e8	 cvtps2pd xmm5, xmm0
  00635	0f 5a ca	 cvtps2pd xmm1, xmm2
  00638	0f 5a db	 cvtps2pd xmm3, xmm3
  0063b	f2 0f 59 cd	 mulsd	 xmm1, xmm5
  0063f	0f 5a d2	 cvtps2pd xmm2, xmm2
  00642	0f 5a c0	 cvtps2pd xmm0, xmm0
  00645	0f 5a ec	 cvtps2pd xmm5, xmm4
  00648	f2 0f 59 ef	 mulsd	 xmm5, xmm7
  0064c	f2 0f 5c cd	 subsd	 xmm1, xmm5
  00650	f3 0f 10 28	 movss	 xmm5, DWORD PTR [eax]
  00654	0f 5a fd	 cvtps2pd xmm7, xmm5
  00657	f2 0f 59 fb	 mulsd	 xmm7, xmm3
  0065b	0f 5a de	 cvtps2pd xmm3, xmm6
  0065e	f2 0f 59 d3	 mulsd	 xmm2, xmm3
  00662	f2 0f 5c fa	 subsd	 xmm7, xmm2
  00666	0f 57 d2	 xorps	 xmm2, xmm2
  00669	66 0f 5a c9	 cvtpd2ps xmm1, xmm1
  0066d	66 0f 5a d7	 cvtpd2ps xmm2, xmm7
  00671	0f 5a dc	 cvtps2pd xmm3, xmm4
  00674	0f 5a e6	 cvtps2pd xmm4, xmm6
  00677	f2 0f 59 dc	 mulsd	 xmm3, xmm4
  0067b	f3 0f 11 8d 18
	ff ff ff	 movss	 DWORD PTR _v$536870[ebp], xmm1
  00683	f3 0f 11 95 1c
	ff ff ff	 movss	 DWORD PTR _v$536870[ebp+4], xmm2
  0068b	8d b5 18 ff ff
	ff		 lea	 esi, DWORD PTR _v$536870[ebp]

; 379  : 						D3DXVec3Normalize( &vAxis1, &-vAxis1 );

  00691	8d 45 9c	 lea	 eax, DWORD PTR $T531913[ebp]
  00694	0f 5a e5	 cvtps2pd xmm4, xmm5
  00697	f2 0f 59 e0	 mulsd	 xmm4, xmm0
  0069b	f3 0f 10 05 00
	00 00 00	 movss	 xmm0, DWORD PTR __mask@@NegFloat@
  006a3	f2 0f 5c dc	 subsd	 xmm3, xmm4
  006a7	66 0f 5a db	 cvtpd2ps xmm3, xmm3
  006ab	f3 0f 11 9d 20
	ff ff ff	 movss	 DWORD PTR _v$536870[ebp+8], xmm3
  006b3	0f 57 c8	 xorps	 xmm1, xmm0
  006b6	0f 57 d0	 xorps	 xmm2, xmm0
  006b9	0f 57 d8	 xorps	 xmm3, xmm0
  006bc	f3 0f 11 4d 9c	 movss	 DWORD PTR $T531913[ebp], xmm1
  006c1	f3 0f 11 55 a0	 movss	 DWORD PTR $T531913[ebp+4], xmm2
  006c6	f3 0f 11 5d a4	 movss	 DWORD PTR $T531913[ebp+8], xmm3
$LN147@OnTracing:

; 377  : 					{
; 378  : 						D3DXVec3Cross( &vAxis1, &m_vMoveDir, &ioMath::UNIT_X );

  006cb	8d 7d d8	 lea	 edi, DWORD PTR _vAxis1$531908[ebp]
  006ce	a5		 movsd

; 379  : 						D3DXVec3Normalize( &vAxis1, &-vAxis1 );

  006cf	50		 push	 eax
  006d0	a5		 movsd
  006d1	8d 45 d8	 lea	 eax, DWORD PTR _vAxis1$531908[ebp]
  006d4	50		 push	 eax
  006d5	a5		 movsd
  006d6	e8 00 00 00 00	 call	 _D3DXVec3Normalize@8

; 380  : 					}
; 381  : 
; 382  : 					D3DXVec3Cross( &vAxis2, &m_vMoveDir, &vAxis1 );

  006db	f3 0f 10 43 04	 movss	 xmm0, DWORD PTR [ebx+4]
  006e0	f3 0f 10 4d e0	 movss	 xmm1, DWORD PTR _vAxis1$531908[ebp+8]
  006e5	f3 0f 10 53 08	 movss	 xmm2, DWORD PTR [ebx+8]
  006ea	0f 5a d8	 cvtps2pd xmm3, xmm0
  006ed	0f 5a e2	 cvtps2pd xmm4, xmm2
  006f0	0f 5a c9	 cvtps2pd xmm1, xmm1
  006f3	f2 0f 59 cb	 mulsd	 xmm1, xmm3
  006f7	f3 0f 10 5d dc	 movss	 xmm3, DWORD PTR _vAxis1$531908[ebp+4]
  006fc	0f 5a db	 cvtps2pd xmm3, xmm3
  006ff	f2 0f 59 dc	 mulsd	 xmm3, xmm4
  00703	f3 0f 10 65 d8	 movss	 xmm4, DWORD PTR _vAxis1$531908[ebp]
  00708	f2 0f 5c cb	 subsd	 xmm1, xmm3
  0070c	f3 0f 10 1b	 movss	 xmm3, DWORD PTR [ebx]
  00710	0f 5a e4	 cvtps2pd xmm4, xmm4
  00713	0f 5a d2	 cvtps2pd xmm2, xmm2
  00716	f2 0f 59 d4	 mulsd	 xmm2, xmm4
  0071a	f3 0f 10 65 e0	 movss	 xmm4, DWORD PTR _vAxis1$531908[ebp+8]
  0071f	0f 5a eb	 cvtps2pd xmm5, xmm3
  00722	0f 5a e4	 cvtps2pd xmm4, xmm4
  00725	f2 0f 59 e5	 mulsd	 xmm4, xmm5
  00729	f2 0f 5c d4	 subsd	 xmm2, xmm4
  0072d	f3 0f 10 65 dc	 movss	 xmm4, DWORD PTR _vAxis1$531908[ebp+4]
  00732	0f 5a db	 cvtps2pd xmm3, xmm3
  00735	0f 5a e4	 cvtps2pd xmm4, xmm4
  00738	f2 0f 59 e3	 mulsd	 xmm4, xmm3
  0073c	f3 0f 10 5d d8	 movss	 xmm3, DWORD PTR _vAxis1$531908[ebp]
  00741	0f 5a db	 cvtps2pd xmm3, xmm3
  00744	0f 5a c0	 cvtps2pd xmm0, xmm0
  00747	f2 0f 59 c3	 mulsd	 xmm0, xmm3
  0074b	f2 0f 5c e0	 subsd	 xmm4, xmm0

; 383  : 					D3DXVec3Normalize( &vAxis2, &-vAxis2 );

  0074f	f3 0f 10 05 00
	00 00 00	 movss	 xmm0, DWORD PTR __mask@@NegFloat@
  00757	0f 57 db	 xorps	 xmm3, xmm3
  0075a	f2 0f 5a c9	 cvtsd2ss xmm1, xmm1
  0075e	f3 0f 11 8d 3c
	ff ff ff	 movss	 DWORD PTR _v$536893[ebp], xmm1
  00766	66 0f 5a d2	 cvtpd2ps xmm2, xmm2
  0076a	f3 0f 11 95 40
	ff ff ff	 movss	 DWORD PTR _v$536893[ebp+4], xmm2
  00772	f2 0f 5a dc	 cvtsd2ss xmm3, xmm4
  00776	f3 0f 11 9d 44
	ff ff ff	 movss	 DWORD PTR _v$536893[ebp+8], xmm3
  0077e	8d b5 3c ff ff
	ff		 lea	 esi, DWORD PTR _v$536893[ebp]
  00784	8d 7d c0	 lea	 edi, DWORD PTR _vAxis2$531909[ebp]
  00787	a5		 movsd
  00788	8d 45 b4	 lea	 eax, DWORD PTR $T531914[ebp]
  0078b	a5		 movsd
  0078c	50		 push	 eax
  0078d	8d 45 c0	 lea	 eax, DWORD PTR _vAxis2$531909[ebp]
  00790	0f 57 c8	 xorps	 xmm1, xmm0
  00793	0f 57 d0	 xorps	 xmm2, xmm0
  00796	0f 57 d8	 xorps	 xmm3, xmm0
  00799	50		 push	 eax
  0079a	a5		 movsd
  0079b	f3 0f 11 4d b4	 movss	 DWORD PTR $T531914[ebp], xmm1
  007a0	f3 0f 11 55 b8	 movss	 DWORD PTR $T531914[ebp+4], xmm2
  007a5	f3 0f 11 5d bc	 movss	 DWORD PTR $T531914[ebp+8], xmm3
  007aa	e8 00 00 00 00	 call	 _D3DXVec3Normalize@8

; 384  : 
; 385  : 					GetParentSceneNode()->Rotate( vAxis2, FLOAT1 );

  007af	8b 45 80	 mov	 eax, DWORD PTR _this$GSCopy$[ebp]
  007b2	8b 48 04	 mov	 ecx, DWORD PTR [eax+4]
  007b5	b8 01 00 00 00	 mov	 eax, 1
  007ba	8b 11		 mov	 edx, DWORD PTR [ecx]
  007bc	89 85 78 ff ff
	ff		 mov	 DWORD PTR tv2135[ebp], eax
  007c2	db 85 78 ff ff
	ff		 fild	 DWORD PTR tv2135[ebp]
  007c8	6a 01		 push	 1
  007ca	85 c0		 test	 eax, eax
  007cc	79 06		 jns	 SHORT $LN146@OnTracing
  007ce	d8 05 00 00 00
	00		 fadd	 DWORD PTR __real@4f800000
$LN146@OnTracing:
  007d4	51		 push	 ecx
  007d5	8d 45 c0	 lea	 eax, DWORD PTR _vAxis2$531909[ebp]
  007d8	d9 1c 24	 fstp	 DWORD PTR [esp]
  007db	50		 push	 eax
  007dc	ff 52 50	 call	 DWORD PTR [edx+80]

; 386  : 				}
; 387  : 				else // 

  007df	e9 0b 01 00 00	 jmp	 $LN1@OnTracing
$LN4@OnTracing:

; 388  : 				{
; 389  : 					float fGapAngle = RADtoDEG( acos( fCos ) );

  007e4	d9 45 8c	 fld	 DWORD PTR _fCos$531902[ebp]
  007e7	e8 00 00 00 00	 call	 __CIacos
  007ec	d9 5d 8c	 fstp	 DWORD PTR tv2127[ebp]
  007ef	d9 45 8c	 fld	 DWORD PTR tv2127[ebp]
  007f2	51		 push	 ecx
  007f3	d9 1c 24	 fstp	 DWORD PTR [esp]
  007f6	e8 00 00 00 00	 call	 ??$RADtoDEG@M@@YAMM@Z	; RADtoDEG<float>

; 390  : 
; 391  : 					D3DXVECTOR3 vAxis;
; 392  : 					D3DXVec3Cross( &vAxis, &vDiff, &m_vMoveDir );

  007fb	f3 0f 10 43 08	 movss	 xmm0, DWORD PTR [ebx+8]
  00800	d9 5d 8c	 fstp	 DWORD PTR _fGapAngle$531917[ebp]
  00803	f3 0f 10 4d f4	 movss	 xmm1, DWORD PTR _vDiff$531874[ebp+4]
  00808	f3 0f 10 5b 04	 movss	 xmm3, DWORD PTR [ebx+4]
  0080d	0f 5a d0	 cvtps2pd xmm2, xmm0
  00810	0f 5a e3	 cvtps2pd xmm4, xmm3
  00813	0f 5a c9	 cvtps2pd xmm1, xmm1
  00816	f2 0f 59 ca	 mulsd	 xmm1, xmm2
  0081a	f3 0f 10 55 f8	 movss	 xmm2, DWORD PTR _vDiff$531874[ebp+8]
  0081f	0f 5a d2	 cvtps2pd xmm2, xmm2
  00822	f2 0f 59 d4	 mulsd	 xmm2, xmm4
  00826	f3 0f 10 23	 movss	 xmm4, DWORD PTR [ebx]
  0082a	f2 0f 5c ca	 subsd	 xmm1, xmm2
  0082e	f3 0f 10 55 f8	 movss	 xmm2, DWORD PTR _vDiff$531874[ebp+8]
  00833	0f 5a d2	 cvtps2pd xmm2, xmm2
  00836	0f 5a ec	 cvtps2pd xmm5, xmm4
  00839	f2 0f 59 d5	 mulsd	 xmm2, xmm5
  0083d	f3 0f 10 6d f0	 movss	 xmm5, DWORD PTR _vDiff$531874[ebp]
  00842	0f 5a c0	 cvtps2pd xmm0, xmm0
  00845	0f 5a ed	 cvtps2pd xmm5, xmm5
  00848	f2 0f 59 c5	 mulsd	 xmm0, xmm5
  0084c	f2 0f 5c d0	 subsd	 xmm2, xmm0
  00850	0f 5a e4	 cvtps2pd xmm4, xmm4
  00853	f2 0f 5a c9	 cvtsd2ss xmm1, xmm1
  00857	f3 0f 11 8d 48
	ff ff ff	 movss	 DWORD PTR _v$536936[ebp], xmm1
  0085f	f2 0f 5a d2	 cvtsd2ss xmm2, xmm2
  00863	0f 5a c3	 cvtps2pd xmm0, xmm3
  00866	f3 0f 10 5d f0	 movss	 xmm3, DWORD PTR _vDiff$531874[ebp]
  0086b	0f 5a db	 cvtps2pd xmm3, xmm3
  0086e	f2 0f 59 c3	 mulsd	 xmm0, xmm3
  00872	f3 0f 10 5d f4	 movss	 xmm3, DWORD PTR _vDiff$531874[ebp+4]
  00877	0f 5a db	 cvtps2pd xmm3, xmm3
  0087a	f2 0f 59 dc	 mulsd	 xmm3, xmm4
  0087e	f2 0f 5c c3	 subsd	 xmm0, xmm3
  00882	f3 0f 11 95 4c
	ff ff ff	 movss	 DWORD PTR _v$536936[ebp+4], xmm2
  0088a	0f 57 db	 xorps	 xmm3, xmm3
  0088d	66 0f 5a d8	 cvtpd2ps xmm3, xmm0

; 393  : 					D3DXVec3Normalize( &vAxis, &-vAxis );

  00891	f3 0f 10 05 00
	00 00 00	 movss	 xmm0, DWORD PTR __mask@@NegFloat@
  00899	f3 0f 11 9d 50
	ff ff ff	 movss	 DWORD PTR _v$536936[ebp+8], xmm3
  008a1	8d b5 48 ff ff
	ff		 lea	 esi, DWORD PTR _v$536936[ebp]
  008a7	8d 7d 90	 lea	 edi, DWORD PTR _vAxis$531922[ebp]
  008aa	a5		 movsd
  008ab	59		 pop	 ecx
  008ac	8d 45 cc	 lea	 eax, DWORD PTR $T531923[ebp]
  008af	a5		 movsd
  008b0	50		 push	 eax
  008b1	8d 45 90	 lea	 eax, DWORD PTR _vAxis$531922[ebp]
  008b4	0f 57 c8	 xorps	 xmm1, xmm0
  008b7	0f 57 d0	 xorps	 xmm2, xmm0
  008ba	0f 57 d8	 xorps	 xmm3, xmm0
  008bd	50		 push	 eax
  008be	a5		 movsd
  008bf	f3 0f 11 4d cc	 movss	 DWORD PTR $T531923[ebp], xmm1
  008c4	f3 0f 11 55 d0	 movss	 DWORD PTR $T531923[ebp+4], xmm2
  008c9	f3 0f 11 5d d4	 movss	 DWORD PTR $T531923[ebp+8], xmm3
  008ce	e8 00 00 00 00	 call	 _D3DXVec3Normalize@8

; 394  : 
; 395  : 					GetParentSceneNode()->Rotate( vAxis, fGapAngle );

  008d3	8b 45 80	 mov	 eax, DWORD PTR _this$GSCopy$[ebp]
  008d6	8b 48 04	 mov	 ecx, DWORD PTR [eax+4]
  008d9	f3 0f 10 45 8c	 movss	 xmm0, DWORD PTR _fGapAngle$531917[ebp]
  008de	8b 01		 mov	 eax, DWORD PTR [ecx]
  008e0	6a 01		 push	 1
  008e2	51		 push	 ecx
  008e3	8d 55 90	 lea	 edx, DWORD PTR _vAxis$531922[ebp]
  008e6	f3 0f 11 04 24	 movss	 DWORD PTR [esp], xmm0
  008eb	52		 push	 edx
  008ec	ff 50 50	 call	 DWORD PTR [eax+80]
$LN1@OnTracing:

; 334  : 			float fCurLoopTimeGap;
; 335  : 			float fCurLoopTimePerSec;
; 336  : 			while( fTimeGap > 0.0f )

  008ef	f3 0f 10 45 88	 movss	 xmm0, DWORD PTR _fTimeGap$531879[ebp]
  008f4	0f 2f 05 00 00
	00 00		 comiss	 xmm0, DWORD PTR __real@00000000
  008fb	0f 87 a9 f8 ff
	ff		 ja	 $LL10@OnTracing
  00901	8b 5d 80	 mov	 ebx, DWORD PTR _this$GSCopy$[ebp]
$LN137@OnTracing:
  00904	5f		 pop	 edi
$LN135@OnTracing:

; 396  : 				}
; 397  : 			}
; 398  : 		}
; 399  : 	}
; 400  : 
; 401  : 	float fMoveDist = m_fTraceSpeed * fTimePerSec;

  00905	8d 45 84	 lea	 eax, DWORD PTR _value$536956[ebp]
  00908	50		 push	 eax
  00909	8d 8b bc 08 00
	00		 lea	 ecx, DWORD PTR [ebx+2236]
  0090f	e8 00 00 00 00	 call	 ?DecryptValueToPool@?$CEncrypt@M@@QAEXPAM@Z ; CEncrypt<float>::DecryptValueToPool
  00914	f3 0f 10 45 84	 movss	 xmm0, DWORD PTR _value$536956[ebp]
  00919	f3 0f 10 4d 0c	 movss	 xmm1, DWORD PTR _fTimePerSec$[ebp]

; 402  : 	GetParentSceneNode()->Translate( m_vMoveDir * fMoveDist );

  0091e	8b 4b 04	 mov	 ecx, DWORD PTR [ebx+4]
  00921	0f 5a c9	 cvtps2pd xmm1, xmm1
  00924	0f 5a c0	 cvtps2pd xmm0, xmm0
  00927	f2 0f 59 c1	 mulsd	 xmm0, xmm1
  0092b	f3 0f 10 8b 58
	09 00 00	 movss	 xmm1, DWORD PTR [ebx+2392]
  00933	0f 5a c9	 cvtps2pd xmm1, xmm1
  00936	66 0f 5a c0	 cvtpd2ps xmm0, xmm0
  0093a	0f 57 d2	 xorps	 xmm2, xmm2
  0093d	f3 0f 5a d0	 cvtss2sd xmm2, xmm0
  00941	f2 0f 59 ca	 mulsd	 xmm1, xmm2
  00945	66 0f 5a c9	 cvtpd2ps xmm1, xmm1
  00949	f3 0f 11 4d cc	 movss	 DWORD PTR $T531925[ebp], xmm1
  0094e	f3 0f 10 8b 5c
	09 00 00	 movss	 xmm1, DWORD PTR [ebx+2396]
  00956	0f 5a c9	 cvtps2pd xmm1, xmm1
  00959	0f 57 d2	 xorps	 xmm2, xmm2
  0095c	f3 0f 5a d0	 cvtss2sd xmm2, xmm0
  00960	f2 0f 59 ca	 mulsd	 xmm1, xmm2
  00964	66 0f 5a c9	 cvtpd2ps xmm1, xmm1
  00968	f3 0f 5a c0	 cvtss2sd xmm0, xmm0
  0096c	f3 0f 11 4d d0	 movss	 DWORD PTR $T531925[ebp+4], xmm1
  00971	f3 0f 10 8b 60
	09 00 00	 movss	 xmm1, DWORD PTR [ebx+2400]
  00979	0f 5a c9	 cvtps2pd xmm1, xmm1
  0097c	f2 0f 59 c8	 mulsd	 xmm1, xmm0
  00980	6a 01		 push	 1
  00982	66 0f 5a c1	 cvtpd2ps xmm0, xmm1
  00986	8d 55 cc	 lea	 edx, DWORD PTR $T531925[ebp]
  00989	f3 0f 11 45 d4	 movss	 DWORD PTR $T531925[ebp+8], xmm0
  0098e	8b 01		 mov	 eax, DWORD PTR [ecx]
  00990	52		 push	 edx
  00991	ff 50 3c	 call	 DWORD PTR [eax+60]

; 403  : 
; 404  : 	UpdateWorldAttackBox( fTimePerSec, false );

  00994	f3 0f 10 45 0c	 movss	 xmm0, DWORD PTR _fTimePerSec$[ebp]
  00999	8b 03		 mov	 eax, DWORD PTR [ebx]
  0099b	6a 00		 push	 0
  0099d	51		 push	 ecx
  0099e	8b cb		 mov	 ecx, ebx
  009a0	f3 0f 11 04 24	 movss	 DWORD PTR [esp], xmm0
  009a5	ff 90 38 01 00
	00		 call	 DWORD PTR [eax+312]

; 405  : }

  009ab	8b 4d fc	 mov	 ecx, DWORD PTR __$ArrayPad$[ebp]
  009ae	5e		 pop	 esi
  009af	33 cd		 xor	 ecx, ebp
  009b1	5b		 pop	 ebx
  009b2	e8 00 00 00 00	 call	 @__security_check_cookie@4
  009b7	c9		 leave
  009b8	c2 08 00	 ret	 8
?OnTracing@ioTraceWeaponType3@@IAEXPAVioPlayStage@@M@Z ENDP ; ioTraceWeaponType3::OnTracing
_TEXT	ENDS
PUBLIC	_pStage$GSCopy$
PUBLIC	__$ArrayPad$
PUBLIC	?SetExplosionState@ioTraceWeaponType3@@IAEXPAVioPlayStage@@@Z ; ioTraceWeaponType3::SetExplosionState
EXTRN	?SetSkillCreateWeaponDependency@ioBaseChar@@QAEXABVioHashString@@@Z:PROC ; ioBaseChar::SetSkillCreateWeaponDependency
EXTRN	?GetWeaponBySkillName@ioWeapon@@QBEABVioHashString@@XZ:PROC ; ioWeapon::GetWeaponBySkillName
EXTRN	?PlayExplosionSound@ioWeapon@@UAEXXZ:PROC	; ioWeapon::PlayExplosionSound
; Function compile flags: /Ogsp
;	COMDAT ?SetExplosionState@ioTraceWeaponType3@@IAEXPAVioPlayStage@@@Z
_TEXT	SEGMENT
$T531968 = -48						; size = 12
_pStage$GSCopy$ = -36					; size = 4
_value$537014 = -32					; size = 4
tv278 = -28						; size = 4
_value$537009 = -28					; size = 4
_value$537019 = -24					; size = 4
_value$537005 = -24					; size = 4
_value$537027 = -17					; size = 1
_vScale$531964 = -16					; size = 12
__$ArrayPad$ = -4					; size = 4
_pStage$ = 8						; size = 4
?SetExplosionState@ioTraceWeaponType3@@IAEXPAVioPlayStage@@@Z PROC ; ioTraceWeaponType3::SetExplosionState, COMDAT
; _this$ = ecx

; 475  : {

  00000	55		 push	 ebp
  00001	8b ec		 mov	 ebp, esp
  00003	83 ec 30	 sub	 esp, 48			; 00000030H
  00006	a1 00 00 00 00	 mov	 eax, DWORD PTR ___security_cookie
  0000b	33 c5		 xor	 eax, ebp
  0000d	89 45 fc	 mov	 DWORD PTR __$ArrayPad$[ebp], eax
  00010	8b 45 08	 mov	 eax, DWORD PTR _pStage$[ebp]
  00013	53		 push	 ebx
  00014	8b d9		 mov	 ebx, ecx

; 476  : 	if( m_State == TS_EXPLOSION ) return;

  00016	83 bb 94 08 00
	00 04		 cmp	 DWORD PTR [ebx+2196], 4

; 502  : 
; 503  : 		pOwner->SetSkillCreateWeaponDependency( GetWeaponBySkillName() );

  0001d	89 45 dc	 mov	 DWORD PTR _pStage$GSCopy$[ebp], eax
  00020	0f 84 1c 01 00
	00		 je	 $LN2@SetExplosi@2

; 477  : 
; 478  : 	UpdateWorldAttackBox( 0.0f, true );

  00026	0f 57 c0	 xorps	 xmm0, xmm0
  00029	8b 03		 mov	 eax, DWORD PTR [ebx]
  0002b	56		 push	 esi
  0002c	6a 01		 push	 1
  0002e	51		 push	 ecx
  0002f	f3 0f 11 04 24	 movss	 DWORD PTR [esp], xmm0
  00034	ff 90 38 01 00
	00		 call	 DWORD PTR [eax+312]

; 479  : 
; 480  : 	if( !m_BoomEffect.IsEmpty() )

  0003a	8d 8b ec 09 00
	00		 lea	 ecx, DWORD PTR [ebx+2540]
  00040	ff 15 00 00 00
	00		 call	 DWORD PTR __imp_?IsEmpty@ioHashString@@QBE_NXZ
  00046	84 c0		 test	 al, al
  00048	0f 85 b8 00 00
	00		 jne	 $LN4@SetExplosi@2

; 481  : 	{
; 482  : 		D3DXVECTOR3 vScale = GetScale();

  0004e	57		 push	 edi
  0004f	8b cb		 mov	 ecx, ebx
  00051	e8 00 00 00 00	 call	 ?GetScale@ioWeapon@@QBEABUD3DXVECTOR3@@XZ ; ioWeapon::GetScale
  00056	8b f0		 mov	 esi, eax
  00058	8d 7d f0	 lea	 edi, DWORD PTR _vScale$531964[ebp]
  0005b	a5		 movsd
  0005c	a5		 movsd
  0005d	a5		 movsd

; 483  : 
; 484  : 		if( m_fOwnerChargeExplosionRate > FLOAT1 )

  0005e	b8 01 00 00 00	 mov	 eax, 1
  00063	8b f8		 mov	 edi, eax
  00065	8d 45 e8	 lea	 eax, DWORD PTR _value$537005[ebp]
  00068	50		 push	 eax
  00069	8d 8b e0 01 00
	00		 lea	 ecx, DWORD PTR [ebx+480]
  0006f	e8 00 00 00 00	 call	 ?DecryptValueToPool@?$CEncrypt@M@@QAEXPAM@Z ; CEncrypt<float>::DecryptValueToPool
  00074	d9 45 e8	 fld	 DWORD PTR _value$537005[ebp]
  00077	89 7d e4	 mov	 DWORD PTR tv278[ebp], edi
  0007a	db 45 e4	 fild	 DWORD PTR tv278[ebp]
  0007d	85 ff		 test	 edi, edi
  0007f	79 06		 jns	 SHORT $LN26@SetExplosi@2
  00081	d8 05 00 00 00
	00		 fadd	 DWORD PTR __real@4f800000
$LN26@SetExplosi@2:
  00087	d9 c9		 fxch	 ST(1)
  00089	df f1		 fcomip	 ST(1)
  0008b	dd d8		 fstp	 ST(0)
  0008d	76 54		 jbe	 SHORT $LN3@SetExplosi@2

; 485  : 		{
; 486  : 			vScale = D3DXVECTOR3( m_fOwnerChargeExplosionRate, m_fOwnerChargeExplosionRate, m_fOwnerChargeExplosionRate );

  0008f	8d 45 e4	 lea	 eax, DWORD PTR _value$537009[ebp]
  00092	50		 push	 eax
  00093	8d 8b e0 01 00
	00		 lea	 ecx, DWORD PTR [ebx+480]
  00099	e8 00 00 00 00	 call	 ?DecryptValueToPool@?$CEncrypt@M@@QAEXPAM@Z ; CEncrypt<float>::DecryptValueToPool
  0009e	8d 45 e0	 lea	 eax, DWORD PTR _value$537014[ebp]
  000a1	50		 push	 eax
  000a2	8d 8b e0 01 00
	00		 lea	 ecx, DWORD PTR [ebx+480]
  000a8	e8 00 00 00 00	 call	 ?DecryptValueToPool@?$CEncrypt@M@@QAEXPAM@Z ; CEncrypt<float>::DecryptValueToPool
  000ad	8d 45 e8	 lea	 eax, DWORD PTR _value$537019[ebp]
  000b0	50		 push	 eax
  000b1	8d 8b e0 01 00
	00		 lea	 ecx, DWORD PTR [ebx+480]
  000b7	e8 00 00 00 00	 call	 ?DecryptValueToPool@?$CEncrypt@M@@QAEXPAM@Z ; CEncrypt<float>::DecryptValueToPool
  000bc	f3 0f 10 45 e8	 movss	 xmm0, DWORD PTR _value$537019[ebp]
  000c1	f3 0f 11 45 d0	 movss	 DWORD PTR $T531968[ebp], xmm0
  000c6	f3 0f 10 45 e0	 movss	 xmm0, DWORD PTR _value$537014[ebp]
  000cb	f3 0f 11 45 d4	 movss	 DWORD PTR $T531968[ebp+4], xmm0
  000d0	f3 0f 10 45 e4	 movss	 xmm0, DWORD PTR _value$537009[ebp]
  000d5	f3 0f 11 45 d8	 movss	 DWORD PTR $T531968[ebp+8], xmm0
  000da	8d 75 d0	 lea	 esi, DWORD PTR $T531968[ebp]
  000dd	8d 7d f0	 lea	 edi, DWORD PTR _vScale$531964[ebp]
  000e0	a5		 movsd
  000e1	a5		 movsd
  000e2	a5		 movsd
$LN3@SetExplosi@2:

; 487  : 		}
; 488  : 
; 489  : 		pStage->CreateMapEffect( m_BoomEffect,
; 490  : 								 GetPosition(),
; 491  : 								 vScale );

  000e3	8d 45 f0	 lea	 eax, DWORD PTR _vScale$531964[ebp]
  000e6	50		 push	 eax
  000e7	8b 03		 mov	 eax, DWORD PTR [ebx]
  000e9	8b cb		 mov	 ecx, ebx
  000eb	ff 50 70	 call	 DWORD PTR [eax+112]
  000ee	8b 4d dc	 mov	 ecx, DWORD PTR _pStage$GSCopy$[ebp]
  000f1	50		 push	 eax
  000f2	8d 83 ec 09 00
	00		 lea	 eax, DWORD PTR [ebx+2540]
  000f8	50		 push	 eax
  000f9	e8 00 00 00 00	 call	 ?CreateMapEffect@ioPlayStage@@QAEPAVioMapEffect@@ABVioHashString@@ABUD3DXVECTOR3@@1@Z ; ioPlayStage::CreateMapEffect

; 492  : 
; 493  : 		ioWeapon::PlayExplosionSound();

  000fe	8b cb		 mov	 ecx, ebx
  00100	e8 00 00 00 00	 call	 ?PlayExplosionSound@ioWeapon@@UAEXXZ ; ioWeapon::PlayExplosionSound
  00105	5f		 pop	 edi
$LN4@SetExplosi@2:

; 494  : 	}
; 495  : 
; 496  : 	m_State = TS_EXPLOSION;
; 497  : 
; 498  : 	if( m_bSkillDependency )

  00106	8d 45 ef	 lea	 eax, DWORD PTR _value$537027[ebp]
  00109	50		 push	 eax
  0010a	8d 8b d0 06 00
	00		 lea	 ecx, DWORD PTR [ebx+1744]
  00110	c7 83 94 08 00
	00 04 00 00 00	 mov	 DWORD PTR [ebx+2196], 4
  0011a	e8 00 00 00 00	 call	 ?DecryptValueToPool@?$CEncrypt@_N@@QAEXPA_N@Z ; CEncrypt<bool>::DecryptValueToPool
  0011f	80 7d ef 00	 cmp	 BYTE PTR _value$537027[ebp], 0
  00123	74 1c		 je	 SHORT $LN25@SetExplosi@2

; 499  : 	{
; 500  : 		ioBaseChar *pOwner = GetOwner();

  00125	8b cb		 mov	 ecx, ebx
  00127	e8 00 00 00 00	 call	 ?GetOwner@ioWeapon@@QBEPAVioBaseChar@@XZ ; ioWeapon::GetOwner
  0012c	8b f0		 mov	 esi, eax

; 501  : 		if( !pOwner ) return;

  0012e	85 f6		 test	 esi, esi
  00130	74 0f		 je	 SHORT $LN25@SetExplosi@2

; 502  : 
; 503  : 		pOwner->SetSkillCreateWeaponDependency( GetWeaponBySkillName() );

  00132	8b cb		 mov	 ecx, ebx
  00134	e8 00 00 00 00	 call	 ?GetWeaponBySkillName@ioWeapon@@QBEABVioHashString@@XZ ; ioWeapon::GetWeaponBySkillName
  00139	50		 push	 eax
  0013a	8b ce		 mov	 ecx, esi
  0013c	e8 00 00 00 00	 call	 ?SetSkillCreateWeaponDependency@ioBaseChar@@QAEXABVioHashString@@@Z ; ioBaseChar::SetSkillCreateWeaponDependency
$LN25@SetExplosi@2:
  00141	5e		 pop	 esi
$LN2@SetExplosi@2:

; 504  : 	}
; 505  : }

  00142	8b 4d fc	 mov	 ecx, DWORD PTR __$ArrayPad$[ebp]
  00145	33 cd		 xor	 ecx, ebp
  00147	5b		 pop	 ebx
  00148	e8 00 00 00 00	 call	 @__security_check_cookie@4
  0014d	c9		 leave
  0014e	c2 04 00	 ret	 4
?SetExplosionState@ioTraceWeaponType3@@IAEXPAVioPlayStage@@@Z ENDP ; ioTraceWeaponType3::SetExplosionState
_TEXT	ENDS
PUBLIC	__$ArrayPad$
PUBLIC	?SetOwnerChargeScaleRate@ioTraceWeaponType3@@UAEXM@Z ; ioTraceWeaponType3::SetOwnerChargeScaleRate
; Function compile flags: /Ogsp
;	COMDAT ?SetOwnerChargeScaleRate@ioTraceWeaponType3@@UAEXM@Z
_TEXT	SEGMENT
_value$537061 = -28					; size = 4
tv217 = -24						; size = 4
_value$537056 = -24					; size = 4
_value$537066 = -20					; size = 4
_value$537052 = -20					; size = 4
_value$537040 = -20					; size = 4
_vScale$532077 = -16					; size = 12
__$ArrayPad$ = -4					; size = 4
_fRate$ = 8						; size = 4
?SetOwnerChargeScaleRate@ioTraceWeaponType3@@UAEXM@Z PROC ; ioTraceWeaponType3::SetOwnerChargeScaleRate, COMDAT
; _this$ = ecx

; 686  : {

  00000	55		 push	 ebp
  00001	8b ec		 mov	 ebp, esp
  00003	83 ec 1c	 sub	 esp, 28			; 0000001cH
  00006	a1 00 00 00 00	 mov	 eax, DWORD PTR ___security_cookie
  0000b	33 c5		 xor	 eax, ebp
  0000d	89 45 fc	 mov	 DWORD PTR __$ArrayPad$[ebp], eax

; 687  : 	m_fOwnerChargeScaleRate = fRate;

  00010	f3 0f 10 45 08	 movss	 xmm0, DWORD PTR _fRate$[ebp]
  00015	53		 push	 ebx
  00016	56		 push	 esi
  00017	57		 push	 edi
  00018	8b f9		 mov	 edi, ecx
  0001a	8d 45 ec	 lea	 eax, DWORD PTR _value$537040[ebp]
  0001d	50		 push	 eax
  0001e	8d 8f b0 01 00
	00		 lea	 ecx, DWORD PTR [edi+432]
  00024	f3 0f 11 45 ec	 movss	 DWORD PTR _value$537040[ebp], xmm0
  00029	e8 00 00 00 00	 call	 ?EncryptValueToPool@?$CEncrypt@M@@AAEXPBD@Z ; CEncrypt<float>::EncryptValueToPool

; 688  : 
; 689  : 	if( m_fOwnerChargeScaleRate > FLOAT1 )

  0002e	b8 01 00 00 00	 mov	 eax, 1
  00033	8b d8		 mov	 ebx, eax
  00035	8d 45 ec	 lea	 eax, DWORD PTR _value$537052[ebp]
  00038	50		 push	 eax
  00039	8d 8f b0 01 00
	00		 lea	 ecx, DWORD PTR [edi+432]
  0003f	e8 00 00 00 00	 call	 ?DecryptValueToPool@?$CEncrypt@M@@QAEXPAM@Z ; CEncrypt<float>::DecryptValueToPool
  00044	d9 45 ec	 fld	 DWORD PTR _value$537052[ebp]
  00047	89 5d e8	 mov	 DWORD PTR tv217[ebp], ebx
  0004a	db 45 e8	 fild	 DWORD PTR tv217[ebp]
  0004d	85 db		 test	 ebx, ebx
  0004f	79 06		 jns	 SHORT $LN23@SetOwnerCh
  00051	d8 05 00 00 00
	00		 fadd	 DWORD PTR __real@4f800000
$LN23@SetOwnerCh:
  00057	d9 c9		 fxch	 ST(1)
  00059	df f1		 fcomip	 ST(1)
  0005b	dd d8		 fstp	 ST(0)
  0005d	76 57		 jbe	 SHORT $LN1@SetOwnerCh

; 690  : 	{
; 691  : 		D3DXVECTOR3 vScale( m_fOwnerChargeScaleRate, m_fOwnerChargeScaleRate, m_fOwnerChargeScaleRate );

  0005f	8d 45 e8	 lea	 eax, DWORD PTR _value$537056[ebp]
  00062	50		 push	 eax
  00063	8d 8f b0 01 00
	00		 lea	 ecx, DWORD PTR [edi+432]
  00069	e8 00 00 00 00	 call	 ?DecryptValueToPool@?$CEncrypt@M@@QAEXPAM@Z ; CEncrypt<float>::DecryptValueToPool
  0006e	8d 45 e4	 lea	 eax, DWORD PTR _value$537061[ebp]
  00071	50		 push	 eax
  00072	8d 8f b0 01 00
	00		 lea	 ecx, DWORD PTR [edi+432]
  00078	e8 00 00 00 00	 call	 ?DecryptValueToPool@?$CEncrypt@M@@QAEXPAM@Z ; CEncrypt<float>::DecryptValueToPool
  0007d	8d 45 ec	 lea	 eax, DWORD PTR _value$537066[ebp]
  00080	50		 push	 eax
  00081	8d 8f b0 01 00
	00		 lea	 ecx, DWORD PTR [edi+432]
  00087	e8 00 00 00 00	 call	 ?DecryptValueToPool@?$CEncrypt@M@@QAEXPAM@Z ; CEncrypt<float>::DecryptValueToPool
  0008c	f3 0f 10 45 ec	 movss	 xmm0, DWORD PTR _value$537066[ebp]

; 692  : 		GetParentSceneNode()->SetScale( vScale );

  00091	8b 4f 04	 mov	 ecx, DWORD PTR [edi+4]
  00094	f3 0f 11 45 f0	 movss	 DWORD PTR _vScale$532077[ebp], xmm0
  00099	f3 0f 10 45 e4	 movss	 xmm0, DWORD PTR _value$537061[ebp]
  0009e	f3 0f 11 45 f4	 movss	 DWORD PTR _vScale$532077[ebp+4], xmm0
  000a3	f3 0f 10 45 e8	 movss	 xmm0, DWORD PTR _value$537056[ebp]
  000a8	8d 55 f0	 lea	 edx, DWORD PTR _vScale$532077[ebp]
  000ab	f3 0f 11 45 f8	 movss	 DWORD PTR _vScale$532077[ebp+8], xmm0
  000b0	8b 01		 mov	 eax, DWORD PTR [ecx]
  000b2	52		 push	 edx
  000b3	ff 50 20	 call	 DWORD PTR [eax+32]
$LN1@SetOwnerCh:

; 693  : 	}
; 694  : }

  000b6	8b 4d fc	 mov	 ecx, DWORD PTR __$ArrayPad$[ebp]
  000b9	5f		 pop	 edi
  000ba	5e		 pop	 esi
  000bb	33 cd		 xor	 ecx, ebp
  000bd	5b		 pop	 ebx
  000be	e8 00 00 00 00	 call	 @__security_check_cookie@4
  000c3	c9		 leave
  000c4	c2 04 00	 ret	 4
?SetOwnerChargeScaleRate@ioTraceWeaponType3@@UAEXM@Z ENDP ; ioTraceWeaponType3::SetOwnerChargeScaleRate
_TEXT	ENDS
PUBLIC	__$ArrayPad$
PUBLIC	?UpdateWorldAttackBox@ioTraceWeaponType3@@MAEXM_N@Z ; ioTraceWeaponType3::UpdateWorldAttackBox
EXTRN	__imp_?SetNull@ioOrientBox@@QAEXXZ:PROC
EXTRN	__imp_?UNIT_ALL@ioMath@@2UD3DXVECTOR3@@A:BYTE
EXTRN	__imp_?Transform@ioOrientBox@@QAEXABUD3DXVECTOR3@@0ABUD3DXQUATERNION@@@Z:PROC
EXTRN	__imp_?IsNull@ioOrientBox@@QBE_NXZ:PROC
EXTRN	__imp_?SetExtents@ioOrientBox@@QAEXHM@Z:PROC
EXTRN	__imp_?GetExtents@ioOrientBox@@QBEMH@Z:PROC
; Function compile flags: /Ogsp
;	COMDAT ?UpdateWorldAttackBox@ioTraceWeaponType3@@MAEXM_N@Z
_TEXT	SEGMENT
tv397 = -32						; size = 4
_value$537101 = -32					; size = 4
tv417 = -28						; size = 4
tv399 = -28						; size = 4
_value$537106 = -24					; size = 4
$T537089 = -24						; size = 4
_fMapCollisionRate$ = -24				; size = 4
tv411 = -20						; size = 4
tv405 = -20						; size = 4
_value$537111 = -20					; size = 4
_value$537097 = -20					; size = 4
_vScale$532090 = -16					; size = 12
__$ArrayPad$ = -4					; size = 4
_fTimePerSec$ = 8					; size = 4
_bSetNull$ = 12						; size = 1
?UpdateWorldAttackBox@ioTraceWeaponType3@@MAEXM_N@Z PROC ; ioTraceWeaponType3::UpdateWorldAttackBox, COMDAT
; _this$ = ecx

; 697  : {

  00000	55		 push	 ebp
  00001	8b ec		 mov	 ebp, esp
  00003	83 ec 20	 sub	 esp, 32			; 00000020H
  00006	a1 00 00 00 00	 mov	 eax, DWORD PTR ___security_cookie
  0000b	33 c5		 xor	 eax, ebp
  0000d	89 45 fc	 mov	 DWORD PTR __$ArrayPad$[ebp], eax
  00010	53		 push	 ebx
  00011	8b d9		 mov	 ebx, ecx

; 698  : 	if( !IsLive() || bSetNull )

  00013	80 bb 82 05 00
	00 00		 cmp	 BYTE PTR [ebx+1410], 0
  0001a	56		 push	 esi
  0001b	57		 push	 edi
  0001c	0f 84 b7 01 00
	00		 je	 $LN4@UpdateWorl
  00022	80 7d 0c 00	 cmp	 BYTE PTR _bSetNull$[ebp], 0
  00026	0f 85 ad 01 00
	00		 jne	 $LN4@UpdateWorl

; 702  : 		return;
; 703  : 	}
; 704  : 
; 705  : 	m_WorldAttackBox = GetLocalAttackBox();

  0002c	8b 03		 mov	 eax, DWORD PTR [ebx]
  0002e	ff 90 00 01 00
	00		 call	 DWORD PTR [eax+256]
  00034	6a 11		 push	 17			; 00000011H
  00036	59		 pop	 ecx
  00037	8b f0		 mov	 esi, eax
  00039	8d bb e8 04 00
	00		 lea	 edi, DWORD PTR [ebx+1256]
  0003f	f3 a5		 rep movsd

; 706  : 	m_WorldAttackBoxForMap = m_WorldAttackBox;

  00041	6a 11		 push	 17			; 00000011H
  00043	8b f0		 mov	 esi, eax

; 707  : 
; 708  : 	float fMapCollisionRate = GetAttribute()->m_fMapCollisionBoxRate;

  00045	8b 03		 mov	 eax, DWORD PTR [ebx]
  00047	59		 pop	 ecx
  00048	8d bb 2c 05 00
	00		 lea	 edi, DWORD PTR [ebx+1324]
  0004e	f3 a5		 rep movsd
  00050	8b cb		 mov	 ecx, ebx
  00052	ff 90 3c 01 00
	00		 call	 DWORD PTR [eax+316]

; 709  : 	m_WorldAttackBoxForMap.SetExtents( 0, m_WorldAttackBox.GetExtents(0)*fMapCollisionRate );

  00058	6a 00		 push	 0
  0005a	d9 80 a8 01 00
	00		 fld	 DWORD PTR [eax+424]
  00060	8d 8b e8 04 00
	00		 lea	 ecx, DWORD PTR [ebx+1256]
  00066	d9 5d e8	 fstp	 DWORD PTR _fMapCollisionRate$[ebp]
  00069	ff 15 00 00 00
	00		 call	 DWORD PTR __imp_?GetExtents@ioOrientBox@@QBEMH@Z
  0006f	d8 4d e8	 fmul	 DWORD PTR _fMapCollisionRate$[ebp]
  00072	8b 35 00 00 00
	00		 mov	 esi, DWORD PTR __imp_?SetExtents@ioOrientBox@@QAEXHM@Z
  00078	51		 push	 ecx
  00079	8d 8b 2c 05 00
	00		 lea	 ecx, DWORD PTR [ebx+1324]
  0007f	d9 5d e4	 fstp	 DWORD PTR tv417[ebp]
  00082	d9 45 e4	 fld	 DWORD PTR tv417[ebp]
  00085	89 4d e4	 mov	 DWORD PTR tv399[ebp], ecx
  00088	d9 1c 24	 fstp	 DWORD PTR [esp]
  0008b	6a 00		 push	 0
  0008d	ff d6		 call	 esi

; 710  : 	m_WorldAttackBoxForMap.SetExtents( 1, m_WorldAttackBox.GetExtents(1)*fMapCollisionRate );

  0008f	6a 01		 push	 1
  00091	8d 8b e8 04 00
	00		 lea	 ecx, DWORD PTR [ebx+1256]
  00097	ff 15 00 00 00
	00		 call	 DWORD PTR __imp_?GetExtents@ioOrientBox@@QBEMH@Z
  0009d	d8 4d e8	 fmul	 DWORD PTR _fMapCollisionRate$[ebp]
  000a0	51		 push	 ecx
  000a1	8b 4d e4	 mov	 ecx, DWORD PTR tv399[ebp]
  000a4	d9 5d ec	 fstp	 DWORD PTR tv411[ebp]
  000a7	d9 45 ec	 fld	 DWORD PTR tv411[ebp]
  000aa	d9 1c 24	 fstp	 DWORD PTR [esp]
  000ad	6a 01		 push	 1
  000af	ff d6		 call	 esi

; 711  : 	m_WorldAttackBoxForMap.SetExtents( 2, m_WorldAttackBox.GetExtents(2)*fMapCollisionRate );

  000b1	6a 02		 push	 2
  000b3	8d 8b e8 04 00
	00		 lea	 ecx, DWORD PTR [ebx+1256]
  000b9	ff 15 00 00 00
	00		 call	 DWORD PTR __imp_?GetExtents@ioOrientBox@@QBEMH@Z
  000bf	d8 4d e8	 fmul	 DWORD PTR _fMapCollisionRate$[ebp]
  000c2	51		 push	 ecx
  000c3	8b 4d e4	 mov	 ecx, DWORD PTR tv399[ebp]
  000c6	d9 5d ec	 fstp	 DWORD PTR tv405[ebp]
  000c9	d9 45 ec	 fld	 DWORD PTR tv405[ebp]
  000cc	d9 1c 24	 fstp	 DWORD PTR [esp]
  000cf	6a 02		 push	 2
  000d1	ff d6		 call	 esi

; 712  : 
; 713  : 	if( !m_WorldAttackBox.IsNull() )

  000d3	8d 8b e8 04 00
	00		 lea	 ecx, DWORD PTR [ebx+1256]
  000d9	ff 15 00 00 00
	00		 call	 DWORD PTR __imp_?IsNull@ioOrientBox@@QBE_NXZ
  000df	84 c0		 test	 al, al
  000e1	0f 85 08 01 00
	00		 jne	 $LN1@UpdateWorl

; 714  : 	{
; 715  : 		if( m_fOwnerChargeScaleRate > FLOAT1 )

  000e7	b8 01 00 00 00	 mov	 eax, 1
  000ec	89 45 e8	 mov	 DWORD PTR $T537089[ebp], eax
  000ef	8d 45 ec	 lea	 eax, DWORD PTR _value$537097[ebp]
  000f2	50		 push	 eax
  000f3	8d 8b b0 01 00
	00		 lea	 ecx, DWORD PTR [ebx+432]
  000f9	e8 00 00 00 00	 call	 ?DecryptValueToPool@?$CEncrypt@M@@QAEXPAM@Z ; CEncrypt<float>::DecryptValueToPool
  000fe	d9 45 ec	 fld	 DWORD PTR _value$537097[ebp]
  00101	8b 45 e8	 mov	 eax, DWORD PTR $T537089[ebp]
  00104	db 45 e8	 fild	 DWORD PTR $T537089[ebp]
  00107	85 c0		 test	 eax, eax
  00109	79 06		 jns	 SHORT $LN25@UpdateWorl
  0010b	d8 05 00 00 00
	00		 fadd	 DWORD PTR __real@4f800000
$LN25@UpdateWorl:
  00111	d9 c9		 fxch	 ST(1)
  00113	df f1		 fcomip	 ST(1)
  00115	dd d8		 fstp	 ST(0)
  00117	0f 86 88 00 00
	00		 jbe	 $LN2@UpdateWorl

; 716  : 		{
; 717  : 			D3DXVECTOR3 vScale( m_fOwnerChargeScaleRate, m_fOwnerChargeScaleRate, m_fOwnerChargeScaleRate );

  0011d	8d 45 e0	 lea	 eax, DWORD PTR _value$537101[ebp]
  00120	50		 push	 eax
  00121	8d 8b b0 01 00
	00		 lea	 ecx, DWORD PTR [ebx+432]
  00127	e8 00 00 00 00	 call	 ?DecryptValueToPool@?$CEncrypt@M@@QAEXPAM@Z ; CEncrypt<float>::DecryptValueToPool
  0012c	8d 45 e8	 lea	 eax, DWORD PTR _value$537106[ebp]
  0012f	50		 push	 eax
  00130	8d 8b b0 01 00
	00		 lea	 ecx, DWORD PTR [ebx+432]
  00136	e8 00 00 00 00	 call	 ?DecryptValueToPool@?$CEncrypt@M@@QAEXPAM@Z ; CEncrypt<float>::DecryptValueToPool
  0013b	8d 45 ec	 lea	 eax, DWORD PTR _value$537111[ebp]
  0013e	50		 push	 eax
  0013f	8d 8b b0 01 00
	00		 lea	 ecx, DWORD PTR [ebx+432]
  00145	e8 00 00 00 00	 call	 ?DecryptValueToPool@?$CEncrypt@M@@QAEXPAM@Z ; CEncrypt<float>::DecryptValueToPool
  0014a	f3 0f 10 45 ec	 movss	 xmm0, DWORD PTR _value$537111[ebp]
  0014f	f3 0f 11 45 f0	 movss	 DWORD PTR _vScale$532090[ebp], xmm0
  00154	f3 0f 10 45 e8	 movss	 xmm0, DWORD PTR _value$537106[ebp]
  00159	f3 0f 11 45 f4	 movss	 DWORD PTR _vScale$532090[ebp+4], xmm0
  0015e	f3 0f 10 45 e0	 movss	 xmm0, DWORD PTR _value$537101[ebp]

; 718  : 			m_WorldAttackBox.Transform( GetPosition(), vScale, GetOrientation() );

  00163	8b cb		 mov	 ecx, ebx
  00165	f3 0f 11 45 f8	 movss	 DWORD PTR _vScale$532090[ebp+8], xmm0
  0016a	e8 00 00 00 00	 call	 ?GetOrientation@ioWeapon@@QBEABUD3DXQUATERNION@@XZ ; ioWeapon::GetOrientation
  0016f	50		 push	 eax
  00170	8d 45 f0	 lea	 eax, DWORD PTR _vScale$532090[ebp]
  00173	50		 push	 eax
  00174	8b 03		 mov	 eax, DWORD PTR [ebx]
  00176	8b cb		 mov	 ecx, ebx
  00178	ff 50 70	 call	 DWORD PTR [eax+112]
  0017b	8b 35 00 00 00
	00		 mov	 esi, DWORD PTR __imp_?Transform@ioOrientBox@@QAEXABUD3DXVECTOR3@@0ABUD3DXQUATERNION@@@Z
  00181	50		 push	 eax
  00182	8d 8b e8 04 00
	00		 lea	 ecx, DWORD PTR [ebx+1256]
  00188	ff d6		 call	 esi

; 719  : 			m_WorldAttackBoxForMap.Transform( GetPosition(), vScale, GetOrientation() );

  0018a	8b cb		 mov	 ecx, ebx
  0018c	e8 00 00 00 00	 call	 ?GetOrientation@ioWeapon@@QBEABUD3DXQUATERNION@@XZ ; ioWeapon::GetOrientation
  00191	50		 push	 eax
  00192	8d 45 f0	 lea	 eax, DWORD PTR _vScale$532090[ebp]
  00195	50		 push	 eax
$LN26@UpdateWorl:
  00196	8b 03		 mov	 eax, DWORD PTR [ebx]
  00198	8b cb		 mov	 ecx, ebx
  0019a	ff 50 70	 call	 DWORD PTR [eax+112]
  0019d	8b 4d e4	 mov	 ecx, DWORD PTR tv399[ebp]
  001a0	50		 push	 eax
  001a1	ff d6		 call	 esi

; 720  : 		}
; 721  : 		else

  001a3	eb 4a		 jmp	 SHORT $LN1@UpdateWorl
$LN2@UpdateWorl:

; 722  : 		{
; 723  : 			m_WorldAttackBox.Transform( GetPosition(), ioMath::UNIT_ALL, GetOrientation() );

  001a5	8b cb		 mov	 ecx, ebx
  001a7	e8 00 00 00 00	 call	 ?GetOrientation@ioWeapon@@QBEABUD3DXQUATERNION@@XZ ; ioWeapon::GetOrientation
  001ac	50		 push	 eax
  001ad	ff 35 00 00 00
	00		 push	 DWORD PTR __imp_?UNIT_ALL@ioMath@@2UD3DXVECTOR3@@A
  001b3	8b 03		 mov	 eax, DWORD PTR [ebx]
  001b5	8b cb		 mov	 ecx, ebx
  001b7	ff 50 70	 call	 DWORD PTR [eax+112]
  001ba	8b 35 00 00 00
	00		 mov	 esi, DWORD PTR __imp_?Transform@ioOrientBox@@QAEXABUD3DXVECTOR3@@0ABUD3DXQUATERNION@@@Z
  001c0	50		 push	 eax
  001c1	8d 8b e8 04 00
	00		 lea	 ecx, DWORD PTR [ebx+1256]
  001c7	ff d6		 call	 esi

; 724  : 			m_WorldAttackBoxForMap.Transform( GetPosition(), ioMath::UNIT_ALL, GetOrientation() );

  001c9	8b cb		 mov	 ecx, ebx
  001cb	e8 00 00 00 00	 call	 ?GetOrientation@ioWeapon@@QBEABUD3DXQUATERNION@@XZ ; ioWeapon::GetOrientation
  001d0	50		 push	 eax
  001d1	ff 35 00 00 00
	00		 push	 DWORD PTR __imp_?UNIT_ALL@ioMath@@2UD3DXVECTOR3@@A
  001d7	eb bd		 jmp	 SHORT $LN26@UpdateWorl
$LN4@UpdateWorl:

; 699  : 	{
; 700  : 		m_WorldAttackBox.SetNull();

  001d9	8b 35 00 00 00
	00		 mov	 esi, DWORD PTR __imp_?SetNull@ioOrientBox@@QAEXXZ
  001df	8d 8b e8 04 00
	00		 lea	 ecx, DWORD PTR [ebx+1256]
  001e5	ff d6		 call	 esi

; 701  : 		m_WorldAttackBoxForMap.SetNull();

  001e7	8d 8b 2c 05 00
	00		 lea	 ecx, DWORD PTR [ebx+1324]
  001ed	ff d6		 call	 esi
$LN1@UpdateWorl:

; 725  : 		}
; 726  : 	}
; 727  : }

  001ef	8b 4d fc	 mov	 ecx, DWORD PTR __$ArrayPad$[ebp]
  001f2	5f		 pop	 edi
  001f3	5e		 pop	 esi
  001f4	33 cd		 xor	 ecx, ebp
  001f6	5b		 pop	 ebx
  001f7	e8 00 00 00 00	 call	 @__security_check_cookie@4
  001fc	c9		 leave
  001fd	c2 08 00	 ret	 8
?UpdateWorldAttackBox@ioTraceWeaponType3@@MAEXM_N@Z ENDP ; ioTraceWeaponType3::UpdateWorldAttackBox
_TEXT	ENDS
PUBLIC	??0?$vector@UChangeDirInfo@@V?$allocator@UChangeDirInfo@@@std@@@std@@QAE@XZ ; std::vector<ChangeDirInfo,std::allocator<ChangeDirInfo> >::vector<ChangeDirInfo,std::allocator<ChangeDirInfo> >
; Function compile flags: /Ogsp
; File c:\program files (x86)\microsoft visual studio 10.0\vc\include\vector
;	COMDAT ??0?$vector@UChangeDirInfo@@V?$allocator@UChangeDirInfo@@@std@@@std@@QAE@XZ
_TEXT	SEGMENT
??0?$vector@UChangeDirInfo@@V?$allocator@UChangeDirInfo@@@std@@@std@@QAE@XZ PROC ; std::vector<ChangeDirInfo,std::allocator<ChangeDirInfo> >::vector<ChangeDirInfo,std::allocator<ChangeDirInfo> >, COMDAT
; _this$ = ecx

; 507  : 		{	// construct empty vector

  00000	8b c1		 mov	 eax, ecx
  00002	33 c9		 xor	 ecx, ecx
  00004	89 08		 mov	 DWORD PTR [eax], ecx
  00006	89 48 04	 mov	 DWORD PTR [eax+4], ecx
  00009	89 48 08	 mov	 DWORD PTR [eax+8], ecx

; 508  : 		}

  0000c	c3		 ret	 0
??0?$vector@UChangeDirInfo@@V?$allocator@UChangeDirInfo@@@std@@@std@@QAE@XZ ENDP ; std::vector<ChangeDirInfo,std::allocator<ChangeDirInfo> >::vector<ChangeDirInfo,std::allocator<ChangeDirInfo> >
_TEXT	ENDS
PUBLIC	?begin@?$vector@UChangeDirInfo@@V?$allocator@UChangeDirInfo@@@std@@@std@@QAE?AV?$_Vector_iterator@V?$_Vector_val@UChangeDirInfo@@V?$allocator@UChangeDirInfo@@@std@@@std@@@2@XZ ; std::vector<ChangeDirInfo,std::allocator<ChangeDirInfo> >::begin
; Function compile flags: /Ogsp
;	COMDAT ?begin@?$vector@UChangeDirInfo@@V?$allocator@UChangeDirInfo@@@std@@@std@@QAE?AV?$_Vector_iterator@V?$_Vector_val@UChangeDirInfo@@V?$allocator@UChangeDirInfo@@@std@@@std@@@2@XZ
_TEXT	SEGMENT
___$ReturnUdt$ = 8					; size = 4
?begin@?$vector@UChangeDirInfo@@V?$allocator@UChangeDirInfo@@@std@@@std@@QAE?AV?$_Vector_iterator@V?$_Vector_val@UChangeDirInfo@@V?$allocator@UChangeDirInfo@@@std@@@std@@@2@XZ PROC ; std::vector<ChangeDirInfo,std::allocator<ChangeDirInfo> >::begin, COMDAT
; _this$ = ecx

; 781  : 		{	// return iterator for beginning of mutable sequence

  00000	55		 push	 ebp
  00001	8b ec		 mov	 ebp, esp

; 782  : 		return (iterator(this->_Myfirst, this));

  00003	8b 09		 mov	 ecx, DWORD PTR [ecx]
  00005	8b 45 08	 mov	 eax, DWORD PTR ___$ReturnUdt$[ebp]
  00008	89 08		 mov	 DWORD PTR [eax], ecx

; 783  : 		}

  0000a	5d		 pop	 ebp
  0000b	c2 04 00	 ret	 4
?begin@?$vector@UChangeDirInfo@@V?$allocator@UChangeDirInfo@@@std@@@std@@QAE?AV?$_Vector_iterator@V?$_Vector_val@UChangeDirInfo@@V?$allocator@UChangeDirInfo@@@std@@@std@@@2@XZ ENDP ; std::vector<ChangeDirInfo,std::allocator<ChangeDirInfo> >::begin
_TEXT	ENDS
PUBLIC	?end@?$vector@UChangeDirInfo@@V?$allocator@UChangeDirInfo@@@std@@@std@@QAE?AV?$_Vector_iterator@V?$_Vector_val@UChangeDirInfo@@V?$allocator@UChangeDirInfo@@@std@@@std@@@2@XZ ; std::vector<ChangeDirInfo,std::allocator<ChangeDirInfo> >::end
; Function compile flags: /Ogsp
;	COMDAT ?end@?$vector@UChangeDirInfo@@V?$allocator@UChangeDirInfo@@@std@@@std@@QAE?AV?$_Vector_iterator@V?$_Vector_val@UChangeDirInfo@@V?$allocator@UChangeDirInfo@@@std@@@std@@@2@XZ
_TEXT	SEGMENT
___$ReturnUdt$ = 8					; size = 4
?end@?$vector@UChangeDirInfo@@V?$allocator@UChangeDirInfo@@@std@@@std@@QAE?AV?$_Vector_iterator@V?$_Vector_val@UChangeDirInfo@@V?$allocator@UChangeDirInfo@@@std@@@std@@@2@XZ PROC ; std::vector<ChangeDirInfo,std::allocator<ChangeDirInfo> >::end, COMDAT
; _this$ = ecx

; 791  : 		{	// return iterator for end of mutable sequence

  00000	55		 push	 ebp
  00001	8b ec		 mov	 ebp, esp

; 792  : 		return (iterator(this->_Mylast, this));

  00003	8b 49 04	 mov	 ecx, DWORD PTR [ecx+4]
  00006	8b 45 08	 mov	 eax, DWORD PTR ___$ReturnUdt$[ebp]
  00009	89 08		 mov	 DWORD PTR [eax], ecx

; 793  : 		}

  0000b	5d		 pop	 ebp
  0000c	c2 04 00	 ret	 4
?end@?$vector@UChangeDirInfo@@V?$allocator@UChangeDirInfo@@@std@@@std@@QAE?AV?$_Vector_iterator@V?$_Vector_val@UChangeDirInfo@@V?$allocator@UChangeDirInfo@@@std@@@std@@@2@XZ ENDP ; std::vector<ChangeDirInfo,std::allocator<ChangeDirInfo> >::end
_TEXT	ENDS
PUBLIC	?_Make_iter@?$vector@UChangeDirInfo@@V?$allocator@UChangeDirInfo@@@std@@@std@@QBE?AV?$_Vector_iterator@V?$_Vector_val@UChangeDirInfo@@V?$allocator@UChangeDirInfo@@@std@@@std@@@2@V?$_Vector_const_iterator@V?$_Vector_val@UChangeDirInfo@@V?$allocator@UChangeDirInfo@@@std@@@std@@@2@@Z ; std::vector<ChangeDirInfo,std::allocator<ChangeDirInfo> >::_Make_iter
; Function compile flags: /Ogsp
;	COMDAT ?_Make_iter@?$vector@UChangeDirInfo@@V?$allocator@UChangeDirInfo@@@std@@@std@@QBE?AV?$_Vector_iterator@V?$_Vector_val@UChangeDirInfo@@V?$allocator@UChangeDirInfo@@@std@@@std@@@2@V?$_Vector_const_iterator@V?$_Vector_val@UChangeDirInfo@@V?$allocator@UChangeDirInfo@@@std@@@std@@@2@@Z
_TEXT	SEGMENT
___$ReturnUdt$ = 8					; size = 4
__Where$ = 12						; size = 4
?_Make_iter@?$vector@UChangeDirInfo@@V?$allocator@UChangeDirInfo@@@std@@@std@@QBE?AV?$_Vector_iterator@V?$_Vector_val@UChangeDirInfo@@V?$allocator@UChangeDirInfo@@@std@@@std@@@2@V?$_Vector_const_iterator@V?$_Vector_val@UChangeDirInfo@@V?$allocator@UChangeDirInfo@@@std@@@std@@@2@@Z PROC ; std::vector<ChangeDirInfo,std::allocator<ChangeDirInfo> >::_Make_iter, COMDAT
; _this$ = ecx

; 801  : 		{	// make iterator from const_iterator

  00000	55		 push	 ebp
  00001	8b ec		 mov	 ebp, esp

; 802  : 		return (iterator(_Where._Ptr, this));

  00003	8b 45 08	 mov	 eax, DWORD PTR ___$ReturnUdt$[ebp]
  00006	8b 4d 0c	 mov	 ecx, DWORD PTR __Where$[ebp]
  00009	89 08		 mov	 DWORD PTR [eax], ecx

; 803  : 		}

  0000b	5d		 pop	 ebp
  0000c	c2 08 00	 ret	 8
?_Make_iter@?$vector@UChangeDirInfo@@V?$allocator@UChangeDirInfo@@@std@@@std@@QBE?AV?$_Vector_iterator@V?$_Vector_val@UChangeDirInfo@@V?$allocator@UChangeDirInfo@@@std@@@std@@@2@V?$_Vector_const_iterator@V?$_Vector_val@UChangeDirInfo@@V?$allocator@UChangeDirInfo@@@std@@@std@@@2@@Z ENDP ; std::vector<ChangeDirInfo,std::allocator<ChangeDirInfo> >::_Make_iter
_TEXT	ENDS
PUBLIC	??9?$_Vector_const_iterator@V?$_Vector_val@UChangeDirInfo@@V?$allocator@UChangeDirInfo@@@std@@@std@@@std@@QBE_NABV01@@Z ; std::_Vector_const_iterator<std::_Vector_val<ChangeDirInfo,std::allocator<ChangeDirInfo> > >::operator!=
; Function compile flags: /Ogsp
;	COMDAT ??9?$_Vector_const_iterator@V?$_Vector_val@UChangeDirInfo@@V?$allocator@UChangeDirInfo@@@std@@@std@@@std@@QBE_NABV01@@Z
_TEXT	SEGMENT
__Right$ = 8						; size = 4
??9?$_Vector_const_iterator@V?$_Vector_val@UChangeDirInfo@@V?$allocator@UChangeDirInfo@@@std@@@std@@@std@@QBE_NABV01@@Z PROC ; std::_Vector_const_iterator<std::_Vector_val<ChangeDirInfo,std::allocator<ChangeDirInfo> > >::operator!=, COMDAT
; _this$ = ecx

; 207  : 		{	// test for iterator inequality

  00000	55		 push	 ebp
  00001	8b ec		 mov	 ebp, esp

; 208  : 		return (!(*this == _Right));

  00003	8b 01		 mov	 eax, DWORD PTR [ecx]
  00005	8b 55 08	 mov	 edx, DWORD PTR __Right$[ebp]
  00008	33 c9		 xor	 ecx, ecx
  0000a	3b 02		 cmp	 eax, DWORD PTR [edx]
  0000c	0f 95 c0	 setne	 al

; 209  : 		}

  0000f	5d		 pop	 ebp
  00010	c2 04 00	 ret	 4
??9?$_Vector_const_iterator@V?$_Vector_val@UChangeDirInfo@@V?$allocator@UChangeDirInfo@@@std@@@std@@@std@@QBE_NABV01@@Z ENDP ; std::_Vector_const_iterator<std::_Vector_val<ChangeDirInfo,std::allocator<ChangeDirInfo> > >::operator!=
_TEXT	ENDS
PUBLIC	??$_Cons_val@V?$allocator@UChangeDirInfo@@@std@@UChangeDirInfo@@ABU3@@std@@YAXAAV?$allocator@UChangeDirInfo@@@0@PAUChangeDirInfo@@ABU2@@Z ; std::_Cons_val<std::allocator<ChangeDirInfo>,ChangeDirInfo,ChangeDirInfo const &>
; Function compile flags: /Ogsp
; File c:\program files (x86)\microsoft visual studio 10.0\vc\include\xmemory
;	COMDAT ??$_Cons_val@V?$allocator@UChangeDirInfo@@@std@@UChangeDirInfo@@ABU3@@std@@YAXAAV?$allocator@UChangeDirInfo@@@0@PAUChangeDirInfo@@ABU2@@Z
_TEXT	SEGMENT
__Alval$ = 8						; size = 4
__Pdest$ = 12						; size = 4
__Src$ = 16						; size = 4
??$_Cons_val@V?$allocator@UChangeDirInfo@@@std@@UChangeDirInfo@@ABU3@@std@@YAXAAV?$allocator@UChangeDirInfo@@@0@PAUChangeDirInfo@@ABU2@@Z PROC ; std::_Cons_val<std::allocator<ChangeDirInfo>,ChangeDirInfo,ChangeDirInfo const &>, COMDAT

; 279  : 	{	// construct using allocator

  00000	55		 push	 ebp
  00001	8b ec		 mov	 ebp, esp
  00003	57		 push	 edi

; 280  : 	_Alval.construct(_Pdest, _STD forward<_Ty2>(_Src));

  00004	8b 7d 0c	 mov	 edi, DWORD PTR __Pdest$[ebp]
  00007	85 ff		 test	 edi, edi
  00009	74 0a		 je	 SHORT $LN9@Cons_val@2
  0000b	56		 push	 esi
  0000c	8b 75 10	 mov	 esi, DWORD PTR __Src$[ebp]
  0000f	6a 07		 push	 7
  00011	59		 pop	 ecx
  00012	f3 a5		 rep movsd
  00014	5e		 pop	 esi
$LN9@Cons_val@2:
  00015	5f		 pop	 edi

; 281  : 	}

  00016	5d		 pop	 ebp
  00017	c3		 ret	 0
??$_Cons_val@V?$allocator@UChangeDirInfo@@@std@@UChangeDirInfo@@ABU3@@std@@YAXAAV?$allocator@UChangeDirInfo@@@0@PAUChangeDirInfo@@ABU2@@Z ENDP ; std::_Cons_val<std::allocator<ChangeDirInfo>,ChangeDirInfo,ChangeDirInfo const &>
_TEXT	ENDS
PUBLIC	??$_Move@PAUChangeDirInfo@@PAU1@@std@@YAPAUChangeDirInfo@@PAU1@00@Z ; std::_Move<ChangeDirInfo *,ChangeDirInfo *>
; Function compile flags: /Ogsp
; File c:\program files (x86)\microsoft visual studio 10.0\vc\include\xutility
;	COMDAT ??$_Move@PAUChangeDirInfo@@PAU1@@std@@YAPAUChangeDirInfo@@PAU1@00@Z
_TEXT	SEGMENT
__Cat$537246 = -4					; size = 1
__First$ = 8						; size = 4
__Last$ = 12						; size = 4
__Dest$ = 16						; size = 4
??$_Move@PAUChangeDirInfo@@PAU1@@std@@YAPAUChangeDirInfo@@PAU1@00@Z PROC ; std::_Move<ChangeDirInfo *,ChangeDirInfo *>, COMDAT

; 2533 : 	{	// move [_First, _Last) to [_Dest, ...), unchecked

  00000	55		 push	 ebp
  00001	8b ec		 mov	 ebp, esp
  00003	51		 push	 ecx

; 2534 : 	return (_Move(_First, _Last,
; 2535 : 		_Dest, _Ptr_cat(_First, _Dest)));

  00004	ff 75 fc	 push	 DWORD PTR __Cat$537246[ebp]
  00007	ff 75 10	 push	 DWORD PTR __Dest$[ebp]
  0000a	ff 75 0c	 push	 DWORD PTR __Last$[ebp]
  0000d	ff 75 08	 push	 DWORD PTR __First$[ebp]
  00010	e8 00 00 00 00	 call	 ??$_Move@PAUChangeDirInfo@@PAU1@@std@@YAPAUChangeDirInfo@@PAU1@00U_Nonscalar_ptr_iterator_tag@0@@Z ; std::_Move<ChangeDirInfo *,ChangeDirInfo *>
  00015	83 c4 10	 add	 esp, 16			; 00000010H

; 2536 : 	}

  00018	c9		 leave
  00019	c3		 ret	 0
??$_Move@PAUChangeDirInfo@@PAU1@@std@@YAPAUChangeDirInfo@@PAU1@00@Z ENDP ; std::_Move<ChangeDirInfo *,ChangeDirInfo *>
_TEXT	ENDS
PUBLIC	??$_Dest_val@V?$allocator@UChangeDirInfo@@@std@@UChangeDirInfo@@@std@@YAXAAV?$allocator@UChangeDirInfo@@@0@PAUChangeDirInfo@@@Z ; std::_Dest_val<std::allocator<ChangeDirInfo>,ChangeDirInfo>
; Function compile flags: /Ogsp
; File c:\program files (x86)\microsoft visual studio 10.0\vc\include\xmemory
;	COMDAT ??$_Dest_val@V?$allocator@UChangeDirInfo@@@std@@UChangeDirInfo@@@std@@YAXAAV?$allocator@UChangeDirInfo@@@0@PAUChangeDirInfo@@@Z
_TEXT	SEGMENT
__Alval$ = 8						; size = 4
__Pdest$ = 12						; size = 4
??$_Dest_val@V?$allocator@UChangeDirInfo@@@std@@UChangeDirInfo@@@std@@YAXAAV?$allocator@UChangeDirInfo@@@0@PAUChangeDirInfo@@@Z PROC ; std::_Dest_val<std::allocator<ChangeDirInfo>,ChangeDirInfo>, COMDAT

; 287  : 	_Alval.destroy(_Pdest);
; 288  : 	}

  00000	c3		 ret	 0
??$_Dest_val@V?$allocator@UChangeDirInfo@@@std@@UChangeDirInfo@@@std@@YAXAAV?$allocator@UChangeDirInfo@@@0@PAUChangeDirInfo@@@Z ENDP ; std::_Dest_val<std::allocator<ChangeDirInfo>,ChangeDirInfo>
_TEXT	ENDS
PUBLIC	??$iter_swap@PAUChangeDirInfo@@PAU1@@std@@YAXPAUChangeDirInfo@@0@Z ; std::iter_swap<ChangeDirInfo *,ChangeDirInfo *>
; Function compile flags: /Ogsp
; File c:\program files (x86)\microsoft visual studio 10.0\vc\include\xutility
;	COMDAT ??$iter_swap@PAUChangeDirInfo@@PAU1@@std@@YAXPAUChangeDirInfo@@0@Z
_TEXT	SEGMENT
__Left$ = 8						; size = 4
__Right$ = 12						; size = 4
??$iter_swap@PAUChangeDirInfo@@PAU1@@std@@YAXPAUChangeDirInfo@@0@Z PROC ; std::iter_swap<ChangeDirInfo *,ChangeDirInfo *>, COMDAT

; 2133 : 	{	// swap *_Left and *_Right

  00000	55		 push	 ebp
  00001	8b ec		 mov	 ebp, esp

; 2135 : 	}

  00003	5d		 pop	 ebp

; 2134 : 	swap(*_Left, *_Right);

  00004	e9 00 00 00 00	 jmp	 ??$swap@UChangeDirInfo@@@std@@YAXAAUChangeDirInfo@@0@Z ; std::swap<ChangeDirInfo>
??$iter_swap@PAUChangeDirInfo@@PAU1@@std@@YAXPAUChangeDirInfo@@0@Z ENDP ; std::iter_swap<ChangeDirInfo *,ChangeDirInfo *>
_TEXT	ENDS
PUBLIC	??$_Insertion_sort1@PAUChangeDirInfo@@VChangeDirSort@@U1@@std@@YAXPAUChangeDirInfo@@0VChangeDirSort@@0@Z ; std::_Insertion_sort1<ChangeDirInfo *,ChangeDirSort,ChangeDirInfo>
; Function compile flags: /Ogsp
; File c:\program files (x86)\microsoft visual studio 10.0\vc\include\algorithm
;	COMDAT ??$_Insertion_sort1@PAUChangeDirInfo@@VChangeDirSort@@U1@@std@@YAXPAUChangeDirInfo@@0VChangeDirSort@@0@Z
_TEXT	SEGMENT
__Val$534912 = -32					; size = 28
__Next1$534911 = -4					; size = 4
__Cat$537287 = 8					; size = 1
__First$ = 8						; size = 4
__Last$ = 12						; size = 4
__Pred$ = 16						; size = 1
___formal$ = 20						; size = 4
??$_Insertion_sort1@PAUChangeDirInfo@@VChangeDirSort@@U1@@std@@YAXPAUChangeDirInfo@@0VChangeDirSort@@0@Z PROC ; std::_Insertion_sort1<ChangeDirInfo *,ChangeDirSort,ChangeDirInfo>, COMDAT

; 3650 : 	{	// insertion sort [_First, _Last), using _Pred

  00000	55		 push	 ebp
  00001	8b ec		 mov	 ebp, esp

; 3651 : 	if (_First != _Last)

  00003	8b 55 08	 mov	 edx, DWORD PTR __First$[ebp]
  00006	83 ec 20	 sub	 esp, 32			; 00000020H
  00009	3b 55 0c	 cmp	 edx, DWORD PTR __Last$[ebp]
  0000c	0f 84 e1 00 00
	00		 je	 $LN6@Insertion_

; 3652 : 		for (_BidIt _Next = _First; ++_Next != _Last; )

  00012	53		 push	 ebx
  00013	8d 5a 1c	 lea	 ebx, DWORD PTR [edx+28]
  00016	3b 5d 0c	 cmp	 ebx, DWORD PTR __Last$[ebp]
  00019	0f 84 d3 00 00
	00		 je	 $LN40@Insertion_
  0001f	56		 push	 esi
  00020	57		 push	 edi
  00021	eb 03		 jmp	 SHORT $LN7@Insertion_
$LL39@Insertion_:
  00023	8b 55 08	 mov	 edx, DWORD PTR __First$[ebp]
$LN7@Insertion_:

; 3653 : 			{	// order next element
; 3654 : 			_BidIt _Next1 = _Next;
; 3655 : 			_Ty _Val = _Move(*_Next);
; 3656 : 
; 3657 : 			if (_DEBUG_LT_PRED(_Pred, _Val, *_First))

  00026	f3 0f 10 02	 movss	 xmm0, DWORD PTR [edx]
  0002a	6a 07		 push	 7
  0002c	59		 pop	 ecx
  0002d	8b f3		 mov	 esi, ebx
  0002f	8d 7d e0	 lea	 edi, DWORD PTR __Val$534912[ebp]
  00032	f3 a5		 rep movsd
  00034	f3 0f 10 4d e0	 movss	 xmm1, DWORD PTR __Val$534912[ebp]
  00039	0f 5a d1	 cvtps2pd xmm2, xmm1
  0003c	0f 5a d8	 cvtps2pd xmm3, xmm0
  0003f	66 0f 2f da	 comisd	 xmm3, xmm2
  00043	89 5d fc	 mov	 DWORD PTR __Next1$534911[ebp], ebx
  00046	77 29		 ja	 SHORT $LN37@Insertion_
  00048	0f 57 d2	 xorps	 xmm2, xmm2
  0004b	0f 5a d1	 cvtps2pd xmm2, xmm1
  0004e	0f 5a c0	 cvtps2pd xmm0, xmm0
  00051	66 0f 2e d0	 ucomisd xmm2, xmm0
  00055	9f		 lahf
  00056	f6 c4 44	 test	 ah, 68			; 00000044H
  00059	7a 2c		 jp	 SHORT $LN5@Insertion_
  0005b	f3 0f 10 45 ec	 movss	 xmm0, DWORD PTR __Val$534912[ebp+12]
  00060	f3 0f 10 52 0c	 movss	 xmm2, DWORD PTR [edx+12]
  00065	0f 5a c0	 cvtps2pd xmm0, xmm0
  00068	0f 5a d2	 cvtps2pd xmm2, xmm2
  0006b	66 0f 2f d0	 comisd	 xmm2, xmm0
  0006f	76 16		 jbe	 SHORT $LN5@Insertion_
$LN37@Insertion_:

; 3658 : 				{	// found new earliest element, move to front
; 3659 : 				_Move_backward(_First, _Next, ++_Next1);

  00071	ff 75 08	 push	 DWORD PTR __Cat$537287[ebp]
  00074	8d 43 1c	 lea	 eax, DWORD PTR [ebx+28]
  00077	50		 push	 eax
  00078	53		 push	 ebx
  00079	52		 push	 edx
  0007a	e8 00 00 00 00	 call	 ??$_Move_backward@PAUChangeDirInfo@@PAU1@@std@@YAPAUChangeDirInfo@@PAU1@00U_Nonscalar_ptr_iterator_tag@0@@Z ; std::_Move_backward<ChangeDirInfo *,ChangeDirInfo *>

; 3660 : 				*_First = _Move(_Val);

  0007f	8b 7d 08	 mov	 edi, DWORD PTR __First$[ebp]
  00082	83 c4 10	 add	 esp, 16			; 00000010H

; 3661 : 				}
; 3662 : 			else

  00085	eb 55		 jmp	 SHORT $LN42@Insertion_
$LN5@Insertion_:

; 3663 : 				{	// look for insertion point after first
; 3664 : 				for (_BidIt _First1 = _Next1;

  00087	8b d3		 mov	 edx, ebx
$LL3@Insertion_:

; 3665 : 					_DEBUG_LT_PRED(_Pred, _Val, *--_First1);
; 3666 : 					_Next1 = _First1)

  00089	83 ea 1c	 sub	 edx, 28			; 0000001cH
  0008c	f3 0f 10 02	 movss	 xmm0, DWORD PTR [edx]
  00090	0f 57 d2	 xorps	 xmm2, xmm2
  00093	f3 0f 5a d1	 cvtss2sd xmm2, xmm1
  00097	0f 5a d8	 cvtps2pd xmm3, xmm0
  0009a	66 0f 2f da	 comisd	 xmm3, xmm2
  0009e	77 2a		 ja	 SHORT $LN38@Insertion_
  000a0	0f 57 d2	 xorps	 xmm2, xmm2
  000a3	f3 0f 5a d1	 cvtss2sd xmm2, xmm1
  000a7	0f 5a c0	 cvtps2pd xmm0, xmm0
  000aa	66 0f 2e d0	 ucomisd xmm2, xmm0
  000ae	9f		 lahf
  000af	f6 c4 44	 test	 ah, 68			; 00000044H
  000b2	7a 25		 jp	 SHORT $LN25@Insertion_
  000b4	f3 0f 10 45 ec	 movss	 xmm0, DWORD PTR __Val$534912[ebp+12]
  000b9	f3 0f 10 52 0c	 movss	 xmm2, DWORD PTR [edx+12]
  000be	0f 5a c0	 cvtps2pd xmm0, xmm0
  000c1	0f 5a d2	 cvtps2pd xmm2, xmm2
  000c4	66 0f 2f d0	 comisd	 xmm2, xmm0
  000c8	76 0f		 jbe	 SHORT $LN25@Insertion_
$LN38@Insertion_:

; 3667 : 					*_Next1 = _Move(*_First1);	// move hole down

  000ca	8b 7d fc	 mov	 edi, DWORD PTR __Next1$534911[ebp]
  000cd	6a 07		 push	 7
  000cf	59		 pop	 ecx
  000d0	8b f2		 mov	 esi, edx
  000d2	f3 a5		 rep movsd
  000d4	89 55 fc	 mov	 DWORD PTR __Next1$534911[ebp], edx
  000d7	eb b0		 jmp	 SHORT $LL3@Insertion_

; 3665 : 					_DEBUG_LT_PRED(_Pred, _Val, *--_First1);
; 3666 : 					_Next1 = _First1)

$LN25@Insertion_:

; 3668 : 				*_Next1 = _Move(_Val);	// insert element in hole

  000d9	8b 7d fc	 mov	 edi, DWORD PTR __Next1$534911[ebp]
$LN42@Insertion_:
  000dc	6a 07		 push	 7
  000de	83 c3 1c	 add	 ebx, 28			; 0000001cH
  000e1	59		 pop	 ecx
  000e2	8d 75 e0	 lea	 esi, DWORD PTR __Val$534912[ebp]
  000e5	f3 a5		 rep movsd
  000e7	3b 5d 0c	 cmp	 ebx, DWORD PTR __Last$[ebp]
  000ea	0f 85 33 ff ff
	ff		 jne	 $LL39@Insertion_
  000f0	5f		 pop	 edi
  000f1	5e		 pop	 esi
$LN40@Insertion_:
  000f2	5b		 pop	 ebx
$LN6@Insertion_:

; 3669 : 				}
; 3670 : 			}
; 3671 : 	}

  000f3	c9		 leave
  000f4	c3		 ret	 0
??$_Insertion_sort1@PAUChangeDirInfo@@VChangeDirSort@@U1@@std@@YAXPAUChangeDirInfo@@0VChangeDirSort@@0@Z ENDP ; std::_Insertion_sort1<ChangeDirInfo *,ChangeDirSort,ChangeDirInfo>
_TEXT	ENDS
PUBLIC	??$_Cons_val@V?$allocator@UChangeDirInfo@@@std@@UChangeDirInfo@@U3@@std@@YAXAAV?$allocator@UChangeDirInfo@@@0@PAUChangeDirInfo@@$$QAU2@@Z ; std::_Cons_val<std::allocator<ChangeDirInfo>,ChangeDirInfo,ChangeDirInfo>
; Function compile flags: /Ogsp
; File c:\program files (x86)\microsoft visual studio 10.0\vc\include\xmemory
;	COMDAT ??$_Cons_val@V?$allocator@UChangeDirInfo@@@std@@UChangeDirInfo@@U3@@std@@YAXAAV?$allocator@UChangeDirInfo@@@0@PAUChangeDirInfo@@$$QAU2@@Z
_TEXT	SEGMENT
__Alval$ = 8						; size = 4
__Pdest$ = 12						; size = 4
__Src$ = 16						; size = 4
??$_Cons_val@V?$allocator@UChangeDirInfo@@@std@@UChangeDirInfo@@U3@@std@@YAXAAV?$allocator@UChangeDirInfo@@@0@PAUChangeDirInfo@@$$QAU2@@Z PROC ; std::_Cons_val<std::allocator<ChangeDirInfo>,ChangeDirInfo,ChangeDirInfo>, COMDAT

; 279  : 	{	// construct using allocator

  00000	55		 push	 ebp
  00001	8b ec		 mov	 ebp, esp
  00003	57		 push	 edi

; 280  : 	_Alval.construct(_Pdest, _STD forward<_Ty2>(_Src));

  00004	8b 7d 0c	 mov	 edi, DWORD PTR __Pdest$[ebp]
  00007	85 ff		 test	 edi, edi
  00009	74 0a		 je	 SHORT $LN7@Cons_val@3
  0000b	56		 push	 esi
  0000c	8b 75 10	 mov	 esi, DWORD PTR __Src$[ebp]
  0000f	6a 07		 push	 7
  00011	59		 pop	 ecx
  00012	f3 a5		 rep movsd
  00014	5e		 pop	 esi
$LN7@Cons_val@3:
  00015	5f		 pop	 edi

; 281  : 	}

  00016	5d		 pop	 ebp
  00017	c3		 ret	 0
??$_Cons_val@V?$allocator@UChangeDirInfo@@@std@@UChangeDirInfo@@U3@@std@@YAXAAV?$allocator@UChangeDirInfo@@@0@PAUChangeDirInfo@@$$QAU2@@Z ENDP ; std::_Cons_val<std::allocator<ChangeDirInfo>,ChangeDirInfo,ChangeDirInfo>
_TEXT	ENDS
PUBLIC	??$_Med3@PAUChangeDirInfo@@VChangeDirSort@@@std@@YAXPAUChangeDirInfo@@00VChangeDirSort@@@Z ; std::_Med3<ChangeDirInfo *,ChangeDirSort>
; Function compile flags: /Ogsp
; File c:\program files (x86)\microsoft visual studio 10.0\vc\include\algorithm
;	COMDAT ??$_Med3@PAUChangeDirInfo@@VChangeDirSort@@@std@@YAXPAUChangeDirInfo@@00VChangeDirSort@@@Z
_TEXT	SEGMENT
__First$ = 8						; size = 4
__Mid$ = 12						; size = 4
__Last$ = 16						; size = 4
__Pred$ = 20						; size = 1
??$_Med3@PAUChangeDirInfo@@VChangeDirSort@@@std@@YAXPAUChangeDirInfo@@00VChangeDirSort@@@Z PROC ; std::_Med3<ChangeDirInfo *,ChangeDirSort>, COMDAT

; 3683 : 	{	// sort median of three elements to middle

  00000	55		 push	 ebp
  00001	8b ec		 mov	 ebp, esp
  00003	56		 push	 esi

; 3684 : 	if (_DEBUG_LT_PRED(_Pred, *_Mid, *_First))

  00004	8b 75 0c	 mov	 esi, DWORD PTR __Mid$[ebp]
  00007	f3 0f 10 06	 movss	 xmm0, DWORD PTR [esi]
  0000b	57		 push	 edi
  0000c	8b 7d 08	 mov	 edi, DWORD PTR __First$[ebp]
  0000f	f3 0f 10 0f	 movss	 xmm1, DWORD PTR [edi]
  00013	0f 5a d0	 cvtps2pd xmm2, xmm0
  00016	0f 5a d9	 cvtps2pd xmm3, xmm1
  00019	66 0f 2f da	 comisd	 xmm3, xmm2
  0001d	77 26		 ja	 SHORT $LN30@Med3
  0001f	0f 5a c0	 cvtps2pd xmm0, xmm0
  00022	0f 5a c9	 cvtps2pd xmm1, xmm1
  00025	66 0f 2e c1	 ucomisd xmm0, xmm1
  00029	9f		 lahf
  0002a	f6 c4 44	 test	 ah, 68			; 00000044H
  0002d	7a 1f		 jp	 SHORT $LN12@Med3
  0002f	f3 0f 10 46 0c	 movss	 xmm0, DWORD PTR [esi+12]
  00034	f3 0f 10 4f 0c	 movss	 xmm1, DWORD PTR [edi+12]
  00039	0f 5a c0	 cvtps2pd xmm0, xmm0
  0003c	0f 5a c9	 cvtps2pd xmm1, xmm1
  0003f	66 0f 2f c8	 comisd	 xmm1, xmm0
  00043	76 09		 jbe	 SHORT $LN12@Med3
$LN30@Med3:

; 3685 : 		_STD iter_swap(_Mid, _First);

  00045	57		 push	 edi
  00046	56		 push	 esi
  00047	e8 00 00 00 00	 call	 ??$swap@UChangeDirInfo@@@std@@YAXAAUChangeDirInfo@@0@Z ; std::swap<ChangeDirInfo>
  0004c	59		 pop	 ecx
  0004d	59		 pop	 ecx
$LN12@Med3:

; 3686 : 	if (_DEBUG_LT_PRED(_Pred, *_Last, *_Mid))

  0004e	8b 4d 10	 mov	 ecx, DWORD PTR __Last$[ebp]
  00051	f3 0f 10 01	 movss	 xmm0, DWORD PTR [ecx]
  00055	f3 0f 10 0e	 movss	 xmm1, DWORD PTR [esi]
  00059	0f 5a d0	 cvtps2pd xmm2, xmm0
  0005c	0f 5a d9	 cvtps2pd xmm3, xmm1
  0005f	66 0f 2f da	 comisd	 xmm3, xmm2
  00063	77 26		 ja	 SHORT $LN31@Med3
  00065	0f 5a c0	 cvtps2pd xmm0, xmm0
  00068	0f 5a c9	 cvtps2pd xmm1, xmm1
  0006b	66 0f 2e c1	 ucomisd xmm0, xmm1
  0006f	9f		 lahf
  00070	f6 c4 44	 test	 ah, 68			; 00000044H
  00073	7a 1f		 jp	 SHORT $LN20@Med3
  00075	f3 0f 10 41 0c	 movss	 xmm0, DWORD PTR [ecx+12]
  0007a	f3 0f 10 4e 0c	 movss	 xmm1, DWORD PTR [esi+12]
  0007f	0f 5a c0	 cvtps2pd xmm0, xmm0
  00082	0f 5a c9	 cvtps2pd xmm1, xmm1
  00085	66 0f 2f c8	 comisd	 xmm1, xmm0
  00089	76 09		 jbe	 SHORT $LN20@Med3
$LN31@Med3:

; 3687 : 		_STD iter_swap(_Last, _Mid);

  0008b	56		 push	 esi
  0008c	51		 push	 ecx
  0008d	e8 00 00 00 00	 call	 ??$swap@UChangeDirInfo@@@std@@YAXAAUChangeDirInfo@@0@Z ; std::swap<ChangeDirInfo>
  00092	59		 pop	 ecx
  00093	59		 pop	 ecx
$LN20@Med3:

; 3688 : 	if (_DEBUG_LT_PRED(_Pred, *_Mid, *_First))

  00094	f3 0f 10 06	 movss	 xmm0, DWORD PTR [esi]
  00098	f3 0f 10 0f	 movss	 xmm1, DWORD PTR [edi]
  0009c	0f 5a d0	 cvtps2pd xmm2, xmm0
  0009f	0f 5a d9	 cvtps2pd xmm3, xmm1
  000a2	66 0f 2f da	 comisd	 xmm3, xmm2
  000a6	77 26		 ja	 SHORT $LN32@Med3
  000a8	0f 5a c0	 cvtps2pd xmm0, xmm0
  000ab	0f 5a c9	 cvtps2pd xmm1, xmm1
  000ae	66 0f 2e c1	 ucomisd xmm0, xmm1
  000b2	9f		 lahf
  000b3	f6 c4 44	 test	 ah, 68			; 00000044H
  000b6	7a 1f		 jp	 SHORT $LN28@Med3
  000b8	f3 0f 10 46 0c	 movss	 xmm0, DWORD PTR [esi+12]
  000bd	f3 0f 10 4f 0c	 movss	 xmm1, DWORD PTR [edi+12]
  000c2	0f 5a c0	 cvtps2pd xmm0, xmm0
  000c5	0f 5a c9	 cvtps2pd xmm1, xmm1
  000c8	66 0f 2f c8	 comisd	 xmm1, xmm0
  000cc	76 09		 jbe	 SHORT $LN28@Med3
$LN32@Med3:

; 3689 : 		_STD iter_swap(_Mid, _First);

  000ce	57		 push	 edi
  000cf	56		 push	 esi
  000d0	e8 00 00 00 00	 call	 ??$swap@UChangeDirInfo@@@std@@YAXAAUChangeDirInfo@@0@Z ; std::swap<ChangeDirInfo>
  000d5	59		 pop	 ecx
  000d6	59		 pop	 ecx
$LN28@Med3:
  000d7	5f		 pop	 edi
  000d8	5e		 pop	 esi

; 3690 : 	}

  000d9	5d		 pop	 ebp
  000da	c3		 ret	 0
??$_Med3@PAUChangeDirInfo@@VChangeDirSort@@@std@@YAXPAUChangeDirInfo@@00VChangeDirSort@@@Z ENDP ; std::_Med3<ChangeDirInfo *,ChangeDirSort>
_TEXT	ENDS
PUBLIC	??$_Adjust_heap@PAUChangeDirInfo@@HU1@VChangeDirSort@@@std@@YAXPAUChangeDirInfo@@HH$$QAU1@VChangeDirSort@@@Z ; std::_Adjust_heap<ChangeDirInfo *,int,ChangeDirInfo,ChangeDirSort>
; Function compile flags: /Ogsp
;	COMDAT ??$_Adjust_heap@PAUChangeDirInfo@@HU1@VChangeDirSort@@@std@@YAXPAUChangeDirInfo@@HH$$QAU1@VChangeDirSort@@@Z
_TEXT	SEGMENT
__First$ = 8						; size = 4
__Top$ = 12						; size = 4
__Hole$ = 12						; size = 4
__Bottom$ = 16						; size = 4
__Val$ = 20						; size = 4
__Pred$ = 24						; size = 1
??$_Adjust_heap@PAUChangeDirInfo@@HU1@VChangeDirSort@@@std@@YAXPAUChangeDirInfo@@HH$$QAU1@VChangeDirSort@@@Z PROC ; std::_Adjust_heap<ChangeDirInfo *,int,ChangeDirInfo,ChangeDirSort>, COMDAT

; 2565 : 	{	// percolate _Hole to _Bottom, then push _Val, using _Pred

  00000	55		 push	 ebp
  00001	8b ec		 mov	 ebp, esp
  00003	53		 push	 ebx

; 2566 : 	_Diff _Top = _Hole;
; 2567 : 	_Diff _Idx = 2 * _Hole + 2;
; 2568 : 
; 2569 : 	for (; _Idx < _Bottom; _Idx = 2 * _Idx + 2)

  00004	8b 5d 08	 mov	 ebx, DWORD PTR __First$[ebp]
  00007	56		 push	 esi
  00008	57		 push	 edi
  00009	8b 7d 0c	 mov	 edi, DWORD PTR __Hole$[ebp]
  0000c	89 7d 0c	 mov	 DWORD PTR __Top$[ebp], edi
  0000f	8d 54 3f 02	 lea	 edx, DWORD PTR [edi+edi+2]
  00013	eb 5a		 jmp	 SHORT $LN25@Adjust_hea
$LL5@Adjust_hea:

; 2570 : 		{	// move _Hole down to larger child
; 2571 : 		if (_DEBUG_LT_PRED(_Pred, *(_First + _Idx), *(_First + (_Idx - 1))))

  00015	8b ca		 mov	 ecx, edx
  00017	6b c9 1c	 imul	 ecx, 28			; 0000001cH
  0001a	03 cb		 add	 ecx, ebx
  0001c	f3 0f 10 01	 movss	 xmm0, DWORD PTR [ecx]
  00020	f3 0f 10 49 e4	 movss	 xmm1, DWORD PTR [ecx-28]
  00025	0f 5a d0	 cvtps2pd xmm2, xmm0
  00028	0f 5a d9	 cvtps2pd xmm3, xmm1
  0002b	66 0f 2f da	 comisd	 xmm3, xmm2
  0002f	77 26		 ja	 SHORT $LN22@Adjust_hea
  00031	0f 5a c0	 cvtps2pd xmm0, xmm0
  00034	0f 5a c9	 cvtps2pd xmm1, xmm1
  00037	66 0f 2e c1	 ucomisd xmm0, xmm1
  0003b	9f		 lahf
  0003c	f6 c4 44	 test	 ah, 68			; 00000044H
  0003f	7a 17		 jp	 SHORT $LN23@Adjust_hea
  00041	f3 0f 10 41 0c	 movss	 xmm0, DWORD PTR [ecx+12]
  00046	f3 0f 10 49 f0	 movss	 xmm1, DWORD PTR [ecx-16]
  0004b	0f 5a c0	 cvtps2pd xmm0, xmm0
  0004e	0f 5a c9	 cvtps2pd xmm1, xmm1
  00051	66 0f 2f c8	 comisd	 xmm1, xmm0
  00055	76 01		 jbe	 SHORT $LN23@Adjust_hea
$LN22@Adjust_hea:

; 2572 : 			--_Idx;

  00057	4a		 dec	 edx
$LN23@Adjust_hea:

; 2573 : 		*(_First + _Hole) = _Move(*(_First + _Idx));

  00058	8b f2		 mov	 esi, edx
  0005a	6b ff 1c	 imul	 edi, 28			; 0000001cH
  0005d	6b f6 1c	 imul	 esi, 28			; 0000001cH
  00060	03 f3		 add	 esi, ebx
  00062	6a 07		 push	 7
  00064	03 fb		 add	 edi, ebx
  00066	59		 pop	 ecx
  00067	f3 a5		 rep movsd

; 2574 : 		_Hole = _Idx;

  00069	8b fa		 mov	 edi, edx
  0006b	8d 54 12 02	 lea	 edx, DWORD PTR [edx+edx+2]
$LN25@Adjust_hea:

; 2566 : 	_Diff _Top = _Hole;
; 2567 : 	_Diff _Idx = 2 * _Hole + 2;
; 2568 : 
; 2569 : 	for (; _Idx < _Bottom; _Idx = 2 * _Idx + 2)

  0006f	8b 45 10	 mov	 eax, DWORD PTR __Bottom$[ebp]
  00072	3b d0		 cmp	 edx, eax
  00074	7c 9f		 jl	 SHORT $LL5@Adjust_hea

; 2575 : 		}
; 2576 : 
; 2577 : 	if (_Idx == _Bottom)

  00076	75 16		 jne	 SHORT $LN1@Adjust_hea

; 2578 : 		{	// only child at bottom, move _Hole down to it
; 2579 : 		*(_First + _Hole) = _Move(*(_First + (_Bottom - 1)));

  00078	8b c8		 mov	 ecx, eax
  0007a	6b ff 1c	 imul	 edi, 28			; 0000001cH
  0007d	6b c9 1c	 imul	 ecx, 28			; 0000001cH
  00080	8d 74 19 e4	 lea	 esi, DWORD PTR [ecx+ebx-28]
  00084	6a 07		 push	 7
  00086	03 fb		 add	 edi, ebx
  00088	59		 pop	 ecx
  00089	f3 a5		 rep movsd

; 2580 : 		_Hole = _Bottom - 1;

  0008b	8d 78 ff	 lea	 edi, DWORD PTR [eax-1]
$LN1@Adjust_hea:

; 2581 : 		}
; 2582 : 	_Push_heap(_First, _Hole, _Top, _Move(_Val), _Pred);

  0008e	ff 75 18	 push	 DWORD PTR __Pred$[ebp]
  00091	ff 75 14	 push	 DWORD PTR __Val$[ebp]
  00094	ff 75 0c	 push	 DWORD PTR __Top$[ebp]
  00097	57		 push	 edi
  00098	53		 push	 ebx
  00099	e8 00 00 00 00	 call	 ??$_Push_heap@PAUChangeDirInfo@@HU1@VChangeDirSort@@@std@@YAXPAUChangeDirInfo@@HH$$QAU1@VChangeDirSort@@@Z ; std::_Push_heap<ChangeDirInfo *,int,ChangeDirInfo,ChangeDirSort>
  0009e	83 c4 14	 add	 esp, 20			; 00000014H
  000a1	5f		 pop	 edi
  000a2	5e		 pop	 esi
  000a3	5b		 pop	 ebx

; 2583 : 	}

  000a4	5d		 pop	 ebp
  000a5	c3		 ret	 0
??$_Adjust_heap@PAUChangeDirInfo@@HU1@VChangeDirSort@@@std@@YAXPAUChangeDirInfo@@HH$$QAU1@VChangeDirSort@@@Z ENDP ; std::_Adjust_heap<ChangeDirInfo *,int,ChangeDirInfo,ChangeDirSort>
_TEXT	ENDS
PUBLIC	??$_Pop_heap@PAUChangeDirInfo@@HU1@VChangeDirSort@@@std@@YAXPAUChangeDirInfo@@00$$QAU1@VChangeDirSort@@PAH@Z ; std::_Pop_heap<ChangeDirInfo *,int,ChangeDirInfo,ChangeDirSort>
; Function compile flags: /Ogsp
;	COMDAT ??$_Pop_heap@PAUChangeDirInfo@@HU1@VChangeDirSort@@@std@@YAXPAUChangeDirInfo@@00$$QAU1@VChangeDirSort@@PAH@Z
_TEXT	SEGMENT
__First$ = 8						; size = 4
__Last$ = 12						; size = 4
__Dest$ = 16						; size = 4
__Val$ = 20						; size = 4
__Pred$ = 24						; size = 1
___formal$ = 28						; size = 4
??$_Pop_heap@PAUChangeDirInfo@@HU1@VChangeDirSort@@@std@@YAXPAUChangeDirInfo@@00$$QAU1@VChangeDirSort@@PAH@Z PROC ; std::_Pop_heap<ChangeDirInfo *,int,ChangeDirInfo,ChangeDirSort>, COMDAT

; 2591 : 	{	// pop *_First to *_Dest and reheap, using _Pred

  00000	55		 push	 ebp
  00001	8b ec		 mov	 ebp, esp

; 2592 : 	*_Dest = _Move(*_First);
; 2593 : 	_Adjust_heap(_First, _Diff(0), _Diff(_Last - _First),
; 2594 : 		_Move(_Val), _Pred);

  00003	8b 45 0c	 mov	 eax, DWORD PTR __Last$[ebp]
  00006	2b 45 08	 sub	 eax, DWORD PTR __First$[ebp]
  00009	56		 push	 esi
  0000a	8b 75 08	 mov	 esi, DWORD PTR __First$[ebp]
  0000d	57		 push	 edi
  0000e	8b 7d 10	 mov	 edi, DWORD PTR __Dest$[ebp]
  00011	6a 07		 push	 7
  00013	59		 pop	 ecx
  00014	ff 75 18	 push	 DWORD PTR __Pred$[ebp]
  00017	f3 a5		 rep movsd
  00019	ff 75 14	 push	 DWORD PTR __Val$[ebp]
  0001c	99		 cdq
  0001d	6a 1c		 push	 28			; 0000001cH
  0001f	59		 pop	 ecx
  00020	f7 f9		 idiv	 ecx
  00022	50		 push	 eax
  00023	6a 00		 push	 0
  00025	ff 75 08	 push	 DWORD PTR __First$[ebp]
  00028	e8 00 00 00 00	 call	 ??$_Adjust_heap@PAUChangeDirInfo@@HU1@VChangeDirSort@@@std@@YAXPAUChangeDirInfo@@HH$$QAU1@VChangeDirSort@@@Z ; std::_Adjust_heap<ChangeDirInfo *,int,ChangeDirInfo,ChangeDirSort>
  0002d	83 c4 14	 add	 esp, 20			; 00000014H
  00030	5f		 pop	 edi
  00031	5e		 pop	 esi

; 2595 : 	}

  00032	5d		 pop	 ebp
  00033	c3		 ret	 0
??$_Pop_heap@PAUChangeDirInfo@@HU1@VChangeDirSort@@@std@@YAXPAUChangeDirInfo@@00$$QAU1@VChangeDirSort@@PAH@Z ENDP ; std::_Pop_heap<ChangeDirInfo *,int,ChangeDirInfo,ChangeDirSort>
_TEXT	ENDS
PUBLIC	?GetTeam@ioPlayEntity@@QBE?AW4TeamType@@XZ	; ioPlayEntity::GetTeam
; Function compile flags: /Ogsp
; File d:\lost saga for developer\youtube\tutorial\source\src\lsclient\ioplayentity.h
;	COMDAT ?GetTeam@ioPlayEntity@@QBE?AW4TeamType@@XZ
_TEXT	SEGMENT
_value$537418 = -4					; size = 4
?GetTeam@ioPlayEntity@@QBE?AW4TeamType@@XZ PROC		; ioPlayEntity::GetTeam, COMDAT
; _this$ = ecx

; 107  : 	inline TeamType GetTeam() const { return m_TeamType; }

  00000	55		 push	 ebp
  00001	8b ec		 mov	 ebp, esp
  00003	51		 push	 ecx
  00004	8d 45 fc	 lea	 eax, DWORD PTR _value$537418[ebp]
  00007	50		 push	 eax
  00008	81 c1 90 00 00
	00		 add	 ecx, 144		; 00000090H
  0000e	e8 00 00 00 00	 call	 ?DecryptValueToPool@?$CEncrypt@W4TeamType@@@@QAEXPAW4TeamType@@@Z ; CEncrypt<enum TeamType>::DecryptValueToPool
  00013	8b 45 fc	 mov	 eax, DWORD PTR _value$537418[ebp]
  00016	c9		 leave
  00017	c3		 ret	 0
?GetTeam@ioPlayEntity@@QBE?AW4TeamType@@XZ ENDP		; ioPlayEntity::GetTeam
_TEXT	ENDS
PUBLIC	?GetTeam@ioWeapon@@QBE?AW4TeamType@@XZ		; ioWeapon::GetTeam
; Function compile flags: /Ogsp
; File d:\lost saga for developer\youtube\tutorial\source\src\lsclient\ioweapon.h
;	COMDAT ?GetTeam@ioWeapon@@QBE?AW4TeamType@@XZ
_TEXT	SEGMENT
_value$537425 = -4					; size = 4
?GetTeam@ioWeapon@@QBE?AW4TeamType@@XZ PROC		; ioWeapon::GetTeam, COMDAT
; _this$ = ecx

; 534  : 	inline TeamType GetTeam() const { return m_TeamType; }

  00000	55		 push	 ebp
  00001	8b ec		 mov	 ebp, esp
  00003	51		 push	 ecx
  00004	8d 45 fc	 lea	 eax, DWORD PTR _value$537425[ebp]
  00007	50		 push	 eax
  00008	83 c1 30	 add	 ecx, 48			; 00000030H
  0000b	e8 00 00 00 00	 call	 ?DecryptValueToPool@?$CEncrypt@W4TeamType@@@@QAEXPAW4TeamType@@@Z ; CEncrypt<enum TeamType>::DecryptValueToPool
  00010	8b 45 fc	 mov	 eax, DWORD PTR _value$537425[ebp]
  00013	c9		 leave
  00014	c3		 ret	 0
?GetTeam@ioWeapon@@QBE?AW4TeamType@@XZ ENDP		; ioWeapon::GetTeam
_TEXT	ENDS
PUBLIC	?OnWaitExplosion@ioTraceWeaponType3@@IAEXPAVioPlayStage@@@Z ; ioTraceWeaponType3::OnWaitExplosion
; Function compile flags: /Ogsp
; File d:\lost saga for developer\youtube\tutorial\source\src\lsclient\iotraceweapontype3.cpp
;	COMDAT ?OnWaitExplosion@ioTraceWeaponType3@@IAEXPAVioPlayStage@@@Z
_TEXT	SEGMENT
_pStage$ = 8						; size = 4
?OnWaitExplosion@ioTraceWeaponType3@@IAEXPAVioPlayStage@@@Z PROC ; ioTraceWeaponType3::OnWaitExplosion, COMDAT
; _this$ = ecx

; 408  : {

  00000	55		 push	 ebp
  00001	8b ec		 mov	 ebp, esp
  00003	56		 push	 esi
  00004	57		 push	 edi
  00005	8b f1		 mov	 esi, ecx

; 409  : 	DWORD dwCurTime = FRAMEGETTIME();

  00007	ff 15 00 00 00
	00		 call	 DWORD PTR __imp_?GetSingleton@ioFrameTimer@@SAAAV1@XZ
  0000d	8b c8		 mov	 ecx, eax
  0000f	ff 15 00 00 00
	00		 call	 DWORD PTR __imp_?GetLoopSec@ioFrameTimer@@QBEKXZ
  00015	8b f8		 mov	 edi, eax

; 410  : 
; 411  : 	if( m_dwLandMarkID != -1 )

  00017	8b 86 50 0a 00
	00		 mov	 eax, DWORD PTR [esi+2640]
  0001d	83 f8 ff	 cmp	 eax, -1
  00020	74 21		 je	 SHORT $LN2@OnWaitExpl

; 412  : 	{
; 413  : 		if( pStage )

  00022	83 7d 08 00	 cmp	 DWORD PTR _pStage$[ebp], 0
  00026	74 1b		 je	 SHORT $LN2@OnWaitExpl

; 414  : 		{
; 415  : 			ioMapEffect *pMapEffect = pStage->FindMapEffect( m_dwLandMarkID );

  00028	8b 4d 08	 mov	 ecx, DWORD PTR _pStage$[ebp]
  0002b	50		 push	 eax
  0002c	e8 00 00 00 00	 call	 ?FindMapEffect@ioPlayStage@@QAEPAVioMapEffect@@K@Z ; ioPlayStage::FindMapEffect

; 416  : 			if( pMapEffect )

  00031	85 c0		 test	 eax, eax
  00033	74 0e		 je	 SHORT $LN2@OnWaitExpl

; 417  : 			{
; 418  : 				pMapEffect->EndEffectForce();

  00035	8b c8		 mov	 ecx, eax
  00037	e8 00 00 00 00	 call	 ?EndEffectForce@ioMapEffect@@QAEXXZ ; ioMapEffect::EndEffectForce

; 419  : 				m_dwLandMarkID = -1;	

  0003c	83 8e 50 0a 00
	00 ff		 or	 DWORD PTR [esi+2640], -1
$LN2@OnWaitExpl:

; 420  : 			}
; 421  : 		}
; 422  : 	}
; 423  : 
; 424  : 	if( m_dwExplosionTime < dwCurTime )

  00043	39 be 98 09 00
	00		 cmp	 DWORD PTR [esi+2456], edi
  00049	73 0a		 jae	 SHORT $LN1@OnWaitExpl

; 425  : 		SetExplosionState( pStage );

  0004b	ff 75 08	 push	 DWORD PTR _pStage$[ebp]
  0004e	8b ce		 mov	 ecx, esi
  00050	e8 00 00 00 00	 call	 ?SetExplosionState@ioTraceWeaponType3@@IAEXPAVioPlayStage@@@Z ; ioTraceWeaponType3::SetExplosionState
$LN1@OnWaitExpl:
  00055	5f		 pop	 edi
  00056	5e		 pop	 esi

; 426  : }

  00057	5d		 pop	 ebp
  00058	c2 04 00	 ret	 4
?OnWaitExplosion@ioTraceWeaponType3@@IAEXPAVioPlayStage@@@Z ENDP ; ioTraceWeaponType3::OnWaitExplosion
_TEXT	ENDS
PUBLIC	?CheckPreCollision@ioTraceWeaponType3@@UAEXPAVioPlayEntity@@PAVioPlayStage@@@Z ; ioTraceWeaponType3::CheckPreCollision
EXTRN	?GetPiercingType@ioWeapon@@QBE?AW4CharPiercingType@@XZ:PROC ; ioWeapon::GetPiercingType
EXTRN	?IsEnableTeamCollision@ioBaseChar@@QAE_NPAVioWeapon@@@Z:PROC ; ioBaseChar::IsEnableTeamCollision
; Function compile flags: /Ogsp
;	COMDAT ?CheckPreCollision@ioTraceWeaponType3@@UAEXPAVioPlayEntity@@PAVioPlayStage@@@Z
_TEXT	SEGMENT
_value$537453 = -4					; size = 4
_value$537440 = 8					; size = 4
_pChar$ = 8						; size = 4
_pTarget$ = 8						; size = 4
_pStage$ = 12						; size = 4
?CheckPreCollision@ioTraceWeaponType3@@UAEXPAVioPlayEntity@@PAVioPlayStage@@@Z PROC ; ioTraceWeaponType3::CheckPreCollision, COMDAT
; _this$ = ecx

; 556  : {

  00000	55		 push	 ebp
  00001	8b ec		 mov	 ebp, esp
  00003	51		 push	 ecx
  00004	53		 push	 ebx
  00005	8b d9		 mov	 ebx, ecx

; 557  : 	if( m_State == TS_WAIT_EXPLOSION || m_State == TS_EXPLOSION ) return;

  00007	8b 83 94 08 00
	00		 mov	 eax, DWORD PTR [ebx+2196]
  0000d	83 f8 03	 cmp	 eax, 3
  00010	0f 84 18 01 00
	00		 je	 $LN14@CheckPreCo
  00016	83 f8 04	 cmp	 eax, 4
  00019	0f 84 0f 01 00
	00		 je	 $LN14@CheckPreCo

; 558  : 
; 559  : 	bool bCollision = false;
; 560  : 	ioBaseChar *pChar = ToBaseChar(pTarget);

  0001f	56		 push	 esi
  00020	8b 75 08	 mov	 esi, DWORD PTR _pTarget$[ebp]
  00023	57		 push	 edi
  00024	56		 push	 esi
  00025	e8 00 00 00 00	 call	 ?ToBaseChar@@YAPAVioBaseChar@@PAVioGameEntity@@@Z ; ToBaseChar

; 561  : 	if( pTarget->IsWoundedCollision( GetWorldAttackBox() ) )

  0002a	8b 3e		 mov	 edi, DWORD PTR [esi]
  0002c	59		 pop	 ecx
  0002d	6a 00		 push	 0
  0002f	6a 00		 push	 0
  00031	8b cb		 mov	 ecx, ebx
  00033	89 45 08	 mov	 DWORD PTR _pChar$[ebp], eax
  00036	e8 00 00 00 00	 call	 ?GetWorldAttackBox@ioWeapon@@QBEABVioOrientBox@@_N@Z ; ioWeapon::GetWorldAttackBox
  0003b	50		 push	 eax
  0003c	8b ce		 mov	 ecx, esi
  0003e	ff 97 90 00 00
	00		 call	 DWORD PTR [edi+144]
  00044	84 c0		 test	 al, al
  00046	0f 84 e0 00 00
	00		 je	 $LN27@CheckPreCo

; 562  : 	{
; 563  : 		if( ToSymbolStruct(pTarget) || ToPushStruct(pTarget) || ToBallStruct(pTarget) ||
; 564  : 			ToDummyChar(pTarget) || ToWallZone(pTarget) )

  0004c	56		 push	 esi
  0004d	e8 00 00 00 00	 call	 ?ToSymbolStruct@@YAPAVioSymbolStruct@@PAVioGameEntity@@@Z ; ToSymbolStruct
  00052	59		 pop	 ecx
  00053	85 c0		 test	 eax, eax
  00055	0f 85 83 00 00
	00		 jne	 $LN11@CheckPreCo
  0005b	56		 push	 esi
  0005c	e8 00 00 00 00	 call	 ?ToPushStruct@@YAPAVioPushStruct@@PAVioGameEntity@@@Z ; ToPushStruct
  00061	59		 pop	 ecx
  00062	85 c0		 test	 eax, eax
  00064	75 78		 jne	 SHORT $LN11@CheckPreCo
  00066	56		 push	 esi
  00067	e8 00 00 00 00	 call	 ?ToBallStruct@@YAPAVioBall@@PAVioGameEntity@@@Z ; ToBallStruct
  0006c	59		 pop	 ecx
  0006d	85 c0		 test	 eax, eax
  0006f	75 6d		 jne	 SHORT $LN11@CheckPreCo
  00071	56		 push	 esi
  00072	e8 00 00 00 00	 call	 ?ToDummyChar@@YAPAVioDummyChar@@PAVioGameEntity@@@Z ; ToDummyChar
  00077	59		 pop	 ecx
  00078	85 c0		 test	 eax, eax
  0007a	75 62		 jne	 SHORT $LN11@CheckPreCo
  0007c	56		 push	 esi
  0007d	e8 00 00 00 00	 call	 ?ToWallZone@@YAPAVioWallZone@@PAVioGameEntity@@@Z ; ToWallZone
  00082	59		 pop	 ecx
  00083	85 c0		 test	 eax, eax
  00085	75 57		 jne	 SHORT $LN11@CheckPreCo

; 565  : 		{
; 566  : 			bCollision = true;
; 567  : 		}
; 568  : 		else if( pChar && pChar->IsNeedProcess() )

  00087	8b 7d 08	 mov	 edi, DWORD PTR _pChar$[ebp]
  0008a	85 ff		 test	 edi, edi
  0008c	0f 84 9a 00 00
	00		 je	 $LN27@CheckPreCo
  00092	8b 07		 mov	 eax, DWORD PTR [edi]
  00094	8b cf		 mov	 ecx, edi
  00096	ff 90 00 01 00
	00		 call	 DWORD PTR [eax+256]
  0009c	84 c0		 test	 al, al
  0009e	0f 84 88 00 00
	00		 je	 $LN27@CheckPreCo

; 569  : 		{
; 570  : 			if( GetTeam() != pTarget->GetTeam() )

  000a4	8d 45 08	 lea	 eax, DWORD PTR _value$537440[ebp]
  000a7	50		 push	 eax
  000a8	8d 4b 30	 lea	 ecx, DWORD PTR [ebx+48]
  000ab	e8 00 00 00 00	 call	 ?DecryptValueToPool@?$CEncrypt@W4TeamType@@@@QAEXPAW4TeamType@@@Z ; CEncrypt<enum TeamType>::DecryptValueToPool
  000b0	8d 45 fc	 lea	 eax, DWORD PTR _value$537453[ebp]
  000b3	50		 push	 eax
  000b4	8d 8e 90 00 00
	00		 lea	 ecx, DWORD PTR [esi+144]
  000ba	e8 00 00 00 00	 call	 ?DecryptValueToPool@?$CEncrypt@W4TeamType@@@@QAEXPAW4TeamType@@@Z ; CEncrypt<enum TeamType>::DecryptValueToPool
  000bf	8b 45 08	 mov	 eax, DWORD PTR _value$537440[ebp]
  000c2	3b 45 fc	 cmp	 eax, DWORD PTR _value$537453[ebp]

; 571  : 			{
; 572  : 				bCollision = true;

  000c5	75 17		 jne	 SHORT $LN11@CheckPreCo

; 573  : 			}
; 574  : 			else if( GetOwner() != pTarget )

  000c7	8b cb		 mov	 ecx, ebx
  000c9	e8 00 00 00 00	 call	 ?GetOwner@ioWeapon@@QBEPAVioBaseChar@@XZ ; ioWeapon::GetOwner
  000ce	3b c6		 cmp	 eax, esi
  000d0	74 5a		 je	 SHORT $LN27@CheckPreCo

; 575  : 			{
; 576  : 				if( pChar )
; 577  : 				{
; 578  : 					if( pChar->IsEnableTeamCollision( this ) )

  000d2	53		 push	 ebx
  000d3	8b cf		 mov	 ecx, edi
  000d5	e8 00 00 00 00	 call	 ?IsEnableTeamCollision@ioBaseChar@@QAE_NPAVioWeapon@@@Z ; ioBaseChar::IsEnableTeamCollision
  000da	84 c0		 test	 al, al
  000dc	74 4e		 je	 SHORT $LN27@CheckPreCo
$LN11@CheckPreCo:

; 579  : 					{
; 580  : 						bCollision = true;
; 581  : 					}
; 582  : 				}
; 583  : 			}
; 584  : 		}
; 585  : 	}
; 586  : 
; 587  : 	if( !bCollision )
; 588  : 		return;
; 589  : 
; 590  : 	if( ToSymbolStruct(pTarget) || ToPushStruct(pTarget) || ToBallStruct(pTarget) ||
; 591  : 		ToDummyChar(pTarget) || ToWallZone(pTarget) ||
; 592  : 		GetPiercingType() == CPT_NONE )

  000de	56		 push	 esi
  000df	e8 00 00 00 00	 call	 ?ToSymbolStruct@@YAPAVioSymbolStruct@@PAVioGameEntity@@@Z ; ToSymbolStruct
  000e4	59		 pop	 ecx
  000e5	85 c0		 test	 eax, eax
  000e7	75 37		 jne	 SHORT $LN1@CheckPreCo
  000e9	56		 push	 esi
  000ea	e8 00 00 00 00	 call	 ?ToPushStruct@@YAPAVioPushStruct@@PAVioGameEntity@@@Z ; ToPushStruct
  000ef	59		 pop	 ecx
  000f0	85 c0		 test	 eax, eax
  000f2	75 2c		 jne	 SHORT $LN1@CheckPreCo
  000f4	56		 push	 esi
  000f5	e8 00 00 00 00	 call	 ?ToBallStruct@@YAPAVioBall@@PAVioGameEntity@@@Z ; ToBallStruct
  000fa	59		 pop	 ecx
  000fb	85 c0		 test	 eax, eax
  000fd	75 21		 jne	 SHORT $LN1@CheckPreCo
  000ff	56		 push	 esi
  00100	e8 00 00 00 00	 call	 ?ToDummyChar@@YAPAVioDummyChar@@PAVioGameEntity@@@Z ; ToDummyChar
  00105	59		 pop	 ecx
  00106	85 c0		 test	 eax, eax
  00108	75 16		 jne	 SHORT $LN1@CheckPreCo
  0010a	56		 push	 esi
  0010b	e8 00 00 00 00	 call	 ?ToWallZone@@YAPAVioWallZone@@PAVioGameEntity@@@Z ; ToWallZone
  00110	59		 pop	 ecx
  00111	85 c0		 test	 eax, eax
  00113	75 0b		 jne	 SHORT $LN1@CheckPreCo
  00115	8b cb		 mov	 ecx, ebx
  00117	e8 00 00 00 00	 call	 ?GetPiercingType@ioWeapon@@QBE?AW4CharPiercingType@@XZ ; ioWeapon::GetPiercingType
  0011c	85 c0		 test	 eax, eax
  0011e	75 0c		 jne	 SHORT $LN27@CheckPreCo
$LN1@CheckPreCo:

; 593  : 	{
; 594  : 		SetExplosionWaitState( pStage, true );

  00120	6a 01		 push	 1
  00122	ff 75 0c	 push	 DWORD PTR _pStage$[ebp]
  00125	8b cb		 mov	 ecx, ebx
  00127	e8 00 00 00 00	 call	 ?SetExplosionWaitState@ioTraceWeaponType3@@QAEXPAVioPlayStage@@_N@Z ; ioTraceWeaponType3::SetExplosionWaitState
$LN27@CheckPreCo:
  0012c	5f		 pop	 edi
  0012d	5e		 pop	 esi
$LN14@CheckPreCo:
  0012e	5b		 pop	 ebx

; 595  : 		return;
; 596  : 	}
; 597  : }

  0012f	c9		 leave
  00130	c2 08 00	 ret	 8
?CheckPreCollision@ioTraceWeaponType3@@UAEXPAVioPlayEntity@@PAVioPlayStage@@@Z ENDP ; ioTraceWeaponType3::CheckPreCollision
_TEXT	ENDS
PUBLIC	??$_Destroy_range@V?$allocator@UChangeDirInfo@@@std@@@std@@YAXPAUChangeDirInfo@@0AAV?$allocator@UChangeDirInfo@@@0@U_Nonscalar_ptr_iterator_tag@0@@Z ; std::_Destroy_range<std::allocator<ChangeDirInfo> >
; Function compile flags: /Ogsp
; File c:\program files (x86)\microsoft visual studio 10.0\vc\include\xmemory
;	COMDAT ??$_Destroy_range@V?$allocator@UChangeDirInfo@@@std@@@std@@YAXPAUChangeDirInfo@@0AAV?$allocator@UChangeDirInfo@@@0@U_Nonscalar_ptr_iterator_tag@0@@Z
_TEXT	SEGMENT
__First$ = 8						; size = 4
__Last$ = 12						; size = 4
__Al$ = 16						; size = 4
___formal$ = 20						; size = 1
??$_Destroy_range@V?$allocator@UChangeDirInfo@@@std@@@std@@YAXPAUChangeDirInfo@@0AAV?$allocator@UChangeDirInfo@@@0@U_Nonscalar_ptr_iterator_tag@0@@Z PROC ; std::_Destroy_range<std::allocator<ChangeDirInfo> >, COMDAT

; 96   : 	for (; _First != _Last; ++_First)
; 97   : 		_Dest_val(_Al, _First);
; 98   : 	}

  00000	c3		 ret	 0
??$_Destroy_range@V?$allocator@UChangeDirInfo@@@std@@@std@@YAXPAUChangeDirInfo@@0AAV?$allocator@UChangeDirInfo@@@0@U_Nonscalar_ptr_iterator_tag@0@@Z ENDP ; std::_Destroy_range<std::allocator<ChangeDirInfo> >
_TEXT	ENDS
PUBLIC	??$_Insertion_sort@PAUChangeDirInfo@@VChangeDirSort@@@std@@YAXPAUChangeDirInfo@@0VChangeDirSort@@@Z ; std::_Insertion_sort<ChangeDirInfo *,ChangeDirSort>
; Function compile flags: /Ogsp
; File c:\program files (x86)\microsoft visual studio 10.0\vc\include\algorithm
;	COMDAT ??$_Insertion_sort@PAUChangeDirInfo@@VChangeDirSort@@@std@@YAXPAUChangeDirInfo@@0VChangeDirSort@@@Z
_TEXT	SEGMENT
__First$ = 8						; size = 4
__Last$ = 12						; size = 4
__Pred$ = 16						; size = 1
??$_Insertion_sort@PAUChangeDirInfo@@VChangeDirSort@@@std@@YAXPAUChangeDirInfo@@0VChangeDirSort@@@Z PROC ; std::_Insertion_sort<ChangeDirInfo *,ChangeDirSort>, COMDAT

; 3676 : 	{	// insertion sort [_First, _Last), using _Pred

  00000	55		 push	 ebp
  00001	8b ec		 mov	 ebp, esp

; 3677 : 	_Insertion_sort1(_First, _Last, _Pred, _Val_type(_First));

  00003	6a 00		 push	 0
  00005	ff 75 10	 push	 DWORD PTR __Pred$[ebp]
  00008	ff 75 0c	 push	 DWORD PTR __Last$[ebp]
  0000b	ff 75 08	 push	 DWORD PTR __First$[ebp]
  0000e	e8 00 00 00 00	 call	 ??$_Insertion_sort1@PAUChangeDirInfo@@VChangeDirSort@@U1@@std@@YAXPAUChangeDirInfo@@0VChangeDirSort@@0@Z ; std::_Insertion_sort1<ChangeDirInfo *,ChangeDirSort,ChangeDirInfo>
  00013	83 c4 10	 add	 esp, 16			; 00000010H

; 3678 : 	}

  00016	5d		 pop	 ebp
  00017	c3		 ret	 0
??$_Insertion_sort@PAUChangeDirInfo@@VChangeDirSort@@@std@@YAXPAUChangeDirInfo@@0VChangeDirSort@@@Z ENDP ; std::_Insertion_sort<ChangeDirInfo *,ChangeDirSort>
_TEXT	ENDS
PUBLIC	??$_Uninit_move@PAUChangeDirInfo@@PAU1@V?$allocator@UChangeDirInfo@@@std@@U1@@std@@YAPAUChangeDirInfo@@PAU1@00AAV?$allocator@UChangeDirInfo@@@0@0U_Nonscalar_ptr_iterator_tag@0@@Z ; std::_Uninit_move<ChangeDirInfo *,ChangeDirInfo *,std::allocator<ChangeDirInfo>,ChangeDirInfo>
; Function compile flags: /Ogsp
; File c:\program files (x86)\microsoft visual studio 10.0\vc\include\memory
;	COMDAT ??$_Uninit_move@PAUChangeDirInfo@@PAU1@V?$allocator@UChangeDirInfo@@@std@@U1@@std@@YAPAUChangeDirInfo@@PAU1@00AAV?$allocator@UChangeDirInfo@@@0@0U_Nonscalar_ptr_iterator_tag@0@@Z
_TEXT	SEGMENT
__First$ = 8						; size = 4
__Last$ = 12						; size = 4
__Dest$ = 16						; size = 4
__Al$ = 20						; size = 4
___formal$ = 24						; size = 4
___formal$ = 28						; size = 1
??$_Uninit_move@PAUChangeDirInfo@@PAU1@V?$allocator@UChangeDirInfo@@@std@@U1@@std@@YAPAUChangeDirInfo@@PAU1@00AAV?$allocator@UChangeDirInfo@@@0@0U_Nonscalar_ptr_iterator_tag@0@@Z PROC ; std::_Uninit_move<ChangeDirInfo *,ChangeDirInfo *,std::allocator<ChangeDirInfo>,ChangeDirInfo>, COMDAT

; 424  : 	{	// move [_First, _Last) to raw _Dest, using _Al, arbitrary type

  00000	55		 push	 ebp
  00001	8b ec		 mov	 ebp, esp
  00003	56		 push	 esi

; 425  : 	_DEBUG_RANGE(_First, _Last);
; 426  : 	_DEBUG_POINTER(_Dest);
; 427  : 	_FwdIt _Next = _Dest;
; 428  : 
; 429  : 	_TRY_BEGIN
; 430  : 	for (; _First != _Last; ++_Dest, ++_First)

  00004	8b 75 08	 mov	 esi, DWORD PTR __First$[ebp]
  00007	eb 16		 jmp	 SHORT $LN24@Uninit_mov
$LL6@Uninit_mov:

; 431  : 		_Cons_val(_Al, _Dest, (_Valty &&)*_First);

  00009	56		 push	 esi
  0000a	ff 75 10	 push	 DWORD PTR __Dest$[ebp]
  0000d	ff 75 14	 push	 DWORD PTR __Al$[ebp]
  00010	e8 00 00 00 00	 call	 ??$_Cons_val@V?$allocator@UChangeDirInfo@@@std@@UChangeDirInfo@@U3@@std@@YAXAAV?$allocator@UChangeDirInfo@@@0@PAUChangeDirInfo@@$$QAU2@@Z ; std::_Cons_val<std::allocator<ChangeDirInfo>,ChangeDirInfo,ChangeDirInfo>
  00015	83 45 10 1c	 add	 DWORD PTR __Dest$[ebp], 28 ; 0000001cH
  00019	83 c4 0c	 add	 esp, 12			; 0000000cH
  0001c	83 c6 1c	 add	 esi, 28			; 0000001cH
$LN24@Uninit_mov:

; 425  : 	_DEBUG_RANGE(_First, _Last);
; 426  : 	_DEBUG_POINTER(_Dest);
; 427  : 	_FwdIt _Next = _Dest;
; 428  : 
; 429  : 	_TRY_BEGIN
; 430  : 	for (; _First != _Last; ++_Dest, ++_First)

  0001f	3b 75 0c	 cmp	 esi, DWORD PTR __Last$[ebp]
  00022	75 e5		 jne	 SHORT $LL6@Uninit_mov

; 432  : 	_CATCH_ALL
; 433  : 	for (; _Next != _Dest; ++_Next)
; 434  : 		_Dest_val(_Al, _Next);
; 435  : 	_RERAISE;
; 436  : 	_CATCH_END
; 437  : 	return (_Dest);

  00024	8b 45 10	 mov	 eax, DWORD PTR __Dest$[ebp]
  00027	5e		 pop	 esi

; 438  : 	}

  00028	5d		 pop	 ebp
  00029	c3		 ret	 0
??$_Uninit_move@PAUChangeDirInfo@@PAU1@V?$allocator@UChangeDirInfo@@@std@@U1@@std@@YAPAUChangeDirInfo@@PAU1@00AAV?$allocator@UChangeDirInfo@@@0@0U_Nonscalar_ptr_iterator_tag@0@@Z ENDP ; std::_Uninit_move<ChangeDirInfo *,ChangeDirInfo *,std::allocator<ChangeDirInfo>,ChangeDirInfo>
_TEXT	ENDS
PUBLIC	??$_Median@PAUChangeDirInfo@@VChangeDirSort@@@std@@YAXPAUChangeDirInfo@@00VChangeDirSort@@@Z ; std::_Median<ChangeDirInfo *,ChangeDirSort>
; Function compile flags: /Ogsp
; File c:\program files (x86)\microsoft visual studio 10.0\vc\include\algorithm
;	COMDAT ??$_Median@PAUChangeDirInfo@@VChangeDirSort@@@std@@YAXPAUChangeDirInfo@@00VChangeDirSort@@@Z
_TEXT	SEGMENT
tv200 = 8						; size = 4
__First$ = 8						; size = 4
__Mid$ = 12						; size = 4
tv203 = 16						; size = 4
__Last$ = 16						; size = 4
__Pred$ = 20						; size = 1
??$_Median@PAUChangeDirInfo@@VChangeDirSort@@@std@@YAXPAUChangeDirInfo@@00VChangeDirSort@@@Z PROC ; std::_Median<ChangeDirInfo *,ChangeDirSort>, COMDAT

; 3695 : 	{	// sort median element to middle

  00000	55		 push	 ebp
  00001	8b ec		 mov	 ebp, esp

; 3696 : 	if (40 < _Last - _First)

  00003	8b 4d 08	 mov	 ecx, DWORD PTR __First$[ebp]
  00006	53		 push	 ebx
  00007	8b 5d 10	 mov	 ebx, DWORD PTR __Last$[ebp]
  0000a	56		 push	 esi
  0000b	8b c3		 mov	 eax, ebx
  0000d	2b c1		 sub	 eax, ecx
  0000f	6a 1c		 push	 28			; 0000001cH
  00011	99		 cdq
  00012	5e		 pop	 esi
  00013	f7 fe		 idiv	 esi
  00015	83 f8 28	 cmp	 eax, 40			; 00000028H
  00018	7e 68		 jle	 SHORT $LN2@Median

; 3697 : 		{	// median of nine
; 3698 : 		size_t _Step = (_Last - _First + 1) / 8;

  0001a	40		 inc	 eax
  0001b	99		 cdq
  0001c	83 e2 07	 and	 edx, 7
  0001f	03 c2		 add	 eax, edx
  00021	57		 push	 edi

; 3699 : 		_Med3(_First, _First + _Step, _First + 2 * _Step, _Pred);

  00022	ff 75 14	 push	 DWORD PTR __Pred$[ebp]
  00025	c1 f8 03	 sar	 eax, 3
  00028	8b f8		 mov	 edi, eax
  0002a	8b f0		 mov	 esi, eax
  0002c	6b ff 38	 imul	 edi, 56			; 00000038H
  0002f	6b f6 1c	 imul	 esi, 28			; 0000001cH
  00032	8d 14 0f	 lea	 edx, DWORD PTR [edi+ecx]
  00035	8d 04 0e	 lea	 eax, DWORD PTR [esi+ecx]
  00038	52		 push	 edx
  00039	50		 push	 eax
  0003a	51		 push	 ecx
  0003b	89 45 08	 mov	 DWORD PTR tv200[ebp], eax
  0003e	e8 00 00 00 00	 call	 ??$_Med3@PAUChangeDirInfo@@VChangeDirSort@@@std@@YAXPAUChangeDirInfo@@00VChangeDirSort@@@Z ; std::_Med3<ChangeDirInfo *,ChangeDirSort>

; 3700 : 		_Med3(_Mid - _Step, _Mid, _Mid + _Step, _Pred);

  00043	8b 45 0c	 mov	 eax, DWORD PTR __Mid$[ebp]
  00046	ff 75 14	 push	 DWORD PTR __Pred$[ebp]
  00049	8d 0c 06	 lea	 ecx, DWORD PTR [esi+eax]
  0004c	51		 push	 ecx
  0004d	50		 push	 eax
  0004e	2b c6		 sub	 eax, esi
  00050	50		 push	 eax
  00051	e8 00 00 00 00	 call	 ??$_Med3@PAUChangeDirInfo@@VChangeDirSort@@@std@@YAXPAUChangeDirInfo@@00VChangeDirSort@@@Z ; std::_Med3<ChangeDirInfo *,ChangeDirSort>

; 3701 : 		_Med3(_Last - 2 * _Step, _Last - _Step, _Last, _Pred);

  00056	ff 75 14	 push	 DWORD PTR __Pred$[ebp]
  00059	89 5d 10	 mov	 DWORD PTR tv203[ebp], ebx
  0005c	29 75 10	 sub	 DWORD PTR tv203[ebp], esi
  0005f	53		 push	 ebx
  00060	ff 75 10	 push	 DWORD PTR tv203[ebp]
  00063	2b df		 sub	 ebx, edi
  00065	53		 push	 ebx
  00066	e8 00 00 00 00	 call	 ??$_Med3@PAUChangeDirInfo@@VChangeDirSort@@@std@@YAXPAUChangeDirInfo@@00VChangeDirSort@@@Z ; std::_Med3<ChangeDirInfo *,ChangeDirSort>

; 3702 : 		_Med3(_First + _Step, _Mid, _Last - _Step, _Pred);

  0006b	ff 75 14	 push	 DWORD PTR __Pred$[ebp]
  0006e	ff 75 10	 push	 DWORD PTR tv203[ebp]
  00071	ff 75 0c	 push	 DWORD PTR __Mid$[ebp]
  00074	ff 75 08	 push	 DWORD PTR tv200[ebp]
  00077	e8 00 00 00 00	 call	 ??$_Med3@PAUChangeDirInfo@@VChangeDirSort@@@std@@YAXPAUChangeDirInfo@@00VChangeDirSort@@@Z ; std::_Med3<ChangeDirInfo *,ChangeDirSort>
  0007c	83 c4 40	 add	 esp, 64			; 00000040H
  0007f	5f		 pop	 edi

; 3703 : 		}
; 3704 : 	else

  00080	eb 10		 jmp	 SHORT $LN1@Median
$LN2@Median:

; 3705 : 		_Med3(_First, _Mid, _Last, _Pred);

  00082	ff 75 14	 push	 DWORD PTR __Pred$[ebp]
  00085	53		 push	 ebx
  00086	ff 75 0c	 push	 DWORD PTR __Mid$[ebp]
  00089	51		 push	 ecx
  0008a	e8 00 00 00 00	 call	 ??$_Med3@PAUChangeDirInfo@@VChangeDirSort@@@std@@YAXPAUChangeDirInfo@@00VChangeDirSort@@@Z ; std::_Med3<ChangeDirInfo *,ChangeDirSort>
  0008f	83 c4 10	 add	 esp, 16			; 00000010H
$LN1@Median:
  00092	5e		 pop	 esi
  00093	5b		 pop	 ebx

; 3706 : 	}

  00094	5d		 pop	 ebp
  00095	c3		 ret	 0
??$_Median@PAUChangeDirInfo@@VChangeDirSort@@@std@@YAXPAUChangeDirInfo@@00VChangeDirSort@@@Z ENDP ; std::_Median<ChangeDirInfo *,ChangeDirSort>
_TEXT	ENDS
PUBLIC	??$_Make_heap@PAUChangeDirInfo@@HU1@VChangeDirSort@@@std@@YAXPAUChangeDirInfo@@0VChangeDirSort@@PAH0@Z ; std::_Make_heap<ChangeDirInfo *,int,ChangeDirInfo,ChangeDirSort>
; Function compile flags: /Ogsp
;	COMDAT ??$_Make_heap@PAUChangeDirInfo@@HU1@VChangeDirSort@@@std@@YAXPAUChangeDirInfo@@0VChangeDirSort@@PAH0@Z
_TEXT	SEGMENT
__Val$534877 = -32					; size = 28
__Bottom$ = -4						; size = 4
__First$ = 8						; size = 4
tv149 = 12						; size = 4
__Last$ = 12						; size = 4
__Pred$ = 16						; size = 1
___formal$ = 20						; size = 4
___formal$ = 24						; size = 4
??$_Make_heap@PAUChangeDirInfo@@HU1@VChangeDirSort@@@std@@YAXPAUChangeDirInfo@@0VChangeDirSort@@PAH0@Z PROC ; std::_Make_heap<ChangeDirInfo *,int,ChangeDirInfo,ChangeDirSort>, COMDAT

; 2658 : 	{	// make nontrivial [_First, _Last) into a heap, using _Pred

  00000	55		 push	 ebp
  00001	8b ec		 mov	 ebp, esp
  00003	83 ec 20	 sub	 esp, 32			; 00000020H

; 2659 : 	_Diff _Bottom = _Last - _First;

  00006	8b 45 0c	 mov	 eax, DWORD PTR __Last$[ebp]
  00009	2b 45 08	 sub	 eax, DWORD PTR __First$[ebp]
  0000c	53		 push	 ebx
  0000d	99		 cdq
  0000e	6a 1c		 push	 28			; 0000001cH
  00010	59		 pop	 ecx
  00011	f7 f9		 idiv	 ecx
  00013	89 45 fc	 mov	 DWORD PTR __Bottom$[ebp], eax

; 2660 : 	for (_Diff _Hole = _Bottom / 2; 0 < _Hole; )

  00016	99		 cdq
  00017	2b c2		 sub	 eax, edx
  00019	8b d8		 mov	 ebx, eax
  0001b	d1 fb		 sar	 ebx, 1
  0001d	85 db		 test	 ebx, ebx
  0001f	7e 3a		 jle	 SHORT $LN1@Make_heap

; 2659 : 	_Diff _Bottom = _Last - _First;

  00021	56		 push	 esi
  00022	8b f3		 mov	 esi, ebx
  00024	6b f6 1c	 imul	 esi, 28			; 0000001cH
  00027	03 75 08	 add	 esi, DWORD PTR __First$[ebp]
  0002a	57		 push	 edi
  0002b	eb 03		 jmp	 SHORT $LN2@Make_heap
$LL11@Make_heap:
  0002d	8b 75 0c	 mov	 esi, DWORD PTR tv149[ebp]
$LN2@Make_heap:

; 2661 : 		{	// reheap top half, bottom to top
; 2662 : 		--_Hole;
; 2663 : 		_Ty _Val = _Move(*(_First + _Hole));

  00030	6a 07		 push	 7
  00032	59		 pop	 ecx

; 2664 : 		_Adjust_heap(_First, _Hole, _Bottom,
; 2665 : 			_Move(_Val), _Pred);

  00033	ff 75 10	 push	 DWORD PTR __Pred$[ebp]
  00036	8d 45 e0	 lea	 eax, DWORD PTR __Val$534877[ebp]
  00039	50		 push	 eax
  0003a	ff 75 fc	 push	 DWORD PTR __Bottom$[ebp]
  0003d	4b		 dec	 ebx
  0003e	83 ee 1c	 sub	 esi, 28			; 0000001cH
  00041	53		 push	 ebx
  00042	ff 75 08	 push	 DWORD PTR __First$[ebp]
  00045	8d 7d e0	 lea	 edi, DWORD PTR __Val$534877[ebp]
  00048	89 75 0c	 mov	 DWORD PTR tv149[ebp], esi
  0004b	f3 a5		 rep movsd
  0004d	e8 00 00 00 00	 call	 ??$_Adjust_heap@PAUChangeDirInfo@@HU1@VChangeDirSort@@@std@@YAXPAUChangeDirInfo@@HH$$QAU1@VChangeDirSort@@@Z ; std::_Adjust_heap<ChangeDirInfo *,int,ChangeDirInfo,ChangeDirSort>
  00052	83 c4 14	 add	 esp, 20			; 00000014H
  00055	85 db		 test	 ebx, ebx
  00057	7f d4		 jg	 SHORT $LL11@Make_heap
  00059	5f		 pop	 edi
  0005a	5e		 pop	 esi
$LN1@Make_heap:
  0005b	5b		 pop	 ebx

; 2666 : 		}
; 2667 : 	}

  0005c	c9		 leave
  0005d	c3		 ret	 0
??$_Make_heap@PAUChangeDirInfo@@HU1@VChangeDirSort@@@std@@YAXPAUChangeDirInfo@@0VChangeDirSort@@PAH0@Z ENDP ; std::_Make_heap<ChangeDirInfo *,int,ChangeDirInfo,ChangeDirSort>
_TEXT	ENDS
PUBLIC	??$_Pop_heap_0@PAUChangeDirInfo@@U1@VChangeDirSort@@@std@@YAXPAUChangeDirInfo@@0VChangeDirSort@@0@Z ; std::_Pop_heap_0<ChangeDirInfo *,ChangeDirInfo,ChangeDirSort>
; Function compile flags: /Ogsp
;	COMDAT ??$_Pop_heap_0@PAUChangeDirInfo@@U1@VChangeDirSort@@@std@@YAXPAUChangeDirInfo@@0VChangeDirSort@@0@Z
_TEXT	SEGMENT
__Val$ = -28						; size = 28
__First$ = 8						; size = 4
__Last$ = 12						; size = 4
__Pred$ = 16						; size = 1
___formal$ = 20						; size = 4
??$_Pop_heap_0@PAUChangeDirInfo@@U1@VChangeDirSort@@@std@@YAXPAUChangeDirInfo@@0VChangeDirSort@@0@Z PROC ; std::_Pop_heap_0<ChangeDirInfo *,ChangeDirInfo,ChangeDirSort>, COMDAT

; 2601 : 	{	// pop *_First to *(_Last - 1) and reheap, using _Pred

  00000	55		 push	 ebp
  00001	8b ec		 mov	 ebp, esp

; 2602 : 	_Ty _Val = _Move(*(_Last - 1));

  00003	8b 45 0c	 mov	 eax, DWORD PTR __Last$[ebp]
  00006	83 ec 1c	 sub	 esp, 28			; 0000001cH
  00009	56		 push	 esi
  0000a	57		 push	 edi
  0000b	6a 07		 push	 7
  0000d	59		 pop	 ecx
  0000e	83 c0 e4	 add	 eax, -28		; ffffffe4H

; 2603 : 	_Pop_heap(_First, _Last - 1, _Last - 1,
; 2604 : 		_Move(_Val), _Pred, _Dist_type(_First));

  00011	6a 00		 push	 0
  00013	ff 75 10	 push	 DWORD PTR __Pred$[ebp]
  00016	8b f0		 mov	 esi, eax
  00018	8d 7d e4	 lea	 edi, DWORD PTR __Val$[ebp]
  0001b	f3 a5		 rep movsd
  0001d	8d 4d e4	 lea	 ecx, DWORD PTR __Val$[ebp]
  00020	51		 push	 ecx
  00021	50		 push	 eax
  00022	50		 push	 eax
  00023	ff 75 08	 push	 DWORD PTR __First$[ebp]
  00026	e8 00 00 00 00	 call	 ??$_Pop_heap@PAUChangeDirInfo@@HU1@VChangeDirSort@@@std@@YAXPAUChangeDirInfo@@00$$QAU1@VChangeDirSort@@PAH@Z ; std::_Pop_heap<ChangeDirInfo *,int,ChangeDirInfo,ChangeDirSort>
  0002b	83 c4 18	 add	 esp, 24			; 00000018H
  0002e	5f		 pop	 edi
  0002f	5e		 pop	 esi

; 2605 : 	}

  00030	c9		 leave
  00031	c3		 ret	 0
??$_Pop_heap_0@PAUChangeDirInfo@@U1@VChangeDirSort@@@std@@YAXPAUChangeDirInfo@@0VChangeDirSort@@0@Z ENDP ; std::_Pop_heap_0<ChangeDirInfo *,ChangeDirInfo,ChangeDirSort>
_TEXT	ENDS
PUBLIC	??$_Destroy_range@V?$allocator@UChangeDirInfo@@@std@@@std@@YAXPAUChangeDirInfo@@0AAV?$allocator@UChangeDirInfo@@@0@@Z ; std::_Destroy_range<std::allocator<ChangeDirInfo> >
; Function compile flags: /Ogsp
; File c:\program files (x86)\microsoft visual studio 10.0\vc\include\xmemory
;	COMDAT ??$_Destroy_range@V?$allocator@UChangeDirInfo@@@std@@@std@@YAXPAUChangeDirInfo@@0AAV?$allocator@UChangeDirInfo@@@0@@Z
_TEXT	SEGMENT
__First$ = 8						; size = 4
__Last$ = 12						; size = 4
__Al$ = 16						; size = 4
??$_Destroy_range@V?$allocator@UChangeDirInfo@@@std@@@std@@YAXPAUChangeDirInfo@@0AAV?$allocator@UChangeDirInfo@@@0@@Z PROC ; std::_Destroy_range<std::allocator<ChangeDirInfo> >, COMDAT

; 88   : 	_Destroy_range(_First, _Last, _Al, _Ptr_cat(_First, _Last));
; 89   : 	}

  00000	c3		 ret	 0
??$_Destroy_range@V?$allocator@UChangeDirInfo@@@std@@@std@@YAXPAUChangeDirInfo@@0AAV?$allocator@UChangeDirInfo@@@0@@Z ENDP ; std::_Destroy_range<std::allocator<ChangeDirInfo> >
_TEXT	ENDS
PUBLIC	??$_Uninitialized_move@PAUChangeDirInfo@@PAU1@V?$allocator@UChangeDirInfo@@@std@@@std@@YAPAUChangeDirInfo@@PAU1@00AAV?$allocator@UChangeDirInfo@@@0@@Z ; std::_Uninitialized_move<ChangeDirInfo *,ChangeDirInfo *,std::allocator<ChangeDirInfo> >
; Function compile flags: /Ogsp
; File c:\program files (x86)\microsoft visual studio 10.0\vc\include\memory
;	COMDAT ??$_Uninitialized_move@PAUChangeDirInfo@@PAU1@V?$allocator@UChangeDirInfo@@@std@@@std@@YAPAUChangeDirInfo@@PAU1@00AAV?$allocator@UChangeDirInfo@@@0@@Z
_TEXT	SEGMENT
__Cat$537581 = -4					; size = 1
__First$ = 8						; size = 4
__Last$ = 12						; size = 4
__Dest$ = 16						; size = 4
__Al$ = 20						; size = 4
??$_Uninitialized_move@PAUChangeDirInfo@@PAU1@V?$allocator@UChangeDirInfo@@@std@@@std@@YAPAUChangeDirInfo@@PAU1@00AAV?$allocator@UChangeDirInfo@@@0@@Z PROC ; std::_Uninitialized_move<ChangeDirInfo *,ChangeDirInfo *,std::allocator<ChangeDirInfo> >, COMDAT

; 469  : 	{	// move [_First, _Last) to raw _Dest, using _Al

  00000	55		 push	 ebp
  00001	8b ec		 mov	 ebp, esp
  00003	51		 push	 ecx

; 470  : 	return (_Uninit_move(_First, _Last, _Dest, _Al,
; 471  : 		_Val_type(_First), _Ptr_cat(_First, _Dest)));

  00004	ff 75 fc	 push	 DWORD PTR __Cat$537581[ebp]
  00007	6a 00		 push	 0
  00009	ff 75 14	 push	 DWORD PTR __Al$[ebp]
  0000c	ff 75 10	 push	 DWORD PTR __Dest$[ebp]
  0000f	ff 75 0c	 push	 DWORD PTR __Last$[ebp]
  00012	ff 75 08	 push	 DWORD PTR __First$[ebp]
  00015	e8 00 00 00 00	 call	 ??$_Uninit_move@PAUChangeDirInfo@@PAU1@V?$allocator@UChangeDirInfo@@@std@@U1@@std@@YAPAUChangeDirInfo@@PAU1@00AAV?$allocator@UChangeDirInfo@@@0@0U_Nonscalar_ptr_iterator_tag@0@@Z ; std::_Uninit_move<ChangeDirInfo *,ChangeDirInfo *,std::allocator<ChangeDirInfo>,ChangeDirInfo>
  0001a	83 c4 18	 add	 esp, 24			; 00000018H

; 472  : 	}

  0001d	c9		 leave
  0001e	c3		 ret	 0
??$_Uninitialized_move@PAUChangeDirInfo@@PAU1@V?$allocator@UChangeDirInfo@@@std@@@std@@YAPAUChangeDirInfo@@PAU1@00AAV?$allocator@UChangeDirInfo@@@0@@Z ENDP ; std::_Uninitialized_move<ChangeDirInfo *,ChangeDirInfo *,std::allocator<ChangeDirInfo> >
_TEXT	ENDS
PUBLIC	??$_Unguarded_partition@PAUChangeDirInfo@@VChangeDirSort@@@std@@YA?AU?$pair@PAUChangeDirInfo@@PAU1@@0@PAUChangeDirInfo@@0VChangeDirSort@@@Z ; std::_Unguarded_partition<ChangeDirInfo *,ChangeDirSort>
; Function compile flags: /Ogsp
; File c:\program files (x86)\microsoft visual studio 10.0\vc\include\algorithm
;	COMDAT ??$_Unguarded_partition@PAUChangeDirInfo@@VChangeDirSort@@@std@@YA?AU?$pair@PAUChangeDirInfo@@PAU1@@0@PAUChangeDirInfo@@0VChangeDirSort@@@Z
_TEXT	SEGMENT
tv426 = -8						; size = 4
__Glast$ = -4						; size = 4
___$ReturnUdt$ = 8					; size = 4
__First$ = 12						; size = 4
__Last$ = 16						; size = 4
__Pred$ = 20						; size = 1
??$_Unguarded_partition@PAUChangeDirInfo@@VChangeDirSort@@@std@@YA?AU?$pair@PAUChangeDirInfo@@PAU1@@0@PAUChangeDirInfo@@0VChangeDirSort@@@Z PROC ; std::_Unguarded_partition<ChangeDirInfo *,ChangeDirSort>, COMDAT

; 3712 : 	{	// partition [_First, _Last), using _Pred

  00000	55		 push	 ebp
  00001	8b ec		 mov	 ebp, esp
  00003	51		 push	 ecx
  00004	51		 push	 ecx

; 3713 : 	_RanIt _Mid = _First + (_Last - _First) / 2;

  00005	8b 4d 10	 mov	 ecx, DWORD PTR __Last$[ebp]
  00008	53		 push	 ebx
  00009	56		 push	 esi
  0000a	57		 push	 edi
  0000b	8b 7d 0c	 mov	 edi, DWORD PTR __First$[ebp]
  0000e	8b c1		 mov	 eax, ecx
  00010	2b c7		 sub	 eax, edi
  00012	6a 1c		 push	 28			; 0000001cH
  00014	5e		 pop	 esi
  00015	99		 cdq
  00016	f7 fe		 idiv	 esi

; 3714 : 	_Median(_First, _Mid, _Last - 1, _Pred);

  00018	ff 75 14	 push	 DWORD PTR __Pred$[ebp]
  0001b	83 c1 e4	 add	 ecx, -28		; ffffffe4H
  0001e	51		 push	 ecx
  0001f	99		 cdq
  00020	2b c2		 sub	 eax, edx
  00022	8b f0		 mov	 esi, eax
  00024	d1 fe		 sar	 esi, 1
  00026	6b f6 1c	 imul	 esi, 28			; 0000001cH
  00029	03 f7		 add	 esi, edi
  0002b	56		 push	 esi
  0002c	57		 push	 edi
  0002d	e8 00 00 00 00	 call	 ??$_Median@PAUChangeDirInfo@@VChangeDirSort@@@std@@YAXPAUChangeDirInfo@@00VChangeDirSort@@@Z ; std::_Median<ChangeDirInfo *,ChangeDirSort>
  00032	83 c4 10	 add	 esp, 16			; 00000010H

; 3715 : 	_RanIt _Pfirst = _Mid;
; 3716 : 	_RanIt _Plast = _Pfirst + 1;

  00035	8d 5e 1c	 lea	 ebx, DWORD PTR [esi+28]
  00038	eb 76		 jmp	 SHORT $LN132@Unguarded_
$LL27@Unguarded_:

; 3717 : 
; 3718 : 	while (_First < _Pfirst
; 3719 : 		&& !_DEBUG_LT_PRED(_Pred, *(_Pfirst - 1), *_Pfirst)
; 3720 : 		&& !_Pred(*_Pfirst, *(_Pfirst - 1)))

  0003a	f3 0f 10 46 e4	 movss	 xmm0, DWORD PTR [esi-28]
  0003f	f3 0f 10 0e	 movss	 xmm1, DWORD PTR [esi]
  00043	0f 5a d0	 cvtps2pd xmm2, xmm0
  00046	0f 5a d9	 cvtps2pd xmm3, xmm1
  00049	66 0f 2f da	 comisd	 xmm3, xmm2
  0004d	77 65		 ja	 SHORT $LN120@Unguarded_
  0004f	0f 57 d2	 xorps	 xmm2, xmm2
  00052	0f 57 db	 xorps	 xmm3, xmm3
  00055	0f 5a d0	 cvtps2pd xmm2, xmm0
  00058	0f 5a d9	 cvtps2pd xmm3, xmm1
  0005b	66 0f 2e d3	 ucomisd xmm2, xmm3
  0005f	9f		 lahf
  00060	f6 c4 44	 test	 ah, 68			; 00000044H
  00063	7a 16		 jp	 SHORT $LN30@Unguarded_
  00065	f3 0f 10 56 f0	 movss	 xmm2, DWORD PTR [esi-16]
  0006a	f3 0f 10 5e 0c	 movss	 xmm3, DWORD PTR [esi+12]
  0006f	0f 5a d2	 cvtps2pd xmm2, xmm2
  00072	0f 5a db	 cvtps2pd xmm3, xmm3
  00075	66 0f 2f da	 comisd	 xmm3, xmm2
  00079	77 39		 ja	 SHORT $LN120@Unguarded_
$LN30@Unguarded_:
  0007b	0f 5a d1	 cvtps2pd xmm2, xmm1
  0007e	0f 5a d8	 cvtps2pd xmm3, xmm0
  00081	66 0f 2f da	 comisd	 xmm3, xmm2
  00085	77 2d		 ja	 SHORT $LN120@Unguarded_
  00087	0f 5a c9	 cvtps2pd xmm1, xmm1
  0008a	0f 5a c0	 cvtps2pd xmm0, xmm0
  0008d	66 0f 2e c8	 ucomisd xmm1, xmm0
  00091	9f		 lahf
  00092	f6 c4 44	 test	 ah, 68			; 00000044H
  00095	7a 16		 jp	 SHORT $LN36@Unguarded_
  00097	f3 0f 10 46 0c	 movss	 xmm0, DWORD PTR [esi+12]
  0009c	f3 0f 10 4e f0	 movss	 xmm1, DWORD PTR [esi-16]
  000a1	0f 5a c0	 cvtps2pd xmm0, xmm0
  000a4	0f 5a c9	 cvtps2pd xmm1, xmm1
  000a7	66 0f 2f c8	 comisd	 xmm1, xmm0
  000ab	77 07		 ja	 SHORT $LN120@Unguarded_
$LN36@Unguarded_:

; 3721 : 		--_Pfirst;

  000ad	83 c6 e4	 add	 esi, -28		; ffffffe4H
$LN132@Unguarded_:

; 3717 : 
; 3718 : 	while (_First < _Pfirst
; 3719 : 		&& !_DEBUG_LT_PRED(_Pred, *(_Pfirst - 1), *_Pfirst)
; 3720 : 		&& !_Pred(*_Pfirst, *(_Pfirst - 1)))

  000b0	3b fe		 cmp	 edi, esi
  000b2	72 86		 jb	 SHORT $LL27@Unguarded_
$LN120@Unguarded_:

; 3722 : 	while (_Plast < _Last
; 3723 : 		&& !_DEBUG_LT_PRED(_Pred, *_Plast, *_Pfirst)
; 3724 : 		&& !_Pred(*_Pfirst, *_Plast))

  000b4	3b 5d 10	 cmp	 ebx, DWORD PTR __Last$[ebp]
  000b7	0f 83 8b 00 00
	00		 jae	 $LN124@Unguarded_
  000bd	f3 0f 10 0e	 movss	 xmm1, DWORD PTR [esi]
$LL25@Unguarded_:
  000c1	f3 0f 10 03	 movss	 xmm0, DWORD PTR [ebx]
  000c5	0f 57 db	 xorps	 xmm3, xmm3
  000c8	0f 5a d0	 cvtps2pd xmm2, xmm0
  000cb	f3 0f 5a d9	 cvtss2sd xmm3, xmm1
  000cf	66 0f 2f da	 comisd	 xmm3, xmm2
  000d3	77 73		 ja	 SHORT $LN124@Unguarded_
  000d5	0f 57 d2	 xorps	 xmm2, xmm2
  000d8	0f 57 db	 xorps	 xmm3, xmm3
  000db	0f 5a d0	 cvtps2pd xmm2, xmm0
  000de	f3 0f 5a d9	 cvtss2sd xmm3, xmm1
  000e2	66 0f 2e d3	 ucomisd xmm2, xmm3
  000e6	9f		 lahf
  000e7	f6 c4 44	 test	 ah, 68			; 00000044H
  000ea	7a 16		 jp	 SHORT $LN42@Unguarded_
  000ec	f3 0f 10 53 0c	 movss	 xmm2, DWORD PTR [ebx+12]
  000f1	f3 0f 10 5e 0c	 movss	 xmm3, DWORD PTR [esi+12]
  000f6	0f 5a d2	 cvtps2pd xmm2, xmm2
  000f9	0f 5a db	 cvtps2pd xmm3, xmm3
  000fc	66 0f 2f da	 comisd	 xmm3, xmm2
  00100	77 46		 ja	 SHORT $LN124@Unguarded_
$LN42@Unguarded_:
  00102	0f 57 d2	 xorps	 xmm2, xmm2
  00105	f3 0f 5a d1	 cvtss2sd xmm2, xmm1
  00109	0f 5a d8	 cvtps2pd xmm3, xmm0
  0010c	66 0f 2f da	 comisd	 xmm3, xmm2
  00110	77 36		 ja	 SHORT $LN124@Unguarded_
  00112	0f 57 d2	 xorps	 xmm2, xmm2
  00115	f3 0f 5a d1	 cvtss2sd xmm2, xmm1
  00119	0f 5a c0	 cvtps2pd xmm0, xmm0
  0011c	66 0f 2e d0	 ucomisd xmm2, xmm0
  00120	9f		 lahf
  00121	f6 c4 44	 test	 ah, 68			; 00000044H
  00124	7a 16		 jp	 SHORT $LN48@Unguarded_
  00126	f3 0f 10 46 0c	 movss	 xmm0, DWORD PTR [esi+12]
  0012b	f3 0f 10 53 0c	 movss	 xmm2, DWORD PTR [ebx+12]
  00130	0f 5a c0	 cvtps2pd xmm0, xmm0
  00133	0f 5a d2	 cvtps2pd xmm2, xmm2
  00136	66 0f 2f d0	 comisd	 xmm2, xmm0
  0013a	77 0c		 ja	 SHORT $LN124@Unguarded_
$LN48@Unguarded_:

; 3725 : 		++_Plast;

  0013c	83 c3 1c	 add	 ebx, 28			; 0000001cH
  0013f	3b 5d 10	 cmp	 ebx, DWORD PTR __Last$[ebp]
  00142	0f 82 79 ff ff
	ff		 jb	 $LL25@Unguarded_
$LN124@Unguarded_:

; 3726 : 
; 3727 : 	_RanIt _Gfirst = _Plast;

  00148	8b fb		 mov	 edi, ebx

; 3728 : 	_RanIt _Glast = _Pfirst;

  0014a	89 75 fc	 mov	 DWORD PTR __Glast$[ebp], esi

; 3729 : 
; 3730 : 	for (; ; )
; 3731 : 		{	// partition
; 3732 : 		for (; _Gfirst < _Last; ++_Gfirst)

  0014d	e9 83 00 00 00	 jmp	 $LN134@Unguarded_
$LL21@Unguarded_:

; 3733 : 			if (_DEBUG_LT_PRED(_Pred, *_Pfirst, *_Gfirst))

  00152	f3 0f 10 06	 movss	 xmm0, DWORD PTR [esi]
  00156	f3 0f 10 0f	 movss	 xmm1, DWORD PTR [edi]
  0015a	0f 5a d0	 cvtps2pd xmm2, xmm0
  0015d	0f 5a d9	 cvtps2pd xmm3, xmm1
  00160	66 0f 2f da	 comisd	 xmm3, xmm2
  00164	77 6c		 ja	 SHORT $LN20@Unguarded_
  00166	0f 57 d2	 xorps	 xmm2, xmm2
  00169	0f 57 db	 xorps	 xmm3, xmm3
  0016c	0f 5a d0	 cvtps2pd xmm2, xmm0
  0016f	0f 5a d9	 cvtps2pd xmm3, xmm1
  00172	66 0f 2e d3	 ucomisd xmm2, xmm3
  00176	9f		 lahf
  00177	f6 c4 44	 test	 ah, 68			; 00000044H
  0017a	7a 16		 jp	 SHORT $LN54@Unguarded_
  0017c	f3 0f 10 56 0c	 movss	 xmm2, DWORD PTR [esi+12]
  00181	f3 0f 10 5f 0c	 movss	 xmm3, DWORD PTR [edi+12]
  00186	0f 5a d2	 cvtps2pd xmm2, xmm2
  00189	0f 5a db	 cvtps2pd xmm3, xmm3
  0018c	66 0f 2f da	 comisd	 xmm3, xmm2
  00190	77 40		 ja	 SHORT $LN20@Unguarded_
$LN54@Unguarded_:

; 3734 : 				;
; 3735 : 			else if (_Pred(*_Gfirst, *_Pfirst))

  00192	0f 5a d1	 cvtps2pd xmm2, xmm1
  00195	0f 5a d8	 cvtps2pd xmm3, xmm0
  00198	66 0f 2f da	 comisd	 xmm3, xmm2
  0019c	77 40		 ja	 SHORT $LN130@Unguarded_
  0019e	0f 5a c9	 cvtps2pd xmm1, xmm1
  001a1	0f 5a c0	 cvtps2pd xmm0, xmm0
  001a4	66 0f 2e c8	 ucomisd xmm1, xmm0
  001a8	9f		 lahf
  001a9	f6 c4 44	 test	 ah, 68			; 00000044H
  001ac	7a 16		 jp	 SHORT $LN60@Unguarded_
  001ae	f3 0f 10 47 0c	 movss	 xmm0, DWORD PTR [edi+12]
  001b3	f3 0f 10 4e 0c	 movss	 xmm1, DWORD PTR [esi+12]
  001b8	0f 5a c0	 cvtps2pd xmm0, xmm0
  001bb	0f 5a c9	 cvtps2pd xmm1, xmm1
  001be	66 0f 2f c8	 comisd	 xmm1, xmm0
  001c2	77 1a		 ja	 SHORT $LN130@Unguarded_
$LN60@Unguarded_:

; 3736 : 				break;
; 3737 : 			else
; 3738 : 				_STD iter_swap(_Plast++, _Gfirst);

  001c4	8b c3		 mov	 eax, ebx
  001c6	57		 push	 edi
  001c7	83 c3 1c	 add	 ebx, 28			; 0000001cH
  001ca	50		 push	 eax
$LN135@Unguarded_:
  001cb	e8 00 00 00 00	 call	 ??$swap@UChangeDirInfo@@@std@@YAXAAUChangeDirInfo@@0@Z ; std::swap<ChangeDirInfo>
  001d0	59		 pop	 ecx
  001d1	59		 pop	 ecx
$LN20@Unguarded_:

; 3729 : 
; 3730 : 	for (; ; )
; 3731 : 		{	// partition
; 3732 : 		for (; _Gfirst < _Last; ++_Gfirst)

  001d2	83 c7 1c	 add	 edi, 28			; 0000001cH
$LN134@Unguarded_:
  001d5	3b 7d 10	 cmp	 edi, DWORD PTR __Last$[ebp]
  001d8	0f 82 74 ff ff
	ff		 jb	 $LL21@Unguarded_
$LN130@Unguarded_:

; 3739 : 		for (; _First < _Glast; --_Glast)

  001de	8b 45 0c	 mov	 eax, DWORD PTR __First$[ebp]
  001e1	3b 45 fc	 cmp	 eax, DWORD PTR __Glast$[ebp]
  001e4	0f 83 96 00 00
	00		 jae	 $LN131@Unguarded_
$LL129@Unguarded_:
  001ea	8b 55 fc	 mov	 edx, DWORD PTR __Glast$[ebp]

; 3740 : 			if (_DEBUG_LT_PRED(_Pred, *(_Glast - 1), *_Pfirst))

  001ed	f3 0f 10 0e	 movss	 xmm1, DWORD PTR [esi]
  001f1	8d 4a e4	 lea	 ecx, DWORD PTR [edx-28]
  001f4	f3 0f 10 01	 movss	 xmm0, DWORD PTR [ecx]
  001f8	0f 5a d0	 cvtps2pd xmm2, xmm0
  001fb	0f 5a d9	 cvtps2pd xmm3, xmm1
  001fe	66 0f 2f da	 comisd	 xmm3, xmm2
  00202	89 4d f8	 mov	 DWORD PTR tv426[ebp], ecx
  00205	77 6d		 ja	 SHORT $LN13@Unguarded_
  00207	0f 57 d2	 xorps	 xmm2, xmm2
  0020a	0f 57 db	 xorps	 xmm3, xmm3
  0020d	0f 5a d0	 cvtps2pd xmm2, xmm0
  00210	0f 5a d9	 cvtps2pd xmm3, xmm1
  00213	66 0f 2e d3	 ucomisd xmm2, xmm3
  00217	9f		 lahf
  00218	f6 c4 44	 test	 ah, 68			; 00000044H
  0021b	7a 16		 jp	 SHORT $LN68@Unguarded_
  0021d	f3 0f 10 52 f0	 movss	 xmm2, DWORD PTR [edx-16]
  00222	f3 0f 10 5e 0c	 movss	 xmm3, DWORD PTR [esi+12]
  00227	0f 5a d2	 cvtps2pd xmm2, xmm2
  0022a	0f 5a db	 cvtps2pd xmm3, xmm3
  0022d	66 0f 2f da	 comisd	 xmm3, xmm2
  00231	77 41		 ja	 SHORT $LN13@Unguarded_
$LN68@Unguarded_:

; 3741 : 				;
; 3742 : 			else if (_Pred(*_Pfirst, *(_Glast - 1)))

  00233	0f 5a d1	 cvtps2pd xmm2, xmm1
  00236	0f 5a d8	 cvtps2pd xmm3, xmm0
  00239	66 0f 2f da	 comisd	 xmm3, xmm2
  0023d	77 41		 ja	 SHORT $LN131@Unguarded_
  0023f	0f 5a c9	 cvtps2pd xmm1, xmm1
  00242	0f 5a c0	 cvtps2pd xmm0, xmm0
  00245	66 0f 2e c8	 ucomisd xmm1, xmm0
  00249	9f		 lahf
  0024a	f6 c4 44	 test	 ah, 68			; 00000044H
  0024d	7a 16		 jp	 SHORT $LN74@Unguarded_
  0024f	f3 0f 10 46 0c	 movss	 xmm0, DWORD PTR [esi+12]
  00254	f3 0f 10 4a f0	 movss	 xmm1, DWORD PTR [edx-16]
  00259	0f 5a c0	 cvtps2pd xmm0, xmm0
  0025c	0f 5a c9	 cvtps2pd xmm1, xmm1
  0025f	66 0f 2f c8	 comisd	 xmm1, xmm0
  00263	77 1b		 ja	 SHORT $LN131@Unguarded_
$LN74@Unguarded_:

; 3743 : 				break;
; 3744 : 			else
; 3745 : 				_STD iter_swap(--_Pfirst, _Glast - 1);

  00265	83 ee 1c	 sub	 esi, 28			; 0000001cH
  00268	51		 push	 ecx
  00269	56		 push	 esi
  0026a	e8 00 00 00 00	 call	 ??$swap@UChangeDirInfo@@@std@@YAXAAUChangeDirInfo@@0@Z ; std::swap<ChangeDirInfo>
  0026f	59		 pop	 ecx
  00270	59		 pop	 ecx
  00271	8b 4d f8	 mov	 ecx, DWORD PTR tv426[ebp]
$LN13@Unguarded_:

; 3739 : 		for (; _First < _Glast; --_Glast)

  00274	89 4d fc	 mov	 DWORD PTR __Glast$[ebp], ecx
  00277	39 4d 0c	 cmp	 DWORD PTR __First$[ebp], ecx
  0027a	0f 82 6a ff ff
	ff		 jb	 $LL129@Unguarded_
$LN131@Unguarded_:

; 3746 : 		if (_Glast == _First && _Gfirst == _Last)

  00280	8b 45 fc	 mov	 eax, DWORD PTR __Glast$[ebp]
  00283	3b 45 0c	 cmp	 eax, DWORD PTR __First$[ebp]
  00286	75 1f		 jne	 SHORT $LN6@Unguarded_
  00288	3b 7d 10	 cmp	 edi, DWORD PTR __Last$[ebp]
  0028b	74 50		 je	 SHORT $LN112@Unguarded_

; 3748 : 
; 3749 : 		if (_Glast == _First)
; 3750 : 			{	// no room at bottom, rotate pivot upward
; 3751 : 			if (_Plast != _Gfirst)

  0028d	3b df		 cmp	 ebx, edi
  0028f	74 09		 je	 SHORT $LN94@Unguarded_

; 3752 : 				_STD iter_swap(_Pfirst, _Plast);

  00291	53		 push	 ebx
  00292	56		 push	 esi
  00293	e8 00 00 00 00	 call	 ??$swap@UChangeDirInfo@@@std@@YAXAAUChangeDirInfo@@0@Z ; std::swap<ChangeDirInfo>
  00298	59		 pop	 ecx
  00299	59		 pop	 ecx
$LN94@Unguarded_:

; 3753 : 			++_Plast;
; 3754 : 			_STD iter_swap(_Pfirst++, _Gfirst++);

  0029a	57		 push	 edi
  0029b	56		 push	 esi
  0029c	83 c3 1c	 add	 ebx, 28			; 0000001cH
  0029f	83 c6 1c	 add	 esi, 28			; 0000001cH
  002a2	83 c7 1c	 add	 edi, 28			; 0000001cH
  002a5	eb 21		 jmp	 SHORT $LN133@Unguarded_
$LN6@Unguarded_:

; 3755 : 			}
; 3756 : 		else if (_Gfirst == _Last)
; 3757 : 			{	// no room at top, rotate pivot downward
; 3758 : 			if (--_Glast != --_Pfirst)

  002a7	83 6d fc 1c	 sub	 DWORD PTR __Glast$[ebp], 28 ; 0000001cH
  002ab	3b 7d 10	 cmp	 edi, DWORD PTR __Last$[ebp]
  002ae	75 24		 jne	 SHORT $LN3@Unguarded_
  002b0	83 ee 1c	 sub	 esi, 28			; 0000001cH
  002b3	39 75 fc	 cmp	 DWORD PTR __Glast$[ebp], esi
  002b6	74 0b		 je	 SHORT $LN98@Unguarded_

; 3759 : 				_STD iter_swap(_Glast, _Pfirst);

  002b8	56		 push	 esi
  002b9	ff 75 fc	 push	 DWORD PTR __Glast$[ebp]
  002bc	e8 00 00 00 00	 call	 ??$swap@UChangeDirInfo@@@std@@YAXAAUChangeDirInfo@@0@Z ; std::swap<ChangeDirInfo>
  002c1	59		 pop	 ecx
  002c2	59		 pop	 ecx
$LN98@Unguarded_:

; 3760 : 			_STD iter_swap(_Pfirst, --_Plast);

  002c3	83 eb 1c	 sub	 ebx, 28			; 0000001cH
  002c6	53		 push	 ebx
  002c7	56		 push	 esi
$LN133@Unguarded_:
  002c8	e8 00 00 00 00	 call	 ??$swap@UChangeDirInfo@@@std@@YAXAAUChangeDirInfo@@0@Z ; std::swap<ChangeDirInfo>
  002cd	59		 pop	 ecx
  002ce	59		 pop	 ecx

; 3761 : 			}
; 3762 : 		else

  002cf	e9 01 ff ff ff	 jmp	 $LN134@Unguarded_
$LN3@Unguarded_:

; 3763 : 			_STD iter_swap(_Gfirst++, --_Glast);

  002d4	ff 75 fc	 push	 DWORD PTR __Glast$[ebp]
  002d7	57		 push	 edi

; 3764 : 		}

  002d8	e9 ee fe ff ff	 jmp	 $LN135@Unguarded_
$LN112@Unguarded_:

; 3747 : 			return (_STD pair<_RanIt, _RanIt>(_Pfirst, _Plast));

  002dd	8b 45 08	 mov	 eax, DWORD PTR ___$ReturnUdt$[ebp]
  002e0	5f		 pop	 edi
  002e1	89 30		 mov	 DWORD PTR [eax], esi
  002e3	5e		 pop	 esi
  002e4	89 58 04	 mov	 DWORD PTR [eax+4], ebx
  002e7	5b		 pop	 ebx

; 3765 : 	}

  002e8	c9		 leave
  002e9	c3		 ret	 0
??$_Unguarded_partition@PAUChangeDirInfo@@VChangeDirSort@@@std@@YA?AU?$pair@PAUChangeDirInfo@@PAU1@@0@PAUChangeDirInfo@@0VChangeDirSort@@@Z ENDP ; std::_Unguarded_partition<ChangeDirInfo *,ChangeDirSort>
_TEXT	ENDS
PUBLIC	??$make_heap@PAUChangeDirInfo@@VChangeDirSort@@@std@@YAXPAUChangeDirInfo@@0VChangeDirSort@@@Z ; std::make_heap<ChangeDirInfo *,ChangeDirSort>
; Function compile flags: /Ogsp
;	COMDAT ??$make_heap@PAUChangeDirInfo@@VChangeDirSort@@@std@@YAXPAUChangeDirInfo@@0VChangeDirSort@@@Z
_TEXT	SEGMENT
__First$ = 8						; size = 4
__Last$ = 12						; size = 4
__Pred$ = 16						; size = 1
??$make_heap@PAUChangeDirInfo@@VChangeDirSort@@@std@@YAXPAUChangeDirInfo@@0VChangeDirSort@@@Z PROC ; std::make_heap<ChangeDirInfo *,ChangeDirSort>, COMDAT

; 2672 : 	{	// make [_First, _Last) into a heap, using _Pred

  00000	55		 push	 ebp
  00001	8b ec		 mov	 ebp, esp

; 2673 : 	_DEBUG_RANGE(_First, _Last);
; 2674 : 	_DEBUG_POINTER(_Pred);
; 2675 : 	if (1 < _Last - _First)

  00003	8b 45 0c	 mov	 eax, DWORD PTR __Last$[ebp]
  00006	2b 45 08	 sub	 eax, DWORD PTR __First$[ebp]
  00009	6a 1c		 push	 28			; 0000001cH
  0000b	99		 cdq
  0000c	59		 pop	 ecx
  0000d	f7 f9		 idiv	 ecx
  0000f	83 f8 01	 cmp	 eax, 1
  00012	7e 15		 jle	 SHORT $LN1@make_heap

; 2676 : 		_Make_heap(_Unchecked(_First), _Unchecked(_Last), _Pred,
; 2677 : 			_Dist_type(_First), _Val_type(_First));

  00014	6a 00		 push	 0
  00016	6a 00		 push	 0
  00018	ff 75 10	 push	 DWORD PTR __Pred$[ebp]
  0001b	ff 75 0c	 push	 DWORD PTR __Last$[ebp]
  0001e	ff 75 08	 push	 DWORD PTR __First$[ebp]
  00021	e8 00 00 00 00	 call	 ??$_Make_heap@PAUChangeDirInfo@@HU1@VChangeDirSort@@@std@@YAXPAUChangeDirInfo@@0VChangeDirSort@@PAH0@Z ; std::_Make_heap<ChangeDirInfo *,int,ChangeDirInfo,ChangeDirSort>
  00026	83 c4 14	 add	 esp, 20			; 00000014H
$LN1@make_heap:

; 2678 : 	}

  00029	5d		 pop	 ebp
  0002a	c3		 ret	 0
??$make_heap@PAUChangeDirInfo@@VChangeDirSort@@@std@@YAXPAUChangeDirInfo@@0VChangeDirSort@@@Z ENDP ; std::make_heap<ChangeDirInfo *,ChangeDirSort>
_TEXT	ENDS
PUBLIC	??$_Pop_heap@PAUChangeDirInfo@@VChangeDirSort@@@std@@YAXPAUChangeDirInfo@@0VChangeDirSort@@@Z ; std::_Pop_heap<ChangeDirInfo *,ChangeDirSort>
; Function compile flags: /Ogsp
;	COMDAT ??$_Pop_heap@PAUChangeDirInfo@@VChangeDirSort@@@std@@YAXPAUChangeDirInfo@@0VChangeDirSort@@@Z
_TEXT	SEGMENT
__First$ = 8						; size = 4
__Last$ = 12						; size = 4
__Pred$ = 16						; size = 1
??$_Pop_heap@PAUChangeDirInfo@@VChangeDirSort@@@std@@YAXPAUChangeDirInfo@@0VChangeDirSort@@@Z PROC ; std::_Pop_heap<ChangeDirInfo *,ChangeDirSort>, COMDAT

; 2610 : 	{	// pop *_First to *(_Last - 1) and reheap, using _Pred

  00000	55		 push	 ebp
  00001	8b ec		 mov	 ebp, esp

; 2611 : 	_Pop_heap_0(_Unchecked(_First), _Unchecked(_Last), _Pred,
; 2612 : 		_Val_type(_First));

  00003	6a 00		 push	 0
  00005	ff 75 10	 push	 DWORD PTR __Pred$[ebp]
  00008	ff 75 0c	 push	 DWORD PTR __Last$[ebp]
  0000b	ff 75 08	 push	 DWORD PTR __First$[ebp]
  0000e	e8 00 00 00 00	 call	 ??$_Pop_heap_0@PAUChangeDirInfo@@U1@VChangeDirSort@@@std@@YAXPAUChangeDirInfo@@0VChangeDirSort@@0@Z ; std::_Pop_heap_0<ChangeDirInfo *,ChangeDirInfo,ChangeDirSort>
  00013	83 c4 10	 add	 esp, 16			; 00000010H

; 2613 : 	}

  00016	5d		 pop	 ebp
  00017	c3		 ret	 0
??$_Pop_heap@PAUChangeDirInfo@@VChangeDirSort@@@std@@YAXPAUChangeDirInfo@@0VChangeDirSort@@@Z ENDP ; std::_Pop_heap<ChangeDirInfo *,ChangeDirSort>
_TEXT	ENDS
PUBLIC	?_Destroy@?$vector@UChangeDirInfo@@V?$allocator@UChangeDirInfo@@@std@@@std@@IAEXPAUChangeDirInfo@@0@Z ; std::vector<ChangeDirInfo,std::allocator<ChangeDirInfo> >::_Destroy
; Function compile flags: /Ogsp
; File c:\program files (x86)\microsoft visual studio 10.0\vc\include\vector
;	COMDAT ?_Destroy@?$vector@UChangeDirInfo@@V?$allocator@UChangeDirInfo@@@std@@@std@@IAEXPAUChangeDirInfo@@0@Z
_TEXT	SEGMENT
__First$ = 8						; size = 4
__Last$ = 12						; size = 4
?_Destroy@?$vector@UChangeDirInfo@@V?$allocator@UChangeDirInfo@@@std@@@std@@IAEXPAUChangeDirInfo@@0@Z PROC ; std::vector<ChangeDirInfo,std::allocator<ChangeDirInfo> >::_Destroy, COMDAT
; _this$ = ecx

; 1270 : 		_Destroy_range(_First, _Last, this->_Alval);
; 1271 : 		}

  00000	c2 08 00	 ret	 8
?_Destroy@?$vector@UChangeDirInfo@@V?$allocator@UChangeDirInfo@@@std@@@std@@IAEXPAUChangeDirInfo@@0@Z ENDP ; std::vector<ChangeDirInfo,std::allocator<ChangeDirInfo> >::_Destroy
_TEXT	ENDS
PUBLIC	?_Tidy@?$vector@UChangeDirInfo@@V?$allocator@UChangeDirInfo@@@std@@@std@@IAEXXZ ; std::vector<ChangeDirInfo,std::allocator<ChangeDirInfo> >::_Tidy
EXTRN	__imp_?_Orphan_all@_Container_base0@std@@QAEXXZ:PROC
; Function compile flags: /Ogsp
;	COMDAT ?_Tidy@?$vector@UChangeDirInfo@@V?$allocator@UChangeDirInfo@@@std@@@std@@IAEXXZ
_TEXT	SEGMENT
?_Tidy@?$vector@UChangeDirInfo@@V?$allocator@UChangeDirInfo@@@std@@@std@@IAEXXZ PROC ; std::vector<ChangeDirInfo,std::allocator<ChangeDirInfo> >::_Tidy, COMDAT
; _this$ = ecx

; 1301 : 		{	// free all storage

  00000	56		 push	 esi
  00001	8b f1		 mov	 esi, ecx

; 1302 : 		if (this->_Myfirst != 0)

  00003	83 3e 00	 cmp	 DWORD PTR [esi], 0
  00006	74 0e		 je	 SHORT $LN21@Tidy

; 1303 : 			{	// something to free, destroy and deallocate it
; 1304 : 			this->_Orphan_all();

  00008	ff 15 00 00 00
	00		 call	 DWORD PTR __imp_?_Orphan_all@_Container_base0@std@@QAEXXZ

; 1305 : 			_Destroy(this->_Myfirst, this->_Mylast);
; 1306 : 			this->_Alval.deallocate(this->_Myfirst,
; 1307 : 				this->_Myend - this->_Myfirst);

  0000e	ff 36		 push	 DWORD PTR [esi]
  00010	e8 00 00 00 00	 call	 ??3@YAXPAX@Z		; operator delete
  00015	59		 pop	 ecx
$LN21@Tidy:

; 1308 : 			}
; 1309 : 		this->_Myfirst = 0;

  00016	83 26 00	 and	 DWORD PTR [esi], 0

; 1310 : 		this->_Mylast = 0;

  00019	83 66 04 00	 and	 DWORD PTR [esi+4], 0

; 1311 : 		this->_Myend = 0;

  0001d	83 66 08 00	 and	 DWORD PTR [esi+8], 0
  00021	5e		 pop	 esi

; 1312 : 		}

  00022	c3		 ret	 0
?_Tidy@?$vector@UChangeDirInfo@@V?$allocator@UChangeDirInfo@@@std@@@std@@IAEXXZ ENDP ; std::vector<ChangeDirInfo,std::allocator<ChangeDirInfo> >::_Tidy
_TEXT	ENDS
PUBLIC	??$_Umove@PAUChangeDirInfo@@@?$vector@UChangeDirInfo@@V?$allocator@UChangeDirInfo@@@std@@@std@@IAEPAUChangeDirInfo@@PAU2@00@Z ; std::vector<ChangeDirInfo,std::allocator<ChangeDirInfo> >::_Umove<ChangeDirInfo *>
; Function compile flags: /Ogsp
;	COMDAT ??$_Umove@PAUChangeDirInfo@@@?$vector@UChangeDirInfo@@V?$allocator@UChangeDirInfo@@@std@@@std@@IAEPAUChangeDirInfo@@PAU2@00@Z
_TEXT	SEGMENT
__First$ = 8						; size = 4
__Last$ = 12						; size = 4
__Ptr$ = 16						; size = 4
??$_Umove@PAUChangeDirInfo@@@?$vector@UChangeDirInfo@@V?$allocator@UChangeDirInfo@@@std@@@std@@IAEPAUChangeDirInfo@@PAU2@00@Z PROC ; std::vector<ChangeDirInfo,std::allocator<ChangeDirInfo> >::_Umove<ChangeDirInfo *>, COMDAT
; _this$ = ecx

; 1322 : 		pointer _Umove(_Iter _First, _Iter _Last, pointer _Ptr)

  00000	55		 push	 ebp
  00001	8b ec		 mov	 ebp, esp

; 1323 : 		{	// move initializing [_First, _Last), using allocator
; 1324 : 		return (_Uninitialized_move(_First, _Last,
; 1325 : 			_Ptr, this->_Alval));

  00003	83 c1 0c	 add	 ecx, 12			; 0000000cH
  00006	51		 push	 ecx
  00007	ff 75 10	 push	 DWORD PTR __Ptr$[ebp]
  0000a	ff 75 0c	 push	 DWORD PTR __Last$[ebp]
  0000d	ff 75 08	 push	 DWORD PTR __First$[ebp]
  00010	e8 00 00 00 00	 call	 ??$_Uninitialized_move@PAUChangeDirInfo@@PAU1@V?$allocator@UChangeDirInfo@@@std@@@std@@YAPAUChangeDirInfo@@PAU1@00AAV?$allocator@UChangeDirInfo@@@0@@Z ; std::_Uninitialized_move<ChangeDirInfo *,ChangeDirInfo *,std::allocator<ChangeDirInfo> >
  00015	83 c4 10	 add	 esp, 16			; 00000010H

; 1326 : 		}

  00018	5d		 pop	 ebp
  00019	c2 0c 00	 ret	 12			; 0000000cH
??$_Umove@PAUChangeDirInfo@@@?$vector@UChangeDirInfo@@V?$allocator@UChangeDirInfo@@@std@@@std@@IAEPAUChangeDirInfo@@PAU2@00@Z ENDP ; std::vector<ChangeDirInfo,std::allocator<ChangeDirInfo> >::_Umove<ChangeDirInfo *>
_TEXT	ENDS
PUBLIC	??$_Sort_heap@PAUChangeDirInfo@@VChangeDirSort@@@std@@YAXPAUChangeDirInfo@@0VChangeDirSort@@@Z ; std::_Sort_heap<ChangeDirInfo *,ChangeDirSort>
; Function compile flags: /Ogsp
; File c:\program files (x86)\microsoft visual studio 10.0\vc\include\algorithm
;	COMDAT ??$_Sort_heap@PAUChangeDirInfo@@VChangeDirSort@@@std@@YAXPAUChangeDirInfo@@0VChangeDirSort@@@Z
_TEXT	SEGMENT
__First$ = 8						; size = 4
__Last$ = 12						; size = 4
__Pred$ = 16						; size = 1
??$_Sort_heap@PAUChangeDirInfo@@VChangeDirSort@@@std@@YAXPAUChangeDirInfo@@0VChangeDirSort@@@Z PROC ; std::_Sort_heap<ChangeDirInfo *,ChangeDirSort>, COMDAT

; 2700 : 	{	// order heap by repeatedly popping, using _Pred

  00000	55		 push	 ebp
  00001	8b ec		 mov	 ebp, esp

; 2701 : 	for (; 1 < _Last - _First; --_Last)

  00003	8b 4d 0c	 mov	 ecx, DWORD PTR __Last$[ebp]
  00006	2b 4d 08	 sub	 ecx, DWORD PTR __First$[ebp]
  00009	57		 push	 edi
  0000a	8b c1		 mov	 eax, ecx
  0000c	6a 1c		 push	 28			; 0000001cH
  0000e	99		 cdq
  0000f	5f		 pop	 edi
  00010	f7 ff		 idiv	 edi
  00012	83 f8 01	 cmp	 eax, 1
  00015	7e 29		 jle	 SHORT $LN1@Sort_heap
  00017	8b f9		 mov	 edi, ecx
$LL3@Sort_heap:

; 2702 : 		_Pop_heap(_First, _Last, _Pred);

  00019	6a 00		 push	 0
  0001b	ff 75 10	 push	 DWORD PTR __Pred$[ebp]
  0001e	ff 75 0c	 push	 DWORD PTR __Last$[ebp]
  00021	ff 75 08	 push	 DWORD PTR __First$[ebp]
  00024	e8 00 00 00 00	 call	 ??$_Pop_heap_0@PAUChangeDirInfo@@U1@VChangeDirSort@@@std@@YAXPAUChangeDirInfo@@0VChangeDirSort@@0@Z ; std::_Pop_heap_0<ChangeDirInfo *,ChangeDirInfo,ChangeDirSort>
  00029	83 c4 10	 add	 esp, 16			; 00000010H
  0002c	83 ef 1c	 sub	 edi, 28			; 0000001cH
  0002f	8b c7		 mov	 eax, edi
  00031	6a 1c		 push	 28			; 0000001cH
  00033	99		 cdq
  00034	59		 pop	 ecx
  00035	f7 f9		 idiv	 ecx
  00037	83 6d 0c 1c	 sub	 DWORD PTR __Last$[ebp], 28 ; 0000001cH
  0003b	83 f8 01	 cmp	 eax, 1
  0003e	7f d9		 jg	 SHORT $LL3@Sort_heap
$LN1@Sort_heap:
  00040	5f		 pop	 edi

; 2703 : 	}

  00041	5d		 pop	 ebp
  00042	c3		 ret	 0
??$_Sort_heap@PAUChangeDirInfo@@VChangeDirSort@@@std@@YAXPAUChangeDirInfo@@0VChangeDirSort@@@Z ENDP ; std::_Sort_heap<ChangeDirInfo *,ChangeDirSort>
_TEXT	ENDS
PUBLIC	??1?$vector@UChangeDirInfo@@V?$allocator@UChangeDirInfo@@@std@@@std@@QAE@XZ ; std::vector<ChangeDirInfo,std::allocator<ChangeDirInfo> >::~vector<ChangeDirInfo,std::allocator<ChangeDirInfo> >
; Function compile flags: /Ogsp
; File c:\program files (x86)\microsoft visual studio 10.0\vc\include\vector
;	COMDAT ??1?$vector@UChangeDirInfo@@V?$allocator@UChangeDirInfo@@@std@@@std@@QAE@XZ
_TEXT	SEGMENT
??1?$vector@UChangeDirInfo@@V?$allocator@UChangeDirInfo@@@std@@@std@@QAE@XZ PROC ; std::vector<ChangeDirInfo,std::allocator<ChangeDirInfo> >::~vector<ChangeDirInfo,std::allocator<ChangeDirInfo> >, COMDAT
; _this$ = ecx

; 705  : 		_Tidy();

  00000	e9 00 00 00 00	 jmp	 ?_Tidy@?$vector@UChangeDirInfo@@V?$allocator@UChangeDirInfo@@@std@@@std@@IAEXXZ ; std::vector<ChangeDirInfo,std::allocator<ChangeDirInfo> >::_Tidy
??1?$vector@UChangeDirInfo@@V?$allocator@UChangeDirInfo@@@std@@@std@@QAE@XZ ENDP ; std::vector<ChangeDirInfo,std::allocator<ChangeDirInfo> >::~vector<ChangeDirInfo,std::allocator<ChangeDirInfo> >
_TEXT	ENDS
PUBLIC	?reserve@?$vector@UChangeDirInfo@@V?$allocator@UChangeDirInfo@@@std@@@std@@QAEXI@Z ; std::vector<ChangeDirInfo,std::allocator<ChangeDirInfo> >::reserve
EXTRN	__EH_prolog3_catch:PROC
;	COMDAT xdata$x
; File c:\program files (x86)\microsoft visual studio 10.0\vc\include\xmemory
xdata$x	SEGMENT
__catchsym$?reserve@?$vector@UChangeDirInfo@@V?$allocator@UChangeDirInfo@@@std@@@std@@QAEXI@Z$2 DD 040H
	DD	00H
	DD	00H
	DD	FLAT:__catch$?reserve@?$vector@UChangeDirInfo@@V?$allocator@UChangeDirInfo@@@std@@@std@@QAEXI@Z$0
__unwindtable$?reserve@?$vector@UChangeDirInfo@@V?$allocator@UChangeDirInfo@@@std@@@std@@QAEXI@Z DD 0ffffffffH
	DD	00H
	DD	0ffffffffH
	DD	00H
__tryblocktable$?reserve@?$vector@UChangeDirInfo@@V?$allocator@UChangeDirInfo@@@std@@@std@@QAEXI@Z DD 00H
	DD	00H
	DD	01H
	DD	01H
	DD	FLAT:__catchsym$?reserve@?$vector@UChangeDirInfo@@V?$allocator@UChangeDirInfo@@@std@@@std@@QAEXI@Z$2
__ehfuncinfo$?reserve@?$vector@UChangeDirInfo@@V?$allocator@UChangeDirInfo@@@std@@@std@@QAEXI@Z DD 019930522H
	DD	02H
	DD	FLAT:__unwindtable$?reserve@?$vector@UChangeDirInfo@@V?$allocator@UChangeDirInfo@@@std@@@std@@QAEXI@Z
	DD	01H
	DD	FLAT:__tryblocktable$?reserve@?$vector@UChangeDirInfo@@V?$allocator@UChangeDirInfo@@@std@@@std@@QAEXI@Z
	DD	2 DUP(00H)
	DD	00H
	DD	01H
; Function compile flags: /Ogsp
; File c:\program files (x86)\microsoft visual studio 10.0\vc\include\vector
xdata$x	ENDS
;	COMDAT ?reserve@?$vector@UChangeDirInfo@@V?$allocator@UChangeDirInfo@@@std@@@std@@QAEXI@Z
_TEXT	SEGMENT
__$EHRec$ = -16						; size = 16
__Ptr$532166 = 8					; size = 4
__Count$ = 8						; size = 4
?reserve@?$vector@UChangeDirInfo@@V?$allocator@UChangeDirInfo@@@std@@@std@@QAEXI@Z PROC ; std::vector<ChangeDirInfo,std::allocator<ChangeDirInfo> >::reserve, COMDAT
; _this$ = ecx

; 746  : 		{	// determine new minimum length of allocated storage

  00000	6a 04		 push	 4
  00002	b8 00 00 00 00	 mov	 eax, __ehhandler$?reserve@?$vector@UChangeDirInfo@@V?$allocator@UChangeDirInfo@@@std@@@std@@QAEXI@Z
  00007	e8 00 00 00 00	 call	 __EH_prolog3_catch
  0000c	8b f1		 mov	 esi, ecx

; 747  : 		if (max_size() < _Count)

  0000e	8b 5d 08	 mov	 ebx, DWORD PTR __Count$[ebp]
  00011	81 fb 49 92 24
	09		 cmp	 ebx, 153391689		; 09249249H
  00017	76 0b		 jbe	 SHORT $LN5@reserve

; 748  : 			_Xlen();	// result too long

  00019	68 00 00 00 00	 push	 OFFSET ??_C@_0BD@OLBABOEK@vector?$DMT?$DO?5too?5long?$AA@
  0001e	ff 15 00 00 00
	00		 call	 DWORD PTR __imp_?_Xlength_error@std@@YAXPBD@Z
$LN56@reserve:
$LN5@reserve:

; 749  : 		else if (capacity() < _Count)

  00024	8b 46 08	 mov	 eax, DWORD PTR [esi+8]
  00027	2b 06		 sub	 eax, DWORD PTR [esi]
  00029	6a 1c		 push	 28			; 0000001cH
  0002b	99		 cdq
  0002c	59		 pop	 ecx
  0002d	f7 f9		 idiv	 ecx
  0002f	3b c3		 cmp	 eax, ebx
  00031	73 6b		 jae	 SHORT $LN3@reserve

; 750  : 			{	// not enough room, reallocate
; 751  : 			pointer _Ptr = this->_Alval.allocate(_Count);

  00033	6a 00		 push	 0
  00035	53		 push	 ebx
  00036	e8 00 00 00 00	 call	 ??$_Allocate@UChangeDirInfo@@@std@@YAPAUChangeDirInfo@@IPAU1@@Z ; std::_Allocate<ChangeDirInfo>

; 752  : 
; 753  : 			_TRY_BEGIN
; 754  : 			_Umove(this->_Myfirst, this->_Mylast, _Ptr);

  0003b	8b 0e		 mov	 ecx, DWORD PTR [esi]
  0003d	83 65 fc 00	 and	 DWORD PTR __$EHRec$[ebp+12], 0
  00041	8d 56 0c	 lea	 edx, DWORD PTR [esi+12]
  00044	52		 push	 edx
  00045	89 45 08	 mov	 DWORD PTR __Ptr$532166[ebp], eax
  00048	ff 75 08	 push	 DWORD PTR __Ptr$532166[ebp]
  0004b	8b 46 04	 mov	 eax, DWORD PTR [esi+4]
  0004e	50		 push	 eax
  0004f	51		 push	 ecx
  00050	e8 00 00 00 00	 call	 ??$_Uninitialized_move@PAUChangeDirInfo@@PAU1@V?$allocator@UChangeDirInfo@@@std@@@std@@YAPAUChangeDirInfo@@PAU1@00AAV?$allocator@UChangeDirInfo@@@0@@Z ; std::_Uninitialized_move<ChangeDirInfo *,ChangeDirInfo *,std::allocator<ChangeDirInfo> >

; 758  : 			_CATCH_END
; 759  : 
; 760  : 			size_type _Size = size();

  00055	8b 0e		 mov	 ecx, DWORD PTR [esi]
  00057	8b 46 04	 mov	 eax, DWORD PTR [esi+4]
  0005a	83 c4 18	 add	 esp, 24			; 00000018H
  0005d	2b c1		 sub	 eax, ecx
  0005f	6a 1c		 push	 28			; 0000001cH
  00061	99		 cdq
  00062	5f		 pop	 edi
  00063	f7 ff		 idiv	 edi
  00065	83 4d fc ff	 or	 DWORD PTR __$EHRec$[ebp+12], -1
  00069	8b f8		 mov	 edi, eax
  0006b	85 c9		 test	 ecx, ecx
  0006d	74 12		 je	 SHORT $LN48@reserve

; 761  : 			if (this->_Myfirst != 0)

  0006f	eb 03		 jmp	 SHORT $LN55@reserve

; 762  : 				{	// destroy and deallocate old array
; 763  : 				_Destroy(this->_Myfirst, this->_Mylast);

$LL39@reserve:
  00071	83 c1 1c	 add	 ecx, 28			; 0000001cH
$LN55@reserve:
  00074	3b 4e 04	 cmp	 ecx, DWORD PTR [esi+4]
  00077	75 f8		 jne	 SHORT $LL39@reserve

; 764  : 				this->_Alval.deallocate(this->_Myfirst,
; 765  : 					this->_Myend - this->_Myfirst);

  00079	ff 36		 push	 DWORD PTR [esi]
  0007b	e8 00 00 00 00	 call	 ??3@YAXPAX@Z		; operator delete
  00080	59		 pop	 ecx
$LN48@reserve:

; 766  : 				}
; 767  : 
; 768  : 			this->_Orphan_all();

  00081	8b ce		 mov	 ecx, esi
  00083	ff 15 00 00 00
	00		 call	 DWORD PTR __imp_?_Orphan_all@_Container_base0@std@@QAEXXZ

; 769  : 			this->_Myend = _Ptr + _Count;

  00089	6b db 1c	 imul	 ebx, 28			; 0000001cH

; 770  : 			this->_Mylast = _Ptr + _Size;

  0008c	6b ff 1c	 imul	 edi, 28			; 0000001cH
  0008f	8b 45 08	 mov	 eax, DWORD PTR __Ptr$532166[ebp]
  00092	03 d8		 add	 ebx, eax
  00094	03 f8		 add	 edi, eax
  00096	89 5e 08	 mov	 DWORD PTR [esi+8], ebx
  00099	89 7e 04	 mov	 DWORD PTR [esi+4], edi

; 771  : 			this->_Myfirst = _Ptr;

  0009c	89 06		 mov	 DWORD PTR [esi], eax
$LN3@reserve:

; 772  : 			}
; 773  : 		}

  0009e	e8 00 00 00 00	 call	 __EH_epilog3
  000a3	c2 04 00	 ret	 4
__catch$?reserve@?$vector@UChangeDirInfo@@V?$allocator@UChangeDirInfo@@@std@@@std@@QAEXI@Z$0:

; 755  : 			_CATCH_ALL
; 756  : 			this->_Alval.deallocate(_Ptr, _Count);

  000a6	ff 75 08	 push	 DWORD PTR __Ptr$532166[ebp]
  000a9	e8 00 00 00 00	 call	 ??3@YAXPAX@Z		; operator delete
  000ae	59		 pop	 ecx

; 757  : 			_RERAISE;

  000af	6a 00		 push	 0
  000b1	6a 00		 push	 0
  000b3	e8 00 00 00 00	 call	 __CxxThrowException@8
$LN57@reserve:
$LN54@reserve:
  000b8	cc		 int	 3
_TEXT	ENDS
;	COMDAT text$x
text$x	SEGMENT
__ehhandler$?reserve@?$vector@UChangeDirInfo@@V?$allocator@UChangeDirInfo@@@std@@@std@@QAEXI@Z:
  00000	8b 54 24 08	 mov	 edx, DWORD PTR [esp+8]
  00004	8d 42 0c	 lea	 eax, DWORD PTR [edx+12]
  00007	8b 4a ec	 mov	 ecx, DWORD PTR [edx-20]
  0000a	33 c8		 xor	 ecx, eax
  0000c	e8 00 00 00 00	 call	 @__security_check_cookie@4
  00011	b8 00 00 00 00	 mov	 eax, OFFSET __ehfuncinfo$?reserve@?$vector@UChangeDirInfo@@V?$allocator@UChangeDirInfo@@@std@@@std@@QAEXI@Z
  00016	e9 00 00 00 00	 jmp	 ___CxxFrameHandler3
text$x	ENDS
?reserve@?$vector@UChangeDirInfo@@V?$allocator@UChangeDirInfo@@@std@@@std@@QAEXI@Z ENDP ; std::vector<ChangeDirInfo,std::allocator<ChangeDirInfo> >::reserve
PUBLIC	?erase@?$vector@UChangeDirInfo@@V?$allocator@UChangeDirInfo@@@std@@@std@@QAE?AV?$_Vector_iterator@V?$_Vector_val@UChangeDirInfo@@V?$allocator@UChangeDirInfo@@@std@@@std@@@2@V?$_Vector_const_iterator@V?$_Vector_val@UChangeDirInfo@@V?$allocator@UChangeDirInfo@@@std@@@std@@@2@@Z ; std::vector<ChangeDirInfo,std::allocator<ChangeDirInfo> >::erase
; Function compile flags: /Ogsp
;	COMDAT ?erase@?$vector@UChangeDirInfo@@V?$allocator@UChangeDirInfo@@@std@@@std@@QAE?AV?$_Vector_iterator@V?$_Vector_val@UChangeDirInfo@@V?$allocator@UChangeDirInfo@@@std@@@std@@@2@V?$_Vector_const_iterator@V?$_Vector_val@UChangeDirInfo@@V?$allocator@UChangeDirInfo@@@std@@@std@@@2@@Z
_TEXT	SEGMENT
___$ReturnUdt$ = 8					; size = 4
__Cat$538090 = 12					; size = 1
__Where$ = 12						; size = 4
?erase@?$vector@UChangeDirInfo@@V?$allocator@UChangeDirInfo@@@std@@@std@@QAE?AV?$_Vector_iterator@V?$_Vector_val@UChangeDirInfo@@V?$allocator@UChangeDirInfo@@@std@@@std@@@2@V?$_Vector_const_iterator@V?$_Vector_val@UChangeDirInfo@@V?$allocator@UChangeDirInfo@@@std@@@std@@@2@@Z PROC ; std::vector<ChangeDirInfo,std::allocator<ChangeDirInfo> >::erase, COMDAT
; _this$ = ecx

; 1179 : 		{	// erase element at where

  00000	55		 push	 ebp
  00001	8b ec		 mov	 ebp, esp

; 1180 : 		_Move(_VIPTR(_Where) + 1, this->_Mylast,
; 1181 : 			_VIPTR(_Where));

  00003	8b 45 0c	 mov	 eax, DWORD PTR __Where$[ebp]
  00006	56		 push	 esi
  00007	ff 75 0c	 push	 DWORD PTR __Cat$538090[ebp]
  0000a	8b f1		 mov	 esi, ecx
  0000c	50		 push	 eax
  0000d	ff 76 04	 push	 DWORD PTR [esi+4]
  00010	83 c0 1c	 add	 eax, 28			; 0000001cH
  00013	50		 push	 eax
  00014	e8 00 00 00 00	 call	 ??$_Move@PAUChangeDirInfo@@PAU1@@std@@YAPAUChangeDirInfo@@PAU1@00U_Nonscalar_ptr_iterator_tag@0@@Z ; std::_Move<ChangeDirInfo *,ChangeDirInfo *>

; 1182 : 		_Destroy(this->_Mylast - 1, this->_Mylast);
; 1183 : 		--this->_Mylast;
; 1184 : 		return (_Make_iter(_Where));

  00019	8b 45 08	 mov	 eax, DWORD PTR ___$ReturnUdt$[ebp]
  0001c	8b 4d 0c	 mov	 ecx, DWORD PTR __Where$[ebp]
  0001f	83 c4 10	 add	 esp, 16			; 00000010H
  00022	83 46 04 e4	 add	 DWORD PTR [esi+4], -28	; ffffffe4H
  00026	89 08		 mov	 DWORD PTR [eax], ecx
  00028	5e		 pop	 esi

; 1185 : 		}

  00029	5d		 pop	 ebp
  0002a	c2 08 00	 ret	 8
?erase@?$vector@UChangeDirInfo@@V?$allocator@UChangeDirInfo@@@std@@@std@@QAE?AV?$_Vector_iterator@V?$_Vector_val@UChangeDirInfo@@V?$allocator@UChangeDirInfo@@@std@@@std@@@2@V?$_Vector_const_iterator@V?$_Vector_val@UChangeDirInfo@@V?$allocator@UChangeDirInfo@@@std@@@std@@@2@@Z ENDP ; std::vector<ChangeDirInfo,std::allocator<ChangeDirInfo> >::erase
_TEXT	ENDS
PUBLIC	?erase@?$vector@UChangeDirInfo@@V?$allocator@UChangeDirInfo@@@std@@@std@@QAE?AV?$_Vector_iterator@V?$_Vector_val@UChangeDirInfo@@V?$allocator@UChangeDirInfo@@@std@@@std@@@2@V?$_Vector_const_iterator@V?$_Vector_val@UChangeDirInfo@@V?$allocator@UChangeDirInfo@@@std@@@std@@@2@0@Z ; std::vector<ChangeDirInfo,std::allocator<ChangeDirInfo> >::erase
; Function compile flags: /Ogsp
;	COMDAT ?erase@?$vector@UChangeDirInfo@@V?$allocator@UChangeDirInfo@@@std@@@std@@QAE?AV?$_Vector_iterator@V?$_Vector_val@UChangeDirInfo@@V?$allocator@UChangeDirInfo@@@std@@@std@@@2@V?$_Vector_const_iterator@V?$_Vector_val@UChangeDirInfo@@V?$allocator@UChangeDirInfo@@@std@@@std@@@2@0@Z
_TEXT	SEGMENT
___$ReturnUdt$ = 8					; size = 4
__First_arg$ = 12					; size = 4
__Cat$538266 = 16					; size = 1
__Last_arg$ = 16					; size = 4
?erase@?$vector@UChangeDirInfo@@V?$allocator@UChangeDirInfo@@@std@@@std@@QAE?AV?$_Vector_iterator@V?$_Vector_val@UChangeDirInfo@@V?$allocator@UChangeDirInfo@@@std@@@std@@@2@V?$_Vector_const_iterator@V?$_Vector_val@UChangeDirInfo@@V?$allocator@UChangeDirInfo@@@std@@@std@@@2@0@Z PROC ; std::vector<ChangeDirInfo,std::allocator<ChangeDirInfo> >::erase, COMDAT
; _this$ = ecx

; 1190 : 		{	// erase [_First, _Last)

  00000	55		 push	 ebp
  00001	8b ec		 mov	 ebp, esp

; 1191 : 		iterator _First = _Make_iter(_First_arg);

  00003	8b 45 0c	 mov	 eax, DWORD PTR __First_arg$[ebp]
  00006	56		 push	 esi
  00007	57		 push	 edi
  00008	8b 7d 08	 mov	 edi, DWORD PTR ___$ReturnUdt$[ebp]
  0000b	8b f1		 mov	 esi, ecx
  0000d	89 07		 mov	 DWORD PTR [edi], eax

; 1192 : 		iterator _Last = _Make_iter(_Last_arg);
; 1193 : 
; 1194 : 		if (_First != _Last)

  0000f	3b 45 10	 cmp	 eax, DWORD PTR __Last_arg$[ebp]
  00012	74 16		 je	 SHORT $LN1@erase

; 1195 : 			{	// worth doing, copy down over hole
; 1196 :  #if _ITERATOR_DEBUG_LEVEL == 2
; 1197 : 			if (_Last < _First || _VICONT(_First) != this
; 1198 : 				|| _VIPTR(_First) < this->_Myfirst
; 1199 : 				|| this->_Mylast < _VIPTR(_Last))
; 1200 : 				_DEBUG_ERROR("vector erase iterator outside range");
; 1201 : 			pointer _Ptr = _Move(_VIPTR(_Last), this->_Mylast,
; 1202 : 				_VIPTR(_First));
; 1203 : 			_Orphan_range(_VIPTR(_First), this->_Mylast);
; 1204 : 
; 1205 :  #else /* _ITERATOR_DEBUG_LEVEL == 2 */
; 1206 : 			pointer _Ptr = _Move(_VIPTR(_Last), this->_Mylast,
; 1207 : 				_VIPTR(_First));

  00014	ff 75 10	 push	 DWORD PTR __Cat$538266[ebp]
  00017	8b 4e 04	 mov	 ecx, DWORD PTR [esi+4]
  0001a	50		 push	 eax
  0001b	51		 push	 ecx
  0001c	ff 75 10	 push	 DWORD PTR __Last_arg$[ebp]
  0001f	e8 00 00 00 00	 call	 ??$_Move@PAUChangeDirInfo@@PAU1@@std@@YAPAUChangeDirInfo@@PAU1@00U_Nonscalar_ptr_iterator_tag@0@@Z ; std::_Move<ChangeDirInfo *,ChangeDirInfo *>
  00024	83 c4 10	 add	 esp, 16			; 00000010H

; 1208 :  #endif /* _ITERATOR_DEBUG_LEVEL == 2 */
; 1209 : 
; 1210 : 			_Destroy(_Ptr, this->_Mylast);
; 1211 : 			this->_Mylast = _Ptr;

  00027	89 46 04	 mov	 DWORD PTR [esi+4], eax
$LN1@erase:

; 1212 : 			}
; 1213 : 		return (_First);

  0002a	8b c7		 mov	 eax, edi
  0002c	5f		 pop	 edi
  0002d	5e		 pop	 esi

; 1214 : 		}

  0002e	5d		 pop	 ebp
  0002f	c2 0c 00	 ret	 12			; 0000000cH
?erase@?$vector@UChangeDirInfo@@V?$allocator@UChangeDirInfo@@@std@@@std@@QAE?AV?$_Vector_iterator@V?$_Vector_val@UChangeDirInfo@@V?$allocator@UChangeDirInfo@@@std@@@std@@@2@V?$_Vector_const_iterator@V?$_Vector_val@UChangeDirInfo@@V?$allocator@UChangeDirInfo@@@std@@@std@@@2@0@Z ENDP ; std::vector<ChangeDirInfo,std::allocator<ChangeDirInfo> >::erase
_TEXT	ENDS
PUBLIC	?_Reserve@?$vector@UChangeDirInfo@@V?$allocator@UChangeDirInfo@@@std@@@std@@IAEXI@Z ; std::vector<ChangeDirInfo,std::allocator<ChangeDirInfo> >::_Reserve
; Function compile flags: /Ogsp
;	COMDAT ?_Reserve@?$vector@UChangeDirInfo@@V?$allocator@UChangeDirInfo@@@std@@@std@@IAEXI@Z
_TEXT	SEGMENT
__Count$ = 8						; size = 4
?_Reserve@?$vector@UChangeDirInfo@@V?$allocator@UChangeDirInfo@@@std@@@std@@IAEXI@Z PROC ; std::vector<ChangeDirInfo,std::allocator<ChangeDirInfo> >::_Reserve, COMDAT
; _this$ = ecx

; 1290 : 		{	// ensure room for _Count new elements, grow exponentially

  00000	55		 push	 ebp
  00001	8b ec		 mov	 ebp, esp
  00003	56		 push	 esi
  00004	8b f1		 mov	 esi, ecx

; 1291 : 		size_type _Size = size();

  00006	8b 0e		 mov	 ecx, DWORD PTR [esi]
  00008	8b 46 04	 mov	 eax, DWORD PTR [esi+4]
  0000b	2b c1		 sub	 eax, ecx
  0000d	57		 push	 edi
  0000e	99		 cdq
  0000f	6a 1c		 push	 28			; 0000001cH
  00011	5f		 pop	 edi
  00012	f7 ff		 idiv	 edi
  00014	8b f8		 mov	 edi, eax

; 1292 : 		if (max_size() - _Count < _Size)

  00016	b8 49 92 24 09	 mov	 eax, 153391689		; 09249249H
  0001b	2b 45 08	 sub	 eax, DWORD PTR __Count$[ebp]
  0001e	3b c7		 cmp	 eax, edi
  00020	73 0b		 jae	 SHORT $LN4@Reserve

; 1293 : 			_Xlen();

  00022	68 00 00 00 00	 push	 OFFSET ??_C@_0BD@OLBABOEK@vector?$DMT?$DO?5too?5long?$AA@
  00027	ff 15 00 00 00
	00		 call	 DWORD PTR __imp_?_Xlength_error@std@@YAXPBD@Z
$LN21@Reserve:
$LN4@Reserve:

; 1294 : 		else if ((_Size += _Count) <= capacity())

  0002d	8b 46 08	 mov	 eax, DWORD PTR [esi+8]
  00030	2b c1		 sub	 eax, ecx
  00032	6a 1c		 push	 28			; 0000001cH
  00034	99		 cdq
  00035	59		 pop	 ecx
  00036	f7 f9		 idiv	 ecx
  00038	03 7d 08	 add	 edi, DWORD PTR __Count$[ebp]
  0003b	3b f8		 cmp	 edi, eax
  0003d	76 10		 jbe	 SHORT $LN1@Reserve

; 1295 : 			;
; 1296 : 		else
; 1297 : 			reserve(_Grow_to(_Size));

  0003f	57		 push	 edi
  00040	8b ce		 mov	 ecx, esi
  00042	e8 00 00 00 00	 call	 ?_Grow_to@?$vector@UChangeDirInfo@@V?$allocator@UChangeDirInfo@@@std@@@std@@IBEII@Z ; std::vector<ChangeDirInfo,std::allocator<ChangeDirInfo> >::_Grow_to
  00047	50		 push	 eax
  00048	8b ce		 mov	 ecx, esi
  0004a	e8 00 00 00 00	 call	 ?reserve@?$vector@UChangeDirInfo@@V?$allocator@UChangeDirInfo@@@std@@@std@@QAEXI@Z ; std::vector<ChangeDirInfo,std::allocator<ChangeDirInfo> >::reserve
$LN1@Reserve:
  0004f	5f		 pop	 edi
  00050	5e		 pop	 esi

; 1298 : 		}

  00051	5d		 pop	 ebp
  00052	c2 04 00	 ret	 4
$LN20@Reserve:
?_Reserve@?$vector@UChangeDirInfo@@V?$allocator@UChangeDirInfo@@@std@@@std@@IAEXI@Z ENDP ; std::vector<ChangeDirInfo,std::allocator<ChangeDirInfo> >::_Reserve
_TEXT	ENDS
PUBLIC	??$sort_heap@PAUChangeDirInfo@@VChangeDirSort@@@std@@YAXPAUChangeDirInfo@@0VChangeDirSort@@@Z ; std::sort_heap<ChangeDirInfo *,ChangeDirSort>
; Function compile flags: /Ogsp
; File c:\program files (x86)\microsoft visual studio 10.0\vc\include\algorithm
;	COMDAT ??$sort_heap@PAUChangeDirInfo@@VChangeDirSort@@@std@@YAXPAUChangeDirInfo@@0VChangeDirSort@@@Z
_TEXT	SEGMENT
__First$ = 8						; size = 4
__Last$ = 12						; size = 4
__Pred$ = 16						; size = 1
??$sort_heap@PAUChangeDirInfo@@VChangeDirSort@@@std@@YAXPAUChangeDirInfo@@0VChangeDirSort@@@Z PROC ; std::sort_heap<ChangeDirInfo *,ChangeDirSort>, COMDAT

; 2708 : 	{	// order heap by repeatedly popping, using _Pred

  00000	55		 push	 ebp
  00001	8b ec		 mov	 ebp, esp

; 2709 : 	_DEBUG_RANGE(_First, _Last);
; 2710 : 	_DEBUG_POINTER(_Pred);
; 2711 : 	_DEBUG_HEAP_PRED(_First, _Last, _Pred);
; 2712 : 	_Sort_heap(_Unchecked(_First), _Unchecked(_Last), _Pred);

  00003	ff 75 10	 push	 DWORD PTR __Pred$[ebp]
  00006	ff 75 0c	 push	 DWORD PTR __Last$[ebp]
  00009	ff 75 08	 push	 DWORD PTR __First$[ebp]
  0000c	e8 00 00 00 00	 call	 ??$_Sort_heap@PAUChangeDirInfo@@VChangeDirSort@@@std@@YAXPAUChangeDirInfo@@0VChangeDirSort@@@Z ; std::_Sort_heap<ChangeDirInfo *,ChangeDirSort>
  00011	83 c4 0c	 add	 esp, 12			; 0000000cH

; 2713 : 	}

  00014	5d		 pop	 ebp
  00015	c3		 ret	 0
??$sort_heap@PAUChangeDirInfo@@VChangeDirSort@@@std@@YAXPAUChangeDirInfo@@0VChangeDirSort@@@Z ENDP ; std::sort_heap<ChangeDirInfo *,ChangeDirSort>
_TEXT	ENDS
PUBLIC	??_7ioTraceWeaponType3@@6B@			; ioTraceWeaponType3::`vftable'
PUBLIC	??0ioTraceWeaponType3@@QAE@PAVioBaseChar@@PBUWeaponAttribute@@@Z ; ioTraceWeaponType3::ioTraceWeaponType3
PUBLIC	??_R4ioTraceWeaponType3@@6B@			; ioTraceWeaponType3::`RTTI Complete Object Locator'
PUBLIC	??_R0?AVioTraceWeaponType3@@@8			; ioTraceWeaponType3 `RTTI Type Descriptor'
PUBLIC	??_R3ioTraceWeaponType3@@8			; ioTraceWeaponType3::`RTTI Class Hierarchy Descriptor'
PUBLIC	??_R2ioTraceWeaponType3@@8			; ioTraceWeaponType3::`RTTI Base Class Array'
PUBLIC	??_R1A@?0A@EA@ioTraceWeaponType3@@8		; ioTraceWeaponType3::`RTTI Base Class Descriptor at (0,-1,0,64)'
PUBLIC	??_R1A@?0A@EA@ioWeapon@@8			; ioWeapon::`RTTI Base Class Descriptor at (0,-1,0,64)'
PUBLIC	??_R0?AVioWeapon@@@8				; ioWeapon `RTTI Type Descriptor'
PUBLIC	??_R3ioWeapon@@8				; ioWeapon::`RTTI Class Hierarchy Descriptor'
PUBLIC	??_R2ioWeapon@@8				; ioWeapon::`RTTI Base Class Array'
PUBLIC	?LoadProperty@ioTraceWeaponType3@@UAEXAAVioINILoader@@@Z ; ioTraceWeaponType3::LoadProperty
PUBLIC	?Process@ioTraceWeaponType3@@UAEXMPAVioPlayStage@@@Z ; ioTraceWeaponType3::Process
EXTRN	__imp_??1ioOrientBox@@QAE@XZ:PROC
EXTRN	??1ioWeapon@@UAE@XZ:PROC			; ioWeapon::~ioWeapon
EXTRN	?SetPeculiarity@ioWeapon@@QAEXK@Z:PROC		; ioWeapon::SetPeculiarity
EXTRN	__imp_??0ioOrientBox@@QAE@XZ:PROC
EXTRN	??0ioWeapon@@QAE@PAVioBaseChar@@PBUWeaponAttribute@@@Z:PROC ; ioWeapon::ioWeapon
EXTRN	?IsAlreadyCollisioned@ioWeapon@@UAE_NPAVioPlayEntity@@@Z:PROC ; ioWeapon::IsAlreadyCollisioned
EXTRN	?AddCollisionEntity@ioWeapon@@UAEXPAVioPlayEntity@@@Z:PROC ; ioWeapon::AddCollisionEntity
EXTRN	?SetOwnerDamageRate@ioWeapon@@UAEXM@Z:PROC	; ioWeapon::SetOwnerDamageRate
EXTRN	?SetOwnerChargeDamageRate@ioWeapon@@UAEXM@Z:PROC ; ioWeapon::SetOwnerChargeDamageRate
EXTRN	?SetOwnerChargeForceRate@ioWeapon@@UAEXM@Z:PROC	; ioWeapon::SetOwnerChargeForceRate
EXTRN	?SetOwnerChargeRangeRate@ioWeapon@@UAEXM@Z:PROC	; ioWeapon::SetOwnerChargeRangeRate
EXTRN	?SetOwnerChargeSpeedRate@ioWeapon@@UAEXM@Z:PROC	; ioWeapon::SetOwnerChargeSpeedRate
EXTRN	?SetOwnerChargeBlowRate@ioWeapon@@UAEXM@Z:PROC	; ioWeapon::SetOwnerChargeBlowRate
EXTRN	?SetOwnerChargeFloatRate@ioWeapon@@UAEXM@Z:PROC	; ioWeapon::SetOwnerChargeFloatRate
EXTRN	?SetOwnerChargeExplosionRate@ioWeapon@@UAEXM@Z:PROC ; ioWeapon::SetOwnerChargeExplosionRate
EXTRN	?SetOwnerChargeWoundedTimeRate@ioWeapon@@UAEXM@Z:PROC ; ioWeapon::SetOwnerChargeWoundedTimeRate
EXTRN	?SetOwnerChargeLiveTimeRate@ioWeapon@@UAEXM@Z:PROC ; ioWeapon::SetOwnerChargeLiveTimeRate
EXTRN	?SetOwnerChargeBuffLiveTimeRate@ioWeapon@@UAEXM@Z:PROC ; ioWeapon::SetOwnerChargeBuffLiveTimeRate
EXTRN	?SetWeaponIndex@ioWeapon@@UAEXK@Z:PROC		; ioWeapon::SetWeaponIndex
EXTRN	?SetGrapplingTargetName@ioWeapon@@UAEXABVioHashString@@@Z:PROC ; ioWeapon::SetGrapplingTargetName
EXTRN	?SetCreateItem@ioWeapon@@UAEXABVioHashString@@@Z:PROC ; ioWeapon::SetCreateItem
EXTRN	?SetTeam@ioWeapon@@UAEXPAVioPlayStage@@W4TeamType@@@Z:PROC ; ioWeapon::SetTeam
EXTRN	?CallReserveAreaWeapon@ioWeapon@@UAEXXZ:PROC	; ioWeapon::CallReserveAreaWeapon
EXTRN	?SetWeaponDead@ioWeapon@@UAEXXZ:PROC		; ioWeapon::SetWeaponDead
EXTRN	?PlayWoundedSound@ioWeapon@@UAEXPAVioPlayEntity@@@Z:PROC ; ioWeapon::PlayWoundedSound
EXTRN	?PlayDefensedSound@ioWeapon@@UAEXPAVioPlayEntity@@@Z:PROC ; ioWeapon::PlayDefensedSound
EXTRN	?PlayLoopSound@ioWeapon@@UAEXXZ:PROC		; ioWeapon::PlayLoopSound
EXTRN	?StopLoopSound@ioWeapon@@UAEXXZ:PROC		; ioWeapon::StopLoopSound
EXTRN	?GetTargetAirBuffList@ioWeapon@@UBEABV?$vector@UBuffInfoStruct@@V?$allocator@UBuffInfoStruct@@@std@@@std@@XZ:PROC ; ioWeapon::GetTargetAirBuffList
EXTRN	?GetTargetBuffList@ioWeapon@@UBEABV?$vector@UBuffInfoStruct@@V?$allocator@UBuffInfoStruct@@@std@@@std@@XZ:PROC ; ioWeapon::GetTargetBuffList
EXTRN	?GetTargetDownBuffList@ioWeapon@@UBEABV?$vector@UBuffInfoStruct@@V?$allocator@UBuffInfoStruct@@@std@@@std@@XZ:PROC ; ioWeapon::GetTargetDownBuffList
EXTRN	?GetPosition@ioWeapon@@UBEABUD3DXVECTOR3@@XZ:PROC ; ioWeapon::GetPosition
EXTRN	?GetBlowType@ioWeapon@@UBE?AW4BlowTargetType@@XZ:PROC ; ioWeapon::GetBlowType
EXTRN	?GetPushPower@ioWeapon@@UBEMM@Z:PROC		; ioWeapon::GetPushPower
EXTRN	?GetBlowPower@ioWeapon@@UBEMM@Z:PROC		; ioWeapon::GetBlowPower
EXTRN	?GetAirPushPower@ioWeapon@@UBEMM@Z:PROC		; ioWeapon::GetAirPushPower
EXTRN	?GetAirBlowPower@ioWeapon@@UBEMM@Z:PROC		; ioWeapon::GetAirBlowPower
EXTRN	?GetDefensePushPower@ioWeapon@@UBEMM@Z:PROC	; ioWeapon::GetDefensePushPower
EXTRN	?SetSylphid@ioWeapon@@UAEHXZ:PROC		; ioWeapon::SetSylphid
EXTRN	?ApplyExtraReserveWeaponByWeaponInfo@ioWeapon@@UAEXPAV1@@Z:PROC ; ioWeapon::ApplyExtraReserveWeaponByWeaponInfo
EXTRN	?SetResistanceAttr@ioWeapon@@UAEXH@Z:PROC	; ioWeapon::SetResistanceAttr
EXTRN	?SetStartCollisionBox@ioWeapon@@UAEXXZ:PROC	; ioWeapon::SetStartCollisionBox
EXTRN	?SetMoveDir@ioWeapon@@UAEXABUD3DXVECTOR3@@@Z:PROC ; ioWeapon::SetMoveDir
EXTRN	?SetMoveSpeed@ioWeapon@@UAEXM@Z:PROC		; ioWeapon::SetMoveSpeed
EXTRN	?SetFloatPower@ioWeapon@@UAEXM@Z:PROC		; ioWeapon::SetFloatPower
EXTRN	?CheckStructAndDummy@ioWeapon@@UAEXPAVioPlayEntity@@PAVioPlayStage@@@Z:PROC ; ioWeapon::CheckStructAndDummy
EXTRN	?GetDamage@ioWeapon@@UAEMPAVioPlayEntity@@@Z:PROC ; ioWeapon::GetDamage
EXTRN	?GetBaseDamage@ioWeapon@@UAEMPAVioPlayEntity@@@Z:PROC ; ioWeapon::GetBaseDamage
EXTRN	?GetPushAngle@ioWeapon@@UBEMXZ:PROC		; ioWeapon::GetPushAngle
EXTRN	?IsResistanceMagic@ioWeapon@@UAEHPAVioBaseChar@@@Z:PROC ; ioWeapon::IsResistanceMagic
EXTRN	?IsResistanceBomb@ioWeapon@@UAEHPAVioBaseChar@@@Z:PROC ; ioWeapon::IsResistanceBomb
EXTRN	?CheckGrapplingState@ioWeapon@@UAE?AW4GrapplingType@@XZ:PROC ; ioWeapon::CheckGrapplingState
EXTRN	?CheckCurAttribute@ioWeapon@@UAEXPBVioPlayEntity@@@Z:PROC ; ioWeapon::CheckCurAttribute
EXTRN	?CheckItemNotDrop@ioWeapon@@UAE_NPAVioBaseChar@@@Z:PROC ; ioWeapon::CheckItemNotDrop
EXTRN	?GetWorldAttackBoxList@ioWeapon@@UAEXAAV?$vector@VioOrientBox@@V?$allocator@VioOrientBox@@@std@@@std@@@Z:PROC ; ioWeapon::GetWorldAttackBoxList
EXTRN	?GetAttackDir@ioWeapon@@UBE?AUD3DXVECTOR3@@PBVioPlayEntity@@@Z:PROC ; ioWeapon::GetAttackDir
EXTRN	?GetLiveTime@ioWeapon@@UAEKXZ:PROC		; ioWeapon::GetLiveTime
EXTRN	?GetMoveDir@ioWeapon@@UAE?AUD3DXVECTOR3@@XZ:PROC ; ioWeapon::GetMoveDir
EXTRN	?CheckWeaponCollision@ioWeapon@@UAEXXZ:PROC	; ioWeapon::CheckWeaponCollision
EXTRN	?GetRefreshDuration@ioWeapon@@UAEKXZ:PROC	; ioWeapon::GetRefreshDuration
EXTRN	?GetIgnoreDuration@ioWeapon@@UAEKXZ:PROC	; ioWeapon::GetIgnoreDuration
EXTRN	?GetIgnoreTimeTypeDuration@ioWeapon@@UAEKXZ:PROC ; ioWeapon::GetIgnoreTimeTypeDuration
EXTRN	?GetIgnoreTimeType@ioWeapon@@UAEKXZ:PROC	; ioWeapon::GetIgnoreTimeType
EXTRN	?ApplyWeaponSync@ioWeapon@@UAEXAAVSP2Packet@@PAVioPlayStage@@@Z:PROC ; ioWeapon::ApplyWeaponSync
EXTRN	?IsSkillDependency@ioWeapon@@UAE_NABVioHashString@@@Z:PROC ; ioWeapon::IsSkillDependency
EXTRN	?SetSkillDependencyAction@ioWeapon@@UAEXXZ:PROC	; ioWeapon::SetSkillDependencyAction
EXTRN	?GetAttribute@ioWeapon@@MBEPBUWeaponAttribute@@XZ:PROC ; ioWeapon::GetAttribute
EXTRN	?CalcFinalDamage@ioWeapon@@MAEMXZ:PROC		; ioWeapon::CalcFinalDamage
EXTRN	?CalcFinalBoundDamage@ioWeapon@@MAEMXZ:PROC	; ioWeapon::CalcFinalBoundDamage
EXTRN	?CheckPiercing@ioWeapon@@MAE_N_N@Z:PROC		; ioWeapon::CheckPiercing
EXTRN	?ClearCollisionList@ioWeapon@@MAEXXZ:PROC	; ioWeapon::ClearCollisionList
EXTRN	?CheckCreateWeaponList@ioWeapon@@MAEXXZ:PROC	; ioWeapon::CheckCreateWeaponList
EXTRN	?CreateCollisionAreaWeapon@ioWeapon@@MAEXXZ:PROC ; ioWeapon::CreateCollisionAreaWeapon
EXTRN	?SetMapCollision@ioWeapon@@UAEXXZ:PROC		; ioWeapon::SetMapCollision
EXTRN	?IsIgnoreMapCollision@ioWeapon@@UBE_NXZ:PROC	; ioWeapon::IsIgnoreMapCollision
EXTRN	?IsIgnoreTestMapCollision@ioWeapon@@UBE_NXZ:PROC ; ioWeapon::IsIgnoreTestMapCollision
EXTRN	?IsIgnoreMapCollisionEffect@ioWeapon@@UBE_NXZ:PROC ; ioWeapon::IsIgnoreMapCollisionEffect
EXTRN	?AddEffectEvent@ioWeapon@@MAEXPAVioEffect@@@Z:PROC ; ioWeapon::AddEffectEvent
EXTRN	??_EioTraceWeaponType3@@UAEPAXI@Z:PROC		; ioTraceWeaponType3::`vector deleting destructor'
;	COMDAT ??_R2ioWeapon@@8
; File c:\program files (x86)\microsoft directx sdk (june 2010)\include\d3dx9math.h
rdata$r	SEGMENT
??_R2ioWeapon@@8 DD FLAT:??_R1A@?0A@EA@ioWeapon@@8	; ioWeapon::`RTTI Base Class Array'
rdata$r	ENDS
;	COMDAT ??_R3ioWeapon@@8
rdata$r	SEGMENT
??_R3ioWeapon@@8 DD 00H					; ioWeapon::`RTTI Class Hierarchy Descriptor'
	DD	00H
	DD	01H
	DD	FLAT:??_R2ioWeapon@@8
rdata$r	ENDS
;	COMDAT ??_R0?AVioWeapon@@@8
_DATA	SEGMENT
??_R0?AVioWeapon@@@8 DD FLAT:??_7type_info@@6B@		; ioWeapon `RTTI Type Descriptor'
	DD	00H
	DB	'.?AVioWeapon@@', 00H
_DATA	ENDS
;	COMDAT ??_R1A@?0A@EA@ioWeapon@@8
rdata$r	SEGMENT
??_R1A@?0A@EA@ioWeapon@@8 DD FLAT:??_R0?AVioWeapon@@@8	; ioWeapon::`RTTI Base Class Descriptor at (0,-1,0,64)'
	DD	00H
	DD	00H
	DD	0ffffffffH
	DD	00H
	DD	040H
	DD	FLAT:??_R3ioWeapon@@8
rdata$r	ENDS
;	COMDAT ??_R1A@?0A@EA@ioTraceWeaponType3@@8
rdata$r	SEGMENT
??_R1A@?0A@EA@ioTraceWeaponType3@@8 DD FLAT:??_R0?AVioTraceWeaponType3@@@8 ; ioTraceWeaponType3::`RTTI Base Class Descriptor at (0,-1,0,64)'
	DD	01H
	DD	00H
	DD	0ffffffffH
	DD	00H
	DD	040H
	DD	FLAT:??_R3ioTraceWeaponType3@@8
rdata$r	ENDS
;	COMDAT ??_R2ioTraceWeaponType3@@8
rdata$r	SEGMENT
??_R2ioTraceWeaponType3@@8 DD FLAT:??_R1A@?0A@EA@ioTraceWeaponType3@@8 ; ioTraceWeaponType3::`RTTI Base Class Array'
	DD	FLAT:??_R1A@?0A@EA@ioWeapon@@8
rdata$r	ENDS
;	COMDAT ??_R3ioTraceWeaponType3@@8
rdata$r	SEGMENT
??_R3ioTraceWeaponType3@@8 DD 00H			; ioTraceWeaponType3::`RTTI Class Hierarchy Descriptor'
	DD	00H
	DD	02H
	DD	FLAT:??_R2ioTraceWeaponType3@@8
rdata$r	ENDS
;	COMDAT ??_R0?AVioTraceWeaponType3@@@8
_DATA	SEGMENT
??_R0?AVioTraceWeaponType3@@@8 DD FLAT:??_7type_info@@6B@ ; ioTraceWeaponType3 `RTTI Type Descriptor'
	DD	00H
	DB	'.?AVioTraceWeaponType3@@', 00H
_DATA	ENDS
;	COMDAT ??_R4ioTraceWeaponType3@@6B@
rdata$r	SEGMENT
??_R4ioTraceWeaponType3@@6B@ DD 00H			; ioTraceWeaponType3::`RTTI Complete Object Locator'
	DD	00H
	DD	00H
	DD	FLAT:??_R0?AVioTraceWeaponType3@@@8
	DD	FLAT:??_R3ioTraceWeaponType3@@8
rdata$r	ENDS
;	COMDAT ??_7ioTraceWeaponType3@@6B@
CONST	SEGMENT
??_7ioTraceWeaponType3@@6B@ DD FLAT:??_R4ioTraceWeaponType3@@6B@ ; ioTraceWeaponType3::`vftable'
	DD	FLAT:?IsAlreadyCollisioned@ioWeapon@@UAE_NPAVioPlayEntity@@@Z
	DD	FLAT:?AddCollisionEntity@ioWeapon@@UAEXPAVioPlayEntity@@@Z
	DD	FLAT:?SetOwnerDamageRate@ioWeapon@@UAEXM@Z
	DD	FLAT:?SetOwnerChargeDamageRate@ioWeapon@@UAEXM@Z
	DD	FLAT:?SetOwnerChargeForceRate@ioWeapon@@UAEXM@Z
	DD	FLAT:?SetOwnerChargeRangeRate@ioWeapon@@UAEXM@Z
	DD	FLAT:?SetOwnerChargeSpeedRate@ioWeapon@@UAEXM@Z
	DD	FLAT:?SetOwnerChargeBlowRate@ioWeapon@@UAEXM@Z
	DD	FLAT:?SetOwnerChargeFloatRate@ioWeapon@@UAEXM@Z
	DD	FLAT:?SetOwnerChargeScaleRate@ioTraceWeaponType3@@UAEXM@Z
	DD	FLAT:?SetOwnerChargeExplosionRate@ioWeapon@@UAEXM@Z
	DD	FLAT:?SetOwnerChargeWoundedTimeRate@ioWeapon@@UAEXM@Z
	DD	FLAT:?SetOwnerChargeLiveTimeRate@ioWeapon@@UAEXM@Z
	DD	FLAT:?SetOwnerChargeBuffLiveTimeRate@ioWeapon@@UAEXM@Z
	DD	FLAT:?SetWeaponIndex@ioWeapon@@UAEXK@Z
	DD	FLAT:?SetGrapplingTargetName@ioWeapon@@UAEXABVioHashString@@@Z
	DD	FLAT:?SetCreateItem@ioWeapon@@UAEXABVioHashString@@@Z
	DD	FLAT:?SetTeam@ioWeapon@@UAEXPAVioPlayStage@@W4TeamType@@@Z
	DD	FLAT:?CallReserveAreaWeapon@ioWeapon@@UAEXXZ
	DD	FLAT:?SetWeaponDead@ioWeapon@@UAEXXZ
	DD	FLAT:?PlayExplosionSound@ioWeapon@@UAEXXZ
	DD	FLAT:?PlayWoundedSound@ioWeapon@@UAEXPAVioPlayEntity@@@Z
	DD	FLAT:?PlayDefensedSound@ioWeapon@@UAEXPAVioPlayEntity@@@Z
	DD	FLAT:?PlayLoopSound@ioWeapon@@UAEXXZ
	DD	FLAT:?StopLoopSound@ioWeapon@@UAEXXZ
	DD	FLAT:?GetTargetAirBuffList@ioWeapon@@UBEABV?$vector@UBuffInfoStruct@@V?$allocator@UBuffInfoStruct@@@std@@@std@@XZ
	DD	FLAT:?GetTargetBuffList@ioWeapon@@UBEABV?$vector@UBuffInfoStruct@@V?$allocator@UBuffInfoStruct@@@std@@@std@@XZ
	DD	FLAT:?GetTargetDownBuffList@ioWeapon@@UBEABV?$vector@UBuffInfoStruct@@V?$allocator@UBuffInfoStruct@@@std@@@std@@XZ
	DD	FLAT:?GetPosition@ioWeapon@@UBEABUD3DXVECTOR3@@XZ
	DD	FLAT:?GetBlowType@ioWeapon@@UBE?AW4BlowTargetType@@XZ
	DD	FLAT:?GetPushPower@ioWeapon@@UBEMM@Z
	DD	FLAT:?GetBlowPower@ioWeapon@@UBEMM@Z
	DD	FLAT:?GetAirPushPower@ioWeapon@@UBEMM@Z
	DD	FLAT:?GetAirBlowPower@ioWeapon@@UBEMM@Z
	DD	FLAT:?GetDefensePushPower@ioWeapon@@UBEMM@Z
	DD	FLAT:?GetCollisionEnableTime@ioTraceWeaponType3@@UBEKXZ
	DD	FLAT:?SetSylphid@ioWeapon@@UAEHXZ
	DD	FLAT:?ApplyExtraReserveWeaponByWeaponInfo@ioWeapon@@UAEXPAV1@@Z
	DD	FLAT:?InitResource@ioTraceWeaponType3@@UAE_NXZ
	DD	FLAT:?DestroyResource@ioTraceWeaponType3@@UAEXPAVioPlayStage@@@Z
	DD	FLAT:?LoadProperty@ioTraceWeaponType3@@UAEXAAVioINILoader@@@Z
	DD	FLAT:?SetResistanceAttr@ioWeapon@@UAEXH@Z
	DD	FLAT:?SetStartCollisionBox@ioWeapon@@UAEXXZ
	DD	FLAT:?SetLiveTime@ioTraceWeaponType3@@UAEXK@Z
	DD	FLAT:?SetMoveDir@ioWeapon@@UAEXABUD3DXVECTOR3@@@Z
	DD	FLAT:?SetMoveSpeed@ioWeapon@@UAEXM@Z
	DD	FLAT:?SetFloatPower@ioWeapon@@UAEXM@Z
	DD	FLAT:?SetStartPosition@ioTraceWeaponType3@@UAEXABUD3DXVECTOR3@@PAVioPlayStage@@@Z
	DD	FLAT:?Process@ioTraceWeaponType3@@UAEXMPAVioPlayStage@@@Z
	DD	FLAT:?IsCollision@ioTraceWeaponType3@@UAE_NPAVioPlayEntity@@_N@Z
	DD	FLAT:?TestMapCollision@ioTraceWeaponType3@@UAE_NPAVioOpcodeShape@@PAVioPlayStage@@PBUD3DXMATRIX@@@Z
	DD	FLAT:?CheckPreCollision@ioTraceWeaponType3@@UAEXPAVioPlayEntity@@PAVioPlayStage@@@Z
	DD	FLAT:?CheckStructAndDummy@ioWeapon@@UAEXPAVioPlayEntity@@PAVioPlayStage@@@Z
	DD	FLAT:?GetDamage@ioWeapon@@UAEMPAVioPlayEntity@@@Z
	DD	FLAT:?GetBaseDamage@ioWeapon@@UAEMPAVioPlayEntity@@@Z
	DD	FLAT:?GetPushAngle@ioWeapon@@UBEMXZ
	DD	FLAT:?IsResistanceMagic@ioWeapon@@UAEHPAVioBaseChar@@@Z
	DD	FLAT:?IsResistanceBomb@ioWeapon@@UAEHPAVioBaseChar@@@Z
	DD	FLAT:?IsCanMineExplosion@ioTraceWeaponType3@@UAE_NXZ
	DD	FLAT:?CheckGrapplingState@ioWeapon@@UAE?AW4GrapplingType@@XZ
	DD	FLAT:?CheckCurAttribute@ioWeapon@@UAEXPBVioPlayEntity@@@Z
	DD	FLAT:?CheckItemNotDrop@ioWeapon@@UAE_NPAVioBaseChar@@@Z
	DD	FLAT:?GetWorldAttackBoxList@ioWeapon@@UAEXAAV?$vector@VioOrientBox@@V?$allocator@VioOrientBox@@@std@@@std@@@Z
	DD	FLAT:?GetAttackDir@ioWeapon@@UBE?AUD3DXVECTOR3@@PBVioPlayEntity@@@Z
	DD	FLAT:?GetLocalAttackBox@ioTraceWeaponType3@@UBEABVioOrientBox@@XZ
	DD	FLAT:?GetLiveTime@ioWeapon@@UAEKXZ
	DD	FLAT:?GetMoveDir@ioWeapon@@UAE?AUD3DXVECTOR3@@XZ
	DD	FLAT:?CheckWeaponCollision@ioWeapon@@UAEXXZ
	DD	FLAT:?GetType@ioTraceWeaponType3@@UBE?AW4WeaponType@ioWeapon@@XZ
	DD	FLAT:?GetActionStopType@ioTraceWeaponType3@@UBE?AW4ActionStopType@@XZ
	DD	FLAT:?GetDieActionStopType@ioTraceWeaponType3@@UBE?AW4ActionStopType@@XZ
	DD	FLAT:?GetRefreshDuration@ioWeapon@@UAEKXZ
	DD	FLAT:?GetIgnoreDuration@ioWeapon@@UAEKXZ
	DD	FLAT:?GetIgnoreTimeTypeDuration@ioWeapon@@UAEKXZ
	DD	FLAT:?GetIgnoreTimeType@ioWeapon@@UAEKXZ
	DD	FLAT:?ApplyWeaponSync@ioWeapon@@UAEXAAVSP2Packet@@PAVioPlayStage@@@Z
	DD	FLAT:?IsSkillDependency@ioWeapon@@UAE_NABVioHashString@@@Z
	DD	FLAT:?SetSkillDependencyAction@ioWeapon@@UAEXXZ
	DD	FLAT:?UpdateWorldAttackBox@ioTraceWeaponType3@@MAEXM_N@Z
	DD	FLAT:?GetAttribute@ioWeapon@@MBEPBUWeaponAttribute@@XZ
	DD	FLAT:?CalcFinalDamage@ioWeapon@@MAEMXZ
	DD	FLAT:?CalcFinalBoundDamage@ioWeapon@@MAEMXZ
	DD	FLAT:?CheckPiercing@ioWeapon@@MAE_N_N@Z
	DD	FLAT:?ClearCollisionList@ioWeapon@@MAEXXZ
	DD	FLAT:?CheckCreateWeaponList@ioWeapon@@MAEXXZ
	DD	FLAT:?CreateCollisionAreaWeapon@ioWeapon@@MAEXXZ
	DD	FLAT:?SetMapCollision@ioWeapon@@UAEXXZ
	DD	FLAT:?IsIgnoreMapCollision@ioWeapon@@UBE_NXZ
	DD	FLAT:?IsIgnoreTestMapCollision@ioWeapon@@UBE_NXZ
	DD	FLAT:?IsIgnoreMapCollisionEffect@ioWeapon@@UBE_NXZ
	DD	FLAT:?AddEffectEvent@ioWeapon@@MAEXPAVioEffect@@@Z
	DD	FLAT:??_EioTraceWeaponType3@@UAEPAXI@Z
CONST	ENDS
;	COMDAT xdata$x
xdata$x	SEGMENT
__ehfuncinfo$??0ioTraceWeaponType3@@QAE@PAVioBaseChar@@PBUWeaponAttribute@@@Z DD 019930522H
	DD	0cH
	DD	FLAT:__unwindtable$??0ioTraceWeaponType3@@QAE@PAVioBaseChar@@PBUWeaponAttribute@@@Z
	DD	2 DUP(00H)
	DD	2 DUP(00H)
	DD	00H
	DD	01H
__unwindtable$??0ioTraceWeaponType3@@QAE@PAVioBaseChar@@PBUWeaponAttribute@@@Z DD 0ffffffffH
	DD	FLAT:__unwindfunclet$??0ioTraceWeaponType3@@QAE@PAVioBaseChar@@PBUWeaponAttribute@@@Z$0
	DD	00H
	DD	FLAT:__unwindfunclet$??0ioTraceWeaponType3@@QAE@PAVioBaseChar@@PBUWeaponAttribute@@@Z$1
	DD	01H
	DD	FLAT:__unwindfunclet$??0ioTraceWeaponType3@@QAE@PAVioBaseChar@@PBUWeaponAttribute@@@Z$2
	DD	02H
	DD	FLAT:__unwindfunclet$??0ioTraceWeaponType3@@QAE@PAVioBaseChar@@PBUWeaponAttribute@@@Z$3
	DD	03H
	DD	FLAT:__unwindfunclet$??0ioTraceWeaponType3@@QAE@PAVioBaseChar@@PBUWeaponAttribute@@@Z$4
	DD	04H
	DD	FLAT:__unwindfunclet$??0ioTraceWeaponType3@@QAE@PAVioBaseChar@@PBUWeaponAttribute@@@Z$5
	DD	05H
	DD	FLAT:__unwindfunclet$??0ioTraceWeaponType3@@QAE@PAVioBaseChar@@PBUWeaponAttribute@@@Z$6
	DD	06H
	DD	FLAT:__unwindfunclet$??0ioTraceWeaponType3@@QAE@PAVioBaseChar@@PBUWeaponAttribute@@@Z$7
	DD	07H
	DD	FLAT:__unwindfunclet$??0ioTraceWeaponType3@@QAE@PAVioBaseChar@@PBUWeaponAttribute@@@Z$8
	DD	08H
	DD	FLAT:__unwindfunclet$??0ioTraceWeaponType3@@QAE@PAVioBaseChar@@PBUWeaponAttribute@@@Z$9
	DD	09H
	DD	FLAT:__unwindfunclet$??0ioTraceWeaponType3@@QAE@PAVioBaseChar@@PBUWeaponAttribute@@@Z$10
	DD	0aH
	DD	FLAT:__unwindfunclet$??0ioTraceWeaponType3@@QAE@PAVioBaseChar@@PBUWeaponAttribute@@@Z$11
; Function compile flags: /Ogsp
; File d:\lost saga for developer\youtube\tutorial\source\src\lsclient\iotraceweapontype3.cpp
xdata$x	ENDS
;	COMDAT ??0ioTraceWeaponType3@@QAE@PAVioBaseChar@@PBUWeaponAttribute@@@Z
_TEXT	SEGMENT
_this$ = -16						; size = 4
__$EHRec$ = -12						; size = 12
_pOwner$ = 8						; size = 4
_pAttr$ = 12						; size = 4
??0ioTraceWeaponType3@@QAE@PAVioBaseChar@@PBUWeaponAttribute@@@Z PROC ; ioTraceWeaponType3::ioTraceWeaponType3, COMDAT
; _this$ = ecx

; 15   : {

  00000	6a 04		 push	 4
  00002	b8 00 00 00 00	 mov	 eax, __ehhandler$??0ioTraceWeaponType3@@QAE@PAVioBaseChar@@PBUWeaponAttribute@@@Z
  00007	e8 00 00 00 00	 call	 __EH_prolog3
  0000c	8b f1		 mov	 esi, ecx
  0000e	89 75 f0	 mov	 DWORD PTR _this$[ebp], esi
  00011	ff 75 0c	 push	 DWORD PTR _pAttr$[ebp]
  00014	ff 75 08	 push	 DWORD PTR _pOwner$[ebp]
  00017	e8 00 00 00 00	 call	 ??0ioWeapon@@QAE@PAVioBaseChar@@PBUWeaponAttribute@@@Z ; ioWeapon::ioWeapon
  0001c	33 db		 xor	 ebx, ebx
  0001e	c7 06 00 00 00
	00		 mov	 DWORD PTR [esi], OFFSET ??_7ioTraceWeaponType3@@6B@
  00024	89 5d fc	 mov	 DWORD PTR __$EHRec$[ebp+8], ebx
  00027	89 9e 98 08 00
	00		 mov	 DWORD PTR [esi+2200], ebx
  0002d	89 9e 9c 08 00
	00		 mov	 DWORD PTR [esi+2204], ebx
  00033	89 9e a0 08 00
	00		 mov	 DWORD PTR [esi+2208], ebx
  00039	8d 8e bc 08 00
	00		 lea	 ecx, DWORD PTR [esi+2236]
  0003f	c6 45 fc 01	 mov	 BYTE PTR __$EHRec$[ebp+8], 1
  00043	e8 00 00 00 00	 call	 ??0?$CEncrypt@M@@QAE@XZ	; CEncrypt<float>::CEncrypt<float>
  00048	8d 8e ec 08 00
	00		 lea	 ecx, DWORD PTR [esi+2284]
  0004e	c6 45 fc 02	 mov	 BYTE PTR __$EHRec$[ebp+8], 2
  00052	e8 00 00 00 00	 call	 ??0?$CEncrypt@M@@QAE@XZ	; CEncrypt<float>::CEncrypt<float>
  00057	8d 8e 1c 09 00
	00		 lea	 ecx, DWORD PTR [esi+2332]
  0005d	c6 45 fc 03	 mov	 BYTE PTR __$EHRec$[ebp+8], 3
  00061	e8 00 00 00 00	 call	 ??0?$CEncrypt@M@@QAE@XZ	; CEncrypt<float>::CEncrypt<float>
  00066	8d 8e 64 09 00
	00		 lea	 ecx, DWORD PTR [esi+2404]
  0006c	c6 45 fc 04	 mov	 BYTE PTR __$EHRec$[ebp+8], 4
  00070	e8 00 00 00 00	 call	 ??0?$CEncrypt@K@@QAE@XZ	; CEncrypt<unsigned long>::CEncrypt<unsigned long>
  00075	8d 8e a8 09 00
	00		 lea	 ecx, DWORD PTR [esi+2472]
  0007b	c6 45 fc 05	 mov	 BYTE PTR __$EHRec$[ebp+8], 5
  0007f	ff 15 00 00 00
	00		 call	 DWORD PTR __imp_??0ioOrientBox@@QAE@XZ
  00085	8b 3d 00 00 00
	00		 mov	 edi, DWORD PTR __imp_??0ioHashString@@QAE@XZ
  0008b	8d 8e ec 09 00
	00		 lea	 ecx, DWORD PTR [esi+2540]
  00091	c6 45 fc 06	 mov	 BYTE PTR __$EHRec$[ebp+8], 6
  00095	ff d7		 call	 edi
  00097	8d 8e 00 0a 00
	00		 lea	 ecx, DWORD PTR [esi+2560]
  0009d	c6 45 fc 07	 mov	 BYTE PTR __$EHRec$[ebp+8], 7
  000a1	e8 00 00 00 00	 call	 ??0?$CEncrypt@_N@@QAE@XZ ; CEncrypt<bool>::CEncrypt<bool>
  000a6	8d 8e 30 0a 00
	00		 lea	 ecx, DWORD PTR [esi+2608]
  000ac	c6 45 fc 08	 mov	 BYTE PTR __$EHRec$[ebp+8], 8
  000b0	ff d7		 call	 edi
  000b2	8d 8e 40 0a 00
	00		 lea	 ecx, DWORD PTR [esi+2624]
  000b8	c6 45 fc 09	 mov	 BYTE PTR __$EHRec$[ebp+8], 9
  000bc	ff d7		 call	 edi
  000be	8d 8e 54 0a 00
	00		 lea	 ecx, DWORD PTR [esi+2644]
  000c4	c6 45 fc 0a	 mov	 BYTE PTR __$EHRec$[ebp+8], 10 ; 0000000aH
  000c8	ff d7		 call	 edi

; 16   : 	SetPeculiarity( WP_MINE_EXPLOSION );

  000ca	6a 10		 push	 16			; 00000010H
  000cc	8b ce		 mov	 ecx, esi
  000ce	c6 45 fc 0b	 mov	 BYTE PTR __$EHRec$[ebp+8], 11 ; 0000000bH
  000d2	e8 00 00 00 00	 call	 ?SetPeculiarity@ioWeapon@@QAEXK@Z ; ioWeapon::SetPeculiarity

; 17   : 
; 18   : 	m_pFireBall = NULL;
; 19   : 	m_State = TS_MOVE;
; 20   : 
; 21   : 	m_dwExplosionTime = 0;
; 22   : 	m_fStartHeight = 0.0f;

  000d7	0f 57 c0	 xorps	 xmm0, xmm0

; 23   : 	
; 24   : 	m_fCurMoveSpeed = 0.0f;
; 25   : 	m_fCurMoveRange = 0.0f;
; 26   : 	m_dwSensingStartTime = 0;
; 27   : 
; 28   : 	m_dwTraceEndTime = 0;
; 29   : 
; 30   : 	m_bResistance = false;
; 31   : 
; 32   : 	m_dwLandMarkID = -1;

  000da	83 8e 50 0a 00
	00 ff		 or	 DWORD PTR [esi+2640], -1

; 33   : 
; 34   : 	m_bFirst = true;
; 35   : 
; 36   : 	m_dwDeadWeaponID = -1;

  000e1	83 8e 64 0a 00
	00 ff		 or	 DWORD PTR [esi+2660], -1
  000e8	89 9e a4 09 00
	00		 mov	 DWORD PTR [esi+2468], ebx
  000ee	89 9e 94 08 00
	00		 mov	 DWORD PTR [esi+2196], ebx
  000f4	89 9e 98 09 00
	00		 mov	 DWORD PTR [esi+2456], ebx
  000fa	f3 0f 11 86 fc
	09 00 00	 movss	 DWORD PTR [esi+2556], xmm0
  00102	f3 0f 11 86 a8
	08 00 00	 movss	 DWORD PTR [esi+2216], xmm0
  0010a	f3 0f 11 86 ac
	08 00 00	 movss	 DWORD PTR [esi+2220], xmm0
  00112	89 9e b8 08 00
	00		 mov	 DWORD PTR [esi+2232], ebx
  00118	89 9e 94 09 00
	00		 mov	 DWORD PTR [esi+2452], ebx
  0011e	88 9e 3c 06 00
	00		 mov	 BYTE PTR [esi+1596], bl
  00124	c6 86 68 0a 00
	00 01		 mov	 BYTE PTR [esi+2664], 1

; 37   : }

  0012b	8b c6		 mov	 eax, esi
  0012d	e8 00 00 00 00	 call	 __EH_epilog3
  00132	c2 08 00	 ret	 8
_TEXT	ENDS
;	COMDAT text$x
text$x	SEGMENT
__unwindfunclet$??0ioTraceWeaponType3@@QAE@PAVioBaseChar@@PBUWeaponAttribute@@@Z$0:
  00000	8b 4d f0	 mov	 ecx, DWORD PTR _this$[ebp]
  00003	e9 00 00 00 00	 jmp	 ??1ioWeapon@@UAE@XZ	; ioWeapon::~ioWeapon
__unwindfunclet$??0ioTraceWeaponType3@@QAE@PAVioBaseChar@@PBUWeaponAttribute@@@Z$1:
  00008	8b 4d f0	 mov	 ecx, DWORD PTR _this$[ebp]
  0000b	81 c1 98 08 00
	00		 add	 ecx, 2200		; 00000898H
  00011	e9 00 00 00 00	 jmp	 ??1?$vector@UChangeDirInfo@@V?$allocator@UChangeDirInfo@@@std@@@std@@QAE@XZ ; std::vector<ChangeDirInfo,std::allocator<ChangeDirInfo> >::~vector<ChangeDirInfo,std::allocator<ChangeDirInfo> >
__unwindfunclet$??0ioTraceWeaponType3@@QAE@PAVioBaseChar@@PBUWeaponAttribute@@@Z$2:
  00016	8b 4d f0	 mov	 ecx, DWORD PTR _this$[ebp]
  00019	81 c1 bc 08 00
	00		 add	 ecx, 2236		; 000008bcH
  0001f	e9 00 00 00 00	 jmp	 ??1?$CEncrypt@M@@UAE@XZ	; CEncrypt<float>::~CEncrypt<float>
__unwindfunclet$??0ioTraceWeaponType3@@QAE@PAVioBaseChar@@PBUWeaponAttribute@@@Z$3:
  00024	8b 4d f0	 mov	 ecx, DWORD PTR _this$[ebp]
  00027	81 c1 ec 08 00
	00		 add	 ecx, 2284		; 000008ecH
  0002d	e9 00 00 00 00	 jmp	 ??1?$CEncrypt@M@@UAE@XZ	; CEncrypt<float>::~CEncrypt<float>
__unwindfunclet$??0ioTraceWeaponType3@@QAE@PAVioBaseChar@@PBUWeaponAttribute@@@Z$4:
  00032	8b 4d f0	 mov	 ecx, DWORD PTR _this$[ebp]
  00035	81 c1 1c 09 00
	00		 add	 ecx, 2332		; 0000091cH
  0003b	e9 00 00 00 00	 jmp	 ??1?$CEncrypt@M@@UAE@XZ	; CEncrypt<float>::~CEncrypt<float>
__unwindfunclet$??0ioTraceWeaponType3@@QAE@PAVioBaseChar@@PBUWeaponAttribute@@@Z$5:
  00040	8b 4d f0	 mov	 ecx, DWORD PTR _this$[ebp]
  00043	81 c1 64 09 00
	00		 add	 ecx, 2404		; 00000964H
  00049	e9 00 00 00 00	 jmp	 ??1?$CEncrypt@K@@UAE@XZ	; CEncrypt<unsigned long>::~CEncrypt<unsigned long>
__unwindfunclet$??0ioTraceWeaponType3@@QAE@PAVioBaseChar@@PBUWeaponAttribute@@@Z$6:
  0004e	8b 4d f0	 mov	 ecx, DWORD PTR _this$[ebp]
  00051	81 c1 a8 09 00
	00		 add	 ecx, 2472		; 000009a8H
  00057	ff 25 00 00 00
	00		 jmp	 DWORD PTR __imp_??1ioOrientBox@@QAE@XZ
__unwindfunclet$??0ioTraceWeaponType3@@QAE@PAVioBaseChar@@PBUWeaponAttribute@@@Z$7:
  0005d	8b 4d f0	 mov	 ecx, DWORD PTR _this$[ebp]
  00060	81 c1 ec 09 00
	00		 add	 ecx, 2540		; 000009ecH
  00066	ff 25 00 00 00
	00		 jmp	 DWORD PTR __imp_??1ioHashString@@QAE@XZ
__unwindfunclet$??0ioTraceWeaponType3@@QAE@PAVioBaseChar@@PBUWeaponAttribute@@@Z$8:
  0006c	8b 4d f0	 mov	 ecx, DWORD PTR _this$[ebp]
  0006f	81 c1 00 0a 00
	00		 add	 ecx, 2560		; 00000a00H
  00075	e9 00 00 00 00	 jmp	 ??1?$CEncrypt@_N@@UAE@XZ ; CEncrypt<bool>::~CEncrypt<bool>
__unwindfunclet$??0ioTraceWeaponType3@@QAE@PAVioBaseChar@@PBUWeaponAttribute@@@Z$9:
  0007a	8b 4d f0	 mov	 ecx, DWORD PTR _this$[ebp]
  0007d	81 c1 30 0a 00
	00		 add	 ecx, 2608		; 00000a30H
  00083	ff 25 00 00 00
	00		 jmp	 DWORD PTR __imp_??1ioHashString@@QAE@XZ
__unwindfunclet$??0ioTraceWeaponType3@@QAE@PAVioBaseChar@@PBUWeaponAttribute@@@Z$10:
  00089	8b 4d f0	 mov	 ecx, DWORD PTR _this$[ebp]
  0008c	81 c1 40 0a 00
	00		 add	 ecx, 2624		; 00000a40H
  00092	ff 25 00 00 00
	00		 jmp	 DWORD PTR __imp_??1ioHashString@@QAE@XZ
__unwindfunclet$??0ioTraceWeaponType3@@QAE@PAVioBaseChar@@PBUWeaponAttribute@@@Z$11:
  00098	8b 4d f0	 mov	 ecx, DWORD PTR _this$[ebp]
  0009b	81 c1 54 0a 00
	00		 add	 ecx, 2644		; 00000a54H
  000a1	ff 25 00 00 00
	00		 jmp	 DWORD PTR __imp_??1ioHashString@@QAE@XZ
__ehhandler$??0ioTraceWeaponType3@@QAE@PAVioBaseChar@@PBUWeaponAttribute@@@Z:
  000a7	8b 54 24 08	 mov	 edx, DWORD PTR [esp+8]
  000ab	8d 42 0c	 lea	 eax, DWORD PTR [edx+12]
  000ae	8b 4a ec	 mov	 ecx, DWORD PTR [edx-20]
  000b1	33 c8		 xor	 ecx, eax
  000b3	e8 00 00 00 00	 call	 @__security_check_cookie@4
  000b8	b8 00 00 00 00	 mov	 eax, OFFSET __ehfuncinfo$??0ioTraceWeaponType3@@QAE@PAVioBaseChar@@PBUWeaponAttribute@@@Z
  000bd	e9 00 00 00 00	 jmp	 ___CxxFrameHandler3
text$x	ENDS
??0ioTraceWeaponType3@@QAE@PAVioBaseChar@@PBUWeaponAttribute@@@Z ENDP ; ioTraceWeaponType3::ioTraceWeaponType3
PUBLIC	??_C@_0DO@KBOHCGAP@ioTraceWeaponType3?3?3?$HOioTraceWeap@ ; `string'
PUBLIC	??1ioTraceWeaponType3@@UAE@XZ			; ioTraceWeaponType3::~ioTraceWeaponType3
EXTRN	__imp_?PrintTimeAndLog@CLog@@QAAXHPADZZ:PROC
EXTRN	__imp_?LOG@@3VCLog@@A:BYTE
;	COMDAT ??_C@_0DO@KBOHCGAP@ioTraceWeaponType3?3?3?$HOioTraceWeap@
; File c:\program files (x86)\microsoft visual studio 10.0\vc\include\vector
CONST	SEGMENT
??_C@_0DO@KBOHCGAP@ioTraceWeaponType3?3?3?$HOioTraceWeap@ DB 'ioTraceWeap'
	DB	'onType3::~ioTraceWeaponType3 - UnReleased Resource', 00H ; `string'
CONST	ENDS
;	COMDAT xdata$x
xdata$x	SEGMENT
__ehfuncinfo$??1ioTraceWeaponType3@@UAE@XZ DD 019930522H
	DD	0cH
	DD	FLAT:__unwindtable$??1ioTraceWeaponType3@@UAE@XZ
	DD	2 DUP(00H)
	DD	2 DUP(00H)
	DD	00H
	DD	01H
__unwindtable$??1ioTraceWeaponType3@@UAE@XZ DD 0ffffffffH
	DD	FLAT:__unwindfunclet$??1ioTraceWeaponType3@@UAE@XZ$0
	DD	00H
	DD	FLAT:__unwindfunclet$??1ioTraceWeaponType3@@UAE@XZ$1
	DD	01H
	DD	FLAT:__unwindfunclet$??1ioTraceWeaponType3@@UAE@XZ$2
	DD	02H
	DD	FLAT:__unwindfunclet$??1ioTraceWeaponType3@@UAE@XZ$3
	DD	03H
	DD	FLAT:__unwindfunclet$??1ioTraceWeaponType3@@UAE@XZ$4
	DD	04H
	DD	FLAT:__unwindfunclet$??1ioTraceWeaponType3@@UAE@XZ$5
	DD	05H
	DD	FLAT:__unwindfunclet$??1ioTraceWeaponType3@@UAE@XZ$6
	DD	06H
	DD	FLAT:__unwindfunclet$??1ioTraceWeaponType3@@UAE@XZ$7
	DD	07H
	DD	FLAT:__unwindfunclet$??1ioTraceWeaponType3@@UAE@XZ$8
	DD	08H
	DD	FLAT:__unwindfunclet$??1ioTraceWeaponType3@@UAE@XZ$9
	DD	09H
	DD	FLAT:__unwindfunclet$??1ioTraceWeaponType3@@UAE@XZ$10
	DD	0aH
	DD	FLAT:__unwindfunclet$??1ioTraceWeaponType3@@UAE@XZ$11
; Function compile flags: /Ogsp
; File d:\lost saga for developer\youtube\tutorial\source\src\lsclient\iotraceweapontype3.cpp
xdata$x	ENDS
;	COMDAT ??1ioTraceWeaponType3@@UAE@XZ
_TEXT	SEGMENT
_this$ = -16						; size = 4
__$EHRec$ = -12						; size = 12
??1ioTraceWeaponType3@@UAE@XZ PROC			; ioTraceWeaponType3::~ioTraceWeaponType3, COMDAT
; _this$ = ecx

; 40   : {

  00000	6a 04		 push	 4
  00002	b8 00 00 00 00	 mov	 eax, __ehhandler$??1ioTraceWeaponType3@@UAE@XZ
  00007	e8 00 00 00 00	 call	 __EH_prolog3
  0000c	8b f1		 mov	 esi, ecx
  0000e	89 75 f0	 mov	 DWORD PTR _this$[ebp], esi
  00011	c7 06 00 00 00
	00		 mov	 DWORD PTR [esi], OFFSET ??_7ioTraceWeaponType3@@6B@

; 41   : 	if( m_pFireBall )

  00017	83 be a4 09 00
	00 00		 cmp	 DWORD PTR [esi+2468], 0
  0001e	c7 45 fc 0b 00
	00 00		 mov	 DWORD PTR __$EHRec$[ebp+8], 11 ; 0000000bH
  00025	74 16		 je	 SHORT $LN1@ioTraceWea

; 42   : 	{
; 43   : 		LOG.PrintTimeAndLog( 0, "ioTraceWeaponType3::~ioTraceWeaponType3 - UnReleased Resource" );

  00027	68 00 00 00 00	 push	 OFFSET ??_C@_0DO@KBOHCGAP@ioTraceWeaponType3?3?3?$HOioTraceWeap@
  0002c	6a 00		 push	 0
  0002e	ff 35 00 00 00
	00		 push	 DWORD PTR __imp_?LOG@@3VCLog@@A
  00034	ff 15 00 00 00
	00		 call	 DWORD PTR __imp_?PrintTimeAndLog@CLog@@QAAXHPADZZ
  0003a	83 c4 0c	 add	 esp, 12			; 0000000cH
$LN1@ioTraceWea:

; 44   : 	}
; 45   : }

  0003d	8b 3d 00 00 00
	00		 mov	 edi, DWORD PTR __imp_??1ioHashString@@QAE@XZ
  00043	8d 8e 54 0a 00
	00		 lea	 ecx, DWORD PTR [esi+2644]
  00049	c6 45 fc 0a	 mov	 BYTE PTR __$EHRec$[ebp+8], 10 ; 0000000aH
  0004d	ff d7		 call	 edi
  0004f	8d 8e 40 0a 00
	00		 lea	 ecx, DWORD PTR [esi+2624]
  00055	c6 45 fc 09	 mov	 BYTE PTR __$EHRec$[ebp+8], 9
  00059	ff d7		 call	 edi
  0005b	8d 8e 30 0a 00
	00		 lea	 ecx, DWORD PTR [esi+2608]
  00061	c6 45 fc 08	 mov	 BYTE PTR __$EHRec$[ebp+8], 8
  00065	ff d7		 call	 edi
  00067	8d 8e 0c 0a 00
	00		 lea	 ecx, DWORD PTR [esi+2572]
  0006d	c6 45 fc 07	 mov	 BYTE PTR __$EHRec$[ebp+8], 7
  00071	c7 86 00 0a 00
	00 00 00 00 00	 mov	 DWORD PTR [esi+2560], OFFSET ??_7?$CEncrypt@_N@@6B@
  0007b	e8 00 00 00 00	 call	 ??1ccddaabb@@UAE@XZ	; ccddaabb::~ccddaabb
  00080	8d 8e ec 09 00
	00		 lea	 ecx, DWORD PTR [esi+2540]
  00086	c6 45 fc 06	 mov	 BYTE PTR __$EHRec$[ebp+8], 6
  0008a	ff d7		 call	 edi
  0008c	8d 8e a8 09 00
	00		 lea	 ecx, DWORD PTR [esi+2472]
  00092	c6 45 fc 05	 mov	 BYTE PTR __$EHRec$[ebp+8], 5
  00096	ff 15 00 00 00
	00		 call	 DWORD PTR __imp_??1ioOrientBox@@QAE@XZ
  0009c	8d 8e 70 09 00
	00		 lea	 ecx, DWORD PTR [esi+2416]
  000a2	c6 45 fc 04	 mov	 BYTE PTR __$EHRec$[ebp+8], 4
  000a6	c7 86 64 09 00
	00 00 00 00 00	 mov	 DWORD PTR [esi+2404], OFFSET ??_7?$CEncrypt@K@@6B@
  000b0	e8 00 00 00 00	 call	 ??1ccddaabb@@UAE@XZ	; ccddaabb::~ccddaabb
  000b5	bf 00 00 00 00	 mov	 edi, OFFSET ??_7?$CEncrypt@M@@6B@
  000ba	8d 8e 28 09 00
	00		 lea	 ecx, DWORD PTR [esi+2344]
  000c0	c6 45 fc 03	 mov	 BYTE PTR __$EHRec$[ebp+8], 3
  000c4	89 be 1c 09 00
	00		 mov	 DWORD PTR [esi+2332], edi
  000ca	e8 00 00 00 00	 call	 ??1ccddaabb@@UAE@XZ	; ccddaabb::~ccddaabb
  000cf	8d 8e f8 08 00
	00		 lea	 ecx, DWORD PTR [esi+2296]
  000d5	c6 45 fc 02	 mov	 BYTE PTR __$EHRec$[ebp+8], 2
  000d9	89 be ec 08 00
	00		 mov	 DWORD PTR [esi+2284], edi
  000df	e8 00 00 00 00	 call	 ??1ccddaabb@@UAE@XZ	; ccddaabb::~ccddaabb
  000e4	8d 8e c8 08 00
	00		 lea	 ecx, DWORD PTR [esi+2248]
  000ea	c6 45 fc 01	 mov	 BYTE PTR __$EHRec$[ebp+8], 1
  000ee	89 be bc 08 00
	00		 mov	 DWORD PTR [esi+2236], edi
  000f4	e8 00 00 00 00	 call	 ??1ccddaabb@@UAE@XZ	; ccddaabb::~ccddaabb
  000f9	8d 8e 98 08 00
	00		 lea	 ecx, DWORD PTR [esi+2200]
  000ff	c6 45 fc 00	 mov	 BYTE PTR __$EHRec$[ebp+8], 0
  00103	e8 00 00 00 00	 call	 ?_Tidy@?$vector@UChangeDirInfo@@V?$allocator@UChangeDirInfo@@@std@@@std@@IAEXXZ ; std::vector<ChangeDirInfo,std::allocator<ChangeDirInfo> >::_Tidy
  00108	83 4d fc ff	 or	 DWORD PTR __$EHRec$[ebp+8], -1
  0010c	8b ce		 mov	 ecx, esi
  0010e	e8 00 00 00 00	 call	 ??1ioWeapon@@UAE@XZ	; ioWeapon::~ioWeapon
  00113	e8 00 00 00 00	 call	 __EH_epilog3
  00118	c3		 ret	 0
_TEXT	ENDS
;	COMDAT text$x
text$x	SEGMENT
__unwindfunclet$??1ioTraceWeaponType3@@UAE@XZ$0:
  00000	8b 4d f0	 mov	 ecx, DWORD PTR _this$[ebp]
  00003	e9 00 00 00 00	 jmp	 ??1ioWeapon@@UAE@XZ	; ioWeapon::~ioWeapon
__unwindfunclet$??1ioTraceWeaponType3@@UAE@XZ$1:
  00008	8b 4d f0	 mov	 ecx, DWORD PTR _this$[ebp]
  0000b	81 c1 98 08 00
	00		 add	 ecx, 2200		; 00000898H
  00011	e9 00 00 00 00	 jmp	 ??1?$vector@UChangeDirInfo@@V?$allocator@UChangeDirInfo@@@std@@@std@@QAE@XZ ; std::vector<ChangeDirInfo,std::allocator<ChangeDirInfo> >::~vector<ChangeDirInfo,std::allocator<ChangeDirInfo> >
__unwindfunclet$??1ioTraceWeaponType3@@UAE@XZ$2:
  00016	8b 4d f0	 mov	 ecx, DWORD PTR _this$[ebp]
  00019	81 c1 bc 08 00
	00		 add	 ecx, 2236		; 000008bcH
  0001f	e9 00 00 00 00	 jmp	 ??1?$CEncrypt@M@@UAE@XZ	; CEncrypt<float>::~CEncrypt<float>
__unwindfunclet$??1ioTraceWeaponType3@@UAE@XZ$3:
  00024	8b 4d f0	 mov	 ecx, DWORD PTR _this$[ebp]
  00027	81 c1 ec 08 00
	00		 add	 ecx, 2284		; 000008ecH
  0002d	e9 00 00 00 00	 jmp	 ??1?$CEncrypt@M@@UAE@XZ	; CEncrypt<float>::~CEncrypt<float>
__unwindfunclet$??1ioTraceWeaponType3@@UAE@XZ$4:
  00032	8b 4d f0	 mov	 ecx, DWORD PTR _this$[ebp]
  00035	81 c1 1c 09 00
	00		 add	 ecx, 2332		; 0000091cH
  0003b	e9 00 00 00 00	 jmp	 ??1?$CEncrypt@M@@UAE@XZ	; CEncrypt<float>::~CEncrypt<float>
__unwindfunclet$??1ioTraceWeaponType3@@UAE@XZ$5:
  00040	8b 4d f0	 mov	 ecx, DWORD PTR _this$[ebp]
  00043	81 c1 64 09 00
	00		 add	 ecx, 2404		; 00000964H
  00049	e9 00 00 00 00	 jmp	 ??1?$CEncrypt@K@@UAE@XZ	; CEncrypt<unsigned long>::~CEncrypt<unsigned long>
__unwindfunclet$??1ioTraceWeaponType3@@UAE@XZ$6:
  0004e	8b 4d f0	 mov	 ecx, DWORD PTR _this$[ebp]
  00051	81 c1 a8 09 00
	00		 add	 ecx, 2472		; 000009a8H
  00057	ff 25 00 00 00
	00		 jmp	 DWORD PTR __imp_??1ioOrientBox@@QAE@XZ
__unwindfunclet$??1ioTraceWeaponType3@@UAE@XZ$7:
  0005d	8b 4d f0	 mov	 ecx, DWORD PTR _this$[ebp]
  00060	81 c1 ec 09 00
	00		 add	 ecx, 2540		; 000009ecH
  00066	ff 25 00 00 00
	00		 jmp	 DWORD PTR __imp_??1ioHashString@@QAE@XZ
__unwindfunclet$??1ioTraceWeaponType3@@UAE@XZ$8:
  0006c	8b 4d f0	 mov	 ecx, DWORD PTR _this$[ebp]
  0006f	81 c1 00 0a 00
	00		 add	 ecx, 2560		; 00000a00H
  00075	e9 00 00 00 00	 jmp	 ??1?$CEncrypt@_N@@UAE@XZ ; CEncrypt<bool>::~CEncrypt<bool>
__unwindfunclet$??1ioTraceWeaponType3@@UAE@XZ$9:
  0007a	8b 4d f0	 mov	 ecx, DWORD PTR _this$[ebp]
  0007d	81 c1 30 0a 00
	00		 add	 ecx, 2608		; 00000a30H
  00083	ff 25 00 00 00
	00		 jmp	 DWORD PTR __imp_??1ioHashString@@QAE@XZ
__unwindfunclet$??1ioTraceWeaponType3@@UAE@XZ$10:
  00089	8b 4d f0	 mov	 ecx, DWORD PTR _this$[ebp]
  0008c	81 c1 40 0a 00
	00		 add	 ecx, 2624		; 00000a40H
  00092	ff 25 00 00 00
	00		 jmp	 DWORD PTR __imp_??1ioHashString@@QAE@XZ
__unwindfunclet$??1ioTraceWeaponType3@@UAE@XZ$11:
  00098	8b 4d f0	 mov	 ecx, DWORD PTR _this$[ebp]
  0009b	81 c1 54 0a 00
	00		 add	 ecx, 2644		; 00000a54H
  000a1	ff 25 00 00 00
	00		 jmp	 DWORD PTR __imp_??1ioHashString@@QAE@XZ
__ehhandler$??1ioTraceWeaponType3@@UAE@XZ:
  000a7	8b 54 24 08	 mov	 edx, DWORD PTR [esp+8]
  000ab	8d 42 0c	 lea	 eax, DWORD PTR [edx+12]
  000ae	8b 4a ec	 mov	 ecx, DWORD PTR [edx-20]
  000b1	33 c8		 xor	 ecx, eax
  000b3	e8 00 00 00 00	 call	 @__security_check_cookie@4
  000b8	b8 00 00 00 00	 mov	 eax, OFFSET __ehfuncinfo$??1ioTraceWeaponType3@@UAE@XZ
  000bd	e9 00 00 00 00	 jmp	 ___CxxFrameHandler3
text$x	ENDS
??1ioTraceWeaponType3@@UAE@XZ ENDP			; ioTraceWeaponType3::~ioTraceWeaponType3
PUBLIC	?CheckChangeDir@ioTraceWeaponType3@@IAEXXZ	; ioTraceWeaponType3::CheckChangeDir
; Function compile flags: /Ogsp
;	COMDAT ?CheckChangeDir@ioTraceWeaponType3@@IAEXXZ
_TEXT	SEGMENT
$T538490 = -4						; size = 4
?CheckChangeDir@ioTraceWeaponType3@@IAEXXZ PROC		; ioTraceWeaponType3::CheckChangeDir, COMDAT
; _this$ = ecx

; 634  : {

  00000	55		 push	 ebp
  00001	8b ec		 mov	 ebp, esp
  00003	51		 push	 ecx
  00004	56		 push	 esi

; 635  : 	if( m_ChangeDirInfoList.empty() ) return;

  00005	8d b1 98 08 00
	00		 lea	 esi, DWORD PTR [ecx+2200]
  0000b	8b 06		 mov	 eax, DWORD PTR [esi]
  0000d	3b 46 04	 cmp	 eax, DWORD PTR [esi+4]
  00010	74 57		 je	 SHORT $LN2@CheckChang

; 636  : 
; 637  : 	float fChangeRange = m_ChangeDirInfoList[0].m_fChangeRange;
; 638  : 
; 639  : 	if( m_fCurMoveRange >= fChangeRange )

  00012	f3 0f 10 81 ac
	08 00 00	 movss	 xmm0, DWORD PTR [ecx+2220]
  0001a	f3 0f 10 08	 movss	 xmm1, DWORD PTR [eax]
  0001e	0f 5a c0	 cvtps2pd xmm0, xmm0
  00021	0f 5a c9	 cvtps2pd xmm1, xmm1
  00024	66 0f 2f c1	 comisd	 xmm0, xmm1
  00028	72 3f		 jb	 SHORT $LN2@CheckChang

; 640  : 	{
; 641  : 		if( m_ChangeDirInfoList[0].m_fChangeSpeed > 0.0f )

  0002a	f3 0f 10 40 04	 movss	 xmm0, DWORD PTR [eax+4]
  0002f	0f 2f 05 00 00
	00 00		 comiss	 xmm0, DWORD PTR __real@00000000
  00036	76 08		 jbe	 SHORT $LN1@CheckChang

; 642  : 			m_fCurMoveSpeed = m_ChangeDirInfoList[0].m_fChangeSpeed;

  00038	f3 0f 11 81 a8
	08 00 00	 movss	 DWORD PTR [ecx+2216], xmm0
$LN1@CheckChang:

; 643  : 
; 644  : 		RotateMoveDir( m_ChangeDirInfoList[0].m_fChangeAngleH, m_ChangeDirInfoList[0].m_fChangeAngleV );

  00040	f3 0f 10 40 0c	 movss	 xmm0, DWORD PTR [eax+12]
  00045	51		 push	 ecx
  00046	51		 push	 ecx
  00047	f3 0f 11 44 24
	04		 movss	 DWORD PTR [esp+4], xmm0
  0004d	f3 0f 10 40 08	 movss	 xmm0, DWORD PTR [eax+8]
  00052	f3 0f 11 04 24	 movss	 DWORD PTR [esp], xmm0
  00057	e8 00 00 00 00	 call	 ?RotateMoveDir@ioTraceWeaponType3@@IAEXMM@Z ; ioTraceWeaponType3::RotateMoveDir

; 645  : 		m_ChangeDirInfoList.erase( m_ChangeDirInfoList.begin() );

  0005c	ff 36		 push	 DWORD PTR [esi]
  0005e	8d 45 fc	 lea	 eax, DWORD PTR $T538490[ebp]
  00061	50		 push	 eax
  00062	8b ce		 mov	 ecx, esi
  00064	e8 00 00 00 00	 call	 ?erase@?$vector@UChangeDirInfo@@V?$allocator@UChangeDirInfo@@@std@@@std@@QAE?AV?$_Vector_iterator@V?$_Vector_val@UChangeDirInfo@@V?$allocator@UChangeDirInfo@@@std@@@std@@@2@V?$_Vector_const_iterator@V?$_Vector_val@UChangeDirInfo@@V?$allocator@UChangeDirInfo@@@std@@@std@@@2@@Z ; std::vector<ChangeDirInfo,std::allocator<ChangeDirInfo> >::erase
$LN2@CheckChang:
  00069	5e		 pop	 esi

; 646  : 	}
; 647  : }

  0006a	c9		 leave
  0006b	c3		 ret	 0
?CheckChangeDir@ioTraceWeaponType3@@IAEXXZ ENDP		; ioTraceWeaponType3::CheckChangeDir
_TEXT	ENDS
PUBLIC	?push_back@?$vector@UChangeDirInfo@@V?$allocator@UChangeDirInfo@@@std@@@std@@QAEXABUChangeDirInfo@@@Z ; std::vector<ChangeDirInfo,std::allocator<ChangeDirInfo> >::push_back
; Function compile flags: /Ogsp
; File c:\program files (x86)\microsoft visual studio 10.0\vc\include\vector
;	COMDAT ?push_back@?$vector@UChangeDirInfo@@V?$allocator@UChangeDirInfo@@@std@@@std@@QAEXABUChangeDirInfo@@@Z
_TEXT	SEGMENT
__Val$ = 8						; size = 4
?push_back@?$vector@UChangeDirInfo@@V?$allocator@UChangeDirInfo@@@std@@@std@@QAEXABUChangeDirInfo@@@Z PROC ; std::vector<ChangeDirInfo,std::allocator<ChangeDirInfo> >::push_back, COMDAT
; _this$ = ecx

; 976  : 		{	// insert element at end

  00000	55		 push	 ebp
  00001	8b ec		 mov	 ebp, esp
  00003	56		 push	 esi
  00004	8b f1		 mov	 esi, ecx

; 977  : 		if (_Inside(_STD addressof(_Val)))

  00006	8b 4e 04	 mov	 ecx, DWORD PTR [esi+4]
  00009	57		 push	 edi
  0000a	8b 7d 08	 mov	 edi, DWORD PTR __Val$[ebp]
  0000d	3b f9		 cmp	 edi, ecx
  0000f	73 34		 jae	 SHORT $LN4@push_back
  00011	8b 16		 mov	 edx, DWORD PTR [esi]
  00013	3b d7		 cmp	 edx, edi
  00015	77 2e		 ja	 SHORT $LN4@push_back

; 978  : 			{	// push back an element
; 979  : 			size_type _Idx = _STD addressof(_Val) - this->_Myfirst;

  00017	8b c7		 mov	 eax, edi
  00019	2b c2		 sub	 eax, edx
  0001b	6a 1c		 push	 28			; 0000001cH
  0001d	99		 cdq
  0001e	5f		 pop	 edi
  0001f	f7 ff		 idiv	 edi
  00021	8b f8		 mov	 edi, eax

; 980  : 			if (this->_Mylast == this->_Myend)

  00023	3b 4e 08	 cmp	 ecx, DWORD PTR [esi+8]
  00026	75 09		 jne	 SHORT $LN3@push_back

; 981  : 				_Reserve(1);

  00028	6a 01		 push	 1
  0002a	8b ce		 mov	 ecx, esi
  0002c	e8 00 00 00 00	 call	 ?_Reserve@?$vector@UChangeDirInfo@@V?$allocator@UChangeDirInfo@@@std@@@std@@IAEXI@Z ; std::vector<ChangeDirInfo,std::allocator<ChangeDirInfo> >::_Reserve
$LN3@push_back:

; 982  : 			_Orphan_range(this->_Mylast, this->_Mylast);
; 983  : 			_Cons_val(this->_Alval,
; 984  : 				this->_Mylast,
; 985  : 				this->_Myfirst[_Idx]);

  00031	6b ff 1c	 imul	 edi, 28			; 0000001cH
  00034	03 3e		 add	 edi, DWORD PTR [esi]
  00036	8d 46 0c	 lea	 eax, DWORD PTR [esi+12]
  00039	57		 push	 edi
  0003a	ff 76 04	 push	 DWORD PTR [esi+4]
  0003d	50		 push	 eax
  0003e	e8 00 00 00 00	 call	 ??$_Cons_val@V?$allocator@UChangeDirInfo@@@std@@UChangeDirInfo@@AAU3@@std@@YAXAAV?$allocator@UChangeDirInfo@@@0@PAUChangeDirInfo@@AAU2@@Z ; std::_Cons_val<std::allocator<ChangeDirInfo>,ChangeDirInfo,ChangeDirInfo &>

; 986  : 			++this->_Mylast;
; 987  : 			}
; 988  : 		else

  00043	eb 1b		 jmp	 SHORT $LN20@push_back
$LN4@push_back:

; 989  : 			{	// push back a non-element
; 990  : 			if (this->_Mylast == this->_Myend)

  00045	3b 4e 08	 cmp	 ecx, DWORD PTR [esi+8]
  00048	75 09		 jne	 SHORT $LN1@push_back

; 991  : 				_Reserve(1);

  0004a	6a 01		 push	 1
  0004c	8b ce		 mov	 ecx, esi
  0004e	e8 00 00 00 00	 call	 ?_Reserve@?$vector@UChangeDirInfo@@V?$allocator@UChangeDirInfo@@@std@@@std@@IAEXI@Z ; std::vector<ChangeDirInfo,std::allocator<ChangeDirInfo> >::_Reserve
$LN1@push_back:

; 992  : 			_Orphan_range(this->_Mylast, this->_Mylast);
; 993  : 			_Cons_val(this->_Alval,
; 994  : 				this->_Mylast,
; 995  : 				_Val);

  00053	57		 push	 edi
  00054	ff 76 04	 push	 DWORD PTR [esi+4]
  00057	8d 46 0c	 lea	 eax, DWORD PTR [esi+12]
  0005a	50		 push	 eax
  0005b	e8 00 00 00 00	 call	 ??$_Cons_val@V?$allocator@UChangeDirInfo@@@std@@UChangeDirInfo@@ABU3@@std@@YAXAAV?$allocator@UChangeDirInfo@@@0@PAUChangeDirInfo@@ABU2@@Z ; std::_Cons_val<std::allocator<ChangeDirInfo>,ChangeDirInfo,ChangeDirInfo const &>
$LN20@push_back:
  00060	83 c4 0c	 add	 esp, 12			; 0000000cH

; 996  : 			++this->_Mylast;

  00063	83 46 04 1c	 add	 DWORD PTR [esi+4], 28	; 0000001cH
  00067	5f		 pop	 edi
  00068	5e		 pop	 esi

; 997  : 			}
; 998  : 		}

  00069	5d		 pop	 ebp
  0006a	c2 04 00	 ret	 4
?push_back@?$vector@UChangeDirInfo@@V?$allocator@UChangeDirInfo@@@std@@@std@@QAEXABUChangeDirInfo@@@Z ENDP ; std::vector<ChangeDirInfo,std::allocator<ChangeDirInfo> >::push_back
_TEXT	ENDS
PUBLIC	?clear@?$vector@UChangeDirInfo@@V?$allocator@UChangeDirInfo@@@std@@@std@@QAEXXZ ; std::vector<ChangeDirInfo,std::allocator<ChangeDirInfo> >::clear
; Function compile flags: /Ogsp
;	COMDAT ?clear@?$vector@UChangeDirInfo@@V?$allocator@UChangeDirInfo@@@std@@@std@@QAEXXZ
_TEXT	SEGMENT
$T538564 = -4						; size = 4
?clear@?$vector@UChangeDirInfo@@V?$allocator@UChangeDirInfo@@@std@@@std@@QAEXXZ PROC ; std::vector<ChangeDirInfo,std::allocator<ChangeDirInfo> >::clear, COMDAT
; _this$ = ecx

; 1217 : 		{	// erase all

  00000	55		 push	 ebp
  00001	8b ec		 mov	 ebp, esp
  00003	51		 push	 ecx

; 1218 : 		erase(begin(), end());

  00004	8b 41 04	 mov	 eax, DWORD PTR [ecx+4]
  00007	8b 11		 mov	 edx, DWORD PTR [ecx]
  00009	50		 push	 eax
  0000a	52		 push	 edx
  0000b	8d 45 fc	 lea	 eax, DWORD PTR $T538564[ebp]
  0000e	50		 push	 eax
  0000f	e8 00 00 00 00	 call	 ?erase@?$vector@UChangeDirInfo@@V?$allocator@UChangeDirInfo@@@std@@@std@@QAE?AV?$_Vector_iterator@V?$_Vector_val@UChangeDirInfo@@V?$allocator@UChangeDirInfo@@@std@@@std@@@2@V?$_Vector_const_iterator@V?$_Vector_val@UChangeDirInfo@@V?$allocator@UChangeDirInfo@@@std@@@std@@@2@0@Z ; std::vector<ChangeDirInfo,std::allocator<ChangeDirInfo> >::erase

; 1219 : 		}

  00014	c9		 leave
  00015	c3		 ret	 0
?clear@?$vector@UChangeDirInfo@@V?$allocator@UChangeDirInfo@@@std@@@std@@QAEXXZ ENDP ; std::vector<ChangeDirInfo,std::allocator<ChangeDirInfo> >::clear
_TEXT	ENDS
PUBLIC	??$_Sort@PAUChangeDirInfo@@HVChangeDirSort@@@std@@YAXPAUChangeDirInfo@@0HVChangeDirSort@@@Z ; std::_Sort<ChangeDirInfo *,int,ChangeDirSort>
; Function compile flags: /Ogsp
; File c:\program files (x86)\microsoft visual studio 10.0\vc\include\algorithm
;	COMDAT ??$_Sort@PAUChangeDirInfo@@HVChangeDirSort@@@std@@YAXPAUChangeDirInfo@@0HVChangeDirSort@@@Z
_TEXT	SEGMENT
__Mid$534525 = -8					; size = 8
__First$ = 8						; size = 4
__Last$ = 12						; size = 4
__Ideal$ = 16						; size = 4
__Pred$ = 20						; size = 1
??$_Sort@PAUChangeDirInfo@@HVChangeDirSort@@@std@@YAXPAUChangeDirInfo@@0HVChangeDirSort@@@Z PROC ; std::_Sort<ChangeDirInfo *,int,ChangeDirSort>, COMDAT

; 3771 : 	{	// order [_First, _Last), using _Pred

  00000	55		 push	 ebp
  00001	8b ec		 mov	 ebp, esp
  00003	51		 push	 ecx
  00004	51		 push	 ecx
  00005	53		 push	 ebx

; 3772 : 	_Diff _Count;
; 3773 : 	for (; _ISORT_MAX < (_Count = _Last - _First) && 0 < _Ideal; )

  00006	8b 5d 08	 mov	 ebx, DWORD PTR __First$[ebp]
  00009	57		 push	 edi
  0000a	8b 7d 0c	 mov	 edi, DWORD PTR __Last$[ebp]
  0000d	8b c7		 mov	 eax, edi
  0000f	2b c3		 sub	 eax, ebx
  00011	6a 1c		 push	 28			; 0000001cH
  00013	99		 cdq
  00014	59		 pop	 ecx
  00015	f7 f9		 idiv	 ecx
  00017	83 f8 20	 cmp	 eax, 32			; 00000020H
  0001a	0f 8e 9c 00 00
	00		 jle	 $LN22@Sort
  00020	56		 push	 esi
  00021	8b 75 10	 mov	 esi, DWORD PTR __Ideal$[ebp]
$LL7@Sort:
  00024	85 f6		 test	 esi, esi
  00026	7e 75		 jle	 SHORT $LN6@Sort

; 3774 : 		{	// divide and conquer by quicksort
; 3775 : 		_STD pair<_RanIt, _RanIt> _Mid =
; 3776 : 			_Unguarded_partition(_First, _Last, _Pred);

  00028	ff 75 14	 push	 DWORD PTR __Pred$[ebp]
  0002b	8d 45 f8	 lea	 eax, DWORD PTR __Mid$534525[ebp]
  0002e	57		 push	 edi
  0002f	53		 push	 ebx
  00030	50		 push	 eax
  00031	e8 00 00 00 00	 call	 ??$_Unguarded_partition@PAUChangeDirInfo@@VChangeDirSort@@@std@@YA?AU?$pair@PAUChangeDirInfo@@PAU1@@0@PAUChangeDirInfo@@0VChangeDirSort@@@Z ; std::_Unguarded_partition<ChangeDirInfo *,ChangeDirSort>

; 3777 : 		_Ideal /= 2, _Ideal += _Ideal / 2;	// allow 1.5 log2(N) divisions

  00036	8b c6		 mov	 eax, esi
  00038	99		 cdq
  00039	2b c2		 sub	 eax, edx
  0003b	d1 f8		 sar	 eax, 1
  0003d	8b f0		 mov	 esi, eax
  0003f	99		 cdq
  00040	2b c2		 sub	 eax, edx
  00042	d1 f8		 sar	 eax, 1
  00044	03 f0		 add	 esi, eax
  00046	83 c4 10	 add	 esp, 16			; 00000010H

; 3778 : 
; 3779 : 		if (_Mid.first - _First < _Last - _Mid.second)

  00049	8b c7		 mov	 eax, edi
  0004b	2b 45 fc	 sub	 eax, DWORD PTR __Mid$534525[ebp+4]
  0004e	6a 1c		 push	 28			; 0000001cH
  00050	99		 cdq
  00051	59		 pop	 ecx
  00052	f7 f9		 idiv	 ecx
  00054	6a 1c		 push	 28			; 0000001cH
  00056	8b c8		 mov	 ecx, eax
  00058	8b 45 f8	 mov	 eax, DWORD PTR __Mid$534525[ebp]
  0005b	2b c3		 sub	 eax, ebx
  0005d	5b		 pop	 ebx
  0005e	99		 cdq
  0005f	f7 fb		 idiv	 ebx

; 3780 : 			{	// loop on second half
; 3781 : 			_Sort(_First, _Mid.first, _Ideal, _Pred);

  00061	ff 75 14	 push	 DWORD PTR __Pred$[ebp]
  00064	56		 push	 esi
  00065	3b c1		 cmp	 eax, ecx
  00067	7d 13		 jge	 SHORT $LN5@Sort
  00069	ff 75 f8	 push	 DWORD PTR __Mid$534525[ebp]
  0006c	ff 75 08	 push	 DWORD PTR __First$[ebp]
  0006f	e8 00 00 00 00	 call	 ??$_Sort@PAUChangeDirInfo@@HVChangeDirSort@@@std@@YAXPAUChangeDirInfo@@0HVChangeDirSort@@@Z ; std::_Sort<ChangeDirInfo *,int,ChangeDirSort>

; 3782 : 			_First = _Mid.second;

  00074	8b 5d fc	 mov	 ebx, DWORD PTR __Mid$534525[ebp+4]
  00077	89 5d 08	 mov	 DWORD PTR __First$[ebp], ebx

; 3783 : 			}
; 3784 : 		else

  0007a	eb 0f		 jmp	 SHORT $LN23@Sort
$LN5@Sort:

; 3785 : 			{	// loop on first half
; 3786 : 			_Sort(_Mid.second, _Last, _Ideal, _Pred);

  0007c	57		 push	 edi
  0007d	ff 75 fc	 push	 DWORD PTR __Mid$534525[ebp+4]
  00080	e8 00 00 00 00	 call	 ??$_Sort@PAUChangeDirInfo@@HVChangeDirSort@@@std@@YAXPAUChangeDirInfo@@0HVChangeDirSort@@@Z ; std::_Sort<ChangeDirInfo *,int,ChangeDirSort>

; 3787 : 			_Last = _Mid.first;

  00085	8b 7d f8	 mov	 edi, DWORD PTR __Mid$534525[ebp]
  00088	8b 5d 08	 mov	 ebx, DWORD PTR __First$[ebp]
$LN23@Sort:

; 3772 : 	_Diff _Count;
; 3773 : 	for (; _ISORT_MAX < (_Count = _Last - _First) && 0 < _Ideal; )

  0008b	83 c4 10	 add	 esp, 16			; 00000010H
  0008e	8b c7		 mov	 eax, edi
  00090	2b c3		 sub	 eax, ebx
  00092	6a 1c		 push	 28			; 0000001cH
  00094	99		 cdq
  00095	59		 pop	 ecx
  00096	f7 f9		 idiv	 ecx
  00098	83 f8 20	 cmp	 eax, 32			; 00000020H
  0009b	7f 87		 jg	 SHORT $LL7@Sort
$LN6@Sort:
  0009d	5e		 pop	 esi

; 3788 : 			}
; 3789 : 		}
; 3790 : 
; 3791 : 	if (_ISORT_MAX < _Count)

  0009e	83 f8 20	 cmp	 eax, 32			; 00000020H
  000a1	7e 19		 jle	 SHORT $LN22@Sort

; 3792 : 		{	// heap sort if too many divisions
; 3793 : 		_STD make_heap(_First, _Last, _Pred);

  000a3	ff 75 14	 push	 DWORD PTR __Pred$[ebp]
  000a6	57		 push	 edi
  000a7	53		 push	 ebx
  000a8	e8 00 00 00 00	 call	 ??$make_heap@PAUChangeDirInfo@@VChangeDirSort@@@std@@YAXPAUChangeDirInfo@@0VChangeDirSort@@@Z ; std::make_heap<ChangeDirInfo *,ChangeDirSort>

; 3794 : 		_STD sort_heap(_First, _Last, _Pred);

  000ad	ff 75 14	 push	 DWORD PTR __Pred$[ebp]
  000b0	57		 push	 edi
  000b1	53		 push	 ebx
  000b2	e8 00 00 00 00	 call	 ??$_Sort_heap@PAUChangeDirInfo@@VChangeDirSort@@@std@@YAXPAUChangeDirInfo@@0VChangeDirSort@@@Z ; std::_Sort_heap<ChangeDirInfo *,ChangeDirSort>
  000b7	83 c4 18	 add	 esp, 24			; 00000018H
  000ba	eb 14		 jmp	 SHORT $LN16@Sort
$LN22@Sort:

; 3795 : 		}
; 3796 : 	else if (1 < _Count)

  000bc	83 f8 01	 cmp	 eax, 1
  000bf	7e 0f		 jle	 SHORT $LN16@Sort

; 3797 : 		_Insertion_sort(_First, _Last, _Pred);	// small

  000c1	6a 00		 push	 0
  000c3	ff 75 14	 push	 DWORD PTR __Pred$[ebp]
  000c6	57		 push	 edi
  000c7	53		 push	 ebx
  000c8	e8 00 00 00 00	 call	 ??$_Insertion_sort1@PAUChangeDirInfo@@VChangeDirSort@@U1@@std@@YAXPAUChangeDirInfo@@0VChangeDirSort@@0@Z ; std::_Insertion_sort1<ChangeDirInfo *,ChangeDirSort,ChangeDirInfo>
  000cd	83 c4 10	 add	 esp, 16			; 00000010H
$LN16@Sort:
  000d0	5f		 pop	 edi
  000d1	5b		 pop	 ebx

; 3798 : 	}

  000d2	c9		 leave
  000d3	c3		 ret	 0
??$_Sort@PAUChangeDirInfo@@HVChangeDirSort@@@std@@YAXPAUChangeDirInfo@@0HVChangeDirSort@@@Z ENDP ; std::_Sort<ChangeDirInfo *,int,ChangeDirSort>
; Function compile flags: /Ogsp
_TEXT	ENDS
;	COMDAT ??_GioTraceWeaponType3@@UAEPAXI@Z
_TEXT	SEGMENT
___flags$ = 8						; size = 4
??_GioTraceWeaponType3@@UAEPAXI@Z PROC			; ioTraceWeaponType3::`scalar deleting destructor', COMDAT
; _this$ = ecx
  00000	55		 push	 ebp
  00001	8b ec		 mov	 ebp, esp
  00003	56		 push	 esi
  00004	8b f1		 mov	 esi, ecx
  00006	e8 00 00 00 00	 call	 ??1ioTraceWeaponType3@@UAE@XZ ; ioTraceWeaponType3::~ioTraceWeaponType3
  0000b	f6 45 08 01	 test	 BYTE PTR ___flags$[ebp], 1
  0000f	74 07		 je	 SHORT $LN1@scalar@5
  00011	56		 push	 esi
  00012	e8 00 00 00 00	 call	 ??3@YAXPAX@Z		; operator delete
  00017	59		 pop	 ecx
$LN1@scalar@5:
  00018	8b c6		 mov	 eax, esi
  0001a	5e		 pop	 esi
  0001b	5d		 pop	 ebp
  0001c	c2 04 00	 ret	 4
??_GioTraceWeaponType3@@UAEPAXI@Z ENDP			; ioTraceWeaponType3::`scalar deleting destructor'
_TEXT	ENDS
PUBLIC	__$ArrayPad$
PUBLIC	?OnMove@ioTraceWeaponType3@@IAEXPAVioPlayStage@@M@Z ; ioTraceWeaponType3::OnMove
; Function compile flags: /Ogsp
; File d:\lost saga for developer\youtube\tutorial\source\src\lsclient\iotraceweapontype3.cpp
;	COMDAT ?OnMove@ioTraceWeaponType3@@IAEXPAVioPlayStage@@M@Z
_TEXT	SEGMENT
_value$538650 = -20					; size = 4
_fMoveDist$ = -20					; size = 4
$T531864 = -16						; size = 12
__$ArrayPad$ = -4					; size = 4
_pStage$ = 8						; size = 4
_fTimePerSec$ = 12					; size = 4
?OnMove@ioTraceWeaponType3@@IAEXPAVioPlayStage@@M@Z PROC ; ioTraceWeaponType3::OnMove, COMDAT
; _this$ = ecx

; 298  : {

  00000	55		 push	 ebp
  00001	8b ec		 mov	 ebp, esp
  00003	83 ec 14	 sub	 esp, 20			; 00000014H
  00006	a1 00 00 00 00	 mov	 eax, DWORD PTR ___security_cookie
  0000b	33 c5		 xor	 eax, ebp
  0000d	89 45 fc	 mov	 DWORD PTR __$ArrayPad$[ebp], eax
  00010	56		 push	 esi
  00011	57		 push	 edi

; 299  : 	DWORD dwCurTime = FRAMEGETTIME();

  00012	8b 3d 00 00 00
	00		 mov	 edi, DWORD PTR __imp_?GetSingleton@ioFrameTimer@@SAAAV1@XZ
  00018	8b f1		 mov	 esi, ecx
  0001a	ff d7		 call	 edi
  0001c	8b c8		 mov	 ecx, eax
  0001e	ff 15 00 00 00
	00		 call	 DWORD PTR __imp_?GetLoopSec@ioFrameTimer@@QBEKXZ

; 300  : 	if( m_dwCreatedTime + m_dwSensingEnableTime < dwCurTime &&
; 301  : 		( m_State != TS_WAIT_EXPLOSION || m_State != TS_EXPLOSION ) )

  00024	8b 8e b4 08 00
	00		 mov	 ecx, DWORD PTR [esi+2228]
  0002a	03 8e d4 04 00
	00		 add	 ecx, DWORD PTR [esi+1236]
  00030	3b c8		 cmp	 ecx, eax
  00032	73 34		 jae	 SHORT $LN2@OnMove

; 302  : 	{
; 303  : 		m_State = TS_TRACING;
; 304  : 		m_dwSensingStartTime = dwCurTime;

  00034	89 86 b8 08 00
	00		 mov	 DWORD PTR [esi+2232], eax

; 305  : 		m_dwTraceEndTime = FRAMEGETTIME() + m_dwTraceDuration;

  0003a	8d 45 ec	 lea	 eax, DWORD PTR _value$538650[ebp]
  0003d	50		 push	 eax
  0003e	8d 8e 64 09 00
	00		 lea	 ecx, DWORD PTR [esi+2404]
  00044	c7 86 94 08 00
	00 02 00 00 00	 mov	 DWORD PTR [esi+2196], 2
  0004e	e8 00 00 00 00	 call	 ?DecryptValueToPool@?$CEncrypt@K@@QAEXPAK@Z ; CEncrypt<unsigned long>::DecryptValueToPool
  00053	ff d7		 call	 edi
  00055	8b c8		 mov	 ecx, eax
  00057	ff 15 00 00 00
	00		 call	 DWORD PTR __imp_?GetLoopSec@ioFrameTimer@@QBEKXZ
  0005d	03 45 ec	 add	 eax, DWORD PTR _value$538650[ebp]
  00060	89 86 94 09 00
	00		 mov	 DWORD PTR [esi+2452], eax

; 306  : 		return;

  00066	eb 6c		 jmp	 SHORT $LN3@OnMove
$LN2@OnMove:

; 307  : 	}
; 308  : 
; 309  : 	CheckChangeDir();

  00068	8b ce		 mov	 ecx, esi
  0006a	e8 00 00 00 00	 call	 ?CheckChangeDir@ioTraceWeaponType3@@IAEXXZ ; ioTraceWeaponType3::CheckChangeDir

; 310  : 
; 311  : 	float fMoveDist = GetMoveSpeed() * fTimePerSec;

  0006f	8b ce		 mov	 ecx, esi
  00071	e8 00 00 00 00	 call	 ?GetMoveSpeed@ioTraceWeaponType3@@IAEMXZ ; ioTraceWeaponType3::GetMoveSpeed
  00076	d8 4d 0c	 fmul	 DWORD PTR _fTimePerSec$[ebp]

; 312  : 	GetParentSceneNode()->Translate( m_vMoveDir * fMoveDist );

  00079	8b 4e 04	 mov	 ecx, DWORD PTR [esi+4]
  0007c	6a 01		 push	 1
  0007e	d9 5d ec	 fstp	 DWORD PTR _fMoveDist$[ebp]
  00081	8d 55 f0	 lea	 edx, DWORD PTR $T531864[ebp]
  00084	d9 86 58 09 00
	00		 fld	 DWORD PTR [esi+2392]
  0008a	52		 push	 edx
  0008b	d8 4d ec	 fmul	 DWORD PTR _fMoveDist$[ebp]
  0008e	d9 5d f0	 fstp	 DWORD PTR $T531864[ebp]
  00091	d9 86 5c 09 00
	00		 fld	 DWORD PTR [esi+2396]
  00097	d8 4d ec	 fmul	 DWORD PTR _fMoveDist$[ebp]
  0009a	d9 5d f4	 fstp	 DWORD PTR $T531864[ebp+4]
  0009d	d9 86 60 09 00
	00		 fld	 DWORD PTR [esi+2400]
  000a3	d8 4d ec	 fmul	 DWORD PTR _fMoveDist$[ebp]
  000a6	d9 5d f8	 fstp	 DWORD PTR $T531864[ebp+8]
  000a9	8b 01		 mov	 eax, DWORD PTR [ecx]
  000ab	ff 50 3c	 call	 DWORD PTR [eax+60]

; 313  : 	m_fCurMoveRange += fMoveDist;

  000ae	d9 86 ac 08 00
	00		 fld	 DWORD PTR [esi+2220]
  000b4	d8 45 ec	 fadd	 DWORD PTR _fMoveDist$[ebp]

; 314  : 
; 315  : 	UpdateWorldAttackBox( fTimePerSec, false );

  000b7	f3 0f 10 45 0c	 movss	 xmm0, DWORD PTR _fTimePerSec$[ebp]
  000bc	8b 06		 mov	 eax, DWORD PTR [esi]
  000be	6a 00		 push	 0
  000c0	51		 push	 ecx
  000c1	d9 9e ac 08 00
	00		 fstp	 DWORD PTR [esi+2220]
  000c7	8b ce		 mov	 ecx, esi
  000c9	f3 0f 11 04 24	 movss	 DWORD PTR [esp], xmm0
  000ce	ff 90 38 01 00
	00		 call	 DWORD PTR [eax+312]
$LN3@OnMove:

; 316  : }

  000d4	8b 4d fc	 mov	 ecx, DWORD PTR __$ArrayPad$[ebp]
  000d7	5f		 pop	 edi
  000d8	33 cd		 xor	 ecx, ebp
  000da	5e		 pop	 esi
  000db	e8 00 00 00 00	 call	 @__security_check_cookie@4
  000e0	c9		 leave
  000e1	c2 08 00	 ret	 8
?OnMove@ioTraceWeaponType3@@IAEXPAVioPlayStage@@M@Z ENDP ; ioTraceWeaponType3::OnMove
_TEXT	ENDS
PUBLIC	??$sort@V?$_Vector_iterator@V?$_Vector_val@UChangeDirInfo@@V?$allocator@UChangeDirInfo@@@std@@@std@@@std@@VChangeDirSort@@@std@@YAXV?$_Vector_iterator@V?$_Vector_val@UChangeDirInfo@@V?$allocator@UChangeDirInfo@@@std@@@std@@@0@0VChangeDirSort@@@Z ; std::sort<std::_Vector_iterator<std::_Vector_val<ChangeDirInfo,std::allocator<ChangeDirInfo> > >,ChangeDirSort>
; Function compile flags: /Ogsp
; File c:\program files (x86)\microsoft visual studio 10.0\vc\include\algorithm
;	COMDAT ??$sort@V?$_Vector_iterator@V?$_Vector_val@UChangeDirInfo@@V?$allocator@UChangeDirInfo@@@std@@@std@@@std@@VChangeDirSort@@@std@@YAXV?$_Vector_iterator@V?$_Vector_val@UChangeDirInfo@@V?$allocator@UChangeDirInfo@@@std@@@std@@@0@0VChangeDirSort@@@Z
_TEXT	SEGMENT
__First$ = 8						; size = 4
__Last$ = 12						; size = 4
__Pred$ = 16						; size = 1
??$sort@V?$_Vector_iterator@V?$_Vector_val@UChangeDirInfo@@V?$allocator@UChangeDirInfo@@@std@@@std@@@std@@VChangeDirSort@@@std@@YAXV?$_Vector_iterator@V?$_Vector_val@UChangeDirInfo@@V?$allocator@UChangeDirInfo@@@std@@@std@@@0@0VChangeDirSort@@@Z PROC ; std::sort<std::_Vector_iterator<std::_Vector_val<ChangeDirInfo,std::allocator<ChangeDirInfo> > >,ChangeDirSort>, COMDAT

; 3803 : 	{	// order [_First, _Last), using _Pred

  00000	55		 push	 ebp
  00001	8b ec		 mov	 ebp, esp

; 3804 : 	_DEBUG_RANGE(_First, _Last);
; 3805 : 	_DEBUG_POINTER(_Pred);
; 3806 : 	_Sort(_Unchecked(_First), _Unchecked(_Last), _Last - _First, _Pred);

  00003	ff 75 10	 push	 DWORD PTR __Pred$[ebp]
  00006	8b 45 0c	 mov	 eax, DWORD PTR __Last$[ebp]
  00009	2b 45 08	 sub	 eax, DWORD PTR __First$[ebp]
  0000c	6a 1c		 push	 28			; 0000001cH
  0000e	59		 pop	 ecx
  0000f	99		 cdq
  00010	f7 f9		 idiv	 ecx
  00012	50		 push	 eax
  00013	ff 75 0c	 push	 DWORD PTR __Last$[ebp]
  00016	ff 75 08	 push	 DWORD PTR __First$[ebp]
  00019	e8 00 00 00 00	 call	 ??$_Sort@PAUChangeDirInfo@@HVChangeDirSort@@@std@@YAXPAUChangeDirInfo@@0HVChangeDirSort@@@Z ; std::_Sort<ChangeDirInfo *,int,ChangeDirSort>
  0001e	83 c4 10	 add	 esp, 16			; 00000010H

; 3807 : 	}

  00021	5d		 pop	 ebp
  00022	c3		 ret	 0
??$sort@V?$_Vector_iterator@V?$_Vector_val@UChangeDirInfo@@V?$allocator@UChangeDirInfo@@@std@@@std@@@std@@VChangeDirSort@@@std@@YAXV?$_Vector_iterator@V?$_Vector_val@UChangeDirInfo@@V?$allocator@UChangeDirInfo@@@std@@@std@@@0@0VChangeDirSort@@@Z ENDP ; std::sort<std::_Vector_iterator<std::_Vector_val<ChangeDirInfo,std::allocator<ChangeDirInfo> > >,ChangeDirSort>
_TEXT	ENDS
PUBLIC	??_C@_00CNPNBAHC@?$AA@				; `string'
PUBLIC	_rkLoader$GSCopy$
PUBLIC	__$ArrayPad$
EXTRN	__imp__wsprintfA:PROC
EXTRN	__imp_??4ioHashString@@QAEAAV0@PBD@Z:PROC
EXTRN	?LoadProperty@ioWeapon@@UAEXAAVioINILoader@@@Z:PROC ; ioWeapon::LoadProperty
EXTRN	_memset:PROC
;	COMDAT ??_C@_00CNPNBAHC@?$AA@
; File d:\lost saga for developer\youtube\tutorial\source\src\lsclient\stringprotect.h
CONST	SEGMENT
??_C@_00CNPNBAHC@?$AA@ DB 00H				; `string'
; Function compile flags: /Ogsp
; File d:\lost saga for developer\youtube\tutorial\source\src\lsclient\iotraceweapontype3.cpp
CONST	ENDS
;	COMDAT ?LoadProperty@ioTraceWeaponType3@@UAEXAAVioINILoader@@@Z
_TEXT	SEGMENT
tv16881 = -336						; size = 4
_value$540419 = -329					; size = 1
$T538707 = -328						; size = 1
$T540166 = -328						; size = 4
_value$539853 = -328					; size = 4
_value$539723 = -328					; size = 4
_value$539592 = -328					; size = 4
tv4656 = -328						; size = 4
_value$539462 = -328					; size = 4
_rkLoader$GSCopy$ = -324				; size = 4
_kInfo$530973 = -320					; size = 28
_szBuf$ = -292						; size = 260
__k$540561 = -32					; size = 22
__k$540436 = -32					; size = 21
__k$539883 = -32					; size = 20
__k$539610 = -32					; size = 19
__k$539225 = -32					; size = 20
__k$540060 = -28					; size = 15
__k$539805 = -28					; size = 15
__k$539100 = -28					; size = 18
__k$538975 = -28					; size = 16
___encStr$531434 = -28					; size = 17
___encStr$531282 = -28					; size = 17
___encStr$531130 = -28					; size = 15
___encStr$530977 = -28					; size = 15
__k$540735 = -24					; size = 12
__k$540306 = -24					; size = 14
__k$539480 = -24					; size = 12
__k$539350 = -24					; size = 12
__k$538775 = -24					; size = 12
__k$538850 = -20					; size = 10
__$ArrayPad$ = -4					; size = 4
_rkLoader$ = 8						; size = 4
?LoadProperty@ioTraceWeaponType3@@UAEXAAVioINILoader@@@Z PROC ; ioTraceWeaponType3::LoadProperty, COMDAT
; _this$ = ecx

; 48   : {

  00000	55		 push	 ebp
  00001	8b ec		 mov	 ebp, esp
  00003	81 ec 50 01 00
	00		 sub	 esp, 336		; 00000150H
  00009	a1 00 00 00 00	 mov	 eax, DWORD PTR ___security_cookie
  0000e	33 c5		 xor	 eax, ebp
  00010	89 45 fc	 mov	 DWORD PTR __$ArrayPad$[ebp], eax
  00013	8b 45 08	 mov	 eax, DWORD PTR _rkLoader$[ebp]
  00016	53		 push	 ebx
  00017	56		 push	 esi
  00018	57		 push	 edi

; 49   : 	ioWeapon::LoadProperty( rkLoader );

  00019	50		 push	 eax
  0001a	8b d9		 mov	 ebx, ecx

; 106  : 
; 107  : 	rkLoader.LoadString_e( "dead_weapon", "", szBuf, MAX_PATH );

  0001c	89 85 bc fe ff
	ff		 mov	 DWORD PTR _rkLoader$GSCopy$[ebp], eax
  00022	e8 00 00 00 00	 call	 ?LoadProperty@ioWeapon@@UAEXAAVioINILoader@@@Z ; ioWeapon::LoadProperty
  00027	68 03 01 00 00	 push	 259			; 00000103H
  0002c	8d 85 dd fe ff
	ff		 lea	 eax, DWORD PTR _szBuf$[ebp+1]
  00032	6a 00		 push	 0
  00034	50		 push	 eax
  00035	c6 85 dc fe ff
	ff 00		 mov	 BYTE PTR _szBuf$[ebp], 0
  0003c	e8 00 00 00 00	 call	 _memset
  00041	83 c4 0c	 add	 esp, 12			; 0000000cH
  00044	6a 02		 push	 2
  00046	c7 45 e8 8f 83
	84 87		 mov	 DWORD PTR __k$538775[ebp], -2021358705 ; 8784838fH
  0004d	c7 45 ec b2 89
	8d 8c		 mov	 DWORD PTR __k$538775[ebp+4], -1936881230 ; 8c8d89b2H
  00054	8d 45 e8	 lea	 eax, DWORD PTR __k$538775[ebp]
  00057	c7 45 f0 88 8f
	9f 00		 mov	 DWORD PTR __k$538775[ebp+8], 10456968 ; 009f8f88H
  0005e	59		 pop	 ecx
  0005f	bf ed ec eb ea	 mov	 edi, -353637139		; eaebecedH
$LL506@LoadProper:

; 50   : 
; 51   : 	char szBuf[MAX_PATH] = "";
; 52   : 	rkLoader.LoadString_e( "boom_effect", "", szBuf, MAX_PATH );

  00064	31 38		 xor	 DWORD PTR [eax], edi
  00066	83 c0 04	 add	 eax, 4
  00069	49		 dec	 ecx
  0006a	75 f8		 jne	 SHORT $LL506@LoadProper
  0006c	6a 08		 push	 8
  0006e	5e		 pop	 esi
$LL503@LoadProper:
  0006f	8b c6		 mov	 eax, esi
  00071	25 03 00 00 80	 and	 eax, -2147483645	; 80000003H
  00076	79 05		 jns	 SHORT $LN2151@LoadProper
  00078	48		 dec	 eax
  00079	83 c8 fc	 or	 eax, -4			; fffffffcH
  0007c	40		 inc	 eax
$LN2151@LoadProper:
  0007d	b1 ed		 mov	 cl, -19			; ffffffedH
  0007f	2a c8		 sub	 cl, al
  00081	30 4c 35 e8	 xor	 BYTE PTR __k$538775[ebp+esi], cl
  00085	46		 inc	 esi
  00086	83 fe 0b	 cmp	 esi, 11			; 0000000bH
  00089	7c e4		 jl	 SHORT $LL503@LoadProper
  0008b	8b 8d bc fe ff
	ff		 mov	 ecx, DWORD PTR _rkLoader$GSCopy$[ebp]
  00091	68 04 01 00 00	 push	 260			; 00000104H
  00096	8d 85 dc fe ff
	ff		 lea	 eax, DWORD PTR _szBuf$[ebp]
  0009c	50		 push	 eax
  0009d	68 00 00 00 00	 push	 OFFSET ??_C@_00CNPNBAHC@?$AA@
  000a2	8d 45 e8	 lea	 eax, DWORD PTR __k$538775[ebp]
  000a5	50		 push	 eax
  000a6	ff 15 00 00 00
	00		 call	 DWORD PTR __imp_?LoadStringA@ioINILoader@@QAEXPBD0PADH@Z

; 53   : 	m_BoomEffect = szBuf;

  000ac	8d 85 dc fe ff
	ff		 lea	 eax, DWORD PTR _szBuf$[ebp]
  000b2	50		 push	 eax
  000b3	8d 8b ec 09 00
	00		 lea	 ecx, DWORD PTR [ebx+2540]
  000b9	ff 15 00 00 00
	00		 call	 DWORD PTR __imp_??4ioHashString@@QAEAAV0@PBD@Z
  000bf	6a 02		 push	 2

; 54   : 
; 55   : 	m_dwLiveTime = rkLoader.LoadInt_e( "live_time", 0 );

  000c1	c7 45 ec 81 85
	9d 8f		 mov	 DWORD PTR __k$538850[ebp], -1885502079 ; 8f9d8581H
  000c8	c7 45 f0 b2 98
	82 87		 mov	 DWORD PTR __k$538850[ebp+4], -2021484366 ; 878298b2H
  000cf	8d 45 ec	 lea	 eax, DWORD PTR __k$538850[ebp]
  000d2	66 c7 45 f4 88
	00		 mov	 WORD PTR __k$538850[ebp+8], 136 ; 00000088H
  000d8	59		 pop	 ecx
$LL612@LoadProper:
  000d9	31 38		 xor	 DWORD PTR [eax], edi
  000db	83 c0 04	 add	 eax, 4
  000de	49		 dec	 ecx
  000df	75 f8		 jne	 SHORT $LL612@LoadProper
  000e1	8b 35 00 00 00
	00		 mov	 esi, DWORD PTR __imp_?LoadInt@ioINILoader@@QAEHPBDH@Z
  000e7	80 75 f4 ed	 xor	 BYTE PTR __k$538850[ebp+8], -19 ; ffffffedH
  000eb	51		 push	 ecx
  000ec	8b 8d bc fe ff
	ff		 mov	 ecx, DWORD PTR _rkLoader$GSCopy$[ebp]
  000f2	8d 45 ec	 lea	 eax, DWORD PTR __k$538850[ebp]
  000f5	50		 push	 eax
  000f6	ff d6		 call	 esi
  000f8	6a 03		 push	 3
  000fa	89 83 d8 04 00
	00		 mov	 DWORD PTR [ebx+1240], eax

; 56   : 	m_bMapCheck = rkLoader.LoadBool_e( "trace_map_check", false );

  00100	c7 45 e4 99 9e
	8a 89		 mov	 DWORD PTR __k$538975[ebp], -1987404135 ; 898a9e99H
  00107	c7 45 e8 88 b3
	86 8b		 mov	 DWORD PTR __k$538975[ebp+4], -1954106488 ; 8b86b388H
  0010e	c7 45 ec 9d b3
	88 82		 mov	 DWORD PTR __k$538975[ebp+8], -2104970339 ; 8288b39dH
  00115	8d 45 e4	 lea	 eax, DWORD PTR __k$538975[ebp]
  00118	c7 45 f0 88 8f
	80 00		 mov	 DWORD PTR __k$538975[ebp+12], 8425352 ; 00808f88H
  0011f	59		 pop	 ecx
$LL718@LoadProper:
  00120	31 38		 xor	 DWORD PTR [eax], edi
  00122	83 c0 04	 add	 eax, 4
  00125	49		 dec	 ecx
  00126	75 f8		 jne	 SHORT $LL718@LoadProper
  00128	6a 0c		 push	 12			; 0000000cH
  0012a	58		 pop	 eax
$LL715@LoadProper:
  0012b	8b c8		 mov	 ecx, eax
  0012d	81 e1 03 00 00
	80		 and	 ecx, -2147483645	; 80000003H
  00133	79 05		 jns	 SHORT $LN2152@LoadProper
  00135	49		 dec	 ecx
  00136	83 c9 fc	 or	 ecx, -4			; fffffffcH
  00139	41		 inc	 ecx
$LN2152@LoadProper:
  0013a	b2 ed		 mov	 dl, -19			; ffffffedH
  0013c	2a d1		 sub	 dl, cl
  0013e	30 54 05 e4	 xor	 BYTE PTR __k$538975[ebp+eax], dl
  00142	40		 inc	 eax
  00143	83 f8 0f	 cmp	 eax, 15			; 0000000fH
  00146	7c e3		 jl	 SHORT $LL715@LoadProper
  00148	8b 8d bc fe ff
	ff		 mov	 ecx, DWORD PTR _rkLoader$GSCopy$[ebp]
  0014e	6a 00		 push	 0
  00150	8d 45 e4	 lea	 eax, DWORD PTR __k$538975[ebp]
  00153	50		 push	 eax
  00154	ff 15 00 00 00
	00		 call	 DWORD PTR __imp_?LoadBool@ioINILoader@@QAE_NPBD_N@Z
  0015a	6a 04		 push	 4
  0015c	88 83 a0 09 00
	00		 mov	 BYTE PTR [ebx+2464], al

; 57   : 
; 58   : 	// Sensing
; 59   : 	m_TargetWoundType = (TargetWoundType)rkLoader.LoadInt_e( "target_wound_type", TWT_ALL );

  00162	c7 45 e4 99 8d
	99 8d		 mov	 DWORD PTR __k$539100[ebp], -1919316583 ; 8d998d99H
  00169	c7 45 e8 88 98
	b4 9d		 mov	 DWORD PTR __k$539100[ebp+4], -1649108856 ; 9db49888H
  00170	c7 45 ec 82 99
	85 8e		 mov	 DWORD PTR __k$539100[ebp+8], -1903847038 ; 8e859982H
  00177	c7 45 f0 b2 98
	92 9a		 mov	 DWORD PTR __k$539100[ebp+12], -1701668686 ; 9a9298b2H
  0017e	8d 45 e4	 lea	 eax, DWORD PTR __k$539100[ebp]
  00181	66 c7 45 f4 88
	00		 mov	 WORD PTR __k$539100[ebp+16], 136 ; 00000088H
  00187	59		 pop	 ecx
$LL824@LoadProper:
  00188	31 38		 xor	 DWORD PTR [eax], edi
  0018a	83 c0 04	 add	 eax, 4
  0018d	49		 dec	 ecx
  0018e	75 f8		 jne	 SHORT $LL824@LoadProper
  00190	8b 8d bc fe ff
	ff		 mov	 ecx, DWORD PTR _rkLoader$GSCopy$[ebp]
  00196	80 75 f4 ed	 xor	 BYTE PTR __k$539100[ebp+16], -19 ; ffffffedH
  0019a	6a 01		 push	 1
  0019c	8d 45 e4	 lea	 eax, DWORD PTR __k$539100[ebp]
  0019f	50		 push	 eax
  001a0	ff d6		 call	 esi
  001a2	6a 04		 push	 4
  001a4	89 83 b0 08 00
	00		 mov	 DWORD PTR [ebx+2224], eax

; 60   : 
; 61   : 	m_dwSensingEnableTime = rkLoader.LoadInt_e( "sensing_enable_time", 0 );

  001aa	c7 45 e0 9e 89
	85 99		 mov	 DWORD PTR __k$539225[ebp], -1719301730 ; 9985899eH
  001b1	c7 45 e4 84 82
	8c b5		 mov	 DWORD PTR __k$539225[ebp+4], -1249082748 ; b58c8284H
  001b8	c7 45 e8 88 82
	8a 88		 mov	 DWORD PTR __k$539225[ebp+8], -2004188536 ; 888a8288H
  001bf	c7 45 ec 81 89
	b4 9e		 mov	 DWORD PTR __k$539225[ebp+12], -1632335487 ; 9eb48981H
  001c6	8d 45 e0	 lea	 eax, DWORD PTR __k$539225[ebp]
  001c9	c7 45 f0 84 81
	8e 00		 mov	 DWORD PTR __k$539225[ebp+16], 9339268 ; 008e8184H
  001d0	59		 pop	 ecx
$LL930@LoadProper:
  001d1	31 38		 xor	 DWORD PTR [eax], edi
  001d3	83 c0 04	 add	 eax, 4
  001d6	49		 dec	 ecx
  001d7	75 f8		 jne	 SHORT $LL930@LoadProper
  001d9	6a 10		 push	 16			; 00000010H
  001db	58		 pop	 eax
$LL927@LoadProper:
  001dc	8b c8		 mov	 ecx, eax
  001de	81 e1 03 00 00
	80		 and	 ecx, -2147483645	; 80000003H
  001e4	79 05		 jns	 SHORT $LN2153@LoadProper
  001e6	49		 dec	 ecx
  001e7	83 c9 fc	 or	 ecx, -4			; fffffffcH
  001ea	41		 inc	 ecx
$LN2153@LoadProper:
  001eb	b2 ed		 mov	 dl, -19			; ffffffedH
  001ed	2a d1		 sub	 dl, cl
  001ef	30 54 05 e0	 xor	 BYTE PTR __k$539225[ebp+eax], dl
  001f3	40		 inc	 eax
  001f4	83 f8 13	 cmp	 eax, 19			; 00000013H
  001f7	7c e3		 jl	 SHORT $LL927@LoadProper
  001f9	8b 8d bc fe ff
	ff		 mov	 ecx, DWORD PTR _rkLoader$GSCopy$[ebp]
  001ff	6a 00		 push	 0
  00201	8d 45 e0	 lea	 eax, DWORD PTR __k$539225[ebp]
  00204	50		 push	 eax
  00205	ff d6		 call	 esi
  00207	6a 02		 push	 2
  00209	89 83 b4 08 00
	00		 mov	 DWORD PTR [ebx+2228], eax

; 62   : 
; 63   : 	// Tracing
; 64   : 	m_fTraceSpeed = rkLoader.LoadFloat_e( "trace_speed", 0.0f );

  0020f	c7 45 e8 99 9e
	8a 89		 mov	 DWORD PTR __k$539350[ebp], -1987404135 ; 898a9e99H
  00216	c7 45 ec 88 b3
	98 9a		 mov	 DWORD PTR __k$539350[ebp+4], -1701268600 ; 9a98b388H
  0021d	8d 45 e8	 lea	 eax, DWORD PTR __k$539350[ebp]
  00220	c7 45 f0 88 89
	8f 00		 mov	 DWORD PTR __k$539350[ebp+8], 9406856 ; 008f8988H
  00227	59		 pop	 ecx
$LL1036@LoadProper:
  00228	31 38		 xor	 DWORD PTR [eax], edi
  0022a	83 c0 04	 add	 eax, 4
  0022d	49		 dec	 ecx
  0022e	75 f8		 jne	 SHORT $LL1036@LoadProper
  00230	6a 08		 push	 8
  00232	58		 pop	 eax
$LL1033@LoadProper:
  00233	8b c8		 mov	 ecx, eax
  00235	81 e1 03 00 00
	80		 and	 ecx, -2147483645	; 80000003H
  0023b	79 05		 jns	 SHORT $LN2154@LoadProper
  0023d	49		 dec	 ecx
  0023e	83 c9 fc	 or	 ecx, -4			; fffffffcH
  00241	41		 inc	 ecx
$LN2154@LoadProper:
  00242	b2 ed		 mov	 dl, -19			; ffffffedH
  00244	2a d1		 sub	 dl, cl
  00246	30 54 05 e8	 xor	 BYTE PTR __k$539350[ebp+eax], dl
  0024a	40		 inc	 eax
  0024b	83 f8 0b	 cmp	 eax, 11			; 0000000bH
  0024e	7c e3		 jl	 SHORT $LL1033@LoadProper
  00250	0f 57 c0	 xorps	 xmm0, xmm0
  00253	51		 push	 ecx
  00254	8b 8d bc fe ff
	ff		 mov	 ecx, DWORD PTR _rkLoader$GSCopy$[ebp]
  0025a	8d 45 e8	 lea	 eax, DWORD PTR __k$539350[ebp]
  0025d	f3 0f 11 04 24	 movss	 DWORD PTR [esp], xmm0
  00262	50		 push	 eax
  00263	ff 15 00 00 00
	00		 call	 DWORD PTR __imp_?LoadFloat@ioINILoader@@QAEMPBDM@Z
  00269	d9 9d b8 fe ff
	ff		 fstp	 DWORD PTR _value$539462[ebp]
  0026f	8d 85 b8 fe ff
	ff		 lea	 eax, DWORD PTR _value$539462[ebp]
  00275	50		 push	 eax
  00276	8d 8b bc 08 00
	00		 lea	 ecx, DWORD PTR [ebx+2236]
  0027c	e8 00 00 00 00	 call	 ?EncryptValueToPool@?$CEncrypt@M@@AAEXPBD@Z ; CEncrypt<float>::EncryptValueToPool
  00281	6a 02		 push	 2

; 65   : 	m_fTraceRange = rkLoader.LoadFloat_e( "trace_range", 0.0f );

  00283	c7 45 e8 99 9e
	8a 89		 mov	 DWORD PTR __k$539480[ebp], -1987404135 ; 898a9e99H
  0028a	c7 45 ec 88 b3
	99 8b		 mov	 DWORD PTR __k$539480[ebp+4], -1952861304 ; 8b99b388H
  00291	8d 45 e8	 lea	 eax, DWORD PTR __k$539480[ebp]
  00294	c7 45 f0 83 8b
	8e 00		 mov	 DWORD PTR __k$539480[ebp+8], 9341827 ; 008e8b83H
  0029b	59		 pop	 ecx
$LL1144@LoadProper:
  0029c	31 38		 xor	 DWORD PTR [eax], edi
  0029e	83 c0 04	 add	 eax, 4
  002a1	49		 dec	 ecx
  002a2	75 f8		 jne	 SHORT $LL1144@LoadProper
  002a4	6a 08		 push	 8
  002a6	58		 pop	 eax
$LL1141@LoadProper:
  002a7	8b c8		 mov	 ecx, eax
  002a9	81 e1 03 00 00
	80		 and	 ecx, -2147483645	; 80000003H
  002af	79 05		 jns	 SHORT $LN2155@LoadProper
  002b1	49		 dec	 ecx
  002b2	83 c9 fc	 or	 ecx, -4			; fffffffcH
  002b5	41		 inc	 ecx
$LN2155@LoadProper:
  002b6	b2 ed		 mov	 dl, -19			; ffffffedH
  002b8	2a d1		 sub	 dl, cl
  002ba	30 54 05 e8	 xor	 BYTE PTR __k$539480[ebp+eax], dl
  002be	40		 inc	 eax
  002bf	83 f8 0b	 cmp	 eax, 11			; 0000000bH
  002c2	7c e3		 jl	 SHORT $LL1141@LoadProper
  002c4	0f 57 c0	 xorps	 xmm0, xmm0
  002c7	51		 push	 ecx
  002c8	8b 8d bc fe ff
	ff		 mov	 ecx, DWORD PTR _rkLoader$GSCopy$[ebp]
  002ce	8d 45 e8	 lea	 eax, DWORD PTR __k$539480[ebp]
  002d1	f3 0f 11 04 24	 movss	 DWORD PTR [esp], xmm0
  002d6	50		 push	 eax
  002d7	ff 15 00 00 00
	00		 call	 DWORD PTR __imp_?LoadFloat@ioINILoader@@QAEMPBDM@Z
  002dd	d9 9d b8 fe ff
	ff		 fstp	 DWORD PTR _value$539592[ebp]
  002e3	8d 85 b8 fe ff
	ff		 lea	 eax, DWORD PTR _value$539592[ebp]
  002e9	50		 push	 eax
  002ea	8d 8b ec 08 00
	00		 lea	 ecx, DWORD PTR [ebx+2284]
  002f0	e8 00 00 00 00	 call	 ?EncryptValueToPool@?$CEncrypt@M@@AAEXPBD@Z ; CEncrypt<float>::EncryptValueToPool
  002f5	6a 04		 push	 4

; 66   : 	m_fTraceRotSpeed = rkLoader.LoadFloat_e( "trace_rotate_speed", 0.0f );

  002f7	c7 45 e0 99 9e
	8a 89		 mov	 DWORD PTR __k$539610[ebp], -1987404135 ; 898a9e99H
  002fe	c7 45 e4 88 b3
	99 85		 mov	 DWORD PTR __k$539610[ebp+4], -2053524600 ; 8599b388H
  00305	c7 45 e8 99 8d
	9f 8f		 mov	 DWORD PTR __k$539610[ebp+8], -1885368935 ; 8f9f8d99H
  0030c	c7 45 ec b2 9f
	9b 8f		 mov	 DWORD PTR __k$539610[ebp+12], -1885626446 ; 8f9b9fb2H
  00313	66 c7 45 f0 88
	88		 mov	 WORD PTR __k$539610[ebp+16], 34952 ; 00008888H
  00319	8d 45 e0	 lea	 eax, DWORD PTR __k$539610[ebp]
  0031c	c6 45 f2 00	 mov	 BYTE PTR __k$539610[ebp+18], 0
  00320	59		 pop	 ecx
$LL1252@LoadProper:
  00321	31 38		 xor	 DWORD PTR [eax], edi
  00323	83 c0 04	 add	 eax, 4
  00326	49		 dec	 ecx
  00327	75 f8		 jne	 SHORT $LL1252@LoadProper
  00329	6a 10		 push	 16			; 00000010H
  0032b	58		 pop	 eax
$LL1249@LoadProper:
  0032c	8b c8		 mov	 ecx, eax
  0032e	81 e1 03 00 00
	80		 and	 ecx, -2147483645	; 80000003H
  00334	79 05		 jns	 SHORT $LN2156@LoadProper
  00336	49		 dec	 ecx
  00337	83 c9 fc	 or	 ecx, -4			; fffffffcH
  0033a	41		 inc	 ecx
$LN2156@LoadProper:
  0033b	b2 ed		 mov	 dl, -19			; ffffffedH
  0033d	2a d1		 sub	 dl, cl
  0033f	30 54 05 e0	 xor	 BYTE PTR __k$539610[ebp+eax], dl
  00343	40		 inc	 eax
  00344	83 f8 12	 cmp	 eax, 18			; 00000012H
  00347	7c e3		 jl	 SHORT $LL1249@LoadProper
  00349	0f 57 c0	 xorps	 xmm0, xmm0
  0034c	51		 push	 ecx
  0034d	8b 8d bc fe ff
	ff		 mov	 ecx, DWORD PTR _rkLoader$GSCopy$[ebp]
  00353	8d 45 e0	 lea	 eax, DWORD PTR __k$539610[ebp]
  00356	f3 0f 11 04 24	 movss	 DWORD PTR [esp], xmm0
  0035b	50		 push	 eax
  0035c	ff 15 00 00 00
	00		 call	 DWORD PTR __imp_?LoadFloat@ioINILoader@@QAEMPBDM@Z
  00362	d9 9d b8 fe ff
	ff		 fstp	 DWORD PTR _value$539723[ebp]
  00368	8d 85 b8 fe ff
	ff		 lea	 eax, DWORD PTR _value$539723[ebp]
  0036e	50		 push	 eax
  0036f	8d 8b 1c 09 00
	00		 lea	 ecx, DWORD PTR [ebx+2332]
  00375	e8 00 00 00 00	 call	 ?EncryptValueToPool@?$CEncrypt@M@@AAEXPBD@Z ; CEncrypt<float>::EncryptValueToPool
  0037a	6a 03		 push	 3

; 67   : 
; 68   : 	m_dwTraceDuration = (DWORD)rkLoader.LoadInt_e( "trace_duration", 0 );

  0037c	c7 45 e4 99 9e
	8a 89		 mov	 DWORD PTR __k$539805[ebp], -1987404135 ; 898a9e99H
  00383	c7 45 e8 88 b3
	8f 9f		 mov	 DWORD PTR __k$539805[ebp+4], -1617972344 ; 9f8fb388H
  0038a	c7 45 ec 9f 8d
	9f 83		 mov	 DWORD PTR __k$539805[ebp+8], -2086695521 ; 839f8d9fH
  00391	66 c7 45 f0 82
	82		 mov	 WORD PTR __k$539805[ebp+12], 33410 ; 00008282H
  00397	8d 45 e4	 lea	 eax, DWORD PTR __k$539805[ebp]
  0039a	c6 45 f2 00	 mov	 BYTE PTR __k$539805[ebp+14], 0
  0039e	59		 pop	 ecx
$LL1360@LoadProper:
  0039f	31 38		 xor	 DWORD PTR [eax], edi
  003a1	83 c0 04	 add	 eax, 4
  003a4	49		 dec	 ecx
  003a5	75 f8		 jne	 SHORT $LL1360@LoadProper
  003a7	6a 0c		 push	 12			; 0000000cH
  003a9	58		 pop	 eax
$LL1357@LoadProper:
  003aa	8b c8		 mov	 ecx, eax
  003ac	81 e1 03 00 00
	80		 and	 ecx, -2147483645	; 80000003H
  003b2	79 05		 jns	 SHORT $LN2157@LoadProper
  003b4	49		 dec	 ecx
  003b5	83 c9 fc	 or	 ecx, -4			; fffffffcH
  003b8	41		 inc	 ecx
$LN2157@LoadProper:
  003b9	b2 ed		 mov	 dl, -19			; ffffffedH
  003bb	2a d1		 sub	 dl, cl
  003bd	30 54 05 e4	 xor	 BYTE PTR __k$539805[ebp+eax], dl
  003c1	40		 inc	 eax
  003c2	83 f8 0e	 cmp	 eax, 14			; 0000000eH
  003c5	7c e3		 jl	 SHORT $LL1357@LoadProper
  003c7	8b 8d bc fe ff
	ff		 mov	 ecx, DWORD PTR _rkLoader$GSCopy$[ebp]
  003cd	6a 00		 push	 0
  003cf	8d 45 e4	 lea	 eax, DWORD PTR __k$539805[ebp]
  003d2	50		 push	 eax
  003d3	ff d6		 call	 esi
  003d5	89 85 b8 fe ff
	ff		 mov	 DWORD PTR _value$539853[ebp], eax
  003db	8d 85 b8 fe ff
	ff		 lea	 eax, DWORD PTR _value$539853[ebp]
  003e1	50		 push	 eax
  003e2	8d 8b 64 09 00
	00		 lea	 ecx, DWORD PTR [ebx+2404]
  003e8	e8 00 00 00 00	 call	 ?EncryptValueToPool@?$CEncrypt@K@@AAEXPBD@Z ; CEncrypt<unsigned long>::EncryptValueToPool
  003ed	6a 04		 push	 4

; 69   : 
; 70   : 	// Explosion Wait
; 71   : 	m_dwExplosionWaitTime = rkLoader.LoadInt_e( "explosion_wait_time", 0 );

  003ef	c7 45 e0 88 94
	9b 86		 mov	 DWORD PTR __k$539883[ebp], -2036624248 ; 869b9488H
  003f6	c7 45 e4 82 9f
	82 85		 mov	 DWORD PTR __k$539883[ebp+4], -2055037054 ; 85829f82H
  003fd	c7 45 e8 83 b3
	9c 8b		 mov	 DWORD PTR __k$539883[ebp+8], -1952664701 ; 8b9cb383H
  00404	c7 45 ec 84 98
	b4 9e		 mov	 DWORD PTR __k$539883[ebp+12], -1632331644 ; 9eb49884H
  0040b	8d 45 e0	 lea	 eax, DWORD PTR __k$539883[ebp]
  0040e	c7 45 f0 84 81
	8e 00		 mov	 DWORD PTR __k$539883[ebp+16], 9339268 ; 008e8184H
  00415	59		 pop	 ecx
$LL1468@LoadProper:
  00416	31 38		 xor	 DWORD PTR [eax], edi
  00418	83 c0 04	 add	 eax, 4
  0041b	49		 dec	 ecx
  0041c	75 f8		 jne	 SHORT $LL1468@LoadProper
  0041e	6a 10		 push	 16			; 00000010H
  00420	58		 pop	 eax
$LL1465@LoadProper:
  00421	8b c8		 mov	 ecx, eax
  00423	81 e1 03 00 00
	80		 and	 ecx, -2147483645	; 80000003H
  00429	79 05		 jns	 SHORT $LN2158@LoadProper
  0042b	49		 dec	 ecx
  0042c	83 c9 fc	 or	 ecx, -4			; fffffffcH
  0042f	41		 inc	 ecx
$LN2158@LoadProper:
  00430	b2 ed		 mov	 dl, -19			; ffffffedH
  00432	2a d1		 sub	 dl, cl
  00434	30 54 05 e0	 xor	 BYTE PTR __k$539883[ebp+eax], dl
  00438	40		 inc	 eax
  00439	83 f8 13	 cmp	 eax, 19			; 00000013H
  0043c	7c e3		 jl	 SHORT $LL1465@LoadProper
  0043e	8b 8d bc fe ff
	ff		 mov	 ecx, DWORD PTR _rkLoader$GSCopy$[ebp]
  00444	6a 00		 push	 0
  00446	8d 45 e0	 lea	 eax, DWORD PTR __k$539883[ebp]
  00449	50		 push	 eax
  0044a	ff d6		 call	 esi
  0044c	6a 03		 push	 3
  0044e	89 83 9c 09 00
	00		 mov	 DWORD PTR [ebx+2460], eax

; 72   : 
; 73   : 	// Move
; 74   : 	int iCnt = rkLoader.LoadInt_e( "change_dir_cnt", 0 );

  00454	c7 45 e4 8e 84
	8a 84		 mov	 DWORD PTR __k$540060[ebp], -2071296882 ; 848a848eH
  0045b	c7 45 e8 8a 89
	b4 8e		 mov	 DWORD PTR __k$540060[ebp+4], -1900770934 ; 8eb4898aH
  00462	c7 45 ec 84 9e
	b4 89		 mov	 DWORD PTR __k$540060[ebp+8], -1984651644 ; 89b49e84H
  00469	66 c7 45 f0 83
	98		 mov	 WORD PTR __k$540060[ebp+12], 39043 ; 00009883H
  0046f	8d 45 e4	 lea	 eax, DWORD PTR __k$540060[ebp]
  00472	c6 45 f2 00	 mov	 BYTE PTR __k$540060[ebp+14], 0
  00476	59		 pop	 ecx
$LL1574@LoadProper:
  00477	31 38		 xor	 DWORD PTR [eax], edi
  00479	83 c0 04	 add	 eax, 4
  0047c	49		 dec	 ecx
  0047d	75 f8		 jne	 SHORT $LL1574@LoadProper
  0047f	6a 0c		 push	 12			; 0000000cH
  00481	5f		 pop	 edi
$LL1571@LoadProper:
  00482	8b c7		 mov	 eax, edi
  00484	25 03 00 00 80	 and	 eax, -2147483645	; 80000003H
  00489	79 05		 jns	 SHORT $LN2159@LoadProper
  0048b	48		 dec	 eax
  0048c	83 c8 fc	 or	 eax, -4			; fffffffcH
  0048f	40		 inc	 eax
$LN2159@LoadProper:
  00490	b1 ed		 mov	 cl, -19			; ffffffedH
  00492	2a c8		 sub	 cl, al
  00494	30 4c 3d e4	 xor	 BYTE PTR __k$540060[ebp+edi], cl
  00498	47		 inc	 edi
  00499	83 ff 0e	 cmp	 edi, 14			; 0000000eH
  0049c	7c e4		 jl	 SHORT $LL1571@LoadProper
  0049e	8b 8d bc fe ff
	ff		 mov	 ecx, DWORD PTR _rkLoader$GSCopy$[ebp]
  004a4	6a 00		 push	 0
  004a6	8d 45 e4	 lea	 eax, DWORD PTR __k$540060[ebp]
  004a9	50		 push	 eax
  004aa	ff d6		 call	 esi
  004ac	8b f8		 mov	 edi, eax

; 75   : 	if( iCnt <= 0 ) return;

  004ae	85 ff		 test	 edi, edi
  004b0	0f 8e 15 04 00
	00		 jle	 $LN401@LoadProper

; 76   : 
; 77   : 	m_ChangeDirInfoList.clear();

  004b6	8b 83 9c 08 00
	00		 mov	 eax, DWORD PTR [ebx+2204]
  004bc	8b 8b 98 08 00
	00		 mov	 ecx, DWORD PTR [ebx+2200]
  004c2	50		 push	 eax
  004c3	51		 push	 ecx
  004c4	8d 85 b8 fe ff
	ff		 lea	 eax, DWORD PTR $T540166[ebp]
  004ca	50		 push	 eax
  004cb	8d 8b 98 08 00
	00		 lea	 ecx, DWORD PTR [ebx+2200]
  004d1	e8 00 00 00 00	 call	 ?erase@?$vector@UChangeDirInfo@@V?$allocator@UChangeDirInfo@@@std@@@std@@QAE?AV?$_Vector_iterator@V?$_Vector_val@UChangeDirInfo@@V?$allocator@UChangeDirInfo@@@std@@@std@@@2@V?$_Vector_const_iterator@V?$_Vector_val@UChangeDirInfo@@V?$allocator@UChangeDirInfo@@@std@@@std@@@2@0@Z ; std::vector<ChangeDirInfo,std::allocator<ChangeDirInfo> >::erase

; 78   : 	m_ChangeDirInfoList.reserve( iCnt );

  004d6	57		 push	 edi
  004d7	8d 8b 98 08 00
	00		 lea	 ecx, DWORD PTR [ebx+2200]
  004dd	e8 00 00 00 00	 call	 ?reserve@?$vector@UChangeDirInfo@@V?$allocator@UChangeDirInfo@@@std@@@std@@QAEXI@Z ; std::vector<ChangeDirInfo,std::allocator<ChangeDirInfo> >::reserve

; 79   : 
; 80   : 	for( int i=0; i < iCnt; ++i )

  004e2	85 ff		 test	 edi, edi
  004e4	0f 8e 1f 02 00
	00		 jle	 $LN397@LoadProper

; 76   : 
; 77   : 	m_ChangeDirInfoList.clear();

  004ea	c7 85 b0 fe ff
	ff 01 00 00 00	 mov	 DWORD PTR tv16881[ebp], 1
  004f4	89 bd b8 fe ff
	ff		 mov	 DWORD PTR tv4656[ebp], edi
$LL399@LoadProper:

; 81   : 	{
; 82   : 		ChangeDirInfo kInfo;

  004fa	8b 35 00 00 00
	00		 mov	 esi, DWORD PTR __imp_?VEC3_ZERO@ioMath@@2UD3DXVECTOR3@@A
  00500	8d bd d0 fe ff
	ff		 lea	 edi, DWORD PTR _kInfo$530973[ebp+16]
  00506	a5		 movsd
  00507	a5		 movsd
  00508	6a 03		 push	 3
  0050a	a5		 movsd

; 83   : 
; 84   : 		wsprintf_e( szBuf, "change_range%d", i+1 );

  0050b	c7 45 e4 8e 84
	8a 84		 mov	 DWORD PTR ___encStr$530977[ebp], -2071296882 ; 848a848eH
  00512	c7 45 e8 8a 89
	b4 98		 mov	 DWORD PTR ___encStr$530977[ebp+4], -1732998774 ; 98b4898aH
  00519	c7 45 ec 8c 82
	8c 8f		 mov	 DWORD PTR ___encStr$530977[ebp+8], -1886616948 ; 8f8c828cH
  00520	66 c7 45 f0 c8
	88		 mov	 WORD PTR ___encStr$530977[ebp+12], 35016 ; 000088c8H
  00526	8d 45 e4	 lea	 eax, DWORD PTR ___encStr$530977[ebp]
  00529	c6 45 f2 00	 mov	 BYTE PTR ___encStr$530977[ebp+14], 0
  0052d	59		 pop	 ecx
$LL1604@LoadProper:
  0052e	81 30 ed ec eb
	ea		 xor	 DWORD PTR [eax], -353637139 ; eaebecedH
  00534	83 c0 04	 add	 eax, 4
  00537	49		 dec	 ecx
  00538	75 f4		 jne	 SHORT $LL1604@LoadProper
  0053a	6a 0c		 push	 12			; 0000000cH
  0053c	5e		 pop	 esi
$LL1601@LoadProper:
  0053d	8b c6		 mov	 eax, esi
  0053f	25 03 00 00 80	 and	 eax, -2147483645	; 80000003H
  00544	79 05		 jns	 SHORT $LN2160@LoadProper
  00546	48		 dec	 eax
  00547	83 c8 fc	 or	 eax, -4			; fffffffcH
  0054a	40		 inc	 eax
$LN2160@LoadProper:
  0054b	b1 ed		 mov	 cl, -19			; ffffffedH
  0054d	2a c8		 sub	 cl, al
  0054f	30 4c 35 e4	 xor	 BYTE PTR ___encStr$530977[ebp+esi], cl
  00553	46		 inc	 esi
  00554	83 fe 0e	 cmp	 esi, 14			; 0000000eH
  00557	7c e4		 jl	 SHORT $LL1601@LoadProper
  00559	ff b5 b0 fe ff
	ff		 push	 DWORD PTR tv16881[ebp]
  0055f	8b 35 00 00 00
	00		 mov	 esi, DWORD PTR __imp__wsprintfA
  00565	8d 45 e4	 lea	 eax, DWORD PTR ___encStr$530977[ebp]
  00568	50		 push	 eax
  00569	8d 85 dc fe ff
	ff		 lea	 eax, DWORD PTR _szBuf$[ebp]
  0056f	50		 push	 eax
  00570	ff d6		 call	 esi

; 85   : 		kInfo.m_fChangeRange = rkLoader.LoadFloat( szBuf, 0.0f );

  00572	0f 57 c0	 xorps	 xmm0, xmm0
  00575	59		 pop	 ecx
  00576	59		 pop	 ecx
  00577	8b 8d bc fe ff
	ff		 mov	 ecx, DWORD PTR _rkLoader$GSCopy$[ebp]
  0057d	8d 85 dc fe ff
	ff		 lea	 eax, DWORD PTR _szBuf$[ebp]
  00583	f3 0f 11 04 24	 movss	 DWORD PTR [esp], xmm0
  00588	50		 push	 eax
  00589	ff 15 00 00 00
	00		 call	 DWORD PTR __imp_?LoadFloat@ioINILoader@@QAEMPBDM@Z
  0058f	d9 9d c0 fe ff
	ff		 fstp	 DWORD PTR _kInfo$530973[ebp]
  00595	6a 03		 push	 3

; 86   : 
; 87   : 		wsprintf_e( szBuf, "change_speed%d", i+1 );

  00597	c7 45 e4 8e 84
	8a 84		 mov	 DWORD PTR ___encStr$531130[ebp], -2071296882 ; 848a848eH
  0059e	c7 45 e8 8a 89
	b4 99		 mov	 DWORD PTR ___encStr$531130[ebp+4], -1716221558 ; 99b4898aH
  005a5	c7 45 ec 9d 89
	8e 8e		 mov	 DWORD PTR ___encStr$531130[ebp+8], -1903261283 ; 8e8e899dH
  005ac	66 c7 45 f0 c8
	88		 mov	 WORD PTR ___encStr$531130[ebp+12], 35016 ; 000088c8H
  005b2	8d 45 e4	 lea	 eax, DWORD PTR ___encStr$531130[ebp]
  005b5	c6 45 f2 00	 mov	 BYTE PTR ___encStr$531130[ebp+14], 0
  005b9	59		 pop	 ecx
  005ba	bf ed ec eb ea	 mov	 edi, -353637139		; eaebecedH
$LL1612@LoadProper:
  005bf	31 38		 xor	 DWORD PTR [eax], edi
  005c1	83 c0 04	 add	 eax, 4
  005c4	49		 dec	 ecx
  005c5	75 f8		 jne	 SHORT $LL1612@LoadProper
  005c7	6a 0c		 push	 12			; 0000000cH
  005c9	58		 pop	 eax
$LL1609@LoadProper:
  005ca	8b c8		 mov	 ecx, eax
  005cc	81 e1 03 00 00
	80		 and	 ecx, -2147483645	; 80000003H
  005d2	79 05		 jns	 SHORT $LN2161@LoadProper
  005d4	49		 dec	 ecx
  005d5	83 c9 fc	 or	 ecx, -4			; fffffffcH
  005d8	41		 inc	 ecx
$LN2161@LoadProper:
  005d9	b2 ed		 mov	 dl, -19			; ffffffedH
  005db	2a d1		 sub	 dl, cl
  005dd	30 54 05 e4	 xor	 BYTE PTR ___encStr$531130[ebp+eax], dl
  005e1	40		 inc	 eax
  005e2	83 f8 0e	 cmp	 eax, 14			; 0000000eH
  005e5	7c e3		 jl	 SHORT $LL1609@LoadProper
  005e7	ff b5 b0 fe ff
	ff		 push	 DWORD PTR tv16881[ebp]
  005ed	8d 45 e4	 lea	 eax, DWORD PTR ___encStr$531130[ebp]
  005f0	50		 push	 eax
  005f1	8d 85 dc fe ff
	ff		 lea	 eax, DWORD PTR _szBuf$[ebp]
  005f7	50		 push	 eax
  005f8	ff d6		 call	 esi

; 88   : 		kInfo.m_fChangeSpeed = rkLoader.LoadFloat( szBuf, 0.0f );

  005fa	0f 57 c0	 xorps	 xmm0, xmm0
  005fd	59		 pop	 ecx
  005fe	59		 pop	 ecx
  005ff	8b 8d bc fe ff
	ff		 mov	 ecx, DWORD PTR _rkLoader$GSCopy$[ebp]
  00605	8d 85 dc fe ff
	ff		 lea	 eax, DWORD PTR _szBuf$[ebp]
  0060b	f3 0f 11 04 24	 movss	 DWORD PTR [esp], xmm0
  00610	50		 push	 eax
  00611	ff 15 00 00 00
	00		 call	 DWORD PTR __imp_?LoadFloat@ioINILoader@@QAEMPBDM@Z
  00617	d9 9d c4 fe ff
	ff		 fstp	 DWORD PTR _kInfo$530973[ebp+4]
  0061d	6a 04		 push	 4

; 89   : 
; 90   : 		wsprintf_e( szBuf, "change_angle_h%d", i+1 );

  0061f	c7 45 e4 8e 84
	8a 84		 mov	 DWORD PTR ___encStr$531282[ebp], -2071296882 ; 848a848eH
  00626	c7 45 e8 8a 89
	b4 8b		 mov	 DWORD PTR ___encStr$531282[ebp+4], -1951102582 ; 8bb4898aH
  0062d	c7 45 ec 83 8b
	87 8f		 mov	 DWORD PTR ___encStr$531282[ebp+8], -1886942333 ; 8f878b83H
  00634	c7 45 f0 b2 84
	ce 8e		 mov	 DWORD PTR ___encStr$531282[ebp+12], -1899068238 ; 8ece84b2H
  0063b	8d 45 e4	 lea	 eax, DWORD PTR ___encStr$531282[ebp]
  0063e	c6 45 f4 00	 mov	 BYTE PTR ___encStr$531282[ebp+16], 0
  00642	59		 pop	 ecx
$LL1620@LoadProper:
  00643	31 38		 xor	 DWORD PTR [eax], edi
  00645	83 c0 04	 add	 eax, 4
  00648	49		 dec	 ecx
  00649	75 f8		 jne	 SHORT $LL1620@LoadProper
  0064b	ff b5 b0 fe ff
	ff		 push	 DWORD PTR tv16881[ebp]
  00651	8d 45 e4	 lea	 eax, DWORD PTR ___encStr$531282[ebp]
  00654	50		 push	 eax
  00655	8d 85 dc fe ff
	ff		 lea	 eax, DWORD PTR _szBuf$[ebp]
  0065b	50		 push	 eax
  0065c	ff d6		 call	 esi

; 91   : 		kInfo.m_fChangeAngleH = rkLoader.LoadFloat( szBuf, 0.0f );

  0065e	0f 57 c0	 xorps	 xmm0, xmm0
  00661	59		 pop	 ecx
  00662	59		 pop	 ecx
  00663	8b 8d bc fe ff
	ff		 mov	 ecx, DWORD PTR _rkLoader$GSCopy$[ebp]
  00669	8d 85 dc fe ff
	ff		 lea	 eax, DWORD PTR _szBuf$[ebp]
  0066f	f3 0f 11 04 24	 movss	 DWORD PTR [esp], xmm0
  00674	50		 push	 eax
  00675	ff 15 00 00 00
	00		 call	 DWORD PTR __imp_?LoadFloat@ioINILoader@@QAEMPBDM@Z
  0067b	d9 9d c8 fe ff
	ff		 fstp	 DWORD PTR _kInfo$530973[ebp+8]
  00681	6a 04		 push	 4

; 92   : 
; 93   : 		wsprintf_e( szBuf, "change_angle_v%d", i+1 );

  00683	c7 45 e4 8e 84
	8a 84		 mov	 DWORD PTR ___encStr$531434[ebp], -2071296882 ; 848a848eH
  0068a	c7 45 e8 8a 89
	b4 8b		 mov	 DWORD PTR ___encStr$531434[ebp+4], -1951102582 ; 8bb4898aH
  00691	c7 45 ec 83 8b
	87 8f		 mov	 DWORD PTR ___encStr$531434[ebp+8], -1886942333 ; 8f878b83H
  00698	c7 45 f0 b2 9a
	ce 8e		 mov	 DWORD PTR ___encStr$531434[ebp+12], -1899062606 ; 8ece9ab2H
  0069f	8d 45 e4	 lea	 eax, DWORD PTR ___encStr$531434[ebp]
  006a2	c6 45 f4 00	 mov	 BYTE PTR ___encStr$531434[ebp+16], 0
  006a6	59		 pop	 ecx
$LL1628@LoadProper:
  006a7	31 38		 xor	 DWORD PTR [eax], edi
  006a9	83 c0 04	 add	 eax, 4
  006ac	49		 dec	 ecx
  006ad	75 f8		 jne	 SHORT $LL1628@LoadProper
  006af	ff b5 b0 fe ff
	ff		 push	 DWORD PTR tv16881[ebp]
  006b5	8d 45 e4	 lea	 eax, DWORD PTR ___encStr$531434[ebp]
  006b8	50		 push	 eax
  006b9	8d 85 dc fe ff
	ff		 lea	 eax, DWORD PTR _szBuf$[ebp]
  006bf	50		 push	 eax
  006c0	ff d6		 call	 esi

; 94   : 		kInfo.m_fChangeAngleV = rkLoader.LoadFloat( szBuf, 0.0f );

  006c2	0f 57 c0	 xorps	 xmm0, xmm0
  006c5	59		 pop	 ecx
  006c6	59		 pop	 ecx
  006c7	8b 8d bc fe ff
	ff		 mov	 ecx, DWORD PTR _rkLoader$GSCopy$[ebp]
  006cd	8d 85 dc fe ff
	ff		 lea	 eax, DWORD PTR _szBuf$[ebp]
  006d3	f3 0f 11 04 24	 movss	 DWORD PTR [esp], xmm0
  006d8	50		 push	 eax
  006d9	ff 15 00 00 00
	00		 call	 DWORD PTR __imp_?LoadFloat@ioINILoader@@QAEMPBDM@Z
  006df	d9 9d cc fe ff
	ff		 fstp	 DWORD PTR _kInfo$530973[ebp+12]

; 95   : 
; 96   : 		m_ChangeDirInfoList.push_back( kInfo );

  006e5	8d 85 c0 fe ff
	ff		 lea	 eax, DWORD PTR _kInfo$530973[ebp]
  006eb	50		 push	 eax
  006ec	8d 8b 98 08 00
	00		 lea	 ecx, DWORD PTR [ebx+2200]
  006f2	e8 00 00 00 00	 call	 ?push_back@?$vector@UChangeDirInfo@@V?$allocator@UChangeDirInfo@@@std@@@std@@QAEXABUChangeDirInfo@@@Z ; std::vector<ChangeDirInfo,std::allocator<ChangeDirInfo> >::push_back
  006f7	ff 85 b0 fe ff
	ff		 inc	 DWORD PTR tv16881[ebp]
  006fd	ff 8d b8 fe ff
	ff		 dec	 DWORD PTR tv4656[ebp]
  00703	0f 85 f1 fd ff
	ff		 jne	 $LL399@LoadProper
$LN397@LoadProper:

; 97   : 	}
; 98   : 
; 99   : 	std::sort( m_ChangeDirInfoList.begin(), m_ChangeDirInfoList.end(), ChangeDirSort() );

  00709	ff b5 b8 fe ff
	ff		 push	 DWORD PTR $T538707[ebp]
  0070f	8b 83 9c 08 00
	00		 mov	 eax, DWORD PTR [ebx+2204]
  00715	8b 8b 98 08 00
	00		 mov	 ecx, DWORD PTR [ebx+2200]
  0071b	50		 push	 eax
  0071c	51		 push	 ecx
  0071d	e8 00 00 00 00	 call	 ??$sort@V?$_Vector_iterator@V?$_Vector_val@UChangeDirInfo@@V?$allocator@UChangeDirInfo@@@std@@@std@@@std@@VChangeDirSort@@@std@@YAXV?$_Vector_iterator@V?$_Vector_val@UChangeDirInfo@@V?$allocator@UChangeDirInfo@@@std@@@std@@@0@0VChangeDirSort@@@Z ; std::sort<std::_Vector_iterator<std::_Vector_val<ChangeDirInfo,std::allocator<ChangeDirInfo> > >,ChangeDirSort>
  00722	83 c4 0c	 add	 esp, 12			; 0000000cH
  00725	6a 03		 push	 3

; 100  : 
; 101  : 	m_bUseLandMark		= rkLoader.LoadBool_e( "use_land_mark", false );

  00727	c7 45 e8 98 9f
	8e b5		 mov	 DWORD PTR __k$540306[ebp], -1248944232 ; b58e9f98H
  0072e	c7 45 ec 81 8d
	85 8e		 mov	 DWORD PTR __k$540306[ebp+4], -1903850111 ; 8e858d81H
  00735	c7 45 f0 b2 81
	8a 98		 mov	 DWORD PTR __k$540306[ebp+8], -1735753294 ; 988a81b2H
  0073c	8d 45 e8	 lea	 eax, DWORD PTR __k$540306[ebp]
  0073f	66 c7 45 f4 86
	00		 mov	 WORD PTR __k$540306[ebp+12], 134 ; 00000086H
  00745	59		 pop	 ecx
  00746	be ed ec eb ea	 mov	 esi, -353637139		; eaebecedH
$LL1750@LoadProper:
  0074b	31 30		 xor	 DWORD PTR [eax], esi
  0074d	83 c0 04	 add	 eax, 4
  00750	49		 dec	 ecx
  00751	75 f8		 jne	 SHORT $LL1750@LoadProper
  00753	80 75 f4 ed	 xor	 BYTE PTR __k$540306[ebp+12], -19 ; ffffffedH
  00757	51		 push	 ecx
  00758	8b 8d bc fe ff
	ff		 mov	 ecx, DWORD PTR _rkLoader$GSCopy$[ebp]
  0075e	8d 45 e8	 lea	 eax, DWORD PTR __k$540306[ebp]
  00761	50		 push	 eax
  00762	ff 15 00 00 00
	00		 call	 DWORD PTR __imp_?LoadBool@ioINILoader@@QAE_NPBD_N@Z
  00768	88 85 b7 fe ff
	ff		 mov	 BYTE PTR _value$540419[ebp], al
  0076e	8d 85 b7 fe ff
	ff		 lea	 eax, DWORD PTR _value$540419[ebp]
  00774	50		 push	 eax
  00775	8d 8b 00 0a 00
	00		 lea	 ecx, DWORD PTR [ebx+2560]
  0077b	e8 00 00 00 00	 call	 ?EncryptValueToPool@?$CEncrypt@_N@@AAEXPBD@Z ; CEncrypt<bool>::EncryptValueToPool
  00780	6a 05		 push	 5

; 102  : 	rkLoader.LoadString_e( "land_mark_effect_red", "", szBuf, MAX_PATH );

  00782	c7 45 e0 81 8d
	85 8e		 mov	 DWORD PTR __k$540436[ebp], -1903850111 ; 8e858d81H
  00789	c7 45 e4 b2 81
	8a 98		 mov	 DWORD PTR __k$540436[ebp+4], -1735753294 ; 988a81b2H
  00790	c7 45 e8 86 b3
	8e 8c		 mov	 DWORD PTR __k$540436[ebp+8], -1936804986 ; 8c8eb386H
  00797	c7 45 ec 8b 89
	88 9e		 mov	 DWORD PTR __k$540436[ebp+12], -1635219061 ; 9e88898bH
  0079e	c7 45 f0 b2 9e
	8e 8e		 mov	 DWORD PTR __k$540436[ebp+16], -1903255886 ; 8e8e9eb2H
  007a5	8d 45 e0	 lea	 eax, DWORD PTR __k$540436[ebp]
  007a8	c6 45 f4 00	 mov	 BYTE PTR __k$540436[ebp+20], 0
  007ac	59		 pop	 ecx
$LL1858@LoadProper:
  007ad	31 30		 xor	 DWORD PTR [eax], esi
  007af	83 c0 04	 add	 eax, 4
  007b2	49		 dec	 ecx
  007b3	75 f8		 jne	 SHORT $LL1858@LoadProper
  007b5	8b 8d bc fe ff
	ff		 mov	 ecx, DWORD PTR _rkLoader$GSCopy$[ebp]
  007bb	8b 35 00 00 00
	00		 mov	 esi, DWORD PTR __imp_?LoadStringA@ioINILoader@@QAEXPBD0PADH@Z
  007c1	68 04 01 00 00	 push	 260			; 00000104H
  007c6	8d 85 dc fe ff
	ff		 lea	 eax, DWORD PTR _szBuf$[ebp]
  007cc	50		 push	 eax
  007cd	68 00 00 00 00	 push	 OFFSET ??_C@_00CNPNBAHC@?$AA@
  007d2	8d 45 e0	 lea	 eax, DWORD PTR __k$540436[ebp]
  007d5	50		 push	 eax
  007d6	ff d6		 call	 esi

; 103  : 	m_szLandMarkRed = szBuf;

  007d8	8b 3d 00 00 00
	00		 mov	 edi, DWORD PTR __imp_??4ioHashString@@QAEAAV0@PBD@Z
  007de	8d 85 dc fe ff
	ff		 lea	 eax, DWORD PTR _szBuf$[ebp]
  007e4	50		 push	 eax
  007e5	8d 8b 30 0a 00
	00		 lea	 ecx, DWORD PTR [ebx+2608]
  007eb	ff d7		 call	 edi
  007ed	6a 05		 push	 5

; 104  : 	rkLoader.LoadString_e( "land_mark_effect_blue", "", szBuf, MAX_PATH );

  007ef	c7 45 e0 81 8d
	85 8e		 mov	 DWORD PTR __k$540561[ebp], -1903850111 ; 8e858d81H
  007f6	c7 45 e4 b2 81
	8a 98		 mov	 DWORD PTR __k$540561[ebp+4], -1735753294 ; 988a81b2H
  007fd	c7 45 e8 86 b3
	8e 8c		 mov	 DWORD PTR __k$540561[ebp+8], -1936804986 ; 8c8eb386H
  00804	c7 45 ec 8b 89
	88 9e		 mov	 DWORD PTR __k$540561[ebp+12], -1635219061 ; 9e88898bH
  0080b	c7 45 f0 b2 8e
	87 9f		 mov	 DWORD PTR __k$540561[ebp+16], -1618506062 ; 9f878eb2H
  00812	8d 45 e0	 lea	 eax, DWORD PTR __k$540561[ebp]
  00815	66 c7 45 f4 88
	00		 mov	 WORD PTR __k$540561[ebp+20], 136 ; 00000088H
  0081b	59		 pop	 ecx
$LL1964@LoadProper:
  0081c	81 30 ed ec eb
	ea		 xor	 DWORD PTR [eax], -353637139 ; eaebecedH
  00822	83 c0 04	 add	 eax, 4
  00825	49		 dec	 ecx
  00826	75 f4		 jne	 SHORT $LL1964@LoadProper
  00828	8b 8d bc fe ff
	ff		 mov	 ecx, DWORD PTR _rkLoader$GSCopy$[ebp]
  0082e	80 75 f4 ed	 xor	 BYTE PTR __k$540561[ebp+20], -19 ; ffffffedH
  00832	68 04 01 00 00	 push	 260			; 00000104H
  00837	8d 85 dc fe ff
	ff		 lea	 eax, DWORD PTR _szBuf$[ebp]
  0083d	50		 push	 eax
  0083e	68 00 00 00 00	 push	 OFFSET ??_C@_00CNPNBAHC@?$AA@
  00843	8d 45 e0	 lea	 eax, DWORD PTR __k$540561[ebp]
  00846	50		 push	 eax
  00847	ff d6		 call	 esi

; 105  : 	m_szLandMarkBlue = szBuf;

  00849	8d 85 dc fe ff
	ff		 lea	 eax, DWORD PTR _szBuf$[ebp]
  0084f	50		 push	 eax
  00850	8d 8b 40 0a 00
	00		 lea	 ecx, DWORD PTR [ebx+2624]
  00856	ff d7		 call	 edi
  00858	6a 02		 push	 2

; 106  : 
; 107  : 	rkLoader.LoadString_e( "dead_weapon", "", szBuf, MAX_PATH );

  0085a	c7 45 e8 89 89
	8a 8e		 mov	 DWORD PTR __k$540735[ebp], -1903523447 ; 8e8a8989H
  00861	c7 45 ec b2 9b
	8e 8b		 mov	 DWORD PTR __k$540735[ebp+4], -1953588302 ; 8b8e9bb2H
  00868	8d 45 e8	 lea	 eax, DWORD PTR __k$540735[ebp]
  0086b	c7 45 f0 9d 83
	85 00		 mov	 DWORD PTR __k$540735[ebp+8], 8749981 ; 0085839dH
  00872	59		 pop	 ecx
$LL2070@LoadProper:
  00873	81 30 ed ec eb
	ea		 xor	 DWORD PTR [eax], -353637139 ; eaebecedH
  00879	83 c0 04	 add	 eax, 4
  0087c	49		 dec	 ecx
  0087d	75 f4		 jne	 SHORT $LL2070@LoadProper
  0087f	6a 08		 push	 8
  00881	58		 pop	 eax
$LL2067@LoadProper:
  00882	8b c8		 mov	 ecx, eax
  00884	81 e1 03 00 00
	80		 and	 ecx, -2147483645	; 80000003H
  0088a	79 05		 jns	 SHORT $LN2162@LoadProper
  0088c	49		 dec	 ecx
  0088d	83 c9 fc	 or	 ecx, -4			; fffffffcH
  00890	41		 inc	 ecx
$LN2162@LoadProper:
  00891	b2 ed		 mov	 dl, -19			; ffffffedH
  00893	2a d1		 sub	 dl, cl
  00895	30 54 05 e8	 xor	 BYTE PTR __k$540735[ebp+eax], dl
  00899	40		 inc	 eax
  0089a	83 f8 0b	 cmp	 eax, 11			; 0000000bH
  0089d	7c e3		 jl	 SHORT $LL2067@LoadProper
  0089f	8b 8d bc fe ff
	ff		 mov	 ecx, DWORD PTR _rkLoader$GSCopy$[ebp]
  008a5	68 04 01 00 00	 push	 260			; 00000104H
  008aa	8d 85 dc fe ff
	ff		 lea	 eax, DWORD PTR _szBuf$[ebp]
  008b0	50		 push	 eax
  008b1	68 00 00 00 00	 push	 OFFSET ??_C@_00CNPNBAHC@?$AA@
  008b6	8d 45 e8	 lea	 eax, DWORD PTR __k$540735[ebp]
  008b9	50		 push	 eax
  008ba	ff d6		 call	 esi

; 108  : 	m_szDeadWeapon = szBuf;

  008bc	8d 85 dc fe ff
	ff		 lea	 eax, DWORD PTR _szBuf$[ebp]
  008c2	50		 push	 eax
  008c3	8d 8b 54 0a 00
	00		 lea	 ecx, DWORD PTR [ebx+2644]
  008c9	ff d7		 call	 edi
$LN401@LoadProper:

; 109  : }

  008cb	8b 4d fc	 mov	 ecx, DWORD PTR __$ArrayPad$[ebp]
  008ce	5f		 pop	 edi
  008cf	5e		 pop	 esi
  008d0	33 cd		 xor	 ecx, ebp
  008d2	5b		 pop	 ebx
  008d3	e8 00 00 00 00	 call	 @__security_check_cookie@4
  008d8	c9		 leave
  008d9	c2 04 00	 ret	 4
?LoadProperty@ioTraceWeaponType3@@UAEXAAVioINILoader@@@Z ENDP ; ioTraceWeaponType3::LoadProperty
_TEXT	ENDS
PUBLIC	_pStage$GSCopy$
PUBLIC	__$ArrayPad$
EXTRN	?SetWorldPosition@ioMapEffect@@QAEXABUD3DXVECTOR3@@@Z:PROC ; ioMapEffect::SetWorldPosition
EXTRN	?GetSingleConvertTeam@ioBaseChar@@QAE?AW4TeamType@@XZ:PROC ; ioBaseChar::GetSingleConvertTeam
; Function compile flags: /Ogsp
;	COMDAT ?Process@ioTraceWeaponType3@@UAEXMPAVioPlayStage@@@Z
_TEXT	SEGMENT
tv463 = -44						; size = 4
tv460 = -44						; size = 4
tv457 = -44						; size = 4
tv391 = -44						; size = 4
tv336 = -44						; size = 4
_value$540895 = -37					; size = 1
tv388 = -36						; size = 4
tv287 = -36						; size = 4
_value$540932 = -36					; size = 4
_value$540920 = -36					; size = 4
_pOwner$531820 = -36					; size = 4
_pStage$GSCopy$ = -32					; size = 4
_vPos$531827 = -28					; size = 12
_vPos$531838 = -16					; size = 12
_vScale$531822 = -16					; size = 12
__$ArrayPad$ = -4					; size = 4
_fTimePerSec$ = 8					; size = 4
_pStage$ = 12						; size = 4
?Process@ioTraceWeaponType3@@UAEXMPAVioPlayStage@@@Z PROC ; ioTraceWeaponType3::Process, COMDAT
; _this$ = ecx

; 205  : {

  00000	55		 push	 ebp
  00001	8b ec		 mov	 ebp, esp
  00003	83 ec 2c	 sub	 esp, 44			; 0000002cH
  00006	a1 00 00 00 00	 mov	 eax, DWORD PTR ___security_cookie
  0000b	33 c5		 xor	 eax, ebp
  0000d	89 45 fc	 mov	 DWORD PTR __$ArrayPad$[ebp], eax

; 276  : 	{
; 277  : 	case TS_MOVE:
; 278  : 		OnMove( pStage, fTimePerSec );

  00010	8b 45 0c	 mov	 eax, DWORD PTR _pStage$[ebp]
  00013	53		 push	 ebx
  00014	89 45 e0	 mov	 DWORD PTR _pStage$GSCopy$[ebp], eax
  00017	56		 push	 esi
  00018	8b d9		 mov	 ebx, ecx
  0001a	8d 45 db	 lea	 eax, DWORD PTR _value$540895[ebp]
  0001d	50		 push	 eax
  0001e	8d 8b 00 0a 00
	00		 lea	 ecx, DWORD PTR [ebx+2560]
  00024	e8 00 00 00 00	 call	 ?DecryptValueToPool@?$CEncrypt@_N@@QAEXPA_N@Z ; CEncrypt<bool>::DecryptValueToPool
  00029	80 7d db 00	 cmp	 BYTE PTR _value$540895[ebp], 0
  0002d	0f 84 8b 01 00
	00		 je	 $LN50@Process

; 206  : 	if( m_bUseLandMark )
; 207  : 	{
; 208  : 		if( m_bFirst )

  00033	80 bb 68 0a 00
	00 00		 cmp	 BYTE PTR [ebx+2664], 0
  0003a	57		 push	 edi
  0003b	0f 84 17 01 00
	00		 je	 $LN22@Process

; 209  : 		{
; 210  : 			ioBaseChar *pOwner = GetOwner();

  00041	8b cb		 mov	 ecx, ebx
  00043	e8 00 00 00 00	 call	 ?GetOwner@ioWeapon@@QBEPAVioBaseChar@@XZ ; ioWeapon::GetOwner
  00048	89 45 dc	 mov	 DWORD PTR _pOwner$531820[ebp], eax

; 211  : 			if( pOwner )

  0004b	85 c0		 test	 eax, eax
  0004d	0f 84 fc 00 00
	00		 je	 $LN48@Process

; 212  : 			{
; 213  : 				D3DXVECTOR3 vScale = D3DXVECTOR3( FLOAT1, FLOAT1, FLOAT1 );

  00053	b8 01 00 00 00	 mov	 eax, 1
  00058	8b c8		 mov	 ecx, eax
  0005a	b8 01 00 00 00	 mov	 eax, 1
  0005f	8b d0		 mov	 edx, eax
  00061	b8 01 00 00 00	 mov	 eax, 1
  00066	89 45 d4	 mov	 DWORD PTR tv463[ebp], eax
  00069	db 45 d4	 fild	 DWORD PTR tv463[ebp]
  0006c	85 c0		 test	 eax, eax
  0006e	79 06		 jns	 SHORT $LN53@Process
  00070	d8 05 00 00 00
	00		 fadd	 DWORD PTR __real@4f800000
$LN53@Process:
  00076	89 55 d4	 mov	 DWORD PTR tv460[ebp], edx
  00079	d9 5d f0	 fstp	 DWORD PTR _vScale$531822[ebp]
  0007c	db 45 d4	 fild	 DWORD PTR tv460[ebp]
  0007f	85 d2		 test	 edx, edx
  00081	79 06		 jns	 SHORT $LN54@Process
  00083	d8 05 00 00 00
	00		 fadd	 DWORD PTR __real@4f800000
$LN54@Process:
  00089	89 4d d4	 mov	 DWORD PTR tv457[ebp], ecx
  0008c	d9 5d f4	 fstp	 DWORD PTR _vScale$531822[ebp+4]
  0008f	db 45 d4	 fild	 DWORD PTR tv457[ebp]
  00092	85 c9		 test	 ecx, ecx
  00094	79 06		 jns	 SHORT $LN55@Process
  00096	d8 05 00 00 00
	00		 fadd	 DWORD PTR __real@4f800000
$LN55@Process:

; 214  : 				D3DXVECTOR3 vPos = GetPosition();

  0009c	8b 03		 mov	 eax, DWORD PTR [ebx]
  0009e	d9 5d f8	 fstp	 DWORD PTR _vScale$531822[ebp+8]
  000a1	8b cb		 mov	 ecx, ebx
  000a3	ff 50 70	 call	 DWORD PTR [eax+112]

; 215  : 				vPos.y = pStage->GetMapHeight( vPos.x, vPos.z, NULL, false );

  000a6	0f 57 c0	 xorps	 xmm0, xmm0
  000a9	8b f0		 mov	 esi, eax
  000ab	33 c0		 xor	 eax, eax
  000ad	50		 push	 eax
  000ae	51		 push	 ecx
  000af	f3 0f 11 04 24	 movss	 DWORD PTR [esp], xmm0
  000b4	8d 7d e4	 lea	 edi, DWORD PTR _vPos$531827[ebp]
  000b7	a5		 movsd
  000b8	50		 push	 eax
  000b9	a5		 movsd
  000ba	50		 push	 eax
  000bb	51		 push	 ecx
  000bc	51		 push	 ecx
  000bd	8b 4d e0	 mov	 ecx, DWORD PTR _pStage$GSCopy$[ebp]
  000c0	a5		 movsd
  000c1	f3 0f 10 45 ec	 movss	 xmm0, DWORD PTR _vPos$531827[ebp+8]
  000c6	f3 0f 11 44 24
	04		 movss	 DWORD PTR [esp+4], xmm0
  000cc	f3 0f 10 45 e4	 movss	 xmm0, DWORD PTR _vPos$531827[ebp]
  000d1	f3 0f 11 04 24	 movss	 DWORD PTR [esp], xmm0
  000d6	e8 00 00 00 00	 call	 ?GetMapHeight@ioPlayStage@@QAEMMMPBVioGameEntity@@_NM1@Z ; ioPlayStage::GetMapHeight
  000db	d9 5d e8	 fstp	 DWORD PTR _vPos$531827[ebp+4]

; 216  : 
; 217  : 				ioMapEffect *pMapEffect = NULL;
; 218  : 
; 219  : 				if( pOwner->GetTeam() == TEAM_RED )

  000de	8b 7d dc	 mov	 edi, DWORD PTR _pOwner$531820[ebp]
  000e1	8d 45 dc	 lea	 eax, DWORD PTR _value$540920[ebp]
  000e4	50		 push	 eax
  000e5	8d 8f 90 00 00
	00		 lea	 ecx, DWORD PTR [edi+144]
  000eb	e8 00 00 00 00	 call	 ?DecryptValueToPool@?$CEncrypt@W4TeamType@@@@QAEXPAW4TeamType@@@Z ; CEncrypt<enum TeamType>::DecryptValueToPool
  000f0	83 7d dc 01	 cmp	 DWORD PTR _value$540920[ebp], 1
  000f4	75 10		 jne	 SHORT $LN20@Process
$LN59@Process:

; 220  : 				{
; 221  : 					pMapEffect = pStage->CreateMapEffect( m_szLandMarkRed,  vPos, vScale );

  000f6	8d 45 f0	 lea	 eax, DWORD PTR _vScale$531822[ebp]
  000f9	50		 push	 eax
  000fa	8d 45 e4	 lea	 eax, DWORD PTR _vPos$531827[ebp]
  000fd	50		 push	 eax
  000fe	8d 83 30 0a 00
	00		 lea	 eax, DWORD PTR [ebx+2608]
  00104	eb 2f		 jmp	 SHORT $LN58@Process
$LN20@Process:

; 222  : 				}
; 223  : 				else if( pOwner->GetTeam() == TEAM_BLUE )

  00106	8d 45 dc	 lea	 eax, DWORD PTR _value$540932[ebp]
  00109	50		 push	 eax
  0010a	8d 8f 90 00 00
	00		 lea	 ecx, DWORD PTR [edi+144]
  00110	e8 00 00 00 00	 call	 ?DecryptValueToPool@?$CEncrypt@W4TeamType@@@@QAEXPAW4TeamType@@@Z ; CEncrypt<enum TeamType>::DecryptValueToPool
  00115	83 7d dc 02	 cmp	 DWORD PTR _value$540932[ebp], 2

; 224  : 				{
; 225  : 					pMapEffect = pStage->CreateMapEffect( m_szLandMarkBlue,  vPos, vScale );
; 226  : 				}
; 227  : 				else

  00119	74 0c		 je	 SHORT $LN16@Process

; 228  : 				{
; 229  : 					if( pOwner->GetSingleConvertTeam() == TEAM_RED )

  0011b	8b cf		 mov	 ecx, edi
  0011d	e8 00 00 00 00	 call	 ?GetSingleConvertTeam@ioBaseChar@@QAE?AW4TeamType@@XZ ; ioBaseChar::GetSingleConvertTeam
  00122	83 f8 01	 cmp	 eax, 1

; 230  : 					{
; 231  : 						pMapEffect = pStage->CreateMapEffect( m_szLandMarkRed,  vPos, vScale );
; 232  : 					}
; 233  : 					else

  00125	74 cf		 je	 SHORT $LN59@Process
$LN16@Process:

; 234  : 					{
; 235  : 						pMapEffect = pStage->CreateMapEffect( m_szLandMarkBlue,  vPos, vScale );

  00127	8d 45 f0	 lea	 eax, DWORD PTR _vScale$531822[ebp]
  0012a	50		 push	 eax
  0012b	8d 45 e4	 lea	 eax, DWORD PTR _vPos$531827[ebp]
  0012e	50		 push	 eax
  0012f	8d 83 40 0a 00
	00		 lea	 eax, DWORD PTR [ebx+2624]
$LN58@Process:
  00135	8b 4d e0	 mov	 ecx, DWORD PTR _pStage$GSCopy$[ebp]
  00138	50		 push	 eax
  00139	e8 00 00 00 00	 call	 ?CreateMapEffect@ioPlayStage@@QAEPAVioMapEffect@@ABVioHashString@@ABUD3DXVECTOR3@@1@Z ; ioPlayStage::CreateMapEffect

; 236  : 					}
; 237  : 				}
; 238  : 				
; 239  : 				if( pMapEffect )

  0013e	85 c0		 test	 eax, eax
  00140	74 0d		 je	 SHORT $LN48@Process

; 240  : 				{
; 241  : 					m_dwLandMarkID = pMapEffect->GetUniqueID();

  00142	8b c8		 mov	 ecx, eax
  00144	e8 00 00 00 00	 call	 ?GetUniqueID@ioMapEffect@@QBEKXZ ; ioMapEffect::GetUniqueID
  00149	89 83 50 0a 00
	00		 mov	 DWORD PTR [ebx+2640], eax
$LN48@Process:

; 242  : 				}
; 243  : 			}
; 244  : 			m_bFirst = false;

  0014f	c6 83 68 0a 00
	00 00		 mov	 BYTE PTR [ebx+2664], 0
  00156	eb 65		 jmp	 SHORT $LN52@Process
$LN22@Process:

; 245  : 		}
; 246  : 		else if( m_dwLandMarkID != -1 )

  00158	83 bb 50 0a 00
	00 ff		 cmp	 DWORD PTR [ebx+2640], -1
  0015f	74 5c		 je	 SHORT $LN52@Process

; 247  : 		{
; 248  : 			D3DXVECTOR3 vPos = GetPosition();

  00161	8b 03		 mov	 eax, DWORD PTR [ebx]
  00163	8b cb		 mov	 ecx, ebx
  00165	ff 50 70	 call	 DWORD PTR [eax+112]

; 249  : 			vPos.y = pStage->GetMapHeight( vPos.x, vPos.z, NULL, false );

  00168	0f 57 c0	 xorps	 xmm0, xmm0
  0016b	8b f0		 mov	 esi, eax
  0016d	8d 7d f0	 lea	 edi, DWORD PTR _vPos$531838[ebp]
  00170	a5		 movsd
  00171	a5		 movsd
  00172	a5		 movsd
  00173	33 f6		 xor	 esi, esi
  00175	56		 push	 esi
  00176	51		 push	 ecx
  00177	f3 0f 11 04 24	 movss	 DWORD PTR [esp], xmm0
  0017c	f3 0f 10 45 f8	 movss	 xmm0, DWORD PTR _vPos$531838[ebp+8]
  00181	56		 push	 esi
  00182	56		 push	 esi
  00183	51		 push	 ecx
  00184	51		 push	 ecx
  00185	8b 4d e0	 mov	 ecx, DWORD PTR _pStage$GSCopy$[ebp]
  00188	f3 0f 11 44 24
	04		 movss	 DWORD PTR [esp+4], xmm0
  0018e	f3 0f 10 45 f0	 movss	 xmm0, DWORD PTR _vPos$531838[ebp]
  00193	f3 0f 11 04 24	 movss	 DWORD PTR [esp], xmm0
  00198	e8 00 00 00 00	 call	 ?GetMapHeight@ioPlayStage@@QAEMMMPBVioGameEntity@@_NM1@Z ; ioPlayStage::GetMapHeight
  0019d	d9 5d f4	 fstp	 DWORD PTR _vPos$531838[ebp+4]

; 250  : 
; 251  : 			ioMapEffect *pMapEffect = pStage->FindMapEffect( m_dwLandMarkID );

  001a0	ff b3 50 0a 00
	00		 push	 DWORD PTR [ebx+2640]
  001a6	8b 4d e0	 mov	 ecx, DWORD PTR _pStage$GSCopy$[ebp]
  001a9	e8 00 00 00 00	 call	 ?FindMapEffect@ioPlayStage@@QAEPAVioMapEffect@@K@Z ; ioPlayStage::FindMapEffect

; 252  : 			if( pMapEffect )

  001ae	3b c6		 cmp	 eax, esi
  001b0	74 0b		 je	 SHORT $LN52@Process

; 253  : 			{
; 254  : 				pMapEffect->SetWorldPosition( vPos );

  001b2	8d 4d f0	 lea	 ecx, DWORD PTR _vPos$531838[ebp]
  001b5	51		 push	 ecx
  001b6	8b c8		 mov	 ecx, eax
  001b8	e8 00 00 00 00	 call	 ?SetWorldPosition@ioMapEffect@@QAEXABUD3DXVECTOR3@@@Z ; ioMapEffect::SetWorldPosition
$LN52@Process:
  001bd	5f		 pop	 edi
$LN50@Process:

; 255  : 			}
; 256  : 		}
; 257  : 	}
; 258  : 
; 259  : 	//    
; 260  : 	if( m_dwCreatedTime + GetLiveTime() < FRAMEGETTIME() )

  001be	ff 15 00 00 00
	00		 call	 DWORD PTR __imp_?GetSingleton@ioFrameTimer@@SAAAV1@XZ
  001c4	8b c8		 mov	 ecx, eax
  001c6	ff 15 00 00 00
	00		 call	 DWORD PTR __imp_?GetLoopSec@ioFrameTimer@@QBEKXZ
  001cc	8b f0		 mov	 esi, eax
  001ce	8b 03		 mov	 eax, DWORD PTR [ebx]
  001d0	8b cb		 mov	 ecx, ebx
  001d2	ff 90 04 01 00
	00		 call	 DWORD PTR [eax+260]
  001d8	03 83 d4 04 00
	00		 add	 eax, DWORD PTR [ebx+1236]
  001de	3b c6		 cmp	 eax, esi
  001e0	73 70		 jae	 SHORT $LN9@Process

; 261  : 	{
; 262  : 		if( m_State != TS_WAIT_EXPLOSION && m_State != TS_EXPLOSION )

  001e2	8b 83 94 08 00
	00		 mov	 eax, DWORD PTR [ebx+2196]
  001e8	83 f8 03	 cmp	 eax, 3
  001eb	74 65		 je	 SHORT $LN9@Process
  001ed	83 f8 04	 cmp	 eax, 4
  001f0	74 60		 je	 SHORT $LN9@Process

; 263  : 		{
; 264  : 			UpdateWorldAttackBox( fTimePerSec, false );

  001f2	f3 0f 10 45 08	 movss	 xmm0, DWORD PTR _fTimePerSec$[ebp]
  001f7	8b 03		 mov	 eax, DWORD PTR [ebx]
  001f9	33 f6		 xor	 esi, esi
  001fb	56		 push	 esi
  001fc	51		 push	 ecx
  001fd	8b cb		 mov	 ecx, ebx
  001ff	f3 0f 11 04 24	 movss	 DWORD PTR [esp], xmm0
  00204	ff 90 38 01 00
	00		 call	 DWORD PTR [eax+312]

; 265  : 
; 266  : 			if( m_pFireBall )

  0020a	39 b3 a4 09 00
	00		 cmp	 DWORD PTR [ebx+2468], esi
  00210	74 30		 je	 SHORT $LN8@Process

; 267  : 				m_pFireBall->Update( fTimePerSec * FLOAT1000 );

  00212	b8 e8 03 00 00	 mov	 eax, 1000		; 000003e8H
  00217	8b 8b a4 09 00
	00		 mov	 ecx, DWORD PTR [ebx+2468]
  0021d	83 c1 14	 add	 ecx, 20			; 00000014H
  00220	8b 11		 mov	 edx, DWORD PTR [ecx]
  00222	89 45 d4	 mov	 DWORD PTR tv391[ebp], eax
  00225	db 45 d4	 fild	 DWORD PTR tv391[ebp]
  00228	85 c0		 test	 eax, eax
  0022a	79 06		 jns	 SHORT $LN56@Process
  0022c	d8 05 00 00 00
	00		 fadd	 DWORD PTR __real@4f800000
$LN56@Process:
  00232	d8 4d 08	 fmul	 DWORD PTR _fTimePerSec$[ebp]
  00235	51		 push	 ecx
  00236	d9 5d dc	 fstp	 DWORD PTR tv388[ebp]
  00239	d9 45 dc	 fld	 DWORD PTR tv388[ebp]
  0023c	d9 1c 24	 fstp	 DWORD PTR [esp]
  0023f	ff 52 40	 call	 DWORD PTR [edx+64]
$LN8@Process:

; 268  : 
; 269  : 			SetExplosionWaitState( pStage, false );

  00242	56		 push	 esi
  00243	ff 75 e0	 push	 DWORD PTR _pStage$GSCopy$[ebp]
  00246	8b cb		 mov	 ecx, ebx
  00248	e8 00 00 00 00	 call	 ?SetExplosionWaitState@ioTraceWeaponType3@@QAEXPAVioPlayStage@@_N@Z ; ioTraceWeaponType3::SetExplosionWaitState

; 270  : 			return;

  0024d	e9 9a 00 00 00	 jmp	 $LN1@Process
$LN9@Process:

; 271  : 		}
; 272  : 	}
; 273  : 
; 274  : 	//
; 275  : 	switch( m_State )

  00252	8b 83 94 08 00
	00		 mov	 eax, DWORD PTR [ebx+2196]
  00258	83 e8 00	 sub	 eax, 0
  0025b	74 41		 je	 SHORT $LN5@Process
  0025d	48		 dec	 eax
  0025e	48		 dec	 eax
  0025f	74 26		 je	 SHORT $LN4@Process
  00261	48		 dec	 eax
  00262	74 17		 je	 SHORT $LN3@Process
  00264	48		 dec	 eax
  00265	75 4c		 jne	 SHORT $LN6@Process

; 286  : 	case TS_EXPLOSION:
; 287  : 		OnExplosion( fTimePerSec );

  00267	f3 0f 10 45 08	 movss	 xmm0, DWORD PTR _fTimePerSec$[ebp]
  0026c	51		 push	 ecx
  0026d	8b cb		 mov	 ecx, ebx
  0026f	f3 0f 11 04 24	 movss	 DWORD PTR [esp], xmm0
  00274	e8 00 00 00 00	 call	 ?OnExplosion@ioTraceWeaponType3@@IAEXM@Z ; ioTraceWeaponType3::OnExplosion

; 288  : 		break;

  00279	eb 38		 jmp	 SHORT $LN6@Process
$LN3@Process:

; 283  : 	case TS_WAIT_EXPLOSION:
; 284  : 		OnWaitExplosion( pStage );

  0027b	ff 75 e0	 push	 DWORD PTR _pStage$GSCopy$[ebp]
  0027e	8b cb		 mov	 ecx, ebx
  00280	e8 00 00 00 00	 call	 ?OnWaitExplosion@ioTraceWeaponType3@@IAEXPAVioPlayStage@@@Z ; ioTraceWeaponType3::OnWaitExplosion

; 285  : 		break;

  00285	eb 2c		 jmp	 SHORT $LN6@Process
$LN4@Process:

; 279  : 		break;
; 280  : 	case TS_TRACING:
; 281  : 		OnTracing( pStage, fTimePerSec );

  00287	f3 0f 10 45 08	 movss	 xmm0, DWORD PTR _fTimePerSec$[ebp]
  0028c	51		 push	 ecx
  0028d	f3 0f 11 04 24	 movss	 DWORD PTR [esp], xmm0
  00292	ff 75 e0	 push	 DWORD PTR _pStage$GSCopy$[ebp]
  00295	8b cb		 mov	 ecx, ebx
  00297	e8 00 00 00 00	 call	 ?OnTracing@ioTraceWeaponType3@@IAEXPAVioPlayStage@@M@Z ; ioTraceWeaponType3::OnTracing

; 282  : 		break;

  0029c	eb 15		 jmp	 SHORT $LN6@Process
$LN5@Process:

; 276  : 	{
; 277  : 	case TS_MOVE:
; 278  : 		OnMove( pStage, fTimePerSec );

  0029e	f3 0f 10 45 08	 movss	 xmm0, DWORD PTR _fTimePerSec$[ebp]
  002a3	51		 push	 ecx
  002a4	f3 0f 11 04 24	 movss	 DWORD PTR [esp], xmm0
  002a9	ff 75 e0	 push	 DWORD PTR _pStage$GSCopy$[ebp]
  002ac	8b cb		 mov	 ecx, ebx
  002ae	e8 00 00 00 00	 call	 ?OnMove@ioTraceWeaponType3@@IAEXPAVioPlayStage@@M@Z ; ioTraceWeaponType3::OnMove
$LN6@Process:

; 289  : 	}
; 290  : 
; 291  : 	if( m_pFireBall )

  002b3	83 bb a4 09 00
	00 00		 cmp	 DWORD PTR [ebx+2468], 0
  002ba	74 30		 je	 SHORT $LN1@Process

; 292  : 	{
; 293  : 		m_pFireBall->Update( fTimePerSec * FLOAT1000 );

  002bc	b8 e8 03 00 00	 mov	 eax, 1000		; 000003e8H
  002c1	8b 8b a4 09 00
	00		 mov	 ecx, DWORD PTR [ebx+2468]
  002c7	83 c1 14	 add	 ecx, 20			; 00000014H
  002ca	8b 11		 mov	 edx, DWORD PTR [ecx]
  002cc	89 45 d4	 mov	 DWORD PTR tv336[ebp], eax
  002cf	db 45 d4	 fild	 DWORD PTR tv336[ebp]
  002d2	85 c0		 test	 eax, eax
  002d4	79 06		 jns	 SHORT $LN57@Process
  002d6	d8 05 00 00 00
	00		 fadd	 DWORD PTR __real@4f800000
$LN57@Process:
  002dc	d8 4d 08	 fmul	 DWORD PTR _fTimePerSec$[ebp]
  002df	51		 push	 ecx
  002e0	d9 5d dc	 fstp	 DWORD PTR tv287[ebp]
  002e3	d9 45 dc	 fld	 DWORD PTR tv287[ebp]
  002e6	d9 1c 24	 fstp	 DWORD PTR [esp]
  002e9	ff 52 40	 call	 DWORD PTR [edx+64]
$LN1@Process:

; 294  : 	}
; 295  : }

  002ec	8b 4d fc	 mov	 ecx, DWORD PTR __$ArrayPad$[ebp]
  002ef	5e		 pop	 esi
  002f0	33 cd		 xor	 ecx, ebp
  002f2	5b		 pop	 ebx
  002f3	e8 00 00 00 00	 call	 @__security_check_cookie@4
  002f8	c9		 leave
  002f9	c2 08 00	 ret	 8
?Process@ioTraceWeaponType3@@UAEXMPAVioPlayStage@@@Z ENDP ; ioTraceWeaponType3::Process
_TEXT	ENDS
END
