; Listing generated by Microsoft (R) Optimizing Compiler Version 16.00.30319.01 

	TITLE	D:\Lost Saga For Developer\Youtube\Tutorial\Source\src\LSClient\ioTwoMagicCircleSkill.cpp
	.686P
	.XMM
	include listing.inc
	.model	flat

INCLUDELIB MSVCRT
INCLUDELIB OLDNAMES

PUBLIC	?_EEM_DS@?$deque@UD3DXVECTOR3@@V?$allocator@UD3DXVECTOR3@@@std@@@std@@2HB ; std::deque<D3DXVECTOR3,std::allocator<D3DXVECTOR3> >::_EEM_DS
;	COMDAT ?_EEM_DS@?$deque@UD3DXVECTOR3@@V?$allocator@UD3DXVECTOR3@@@std@@@std@@2HB
CONST	SEGMENT
?_EEM_DS@?$deque@UD3DXVECTOR3@@V?$allocator@UD3DXVECTOR3@@@std@@@std@@2HB DD 01H ; std::deque<D3DXVECTOR3,std::allocator<D3DXVECTOR3> >::_EEM_DS
CONST	ENDS
PUBLIC	?return1@@YAIXZ					; return1
; Function compile flags: /Ogsp
; File d:\lost saga for developer\youtube\tutorial\source\src\lsclient\stdafx.h
;	COMDAT ?return1@@YAIXZ
_TEXT	SEGMENT
?return1@@YAIXZ PROC					; return1, COMDAT

; 17   : 	__forceinline unsigned int return1() { __asm mov eax, 1 };

  00000	b8 01 00 00 00	 mov	 eax, 1
  00005	c3		 ret	 0
?return1@@YAIXZ ENDP					; return1
_TEXT	ENDS
PUBLIC	?return100@@YAIXZ				; return100
; Function compile flags: /Ogsp
;	COMDAT ?return100@@YAIXZ
_TEXT	SEGMENT
?return100@@YAIXZ PROC					; return100, COMDAT

; 25   : 	__forceinline unsigned int return100() { __asm mov eax, 100 };

  00000	b8 64 00 00 00	 mov	 eax, 100		; 00000064H
  00005	c3		 ret	 0
?return100@@YAIXZ ENDP					; return100
_TEXT	ENDS
PUBLIC	?GetCharName@ioBaseChar@@QBEABVioHashString@@XZ	; ioBaseChar::GetCharName
; Function compile flags: /Ogsp
; File d:\lost saga for developer\youtube\tutorial\source\src\lsclient\iobasechar.h
;	COMDAT ?GetCharName@ioBaseChar@@QBEABVioHashString@@XZ
_TEXT	SEGMENT
?GetCharName@ioBaseChar@@QBEABVioHashString@@XZ PROC	; ioBaseChar::GetCharName, COMDAT
; _this$ = ecx

; 2594 : 	inline const ioHashString& GetCharName() const { return m_Name; }

  00000	8d 81 d4 02 00
	00		 lea	 eax, DWORD PTR [ecx+724]
  00006	c3		 ret	 0
?GetCharName@ioBaseChar@@QBEABVioHashString@@XZ ENDP	; ioBaseChar::GetCharName
_TEXT	ENDS
PUBLIC	?GetTargetRot@ioBaseChar@@QBEABUD3DXQUATERNION@@XZ ; ioBaseChar::GetTargetRot
; Function compile flags: /Ogsp
;	COMDAT ?GetTargetRot@ioBaseChar@@QBEABUD3DXQUATERNION@@XZ
_TEXT	SEGMENT
?GetTargetRot@ioBaseChar@@QBEABUD3DXQUATERNION@@XZ PROC	; ioBaseChar::GetTargetRot, COMDAT
; _this$ = ecx

; 2599 : 	inline const D3DXQUATERNION& GetTargetRot() const { return m_qtTargetRot; }

  00000	8d 81 a4 06 00
	00		 lea	 eax, DWORD PTR [ecx+1700]
  00006	c3		 ret	 0
?GetTargetRot@ioBaseChar@@QBEABUD3DXQUATERNION@@XZ ENDP	; ioBaseChar::GetTargetRot
_TEXT	ENDS
PUBLIC	_fabsf
EXTRN	__fltused:DWORD
; Function compile flags: /Ogsp
; File c:\program files (x86)\microsoft visual studio 10.0\vc\include\math.h
;	COMDAT _fabsf
_TEXT	SEGMENT
tv129 = 8						; size = 4
__X$ = 8						; size = 4
_fabsf	PROC						; COMDAT

; 395  :         {return ((float)fabs((double)_X)); }

  00000	55		 push	 ebp
  00001	8b ec		 mov	 ebp, esp
  00003	d9 45 08	 fld	 DWORD PTR __X$[ebp]
  00006	d9 e1		 fabs
  00008	d9 5d 08	 fstp	 DWORD PTR tv129[ebp]
  0000b	d9 45 08	 fld	 DWORD PTR tv129[ebp]
  0000e	5d		 pop	 ebp
  0000f	c3		 ret	 0
_fabsf	ENDP
_TEXT	ENDS
PUBLIC	_sqrtf
EXTRN	__CIsqrt:PROC
; Function compile flags: /Ogsp
;	COMDAT _sqrtf
_TEXT	SEGMENT
tv69 = 8						; size = 4
__X$ = 8						; size = 4
_sqrtf	PROC						; COMDAT

; 434  :         {return ((float)sqrt((double)_X)); }

  00000	55		 push	 ebp
  00001	8b ec		 mov	 ebp, esp
  00003	d9 45 08	 fld	 DWORD PTR __X$[ebp]
  00006	e8 00 00 00 00	 call	 __CIsqrt
  0000b	d9 5d 08	 fstp	 DWORD PTR tv69[ebp]
  0000e	d9 45 08	 fld	 DWORD PTR tv69[ebp]
  00011	5d		 pop	 ebp
  00012	c3		 ret	 0
_sqrtf	ENDP
_TEXT	ENDS
PUBLIC	?fabs@@YAMM@Z					; fabs
; Function compile flags: /Ogsp
;	COMDAT ?fabs@@YAMM@Z
_TEXT	SEGMENT
tv131 = 8						; size = 4
__X$ = 8						; size = 4
?fabs@@YAMM@Z PROC					; fabs, COMDAT

; 518  :         {return (fabsf(_X)); }

  00000	55		 push	 ebp
  00001	8b ec		 mov	 ebp, esp
  00003	d9 45 08	 fld	 DWORD PTR __X$[ebp]
  00006	d9 e1		 fabs
  00008	d9 5d 08	 fstp	 DWORD PTR tv131[ebp]
  0000b	d9 45 08	 fld	 DWORD PTR tv131[ebp]
  0000e	5d		 pop	 ebp
  0000f	c3		 ret	 0
?fabs@@YAMM@Z ENDP					; fabs
_TEXT	ENDS
PUBLIC	?StartPreDelayAnimation@ioTwoMagicCircleSkill@@MAE_NPAVioBaseChar@@@Z ; ioTwoMagicCircleSkill::StartPreDelayAnimation
EXTRN	?StartPreDelayAnimation@ioNormalSkill@@MAE_NPAVioBaseChar@@@Z:PROC ; ioNormalSkill::StartPreDelayAnimation
; Function compile flags: /Ogsp
; File d:\lost saga for developer\youtube\tutorial\source\src\lsclient\iotwomagiccircleskill.cpp
;	COMDAT ?StartPreDelayAnimation@ioTwoMagicCircleSkill@@MAE_NPAVioBaseChar@@@Z
_TEXT	SEGMENT
_pChar$ = 8						; size = 4
?StartPreDelayAnimation@ioTwoMagicCircleSkill@@MAE_NPAVioBaseChar@@@Z PROC ; ioTwoMagicCircleSkill::StartPreDelayAnimation, COMDAT
; _this$ = ecx

; 683  : {

  00000	55		 push	 ebp
  00001	8b ec		 mov	 ebp, esp

; 684  : 	if( !ioNormalSkill::StartPreDelayAnimation( pChar ) )

  00003	ff 75 08	 push	 DWORD PTR _pChar$[ebp]
  00006	e8 00 00 00 00	 call	 ?StartPreDelayAnimation@ioNormalSkill@@MAE_NPAVioBaseChar@@@Z ; ioNormalSkill::StartPreDelayAnimation
  0000b	84 c0		 test	 al, al
  0000d	0f 95 c0	 setne	 al

; 685  : 		return false;
; 686  : 
; 687  : 	return true;
; 688  : }

  00010	5d		 pop	 ebp
  00011	c2 04 00	 ret	 4
?StartPreDelayAnimation@ioTwoMagicCircleSkill@@MAE_NPAVioBaseChar@@@Z ENDP ; ioTwoMagicCircleSkill::StartPreDelayAnimation
_TEXT	ENDS
PUBLIC	?CheckUseItemMesh@ioTwoMagicCircleSkill@@UAE_NXZ ; ioTwoMagicCircleSkill::CheckUseItemMesh
; Function compile flags: /Ogsp
;	COMDAT ?CheckUseItemMesh@ioTwoMagicCircleSkill@@UAE_NXZ
_TEXT	SEGMENT
?CheckUseItemMesh@ioTwoMagicCircleSkill@@UAE_NXZ PROC	; ioTwoMagicCircleSkill::CheckUseItemMesh, COMDAT
; _this$ = ecx

; 777  : 	return m_bUseItemMesh;

  00000	8a 81 08 0f 00
	00		 mov	 al, BYTE PTR [ecx+3848]

; 778  : }

  00006	c3		 ret	 0
?CheckUseItemMesh@ioTwoMagicCircleSkill@@UAE_NXZ ENDP	; ioTwoMagicCircleSkill::CheckUseItemMesh
_TEXT	ENDS
PUBLIC	??0D3DXVECTOR3@@QAE@XZ				; D3DXVECTOR3::D3DXVECTOR3
; Function compile flags: /Ogsp
; File c:\program files (x86)\microsoft directx sdk (june 2010)\include\d3dx9math.h
;	COMDAT ??0D3DXVECTOR3@@QAE@XZ
_TEXT	SEGMENT
??0D3DXVECTOR3@@QAE@XZ PROC				; D3DXVECTOR3::D3DXVECTOR3, COMDAT
; _this$ = ecx

; 165  :     D3DXVECTOR3() {};

  00000	8b c1		 mov	 eax, ecx
  00002	c3		 ret	 0
??0D3DXVECTOR3@@QAE@XZ ENDP				; D3DXVECTOR3::D3DXVECTOR3
_TEXT	ENDS
PUBLIC	??0D3DXQUATERNION@@QAE@XZ			; D3DXQUATERNION::D3DXQUATERNION
; Function compile flags: /Ogsp
;	COMDAT ??0D3DXQUATERNION@@QAE@XZ
_TEXT	SEGMENT
??0D3DXQUATERNION@@QAE@XZ PROC				; D3DXQUATERNION::D3DXQUATERNION, COMDAT
; _this$ = ecx

; 429  :     D3DXQUATERNION() {}

  00000	8b c1		 mov	 eax, ecx
  00002	c3		 ret	 0
??0D3DXQUATERNION@@QAE@XZ ENDP				; D3DXQUATERNION::D3DXQUATERNION
_TEXT	ENDS
PUBLIC	__real@3f91df46a2526c7a
PUBLIC	??$DEGtoRAD@M@@YAMM@Z				; DEGtoRAD<float>
;	COMDAT __real@3f91df46a2526c7a
; File d:\lost saga for developer\youtube\tutorial\source\src\lsclient\veryoftenusedefine.h
CONST	SEGMENT
__real@3f91df46a2526c7a DQ 03f91df46a2526c7ar	; 0.0174533
; Function compile flags: /Ogsp
CONST	ENDS
;	COMDAT ??$DEGtoRAD@M@@YAMM@Z
_TEXT	SEGMENT
tv129 = 8						; size = 4
_val$ = 8						; size = 4
??$DEGtoRAD@M@@YAMM@Z PROC				; DEGtoRAD<float>, COMDAT

; 20   : type  DEGtoRAD (type val) {return (type) (val * 0.0174532925199);}

  00000	55		 push	 ebp
  00001	8b ec		 mov	 ebp, esp
  00003	d9 45 08	 fld	 DWORD PTR _val$[ebp]
  00006	dc 0d 00 00 00
	00		 fmul	 QWORD PTR __real@3f91df46a2526c7a
  0000c	d9 5d 08	 fstp	 DWORD PTR tv129[ebp]
  0000f	d9 45 08	 fld	 DWORD PTR tv129[ebp]
  00012	5d		 pop	 ebp
  00013	c3		 ret	 0
??$DEGtoRAD@M@@YAMM@Z ENDP				; DEGtoRAD<float>
_TEXT	ENDS
PUBLIC	??0D3DXVECTOR3@@QAE@MMM@Z			; D3DXVECTOR3::D3DXVECTOR3
; Function compile flags: /Ogsp
; File c:\program files (x86)\microsoft directx sdk (june 2010)\include\d3dx9math.inl
;	COMDAT ??0D3DXVECTOR3@@QAE@MMM@Z
_TEXT	SEGMENT
_fx$ = 8						; size = 4
_fy$ = 12						; size = 4
_fz$ = 16						; size = 4
??0D3DXVECTOR3@@QAE@MMM@Z PROC				; D3DXVECTOR3::D3DXVECTOR3, COMDAT
; _this$ = ecx

; 303  : {

  00000	55		 push	 ebp
  00001	8b ec		 mov	 ebp, esp

; 304  :     x = fx;

  00003	f3 0f 10 45 08	 movss	 xmm0, DWORD PTR _fx$[ebp]
  00008	8b c1		 mov	 eax, ecx
  0000a	f3 0f 11 00	 movss	 DWORD PTR [eax], xmm0

; 305  :     y = fy;

  0000e	f3 0f 10 45 0c	 movss	 xmm0, DWORD PTR _fy$[ebp]
  00013	f3 0f 11 40 04	 movss	 DWORD PTR [eax+4], xmm0

; 306  :     z = fz;

  00018	f3 0f 10 45 10	 movss	 xmm0, DWORD PTR _fz$[ebp]
  0001d	f3 0f 11 40 08	 movss	 DWORD PTR [eax+8], xmm0

; 307  : }

  00022	5d		 pop	 ebp
  00023	c2 0c 00	 ret	 12			; 0000000cH
??0D3DXVECTOR3@@QAE@MMM@Z ENDP				; D3DXVECTOR3::D3DXVECTOR3
_TEXT	ENDS
PUBLIC	??GD3DXVECTOR3@@QBE?AU0@ABU0@@Z			; D3DXVECTOR3::operator-
; Function compile flags: /Ogsp
;	COMDAT ??GD3DXVECTOR3@@QBE?AU0@ABU0@@Z
_TEXT	SEGMENT
___$ReturnUdt$ = 8					; size = 4
_v$ = 12						; size = 4
??GD3DXVECTOR3@@QBE?AU0@ABU0@@Z PROC			; D3DXVECTOR3::operator-, COMDAT
; _this$ = ecx

; 386  : {

  00000	55		 push	 ebp
  00001	8b ec		 mov	 ebp, esp

; 387  :     return D3DXVECTOR3(x - v.x, y - v.y, z - v.z);

  00003	8b 55 0c	 mov	 edx, DWORD PTR _v$[ebp]
  00006	f3 0f 10 01	 movss	 xmm0, DWORD PTR [ecx]
  0000a	f3 0f 10 0a	 movss	 xmm1, DWORD PTR [edx]
  0000e	8b 45 08	 mov	 eax, DWORD PTR ___$ReturnUdt$[ebp]
  00011	0f 5a c0	 cvtps2pd xmm0, xmm0
  00014	0f 5a c9	 cvtps2pd xmm1, xmm1
  00017	f2 0f 5c c1	 subsd	 xmm0, xmm1
  0001b	f3 0f 10 4a 04	 movss	 xmm1, DWORD PTR [edx+4]
  00020	66 0f 5a c0	 cvtpd2ps xmm0, xmm0
  00024	f3 0f 11 00	 movss	 DWORD PTR [eax], xmm0
  00028	f3 0f 10 41 04	 movss	 xmm0, DWORD PTR [ecx+4]
  0002d	0f 5a c0	 cvtps2pd xmm0, xmm0
  00030	0f 5a c9	 cvtps2pd xmm1, xmm1
  00033	f2 0f 5c c1	 subsd	 xmm0, xmm1
  00037	f3 0f 10 4a 08	 movss	 xmm1, DWORD PTR [edx+8]
  0003c	66 0f 5a c0	 cvtpd2ps xmm0, xmm0
  00040	f3 0f 11 40 04	 movss	 DWORD PTR [eax+4], xmm0
  00045	f3 0f 10 41 08	 movss	 xmm0, DWORD PTR [ecx+8]
  0004a	0f 5a c0	 cvtps2pd xmm0, xmm0
  0004d	0f 5a c9	 cvtps2pd xmm1, xmm1
  00050	f2 0f 5c c1	 subsd	 xmm0, xmm1
  00054	66 0f 5a c0	 cvtpd2ps xmm0, xmm0
  00058	f3 0f 11 40 08	 movss	 DWORD PTR [eax+8], xmm0

; 388  : }

  0005d	5d		 pop	 ebp
  0005e	c2 08 00	 ret	 8
??GD3DXVECTOR3@@QBE?AU0@ABU0@@Z ENDP			; D3DXVECTOR3::operator-
_TEXT	ENDS
PUBLIC	?D3DXVec3Length@@YAMPBUD3DXVECTOR3@@@Z		; D3DXVec3Length
; Function compile flags: /Ogsp
;	COMDAT ?D3DXVec3Length@@YAMPBUD3DXVECTOR3@@@Z
_TEXT	SEGMENT
tv169 = 8						; size = 4
tv160 = 8						; size = 4
_pV$ = 8						; size = 4
?D3DXVec3Length@@YAMPBUD3DXVECTOR3@@@Z PROC		; D3DXVec3Length, COMDAT

; 1710 : {

  00000	55		 push	 ebp
  00001	8b ec		 mov	 ebp, esp

; 1711 : #ifdef D3DX_DEBUG
; 1712 :     if(!pV)
; 1713 :         return 0.0f;
; 1714 : #endif
; 1715 : 
; 1716 : #ifdef __cplusplus
; 1717 :     return sqrtf(pV->x * pV->x + pV->y * pV->y + pV->z * pV->z);

  00003	8b 45 08	 mov	 eax, DWORD PTR _pV$[ebp]
  00006	d9 40 04	 fld	 DWORD PTR [eax+4]
  00009	d9 00		 fld	 DWORD PTR [eax]
  0000b	d9 40 08	 fld	 DWORD PTR [eax+8]
  0000e	d9 c1		 fld	 ST(1)
  00010	de ca		 fmulp	 ST(2), ST(0)
  00012	d9 c2		 fld	 ST(2)
  00014	de cb		 fmulp	 ST(3), ST(0)
  00016	d9 c9		 fxch	 ST(1)
  00018	de c2		 faddp	 ST(2), ST(0)
  0001a	d9 c0		 fld	 ST(0)
  0001c	de c9		 fmulp	 ST(1), ST(0)
  0001e	de c1		 faddp	 ST(1), ST(0)
  00020	d9 5d 08	 fstp	 DWORD PTR tv169[ebp]
  00023	d9 45 08	 fld	 DWORD PTR tv169[ebp]
  00026	e8 00 00 00 00	 call	 __CIsqrt
  0002b	d9 5d 08	 fstp	 DWORD PTR tv160[ebp]
  0002e	d9 45 08	 fld	 DWORD PTR tv160[ebp]

; 1718 : #else
; 1719 :     return (FLOAT) sqrt(pV->x * pV->x + pV->y * pV->y + pV->z * pV->z);
; 1720 : #endif
; 1721 : }

  00031	5d		 pop	 ebp
  00032	c3		 ret	 0
?D3DXVec3Length@@YAMPBUD3DXVECTOR3@@@Z ENDP		; D3DXVec3Length
_TEXT	ENDS
PUBLIC	?_DECSTR@@YAXPADH@Z				; _DECSTR
; Function compile flags: /Ogsp
; File d:\lost saga for developer\youtube\tutorial\source\src\lsclient\stringprotect.h
;	COMDAT ?_DECSTR@@YAXPADH@Z
_TEXT	SEGMENT
_s$ = 8							; size = 4
_l$ = 12						; size = 4
?_DECSTR@@YAXPADH@Z PROC				; _DECSTR, COMDAT

; 40   : __forceinline void _DECSTR(char* s, int l){int i=0,l4=(l-1)/4,*p=(int*)s;s[l-1]=0;for(;i<l4;++i)*(p++)^=0xEAEBECED;for(i=l4*4;i<l-1;++i)s[i]^=0xED-i%4;}

  00000	55		 push	 ebp
  00001	8b ec		 mov	 ebp, esp
  00003	8b 4d 0c	 mov	 ecx, DWORD PTR _l$[ebp]
  00006	56		 push	 esi
  00007	8b 75 08	 mov	 esi, DWORD PTR _s$[ebp]
  0000a	57		 push	 edi
  0000b	8d 79 ff	 lea	 edi, DWORD PTR [ecx-1]
  0000e	8b c7		 mov	 eax, edi
  00010	99		 cdq
  00011	83 e2 03	 and	 edx, 3
  00014	03 c2		 add	 eax, edx
  00016	c1 f8 02	 sar	 eax, 2
  00019	8b d6		 mov	 edx, esi
  0001b	c6 44 0e ff 00	 mov	 BYTE PTR [esi+ecx-1], 0
  00020	85 c0		 test	 eax, eax
  00022	7e 0e		 jle	 SHORT $LN4@DECSTR
  00024	8b c8		 mov	 ecx, eax
$LL6@DECSTR:
  00026	81 32 ed ec eb
	ea		 xor	 DWORD PTR [edx], -353637139 ; eaebecedH
  0002c	83 c2 04	 add	 edx, 4
  0002f	49		 dec	 ecx
  00030	75 f4		 jne	 SHORT $LL6@DECSTR
$LN4@DECSTR:
  00032	c1 e0 02	 shl	 eax, 2
  00035	eb 17		 jmp	 SHORT $LN14@DECSTR
$LL3@DECSTR:
  00037	8b c8		 mov	 ecx, eax
  00039	81 e1 03 00 00
	80		 and	 ecx, -2147483645	; 80000003H
  0003f	79 05		 jns	 SHORT $LN13@DECSTR
  00041	49		 dec	 ecx
  00042	83 c9 fc	 or	 ecx, -4			; fffffffcH
  00045	41		 inc	 ecx
$LN13@DECSTR:
  00046	b2 ed		 mov	 dl, -19			; ffffffedH
  00048	2a d1		 sub	 dl, cl
  0004a	30 14 30	 xor	 BYTE PTR [eax+esi], dl
  0004d	40		 inc	 eax
$LN14@DECSTR:
  0004e	3b c7		 cmp	 eax, edi
  00050	7c e5		 jl	 SHORT $LL3@DECSTR
  00052	5f		 pop	 edi
  00053	5e		 pop	 esi
  00054	5d		 pop	 ebp
  00055	c3		 ret	 0
?_DECSTR@@YAXPADH@Z ENDP				; _DECSTR
_TEXT	ENDS
PUBLIC	?GetGroup@ioGameEntity@@QBEPAVioEntityGroup@@XZ	; ioGameEntity::GetGroup
; Function compile flags: /Ogsp
; File d:\lost saga for developer\youtube\tutorial\source\src\lsclient\iogameentity.h
;	COMDAT ?GetGroup@ioGameEntity@@QBEPAVioEntityGroup@@XZ
_TEXT	SEGMENT
?GetGroup@ioGameEntity@@QBEPAVioEntityGroup@@XZ PROC	; ioGameEntity::GetGroup, COMDAT
; _this$ = ecx

; 166  : 	inline ioEntityGroup* GetGroup() const { return m_pGroup; }

  00000	8b 41 04	 mov	 eax, DWORD PTR [ecx+4]
  00003	c3		 ret	 0
?GetGroup@ioGameEntity@@QBEPAVioEntityGroup@@XZ ENDP	; ioGameEntity::GetGroup
_TEXT	ENDS
PUBLIC	?GetOwnerItem@ioSkill@@QBEPAVioItem@@XZ		; ioSkill::GetOwnerItem
; Function compile flags: /Ogsp
; File d:\lost saga for developer\youtube\tutorial\source\src\lsclient\ioskill.h
;	COMDAT ?GetOwnerItem@ioSkill@@QBEPAVioItem@@XZ
_TEXT	SEGMENT
?GetOwnerItem@ioSkill@@QBEPAVioItem@@XZ PROC		; ioSkill::GetOwnerItem, COMDAT
; _this$ = ecx

; 397  : 	inline ioItem *GetOwnerItem() const { return m_pOwnerItem; }

  00000	8b 81 a4 02 00
	00		 mov	 eax, DWORD PTR [ecx+676]
  00006	c3		 ret	 0
?GetOwnerItem@ioSkill@@QBEPAVioItem@@XZ ENDP		; ioSkill::GetOwnerItem
_TEXT	ENDS
PUBLIC	?GetName@ioSkill@@QBEABVioHashString@@XZ	; ioSkill::GetName
; Function compile flags: /Ogsp
;	COMDAT ?GetName@ioSkill@@QBEABVioHashString@@XZ
_TEXT	SEGMENT
?GetName@ioSkill@@QBEABVioHashString@@XZ PROC		; ioSkill::GetName, COMDAT
; _this$ = ecx

; 414  : 	inline const ioHashString& GetName() const { return m_Name; }

  00000	8d 41 24	 lea	 eax, DWORD PTR [ecx+36]
  00003	c3		 ret	 0
?GetName@ioSkill@@QBEABVioHashString@@XZ ENDP		; ioSkill::GetName
_TEXT	ENDS
PUBLIC	??_7?$CEncrypt@H@@6B@				; CEncrypt<int>::`vftable'
PUBLIC	??1?$CEncrypt@H@@UAE@XZ				; CEncrypt<int>::~CEncrypt<int>
PUBLIC	??_R4?$CEncrypt@H@@6B@				; CEncrypt<int>::`RTTI Complete Object Locator'
PUBLIC	??_R0?AV?$CEncrypt@H@@@8			; CEncrypt<int> `RTTI Type Descriptor'
PUBLIC	??_R3?$CEncrypt@H@@8				; CEncrypt<int>::`RTTI Class Hierarchy Descriptor'
PUBLIC	??_R2?$CEncrypt@H@@8				; CEncrypt<int>::`RTTI Base Class Array'
PUBLIC	??_R1A@?0A@EA@?$CEncrypt@H@@8			; CEncrypt<int>::`RTTI Base Class Descriptor at (0,-1,0,64)'
EXTRN	??1ccddaabb@@UAE@XZ:PROC			; ccddaabb::~ccddaabb
EXTRN	??_7type_info@@6B@:QWORD			; type_info::`vftable'
EXTRN	??_E?$CEncrypt@H@@UAEPAXI@Z:PROC		; CEncrypt<int>::`vector deleting destructor'
;	COMDAT ??_R1A@?0A@EA@?$CEncrypt@H@@8
; File d:\lost saga for developer\youtube\tutorial\source\src\lsclient\encryptvalue.h
rdata$r	SEGMENT
??_R1A@?0A@EA@?$CEncrypt@H@@8 DD FLAT:??_R0?AV?$CEncrypt@H@@@8 ; CEncrypt<int>::`RTTI Base Class Descriptor at (0,-1,0,64)'
	DD	00H
	DD	00H
	DD	0ffffffffH
	DD	00H
	DD	040H
	DD	FLAT:??_R3?$CEncrypt@H@@8
rdata$r	ENDS
;	COMDAT ??_R2?$CEncrypt@H@@8
rdata$r	SEGMENT
??_R2?$CEncrypt@H@@8 DD FLAT:??_R1A@?0A@EA@?$CEncrypt@H@@8 ; CEncrypt<int>::`RTTI Base Class Array'
rdata$r	ENDS
;	COMDAT ??_R3?$CEncrypt@H@@8
rdata$r	SEGMENT
??_R3?$CEncrypt@H@@8 DD 00H				; CEncrypt<int>::`RTTI Class Hierarchy Descriptor'
	DD	00H
	DD	01H
	DD	FLAT:??_R2?$CEncrypt@H@@8
rdata$r	ENDS
;	COMDAT ??_R0?AV?$CEncrypt@H@@@8
_DATA	SEGMENT
??_R0?AV?$CEncrypt@H@@@8 DD FLAT:??_7type_info@@6B@	; CEncrypt<int> `RTTI Type Descriptor'
	DD	00H
	DB	'.?AV?$CEncrypt@H@@', 00H
_DATA	ENDS
;	COMDAT ??_R4?$CEncrypt@H@@6B@
rdata$r	SEGMENT
??_R4?$CEncrypt@H@@6B@ DD 00H				; CEncrypt<int>::`RTTI Complete Object Locator'
	DD	00H
	DD	00H
	DD	FLAT:??_R0?AV?$CEncrypt@H@@@8
	DD	FLAT:??_R3?$CEncrypt@H@@8
rdata$r	ENDS
;	COMDAT ??_7?$CEncrypt@H@@6B@
CONST	SEGMENT
??_7?$CEncrypt@H@@6B@ DD FLAT:??_R4?$CEncrypt@H@@6B@	; CEncrypt<int>::`vftable'
	DD	FLAT:??_E?$CEncrypt@H@@UAEPAXI@Z
; Function compile flags: /Ogsp
CONST	ENDS
;	COMDAT ??1?$CEncrypt@H@@UAE@XZ
_TEXT	SEGMENT
??1?$CEncrypt@H@@UAE@XZ PROC				; CEncrypt<int>::~CEncrypt<int>, COMDAT
; _this$ = ecx

; 127  : 	{

  00000	c7 01 00 00 00
	00		 mov	 DWORD PTR [ecx], OFFSET ??_7?$CEncrypt@H@@6B@

; 128  : 	}

  00006	83 c1 0c	 add	 ecx, 12			; 0000000cH
  00009	e9 00 00 00 00	 jmp	 ??1ccddaabb@@UAE@XZ	; ccddaabb::~ccddaabb
??1?$CEncrypt@H@@UAE@XZ ENDP				; CEncrypt<int>::~CEncrypt<int>
_TEXT	ENDS
EXTRN	??3@YAXPAX@Z:PROC				; operator delete
; Function compile flags: /Ogsp
;	COMDAT ??_G?$CEncrypt@H@@UAEPAXI@Z
_TEXT	SEGMENT
___flags$ = 8						; size = 4
??_G?$CEncrypt@H@@UAEPAXI@Z PROC			; CEncrypt<int>::`scalar deleting destructor', COMDAT
; _this$ = ecx
  00000	55		 push	 ebp
  00001	8b ec		 mov	 ebp, esp
  00003	56		 push	 esi
  00004	8b f1		 mov	 esi, ecx
  00006	8d 4e 0c	 lea	 ecx, DWORD PTR [esi+12]
  00009	c7 06 00 00 00
	00		 mov	 DWORD PTR [esi], OFFSET ??_7?$CEncrypt@H@@6B@
  0000f	e8 00 00 00 00	 call	 ??1ccddaabb@@UAE@XZ	; ccddaabb::~ccddaabb
  00014	f6 45 08 01	 test	 BYTE PTR ___flags$[ebp], 1
  00018	74 07		 je	 SHORT $LN1@scalar
  0001a	56		 push	 esi
  0001b	e8 00 00 00 00	 call	 ??3@YAXPAX@Z		; operator delete
  00020	59		 pop	 ecx
$LN1@scalar:
  00021	8b c6		 mov	 eax, esi
  00023	5e		 pop	 esi
  00024	5d		 pop	 ebp
  00025	c2 04 00	 ret	 4
??_G?$CEncrypt@H@@UAEPAXI@Z ENDP			; CEncrypt<int>::`scalar deleting destructor'
_TEXT	ENDS
PUBLIC	?EncryptValueToPool@?$CEncrypt@K@@AAEXPBD@Z	; CEncrypt<unsigned long>::EncryptValueToPool
EXTRN	?EncryptByte@ccddaabb@@QAEXPBDPADH@Z:PROC	; ccddaabb::EncryptByte
; Function compile flags: /Ogsp
;	COMDAT ?EncryptValueToPool@?$CEncrypt@K@@AAEXPBD@Z
_TEXT	SEGMENT
_value$ = 8						; size = 4
?EncryptValueToPool@?$CEncrypt@K@@AAEXPBD@Z PROC	; CEncrypt<unsigned long>::EncryptValueToPool, COMDAT
; _this$ = ecx

; 67   : 	{

  00000	55		 push	 ebp
  00001	8b ec		 mov	 ebp, esp

; 68   : 		m_RC5.EncryptByte( value, m_MemPool, max(m_ValueSize, DEFAULT_ENCRYPT) );

  00003	0f b7 41 06	 movzx	 eax, WORD PTR [ecx+6]
  00007	83 f8 04	 cmp	 eax, 4
  0000a	77 03		 ja	 SHORT $LN4@EncryptVal
  0000c	6a 04		 push	 4
  0000e	58		 pop	 eax
$LN4@EncryptVal:
  0000f	50		 push	 eax
  00010	8d 41 1c	 lea	 eax, DWORD PTR [ecx+28]
  00013	50		 push	 eax
  00014	ff 75 08	 push	 DWORD PTR _value$[ebp]
  00017	83 c1 0c	 add	 ecx, 12			; 0000000cH
  0001a	e8 00 00 00 00	 call	 ?EncryptByte@ccddaabb@@QAEXPBDPADH@Z ; ccddaabb::EncryptByte

; 69   : 		
; 70   : 	}

  0001f	5d		 pop	 ebp
  00020	c2 04 00	 ret	 4
?EncryptValueToPool@?$CEncrypt@K@@AAEXPBD@Z ENDP	; CEncrypt<unsigned long>::EncryptValueToPool
_TEXT	ENDS
PUBLIC	?DecryptValueToPool@?$CEncrypt@_N@@QAEXPA_N@Z	; CEncrypt<bool>::DecryptValueToPool
EXTRN	?DecryptByte@ccddaabb@@QBEXPBDPADH@Z:PROC	; ccddaabb::DecryptByte
; Function compile flags: /Ogsp
;	COMDAT ?DecryptValueToPool@?$CEncrypt@_N@@QAEXPA_N@Z
_TEXT	SEGMENT
_value$ = 8						; size = 4
?DecryptValueToPool@?$CEncrypt@_N@@QAEXPA_N@Z PROC	; CEncrypt<bool>::DecryptValueToPool, COMDAT
; _this$ = ecx

; 219  : 	{

  00000	55		 push	 ebp
  00001	8b ec		 mov	 ebp, esp
  00003	56		 push	 esi

; 220  : 		m_RC5.DecryptByte( m_MemPool, m_TempMem, 4 );

  00004	8d 71 28	 lea	 esi, DWORD PTR [ecx+40]
  00007	6a 04		 push	 4
  00009	8d 41 1c	 lea	 eax, DWORD PTR [ecx+28]
  0000c	56		 push	 esi
  0000d	50		 push	 eax
  0000e	83 c1 0c	 add	 ecx, 12			; 0000000cH
  00011	e8 00 00 00 00	 call	 ?DecryptByte@ccddaabb@@QBEXPBDPADH@Z ; ccddaabb::DecryptByte

; 221  : 		*value = *((bool*)m_TempMem);

  00016	8a 06		 mov	 al, BYTE PTR [esi]
  00018	8b 4d 08	 mov	 ecx, DWORD PTR _value$[ebp]
  0001b	88 01		 mov	 BYTE PTR [ecx], al
  0001d	5e		 pop	 esi

; 222  : 	}

  0001e	5d		 pop	 ebp
  0001f	c2 04 00	 ret	 4
?DecryptValueToPool@?$CEncrypt@_N@@QAEXPA_N@Z ENDP	; CEncrypt<bool>::DecryptValueToPool
_TEXT	ENDS
PUBLIC	?EncryptValueToPool@?$CEncrypt@H@@AAEXPBD@Z	; CEncrypt<int>::EncryptValueToPool
; Function compile flags: /Ogsp
;	COMDAT ?EncryptValueToPool@?$CEncrypt@H@@AAEXPBD@Z
_TEXT	SEGMENT
_value$ = 8						; size = 4
?EncryptValueToPool@?$CEncrypt@H@@AAEXPBD@Z PROC	; CEncrypt<int>::EncryptValueToPool, COMDAT
; _this$ = ecx

; 67   : 	{

  00000	55		 push	 ebp
  00001	8b ec		 mov	 ebp, esp

; 68   : 		m_RC5.EncryptByte( value, m_MemPool, max(m_ValueSize, DEFAULT_ENCRYPT) );

  00003	0f b7 41 06	 movzx	 eax, WORD PTR [ecx+6]
  00007	83 f8 04	 cmp	 eax, 4
  0000a	77 03		 ja	 SHORT $LN4@EncryptVal@2
  0000c	6a 04		 push	 4
  0000e	58		 pop	 eax
$LN4@EncryptVal@2:
  0000f	50		 push	 eax
  00010	8d 41 1c	 lea	 eax, DWORD PTR [ecx+28]
  00013	50		 push	 eax
  00014	ff 75 08	 push	 DWORD PTR _value$[ebp]
  00017	83 c1 0c	 add	 ecx, 12			; 0000000cH
  0001a	e8 00 00 00 00	 call	 ?EncryptByte@ccddaabb@@QAEXPBDPADH@Z ; ccddaabb::EncryptByte

; 69   : 		
; 70   : 	}

  0001f	5d		 pop	 ebp
  00020	c2 04 00	 ret	 4
?EncryptValueToPool@?$CEncrypt@H@@AAEXPBD@Z ENDP	; CEncrypt<int>::EncryptValueToPool
_TEXT	ENDS
PUBLIC	?Init@?$CEncrypt@H@@AAEXXZ			; CEncrypt<int>::Init
EXTRN	?Setup@ccddaabb@@QAEXPBDHH@Z:PROC		; ccddaabb::Setup
EXTRN	__imp__rand:PROC
EXTRN	__imp__timeGetTime@0:PROC
EXTRN	__imp__GetCurrentProcessId@0:PROC
; Function compile flags: /Ogsp
;	COMDAT ?Init@?$CEncrypt@H@@AAEXXZ
_TEXT	SEGMENT
_pid$ = -8						; size = 4
_tick$ = -4						; size = 4
?Init@?$CEncrypt@H@@AAEXXZ PROC				; CEncrypt<int>::Init, COMDAT
; _this$ = ecx

; 73   : 	{

  00000	55		 push	 ebp
  00001	8b ec		 mov	 ebp, esp
  00003	51		 push	 ecx
  00004	51		 push	 ecx
  00005	53		 push	 ebx
  00006	56		 push	 esi
  00007	57		 push	 edi
  00008	8b f1		 mov	 esi, ecx

; 74   : 		DWORD pid = GetCurrentProcessId();

  0000a	ff 15 00 00 00
	00		 call	 DWORD PTR __imp__GetCurrentProcessId@0
  00010	89 45 f8	 mov	 DWORD PTR _pid$[ebp], eax

; 75   : 		DWORD tick = timeGetTime();

  00013	ff 15 00 00 00
	00		 call	 DWORD PTR __imp__timeGetTime@0

; 76   : 		m_ValueSize    = sizeof(type);
; 77   : 		m_MemPoolPos   = (unsigned short)( rand()+pid+tick )%(MAX_MEM_POOL-m_ValueSize);

  00019	8b 3d 00 00 00
	00		 mov	 edi, DWORD PTR __imp__rand
  0001f	89 45 fc	 mov	 DWORD PTR _tick$[ebp], eax
  00022	6a 04		 push	 4
  00024	58		 pop	 eax
  00025	66 89 46 06	 mov	 WORD PTR [esi+6], ax
  00029	ff d7		 call	 edi
  0002b	03 45 f8	 add	 eax, DWORD PTR _pid$[ebp]
  0002e	0f b7 4e 06	 movzx	 ecx, WORD PTR [esi+6]
  00032	03 45 fc	 add	 eax, DWORD PTR _tick$[ebp]
  00035	6a 0c		 push	 12			; 0000000cH
  00037	0f b7 c0	 movzx	 eax, ax
  0003a	5b		 pop	 ebx
  0003b	99		 cdq
  0003c	2b d9		 sub	 ebx, ecx
  0003e	f7 fb		 idiv	 ebx
  00040	66 89 56 04	 mov	 WORD PTR [esi+4], dx

; 78   : 		m_EncryptSeed  = (char)( rand()+pid+tick )%256;

  00044	ff d7		 call	 edi
  00046	02 45 f8	 add	 al, BYTE PTR _pid$[ebp]
  00049	02 45 fc	 add	 al, BYTE PTR _tick$[ebp]
  0004c	0f be c0	 movsx	 eax, al
  0004f	25 ff 00 00 80	 and	 eax, -2147483393	; 800000ffH
  00054	79 07		 jns	 SHORT $LN8@Init
  00056	48		 dec	 eax
  00057	0d 00 ff ff ff	 or	 eax, -256		; ffffff00H
  0005c	40		 inc	 eax
$LN8@Init:
  0005d	88 46 08	 mov	 BYTE PTR [esi+8], al

; 79   : 
; 80   : 		for (int i = 0; i < MAX_MEM_POOL ; i++)

  00060	33 db		 xor	 ebx, ebx
$LL3@Init:

; 81   : 			m_MemPool[i] = (char)( rand()+pid+tick )%256; // 더미

  00062	ff d7		 call	 edi
  00064	02 45 f8	 add	 al, BYTE PTR _pid$[ebp]
  00067	02 45 fc	 add	 al, BYTE PTR _tick$[ebp]
  0006a	0f be c0	 movsx	 eax, al
  0006d	25 ff 00 00 80	 and	 eax, -2147483393	; 800000ffH
  00072	79 07		 jns	 SHORT $LN9@Init
  00074	48		 dec	 eax
  00075	0d 00 ff ff ff	 or	 eax, -256		; ffffff00H
  0007a	40		 inc	 eax
$LN9@Init:
  0007b	88 44 1e 1c	 mov	 BYTE PTR [esi+ebx+28], al
  0007f	43		 inc	 ebx
  00080	83 fb 0c	 cmp	 ebx, 12			; 0000000cH
  00083	7c dd		 jl	 SHORT $LL3@Init

; 82   : 
; 83   : 		//UJ 130913, 최적화: szKey 사용안하도록 간략화
; 84   : 		//char szKey[ccddaabb::KEY_SIZE];//="";
; 85   : 		//for (int i = 0; i < ccddaabb::KEY_SIZE  ; i++)
; 86   : 		//	szKey[i] = (char)( rand()+pid+tick )%256; // 더미
; 87   : 		m_RC5.Setup( NULL, pid, tick );

  00085	ff 75 fc	 push	 DWORD PTR _tick$[ebp]
  00088	8d 4e 0c	 lea	 ecx, DWORD PTR [esi+12]
  0008b	ff 75 f8	 push	 DWORD PTR _pid$[ebp]
  0008e	6a 00		 push	 0
  00090	e8 00 00 00 00	 call	 ?Setup@ccddaabb@@QAEXPBDHH@Z ; ccddaabb::Setup
  00095	5f		 pop	 edi
  00096	5e		 pop	 esi
  00097	5b		 pop	 ebx

; 88   : 
; 89   : #ifdef _NOTUSE
; 90   : 		m_value        = 0;
; 91   : 		EncryptValueToPool((char*)&m_value);
; 92   : 		Debug();
; 93   : #endif
; 94   : 	}

  00098	c9		 leave
  00099	c3		 ret	 0
?Init@?$CEncrypt@H@@AAEXXZ ENDP				; CEncrypt<int>::Init
_TEXT	ENDS
PUBLIC	?DecryptValueToPool@?$CEncrypt@H@@QAEXPAH@Z	; CEncrypt<int>::DecryptValueToPool
; Function compile flags: /Ogsp
;	COMDAT ?DecryptValueToPool@?$CEncrypt@H@@QAEXPAH@Z
_TEXT	SEGMENT
_value$ = 8						; size = 4
?DecryptValueToPool@?$CEncrypt@H@@QAEXPAH@Z PROC	; CEncrypt<int>::DecryptValueToPool, COMDAT
; _this$ = ecx

; 837  : 	{

  00000	55		 push	 ebp
  00001	8b ec		 mov	 ebp, esp
  00003	56		 push	 esi

; 838  : 		m_RC5.DecryptByte( m_MemPool, m_TempMem, 4 );

  00004	8d 71 28	 lea	 esi, DWORD PTR [ecx+40]
  00007	6a 04		 push	 4
  00009	8d 41 1c	 lea	 eax, DWORD PTR [ecx+28]
  0000c	56		 push	 esi
  0000d	50		 push	 eax
  0000e	83 c1 0c	 add	 ecx, 12			; 0000000cH
  00011	e8 00 00 00 00	 call	 ?DecryptByte@ccddaabb@@QBEXPBDPADH@Z ; ccddaabb::DecryptByte

; 839  : 		*value = *((int*)m_TempMem);

  00016	8b 06		 mov	 eax, DWORD PTR [esi]
  00018	8b 4d 08	 mov	 ecx, DWORD PTR _value$[ebp]
  0001b	89 01		 mov	 DWORD PTR [ecx], eax
  0001d	5e		 pop	 esi

; 840  : 	}

  0001e	5d		 pop	 ebp
  0001f	c2 04 00	 ret	 4
?DecryptValueToPool@?$CEncrypt@H@@QAEXPAH@Z ENDP	; CEncrypt<int>::DecryptValueToPool
_TEXT	ENDS
PUBLIC	?DecryptValueToPool@?$CEncrypt@W4TeamType@@@@QAEXPAW4TeamType@@@Z ; CEncrypt<enum TeamType>::DecryptValueToPool
; Function compile flags: /Ogsp
;	COMDAT ?DecryptValueToPool@?$CEncrypt@W4TeamType@@@@QAEXPAW4TeamType@@@Z
_TEXT	SEGMENT
_value$ = 8						; size = 4
?DecryptValueToPool@?$CEncrypt@W4TeamType@@@@QAEXPAW4TeamType@@@Z PROC ; CEncrypt<enum TeamType>::DecryptValueToPool, COMDAT
; _this$ = ecx

; 2959 : 	{

  00000	55		 push	 ebp
  00001	8b ec		 mov	 ebp, esp
  00003	56		 push	 esi

; 2960 : 		m_RC5.DecryptByte( m_MemPool, m_TempMem, sizeof(TeamType) );

  00004	8d 71 28	 lea	 esi, DWORD PTR [ecx+40]
  00007	6a 04		 push	 4
  00009	8d 41 1c	 lea	 eax, DWORD PTR [ecx+28]
  0000c	56		 push	 esi
  0000d	50		 push	 eax
  0000e	83 c1 0c	 add	 ecx, 12			; 0000000cH
  00011	e8 00 00 00 00	 call	 ?DecryptByte@ccddaabb@@QBEXPBDPADH@Z ; ccddaabb::DecryptByte

; 2961 : 		*value = *((TeamType*)m_TempMem);

  00016	8b 06		 mov	 eax, DWORD PTR [esi]
  00018	8b 4d 08	 mov	 ecx, DWORD PTR _value$[ebp]
  0001b	89 01		 mov	 DWORD PTR [ecx], eax
  0001d	5e		 pop	 esi

; 2962 : 	}

  0001e	5d		 pop	 ebp
  0001f	c2 04 00	 ret	 4
?DecryptValueToPool@?$CEncrypt@W4TeamType@@@@QAEXPAW4TeamType@@@Z ENDP ; CEncrypt<enum TeamType>::DecryptValueToPool
_TEXT	ENDS
PUBLIC	??_7ioTwoMagicCircleSkill@@6B@			; ioTwoMagicCircleSkill::`vftable'
PUBLIC	??1ioTwoMagicCircleSkill@@UAE@XZ		; ioTwoMagicCircleSkill::~ioTwoMagicCircleSkill
PUBLIC	??_R4ioTwoMagicCircleSkill@@6B@			; ioTwoMagicCircleSkill::`RTTI Complete Object Locator'
PUBLIC	??_R0?AVioTwoMagicCircleSkill@@@8		; ioTwoMagicCircleSkill `RTTI Type Descriptor'
PUBLIC	??_R3ioTwoMagicCircleSkill@@8			; ioTwoMagicCircleSkill::`RTTI Class Hierarchy Descriptor'
PUBLIC	??_R2ioTwoMagicCircleSkill@@8			; ioTwoMagicCircleSkill::`RTTI Base Class Array'
PUBLIC	??_R1A@?0A@EA@ioTwoMagicCircleSkill@@8		; ioTwoMagicCircleSkill::`RTTI Base Class Descriptor at (0,-1,0,64)'
PUBLIC	??_R1A@?0A@EA@ioNormalSkill@@8			; ioNormalSkill::`RTTI Base Class Descriptor at (0,-1,0,64)'
PUBLIC	??_R0?AVioNormalSkill@@@8			; ioNormalSkill `RTTI Type Descriptor'
PUBLIC	??_R3ioNormalSkill@@8				; ioNormalSkill::`RTTI Class Hierarchy Descriptor'
PUBLIC	??_R2ioNormalSkill@@8				; ioNormalSkill::`RTTI Base Class Array'
PUBLIC	??_R1A@?0A@EA@ioSkill@@8			; ioSkill::`RTTI Base Class Descriptor at (0,-1,0,64)'
PUBLIC	??_R0?AVioSkill@@@8				; ioSkill `RTTI Type Descriptor'
PUBLIC	??_R3ioSkill@@8					; ioSkill::`RTTI Class Hierarchy Descriptor'
PUBLIC	??_R2ioSkill@@8					; ioSkill::`RTTI Base Class Array'
PUBLIC	?LoadProperty@ioTwoMagicCircleSkill@@UAEXAAVioINILoader@@@Z ; ioTwoMagicCircleSkill::LoadProperty
PUBLIC	?Clone@ioTwoMagicCircleSkill@@UAEPAVioSkill@@XZ	; ioTwoMagicCircleSkill::Clone
PUBLIC	?IsProtected@ioTwoMagicCircleSkill@@UBE_NH@Z	; ioTwoMagicCircleSkill::IsProtected
PUBLIC	?GetDefenseSkillBreakeType@ioSkill@@UBE?AW4DefenseBreakType@@XZ ; ioSkill::GetDefenseSkillBreakeType
PUBLIC	?IsSkillMotionEnd@ioTwoMagicCircleSkill@@UBE_NKPAVioBaseChar@@@Z ; ioTwoMagicCircleSkill::IsSkillMotionEnd
PUBLIC	?GetSkillEndNextJumpAmt@ioSkill@@UBEMXZ		; ioSkill::GetSkillEndNextJumpAmt
PUBLIC	?GetSkillEndNextLandRate@ioSkill@@UBEMXZ	; ioSkill::GetSkillEndNextLandRate
PUBLIC	?GetSkillEndNextJumpMustEnable@ioSkill@@UAE?AW4SkillEndJumpType@@XZ ; ioSkill::GetSkillEndNextJumpMustEnable
PUBLIC	?EnableChangeGrapplingTargetPos@ioSkill@@UBE_NXZ ; ioSkill::EnableChangeGrapplingTargetPos
PUBLIC	?OnSkillStart@ioTwoMagicCircleSkill@@UAE_NPAVioBaseChar@@@Z ; ioTwoMagicCircleSkill::OnSkillStart
PUBLIC	?OnProcessState@ioTwoMagicCircleSkill@@UAEXPAVioBaseChar@@PAVioPlayStage@@@Z ; ioTwoMagicCircleSkill::OnProcessState
PUBLIC	?OnSkillEnd@ioTwoMagicCircleSkill@@UAEXPAVioBaseChar@@@Z ; ioTwoMagicCircleSkill::OnSkillEnd
PUBLIC	?ApplyExtraSkillInfo@ioTwoMagicCircleSkill@@UAEXPAVioBaseChar@@PAVioPlayStage@@AAVSP2Packet@@@Z ; ioTwoMagicCircleSkill::ApplyExtraSkillInfo
PUBLIC	?IsInvisibleBottomCircle@ioSkill@@UAE_NPAVioBaseChar@@@Z ; ioSkill::IsInvisibleBottomCircle
PUBLIC	?IsCanJumpingSkill@ioSkill@@UBE_NXZ		; ioSkill::IsCanJumpingSkill
PUBLIC	?IsCanJumpingSkillOnBlowWound@ioSkill@@UBE_NXZ	; ioSkill::IsCanJumpingSkillOnBlowWound
PUBLIC	?IsCanDownSkill@ioSkill@@UBE_NXZ		; ioSkill::IsCanDownSkill
PUBLIC	?IsCanBlowWoundSkill@ioSkill@@UBE_NXZ		; ioSkill::IsCanBlowWoundSkill
PUBLIC	?IsCanWoundSkill@ioSkill@@UBE_NXZ		; ioSkill::IsCanWoundSkill
PUBLIC	?IsUseActiveCnt@ioSkill@@UBE_NXZ		; ioSkill::IsUseActiveCnt
PUBLIC	?GetMaxActiveCnt@ioSkill@@UBEHPAVioBaseChar@@@Z	; ioSkill::GetMaxActiveCnt
PUBLIC	?GetCurActiveCnt@ioSkill@@UBEHPAVioBaseChar@@@Z	; ioSkill::GetCurActiveCnt
EXTRN	??1ioNormalSkill@@UAE@XZ:PROC			; ioNormalSkill::~ioNormalSkill
EXTRN	__imp_??1ioHashString@@QAE@XZ:PROC
EXTRN	___CxxFrameHandler3:PROC
EXTRN	@__security_check_cookie@4:PROC
EXTRN	__EH_epilog3:PROC
EXTRN	__EH_prolog3:PROC
EXTRN	?GetTypeID@ioNormalSkill@@UBEHXZ:PROC		; ioNormalSkill::GetTypeID
EXTRN	?IsCanSwitchSkill@ioSkill@@UBE_NXZ:PROC		; ioSkill::IsCanSwitchSkill
EXTRN	?IsCanSemiSwitchSkill@ioSkill@@UBE_NXZ:PROC	; ioSkill::IsCanSemiSwitchSkill
EXTRN	?IsCanCancelBySkill@ioSkill@@UBE_NPAVioBaseChar@@AAH@Z:PROC ; ioSkill::IsCanCancelBySkill
EXTRN	?IsCanUseZeroHP@ioSkill@@UBE_NPAVioBaseChar@@@Z:PROC ; ioSkill::IsCanUseZeroHP
EXTRN	?IsCanUseSkillWithCrown@ioSkill@@UAE_NPAVioBaseChar@@@Z:PROC ; ioSkill::IsCanUseSkillWithCrown
EXTRN	?IsCanUseBoss@ioSkill@@UBE_NPAVioBaseChar@@@Z:PROC ; ioSkill::IsCanUseBoss
EXTRN	?IsCanUseFootball@ioSkill@@UBE_NXZ:PROC		; ioSkill::IsCanUseFootball
EXTRN	?IsCanUseGangSiMode@ioSkill@@UBE_NXZ:PROC	; ioSkill::IsCanUseGangSiMode
EXTRN	?IsCanUseByWeaponType@ioSkill@@UBE_NPAVioBaseChar@@@Z:PROC ; ioSkill::IsCanUseByWeaponType
EXTRN	?IsCanUseThunderBirdHold@ioSkill@@UBE_NPAVioBaseChar@@@Z:PROC ; ioSkill::IsCanUseThunderBirdHold
EXTRN	?IsCanUseLimitHP@ioSkill@@UBE_NPAVioBaseChar@@@Z:PROC ; ioSkill::IsCanUseLimitHP
EXTRN	?IsCanUseSkill@ioNormalSkill@@UAE_NPAVioBaseChar@@_N@Z:PROC ; ioNormalSkill::IsCanUseSkill
EXTRN	?IsOnOffEnable@ioSkill@@UAE_NXZ:PROC		; ioSkill::IsOnOffEnable
EXTRN	?IsCanDefenseStateSkill@ioSkill@@UAE_NXZ:PROC	; ioSkill::IsCanDefenseStateSkill
EXTRN	?SetDefenseStateSkill@ioSkill@@UAEXPAVioBaseChar@@@Z:PROC ; ioSkill::SetDefenseStateSkill
EXTRN	?HasBuff@ioSkill@@UBE_NH@Z:PROC			; ioSkill::HasBuff
EXTRN	?GetBuffType@ioSkill@@UAEHH@Z:PROC		; ioSkill::GetBuffType
EXTRN	?IsEnableReserve@ioSkill@@UBE_NXZ:PROC		; ioSkill::IsEnableReserve
EXTRN	?IsCharSkipState@ioSkill@@UBE?AW4SkillCharColType@@XZ:PROC ; ioSkill::IsCharSkipState
EXTRN	?IsEntityCollisionSkipState@ioSkill@@UBE_NXZ:PROC ; ioSkill::IsEntityCollisionSkipState
EXTRN	?IsEndState@ioSkill@@UBE_NXZ:PROC		; ioSkill::IsEndState
EXTRN	?IsAttackEndState@ioNormalSkill@@UBE_NXZ:PROC	; ioNormalSkill::IsAttackEndState
EXTRN	?IsJumpState@ioSkill@@UBE_NXZ:PROC		; ioSkill::IsJumpState
EXTRN	?IsDownState@ioSkill@@UBE_NXZ:PROC		; ioSkill::IsDownState
EXTRN	?IsNoDropState@ioSkill@@UBE_NXZ:PROC		; ioSkill::IsNoDropState
EXTRN	?IsCanSendControl@ioSkill@@UBE_NXZ:PROC		; ioSkill::IsCanSendControl
EXTRN	?IsSkipState@ioSkill@@UBE_NXZ:PROC		; ioSkill::IsSkipState
EXTRN	?GetSkillMoveRate@ioSkill@@UBEMXZ:PROC		; ioSkill::GetSkillMoveRate
EXTRN	?SetSkillGrapplingState@ioSkill@@UAE_NPAVioBaseChar@@ABVioHashString@@@Z:PROC ; ioSkill::SetSkillGrapplingState
EXTRN	?GetGrapplingTargetPos@ioSkill@@UAE?AUD3DXVECTOR3@@PAVioBaseChar@@0@Z:PROC ; ioSkill::GetGrapplingTargetPos
EXTRN	?GetGrapplingTargetPos@ioSkill@@UAE?AUD3DXVECTOR3@@PAVioBaseChar@@@Z:PROC ; ioSkill::GetGrapplingTargetPos
EXTRN	?GetSkillWoundGrapplingInfo@ioSkill@@UAE?AUGrapplingSkillWoundedInfo@@XZ:PROC ; ioSkill::GetSkillWoundGrapplingInfo
EXTRN	?SetCreateWeaponDependency@ioSkill@@UAEXPAVioBaseChar@@PAVioPlayStage@@@Z:PROC ; ioSkill::SetCreateWeaponDependency
EXTRN	?SetNextSkillState@ioSkill@@UAEXPAVioBaseChar@@PAVioWeapon@@@Z:PROC ; ioSkill::SetNextSkillState
EXTRN	?OnSkillEndByWounded@ioSkill@@UAEXPAVioBaseChar@@@Z:PROC ; ioSkill::OnSkillEndByWounded
EXTRN	?OnProcessNotUseSkill@ioSkill@@UAEXPAVioBaseChar@@PAVioPlayStage@@@Z:PROC ; ioSkill::OnProcessNotUseSkill
EXTRN	?OnSkillItemRelease@ioSkill@@UAEXPAVioBaseChar@@@Z:PROC ; ioSkill::OnSkillItemRelease
EXTRN	?ApplyAttributeToWeapon@ioSkill@@UAEXPAVioWeapon@@PAVioPlayStage@@@Z:PROC ; ioSkill::ApplyAttributeToWeapon
EXTRN	?ApplyEquipSlotSkillExtraInfo@ioSkill@@UAEXPAVioBaseChar@@PAVioPlayStage@@AAVSP2Packet@@@Z:PROC ; ioSkill::ApplyEquipSlotSkillExtraInfo
EXTRN	?ApplyExtraPassiveSkillInfo@ioSkill@@UAEXPAVioBaseChar@@PAVioPlayStage@@AAVSP2Packet@@@Z:PROC ; ioSkill::ApplyExtraPassiveSkillInfo
EXTRN	?StartPreDelayEffect@ioNormalSkill@@UAEXPAVioBaseChar@@@Z:PROC ; ioNormalSkill::StartPreDelayEffect
EXTRN	?EndPreDelayEffect@ioNormalSkill@@UAEXPAVioBaseChar@@@Z:PROC ; ioNormalSkill::EndPreDelayEffect
EXTRN	?IsUseAutoTargetValue@ioSkill@@UAE_NXZ:PROC	; ioSkill::IsUseAutoTargetValue
EXTRN	?IsAutoTargetDownState@ioSkill@@UAE_NXZ:PROC	; ioSkill::IsAutoTargetDownState
EXTRN	?CheckUseBuff@ioSkill@@UAE_NPAVioBaseChar@@@Z:PROC ; ioSkill::CheckUseBuff
EXTRN	?CheckUseActiveCount@ioSkill@@UAE_NXZ:PROC	; ioSkill::CheckUseActiveCount
EXTRN	?CheckAniRotate@ioSkill@@UAEXPAVioBaseChar@@@Z:PROC ; ioSkill::CheckAniRotate
EXTRN	?IsEnableDashCheck@ioSkill@@UAE_NPAVioBaseChar@@@Z:PROC ; ioSkill::IsEnableDashCheck
EXTRN	?IsEnableMultiActive@ioSkill@@UAE_NPAVioBaseChar@@@Z:PROC ; ioSkill::IsEnableMultiActive
EXTRN	?GetAutoTargetValue@ioSkill@@UAEXAAM00@Z:PROC	; ioSkill::GetAutoTargetValue
EXTRN	?GetSkillGravityRate@ioSkill@@UAEMXZ:PROC	; ioSkill::GetSkillGravityRate
EXTRN	?GetSkillMotionName@ioSkill@@UBEABVioHashString@@XZ:PROC ; ioSkill::GetSkillMotionName
EXTRN	?HasSkillMotion@ioSkill@@UBE_NXZ:PROC		; ioSkill::HasSkillMotion
EXTRN	?GetSkillMotionRate@ioSkill@@UBEMXZ:PROC	; ioSkill::GetSkillMotionRate
EXTRN	?IsPreDelayProtect@ioSkill@@UBE_NXZ:PROC	; ioSkill::IsPreDelayProtect
EXTRN	?GetPreDelayAniName@ioSkill@@UBEABVioHashString@@XZ:PROC ; ioSkill::GetPreDelayAniName
EXTRN	?GetPreDelayTime@ioSkill@@UBEKXZ:PROC		; ioSkill::GetPreDelayTime
EXTRN	?GetPreDelayOwnerEffect@ioSkill@@UBEABVioHashString@@XZ:PROC ; ioSkill::GetPreDelayOwnerEffect
EXTRN	?GetPreDelayOtherEffect@ioSkill@@UBEABVioHashString@@XZ:PROC ; ioSkill::GetPreDelayOtherEffect
EXTRN	?SetCancelSkill@ioSkill@@UAEXPAVioBaseChar@@@Z:PROC ; ioSkill::SetCancelSkill
EXTRN	?ClearAirJump@ioSkill@@MAEXXZ:PROC		; ioSkill::ClearAirJump
EXTRN	?SetAirJump@ioSkill@@MAEXPAVioBaseChar@@HM@Z:PROC ; ioSkill::SetAirJump
EXTRN	?CheckAirJump@ioSkill@@MAEXPAVioBaseChar@@@Z:PROC ; ioSkill::CheckAirJump
EXTRN	?UseActiveCount@ioSkill@@UAE_NPAVioBaseChar@@@Z:PROC ; ioSkill::UseActiveCount
EXTRN	?GetMaxActiveCount@ioSkill@@UAEHPAVioBaseChar@@@Z:PROC ; ioSkill::GetMaxActiveCount
EXTRN	?GetCurActiveCount@ioSkill@@UAEHPAVioBaseChar@@@Z:PROC ; ioSkill::GetCurActiveCount
EXTRN	?HideHPGauge@ioSkill@@UAE_NXZ:PROC		; ioSkill::HideHPGauge
EXTRN	?SetInfoByApplyWeapon@ioSkill@@UAEXPAVioBaseChar@@0K_N@Z:PROC ; ioSkill::SetInfoByApplyWeapon
EXTRN	?SetCollisionByApplySkill@ioSkill@@UAEXXZ:PROC	; ioSkill::SetCollisionByApplySkill
EXTRN	?SetChargingRateForWeapon@ioSkill@@UAEXPAVioWeapon@@@Z:PROC ; ioSkill::SetChargingRateForWeapon
EXTRN	?CheckExceptionCamera@ioSkill@@UAE_NXZ:PROC	; ioSkill::CheckExceptionCamera
EXTRN	?GetExceptionCameraPos@ioSkill@@UAE?AUD3DXVECTOR3@@PAVioBaseChar@@@Z:PROC ; ioSkill::GetExceptionCameraPos
EXTRN	?IsFixedExceptionCamera@ioSkill@@UAE_NXZ:PROC	; ioSkill::IsFixedExceptionCamera
EXTRN	??_EioTwoMagicCircleSkill@@UAEPAXI@Z:PROC	; ioTwoMagicCircleSkill::`vector deleting destructor'
EXTRN	?SetNormalSkill@ioNormalSkill@@MAEXPAVioBaseChar@@@Z:PROC ; ioNormalSkill::SetNormalSkill
;	COMDAT ??_R2ioSkill@@8
rdata$r	SEGMENT
??_R2ioSkill@@8 DD FLAT:??_R1A@?0A@EA@ioSkill@@8	; ioSkill::`RTTI Base Class Array'
rdata$r	ENDS
;	COMDAT ??_R3ioSkill@@8
rdata$r	SEGMENT
??_R3ioSkill@@8 DD 00H					; ioSkill::`RTTI Class Hierarchy Descriptor'
	DD	00H
	DD	01H
	DD	FLAT:??_R2ioSkill@@8
rdata$r	ENDS
;	COMDAT ??_R0?AVioSkill@@@8
_DATA	SEGMENT
??_R0?AVioSkill@@@8 DD FLAT:??_7type_info@@6B@		; ioSkill `RTTI Type Descriptor'
	DD	00H
	DB	'.?AVioSkill@@', 00H
_DATA	ENDS
;	COMDAT ??_R1A@?0A@EA@ioSkill@@8
rdata$r	SEGMENT
??_R1A@?0A@EA@ioSkill@@8 DD FLAT:??_R0?AVioSkill@@@8	; ioSkill::`RTTI Base Class Descriptor at (0,-1,0,64)'
	DD	00H
	DD	00H
	DD	0ffffffffH
	DD	00H
	DD	040H
	DD	FLAT:??_R3ioSkill@@8
rdata$r	ENDS
;	COMDAT ??_R2ioNormalSkill@@8
rdata$r	SEGMENT
??_R2ioNormalSkill@@8 DD FLAT:??_R1A@?0A@EA@ioNormalSkill@@8 ; ioNormalSkill::`RTTI Base Class Array'
	DD	FLAT:??_R1A@?0A@EA@ioSkill@@8
rdata$r	ENDS
;	COMDAT ??_R3ioNormalSkill@@8
rdata$r	SEGMENT
??_R3ioNormalSkill@@8 DD 00H				; ioNormalSkill::`RTTI Class Hierarchy Descriptor'
	DD	00H
	DD	02H
	DD	FLAT:??_R2ioNormalSkill@@8
rdata$r	ENDS
;	COMDAT ??_R0?AVioNormalSkill@@@8
_DATA	SEGMENT
??_R0?AVioNormalSkill@@@8 DD FLAT:??_7type_info@@6B@	; ioNormalSkill `RTTI Type Descriptor'
	DD	00H
	DB	'.?AVioNormalSkill@@', 00H
_DATA	ENDS
;	COMDAT ??_R1A@?0A@EA@ioNormalSkill@@8
rdata$r	SEGMENT
??_R1A@?0A@EA@ioNormalSkill@@8 DD FLAT:??_R0?AVioNormalSkill@@@8 ; ioNormalSkill::`RTTI Base Class Descriptor at (0,-1,0,64)'
	DD	01H
	DD	00H
	DD	0ffffffffH
	DD	00H
	DD	040H
	DD	FLAT:??_R3ioNormalSkill@@8
rdata$r	ENDS
;	COMDAT ??_R1A@?0A@EA@ioTwoMagicCircleSkill@@8
rdata$r	SEGMENT
??_R1A@?0A@EA@ioTwoMagicCircleSkill@@8 DD FLAT:??_R0?AVioTwoMagicCircleSkill@@@8 ; ioTwoMagicCircleSkill::`RTTI Base Class Descriptor at (0,-1,0,64)'
	DD	02H
	DD	00H
	DD	0ffffffffH
	DD	00H
	DD	040H
	DD	FLAT:??_R3ioTwoMagicCircleSkill@@8
rdata$r	ENDS
;	COMDAT ??_R2ioTwoMagicCircleSkill@@8
rdata$r	SEGMENT
??_R2ioTwoMagicCircleSkill@@8 DD FLAT:??_R1A@?0A@EA@ioTwoMagicCircleSkill@@8 ; ioTwoMagicCircleSkill::`RTTI Base Class Array'
	DD	FLAT:??_R1A@?0A@EA@ioNormalSkill@@8
	DD	FLAT:??_R1A@?0A@EA@ioSkill@@8
rdata$r	ENDS
;	COMDAT ??_R3ioTwoMagicCircleSkill@@8
rdata$r	SEGMENT
??_R3ioTwoMagicCircleSkill@@8 DD 00H			; ioTwoMagicCircleSkill::`RTTI Class Hierarchy Descriptor'
	DD	00H
	DD	03H
	DD	FLAT:??_R2ioTwoMagicCircleSkill@@8
rdata$r	ENDS
;	COMDAT ??_R0?AVioTwoMagicCircleSkill@@@8
_DATA	SEGMENT
??_R0?AVioTwoMagicCircleSkill@@@8 DD FLAT:??_7type_info@@6B@ ; ioTwoMagicCircleSkill `RTTI Type Descriptor'
	DD	00H
	DB	'.?AVioTwoMagicCircleSkill@@', 00H
_DATA	ENDS
;	COMDAT ??_R4ioTwoMagicCircleSkill@@6B@
rdata$r	SEGMENT
??_R4ioTwoMagicCircleSkill@@6B@ DD 00H			; ioTwoMagicCircleSkill::`RTTI Complete Object Locator'
	DD	00H
	DD	00H
	DD	FLAT:??_R0?AVioTwoMagicCircleSkill@@@8
	DD	FLAT:??_R3ioTwoMagicCircleSkill@@8
rdata$r	ENDS
;	COMDAT ??_7ioTwoMagicCircleSkill@@6B@
CONST	SEGMENT
??_7ioTwoMagicCircleSkill@@6B@ DD FLAT:??_R4ioTwoMagicCircleSkill@@6B@ ; ioTwoMagicCircleSkill::`vftable'
	DD	FLAT:?LoadProperty@ioTwoMagicCircleSkill@@UAEXAAVioINILoader@@@Z
	DD	FLAT:?Clone@ioTwoMagicCircleSkill@@UAEPAVioSkill@@XZ
	DD	FLAT:?GetTypeID@ioNormalSkill@@UBEHXZ
	DD	FLAT:?IsProtected@ioTwoMagicCircleSkill@@UBE_NH@Z
	DD	FLAT:?IsCanSwitchSkill@ioSkill@@UBE_NXZ
	DD	FLAT:?IsCanSemiSwitchSkill@ioSkill@@UBE_NXZ
	DD	FLAT:?IsCanCancelBySkill@ioSkill@@UBE_NPAVioBaseChar@@AAH@Z
	DD	FLAT:?IsCanUseZeroHP@ioSkill@@UBE_NPAVioBaseChar@@@Z
	DD	FLAT:?IsCanUseSkillWithCrown@ioSkill@@UAE_NPAVioBaseChar@@@Z
	DD	FLAT:?IsCanUseBoss@ioSkill@@UBE_NPAVioBaseChar@@@Z
	DD	FLAT:?IsCanUseFootball@ioSkill@@UBE_NXZ
	DD	FLAT:?IsCanUseGangSiMode@ioSkill@@UBE_NXZ
	DD	FLAT:?IsCanUseByWeaponType@ioSkill@@UBE_NPAVioBaseChar@@@Z
	DD	FLAT:?IsCanUseThunderBirdHold@ioSkill@@UBE_NPAVioBaseChar@@@Z
	DD	FLAT:?IsCanUseLimitHP@ioSkill@@UBE_NPAVioBaseChar@@@Z
	DD	FLAT:?IsCanUseSkill@ioNormalSkill@@UAE_NPAVioBaseChar@@_N@Z
	DD	FLAT:?IsOnOffEnable@ioSkill@@UAE_NXZ
	DD	FLAT:?IsCanDefenseStateSkill@ioSkill@@UAE_NXZ
	DD	FLAT:?SetDefenseStateSkill@ioSkill@@UAEXPAVioBaseChar@@@Z
	DD	FLAT:?GetDefenseSkillBreakeType@ioSkill@@UBE?AW4DefenseBreakType@@XZ
	DD	FLAT:?HasBuff@ioSkill@@UBE_NH@Z
	DD	FLAT:?GetBuffType@ioSkill@@UAEHH@Z
	DD	FLAT:?IsEnableReserve@ioSkill@@UBE_NXZ
	DD	FLAT:?IsSkillMotionEnd@ioTwoMagicCircleSkill@@UBE_NKPAVioBaseChar@@@Z
	DD	FLAT:?IsCharSkipState@ioSkill@@UBE?AW4SkillCharColType@@XZ
	DD	FLAT:?IsEntityCollisionSkipState@ioSkill@@UBE_NXZ
	DD	FLAT:?GetSkillEndNextJumpAmt@ioSkill@@UBEMXZ
	DD	FLAT:?GetSkillEndNextLandRate@ioSkill@@UBEMXZ
	DD	FLAT:?GetSkillEndNextJumpMustEnable@ioSkill@@UAE?AW4SkillEndJumpType@@XZ
	DD	FLAT:?IsEndState@ioSkill@@UBE_NXZ
	DD	FLAT:?IsAttackEndState@ioNormalSkill@@UBE_NXZ
	DD	FLAT:?IsJumpState@ioSkill@@UBE_NXZ
	DD	FLAT:?IsDownState@ioSkill@@UBE_NXZ
	DD	FLAT:?IsNoDropState@ioSkill@@UBE_NXZ
	DD	FLAT:?IsCanSendControl@ioSkill@@UBE_NXZ
	DD	FLAT:?IsSkipState@ioSkill@@UBE_NXZ
	DD	FLAT:?GetSkillMoveRate@ioSkill@@UBEMXZ
	DD	FLAT:?SetSkillGrapplingState@ioSkill@@UAE_NPAVioBaseChar@@ABVioHashString@@@Z
	DD	FLAT:?GetGrapplingTargetPos@ioSkill@@UAE?AUD3DXVECTOR3@@PAVioBaseChar@@0@Z
	DD	FLAT:?GetGrapplingTargetPos@ioSkill@@UAE?AUD3DXVECTOR3@@PAVioBaseChar@@@Z
	DD	FLAT:?EnableChangeGrapplingTargetPos@ioSkill@@UBE_NXZ
	DD	FLAT:?GetSkillWoundGrapplingInfo@ioSkill@@UAE?AUGrapplingSkillWoundedInfo@@XZ
	DD	FLAT:?SetCreateWeaponDependency@ioSkill@@UAEXPAVioBaseChar@@PAVioPlayStage@@@Z
	DD	FLAT:?SetNextSkillState@ioSkill@@UAEXPAVioBaseChar@@PAVioWeapon@@@Z
	DD	FLAT:?OnSkillStart@ioTwoMagicCircleSkill@@UAE_NPAVioBaseChar@@@Z
	DD	FLAT:?OnProcessState@ioTwoMagicCircleSkill@@UAEXPAVioBaseChar@@PAVioPlayStage@@@Z
	DD	FLAT:?OnSkillEndByWounded@ioSkill@@UAEXPAVioBaseChar@@@Z
	DD	FLAT:?OnSkillEnd@ioTwoMagicCircleSkill@@UAEXPAVioBaseChar@@@Z
	DD	FLAT:?OnProcessNotUseSkill@ioSkill@@UAEXPAVioBaseChar@@PAVioPlayStage@@@Z
	DD	FLAT:?OnSkillItemRelease@ioSkill@@UAEXPAVioBaseChar@@@Z
	DD	FLAT:?ApplyAttributeToWeapon@ioSkill@@UAEXPAVioWeapon@@PAVioPlayStage@@@Z
	DD	FLAT:?ApplyExtraSkillInfo@ioTwoMagicCircleSkill@@UAEXPAVioBaseChar@@PAVioPlayStage@@AAVSP2Packet@@@Z
	DD	FLAT:?ApplyEquipSlotSkillExtraInfo@ioSkill@@UAEXPAVioBaseChar@@PAVioPlayStage@@AAVSP2Packet@@@Z
	DD	FLAT:?ApplyExtraPassiveSkillInfo@ioSkill@@UAEXPAVioBaseChar@@PAVioPlayStage@@AAVSP2Packet@@@Z
	DD	FLAT:?StartPreDelayEffect@ioNormalSkill@@UAEXPAVioBaseChar@@@Z
	DD	FLAT:?EndPreDelayEffect@ioNormalSkill@@UAEXPAVioBaseChar@@@Z
	DD	FLAT:?IsUseAutoTargetValue@ioSkill@@UAE_NXZ
	DD	FLAT:?IsAutoTargetDownState@ioSkill@@UAE_NXZ
	DD	FLAT:?CheckUseBuff@ioSkill@@UAE_NPAVioBaseChar@@@Z
	DD	FLAT:?CheckUseItemMesh@ioTwoMagicCircleSkill@@UAE_NXZ
	DD	FLAT:?CheckUseActiveCount@ioSkill@@UAE_NXZ
	DD	FLAT:?CheckAniRotate@ioSkill@@UAEXPAVioBaseChar@@@Z
	DD	FLAT:?IsEnableDashCheck@ioSkill@@UAE_NPAVioBaseChar@@@Z
	DD	FLAT:?IsEnableMultiActive@ioSkill@@UAE_NPAVioBaseChar@@@Z
	DD	FLAT:?IsInvisibleBottomCircle@ioSkill@@UAE_NPAVioBaseChar@@@Z
	DD	FLAT:?GetAutoTargetValue@ioSkill@@UAEXAAM00@Z
	DD	FLAT:?IsCanJumpingSkill@ioSkill@@UBE_NXZ
	DD	FLAT:?IsCanJumpingSkillOnBlowWound@ioSkill@@UBE_NXZ
	DD	FLAT:?IsCanDownSkill@ioSkill@@UBE_NXZ
	DD	FLAT:?IsCanBlowWoundSkill@ioSkill@@UBE_NXZ
	DD	FLAT:?IsCanWoundSkill@ioSkill@@UBE_NXZ
	DD	FLAT:?GetSkillGravityRate@ioSkill@@UAEMXZ
	DD	FLAT:?GetSkillMotionName@ioSkill@@UBEABVioHashString@@XZ
	DD	FLAT:?HasSkillMotion@ioSkill@@UBE_NXZ
	DD	FLAT:?GetSkillMotionRate@ioSkill@@UBEMXZ
	DD	FLAT:?IsPreDelayProtect@ioSkill@@UBE_NXZ
	DD	FLAT:?GetPreDelayAniName@ioSkill@@UBEABVioHashString@@XZ
	DD	FLAT:?GetPreDelayTime@ioSkill@@UBEKXZ
	DD	FLAT:?GetPreDelayOwnerEffect@ioSkill@@UBEABVioHashString@@XZ
	DD	FLAT:?GetPreDelayOtherEffect@ioSkill@@UBEABVioHashString@@XZ
	DD	FLAT:?SetCancelSkill@ioSkill@@UAEXPAVioBaseChar@@@Z
	DD	FLAT:?ClearAirJump@ioSkill@@MAEXXZ
	DD	FLAT:?SetAirJump@ioSkill@@MAEXPAVioBaseChar@@HM@Z
	DD	FLAT:?CheckAirJump@ioSkill@@MAEXPAVioBaseChar@@@Z
	DD	FLAT:?UseActiveCount@ioSkill@@UAE_NPAVioBaseChar@@@Z
	DD	FLAT:?GetMaxActiveCount@ioSkill@@UAEHPAVioBaseChar@@@Z
	DD	FLAT:?GetCurActiveCount@ioSkill@@UAEHPAVioBaseChar@@@Z
	DD	FLAT:?HideHPGauge@ioSkill@@UAE_NXZ
	DD	FLAT:?SetInfoByApplyWeapon@ioSkill@@UAEXPAVioBaseChar@@0K_N@Z
	DD	FLAT:?SetCollisionByApplySkill@ioSkill@@UAEXXZ
	DD	FLAT:?SetChargingRateForWeapon@ioSkill@@UAEXPAVioWeapon@@@Z
	DD	FLAT:?CheckExceptionCamera@ioSkill@@UAE_NXZ
	DD	FLAT:?GetExceptionCameraPos@ioSkill@@UAE?AUD3DXVECTOR3@@PAVioBaseChar@@@Z
	DD	FLAT:?IsFixedExceptionCamera@ioSkill@@UAE_NXZ
	DD	FLAT:?IsUseActiveCnt@ioSkill@@UBE_NXZ
	DD	FLAT:?GetMaxActiveCnt@ioSkill@@UBEHPAVioBaseChar@@@Z
	DD	FLAT:?GetCurActiveCnt@ioSkill@@UBEHPAVioBaseChar@@@Z
	DD	FLAT:??_EioTwoMagicCircleSkill@@UAEPAXI@Z
	DD	FLAT:?StartPreDelayAnimation@ioTwoMagicCircleSkill@@MAE_NPAVioBaseChar@@@Z
	DD	FLAT:?SetNormalSkill@ioNormalSkill@@MAEXPAVioBaseChar@@@Z
CONST	ENDS
;	COMDAT xdata$x
xdata$x	SEGMENT
__ehfuncinfo$??1ioTwoMagicCircleSkill@@UAE@XZ DD 019930522H
	DD	0aH
	DD	FLAT:__unwindtable$??1ioTwoMagicCircleSkill@@UAE@XZ
	DD	2 DUP(00H)
	DD	2 DUP(00H)
	DD	00H
	DD	01H
__unwindtable$??1ioTwoMagicCircleSkill@@UAE@XZ DD 0ffffffffH
	DD	FLAT:__unwindfunclet$??1ioTwoMagicCircleSkill@@UAE@XZ$0
	DD	00H
	DD	FLAT:__unwindfunclet$??1ioTwoMagicCircleSkill@@UAE@XZ$1
	DD	01H
	DD	FLAT:__unwindfunclet$??1ioTwoMagicCircleSkill@@UAE@XZ$2
	DD	02H
	DD	FLAT:__unwindfunclet$??1ioTwoMagicCircleSkill@@UAE@XZ$3
	DD	03H
	DD	FLAT:__unwindfunclet$??1ioTwoMagicCircleSkill@@UAE@XZ$4
	DD	04H
	DD	FLAT:__unwindfunclet$??1ioTwoMagicCircleSkill@@UAE@XZ$5
	DD	05H
	DD	FLAT:__unwindfunclet$??1ioTwoMagicCircleSkill@@UAE@XZ$6
	DD	06H
	DD	FLAT:__unwindfunclet$??1ioTwoMagicCircleSkill@@UAE@XZ$7
	DD	07H
	DD	FLAT:__unwindfunclet$??1ioTwoMagicCircleSkill@@UAE@XZ$8
	DD	08H
	DD	FLAT:__unwindfunclet$??1ioTwoMagicCircleSkill@@UAE@XZ$9
; Function compile flags: /Ogsp
; File d:\lost saga for developer\youtube\tutorial\source\src\lsclient\iotwomagiccircleskill.cpp
xdata$x	ENDS
;	COMDAT ??1ioTwoMagicCircleSkill@@UAE@XZ
_TEXT	SEGMENT
_this$ = -16						; size = 4
__$EHRec$ = -12						; size = 12
??1ioTwoMagicCircleSkill@@UAE@XZ PROC			; ioTwoMagicCircleSkill::~ioTwoMagicCircleSkill, COMDAT
; _this$ = ecx

; 46   : {

  00000	6a 04		 push	 4
  00002	b8 00 00 00 00	 mov	 eax, __ehhandler$??1ioTwoMagicCircleSkill@@UAE@XZ
  00007	e8 00 00 00 00	 call	 __EH_prolog3
  0000c	8b f9		 mov	 edi, ecx
  0000e	89 7d f0	 mov	 DWORD PTR _this$[ebp], edi
  00011	c7 07 00 00 00
	00		 mov	 DWORD PTR [edi], OFFSET ??_7ioTwoMagicCircleSkill@@6B@

; 47   : }

  00017	8b 35 00 00 00
	00		 mov	 esi, DWORD PTR __imp_??1ioHashString@@QAE@XZ
  0001d	8d 8f 9c 10 00
	00		 lea	 ecx, DWORD PTR [edi+4252]
  00023	c7 45 fc 09 00
	00 00		 mov	 DWORD PTR __$EHRec$[ebp+8], 9
  0002a	ff d6		 call	 esi
  0002c	8d 8f 78 10 00
	00		 lea	 ecx, DWORD PTR [edi+4216]
  00032	c6 45 fc 08	 mov	 BYTE PTR __$EHRec$[ebp+8], 8
  00036	ff d6		 call	 esi
  00038	8d 8f 68 10 00
	00		 lea	 ecx, DWORD PTR [edi+4200]
  0003e	c6 45 fc 07	 mov	 BYTE PTR __$EHRec$[ebp+8], 7
  00042	ff d6		 call	 esi
  00044	8d 8f 58 10 00
	00		 lea	 ecx, DWORD PTR [edi+4184]
  0004a	c6 45 fc 06	 mov	 BYTE PTR __$EHRec$[ebp+8], 6
  0004e	ff d6		 call	 esi
  00050	8d 8f 48 10 00
	00		 lea	 ecx, DWORD PTR [edi+4168]
  00056	c6 45 fc 05	 mov	 BYTE PTR __$EHRec$[ebp+8], 5
  0005a	ff d6		 call	 esi
  0005c	8d 8f f0 0f 00
	00		 lea	 ecx, DWORD PTR [edi+4080]
  00062	c6 45 fc 04	 mov	 BYTE PTR __$EHRec$[ebp+8], 4
  00066	ff d6		 call	 esi
  00068	8d 8f bc 0f 00
	00		 lea	 ecx, DWORD PTR [edi+4028]
  0006e	c6 45 fc 03	 mov	 BYTE PTR __$EHRec$[ebp+8], 3
  00072	ff d6		 call	 esi
  00074	8d 8f a4 0f 00
	00		 lea	 ecx, DWORD PTR [edi+4004]
  0007a	c6 45 fc 02	 mov	 BYTE PTR __$EHRec$[ebp+8], 2
  0007e	ff d6		 call	 esi
  00080	8d 8f 90 0f 00
	00		 lea	 ecx, DWORD PTR [edi+3984]
  00086	c6 45 fc 01	 mov	 BYTE PTR __$EHRec$[ebp+8], 1
  0008a	ff d6		 call	 esi
  0008c	8d 8f 64 0f 00
	00		 lea	 ecx, DWORD PTR [edi+3940]
  00092	c6 45 fc 00	 mov	 BYTE PTR __$EHRec$[ebp+8], 0
  00096	c7 87 58 0f 00
	00 00 00 00 00	 mov	 DWORD PTR [edi+3928], OFFSET ??_7?$CEncrypt@H@@6B@
  000a0	e8 00 00 00 00	 call	 ??1ccddaabb@@UAE@XZ	; ccddaabb::~ccddaabb
  000a5	83 4d fc ff	 or	 DWORD PTR __$EHRec$[ebp+8], -1
  000a9	8b cf		 mov	 ecx, edi
  000ab	e8 00 00 00 00	 call	 ??1ioNormalSkill@@UAE@XZ ; ioNormalSkill::~ioNormalSkill
  000b0	e8 00 00 00 00	 call	 __EH_epilog3
  000b5	c3		 ret	 0
_TEXT	ENDS
;	COMDAT text$x
text$x	SEGMENT
__unwindfunclet$??1ioTwoMagicCircleSkill@@UAE@XZ$0:
  00000	8b 4d f0	 mov	 ecx, DWORD PTR _this$[ebp]
  00003	e9 00 00 00 00	 jmp	 ??1ioNormalSkill@@UAE@XZ ; ioNormalSkill::~ioNormalSkill
__unwindfunclet$??1ioTwoMagicCircleSkill@@UAE@XZ$1:
  00008	8b 4d f0	 mov	 ecx, DWORD PTR _this$[ebp]
  0000b	81 c1 58 0f 00
	00		 add	 ecx, 3928		; 00000f58H
  00011	e9 00 00 00 00	 jmp	 ??1?$CEncrypt@H@@UAE@XZ	; CEncrypt<int>::~CEncrypt<int>
__unwindfunclet$??1ioTwoMagicCircleSkill@@UAE@XZ$2:
  00016	8b 4d f0	 mov	 ecx, DWORD PTR _this$[ebp]
  00019	81 c1 90 0f 00
	00		 add	 ecx, 3984		; 00000f90H
  0001f	ff 25 00 00 00
	00		 jmp	 DWORD PTR __imp_??1ioHashString@@QAE@XZ
__unwindfunclet$??1ioTwoMagicCircleSkill@@UAE@XZ$3:
  00025	8b 4d f0	 mov	 ecx, DWORD PTR _this$[ebp]
  00028	81 c1 a4 0f 00
	00		 add	 ecx, 4004		; 00000fa4H
  0002e	ff 25 00 00 00
	00		 jmp	 DWORD PTR __imp_??1ioHashString@@QAE@XZ
__unwindfunclet$??1ioTwoMagicCircleSkill@@UAE@XZ$4:
  00034	8b 4d f0	 mov	 ecx, DWORD PTR _this$[ebp]
  00037	81 c1 bc 0f 00
	00		 add	 ecx, 4028		; 00000fbcH
  0003d	ff 25 00 00 00
	00		 jmp	 DWORD PTR __imp_??1ioHashString@@QAE@XZ
__unwindfunclet$??1ioTwoMagicCircleSkill@@UAE@XZ$5:
  00043	8b 4d f0	 mov	 ecx, DWORD PTR _this$[ebp]
  00046	81 c1 f0 0f 00
	00		 add	 ecx, 4080		; 00000ff0H
  0004c	ff 25 00 00 00
	00		 jmp	 DWORD PTR __imp_??1ioHashString@@QAE@XZ
__unwindfunclet$??1ioTwoMagicCircleSkill@@UAE@XZ$6:
  00052	8b 4d f0	 mov	 ecx, DWORD PTR _this$[ebp]
  00055	81 c1 48 10 00
	00		 add	 ecx, 4168		; 00001048H
  0005b	ff 25 00 00 00
	00		 jmp	 DWORD PTR __imp_??1ioHashString@@QAE@XZ
__unwindfunclet$??1ioTwoMagicCircleSkill@@UAE@XZ$7:
  00061	8b 4d f0	 mov	 ecx, DWORD PTR _this$[ebp]
  00064	81 c1 58 10 00
	00		 add	 ecx, 4184		; 00001058H
  0006a	ff 25 00 00 00
	00		 jmp	 DWORD PTR __imp_??1ioHashString@@QAE@XZ
__unwindfunclet$??1ioTwoMagicCircleSkill@@UAE@XZ$8:
  00070	8b 4d f0	 mov	 ecx, DWORD PTR _this$[ebp]
  00073	81 c1 68 10 00
	00		 add	 ecx, 4200		; 00001068H
  00079	ff 25 00 00 00
	00		 jmp	 DWORD PTR __imp_??1ioHashString@@QAE@XZ
__unwindfunclet$??1ioTwoMagicCircleSkill@@UAE@XZ$9:
  0007f	8b 4d f0	 mov	 ecx, DWORD PTR _this$[ebp]
  00082	81 c1 78 10 00
	00		 add	 ecx, 4216		; 00001078H
  00088	ff 25 00 00 00
	00		 jmp	 DWORD PTR __imp_??1ioHashString@@QAE@XZ
__ehhandler$??1ioTwoMagicCircleSkill@@UAE@XZ:
  0008e	8b 54 24 08	 mov	 edx, DWORD PTR [esp+8]
  00092	8d 42 0c	 lea	 eax, DWORD PTR [edx+12]
  00095	8b 4a ec	 mov	 ecx, DWORD PTR [edx-20]
  00098	33 c8		 xor	 ecx, eax
  0009a	e8 00 00 00 00	 call	 @__security_check_cookie@4
  0009f	b8 00 00 00 00	 mov	 eax, OFFSET __ehfuncinfo$??1ioTwoMagicCircleSkill@@UAE@XZ
  000a4	e9 00 00 00 00	 jmp	 ___CxxFrameHandler3
text$x	ENDS
??1ioTwoMagicCircleSkill@@UAE@XZ ENDP			; ioTwoMagicCircleSkill::~ioTwoMagicCircleSkill
; Function compile flags: /Ogsp
; File d:\lost saga for developer\youtube\tutorial\source\src\lsclient\ioskill.h
;	COMDAT ?GetDefenseSkillBreakeType@ioSkill@@UBE?AW4DefenseBreakType@@XZ
_TEXT	SEGMENT
?GetDefenseSkillBreakeType@ioSkill@@UBE?AW4DefenseBreakType@@XZ PROC ; ioSkill::GetDefenseSkillBreakeType, COMDAT
; _this$ = ecx

; 327  : 	virtual DefenseBreakType GetDefenseSkillBreakeType() const { return m_eDefenseSkillBreakType; }

  00000	8b 81 30 0e 00
	00		 mov	 eax, DWORD PTR [ecx+3632]
  00006	c3		 ret	 0
?GetDefenseSkillBreakeType@ioSkill@@UBE?AW4DefenseBreakType@@XZ ENDP ; ioSkill::GetDefenseSkillBreakeType
; Function compile flags: /Ogsp
_TEXT	ENDS
;	COMDAT ?GetSkillEndNextJumpAmt@ioSkill@@UBEMXZ
_TEXT	SEGMENT
?GetSkillEndNextJumpAmt@ioSkill@@UBEMXZ PROC		; ioSkill::GetSkillEndNextJumpAmt, COMDAT
; _this$ = ecx

; 335  : 	virtual float GetSkillEndNextJumpAmt() const { return m_fSkillEndNextJumpAmt; }

  00000	d9 81 4c 05 00
	00		 fld	 DWORD PTR [ecx+1356]
  00006	c3		 ret	 0
?GetSkillEndNextJumpAmt@ioSkill@@UBEMXZ ENDP		; ioSkill::GetSkillEndNextJumpAmt
; Function compile flags: /Ogsp
_TEXT	ENDS
;	COMDAT ?GetSkillEndNextLandRate@ioSkill@@UBEMXZ
_TEXT	SEGMENT
?GetSkillEndNextLandRate@ioSkill@@UBEMXZ PROC		; ioSkill::GetSkillEndNextLandRate, COMDAT
; _this$ = ecx

; 336  : 	virtual float GetSkillEndNextLandRate() const { return m_fSkillEndNextLandRate; }

  00000	d9 81 50 05 00
	00		 fld	 DWORD PTR [ecx+1360]
  00006	c3		 ret	 0
?GetSkillEndNextLandRate@ioSkill@@UBEMXZ ENDP		; ioSkill::GetSkillEndNextLandRate
; Function compile flags: /Ogsp
_TEXT	ENDS
;	COMDAT ?GetSkillEndNextJumpMustEnable@ioSkill@@UAE?AW4SkillEndJumpType@@XZ
_TEXT	SEGMENT
?GetSkillEndNextJumpMustEnable@ioSkill@@UAE?AW4SkillEndJumpType@@XZ PROC ; ioSkill::GetSkillEndNextJumpMustEnable, COMDAT
; _this$ = ecx

; 337  : 	virtual SkillEndJumpType GetSkillEndNextJumpMustEnable(){ return SEJT_DEFAULT; }

  00000	33 c0		 xor	 eax, eax
  00002	c3		 ret	 0
?GetSkillEndNextJumpMustEnable@ioSkill@@UAE?AW4SkillEndJumpType@@XZ ENDP ; ioSkill::GetSkillEndNextJumpMustEnable
; Function compile flags: /Ogsp
_TEXT	ENDS
;	COMDAT ?EnableChangeGrapplingTargetPos@ioSkill@@UBE_NXZ
_TEXT	SEGMENT
?EnableChangeGrapplingTargetPos@ioSkill@@UBE_NXZ PROC	; ioSkill::EnableChangeGrapplingTargetPos, COMDAT
; _this$ = ecx

; 355  : 	virtual bool EnableChangeGrapplingTargetPos() const { return m_bChangeGrapplingTargetPos; }

  00000	8a 81 40 09 00
	00		 mov	 al, BYTE PTR [ecx+2368]
  00006	c3		 ret	 0
?EnableChangeGrapplingTargetPos@ioSkill@@UBE_NXZ ENDP	; ioSkill::EnableChangeGrapplingTargetPos
; Function compile flags: /Ogsp
_TEXT	ENDS
;	COMDAT ?IsInvisibleBottomCircle@ioSkill@@UAE_NPAVioBaseChar@@@Z
_TEXT	SEGMENT
_pChar$ = 8						; size = 4
?IsInvisibleBottomCircle@ioSkill@@UAE_NPAVioBaseChar@@@Z PROC ; ioSkill::IsInvisibleBottomCircle, COMDAT
; _this$ = ecx

; 393  : 	virtual bool IsInvisibleBottomCircle( ioBaseChar *pChar ) { return false; }

  00000	32 c0		 xor	 al, al
  00002	c2 04 00	 ret	 4
?IsInvisibleBottomCircle@ioSkill@@UAE_NPAVioBaseChar@@@Z ENDP ; ioSkill::IsInvisibleBottomCircle
; Function compile flags: /Ogsp
_TEXT	ENDS
;	COMDAT ?IsUseActiveCnt@ioSkill@@UBE_NXZ
_TEXT	SEGMENT
?IsUseActiveCnt@ioSkill@@UBE_NXZ PROC			; ioSkill::IsUseActiveCnt, COMDAT
; _this$ = ecx

; 544  : 	virtual bool IsUseActiveCnt() const { return false; }

  00000	32 c0		 xor	 al, al
  00002	c3		 ret	 0
?IsUseActiveCnt@ioSkill@@UBE_NXZ ENDP			; ioSkill::IsUseActiveCnt
; Function compile flags: /Ogsp
_TEXT	ENDS
;	COMDAT ?GetMaxActiveCnt@ioSkill@@UBEHPAVioBaseChar@@@Z
_TEXT	SEGMENT
_pChar$ = 8						; size = 4
?GetMaxActiveCnt@ioSkill@@UBEHPAVioBaseChar@@@Z PROC	; ioSkill::GetMaxActiveCnt, COMDAT
; _this$ = ecx

; 545  : 	virtual int GetMaxActiveCnt( ioBaseChar *pChar ) const { return 0; }

  00000	33 c0		 xor	 eax, eax
  00002	c2 04 00	 ret	 4
?GetMaxActiveCnt@ioSkill@@UBEHPAVioBaseChar@@@Z ENDP	; ioSkill::GetMaxActiveCnt
; Function compile flags: /Ogsp
_TEXT	ENDS
;	COMDAT ?GetCurActiveCnt@ioSkill@@UBEHPAVioBaseChar@@@Z
_TEXT	SEGMENT
_pChar$ = 8						; size = 4
?GetCurActiveCnt@ioSkill@@UBEHPAVioBaseChar@@@Z PROC	; ioSkill::GetCurActiveCnt, COMDAT
; _this$ = ecx

; 546  : 	virtual int GetCurActiveCnt( ioBaseChar *pChar ) const { return 0; }

  00000	33 c0		 xor	 eax, eax
  00002	c2 04 00	 ret	 4
?GetCurActiveCnt@ioSkill@@UBEHPAVioBaseChar@@@Z ENDP	; ioSkill::GetCurActiveCnt
_TEXT	ENDS
PUBLIC	__mask@@AbsDouble@
PUBLIC	__real@00000000
PUBLIC	__real@4008000000000000
PUBLIC	_pStage$GSCopy$
PUBLIC	?ChangeCircleDropZoneAndHeightGap@ioTwoMagicCircleSkill@@IAEXPAVioBaseChar@@PAVioPlayStage@@@Z ; ioTwoMagicCircleSkill::ChangeCircleDropZoneAndHeightGap
EXTRN	?GetMapHeight@ioPlayStage@@QAEMMMPBVioGameEntity@@_NM1@Z:PROC ; ioPlayStage::GetMapHeight
EXTRN	__imp_??4ioHashString@@QAEAAV0@ABV0@@Z:PROC
EXTRN	?SetMagicCirclePos@ioBaseGUISupport@@QAEX_NABUD3DXVECTOR3@@@Z:PROC ; ioBaseGUISupport::SetMagicCirclePos
EXTRN	__imp_??0ioHashString@@QAE@XZ:PROC
EXTRN	__imp_??8ioHashString@@QBE_NABV0@@Z:PROC
EXTRN	?GetMapHeightNoneEntity@ioPlayStage@@QAEMMMM_N@Z:PROC ; ioPlayStage::GetMapHeightNoneEntity
EXTRN	?GetMagicCirclePos@ioBaseGUISupport@@QBE?AUD3DXVECTOR3@@M_N@Z:PROC ; ioBaseGUISupport::GetMagicCirclePos
EXTRN	__EH_epilog3_GS:PROC
EXTRN	__EH_prolog3_GS:PROC
;	COMDAT __mask@@AbsDouble@
; File c:\program files (x86)\microsoft visual studio 10.0\vc\include\math.h
CONST	SEGMENT
__mask@@AbsDouble@ DB 0ffH, 0ffH, 0ffH, 0ffH, 0ffH, 0ffH, 0ffH, 07fH, 0ffH
	DB	0ffH, 0ffH, 0ffH, 0ffH, 0ffH, 0ffH, 07fH
CONST	ENDS
;	COMDAT __real@00000000
CONST	SEGMENT
__real@00000000 DD 000000000r			; 0
CONST	ENDS
;	COMDAT __real@4008000000000000
CONST	SEGMENT
__real@4008000000000000 DQ 04008000000000000r	; 3
CONST	ENDS
;	COMDAT xdata$x
xdata$x	SEGMENT
__ehfuncinfo$?ChangeCircleDropZoneAndHeightGap@ioTwoMagicCircleSkill@@IAEXPAVioBaseChar@@PAVioPlayStage@@@Z DD 019930522H
	DD	06H
	DD	FLAT:__unwindtable$?ChangeCircleDropZoneAndHeightGap@ioTwoMagicCircleSkill@@IAEXPAVioBaseChar@@PAVioPlayStage@@@Z
	DD	2 DUP(00H)
	DD	2 DUP(00H)
	DD	00H
	DD	01H
__unwindtable$?ChangeCircleDropZoneAndHeightGap@ioTwoMagicCircleSkill@@IAEXPAVioBaseChar@@PAVioPlayStage@@@Z DD 0ffffffffH
	DD	FLAT:__unwindfunclet$?ChangeCircleDropZoneAndHeightGap@ioTwoMagicCircleSkill@@IAEXPAVioBaseChar@@PAVioPlayStage@@@Z$0
	DD	0ffffffffH
	DD	FLAT:__unwindfunclet$?ChangeCircleDropZoneAndHeightGap@ioTwoMagicCircleSkill@@IAEXPAVioBaseChar@@PAVioPlayStage@@@Z$1
	DD	0ffffffffH
	DD	FLAT:__unwindfunclet$?ChangeCircleDropZoneAndHeightGap@ioTwoMagicCircleSkill@@IAEXPAVioBaseChar@@PAVioPlayStage@@@Z$2
	DD	0ffffffffH
	DD	FLAT:__unwindfunclet$?ChangeCircleDropZoneAndHeightGap@ioTwoMagicCircleSkill@@IAEXPAVioBaseChar@@PAVioPlayStage@@@Z$3
	DD	0ffffffffH
	DD	FLAT:__unwindfunclet$?ChangeCircleDropZoneAndHeightGap@ioTwoMagicCircleSkill@@IAEXPAVioBaseChar@@PAVioPlayStage@@@Z$4
	DD	0ffffffffH
	DD	FLAT:__unwindfunclet$?ChangeCircleDropZoneAndHeightGap@ioTwoMagicCircleSkill@@IAEXPAVioBaseChar@@PAVioPlayStage@@@Z$5
; Function compile flags: /Ogsp
; File d:\lost saga for developer\youtube\tutorial\source\src\lsclient\iotwomagiccircleskill.cpp
xdata$x	ENDS
;	COMDAT ?ChangeCircleDropZoneAndHeightGap@ioTwoMagicCircleSkill@@IAEXPAVioBaseChar@@PAVioPlayStage@@@Z
_TEXT	SEGMENT
_szDummyCircle$530885 = -72				; size = 16
tv661 = -56						; size = 4
_fMax$530868 = -56					; size = 4
tv656 = -52						; size = 4
_fMin$530867 = -52					; size = 4
tv655 = -48						; size = 4
_pStage$GSCopy$ = -48					; size = 4
_fMapHeight$530866 = -48				; size = 4
_szDummyCircle$530882 = -44				; size = 16
_szDummyCircle$530879 = -44				; size = 16
_szDummyCircle$530876 = -44				; size = 16
_szDummyCircle$530862 = -44				; size = 16
_szDummyCircle$530859 = -44				; size = 16
$T530870 = -40						; size = 12
_vPos$ = -28						; size = 12
__$EHRec$ = -12						; size = 12
_pChar$ = 8						; size = 4
_pStage$ = 12						; size = 4
?ChangeCircleDropZoneAndHeightGap@ioTwoMagicCircleSkill@@IAEXPAVioBaseChar@@PAVioPlayStage@@@Z PROC ; ioTwoMagicCircleSkill::ChangeCircleDropZoneAndHeightGap, COMDAT
; _this$ = ecx

; 441  : {

  00000	6a 3c		 push	 60			; 0000003cH
  00002	b8 00 00 00 00	 mov	 eax, __ehhandler$?ChangeCircleDropZoneAndHeightGap@ioTwoMagicCircleSkill@@IAEXPAVioBaseChar@@PAVioPlayStage@@@Z
  00007	e8 00 00 00 00	 call	 __EH_prolog3_GS
  0000c	8b 45 08	 mov	 eax, DWORD PTR _pChar$[ebp]
  0000f	8b f1		 mov	 esi, ecx
  00011	8b 4d 0c	 mov	 ecx, DWORD PTR _pStage$[ebp]

; 442  : 	if( !pStage ) return;

  00014	33 db		 xor	 ebx, ebx

; 528  : 			{
; 529  : 				ioHashString szDummyCircle;

  00016	89 4d d0	 mov	 DWORD PTR _pStage$GSCopy$[ebp], ecx
  00019	3b cb		 cmp	 ecx, ebx
  0001b	0f 84 aa 04 00
	00		 je	 $LN1@ChangeCirc

; 443  : 	if( !pChar ) return;

  00021	3b c3		 cmp	 eax, ebx
  00023	0f 84 a2 04 00
	00		 je	 $LN1@ChangeCirc

; 444  : 
; 445  : 	D3DXVECTOR3 vPos = pChar->GetMagicCirclePos();

  00029	0f 57 c0	 xorps	 xmm0, xmm0
  0002c	53		 push	 ebx
  0002d	51		 push	 ecx
  0002e	8d b8 cc 01 00
	00		 lea	 edi, DWORD PTR [eax+460]
  00034	8d 45 e4	 lea	 eax, DWORD PTR _vPos$[ebp]
  00037	f3 0f 11 04 24	 movss	 DWORD PTR [esp], xmm0
  0003c	50		 push	 eax
  0003d	8b cf		 mov	 ecx, edi
  0003f	e8 00 00 00 00	 call	 ?GetMagicCirclePos@ioBaseGUISupport@@QBE?AUD3DXVECTOR3@@M_N@Z ; ioBaseGUISupport::GetMagicCirclePos

; 446  : 
; 447  : 	if( m_CircleState == FIRST_CIRCLE )

  00044	8b 86 88 0f 00
	00		 mov	 eax, DWORD PTR [esi+3976]
  0004a	3b c3		 cmp	 eax, ebx
  0004c	0f 85 57 01 00
	00		 jne	 $LN17@ChangeCirc

; 448  : 	{
; 449  : 		if( pStage->GetMapHeightNoneEntity( vPos.x, vPos.z, vPos.y + 3.0f ) > 0.0f )

  00052	f3 0f 10 45 e8	 movss	 xmm0, DWORD PTR _vPos$[ebp+4]
  00057	8b 4d d0	 mov	 ecx, DWORD PTR _pStage$GSCopy$[ebp]
  0005a	0f 5a c0	 cvtps2pd xmm0, xmm0
  0005d	f2 0f 58 05 00
	00 00 00	 addsd	 xmm0, QWORD PTR __real@4008000000000000
  00065	53		 push	 ebx
  00066	83 ec 0c	 sub	 esp, 12			; 0000000cH
  00069	66 0f 5a c0	 cvtpd2ps xmm0, xmm0
  0006d	f3 0f 11 44 24
	08		 movss	 DWORD PTR [esp+8], xmm0
  00073	f3 0f 10 45 ec	 movss	 xmm0, DWORD PTR _vPos$[ebp+8]
  00078	f3 0f 11 44 24
	04		 movss	 DWORD PTR [esp+4], xmm0
  0007e	f3 0f 10 45 e4	 movss	 xmm0, DWORD PTR _vPos$[ebp]
  00083	f3 0f 11 04 24	 movss	 DWORD PTR [esp], xmm0
  00088	e8 00 00 00 00	 call	 ?GetMapHeightNoneEntity@ioPlayStage@@QAEMMMM_N@Z ; ioPlayStage::GetMapHeightNoneEntity
  0008d	d9 ee		 fldz
  0008f	d9 c9		 fxch	 ST(1)
  00091	df f1		 fcomip	 ST(1)
  00093	dd d8		 fstp	 ST(0)
  00095	0f 86 84 00 00
	00		 jbe	 $LN16@ChangeCirc

; 450  : 		{	
; 451  : 			if( m_bFirstOffCircle && m_CurCircleEffect == m_OffCircle )

  0009b	38 9e 00 10 00
	00		 cmp	 BYTE PTR [esi+4096], bl
  000a1	74 71		 je	 SHORT $LN15@ChangeCirc
  000a3	8d 86 58 10 00
	00		 lea	 eax, DWORD PTR [esi+4184]
  000a9	8d 8e f0 0f 00
	00		 lea	 ecx, DWORD PTR [esi+4080]
  000af	50		 push	 eax
  000b0	ff 15 00 00 00
	00		 call	 DWORD PTR __imp_??8ioHashString@@QBE_NABV0@@Z
  000b6	84 c0		 test	 al, al
  000b8	74 5a		 je	 SHORT $LN15@ChangeCirc

; 452  : 			{
; 453  : 				ioHashString szDummyCircle;

  000ba	8d 4d d4	 lea	 ecx, DWORD PTR _szDummyCircle$530859[ebp]
  000bd	ff 15 00 00 00
	00		 call	 DWORD PTR __imp_??0ioHashString@@QAE@XZ

; 454  : 				pChar->CreateMagicCircle( m_OnCircle, m_OnCircle, szDummyCircle, 0 );

  000c3	0f 57 c0	 xorps	 xmm0, xmm0
  000c6	8b 17		 mov	 edx, DWORD PTR [edi]
  000c8	51		 push	 ecx
  000c9	f3 0f 11 04 24	 movss	 DWORD PTR [esp], xmm0
  000ce	8d 4d d4	 lea	 ecx, DWORD PTR _szDummyCircle$530859[ebp]
  000d1	51		 push	 ecx
  000d2	8d 86 48 10 00
	00		 lea	 eax, DWORD PTR [esi+4168]
  000d8	50		 push	 eax
  000d9	50		 push	 eax
  000da	8b cf		 mov	 ecx, edi
  000dc	89 5d fc	 mov	 DWORD PTR __$EHRec$[ebp+8], ebx
  000df	ff 52 04	 call	 DWORD PTR [edx+4]

; 455  : 				pChar->SetMagicCirclePos( false, vPos );

  000e2	8d 45 e4	 lea	 eax, DWORD PTR _vPos$[ebp]
  000e5	50		 push	 eax
  000e6	53		 push	 ebx
  000e7	8b cf		 mov	 ecx, edi
  000e9	e8 00 00 00 00	 call	 ?SetMagicCirclePos@ioBaseGUISupport@@QAEX_NABUD3DXVECTOR3@@@Z ; ioBaseGUISupport::SetMagicCirclePos

; 456  : 				m_bFirstOffCircle = false;
; 457  : 				m_CurCircleEffect = m_OnCircle;

  000ee	8d 86 48 10 00
	00		 lea	 eax, DWORD PTR [esi+4168]
  000f4	50		 push	 eax
  000f5	8d 8e f0 0f 00
	00		 lea	 ecx, DWORD PTR [esi+4080]
  000fb	88 9e 00 10 00
	00		 mov	 BYTE PTR [esi+4096], bl
  00101	ff 15 00 00 00
	00		 call	 DWORD PTR __imp_??4ioHashString@@QAEAAV0@ABV0@@Z

; 458  : 			}

  00107	83 4d fc ff	 or	 DWORD PTR __$EHRec$[ebp+8], -1
  0010b	8d 4d d4	 lea	 ecx, DWORD PTR _szDummyCircle$530859[ebp]
  0010e	ff 15 00 00 00
	00		 call	 DWORD PTR __imp_??1ioHashString@@QAE@XZ
$LN15@ChangeCirc:

; 459  : 
; 460  : 			m_bDropzone = false;

  00114	88 9e 98 10 00
	00		 mov	 BYTE PTR [esi+4248], bl

; 461  : 
; 462  : 		}
; 463  : 		else

  0011a	e9 ac 03 00 00	 jmp	 $LN1@ChangeCirc
$LN16@ChangeCirc:

; 464  : 		{
; 465  : 			if( !m_bFirstOffCircle && m_CurCircleEffect == m_OnCircle )

  0011f	38 9e 00 10 00
	00		 cmp	 BYTE PTR [esi+4096], bl
  00125	75 76		 jne	 SHORT $LN13@ChangeCirc
  00127	8d 86 48 10 00
	00		 lea	 eax, DWORD PTR [esi+4168]
  0012d	8d 8e f0 0f 00
	00		 lea	 ecx, DWORD PTR [esi+4080]
  00133	50		 push	 eax
  00134	ff 15 00 00 00
	00		 call	 DWORD PTR __imp_??8ioHashString@@QBE_NABV0@@Z
  0013a	84 c0		 test	 al, al
  0013c	74 5f		 je	 SHORT $LN13@ChangeCirc

; 466  : 			{
; 467  : 				ioHashString szDummyCircle;

  0013e	8d 4d d4	 lea	 ecx, DWORD PTR _szDummyCircle$530862[ebp]
  00141	ff 15 00 00 00
	00		 call	 DWORD PTR __imp_??0ioHashString@@QAE@XZ

; 468  : 				pChar->CreateMagicCircle( m_OffCircle, m_OffCircle, szDummyCircle, 0 );

  00147	0f 57 c0	 xorps	 xmm0, xmm0
  0014a	8b 17		 mov	 edx, DWORD PTR [edi]
  0014c	51		 push	 ecx
  0014d	f3 0f 11 04 24	 movss	 DWORD PTR [esp], xmm0
  00152	8d 4d d4	 lea	 ecx, DWORD PTR _szDummyCircle$530862[ebp]
  00155	51		 push	 ecx
  00156	8d 86 58 10 00
	00		 lea	 eax, DWORD PTR [esi+4184]
  0015c	50		 push	 eax
  0015d	50		 push	 eax
  0015e	8b cf		 mov	 ecx, edi
  00160	c7 45 fc 01 00
	00 00		 mov	 DWORD PTR __$EHRec$[ebp+8], 1
  00167	ff 52 04	 call	 DWORD PTR [edx+4]

; 469  : 				pChar->SetMagicCirclePos( false, vPos );

  0016a	8d 45 e4	 lea	 eax, DWORD PTR _vPos$[ebp]
  0016d	50		 push	 eax
  0016e	53		 push	 ebx
  0016f	8b cf		 mov	 ecx, edi
  00171	e8 00 00 00 00	 call	 ?SetMagicCirclePos@ioBaseGUISupport@@QAEX_NABUD3DXVECTOR3@@@Z ; ioBaseGUISupport::SetMagicCirclePos

; 470  : 				m_bFirstOffCircle = true;
; 471  : 				m_CurCircleEffect = m_OffCircle;

  00176	8d 86 58 10 00
	00		 lea	 eax, DWORD PTR [esi+4184]
  0017c	50		 push	 eax
  0017d	8d 8e f0 0f 00
	00		 lea	 ecx, DWORD PTR [esi+4080]
  00183	c6 86 00 10 00
	00 01		 mov	 BYTE PTR [esi+4096], 1
  0018a	ff 15 00 00 00
	00		 call	 DWORD PTR __imp_??4ioHashString@@QAEAAV0@ABV0@@Z

; 472  : 			}

  00190	83 4d fc ff	 or	 DWORD PTR __$EHRec$[ebp+8], -1
  00194	8d 4d d4	 lea	 ecx, DWORD PTR _szDummyCircle$530862[ebp]
  00197	ff 15 00 00 00
	00		 call	 DWORD PTR __imp_??1ioHashString@@QAE@XZ
$LN13@ChangeCirc:

; 473  : 
; 474  : 			m_bDropzone = true;

  0019d	c6 86 98 10 00
	00 01		 mov	 BYTE PTR [esi+4248], 1

; 475  : 		}

  001a4	e9 22 03 00 00	 jmp	 $LN1@ChangeCirc
$LN17@ChangeCirc:

; 476  : 	}
; 477  : 	else if( m_CircleState == SECOND_CIRCLE )

  001a9	83 f8 01	 cmp	 eax, 1
  001ac	0f 85 19 03 00
	00		 jne	 $LN1@ChangeCirc

; 478  : 	{
; 479  : 		if( !m_bDropzone )

  001b2	38 9e 98 10 00
	00		 cmp	 BYTE PTR [esi+4248], bl
  001b8	0f 85 90 02 00
	00		 jne	 $LN10@ChangeCirc

; 480  : 		{
; 481  : 			float fMapHeight = pStage->GetMapHeight( vPos.x, vPos.z );

  001be	0f 57 c0	 xorps	 xmm0, xmm0
  001c1	53		 push	 ebx
  001c2	51		 push	 ecx
  001c3	f3 0f 11 04 24	 movss	 DWORD PTR [esp], xmm0
  001c8	f3 0f 10 45 ec	 movss	 xmm0, DWORD PTR _vPos$[ebp+8]
  001cd	50		 push	 eax
  001ce	53		 push	 ebx
  001cf	51		 push	 ecx
  001d0	51		 push	 ecx
  001d1	8b 4d d0	 mov	 ecx, DWORD PTR _pStage$GSCopy$[ebp]
  001d4	f3 0f 11 44 24
	04		 movss	 DWORD PTR [esp+4], xmm0
  001da	f3 0f 10 45 e4	 movss	 xmm0, DWORD PTR _vPos$[ebp]
  001df	f3 0f 11 04 24	 movss	 DWORD PTR [esp], xmm0
  001e4	e8 00 00 00 00	 call	 ?GetMapHeight@ioPlayStage@@QAEMMMPBVioGameEntity@@_NM1@Z ; ioPlayStage::GetMapHeight
  001e9	d9 5d d0	 fstp	 DWORD PTR _fMapHeight$530866[ebp]

; 482  : 			float fMin = m_vFirstCirclePos.y + m_fCircleKeyOnHeightMin;

  001ec	f3 0f 10 86 28
	10 00 00	 movss	 xmm0, DWORD PTR [esi+4136]
  001f4	f3 0f 10 8e 3c
	10 00 00	 movss	 xmm1, DWORD PTR [esi+4156]
  001fc	0f 5a c9	 cvtps2pd xmm1, xmm1
  001ff	0f 5a d0	 cvtps2pd xmm2, xmm0
  00202	f2 0f 58 ca	 addsd	 xmm1, xmm2
  00206	66 0f 5a c9	 cvtpd2ps xmm1, xmm1
  0020a	f3 0f 11 4d cc	 movss	 DWORD PTR _fMin$530867[ebp], xmm1

; 483  : 			float fMax = m_vFirstCirclePos.y + m_fCircleKeyOnHeightMax;

  0020f	f3 0f 10 8e 40
	10 00 00	 movss	 xmm1, DWORD PTR [esi+4160]
  00217	0f 5a c0	 cvtps2pd xmm0, xmm0
  0021a	0f 5a c9	 cvtps2pd xmm1, xmm1
  0021d	f2 0f 58 c8	 addsd	 xmm1, xmm0
  00221	0f 57 c0	 xorps	 xmm0, xmm0

; 484  : 			
; 485  : 			D3DXVECTOR3 vDistace = m_vFirstCirclePos - pChar->GetMagicCirclePos();

  00224	53		 push	 ebx
  00225	66 0f 5a c1	 cvtpd2ps xmm0, xmm1
  00229	51		 push	 ecx
  0022a	f3 0f 11 45 c8	 movss	 DWORD PTR _fMax$530868[ebp], xmm0
  0022f	0f 57 c0	 xorps	 xmm0, xmm0
  00232	8d 45 d8	 lea	 eax, DWORD PTR $T530870[ebp]
  00235	f3 0f 11 04 24	 movss	 DWORD PTR [esp], xmm0
  0023a	50		 push	 eax
  0023b	8b cf		 mov	 ecx, edi
  0023d	e8 00 00 00 00	 call	 ?GetMagicCirclePos@ioBaseGUISupport@@QBE?AUD3DXVECTOR3@@M_N@Z ; ioBaseGUISupport::GetMagicCirclePos
  00242	f3 0f 10 86 24
	10 00 00	 movss	 xmm0, DWORD PTR [esi+4132]
  0024a	f3 0f 10 08	 movss	 xmm1, DWORD PTR [eax]
  0024e	f3 0f 10 50 04	 movss	 xmm2, DWORD PTR [eax+4]
  00253	f3 0f 10 58 08	 movss	 xmm3, DWORD PTR [eax+8]
  00258	0f 5a c0	 cvtps2pd xmm0, xmm0
  0025b	0f 5a c9	 cvtps2pd xmm1, xmm1
  0025e	f2 0f 5c c1	 subsd	 xmm0, xmm1
  00262	0f 57 c9	 xorps	 xmm1, xmm1
  00265	66 0f 5a c8	 cvtpd2ps xmm1, xmm0
  00269	f3 0f 10 86 28
	10 00 00	 movss	 xmm0, DWORD PTR [esi+4136]
  00271	0f 5a c0	 cvtps2pd xmm0, xmm0
  00274	0f 5a d2	 cvtps2pd xmm2, xmm2
  00277	f2 0f 5c c2	 subsd	 xmm0, xmm2
  0027b	f3 0f 10 96 2c
	10 00 00	 movss	 xmm2, DWORD PTR [esi+4140]
  00283	66 0f 5a c0	 cvtpd2ps xmm0, xmm0

; 486  : 			float fDistace = fabs( D3DXVec3Length( &vDistace ) );

  00287	f3 0f 5a c0	 cvtss2sd xmm0, xmm0
  0028b	0f 5a d2	 cvtps2pd xmm2, xmm2
  0028e	f2 0f 59 c0	 mulsd	 xmm0, xmm0
  00292	0f 5a c9	 cvtps2pd xmm1, xmm1
  00295	0f 5a db	 cvtps2pd xmm3, xmm3
  00298	f2 0f 5c d3	 subsd	 xmm2, xmm3
  0029c	66 0f 5a d2	 cvtpd2ps xmm2, xmm2
  002a0	f2 0f 59 c9	 mulsd	 xmm1, xmm1
  002a4	f2 0f 58 c8	 addsd	 xmm1, xmm0
  002a8	0f 57 c0	 xorps	 xmm0, xmm0
  002ab	f3 0f 5a d2	 cvtss2sd xmm2, xmm2
  002af	f2 0f 59 d2	 mulsd	 xmm2, xmm2
  002b3	f2 0f 58 ca	 addsd	 xmm1, xmm2

; 487  : 
; 488  : 			if( COMPARE( fMapHeight, fMin, fMax ) )

  002b7	f3 0f 10 55 cc	 movss	 xmm2, DWORD PTR _fMin$530867[ebp]
  002bc	66 0f 5a c1	 cvtpd2ps xmm0, xmm1
  002c0	f3 0f 10 4d d0	 movss	 xmm1, DWORD PTR _fMapHeight$530866[ebp]
  002c5	0f 5a c0	 cvtps2pd xmm0, xmm0
  002c8	f2 0f 51 c0	 sqrtsd	 xmm0, xmm0
  002cc	66 0f 5a c0	 cvtpd2ps xmm0, xmm0
  002d0	f3 0f 5a c0	 cvtss2sd xmm0, xmm0
  002d4	66 0f 54 05 00
	00 00 00	 andpd	 xmm0, QWORD PTR __mask@@AbsDouble@
  002dc	0f 5a c9	 cvtps2pd xmm1, xmm1
  002df	0f 5a d2	 cvtps2pd xmm2, xmm2
  002e2	66 0f 2f ca	 comisd	 xmm1, xmm2
  002e6	f2 0f 5a c0	 cvtsd2ss xmm0, xmm0
  002ea	0f 82 22 01 00
	00		 jb	 $LN9@ChangeCirc
  002f0	f3 0f 10 4d d0	 movss	 xmm1, DWORD PTR _fMapHeight$530866[ebp]
  002f5	f3 0f 10 55 c8	 movss	 xmm2, DWORD PTR _fMax$530868[ebp]
  002fa	0f 5a c9	 cvtps2pd xmm1, xmm1
  002fd	0f 5a d2	 cvtps2pd xmm2, xmm2
  00300	66 0f 2f d1	 comisd	 xmm2, xmm1
  00304	0f 86 08 01 00
	00		 jbe	 $LN9@ChangeCirc

; 489  : 			{	
; 490  : 				if( m_fCircleToCircleGap < fDistace )

  0030a	f3 0f 10 8e 44
	10 00 00	 movss	 xmm1, DWORD PTR [esi+4164]
  00312	0f 5a c9	 cvtps2pd xmm1, xmm1
  00315	f3 0f 5a c0	 cvtss2sd xmm0, xmm0
  00319	66 0f 2f c1	 comisd	 xmm0, xmm1
  0031d	76 7f		 jbe	 SHORT $LN8@ChangeCirc

; 491  : 				{
; 492  : 					if( m_bSecondOffCircle && m_CurCircleEffect == m_OffCircle )

  0031f	38 9e 01 10 00
	00		 cmp	 BYTE PTR [esi+4097], bl
  00325	0f 84 a0 01 00
	00		 je	 $LN1@ChangeCirc
  0032b	8d 86 58 10 00
	00		 lea	 eax, DWORD PTR [esi+4184]
  00331	8d 8e f0 0f 00
	00		 lea	 ecx, DWORD PTR [esi+4080]
  00337	50		 push	 eax
  00338	89 4d cc	 mov	 DWORD PTR tv656[ebp], ecx
  0033b	ff 15 00 00 00
	00		 call	 DWORD PTR __imp_??8ioHashString@@QBE_NABV0@@Z
  00341	84 c0		 test	 al, al
  00343	0f 84 82 01 00
	00		 je	 $LN1@ChangeCirc

; 493  : 					{			
; 494  : 						ioHashString szDummyCircle;

  00349	8d 4d d4	 lea	 ecx, DWORD PTR _szDummyCircle$530876[ebp]
  0034c	ff 15 00 00 00
	00		 call	 DWORD PTR __imp_??0ioHashString@@QAE@XZ

; 495  : 						pChar->CreateMagicCircle( m_OnCircle, m_OnCircle, szDummyCircle, 0 );

  00352	0f 57 c0	 xorps	 xmm0, xmm0
  00355	8b 17		 mov	 edx, DWORD PTR [edi]
  00357	51		 push	 ecx
  00358	f3 0f 11 04 24	 movss	 DWORD PTR [esp], xmm0
  0035d	8d 86 48 10 00
	00		 lea	 eax, DWORD PTR [esi+4168]
  00363	8d 4d d4	 lea	 ecx, DWORD PTR _szDummyCircle$530876[ebp]
  00366	51		 push	 ecx
  00367	50		 push	 eax
  00368	50		 push	 eax
  00369	8b cf		 mov	 ecx, edi
  0036b	c7 45 fc 02 00
	00 00		 mov	 DWORD PTR __$EHRec$[ebp+8], 2
  00372	89 45 c8	 mov	 DWORD PTR tv661[ebp], eax
  00375	ff 52 04	 call	 DWORD PTR [edx+4]

; 496  : 						pChar->SetMagicCirclePos( false, vPos );

  00378	8d 45 e4	 lea	 eax, DWORD PTR _vPos$[ebp]
  0037b	50		 push	 eax
  0037c	53		 push	 ebx
  0037d	8b cf		 mov	 ecx, edi
  0037f	e8 00 00 00 00	 call	 ?SetMagicCirclePos@ioBaseGUISupport@@QAEX_NABUD3DXVECTOR3@@@Z ; ioBaseGUISupport::SetMagicCirclePos

; 497  : 						m_bSecondOffCircle = false;
; 498  : 						m_CurCircleEffect = m_OnCircle;

  00384	ff 75 c8	 push	 DWORD PTR tv661[ebp]
  00387	88 9e 01 10 00
	00		 mov	 BYTE PTR [esi+4097], bl
$LN42@ChangeCirc:
  0038d	8b 4d cc	 mov	 ecx, DWORD PTR tv656[ebp]
  00390	ff 15 00 00 00
	00		 call	 DWORD PTR __imp_??4ioHashString@@QAEAAV0@ABV0@@Z

; 499  : 					}				

  00396	8d 4d d4	 lea	 ecx, DWORD PTR _szDummyCircle$530876[ebp]

; 500  : 				}
; 501  : 				else

  00399	e9 23 01 00 00	 jmp	 $LN41@ChangeCirc
$LN8@ChangeCirc:

; 502  : 				{
; 503  : 					if( !m_bSecondOffCircle && m_CurCircleEffect == m_OnCircle )

  0039e	38 9e 01 10 00
	00		 cmp	 BYTE PTR [esi+4097], bl
  003a4	0f 85 21 01 00
	00		 jne	 $LN1@ChangeCirc
  003aa	8d 86 48 10 00
	00		 lea	 eax, DWORD PTR [esi+4168]
  003b0	8d 8e f0 0f 00
	00		 lea	 ecx, DWORD PTR [esi+4080]
  003b6	50		 push	 eax
  003b7	89 4d cc	 mov	 DWORD PTR tv656[ebp], ecx
  003ba	ff 15 00 00 00
	00		 call	 DWORD PTR __imp_??8ioHashString@@QBE_NABV0@@Z
  003c0	84 c0		 test	 al, al
  003c2	0f 84 03 01 00
	00		 je	 $LN1@ChangeCirc

; 504  : 					{
; 505  : 						ioHashString szDummyCircle;

  003c8	8d 4d d4	 lea	 ecx, DWORD PTR _szDummyCircle$530879[ebp]
  003cb	ff 15 00 00 00
	00		 call	 DWORD PTR __imp_??0ioHashString@@QAE@XZ
  003d1	c7 45 fc 03 00
	00 00		 mov	 DWORD PTR __$EHRec$[ebp+8], 3
$LN43@ChangeCirc:

; 506  : 						pChar->CreateMagicCircle( m_OffCircle, m_OffCircle, szDummyCircle, 0 );

  003d8	0f 57 c0	 xorps	 xmm0, xmm0
  003db	8b 17		 mov	 edx, DWORD PTR [edi]
  003dd	51		 push	 ecx
  003de	f3 0f 11 04 24	 movss	 DWORD PTR [esp], xmm0
  003e3	8d 86 58 10 00
	00		 lea	 eax, DWORD PTR [esi+4184]
  003e9	8d 4d d4	 lea	 ecx, DWORD PTR _szDummyCircle$530879[ebp]
  003ec	51		 push	 ecx
  003ed	50		 push	 eax
  003ee	50		 push	 eax
  003ef	8b cf		 mov	 ecx, edi
  003f1	89 45 d0	 mov	 DWORD PTR tv655[ebp], eax
  003f4	ff 52 04	 call	 DWORD PTR [edx+4]

; 507  : 						pChar->SetMagicCirclePos( false, vPos );

  003f7	8d 45 e4	 lea	 eax, DWORD PTR _vPos$[ebp]
  003fa	50		 push	 eax
  003fb	53		 push	 ebx
  003fc	8b cf		 mov	 ecx, edi
  003fe	e8 00 00 00 00	 call	 ?SetMagicCirclePos@ioBaseGUISupport@@QAEX_NABUD3DXVECTOR3@@@Z ; ioBaseGUISupport::SetMagicCirclePos

; 508  : 						m_bSecondOffCircle = true;
; 509  : 						m_CurCircleEffect = m_OffCircle;

  00403	ff 75 d0	 push	 DWORD PTR tv655[ebp]
  00406	c6 86 01 10 00
	00 01		 mov	 BYTE PTR [esi+4097], 1

; 510  : 					}
; 511  : 				}
; 512  : 			}
; 513  : 			else

  0040d	e9 7b ff ff ff	 jmp	 $LN42@ChangeCirc
$LN9@ChangeCirc:

; 514  : 			{
; 515  : 				if( !m_bSecondOffCircle && m_CurCircleEffect == m_OnCircle )

  00412	38 9e 01 10 00
	00		 cmp	 BYTE PTR [esi+4097], bl
  00418	0f 85 ad 00 00
	00		 jne	 $LN1@ChangeCirc
  0041e	8d 86 48 10 00
	00		 lea	 eax, DWORD PTR [esi+4168]
  00424	8d 8e f0 0f 00
	00		 lea	 ecx, DWORD PTR [esi+4080]
  0042a	50		 push	 eax
  0042b	89 4d cc	 mov	 DWORD PTR tv656[ebp], ecx
  0042e	ff 15 00 00 00
	00		 call	 DWORD PTR __imp_??8ioHashString@@QBE_NABV0@@Z
  00434	84 c0		 test	 al, al
  00436	0f 84 8f 00 00
	00		 je	 $LN1@ChangeCirc

; 516  : 				{
; 517  : 					ioHashString szDummyCircle;

  0043c	8d 4d d4	 lea	 ecx, DWORD PTR _szDummyCircle$530882[ebp]
  0043f	ff 15 00 00 00
	00		 call	 DWORD PTR __imp_??0ioHashString@@QAE@XZ
  00445	c7 45 fc 04 00
	00 00		 mov	 DWORD PTR __$EHRec$[ebp+8], 4

; 518  : 					pChar->CreateMagicCircle( m_OffCircle, m_OffCircle, szDummyCircle, 0 );
; 519  : 					pChar->SetMagicCirclePos( false, vPos );
; 520  : 					m_bSecondOffCircle = true;
; 521  : 					m_CurCircleEffect = m_OffCircle;
; 522  : 				}
; 523  : 			}
; 524  : 		}
; 525  : 		else

  0044c	eb 8a		 jmp	 SHORT $LN43@ChangeCirc
$LN10@ChangeCirc:

; 526  : 		{
; 527  : 			if( !m_bSecondOffCircle && m_CurCircleEffect == m_OnCircle )

  0044e	38 9e 01 10 00
	00		 cmp	 BYTE PTR [esi+4097], bl
  00454	75 75		 jne	 SHORT $LN1@ChangeCirc
  00456	8d 86 48 10 00
	00		 lea	 eax, DWORD PTR [esi+4168]
  0045c	8d 8e f0 0f 00
	00		 lea	 ecx, DWORD PTR [esi+4080]
  00462	50		 push	 eax
  00463	89 4d cc	 mov	 DWORD PTR tv656[ebp], ecx
  00466	ff 15 00 00 00
	00		 call	 DWORD PTR __imp_??8ioHashString@@QBE_NABV0@@Z
  0046c	84 c0		 test	 al, al
  0046e	74 5b		 je	 SHORT $LN1@ChangeCirc

; 528  : 			{
; 529  : 				ioHashString szDummyCircle;

  00470	8d 4d b8	 lea	 ecx, DWORD PTR _szDummyCircle$530885[ebp]
  00473	ff 15 00 00 00
	00		 call	 DWORD PTR __imp_??0ioHashString@@QAE@XZ

; 530  : 				pChar->CreateMagicCircle( m_OffCircle, m_OffCircle, szDummyCircle, 0 );

  00479	0f 57 c0	 xorps	 xmm0, xmm0
  0047c	8b 17		 mov	 edx, DWORD PTR [edi]
  0047e	51		 push	 ecx
  0047f	f3 0f 11 04 24	 movss	 DWORD PTR [esp], xmm0
  00484	8d 86 58 10 00
	00		 lea	 eax, DWORD PTR [esi+4184]
  0048a	8d 4d b8	 lea	 ecx, DWORD PTR _szDummyCircle$530885[ebp]
  0048d	51		 push	 ecx
  0048e	50		 push	 eax
  0048f	50		 push	 eax
  00490	8b cf		 mov	 ecx, edi
  00492	c7 45 fc 05 00
	00 00		 mov	 DWORD PTR __$EHRec$[ebp+8], 5
  00499	89 45 d0	 mov	 DWORD PTR tv655[ebp], eax
  0049c	ff 52 04	 call	 DWORD PTR [edx+4]

; 531  : 				pChar->SetMagicCirclePos( false, vPos );

  0049f	8d 45 e4	 lea	 eax, DWORD PTR _vPos$[ebp]
  004a2	50		 push	 eax
  004a3	53		 push	 ebx
  004a4	8b cf		 mov	 ecx, edi
  004a6	e8 00 00 00 00	 call	 ?SetMagicCirclePos@ioBaseGUISupport@@QAEX_NABUD3DXVECTOR3@@@Z ; ioBaseGUISupport::SetMagicCirclePos

; 532  : 				m_bSecondOffCircle = true;
; 533  : 				m_CurCircleEffect = m_OffCircle;

  004ab	ff 75 d0	 push	 DWORD PTR tv655[ebp]
  004ae	8b 4d cc	 mov	 ecx, DWORD PTR tv656[ebp]
  004b1	c6 86 01 10 00
	00 01		 mov	 BYTE PTR [esi+4097], 1
  004b8	ff 15 00 00 00
	00		 call	 DWORD PTR __imp_??4ioHashString@@QAEAAV0@ABV0@@Z

; 534  : 			}

  004be	8d 4d b8	 lea	 ecx, DWORD PTR _szDummyCircle$530885[ebp]
$LN41@ChangeCirc:
  004c1	83 4d fc ff	 or	 DWORD PTR __$EHRec$[ebp+8], -1
  004c5	ff 15 00 00 00
	00		 call	 DWORD PTR __imp_??1ioHashString@@QAE@XZ
$LN1@ChangeCirc:

; 535  : 		}
; 536  : 	}
; 537  : }

  004cb	e8 00 00 00 00	 call	 __EH_epilog3_GS
  004d0	c2 08 00	 ret	 8
_TEXT	ENDS
;	COMDAT text$x
text$x	SEGMENT
__unwindfunclet$?ChangeCircleDropZoneAndHeightGap@ioTwoMagicCircleSkill@@IAEXPAVioBaseChar@@PAVioPlayStage@@@Z$0:
  00000	8d 4d d4	 lea	 ecx, DWORD PTR _szDummyCircle$530859[ebp]
  00003	ff 25 00 00 00
	00		 jmp	 DWORD PTR __imp_??1ioHashString@@QAE@XZ
__unwindfunclet$?ChangeCircleDropZoneAndHeightGap@ioTwoMagicCircleSkill@@IAEXPAVioBaseChar@@PAVioPlayStage@@@Z$1:
  00009	8d 4d d4	 lea	 ecx, DWORD PTR _szDummyCircle$530862[ebp]
  0000c	ff 25 00 00 00
	00		 jmp	 DWORD PTR __imp_??1ioHashString@@QAE@XZ
__unwindfunclet$?ChangeCircleDropZoneAndHeightGap@ioTwoMagicCircleSkill@@IAEXPAVioBaseChar@@PAVioPlayStage@@@Z$2:
  00012	8d 4d d4	 lea	 ecx, DWORD PTR _szDummyCircle$530876[ebp]
  00015	ff 25 00 00 00
	00		 jmp	 DWORD PTR __imp_??1ioHashString@@QAE@XZ
__unwindfunclet$?ChangeCircleDropZoneAndHeightGap@ioTwoMagicCircleSkill@@IAEXPAVioBaseChar@@PAVioPlayStage@@@Z$3:
  0001b	8d 4d d4	 lea	 ecx, DWORD PTR _szDummyCircle$530879[ebp]
  0001e	ff 25 00 00 00
	00		 jmp	 DWORD PTR __imp_??1ioHashString@@QAE@XZ
__unwindfunclet$?ChangeCircleDropZoneAndHeightGap@ioTwoMagicCircleSkill@@IAEXPAVioBaseChar@@PAVioPlayStage@@@Z$4:
  00024	8d 4d d4	 lea	 ecx, DWORD PTR _szDummyCircle$530882[ebp]
  00027	ff 25 00 00 00
	00		 jmp	 DWORD PTR __imp_??1ioHashString@@QAE@XZ
__unwindfunclet$?ChangeCircleDropZoneAndHeightGap@ioTwoMagicCircleSkill@@IAEXPAVioBaseChar@@PAVioPlayStage@@@Z$5:
  0002d	8d 4d b8	 lea	 ecx, DWORD PTR _szDummyCircle$530885[ebp]
  00030	ff 25 00 00 00
	00		 jmp	 DWORD PTR __imp_??1ioHashString@@QAE@XZ
__ehhandler$?ChangeCircleDropZoneAndHeightGap@ioTwoMagicCircleSkill@@IAEXPAVioBaseChar@@PAVioPlayStage@@@Z:
  00036	8b 54 24 08	 mov	 edx, DWORD PTR [esp+8]
  0003a	8d 42 0c	 lea	 eax, DWORD PTR [edx+12]
  0003d	8b 4a b4	 mov	 ecx, DWORD PTR [edx-76]
  00040	33 c8		 xor	 ecx, eax
  00042	e8 00 00 00 00	 call	 @__security_check_cookie@4
  00047	8b 4a fc	 mov	 ecx, DWORD PTR [edx-4]
  0004a	33 c8		 xor	 ecx, eax
  0004c	e8 00 00 00 00	 call	 @__security_check_cookie@4
  00051	b8 00 00 00 00	 mov	 eax, OFFSET __ehfuncinfo$?ChangeCircleDropZoneAndHeightGap@ioTwoMagicCircleSkill@@IAEXPAVioBaseChar@@PAVioPlayStage@@@Z
  00056	e9 00 00 00 00	 jmp	 ___CxxFrameHandler3
text$x	ENDS
?ChangeCircleDropZoneAndHeightGap@ioTwoMagicCircleSkill@@IAEXPAVioBaseChar@@PAVioPlayStage@@@Z ENDP ; ioTwoMagicCircleSkill::ChangeCircleDropZoneAndHeightGap
PUBLIC	??_C@_00CNPNBAHC@?$AA@				; `string'
PUBLIC	?CreateAreaWeapon@ioTwoMagicCircleSkill@@IAEXPAVioBaseChar@@PAVioPlayStage@@@Z ; ioTwoMagicCircleSkill::CreateAreaWeapon
EXTRN	?SetPointToPointInfo@ioAreaWeapon@@QAEXPAVioPlayStage@@UD3DXVECTOR3@@1VioHashString@@2@Z:PROC ; ioAreaWeapon::SetPointToPointInfo
EXTRN	__imp_??0ioHashString@@QAE@ABV0@@Z:PROC
EXTRN	?CreateAreaWeapon@ioAreaWeaponManager@@QAEPAVioAreaWeapon@@ABVioHashString@@000ABUD3DXVECTOR3@@ABUD3DXQUATERNION@@H@Z:PROC ; ioAreaWeaponManager::CreateAreaWeapon
EXTRN	?GetSingleton@ioAreaWeaponManager@@SAAAV1@XZ:PROC ; ioAreaWeaponManager::GetSingleton
EXTRN	__imp_??0ioHashString@@QAE@PBD@Z:PROC
;	COMDAT ??_C@_00CNPNBAHC@?$AA@
; File d:\lost saga for developer\youtube\tutorial\source\src\lsclient\iobasechar.h
CONST	SEGMENT
??_C@_00CNPNBAHC@?$AA@ DB 00H				; `string'
CONST	ENDS
;	COMDAT xdata$x
xdata$x	SEGMENT
__unwindtable$?CreateAreaWeapon@ioTwoMagicCircleSkill@@IAEXPAVioBaseChar@@PAVioPlayStage@@@Z DD 0ffffffffH
	DD	FLAT:__unwindfunclet$?CreateAreaWeapon@ioTwoMagicCircleSkill@@IAEXPAVioBaseChar@@PAVioPlayStage@@@Z$0
	DD	0ffffffffH
	DD	FLAT:__unwindfunclet$?CreateAreaWeapon@ioTwoMagicCircleSkill@@IAEXPAVioBaseChar@@PAVioPlayStage@@@Z$1
__ehfuncinfo$?CreateAreaWeapon@ioTwoMagicCircleSkill@@IAEXPAVioBaseChar@@PAVioPlayStage@@@Z DD 019930522H
	DD	02H
	DD	FLAT:__unwindtable$?CreateAreaWeapon@ioTwoMagicCircleSkill@@IAEXPAVioBaseChar@@PAVioPlayStage@@@Z
	DD	2 DUP(00H)
	DD	2 DUP(00H)
	DD	00H
	DD	01H
; Function compile flags: /Ogsp
; File d:\lost saga for developer\youtube\tutorial\source\src\lsclient\iotwomagiccircleskill.cpp
xdata$x	ENDS
;	COMDAT ?CreateAreaWeapon@ioTwoMagicCircleSkill@@IAEXPAVioBaseChar@@PAVioPlayStage@@@Z
_TEXT	SEGMENT
_qtRot$ = -56						; size = 16
$T534424 = -40						; size = 16
$T534426 = -24						; size = 4
$T534425 = -20						; size = 4
tv194 = -16						; size = 4
__$EHRec$ = -12						; size = 12
_pArea$ = 8						; size = 4
_pChar$ = 8						; size = 4
_pStage$ = 12						; size = 4
?CreateAreaWeapon@ioTwoMagicCircleSkill@@IAEXPAVioBaseChar@@PAVioPlayStage@@@Z PROC ; ioTwoMagicCircleSkill::CreateAreaWeapon, COMDAT
; _this$ = ecx

; 574  : {

  00000	6a 2c		 push	 44			; 0000002cH
  00002	b8 00 00 00 00	 mov	 eax, __ehhandler$?CreateAreaWeapon@ioTwoMagicCircleSkill@@IAEXPAVioBaseChar@@PAVioPlayStage@@@Z
  00007	e8 00 00 00 00	 call	 __EH_prolog3
  0000c	8b d9		 mov	 ebx, ecx

; 575  : 	D3DXQUATERNION qtRot = pChar->GetTargetRot();

  0000e	8b 75 08	 mov	 esi, DWORD PTR _pChar$[ebp]
  00011	81 c6 a4 06 00
	00		 add	 esi, 1700		; 000006a4H
  00017	8d 7d c8	 lea	 edi, DWORD PTR _qtRot$[ebp]
  0001a	a5		 movsd
  0001b	a5		 movsd
  0001c	a5		 movsd

; 576  : 	ioAreaWeapon *pArea = g_AreaWeaponMgr.CreateAreaWeapon( pChar->GetCharName(),
; 577  : 															"",
; 578  : 															GetName(),
; 579  : 															m_AreaWeaponName,
; 580  : 															m_vFirstCirclePos,
; 581  : 															qtRot,
; 582  : 															ioAreaWeapon::CT_NORMAL );

  0001d	68 00 00 00 00	 push	 OFFSET ??_C@_00CNPNBAHC@?$AA@
  00022	8d 4d d8	 lea	 ecx, DWORD PTR $T534424[ebp]
  00025	a5		 movsd
  00026	ff 15 00 00 00
	00		 call	 DWORD PTR __imp_??0ioHashString@@QAE@PBD@Z
  0002c	33 f6		 xor	 esi, esi
  0002e	56		 push	 esi
  0002f	8d 4d c8	 lea	 ecx, DWORD PTR _qtRot$[ebp]
  00032	51		 push	 ecx
  00033	8d 83 24 10 00
	00		 lea	 eax, DWORD PTR [ebx+4132]
  00039	50		 push	 eax
  0003a	89 45 f0	 mov	 DWORD PTR tv194[ebp], eax
  0003d	8d 83 9c 10 00
	00		 lea	 eax, DWORD PTR [ebx+4252]
  00043	50		 push	 eax
  00044	8d 43 24	 lea	 eax, DWORD PTR [ebx+36]
  00047	50		 push	 eax
  00048	8d 45 d8	 lea	 eax, DWORD PTR $T534424[ebp]
  0004b	50		 push	 eax
  0004c	8b 45 08	 mov	 eax, DWORD PTR _pChar$[ebp]
  0004f	05 d4 02 00 00	 add	 eax, 724		; 000002d4H
  00054	50		 push	 eax
  00055	89 75 fc	 mov	 DWORD PTR __$EHRec$[ebp+8], esi
  00058	e8 00 00 00 00	 call	 ?GetSingleton@ioAreaWeaponManager@@SAAAV1@XZ ; ioAreaWeaponManager::GetSingleton
  0005d	8b c8		 mov	 ecx, eax
  0005f	e8 00 00 00 00	 call	 ?CreateAreaWeapon@ioAreaWeaponManager@@QAEPAVioAreaWeapon@@ABVioHashString@@000ABUD3DXVECTOR3@@ABUD3DXQUATERNION@@H@Z ; ioAreaWeaponManager::CreateAreaWeapon
  00064	83 4d fc ff	 or	 DWORD PTR __$EHRec$[ebp+8], -1
  00068	8d 4d d8	 lea	 ecx, DWORD PTR $T534424[ebp]
  0006b	89 45 08	 mov	 DWORD PTR _pArea$[ebp], eax
  0006e	ff 15 00 00 00
	00		 call	 DWORD PTR __imp_??1ioHashString@@QAE@XZ

; 583  : 
; 584  : 	if( pArea )

  00074	39 75 08	 cmp	 DWORD PTR _pArea$[ebp], esi
  00077	74 51		 je	 SHORT $LN1@CreateArea

; 585  : 	{
; 586  : 		pArea->SetPointToPointInfo( pStage,
; 587  : 			m_vFirstCirclePos,
; 588  : 			m_vSecondCirclePos,
; 589  : 			m_szStampCircleEffect,
; 590  : 			m_szStampCircleEffect );

  00079	8b 35 00 00 00
	00		 mov	 esi, DWORD PTR __imp_??0ioHashString@@QAE@ABV0@@Z
  0007f	83 ec 10	 sub	 esp, 16			; 00000010H
  00082	8d bb 78 10 00
	00		 lea	 edi, DWORD PTR [ebx+4216]
  00088	8b cc		 mov	 ecx, esp
  0008a	89 65 ec	 mov	 DWORD PTR $T534425[ebp], esp
  0008d	57		 push	 edi
  0008e	ff d6		 call	 esi
  00090	83 ec 10	 sub	 esp, 16			; 00000010H
  00093	8b cc		 mov	 ecx, esp
  00095	89 65 e8	 mov	 DWORD PTR $T534426[ebp], esp
  00098	57		 push	 edi
  00099	c7 45 fc 01 00
	00 00		 mov	 DWORD PTR __$EHRec$[ebp+8], 1
  000a0	ff d6		 call	 esi
  000a2	8b 4d 08	 mov	 ecx, DWORD PTR _pArea$[ebp]
  000a5	83 4d fc ff	 or	 DWORD PTR __$EHRec$[ebp+8], -1
  000a9	83 ec 0c	 sub	 esp, 12			; 0000000cH
  000ac	8b fc		 mov	 edi, esp
  000ae	8d b3 30 10 00
	00		 lea	 esi, DWORD PTR [ebx+4144]
  000b4	a5		 movsd
  000b5	a5		 movsd
  000b6	a5		 movsd
  000b7	8b 75 f0	 mov	 esi, DWORD PTR tv194[ebp]
  000ba	83 ec 0c	 sub	 esp, 12			; 0000000cH
  000bd	8b fc		 mov	 edi, esp
  000bf	ff 75 0c	 push	 DWORD PTR _pStage$[ebp]
  000c2	a5		 movsd
  000c3	a5		 movsd
  000c4	a5		 movsd
  000c5	e8 00 00 00 00	 call	 ?SetPointToPointInfo@ioAreaWeapon@@QAEXPAVioPlayStage@@UD3DXVECTOR3@@1VioHashString@@2@Z ; ioAreaWeapon::SetPointToPointInfo
$LN1@CreateArea:

; 591  : 	}
; 592  : }

  000ca	e8 00 00 00 00	 call	 __EH_epilog3
  000cf	c2 08 00	 ret	 8
_TEXT	ENDS
;	COMDAT text$x
text$x	SEGMENT
__unwindfunclet$?CreateAreaWeapon@ioTwoMagicCircleSkill@@IAEXPAVioBaseChar@@PAVioPlayStage@@@Z$0:
  00000	8d 4d d8	 lea	 ecx, DWORD PTR $T534424[ebp]
  00003	ff 25 00 00 00
	00		 jmp	 DWORD PTR __imp_??1ioHashString@@QAE@XZ
__unwindfunclet$?CreateAreaWeapon@ioTwoMagicCircleSkill@@IAEXPAVioBaseChar@@PAVioPlayStage@@@Z$1:
  00009	8b 4d ec	 mov	 ecx, DWORD PTR $T534425[ebp]
  0000c	ff 25 00 00 00
	00		 jmp	 DWORD PTR __imp_??1ioHashString@@QAE@XZ
__ehhandler$?CreateAreaWeapon@ioTwoMagicCircleSkill@@IAEXPAVioBaseChar@@PAVioPlayStage@@@Z:
  00012	8b 54 24 08	 mov	 edx, DWORD PTR [esp+8]
  00016	8d 42 0c	 lea	 eax, DWORD PTR [edx+12]
  00019	8b 4a c4	 mov	 ecx, DWORD PTR [edx-60]
  0001c	33 c8		 xor	 ecx, eax
  0001e	e8 00 00 00 00	 call	 @__security_check_cookie@4
  00023	b8 00 00 00 00	 mov	 eax, OFFSET __ehfuncinfo$?CreateAreaWeapon@ioTwoMagicCircleSkill@@IAEXPAVioBaseChar@@PAVioPlayStage@@@Z
  00028	e9 00 00 00 00	 jmp	 ___CxxFrameHandler3
text$x	ENDS
?CreateAreaWeapon@ioTwoMagicCircleSkill@@IAEXPAVioBaseChar@@PAVioPlayStage@@@Z ENDP ; ioTwoMagicCircleSkill::CreateAreaWeapon
PUBLIC	__real@4066800000000000
PUBLIC	__real@4046800000000000
PUBLIC	?CheckCharMoveDir@ioTwoMagicCircleSkill@@IAEXPAVioBaseChar@@@Z ; ioTwoMagicCircleSkill::CheckCharMoveDir
EXTRN	?SetTargetRotToRotate@ioBaseChar@@QAEXABUD3DXQUATERNION@@_N1@Z:PROC ; ioBaseChar::SetTargetRotToRotate
EXTRN	_D3DXQuaternionRotationYawPitchRoll@16:PROC
EXTRN	__imp_?ArrangeHead@ioMath@@SAMM@Z:PROC
EXTRN	?CheckCurDirKey@ioBaseChar@@QAE?AW4DirKeyInput@ioUserKeyInput@@XZ:PROC ; ioBaseChar::CheckCurDirKey
EXTRN	?IsSettedDirection@ioBaseChar@@QBE_NXZ:PROC	; ioBaseChar::IsSettedDirection
;	COMDAT __real@4066800000000000
; File c:\program files (x86)\microsoft directx sdk (june 2010)\include\d3dx9math.h
CONST	SEGMENT
__real@4066800000000000 DQ 04066800000000000r	; 180
CONST	ENDS
;	COMDAT __real@4046800000000000
CONST	SEGMENT
__real@4046800000000000 DQ 04046800000000000r	; 45
; Function compile flags: /Ogsp
; File d:\lost saga for developer\youtube\tutorial\source\src\lsclient\iotwomagiccircleskill.cpp
CONST	ENDS
;	COMDAT ?CheckCharMoveDir@ioTwoMagicCircleSkill@@IAEXPAVioBaseChar@@@Z
_TEXT	SEGMENT
_qtRotate$531044 = -16					; size = 16
_fYawR$531039 = 8					; size = 4
_pChar$ = 8						; size = 4
?CheckCharMoveDir@ioTwoMagicCircleSkill@@IAEXPAVioBaseChar@@@Z PROC ; ioTwoMagicCircleSkill::CheckCharMoveDir, COMDAT
; _this$ = ecx

; 781  : {

  00000	55		 push	 ebp
  00001	8b ec		 mov	 ebp, esp
  00003	83 ec 10	 sub	 esp, 16			; 00000010H
  00006	56		 push	 esi

; 782  : 	if( !pChar ) return;

  00007	8b 75 08	 mov	 esi, DWORD PTR _pChar$[ebp]
  0000a	85 f6		 test	 esi, esi
  0000c	74 78		 je	 SHORT $LN1@CheckCharM

; 783  : 
; 784  : 	if( pChar->IsSettedDirection() )

  0000e	8b ce		 mov	 ecx, esi
  00010	e8 00 00 00 00	 call	 ?IsSettedDirection@ioBaseChar@@QBE_NXZ ; ioBaseChar::IsSettedDirection
  00015	84 c0		 test	 al, al
  00017	74 6d		 je	 SHORT $LN1@CheckCharM

; 785  : 	{
; 786  : 		ioUserKeyInput::DirKeyInput eCurKey = pChar->CheckCurDirKey();

  00019	8b ce		 mov	 ecx, esi
  0001b	e8 00 00 00 00	 call	 ?CheckCurDirKey@ioBaseChar@@QAE?AW4DirKeyInput@ioUserKeyInput@@XZ ; ioBaseChar::CheckCurDirKey

; 787  : 
; 788  : 		float fYawD = 180.0f + 45.0f * ( eCurKey - ioUserKeyInput::DKI_UP );

  00020	0f 57 c0	 xorps	 xmm0, xmm0
  00023	48		 dec	 eax
  00024	f3 0f 2a c0	 cvtsi2ss xmm0, eax
  00028	0f 5a c0	 cvtps2pd xmm0, xmm0
  0002b	f2 0f 59 05 00
	00 00 00	 mulsd	 xmm0, QWORD PTR __real@4046800000000000
  00033	f2 0f 58 05 00
	00 00 00	 addsd	 xmm0, QWORD PTR __real@4066800000000000

; 789  : 		fYawD = ioMath::ArrangeHead( fYawD );

  0003b	51		 push	 ecx
  0003c	66 0f 5a c0	 cvtpd2ps xmm0, xmm0
  00040	f3 0f 11 04 24	 movss	 DWORD PTR [esp], xmm0
  00045	ff 15 00 00 00
	00		 call	 DWORD PTR __imp_?ArrangeHead@ioMath@@SAMM@Z

; 790  : 
; 791  : 		float fYawR = DEGtoRAD( fYawD );

  0004b	dc 0d 00 00 00
	00		 fmul	 QWORD PTR __real@3f91df46a2526c7a

; 792  : 		D3DXQUATERNION qtRotate;
; 793  : 		D3DXQuaternionRotationYawPitchRoll( &qtRotate, fYawR, 0.0f, 0.0f );

  00051	0f 57 c0	 xorps	 xmm0, xmm0
  00054	f3 0f 11 04 24	 movss	 DWORD PTR [esp], xmm0
  00059	51		 push	 ecx
  0005a	d9 5d 08	 fstp	 DWORD PTR _fYawR$531039[ebp]
  0005d	51		 push	 ecx
  0005e	f3 0f 11 44 24
	04		 movss	 DWORD PTR [esp+4], xmm0
  00064	f3 0f 10 45 08	 movss	 xmm0, DWORD PTR _fYawR$531039[ebp]
  00069	8d 45 f0	 lea	 eax, DWORD PTR _qtRotate$531044[ebp]
  0006c	f3 0f 11 04 24	 movss	 DWORD PTR [esp], xmm0
  00071	50		 push	 eax
  00072	e8 00 00 00 00	 call	 _D3DXQuaternionRotationYawPitchRoll@16

; 794  : 
; 795  : 		pChar->SetTargetRotToRotate( qtRotate, true, false );

  00077	6a 00		 push	 0
  00079	6a 01		 push	 1
  0007b	8d 45 f0	 lea	 eax, DWORD PTR _qtRotate$531044[ebp]
  0007e	50		 push	 eax
  0007f	8b ce		 mov	 ecx, esi
  00081	e8 00 00 00 00	 call	 ?SetTargetRotToRotate@ioBaseChar@@QAEXABUD3DXQUATERNION@@_N1@Z ; ioBaseChar::SetTargetRotToRotate
$LN1@CheckCharM:
  00086	5e		 pop	 esi

; 796  : 	}
; 797  : }

  00087	c9		 leave
  00088	c2 04 00	 ret	 4
?CheckCharMoveDir@ioTwoMagicCircleSkill@@IAEXPAVioBaseChar@@@Z ENDP ; ioTwoMagicCircleSkill::CheckCharMoveDir
_TEXT	ENDS
PUBLIC	__$ArrayPad$
PUBLIC	??$LoadFloat_e@$0BJ@@ioINILoader@@QAEMAAY0BJ@$$CBDM@Z ; ioINILoader::LoadFloat_e<25>
EXTRN	__imp_?LoadFloat@ioINILoader@@QAEMPBDM@Z:PROC
EXTRN	___security_cookie:DWORD
; Function compile flags: /Ogsp
; File d:\lost saga for developer\youtube\tutorial\source\src\io3dengine\ioiniloader.h
;	COMDAT ??$LoadFloat_e@$0BJ@@ioINILoader@@QAEMAAY0BJ@$$CBDM@Z
_TEXT	SEGMENT
__k$ = -36						; size = 25
__$ArrayPad$ = -4					; size = 4
_k$ = 8							; size = 4
_f$ = 12						; size = 4
??$LoadFloat_e@$0BJ@@ioINILoader@@QAEMAAY0BJ@$$CBDM@Z PROC ; ioINILoader::LoadFloat_e<25>, COMDAT
; _this$ = ecx

; 135  : 	{

  00000	55		 push	 ebp
  00001	8b ec		 mov	 ebp, esp
  00003	83 ec 24	 sub	 esp, 36			; 00000024H
  00006	a1 00 00 00 00	 mov	 eax, DWORD PTR ___security_cookie
  0000b	33 c5		 xor	 eax, ebp
  0000d	89 45 fc	 mov	 DWORD PTR __$ArrayPad$[ebp], eax
  00010	8b 45 08	 mov	 eax, DWORD PTR _k$[ebp]

; 136  : 		_ENCSTR(k, _k);

  00013	8a 10		 mov	 dl, BYTE PTR [eax]
  00015	53		 push	 ebx
  00016	56		 push	 esi
  00017	8b f1		 mov	 esi, ecx
  00019	84 d2		 test	 dl, dl
  0001b	0f 84 5f 02 00
	00		 je	 $LN96@LoadFloat_
  00021	80 f2 ed	 xor	 dl, -19			; ffffffedH
  00024	88 55 dc	 mov	 BYTE PTR __k$[ebp], dl
  00027	8a 50 01	 mov	 dl, BYTE PTR [eax+1]
  0002a	84 d2		 test	 dl, dl
  0002c	0f 84 48 02 00
	00		 je	 $LN95@LoadFloat_
  00032	b1 ec		 mov	 cl, -20			; ffffffecH
  00034	32 d1		 xor	 dl, cl
  00036	88 55 dd	 mov	 BYTE PTR __k$[ebp+1], dl
  00039	8a 50 02	 mov	 dl, BYTE PTR [eax+2]
  0003c	84 d2		 test	 dl, dl
  0003e	0f 84 30 02 00
	00		 je	 $LN94@LoadFloat_
  00044	b3 eb		 mov	 bl, -21			; ffffffebH
  00046	32 d3		 xor	 dl, bl
  00048	88 55 de	 mov	 BYTE PTR __k$[ebp+2], dl
  0004b	8a 50 03	 mov	 dl, BYTE PTR [eax+3]
  0004e	84 d2		 test	 dl, dl
  00050	0f 84 18 02 00
	00		 je	 $LN93@LoadFloat_
  00056	80 f2 ea	 xor	 dl, -22			; ffffffeaH
  00059	88 55 df	 mov	 BYTE PTR __k$[ebp+3], dl
  0005c	8a 50 04	 mov	 dl, BYTE PTR [eax+4]
  0005f	84 d2		 test	 dl, dl
  00061	0f 84 01 02 00
	00		 je	 $LN92@LoadFloat_
  00067	80 f2 ed	 xor	 dl, -19			; ffffffedH
  0006a	88 55 e0	 mov	 BYTE PTR __k$[ebp+4], dl
  0006d	8a 50 05	 mov	 dl, BYTE PTR [eax+5]
  00070	84 d2		 test	 dl, dl
  00072	0f 84 eb 01 00
	00		 je	 $LN91@LoadFloat_
  00078	32 d1		 xor	 dl, cl
  0007a	88 55 e1	 mov	 BYTE PTR __k$[ebp+5], dl
  0007d	8a 50 06	 mov	 dl, BYTE PTR [eax+6]
  00080	84 d2		 test	 dl, dl
  00082	0f 84 d6 01 00
	00		 je	 $LN90@LoadFloat_
  00088	32 d3		 xor	 dl, bl
  0008a	88 55 e2	 mov	 BYTE PTR __k$[ebp+6], dl
  0008d	8a 50 07	 mov	 dl, BYTE PTR [eax+7]
  00090	84 d2		 test	 dl, dl
  00092	0f 84 c0 01 00
	00		 je	 $LN89@LoadFloat_
  00098	80 f2 ea	 xor	 dl, -22			; ffffffeaH
  0009b	88 55 e3	 mov	 BYTE PTR __k$[ebp+7], dl
  0009e	8a 50 08	 mov	 dl, BYTE PTR [eax+8]
  000a1	84 d2		 test	 dl, dl
  000a3	0f 84 a9 01 00
	00		 je	 $LN88@LoadFloat_
  000a9	80 f2 ed	 xor	 dl, -19			; ffffffedH
  000ac	88 55 e4	 mov	 BYTE PTR __k$[ebp+8], dl
  000af	8a 50 09	 mov	 dl, BYTE PTR [eax+9]
  000b2	84 d2		 test	 dl, dl
  000b4	0f 84 93 01 00
	00		 je	 $LN87@LoadFloat_
  000ba	32 d1		 xor	 dl, cl
  000bc	88 55 e5	 mov	 BYTE PTR __k$[ebp+9], dl
  000bf	8a 50 0a	 mov	 dl, BYTE PTR [eax+10]
  000c2	84 d2		 test	 dl, dl
  000c4	0f 84 7e 01 00
	00		 je	 $LN86@LoadFloat_
  000ca	32 d3		 xor	 dl, bl
  000cc	88 55 e6	 mov	 BYTE PTR __k$[ebp+10], dl
  000cf	8a 50 0b	 mov	 dl, BYTE PTR [eax+11]
  000d2	84 d2		 test	 dl, dl
  000d4	0f 84 68 01 00
	00		 je	 $LN85@LoadFloat_
  000da	80 f2 ea	 xor	 dl, -22			; ffffffeaH
  000dd	88 55 e7	 mov	 BYTE PTR __k$[ebp+11], dl
  000e0	8a 50 0c	 mov	 dl, BYTE PTR [eax+12]
  000e3	84 d2		 test	 dl, dl
  000e5	0f 84 51 01 00
	00		 je	 $LN84@LoadFloat_
  000eb	80 f2 ed	 xor	 dl, -19			; ffffffedH
  000ee	88 55 e8	 mov	 BYTE PTR __k$[ebp+12], dl
  000f1	8a 50 0d	 mov	 dl, BYTE PTR [eax+13]
  000f4	84 d2		 test	 dl, dl
  000f6	0f 84 3b 01 00
	00		 je	 $LN83@LoadFloat_
  000fc	32 d1		 xor	 dl, cl
  000fe	88 55 e9	 mov	 BYTE PTR __k$[ebp+13], dl
  00101	8a 50 0e	 mov	 dl, BYTE PTR [eax+14]
  00104	84 d2		 test	 dl, dl
  00106	0f 84 26 01 00
	00		 je	 $LN82@LoadFloat_
  0010c	32 d3		 xor	 dl, bl
  0010e	88 55 ea	 mov	 BYTE PTR __k$[ebp+14], dl
  00111	8a 50 0f	 mov	 dl, BYTE PTR [eax+15]
  00114	84 d2		 test	 dl, dl
  00116	0f 84 10 01 00
	00		 je	 $LN81@LoadFloat_
  0011c	80 f2 ea	 xor	 dl, -22			; ffffffeaH
  0011f	88 55 eb	 mov	 BYTE PTR __k$[ebp+15], dl
  00122	8a 50 10	 mov	 dl, BYTE PTR [eax+16]
  00125	84 d2		 test	 dl, dl
  00127	0f 84 f9 00 00
	00		 je	 $LN80@LoadFloat_
  0012d	80 f2 ed	 xor	 dl, -19			; ffffffedH
  00130	88 55 ec	 mov	 BYTE PTR __k$[ebp+16], dl
  00133	8a 50 11	 mov	 dl, BYTE PTR [eax+17]
  00136	84 d2		 test	 dl, dl
  00138	0f 84 e3 00 00
	00		 je	 $LN79@LoadFloat_
  0013e	32 d1		 xor	 dl, cl
  00140	88 55 ed	 mov	 BYTE PTR __k$[ebp+17], dl
  00143	8a 50 12	 mov	 dl, BYTE PTR [eax+18]
  00146	84 d2		 test	 dl, dl
  00148	0f 84 ce 00 00
	00		 je	 $LN78@LoadFloat_
  0014e	32 d3		 xor	 dl, bl
  00150	88 55 ee	 mov	 BYTE PTR __k$[ebp+18], dl
  00153	8a 50 13	 mov	 dl, BYTE PTR [eax+19]
  00156	84 d2		 test	 dl, dl
  00158	0f 84 b8 00 00
	00		 je	 $LN77@LoadFloat_
  0015e	80 f2 ea	 xor	 dl, -22			; ffffffeaH
  00161	88 55 ef	 mov	 BYTE PTR __k$[ebp+19], dl
  00164	8a 50 14	 mov	 dl, BYTE PTR [eax+20]
  00167	84 d2		 test	 dl, dl
  00169	0f 84 a1 00 00
	00		 je	 $LN76@LoadFloat_
  0016f	80 f2 ed	 xor	 dl, -19			; ffffffedH
  00172	88 55 f0	 mov	 BYTE PTR __k$[ebp+20], dl
  00175	8a 50 15	 mov	 dl, BYTE PTR [eax+21]
  00178	84 d2		 test	 dl, dl
  0017a	0f 84 8b 00 00
	00		 je	 $LN75@LoadFloat_
  00180	32 d1		 xor	 dl, cl
  00182	88 55 f1	 mov	 BYTE PTR __k$[ebp+21], dl
  00185	8a 50 16	 mov	 dl, BYTE PTR [eax+22]
  00188	84 d2		 test	 dl, dl
  0018a	74 7a		 je	 SHORT $LN74@LoadFloat_
  0018c	32 d3		 xor	 dl, bl
  0018e	88 55 f2	 mov	 BYTE PTR __k$[ebp+22], dl
  00191	8a 50 17	 mov	 dl, BYTE PTR [eax+23]
  00194	84 d2		 test	 dl, dl
  00196	74 68		 je	 SHORT $LN73@LoadFloat_
  00198	80 f2 ea	 xor	 dl, -22			; ffffffeaH
  0019b	80 78 18 00	 cmp	 BYTE PTR [eax+24], 0
  0019f	88 55 f3	 mov	 BYTE PTR __k$[ebp+23], dl
  001a2	0f 84 dc 00 00
	00		 je	 $LN1@LoadFloat_
  001a8	8a 50 19	 mov	 dl, BYTE PTR [eax+25]
  001ab	84 d2		 test	 dl, dl
  001ad	74 49		 je	 SHORT $LN71@LoadFloat_
  001af	32 d1		 xor	 dl, cl
  001b1	88 55 f5	 mov	 BYTE PTR __k$[ebp+25], dl
  001b4	8a 50 1a	 mov	 dl, BYTE PTR [eax+26]
  001b7	84 d2		 test	 dl, dl
  001b9	74 35		 je	 SHORT $LN70@LoadFloat_
  001bb	32 d3		 xor	 dl, bl
  001bd	88 55 f6	 mov	 BYTE PTR __k$[ebp+26], dl
  001c0	8a 50 1b	 mov	 dl, BYTE PTR [eax+27]
  001c3	84 d2		 test	 dl, dl
  001c5	74 20		 je	 SHORT $LN69@LoadFloat_
  001c7	8a 40 1c	 mov	 al, BYTE PTR [eax+28]
  001ca	80 f2 ea	 xor	 dl, -22			; ffffffeaH
  001cd	88 55 f7	 mov	 BYTE PTR __k$[ebp+27], dl
  001d0	84 c0		 test	 al, al
  001d2	74 0a		 je	 SHORT $LN68@LoadFloat_
  001d4	34 ed		 xor	 al, -19			; ffffffedH
  001d6	88 45 f8	 mov	 BYTE PTR __k$[ebp+28], al
  001d9	e9 a6 00 00 00	 jmp	 $LN1@LoadFloat_
$LN68@LoadFloat_:
  001de	c6 45 f8 ed	 mov	 BYTE PTR __k$[ebp+28], -19 ; ffffffedH
  001e2	e9 9d 00 00 00	 jmp	 $LN1@LoadFloat_
$LN69@LoadFloat_:
  001e7	c6 45 f7 ea	 mov	 BYTE PTR __k$[ebp+27], -22 ; ffffffeaH
  001eb	e9 94 00 00 00	 jmp	 $LN1@LoadFloat_
$LN70@LoadFloat_:
  001f0	88 5d f6	 mov	 BYTE PTR __k$[ebp+26], bl
  001f3	e9 8c 00 00 00	 jmp	 $LN1@LoadFloat_
$LN71@LoadFloat_:
  001f8	88 4d f5	 mov	 BYTE PTR __k$[ebp+25], cl
  001fb	e9 84 00 00 00	 jmp	 $LN1@LoadFloat_
$LN73@LoadFloat_:
  00200	c6 45 f3 ea	 mov	 BYTE PTR __k$[ebp+23], -22 ; ffffffeaH
  00204	eb 7e		 jmp	 SHORT $LN1@LoadFloat_
$LN74@LoadFloat_:
  00206	88 5d f2	 mov	 BYTE PTR __k$[ebp+22], bl
  00209	eb 79		 jmp	 SHORT $LN1@LoadFloat_
$LN75@LoadFloat_:
  0020b	88 4d f1	 mov	 BYTE PTR __k$[ebp+21], cl
  0020e	eb 74		 jmp	 SHORT $LN1@LoadFloat_
$LN76@LoadFloat_:
  00210	c6 45 f0 ed	 mov	 BYTE PTR __k$[ebp+20], -19 ; ffffffedH
  00214	eb 6e		 jmp	 SHORT $LN1@LoadFloat_
$LN77@LoadFloat_:
  00216	c6 45 ef ea	 mov	 BYTE PTR __k$[ebp+19], -22 ; ffffffeaH
  0021a	eb 68		 jmp	 SHORT $LN1@LoadFloat_
$LN78@LoadFloat_:
  0021c	88 5d ee	 mov	 BYTE PTR __k$[ebp+18], bl
  0021f	eb 63		 jmp	 SHORT $LN1@LoadFloat_
$LN79@LoadFloat_:
  00221	88 4d ed	 mov	 BYTE PTR __k$[ebp+17], cl
  00224	eb 5e		 jmp	 SHORT $LN1@LoadFloat_
$LN80@LoadFloat_:
  00226	c6 45 ec ed	 mov	 BYTE PTR __k$[ebp+16], -19 ; ffffffedH
  0022a	eb 58		 jmp	 SHORT $LN1@LoadFloat_
$LN81@LoadFloat_:
  0022c	c6 45 eb ea	 mov	 BYTE PTR __k$[ebp+15], -22 ; ffffffeaH
  00230	eb 52		 jmp	 SHORT $LN1@LoadFloat_
$LN82@LoadFloat_:
  00232	88 5d ea	 mov	 BYTE PTR __k$[ebp+14], bl
  00235	eb 4d		 jmp	 SHORT $LN1@LoadFloat_
$LN83@LoadFloat_:
  00237	88 4d e9	 mov	 BYTE PTR __k$[ebp+13], cl
  0023a	eb 48		 jmp	 SHORT $LN1@LoadFloat_
$LN84@LoadFloat_:
  0023c	c6 45 e8 ed	 mov	 BYTE PTR __k$[ebp+12], -19 ; ffffffedH
  00240	eb 42		 jmp	 SHORT $LN1@LoadFloat_
$LN85@LoadFloat_:
  00242	c6 45 e7 ea	 mov	 BYTE PTR __k$[ebp+11], -22 ; ffffffeaH
  00246	eb 3c		 jmp	 SHORT $LN1@LoadFloat_
$LN86@LoadFloat_:
  00248	88 5d e6	 mov	 BYTE PTR __k$[ebp+10], bl
  0024b	eb 37		 jmp	 SHORT $LN1@LoadFloat_
$LN87@LoadFloat_:
  0024d	88 4d e5	 mov	 BYTE PTR __k$[ebp+9], cl
  00250	eb 32		 jmp	 SHORT $LN1@LoadFloat_
$LN88@LoadFloat_:
  00252	c6 45 e4 ed	 mov	 BYTE PTR __k$[ebp+8], -19 ; ffffffedH
  00256	eb 2c		 jmp	 SHORT $LN1@LoadFloat_
$LN89@LoadFloat_:
  00258	c6 45 e3 ea	 mov	 BYTE PTR __k$[ebp+7], -22 ; ffffffeaH
  0025c	eb 26		 jmp	 SHORT $LN1@LoadFloat_
$LN90@LoadFloat_:
  0025e	88 5d e2	 mov	 BYTE PTR __k$[ebp+6], bl
  00261	eb 21		 jmp	 SHORT $LN1@LoadFloat_
$LN91@LoadFloat_:
  00263	88 4d e1	 mov	 BYTE PTR __k$[ebp+5], cl
  00266	eb 1c		 jmp	 SHORT $LN1@LoadFloat_
$LN92@LoadFloat_:
  00268	c6 45 e0 ed	 mov	 BYTE PTR __k$[ebp+4], -19 ; ffffffedH
  0026c	eb 16		 jmp	 SHORT $LN1@LoadFloat_
$LN93@LoadFloat_:
  0026e	c6 45 df ea	 mov	 BYTE PTR __k$[ebp+3], -22 ; ffffffeaH
  00272	eb 10		 jmp	 SHORT $LN1@LoadFloat_
$LN94@LoadFloat_:
  00274	c6 45 de eb	 mov	 BYTE PTR __k$[ebp+2], -21 ; ffffffebH
  00278	eb 0a		 jmp	 SHORT $LN1@LoadFloat_
$LN95@LoadFloat_:
  0027a	c6 45 dd ec	 mov	 BYTE PTR __k$[ebp+1], -20 ; ffffffecH
  0027e	eb 04		 jmp	 SHORT $LN1@LoadFloat_
$LN96@LoadFloat_:
  00280	c6 45 dc ed	 mov	 BYTE PTR __k$[ebp], -19	; ffffffedH
$LN1@LoadFloat_:
  00284	6a 06		 push	 6
  00286	8d 45 dc	 lea	 eax, DWORD PTR __k$[ebp]
  00289	c6 45 f4 00	 mov	 BYTE PTR __k$[ebp+24], 0
  0028d	5a		 pop	 edx
$LL104@LoadFloat_:
  0028e	81 30 ed ec eb
	ea		 xor	 DWORD PTR [eax], -353637139 ; eaebecedH
  00294	83 c0 04	 add	 eax, 4
  00297	4a		 dec	 edx
  00298	75 f4		 jne	 SHORT $LL104@LoadFloat_

; 137  : 		return LoadFloat(_k, f);

  0029a	f3 0f 10 45 0c	 movss	 xmm0, DWORD PTR _f$[ebp]
  0029f	51		 push	 ecx
  002a0	8d 45 dc	 lea	 eax, DWORD PTR __k$[ebp]
  002a3	f3 0f 11 04 24	 movss	 DWORD PTR [esp], xmm0
  002a8	50		 push	 eax
  002a9	8b ce		 mov	 ecx, esi
  002ab	ff 15 00 00 00
	00		 call	 DWORD PTR __imp_?LoadFloat@ioINILoader@@QAEMPBDM@Z

; 138  : 	}

  002b1	8b 4d fc	 mov	 ecx, DWORD PTR __$ArrayPad$[ebp]
  002b4	5e		 pop	 esi
  002b5	33 cd		 xor	 ecx, ebp
  002b7	5b		 pop	 ebx
  002b8	e8 00 00 00 00	 call	 @__security_check_cookie@4
  002bd	c9		 leave
  002be	c2 08 00	 ret	 8
??$LoadFloat_e@$0BJ@@ioINILoader@@QAEMAAY0BJ@$$CBDM@Z ENDP ; ioINILoader::LoadFloat_e<25>
_TEXT	ENDS
PUBLIC	__$ArrayPad$
PUBLIC	??$LoadFloat_e@$0BO@@ioINILoader@@QAEMAAY0BO@$$CBDM@Z ; ioINILoader::LoadFloat_e<30>
; Function compile flags: /Ogsp
;	COMDAT ??$LoadFloat_e@$0BO@@ioINILoader@@QAEMAAY0BO@$$CBDM@Z
_TEXT	SEGMENT
__k$ = -40						; size = 30
__$ArrayPad$ = -4					; size = 4
_k$ = 8							; size = 4
_f$ = 12						; size = 4
??$LoadFloat_e@$0BO@@ioINILoader@@QAEMAAY0BO@$$CBDM@Z PROC ; ioINILoader::LoadFloat_e<30>, COMDAT
; _this$ = ecx

; 135  : 	{

  00000	55		 push	 ebp
  00001	8b ec		 mov	 ebp, esp
  00003	83 ec 28	 sub	 esp, 40			; 00000028H
  00006	a1 00 00 00 00	 mov	 eax, DWORD PTR ___security_cookie
  0000b	33 c5		 xor	 eax, ebp
  0000d	89 45 fc	 mov	 DWORD PTR __$ArrayPad$[ebp], eax
  00010	8b 45 08	 mov	 eax, DWORD PTR _k$[ebp]

; 136  : 		_ENCSTR(k, _k);

  00013	8a 10		 mov	 dl, BYTE PTR [eax]
  00015	53		 push	 ebx
  00016	56		 push	 esi
  00017	8b f1		 mov	 esi, ecx
  00019	84 d2		 test	 dl, dl
  0001b	0f 84 dd 02 00
	00		 je	 $LN96@LoadFloat_@2
  00021	80 f2 ed	 xor	 dl, -19			; ffffffedH
  00024	88 55 d8	 mov	 BYTE PTR __k$[ebp], dl
  00027	8a 50 01	 mov	 dl, BYTE PTR [eax+1]
  0002a	84 d2		 test	 dl, dl
  0002c	0f 84 c6 02 00
	00		 je	 $LN95@LoadFloat_@2
  00032	80 f2 ec	 xor	 dl, -20			; ffffffecH
  00035	88 55 d9	 mov	 BYTE PTR __k$[ebp+1], dl
  00038	8a 50 02	 mov	 dl, BYTE PTR [eax+2]
  0003b	84 d2		 test	 dl, dl
  0003d	0f 84 af 02 00
	00		 je	 $LN94@LoadFloat_@2
  00043	b1 eb		 mov	 cl, -21			; ffffffebH
  00045	32 d1		 xor	 dl, cl
  00047	88 55 da	 mov	 BYTE PTR __k$[ebp+2], dl
  0004a	8a 50 03	 mov	 dl, BYTE PTR [eax+3]
  0004d	84 d2		 test	 dl, dl
  0004f	0f 84 97 02 00
	00		 je	 $LN93@LoadFloat_@2
  00055	b3 ea		 mov	 bl, -22			; ffffffeaH
  00057	32 d3		 xor	 dl, bl
  00059	88 55 db	 mov	 BYTE PTR __k$[ebp+3], dl
  0005c	8a 50 04	 mov	 dl, BYTE PTR [eax+4]
  0005f	84 d2		 test	 dl, dl
  00061	0f 84 7f 02 00
	00		 je	 $LN92@LoadFloat_@2
  00067	80 f2 ed	 xor	 dl, -19			; ffffffedH
  0006a	88 55 dc	 mov	 BYTE PTR __k$[ebp+4], dl
  0006d	8a 50 05	 mov	 dl, BYTE PTR [eax+5]
  00070	84 d2		 test	 dl, dl
  00072	0f 84 68 02 00
	00		 je	 $LN91@LoadFloat_@2
  00078	80 f2 ec	 xor	 dl, -20			; ffffffecH
  0007b	88 55 dd	 mov	 BYTE PTR __k$[ebp+5], dl
  0007e	8a 50 06	 mov	 dl, BYTE PTR [eax+6]
  00081	84 d2		 test	 dl, dl
  00083	0f 84 52 02 00
	00		 je	 $LN90@LoadFloat_@2
  00089	32 d1		 xor	 dl, cl
  0008b	88 55 de	 mov	 BYTE PTR __k$[ebp+6], dl
  0008e	8a 50 07	 mov	 dl, BYTE PTR [eax+7]
  00091	84 d2		 test	 dl, dl
  00093	0f 84 3d 02 00
	00		 je	 $LN89@LoadFloat_@2
  00099	32 d3		 xor	 dl, bl
  0009b	88 55 df	 mov	 BYTE PTR __k$[ebp+7], dl
  0009e	8a 50 08	 mov	 dl, BYTE PTR [eax+8]
  000a1	84 d2		 test	 dl, dl
  000a3	0f 84 27 02 00
	00		 je	 $LN88@LoadFloat_@2
  000a9	80 f2 ed	 xor	 dl, -19			; ffffffedH
  000ac	88 55 e0	 mov	 BYTE PTR __k$[ebp+8], dl
  000af	8a 50 09	 mov	 dl, BYTE PTR [eax+9]
  000b2	84 d2		 test	 dl, dl
  000b4	0f 84 10 02 00
	00		 je	 $LN87@LoadFloat_@2
  000ba	80 f2 ec	 xor	 dl, -20			; ffffffecH
  000bd	88 55 e1	 mov	 BYTE PTR __k$[ebp+9], dl
  000c0	8a 50 0a	 mov	 dl, BYTE PTR [eax+10]
  000c3	84 d2		 test	 dl, dl
  000c5	0f 84 fa 01 00
	00		 je	 $LN86@LoadFloat_@2
  000cb	32 d1		 xor	 dl, cl
  000cd	88 55 e2	 mov	 BYTE PTR __k$[ebp+10], dl
  000d0	8a 50 0b	 mov	 dl, BYTE PTR [eax+11]
  000d3	84 d2		 test	 dl, dl
  000d5	0f 84 e5 01 00
	00		 je	 $LN85@LoadFloat_@2
  000db	32 d3		 xor	 dl, bl
  000dd	88 55 e3	 mov	 BYTE PTR __k$[ebp+11], dl
  000e0	8a 50 0c	 mov	 dl, BYTE PTR [eax+12]
  000e3	84 d2		 test	 dl, dl
  000e5	0f 84 cf 01 00
	00		 je	 $LN84@LoadFloat_@2
  000eb	80 f2 ed	 xor	 dl, -19			; ffffffedH
  000ee	88 55 e4	 mov	 BYTE PTR __k$[ebp+12], dl
  000f1	8a 50 0d	 mov	 dl, BYTE PTR [eax+13]
  000f4	84 d2		 test	 dl, dl
  000f6	0f 84 b8 01 00
	00		 je	 $LN83@LoadFloat_@2
  000fc	80 f2 ec	 xor	 dl, -20			; ffffffecH
  000ff	88 55 e5	 mov	 BYTE PTR __k$[ebp+13], dl
  00102	8a 50 0e	 mov	 dl, BYTE PTR [eax+14]
  00105	84 d2		 test	 dl, dl
  00107	0f 84 a2 01 00
	00		 je	 $LN82@LoadFloat_@2
  0010d	32 d1		 xor	 dl, cl
  0010f	88 55 e6	 mov	 BYTE PTR __k$[ebp+14], dl
  00112	8a 50 0f	 mov	 dl, BYTE PTR [eax+15]
  00115	84 d2		 test	 dl, dl
  00117	0f 84 8d 01 00
	00		 je	 $LN81@LoadFloat_@2
  0011d	32 d3		 xor	 dl, bl
  0011f	88 55 e7	 mov	 BYTE PTR __k$[ebp+15], dl
  00122	8a 50 10	 mov	 dl, BYTE PTR [eax+16]
  00125	84 d2		 test	 dl, dl
  00127	0f 84 77 01 00
	00		 je	 $LN80@LoadFloat_@2
  0012d	80 f2 ed	 xor	 dl, -19			; ffffffedH
  00130	88 55 e8	 mov	 BYTE PTR __k$[ebp+16], dl
  00133	8a 50 11	 mov	 dl, BYTE PTR [eax+17]
  00136	84 d2		 test	 dl, dl
  00138	0f 84 60 01 00
	00		 je	 $LN79@LoadFloat_@2
  0013e	80 f2 ec	 xor	 dl, -20			; ffffffecH
  00141	88 55 e9	 mov	 BYTE PTR __k$[ebp+17], dl
  00144	8a 50 12	 mov	 dl, BYTE PTR [eax+18]
  00147	84 d2		 test	 dl, dl
  00149	0f 84 4a 01 00
	00		 je	 $LN78@LoadFloat_@2
  0014f	32 d1		 xor	 dl, cl
  00151	88 55 ea	 mov	 BYTE PTR __k$[ebp+18], dl
  00154	8a 50 13	 mov	 dl, BYTE PTR [eax+19]
  00157	84 d2		 test	 dl, dl
  00159	0f 84 35 01 00
	00		 je	 $LN77@LoadFloat_@2
  0015f	32 d3		 xor	 dl, bl
  00161	88 55 eb	 mov	 BYTE PTR __k$[ebp+19], dl
  00164	8a 50 14	 mov	 dl, BYTE PTR [eax+20]
  00167	84 d2		 test	 dl, dl
  00169	0f 84 1f 01 00
	00		 je	 $LN76@LoadFloat_@2
  0016f	80 f2 ed	 xor	 dl, -19			; ffffffedH
  00172	88 55 ec	 mov	 BYTE PTR __k$[ebp+20], dl
  00175	8a 50 15	 mov	 dl, BYTE PTR [eax+21]
  00178	84 d2		 test	 dl, dl
  0017a	0f 84 08 01 00
	00		 je	 $LN75@LoadFloat_@2
  00180	80 f2 ec	 xor	 dl, -20			; ffffffecH
  00183	88 55 ed	 mov	 BYTE PTR __k$[ebp+21], dl
  00186	8a 50 16	 mov	 dl, BYTE PTR [eax+22]
  00189	84 d2		 test	 dl, dl
  0018b	0f 84 f2 00 00
	00		 je	 $LN74@LoadFloat_@2
  00191	32 d1		 xor	 dl, cl
  00193	88 55 ee	 mov	 BYTE PTR __k$[ebp+22], dl
  00196	8a 50 17	 mov	 dl, BYTE PTR [eax+23]
  00199	84 d2		 test	 dl, dl
  0019b	0f 84 dd 00 00
	00		 je	 $LN73@LoadFloat_@2
  001a1	32 d3		 xor	 dl, bl
  001a3	88 55 ef	 mov	 BYTE PTR __k$[ebp+23], dl
  001a6	8a 50 18	 mov	 dl, BYTE PTR [eax+24]
  001a9	84 d2		 test	 dl, dl
  001ab	0f 84 c4 00 00
	00		 je	 $LN72@LoadFloat_@2
  001b1	80 f2 ed	 xor	 dl, -19			; ffffffedH
  001b4	88 55 f0	 mov	 BYTE PTR __k$[ebp+24], dl
  001b7	8a 50 19	 mov	 dl, BYTE PTR [eax+25]
  001ba	84 d2		 test	 dl, dl
  001bc	0f 84 aa 00 00
	00		 je	 $LN71@LoadFloat_@2
  001c2	80 f2 ec	 xor	 dl, -20			; ffffffecH
  001c5	88 55 f1	 mov	 BYTE PTR __k$[ebp+25], dl
  001c8	8a 50 1a	 mov	 dl, BYTE PTR [eax+26]
  001cb	84 d2		 test	 dl, dl
  001cd	0f 84 91 00 00
	00		 je	 $LN70@LoadFloat_@2
  001d3	32 d1		 xor	 dl, cl
  001d5	88 55 f2	 mov	 BYTE PTR __k$[ebp+26], dl
  001d8	8a 50 1b	 mov	 dl, BYTE PTR [eax+27]
  001db	84 d2		 test	 dl, dl
  001dd	74 7d		 je	 SHORT $LN69@LoadFloat_@2
  001df	32 d3		 xor	 dl, bl
  001e1	88 55 f3	 mov	 BYTE PTR __k$[ebp+27], dl
  001e4	8a 50 1c	 mov	 dl, BYTE PTR [eax+28]
  001e7	84 d2		 test	 dl, dl
  001e9	74 68		 je	 SHORT $LN68@LoadFloat_@2
  001eb	80 f2 ed	 xor	 dl, -19			; ffffffedH
  001ee	80 78 1d 00	 cmp	 BYTE PTR [eax+29], 0
  001f2	88 55 f4	 mov	 BYTE PTR __k$[ebp+28], dl
  001f5	0f 84 07 01 00
	00		 je	 $LN1@LoadFloat_@2
  001fb	8a 50 1e	 mov	 dl, BYTE PTR [eax+30]
  001fe	84 d2		 test	 dl, dl
  00200	74 49		 je	 SHORT $LN66@LoadFloat_@2
  00202	32 d1		 xor	 dl, cl
  00204	88 55 f6	 mov	 BYTE PTR __k$[ebp+30], dl
  00207	8a 50 1f	 mov	 dl, BYTE PTR [eax+31]
  0020a	84 d2		 test	 dl, dl
  0020c	74 35		 je	 SHORT $LN65@LoadFloat_@2
  0020e	32 d3		 xor	 dl, bl
  00210	88 55 f7	 mov	 BYTE PTR __k$[ebp+31], dl
  00213	8a 50 20	 mov	 dl, BYTE PTR [eax+32]
  00216	84 d2		 test	 dl, dl
  00218	74 20		 je	 SHORT $LN64@LoadFloat_@2
  0021a	8a 40 21	 mov	 al, BYTE PTR [eax+33]
  0021d	80 f2 ed	 xor	 dl, -19			; ffffffedH
  00220	88 55 f8	 mov	 BYTE PTR __k$[ebp+32], dl
  00223	84 c0		 test	 al, al
  00225	74 0a		 je	 SHORT $LN63@LoadFloat_@2
  00227	34 ec		 xor	 al, -20			; ffffffecH
  00229	88 45 f9	 mov	 BYTE PTR __k$[ebp+33], al
  0022c	e9 d1 00 00 00	 jmp	 $LN1@LoadFloat_@2
$LN63@LoadFloat_@2:
  00231	c6 45 f9 ec	 mov	 BYTE PTR __k$[ebp+33], -20 ; ffffffecH
  00235	e9 c8 00 00 00	 jmp	 $LN1@LoadFloat_@2
$LN64@LoadFloat_@2:
  0023a	c6 45 f8 ed	 mov	 BYTE PTR __k$[ebp+32], -19 ; ffffffedH
  0023e	e9 bf 00 00 00	 jmp	 $LN1@LoadFloat_@2
$LN65@LoadFloat_@2:
  00243	88 5d f7	 mov	 BYTE PTR __k$[ebp+31], bl
  00246	e9 b7 00 00 00	 jmp	 $LN1@LoadFloat_@2
$LN66@LoadFloat_@2:
  0024b	88 4d f6	 mov	 BYTE PTR __k$[ebp+30], cl
  0024e	e9 af 00 00 00	 jmp	 $LN1@LoadFloat_@2
$LN68@LoadFloat_@2:
  00253	c6 45 f4 ed	 mov	 BYTE PTR __k$[ebp+28], -19 ; ffffffedH
  00257	e9 a6 00 00 00	 jmp	 $LN1@LoadFloat_@2
$LN69@LoadFloat_@2:
  0025c	88 5d f3	 mov	 BYTE PTR __k$[ebp+27], bl
  0025f	e9 9e 00 00 00	 jmp	 $LN1@LoadFloat_@2
$LN70@LoadFloat_@2:
  00264	88 4d f2	 mov	 BYTE PTR __k$[ebp+26], cl
  00267	e9 96 00 00 00	 jmp	 $LN1@LoadFloat_@2
$LN71@LoadFloat_@2:
  0026c	c6 45 f1 ec	 mov	 BYTE PTR __k$[ebp+25], -20 ; ffffffecH
  00270	e9 8d 00 00 00	 jmp	 $LN1@LoadFloat_@2
$LN72@LoadFloat_@2:
  00275	c6 45 f0 ed	 mov	 BYTE PTR __k$[ebp+24], -19 ; ffffffedH
  00279	e9 84 00 00 00	 jmp	 $LN1@LoadFloat_@2
$LN73@LoadFloat_@2:
  0027e	88 5d ef	 mov	 BYTE PTR __k$[ebp+23], bl
  00281	eb 7f		 jmp	 SHORT $LN1@LoadFloat_@2
$LN74@LoadFloat_@2:
  00283	88 4d ee	 mov	 BYTE PTR __k$[ebp+22], cl
  00286	eb 7a		 jmp	 SHORT $LN1@LoadFloat_@2
$LN75@LoadFloat_@2:
  00288	c6 45 ed ec	 mov	 BYTE PTR __k$[ebp+21], -20 ; ffffffecH
  0028c	eb 74		 jmp	 SHORT $LN1@LoadFloat_@2
$LN76@LoadFloat_@2:
  0028e	c6 45 ec ed	 mov	 BYTE PTR __k$[ebp+20], -19 ; ffffffedH
  00292	eb 6e		 jmp	 SHORT $LN1@LoadFloat_@2
$LN77@LoadFloat_@2:
  00294	88 5d eb	 mov	 BYTE PTR __k$[ebp+19], bl
  00297	eb 69		 jmp	 SHORT $LN1@LoadFloat_@2
$LN78@LoadFloat_@2:
  00299	88 4d ea	 mov	 BYTE PTR __k$[ebp+18], cl
  0029c	eb 64		 jmp	 SHORT $LN1@LoadFloat_@2
$LN79@LoadFloat_@2:
  0029e	c6 45 e9 ec	 mov	 BYTE PTR __k$[ebp+17], -20 ; ffffffecH
  002a2	eb 5e		 jmp	 SHORT $LN1@LoadFloat_@2
$LN80@LoadFloat_@2:
  002a4	c6 45 e8 ed	 mov	 BYTE PTR __k$[ebp+16], -19 ; ffffffedH
  002a8	eb 58		 jmp	 SHORT $LN1@LoadFloat_@2
$LN81@LoadFloat_@2:
  002aa	88 5d e7	 mov	 BYTE PTR __k$[ebp+15], bl
  002ad	eb 53		 jmp	 SHORT $LN1@LoadFloat_@2
$LN82@LoadFloat_@2:
  002af	88 4d e6	 mov	 BYTE PTR __k$[ebp+14], cl
  002b2	eb 4e		 jmp	 SHORT $LN1@LoadFloat_@2
$LN83@LoadFloat_@2:
  002b4	c6 45 e5 ec	 mov	 BYTE PTR __k$[ebp+13], -20 ; ffffffecH
  002b8	eb 48		 jmp	 SHORT $LN1@LoadFloat_@2
$LN84@LoadFloat_@2:
  002ba	c6 45 e4 ed	 mov	 BYTE PTR __k$[ebp+12], -19 ; ffffffedH
  002be	eb 42		 jmp	 SHORT $LN1@LoadFloat_@2
$LN85@LoadFloat_@2:
  002c0	88 5d e3	 mov	 BYTE PTR __k$[ebp+11], bl
  002c3	eb 3d		 jmp	 SHORT $LN1@LoadFloat_@2
$LN86@LoadFloat_@2:
  002c5	88 4d e2	 mov	 BYTE PTR __k$[ebp+10], cl
  002c8	eb 38		 jmp	 SHORT $LN1@LoadFloat_@2
$LN87@LoadFloat_@2:
  002ca	c6 45 e1 ec	 mov	 BYTE PTR __k$[ebp+9], -20 ; ffffffecH
  002ce	eb 32		 jmp	 SHORT $LN1@LoadFloat_@2
$LN88@LoadFloat_@2:
  002d0	c6 45 e0 ed	 mov	 BYTE PTR __k$[ebp+8], -19 ; ffffffedH
  002d4	eb 2c		 jmp	 SHORT $LN1@LoadFloat_@2
$LN89@LoadFloat_@2:
  002d6	88 5d df	 mov	 BYTE PTR __k$[ebp+7], bl
  002d9	eb 27		 jmp	 SHORT $LN1@LoadFloat_@2
$LN90@LoadFloat_@2:
  002db	88 4d de	 mov	 BYTE PTR __k$[ebp+6], cl
  002de	eb 22		 jmp	 SHORT $LN1@LoadFloat_@2
$LN91@LoadFloat_@2:
  002e0	c6 45 dd ec	 mov	 BYTE PTR __k$[ebp+5], -20 ; ffffffecH
  002e4	eb 1c		 jmp	 SHORT $LN1@LoadFloat_@2
$LN92@LoadFloat_@2:
  002e6	c6 45 dc ed	 mov	 BYTE PTR __k$[ebp+4], -19 ; ffffffedH
  002ea	eb 16		 jmp	 SHORT $LN1@LoadFloat_@2
$LN93@LoadFloat_@2:
  002ec	c6 45 db ea	 mov	 BYTE PTR __k$[ebp+3], -22 ; ffffffeaH
  002f0	eb 10		 jmp	 SHORT $LN1@LoadFloat_@2
$LN94@LoadFloat_@2:
  002f2	c6 45 da eb	 mov	 BYTE PTR __k$[ebp+2], -21 ; ffffffebH
  002f6	eb 0a		 jmp	 SHORT $LN1@LoadFloat_@2
$LN95@LoadFloat_@2:
  002f8	c6 45 d9 ec	 mov	 BYTE PTR __k$[ebp+1], -20 ; ffffffecH
  002fc	eb 04		 jmp	 SHORT $LN1@LoadFloat_@2
$LN96@LoadFloat_@2:
  002fe	c6 45 d8 ed	 mov	 BYTE PTR __k$[ebp], -19	; ffffffedH
$LN1@LoadFloat_@2:
  00302	6a 07		 push	 7
  00304	8d 45 d8	 lea	 eax, DWORD PTR __k$[ebp]
  00307	c6 45 f5 00	 mov	 BYTE PTR __k$[ebp+29], 0
  0030b	5a		 pop	 edx
$LL104@LoadFloat_@2:
  0030c	81 30 ed ec eb
	ea		 xor	 DWORD PTR [eax], -353637139 ; eaebecedH
  00312	83 c0 04	 add	 eax, 4
  00315	4a		 dec	 edx
  00316	75 f4		 jne	 SHORT $LL104@LoadFloat_@2

; 137  : 		return LoadFloat(_k, f);

  00318	f3 0f 10 45 0c	 movss	 xmm0, DWORD PTR _f$[ebp]
  0031d	80 75 f4 ed	 xor	 BYTE PTR __k$[ebp+28], -19 ; ffffffedH
  00321	51		 push	 ecx
  00322	8d 45 d8	 lea	 eax, DWORD PTR __k$[ebp]
  00325	f3 0f 11 04 24	 movss	 DWORD PTR [esp], xmm0
  0032a	50		 push	 eax
  0032b	8b ce		 mov	 ecx, esi
  0032d	ff 15 00 00 00
	00		 call	 DWORD PTR __imp_?LoadFloat@ioINILoader@@QAEMPBDM@Z

; 138  : 	}

  00333	8b 4d fc	 mov	 ecx, DWORD PTR __$ArrayPad$[ebp]
  00336	5e		 pop	 esi
  00337	33 cd		 xor	 ecx, ebp
  00339	5b		 pop	 ebx
  0033a	e8 00 00 00 00	 call	 @__security_check_cookie@4
  0033f	c9		 leave
  00340	c2 08 00	 ret	 8
??$LoadFloat_e@$0BO@@ioINILoader@@QAEMAAY0BO@$$CBDM@Z ENDP ; ioINILoader::LoadFloat_e<30>
_TEXT	ENDS
PUBLIC	__$ArrayPad$
PUBLIC	??$LoadFloat_e@$0BK@@ioINILoader@@QAEMAAY0BK@$$CBDM@Z ; ioINILoader::LoadFloat_e<26>
; Function compile flags: /Ogsp
;	COMDAT ??$LoadFloat_e@$0BK@@ioINILoader@@QAEMAAY0BK@$$CBDM@Z
_TEXT	SEGMENT
__k$ = -36						; size = 26
__$ArrayPad$ = -4					; size = 4
_k$ = 8							; size = 4
_f$ = 12						; size = 4
??$LoadFloat_e@$0BK@@ioINILoader@@QAEMAAY0BK@$$CBDM@Z PROC ; ioINILoader::LoadFloat_e<26>, COMDAT
; _this$ = ecx

; 135  : 	{

  00000	55		 push	 ebp
  00001	8b ec		 mov	 ebp, esp
  00003	83 ec 24	 sub	 esp, 36			; 00000024H
  00006	a1 00 00 00 00	 mov	 eax, DWORD PTR ___security_cookie
  0000b	33 c5		 xor	 eax, ebp
  0000d	89 45 fc	 mov	 DWORD PTR __$ArrayPad$[ebp], eax
  00010	8b 45 08	 mov	 eax, DWORD PTR _k$[ebp]

; 136  : 		_ENCSTR(k, _k);

  00013	8a 10		 mov	 dl, BYTE PTR [eax]
  00015	53		 push	 ebx
  00016	56		 push	 esi
  00017	8b f1		 mov	 esi, ecx
  00019	84 d2		 test	 dl, dl
  0001b	0f 84 79 02 00
	00		 je	 $LN96@LoadFloat_@3
  00021	80 f2 ed	 xor	 dl, -19			; ffffffedH
  00024	88 55 dc	 mov	 BYTE PTR __k$[ebp], dl
  00027	8a 50 01	 mov	 dl, BYTE PTR [eax+1]
  0002a	84 d2		 test	 dl, dl
  0002c	0f 84 62 02 00
	00		 je	 $LN95@LoadFloat_@3
  00032	80 f2 ec	 xor	 dl, -20			; ffffffecH
  00035	88 55 dd	 mov	 BYTE PTR __k$[ebp+1], dl
  00038	8a 50 02	 mov	 dl, BYTE PTR [eax+2]
  0003b	84 d2		 test	 dl, dl
  0003d	0f 84 4b 02 00
	00		 je	 $LN94@LoadFloat_@3
  00043	b1 eb		 mov	 cl, -21			; ffffffebH
  00045	32 d1		 xor	 dl, cl
  00047	88 55 de	 mov	 BYTE PTR __k$[ebp+2], dl
  0004a	8a 50 03	 mov	 dl, BYTE PTR [eax+3]
  0004d	84 d2		 test	 dl, dl
  0004f	0f 84 33 02 00
	00		 je	 $LN93@LoadFloat_@3
  00055	b3 ea		 mov	 bl, -22			; ffffffeaH
  00057	32 d3		 xor	 dl, bl
  00059	88 55 df	 mov	 BYTE PTR __k$[ebp+3], dl
  0005c	8a 50 04	 mov	 dl, BYTE PTR [eax+4]
  0005f	84 d2		 test	 dl, dl
  00061	0f 84 1b 02 00
	00		 je	 $LN92@LoadFloat_@3
  00067	80 f2 ed	 xor	 dl, -19			; ffffffedH
  0006a	88 55 e0	 mov	 BYTE PTR __k$[ebp+4], dl
  0006d	8a 50 05	 mov	 dl, BYTE PTR [eax+5]
  00070	84 d2		 test	 dl, dl
  00072	0f 84 04 02 00
	00		 je	 $LN91@LoadFloat_@3
  00078	80 f2 ec	 xor	 dl, -20			; ffffffecH
  0007b	88 55 e1	 mov	 BYTE PTR __k$[ebp+5], dl
  0007e	8a 50 06	 mov	 dl, BYTE PTR [eax+6]
  00081	84 d2		 test	 dl, dl
  00083	0f 84 ee 01 00
	00		 je	 $LN90@LoadFloat_@3
  00089	32 d1		 xor	 dl, cl
  0008b	88 55 e2	 mov	 BYTE PTR __k$[ebp+6], dl
  0008e	8a 50 07	 mov	 dl, BYTE PTR [eax+7]
  00091	84 d2		 test	 dl, dl
  00093	0f 84 d9 01 00
	00		 je	 $LN89@LoadFloat_@3
  00099	32 d3		 xor	 dl, bl
  0009b	88 55 e3	 mov	 BYTE PTR __k$[ebp+7], dl
  0009e	8a 50 08	 mov	 dl, BYTE PTR [eax+8]
  000a1	84 d2		 test	 dl, dl
  000a3	0f 84 c3 01 00
	00		 je	 $LN88@LoadFloat_@3
  000a9	80 f2 ed	 xor	 dl, -19			; ffffffedH
  000ac	88 55 e4	 mov	 BYTE PTR __k$[ebp+8], dl
  000af	8a 50 09	 mov	 dl, BYTE PTR [eax+9]
  000b2	84 d2		 test	 dl, dl
  000b4	0f 84 ac 01 00
	00		 je	 $LN87@LoadFloat_@3
  000ba	80 f2 ec	 xor	 dl, -20			; ffffffecH
  000bd	88 55 e5	 mov	 BYTE PTR __k$[ebp+9], dl
  000c0	8a 50 0a	 mov	 dl, BYTE PTR [eax+10]
  000c3	84 d2		 test	 dl, dl
  000c5	0f 84 96 01 00
	00		 je	 $LN86@LoadFloat_@3
  000cb	32 d1		 xor	 dl, cl
  000cd	88 55 e6	 mov	 BYTE PTR __k$[ebp+10], dl
  000d0	8a 50 0b	 mov	 dl, BYTE PTR [eax+11]
  000d3	84 d2		 test	 dl, dl
  000d5	0f 84 81 01 00
	00		 je	 $LN85@LoadFloat_@3
  000db	32 d3		 xor	 dl, bl
  000dd	88 55 e7	 mov	 BYTE PTR __k$[ebp+11], dl
  000e0	8a 50 0c	 mov	 dl, BYTE PTR [eax+12]
  000e3	84 d2		 test	 dl, dl
  000e5	0f 84 6b 01 00
	00		 je	 $LN84@LoadFloat_@3
  000eb	80 f2 ed	 xor	 dl, -19			; ffffffedH
  000ee	88 55 e8	 mov	 BYTE PTR __k$[ebp+12], dl
  000f1	8a 50 0d	 mov	 dl, BYTE PTR [eax+13]
  000f4	84 d2		 test	 dl, dl
  000f6	0f 84 54 01 00
	00		 je	 $LN83@LoadFloat_@3
  000fc	80 f2 ec	 xor	 dl, -20			; ffffffecH
  000ff	88 55 e9	 mov	 BYTE PTR __k$[ebp+13], dl
  00102	8a 50 0e	 mov	 dl, BYTE PTR [eax+14]
  00105	84 d2		 test	 dl, dl
  00107	0f 84 3e 01 00
	00		 je	 $LN82@LoadFloat_@3
  0010d	32 d1		 xor	 dl, cl
  0010f	88 55 ea	 mov	 BYTE PTR __k$[ebp+14], dl
  00112	8a 50 0f	 mov	 dl, BYTE PTR [eax+15]
  00115	84 d2		 test	 dl, dl
  00117	0f 84 29 01 00
	00		 je	 $LN81@LoadFloat_@3
  0011d	32 d3		 xor	 dl, bl
  0011f	88 55 eb	 mov	 BYTE PTR __k$[ebp+15], dl
  00122	8a 50 10	 mov	 dl, BYTE PTR [eax+16]
  00125	84 d2		 test	 dl, dl
  00127	0f 84 13 01 00
	00		 je	 $LN80@LoadFloat_@3
  0012d	80 f2 ed	 xor	 dl, -19			; ffffffedH
  00130	88 55 ec	 mov	 BYTE PTR __k$[ebp+16], dl
  00133	8a 50 11	 mov	 dl, BYTE PTR [eax+17]
  00136	84 d2		 test	 dl, dl
  00138	0f 84 fc 00 00
	00		 je	 $LN79@LoadFloat_@3
  0013e	80 f2 ec	 xor	 dl, -20			; ffffffecH
  00141	88 55 ed	 mov	 BYTE PTR __k$[ebp+17], dl
  00144	8a 50 12	 mov	 dl, BYTE PTR [eax+18]
  00147	84 d2		 test	 dl, dl
  00149	0f 84 e6 00 00
	00		 je	 $LN78@LoadFloat_@3
  0014f	32 d1		 xor	 dl, cl
  00151	88 55 ee	 mov	 BYTE PTR __k$[ebp+18], dl
  00154	8a 50 13	 mov	 dl, BYTE PTR [eax+19]
  00157	84 d2		 test	 dl, dl
  00159	0f 84 d1 00 00
	00		 je	 $LN77@LoadFloat_@3
  0015f	32 d3		 xor	 dl, bl
  00161	88 55 ef	 mov	 BYTE PTR __k$[ebp+19], dl
  00164	8a 50 14	 mov	 dl, BYTE PTR [eax+20]
  00167	84 d2		 test	 dl, dl
  00169	0f 84 bb 00 00
	00		 je	 $LN76@LoadFloat_@3
  0016f	80 f2 ed	 xor	 dl, -19			; ffffffedH
  00172	88 55 f0	 mov	 BYTE PTR __k$[ebp+20], dl
  00175	8a 50 15	 mov	 dl, BYTE PTR [eax+21]
  00178	84 d2		 test	 dl, dl
  0017a	0f 84 a4 00 00
	00		 je	 $LN75@LoadFloat_@3
  00180	80 f2 ec	 xor	 dl, -20			; ffffffecH
  00183	88 55 f1	 mov	 BYTE PTR __k$[ebp+21], dl
  00186	8a 50 16	 mov	 dl, BYTE PTR [eax+22]
  00189	84 d2		 test	 dl, dl
  0018b	0f 84 8e 00 00
	00		 je	 $LN74@LoadFloat_@3
  00191	32 d1		 xor	 dl, cl
  00193	88 55 f2	 mov	 BYTE PTR __k$[ebp+22], dl
  00196	8a 50 17	 mov	 dl, BYTE PTR [eax+23]
  00199	84 d2		 test	 dl, dl
  0019b	74 7d		 je	 SHORT $LN73@LoadFloat_@3
  0019d	32 d3		 xor	 dl, bl
  0019f	88 55 f3	 mov	 BYTE PTR __k$[ebp+23], dl
  001a2	8a 50 18	 mov	 dl, BYTE PTR [eax+24]
  001a5	84 d2		 test	 dl, dl
  001a7	74 68		 je	 SHORT $LN72@LoadFloat_@3
  001a9	80 f2 ed	 xor	 dl, -19			; ffffffedH
  001ac	80 78 19 00	 cmp	 BYTE PTR [eax+25], 0
  001b0	88 55 f4	 mov	 BYTE PTR __k$[ebp+24], dl
  001b3	0f 84 e5 00 00
	00		 je	 $LN1@LoadFloat_@3
  001b9	8a 50 1a	 mov	 dl, BYTE PTR [eax+26]
  001bc	84 d2		 test	 dl, dl
  001be	74 49		 je	 SHORT $LN70@LoadFloat_@3
  001c0	32 d1		 xor	 dl, cl
  001c2	88 55 f6	 mov	 BYTE PTR __k$[ebp+26], dl
  001c5	8a 50 1b	 mov	 dl, BYTE PTR [eax+27]
  001c8	84 d2		 test	 dl, dl
  001ca	74 35		 je	 SHORT $LN69@LoadFloat_@3
  001cc	32 d3		 xor	 dl, bl
  001ce	88 55 f7	 mov	 BYTE PTR __k$[ebp+27], dl
  001d1	8a 50 1c	 mov	 dl, BYTE PTR [eax+28]
  001d4	84 d2		 test	 dl, dl
  001d6	74 20		 je	 SHORT $LN68@LoadFloat_@3
  001d8	8a 40 1d	 mov	 al, BYTE PTR [eax+29]
  001db	80 f2 ed	 xor	 dl, -19			; ffffffedH
  001de	88 55 f8	 mov	 BYTE PTR __k$[ebp+28], dl
  001e1	84 c0		 test	 al, al
  001e3	74 0a		 je	 SHORT $LN67@LoadFloat_@3
  001e5	34 ec		 xor	 al, -20			; ffffffecH
  001e7	88 45 f9	 mov	 BYTE PTR __k$[ebp+29], al
  001ea	e9 af 00 00 00	 jmp	 $LN1@LoadFloat_@3
$LN67@LoadFloat_@3:
  001ef	c6 45 f9 ec	 mov	 BYTE PTR __k$[ebp+29], -20 ; ffffffecH
  001f3	e9 a6 00 00 00	 jmp	 $LN1@LoadFloat_@3
$LN68@LoadFloat_@3:
  001f8	c6 45 f8 ed	 mov	 BYTE PTR __k$[ebp+28], -19 ; ffffffedH
  001fc	e9 9d 00 00 00	 jmp	 $LN1@LoadFloat_@3
$LN69@LoadFloat_@3:
  00201	88 5d f7	 mov	 BYTE PTR __k$[ebp+27], bl
  00204	e9 95 00 00 00	 jmp	 $LN1@LoadFloat_@3
$LN70@LoadFloat_@3:
  00209	88 4d f6	 mov	 BYTE PTR __k$[ebp+26], cl
  0020c	e9 8d 00 00 00	 jmp	 $LN1@LoadFloat_@3
$LN72@LoadFloat_@3:
  00211	c6 45 f4 ed	 mov	 BYTE PTR __k$[ebp+24], -19 ; ffffffedH
  00215	e9 84 00 00 00	 jmp	 $LN1@LoadFloat_@3
$LN73@LoadFloat_@3:
  0021a	88 5d f3	 mov	 BYTE PTR __k$[ebp+23], bl
  0021d	eb 7f		 jmp	 SHORT $LN1@LoadFloat_@3
$LN74@LoadFloat_@3:
  0021f	88 4d f2	 mov	 BYTE PTR __k$[ebp+22], cl
  00222	eb 7a		 jmp	 SHORT $LN1@LoadFloat_@3
$LN75@LoadFloat_@3:
  00224	c6 45 f1 ec	 mov	 BYTE PTR __k$[ebp+21], -20 ; ffffffecH
  00228	eb 74		 jmp	 SHORT $LN1@LoadFloat_@3
$LN76@LoadFloat_@3:
  0022a	c6 45 f0 ed	 mov	 BYTE PTR __k$[ebp+20], -19 ; ffffffedH
  0022e	eb 6e		 jmp	 SHORT $LN1@LoadFloat_@3
$LN77@LoadFloat_@3:
  00230	88 5d ef	 mov	 BYTE PTR __k$[ebp+19], bl
  00233	eb 69		 jmp	 SHORT $LN1@LoadFloat_@3
$LN78@LoadFloat_@3:
  00235	88 4d ee	 mov	 BYTE PTR __k$[ebp+18], cl
  00238	eb 64		 jmp	 SHORT $LN1@LoadFloat_@3
$LN79@LoadFloat_@3:
  0023a	c6 45 ed ec	 mov	 BYTE PTR __k$[ebp+17], -20 ; ffffffecH
  0023e	eb 5e		 jmp	 SHORT $LN1@LoadFloat_@3
$LN80@LoadFloat_@3:
  00240	c6 45 ec ed	 mov	 BYTE PTR __k$[ebp+16], -19 ; ffffffedH
  00244	eb 58		 jmp	 SHORT $LN1@LoadFloat_@3
$LN81@LoadFloat_@3:
  00246	88 5d eb	 mov	 BYTE PTR __k$[ebp+15], bl
  00249	eb 53		 jmp	 SHORT $LN1@LoadFloat_@3
$LN82@LoadFloat_@3:
  0024b	88 4d ea	 mov	 BYTE PTR __k$[ebp+14], cl
  0024e	eb 4e		 jmp	 SHORT $LN1@LoadFloat_@3
$LN83@LoadFloat_@3:
  00250	c6 45 e9 ec	 mov	 BYTE PTR __k$[ebp+13], -20 ; ffffffecH
  00254	eb 48		 jmp	 SHORT $LN1@LoadFloat_@3
$LN84@LoadFloat_@3:
  00256	c6 45 e8 ed	 mov	 BYTE PTR __k$[ebp+12], -19 ; ffffffedH
  0025a	eb 42		 jmp	 SHORT $LN1@LoadFloat_@3
$LN85@LoadFloat_@3:
  0025c	88 5d e7	 mov	 BYTE PTR __k$[ebp+11], bl
  0025f	eb 3d		 jmp	 SHORT $LN1@LoadFloat_@3
$LN86@LoadFloat_@3:
  00261	88 4d e6	 mov	 BYTE PTR __k$[ebp+10], cl
  00264	eb 38		 jmp	 SHORT $LN1@LoadFloat_@3
$LN87@LoadFloat_@3:
  00266	c6 45 e5 ec	 mov	 BYTE PTR __k$[ebp+9], -20 ; ffffffecH
  0026a	eb 32		 jmp	 SHORT $LN1@LoadFloat_@3
$LN88@LoadFloat_@3:
  0026c	c6 45 e4 ed	 mov	 BYTE PTR __k$[ebp+8], -19 ; ffffffedH
  00270	eb 2c		 jmp	 SHORT $LN1@LoadFloat_@3
$LN89@LoadFloat_@3:
  00272	88 5d e3	 mov	 BYTE PTR __k$[ebp+7], bl
  00275	eb 27		 jmp	 SHORT $LN1@LoadFloat_@3
$LN90@LoadFloat_@3:
  00277	88 4d e2	 mov	 BYTE PTR __k$[ebp+6], cl
  0027a	eb 22		 jmp	 SHORT $LN1@LoadFloat_@3
$LN91@LoadFloat_@3:
  0027c	c6 45 e1 ec	 mov	 BYTE PTR __k$[ebp+5], -20 ; ffffffecH
  00280	eb 1c		 jmp	 SHORT $LN1@LoadFloat_@3
$LN92@LoadFloat_@3:
  00282	c6 45 e0 ed	 mov	 BYTE PTR __k$[ebp+4], -19 ; ffffffedH
  00286	eb 16		 jmp	 SHORT $LN1@LoadFloat_@3
$LN93@LoadFloat_@3:
  00288	c6 45 df ea	 mov	 BYTE PTR __k$[ebp+3], -22 ; ffffffeaH
  0028c	eb 10		 jmp	 SHORT $LN1@LoadFloat_@3
$LN94@LoadFloat_@3:
  0028e	c6 45 de eb	 mov	 BYTE PTR __k$[ebp+2], -21 ; ffffffebH
  00292	eb 0a		 jmp	 SHORT $LN1@LoadFloat_@3
$LN95@LoadFloat_@3:
  00294	c6 45 dd ec	 mov	 BYTE PTR __k$[ebp+1], -20 ; ffffffecH
  00298	eb 04		 jmp	 SHORT $LN1@LoadFloat_@3
$LN96@LoadFloat_@3:
  0029a	c6 45 dc ed	 mov	 BYTE PTR __k$[ebp], -19	; ffffffedH
$LN1@LoadFloat_@3:
  0029e	6a 06		 push	 6
  002a0	8d 45 dc	 lea	 eax, DWORD PTR __k$[ebp]
  002a3	c6 45 f5 00	 mov	 BYTE PTR __k$[ebp+25], 0
  002a7	5a		 pop	 edx
$LL104@LoadFloat_@3:
  002a8	81 30 ed ec eb
	ea		 xor	 DWORD PTR [eax], -353637139 ; eaebecedH
  002ae	83 c0 04	 add	 eax, 4
  002b1	4a		 dec	 edx
  002b2	75 f4		 jne	 SHORT $LL104@LoadFloat_@3

; 137  : 		return LoadFloat(_k, f);

  002b4	f3 0f 10 45 0c	 movss	 xmm0, DWORD PTR _f$[ebp]
  002b9	80 75 f4 ed	 xor	 BYTE PTR __k$[ebp+24], -19 ; ffffffedH
  002bd	51		 push	 ecx
  002be	8d 45 dc	 lea	 eax, DWORD PTR __k$[ebp]
  002c1	f3 0f 11 04 24	 movss	 DWORD PTR [esp], xmm0
  002c6	50		 push	 eax
  002c7	8b ce		 mov	 ecx, esi
  002c9	ff 15 00 00 00
	00		 call	 DWORD PTR __imp_?LoadFloat@ioINILoader@@QAEMPBDM@Z

; 138  : 	}

  002cf	8b 4d fc	 mov	 ecx, DWORD PTR __$ArrayPad$[ebp]
  002d2	5e		 pop	 esi
  002d3	33 cd		 xor	 ecx, ebp
  002d5	5b		 pop	 ebx
  002d6	e8 00 00 00 00	 call	 @__security_check_cookie@4
  002db	c9		 leave
  002dc	c2 08 00	 ret	 8
??$LoadFloat_e@$0BK@@ioINILoader@@QAEMAAY0BK@$$CBDM@Z ENDP ; ioINILoader::LoadFloat_e<26>
_TEXT	ENDS
PUBLIC	__$ArrayPad$
PUBLIC	??$LoadFloat_e@$0BP@@ioINILoader@@QAEMAAY0BP@$$CBDM@Z ; ioINILoader::LoadFloat_e<31>
; Function compile flags: /Ogsp
;	COMDAT ??$LoadFloat_e@$0BP@@ioINILoader@@QAEMAAY0BP@$$CBDM@Z
_TEXT	SEGMENT
__k$ = -40						; size = 31
__$ArrayPad$ = -4					; size = 4
_k$ = 8							; size = 4
_f$ = 12						; size = 4
??$LoadFloat_e@$0BP@@ioINILoader@@QAEMAAY0BP@$$CBDM@Z PROC ; ioINILoader::LoadFloat_e<31>, COMDAT
; _this$ = ecx

; 135  : 	{

  00000	55		 push	 ebp
  00001	8b ec		 mov	 ebp, esp
  00003	83 ec 28	 sub	 esp, 40			; 00000028H
  00006	a1 00 00 00 00	 mov	 eax, DWORD PTR ___security_cookie
  0000b	33 c5		 xor	 eax, ebp
  0000d	89 45 fc	 mov	 DWORD PTR __$ArrayPad$[ebp], eax
  00010	8b 45 08	 mov	 eax, DWORD PTR _k$[ebp]

; 136  : 		_ENCSTR(k, _k);

  00013	8a 10		 mov	 dl, BYTE PTR [eax]
  00015	53		 push	 ebx
  00016	56		 push	 esi
  00017	8b f1		 mov	 esi, ecx
  00019	84 d2		 test	 dl, dl
  0001b	0f 84 f5 02 00
	00		 je	 $LN96@LoadFloat_@4
  00021	80 f2 ed	 xor	 dl, -19			; ffffffedH
  00024	88 55 d8	 mov	 BYTE PTR __k$[ebp], dl
  00027	8a 50 01	 mov	 dl, BYTE PTR [eax+1]
  0002a	84 d2		 test	 dl, dl
  0002c	0f 84 de 02 00
	00		 je	 $LN95@LoadFloat_@4
  00032	b1 ec		 mov	 cl, -20			; ffffffecH
  00034	32 d1		 xor	 dl, cl
  00036	88 55 d9	 mov	 BYTE PTR __k$[ebp+1], dl
  00039	8a 50 02	 mov	 dl, BYTE PTR [eax+2]
  0003c	84 d2		 test	 dl, dl
  0003e	0f 84 c6 02 00
	00		 je	 $LN94@LoadFloat_@4
  00044	80 f2 eb	 xor	 dl, -21			; ffffffebH
  00047	88 55 da	 mov	 BYTE PTR __k$[ebp+2], dl
  0004a	8a 50 03	 mov	 dl, BYTE PTR [eax+3]
  0004d	84 d2		 test	 dl, dl
  0004f	0f 84 af 02 00
	00		 je	 $LN93@LoadFloat_@4
  00055	b3 ea		 mov	 bl, -22			; ffffffeaH
  00057	32 d3		 xor	 dl, bl
  00059	88 55 db	 mov	 BYTE PTR __k$[ebp+3], dl
  0005c	8a 50 04	 mov	 dl, BYTE PTR [eax+4]
  0005f	84 d2		 test	 dl, dl
  00061	0f 84 97 02 00
	00		 je	 $LN92@LoadFloat_@4
  00067	80 f2 ed	 xor	 dl, -19			; ffffffedH
  0006a	88 55 dc	 mov	 BYTE PTR __k$[ebp+4], dl
  0006d	8a 50 05	 mov	 dl, BYTE PTR [eax+5]
  00070	84 d2		 test	 dl, dl
  00072	0f 84 81 02 00
	00		 je	 $LN91@LoadFloat_@4
  00078	32 d1		 xor	 dl, cl
  0007a	88 55 dd	 mov	 BYTE PTR __k$[ebp+5], dl
  0007d	8a 50 06	 mov	 dl, BYTE PTR [eax+6]
  00080	84 d2		 test	 dl, dl
  00082	0f 84 6b 02 00
	00		 je	 $LN90@LoadFloat_@4
  00088	80 f2 eb	 xor	 dl, -21			; ffffffebH
  0008b	88 55 de	 mov	 BYTE PTR __k$[ebp+6], dl
  0008e	8a 50 07	 mov	 dl, BYTE PTR [eax+7]
  00091	84 d2		 test	 dl, dl
  00093	0f 84 55 02 00
	00		 je	 $LN89@LoadFloat_@4
  00099	32 d3		 xor	 dl, bl
  0009b	88 55 df	 mov	 BYTE PTR __k$[ebp+7], dl
  0009e	8a 50 08	 mov	 dl, BYTE PTR [eax+8]
  000a1	84 d2		 test	 dl, dl
  000a3	0f 84 3f 02 00
	00		 je	 $LN88@LoadFloat_@4
  000a9	80 f2 ed	 xor	 dl, -19			; ffffffedH
  000ac	88 55 e0	 mov	 BYTE PTR __k$[ebp+8], dl
  000af	8a 50 09	 mov	 dl, BYTE PTR [eax+9]
  000b2	84 d2		 test	 dl, dl
  000b4	0f 84 29 02 00
	00		 je	 $LN87@LoadFloat_@4
  000ba	32 d1		 xor	 dl, cl
  000bc	88 55 e1	 mov	 BYTE PTR __k$[ebp+9], dl
  000bf	8a 50 0a	 mov	 dl, BYTE PTR [eax+10]
  000c2	84 d2		 test	 dl, dl
  000c4	0f 84 13 02 00
	00		 je	 $LN86@LoadFloat_@4
  000ca	80 f2 eb	 xor	 dl, -21			; ffffffebH
  000cd	88 55 e2	 mov	 BYTE PTR __k$[ebp+10], dl
  000d0	8a 50 0b	 mov	 dl, BYTE PTR [eax+11]
  000d3	84 d2		 test	 dl, dl
  000d5	0f 84 fd 01 00
	00		 je	 $LN85@LoadFloat_@4
  000db	32 d3		 xor	 dl, bl
  000dd	88 55 e3	 mov	 BYTE PTR __k$[ebp+11], dl
  000e0	8a 50 0c	 mov	 dl, BYTE PTR [eax+12]
  000e3	84 d2		 test	 dl, dl
  000e5	0f 84 e7 01 00
	00		 je	 $LN84@LoadFloat_@4
  000eb	80 f2 ed	 xor	 dl, -19			; ffffffedH
  000ee	88 55 e4	 mov	 BYTE PTR __k$[ebp+12], dl
  000f1	8a 50 0d	 mov	 dl, BYTE PTR [eax+13]
  000f4	84 d2		 test	 dl, dl
  000f6	0f 84 d1 01 00
	00		 je	 $LN83@LoadFloat_@4
  000fc	32 d1		 xor	 dl, cl
  000fe	88 55 e5	 mov	 BYTE PTR __k$[ebp+13], dl
  00101	8a 50 0e	 mov	 dl, BYTE PTR [eax+14]
  00104	84 d2		 test	 dl, dl
  00106	0f 84 bb 01 00
	00		 je	 $LN82@LoadFloat_@4
  0010c	80 f2 eb	 xor	 dl, -21			; ffffffebH
  0010f	88 55 e6	 mov	 BYTE PTR __k$[ebp+14], dl
  00112	8a 50 0f	 mov	 dl, BYTE PTR [eax+15]
  00115	84 d2		 test	 dl, dl
  00117	0f 84 a5 01 00
	00		 je	 $LN81@LoadFloat_@4
  0011d	32 d3		 xor	 dl, bl
  0011f	88 55 e7	 mov	 BYTE PTR __k$[ebp+15], dl
  00122	8a 50 10	 mov	 dl, BYTE PTR [eax+16]
  00125	84 d2		 test	 dl, dl
  00127	0f 84 8f 01 00
	00		 je	 $LN80@LoadFloat_@4
  0012d	80 f2 ed	 xor	 dl, -19			; ffffffedH
  00130	88 55 e8	 mov	 BYTE PTR __k$[ebp+16], dl
  00133	8a 50 11	 mov	 dl, BYTE PTR [eax+17]
  00136	84 d2		 test	 dl, dl
  00138	0f 84 79 01 00
	00		 je	 $LN79@LoadFloat_@4
  0013e	32 d1		 xor	 dl, cl
  00140	88 55 e9	 mov	 BYTE PTR __k$[ebp+17], dl
  00143	8a 50 12	 mov	 dl, BYTE PTR [eax+18]
  00146	84 d2		 test	 dl, dl
  00148	0f 84 63 01 00
	00		 je	 $LN78@LoadFloat_@4
  0014e	80 f2 eb	 xor	 dl, -21			; ffffffebH
  00151	88 55 ea	 mov	 BYTE PTR __k$[ebp+18], dl
  00154	8a 50 13	 mov	 dl, BYTE PTR [eax+19]
  00157	84 d2		 test	 dl, dl
  00159	0f 84 4d 01 00
	00		 je	 $LN77@LoadFloat_@4
  0015f	32 d3		 xor	 dl, bl
  00161	88 55 eb	 mov	 BYTE PTR __k$[ebp+19], dl
  00164	8a 50 14	 mov	 dl, BYTE PTR [eax+20]
  00167	84 d2		 test	 dl, dl
  00169	0f 84 37 01 00
	00		 je	 $LN76@LoadFloat_@4
  0016f	80 f2 ed	 xor	 dl, -19			; ffffffedH
  00172	88 55 ec	 mov	 BYTE PTR __k$[ebp+20], dl
  00175	8a 50 15	 mov	 dl, BYTE PTR [eax+21]
  00178	84 d2		 test	 dl, dl
  0017a	0f 84 21 01 00
	00		 je	 $LN75@LoadFloat_@4
  00180	32 d1		 xor	 dl, cl
  00182	88 55 ed	 mov	 BYTE PTR __k$[ebp+21], dl
  00185	8a 50 16	 mov	 dl, BYTE PTR [eax+22]
  00188	84 d2		 test	 dl, dl
  0018a	0f 84 0b 01 00
	00		 je	 $LN74@LoadFloat_@4
  00190	80 f2 eb	 xor	 dl, -21			; ffffffebH
  00193	88 55 ee	 mov	 BYTE PTR __k$[ebp+22], dl
  00196	8a 50 17	 mov	 dl, BYTE PTR [eax+23]
  00199	84 d2		 test	 dl, dl
  0019b	0f 84 f5 00 00
	00		 je	 $LN73@LoadFloat_@4
  001a1	32 d3		 xor	 dl, bl
  001a3	88 55 ef	 mov	 BYTE PTR __k$[ebp+23], dl
  001a6	8a 50 18	 mov	 dl, BYTE PTR [eax+24]
  001a9	84 d2		 test	 dl, dl
  001ab	0f 84 dc 00 00
	00		 je	 $LN72@LoadFloat_@4
  001b1	80 f2 ed	 xor	 dl, -19			; ffffffedH
  001b4	88 55 f0	 mov	 BYTE PTR __k$[ebp+24], dl
  001b7	8a 50 19	 mov	 dl, BYTE PTR [eax+25]
  001ba	84 d2		 test	 dl, dl
  001bc	0f 84 c3 00 00
	00		 je	 $LN71@LoadFloat_@4
  001c2	32 d1		 xor	 dl, cl
  001c4	88 55 f1	 mov	 BYTE PTR __k$[ebp+25], dl
  001c7	8a 50 1a	 mov	 dl, BYTE PTR [eax+26]
  001ca	84 d2		 test	 dl, dl
  001cc	0f 84 aa 00 00
	00		 je	 $LN70@LoadFloat_@4
  001d2	80 f2 eb	 xor	 dl, -21			; ffffffebH
  001d5	88 55 f2	 mov	 BYTE PTR __k$[ebp+26], dl
  001d8	8a 50 1b	 mov	 dl, BYTE PTR [eax+27]
  001db	84 d2		 test	 dl, dl
  001dd	0f 84 91 00 00
	00		 je	 $LN69@LoadFloat_@4
  001e3	32 d3		 xor	 dl, bl
  001e5	88 55 f3	 mov	 BYTE PTR __k$[ebp+27], dl
  001e8	8a 50 1c	 mov	 dl, BYTE PTR [eax+28]
  001eb	84 d2		 test	 dl, dl
  001ed	74 7c		 je	 SHORT $LN68@LoadFloat_@4
  001ef	80 f2 ed	 xor	 dl, -19			; ffffffedH
  001f2	88 55 f4	 mov	 BYTE PTR __k$[ebp+28], dl
  001f5	8a 50 1d	 mov	 dl, BYTE PTR [eax+29]
  001f8	84 d2		 test	 dl, dl
  001fa	74 67		 je	 SHORT $LN67@LoadFloat_@4
  001fc	32 d1		 xor	 dl, cl
  001fe	80 78 1e 00	 cmp	 BYTE PTR [eax+30], 0
  00202	88 55 f5	 mov	 BYTE PTR __k$[ebp+29], dl
  00205	0f 84 0f 01 00
	00		 je	 $LN1@LoadFloat_@4
  0020b	8a 50 1f	 mov	 dl, BYTE PTR [eax+31]
  0020e	84 d2		 test	 dl, dl
  00210	74 49		 je	 SHORT $LN65@LoadFloat_@4
  00212	32 d3		 xor	 dl, bl
  00214	88 55 f7	 mov	 BYTE PTR __k$[ebp+31], dl
  00217	8a 50 20	 mov	 dl, BYTE PTR [eax+32]
  0021a	84 d2		 test	 dl, dl
  0021c	74 34		 je	 SHORT $LN64@LoadFloat_@4
  0021e	80 f2 ed	 xor	 dl, -19			; ffffffedH
  00221	88 55 f8	 mov	 BYTE PTR __k$[ebp+32], dl
  00224	8a 50 21	 mov	 dl, BYTE PTR [eax+33]
  00227	84 d2		 test	 dl, dl
  00229	74 1f		 je	 SHORT $LN63@LoadFloat_@4
  0022b	8a 40 22	 mov	 al, BYTE PTR [eax+34]
  0022e	32 d1		 xor	 dl, cl
  00230	88 55 f9	 mov	 BYTE PTR __k$[ebp+33], dl
  00233	84 c0		 test	 al, al
  00235	74 0a		 je	 SHORT $LN62@LoadFloat_@4
  00237	34 eb		 xor	 al, -21			; ffffffebH
  00239	88 45 fa	 mov	 BYTE PTR __k$[ebp+34], al
  0023c	e9 d9 00 00 00	 jmp	 $LN1@LoadFloat_@4
$LN62@LoadFloat_@4:
  00241	c6 45 fa eb	 mov	 BYTE PTR __k$[ebp+34], -21 ; ffffffebH
  00245	e9 d0 00 00 00	 jmp	 $LN1@LoadFloat_@4
$LN63@LoadFloat_@4:
  0024a	88 4d f9	 mov	 BYTE PTR __k$[ebp+33], cl
  0024d	e9 c8 00 00 00	 jmp	 $LN1@LoadFloat_@4
$LN64@LoadFloat_@4:
  00252	c6 45 f8 ed	 mov	 BYTE PTR __k$[ebp+32], -19 ; ffffffedH
  00256	e9 bf 00 00 00	 jmp	 $LN1@LoadFloat_@4
$LN65@LoadFloat_@4:
  0025b	88 5d f7	 mov	 BYTE PTR __k$[ebp+31], bl
  0025e	e9 b7 00 00 00	 jmp	 $LN1@LoadFloat_@4
$LN67@LoadFloat_@4:
  00263	88 4d f5	 mov	 BYTE PTR __k$[ebp+29], cl
  00266	e9 af 00 00 00	 jmp	 $LN1@LoadFloat_@4
$LN68@LoadFloat_@4:
  0026b	c6 45 f4 ed	 mov	 BYTE PTR __k$[ebp+28], -19 ; ffffffedH
  0026f	e9 a6 00 00 00	 jmp	 $LN1@LoadFloat_@4
$LN69@LoadFloat_@4:
  00274	88 5d f3	 mov	 BYTE PTR __k$[ebp+27], bl
  00277	e9 9e 00 00 00	 jmp	 $LN1@LoadFloat_@4
$LN70@LoadFloat_@4:
  0027c	c6 45 f2 eb	 mov	 BYTE PTR __k$[ebp+26], -21 ; ffffffebH
  00280	e9 95 00 00 00	 jmp	 $LN1@LoadFloat_@4
$LN71@LoadFloat_@4:
  00285	88 4d f1	 mov	 BYTE PTR __k$[ebp+25], cl
  00288	e9 8d 00 00 00	 jmp	 $LN1@LoadFloat_@4
$LN72@LoadFloat_@4:
  0028d	c6 45 f0 ed	 mov	 BYTE PTR __k$[ebp+24], -19 ; ffffffedH
  00291	e9 84 00 00 00	 jmp	 $LN1@LoadFloat_@4
$LN73@LoadFloat_@4:
  00296	88 5d ef	 mov	 BYTE PTR __k$[ebp+23], bl
  00299	eb 7f		 jmp	 SHORT $LN1@LoadFloat_@4
$LN74@LoadFloat_@4:
  0029b	c6 45 ee eb	 mov	 BYTE PTR __k$[ebp+22], -21 ; ffffffebH
  0029f	eb 79		 jmp	 SHORT $LN1@LoadFloat_@4
$LN75@LoadFloat_@4:
  002a1	88 4d ed	 mov	 BYTE PTR __k$[ebp+21], cl
  002a4	eb 74		 jmp	 SHORT $LN1@LoadFloat_@4
$LN76@LoadFloat_@4:
  002a6	c6 45 ec ed	 mov	 BYTE PTR __k$[ebp+20], -19 ; ffffffedH
  002aa	eb 6e		 jmp	 SHORT $LN1@LoadFloat_@4
$LN77@LoadFloat_@4:
  002ac	88 5d eb	 mov	 BYTE PTR __k$[ebp+19], bl
  002af	eb 69		 jmp	 SHORT $LN1@LoadFloat_@4
$LN78@LoadFloat_@4:
  002b1	c6 45 ea eb	 mov	 BYTE PTR __k$[ebp+18], -21 ; ffffffebH
  002b5	eb 63		 jmp	 SHORT $LN1@LoadFloat_@4
$LN79@LoadFloat_@4:
  002b7	88 4d e9	 mov	 BYTE PTR __k$[ebp+17], cl
  002ba	eb 5e		 jmp	 SHORT $LN1@LoadFloat_@4
$LN80@LoadFloat_@4:
  002bc	c6 45 e8 ed	 mov	 BYTE PTR __k$[ebp+16], -19 ; ffffffedH
  002c0	eb 58		 jmp	 SHORT $LN1@LoadFloat_@4
$LN81@LoadFloat_@4:
  002c2	88 5d e7	 mov	 BYTE PTR __k$[ebp+15], bl
  002c5	eb 53		 jmp	 SHORT $LN1@LoadFloat_@4
$LN82@LoadFloat_@4:
  002c7	c6 45 e6 eb	 mov	 BYTE PTR __k$[ebp+14], -21 ; ffffffebH
  002cb	eb 4d		 jmp	 SHORT $LN1@LoadFloat_@4
$LN83@LoadFloat_@4:
  002cd	88 4d e5	 mov	 BYTE PTR __k$[ebp+13], cl
  002d0	eb 48		 jmp	 SHORT $LN1@LoadFloat_@4
$LN84@LoadFloat_@4:
  002d2	c6 45 e4 ed	 mov	 BYTE PTR __k$[ebp+12], -19 ; ffffffedH
  002d6	eb 42		 jmp	 SHORT $LN1@LoadFloat_@4
$LN85@LoadFloat_@4:
  002d8	88 5d e3	 mov	 BYTE PTR __k$[ebp+11], bl
  002db	eb 3d		 jmp	 SHORT $LN1@LoadFloat_@4
$LN86@LoadFloat_@4:
  002dd	c6 45 e2 eb	 mov	 BYTE PTR __k$[ebp+10], -21 ; ffffffebH
  002e1	eb 37		 jmp	 SHORT $LN1@LoadFloat_@4
$LN87@LoadFloat_@4:
  002e3	88 4d e1	 mov	 BYTE PTR __k$[ebp+9], cl
  002e6	eb 32		 jmp	 SHORT $LN1@LoadFloat_@4
$LN88@LoadFloat_@4:
  002e8	c6 45 e0 ed	 mov	 BYTE PTR __k$[ebp+8], -19 ; ffffffedH
  002ec	eb 2c		 jmp	 SHORT $LN1@LoadFloat_@4
$LN89@LoadFloat_@4:
  002ee	88 5d df	 mov	 BYTE PTR __k$[ebp+7], bl
  002f1	eb 27		 jmp	 SHORT $LN1@LoadFloat_@4
$LN90@LoadFloat_@4:
  002f3	c6 45 de eb	 mov	 BYTE PTR __k$[ebp+6], -21 ; ffffffebH
  002f7	eb 21		 jmp	 SHORT $LN1@LoadFloat_@4
$LN91@LoadFloat_@4:
  002f9	88 4d dd	 mov	 BYTE PTR __k$[ebp+5], cl
  002fc	eb 1c		 jmp	 SHORT $LN1@LoadFloat_@4
$LN92@LoadFloat_@4:
  002fe	c6 45 dc ed	 mov	 BYTE PTR __k$[ebp+4], -19 ; ffffffedH
  00302	eb 16		 jmp	 SHORT $LN1@LoadFloat_@4
$LN93@LoadFloat_@4:
  00304	c6 45 db ea	 mov	 BYTE PTR __k$[ebp+3], -22 ; ffffffeaH
  00308	eb 10		 jmp	 SHORT $LN1@LoadFloat_@4
$LN94@LoadFloat_@4:
  0030a	c6 45 da eb	 mov	 BYTE PTR __k$[ebp+2], -21 ; ffffffebH
  0030e	eb 0a		 jmp	 SHORT $LN1@LoadFloat_@4
$LN95@LoadFloat_@4:
  00310	c6 45 d9 ec	 mov	 BYTE PTR __k$[ebp+1], -20 ; ffffffecH
  00314	eb 04		 jmp	 SHORT $LN1@LoadFloat_@4
$LN96@LoadFloat_@4:
  00316	c6 45 d8 ed	 mov	 BYTE PTR __k$[ebp], -19	; ffffffedH
$LN1@LoadFloat_@4:
  0031a	6a 07		 push	 7
  0031c	8d 45 d8	 lea	 eax, DWORD PTR __k$[ebp]
  0031f	c6 45 f6 00	 mov	 BYTE PTR __k$[ebp+30], 0
  00323	5a		 pop	 edx
$LL104@LoadFloat_@4:
  00324	81 30 ed ec eb
	ea		 xor	 DWORD PTR [eax], -353637139 ; eaebecedH
  0032a	83 c0 04	 add	 eax, 4
  0032d	4a		 dec	 edx
  0032e	75 f4		 jne	 SHORT $LL104@LoadFloat_@4
  00330	6a 1c		 push	 28			; 0000001cH
  00332	58		 pop	 eax
$LL101@LoadFloat_@4:
  00333	8b c8		 mov	 ecx, eax
  00335	81 e1 03 00 00
	80		 and	 ecx, -2147483645	; 80000003H
  0033b	79 05		 jns	 SHORT $LN111@LoadFloat_@4
  0033d	49		 dec	 ecx
  0033e	83 c9 fc	 or	 ecx, -4			; fffffffcH
  00341	41		 inc	 ecx
$LN111@LoadFloat_@4:
  00342	b2 ed		 mov	 dl, -19			; ffffffedH
  00344	2a d1		 sub	 dl, cl
  00346	30 54 05 d8	 xor	 BYTE PTR __k$[ebp+eax], dl
  0034a	40		 inc	 eax
  0034b	83 f8 1e	 cmp	 eax, 30			; 0000001eH
  0034e	7c e3		 jl	 SHORT $LL101@LoadFloat_@4

; 137  : 		return LoadFloat(_k, f);

  00350	f3 0f 10 45 0c	 movss	 xmm0, DWORD PTR _f$[ebp]
  00355	51		 push	 ecx
  00356	8d 45 d8	 lea	 eax, DWORD PTR __k$[ebp]
  00359	f3 0f 11 04 24	 movss	 DWORD PTR [esp], xmm0
  0035e	50		 push	 eax
  0035f	8b ce		 mov	 ecx, esi
  00361	ff 15 00 00 00
	00		 call	 DWORD PTR __imp_?LoadFloat@ioINILoader@@QAEMPBDM@Z

; 138  : 	}

  00367	8b 4d fc	 mov	 ecx, DWORD PTR __$ArrayPad$[ebp]
  0036a	5e		 pop	 esi
  0036b	33 cd		 xor	 ecx, ebp
  0036d	5b		 pop	 ebx
  0036e	e8 00 00 00 00	 call	 @__security_check_cookie@4
  00373	c9		 leave
  00374	c2 08 00	 ret	 8
??$LoadFloat_e@$0BP@@ioINILoader@@QAEMAAY0BP@$$CBDM@Z ENDP ; ioINILoader::LoadFloat_e<31>
_TEXT	ENDS
PUBLIC	__$ArrayPad$
PUBLIC	??$LoadFloat_e@$0BL@@ioINILoader@@QAEMAAY0BL@$$CBDM@Z ; ioINILoader::LoadFloat_e<27>
; Function compile flags: /Ogsp
;	COMDAT ??$LoadFloat_e@$0BL@@ioINILoader@@QAEMAAY0BL@$$CBDM@Z
_TEXT	SEGMENT
__k$ = -36						; size = 27
__$ArrayPad$ = -4					; size = 4
_k$ = 8							; size = 4
_f$ = 12						; size = 4
??$LoadFloat_e@$0BL@@ioINILoader@@QAEMAAY0BL@$$CBDM@Z PROC ; ioINILoader::LoadFloat_e<27>, COMDAT
; _this$ = ecx

; 135  : 	{

  00000	55		 push	 ebp
  00001	8b ec		 mov	 ebp, esp
  00003	83 ec 24	 sub	 esp, 36			; 00000024H
  00006	a1 00 00 00 00	 mov	 eax, DWORD PTR ___security_cookie
  0000b	33 c5		 xor	 eax, ebp
  0000d	89 45 fc	 mov	 DWORD PTR __$ArrayPad$[ebp], eax
  00010	8b 45 08	 mov	 eax, DWORD PTR _k$[ebp]

; 136  : 		_ENCSTR(k, _k);

  00013	8a 10		 mov	 dl, BYTE PTR [eax]
  00015	53		 push	 ebx
  00016	56		 push	 esi
  00017	8b f1		 mov	 esi, ecx
  00019	84 d2		 test	 dl, dl
  0001b	0f 84 91 02 00
	00		 je	 $LN96@LoadFloat_@5
  00021	80 f2 ed	 xor	 dl, -19			; ffffffedH
  00024	88 55 dc	 mov	 BYTE PTR __k$[ebp], dl
  00027	8a 50 01	 mov	 dl, BYTE PTR [eax+1]
  0002a	84 d2		 test	 dl, dl
  0002c	0f 84 7a 02 00
	00		 je	 $LN95@LoadFloat_@5
  00032	b1 ec		 mov	 cl, -20			; ffffffecH
  00034	32 d1		 xor	 dl, cl
  00036	88 55 dd	 mov	 BYTE PTR __k$[ebp+1], dl
  00039	8a 50 02	 mov	 dl, BYTE PTR [eax+2]
  0003c	84 d2		 test	 dl, dl
  0003e	0f 84 62 02 00
	00		 je	 $LN94@LoadFloat_@5
  00044	80 f2 eb	 xor	 dl, -21			; ffffffebH
  00047	88 55 de	 mov	 BYTE PTR __k$[ebp+2], dl
  0004a	8a 50 03	 mov	 dl, BYTE PTR [eax+3]
  0004d	84 d2		 test	 dl, dl
  0004f	0f 84 4b 02 00
	00		 je	 $LN93@LoadFloat_@5
  00055	b3 ea		 mov	 bl, -22			; ffffffeaH
  00057	32 d3		 xor	 dl, bl
  00059	88 55 df	 mov	 BYTE PTR __k$[ebp+3], dl
  0005c	8a 50 04	 mov	 dl, BYTE PTR [eax+4]
  0005f	84 d2		 test	 dl, dl
  00061	0f 84 33 02 00
	00		 je	 $LN92@LoadFloat_@5
  00067	80 f2 ed	 xor	 dl, -19			; ffffffedH
  0006a	88 55 e0	 mov	 BYTE PTR __k$[ebp+4], dl
  0006d	8a 50 05	 mov	 dl, BYTE PTR [eax+5]
  00070	84 d2		 test	 dl, dl
  00072	0f 84 1d 02 00
	00		 je	 $LN91@LoadFloat_@5
  00078	32 d1		 xor	 dl, cl
  0007a	88 55 e1	 mov	 BYTE PTR __k$[ebp+5], dl
  0007d	8a 50 06	 mov	 dl, BYTE PTR [eax+6]
  00080	84 d2		 test	 dl, dl
  00082	0f 84 07 02 00
	00		 je	 $LN90@LoadFloat_@5
  00088	80 f2 eb	 xor	 dl, -21			; ffffffebH
  0008b	88 55 e2	 mov	 BYTE PTR __k$[ebp+6], dl
  0008e	8a 50 07	 mov	 dl, BYTE PTR [eax+7]
  00091	84 d2		 test	 dl, dl
  00093	0f 84 f1 01 00
	00		 je	 $LN89@LoadFloat_@5
  00099	32 d3		 xor	 dl, bl
  0009b	88 55 e3	 mov	 BYTE PTR __k$[ebp+7], dl
  0009e	8a 50 08	 mov	 dl, BYTE PTR [eax+8]
  000a1	84 d2		 test	 dl, dl
  000a3	0f 84 db 01 00
	00		 je	 $LN88@LoadFloat_@5
  000a9	80 f2 ed	 xor	 dl, -19			; ffffffedH
  000ac	88 55 e4	 mov	 BYTE PTR __k$[ebp+8], dl
  000af	8a 50 09	 mov	 dl, BYTE PTR [eax+9]
  000b2	84 d2		 test	 dl, dl
  000b4	0f 84 c5 01 00
	00		 je	 $LN87@LoadFloat_@5
  000ba	32 d1		 xor	 dl, cl
  000bc	88 55 e5	 mov	 BYTE PTR __k$[ebp+9], dl
  000bf	8a 50 0a	 mov	 dl, BYTE PTR [eax+10]
  000c2	84 d2		 test	 dl, dl
  000c4	0f 84 af 01 00
	00		 je	 $LN86@LoadFloat_@5
  000ca	80 f2 eb	 xor	 dl, -21			; ffffffebH
  000cd	88 55 e6	 mov	 BYTE PTR __k$[ebp+10], dl
  000d0	8a 50 0b	 mov	 dl, BYTE PTR [eax+11]
  000d3	84 d2		 test	 dl, dl
  000d5	0f 84 99 01 00
	00		 je	 $LN85@LoadFloat_@5
  000db	32 d3		 xor	 dl, bl
  000dd	88 55 e7	 mov	 BYTE PTR __k$[ebp+11], dl
  000e0	8a 50 0c	 mov	 dl, BYTE PTR [eax+12]
  000e3	84 d2		 test	 dl, dl
  000e5	0f 84 83 01 00
	00		 je	 $LN84@LoadFloat_@5
  000eb	80 f2 ed	 xor	 dl, -19			; ffffffedH
  000ee	88 55 e8	 mov	 BYTE PTR __k$[ebp+12], dl
  000f1	8a 50 0d	 mov	 dl, BYTE PTR [eax+13]
  000f4	84 d2		 test	 dl, dl
  000f6	0f 84 6d 01 00
	00		 je	 $LN83@LoadFloat_@5
  000fc	32 d1		 xor	 dl, cl
  000fe	88 55 e9	 mov	 BYTE PTR __k$[ebp+13], dl
  00101	8a 50 0e	 mov	 dl, BYTE PTR [eax+14]
  00104	84 d2		 test	 dl, dl
  00106	0f 84 57 01 00
	00		 je	 $LN82@LoadFloat_@5
  0010c	80 f2 eb	 xor	 dl, -21			; ffffffebH
  0010f	88 55 ea	 mov	 BYTE PTR __k$[ebp+14], dl
  00112	8a 50 0f	 mov	 dl, BYTE PTR [eax+15]
  00115	84 d2		 test	 dl, dl
  00117	0f 84 41 01 00
	00		 je	 $LN81@LoadFloat_@5
  0011d	32 d3		 xor	 dl, bl
  0011f	88 55 eb	 mov	 BYTE PTR __k$[ebp+15], dl
  00122	8a 50 10	 mov	 dl, BYTE PTR [eax+16]
  00125	84 d2		 test	 dl, dl
  00127	0f 84 2b 01 00
	00		 je	 $LN80@LoadFloat_@5
  0012d	80 f2 ed	 xor	 dl, -19			; ffffffedH
  00130	88 55 ec	 mov	 BYTE PTR __k$[ebp+16], dl
  00133	8a 50 11	 mov	 dl, BYTE PTR [eax+17]
  00136	84 d2		 test	 dl, dl
  00138	0f 84 15 01 00
	00		 je	 $LN79@LoadFloat_@5
  0013e	32 d1		 xor	 dl, cl
  00140	88 55 ed	 mov	 BYTE PTR __k$[ebp+17], dl
  00143	8a 50 12	 mov	 dl, BYTE PTR [eax+18]
  00146	84 d2		 test	 dl, dl
  00148	0f 84 ff 00 00
	00		 je	 $LN78@LoadFloat_@5
  0014e	80 f2 eb	 xor	 dl, -21			; ffffffebH
  00151	88 55 ee	 mov	 BYTE PTR __k$[ebp+18], dl
  00154	8a 50 13	 mov	 dl, BYTE PTR [eax+19]
  00157	84 d2		 test	 dl, dl
  00159	0f 84 e9 00 00
	00		 je	 $LN77@LoadFloat_@5
  0015f	32 d3		 xor	 dl, bl
  00161	88 55 ef	 mov	 BYTE PTR __k$[ebp+19], dl
  00164	8a 50 14	 mov	 dl, BYTE PTR [eax+20]
  00167	84 d2		 test	 dl, dl
  00169	0f 84 d3 00 00
	00		 je	 $LN76@LoadFloat_@5
  0016f	80 f2 ed	 xor	 dl, -19			; ffffffedH
  00172	88 55 f0	 mov	 BYTE PTR __k$[ebp+20], dl
  00175	8a 50 15	 mov	 dl, BYTE PTR [eax+21]
  00178	84 d2		 test	 dl, dl
  0017a	0f 84 bd 00 00
	00		 je	 $LN75@LoadFloat_@5
  00180	32 d1		 xor	 dl, cl
  00182	88 55 f1	 mov	 BYTE PTR __k$[ebp+21], dl
  00185	8a 50 16	 mov	 dl, BYTE PTR [eax+22]
  00188	84 d2		 test	 dl, dl
  0018a	0f 84 a7 00 00
	00		 je	 $LN74@LoadFloat_@5
  00190	80 f2 eb	 xor	 dl, -21			; ffffffebH
  00193	88 55 f2	 mov	 BYTE PTR __k$[ebp+22], dl
  00196	8a 50 17	 mov	 dl, BYTE PTR [eax+23]
  00199	84 d2		 test	 dl, dl
  0019b	0f 84 91 00 00
	00		 je	 $LN73@LoadFloat_@5
  001a1	32 d3		 xor	 dl, bl
  001a3	88 55 f3	 mov	 BYTE PTR __k$[ebp+23], dl
  001a6	8a 50 18	 mov	 dl, BYTE PTR [eax+24]
  001a9	84 d2		 test	 dl, dl
  001ab	74 7c		 je	 SHORT $LN72@LoadFloat_@5
  001ad	80 f2 ed	 xor	 dl, -19			; ffffffedH
  001b0	88 55 f4	 mov	 BYTE PTR __k$[ebp+24], dl
  001b3	8a 50 19	 mov	 dl, BYTE PTR [eax+25]
  001b6	84 d2		 test	 dl, dl
  001b8	74 67		 je	 SHORT $LN71@LoadFloat_@5
  001ba	32 d1		 xor	 dl, cl
  001bc	80 78 1a 00	 cmp	 BYTE PTR [eax+26], 0
  001c0	88 55 f5	 mov	 BYTE PTR __k$[ebp+25], dl
  001c3	0f 84 ed 00 00
	00		 je	 $LN1@LoadFloat_@5
  001c9	8a 50 1b	 mov	 dl, BYTE PTR [eax+27]
  001cc	84 d2		 test	 dl, dl
  001ce	74 49		 je	 SHORT $LN69@LoadFloat_@5
  001d0	32 d3		 xor	 dl, bl
  001d2	88 55 f7	 mov	 BYTE PTR __k$[ebp+27], dl
  001d5	8a 50 1c	 mov	 dl, BYTE PTR [eax+28]
  001d8	84 d2		 test	 dl, dl
  001da	74 34		 je	 SHORT $LN68@LoadFloat_@5
  001dc	80 f2 ed	 xor	 dl, -19			; ffffffedH
  001df	88 55 f8	 mov	 BYTE PTR __k$[ebp+28], dl
  001e2	8a 50 1d	 mov	 dl, BYTE PTR [eax+29]
  001e5	84 d2		 test	 dl, dl
  001e7	74 1f		 je	 SHORT $LN67@LoadFloat_@5
  001e9	8a 40 1e	 mov	 al, BYTE PTR [eax+30]
  001ec	32 d1		 xor	 dl, cl
  001ee	88 55 f9	 mov	 BYTE PTR __k$[ebp+29], dl
  001f1	84 c0		 test	 al, al
  001f3	74 0a		 je	 SHORT $LN66@LoadFloat_@5
  001f5	34 eb		 xor	 al, -21			; ffffffebH
  001f7	88 45 fa	 mov	 BYTE PTR __k$[ebp+30], al
  001fa	e9 b7 00 00 00	 jmp	 $LN1@LoadFloat_@5
$LN66@LoadFloat_@5:
  001ff	c6 45 fa eb	 mov	 BYTE PTR __k$[ebp+30], -21 ; ffffffebH
  00203	e9 ae 00 00 00	 jmp	 $LN1@LoadFloat_@5
$LN67@LoadFloat_@5:
  00208	88 4d f9	 mov	 BYTE PTR __k$[ebp+29], cl
  0020b	e9 a6 00 00 00	 jmp	 $LN1@LoadFloat_@5
$LN68@LoadFloat_@5:
  00210	c6 45 f8 ed	 mov	 BYTE PTR __k$[ebp+28], -19 ; ffffffedH
  00214	e9 9d 00 00 00	 jmp	 $LN1@LoadFloat_@5
$LN69@LoadFloat_@5:
  00219	88 5d f7	 mov	 BYTE PTR __k$[ebp+27], bl
  0021c	e9 95 00 00 00	 jmp	 $LN1@LoadFloat_@5
$LN71@LoadFloat_@5:
  00221	88 4d f5	 mov	 BYTE PTR __k$[ebp+25], cl
  00224	e9 8d 00 00 00	 jmp	 $LN1@LoadFloat_@5
$LN72@LoadFloat_@5:
  00229	c6 45 f4 ed	 mov	 BYTE PTR __k$[ebp+24], -19 ; ffffffedH
  0022d	e9 84 00 00 00	 jmp	 $LN1@LoadFloat_@5
$LN73@LoadFloat_@5:
  00232	88 5d f3	 mov	 BYTE PTR __k$[ebp+23], bl
  00235	eb 7f		 jmp	 SHORT $LN1@LoadFloat_@5
$LN74@LoadFloat_@5:
  00237	c6 45 f2 eb	 mov	 BYTE PTR __k$[ebp+22], -21 ; ffffffebH
  0023b	eb 79		 jmp	 SHORT $LN1@LoadFloat_@5
$LN75@LoadFloat_@5:
  0023d	88 4d f1	 mov	 BYTE PTR __k$[ebp+21], cl
  00240	eb 74		 jmp	 SHORT $LN1@LoadFloat_@5
$LN76@LoadFloat_@5:
  00242	c6 45 f0 ed	 mov	 BYTE PTR __k$[ebp+20], -19 ; ffffffedH
  00246	eb 6e		 jmp	 SHORT $LN1@LoadFloat_@5
$LN77@LoadFloat_@5:
  00248	88 5d ef	 mov	 BYTE PTR __k$[ebp+19], bl
  0024b	eb 69		 jmp	 SHORT $LN1@LoadFloat_@5
$LN78@LoadFloat_@5:
  0024d	c6 45 ee eb	 mov	 BYTE PTR __k$[ebp+18], -21 ; ffffffebH
  00251	eb 63		 jmp	 SHORT $LN1@LoadFloat_@5
$LN79@LoadFloat_@5:
  00253	88 4d ed	 mov	 BYTE PTR __k$[ebp+17], cl
  00256	eb 5e		 jmp	 SHORT $LN1@LoadFloat_@5
$LN80@LoadFloat_@5:
  00258	c6 45 ec ed	 mov	 BYTE PTR __k$[ebp+16], -19 ; ffffffedH
  0025c	eb 58		 jmp	 SHORT $LN1@LoadFloat_@5
$LN81@LoadFloat_@5:
  0025e	88 5d eb	 mov	 BYTE PTR __k$[ebp+15], bl
  00261	eb 53		 jmp	 SHORT $LN1@LoadFloat_@5
$LN82@LoadFloat_@5:
  00263	c6 45 ea eb	 mov	 BYTE PTR __k$[ebp+14], -21 ; ffffffebH
  00267	eb 4d		 jmp	 SHORT $LN1@LoadFloat_@5
$LN83@LoadFloat_@5:
  00269	88 4d e9	 mov	 BYTE PTR __k$[ebp+13], cl
  0026c	eb 48		 jmp	 SHORT $LN1@LoadFloat_@5
$LN84@LoadFloat_@5:
  0026e	c6 45 e8 ed	 mov	 BYTE PTR __k$[ebp+12], -19 ; ffffffedH
  00272	eb 42		 jmp	 SHORT $LN1@LoadFloat_@5
$LN85@LoadFloat_@5:
  00274	88 5d e7	 mov	 BYTE PTR __k$[ebp+11], bl
  00277	eb 3d		 jmp	 SHORT $LN1@LoadFloat_@5
$LN86@LoadFloat_@5:
  00279	c6 45 e6 eb	 mov	 BYTE PTR __k$[ebp+10], -21 ; ffffffebH
  0027d	eb 37		 jmp	 SHORT $LN1@LoadFloat_@5
$LN87@LoadFloat_@5:
  0027f	88 4d e5	 mov	 BYTE PTR __k$[ebp+9], cl
  00282	eb 32		 jmp	 SHORT $LN1@LoadFloat_@5
$LN88@LoadFloat_@5:
  00284	c6 45 e4 ed	 mov	 BYTE PTR __k$[ebp+8], -19 ; ffffffedH
  00288	eb 2c		 jmp	 SHORT $LN1@LoadFloat_@5
$LN89@LoadFloat_@5:
  0028a	88 5d e3	 mov	 BYTE PTR __k$[ebp+7], bl
  0028d	eb 27		 jmp	 SHORT $LN1@LoadFloat_@5
$LN90@LoadFloat_@5:
  0028f	c6 45 e2 eb	 mov	 BYTE PTR __k$[ebp+6], -21 ; ffffffebH
  00293	eb 21		 jmp	 SHORT $LN1@LoadFloat_@5
$LN91@LoadFloat_@5:
  00295	88 4d e1	 mov	 BYTE PTR __k$[ebp+5], cl
  00298	eb 1c		 jmp	 SHORT $LN1@LoadFloat_@5
$LN92@LoadFloat_@5:
  0029a	c6 45 e0 ed	 mov	 BYTE PTR __k$[ebp+4], -19 ; ffffffedH
  0029e	eb 16		 jmp	 SHORT $LN1@LoadFloat_@5
$LN93@LoadFloat_@5:
  002a0	c6 45 df ea	 mov	 BYTE PTR __k$[ebp+3], -22 ; ffffffeaH
  002a4	eb 10		 jmp	 SHORT $LN1@LoadFloat_@5
$LN94@LoadFloat_@5:
  002a6	c6 45 de eb	 mov	 BYTE PTR __k$[ebp+2], -21 ; ffffffebH
  002aa	eb 0a		 jmp	 SHORT $LN1@LoadFloat_@5
$LN95@LoadFloat_@5:
  002ac	c6 45 dd ec	 mov	 BYTE PTR __k$[ebp+1], -20 ; ffffffecH
  002b0	eb 04		 jmp	 SHORT $LN1@LoadFloat_@5
$LN96@LoadFloat_@5:
  002b2	c6 45 dc ed	 mov	 BYTE PTR __k$[ebp], -19	; ffffffedH
$LN1@LoadFloat_@5:
  002b6	6a 06		 push	 6
  002b8	8d 45 dc	 lea	 eax, DWORD PTR __k$[ebp]
  002bb	c6 45 f6 00	 mov	 BYTE PTR __k$[ebp+26], 0
  002bf	5a		 pop	 edx
$LL104@LoadFloat_@5:
  002c0	81 30 ed ec eb
	ea		 xor	 DWORD PTR [eax], -353637139 ; eaebecedH
  002c6	83 c0 04	 add	 eax, 4
  002c9	4a		 dec	 edx
  002ca	75 f4		 jne	 SHORT $LL104@LoadFloat_@5
  002cc	6a 18		 push	 24			; 00000018H
  002ce	58		 pop	 eax
$LL101@LoadFloat_@5:
  002cf	8b c8		 mov	 ecx, eax
  002d1	81 e1 03 00 00
	80		 and	 ecx, -2147483645	; 80000003H
  002d7	79 05		 jns	 SHORT $LN111@LoadFloat_@5
  002d9	49		 dec	 ecx
  002da	83 c9 fc	 or	 ecx, -4			; fffffffcH
  002dd	41		 inc	 ecx
$LN111@LoadFloat_@5:
  002de	b2 ed		 mov	 dl, -19			; ffffffedH
  002e0	2a d1		 sub	 dl, cl
  002e2	30 54 05 dc	 xor	 BYTE PTR __k$[ebp+eax], dl
  002e6	40		 inc	 eax
  002e7	83 f8 1a	 cmp	 eax, 26			; 0000001aH
  002ea	7c e3		 jl	 SHORT $LL101@LoadFloat_@5

; 137  : 		return LoadFloat(_k, f);

  002ec	f3 0f 10 45 0c	 movss	 xmm0, DWORD PTR _f$[ebp]
  002f1	51		 push	 ecx
  002f2	8d 45 dc	 lea	 eax, DWORD PTR __k$[ebp]
  002f5	f3 0f 11 04 24	 movss	 DWORD PTR [esp], xmm0
  002fa	50		 push	 eax
  002fb	8b ce		 mov	 ecx, esi
  002fd	ff 15 00 00 00
	00		 call	 DWORD PTR __imp_?LoadFloat@ioINILoader@@QAEMPBDM@Z

; 138  : 	}

  00303	8b 4d fc	 mov	 ecx, DWORD PTR __$ArrayPad$[ebp]
  00306	5e		 pop	 esi
  00307	33 cd		 xor	 ecx, ebp
  00309	5b		 pop	 ebx
  0030a	e8 00 00 00 00	 call	 @__security_check_cookie@4
  0030f	c9		 leave
  00310	c2 08 00	 ret	 8
??$LoadFloat_e@$0BL@@ioINILoader@@QAEMAAY0BL@$$CBDM@Z ENDP ; ioINILoader::LoadFloat_e<27>
_TEXT	ENDS
PUBLIC	_this$GSCopy$
PUBLIC	__$ArrayPad$
PUBLIC	??$LoadString_e@$0BD@@ioINILoader@@QAEXAAY0BD@$$CBDAAY00$$CBDPADH@Z ; ioINILoader::LoadString_e<19>
EXTRN	__imp_?LoadStringA@ioINILoader@@QAEXPBD0PADH@Z:PROC
; Function compile flags: /Ogsp
;	COMDAT ??$LoadString_e@$0BD@@ioINILoader@@QAEXAAY0BD@$$CBDAAY00$$CBDPADH@Z
_TEXT	SEGMENT
_this$GSCopy$ = -32					; size = 4
__k$ = -28						; size = 19
__$ArrayPad$ = -4					; size = 4
_k$ = 8							; size = 4
_d$ = 12						; size = 4
_b$ = 16						; size = 4
_i$ = 20						; size = 4
??$LoadString_e@$0BD@@ioINILoader@@QAEXAAY0BD@$$CBDAAY00$$CBDPADH@Z PROC ; ioINILoader::LoadString_e<19>, COMDAT
; _this$ = ecx

; 161  : 	{

  00000	55		 push	 ebp
  00001	8b ec		 mov	 ebp, esp
  00003	83 ec 20	 sub	 esp, 32			; 00000020H
  00006	a1 00 00 00 00	 mov	 eax, DWORD PTR ___security_cookie
  0000b	33 c5		 xor	 eax, ebp
  0000d	89 45 fc	 mov	 DWORD PTR __$ArrayPad$[ebp], eax
  00010	8b 45 08	 mov	 eax, DWORD PTR _k$[ebp]

; 162  : 		_ENCSTR(k, _k);

  00013	8a 10		 mov	 dl, BYTE PTR [eax]
  00015	56		 push	 esi
  00016	8b 75 0c	 mov	 esi, DWORD PTR _d$[ebp]
  00019	57		 push	 edi
  0001a	8b 7d 10	 mov	 edi, DWORD PTR _b$[ebp]
  0001d	89 4d e0	 mov	 DWORD PTR _this$GSCopy$[ebp], ecx
  00020	84 d2		 test	 dl, dl
  00022	0f 84 cf 01 00
	00		 je	 $LN96@LoadString
  00028	80 f2 ed	 xor	 dl, -19			; ffffffedH
  0002b	88 55 e4	 mov	 BYTE PTR __k$[ebp], dl
  0002e	8a 50 01	 mov	 dl, BYTE PTR [eax+1]
  00031	84 d2		 test	 dl, dl
  00033	0f 84 b8 01 00
	00		 je	 $LN95@LoadString
  00039	b1 ec		 mov	 cl, -20			; ffffffecH
  0003b	32 d1		 xor	 dl, cl
  0003d	88 55 e5	 mov	 BYTE PTR __k$[ebp+1], dl
  00040	8a 50 02	 mov	 dl, BYTE PTR [eax+2]
  00043	84 d2		 test	 dl, dl
  00045	0f 84 a0 01 00
	00		 je	 $LN94@LoadString
  0004b	80 f2 eb	 xor	 dl, -21			; ffffffebH
  0004e	88 55 e6	 mov	 BYTE PTR __k$[ebp+2], dl
  00051	8a 50 03	 mov	 dl, BYTE PTR [eax+3]
  00054	84 d2		 test	 dl, dl
  00056	0f 84 89 01 00
	00		 je	 $LN93@LoadString
  0005c	80 f2 ea	 xor	 dl, -22			; ffffffeaH
  0005f	88 55 e7	 mov	 BYTE PTR __k$[ebp+3], dl
  00062	8a 50 04	 mov	 dl, BYTE PTR [eax+4]
  00065	84 d2		 test	 dl, dl
  00067	0f 84 72 01 00
	00		 je	 $LN92@LoadString
  0006d	80 f2 ed	 xor	 dl, -19			; ffffffedH
  00070	88 55 e8	 mov	 BYTE PTR __k$[ebp+4], dl
  00073	8a 50 05	 mov	 dl, BYTE PTR [eax+5]
  00076	84 d2		 test	 dl, dl
  00078	0f 84 5c 01 00
	00		 je	 $LN91@LoadString
  0007e	32 d1		 xor	 dl, cl
  00080	88 55 e9	 mov	 BYTE PTR __k$[ebp+5], dl
  00083	8a 50 06	 mov	 dl, BYTE PTR [eax+6]
  00086	84 d2		 test	 dl, dl
  00088	0f 84 46 01 00
	00		 je	 $LN90@LoadString
  0008e	80 f2 eb	 xor	 dl, -21			; ffffffebH
  00091	88 55 ea	 mov	 BYTE PTR __k$[ebp+6], dl
  00094	8a 50 07	 mov	 dl, BYTE PTR [eax+7]
  00097	84 d2		 test	 dl, dl
  00099	0f 84 2f 01 00
	00		 je	 $LN89@LoadString
  0009f	80 f2 ea	 xor	 dl, -22			; ffffffeaH
  000a2	88 55 eb	 mov	 BYTE PTR __k$[ebp+7], dl
  000a5	8a 50 08	 mov	 dl, BYTE PTR [eax+8]
  000a8	84 d2		 test	 dl, dl
  000aa	0f 84 18 01 00
	00		 je	 $LN88@LoadString
  000b0	80 f2 ed	 xor	 dl, -19			; ffffffedH
  000b3	88 55 ec	 mov	 BYTE PTR __k$[ebp+8], dl
  000b6	8a 50 09	 mov	 dl, BYTE PTR [eax+9]
  000b9	84 d2		 test	 dl, dl
  000bb	0f 84 02 01 00
	00		 je	 $LN87@LoadString
  000c1	32 d1		 xor	 dl, cl
  000c3	88 55 ed	 mov	 BYTE PTR __k$[ebp+9], dl
  000c6	8a 50 0a	 mov	 dl, BYTE PTR [eax+10]
  000c9	84 d2		 test	 dl, dl
  000cb	0f 84 ec 00 00
	00		 je	 $LN86@LoadString
  000d1	80 f2 eb	 xor	 dl, -21			; ffffffebH
  000d4	88 55 ee	 mov	 BYTE PTR __k$[ebp+10], dl
  000d7	8a 50 0b	 mov	 dl, BYTE PTR [eax+11]
  000da	84 d2		 test	 dl, dl
  000dc	0f 84 d5 00 00
	00		 je	 $LN85@LoadString
  000e2	80 f2 ea	 xor	 dl, -22			; ffffffeaH
  000e5	88 55 ef	 mov	 BYTE PTR __k$[ebp+11], dl
  000e8	8a 50 0c	 mov	 dl, BYTE PTR [eax+12]
  000eb	84 d2		 test	 dl, dl
  000ed	0f 84 be 00 00
	00		 je	 $LN84@LoadString
  000f3	80 f2 ed	 xor	 dl, -19			; ffffffedH
  000f6	88 55 f0	 mov	 BYTE PTR __k$[ebp+12], dl
  000f9	8a 50 0d	 mov	 dl, BYTE PTR [eax+13]
  000fc	84 d2		 test	 dl, dl
  000fe	0f 84 a8 00 00
	00		 je	 $LN83@LoadString
  00104	32 d1		 xor	 dl, cl
  00106	88 55 f1	 mov	 BYTE PTR __k$[ebp+13], dl
  00109	8a 50 0e	 mov	 dl, BYTE PTR [eax+14]
  0010c	84 d2		 test	 dl, dl
  0010e	0f 84 92 00 00
	00		 je	 $LN82@LoadString
  00114	80 f2 eb	 xor	 dl, -21			; ffffffebH
  00117	88 55 f2	 mov	 BYTE PTR __k$[ebp+14], dl
  0011a	8a 50 0f	 mov	 dl, BYTE PTR [eax+15]
  0011d	84 d2		 test	 dl, dl
  0011f	74 7f		 je	 SHORT $LN81@LoadString
  00121	80 f2 ea	 xor	 dl, -22			; ffffffeaH
  00124	88 55 f3	 mov	 BYTE PTR __k$[ebp+15], dl
  00127	8a 50 10	 mov	 dl, BYTE PTR [eax+16]
  0012a	84 d2		 test	 dl, dl
  0012c	74 6c		 je	 SHORT $LN80@LoadString
  0012e	80 f2 ed	 xor	 dl, -19			; ffffffedH
  00131	88 55 f4	 mov	 BYTE PTR __k$[ebp+16], dl
  00134	8a 50 11	 mov	 dl, BYTE PTR [eax+17]
  00137	84 d2		 test	 dl, dl
  00139	74 5a		 je	 SHORT $LN79@LoadString
  0013b	32 d1		 xor	 dl, cl
  0013d	80 78 12 00	 cmp	 BYTE PTR [eax+18], 0
  00141	88 55 f5	 mov	 BYTE PTR __k$[ebp+17], dl
  00144	0f 84 b1 00 00
	00		 je	 $LN111@LoadString
  0014a	8a 50 13	 mov	 dl, BYTE PTR [eax+19]
  0014d	84 d2		 test	 dl, dl
  0014f	74 3e		 je	 SHORT $LN77@LoadString
  00151	80 f2 ea	 xor	 dl, -22			; ffffffeaH
  00154	88 55 f7	 mov	 BYTE PTR __k$[ebp+19], dl
  00157	8a 50 14	 mov	 dl, BYTE PTR [eax+20]
  0015a	84 d2		 test	 dl, dl
  0015c	74 2b		 je	 SHORT $LN76@LoadString
  0015e	80 f2 ed	 xor	 dl, -19			; ffffffedH
  00161	88 55 f8	 mov	 BYTE PTR __k$[ebp+20], dl
  00164	8a 50 15	 mov	 dl, BYTE PTR [eax+21]
  00167	84 d2		 test	 dl, dl
  00169	74 19		 je	 SHORT $LN75@LoadString
  0016b	8a 40 16	 mov	 al, BYTE PTR [eax+22]
  0016e	32 d1		 xor	 dl, cl
  00170	88 55 f9	 mov	 BYTE PTR __k$[ebp+21], dl
  00173	84 c0		 test	 al, al
  00175	74 07		 je	 SHORT $LN74@LoadString
  00177	34 eb		 xor	 al, -21			; ffffffebH
  00179	88 45 fa	 mov	 BYTE PTR __k$[ebp+22], al
  0017c	eb 7d		 jmp	 SHORT $LN111@LoadString
$LN74@LoadString:
  0017e	c6 45 fa eb	 mov	 BYTE PTR __k$[ebp+22], -21 ; ffffffebH
  00182	eb 77		 jmp	 SHORT $LN111@LoadString
$LN75@LoadString:
  00184	88 4d f9	 mov	 BYTE PTR __k$[ebp+21], cl
  00187	eb 72		 jmp	 SHORT $LN111@LoadString
$LN76@LoadString:
  00189	c6 45 f8 ed	 mov	 BYTE PTR __k$[ebp+20], -19 ; ffffffedH
  0018d	eb 6c		 jmp	 SHORT $LN111@LoadString
$LN77@LoadString:
  0018f	c6 45 f7 ea	 mov	 BYTE PTR __k$[ebp+19], -22 ; ffffffeaH
  00193	eb 66		 jmp	 SHORT $LN111@LoadString
$LN79@LoadString:
  00195	88 4d f5	 mov	 BYTE PTR __k$[ebp+17], cl
  00198	eb 61		 jmp	 SHORT $LN111@LoadString
$LN80@LoadString:
  0019a	c6 45 f4 ed	 mov	 BYTE PTR __k$[ebp+16], -19 ; ffffffedH
  0019e	eb 5b		 jmp	 SHORT $LN111@LoadString
$LN81@LoadString:
  001a0	c6 45 f3 ea	 mov	 BYTE PTR __k$[ebp+15], -22 ; ffffffeaH
  001a4	eb 55		 jmp	 SHORT $LN111@LoadString
$LN82@LoadString:
  001a6	c6 45 f2 eb	 mov	 BYTE PTR __k$[ebp+14], -21 ; ffffffebH
  001aa	eb 4f		 jmp	 SHORT $LN111@LoadString
$LN83@LoadString:
  001ac	88 4d f1	 mov	 BYTE PTR __k$[ebp+13], cl
  001af	eb 4a		 jmp	 SHORT $LN111@LoadString
$LN84@LoadString:
  001b1	c6 45 f0 ed	 mov	 BYTE PTR __k$[ebp+12], -19 ; ffffffedH
  001b5	eb 44		 jmp	 SHORT $LN111@LoadString
$LN85@LoadString:
  001b7	c6 45 ef ea	 mov	 BYTE PTR __k$[ebp+11], -22 ; ffffffeaH
  001bb	eb 3e		 jmp	 SHORT $LN111@LoadString
$LN86@LoadString:
  001bd	c6 45 ee eb	 mov	 BYTE PTR __k$[ebp+10], -21 ; ffffffebH
  001c1	eb 38		 jmp	 SHORT $LN111@LoadString
$LN87@LoadString:
  001c3	88 4d ed	 mov	 BYTE PTR __k$[ebp+9], cl
  001c6	eb 33		 jmp	 SHORT $LN111@LoadString
$LN88@LoadString:
  001c8	c6 45 ec ed	 mov	 BYTE PTR __k$[ebp+8], -19 ; ffffffedH
  001cc	eb 2d		 jmp	 SHORT $LN111@LoadString
$LN89@LoadString:
  001ce	c6 45 eb ea	 mov	 BYTE PTR __k$[ebp+7], -22 ; ffffffeaH
  001d2	eb 27		 jmp	 SHORT $LN111@LoadString
$LN90@LoadString:
  001d4	c6 45 ea eb	 mov	 BYTE PTR __k$[ebp+6], -21 ; ffffffebH
  001d8	eb 21		 jmp	 SHORT $LN111@LoadString
$LN91@LoadString:
  001da	88 4d e9	 mov	 BYTE PTR __k$[ebp+5], cl
  001dd	eb 1c		 jmp	 SHORT $LN111@LoadString
$LN92@LoadString:
  001df	c6 45 e8 ed	 mov	 BYTE PTR __k$[ebp+4], -19 ; ffffffedH
  001e3	eb 16		 jmp	 SHORT $LN111@LoadString
$LN93@LoadString:
  001e5	c6 45 e7 ea	 mov	 BYTE PTR __k$[ebp+3], -22 ; ffffffeaH
  001e9	eb 10		 jmp	 SHORT $LN111@LoadString
$LN94@LoadString:
  001eb	c6 45 e6 eb	 mov	 BYTE PTR __k$[ebp+2], -21 ; ffffffebH
  001ef	eb 0a		 jmp	 SHORT $LN111@LoadString
$LN95@LoadString:
  001f1	c6 45 e5 ec	 mov	 BYTE PTR __k$[ebp+1], -20 ; ffffffecH
  001f5	eb 04		 jmp	 SHORT $LN111@LoadString
$LN96@LoadString:
  001f7	c6 45 e4 ed	 mov	 BYTE PTR __k$[ebp], -19	; ffffffedH
$LN111@LoadString:
  001fb	6a 04		 push	 4
  001fd	8d 45 e4	 lea	 eax, DWORD PTR __k$[ebp]
  00200	c6 45 f6 00	 mov	 BYTE PTR __k$[ebp+18], 0
  00204	5a		 pop	 edx
$LL104@LoadString:
  00205	81 30 ed ec eb
	ea		 xor	 DWORD PTR [eax], -353637139 ; eaebecedH
  0020b	83 c0 04	 add	 eax, 4
  0020e	4a		 dec	 edx
  0020f	75 f4		 jne	 SHORT $LL104@LoadString
  00211	6a 10		 push	 16			; 00000010H
  00213	58		 pop	 eax
$LL101@LoadString:
  00214	8b c8		 mov	 ecx, eax
  00216	81 e1 03 00 00
	80		 and	 ecx, -2147483645	; 80000003H
  0021c	79 05		 jns	 SHORT $LN112@LoadString
  0021e	49		 dec	 ecx
  0021f	83 c9 fc	 or	 ecx, -4			; fffffffcH
  00222	41		 inc	 ecx
$LN112@LoadString:
  00223	b2 ed		 mov	 dl, -19			; ffffffedH
  00225	2a d1		 sub	 dl, cl
  00227	30 54 05 e4	 xor	 BYTE PTR __k$[ebp+eax], dl
  0022b	40		 inc	 eax
  0022c	83 f8 12	 cmp	 eax, 18			; 00000012H
  0022f	7c e3		 jl	 SHORT $LL101@LoadString

; 163  : 		LoadString(_k, d, b, i);

  00231	ff 75 14	 push	 DWORD PTR _i$[ebp]
  00234	8b 4d e0	 mov	 ecx, DWORD PTR _this$GSCopy$[ebp]
  00237	57		 push	 edi
  00238	56		 push	 esi
  00239	8d 45 e4	 lea	 eax, DWORD PTR __k$[ebp]
  0023c	50		 push	 eax
  0023d	ff 15 00 00 00
	00		 call	 DWORD PTR __imp_?LoadStringA@ioINILoader@@QAEXPBD0PADH@Z

; 164  : 	}

  00243	8b 4d fc	 mov	 ecx, DWORD PTR __$ArrayPad$[ebp]
  00246	5f		 pop	 edi
  00247	33 cd		 xor	 ecx, ebp
  00249	5e		 pop	 esi
  0024a	e8 00 00 00 00	 call	 @__security_check_cookie@4
  0024f	c9		 leave
  00250	c2 10 00	 ret	 16			; 00000010H
??$LoadString_e@$0BD@@ioINILoader@@QAEXAAY0BD@$$CBDAAY00$$CBDPADH@Z ENDP ; ioINILoader::LoadString_e<19>
_TEXT	ENDS
PUBLIC	_this$GSCopy$
PUBLIC	__$ArrayPad$
PUBLIC	??$LoadString_e@$0BJ@@ioINILoader@@QAEXAAY0BJ@$$CBDAAY00$$CBDPADH@Z ; ioINILoader::LoadString_e<25>
; Function compile flags: /Ogsp
;	COMDAT ??$LoadString_e@$0BJ@@ioINILoader@@QAEXAAY0BJ@$$CBDAAY00$$CBDPADH@Z
_TEXT	SEGMENT
_this$GSCopy$ = -40					; size = 4
__k$ = -36						; size = 25
__$ArrayPad$ = -4					; size = 4
_k$ = 8							; size = 4
_d$ = 12						; size = 4
_b$ = 16						; size = 4
_i$ = 20						; size = 4
??$LoadString_e@$0BJ@@ioINILoader@@QAEXAAY0BJ@$$CBDAAY00$$CBDPADH@Z PROC ; ioINILoader::LoadString_e<25>, COMDAT
; _this$ = ecx

; 161  : 	{

  00000	55		 push	 ebp
  00001	8b ec		 mov	 ebp, esp
  00003	83 ec 28	 sub	 esp, 40			; 00000028H
  00006	a1 00 00 00 00	 mov	 eax, DWORD PTR ___security_cookie
  0000b	33 c5		 xor	 eax, ebp
  0000d	89 45 fc	 mov	 DWORD PTR __$ArrayPad$[ebp], eax
  00010	8b 45 08	 mov	 eax, DWORD PTR _k$[ebp]

; 162  : 		_ENCSTR(k, _k);

  00013	8a 10		 mov	 dl, BYTE PTR [eax]
  00015	53		 push	 ebx
  00016	56		 push	 esi
  00017	8b 75 0c	 mov	 esi, DWORD PTR _d$[ebp]
  0001a	57		 push	 edi
  0001b	8b 7d 10	 mov	 edi, DWORD PTR _b$[ebp]
  0001e	89 4d d8	 mov	 DWORD PTR _this$GSCopy$[ebp], ecx
  00021	84 d2		 test	 dl, dl
  00023	0f 84 5f 02 00
	00		 je	 $LN96@LoadString@2
  00029	80 f2 ed	 xor	 dl, -19			; ffffffedH
  0002c	88 55 dc	 mov	 BYTE PTR __k$[ebp], dl
  0002f	8a 50 01	 mov	 dl, BYTE PTR [eax+1]
  00032	84 d2		 test	 dl, dl
  00034	0f 84 48 02 00
	00		 je	 $LN95@LoadString@2
  0003a	b1 ec		 mov	 cl, -20			; ffffffecH
  0003c	32 d1		 xor	 dl, cl
  0003e	88 55 dd	 mov	 BYTE PTR __k$[ebp+1], dl
  00041	8a 50 02	 mov	 dl, BYTE PTR [eax+2]
  00044	84 d2		 test	 dl, dl
  00046	0f 84 30 02 00
	00		 je	 $LN94@LoadString@2
  0004c	b3 eb		 mov	 bl, -21			; ffffffebH
  0004e	32 d3		 xor	 dl, bl
  00050	88 55 de	 mov	 BYTE PTR __k$[ebp+2], dl
  00053	8a 50 03	 mov	 dl, BYTE PTR [eax+3]
  00056	84 d2		 test	 dl, dl
  00058	0f 84 18 02 00
	00		 je	 $LN93@LoadString@2
  0005e	80 f2 ea	 xor	 dl, -22			; ffffffeaH
  00061	88 55 df	 mov	 BYTE PTR __k$[ebp+3], dl
  00064	8a 50 04	 mov	 dl, BYTE PTR [eax+4]
  00067	84 d2		 test	 dl, dl
  00069	0f 84 01 02 00
	00		 je	 $LN92@LoadString@2
  0006f	80 f2 ed	 xor	 dl, -19			; ffffffedH
  00072	88 55 e0	 mov	 BYTE PTR __k$[ebp+4], dl
  00075	8a 50 05	 mov	 dl, BYTE PTR [eax+5]
  00078	84 d2		 test	 dl, dl
  0007a	0f 84 eb 01 00
	00		 je	 $LN91@LoadString@2
  00080	32 d1		 xor	 dl, cl
  00082	88 55 e1	 mov	 BYTE PTR __k$[ebp+5], dl
  00085	8a 50 06	 mov	 dl, BYTE PTR [eax+6]
  00088	84 d2		 test	 dl, dl
  0008a	0f 84 d6 01 00
	00		 je	 $LN90@LoadString@2
  00090	32 d3		 xor	 dl, bl
  00092	88 55 e2	 mov	 BYTE PTR __k$[ebp+6], dl
  00095	8a 50 07	 mov	 dl, BYTE PTR [eax+7]
  00098	84 d2		 test	 dl, dl
  0009a	0f 84 c0 01 00
	00		 je	 $LN89@LoadString@2
  000a0	80 f2 ea	 xor	 dl, -22			; ffffffeaH
  000a3	88 55 e3	 mov	 BYTE PTR __k$[ebp+7], dl
  000a6	8a 50 08	 mov	 dl, BYTE PTR [eax+8]
  000a9	84 d2		 test	 dl, dl
  000ab	0f 84 a9 01 00
	00		 je	 $LN88@LoadString@2
  000b1	80 f2 ed	 xor	 dl, -19			; ffffffedH
  000b4	88 55 e4	 mov	 BYTE PTR __k$[ebp+8], dl
  000b7	8a 50 09	 mov	 dl, BYTE PTR [eax+9]
  000ba	84 d2		 test	 dl, dl
  000bc	0f 84 93 01 00
	00		 je	 $LN87@LoadString@2
  000c2	32 d1		 xor	 dl, cl
  000c4	88 55 e5	 mov	 BYTE PTR __k$[ebp+9], dl
  000c7	8a 50 0a	 mov	 dl, BYTE PTR [eax+10]
  000ca	84 d2		 test	 dl, dl
  000cc	0f 84 7e 01 00
	00		 je	 $LN86@LoadString@2
  000d2	32 d3		 xor	 dl, bl
  000d4	88 55 e6	 mov	 BYTE PTR __k$[ebp+10], dl
  000d7	8a 50 0b	 mov	 dl, BYTE PTR [eax+11]
  000da	84 d2		 test	 dl, dl
  000dc	0f 84 68 01 00
	00		 je	 $LN85@LoadString@2
  000e2	80 f2 ea	 xor	 dl, -22			; ffffffeaH
  000e5	88 55 e7	 mov	 BYTE PTR __k$[ebp+11], dl
  000e8	8a 50 0c	 mov	 dl, BYTE PTR [eax+12]
  000eb	84 d2		 test	 dl, dl
  000ed	0f 84 51 01 00
	00		 je	 $LN84@LoadString@2
  000f3	80 f2 ed	 xor	 dl, -19			; ffffffedH
  000f6	88 55 e8	 mov	 BYTE PTR __k$[ebp+12], dl
  000f9	8a 50 0d	 mov	 dl, BYTE PTR [eax+13]
  000fc	84 d2		 test	 dl, dl
  000fe	0f 84 3b 01 00
	00		 je	 $LN83@LoadString@2
  00104	32 d1		 xor	 dl, cl
  00106	88 55 e9	 mov	 BYTE PTR __k$[ebp+13], dl
  00109	8a 50 0e	 mov	 dl, BYTE PTR [eax+14]
  0010c	84 d2		 test	 dl, dl
  0010e	0f 84 26 01 00
	00		 je	 $LN82@LoadString@2
  00114	32 d3		 xor	 dl, bl
  00116	88 55 ea	 mov	 BYTE PTR __k$[ebp+14], dl
  00119	8a 50 0f	 mov	 dl, BYTE PTR [eax+15]
  0011c	84 d2		 test	 dl, dl
  0011e	0f 84 10 01 00
	00		 je	 $LN81@LoadString@2
  00124	80 f2 ea	 xor	 dl, -22			; ffffffeaH
  00127	88 55 eb	 mov	 BYTE PTR __k$[ebp+15], dl
  0012a	8a 50 10	 mov	 dl, BYTE PTR [eax+16]
  0012d	84 d2		 test	 dl, dl
  0012f	0f 84 f9 00 00
	00		 je	 $LN80@LoadString@2
  00135	80 f2 ed	 xor	 dl, -19			; ffffffedH
  00138	88 55 ec	 mov	 BYTE PTR __k$[ebp+16], dl
  0013b	8a 50 11	 mov	 dl, BYTE PTR [eax+17]
  0013e	84 d2		 test	 dl, dl
  00140	0f 84 e3 00 00
	00		 je	 $LN79@LoadString@2
  00146	32 d1		 xor	 dl, cl
  00148	88 55 ed	 mov	 BYTE PTR __k$[ebp+17], dl
  0014b	8a 50 12	 mov	 dl, BYTE PTR [eax+18]
  0014e	84 d2		 test	 dl, dl
  00150	0f 84 ce 00 00
	00		 je	 $LN78@LoadString@2
  00156	32 d3		 xor	 dl, bl
  00158	88 55 ee	 mov	 BYTE PTR __k$[ebp+18], dl
  0015b	8a 50 13	 mov	 dl, BYTE PTR [eax+19]
  0015e	84 d2		 test	 dl, dl
  00160	0f 84 b8 00 00
	00		 je	 $LN77@LoadString@2
  00166	80 f2 ea	 xor	 dl, -22			; ffffffeaH
  00169	88 55 ef	 mov	 BYTE PTR __k$[ebp+19], dl
  0016c	8a 50 14	 mov	 dl, BYTE PTR [eax+20]
  0016f	84 d2		 test	 dl, dl
  00171	0f 84 a1 00 00
	00		 je	 $LN76@LoadString@2
  00177	80 f2 ed	 xor	 dl, -19			; ffffffedH
  0017a	88 55 f0	 mov	 BYTE PTR __k$[ebp+20], dl
  0017d	8a 50 15	 mov	 dl, BYTE PTR [eax+21]
  00180	84 d2		 test	 dl, dl
  00182	0f 84 8b 00 00
	00		 je	 $LN75@LoadString@2
  00188	32 d1		 xor	 dl, cl
  0018a	88 55 f1	 mov	 BYTE PTR __k$[ebp+21], dl
  0018d	8a 50 16	 mov	 dl, BYTE PTR [eax+22]
  00190	84 d2		 test	 dl, dl
  00192	74 7a		 je	 SHORT $LN74@LoadString@2
  00194	32 d3		 xor	 dl, bl
  00196	88 55 f2	 mov	 BYTE PTR __k$[ebp+22], dl
  00199	8a 50 17	 mov	 dl, BYTE PTR [eax+23]
  0019c	84 d2		 test	 dl, dl
  0019e	74 68		 je	 SHORT $LN73@LoadString@2
  001a0	80 f2 ea	 xor	 dl, -22			; ffffffeaH
  001a3	80 78 18 00	 cmp	 BYTE PTR [eax+24], 0
  001a7	88 55 f3	 mov	 BYTE PTR __k$[ebp+23], dl
  001aa	0f 84 dc 00 00
	00		 je	 $LN111@LoadString@2
  001b0	8a 50 19	 mov	 dl, BYTE PTR [eax+25]
  001b3	84 d2		 test	 dl, dl
  001b5	74 49		 je	 SHORT $LN71@LoadString@2
  001b7	32 d1		 xor	 dl, cl
  001b9	88 55 f5	 mov	 BYTE PTR __k$[ebp+25], dl
  001bc	8a 50 1a	 mov	 dl, BYTE PTR [eax+26]
  001bf	84 d2		 test	 dl, dl
  001c1	74 35		 je	 SHORT $LN70@LoadString@2
  001c3	32 d3		 xor	 dl, bl
  001c5	88 55 f6	 mov	 BYTE PTR __k$[ebp+26], dl
  001c8	8a 50 1b	 mov	 dl, BYTE PTR [eax+27]
  001cb	84 d2		 test	 dl, dl
  001cd	74 20		 je	 SHORT $LN69@LoadString@2
  001cf	8a 40 1c	 mov	 al, BYTE PTR [eax+28]
  001d2	80 f2 ea	 xor	 dl, -22			; ffffffeaH
  001d5	88 55 f7	 mov	 BYTE PTR __k$[ebp+27], dl
  001d8	84 c0		 test	 al, al
  001da	74 0a		 je	 SHORT $LN68@LoadString@2
  001dc	34 ed		 xor	 al, -19			; ffffffedH
  001de	88 45 f8	 mov	 BYTE PTR __k$[ebp+28], al
  001e1	e9 a6 00 00 00	 jmp	 $LN111@LoadString@2
$LN68@LoadString@2:
  001e6	c6 45 f8 ed	 mov	 BYTE PTR __k$[ebp+28], -19 ; ffffffedH
  001ea	e9 9d 00 00 00	 jmp	 $LN111@LoadString@2
$LN69@LoadString@2:
  001ef	c6 45 f7 ea	 mov	 BYTE PTR __k$[ebp+27], -22 ; ffffffeaH
  001f3	e9 94 00 00 00	 jmp	 $LN111@LoadString@2
$LN70@LoadString@2:
  001f8	88 5d f6	 mov	 BYTE PTR __k$[ebp+26], bl
  001fb	e9 8c 00 00 00	 jmp	 $LN111@LoadString@2
$LN71@LoadString@2:
  00200	88 4d f5	 mov	 BYTE PTR __k$[ebp+25], cl
  00203	e9 84 00 00 00	 jmp	 $LN111@LoadString@2
$LN73@LoadString@2:
  00208	c6 45 f3 ea	 mov	 BYTE PTR __k$[ebp+23], -22 ; ffffffeaH
  0020c	eb 7e		 jmp	 SHORT $LN111@LoadString@2
$LN74@LoadString@2:
  0020e	88 5d f2	 mov	 BYTE PTR __k$[ebp+22], bl
  00211	eb 79		 jmp	 SHORT $LN111@LoadString@2
$LN75@LoadString@2:
  00213	88 4d f1	 mov	 BYTE PTR __k$[ebp+21], cl
  00216	eb 74		 jmp	 SHORT $LN111@LoadString@2
$LN76@LoadString@2:
  00218	c6 45 f0 ed	 mov	 BYTE PTR __k$[ebp+20], -19 ; ffffffedH
  0021c	eb 6e		 jmp	 SHORT $LN111@LoadString@2
$LN77@LoadString@2:
  0021e	c6 45 ef ea	 mov	 BYTE PTR __k$[ebp+19], -22 ; ffffffeaH
  00222	eb 68		 jmp	 SHORT $LN111@LoadString@2
$LN78@LoadString@2:
  00224	88 5d ee	 mov	 BYTE PTR __k$[ebp+18], bl
  00227	eb 63		 jmp	 SHORT $LN111@LoadString@2
$LN79@LoadString@2:
  00229	88 4d ed	 mov	 BYTE PTR __k$[ebp+17], cl
  0022c	eb 5e		 jmp	 SHORT $LN111@LoadString@2
$LN80@LoadString@2:
  0022e	c6 45 ec ed	 mov	 BYTE PTR __k$[ebp+16], -19 ; ffffffedH
  00232	eb 58		 jmp	 SHORT $LN111@LoadString@2
$LN81@LoadString@2:
  00234	c6 45 eb ea	 mov	 BYTE PTR __k$[ebp+15], -22 ; ffffffeaH
  00238	eb 52		 jmp	 SHORT $LN111@LoadString@2
$LN82@LoadString@2:
  0023a	88 5d ea	 mov	 BYTE PTR __k$[ebp+14], bl
  0023d	eb 4d		 jmp	 SHORT $LN111@LoadString@2
$LN83@LoadString@2:
  0023f	88 4d e9	 mov	 BYTE PTR __k$[ebp+13], cl
  00242	eb 48		 jmp	 SHORT $LN111@LoadString@2
$LN84@LoadString@2:
  00244	c6 45 e8 ed	 mov	 BYTE PTR __k$[ebp+12], -19 ; ffffffedH
  00248	eb 42		 jmp	 SHORT $LN111@LoadString@2
$LN85@LoadString@2:
  0024a	c6 45 e7 ea	 mov	 BYTE PTR __k$[ebp+11], -22 ; ffffffeaH
  0024e	eb 3c		 jmp	 SHORT $LN111@LoadString@2
$LN86@LoadString@2:
  00250	88 5d e6	 mov	 BYTE PTR __k$[ebp+10], bl
  00253	eb 37		 jmp	 SHORT $LN111@LoadString@2
$LN87@LoadString@2:
  00255	88 4d e5	 mov	 BYTE PTR __k$[ebp+9], cl
  00258	eb 32		 jmp	 SHORT $LN111@LoadString@2
$LN88@LoadString@2:
  0025a	c6 45 e4 ed	 mov	 BYTE PTR __k$[ebp+8], -19 ; ffffffedH
  0025e	eb 2c		 jmp	 SHORT $LN111@LoadString@2
$LN89@LoadString@2:
  00260	c6 45 e3 ea	 mov	 BYTE PTR __k$[ebp+7], -22 ; ffffffeaH
  00264	eb 26		 jmp	 SHORT $LN111@LoadString@2
$LN90@LoadString@2:
  00266	88 5d e2	 mov	 BYTE PTR __k$[ebp+6], bl
  00269	eb 21		 jmp	 SHORT $LN111@LoadString@2
$LN91@LoadString@2:
  0026b	88 4d e1	 mov	 BYTE PTR __k$[ebp+5], cl
  0026e	eb 1c		 jmp	 SHORT $LN111@LoadString@2
$LN92@LoadString@2:
  00270	c6 45 e0 ed	 mov	 BYTE PTR __k$[ebp+4], -19 ; ffffffedH
  00274	eb 16		 jmp	 SHORT $LN111@LoadString@2
$LN93@LoadString@2:
  00276	c6 45 df ea	 mov	 BYTE PTR __k$[ebp+3], -22 ; ffffffeaH
  0027a	eb 10		 jmp	 SHORT $LN111@LoadString@2
$LN94@LoadString@2:
  0027c	c6 45 de eb	 mov	 BYTE PTR __k$[ebp+2], -21 ; ffffffebH
  00280	eb 0a		 jmp	 SHORT $LN111@LoadString@2
$LN95@LoadString@2:
  00282	c6 45 dd ec	 mov	 BYTE PTR __k$[ebp+1], -20 ; ffffffecH
  00286	eb 04		 jmp	 SHORT $LN111@LoadString@2
$LN96@LoadString@2:
  00288	c6 45 dc ed	 mov	 BYTE PTR __k$[ebp], -19	; ffffffedH
$LN111@LoadString@2:
  0028c	6a 06		 push	 6
  0028e	8d 45 dc	 lea	 eax, DWORD PTR __k$[ebp]
  00291	c6 45 f4 00	 mov	 BYTE PTR __k$[ebp+24], 0
  00295	5a		 pop	 edx
$LL104@LoadString@2:
  00296	81 30 ed ec eb
	ea		 xor	 DWORD PTR [eax], -353637139 ; eaebecedH
  0029c	83 c0 04	 add	 eax, 4
  0029f	4a		 dec	 edx
  002a0	75 f4		 jne	 SHORT $LL104@LoadString@2

; 163  : 		LoadString(_k, d, b, i);

  002a2	ff 75 14	 push	 DWORD PTR _i$[ebp]
  002a5	8b 4d d8	 mov	 ecx, DWORD PTR _this$GSCopy$[ebp]
  002a8	57		 push	 edi
  002a9	56		 push	 esi
  002aa	8d 45 dc	 lea	 eax, DWORD PTR __k$[ebp]
  002ad	50		 push	 eax
  002ae	ff 15 00 00 00
	00		 call	 DWORD PTR __imp_?LoadStringA@ioINILoader@@QAEXPBD0PADH@Z

; 164  : 	}

  002b4	8b 4d fc	 mov	 ecx, DWORD PTR __$ArrayPad$[ebp]
  002b7	5f		 pop	 edi
  002b8	5e		 pop	 esi
  002b9	33 cd		 xor	 ecx, ebp
  002bb	5b		 pop	 ebx
  002bc	e8 00 00 00 00	 call	 @__security_check_cookie@4
  002c1	c9		 leave
  002c2	c2 10 00	 ret	 16			; 00000010H
??$LoadString_e@$0BJ@@ioINILoader@@QAEXAAY0BJ@$$CBDAAY00$$CBDPADH@Z ENDP ; ioINILoader::LoadString_e<25>
_TEXT	ENDS
PUBLIC	_this$GSCopy$
PUBLIC	__$ArrayPad$
PUBLIC	??$LoadString_e@$0BK@@ioINILoader@@QAEXAAY0BK@$$CBDAAY00$$CBDPADH@Z ; ioINILoader::LoadString_e<26>
; Function compile flags: /Ogsp
;	COMDAT ??$LoadString_e@$0BK@@ioINILoader@@QAEXAAY0BK@$$CBDAAY00$$CBDPADH@Z
_TEXT	SEGMENT
_this$GSCopy$ = -40					; size = 4
__k$ = -36						; size = 26
__$ArrayPad$ = -4					; size = 4
_k$ = 8							; size = 4
_d$ = 12						; size = 4
_b$ = 16						; size = 4
_i$ = 20						; size = 4
??$LoadString_e@$0BK@@ioINILoader@@QAEXAAY0BK@$$CBDAAY00$$CBDPADH@Z PROC ; ioINILoader::LoadString_e<26>, COMDAT
; _this$ = ecx

; 161  : 	{

  00000	55		 push	 ebp
  00001	8b ec		 mov	 ebp, esp
  00003	83 ec 28	 sub	 esp, 40			; 00000028H
  00006	a1 00 00 00 00	 mov	 eax, DWORD PTR ___security_cookie
  0000b	33 c5		 xor	 eax, ebp
  0000d	89 45 fc	 mov	 DWORD PTR __$ArrayPad$[ebp], eax
  00010	8b 45 08	 mov	 eax, DWORD PTR _k$[ebp]

; 162  : 		_ENCSTR(k, _k);

  00013	8a 10		 mov	 dl, BYTE PTR [eax]
  00015	53		 push	 ebx
  00016	56		 push	 esi
  00017	8b 75 0c	 mov	 esi, DWORD PTR _d$[ebp]
  0001a	57		 push	 edi
  0001b	8b 7d 10	 mov	 edi, DWORD PTR _b$[ebp]
  0001e	89 4d d8	 mov	 DWORD PTR _this$GSCopy$[ebp], ecx
  00021	84 d2		 test	 dl, dl
  00023	0f 84 79 02 00
	00		 je	 $LN96@LoadString@3
  00029	80 f2 ed	 xor	 dl, -19			; ffffffedH
  0002c	88 55 dc	 mov	 BYTE PTR __k$[ebp], dl
  0002f	8a 50 01	 mov	 dl, BYTE PTR [eax+1]
  00032	84 d2		 test	 dl, dl
  00034	0f 84 62 02 00
	00		 je	 $LN95@LoadString@3
  0003a	80 f2 ec	 xor	 dl, -20			; ffffffecH
  0003d	88 55 dd	 mov	 BYTE PTR __k$[ebp+1], dl
  00040	8a 50 02	 mov	 dl, BYTE PTR [eax+2]
  00043	84 d2		 test	 dl, dl
  00045	0f 84 4b 02 00
	00		 je	 $LN94@LoadString@3
  0004b	b1 eb		 mov	 cl, -21			; ffffffebH
  0004d	32 d1		 xor	 dl, cl
  0004f	88 55 de	 mov	 BYTE PTR __k$[ebp+2], dl
  00052	8a 50 03	 mov	 dl, BYTE PTR [eax+3]
  00055	84 d2		 test	 dl, dl
  00057	0f 84 33 02 00
	00		 je	 $LN93@LoadString@3
  0005d	b3 ea		 mov	 bl, -22			; ffffffeaH
  0005f	32 d3		 xor	 dl, bl
  00061	88 55 df	 mov	 BYTE PTR __k$[ebp+3], dl
  00064	8a 50 04	 mov	 dl, BYTE PTR [eax+4]
  00067	84 d2		 test	 dl, dl
  00069	0f 84 1b 02 00
	00		 je	 $LN92@LoadString@3
  0006f	80 f2 ed	 xor	 dl, -19			; ffffffedH
  00072	88 55 e0	 mov	 BYTE PTR __k$[ebp+4], dl
  00075	8a 50 05	 mov	 dl, BYTE PTR [eax+5]
  00078	84 d2		 test	 dl, dl
  0007a	0f 84 04 02 00
	00		 je	 $LN91@LoadString@3
  00080	80 f2 ec	 xor	 dl, -20			; ffffffecH
  00083	88 55 e1	 mov	 BYTE PTR __k$[ebp+5], dl
  00086	8a 50 06	 mov	 dl, BYTE PTR [eax+6]
  00089	84 d2		 test	 dl, dl
  0008b	0f 84 ee 01 00
	00		 je	 $LN90@LoadString@3
  00091	32 d1		 xor	 dl, cl
  00093	88 55 e2	 mov	 BYTE PTR __k$[ebp+6], dl
  00096	8a 50 07	 mov	 dl, BYTE PTR [eax+7]
  00099	84 d2		 test	 dl, dl
  0009b	0f 84 d9 01 00
	00		 je	 $LN89@LoadString@3
  000a1	32 d3		 xor	 dl, bl
  000a3	88 55 e3	 mov	 BYTE PTR __k$[ebp+7], dl
  000a6	8a 50 08	 mov	 dl, BYTE PTR [eax+8]
  000a9	84 d2		 test	 dl, dl
  000ab	0f 84 c3 01 00
	00		 je	 $LN88@LoadString@3
  000b1	80 f2 ed	 xor	 dl, -19			; ffffffedH
  000b4	88 55 e4	 mov	 BYTE PTR __k$[ebp+8], dl
  000b7	8a 50 09	 mov	 dl, BYTE PTR [eax+9]
  000ba	84 d2		 test	 dl, dl
  000bc	0f 84 ac 01 00
	00		 je	 $LN87@LoadString@3
  000c2	80 f2 ec	 xor	 dl, -20			; ffffffecH
  000c5	88 55 e5	 mov	 BYTE PTR __k$[ebp+9], dl
  000c8	8a 50 0a	 mov	 dl, BYTE PTR [eax+10]
  000cb	84 d2		 test	 dl, dl
  000cd	0f 84 96 01 00
	00		 je	 $LN86@LoadString@3
  000d3	32 d1		 xor	 dl, cl
  000d5	88 55 e6	 mov	 BYTE PTR __k$[ebp+10], dl
  000d8	8a 50 0b	 mov	 dl, BYTE PTR [eax+11]
  000db	84 d2		 test	 dl, dl
  000dd	0f 84 81 01 00
	00		 je	 $LN85@LoadString@3
  000e3	32 d3		 xor	 dl, bl
  000e5	88 55 e7	 mov	 BYTE PTR __k$[ebp+11], dl
  000e8	8a 50 0c	 mov	 dl, BYTE PTR [eax+12]
  000eb	84 d2		 test	 dl, dl
  000ed	0f 84 6b 01 00
	00		 je	 $LN84@LoadString@3
  000f3	80 f2 ed	 xor	 dl, -19			; ffffffedH
  000f6	88 55 e8	 mov	 BYTE PTR __k$[ebp+12], dl
  000f9	8a 50 0d	 mov	 dl, BYTE PTR [eax+13]
  000fc	84 d2		 test	 dl, dl
  000fe	0f 84 54 01 00
	00		 je	 $LN83@LoadString@3
  00104	80 f2 ec	 xor	 dl, -20			; ffffffecH
  00107	88 55 e9	 mov	 BYTE PTR __k$[ebp+13], dl
  0010a	8a 50 0e	 mov	 dl, BYTE PTR [eax+14]
  0010d	84 d2		 test	 dl, dl
  0010f	0f 84 3e 01 00
	00		 je	 $LN82@LoadString@3
  00115	32 d1		 xor	 dl, cl
  00117	88 55 ea	 mov	 BYTE PTR __k$[ebp+14], dl
  0011a	8a 50 0f	 mov	 dl, BYTE PTR [eax+15]
  0011d	84 d2		 test	 dl, dl
  0011f	0f 84 29 01 00
	00		 je	 $LN81@LoadString@3
  00125	32 d3		 xor	 dl, bl
  00127	88 55 eb	 mov	 BYTE PTR __k$[ebp+15], dl
  0012a	8a 50 10	 mov	 dl, BYTE PTR [eax+16]
  0012d	84 d2		 test	 dl, dl
  0012f	0f 84 13 01 00
	00		 je	 $LN80@LoadString@3
  00135	80 f2 ed	 xor	 dl, -19			; ffffffedH
  00138	88 55 ec	 mov	 BYTE PTR __k$[ebp+16], dl
  0013b	8a 50 11	 mov	 dl, BYTE PTR [eax+17]
  0013e	84 d2		 test	 dl, dl
  00140	0f 84 fc 00 00
	00		 je	 $LN79@LoadString@3
  00146	80 f2 ec	 xor	 dl, -20			; ffffffecH
  00149	88 55 ed	 mov	 BYTE PTR __k$[ebp+17], dl
  0014c	8a 50 12	 mov	 dl, BYTE PTR [eax+18]
  0014f	84 d2		 test	 dl, dl
  00151	0f 84 e6 00 00
	00		 je	 $LN78@LoadString@3
  00157	32 d1		 xor	 dl, cl
  00159	88 55 ee	 mov	 BYTE PTR __k$[ebp+18], dl
  0015c	8a 50 13	 mov	 dl, BYTE PTR [eax+19]
  0015f	84 d2		 test	 dl, dl
  00161	0f 84 d1 00 00
	00		 je	 $LN77@LoadString@3
  00167	32 d3		 xor	 dl, bl
  00169	88 55 ef	 mov	 BYTE PTR __k$[ebp+19], dl
  0016c	8a 50 14	 mov	 dl, BYTE PTR [eax+20]
  0016f	84 d2		 test	 dl, dl
  00171	0f 84 bb 00 00
	00		 je	 $LN76@LoadString@3
  00177	80 f2 ed	 xor	 dl, -19			; ffffffedH
  0017a	88 55 f0	 mov	 BYTE PTR __k$[ebp+20], dl
  0017d	8a 50 15	 mov	 dl, BYTE PTR [eax+21]
  00180	84 d2		 test	 dl, dl
  00182	0f 84 a4 00 00
	00		 je	 $LN75@LoadString@3
  00188	80 f2 ec	 xor	 dl, -20			; ffffffecH
  0018b	88 55 f1	 mov	 BYTE PTR __k$[ebp+21], dl
  0018e	8a 50 16	 mov	 dl, BYTE PTR [eax+22]
  00191	84 d2		 test	 dl, dl
  00193	0f 84 8e 00 00
	00		 je	 $LN74@LoadString@3
  00199	32 d1		 xor	 dl, cl
  0019b	88 55 f2	 mov	 BYTE PTR __k$[ebp+22], dl
  0019e	8a 50 17	 mov	 dl, BYTE PTR [eax+23]
  001a1	84 d2		 test	 dl, dl
  001a3	74 7d		 je	 SHORT $LN73@LoadString@3
  001a5	32 d3		 xor	 dl, bl
  001a7	88 55 f3	 mov	 BYTE PTR __k$[ebp+23], dl
  001aa	8a 50 18	 mov	 dl, BYTE PTR [eax+24]
  001ad	84 d2		 test	 dl, dl
  001af	74 68		 je	 SHORT $LN72@LoadString@3
  001b1	80 f2 ed	 xor	 dl, -19			; ffffffedH
  001b4	80 78 19 00	 cmp	 BYTE PTR [eax+25], 0
  001b8	88 55 f4	 mov	 BYTE PTR __k$[ebp+24], dl
  001bb	0f 84 e5 00 00
	00		 je	 $LN111@LoadString@3
  001c1	8a 50 1a	 mov	 dl, BYTE PTR [eax+26]
  001c4	84 d2		 test	 dl, dl
  001c6	74 49		 je	 SHORT $LN70@LoadString@3
  001c8	32 d1		 xor	 dl, cl
  001ca	88 55 f6	 mov	 BYTE PTR __k$[ebp+26], dl
  001cd	8a 50 1b	 mov	 dl, BYTE PTR [eax+27]
  001d0	84 d2		 test	 dl, dl
  001d2	74 35		 je	 SHORT $LN69@LoadString@3
  001d4	32 d3		 xor	 dl, bl
  001d6	88 55 f7	 mov	 BYTE PTR __k$[ebp+27], dl
  001d9	8a 50 1c	 mov	 dl, BYTE PTR [eax+28]
  001dc	84 d2		 test	 dl, dl
  001de	74 20		 je	 SHORT $LN68@LoadString@3
  001e0	8a 40 1d	 mov	 al, BYTE PTR [eax+29]
  001e3	80 f2 ed	 xor	 dl, -19			; ffffffedH
  001e6	88 55 f8	 mov	 BYTE PTR __k$[ebp+28], dl
  001e9	84 c0		 test	 al, al
  001eb	74 0a		 je	 SHORT $LN67@LoadString@3
  001ed	34 ec		 xor	 al, -20			; ffffffecH
  001ef	88 45 f9	 mov	 BYTE PTR __k$[ebp+29], al
  001f2	e9 af 00 00 00	 jmp	 $LN111@LoadString@3
$LN67@LoadString@3:
  001f7	c6 45 f9 ec	 mov	 BYTE PTR __k$[ebp+29], -20 ; ffffffecH
  001fb	e9 a6 00 00 00	 jmp	 $LN111@LoadString@3
$LN68@LoadString@3:
  00200	c6 45 f8 ed	 mov	 BYTE PTR __k$[ebp+28], -19 ; ffffffedH
  00204	e9 9d 00 00 00	 jmp	 $LN111@LoadString@3
$LN69@LoadString@3:
  00209	88 5d f7	 mov	 BYTE PTR __k$[ebp+27], bl
  0020c	e9 95 00 00 00	 jmp	 $LN111@LoadString@3
$LN70@LoadString@3:
  00211	88 4d f6	 mov	 BYTE PTR __k$[ebp+26], cl
  00214	e9 8d 00 00 00	 jmp	 $LN111@LoadString@3
$LN72@LoadString@3:
  00219	c6 45 f4 ed	 mov	 BYTE PTR __k$[ebp+24], -19 ; ffffffedH
  0021d	e9 84 00 00 00	 jmp	 $LN111@LoadString@3
$LN73@LoadString@3:
  00222	88 5d f3	 mov	 BYTE PTR __k$[ebp+23], bl
  00225	eb 7f		 jmp	 SHORT $LN111@LoadString@3
$LN74@LoadString@3:
  00227	88 4d f2	 mov	 BYTE PTR __k$[ebp+22], cl
  0022a	eb 7a		 jmp	 SHORT $LN111@LoadString@3
$LN75@LoadString@3:
  0022c	c6 45 f1 ec	 mov	 BYTE PTR __k$[ebp+21], -20 ; ffffffecH
  00230	eb 74		 jmp	 SHORT $LN111@LoadString@3
$LN76@LoadString@3:
  00232	c6 45 f0 ed	 mov	 BYTE PTR __k$[ebp+20], -19 ; ffffffedH
  00236	eb 6e		 jmp	 SHORT $LN111@LoadString@3
$LN77@LoadString@3:
  00238	88 5d ef	 mov	 BYTE PTR __k$[ebp+19], bl
  0023b	eb 69		 jmp	 SHORT $LN111@LoadString@3
$LN78@LoadString@3:
  0023d	88 4d ee	 mov	 BYTE PTR __k$[ebp+18], cl
  00240	eb 64		 jmp	 SHORT $LN111@LoadString@3
$LN79@LoadString@3:
  00242	c6 45 ed ec	 mov	 BYTE PTR __k$[ebp+17], -20 ; ffffffecH
  00246	eb 5e		 jmp	 SHORT $LN111@LoadString@3
$LN80@LoadString@3:
  00248	c6 45 ec ed	 mov	 BYTE PTR __k$[ebp+16], -19 ; ffffffedH
  0024c	eb 58		 jmp	 SHORT $LN111@LoadString@3
$LN81@LoadString@3:
  0024e	88 5d eb	 mov	 BYTE PTR __k$[ebp+15], bl
  00251	eb 53		 jmp	 SHORT $LN111@LoadString@3
$LN82@LoadString@3:
  00253	88 4d ea	 mov	 BYTE PTR __k$[ebp+14], cl
  00256	eb 4e		 jmp	 SHORT $LN111@LoadString@3
$LN83@LoadString@3:
  00258	c6 45 e9 ec	 mov	 BYTE PTR __k$[ebp+13], -20 ; ffffffecH
  0025c	eb 48		 jmp	 SHORT $LN111@LoadString@3
$LN84@LoadString@3:
  0025e	c6 45 e8 ed	 mov	 BYTE PTR __k$[ebp+12], -19 ; ffffffedH
  00262	eb 42		 jmp	 SHORT $LN111@LoadString@3
$LN85@LoadString@3:
  00264	88 5d e7	 mov	 BYTE PTR __k$[ebp+11], bl
  00267	eb 3d		 jmp	 SHORT $LN111@LoadString@3
$LN86@LoadString@3:
  00269	88 4d e6	 mov	 BYTE PTR __k$[ebp+10], cl
  0026c	eb 38		 jmp	 SHORT $LN111@LoadString@3
$LN87@LoadString@3:
  0026e	c6 45 e5 ec	 mov	 BYTE PTR __k$[ebp+9], -20 ; ffffffecH
  00272	eb 32		 jmp	 SHORT $LN111@LoadString@3
$LN88@LoadString@3:
  00274	c6 45 e4 ed	 mov	 BYTE PTR __k$[ebp+8], -19 ; ffffffedH
  00278	eb 2c		 jmp	 SHORT $LN111@LoadString@3
$LN89@LoadString@3:
  0027a	88 5d e3	 mov	 BYTE PTR __k$[ebp+7], bl
  0027d	eb 27		 jmp	 SHORT $LN111@LoadString@3
$LN90@LoadString@3:
  0027f	88 4d e2	 mov	 BYTE PTR __k$[ebp+6], cl
  00282	eb 22		 jmp	 SHORT $LN111@LoadString@3
$LN91@LoadString@3:
  00284	c6 45 e1 ec	 mov	 BYTE PTR __k$[ebp+5], -20 ; ffffffecH
  00288	eb 1c		 jmp	 SHORT $LN111@LoadString@3
$LN92@LoadString@3:
  0028a	c6 45 e0 ed	 mov	 BYTE PTR __k$[ebp+4], -19 ; ffffffedH
  0028e	eb 16		 jmp	 SHORT $LN111@LoadString@3
$LN93@LoadString@3:
  00290	c6 45 df ea	 mov	 BYTE PTR __k$[ebp+3], -22 ; ffffffeaH
  00294	eb 10		 jmp	 SHORT $LN111@LoadString@3
$LN94@LoadString@3:
  00296	c6 45 de eb	 mov	 BYTE PTR __k$[ebp+2], -21 ; ffffffebH
  0029a	eb 0a		 jmp	 SHORT $LN111@LoadString@3
$LN95@LoadString@3:
  0029c	c6 45 dd ec	 mov	 BYTE PTR __k$[ebp+1], -20 ; ffffffecH
  002a0	eb 04		 jmp	 SHORT $LN111@LoadString@3
$LN96@LoadString@3:
  002a2	c6 45 dc ed	 mov	 BYTE PTR __k$[ebp], -19	; ffffffedH
$LN111@LoadString@3:
  002a6	6a 06		 push	 6
  002a8	8d 45 dc	 lea	 eax, DWORD PTR __k$[ebp]
  002ab	c6 45 f5 00	 mov	 BYTE PTR __k$[ebp+25], 0
  002af	5a		 pop	 edx
$LL104@LoadString@3:
  002b0	81 30 ed ec eb
	ea		 xor	 DWORD PTR [eax], -353637139 ; eaebecedH
  002b6	83 c0 04	 add	 eax, 4
  002b9	4a		 dec	 edx
  002ba	75 f4		 jne	 SHORT $LL104@LoadString@3

; 163  : 		LoadString(_k, d, b, i);

  002bc	ff 75 14	 push	 DWORD PTR _i$[ebp]
  002bf	8b 4d d8	 mov	 ecx, DWORD PTR _this$GSCopy$[ebp]
  002c2	80 75 f4 ed	 xor	 BYTE PTR __k$[ebp+24], -19 ; ffffffedH
  002c6	57		 push	 edi
  002c7	56		 push	 esi
  002c8	8d 45 dc	 lea	 eax, DWORD PTR __k$[ebp]
  002cb	50		 push	 eax
  002cc	ff 15 00 00 00
	00		 call	 DWORD PTR __imp_?LoadStringA@ioINILoader@@QAEXPBD0PADH@Z

; 164  : 	}

  002d2	8b 4d fc	 mov	 ecx, DWORD PTR __$ArrayPad$[ebp]
  002d5	5f		 pop	 edi
  002d6	5e		 pop	 esi
  002d7	33 cd		 xor	 ecx, ebp
  002d9	5b		 pop	 ebx
  002da	e8 00 00 00 00	 call	 @__security_check_cookie@4
  002df	c9		 leave
  002e0	c2 10 00	 ret	 16			; 00000010H
??$LoadString_e@$0BK@@ioINILoader@@QAEXAAY0BK@$$CBDAAY00$$CBDPADH@Z ENDP ; ioINILoader::LoadString_e<26>
_TEXT	ENDS
PUBLIC	__$ArrayPad$
PUBLIC	??$LoadFloat_e@$0CG@@ioINILoader@@QAEMAAY0CG@$$CBDM@Z ; ioINILoader::LoadFloat_e<38>
; Function compile flags: /Ogsp
;	COMDAT ??$LoadFloat_e@$0CG@@ioINILoader@@QAEMAAY0CG@$$CBDM@Z
_TEXT	SEGMENT
__k$ = -48						; size = 38
__$ArrayPad$ = -4					; size = 4
_k$ = 8							; size = 4
_f$ = 12						; size = 4
??$LoadFloat_e@$0CG@@ioINILoader@@QAEMAAY0CG@$$CBDM@Z PROC ; ioINILoader::LoadFloat_e<38>, COMDAT
; _this$ = ecx

; 135  : 	{

  00000	55		 push	 ebp
  00001	8b ec		 mov	 ebp, esp
  00003	83 ec 30	 sub	 esp, 48			; 00000030H
  00006	a1 00 00 00 00	 mov	 eax, DWORD PTR ___security_cookie
  0000b	33 c5		 xor	 eax, ebp
  0000d	89 45 fc	 mov	 DWORD PTR __$ArrayPad$[ebp], eax
  00010	8b 45 08	 mov	 eax, DWORD PTR _k$[ebp]

; 136  : 		_ENCSTR(k, _k);

  00013	8a 10		 mov	 dl, BYTE PTR [eax]
  00015	53		 push	 ebx
  00016	56		 push	 esi
  00017	8b f1		 mov	 esi, ecx
  00019	84 d2		 test	 dl, dl
  0001b	0f 84 a5 03 00
	00		 je	 $LN96@LoadFloat_@6
  00021	80 f2 ed	 xor	 dl, -19			; ffffffedH
  00024	88 55 d0	 mov	 BYTE PTR __k$[ebp], dl
  00027	8a 50 01	 mov	 dl, BYTE PTR [eax+1]
  0002a	84 d2		 test	 dl, dl
  0002c	0f 84 8e 03 00
	00		 je	 $LN95@LoadFloat_@6
  00032	80 f2 ec	 xor	 dl, -20			; ffffffecH
  00035	88 55 d1	 mov	 BYTE PTR __k$[ebp+1], dl
  00038	8a 50 02	 mov	 dl, BYTE PTR [eax+2]
  0003b	84 d2		 test	 dl, dl
  0003d	0f 84 77 03 00
	00		 je	 $LN94@LoadFloat_@6
  00043	b1 eb		 mov	 cl, -21			; ffffffebH
  00045	32 d1		 xor	 dl, cl
  00047	88 55 d2	 mov	 BYTE PTR __k$[ebp+2], dl
  0004a	8a 50 03	 mov	 dl, BYTE PTR [eax+3]
  0004d	84 d2		 test	 dl, dl
  0004f	0f 84 5f 03 00
	00		 je	 $LN93@LoadFloat_@6
  00055	b3 ea		 mov	 bl, -22			; ffffffeaH
  00057	32 d3		 xor	 dl, bl
  00059	88 55 d3	 mov	 BYTE PTR __k$[ebp+3], dl
  0005c	8a 50 04	 mov	 dl, BYTE PTR [eax+4]
  0005f	84 d2		 test	 dl, dl
  00061	0f 84 47 03 00
	00		 je	 $LN92@LoadFloat_@6
  00067	80 f2 ed	 xor	 dl, -19			; ffffffedH
  0006a	88 55 d4	 mov	 BYTE PTR __k$[ebp+4], dl
  0006d	8a 50 05	 mov	 dl, BYTE PTR [eax+5]
  00070	84 d2		 test	 dl, dl
  00072	0f 84 30 03 00
	00		 je	 $LN91@LoadFloat_@6
  00078	80 f2 ec	 xor	 dl, -20			; ffffffecH
  0007b	88 55 d5	 mov	 BYTE PTR __k$[ebp+5], dl
  0007e	8a 50 06	 mov	 dl, BYTE PTR [eax+6]
  00081	84 d2		 test	 dl, dl
  00083	0f 84 1a 03 00
	00		 je	 $LN90@LoadFloat_@6
  00089	32 d1		 xor	 dl, cl
  0008b	88 55 d6	 mov	 BYTE PTR __k$[ebp+6], dl
  0008e	8a 50 07	 mov	 dl, BYTE PTR [eax+7]
  00091	84 d2		 test	 dl, dl
  00093	0f 84 05 03 00
	00		 je	 $LN89@LoadFloat_@6
  00099	32 d3		 xor	 dl, bl
  0009b	88 55 d7	 mov	 BYTE PTR __k$[ebp+7], dl
  0009e	8a 50 08	 mov	 dl, BYTE PTR [eax+8]
  000a1	84 d2		 test	 dl, dl
  000a3	0f 84 ef 02 00
	00		 je	 $LN88@LoadFloat_@6
  000a9	80 f2 ed	 xor	 dl, -19			; ffffffedH
  000ac	88 55 d8	 mov	 BYTE PTR __k$[ebp+8], dl
  000af	8a 50 09	 mov	 dl, BYTE PTR [eax+9]
  000b2	84 d2		 test	 dl, dl
  000b4	0f 84 d8 02 00
	00		 je	 $LN87@LoadFloat_@6
  000ba	80 f2 ec	 xor	 dl, -20			; ffffffecH
  000bd	88 55 d9	 mov	 BYTE PTR __k$[ebp+9], dl
  000c0	8a 50 0a	 mov	 dl, BYTE PTR [eax+10]
  000c3	84 d2		 test	 dl, dl
  000c5	0f 84 c2 02 00
	00		 je	 $LN86@LoadFloat_@6
  000cb	32 d1		 xor	 dl, cl
  000cd	88 55 da	 mov	 BYTE PTR __k$[ebp+10], dl
  000d0	8a 50 0b	 mov	 dl, BYTE PTR [eax+11]
  000d3	84 d2		 test	 dl, dl
  000d5	0f 84 ad 02 00
	00		 je	 $LN85@LoadFloat_@6
  000db	32 d3		 xor	 dl, bl
  000dd	88 55 db	 mov	 BYTE PTR __k$[ebp+11], dl
  000e0	8a 50 0c	 mov	 dl, BYTE PTR [eax+12]
  000e3	84 d2		 test	 dl, dl
  000e5	0f 84 97 02 00
	00		 je	 $LN84@LoadFloat_@6
  000eb	80 f2 ed	 xor	 dl, -19			; ffffffedH
  000ee	88 55 dc	 mov	 BYTE PTR __k$[ebp+12], dl
  000f1	8a 50 0d	 mov	 dl, BYTE PTR [eax+13]
  000f4	84 d2		 test	 dl, dl
  000f6	0f 84 80 02 00
	00		 je	 $LN83@LoadFloat_@6
  000fc	80 f2 ec	 xor	 dl, -20			; ffffffecH
  000ff	88 55 dd	 mov	 BYTE PTR __k$[ebp+13], dl
  00102	8a 50 0e	 mov	 dl, BYTE PTR [eax+14]
  00105	84 d2		 test	 dl, dl
  00107	0f 84 6a 02 00
	00		 je	 $LN82@LoadFloat_@6
  0010d	32 d1		 xor	 dl, cl
  0010f	88 55 de	 mov	 BYTE PTR __k$[ebp+14], dl
  00112	8a 50 0f	 mov	 dl, BYTE PTR [eax+15]
  00115	84 d2		 test	 dl, dl
  00117	0f 84 55 02 00
	00		 je	 $LN81@LoadFloat_@6
  0011d	32 d3		 xor	 dl, bl
  0011f	88 55 df	 mov	 BYTE PTR __k$[ebp+15], dl
  00122	8a 50 10	 mov	 dl, BYTE PTR [eax+16]
  00125	84 d2		 test	 dl, dl
  00127	0f 84 3f 02 00
	00		 je	 $LN80@LoadFloat_@6
  0012d	80 f2 ed	 xor	 dl, -19			; ffffffedH
  00130	88 55 e0	 mov	 BYTE PTR __k$[ebp+16], dl
  00133	8a 50 11	 mov	 dl, BYTE PTR [eax+17]
  00136	84 d2		 test	 dl, dl
  00138	0f 84 28 02 00
	00		 je	 $LN79@LoadFloat_@6
  0013e	80 f2 ec	 xor	 dl, -20			; ffffffecH
  00141	88 55 e1	 mov	 BYTE PTR __k$[ebp+17], dl
  00144	8a 50 12	 mov	 dl, BYTE PTR [eax+18]
  00147	84 d2		 test	 dl, dl
  00149	0f 84 12 02 00
	00		 je	 $LN78@LoadFloat_@6
  0014f	32 d1		 xor	 dl, cl
  00151	88 55 e2	 mov	 BYTE PTR __k$[ebp+18], dl
  00154	8a 50 13	 mov	 dl, BYTE PTR [eax+19]
  00157	84 d2		 test	 dl, dl
  00159	0f 84 fd 01 00
	00		 je	 $LN77@LoadFloat_@6
  0015f	32 d3		 xor	 dl, bl
  00161	88 55 e3	 mov	 BYTE PTR __k$[ebp+19], dl
  00164	8a 50 14	 mov	 dl, BYTE PTR [eax+20]
  00167	84 d2		 test	 dl, dl
  00169	0f 84 e7 01 00
	00		 je	 $LN76@LoadFloat_@6
  0016f	80 f2 ed	 xor	 dl, -19			; ffffffedH
  00172	88 55 e4	 mov	 BYTE PTR __k$[ebp+20], dl
  00175	8a 50 15	 mov	 dl, BYTE PTR [eax+21]
  00178	84 d2		 test	 dl, dl
  0017a	0f 84 d0 01 00
	00		 je	 $LN75@LoadFloat_@6
  00180	80 f2 ec	 xor	 dl, -20			; ffffffecH
  00183	88 55 e5	 mov	 BYTE PTR __k$[ebp+21], dl
  00186	8a 50 16	 mov	 dl, BYTE PTR [eax+22]
  00189	84 d2		 test	 dl, dl
  0018b	0f 84 ba 01 00
	00		 je	 $LN74@LoadFloat_@6
  00191	32 d1		 xor	 dl, cl
  00193	88 55 e6	 mov	 BYTE PTR __k$[ebp+22], dl
  00196	8a 50 17	 mov	 dl, BYTE PTR [eax+23]
  00199	84 d2		 test	 dl, dl
  0019b	0f 84 a5 01 00
	00		 je	 $LN73@LoadFloat_@6
  001a1	32 d3		 xor	 dl, bl
  001a3	88 55 e7	 mov	 BYTE PTR __k$[ebp+23], dl
  001a6	8a 50 18	 mov	 dl, BYTE PTR [eax+24]
  001a9	84 d2		 test	 dl, dl
  001ab	0f 84 8c 01 00
	00		 je	 $LN72@LoadFloat_@6
  001b1	80 f2 ed	 xor	 dl, -19			; ffffffedH
  001b4	88 55 e8	 mov	 BYTE PTR __k$[ebp+24], dl
  001b7	8a 50 19	 mov	 dl, BYTE PTR [eax+25]
  001ba	84 d2		 test	 dl, dl
  001bc	0f 84 72 01 00
	00		 je	 $LN71@LoadFloat_@6
  001c2	80 f2 ec	 xor	 dl, -20			; ffffffecH
  001c5	88 55 e9	 mov	 BYTE PTR __k$[ebp+25], dl
  001c8	8a 50 1a	 mov	 dl, BYTE PTR [eax+26]
  001cb	84 d2		 test	 dl, dl
  001cd	0f 84 59 01 00
	00		 je	 $LN70@LoadFloat_@6
  001d3	32 d1		 xor	 dl, cl
  001d5	88 55 ea	 mov	 BYTE PTR __k$[ebp+26], dl
  001d8	8a 50 1b	 mov	 dl, BYTE PTR [eax+27]
  001db	84 d2		 test	 dl, dl
  001dd	0f 84 41 01 00
	00		 je	 $LN69@LoadFloat_@6
  001e3	32 d3		 xor	 dl, bl
  001e5	88 55 eb	 mov	 BYTE PTR __k$[ebp+27], dl
  001e8	8a 50 1c	 mov	 dl, BYTE PTR [eax+28]
  001eb	84 d2		 test	 dl, dl
  001ed	0f 84 28 01 00
	00		 je	 $LN68@LoadFloat_@6
  001f3	80 f2 ed	 xor	 dl, -19			; ffffffedH
  001f6	88 55 ec	 mov	 BYTE PTR __k$[ebp+28], dl
  001f9	8a 50 1d	 mov	 dl, BYTE PTR [eax+29]
  001fc	84 d2		 test	 dl, dl
  001fe	0f 84 0e 01 00
	00		 je	 $LN67@LoadFloat_@6
  00204	80 f2 ec	 xor	 dl, -20			; ffffffecH
  00207	88 55 ed	 mov	 BYTE PTR __k$[ebp+29], dl
  0020a	8a 50 1e	 mov	 dl, BYTE PTR [eax+30]
  0020d	84 d2		 test	 dl, dl
  0020f	0f 84 f5 00 00
	00		 je	 $LN66@LoadFloat_@6
  00215	32 d1		 xor	 dl, cl
  00217	88 55 ee	 mov	 BYTE PTR __k$[ebp+30], dl
  0021a	8a 50 1f	 mov	 dl, BYTE PTR [eax+31]
  0021d	84 d2		 test	 dl, dl
  0021f	0f 84 dd 00 00
	00		 je	 $LN65@LoadFloat_@6
  00225	32 d3		 xor	 dl, bl
  00227	88 55 ef	 mov	 BYTE PTR __k$[ebp+31], dl
  0022a	8a 50 20	 mov	 dl, BYTE PTR [eax+32]
  0022d	84 d2		 test	 dl, dl
  0022f	0f 84 c4 00 00
	00		 je	 $LN64@LoadFloat_@6
  00235	80 f2 ed	 xor	 dl, -19			; ffffffedH
  00238	88 55 f0	 mov	 BYTE PTR __k$[ebp+32], dl
  0023b	8a 50 21	 mov	 dl, BYTE PTR [eax+33]
  0023e	84 d2		 test	 dl, dl
  00240	0f 84 aa 00 00
	00		 je	 $LN63@LoadFloat_@6
  00246	80 f2 ec	 xor	 dl, -20			; ffffffecH
  00249	88 55 f1	 mov	 BYTE PTR __k$[ebp+33], dl
  0024c	8a 50 22	 mov	 dl, BYTE PTR [eax+34]
  0024f	84 d2		 test	 dl, dl
  00251	0f 84 91 00 00
	00		 je	 $LN62@LoadFloat_@6
  00257	32 d1		 xor	 dl, cl
  00259	88 55 f2	 mov	 BYTE PTR __k$[ebp+34], dl
  0025c	8a 50 23	 mov	 dl, BYTE PTR [eax+35]
  0025f	84 d2		 test	 dl, dl
  00261	74 7d		 je	 SHORT $LN61@LoadFloat_@6
  00263	32 d3		 xor	 dl, bl
  00265	88 55 f3	 mov	 BYTE PTR __k$[ebp+35], dl
  00268	8a 50 24	 mov	 dl, BYTE PTR [eax+36]
  0026b	84 d2		 test	 dl, dl
  0026d	74 68		 je	 SHORT $LN60@LoadFloat_@6
  0026f	80 f2 ed	 xor	 dl, -19			; ffffffedH
  00272	80 78 25 00	 cmp	 BYTE PTR [eax+37], 0
  00276	88 55 f4	 mov	 BYTE PTR __k$[ebp+36], dl
  00279	0f 84 4b 01 00
	00		 je	 $LN1@LoadFloat_@6
  0027f	8a 50 26	 mov	 dl, BYTE PTR [eax+38]
  00282	84 d2		 test	 dl, dl
  00284	74 49		 je	 SHORT $LN58@LoadFloat_@6
  00286	32 d1		 xor	 dl, cl
  00288	88 55 f6	 mov	 BYTE PTR __k$[ebp+38], dl
  0028b	8a 50 27	 mov	 dl, BYTE PTR [eax+39]
  0028e	84 d2		 test	 dl, dl
  00290	74 35		 je	 SHORT $LN57@LoadFloat_@6
  00292	32 d3		 xor	 dl, bl
  00294	88 55 f7	 mov	 BYTE PTR __k$[ebp+39], dl
  00297	8a 50 28	 mov	 dl, BYTE PTR [eax+40]
  0029a	84 d2		 test	 dl, dl
  0029c	74 20		 je	 SHORT $LN56@LoadFloat_@6
  0029e	8a 40 29	 mov	 al, BYTE PTR [eax+41]
  002a1	80 f2 ed	 xor	 dl, -19			; ffffffedH
  002a4	88 55 f8	 mov	 BYTE PTR __k$[ebp+40], dl
  002a7	84 c0		 test	 al, al
  002a9	74 0a		 je	 SHORT $LN55@LoadFloat_@6
  002ab	34 ec		 xor	 al, -20			; ffffffecH
  002ad	88 45 f9	 mov	 BYTE PTR __k$[ebp+41], al
  002b0	e9 15 01 00 00	 jmp	 $LN1@LoadFloat_@6
$LN55@LoadFloat_@6:
  002b5	c6 45 f9 ec	 mov	 BYTE PTR __k$[ebp+41], -20 ; ffffffecH
  002b9	e9 0c 01 00 00	 jmp	 $LN1@LoadFloat_@6
$LN56@LoadFloat_@6:
  002be	c6 45 f8 ed	 mov	 BYTE PTR __k$[ebp+40], -19 ; ffffffedH
  002c2	e9 03 01 00 00	 jmp	 $LN1@LoadFloat_@6
$LN57@LoadFloat_@6:
  002c7	88 5d f7	 mov	 BYTE PTR __k$[ebp+39], bl
  002ca	e9 fb 00 00 00	 jmp	 $LN1@LoadFloat_@6
$LN58@LoadFloat_@6:
  002cf	88 4d f6	 mov	 BYTE PTR __k$[ebp+38], cl
  002d2	e9 f3 00 00 00	 jmp	 $LN1@LoadFloat_@6
$LN60@LoadFloat_@6:
  002d7	c6 45 f4 ed	 mov	 BYTE PTR __k$[ebp+36], -19 ; ffffffedH
  002db	e9 ea 00 00 00	 jmp	 $LN1@LoadFloat_@6
$LN61@LoadFloat_@6:
  002e0	88 5d f3	 mov	 BYTE PTR __k$[ebp+35], bl
  002e3	e9 e2 00 00 00	 jmp	 $LN1@LoadFloat_@6
$LN62@LoadFloat_@6:
  002e8	88 4d f2	 mov	 BYTE PTR __k$[ebp+34], cl
  002eb	e9 da 00 00 00	 jmp	 $LN1@LoadFloat_@6
$LN63@LoadFloat_@6:
  002f0	c6 45 f1 ec	 mov	 BYTE PTR __k$[ebp+33], -20 ; ffffffecH
  002f4	e9 d1 00 00 00	 jmp	 $LN1@LoadFloat_@6
$LN64@LoadFloat_@6:
  002f9	c6 45 f0 ed	 mov	 BYTE PTR __k$[ebp+32], -19 ; ffffffedH
  002fd	e9 c8 00 00 00	 jmp	 $LN1@LoadFloat_@6
$LN65@LoadFloat_@6:
  00302	88 5d ef	 mov	 BYTE PTR __k$[ebp+31], bl
  00305	e9 c0 00 00 00	 jmp	 $LN1@LoadFloat_@6
$LN66@LoadFloat_@6:
  0030a	88 4d ee	 mov	 BYTE PTR __k$[ebp+30], cl
  0030d	e9 b8 00 00 00	 jmp	 $LN1@LoadFloat_@6
$LN67@LoadFloat_@6:
  00312	c6 45 ed ec	 mov	 BYTE PTR __k$[ebp+29], -20 ; ffffffecH
  00316	e9 af 00 00 00	 jmp	 $LN1@LoadFloat_@6
$LN68@LoadFloat_@6:
  0031b	c6 45 ec ed	 mov	 BYTE PTR __k$[ebp+28], -19 ; ffffffedH
  0031f	e9 a6 00 00 00	 jmp	 $LN1@LoadFloat_@6
$LN69@LoadFloat_@6:
  00324	88 5d eb	 mov	 BYTE PTR __k$[ebp+27], bl
  00327	e9 9e 00 00 00	 jmp	 $LN1@LoadFloat_@6
$LN70@LoadFloat_@6:
  0032c	88 4d ea	 mov	 BYTE PTR __k$[ebp+26], cl
  0032f	e9 96 00 00 00	 jmp	 $LN1@LoadFloat_@6
$LN71@LoadFloat_@6:
  00334	c6 45 e9 ec	 mov	 BYTE PTR __k$[ebp+25], -20 ; ffffffecH
  00338	e9 8d 00 00 00	 jmp	 $LN1@LoadFloat_@6
$LN72@LoadFloat_@6:
  0033d	c6 45 e8 ed	 mov	 BYTE PTR __k$[ebp+24], -19 ; ffffffedH
  00341	e9 84 00 00 00	 jmp	 $LN1@LoadFloat_@6
$LN73@LoadFloat_@6:
  00346	88 5d e7	 mov	 BYTE PTR __k$[ebp+23], bl
  00349	eb 7f		 jmp	 SHORT $LN1@LoadFloat_@6
$LN74@LoadFloat_@6:
  0034b	88 4d e6	 mov	 BYTE PTR __k$[ebp+22], cl
  0034e	eb 7a		 jmp	 SHORT $LN1@LoadFloat_@6
$LN75@LoadFloat_@6:
  00350	c6 45 e5 ec	 mov	 BYTE PTR __k$[ebp+21], -20 ; ffffffecH
  00354	eb 74		 jmp	 SHORT $LN1@LoadFloat_@6
$LN76@LoadFloat_@6:
  00356	c6 45 e4 ed	 mov	 BYTE PTR __k$[ebp+20], -19 ; ffffffedH
  0035a	eb 6e		 jmp	 SHORT $LN1@LoadFloat_@6
$LN77@LoadFloat_@6:
  0035c	88 5d e3	 mov	 BYTE PTR __k$[ebp+19], bl
  0035f	eb 69		 jmp	 SHORT $LN1@LoadFloat_@6
$LN78@LoadFloat_@6:
  00361	88 4d e2	 mov	 BYTE PTR __k$[ebp+18], cl
  00364	eb 64		 jmp	 SHORT $LN1@LoadFloat_@6
$LN79@LoadFloat_@6:
  00366	c6 45 e1 ec	 mov	 BYTE PTR __k$[ebp+17], -20 ; ffffffecH
  0036a	eb 5e		 jmp	 SHORT $LN1@LoadFloat_@6
$LN80@LoadFloat_@6:
  0036c	c6 45 e0 ed	 mov	 BYTE PTR __k$[ebp+16], -19 ; ffffffedH
  00370	eb 58		 jmp	 SHORT $LN1@LoadFloat_@6
$LN81@LoadFloat_@6:
  00372	88 5d df	 mov	 BYTE PTR __k$[ebp+15], bl
  00375	eb 53		 jmp	 SHORT $LN1@LoadFloat_@6
$LN82@LoadFloat_@6:
  00377	88 4d de	 mov	 BYTE PTR __k$[ebp+14], cl
  0037a	eb 4e		 jmp	 SHORT $LN1@LoadFloat_@6
$LN83@LoadFloat_@6:
  0037c	c6 45 dd ec	 mov	 BYTE PTR __k$[ebp+13], -20 ; ffffffecH
  00380	eb 48		 jmp	 SHORT $LN1@LoadFloat_@6
$LN84@LoadFloat_@6:
  00382	c6 45 dc ed	 mov	 BYTE PTR __k$[ebp+12], -19 ; ffffffedH
  00386	eb 42		 jmp	 SHORT $LN1@LoadFloat_@6
$LN85@LoadFloat_@6:
  00388	88 5d db	 mov	 BYTE PTR __k$[ebp+11], bl
  0038b	eb 3d		 jmp	 SHORT $LN1@LoadFloat_@6
$LN86@LoadFloat_@6:
  0038d	88 4d da	 mov	 BYTE PTR __k$[ebp+10], cl
  00390	eb 38		 jmp	 SHORT $LN1@LoadFloat_@6
$LN87@LoadFloat_@6:
  00392	c6 45 d9 ec	 mov	 BYTE PTR __k$[ebp+9], -20 ; ffffffecH
  00396	eb 32		 jmp	 SHORT $LN1@LoadFloat_@6
$LN88@LoadFloat_@6:
  00398	c6 45 d8 ed	 mov	 BYTE PTR __k$[ebp+8], -19 ; ffffffedH
  0039c	eb 2c		 jmp	 SHORT $LN1@LoadFloat_@6
$LN89@LoadFloat_@6:
  0039e	88 5d d7	 mov	 BYTE PTR __k$[ebp+7], bl
  003a1	eb 27		 jmp	 SHORT $LN1@LoadFloat_@6
$LN90@LoadFloat_@6:
  003a3	88 4d d6	 mov	 BYTE PTR __k$[ebp+6], cl
  003a6	eb 22		 jmp	 SHORT $LN1@LoadFloat_@6
$LN91@LoadFloat_@6:
  003a8	c6 45 d5 ec	 mov	 BYTE PTR __k$[ebp+5], -20 ; ffffffecH
  003ac	eb 1c		 jmp	 SHORT $LN1@LoadFloat_@6
$LN92@LoadFloat_@6:
  003ae	c6 45 d4 ed	 mov	 BYTE PTR __k$[ebp+4], -19 ; ffffffedH
  003b2	eb 16		 jmp	 SHORT $LN1@LoadFloat_@6
$LN93@LoadFloat_@6:
  003b4	c6 45 d3 ea	 mov	 BYTE PTR __k$[ebp+3], -22 ; ffffffeaH
  003b8	eb 10		 jmp	 SHORT $LN1@LoadFloat_@6
$LN94@LoadFloat_@6:
  003ba	c6 45 d2 eb	 mov	 BYTE PTR __k$[ebp+2], -21 ; ffffffebH
  003be	eb 0a		 jmp	 SHORT $LN1@LoadFloat_@6
$LN95@LoadFloat_@6:
  003c0	c6 45 d1 ec	 mov	 BYTE PTR __k$[ebp+1], -20 ; ffffffecH
  003c4	eb 04		 jmp	 SHORT $LN1@LoadFloat_@6
$LN96@LoadFloat_@6:
  003c6	c6 45 d0 ed	 mov	 BYTE PTR __k$[ebp], -19	; ffffffedH
$LN1@LoadFloat_@6:
  003ca	6a 09		 push	 9
  003cc	8d 45 d0	 lea	 eax, DWORD PTR __k$[ebp]
  003cf	c6 45 f5 00	 mov	 BYTE PTR __k$[ebp+37], 0
  003d3	5a		 pop	 edx
$LL104@LoadFloat_@6:
  003d4	81 30 ed ec eb
	ea		 xor	 DWORD PTR [eax], -353637139 ; eaebecedH
  003da	83 c0 04	 add	 eax, 4
  003dd	4a		 dec	 edx
  003de	75 f4		 jne	 SHORT $LL104@LoadFloat_@6

; 137  : 		return LoadFloat(_k, f);

  003e0	f3 0f 10 45 0c	 movss	 xmm0, DWORD PTR _f$[ebp]
  003e5	80 75 f4 ed	 xor	 BYTE PTR __k$[ebp+36], -19 ; ffffffedH
  003e9	51		 push	 ecx
  003ea	8d 45 d0	 lea	 eax, DWORD PTR __k$[ebp]
  003ed	f3 0f 11 04 24	 movss	 DWORD PTR [esp], xmm0
  003f2	50		 push	 eax
  003f3	8b ce		 mov	 ecx, esi
  003f5	ff 15 00 00 00
	00		 call	 DWORD PTR __imp_?LoadFloat@ioINILoader@@QAEMPBDM@Z

; 138  : 	}

  003fb	8b 4d fc	 mov	 ecx, DWORD PTR __$ArrayPad$[ebp]
  003fe	5e		 pop	 esi
  003ff	33 cd		 xor	 ecx, ebp
  00401	5b		 pop	 ebx
  00402	e8 00 00 00 00	 call	 @__security_check_cookie@4
  00407	c9		 leave
  00408	c2 08 00	 ret	 8
??$LoadFloat_e@$0CG@@ioINILoader@@QAEMAAY0CG@$$CBDM@Z ENDP ; ioINILoader::LoadFloat_e<38>
_TEXT	ENDS
PUBLIC	__$ArrayPad$
PUBLIC	??$LoadFloat_e@$0BI@@ioINILoader@@QAEMAAY0BI@$$CBDM@Z ; ioINILoader::LoadFloat_e<24>
; Function compile flags: /Ogsp
;	COMDAT ??$LoadFloat_e@$0BI@@ioINILoader@@QAEMAAY0BI@$$CBDM@Z
_TEXT	SEGMENT
__k$ = -32						; size = 24
__$ArrayPad$ = -4					; size = 4
_k$ = 8							; size = 4
_f$ = 12						; size = 4
??$LoadFloat_e@$0BI@@ioINILoader@@QAEMAAY0BI@$$CBDM@Z PROC ; ioINILoader::LoadFloat_e<24>, COMDAT
; _this$ = ecx

; 135  : 	{

  00000	55		 push	 ebp
  00001	8b ec		 mov	 ebp, esp
  00003	83 ec 20	 sub	 esp, 32			; 00000020H
  00006	a1 00 00 00 00	 mov	 eax, DWORD PTR ___security_cookie
  0000b	33 c5		 xor	 eax, ebp
  0000d	89 45 fc	 mov	 DWORD PTR __$ArrayPad$[ebp], eax
  00010	8b 45 08	 mov	 eax, DWORD PTR _k$[ebp]

; 136  : 		_ENCSTR(k, _k);

  00013	8a 10		 mov	 dl, BYTE PTR [eax]
  00015	53		 push	 ebx
  00016	56		 push	 esi
  00017	8b f1		 mov	 esi, ecx
  00019	84 d2		 test	 dl, dl
  0001b	0f 84 45 02 00
	00		 je	 $LN96@LoadFloat_@7
  00021	80 f2 ed	 xor	 dl, -19			; ffffffedH
  00024	88 55 e0	 mov	 BYTE PTR __k$[ebp], dl
  00027	8a 50 01	 mov	 dl, BYTE PTR [eax+1]
  0002a	84 d2		 test	 dl, dl
  0002c	0f 84 2e 02 00
	00		 je	 $LN95@LoadFloat_@7
  00032	b3 ec		 mov	 bl, -20			; ffffffecH
  00034	32 d3		 xor	 dl, bl
  00036	88 55 e1	 mov	 BYTE PTR __k$[ebp+1], dl
  00039	8a 50 02	 mov	 dl, BYTE PTR [eax+2]
  0003c	84 d2		 test	 dl, dl
  0003e	0f 84 16 02 00
	00		 je	 $LN94@LoadFloat_@7
  00044	b1 eb		 mov	 cl, -21			; ffffffebH
  00046	32 d1		 xor	 dl, cl
  00048	88 55 e2	 mov	 BYTE PTR __k$[ebp+2], dl
  0004b	8a 50 03	 mov	 dl, BYTE PTR [eax+3]
  0004e	84 d2		 test	 dl, dl
  00050	0f 84 fe 01 00
	00		 je	 $LN93@LoadFloat_@7
  00056	80 f2 ea	 xor	 dl, -22			; ffffffeaH
  00059	88 55 e3	 mov	 BYTE PTR __k$[ebp+3], dl
  0005c	8a 50 04	 mov	 dl, BYTE PTR [eax+4]
  0005f	84 d2		 test	 dl, dl
  00061	0f 84 e7 01 00
	00		 je	 $LN92@LoadFloat_@7
  00067	80 f2 ed	 xor	 dl, -19			; ffffffedH
  0006a	88 55 e4	 mov	 BYTE PTR __k$[ebp+4], dl
  0006d	8a 50 05	 mov	 dl, BYTE PTR [eax+5]
  00070	84 d2		 test	 dl, dl
  00072	0f 84 d1 01 00
	00		 je	 $LN91@LoadFloat_@7
  00078	32 d3		 xor	 dl, bl
  0007a	88 55 e5	 mov	 BYTE PTR __k$[ebp+5], dl
  0007d	8a 50 06	 mov	 dl, BYTE PTR [eax+6]
  00080	84 d2		 test	 dl, dl
  00082	0f 84 bc 01 00
	00		 je	 $LN90@LoadFloat_@7
  00088	32 d1		 xor	 dl, cl
  0008a	88 55 e6	 mov	 BYTE PTR __k$[ebp+6], dl
  0008d	8a 50 07	 mov	 dl, BYTE PTR [eax+7]
  00090	84 d2		 test	 dl, dl
  00092	0f 84 a6 01 00
	00		 je	 $LN89@LoadFloat_@7
  00098	80 f2 ea	 xor	 dl, -22			; ffffffeaH
  0009b	88 55 e7	 mov	 BYTE PTR __k$[ebp+7], dl
  0009e	8a 50 08	 mov	 dl, BYTE PTR [eax+8]
  000a1	84 d2		 test	 dl, dl
  000a3	0f 84 8f 01 00
	00		 je	 $LN88@LoadFloat_@7
  000a9	80 f2 ed	 xor	 dl, -19			; ffffffedH
  000ac	88 55 e8	 mov	 BYTE PTR __k$[ebp+8], dl
  000af	8a 50 09	 mov	 dl, BYTE PTR [eax+9]
  000b2	84 d2		 test	 dl, dl
  000b4	0f 84 79 01 00
	00		 je	 $LN87@LoadFloat_@7
  000ba	32 d3		 xor	 dl, bl
  000bc	88 55 e9	 mov	 BYTE PTR __k$[ebp+9], dl
  000bf	8a 50 0a	 mov	 dl, BYTE PTR [eax+10]
  000c2	84 d2		 test	 dl, dl
  000c4	0f 84 64 01 00
	00		 je	 $LN86@LoadFloat_@7
  000ca	32 d1		 xor	 dl, cl
  000cc	88 55 ea	 mov	 BYTE PTR __k$[ebp+10], dl
  000cf	8a 50 0b	 mov	 dl, BYTE PTR [eax+11]
  000d2	84 d2		 test	 dl, dl
  000d4	0f 84 4e 01 00
	00		 je	 $LN85@LoadFloat_@7
  000da	80 f2 ea	 xor	 dl, -22			; ffffffeaH
  000dd	88 55 eb	 mov	 BYTE PTR __k$[ebp+11], dl
  000e0	8a 50 0c	 mov	 dl, BYTE PTR [eax+12]
  000e3	84 d2		 test	 dl, dl
  000e5	0f 84 37 01 00
	00		 je	 $LN84@LoadFloat_@7
  000eb	80 f2 ed	 xor	 dl, -19			; ffffffedH
  000ee	88 55 ec	 mov	 BYTE PTR __k$[ebp+12], dl
  000f1	8a 50 0d	 mov	 dl, BYTE PTR [eax+13]
  000f4	84 d2		 test	 dl, dl
  000f6	0f 84 21 01 00
	00		 je	 $LN83@LoadFloat_@7
  000fc	32 d3		 xor	 dl, bl
  000fe	88 55 ed	 mov	 BYTE PTR __k$[ebp+13], dl
  00101	8a 50 0e	 mov	 dl, BYTE PTR [eax+14]
  00104	84 d2		 test	 dl, dl
  00106	0f 84 0c 01 00
	00		 je	 $LN82@LoadFloat_@7
  0010c	32 d1		 xor	 dl, cl
  0010e	88 55 ee	 mov	 BYTE PTR __k$[ebp+14], dl
  00111	8a 50 0f	 mov	 dl, BYTE PTR [eax+15]
  00114	84 d2		 test	 dl, dl
  00116	0f 84 f6 00 00
	00		 je	 $LN81@LoadFloat_@7
  0011c	80 f2 ea	 xor	 dl, -22			; ffffffeaH
  0011f	88 55 ef	 mov	 BYTE PTR __k$[ebp+15], dl
  00122	8a 50 10	 mov	 dl, BYTE PTR [eax+16]
  00125	84 d2		 test	 dl, dl
  00127	0f 84 df 00 00
	00		 je	 $LN80@LoadFloat_@7
  0012d	80 f2 ed	 xor	 dl, -19			; ffffffedH
  00130	88 55 f0	 mov	 BYTE PTR __k$[ebp+16], dl
  00133	8a 50 11	 mov	 dl, BYTE PTR [eax+17]
  00136	84 d2		 test	 dl, dl
  00138	0f 84 c9 00 00
	00		 je	 $LN79@LoadFloat_@7
  0013e	32 d3		 xor	 dl, bl
  00140	88 55 f1	 mov	 BYTE PTR __k$[ebp+17], dl
  00143	8a 50 12	 mov	 dl, BYTE PTR [eax+18]
  00146	84 d2		 test	 dl, dl
  00148	0f 84 b4 00 00
	00		 je	 $LN78@LoadFloat_@7
  0014e	32 d1		 xor	 dl, cl
  00150	88 55 f2	 mov	 BYTE PTR __k$[ebp+18], dl
  00153	8a 50 13	 mov	 dl, BYTE PTR [eax+19]
  00156	84 d2		 test	 dl, dl
  00158	0f 84 9e 00 00
	00		 je	 $LN77@LoadFloat_@7
  0015e	80 f2 ea	 xor	 dl, -22			; ffffffeaH
  00161	88 55 f3	 mov	 BYTE PTR __k$[ebp+19], dl
  00164	8a 50 14	 mov	 dl, BYTE PTR [eax+20]
  00167	84 d2		 test	 dl, dl
  00169	0f 84 87 00 00
	00		 je	 $LN76@LoadFloat_@7
  0016f	80 f2 ed	 xor	 dl, -19			; ffffffedH
  00172	88 55 f4	 mov	 BYTE PTR __k$[ebp+20], dl
  00175	8a 50 15	 mov	 dl, BYTE PTR [eax+21]
  00178	84 d2		 test	 dl, dl
  0017a	74 75		 je	 SHORT $LN75@LoadFloat_@7
  0017c	32 d3		 xor	 dl, bl
  0017e	88 55 f5	 mov	 BYTE PTR __k$[ebp+21], dl
  00181	8a 50 16	 mov	 dl, BYTE PTR [eax+22]
  00184	84 d2		 test	 dl, dl
  00186	74 64		 je	 SHORT $LN74@LoadFloat_@7
  00188	32 d1		 xor	 dl, cl
  0018a	80 78 17 00	 cmp	 BYTE PTR [eax+23], 0
  0018e	88 55 f6	 mov	 BYTE PTR __k$[ebp+22], dl
  00191	0f 84 d3 00 00
	00		 je	 $LN1@LoadFloat_@7
  00197	8a 50 18	 mov	 dl, BYTE PTR [eax+24]
  0019a	84 d2		 test	 dl, dl
  0019c	74 48		 je	 SHORT $LN72@LoadFloat_@7
  0019e	80 f2 ed	 xor	 dl, -19			; ffffffedH
  001a1	88 55 f8	 mov	 BYTE PTR __k$[ebp+24], dl
  001a4	8a 50 19	 mov	 dl, BYTE PTR [eax+25]
  001a7	84 d2		 test	 dl, dl
  001a9	74 33		 je	 SHORT $LN71@LoadFloat_@7
  001ab	32 d3		 xor	 dl, bl
  001ad	88 55 f9	 mov	 BYTE PTR __k$[ebp+25], dl
  001b0	8a 50 1a	 mov	 dl, BYTE PTR [eax+26]
  001b3	84 d2		 test	 dl, dl
  001b5	74 1f		 je	 SHORT $LN70@LoadFloat_@7
  001b7	8a 40 1b	 mov	 al, BYTE PTR [eax+27]
  001ba	32 d1		 xor	 dl, cl
  001bc	88 55 fa	 mov	 BYTE PTR __k$[ebp+26], dl
  001bf	84 c0		 test	 al, al
  001c1	74 0a		 je	 SHORT $LN69@LoadFloat_@7
  001c3	34 ea		 xor	 al, -22			; ffffffeaH
  001c5	88 45 fb	 mov	 BYTE PTR __k$[ebp+27], al
  001c8	e9 9d 00 00 00	 jmp	 $LN1@LoadFloat_@7
$LN69@LoadFloat_@7:
  001cd	c6 45 fb ea	 mov	 BYTE PTR __k$[ebp+27], -22 ; ffffffeaH
  001d1	e9 94 00 00 00	 jmp	 $LN1@LoadFloat_@7
$LN70@LoadFloat_@7:
  001d6	88 4d fa	 mov	 BYTE PTR __k$[ebp+26], cl
  001d9	e9 8c 00 00 00	 jmp	 $LN1@LoadFloat_@7
$LN71@LoadFloat_@7:
  001de	88 5d f9	 mov	 BYTE PTR __k$[ebp+25], bl
  001e1	e9 84 00 00 00	 jmp	 $LN1@LoadFloat_@7
$LN72@LoadFloat_@7:
  001e6	c6 45 f8 ed	 mov	 BYTE PTR __k$[ebp+24], -19 ; ffffffedH
  001ea	eb 7e		 jmp	 SHORT $LN1@LoadFloat_@7
$LN74@LoadFloat_@7:
  001ec	88 4d f6	 mov	 BYTE PTR __k$[ebp+22], cl
  001ef	eb 79		 jmp	 SHORT $LN1@LoadFloat_@7
$LN75@LoadFloat_@7:
  001f1	88 5d f5	 mov	 BYTE PTR __k$[ebp+21], bl
  001f4	eb 74		 jmp	 SHORT $LN1@LoadFloat_@7
$LN76@LoadFloat_@7:
  001f6	c6 45 f4 ed	 mov	 BYTE PTR __k$[ebp+20], -19 ; ffffffedH
  001fa	eb 6e		 jmp	 SHORT $LN1@LoadFloat_@7
$LN77@LoadFloat_@7:
  001fc	c6 45 f3 ea	 mov	 BYTE PTR __k$[ebp+19], -22 ; ffffffeaH
  00200	eb 68		 jmp	 SHORT $LN1@LoadFloat_@7
$LN78@LoadFloat_@7:
  00202	88 4d f2	 mov	 BYTE PTR __k$[ebp+18], cl
  00205	eb 63		 jmp	 SHORT $LN1@LoadFloat_@7
$LN79@LoadFloat_@7:
  00207	88 5d f1	 mov	 BYTE PTR __k$[ebp+17], bl
  0020a	eb 5e		 jmp	 SHORT $LN1@LoadFloat_@7
$LN80@LoadFloat_@7:
  0020c	c6 45 f0 ed	 mov	 BYTE PTR __k$[ebp+16], -19 ; ffffffedH
  00210	eb 58		 jmp	 SHORT $LN1@LoadFloat_@7
$LN81@LoadFloat_@7:
  00212	c6 45 ef ea	 mov	 BYTE PTR __k$[ebp+15], -22 ; ffffffeaH
  00216	eb 52		 jmp	 SHORT $LN1@LoadFloat_@7
$LN82@LoadFloat_@7:
  00218	88 4d ee	 mov	 BYTE PTR __k$[ebp+14], cl
  0021b	eb 4d		 jmp	 SHORT $LN1@LoadFloat_@7
$LN83@LoadFloat_@7:
  0021d	88 5d ed	 mov	 BYTE PTR __k$[ebp+13], bl
  00220	eb 48		 jmp	 SHORT $LN1@LoadFloat_@7
$LN84@LoadFloat_@7:
  00222	c6 45 ec ed	 mov	 BYTE PTR __k$[ebp+12], -19 ; ffffffedH
  00226	eb 42		 jmp	 SHORT $LN1@LoadFloat_@7
$LN85@LoadFloat_@7:
  00228	c6 45 eb ea	 mov	 BYTE PTR __k$[ebp+11], -22 ; ffffffeaH
  0022c	eb 3c		 jmp	 SHORT $LN1@LoadFloat_@7
$LN86@LoadFloat_@7:
  0022e	88 4d ea	 mov	 BYTE PTR __k$[ebp+10], cl
  00231	eb 37		 jmp	 SHORT $LN1@LoadFloat_@7
$LN87@LoadFloat_@7:
  00233	88 5d e9	 mov	 BYTE PTR __k$[ebp+9], bl
  00236	eb 32		 jmp	 SHORT $LN1@LoadFloat_@7
$LN88@LoadFloat_@7:
  00238	c6 45 e8 ed	 mov	 BYTE PTR __k$[ebp+8], -19 ; ffffffedH
  0023c	eb 2c		 jmp	 SHORT $LN1@LoadFloat_@7
$LN89@LoadFloat_@7:
  0023e	c6 45 e7 ea	 mov	 BYTE PTR __k$[ebp+7], -22 ; ffffffeaH
  00242	eb 26		 jmp	 SHORT $LN1@LoadFloat_@7
$LN90@LoadFloat_@7:
  00244	88 4d e6	 mov	 BYTE PTR __k$[ebp+6], cl
  00247	eb 21		 jmp	 SHORT $LN1@LoadFloat_@7
$LN91@LoadFloat_@7:
  00249	88 5d e5	 mov	 BYTE PTR __k$[ebp+5], bl
  0024c	eb 1c		 jmp	 SHORT $LN1@LoadFloat_@7
$LN92@LoadFloat_@7:
  0024e	c6 45 e4 ed	 mov	 BYTE PTR __k$[ebp+4], -19 ; ffffffedH
  00252	eb 16		 jmp	 SHORT $LN1@LoadFloat_@7
$LN93@LoadFloat_@7:
  00254	c6 45 e3 ea	 mov	 BYTE PTR __k$[ebp+3], -22 ; ffffffeaH
  00258	eb 10		 jmp	 SHORT $LN1@LoadFloat_@7
$LN94@LoadFloat_@7:
  0025a	c6 45 e2 eb	 mov	 BYTE PTR __k$[ebp+2], -21 ; ffffffebH
  0025e	eb 0a		 jmp	 SHORT $LN1@LoadFloat_@7
$LN95@LoadFloat_@7:
  00260	c6 45 e1 ec	 mov	 BYTE PTR __k$[ebp+1], -20 ; ffffffecH
  00264	eb 04		 jmp	 SHORT $LN1@LoadFloat_@7
$LN96@LoadFloat_@7:
  00266	c6 45 e0 ed	 mov	 BYTE PTR __k$[ebp], -19	; ffffffedH
$LN1@LoadFloat_@7:
  0026a	6a 05		 push	 5
  0026c	8d 45 e0	 lea	 eax, DWORD PTR __k$[ebp]
  0026f	c6 45 f7 00	 mov	 BYTE PTR __k$[ebp+23], 0
  00273	5a		 pop	 edx
$LL104@LoadFloat_@7:
  00274	81 30 ed ec eb
	ea		 xor	 DWORD PTR [eax], -353637139 ; eaebecedH
  0027a	83 c0 04	 add	 eax, 4
  0027d	4a		 dec	 edx
  0027e	75 f4		 jne	 SHORT $LL104@LoadFloat_@7
  00280	6a 14		 push	 20			; 00000014H
  00282	58		 pop	 eax
$LL101@LoadFloat_@7:
  00283	8b c8		 mov	 ecx, eax
  00285	81 e1 03 00 00
	80		 and	 ecx, -2147483645	; 80000003H
  0028b	79 05		 jns	 SHORT $LN111@LoadFloat_@7
  0028d	49		 dec	 ecx
  0028e	83 c9 fc	 or	 ecx, -4			; fffffffcH
  00291	41		 inc	 ecx
$LN111@LoadFloat_@7:
  00292	b2 ed		 mov	 dl, -19			; ffffffedH
  00294	2a d1		 sub	 dl, cl
  00296	30 54 05 e0	 xor	 BYTE PTR __k$[ebp+eax], dl
  0029a	40		 inc	 eax
  0029b	83 f8 17	 cmp	 eax, 23			; 00000017H
  0029e	7c e3		 jl	 SHORT $LL101@LoadFloat_@7

; 137  : 		return LoadFloat(_k, f);

  002a0	f3 0f 10 45 0c	 movss	 xmm0, DWORD PTR _f$[ebp]
  002a5	51		 push	 ecx
  002a6	8d 45 e0	 lea	 eax, DWORD PTR __k$[ebp]
  002a9	f3 0f 11 04 24	 movss	 DWORD PTR [esp], xmm0
  002ae	50		 push	 eax
  002af	8b ce		 mov	 ecx, esi
  002b1	ff 15 00 00 00
	00		 call	 DWORD PTR __imp_?LoadFloat@ioINILoader@@QAEMPBDM@Z

; 138  : 	}

  002b7	8b 4d fc	 mov	 ecx, DWORD PTR __$ArrayPad$[ebp]
  002ba	5e		 pop	 esi
  002bb	33 cd		 xor	 ecx, ebp
  002bd	5b		 pop	 ebx
  002be	e8 00 00 00 00	 call	 @__security_check_cookie@4
  002c3	c9		 leave
  002c4	c2 08 00	 ret	 8
??$LoadFloat_e@$0BI@@ioINILoader@@QAEMAAY0BI@$$CBDM@Z ENDP ; ioINILoader::LoadFloat_e<24>
_TEXT	ENDS
PUBLIC	__$ArrayPad$
PUBLIC	??$LoadInt_e@$0BC@@ioINILoader@@QAEHAAY0BC@$$CBDH@Z ; ioINILoader::LoadInt_e<18>
EXTRN	__imp_?LoadInt@ioINILoader@@QAEHPBDH@Z:PROC
; Function compile flags: /Ogsp
;	COMDAT ??$LoadInt_e@$0BC@@ioINILoader@@QAEHAAY0BC@$$CBDH@Z
_TEXT	SEGMENT
__k$ = -28						; size = 18
__$ArrayPad$ = -4					; size = 4
_k$ = 8							; size = 4
_i$ = 12						; size = 4
??$LoadInt_e@$0BC@@ioINILoader@@QAEHAAY0BC@$$CBDH@Z PROC ; ioINILoader::LoadInt_e<18>, COMDAT
; _this$ = ecx

; 118  : 	{

  00000	55		 push	 ebp
  00001	8b ec		 mov	 ebp, esp
  00003	83 ec 1c	 sub	 esp, 28			; 0000001cH
  00006	a1 00 00 00 00	 mov	 eax, DWORD PTR ___security_cookie
  0000b	33 c5		 xor	 eax, ebp
  0000d	89 45 fc	 mov	 DWORD PTR __$ArrayPad$[ebp], eax
  00010	8b 45 08	 mov	 eax, DWORD PTR _k$[ebp]

; 119  : 		_ENCSTR(k, _k);

  00013	8a 10		 mov	 dl, BYTE PTR [eax]
  00015	56		 push	 esi
  00016	8b f1		 mov	 esi, ecx
  00018	84 d2		 test	 dl, dl
  0001a	0f 84 be 01 00
	00		 je	 $LN96@LoadInt_e
  00020	80 f2 ed	 xor	 dl, -19			; ffffffedH
  00023	88 55 e4	 mov	 BYTE PTR __k$[ebp], dl
  00026	8a 50 01	 mov	 dl, BYTE PTR [eax+1]
  00029	84 d2		 test	 dl, dl
  0002b	0f 84 a7 01 00
	00		 je	 $LN95@LoadInt_e
  00031	80 f2 ec	 xor	 dl, -20			; ffffffecH
  00034	88 55 e5	 mov	 BYTE PTR __k$[ebp+1], dl
  00037	8a 50 02	 mov	 dl, BYTE PTR [eax+2]
  0003a	84 d2		 test	 dl, dl
  0003c	0f 84 90 01 00
	00		 je	 $LN94@LoadInt_e
  00042	b1 eb		 mov	 cl, -21			; ffffffebH
  00044	32 d1		 xor	 dl, cl
  00046	88 55 e6	 mov	 BYTE PTR __k$[ebp+2], dl
  00049	8a 50 03	 mov	 dl, BYTE PTR [eax+3]
  0004c	84 d2		 test	 dl, dl
  0004e	0f 84 78 01 00
	00		 je	 $LN93@LoadInt_e
  00054	80 f2 ea	 xor	 dl, -22			; ffffffeaH
  00057	88 55 e7	 mov	 BYTE PTR __k$[ebp+3], dl
  0005a	8a 50 04	 mov	 dl, BYTE PTR [eax+4]
  0005d	84 d2		 test	 dl, dl
  0005f	0f 84 61 01 00
	00		 je	 $LN92@LoadInt_e
  00065	80 f2 ed	 xor	 dl, -19			; ffffffedH
  00068	88 55 e8	 mov	 BYTE PTR __k$[ebp+4], dl
  0006b	8a 50 05	 mov	 dl, BYTE PTR [eax+5]
  0006e	84 d2		 test	 dl, dl
  00070	0f 84 4a 01 00
	00		 je	 $LN91@LoadInt_e
  00076	80 f2 ec	 xor	 dl, -20			; ffffffecH
  00079	88 55 e9	 mov	 BYTE PTR __k$[ebp+5], dl
  0007c	8a 50 06	 mov	 dl, BYTE PTR [eax+6]
  0007f	84 d2		 test	 dl, dl
  00081	0f 84 34 01 00
	00		 je	 $LN90@LoadInt_e
  00087	32 d1		 xor	 dl, cl
  00089	88 55 ea	 mov	 BYTE PTR __k$[ebp+6], dl
  0008c	8a 50 07	 mov	 dl, BYTE PTR [eax+7]
  0008f	84 d2		 test	 dl, dl
  00091	0f 84 1e 01 00
	00		 je	 $LN89@LoadInt_e
  00097	80 f2 ea	 xor	 dl, -22			; ffffffeaH
  0009a	88 55 eb	 mov	 BYTE PTR __k$[ebp+7], dl
  0009d	8a 50 08	 mov	 dl, BYTE PTR [eax+8]
  000a0	84 d2		 test	 dl, dl
  000a2	0f 84 07 01 00
	00		 je	 $LN88@LoadInt_e
  000a8	80 f2 ed	 xor	 dl, -19			; ffffffedH
  000ab	88 55 ec	 mov	 BYTE PTR __k$[ebp+8], dl
  000ae	8a 50 09	 mov	 dl, BYTE PTR [eax+9]
  000b1	84 d2		 test	 dl, dl
  000b3	0f 84 f0 00 00
	00		 je	 $LN87@LoadInt_e
  000b9	80 f2 ec	 xor	 dl, -20			; ffffffecH
  000bc	88 55 ed	 mov	 BYTE PTR __k$[ebp+9], dl
  000bf	8a 50 0a	 mov	 dl, BYTE PTR [eax+10]
  000c2	84 d2		 test	 dl, dl
  000c4	0f 84 da 00 00
	00		 je	 $LN86@LoadInt_e
  000ca	32 d1		 xor	 dl, cl
  000cc	88 55 ee	 mov	 BYTE PTR __k$[ebp+10], dl
  000cf	8a 50 0b	 mov	 dl, BYTE PTR [eax+11]
  000d2	84 d2		 test	 dl, dl
  000d4	0f 84 c4 00 00
	00		 je	 $LN85@LoadInt_e
  000da	80 f2 ea	 xor	 dl, -22			; ffffffeaH
  000dd	88 55 ef	 mov	 BYTE PTR __k$[ebp+11], dl
  000e0	8a 50 0c	 mov	 dl, BYTE PTR [eax+12]
  000e3	84 d2		 test	 dl, dl
  000e5	0f 84 ad 00 00
	00		 je	 $LN84@LoadInt_e
  000eb	80 f2 ed	 xor	 dl, -19			; ffffffedH
  000ee	88 55 f0	 mov	 BYTE PTR __k$[ebp+12], dl
  000f1	8a 50 0d	 mov	 dl, BYTE PTR [eax+13]
  000f4	84 d2		 test	 dl, dl
  000f6	0f 84 96 00 00
	00		 je	 $LN83@LoadInt_e
  000fc	80 f2 ec	 xor	 dl, -20			; ffffffecH
  000ff	88 55 f1	 mov	 BYTE PTR __k$[ebp+13], dl
  00102	8a 50 0e	 mov	 dl, BYTE PTR [eax+14]
  00105	84 d2		 test	 dl, dl
  00107	0f 84 80 00 00
	00		 je	 $LN82@LoadInt_e
  0010d	32 d1		 xor	 dl, cl
  0010f	88 55 f2	 mov	 BYTE PTR __k$[ebp+14], dl
  00112	8a 50 0f	 mov	 dl, BYTE PTR [eax+15]
  00115	84 d2		 test	 dl, dl
  00117	74 6e		 je	 SHORT $LN81@LoadInt_e
  00119	80 f2 ea	 xor	 dl, -22			; ffffffeaH
  0011c	88 55 f3	 mov	 BYTE PTR __k$[ebp+15], dl
  0011f	8a 50 10	 mov	 dl, BYTE PTR [eax+16]
  00122	84 d2		 test	 dl, dl
  00124	74 5b		 je	 SHORT $LN80@LoadInt_e
  00126	80 f2 ed	 xor	 dl, -19			; ffffffedH
  00129	80 78 11 00	 cmp	 BYTE PTR [eax+17], 0
  0012d	88 55 f4	 mov	 BYTE PTR __k$[ebp+16], dl
  00130	0f 84 ac 00 00
	00		 je	 $LN1@LoadInt_e
  00136	8a 50 12	 mov	 dl, BYTE PTR [eax+18]
  00139	84 d2		 test	 dl, dl
  0013b	74 3f		 je	 SHORT $LN78@LoadInt_e
  0013d	32 d1		 xor	 dl, cl
  0013f	88 55 f6	 mov	 BYTE PTR __k$[ebp+18], dl
  00142	8a 50 13	 mov	 dl, BYTE PTR [eax+19]
  00145	84 d2		 test	 dl, dl
  00147	74 2d		 je	 SHORT $LN77@LoadInt_e
  00149	80 f2 ea	 xor	 dl, -22			; ffffffeaH
  0014c	88 55 f7	 mov	 BYTE PTR __k$[ebp+19], dl
  0014f	8a 50 14	 mov	 dl, BYTE PTR [eax+20]
  00152	84 d2		 test	 dl, dl
  00154	74 1a		 je	 SHORT $LN76@LoadInt_e
  00156	8a 40 15	 mov	 al, BYTE PTR [eax+21]
  00159	80 f2 ed	 xor	 dl, -19			; ffffffedH
  0015c	88 55 f8	 mov	 BYTE PTR __k$[ebp+20], dl
  0015f	84 c0		 test	 al, al
  00161	74 07		 je	 SHORT $LN75@LoadInt_e
  00163	34 ec		 xor	 al, -20			; ffffffecH
  00165	88 45 f9	 mov	 BYTE PTR __k$[ebp+21], al
  00168	eb 78		 jmp	 SHORT $LN1@LoadInt_e
$LN75@LoadInt_e:
  0016a	c6 45 f9 ec	 mov	 BYTE PTR __k$[ebp+21], -20 ; ffffffecH
  0016e	eb 72		 jmp	 SHORT $LN1@LoadInt_e
$LN76@LoadInt_e:
  00170	c6 45 f8 ed	 mov	 BYTE PTR __k$[ebp+20], -19 ; ffffffedH
  00174	eb 6c		 jmp	 SHORT $LN1@LoadInt_e
$LN77@LoadInt_e:
  00176	c6 45 f7 ea	 mov	 BYTE PTR __k$[ebp+19], -22 ; ffffffeaH
  0017a	eb 66		 jmp	 SHORT $LN1@LoadInt_e
$LN78@LoadInt_e:
  0017c	88 4d f6	 mov	 BYTE PTR __k$[ebp+18], cl
  0017f	eb 61		 jmp	 SHORT $LN1@LoadInt_e
$LN80@LoadInt_e:
  00181	c6 45 f4 ed	 mov	 BYTE PTR __k$[ebp+16], -19 ; ffffffedH
  00185	eb 5b		 jmp	 SHORT $LN1@LoadInt_e
$LN81@LoadInt_e:
  00187	c6 45 f3 ea	 mov	 BYTE PTR __k$[ebp+15], -22 ; ffffffeaH
  0018b	eb 55		 jmp	 SHORT $LN1@LoadInt_e
$LN82@LoadInt_e:
  0018d	88 4d f2	 mov	 BYTE PTR __k$[ebp+14], cl
  00190	eb 50		 jmp	 SHORT $LN1@LoadInt_e
$LN83@LoadInt_e:
  00192	c6 45 f1 ec	 mov	 BYTE PTR __k$[ebp+13], -20 ; ffffffecH
  00196	eb 4a		 jmp	 SHORT $LN1@LoadInt_e
$LN84@LoadInt_e:
  00198	c6 45 f0 ed	 mov	 BYTE PTR __k$[ebp+12], -19 ; ffffffedH
  0019c	eb 44		 jmp	 SHORT $LN1@LoadInt_e
$LN85@LoadInt_e:
  0019e	c6 45 ef ea	 mov	 BYTE PTR __k$[ebp+11], -22 ; ffffffeaH
  001a2	eb 3e		 jmp	 SHORT $LN1@LoadInt_e
$LN86@LoadInt_e:
  001a4	88 4d ee	 mov	 BYTE PTR __k$[ebp+10], cl
  001a7	eb 39		 jmp	 SHORT $LN1@LoadInt_e
$LN87@LoadInt_e:
  001a9	c6 45 ed ec	 mov	 BYTE PTR __k$[ebp+9], -20 ; ffffffecH
  001ad	eb 33		 jmp	 SHORT $LN1@LoadInt_e
$LN88@LoadInt_e:
  001af	c6 45 ec ed	 mov	 BYTE PTR __k$[ebp+8], -19 ; ffffffedH
  001b3	eb 2d		 jmp	 SHORT $LN1@LoadInt_e
$LN89@LoadInt_e:
  001b5	c6 45 eb ea	 mov	 BYTE PTR __k$[ebp+7], -22 ; ffffffeaH
  001b9	eb 27		 jmp	 SHORT $LN1@LoadInt_e
$LN90@LoadInt_e:
  001bb	88 4d ea	 mov	 BYTE PTR __k$[ebp+6], cl
  001be	eb 22		 jmp	 SHORT $LN1@LoadInt_e
$LN91@LoadInt_e:
  001c0	c6 45 e9 ec	 mov	 BYTE PTR __k$[ebp+5], -20 ; ffffffecH
  001c4	eb 1c		 jmp	 SHORT $LN1@LoadInt_e
$LN92@LoadInt_e:
  001c6	c6 45 e8 ed	 mov	 BYTE PTR __k$[ebp+4], -19 ; ffffffedH
  001ca	eb 16		 jmp	 SHORT $LN1@LoadInt_e
$LN93@LoadInt_e:
  001cc	c6 45 e7 ea	 mov	 BYTE PTR __k$[ebp+3], -22 ; ffffffeaH
  001d0	eb 10		 jmp	 SHORT $LN1@LoadInt_e
$LN94@LoadInt_e:
  001d2	c6 45 e6 eb	 mov	 BYTE PTR __k$[ebp+2], -21 ; ffffffebH
  001d6	eb 0a		 jmp	 SHORT $LN1@LoadInt_e
$LN95@LoadInt_e:
  001d8	c6 45 e5 ec	 mov	 BYTE PTR __k$[ebp+1], -20 ; ffffffecH
  001dc	eb 04		 jmp	 SHORT $LN1@LoadInt_e
$LN96@LoadInt_e:
  001de	c6 45 e4 ed	 mov	 BYTE PTR __k$[ebp], -19	; ffffffedH
$LN1@LoadInt_e:
  001e2	6a 04		 push	 4
  001e4	8d 45 e4	 lea	 eax, DWORD PTR __k$[ebp]
  001e7	c6 45 f5 00	 mov	 BYTE PTR __k$[ebp+17], 0
  001eb	5a		 pop	 edx
$LL104@LoadInt_e:
  001ec	81 30 ed ec eb
	ea		 xor	 DWORD PTR [eax], -353637139 ; eaebecedH
  001f2	83 c0 04	 add	 eax, 4
  001f5	4a		 dec	 edx
  001f6	75 f4		 jne	 SHORT $LL104@LoadInt_e

; 120  : 		return LoadInt(_k, i);

  001f8	ff 75 0c	 push	 DWORD PTR _i$[ebp]
  001fb	80 75 f4 ed	 xor	 BYTE PTR __k$[ebp+16], -19 ; ffffffedH
  001ff	8d 45 e4	 lea	 eax, DWORD PTR __k$[ebp]
  00202	50		 push	 eax
  00203	8b ce		 mov	 ecx, esi
  00205	ff 15 00 00 00
	00		 call	 DWORD PTR __imp_?LoadInt@ioINILoader@@QAEHPBDH@Z

; 121  : 	}

  0020b	8b 4d fc	 mov	 ecx, DWORD PTR __$ArrayPad$[ebp]
  0020e	33 cd		 xor	 ecx, ebp
  00210	5e		 pop	 esi
  00211	e8 00 00 00 00	 call	 @__security_check_cookie@4
  00216	c9		 leave
  00217	c2 08 00	 ret	 8
??$LoadInt_e@$0BC@@ioINILoader@@QAEHAAY0BC@$$CBDH@Z ENDP ; ioINILoader::LoadInt_e<18>
_TEXT	ENDS
PUBLIC	_this$GSCopy$
PUBLIC	__$ArrayPad$
PUBLIC	??$LoadString_e@$0BC@@ioINILoader@@QAEXAAY0BC@$$CBDAAY00$$CBDPADH@Z ; ioINILoader::LoadString_e<18>
; Function compile flags: /Ogsp
;	COMDAT ??$LoadString_e@$0BC@@ioINILoader@@QAEXAAY0BC@$$CBDAAY00$$CBDPADH@Z
_TEXT	SEGMENT
_this$GSCopy$ = -32					; size = 4
__k$ = -28						; size = 18
__$ArrayPad$ = -4					; size = 4
_k$ = 8							; size = 4
_d$ = 12						; size = 4
_b$ = 16						; size = 4
_i$ = 20						; size = 4
??$LoadString_e@$0BC@@ioINILoader@@QAEXAAY0BC@$$CBDAAY00$$CBDPADH@Z PROC ; ioINILoader::LoadString_e<18>, COMDAT
; _this$ = ecx

; 161  : 	{

  00000	55		 push	 ebp
  00001	8b ec		 mov	 ebp, esp
  00003	83 ec 20	 sub	 esp, 32			; 00000020H
  00006	a1 00 00 00 00	 mov	 eax, DWORD PTR ___security_cookie
  0000b	33 c5		 xor	 eax, ebp
  0000d	89 45 fc	 mov	 DWORD PTR __$ArrayPad$[ebp], eax
  00010	8b 45 08	 mov	 eax, DWORD PTR _k$[ebp]

; 162  : 		_ENCSTR(k, _k);

  00013	8a 10		 mov	 dl, BYTE PTR [eax]
  00015	56		 push	 esi
  00016	8b 75 0c	 mov	 esi, DWORD PTR _d$[ebp]
  00019	57		 push	 edi
  0001a	8b 7d 10	 mov	 edi, DWORD PTR _b$[ebp]
  0001d	89 4d e0	 mov	 DWORD PTR _this$GSCopy$[ebp], ecx
  00020	84 d2		 test	 dl, dl
  00022	0f 84 be 01 00
	00		 je	 $LN96@LoadString@4
  00028	80 f2 ed	 xor	 dl, -19			; ffffffedH
  0002b	88 55 e4	 mov	 BYTE PTR __k$[ebp], dl
  0002e	8a 50 01	 mov	 dl, BYTE PTR [eax+1]
  00031	84 d2		 test	 dl, dl
  00033	0f 84 a7 01 00
	00		 je	 $LN95@LoadString@4
  00039	80 f2 ec	 xor	 dl, -20			; ffffffecH
  0003c	88 55 e5	 mov	 BYTE PTR __k$[ebp+1], dl
  0003f	8a 50 02	 mov	 dl, BYTE PTR [eax+2]
  00042	84 d2		 test	 dl, dl
  00044	0f 84 90 01 00
	00		 je	 $LN94@LoadString@4
  0004a	b1 eb		 mov	 cl, -21			; ffffffebH
  0004c	32 d1		 xor	 dl, cl
  0004e	88 55 e6	 mov	 BYTE PTR __k$[ebp+2], dl
  00051	8a 50 03	 mov	 dl, BYTE PTR [eax+3]
  00054	84 d2		 test	 dl, dl
  00056	0f 84 78 01 00
	00		 je	 $LN93@LoadString@4
  0005c	80 f2 ea	 xor	 dl, -22			; ffffffeaH
  0005f	88 55 e7	 mov	 BYTE PTR __k$[ebp+3], dl
  00062	8a 50 04	 mov	 dl, BYTE PTR [eax+4]
  00065	84 d2		 test	 dl, dl
  00067	0f 84 61 01 00
	00		 je	 $LN92@LoadString@4
  0006d	80 f2 ed	 xor	 dl, -19			; ffffffedH
  00070	88 55 e8	 mov	 BYTE PTR __k$[ebp+4], dl
  00073	8a 50 05	 mov	 dl, BYTE PTR [eax+5]
  00076	84 d2		 test	 dl, dl
  00078	0f 84 4a 01 00
	00		 je	 $LN91@LoadString@4
  0007e	80 f2 ec	 xor	 dl, -20			; ffffffecH
  00081	88 55 e9	 mov	 BYTE PTR __k$[ebp+5], dl
  00084	8a 50 06	 mov	 dl, BYTE PTR [eax+6]
  00087	84 d2		 test	 dl, dl
  00089	0f 84 34 01 00
	00		 je	 $LN90@LoadString@4
  0008f	32 d1		 xor	 dl, cl
  00091	88 55 ea	 mov	 BYTE PTR __k$[ebp+6], dl
  00094	8a 50 07	 mov	 dl, BYTE PTR [eax+7]
  00097	84 d2		 test	 dl, dl
  00099	0f 84 1e 01 00
	00		 je	 $LN89@LoadString@4
  0009f	80 f2 ea	 xor	 dl, -22			; ffffffeaH
  000a2	88 55 eb	 mov	 BYTE PTR __k$[ebp+7], dl
  000a5	8a 50 08	 mov	 dl, BYTE PTR [eax+8]
  000a8	84 d2		 test	 dl, dl
  000aa	0f 84 07 01 00
	00		 je	 $LN88@LoadString@4
  000b0	80 f2 ed	 xor	 dl, -19			; ffffffedH
  000b3	88 55 ec	 mov	 BYTE PTR __k$[ebp+8], dl
  000b6	8a 50 09	 mov	 dl, BYTE PTR [eax+9]
  000b9	84 d2		 test	 dl, dl
  000bb	0f 84 f0 00 00
	00		 je	 $LN87@LoadString@4
  000c1	80 f2 ec	 xor	 dl, -20			; ffffffecH
  000c4	88 55 ed	 mov	 BYTE PTR __k$[ebp+9], dl
  000c7	8a 50 0a	 mov	 dl, BYTE PTR [eax+10]
  000ca	84 d2		 test	 dl, dl
  000cc	0f 84 da 00 00
	00		 je	 $LN86@LoadString@4
  000d2	32 d1		 xor	 dl, cl
  000d4	88 55 ee	 mov	 BYTE PTR __k$[ebp+10], dl
  000d7	8a 50 0b	 mov	 dl, BYTE PTR [eax+11]
  000da	84 d2		 test	 dl, dl
  000dc	0f 84 c4 00 00
	00		 je	 $LN85@LoadString@4
  000e2	80 f2 ea	 xor	 dl, -22			; ffffffeaH
  000e5	88 55 ef	 mov	 BYTE PTR __k$[ebp+11], dl
  000e8	8a 50 0c	 mov	 dl, BYTE PTR [eax+12]
  000eb	84 d2		 test	 dl, dl
  000ed	0f 84 ad 00 00
	00		 je	 $LN84@LoadString@4
  000f3	80 f2 ed	 xor	 dl, -19			; ffffffedH
  000f6	88 55 f0	 mov	 BYTE PTR __k$[ebp+12], dl
  000f9	8a 50 0d	 mov	 dl, BYTE PTR [eax+13]
  000fc	84 d2		 test	 dl, dl
  000fe	0f 84 96 00 00
	00		 je	 $LN83@LoadString@4
  00104	80 f2 ec	 xor	 dl, -20			; ffffffecH
  00107	88 55 f1	 mov	 BYTE PTR __k$[ebp+13], dl
  0010a	8a 50 0e	 mov	 dl, BYTE PTR [eax+14]
  0010d	84 d2		 test	 dl, dl
  0010f	0f 84 80 00 00
	00		 je	 $LN82@LoadString@4
  00115	32 d1		 xor	 dl, cl
  00117	88 55 f2	 mov	 BYTE PTR __k$[ebp+14], dl
  0011a	8a 50 0f	 mov	 dl, BYTE PTR [eax+15]
  0011d	84 d2		 test	 dl, dl
  0011f	74 6e		 je	 SHORT $LN81@LoadString@4
  00121	80 f2 ea	 xor	 dl, -22			; ffffffeaH
  00124	88 55 f3	 mov	 BYTE PTR __k$[ebp+15], dl
  00127	8a 50 10	 mov	 dl, BYTE PTR [eax+16]
  0012a	84 d2		 test	 dl, dl
  0012c	74 5b		 je	 SHORT $LN80@LoadString@4
  0012e	80 f2 ed	 xor	 dl, -19			; ffffffedH
  00131	80 78 11 00	 cmp	 BYTE PTR [eax+17], 0
  00135	88 55 f4	 mov	 BYTE PTR __k$[ebp+16], dl
  00138	0f 84 ac 00 00
	00		 je	 $LN111@LoadString@4
  0013e	8a 50 12	 mov	 dl, BYTE PTR [eax+18]
  00141	84 d2		 test	 dl, dl
  00143	74 3f		 je	 SHORT $LN78@LoadString@4
  00145	32 d1		 xor	 dl, cl
  00147	88 55 f6	 mov	 BYTE PTR __k$[ebp+18], dl
  0014a	8a 50 13	 mov	 dl, BYTE PTR [eax+19]
  0014d	84 d2		 test	 dl, dl
  0014f	74 2d		 je	 SHORT $LN77@LoadString@4
  00151	80 f2 ea	 xor	 dl, -22			; ffffffeaH
  00154	88 55 f7	 mov	 BYTE PTR __k$[ebp+19], dl
  00157	8a 50 14	 mov	 dl, BYTE PTR [eax+20]
  0015a	84 d2		 test	 dl, dl
  0015c	74 1a		 je	 SHORT $LN76@LoadString@4
  0015e	8a 40 15	 mov	 al, BYTE PTR [eax+21]
  00161	80 f2 ed	 xor	 dl, -19			; ffffffedH
  00164	88 55 f8	 mov	 BYTE PTR __k$[ebp+20], dl
  00167	84 c0		 test	 al, al
  00169	74 07		 je	 SHORT $LN75@LoadString@4
  0016b	34 ec		 xor	 al, -20			; ffffffecH
  0016d	88 45 f9	 mov	 BYTE PTR __k$[ebp+21], al
  00170	eb 78		 jmp	 SHORT $LN111@LoadString@4
$LN75@LoadString@4:
  00172	c6 45 f9 ec	 mov	 BYTE PTR __k$[ebp+21], -20 ; ffffffecH
  00176	eb 72		 jmp	 SHORT $LN111@LoadString@4
$LN76@LoadString@4:
  00178	c6 45 f8 ed	 mov	 BYTE PTR __k$[ebp+20], -19 ; ffffffedH
  0017c	eb 6c		 jmp	 SHORT $LN111@LoadString@4
$LN77@LoadString@4:
  0017e	c6 45 f7 ea	 mov	 BYTE PTR __k$[ebp+19], -22 ; ffffffeaH
  00182	eb 66		 jmp	 SHORT $LN111@LoadString@4
$LN78@LoadString@4:
  00184	88 4d f6	 mov	 BYTE PTR __k$[ebp+18], cl
  00187	eb 61		 jmp	 SHORT $LN111@LoadString@4
$LN80@LoadString@4:
  00189	c6 45 f4 ed	 mov	 BYTE PTR __k$[ebp+16], -19 ; ffffffedH
  0018d	eb 5b		 jmp	 SHORT $LN111@LoadString@4
$LN81@LoadString@4:
  0018f	c6 45 f3 ea	 mov	 BYTE PTR __k$[ebp+15], -22 ; ffffffeaH
  00193	eb 55		 jmp	 SHORT $LN111@LoadString@4
$LN82@LoadString@4:
  00195	88 4d f2	 mov	 BYTE PTR __k$[ebp+14], cl
  00198	eb 50		 jmp	 SHORT $LN111@LoadString@4
$LN83@LoadString@4:
  0019a	c6 45 f1 ec	 mov	 BYTE PTR __k$[ebp+13], -20 ; ffffffecH
  0019e	eb 4a		 jmp	 SHORT $LN111@LoadString@4
$LN84@LoadString@4:
  001a0	c6 45 f0 ed	 mov	 BYTE PTR __k$[ebp+12], -19 ; ffffffedH
  001a4	eb 44		 jmp	 SHORT $LN111@LoadString@4
$LN85@LoadString@4:
  001a6	c6 45 ef ea	 mov	 BYTE PTR __k$[ebp+11], -22 ; ffffffeaH
  001aa	eb 3e		 jmp	 SHORT $LN111@LoadString@4
$LN86@LoadString@4:
  001ac	88 4d ee	 mov	 BYTE PTR __k$[ebp+10], cl
  001af	eb 39		 jmp	 SHORT $LN111@LoadString@4
$LN87@LoadString@4:
  001b1	c6 45 ed ec	 mov	 BYTE PTR __k$[ebp+9], -20 ; ffffffecH
  001b5	eb 33		 jmp	 SHORT $LN111@LoadString@4
$LN88@LoadString@4:
  001b7	c6 45 ec ed	 mov	 BYTE PTR __k$[ebp+8], -19 ; ffffffedH
  001bb	eb 2d		 jmp	 SHORT $LN111@LoadString@4
$LN89@LoadString@4:
  001bd	c6 45 eb ea	 mov	 BYTE PTR __k$[ebp+7], -22 ; ffffffeaH
  001c1	eb 27		 jmp	 SHORT $LN111@LoadString@4
$LN90@LoadString@4:
  001c3	88 4d ea	 mov	 BYTE PTR __k$[ebp+6], cl
  001c6	eb 22		 jmp	 SHORT $LN111@LoadString@4
$LN91@LoadString@4:
  001c8	c6 45 e9 ec	 mov	 BYTE PTR __k$[ebp+5], -20 ; ffffffecH
  001cc	eb 1c		 jmp	 SHORT $LN111@LoadString@4
$LN92@LoadString@4:
  001ce	c6 45 e8 ed	 mov	 BYTE PTR __k$[ebp+4], -19 ; ffffffedH
  001d2	eb 16		 jmp	 SHORT $LN111@LoadString@4
$LN93@LoadString@4:
  001d4	c6 45 e7 ea	 mov	 BYTE PTR __k$[ebp+3], -22 ; ffffffeaH
  001d8	eb 10		 jmp	 SHORT $LN111@LoadString@4
$LN94@LoadString@4:
  001da	c6 45 e6 eb	 mov	 BYTE PTR __k$[ebp+2], -21 ; ffffffebH
  001de	eb 0a		 jmp	 SHORT $LN111@LoadString@4
$LN95@LoadString@4:
  001e0	c6 45 e5 ec	 mov	 BYTE PTR __k$[ebp+1], -20 ; ffffffecH
  001e4	eb 04		 jmp	 SHORT $LN111@LoadString@4
$LN96@LoadString@4:
  001e6	c6 45 e4 ed	 mov	 BYTE PTR __k$[ebp], -19	; ffffffedH
$LN111@LoadString@4:
  001ea	6a 04		 push	 4
  001ec	8d 45 e4	 lea	 eax, DWORD PTR __k$[ebp]
  001ef	c6 45 f5 00	 mov	 BYTE PTR __k$[ebp+17], 0
  001f3	5a		 pop	 edx
$LL104@LoadString@4:
  001f4	81 30 ed ec eb
	ea		 xor	 DWORD PTR [eax], -353637139 ; eaebecedH
  001fa	83 c0 04	 add	 eax, 4
  001fd	4a		 dec	 edx
  001fe	75 f4		 jne	 SHORT $LL104@LoadString@4

; 163  : 		LoadString(_k, d, b, i);

  00200	ff 75 14	 push	 DWORD PTR _i$[ebp]
  00203	8b 4d e0	 mov	 ecx, DWORD PTR _this$GSCopy$[ebp]
  00206	80 75 f4 ed	 xor	 BYTE PTR __k$[ebp+16], -19 ; ffffffedH
  0020a	57		 push	 edi
  0020b	56		 push	 esi
  0020c	8d 45 e4	 lea	 eax, DWORD PTR __k$[ebp]
  0020f	50		 push	 eax
  00210	ff 15 00 00 00
	00		 call	 DWORD PTR __imp_?LoadStringA@ioINILoader@@QAEXPBD0PADH@Z

; 164  : 	}

  00216	8b 4d fc	 mov	 ecx, DWORD PTR __$ArrayPad$[ebp]
  00219	5f		 pop	 edi
  0021a	33 cd		 xor	 ecx, ebp
  0021c	5e		 pop	 esi
  0021d	e8 00 00 00 00	 call	 @__security_check_cookie@4
  00222	c9		 leave
  00223	c2 10 00	 ret	 16			; 00000010H
??$LoadString_e@$0BC@@ioINILoader@@QAEXAAY0BC@$$CBDAAY00$$CBDPADH@Z ENDP ; ioINILoader::LoadString_e<18>
_TEXT	ENDS
PUBLIC	__$ArrayPad$
PUBLIC	??$LoadFloat_e@$0BH@@ioINILoader@@QAEMAAY0BH@$$CBDM@Z ; ioINILoader::LoadFloat_e<23>
; Function compile flags: /Ogsp
;	COMDAT ??$LoadFloat_e@$0BH@@ioINILoader@@QAEMAAY0BH@$$CBDM@Z
_TEXT	SEGMENT
__k$ = -32						; size = 23
__$ArrayPad$ = -4					; size = 4
_k$ = 8							; size = 4
_f$ = 12						; size = 4
??$LoadFloat_e@$0BH@@ioINILoader@@QAEMAAY0BH@$$CBDM@Z PROC ; ioINILoader::LoadFloat_e<23>, COMDAT
; _this$ = ecx

; 135  : 	{

  00000	55		 push	 ebp
  00001	8b ec		 mov	 ebp, esp
  00003	83 ec 20	 sub	 esp, 32			; 00000020H
  00006	a1 00 00 00 00	 mov	 eax, DWORD PTR ___security_cookie
  0000b	33 c5		 xor	 eax, ebp
  0000d	89 45 fc	 mov	 DWORD PTR __$ArrayPad$[ebp], eax
  00010	8b 45 08	 mov	 eax, DWORD PTR _k$[ebp]

; 136  : 		_ENCSTR(k, _k);

  00013	8a 10		 mov	 dl, BYTE PTR [eax]
  00015	53		 push	 ebx
  00016	56		 push	 esi
  00017	8b f1		 mov	 esi, ecx
  00019	84 d2		 test	 dl, dl
  0001b	0f 84 2d 02 00
	00		 je	 $LN96@LoadFloat_@8
  00021	80 f2 ed	 xor	 dl, -19			; ffffffedH
  00024	88 55 e0	 mov	 BYTE PTR __k$[ebp], dl
  00027	8a 50 01	 mov	 dl, BYTE PTR [eax+1]
  0002a	84 d2		 test	 dl, dl
  0002c	0f 84 16 02 00
	00		 je	 $LN95@LoadFloat_@8
  00032	b1 ec		 mov	 cl, -20			; ffffffecH
  00034	32 d1		 xor	 dl, cl
  00036	88 55 e1	 mov	 BYTE PTR __k$[ebp+1], dl
  00039	8a 50 02	 mov	 dl, BYTE PTR [eax+2]
  0003c	84 d2		 test	 dl, dl
  0003e	0f 84 fe 01 00
	00		 je	 $LN94@LoadFloat_@8
  00044	80 f2 eb	 xor	 dl, -21			; ffffffebH
  00047	88 55 e2	 mov	 BYTE PTR __k$[ebp+2], dl
  0004a	8a 50 03	 mov	 dl, BYTE PTR [eax+3]
  0004d	84 d2		 test	 dl, dl
  0004f	0f 84 e7 01 00
	00		 je	 $LN93@LoadFloat_@8
  00055	b3 ea		 mov	 bl, -22			; ffffffeaH
  00057	32 d3		 xor	 dl, bl
  00059	88 55 e3	 mov	 BYTE PTR __k$[ebp+3], dl
  0005c	8a 50 04	 mov	 dl, BYTE PTR [eax+4]
  0005f	84 d2		 test	 dl, dl
  00061	0f 84 cf 01 00
	00		 je	 $LN92@LoadFloat_@8
  00067	80 f2 ed	 xor	 dl, -19			; ffffffedH
  0006a	88 55 e4	 mov	 BYTE PTR __k$[ebp+4], dl
  0006d	8a 50 05	 mov	 dl, BYTE PTR [eax+5]
  00070	84 d2		 test	 dl, dl
  00072	0f 84 b9 01 00
	00		 je	 $LN91@LoadFloat_@8
  00078	32 d1		 xor	 dl, cl
  0007a	88 55 e5	 mov	 BYTE PTR __k$[ebp+5], dl
  0007d	8a 50 06	 mov	 dl, BYTE PTR [eax+6]
  00080	84 d2		 test	 dl, dl
  00082	0f 84 a3 01 00
	00		 je	 $LN90@LoadFloat_@8
  00088	80 f2 eb	 xor	 dl, -21			; ffffffebH
  0008b	88 55 e6	 mov	 BYTE PTR __k$[ebp+6], dl
  0008e	8a 50 07	 mov	 dl, BYTE PTR [eax+7]
  00091	84 d2		 test	 dl, dl
  00093	0f 84 8d 01 00
	00		 je	 $LN89@LoadFloat_@8
  00099	32 d3		 xor	 dl, bl
  0009b	88 55 e7	 mov	 BYTE PTR __k$[ebp+7], dl
  0009e	8a 50 08	 mov	 dl, BYTE PTR [eax+8]
  000a1	84 d2		 test	 dl, dl
  000a3	0f 84 77 01 00
	00		 je	 $LN88@LoadFloat_@8
  000a9	80 f2 ed	 xor	 dl, -19			; ffffffedH
  000ac	88 55 e8	 mov	 BYTE PTR __k$[ebp+8], dl
  000af	8a 50 09	 mov	 dl, BYTE PTR [eax+9]
  000b2	84 d2		 test	 dl, dl
  000b4	0f 84 61 01 00
	00		 je	 $LN87@LoadFloat_@8
  000ba	32 d1		 xor	 dl, cl
  000bc	88 55 e9	 mov	 BYTE PTR __k$[ebp+9], dl
  000bf	8a 50 0a	 mov	 dl, BYTE PTR [eax+10]
  000c2	84 d2		 test	 dl, dl
  000c4	0f 84 4b 01 00
	00		 je	 $LN86@LoadFloat_@8
  000ca	80 f2 eb	 xor	 dl, -21			; ffffffebH
  000cd	88 55 ea	 mov	 BYTE PTR __k$[ebp+10], dl
  000d0	8a 50 0b	 mov	 dl, BYTE PTR [eax+11]
  000d3	84 d2		 test	 dl, dl
  000d5	0f 84 35 01 00
	00		 je	 $LN85@LoadFloat_@8
  000db	32 d3		 xor	 dl, bl
  000dd	88 55 eb	 mov	 BYTE PTR __k$[ebp+11], dl
  000e0	8a 50 0c	 mov	 dl, BYTE PTR [eax+12]
  000e3	84 d2		 test	 dl, dl
  000e5	0f 84 1f 01 00
	00		 je	 $LN84@LoadFloat_@8
  000eb	80 f2 ed	 xor	 dl, -19			; ffffffedH
  000ee	88 55 ec	 mov	 BYTE PTR __k$[ebp+12], dl
  000f1	8a 50 0d	 mov	 dl, BYTE PTR [eax+13]
  000f4	84 d2		 test	 dl, dl
  000f6	0f 84 09 01 00
	00		 je	 $LN83@LoadFloat_@8
  000fc	32 d1		 xor	 dl, cl
  000fe	88 55 ed	 mov	 BYTE PTR __k$[ebp+13], dl
  00101	8a 50 0e	 mov	 dl, BYTE PTR [eax+14]
  00104	84 d2		 test	 dl, dl
  00106	0f 84 f3 00 00
	00		 je	 $LN82@LoadFloat_@8
  0010c	80 f2 eb	 xor	 dl, -21			; ffffffebH
  0010f	88 55 ee	 mov	 BYTE PTR __k$[ebp+14], dl
  00112	8a 50 0f	 mov	 dl, BYTE PTR [eax+15]
  00115	84 d2		 test	 dl, dl
  00117	0f 84 dd 00 00
	00		 je	 $LN81@LoadFloat_@8
  0011d	32 d3		 xor	 dl, bl
  0011f	88 55 ef	 mov	 BYTE PTR __k$[ebp+15], dl
  00122	8a 50 10	 mov	 dl, BYTE PTR [eax+16]
  00125	84 d2		 test	 dl, dl
  00127	0f 84 c7 00 00
	00		 je	 $LN80@LoadFloat_@8
  0012d	80 f2 ed	 xor	 dl, -19			; ffffffedH
  00130	88 55 f0	 mov	 BYTE PTR __k$[ebp+16], dl
  00133	8a 50 11	 mov	 dl, BYTE PTR [eax+17]
  00136	84 d2		 test	 dl, dl
  00138	0f 84 b1 00 00
	00		 je	 $LN79@LoadFloat_@8
  0013e	32 d1		 xor	 dl, cl
  00140	88 55 f1	 mov	 BYTE PTR __k$[ebp+17], dl
  00143	8a 50 12	 mov	 dl, BYTE PTR [eax+18]
  00146	84 d2		 test	 dl, dl
  00148	0f 84 9b 00 00
	00		 je	 $LN78@LoadFloat_@8
  0014e	80 f2 eb	 xor	 dl, -21			; ffffffebH
  00151	88 55 f2	 mov	 BYTE PTR __k$[ebp+18], dl
  00154	8a 50 13	 mov	 dl, BYTE PTR [eax+19]
  00157	84 d2		 test	 dl, dl
  00159	0f 84 85 00 00
	00		 je	 $LN77@LoadFloat_@8
  0015f	32 d3		 xor	 dl, bl
  00161	88 55 f3	 mov	 BYTE PTR __k$[ebp+19], dl
  00164	8a 50 14	 mov	 dl, BYTE PTR [eax+20]
  00167	84 d2		 test	 dl, dl
  00169	74 73		 je	 SHORT $LN76@LoadFloat_@8
  0016b	80 f2 ed	 xor	 dl, -19			; ffffffedH
  0016e	88 55 f4	 mov	 BYTE PTR __k$[ebp+20], dl
  00171	8a 50 15	 mov	 dl, BYTE PTR [eax+21]
  00174	84 d2		 test	 dl, dl
  00176	74 61		 je	 SHORT $LN75@LoadFloat_@8
  00178	32 d1		 xor	 dl, cl
  0017a	80 78 16 00	 cmp	 BYTE PTR [eax+22], 0
  0017e	88 55 f5	 mov	 BYTE PTR __k$[ebp+21], dl
  00181	0f 84 cb 00 00
	00		 je	 $LN1@LoadFloat_@8
  00187	8a 50 17	 mov	 dl, BYTE PTR [eax+23]
  0018a	84 d2		 test	 dl, dl
  0018c	74 46		 je	 SHORT $LN73@LoadFloat_@8
  0018e	32 d3		 xor	 dl, bl
  00190	88 55 f7	 mov	 BYTE PTR __k$[ebp+23], dl
  00193	8a 50 18	 mov	 dl, BYTE PTR [eax+24]
  00196	84 d2		 test	 dl, dl
  00198	74 34		 je	 SHORT $LN72@LoadFloat_@8
  0019a	80 f2 ed	 xor	 dl, -19			; ffffffedH
  0019d	88 55 f8	 mov	 BYTE PTR __k$[ebp+24], dl
  001a0	8a 50 19	 mov	 dl, BYTE PTR [eax+25]
  001a3	84 d2		 test	 dl, dl
  001a5	74 1f		 je	 SHORT $LN71@LoadFloat_@8
  001a7	8a 40 1a	 mov	 al, BYTE PTR [eax+26]
  001aa	32 d1		 xor	 dl, cl
  001ac	88 55 f9	 mov	 BYTE PTR __k$[ebp+25], dl
  001af	84 c0		 test	 al, al
  001b1	74 0a		 je	 SHORT $LN70@LoadFloat_@8
  001b3	34 eb		 xor	 al, -21			; ffffffebH
  001b5	88 45 fa	 mov	 BYTE PTR __k$[ebp+26], al
  001b8	e9 95 00 00 00	 jmp	 $LN1@LoadFloat_@8
$LN70@LoadFloat_@8:
  001bd	c6 45 fa eb	 mov	 BYTE PTR __k$[ebp+26], -21 ; ffffffebH
  001c1	e9 8c 00 00 00	 jmp	 $LN1@LoadFloat_@8
$LN71@LoadFloat_@8:
  001c6	88 4d f9	 mov	 BYTE PTR __k$[ebp+25], cl
  001c9	e9 84 00 00 00	 jmp	 $LN1@LoadFloat_@8
$LN72@LoadFloat_@8:
  001ce	c6 45 f8 ed	 mov	 BYTE PTR __k$[ebp+24], -19 ; ffffffedH
  001d2	eb 7e		 jmp	 SHORT $LN1@LoadFloat_@8
$LN73@LoadFloat_@8:
  001d4	88 5d f7	 mov	 BYTE PTR __k$[ebp+23], bl
  001d7	eb 79		 jmp	 SHORT $LN1@LoadFloat_@8
$LN75@LoadFloat_@8:
  001d9	88 4d f5	 mov	 BYTE PTR __k$[ebp+21], cl
  001dc	eb 74		 jmp	 SHORT $LN1@LoadFloat_@8
$LN76@LoadFloat_@8:
  001de	c6 45 f4 ed	 mov	 BYTE PTR __k$[ebp+20], -19 ; ffffffedH
  001e2	eb 6e		 jmp	 SHORT $LN1@LoadFloat_@8
$LN77@LoadFloat_@8:
  001e4	88 5d f3	 mov	 BYTE PTR __k$[ebp+19], bl
  001e7	eb 69		 jmp	 SHORT $LN1@LoadFloat_@8
$LN78@LoadFloat_@8:
  001e9	c6 45 f2 eb	 mov	 BYTE PTR __k$[ebp+18], -21 ; ffffffebH
  001ed	eb 63		 jmp	 SHORT $LN1@LoadFloat_@8
$LN79@LoadFloat_@8:
  001ef	88 4d f1	 mov	 BYTE PTR __k$[ebp+17], cl
  001f2	eb 5e		 jmp	 SHORT $LN1@LoadFloat_@8
$LN80@LoadFloat_@8:
  001f4	c6 45 f0 ed	 mov	 BYTE PTR __k$[ebp+16], -19 ; ffffffedH
  001f8	eb 58		 jmp	 SHORT $LN1@LoadFloat_@8
$LN81@LoadFloat_@8:
  001fa	88 5d ef	 mov	 BYTE PTR __k$[ebp+15], bl
  001fd	eb 53		 jmp	 SHORT $LN1@LoadFloat_@8
$LN82@LoadFloat_@8:
  001ff	c6 45 ee eb	 mov	 BYTE PTR __k$[ebp+14], -21 ; ffffffebH
  00203	eb 4d		 jmp	 SHORT $LN1@LoadFloat_@8
$LN83@LoadFloat_@8:
  00205	88 4d ed	 mov	 BYTE PTR __k$[ebp+13], cl
  00208	eb 48		 jmp	 SHORT $LN1@LoadFloat_@8
$LN84@LoadFloat_@8:
  0020a	c6 45 ec ed	 mov	 BYTE PTR __k$[ebp+12], -19 ; ffffffedH
  0020e	eb 42		 jmp	 SHORT $LN1@LoadFloat_@8
$LN85@LoadFloat_@8:
  00210	88 5d eb	 mov	 BYTE PTR __k$[ebp+11], bl
  00213	eb 3d		 jmp	 SHORT $LN1@LoadFloat_@8
$LN86@LoadFloat_@8:
  00215	c6 45 ea eb	 mov	 BYTE PTR __k$[ebp+10], -21 ; ffffffebH
  00219	eb 37		 jmp	 SHORT $LN1@LoadFloat_@8
$LN87@LoadFloat_@8:
  0021b	88 4d e9	 mov	 BYTE PTR __k$[ebp+9], cl
  0021e	eb 32		 jmp	 SHORT $LN1@LoadFloat_@8
$LN88@LoadFloat_@8:
  00220	c6 45 e8 ed	 mov	 BYTE PTR __k$[ebp+8], -19 ; ffffffedH
  00224	eb 2c		 jmp	 SHORT $LN1@LoadFloat_@8
$LN89@LoadFloat_@8:
  00226	88 5d e7	 mov	 BYTE PTR __k$[ebp+7], bl
  00229	eb 27		 jmp	 SHORT $LN1@LoadFloat_@8
$LN90@LoadFloat_@8:
  0022b	c6 45 e6 eb	 mov	 BYTE PTR __k$[ebp+6], -21 ; ffffffebH
  0022f	eb 21		 jmp	 SHORT $LN1@LoadFloat_@8
$LN91@LoadFloat_@8:
  00231	88 4d e5	 mov	 BYTE PTR __k$[ebp+5], cl
  00234	eb 1c		 jmp	 SHORT $LN1@LoadFloat_@8
$LN92@LoadFloat_@8:
  00236	c6 45 e4 ed	 mov	 BYTE PTR __k$[ebp+4], -19 ; ffffffedH
  0023a	eb 16		 jmp	 SHORT $LN1@LoadFloat_@8
$LN93@LoadFloat_@8:
  0023c	c6 45 e3 ea	 mov	 BYTE PTR __k$[ebp+3], -22 ; ffffffeaH
  00240	eb 10		 jmp	 SHORT $LN1@LoadFloat_@8
$LN94@LoadFloat_@8:
  00242	c6 45 e2 eb	 mov	 BYTE PTR __k$[ebp+2], -21 ; ffffffebH
  00246	eb 0a		 jmp	 SHORT $LN1@LoadFloat_@8
$LN95@LoadFloat_@8:
  00248	c6 45 e1 ec	 mov	 BYTE PTR __k$[ebp+1], -20 ; ffffffecH
  0024c	eb 04		 jmp	 SHORT $LN1@LoadFloat_@8
$LN96@LoadFloat_@8:
  0024e	c6 45 e0 ed	 mov	 BYTE PTR __k$[ebp], -19	; ffffffedH
$LN1@LoadFloat_@8:
  00252	6a 05		 push	 5
  00254	8d 45 e0	 lea	 eax, DWORD PTR __k$[ebp]
  00257	c6 45 f6 00	 mov	 BYTE PTR __k$[ebp+22], 0
  0025b	5a		 pop	 edx
$LL104@LoadFloat_@8:
  0025c	81 30 ed ec eb
	ea		 xor	 DWORD PTR [eax], -353637139 ; eaebecedH
  00262	83 c0 04	 add	 eax, 4
  00265	4a		 dec	 edx
  00266	75 f4		 jne	 SHORT $LL104@LoadFloat_@8
  00268	6a 14		 push	 20			; 00000014H
  0026a	58		 pop	 eax
$LL101@LoadFloat_@8:
  0026b	8b c8		 mov	 ecx, eax
  0026d	81 e1 03 00 00
	80		 and	 ecx, -2147483645	; 80000003H
  00273	79 05		 jns	 SHORT $LN111@LoadFloat_@8
  00275	49		 dec	 ecx
  00276	83 c9 fc	 or	 ecx, -4			; fffffffcH
  00279	41		 inc	 ecx
$LN111@LoadFloat_@8:
  0027a	b2 ed		 mov	 dl, -19			; ffffffedH
  0027c	2a d1		 sub	 dl, cl
  0027e	30 54 05 e0	 xor	 BYTE PTR __k$[ebp+eax], dl
  00282	40		 inc	 eax
  00283	83 f8 16	 cmp	 eax, 22			; 00000016H
  00286	7c e3		 jl	 SHORT $LL101@LoadFloat_@8

; 137  : 		return LoadFloat(_k, f);

  00288	f3 0f 10 45 0c	 movss	 xmm0, DWORD PTR _f$[ebp]
  0028d	51		 push	 ecx
  0028e	8d 45 e0	 lea	 eax, DWORD PTR __k$[ebp]
  00291	f3 0f 11 04 24	 movss	 DWORD PTR [esp], xmm0
  00296	50		 push	 eax
  00297	8b ce		 mov	 ecx, esi
  00299	ff 15 00 00 00
	00		 call	 DWORD PTR __imp_?LoadFloat@ioINILoader@@QAEMPBDM@Z

; 138  : 	}

  0029f	8b 4d fc	 mov	 ecx, DWORD PTR __$ArrayPad$[ebp]
  002a2	5e		 pop	 esi
  002a3	33 cd		 xor	 ecx, ebp
  002a5	5b		 pop	 ebx
  002a6	e8 00 00 00 00	 call	 @__security_check_cookie@4
  002ab	c9		 leave
  002ac	c2 08 00	 ret	 8
??$LoadFloat_e@$0BH@@ioINILoader@@QAEMAAY0BH@$$CBDM@Z ENDP ; ioINILoader::LoadFloat_e<23>
_TEXT	ENDS
PUBLIC	__$ArrayPad$
PUBLIC	??$LoadInt_e@$0BE@@ioINILoader@@QAEHAAY0BE@$$CBDH@Z ; ioINILoader::LoadInt_e<20>
; Function compile flags: /Ogsp
;	COMDAT ??$LoadInt_e@$0BE@@ioINILoader@@QAEHAAY0BE@$$CBDH@Z
_TEXT	SEGMENT
__k$ = -28						; size = 20
__$ArrayPad$ = -4					; size = 4
_k$ = 8							; size = 4
_i$ = 12						; size = 4
??$LoadInt_e@$0BE@@ioINILoader@@QAEHAAY0BE@$$CBDH@Z PROC ; ioINILoader::LoadInt_e<20>, COMDAT
; _this$ = ecx

; 118  : 	{

  00000	55		 push	 ebp
  00001	8b ec		 mov	 ebp, esp
  00003	83 ec 1c	 sub	 esp, 28			; 0000001cH
  00006	a1 00 00 00 00	 mov	 eax, DWORD PTR ___security_cookie
  0000b	33 c5		 xor	 eax, ebp
  0000d	89 45 fc	 mov	 DWORD PTR __$ArrayPad$[ebp], eax
  00010	8b 45 08	 mov	 eax, DWORD PTR _k$[ebp]

; 119  : 		_ENCSTR(k, _k);

  00013	8a 10		 mov	 dl, BYTE PTR [eax]
  00015	53		 push	 ebx
  00016	56		 push	 esi
  00017	8b f1		 mov	 esi, ecx
  00019	84 d2		 test	 dl, dl
  0001b	0f 84 dd 01 00
	00		 je	 $LN96@LoadInt_e@2
  00021	80 f2 ed	 xor	 dl, -19			; ffffffedH
  00024	88 55 e4	 mov	 BYTE PTR __k$[ebp], dl
  00027	8a 50 01	 mov	 dl, BYTE PTR [eax+1]
  0002a	84 d2		 test	 dl, dl
  0002c	0f 84 c6 01 00
	00		 je	 $LN95@LoadInt_e@2
  00032	b3 ec		 mov	 bl, -20			; ffffffecH
  00034	32 d3		 xor	 dl, bl
  00036	88 55 e5	 mov	 BYTE PTR __k$[ebp+1], dl
  00039	8a 50 02	 mov	 dl, BYTE PTR [eax+2]
  0003c	84 d2		 test	 dl, dl
  0003e	0f 84 ae 01 00
	00		 je	 $LN94@LoadInt_e@2
  00044	b1 eb		 mov	 cl, -21			; ffffffebH
  00046	32 d1		 xor	 dl, cl
  00048	88 55 e6	 mov	 BYTE PTR __k$[ebp+2], dl
  0004b	8a 50 03	 mov	 dl, BYTE PTR [eax+3]
  0004e	84 d2		 test	 dl, dl
  00050	0f 84 96 01 00
	00		 je	 $LN93@LoadInt_e@2
  00056	80 f2 ea	 xor	 dl, -22			; ffffffeaH
  00059	88 55 e7	 mov	 BYTE PTR __k$[ebp+3], dl
  0005c	8a 50 04	 mov	 dl, BYTE PTR [eax+4]
  0005f	84 d2		 test	 dl, dl
  00061	0f 84 7f 01 00
	00		 je	 $LN92@LoadInt_e@2
  00067	80 f2 ed	 xor	 dl, -19			; ffffffedH
  0006a	88 55 e8	 mov	 BYTE PTR __k$[ebp+4], dl
  0006d	8a 50 05	 mov	 dl, BYTE PTR [eax+5]
  00070	84 d2		 test	 dl, dl
  00072	0f 84 69 01 00
	00		 je	 $LN91@LoadInt_e@2
  00078	32 d3		 xor	 dl, bl
  0007a	88 55 e9	 mov	 BYTE PTR __k$[ebp+5], dl
  0007d	8a 50 06	 mov	 dl, BYTE PTR [eax+6]
  00080	84 d2		 test	 dl, dl
  00082	0f 84 54 01 00
	00		 je	 $LN90@LoadInt_e@2
  00088	32 d1		 xor	 dl, cl
  0008a	88 55 ea	 mov	 BYTE PTR __k$[ebp+6], dl
  0008d	8a 50 07	 mov	 dl, BYTE PTR [eax+7]
  00090	84 d2		 test	 dl, dl
  00092	0f 84 3e 01 00
	00		 je	 $LN89@LoadInt_e@2
  00098	80 f2 ea	 xor	 dl, -22			; ffffffeaH
  0009b	88 55 eb	 mov	 BYTE PTR __k$[ebp+7], dl
  0009e	8a 50 08	 mov	 dl, BYTE PTR [eax+8]
  000a1	84 d2		 test	 dl, dl
  000a3	0f 84 27 01 00
	00		 je	 $LN88@LoadInt_e@2
  000a9	80 f2 ed	 xor	 dl, -19			; ffffffedH
  000ac	88 55 ec	 mov	 BYTE PTR __k$[ebp+8], dl
  000af	8a 50 09	 mov	 dl, BYTE PTR [eax+9]
  000b2	84 d2		 test	 dl, dl
  000b4	0f 84 11 01 00
	00		 je	 $LN87@LoadInt_e@2
  000ba	32 d3		 xor	 dl, bl
  000bc	88 55 ed	 mov	 BYTE PTR __k$[ebp+9], dl
  000bf	8a 50 0a	 mov	 dl, BYTE PTR [eax+10]
  000c2	84 d2		 test	 dl, dl
  000c4	0f 84 fc 00 00
	00		 je	 $LN86@LoadInt_e@2
  000ca	32 d1		 xor	 dl, cl
  000cc	88 55 ee	 mov	 BYTE PTR __k$[ebp+10], dl
  000cf	8a 50 0b	 mov	 dl, BYTE PTR [eax+11]
  000d2	84 d2		 test	 dl, dl
  000d4	0f 84 e6 00 00
	00		 je	 $LN85@LoadInt_e@2
  000da	80 f2 ea	 xor	 dl, -22			; ffffffeaH
  000dd	88 55 ef	 mov	 BYTE PTR __k$[ebp+11], dl
  000e0	8a 50 0c	 mov	 dl, BYTE PTR [eax+12]
  000e3	84 d2		 test	 dl, dl
  000e5	0f 84 cf 00 00
	00		 je	 $LN84@LoadInt_e@2
  000eb	80 f2 ed	 xor	 dl, -19			; ffffffedH
  000ee	88 55 f0	 mov	 BYTE PTR __k$[ebp+12], dl
  000f1	8a 50 0d	 mov	 dl, BYTE PTR [eax+13]
  000f4	84 d2		 test	 dl, dl
  000f6	0f 84 b9 00 00
	00		 je	 $LN83@LoadInt_e@2
  000fc	32 d3		 xor	 dl, bl
  000fe	88 55 f1	 mov	 BYTE PTR __k$[ebp+13], dl
  00101	8a 50 0e	 mov	 dl, BYTE PTR [eax+14]
  00104	84 d2		 test	 dl, dl
  00106	0f 84 a4 00 00
	00		 je	 $LN82@LoadInt_e@2
  0010c	32 d1		 xor	 dl, cl
  0010e	88 55 f2	 mov	 BYTE PTR __k$[ebp+14], dl
  00111	8a 50 0f	 mov	 dl, BYTE PTR [eax+15]
  00114	84 d2		 test	 dl, dl
  00116	0f 84 8e 00 00
	00		 je	 $LN81@LoadInt_e@2
  0011c	80 f2 ea	 xor	 dl, -22			; ffffffeaH
  0011f	88 55 f3	 mov	 BYTE PTR __k$[ebp+15], dl
  00122	8a 50 10	 mov	 dl, BYTE PTR [eax+16]
  00125	84 d2		 test	 dl, dl
  00127	74 7b		 je	 SHORT $LN80@LoadInt_e@2
  00129	80 f2 ed	 xor	 dl, -19			; ffffffedH
  0012c	88 55 f4	 mov	 BYTE PTR __k$[ebp+16], dl
  0012f	8a 50 11	 mov	 dl, BYTE PTR [eax+17]
  00132	84 d2		 test	 dl, dl
  00134	74 69		 je	 SHORT $LN79@LoadInt_e@2
  00136	32 d3		 xor	 dl, bl
  00138	88 55 f5	 mov	 BYTE PTR __k$[ebp+17], dl
  0013b	8a 50 12	 mov	 dl, BYTE PTR [eax+18]
  0013e	84 d2		 test	 dl, dl
  00140	74 58		 je	 SHORT $LN78@LoadInt_e@2
  00142	32 d1		 xor	 dl, cl
  00144	80 78 13 00	 cmp	 BYTE PTR [eax+19], 0
  00148	88 55 f6	 mov	 BYTE PTR __k$[ebp+18], dl
  0014b	0f 84 b1 00 00
	00		 je	 $LN1@LoadInt_e@2
  00151	8a 50 14	 mov	 dl, BYTE PTR [eax+20]
  00154	84 d2		 test	 dl, dl
  00156	74 3c		 je	 SHORT $LN76@LoadInt_e@2
  00158	80 f2 ed	 xor	 dl, -19			; ffffffedH
  0015b	88 55 f8	 mov	 BYTE PTR __k$[ebp+20], dl
  0015e	8a 50 15	 mov	 dl, BYTE PTR [eax+21]
  00161	84 d2		 test	 dl, dl
  00163	74 2a		 je	 SHORT $LN75@LoadInt_e@2
  00165	32 d3		 xor	 dl, bl
  00167	88 55 f9	 mov	 BYTE PTR __k$[ebp+21], dl
  0016a	8a 50 16	 mov	 dl, BYTE PTR [eax+22]
  0016d	84 d2		 test	 dl, dl
  0016f	74 19		 je	 SHORT $LN74@LoadInt_e@2
  00171	8a 40 17	 mov	 al, BYTE PTR [eax+23]
  00174	32 d1		 xor	 dl, cl
  00176	88 55 fa	 mov	 BYTE PTR __k$[ebp+22], dl
  00179	84 c0		 test	 al, al
  0017b	74 07		 je	 SHORT $LN73@LoadInt_e@2
  0017d	34 ea		 xor	 al, -22			; ffffffeaH
  0017f	88 45 fb	 mov	 BYTE PTR __k$[ebp+23], al
  00182	eb 7e		 jmp	 SHORT $LN1@LoadInt_e@2
$LN73@LoadInt_e@2:
  00184	c6 45 fb ea	 mov	 BYTE PTR __k$[ebp+23], -22 ; ffffffeaH
  00188	eb 78		 jmp	 SHORT $LN1@LoadInt_e@2
$LN74@LoadInt_e@2:
  0018a	88 4d fa	 mov	 BYTE PTR __k$[ebp+22], cl
  0018d	eb 73		 jmp	 SHORT $LN1@LoadInt_e@2
$LN75@LoadInt_e@2:
  0018f	88 5d f9	 mov	 BYTE PTR __k$[ebp+21], bl
  00192	eb 6e		 jmp	 SHORT $LN1@LoadInt_e@2
$LN76@LoadInt_e@2:
  00194	c6 45 f8 ed	 mov	 BYTE PTR __k$[ebp+20], -19 ; ffffffedH
  00198	eb 68		 jmp	 SHORT $LN1@LoadInt_e@2
$LN78@LoadInt_e@2:
  0019a	88 4d f6	 mov	 BYTE PTR __k$[ebp+18], cl
  0019d	eb 63		 jmp	 SHORT $LN1@LoadInt_e@2
$LN79@LoadInt_e@2:
  0019f	88 5d f5	 mov	 BYTE PTR __k$[ebp+17], bl
  001a2	eb 5e		 jmp	 SHORT $LN1@LoadInt_e@2
$LN80@LoadInt_e@2:
  001a4	c6 45 f4 ed	 mov	 BYTE PTR __k$[ebp+16], -19 ; ffffffedH
  001a8	eb 58		 jmp	 SHORT $LN1@LoadInt_e@2
$LN81@LoadInt_e@2:
  001aa	c6 45 f3 ea	 mov	 BYTE PTR __k$[ebp+15], -22 ; ffffffeaH
  001ae	eb 52		 jmp	 SHORT $LN1@LoadInt_e@2
$LN82@LoadInt_e@2:
  001b0	88 4d f2	 mov	 BYTE PTR __k$[ebp+14], cl
  001b3	eb 4d		 jmp	 SHORT $LN1@LoadInt_e@2
$LN83@LoadInt_e@2:
  001b5	88 5d f1	 mov	 BYTE PTR __k$[ebp+13], bl
  001b8	eb 48		 jmp	 SHORT $LN1@LoadInt_e@2
$LN84@LoadInt_e@2:
  001ba	c6 45 f0 ed	 mov	 BYTE PTR __k$[ebp+12], -19 ; ffffffedH
  001be	eb 42		 jmp	 SHORT $LN1@LoadInt_e@2
$LN85@LoadInt_e@2:
  001c0	c6 45 ef ea	 mov	 BYTE PTR __k$[ebp+11], -22 ; ffffffeaH
  001c4	eb 3c		 jmp	 SHORT $LN1@LoadInt_e@2
$LN86@LoadInt_e@2:
  001c6	88 4d ee	 mov	 BYTE PTR __k$[ebp+10], cl
  001c9	eb 37		 jmp	 SHORT $LN1@LoadInt_e@2
$LN87@LoadInt_e@2:
  001cb	88 5d ed	 mov	 BYTE PTR __k$[ebp+9], bl
  001ce	eb 32		 jmp	 SHORT $LN1@LoadInt_e@2
$LN88@LoadInt_e@2:
  001d0	c6 45 ec ed	 mov	 BYTE PTR __k$[ebp+8], -19 ; ffffffedH
  001d4	eb 2c		 jmp	 SHORT $LN1@LoadInt_e@2
$LN89@LoadInt_e@2:
  001d6	c6 45 eb ea	 mov	 BYTE PTR __k$[ebp+7], -22 ; ffffffeaH
  001da	eb 26		 jmp	 SHORT $LN1@LoadInt_e@2
$LN90@LoadInt_e@2:
  001dc	88 4d ea	 mov	 BYTE PTR __k$[ebp+6], cl
  001df	eb 21		 jmp	 SHORT $LN1@LoadInt_e@2
$LN91@LoadInt_e@2:
  001e1	88 5d e9	 mov	 BYTE PTR __k$[ebp+5], bl
  001e4	eb 1c		 jmp	 SHORT $LN1@LoadInt_e@2
$LN92@LoadInt_e@2:
  001e6	c6 45 e8 ed	 mov	 BYTE PTR __k$[ebp+4], -19 ; ffffffedH
  001ea	eb 16		 jmp	 SHORT $LN1@LoadInt_e@2
$LN93@LoadInt_e@2:
  001ec	c6 45 e7 ea	 mov	 BYTE PTR __k$[ebp+3], -22 ; ffffffeaH
  001f0	eb 10		 jmp	 SHORT $LN1@LoadInt_e@2
$LN94@LoadInt_e@2:
  001f2	c6 45 e6 eb	 mov	 BYTE PTR __k$[ebp+2], -21 ; ffffffebH
  001f6	eb 0a		 jmp	 SHORT $LN1@LoadInt_e@2
$LN95@LoadInt_e@2:
  001f8	c6 45 e5 ec	 mov	 BYTE PTR __k$[ebp+1], -20 ; ffffffecH
  001fc	eb 04		 jmp	 SHORT $LN1@LoadInt_e@2
$LN96@LoadInt_e@2:
  001fe	c6 45 e4 ed	 mov	 BYTE PTR __k$[ebp], -19	; ffffffedH
$LN1@LoadInt_e@2:
  00202	6a 04		 push	 4
  00204	8d 45 e4	 lea	 eax, DWORD PTR __k$[ebp]
  00207	c6 45 f7 00	 mov	 BYTE PTR __k$[ebp+19], 0
  0020b	5a		 pop	 edx
$LL104@LoadInt_e@2:
  0020c	81 30 ed ec eb
	ea		 xor	 DWORD PTR [eax], -353637139 ; eaebecedH
  00212	83 c0 04	 add	 eax, 4
  00215	4a		 dec	 edx
  00216	75 f4		 jne	 SHORT $LL104@LoadInt_e@2
  00218	6a 10		 push	 16			; 00000010H
  0021a	58		 pop	 eax
$LL101@LoadInt_e@2:
  0021b	8b c8		 mov	 ecx, eax
  0021d	81 e1 03 00 00
	80		 and	 ecx, -2147483645	; 80000003H
  00223	79 05		 jns	 SHORT $LN111@LoadInt_e@2
  00225	49		 dec	 ecx
  00226	83 c9 fc	 or	 ecx, -4			; fffffffcH
  00229	41		 inc	 ecx
$LN111@LoadInt_e@2:
  0022a	b2 ed		 mov	 dl, -19			; ffffffedH
  0022c	2a d1		 sub	 dl, cl
  0022e	30 54 05 e4	 xor	 BYTE PTR __k$[ebp+eax], dl
  00232	40		 inc	 eax
  00233	83 f8 13	 cmp	 eax, 19			; 00000013H
  00236	7c e3		 jl	 SHORT $LL101@LoadInt_e@2

; 120  : 		return LoadInt(_k, i);

  00238	ff 75 0c	 push	 DWORD PTR _i$[ebp]
  0023b	8d 45 e4	 lea	 eax, DWORD PTR __k$[ebp]
  0023e	50		 push	 eax
  0023f	8b ce		 mov	 ecx, esi
  00241	ff 15 00 00 00
	00		 call	 DWORD PTR __imp_?LoadInt@ioINILoader@@QAEHPBDH@Z

; 121  : 	}

  00247	8b 4d fc	 mov	 ecx, DWORD PTR __$ArrayPad$[ebp]
  0024a	5e		 pop	 esi
  0024b	33 cd		 xor	 ecx, ebp
  0024d	5b		 pop	 ebx
  0024e	e8 00 00 00 00	 call	 @__security_check_cookie@4
  00253	c9		 leave
  00254	c2 08 00	 ret	 8
??$LoadInt_e@$0BE@@ioINILoader@@QAEHAAY0BE@$$CBDH@Z ENDP ; ioINILoader::LoadInt_e<20>
_TEXT	ENDS
PUBLIC	_this$GSCopy$
PUBLIC	__$ArrayPad$
PUBLIC	??$LoadString_e@$0BB@@ioINILoader@@QAEXAAY0BB@$$CBDAAY00$$CBDPADH@Z ; ioINILoader::LoadString_e<17>
; Function compile flags: /Ogsp
;	COMDAT ??$LoadString_e@$0BB@@ioINILoader@@QAEXAAY0BB@$$CBDAAY00$$CBDPADH@Z
_TEXT	SEGMENT
_this$GSCopy$ = -32					; size = 4
__k$ = -28						; size = 17
__$ArrayPad$ = -4					; size = 4
_k$ = 8							; size = 4
_d$ = 12						; size = 4
_b$ = 16						; size = 4
_i$ = 20						; size = 4
??$LoadString_e@$0BB@@ioINILoader@@QAEXAAY0BB@$$CBDAAY00$$CBDPADH@Z PROC ; ioINILoader::LoadString_e<17>, COMDAT
; _this$ = ecx

; 161  : 	{

  00000	55		 push	 ebp
  00001	8b ec		 mov	 ebp, esp
  00003	83 ec 20	 sub	 esp, 32			; 00000020H
  00006	a1 00 00 00 00	 mov	 eax, DWORD PTR ___security_cookie
  0000b	33 c5		 xor	 eax, ebp
  0000d	89 45 fc	 mov	 DWORD PTR __$ArrayPad$[ebp], eax
  00010	8b 45 08	 mov	 eax, DWORD PTR _k$[ebp]

; 162  : 		_ENCSTR(k, _k);

  00013	8a 10		 mov	 dl, BYTE PTR [eax]
  00015	56		 push	 esi
  00016	8b 75 0c	 mov	 esi, DWORD PTR _d$[ebp]
  00019	57		 push	 edi
  0001a	8b 7d 10	 mov	 edi, DWORD PTR _b$[ebp]
  0001d	89 4d e0	 mov	 DWORD PTR _this$GSCopy$[ebp], ecx
  00020	84 d2		 test	 dl, dl
  00022	0f 84 a7 01 00
	00		 je	 $LN96@LoadString@5
  00028	80 f2 ed	 xor	 dl, -19			; ffffffedH
  0002b	88 55 e4	 mov	 BYTE PTR __k$[ebp], dl
  0002e	8a 50 01	 mov	 dl, BYTE PTR [eax+1]
  00031	84 d2		 test	 dl, dl
  00033	0f 84 90 01 00
	00		 je	 $LN95@LoadString@5
  00039	b1 ec		 mov	 cl, -20			; ffffffecH
  0003b	32 d1		 xor	 dl, cl
  0003d	88 55 e5	 mov	 BYTE PTR __k$[ebp+1], dl
  00040	8a 50 02	 mov	 dl, BYTE PTR [eax+2]
  00043	84 d2		 test	 dl, dl
  00045	0f 84 78 01 00
	00		 je	 $LN94@LoadString@5
  0004b	80 f2 eb	 xor	 dl, -21			; ffffffebH
  0004e	88 55 e6	 mov	 BYTE PTR __k$[ebp+2], dl
  00051	8a 50 03	 mov	 dl, BYTE PTR [eax+3]
  00054	84 d2		 test	 dl, dl
  00056	0f 84 61 01 00
	00		 je	 $LN93@LoadString@5
  0005c	80 f2 ea	 xor	 dl, -22			; ffffffeaH
  0005f	88 55 e7	 mov	 BYTE PTR __k$[ebp+3], dl
  00062	8a 50 04	 mov	 dl, BYTE PTR [eax+4]
  00065	84 d2		 test	 dl, dl
  00067	0f 84 4a 01 00
	00		 je	 $LN92@LoadString@5
  0006d	80 f2 ed	 xor	 dl, -19			; ffffffedH
  00070	88 55 e8	 mov	 BYTE PTR __k$[ebp+4], dl
  00073	8a 50 05	 mov	 dl, BYTE PTR [eax+5]
  00076	84 d2		 test	 dl, dl
  00078	0f 84 34 01 00
	00		 je	 $LN91@LoadString@5
  0007e	32 d1		 xor	 dl, cl
  00080	88 55 e9	 mov	 BYTE PTR __k$[ebp+5], dl
  00083	8a 50 06	 mov	 dl, BYTE PTR [eax+6]
  00086	84 d2		 test	 dl, dl
  00088	0f 84 1e 01 00
	00		 je	 $LN90@LoadString@5
  0008e	80 f2 eb	 xor	 dl, -21			; ffffffebH
  00091	88 55 ea	 mov	 BYTE PTR __k$[ebp+6], dl
  00094	8a 50 07	 mov	 dl, BYTE PTR [eax+7]
  00097	84 d2		 test	 dl, dl
  00099	0f 84 07 01 00
	00		 je	 $LN89@LoadString@5
  0009f	80 f2 ea	 xor	 dl, -22			; ffffffeaH
  000a2	88 55 eb	 mov	 BYTE PTR __k$[ebp+7], dl
  000a5	8a 50 08	 mov	 dl, BYTE PTR [eax+8]
  000a8	84 d2		 test	 dl, dl
  000aa	0f 84 f0 00 00
	00		 je	 $LN88@LoadString@5
  000b0	80 f2 ed	 xor	 dl, -19			; ffffffedH
  000b3	88 55 ec	 mov	 BYTE PTR __k$[ebp+8], dl
  000b6	8a 50 09	 mov	 dl, BYTE PTR [eax+9]
  000b9	84 d2		 test	 dl, dl
  000bb	0f 84 da 00 00
	00		 je	 $LN87@LoadString@5
  000c1	32 d1		 xor	 dl, cl
  000c3	88 55 ed	 mov	 BYTE PTR __k$[ebp+9], dl
  000c6	8a 50 0a	 mov	 dl, BYTE PTR [eax+10]
  000c9	84 d2		 test	 dl, dl
  000cb	0f 84 c4 00 00
	00		 je	 $LN86@LoadString@5
  000d1	80 f2 eb	 xor	 dl, -21			; ffffffebH
  000d4	88 55 ee	 mov	 BYTE PTR __k$[ebp+10], dl
  000d7	8a 50 0b	 mov	 dl, BYTE PTR [eax+11]
  000da	84 d2		 test	 dl, dl
  000dc	0f 84 ad 00 00
	00		 je	 $LN85@LoadString@5
  000e2	80 f2 ea	 xor	 dl, -22			; ffffffeaH
  000e5	88 55 ef	 mov	 BYTE PTR __k$[ebp+11], dl
  000e8	8a 50 0c	 mov	 dl, BYTE PTR [eax+12]
  000eb	84 d2		 test	 dl, dl
  000ed	0f 84 96 00 00
	00		 je	 $LN84@LoadString@5
  000f3	80 f2 ed	 xor	 dl, -19			; ffffffedH
  000f6	88 55 f0	 mov	 BYTE PTR __k$[ebp+12], dl
  000f9	8a 50 0d	 mov	 dl, BYTE PTR [eax+13]
  000fc	84 d2		 test	 dl, dl
  000fe	0f 84 80 00 00
	00		 je	 $LN83@LoadString@5
  00104	32 d1		 xor	 dl, cl
  00106	88 55 f1	 mov	 BYTE PTR __k$[ebp+13], dl
  00109	8a 50 0e	 mov	 dl, BYTE PTR [eax+14]
  0010c	84 d2		 test	 dl, dl
  0010e	74 6e		 je	 SHORT $LN82@LoadString@5
  00110	80 f2 eb	 xor	 dl, -21			; ffffffebH
  00113	88 55 f2	 mov	 BYTE PTR __k$[ebp+14], dl
  00116	8a 50 0f	 mov	 dl, BYTE PTR [eax+15]
  00119	84 d2		 test	 dl, dl
  0011b	74 5b		 je	 SHORT $LN81@LoadString@5
  0011d	80 f2 ea	 xor	 dl, -22			; ffffffeaH
  00120	80 78 10 00	 cmp	 BYTE PTR [eax+16], 0
  00124	88 55 f3	 mov	 BYTE PTR __k$[ebp+15], dl
  00127	0f 84 a6 00 00
	00		 je	 $LN111@LoadString@5
  0012d	8a 50 11	 mov	 dl, BYTE PTR [eax+17]
  00130	84 d2		 test	 dl, dl
  00132	74 3f		 je	 SHORT $LN79@LoadString@5
  00134	32 d1		 xor	 dl, cl
  00136	88 55 f5	 mov	 BYTE PTR __k$[ebp+17], dl
  00139	8a 50 12	 mov	 dl, BYTE PTR [eax+18]
  0013c	84 d2		 test	 dl, dl
  0013e	74 2d		 je	 SHORT $LN78@LoadString@5
  00140	80 f2 eb	 xor	 dl, -21			; ffffffebH
  00143	88 55 f6	 mov	 BYTE PTR __k$[ebp+18], dl
  00146	8a 50 13	 mov	 dl, BYTE PTR [eax+19]
  00149	84 d2		 test	 dl, dl
  0014b	74 1a		 je	 SHORT $LN77@LoadString@5
  0014d	8a 40 14	 mov	 al, BYTE PTR [eax+20]
  00150	80 f2 ea	 xor	 dl, -22			; ffffffeaH
  00153	88 55 f7	 mov	 BYTE PTR __k$[ebp+19], dl
  00156	84 c0		 test	 al, al
  00158	74 07		 je	 SHORT $LN76@LoadString@5
  0015a	34 ed		 xor	 al, -19			; ffffffedH
  0015c	88 45 f8	 mov	 BYTE PTR __k$[ebp+20], al
  0015f	eb 72		 jmp	 SHORT $LN111@LoadString@5
$LN76@LoadString@5:
  00161	c6 45 f8 ed	 mov	 BYTE PTR __k$[ebp+20], -19 ; ffffffedH
  00165	eb 6c		 jmp	 SHORT $LN111@LoadString@5
$LN77@LoadString@5:
  00167	c6 45 f7 ea	 mov	 BYTE PTR __k$[ebp+19], -22 ; ffffffeaH
  0016b	eb 66		 jmp	 SHORT $LN111@LoadString@5
$LN78@LoadString@5:
  0016d	c6 45 f6 eb	 mov	 BYTE PTR __k$[ebp+18], -21 ; ffffffebH
  00171	eb 60		 jmp	 SHORT $LN111@LoadString@5
$LN79@LoadString@5:
  00173	88 4d f5	 mov	 BYTE PTR __k$[ebp+17], cl
  00176	eb 5b		 jmp	 SHORT $LN111@LoadString@5
$LN81@LoadString@5:
  00178	c6 45 f3 ea	 mov	 BYTE PTR __k$[ebp+15], -22 ; ffffffeaH
  0017c	eb 55		 jmp	 SHORT $LN111@LoadString@5
$LN82@LoadString@5:
  0017e	c6 45 f2 eb	 mov	 BYTE PTR __k$[ebp+14], -21 ; ffffffebH
  00182	eb 4f		 jmp	 SHORT $LN111@LoadString@5
$LN83@LoadString@5:
  00184	88 4d f1	 mov	 BYTE PTR __k$[ebp+13], cl
  00187	eb 4a		 jmp	 SHORT $LN111@LoadString@5
$LN84@LoadString@5:
  00189	c6 45 f0 ed	 mov	 BYTE PTR __k$[ebp+12], -19 ; ffffffedH
  0018d	eb 44		 jmp	 SHORT $LN111@LoadString@5
$LN85@LoadString@5:
  0018f	c6 45 ef ea	 mov	 BYTE PTR __k$[ebp+11], -22 ; ffffffeaH
  00193	eb 3e		 jmp	 SHORT $LN111@LoadString@5
$LN86@LoadString@5:
  00195	c6 45 ee eb	 mov	 BYTE PTR __k$[ebp+10], -21 ; ffffffebH
  00199	eb 38		 jmp	 SHORT $LN111@LoadString@5
$LN87@LoadString@5:
  0019b	88 4d ed	 mov	 BYTE PTR __k$[ebp+9], cl
  0019e	eb 33		 jmp	 SHORT $LN111@LoadString@5
$LN88@LoadString@5:
  001a0	c6 45 ec ed	 mov	 BYTE PTR __k$[ebp+8], -19 ; ffffffedH
  001a4	eb 2d		 jmp	 SHORT $LN111@LoadString@5
$LN89@LoadString@5:
  001a6	c6 45 eb ea	 mov	 BYTE PTR __k$[ebp+7], -22 ; ffffffeaH
  001aa	eb 27		 jmp	 SHORT $LN111@LoadString@5
$LN90@LoadString@5:
  001ac	c6 45 ea eb	 mov	 BYTE PTR __k$[ebp+6], -21 ; ffffffebH
  001b0	eb 21		 jmp	 SHORT $LN111@LoadString@5
$LN91@LoadString@5:
  001b2	88 4d e9	 mov	 BYTE PTR __k$[ebp+5], cl
  001b5	eb 1c		 jmp	 SHORT $LN111@LoadString@5
$LN92@LoadString@5:
  001b7	c6 45 e8 ed	 mov	 BYTE PTR __k$[ebp+4], -19 ; ffffffedH
  001bb	eb 16		 jmp	 SHORT $LN111@LoadString@5
$LN93@LoadString@5:
  001bd	c6 45 e7 ea	 mov	 BYTE PTR __k$[ebp+3], -22 ; ffffffeaH
  001c1	eb 10		 jmp	 SHORT $LN111@LoadString@5
$LN94@LoadString@5:
  001c3	c6 45 e6 eb	 mov	 BYTE PTR __k$[ebp+2], -21 ; ffffffebH
  001c7	eb 0a		 jmp	 SHORT $LN111@LoadString@5
$LN95@LoadString@5:
  001c9	c6 45 e5 ec	 mov	 BYTE PTR __k$[ebp+1], -20 ; ffffffecH
  001cd	eb 04		 jmp	 SHORT $LN111@LoadString@5
$LN96@LoadString@5:
  001cf	c6 45 e4 ed	 mov	 BYTE PTR __k$[ebp], -19	; ffffffedH
$LN111@LoadString@5:
  001d3	6a 04		 push	 4
  001d5	8d 45 e4	 lea	 eax, DWORD PTR __k$[ebp]
  001d8	c6 45 f4 00	 mov	 BYTE PTR __k$[ebp+16], 0
  001dc	5a		 pop	 edx
$LL104@LoadString@5:
  001dd	81 30 ed ec eb
	ea		 xor	 DWORD PTR [eax], -353637139 ; eaebecedH
  001e3	83 c0 04	 add	 eax, 4
  001e6	4a		 dec	 edx
  001e7	75 f4		 jne	 SHORT $LL104@LoadString@5

; 163  : 		LoadString(_k, d, b, i);

  001e9	ff 75 14	 push	 DWORD PTR _i$[ebp]
  001ec	8b 4d e0	 mov	 ecx, DWORD PTR _this$GSCopy$[ebp]
  001ef	57		 push	 edi
  001f0	56		 push	 esi
  001f1	8d 45 e4	 lea	 eax, DWORD PTR __k$[ebp]
  001f4	50		 push	 eax
  001f5	ff 15 00 00 00
	00		 call	 DWORD PTR __imp_?LoadStringA@ioINILoader@@QAEXPBD0PADH@Z

; 164  : 	}

  001fb	8b 4d fc	 mov	 ecx, DWORD PTR __$ArrayPad$[ebp]
  001fe	5f		 pop	 edi
  001ff	33 cd		 xor	 ecx, ebp
  00201	5e		 pop	 esi
  00202	e8 00 00 00 00	 call	 @__security_check_cookie@4
  00207	c9		 leave
  00208	c2 10 00	 ret	 16			; 00000010H
??$LoadString_e@$0BB@@ioINILoader@@QAEXAAY0BB@$$CBDAAY00$$CBDPADH@Z ENDP ; ioINILoader::LoadString_e<17>
_TEXT	ENDS
PUBLIC	_this$GSCopy$
PUBLIC	__$ArrayPad$
PUBLIC	??$LoadString_e@$0N@@ioINILoader@@QAEXAAY0N@$$CBDAAY00$$CBDPADH@Z ; ioINILoader::LoadString_e<13>
; Function compile flags: /Ogsp
;	COMDAT ??$LoadString_e@$0N@@ioINILoader@@QAEXAAY0N@$$CBDAAY00$$CBDPADH@Z
_TEXT	SEGMENT
_this$GSCopy$ = -28					; size = 4
__k$ = -24						; size = 13
__$ArrayPad$ = -4					; size = 4
_k$ = 8							; size = 4
_d$ = 12						; size = 4
_b$ = 16						; size = 4
_i$ = 20						; size = 4
??$LoadString_e@$0N@@ioINILoader@@QAEXAAY0N@$$CBDAAY00$$CBDPADH@Z PROC ; ioINILoader::LoadString_e<13>, COMDAT
; _this$ = ecx

; 161  : 	{

  00000	55		 push	 ebp
  00001	8b ec		 mov	 ebp, esp
  00003	83 ec 1c	 sub	 esp, 28			; 0000001cH
  00006	a1 00 00 00 00	 mov	 eax, DWORD PTR ___security_cookie
  0000b	33 c5		 xor	 eax, ebp
  0000d	89 45 fc	 mov	 DWORD PTR __$ArrayPad$[ebp], eax
  00010	8b 45 08	 mov	 eax, DWORD PTR _k$[ebp]

; 162  : 		_ENCSTR(k, _k);

  00013	8a 10		 mov	 dl, BYTE PTR [eax]
  00015	56		 push	 esi
  00016	8b 75 0c	 mov	 esi, DWORD PTR _d$[ebp]
  00019	57		 push	 edi
  0001a	8b 7d 10	 mov	 edi, DWORD PTR _b$[ebp]
  0001d	89 4d e4	 mov	 DWORD PTR _this$GSCopy$[ebp], ecx
  00020	84 d2		 test	 dl, dl
  00022	0f 84 4d 01 00
	00		 je	 $LN96@LoadString@6
  00028	80 f2 ed	 xor	 dl, -19			; ffffffedH
  0002b	88 55 e8	 mov	 BYTE PTR __k$[ebp], dl
  0002e	8a 50 01	 mov	 dl, BYTE PTR [eax+1]
  00031	84 d2		 test	 dl, dl
  00033	0f 84 36 01 00
	00		 je	 $LN95@LoadString@6
  00039	b1 ec		 mov	 cl, -20			; ffffffecH
  0003b	32 d1		 xor	 dl, cl
  0003d	88 55 e9	 mov	 BYTE PTR __k$[ebp+1], dl
  00040	8a 50 02	 mov	 dl, BYTE PTR [eax+2]
  00043	84 d2		 test	 dl, dl
  00045	0f 84 1e 01 00
	00		 je	 $LN94@LoadString@6
  0004b	80 f2 eb	 xor	 dl, -21			; ffffffebH
  0004e	88 55 ea	 mov	 BYTE PTR __k$[ebp+2], dl
  00051	8a 50 03	 mov	 dl, BYTE PTR [eax+3]
  00054	84 d2		 test	 dl, dl
  00056	0f 84 07 01 00
	00		 je	 $LN93@LoadString@6
  0005c	80 f2 ea	 xor	 dl, -22			; ffffffeaH
  0005f	88 55 eb	 mov	 BYTE PTR __k$[ebp+3], dl
  00062	8a 50 04	 mov	 dl, BYTE PTR [eax+4]
  00065	84 d2		 test	 dl, dl
  00067	0f 84 f0 00 00
	00		 je	 $LN92@LoadString@6
  0006d	80 f2 ed	 xor	 dl, -19			; ffffffedH
  00070	88 55 ec	 mov	 BYTE PTR __k$[ebp+4], dl
  00073	8a 50 05	 mov	 dl, BYTE PTR [eax+5]
  00076	84 d2		 test	 dl, dl
  00078	0f 84 da 00 00
	00		 je	 $LN91@LoadString@6
  0007e	32 d1		 xor	 dl, cl
  00080	88 55 ed	 mov	 BYTE PTR __k$[ebp+5], dl
  00083	8a 50 06	 mov	 dl, BYTE PTR [eax+6]
  00086	84 d2		 test	 dl, dl
  00088	0f 84 c4 00 00
	00		 je	 $LN90@LoadString@6
  0008e	80 f2 eb	 xor	 dl, -21			; ffffffebH
  00091	88 55 ee	 mov	 BYTE PTR __k$[ebp+6], dl
  00094	8a 50 07	 mov	 dl, BYTE PTR [eax+7]
  00097	84 d2		 test	 dl, dl
  00099	0f 84 ad 00 00
	00		 je	 $LN89@LoadString@6
  0009f	80 f2 ea	 xor	 dl, -22			; ffffffeaH
  000a2	88 55 ef	 mov	 BYTE PTR __k$[ebp+7], dl
  000a5	8a 50 08	 mov	 dl, BYTE PTR [eax+8]
  000a8	84 d2		 test	 dl, dl
  000aa	0f 84 96 00 00
	00		 je	 $LN88@LoadString@6
  000b0	80 f2 ed	 xor	 dl, -19			; ffffffedH
  000b3	88 55 f0	 mov	 BYTE PTR __k$[ebp+8], dl
  000b6	8a 50 09	 mov	 dl, BYTE PTR [eax+9]
  000b9	84 d2		 test	 dl, dl
  000bb	0f 84 80 00 00
	00		 je	 $LN87@LoadString@6
  000c1	32 d1		 xor	 dl, cl
  000c3	88 55 f1	 mov	 BYTE PTR __k$[ebp+9], dl
  000c6	8a 50 0a	 mov	 dl, BYTE PTR [eax+10]
  000c9	84 d2		 test	 dl, dl
  000cb	74 6e		 je	 SHORT $LN86@LoadString@6
  000cd	80 f2 eb	 xor	 dl, -21			; ffffffebH
  000d0	88 55 f2	 mov	 BYTE PTR __k$[ebp+10], dl
  000d3	8a 50 0b	 mov	 dl, BYTE PTR [eax+11]
  000d6	84 d2		 test	 dl, dl
  000d8	74 5b		 je	 SHORT $LN85@LoadString@6
  000da	80 f2 ea	 xor	 dl, -22			; ffffffeaH
  000dd	80 78 0c 00	 cmp	 BYTE PTR [eax+12], 0
  000e1	88 55 f3	 mov	 BYTE PTR __k$[ebp+11], dl
  000e4	0f 84 8f 00 00
	00		 je	 $LN111@LoadString@6
  000ea	8a 50 0d	 mov	 dl, BYTE PTR [eax+13]
  000ed	84 d2		 test	 dl, dl
  000ef	74 3f		 je	 SHORT $LN83@LoadString@6
  000f1	32 d1		 xor	 dl, cl
  000f3	88 55 f5	 mov	 BYTE PTR __k$[ebp+13], dl
  000f6	8a 50 0e	 mov	 dl, BYTE PTR [eax+14]
  000f9	84 d2		 test	 dl, dl
  000fb	74 2d		 je	 SHORT $LN82@LoadString@6
  000fd	80 f2 eb	 xor	 dl, -21			; ffffffebH
  00100	88 55 f6	 mov	 BYTE PTR __k$[ebp+14], dl
  00103	8a 50 0f	 mov	 dl, BYTE PTR [eax+15]
  00106	84 d2		 test	 dl, dl
  00108	74 1a		 je	 SHORT $LN81@LoadString@6
  0010a	8a 40 10	 mov	 al, BYTE PTR [eax+16]
  0010d	80 f2 ea	 xor	 dl, -22			; ffffffeaH
  00110	88 55 f7	 mov	 BYTE PTR __k$[ebp+15], dl
  00113	84 c0		 test	 al, al
  00115	74 07		 je	 SHORT $LN80@LoadString@6
  00117	34 ed		 xor	 al, -19			; ffffffedH
  00119	88 45 f8	 mov	 BYTE PTR __k$[ebp+16], al
  0011c	eb 5b		 jmp	 SHORT $LN111@LoadString@6
$LN80@LoadString@6:
  0011e	c6 45 f8 ed	 mov	 BYTE PTR __k$[ebp+16], -19 ; ffffffedH
  00122	eb 55		 jmp	 SHORT $LN111@LoadString@6
$LN81@LoadString@6:
  00124	c6 45 f7 ea	 mov	 BYTE PTR __k$[ebp+15], -22 ; ffffffeaH
  00128	eb 4f		 jmp	 SHORT $LN111@LoadString@6
$LN82@LoadString@6:
  0012a	c6 45 f6 eb	 mov	 BYTE PTR __k$[ebp+14], -21 ; ffffffebH
  0012e	eb 49		 jmp	 SHORT $LN111@LoadString@6
$LN83@LoadString@6:
  00130	88 4d f5	 mov	 BYTE PTR __k$[ebp+13], cl
  00133	eb 44		 jmp	 SHORT $LN111@LoadString@6
$LN85@LoadString@6:
  00135	c6 45 f3 ea	 mov	 BYTE PTR __k$[ebp+11], -22 ; ffffffeaH
  00139	eb 3e		 jmp	 SHORT $LN111@LoadString@6
$LN86@LoadString@6:
  0013b	c6 45 f2 eb	 mov	 BYTE PTR __k$[ebp+10], -21 ; ffffffebH
  0013f	eb 38		 jmp	 SHORT $LN111@LoadString@6
$LN87@LoadString@6:
  00141	88 4d f1	 mov	 BYTE PTR __k$[ebp+9], cl
  00144	eb 33		 jmp	 SHORT $LN111@LoadString@6
$LN88@LoadString@6:
  00146	c6 45 f0 ed	 mov	 BYTE PTR __k$[ebp+8], -19 ; ffffffedH
  0014a	eb 2d		 jmp	 SHORT $LN111@LoadString@6
$LN89@LoadString@6:
  0014c	c6 45 ef ea	 mov	 BYTE PTR __k$[ebp+7], -22 ; ffffffeaH
  00150	eb 27		 jmp	 SHORT $LN111@LoadString@6
$LN90@LoadString@6:
  00152	c6 45 ee eb	 mov	 BYTE PTR __k$[ebp+6], -21 ; ffffffebH
  00156	eb 21		 jmp	 SHORT $LN111@LoadString@6
$LN91@LoadString@6:
  00158	88 4d ed	 mov	 BYTE PTR __k$[ebp+5], cl
  0015b	eb 1c		 jmp	 SHORT $LN111@LoadString@6
$LN92@LoadString@6:
  0015d	c6 45 ec ed	 mov	 BYTE PTR __k$[ebp+4], -19 ; ffffffedH
  00161	eb 16		 jmp	 SHORT $LN111@LoadString@6
$LN93@LoadString@6:
  00163	c6 45 eb ea	 mov	 BYTE PTR __k$[ebp+3], -22 ; ffffffeaH
  00167	eb 10		 jmp	 SHORT $LN111@LoadString@6
$LN94@LoadString@6:
  00169	c6 45 ea eb	 mov	 BYTE PTR __k$[ebp+2], -21 ; ffffffebH
  0016d	eb 0a		 jmp	 SHORT $LN111@LoadString@6
$LN95@LoadString@6:
  0016f	c6 45 e9 ec	 mov	 BYTE PTR __k$[ebp+1], -20 ; ffffffecH
  00173	eb 04		 jmp	 SHORT $LN111@LoadString@6
$LN96@LoadString@6:
  00175	c6 45 e8 ed	 mov	 BYTE PTR __k$[ebp], -19	; ffffffedH
$LN111@LoadString@6:
  00179	6a 03		 push	 3
  0017b	8d 45 e8	 lea	 eax, DWORD PTR __k$[ebp]
  0017e	c6 45 f4 00	 mov	 BYTE PTR __k$[ebp+12], 0
  00182	5a		 pop	 edx
$LL104@LoadString@6:
  00183	81 30 ed ec eb
	ea		 xor	 DWORD PTR [eax], -353637139 ; eaebecedH
  00189	83 c0 04	 add	 eax, 4
  0018c	4a		 dec	 edx
  0018d	75 f4		 jne	 SHORT $LL104@LoadString@6

; 163  : 		LoadString(_k, d, b, i);

  0018f	ff 75 14	 push	 DWORD PTR _i$[ebp]
  00192	8b 4d e4	 mov	 ecx, DWORD PTR _this$GSCopy$[ebp]
  00195	57		 push	 edi
  00196	56		 push	 esi
  00197	8d 45 e8	 lea	 eax, DWORD PTR __k$[ebp]
  0019a	50		 push	 eax
  0019b	ff 15 00 00 00
	00		 call	 DWORD PTR __imp_?LoadStringA@ioINILoader@@QAEXPBD0PADH@Z

; 164  : 	}

  001a1	8b 4d fc	 mov	 ecx, DWORD PTR __$ArrayPad$[ebp]
  001a4	5f		 pop	 edi
  001a5	33 cd		 xor	 ecx, ebp
  001a7	5e		 pop	 esi
  001a8	e8 00 00 00 00	 call	 @__security_check_cookie@4
  001ad	c9		 leave
  001ae	c2 10 00	 ret	 16			; 00000010H
??$LoadString_e@$0N@@ioINILoader@@QAEXAAY0N@$$CBDAAY00$$CBDPADH@Z ENDP ; ioINILoader::LoadString_e<13>
_TEXT	ENDS
PUBLIC	__$ArrayPad$
PUBLIC	??$LoadFloat_e@$0BE@@ioINILoader@@QAEMAAY0BE@$$CBDM@Z ; ioINILoader::LoadFloat_e<20>
; Function compile flags: /Ogsp
;	COMDAT ??$LoadFloat_e@$0BE@@ioINILoader@@QAEMAAY0BE@$$CBDM@Z
_TEXT	SEGMENT
__k$ = -28						; size = 20
__$ArrayPad$ = -4					; size = 4
_k$ = 8							; size = 4
_f$ = 12						; size = 4
??$LoadFloat_e@$0BE@@ioINILoader@@QAEMAAY0BE@$$CBDM@Z PROC ; ioINILoader::LoadFloat_e<20>, COMDAT
; _this$ = ecx

; 135  : 	{

  00000	55		 push	 ebp
  00001	8b ec		 mov	 ebp, esp
  00003	83 ec 1c	 sub	 esp, 28			; 0000001cH
  00006	a1 00 00 00 00	 mov	 eax, DWORD PTR ___security_cookie
  0000b	33 c5		 xor	 eax, ebp
  0000d	89 45 fc	 mov	 DWORD PTR __$ArrayPad$[ebp], eax
  00010	8b 45 08	 mov	 eax, DWORD PTR _k$[ebp]

; 136  : 		_ENCSTR(k, _k);

  00013	8a 10		 mov	 dl, BYTE PTR [eax]
  00015	53		 push	 ebx
  00016	56		 push	 esi
  00017	8b f1		 mov	 esi, ecx
  00019	84 d2		 test	 dl, dl
  0001b	0f 84 dd 01 00
	00		 je	 $LN96@LoadFloat_@9
  00021	80 f2 ed	 xor	 dl, -19			; ffffffedH
  00024	88 55 e4	 mov	 BYTE PTR __k$[ebp], dl
  00027	8a 50 01	 mov	 dl, BYTE PTR [eax+1]
  0002a	84 d2		 test	 dl, dl
  0002c	0f 84 c6 01 00
	00		 je	 $LN95@LoadFloat_@9
  00032	b3 ec		 mov	 bl, -20			; ffffffecH
  00034	32 d3		 xor	 dl, bl
  00036	88 55 e5	 mov	 BYTE PTR __k$[ebp+1], dl
  00039	8a 50 02	 mov	 dl, BYTE PTR [eax+2]
  0003c	84 d2		 test	 dl, dl
  0003e	0f 84 ae 01 00
	00		 je	 $LN94@LoadFloat_@9
  00044	b1 eb		 mov	 cl, -21			; ffffffebH
  00046	32 d1		 xor	 dl, cl
  00048	88 55 e6	 mov	 BYTE PTR __k$[ebp+2], dl
  0004b	8a 50 03	 mov	 dl, BYTE PTR [eax+3]
  0004e	84 d2		 test	 dl, dl
  00050	0f 84 96 01 00
	00		 je	 $LN93@LoadFloat_@9
  00056	80 f2 ea	 xor	 dl, -22			; ffffffeaH
  00059	88 55 e7	 mov	 BYTE PTR __k$[ebp+3], dl
  0005c	8a 50 04	 mov	 dl, BYTE PTR [eax+4]
  0005f	84 d2		 test	 dl, dl
  00061	0f 84 7f 01 00
	00		 je	 $LN92@LoadFloat_@9
  00067	80 f2 ed	 xor	 dl, -19			; ffffffedH
  0006a	88 55 e8	 mov	 BYTE PTR __k$[ebp+4], dl
  0006d	8a 50 05	 mov	 dl, BYTE PTR [eax+5]
  00070	84 d2		 test	 dl, dl
  00072	0f 84 69 01 00
	00		 je	 $LN91@LoadFloat_@9
  00078	32 d3		 xor	 dl, bl
  0007a	88 55 e9	 mov	 BYTE PTR __k$[ebp+5], dl
  0007d	8a 50 06	 mov	 dl, BYTE PTR [eax+6]
  00080	84 d2		 test	 dl, dl
  00082	0f 84 54 01 00
	00		 je	 $LN90@LoadFloat_@9
  00088	32 d1		 xor	 dl, cl
  0008a	88 55 ea	 mov	 BYTE PTR __k$[ebp+6], dl
  0008d	8a 50 07	 mov	 dl, BYTE PTR [eax+7]
  00090	84 d2		 test	 dl, dl
  00092	0f 84 3e 01 00
	00		 je	 $LN89@LoadFloat_@9
  00098	80 f2 ea	 xor	 dl, -22			; ffffffeaH
  0009b	88 55 eb	 mov	 BYTE PTR __k$[ebp+7], dl
  0009e	8a 50 08	 mov	 dl, BYTE PTR [eax+8]
  000a1	84 d2		 test	 dl, dl
  000a3	0f 84 27 01 00
	00		 je	 $LN88@LoadFloat_@9
  000a9	80 f2 ed	 xor	 dl, -19			; ffffffedH
  000ac	88 55 ec	 mov	 BYTE PTR __k$[ebp+8], dl
  000af	8a 50 09	 mov	 dl, BYTE PTR [eax+9]
  000b2	84 d2		 test	 dl, dl
  000b4	0f 84 11 01 00
	00		 je	 $LN87@LoadFloat_@9
  000ba	32 d3		 xor	 dl, bl
  000bc	88 55 ed	 mov	 BYTE PTR __k$[ebp+9], dl
  000bf	8a 50 0a	 mov	 dl, BYTE PTR [eax+10]
  000c2	84 d2		 test	 dl, dl
  000c4	0f 84 fc 00 00
	00		 je	 $LN86@LoadFloat_@9
  000ca	32 d1		 xor	 dl, cl
  000cc	88 55 ee	 mov	 BYTE PTR __k$[ebp+10], dl
  000cf	8a 50 0b	 mov	 dl, BYTE PTR [eax+11]
  000d2	84 d2		 test	 dl, dl
  000d4	0f 84 e6 00 00
	00		 je	 $LN85@LoadFloat_@9
  000da	80 f2 ea	 xor	 dl, -22			; ffffffeaH
  000dd	88 55 ef	 mov	 BYTE PTR __k$[ebp+11], dl
  000e0	8a 50 0c	 mov	 dl, BYTE PTR [eax+12]
  000e3	84 d2		 test	 dl, dl
  000e5	0f 84 cf 00 00
	00		 je	 $LN84@LoadFloat_@9
  000eb	80 f2 ed	 xor	 dl, -19			; ffffffedH
  000ee	88 55 f0	 mov	 BYTE PTR __k$[ebp+12], dl
  000f1	8a 50 0d	 mov	 dl, BYTE PTR [eax+13]
  000f4	84 d2		 test	 dl, dl
  000f6	0f 84 b9 00 00
	00		 je	 $LN83@LoadFloat_@9
  000fc	32 d3		 xor	 dl, bl
  000fe	88 55 f1	 mov	 BYTE PTR __k$[ebp+13], dl
  00101	8a 50 0e	 mov	 dl, BYTE PTR [eax+14]
  00104	84 d2		 test	 dl, dl
  00106	0f 84 a4 00 00
	00		 je	 $LN82@LoadFloat_@9
  0010c	32 d1		 xor	 dl, cl
  0010e	88 55 f2	 mov	 BYTE PTR __k$[ebp+14], dl
  00111	8a 50 0f	 mov	 dl, BYTE PTR [eax+15]
  00114	84 d2		 test	 dl, dl
  00116	0f 84 8e 00 00
	00		 je	 $LN81@LoadFloat_@9
  0011c	80 f2 ea	 xor	 dl, -22			; ffffffeaH
  0011f	88 55 f3	 mov	 BYTE PTR __k$[ebp+15], dl
  00122	8a 50 10	 mov	 dl, BYTE PTR [eax+16]
  00125	84 d2		 test	 dl, dl
  00127	74 7b		 je	 SHORT $LN80@LoadFloat_@9
  00129	80 f2 ed	 xor	 dl, -19			; ffffffedH
  0012c	88 55 f4	 mov	 BYTE PTR __k$[ebp+16], dl
  0012f	8a 50 11	 mov	 dl, BYTE PTR [eax+17]
  00132	84 d2		 test	 dl, dl
  00134	74 69		 je	 SHORT $LN79@LoadFloat_@9
  00136	32 d3		 xor	 dl, bl
  00138	88 55 f5	 mov	 BYTE PTR __k$[ebp+17], dl
  0013b	8a 50 12	 mov	 dl, BYTE PTR [eax+18]
  0013e	84 d2		 test	 dl, dl
  00140	74 58		 je	 SHORT $LN78@LoadFloat_@9
  00142	32 d1		 xor	 dl, cl
  00144	80 78 13 00	 cmp	 BYTE PTR [eax+19], 0
  00148	88 55 f6	 mov	 BYTE PTR __k$[ebp+18], dl
  0014b	0f 84 b1 00 00
	00		 je	 $LN1@LoadFloat_@9
  00151	8a 50 14	 mov	 dl, BYTE PTR [eax+20]
  00154	84 d2		 test	 dl, dl
  00156	74 3c		 je	 SHORT $LN76@LoadFloat_@9
  00158	80 f2 ed	 xor	 dl, -19			; ffffffedH
  0015b	88 55 f8	 mov	 BYTE PTR __k$[ebp+20], dl
  0015e	8a 50 15	 mov	 dl, BYTE PTR [eax+21]
  00161	84 d2		 test	 dl, dl
  00163	74 2a		 je	 SHORT $LN75@LoadFloat_@9
  00165	32 d3		 xor	 dl, bl
  00167	88 55 f9	 mov	 BYTE PTR __k$[ebp+21], dl
  0016a	8a 50 16	 mov	 dl, BYTE PTR [eax+22]
  0016d	84 d2		 test	 dl, dl
  0016f	74 19		 je	 SHORT $LN74@LoadFloat_@9
  00171	8a 40 17	 mov	 al, BYTE PTR [eax+23]
  00174	32 d1		 xor	 dl, cl
  00176	88 55 fa	 mov	 BYTE PTR __k$[ebp+22], dl
  00179	84 c0		 test	 al, al
  0017b	74 07		 je	 SHORT $LN73@LoadFloat_@9
  0017d	34 ea		 xor	 al, -22			; ffffffeaH
  0017f	88 45 fb	 mov	 BYTE PTR __k$[ebp+23], al
  00182	eb 7e		 jmp	 SHORT $LN1@LoadFloat_@9
$LN73@LoadFloat_@9:
  00184	c6 45 fb ea	 mov	 BYTE PTR __k$[ebp+23], -22 ; ffffffeaH
  00188	eb 78		 jmp	 SHORT $LN1@LoadFloat_@9
$LN74@LoadFloat_@9:
  0018a	88 4d fa	 mov	 BYTE PTR __k$[ebp+22], cl
  0018d	eb 73		 jmp	 SHORT $LN1@LoadFloat_@9
$LN75@LoadFloat_@9:
  0018f	88 5d f9	 mov	 BYTE PTR __k$[ebp+21], bl
  00192	eb 6e		 jmp	 SHORT $LN1@LoadFloat_@9
$LN76@LoadFloat_@9:
  00194	c6 45 f8 ed	 mov	 BYTE PTR __k$[ebp+20], -19 ; ffffffedH
  00198	eb 68		 jmp	 SHORT $LN1@LoadFloat_@9
$LN78@LoadFloat_@9:
  0019a	88 4d f6	 mov	 BYTE PTR __k$[ebp+18], cl
  0019d	eb 63		 jmp	 SHORT $LN1@LoadFloat_@9
$LN79@LoadFloat_@9:
  0019f	88 5d f5	 mov	 BYTE PTR __k$[ebp+17], bl
  001a2	eb 5e		 jmp	 SHORT $LN1@LoadFloat_@9
$LN80@LoadFloat_@9:
  001a4	c6 45 f4 ed	 mov	 BYTE PTR __k$[ebp+16], -19 ; ffffffedH
  001a8	eb 58		 jmp	 SHORT $LN1@LoadFloat_@9
$LN81@LoadFloat_@9:
  001aa	c6 45 f3 ea	 mov	 BYTE PTR __k$[ebp+15], -22 ; ffffffeaH
  001ae	eb 52		 jmp	 SHORT $LN1@LoadFloat_@9
$LN82@LoadFloat_@9:
  001b0	88 4d f2	 mov	 BYTE PTR __k$[ebp+14], cl
  001b3	eb 4d		 jmp	 SHORT $LN1@LoadFloat_@9
$LN83@LoadFloat_@9:
  001b5	88 5d f1	 mov	 BYTE PTR __k$[ebp+13], bl
  001b8	eb 48		 jmp	 SHORT $LN1@LoadFloat_@9
$LN84@LoadFloat_@9:
  001ba	c6 45 f0 ed	 mov	 BYTE PTR __k$[ebp+12], -19 ; ffffffedH
  001be	eb 42		 jmp	 SHORT $LN1@LoadFloat_@9
$LN85@LoadFloat_@9:
  001c0	c6 45 ef ea	 mov	 BYTE PTR __k$[ebp+11], -22 ; ffffffeaH
  001c4	eb 3c		 jmp	 SHORT $LN1@LoadFloat_@9
$LN86@LoadFloat_@9:
  001c6	88 4d ee	 mov	 BYTE PTR __k$[ebp+10], cl
  001c9	eb 37		 jmp	 SHORT $LN1@LoadFloat_@9
$LN87@LoadFloat_@9:
  001cb	88 5d ed	 mov	 BYTE PTR __k$[ebp+9], bl
  001ce	eb 32		 jmp	 SHORT $LN1@LoadFloat_@9
$LN88@LoadFloat_@9:
  001d0	c6 45 ec ed	 mov	 BYTE PTR __k$[ebp+8], -19 ; ffffffedH
  001d4	eb 2c		 jmp	 SHORT $LN1@LoadFloat_@9
$LN89@LoadFloat_@9:
  001d6	c6 45 eb ea	 mov	 BYTE PTR __k$[ebp+7], -22 ; ffffffeaH
  001da	eb 26		 jmp	 SHORT $LN1@LoadFloat_@9
$LN90@LoadFloat_@9:
  001dc	88 4d ea	 mov	 BYTE PTR __k$[ebp+6], cl
  001df	eb 21		 jmp	 SHORT $LN1@LoadFloat_@9
$LN91@LoadFloat_@9:
  001e1	88 5d e9	 mov	 BYTE PTR __k$[ebp+5], bl
  001e4	eb 1c		 jmp	 SHORT $LN1@LoadFloat_@9
$LN92@LoadFloat_@9:
  001e6	c6 45 e8 ed	 mov	 BYTE PTR __k$[ebp+4], -19 ; ffffffedH
  001ea	eb 16		 jmp	 SHORT $LN1@LoadFloat_@9
$LN93@LoadFloat_@9:
  001ec	c6 45 e7 ea	 mov	 BYTE PTR __k$[ebp+3], -22 ; ffffffeaH
  001f0	eb 10		 jmp	 SHORT $LN1@LoadFloat_@9
$LN94@LoadFloat_@9:
  001f2	c6 45 e6 eb	 mov	 BYTE PTR __k$[ebp+2], -21 ; ffffffebH
  001f6	eb 0a		 jmp	 SHORT $LN1@LoadFloat_@9
$LN95@LoadFloat_@9:
  001f8	c6 45 e5 ec	 mov	 BYTE PTR __k$[ebp+1], -20 ; ffffffecH
  001fc	eb 04		 jmp	 SHORT $LN1@LoadFloat_@9
$LN96@LoadFloat_@9:
  001fe	c6 45 e4 ed	 mov	 BYTE PTR __k$[ebp], -19	; ffffffedH
$LN1@LoadFloat_@9:
  00202	6a 04		 push	 4
  00204	8d 45 e4	 lea	 eax, DWORD PTR __k$[ebp]
  00207	c6 45 f7 00	 mov	 BYTE PTR __k$[ebp+19], 0
  0020b	5a		 pop	 edx
$LL104@LoadFloat_@9:
  0020c	81 30 ed ec eb
	ea		 xor	 DWORD PTR [eax], -353637139 ; eaebecedH
  00212	83 c0 04	 add	 eax, 4
  00215	4a		 dec	 edx
  00216	75 f4		 jne	 SHORT $LL104@LoadFloat_@9
  00218	6a 10		 push	 16			; 00000010H
  0021a	58		 pop	 eax
$LL101@LoadFloat_@9:
  0021b	8b c8		 mov	 ecx, eax
  0021d	81 e1 03 00 00
	80		 and	 ecx, -2147483645	; 80000003H
  00223	79 05		 jns	 SHORT $LN111@LoadFloat_@9
  00225	49		 dec	 ecx
  00226	83 c9 fc	 or	 ecx, -4			; fffffffcH
  00229	41		 inc	 ecx
$LN111@LoadFloat_@9:
  0022a	b2 ed		 mov	 dl, -19			; ffffffedH
  0022c	2a d1		 sub	 dl, cl
  0022e	30 54 05 e4	 xor	 BYTE PTR __k$[ebp+eax], dl
  00232	40		 inc	 eax
  00233	83 f8 13	 cmp	 eax, 19			; 00000013H
  00236	7c e3		 jl	 SHORT $LL101@LoadFloat_@9

; 137  : 		return LoadFloat(_k, f);

  00238	f3 0f 10 45 0c	 movss	 xmm0, DWORD PTR _f$[ebp]
  0023d	51		 push	 ecx
  0023e	8d 45 e4	 lea	 eax, DWORD PTR __k$[ebp]
  00241	f3 0f 11 04 24	 movss	 DWORD PTR [esp], xmm0
  00246	50		 push	 eax
  00247	8b ce		 mov	 ecx, esi
  00249	ff 15 00 00 00
	00		 call	 DWORD PTR __imp_?LoadFloat@ioINILoader@@QAEMPBDM@Z

; 138  : 	}

  0024f	8b 4d fc	 mov	 ecx, DWORD PTR __$ArrayPad$[ebp]
  00252	5e		 pop	 esi
  00253	33 cd		 xor	 ecx, ebp
  00255	5b		 pop	 ebx
  00256	e8 00 00 00 00	 call	 @__security_check_cookie@4
  0025b	c9		 leave
  0025c	c2 08 00	 ret	 8
??$LoadFloat_e@$0BE@@ioINILoader@@QAEMAAY0BE@$$CBDM@Z ENDP ; ioINILoader::LoadFloat_e<20>
_TEXT	ENDS
PUBLIC	__$ArrayPad$
PUBLIC	??$LoadFloat_e@$0BA@@ioINILoader@@QAEMAAY0BA@$$CBDM@Z ; ioINILoader::LoadFloat_e<16>
; Function compile flags: /Ogsp
;	COMDAT ??$LoadFloat_e@$0BA@@ioINILoader@@QAEMAAY0BA@$$CBDM@Z
_TEXT	SEGMENT
__k$ = -24						; size = 16
__$ArrayPad$ = -4					; size = 4
_k$ = 8							; size = 4
_f$ = 12						; size = 4
??$LoadFloat_e@$0BA@@ioINILoader@@QAEMAAY0BA@$$CBDM@Z PROC ; ioINILoader::LoadFloat_e<16>, COMDAT
; _this$ = ecx

; 135  : 	{

  00000	55		 push	 ebp
  00001	8b ec		 mov	 ebp, esp
  00003	83 ec 18	 sub	 esp, 24			; 00000018H
  00006	a1 00 00 00 00	 mov	 eax, DWORD PTR ___security_cookie
  0000b	33 c5		 xor	 eax, ebp
  0000d	89 45 fc	 mov	 DWORD PTR __$ArrayPad$[ebp], eax
  00010	8b 45 08	 mov	 eax, DWORD PTR _k$[ebp]

; 136  : 		_ENCSTR(k, _k);

  00013	8a 10		 mov	 dl, BYTE PTR [eax]
  00015	56		 push	 esi
  00016	8b f1		 mov	 esi, ecx
  00018	84 d2		 test	 dl, dl
  0001a	0f 84 8c 01 00
	00		 je	 $LN96@LoadFloat_@10
  00020	80 f2 ed	 xor	 dl, -19			; ffffffedH
  00023	88 55 e8	 mov	 BYTE PTR __k$[ebp], dl
  00026	8a 50 01	 mov	 dl, BYTE PTR [eax+1]
  00029	84 d2		 test	 dl, dl
  0002b	0f 84 75 01 00
	00		 je	 $LN95@LoadFloat_@10
  00031	80 f2 ec	 xor	 dl, -20			; ffffffecH
  00034	88 55 e9	 mov	 BYTE PTR __k$[ebp+1], dl
  00037	8a 50 02	 mov	 dl, BYTE PTR [eax+2]
  0003a	84 d2		 test	 dl, dl
  0003c	0f 84 5e 01 00
	00		 je	 $LN94@LoadFloat_@10
  00042	b1 eb		 mov	 cl, -21			; ffffffebH
  00044	32 d1		 xor	 dl, cl
  00046	88 55 ea	 mov	 BYTE PTR __k$[ebp+2], dl
  00049	8a 50 03	 mov	 dl, BYTE PTR [eax+3]
  0004c	84 d2		 test	 dl, dl
  0004e	0f 84 46 01 00
	00		 je	 $LN93@LoadFloat_@10
  00054	80 f2 ea	 xor	 dl, -22			; ffffffeaH
  00057	88 55 eb	 mov	 BYTE PTR __k$[ebp+3], dl
  0005a	8a 50 04	 mov	 dl, BYTE PTR [eax+4]
  0005d	84 d2		 test	 dl, dl
  0005f	0f 84 2f 01 00
	00		 je	 $LN92@LoadFloat_@10
  00065	80 f2 ed	 xor	 dl, -19			; ffffffedH
  00068	88 55 ec	 mov	 BYTE PTR __k$[ebp+4], dl
  0006b	8a 50 05	 mov	 dl, BYTE PTR [eax+5]
  0006e	84 d2		 test	 dl, dl
  00070	0f 84 18 01 00
	00		 je	 $LN91@LoadFloat_@10
  00076	80 f2 ec	 xor	 dl, -20			; ffffffecH
  00079	88 55 ed	 mov	 BYTE PTR __k$[ebp+5], dl
  0007c	8a 50 06	 mov	 dl, BYTE PTR [eax+6]
  0007f	84 d2		 test	 dl, dl
  00081	0f 84 02 01 00
	00		 je	 $LN90@LoadFloat_@10
  00087	32 d1		 xor	 dl, cl
  00089	88 55 ee	 mov	 BYTE PTR __k$[ebp+6], dl
  0008c	8a 50 07	 mov	 dl, BYTE PTR [eax+7]
  0008f	84 d2		 test	 dl, dl
  00091	0f 84 ec 00 00
	00		 je	 $LN89@LoadFloat_@10
  00097	80 f2 ea	 xor	 dl, -22			; ffffffeaH
  0009a	88 55 ef	 mov	 BYTE PTR __k$[ebp+7], dl
  0009d	8a 50 08	 mov	 dl, BYTE PTR [eax+8]
  000a0	84 d2		 test	 dl, dl
  000a2	0f 84 d5 00 00
	00		 je	 $LN88@LoadFloat_@10
  000a8	80 f2 ed	 xor	 dl, -19			; ffffffedH
  000ab	88 55 f0	 mov	 BYTE PTR __k$[ebp+8], dl
  000ae	8a 50 09	 mov	 dl, BYTE PTR [eax+9]
  000b1	84 d2		 test	 dl, dl
  000b3	0f 84 be 00 00
	00		 je	 $LN87@LoadFloat_@10
  000b9	80 f2 ec	 xor	 dl, -20			; ffffffecH
  000bc	88 55 f1	 mov	 BYTE PTR __k$[ebp+9], dl
  000bf	8a 50 0a	 mov	 dl, BYTE PTR [eax+10]
  000c2	84 d2		 test	 dl, dl
  000c4	0f 84 a8 00 00
	00		 je	 $LN86@LoadFloat_@10
  000ca	32 d1		 xor	 dl, cl
  000cc	88 55 f2	 mov	 BYTE PTR __k$[ebp+10], dl
  000cf	8a 50 0b	 mov	 dl, BYTE PTR [eax+11]
  000d2	84 d2		 test	 dl, dl
  000d4	0f 84 92 00 00
	00		 je	 $LN85@LoadFloat_@10
  000da	80 f2 ea	 xor	 dl, -22			; ffffffeaH
  000dd	88 55 f3	 mov	 BYTE PTR __k$[ebp+11], dl
  000e0	8a 50 0c	 mov	 dl, BYTE PTR [eax+12]
  000e3	84 d2		 test	 dl, dl
  000e5	74 7f		 je	 SHORT $LN84@LoadFloat_@10
  000e7	80 f2 ed	 xor	 dl, -19			; ffffffedH
  000ea	88 55 f4	 mov	 BYTE PTR __k$[ebp+12], dl
  000ed	8a 50 0d	 mov	 dl, BYTE PTR [eax+13]
  000f0	84 d2		 test	 dl, dl
  000f2	74 6c		 je	 SHORT $LN83@LoadFloat_@10
  000f4	80 f2 ec	 xor	 dl, -20			; ffffffecH
  000f7	88 55 f5	 mov	 BYTE PTR __k$[ebp+13], dl
  000fa	8a 50 0e	 mov	 dl, BYTE PTR [eax+14]
  000fd	84 d2		 test	 dl, dl
  000ff	74 5a		 je	 SHORT $LN82@LoadFloat_@10
  00101	32 d1		 xor	 dl, cl
  00103	80 78 0f 00	 cmp	 BYTE PTR [eax+15], 0
  00107	88 55 f6	 mov	 BYTE PTR __k$[ebp+14], dl
  0010a	0f 84 a0 00 00
	00		 je	 $LN1@LoadFloat_@10
  00110	8a 50 10	 mov	 dl, BYTE PTR [eax+16]
  00113	84 d2		 test	 dl, dl
  00115	74 3e		 je	 SHORT $LN80@LoadFloat_@10
  00117	80 f2 ed	 xor	 dl, -19			; ffffffedH
  0011a	88 55 f8	 mov	 BYTE PTR __k$[ebp+16], dl
  0011d	8a 50 11	 mov	 dl, BYTE PTR [eax+17]
  00120	84 d2		 test	 dl, dl
  00122	74 2b		 je	 SHORT $LN79@LoadFloat_@10
  00124	80 f2 ec	 xor	 dl, -20			; ffffffecH
  00127	88 55 f9	 mov	 BYTE PTR __k$[ebp+17], dl
  0012a	8a 50 12	 mov	 dl, BYTE PTR [eax+18]
  0012d	84 d2		 test	 dl, dl
  0012f	74 19		 je	 SHORT $LN78@LoadFloat_@10
  00131	8a 40 13	 mov	 al, BYTE PTR [eax+19]
  00134	32 d1		 xor	 dl, cl
  00136	88 55 fa	 mov	 BYTE PTR __k$[ebp+18], dl
  00139	84 c0		 test	 al, al
  0013b	74 07		 je	 SHORT $LN77@LoadFloat_@10
  0013d	34 ea		 xor	 al, -22			; ffffffeaH
  0013f	88 45 fb	 mov	 BYTE PTR __k$[ebp+19], al
  00142	eb 6c		 jmp	 SHORT $LN1@LoadFloat_@10
$LN77@LoadFloat_@10:
  00144	c6 45 fb ea	 mov	 BYTE PTR __k$[ebp+19], -22 ; ffffffeaH
  00148	eb 66		 jmp	 SHORT $LN1@LoadFloat_@10
$LN78@LoadFloat_@10:
  0014a	88 4d fa	 mov	 BYTE PTR __k$[ebp+18], cl
  0014d	eb 61		 jmp	 SHORT $LN1@LoadFloat_@10
$LN79@LoadFloat_@10:
  0014f	c6 45 f9 ec	 mov	 BYTE PTR __k$[ebp+17], -20 ; ffffffecH
  00153	eb 5b		 jmp	 SHORT $LN1@LoadFloat_@10
$LN80@LoadFloat_@10:
  00155	c6 45 f8 ed	 mov	 BYTE PTR __k$[ebp+16], -19 ; ffffffedH
  00159	eb 55		 jmp	 SHORT $LN1@LoadFloat_@10
$LN82@LoadFloat_@10:
  0015b	88 4d f6	 mov	 BYTE PTR __k$[ebp+14], cl
  0015e	eb 50		 jmp	 SHORT $LN1@LoadFloat_@10
$LN83@LoadFloat_@10:
  00160	c6 45 f5 ec	 mov	 BYTE PTR __k$[ebp+13], -20 ; ffffffecH
  00164	eb 4a		 jmp	 SHORT $LN1@LoadFloat_@10
$LN84@LoadFloat_@10:
  00166	c6 45 f4 ed	 mov	 BYTE PTR __k$[ebp+12], -19 ; ffffffedH
  0016a	eb 44		 jmp	 SHORT $LN1@LoadFloat_@10
$LN85@LoadFloat_@10:
  0016c	c6 45 f3 ea	 mov	 BYTE PTR __k$[ebp+11], -22 ; ffffffeaH
  00170	eb 3e		 jmp	 SHORT $LN1@LoadFloat_@10
$LN86@LoadFloat_@10:
  00172	88 4d f2	 mov	 BYTE PTR __k$[ebp+10], cl
  00175	eb 39		 jmp	 SHORT $LN1@LoadFloat_@10
$LN87@LoadFloat_@10:
  00177	c6 45 f1 ec	 mov	 BYTE PTR __k$[ebp+9], -20 ; ffffffecH
  0017b	eb 33		 jmp	 SHORT $LN1@LoadFloat_@10
$LN88@LoadFloat_@10:
  0017d	c6 45 f0 ed	 mov	 BYTE PTR __k$[ebp+8], -19 ; ffffffedH
  00181	eb 2d		 jmp	 SHORT $LN1@LoadFloat_@10
$LN89@LoadFloat_@10:
  00183	c6 45 ef ea	 mov	 BYTE PTR __k$[ebp+7], -22 ; ffffffeaH
  00187	eb 27		 jmp	 SHORT $LN1@LoadFloat_@10
$LN90@LoadFloat_@10:
  00189	88 4d ee	 mov	 BYTE PTR __k$[ebp+6], cl
  0018c	eb 22		 jmp	 SHORT $LN1@LoadFloat_@10
$LN91@LoadFloat_@10:
  0018e	c6 45 ed ec	 mov	 BYTE PTR __k$[ebp+5], -20 ; ffffffecH
  00192	eb 1c		 jmp	 SHORT $LN1@LoadFloat_@10
$LN92@LoadFloat_@10:
  00194	c6 45 ec ed	 mov	 BYTE PTR __k$[ebp+4], -19 ; ffffffedH
  00198	eb 16		 jmp	 SHORT $LN1@LoadFloat_@10
$LN93@LoadFloat_@10:
  0019a	c6 45 eb ea	 mov	 BYTE PTR __k$[ebp+3], -22 ; ffffffeaH
  0019e	eb 10		 jmp	 SHORT $LN1@LoadFloat_@10
$LN94@LoadFloat_@10:
  001a0	c6 45 ea eb	 mov	 BYTE PTR __k$[ebp+2], -21 ; ffffffebH
  001a4	eb 0a		 jmp	 SHORT $LN1@LoadFloat_@10
$LN95@LoadFloat_@10:
  001a6	c6 45 e9 ec	 mov	 BYTE PTR __k$[ebp+1], -20 ; ffffffecH
  001aa	eb 04		 jmp	 SHORT $LN1@LoadFloat_@10
$LN96@LoadFloat_@10:
  001ac	c6 45 e8 ed	 mov	 BYTE PTR __k$[ebp], -19	; ffffffedH
$LN1@LoadFloat_@10:
  001b0	6a 03		 push	 3
  001b2	8d 45 e8	 lea	 eax, DWORD PTR __k$[ebp]
  001b5	c6 45 f7 00	 mov	 BYTE PTR __k$[ebp+15], 0
  001b9	5a		 pop	 edx
$LL104@LoadFloat_@10:
  001ba	81 30 ed ec eb
	ea		 xor	 DWORD PTR [eax], -353637139 ; eaebecedH
  001c0	83 c0 04	 add	 eax, 4
  001c3	4a		 dec	 edx
  001c4	75 f4		 jne	 SHORT $LL104@LoadFloat_@10
  001c6	6a 0c		 push	 12			; 0000000cH
  001c8	58		 pop	 eax
$LL101@LoadFloat_@10:
  001c9	8b c8		 mov	 ecx, eax
  001cb	81 e1 03 00 00
	80		 and	 ecx, -2147483645	; 80000003H
  001d1	79 05		 jns	 SHORT $LN111@LoadFloat_@10
  001d3	49		 dec	 ecx
  001d4	83 c9 fc	 or	 ecx, -4			; fffffffcH
  001d7	41		 inc	 ecx
$LN111@LoadFloat_@10:
  001d8	b2 ed		 mov	 dl, -19			; ffffffedH
  001da	2a d1		 sub	 dl, cl
  001dc	30 54 05 e8	 xor	 BYTE PTR __k$[ebp+eax], dl
  001e0	40		 inc	 eax
  001e1	83 f8 0f	 cmp	 eax, 15			; 0000000fH
  001e4	7c e3		 jl	 SHORT $LL101@LoadFloat_@10

; 137  : 		return LoadFloat(_k, f);

  001e6	f3 0f 10 45 0c	 movss	 xmm0, DWORD PTR _f$[ebp]
  001eb	51		 push	 ecx
  001ec	8d 45 e8	 lea	 eax, DWORD PTR __k$[ebp]
  001ef	f3 0f 11 04 24	 movss	 DWORD PTR [esp], xmm0
  001f4	50		 push	 eax
  001f5	8b ce		 mov	 ecx, esi
  001f7	ff 15 00 00 00
	00		 call	 DWORD PTR __imp_?LoadFloat@ioINILoader@@QAEMPBDM@Z

; 138  : 	}

  001fd	8b 4d fc	 mov	 ecx, DWORD PTR __$ArrayPad$[ebp]
  00200	33 cd		 xor	 ecx, ebp
  00202	5e		 pop	 esi
  00203	e8 00 00 00 00	 call	 @__security_check_cookie@4
  00208	c9		 leave
  00209	c2 08 00	 ret	 8
??$LoadFloat_e@$0BA@@ioINILoader@@QAEMAAY0BA@$$CBDM@Z ENDP ; ioINILoader::LoadFloat_e<16>
_TEXT	ENDS
PUBLIC	??4?$CEncrypt@K@@QAEKH@Z			; CEncrypt<unsigned long>::operator=
; Function compile flags: /Ogsp
; File d:\lost saga for developer\youtube\tutorial\source\src\lsclient\encryptvalue.h
;	COMDAT ??4?$CEncrypt@K@@QAEKH@Z
_TEXT	SEGMENT
_value$ = 8						; size = 4
_inValue$ = 8						; size = 4
??4?$CEncrypt@K@@QAEKH@Z PROC				; CEncrypt<unsigned long>::operator=, COMDAT
; _this$ = ecx

; 843  : 	{

  00000	55		 push	 ebp
  00001	8b ec		 mov	 ebp, esp

; 844  : 		type value = inValue;

  00003	8b 45 08	 mov	 eax, DWORD PTR _inValue$[ebp]
  00006	89 45 08	 mov	 DWORD PTR _value$[ebp], eax

; 845  : 		EncryptValueToPool((char*)&value);

  00009	8d 45 08	 lea	 eax, DWORD PTR _value$[ebp]
  0000c	50		 push	 eax
  0000d	e8 00 00 00 00	 call	 ?EncryptValueToPool@?$CEncrypt@K@@AAEXPBD@Z ; CEncrypt<unsigned long>::EncryptValueToPool

; 846  : #ifdef _NOTUSE
; 847  : 		m_value = inValue;
; 848  : 		Debug();
; 849  : #endif
; 850  : 		return value;

  00012	8b 45 08	 mov	 eax, DWORD PTR _value$[ebp]

; 851  : 	}

  00015	5d		 pop	 ebp
  00016	c2 04 00	 ret	 4
??4?$CEncrypt@K@@QAEKH@Z ENDP				; CEncrypt<unsigned long>::operator=
_TEXT	ENDS
PUBLIC	??B?$CEncrypt@_N@@QBE_NXZ			; CEncrypt<bool>::operator bool
; Function compile flags: /Ogsp
;	COMDAT ??B?$CEncrypt@_N@@QBE_NXZ
_TEXT	SEGMENT
_value$ = -1						; size = 1
??B?$CEncrypt@_N@@QBE_NXZ PROC				; CEncrypt<bool>::operator bool, COMDAT
; _this$ = ecx

; 145  : 	{

  00000	55		 push	 ebp
  00001	8b ec		 mov	 ebp, esp
  00003	51		 push	 ecx

; 146  : 		//UJ 130829, const도 똑같이 하면 된다 --start
; 147  : 		type value;
; 148  : 		CEncrypt<type>* pThis = const_cast<CEncrypt<type>*>(this);
; 149  : 		pThis->DecryptValueToPool(&value);

  00004	8d 45 ff	 lea	 eax, DWORD PTR _value$[ebp]
  00007	50		 push	 eax
  00008	e8 00 00 00 00	 call	 ?DecryptValueToPool@?$CEncrypt@_N@@QAEXPA_N@Z ; CEncrypt<bool>::DecryptValueToPool

; 150  : 		//// const에서 DecryptValueToPool 사용할 수 없으므로 아래와 같이함.
; 151  :  		//type value;
; 152  : 		//char szTempMem[MAX_ENCRYPT];
; 153  : 		//m_RC5.DecryptByte( m_MemPool, szTempMem, max(m_ValueSize, DEFAULT_ENCRYPT) );
; 154  : 		//memcpy( &value, szTempMem, m_ValueSize );
; 155  : 		//UJ --end
; 156  : 
; 157  : #ifdef _NOTUSE
; 158  : 		Debug();
; 159  : #endif
; 160  : 		return value;

  0000d	8a 45 ff	 mov	 al, BYTE PTR _value$[ebp]

; 161  : 	}

  00010	c9		 leave
  00011	c3		 ret	 0
??B?$CEncrypt@_N@@QBE_NXZ ENDP				; CEncrypt<bool>::operator bool
_TEXT	ENDS
PUBLIC	??0?$CEncrypt@H@@QAE@XZ				; CEncrypt<int>::CEncrypt<int>
EXTRN	??0ccddaabb@@QAE@XZ:PROC			; ccddaabb::ccddaabb
;	COMDAT xdata$x
xdata$x	SEGMENT
__unwindtable$??0?$CEncrypt@H@@QAE@XZ DD 0ffffffffH
	DD	FLAT:__unwindfunclet$??0?$CEncrypt@H@@QAE@XZ$0
__ehfuncinfo$??0?$CEncrypt@H@@QAE@XZ DD 019930522H
	DD	01H
	DD	FLAT:__unwindtable$??0?$CEncrypt@H@@QAE@XZ
	DD	2 DUP(00H)
	DD	2 DUP(00H)
	DD	00H
	DD	01H
; Function compile flags: /Ogsp
xdata$x	ENDS
;	COMDAT ??0?$CEncrypt@H@@QAE@XZ
_TEXT	SEGMENT
_this$ = -16						; size = 4
__$EHRec$ = -12						; size = 12
??0?$CEncrypt@H@@QAE@XZ PROC				; CEncrypt<int>::CEncrypt<int>, COMDAT
; _this$ = ecx

; 109  : 	CEncrypt()

  00000	6a 04		 push	 4
  00002	b8 00 00 00 00	 mov	 eax, __ehhandler$??0?$CEncrypt@H@@QAE@XZ
  00007	e8 00 00 00 00	 call	 __EH_prolog3
  0000c	8b f1		 mov	 esi, ecx
  0000e	89 75 f0	 mov	 DWORD PTR _this$[ebp], esi
  00011	8d 4e 0c	 lea	 ecx, DWORD PTR [esi+12]
  00014	c7 06 00 00 00
	00		 mov	 DWORD PTR [esi], OFFSET ??_7?$CEncrypt@H@@6B@
  0001a	e8 00 00 00 00	 call	 ??0ccddaabb@@QAE@XZ	; ccddaabb::ccddaabb
  0001f	83 65 fc 00	 and	 DWORD PTR __$EHRec$[ebp+8], 0

; 110  : 	{
; 111  : 		Init();

  00023	8b ce		 mov	 ecx, esi
  00025	e8 00 00 00 00	 call	 ?Init@?$CEncrypt@H@@AAEXXZ ; CEncrypt<int>::Init

; 112  : 	}

  0002a	8b c6		 mov	 eax, esi
  0002c	e8 00 00 00 00	 call	 __EH_epilog3
  00031	c3		 ret	 0
_TEXT	ENDS
;	COMDAT text$x
text$x	SEGMENT
__unwindfunclet$??0?$CEncrypt@H@@QAE@XZ$0:
  00000	8b 4d f0	 mov	 ecx, DWORD PTR _this$[ebp]
  00003	83 c1 0c	 add	 ecx, 12			; 0000000cH
  00006	e9 00 00 00 00	 jmp	 ??1ccddaabb@@UAE@XZ	; ccddaabb::~ccddaabb
__ehhandler$??0?$CEncrypt@H@@QAE@XZ:
  0000b	8b 54 24 08	 mov	 edx, DWORD PTR [esp+8]
  0000f	8d 42 0c	 lea	 eax, DWORD PTR [edx+12]
  00012	8b 4a ec	 mov	 ecx, DWORD PTR [edx-20]
  00015	33 c8		 xor	 ecx, eax
  00017	e8 00 00 00 00	 call	 @__security_check_cookie@4
  0001c	b8 00 00 00 00	 mov	 eax, OFFSET __ehfuncinfo$??0?$CEncrypt@H@@QAE@XZ
  00021	e9 00 00 00 00	 jmp	 ___CxxFrameHandler3
text$x	ENDS
??0?$CEncrypt@H@@QAE@XZ ENDP				; CEncrypt<int>::CEncrypt<int>
PUBLIC	??B?$CEncrypt@H@@QAEHXZ				; CEncrypt<int>::operator int
; Function compile flags: /Ogsp
;	COMDAT ??B?$CEncrypt@H@@QAEHXZ
_TEXT	SEGMENT
_value$ = -4						; size = 4
??B?$CEncrypt@H@@QAEHXZ PROC				; CEncrypt<int>::operator int, COMDAT
; _this$ = ecx

; 134  : 	{

  00000	55		 push	 ebp
  00001	8b ec		 mov	 ebp, esp
  00003	51		 push	 ecx

; 135  : 		type value;
; 136  : 		DecryptValueToPool(&value);

  00004	8d 45 fc	 lea	 eax, DWORD PTR _value$[ebp]
  00007	50		 push	 eax
  00008	e8 00 00 00 00	 call	 ?DecryptValueToPool@?$CEncrypt@H@@QAEXPAH@Z ; CEncrypt<int>::DecryptValueToPool

; 137  : 
; 138  : #ifdef _NOTUSE
; 139  : 		Debug();
; 140  : #endif
; 141  : 		return value;

  0000d	8b 45 fc	 mov	 eax, DWORD PTR _value$[ebp]

; 142  : 	}

  00010	c9		 leave
  00011	c3		 ret	 0
??B?$CEncrypt@H@@QAEHXZ ENDP				; CEncrypt<int>::operator int
_TEXT	ENDS
PUBLIC	??B?$CEncrypt@H@@QBEHXZ				; CEncrypt<int>::operator int
; Function compile flags: /Ogsp
;	COMDAT ??B?$CEncrypt@H@@QBEHXZ
_TEXT	SEGMENT
_value$ = -4						; size = 4
??B?$CEncrypt@H@@QBEHXZ PROC				; CEncrypt<int>::operator int, COMDAT
; _this$ = ecx

; 145  : 	{

  00000	55		 push	 ebp
  00001	8b ec		 mov	 ebp, esp
  00003	51		 push	 ecx

; 146  : 		//UJ 130829, const도 똑같이 하면 된다 --start
; 147  : 		type value;
; 148  : 		CEncrypt<type>* pThis = const_cast<CEncrypt<type>*>(this);
; 149  : 		pThis->DecryptValueToPool(&value);

  00004	8d 45 fc	 lea	 eax, DWORD PTR _value$[ebp]
  00007	50		 push	 eax
  00008	e8 00 00 00 00	 call	 ?DecryptValueToPool@?$CEncrypt@H@@QAEXPAH@Z ; CEncrypt<int>::DecryptValueToPool

; 150  : 		//// const에서 DecryptValueToPool 사용할 수 없으므로 아래와 같이함.
; 151  :  		//type value;
; 152  : 		//char szTempMem[MAX_ENCRYPT];
; 153  : 		//m_RC5.DecryptByte( m_MemPool, szTempMem, max(m_ValueSize, DEFAULT_ENCRYPT) );
; 154  : 		//memcpy( &value, szTempMem, m_ValueSize );
; 155  : 		//UJ --end
; 156  : 
; 157  : #ifdef _NOTUSE
; 158  : 		Debug();
; 159  : #endif
; 160  : 		return value;

  0000d	8b 45 fc	 mov	 eax, DWORD PTR _value$[ebp]

; 161  : 	}

  00010	c9		 leave
  00011	c3		 ret	 0
??B?$CEncrypt@H@@QBEHXZ ENDP				; CEncrypt<int>::operator int
_TEXT	ENDS
PUBLIC	??4?$CEncrypt@H@@QAEHH@Z			; CEncrypt<int>::operator=
; Function compile flags: /Ogsp
;	COMDAT ??4?$CEncrypt@H@@QAEHH@Z
_TEXT	SEGMENT
_value$ = 8						; size = 4
_inValue$ = 8						; size = 4
??4?$CEncrypt@H@@QAEHH@Z PROC				; CEncrypt<int>::operator=, COMDAT
; _this$ = ecx

; 843  : 	{

  00000	55		 push	 ebp
  00001	8b ec		 mov	 ebp, esp

; 844  : 		type value = inValue;

  00003	8b 45 08	 mov	 eax, DWORD PTR _inValue$[ebp]
  00006	89 45 08	 mov	 DWORD PTR _value$[ebp], eax

; 845  : 		EncryptValueToPool((char*)&value);

  00009	8d 45 08	 lea	 eax, DWORD PTR _value$[ebp]
  0000c	50		 push	 eax
  0000d	e8 00 00 00 00	 call	 ?EncryptValueToPool@?$CEncrypt@H@@AAEXPBD@Z ; CEncrypt<int>::EncryptValueToPool

; 846  : #ifdef _NOTUSE
; 847  : 		m_value = inValue;
; 848  : 		Debug();
; 849  : #endif
; 850  : 		return value;

  00012	8b 45 08	 mov	 eax, DWORD PTR _value$[ebp]

; 851  : 	}

  00015	5d		 pop	 ebp
  00016	c2 04 00	 ret	 4
??4?$CEncrypt@H@@QAEHH@Z ENDP				; CEncrypt<int>::operator=
_TEXT	ENDS
PUBLIC	??B?$CEncrypt@W4TeamType@@@@QBE?AW4TeamType@@XZ	; CEncrypt<enum TeamType>::operator enum TeamType
; Function compile flags: /Ogsp
;	COMDAT ??B?$CEncrypt@W4TeamType@@@@QBE?AW4TeamType@@XZ
_TEXT	SEGMENT
_value$ = -4						; size = 4
??B?$CEncrypt@W4TeamType@@@@QBE?AW4TeamType@@XZ PROC	; CEncrypt<enum TeamType>::operator enum TeamType, COMDAT
; _this$ = ecx

; 145  : 	{

  00000	55		 push	 ebp
  00001	8b ec		 mov	 ebp, esp
  00003	51		 push	 ecx

; 146  : 		//UJ 130829, const도 똑같이 하면 된다 --start
; 147  : 		type value;
; 148  : 		CEncrypt<type>* pThis = const_cast<CEncrypt<type>*>(this);
; 149  : 		pThis->DecryptValueToPool(&value);

  00004	8d 45 fc	 lea	 eax, DWORD PTR _value$[ebp]
  00007	50		 push	 eax
  00008	e8 00 00 00 00	 call	 ?DecryptValueToPool@?$CEncrypt@W4TeamType@@@@QAEXPAW4TeamType@@@Z ; CEncrypt<enum TeamType>::DecryptValueToPool

; 150  : 		//// const에서 DecryptValueToPool 사용할 수 없으므로 아래와 같이함.
; 151  :  		//type value;
; 152  : 		//char szTempMem[MAX_ENCRYPT];
; 153  : 		//m_RC5.DecryptByte( m_MemPool, szTempMem, max(m_ValueSize, DEFAULT_ENCRYPT) );
; 154  : 		//memcpy( &value, szTempMem, m_ValueSize );
; 155  : 		//UJ --end
; 156  : 
; 157  : #ifdef _NOTUSE
; 158  : 		Debug();
; 159  : #endif
; 160  : 		return value;

  0000d	8b 45 fc	 mov	 eax, DWORD PTR _value$[ebp]

; 161  : 	}

  00010	c9		 leave
  00011	c3		 ret	 0
??B?$CEncrypt@W4TeamType@@@@QBE?AW4TeamType@@XZ ENDP	; CEncrypt<enum TeamType>::operator enum TeamType
; Function compile flags: /Ogsp
_TEXT	ENDS
;	COMDAT ??_GioTwoMagicCircleSkill@@UAEPAXI@Z
_TEXT	SEGMENT
___flags$ = 8						; size = 4
??_GioTwoMagicCircleSkill@@UAEPAXI@Z PROC		; ioTwoMagicCircleSkill::`scalar deleting destructor', COMDAT
; _this$ = ecx
  00000	55		 push	 ebp
  00001	8b ec		 mov	 ebp, esp
  00003	56		 push	 esi
  00004	8b f1		 mov	 esi, ecx
  00006	e8 00 00 00 00	 call	 ??1ioTwoMagicCircleSkill@@UAE@XZ ; ioTwoMagicCircleSkill::~ioTwoMagicCircleSkill
  0000b	f6 45 08 01	 test	 BYTE PTR ___flags$[ebp], 1
  0000f	74 07		 je	 SHORT $LN1@scalar@2
  00011	56		 push	 esi
  00012	e8 00 00 00 00	 call	 ??3@YAXPAX@Z		; operator delete
  00017	59		 pop	 ecx
$LN1@scalar@2:
  00018	8b c6		 mov	 eax, esi
  0001a	5e		 pop	 esi
  0001b	5d		 pop	 ebp
  0001c	c2 04 00	 ret	 4
??_GioTwoMagicCircleSkill@@UAEPAXI@Z ENDP		; ioTwoMagicCircleSkill::`scalar deleting destructor'
_TEXT	ENDS
PUBLIC	__real@4f800000
PUBLIC	__$ArrayPad$
EXTRN	__imp_??4ioHashString@@QAEAAV0@PBD@Z:PROC
EXTRN	?LoadProperty@ioNormalSkill@@UAEXAAVioINILoader@@@Z:PROC ; ioNormalSkill::LoadProperty
;	COMDAT __real@4f800000
; File d:\lost saga for developer\youtube\tutorial\source\src\lsclient\stringprotect.h
CONST	SEGMENT
__real@4f800000 DD 04f800000r			; 4.29497e+009
; Function compile flags: /Ogsp
; File d:\lost saga for developer\youtube\tutorial\source\src\lsclient\iotwomagiccircleskill.cpp
CONST	ENDS
;	COMDAT ?LoadProperty@ioTwoMagicCircleSkill@@UAEXAAVioINILoader@@@Z
_TEXT	SEGMENT
tv23274 = -996						; size = 4
tv23259 = -996						; size = 4
tv23239 = -996						; size = 4
tv23226 = -996						; size = 4
_i$537640 = -996					; size = 4
_i$537039 = -996					; size = 4
_i$536697 = -996					; size = 4
_szBuf$ = -992						; size = 260
__k$536431 = -732					; size = 38
__k$536543 = -688					; size = 38
__k$534916 = -644					; size = 25
__k$536166 = -612					; size = 25
__k$535778 = -580					; size = 31
__k$535666 = -544					; size = 31
__k$535418 = -508					; size = 30
__k$535043 = -472					; size = 30
__k$535168 = -436					; size = 30
__k$535530 = -400					; size = 30
__k$535903 = -364					; size = 27
__k$535278 = -332					; size = 26
__k$536291 = -300					; size = 26
__k$536657 = -268					; size = 24
__k$537678 = -240					; size = 17
__k$537299 = -216					; size = 17
__k$537049 = -192					; size = 23
__k$537540 = -164					; size = 20
__k$537174 = -140					; size = 20
__k$536028 = -116					; size = 19
__k$537452 = -92					; size = 13
__k$536782 = -72					; size = 18
__k$536920 = -48					; size = 18
__k$537807 = -24					; size = 16
__$ArrayPad$ = -4					; size = 4
_rkLoader$ = 8						; size = 4
?LoadProperty@ioTwoMagicCircleSkill@@UAEXAAVioINILoader@@@Z PROC ; ioTwoMagicCircleSkill::LoadProperty, COMDAT
; _this$ = ecx

; 50   : {

  00000	55		 push	 ebp
  00001	8b ec		 mov	 ebp, esp
  00003	81 ec e4 03 00
	00		 sub	 esp, 996		; 000003e4H
  00009	a1 00 00 00 00	 mov	 eax, DWORD PTR ___security_cookie
  0000e	33 c5		 xor	 eax, ebp
  00010	89 45 fc	 mov	 DWORD PTR __$ArrayPad$[ebp], eax
  00013	53		 push	 ebx
  00014	56		 push	 esi
  00015	57		 push	 edi
  00016	8b 7d 08	 mov	 edi, DWORD PTR _rkLoader$[ebp]

; 51   : 	ioNormalSkill::LoadProperty( rkLoader );

  00019	57		 push	 edi
  0001a	8b f1		 mov	 esi, ecx
  0001c	e8 00 00 00 00	 call	 ?LoadProperty@ioNormalSkill@@UAEXAAVioINILoader@@@Z ; ioNormalSkill::LoadProperty

; 52   : 
; 53   : 	char szBuf[MAX_PATH];
; 54   : 
; 55   : 	m_fFirstCircleRange = rkLoader.LoadFloat_e( "first_magic_circle_range", 0.0f );

  00021	6a 06		 push	 6
  00023	c7 85 7c fd ff
	ff 8b 85 99 99	 mov	 DWORD PTR __k$534916[ebp], -1717992053 ; 9999858bH
  0002d	c7 85 80 fd ff
	ff 99 b3 86 8b	 mov	 DWORD PTR __k$534916[ebp+4], -1954106471 ; 8b86b399H
  00037	c7 85 84 fd ff
	ff 8a 85 88 b5	 mov	 DWORD PTR __k$534916[ebp+8], -1249344118 ; b588858aH
  00041	c7 85 88 fd ff
	ff 8e 85 99 89	 mov	 DWORD PTR __k$534916[ebp+12], -1986427506 ; 8999858eH
  0004b	c7 85 8c fd ff
	ff 81 89 b4 98	 mov	 DWORD PTR __k$534916[ebp+16], -1732998783 ; 98b48981H
  00055	c7 85 90 fd ff
	ff 8c 82 8c 8f	 mov	 DWORD PTR __k$534916[ebp+20], -1886616948 ; 8f8c828cH
  0005f	8d 85 7c fd ff
	ff		 lea	 eax, DWORD PTR __k$534916[ebp]
  00065	c6 85 94 fd ff
	ff 00		 mov	 BYTE PTR __k$534916[ebp+24], 0
  0006c	59		 pop	 ecx
$LL106@LoadProper:
  0006d	81 30 ed ec eb
	ea		 xor	 DWORD PTR [eax], -353637139 ; eaebecedH
  00073	83 c0 04	 add	 eax, 4
  00076	49		 dec	 ecx
  00077	75 f4		 jne	 SHORT $LL106@LoadProper
  00079	0f 57 c0	 xorps	 xmm0, xmm0
  0007c	51		 push	 ecx
  0007d	8d 85 7c fd ff
	ff		 lea	 eax, DWORD PTR __k$534916[ebp]
  00083	f3 0f 11 04 24	 movss	 DWORD PTR [esp], xmm0
  00088	50		 push	 eax
  00089	8b cf		 mov	 ecx, edi
  0008b	ff 15 00 00 00
	00		 call	 DWORD PTR __imp_?LoadFloat@ioINILoader@@QAEMPBDM@Z
  00091	d9 9e dc 0f 00
	00		 fstp	 DWORD PTR [esi+4060]
  00097	6a 07		 push	 7
  00099	5b		 pop	 ebx

; 56   : 	m_fFirstCircleMoveSpeed = rkLoader.LoadFloat_e( "first_magic_circle_move_speed", 0.0f );

  0009a	c7 85 28 fe ff
	ff 8b 85 99 99	 mov	 DWORD PTR __k$535043[ebp], -1717992053 ; 9999858bH
  000a4	c7 85 2c fe ff
	ff 99 b3 86 8b	 mov	 DWORD PTR __k$535043[ebp+4], -1954106471 ; 8b86b399H
  000ae	c7 85 30 fe ff
	ff 8a 85 88 b5	 mov	 DWORD PTR __k$535043[ebp+8], -1249344118 ; b588858aH
  000b8	c7 85 34 fe ff
	ff 8e 85 99 89	 mov	 DWORD PTR __k$535043[ebp+12], -1986427506 ; 8999858eH
  000c2	c7 85 38 fe ff
	ff 81 89 b4 87	 mov	 DWORD PTR __k$535043[ebp+16], -2018211455 ; 87b48981H
  000cc	c7 85 3c fe ff
	ff 82 9a 8e b5	 mov	 DWORD PTR __k$535043[ebp+20], -1248945534 ; b58e9a82H
  000d6	c7 85 40 fe ff
	ff 9e 9c 8e 8f	 mov	 DWORD PTR __k$535043[ebp+24], -1886479202 ; 8f8e9c9eH
  000e0	8d 85 28 fe ff
	ff		 lea	 eax, DWORD PTR __k$535043[ebp]
  000e6	66 c7 85 44 fe
	ff ff 89 00	 mov	 WORD PTR __k$535043[ebp+28], 137 ; 00000089H
  000ef	8b cb		 mov	 ecx, ebx
$LL212@LoadProper:
  000f1	81 30 ed ec eb
	ea		 xor	 DWORD PTR [eax], -353637139 ; eaebecedH
  000f7	83 c0 04	 add	 eax, 4
  000fa	49		 dec	 ecx
  000fb	75 f4		 jne	 SHORT $LL212@LoadProper
  000fd	0f 57 c0	 xorps	 xmm0, xmm0
  00100	80 b5 44 fe ff
	ff ed		 xor	 BYTE PTR __k$535043[ebp+28], -19 ; ffffffedH
  00107	51		 push	 ecx
  00108	8d 85 28 fe ff
	ff		 lea	 eax, DWORD PTR __k$535043[ebp]
  0010e	f3 0f 11 04 24	 movss	 DWORD PTR [esp], xmm0
  00113	50		 push	 eax
  00114	8b cf		 mov	 ecx, edi
  00116	ff 15 00 00 00
	00		 call	 DWORD PTR __imp_?LoadFloat@ioINILoader@@QAEMPBDM@Z
  0011c	d9 9e e0 0f 00
	00		 fstp	 DWORD PTR [esi+4064]

; 57   : 	m_fFirstCircleHeightGap = rkLoader.LoadFloat_e( "first_magic_circle_height_gap", 0.0f );

  00122	c7 85 4c fe ff
	ff 8b 85 99 99	 mov	 DWORD PTR __k$535168[ebp], -1717992053 ; 9999858bH
  0012c	c7 85 50 fe ff
	ff 99 b3 86 8b	 mov	 DWORD PTR __k$535168[ebp+4], -1954106471 ; 8b86b399H
  00136	c7 85 54 fe ff
	ff 8a 85 88 b5	 mov	 DWORD PTR __k$535168[ebp+8], -1249344118 ; b588858aH
  00140	c7 85 58 fe ff
	ff 8e 85 99 89	 mov	 DWORD PTR __k$535168[ebp+12], -1986427506 ; 8999858eH
  0014a	c7 85 5c fe ff
	ff 81 89 b4 82	 mov	 DWORD PTR __k$535168[ebp+16], -2102097535 ; 82b48981H
  00154	c7 85 60 fe ff
	ff 88 85 8c 82	 mov	 DWORD PTR __k$535168[ebp+20], -2104719992 ; 828c8588H
  0015e	c7 85 64 fe ff
	ff 99 b3 8c 8b	 mov	 DWORD PTR __k$535168[ebp+24], -1953713255 ; 8b8cb399H
  00168	8d 85 4c fe ff
	ff		 lea	 eax, DWORD PTR __k$535168[ebp]
  0016e	66 c7 85 68 fe
	ff ff 9d 00	 mov	 WORD PTR __k$535168[ebp+28], 157 ; 0000009dH
  00177	8b cb		 mov	 ecx, ebx
$LL318@LoadProper:
  00179	81 30 ed ec eb
	ea		 xor	 DWORD PTR [eax], -353637139 ; eaebecedH
  0017f	83 c0 04	 add	 eax, 4
  00182	49		 dec	 ecx
  00183	75 f4		 jne	 SHORT $LL318@LoadProper
  00185	0f 57 c0	 xorps	 xmm0, xmm0
  00188	80 b5 68 fe ff
	ff ed		 xor	 BYTE PTR __k$535168[ebp+28], -19 ; ffffffedH
  0018f	51		 push	 ecx
  00190	8d 85 4c fe ff
	ff		 lea	 eax, DWORD PTR __k$535168[ebp]
  00196	f3 0f 11 04 24	 movss	 DWORD PTR [esp], xmm0
  0019b	50		 push	 eax
  0019c	8b cf		 mov	 ecx, edi
  0019e	ff 15 00 00 00
	00		 call	 DWORD PTR __imp_?LoadFloat@ioINILoader@@QAEMPBDM@Z
  001a4	d9 9e e4 0f 00
	00		 fstp	 DWORD PTR [esi+4068]
  001aa	6a 06		 push	 6

; 58   : 	m_fFirstCircleOffSet = rkLoader.LoadFloat_e( "first_magic_circle_offset", 0.0f );

  001ac	c7 85 b4 fe ff
	ff 8b 85 99 99	 mov	 DWORD PTR __k$535278[ebp], -1717992053 ; 9999858bH
  001b6	c7 85 b8 fe ff
	ff 99 b3 86 8b	 mov	 DWORD PTR __k$535278[ebp+4], -1954106471 ; 8b86b399H
  001c0	c7 85 bc fe ff
	ff 8a 85 88 b5	 mov	 DWORD PTR __k$535278[ebp+8], -1249344118 ; b588858aH
  001ca	c7 85 c0 fe ff
	ff 8e 85 99 89	 mov	 DWORD PTR __k$535278[ebp+12], -1986427506 ; 8999858eH
  001d4	c7 85 c4 fe ff
	ff 81 89 b4 85	 mov	 DWORD PTR __k$535278[ebp+16], -2051765887 ; 85b48981H
  001de	c7 85 c8 fe ff
	ff 8b 8a 98 8f	 mov	 DWORD PTR __k$535278[ebp+20], -1885828469 ; 8f988a8bH
  001e8	8d 85 b4 fe ff
	ff		 lea	 eax, DWORD PTR __k$535278[ebp]
  001ee	66 c7 85 cc fe
	ff ff 99 00	 mov	 WORD PTR __k$535278[ebp+24], 153 ; 00000099H
  001f7	59		 pop	 ecx
$LL424@LoadProper:
  001f8	81 30 ed ec eb
	ea		 xor	 DWORD PTR [eax], -353637139 ; eaebecedH
  001fe	83 c0 04	 add	 eax, 4
  00201	49		 dec	 ecx
  00202	75 f4		 jne	 SHORT $LL424@LoadProper
  00204	0f 57 c0	 xorps	 xmm0, xmm0
  00207	80 b5 cc fe ff
	ff ed		 xor	 BYTE PTR __k$535278[ebp+24], -19 ; ffffffedH
  0020e	51		 push	 ecx
  0020f	8d 85 b4 fe ff
	ff		 lea	 eax, DWORD PTR __k$535278[ebp]
  00215	f3 0f 11 04 24	 movss	 DWORD PTR [esp], xmm0
  0021a	50		 push	 eax
  0021b	8b cf		 mov	 ecx, edi
  0021d	ff 15 00 00 00
	00		 call	 DWORD PTR __imp_?LoadFloat@ioINILoader@@QAEMPBDM@Z
  00223	d9 9e e8 0f 00
	00		 fstp	 DWORD PTR [esi+4072]

; 59   : 
; 60   : 	m_fSecondCircleMaxRange = rkLoader.LoadFloat_e( "second_magic_circle_max_range", 0.0f );

  00229	c7 85 04 fe ff
	ff 9e 89 88 85	 mov	 DWORD PTR __k$535418[ebp], -2054649442 ; 8588899eH
  00233	c7 85 08 fe ff
	ff 83 88 b4 87	 mov	 DWORD PTR __k$535418[ebp+4], -2018211709 ; 87b48883H
  0023d	c7 85 0c fe ff
	ff 8c 8b 82 89	 mov	 DWORD PTR __k$535418[ebp+8], -1987933300 ; 89828b8cH
  00247	c7 85 10 fe ff
	ff b2 8f 82 98	 mov	 DWORD PTR __k$535418[ebp+12], -1736273998 ; 98828fb2H
  00251	c7 85 14 fe ff
	ff 8e 80 8e b5	 mov	 DWORD PTR __k$535418[ebp+16], -1248952178 ; b58e808eH
  0025b	c7 85 18 fe ff
	ff 80 8d 93 b5	 mov	 DWORD PTR __k$535418[ebp+20], -1248621184 ; b5938d80H
  00265	c7 85 1c fe ff
	ff 9f 8d 85 8d	 mov	 DWORD PTR __k$535418[ebp+24], -1920627297 ; 8d858d9fH
  0026f	8d 85 04 fe ff
	ff		 lea	 eax, DWORD PTR __k$535418[ebp]
  00275	66 c7 85 20 fe
	ff ff 88 00	 mov	 WORD PTR __k$535418[ebp+28], 136 ; 00000088H
  0027e	8b cb		 mov	 ecx, ebx
$LL530@LoadProper:
  00280	81 30 ed ec eb
	ea		 xor	 DWORD PTR [eax], -353637139 ; eaebecedH
  00286	83 c0 04	 add	 eax, 4
  00289	49		 dec	 ecx
  0028a	75 f4		 jne	 SHORT $LL530@LoadProper
  0028c	0f 57 c0	 xorps	 xmm0, xmm0
  0028f	80 b5 20 fe ff
	ff ed		 xor	 BYTE PTR __k$535418[ebp+28], -19 ; ffffffedH
  00296	51		 push	 ecx
  00297	8d 85 04 fe ff
	ff		 lea	 eax, DWORD PTR __k$535418[ebp]
  0029d	f3 0f 11 04 24	 movss	 DWORD PTR [esp], xmm0
  002a2	50		 push	 eax
  002a3	8b cf		 mov	 ecx, edi
  002a5	ff 15 00 00 00
	00		 call	 DWORD PTR __imp_?LoadFloat@ioINILoader@@QAEMPBDM@Z
  002ab	d9 9e 04 10 00
	00		 fstp	 DWORD PTR [esi+4100]

; 61   : 	m_fSecondCircleMinRange = rkLoader.LoadFloat_e( "second_magic_circle_min_range", 0.0f );

  002b1	c7 85 70 fe ff
	ff 9e 89 88 85	 mov	 DWORD PTR __k$535530[ebp], -2054649442 ; 8588899eH
  002bb	c7 85 74 fe ff
	ff 83 88 b4 87	 mov	 DWORD PTR __k$535530[ebp+4], -2018211709 ; 87b48883H
  002c5	c7 85 78 fe ff
	ff 8c 8b 82 89	 mov	 DWORD PTR __k$535530[ebp+8], -1987933300 ; 89828b8cH
  002cf	c7 85 7c fe ff
	ff b2 8f 82 98	 mov	 DWORD PTR __k$535530[ebp+12], -1736273998 ; 98828fb2H
  002d9	c7 85 80 fe ff
	ff 8e 80 8e b5	 mov	 DWORD PTR __k$535530[ebp+16], -1248952178 ; b58e808eH
  002e3	c7 85 84 fe ff
	ff 80 85 85 b5	 mov	 DWORD PTR __k$535530[ebp+20], -1249540736 ; b5858580H
  002ed	c7 85 88 fe ff
	ff 9f 8d 85 8d	 mov	 DWORD PTR __k$535530[ebp+24], -1920627297 ; 8d858d9fH
  002f7	8d 85 70 fe ff
	ff		 lea	 eax, DWORD PTR __k$535530[ebp]
  002fd	66 c7 85 8c fe
	ff ff 88 00	 mov	 WORD PTR __k$535530[ebp+28], 136 ; 00000088H
  00306	8b cb		 mov	 ecx, ebx
$LL636@LoadProper:
  00308	81 30 ed ec eb
	ea		 xor	 DWORD PTR [eax], -353637139 ; eaebecedH
  0030e	83 c0 04	 add	 eax, 4
  00311	49		 dec	 ecx
  00312	75 f4		 jne	 SHORT $LL636@LoadProper
  00314	0f 57 c0	 xorps	 xmm0, xmm0
  00317	80 b5 8c fe ff
	ff ed		 xor	 BYTE PTR __k$535530[ebp+28], -19 ; ffffffedH
  0031e	51		 push	 ecx
  0031f	8d 85 70 fe ff
	ff		 lea	 eax, DWORD PTR __k$535530[ebp]
  00325	f3 0f 11 04 24	 movss	 DWORD PTR [esp], xmm0
  0032a	50		 push	 eax
  0032b	8b cf		 mov	 ecx, edi
  0032d	ff 15 00 00 00
	00		 call	 DWORD PTR __imp_?LoadFloat@ioINILoader@@QAEMPBDM@Z
  00333	d9 9e 08 10 00
	00		 fstp	 DWORD PTR [esi+4104]

; 62   : 	m_fSecondCircleMoveSpeed = rkLoader.LoadFloat_e( "second_magic_circle_move_speed", 0.0f );

  00339	c7 85 e0 fd ff
	ff 9e 89 88 85	 mov	 DWORD PTR __k$535666[ebp], -2054649442 ; 8588899eH
  00343	c7 85 e4 fd ff
	ff 83 88 b4 87	 mov	 DWORD PTR __k$535666[ebp+4], -2018211709 ; 87b48883H
  0034d	c7 85 e8 fd ff
	ff 8c 8b 82 89	 mov	 DWORD PTR __k$535666[ebp+8], -1987933300 ; 89828b8cH
  00357	c7 85 ec fd ff
	ff b2 8f 82 98	 mov	 DWORD PTR __k$535666[ebp+12], -1736273998 ; 98828fb2H
  00361	c7 85 f0 fd ff
	ff 8e 80 8e b5	 mov	 DWORD PTR __k$535666[ebp+16], -1248952178 ; b58e808eH
  0036b	c7 85 f4 fd ff
	ff 80 83 9d 8f	 mov	 DWORD PTR __k$535666[ebp+20], -1885502592 ; 8f9d8380H
  00375	c7 85 f8 fd ff
	ff b2 9f 9b 8f	 mov	 DWORD PTR __k$535666[ebp+24], -1885626446 ; 8f9b9fb2H
  0037f	66 c7 85 fc fd
	ff ff 88 88	 mov	 WORD PTR __k$535666[ebp+28], 34952 ; 00008888H
  00388	8d 85 e0 fd ff
	ff		 lea	 eax, DWORD PTR __k$535666[ebp]
  0038e	c6 85 fe fd ff
	ff 00		 mov	 BYTE PTR __k$535666[ebp+30], 0
  00395	8b cb		 mov	 ecx, ebx
$LL742@LoadProper:
  00397	81 30 ed ec eb
	ea		 xor	 DWORD PTR [eax], -353637139 ; eaebecedH
  0039d	83 c0 04	 add	 eax, 4
  003a0	49		 dec	 ecx
  003a1	75 f4		 jne	 SHORT $LL742@LoadProper
  003a3	6a 1c		 push	 28			; 0000001cH
  003a5	58		 pop	 eax
$LL739@LoadProper:
  003a6	8b c8		 mov	 ecx, eax
  003a8	81 e1 03 00 00
	80		 and	 ecx, -2147483645	; 80000003H
  003ae	79 05		 jns	 SHORT $LN2651@LoadProper
  003b0	49		 dec	 ecx
  003b1	83 c9 fc	 or	 ecx, -4			; fffffffcH
  003b4	41		 inc	 ecx
$LN2651@LoadProper:
  003b5	b2 ed		 mov	 dl, -19			; ffffffedH
  003b7	2a d1		 sub	 dl, cl
  003b9	30 94 05 e0 fd
	ff ff		 xor	 BYTE PTR __k$535666[ebp+eax], dl
  003c0	40		 inc	 eax
  003c1	83 f8 1e	 cmp	 eax, 30			; 0000001eH
  003c4	7c e0		 jl	 SHORT $LL739@LoadProper
  003c6	0f 57 c0	 xorps	 xmm0, xmm0
  003c9	51		 push	 ecx
  003ca	8d 85 e0 fd ff
	ff		 lea	 eax, DWORD PTR __k$535666[ebp]
  003d0	f3 0f 11 04 24	 movss	 DWORD PTR [esp], xmm0
  003d5	50		 push	 eax
  003d6	8b cf		 mov	 ecx, edi
  003d8	ff 15 00 00 00
	00		 call	 DWORD PTR __imp_?LoadFloat@ioINILoader@@QAEMPBDM@Z
  003de	d9 9e 0c 10 00
	00		 fstp	 DWORD PTR [esi+4108]
  003e4	8b cb		 mov	 ecx, ebx

; 63   : 	m_fSecondCircleHeightGap = rkLoader.LoadFloat_e( "second_magic_circle_height_gap", 0.0f );

  003e6	c7 85 bc fd ff
	ff 9e 89 88 85	 mov	 DWORD PTR __k$535778[ebp], -2054649442 ; 8588899eH
  003f0	c7 85 c0 fd ff
	ff 83 88 b4 87	 mov	 DWORD PTR __k$535778[ebp+4], -2018211709 ; 87b48883H
  003fa	c7 85 c4 fd ff
	ff 8c 8b 82 89	 mov	 DWORD PTR __k$535778[ebp+8], -1987933300 ; 89828b8cH
  00404	c7 85 c8 fd ff
	ff b2 8f 82 98	 mov	 DWORD PTR __k$535778[ebp+12], -1736273998 ; 98828fb2H
  0040e	c7 85 cc fd ff
	ff 8e 80 8e b5	 mov	 DWORD PTR __k$535778[ebp+16], -1248952178 ; b58e808eH
  00418	c7 85 d0 fd ff
	ff 85 89 82 8d	 mov	 DWORD PTR __k$535778[ebp+20], -1920824955 ; 8d828985H
  00422	c7 85 d4 fd ff
	ff 85 98 b4 8d	 mov	 DWORD PTR __k$535778[ebp+24], -1917544315 ; 8db49885H
  0042c	66 c7 85 d8 fd
	ff ff 8c 9c	 mov	 WORD PTR __k$535778[ebp+28], 40076 ; 00009c8cH
  00435	8d 85 bc fd ff
	ff		 lea	 eax, DWORD PTR __k$535778[ebp]
  0043b	c6 85 da fd ff
	ff 00		 mov	 BYTE PTR __k$535778[ebp+30], 0
  00442	bb ed ec eb ea	 mov	 ebx, -353637139		; eaebecedH
$LL848@LoadProper:
  00447	31 18		 xor	 DWORD PTR [eax], ebx
  00449	83 c0 04	 add	 eax, 4
  0044c	49		 dec	 ecx
  0044d	75 f8		 jne	 SHORT $LL848@LoadProper
  0044f	6a 1c		 push	 28			; 0000001cH
  00451	58		 pop	 eax
$LL845@LoadProper:
  00452	8b c8		 mov	 ecx, eax
  00454	81 e1 03 00 00
	80		 and	 ecx, -2147483645	; 80000003H
  0045a	79 05		 jns	 SHORT $LN2652@LoadProper
  0045c	49		 dec	 ecx
  0045d	83 c9 fc	 or	 ecx, -4			; fffffffcH
  00460	41		 inc	 ecx
$LN2652@LoadProper:
  00461	b2 ed		 mov	 dl, -19			; ffffffedH
  00463	2a d1		 sub	 dl, cl
  00465	30 94 05 bc fd
	ff ff		 xor	 BYTE PTR __k$535778[ebp+eax], dl
  0046c	40		 inc	 eax
  0046d	83 f8 1e	 cmp	 eax, 30			; 0000001eH
  00470	7c e0		 jl	 SHORT $LL845@LoadProper
  00472	0f 57 c0	 xorps	 xmm0, xmm0
  00475	51		 push	 ecx
  00476	8d 85 bc fd ff
	ff		 lea	 eax, DWORD PTR __k$535778[ebp]
  0047c	f3 0f 11 04 24	 movss	 DWORD PTR [esp], xmm0
  00481	50		 push	 eax
  00482	8b cf		 mov	 ecx, edi
  00484	ff 15 00 00 00
	00		 call	 DWORD PTR __imp_?LoadFloat@ioINILoader@@QAEMPBDM@Z
  0048a	d9 9e 10 10 00
	00		 fstp	 DWORD PTR [esi+4112]
  00490	6a 06		 push	 6

; 64   : 	m_fSecondCircleOffSet = rkLoader.LoadFloat_e( "second_magic_circle_offset", 0.0f );

  00492	c7 85 94 fe ff
	ff 9e 89 88 85	 mov	 DWORD PTR __k$535903[ebp], -2054649442 ; 8588899eH
  0049c	c7 85 98 fe ff
	ff 83 88 b4 87	 mov	 DWORD PTR __k$535903[ebp+4], -2018211709 ; 87b48883H
  004a6	c7 85 9c fe ff
	ff 8c 8b 82 89	 mov	 DWORD PTR __k$535903[ebp+8], -1987933300 ; 89828b8cH
  004b0	c7 85 a0 fe ff
	ff b2 8f 82 98	 mov	 DWORD PTR __k$535903[ebp+12], -1736273998 ; 98828fb2H
  004ba	c7 85 a4 fe ff
	ff 8e 80 8e b5	 mov	 DWORD PTR __k$535903[ebp+16], -1248952178 ; b58e808eH
  004c4	c7 85 a8 fe ff
	ff 82 8a 8d 99	 mov	 DWORD PTR __k$535903[ebp+20], -1718777214 ; 998d8a82H
  004ce	66 c7 85 ac fe
	ff ff 88 98	 mov	 WORD PTR __k$535903[ebp+24], 39048 ; 00009888H
  004d7	8d 85 94 fe ff
	ff		 lea	 eax, DWORD PTR __k$535903[ebp]
  004dd	c6 85 ae fe ff
	ff 00		 mov	 BYTE PTR __k$535903[ebp+26], 0
  004e4	59		 pop	 ecx
$LL954@LoadProper:
  004e5	31 18		 xor	 DWORD PTR [eax], ebx
  004e7	83 c0 04	 add	 eax, 4
  004ea	49		 dec	 ecx
  004eb	75 f8		 jne	 SHORT $LL954@LoadProper
  004ed	6a 18		 push	 24			; 00000018H
  004ef	58		 pop	 eax
$LL951@LoadProper:
  004f0	8b c8		 mov	 ecx, eax
  004f2	81 e1 03 00 00
	80		 and	 ecx, -2147483645	; 80000003H
  004f8	79 05		 jns	 SHORT $LN2653@LoadProper
  004fa	49		 dec	 ecx
  004fb	83 c9 fc	 or	 ecx, -4			; fffffffcH
  004fe	41		 inc	 ecx
$LN2653@LoadProper:
  004ff	b2 ed		 mov	 dl, -19			; ffffffedH
  00501	2a d1		 sub	 dl, cl
  00503	30 94 05 94 fe
	ff ff		 xor	 BYTE PTR __k$535903[ebp+eax], dl
  0050a	40		 inc	 eax
  0050b	83 f8 1a	 cmp	 eax, 26			; 0000001aH
  0050e	7c e0		 jl	 SHORT $LL951@LoadProper
  00510	0f 57 c0	 xorps	 xmm0, xmm0
  00513	51		 push	 ecx
  00514	8d 85 94 fe ff
	ff		 lea	 eax, DWORD PTR __k$535903[ebp]
  0051a	f3 0f 11 04 24	 movss	 DWORD PTR [esp], xmm0
  0051f	50		 push	 eax
  00520	8b cf		 mov	 ecx, edi
  00522	ff 15 00 00 00
	00		 call	 DWORD PTR __imp_?LoadFloat@ioINILoader@@QAEMPBDM@Z
  00528	d9 9e 14 10 00
	00		 fstp	 DWORD PTR [esi+4116]
  0052e	6a 04		 push	 4

; 65   : 
; 66   : 	rkLoader.LoadString_e( "stamp_magic_circle", "", szBuf, MAX_PATH );

  00530	c7 45 8c 9e 98
	8a 87		 mov	 DWORD PTR __k$536028[ebp], -2020960098 ; 878a989eH
  00537	c7 45 90 9d b3
	86 8b		 mov	 DWORD PTR __k$536028[ebp+4], -1954106467 ; 8b86b39dH
  0053e	c7 45 94 8a 85
	88 b5		 mov	 DWORD PTR __k$536028[ebp+8], -1249344118 ; b588858aH
  00545	c7 45 98 8e 85
	99 89		 mov	 DWORD PTR __k$536028[ebp+12], -1986427506 ; 8999858eH
  0054c	66 c7 45 9c 81
	89		 mov	 WORD PTR __k$536028[ebp+16], 35201 ; 00008981H
  00552	8d 45 8c	 lea	 eax, DWORD PTR __k$536028[ebp]
  00555	c6 45 9e 00	 mov	 BYTE PTR __k$536028[ebp+18], 0
  00559	59		 pop	 ecx
$LL1060@LoadProper:
  0055a	31 18		 xor	 DWORD PTR [eax], ebx
  0055c	83 c0 04	 add	 eax, 4
  0055f	49		 dec	 ecx
  00560	75 f8		 jne	 SHORT $LL1060@LoadProper
  00562	6a 10		 push	 16			; 00000010H
  00564	58		 pop	 eax
$LL1057@LoadProper:
  00565	8b c8		 mov	 ecx, eax
  00567	81 e1 03 00 00
	80		 and	 ecx, -2147483645	; 80000003H
  0056d	79 05		 jns	 SHORT $LN2654@LoadProper
  0056f	49		 dec	 ecx
  00570	83 c9 fc	 or	 ecx, -4			; fffffffcH
  00573	41		 inc	 ecx
$LN2654@LoadProper:
  00574	b2 ed		 mov	 dl, -19			; ffffffedH
  00576	2a d1		 sub	 dl, cl
  00578	30 54 05 8c	 xor	 BYTE PTR __k$536028[ebp+eax], dl
  0057c	40		 inc	 eax
  0057d	83 f8 12	 cmp	 eax, 18			; 00000012H
  00580	7c e3		 jl	 SHORT $LL1057@LoadProper
  00582	8b 1d 00 00 00
	00		 mov	 ebx, DWORD PTR __imp_?LoadStringA@ioINILoader@@QAEXPBD0PADH@Z
  00588	68 04 01 00 00	 push	 260			; 00000104H
  0058d	8d 85 20 fc ff
	ff		 lea	 eax, DWORD PTR _szBuf$[ebp]
  00593	50		 push	 eax
  00594	68 00 00 00 00	 push	 OFFSET ??_C@_00CNPNBAHC@?$AA@
  00599	8d 45 8c	 lea	 eax, DWORD PTR __k$536028[ebp]
  0059c	50		 push	 eax
  0059d	8b cf		 mov	 ecx, edi
  0059f	ff d3		 call	 ebx

; 67   : 	m_szStampCircleEffect = szBuf;

  005a1	8d 85 20 fc ff
	ff		 lea	 eax, DWORD PTR _szBuf$[ebp]
  005a7	50		 push	 eax
  005a8	8d 8e 78 10 00
	00		 lea	 ecx, DWORD PTR [esi+4216]
  005ae	ff 15 00 00 00
	00		 call	 DWORD PTR __imp_??4ioHashString@@QAEAAV0@PBD@Z
  005b4	6a 06		 push	 6

; 68   : 
; 69   : 	rkLoader.LoadString_e( "move_key_on_magic_circle", "", szBuf, MAX_PATH );

  005b6	c7 85 9c fd ff
	ff 80 83 9d 8f	 mov	 DWORD PTR __k$536166[ebp], -1885502592 ; 8f9d8380H
  005c0	c7 85 a0 fd ff
	ff b2 87 8e 93	 mov	 DWORD PTR __k$536166[ebp+4], -1819375694 ; 938e87b2H
  005ca	c7 85 a4 fd ff
	ff b2 83 85 b5	 mov	 DWORD PTR __k$536166[ebp+8], -1249541198 ; b58583b2H
  005d4	c7 85 a8 fd ff
	ff 80 8d 8c 83	 mov	 DWORD PTR __k$536166[ebp+12], -2087940736 ; 838c8d80H
  005de	c7 85 ac fd ff
	ff 8e b3 88 83	 mov	 DWORD PTR __k$536166[ebp+16], -2088193138 ; 8388b38eH
  005e8	c7 85 b0 fd ff
	ff 9f 8f 87 8f	 mov	 DWORD PTR __k$536166[ebp+20], -1886941281 ; 8f878f9fH
  005f2	8d 85 9c fd ff
	ff		 lea	 eax, DWORD PTR __k$536166[ebp]
  005f8	c6 85 b4 fd ff
	ff 00		 mov	 BYTE PTR __k$536166[ebp+24], 0
  005ff	59		 pop	 ecx
$LL1166@LoadProper:
  00600	81 30 ed ec eb
	ea		 xor	 DWORD PTR [eax], -353637139 ; eaebecedH
  00606	83 c0 04	 add	 eax, 4
  00609	49		 dec	 ecx
  0060a	75 f4		 jne	 SHORT $LL1166@LoadProper
  0060c	68 04 01 00 00	 push	 260			; 00000104H
  00611	8d 85 20 fc ff
	ff		 lea	 eax, DWORD PTR _szBuf$[ebp]
  00617	50		 push	 eax
  00618	68 00 00 00 00	 push	 OFFSET ??_C@_00CNPNBAHC@?$AA@
  0061d	8d 85 9c fd ff
	ff		 lea	 eax, DWORD PTR __k$536166[ebp]
  00623	50		 push	 eax
  00624	8b cf		 mov	 ecx, edi
  00626	ff d3		 call	 ebx

; 70   : 	m_OnCircle = szBuf;

  00628	8d 85 20 fc ff
	ff		 lea	 eax, DWORD PTR _szBuf$[ebp]
  0062e	50		 push	 eax
  0062f	8d 8e 48 10 00
	00		 lea	 ecx, DWORD PTR [esi+4168]
  00635	ff 15 00 00 00
	00		 call	 DWORD PTR __imp_??4ioHashString@@QAEAAV0@PBD@Z
  0063b	6a 06		 push	 6

; 71   : 	rkLoader.LoadString_e( "move_key_off_magic_circle", "", szBuf, MAX_PATH );

  0063d	c7 85 d4 fe ff
	ff 80 83 9d 8f	 mov	 DWORD PTR __k$536291[ebp], -1885502592 ; 8f9d8380H
  00647	c7 85 d8 fe ff
	ff b2 87 8e 93	 mov	 DWORD PTR __k$536291[ebp+4], -1819375694 ; 938e87b2H
  00651	c7 85 dc fe ff
	ff b2 83 8d 8c	 mov	 DWORD PTR __k$536291[ebp+8], -1936882766 ; 8c8d83b2H
  0065b	c7 85 e0 fe ff
	ff b2 81 8a 8d	 mov	 DWORD PTR __k$536291[ebp+12], -1920302670 ; 8d8a81b2H
  00665	c7 85 e4 fe ff
	ff 84 8f b4 89	 mov	 DWORD PTR __k$536291[ebp+16], -1984655484 ; 89b48f84H
  0066f	c7 85 e8 fe ff
	ff 84 9e 88 86	 mov	 DWORD PTR __k$536291[ebp+20], -2037866876 ; 86889e84H
  00679	8d 85 d4 fe ff
	ff		 lea	 eax, DWORD PTR __k$536291[ebp]
  0067f	66 c7 85 ec fe
	ff ff 88 00	 mov	 WORD PTR __k$536291[ebp+24], 136 ; 00000088H
  00688	59		 pop	 ecx
$LL1272@LoadProper:
  00689	81 30 ed ec eb
	ea		 xor	 DWORD PTR [eax], -353637139 ; eaebecedH
  0068f	83 c0 04	 add	 eax, 4
  00692	49		 dec	 ecx
  00693	75 f4		 jne	 SHORT $LL1272@LoadProper
  00695	80 b5 ec fe ff
	ff ed		 xor	 BYTE PTR __k$536291[ebp+24], -19 ; ffffffedH
  0069c	68 04 01 00 00	 push	 260			; 00000104H
  006a1	8d 85 20 fc ff
	ff		 lea	 eax, DWORD PTR _szBuf$[ebp]
  006a7	50		 push	 eax
  006a8	68 00 00 00 00	 push	 OFFSET ??_C@_00CNPNBAHC@?$AA@
  006ad	8d 85 d4 fe ff
	ff		 lea	 eax, DWORD PTR __k$536291[ebp]
  006b3	50		 push	 eax
  006b4	8b cf		 mov	 ecx, edi
  006b6	ff d3		 call	 ebx

; 72   : 	m_OffCircle = szBuf;

  006b8	8d 85 20 fc ff
	ff		 lea	 eax, DWORD PTR _szBuf$[ebp]
  006be	50		 push	 eax
  006bf	8d 8e 58 10 00
	00		 lea	 ecx, DWORD PTR [esi+4184]
  006c5	ff 15 00 00 00
	00		 call	 DWORD PTR __imp_??4ioHashString@@QAEAAV0@PBD@Z
  006cb	6a 09		 push	 9

; 73   : 
; 74   : 	m_fCircleKeyOnHeightMin = rkLoader.LoadFloat_e( "second_magic_circle_key_on_height_min", 0.0f );

  006cd	c7 85 24 fd ff
	ff 9e 89 88 85	 mov	 DWORD PTR __k$536431[ebp], -2054649442 ; 8588899eH
  006d7	c7 85 28 fd ff
	ff 83 88 b4 87	 mov	 DWORD PTR __k$536431[ebp+4], -2018211709 ; 87b48883H
  006e1	c7 85 2c fd ff
	ff 8c 8b 82 89	 mov	 DWORD PTR __k$536431[ebp+8], -1987933300 ; 89828b8cH
  006eb	c7 85 30 fd ff
	ff b2 8f 82 98	 mov	 DWORD PTR __k$536431[ebp+12], -1736273998 ; 98828fb2H
  006f5	c7 85 34 fd ff
	ff 8e 80 8e b5	 mov	 DWORD PTR __k$536431[ebp+16], -1248952178 ; b58e808eH
  006ff	c7 85 38 fd ff
	ff 86 89 92 b5	 mov	 DWORD PTR __k$536431[ebp+20], -1248687738 ; b5928986H
  00709	c7 85 3c fd ff
	ff 82 82 b4 82	 mov	 DWORD PTR __k$536431[ebp+24], -2102099326 ; 82b48282H
  00713	c7 85 40 fd ff
	ff 88 85 8c 82	 mov	 DWORD PTR __k$536431[ebp+28], -2104719992 ; 828c8588H
  0071d	c7 85 44 fd ff
	ff 99 b3 86 83	 mov	 DWORD PTR __k$536431[ebp+32], -2088324199 ; 8386b399H
  00727	8d 85 24 fd ff
	ff		 lea	 eax, DWORD PTR __k$536431[ebp]
  0072d	66 c7 85 48 fd
	ff ff 83 00	 mov	 WORD PTR __k$536431[ebp+36], 131 ; 00000083H
  00736	59		 pop	 ecx
$LL1378@LoadProper:
  00737	81 30 ed ec eb
	ea		 xor	 DWORD PTR [eax], -353637139 ; eaebecedH
  0073d	83 c0 04	 add	 eax, 4
  00740	49		 dec	 ecx
  00741	75 f4		 jne	 SHORT $LL1378@LoadProper
  00743	0f 57 c0	 xorps	 xmm0, xmm0
  00746	80 b5 48 fd ff
	ff ed		 xor	 BYTE PTR __k$536431[ebp+36], -19 ; ffffffedH
  0074d	51		 push	 ecx
  0074e	8d 85 24 fd ff
	ff		 lea	 eax, DWORD PTR __k$536431[ebp]
  00754	f3 0f 11 04 24	 movss	 DWORD PTR [esp], xmm0
  00759	50		 push	 eax
  0075a	8b cf		 mov	 ecx, edi
  0075c	ff 15 00 00 00
	00		 call	 DWORD PTR __imp_?LoadFloat@ioINILoader@@QAEMPBDM@Z
  00762	d9 9e 3c 10 00
	00		 fstp	 DWORD PTR [esi+4156]
  00768	6a 09		 push	 9

; 75   : 	m_fCircleKeyOnHeightMax = rkLoader.LoadFloat_e( "second_magic_circle_key_on_height_max", 0.0f );

  0076a	c7 85 50 fd ff
	ff 9e 89 88 85	 mov	 DWORD PTR __k$536543[ebp], -2054649442 ; 8588899eH
  00774	c7 85 54 fd ff
	ff 83 88 b4 87	 mov	 DWORD PTR __k$536543[ebp+4], -2018211709 ; 87b48883H
  0077e	c7 85 58 fd ff
	ff 8c 8b 82 89	 mov	 DWORD PTR __k$536543[ebp+8], -1987933300 ; 89828b8cH
  00788	c7 85 5c fd ff
	ff b2 8f 82 98	 mov	 DWORD PTR __k$536543[ebp+12], -1736273998 ; 98828fb2H
  00792	c7 85 60 fd ff
	ff 8e 80 8e b5	 mov	 DWORD PTR __k$536543[ebp+16], -1248952178 ; b58e808eH
  0079c	c7 85 64 fd ff
	ff 86 89 92 b5	 mov	 DWORD PTR __k$536543[ebp+20], -1248687738 ; b5928986H
  007a6	c7 85 68 fd ff
	ff 82 82 b4 82	 mov	 DWORD PTR __k$536543[ebp+24], -2102099326 ; 82b48282H
  007b0	c7 85 6c fd ff
	ff 88 85 8c 82	 mov	 DWORD PTR __k$536543[ebp+28], -2104719992 ; 828c8588H
  007ba	c7 85 70 fd ff
	ff 99 b3 86 8b	 mov	 DWORD PTR __k$536543[ebp+32], -1954106471 ; 8b86b399H
  007c4	8d 85 50 fd ff
	ff		 lea	 eax, DWORD PTR __k$536543[ebp]
  007ca	66 c7 85 74 fd
	ff ff 95 00	 mov	 WORD PTR __k$536543[ebp+36], 149 ; 00000095H
  007d3	59		 pop	 ecx
$LL1484@LoadProper:
  007d4	81 30 ed ec eb
	ea		 xor	 DWORD PTR [eax], -353637139 ; eaebecedH
  007da	83 c0 04	 add	 eax, 4
  007dd	49		 dec	 ecx
  007de	75 f4		 jne	 SHORT $LL1484@LoadProper
  007e0	0f 57 c0	 xorps	 xmm0, xmm0
  007e3	80 b5 74 fd ff
	ff ed		 xor	 BYTE PTR __k$536543[ebp+36], -19 ; ffffffedH
  007ea	51		 push	 ecx
  007eb	8d 85 50 fd ff
	ff		 lea	 eax, DWORD PTR __k$536543[ebp]
  007f1	f3 0f 11 04 24	 movss	 DWORD PTR [esp], xmm0
  007f6	50		 push	 eax
  007f7	8b cf		 mov	 ecx, edi
  007f9	ff 15 00 00 00
	00		 call	 DWORD PTR __imp_?LoadFloat@ioINILoader@@QAEMPBDM@Z
  007ff	d9 9e 40 10 00
	00		 fstp	 DWORD PTR [esi+4160]

; 76   : 
; 77   : 	m_fCircleToCircleGap = rkLoader.LoadFloat_e( "circle_to_circle_offset", FLOAT100 );

  00805	b8 64 00 00 00	 mov	 eax, 100		; 00000064H
  0080a	6a 05		 push	 5
  0080c	c7 85 f4 fe ff
	ff 8e 85 99 89	 mov	 DWORD PTR __k$536657[ebp], -1986427506 ; 8999858eH
  00816	c7 85 f8 fe ff
	ff 81 89 b4 9e	 mov	 DWORD PTR __k$536657[ebp+4], -1632335487 ; 9eb48981H
  00820	c7 85 fc fe ff
	ff 82 b3 88 83	 mov	 DWORD PTR __k$536657[ebp+8], -2088193150 ; 8388b382H
  0082a	c7 85 00 ff ff
	ff 9f 8f 87 8f	 mov	 DWORD PTR __k$536657[ebp+12], -1886941281 ; 8f878f9fH
  00834	c7 85 04 ff ff
	ff b2 83 8d 8c	 mov	 DWORD PTR __k$536657[ebp+16], -1936882766 ; 8c8d83b2H
  0083e	8d 8d f4 fe ff
	ff		 lea	 ecx, DWORD PTR __k$536657[ebp]
  00844	c7 85 08 ff ff
	ff 9e 89 9f 00	 mov	 DWORD PTR __k$536657[ebp+20], 10455454 ; 009f899eH
  0084e	5a		 pop	 edx
$LL1592@LoadProper:
  0084f	81 31 ed ec eb
	ea		 xor	 DWORD PTR [ecx], -353637139 ; eaebecedH
  00855	83 c1 04	 add	 ecx, 4
  00858	4a		 dec	 edx
  00859	75 f4		 jne	 SHORT $LL1592@LoadProper
  0085b	c7 85 1c fc ff
	ff 14 00 00 00	 mov	 DWORD PTR _i$536697[ebp], 20 ; 00000014H
$LL1589@LoadProper:
  00865	8b 8d 1c fc ff
	ff		 mov	 ecx, DWORD PTR _i$536697[ebp]
  0086b	81 e1 03 00 00
	80		 and	 ecx, -2147483645	; 80000003H
  00871	79 05		 jns	 SHORT $LN2655@LoadProper
  00873	49		 dec	 ecx
  00874	83 c9 fc	 or	 ecx, -4			; fffffffcH
  00877	41		 inc	 ecx
$LN2655@LoadProper:
  00878	b2 ed		 mov	 dl, -19			; ffffffedH
  0087a	2a d1		 sub	 dl, cl
  0087c	8b 8d 1c fc ff
	ff		 mov	 ecx, DWORD PTR _i$536697[ebp]
  00882	30 94 0d f4 fe
	ff ff		 xor	 BYTE PTR __k$536657[ebp+ecx], dl
  00889	ff 85 1c fc ff
	ff		 inc	 DWORD PTR _i$536697[ebp]
  0088f	83 bd 1c fc ff
	ff 17		 cmp	 DWORD PTR _i$536697[ebp], 23 ; 00000017H
  00896	7c cd		 jl	 SHORT $LL1589@LoadProper
  00898	89 85 1c fc ff
	ff		 mov	 DWORD PTR tv23274[ebp], eax
  0089e	db 85 1c fc ff
	ff		 fild	 DWORD PTR tv23274[ebp]
  008a4	85 c0		 test	 eax, eax
  008a6	79 06		 jns	 SHORT $LN2656@LoadProper
  008a8	d8 05 00 00 00
	00		 fadd	 DWORD PTR __real@4f800000
$LN2656@LoadProper:
  008ae	51		 push	 ecx
  008af	8d 85 f4 fe ff
	ff		 lea	 eax, DWORD PTR __k$536657[ebp]
  008b5	d9 1c 24	 fstp	 DWORD PTR [esp]
  008b8	50		 push	 eax
  008b9	8b cf		 mov	 ecx, edi
  008bb	ff 15 00 00 00
	00		 call	 DWORD PTR __imp_?LoadFloat@ioINILoader@@QAEMPBDM@Z
  008c1	d9 9e 44 10 00
	00		 fstp	 DWORD PTR [esi+4164]
  008c7	6a 04		 push	 4

; 78   : 
; 79   : 	m_dwProtectTime = rkLoader.LoadInt_e( "loop_protect_time", 0 );

  008c9	c7 45 b8 81 83
	84 9a		 mov	 DWORD PTR __k$536782[ebp], -1702591615 ; 9a848381H
  008d0	c7 45 bc b2 9c
	99 85		 mov	 DWORD PTR __k$536782[ebp+4], -2053530446 ; 85999cb2H
  008d7	c7 45 c0 99 89
	88 9e		 mov	 DWORD PTR __k$536782[ebp+8], -1635219047 ; 9e888999H
  008de	c7 45 c4 b2 98
	82 87		 mov	 DWORD PTR __k$536782[ebp+12], -2021484366 ; 878298b2H
  008e5	8d 45 b8	 lea	 eax, DWORD PTR __k$536782[ebp]
  008e8	66 c7 45 c8 88
	00		 mov	 WORD PTR __k$536782[ebp+16], 136 ; 00000088H
  008ee	59		 pop	 ecx
$LL1698@LoadProper:
  008ef	81 30 ed ec eb
	ea		 xor	 DWORD PTR [eax], -353637139 ; eaebecedH
  008f5	83 c0 04	 add	 eax, 4
  008f8	49		 dec	 ecx
  008f9	75 f4		 jne	 SHORT $LL1698@LoadProper
  008fb	80 75 c8 ed	 xor	 BYTE PTR __k$536782[ebp+16], -19 ; ffffffedH
  008ff	51		 push	 ecx
  00900	8d 45 b8	 lea	 eax, DWORD PTR __k$536782[ebp]
  00903	50		 push	 eax
  00904	8b cf		 mov	 ecx, edi
  00906	ff 15 00 00 00
	00		 call	 DWORD PTR __imp_?LoadInt@ioINILoader@@QAEHPBDH@Z
  0090c	89 86 8c 0f 00
	00		 mov	 DWORD PTR [esi+3980], eax
  00912	6a 04		 push	 4

; 80   : 
; 81   : 	rkLoader.LoadString_e( "skill_loop_motion", "", szBuf, MAX_PATH );

  00914	c7 45 d0 9e 87
	82 86		 mov	 DWORD PTR __k$536920[ebp], -2038265954 ; 8682879eH
  0091b	c7 45 d4 81 b3
	87 85		 mov	 DWORD PTR __k$536920[ebp+4], -2054704255 ; 8587b381H
  00922	c7 45 d8 82 9c
	b4 87		 mov	 DWORD PTR __k$536920[ebp+8], -2018206590 ; 87b49c82H
  00929	c7 45 dc 82 98
	82 85		 mov	 DWORD PTR __k$536920[ebp+12], -2055038846 ; 85829882H
  00930	8d 45 d0	 lea	 eax, DWORD PTR __k$536920[ebp]
  00933	66 c7 45 e0 83
	00		 mov	 WORD PTR __k$536920[ebp+16], 131 ; 00000083H
  00939	59		 pop	 ecx
$LL1804@LoadProper:
  0093a	81 30 ed ec eb
	ea		 xor	 DWORD PTR [eax], -353637139 ; eaebecedH
  00940	83 c0 04	 add	 eax, 4
  00943	49		 dec	 ecx
  00944	75 f4		 jne	 SHORT $LL1804@LoadProper
  00946	80 75 e0 ed	 xor	 BYTE PTR __k$536920[ebp+16], -19 ; ffffffedH
  0094a	68 04 01 00 00	 push	 260			; 00000104H
  0094f	8d 85 20 fc ff
	ff		 lea	 eax, DWORD PTR _szBuf$[ebp]
  00955	50		 push	 eax
  00956	68 00 00 00 00	 push	 OFFSET ??_C@_00CNPNBAHC@?$AA@
  0095b	8d 45 d0	 lea	 eax, DWORD PTR __k$536920[ebp]
  0095e	50		 push	 eax
  0095f	8b cf		 mov	 ecx, edi
  00961	ff d3		 call	 ebx

; 82   : 	m_SkillLoopMotion = szBuf;

  00963	8d 85 20 fc ff
	ff		 lea	 eax, DWORD PTR _szBuf$[ebp]
  00969	50		 push	 eax
  0096a	8d 8e 90 0f 00
	00		 lea	 ecx, DWORD PTR [esi+3984]
  00970	ff 15 00 00 00
	00		 call	 DWORD PTR __imp_??4ioHashString@@QAEAAV0@PBD@Z

; 83   : 
; 84   : 	m_fSkillLoopMotionRate = rkLoader.LoadFloat_e( "skill_loop_motion_rate", FLOAT1 );

  00976	b8 01 00 00 00	 mov	 eax, 1
  0097b	6a 05		 push	 5
  0097d	c7 85 40 ff ff
	ff 9e 87 82 86	 mov	 DWORD PTR __k$537049[ebp], -2038265954 ; 8682879eH
  00987	c7 85 44 ff ff
	ff 81 b3 87 85	 mov	 DWORD PTR __k$537049[ebp+4], -2054704255 ; 8587b381H
  00991	c7 85 48 ff ff
	ff 82 9c b4 87	 mov	 DWORD PTR __k$537049[ebp+8], -2018206590 ; 87b49c82H
  0099b	c7 85 4c ff ff
	ff 82 98 82 85	 mov	 DWORD PTR __k$537049[ebp+12], -2055038846 ; 85829882H
  009a5	c7 85 50 ff ff
	ff 83 b3 99 8b	 mov	 DWORD PTR __k$537049[ebp+16], -1952861309 ; 8b99b383H
  009af	66 c7 85 54 ff
	ff ff 99 89	 mov	 WORD PTR __k$537049[ebp+20], 35225 ; 00008999H
  009b8	8d 8d 40 ff ff
	ff		 lea	 ecx, DWORD PTR __k$537049[ebp]
  009be	c6 85 56 ff ff
	ff 00		 mov	 BYTE PTR __k$537049[ebp+22], 0
  009c5	5a		 pop	 edx
$LL1912@LoadProper:
  009c6	81 31 ed ec eb
	ea		 xor	 DWORD PTR [ecx], -353637139 ; eaebecedH
  009cc	83 c1 04	 add	 ecx, 4
  009cf	4a		 dec	 edx
  009d0	75 f4		 jne	 SHORT $LL1912@LoadProper
  009d2	c7 85 1c fc ff
	ff 14 00 00 00	 mov	 DWORD PTR _i$537039[ebp], 20 ; 00000014H
$LL1909@LoadProper:
  009dc	8b 8d 1c fc ff
	ff		 mov	 ecx, DWORD PTR _i$537039[ebp]
  009e2	81 e1 03 00 00
	80		 and	 ecx, -2147483645	; 80000003H
  009e8	79 05		 jns	 SHORT $LN2657@LoadProper
  009ea	49		 dec	 ecx
  009eb	83 c9 fc	 or	 ecx, -4			; fffffffcH
  009ee	41		 inc	 ecx
$LN2657@LoadProper:
  009ef	b2 ed		 mov	 dl, -19			; ffffffedH
  009f1	2a d1		 sub	 dl, cl
  009f3	8b 8d 1c fc ff
	ff		 mov	 ecx, DWORD PTR _i$537039[ebp]
  009f9	30 94 0d 40 ff
	ff ff		 xor	 BYTE PTR __k$537049[ebp+ecx], dl
  00a00	ff 85 1c fc ff
	ff		 inc	 DWORD PTR _i$537039[ebp]
  00a06	83 bd 1c fc ff
	ff 16		 cmp	 DWORD PTR _i$537039[ebp], 22 ; 00000016H
  00a0d	7c cd		 jl	 SHORT $LL1909@LoadProper
  00a0f	89 85 1c fc ff
	ff		 mov	 DWORD PTR tv23259[ebp], eax
  00a15	db 85 1c fc ff
	ff		 fild	 DWORD PTR tv23259[ebp]
  00a1b	85 c0		 test	 eax, eax
  00a1d	79 06		 jns	 SHORT $LN2658@LoadProper
  00a1f	d8 05 00 00 00
	00		 fadd	 DWORD PTR __real@4f800000
$LN2658@LoadProper:
  00a25	51		 push	 ecx
  00a26	8d 85 40 ff ff
	ff		 lea	 eax, DWORD PTR __k$537049[ebp]
  00a2c	d9 1c 24	 fstp	 DWORD PTR [esp]
  00a2f	50		 push	 eax
  00a30	8b cf		 mov	 ecx, edi
  00a32	ff 15 00 00 00
	00		 call	 DWORD PTR __imp_?LoadFloat@ioINILoader@@QAEMPBDM@Z
  00a38	d9 9e a0 0f 00
	00		 fstp	 DWORD PTR [esi+4000]
  00a3e	6a 04		 push	 4

; 85   : 	m_dwLoopDuration = rkLoader.LoadInt_e( "skill_loop_duration", 0 );

  00a40	c7 85 74 ff ff
	ff 9e 87 82 86	 mov	 DWORD PTR __k$537174[ebp], -2038265954 ; 8682879eH
  00a4a	c7 85 78 ff ff
	ff 81 b3 87 85	 mov	 DWORD PTR __k$537174[ebp+4], -2054704255 ; 8587b381H
  00a54	c7 85 7c ff ff
	ff 82 9c b4 8e	 mov	 DWORD PTR __k$537174[ebp+8], -1900766078 ; 8eb49c82H
  00a5e	c7 45 80 98 9e
	8a 9e		 mov	 DWORD PTR __k$537174[ebp+12], -1635082600 ; 9e8a9e98H
  00a65	8d 85 74 ff ff
	ff		 lea	 eax, DWORD PTR __k$537174[ebp]
  00a6b	c7 45 84 84 83
	85 00		 mov	 DWORD PTR __k$537174[ebp+16], 8749956 ; 00858384H
  00a72	59		 pop	 ecx
$LL2018@LoadProper:
  00a73	81 30 ed ec eb
	ea		 xor	 DWORD PTR [eax], -353637139 ; eaebecedH
  00a79	83 c0 04	 add	 eax, 4
  00a7c	49		 dec	 ecx
  00a7d	75 f4		 jne	 SHORT $LL2018@LoadProper
  00a7f	6a 10		 push	 16			; 00000010H
  00a81	58		 pop	 eax
$LL2015@LoadProper:
  00a82	8b c8		 mov	 ecx, eax
  00a84	81 e1 03 00 00
	80		 and	 ecx, -2147483645	; 80000003H
  00a8a	79 05		 jns	 SHORT $LN2659@LoadProper
  00a8c	49		 dec	 ecx
  00a8d	83 c9 fc	 or	 ecx, -4			; fffffffcH
  00a90	41		 inc	 ecx
$LN2659@LoadProper:
  00a91	b2 ed		 mov	 dl, -19			; ffffffedH
  00a93	2a d1		 sub	 dl, cl
  00a95	30 94 05 74 ff
	ff ff		 xor	 BYTE PTR __k$537174[ebp+eax], dl
  00a9c	40		 inc	 eax
  00a9d	83 f8 13	 cmp	 eax, 19			; 00000013H
  00aa0	7c e0		 jl	 SHORT $LL2015@LoadProper
  00aa2	6a 00		 push	 0
  00aa4	8d 85 74 ff ff
	ff		 lea	 eax, DWORD PTR __k$537174[ebp]
  00aaa	50		 push	 eax
  00aab	8b cf		 mov	 ecx, edi
  00aad	ff 15 00 00 00
	00		 call	 DWORD PTR __imp_?LoadInt@ioINILoader@@QAEHPBDH@Z
  00ab3	89 86 d0 0f 00
	00		 mov	 DWORD PTR [esi+4048], eax
  00ab9	6a 04		 push	 4

; 86   : 
; 87   : 	rkLoader.LoadString_e( "area_weapon_name", "", szBuf, MAX_PATH );

  00abb	c7 85 28 ff ff
	ff 8c 9e 8e 8b	 mov	 DWORD PTR __k$537299[ebp], -1953587572 ; 8b8e9e8cH
  00ac5	c7 85 2c ff ff
	ff b2 9b 8e 8b	 mov	 DWORD PTR __k$537299[ebp+4], -1953588302 ; 8b8e9bb2H
  00acf	c7 85 30 ff ff
	ff 9d 83 85 b5	 mov	 DWORD PTR __k$537299[ebp+8], -1249541219 ; b585839dH
  00ad9	c7 85 34 ff ff
	ff 83 8d 86 8f	 mov	 DWORD PTR __k$537299[ebp+12], -1887007357 ; 8f868d83H
  00ae3	8d 85 28 ff ff
	ff		 lea	 eax, DWORD PTR __k$537299[ebp]
  00ae9	c6 85 38 ff ff
	ff 00		 mov	 BYTE PTR __k$537299[ebp+16], 0
  00af0	59		 pop	 ecx
$LL2124@LoadProper:
  00af1	81 30 ed ec eb
	ea		 xor	 DWORD PTR [eax], -353637139 ; eaebecedH
  00af7	83 c0 04	 add	 eax, 4
  00afa	49		 dec	 ecx
  00afb	75 f4		 jne	 SHORT $LL2124@LoadProper
  00afd	68 04 01 00 00	 push	 260			; 00000104H
  00b02	8d 85 20 fc ff
	ff		 lea	 eax, DWORD PTR _szBuf$[ebp]
  00b08	50		 push	 eax
  00b09	68 00 00 00 00	 push	 OFFSET ??_C@_00CNPNBAHC@?$AA@
  00b0e	8d 85 28 ff ff
	ff		 lea	 eax, DWORD PTR __k$537299[ebp]
  00b14	50		 push	 eax
  00b15	8b cf		 mov	 ecx, edi
  00b17	ff d3		 call	 ebx

; 88   : 	m_AreaWeaponName = szBuf;

  00b19	8d 85 20 fc ff
	ff		 lea	 eax, DWORD PTR _szBuf$[ebp]
  00b1f	50		 push	 eax
  00b20	8d 8e 9c 10 00
	00		 lea	 ecx, DWORD PTR [esi+4252]
  00b26	ff 15 00 00 00
	00		 call	 DWORD PTR __imp_??4ioHashString@@QAEAAV0@PBD@Z
  00b2c	6a 03		 push	 3

; 89   : 
; 90   : 	rkLoader.LoadString_e( "skill_motion", "", szBuf, MAX_PATH );

  00b2e	c7 45 a4 9e 87
	82 86		 mov	 DWORD PTR __k$537452[ebp], -2038265954 ; 8682879eH
  00b35	c7 45 a8 81 b3
	86 85		 mov	 DWORD PTR __k$537452[ebp+4], -2054769791 ; 8586b381H
  00b3c	c7 45 ac 99 85
	84 84		 mov	 DWORD PTR __k$537452[ebp+8], -2071689831 ; 84848599H
  00b43	8d 45 a4	 lea	 eax, DWORD PTR __k$537452[ebp]
  00b46	c6 45 b0 00	 mov	 BYTE PTR __k$537452[ebp+12], 0
  00b4a	59		 pop	 ecx
$LL2230@LoadProper:
  00b4b	81 30 ed ec eb
	ea		 xor	 DWORD PTR [eax], -353637139 ; eaebecedH
  00b51	83 c0 04	 add	 eax, 4
  00b54	49		 dec	 ecx
  00b55	75 f4		 jne	 SHORT $LL2230@LoadProper
  00b57	68 04 01 00 00	 push	 260			; 00000104H
  00b5c	8d 85 20 fc ff
	ff		 lea	 eax, DWORD PTR _szBuf$[ebp]
  00b62	50		 push	 eax
  00b63	68 00 00 00 00	 push	 OFFSET ??_C@_00CNPNBAHC@?$AA@
  00b68	8d 45 a4	 lea	 eax, DWORD PTR __k$537452[ebp]
  00b6b	50		 push	 eax
  00b6c	8b cf		 mov	 ecx, edi
  00b6e	ff d3		 call	 ebx

; 91   : 	m_SkillMotion = szBuf;	

  00b70	8d 85 20 fc ff
	ff		 lea	 eax, DWORD PTR _szBuf$[ebp]
  00b76	50		 push	 eax
  00b77	8d 8e a4 0f 00
	00		 lea	 ecx, DWORD PTR [esi+4004]
  00b7d	ff 15 00 00 00
	00		 call	 DWORD PTR __imp_??4ioHashString@@QAEAAV0@PBD@Z

; 92   : 	m_fSkillMototionRate =  rkLoader.LoadFloat_e( "animation_time_rate", FLOAT1 );

  00b83	b8 01 00 00 00	 mov	 eax, 1
  00b88	6a 04		 push	 4
  00b8a	c7 85 5c ff ff
	ff 8c 82 82 87	 mov	 DWORD PTR __k$537540[ebp], -2021490036 ; 8782828cH
  00b94	c7 85 60 ff ff
	ff 8c 98 82 85	 mov	 DWORD PTR __k$537540[ebp+4], -2055038836 ; 8582988cH
  00b9e	c7 85 64 ff ff
	ff 83 b3 9f 83	 mov	 DWORD PTR __k$537540[ebp+8], -2086685821 ; 839fb383H
  00ba8	c7 85 68 ff ff
	ff 80 89 b4 98	 mov	 DWORD PTR __k$537540[ebp+12], -1732998784 ; 98b48980H
  00bb2	8d 8d 5c ff ff
	ff		 lea	 ecx, DWORD PTR __k$537540[ebp]
  00bb8	c7 85 6c ff ff
	ff 8c 98 8e 00	 mov	 DWORD PTR __k$537540[ebp+16], 9345164 ; 008e988cH
  00bc2	5a		 pop	 edx
$LL2338@LoadProper:
  00bc3	81 31 ed ec eb
	ea		 xor	 DWORD PTR [ecx], -353637139 ; eaebecedH
  00bc9	83 c1 04	 add	 ecx, 4
  00bcc	4a		 dec	 edx
  00bcd	75 f4		 jne	 SHORT $LL2338@LoadProper
  00bcf	c7 85 1c fc ff
	ff 10 00 00 00	 mov	 DWORD PTR _i$537640[ebp], 16 ; 00000010H
$LL2335@LoadProper:
  00bd9	8b 8d 1c fc ff
	ff		 mov	 ecx, DWORD PTR _i$537640[ebp]
  00bdf	81 e1 03 00 00
	80		 and	 ecx, -2147483645	; 80000003H
  00be5	79 05		 jns	 SHORT $LN2660@LoadProper
  00be7	49		 dec	 ecx
  00be8	83 c9 fc	 or	 ecx, -4			; fffffffcH
  00beb	41		 inc	 ecx
$LN2660@LoadProper:
  00bec	b2 ed		 mov	 dl, -19			; ffffffedH
  00bee	2a d1		 sub	 dl, cl
  00bf0	8b 8d 1c fc ff
	ff		 mov	 ecx, DWORD PTR _i$537640[ebp]
  00bf6	30 94 0d 5c ff
	ff ff		 xor	 BYTE PTR __k$537540[ebp+ecx], dl
  00bfd	ff 85 1c fc ff
	ff		 inc	 DWORD PTR _i$537640[ebp]
  00c03	83 bd 1c fc ff
	ff 13		 cmp	 DWORD PTR _i$537640[ebp], 19 ; 00000013H
  00c0a	7c cd		 jl	 SHORT $LL2335@LoadProper
  00c0c	89 85 1c fc ff
	ff		 mov	 DWORD PTR tv23239[ebp], eax
  00c12	db 85 1c fc ff
	ff		 fild	 DWORD PTR tv23239[ebp]
  00c18	85 c0		 test	 eax, eax
  00c1a	79 06		 jns	 SHORT $LN2661@LoadProper
  00c1c	d8 05 00 00 00
	00		 fadd	 DWORD PTR __real@4f800000
$LN2661@LoadProper:
  00c22	51		 push	 ecx
  00c23	8d 85 5c ff ff
	ff		 lea	 eax, DWORD PTR __k$537540[ebp]
  00c29	d9 1c 24	 fstp	 DWORD PTR [esp]
  00c2c	50		 push	 eax
  00c2d	8b cf		 mov	 ecx, edi
  00c2f	ff 15 00 00 00
	00		 call	 DWORD PTR __imp_?LoadFloat@ioINILoader@@QAEMPBDM@Z
  00c35	d9 9e b4 0f 00
	00		 fstp	 DWORD PTR [esi+4020]
  00c3b	6a 04		 push	 4

; 93   : 
; 94   : 	rkLoader.LoadString_e( "skill_end_motion", "", szBuf, MAX_PATH );

  00c3d	c7 85 10 ff ff
	ff 9e 87 82 86	 mov	 DWORD PTR __k$537678[ebp], -2038265954 ; 8682879eH
  00c47	c7 85 14 ff ff
	ff 81 b3 8e 84	 mov	 DWORD PTR __k$537678[ebp+4], -2071022719 ; 848eb381H
  00c51	c7 85 18 ff ff
	ff 89 b3 86 85	 mov	 DWORD PTR __k$537678[ebp+8], -2054769783 ; 8586b389H
  00c5b	c7 85 1c ff ff
	ff 99 85 84 84	 mov	 DWORD PTR __k$537678[ebp+12], -2071689831 ; 84848599H
  00c65	8d 85 10 ff ff
	ff		 lea	 eax, DWORD PTR __k$537678[ebp]
  00c6b	c6 85 20 ff ff
	ff 00		 mov	 BYTE PTR __k$537678[ebp+16], 0
  00c72	59		 pop	 ecx
$LL2444@LoadProper:
  00c73	81 30 ed ec eb
	ea		 xor	 DWORD PTR [eax], -353637139 ; eaebecedH
  00c79	83 c0 04	 add	 eax, 4
  00c7c	49		 dec	 ecx
  00c7d	75 f4		 jne	 SHORT $LL2444@LoadProper
  00c7f	68 04 01 00 00	 push	 260			; 00000104H
  00c84	8d 85 20 fc ff
	ff		 lea	 eax, DWORD PTR _szBuf$[ebp]
  00c8a	50		 push	 eax
  00c8b	68 00 00 00 00	 push	 OFFSET ??_C@_00CNPNBAHC@?$AA@
  00c90	8d 85 10 ff ff
	ff		 lea	 eax, DWORD PTR __k$537678[ebp]
  00c96	50		 push	 eax
  00c97	8b cf		 mov	 ecx, edi
  00c99	ff d3		 call	 ebx

; 95   : 	m_SkillEndMotion = szBuf;	

  00c9b	8d 85 20 fc ff
	ff		 lea	 eax, DWORD PTR _szBuf$[ebp]
  00ca1	50		 push	 eax
  00ca2	8d 8e bc 0f 00
	00		 lea	 ecx, DWORD PTR [esi+4028]
  00ca8	ff 15 00 00 00
	00		 call	 DWORD PTR __imp_??4ioHashString@@QAEAAV0@PBD@Z

; 96   : 
; 97   : 	m_fSkillEndMototionRate =  rkLoader.LoadFloat_e( "end_motion_rate", FLOAT1 );

  00cae	b8 01 00 00 00	 mov	 eax, 1
  00cb3	6a 03		 push	 3
  00cb5	c7 45 e8 88 82
	8f b5		 mov	 DWORD PTR __k$537807[ebp], -1248886136 ; b58f8288H
  00cbc	c7 45 ec 80 83
	9f 83		 mov	 DWORD PTR __k$537807[ebp+4], -2086698112 ; 839f8380H
  00cc3	c7 45 f0 82 82
	b4 98		 mov	 DWORD PTR __k$537807[ebp+8], -1733000574 ; 98b48282H
  00cca	8d 4d e8	 lea	 ecx, DWORD PTR __k$537807[ebp]
  00ccd	c7 45 f4 8c 98
	8e 00		 mov	 DWORD PTR __k$537807[ebp+12], 9345164 ; 008e988cH
  00cd4	5a		 pop	 edx
$LL2552@LoadProper:
  00cd5	81 31 ed ec eb
	ea		 xor	 DWORD PTR [ecx], -353637139 ; eaebecedH
  00cdb	83 c1 04	 add	 ecx, 4
  00cde	4a		 dec	 edx
  00cdf	75 f4		 jne	 SHORT $LL2552@LoadProper
  00ce1	6a 0c		 push	 12			; 0000000cH
  00ce3	59		 pop	 ecx
$LL2549@LoadProper:
  00ce4	8b d1		 mov	 edx, ecx
  00ce6	81 e2 03 00 00
	80		 and	 edx, -2147483645	; 80000003H
  00cec	79 05		 jns	 SHORT $LN2662@LoadProper
  00cee	4a		 dec	 edx
  00cef	83 ca fc	 or	 edx, -4			; fffffffcH
  00cf2	42		 inc	 edx
$LN2662@LoadProper:
  00cf3	b3 ed		 mov	 bl, -19			; ffffffedH
  00cf5	2a da		 sub	 bl, dl
  00cf7	30 5c 0d e8	 xor	 BYTE PTR __k$537807[ebp+ecx], bl
  00cfb	41		 inc	 ecx
  00cfc	83 f9 0f	 cmp	 ecx, 15			; 0000000fH
  00cff	7c e3		 jl	 SHORT $LL2549@LoadProper
  00d01	89 85 1c fc ff
	ff		 mov	 DWORD PTR tv23226[ebp], eax
  00d07	db 85 1c fc ff
	ff		 fild	 DWORD PTR tv23226[ebp]
  00d0d	85 c0		 test	 eax, eax
  00d0f	79 06		 jns	 SHORT $LN2663@LoadProper
  00d11	d8 05 00 00 00
	00		 fadd	 DWORD PTR __real@4f800000
$LN2663@LoadProper:
  00d17	51		 push	 ecx
  00d18	8d 45 e8	 lea	 eax, DWORD PTR __k$537807[ebp]
  00d1b	d9 1c 24	 fstp	 DWORD PTR [esp]
  00d1e	50		 push	 eax
  00d1f	8b cf		 mov	 ecx, edi
  00d21	ff 15 00 00 00
	00		 call	 DWORD PTR __imp_?LoadFloat@ioINILoader@@QAEMPBDM@Z
  00d27	d9 9e cc 0f 00
	00		 fstp	 DWORD PTR [esi+4044]

; 98   : }

  00d2d	8b 4d fc	 mov	 ecx, DWORD PTR __$ArrayPad$[ebp]
  00d30	5f		 pop	 edi
  00d31	5e		 pop	 esi
  00d32	33 cd		 xor	 ecx, ebp
  00d34	5b		 pop	 ebx
  00d35	e8 00 00 00 00	 call	 @__security_check_cookie@4
  00d3a	c9		 leave
  00d3b	c2 04 00	 ret	 4
?LoadProperty@ioTwoMagicCircleSkill@@UAEXAAVioINILoader@@@Z ENDP ; ioTwoMagicCircleSkill::LoadProperty
_TEXT	ENDS
PUBLIC	?ClearData@ioTwoMagicCircleSkill@@IAEXXZ	; ioTwoMagicCircleSkill::ClearData
EXTRN	__imp_?Clear@ioHashString@@QAEXXZ:PROC
EXTRN	__imp_?VEC3_ZERO@ioMath@@2UD3DXVECTOR3@@A:BYTE
; Function compile flags: /Ogsp
;	COMDAT ?ClearData@ioTwoMagicCircleSkill@@IAEXXZ
_TEXT	SEGMENT
_value$538026 = -4					; size = 4
_value$538022 = -4					; size = 4
?ClearData@ioTwoMagicCircleSkill@@IAEXXZ PROC		; ioTwoMagicCircleSkill::ClearData, COMDAT
; _this$ = ecx

; 106  : {

  00000	55		 push	 ebp
  00001	8b ec		 mov	 ebp, esp
  00003	51		 push	 ecx
  00004	53		 push	 ebx
  00005	56		 push	 esi
  00006	57		 push	 edi
  00007	8b d9		 mov	 ebx, ecx

; 107  : 	m_State = SS_NONE;

  00009	8d 45 fc	 lea	 eax, DWORD PTR _value$538022[ebp]
  0000c	33 f6		 xor	 esi, esi
  0000e	50		 push	 eax
  0000f	8d 8b 58 0f 00
	00		 lea	 ecx, DWORD PTR [ebx+3928]
  00015	89 75 fc	 mov	 DWORD PTR _value$538022[ebp], esi
  00018	e8 00 00 00 00	 call	 ?EncryptValueToPool@?$CEncrypt@H@@AAEXPBD@Z ; CEncrypt<int>::EncryptValueToPool

; 108  : 	m_CircleState = FIRST_CIRCLE;
; 109  : 
; 110  : 	m_dwLoopDurationStart = 0;
; 111  : 
; 112  : 	m_dwMotionEndTime = 0;
; 113  : 	m_dwMotionStartTime = 0;

  0001d	8d 45 fc	 lea	 eax, DWORD PTR _value$538026[ebp]
  00020	50		 push	 eax
  00021	8d 8b a8 02 00
	00		 lea	 ecx, DWORD PTR [ebx+680]
  00027	89 b3 88 0f 00
	00		 mov	 DWORD PTR [ebx+3976], esi
  0002d	89 b3 d4 0f 00
	00		 mov	 DWORD PTR [ebx+4052], esi
  00033	89 b3 d8 02 00
	00		 mov	 DWORD PTR [ebx+728], esi
  00039	89 75 fc	 mov	 DWORD PTR _value$538026[ebp], esi
  0003c	e8 00 00 00 00	 call	 ?EncryptValueToPool@?$CEncrypt@K@@AAEXPBD@Z ; CEncrypt<unsigned long>::EncryptValueToPool

; 114  : 	m_dwEndMotionEndTime = 0;
; 115  : 	m_fFirstMapHeight = 0;

  00041	0f 57 c0	 xorps	 xmm0, xmm0
  00044	89 b3 d8 0f 00
	00		 mov	 DWORD PTR [ebx+4056], esi
  0004a	f3 0f 11 83 ec
	0f 00 00	 movss	 DWORD PTR [ebx+4076], xmm0

; 116  : 
; 117  : 	m_vCirclePos = ioMath::VEC3_ZERO;

  00052	8b 35 00 00 00
	00		 mov	 esi, DWORD PTR __imp_?VEC3_ZERO@ioMath@@2UD3DXVECTOR3@@A
  00058	8d bb 18 10 00
	00		 lea	 edi, DWORD PTR [ebx+4120]
  0005e	a5		 movsd
  0005f	a5		 movsd
  00060	a5		 movsd

; 118  : 	m_vFirstCirclePos = ioMath::VEC3_ZERO;

  00061	8b 35 00 00 00
	00		 mov	 esi, DWORD PTR __imp_?VEC3_ZERO@ioMath@@2UD3DXVECTOR3@@A
  00067	8d bb 24 10 00
	00		 lea	 edi, DWORD PTR [ebx+4132]
  0006d	a5		 movsd
  0006e	a5		 movsd
  0006f	a5		 movsd

; 119  : 	m_vSecondCirclePos =  ioMath::VEC3_ZERO; 

  00070	8b 35 00 00 00
	00		 mov	 esi, DWORD PTR __imp_?VEC3_ZERO@ioMath@@2UD3DXVECTOR3@@A
  00076	8d bb 30 10 00
	00		 lea	 edi, DWORD PTR [ebx+4144]
  0007c	a5		 movsd
  0007d	a5		 movsd
  0007e	a5		 movsd

; 120  : 
; 121  : 	m_bFirstOffCircle = false;
; 122  : 	m_bSecondOffCircle = false;
; 123  : 
; 124  : 	m_CurCircleEffect.Clear();

  0007f	8d 8b f0 0f 00
	00		 lea	 ecx, DWORD PTR [ebx+4080]
  00085	66 c7 83 00 10
	00 00 00 00	 mov	 WORD PTR [ebx+4096], 0
  0008e	ff 15 00 00 00
	00		 call	 DWORD PTR __imp_?Clear@ioHashString@@QAEXXZ

; 125  : 
; 126  : 	m_bDropzone = false;
; 127  : 
; 128  : 	m_dwFirstStampCircleEffect = - 1;

  00094	83 8b 88 10 00
	00 ff		 or	 DWORD PTR [ebx+4232], -1

; 129  : 	m_dwSecondStampCircleEffect= - 1;

  0009b	83 8b 8c 10 00
	00 ff		 or	 DWORD PTR [ebx+4236], -1

; 130  : 	
; 131  : 	m_bSetHandMesh = false;
; 132  : 	m_bReduceGauge = false;
; 133  : 
; 134  : 	m_bEnableSecnodCircle = false;
; 135  : 
; 136  : 	m_dwCheckCallCircleCnt = 0;

  000a2	83 a3 ac 10 00
	00 00		 and	 DWORD PTR [ebx+4268], 0

; 137  : 
; 138  : 	m_CurCircleEffect = m_OnCircle;

  000a9	8d 83 48 10 00
	00		 lea	 eax, DWORD PTR [ebx+4168]
  000af	50		 push	 eax
  000b0	8d 8b f0 0f 00
	00		 lea	 ecx, DWORD PTR [ebx+4080]
  000b6	c6 83 98 10 00
	00 00		 mov	 BYTE PTR [ebx+4248], 0
  000bd	c6 83 0a 0f 00
	00 00		 mov	 BYTE PTR [ebx+3850], 0
  000c4	c6 83 50 03 00
	00 00		 mov	 BYTE PTR [ebx+848], 0
  000cb	c6 83 02 10 00
	00 00		 mov	 BYTE PTR [ebx+4098], 0
  000d2	ff 15 00 00 00
	00		 call	 DWORD PTR __imp_??4ioHashString@@QAEAAV0@ABV0@@Z

; 139  : 
; 140  : 	m_SkillMotionEndTime = 0;

  000d8	83 a3 b8 0f 00
	00 00		 and	 DWORD PTR [ebx+4024], 0
  000df	5f		 pop	 edi
  000e0	5e		 pop	 esi
  000e1	5b		 pop	 ebx

; 141  : }

  000e2	c9		 leave
  000e3	c3		 ret	 0
?ClearData@ioTwoMagicCircleSkill@@IAEXXZ ENDP		; ioTwoMagicCircleSkill::ClearData
_TEXT	ENDS
EXTRN	?EndMapEffect@ioBaseChar@@QAEXK_N@Z:PROC	; ioBaseChar::EndMapEffect
EXTRN	?DestroyMagicCircle@ioBaseGUISupport@@QAEXXZ:PROC ; ioBaseGUISupport::DestroyMagicCircle
EXTRN	?EndCameraBuff@ioSkill@@IAEXPAVioBaseChar@@@Z:PROC ; ioSkill::EndCameraBuff
EXTRN	?RestoreSkillWeaponMesh@ioBaseChar@@QAE_NPAVioSkill@@ABVioHashString@@_N2@Z:PROC ; ioBaseChar::RestoreSkillWeaponMesh
EXTRN	__imp_?IsEmpty@ioHashString@@QBE_NXZ:PROC
EXTRN	?ShowWeaponItemMesh@ioBaseChar@@QAEX_N0@Z:PROC	; ioBaseChar::ShowWeaponItemMesh
EXTRN	?OnSkillEnd@ioNormalSkill@@UAEXPAVioBaseChar@@@Z:PROC ; ioNormalSkill::OnSkillEnd
; Function compile flags: /Ogsp
;	COMDAT ?OnSkillEnd@ioTwoMagicCircleSkill@@UAEXPAVioBaseChar@@@Z
_TEXT	SEGMENT
_pChar$ = 8						; size = 4
?OnSkillEnd@ioTwoMagicCircleSkill@@UAEXPAVioBaseChar@@@Z PROC ; ioTwoMagicCircleSkill::OnSkillEnd, COMDAT
; _this$ = ecx

; 172  : {

  00000	55		 push	 ebp
  00001	8b ec		 mov	 ebp, esp
  00003	53		 push	 ebx

; 173  : 	ioNormalSkill::OnSkillEnd( pChar );

  00004	8b 5d 08	 mov	 ebx, DWORD PTR _pChar$[ebp]
  00007	56		 push	 esi
  00008	57		 push	 edi
  00009	53		 push	 ebx
  0000a	8b f1		 mov	 esi, ecx
  0000c	e8 00 00 00 00	 call	 ?OnSkillEnd@ioNormalSkill@@UAEXPAVioBaseChar@@@Z ; ioNormalSkill::OnSkillEnd

; 174  : 	
; 175  : 	// 기본무기 장착
; 176  : 	if( m_bUseItemMesh )

  00011	80 be 08 0f 00
	00 00		 cmp	 BYTE PTR [esi+3848], 0
  00018	74 0b		 je	 SHORT $LN7@OnSkillEnd

; 177  : 	{
; 178  : 		pChar->ShowWeaponItemMesh( true );

  0001a	6a 00		 push	 0
  0001c	6a 01		 push	 1
  0001e	8b cb		 mov	 ecx, ebx
  00020	e8 00 00 00 00	 call	 ?ShowWeaponItemMesh@ioBaseChar@@QAEX_N0@Z ; ioBaseChar::ShowWeaponItemMesh
$LN7@OnSkillEnd:

; 179  : 	}
; 180  : 
; 181  : 	// 스킬 중간 동작에 사용된 메쉬들 제거
; 182  : 	m_bSetHandMesh = false;
; 183  : 	if( !m_HandMesh.IsEmpty() )

  00025	8d be f8 0e 00
	00		 lea	 edi, DWORD PTR [esi+3832]
  0002b	8b cf		 mov	 ecx, edi
  0002d	c6 86 0a 0f 00
	00 00		 mov	 BYTE PTR [esi+3850], 0
  00034	ff 15 00 00 00
	00		 call	 DWORD PTR __imp_?IsEmpty@ioHashString@@QBE_NXZ
  0003a	84 c0		 test	 al, al
  0003c	75 13		 jne	 SHORT $LN3@OnSkillEnd

; 184  : 		pChar->RestoreSkillWeaponMesh( this, m_HandMesh, m_bVisibleEquipMesh );

  0003e	0f b6 86 09 0f
	00 00		 movzx	 eax, BYTE PTR [esi+3849]
  00045	6a 00		 push	 0
  00047	50		 push	 eax
  00048	57		 push	 edi
  00049	56		 push	 esi
  0004a	8b cb		 mov	 ecx, ebx
  0004c	e8 00 00 00 00	 call	 ?RestoreSkillWeaponMesh@ioBaseChar@@QAE_NPAVioSkill@@ABVioHashString@@_N2@Z ; ioBaseChar::RestoreSkillWeaponMesh
$LN3@OnSkillEnd:

; 185  : 
; 186  : 	EndCameraBuff( pChar );

  00051	53		 push	 ebx
  00052	8b ce		 mov	 ecx, esi
  00054	e8 00 00 00 00	 call	 ?EndCameraBuff@ioSkill@@IAEXPAVioBaseChar@@@Z ; ioSkill::EndCameraBuff

; 187  : 
; 188  : 	pChar->DestroyMagicCircle();

  00059	8d 8b cc 01 00
	00		 lea	 ecx, DWORD PTR [ebx+460]
  0005f	e8 00 00 00 00	 call	 ?DestroyMagicCircle@ioBaseGUISupport@@QAEXXZ ; ioBaseGUISupport::DestroyMagicCircle

; 189  : 
; 190  : 	if( m_dwFirstStampCircleEffect != -1 )

  00064	8b 86 88 10 00
	00		 mov	 eax, DWORD PTR [esi+4232]
  0006a	83 f8 ff	 cmp	 eax, -1
  0006d	74 11		 je	 SHORT $LN2@OnSkillEnd

; 191  : 	{
; 192  : 		pChar->EndMapEffect( m_dwFirstStampCircleEffect, false );

  0006f	6a 00		 push	 0
  00071	50		 push	 eax
  00072	8b cb		 mov	 ecx, ebx
  00074	e8 00 00 00 00	 call	 ?EndMapEffect@ioBaseChar@@QAEXK_N@Z ; ioBaseChar::EndMapEffect

; 193  : 		m_dwFirstStampCircleEffect = -1;

  00079	83 8e 88 10 00
	00 ff		 or	 DWORD PTR [esi+4232], -1
$LN2@OnSkillEnd:

; 194  : 	}
; 195  : 
; 196  : 	if( m_dwSecondStampCircleEffect != -1 )

  00080	8b 86 8c 10 00
	00		 mov	 eax, DWORD PTR [esi+4236]
  00086	83 f8 ff	 cmp	 eax, -1
  00089	74 11		 je	 SHORT $LN1@OnSkillEnd

; 197  : 	{
; 198  : 		pChar->EndMapEffect( m_dwSecondStampCircleEffect, false );

  0008b	6a 00		 push	 0
  0008d	50		 push	 eax
  0008e	8b cb		 mov	 ecx, ebx
  00090	e8 00 00 00 00	 call	 ?EndMapEffect@ioBaseChar@@QAEXK_N@Z ; ioBaseChar::EndMapEffect

; 199  : 		m_dwSecondStampCircleEffect = -1;

  00095	83 8e 8c 10 00
	00 ff		 or	 DWORD PTR [esi+4236], -1
$LN1@OnSkillEnd:

; 200  : 	}
; 201  : 
; 202  : 	ClearData();

  0009c	8b ce		 mov	 ecx, esi
  0009e	e8 00 00 00 00	 call	 ?ClearData@ioTwoMagicCircleSkill@@IAEXXZ ; ioTwoMagicCircleSkill::ClearData
  000a3	5f		 pop	 edi
  000a4	5e		 pop	 esi
  000a5	5b		 pop	 ebx

; 203  : }

  000a6	5d		 pop	 ebp
  000a7	c2 04 00	 ret	 4
?OnSkillEnd@ioTwoMagicCircleSkill@@UAEXPAVioBaseChar@@@Z ENDP ; ioTwoMagicCircleSkill::OnSkillEnd
_TEXT	ENDS
PUBLIC	__real@41f0000000000000
PUBLIC	?SetActionState@ioTwoMagicCircleSkill@@IAEXPAVioBaseChar@@PAVioPlayStage@@W4CircleState@1@@Z ; ioTwoMagicCircleSkill::SetActionState
EXTRN	__imp_?GetAnimationFullTime@ioEntityGroup@@QAEMH@Z:PROC
EXTRN	__imp_?SetActionAni@ioEntityGroup@@QAE_NHMMMMMM_N0@Z:PROC
EXTRN	__imp_?ClearAllActionAni@ioEntityGroup@@QAEXM_N@Z:PROC
EXTRN	__imp_?ClearAllLoopAni@ioEntityGroup@@QAEXM_N@Z:PROC
EXTRN	__imp_?GetAnimationIdx@ioEntityGroup@@QAEHABVioHashString@@@Z:PROC
EXTRN	__imp_?GetLoopSec@ioFrameTimer@@QBEKXZ:PROC
EXTRN	__imp_?GetSingleton@ioFrameTimer@@SAAAV1@XZ:PROC
EXTRN	__ftol2:PROC
;	COMDAT __real@41f0000000000000
; File d:\lost saga for developer\youtube\tutorial\source\src\lsclient\stdafx.h
CONST	SEGMENT
__real@41f0000000000000 DQ 041f0000000000000r	; 4.29497e+009
; Function compile flags: /Ogsp
; File d:\lost saga for developer\youtube\tutorial\source\src\lsclient\iotwomagiccircleskill.cpp
CONST	ENDS
;	COMDAT ?SetActionState@ioTwoMagicCircleSkill@@IAEXPAVioBaseChar@@PAVioPlayStage@@W4CircleState@1@@Z
_TEXT	SEGMENT
tv212 = -8						; size = 4
tv207 = -8						; size = 4
tv192 = -8						; size = 4
tv135 = -8						; size = 4
$T538058 = -8						; size = 4
tv199 = -4						; size = 4
tv196 = -4						; size = 4
tv194 = -4						; size = 4
tv143 = 8						; size = 4
_value$538038 = 8					; size = 4
_iAniID$ = 8						; size = 4
_pChar$ = 8						; size = 4
_pStage$ = 12						; size = 4
_fTimeRate$ = 16					; size = 4
_cState$ = 16						; size = 4
?SetActionState@ioTwoMagicCircleSkill@@IAEXPAVioBaseChar@@PAVioPlayStage@@W4CircleState@1@@Z PROC ; ioTwoMagicCircleSkill::SetActionState, COMDAT
; _this$ = ecx

; 595  : {

  00000	55		 push	 ebp
  00001	8b ec		 mov	 ebp, esp
  00003	51		 push	 ecx
  00004	51		 push	 ecx
  00005	56		 push	 esi
  00006	57		 push	 edi

; 596  : 	if( !pChar ) return;

  00007	8b 7d 08	 mov	 edi, DWORD PTR _pChar$[ebp]
  0000a	8b f1		 mov	 esi, ecx
  0000c	85 ff		 test	 edi, edi
  0000e	0f 84 69 01 00
	00		 je	 $LN3@SetActionS

; 597  : 
; 598  : 	DWORD dwCurTime = FRAMEGETTIME();

  00014	53		 push	 ebx
  00015	ff 15 00 00 00
	00		 call	 DWORD PTR __imp_?GetSingleton@ioFrameTimer@@SAAAV1@XZ
  0001b	8b c8		 mov	 ecx, eax
  0001d	ff 15 00 00 00
	00		 call	 DWORD PTR __imp_?GetLoopSec@ioFrameTimer@@QBEKXZ

; 599  : 	ioEntityGroup *pGrp = pChar->GetGroup();

  00023	8b 7f 04	 mov	 edi, DWORD PTR [edi+4]
  00026	8b d8		 mov	 ebx, eax

; 600  : 
; 601  : 	m_CircleState = cState;

  00028	8b 45 10	 mov	 eax, DWORD PTR _cState$[ebp]
  0002b	89 86 88 0f 00
	00		 mov	 DWORD PTR [esi+3976], eax

; 602  : 	m_State = SS_ACTION;

  00031	8d 45 08	 lea	 eax, DWORD PTR _value$538038[ebp]
  00034	50		 push	 eax
  00035	8d 8e 58 0f 00
	00		 lea	 ecx, DWORD PTR [esi+3928]
  0003b	c7 45 08 02 00
	00 00		 mov	 DWORD PTR _value$538038[ebp], 2
  00042	e8 00 00 00 00	 call	 ?EncryptValueToPool@?$CEncrypt@H@@AAEXPBD@Z ; CEncrypt<int>::EncryptValueToPool

; 603  : 
; 604  : 	int iAniID = pGrp->GetAnimationIdx( m_SkillMotion );

  00047	8d 86 a4 0f 00
	00		 lea	 eax, DWORD PTR [esi+4004]
  0004d	50		 push	 eax
  0004e	8b cf		 mov	 ecx, edi
  00050	ff 15 00 00 00
	00		 call	 DWORD PTR __imp_?GetAnimationIdx@ioEntityGroup@@QAEHABVioHashString@@@Z
  00056	89 45 08	 mov	 DWORD PTR _iAniID$[ebp], eax

; 605  : 	if( iAniID == -1 )	return;

  00059	83 f8 ff	 cmp	 eax, -1
  0005c	0f 84 1a 01 00
	00		 je	 $LN21@SetActionS

; 606  : 	float fTimeRate = m_fSkillMototionRate;

  00062	d9 86 b4 0f 00
	00		 fld	 DWORD PTR [esi+4020]
  00068	d9 5d 10	 fstp	 DWORD PTR _fTimeRate$[ebp]

; 607  : 
; 608  : 	pGrp->ClearAllLoopAni( FLOAT100, true );

  0006b	b8 64 00 00 00	 mov	 eax, 100		; 00000064H
  00070	89 45 f8	 mov	 DWORD PTR tv212[ebp], eax
  00073	db 45 f8	 fild	 DWORD PTR tv212[ebp]
  00076	6a 01		 push	 1
  00078	85 c0		 test	 eax, eax
  0007a	79 06		 jns	 SHORT $LN22@SetActionS
  0007c	d8 05 00 00 00
	00		 fadd	 DWORD PTR __real@4f800000
$LN22@SetActionS:
  00082	51		 push	 ecx
  00083	8b cf		 mov	 ecx, edi
  00085	d9 1c 24	 fstp	 DWORD PTR [esp]
  00088	ff 15 00 00 00
	00		 call	 DWORD PTR __imp_?ClearAllLoopAni@ioEntityGroup@@QAEXM_N@Z

; 609  : 	pGrp->ClearAllActionAni( FLOAT100, true );

  0008e	b8 64 00 00 00	 mov	 eax, 100		; 00000064H
  00093	89 45 f8	 mov	 DWORD PTR tv207[ebp], eax
  00096	db 45 f8	 fild	 DWORD PTR tv207[ebp]
  00099	6a 01		 push	 1
  0009b	85 c0		 test	 eax, eax
  0009d	79 06		 jns	 SHORT $LN23@SetActionS
  0009f	d8 05 00 00 00
	00		 fadd	 DWORD PTR __real@4f800000
$LN23@SetActionS:
  000a5	51		 push	 ecx
  000a6	8b cf		 mov	 ecx, edi
  000a8	d9 1c 24	 fstp	 DWORD PTR [esp]
  000ab	ff 15 00 00 00
	00		 call	 DWORD PTR __imp_?ClearAllActionAni@ioEntityGroup@@QAEXM_N@Z

; 610  : 	pGrp->SetActionAni( iAniID, FLOAT100, FLOAT100, FLOAT1, FLOAT1/fTimeRate );

  000b1	b8 01 00 00 00	 mov	 eax, 1
  000b6	8b c8		 mov	 ecx, eax
  000b8	b8 01 00 00 00	 mov	 eax, 1
  000bd	8b d0		 mov	 edx, eax
  000bf	b8 64 00 00 00	 mov	 eax, 100		; 00000064H
  000c4	89 45 f8	 mov	 DWORD PTR $T538058[ebp], eax
  000c7	b8 64 00 00 00	 mov	 eax, 100		; 00000064H
  000cc	0f 57 c0	 xorps	 xmm0, xmm0
  000cf	6a 01		 push	 1
  000d1	6a 00		 push	 0
  000d3	83 ec 18	 sub	 esp, 24			; 00000018H
  000d6	89 4d fc	 mov	 DWORD PTR tv199[ebp], ecx
  000d9	db 45 fc	 fild	 DWORD PTR tv199[ebp]
  000dc	f3 0f 11 44 24
	14		 movss	 DWORD PTR [esp+20], xmm0
  000e2	f3 0f 11 44 24
	10		 movss	 DWORD PTR [esp+16], xmm0
  000e8	85 c9		 test	 ecx, ecx
  000ea	79 06		 jns	 SHORT $LN24@SetActionS
  000ec	d8 05 00 00 00
	00		 fadd	 DWORD PTR __real@4f800000
$LN24@SetActionS:
  000f2	d8 75 10	 fdiv	 DWORD PTR _fTimeRate$[ebp]
  000f5	d9 5d fc	 fstp	 DWORD PTR tv196[ebp]
  000f8	d9 45 fc	 fld	 DWORD PTR tv196[ebp]
  000fb	d9 5c 24 0c	 fstp	 DWORD PTR [esp+12]
  000ff	89 55 fc	 mov	 DWORD PTR tv194[ebp], edx
  00102	db 45 fc	 fild	 DWORD PTR tv194[ebp]
  00105	85 d2		 test	 edx, edx
  00107	79 06		 jns	 SHORT $LN25@SetActionS
  00109	d8 05 00 00 00
	00		 fadd	 DWORD PTR __real@4f800000
$LN25@SetActionS:
  0010f	8b 4d f8	 mov	 ecx, DWORD PTR $T538058[ebp]
  00112	d9 5c 24 08	 fstp	 DWORD PTR [esp+8]
  00116	db 45 f8	 fild	 DWORD PTR $T538058[ebp]
  00119	85 c9		 test	 ecx, ecx
  0011b	79 06		 jns	 SHORT $LN26@SetActionS
  0011d	d8 05 00 00 00
	00		 fadd	 DWORD PTR __real@4f800000
$LN26@SetActionS:
  00123	89 45 f8	 mov	 DWORD PTR tv135[ebp], eax
  00126	d9 5c 24 04	 fstp	 DWORD PTR [esp+4]
  0012a	db 45 f8	 fild	 DWORD PTR tv135[ebp]
  0012d	85 c0		 test	 eax, eax
  0012f	79 06		 jns	 SHORT $LN27@SetActionS
  00131	d8 05 00 00 00
	00		 fadd	 DWORD PTR __real@4f800000
$LN27@SetActionS:
  00137	d9 1c 24	 fstp	 DWORD PTR [esp]
  0013a	ff 75 08	 push	 DWORD PTR _iAniID$[ebp]
  0013d	8b cf		 mov	 ecx, edi
  0013f	ff 15 00 00 00
	00		 call	 DWORD PTR __imp_?SetActionAni@ioEntityGroup@@QAE_NHMMMMMM_N0@Z

; 611  : 
; 612  : 	m_SkillMotionEndTime = dwCurTime;
; 613  : 	m_SkillMotionEndTime += pGrp->GetAnimationFullTime( iAniID ) * fTimeRate;

  00145	ff 75 08	 push	 DWORD PTR _iAniID$[ebp]
  00148	8b cf		 mov	 ecx, edi
  0014a	89 9e b8 0f 00
	00		 mov	 DWORD PTR [esi+4024], ebx
  00150	ff 15 00 00 00
	00		 call	 DWORD PTR __imp_?GetAnimationFullTime@ioEntityGroup@@QAEMH@Z
  00156	d8 4d 10	 fmul	 DWORD PTR _fTimeRate$[ebp]
  00159	8b 86 b8 0f 00
	00		 mov	 eax, DWORD PTR [esi+4024]
  0015f	db 86 b8 0f 00
	00		 fild	 DWORD PTR [esi+4024]
  00165	85 c0		 test	 eax, eax
  00167	79 06		 jns	 SHORT $LN28@SetActionS
  00169	dc 05 00 00 00
	00		 fadd	 QWORD PTR __real@41f0000000000000
$LN28@SetActionS:
  0016f	de c1		 faddp	 ST(1), ST(0)
  00171	e8 00 00 00 00	 call	 __ftol2
  00176	89 86 b8 0f 00
	00		 mov	 DWORD PTR [esi+4024], eax
$LN21@SetActionS:
  0017c	5b		 pop	 ebx
$LN3@SetActionS:
  0017d	5f		 pop	 edi
  0017e	5e		 pop	 esi

; 614  : 	
; 615  : }

  0017f	c9		 leave
  00180	c2 0c 00	 ret	 12			; 0000000cH
?SetActionState@ioTwoMagicCircleSkill@@IAEXPAVioBaseChar@@PAVioPlayStage@@W4CircleState@1@@Z ENDP ; ioTwoMagicCircleSkill::SetActionState
_TEXT	ENDS
PUBLIC	?SetEndState@ioTwoMagicCircleSkill@@IAEXPAVioBaseChar@@PAVioPlayStage@@@Z ; ioTwoMagicCircleSkill::SetEndState
EXTRN	__imp_??9ioHashString@@QBE_NABV0@@Z:PROC
; Function compile flags: /Ogsp
;	COMDAT ?SetEndState@ioTwoMagicCircleSkill@@IAEXPAVioBaseChar@@PAVioPlayStage@@@Z
_TEXT	SEGMENT
tv186 = -16						; size = 4
_value$538106 = -16					; size = 4
_dwCurTime$ = -16					; size = 4
tv255 = -12						; size = 4
tv250 = -12						; size = 4
tv241 = -12						; size = 4
tv238 = -12						; size = 4
tv236 = -12						; size = 4
tv234 = -12						; size = 4
tv232 = -12						; size = 4
_fTimeRate$ = -8					; size = 4
_iAniID$ = -4						; size = 4
_pChar$ = 8						; size = 4
_pStage$ = 12						; size = 4
?SetEndState@ioTwoMagicCircleSkill@@IAEXPAVioBaseChar@@PAVioPlayStage@@@Z PROC ; ioTwoMagicCircleSkill::SetEndState, COMDAT
; _this$ = ecx

; 618  : {

  00000	55		 push	 ebp
  00001	8b ec		 mov	 ebp, esp
  00003	83 ec 10	 sub	 esp, 16			; 00000010H
  00006	56		 push	 esi

; 619  : 	if( !pChar ) return;

  00007	8b 75 08	 mov	 esi, DWORD PTR _pChar$[ebp]
  0000a	57		 push	 edi
  0000b	8b f9		 mov	 edi, ecx
  0000d	85 f6		 test	 esi, esi
  0000f	0f 84 99 01 00
	00		 je	 $LN1@SetEndStat

; 620  : 
; 621  : 	DWORD dwCurTime = FRAMEGETTIME();

  00015	53		 push	 ebx
  00016	ff 15 00 00 00
	00		 call	 DWORD PTR __imp_?GetSingleton@ioFrameTimer@@SAAAV1@XZ
  0001c	8b c8		 mov	 ecx, eax
  0001e	ff 15 00 00 00
	00		 call	 DWORD PTR __imp_?GetLoopSec@ioFrameTimer@@QBEKXZ

; 622  : 	ioEntityGroup *pGrp = pChar->GetGroup();

  00024	8b 5e 04	 mov	 ebx, DWORD PTR [esi+4]
  00027	89 45 f0	 mov	 DWORD PTR _dwCurTime$[ebp], eax

; 623  : 
; 624  : 	int iAniID = pGrp->GetAnimationIdx( m_SkillEndMotion );

  0002a	8d 87 bc 0f 00
	00		 lea	 eax, DWORD PTR [edi+4028]
  00030	50		 push	 eax
  00031	8b cb		 mov	 ecx, ebx
  00033	ff 15 00 00 00
	00		 call	 DWORD PTR __imp_?GetAnimationIdx@ioEntityGroup@@QAEHABVioHashString@@@Z
  00039	89 45 fc	 mov	 DWORD PTR _iAniID$[ebp], eax

; 625  : 	if( iAniID == -1 )	return;

  0003c	83 f8 ff	 cmp	 eax, -1
  0003f	0f 84 68 01 00
	00		 je	 $LN23@SetEndStat

; 626  : 	float fTimeRate = m_fSkillEndMototionRate;

  00045	d9 87 cc 0f 00
	00		 fld	 DWORD PTR [edi+4044]
  0004b	d9 5d f8	 fstp	 DWORD PTR _fTimeRate$[ebp]

; 627  : 
; 628  : 	pGrp->ClearAllLoopAni( FLOAT100, true );

  0004e	b8 64 00 00 00	 mov	 eax, 100		; 00000064H
  00053	89 45 f4	 mov	 DWORD PTR tv255[ebp], eax
  00056	db 45 f4	 fild	 DWORD PTR tv255[ebp]
  00059	6a 01		 push	 1
  0005b	85 c0		 test	 eax, eax
  0005d	79 06		 jns	 SHORT $LN24@SetEndStat
  0005f	d8 05 00 00 00
	00		 fadd	 DWORD PTR __real@4f800000
$LN24@SetEndStat:
  00065	51		 push	 ecx
  00066	8b cb		 mov	 ecx, ebx
  00068	d9 1c 24	 fstp	 DWORD PTR [esp]
  0006b	ff 15 00 00 00
	00		 call	 DWORD PTR __imp_?ClearAllLoopAni@ioEntityGroup@@QAEXM_N@Z

; 629  : 	pGrp->ClearAllActionAni( FLOAT100, true );

  00071	b8 64 00 00 00	 mov	 eax, 100		; 00000064H
  00076	89 45 f4	 mov	 DWORD PTR tv250[ebp], eax
  00079	db 45 f4	 fild	 DWORD PTR tv250[ebp]
  0007c	6a 01		 push	 1
  0007e	85 c0		 test	 eax, eax
  00080	79 06		 jns	 SHORT $LN25@SetEndStat
  00082	d8 05 00 00 00
	00		 fadd	 DWORD PTR __real@4f800000
$LN25@SetEndStat:
  00088	51		 push	 ecx
  00089	8b cb		 mov	 ecx, ebx
  0008b	d9 1c 24	 fstp	 DWORD PTR [esp]
  0008e	ff 15 00 00 00
	00		 call	 DWORD PTR __imp_?ClearAllActionAni@ioEntityGroup@@QAEXM_N@Z

; 630  : 	pGrp->SetActionAni( iAniID, FLOAT100, FLOAT100, FLOAT1, FLOAT1/fTimeRate );

  00094	b8 01 00 00 00	 mov	 eax, 1
  00099	8b c8		 mov	 ecx, eax
  0009b	b8 01 00 00 00	 mov	 eax, 1
  000a0	8b d0		 mov	 edx, eax
  000a2	b8 64 00 00 00	 mov	 eax, 100		; 00000064H
  000a7	8b f0		 mov	 esi, eax
  000a9	b8 64 00 00 00	 mov	 eax, 100		; 00000064H
  000ae	0f 57 c0	 xorps	 xmm0, xmm0
  000b1	6a 01		 push	 1
  000b3	6a 00		 push	 0
  000b5	83 ec 18	 sub	 esp, 24			; 00000018H
  000b8	89 4d f4	 mov	 DWORD PTR tv241[ebp], ecx
  000bb	db 45 f4	 fild	 DWORD PTR tv241[ebp]
  000be	f3 0f 11 44 24
	14		 movss	 DWORD PTR [esp+20], xmm0
  000c4	f3 0f 11 44 24
	10		 movss	 DWORD PTR [esp+16], xmm0
  000ca	85 c9		 test	 ecx, ecx
  000cc	79 06		 jns	 SHORT $LN26@SetEndStat
  000ce	d8 05 00 00 00
	00		 fadd	 DWORD PTR __real@4f800000
$LN26@SetEndStat:
  000d4	d8 75 f8	 fdiv	 DWORD PTR _fTimeRate$[ebp]
  000d7	d9 5d f4	 fstp	 DWORD PTR tv238[ebp]
  000da	d9 45 f4	 fld	 DWORD PTR tv238[ebp]
  000dd	d9 5c 24 0c	 fstp	 DWORD PTR [esp+12]
  000e1	89 55 f4	 mov	 DWORD PTR tv236[ebp], edx
  000e4	db 45 f4	 fild	 DWORD PTR tv236[ebp]
  000e7	85 d2		 test	 edx, edx
  000e9	79 06		 jns	 SHORT $LN27@SetEndStat
  000eb	d8 05 00 00 00
	00		 fadd	 DWORD PTR __real@4f800000
$LN27@SetEndStat:
  000f1	89 75 f4	 mov	 DWORD PTR tv234[ebp], esi
  000f4	d9 5c 24 08	 fstp	 DWORD PTR [esp+8]
  000f8	db 45 f4	 fild	 DWORD PTR tv234[ebp]
  000fb	85 f6		 test	 esi, esi
  000fd	79 06		 jns	 SHORT $LN28@SetEndStat
  000ff	d8 05 00 00 00
	00		 fadd	 DWORD PTR __real@4f800000
$LN28@SetEndStat:
  00105	89 45 f4	 mov	 DWORD PTR tv232[ebp], eax
  00108	d9 5c 24 04	 fstp	 DWORD PTR [esp+4]
  0010c	db 45 f4	 fild	 DWORD PTR tv232[ebp]
  0010f	85 c0		 test	 eax, eax
  00111	79 06		 jns	 SHORT $LN29@SetEndStat
  00113	d8 05 00 00 00
	00		 fadd	 DWORD PTR __real@4f800000
$LN29@SetEndStat:
  00119	d9 1c 24	 fstp	 DWORD PTR [esp]
  0011c	ff 75 fc	 push	 DWORD PTR _iAniID$[ebp]
  0011f	8b cb		 mov	 ecx, ebx
  00121	ff 15 00 00 00
	00		 call	 DWORD PTR __imp_?SetActionAni@ioEntityGroup@@QAE_NHMMMMMM_N0@Z

; 631  : 
; 632  : 	if( m_dwEndMotionEndTime == 0 )	

  00127	83 bf d8 0f 00
	00 00		 cmp	 DWORD PTR [edi+4056], 0
  0012e	75 3a		 jne	 SHORT $LN2@SetEndStat

; 633  : 	{
; 634  : 		m_dwEndMotionEndTime = dwCurTime;

  00130	8b 45 f0	 mov	 eax, DWORD PTR _dwCurTime$[ebp]

; 635  : 		m_dwEndMotionEndTime += pGrp->GetAnimationFullTime( iAniID ) * fTimeRate;

  00133	ff 75 fc	 push	 DWORD PTR _iAniID$[ebp]
  00136	8b cb		 mov	 ecx, ebx
  00138	89 87 d8 0f 00
	00		 mov	 DWORD PTR [edi+4056], eax
  0013e	ff 15 00 00 00
	00		 call	 DWORD PTR __imp_?GetAnimationFullTime@ioEntityGroup@@QAEMH@Z
  00144	d8 4d f8	 fmul	 DWORD PTR _fTimeRate$[ebp]
  00147	8b 87 d8 0f 00
	00		 mov	 eax, DWORD PTR [edi+4056]
  0014d	db 87 d8 0f 00
	00		 fild	 DWORD PTR [edi+4056]
  00153	85 c0		 test	 eax, eax
  00155	79 06		 jns	 SHORT $LN30@SetEndStat
  00157	dc 05 00 00 00
	00		 fadd	 QWORD PTR __real@41f0000000000000
$LN30@SetEndStat:
  0015d	de c1		 faddp	 ST(1), ST(0)
  0015f	e8 00 00 00 00	 call	 __ftol2
  00164	89 87 d8 0f 00
	00		 mov	 DWORD PTR [edi+4056], eax
$LN2@SetEndStat:

; 636  : 	}
; 637  : 
; 638  : 	m_State = SS_END;

  0016a	8d 45 f0	 lea	 eax, DWORD PTR _value$538106[ebp]
  0016d	50		 push	 eax
  0016e	8d 8f 58 0f 00
	00		 lea	 ecx, DWORD PTR [edi+3928]
  00174	c7 45 f0 03 00
	00 00		 mov	 DWORD PTR _value$538106[ebp], 3
  0017b	e8 00 00 00 00	 call	 ?EncryptValueToPool@?$CEncrypt@H@@AAEXPBD@Z ; CEncrypt<int>::EncryptValueToPool

; 639  : 
; 640  : 	if( m_CurCircleEffect != m_OffCircle && m_CircleState == CIRCLE_COMPLETE )

  00180	8d 87 58 10 00
	00		 lea	 eax, DWORD PTR [edi+4184]
  00186	50		 push	 eax
  00187	8d 8f f0 0f 00
	00		 lea	 ecx, DWORD PTR [edi+4080]
  0018d	ff 15 00 00 00
	00		 call	 DWORD PTR __imp_??9ioHashString@@QBE_NABV0@@Z
  00193	84 c0		 test	 al, al
  00195	74 16		 je	 SHORT $LN23@SetEndStat
  00197	83 bf 88 0f 00
	00 02		 cmp	 DWORD PTR [edi+3976], 2
  0019e	75 0d		 jne	 SHORT $LN23@SetEndStat

; 641  : 	{
; 642  : 		CreateAreaWeapon( pChar, pStage );

  001a0	ff 75 0c	 push	 DWORD PTR _pStage$[ebp]
  001a3	8b cf		 mov	 ecx, edi
  001a5	ff 75 08	 push	 DWORD PTR _pChar$[ebp]
  001a8	e8 00 00 00 00	 call	 ?CreateAreaWeapon@ioTwoMagicCircleSkill@@IAEXPAVioBaseChar@@PAVioPlayStage@@@Z ; ioTwoMagicCircleSkill::CreateAreaWeapon
$LN23@SetEndStat:
  001ad	5b		 pop	 ebx
$LN1@SetEndStat:
  001ae	5f		 pop	 edi
  001af	5e		 pop	 esi

; 643  : 	}
; 644  : }

  001b0	c9		 leave
  001b1	c2 08 00	 ret	 8
?SetEndState@ioTwoMagicCircleSkill@@IAEXPAVioBaseChar@@PAVioPlayStage@@@Z ENDP ; ioTwoMagicCircleSkill::SetEndState
_TEXT	ENDS
PUBLIC	?SetLoopState@ioTwoMagicCircleSkill@@IAEXPAVioBaseChar@@@Z ; ioTwoMagicCircleSkill::SetLoopState
EXTRN	?CheckMagicCircle@ioBaseGUISupport@@QBE_NXZ:PROC ; ioBaseGUISupport::CheckMagicCircle
EXTRN	__imp_?SetLoopAni@ioEntityGroup@@QAE_NHMMMM@Z:PROC
;	COMDAT xdata$x
; File d:\lost saga for developer\youtube\tutorial\source\src\lsclient\stdafx.h
xdata$x	SEGMENT
__unwindtable$?SetLoopState@ioTwoMagicCircleSkill@@IAEXPAVioBaseChar@@@Z DD 0ffffffffH
	DD	FLAT:__unwindfunclet$?SetLoopState@ioTwoMagicCircleSkill@@IAEXPAVioBaseChar@@@Z$0
__ehfuncinfo$?SetLoopState@ioTwoMagicCircleSkill@@IAEXPAVioBaseChar@@@Z DD 019930522H
	DD	01H
	DD	FLAT:__unwindtable$?SetLoopState@ioTwoMagicCircleSkill@@IAEXPAVioBaseChar@@@Z
	DD	2 DUP(00H)
	DD	2 DUP(00H)
	DD	00H
	DD	01H
; Function compile flags: /Ogsp
; File d:\lost saga for developer\youtube\tutorial\source\src\lsclient\iotwomagiccircleskill.cpp
xdata$x	ENDS
;	COMDAT ?SetLoopState@ioTwoMagicCircleSkill@@IAEXPAVioBaseChar@@@Z
_TEXT	SEGMENT
_szDummyCircle$530995 = -40				; size = 16
tv202 = -24						; size = 4
tv197 = -24						; size = 4
tv195 = -24						; size = 4
_dwCurTime$ = -20					; size = 4
tv225 = -16						; size = 4
tv220 = -16						; size = 4
tv212 = -16						; size = 4
tv199 = -16						; size = 4
_value$538121 = -16					; size = 4
_fAniRate$ = -16					; size = 4
__$EHRec$ = -12						; size = 12
_pChar$ = 8						; size = 4
?SetLoopState@ioTwoMagicCircleSkill@@IAEXPAVioBaseChar@@@Z PROC ; ioTwoMagicCircleSkill::SetLoopState, COMDAT
; _this$ = ecx

; 691  : {

  00000	6a 1c		 push	 28			; 0000001cH
  00002	b8 00 00 00 00	 mov	 eax, __ehhandler$?SetLoopState@ioTwoMagicCircleSkill@@IAEXPAVioBaseChar@@@Z
  00007	e8 00 00 00 00	 call	 __EH_prolog3
  0000c	8b f1		 mov	 esi, ecx

; 692  : 	if( !pChar ) return;

  0000e	8b 7d 08	 mov	 edi, DWORD PTR _pChar$[ebp]
  00011	85 ff		 test	 edi, edi
  00013	0f 84 7b 01 00
	00		 je	 $LN1@SetLoopSta

; 693  : 
; 694  : 	DWORD dwCurTime = FRAMEGETTIME();

  00019	ff 15 00 00 00
	00		 call	 DWORD PTR __imp_?GetSingleton@ioFrameTimer@@SAAAV1@XZ
  0001f	8b c8		 mov	 ecx, eax
  00021	ff 15 00 00 00
	00		 call	 DWORD PTR __imp_?GetLoopSec@ioFrameTimer@@QBEKXZ
  00027	89 45 ec	 mov	 DWORD PTR _dwCurTime$[ebp], eax

; 695  : 	m_State = SS_LOOP;

  0002a	33 db		 xor	 ebx, ebx
  0002c	8d 45 f0	 lea	 eax, DWORD PTR _value$538121[ebp]
  0002f	43		 inc	 ebx
  00030	50		 push	 eax
  00031	8d 8e 58 0f 00
	00		 lea	 ecx, DWORD PTR [esi+3928]
  00037	89 5d f0	 mov	 DWORD PTR _value$538121[ebp], ebx
  0003a	e8 00 00 00 00	 call	 ?EncryptValueToPool@?$CEncrypt@H@@AAEXPBD@Z ; CEncrypt<int>::EncryptValueToPool

; 696  : 
; 697  : 	ioEntityGroup *pGrp = pChar->GetGroup();

  0003f	8b 7f 04	 mov	 edi, DWORD PTR [edi+4]

; 698  : 	pGrp->ClearAllLoopAni( FLOAT100, true );

  00042	b8 64 00 00 00	 mov	 eax, 100		; 00000064H
  00047	89 45 f0	 mov	 DWORD PTR tv225[ebp], eax
  0004a	db 45 f0	 fild	 DWORD PTR tv225[ebp]
  0004d	53		 push	 ebx
  0004e	85 c0		 test	 eax, eax
  00050	79 06		 jns	 SHORT $LN25@SetLoopSta
  00052	d8 05 00 00 00
	00		 fadd	 DWORD PTR __real@4f800000
$LN25@SetLoopSta:
  00058	51		 push	 ecx
  00059	8b cf		 mov	 ecx, edi
  0005b	d9 1c 24	 fstp	 DWORD PTR [esp]
  0005e	ff 15 00 00 00
	00		 call	 DWORD PTR __imp_?ClearAllLoopAni@ioEntityGroup@@QAEXM_N@Z

; 699  : 	pGrp->ClearAllActionAni( FLOAT100, true );

  00064	b8 64 00 00 00	 mov	 eax, 100		; 00000064H
  00069	89 45 f0	 mov	 DWORD PTR tv220[ebp], eax
  0006c	db 45 f0	 fild	 DWORD PTR tv220[ebp]
  0006f	53		 push	 ebx
  00070	85 c0		 test	 eax, eax
  00072	79 06		 jns	 SHORT $LN26@SetLoopSta
  00074	d8 05 00 00 00
	00		 fadd	 DWORD PTR __real@4f800000
$LN26@SetLoopSta:
  0007a	51		 push	 ecx
  0007b	8b cf		 mov	 ecx, edi
  0007d	d9 1c 24	 fstp	 DWORD PTR [esp]
  00080	ff 15 00 00 00
	00		 call	 DWORD PTR __imp_?ClearAllActionAni@ioEntityGroup@@QAEXM_N@Z

; 700  : 
; 701  : 	int iAniID = pGrp->GetAnimationIdx( m_SkillLoopMotion );

  00086	8d 86 90 0f 00
	00		 lea	 eax, DWORD PTR [esi+3984]
  0008c	50		 push	 eax
  0008d	8b cf		 mov	 ecx, edi
  0008f	ff 15 00 00 00
	00		 call	 DWORD PTR __imp_?GetAnimationIdx@ioEntityGroup@@QAEHABVioHashString@@@Z
  00095	8b c8		 mov	 ecx, eax

; 702  : 	float fAniRate = FLOAT1;

  00097	b8 01 00 00 00	 mov	 eax, 1
  0009c	89 45 f0	 mov	 DWORD PTR tv212[ebp], eax
  0009f	db 45 f0	 fild	 DWORD PTR tv212[ebp]
  000a2	85 c0		 test	 eax, eax
  000a4	79 06		 jns	 SHORT $LN27@SetLoopSta
  000a6	d8 05 00 00 00
	00		 fadd	 DWORD PTR __real@4f800000
$LN27@SetLoopSta:

; 703  : 	if( m_fSkillLoopMotionRate > 0.0f )

  000ac	f3 0f 10 86 a0
	0f 00 00	 movss	 xmm0, DWORD PTR [esi+4000]
  000b4	d9 5d f0	 fstp	 DWORD PTR _fAniRate$[ebp]
  000b7	0f 57 c9	 xorps	 xmm1, xmm1
  000ba	0f 2f c1	 comiss	 xmm0, xmm1
  000bd	76 05		 jbe	 SHORT $LN3@SetLoopSta

; 704  : 		fAniRate = m_fSkillLoopMotionRate;

  000bf	f3 0f 11 45 f0	 movss	 DWORD PTR _fAniRate$[ebp], xmm0
$LN3@SetLoopSta:

; 705  : 
; 706  : 	pGrp->SetLoopAni( iAniID, FLOAT100, FLOAT1, FLOAT1/fAniRate );

  000c4	b8 01 00 00 00	 mov	 eax, 1
  000c9	8b d0		 mov	 edx, eax
  000cb	b8 01 00 00 00	 mov	 eax, 1
  000d0	8b d8		 mov	 ebx, eax
  000d2	b8 64 00 00 00	 mov	 eax, 100		; 00000064H
  000d7	83 ec 10	 sub	 esp, 16			; 00000010H
  000da	89 55 e8	 mov	 DWORD PTR tv202[ebp], edx
  000dd	db 45 e8	 fild	 DWORD PTR tv202[ebp]
  000e0	f3 0f 11 4c 24
	0c		 movss	 DWORD PTR [esp+12], xmm1
  000e6	85 d2		 test	 edx, edx
  000e8	79 06		 jns	 SHORT $LN28@SetLoopSta
  000ea	d8 05 00 00 00
	00		 fadd	 DWORD PTR __real@4f800000
$LN28@SetLoopSta:
  000f0	d8 75 f0	 fdiv	 DWORD PTR _fAniRate$[ebp]
  000f3	89 5d e8	 mov	 DWORD PTR tv197[ebp], ebx
  000f6	d9 5d f0	 fstp	 DWORD PTR tv199[ebp]
  000f9	d9 45 f0	 fld	 DWORD PTR tv199[ebp]
  000fc	d9 5c 24 08	 fstp	 DWORD PTR [esp+8]
  00100	db 45 e8	 fild	 DWORD PTR tv197[ebp]
  00103	85 db		 test	 ebx, ebx
  00105	79 06		 jns	 SHORT $LN29@SetLoopSta
  00107	d8 05 00 00 00
	00		 fadd	 DWORD PTR __real@4f800000
$LN29@SetLoopSta:
  0010d	89 45 e8	 mov	 DWORD PTR tv195[ebp], eax
  00110	d9 5c 24 04	 fstp	 DWORD PTR [esp+4]
  00114	db 45 e8	 fild	 DWORD PTR tv195[ebp]
  00117	85 c0		 test	 eax, eax
  00119	79 06		 jns	 SHORT $LN30@SetLoopSta
  0011b	d8 05 00 00 00
	00		 fadd	 DWORD PTR __real@4f800000
$LN30@SetLoopSta:
  00121	d9 1c 24	 fstp	 DWORD PTR [esp]
  00124	51		 push	 ecx
  00125	8b cf		 mov	 ecx, edi
  00127	ff 15 00 00 00
	00		 call	 DWORD PTR __imp_?SetLoopAni@ioEntityGroup@@QAE_NHMMMM@Z

; 707  : 
; 708  : 	if( m_dwLoopDurationStart == 0 )	

  0012d	83 be d4 0f 00
	00 00		 cmp	 DWORD PTR [esi+4052], 0
  00134	75 09		 jne	 SHORT $LN2@SetLoopSta

; 709  : 		m_dwLoopDurationStart = dwCurTime;

  00136	8b 4d ec	 mov	 ecx, DWORD PTR _dwCurTime$[ebp]
  00139	89 8e d4 0f 00
	00		 mov	 DWORD PTR [esi+4052], ecx
$LN2@SetLoopSta:

; 710  : 	
; 711  : 	//마법진 생성
; 712  : 	if( !pChar->CheckMagicCircle() )

  0013f	8b 7d 08	 mov	 edi, DWORD PTR _pChar$[ebp]
  00142	8d 8f cc 01 00
	00		 lea	 ecx, DWORD PTR [edi+460]
  00148	e8 00 00 00 00	 call	 ?CheckMagicCircle@ioBaseGUISupport@@QBE_NXZ ; ioBaseGUISupport::CheckMagicCircle
  0014d	84 c0		 test	 al, al
  0014f	75 43		 jne	 SHORT $LN1@SetLoopSta

; 713  : 	{		
; 714  : 		ioHashString szDummyCircle;

  00151	8d 4d d8	 lea	 ecx, DWORD PTR _szDummyCircle$530995[ebp]
  00154	ff 15 00 00 00
	00		 call	 DWORD PTR __imp_??0ioHashString@@QAE@XZ

; 715  : 		pChar->CreateMagicCircle( m_OnCircle, m_OnCircle, szDummyCircle, m_fFirstCircleOffSet );

  0015a	f3 0f 10 86 e8
	0f 00 00	 movss	 xmm0, DWORD PTR [esi+4072]
  00162	8b 97 cc 01 00
	00		 mov	 edx, DWORD PTR [edi+460]
  00168	83 65 fc 00	 and	 DWORD PTR __$EHRec$[ebp+8], 0
  0016c	51		 push	 ecx
  0016d	f3 0f 11 04 24	 movss	 DWORD PTR [esp], xmm0
  00172	8d 4d d8	 lea	 ecx, DWORD PTR _szDummyCircle$530995[ebp]
  00175	51		 push	 ecx
  00176	8d 86 48 10 00
	00		 lea	 eax, DWORD PTR [esi+4168]
  0017c	50		 push	 eax
  0017d	50		 push	 eax
  0017e	8d 8f cc 01 00
	00		 lea	 ecx, DWORD PTR [edi+460]
  00184	ff 52 04	 call	 DWORD PTR [edx+4]

; 716  : 	}

  00187	83 4d fc ff	 or	 DWORD PTR __$EHRec$[ebp+8], -1
  0018b	8d 4d d8	 lea	 ecx, DWORD PTR _szDummyCircle$530995[ebp]
  0018e	ff 15 00 00 00
	00		 call	 DWORD PTR __imp_??1ioHashString@@QAE@XZ
$LN1@SetLoopSta:

; 717  : }

  00194	e8 00 00 00 00	 call	 __EH_epilog3
  00199	c2 04 00	 ret	 4
_TEXT	ENDS
;	COMDAT text$x
text$x	SEGMENT
__unwindfunclet$?SetLoopState@ioTwoMagicCircleSkill@@IAEXPAVioBaseChar@@@Z$0:
  00000	8d 4d d8	 lea	 ecx, DWORD PTR _szDummyCircle$530995[ebp]
  00003	ff 25 00 00 00
	00		 jmp	 DWORD PTR __imp_??1ioHashString@@QAE@XZ
__ehhandler$?SetLoopState@ioTwoMagicCircleSkill@@IAEXPAVioBaseChar@@@Z:
  00009	8b 54 24 08	 mov	 edx, DWORD PTR [esp+8]
  0000d	8d 42 0c	 lea	 eax, DWORD PTR [edx+12]
  00010	8b 4a d4	 mov	 ecx, DWORD PTR [edx-44]
  00013	33 c8		 xor	 ecx, eax
  00015	e8 00 00 00 00	 call	 @__security_check_cookie@4
  0001a	b8 00 00 00 00	 mov	 eax, OFFSET __ehfuncinfo$?SetLoopState@ioTwoMagicCircleSkill@@IAEXPAVioBaseChar@@@Z
  0001f	e9 00 00 00 00	 jmp	 ___CxxFrameHandler3
text$x	ENDS
?SetLoopState@ioTwoMagicCircleSkill@@IAEXPAVioBaseChar@@@Z ENDP ; ioTwoMagicCircleSkill::SetLoopState
; Function compile flags: /Ogsp
;	COMDAT ?IsProtected@ioTwoMagicCircleSkill@@UBE_NH@Z
_TEXT	SEGMENT
_value$538166 = -1					; size = 1
_value$538171 = 8					; size = 4
_iDefenseBreakType$ = 8					; size = 4
?IsProtected@ioTwoMagicCircleSkill@@UBE_NH@Z PROC	; ioTwoMagicCircleSkill::IsProtected, COMDAT
; _this$ = ecx

; 722  : {	

  00000	55		 push	 ebp
  00001	8b ec		 mov	 ebp, esp
  00003	51		 push	 ecx
  00004	56		 push	 esi
  00005	8b f1		 mov	 esi, ecx

; 723  : 
; 724  : 	if( m_bDisableSkillProtect )

  00007	8d 45 ff	 lea	 eax, DWORD PTR _value$538166[ebp]
  0000a	50		 push	 eax
  0000b	8d 8e a8 00 00
	00		 lea	 ecx, DWORD PTR [esi+168]
  00011	e8 00 00 00 00	 call	 ?DecryptValueToPool@?$CEncrypt@_N@@QAEXPA_N@Z ; CEncrypt<bool>::DecryptValueToPool
  00016	80 7d ff 00	 cmp	 BYTE PTR _value$538166[ebp], 0
  0001a	74 04		 je	 SHORT $LN11@IsProtecte
$LN19@IsProtecte:

; 725  : 		return false;

  0001c	32 c0		 xor	 al, al
  0001e	eb 6e		 jmp	 SHORT $LN3@IsProtecte
$LN11@IsProtecte:

; 726  : 
; 727  : 	if( DBT_NONE != (DefenseBreakType)m_ProtectCancelType )

  00020	8b 86 a4 00 00
	00		 mov	 eax, DWORD PTR [esi+164]
  00026	85 c0		 test	 eax, eax
  00028	74 05		 je	 SHORT $LN9@IsProtecte

; 728  : 	{		
; 729  : 		if( iDefenseBreakType == m_ProtectCancelType )   // 스킬 무적 파괴

  0002a	39 45 08	 cmp	 DWORD PTR _iDefenseBreakType$[ebp], eax

; 730  : 			return false;

  0002d	74 ed		 je	 SHORT $LN19@IsProtecte
$LN9@IsProtecte:

; 731  : 	}
; 732  : 
; 733  : 	if( IsPreDelayProtect() )

  0002f	8b 06		 mov	 eax, DWORD PTR [esi]
  00031	8b ce		 mov	 ecx, esi
  00033	ff 90 2c 01 00
	00		 call	 DWORD PTR [eax+300]
  00039	84 c0		 test	 al, al
  0003b	74 0d		 je	 SHORT $LN7@IsProtecte

; 734  : 	{	
; 735  : 		if( m_dwPreDelayStartTime != 0 )

  0003d	83 be 20 02 00
	00 00		 cmp	 DWORD PTR [esi+544], 0
  00044	74 04		 je	 SHORT $LN7@IsProtecte

; 736  : 			return true;	

  00046	b0 01		 mov	 al, 1
  00048	eb 44		 jmp	 SHORT $LN3@IsProtecte
$LN7@IsProtecte:
  0004a	57		 push	 edi

; 737  : 	}
; 738  : 
; 739  : 	DWORD dwTime = FRAMEGETTIME();

  0004b	ff 15 00 00 00
	00		 call	 DWORD PTR __imp_?GetSingleton@ioFrameTimer@@SAAAV1@XZ
  00051	8b c8		 mov	 ecx, eax
  00053	ff 15 00 00 00
	00		 call	 DWORD PTR __imp_?GetLoopSec@ioFrameTimer@@QBEKXZ
  00059	8b f8		 mov	 edi, eax

; 740  : 
; 741  : 	switch( m_State )

  0005b	8d 45 08	 lea	 eax, DWORD PTR _value$538171[ebp]
  0005e	50		 push	 eax
  0005f	8d 8e 58 0f 00
	00		 lea	 ecx, DWORD PTR [esi+3928]
  00065	e8 00 00 00 00	 call	 ?DecryptValueToPool@?$CEncrypt@H@@QAEXPAH@Z ; CEncrypt<int>::DecryptValueToPool
  0006a	8b 45 08	 mov	 eax, DWORD PTR _value$538171[ebp]
  0006d	48		 dec	 eax
  0006e	74 0b		 je	 SHORT $LN4@IsProtecte
  00070	48		 dec	 eax
  00071	74 04		 je	 SHORT $LN1@IsProtecte

; 751  : 	}
; 752  : 
; 753  : 	return false;

  00073	32 c0		 xor	 al, al
  00075	eb 16		 jmp	 SHORT $LN18@IsProtecte
$LN1@IsProtecte:

; 745  : 			return false;
; 746  : 		else
; 747  : 			return true;
; 748  : 		break;
; 749  : 	case SS_ACTION:
; 750  : 		return true;

  00077	b0 01		 mov	 al, 1
  00079	eb 12		 jmp	 SHORT $LN18@IsProtecte
$LN4@IsProtecte:

; 742  : 	{
; 743  : 	case SS_LOOP:
; 744  : 		if( m_dwLoopDurationStart + m_dwProtectTime < dwTime )

  0007b	8b 86 d4 0f 00
	00		 mov	 eax, DWORD PTR [esi+4052]
  00081	03 86 8c 0f 00
	00		 add	 eax, DWORD PTR [esi+3980]
  00087	3b c7		 cmp	 eax, edi
  00089	1a c0		 sbb	 al, al
  0008b	fe c0		 inc	 al
$LN18@IsProtecte:
  0008d	5f		 pop	 edi
$LN3@IsProtecte:
  0008e	5e		 pop	 esi

; 754  : }

  0008f	c9		 leave
  00090	c2 04 00	 ret	 4
?IsProtected@ioTwoMagicCircleSkill@@UBE_NH@Z ENDP	; ioTwoMagicCircleSkill::IsProtected
; Function compile flags: /Ogsp
_TEXT	ENDS
;	COMDAT ?IsSkillMotionEnd@ioTwoMagicCircleSkill@@UBE_NKPAVioBaseChar@@@Z
_TEXT	SEGMENT
_value$538180 = -4					; size = 4
_dwActionStop$ = 8					; size = 4
_pOwner$ = 12						; size = 4
?IsSkillMotionEnd@ioTwoMagicCircleSkill@@UBE_NKPAVioBaseChar@@@Z PROC ; ioTwoMagicCircleSkill::IsSkillMotionEnd, COMDAT
; _this$ = ecx

; 757  : {	

  00000	55		 push	 ebp
  00001	8b ec		 mov	 ebp, esp
  00003	51		 push	 ecx
  00004	56		 push	 esi
  00005	57		 push	 edi
  00006	8b f1		 mov	 esi, ecx

; 758  : 	DWORD dwCurTime = FRAMEGETTIME();

  00008	ff 15 00 00 00
	00		 call	 DWORD PTR __imp_?GetSingleton@ioFrameTimer@@SAAAV1@XZ
  0000e	8b c8		 mov	 ecx, eax
  00010	ff 15 00 00 00
	00		 call	 DWORD PTR __imp_?GetLoopSec@ioFrameTimer@@QBEKXZ
  00016	8b f8		 mov	 edi, eax

; 759  : 
; 760  : 	switch( m_State )

  00018	8d 45 fc	 lea	 eax, DWORD PTR _value$538180[ebp]
  0001b	50		 push	 eax
  0001c	8d 8e 58 0f 00
	00		 lea	 ecx, DWORD PTR [esi+3928]
  00022	e8 00 00 00 00	 call	 ?DecryptValueToPool@?$CEncrypt@H@@QAEXPAH@Z ; CEncrypt<int>::DecryptValueToPool
  00027	83 7d fc 00	 cmp	 DWORD PTR _value$538180[ebp], 0
  0002b	7c 1e		 jl	 SHORT $LN1@IsSkillMot
  0002d	83 7d fc 02	 cmp	 DWORD PTR _value$538180[ebp], 2
  00031	7e 18		 jle	 SHORT $LN1@IsSkillMot
  00033	83 7d fc 03	 cmp	 DWORD PTR _value$538180[ebp], 3
  00037	75 12		 jne	 SHORT $LN1@IsSkillMot

; 761  : 	{
; 762  : 	case SS_NONE:		
; 763  : 	case SS_LOOP:
; 764  : 	case SS_ACTION:
; 765  : 		return false;
; 766  : 
; 767  : 	case SS_END:
; 768  : 		if( 0 < m_dwEndMotionEndTime && m_dwEndMotionEndTime < dwCurTime )

  00039	8b b6 d8 0f 00
	00		 mov	 esi, DWORD PTR [esi+4056]
  0003f	85 f6		 test	 esi, esi
  00041	74 08		 je	 SHORT $LN1@IsSkillMot
  00043	3b f7		 cmp	 esi, edi
  00045	73 04		 jae	 SHORT $LN1@IsSkillMot

; 769  : 			return true;

  00047	b0 01		 mov	 al, 1
  00049	eb 02		 jmp	 SHORT $LN6@IsSkillMot
$LN1@IsSkillMot:

; 770  : 	}
; 771  : 
; 772  : 	return false;

  0004b	32 c0		 xor	 al, al
$LN6@IsSkillMot:
  0004d	5f		 pop	 edi
  0004e	5e		 pop	 esi

; 773  : }

  0004f	c9		 leave
  00050	c2 08 00	 ret	 8
?IsSkillMotionEnd@ioTwoMagicCircleSkill@@UBE_NKPAVioBaseChar@@@Z ENDP ; ioTwoMagicCircleSkill::IsSkillMotionEnd
_TEXT	ENDS
PUBLIC	?GetTeam@ioPlayEntity@@QBE?AW4TeamType@@XZ	; ioPlayEntity::GetTeam
; Function compile flags: /Ogsp
; File d:\lost saga for developer\youtube\tutorial\source\src\lsclient\ioplayentity.h
;	COMDAT ?GetTeam@ioPlayEntity@@QBE?AW4TeamType@@XZ
_TEXT	SEGMENT
_value$538187 = -4					; size = 4
?GetTeam@ioPlayEntity@@QBE?AW4TeamType@@XZ PROC		; ioPlayEntity::GetTeam, COMDAT
; _this$ = ecx

; 107  : 	inline TeamType GetTeam() const { return m_TeamType; }

  00000	55		 push	 ebp
  00001	8b ec		 mov	 ebp, esp
  00003	51		 push	 ecx
  00004	8d 45 fc	 lea	 eax, DWORD PTR _value$538187[ebp]
  00007	50		 push	 eax
  00008	81 c1 90 00 00
	00		 add	 ecx, 144		; 00000090H
  0000e	e8 00 00 00 00	 call	 ?DecryptValueToPool@?$CEncrypt@W4TeamType@@@@QAEXPAW4TeamType@@@Z ; CEncrypt<enum TeamType>::DecryptValueToPool
  00013	8b 45 fc	 mov	 eax, DWORD PTR _value$538187[ebp]
  00016	c9		 leave
  00017	c3		 ret	 0
?GetTeam@ioPlayEntity@@QBE?AW4TeamType@@XZ ENDP		; ioPlayEntity::GetTeam
; Function compile flags: /Ogsp
; File d:\lost saga for developer\youtube\tutorial\source\src\lsclient\ioskill.h
_TEXT	ENDS
;	COMDAT ?IsCanJumpingSkill@ioSkill@@UBE_NXZ
_TEXT	SEGMENT
_value$538194 = -1					; size = 1
?IsCanJumpingSkill@ioSkill@@UBE_NXZ PROC		; ioSkill::IsCanJumpingSkill, COMDAT
; _this$ = ecx

; 431  : 	virtual bool IsCanJumpingSkill() const { return m_bEnableJumpingSkill; }

  00000	55		 push	 ebp
  00001	8b ec		 mov	 ebp, esp
  00003	51		 push	 ecx
  00004	8d 45 ff	 lea	 eax, DWORD PTR _value$538194[ebp]
  00007	50		 push	 eax
  00008	81 c1 9c 03 00
	00		 add	 ecx, 924		; 0000039cH
  0000e	e8 00 00 00 00	 call	 ?DecryptValueToPool@?$CEncrypt@_N@@QAEXPA_N@Z ; CEncrypt<bool>::DecryptValueToPool
  00013	8a 45 ff	 mov	 al, BYTE PTR _value$538194[ebp]
  00016	c9		 leave
  00017	c3		 ret	 0
?IsCanJumpingSkill@ioSkill@@UBE_NXZ ENDP		; ioSkill::IsCanJumpingSkill
; Function compile flags: /Ogsp
_TEXT	ENDS
;	COMDAT ?IsCanJumpingSkillOnBlowWound@ioSkill@@UBE_NXZ
_TEXT	SEGMENT
_value$538201 = -1					; size = 1
?IsCanJumpingSkillOnBlowWound@ioSkill@@UBE_NXZ PROC	; ioSkill::IsCanJumpingSkillOnBlowWound, COMDAT
; _this$ = ecx

; 432  : 	virtual bool IsCanJumpingSkillOnBlowWound() const { return m_bEnableJumpingSkillOnBlowWound; }

  00000	55		 push	 ebp
  00001	8b ec		 mov	 ebp, esp
  00003	51		 push	 ecx
  00004	8d 45 ff	 lea	 eax, DWORD PTR _value$538201[ebp]
  00007	50		 push	 eax
  00008	81 c1 cc 03 00
	00		 add	 ecx, 972		; 000003ccH
  0000e	e8 00 00 00 00	 call	 ?DecryptValueToPool@?$CEncrypt@_N@@QAEXPA_N@Z ; CEncrypt<bool>::DecryptValueToPool
  00013	8a 45 ff	 mov	 al, BYTE PTR _value$538201[ebp]
  00016	c9		 leave
  00017	c3		 ret	 0
?IsCanJumpingSkillOnBlowWound@ioSkill@@UBE_NXZ ENDP	; ioSkill::IsCanJumpingSkillOnBlowWound
; Function compile flags: /Ogsp
_TEXT	ENDS
;	COMDAT ?IsCanDownSkill@ioSkill@@UBE_NXZ
_TEXT	SEGMENT
_value$538208 = -1					; size = 1
?IsCanDownSkill@ioSkill@@UBE_NXZ PROC			; ioSkill::IsCanDownSkill, COMDAT
; _this$ = ecx

; 437  : 	virtual bool IsCanDownSkill() const { return m_bEnableDownSkill; }

  00000	55		 push	 ebp
  00001	8b ec		 mov	 ebp, esp
  00003	51		 push	 ecx
  00004	8d 45 ff	 lea	 eax, DWORD PTR _value$538208[ebp]
  00007	50		 push	 eax
  00008	81 c1 5c 04 00
	00		 add	 ecx, 1116		; 0000045cH
  0000e	e8 00 00 00 00	 call	 ?DecryptValueToPool@?$CEncrypt@_N@@QAEXPA_N@Z ; CEncrypt<bool>::DecryptValueToPool
  00013	8a 45 ff	 mov	 al, BYTE PTR _value$538208[ebp]
  00016	c9		 leave
  00017	c3		 ret	 0
?IsCanDownSkill@ioSkill@@UBE_NXZ ENDP			; ioSkill::IsCanDownSkill
; Function compile flags: /Ogsp
_TEXT	ENDS
;	COMDAT ?IsCanBlowWoundSkill@ioSkill@@UBE_NXZ
_TEXT	SEGMENT
_value$538215 = -1					; size = 1
?IsCanBlowWoundSkill@ioSkill@@UBE_NXZ PROC		; ioSkill::IsCanBlowWoundSkill, COMDAT
; _this$ = ecx

; 440  : 	virtual bool IsCanBlowWoundSkill() const { return m_bEnableBlowWoundSkill; }

  00000	55		 push	 ebp
  00001	8b ec		 mov	 ebp, esp
  00003	51		 push	 ecx
  00004	8d 45 ff	 lea	 eax, DWORD PTR _value$538215[ebp]
  00007	50		 push	 eax
  00008	81 c1 8c 04 00
	00		 add	 ecx, 1164		; 0000048cH
  0000e	e8 00 00 00 00	 call	 ?DecryptValueToPool@?$CEncrypt@_N@@QAEXPA_N@Z ; CEncrypt<bool>::DecryptValueToPool
  00013	8a 45 ff	 mov	 al, BYTE PTR _value$538215[ebp]
  00016	c9		 leave
  00017	c3		 ret	 0
?IsCanBlowWoundSkill@ioSkill@@UBE_NXZ ENDP		; ioSkill::IsCanBlowWoundSkill
; Function compile flags: /Ogsp
_TEXT	ENDS
;	COMDAT ?IsCanWoundSkill@ioSkill@@UBE_NXZ
_TEXT	SEGMENT
_value$538222 = -1					; size = 1
?IsCanWoundSkill@ioSkill@@UBE_NXZ PROC			; ioSkill::IsCanWoundSkill, COMDAT
; _this$ = ecx

; 446  : 	virtual bool IsCanWoundSkill() const { return m_bEnableWoundSkill; }

  00000	55		 push	 ebp
  00001	8b ec		 mov	 ebp, esp
  00003	51		 push	 ecx
  00004	8d 45 ff	 lea	 eax, DWORD PTR _value$538222[ebp]
  00007	50		 push	 eax
  00008	81 c1 54 05 00
	00		 add	 ecx, 1364		; 00000554H
  0000e	e8 00 00 00 00	 call	 ?DecryptValueToPool@?$CEncrypt@_N@@QAEXPA_N@Z ; CEncrypt<bool>::DecryptValueToPool
  00013	8a 45 ff	 mov	 al, BYTE PTR _value$538222[ebp]
  00016	c9		 leave
  00017	c3		 ret	 0
?IsCanWoundSkill@ioSkill@@UBE_NXZ ENDP			; ioSkill::IsCanWoundSkill
_TEXT	ENDS
PUBLIC	??0ioTwoMagicCircleSkill@@QAE@XZ		; ioTwoMagicCircleSkill::ioTwoMagicCircleSkill
EXTRN	??0ioNormalSkill@@QAE@XZ:PROC			; ioNormalSkill::ioNormalSkill
;	COMDAT xdata$x
; File c:\program files (x86)\microsoft directx sdk (june 2010)\include\d3dx9math.h
xdata$x	SEGMENT
__ehfuncinfo$??0ioTwoMagicCircleSkill@@QAE@XZ DD 019930522H
	DD	0bH
	DD	FLAT:__unwindtable$??0ioTwoMagicCircleSkill@@QAE@XZ
	DD	2 DUP(00H)
	DD	2 DUP(00H)
	DD	00H
	DD	01H
__unwindtable$??0ioTwoMagicCircleSkill@@QAE@XZ DD 0ffffffffH
	DD	FLAT:__unwindfunclet$??0ioTwoMagicCircleSkill@@QAE@XZ$0
	DD	00H
	DD	FLAT:__unwindfunclet$??0ioTwoMagicCircleSkill@@QAE@XZ$1
	DD	01H
	DD	FLAT:__unwindfunclet$??0ioTwoMagicCircleSkill@@QAE@XZ$2
	DD	02H
	DD	FLAT:__unwindfunclet$??0ioTwoMagicCircleSkill@@QAE@XZ$3
	DD	03H
	DD	FLAT:__unwindfunclet$??0ioTwoMagicCircleSkill@@QAE@XZ$4
	DD	04H
	DD	FLAT:__unwindfunclet$??0ioTwoMagicCircleSkill@@QAE@XZ$5
	DD	05H
	DD	FLAT:__unwindfunclet$??0ioTwoMagicCircleSkill@@QAE@XZ$6
	DD	06H
	DD	FLAT:__unwindfunclet$??0ioTwoMagicCircleSkill@@QAE@XZ$7
	DD	07H
	DD	FLAT:__unwindfunclet$??0ioTwoMagicCircleSkill@@QAE@XZ$8
	DD	08H
	DD	FLAT:__unwindfunclet$??0ioTwoMagicCircleSkill@@QAE@XZ$9
	DD	09H
	DD	FLAT:__unwindfunclet$??0ioTwoMagicCircleSkill@@QAE@XZ$10
; Function compile flags: /Ogsp
; File d:\lost saga for developer\youtube\tutorial\source\src\lsclient\iotwomagiccircleskill.cpp
xdata$x	ENDS
;	COMDAT ??0ioTwoMagicCircleSkill@@QAE@XZ
_TEXT	SEGMENT
_this$ = -16						; size = 4
__$EHRec$ = -12						; size = 12
??0ioTwoMagicCircleSkill@@QAE@XZ PROC			; ioTwoMagicCircleSkill::ioTwoMagicCircleSkill, COMDAT
; _this$ = ecx

; 10   : {

  00000	6a 04		 push	 4
  00002	b8 00 00 00 00	 mov	 eax, __ehhandler$??0ioTwoMagicCircleSkill@@QAE@XZ
  00007	e8 00 00 00 00	 call	 __EH_prolog3
  0000c	8b f1		 mov	 esi, ecx
  0000e	89 75 f0	 mov	 DWORD PTR _this$[ebp], esi
  00011	e8 00 00 00 00	 call	 ??0ioNormalSkill@@QAE@XZ ; ioNormalSkill::ioNormalSkill
  00016	83 65 fc 00	 and	 DWORD PTR __$EHRec$[ebp+8], 0
  0001a	8d 8e 58 0f 00
	00		 lea	 ecx, DWORD PTR [esi+3928]
  00020	c7 06 00 00 00
	00		 mov	 DWORD PTR [esi], OFFSET ??_7ioTwoMagicCircleSkill@@6B@
  00026	e8 00 00 00 00	 call	 ??0?$CEncrypt@H@@QAE@XZ	; CEncrypt<int>::CEncrypt<int>
  0002b	8b 3d 00 00 00
	00		 mov	 edi, DWORD PTR __imp_??0ioHashString@@QAE@XZ
  00031	8d 8e 90 0f 00
	00		 lea	 ecx, DWORD PTR [esi+3984]
  00037	c6 45 fc 01	 mov	 BYTE PTR __$EHRec$[ebp+8], 1
  0003b	ff d7		 call	 edi
  0003d	8d 8e a4 0f 00
	00		 lea	 ecx, DWORD PTR [esi+4004]
  00043	c6 45 fc 02	 mov	 BYTE PTR __$EHRec$[ebp+8], 2
  00047	ff d7		 call	 edi
  00049	8d 8e bc 0f 00
	00		 lea	 ecx, DWORD PTR [esi+4028]
  0004f	c6 45 fc 03	 mov	 BYTE PTR __$EHRec$[ebp+8], 3
  00053	ff d7		 call	 edi
  00055	8d 8e f0 0f 00
	00		 lea	 ecx, DWORD PTR [esi+4080]
  0005b	c6 45 fc 04	 mov	 BYTE PTR __$EHRec$[ebp+8], 4
  0005f	ff d7		 call	 edi
  00061	8d 8e 48 10 00
	00		 lea	 ecx, DWORD PTR [esi+4168]
  00067	c6 45 fc 05	 mov	 BYTE PTR __$EHRec$[ebp+8], 5
  0006b	ff d7		 call	 edi
  0006d	8d 8e 58 10 00
	00		 lea	 ecx, DWORD PTR [esi+4184]
  00073	c6 45 fc 06	 mov	 BYTE PTR __$EHRec$[ebp+8], 6
  00077	ff d7		 call	 edi
  00079	8d 8e 68 10 00
	00		 lea	 ecx, DWORD PTR [esi+4200]
  0007f	c6 45 fc 07	 mov	 BYTE PTR __$EHRec$[ebp+8], 7
  00083	ff d7		 call	 edi
  00085	8d 8e 78 10 00
	00		 lea	 ecx, DWORD PTR [esi+4216]
  0008b	c6 45 fc 08	 mov	 BYTE PTR __$EHRec$[ebp+8], 8
  0008f	ff d7		 call	 edi
  00091	8d 8e 9c 10 00
	00		 lea	 ecx, DWORD PTR [esi+4252]
  00097	c6 45 fc 09	 mov	 BYTE PTR __$EHRec$[ebp+8], 9
  0009b	ff d7		 call	 edi

; 11   : 	ClearData();

  0009d	8b ce		 mov	 ecx, esi
  0009f	c6 45 fc 0a	 mov	 BYTE PTR __$EHRec$[ebp+8], 10 ; 0000000aH
  000a3	e8 00 00 00 00	 call	 ?ClearData@ioTwoMagicCircleSkill@@IAEXXZ ; ioTwoMagicCircleSkill::ClearData

; 12   : }

  000a8	8b c6		 mov	 eax, esi
  000aa	e8 00 00 00 00	 call	 __EH_epilog3
  000af	c3		 ret	 0
_TEXT	ENDS
;	COMDAT text$x
text$x	SEGMENT
__unwindfunclet$??0ioTwoMagicCircleSkill@@QAE@XZ$0:
  00000	8b 4d f0	 mov	 ecx, DWORD PTR _this$[ebp]
  00003	e9 00 00 00 00	 jmp	 ??1ioNormalSkill@@UAE@XZ ; ioNormalSkill::~ioNormalSkill
__unwindfunclet$??0ioTwoMagicCircleSkill@@QAE@XZ$1:
  00008	8b 4d f0	 mov	 ecx, DWORD PTR _this$[ebp]
  0000b	81 c1 58 0f 00
	00		 add	 ecx, 3928		; 00000f58H
  00011	e9 00 00 00 00	 jmp	 ??1?$CEncrypt@H@@UAE@XZ	; CEncrypt<int>::~CEncrypt<int>
__unwindfunclet$??0ioTwoMagicCircleSkill@@QAE@XZ$2:
  00016	8b 4d f0	 mov	 ecx, DWORD PTR _this$[ebp]
  00019	81 c1 90 0f 00
	00		 add	 ecx, 3984		; 00000f90H
  0001f	ff 25 00 00 00
	00		 jmp	 DWORD PTR __imp_??1ioHashString@@QAE@XZ
__unwindfunclet$??0ioTwoMagicCircleSkill@@QAE@XZ$3:
  00025	8b 4d f0	 mov	 ecx, DWORD PTR _this$[ebp]
  00028	81 c1 a4 0f 00
	00		 add	 ecx, 4004		; 00000fa4H
  0002e	ff 25 00 00 00
	00		 jmp	 DWORD PTR __imp_??1ioHashString@@QAE@XZ
__unwindfunclet$??0ioTwoMagicCircleSkill@@QAE@XZ$4:
  00034	8b 4d f0	 mov	 ecx, DWORD PTR _this$[ebp]
  00037	81 c1 bc 0f 00
	00		 add	 ecx, 4028		; 00000fbcH
  0003d	ff 25 00 00 00
	00		 jmp	 DWORD PTR __imp_??1ioHashString@@QAE@XZ
__unwindfunclet$??0ioTwoMagicCircleSkill@@QAE@XZ$5:
  00043	8b 4d f0	 mov	 ecx, DWORD PTR _this$[ebp]
  00046	81 c1 f0 0f 00
	00		 add	 ecx, 4080		; 00000ff0H
  0004c	ff 25 00 00 00
	00		 jmp	 DWORD PTR __imp_??1ioHashString@@QAE@XZ
__unwindfunclet$??0ioTwoMagicCircleSkill@@QAE@XZ$6:
  00052	8b 4d f0	 mov	 ecx, DWORD PTR _this$[ebp]
  00055	81 c1 48 10 00
	00		 add	 ecx, 4168		; 00001048H
  0005b	ff 25 00 00 00
	00		 jmp	 DWORD PTR __imp_??1ioHashString@@QAE@XZ
__unwindfunclet$??0ioTwoMagicCircleSkill@@QAE@XZ$7:
  00061	8b 4d f0	 mov	 ecx, DWORD PTR _this$[ebp]
  00064	81 c1 58 10 00
	00		 add	 ecx, 4184		; 00001058H
  0006a	ff 25 00 00 00
	00		 jmp	 DWORD PTR __imp_??1ioHashString@@QAE@XZ
__unwindfunclet$??0ioTwoMagicCircleSkill@@QAE@XZ$8:
  00070	8b 4d f0	 mov	 ecx, DWORD PTR _this$[ebp]
  00073	81 c1 68 10 00
	00		 add	 ecx, 4200		; 00001068H
  00079	ff 25 00 00 00
	00		 jmp	 DWORD PTR __imp_??1ioHashString@@QAE@XZ
__unwindfunclet$??0ioTwoMagicCircleSkill@@QAE@XZ$9:
  0007f	8b 4d f0	 mov	 ecx, DWORD PTR _this$[ebp]
  00082	81 c1 78 10 00
	00		 add	 ecx, 4216		; 00001078H
  00088	ff 25 00 00 00
	00		 jmp	 DWORD PTR __imp_??1ioHashString@@QAE@XZ
__unwindfunclet$??0ioTwoMagicCircleSkill@@QAE@XZ$10:
  0008e	8b 4d f0	 mov	 ecx, DWORD PTR _this$[ebp]
  00091	81 c1 9c 10 00
	00		 add	 ecx, 4252		; 0000109cH
  00097	ff 25 00 00 00
	00		 jmp	 DWORD PTR __imp_??1ioHashString@@QAE@XZ
__ehhandler$??0ioTwoMagicCircleSkill@@QAE@XZ:
  0009d	8b 54 24 08	 mov	 edx, DWORD PTR [esp+8]
  000a1	8d 42 0c	 lea	 eax, DWORD PTR [edx+12]
  000a4	8b 4a ec	 mov	 ecx, DWORD PTR [edx-20]
  000a7	33 c8		 xor	 ecx, eax
  000a9	e8 00 00 00 00	 call	 @__security_check_cookie@4
  000ae	b8 00 00 00 00	 mov	 eax, OFFSET __ehfuncinfo$??0ioTwoMagicCircleSkill@@QAE@XZ
  000b3	e9 00 00 00 00	 jmp	 ___CxxFrameHandler3
text$x	ENDS
??0ioTwoMagicCircleSkill@@QAE@XZ ENDP			; ioTwoMagicCircleSkill::ioTwoMagicCircleSkill
PUBLIC	??0ioTwoMagicCircleSkill@@QAE@ABV0@@Z		; ioTwoMagicCircleSkill::ioTwoMagicCircleSkill
EXTRN	??0ioNormalSkill@@QAE@ABV0@@Z:PROC		; ioNormalSkill::ioNormalSkill
;	COMDAT xdata$x
; File c:\program files (x86)\microsoft directx sdk (june 2010)\include\d3dx9math.h
xdata$x	SEGMENT
__ehfuncinfo$??0ioTwoMagicCircleSkill@@QAE@ABV0@@Z DD 019930522H
	DD	0bH
	DD	FLAT:__unwindtable$??0ioTwoMagicCircleSkill@@QAE@ABV0@@Z
	DD	2 DUP(00H)
	DD	2 DUP(00H)
	DD	00H
	DD	01H
__unwindtable$??0ioTwoMagicCircleSkill@@QAE@ABV0@@Z DD 0ffffffffH
	DD	FLAT:__unwindfunclet$??0ioTwoMagicCircleSkill@@QAE@ABV0@@Z$0
	DD	00H
	DD	FLAT:__unwindfunclet$??0ioTwoMagicCircleSkill@@QAE@ABV0@@Z$1
	DD	01H
	DD	FLAT:__unwindfunclet$??0ioTwoMagicCircleSkill@@QAE@ABV0@@Z$2
	DD	02H
	DD	FLAT:__unwindfunclet$??0ioTwoMagicCircleSkill@@QAE@ABV0@@Z$3
	DD	03H
	DD	FLAT:__unwindfunclet$??0ioTwoMagicCircleSkill@@QAE@ABV0@@Z$4
	DD	04H
	DD	FLAT:__unwindfunclet$??0ioTwoMagicCircleSkill@@QAE@ABV0@@Z$5
	DD	05H
	DD	FLAT:__unwindfunclet$??0ioTwoMagicCircleSkill@@QAE@ABV0@@Z$6
	DD	06H
	DD	FLAT:__unwindfunclet$??0ioTwoMagicCircleSkill@@QAE@ABV0@@Z$7
	DD	07H
	DD	FLAT:__unwindfunclet$??0ioTwoMagicCircleSkill@@QAE@ABV0@@Z$8
	DD	08H
	DD	FLAT:__unwindfunclet$??0ioTwoMagicCircleSkill@@QAE@ABV0@@Z$9
	DD	09H
	DD	FLAT:__unwindfunclet$??0ioTwoMagicCircleSkill@@QAE@ABV0@@Z$10
; Function compile flags: /Ogsp
; File d:\lost saga for developer\youtube\tutorial\source\src\lsclient\iotwomagiccircleskill.cpp
xdata$x	ENDS
;	COMDAT ??0ioTwoMagicCircleSkill@@QAE@ABV0@@Z
_TEXT	SEGMENT
_this$ = -16						; size = 4
__$EHRec$ = -12						; size = 12
_rhs$ = 8						; size = 4
??0ioTwoMagicCircleSkill@@QAE@ABV0@@Z PROC		; ioTwoMagicCircleSkill::ioTwoMagicCircleSkill, COMDAT
; _this$ = ecx

; 41   : {

  00000	6a 04		 push	 4
  00002	b8 00 00 00 00	 mov	 eax, __ehhandler$??0ioTwoMagicCircleSkill@@QAE@ABV0@@Z
  00007	e8 00 00 00 00	 call	 __EH_prolog3
  0000c	8b f1		 mov	 esi, ecx
  0000e	89 75 f0	 mov	 DWORD PTR _this$[ebp], esi
  00011	8b 7d 08	 mov	 edi, DWORD PTR _rhs$[ebp]
  00014	57		 push	 edi
  00015	e8 00 00 00 00	 call	 ??0ioNormalSkill@@QAE@ABV0@@Z ; ioNormalSkill::ioNormalSkill
  0001a	83 65 fc 00	 and	 DWORD PTR __$EHRec$[ebp+8], 0
  0001e	8d 8e 58 0f 00
	00		 lea	 ecx, DWORD PTR [esi+3928]
  00024	c7 06 00 00 00
	00		 mov	 DWORD PTR [esi], OFFSET ??_7ioTwoMagicCircleSkill@@6B@
  0002a	e8 00 00 00 00	 call	 ??0?$CEncrypt@H@@QAE@XZ	; CEncrypt<int>::CEncrypt<int>
  0002f	8b 87 8c 0f 00
	00		 mov	 eax, DWORD PTR [edi+3980]
  00035	8b 1d 00 00 00
	00		 mov	 ebx, DWORD PTR __imp_??0ioHashString@@QAE@ABV0@@Z
  0003b	89 86 8c 0f 00
	00		 mov	 DWORD PTR [esi+3980], eax
  00041	8d 87 90 0f 00
	00		 lea	 eax, DWORD PTR [edi+3984]
  00047	50		 push	 eax
  00048	8d 8e 90 0f 00
	00		 lea	 ecx, DWORD PTR [esi+3984]
  0004e	c6 45 fc 01	 mov	 BYTE PTR __$EHRec$[ebp+8], 1
  00052	ff d3		 call	 ebx
  00054	d9 87 a0 0f 00
	00		 fld	 DWORD PTR [edi+4000]
  0005a	8d 87 a4 0f 00
	00		 lea	 eax, DWORD PTR [edi+4004]
  00060	d9 9e a0 0f 00
	00		 fstp	 DWORD PTR [esi+4000]
  00066	50		 push	 eax
  00067	8d 8e a4 0f 00
	00		 lea	 ecx, DWORD PTR [esi+4004]
  0006d	c6 45 fc 02	 mov	 BYTE PTR __$EHRec$[ebp+8], 2
  00071	ff d3		 call	 ebx
  00073	d9 87 b4 0f 00
	00		 fld	 DWORD PTR [edi+4020]
  00079	8d 87 bc 0f 00
	00		 lea	 eax, DWORD PTR [edi+4028]
  0007f	d9 9e b4 0f 00
	00		 fstp	 DWORD PTR [esi+4020]
  00085	50		 push	 eax
  00086	8d 8e bc 0f 00
	00		 lea	 ecx, DWORD PTR [esi+4028]
  0008c	c6 45 fc 03	 mov	 BYTE PTR __$EHRec$[ebp+8], 3
  00090	ff d3		 call	 ebx
  00092	d9 87 cc 0f 00
	00		 fld	 DWORD PTR [edi+4044]
  00098	d9 9e cc 0f 00
	00		 fstp	 DWORD PTR [esi+4044]
  0009e	8b 87 d0 0f 00
	00		 mov	 eax, DWORD PTR [edi+4048]
  000a4	89 86 d0 0f 00
	00		 mov	 DWORD PTR [esi+4048], eax
  000aa	d9 87 dc 0f 00
	00		 fld	 DWORD PTR [edi+4060]
  000b0	d9 9e dc 0f 00
	00		 fstp	 DWORD PTR [esi+4060]
  000b6	8d 8e f0 0f 00
	00		 lea	 ecx, DWORD PTR [esi+4080]
  000bc	d9 87 e0 0f 00
	00		 fld	 DWORD PTR [edi+4064]
  000c2	c6 45 fc 04	 mov	 BYTE PTR __$EHRec$[ebp+8], 4
  000c6	d9 9e e0 0f 00
	00		 fstp	 DWORD PTR [esi+4064]
  000cc	d9 87 e4 0f 00
	00		 fld	 DWORD PTR [edi+4068]
  000d2	d9 9e e4 0f 00
	00		 fstp	 DWORD PTR [esi+4068]
  000d8	d9 87 e8 0f 00
	00		 fld	 DWORD PTR [edi+4072]
  000de	d9 9e e8 0f 00
	00		 fstp	 DWORD PTR [esi+4072]
  000e4	ff 15 00 00 00
	00		 call	 DWORD PTR __imp_??0ioHashString@@QAE@XZ
  000ea	d9 87 04 10 00
	00		 fld	 DWORD PTR [edi+4100]
  000f0	d9 9e 04 10 00
	00		 fstp	 DWORD PTR [esi+4100]
  000f6	8d 87 48 10 00
	00		 lea	 eax, DWORD PTR [edi+4168]
  000fc	d9 87 08 10 00
	00		 fld	 DWORD PTR [edi+4104]
  00102	50		 push	 eax
  00103	d9 9e 08 10 00
	00		 fstp	 DWORD PTR [esi+4104]
  00109	8d 8e 48 10 00
	00		 lea	 ecx, DWORD PTR [esi+4168]
  0010f	d9 87 0c 10 00
	00		 fld	 DWORD PTR [edi+4108]
  00115	c6 45 fc 05	 mov	 BYTE PTR __$EHRec$[ebp+8], 5
  00119	d9 9e 0c 10 00
	00		 fstp	 DWORD PTR [esi+4108]
  0011f	d9 87 10 10 00
	00		 fld	 DWORD PTR [edi+4112]
  00125	d9 9e 10 10 00
	00		 fstp	 DWORD PTR [esi+4112]
  0012b	d9 87 14 10 00
	00		 fld	 DWORD PTR [edi+4116]
  00131	d9 9e 14 10 00
	00		 fstp	 DWORD PTR [esi+4116]
  00137	d9 87 3c 10 00
	00		 fld	 DWORD PTR [edi+4156]
  0013d	d9 9e 3c 10 00
	00		 fstp	 DWORD PTR [esi+4156]
  00143	d9 87 40 10 00
	00		 fld	 DWORD PTR [edi+4160]
  00149	d9 9e 40 10 00
	00		 fstp	 DWORD PTR [esi+4160]
  0014f	d9 87 44 10 00
	00		 fld	 DWORD PTR [edi+4164]
  00155	d9 9e 44 10 00
	00		 fstp	 DWORD PTR [esi+4164]
  0015b	ff d3		 call	 ebx
  0015d	8d 87 58 10 00
	00		 lea	 eax, DWORD PTR [edi+4184]
  00163	50		 push	 eax
  00164	8d 8e 58 10 00
	00		 lea	 ecx, DWORD PTR [esi+4184]
  0016a	c6 45 fc 06	 mov	 BYTE PTR __$EHRec$[ebp+8], 6
  0016e	ff d3		 call	 ebx
  00170	8d 8e 68 10 00
	00		 lea	 ecx, DWORD PTR [esi+4200]
  00176	c6 45 fc 07	 mov	 BYTE PTR __$EHRec$[ebp+8], 7
  0017a	ff 15 00 00 00
	00		 call	 DWORD PTR __imp_??0ioHashString@@QAE@XZ
  00180	8d 87 78 10 00
	00		 lea	 eax, DWORD PTR [edi+4216]
  00186	50		 push	 eax
  00187	8d 8e 78 10 00
	00		 lea	 ecx, DWORD PTR [esi+4216]
  0018d	c6 45 fc 08	 mov	 BYTE PTR __$EHRec$[ebp+8], 8
  00191	ff d3		 call	 ebx
  00193	81 c7 9c 10 00
	00		 add	 edi, 4252		; 0000109cH
  00199	57		 push	 edi
  0019a	8d 8e 9c 10 00
	00		 lea	 ecx, DWORD PTR [esi+4252]
  001a0	c6 45 fc 09	 mov	 BYTE PTR __$EHRec$[ebp+8], 9
  001a4	ff d3		 call	 ebx

; 42   : 	ClearData();

  001a6	8b ce		 mov	 ecx, esi
  001a8	c6 45 fc 0a	 mov	 BYTE PTR __$EHRec$[ebp+8], 10 ; 0000000aH
  001ac	e8 00 00 00 00	 call	 ?ClearData@ioTwoMagicCircleSkill@@IAEXXZ ; ioTwoMagicCircleSkill::ClearData

; 43   : }

  001b1	8b c6		 mov	 eax, esi
  001b3	e8 00 00 00 00	 call	 __EH_epilog3
  001b8	c2 04 00	 ret	 4
_TEXT	ENDS
;	COMDAT text$x
text$x	SEGMENT
__unwindfunclet$??0ioTwoMagicCircleSkill@@QAE@ABV0@@Z$0:
  00000	8b 4d f0	 mov	 ecx, DWORD PTR _this$[ebp]
  00003	e9 00 00 00 00	 jmp	 ??1ioNormalSkill@@UAE@XZ ; ioNormalSkill::~ioNormalSkill
__unwindfunclet$??0ioTwoMagicCircleSkill@@QAE@ABV0@@Z$1:
  00008	8b 4d f0	 mov	 ecx, DWORD PTR _this$[ebp]
  0000b	81 c1 58 0f 00
	00		 add	 ecx, 3928		; 00000f58H
  00011	e9 00 00 00 00	 jmp	 ??1?$CEncrypt@H@@UAE@XZ	; CEncrypt<int>::~CEncrypt<int>
__unwindfunclet$??0ioTwoMagicCircleSkill@@QAE@ABV0@@Z$2:
  00016	8b 4d f0	 mov	 ecx, DWORD PTR _this$[ebp]
  00019	81 c1 90 0f 00
	00		 add	 ecx, 3984		; 00000f90H
  0001f	ff 25 00 00 00
	00		 jmp	 DWORD PTR __imp_??1ioHashString@@QAE@XZ
__unwindfunclet$??0ioTwoMagicCircleSkill@@QAE@ABV0@@Z$3:
  00025	8b 4d f0	 mov	 ecx, DWORD PTR _this$[ebp]
  00028	81 c1 a4 0f 00
	00		 add	 ecx, 4004		; 00000fa4H
  0002e	ff 25 00 00 00
	00		 jmp	 DWORD PTR __imp_??1ioHashString@@QAE@XZ
__unwindfunclet$??0ioTwoMagicCircleSkill@@QAE@ABV0@@Z$4:
  00034	8b 4d f0	 mov	 ecx, DWORD PTR _this$[ebp]
  00037	81 c1 bc 0f 00
	00		 add	 ecx, 4028		; 00000fbcH
  0003d	ff 25 00 00 00
	00		 jmp	 DWORD PTR __imp_??1ioHashString@@QAE@XZ
__unwindfunclet$??0ioTwoMagicCircleSkill@@QAE@ABV0@@Z$5:
  00043	8b 4d f0	 mov	 ecx, DWORD PTR _this$[ebp]
  00046	81 c1 f0 0f 00
	00		 add	 ecx, 4080		; 00000ff0H
  0004c	ff 25 00 00 00
	00		 jmp	 DWORD PTR __imp_??1ioHashString@@QAE@XZ
__unwindfunclet$??0ioTwoMagicCircleSkill@@QAE@ABV0@@Z$6:
  00052	8b 4d f0	 mov	 ecx, DWORD PTR _this$[ebp]
  00055	81 c1 48 10 00
	00		 add	 ecx, 4168		; 00001048H
  0005b	ff 25 00 00 00
	00		 jmp	 DWORD PTR __imp_??1ioHashString@@QAE@XZ
__unwindfunclet$??0ioTwoMagicCircleSkill@@QAE@ABV0@@Z$7:
  00061	8b 4d f0	 mov	 ecx, DWORD PTR _this$[ebp]
  00064	81 c1 58 10 00
	00		 add	 ecx, 4184		; 00001058H
  0006a	ff 25 00 00 00
	00		 jmp	 DWORD PTR __imp_??1ioHashString@@QAE@XZ
__unwindfunclet$??0ioTwoMagicCircleSkill@@QAE@ABV0@@Z$8:
  00070	8b 4d f0	 mov	 ecx, DWORD PTR _this$[ebp]
  00073	81 c1 68 10 00
	00		 add	 ecx, 4200		; 00001068H
  00079	ff 25 00 00 00
	00		 jmp	 DWORD PTR __imp_??1ioHashString@@QAE@XZ
__unwindfunclet$??0ioTwoMagicCircleSkill@@QAE@ABV0@@Z$9:
  0007f	8b 4d f0	 mov	 ecx, DWORD PTR _this$[ebp]
  00082	81 c1 78 10 00
	00		 add	 ecx, 4216		; 00001078H
  00088	ff 25 00 00 00
	00		 jmp	 DWORD PTR __imp_??1ioHashString@@QAE@XZ
__unwindfunclet$??0ioTwoMagicCircleSkill@@QAE@ABV0@@Z$10:
  0008e	8b 4d f0	 mov	 ecx, DWORD PTR _this$[ebp]
  00091	81 c1 9c 10 00
	00		 add	 ecx, 4252		; 0000109cH
  00097	ff 25 00 00 00
	00		 jmp	 DWORD PTR __imp_??1ioHashString@@QAE@XZ
__ehhandler$??0ioTwoMagicCircleSkill@@QAE@ABV0@@Z:
  0009d	8b 54 24 08	 mov	 edx, DWORD PTR [esp+8]
  000a1	8d 42 0c	 lea	 eax, DWORD PTR [edx+12]
  000a4	8b 4a ec	 mov	 ecx, DWORD PTR [edx-20]
  000a7	33 c8		 xor	 ecx, eax
  000a9	e8 00 00 00 00	 call	 @__security_check_cookie@4
  000ae	b8 00 00 00 00	 mov	 eax, OFFSET __ehfuncinfo$??0ioTwoMagicCircleSkill@@QAE@ABV0@@Z
  000b3	e9 00 00 00 00	 jmp	 ___CxxFrameHandler3
text$x	ENDS
??0ioTwoMagicCircleSkill@@QAE@ABV0@@Z ENDP		; ioTwoMagicCircleSkill::ioTwoMagicCircleSkill
EXTRN	??2@YAPAXI@Z:PROC				; operator new
;	COMDAT xdata$x
xdata$x	SEGMENT
__unwindtable$?Clone@ioTwoMagicCircleSkill@@UAEPAVioSkill@@XZ DD 0ffffffffH
	DD	FLAT:__unwindfunclet$?Clone@ioTwoMagicCircleSkill@@UAEPAVioSkill@@XZ$0
__ehfuncinfo$?Clone@ioTwoMagicCircleSkill@@UAEPAVioSkill@@XZ DD 019930522H
	DD	01H
	DD	FLAT:__unwindtable$?Clone@ioTwoMagicCircleSkill@@UAEPAVioSkill@@XZ
	DD	2 DUP(00H)
	DD	2 DUP(00H)
	DD	00H
	DD	01H
; Function compile flags: /Ogsp
xdata$x	ENDS
;	COMDAT ?Clone@ioTwoMagicCircleSkill@@UAEPAVioSkill@@XZ
_TEXT	SEGMENT
$T538283 = -16						; size = 4
__$EHRec$ = -12						; size = 12
?Clone@ioTwoMagicCircleSkill@@UAEPAVioSkill@@XZ PROC	; ioTwoMagicCircleSkill::Clone, COMDAT
; _this$ = ecx

; 101  : {

  00000	6a 04		 push	 4
  00002	b8 00 00 00 00	 mov	 eax, __ehhandler$?Clone@ioTwoMagicCircleSkill@@UAEPAVioSkill@@XZ
  00007	e8 00 00 00 00	 call	 __EH_prolog3
  0000c	8b f1		 mov	 esi, ecx

; 102  : 	return new ioTwoMagicCircleSkill( *this );

  0000e	68 b0 10 00 00	 push	 4272			; 000010b0H
  00013	e8 00 00 00 00	 call	 ??2@YAPAXI@Z		; operator new
  00018	59		 pop	 ecx
  00019	8b c8		 mov	 ecx, eax
  0001b	89 4d f0	 mov	 DWORD PTR $T538283[ebp], ecx
  0001e	33 c0		 xor	 eax, eax
  00020	89 45 fc	 mov	 DWORD PTR __$EHRec$[ebp+8], eax
  00023	3b c8		 cmp	 ecx, eax
  00025	74 06		 je	 SHORT $LN3@Clone
  00027	56		 push	 esi
  00028	e8 00 00 00 00	 call	 ??0ioTwoMagicCircleSkill@@QAE@ABV0@@Z ; ioTwoMagicCircleSkill::ioTwoMagicCircleSkill
$LN3@Clone:

; 103  : }

  0002d	e8 00 00 00 00	 call	 __EH_epilog3
  00032	c3		 ret	 0
_TEXT	ENDS
;	COMDAT text$x
text$x	SEGMENT
__unwindfunclet$?Clone@ioTwoMagicCircleSkill@@UAEPAVioSkill@@XZ$0:
  00000	ff 75 f0	 push	 DWORD PTR $T538283[ebp]
  00003	e8 00 00 00 00	 call	 ??3@YAXPAX@Z		; operator delete
  00008	59		 pop	 ecx
  00009	c3		 ret	 0
__ehhandler$?Clone@ioTwoMagicCircleSkill@@UAEPAVioSkill@@XZ:
  0000a	8b 54 24 08	 mov	 edx, DWORD PTR [esp+8]
  0000e	8d 42 0c	 lea	 eax, DWORD PTR [edx+12]
  00011	8b 4a ec	 mov	 ecx, DWORD PTR [edx-20]
  00014	33 c8		 xor	 ecx, eax
  00016	e8 00 00 00 00	 call	 @__security_check_cookie@4
  0001b	b8 00 00 00 00	 mov	 eax, OFFSET __ehfuncinfo$?Clone@ioTwoMagicCircleSkill@@UAEPAVioSkill@@XZ
  00020	e9 00 00 00 00	 jmp	 ___CxxFrameHandler3
text$x	ENDS
?Clone@ioTwoMagicCircleSkill@@UAEPAVioSkill@@XZ ENDP	; ioTwoMagicCircleSkill::Clone
EXTRN	?CheckSkillDesc@ioSkill@@IAEXPAVioBaseChar@@@Z:PROC ; ioSkill::CheckSkillDesc
EXTRN	?SetCameraBuff@ioSkill@@IAEXPAVioBaseChar@@@Z:PROC ; ioSkill::SetCameraBuff
EXTRN	?SetSkillProtection@ioBaseChar@@QAEXXZ:PROC	; ioBaseChar::SetSkillProtection
EXTRN	?IncreaseWeaponIndexBase@ioBaseChar@@QAEKXZ:PROC ; ioBaseChar::IncreaseWeaponIndexBase
EXTRN	?OnSkillStart@ioNormalSkill@@UAE_NPAVioBaseChar@@@Z:PROC ; ioNormalSkill::OnSkillStart
; Function compile flags: /Ogsp
;	COMDAT ?OnSkillStart@ioTwoMagicCircleSkill@@UAE_NPAVioBaseChar@@@Z
_TEXT	SEGMENT
_pChar$ = 8						; size = 4
?OnSkillStart@ioTwoMagicCircleSkill@@UAE_NPAVioBaseChar@@@Z PROC ; ioTwoMagicCircleSkill::OnSkillStart, COMDAT
; _this$ = ecx

; 144  : {	

  00000	55		 push	 ebp
  00001	8b ec		 mov	 ebp, esp
  00003	56		 push	 esi
  00004	57		 push	 edi

; 145  : 	ioNormalSkill::OnSkillStart( pChar );

  00005	8b 7d 08	 mov	 edi, DWORD PTR _pChar$[ebp]
  00008	57		 push	 edi
  00009	8b f1		 mov	 esi, ecx
  0000b	e8 00 00 00 00	 call	 ?OnSkillStart@ioNormalSkill@@UAE_NPAVioBaseChar@@@Z ; ioNormalSkill::OnSkillStart

; 146  : 
; 147  : 	ClearData();

  00010	8b ce		 mov	 ecx, esi
  00012	e8 00 00 00 00	 call	 ?ClearData@ioTwoMagicCircleSkill@@IAEXXZ ; ioTwoMagicCircleSkill::ClearData

; 148  : 
; 149  : 	// 기본 무기 손에서 제거
; 150  : 	if( m_bUseItemMesh )

  00017	33 c0		 xor	 eax, eax
  00019	38 86 08 0f 00
	00		 cmp	 BYTE PTR [esi+3848], al
  0001f	74 09		 je	 SHORT $LN2@OnSkillSta

; 151  : 	{
; 152  : 		pChar->ShowWeaponItemMesh( false );

  00021	50		 push	 eax
  00022	50		 push	 eax
  00023	8b cf		 mov	 ecx, edi
  00025	e8 00 00 00 00	 call	 ?ShowWeaponItemMesh@ioBaseChar@@QAEX_N0@Z ; ioBaseChar::ShowWeaponItemMesh
$LN2@OnSkillSta:

; 153  : 	}
; 154  : 
; 155  : 	m_dwWeaponBaseIndex = pChar->IncreaseWeaponIndexBase();

  0002a	8b cf		 mov	 ecx, edi
  0002c	e8 00 00 00 00	 call	 ?IncreaseWeaponIndexBase@ioBaseChar@@QAEKXZ ; ioBaseChar::IncreaseWeaponIndexBase

; 156  : 	pChar->SetSkillProtection();

  00031	8b cf		 mov	 ecx, edi
  00033	89 46 78	 mov	 DWORD PTR [esi+120], eax
  00036	e8 00 00 00 00	 call	 ?SetSkillProtection@ioBaseChar@@QAEXXZ ; ioBaseChar::SetSkillProtection

; 157  : 
; 158  : 	SetCameraBuff( pChar );

  0003b	57		 push	 edi
  0003c	8b ce		 mov	 ecx, esi
  0003e	e8 00 00 00 00	 call	 ?SetCameraBuff@ioSkill@@IAEXPAVioBaseChar@@@Z ; ioSkill::SetCameraBuff

; 159  : 
; 160  : 	CheckSkillDesc( pChar );

  00043	57		 push	 edi
  00044	8b ce		 mov	 ecx, esi
  00046	e8 00 00 00 00	 call	 ?CheckSkillDesc@ioSkill@@IAEXPAVioBaseChar@@@Z ; ioSkill::CheckSkillDesc

; 161  : 	CheckCharMoveDir( pChar );

  0004b	57		 push	 edi
  0004c	8b ce		 mov	 ecx, esi
  0004e	e8 00 00 00 00	 call	 ?CheckCharMoveDir@ioTwoMagicCircleSkill@@IAEXPAVioBaseChar@@@Z ; ioTwoMagicCircleSkill::CheckCharMoveDir

; 162  : 
; 163  : 	if( !StartPreDelayAnimation( pChar ) )	// Delay Animation이 없다

  00053	8b 06		 mov	 eax, DWORD PTR [esi]
  00055	57		 push	 edi
  00056	8b ce		 mov	 ecx, esi
  00058	ff 90 88 01 00
	00		 call	 DWORD PTR [eax+392]
  0005e	84 c0		 test	 al, al
  00060	75 08		 jne	 SHORT $LN1@OnSkillSta

; 164  : 	{	
; 165  : 		SetLoopState( pChar );

  00062	57		 push	 edi
  00063	8b ce		 mov	 ecx, esi
  00065	e8 00 00 00 00	 call	 ?SetLoopState@ioTwoMagicCircleSkill@@IAEXPAVioBaseChar@@@Z ; ioTwoMagicCircleSkill::SetLoopState
$LN1@OnSkillSta:

; 166  : 	}	
; 167  : 
; 168  : 	return true;

  0006a	5f		 pop	 edi
  0006b	b0 01		 mov	 al, 1
  0006d	5e		 pop	 esi

; 169  : }

  0006e	5d		 pop	 ebp
  0006f	c2 04 00	 ret	 4
?OnSkillStart@ioTwoMagicCircleSkill@@UAE_NPAVioBaseChar@@@Z ENDP ; ioTwoMagicCircleSkill::OnSkillStart
_TEXT	ENDS
PUBLIC	__$ArrayPad$
PUBLIC	?SetCircleEffect@ioTwoMagicCircleSkill@@IAEXPAVioBaseChar@@PAVioPlayStage@@UD3DXVECTOR3@@@Z ; ioTwoMagicCircleSkill::SetCircleEffect
EXTRN	?GetUniqueID@ioMapEffect@@QBEKXZ:PROC		; ioMapEffect::GetUniqueID
EXTRN	?CreateMapEffect@ioPlayStage@@QAEPAVioMapEffect@@ABVioHashString@@ABUD3DXVECTOR3@@1@Z:PROC ; ioPlayStage::CreateMapEffect
EXTRN	?GetCameraTargetChar@ioPlayStage@@QAEPAVioBaseChar@@XZ:PROC ; ioPlayStage::GetCameraTargetChar
; Function compile flags: /Ogsp
;	COMDAT ?SetCircleEffect@ioTwoMagicCircleSkill@@IAEXPAVioBaseChar@@PAVioPlayStage@@UD3DXVECTOR3@@@Z
_TEXT	SEGMENT
_value$538322 = -24					; size = 4
tv222 = -20						; size = 4
tv219 = -20						; size = 4
tv216 = -20						; size = 4
_value$538335 = -20					; size = 4
_vScale$ = -16						; size = 12
__$ArrayPad$ = -4					; size = 4
_pChar$ = 8						; size = 4
_pStage$ = 12						; size = 4
_vPos$ = 16						; size = 12
?SetCircleEffect@ioTwoMagicCircleSkill@@IAEXPAVioBaseChar@@PAVioPlayStage@@UD3DXVECTOR3@@@Z PROC ; ioTwoMagicCircleSkill::SetCircleEffect, COMDAT
; _this$ = ecx

; 540  : {

  00000	55		 push	 ebp
  00001	8b ec		 mov	 ebp, esp
  00003	83 ec 18	 sub	 esp, 24			; 00000018H
  00006	a1 00 00 00 00	 mov	 eax, DWORD PTR ___security_cookie
  0000b	33 c5		 xor	 eax, ebp
  0000d	89 45 fc	 mov	 DWORD PTR __$ArrayPad$[ebp], eax
  00010	56		 push	 esi
  00011	57		 push	 edi
  00012	8b f1		 mov	 esi, ecx

; 541  : 	D3DXVECTOR3 vScale( FLOAT1, FLOAT1, FLOAT1 );	

  00014	b8 01 00 00 00	 mov	 eax, 1
  00019	8b c8		 mov	 ecx, eax
  0001b	b8 01 00 00 00	 mov	 eax, 1
  00020	8b d0		 mov	 edx, eax
  00022	b8 01 00 00 00	 mov	 eax, 1
  00027	89 45 ec	 mov	 DWORD PTR tv222[ebp], eax
  0002a	db 45 ec	 fild	 DWORD PTR tv222[ebp]
  0002d	85 c0		 test	 eax, eax
  0002f	79 06		 jns	 SHORT $LN27@SetCircleE
  00031	d8 05 00 00 00
	00		 fadd	 DWORD PTR __real@4f800000
$LN27@SetCircleE:
  00037	d9 5d f0	 fstp	 DWORD PTR _vScale$[ebp]
  0003a	89 55 ec	 mov	 DWORD PTR tv219[ebp], edx
  0003d	db 45 ec	 fild	 DWORD PTR tv219[ebp]
  00040	85 d2		 test	 edx, edx
  00042	79 06		 jns	 SHORT $LN28@SetCircleE
  00044	d8 05 00 00 00
	00		 fadd	 DWORD PTR __real@4f800000
$LN28@SetCircleE:
  0004a	d9 5d f4	 fstp	 DWORD PTR _vScale$[ebp+4]
  0004d	89 4d ec	 mov	 DWORD PTR tv216[ebp], ecx
  00050	db 45 ec	 fild	 DWORD PTR tv216[ebp]
  00053	85 c9		 test	 ecx, ecx
  00055	79 06		 jns	 SHORT $LN29@SetCircleE
  00057	d8 05 00 00 00
	00		 fadd	 DWORD PTR __real@4f800000
$LN29@SetCircleE:

; 542  : 	
; 543  : 	switch( m_CircleState )

  0005d	8b 86 88 0f 00
	00		 mov	 eax, DWORD PTR [esi+3976]
  00063	d9 5d f8	 fstp	 DWORD PTR _vScale$[ebp+8]
  00066	83 e8 00	 sub	 eax, 0
  00069	74 6c		 je	 SHORT $LN6@SetCircleE
  0006b	48		 dec	 eax
  0006c	0f 85 8d 00 00
	00		 jne	 $LN5@SetCircleE

; 551  : 		}
; 552  : 		break;
; 553  : 	case SECOND_CIRCLE:
; 554  : 		{
; 555  : 			ioBaseChar* pTarget = pStage->GetCameraTargetChar();

  00072	8b 4d 0c	 mov	 ecx, DWORD PTR _pStage$[ebp]
  00075	e8 00 00 00 00	 call	 ?GetCameraTargetChar@ioPlayStage@@QAEPAVioBaseChar@@XZ ; ioPlayStage::GetCameraTargetChar
  0007a	8b f8		 mov	 edi, eax

; 556  : 			if( pChar && pTarget  )

  0007c	8b 45 08	 mov	 eax, DWORD PTR _pChar$[ebp]
  0007f	85 c0		 test	 eax, eax
  00081	74 7c		 je	 SHORT $LN5@SetCircleE
  00083	85 ff		 test	 edi, edi
  00085	74 78		 je	 SHORT $LN5@SetCircleE

; 557  : 			{
; 558  : 				if( pChar->GetTeam() == pTarget->GetTeam() )

  00087	8d 4d e8	 lea	 ecx, DWORD PTR _value$538322[ebp]
  0008a	51		 push	 ecx
  0008b	8d 88 90 00 00
	00		 lea	 ecx, DWORD PTR [eax+144]
  00091	e8 00 00 00 00	 call	 ?DecryptValueToPool@?$CEncrypt@W4TeamType@@@@QAEXPAW4TeamType@@@Z ; CEncrypt<enum TeamType>::DecryptValueToPool
  00096	8d 45 ec	 lea	 eax, DWORD PTR _value$538335[ebp]
  00099	50		 push	 eax
  0009a	8d 8f 90 00 00
	00		 lea	 ecx, DWORD PTR [edi+144]
  000a0	e8 00 00 00 00	 call	 ?DecryptValueToPool@?$CEncrypt@W4TeamType@@@@QAEXPAW4TeamType@@@Z ; CEncrypt<enum TeamType>::DecryptValueToPool
  000a5	8b 45 e8	 mov	 eax, DWORD PTR _value$538322[ebp]
  000a8	3b 45 ec	 cmp	 eax, DWORD PTR _value$538335[ebp]
  000ab	75 52		 jne	 SHORT $LN5@SetCircleE

; 559  : 				{
; 560  : 					ioMapEffect *pMapEffect = pStage->CreateMapEffect( m_szStampCircleEffect, vPos, vScale );

  000ad	8b 4d 0c	 mov	 ecx, DWORD PTR _pStage$[ebp]
  000b0	8d 45 f0	 lea	 eax, DWORD PTR _vScale$[ebp]
  000b3	50		 push	 eax
  000b4	8d 45 10	 lea	 eax, DWORD PTR _vPos$[ebp]
  000b7	50		 push	 eax
  000b8	8d 86 78 10 00
	00		 lea	 eax, DWORD PTR [esi+4216]
  000be	50		 push	 eax
  000bf	e8 00 00 00 00	 call	 ?CreateMapEffect@ioPlayStage@@QAEPAVioMapEffect@@ABVioHashString@@ABUD3DXVECTOR3@@1@Z ; ioPlayStage::CreateMapEffect

; 561  : 
; 562  : 					if( pMapEffect )

  000c4	85 c0		 test	 eax, eax
  000c6	74 37		 je	 SHORT $LN5@SetCircleE

; 563  : 						m_dwSecondStampCircleEffect = pMapEffect->GetUniqueID();							

  000c8	8b c8		 mov	 ecx, eax
  000ca	e8 00 00 00 00	 call	 ?GetUniqueID@ioMapEffect@@QBEKXZ ; ioMapEffect::GetUniqueID
  000cf	89 86 8c 10 00
	00		 mov	 DWORD PTR [esi+4236], eax

; 564  : 				}
; 565  : 			}
; 566  : 		}
; 567  : 
; 568  : 		break;

  000d5	eb 28		 jmp	 SHORT $LN5@SetCircleE
$LN6@SetCircleE:

; 544  : 	{
; 545  : 	case FIRST_CIRCLE:
; 546  : 		{
; 547  : 			ioMapEffect *pMapEffect = pStage->CreateMapEffect( m_szStampCircleEffect, vPos, vScale );

  000d7	8b 4d 0c	 mov	 ecx, DWORD PTR _pStage$[ebp]
  000da	8d 45 f0	 lea	 eax, DWORD PTR _vScale$[ebp]
  000dd	50		 push	 eax
  000de	8d 45 10	 lea	 eax, DWORD PTR _vPos$[ebp]
  000e1	50		 push	 eax
  000e2	8d 86 78 10 00
	00		 lea	 eax, DWORD PTR [esi+4216]
  000e8	50		 push	 eax
  000e9	e8 00 00 00 00	 call	 ?CreateMapEffect@ioPlayStage@@QAEPAVioMapEffect@@ABVioHashString@@ABUD3DXVECTOR3@@1@Z ; ioPlayStage::CreateMapEffect

; 548  : 
; 549  : 			if( pMapEffect )

  000ee	85 c0		 test	 eax, eax
  000f0	74 0d		 je	 SHORT $LN5@SetCircleE

; 550  : 				m_dwFirstStampCircleEffect = pMapEffect->GetUniqueID();				

  000f2	8b c8		 mov	 ecx, eax
  000f4	e8 00 00 00 00	 call	 ?GetUniqueID@ioMapEffect@@QBEKXZ ; ioMapEffect::GetUniqueID
  000f9	89 86 88 10 00
	00		 mov	 DWORD PTR [esi+4232], eax
$LN5@SetCircleE:

; 569  : 	}
; 570  : 	
; 571  : }

  000ff	8b 4d fc	 mov	 ecx, DWORD PTR __$ArrayPad$[ebp]
  00102	5f		 pop	 edi
  00103	33 cd		 xor	 ecx, ebp
  00105	5e		 pop	 esi
  00106	e8 00 00 00 00	 call	 @__security_check_cookie@4
  0010b	c9		 leave
  0010c	c2 14 00	 ret	 20			; 00000014H
?SetCircleEffect@ioTwoMagicCircleSkill@@IAEXPAVioBaseChar@@PAVioPlayStage@@UD3DXVECTOR3@@@Z ENDP ; ioTwoMagicCircleSkill::SetCircleEffect
_TEXT	ENDS
EXTRN	??5SP2Packet@@QAEAAV0@AAM@Z:PROC		; SP2Packet::operator>>
EXTRN	??5SP2Packet@@QAEAAV0@AAUD3DXVECTOR3@@@Z:PROC	; SP2Packet::operator>>
EXTRN	??5SP2Packet@@QAEAAV0@AAH@Z:PROC		; SP2Packet::operator>>
;	COMDAT xdata$x
xdata$x	SEGMENT
__unwindtable$?ApplyExtraSkillInfo@ioTwoMagicCircleSkill@@UAEXPAVioBaseChar@@PAVioPlayStage@@AAVSP2Packet@@@Z DD 0ffffffffH
	DD	FLAT:__unwindfunclet$?ApplyExtraSkillInfo@ioTwoMagicCircleSkill@@UAEXPAVioBaseChar@@PAVioPlayStage@@AAVSP2Packet@@@Z$0
__ehfuncinfo$?ApplyExtraSkillInfo@ioTwoMagicCircleSkill@@UAEXPAVioBaseChar@@PAVioPlayStage@@AAVSP2Packet@@@Z DD 019930522H
	DD	01H
	DD	FLAT:__unwindtable$?ApplyExtraSkillInfo@ioTwoMagicCircleSkill@@UAEXPAVioBaseChar@@PAVioPlayStage@@AAVSP2Packet@@@Z
	DD	2 DUP(00H)
	DD	2 DUP(00H)
	DD	00H
	DD	01H
; Function compile flags: /Ogsp
xdata$x	ENDS
;	COMDAT ?ApplyExtraSkillInfo@ioTwoMagicCircleSkill@@UAEXPAVioBaseChar@@PAVioPlayStage@@AAVSP2Packet@@@Z
_TEXT	SEGMENT
_szDummyCircle$530970 = -32				; size = 16
_fOffset$530969 = -16					; size = 4
__$EHRec$ = -12						; size = 12
_pChar$ = 8						; size = 4
_pStage$ = 12						; size = 4
_iSyncType$ = 16					; size = 4
_rkPacket$ = 16						; size = 4
?ApplyExtraSkillInfo@ioTwoMagicCircleSkill@@UAEXPAVioBaseChar@@PAVioPlayStage@@AAVSP2Packet@@@Z PROC ; ioTwoMagicCircleSkill::ApplyExtraSkillInfo, COMDAT
; _this$ = ecx

; 648  : {

  00000	6a 14		 push	 20			; 00000014H
  00002	b8 00 00 00 00	 mov	 eax, __ehhandler$?ApplyExtraSkillInfo@ioTwoMagicCircleSkill@@UAEXPAVioBaseChar@@PAVioPlayStage@@AAVSP2Packet@@@Z
  00007	e8 00 00 00 00	 call	 __EH_prolog3
  0000c	8b d9		 mov	 ebx, ecx

; 649  :  	int iSyncType;		
; 650  :  	rkPacket >> iSyncType;

  0000e	8b 7d 10	 mov	 edi, DWORD PTR _rkPacket$[ebp]
  00011	8d 45 10	 lea	 eax, DWORD PTR _iSyncType$[ebp]
  00014	50		 push	 eax
  00015	8b cf		 mov	 ecx, edi
  00017	e8 00 00 00 00	 call	 ??5SP2Packet@@QAEAAV0@AAH@Z ; SP2Packet::operator>>

; 651  :  
; 652  :  	switch( iSyncType )

  0001c	8b 45 10	 mov	 eax, DWORD PTR _iSyncType$[ebp]
  0001f	83 e8 00	 sub	 eax, 0
  00022	74 3e		 je	 SHORT $LN2@ApplyExtra
  00024	48		 dec	 eax
  00025	0f 85 d2 00 00
	00		 jne	 $LN3@ApplyExtra

; 669  : 		break;
; 670  :  	case NSS_CREATE:
; 671  : 		{			
; 672  : 			rkPacket >> m_vSecondCirclePos;

  0002b	8d b3 30 10 00
	00		 lea	 esi, DWORD PTR [ebx+4144]
  00031	56		 push	 esi
  00032	8b cf		 mov	 ecx, edi
  00034	e8 00 00 00 00	 call	 ??5SP2Packet@@QAEAAV0@AAUD3DXVECTOR3@@@Z ; SP2Packet::operator>>

; 673  : 			
; 674  : 			SetCircleEffect(pChar, pStage, m_vSecondCirclePos);

  00039	83 ec 0c	 sub	 esp, 12			; 0000000cH
  0003c	8b fc		 mov	 edi, esp
  0003e	ff 75 0c	 push	 DWORD PTR _pStage$[ebp]
  00041	a5		 movsd
  00042	ff 75 08	 push	 DWORD PTR _pChar$[ebp]
  00045	a5		 movsd
  00046	8b cb		 mov	 ecx, ebx
  00048	a5		 movsd
  00049	e8 00 00 00 00	 call	 ?SetCircleEffect@ioTwoMagicCircleSkill@@IAEXPAVioBaseChar@@PAVioPlayStage@@UD3DXVECTOR3@@@Z ; ioTwoMagicCircleSkill::SetCircleEffect

; 675  : 			SetActionState(pChar, pStage, CIRCLE_COMPLETE);

  0004e	6a 02		 push	 2
  00050	ff 75 0c	 push	 DWORD PTR _pStage$[ebp]
  00053	8b cb		 mov	 ecx, ebx
  00055	ff 75 08	 push	 DWORD PTR _pChar$[ebp]
  00058	e8 00 00 00 00	 call	 ?SetActionState@ioTwoMagicCircleSkill@@IAEXPAVioBaseChar@@PAVioPlayStage@@W4CircleState@1@@Z ; ioTwoMagicCircleSkill::SetActionState

; 676  : 		}
; 677  : 		break;

  0005d	e9 9b 00 00 00	 jmp	 $LN3@ApplyExtra
$LN2@ApplyExtra:

; 653  :  	{
; 654  : 	case NSS_CIRCLE_CHANGE:
; 655  : 		{			
; 656  : 			rkPacket >> m_vFirstCirclePos;

  00062	8d b3 24 10 00
	00		 lea	 esi, DWORD PTR [ebx+4132]
  00068	56		 push	 esi
  00069	8b cf		 mov	 ecx, edi
  0006b	e8 00 00 00 00	 call	 ??5SP2Packet@@QAEAAV0@AAUD3DXVECTOR3@@@Z ; SP2Packet::operator>>

; 657  : 			rkPacket >> m_fFirstMapHeight;

  00070	8d 83 ec 0f 00
	00		 lea	 eax, DWORD PTR [ebx+4076]
  00076	50		 push	 eax
  00077	8b cf		 mov	 ecx, edi
  00079	e8 00 00 00 00	 call	 ??5SP2Packet@@QAEAAV0@AAM@Z ; SP2Packet::operator>>

; 658  : 			
; 659  : 			float fOffset;
; 660  : 			rkPacket >> fOffset;

  0007e	8d 45 f0	 lea	 eax, DWORD PTR _fOffset$530969[ebp]
  00081	50		 push	 eax
  00082	8b cf		 mov	 ecx, edi
  00084	e8 00 00 00 00	 call	 ??5SP2Packet@@QAEAAV0@AAM@Z ; SP2Packet::operator>>

; 661  : 			
; 662  : 			SetCircleEffect(pChar, pStage, m_vFirstCirclePos);

  00089	83 ec 0c	 sub	 esp, 12			; 0000000cH
  0008c	8b fc		 mov	 edi, esp
  0008e	ff 75 0c	 push	 DWORD PTR _pStage$[ebp]
  00091	a5		 movsd
  00092	a5		 movsd
  00093	a5		 movsd
  00094	8b 75 08	 mov	 esi, DWORD PTR _pChar$[ebp]
  00097	56		 push	 esi
  00098	8b cb		 mov	 ecx, ebx
  0009a	e8 00 00 00 00	 call	 ?SetCircleEffect@ioTwoMagicCircleSkill@@IAEXPAVioBaseChar@@PAVioPlayStage@@UD3DXVECTOR3@@@Z ; ioTwoMagicCircleSkill::SetCircleEffect

; 663  : 			SetActionState( pChar, pStage, SECOND_CIRCLE );

  0009f	6a 01		 push	 1
  000a1	ff 75 0c	 push	 DWORD PTR _pStage$[ebp]
  000a4	8b cb		 mov	 ecx, ebx
  000a6	56		 push	 esi
  000a7	e8 00 00 00 00	 call	 ?SetActionState@ioTwoMagicCircleSkill@@IAEXPAVioBaseChar@@PAVioPlayStage@@W4CircleState@1@@Z ; ioTwoMagicCircleSkill::SetActionState

; 664  : 
; 665  : 			//마법진 생성
; 666  : 			ioHashString szDummyCircle;

  000ac	8d 4d e0	 lea	 ecx, DWORD PTR _szDummyCircle$530970[ebp]
  000af	ff 15 00 00 00
	00		 call	 DWORD PTR __imp_??0ioHashString@@QAE@XZ

; 667  : 			pChar->CreateMagicCircle( m_OnCircle, m_OnCircle, szDummyCircle, m_fSecondCircleOffSet+fOffset );

  000b5	f3 0f 10 83 14
	10 00 00	 movss	 xmm0, DWORD PTR [ebx+4116]
  000bd	f3 0f 10 4d f0	 movss	 xmm1, DWORD PTR _fOffset$530969[ebp]
  000c2	83 65 fc 00	 and	 DWORD PTR __$EHRec$[ebp+8], 0
  000c6	8d 8e cc 01 00
	00		 lea	 ecx, DWORD PTR [esi+460]
  000cc	8b 11		 mov	 edx, DWORD PTR [ecx]
  000ce	51		 push	 ecx
  000cf	0f 5a c0	 cvtps2pd xmm0, xmm0
  000d2	0f 5a c9	 cvtps2pd xmm1, xmm1
  000d5	f2 0f 58 c1	 addsd	 xmm0, xmm1
  000d9	66 0f 5a c0	 cvtpd2ps xmm0, xmm0
  000dd	f3 0f 11 04 24	 movss	 DWORD PTR [esp], xmm0
  000e2	8d 83 48 10 00
	00		 lea	 eax, DWORD PTR [ebx+4168]
  000e8	8d 75 e0	 lea	 esi, DWORD PTR _szDummyCircle$530970[ebp]
  000eb	56		 push	 esi
  000ec	50		 push	 eax
  000ed	50		 push	 eax
  000ee	ff 52 04	 call	 DWORD PTR [edx+4]

; 668  : 		}

  000f1	83 4d fc ff	 or	 DWORD PTR __$EHRec$[ebp+8], -1
  000f5	8b ce		 mov	 ecx, esi
  000f7	ff 15 00 00 00
	00		 call	 DWORD PTR __imp_??1ioHashString@@QAE@XZ
$LN3@ApplyExtra:

; 678  :  	}
; 679  : }

  000fd	e8 00 00 00 00	 call	 __EH_epilog3
  00102	c2 0c 00	 ret	 12			; 0000000cH
_TEXT	ENDS
;	COMDAT text$x
text$x	SEGMENT
__unwindfunclet$?ApplyExtraSkillInfo@ioTwoMagicCircleSkill@@UAEXPAVioBaseChar@@PAVioPlayStage@@AAVSP2Packet@@@Z$0:
  00000	8d 4d e0	 lea	 ecx, DWORD PTR _szDummyCircle$530970[ebp]
  00003	ff 25 00 00 00
	00		 jmp	 DWORD PTR __imp_??1ioHashString@@QAE@XZ
__ehhandler$?ApplyExtraSkillInfo@ioTwoMagicCircleSkill@@UAEXPAVioBaseChar@@PAVioPlayStage@@AAVSP2Packet@@@Z:
  00009	8b 54 24 08	 mov	 edx, DWORD PTR [esp+8]
  0000d	8d 42 0c	 lea	 eax, DWORD PTR [edx+12]
  00010	8b 4a dc	 mov	 ecx, DWORD PTR [edx-36]
  00013	33 c8		 xor	 ecx, eax
  00015	e8 00 00 00 00	 call	 @__security_check_cookie@4
  0001a	b8 00 00 00 00	 mov	 eax, OFFSET __ehfuncinfo$?ApplyExtraSkillInfo@ioTwoMagicCircleSkill@@UAEXPAVioBaseChar@@PAVioPlayStage@@AAVSP2Packet@@@Z
  0001f	e9 00 00 00 00	 jmp	 ___CxxFrameHandler3
text$x	ENDS
?ApplyExtraSkillInfo@ioTwoMagicCircleSkill@@UAEXPAVioBaseChar@@PAVioPlayStage@@AAVSP2Packet@@@Z ENDP ; ioTwoMagicCircleSkill::ApplyExtraSkillInfo
PUBLIC	_pStage$GSCopy$
PUBLIC	_pChar$GSCopy$
PUBLIC	__$ArrayPad$
PUBLIC	?CheckCircle@ioTwoMagicCircleSkill@@IAEXPAVioBaseChar@@PAVioPlayStage@@@Z ; ioTwoMagicCircleSkill::CheckCircle
EXTRN	??6SP2Packet@@QAEAAV0@M@Z:PROC			; SP2Packet::operator<<
EXTRN	?GetNeedGauge@ioSkill@@QAEMABVioHashString@@@Z:PROC ; ioSkill::GetNeedGauge
EXTRN	??1SP2Packet@@UAE@XZ:PROC			; SP2Packet::~SP2Packet
EXTRN	?SendToAllPlayingUser@P2PNetwork@@YAXAAVSP2Packet@@PAVioBaseChar@@@Z:PROC ; P2PNetwork::SendToAllPlayingUser
EXTRN	??6SP2Packet@@QAEAAV0@ABUD3DXVECTOR3@@@Z:PROC	; SP2Packet::operator<<
EXTRN	??6SP2Packet@@QAEAAV0@H@Z:PROC			; SP2Packet::operator<<
EXTRN	??6SP2Packet@@QAEAAV0@ABVioHashString@@@Z:PROC	; SP2Packet::operator<<
EXTRN	??0SP2Packet@@QAE@K@Z:PROC			; SP2Packet::SP2Packet
EXTRN	?ReduceNeedGaugeBySkill@ioBaseChar@@QAEMPAVioSkill@@M@Z:PROC ; ioBaseChar::ReduceNeedGaugeBySkill
EXTRN	?GetMaxSkillGauge@ioItem@@QAEMABVioHashString@@@Z:PROC ; ioItem::GetMaxSkillGauge
EXTRN	?IsAttackKey@ioBaseChar@@QBE_NXZ:PROC		; ioBaseChar::IsAttackKey
EXTRN	?GetSkillKeyInput@ioBaseChar@@QAEHXZ:PROC	; ioBaseChar::GetSkillKeyInput
EXTRN	?SetTargetRotToTargetPos@ioBaseChar@@QAEXABUD3DXVECTOR3@@_N1@Z:PROC ; ioBaseChar::SetTargetRotToTargetPos
EXTRN	?UpdateMagicCirclePosAll@ioBaseGUISupport@@QAEXMMM_N@Z:PROC ; ioBaseGUISupport::UpdateMagicCirclePosAll
EXTRN	?CheckChangeDirectionForMagicCircle@ioBaseGUISupport@@QAE_NXZ:PROC ; ioBaseGUISupport::CheckChangeDirectionForMagicCircle
EXTRN	__chkstk:PROC
;	COMDAT xdata$x
; File d:\lost saga for developer\youtube\tutorial\source\src\lsclient\ioskill.h
xdata$x	SEGMENT
__unwindtable$?CheckCircle@ioTwoMagicCircleSkill@@IAEXPAVioBaseChar@@PAVioPlayStage@@@Z DD 0ffffffffH
	DD	FLAT:__unwindfunclet$?CheckCircle@ioTwoMagicCircleSkill@@IAEXPAVioBaseChar@@PAVioPlayStage@@@Z$0
	DD	00H
	DD	FLAT:__unwindfunclet$?CheckCircle@ioTwoMagicCircleSkill@@IAEXPAVioBaseChar@@PAVioPlayStage@@@Z$1
	DD	0ffffffffH
	DD	FLAT:__unwindfunclet$?CheckCircle@ioTwoMagicCircleSkill@@IAEXPAVioBaseChar@@PAVioPlayStage@@@Z$2
__ehfuncinfo$?CheckCircle@ioTwoMagicCircleSkill@@IAEXPAVioBaseChar@@PAVioPlayStage@@@Z DD 019930522H
	DD	03H
	DD	FLAT:__unwindtable$?CheckCircle@ioTwoMagicCircleSkill@@IAEXPAVioBaseChar@@PAVioPlayStage@@@Z
	DD	2 DUP(00H)
	DD	2 DUP(00H)
	DD	00H
	DD	01H
; Function compile flags: /Ogsp
; File d:\lost saga for developer\youtube\tutorial\source\src\lsclient\iotwomagiccircleskill.cpp
xdata$x	ENDS
;	COMDAT ?CheckCircle@ioTwoMagicCircleSkill@@IAEXPAVioBaseChar@@PAVioPlayStage@@@Z
_TEXT	SEGMENT
_szDummyCircle$530823 = -32904				; size = 16
_pChar$GSCopy$ = -32888					; size = 4
tv724 = -32884						; size = 4
_fMapHeight$530836 = -32884				; size = 4
_fOffset$530821 = -32884				; size = 4
_pStage$GSCopy$ = -32880				; size = 4
tv677 = -32876						; size = 4
_bReserveSkill$530830 = -32869				; size = 1
_bReserveSkill$530813 = -32869				; size = 1
_kPacket$530846 = -32868				; size = 32792
_kPacket$530825 = -32868				; size = 32792
_vTargetPos$530827 = -76				; size = 12
_vTargetPos$530810 = -64				; size = 12
_vPos$530840 = -52					; size = 12
_vPos$530834 = -40					; size = 12
_vPos$530817 = -28					; size = 12
__$ArrayPad$ = -16					; size = 4
__$EHRec$ = -12						; size = 12
_pChar$ = 8						; size = 4
_pStage$ = 12						; size = 4
?CheckCircle@ioTwoMagicCircleSkill@@IAEXPAVioBaseChar@@PAVioPlayStage@@@Z PROC ; ioTwoMagicCircleSkill::CheckCircle, COMDAT
; _this$ = ecx

; 288  : {

  00000	55		 push	 ebp
  00001	8b ec		 mov	 ebp, esp
  00003	6a ff		 push	 -1
  00005	68 00 00 00 00	 push	 __ehhandler$?CheckCircle@ioTwoMagicCircleSkill@@IAEXPAVioBaseChar@@PAVioPlayStage@@@Z
  0000a	64 a1 00 00 00
	00		 mov	 eax, DWORD PTR fs:0
  00010	50		 push	 eax
  00011	b8 7c 80 00 00	 mov	 eax, 32892		; 0000807cH
  00016	e8 00 00 00 00	 call	 __chkstk
  0001b	a1 00 00 00 00	 mov	 eax, DWORD PTR ___security_cookie
  00020	33 c5		 xor	 eax, ebp
  00022	89 45 f0	 mov	 DWORD PTR __$ArrayPad$[ebp], eax
  00025	53		 push	 ebx
  00026	56		 push	 esi
  00027	57		 push	 edi
  00028	50		 push	 eax
  00029	8d 45 f4	 lea	 eax, DWORD PTR __$EHRec$[ebp]
  0002c	64 a3 00 00 00
	00		 mov	 DWORD PTR fs:0, eax
  00032	8b 75 08	 mov	 esi, DWORD PTR _pChar$[ebp]
  00035	8b 45 0c	 mov	 eax, DWORD PTR _pStage$[ebp]

; 289  : 	if( !pChar ) return;

  00038	33 ff		 xor	 edi, edi
  0003a	8b d9		 mov	 ebx, ecx

; 343  : 					{
; 344  : 						SP2Packet kPacket( CUPK_SKILL_EXTRA_INFO );

  0003c	89 b5 88 7f ff
	ff		 mov	 DWORD PTR _pChar$GSCopy$[ebp], esi
  00042	89 85 90 7f ff
	ff		 mov	 DWORD PTR _pStage$GSCopy$[ebp], eax
  00048	3b f7		 cmp	 esi, edi
  0004a	0f 84 19 06 00
	00		 je	 $LN11@CheckCircl

; 290  : 	if( !pStage ) return;

  00050	3b c7		 cmp	 eax, edi
  00052	0f 84 11 06 00
	00		 je	 $LN11@CheckCircl

; 291  : 
; 292  : 	switch( m_CircleState )

  00058	8b 83 88 0f 00
	00		 mov	 eax, DWORD PTR [ebx+3976]
  0005e	2b c7		 sub	 eax, edi
  00060	0f 84 c2 02 00
	00		 je	 $LN14@CheckCircl
  00066	48		 dec	 eax
  00067	0f 85 fc 05 00
	00		 jne	 $LN11@CheckCircl

; 354  : 			}
; 355  : 		}
; 356  : 		break;
; 357  : 	case SECOND_CIRCLE:
; 358  : 		{	
; 359  : 			// 향 변화 체크
; 360  : 			pChar->CheckChangeDirectionForMagicCircle();

  0006d	8d 8e cc 01 00
	00		 lea	 ecx, DWORD PTR [esi+460]
  00073	89 8d 94 7f ff
	ff		 mov	 DWORD PTR tv677[ebp], ecx
  00079	e8 00 00 00 00	 call	 ?CheckChangeDirectionForMagicCircle@ioBaseGUISupport@@QAE_NXZ ; ioBaseGUISupport::CheckChangeDirectionForMagicCircle

; 361  : 			
; 362  : 			// 12.6.11 요청 사항에 의해서 매직 서클간의 제한 기능 변경
; 363  : 			// 해당 위치 이동불가에서 소환불가 형태로 변경
; 364  : 			// MagicCircle 위치 갱신(현재 이동가능 높이제한 false)
; 365  : 			//pChar->UpdateMagicCircleToCirclePosAll(	m_fSecondCircleMoveSpeed,
; 366  : 			//	m_fSecondCircleMaxRange,
; 367  : 			//	m_fSecondCircleMinRange,
; 368  : 			//	m_fSecondCircleHeightGap,
; 369  : 			//	m_fCircleKeyOnHeightMin,
; 370  : 			//	m_fCircleKeyOnHeightMax,
; 371  : 			//	m_vCirclePos,
; 372  : 			//	false,
; 373  : 			//	false );
; 374  : 
; 375  : 			// MagicCircle 위치 갱신
; 376  : 			pChar->UpdateMagicCirclePosAll(	m_fSecondCircleMoveSpeed,
; 377  : 				m_fSecondCircleMaxRange, 
; 378  : 				m_fSecondCircleHeightGap,
; 379  : 			false );

  0007e	f3 0f 10 83 10
	10 00 00	 movss	 xmm0, DWORD PTR [ebx+4112]
  00086	8b 8d 94 7f ff
	ff		 mov	 ecx, DWORD PTR tv677[ebp]
  0008c	57		 push	 edi
  0008d	83 ec 0c	 sub	 esp, 12			; 0000000cH
  00090	f3 0f 11 44 24
	08		 movss	 DWORD PTR [esp+8], xmm0
  00096	f3 0f 10 83 04
	10 00 00	 movss	 xmm0, DWORD PTR [ebx+4100]
  0009e	f3 0f 11 44 24
	04		 movss	 DWORD PTR [esp+4], xmm0
  000a4	f3 0f 10 83 0c
	10 00 00	 movss	 xmm0, DWORD PTR [ebx+4108]
  000ac	f3 0f 11 04 24	 movss	 DWORD PTR [esp], xmm0
  000b1	e8 00 00 00 00	 call	 ?UpdateMagicCirclePosAll@ioBaseGUISupport@@QAEXMMM_N@Z ; ioBaseGUISupport::UpdateMagicCirclePosAll

; 380  : 
; 381  : 			// MagicCircle 위치방향으로 캐릭터 회전
; 382  : 			D3DXVECTOR3 vTargetPos = pChar->GetMagicCirclePos();

  000b6	0f 57 c0	 xorps	 xmm0, xmm0
  000b9	57		 push	 edi
  000ba	51		 push	 ecx
  000bb	8b 8d 94 7f ff
	ff		 mov	 ecx, DWORD PTR tv677[ebp]
  000c1	8d 45 b4	 lea	 eax, DWORD PTR _vTargetPos$530827[ebp]
  000c4	f3 0f 11 04 24	 movss	 DWORD PTR [esp], xmm0
  000c9	50		 push	 eax
  000ca	e8 00 00 00 00	 call	 ?GetMagicCirclePos@ioBaseGUISupport@@QBE?AUD3DXVECTOR3@@M_N@Z ; ioBaseGUISupport::GetMagicCirclePos

; 383  : 			pChar->SetTargetRotToTargetPos( vTargetPos, true, false );

  000cf	57		 push	 edi
  000d0	6a 01		 push	 1
  000d2	8d 45 b4	 lea	 eax, DWORD PTR _vTargetPos$530827[ebp]
  000d5	50		 push	 eax
  000d6	8b ce		 mov	 ecx, esi
  000d8	e8 00 00 00 00	 call	 ?SetTargetRotToTargetPos@ioBaseChar@@QAEXABUD3DXVECTOR3@@_N1@Z ; ioBaseChar::SetTargetRotToTargetPos

; 384  : 			
; 385  : 			ChangeCircleDropZoneAndHeightGap( pChar, pStage );

  000dd	ff b5 90 7f ff
	ff		 push	 DWORD PTR _pStage$GSCopy$[ebp]
  000e3	8b cb		 mov	 ecx, ebx
  000e5	56		 push	 esi
  000e6	e8 00 00 00 00	 call	 ?ChangeCircleDropZoneAndHeightGap@ioTwoMagicCircleSkill@@IAEXPAVioBaseChar@@PAVioPlayStage@@@Z ; ioTwoMagicCircleSkill::ChangeCircleDropZoneAndHeightGap

; 386  : 
; 387  : 			if( pChar->IsNeedProcess() )

  000eb	8b 06		 mov	 eax, DWORD PTR [esi]
  000ed	8b ce		 mov	 ecx, esi
  000ef	ff 90 00 01 00
	00		 call	 DWORD PTR [eax+256]
  000f5	84 c0		 test	 al, al
  000f7	0f 84 6c 05 00
	00		 je	 $LN11@CheckCircl

; 388  : 			{
; 389  : 				//키입력 여부 검사
; 390  : 				bool bReserveSkill = false;
; 391  : 				int iSkillNum = pChar->GetSkillKeyInput();

  000fd	8b ce		 mov	 ecx, esi
  000ff	c6 85 9b 7f ff
	ff 00		 mov	 BYTE PTR _bReserveSkill$530830[ebp], 0
  00106	e8 00 00 00 00	 call	 ?GetSkillKeyInput@ioBaseChar@@QAEHXZ ; ioBaseChar::GetSkillKeyInput

; 392  : 				if( iSkillNum >= 0 )

  0010b	3b c7		 cmp	 eax, edi
  0010d	7c 07		 jl	 SHORT $LN6@CheckCircl

; 393  : 				{
; 394  : 					bReserveSkill = true;

  0010f	c6 85 9b 7f ff
	ff 01		 mov	 BYTE PTR _bReserveSkill$530830[ebp], 1
$LN6@CheckCircl:

; 395  : 				}
; 396  : 				
; 397  : 				if( pChar->IsAttackKey() && !bReserveSkill && !m_bDropzone && m_CurCircleEffect != m_OffCircle )

  00116	8b ce		 mov	 ecx, esi
  00118	e8 00 00 00 00	 call	 ?IsAttackKey@ioBaseChar@@QBE_NXZ ; ioBaseChar::IsAttackKey
  0011d	84 c0		 test	 al, al
  0011f	0f 84 44 05 00
	00		 je	 $LN11@CheckCircl
  00125	80 bd 9b 7f ff
	ff 00		 cmp	 BYTE PTR _bReserveSkill$530830[ebp], 0
  0012c	0f 85 37 05 00
	00		 jne	 $LN11@CheckCircl
  00132	80 bb 98 10 00
	00 00		 cmp	 BYTE PTR [ebx+4248], 0
  00139	0f 85 2a 05 00
	00		 jne	 $LN11@CheckCircl
  0013f	8d 83 58 10 00
	00		 lea	 eax, DWORD PTR [ebx+4184]
  00145	50		 push	 eax
  00146	8d 8b f0 0f 00
	00		 lea	 ecx, DWORD PTR [ebx+4080]
  0014c	ff 15 00 00 00
	00		 call	 DWORD PTR __imp_??9ioHashString@@QBE_NABV0@@Z
  00152	84 c0		 test	 al, al
  00154	0f 84 0f 05 00
	00		 je	 $LN11@CheckCircl

; 398  : 				{
; 399  : 					D3DXVECTOR3 vPos = pChar->GetMagicCirclePos();

  0015a	0f 57 c0	 xorps	 xmm0, xmm0
  0015d	57		 push	 edi
  0015e	51		 push	 ecx
  0015f	8b 8d 94 7f ff
	ff		 mov	 ecx, DWORD PTR tv677[ebp]
  00165	8d 45 d8	 lea	 eax, DWORD PTR _vPos$530834[ebp]
  00168	f3 0f 11 04 24	 movss	 DWORD PTR [esp], xmm0
  0016d	50		 push	 eax
  0016e	e8 00 00 00 00	 call	 ?GetMagicCirclePos@ioBaseGUISupport@@QBE?AUD3DXVECTOR3@@M_N@Z ; ioBaseGUISupport::GetMagicCirclePos

; 400  : 					float fMapHeight = pStage->GetMapHeight( vPos.x, vPos.z );

  00173	0f 57 c0	 xorps	 xmm0, xmm0
  00176	57		 push	 edi
  00177	51		 push	 ecx
  00178	f3 0f 11 04 24	 movss	 DWORD PTR [esp], xmm0
  0017d	f3 0f 10 45 e0	 movss	 xmm0, DWORD PTR _vPos$530834[ebp+8]
  00182	6a 01		 push	 1
  00184	57		 push	 edi
  00185	51		 push	 ecx
  00186	51		 push	 ecx
  00187	8b 8d 90 7f ff
	ff		 mov	 ecx, DWORD PTR _pStage$GSCopy$[ebp]
  0018d	f3 0f 11 44 24
	04		 movss	 DWORD PTR [esp+4], xmm0
  00193	f3 0f 10 45 d8	 movss	 xmm0, DWORD PTR _vPos$530834[ebp]
  00198	f3 0f 11 04 24	 movss	 DWORD PTR [esp], xmm0
  0019d	e8 00 00 00 00	 call	 ?GetMapHeight@ioPlayStage@@QAEMMMPBVioGameEntity@@_NM1@Z ; ioPlayStage::GetMapHeight
  001a2	d9 9d 8c 7f ff
	ff		 fstp	 DWORD PTR _fMapHeight$530836[ebp]

; 401  : 					float fMin = m_vFirstCirclePos.y + m_fCircleKeyOnHeightMin;

  001a8	f3 0f 10 83 28
	10 00 00	 movss	 xmm0, DWORD PTR [ebx+4136]
  001b0	f3 0f 10 8b 3c
	10 00 00	 movss	 xmm1, DWORD PTR [ebx+4156]
  001b8	0f 5a d0	 cvtps2pd xmm2, xmm0
  001bb	0f 5a c9	 cvtps2pd xmm1, xmm1
  001be	f2 0f 58 ca	 addsd	 xmm1, xmm2

; 402  : 					float fMax = m_vFirstCirclePos.y + m_fCircleKeyOnHeightMax;

  001c2	f3 0f 10 93 40
	10 00 00	 movss	 xmm2, DWORD PTR [ebx+4160]
  001ca	0f 5a d2	 cvtps2pd xmm2, xmm2
  001cd	0f 5a c0	 cvtps2pd xmm0, xmm0
  001d0	f2 0f 58 d0	 addsd	 xmm2, xmm0
  001d4	0f 57 c0	 xorps	 xmm0, xmm0
  001d7	66 0f 5a c2	 cvtpd2ps xmm0, xmm2

; 403  : 
; 404  : 					if( COMPARE( fMapHeight, fMin, fMax ) )

  001db	f3 0f 10 95 8c
	7f ff ff	 movss	 xmm2, DWORD PTR _fMapHeight$530836[ebp]
  001e3	66 0f 5a c9	 cvtpd2ps xmm1, xmm1
  001e7	0f 5a d2	 cvtps2pd xmm2, xmm2
  001ea	f3 0f 5a c9	 cvtss2sd xmm1, xmm1
  001ee	66 0f 2f d1	 comisd	 xmm2, xmm1
  001f2	0f 82 71 04 00
	00		 jb	 $LN11@CheckCircl
  001f8	f3 0f 10 8d 8c
	7f ff ff	 movss	 xmm1, DWORD PTR _fMapHeight$530836[ebp]
  00200	0f 5a c9	 cvtps2pd xmm1, xmm1
  00203	0f 5a c0	 cvtps2pd xmm0, xmm0
  00206	66 0f 2f c1	 comisd	 xmm0, xmm1
  0020a	0f 86 59 04 00
	00		 jbe	 $LN11@CheckCircl

; 405  : 					{
; 406  : 						D3DXVECTOR3 vPos = pChar->GetMagicCirclePos();

  00210	0f 57 c0	 xorps	 xmm0, xmm0
  00213	57		 push	 edi
  00214	51		 push	 ecx
  00215	8b 8d 94 7f ff
	ff		 mov	 ecx, DWORD PTR tv677[ebp]
  0021b	8d 45 cc	 lea	 eax, DWORD PTR _vPos$530840[ebp]
  0021e	f3 0f 11 04 24	 movss	 DWORD PTR [esp], xmm0
  00223	50		 push	 eax
  00224	e8 00 00 00 00	 call	 ?GetMagicCirclePos@ioBaseGUISupport@@QBE?AUD3DXVECTOR3@@M_N@Z ; ioBaseGUISupport::GetMagicCirclePos

; 407  : 						m_vSecondCirclePos =  vPos;

  00229	8d bb 30 10 00
	00		 lea	 edi, DWORD PTR [ebx+4144]
  0022f	89 bd 8c 7f ff
	ff		 mov	 DWORD PTR tv724[ebp], edi
  00235	8d 75 cc	 lea	 esi, DWORD PTR _vPos$530840[ebp]
  00238	a5		 movsd
  00239	a5		 movsd
  0023a	a5		 movsd

; 408  : 						SetCircleEffect( pChar, pStage, vPos );

  0023b	83 ec 0c	 sub	 esp, 12			; 0000000cH
  0023e	8b fc		 mov	 edi, esp
  00240	ff b5 90 7f ff
	ff		 push	 DWORD PTR _pStage$GSCopy$[ebp]
  00246	8d 75 cc	 lea	 esi, DWORD PTR _vPos$530840[ebp]
  00249	a5		 movsd
  0024a	a5		 movsd
  0024b	a5		 movsd
  0024c	8b b5 88 7f ff
	ff		 mov	 esi, DWORD PTR _pChar$GSCopy$[ebp]
  00252	56		 push	 esi
  00253	8b cb		 mov	 ecx, ebx
  00255	e8 00 00 00 00	 call	 ?SetCircleEffect@ioTwoMagicCircleSkill@@IAEXPAVioBaseChar@@PAVioPlayStage@@UD3DXVECTOR3@@@Z ; ioTwoMagicCircleSkill::SetCircleEffect

; 409  : 						SetActionState( pChar, pStage, CIRCLE_COMPLETE );

  0025a	6a 02		 push	 2
  0025c	5f		 pop	 edi
  0025d	57		 push	 edi
  0025e	ff b5 90 7f ff
	ff		 push	 DWORD PTR _pStage$GSCopy$[ebp]
  00264	8b cb		 mov	 ecx, ebx
  00266	56		 push	 esi
  00267	e8 00 00 00 00	 call	 ?SetActionState@ioTwoMagicCircleSkill@@IAEXPAVioBaseChar@@PAVioPlayStage@@W4CircleState@1@@Z ; ioTwoMagicCircleSkill::SetActionState

; 410  : 
; 411  : 						if( !m_bReduceGauge )

  0026c	80 bb 50 03 00
	00 00		 cmp	 BYTE PTR [ebx+848], 0
  00273	75 2b		 jne	 SHORT $LN3@CheckCircl

; 412  : 						{
; 413  : 							ioItem* pItem =  GetOwnerItem();

  00275	8b 8b a4 02 00
	00		 mov	 ecx, DWORD PTR [ebx+676]

; 414  : 							if( pItem )

  0027b	85 c9		 test	 ecx, ecx
  0027d	74 1a		 je	 SHORT $LN2@CheckCircl

; 415  : 							{
; 416  : 								pChar->ReduceNeedGaugeBySkill( this, pItem->GetMaxSkillGauge( pChar->GetCharName() ) );

  0027f	8d 86 d4 02 00
	00		 lea	 eax, DWORD PTR [esi+724]
  00285	50		 push	 eax
  00286	e8 00 00 00 00	 call	 ?GetMaxSkillGauge@ioItem@@QAEMABVioHashString@@@Z ; ioItem::GetMaxSkillGauge
  0028b	51		 push	 ecx
  0028c	d9 1c 24	 fstp	 DWORD PTR [esp]
  0028f	53		 push	 ebx
  00290	8b ce		 mov	 ecx, esi
  00292	e8 00 00 00 00	 call	 ?ReduceNeedGaugeBySkill@ioBaseChar@@QAEMPAVioSkill@@M@Z ; ioBaseChar::ReduceNeedGaugeBySkill
  00297	dd d8		 fstp	 ST(0)
$LN2@CheckCircl:

; 417  : 							}
; 418  : 							m_bReduceGauge = true;						

  00299	c6 83 50 03 00
	00 01		 mov	 BYTE PTR [ebx+848], 1
$LN3@CheckCircl:

; 419  : 						}
; 420  : 
; 421  : 
; 422  : 
; 423  : 						if( pChar->IsNeedSendNetwork() )

  002a0	8b 06		 mov	 eax, DWORD PTR [esi]
  002a2	8b ce		 mov	 ecx, esi
  002a4	ff 90 04 01 00
	00		 call	 DWORD PTR [eax+260]
  002aa	84 c0		 test	 al, al
  002ac	0f 84 b7 03 00
	00		 je	 $LN11@CheckCircl

; 424  : 						{
; 425  : 							SP2Packet kPacket( CUPK_SKILL_EXTRA_INFO );

  002b2	68 39 41 00 00	 push	 16697			; 00004139H
  002b7	8d 8d 9c 7f ff
	ff		 lea	 ecx, DWORD PTR _kPacket$530846[ebp]
  002bd	e8 00 00 00 00	 call	 ??0SP2Packet@@QAE@K@Z	; SP2Packet::SP2Packet

; 426  : 							kPacket << pChar->GetCharName();

  002c2	81 c6 d4 02 00
	00		 add	 esi, 724		; 000002d4H
  002c8	56		 push	 esi
  002c9	8d 8d 9c 7f ff
	ff		 lea	 ecx, DWORD PTR _kPacket$530846[ebp]
  002cf	89 7d fc	 mov	 DWORD PTR __$EHRec$[ebp+8], edi
  002d2	e8 00 00 00 00	 call	 ??6SP2Packet@@QAEAAV0@ABVioHashString@@@Z ; SP2Packet::operator<<

; 427  : 							kPacket << GetName();

  002d7	83 c3 24	 add	 ebx, 36			; 00000024H
  002da	53		 push	 ebx
  002db	8d 8d 9c 7f ff
	ff		 lea	 ecx, DWORD PTR _kPacket$530846[ebp]
  002e1	e8 00 00 00 00	 call	 ??6SP2Packet@@QAEAAV0@ABVioHashString@@@Z ; SP2Packet::operator<<

; 428  : 							kPacket << NSS_CREATE;

  002e6	6a 01		 push	 1
  002e8	8d 8d 9c 7f ff
	ff		 lea	 ecx, DWORD PTR _kPacket$530846[ebp]
  002ee	e8 00 00 00 00	 call	 ??6SP2Packet@@QAEAAV0@H@Z ; SP2Packet::operator<<

; 429  : 							kPacket << m_vSecondCirclePos;

  002f3	ff b5 8c 7f ff
	ff		 push	 DWORD PTR tv724[ebp]
  002f9	8d 8d 9c 7f ff
	ff		 lea	 ecx, DWORD PTR _kPacket$530846[ebp]
  002ff	e8 00 00 00 00	 call	 ??6SP2Packet@@QAEAAV0@ABUD3DXVECTOR3@@@Z ; SP2Packet::operator<<

; 430  : 							P2PNetwork::SendToAllPlayingUser( kPacket );

  00304	8d 85 9c 7f ff
	ff		 lea	 eax, DWORD PTR _kPacket$530846[ebp]
  0030a	6a 00		 push	 0
  0030c	50		 push	 eax
  0030d	e8 00 00 00 00	 call	 ?SendToAllPlayingUser@P2PNetwork@@YAXAAVSP2Packet@@PAVioBaseChar@@@Z ; P2PNetwork::SendToAllPlayingUser

; 431  : 						}

  00312	83 4d fc ff	 or	 DWORD PTR __$EHRec$[ebp+8], -1
  00316	59		 pop	 ecx
  00317	59		 pop	 ecx
  00318	8d 8d 9c 7f ff
	ff		 lea	 ecx, DWORD PTR _kPacket$530846[ebp]
  0031e	e8 00 00 00 00	 call	 ??1SP2Packet@@UAE@XZ	; SP2Packet::~SP2Packet

; 432  : 					}					
; 433  : 				}		
; 434  : 			}
; 435  : 		}
; 436  : 		break;

  00323	e9 41 03 00 00	 jmp	 $LN11@CheckCircl
$LN14@CheckCircl:

; 293  : 	{
; 294  : 	case FIRST_CIRCLE:
; 295  : 		{
; 296  : 			// 향 변화 체크
; 297  : 			pChar->CheckChangeDirectionForMagicCircle();

  00328	8d 8e cc 01 00
	00		 lea	 ecx, DWORD PTR [esi+460]
  0032e	89 8d 94 7f ff
	ff		 mov	 DWORD PTR tv677[ebp], ecx
  00334	e8 00 00 00 00	 call	 ?CheckChangeDirectionForMagicCircle@ioBaseGUISupport@@QAE_NXZ ; ioBaseGUISupport::CheckChangeDirectionForMagicCircle

; 298  : 
; 299  : 			// MagicCircle 위치 갱신
; 300  : 			pChar->UpdateMagicCirclePosAll(	m_fFirstCircleMoveSpeed,
; 301  : 				m_fFirstCircleRange, 
; 302  : 				m_fFirstCircleHeightGap,
; 303  : 				false );

  00339	f3 0f 10 83 e4
	0f 00 00	 movss	 xmm0, DWORD PTR [ebx+4068]
  00341	8b 8d 94 7f ff
	ff		 mov	 ecx, DWORD PTR tv677[ebp]
  00347	57		 push	 edi
  00348	83 ec 0c	 sub	 esp, 12			; 0000000cH
  0034b	f3 0f 11 44 24
	08		 movss	 DWORD PTR [esp+8], xmm0
  00351	f3 0f 10 83 dc
	0f 00 00	 movss	 xmm0, DWORD PTR [ebx+4060]
  00359	f3 0f 11 44 24
	04		 movss	 DWORD PTR [esp+4], xmm0
  0035f	f3 0f 10 83 e0
	0f 00 00	 movss	 xmm0, DWORD PTR [ebx+4064]
  00367	f3 0f 11 04 24	 movss	 DWORD PTR [esp], xmm0
  0036c	e8 00 00 00 00	 call	 ?UpdateMagicCirclePosAll@ioBaseGUISupport@@QAEXMMM_N@Z ; ioBaseGUISupport::UpdateMagicCirclePosAll

; 304  : 
; 305  : 			// MagicCircle 위치방향으로 캐릭터 회전
; 306  : 			D3DXVECTOR3 vTargetPos = pChar->GetMagicCirclePos();

  00371	0f 57 c0	 xorps	 xmm0, xmm0
  00374	57		 push	 edi
  00375	51		 push	 ecx
  00376	8b 8d 94 7f ff
	ff		 mov	 ecx, DWORD PTR tv677[ebp]
  0037c	8d 45 c0	 lea	 eax, DWORD PTR _vTargetPos$530810[ebp]
  0037f	f3 0f 11 04 24	 movss	 DWORD PTR [esp], xmm0
  00384	50		 push	 eax
  00385	e8 00 00 00 00	 call	 ?GetMagicCirclePos@ioBaseGUISupport@@QBE?AUD3DXVECTOR3@@M_N@Z ; ioBaseGUISupport::GetMagicCirclePos

; 307  : 			pChar->SetTargetRotToTargetPos( vTargetPos, true, false );			

  0038a	57		 push	 edi
  0038b	6a 01		 push	 1
  0038d	8d 45 c0	 lea	 eax, DWORD PTR _vTargetPos$530810[ebp]
  00390	50		 push	 eax
  00391	8b ce		 mov	 ecx, esi
  00393	e8 00 00 00 00	 call	 ?SetTargetRotToTargetPos@ioBaseChar@@QAEXABUD3DXVECTOR3@@_N1@Z ; ioBaseChar::SetTargetRotToTargetPos

; 308  : 			ChangeCircleDropZoneAndHeightGap( pChar, pStage );

  00398	ff b5 90 7f ff
	ff		 push	 DWORD PTR _pStage$GSCopy$[ebp]
  0039e	8b cb		 mov	 ecx, ebx
  003a0	56		 push	 esi
  003a1	e8 00 00 00 00	 call	 ?ChangeCircleDropZoneAndHeightGap@ioTwoMagicCircleSkill@@IAEXPAVioBaseChar@@PAVioPlayStage@@@Z ; ioTwoMagicCircleSkill::ChangeCircleDropZoneAndHeightGap

; 309  : 
; 310  : 			if( pChar->IsNeedProcess() )

  003a6	8b 06		 mov	 eax, DWORD PTR [esi]
  003a8	8b ce		 mov	 ecx, esi
  003aa	ff 90 00 01 00
	00		 call	 DWORD PTR [eax+256]
  003b0	84 c0		 test	 al, al
  003b2	0f 84 b1 02 00
	00		 je	 $LN11@CheckCircl

; 311  : 			{
; 312  : 				//키입력 여부 검사
; 313  : 				bool bReserveSkill = false;
; 314  : 				int iSkillNum = pChar->GetSkillKeyInput();

  003b8	8b ce		 mov	 ecx, esi
  003ba	c6 85 9b 7f ff
	ff 00		 mov	 BYTE PTR _bReserveSkill$530813[ebp], 0
  003c1	e8 00 00 00 00	 call	 ?GetSkillKeyInput@ioBaseChar@@QAEHXZ ; ioBaseChar::GetSkillKeyInput

; 315  : 				if( iSkillNum >= 0 )

  003c6	3b c7		 cmp	 eax, edi
  003c8	7c 07		 jl	 SHORT $LN12@CheckCircl

; 316  : 				{
; 317  : 					bReserveSkill = true;

  003ca	c6 85 9b 7f ff
	ff 01		 mov	 BYTE PTR _bReserveSkill$530813[ebp], 1
$LN12@CheckCircl:

; 318  : 				}			
; 319  : 
; 320  : 				if( pChar->IsAttackKey() && !bReserveSkill && !m_bDropzone )

  003d1	8b ce		 mov	 ecx, esi
  003d3	e8 00 00 00 00	 call	 ?IsAttackKey@ioBaseChar@@QBE_NXZ ; ioBaseChar::IsAttackKey
  003d8	84 c0		 test	 al, al
  003da	0f 84 89 02 00
	00		 je	 $LN11@CheckCircl
  003e0	80 bd 9b 7f ff
	ff 00		 cmp	 BYTE PTR _bReserveSkill$530813[ebp], 0
  003e7	0f 85 7c 02 00
	00		 jne	 $LN11@CheckCircl
  003ed	80 bb 98 10 00
	00 00		 cmp	 BYTE PTR [ebx+4248], 0
  003f4	0f 85 6f 02 00
	00		 jne	 $LN11@CheckCircl

; 321  : 				{						
; 322  : 					D3DXVECTOR3 vPos = pChar->GetMagicCirclePos();

  003fa	0f 57 c0	 xorps	 xmm0, xmm0
  003fd	57		 push	 edi
  003fe	51		 push	 ecx
  003ff	8b 8d 94 7f ff
	ff		 mov	 ecx, DWORD PTR tv677[ebp]
  00405	8d 45 e4	 lea	 eax, DWORD PTR _vPos$530817[ebp]
  00408	f3 0f 11 04 24	 movss	 DWORD PTR [esp], xmm0
  0040d	50		 push	 eax
  0040e	e8 00 00 00 00	 call	 ?GetMagicCirclePos@ioBaseGUISupport@@QBE?AUD3DXVECTOR3@@M_N@Z ; ioBaseGUISupport::GetMagicCirclePos

; 323  : 
; 324  : 					SetCircleEffect( pChar, pStage, vPos );				

  00413	83 ec 0c	 sub	 esp, 12			; 0000000cH
  00416	8b fc		 mov	 edi, esp
  00418	ff b5 90 7f ff
	ff		 push	 DWORD PTR _pStage$GSCopy$[ebp]
  0041e	8d 75 e4	 lea	 esi, DWORD PTR _vPos$530817[ebp]
  00421	ff b5 88 7f ff
	ff		 push	 DWORD PTR _pChar$GSCopy$[ebp]
  00427	a5		 movsd
  00428	a5		 movsd
  00429	8b cb		 mov	 ecx, ebx
  0042b	a5		 movsd
  0042c	e8 00 00 00 00	 call	 ?SetCircleEffect@ioTwoMagicCircleSkill@@IAEXPAVioBaseChar@@PAVioPlayStage@@UD3DXVECTOR3@@@Z ; ioTwoMagicCircleSkill::SetCircleEffect

; 325  : 					m_fFirstMapHeight = pStage->GetMapHeight( vPos.x, vPos.z );

  00431	0f 57 c0	 xorps	 xmm0, xmm0
  00434	6a 00		 push	 0
  00436	51		 push	 ecx
  00437	f3 0f 11 04 24	 movss	 DWORD PTR [esp], xmm0
  0043c	f3 0f 10 45 ec	 movss	 xmm0, DWORD PTR _vPos$530817[ebp+8]
  00441	6a 01		 push	 1
  00443	6a 00		 push	 0
  00445	51		 push	 ecx
  00446	51		 push	 ecx
  00447	8b 8d 90 7f ff
	ff		 mov	 ecx, DWORD PTR _pStage$GSCopy$[ebp]
  0044d	f3 0f 11 44 24
	04		 movss	 DWORD PTR [esp+4], xmm0
  00453	f3 0f 10 45 e4	 movss	 xmm0, DWORD PTR _vPos$530817[ebp]
  00458	f3 0f 11 04 24	 movss	 DWORD PTR [esp], xmm0
  0045d	e8 00 00 00 00	 call	 ?GetMapHeight@ioPlayStage@@QAEMMMPBVioGameEntity@@_NM1@Z ; ioPlayStage::GetMapHeight
  00462	d9 9b ec 0f 00
	00		 fstp	 DWORD PTR [ebx+4076]

; 326  : 					m_vCirclePos = vPos;

  00468	8d bb 18 10 00
	00		 lea	 edi, DWORD PTR [ebx+4120]
  0046e	8d 75 e4	 lea	 esi, DWORD PTR _vPos$530817[ebp]
  00471	a5		 movsd
  00472	a5		 movsd
  00473	a5		 movsd

; 327  : 					m_vFirstCirclePos = vPos;

  00474	8d bb 24 10 00
	00		 lea	 edi, DWORD PTR [ebx+4132]
  0047a	8d 75 e4	 lea	 esi, DWORD PTR _vPos$530817[ebp]
  0047d	a5		 movsd
  0047e	a5		 movsd
  0047f	a5		 movsd

; 328  : 					
; 329  : 					D3DXVECTOR3 vLength = m_vFirstCirclePos - pChar->GetWorldPosition();

  00480	8b bd 88 7f ff
	ff		 mov	 edi, DWORD PTR _pChar$GSCopy$[ebp]
  00486	8b 07		 mov	 eax, DWORD PTR [edi]
  00488	8b cf		 mov	 ecx, edi
  0048a	ff 50 70	 call	 DWORD PTR [eax+112]
  0048d	f3 0f 10 08	 movss	 xmm1, DWORD PTR [eax]
  00491	f3 0f 10 50 04	 movss	 xmm2, DWORD PTR [eax+4]
  00496	f3 0f 10 58 08	 movss	 xmm3, DWORD PTR [eax+8]
  0049b	0f 5a c9	 cvtps2pd xmm1, xmm1
  0049e	8d b3 24 10 00
	00		 lea	 esi, DWORD PTR [ebx+4132]
  004a4	f3 0f 10 06	 movss	 xmm0, DWORD PTR [esi]
  004a8	0f 5a c0	 cvtps2pd xmm0, xmm0
  004ab	f2 0f 5c c1	 subsd	 xmm0, xmm1
  004af	0f 57 c9	 xorps	 xmm1, xmm1
  004b2	66 0f 5a c8	 cvtpd2ps xmm1, xmm0
  004b6	f3 0f 10 46 04	 movss	 xmm0, DWORD PTR [esi+4]
  004bb	0f 5a c0	 cvtps2pd xmm0, xmm0
  004be	0f 5a d2	 cvtps2pd xmm2, xmm2
  004c1	f2 0f 5c c2	 subsd	 xmm0, xmm2
  004c5	f3 0f 10 56 08	 movss	 xmm2, DWORD PTR [esi+8]
  004ca	66 0f 5a c0	 cvtpd2ps xmm0, xmm0

; 330  : 					float fOffset = fabs(D3DXVec3Length( &vLength ));

  004ce	f3 0f 5a c0	 cvtss2sd xmm0, xmm0
  004d2	0f 5a d2	 cvtps2pd xmm2, xmm2
  004d5	f2 0f 59 c0	 mulsd	 xmm0, xmm0
  004d9	0f 5a db	 cvtps2pd xmm3, xmm3
  004dc	f2 0f 5c d3	 subsd	 xmm2, xmm3
  004e0	0f 5a c9	 cvtps2pd xmm1, xmm1
  004e3	66 0f 5a d2	 cvtpd2ps xmm2, xmm2
  004e7	f2 0f 59 c9	 mulsd	 xmm1, xmm1
  004eb	f2 0f 58 c8	 addsd	 xmm1, xmm0
  004ef	0f 57 c0	 xorps	 xmm0, xmm0
  004f2	f3 0f 5a d2	 cvtss2sd xmm2, xmm2
  004f6	f2 0f 59 d2	 mulsd	 xmm2, xmm2
  004fa	f2 0f 58 ca	 addsd	 xmm1, xmm2
  004fe	66 0f 5a c1	 cvtpd2ps xmm0, xmm1
  00502	0f 5a c0	 cvtps2pd xmm0, xmm0
  00505	f2 0f 51 c0	 sqrtsd	 xmm0, xmm0
  00509	66 0f 5a c0	 cvtpd2ps xmm0, xmm0
  0050d	f3 0f 5a c0	 cvtss2sd xmm0, xmm0
  00511	66 0f 54 05 00
	00 00 00	 andpd	 xmm0, QWORD PTR __mask@@AbsDouble@

; 331  : 					
; 332  : 					SetActionState( pChar, pStage, SECOND_CIRCLE );

  00519	6a 01		 push	 1
  0051b	ff b5 90 7f ff
	ff		 push	 DWORD PTR _pStage$GSCopy$[ebp]
  00521	f2 0f 5a c0	 cvtsd2ss xmm0, xmm0
  00525	57		 push	 edi
  00526	8b cb		 mov	 ecx, ebx
  00528	f3 0f 11 85 8c
	7f ff ff	 movss	 DWORD PTR _fOffset$530821[ebp], xmm0
  00530	e8 00 00 00 00	 call	 ?SetActionState@ioTwoMagicCircleSkill@@IAEXPAVioBaseChar@@PAVioPlayStage@@W4CircleState@1@@Z ; ioTwoMagicCircleSkill::SetActionState

; 333  : 					if( !m_bReduceGauge )

  00535	80 bb 50 03 00
	00 00		 cmp	 BYTE PTR [ebx+848], 0
  0053c	75 1c		 jne	 SHORT $LN10@CheckCircl

; 334  : 					{
; 335  : 						pChar->ReduceNeedGaugeBySkill( this, GetNeedGauge( pChar->GetCharName() ) );						

  0053e	8d 87 d4 02 00
	00		 lea	 eax, DWORD PTR [edi+724]
  00544	50		 push	 eax
  00545	8b cb		 mov	 ecx, ebx
  00547	e8 00 00 00 00	 call	 ?GetNeedGauge@ioSkill@@QAEMABVioHashString@@@Z ; ioSkill::GetNeedGauge
  0054c	51		 push	 ecx
  0054d	d9 1c 24	 fstp	 DWORD PTR [esp]
  00550	53		 push	 ebx
  00551	8b cf		 mov	 ecx, edi
  00553	e8 00 00 00 00	 call	 ?ReduceNeedGaugeBySkill@ioBaseChar@@QAEMPAVioSkill@@M@Z ; ioBaseChar::ReduceNeedGaugeBySkill
  00558	dd d8		 fstp	 ST(0)
$LN10@CheckCircl:

; 336  : 					}
; 337  : 
; 338  : 					//마법진 생성
; 339  : 					ioHashString szDummyCircle;

  0055a	8d 8d 78 7f ff
	ff		 lea	 ecx, DWORD PTR _szDummyCircle$530823[ebp]
  00560	ff 15 00 00 00
	00		 call	 DWORD PTR __imp_??0ioHashString@@QAE@XZ

; 340  : 					pChar->CreateMagicCircle( m_OnCircle, m_OnCircle, szDummyCircle, m_fSecondCircleOffSet+fOffset );

  00566	f3 0f 10 83 14
	10 00 00	 movss	 xmm0, DWORD PTR [ebx+4116]
  0056e	f3 0f 10 8d 8c
	7f ff ff	 movss	 xmm1, DWORD PTR _fOffset$530821[ebp]
  00576	83 65 fc 00	 and	 DWORD PTR __$EHRec$[ebp+8], 0
  0057a	8d 8f cc 01 00
	00		 lea	 ecx, DWORD PTR [edi+460]
  00580	8b 11		 mov	 edx, DWORD PTR [ecx]
  00582	51		 push	 ecx
  00583	0f 5a c0	 cvtps2pd xmm0, xmm0
  00586	0f 5a c9	 cvtps2pd xmm1, xmm1
  00589	f2 0f 58 c1	 addsd	 xmm0, xmm1
  0058d	66 0f 5a c0	 cvtpd2ps xmm0, xmm0
  00591	f3 0f 11 04 24	 movss	 DWORD PTR [esp], xmm0
  00596	8d 85 78 7f ff
	ff		 lea	 eax, DWORD PTR _szDummyCircle$530823[ebp]
  0059c	50		 push	 eax
  0059d	8d 83 48 10 00
	00		 lea	 eax, DWORD PTR [ebx+4168]
  005a3	50		 push	 eax
  005a4	50		 push	 eax
  005a5	ff 52 04	 call	 DWORD PTR [edx+4]

; 341  : 					
; 342  : 					if( pChar->IsNeedSendNetwork() )

  005a8	8b 07		 mov	 eax, DWORD PTR [edi]
  005aa	8b cf		 mov	 ecx, edi
  005ac	ff 90 04 01 00
	00		 call	 DWORD PTR [eax+260]
  005b2	84 c0		 test	 al, al
  005b4	0f 84 9f 00 00
	00		 je	 $LN9@CheckCircl

; 343  : 					{
; 344  : 						SP2Packet kPacket( CUPK_SKILL_EXTRA_INFO );

  005ba	68 39 41 00 00	 push	 16697			; 00004139H
  005bf	8d 8d 9c 7f ff
	ff		 lea	 ecx, DWORD PTR _kPacket$530825[ebp]
  005c5	e8 00 00 00 00	 call	 ??0SP2Packet@@QAE@K@Z	; SP2Packet::SP2Packet

; 345  : 						kPacket << pChar->GetCharName();

  005ca	81 c7 d4 02 00
	00		 add	 edi, 724		; 000002d4H
  005d0	57		 push	 edi
  005d1	8d 8d 9c 7f ff
	ff		 lea	 ecx, DWORD PTR _kPacket$530825[ebp]
  005d7	c6 45 fc 01	 mov	 BYTE PTR __$EHRec$[ebp+8], 1
  005db	e8 00 00 00 00	 call	 ??6SP2Packet@@QAEAAV0@ABVioHashString@@@Z ; SP2Packet::operator<<

; 346  : 						kPacket << GetName();

  005e0	8d 43 24	 lea	 eax, DWORD PTR [ebx+36]
  005e3	50		 push	 eax
  005e4	8d 8d 9c 7f ff
	ff		 lea	 ecx, DWORD PTR _kPacket$530825[ebp]
  005ea	e8 00 00 00 00	 call	 ??6SP2Packet@@QAEAAV0@ABVioHashString@@@Z ; SP2Packet::operator<<

; 347  : 						kPacket << NSS_CIRCLE_CHANGE;

  005ef	6a 00		 push	 0
  005f1	8d 8d 9c 7f ff
	ff		 lea	 ecx, DWORD PTR _kPacket$530825[ebp]
  005f7	e8 00 00 00 00	 call	 ??6SP2Packet@@QAEAAV0@H@Z ; SP2Packet::operator<<

; 348  : 						kPacket << m_vFirstCirclePos;

  005fc	56		 push	 esi
  005fd	8d 8d 9c 7f ff
	ff		 lea	 ecx, DWORD PTR _kPacket$530825[ebp]
  00603	e8 00 00 00 00	 call	 ??6SP2Packet@@QAEAAV0@ABUD3DXVECTOR3@@@Z ; SP2Packet::operator<<

; 349  : 						kPacket << m_fFirstMapHeight;

  00608	f3 0f 10 83 ec
	0f 00 00	 movss	 xmm0, DWORD PTR [ebx+4076]
  00610	51		 push	 ecx
  00611	8d 8d 9c 7f ff
	ff		 lea	 ecx, DWORD PTR _kPacket$530825[ebp]
  00617	f3 0f 11 04 24	 movss	 DWORD PTR [esp], xmm0
  0061c	e8 00 00 00 00	 call	 ??6SP2Packet@@QAEAAV0@M@Z ; SP2Packet::operator<<

; 350  : 						kPacket << fOffset;

  00621	f3 0f 10 85 8c
	7f ff ff	 movss	 xmm0, DWORD PTR _fOffset$530821[ebp]
  00629	51		 push	 ecx
  0062a	8d 8d 9c 7f ff
	ff		 lea	 ecx, DWORD PTR _kPacket$530825[ebp]
  00630	f3 0f 11 04 24	 movss	 DWORD PTR [esp], xmm0
  00635	e8 00 00 00 00	 call	 ??6SP2Packet@@QAEAAV0@M@Z ; SP2Packet::operator<<

; 351  : 						P2PNetwork::SendToAllPlayingUser( kPacket );

  0063a	8d 85 9c 7f ff
	ff		 lea	 eax, DWORD PTR _kPacket$530825[ebp]
  00640	6a 00		 push	 0
  00642	50		 push	 eax
  00643	e8 00 00 00 00	 call	 ?SendToAllPlayingUser@P2PNetwork@@YAXAAVSP2Packet@@PAVioBaseChar@@@Z ; P2PNetwork::SendToAllPlayingUser
  00648	59		 pop	 ecx
  00649	59		 pop	 ecx

; 352  : 					}

  0064a	8d 8d 9c 7f ff
	ff		 lea	 ecx, DWORD PTR _kPacket$530825[ebp]
  00650	c6 45 fc 00	 mov	 BYTE PTR __$EHRec$[ebp+8], 0
  00654	e8 00 00 00 00	 call	 ??1SP2Packet@@UAE@XZ	; SP2Packet::~SP2Packet
$LN9@CheckCircl:

; 353  : 				}

  00659	83 4d fc ff	 or	 DWORD PTR __$EHRec$[ebp+8], -1
  0065d	8d 8d 78 7f ff
	ff		 lea	 ecx, DWORD PTR _szDummyCircle$530823[ebp]
  00663	ff 15 00 00 00
	00		 call	 DWORD PTR __imp_??1ioHashString@@QAE@XZ
$LN11@CheckCircl:

; 437  : 	}
; 438  : }

  00669	8b 4d f4	 mov	 ecx, DWORD PTR __$EHRec$[ebp]
  0066c	64 89 0d 00 00
	00 00		 mov	 DWORD PTR fs:0, ecx
  00673	59		 pop	 ecx
  00674	5f		 pop	 edi
  00675	5e		 pop	 esi
  00676	5b		 pop	 ebx
  00677	8b 4d f0	 mov	 ecx, DWORD PTR __$ArrayPad$[ebp]
  0067a	33 cd		 xor	 ecx, ebp
  0067c	e8 00 00 00 00	 call	 @__security_check_cookie@4
  00681	c9		 leave
  00682	c2 08 00	 ret	 8
_TEXT	ENDS
;	COMDAT text$x
text$x	SEGMENT
__unwindfunclet$?CheckCircle@ioTwoMagicCircleSkill@@IAEXPAVioBaseChar@@PAVioPlayStage@@@Z$2:
  00000	8d 8d 9c 7f ff
	ff		 lea	 ecx, DWORD PTR _kPacket$530846[ebp]
  00006	e9 00 00 00 00	 jmp	 ??1SP2Packet@@UAE@XZ	; SP2Packet::~SP2Packet
__unwindfunclet$?CheckCircle@ioTwoMagicCircleSkill@@IAEXPAVioBaseChar@@PAVioPlayStage@@@Z$0:
  0000b	8d 8d 78 7f ff
	ff		 lea	 ecx, DWORD PTR _szDummyCircle$530823[ebp]
  00011	ff 25 00 00 00
	00		 jmp	 DWORD PTR __imp_??1ioHashString@@QAE@XZ
__unwindfunclet$?CheckCircle@ioTwoMagicCircleSkill@@IAEXPAVioBaseChar@@PAVioPlayStage@@@Z$1:
  00017	8d 8d 9c 7f ff
	ff		 lea	 ecx, DWORD PTR _kPacket$530825[ebp]
  0001d	e9 00 00 00 00	 jmp	 ??1SP2Packet@@UAE@XZ	; SP2Packet::~SP2Packet
__ehhandler$?CheckCircle@ioTwoMagicCircleSkill@@IAEXPAVioBaseChar@@PAVioPlayStage@@@Z:
  00022	8b 54 24 08	 mov	 edx, DWORD PTR [esp+8]
  00026	8d 42 0c	 lea	 eax, DWORD PTR [edx+12]
  00029	8b 8a 74 7f ff
	ff		 mov	 ecx, DWORD PTR [edx-32908]
  0002f	33 c8		 xor	 ecx, eax
  00031	e8 00 00 00 00	 call	 @__security_check_cookie@4
  00036	8b 4a fc	 mov	 ecx, DWORD PTR [edx-4]
  00039	33 c8		 xor	 ecx, eax
  0003b	e8 00 00 00 00	 call	 @__security_check_cookie@4
  00040	b8 00 00 00 00	 mov	 eax, OFFSET __ehfuncinfo$?CheckCircle@ioTwoMagicCircleSkill@@IAEXPAVioBaseChar@@PAVioPlayStage@@@Z
  00045	e9 00 00 00 00	 jmp	 ___CxxFrameHandler3
text$x	ENDS
?CheckCircle@ioTwoMagicCircleSkill@@IAEXPAVioBaseChar@@PAVioPlayStage@@@Z ENDP ; ioTwoMagicCircleSkill::CheckCircle
PUBLIC	_pStage$GSCopy$
PUBLIC	_pChar$GSCopy$
PUBLIC	__$ArrayPad$
; Function compile flags: /Ogsp
;	COMDAT ?OnProcessState@ioTwoMagicCircleSkill@@UAEXPAVioBaseChar@@PAVioPlayStage@@@Z
_TEXT	SEGMENT
_value$538424 = -32					; size = 4
_pStage$GSCopy$ = -28					; size = 4
_pChar$GSCopy$ = -24					; size = 4
_dwCurTime$ = -20					; size = 4
_vPos$530785 = -16					; size = 12
__$ArrayPad$ = -4					; size = 4
_pChar$ = 8						; size = 4
_pStage$ = 12						; size = 4
?OnProcessState@ioTwoMagicCircleSkill@@UAEXPAVioBaseChar@@PAVioPlayStage@@@Z PROC ; ioTwoMagicCircleSkill::OnProcessState, COMDAT
; _this$ = ecx

; 206  : {

  00000	55		 push	 ebp
  00001	8b ec		 mov	 ebp, esp
  00003	83 ec 20	 sub	 esp, 32			; 00000020H
  00006	a1 00 00 00 00	 mov	 eax, DWORD PTR ___security_cookie
  0000b	33 c5		 xor	 eax, ebp
  0000d	89 45 fc	 mov	 DWORD PTR __$ArrayPad$[ebp], eax
  00010	53		 push	 ebx
  00011	56		 push	 esi
  00012	8b 75 0c	 mov	 esi, DWORD PTR _pStage$[ebp]
  00015	57		 push	 edi
  00016	8b 7d 08	 mov	 edi, DWORD PTR _pChar$[ebp]
  00019	8b d9		 mov	 ebx, ecx

; 216  : 			{
; 217  : 				m_dwPreDelayStartTime = 0;

  0001b	89 7d e8	 mov	 DWORD PTR _pChar$GSCopy$[ebp], edi
  0001e	89 75 e4	 mov	 DWORD PTR _pStage$GSCopy$[ebp], esi
  00021	ff 15 00 00 00
	00		 call	 DWORD PTR __imp_?GetSingleton@ioFrameTimer@@SAAAV1@XZ
  00027	8b c8		 mov	 ecx, eax
  00029	ff 15 00 00 00
	00		 call	 DWORD PTR __imp_?GetLoopSec@ioFrameTimer@@QBEKXZ
  0002f	89 45 ec	 mov	 DWORD PTR _dwCurTime$[ebp], eax
  00032	8d 45 e0	 lea	 eax, DWORD PTR _value$538424[ebp]
  00035	50		 push	 eax
  00036	8d 8b 58 0f 00
	00		 lea	 ecx, DWORD PTR [ebx+3928]
  0003c	e8 00 00 00 00	 call	 ?DecryptValueToPool@?$CEncrypt@H@@QAEXPAH@Z ; CEncrypt<int>::DecryptValueToPool
  00041	8b 45 e0	 mov	 eax, DWORD PTR _value$538424[ebp]
  00044	83 e8 00	 sub	 eax, 0
  00047	0f 84 73 01 00
	00		 je	 $LN16@OnProcessS

; 207  : 
; 208  : 	DWORD dwCurTime = FRAMEGETTIME();
; 209  : 
; 210  : 	switch( m_State )

  0004d	48		 dec	 eax
  0004e	0f 84 9c 00 00
	00		 je	 $LN14@OnProcessS
  00054	48		 dec	 eax
  00055	74 53		 je	 SHORT $LN8@OnProcessS
  00057	48		 dec	 eax
  00058	0f 85 88 01 00
	00		 jne	 $LN15@OnProcessS

; 268  : 	case SS_END:
; 269  : 		{
; 270  : 			pChar->DestroyMagicCircle();

  0005e	8d 8f cc 01 00
	00		 lea	 ecx, DWORD PTR [edi+460]
  00064	e8 00 00 00 00	 call	 ?DestroyMagicCircle@ioBaseGUISupport@@QAEXXZ ; ioBaseGUISupport::DestroyMagicCircle

; 271  : 
; 272  : 			if( m_dwFirstStampCircleEffect != -1 )

  00069	8b 83 88 10 00
	00		 mov	 eax, DWORD PTR [ebx+4232]
  0006f	83 f8 ff	 cmp	 eax, -1
  00072	74 11		 je	 SHORT $LN2@OnProcessS

; 273  : 			{
; 274  : 				pChar->EndMapEffect( m_dwFirstStampCircleEffect, false );

  00074	6a 00		 push	 0
  00076	50		 push	 eax
  00077	8b cf		 mov	 ecx, edi
  00079	e8 00 00 00 00	 call	 ?EndMapEffect@ioBaseChar@@QAEXK_N@Z ; ioBaseChar::EndMapEffect

; 275  : 				m_dwFirstStampCircleEffect = -1;

  0007e	83 8b 88 10 00
	00 ff		 or	 DWORD PTR [ebx+4232], -1
$LN2@OnProcessS:

; 276  : 			}
; 277  : 
; 278  : 			if( m_dwSecondStampCircleEffect != -1 )

  00085	8b 83 8c 10 00
	00		 mov	 eax, DWORD PTR [ebx+4236]
  0008b	83 f8 ff	 cmp	 eax, -1
  0008e	0f 84 52 01 00
	00		 je	 $LN15@OnProcessS

; 279  : 			{
; 280  : 				pChar->EndMapEffect( m_dwSecondStampCircleEffect, false );

  00094	6a 00		 push	 0
  00096	50		 push	 eax
  00097	8b cf		 mov	 ecx, edi
  00099	e8 00 00 00 00	 call	 ?EndMapEffect@ioBaseChar@@QAEXK_N@Z ; ioBaseChar::EndMapEffect

; 281  : 				m_dwSecondStampCircleEffect = -1;

  0009e	83 8b 8c 10 00
	00 ff		 or	 DWORD PTR [ebx+4236], -1
  000a5	e9 3c 01 00 00	 jmp	 $LN15@OnProcessS
$LN8@OnProcessS:

; 252  : 	case SS_ACTION:
; 253  : 		{
; 254  : 			if( 0 < m_SkillMotionEndTime && m_SkillMotionEndTime < dwCurTime )

  000aa	8b 83 b8 0f 00
	00		 mov	 eax, DWORD PTR [ebx+4024]
  000b0	85 c0		 test	 eax, eax
  000b2	0f 84 2e 01 00
	00		 je	 $LN15@OnProcessS
  000b8	3b 45 ec	 cmp	 eax, DWORD PTR _dwCurTime$[ebp]
  000bb	0f 83 25 01 00
	00		 jae	 $LN15@OnProcessS

; 255  : 			{
; 256  : 				if( m_CircleState == SECOND_CIRCLE )

  000c1	8b 83 88 0f 00
	00		 mov	 eax, DWORD PTR [ebx+3976]
  000c7	83 f8 01	 cmp	 eax, 1
  000ca	75 14		 jne	 SHORT $LN6@OnProcessS

; 257  : 				{
; 258  : 					SetLoopState( pChar );

  000cc	57		 push	 edi
  000cd	8b cb		 mov	 ecx, ebx
  000cf	e8 00 00 00 00	 call	 ?SetLoopState@ioTwoMagicCircleSkill@@IAEXPAVioBaseChar@@@Z ; ioTwoMagicCircleSkill::SetLoopState

; 259  : 					m_SkillMotionEndTime = 0;					

  000d4	83 a3 b8 0f 00
	00 00		 and	 DWORD PTR [ebx+4024], 0
  000db	e9 06 01 00 00	 jmp	 $LN15@OnProcessS
$LN6@OnProcessS:

; 260  : 				}
; 261  : 				else if( m_CircleState == CIRCLE_COMPLETE )

  000e0	83 f8 02	 cmp	 eax, 2
  000e3	0f 85 fd 00 00
	00		 jne	 $LN15@OnProcessS

; 262  : 				{
; 263  : 					SetEndState( pChar, pStage );

  000e9	56		 push	 esi
  000ea	57		 push	 edi

; 264  : 				}
; 265  : 			}
; 266  : 		}
; 267  : 		break;

  000eb	e9 c7 00 00 00	 jmp	 $LN24@OnProcessS
$LN14@OnProcessS:

; 219  : 			}
; 220  : 		}
; 221  : 		break;
; 222  : 
; 223  : 	case SS_LOOP: 
; 224  : 		{	
; 225  : 			if( 0 < m_dwLoopDurationStart && dwCurTime < m_dwLoopDurationStart + m_dwLoopDuration )

  000f0	8b 83 d4 0f 00
	00		 mov	 eax, DWORD PTR [ebx+4052]
  000f6	85 c0		 test	 eax, eax
  000f8	74 16		 je	 SHORT $LN23@OnProcessS
  000fa	8b 8b d0 0f 00
	00		 mov	 ecx, DWORD PTR [ebx+4048]
  00100	03 c8		 add	 ecx, eax
  00102	39 4d ec	 cmp	 DWORD PTR _dwCurTime$[ebp], ecx
  00105	73 09		 jae	 SHORT $LN23@OnProcessS

; 226  : 			{
; 227  : 				CheckCircle( pChar, pStage );

  00107	56		 push	 esi
  00108	57		 push	 edi
  00109	8b cb		 mov	 ecx, ebx
  0010b	e8 00 00 00 00	 call	 ?CheckCircle@ioTwoMagicCircleSkill@@IAEXPAVioBaseChar@@PAVioPlayStage@@@Z ; ioTwoMagicCircleSkill::CheckCircle
$LN23@OnProcessS:

; 228  : 			}
; 229  : 
; 230  : 			if( 0 < m_dwLoopDurationStart && m_dwLoopDurationStart + m_dwLoopDuration < dwCurTime )

  00110	8b 83 d4 0f 00
	00		 mov	 eax, DWORD PTR [ebx+4052]
  00116	85 c0		 test	 eax, eax
  00118	0f 84 c8 00 00
	00		 je	 $LN15@OnProcessS
  0011e	8b 8b d0 0f 00
	00		 mov	 ecx, DWORD PTR [ebx+4048]
  00124	03 c8		 add	 ecx, eax
  00126	3b 4d ec	 cmp	 ecx, DWORD PTR _dwCurTime$[ebp]
  00129	0f 83 b7 00 00
	00		 jae	 $LN15@OnProcessS

; 231  : 			{
; 232  : 				D3DXVECTOR3 vPos = pChar->GetMagicCirclePos();

  0012f	0f 57 c0	 xorps	 xmm0, xmm0
  00132	6a 00		 push	 0
  00134	51		 push	 ecx
  00135	8d 45 f0	 lea	 eax, DWORD PTR _vPos$530785[ebp]
  00138	f3 0f 11 04 24	 movss	 DWORD PTR [esp], xmm0
  0013d	50		 push	 eax
  0013e	8d 8f cc 01 00
	00		 lea	 ecx, DWORD PTR [edi+460]
  00144	e8 00 00 00 00	 call	 ?GetMagicCirclePos@ioBaseGUISupport@@QBE?AUD3DXVECTOR3@@M_N@Z ; ioBaseGUISupport::GetMagicCirclePos

; 233  : 				m_vSecondCirclePos =  vPos;
; 234  : 
; 235  : 				ChangeCircleDropZoneAndHeightGap( pChar, pStage );

  00149	ff 75 e4	 push	 DWORD PTR _pStage$GSCopy$[ebp]
  0014c	8d bb 30 10 00
	00		 lea	 edi, DWORD PTR [ebx+4144]
  00152	ff 75 e8	 push	 DWORD PTR _pChar$GSCopy$[ebp]
  00155	8d 75 f0	 lea	 esi, DWORD PTR _vPos$530785[ebp]
  00158	a5		 movsd
  00159	a5		 movsd
  0015a	8b cb		 mov	 ecx, ebx
  0015c	a5		 movsd
  0015d	e8 00 00 00 00	 call	 ?ChangeCircleDropZoneAndHeightGap@ioTwoMagicCircleSkill@@IAEXPAVioBaseChar@@PAVioPlayStage@@@Z ; ioTwoMagicCircleSkill::ChangeCircleDropZoneAndHeightGap

; 236  : 
; 237  : 				if( m_CurCircleEffect != m_OffCircle && m_CircleState != FIRST_CIRCLE )

  00162	8d 83 58 10 00
	00		 lea	 eax, DWORD PTR [ebx+4184]
  00168	50		 push	 eax
  00169	8d 8b f0 0f 00
	00		 lea	 ecx, DWORD PTR [ebx+4080]
  0016f	ff 15 00 00 00
	00		 call	 DWORD PTR __imp_??9ioHashString@@QBE_NABV0@@Z
  00175	84 c0		 test	 al, al
  00177	74 38		 je	 SHORT $LN11@OnProcessS
  00179	8b 83 88 0f 00
	00		 mov	 eax, DWORD PTR [ebx+3976]
  0017f	85 c0		 test	 eax, eax
  00181	74 2e		 je	 SHORT $LN11@OnProcessS

; 238  : 				{
; 239  : 					if( m_CircleState != CIRCLE_COMPLETE )

  00183	83 f8 02	 cmp	 eax, 2
  00186	74 18		 je	 SHORT $LN10@OnProcessS

; 240  : 						SetCircleEffect( pChar, pStage, vPos );

  00188	83 ec 0c	 sub	 esp, 12			; 0000000cH
  0018b	8b fc		 mov	 edi, esp
  0018d	ff 75 e4	 push	 DWORD PTR _pStage$GSCopy$[ebp]
  00190	8d 75 f0	 lea	 esi, DWORD PTR _vPos$530785[ebp]
  00193	ff 75 e8	 push	 DWORD PTR _pChar$GSCopy$[ebp]
  00196	a5		 movsd
  00197	a5		 movsd
  00198	8b cb		 mov	 ecx, ebx
  0019a	a5		 movsd
  0019b	e8 00 00 00 00	 call	 ?SetCircleEffect@ioTwoMagicCircleSkill@@IAEXPAVioBaseChar@@PAVioPlayStage@@UD3DXVECTOR3@@@Z ; ioTwoMagicCircleSkill::SetCircleEffect
$LN10@OnProcessS:

; 241  : 
; 242  : 					SetActionState( pChar, pStage, CIRCLE_COMPLETE );

  001a0	6a 02		 push	 2
  001a2	ff 75 e4	 push	 DWORD PTR _pStage$GSCopy$[ebp]
  001a5	8b cb		 mov	 ecx, ebx
  001a7	ff 75 e8	 push	 DWORD PTR _pChar$GSCopy$[ebp]
  001aa	e8 00 00 00 00	 call	 ?SetActionState@ioTwoMagicCircleSkill@@IAEXPAVioBaseChar@@PAVioPlayStage@@W4CircleState@1@@Z ; ioTwoMagicCircleSkill::SetActionState

; 243  : 				}
; 244  : 				else

  001af	eb 35		 jmp	 SHORT $LN15@OnProcessS
$LN11@OnProcessS:

; 245  : 				{
; 246  : 					SetEndState(pChar, pStage);

  001b1	ff 75 e4	 push	 DWORD PTR _pStage$GSCopy$[ebp]
  001b4	ff 75 e8	 push	 DWORD PTR _pChar$GSCopy$[ebp]
$LN24@OnProcessS:
  001b7	8b cb		 mov	 ecx, ebx
  001b9	e8 00 00 00 00	 call	 ?SetEndState@ioTwoMagicCircleSkill@@IAEXPAVioBaseChar@@PAVioPlayStage@@@Z ; ioTwoMagicCircleSkill::SetEndState

; 247  : 				}
; 248  : 			}
; 249  : 				
; 250  : 		}
; 251  : 		break;

  001be	eb 26		 jmp	 SHORT $LN15@OnProcessS
$LN16@OnProcessS:

; 211  : 	{
; 212  : 	case SS_NONE:
; 213  : 		{	
; 214  : 			DWORD dwPreDelay = GetPreDelayTime();

  001c0	8b 03		 mov	 eax, DWORD PTR [ebx]
  001c2	8b cb		 mov	 ecx, ebx
  001c4	ff 90 34 01 00
	00		 call	 DWORD PTR [eax+308]

; 215  : 			if( m_dwPreDelayStartTime + dwPreDelay < dwCurTime )

  001ca	8b 93 20 02 00
	00		 mov	 edx, DWORD PTR [ebx+544]
  001d0	03 d0		 add	 edx, eax
  001d2	3b 55 ec	 cmp	 edx, DWORD PTR _dwCurTime$[ebp]
  001d5	73 0f		 jae	 SHORT $LN15@OnProcessS

; 216  : 			{
; 217  : 				m_dwPreDelayStartTime = 0;

  001d7	83 a3 20 02 00
	00 00		 and	 DWORD PTR [ebx+544], 0

; 218  : 				SetLoopState( pChar );

  001de	57		 push	 edi
  001df	8b cb		 mov	 ecx, ebx
  001e1	e8 00 00 00 00	 call	 ?SetLoopState@ioTwoMagicCircleSkill@@IAEXPAVioBaseChar@@@Z ; ioTwoMagicCircleSkill::SetLoopState
$LN15@OnProcessS:

; 282  : 			}
; 283  : 		}
; 284  : 	}
; 285  : }

  001e6	8b 4d fc	 mov	 ecx, DWORD PTR __$ArrayPad$[ebp]
  001e9	5f		 pop	 edi
  001ea	5e		 pop	 esi
  001eb	33 cd		 xor	 ecx, ebp
  001ed	5b		 pop	 ebx
  001ee	e8 00 00 00 00	 call	 @__security_check_cookie@4
  001f3	c9		 leave
  001f4	c2 08 00	 ret	 8
?OnProcessState@ioTwoMagicCircleSkill@@UAEXPAVioBaseChar@@PAVioPlayStage@@@Z ENDP ; ioTwoMagicCircleSkill::OnProcessState
_TEXT	ENDS
END
