; Listing generated by Microsoft (R) Optimizing Compiler Version 16.00.30319.01 

	TITLE	D:\Lost Saga For Developer\Youtube\Tutorial\Source\src\LSClient\ioUIPetAniEventHandler.cpp
	.686P
	.XMM
	include listing.inc
	.model	flat

INCLUDELIB MSVCRT
INCLUDELIB OLDNAMES

PUBLIC	?SetCreatePet@ioUIPetAniEventHandler@@QAEXPAVioPetView@@@Z ; ioUIPetAniEventHandler::SetCreatePet
; Function compile flags: /Ogsp
; File d:\lost saga for developer\youtube\tutorial\source\src\lsclient\iouipetanieventhandler.cpp
;	COMDAT ?SetCreatePet@ioUIPetAniEventHandler@@QAEXPAVioPetView@@@Z
_TEXT	SEGMENT
_pChar$ = 8						; size = 4
?SetCreatePet@ioUIPetAniEventHandler@@QAEXPAVioPetView@@@Z PROC ; ioUIPetAniEventHandler::SetCreatePet, COMDAT
; _this$ = ecx

; 22   : {

  00000	55		 push	 ebp
  00001	8b ec		 mov	 ebp, esp

; 23   : 	m_pChar = pChar;

  00003	8b 45 08	 mov	 eax, DWORD PTR _pChar$[ebp]
  00006	89 41 18	 mov	 DWORD PTR [ecx+24], eax

; 24   : }

  00009	5d		 pop	 ebp
  0000a	c2 04 00	 ret	 4
?SetCreatePet@ioUIPetAniEventHandler@@QAEXPAVioPetView@@@Z ENDP ; ioUIPetAniEventHandler::SetCreatePet
_TEXT	ENDS
PUBLIC	?OnAutoEffect@ioUIPetAniEventHandler@@IAEXPBUAniEventTime@@PBVioAnimation@@@Z ; ioUIPetAniEventHandler::OnAutoEffect
EXTRN	?AttachEffect@ioPetView@@QAEPAVioEffect@@ABVioHashString@@PAVioEntityEvent@@@Z:PROC ; ioPetView::AttachEffect
; Function compile flags: /Ogsp
;	COMDAT ?OnAutoEffect@ioUIPetAniEventHandler@@IAEXPBUAniEventTime@@PBVioAnimation@@@Z
_TEXT	SEGMENT
_pEvent$ = 8						; size = 4
_pNotifier$ = 12					; size = 4
?OnAutoEffect@ioUIPetAniEventHandler@@IAEXPBUAniEventTime@@PBVioAnimation@@@Z PROC ; ioUIPetAniEventHandler::OnAutoEffect, COMDAT
; _this$ = ecx

; 50   : {

  00000	55		 push	 ebp
  00001	8b ec		 mov	 ebp, esp

; 51   : 	m_pChar->AttachEffect( pEvent->szSubInfo, NULL );

  00003	8b 45 08	 mov	 eax, DWORD PTR _pEvent$[ebp]
  00006	8b 49 18	 mov	 ecx, DWORD PTR [ecx+24]
  00009	6a 00		 push	 0
  0000b	83 c0 14	 add	 eax, 20			; 00000014H
  0000e	50		 push	 eax
  0000f	e8 00 00 00 00	 call	 ?AttachEffect@ioPetView@@QAEPAVioEffect@@ABVioHashString@@PAVioEntityEvent@@@Z ; ioPetView::AttachEffect

; 52   : }

  00014	5d		 pop	 ebp
  00015	c2 08 00	 ret	 8
?OnAutoEffect@ioUIPetAniEventHandler@@IAEXPBUAniEventTime@@PBVioAnimation@@@Z ENDP ; ioUIPetAniEventHandler::OnAutoEffect
_TEXT	ENDS
PUBLIC	??0AniEventInfo@@QAE@XZ				; AniEventInfo::AniEventInfo
EXTRN	__imp_??1ioHashString@@QAE@XZ:PROC
EXTRN	__imp_??0ioHashString@@QAE@XZ:PROC
EXTRN	___CxxFrameHandler3:PROC
EXTRN	@__security_check_cookie@4:PROC
EXTRN	__EH_epilog3:PROC
EXTRN	__EH_prolog3:PROC
;	COMDAT xdata$x
xdata$x	SEGMENT
__unwindtable$??0AniEventInfo@@QAE@XZ DD 0ffffffffH
	DD	FLAT:__unwindfunclet$??0AniEventInfo@@QAE@XZ$0
__ehfuncinfo$??0AniEventInfo@@QAE@XZ DD 019930522H
	DD	01H
	DD	FLAT:__unwindtable$??0AniEventInfo@@QAE@XZ
	DD	2 DUP(00H)
	DD	2 DUP(00H)
	DD	00H
	DD	01H
; Function compile flags: /Ogsp
xdata$x	ENDS
;	COMDAT ??0AniEventInfo@@QAE@XZ
_TEXT	SEGMENT
_this$ = -16						; size = 4
__$EHRec$ = -12						; size = 12
??0AniEventInfo@@QAE@XZ PROC				; AniEventInfo::AniEventInfo, COMDAT
; _this$ = ecx
  00000	6a 04		 push	 4
  00002	b8 00 00 00 00	 mov	 eax, __ehhandler$??0AniEventInfo@@QAE@XZ
  00007	e8 00 00 00 00	 call	 __EH_prolog3
  0000c	8b f9		 mov	 edi, ecx
  0000e	89 7d f0	 mov	 DWORD PTR _this$[ebp], edi
  00011	8b 35 00 00 00
	00		 mov	 esi, DWORD PTR __imp_??0ioHashString@@QAE@XZ
  00017	ff d6		 call	 esi
  00019	83 65 fc 00	 and	 DWORD PTR __$EHRec$[ebp+8], 0
  0001d	8d 4f 10	 lea	 ecx, DWORD PTR [edi+16]
  00020	ff d6		 call	 esi
  00022	8b c7		 mov	 eax, edi
  00024	e8 00 00 00 00	 call	 __EH_epilog3
  00029	c3		 ret	 0
_TEXT	ENDS
;	COMDAT text$x
text$x	SEGMENT
__unwindfunclet$??0AniEventInfo@@QAE@XZ$0:
  00000	8b 4d f0	 mov	 ecx, DWORD PTR _this$[ebp]
  00003	ff 25 00 00 00
	00		 jmp	 DWORD PTR __imp_??1ioHashString@@QAE@XZ
__ehhandler$??0AniEventInfo@@QAE@XZ:
  00009	8b 54 24 08	 mov	 edx, DWORD PTR [esp+8]
  0000d	8d 42 0c	 lea	 eax, DWORD PTR [edx+12]
  00010	8b 4a ec	 mov	 ecx, DWORD PTR [edx-20]
  00013	33 c8		 xor	 ecx, eax
  00015	e8 00 00 00 00	 call	 @__security_check_cookie@4
  0001a	b8 00 00 00 00	 mov	 eax, OFFSET __ehfuncinfo$??0AniEventInfo@@QAE@XZ
  0001f	e9 00 00 00 00	 jmp	 ___CxxFrameHandler3
text$x	ENDS
??0AniEventInfo@@QAE@XZ ENDP				; AniEventInfo::AniEventInfo
PUBLIC	??1AniEventInfo@@QAE@XZ				; AniEventInfo::~AniEventInfo
;	COMDAT xdata$x
xdata$x	SEGMENT
__unwindtable$??1AniEventInfo@@QAE@XZ DD 0ffffffffH
	DD	FLAT:__unwindfunclet$??1AniEventInfo@@QAE@XZ$0
__ehfuncinfo$??1AniEventInfo@@QAE@XZ DD 019930522H
	DD	01H
	DD	FLAT:__unwindtable$??1AniEventInfo@@QAE@XZ
	DD	2 DUP(00H)
	DD	2 DUP(00H)
	DD	00H
	DD	01H
; Function compile flags: /Ogsp
xdata$x	ENDS
;	COMDAT ??1AniEventInfo@@QAE@XZ
_TEXT	SEGMENT
_this$ = -16						; size = 4
__$EHRec$ = -12						; size = 12
??1AniEventInfo@@QAE@XZ PROC				; AniEventInfo::~AniEventInfo, COMDAT
; _this$ = ecx
  00000	6a 04		 push	 4
  00002	b8 00 00 00 00	 mov	 eax, __ehhandler$??1AniEventInfo@@QAE@XZ
  00007	e8 00 00 00 00	 call	 __EH_prolog3
  0000c	8b f9		 mov	 edi, ecx
  0000e	89 7d f0	 mov	 DWORD PTR _this$[ebp], edi
  00011	8b 35 00 00 00
	00		 mov	 esi, DWORD PTR __imp_??1ioHashString@@QAE@XZ
  00017	83 65 fc 00	 and	 DWORD PTR __$EHRec$[ebp+8], 0
  0001b	8d 4f 10	 lea	 ecx, DWORD PTR [edi+16]
  0001e	ff d6		 call	 esi
  00020	83 4d fc ff	 or	 DWORD PTR __$EHRec$[ebp+8], -1
  00024	8b cf		 mov	 ecx, edi
  00026	ff d6		 call	 esi
  00028	e8 00 00 00 00	 call	 __EH_epilog3
  0002d	c3		 ret	 0
_TEXT	ENDS
;	COMDAT text$x
text$x	SEGMENT
__unwindfunclet$??1AniEventInfo@@QAE@XZ$0:
  00000	8b 4d f0	 mov	 ecx, DWORD PTR _this$[ebp]
  00003	ff 25 00 00 00
	00		 jmp	 DWORD PTR __imp_??1ioHashString@@QAE@XZ
__ehhandler$??1AniEventInfo@@QAE@XZ:
  00009	8b 54 24 08	 mov	 edx, DWORD PTR [esp+8]
  0000d	8d 42 0c	 lea	 eax, DWORD PTR [edx+12]
  00010	8b 4a ec	 mov	 ecx, DWORD PTR [edx-20]
  00013	33 c8		 xor	 ecx, eax
  00015	e8 00 00 00 00	 call	 @__security_check_cookie@4
  0001a	b8 00 00 00 00	 mov	 eax, OFFSET __ehfuncinfo$??1AniEventInfo@@QAE@XZ
  0001f	e9 00 00 00 00	 jmp	 ___CxxFrameHandler3
text$x	ENDS
??1AniEventInfo@@QAE@XZ ENDP				; AniEventInfo::~AniEventInfo
PUBLIC	??1tagAniSoundEventInfo@@QAE@XZ			; tagAniSoundEventInfo::~tagAniSoundEventInfo
;	COMDAT xdata$x
xdata$x	SEGMENT
__unwindtable$??1tagAniSoundEventInfo@@QAE@XZ DD 0ffffffffH
	DD	FLAT:__unwindfunclet$??1tagAniSoundEventInfo@@QAE@XZ$0
__ehfuncinfo$??1tagAniSoundEventInfo@@QAE@XZ DD 019930522H
	DD	01H
	DD	FLAT:__unwindtable$??1tagAniSoundEventInfo@@QAE@XZ
	DD	2 DUP(00H)
	DD	2 DUP(00H)
	DD	00H
	DD	01H
; Function compile flags: /Ogsp
xdata$x	ENDS
;	COMDAT ??1tagAniSoundEventInfo@@QAE@XZ
_TEXT	SEGMENT
_this$ = -16						; size = 4
__$EHRec$ = -12						; size = 12
??1tagAniSoundEventInfo@@QAE@XZ PROC			; tagAniSoundEventInfo::~tagAniSoundEventInfo, COMDAT
; _this$ = ecx
  00000	6a 04		 push	 4
  00002	b8 00 00 00 00	 mov	 eax, __ehhandler$??1tagAniSoundEventInfo@@QAE@XZ
  00007	e8 00 00 00 00	 call	 __EH_prolog3
  0000c	8b f9		 mov	 edi, ecx
  0000e	89 7d f0	 mov	 DWORD PTR _this$[ebp], edi
  00011	8b 35 00 00 00
	00		 mov	 esi, DWORD PTR __imp_??1ioHashString@@QAE@XZ
  00017	83 65 fc 00	 and	 DWORD PTR __$EHRec$[ebp+8], 0
  0001b	8d 4f 10	 lea	 ecx, DWORD PTR [edi+16]
  0001e	ff d6		 call	 esi
  00020	83 4d fc ff	 or	 DWORD PTR __$EHRec$[ebp+8], -1
  00024	8b cf		 mov	 ecx, edi
  00026	ff d6		 call	 esi
  00028	e8 00 00 00 00	 call	 __EH_epilog3
  0002d	c3		 ret	 0
_TEXT	ENDS
;	COMDAT text$x
text$x	SEGMENT
__unwindfunclet$??1tagAniSoundEventInfo@@QAE@XZ$0:
  00000	8b 4d f0	 mov	 ecx, DWORD PTR _this$[ebp]
  00003	ff 25 00 00 00
	00		 jmp	 DWORD PTR __imp_??1ioHashString@@QAE@XZ
__ehhandler$??1tagAniSoundEventInfo@@QAE@XZ:
  00009	8b 54 24 08	 mov	 edx, DWORD PTR [esp+8]
  0000d	8d 42 0c	 lea	 eax, DWORD PTR [edx+12]
  00010	8b 4a ec	 mov	 ecx, DWORD PTR [edx-20]
  00013	33 c8		 xor	 ecx, eax
  00015	e8 00 00 00 00	 call	 @__security_check_cookie@4
  0001a	b8 00 00 00 00	 mov	 eax, OFFSET __ehfuncinfo$??1tagAniSoundEventInfo@@QAE@XZ
  0001f	e9 00 00 00 00	 jmp	 ___CxxFrameHandler3
text$x	ENDS
??1tagAniSoundEventInfo@@QAE@XZ ENDP			; tagAniSoundEventInfo::~tagAniSoundEventInfo
PUBLIC	??0AniEventInfo@@QAE@ABU0@@Z			; AniEventInfo::AniEventInfo
EXTRN	__imp_??0ioHashString@@QAE@ABV0@@Z:PROC
;	COMDAT xdata$x
xdata$x	SEGMENT
__unwindtable$??0AniEventInfo@@QAE@ABU0@@Z DD 0ffffffffH
	DD	FLAT:__unwindfunclet$??0AniEventInfo@@QAE@ABU0@@Z$0
__ehfuncinfo$??0AniEventInfo@@QAE@ABU0@@Z DD 019930522H
	DD	01H
	DD	FLAT:__unwindtable$??0AniEventInfo@@QAE@ABU0@@Z
	DD	2 DUP(00H)
	DD	2 DUP(00H)
	DD	00H
	DD	01H
; Function compile flags: /Ogsp
xdata$x	ENDS
;	COMDAT ??0AniEventInfo@@QAE@ABU0@@Z
_TEXT	SEGMENT
_this$ = -16						; size = 4
__$EHRec$ = -12						; size = 12
___that$ = 8						; size = 4
??0AniEventInfo@@QAE@ABU0@@Z PROC			; AniEventInfo::AniEventInfo, COMDAT
; _this$ = ecx
  00000	6a 04		 push	 4
  00002	b8 00 00 00 00	 mov	 eax, __ehhandler$??0AniEventInfo@@QAE@ABU0@@Z
  00007	e8 00 00 00 00	 call	 __EH_prolog3
  0000c	8b f9		 mov	 edi, ecx
  0000e	89 7d f0	 mov	 DWORD PTR _this$[ebp], edi
  00011	8b 5d 08	 mov	 ebx, DWORD PTR ___that$[ebp]
  00014	8b 35 00 00 00
	00		 mov	 esi, DWORD PTR __imp_??0ioHashString@@QAE@ABV0@@Z
  0001a	53		 push	 ebx
  0001b	ff d6		 call	 esi
  0001d	83 65 fc 00	 and	 DWORD PTR __$EHRec$[ebp+8], 0
  00021	83 c3 10	 add	 ebx, 16			; 00000010H
  00024	53		 push	 ebx
  00025	8d 4f 10	 lea	 ecx, DWORD PTR [edi+16]
  00028	ff d6		 call	 esi
  0002a	8b c7		 mov	 eax, edi
  0002c	e8 00 00 00 00	 call	 __EH_epilog3
  00031	c2 04 00	 ret	 4
_TEXT	ENDS
;	COMDAT text$x
text$x	SEGMENT
__unwindfunclet$??0AniEventInfo@@QAE@ABU0@@Z$0:
  00000	8b 4d f0	 mov	 ecx, DWORD PTR _this$[ebp]
  00003	ff 25 00 00 00
	00		 jmp	 DWORD PTR __imp_??1ioHashString@@QAE@XZ
__ehhandler$??0AniEventInfo@@QAE@ABU0@@Z:
  00009	8b 54 24 08	 mov	 edx, DWORD PTR [esp+8]
  0000d	8d 42 0c	 lea	 eax, DWORD PTR [edx+12]
  00010	8b 4a ec	 mov	 ecx, DWORD PTR [edx-20]
  00013	33 c8		 xor	 ecx, eax
  00015	e8 00 00 00 00	 call	 @__security_check_cookie@4
  0001a	b8 00 00 00 00	 mov	 eax, OFFSET __ehfuncinfo$??0AniEventInfo@@QAE@ABU0@@Z
  0001f	e9 00 00 00 00	 jmp	 ___CxxFrameHandler3
text$x	ENDS
??0AniEventInfo@@QAE@ABU0@@Z ENDP			; AniEventInfo::AniEventInfo
PUBLIC	??0tagAniSoundEventInfo@@QAE@ABU0@@Z		; tagAniSoundEventInfo::tagAniSoundEventInfo
;	COMDAT xdata$x
xdata$x	SEGMENT
__unwindtable$??0tagAniSoundEventInfo@@QAE@ABU0@@Z DD 0ffffffffH
	DD	FLAT:__unwindfunclet$??0tagAniSoundEventInfo@@QAE@ABU0@@Z$0
__ehfuncinfo$??0tagAniSoundEventInfo@@QAE@ABU0@@Z DD 019930522H
	DD	01H
	DD	FLAT:__unwindtable$??0tagAniSoundEventInfo@@QAE@ABU0@@Z
	DD	2 DUP(00H)
	DD	2 DUP(00H)
	DD	00H
	DD	01H
; Function compile flags: /Ogsp
xdata$x	ENDS
;	COMDAT ??0tagAniSoundEventInfo@@QAE@ABU0@@Z
_TEXT	SEGMENT
_this$ = -16						; size = 4
__$EHRec$ = -12						; size = 12
___that$ = 8						; size = 4
??0tagAniSoundEventInfo@@QAE@ABU0@@Z PROC		; tagAniSoundEventInfo::tagAniSoundEventInfo, COMDAT
; _this$ = ecx
  00000	6a 04		 push	 4
  00002	b8 00 00 00 00	 mov	 eax, __ehhandler$??0tagAniSoundEventInfo@@QAE@ABU0@@Z
  00007	e8 00 00 00 00	 call	 __EH_prolog3
  0000c	8b f1		 mov	 esi, ecx
  0000e	89 75 f0	 mov	 DWORD PTR _this$[ebp], esi
  00011	8b 5d 08	 mov	 ebx, DWORD PTR ___that$[ebp]
  00014	8b 3d 00 00 00
	00		 mov	 edi, DWORD PTR __imp_??0ioHashString@@QAE@ABV0@@Z
  0001a	53		 push	 ebx
  0001b	ff d7		 call	 edi
  0001d	83 65 fc 00	 and	 DWORD PTR __$EHRec$[ebp+8], 0
  00021	8d 43 10	 lea	 eax, DWORD PTR [ebx+16]
  00024	50		 push	 eax
  00025	8d 4e 10	 lea	 ecx, DWORD PTR [esi+16]
  00028	ff d7		 call	 edi
  0002a	8b 43 20	 mov	 eax, DWORD PTR [ebx+32]
  0002d	89 46 20	 mov	 DWORD PTR [esi+32], eax
  00030	8b c6		 mov	 eax, esi
  00032	e8 00 00 00 00	 call	 __EH_epilog3
  00037	c2 04 00	 ret	 4
_TEXT	ENDS
;	COMDAT text$x
text$x	SEGMENT
__unwindfunclet$??0tagAniSoundEventInfo@@QAE@ABU0@@Z$0:
  00000	8b 4d f0	 mov	 ecx, DWORD PTR _this$[ebp]
  00003	ff 25 00 00 00
	00		 jmp	 DWORD PTR __imp_??1ioHashString@@QAE@XZ
__ehhandler$??0tagAniSoundEventInfo@@QAE@ABU0@@Z:
  00009	8b 54 24 08	 mov	 edx, DWORD PTR [esp+8]
  0000d	8d 42 0c	 lea	 eax, DWORD PTR [edx+12]
  00010	8b 4a ec	 mov	 ecx, DWORD PTR [edx-20]
  00013	33 c8		 xor	 ecx, eax
  00015	e8 00 00 00 00	 call	 @__security_check_cookie@4
  0001a	b8 00 00 00 00	 mov	 eax, OFFSET __ehfuncinfo$??0tagAniSoundEventInfo@@QAE@ABU0@@Z
  0001f	e9 00 00 00 00	 jmp	 ___CxxFrameHandler3
text$x	ENDS
??0tagAniSoundEventInfo@@QAE@ABU0@@Z ENDP		; tagAniSoundEventInfo::tagAniSoundEventInfo
PUBLIC	?empty@?$vector@UAniEventInfo@@V?$allocator@UAniEventInfo@@@std@@@std@@QBE_NXZ ; std::vector<AniEventInfo,std::allocator<AniEventInfo> >::empty
; Function compile flags: /Ogsp
; File c:\program files (x86)\microsoft visual studio 10.0\vc\include\vector
;	COMDAT ?empty@?$vector@UAniEventInfo@@V?$allocator@UAniEventInfo@@@std@@@std@@QBE_NXZ
_TEXT	SEGMENT
?empty@?$vector@UAniEventInfo@@V?$allocator@UAniEventInfo@@@std@@@std@@QBE_NXZ PROC ; std::vector<AniEventInfo,std::allocator<AniEventInfo> >::empty, COMDAT
; _this$ = ecx

; 889  : 		return (this->_Myfirst == this->_Mylast);

  00000	8b 01		 mov	 eax, DWORD PTR [ecx]
  00002	2b 41 04	 sub	 eax, DWORD PTR [ecx+4]
  00005	f7 d8		 neg	 eax
  00007	1b c0		 sbb	 eax, eax
  00009	40		 inc	 eax

; 890  : 		}

  0000a	c3		 ret	 0
?empty@?$vector@UAniEventInfo@@V?$allocator@UAniEventInfo@@@std@@@std@@QBE_NXZ ENDP ; std::vector<AniEventInfo,std::allocator<AniEventInfo> >::empty
_TEXT	ENDS
PUBLIC	?empty@?$vector@UtagAniSoundEventInfo@@V?$allocator@UtagAniSoundEventInfo@@@std@@@std@@QBE_NXZ ; std::vector<tagAniSoundEventInfo,std::allocator<tagAniSoundEventInfo> >::empty
; Function compile flags: /Ogsp
;	COMDAT ?empty@?$vector@UtagAniSoundEventInfo@@V?$allocator@UtagAniSoundEventInfo@@@std@@@std@@QBE_NXZ
_TEXT	SEGMENT
?empty@?$vector@UtagAniSoundEventInfo@@V?$allocator@UtagAniSoundEventInfo@@@std@@@std@@QBE_NXZ PROC ; std::vector<tagAniSoundEventInfo,std::allocator<tagAniSoundEventInfo> >::empty, COMDAT
; _this$ = ecx

; 889  : 		return (this->_Myfirst == this->_Mylast);

  00000	8b 01		 mov	 eax, DWORD PTR [ecx]
  00002	2b 41 04	 sub	 eax, DWORD PTR [ecx+4]
  00005	f7 d8		 neg	 eax
  00007	1b c0		 sbb	 eax, eax
  00009	40		 inc	 eax

; 890  : 		}

  0000a	c3		 ret	 0
?empty@?$vector@UtagAniSoundEventInfo@@V?$allocator@UtagAniSoundEventInfo@@@std@@@std@@QBE_NXZ ENDP ; std::vector<tagAniSoundEventInfo,std::allocator<tagAniSoundEventInfo> >::empty
_TEXT	ENDS
PUBLIC	?_Inside@?$vector@UAniEventInfo@@V?$allocator@UAniEventInfo@@@std@@@std@@IBE_NPBUAniEventInfo@@@Z ; std::vector<AniEventInfo,std::allocator<AniEventInfo> >::_Inside
; Function compile flags: /Ogsp
;	COMDAT ?_Inside@?$vector@UAniEventInfo@@V?$allocator@UAniEventInfo@@@std@@@std@@IBE_NPBUAniEventInfo@@@Z
_TEXT	SEGMENT
__Ptr$ = 8						; size = 4
?_Inside@?$vector@UAniEventInfo@@V?$allocator@UAniEventInfo@@@std@@@std@@IBE_NPBUAniEventInfo@@@Z PROC ; std::vector<AniEventInfo,std::allocator<AniEventInfo> >::_Inside, COMDAT
; _this$ = ecx

; 1285 : 		{	// test if _Ptr points inside vector

  00000	55		 push	 ebp
  00001	8b ec		 mov	 ebp, esp

; 1286 : 		return (_Ptr < this->_Mylast && this->_Myfirst <= _Ptr);

  00003	8b 45 08	 mov	 eax, DWORD PTR __Ptr$[ebp]
  00006	3b 41 04	 cmp	 eax, DWORD PTR [ecx+4]
  00009	73 09		 jae	 SHORT $LN3@Inside
  0000b	39 01		 cmp	 DWORD PTR [ecx], eax
  0000d	77 05		 ja	 SHORT $LN3@Inside
  0000f	33 c0		 xor	 eax, eax
  00011	40		 inc	 eax
  00012	eb 02		 jmp	 SHORT $LN4@Inside
$LN3@Inside:
  00014	33 c0		 xor	 eax, eax
$LN4@Inside:

; 1287 : 		}

  00016	5d		 pop	 ebp
  00017	c2 04 00	 ret	 4
?_Inside@?$vector@UAniEventInfo@@V?$allocator@UAniEventInfo@@@std@@@std@@IBE_NPBUAniEventInfo@@@Z ENDP ; std::vector<AniEventInfo,std::allocator<AniEventInfo> >::_Inside
_TEXT	ENDS
PUBLIC	??_7bad_alloc@std@@6B@				; std::bad_alloc::`vftable'
PUBLIC	??0bad_alloc@std@@QAE@PBD@Z			; std::bad_alloc::bad_alloc
PUBLIC	??_R4bad_alloc@std@@6B@				; std::bad_alloc::`RTTI Complete Object Locator'
PUBLIC	??_R0?AVbad_alloc@std@@@8			; std::bad_alloc `RTTI Type Descriptor'
PUBLIC	??_R3bad_alloc@std@@8				; std::bad_alloc::`RTTI Class Hierarchy Descriptor'
PUBLIC	??_R2bad_alloc@std@@8				; std::bad_alloc::`RTTI Base Class Array'
PUBLIC	??_R1A@?0A@EA@bad_alloc@std@@8			; std::bad_alloc::`RTTI Base Class Descriptor at (0,-1,0,64)'
PUBLIC	??_R1A@?0A@EA@exception@std@@8			; std::exception::`RTTI Base Class Descriptor at (0,-1,0,64)'
PUBLIC	??_R0?AVexception@std@@@8			; std::exception `RTTI Type Descriptor'
PUBLIC	??_R3exception@std@@8				; std::exception::`RTTI Class Hierarchy Descriptor'
PUBLIC	??_R2exception@std@@8				; std::exception::`RTTI Base Class Array'
EXTRN	__imp_??0exception@std@@QAE@ABQBD@Z:PROC
EXTRN	??_7type_info@@6B@:QWORD			; type_info::`vftable'
EXTRN	??_Ebad_alloc@std@@UAEPAXI@Z:PROC		; std::bad_alloc::`vector deleting destructor'
EXTRN	?what@exception@std@@UBEPBDXZ:PROC		; std::exception::what
;	COMDAT ??_R2exception@std@@8
; File c:\program files (x86)\microsoft visual studio 10.0\vc\include\exception
rdata$r	SEGMENT
??_R2exception@std@@8 DD FLAT:??_R1A@?0A@EA@exception@std@@8 ; std::exception::`RTTI Base Class Array'
rdata$r	ENDS
;	COMDAT ??_R3exception@std@@8
rdata$r	SEGMENT
??_R3exception@std@@8 DD 00H				; std::exception::`RTTI Class Hierarchy Descriptor'
	DD	00H
	DD	01H
	DD	FLAT:??_R2exception@std@@8
rdata$r	ENDS
;	COMDAT ??_R0?AVexception@std@@@8
_DATA	SEGMENT
??_R0?AVexception@std@@@8 DD FLAT:??_7type_info@@6B@	; std::exception `RTTI Type Descriptor'
	DD	00H
	DB	'.?AVexception@std@@', 00H
_DATA	ENDS
;	COMDAT ??_R1A@?0A@EA@exception@std@@8
rdata$r	SEGMENT
??_R1A@?0A@EA@exception@std@@8 DD FLAT:??_R0?AVexception@std@@@8 ; std::exception::`RTTI Base Class Descriptor at (0,-1,0,64)'
	DD	00H
	DD	00H
	DD	0ffffffffH
	DD	00H
	DD	040H
	DD	FLAT:??_R3exception@std@@8
rdata$r	ENDS
;	COMDAT ??_R1A@?0A@EA@bad_alloc@std@@8
rdata$r	SEGMENT
??_R1A@?0A@EA@bad_alloc@std@@8 DD FLAT:??_R0?AVbad_alloc@std@@@8 ; std::bad_alloc::`RTTI Base Class Descriptor at (0,-1,0,64)'
	DD	01H
	DD	00H
	DD	0ffffffffH
	DD	00H
	DD	040H
	DD	FLAT:??_R3bad_alloc@std@@8
rdata$r	ENDS
;	COMDAT ??_R2bad_alloc@std@@8
rdata$r	SEGMENT
??_R2bad_alloc@std@@8 DD FLAT:??_R1A@?0A@EA@bad_alloc@std@@8 ; std::bad_alloc::`RTTI Base Class Array'
	DD	FLAT:??_R1A@?0A@EA@exception@std@@8
rdata$r	ENDS
;	COMDAT ??_R3bad_alloc@std@@8
rdata$r	SEGMENT
??_R3bad_alloc@std@@8 DD 00H				; std::bad_alloc::`RTTI Class Hierarchy Descriptor'
	DD	00H
	DD	02H
	DD	FLAT:??_R2bad_alloc@std@@8
rdata$r	ENDS
;	COMDAT ??_R0?AVbad_alloc@std@@@8
_DATA	SEGMENT
??_R0?AVbad_alloc@std@@@8 DD FLAT:??_7type_info@@6B@	; std::bad_alloc `RTTI Type Descriptor'
	DD	00H
	DB	'.?AVbad_alloc@std@@', 00H
_DATA	ENDS
;	COMDAT ??_R4bad_alloc@std@@6B@
rdata$r	SEGMENT
??_R4bad_alloc@std@@6B@ DD 00H				; std::bad_alloc::`RTTI Complete Object Locator'
	DD	00H
	DD	00H
	DD	FLAT:??_R0?AVbad_alloc@std@@@8
	DD	FLAT:??_R3bad_alloc@std@@8
rdata$r	ENDS
;	COMDAT ??_7bad_alloc@std@@6B@
CONST	SEGMENT
??_7bad_alloc@std@@6B@ DD FLAT:??_R4bad_alloc@std@@6B@	; std::bad_alloc::`vftable'
	DD	FLAT:??_Ebad_alloc@std@@UAEPAXI@Z
	DD	FLAT:?what@exception@std@@UBEPBDXZ
; Function compile flags: /Ogsp
CONST	ENDS
;	COMDAT ??0bad_alloc@std@@QAE@PBD@Z
_TEXT	SEGMENT
__Message$ = 8						; size = 4
??0bad_alloc@std@@QAE@PBD@Z PROC			; std::bad_alloc::bad_alloc, COMDAT
; _this$ = ecx

; 345  : 		{	// construct from message string

  00000	55		 push	 ebp
  00001	8b ec		 mov	 ebp, esp
  00003	56		 push	 esi
  00004	8d 45 08	 lea	 eax, DWORD PTR __Message$[ebp]
  00007	50		 push	 eax
  00008	8b f1		 mov	 esi, ecx
  0000a	ff 15 00 00 00
	00		 call	 DWORD PTR __imp_??0exception@std@@QAE@ABQBD@Z
  00010	c7 06 00 00 00
	00		 mov	 DWORD PTR [esi], OFFSET ??_7bad_alloc@std@@6B@

; 346  : 		}

  00016	8b c6		 mov	 eax, esi
  00018	5e		 pop	 esi
  00019	5d		 pop	 ebp
  0001a	c2 04 00	 ret	 4
??0bad_alloc@std@@QAE@PBD@Z ENDP			; std::bad_alloc::bad_alloc
_TEXT	ENDS
PUBLIC	??1bad_alloc@std@@UAE@XZ			; std::bad_alloc::~bad_alloc
EXTRN	__imp_??1exception@std@@UAE@XZ:PROC
; Function compile flags: /Ogsp
;	COMDAT ??1bad_alloc@std@@UAE@XZ
_TEXT	SEGMENT
??1bad_alloc@std@@UAE@XZ PROC				; std::bad_alloc::~bad_alloc, COMDAT
; _this$ = ecx

; 354  : 		{	// destroy the object

  00000	c7 01 00 00 00
	00		 mov	 DWORD PTR [ecx], OFFSET ??_7bad_alloc@std@@6B@

; 355  : 		}

  00006	ff 25 00 00 00
	00		 jmp	 DWORD PTR __imp_??1exception@std@@UAE@XZ
??1bad_alloc@std@@UAE@XZ ENDP				; std::bad_alloc::~bad_alloc
_TEXT	ENDS
PUBLIC	?_Orphan_range@?$vector@UAniEventInfo@@V?$allocator@UAniEventInfo@@@std@@@std@@IBEXPAUAniEventInfo@@0@Z ; std::vector<AniEventInfo,std::allocator<AniEventInfo> >::_Orphan_range
; Function compile flags: /Ogsp
; File c:\program files (x86)\microsoft visual studio 10.0\vc\include\vector
;	COMDAT ?_Orphan_range@?$vector@UAniEventInfo@@V?$allocator@UAniEventInfo@@@std@@@std@@IBEXPAUAniEventInfo@@0@Z
_TEXT	SEGMENT
___formal$ = 8						; size = 4
___formal$ = 12						; size = 4
?_Orphan_range@?$vector@UAniEventInfo@@V?$allocator@UAniEventInfo@@@std@@@std@@IBEXPAUAniEventInfo@@0@Z PROC ; std::vector<AniEventInfo,std::allocator<AniEventInfo> >::_Orphan_range, COMDAT
; _this$ = ecx

; 1454 : 		}

  00000	c2 08 00	 ret	 8
?_Orphan_range@?$vector@UAniEventInfo@@V?$allocator@UAniEventInfo@@@std@@@std@@IBEXPAUAniEventInfo@@0@Z ENDP ; std::vector<AniEventInfo,std::allocator<AniEventInfo> >::_Orphan_range
_TEXT	ENDS
EXTRN	??3@YAXPAX@Z:PROC				; operator delete
; Function compile flags: /Ogsp
;	COMDAT ??_Gbad_alloc@std@@UAEPAXI@Z
_TEXT	SEGMENT
___flags$ = 8						; size = 4
??_Gbad_alloc@std@@UAEPAXI@Z PROC			; std::bad_alloc::`scalar deleting destructor', COMDAT
; _this$ = ecx
  00000	55		 push	 ebp
  00001	8b ec		 mov	 ebp, esp
  00003	56		 push	 esi
  00004	8b f1		 mov	 esi, ecx
  00006	c7 06 00 00 00
	00		 mov	 DWORD PTR [esi], OFFSET ??_7bad_alloc@std@@6B@
  0000c	ff 15 00 00 00
	00		 call	 DWORD PTR __imp_??1exception@std@@UAE@XZ
  00012	f6 45 08 01	 test	 BYTE PTR ___flags$[ebp], 1
  00016	74 07		 je	 SHORT $LN1@scalar
  00018	56		 push	 esi
  00019	e8 00 00 00 00	 call	 ??3@YAXPAX@Z		; operator delete
  0001e	59		 pop	 ecx
$LN1@scalar:
  0001f	8b c6		 mov	 eax, esi
  00021	5e		 pop	 esi
  00022	5d		 pop	 ebp
  00023	c2 04 00	 ret	 4
??_Gbad_alloc@std@@UAEPAXI@Z ENDP			; std::bad_alloc::`scalar deleting destructor'
_TEXT	ENDS
PUBLIC	??1?$_Vector_val@UAniEventInfo@@V?$allocator@UAniEventInfo@@@std@@@std@@QAE@XZ ; std::_Vector_val<AniEventInfo,std::allocator<AniEventInfo> >::~_Vector_val<AniEventInfo,std::allocator<AniEventInfo> >
; Function compile flags: /Ogsp
;	COMDAT ??1?$_Vector_val@UAniEventInfo@@V?$allocator@UAniEventInfo@@@std@@@std@@QAE@XZ
_TEXT	SEGMENT
??1?$_Vector_val@UAniEventInfo@@V?$allocator@UAniEventInfo@@@std@@@std@@QAE@XZ PROC ; std::_Vector_val<AniEventInfo,std::allocator<AniEventInfo> >::~_Vector_val<AniEventInfo,std::allocator<AniEventInfo> >, COMDAT
; _this$ = ecx

; 434  : 		}

  00000	c3		 ret	 0
??1?$_Vector_val@UAniEventInfo@@V?$allocator@UAniEventInfo@@@std@@@std@@QAE@XZ ENDP ; std::_Vector_val<AniEventInfo,std::allocator<AniEventInfo> >::~_Vector_val<AniEventInfo,std::allocator<AniEventInfo> >
_TEXT	ENDS
PUBLIC	??0?$allocator@UAniEventInfo@@@std@@QAE@XZ	; std::allocator<AniEventInfo>::allocator<AniEventInfo>
; Function compile flags: /Ogsp
; File c:\program files (x86)\microsoft visual studio 10.0\vc\include\xmemory
;	COMDAT ??0?$allocator@UAniEventInfo@@@std@@QAE@XZ
_TEXT	SEGMENT
??0?$allocator@UAniEventInfo@@@std@@QAE@XZ PROC		; std::allocator<AniEventInfo>::allocator<AniEventInfo>, COMDAT
; _this$ = ecx

; 161  : 	_ALLOCATOR() _THROW0()

  00000	8b c1		 mov	 eax, ecx

; 162  : 		{	// construct default allocator (do nothing)
; 163  : 		}

  00002	c3		 ret	 0
??0?$allocator@UAniEventInfo@@@std@@QAE@XZ ENDP		; std::allocator<AniEventInfo>::allocator<AniEventInfo>
_TEXT	ENDS
PUBLIC	?_Inside@?$vector@UtagAniSoundEventInfo@@V?$allocator@UtagAniSoundEventInfo@@@std@@@std@@IBE_NPBUtagAniSoundEventInfo@@@Z ; std::vector<tagAniSoundEventInfo,std::allocator<tagAniSoundEventInfo> >::_Inside
; Function compile flags: /Ogsp
; File c:\program files (x86)\microsoft visual studio 10.0\vc\include\vector
;	COMDAT ?_Inside@?$vector@UtagAniSoundEventInfo@@V?$allocator@UtagAniSoundEventInfo@@@std@@@std@@IBE_NPBUtagAniSoundEventInfo@@@Z
_TEXT	SEGMENT
__Ptr$ = 8						; size = 4
?_Inside@?$vector@UtagAniSoundEventInfo@@V?$allocator@UtagAniSoundEventInfo@@@std@@@std@@IBE_NPBUtagAniSoundEventInfo@@@Z PROC ; std::vector<tagAniSoundEventInfo,std::allocator<tagAniSoundEventInfo> >::_Inside, COMDAT
; _this$ = ecx

; 1285 : 		{	// test if _Ptr points inside vector

  00000	55		 push	 ebp
  00001	8b ec		 mov	 ebp, esp

; 1286 : 		return (_Ptr < this->_Mylast && this->_Myfirst <= _Ptr);

  00003	8b 45 08	 mov	 eax, DWORD PTR __Ptr$[ebp]
  00006	3b 41 04	 cmp	 eax, DWORD PTR [ecx+4]
  00009	73 09		 jae	 SHORT $LN3@Inside@2
  0000b	39 01		 cmp	 DWORD PTR [ecx], eax
  0000d	77 05		 ja	 SHORT $LN3@Inside@2
  0000f	33 c0		 xor	 eax, eax
  00011	40		 inc	 eax
  00012	eb 02		 jmp	 SHORT $LN4@Inside@2
$LN3@Inside@2:
  00014	33 c0		 xor	 eax, eax
$LN4@Inside@2:

; 1287 : 		}

  00016	5d		 pop	 ebp
  00017	c2 04 00	 ret	 4
?_Inside@?$vector@UtagAniSoundEventInfo@@V?$allocator@UtagAniSoundEventInfo@@@std@@@std@@IBE_NPBUtagAniSoundEventInfo@@@Z ENDP ; std::vector<tagAniSoundEventInfo,std::allocator<tagAniSoundEventInfo> >::_Inside
_TEXT	ENDS
PUBLIC	??2@YAPAXIPAX@Z					; operator new
; Function compile flags: /Ogsp
; File c:\program files (x86)\microsoft visual studio 10.0\vc\include\new
;	COMDAT ??2@YAPAXIPAX@Z
_TEXT	SEGMENT
___formal$ = 8						; size = 4
__Where$ = 12						; size = 4
??2@YAPAXIPAX@Z PROC					; operator new, COMDAT

; 56   : 	{	// construct array with placement at _Where

  00000	55		 push	 ebp
  00001	8b ec		 mov	 ebp, esp

; 57   : 	return (_Where);

  00003	8b 45 0c	 mov	 eax, DWORD PTR __Where$[ebp]

; 58   : 	}

  00006	5d		 pop	 ebp
  00007	c3		 ret	 0
??2@YAPAXIPAX@Z ENDP					; operator new
_TEXT	ENDS
PUBLIC	?_Orphan_range@?$vector@UtagAniSoundEventInfo@@V?$allocator@UtagAniSoundEventInfo@@@std@@@std@@IBEXPAUtagAniSoundEventInfo@@0@Z ; std::vector<tagAniSoundEventInfo,std::allocator<tagAniSoundEventInfo> >::_Orphan_range
; Function compile flags: /Ogsp
; File c:\program files (x86)\microsoft visual studio 10.0\vc\include\vector
;	COMDAT ?_Orphan_range@?$vector@UtagAniSoundEventInfo@@V?$allocator@UtagAniSoundEventInfo@@@std@@@std@@IBEXPAUtagAniSoundEventInfo@@0@Z
_TEXT	SEGMENT
___formal$ = 8						; size = 4
___formal$ = 12						; size = 4
?_Orphan_range@?$vector@UtagAniSoundEventInfo@@V?$allocator@UtagAniSoundEventInfo@@@std@@@std@@IBEXPAUtagAniSoundEventInfo@@0@Z PROC ; std::vector<tagAniSoundEventInfo,std::allocator<tagAniSoundEventInfo> >::_Orphan_range, COMDAT
; _this$ = ecx

; 1454 : 		}

  00000	c2 08 00	 ret	 8
?_Orphan_range@?$vector@UtagAniSoundEventInfo@@V?$allocator@UtagAniSoundEventInfo@@@std@@@std@@IBEXPAUtagAniSoundEventInfo@@0@Z ENDP ; std::vector<tagAniSoundEventInfo,std::allocator<tagAniSoundEventInfo> >::_Orphan_range
_TEXT	ENDS
PUBLIC	??3@YAXPAX0@Z					; operator delete
; Function compile flags: /Ogsp
; File c:\program files (x86)\microsoft visual studio 10.0\vc\include\new
;	COMDAT ??3@YAXPAX0@Z
_TEXT	SEGMENT
___formal$ = 8						; size = 4
___formal$ = 12						; size = 4
??3@YAXPAX0@Z PROC					; operator delete, COMDAT

; 62   : 	}

  00000	c3		 ret	 0
??3@YAXPAX0@Z ENDP					; operator delete
_TEXT	ENDS
PUBLIC	??1?$_Vector_val@UtagAniSoundEventInfo@@V?$allocator@UtagAniSoundEventInfo@@@std@@@std@@QAE@XZ ; std::_Vector_val<tagAniSoundEventInfo,std::allocator<tagAniSoundEventInfo> >::~_Vector_val<tagAniSoundEventInfo,std::allocator<tagAniSoundEventInfo> >
; Function compile flags: /Ogsp
; File c:\program files (x86)\microsoft visual studio 10.0\vc\include\vector
;	COMDAT ??1?$_Vector_val@UtagAniSoundEventInfo@@V?$allocator@UtagAniSoundEventInfo@@@std@@@std@@QAE@XZ
_TEXT	SEGMENT
??1?$_Vector_val@UtagAniSoundEventInfo@@V?$allocator@UtagAniSoundEventInfo@@@std@@@std@@QAE@XZ PROC ; std::_Vector_val<tagAniSoundEventInfo,std::allocator<tagAniSoundEventInfo> >::~_Vector_val<tagAniSoundEventInfo,std::allocator<tagAniSoundEventInfo> >, COMDAT
; _this$ = ecx

; 434  : 		}

  00000	c3		 ret	 0
??1?$_Vector_val@UtagAniSoundEventInfo@@V?$allocator@UtagAniSoundEventInfo@@@std@@@std@@QAE@XZ ENDP ; std::_Vector_val<tagAniSoundEventInfo,std::allocator<tagAniSoundEventInfo> >::~_Vector_val<tagAniSoundEventInfo,std::allocator<tagAniSoundEventInfo> >
_TEXT	ENDS
PUBLIC	??0?$allocator@UtagAniSoundEventInfo@@@std@@QAE@XZ ; std::allocator<tagAniSoundEventInfo>::allocator<tagAniSoundEventInfo>
; Function compile flags: /Ogsp
; File c:\program files (x86)\microsoft visual studio 10.0\vc\include\xmemory
;	COMDAT ??0?$allocator@UtagAniSoundEventInfo@@@std@@QAE@XZ
_TEXT	SEGMENT
??0?$allocator@UtagAniSoundEventInfo@@@std@@QAE@XZ PROC	; std::allocator<tagAniSoundEventInfo>::allocator<tagAniSoundEventInfo>, COMDAT
; _this$ = ecx

; 161  : 	_ALLOCATOR() _THROW0()

  00000	8b c1		 mov	 eax, ecx

; 162  : 		{	// construct default allocator (do nothing)
; 163  : 		}

  00002	c3		 ret	 0
??0?$allocator@UtagAniSoundEventInfo@@@std@@QAE@XZ ENDP	; std::allocator<tagAniSoundEventInfo>::allocator<tagAniSoundEventInfo>
_TEXT	ENDS
PUBLIC	??D?$_Vector_const_iterator@V?$_Vector_val@UAniEventInfo@@V?$allocator@UAniEventInfo@@@std@@@std@@@std@@QBEABUAniEventInfo@@XZ ; std::_Vector_const_iterator<std::_Vector_val<AniEventInfo,std::allocator<AniEventInfo> > >::operator*
; Function compile flags: /Ogsp
; File c:\program files (x86)\microsoft visual studio 10.0\vc\include\vector
;	COMDAT ??D?$_Vector_const_iterator@V?$_Vector_val@UAniEventInfo@@V?$allocator@UAniEventInfo@@@std@@@std@@@std@@QBEABUAniEventInfo@@XZ
_TEXT	SEGMENT
??D?$_Vector_const_iterator@V?$_Vector_val@UAniEventInfo@@V?$allocator@UAniEventInfo@@@std@@@std@@@std@@QBEABUAniEventInfo@@XZ PROC ; std::_Vector_const_iterator<std::_Vector_val<AniEventInfo,std::allocator<AniEventInfo> > >::operator*, COMDAT
; _this$ = ecx

; 64   :  #if _ITERATOR_DEBUG_LEVEL == 2
; 65   : 		if (this->_Getcont() == 0
; 66   : 			|| this->_Ptr == 0
; 67   : 			|| this->_Ptr < ((_Myvec *)this->_Getcont())->_Myfirst
; 68   : 			|| ((_Myvec *)this->_Getcont())->_Mylast <= this->_Ptr)
; 69   : 			{	// report error
; 70   : 			_DEBUG_ERROR("vector iterator not dereferencable");
; 71   : 			_SCL_SECURE_OUT_OF_RANGE;
; 72   : 			}
; 73   : 
; 74   :  #elif _ITERATOR_DEBUG_LEVEL == 1
; 75   : 		_SCL_SECURE_VALIDATE(this->_Getcont() != 0);
; 76   : 		_SCL_SECURE_VALIDATE_RANGE(
; 77   : 			this->_Ptr != 0
; 78   : 			&& ((_Myvec *)this->_Getcont())->_Myfirst <= this->_Ptr
; 79   : 			&& this->_Ptr < ((_Myvec *)this->_Getcont())->_Mylast);
; 80   :  #endif /* _ITERATOR_DEBUG_LEVEL */
; 81   : 
; 82   : 		__analysis_assume(this->_Ptr != 0);
; 83   : 
; 84   : 		return (*this->_Ptr);

  00000	8b 01		 mov	 eax, DWORD PTR [ecx]

; 85   : 		}

  00002	c3		 ret	 0
??D?$_Vector_const_iterator@V?$_Vector_val@UAniEventInfo@@V?$allocator@UAniEventInfo@@@std@@@std@@@std@@QBEABUAniEventInfo@@XZ ENDP ; std::_Vector_const_iterator<std::_Vector_val<AniEventInfo,std::allocator<AniEventInfo> > >::operator*
_TEXT	ENDS
PUBLIC	??E?$_Vector_const_iterator@V?$_Vector_val@UAniEventInfo@@V?$allocator@UAniEventInfo@@@std@@@std@@@std@@QAEAAV01@XZ ; std::_Vector_const_iterator<std::_Vector_val<AniEventInfo,std::allocator<AniEventInfo> > >::operator++
; Function compile flags: /Ogsp
;	COMDAT ??E?$_Vector_const_iterator@V?$_Vector_val@UAniEventInfo@@V?$allocator@UAniEventInfo@@@std@@@std@@@std@@QAEAAV01@XZ
_TEXT	SEGMENT
??E?$_Vector_const_iterator@V?$_Vector_val@UAniEventInfo@@V?$allocator@UAniEventInfo@@@std@@@std@@@std@@QAEAAV01@XZ PROC ; std::_Vector_const_iterator<std::_Vector_val<AniEventInfo,std::allocator<AniEventInfo> > >::operator++, COMDAT
; _this$ = ecx

; 93   : 		{	// preincrement

  00000	8b c1		 mov	 eax, ecx

; 94   :  #if _ITERATOR_DEBUG_LEVEL == 2
; 95   : 		if (this->_Getcont() == 0
; 96   : 			|| this->_Ptr == 0
; 97   : 			|| ((_Myvec *)this->_Getcont())->_Mylast <= this->_Ptr)
; 98   : 			{	// report error
; 99   : 			_DEBUG_ERROR("vector iterator not incrementable");
; 100  : 			_SCL_SECURE_OUT_OF_RANGE;
; 101  : 			}
; 102  : 
; 103  :  #elif _ITERATOR_DEBUG_LEVEL == 1
; 104  : 		_SCL_SECURE_VALIDATE(this->_Getcont() != 0);
; 105  : 		_SCL_SECURE_VALIDATE_RANGE(
; 106  : 			this->_Ptr != 0
; 107  : 			&& this->_Ptr < ((_Myvec *)this->_Getcont())->_Mylast);
; 108  :  #endif /* _ITERATOR_DEBUG_LEVEL */
; 109  : 
; 110  : 		++this->_Ptr;

  00002	83 00 20	 add	 DWORD PTR [eax], 32	; 00000020H

; 111  : 		return (*this);
; 112  : 		}

  00005	c3		 ret	 0
??E?$_Vector_const_iterator@V?$_Vector_val@UAniEventInfo@@V?$allocator@UAniEventInfo@@@std@@@std@@@std@@QAEAAV01@XZ ENDP ; std::_Vector_const_iterator<std::_Vector_val<AniEventInfo,std::allocator<AniEventInfo> > >::operator++
_TEXT	ENDS
PUBLIC	??D?$_Vector_const_iterator@V?$_Vector_val@UtagAniSoundEventInfo@@V?$allocator@UtagAniSoundEventInfo@@@std@@@std@@@std@@QBEABUtagAniSoundEventInfo@@XZ ; std::_Vector_const_iterator<std::_Vector_val<tagAniSoundEventInfo,std::allocator<tagAniSoundEventInfo> > >::operator*
; Function compile flags: /Ogsp
;	COMDAT ??D?$_Vector_const_iterator@V?$_Vector_val@UtagAniSoundEventInfo@@V?$allocator@UtagAniSoundEventInfo@@@std@@@std@@@std@@QBEABUtagAniSoundEventInfo@@XZ
_TEXT	SEGMENT
??D?$_Vector_const_iterator@V?$_Vector_val@UtagAniSoundEventInfo@@V?$allocator@UtagAniSoundEventInfo@@@std@@@std@@@std@@QBEABUtagAniSoundEventInfo@@XZ PROC ; std::_Vector_const_iterator<std::_Vector_val<tagAniSoundEventInfo,std::allocator<tagAniSoundEventInfo> > >::operator*, COMDAT
; _this$ = ecx

; 64   :  #if _ITERATOR_DEBUG_LEVEL == 2
; 65   : 		if (this->_Getcont() == 0
; 66   : 			|| this->_Ptr == 0
; 67   : 			|| this->_Ptr < ((_Myvec *)this->_Getcont())->_Myfirst
; 68   : 			|| ((_Myvec *)this->_Getcont())->_Mylast <= this->_Ptr)
; 69   : 			{	// report error
; 70   : 			_DEBUG_ERROR("vector iterator not dereferencable");
; 71   : 			_SCL_SECURE_OUT_OF_RANGE;
; 72   : 			}
; 73   : 
; 74   :  #elif _ITERATOR_DEBUG_LEVEL == 1
; 75   : 		_SCL_SECURE_VALIDATE(this->_Getcont() != 0);
; 76   : 		_SCL_SECURE_VALIDATE_RANGE(
; 77   : 			this->_Ptr != 0
; 78   : 			&& ((_Myvec *)this->_Getcont())->_Myfirst <= this->_Ptr
; 79   : 			&& this->_Ptr < ((_Myvec *)this->_Getcont())->_Mylast);
; 80   :  #endif /* _ITERATOR_DEBUG_LEVEL */
; 81   : 
; 82   : 		__analysis_assume(this->_Ptr != 0);
; 83   : 
; 84   : 		return (*this->_Ptr);

  00000	8b 01		 mov	 eax, DWORD PTR [ecx]

; 85   : 		}

  00002	c3		 ret	 0
??D?$_Vector_const_iterator@V?$_Vector_val@UtagAniSoundEventInfo@@V?$allocator@UtagAniSoundEventInfo@@@std@@@std@@@std@@QBEABUtagAniSoundEventInfo@@XZ ENDP ; std::_Vector_const_iterator<std::_Vector_val<tagAniSoundEventInfo,std::allocator<tagAniSoundEventInfo> > >::operator*
_TEXT	ENDS
PUBLIC	??E?$_Vector_const_iterator@V?$_Vector_val@UtagAniSoundEventInfo@@V?$allocator@UtagAniSoundEventInfo@@@std@@@std@@@std@@QAEAAV01@XZ ; std::_Vector_const_iterator<std::_Vector_val<tagAniSoundEventInfo,std::allocator<tagAniSoundEventInfo> > >::operator++
; Function compile flags: /Ogsp
;	COMDAT ??E?$_Vector_const_iterator@V?$_Vector_val@UtagAniSoundEventInfo@@V?$allocator@UtagAniSoundEventInfo@@@std@@@std@@@std@@QAEAAV01@XZ
_TEXT	SEGMENT
??E?$_Vector_const_iterator@V?$_Vector_val@UtagAniSoundEventInfo@@V?$allocator@UtagAniSoundEventInfo@@@std@@@std@@@std@@QAEAAV01@XZ PROC ; std::_Vector_const_iterator<std::_Vector_val<tagAniSoundEventInfo,std::allocator<tagAniSoundEventInfo> > >::operator++, COMDAT
; _this$ = ecx

; 93   : 		{	// preincrement

  00000	8b c1		 mov	 eax, ecx

; 94   :  #if _ITERATOR_DEBUG_LEVEL == 2
; 95   : 		if (this->_Getcont() == 0
; 96   : 			|| this->_Ptr == 0
; 97   : 			|| ((_Myvec *)this->_Getcont())->_Mylast <= this->_Ptr)
; 98   : 			{	// report error
; 99   : 			_DEBUG_ERROR("vector iterator not incrementable");
; 100  : 			_SCL_SECURE_OUT_OF_RANGE;
; 101  : 			}
; 102  : 
; 103  :  #elif _ITERATOR_DEBUG_LEVEL == 1
; 104  : 		_SCL_SECURE_VALIDATE(this->_Getcont() != 0);
; 105  : 		_SCL_SECURE_VALIDATE_RANGE(
; 106  : 			this->_Ptr != 0
; 107  : 			&& this->_Ptr < ((_Myvec *)this->_Getcont())->_Mylast);
; 108  :  #endif /* _ITERATOR_DEBUG_LEVEL */
; 109  : 
; 110  : 		++this->_Ptr;

  00002	83 00 24	 add	 DWORD PTR [eax], 36	; 00000024H

; 111  : 		return (*this);
; 112  : 		}

  00005	c3		 ret	 0
??E?$_Vector_const_iterator@V?$_Vector_val@UtagAniSoundEventInfo@@V?$allocator@UtagAniSoundEventInfo@@@std@@@std@@@std@@QAEAAV01@XZ ENDP ; std::_Vector_const_iterator<std::_Vector_val<tagAniSoundEventInfo,std::allocator<tagAniSoundEventInfo> > >::operator++
_TEXT	ENDS
PUBLIC	?capacity@?$vector@UAniEventInfo@@V?$allocator@UAniEventInfo@@@std@@@std@@QBEIXZ ; std::vector<AniEventInfo,std::allocator<AniEventInfo> >::capacity
; Function compile flags: /Ogsp
;	COMDAT ?capacity@?$vector@UAniEventInfo@@V?$allocator@UAniEventInfo@@@std@@@std@@QBEIXZ
_TEXT	SEGMENT
?capacity@?$vector@UAniEventInfo@@V?$allocator@UAniEventInfo@@@std@@@std@@QBEIXZ PROC ; std::vector<AniEventInfo,std::allocator<AniEventInfo> >::capacity, COMDAT
; _this$ = ecx

; 777  : 		return (this->_Myend - this->_Myfirst);

  00000	8b 41 08	 mov	 eax, DWORD PTR [ecx+8]
  00003	2b 01		 sub	 eax, DWORD PTR [ecx]
  00005	c1 f8 05	 sar	 eax, 5

; 778  : 		}

  00008	c3		 ret	 0
?capacity@?$vector@UAniEventInfo@@V?$allocator@UAniEventInfo@@@std@@@std@@QBEIXZ ENDP ; std::vector<AniEventInfo,std::allocator<AniEventInfo> >::capacity
_TEXT	ENDS
PUBLIC	?size@?$vector@UAniEventInfo@@V?$allocator@UAniEventInfo@@@std@@@std@@QBEIXZ ; std::vector<AniEventInfo,std::allocator<AniEventInfo> >::size
; Function compile flags: /Ogsp
;	COMDAT ?size@?$vector@UAniEventInfo@@V?$allocator@UAniEventInfo@@@std@@@std@@QBEIXZ
_TEXT	SEGMENT
?size@?$vector@UAniEventInfo@@V?$allocator@UAniEventInfo@@@std@@@std@@QBEIXZ PROC ; std::vector<AniEventInfo,std::allocator<AniEventInfo> >::size, COMDAT
; _this$ = ecx

; 879  : 		return (this->_Mylast - this->_Myfirst);

  00000	8b 41 04	 mov	 eax, DWORD PTR [ecx+4]
  00003	2b 01		 sub	 eax, DWORD PTR [ecx]
  00005	c1 f8 05	 sar	 eax, 5

; 880  : 		}

  00008	c3		 ret	 0
?size@?$vector@UAniEventInfo@@V?$allocator@UAniEventInfo@@@std@@@std@@QBEIXZ ENDP ; std::vector<AniEventInfo,std::allocator<AniEventInfo> >::size
_TEXT	ENDS
PUBLIC	??_C@_0BD@OLBABOEK@vector?$DMT?$DO?5too?5long?$AA@ ; `string'
PUBLIC	?_Xlen@?$vector@UAniEventInfo@@V?$allocator@UAniEventInfo@@@std@@@std@@IBEXXZ ; std::vector<AniEventInfo,std::allocator<AniEventInfo> >::_Xlen
EXTRN	__imp_?_Xlength_error@std@@YAXPBD@Z:PROC
;	COMDAT ??_C@_0BD@OLBABOEK@vector?$DMT?$DO?5too?5long?$AA@
CONST	SEGMENT
??_C@_0BD@OLBABOEK@vector?$DMT?$DO?5too?5long?$AA@ DB 'vector<T> too long'
	DB	00H						; `string'
; Function compile flags: /Ogsp
CONST	ENDS
;	COMDAT ?_Xlen@?$vector@UAniEventInfo@@V?$allocator@UAniEventInfo@@@std@@@std@@IBEXXZ
_TEXT	SEGMENT
?_Xlen@?$vector@UAniEventInfo@@V?$allocator@UAniEventInfo@@@std@@@std@@IBEXXZ PROC ; std::vector<AniEventInfo,std::allocator<AniEventInfo> >::_Xlen, COMDAT
; _this$ = ecx

; 1427 : 		_Xlength_error("vector<T> too long");

  00000	68 00 00 00 00	 push	 OFFSET ??_C@_0BD@OLBABOEK@vector?$DMT?$DO?5too?5long?$AA@
  00005	ff 15 00 00 00
	00		 call	 DWORD PTR __imp_?_Xlength_error@std@@YAXPBD@Z
$LN4@Xlen:
$LN3@Xlen:
  0000b	cc		 int	 3
?_Xlen@?$vector@UAniEventInfo@@V?$allocator@UAniEventInfo@@@std@@@std@@IBEXXZ ENDP ; std::vector<AniEventInfo,std::allocator<AniEventInfo> >::_Xlen
_TEXT	ENDS
PUBLIC	??0?$allocator@UAniEventInfo@@@std@@QAE@ABV01@@Z ; std::allocator<AniEventInfo>::allocator<AniEventInfo>
; Function compile flags: /Ogsp
; File c:\program files (x86)\microsoft visual studio 10.0\vc\include\xmemory
;	COMDAT ??0?$allocator@UAniEventInfo@@@std@@QAE@ABV01@@Z
_TEXT	SEGMENT
___formal$ = 8						; size = 4
??0?$allocator@UAniEventInfo@@@std@@QAE@ABV01@@Z PROC	; std::allocator<AniEventInfo>::allocator<AniEventInfo>, COMDAT
; _this$ = ecx

; 165  : 	_ALLOCATOR(const _ALLOCATOR<_Ty>&) _THROW0()

  00000	8b c1		 mov	 eax, ecx

; 166  : 		{	// construct by copying (do nothing)
; 167  : 		}

  00002	c2 04 00	 ret	 4
??0?$allocator@UAniEventInfo@@@std@@QAE@ABV01@@Z ENDP	; std::allocator<AniEventInfo>::allocator<AniEventInfo>
_TEXT	ENDS
PUBLIC	?deallocate@?$allocator@UAniEventInfo@@@std@@QAEXPAUAniEventInfo@@I@Z ; std::allocator<AniEventInfo>::deallocate
; Function compile flags: /Ogsp
;	COMDAT ?deallocate@?$allocator@UAniEventInfo@@@std@@QAEXPAUAniEventInfo@@I@Z
_TEXT	SEGMENT
__Ptr$ = 8						; size = 4
___formal$ = 12						; size = 4
?deallocate@?$allocator@UAniEventInfo@@@std@@QAEXPAUAniEventInfo@@I@Z PROC ; std::allocator<AniEventInfo>::deallocate, COMDAT
; _this$ = ecx

; 181  : 		{	// deallocate object at _Ptr, ignore size

  00000	55		 push	 ebp
  00001	8b ec		 mov	 ebp, esp

; 182  : 		::operator delete(_Ptr);

  00003	ff 75 08	 push	 DWORD PTR __Ptr$[ebp]
  00006	e8 00 00 00 00	 call	 ??3@YAXPAX@Z		; operator delete
  0000b	59		 pop	 ecx

; 183  : 		}

  0000c	5d		 pop	 ebp
  0000d	c2 08 00	 ret	 8
?deallocate@?$allocator@UAniEventInfo@@@std@@QAEXPAUAniEventInfo@@I@Z ENDP ; std::allocator<AniEventInfo>::deallocate
_TEXT	ENDS
PUBLIC	?capacity@?$vector@UtagAniSoundEventInfo@@V?$allocator@UtagAniSoundEventInfo@@@std@@@std@@QBEIXZ ; std::vector<tagAniSoundEventInfo,std::allocator<tagAniSoundEventInfo> >::capacity
; Function compile flags: /Ogsp
; File c:\program files (x86)\microsoft visual studio 10.0\vc\include\vector
;	COMDAT ?capacity@?$vector@UtagAniSoundEventInfo@@V?$allocator@UtagAniSoundEventInfo@@@std@@@std@@QBEIXZ
_TEXT	SEGMENT
?capacity@?$vector@UtagAniSoundEventInfo@@V?$allocator@UtagAniSoundEventInfo@@@std@@@std@@QBEIXZ PROC ; std::vector<tagAniSoundEventInfo,std::allocator<tagAniSoundEventInfo> >::capacity, COMDAT
; _this$ = ecx

; 777  : 		return (this->_Myend - this->_Myfirst);

  00000	8b 41 08	 mov	 eax, DWORD PTR [ecx+8]
  00003	2b 01		 sub	 eax, DWORD PTR [ecx]
  00005	6a 24		 push	 36			; 00000024H
  00007	99		 cdq
  00008	59		 pop	 ecx
  00009	f7 f9		 idiv	 ecx

; 778  : 		}

  0000b	c3		 ret	 0
?capacity@?$vector@UtagAniSoundEventInfo@@V?$allocator@UtagAniSoundEventInfo@@@std@@@std@@QBEIXZ ENDP ; std::vector<tagAniSoundEventInfo,std::allocator<tagAniSoundEventInfo> >::capacity
_TEXT	ENDS
PUBLIC	?size@?$vector@UtagAniSoundEventInfo@@V?$allocator@UtagAniSoundEventInfo@@@std@@@std@@QBEIXZ ; std::vector<tagAniSoundEventInfo,std::allocator<tagAniSoundEventInfo> >::size
; Function compile flags: /Ogsp
;	COMDAT ?size@?$vector@UtagAniSoundEventInfo@@V?$allocator@UtagAniSoundEventInfo@@@std@@@std@@QBEIXZ
_TEXT	SEGMENT
?size@?$vector@UtagAniSoundEventInfo@@V?$allocator@UtagAniSoundEventInfo@@@std@@@std@@QBEIXZ PROC ; std::vector<tagAniSoundEventInfo,std::allocator<tagAniSoundEventInfo> >::size, COMDAT
; _this$ = ecx

; 879  : 		return (this->_Mylast - this->_Myfirst);

  00000	8b 41 04	 mov	 eax, DWORD PTR [ecx+4]
  00003	2b 01		 sub	 eax, DWORD PTR [ecx]
  00005	6a 24		 push	 36			; 00000024H
  00007	99		 cdq
  00008	59		 pop	 ecx
  00009	f7 f9		 idiv	 ecx

; 880  : 		}

  0000b	c3		 ret	 0
?size@?$vector@UtagAniSoundEventInfo@@V?$allocator@UtagAniSoundEventInfo@@@std@@@std@@QBEIXZ ENDP ; std::vector<tagAniSoundEventInfo,std::allocator<tagAniSoundEventInfo> >::size
_TEXT	ENDS
PUBLIC	?_Xlen@?$vector@UtagAniSoundEventInfo@@V?$allocator@UtagAniSoundEventInfo@@@std@@@std@@IBEXXZ ; std::vector<tagAniSoundEventInfo,std::allocator<tagAniSoundEventInfo> >::_Xlen
; Function compile flags: /Ogsp
;	COMDAT ?_Xlen@?$vector@UtagAniSoundEventInfo@@V?$allocator@UtagAniSoundEventInfo@@@std@@@std@@IBEXXZ
_TEXT	SEGMENT
?_Xlen@?$vector@UtagAniSoundEventInfo@@V?$allocator@UtagAniSoundEventInfo@@@std@@@std@@IBEXXZ PROC ; std::vector<tagAniSoundEventInfo,std::allocator<tagAniSoundEventInfo> >::_Xlen, COMDAT
; _this$ = ecx

; 1427 : 		_Xlength_error("vector<T> too long");

  00000	68 00 00 00 00	 push	 OFFSET ??_C@_0BD@OLBABOEK@vector?$DMT?$DO?5too?5long?$AA@
  00005	ff 15 00 00 00
	00		 call	 DWORD PTR __imp_?_Xlength_error@std@@YAXPBD@Z
$LN4@Xlen@2:
$LN3@Xlen@2:
  0000b	cc		 int	 3
?_Xlen@?$vector@UtagAniSoundEventInfo@@V?$allocator@UtagAniSoundEventInfo@@@std@@@std@@IBEXXZ ENDP ; std::vector<tagAniSoundEventInfo,std::allocator<tagAniSoundEventInfo> >::_Xlen
_TEXT	ENDS
PUBLIC	??0?$allocator@UtagAniSoundEventInfo@@@std@@QAE@ABV01@@Z ; std::allocator<tagAniSoundEventInfo>::allocator<tagAniSoundEventInfo>
; Function compile flags: /Ogsp
; File c:\program files (x86)\microsoft visual studio 10.0\vc\include\xmemory
;	COMDAT ??0?$allocator@UtagAniSoundEventInfo@@@std@@QAE@ABV01@@Z
_TEXT	SEGMENT
___formal$ = 8						; size = 4
??0?$allocator@UtagAniSoundEventInfo@@@std@@QAE@ABV01@@Z PROC ; std::allocator<tagAniSoundEventInfo>::allocator<tagAniSoundEventInfo>, COMDAT
; _this$ = ecx

; 165  : 	_ALLOCATOR(const _ALLOCATOR<_Ty>&) _THROW0()

  00000	8b c1		 mov	 eax, ecx

; 166  : 		{	// construct by copying (do nothing)
; 167  : 		}

  00002	c2 04 00	 ret	 4
??0?$allocator@UtagAniSoundEventInfo@@@std@@QAE@ABV01@@Z ENDP ; std::allocator<tagAniSoundEventInfo>::allocator<tagAniSoundEventInfo>
_TEXT	ENDS
PUBLIC	?deallocate@?$allocator@UtagAniSoundEventInfo@@@std@@QAEXPAUtagAniSoundEventInfo@@I@Z ; std::allocator<tagAniSoundEventInfo>::deallocate
; Function compile flags: /Ogsp
;	COMDAT ?deallocate@?$allocator@UtagAniSoundEventInfo@@@std@@QAEXPAUtagAniSoundEventInfo@@I@Z
_TEXT	SEGMENT
__Ptr$ = 8						; size = 4
___formal$ = 12						; size = 4
?deallocate@?$allocator@UtagAniSoundEventInfo@@@std@@QAEXPAUtagAniSoundEventInfo@@I@Z PROC ; std::allocator<tagAniSoundEventInfo>::deallocate, COMDAT
; _this$ = ecx

; 181  : 		{	// deallocate object at _Ptr, ignore size

  00000	55		 push	 ebp
  00001	8b ec		 mov	 ebp, esp

; 182  : 		::operator delete(_Ptr);

  00003	ff 75 08	 push	 DWORD PTR __Ptr$[ebp]
  00006	e8 00 00 00 00	 call	 ??3@YAXPAX@Z		; operator delete
  0000b	59		 pop	 ecx

; 183  : 		}

  0000c	5d		 pop	 ebp
  0000d	c2 08 00	 ret	 8
?deallocate@?$allocator@UtagAniSoundEventInfo@@@std@@QAEXPAUtagAniSoundEventInfo@@I@Z ENDP ; std::allocator<tagAniSoundEventInfo>::deallocate
_TEXT	ENDS
PUBLIC	?_Compat@?$_Vector_const_iterator@V?$_Vector_val@UAniEventInfo@@V?$allocator@UAniEventInfo@@@std@@@std@@@std@@QBEXABV12@@Z ; std::_Vector_const_iterator<std::_Vector_val<AniEventInfo,std::allocator<AniEventInfo> > >::_Compat
; Function compile flags: /Ogsp
; File c:\program files (x86)\microsoft visual studio 10.0\vc\include\vector
;	COMDAT ?_Compat@?$_Vector_const_iterator@V?$_Vector_val@UAniEventInfo@@V?$allocator@UAniEventInfo@@@std@@@std@@@std@@QBEXABV12@@Z
_TEXT	SEGMENT
___formal$ = 8						; size = 4
?_Compat@?$_Vector_const_iterator@V?$_Vector_val@UAniEventInfo@@V?$allocator@UAniEventInfo@@@std@@@std@@@std@@QBEXABV12@@Z PROC ; std::_Vector_const_iterator<std::_Vector_val<AniEventInfo,std::allocator<AniEventInfo> > >::_Compat, COMDAT
; _this$ = ecx

; 253  : 		}

  00000	c2 04 00	 ret	 4
?_Compat@?$_Vector_const_iterator@V?$_Vector_val@UAniEventInfo@@V?$allocator@UAniEventInfo@@@std@@@std@@@std@@QBEXABV12@@Z ENDP ; std::_Vector_const_iterator<std::_Vector_val<AniEventInfo,std::allocator<AniEventInfo> > >::_Compat
_TEXT	ENDS
PUBLIC	?_Compat@?$_Vector_const_iterator@V?$_Vector_val@UtagAniSoundEventInfo@@V?$allocator@UtagAniSoundEventInfo@@@std@@@std@@@std@@QBEXABV12@@Z ; std::_Vector_const_iterator<std::_Vector_val<tagAniSoundEventInfo,std::allocator<tagAniSoundEventInfo> > >::_Compat
; Function compile flags: /Ogsp
;	COMDAT ?_Compat@?$_Vector_const_iterator@V?$_Vector_val@UtagAniSoundEventInfo@@V?$allocator@UtagAniSoundEventInfo@@@std@@@std@@@std@@QBEXABV12@@Z
_TEXT	SEGMENT
___formal$ = 8						; size = 4
?_Compat@?$_Vector_const_iterator@V?$_Vector_val@UtagAniSoundEventInfo@@V?$allocator@UtagAniSoundEventInfo@@@std@@@std@@@std@@QBEXABV12@@Z PROC ; std::_Vector_const_iterator<std::_Vector_val<tagAniSoundEventInfo,std::allocator<tagAniSoundEventInfo> > >::_Compat, COMDAT
; _this$ = ecx

; 253  : 		}

  00000	c2 04 00	 ret	 4
?_Compat@?$_Vector_const_iterator@V?$_Vector_val@UtagAniSoundEventInfo@@V?$allocator@UtagAniSoundEventInfo@@@std@@@std@@@std@@QBEXABV12@@Z ENDP ; std::_Vector_const_iterator<std::_Vector_val<tagAniSoundEventInfo,std::allocator<tagAniSoundEventInfo> > >::_Compat
_TEXT	ENDS
PUBLIC	?max_size@?$allocator@UAniEventInfo@@@std@@QBEIXZ ; std::allocator<AniEventInfo>::max_size
; Function compile flags: /Ogsp
; File c:\program files (x86)\microsoft visual studio 10.0\vc\include\xmemory
;	COMDAT ?max_size@?$allocator@UAniEventInfo@@@std@@QBEIXZ
_TEXT	SEGMENT
?max_size@?$allocator@UAniEventInfo@@@std@@QBEIXZ PROC	; std::allocator<AniEventInfo>::max_size, COMDAT
; _this$ = ecx

; 218  : 		_SIZT _Count = (_SIZT)(-1) / sizeof (_Ty);
; 219  : 		return (0 < _Count ? _Count : 1);

  00000	b8 ff ff ff 07	 mov	 eax, 134217727		; 07ffffffH

; 220  : 		}

  00005	c3		 ret	 0
?max_size@?$allocator@UAniEventInfo@@@std@@QBEIXZ ENDP	; std::allocator<AniEventInfo>::max_size
_TEXT	ENDS
PUBLIC	?max_size@?$allocator@UtagAniSoundEventInfo@@@std@@QBEIXZ ; std::allocator<tagAniSoundEventInfo>::max_size
; Function compile flags: /Ogsp
;	COMDAT ?max_size@?$allocator@UtagAniSoundEventInfo@@@std@@QBEIXZ
_TEXT	SEGMENT
?max_size@?$allocator@UtagAniSoundEventInfo@@@std@@QBEIXZ PROC ; std::allocator<tagAniSoundEventInfo>::max_size, COMDAT
; _this$ = ecx

; 218  : 		_SIZT _Count = (_SIZT)(-1) / sizeof (_Ty);
; 219  : 		return (0 < _Count ? _Count : 1);

  00000	b8 c7 71 1c 07	 mov	 eax, 119304647		; 071c71c7H

; 220  : 		}

  00005	c3		 ret	 0
?max_size@?$allocator@UtagAniSoundEventInfo@@@std@@QBEIXZ ENDP ; std::allocator<tagAniSoundEventInfo>::max_size
_TEXT	ENDS
PUBLIC	??$addressof@$$CBUAniEventInfo@@@std@@YAPBUAniEventInfo@@ABU1@@Z ; std::addressof<AniEventInfo const >
; Function compile flags: /Ogsp
;	COMDAT ??$addressof@$$CBUAniEventInfo@@@std@@YAPBUAniEventInfo@@ABU1@@Z
_TEXT	SEGMENT
__Val$ = 8						; size = 4
??$addressof@$$CBUAniEventInfo@@@std@@YAPBUAniEventInfo@@ABU1@@Z PROC ; std::addressof<AniEventInfo const >, COMDAT

; 110  : 	{	// return address of _Val

  00000	55		 push	 ebp
  00001	8b ec		 mov	 ebp, esp

; 111  : 	return ((_Ty *) &(char&)_Val);

  00003	8b 45 08	 mov	 eax, DWORD PTR __Val$[ebp]

; 112  : 	}

  00006	5d		 pop	 ebp
  00007	c3		 ret	 0
??$addressof@$$CBUAniEventInfo@@@std@@YAPBUAniEventInfo@@ABU1@@Z ENDP ; std::addressof<AniEventInfo const >
_TEXT	ENDS
PUBLIC	??$addressof@$$CBUtagAniSoundEventInfo@@@std@@YAPBUtagAniSoundEventInfo@@ABU1@@Z ; std::addressof<tagAniSoundEventInfo const >
; Function compile flags: /Ogsp
;	COMDAT ??$addressof@$$CBUtagAniSoundEventInfo@@@std@@YAPBUtagAniSoundEventInfo@@ABU1@@Z
_TEXT	SEGMENT
__Val$ = 8						; size = 4
??$addressof@$$CBUtagAniSoundEventInfo@@@std@@YAPBUtagAniSoundEventInfo@@ABU1@@Z PROC ; std::addressof<tagAniSoundEventInfo const >, COMDAT

; 110  : 	{	// return address of _Val

  00000	55		 push	 ebp
  00001	8b ec		 mov	 ebp, esp

; 111  : 	return ((_Ty *) &(char&)_Val);

  00003	8b 45 08	 mov	 eax, DWORD PTR __Val$[ebp]

; 112  : 	}

  00006	5d		 pop	 ebp
  00007	c3		 ret	 0
??$addressof@$$CBUtagAniSoundEventInfo@@@std@@YAPBUtagAniSoundEventInfo@@ABU1@@Z ENDP ; std::addressof<tagAniSoundEventInfo const >
_TEXT	ENDS
PUBLIC	?_Adopt@_Iterator_base0@std@@QAEXPBX@Z		; std::_Iterator_base0::_Adopt
; Function compile flags: /Ogsp
; File c:\program files (x86)\microsoft visual studio 10.0\vc\include\xutility
;	COMDAT ?_Adopt@_Iterator_base0@std@@QAEXPBX@Z
_TEXT	SEGMENT
___formal$ = 8						; size = 4
?_Adopt@_Iterator_base0@std@@QAEXPBX@Z PROC		; std::_Iterator_base0::_Adopt, COMDAT
; _this$ = ecx

; 49   : 		}

  00000	c2 04 00	 ret	 4
?_Adopt@_Iterator_base0@std@@QAEXPBX@Z ENDP		; std::_Iterator_base0::_Adopt
_TEXT	ENDS
PUBLIC	__TI2?AVbad_alloc@std@@
PUBLIC	??$_Allocate@UAniEventInfo@@@std@@YAPAUAniEventInfo@@IPAU1@@Z ; std::_Allocate<AniEventInfo>
PUBLIC	__CTA2?AVbad_alloc@std@@
PUBLIC	__CT??_R0?AVbad_alloc@std@@@8??0bad_alloc@std@@QAE@ABV01@@Z12
PUBLIC	??0bad_alloc@std@@QAE@ABV01@@Z			; std::bad_alloc::bad_alloc
PUBLIC	__CT??_R0?AVexception@std@@@8??0exception@std@@QAE@ABV01@@Z12
EXTRN	??2@YAPAXI@Z:PROC				; operator new
EXTRN	__CxxThrowException@8:PROC
EXTRN	??0exception@std@@QAE@ABV01@@Z:PROC		; std::exception::exception
;	COMDAT __CT??_R0?AVexception@std@@@8??0exception@std@@QAE@ABV01@@Z12
; File c:\program files (x86)\microsoft visual studio 10.0\vc\include\exception
xdata$x	SEGMENT
__CT??_R0?AVexception@std@@@8??0exception@std@@QAE@ABV01@@Z12 DD 00H
	DD	FLAT:??_R0?AVexception@std@@@8
	DD	00H
	DD	0ffffffffH
	ORG $+4
	DD	0cH
	DD	FLAT:??0exception@std@@QAE@ABV01@@Z
xdata$x	ENDS
;	COMDAT __CT??_R0?AVbad_alloc@std@@@8??0bad_alloc@std@@QAE@ABV01@@Z12
xdata$x	SEGMENT
__CT??_R0?AVbad_alloc@std@@@8??0bad_alloc@std@@QAE@ABV01@@Z12 DD 00H
	DD	FLAT:??_R0?AVbad_alloc@std@@@8
	DD	00H
	DD	0ffffffffH
	ORG $+4
	DD	0cH
	DD	FLAT:??0bad_alloc@std@@QAE@ABV01@@Z
xdata$x	ENDS
;	COMDAT __CTA2?AVbad_alloc@std@@
xdata$x	SEGMENT
__CTA2?AVbad_alloc@std@@ DD 02H
	DD	FLAT:__CT??_R0?AVbad_alloc@std@@@8??0bad_alloc@std@@QAE@ABV01@@Z12
	DD	FLAT:__CT??_R0?AVexception@std@@@8??0exception@std@@QAE@ABV01@@Z12
xdata$x	ENDS
;	COMDAT __TI2?AVbad_alloc@std@@
xdata$x	SEGMENT
__TI2?AVbad_alloc@std@@ DD 00H
	DD	FLAT:??1bad_alloc@std@@UAE@XZ
	DD	00H
	DD	FLAT:__CTA2?AVbad_alloc@std@@
; Function compile flags: /Ogsp
; File c:\program files (x86)\microsoft visual studio 10.0\vc\include\xmemory
xdata$x	ENDS
;	COMDAT ??$_Allocate@UAniEventInfo@@@std@@YAPAUAniEventInfo@@IPAU1@@Z
_TEXT	SEGMENT
$T507966 = -12						; size = 12
$T507971 = 8						; size = 4
__Count$ = 8						; size = 4
___formal$ = 12						; size = 4
??$_Allocate@UAniEventInfo@@@std@@YAPAUAniEventInfo@@IPAU1@@Z PROC ; std::_Allocate<AniEventInfo>, COMDAT

; 30   : 	{	// allocate storage for _Count elements of type _Ty

  00000	55		 push	 ebp
  00001	8b ec		 mov	 ebp, esp

; 31   : 	void *_Ptr = 0;
; 32   : 
; 33   : 	if (_Count <= 0)

  00003	8b 4d 08	 mov	 ecx, DWORD PTR __Count$[ebp]
  00006	83 ec 0c	 sub	 esp, 12			; 0000000cH
  00009	33 c0		 xor	 eax, eax
  0000b	85 c9		 test	 ecx, ecx

; 34   : 		_Count = 0;
; 35   : 	else if (((_SIZT)(-1) / sizeof (_Ty) < _Count)

  0000d	74 3c		 je	 SHORT $LN5@Allocate

; 36   : 		|| (_Ptr = ::operator new(_Count * sizeof (_Ty))) == 0)

  0000f	81 f9 ff ff ff
	07		 cmp	 ecx, 134217727		; 07ffffffH
  00015	77 0e		 ja	 SHORT $LN1@Allocate
  00017	c1 e1 05	 shl	 ecx, 5
  0001a	51		 push	 ecx
  0001b	e8 00 00 00 00	 call	 ??2@YAPAXI@Z		; operator new
  00020	59		 pop	 ecx
  00021	85 c0		 test	 eax, eax

; 38   : 
; 39   : 	return ((_Ty _FARQ *)_Ptr);

  00023	75 26		 jne	 SHORT $LN5@Allocate
$LN1@Allocate:

; 37   : 		_THROW_NCEE(bad_alloc, 0);

  00025	83 65 08 00	 and	 DWORD PTR $T507971[ebp], 0
  00029	8d 45 08	 lea	 eax, DWORD PTR $T507971[ebp]
  0002c	50		 push	 eax
  0002d	8d 4d f4	 lea	 ecx, DWORD PTR $T507966[ebp]
  00030	ff 15 00 00 00
	00		 call	 DWORD PTR __imp_??0exception@std@@QAE@ABQBD@Z
  00036	68 00 00 00 00	 push	 OFFSET __TI2?AVbad_alloc@std@@
  0003b	8d 45 f4	 lea	 eax, DWORD PTR $T507966[ebp]
  0003e	50		 push	 eax
  0003f	c7 45 f4 00 00
	00 00		 mov	 DWORD PTR $T507966[ebp], OFFSET ??_7bad_alloc@std@@6B@
  00046	e8 00 00 00 00	 call	 __CxxThrowException@8
$LN10@Allocate:
$LN5@Allocate:

; 40   : 	}

  0004b	c9		 leave
  0004c	c3		 ret	 0
$LN9@Allocate:
??$_Allocate@UAniEventInfo@@@std@@YAPAUAniEventInfo@@IPAU1@@Z ENDP ; std::_Allocate<AniEventInfo>
_TEXT	ENDS
PUBLIC	??$_Allocate@UtagAniSoundEventInfo@@@std@@YAPAUtagAniSoundEventInfo@@IPAU1@@Z ; std::_Allocate<tagAniSoundEventInfo>
; Function compile flags: /Ogsp
;	COMDAT ??$_Allocate@UtagAniSoundEventInfo@@@std@@YAPAUtagAniSoundEventInfo@@IPAU1@@Z
_TEXT	SEGMENT
$T507976 = -12						; size = 12
$T507980 = 8						; size = 4
__Count$ = 8						; size = 4
___formal$ = 12						; size = 4
??$_Allocate@UtagAniSoundEventInfo@@@std@@YAPAUtagAniSoundEventInfo@@IPAU1@@Z PROC ; std::_Allocate<tagAniSoundEventInfo>, COMDAT

; 30   : 	{	// allocate storage for _Count elements of type _Ty

  00000	55		 push	 ebp
  00001	8b ec		 mov	 ebp, esp

; 31   : 	void *_Ptr = 0;
; 32   : 
; 33   : 	if (_Count <= 0)

  00003	8b 4d 08	 mov	 ecx, DWORD PTR __Count$[ebp]
  00006	83 ec 0c	 sub	 esp, 12			; 0000000cH
  00009	33 c0		 xor	 eax, eax
  0000b	85 c9		 test	 ecx, ecx

; 34   : 		_Count = 0;
; 35   : 	else if (((_SIZT)(-1) / sizeof (_Ty) < _Count)

  0000d	74 3c		 je	 SHORT $LN5@Allocate@2

; 36   : 		|| (_Ptr = ::operator new(_Count * sizeof (_Ty))) == 0)

  0000f	81 f9 c7 71 1c
	07		 cmp	 ecx, 119304647		; 071c71c7H
  00015	77 0e		 ja	 SHORT $LN1@Allocate@2
  00017	6b c9 24	 imul	 ecx, 36			; 00000024H
  0001a	51		 push	 ecx
  0001b	e8 00 00 00 00	 call	 ??2@YAPAXI@Z		; operator new
  00020	59		 pop	 ecx
  00021	85 c0		 test	 eax, eax

; 38   : 
; 39   : 	return ((_Ty _FARQ *)_Ptr);

  00023	75 26		 jne	 SHORT $LN5@Allocate@2
$LN1@Allocate@2:

; 37   : 		_THROW_NCEE(bad_alloc, 0);

  00025	83 65 08 00	 and	 DWORD PTR $T507980[ebp], 0
  00029	8d 45 08	 lea	 eax, DWORD PTR $T507980[ebp]
  0002c	50		 push	 eax
  0002d	8d 4d f4	 lea	 ecx, DWORD PTR $T507976[ebp]
  00030	ff 15 00 00 00
	00		 call	 DWORD PTR __imp_??0exception@std@@QAE@ABQBD@Z
  00036	68 00 00 00 00	 push	 OFFSET __TI2?AVbad_alloc@std@@
  0003b	8d 45 f4	 lea	 eax, DWORD PTR $T507976[ebp]
  0003e	50		 push	 eax
  0003f	c7 45 f4 00 00
	00 00		 mov	 DWORD PTR $T507976[ebp], OFFSET ??_7bad_alloc@std@@6B@
  00046	e8 00 00 00 00	 call	 __CxxThrowException@8
$LN10@Allocate@2:
$LN5@Allocate@2:

; 40   : 	}

  0004b	c9		 leave
  0004c	c3		 ret	 0
$LN9@Allocate@2:
??$_Allocate@UtagAniSoundEventInfo@@@std@@YAPAUtagAniSoundEventInfo@@IPAU1@@Z ENDP ; std::_Allocate<tagAniSoundEventInfo>
_TEXT	ENDS
PUBLIC	??$forward@AAUAniEventInfo@@@std@@YAAAUAniEventInfo@@AAU1@@Z ; std::forward<AniEventInfo &>
; Function compile flags: /Ogsp
; File c:\program files (x86)\microsoft visual studio 10.0\vc\include\utility
;	COMDAT ??$forward@AAUAniEventInfo@@@std@@YAAAUAniEventInfo@@AAU1@@Z
_TEXT	SEGMENT
__Arg$ = 8						; size = 4
??$forward@AAUAniEventInfo@@@std@@YAAAUAniEventInfo@@AAU1@@Z PROC ; std::forward<AniEventInfo &>, COMDAT

; 78   : 	{	// forward _Arg, given explicitly specified type parameter

  00000	55		 push	 ebp
  00001	8b ec		 mov	 ebp, esp

; 79   : 	return ((_Ty&&)_Arg);

  00003	8b 45 08	 mov	 eax, DWORD PTR __Arg$[ebp]

; 80   : 	}

  00006	5d		 pop	 ebp
  00007	c3		 ret	 0
??$forward@AAUAniEventInfo@@@std@@YAAAUAniEventInfo@@AAU1@@Z ENDP ; std::forward<AniEventInfo &>
_TEXT	ENDS
PUBLIC	??$construct@AAUAniEventInfo@@@?$allocator@UAniEventInfo@@@std@@QAEXPAUAniEventInfo@@AAU2@@Z ; std::allocator<AniEventInfo>::construct<AniEventInfo &>
;	COMDAT xdata$x
xdata$x	SEGMENT
__unwindtable$??$construct@AAUAniEventInfo@@@?$allocator@UAniEventInfo@@@std@@QAEXPAUAniEventInfo@@AAU2@@Z DD 0ffffffffH
	DD	FLAT:__unwindfunclet$??$construct@AAUAniEventInfo@@@?$allocator@UAniEventInfo@@@std@@QAEXPAUAniEventInfo@@AAU2@@Z$0
__ehfuncinfo$??$construct@AAUAniEventInfo@@@?$allocator@UAniEventInfo@@@std@@QAEXPAUAniEventInfo@@AAU2@@Z DD 019930522H
	DD	01H
	DD	FLAT:__unwindtable$??$construct@AAUAniEventInfo@@@?$allocator@UAniEventInfo@@@std@@QAEXPAUAniEventInfo@@AAU2@@Z
	DD	2 DUP(00H)
	DD	2 DUP(00H)
	DD	00H
	DD	01H
; Function compile flags: /Ogsp
; File c:\program files (x86)\microsoft visual studio 10.0\vc\include\xmemory
xdata$x	ENDS
;	COMDAT ??$construct@AAUAniEventInfo@@@?$allocator@UAniEventInfo@@@std@@QAEXPAUAniEventInfo@@AAU2@@Z
_TEXT	SEGMENT
$T507988 = -16						; size = 4
__$EHRec$ = -12						; size = 12
__Ptr$ = 8						; size = 4
__Val$ = 12						; size = 4
??$construct@AAUAniEventInfo@@@?$allocator@UAniEventInfo@@@std@@QAEXPAUAniEventInfo@@AAU2@@Z PROC ; std::allocator<AniEventInfo>::construct<AniEventInfo &>, COMDAT
; _this$ = ecx

; 206  : 		void construct(pointer _Ptr, _Other&& _Val)

  00000	6a 04		 push	 4
  00002	b8 00 00 00 00	 mov	 eax, __ehhandler$??$construct@AAUAniEventInfo@@@?$allocator@UAniEventInfo@@@std@@QAEXPAUAniEventInfo@@AAU2@@Z
  00007	e8 00 00 00 00	 call	 __EH_prolog3

; 207  : 		{	// construct object at _Ptr with value _Val
; 208  : 		::new ((void _FARQ *)_Ptr) _Ty(_STD forward<_Other>(_Val));

  0000c	8b 4d 08	 mov	 ecx, DWORD PTR __Ptr$[ebp]
  0000f	89 4d f0	 mov	 DWORD PTR $T507988[ebp], ecx
  00012	83 65 fc 00	 and	 DWORD PTR __$EHRec$[ebp+8], 0
  00016	85 c9		 test	 ecx, ecx
  00018	74 08		 je	 SHORT $LN3@construct
  0001a	ff 75 0c	 push	 DWORD PTR __Val$[ebp]
  0001d	e8 00 00 00 00	 call	 ??0AniEventInfo@@QAE@ABU0@@Z
$LN3@construct:

; 209  : 		}

  00022	e8 00 00 00 00	 call	 __EH_epilog3
  00027	c2 08 00	 ret	 8
_TEXT	ENDS
;	COMDAT text$x
text$x	SEGMENT
__unwindfunclet$??$construct@AAUAniEventInfo@@@?$allocator@UAniEventInfo@@@std@@QAEXPAUAniEventInfo@@AAU2@@Z$0:
  00000	ff 75 08	 push	 DWORD PTR __Ptr$[ebp]
  00003	ff 75 f0	 push	 DWORD PTR $T507988[ebp]
  00006	e8 00 00 00 00	 call	 ??3@YAXPAX0@Z		; operator delete
  0000b	59		 pop	 ecx
  0000c	59		 pop	 ecx
  0000d	c3		 ret	 0
__ehhandler$??$construct@AAUAniEventInfo@@@?$allocator@UAniEventInfo@@@std@@QAEXPAUAniEventInfo@@AAU2@@Z:
  0000e	8b 54 24 08	 mov	 edx, DWORD PTR [esp+8]
  00012	8d 42 0c	 lea	 eax, DWORD PTR [edx+12]
  00015	8b 4a ec	 mov	 ecx, DWORD PTR [edx-20]
  00018	33 c8		 xor	 ecx, eax
  0001a	e8 00 00 00 00	 call	 @__security_check_cookie@4
  0001f	b8 00 00 00 00	 mov	 eax, OFFSET __ehfuncinfo$??$construct@AAUAniEventInfo@@@?$allocator@UAniEventInfo@@@std@@QAEXPAUAniEventInfo@@AAU2@@Z
  00024	e9 00 00 00 00	 jmp	 ___CxxFrameHandler3
text$x	ENDS
??$construct@AAUAniEventInfo@@@?$allocator@UAniEventInfo@@@std@@QAEXPAUAniEventInfo@@AAU2@@Z ENDP ; std::allocator<AniEventInfo>::construct<AniEventInfo &>
PUBLIC	??$forward@ABUAniEventInfo@@@std@@YAABUAniEventInfo@@ABU1@@Z ; std::forward<AniEventInfo const &>
; Function compile flags: /Ogsp
; File c:\program files (x86)\microsoft visual studio 10.0\vc\include\utility
;	COMDAT ??$forward@ABUAniEventInfo@@@std@@YAABUAniEventInfo@@ABU1@@Z
_TEXT	SEGMENT
__Arg$ = 8						; size = 4
??$forward@ABUAniEventInfo@@@std@@YAABUAniEventInfo@@ABU1@@Z PROC ; std::forward<AniEventInfo const &>, COMDAT

; 78   : 	{	// forward _Arg, given explicitly specified type parameter

  00000	55		 push	 ebp
  00001	8b ec		 mov	 ebp, esp

; 79   : 	return ((_Ty&&)_Arg);

  00003	8b 45 08	 mov	 eax, DWORD PTR __Arg$[ebp]

; 80   : 	}

  00006	5d		 pop	 ebp
  00007	c3		 ret	 0
??$forward@ABUAniEventInfo@@@std@@YAABUAniEventInfo@@ABU1@@Z ENDP ; std::forward<AniEventInfo const &>
_TEXT	ENDS
PUBLIC	??$_Ptr_cat@UAniEventInfo@@U1@@std@@YA?AU_Nonscalar_ptr_iterator_tag@0@PAUAniEventInfo@@0@Z ; std::_Ptr_cat<AniEventInfo,AniEventInfo>
; Function compile flags: /Ogsp
; File c:\program files (x86)\microsoft visual studio 10.0\vc\include\xutility
;	COMDAT ??$_Ptr_cat@UAniEventInfo@@U1@@std@@YA?AU_Nonscalar_ptr_iterator_tag@0@PAUAniEventInfo@@0@Z
_TEXT	SEGMENT
__Cat$ = -1						; size = 1
___formal$ = 8						; size = 4
___formal$ = 12						; size = 4
??$_Ptr_cat@UAniEventInfo@@U1@@std@@YA?AU_Nonscalar_ptr_iterator_tag@0@PAUAniEventInfo@@0@Z PROC ; std::_Ptr_cat<AniEventInfo,AniEventInfo>, COMDAT

; 516  : 	{	// return pointer category from pointers

  00000	55		 push	 ebp
  00001	8b ec		 mov	 ebp, esp
  00003	51		 push	 ecx

; 517  : 	typename _Ptr_cat_helper<_Elem1, _Elem2>::_Type _Cat;
; 518  : 	return (_Cat);

  00004	8a 45 ff	 mov	 al, BYTE PTR __Cat$[ebp]

; 519  : 	}

  00007	c9		 leave
  00008	c3		 ret	 0
??$_Ptr_cat@UAniEventInfo@@U1@@std@@YA?AU_Nonscalar_ptr_iterator_tag@0@PAUAniEventInfo@@0@Z ENDP ; std::_Ptr_cat<AniEventInfo,AniEventInfo>
_TEXT	ENDS
PUBLIC	??$forward@AAUtagAniSoundEventInfo@@@std@@YAAAUtagAniSoundEventInfo@@AAU1@@Z ; std::forward<tagAniSoundEventInfo &>
; Function compile flags: /Ogsp
; File c:\program files (x86)\microsoft visual studio 10.0\vc\include\utility
;	COMDAT ??$forward@AAUtagAniSoundEventInfo@@@std@@YAAAUtagAniSoundEventInfo@@AAU1@@Z
_TEXT	SEGMENT
__Arg$ = 8						; size = 4
??$forward@AAUtagAniSoundEventInfo@@@std@@YAAAUtagAniSoundEventInfo@@AAU1@@Z PROC ; std::forward<tagAniSoundEventInfo &>, COMDAT

; 78   : 	{	// forward _Arg, given explicitly specified type parameter

  00000	55		 push	 ebp
  00001	8b ec		 mov	 ebp, esp

; 79   : 	return ((_Ty&&)_Arg);

  00003	8b 45 08	 mov	 eax, DWORD PTR __Arg$[ebp]

; 80   : 	}

  00006	5d		 pop	 ebp
  00007	c3		 ret	 0
??$forward@AAUtagAniSoundEventInfo@@@std@@YAAAUtagAniSoundEventInfo@@AAU1@@Z ENDP ; std::forward<tagAniSoundEventInfo &>
_TEXT	ENDS
PUBLIC	??$construct@AAUtagAniSoundEventInfo@@@?$allocator@UtagAniSoundEventInfo@@@std@@QAEXPAUtagAniSoundEventInfo@@AAU2@@Z ; std::allocator<tagAniSoundEventInfo>::construct<tagAniSoundEventInfo &>
;	COMDAT xdata$x
xdata$x	SEGMENT
__unwindtable$??$construct@AAUtagAniSoundEventInfo@@@?$allocator@UtagAniSoundEventInfo@@@std@@QAEXPAUtagAniSoundEventInfo@@AAU2@@Z DD 0ffffffffH
	DD	FLAT:__unwindfunclet$??$construct@AAUtagAniSoundEventInfo@@@?$allocator@UtagAniSoundEventInfo@@@std@@QAEXPAUtagAniSoundEventInfo@@AAU2@@Z$0
__ehfuncinfo$??$construct@AAUtagAniSoundEventInfo@@@?$allocator@UtagAniSoundEventInfo@@@std@@QAEXPAUtagAniSoundEventInfo@@AAU2@@Z DD 019930522H
	DD	01H
	DD	FLAT:__unwindtable$??$construct@AAUtagAniSoundEventInfo@@@?$allocator@UtagAniSoundEventInfo@@@std@@QAEXPAUtagAniSoundEventInfo@@AAU2@@Z
	DD	2 DUP(00H)
	DD	2 DUP(00H)
	DD	00H
	DD	01H
; Function compile flags: /Ogsp
; File c:\program files (x86)\microsoft visual studio 10.0\vc\include\xmemory
xdata$x	ENDS
;	COMDAT ??$construct@AAUtagAniSoundEventInfo@@@?$allocator@UtagAniSoundEventInfo@@@std@@QAEXPAUtagAniSoundEventInfo@@AAU2@@Z
_TEXT	SEGMENT
$T508013 = -16						; size = 4
__$EHRec$ = -12						; size = 12
__Ptr$ = 8						; size = 4
__Val$ = 12						; size = 4
??$construct@AAUtagAniSoundEventInfo@@@?$allocator@UtagAniSoundEventInfo@@@std@@QAEXPAUtagAniSoundEventInfo@@AAU2@@Z PROC ; std::allocator<tagAniSoundEventInfo>::construct<tagAniSoundEventInfo &>, COMDAT
; _this$ = ecx

; 206  : 		void construct(pointer _Ptr, _Other&& _Val)

  00000	6a 04		 push	 4
  00002	b8 00 00 00 00	 mov	 eax, __ehhandler$??$construct@AAUtagAniSoundEventInfo@@@?$allocator@UtagAniSoundEventInfo@@@std@@QAEXPAUtagAniSoundEventInfo@@AAU2@@Z
  00007	e8 00 00 00 00	 call	 __EH_prolog3

; 207  : 		{	// construct object at _Ptr with value _Val
; 208  : 		::new ((void _FARQ *)_Ptr) _Ty(_STD forward<_Other>(_Val));

  0000c	8b 4d 08	 mov	 ecx, DWORD PTR __Ptr$[ebp]
  0000f	89 4d f0	 mov	 DWORD PTR $T508013[ebp], ecx
  00012	83 65 fc 00	 and	 DWORD PTR __$EHRec$[ebp+8], 0
  00016	85 c9		 test	 ecx, ecx
  00018	74 08		 je	 SHORT $LN3@construct@2
  0001a	ff 75 0c	 push	 DWORD PTR __Val$[ebp]
  0001d	e8 00 00 00 00	 call	 ??0tagAniSoundEventInfo@@QAE@ABU0@@Z
$LN3@construct@2:

; 209  : 		}

  00022	e8 00 00 00 00	 call	 __EH_epilog3
  00027	c2 08 00	 ret	 8
_TEXT	ENDS
;	COMDAT text$x
text$x	SEGMENT
__unwindfunclet$??$construct@AAUtagAniSoundEventInfo@@@?$allocator@UtagAniSoundEventInfo@@@std@@QAEXPAUtagAniSoundEventInfo@@AAU2@@Z$0:
  00000	ff 75 08	 push	 DWORD PTR __Ptr$[ebp]
  00003	ff 75 f0	 push	 DWORD PTR $T508013[ebp]
  00006	e8 00 00 00 00	 call	 ??3@YAXPAX0@Z		; operator delete
  0000b	59		 pop	 ecx
  0000c	59		 pop	 ecx
  0000d	c3		 ret	 0
__ehhandler$??$construct@AAUtagAniSoundEventInfo@@@?$allocator@UtagAniSoundEventInfo@@@std@@QAEXPAUtagAniSoundEventInfo@@AAU2@@Z:
  0000e	8b 54 24 08	 mov	 edx, DWORD PTR [esp+8]
  00012	8d 42 0c	 lea	 eax, DWORD PTR [edx+12]
  00015	8b 4a ec	 mov	 ecx, DWORD PTR [edx-20]
  00018	33 c8		 xor	 ecx, eax
  0001a	e8 00 00 00 00	 call	 @__security_check_cookie@4
  0001f	b8 00 00 00 00	 mov	 eax, OFFSET __ehfuncinfo$??$construct@AAUtagAniSoundEventInfo@@@?$allocator@UtagAniSoundEventInfo@@@std@@QAEXPAUtagAniSoundEventInfo@@AAU2@@Z
  00024	e9 00 00 00 00	 jmp	 ___CxxFrameHandler3
text$x	ENDS
??$construct@AAUtagAniSoundEventInfo@@@?$allocator@UtagAniSoundEventInfo@@@std@@QAEXPAUtagAniSoundEventInfo@@AAU2@@Z ENDP ; std::allocator<tagAniSoundEventInfo>::construct<tagAniSoundEventInfo &>
PUBLIC	??$forward@ABUtagAniSoundEventInfo@@@std@@YAABUtagAniSoundEventInfo@@ABU1@@Z ; std::forward<tagAniSoundEventInfo const &>
; Function compile flags: /Ogsp
; File c:\program files (x86)\microsoft visual studio 10.0\vc\include\utility
;	COMDAT ??$forward@ABUtagAniSoundEventInfo@@@std@@YAABUtagAniSoundEventInfo@@ABU1@@Z
_TEXT	SEGMENT
__Arg$ = 8						; size = 4
??$forward@ABUtagAniSoundEventInfo@@@std@@YAABUtagAniSoundEventInfo@@ABU1@@Z PROC ; std::forward<tagAniSoundEventInfo const &>, COMDAT

; 78   : 	{	// forward _Arg, given explicitly specified type parameter

  00000	55		 push	 ebp
  00001	8b ec		 mov	 ebp, esp

; 79   : 	return ((_Ty&&)_Arg);

  00003	8b 45 08	 mov	 eax, DWORD PTR __Arg$[ebp]

; 80   : 	}

  00006	5d		 pop	 ebp
  00007	c3		 ret	 0
??$forward@ABUtagAniSoundEventInfo@@@std@@YAABUtagAniSoundEventInfo@@ABU1@@Z ENDP ; std::forward<tagAniSoundEventInfo const &>
_TEXT	ENDS
PUBLIC	??$_Ptr_cat@UtagAniSoundEventInfo@@U1@@std@@YA?AU_Nonscalar_ptr_iterator_tag@0@PAUtagAniSoundEventInfo@@0@Z ; std::_Ptr_cat<tagAniSoundEventInfo,tagAniSoundEventInfo>
; Function compile flags: /Ogsp
; File c:\program files (x86)\microsoft visual studio 10.0\vc\include\xutility
;	COMDAT ??$_Ptr_cat@UtagAniSoundEventInfo@@U1@@std@@YA?AU_Nonscalar_ptr_iterator_tag@0@PAUtagAniSoundEventInfo@@0@Z
_TEXT	SEGMENT
__Cat$ = -1						; size = 1
___formal$ = 8						; size = 4
___formal$ = 12						; size = 4
??$_Ptr_cat@UtagAniSoundEventInfo@@U1@@std@@YA?AU_Nonscalar_ptr_iterator_tag@0@PAUtagAniSoundEventInfo@@0@Z PROC ; std::_Ptr_cat<tagAniSoundEventInfo,tagAniSoundEventInfo>, COMDAT

; 516  : 	{	// return pointer category from pointers

  00000	55		 push	 ebp
  00001	8b ec		 mov	 ebp, esp
  00003	51		 push	 ecx

; 517  : 	typename _Ptr_cat_helper<_Elem1, _Elem2>::_Type _Cat;
; 518  : 	return (_Cat);

  00004	8a 45 ff	 mov	 al, BYTE PTR __Cat$[ebp]

; 519  : 	}

  00007	c9		 leave
  00008	c3		 ret	 0
??$_Ptr_cat@UtagAniSoundEventInfo@@U1@@std@@YA?AU_Nonscalar_ptr_iterator_tag@0@PAUtagAniSoundEventInfo@@0@Z ENDP ; std::_Ptr_cat<tagAniSoundEventInfo,tagAniSoundEventInfo>
_TEXT	ENDS
PUBLIC	??$_Construct@UAniEventInfo@@ABU1@@std@@YAXPAUAniEventInfo@@ABU1@@Z ; std::_Construct<AniEventInfo,AniEventInfo const &>
;	COMDAT xdata$x
; File c:\program files (x86)\microsoft visual studio 10.0\vc\include\utility
xdata$x	SEGMENT
__unwindtable$??$_Construct@UAniEventInfo@@ABU1@@std@@YAXPAUAniEventInfo@@ABU1@@Z DD 0ffffffffH
	DD	FLAT:__unwindfunclet$??$_Construct@UAniEventInfo@@ABU1@@std@@YAXPAUAniEventInfo@@ABU1@@Z$0
__ehfuncinfo$??$_Construct@UAniEventInfo@@ABU1@@std@@YAXPAUAniEventInfo@@ABU1@@Z DD 019930522H
	DD	01H
	DD	FLAT:__unwindtable$??$_Construct@UAniEventInfo@@ABU1@@std@@YAXPAUAniEventInfo@@ABU1@@Z
	DD	2 DUP(00H)
	DD	2 DUP(00H)
	DD	00H
	DD	01H
; Function compile flags: /Ogsp
; File c:\program files (x86)\microsoft visual studio 10.0\vc\include\xmemory
xdata$x	ENDS
;	COMDAT ??$_Construct@UAniEventInfo@@ABU1@@std@@YAXPAUAniEventInfo@@ABU1@@Z
_TEXT	SEGMENT
$T508036 = -16						; size = 4
__$EHRec$ = -12						; size = 12
__Vptr$ = 8						; size = 4
__Ptr$ = 8						; size = 4
__Val$ = 12						; size = 4
??$_Construct@UAniEventInfo@@ABU1@@std@@YAXPAUAniEventInfo@@ABU1@@Z PROC ; std::_Construct<AniEventInfo,AniEventInfo const &>, COMDAT

; 46   : 	{	// construct object at _Ptr with value _Val

  00000	6a 04		 push	 4
  00002	b8 00 00 00 00	 mov	 eax, __ehhandler$??$_Construct@UAniEventInfo@@ABU1@@std@@YAXPAUAniEventInfo@@ABU1@@Z
  00007	e8 00 00 00 00	 call	 __EH_prolog3

; 47   : 	void _FARQ *_Vptr = _Ptr;

  0000c	8b 4d 08	 mov	 ecx, DWORD PTR __Ptr$[ebp]
  0000f	89 4d 08	 mov	 DWORD PTR __Vptr$[ebp], ecx

; 48   : 	::new (_Vptr) _Ty1(_STD forward<_Ty2>(_Val));

  00012	89 4d f0	 mov	 DWORD PTR $T508036[ebp], ecx
  00015	83 65 fc 00	 and	 DWORD PTR __$EHRec$[ebp+8], 0
  00019	85 c9		 test	 ecx, ecx
  0001b	74 08		 je	 SHORT $LN3@Construct
  0001d	ff 75 0c	 push	 DWORD PTR __Val$[ebp]
  00020	e8 00 00 00 00	 call	 ??0AniEventInfo@@QAE@ABU0@@Z
$LN3@Construct:

; 49   : 	}

  00025	e8 00 00 00 00	 call	 __EH_epilog3
  0002a	c3		 ret	 0
_TEXT	ENDS
;	COMDAT text$x
text$x	SEGMENT
__unwindfunclet$??$_Construct@UAniEventInfo@@ABU1@@std@@YAXPAUAniEventInfo@@ABU1@@Z$0:
  00000	ff 75 08	 push	 DWORD PTR __Vptr$[ebp]
  00003	ff 75 f0	 push	 DWORD PTR $T508036[ebp]
  00006	e8 00 00 00 00	 call	 ??3@YAXPAX0@Z		; operator delete
  0000b	59		 pop	 ecx
  0000c	59		 pop	 ecx
  0000d	c3		 ret	 0
__ehhandler$??$_Construct@UAniEventInfo@@ABU1@@std@@YAXPAUAniEventInfo@@ABU1@@Z:
  0000e	8b 54 24 08	 mov	 edx, DWORD PTR [esp+8]
  00012	8d 42 0c	 lea	 eax, DWORD PTR [edx+12]
  00015	8b 4a ec	 mov	 ecx, DWORD PTR [edx-20]
  00018	33 c8		 xor	 ecx, eax
  0001a	e8 00 00 00 00	 call	 @__security_check_cookie@4
  0001f	b8 00 00 00 00	 mov	 eax, OFFSET __ehfuncinfo$??$_Construct@UAniEventInfo@@ABU1@@std@@YAXPAUAniEventInfo@@ABU1@@Z
  00024	e9 00 00 00 00	 jmp	 ___CxxFrameHandler3
text$x	ENDS
??$_Construct@UAniEventInfo@@ABU1@@std@@YAXPAUAniEventInfo@@ABU1@@Z ENDP ; std::_Construct<AniEventInfo,AniEventInfo const &>
PUBLIC	??$_Construct@UtagAniSoundEventInfo@@ABU1@@std@@YAXPAUtagAniSoundEventInfo@@ABU1@@Z ; std::_Construct<tagAniSoundEventInfo,tagAniSoundEventInfo const &>
;	COMDAT xdata$x
; File c:\program files (x86)\microsoft visual studio 10.0\vc\include\utility
xdata$x	SEGMENT
__unwindtable$??$_Construct@UtagAniSoundEventInfo@@ABU1@@std@@YAXPAUtagAniSoundEventInfo@@ABU1@@Z DD 0ffffffffH
	DD	FLAT:__unwindfunclet$??$_Construct@UtagAniSoundEventInfo@@ABU1@@std@@YAXPAUtagAniSoundEventInfo@@ABU1@@Z$0
__ehfuncinfo$??$_Construct@UtagAniSoundEventInfo@@ABU1@@std@@YAXPAUtagAniSoundEventInfo@@ABU1@@Z DD 019930522H
	DD	01H
	DD	FLAT:__unwindtable$??$_Construct@UtagAniSoundEventInfo@@ABU1@@std@@YAXPAUtagAniSoundEventInfo@@ABU1@@Z
	DD	2 DUP(00H)
	DD	2 DUP(00H)
	DD	00H
	DD	01H
; Function compile flags: /Ogsp
; File c:\program files (x86)\microsoft visual studio 10.0\vc\include\xmemory
xdata$x	ENDS
;	COMDAT ??$_Construct@UtagAniSoundEventInfo@@ABU1@@std@@YAXPAUtagAniSoundEventInfo@@ABU1@@Z
_TEXT	SEGMENT
$T508055 = -16						; size = 4
__$EHRec$ = -12						; size = 12
__Vptr$ = 8						; size = 4
__Ptr$ = 8						; size = 4
__Val$ = 12						; size = 4
??$_Construct@UtagAniSoundEventInfo@@ABU1@@std@@YAXPAUtagAniSoundEventInfo@@ABU1@@Z PROC ; std::_Construct<tagAniSoundEventInfo,tagAniSoundEventInfo const &>, COMDAT

; 46   : 	{	// construct object at _Ptr with value _Val

  00000	6a 04		 push	 4
  00002	b8 00 00 00 00	 mov	 eax, __ehhandler$??$_Construct@UtagAniSoundEventInfo@@ABU1@@std@@YAXPAUtagAniSoundEventInfo@@ABU1@@Z
  00007	e8 00 00 00 00	 call	 __EH_prolog3

; 47   : 	void _FARQ *_Vptr = _Ptr;

  0000c	8b 4d 08	 mov	 ecx, DWORD PTR __Ptr$[ebp]
  0000f	89 4d 08	 mov	 DWORD PTR __Vptr$[ebp], ecx

; 48   : 	::new (_Vptr) _Ty1(_STD forward<_Ty2>(_Val));

  00012	89 4d f0	 mov	 DWORD PTR $T508055[ebp], ecx
  00015	83 65 fc 00	 and	 DWORD PTR __$EHRec$[ebp+8], 0
  00019	85 c9		 test	 ecx, ecx
  0001b	74 08		 je	 SHORT $LN3@Construct@2
  0001d	ff 75 0c	 push	 DWORD PTR __Val$[ebp]
  00020	e8 00 00 00 00	 call	 ??0tagAniSoundEventInfo@@QAE@ABU0@@Z
$LN3@Construct@2:

; 49   : 	}

  00025	e8 00 00 00 00	 call	 __EH_epilog3
  0002a	c3		 ret	 0
_TEXT	ENDS
;	COMDAT text$x
text$x	SEGMENT
__unwindfunclet$??$_Construct@UtagAniSoundEventInfo@@ABU1@@std@@YAXPAUtagAniSoundEventInfo@@ABU1@@Z$0:
  00000	ff 75 08	 push	 DWORD PTR __Vptr$[ebp]
  00003	ff 75 f0	 push	 DWORD PTR $T508055[ebp]
  00006	e8 00 00 00 00	 call	 ??3@YAXPAX0@Z		; operator delete
  0000b	59		 pop	 ecx
  0000c	59		 pop	 ecx
  0000d	c3		 ret	 0
__ehhandler$??$_Construct@UtagAniSoundEventInfo@@ABU1@@std@@YAXPAUtagAniSoundEventInfo@@ABU1@@Z:
  0000e	8b 54 24 08	 mov	 edx, DWORD PTR [esp+8]
  00012	8d 42 0c	 lea	 eax, DWORD PTR [edx+12]
  00015	8b 4a ec	 mov	 ecx, DWORD PTR [edx-20]
  00018	33 c8		 xor	 ecx, eax
  0001a	e8 00 00 00 00	 call	 @__security_check_cookie@4
  0001f	b8 00 00 00 00	 mov	 eax, OFFSET __ehfuncinfo$??$_Construct@UtagAniSoundEventInfo@@ABU1@@std@@YAXPAUtagAniSoundEventInfo@@ABU1@@Z
  00024	e9 00 00 00 00	 jmp	 ___CxxFrameHandler3
text$x	ENDS
??$_Construct@UtagAniSoundEventInfo@@ABU1@@std@@YAXPAUtagAniSoundEventInfo@@ABU1@@Z ENDP ; std::_Construct<tagAniSoundEventInfo,tagAniSoundEventInfo const &>
PUBLIC	??4AniEventInfo@@QAEAAU0@ABU0@@Z		; AniEventInfo::operator=
EXTRN	__imp_??4ioHashString@@QAEAAV0@ABV0@@Z:PROC
; Function compile flags: /Ogsp
;	COMDAT ??4AniEventInfo@@QAEAAU0@ABU0@@Z
_TEXT	SEGMENT
___that$ = 8						; size = 4
??4AniEventInfo@@QAEAAU0@ABU0@@Z PROC			; AniEventInfo::operator=, COMDAT
; _this$ = ecx
  00000	55		 push	 ebp
  00001	8b ec		 mov	 ebp, esp
  00003	53		 push	 ebx
  00004	8b 5d 08	 mov	 ebx, DWORD PTR ___that$[ebp]
  00007	56		 push	 esi
  00008	8b 35 00 00 00
	00		 mov	 esi, DWORD PTR __imp_??4ioHashString@@QAEAAV0@ABV0@@Z
  0000e	57		 push	 edi
  0000f	53		 push	 ebx
  00010	8b f9		 mov	 edi, ecx
  00012	ff d6		 call	 esi
  00014	83 c3 10	 add	 ebx, 16			; 00000010H
  00017	53		 push	 ebx
  00018	8d 4f 10	 lea	 ecx, DWORD PTR [edi+16]
  0001b	ff d6		 call	 esi
  0001d	8b c7		 mov	 eax, edi
  0001f	5f		 pop	 edi
  00020	5e		 pop	 esi
  00021	5b		 pop	 ebx
  00022	5d		 pop	 ebp
  00023	c2 04 00	 ret	 4
??4AniEventInfo@@QAEAAU0@ABU0@@Z ENDP			; AniEventInfo::operator=
_TEXT	ENDS
PUBLIC	??4tagAniSoundEventInfo@@QAEAAU0@ABU0@@Z	; tagAniSoundEventInfo::operator=
; Function compile flags: /Ogsp
;	COMDAT ??4tagAniSoundEventInfo@@QAEAAU0@ABU0@@Z
_TEXT	SEGMENT
___that$ = 8						; size = 4
??4tagAniSoundEventInfo@@QAEAAU0@ABU0@@Z PROC		; tagAniSoundEventInfo::operator=, COMDAT
; _this$ = ecx
  00000	55		 push	 ebp
  00001	8b ec		 mov	 ebp, esp
  00003	53		 push	 ebx
  00004	8b 5d 08	 mov	 ebx, DWORD PTR ___that$[ebp]
  00007	56		 push	 esi
  00008	57		 push	 edi
  00009	8b 3d 00 00 00
	00		 mov	 edi, DWORD PTR __imp_??4ioHashString@@QAEAAV0@ABV0@@Z
  0000f	53		 push	 ebx
  00010	8b f1		 mov	 esi, ecx
  00012	ff d7		 call	 edi
  00014	8d 43 10	 lea	 eax, DWORD PTR [ebx+16]
  00017	50		 push	 eax
  00018	8d 4e 10	 lea	 ecx, DWORD PTR [esi+16]
  0001b	ff d7		 call	 edi
  0001d	8b 43 20	 mov	 eax, DWORD PTR [ebx+32]
  00020	89 46 20	 mov	 DWORD PTR [esi+32], eax
  00023	5f		 pop	 edi
  00024	8b c6		 mov	 eax, esi
  00026	5e		 pop	 esi
  00027	5b		 pop	 ebx
  00028	5d		 pop	 ebp
  00029	c2 04 00	 ret	 4
??4tagAniSoundEventInfo@@QAEAAU0@ABU0@@Z ENDP		; tagAniSoundEventInfo::operator=
_TEXT	ENDS
PUBLIC	??$move@AAUAniEventInfo@@@std@@YA$$QAUAniEventInfo@@AAU1@@Z ; std::move<AniEventInfo &>
; Function compile flags: /Ogsp
; File c:\program files (x86)\microsoft visual studio 10.0\vc\include\utility
;	COMDAT ??$move@AAUAniEventInfo@@@std@@YA$$QAUAniEventInfo@@AAU1@@Z
_TEXT	SEGMENT
__Arg$ = 8						; size = 4
??$move@AAUAniEventInfo@@@std@@YA$$QAUAniEventInfo@@AAU1@@Z PROC ; std::move<AniEventInfo &>, COMDAT

; 86   : 	{	// forward _Arg as movable

  00000	55		 push	 ebp
  00001	8b ec		 mov	 ebp, esp

; 87   : 	return ((typename tr1::_Remove_reference<_Ty>::_Type&&)_Arg);

  00003	8b 45 08	 mov	 eax, DWORD PTR __Arg$[ebp]

; 88   : 	}

  00006	5d		 pop	 ebp
  00007	c3		 ret	 0
??$move@AAUAniEventInfo@@@std@@YA$$QAUAniEventInfo@@AAU1@@Z ENDP ; std::move<AniEventInfo &>
_TEXT	ENDS
PUBLIC	??$move@AAUtagAniSoundEventInfo@@@std@@YA$$QAUtagAniSoundEventInfo@@AAU1@@Z ; std::move<tagAniSoundEventInfo &>
; Function compile flags: /Ogsp
;	COMDAT ??$move@AAUtagAniSoundEventInfo@@@std@@YA$$QAUtagAniSoundEventInfo@@AAU1@@Z
_TEXT	SEGMENT
__Arg$ = 8						; size = 4
??$move@AAUtagAniSoundEventInfo@@@std@@YA$$QAUtagAniSoundEventInfo@@AAU1@@Z PROC ; std::move<tagAniSoundEventInfo &>, COMDAT

; 86   : 	{	// forward _Arg as movable

  00000	55		 push	 ebp
  00001	8b ec		 mov	 ebp, esp

; 87   : 	return ((typename tr1::_Remove_reference<_Ty>::_Type&&)_Arg);

  00003	8b 45 08	 mov	 eax, DWORD PTR __Arg$[ebp]

; 88   : 	}

  00006	5d		 pop	 ebp
  00007	c3		 ret	 0
??$move@AAUtagAniSoundEventInfo@@@std@@YA$$QAUtagAniSoundEventInfo@@AAU1@@Z ENDP ; std::move<tagAniSoundEventInfo &>
_TEXT	ENDS
PUBLIC	??$_Val_type@PAUAniEventInfo@@@std@@YAPAUAniEventInfo@@PAU1@@Z ; std::_Val_type<AniEventInfo *>
; Function compile flags: /Ogsp
; File c:\program files (x86)\microsoft visual studio 10.0\vc\include\xutility
;	COMDAT ??$_Val_type@PAUAniEventInfo@@@std@@YAPAUAniEventInfo@@PAU1@@Z
_TEXT	SEGMENT
___formal$ = 8						; size = 4
??$_Val_type@PAUAniEventInfo@@@std@@YAPAUAniEventInfo@@PAU1@@Z PROC ; std::_Val_type<AniEventInfo *>, COMDAT

; 790  : 	return (0);

  00000	33 c0		 xor	 eax, eax

; 791  : 	}

  00002	c3		 ret	 0
??$_Val_type@PAUAniEventInfo@@@std@@YAPAUAniEventInfo@@PAU1@@Z ENDP ; std::_Val_type<AniEventInfo *>
_TEXT	ENDS
PUBLIC	??$_Val_type@PAUtagAniSoundEventInfo@@@std@@YAPAUtagAniSoundEventInfo@@PAU1@@Z ; std::_Val_type<tagAniSoundEventInfo *>
; Function compile flags: /Ogsp
;	COMDAT ??$_Val_type@PAUtagAniSoundEventInfo@@@std@@YAPAUtagAniSoundEventInfo@@PAU1@@Z
_TEXT	SEGMENT
___formal$ = 8						; size = 4
??$_Val_type@PAUtagAniSoundEventInfo@@@std@@YAPAUtagAniSoundEventInfo@@PAU1@@Z PROC ; std::_Val_type<tagAniSoundEventInfo *>, COMDAT

; 790  : 	return (0);

  00000	33 c0		 xor	 eax, eax

; 791  : 	}

  00002	c3		 ret	 0
??$_Val_type@PAUtagAniSoundEventInfo@@@std@@YAPAUtagAniSoundEventInfo@@PAU1@@Z ENDP ; std::_Val_type<tagAniSoundEventInfo *>
_TEXT	ENDS
PUBLIC	??_GAniEventInfo@@QAEPAXI@Z			; AniEventInfo::`scalar deleting destructor'
; Function compile flags: /Ogsp
;	COMDAT ??_GAniEventInfo@@QAEPAXI@Z
_TEXT	SEGMENT
___flags$ = 8						; size = 4
??_GAniEventInfo@@QAEPAXI@Z PROC			; AniEventInfo::`scalar deleting destructor', COMDAT
; _this$ = ecx
  00000	55		 push	 ebp
  00001	8b ec		 mov	 ebp, esp
  00003	56		 push	 esi
  00004	8b f1		 mov	 esi, ecx
  00006	e8 00 00 00 00	 call	 ??1AniEventInfo@@QAE@XZ
  0000b	f6 45 08 01	 test	 BYTE PTR ___flags$[ebp], 1
  0000f	74 07		 je	 SHORT $LN1@scalar@2
  00011	56		 push	 esi
  00012	e8 00 00 00 00	 call	 ??3@YAXPAX@Z		; operator delete
  00017	59		 pop	 ecx
$LN1@scalar@2:
  00018	8b c6		 mov	 eax, esi
  0001a	5e		 pop	 esi
  0001b	5d		 pop	 ebp
  0001c	c2 04 00	 ret	 4
??_GAniEventInfo@@QAEPAXI@Z ENDP			; AniEventInfo::`scalar deleting destructor'
_TEXT	ENDS
PUBLIC	??_GtagAniSoundEventInfo@@QAEPAXI@Z		; tagAniSoundEventInfo::`scalar deleting destructor'
; Function compile flags: /Ogsp
;	COMDAT ??_GtagAniSoundEventInfo@@QAEPAXI@Z
_TEXT	SEGMENT
___flags$ = 8						; size = 4
??_GtagAniSoundEventInfo@@QAEPAXI@Z PROC		; tagAniSoundEventInfo::`scalar deleting destructor', COMDAT
; _this$ = ecx
  00000	55		 push	 ebp
  00001	8b ec		 mov	 ebp, esp
  00003	56		 push	 esi
  00004	8b f1		 mov	 esi, ecx
  00006	e8 00 00 00 00	 call	 ??1tagAniSoundEventInfo@@QAE@XZ
  0000b	f6 45 08 01	 test	 BYTE PTR ___flags$[ebp], 1
  0000f	74 07		 je	 SHORT $LN1@scalar@3
  00011	56		 push	 esi
  00012	e8 00 00 00 00	 call	 ??3@YAXPAX@Z		; operator delete
  00017	59		 pop	 ecx
$LN1@scalar@3:
  00018	8b c6		 mov	 eax, esi
  0001a	5e		 pop	 esi
  0001b	5d		 pop	 ebp
  0001c	c2 04 00	 ret	 4
??_GtagAniSoundEventInfo@@QAEPAXI@Z ENDP		; tagAniSoundEventInfo::`scalar deleting destructor'
_TEXT	ENDS
PUBLIC	??$forward@UAniEventInfo@@@std@@YA$$QAUAniEventInfo@@AAU1@@Z ; std::forward<AniEventInfo>
; Function compile flags: /Ogsp
; File c:\program files (x86)\microsoft visual studio 10.0\vc\include\utility
;	COMDAT ??$forward@UAniEventInfo@@@std@@YA$$QAUAniEventInfo@@AAU1@@Z
_TEXT	SEGMENT
__Arg$ = 8						; size = 4
??$forward@UAniEventInfo@@@std@@YA$$QAUAniEventInfo@@AAU1@@Z PROC ; std::forward<AniEventInfo>, COMDAT

; 78   : 	{	// forward _Arg, given explicitly specified type parameter

  00000	55		 push	 ebp
  00001	8b ec		 mov	 ebp, esp

; 79   : 	return ((_Ty&&)_Arg);

  00003	8b 45 08	 mov	 eax, DWORD PTR __Arg$[ebp]

; 80   : 	}

  00006	5d		 pop	 ebp
  00007	c3		 ret	 0
??$forward@UAniEventInfo@@@std@@YA$$QAUAniEventInfo@@AAU1@@Z ENDP ; std::forward<AniEventInfo>
_TEXT	ENDS
PUBLIC	??$forward@UtagAniSoundEventInfo@@@std@@YA$$QAUtagAniSoundEventInfo@@AAU1@@Z ; std::forward<tagAniSoundEventInfo>
; Function compile flags: /Ogsp
;	COMDAT ??$forward@UtagAniSoundEventInfo@@@std@@YA$$QAUtagAniSoundEventInfo@@AAU1@@Z
_TEXT	SEGMENT
__Arg$ = 8						; size = 4
??$forward@UtagAniSoundEventInfo@@@std@@YA$$QAUtagAniSoundEventInfo@@AAU1@@Z PROC ; std::forward<tagAniSoundEventInfo>, COMDAT

; 78   : 	{	// forward _Arg, given explicitly specified type parameter

  00000	55		 push	 ebp
  00001	8b ec		 mov	 ebp, esp

; 79   : 	return ((_Ty&&)_Arg);

  00003	8b 45 08	 mov	 eax, DWORD PTR __Arg$[ebp]

; 80   : 	}

  00006	5d		 pop	 ebp
  00007	c3		 ret	 0
??$forward@UtagAniSoundEventInfo@@@std@@YA$$QAUtagAniSoundEventInfo@@AAU1@@Z ENDP ; std::forward<tagAniSoundEventInfo>
_TEXT	ENDS
PUBLIC	?_DECSTR@@YAXPADH@Z				; _DECSTR
; Function compile flags: /Ogsp
; File d:\lost saga for developer\youtube\tutorial\source\src\lsclient\stringprotect.h
;	COMDAT ?_DECSTR@@YAXPADH@Z
_TEXT	SEGMENT
_s$ = 8							; size = 4
_l$ = 12						; size = 4
?_DECSTR@@YAXPADH@Z PROC				; _DECSTR, COMDAT

; 40   : __forceinline void _DECSTR(char* s, int l){int i=0,l4=(l-1)/4,*p=(int*)s;s[l-1]=0;for(;i<l4;++i)*(p++)^=0xEAEBECED;for(i=l4*4;i<l-1;++i)s[i]^=0xED-i%4;}

  00000	55		 push	 ebp
  00001	8b ec		 mov	 ebp, esp
  00003	8b 4d 0c	 mov	 ecx, DWORD PTR _l$[ebp]
  00006	56		 push	 esi
  00007	8b 75 08	 mov	 esi, DWORD PTR _s$[ebp]
  0000a	57		 push	 edi
  0000b	8d 79 ff	 lea	 edi, DWORD PTR [ecx-1]
  0000e	8b c7		 mov	 eax, edi
  00010	99		 cdq
  00011	83 e2 03	 and	 edx, 3
  00014	03 c2		 add	 eax, edx
  00016	c1 f8 02	 sar	 eax, 2
  00019	8b d6		 mov	 edx, esi
  0001b	c6 44 0e ff 00	 mov	 BYTE PTR [esi+ecx-1], 0
  00020	85 c0		 test	 eax, eax
  00022	7e 0e		 jle	 SHORT $LN4@DECSTR
  00024	8b c8		 mov	 ecx, eax
$LL6@DECSTR:
  00026	81 32 ed ec eb
	ea		 xor	 DWORD PTR [edx], -353637139 ; eaebecedH
  0002c	83 c2 04	 add	 edx, 4
  0002f	49		 dec	 ecx
  00030	75 f4		 jne	 SHORT $LL6@DECSTR
$LN4@DECSTR:
  00032	c1 e0 02	 shl	 eax, 2
  00035	eb 17		 jmp	 SHORT $LN14@DECSTR
$LL3@DECSTR:
  00037	8b c8		 mov	 ecx, eax
  00039	81 e1 03 00 00
	80		 and	 ecx, -2147483645	; 80000003H
  0003f	79 05		 jns	 SHORT $LN13@DECSTR
  00041	49		 dec	 ecx
  00042	83 c9 fc	 or	 ecx, -4			; fffffffcH
  00045	41		 inc	 ecx
$LN13@DECSTR:
  00046	b2 ed		 mov	 dl, -19			; ffffffedH
  00048	2a d1		 sub	 dl, cl
  0004a	30 14 30	 xor	 BYTE PTR [eax+esi], dl
  0004d	40		 inc	 eax
$LN14@DECSTR:
  0004e	3b c7		 cmp	 eax, edi
  00050	7c e5		 jl	 SHORT $LL3@DECSTR
  00052	5f		 pop	 edi
  00053	5e		 pop	 esi
  00054	5d		 pop	 ebp
  00055	c3		 ret	 0
?_DECSTR@@YAXPADH@Z ENDP				; _DECSTR
_TEXT	ENDS
PUBLIC	?Init@tagAniSoundEventInfo@@QAEXXZ		; tagAniSoundEventInfo::Init
; Function compile flags: /Ogsp
; File d:\lost saga for developer\youtube\tutorial\source\src\lsclient\anieventhelpstruct.h
;	COMDAT ?Init@tagAniSoundEventInfo@@QAEXXZ
_TEXT	SEGMENT
?Init@tagAniSoundEventInfo@@QAEXXZ PROC			; tagAniSoundEventInfo::Init, COMDAT
; _this$ = ecx

; 19   : 		m_SoundID = 0;

  00000	83 61 20 00	 and	 DWORD PTR [ecx+32], 0

; 20   : 	}

  00004	c3		 ret	 0
?Init@tagAniSoundEventInfo@@QAEXXZ ENDP			; tagAniSoundEventInfo::Init
_TEXT	ENDS
EXTRN	__imp_??0exception@std@@QAE@ABV01@@Z:PROC
; Function compile flags: /Ogsp
;	COMDAT ??0bad_alloc@std@@QAE@ABV01@@Z
_TEXT	SEGMENT
___that$ = 8						; size = 4
??0bad_alloc@std@@QAE@ABV01@@Z PROC			; std::bad_alloc::bad_alloc, COMDAT
; _this$ = ecx
  00000	55		 push	 ebp
  00001	8b ec		 mov	 ebp, esp
  00003	56		 push	 esi
  00004	ff 75 08	 push	 DWORD PTR ___that$[ebp]
  00007	8b f1		 mov	 esi, ecx
  00009	ff 15 00 00 00
	00		 call	 DWORD PTR __imp_??0exception@std@@QAE@ABV01@@Z
  0000f	c7 06 00 00 00
	00		 mov	 DWORD PTR [esi], OFFSET ??_7bad_alloc@std@@6B@
  00015	8b c6		 mov	 eax, esi
  00017	5e		 pop	 esi
  00018	5d		 pop	 ebp
  00019	c2 04 00	 ret	 4
??0bad_alloc@std@@QAE@ABV01@@Z ENDP			; std::bad_alloc::bad_alloc
_TEXT	ENDS
PUBLIC	??D?$_Vector_iterator@V?$_Vector_val@UAniEventInfo@@V?$allocator@UAniEventInfo@@@std@@@std@@@std@@QBEAAUAniEventInfo@@XZ ; std::_Vector_iterator<std::_Vector_val<AniEventInfo,std::allocator<AniEventInfo> > >::operator*
; Function compile flags: /Ogsp
; File c:\program files (x86)\microsoft visual studio 10.0\vc\include\vector
;	COMDAT ??D?$_Vector_iterator@V?$_Vector_val@UAniEventInfo@@V?$allocator@UAniEventInfo@@@std@@@std@@@std@@QBEAAUAniEventInfo@@XZ
_TEXT	SEGMENT
??D?$_Vector_iterator@V?$_Vector_val@UAniEventInfo@@V?$allocator@UAniEventInfo@@@std@@@std@@@std@@QBEAAUAniEventInfo@@XZ PROC ; std::_Vector_iterator<std::_Vector_val<AniEventInfo,std::allocator<AniEventInfo> > >::operator*, COMDAT
; _this$ = ecx

; 322  : 		return ((reference)**(_Mybase *)this);

  00000	8b 01		 mov	 eax, DWORD PTR [ecx]

; 323  : 		}

  00002	c3		 ret	 0
??D?$_Vector_iterator@V?$_Vector_val@UAniEventInfo@@V?$allocator@UAniEventInfo@@@std@@@std@@@std@@QBEAAUAniEventInfo@@XZ ENDP ; std::_Vector_iterator<std::_Vector_val<AniEventInfo,std::allocator<AniEventInfo> > >::operator*
_TEXT	ENDS
PUBLIC	??E?$_Vector_iterator@V?$_Vector_val@UAniEventInfo@@V?$allocator@UAniEventInfo@@@std@@@std@@@std@@QAEAAV01@XZ ; std::_Vector_iterator<std::_Vector_val<AniEventInfo,std::allocator<AniEventInfo> > >::operator++
; Function compile flags: /Ogsp
;	COMDAT ??E?$_Vector_iterator@V?$_Vector_val@UAniEventInfo@@V?$allocator@UAniEventInfo@@@std@@@std@@@std@@QAEAAV01@XZ
_TEXT	SEGMENT
??E?$_Vector_iterator@V?$_Vector_val@UAniEventInfo@@V?$allocator@UAniEventInfo@@@std@@@std@@@std@@QAEAAV01@XZ PROC ; std::_Vector_iterator<std::_Vector_val<AniEventInfo,std::allocator<AniEventInfo> > >::operator++, COMDAT
; _this$ = ecx

; 331  : 		{	// preincrement

  00000	8b c1		 mov	 eax, ecx

; 332  : 		++*(_Mybase *)this;

  00002	83 00 20	 add	 DWORD PTR [eax], 32	; 00000020H

; 333  : 		return (*this);
; 334  : 		}

  00005	c3		 ret	 0
??E?$_Vector_iterator@V?$_Vector_val@UAniEventInfo@@V?$allocator@UAniEventInfo@@@std@@@std@@@std@@QAEAAV01@XZ ENDP ; std::_Vector_iterator<std::_Vector_val<AniEventInfo,std::allocator<AniEventInfo> > >::operator++
_TEXT	ENDS
PUBLIC	??D?$_Vector_iterator@V?$_Vector_val@UtagAniSoundEventInfo@@V?$allocator@UtagAniSoundEventInfo@@@std@@@std@@@std@@QBEAAUtagAniSoundEventInfo@@XZ ; std::_Vector_iterator<std::_Vector_val<tagAniSoundEventInfo,std::allocator<tagAniSoundEventInfo> > >::operator*
; Function compile flags: /Ogsp
;	COMDAT ??D?$_Vector_iterator@V?$_Vector_val@UtagAniSoundEventInfo@@V?$allocator@UtagAniSoundEventInfo@@@std@@@std@@@std@@QBEAAUtagAniSoundEventInfo@@XZ
_TEXT	SEGMENT
??D?$_Vector_iterator@V?$_Vector_val@UtagAniSoundEventInfo@@V?$allocator@UtagAniSoundEventInfo@@@std@@@std@@@std@@QBEAAUtagAniSoundEventInfo@@XZ PROC ; std::_Vector_iterator<std::_Vector_val<tagAniSoundEventInfo,std::allocator<tagAniSoundEventInfo> > >::operator*, COMDAT
; _this$ = ecx

; 322  : 		return ((reference)**(_Mybase *)this);

  00000	8b 01		 mov	 eax, DWORD PTR [ecx]

; 323  : 		}

  00002	c3		 ret	 0
??D?$_Vector_iterator@V?$_Vector_val@UtagAniSoundEventInfo@@V?$allocator@UtagAniSoundEventInfo@@@std@@@std@@@std@@QBEAAUtagAniSoundEventInfo@@XZ ENDP ; std::_Vector_iterator<std::_Vector_val<tagAniSoundEventInfo,std::allocator<tagAniSoundEventInfo> > >::operator*
_TEXT	ENDS
PUBLIC	??E?$_Vector_iterator@V?$_Vector_val@UtagAniSoundEventInfo@@V?$allocator@UtagAniSoundEventInfo@@@std@@@std@@@std@@QAEAAV01@XZ ; std::_Vector_iterator<std::_Vector_val<tagAniSoundEventInfo,std::allocator<tagAniSoundEventInfo> > >::operator++
; Function compile flags: /Ogsp
;	COMDAT ??E?$_Vector_iterator@V?$_Vector_val@UtagAniSoundEventInfo@@V?$allocator@UtagAniSoundEventInfo@@@std@@@std@@@std@@QAEAAV01@XZ
_TEXT	SEGMENT
??E?$_Vector_iterator@V?$_Vector_val@UtagAniSoundEventInfo@@V?$allocator@UtagAniSoundEventInfo@@@std@@@std@@@std@@QAEAAV01@XZ PROC ; std::_Vector_iterator<std::_Vector_val<tagAniSoundEventInfo,std::allocator<tagAniSoundEventInfo> > >::operator++, COMDAT
; _this$ = ecx

; 331  : 		{	// preincrement

  00000	8b c1		 mov	 eax, ecx

; 332  : 		++*(_Mybase *)this;

  00002	83 00 24	 add	 DWORD PTR [eax], 36	; 00000024H

; 333  : 		return (*this);
; 334  : 		}

  00005	c3		 ret	 0
??E?$_Vector_iterator@V?$_Vector_val@UtagAniSoundEventInfo@@V?$allocator@UtagAniSoundEventInfo@@@std@@@std@@@std@@QAEAAV01@XZ ENDP ; std::_Vector_iterator<std::_Vector_val<tagAniSoundEventInfo,std::allocator<tagAniSoundEventInfo> > >::operator++
_TEXT	ENDS
PUBLIC	??0?$_Vector_val@UAniEventInfo@@V?$allocator@UAniEventInfo@@@std@@@std@@QAE@V?$allocator@UAniEventInfo@@@1@@Z ; std::_Vector_val<AniEventInfo,std::allocator<AniEventInfo> >::_Vector_val<AniEventInfo,std::allocator<AniEventInfo> >
; Function compile flags: /Ogsp
;	COMDAT ??0?$_Vector_val@UAniEventInfo@@V?$allocator@UAniEventInfo@@@std@@@std@@QAE@V?$allocator@UAniEventInfo@@@1@@Z
_TEXT	SEGMENT
__Al$ = 8						; size = 1
??0?$_Vector_val@UAniEventInfo@@V?$allocator@UAniEventInfo@@@std@@@std@@QAE@V?$allocator@UAniEventInfo@@@1@@Z PROC ; std::_Vector_val<AniEventInfo,std::allocator<AniEventInfo> >::_Vector_val<AniEventInfo,std::allocator<AniEventInfo> >, COMDAT
; _this$ = ecx

; 426  : 		{	// construct allocator from _Al

  00000	8b c1		 mov	 eax, ecx

; 427  : 		_Myfirst = 0;

  00002	33 c9		 xor	 ecx, ecx
  00004	89 08		 mov	 DWORD PTR [eax], ecx

; 428  : 		_Mylast = 0;

  00006	89 48 04	 mov	 DWORD PTR [eax+4], ecx

; 429  : 		_Myend = 0;

  00009	89 48 08	 mov	 DWORD PTR [eax+8], ecx

; 430  : 		}

  0000c	c2 04 00	 ret	 4
??0?$_Vector_val@UAniEventInfo@@V?$allocator@UAniEventInfo@@@std@@@std@@QAE@V?$allocator@UAniEventInfo@@@1@@Z ENDP ; std::_Vector_val<AniEventInfo,std::allocator<AniEventInfo> >::_Vector_val<AniEventInfo,std::allocator<AniEventInfo> >
_TEXT	ENDS
PUBLIC	??0?$_Vector_val@UtagAniSoundEventInfo@@V?$allocator@UtagAniSoundEventInfo@@@std@@@std@@QAE@V?$allocator@UtagAniSoundEventInfo@@@1@@Z ; std::_Vector_val<tagAniSoundEventInfo,std::allocator<tagAniSoundEventInfo> >::_Vector_val<tagAniSoundEventInfo,std::allocator<tagAniSoundEventInfo> >
; Function compile flags: /Ogsp
;	COMDAT ??0?$_Vector_val@UtagAniSoundEventInfo@@V?$allocator@UtagAniSoundEventInfo@@@std@@@std@@QAE@V?$allocator@UtagAniSoundEventInfo@@@1@@Z
_TEXT	SEGMENT
__Al$ = 8						; size = 1
??0?$_Vector_val@UtagAniSoundEventInfo@@V?$allocator@UtagAniSoundEventInfo@@@std@@@std@@QAE@V?$allocator@UtagAniSoundEventInfo@@@1@@Z PROC ; std::_Vector_val<tagAniSoundEventInfo,std::allocator<tagAniSoundEventInfo> >::_Vector_val<tagAniSoundEventInfo,std::allocator<tagAniSoundEventInfo> >, COMDAT
; _this$ = ecx

; 426  : 		{	// construct allocator from _Al

  00000	8b c1		 mov	 eax, ecx

; 427  : 		_Myfirst = 0;

  00002	33 c9		 xor	 ecx, ecx
  00004	89 08		 mov	 DWORD PTR [eax], ecx

; 428  : 		_Mylast = 0;

  00006	89 48 04	 mov	 DWORD PTR [eax+4], ecx

; 429  : 		_Myend = 0;

  00009	89 48 08	 mov	 DWORD PTR [eax+8], ecx

; 430  : 		}

  0000c	c2 04 00	 ret	 4
??0?$_Vector_val@UtagAniSoundEventInfo@@V?$allocator@UtagAniSoundEventInfo@@@std@@@std@@QAE@V?$allocator@UtagAniSoundEventInfo@@@1@@Z ENDP ; std::_Vector_val<tagAniSoundEventInfo,std::allocator<tagAniSoundEventInfo> >::_Vector_val<tagAniSoundEventInfo,std::allocator<tagAniSoundEventInfo> >
_TEXT	ENDS
PUBLIC	??8?$_Vector_const_iterator@V?$_Vector_val@UAniEventInfo@@V?$allocator@UAniEventInfo@@@std@@@std@@@std@@QBE_NABV01@@Z ; std::_Vector_const_iterator<std::_Vector_val<AniEventInfo,std::allocator<AniEventInfo> > >::operator==
; Function compile flags: /Ogsp
;	COMDAT ??8?$_Vector_const_iterator@V?$_Vector_val@UAniEventInfo@@V?$allocator@UAniEventInfo@@@std@@@std@@@std@@QBE_NABV01@@Z
_TEXT	SEGMENT
__Right$ = 8						; size = 4
??8?$_Vector_const_iterator@V?$_Vector_val@UAniEventInfo@@V?$allocator@UAniEventInfo@@@std@@@std@@@std@@QBE_NABV01@@Z PROC ; std::_Vector_const_iterator<std::_Vector_val<AniEventInfo,std::allocator<AniEventInfo> > >::operator==, COMDAT
; _this$ = ecx

; 201  : 		{	// test for iterator equality

  00000	55		 push	 ebp
  00001	8b ec		 mov	 ebp, esp

; 202  : 		_Compat(_Right);
; 203  : 		return (this->_Ptr == _Right._Ptr);

  00003	8b 01		 mov	 eax, DWORD PTR [ecx]
  00005	8b 4d 08	 mov	 ecx, DWORD PTR __Right$[ebp]
  00008	2b 01		 sub	 eax, DWORD PTR [ecx]
  0000a	f7 d8		 neg	 eax
  0000c	1b c0		 sbb	 eax, eax
  0000e	40		 inc	 eax

; 204  : 		}

  0000f	5d		 pop	 ebp
  00010	c2 04 00	 ret	 4
??8?$_Vector_const_iterator@V?$_Vector_val@UAniEventInfo@@V?$allocator@UAniEventInfo@@@std@@@std@@@std@@QBE_NABV01@@Z ENDP ; std::_Vector_const_iterator<std::_Vector_val<AniEventInfo,std::allocator<AniEventInfo> > >::operator==
_TEXT	ENDS
PUBLIC	??8?$_Vector_const_iterator@V?$_Vector_val@UtagAniSoundEventInfo@@V?$allocator@UtagAniSoundEventInfo@@@std@@@std@@@std@@QBE_NABV01@@Z ; std::_Vector_const_iterator<std::_Vector_val<tagAniSoundEventInfo,std::allocator<tagAniSoundEventInfo> > >::operator==
; Function compile flags: /Ogsp
;	COMDAT ??8?$_Vector_const_iterator@V?$_Vector_val@UtagAniSoundEventInfo@@V?$allocator@UtagAniSoundEventInfo@@@std@@@std@@@std@@QBE_NABV01@@Z
_TEXT	SEGMENT
__Right$ = 8						; size = 4
??8?$_Vector_const_iterator@V?$_Vector_val@UtagAniSoundEventInfo@@V?$allocator@UtagAniSoundEventInfo@@@std@@@std@@@std@@QBE_NABV01@@Z PROC ; std::_Vector_const_iterator<std::_Vector_val<tagAniSoundEventInfo,std::allocator<tagAniSoundEventInfo> > >::operator==, COMDAT
; _this$ = ecx

; 201  : 		{	// test for iterator equality

  00000	55		 push	 ebp
  00001	8b ec		 mov	 ebp, esp

; 202  : 		_Compat(_Right);
; 203  : 		return (this->_Ptr == _Right._Ptr);

  00003	8b 01		 mov	 eax, DWORD PTR [ecx]
  00005	8b 4d 08	 mov	 ecx, DWORD PTR __Right$[ebp]
  00008	2b 01		 sub	 eax, DWORD PTR [ecx]
  0000a	f7 d8		 neg	 eax
  0000c	1b c0		 sbb	 eax, eax
  0000e	40		 inc	 eax

; 204  : 		}

  0000f	5d		 pop	 ebp
  00010	c2 04 00	 ret	 4
??8?$_Vector_const_iterator@V?$_Vector_val@UtagAniSoundEventInfo@@V?$allocator@UtagAniSoundEventInfo@@@std@@@std@@@std@@QBE_NABV01@@Z ENDP ; std::_Vector_const_iterator<std::_Vector_val<tagAniSoundEventInfo,std::allocator<tagAniSoundEventInfo> > >::operator==
_TEXT	ENDS
PUBLIC	?max_size@?$vector@UAniEventInfo@@V?$allocator@UAniEventInfo@@@std@@@std@@QBEIXZ ; std::vector<AniEventInfo,std::allocator<AniEventInfo> >::max_size
; Function compile flags: /Ogsp
;	COMDAT ?max_size@?$vector@UAniEventInfo@@V?$allocator@UAniEventInfo@@@std@@@std@@QBEIXZ
_TEXT	SEGMENT
?max_size@?$vector@UAniEventInfo@@V?$allocator@UAniEventInfo@@@std@@@std@@QBEIXZ PROC ; std::vector<AniEventInfo,std::allocator<AniEventInfo> >::max_size, COMDAT
; _this$ = ecx

; 884  : 		return (this->_Alval.max_size());

  00000	b8 ff ff ff 07	 mov	 eax, 134217727		; 07ffffffH

; 885  : 		}

  00005	c3		 ret	 0
?max_size@?$vector@UAniEventInfo@@V?$allocator@UAniEventInfo@@@std@@@std@@QBEIXZ ENDP ; std::vector<AniEventInfo,std::allocator<AniEventInfo> >::max_size
_TEXT	ENDS
PUBLIC	?_Grow_to@?$vector@UAniEventInfo@@V?$allocator@UAniEventInfo@@@std@@@std@@IBEII@Z ; std::vector<AniEventInfo,std::allocator<AniEventInfo> >::_Grow_to
; Function compile flags: /Ogsp
;	COMDAT ?_Grow_to@?$vector@UAniEventInfo@@V?$allocator@UAniEventInfo@@@std@@@std@@IBEII@Z
_TEXT	SEGMENT
__Count$ = 8						; size = 4
?_Grow_to@?$vector@UAniEventInfo@@V?$allocator@UAniEventInfo@@@std@@@std@@IBEII@Z PROC ; std::vector<AniEventInfo,std::allocator<AniEventInfo> >::_Grow_to, COMDAT
; _this$ = ecx

; 1274 : 		{	// grow by 50% or at least to _Count

  00000	55		 push	 ebp
  00001	8b ec		 mov	 ebp, esp

; 1275 : 		size_type _Capacity = capacity();

  00003	8b 41 08	 mov	 eax, DWORD PTR [ecx+8]
  00006	2b 01		 sub	 eax, DWORD PTR [ecx]

; 1276 : 
; 1277 : 		_Capacity = max_size() - _Capacity / 2 < _Capacity
; 1278 : 			? 0 : _Capacity + _Capacity / 2;	// try to grow by 50%

  00008	ba ff ff ff 07	 mov	 edx, 134217727		; 07ffffffH
  0000d	c1 f8 05	 sar	 eax, 5
  00010	8b c8		 mov	 ecx, eax
  00012	d1 e9		 shr	 ecx, 1
  00014	2b d1		 sub	 edx, ecx
  00016	3b d0		 cmp	 edx, eax
  00018	73 04		 jae	 SHORT $LN4@Grow_to
  0001a	33 c0		 xor	 eax, eax
  0001c	eb 02		 jmp	 SHORT $LN5@Grow_to
$LN4@Grow_to:
  0001e	03 c1		 add	 eax, ecx
$LN5@Grow_to:

; 1279 : 		if (_Capacity < _Count)

  00020	3b 45 08	 cmp	 eax, DWORD PTR __Count$[ebp]

; 1280 : 			_Capacity = _Count;

  00023	0f 42 45 08	 cmovb	 eax, DWORD PTR __Count$[ebp]

; 1281 : 		return (_Capacity);
; 1282 : 		}

  00027	5d		 pop	 ebp
  00028	c2 04 00	 ret	 4
?_Grow_to@?$vector@UAniEventInfo@@V?$allocator@UAniEventInfo@@@std@@@std@@IBEII@Z ENDP ; std::vector<AniEventInfo,std::allocator<AniEventInfo> >::_Grow_to
_TEXT	ENDS
PUBLIC	?max_size@?$vector@UtagAniSoundEventInfo@@V?$allocator@UtagAniSoundEventInfo@@@std@@@std@@QBEIXZ ; std::vector<tagAniSoundEventInfo,std::allocator<tagAniSoundEventInfo> >::max_size
; Function compile flags: /Ogsp
;	COMDAT ?max_size@?$vector@UtagAniSoundEventInfo@@V?$allocator@UtagAniSoundEventInfo@@@std@@@std@@QBEIXZ
_TEXT	SEGMENT
?max_size@?$vector@UtagAniSoundEventInfo@@V?$allocator@UtagAniSoundEventInfo@@@std@@@std@@QBEIXZ PROC ; std::vector<tagAniSoundEventInfo,std::allocator<tagAniSoundEventInfo> >::max_size, COMDAT
; _this$ = ecx

; 884  : 		return (this->_Alval.max_size());

  00000	b8 c7 71 1c 07	 mov	 eax, 119304647		; 071c71c7H

; 885  : 		}

  00005	c3		 ret	 0
?max_size@?$vector@UtagAniSoundEventInfo@@V?$allocator@UtagAniSoundEventInfo@@@std@@@std@@QBEIXZ ENDP ; std::vector<tagAniSoundEventInfo,std::allocator<tagAniSoundEventInfo> >::max_size
_TEXT	ENDS
PUBLIC	?_Grow_to@?$vector@UtagAniSoundEventInfo@@V?$allocator@UtagAniSoundEventInfo@@@std@@@std@@IBEII@Z ; std::vector<tagAniSoundEventInfo,std::allocator<tagAniSoundEventInfo> >::_Grow_to
; Function compile flags: /Ogsp
;	COMDAT ?_Grow_to@?$vector@UtagAniSoundEventInfo@@V?$allocator@UtagAniSoundEventInfo@@@std@@@std@@IBEII@Z
_TEXT	SEGMENT
__Count$ = 8						; size = 4
?_Grow_to@?$vector@UtagAniSoundEventInfo@@V?$allocator@UtagAniSoundEventInfo@@@std@@@std@@IBEII@Z PROC ; std::vector<tagAniSoundEventInfo,std::allocator<tagAniSoundEventInfo> >::_Grow_to, COMDAT
; _this$ = ecx

; 1274 : 		{	// grow by 50% or at least to _Count

  00000	55		 push	 ebp
  00001	8b ec		 mov	 ebp, esp

; 1275 : 		size_type _Capacity = capacity();

  00003	8b 41 08	 mov	 eax, DWORD PTR [ecx+8]
  00006	2b 01		 sub	 eax, DWORD PTR [ecx]
  00008	6a 24		 push	 36			; 00000024H
  0000a	99		 cdq
  0000b	59		 pop	 ecx
  0000c	f7 f9		 idiv	 ecx

; 1276 : 
; 1277 : 		_Capacity = max_size() - _Capacity / 2 < _Capacity
; 1278 : 			? 0 : _Capacity + _Capacity / 2;	// try to grow by 50%

  0000e	ba c7 71 1c 07	 mov	 edx, 119304647		; 071c71c7H
  00013	8b c8		 mov	 ecx, eax
  00015	d1 e9		 shr	 ecx, 1
  00017	2b d1		 sub	 edx, ecx
  00019	3b d0		 cmp	 edx, eax
  0001b	73 04		 jae	 SHORT $LN4@Grow_to@2
  0001d	33 c0		 xor	 eax, eax
  0001f	eb 02		 jmp	 SHORT $LN5@Grow_to@2
$LN4@Grow_to@2:
  00021	03 c1		 add	 eax, ecx
$LN5@Grow_to@2:

; 1279 : 		if (_Capacity < _Count)

  00023	3b 45 08	 cmp	 eax, DWORD PTR __Count$[ebp]

; 1280 : 			_Capacity = _Count;

  00026	0f 42 45 08	 cmovb	 eax, DWORD PTR __Count$[ebp]

; 1281 : 		return (_Capacity);
; 1282 : 		}

  0002a	5d		 pop	 ebp
  0002b	c2 04 00	 ret	 4
?_Grow_to@?$vector@UtagAniSoundEventInfo@@V?$allocator@UtagAniSoundEventInfo@@@std@@@std@@IBEII@Z ENDP ; std::vector<tagAniSoundEventInfo,std::allocator<tagAniSoundEventInfo> >::_Grow_to
_TEXT	ENDS
PUBLIC	??0?$_Vector_const_iterator@V?$_Vector_val@UAniEventInfo@@V?$allocator@UAniEventInfo@@@std@@@std@@@std@@QAE@PAUAniEventInfo@@PBU_Container_base0@1@@Z ; std::_Vector_const_iterator<std::_Vector_val<AniEventInfo,std::allocator<AniEventInfo> > >::_Vector_const_iterator<std::_Vector_val<AniEventInfo,std::allocator<AniEventInfo> > >
; Function compile flags: /Ogsp
;	COMDAT ??0?$_Vector_const_iterator@V?$_Vector_val@UAniEventInfo@@V?$allocator@UAniEventInfo@@@std@@@std@@@std@@QAE@PAUAniEventInfo@@PBU_Container_base0@1@@Z
_TEXT	SEGMENT
__Parg$ = 8						; size = 4
__Pvector$ = 12						; size = 4
??0?$_Vector_const_iterator@V?$_Vector_val@UAniEventInfo@@V?$allocator@UAniEventInfo@@@std@@@std@@@std@@QAE@PAUAniEventInfo@@PBU_Container_base0@1@@Z PROC ; std::_Vector_const_iterator<std::_Vector_val<AniEventInfo,std::allocator<AniEventInfo> > >::_Vector_const_iterator<std::_Vector_val<AniEventInfo,std::allocator<AniEventInfo> > >, COMDAT
; _this$ = ecx

; 45   : 		{	// construct with pointer _Parg

  00000	55		 push	 ebp
  00001	8b ec		 mov	 ebp, esp
  00003	8b c1		 mov	 eax, ecx
  00005	8b 4d 08	 mov	 ecx, DWORD PTR __Parg$[ebp]
  00008	89 08		 mov	 DWORD PTR [eax], ecx

; 46   : 		this->_Adopt(_Pvector);
; 47   : 		}

  0000a	5d		 pop	 ebp
  0000b	c2 08 00	 ret	 8
??0?$_Vector_const_iterator@V?$_Vector_val@UAniEventInfo@@V?$allocator@UAniEventInfo@@@std@@@std@@@std@@QAE@PAUAniEventInfo@@PBU_Container_base0@1@@Z ENDP ; std::_Vector_const_iterator<std::_Vector_val<AniEventInfo,std::allocator<AniEventInfo> > >::_Vector_const_iterator<std::_Vector_val<AniEventInfo,std::allocator<AniEventInfo> > >
_TEXT	ENDS
PUBLIC	??0?$_Vector_const_iterator@V?$_Vector_val@UtagAniSoundEventInfo@@V?$allocator@UtagAniSoundEventInfo@@@std@@@std@@@std@@QAE@PAUtagAniSoundEventInfo@@PBU_Container_base0@1@@Z ; std::_Vector_const_iterator<std::_Vector_val<tagAniSoundEventInfo,std::allocator<tagAniSoundEventInfo> > >::_Vector_const_iterator<std::_Vector_val<tagAniSoundEventInfo,std::allocator<tagAniSoundEventInfo> > >
; Function compile flags: /Ogsp
;	COMDAT ??0?$_Vector_const_iterator@V?$_Vector_val@UtagAniSoundEventInfo@@V?$allocator@UtagAniSoundEventInfo@@@std@@@std@@@std@@QAE@PAUtagAniSoundEventInfo@@PBU_Container_base0@1@@Z
_TEXT	SEGMENT
__Parg$ = 8						; size = 4
__Pvector$ = 12						; size = 4
??0?$_Vector_const_iterator@V?$_Vector_val@UtagAniSoundEventInfo@@V?$allocator@UtagAniSoundEventInfo@@@std@@@std@@@std@@QAE@PAUtagAniSoundEventInfo@@PBU_Container_base0@1@@Z PROC ; std::_Vector_const_iterator<std::_Vector_val<tagAniSoundEventInfo,std::allocator<tagAniSoundEventInfo> > >::_Vector_const_iterator<std::_Vector_val<tagAniSoundEventInfo,std::allocator<tagAniSoundEventInfo> > >, COMDAT
; _this$ = ecx

; 45   : 		{	// construct with pointer _Parg

  00000	55		 push	 ebp
  00001	8b ec		 mov	 ebp, esp
  00003	8b c1		 mov	 eax, ecx
  00005	8b 4d 08	 mov	 ecx, DWORD PTR __Parg$[ebp]
  00008	89 08		 mov	 DWORD PTR [eax], ecx

; 46   : 		this->_Adopt(_Pvector);
; 47   : 		}

  0000a	5d		 pop	 ebp
  0000b	c2 08 00	 ret	 8
??0?$_Vector_const_iterator@V?$_Vector_val@UtagAniSoundEventInfo@@V?$allocator@UtagAniSoundEventInfo@@@std@@@std@@@std@@QAE@PAUtagAniSoundEventInfo@@PBU_Container_base0@1@@Z ENDP ; std::_Vector_const_iterator<std::_Vector_val<tagAniSoundEventInfo,std::allocator<tagAniSoundEventInfo> > >::_Vector_const_iterator<std::_Vector_val<tagAniSoundEventInfo,std::allocator<tagAniSoundEventInfo> > >
_TEXT	ENDS
PUBLIC	?allocate@?$allocator@UAniEventInfo@@@std@@QAEPAUAniEventInfo@@I@Z ; std::allocator<AniEventInfo>::allocate
; Function compile flags: /Ogsp
; File c:\program files (x86)\microsoft visual studio 10.0\vc\include\xmemory
;	COMDAT ?allocate@?$allocator@UAniEventInfo@@@std@@QAEPAUAniEventInfo@@I@Z
_TEXT	SEGMENT
__Count$ = 8						; size = 4
?allocate@?$allocator@UAniEventInfo@@@std@@QAEPAUAniEventInfo@@I@Z PROC ; std::allocator<AniEventInfo>::allocate, COMDAT
; _this$ = ecx

; 186  : 		{	// allocate array of _Count elements

  00000	55		 push	 ebp
  00001	8b ec		 mov	 ebp, esp

; 187  : 		return (_Allocate(_Count, (pointer)0));

  00003	6a 00		 push	 0
  00005	ff 75 08	 push	 DWORD PTR __Count$[ebp]
  00008	e8 00 00 00 00	 call	 ??$_Allocate@UAniEventInfo@@@std@@YAPAUAniEventInfo@@IPAU1@@Z ; std::_Allocate<AniEventInfo>
  0000d	59		 pop	 ecx
  0000e	59		 pop	 ecx

; 188  : 		}

  0000f	5d		 pop	 ebp
  00010	c2 04 00	 ret	 4
?allocate@?$allocator@UAniEventInfo@@@std@@QAEPAUAniEventInfo@@I@Z ENDP ; std::allocator<AniEventInfo>::allocate
_TEXT	ENDS
PUBLIC	?allocate@?$allocator@UtagAniSoundEventInfo@@@std@@QAEPAUtagAniSoundEventInfo@@I@Z ; std::allocator<tagAniSoundEventInfo>::allocate
; Function compile flags: /Ogsp
;	COMDAT ?allocate@?$allocator@UtagAniSoundEventInfo@@@std@@QAEPAUtagAniSoundEventInfo@@I@Z
_TEXT	SEGMENT
__Count$ = 8						; size = 4
?allocate@?$allocator@UtagAniSoundEventInfo@@@std@@QAEPAUtagAniSoundEventInfo@@I@Z PROC ; std::allocator<tagAniSoundEventInfo>::allocate, COMDAT
; _this$ = ecx

; 186  : 		{	// allocate array of _Count elements

  00000	55		 push	 ebp
  00001	8b ec		 mov	 ebp, esp

; 187  : 		return (_Allocate(_Count, (pointer)0));

  00003	6a 00		 push	 0
  00005	ff 75 08	 push	 DWORD PTR __Count$[ebp]
  00008	e8 00 00 00 00	 call	 ??$_Allocate@UtagAniSoundEventInfo@@@std@@YAPAUtagAniSoundEventInfo@@IPAU1@@Z ; std::_Allocate<tagAniSoundEventInfo>
  0000d	59		 pop	 ecx
  0000e	59		 pop	 ecx

; 188  : 		}

  0000f	5d		 pop	 ebp
  00010	c2 04 00	 ret	 4
?allocate@?$allocator@UtagAniSoundEventInfo@@@std@@QAEPAUtagAniSoundEventInfo@@I@Z ENDP ; std::allocator<tagAniSoundEventInfo>::allocate
_TEXT	ENDS
PUBLIC	__$ArrayPad$
PUBLIC	??$?8$0M@@@YA_NABVioHashString@@AAY0M@$$CBD@Z	; operator==<12>
EXTRN	__imp_?c_str@ioHashString@@QBEPBDXZ:PROC
EXTRN	___security_cookie:DWORD
; Function compile flags: /Ogsp
; File d:\lost saga for developer\youtube\tutorial\source\src\io3dengine\iohashstring.h
;	COMDAT ??$?8$0M@@@YA_NABVioHashString@@AAY0M@$$CBD@Z
_TEXT	SEGMENT
__t$ = -20						; size = 12
__$ArrayPad$ = -4					; size = 4
_lhs$ = 8						; size = 4
_t$ = 12						; size = 4
??$?8$0M@@@YA_NABVioHashString@@AAY0M@$$CBD@Z PROC	; operator==<12>, COMDAT

; 146  : {

  00000	55		 push	 ebp
  00001	8b ec		 mov	 ebp, esp
  00003	83 ec 14	 sub	 esp, 20			; 00000014H
  00006	a1 00 00 00 00	 mov	 eax, DWORD PTR ___security_cookie
  0000b	33 c5		 xor	 eax, ebp
  0000d	89 45 fc	 mov	 DWORD PTR __$ArrayPad$[ebp], eax
  00010	8b 45 0c	 mov	 eax, DWORD PTR _t$[ebp]

; 147  : 	_ENCSTR(t, _t); return ( strcmp( lhs.c_str(), _t ) == 0 );

  00013	8a 10		 mov	 dl, BYTE PTR [eax]
  00015	56		 push	 esi
  00016	57		 push	 edi
  00017	8b 7d 08	 mov	 edi, DWORD PTR _lhs$[ebp]
  0001a	84 d2		 test	 dl, dl
  0001c	0f 84 32 01 00
	00		 je	 $LN96@operator
  00022	80 f2 ed	 xor	 dl, -19			; ffffffedH
  00025	88 55 ec	 mov	 BYTE PTR __t$[ebp], dl
  00028	8a 50 01	 mov	 dl, BYTE PTR [eax+1]
  0002b	84 d2		 test	 dl, dl
  0002d	0f 84 1b 01 00
	00		 je	 $LN95@operator
  00033	80 f2 ec	 xor	 dl, -20			; ffffffecH
  00036	88 55 ed	 mov	 BYTE PTR __t$[ebp+1], dl
  00039	8a 50 02	 mov	 dl, BYTE PTR [eax+2]
  0003c	84 d2		 test	 dl, dl
  0003e	0f 84 04 01 00
	00		 je	 $LN94@operator
  00044	b1 eb		 mov	 cl, -21			; ffffffebH
  00046	32 d1		 xor	 dl, cl
  00048	88 55 ee	 mov	 BYTE PTR __t$[ebp+2], dl
  0004b	8a 50 03	 mov	 dl, BYTE PTR [eax+3]
  0004e	84 d2		 test	 dl, dl
  00050	0f 84 ec 00 00
	00		 je	 $LN93@operator
  00056	80 f2 ea	 xor	 dl, -22			; ffffffeaH
  00059	88 55 ef	 mov	 BYTE PTR __t$[ebp+3], dl
  0005c	8a 50 04	 mov	 dl, BYTE PTR [eax+4]
  0005f	84 d2		 test	 dl, dl
  00061	0f 84 d5 00 00
	00		 je	 $LN92@operator
  00067	80 f2 ed	 xor	 dl, -19			; ffffffedH
  0006a	88 55 f0	 mov	 BYTE PTR __t$[ebp+4], dl
  0006d	8a 50 05	 mov	 dl, BYTE PTR [eax+5]
  00070	84 d2		 test	 dl, dl
  00072	0f 84 be 00 00
	00		 je	 $LN91@operator
  00078	80 f2 ec	 xor	 dl, -20			; ffffffecH
  0007b	88 55 f1	 mov	 BYTE PTR __t$[ebp+5], dl
  0007e	8a 50 06	 mov	 dl, BYTE PTR [eax+6]
  00081	84 d2		 test	 dl, dl
  00083	0f 84 a8 00 00
	00		 je	 $LN90@operator
  00089	32 d1		 xor	 dl, cl
  0008b	88 55 f2	 mov	 BYTE PTR __t$[ebp+6], dl
  0008e	8a 50 07	 mov	 dl, BYTE PTR [eax+7]
  00091	84 d2		 test	 dl, dl
  00093	0f 84 92 00 00
	00		 je	 $LN89@operator
  00099	80 f2 ea	 xor	 dl, -22			; ffffffeaH
  0009c	88 55 f3	 mov	 BYTE PTR __t$[ebp+7], dl
  0009f	8a 50 08	 mov	 dl, BYTE PTR [eax+8]
  000a2	84 d2		 test	 dl, dl
  000a4	74 7f		 je	 SHORT $LN88@operator
  000a6	80 f2 ed	 xor	 dl, -19			; ffffffedH
  000a9	88 55 f4	 mov	 BYTE PTR __t$[ebp+8], dl
  000ac	8a 50 09	 mov	 dl, BYTE PTR [eax+9]
  000af	84 d2		 test	 dl, dl
  000b1	74 6c		 je	 SHORT $LN87@operator
  000b3	80 f2 ec	 xor	 dl, -20			; ffffffecH
  000b6	88 55 f5	 mov	 BYTE PTR __t$[ebp+9], dl
  000b9	8a 50 0a	 mov	 dl, BYTE PTR [eax+10]
  000bc	84 d2		 test	 dl, dl
  000be	74 5a		 je	 SHORT $LN86@operator
  000c0	32 d1		 xor	 dl, cl
  000c2	80 78 0b 00	 cmp	 BYTE PTR [eax+11], 0
  000c6	88 55 f6	 mov	 BYTE PTR __t$[ebp+10], dl
  000c9	0f 84 89 00 00
	00		 je	 $LN1@operator
  000cf	8a 50 0c	 mov	 dl, BYTE PTR [eax+12]
  000d2	84 d2		 test	 dl, dl
  000d4	74 3e		 je	 SHORT $LN84@operator
  000d6	80 f2 ed	 xor	 dl, -19			; ffffffedH
  000d9	88 55 f8	 mov	 BYTE PTR __t$[ebp+12], dl
  000dc	8a 50 0d	 mov	 dl, BYTE PTR [eax+13]
  000df	84 d2		 test	 dl, dl
  000e1	74 2b		 je	 SHORT $LN83@operator
  000e3	80 f2 ec	 xor	 dl, -20			; ffffffecH
  000e6	88 55 f9	 mov	 BYTE PTR __t$[ebp+13], dl
  000e9	8a 50 0e	 mov	 dl, BYTE PTR [eax+14]
  000ec	84 d2		 test	 dl, dl
  000ee	74 19		 je	 SHORT $LN82@operator
  000f0	8a 40 0f	 mov	 al, BYTE PTR [eax+15]
  000f3	32 d1		 xor	 dl, cl
  000f5	88 55 fa	 mov	 BYTE PTR __t$[ebp+14], dl
  000f8	84 c0		 test	 al, al
  000fa	74 07		 je	 SHORT $LN81@operator
  000fc	34 ea		 xor	 al, -22			; ffffffeaH
  000fe	88 45 fb	 mov	 BYTE PTR __t$[ebp+15], al
  00101	eb 55		 jmp	 SHORT $LN1@operator
$LN81@operator:
  00103	c6 45 fb ea	 mov	 BYTE PTR __t$[ebp+15], -22 ; ffffffeaH
  00107	eb 4f		 jmp	 SHORT $LN1@operator
$LN82@operator:
  00109	88 4d fa	 mov	 BYTE PTR __t$[ebp+14], cl
  0010c	eb 4a		 jmp	 SHORT $LN1@operator
$LN83@operator:
  0010e	c6 45 f9 ec	 mov	 BYTE PTR __t$[ebp+13], -20 ; ffffffecH
  00112	eb 44		 jmp	 SHORT $LN1@operator
$LN84@operator:
  00114	c6 45 f8 ed	 mov	 BYTE PTR __t$[ebp+12], -19 ; ffffffedH
  00118	eb 3e		 jmp	 SHORT $LN1@operator
$LN86@operator:
  0011a	88 4d f6	 mov	 BYTE PTR __t$[ebp+10], cl
  0011d	eb 39		 jmp	 SHORT $LN1@operator
$LN87@operator:
  0011f	c6 45 f5 ec	 mov	 BYTE PTR __t$[ebp+9], -20 ; ffffffecH
  00123	eb 33		 jmp	 SHORT $LN1@operator
$LN88@operator:
  00125	c6 45 f4 ed	 mov	 BYTE PTR __t$[ebp+8], -19 ; ffffffedH
  00129	eb 2d		 jmp	 SHORT $LN1@operator
$LN89@operator:
  0012b	c6 45 f3 ea	 mov	 BYTE PTR __t$[ebp+7], -22 ; ffffffeaH
  0012f	eb 27		 jmp	 SHORT $LN1@operator
$LN90@operator:
  00131	88 4d f2	 mov	 BYTE PTR __t$[ebp+6], cl
  00134	eb 22		 jmp	 SHORT $LN1@operator
$LN91@operator:
  00136	c6 45 f1 ec	 mov	 BYTE PTR __t$[ebp+5], -20 ; ffffffecH
  0013a	eb 1c		 jmp	 SHORT $LN1@operator
$LN92@operator:
  0013c	c6 45 f0 ed	 mov	 BYTE PTR __t$[ebp+4], -19 ; ffffffedH
  00140	eb 16		 jmp	 SHORT $LN1@operator
$LN93@operator:
  00142	c6 45 ef ea	 mov	 BYTE PTR __t$[ebp+3], -22 ; ffffffeaH
  00146	eb 10		 jmp	 SHORT $LN1@operator
$LN94@operator:
  00148	c6 45 ee eb	 mov	 BYTE PTR __t$[ebp+2], -21 ; ffffffebH
  0014c	eb 0a		 jmp	 SHORT $LN1@operator
$LN95@operator:
  0014e	c6 45 ed ec	 mov	 BYTE PTR __t$[ebp+1], -20 ; ffffffecH
  00152	eb 04		 jmp	 SHORT $LN1@operator
$LN96@operator:
  00154	c6 45 ec ed	 mov	 BYTE PTR __t$[ebp], -19	; ffffffedH
$LN1@operator:
  00158	6a 02		 push	 2
  0015a	8d 45 ec	 lea	 eax, DWORD PTR __t$[ebp]
  0015d	c6 45 f7 00	 mov	 BYTE PTR __t$[ebp+11], 0
  00161	5a		 pop	 edx
$LL104@operator:
  00162	81 30 ed ec eb
	ea		 xor	 DWORD PTR [eax], -353637139 ; eaebecedH
  00168	83 c0 04	 add	 eax, 4
  0016b	4a		 dec	 edx
  0016c	75 f4		 jne	 SHORT $LL104@operator
  0016e	6a 08		 push	 8
  00170	58		 pop	 eax
$LL101@operator:
  00171	8b c8		 mov	 ecx, eax
  00173	81 e1 03 00 00
	80		 and	 ecx, -2147483645	; 80000003H
  00179	79 05		 jns	 SHORT $LN115@operator
  0017b	49		 dec	 ecx
  0017c	83 c9 fc	 or	 ecx, -4			; fffffffcH
  0017f	41		 inc	 ecx
$LN115@operator:
  00180	b2 ed		 mov	 dl, -19			; ffffffedH
  00182	2a d1		 sub	 dl, cl
  00184	30 54 05 ec	 xor	 BYTE PTR __t$[ebp+eax], dl
  00188	40		 inc	 eax
  00189	83 f8 0b	 cmp	 eax, 11			; 0000000bH
  0018c	7c e3		 jl	 SHORT $LL101@operator
  0018e	8b cf		 mov	 ecx, edi
  00190	8d 75 ec	 lea	 esi, DWORD PTR __t$[ebp]
  00193	ff 15 00 00 00
	00		 call	 DWORD PTR __imp_?c_str@ioHashString@@QBEPBDXZ
$LL111@operator:
  00199	8a 08		 mov	 cl, BYTE PTR [eax]
  0019b	3a 0e		 cmp	 cl, BYTE PTR [esi]
  0019d	75 1a		 jne	 SHORT $LN112@operator
  0019f	84 c9		 test	 cl, cl
  001a1	74 12		 je	 SHORT $LN113@operator
  001a3	8a 48 01	 mov	 cl, BYTE PTR [eax+1]
  001a6	3a 4e 01	 cmp	 cl, BYTE PTR [esi+1]
  001a9	75 0e		 jne	 SHORT $LN112@operator
  001ab	83 c0 02	 add	 eax, 2
  001ae	83 c6 02	 add	 esi, 2
  001b1	84 c9		 test	 cl, cl
  001b3	75 e4		 jne	 SHORT $LL111@operator
$LN113@operator:
  001b5	33 c0		 xor	 eax, eax
  001b7	eb 05		 jmp	 SHORT $LN114@operator
$LN112@operator:
  001b9	1b c0		 sbb	 eax, eax
  001bb	83 d8 ff	 sbb	 eax, -1
$LN114@operator:
  001be	33 c9		 xor	 ecx, ecx
  001c0	85 c0		 test	 eax, eax
  001c2	0f 94 c0	 sete	 al

; 148  : }

  001c5	8b 4d fc	 mov	 ecx, DWORD PTR __$ArrayPad$[ebp]
  001c8	5f		 pop	 edi
  001c9	33 cd		 xor	 ecx, ebp
  001cb	5e		 pop	 esi
  001cc	e8 00 00 00 00	 call	 @__security_check_cookie@4
  001d1	c9		 leave
  001d2	c3		 ret	 0
??$?8$0M@@@YA_NABVioHashString@@AAY0M@$$CBD@Z ENDP	; operator==<12>
_TEXT	ENDS
PUBLIC	__$ArrayPad$
PUBLIC	??$?8$0L@@@YA_NABVioHashString@@AAY0L@$$CBD@Z	; operator==<11>
; Function compile flags: /Ogsp
;	COMDAT ??$?8$0L@@@YA_NABVioHashString@@AAY0L@$$CBD@Z
_TEXT	SEGMENT
__t$ = -20						; size = 11
__$ArrayPad$ = -4					; size = 4
_lhs$ = 8						; size = 4
_t$ = 12						; size = 4
??$?8$0L@@@YA_NABVioHashString@@AAY0L@$$CBD@Z PROC	; operator==<11>, COMDAT

; 146  : {

  00000	55		 push	 ebp
  00001	8b ec		 mov	 ebp, esp
  00003	83 ec 14	 sub	 esp, 20			; 00000014H
  00006	a1 00 00 00 00	 mov	 eax, DWORD PTR ___security_cookie
  0000b	33 c5		 xor	 eax, ebp
  0000d	89 45 fc	 mov	 DWORD PTR __$ArrayPad$[ebp], eax
  00010	8b 45 0c	 mov	 eax, DWORD PTR _t$[ebp]

; 147  : 	_ENCSTR(t, _t); return ( strcmp( lhs.c_str(), _t ) == 0 );

  00013	8a 10		 mov	 dl, BYTE PTR [eax]
  00015	56		 push	 esi
  00016	57		 push	 edi
  00017	8b 7d 08	 mov	 edi, DWORD PTR _lhs$[ebp]
  0001a	84 d2		 test	 dl, dl
  0001c	0f 84 24 01 00
	00		 je	 $LN96@operator@2
  00022	80 f2 ed	 xor	 dl, -19			; ffffffedH
  00025	88 55 ec	 mov	 BYTE PTR __t$[ebp], dl
  00028	8a 50 01	 mov	 dl, BYTE PTR [eax+1]
  0002b	84 d2		 test	 dl, dl
  0002d	0f 84 0d 01 00
	00		 je	 $LN95@operator@2
  00033	80 f2 ec	 xor	 dl, -20			; ffffffecH
  00036	88 55 ed	 mov	 BYTE PTR __t$[ebp+1], dl
  00039	8a 50 02	 mov	 dl, BYTE PTR [eax+2]
  0003c	84 d2		 test	 dl, dl
  0003e	0f 84 f6 00 00
	00		 je	 $LN94@operator@2
  00044	80 f2 eb	 xor	 dl, -21			; ffffffebH
  00047	88 55 ee	 mov	 BYTE PTR __t$[ebp+2], dl
  0004a	8a 50 03	 mov	 dl, BYTE PTR [eax+3]
  0004d	84 d2		 test	 dl, dl
  0004f	0f 84 df 00 00
	00		 je	 $LN93@operator@2
  00055	80 f2 ea	 xor	 dl, -22			; ffffffeaH
  00058	88 55 ef	 mov	 BYTE PTR __t$[ebp+3], dl
  0005b	8a 50 04	 mov	 dl, BYTE PTR [eax+4]
  0005e	84 d2		 test	 dl, dl
  00060	0f 84 c8 00 00
	00		 je	 $LN92@operator@2
  00066	80 f2 ed	 xor	 dl, -19			; ffffffedH
  00069	88 55 f0	 mov	 BYTE PTR __t$[ebp+4], dl
  0006c	8a 50 05	 mov	 dl, BYTE PTR [eax+5]
  0006f	84 d2		 test	 dl, dl
  00071	0f 84 b1 00 00
	00		 je	 $LN91@operator@2
  00077	80 f2 ec	 xor	 dl, -20			; ffffffecH
  0007a	88 55 f1	 mov	 BYTE PTR __t$[ebp+5], dl
  0007d	8a 50 06	 mov	 dl, BYTE PTR [eax+6]
  00080	84 d2		 test	 dl, dl
  00082	0f 84 9a 00 00
	00		 je	 $LN90@operator@2
  00088	80 f2 eb	 xor	 dl, -21			; ffffffebH
  0008b	88 55 f2	 mov	 BYTE PTR __t$[ebp+6], dl
  0008e	8a 50 07	 mov	 dl, BYTE PTR [eax+7]
  00091	84 d2		 test	 dl, dl
  00093	0f 84 83 00 00
	00		 je	 $LN89@operator@2
  00099	80 f2 ea	 xor	 dl, -22			; ffffffeaH
  0009c	88 55 f3	 mov	 BYTE PTR __t$[ebp+7], dl
  0009f	8a 50 08	 mov	 dl, BYTE PTR [eax+8]
  000a2	84 d2		 test	 dl, dl
  000a4	74 70		 je	 SHORT $LN88@operator@2
  000a6	80 f2 ed	 xor	 dl, -19			; ffffffedH
  000a9	88 55 f4	 mov	 BYTE PTR __t$[ebp+8], dl
  000ac	8a 50 09	 mov	 dl, BYTE PTR [eax+9]
  000af	84 d2		 test	 dl, dl
  000b1	74 5d		 je	 SHORT $LN87@operator@2
  000b3	80 f2 ec	 xor	 dl, -20			; ffffffecH
  000b6	80 78 0a 00	 cmp	 BYTE PTR [eax+10], 0
  000ba	88 55 f5	 mov	 BYTE PTR __t$[ebp+9], dl
  000bd	0f 84 87 00 00
	00		 je	 $LN1@operator@2
  000c3	8a 50 0b	 mov	 dl, BYTE PTR [eax+11]
  000c6	84 d2		 test	 dl, dl
  000c8	74 40		 je	 SHORT $LN85@operator@2
  000ca	80 f2 ea	 xor	 dl, -22			; ffffffeaH
  000cd	88 55 f7	 mov	 BYTE PTR __t$[ebp+11], dl
  000d0	8a 50 0c	 mov	 dl, BYTE PTR [eax+12]
  000d3	84 d2		 test	 dl, dl
  000d5	74 2d		 je	 SHORT $LN84@operator@2
  000d7	80 f2 ed	 xor	 dl, -19			; ffffffedH
  000da	88 55 f8	 mov	 BYTE PTR __t$[ebp+12], dl
  000dd	8a 50 0d	 mov	 dl, BYTE PTR [eax+13]
  000e0	84 d2		 test	 dl, dl
  000e2	74 1a		 je	 SHORT $LN83@operator@2
  000e4	8a 40 0e	 mov	 al, BYTE PTR [eax+14]
  000e7	80 f2 ec	 xor	 dl, -20			; ffffffecH
  000ea	88 55 f9	 mov	 BYTE PTR __t$[ebp+13], dl
  000ed	84 c0		 test	 al, al
  000ef	74 07		 je	 SHORT $LN82@operator@2
  000f1	34 eb		 xor	 al, -21			; ffffffebH
  000f3	88 45 fa	 mov	 BYTE PTR __t$[ebp+14], al
  000f6	eb 52		 jmp	 SHORT $LN1@operator@2
$LN82@operator@2:
  000f8	c6 45 fa eb	 mov	 BYTE PTR __t$[ebp+14], -21 ; ffffffebH
  000fc	eb 4c		 jmp	 SHORT $LN1@operator@2
$LN83@operator@2:
  000fe	c6 45 f9 ec	 mov	 BYTE PTR __t$[ebp+13], -20 ; ffffffecH
  00102	eb 46		 jmp	 SHORT $LN1@operator@2
$LN84@operator@2:
  00104	c6 45 f8 ed	 mov	 BYTE PTR __t$[ebp+12], -19 ; ffffffedH
  00108	eb 40		 jmp	 SHORT $LN1@operator@2
$LN85@operator@2:
  0010a	c6 45 f7 ea	 mov	 BYTE PTR __t$[ebp+11], -22 ; ffffffeaH
  0010e	eb 3a		 jmp	 SHORT $LN1@operator@2
$LN87@operator@2:
  00110	c6 45 f5 ec	 mov	 BYTE PTR __t$[ebp+9], -20 ; ffffffecH
  00114	eb 34		 jmp	 SHORT $LN1@operator@2
$LN88@operator@2:
  00116	c6 45 f4 ed	 mov	 BYTE PTR __t$[ebp+8], -19 ; ffffffedH
  0011a	eb 2e		 jmp	 SHORT $LN1@operator@2
$LN89@operator@2:
  0011c	c6 45 f3 ea	 mov	 BYTE PTR __t$[ebp+7], -22 ; ffffffeaH
  00120	eb 28		 jmp	 SHORT $LN1@operator@2
$LN90@operator@2:
  00122	c6 45 f2 eb	 mov	 BYTE PTR __t$[ebp+6], -21 ; ffffffebH
  00126	eb 22		 jmp	 SHORT $LN1@operator@2
$LN91@operator@2:
  00128	c6 45 f1 ec	 mov	 BYTE PTR __t$[ebp+5], -20 ; ffffffecH
  0012c	eb 1c		 jmp	 SHORT $LN1@operator@2
$LN92@operator@2:
  0012e	c6 45 f0 ed	 mov	 BYTE PTR __t$[ebp+4], -19 ; ffffffedH
  00132	eb 16		 jmp	 SHORT $LN1@operator@2
$LN93@operator@2:
  00134	c6 45 ef ea	 mov	 BYTE PTR __t$[ebp+3], -22 ; ffffffeaH
  00138	eb 10		 jmp	 SHORT $LN1@operator@2
$LN94@operator@2:
  0013a	c6 45 ee eb	 mov	 BYTE PTR __t$[ebp+2], -21 ; ffffffebH
  0013e	eb 0a		 jmp	 SHORT $LN1@operator@2
$LN95@operator@2:
  00140	c6 45 ed ec	 mov	 BYTE PTR __t$[ebp+1], -20 ; ffffffecH
  00144	eb 04		 jmp	 SHORT $LN1@operator@2
$LN96@operator@2:
  00146	c6 45 ec ed	 mov	 BYTE PTR __t$[ebp], -19	; ffffffedH
$LN1@operator@2:
  0014a	6a 02		 push	 2
  0014c	8d 45 ec	 lea	 eax, DWORD PTR __t$[ebp]
  0014f	c6 45 f6 00	 mov	 BYTE PTR __t$[ebp+10], 0
  00153	5a		 pop	 edx
$LL104@operator@2:
  00154	81 30 ed ec eb
	ea		 xor	 DWORD PTR [eax], -353637139 ; eaebecedH
  0015a	83 c0 04	 add	 eax, 4
  0015d	4a		 dec	 edx
  0015e	75 f4		 jne	 SHORT $LL104@operator@2
  00160	6a 08		 push	 8
  00162	58		 pop	 eax
$LL101@operator@2:
  00163	8b c8		 mov	 ecx, eax
  00165	81 e1 03 00 00
	80		 and	 ecx, -2147483645	; 80000003H
  0016b	79 05		 jns	 SHORT $LN115@operator@2
  0016d	49		 dec	 ecx
  0016e	83 c9 fc	 or	 ecx, -4			; fffffffcH
  00171	41		 inc	 ecx
$LN115@operator@2:
  00172	b2 ed		 mov	 dl, -19			; ffffffedH
  00174	2a d1		 sub	 dl, cl
  00176	30 54 05 ec	 xor	 BYTE PTR __t$[ebp+eax], dl
  0017a	40		 inc	 eax
  0017b	83 f8 0a	 cmp	 eax, 10			; 0000000aH
  0017e	7c e3		 jl	 SHORT $LL101@operator@2
  00180	8b cf		 mov	 ecx, edi
  00182	8d 75 ec	 lea	 esi, DWORD PTR __t$[ebp]
  00185	ff 15 00 00 00
	00		 call	 DWORD PTR __imp_?c_str@ioHashString@@QBEPBDXZ
$LL111@operator@2:
  0018b	8a 08		 mov	 cl, BYTE PTR [eax]
  0018d	3a 0e		 cmp	 cl, BYTE PTR [esi]
  0018f	75 1a		 jne	 SHORT $LN112@operator@2
  00191	84 c9		 test	 cl, cl
  00193	74 12		 je	 SHORT $LN113@operator@2
  00195	8a 48 01	 mov	 cl, BYTE PTR [eax+1]
  00198	3a 4e 01	 cmp	 cl, BYTE PTR [esi+1]
  0019b	75 0e		 jne	 SHORT $LN112@operator@2
  0019d	83 c0 02	 add	 eax, 2
  001a0	83 c6 02	 add	 esi, 2
  001a3	84 c9		 test	 cl, cl
  001a5	75 e4		 jne	 SHORT $LL111@operator@2
$LN113@operator@2:
  001a7	33 c0		 xor	 eax, eax
  001a9	eb 05		 jmp	 SHORT $LN114@operator@2
$LN112@operator@2:
  001ab	1b c0		 sbb	 eax, eax
  001ad	83 d8 ff	 sbb	 eax, -1
$LN114@operator@2:
  001b0	33 c9		 xor	 ecx, ecx
  001b2	85 c0		 test	 eax, eax
  001b4	0f 94 c0	 sete	 al

; 148  : }

  001b7	8b 4d fc	 mov	 ecx, DWORD PTR __$ArrayPad$[ebp]
  001ba	5f		 pop	 edi
  001bb	33 cd		 xor	 ecx, ebp
  001bd	5e		 pop	 esi
  001be	e8 00 00 00 00	 call	 @__security_check_cookie@4
  001c3	c9		 leave
  001c4	c3		 ret	 0
??$?8$0L@@@YA_NABVioHashString@@AAY0L@$$CBD@Z ENDP	; operator==<11>
_TEXT	ENDS
PUBLIC	??$_Cons_val@V?$allocator@UAniEventInfo@@@std@@UAniEventInfo@@AAU3@@std@@YAXAAV?$allocator@UAniEventInfo@@@0@PAUAniEventInfo@@AAU2@@Z ; std::_Cons_val<std::allocator<AniEventInfo>,AniEventInfo,AniEventInfo &>
;	COMDAT xdata$x
; File c:\program files (x86)\microsoft visual studio 10.0\vc\include\utility
xdata$x	SEGMENT
__unwindtable$??$_Cons_val@V?$allocator@UAniEventInfo@@@std@@UAniEventInfo@@AAU3@@std@@YAXAAV?$allocator@UAniEventInfo@@@0@PAUAniEventInfo@@AAU2@@Z DD 0ffffffffH
	DD	FLAT:__unwindfunclet$??$_Cons_val@V?$allocator@UAniEventInfo@@@std@@UAniEventInfo@@AAU3@@std@@YAXAAV?$allocator@UAniEventInfo@@@0@PAUAniEventInfo@@AAU2@@Z$0
__ehfuncinfo$??$_Cons_val@V?$allocator@UAniEventInfo@@@std@@UAniEventInfo@@AAU3@@std@@YAXAAV?$allocator@UAniEventInfo@@@0@PAUAniEventInfo@@AAU2@@Z DD 019930522H
	DD	01H
	DD	FLAT:__unwindtable$??$_Cons_val@V?$allocator@UAniEventInfo@@@std@@UAniEventInfo@@AAU3@@std@@YAXAAV?$allocator@UAniEventInfo@@@0@PAUAniEventInfo@@AAU2@@Z
	DD	2 DUP(00H)
	DD	2 DUP(00H)
	DD	00H
	DD	01H
; Function compile flags: /Ogsp
; File c:\program files (x86)\microsoft visual studio 10.0\vc\include\xmemory
xdata$x	ENDS
;	COMDAT ??$_Cons_val@V?$allocator@UAniEventInfo@@@std@@UAniEventInfo@@AAU3@@std@@YAXAAV?$allocator@UAniEventInfo@@@0@PAUAniEventInfo@@AAU2@@Z
_TEXT	SEGMENT
$T508310 = -16						; size = 4
__$EHRec$ = -12						; size = 12
__Alval$ = 8						; size = 4
__Pdest$ = 12						; size = 4
__Src$ = 16						; size = 4
??$_Cons_val@V?$allocator@UAniEventInfo@@@std@@UAniEventInfo@@AAU3@@std@@YAXAAV?$allocator@UAniEventInfo@@@0@PAUAniEventInfo@@AAU2@@Z PROC ; std::_Cons_val<std::allocator<AniEventInfo>,AniEventInfo,AniEventInfo &>, COMDAT

; 279  : 	{	// construct using allocator

  00000	6a 04		 push	 4
  00002	b8 00 00 00 00	 mov	 eax, __ehhandler$??$_Cons_val@V?$allocator@UAniEventInfo@@@std@@UAniEventInfo@@AAU3@@std@@YAXAAV?$allocator@UAniEventInfo@@@0@PAUAniEventInfo@@AAU2@@Z
  00007	e8 00 00 00 00	 call	 __EH_prolog3

; 280  : 	_Alval.construct(_Pdest, _STD forward<_Ty2>(_Src));

  0000c	8b 4d 0c	 mov	 ecx, DWORD PTR __Pdest$[ebp]
  0000f	89 4d f0	 mov	 DWORD PTR $T508310[ebp], ecx
  00012	83 65 fc 00	 and	 DWORD PTR __$EHRec$[ebp+8], 0
  00016	85 c9		 test	 ecx, ecx
  00018	74 08		 je	 SHORT $LN7@Cons_val
  0001a	ff 75 10	 push	 DWORD PTR __Src$[ebp]
  0001d	e8 00 00 00 00	 call	 ??0AniEventInfo@@QAE@ABU0@@Z
$LN7@Cons_val:

; 281  : 	}

  00022	e8 00 00 00 00	 call	 __EH_epilog3
  00027	c3		 ret	 0
_TEXT	ENDS
;	COMDAT text$x
text$x	SEGMENT
__unwindfunclet$??$_Cons_val@V?$allocator@UAniEventInfo@@@std@@UAniEventInfo@@AAU3@@std@@YAXAAV?$allocator@UAniEventInfo@@@0@PAUAniEventInfo@@AAU2@@Z$0:
  00000	ff 75 0c	 push	 DWORD PTR __Pdest$[ebp]
  00003	ff 75 f0	 push	 DWORD PTR $T508310[ebp]
  00006	e8 00 00 00 00	 call	 ??3@YAXPAX0@Z		; operator delete
  0000b	59		 pop	 ecx
  0000c	59		 pop	 ecx
  0000d	c3		 ret	 0
__ehhandler$??$_Cons_val@V?$allocator@UAniEventInfo@@@std@@UAniEventInfo@@AAU3@@std@@YAXAAV?$allocator@UAniEventInfo@@@0@PAUAniEventInfo@@AAU2@@Z:
  0000e	8b 54 24 08	 mov	 edx, DWORD PTR [esp+8]
  00012	8d 42 0c	 lea	 eax, DWORD PTR [edx+12]
  00015	8b 4a ec	 mov	 ecx, DWORD PTR [edx-20]
  00018	33 c8		 xor	 ecx, eax
  0001a	e8 00 00 00 00	 call	 @__security_check_cookie@4
  0001f	b8 00 00 00 00	 mov	 eax, OFFSET __ehfuncinfo$??$_Cons_val@V?$allocator@UAniEventInfo@@@std@@UAniEventInfo@@AAU3@@std@@YAXAAV?$allocator@UAniEventInfo@@@0@PAUAniEventInfo@@AAU2@@Z
  00024	e9 00 00 00 00	 jmp	 ___CxxFrameHandler3
text$x	ENDS
??$_Cons_val@V?$allocator@UAniEventInfo@@@std@@UAniEventInfo@@AAU3@@std@@YAXAAV?$allocator@UAniEventInfo@@@0@PAUAniEventInfo@@AAU2@@Z ENDP ; std::_Cons_val<std::allocator<AniEventInfo>,AniEventInfo,AniEventInfo &>
PUBLIC	??$_Cons_val@V?$allocator@UtagAniSoundEventInfo@@@std@@UtagAniSoundEventInfo@@AAU3@@std@@YAXAAV?$allocator@UtagAniSoundEventInfo@@@0@PAUtagAniSoundEventInfo@@AAU2@@Z ; std::_Cons_val<std::allocator<tagAniSoundEventInfo>,tagAniSoundEventInfo,tagAniSoundEventInfo &>
;	COMDAT xdata$x
; File c:\program files (x86)\microsoft visual studio 10.0\vc\include\utility
xdata$x	SEGMENT
__unwindtable$??$_Cons_val@V?$allocator@UtagAniSoundEventInfo@@@std@@UtagAniSoundEventInfo@@AAU3@@std@@YAXAAV?$allocator@UtagAniSoundEventInfo@@@0@PAUtagAniSoundEventInfo@@AAU2@@Z DD 0ffffffffH
	DD	FLAT:__unwindfunclet$??$_Cons_val@V?$allocator@UtagAniSoundEventInfo@@@std@@UtagAniSoundEventInfo@@AAU3@@std@@YAXAAV?$allocator@UtagAniSoundEventInfo@@@0@PAUtagAniSoundEventInfo@@AAU2@@Z$0
__ehfuncinfo$??$_Cons_val@V?$allocator@UtagAniSoundEventInfo@@@std@@UtagAniSoundEventInfo@@AAU3@@std@@YAXAAV?$allocator@UtagAniSoundEventInfo@@@0@PAUtagAniSoundEventInfo@@AAU2@@Z DD 019930522H
	DD	01H
	DD	FLAT:__unwindtable$??$_Cons_val@V?$allocator@UtagAniSoundEventInfo@@@std@@UtagAniSoundEventInfo@@AAU3@@std@@YAXAAV?$allocator@UtagAniSoundEventInfo@@@0@PAUtagAniSoundEventInfo@@AAU2@@Z
	DD	2 DUP(00H)
	DD	2 DUP(00H)
	DD	00H
	DD	01H
; Function compile flags: /Ogsp
; File c:\program files (x86)\microsoft visual studio 10.0\vc\include\xmemory
xdata$x	ENDS
;	COMDAT ??$_Cons_val@V?$allocator@UtagAniSoundEventInfo@@@std@@UtagAniSoundEventInfo@@AAU3@@std@@YAXAAV?$allocator@UtagAniSoundEventInfo@@@0@PAUtagAniSoundEventInfo@@AAU2@@Z
_TEXT	SEGMENT
$T508343 = -16						; size = 4
__$EHRec$ = -12						; size = 12
__Alval$ = 8						; size = 4
__Pdest$ = 12						; size = 4
__Src$ = 16						; size = 4
??$_Cons_val@V?$allocator@UtagAniSoundEventInfo@@@std@@UtagAniSoundEventInfo@@AAU3@@std@@YAXAAV?$allocator@UtagAniSoundEventInfo@@@0@PAUtagAniSoundEventInfo@@AAU2@@Z PROC ; std::_Cons_val<std::allocator<tagAniSoundEventInfo>,tagAniSoundEventInfo,tagAniSoundEventInfo &>, COMDAT

; 279  : 	{	// construct using allocator

  00000	6a 04		 push	 4
  00002	b8 00 00 00 00	 mov	 eax, __ehhandler$??$_Cons_val@V?$allocator@UtagAniSoundEventInfo@@@std@@UtagAniSoundEventInfo@@AAU3@@std@@YAXAAV?$allocator@UtagAniSoundEventInfo@@@0@PAUtagAniSoundEventInfo@@AAU2@@Z
  00007	e8 00 00 00 00	 call	 __EH_prolog3

; 280  : 	_Alval.construct(_Pdest, _STD forward<_Ty2>(_Src));

  0000c	8b 4d 0c	 mov	 ecx, DWORD PTR __Pdest$[ebp]
  0000f	89 4d f0	 mov	 DWORD PTR $T508343[ebp], ecx
  00012	83 65 fc 00	 and	 DWORD PTR __$EHRec$[ebp+8], 0
  00016	85 c9		 test	 ecx, ecx
  00018	74 08		 je	 SHORT $LN7@Cons_val@2
  0001a	ff 75 10	 push	 DWORD PTR __Src$[ebp]
  0001d	e8 00 00 00 00	 call	 ??0tagAniSoundEventInfo@@QAE@ABU0@@Z
$LN7@Cons_val@2:

; 281  : 	}

  00022	e8 00 00 00 00	 call	 __EH_epilog3
  00027	c3		 ret	 0
_TEXT	ENDS
;	COMDAT text$x
text$x	SEGMENT
__unwindfunclet$??$_Cons_val@V?$allocator@UtagAniSoundEventInfo@@@std@@UtagAniSoundEventInfo@@AAU3@@std@@YAXAAV?$allocator@UtagAniSoundEventInfo@@@0@PAUtagAniSoundEventInfo@@AAU2@@Z$0:
  00000	ff 75 0c	 push	 DWORD PTR __Pdest$[ebp]
  00003	ff 75 f0	 push	 DWORD PTR $T508343[ebp]
  00006	e8 00 00 00 00	 call	 ??3@YAXPAX0@Z		; operator delete
  0000b	59		 pop	 ecx
  0000c	59		 pop	 ecx
  0000d	c3		 ret	 0
__ehhandler$??$_Cons_val@V?$allocator@UtagAniSoundEventInfo@@@std@@UtagAniSoundEventInfo@@AAU3@@std@@YAXAAV?$allocator@UtagAniSoundEventInfo@@@0@PAUtagAniSoundEventInfo@@AAU2@@Z:
  0000e	8b 54 24 08	 mov	 edx, DWORD PTR [esp+8]
  00012	8d 42 0c	 lea	 eax, DWORD PTR [edx+12]
  00015	8b 4a ec	 mov	 ecx, DWORD PTR [edx-20]
  00018	33 c8		 xor	 ecx, eax
  0001a	e8 00 00 00 00	 call	 @__security_check_cookie@4
  0001f	b8 00 00 00 00	 mov	 eax, OFFSET __ehfuncinfo$??$_Cons_val@V?$allocator@UtagAniSoundEventInfo@@@std@@UtagAniSoundEventInfo@@AAU3@@std@@YAXAAV?$allocator@UtagAniSoundEventInfo@@@0@PAUtagAniSoundEventInfo@@AAU2@@Z
  00024	e9 00 00 00 00	 jmp	 ___CxxFrameHandler3
text$x	ENDS
??$_Cons_val@V?$allocator@UtagAniSoundEventInfo@@@std@@UtagAniSoundEventInfo@@AAU3@@std@@YAXAAV?$allocator@UtagAniSoundEventInfo@@@0@PAUtagAniSoundEventInfo@@AAU2@@Z ENDP ; std::_Cons_val<std::allocator<tagAniSoundEventInfo>,tagAniSoundEventInfo,tagAniSoundEventInfo &>
PUBLIC	?construct@?$allocator@UAniEventInfo@@@std@@QAEXPAUAniEventInfo@@ABU3@@Z ; std::allocator<AniEventInfo>::construct
; Function compile flags: /Ogsp
;	COMDAT ?construct@?$allocator@UAniEventInfo@@@std@@QAEXPAUAniEventInfo@@ABU3@@Z
_TEXT	SEGMENT
__Ptr$ = 8						; size = 4
__Val$ = 12						; size = 4
?construct@?$allocator@UAniEventInfo@@@std@@QAEXPAUAniEventInfo@@ABU3@@Z PROC ; std::allocator<AniEventInfo>::construct, COMDAT
; _this$ = ecx

; 196  : 		{	// construct object at _Ptr with value _Val

  00000	55		 push	 ebp
  00001	8b ec		 mov	 ebp, esp

; 197  : 		_Construct(_Ptr, _Val);

  00003	ff 75 0c	 push	 DWORD PTR __Val$[ebp]
  00006	ff 75 08	 push	 DWORD PTR __Ptr$[ebp]
  00009	e8 00 00 00 00	 call	 ??$_Construct@UAniEventInfo@@ABU1@@std@@YAXPAUAniEventInfo@@ABU1@@Z ; std::_Construct<AniEventInfo,AniEventInfo const &>
  0000e	59		 pop	 ecx
  0000f	59		 pop	 ecx

; 198  : 		}

  00010	5d		 pop	 ebp
  00011	c2 08 00	 ret	 8
?construct@?$allocator@UAniEventInfo@@@std@@QAEXPAUAniEventInfo@@ABU3@@Z ENDP ; std::allocator<AniEventInfo>::construct
_TEXT	ENDS
PUBLIC	?construct@?$allocator@UtagAniSoundEventInfo@@@std@@QAEXPAUtagAniSoundEventInfo@@ABU3@@Z ; std::allocator<tagAniSoundEventInfo>::construct
; Function compile flags: /Ogsp
;	COMDAT ?construct@?$allocator@UtagAniSoundEventInfo@@@std@@QAEXPAUtagAniSoundEventInfo@@ABU3@@Z
_TEXT	SEGMENT
__Ptr$ = 8						; size = 4
__Val$ = 12						; size = 4
?construct@?$allocator@UtagAniSoundEventInfo@@@std@@QAEXPAUtagAniSoundEventInfo@@ABU3@@Z PROC ; std::allocator<tagAniSoundEventInfo>::construct, COMDAT
; _this$ = ecx

; 196  : 		{	// construct object at _Ptr with value _Val

  00000	55		 push	 ebp
  00001	8b ec		 mov	 ebp, esp

; 197  : 		_Construct(_Ptr, _Val);

  00003	ff 75 0c	 push	 DWORD PTR __Val$[ebp]
  00006	ff 75 08	 push	 DWORD PTR __Ptr$[ebp]
  00009	e8 00 00 00 00	 call	 ??$_Construct@UtagAniSoundEventInfo@@ABU1@@std@@YAXPAUtagAniSoundEventInfo@@ABU1@@Z ; std::_Construct<tagAniSoundEventInfo,tagAniSoundEventInfo const &>
  0000e	59		 pop	 ecx
  0000f	59		 pop	 ecx

; 198  : 		}

  00010	5d		 pop	 ebp
  00011	c2 08 00	 ret	 8
?construct@?$allocator@UtagAniSoundEventInfo@@@std@@QAEXPAUtagAniSoundEventInfo@@ABU3@@Z ENDP ; std::allocator<tagAniSoundEventInfo>::construct
_TEXT	ENDS
PUBLIC	??$_Move@PAUAniEventInfo@@PAU1@@std@@YAPAUAniEventInfo@@PAU1@00U_Nonscalar_ptr_iterator_tag@0@@Z ; std::_Move<AniEventInfo *,AniEventInfo *>
; Function compile flags: /Ogsp
; File c:\program files (x86)\microsoft visual studio 10.0\vc\include\xutility
;	COMDAT ??$_Move@PAUAniEventInfo@@PAU1@@std@@YAPAUAniEventInfo@@PAU1@00U_Nonscalar_ptr_iterator_tag@0@@Z
_TEXT	SEGMENT
__First$ = 8						; size = 4
__Last$ = 12						; size = 4
__Dest$ = 16						; size = 4
___formal$ = 20						; size = 1
??$_Move@PAUAniEventInfo@@PAU1@@std@@YAPAUAniEventInfo@@PAU1@00U_Nonscalar_ptr_iterator_tag@0@@Z PROC ; std::_Move<AniEventInfo *,AniEventInfo *>, COMDAT

; 2512 : 	{	// move [_First, _Last) to [_Dest, ...), arbitrary iterators

  00000	55		 push	 ebp
  00001	8b ec		 mov	 ebp, esp
  00003	57		 push	 edi

; 2513 : 	for (; _First != _Last; ++_Dest, ++_First)

  00004	8b 7d 08	 mov	 edi, DWORD PTR __First$[ebp]
  00007	3b 7d 0c	 cmp	 edi, DWORD PTR __Last$[ebp]
  0000a	74 26		 je	 SHORT $LN12@Move
  0000c	56		 push	 esi
  0000d	8b 35 00 00 00
	00		 mov	 esi, DWORD PTR __imp_??4ioHashString@@QAEAAV0@ABV0@@Z
$LL3@Move:

; 2514 : 		*_Dest = _STD move(*_First);

  00013	8b 4d 10	 mov	 ecx, DWORD PTR __Dest$[ebp]
  00016	57		 push	 edi
  00017	ff d6		 call	 esi
  00019	8b 4d 10	 mov	 ecx, DWORD PTR __Dest$[ebp]
  0001c	8d 47 10	 lea	 eax, DWORD PTR [edi+16]
  0001f	50		 push	 eax
  00020	83 c1 10	 add	 ecx, 16			; 00000010H
  00023	ff d6		 call	 esi
  00025	83 45 10 20	 add	 DWORD PTR __Dest$[ebp], 32 ; 00000020H
  00029	83 c7 20	 add	 edi, 32			; 00000020H
  0002c	3b 7d 0c	 cmp	 edi, DWORD PTR __Last$[ebp]
  0002f	75 e2		 jne	 SHORT $LL3@Move
  00031	5e		 pop	 esi
$LN12@Move:

; 2515 : 	return (_Dest);

  00032	8b 45 10	 mov	 eax, DWORD PTR __Dest$[ebp]
  00035	5f		 pop	 edi

; 2516 : 	}

  00036	5d		 pop	 ebp
  00037	c3		 ret	 0
??$_Move@PAUAniEventInfo@@PAU1@@std@@YAPAUAniEventInfo@@PAU1@00U_Nonscalar_ptr_iterator_tag@0@@Z ENDP ; std::_Move<AniEventInfo *,AniEventInfo *>
_TEXT	ENDS
PUBLIC	??$_Move@PAUtagAniSoundEventInfo@@PAU1@@std@@YAPAUtagAniSoundEventInfo@@PAU1@00U_Nonscalar_ptr_iterator_tag@0@@Z ; std::_Move<tagAniSoundEventInfo *,tagAniSoundEventInfo *>
; Function compile flags: /Ogsp
;	COMDAT ??$_Move@PAUtagAniSoundEventInfo@@PAU1@@std@@YAPAUtagAniSoundEventInfo@@PAU1@00U_Nonscalar_ptr_iterator_tag@0@@Z
_TEXT	SEGMENT
__First$ = 8						; size = 4
__Last$ = 12						; size = 4
__Dest$ = 16						; size = 4
___formal$ = 20						; size = 1
??$_Move@PAUtagAniSoundEventInfo@@PAU1@@std@@YAPAUtagAniSoundEventInfo@@PAU1@00U_Nonscalar_ptr_iterator_tag@0@@Z PROC ; std::_Move<tagAniSoundEventInfo *,tagAniSoundEventInfo *>, COMDAT

; 2512 : 	{	// move [_First, _Last) to [_Dest, ...), arbitrary iterators

  00000	55		 push	 ebp
  00001	8b ec		 mov	 ebp, esp
  00003	56		 push	 esi

; 2513 : 	for (; _First != _Last; ++_Dest, ++_First)

  00004	8b 75 08	 mov	 esi, DWORD PTR __First$[ebp]
  00007	eb 10		 jmp	 SHORT $LN11@Move@2
$LL3@Move@2:

; 2514 : 		*_Dest = _STD move(*_First);

  00009	8b 4d 10	 mov	 ecx, DWORD PTR __Dest$[ebp]
  0000c	56		 push	 esi
  0000d	e8 00 00 00 00	 call	 ??4tagAniSoundEventInfo@@QAEAAU0@ABU0@@Z
  00012	83 45 10 24	 add	 DWORD PTR __Dest$[ebp], 36 ; 00000024H
  00016	83 c6 24	 add	 esi, 36			; 00000024H
$LN11@Move@2:

; 2513 : 	for (; _First != _Last; ++_Dest, ++_First)

  00019	3b 75 0c	 cmp	 esi, DWORD PTR __Last$[ebp]
  0001c	75 eb		 jne	 SHORT $LL3@Move@2

; 2515 : 	return (_Dest);

  0001e	8b 45 10	 mov	 eax, DWORD PTR __Dest$[ebp]
  00021	5e		 pop	 esi

; 2516 : 	}

  00022	5d		 pop	 ebp
  00023	c3		 ret	 0
??$_Move@PAUtagAniSoundEventInfo@@PAU1@@std@@YAPAUtagAniSoundEventInfo@@PAU1@00U_Nonscalar_ptr_iterator_tag@0@@Z ENDP ; std::_Move<tagAniSoundEventInfo *,tagAniSoundEventInfo *>
_TEXT	ENDS
PUBLIC	??$_Destroy@UAniEventInfo@@@std@@YAXPAUAniEventInfo@@@Z ; std::_Destroy<AniEventInfo>
; Function compile flags: /Ogsp
; File c:\program files (x86)\microsoft visual studio 10.0\vc\include\xmemory
;	COMDAT ??$_Destroy@UAniEventInfo@@@std@@YAXPAUAniEventInfo@@@Z
_TEXT	SEGMENT
__Ptr$ = 8						; size = 4
??$_Destroy@UAniEventInfo@@@std@@YAXPAUAniEventInfo@@@Z PROC ; std::_Destroy<AniEventInfo>, COMDAT

; 62   : 	{	// destroy object at _Ptr

  00000	55		 push	 ebp
  00001	8b ec		 mov	 ebp, esp

; 63   : 	_Ptr->~_Ty();

  00003	8b 4d 08	 mov	 ecx, DWORD PTR __Ptr$[ebp]

; 64   : 	}

  00006	5d		 pop	 ebp

; 63   : 	_Ptr->~_Ty();

  00007	e9 00 00 00 00	 jmp	 ??1AniEventInfo@@QAE@XZ
??$_Destroy@UAniEventInfo@@@std@@YAXPAUAniEventInfo@@@Z ENDP ; std::_Destroy<AniEventInfo>
_TEXT	ENDS
PUBLIC	??$_Destroy@UtagAniSoundEventInfo@@@std@@YAXPAUtagAniSoundEventInfo@@@Z ; std::_Destroy<tagAniSoundEventInfo>
; Function compile flags: /Ogsp
;	COMDAT ??$_Destroy@UtagAniSoundEventInfo@@@std@@YAXPAUtagAniSoundEventInfo@@@Z
_TEXT	SEGMENT
__Ptr$ = 8						; size = 4
??$_Destroy@UtagAniSoundEventInfo@@@std@@YAXPAUtagAniSoundEventInfo@@@Z PROC ; std::_Destroy<tagAniSoundEventInfo>, COMDAT

; 62   : 	{	// destroy object at _Ptr

  00000	55		 push	 ebp
  00001	8b ec		 mov	 ebp, esp

; 63   : 	_Ptr->~_Ty();

  00003	8b 4d 08	 mov	 ecx, DWORD PTR __Ptr$[ebp]

; 64   : 	}

  00006	5d		 pop	 ebp

; 63   : 	_Ptr->~_Ty();

  00007	e9 00 00 00 00	 jmp	 ??1tagAniSoundEventInfo@@QAE@XZ
??$_Destroy@UtagAniSoundEventInfo@@@std@@YAXPAUtagAniSoundEventInfo@@@Z ENDP ; std::_Destroy<tagAniSoundEventInfo>
_TEXT	ENDS
PUBLIC	?construct@?$allocator@UAniEventInfo@@@std@@QAEXPAUAniEventInfo@@$$QAU3@@Z ; std::allocator<AniEventInfo>::construct
;	COMDAT xdata$x
; File c:\program files (x86)\microsoft visual studio 10.0\vc\include\utility
xdata$x	SEGMENT
__unwindtable$?construct@?$allocator@UAniEventInfo@@@std@@QAEXPAUAniEventInfo@@$$QAU3@@Z DD 0ffffffffH
	DD	FLAT:__unwindfunclet$?construct@?$allocator@UAniEventInfo@@@std@@QAEXPAUAniEventInfo@@$$QAU3@@Z$0
__ehfuncinfo$?construct@?$allocator@UAniEventInfo@@@std@@QAEXPAUAniEventInfo@@$$QAU3@@Z DD 019930522H
	DD	01H
	DD	FLAT:__unwindtable$?construct@?$allocator@UAniEventInfo@@@std@@QAEXPAUAniEventInfo@@$$QAU3@@Z
	DD	2 DUP(00H)
	DD	2 DUP(00H)
	DD	00H
	DD	01H
; Function compile flags: /Ogsp
; File c:\program files (x86)\microsoft visual studio 10.0\vc\include\xmemory
xdata$x	ENDS
;	COMDAT ?construct@?$allocator@UAniEventInfo@@@std@@QAEXPAUAniEventInfo@@$$QAU3@@Z
_TEXT	SEGMENT
$T508399 = -16						; size = 4
__$EHRec$ = -12						; size = 12
__Ptr$ = 8						; size = 4
__Val$ = 12						; size = 4
?construct@?$allocator@UAniEventInfo@@@std@@QAEXPAUAniEventInfo@@$$QAU3@@Z PROC ; std::allocator<AniEventInfo>::construct, COMDAT
; _this$ = ecx

; 201  : 		{	// construct object at _Ptr with value _Val

  00000	6a 04		 push	 4
  00002	b8 00 00 00 00	 mov	 eax, __ehhandler$?construct@?$allocator@UAniEventInfo@@@std@@QAEXPAUAniEventInfo@@$$QAU3@@Z
  00007	e8 00 00 00 00	 call	 __EH_prolog3

; 202  : 		::new ((void _FARQ *)_Ptr) _Ty(_STD forward<_Ty>(_Val));

  0000c	8b 4d 08	 mov	 ecx, DWORD PTR __Ptr$[ebp]
  0000f	89 4d f0	 mov	 DWORD PTR $T508399[ebp], ecx
  00012	83 65 fc 00	 and	 DWORD PTR __$EHRec$[ebp+8], 0
  00016	85 c9		 test	 ecx, ecx
  00018	74 08		 je	 SHORT $LN3@construct@3
  0001a	ff 75 0c	 push	 DWORD PTR __Val$[ebp]
  0001d	e8 00 00 00 00	 call	 ??0AniEventInfo@@QAE@ABU0@@Z
$LN3@construct@3:

; 203  : 		}

  00022	e8 00 00 00 00	 call	 __EH_epilog3
  00027	c2 08 00	 ret	 8
_TEXT	ENDS
;	COMDAT text$x
text$x	SEGMENT
__unwindfunclet$?construct@?$allocator@UAniEventInfo@@@std@@QAEXPAUAniEventInfo@@$$QAU3@@Z$0:
  00000	ff 75 08	 push	 DWORD PTR __Ptr$[ebp]
  00003	ff 75 f0	 push	 DWORD PTR $T508399[ebp]
  00006	e8 00 00 00 00	 call	 ??3@YAXPAX0@Z		; operator delete
  0000b	59		 pop	 ecx
  0000c	59		 pop	 ecx
  0000d	c3		 ret	 0
__ehhandler$?construct@?$allocator@UAniEventInfo@@@std@@QAEXPAUAniEventInfo@@$$QAU3@@Z:
  0000e	8b 54 24 08	 mov	 edx, DWORD PTR [esp+8]
  00012	8d 42 0c	 lea	 eax, DWORD PTR [edx+12]
  00015	8b 4a ec	 mov	 ecx, DWORD PTR [edx-20]
  00018	33 c8		 xor	 ecx, eax
  0001a	e8 00 00 00 00	 call	 @__security_check_cookie@4
  0001f	b8 00 00 00 00	 mov	 eax, OFFSET __ehfuncinfo$?construct@?$allocator@UAniEventInfo@@@std@@QAEXPAUAniEventInfo@@$$QAU3@@Z
  00024	e9 00 00 00 00	 jmp	 ___CxxFrameHandler3
text$x	ENDS
?construct@?$allocator@UAniEventInfo@@@std@@QAEXPAUAniEventInfo@@$$QAU3@@Z ENDP ; std::allocator<AniEventInfo>::construct
PUBLIC	?construct@?$allocator@UtagAniSoundEventInfo@@@std@@QAEXPAUtagAniSoundEventInfo@@$$QAU3@@Z ; std::allocator<tagAniSoundEventInfo>::construct
;	COMDAT xdata$x
; File c:\program files (x86)\microsoft visual studio 10.0\vc\include\utility
xdata$x	SEGMENT
__unwindtable$?construct@?$allocator@UtagAniSoundEventInfo@@@std@@QAEXPAUtagAniSoundEventInfo@@$$QAU3@@Z DD 0ffffffffH
	DD	FLAT:__unwindfunclet$?construct@?$allocator@UtagAniSoundEventInfo@@@std@@QAEXPAUtagAniSoundEventInfo@@$$QAU3@@Z$0
__ehfuncinfo$?construct@?$allocator@UtagAniSoundEventInfo@@@std@@QAEXPAUtagAniSoundEventInfo@@$$QAU3@@Z DD 019930522H
	DD	01H
	DD	FLAT:__unwindtable$?construct@?$allocator@UtagAniSoundEventInfo@@@std@@QAEXPAUtagAniSoundEventInfo@@$$QAU3@@Z
	DD	2 DUP(00H)
	DD	2 DUP(00H)
	DD	00H
	DD	01H
; Function compile flags: /Ogsp
; File c:\program files (x86)\microsoft visual studio 10.0\vc\include\xmemory
xdata$x	ENDS
;	COMDAT ?construct@?$allocator@UtagAniSoundEventInfo@@@std@@QAEXPAUtagAniSoundEventInfo@@$$QAU3@@Z
_TEXT	SEGMENT
$T508418 = -16						; size = 4
__$EHRec$ = -12						; size = 12
__Ptr$ = 8						; size = 4
__Val$ = 12						; size = 4
?construct@?$allocator@UtagAniSoundEventInfo@@@std@@QAEXPAUtagAniSoundEventInfo@@$$QAU3@@Z PROC ; std::allocator<tagAniSoundEventInfo>::construct, COMDAT
; _this$ = ecx

; 201  : 		{	// construct object at _Ptr with value _Val

  00000	6a 04		 push	 4
  00002	b8 00 00 00 00	 mov	 eax, __ehhandler$?construct@?$allocator@UtagAniSoundEventInfo@@@std@@QAEXPAUtagAniSoundEventInfo@@$$QAU3@@Z
  00007	e8 00 00 00 00	 call	 __EH_prolog3

; 202  : 		::new ((void _FARQ *)_Ptr) _Ty(_STD forward<_Ty>(_Val));

  0000c	8b 4d 08	 mov	 ecx, DWORD PTR __Ptr$[ebp]
  0000f	89 4d f0	 mov	 DWORD PTR $T508418[ebp], ecx
  00012	83 65 fc 00	 and	 DWORD PTR __$EHRec$[ebp+8], 0
  00016	85 c9		 test	 ecx, ecx
  00018	74 08		 je	 SHORT $LN3@construct@4
  0001a	ff 75 0c	 push	 DWORD PTR __Val$[ebp]
  0001d	e8 00 00 00 00	 call	 ??0tagAniSoundEventInfo@@QAE@ABU0@@Z
$LN3@construct@4:

; 203  : 		}

  00022	e8 00 00 00 00	 call	 __EH_epilog3
  00027	c2 08 00	 ret	 8
_TEXT	ENDS
;	COMDAT text$x
text$x	SEGMENT
__unwindfunclet$?construct@?$allocator@UtagAniSoundEventInfo@@@std@@QAEXPAUtagAniSoundEventInfo@@$$QAU3@@Z$0:
  00000	ff 75 08	 push	 DWORD PTR __Ptr$[ebp]
  00003	ff 75 f0	 push	 DWORD PTR $T508418[ebp]
  00006	e8 00 00 00 00	 call	 ??3@YAXPAX0@Z		; operator delete
  0000b	59		 pop	 ecx
  0000c	59		 pop	 ecx
  0000d	c3		 ret	 0
__ehhandler$?construct@?$allocator@UtagAniSoundEventInfo@@@std@@QAEXPAUtagAniSoundEventInfo@@$$QAU3@@Z:
  0000e	8b 54 24 08	 mov	 edx, DWORD PTR [esp+8]
  00012	8d 42 0c	 lea	 eax, DWORD PTR [edx+12]
  00015	8b 4a ec	 mov	 ecx, DWORD PTR [edx-20]
  00018	33 c8		 xor	 ecx, eax
  0001a	e8 00 00 00 00	 call	 @__security_check_cookie@4
  0001f	b8 00 00 00 00	 mov	 eax, OFFSET __ehfuncinfo$?construct@?$allocator@UtagAniSoundEventInfo@@@std@@QAEXPAUtagAniSoundEventInfo@@$$QAU3@@Z
  00024	e9 00 00 00 00	 jmp	 ___CxxFrameHandler3
text$x	ENDS
?construct@?$allocator@UtagAniSoundEventInfo@@@std@@QAEXPAUtagAniSoundEventInfo@@$$QAU3@@Z ENDP ; std::allocator<tagAniSoundEventInfo>::construct
PUBLIC	??0tagAniSoundEventInfo@@QAE@XZ			; tagAniSoundEventInfo::tagAniSoundEventInfo
;	COMDAT xdata$x
; File d:\lost saga for developer\youtube\tutorial\source\src\lsclient\anieventhelpstruct.h
xdata$x	SEGMENT
__unwindtable$??0tagAniSoundEventInfo@@QAE@XZ DD 0ffffffffH
	DD	FLAT:__unwindfunclet$??0tagAniSoundEventInfo@@QAE@XZ$0
__ehfuncinfo$??0tagAniSoundEventInfo@@QAE@XZ DD 019930522H
	DD	01H
	DD	FLAT:__unwindtable$??0tagAniSoundEventInfo@@QAE@XZ
	DD	2 DUP(00H)
	DD	2 DUP(00H)
	DD	00H
	DD	01H
; Function compile flags: /Ogsp
xdata$x	ENDS
;	COMDAT ??0tagAniSoundEventInfo@@QAE@XZ
_TEXT	SEGMENT
_this$ = -16						; size = 4
__$EHRec$ = -12						; size = 12
??0tagAniSoundEventInfo@@QAE@XZ PROC			; tagAniSoundEventInfo::tagAniSoundEventInfo, COMDAT
; _this$ = ecx

; 12   : 	tagAniSoundEventInfo()

  00000	6a 04		 push	 4
  00002	b8 00 00 00 00	 mov	 eax, __ehhandler$??0tagAniSoundEventInfo@@QAE@XZ
  00007	e8 00 00 00 00	 call	 __EH_prolog3
  0000c	8b f1		 mov	 esi, ecx
  0000e	89 75 f0	 mov	 DWORD PTR _this$[ebp], esi
  00011	8b 3d 00 00 00
	00		 mov	 edi, DWORD PTR __imp_??0ioHashString@@QAE@XZ
  00017	ff d7		 call	 edi
  00019	83 65 fc 00	 and	 DWORD PTR __$EHRec$[ebp+8], 0
  0001d	8d 4e 10	 lea	 ecx, DWORD PTR [esi+16]
  00020	ff d7		 call	 edi

; 13   : 	{
; 14   : 		Init();

  00022	83 66 20 00	 and	 DWORD PTR [esi+32], 0

; 15   : 	}

  00026	8b c6		 mov	 eax, esi
  00028	e8 00 00 00 00	 call	 __EH_epilog3
  0002d	c3		 ret	 0
_TEXT	ENDS
;	COMDAT text$x
text$x	SEGMENT
__unwindfunclet$??0tagAniSoundEventInfo@@QAE@XZ$0:
  00000	8b 4d f0	 mov	 ecx, DWORD PTR _this$[ebp]
  00003	ff 25 00 00 00
	00		 jmp	 DWORD PTR __imp_??1ioHashString@@QAE@XZ
__ehhandler$??0tagAniSoundEventInfo@@QAE@XZ:
  00009	8b 54 24 08	 mov	 edx, DWORD PTR [esp+8]
  0000d	8d 42 0c	 lea	 eax, DWORD PTR [edx+12]
  00010	8b 4a ec	 mov	 ecx, DWORD PTR [edx-20]
  00013	33 c8		 xor	 ecx, eax
  00015	e8 00 00 00 00	 call	 @__security_check_cookie@4
  0001a	b8 00 00 00 00	 mov	 eax, OFFSET __ehfuncinfo$??0tagAniSoundEventInfo@@QAE@XZ
  0001f	e9 00 00 00 00	 jmp	 ___CxxFrameHandler3
text$x	ENDS
??0tagAniSoundEventInfo@@QAE@XZ ENDP			; tagAniSoundEventInfo::tagAniSoundEventInfo
PUBLIC	??0?$vector@UAniEventInfo@@V?$allocator@UAniEventInfo@@@std@@@std@@QAE@XZ ; std::vector<AniEventInfo,std::allocator<AniEventInfo> >::vector<AniEventInfo,std::allocator<AniEventInfo> >
; Function compile flags: /Ogsp
; File c:\program files (x86)\microsoft visual studio 10.0\vc\include\vector
;	COMDAT ??0?$vector@UAniEventInfo@@V?$allocator@UAniEventInfo@@@std@@@std@@QAE@XZ
_TEXT	SEGMENT
??0?$vector@UAniEventInfo@@V?$allocator@UAniEventInfo@@@std@@@std@@QAE@XZ PROC ; std::vector<AniEventInfo,std::allocator<AniEventInfo> >::vector<AniEventInfo,std::allocator<AniEventInfo> >, COMDAT
; _this$ = ecx

; 507  : 		{	// construct empty vector

  00000	8b c1		 mov	 eax, ecx
  00002	33 c9		 xor	 ecx, ecx
  00004	89 08		 mov	 DWORD PTR [eax], ecx
  00006	89 48 04	 mov	 DWORD PTR [eax+4], ecx
  00009	89 48 08	 mov	 DWORD PTR [eax+8], ecx

; 508  : 		}

  0000c	c3		 ret	 0
??0?$vector@UAniEventInfo@@V?$allocator@UAniEventInfo@@@std@@@std@@QAE@XZ ENDP ; std::vector<AniEventInfo,std::allocator<AniEventInfo> >::vector<AniEventInfo,std::allocator<AniEventInfo> >
_TEXT	ENDS
PUBLIC	??0?$vector@UtagAniSoundEventInfo@@V?$allocator@UtagAniSoundEventInfo@@@std@@@std@@QAE@XZ ; std::vector<tagAniSoundEventInfo,std::allocator<tagAniSoundEventInfo> >::vector<tagAniSoundEventInfo,std::allocator<tagAniSoundEventInfo> >
; Function compile flags: /Ogsp
;	COMDAT ??0?$vector@UtagAniSoundEventInfo@@V?$allocator@UtagAniSoundEventInfo@@@std@@@std@@QAE@XZ
_TEXT	SEGMENT
??0?$vector@UtagAniSoundEventInfo@@V?$allocator@UtagAniSoundEventInfo@@@std@@@std@@QAE@XZ PROC ; std::vector<tagAniSoundEventInfo,std::allocator<tagAniSoundEventInfo> >::vector<tagAniSoundEventInfo,std::allocator<tagAniSoundEventInfo> >, COMDAT
; _this$ = ecx

; 507  : 		{	// construct empty vector

  00000	8b c1		 mov	 eax, ecx
  00002	33 c9		 xor	 ecx, ecx
  00004	89 08		 mov	 DWORD PTR [eax], ecx
  00006	89 48 04	 mov	 DWORD PTR [eax+4], ecx
  00009	89 48 08	 mov	 DWORD PTR [eax+8], ecx

; 508  : 		}

  0000c	c3		 ret	 0
??0?$vector@UtagAniSoundEventInfo@@V?$allocator@UtagAniSoundEventInfo@@@std@@@std@@QAE@XZ ENDP ; std::vector<tagAniSoundEventInfo,std::allocator<tagAniSoundEventInfo> >::vector<tagAniSoundEventInfo,std::allocator<tagAniSoundEventInfo> >
_TEXT	ENDS
PUBLIC	??9?$_Vector_const_iterator@V?$_Vector_val@UAniEventInfo@@V?$allocator@UAniEventInfo@@@std@@@std@@@std@@QBE_NABV01@@Z ; std::_Vector_const_iterator<std::_Vector_val<AniEventInfo,std::allocator<AniEventInfo> > >::operator!=
; Function compile flags: /Ogsp
;	COMDAT ??9?$_Vector_const_iterator@V?$_Vector_val@UAniEventInfo@@V?$allocator@UAniEventInfo@@@std@@@std@@@std@@QBE_NABV01@@Z
_TEXT	SEGMENT
__Right$ = 8						; size = 4
??9?$_Vector_const_iterator@V?$_Vector_val@UAniEventInfo@@V?$allocator@UAniEventInfo@@@std@@@std@@@std@@QBE_NABV01@@Z PROC ; std::_Vector_const_iterator<std::_Vector_val<AniEventInfo,std::allocator<AniEventInfo> > >::operator!=, COMDAT
; _this$ = ecx

; 207  : 		{	// test for iterator inequality

  00000	55		 push	 ebp
  00001	8b ec		 mov	 ebp, esp

; 208  : 		return (!(*this == _Right));

  00003	8b 01		 mov	 eax, DWORD PTR [ecx]
  00005	8b 55 08	 mov	 edx, DWORD PTR __Right$[ebp]
  00008	33 c9		 xor	 ecx, ecx
  0000a	3b 02		 cmp	 eax, DWORD PTR [edx]
  0000c	0f 95 c0	 setne	 al

; 209  : 		}

  0000f	5d		 pop	 ebp
  00010	c2 04 00	 ret	 4
??9?$_Vector_const_iterator@V?$_Vector_val@UAniEventInfo@@V?$allocator@UAniEventInfo@@@std@@@std@@@std@@QBE_NABV01@@Z ENDP ; std::_Vector_const_iterator<std::_Vector_val<AniEventInfo,std::allocator<AniEventInfo> > >::operator!=
_TEXT	ENDS
PUBLIC	??9?$_Vector_const_iterator@V?$_Vector_val@UtagAniSoundEventInfo@@V?$allocator@UtagAniSoundEventInfo@@@std@@@std@@@std@@QBE_NABV01@@Z ; std::_Vector_const_iterator<std::_Vector_val<tagAniSoundEventInfo,std::allocator<tagAniSoundEventInfo> > >::operator!=
; Function compile flags: /Ogsp
;	COMDAT ??9?$_Vector_const_iterator@V?$_Vector_val@UtagAniSoundEventInfo@@V?$allocator@UtagAniSoundEventInfo@@@std@@@std@@@std@@QBE_NABV01@@Z
_TEXT	SEGMENT
__Right$ = 8						; size = 4
??9?$_Vector_const_iterator@V?$_Vector_val@UtagAniSoundEventInfo@@V?$allocator@UtagAniSoundEventInfo@@@std@@@std@@@std@@QBE_NABV01@@Z PROC ; std::_Vector_const_iterator<std::_Vector_val<tagAniSoundEventInfo,std::allocator<tagAniSoundEventInfo> > >::operator!=, COMDAT
; _this$ = ecx

; 207  : 		{	// test for iterator inequality

  00000	55		 push	 ebp
  00001	8b ec		 mov	 ebp, esp

; 208  : 		return (!(*this == _Right));

  00003	8b 01		 mov	 eax, DWORD PTR [ecx]
  00005	8b 55 08	 mov	 edx, DWORD PTR __Right$[ebp]
  00008	33 c9		 xor	 ecx, ecx
  0000a	3b 02		 cmp	 eax, DWORD PTR [edx]
  0000c	0f 95 c0	 setne	 al

; 209  : 		}

  0000f	5d		 pop	 ebp
  00010	c2 04 00	 ret	 4
??9?$_Vector_const_iterator@V?$_Vector_val@UtagAniSoundEventInfo@@V?$allocator@UtagAniSoundEventInfo@@@std@@@std@@@std@@QBE_NABV01@@Z ENDP ; std::_Vector_const_iterator<std::_Vector_val<tagAniSoundEventInfo,std::allocator<tagAniSoundEventInfo> > >::operator!=
_TEXT	ENDS
PUBLIC	??0?$_Vector_iterator@V?$_Vector_val@UAniEventInfo@@V?$allocator@UAniEventInfo@@@std@@@std@@@std@@QAE@PAUAniEventInfo@@PBU_Container_base0@1@@Z ; std::_Vector_iterator<std::_Vector_val<AniEventInfo,std::allocator<AniEventInfo> > >::_Vector_iterator<std::_Vector_val<AniEventInfo,std::allocator<AniEventInfo> > >
; Function compile flags: /Ogsp
;	COMDAT ??0?$_Vector_iterator@V?$_Vector_val@UAniEventInfo@@V?$allocator@UAniEventInfo@@@std@@@std@@@std@@QAE@PAUAniEventInfo@@PBU_Container_base0@1@@Z
_TEXT	SEGMENT
__Parg$ = 8						; size = 4
__Pvector$ = 12						; size = 4
??0?$_Vector_iterator@V?$_Vector_val@UAniEventInfo@@V?$allocator@UAniEventInfo@@@std@@@std@@@std@@QAE@PAUAniEventInfo@@PBU_Container_base0@1@@Z PROC ; std::_Vector_iterator<std::_Vector_val<AniEventInfo,std::allocator<AniEventInfo> > >::_Vector_iterator<std::_Vector_val<AniEventInfo,std::allocator<AniEventInfo> > >, COMDAT
; _this$ = ecx

; 304  : 		{	// construct with pointer _Parg

  00000	55		 push	 ebp
  00001	8b ec		 mov	 ebp, esp
  00003	8b c1		 mov	 eax, ecx
  00005	8b 4d 08	 mov	 ecx, DWORD PTR __Parg$[ebp]
  00008	89 08		 mov	 DWORD PTR [eax], ecx

; 305  : 		}

  0000a	5d		 pop	 ebp
  0000b	c2 08 00	 ret	 8
??0?$_Vector_iterator@V?$_Vector_val@UAniEventInfo@@V?$allocator@UAniEventInfo@@@std@@@std@@@std@@QAE@PAUAniEventInfo@@PBU_Container_base0@1@@Z ENDP ; std::_Vector_iterator<std::_Vector_val<AniEventInfo,std::allocator<AniEventInfo> > >::_Vector_iterator<std::_Vector_val<AniEventInfo,std::allocator<AniEventInfo> > >
_TEXT	ENDS
PUBLIC	??0?$_Vector_iterator@V?$_Vector_val@UtagAniSoundEventInfo@@V?$allocator@UtagAniSoundEventInfo@@@std@@@std@@@std@@QAE@PAUtagAniSoundEventInfo@@PBU_Container_base0@1@@Z ; std::_Vector_iterator<std::_Vector_val<tagAniSoundEventInfo,std::allocator<tagAniSoundEventInfo> > >::_Vector_iterator<std::_Vector_val<tagAniSoundEventInfo,std::allocator<tagAniSoundEventInfo> > >
; Function compile flags: /Ogsp
;	COMDAT ??0?$_Vector_iterator@V?$_Vector_val@UtagAniSoundEventInfo@@V?$allocator@UtagAniSoundEventInfo@@@std@@@std@@@std@@QAE@PAUtagAniSoundEventInfo@@PBU_Container_base0@1@@Z
_TEXT	SEGMENT
__Parg$ = 8						; size = 4
__Pvector$ = 12						; size = 4
??0?$_Vector_iterator@V?$_Vector_val@UtagAniSoundEventInfo@@V?$allocator@UtagAniSoundEventInfo@@@std@@@std@@@std@@QAE@PAUtagAniSoundEventInfo@@PBU_Container_base0@1@@Z PROC ; std::_Vector_iterator<std::_Vector_val<tagAniSoundEventInfo,std::allocator<tagAniSoundEventInfo> > >::_Vector_iterator<std::_Vector_val<tagAniSoundEventInfo,std::allocator<tagAniSoundEventInfo> > >, COMDAT
; _this$ = ecx

; 304  : 		{	// construct with pointer _Parg

  00000	55		 push	 ebp
  00001	8b ec		 mov	 ebp, esp
  00003	8b c1		 mov	 eax, ecx
  00005	8b 4d 08	 mov	 ecx, DWORD PTR __Parg$[ebp]
  00008	89 08		 mov	 DWORD PTR [eax], ecx

; 305  : 		}

  0000a	5d		 pop	 ebp
  0000b	c2 08 00	 ret	 8
??0?$_Vector_iterator@V?$_Vector_val@UtagAniSoundEventInfo@@V?$allocator@UtagAniSoundEventInfo@@@std@@@std@@@std@@QAE@PAUtagAniSoundEventInfo@@PBU_Container_base0@1@@Z ENDP ; std::_Vector_iterator<std::_Vector_val<tagAniSoundEventInfo,std::allocator<tagAniSoundEventInfo> > >::_Vector_iterator<std::_Vector_val<tagAniSoundEventInfo,std::allocator<tagAniSoundEventInfo> > >
_TEXT	ENDS
PUBLIC	??$_Cons_val@V?$allocator@UAniEventInfo@@@std@@UAniEventInfo@@ABU3@@std@@YAXAAV?$allocator@UAniEventInfo@@@0@PAUAniEventInfo@@ABU2@@Z ; std::_Cons_val<std::allocator<AniEventInfo>,AniEventInfo,AniEventInfo const &>
; Function compile flags: /Ogsp
; File c:\program files (x86)\microsoft visual studio 10.0\vc\include\xmemory
;	COMDAT ??$_Cons_val@V?$allocator@UAniEventInfo@@@std@@UAniEventInfo@@ABU3@@std@@YAXAAV?$allocator@UAniEventInfo@@@0@PAUAniEventInfo@@ABU2@@Z
_TEXT	SEGMENT
__Alval$ = 8						; size = 4
__Pdest$ = 12						; size = 4
__Src$ = 16						; size = 4
??$_Cons_val@V?$allocator@UAniEventInfo@@@std@@UAniEventInfo@@ABU3@@std@@YAXAAV?$allocator@UAniEventInfo@@@0@PAUAniEventInfo@@ABU2@@Z PROC ; std::_Cons_val<std::allocator<AniEventInfo>,AniEventInfo,AniEventInfo const &>, COMDAT

; 279  : 	{	// construct using allocator

  00000	55		 push	 ebp
  00001	8b ec		 mov	 ebp, esp

; 280  : 	_Alval.construct(_Pdest, _STD forward<_Ty2>(_Src));

  00003	ff 75 10	 push	 DWORD PTR __Src$[ebp]
  00006	ff 75 0c	 push	 DWORD PTR __Pdest$[ebp]
  00009	e8 00 00 00 00	 call	 ??$_Construct@UAniEventInfo@@ABU1@@std@@YAXPAUAniEventInfo@@ABU1@@Z ; std::_Construct<AniEventInfo,AniEventInfo const &>
  0000e	59		 pop	 ecx
  0000f	59		 pop	 ecx

; 281  : 	}

  00010	5d		 pop	 ebp
  00011	c3		 ret	 0
??$_Cons_val@V?$allocator@UAniEventInfo@@@std@@UAniEventInfo@@ABU3@@std@@YAXAAV?$allocator@UAniEventInfo@@@0@PAUAniEventInfo@@ABU2@@Z ENDP ; std::_Cons_val<std::allocator<AniEventInfo>,AniEventInfo,AniEventInfo const &>
_TEXT	ENDS
PUBLIC	??$_Move@PAUAniEventInfo@@PAU1@@std@@YAPAUAniEventInfo@@PAU1@00@Z ; std::_Move<AniEventInfo *,AniEventInfo *>
; Function compile flags: /Ogsp
; File c:\program files (x86)\microsoft visual studio 10.0\vc\include\xutility
;	COMDAT ??$_Move@PAUAniEventInfo@@PAU1@@std@@YAPAUAniEventInfo@@PAU1@00@Z
_TEXT	SEGMENT
__Cat$508534 = -4					; size = 1
__First$ = 8						; size = 4
__Last$ = 12						; size = 4
__Dest$ = 16						; size = 4
??$_Move@PAUAniEventInfo@@PAU1@@std@@YAPAUAniEventInfo@@PAU1@00@Z PROC ; std::_Move<AniEventInfo *,AniEventInfo *>, COMDAT

; 2533 : 	{	// move [_First, _Last) to [_Dest, ...), unchecked

  00000	55		 push	 ebp
  00001	8b ec		 mov	 ebp, esp
  00003	51		 push	 ecx

; 2534 : 	return (_Move(_First, _Last,
; 2535 : 		_Dest, _Ptr_cat(_First, _Dest)));

  00004	ff 75 fc	 push	 DWORD PTR __Cat$508534[ebp]
  00007	ff 75 10	 push	 DWORD PTR __Dest$[ebp]
  0000a	ff 75 0c	 push	 DWORD PTR __Last$[ebp]
  0000d	ff 75 08	 push	 DWORD PTR __First$[ebp]
  00010	e8 00 00 00 00	 call	 ??$_Move@PAUAniEventInfo@@PAU1@@std@@YAPAUAniEventInfo@@PAU1@00U_Nonscalar_ptr_iterator_tag@0@@Z ; std::_Move<AniEventInfo *,AniEventInfo *>
  00015	83 c4 10	 add	 esp, 16			; 00000010H

; 2536 : 	}

  00018	c9		 leave
  00019	c3		 ret	 0
??$_Move@PAUAniEventInfo@@PAU1@@std@@YAPAUAniEventInfo@@PAU1@00@Z ENDP ; std::_Move<AniEventInfo *,AniEventInfo *>
_TEXT	ENDS
PUBLIC	??$_Cons_val@V?$allocator@UtagAniSoundEventInfo@@@std@@UtagAniSoundEventInfo@@ABU3@@std@@YAXAAV?$allocator@UtagAniSoundEventInfo@@@0@PAUtagAniSoundEventInfo@@ABU2@@Z ; std::_Cons_val<std::allocator<tagAniSoundEventInfo>,tagAniSoundEventInfo,tagAniSoundEventInfo const &>
; Function compile flags: /Ogsp
; File c:\program files (x86)\microsoft visual studio 10.0\vc\include\xmemory
;	COMDAT ??$_Cons_val@V?$allocator@UtagAniSoundEventInfo@@@std@@UtagAniSoundEventInfo@@ABU3@@std@@YAXAAV?$allocator@UtagAniSoundEventInfo@@@0@PAUtagAniSoundEventInfo@@ABU2@@Z
_TEXT	SEGMENT
__Alval$ = 8						; size = 4
__Pdest$ = 12						; size = 4
__Src$ = 16						; size = 4
??$_Cons_val@V?$allocator@UtagAniSoundEventInfo@@@std@@UtagAniSoundEventInfo@@ABU3@@std@@YAXAAV?$allocator@UtagAniSoundEventInfo@@@0@PAUtagAniSoundEventInfo@@ABU2@@Z PROC ; std::_Cons_val<std::allocator<tagAniSoundEventInfo>,tagAniSoundEventInfo,tagAniSoundEventInfo const &>, COMDAT

; 279  : 	{	// construct using allocator

  00000	55		 push	 ebp
  00001	8b ec		 mov	 ebp, esp

; 280  : 	_Alval.construct(_Pdest, _STD forward<_Ty2>(_Src));

  00003	ff 75 10	 push	 DWORD PTR __Src$[ebp]
  00006	ff 75 0c	 push	 DWORD PTR __Pdest$[ebp]
  00009	e8 00 00 00 00	 call	 ??$_Construct@UtagAniSoundEventInfo@@ABU1@@std@@YAXPAUtagAniSoundEventInfo@@ABU1@@Z ; std::_Construct<tagAniSoundEventInfo,tagAniSoundEventInfo const &>
  0000e	59		 pop	 ecx
  0000f	59		 pop	 ecx

; 281  : 	}

  00010	5d		 pop	 ebp
  00011	c3		 ret	 0
??$_Cons_val@V?$allocator@UtagAniSoundEventInfo@@@std@@UtagAniSoundEventInfo@@ABU3@@std@@YAXAAV?$allocator@UtagAniSoundEventInfo@@@0@PAUtagAniSoundEventInfo@@ABU2@@Z ENDP ; std::_Cons_val<std::allocator<tagAniSoundEventInfo>,tagAniSoundEventInfo,tagAniSoundEventInfo const &>
_TEXT	ENDS
PUBLIC	??$_Move@PAUtagAniSoundEventInfo@@PAU1@@std@@YAPAUtagAniSoundEventInfo@@PAU1@00@Z ; std::_Move<tagAniSoundEventInfo *,tagAniSoundEventInfo *>
; Function compile flags: /Ogsp
; File c:\program files (x86)\microsoft visual studio 10.0\vc\include\xutility
;	COMDAT ??$_Move@PAUtagAniSoundEventInfo@@PAU1@@std@@YAPAUtagAniSoundEventInfo@@PAU1@00@Z
_TEXT	SEGMENT
__Cat$508549 = -4					; size = 1
__First$ = 8						; size = 4
__Last$ = 12						; size = 4
__Dest$ = 16						; size = 4
??$_Move@PAUtagAniSoundEventInfo@@PAU1@@std@@YAPAUtagAniSoundEventInfo@@PAU1@00@Z PROC ; std::_Move<tagAniSoundEventInfo *,tagAniSoundEventInfo *>, COMDAT

; 2533 : 	{	// move [_First, _Last) to [_Dest, ...), unchecked

  00000	55		 push	 ebp
  00001	8b ec		 mov	 ebp, esp
  00003	51		 push	 ecx

; 2534 : 	return (_Move(_First, _Last,
; 2535 : 		_Dest, _Ptr_cat(_First, _Dest)));

  00004	ff 75 fc	 push	 DWORD PTR __Cat$508549[ebp]
  00007	ff 75 10	 push	 DWORD PTR __Dest$[ebp]
  0000a	ff 75 0c	 push	 DWORD PTR __Last$[ebp]
  0000d	ff 75 08	 push	 DWORD PTR __First$[ebp]
  00010	e8 00 00 00 00	 call	 ??$_Move@PAUtagAniSoundEventInfo@@PAU1@@std@@YAPAUtagAniSoundEventInfo@@PAU1@00U_Nonscalar_ptr_iterator_tag@0@@Z ; std::_Move<tagAniSoundEventInfo *,tagAniSoundEventInfo *>
  00015	83 c4 10	 add	 esp, 16			; 00000010H

; 2536 : 	}

  00018	c9		 leave
  00019	c3		 ret	 0
??$_Move@PAUtagAniSoundEventInfo@@PAU1@@std@@YAPAUtagAniSoundEventInfo@@PAU1@00@Z ENDP ; std::_Move<tagAniSoundEventInfo *,tagAniSoundEventInfo *>
_TEXT	ENDS
PUBLIC	?destroy@?$allocator@UAniEventInfo@@@std@@QAEXPAUAniEventInfo@@@Z ; std::allocator<AniEventInfo>::destroy
; Function compile flags: /Ogsp
; File c:\program files (x86)\microsoft visual studio 10.0\vc\include\xmemory
;	COMDAT ?destroy@?$allocator@UAniEventInfo@@@std@@QAEXPAUAniEventInfo@@@Z
_TEXT	SEGMENT
__Ptr$ = 8						; size = 4
?destroy@?$allocator@UAniEventInfo@@@std@@QAEXPAUAniEventInfo@@@Z PROC ; std::allocator<AniEventInfo>::destroy, COMDAT
; _this$ = ecx

; 212  : 		{	// destroy object at _Ptr

  00000	55		 push	 ebp
  00001	8b ec		 mov	 ebp, esp

; 213  : 		_Destroy(_Ptr);

  00003	8b 4d 08	 mov	 ecx, DWORD PTR __Ptr$[ebp]
  00006	e8 00 00 00 00	 call	 ??1AniEventInfo@@QAE@XZ

; 214  : 		}

  0000b	5d		 pop	 ebp
  0000c	c2 04 00	 ret	 4
?destroy@?$allocator@UAniEventInfo@@@std@@QAEXPAUAniEventInfo@@@Z ENDP ; std::allocator<AniEventInfo>::destroy
_TEXT	ENDS
PUBLIC	?destroy@?$allocator@UtagAniSoundEventInfo@@@std@@QAEXPAUtagAniSoundEventInfo@@@Z ; std::allocator<tagAniSoundEventInfo>::destroy
; Function compile flags: /Ogsp
;	COMDAT ?destroy@?$allocator@UtagAniSoundEventInfo@@@std@@QAEXPAUtagAniSoundEventInfo@@@Z
_TEXT	SEGMENT
__Ptr$ = 8						; size = 4
?destroy@?$allocator@UtagAniSoundEventInfo@@@std@@QAEXPAUtagAniSoundEventInfo@@@Z PROC ; std::allocator<tagAniSoundEventInfo>::destroy, COMDAT
; _this$ = ecx

; 212  : 		{	// destroy object at _Ptr

  00000	55		 push	 ebp
  00001	8b ec		 mov	 ebp, esp

; 213  : 		_Destroy(_Ptr);

  00003	8b 4d 08	 mov	 ecx, DWORD PTR __Ptr$[ebp]
  00006	e8 00 00 00 00	 call	 ??1tagAniSoundEventInfo@@QAE@XZ

; 214  : 		}

  0000b	5d		 pop	 ebp
  0000c	c2 04 00	 ret	 4
?destroy@?$allocator@UtagAniSoundEventInfo@@@std@@QAEXPAUtagAniSoundEventInfo@@@Z ENDP ; std::allocator<tagAniSoundEventInfo>::destroy
_TEXT	ENDS
PUBLIC	??$_Cons_val@V?$allocator@UAniEventInfo@@@std@@UAniEventInfo@@U3@@std@@YAXAAV?$allocator@UAniEventInfo@@@0@PAUAniEventInfo@@$$QAU2@@Z ; std::_Cons_val<std::allocator<AniEventInfo>,AniEventInfo,AniEventInfo>
;	COMDAT xdata$x
; File c:\program files (x86)\microsoft visual studio 10.0\vc\include\utility
xdata$x	SEGMENT
__unwindtable$??$_Cons_val@V?$allocator@UAniEventInfo@@@std@@UAniEventInfo@@U3@@std@@YAXAAV?$allocator@UAniEventInfo@@@0@PAUAniEventInfo@@$$QAU2@@Z DD 0ffffffffH
	DD	FLAT:__unwindfunclet$??$_Cons_val@V?$allocator@UAniEventInfo@@@std@@UAniEventInfo@@U3@@std@@YAXAAV?$allocator@UAniEventInfo@@@0@PAUAniEventInfo@@$$QAU2@@Z$0
__ehfuncinfo$??$_Cons_val@V?$allocator@UAniEventInfo@@@std@@UAniEventInfo@@U3@@std@@YAXAAV?$allocator@UAniEventInfo@@@0@PAUAniEventInfo@@$$QAU2@@Z DD 019930522H
	DD	01H
	DD	FLAT:__unwindtable$??$_Cons_val@V?$allocator@UAniEventInfo@@@std@@UAniEventInfo@@U3@@std@@YAXAAV?$allocator@UAniEventInfo@@@0@PAUAniEventInfo@@$$QAU2@@Z
	DD	2 DUP(00H)
	DD	2 DUP(00H)
	DD	00H
	DD	01H
; Function compile flags: /Ogsp
; File c:\program files (x86)\microsoft visual studio 10.0\vc\include\xmemory
xdata$x	ENDS
;	COMDAT ??$_Cons_val@V?$allocator@UAniEventInfo@@@std@@UAniEventInfo@@U3@@std@@YAXAAV?$allocator@UAniEventInfo@@@0@PAUAniEventInfo@@$$QAU2@@Z
_TEXT	SEGMENT
$T508595 = -16						; size = 4
__$EHRec$ = -12						; size = 12
__Alval$ = 8						; size = 4
__Pdest$ = 12						; size = 4
__Src$ = 16						; size = 4
??$_Cons_val@V?$allocator@UAniEventInfo@@@std@@UAniEventInfo@@U3@@std@@YAXAAV?$allocator@UAniEventInfo@@@0@PAUAniEventInfo@@$$QAU2@@Z PROC ; std::_Cons_val<std::allocator<AniEventInfo>,AniEventInfo,AniEventInfo>, COMDAT

; 279  : 	{	// construct using allocator

  00000	6a 04		 push	 4
  00002	b8 00 00 00 00	 mov	 eax, __ehhandler$??$_Cons_val@V?$allocator@UAniEventInfo@@@std@@UAniEventInfo@@U3@@std@@YAXAAV?$allocator@UAniEventInfo@@@0@PAUAniEventInfo@@$$QAU2@@Z
  00007	e8 00 00 00 00	 call	 __EH_prolog3

; 280  : 	_Alval.construct(_Pdest, _STD forward<_Ty2>(_Src));

  0000c	8b 4d 0c	 mov	 ecx, DWORD PTR __Pdest$[ebp]
  0000f	89 4d f0	 mov	 DWORD PTR $T508595[ebp], ecx
  00012	83 65 fc 00	 and	 DWORD PTR __$EHRec$[ebp+8], 0
  00016	85 c9		 test	 ecx, ecx
  00018	74 08		 je	 SHORT $LN7@Cons_val@3
  0001a	ff 75 10	 push	 DWORD PTR __Src$[ebp]
  0001d	e8 00 00 00 00	 call	 ??0AniEventInfo@@QAE@ABU0@@Z
$LN7@Cons_val@3:

; 281  : 	}

  00022	e8 00 00 00 00	 call	 __EH_epilog3
  00027	c3		 ret	 0
_TEXT	ENDS
;	COMDAT text$x
text$x	SEGMENT
__unwindfunclet$??$_Cons_val@V?$allocator@UAniEventInfo@@@std@@UAniEventInfo@@U3@@std@@YAXAAV?$allocator@UAniEventInfo@@@0@PAUAniEventInfo@@$$QAU2@@Z$0:
  00000	ff 75 0c	 push	 DWORD PTR __Pdest$[ebp]
  00003	ff 75 f0	 push	 DWORD PTR $T508595[ebp]
  00006	e8 00 00 00 00	 call	 ??3@YAXPAX0@Z		; operator delete
  0000b	59		 pop	 ecx
  0000c	59		 pop	 ecx
  0000d	c3		 ret	 0
__ehhandler$??$_Cons_val@V?$allocator@UAniEventInfo@@@std@@UAniEventInfo@@U3@@std@@YAXAAV?$allocator@UAniEventInfo@@@0@PAUAniEventInfo@@$$QAU2@@Z:
  0000e	8b 54 24 08	 mov	 edx, DWORD PTR [esp+8]
  00012	8d 42 0c	 lea	 eax, DWORD PTR [edx+12]
  00015	8b 4a ec	 mov	 ecx, DWORD PTR [edx-20]
  00018	33 c8		 xor	 ecx, eax
  0001a	e8 00 00 00 00	 call	 @__security_check_cookie@4
  0001f	b8 00 00 00 00	 mov	 eax, OFFSET __ehfuncinfo$??$_Cons_val@V?$allocator@UAniEventInfo@@@std@@UAniEventInfo@@U3@@std@@YAXAAV?$allocator@UAniEventInfo@@@0@PAUAniEventInfo@@$$QAU2@@Z
  00024	e9 00 00 00 00	 jmp	 ___CxxFrameHandler3
text$x	ENDS
??$_Cons_val@V?$allocator@UAniEventInfo@@@std@@UAniEventInfo@@U3@@std@@YAXAAV?$allocator@UAniEventInfo@@@0@PAUAniEventInfo@@$$QAU2@@Z ENDP ; std::_Cons_val<std::allocator<AniEventInfo>,AniEventInfo,AniEventInfo>
PUBLIC	??$_Cons_val@V?$allocator@UtagAniSoundEventInfo@@@std@@UtagAniSoundEventInfo@@U3@@std@@YAXAAV?$allocator@UtagAniSoundEventInfo@@@0@PAUtagAniSoundEventInfo@@$$QAU2@@Z ; std::_Cons_val<std::allocator<tagAniSoundEventInfo>,tagAniSoundEventInfo,tagAniSoundEventInfo>
;	COMDAT xdata$x
; File c:\program files (x86)\microsoft visual studio 10.0\vc\include\utility
xdata$x	SEGMENT
__unwindtable$??$_Cons_val@V?$allocator@UtagAniSoundEventInfo@@@std@@UtagAniSoundEventInfo@@U3@@std@@YAXAAV?$allocator@UtagAniSoundEventInfo@@@0@PAUtagAniSoundEventInfo@@$$QAU2@@Z DD 0ffffffffH
	DD	FLAT:__unwindfunclet$??$_Cons_val@V?$allocator@UtagAniSoundEventInfo@@@std@@UtagAniSoundEventInfo@@U3@@std@@YAXAAV?$allocator@UtagAniSoundEventInfo@@@0@PAUtagAniSoundEventInfo@@$$QAU2@@Z$0
__ehfuncinfo$??$_Cons_val@V?$allocator@UtagAniSoundEventInfo@@@std@@UtagAniSoundEventInfo@@U3@@std@@YAXAAV?$allocator@UtagAniSoundEventInfo@@@0@PAUtagAniSoundEventInfo@@$$QAU2@@Z DD 019930522H
	DD	01H
	DD	FLAT:__unwindtable$??$_Cons_val@V?$allocator@UtagAniSoundEventInfo@@@std@@UtagAniSoundEventInfo@@U3@@std@@YAXAAV?$allocator@UtagAniSoundEventInfo@@@0@PAUtagAniSoundEventInfo@@$$QAU2@@Z
	DD	2 DUP(00H)
	DD	2 DUP(00H)
	DD	00H
	DD	01H
; Function compile flags: /Ogsp
; File c:\program files (x86)\microsoft visual studio 10.0\vc\include\xmemory
xdata$x	ENDS
;	COMDAT ??$_Cons_val@V?$allocator@UtagAniSoundEventInfo@@@std@@UtagAniSoundEventInfo@@U3@@std@@YAXAAV?$allocator@UtagAniSoundEventInfo@@@0@PAUtagAniSoundEventInfo@@$$QAU2@@Z
_TEXT	SEGMENT
$T508628 = -16						; size = 4
__$EHRec$ = -12						; size = 12
__Alval$ = 8						; size = 4
__Pdest$ = 12						; size = 4
__Src$ = 16						; size = 4
??$_Cons_val@V?$allocator@UtagAniSoundEventInfo@@@std@@UtagAniSoundEventInfo@@U3@@std@@YAXAAV?$allocator@UtagAniSoundEventInfo@@@0@PAUtagAniSoundEventInfo@@$$QAU2@@Z PROC ; std::_Cons_val<std::allocator<tagAniSoundEventInfo>,tagAniSoundEventInfo,tagAniSoundEventInfo>, COMDAT

; 279  : 	{	// construct using allocator

  00000	6a 04		 push	 4
  00002	b8 00 00 00 00	 mov	 eax, __ehhandler$??$_Cons_val@V?$allocator@UtagAniSoundEventInfo@@@std@@UtagAniSoundEventInfo@@U3@@std@@YAXAAV?$allocator@UtagAniSoundEventInfo@@@0@PAUtagAniSoundEventInfo@@$$QAU2@@Z
  00007	e8 00 00 00 00	 call	 __EH_prolog3

; 280  : 	_Alval.construct(_Pdest, _STD forward<_Ty2>(_Src));

  0000c	8b 4d 0c	 mov	 ecx, DWORD PTR __Pdest$[ebp]
  0000f	89 4d f0	 mov	 DWORD PTR $T508628[ebp], ecx
  00012	83 65 fc 00	 and	 DWORD PTR __$EHRec$[ebp+8], 0
  00016	85 c9		 test	 ecx, ecx
  00018	74 08		 je	 SHORT $LN7@Cons_val@4
  0001a	ff 75 10	 push	 DWORD PTR __Src$[ebp]
  0001d	e8 00 00 00 00	 call	 ??0tagAniSoundEventInfo@@QAE@ABU0@@Z
$LN7@Cons_val@4:

; 281  : 	}

  00022	e8 00 00 00 00	 call	 __EH_epilog3
  00027	c3		 ret	 0
_TEXT	ENDS
;	COMDAT text$x
text$x	SEGMENT
__unwindfunclet$??$_Cons_val@V?$allocator@UtagAniSoundEventInfo@@@std@@UtagAniSoundEventInfo@@U3@@std@@YAXAAV?$allocator@UtagAniSoundEventInfo@@@0@PAUtagAniSoundEventInfo@@$$QAU2@@Z$0:
  00000	ff 75 0c	 push	 DWORD PTR __Pdest$[ebp]
  00003	ff 75 f0	 push	 DWORD PTR $T508628[ebp]
  00006	e8 00 00 00 00	 call	 ??3@YAXPAX0@Z		; operator delete
  0000b	59		 pop	 ecx
  0000c	59		 pop	 ecx
  0000d	c3		 ret	 0
__ehhandler$??$_Cons_val@V?$allocator@UtagAniSoundEventInfo@@@std@@UtagAniSoundEventInfo@@U3@@std@@YAXAAV?$allocator@UtagAniSoundEventInfo@@@0@PAUtagAniSoundEventInfo@@$$QAU2@@Z:
  0000e	8b 54 24 08	 mov	 edx, DWORD PTR [esp+8]
  00012	8d 42 0c	 lea	 eax, DWORD PTR [edx+12]
  00015	8b 4a ec	 mov	 ecx, DWORD PTR [edx-20]
  00018	33 c8		 xor	 ecx, eax
  0001a	e8 00 00 00 00	 call	 @__security_check_cookie@4
  0001f	b8 00 00 00 00	 mov	 eax, OFFSET __ehfuncinfo$??$_Cons_val@V?$allocator@UtagAniSoundEventInfo@@@std@@UtagAniSoundEventInfo@@U3@@std@@YAXAAV?$allocator@UtagAniSoundEventInfo@@@0@PAUtagAniSoundEventInfo@@$$QAU2@@Z
  00024	e9 00 00 00 00	 jmp	 ___CxxFrameHandler3
text$x	ENDS
??$_Cons_val@V?$allocator@UtagAniSoundEventInfo@@@std@@UtagAniSoundEventInfo@@U3@@std@@YAXAAV?$allocator@UtagAniSoundEventInfo@@@0@PAUtagAniSoundEventInfo@@$$QAU2@@Z ENDP ; std::_Cons_val<std::allocator<tagAniSoundEventInfo>,tagAniSoundEventInfo,tagAniSoundEventInfo>
PUBLIC	?begin@?$vector@UAniEventInfo@@V?$allocator@UAniEventInfo@@@std@@@std@@QAE?AV?$_Vector_iterator@V?$_Vector_val@UAniEventInfo@@V?$allocator@UAniEventInfo@@@std@@@std@@@2@XZ ; std::vector<AniEventInfo,std::allocator<AniEventInfo> >::begin
; Function compile flags: /Ogsp
; File c:\program files (x86)\microsoft visual studio 10.0\vc\include\vector
;	COMDAT ?begin@?$vector@UAniEventInfo@@V?$allocator@UAniEventInfo@@@std@@@std@@QAE?AV?$_Vector_iterator@V?$_Vector_val@UAniEventInfo@@V?$allocator@UAniEventInfo@@@std@@@std@@@2@XZ
_TEXT	SEGMENT
___$ReturnUdt$ = 8					; size = 4
?begin@?$vector@UAniEventInfo@@V?$allocator@UAniEventInfo@@@std@@@std@@QAE?AV?$_Vector_iterator@V?$_Vector_val@UAniEventInfo@@V?$allocator@UAniEventInfo@@@std@@@std@@@2@XZ PROC ; std::vector<AniEventInfo,std::allocator<AniEventInfo> >::begin, COMDAT
; _this$ = ecx

; 781  : 		{	// return iterator for beginning of mutable sequence

  00000	55		 push	 ebp
  00001	8b ec		 mov	 ebp, esp

; 782  : 		return (iterator(this->_Myfirst, this));

  00003	8b 09		 mov	 ecx, DWORD PTR [ecx]
  00005	8b 45 08	 mov	 eax, DWORD PTR ___$ReturnUdt$[ebp]
  00008	89 08		 mov	 DWORD PTR [eax], ecx

; 783  : 		}

  0000a	5d		 pop	 ebp
  0000b	c2 04 00	 ret	 4
?begin@?$vector@UAniEventInfo@@V?$allocator@UAniEventInfo@@@std@@@std@@QAE?AV?$_Vector_iterator@V?$_Vector_val@UAniEventInfo@@V?$allocator@UAniEventInfo@@@std@@@std@@@2@XZ ENDP ; std::vector<AniEventInfo,std::allocator<AniEventInfo> >::begin
_TEXT	ENDS
PUBLIC	?end@?$vector@UAniEventInfo@@V?$allocator@UAniEventInfo@@@std@@@std@@QAE?AV?$_Vector_iterator@V?$_Vector_val@UAniEventInfo@@V?$allocator@UAniEventInfo@@@std@@@std@@@2@XZ ; std::vector<AniEventInfo,std::allocator<AniEventInfo> >::end
; Function compile flags: /Ogsp
;	COMDAT ?end@?$vector@UAniEventInfo@@V?$allocator@UAniEventInfo@@@std@@@std@@QAE?AV?$_Vector_iterator@V?$_Vector_val@UAniEventInfo@@V?$allocator@UAniEventInfo@@@std@@@std@@@2@XZ
_TEXT	SEGMENT
___$ReturnUdt$ = 8					; size = 4
?end@?$vector@UAniEventInfo@@V?$allocator@UAniEventInfo@@@std@@@std@@QAE?AV?$_Vector_iterator@V?$_Vector_val@UAniEventInfo@@V?$allocator@UAniEventInfo@@@std@@@std@@@2@XZ PROC ; std::vector<AniEventInfo,std::allocator<AniEventInfo> >::end, COMDAT
; _this$ = ecx

; 791  : 		{	// return iterator for end of mutable sequence

  00000	55		 push	 ebp
  00001	8b ec		 mov	 ebp, esp

; 792  : 		return (iterator(this->_Mylast, this));

  00003	8b 49 04	 mov	 ecx, DWORD PTR [ecx+4]
  00006	8b 45 08	 mov	 eax, DWORD PTR ___$ReturnUdt$[ebp]
  00009	89 08		 mov	 DWORD PTR [eax], ecx

; 793  : 		}

  0000b	5d		 pop	 ebp
  0000c	c2 04 00	 ret	 4
?end@?$vector@UAniEventInfo@@V?$allocator@UAniEventInfo@@@std@@@std@@QAE?AV?$_Vector_iterator@V?$_Vector_val@UAniEventInfo@@V?$allocator@UAniEventInfo@@@std@@@std@@@2@XZ ENDP ; std::vector<AniEventInfo,std::allocator<AniEventInfo> >::end
_TEXT	ENDS
PUBLIC	?begin@?$vector@UtagAniSoundEventInfo@@V?$allocator@UtagAniSoundEventInfo@@@std@@@std@@QAE?AV?$_Vector_iterator@V?$_Vector_val@UtagAniSoundEventInfo@@V?$allocator@UtagAniSoundEventInfo@@@std@@@std@@@2@XZ ; std::vector<tagAniSoundEventInfo,std::allocator<tagAniSoundEventInfo> >::begin
; Function compile flags: /Ogsp
;	COMDAT ?begin@?$vector@UtagAniSoundEventInfo@@V?$allocator@UtagAniSoundEventInfo@@@std@@@std@@QAE?AV?$_Vector_iterator@V?$_Vector_val@UtagAniSoundEventInfo@@V?$allocator@UtagAniSoundEventInfo@@@std@@@std@@@2@XZ
_TEXT	SEGMENT
___$ReturnUdt$ = 8					; size = 4
?begin@?$vector@UtagAniSoundEventInfo@@V?$allocator@UtagAniSoundEventInfo@@@std@@@std@@QAE?AV?$_Vector_iterator@V?$_Vector_val@UtagAniSoundEventInfo@@V?$allocator@UtagAniSoundEventInfo@@@std@@@std@@@2@XZ PROC ; std::vector<tagAniSoundEventInfo,std::allocator<tagAniSoundEventInfo> >::begin, COMDAT
; _this$ = ecx

; 781  : 		{	// return iterator for beginning of mutable sequence

  00000	55		 push	 ebp
  00001	8b ec		 mov	 ebp, esp

; 782  : 		return (iterator(this->_Myfirst, this));

  00003	8b 09		 mov	 ecx, DWORD PTR [ecx]
  00005	8b 45 08	 mov	 eax, DWORD PTR ___$ReturnUdt$[ebp]
  00008	89 08		 mov	 DWORD PTR [eax], ecx

; 783  : 		}

  0000a	5d		 pop	 ebp
  0000b	c2 04 00	 ret	 4
?begin@?$vector@UtagAniSoundEventInfo@@V?$allocator@UtagAniSoundEventInfo@@@std@@@std@@QAE?AV?$_Vector_iterator@V?$_Vector_val@UtagAniSoundEventInfo@@V?$allocator@UtagAniSoundEventInfo@@@std@@@std@@@2@XZ ENDP ; std::vector<tagAniSoundEventInfo,std::allocator<tagAniSoundEventInfo> >::begin
_TEXT	ENDS
PUBLIC	?end@?$vector@UtagAniSoundEventInfo@@V?$allocator@UtagAniSoundEventInfo@@@std@@@std@@QAE?AV?$_Vector_iterator@V?$_Vector_val@UtagAniSoundEventInfo@@V?$allocator@UtagAniSoundEventInfo@@@std@@@std@@@2@XZ ; std::vector<tagAniSoundEventInfo,std::allocator<tagAniSoundEventInfo> >::end
; Function compile flags: /Ogsp
;	COMDAT ?end@?$vector@UtagAniSoundEventInfo@@V?$allocator@UtagAniSoundEventInfo@@@std@@@std@@QAE?AV?$_Vector_iterator@V?$_Vector_val@UtagAniSoundEventInfo@@V?$allocator@UtagAniSoundEventInfo@@@std@@@std@@@2@XZ
_TEXT	SEGMENT
___$ReturnUdt$ = 8					; size = 4
?end@?$vector@UtagAniSoundEventInfo@@V?$allocator@UtagAniSoundEventInfo@@@std@@@std@@QAE?AV?$_Vector_iterator@V?$_Vector_val@UtagAniSoundEventInfo@@V?$allocator@UtagAniSoundEventInfo@@@std@@@std@@@2@XZ PROC ; std::vector<tagAniSoundEventInfo,std::allocator<tagAniSoundEventInfo> >::end, COMDAT
; _this$ = ecx

; 791  : 		{	// return iterator for end of mutable sequence

  00000	55		 push	 ebp
  00001	8b ec		 mov	 ebp, esp

; 792  : 		return (iterator(this->_Mylast, this));

  00003	8b 49 04	 mov	 ecx, DWORD PTR [ecx+4]
  00006	8b 45 08	 mov	 eax, DWORD PTR ___$ReturnUdt$[ebp]
  00009	89 08		 mov	 DWORD PTR [eax], ecx

; 793  : 		}

  0000b	5d		 pop	 ebp
  0000c	c2 04 00	 ret	 4
?end@?$vector@UtagAniSoundEventInfo@@V?$allocator@UtagAniSoundEventInfo@@@std@@@std@@QAE?AV?$_Vector_iterator@V?$_Vector_val@UtagAniSoundEventInfo@@V?$allocator@UtagAniSoundEventInfo@@@std@@@std@@@2@XZ ENDP ; std::vector<tagAniSoundEventInfo,std::allocator<tagAniSoundEventInfo> >::end
_TEXT	ENDS
PUBLIC	?_Make_iter@?$vector@UAniEventInfo@@V?$allocator@UAniEventInfo@@@std@@@std@@QBE?AV?$_Vector_iterator@V?$_Vector_val@UAniEventInfo@@V?$allocator@UAniEventInfo@@@std@@@std@@@2@V?$_Vector_const_iterator@V?$_Vector_val@UAniEventInfo@@V?$allocator@UAniEventInfo@@@std@@@std@@@2@@Z ; std::vector<AniEventInfo,std::allocator<AniEventInfo> >::_Make_iter
; Function compile flags: /Ogsp
;	COMDAT ?_Make_iter@?$vector@UAniEventInfo@@V?$allocator@UAniEventInfo@@@std@@@std@@QBE?AV?$_Vector_iterator@V?$_Vector_val@UAniEventInfo@@V?$allocator@UAniEventInfo@@@std@@@std@@@2@V?$_Vector_const_iterator@V?$_Vector_val@UAniEventInfo@@V?$allocator@UAniEventInfo@@@std@@@std@@@2@@Z
_TEXT	SEGMENT
___$ReturnUdt$ = 8					; size = 4
__Where$ = 12						; size = 4
?_Make_iter@?$vector@UAniEventInfo@@V?$allocator@UAniEventInfo@@@std@@@std@@QBE?AV?$_Vector_iterator@V?$_Vector_val@UAniEventInfo@@V?$allocator@UAniEventInfo@@@std@@@std@@@2@V?$_Vector_const_iterator@V?$_Vector_val@UAniEventInfo@@V?$allocator@UAniEventInfo@@@std@@@std@@@2@@Z PROC ; std::vector<AniEventInfo,std::allocator<AniEventInfo> >::_Make_iter, COMDAT
; _this$ = ecx

; 801  : 		{	// make iterator from const_iterator

  00000	55		 push	 ebp
  00001	8b ec		 mov	 ebp, esp

; 802  : 		return (iterator(_Where._Ptr, this));

  00003	8b 45 08	 mov	 eax, DWORD PTR ___$ReturnUdt$[ebp]
  00006	8b 4d 0c	 mov	 ecx, DWORD PTR __Where$[ebp]
  00009	89 08		 mov	 DWORD PTR [eax], ecx

; 803  : 		}

  0000b	5d		 pop	 ebp
  0000c	c2 08 00	 ret	 8
?_Make_iter@?$vector@UAniEventInfo@@V?$allocator@UAniEventInfo@@@std@@@std@@QBE?AV?$_Vector_iterator@V?$_Vector_val@UAniEventInfo@@V?$allocator@UAniEventInfo@@@std@@@std@@@2@V?$_Vector_const_iterator@V?$_Vector_val@UAniEventInfo@@V?$allocator@UAniEventInfo@@@std@@@std@@@2@@Z ENDP ; std::vector<AniEventInfo,std::allocator<AniEventInfo> >::_Make_iter
_TEXT	ENDS
PUBLIC	?_Make_iter@?$vector@UtagAniSoundEventInfo@@V?$allocator@UtagAniSoundEventInfo@@@std@@@std@@QBE?AV?$_Vector_iterator@V?$_Vector_val@UtagAniSoundEventInfo@@V?$allocator@UtagAniSoundEventInfo@@@std@@@std@@@2@V?$_Vector_const_iterator@V?$_Vector_val@UtagAniSoundEventInfo@@V?$allocator@UtagAniSoundEventInfo@@@std@@@std@@@2@@Z ; std::vector<tagAniSoundEventInfo,std::allocator<tagAniSoundEventInfo> >::_Make_iter
; Function compile flags: /Ogsp
;	COMDAT ?_Make_iter@?$vector@UtagAniSoundEventInfo@@V?$allocator@UtagAniSoundEventInfo@@@std@@@std@@QBE?AV?$_Vector_iterator@V?$_Vector_val@UtagAniSoundEventInfo@@V?$allocator@UtagAniSoundEventInfo@@@std@@@std@@@2@V?$_Vector_const_iterator@V?$_Vector_val@UtagAniSoundEventInfo@@V?$allocator@UtagAniSoundEventInfo@@@std@@@std@@@2@@Z
_TEXT	SEGMENT
___$ReturnUdt$ = 8					; size = 4
__Where$ = 12						; size = 4
?_Make_iter@?$vector@UtagAniSoundEventInfo@@V?$allocator@UtagAniSoundEventInfo@@@std@@@std@@QBE?AV?$_Vector_iterator@V?$_Vector_val@UtagAniSoundEventInfo@@V?$allocator@UtagAniSoundEventInfo@@@std@@@std@@@2@V?$_Vector_const_iterator@V?$_Vector_val@UtagAniSoundEventInfo@@V?$allocator@UtagAniSoundEventInfo@@@std@@@std@@@2@@Z PROC ; std::vector<tagAniSoundEventInfo,std::allocator<tagAniSoundEventInfo> >::_Make_iter, COMDAT
; _this$ = ecx

; 801  : 		{	// make iterator from const_iterator

  00000	55		 push	 ebp
  00001	8b ec		 mov	 ebp, esp

; 802  : 		return (iterator(_Where._Ptr, this));

  00003	8b 45 08	 mov	 eax, DWORD PTR ___$ReturnUdt$[ebp]
  00006	8b 4d 0c	 mov	 ecx, DWORD PTR __Where$[ebp]
  00009	89 08		 mov	 DWORD PTR [eax], ecx

; 803  : 		}

  0000b	5d		 pop	 ebp
  0000c	c2 08 00	 ret	 8
?_Make_iter@?$vector@UtagAniSoundEventInfo@@V?$allocator@UtagAniSoundEventInfo@@@std@@@std@@QBE?AV?$_Vector_iterator@V?$_Vector_val@UtagAniSoundEventInfo@@V?$allocator@UtagAniSoundEventInfo@@@std@@@std@@@2@V?$_Vector_const_iterator@V?$_Vector_val@UtagAniSoundEventInfo@@V?$allocator@UtagAniSoundEventInfo@@@std@@@std@@@2@@Z ENDP ; std::vector<tagAniSoundEventInfo,std::allocator<tagAniSoundEventInfo> >::_Make_iter
_TEXT	ENDS
PUBLIC	??$_Dest_val@V?$allocator@UAniEventInfo@@@std@@UAniEventInfo@@@std@@YAXAAV?$allocator@UAniEventInfo@@@0@PAUAniEventInfo@@@Z ; std::_Dest_val<std::allocator<AniEventInfo>,AniEventInfo>
; Function compile flags: /Ogsp
; File c:\program files (x86)\microsoft visual studio 10.0\vc\include\xmemory
;	COMDAT ??$_Dest_val@V?$allocator@UAniEventInfo@@@std@@UAniEventInfo@@@std@@YAXAAV?$allocator@UAniEventInfo@@@0@PAUAniEventInfo@@@Z
_TEXT	SEGMENT
__Alval$ = 8						; size = 4
__Pdest$ = 12						; size = 4
??$_Dest_val@V?$allocator@UAniEventInfo@@@std@@UAniEventInfo@@@std@@YAXAAV?$allocator@UAniEventInfo@@@0@PAUAniEventInfo@@@Z PROC ; std::_Dest_val<std::allocator<AniEventInfo>,AniEventInfo>, COMDAT

; 286  : 	{	// destroy using allocator

  00000	55		 push	 ebp
  00001	8b ec		 mov	 ebp, esp

; 287  : 	_Alval.destroy(_Pdest);

  00003	8b 4d 0c	 mov	 ecx, DWORD PTR __Pdest$[ebp]

; 288  : 	}

  00006	5d		 pop	 ebp

; 287  : 	_Alval.destroy(_Pdest);

  00007	e9 00 00 00 00	 jmp	 ??1AniEventInfo@@QAE@XZ
??$_Dest_val@V?$allocator@UAniEventInfo@@@std@@UAniEventInfo@@@std@@YAXAAV?$allocator@UAniEventInfo@@@0@PAUAniEventInfo@@@Z ENDP ; std::_Dest_val<std::allocator<AniEventInfo>,AniEventInfo>
_TEXT	ENDS
PUBLIC	??$_Dest_val@V?$allocator@UtagAniSoundEventInfo@@@std@@UtagAniSoundEventInfo@@@std@@YAXAAV?$allocator@UtagAniSoundEventInfo@@@0@PAUtagAniSoundEventInfo@@@Z ; std::_Dest_val<std::allocator<tagAniSoundEventInfo>,tagAniSoundEventInfo>
; Function compile flags: /Ogsp
;	COMDAT ??$_Dest_val@V?$allocator@UtagAniSoundEventInfo@@@std@@UtagAniSoundEventInfo@@@std@@YAXAAV?$allocator@UtagAniSoundEventInfo@@@0@PAUtagAniSoundEventInfo@@@Z
_TEXT	SEGMENT
__Alval$ = 8						; size = 4
__Pdest$ = 12						; size = 4
??$_Dest_val@V?$allocator@UtagAniSoundEventInfo@@@std@@UtagAniSoundEventInfo@@@std@@YAXAAV?$allocator@UtagAniSoundEventInfo@@@0@PAUtagAniSoundEventInfo@@@Z PROC ; std::_Dest_val<std::allocator<tagAniSoundEventInfo>,tagAniSoundEventInfo>, COMDAT

; 286  : 	{	// destroy using allocator

  00000	55		 push	 ebp
  00001	8b ec		 mov	 ebp, esp

; 287  : 	_Alval.destroy(_Pdest);

  00003	8b 4d 0c	 mov	 ecx, DWORD PTR __Pdest$[ebp]

; 288  : 	}

  00006	5d		 pop	 ebp

; 287  : 	_Alval.destroy(_Pdest);

  00007	e9 00 00 00 00	 jmp	 ??1tagAniSoundEventInfo@@QAE@XZ
??$_Dest_val@V?$allocator@UtagAniSoundEventInfo@@@std@@UtagAniSoundEventInfo@@@std@@YAXAAV?$allocator@UtagAniSoundEventInfo@@@0@PAUtagAniSoundEventInfo@@@Z ENDP ; std::_Dest_val<std::allocator<tagAniSoundEventInfo>,tagAniSoundEventInfo>
_TEXT	ENDS
PUBLIC	??$_Uninit_move@PAUAniEventInfo@@PAU1@V?$allocator@UAniEventInfo@@@std@@U1@@std@@YAPAUAniEventInfo@@PAU1@00AAV?$allocator@UAniEventInfo@@@0@0U_Nonscalar_ptr_iterator_tag@0@@Z ; std::_Uninit_move<AniEventInfo *,AniEventInfo *,std::allocator<AniEventInfo>,AniEventInfo>
EXTRN	__EH_prolog3_catch:PROC
;	COMDAT xdata$x
xdata$x	SEGMENT
__catchsym$??$_Uninit_move@PAUAniEventInfo@@PAU1@V?$allocator@UAniEventInfo@@@std@@U1@@std@@YAPAUAniEventInfo@@PAU1@00AAV?$allocator@UAniEventInfo@@@0@0U_Nonscalar_ptr_iterator_tag@0@@Z$2 DD 040H
	DD	00H
	DD	00H
	DD	FLAT:__catch$??$_Uninit_move@PAUAniEventInfo@@PAU1@V?$allocator@UAniEventInfo@@@std@@U1@@std@@YAPAUAniEventInfo@@PAU1@00AAV?$allocator@UAniEventInfo@@@0@0U_Nonscalar_ptr_iterator_tag@0@@Z$0
__unwindtable$??$_Uninit_move@PAUAniEventInfo@@PAU1@V?$allocator@UAniEventInfo@@@std@@U1@@std@@YAPAUAniEventInfo@@PAU1@00AAV?$allocator@UAniEventInfo@@@0@0U_Nonscalar_ptr_iterator_tag@0@@Z DD 0ffffffffH
	DD	00H
	DD	0ffffffffH
	DD	00H
__tryblocktable$??$_Uninit_move@PAUAniEventInfo@@PAU1@V?$allocator@UAniEventInfo@@@std@@U1@@std@@YAPAUAniEventInfo@@PAU1@00AAV?$allocator@UAniEventInfo@@@0@0U_Nonscalar_ptr_iterator_tag@0@@Z DD 00H
	DD	00H
	DD	01H
	DD	01H
	DD	FLAT:__catchsym$??$_Uninit_move@PAUAniEventInfo@@PAU1@V?$allocator@UAniEventInfo@@@std@@U1@@std@@YAPAUAniEventInfo@@PAU1@00AAV?$allocator@UAniEventInfo@@@0@0U_Nonscalar_ptr_iterator_tag@0@@Z$2
__ehfuncinfo$??$_Uninit_move@PAUAniEventInfo@@PAU1@V?$allocator@UAniEventInfo@@@std@@U1@@std@@YAPAUAniEventInfo@@PAU1@00AAV?$allocator@UAniEventInfo@@@0@0U_Nonscalar_ptr_iterator_tag@0@@Z DD 019930522H
	DD	02H
	DD	FLAT:__unwindtable$??$_Uninit_move@PAUAniEventInfo@@PAU1@V?$allocator@UAniEventInfo@@@std@@U1@@std@@YAPAUAniEventInfo@@PAU1@00AAV?$allocator@UAniEventInfo@@@0@0U_Nonscalar_ptr_iterator_tag@0@@Z
	DD	01H
	DD	FLAT:__tryblocktable$??$_Uninit_move@PAUAniEventInfo@@PAU1@V?$allocator@UAniEventInfo@@@std@@U1@@std@@YAPAUAniEventInfo@@PAU1@00AAV?$allocator@UAniEventInfo@@@0@0U_Nonscalar_ptr_iterator_tag@0@@Z
	DD	2 DUP(00H)
	DD	00H
	DD	01H
; Function compile flags: /Ogsp
; File c:\program files (x86)\microsoft visual studio 10.0\vc\include\memory
xdata$x	ENDS
;	COMDAT ??$_Uninit_move@PAUAniEventInfo@@PAU1@V?$allocator@UAniEventInfo@@@std@@U1@@std@@YAPAUAniEventInfo@@PAU1@00AAV?$allocator@UAniEventInfo@@@0@0U_Nonscalar_ptr_iterator_tag@0@@Z
_TEXT	SEGMENT
__Next$ = -20						; size = 4
__$EHRec$ = -16						; size = 16
__First$ = 8						; size = 4
__Last$ = 12						; size = 4
__Dest$ = 16						; size = 4
__Al$ = 20						; size = 4
___formal$ = 24						; size = 4
___formal$ = 28						; size = 1
??$_Uninit_move@PAUAniEventInfo@@PAU1@V?$allocator@UAniEventInfo@@@std@@U1@@std@@YAPAUAniEventInfo@@PAU1@00AAV?$allocator@UAniEventInfo@@@0@0U_Nonscalar_ptr_iterator_tag@0@@Z PROC ; std::_Uninit_move<AniEventInfo *,AniEventInfo *,std::allocator<AniEventInfo>,AniEventInfo>, COMDAT

; 424  : 	{	// move [_First, _Last) to raw _Dest, using _Al, arbitrary type

  00000	6a 08		 push	 8
  00002	b8 00 00 00 00	 mov	 eax, __ehhandler$??$_Uninit_move@PAUAniEventInfo@@PAU1@V?$allocator@UAniEventInfo@@@std@@U1@@std@@YAPAUAniEventInfo@@PAU1@00AAV?$allocator@UAniEventInfo@@@0@0U_Nonscalar_ptr_iterator_tag@0@@Z
  00007	e8 00 00 00 00	 call	 __EH_prolog3_catch

; 425  : 	_DEBUG_RANGE(_First, _Last);
; 426  : 	_DEBUG_POINTER(_Dest);
; 427  : 	_FwdIt _Next = _Dest;

  0000c	8b 45 10	 mov	 eax, DWORD PTR __Dest$[ebp]

; 428  : 
; 429  : 	_TRY_BEGIN

  0000f	83 65 fc 00	 and	 DWORD PTR __$EHRec$[ebp+12], 0
  00013	8b 75 08	 mov	 esi, DWORD PTR __First$[ebp]
  00016	89 45 ec	 mov	 DWORD PTR __Next$[ebp], eax
$LL6@Uninit_mov:

; 430  : 	for (; _First != _Last; ++_Dest, ++_First)

  00019	3b 75 0c	 cmp	 esi, DWORD PTR __Last$[ebp]
  0001c	74 35		 je	 SHORT $LN4@Uninit_mov

; 431  : 		_Cons_val(_Al, _Dest, (_Valty &&)*_First);

  0001e	56		 push	 esi
  0001f	ff 75 10	 push	 DWORD PTR __Dest$[ebp]
  00022	ff 75 14	 push	 DWORD PTR __Al$[ebp]
  00025	e8 00 00 00 00	 call	 ??$_Cons_val@V?$allocator@UAniEventInfo@@@std@@UAniEventInfo@@U3@@std@@YAXAAV?$allocator@UAniEventInfo@@@0@PAUAniEventInfo@@$$QAU2@@Z ; std::_Cons_val<std::allocator<AniEventInfo>,AniEventInfo,AniEventInfo>
  0002a	83 45 10 20	 add	 DWORD PTR __Dest$[ebp], 32 ; 00000020H
  0002e	83 c4 0c	 add	 esp, 12			; 0000000cH
  00031	83 c6 20	 add	 esi, 32			; 00000020H
  00034	eb e3		 jmp	 SHORT $LL6@Uninit_mov
__catch$??$_Uninit_move@PAUAniEventInfo@@PAU1@V?$allocator@UAniEventInfo@@@std@@U1@@std@@YAPAUAniEventInfo@@PAU1@00AAV?$allocator@UAniEventInfo@@@0@0U_Nonscalar_ptr_iterator_tag@0@@Z$0:

; 432  : 	_CATCH_ALL
; 433  : 	for (; _Next != _Dest; ++_Next)

  00036	8b 75 ec	 mov	 esi, DWORD PTR __Next$[ebp]
  00039	eb 0a		 jmp	 SHORT $LN29@Uninit_mov
$LL3@Uninit_mov:

; 434  : 		_Dest_val(_Al, _Next);

  0003b	8b ce		 mov	 ecx, esi
  0003d	e8 00 00 00 00	 call	 ??1AniEventInfo@@QAE@XZ
  00042	83 c6 20	 add	 esi, 32			; 00000020H
$LN29@Uninit_mov:

; 432  : 	_CATCH_ALL
; 433  : 	for (; _Next != _Dest; ++_Next)

  00045	3b 75 10	 cmp	 esi, DWORD PTR __Dest$[ebp]
  00048	75 f1		 jne	 SHORT $LL3@Uninit_mov

; 435  : 	_RERAISE;

  0004a	6a 00		 push	 0
  0004c	6a 00		 push	 0
  0004e	e8 00 00 00 00	 call	 __CxxThrowException@8
$LN30@Uninit_mov:
$LN4@Uninit_mov:

; 436  : 	_CATCH_END
; 437  : 	return (_Dest);

  00053	8b 45 10	 mov	 eax, DWORD PTR __Dest$[ebp]

; 438  : 	}

  00056	e8 00 00 00 00	 call	 __EH_epilog3
  0005b	c3		 ret	 0
$LN28@Uninit_mov:
_TEXT	ENDS
;	COMDAT text$x
text$x	SEGMENT
__ehhandler$??$_Uninit_move@PAUAniEventInfo@@PAU1@V?$allocator@UAniEventInfo@@@std@@U1@@std@@YAPAUAniEventInfo@@PAU1@00AAV?$allocator@UAniEventInfo@@@0@0U_Nonscalar_ptr_iterator_tag@0@@Z:
  00000	8b 54 24 08	 mov	 edx, DWORD PTR [esp+8]
  00004	8d 42 0c	 lea	 eax, DWORD PTR [edx+12]
  00007	8b 4a e8	 mov	 ecx, DWORD PTR [edx-24]
  0000a	33 c8		 xor	 ecx, eax
  0000c	e8 00 00 00 00	 call	 @__security_check_cookie@4
  00011	b8 00 00 00 00	 mov	 eax, OFFSET __ehfuncinfo$??$_Uninit_move@PAUAniEventInfo@@PAU1@V?$allocator@UAniEventInfo@@@std@@U1@@std@@YAPAUAniEventInfo@@PAU1@00AAV?$allocator@UAniEventInfo@@@0@0U_Nonscalar_ptr_iterator_tag@0@@Z
  00016	e9 00 00 00 00	 jmp	 ___CxxFrameHandler3
text$x	ENDS
??$_Uninit_move@PAUAniEventInfo@@PAU1@V?$allocator@UAniEventInfo@@@std@@U1@@std@@YAPAUAniEventInfo@@PAU1@00AAV?$allocator@UAniEventInfo@@@0@0U_Nonscalar_ptr_iterator_tag@0@@Z ENDP ; std::_Uninit_move<AniEventInfo *,AniEventInfo *,std::allocator<AniEventInfo>,AniEventInfo>
PUBLIC	??$_Uninit_move@PAUtagAniSoundEventInfo@@PAU1@V?$allocator@UtagAniSoundEventInfo@@@std@@U1@@std@@YAPAUtagAniSoundEventInfo@@PAU1@00AAV?$allocator@UtagAniSoundEventInfo@@@0@0U_Nonscalar_ptr_iterator_tag@0@@Z ; std::_Uninit_move<tagAniSoundEventInfo *,tagAniSoundEventInfo *,std::allocator<tagAniSoundEventInfo>,tagAniSoundEventInfo>
;	COMDAT xdata$x
; File c:\program files (x86)\microsoft visual studio 10.0\vc\include\xmemory
xdata$x	SEGMENT
__catchsym$??$_Uninit_move@PAUtagAniSoundEventInfo@@PAU1@V?$allocator@UtagAniSoundEventInfo@@@std@@U1@@std@@YAPAUtagAniSoundEventInfo@@PAU1@00AAV?$allocator@UtagAniSoundEventInfo@@@0@0U_Nonscalar_ptr_iterator_tag@0@@Z$2 DD 040H
	DD	00H
	DD	00H
	DD	FLAT:__catch$??$_Uninit_move@PAUtagAniSoundEventInfo@@PAU1@V?$allocator@UtagAniSoundEventInfo@@@std@@U1@@std@@YAPAUtagAniSoundEventInfo@@PAU1@00AAV?$allocator@UtagAniSoundEventInfo@@@0@0U_Nonscalar_ptr_iterator_tag@0@@Z$0
__unwindtable$??$_Uninit_move@PAUtagAniSoundEventInfo@@PAU1@V?$allocator@UtagAniSoundEventInfo@@@std@@U1@@std@@YAPAUtagAniSoundEventInfo@@PAU1@00AAV?$allocator@UtagAniSoundEventInfo@@@0@0U_Nonscalar_ptr_iterator_tag@0@@Z DD 0ffffffffH
	DD	00H
	DD	0ffffffffH
	DD	00H
__tryblocktable$??$_Uninit_move@PAUtagAniSoundEventInfo@@PAU1@V?$allocator@UtagAniSoundEventInfo@@@std@@U1@@std@@YAPAUtagAniSoundEventInfo@@PAU1@00AAV?$allocator@UtagAniSoundEventInfo@@@0@0U_Nonscalar_ptr_iterator_tag@0@@Z DD 00H
	DD	00H
	DD	01H
	DD	01H
	DD	FLAT:__catchsym$??$_Uninit_move@PAUtagAniSoundEventInfo@@PAU1@V?$allocator@UtagAniSoundEventInfo@@@std@@U1@@std@@YAPAUtagAniSoundEventInfo@@PAU1@00AAV?$allocator@UtagAniSoundEventInfo@@@0@0U_Nonscalar_ptr_iterator_tag@0@@Z$2
__ehfuncinfo$??$_Uninit_move@PAUtagAniSoundEventInfo@@PAU1@V?$allocator@UtagAniSoundEventInfo@@@std@@U1@@std@@YAPAUtagAniSoundEventInfo@@PAU1@00AAV?$allocator@UtagAniSoundEventInfo@@@0@0U_Nonscalar_ptr_iterator_tag@0@@Z DD 019930522H
	DD	02H
	DD	FLAT:__unwindtable$??$_Uninit_move@PAUtagAniSoundEventInfo@@PAU1@V?$allocator@UtagAniSoundEventInfo@@@std@@U1@@std@@YAPAUtagAniSoundEventInfo@@PAU1@00AAV?$allocator@UtagAniSoundEventInfo@@@0@0U_Nonscalar_ptr_iterator_tag@0@@Z
	DD	01H
	DD	FLAT:__tryblocktable$??$_Uninit_move@PAUtagAniSoundEventInfo@@PAU1@V?$allocator@UtagAniSoundEventInfo@@@std@@U1@@std@@YAPAUtagAniSoundEventInfo@@PAU1@00AAV?$allocator@UtagAniSoundEventInfo@@@0@0U_Nonscalar_ptr_iterator_tag@0@@Z
	DD	2 DUP(00H)
	DD	00H
	DD	01H
; Function compile flags: /Ogsp
; File c:\program files (x86)\microsoft visual studio 10.0\vc\include\memory
xdata$x	ENDS
;	COMDAT ??$_Uninit_move@PAUtagAniSoundEventInfo@@PAU1@V?$allocator@UtagAniSoundEventInfo@@@std@@U1@@std@@YAPAUtagAniSoundEventInfo@@PAU1@00AAV?$allocator@UtagAniSoundEventInfo@@@0@0U_Nonscalar_ptr_iterator_tag@0@@Z
_TEXT	SEGMENT
__Next$ = -20						; size = 4
__$EHRec$ = -16						; size = 16
__First$ = 8						; size = 4
__Last$ = 12						; size = 4
__Dest$ = 16						; size = 4
__Al$ = 20						; size = 4
___formal$ = 24						; size = 4
___formal$ = 28						; size = 1
??$_Uninit_move@PAUtagAniSoundEventInfo@@PAU1@V?$allocator@UtagAniSoundEventInfo@@@std@@U1@@std@@YAPAUtagAniSoundEventInfo@@PAU1@00AAV?$allocator@UtagAniSoundEventInfo@@@0@0U_Nonscalar_ptr_iterator_tag@0@@Z PROC ; std::_Uninit_move<tagAniSoundEventInfo *,tagAniSoundEventInfo *,std::allocator<tagAniSoundEventInfo>,tagAniSoundEventInfo>, COMDAT

; 424  : 	{	// move [_First, _Last) to raw _Dest, using _Al, arbitrary type

  00000	6a 08		 push	 8
  00002	b8 00 00 00 00	 mov	 eax, __ehhandler$??$_Uninit_move@PAUtagAniSoundEventInfo@@PAU1@V?$allocator@UtagAniSoundEventInfo@@@std@@U1@@std@@YAPAUtagAniSoundEventInfo@@PAU1@00AAV?$allocator@UtagAniSoundEventInfo@@@0@0U_Nonscalar_ptr_iterator_tag@0@@Z
  00007	e8 00 00 00 00	 call	 __EH_prolog3_catch

; 425  : 	_DEBUG_RANGE(_First, _Last);
; 426  : 	_DEBUG_POINTER(_Dest);
; 427  : 	_FwdIt _Next = _Dest;

  0000c	8b 45 10	 mov	 eax, DWORD PTR __Dest$[ebp]

; 428  : 
; 429  : 	_TRY_BEGIN

  0000f	83 65 fc 00	 and	 DWORD PTR __$EHRec$[ebp+12], 0
  00013	8b 75 08	 mov	 esi, DWORD PTR __First$[ebp]
  00016	89 45 ec	 mov	 DWORD PTR __Next$[ebp], eax
$LL6@Uninit_mov@2:

; 430  : 	for (; _First != _Last; ++_Dest, ++_First)

  00019	3b 75 0c	 cmp	 esi, DWORD PTR __Last$[ebp]
  0001c	74 35		 je	 SHORT $LN4@Uninit_mov@2

; 431  : 		_Cons_val(_Al, _Dest, (_Valty &&)*_First);

  0001e	56		 push	 esi
  0001f	ff 75 10	 push	 DWORD PTR __Dest$[ebp]
  00022	ff 75 14	 push	 DWORD PTR __Al$[ebp]
  00025	e8 00 00 00 00	 call	 ??$_Cons_val@V?$allocator@UtagAniSoundEventInfo@@@std@@UtagAniSoundEventInfo@@U3@@std@@YAXAAV?$allocator@UtagAniSoundEventInfo@@@0@PAUtagAniSoundEventInfo@@$$QAU2@@Z ; std::_Cons_val<std::allocator<tagAniSoundEventInfo>,tagAniSoundEventInfo,tagAniSoundEventInfo>
  0002a	83 45 10 24	 add	 DWORD PTR __Dest$[ebp], 36 ; 00000024H
  0002e	83 c4 0c	 add	 esp, 12			; 0000000cH
  00031	83 c6 24	 add	 esi, 36			; 00000024H
  00034	eb e3		 jmp	 SHORT $LL6@Uninit_mov@2
__catch$??$_Uninit_move@PAUtagAniSoundEventInfo@@PAU1@V?$allocator@UtagAniSoundEventInfo@@@std@@U1@@std@@YAPAUtagAniSoundEventInfo@@PAU1@00AAV?$allocator@UtagAniSoundEventInfo@@@0@0U_Nonscalar_ptr_iterator_tag@0@@Z$0:

; 432  : 	_CATCH_ALL
; 433  : 	for (; _Next != _Dest; ++_Next)

  00036	8b 75 ec	 mov	 esi, DWORD PTR __Next$[ebp]
  00039	eb 0a		 jmp	 SHORT $LN29@Uninit_mov@2
$LL3@Uninit_mov@2:

; 434  : 		_Dest_val(_Al, _Next);

  0003b	8b ce		 mov	 ecx, esi
  0003d	e8 00 00 00 00	 call	 ??1tagAniSoundEventInfo@@QAE@XZ
  00042	83 c6 24	 add	 esi, 36			; 00000024H
$LN29@Uninit_mov@2:

; 432  : 	_CATCH_ALL
; 433  : 	for (; _Next != _Dest; ++_Next)

  00045	3b 75 10	 cmp	 esi, DWORD PTR __Dest$[ebp]
  00048	75 f1		 jne	 SHORT $LL3@Uninit_mov@2

; 435  : 	_RERAISE;

  0004a	6a 00		 push	 0
  0004c	6a 00		 push	 0
  0004e	e8 00 00 00 00	 call	 __CxxThrowException@8
$LN30@Uninit_mov@2:
$LN4@Uninit_mov@2:

; 436  : 	_CATCH_END
; 437  : 	return (_Dest);

  00053	8b 45 10	 mov	 eax, DWORD PTR __Dest$[ebp]

; 438  : 	}

  00056	e8 00 00 00 00	 call	 __EH_epilog3
  0005b	c3		 ret	 0
$LN28@Uninit_mov@2:
_TEXT	ENDS
;	COMDAT text$x
text$x	SEGMENT
__ehhandler$??$_Uninit_move@PAUtagAniSoundEventInfo@@PAU1@V?$allocator@UtagAniSoundEventInfo@@@std@@U1@@std@@YAPAUtagAniSoundEventInfo@@PAU1@00AAV?$allocator@UtagAniSoundEventInfo@@@0@0U_Nonscalar_ptr_iterator_tag@0@@Z:
  00000	8b 54 24 08	 mov	 edx, DWORD PTR [esp+8]
  00004	8d 42 0c	 lea	 eax, DWORD PTR [edx+12]
  00007	8b 4a e8	 mov	 ecx, DWORD PTR [edx-24]
  0000a	33 c8		 xor	 ecx, eax
  0000c	e8 00 00 00 00	 call	 @__security_check_cookie@4
  00011	b8 00 00 00 00	 mov	 eax, OFFSET __ehfuncinfo$??$_Uninit_move@PAUtagAniSoundEventInfo@@PAU1@V?$allocator@UtagAniSoundEventInfo@@@std@@U1@@std@@YAPAUtagAniSoundEventInfo@@PAU1@00AAV?$allocator@UtagAniSoundEventInfo@@@0@0U_Nonscalar_ptr_iterator_tag@0@@Z
  00016	e9 00 00 00 00	 jmp	 ___CxxFrameHandler3
text$x	ENDS
??$_Uninit_move@PAUtagAniSoundEventInfo@@PAU1@V?$allocator@UtagAniSoundEventInfo@@@std@@U1@@std@@YAPAUtagAniSoundEventInfo@@PAU1@00AAV?$allocator@UtagAniSoundEventInfo@@@0@0U_Nonscalar_ptr_iterator_tag@0@@Z ENDP ; std::_Uninit_move<tagAniSoundEventInfo *,tagAniSoundEventInfo *,std::allocator<tagAniSoundEventInfo>,tagAniSoundEventInfo>
PUBLIC	??$_Destroy_range@V?$allocator@UAniEventInfo@@@std@@@std@@YAXPAUAniEventInfo@@0AAV?$allocator@UAniEventInfo@@@0@U_Nonscalar_ptr_iterator_tag@0@@Z ; std::_Destroy_range<std::allocator<AniEventInfo> >
; Function compile flags: /Ogsp
; File c:\program files (x86)\microsoft visual studio 10.0\vc\include\xmemory
;	COMDAT ??$_Destroy_range@V?$allocator@UAniEventInfo@@@std@@@std@@YAXPAUAniEventInfo@@0AAV?$allocator@UAniEventInfo@@@0@U_Nonscalar_ptr_iterator_tag@0@@Z
_TEXT	SEGMENT
__First$ = 8						; size = 4
__Last$ = 12						; size = 4
__Al$ = 16						; size = 4
___formal$ = 20						; size = 1
??$_Destroy_range@V?$allocator@UAniEventInfo@@@std@@@std@@YAXPAUAniEventInfo@@0AAV?$allocator@UAniEventInfo@@@0@U_Nonscalar_ptr_iterator_tag@0@@Z PROC ; std::_Destroy_range<std::allocator<AniEventInfo> >, COMDAT

; 95   : 	{	// destroy [_First, _Last), arbitrary type

  00000	55		 push	 ebp
  00001	8b ec		 mov	 ebp, esp
  00003	56		 push	 esi

; 96   : 	for (; _First != _Last; ++_First)

  00004	8b 75 08	 mov	 esi, DWORD PTR __First$[ebp]
  00007	eb 0a		 jmp	 SHORT $LN17@Destroy_ra
$LL3@Destroy_ra:

; 97   : 		_Dest_val(_Al, _First);

  00009	8b ce		 mov	 ecx, esi
  0000b	e8 00 00 00 00	 call	 ??1AniEventInfo@@QAE@XZ
  00010	83 c6 20	 add	 esi, 32			; 00000020H
$LN17@Destroy_ra:

; 96   : 	for (; _First != _Last; ++_First)

  00013	3b 75 0c	 cmp	 esi, DWORD PTR __Last$[ebp]
  00016	75 f1		 jne	 SHORT $LL3@Destroy_ra
  00018	5e		 pop	 esi

; 98   : 	}

  00019	5d		 pop	 ebp
  0001a	c3		 ret	 0
??$_Destroy_range@V?$allocator@UAniEventInfo@@@std@@@std@@YAXPAUAniEventInfo@@0AAV?$allocator@UAniEventInfo@@@0@U_Nonscalar_ptr_iterator_tag@0@@Z ENDP ; std::_Destroy_range<std::allocator<AniEventInfo> >
_TEXT	ENDS
PUBLIC	??$_Destroy_range@V?$allocator@UtagAniSoundEventInfo@@@std@@@std@@YAXPAUtagAniSoundEventInfo@@0AAV?$allocator@UtagAniSoundEventInfo@@@0@U_Nonscalar_ptr_iterator_tag@0@@Z ; std::_Destroy_range<std::allocator<tagAniSoundEventInfo> >
; Function compile flags: /Ogsp
;	COMDAT ??$_Destroy_range@V?$allocator@UtagAniSoundEventInfo@@@std@@@std@@YAXPAUtagAniSoundEventInfo@@0AAV?$allocator@UtagAniSoundEventInfo@@@0@U_Nonscalar_ptr_iterator_tag@0@@Z
_TEXT	SEGMENT
__First$ = 8						; size = 4
__Last$ = 12						; size = 4
__Al$ = 16						; size = 4
___formal$ = 20						; size = 1
??$_Destroy_range@V?$allocator@UtagAniSoundEventInfo@@@std@@@std@@YAXPAUtagAniSoundEventInfo@@0AAV?$allocator@UtagAniSoundEventInfo@@@0@U_Nonscalar_ptr_iterator_tag@0@@Z PROC ; std::_Destroy_range<std::allocator<tagAniSoundEventInfo> >, COMDAT

; 95   : 	{	// destroy [_First, _Last), arbitrary type

  00000	55		 push	 ebp
  00001	8b ec		 mov	 ebp, esp
  00003	56		 push	 esi

; 96   : 	for (; _First != _Last; ++_First)

  00004	8b 75 08	 mov	 esi, DWORD PTR __First$[ebp]
  00007	eb 0a		 jmp	 SHORT $LN17@Destroy_ra@2
$LL3@Destroy_ra@2:

; 97   : 		_Dest_val(_Al, _First);

  00009	8b ce		 mov	 ecx, esi
  0000b	e8 00 00 00 00	 call	 ??1tagAniSoundEventInfo@@QAE@XZ
  00010	83 c6 24	 add	 esi, 36			; 00000024H
$LN17@Destroy_ra@2:

; 96   : 	for (; _First != _Last; ++_First)

  00013	3b 75 0c	 cmp	 esi, DWORD PTR __Last$[ebp]
  00016	75 f1		 jne	 SHORT $LL3@Destroy_ra@2
  00018	5e		 pop	 esi

; 98   : 	}

  00019	5d		 pop	 ebp
  0001a	c3		 ret	 0
??$_Destroy_range@V?$allocator@UtagAniSoundEventInfo@@@std@@@std@@YAXPAUtagAniSoundEventInfo@@0AAV?$allocator@UtagAniSoundEventInfo@@@0@U_Nonscalar_ptr_iterator_tag@0@@Z ENDP ; std::_Destroy_range<std::allocator<tagAniSoundEventInfo> >
_TEXT	ENDS
PUBLIC	??$_Uninitialized_move@PAUAniEventInfo@@PAU1@V?$allocator@UAniEventInfo@@@std@@@std@@YAPAUAniEventInfo@@PAU1@00AAV?$allocator@UAniEventInfo@@@0@@Z ; std::_Uninitialized_move<AniEventInfo *,AniEventInfo *,std::allocator<AniEventInfo> >
; Function compile flags: /Ogsp
; File c:\program files (x86)\microsoft visual studio 10.0\vc\include\memory
;	COMDAT ??$_Uninitialized_move@PAUAniEventInfo@@PAU1@V?$allocator@UAniEventInfo@@@std@@@std@@YAPAUAniEventInfo@@PAU1@00AAV?$allocator@UAniEventInfo@@@0@@Z
_TEXT	SEGMENT
__Cat$508962 = -4					; size = 1
__First$ = 8						; size = 4
__Last$ = 12						; size = 4
__Dest$ = 16						; size = 4
__Al$ = 20						; size = 4
??$_Uninitialized_move@PAUAniEventInfo@@PAU1@V?$allocator@UAniEventInfo@@@std@@@std@@YAPAUAniEventInfo@@PAU1@00AAV?$allocator@UAniEventInfo@@@0@@Z PROC ; std::_Uninitialized_move<AniEventInfo *,AniEventInfo *,std::allocator<AniEventInfo> >, COMDAT

; 469  : 	{	// move [_First, _Last) to raw _Dest, using _Al

  00000	55		 push	 ebp
  00001	8b ec		 mov	 ebp, esp
  00003	51		 push	 ecx

; 470  : 	return (_Uninit_move(_First, _Last, _Dest, _Al,
; 471  : 		_Val_type(_First), _Ptr_cat(_First, _Dest)));

  00004	ff 75 fc	 push	 DWORD PTR __Cat$508962[ebp]
  00007	6a 00		 push	 0
  00009	ff 75 14	 push	 DWORD PTR __Al$[ebp]
  0000c	ff 75 10	 push	 DWORD PTR __Dest$[ebp]
  0000f	ff 75 0c	 push	 DWORD PTR __Last$[ebp]
  00012	ff 75 08	 push	 DWORD PTR __First$[ebp]
  00015	e8 00 00 00 00	 call	 ??$_Uninit_move@PAUAniEventInfo@@PAU1@V?$allocator@UAniEventInfo@@@std@@U1@@std@@YAPAUAniEventInfo@@PAU1@00AAV?$allocator@UAniEventInfo@@@0@0U_Nonscalar_ptr_iterator_tag@0@@Z ; std::_Uninit_move<AniEventInfo *,AniEventInfo *,std::allocator<AniEventInfo>,AniEventInfo>
  0001a	83 c4 18	 add	 esp, 24			; 00000018H

; 472  : 	}

  0001d	c9		 leave
  0001e	c3		 ret	 0
??$_Uninitialized_move@PAUAniEventInfo@@PAU1@V?$allocator@UAniEventInfo@@@std@@@std@@YAPAUAniEventInfo@@PAU1@00AAV?$allocator@UAniEventInfo@@@0@@Z ENDP ; std::_Uninitialized_move<AniEventInfo *,AniEventInfo *,std::allocator<AniEventInfo> >
_TEXT	ENDS
PUBLIC	??$_Uninitialized_move@PAUtagAniSoundEventInfo@@PAU1@V?$allocator@UtagAniSoundEventInfo@@@std@@@std@@YAPAUtagAniSoundEventInfo@@PAU1@00AAV?$allocator@UtagAniSoundEventInfo@@@0@@Z ; std::_Uninitialized_move<tagAniSoundEventInfo *,tagAniSoundEventInfo *,std::allocator<tagAniSoundEventInfo> >
; Function compile flags: /Ogsp
;	COMDAT ??$_Uninitialized_move@PAUtagAniSoundEventInfo@@PAU1@V?$allocator@UtagAniSoundEventInfo@@@std@@@std@@YAPAUtagAniSoundEventInfo@@PAU1@00AAV?$allocator@UtagAniSoundEventInfo@@@0@@Z
_TEXT	SEGMENT
__Cat$508972 = -4					; size = 1
__First$ = 8						; size = 4
__Last$ = 12						; size = 4
__Dest$ = 16						; size = 4
__Al$ = 20						; size = 4
??$_Uninitialized_move@PAUtagAniSoundEventInfo@@PAU1@V?$allocator@UtagAniSoundEventInfo@@@std@@@std@@YAPAUtagAniSoundEventInfo@@PAU1@00AAV?$allocator@UtagAniSoundEventInfo@@@0@@Z PROC ; std::_Uninitialized_move<tagAniSoundEventInfo *,tagAniSoundEventInfo *,std::allocator<tagAniSoundEventInfo> >, COMDAT

; 469  : 	{	// move [_First, _Last) to raw _Dest, using _Al

  00000	55		 push	 ebp
  00001	8b ec		 mov	 ebp, esp
  00003	51		 push	 ecx

; 470  : 	return (_Uninit_move(_First, _Last, _Dest, _Al,
; 471  : 		_Val_type(_First), _Ptr_cat(_First, _Dest)));

  00004	ff 75 fc	 push	 DWORD PTR __Cat$508972[ebp]
  00007	6a 00		 push	 0
  00009	ff 75 14	 push	 DWORD PTR __Al$[ebp]
  0000c	ff 75 10	 push	 DWORD PTR __Dest$[ebp]
  0000f	ff 75 0c	 push	 DWORD PTR __Last$[ebp]
  00012	ff 75 08	 push	 DWORD PTR __First$[ebp]
  00015	e8 00 00 00 00	 call	 ??$_Uninit_move@PAUtagAniSoundEventInfo@@PAU1@V?$allocator@UtagAniSoundEventInfo@@@std@@U1@@std@@YAPAUtagAniSoundEventInfo@@PAU1@00AAV?$allocator@UtagAniSoundEventInfo@@@0@0U_Nonscalar_ptr_iterator_tag@0@@Z ; std::_Uninit_move<tagAniSoundEventInfo *,tagAniSoundEventInfo *,std::allocator<tagAniSoundEventInfo>,tagAniSoundEventInfo>
  0001a	83 c4 18	 add	 esp, 24			; 00000018H

; 472  : 	}

  0001d	c9		 leave
  0001e	c3		 ret	 0
??$_Uninitialized_move@PAUtagAniSoundEventInfo@@PAU1@V?$allocator@UtagAniSoundEventInfo@@@std@@@std@@YAPAUtagAniSoundEventInfo@@PAU1@00AAV?$allocator@UtagAniSoundEventInfo@@@0@@Z ENDP ; std::_Uninitialized_move<tagAniSoundEventInfo *,tagAniSoundEventInfo *,std::allocator<tagAniSoundEventInfo> >
_TEXT	ENDS
PUBLIC	??$_Destroy_range@V?$allocator@UAniEventInfo@@@std@@@std@@YAXPAUAniEventInfo@@0AAV?$allocator@UAniEventInfo@@@0@@Z ; std::_Destroy_range<std::allocator<AniEventInfo> >
; Function compile flags: /Ogsp
; File c:\program files (x86)\microsoft visual studio 10.0\vc\include\xmemory
;	COMDAT ??$_Destroy_range@V?$allocator@UAniEventInfo@@@std@@@std@@YAXPAUAniEventInfo@@0AAV?$allocator@UAniEventInfo@@@0@@Z
_TEXT	SEGMENT
__First$ = 8						; size = 4
__Last$ = 12						; size = 4
__Al$ = 16						; size = 4
??$_Destroy_range@V?$allocator@UAniEventInfo@@@std@@@std@@YAXPAUAniEventInfo@@0AAV?$allocator@UAniEventInfo@@@0@@Z PROC ; std::_Destroy_range<std::allocator<AniEventInfo> >, COMDAT

; 87   : 	{	// destroy [_First, _Last)

  00000	55		 push	 ebp
  00001	8b ec		 mov	 ebp, esp
  00003	56		 push	 esi

; 88   : 	_Destroy_range(_First, _Last, _Al, _Ptr_cat(_First, _Last));

  00004	8b 75 08	 mov	 esi, DWORD PTR __First$[ebp]
  00007	eb 0a		 jmp	 SHORT $LN21@Destroy_ra@3
$LL7@Destroy_ra@3:
  00009	8b ce		 mov	 ecx, esi
  0000b	e8 00 00 00 00	 call	 ??1AniEventInfo@@QAE@XZ
  00010	83 c6 20	 add	 esi, 32			; 00000020H
$LN21@Destroy_ra@3:
  00013	3b 75 0c	 cmp	 esi, DWORD PTR __Last$[ebp]
  00016	75 f1		 jne	 SHORT $LL7@Destroy_ra@3
  00018	5e		 pop	 esi

; 89   : 	}

  00019	5d		 pop	 ebp
  0001a	c3		 ret	 0
??$_Destroy_range@V?$allocator@UAniEventInfo@@@std@@@std@@YAXPAUAniEventInfo@@0AAV?$allocator@UAniEventInfo@@@0@@Z ENDP ; std::_Destroy_range<std::allocator<AniEventInfo> >
_TEXT	ENDS
PUBLIC	??$_Destroy_range@V?$allocator@UtagAniSoundEventInfo@@@std@@@std@@YAXPAUtagAniSoundEventInfo@@0AAV?$allocator@UtagAniSoundEventInfo@@@0@@Z ; std::_Destroy_range<std::allocator<tagAniSoundEventInfo> >
; Function compile flags: /Ogsp
;	COMDAT ??$_Destroy_range@V?$allocator@UtagAniSoundEventInfo@@@std@@@std@@YAXPAUtagAniSoundEventInfo@@0AAV?$allocator@UtagAniSoundEventInfo@@@0@@Z
_TEXT	SEGMENT
__First$ = 8						; size = 4
__Last$ = 12						; size = 4
__Al$ = 16						; size = 4
??$_Destroy_range@V?$allocator@UtagAniSoundEventInfo@@@std@@@std@@YAXPAUtagAniSoundEventInfo@@0AAV?$allocator@UtagAniSoundEventInfo@@@0@@Z PROC ; std::_Destroy_range<std::allocator<tagAniSoundEventInfo> >, COMDAT

; 87   : 	{	// destroy [_First, _Last)

  00000	55		 push	 ebp
  00001	8b ec		 mov	 ebp, esp
  00003	56		 push	 esi

; 88   : 	_Destroy_range(_First, _Last, _Al, _Ptr_cat(_First, _Last));

  00004	8b 75 08	 mov	 esi, DWORD PTR __First$[ebp]
  00007	eb 0a		 jmp	 SHORT $LN21@Destroy_ra@4
$LL7@Destroy_ra@4:
  00009	8b ce		 mov	 ecx, esi
  0000b	e8 00 00 00 00	 call	 ??1tagAniSoundEventInfo@@QAE@XZ
  00010	83 c6 24	 add	 esi, 36			; 00000024H
$LN21@Destroy_ra@4:
  00013	3b 75 0c	 cmp	 esi, DWORD PTR __Last$[ebp]
  00016	75 f1		 jne	 SHORT $LL7@Destroy_ra@4
  00018	5e		 pop	 esi

; 89   : 	}

  00019	5d		 pop	 ebp
  0001a	c3		 ret	 0
??$_Destroy_range@V?$allocator@UtagAniSoundEventInfo@@@std@@@std@@YAXPAUtagAniSoundEventInfo@@0AAV?$allocator@UtagAniSoundEventInfo@@@0@@Z ENDP ; std::_Destroy_range<std::allocator<tagAniSoundEventInfo> >
_TEXT	ENDS
PUBLIC	??$_Umove@PAUAniEventInfo@@@?$vector@UAniEventInfo@@V?$allocator@UAniEventInfo@@@std@@@std@@IAEPAUAniEventInfo@@PAU2@00@Z ; std::vector<AniEventInfo,std::allocator<AniEventInfo> >::_Umove<AniEventInfo *>
; Function compile flags: /Ogsp
; File c:\program files (x86)\microsoft visual studio 10.0\vc\include\vector
;	COMDAT ??$_Umove@PAUAniEventInfo@@@?$vector@UAniEventInfo@@V?$allocator@UAniEventInfo@@@std@@@std@@IAEPAUAniEventInfo@@PAU2@00@Z
_TEXT	SEGMENT
__First$ = 8						; size = 4
__Last$ = 12						; size = 4
__Ptr$ = 16						; size = 4
??$_Umove@PAUAniEventInfo@@@?$vector@UAniEventInfo@@V?$allocator@UAniEventInfo@@@std@@@std@@IAEPAUAniEventInfo@@PAU2@00@Z PROC ; std::vector<AniEventInfo,std::allocator<AniEventInfo> >::_Umove<AniEventInfo *>, COMDAT
; _this$ = ecx

; 1322 : 		pointer _Umove(_Iter _First, _Iter _Last, pointer _Ptr)

  00000	55		 push	 ebp
  00001	8b ec		 mov	 ebp, esp

; 1323 : 		{	// move initializing [_First, _Last), using allocator
; 1324 : 		return (_Uninitialized_move(_First, _Last,
; 1325 : 			_Ptr, this->_Alval));

  00003	83 c1 0c	 add	 ecx, 12			; 0000000cH
  00006	51		 push	 ecx
  00007	ff 75 10	 push	 DWORD PTR __Ptr$[ebp]
  0000a	ff 75 0c	 push	 DWORD PTR __Last$[ebp]
  0000d	ff 75 08	 push	 DWORD PTR __First$[ebp]
  00010	e8 00 00 00 00	 call	 ??$_Uninitialized_move@PAUAniEventInfo@@PAU1@V?$allocator@UAniEventInfo@@@std@@@std@@YAPAUAniEventInfo@@PAU1@00AAV?$allocator@UAniEventInfo@@@0@@Z ; std::_Uninitialized_move<AniEventInfo *,AniEventInfo *,std::allocator<AniEventInfo> >
  00015	83 c4 10	 add	 esp, 16			; 00000010H

; 1326 : 		}

  00018	5d		 pop	 ebp
  00019	c2 0c 00	 ret	 12			; 0000000cH
??$_Umove@PAUAniEventInfo@@@?$vector@UAniEventInfo@@V?$allocator@UAniEventInfo@@@std@@@std@@IAEPAUAniEventInfo@@PAU2@00@Z ENDP ; std::vector<AniEventInfo,std::allocator<AniEventInfo> >::_Umove<AniEventInfo *>
_TEXT	ENDS
PUBLIC	??$_Umove@PAUtagAniSoundEventInfo@@@?$vector@UtagAniSoundEventInfo@@V?$allocator@UtagAniSoundEventInfo@@@std@@@std@@IAEPAUtagAniSoundEventInfo@@PAU2@00@Z ; std::vector<tagAniSoundEventInfo,std::allocator<tagAniSoundEventInfo> >::_Umove<tagAniSoundEventInfo *>
; Function compile flags: /Ogsp
;	COMDAT ??$_Umove@PAUtagAniSoundEventInfo@@@?$vector@UtagAniSoundEventInfo@@V?$allocator@UtagAniSoundEventInfo@@@std@@@std@@IAEPAUtagAniSoundEventInfo@@PAU2@00@Z
_TEXT	SEGMENT
__First$ = 8						; size = 4
__Last$ = 12						; size = 4
__Ptr$ = 16						; size = 4
??$_Umove@PAUtagAniSoundEventInfo@@@?$vector@UtagAniSoundEventInfo@@V?$allocator@UtagAniSoundEventInfo@@@std@@@std@@IAEPAUtagAniSoundEventInfo@@PAU2@00@Z PROC ; std::vector<tagAniSoundEventInfo,std::allocator<tagAniSoundEventInfo> >::_Umove<tagAniSoundEventInfo *>, COMDAT
; _this$ = ecx

; 1322 : 		pointer _Umove(_Iter _First, _Iter _Last, pointer _Ptr)

  00000	55		 push	 ebp
  00001	8b ec		 mov	 ebp, esp

; 1323 : 		{	// move initializing [_First, _Last), using allocator
; 1324 : 		return (_Uninitialized_move(_First, _Last,
; 1325 : 			_Ptr, this->_Alval));

  00003	83 c1 0c	 add	 ecx, 12			; 0000000cH
  00006	51		 push	 ecx
  00007	ff 75 10	 push	 DWORD PTR __Ptr$[ebp]
  0000a	ff 75 0c	 push	 DWORD PTR __Last$[ebp]
  0000d	ff 75 08	 push	 DWORD PTR __First$[ebp]
  00010	e8 00 00 00 00	 call	 ??$_Uninitialized_move@PAUtagAniSoundEventInfo@@PAU1@V?$allocator@UtagAniSoundEventInfo@@@std@@@std@@YAPAUtagAniSoundEventInfo@@PAU1@00AAV?$allocator@UtagAniSoundEventInfo@@@0@@Z ; std::_Uninitialized_move<tagAniSoundEventInfo *,tagAniSoundEventInfo *,std::allocator<tagAniSoundEventInfo> >
  00015	83 c4 10	 add	 esp, 16			; 00000010H

; 1326 : 		}

  00018	5d		 pop	 ebp
  00019	c2 0c 00	 ret	 12			; 0000000cH
??$_Umove@PAUtagAniSoundEventInfo@@@?$vector@UtagAniSoundEventInfo@@V?$allocator@UtagAniSoundEventInfo@@@std@@@std@@IAEPAUtagAniSoundEventInfo@@PAU2@00@Z ENDP ; std::vector<tagAniSoundEventInfo,std::allocator<tagAniSoundEventInfo> >::_Umove<tagAniSoundEventInfo *>
_TEXT	ENDS
PUBLIC	?_Destroy@?$vector@UAniEventInfo@@V?$allocator@UAniEventInfo@@@std@@@std@@IAEXPAUAniEventInfo@@0@Z ; std::vector<AniEventInfo,std::allocator<AniEventInfo> >::_Destroy
; Function compile flags: /Ogsp
;	COMDAT ?_Destroy@?$vector@UAniEventInfo@@V?$allocator@UAniEventInfo@@@std@@@std@@IAEXPAUAniEventInfo@@0@Z
_TEXT	SEGMENT
__First$ = 8						; size = 4
__Last$ = 12						; size = 4
?_Destroy@?$vector@UAniEventInfo@@V?$allocator@UAniEventInfo@@@std@@@std@@IAEXPAUAniEventInfo@@0@Z PROC ; std::vector<AniEventInfo,std::allocator<AniEventInfo> >::_Destroy, COMDAT
; _this$ = ecx

; 1269 : 		{	// destroy [_First, _Last) using allocator

  00000	55		 push	 ebp
  00001	8b ec		 mov	 ebp, esp
  00003	56		 push	 esi

; 1270 : 		_Destroy_range(_First, _Last, this->_Alval);

  00004	8b 75 08	 mov	 esi, DWORD PTR __First$[ebp]
  00007	eb 0a		 jmp	 SHORT $LN23@Destroy
$LL9@Destroy:
  00009	8b ce		 mov	 ecx, esi
  0000b	e8 00 00 00 00	 call	 ??1AniEventInfo@@QAE@XZ
  00010	83 c6 20	 add	 esi, 32			; 00000020H
$LN23@Destroy:
  00013	3b 75 0c	 cmp	 esi, DWORD PTR __Last$[ebp]
  00016	75 f1		 jne	 SHORT $LL9@Destroy
  00018	5e		 pop	 esi

; 1271 : 		}

  00019	5d		 pop	 ebp
  0001a	c2 08 00	 ret	 8
?_Destroy@?$vector@UAniEventInfo@@V?$allocator@UAniEventInfo@@@std@@@std@@IAEXPAUAniEventInfo@@0@Z ENDP ; std::vector<AniEventInfo,std::allocator<AniEventInfo> >::_Destroy
_TEXT	ENDS
PUBLIC	?_Tidy@?$vector@UAniEventInfo@@V?$allocator@UAniEventInfo@@@std@@@std@@IAEXXZ ; std::vector<AniEventInfo,std::allocator<AniEventInfo> >::_Tidy
EXTRN	__imp_?_Orphan_all@_Container_base0@std@@QAEXXZ:PROC
; Function compile flags: /Ogsp
;	COMDAT ?_Tidy@?$vector@UAniEventInfo@@V?$allocator@UAniEventInfo@@@std@@@std@@IAEXXZ
_TEXT	SEGMENT
?_Tidy@?$vector@UAniEventInfo@@V?$allocator@UAniEventInfo@@@std@@@std@@IAEXXZ PROC ; std::vector<AniEventInfo,std::allocator<AniEventInfo> >::_Tidy, COMDAT
; _this$ = ecx

; 1301 : 		{	// free all storage

  00000	56		 push	 esi
  00001	8b f1		 mov	 esi, ecx

; 1302 : 		if (this->_Myfirst != 0)

  00003	83 3e 00	 cmp	 DWORD PTR [esi], 0
  00006	74 27		 je	 SHORT $LN24@Tidy

; 1303 : 			{	// something to free, destroy and deallocate it
; 1304 : 			this->_Orphan_all();

  00008	53		 push	 ebx
  00009	57		 push	 edi
  0000a	ff 15 00 00 00
	00		 call	 DWORD PTR __imp_?_Orphan_all@_Container_base0@std@@QAEXXZ

; 1305 : 			_Destroy(this->_Myfirst, this->_Mylast);

  00010	8b 5e 04	 mov	 ebx, DWORD PTR [esi+4]
  00013	8b 3e		 mov	 edi, DWORD PTR [esi]
  00015	eb 0a		 jmp	 SHORT $LN28@Tidy
$LL12@Tidy:
  00017	8b cf		 mov	 ecx, edi
  00019	e8 00 00 00 00	 call	 ??1AniEventInfo@@QAE@XZ
  0001e	83 c7 20	 add	 edi, 32			; 00000020H
$LN28@Tidy:
  00021	3b fb		 cmp	 edi, ebx
  00023	75 f2		 jne	 SHORT $LL12@Tidy

; 1306 : 			this->_Alval.deallocate(this->_Myfirst,
; 1307 : 				this->_Myend - this->_Myfirst);

  00025	ff 36		 push	 DWORD PTR [esi]
  00027	e8 00 00 00 00	 call	 ??3@YAXPAX@Z		; operator delete
  0002c	59		 pop	 ecx
  0002d	5f		 pop	 edi
  0002e	5b		 pop	 ebx
$LN24@Tidy:

; 1308 : 			}
; 1309 : 		this->_Myfirst = 0;

  0002f	33 c0		 xor	 eax, eax
  00031	89 06		 mov	 DWORD PTR [esi], eax

; 1310 : 		this->_Mylast = 0;

  00033	89 46 04	 mov	 DWORD PTR [esi+4], eax

; 1311 : 		this->_Myend = 0;

  00036	89 46 08	 mov	 DWORD PTR [esi+8], eax
  00039	5e		 pop	 esi

; 1312 : 		}

  0003a	c3		 ret	 0
?_Tidy@?$vector@UAniEventInfo@@V?$allocator@UAniEventInfo@@@std@@@std@@IAEXXZ ENDP ; std::vector<AniEventInfo,std::allocator<AniEventInfo> >::_Tidy
_TEXT	ENDS
PUBLIC	?_Destroy@?$vector@UtagAniSoundEventInfo@@V?$allocator@UtagAniSoundEventInfo@@@std@@@std@@IAEXPAUtagAniSoundEventInfo@@0@Z ; std::vector<tagAniSoundEventInfo,std::allocator<tagAniSoundEventInfo> >::_Destroy
; Function compile flags: /Ogsp
;	COMDAT ?_Destroy@?$vector@UtagAniSoundEventInfo@@V?$allocator@UtagAniSoundEventInfo@@@std@@@std@@IAEXPAUtagAniSoundEventInfo@@0@Z
_TEXT	SEGMENT
__First$ = 8						; size = 4
__Last$ = 12						; size = 4
?_Destroy@?$vector@UtagAniSoundEventInfo@@V?$allocator@UtagAniSoundEventInfo@@@std@@@std@@IAEXPAUtagAniSoundEventInfo@@0@Z PROC ; std::vector<tagAniSoundEventInfo,std::allocator<tagAniSoundEventInfo> >::_Destroy, COMDAT
; _this$ = ecx

; 1269 : 		{	// destroy [_First, _Last) using allocator

  00000	55		 push	 ebp
  00001	8b ec		 mov	 ebp, esp
  00003	56		 push	 esi

; 1270 : 		_Destroy_range(_First, _Last, this->_Alval);

  00004	8b 75 08	 mov	 esi, DWORD PTR __First$[ebp]
  00007	eb 0a		 jmp	 SHORT $LN23@Destroy@2
$LL9@Destroy@2:
  00009	8b ce		 mov	 ecx, esi
  0000b	e8 00 00 00 00	 call	 ??1tagAniSoundEventInfo@@QAE@XZ
  00010	83 c6 24	 add	 esi, 36			; 00000024H
$LN23@Destroy@2:
  00013	3b 75 0c	 cmp	 esi, DWORD PTR __Last$[ebp]
  00016	75 f1		 jne	 SHORT $LL9@Destroy@2
  00018	5e		 pop	 esi

; 1271 : 		}

  00019	5d		 pop	 ebp
  0001a	c2 08 00	 ret	 8
?_Destroy@?$vector@UtagAniSoundEventInfo@@V?$allocator@UtagAniSoundEventInfo@@@std@@@std@@IAEXPAUtagAniSoundEventInfo@@0@Z ENDP ; std::vector<tagAniSoundEventInfo,std::allocator<tagAniSoundEventInfo> >::_Destroy
_TEXT	ENDS
PUBLIC	?_Tidy@?$vector@UtagAniSoundEventInfo@@V?$allocator@UtagAniSoundEventInfo@@@std@@@std@@IAEXXZ ; std::vector<tagAniSoundEventInfo,std::allocator<tagAniSoundEventInfo> >::_Tidy
; Function compile flags: /Ogsp
;	COMDAT ?_Tidy@?$vector@UtagAniSoundEventInfo@@V?$allocator@UtagAniSoundEventInfo@@@std@@@std@@IAEXXZ
_TEXT	SEGMENT
?_Tidy@?$vector@UtagAniSoundEventInfo@@V?$allocator@UtagAniSoundEventInfo@@@std@@@std@@IAEXXZ PROC ; std::vector<tagAniSoundEventInfo,std::allocator<tagAniSoundEventInfo> >::_Tidy, COMDAT
; _this$ = ecx

; 1301 : 		{	// free all storage

  00000	56		 push	 esi
  00001	8b f1		 mov	 esi, ecx

; 1302 : 		if (this->_Myfirst != 0)

  00003	83 3e 00	 cmp	 DWORD PTR [esi], 0
  00006	74 27		 je	 SHORT $LN24@Tidy@2

; 1303 : 			{	// something to free, destroy and deallocate it
; 1304 : 			this->_Orphan_all();

  00008	53		 push	 ebx
  00009	57		 push	 edi
  0000a	ff 15 00 00 00
	00		 call	 DWORD PTR __imp_?_Orphan_all@_Container_base0@std@@QAEXXZ

; 1305 : 			_Destroy(this->_Myfirst, this->_Mylast);

  00010	8b 5e 04	 mov	 ebx, DWORD PTR [esi+4]
  00013	8b 3e		 mov	 edi, DWORD PTR [esi]
  00015	eb 0a		 jmp	 SHORT $LN28@Tidy@2
$LL12@Tidy@2:
  00017	8b cf		 mov	 ecx, edi
  00019	e8 00 00 00 00	 call	 ??1tagAniSoundEventInfo@@QAE@XZ
  0001e	83 c7 24	 add	 edi, 36			; 00000024H
$LN28@Tidy@2:
  00021	3b fb		 cmp	 edi, ebx
  00023	75 f2		 jne	 SHORT $LL12@Tidy@2

; 1306 : 			this->_Alval.deallocate(this->_Myfirst,
; 1307 : 				this->_Myend - this->_Myfirst);

  00025	ff 36		 push	 DWORD PTR [esi]
  00027	e8 00 00 00 00	 call	 ??3@YAXPAX@Z		; operator delete
  0002c	59		 pop	 ecx
  0002d	5f		 pop	 edi
  0002e	5b		 pop	 ebx
$LN24@Tidy@2:

; 1308 : 			}
; 1309 : 		this->_Myfirst = 0;

  0002f	33 c0		 xor	 eax, eax
  00031	89 06		 mov	 DWORD PTR [esi], eax

; 1310 : 		this->_Mylast = 0;

  00033	89 46 04	 mov	 DWORD PTR [esi+4], eax

; 1311 : 		this->_Myend = 0;

  00036	89 46 08	 mov	 DWORD PTR [esi+8], eax
  00039	5e		 pop	 esi

; 1312 : 		}

  0003a	c3		 ret	 0
?_Tidy@?$vector@UtagAniSoundEventInfo@@V?$allocator@UtagAniSoundEventInfo@@@std@@@std@@IAEXXZ ENDP ; std::vector<tagAniSoundEventInfo,std::allocator<tagAniSoundEventInfo> >::_Tidy
_TEXT	ENDS
PUBLIC	?reserve@?$vector@UAniEventInfo@@V?$allocator@UAniEventInfo@@@std@@@std@@QAEXI@Z ; std::vector<AniEventInfo,std::allocator<AniEventInfo> >::reserve
;	COMDAT xdata$x
; File c:\program files (x86)\microsoft visual studio 10.0\vc\include\xmemory
xdata$x	SEGMENT
__catchsym$?reserve@?$vector@UAniEventInfo@@V?$allocator@UAniEventInfo@@@std@@@std@@QAEXI@Z$2 DD 040H
	DD	00H
	DD	00H
	DD	FLAT:__catch$?reserve@?$vector@UAniEventInfo@@V?$allocator@UAniEventInfo@@@std@@@std@@QAEXI@Z$0
__unwindtable$?reserve@?$vector@UAniEventInfo@@V?$allocator@UAniEventInfo@@@std@@@std@@QAEXI@Z DD 0ffffffffH
	DD	00H
	DD	0ffffffffH
	DD	00H
__tryblocktable$?reserve@?$vector@UAniEventInfo@@V?$allocator@UAniEventInfo@@@std@@@std@@QAEXI@Z DD 00H
	DD	00H
	DD	01H
	DD	01H
	DD	FLAT:__catchsym$?reserve@?$vector@UAniEventInfo@@V?$allocator@UAniEventInfo@@@std@@@std@@QAEXI@Z$2
__ehfuncinfo$?reserve@?$vector@UAniEventInfo@@V?$allocator@UAniEventInfo@@@std@@@std@@QAEXI@Z DD 019930522H
	DD	02H
	DD	FLAT:__unwindtable$?reserve@?$vector@UAniEventInfo@@V?$allocator@UAniEventInfo@@@std@@@std@@QAEXI@Z
	DD	01H
	DD	FLAT:__tryblocktable$?reserve@?$vector@UAniEventInfo@@V?$allocator@UAniEventInfo@@@std@@@std@@QAEXI@Z
	DD	2 DUP(00H)
	DD	00H
	DD	01H
; Function compile flags: /Ogsp
; File c:\program files (x86)\microsoft visual studio 10.0\vc\include\vector
xdata$x	ENDS
;	COMDAT ?reserve@?$vector@UAniEventInfo@@V?$allocator@UAniEventInfo@@@std@@@std@@QAEXI@Z
_TEXT	SEGMENT
tv300 = -24						; size = 4
__Ptr$506198 = -20					; size = 4
__$EHRec$ = -16						; size = 16
$T509543 = 8						; size = 4
__Count$ = 8						; size = 4
?reserve@?$vector@UAniEventInfo@@V?$allocator@UAniEventInfo@@@std@@@std@@QAEXI@Z PROC ; std::vector<AniEventInfo,std::allocator<AniEventInfo> >::reserve, COMDAT
; _this$ = ecx

; 746  : 		{	// determine new minimum length of allocated storage

  00000	6a 0c		 push	 12			; 0000000cH
  00002	b8 00 00 00 00	 mov	 eax, __ehhandler$?reserve@?$vector@UAniEventInfo@@V?$allocator@UAniEventInfo@@@std@@@std@@QAEXI@Z
  00007	e8 00 00 00 00	 call	 __EH_prolog3_catch
  0000c	8b f1		 mov	 esi, ecx

; 747  : 		if (max_size() < _Count)

  0000e	8b 5d 08	 mov	 ebx, DWORD PTR __Count$[ebp]
  00011	81 fb ff ff ff
	07		 cmp	 ebx, 134217727		; 07ffffffH
  00017	76 0b		 jbe	 SHORT $LN5@reserve

; 748  : 			_Xlen();	// result too long

  00019	68 00 00 00 00	 push	 OFFSET ??_C@_0BD@OLBABOEK@vector?$DMT?$DO?5too?5long?$AA@
  0001e	ff 15 00 00 00
	00		 call	 DWORD PTR __imp_?_Xlength_error@std@@YAXPBD@Z
$LN59@reserve:
$LN5@reserve:

; 749  : 		else if (capacity() < _Count)

  00024	8b 46 08	 mov	 eax, DWORD PTR [esi+8]
  00027	2b 06		 sub	 eax, DWORD PTR [esi]
  00029	c1 f8 05	 sar	 eax, 5
  0002c	3b c3		 cmp	 eax, ebx
  0002e	73 79		 jae	 SHORT $LN3@reserve

; 750  : 			{	// not enough room, reallocate
; 751  : 			pointer _Ptr = this->_Alval.allocate(_Count);

  00030	6a 00		 push	 0
  00032	53		 push	 ebx
  00033	e8 00 00 00 00	 call	 ??$_Allocate@UAniEventInfo@@@std@@YAPAUAniEventInfo@@IPAU1@@Z ; std::_Allocate<AniEventInfo>

; 752  : 
; 753  : 			_TRY_BEGIN
; 754  : 			_Umove(this->_Myfirst, this->_Mylast, _Ptr);

  00038	8b 0e		 mov	 ecx, DWORD PTR [esi]
  0003a	83 65 fc 00	 and	 DWORD PTR __$EHRec$[ebp+12], 0
  0003e	8d 56 0c	 lea	 edx, DWORD PTR [esi+12]
  00041	52		 push	 edx
  00042	89 45 ec	 mov	 DWORD PTR __Ptr$506198[ebp], eax
  00045	ff 75 ec	 push	 DWORD PTR __Ptr$506198[ebp]
  00048	8b 46 04	 mov	 eax, DWORD PTR [esi+4]
  0004b	50		 push	 eax
  0004c	51		 push	 ecx
  0004d	e8 00 00 00 00	 call	 ??$_Uninitialized_move@PAUAniEventInfo@@PAU1@V?$allocator@UAniEventInfo@@@std@@@std@@YAPAUAniEventInfo@@PAU1@00AAV?$allocator@UAniEventInfo@@@0@@Z ; std::_Uninitialized_move<AniEventInfo *,AniEventInfo *,std::allocator<AniEventInfo> >

; 758  : 			_CATCH_END
; 759  : 
; 760  : 			size_type _Size = size();

  00052	8b 4e 04	 mov	 ecx, DWORD PTR [esi+4]
  00055	8b 06		 mov	 eax, DWORD PTR [esi]
  00057	83 4d fc ff	 or	 DWORD PTR __$EHRec$[ebp+12], -1
  0005b	8b f9		 mov	 edi, ecx
  0005d	83 c4 18	 add	 esp, 24			; 00000018H
  00060	2b f8		 sub	 edi, eax
  00062	89 4d e8	 mov	 DWORD PTR tv300[ebp], ecx
  00065	85 c0		 test	 eax, eax
  00067	74 23		 je	 SHORT $LN51@reserve

; 761  : 			if (this->_Myfirst != 0)
; 762  : 				{	// destroy and deallocate old array
; 763  : 				_Destroy(this->_Myfirst, this->_Mylast);

  00069	89 45 08	 mov	 DWORD PTR $T509543[ebp], eax
  0006c	3b c1		 cmp	 eax, ecx
  0006e	74 14		 je	 SHORT $LN37@reserve
$LN39@reserve:
  00070	8b 4d 08	 mov	 ecx, DWORD PTR $T509543[ebp]
  00073	e8 00 00 00 00	 call	 ??1AniEventInfo@@QAE@XZ
  00078	83 45 08 20	 add	 DWORD PTR $T509543[ebp], 32 ; 00000020H
  0007c	8b 45 08	 mov	 eax, DWORD PTR $T509543[ebp]
  0007f	3b 45 e8	 cmp	 eax, DWORD PTR tv300[ebp]
  00082	75 ec		 jne	 SHORT $LN39@reserve
$LN37@reserve:

; 764  : 				this->_Alval.deallocate(this->_Myfirst,
; 765  : 					this->_Myend - this->_Myfirst);

  00084	ff 36		 push	 DWORD PTR [esi]
  00086	e8 00 00 00 00	 call	 ??3@YAXPAX@Z		; operator delete
  0008b	59		 pop	 ecx
$LN51@reserve:

; 766  : 				}
; 767  : 
; 768  : 			this->_Orphan_all();

  0008c	8b ce		 mov	 ecx, esi
  0008e	ff 15 00 00 00
	00		 call	 DWORD PTR __imp_?_Orphan_all@_Container_base0@std@@QAEXXZ

; 769  : 			this->_Myend = _Ptr + _Count;

  00094	8b 45 ec	 mov	 eax, DWORD PTR __Ptr$506198[ebp]
  00097	c1 e3 05	 shl	 ebx, 5
  0009a	03 d8		 add	 ebx, eax

; 770  : 			this->_Mylast = _Ptr + _Size;

  0009c	83 e7 e0	 and	 edi, -32		; ffffffe0H
  0009f	03 f8		 add	 edi, eax
  000a1	89 5e 08	 mov	 DWORD PTR [esi+8], ebx
  000a4	89 7e 04	 mov	 DWORD PTR [esi+4], edi

; 771  : 			this->_Myfirst = _Ptr;

  000a7	89 06		 mov	 DWORD PTR [esi], eax
$LN3@reserve:

; 772  : 			}
; 773  : 		}

  000a9	e8 00 00 00 00	 call	 __EH_epilog3
  000ae	c2 04 00	 ret	 4
__catch$?reserve@?$vector@UAniEventInfo@@V?$allocator@UAniEventInfo@@@std@@@std@@QAEXI@Z$0:

; 755  : 			_CATCH_ALL
; 756  : 			this->_Alval.deallocate(_Ptr, _Count);

  000b1	ff 75 ec	 push	 DWORD PTR __Ptr$506198[ebp]
  000b4	e8 00 00 00 00	 call	 ??3@YAXPAX@Z		; operator delete
  000b9	59		 pop	 ecx

; 757  : 			_RERAISE;

  000ba	6a 00		 push	 0
  000bc	6a 00		 push	 0
  000be	e8 00 00 00 00	 call	 __CxxThrowException@8
$LN60@reserve:
$LN58@reserve:
  000c3	cc		 int	 3
_TEXT	ENDS
;	COMDAT text$x
text$x	SEGMENT
__ehhandler$?reserve@?$vector@UAniEventInfo@@V?$allocator@UAniEventInfo@@@std@@@std@@QAEXI@Z:
  00000	8b 54 24 08	 mov	 edx, DWORD PTR [esp+8]
  00004	8d 42 0c	 lea	 eax, DWORD PTR [edx+12]
  00007	8b 4a e4	 mov	 ecx, DWORD PTR [edx-28]
  0000a	33 c8		 xor	 ecx, eax
  0000c	e8 00 00 00 00	 call	 @__security_check_cookie@4
  00011	b8 00 00 00 00	 mov	 eax, OFFSET __ehfuncinfo$?reserve@?$vector@UAniEventInfo@@V?$allocator@UAniEventInfo@@@std@@@std@@QAEXI@Z
  00016	e9 00 00 00 00	 jmp	 ___CxxFrameHandler3
text$x	ENDS
?reserve@?$vector@UAniEventInfo@@V?$allocator@UAniEventInfo@@@std@@@std@@QAEXI@Z ENDP ; std::vector<AniEventInfo,std::allocator<AniEventInfo> >::reserve
PUBLIC	?reserve@?$vector@UtagAniSoundEventInfo@@V?$allocator@UtagAniSoundEventInfo@@@std@@@std@@QAEXI@Z ; std::vector<tagAniSoundEventInfo,std::allocator<tagAniSoundEventInfo> >::reserve
;	COMDAT xdata$x
; File c:\program files (x86)\microsoft visual studio 10.0\vc\include\xmemory
xdata$x	SEGMENT
__catchsym$?reserve@?$vector@UtagAniSoundEventInfo@@V?$allocator@UtagAniSoundEventInfo@@@std@@@std@@QAEXI@Z$2 DD 040H
	DD	00H
	DD	00H
	DD	FLAT:__catch$?reserve@?$vector@UtagAniSoundEventInfo@@V?$allocator@UtagAniSoundEventInfo@@@std@@@std@@QAEXI@Z$0
__unwindtable$?reserve@?$vector@UtagAniSoundEventInfo@@V?$allocator@UtagAniSoundEventInfo@@@std@@@std@@QAEXI@Z DD 0ffffffffH
	DD	00H
	DD	0ffffffffH
	DD	00H
__tryblocktable$?reserve@?$vector@UtagAniSoundEventInfo@@V?$allocator@UtagAniSoundEventInfo@@@std@@@std@@QAEXI@Z DD 00H
	DD	00H
	DD	01H
	DD	01H
	DD	FLAT:__catchsym$?reserve@?$vector@UtagAniSoundEventInfo@@V?$allocator@UtagAniSoundEventInfo@@@std@@@std@@QAEXI@Z$2
__ehfuncinfo$?reserve@?$vector@UtagAniSoundEventInfo@@V?$allocator@UtagAniSoundEventInfo@@@std@@@std@@QAEXI@Z DD 019930522H
	DD	02H
	DD	FLAT:__unwindtable$?reserve@?$vector@UtagAniSoundEventInfo@@V?$allocator@UtagAniSoundEventInfo@@@std@@@std@@QAEXI@Z
	DD	01H
	DD	FLAT:__tryblocktable$?reserve@?$vector@UtagAniSoundEventInfo@@V?$allocator@UtagAniSoundEventInfo@@@std@@@std@@QAEXI@Z
	DD	2 DUP(00H)
	DD	00H
	DD	01H
; Function compile flags: /Ogsp
; File c:\program files (x86)\microsoft visual studio 10.0\vc\include\vector
xdata$x	ENDS
;	COMDAT ?reserve@?$vector@UtagAniSoundEventInfo@@V?$allocator@UtagAniSoundEventInfo@@@std@@@std@@QAEXI@Z
_TEXT	SEGMENT
__Ptr$506228 = -24					; size = 4
$T509701 = -20						; size = 4
__$EHRec$ = -16						; size = 16
__Count$ = 8						; size = 4
?reserve@?$vector@UtagAniSoundEventInfo@@V?$allocator@UtagAniSoundEventInfo@@@std@@@std@@QAEXI@Z PROC ; std::vector<tagAniSoundEventInfo,std::allocator<tagAniSoundEventInfo> >::reserve, COMDAT
; _this$ = ecx

; 746  : 		{	// determine new minimum length of allocated storage

  00000	6a 0c		 push	 12			; 0000000cH
  00002	b8 00 00 00 00	 mov	 eax, __ehhandler$?reserve@?$vector@UtagAniSoundEventInfo@@V?$allocator@UtagAniSoundEventInfo@@@std@@@std@@QAEXI@Z
  00007	e8 00 00 00 00	 call	 __EH_prolog3_catch
  0000c	8b f1		 mov	 esi, ecx

; 747  : 		if (max_size() < _Count)

  0000e	81 7d 08 c7 71
	1c 07		 cmp	 DWORD PTR __Count$[ebp], 119304647 ; 071c71c7H
  00015	76 0b		 jbe	 SHORT $LN5@reserve@2

; 748  : 			_Xlen();	// result too long

  00017	68 00 00 00 00	 push	 OFFSET ??_C@_0BD@OLBABOEK@vector?$DMT?$DO?5too?5long?$AA@
  0001c	ff 15 00 00 00
	00		 call	 DWORD PTR __imp_?_Xlength_error@std@@YAXPBD@Z
$LN59@reserve@2:
$LN5@reserve@2:

; 749  : 		else if (capacity() < _Count)

  00022	8b 46 08	 mov	 eax, DWORD PTR [esi+8]
  00025	2b 06		 sub	 eax, DWORD PTR [esi]
  00027	6a 24		 push	 36			; 00000024H
  00029	99		 cdq
  0002a	59		 pop	 ecx
  0002b	f7 f9		 idiv	 ecx
  0002d	3b 45 08	 cmp	 eax, DWORD PTR __Count$[ebp]
  00030	0f 83 80 00 00
	00		 jae	 $LN3@reserve@2

; 750  : 			{	// not enough room, reallocate
; 751  : 			pointer _Ptr = this->_Alval.allocate(_Count);

  00036	6a 00		 push	 0
  00038	ff 75 08	 push	 DWORD PTR __Count$[ebp]
  0003b	e8 00 00 00 00	 call	 ??$_Allocate@UtagAniSoundEventInfo@@@std@@YAPAUtagAniSoundEventInfo@@IPAU1@@Z ; std::_Allocate<tagAniSoundEventInfo>

; 752  : 
; 753  : 			_TRY_BEGIN
; 754  : 			_Umove(this->_Myfirst, this->_Mylast, _Ptr);

  00040	8b 0e		 mov	 ecx, DWORD PTR [esi]
  00042	83 65 fc 00	 and	 DWORD PTR __$EHRec$[ebp+12], 0
  00046	8d 56 0c	 lea	 edx, DWORD PTR [esi+12]
  00049	52		 push	 edx
  0004a	89 45 e8	 mov	 DWORD PTR __Ptr$506228[ebp], eax
  0004d	ff 75 e8	 push	 DWORD PTR __Ptr$506228[ebp]
  00050	8b 46 04	 mov	 eax, DWORD PTR [esi+4]
  00053	50		 push	 eax
  00054	51		 push	 ecx
  00055	e8 00 00 00 00	 call	 ??$_Uninitialized_move@PAUtagAniSoundEventInfo@@PAU1@V?$allocator@UtagAniSoundEventInfo@@@std@@@std@@YAPAUtagAniSoundEventInfo@@PAU1@00AAV?$allocator@UtagAniSoundEventInfo@@@0@@Z ; std::_Uninitialized_move<tagAniSoundEventInfo *,tagAniSoundEventInfo *,std::allocator<tagAniSoundEventInfo> >

; 758  : 			_CATCH_END
; 759  : 
; 760  : 			size_type _Size = size();

  0005a	8b 5e 04	 mov	 ebx, DWORD PTR [esi+4]
  0005d	8b 0e		 mov	 ecx, DWORD PTR [esi]
  0005f	83 c4 18	 add	 esp, 24			; 00000018H
  00062	8b c3		 mov	 eax, ebx
  00064	2b c1		 sub	 eax, ecx
  00066	6a 24		 push	 36			; 00000024H
  00068	99		 cdq
  00069	5f		 pop	 edi
  0006a	f7 ff		 idiv	 edi
  0006c	83 4d fc ff	 or	 DWORD PTR __$EHRec$[ebp+12], -1
  00070	8b f8		 mov	 edi, eax
  00072	85 c9		 test	 ecx, ecx
  00074	74 20		 je	 SHORT $LN51@reserve@2

; 761  : 			if (this->_Myfirst != 0)
; 762  : 				{	// destroy and deallocate old array
; 763  : 				_Destroy(this->_Myfirst, this->_Mylast);

  00076	89 4d ec	 mov	 DWORD PTR $T509701[ebp], ecx
  00079	3b cb		 cmp	 ecx, ebx
  0007b	74 11		 je	 SHORT $LN37@reserve@2
$LN39@reserve@2:
  0007d	8b 4d ec	 mov	 ecx, DWORD PTR $T509701[ebp]
  00080	e8 00 00 00 00	 call	 ??1tagAniSoundEventInfo@@QAE@XZ
  00085	83 45 ec 24	 add	 DWORD PTR $T509701[ebp], 36 ; 00000024H
  00089	39 5d ec	 cmp	 DWORD PTR $T509701[ebp], ebx
  0008c	75 ef		 jne	 SHORT $LN39@reserve@2
$LN37@reserve@2:

; 764  : 				this->_Alval.deallocate(this->_Myfirst,
; 765  : 					this->_Myend - this->_Myfirst);

  0008e	ff 36		 push	 DWORD PTR [esi]
  00090	e8 00 00 00 00	 call	 ??3@YAXPAX@Z		; operator delete
  00095	59		 pop	 ecx
$LN51@reserve@2:

; 766  : 				}
; 767  : 
; 768  : 			this->_Orphan_all();

  00096	8b ce		 mov	 ecx, esi
  00098	ff 15 00 00 00
	00		 call	 DWORD PTR __imp_?_Orphan_all@_Container_base0@std@@QAEXXZ

; 769  : 			this->_Myend = _Ptr + _Count;
; 770  : 			this->_Mylast = _Ptr + _Size;

  0009e	6b ff 24	 imul	 edi, 36			; 00000024H
  000a1	8b 45 08	 mov	 eax, DWORD PTR __Count$[ebp]
  000a4	8b 4d e8	 mov	 ecx, DWORD PTR __Ptr$506228[ebp]
  000a7	6b c0 24	 imul	 eax, 36			; 00000024H
  000aa	03 c1		 add	 eax, ecx
  000ac	03 f9		 add	 edi, ecx
  000ae	89 46 08	 mov	 DWORD PTR [esi+8], eax
  000b1	89 7e 04	 mov	 DWORD PTR [esi+4], edi

; 771  : 			this->_Myfirst = _Ptr;

  000b4	89 0e		 mov	 DWORD PTR [esi], ecx
$LN3@reserve@2:

; 772  : 			}
; 773  : 		}

  000b6	e8 00 00 00 00	 call	 __EH_epilog3
  000bb	c2 04 00	 ret	 4
__catch$?reserve@?$vector@UtagAniSoundEventInfo@@V?$allocator@UtagAniSoundEventInfo@@@std@@@std@@QAEXI@Z$0:

; 755  : 			_CATCH_ALL
; 756  : 			this->_Alval.deallocate(_Ptr, _Count);

  000be	ff 75 e8	 push	 DWORD PTR __Ptr$506228[ebp]
  000c1	e8 00 00 00 00	 call	 ??3@YAXPAX@Z		; operator delete
  000c6	59		 pop	 ecx

; 757  : 			_RERAISE;

  000c7	6a 00		 push	 0
  000c9	6a 00		 push	 0
  000cb	e8 00 00 00 00	 call	 __CxxThrowException@8
$LN60@reserve@2:
$LN58@reserve@2:
  000d0	cc		 int	 3
_TEXT	ENDS
;	COMDAT text$x
text$x	SEGMENT
__ehhandler$?reserve@?$vector@UtagAniSoundEventInfo@@V?$allocator@UtagAniSoundEventInfo@@@std@@@std@@QAEXI@Z:
  00000	8b 54 24 08	 mov	 edx, DWORD PTR [esp+8]
  00004	8d 42 0c	 lea	 eax, DWORD PTR [edx+12]
  00007	8b 4a e4	 mov	 ecx, DWORD PTR [edx-28]
  0000a	33 c8		 xor	 ecx, eax
  0000c	e8 00 00 00 00	 call	 @__security_check_cookie@4
  00011	b8 00 00 00 00	 mov	 eax, OFFSET __ehfuncinfo$?reserve@?$vector@UtagAniSoundEventInfo@@V?$allocator@UtagAniSoundEventInfo@@@std@@@std@@QAEXI@Z
  00016	e9 00 00 00 00	 jmp	 ___CxxFrameHandler3
text$x	ENDS
?reserve@?$vector@UtagAniSoundEventInfo@@V?$allocator@UtagAniSoundEventInfo@@@std@@@std@@QAEXI@Z ENDP ; std::vector<tagAniSoundEventInfo,std::allocator<tagAniSoundEventInfo> >::reserve
PUBLIC	??1?$vector@UAniEventInfo@@V?$allocator@UAniEventInfo@@@std@@@std@@QAE@XZ ; std::vector<AniEventInfo,std::allocator<AniEventInfo> >::~vector<AniEventInfo,std::allocator<AniEventInfo> >
; Function compile flags: /Ogsp
;	COMDAT ??1?$vector@UAniEventInfo@@V?$allocator@UAniEventInfo@@@std@@@std@@QAE@XZ
_TEXT	SEGMENT
??1?$vector@UAniEventInfo@@V?$allocator@UAniEventInfo@@@std@@@std@@QAE@XZ PROC ; std::vector<AniEventInfo,std::allocator<AniEventInfo> >::~vector<AniEventInfo,std::allocator<AniEventInfo> >, COMDAT
; _this$ = ecx

; 705  : 		_Tidy();

  00000	e9 00 00 00 00	 jmp	 ?_Tidy@?$vector@UAniEventInfo@@V?$allocator@UAniEventInfo@@@std@@@std@@IAEXXZ ; std::vector<AniEventInfo,std::allocator<AniEventInfo> >::_Tidy
??1?$vector@UAniEventInfo@@V?$allocator@UAniEventInfo@@@std@@@std@@QAE@XZ ENDP ; std::vector<AniEventInfo,std::allocator<AniEventInfo> >::~vector<AniEventInfo,std::allocator<AniEventInfo> >
_TEXT	ENDS
PUBLIC	?erase@?$vector@UAniEventInfo@@V?$allocator@UAniEventInfo@@@std@@@std@@QAE?AV?$_Vector_iterator@V?$_Vector_val@UAniEventInfo@@V?$allocator@UAniEventInfo@@@std@@@std@@@2@V?$_Vector_const_iterator@V?$_Vector_val@UAniEventInfo@@V?$allocator@UAniEventInfo@@@std@@@std@@@2@@Z ; std::vector<AniEventInfo,std::allocator<AniEventInfo> >::erase
; Function compile flags: /Ogsp
;	COMDAT ?erase@?$vector@UAniEventInfo@@V?$allocator@UAniEventInfo@@@std@@@std@@QAE?AV?$_Vector_iterator@V?$_Vector_val@UAniEventInfo@@V?$allocator@UAniEventInfo@@@std@@@std@@@2@V?$_Vector_const_iterator@V?$_Vector_val@UAniEventInfo@@V?$allocator@UAniEventInfo@@@std@@@std@@@2@@Z
_TEXT	SEGMENT
___$ReturnUdt$ = 8					; size = 4
__Cat$509785 = 12					; size = 1
__Where$ = 12						; size = 4
?erase@?$vector@UAniEventInfo@@V?$allocator@UAniEventInfo@@@std@@@std@@QAE?AV?$_Vector_iterator@V?$_Vector_val@UAniEventInfo@@V?$allocator@UAniEventInfo@@@std@@@std@@@2@V?$_Vector_const_iterator@V?$_Vector_val@UAniEventInfo@@V?$allocator@UAniEventInfo@@@std@@@std@@@2@@Z PROC ; std::vector<AniEventInfo,std::allocator<AniEventInfo> >::erase, COMDAT
; _this$ = ecx

; 1179 : 		{	// erase element at where

  00000	55		 push	 ebp
  00001	8b ec		 mov	 ebp, esp

; 1180 : 		_Move(_VIPTR(_Where) + 1, this->_Mylast,
; 1181 : 			_VIPTR(_Where));

  00003	8b 45 0c	 mov	 eax, DWORD PTR __Where$[ebp]
  00006	53		 push	 ebx
  00007	56		 push	 esi
  00008	57		 push	 edi
  00009	ff 75 0c	 push	 DWORD PTR __Cat$509785[ebp]
  0000c	8b f1		 mov	 esi, ecx
  0000e	50		 push	 eax
  0000f	ff 76 04	 push	 DWORD PTR [esi+4]
  00012	83 c0 20	 add	 eax, 32			; 00000020H
  00015	50		 push	 eax
  00016	e8 00 00 00 00	 call	 ??$_Move@PAUAniEventInfo@@PAU1@@std@@YAPAUAniEventInfo@@PAU1@00U_Nonscalar_ptr_iterator_tag@0@@Z ; std::_Move<AniEventInfo *,AniEventInfo *>

; 1182 : 		_Destroy(this->_Mylast - 1, this->_Mylast);

  0001b	8b 7e 04	 mov	 edi, DWORD PTR [esi+4]
  0001e	83 c4 10	 add	 esp, 16			; 00000010H
  00021	8d 5f e0	 lea	 ebx, DWORD PTR [edi-32]
  00024	eb 0a		 jmp	 SHORT $LN37@erase
$LL15@erase:
  00026	8b cb		 mov	 ecx, ebx
  00028	e8 00 00 00 00	 call	 ??1AniEventInfo@@QAE@XZ
  0002d	83 c3 20	 add	 ebx, 32			; 00000020H
$LN37@erase:
  00030	3b df		 cmp	 ebx, edi
  00032	75 f2		 jne	 SHORT $LL15@erase

; 1183 : 		--this->_Mylast;

  00034	83 46 04 e0	 add	 DWORD PTR [esi+4], -32	; ffffffe0H

; 1184 : 		return (_Make_iter(_Where));

  00038	8b 45 08	 mov	 eax, DWORD PTR ___$ReturnUdt$[ebp]
  0003b	8b 4d 0c	 mov	 ecx, DWORD PTR __Where$[ebp]
  0003e	5f		 pop	 edi
  0003f	5e		 pop	 esi
  00040	89 08		 mov	 DWORD PTR [eax], ecx
  00042	5b		 pop	 ebx

; 1185 : 		}

  00043	5d		 pop	 ebp
  00044	c2 08 00	 ret	 8
?erase@?$vector@UAniEventInfo@@V?$allocator@UAniEventInfo@@@std@@@std@@QAE?AV?$_Vector_iterator@V?$_Vector_val@UAniEventInfo@@V?$allocator@UAniEventInfo@@@std@@@std@@@2@V?$_Vector_const_iterator@V?$_Vector_val@UAniEventInfo@@V?$allocator@UAniEventInfo@@@std@@@std@@@2@@Z ENDP ; std::vector<AniEventInfo,std::allocator<AniEventInfo> >::erase
_TEXT	ENDS
PUBLIC	??1?$vector@UtagAniSoundEventInfo@@V?$allocator@UtagAniSoundEventInfo@@@std@@@std@@QAE@XZ ; std::vector<tagAniSoundEventInfo,std::allocator<tagAniSoundEventInfo> >::~vector<tagAniSoundEventInfo,std::allocator<tagAniSoundEventInfo> >
; Function compile flags: /Ogsp
;	COMDAT ??1?$vector@UtagAniSoundEventInfo@@V?$allocator@UtagAniSoundEventInfo@@@std@@@std@@QAE@XZ
_TEXT	SEGMENT
??1?$vector@UtagAniSoundEventInfo@@V?$allocator@UtagAniSoundEventInfo@@@std@@@std@@QAE@XZ PROC ; std::vector<tagAniSoundEventInfo,std::allocator<tagAniSoundEventInfo> >::~vector<tagAniSoundEventInfo,std::allocator<tagAniSoundEventInfo> >, COMDAT
; _this$ = ecx

; 705  : 		_Tidy();

  00000	e9 00 00 00 00	 jmp	 ?_Tidy@?$vector@UtagAniSoundEventInfo@@V?$allocator@UtagAniSoundEventInfo@@@std@@@std@@IAEXXZ ; std::vector<tagAniSoundEventInfo,std::allocator<tagAniSoundEventInfo> >::_Tidy
??1?$vector@UtagAniSoundEventInfo@@V?$allocator@UtagAniSoundEventInfo@@@std@@@std@@QAE@XZ ENDP ; std::vector<tagAniSoundEventInfo,std::allocator<tagAniSoundEventInfo> >::~vector<tagAniSoundEventInfo,std::allocator<tagAniSoundEventInfo> >
_TEXT	ENDS
PUBLIC	?erase@?$vector@UtagAniSoundEventInfo@@V?$allocator@UtagAniSoundEventInfo@@@std@@@std@@QAE?AV?$_Vector_iterator@V?$_Vector_val@UtagAniSoundEventInfo@@V?$allocator@UtagAniSoundEventInfo@@@std@@@std@@@2@V?$_Vector_const_iterator@V?$_Vector_val@UtagAniSoundEventInfo@@V?$allocator@UtagAniSoundEventInfo@@@std@@@std@@@2@@Z ; std::vector<tagAniSoundEventInfo,std::allocator<tagAniSoundEventInfo> >::erase
; Function compile flags: /Ogsp
;	COMDAT ?erase@?$vector@UtagAniSoundEventInfo@@V?$allocator@UtagAniSoundEventInfo@@@std@@@std@@QAE?AV?$_Vector_iterator@V?$_Vector_val@UtagAniSoundEventInfo@@V?$allocator@UtagAniSoundEventInfo@@@std@@@std@@@2@V?$_Vector_const_iterator@V?$_Vector_val@UtagAniSoundEventInfo@@V?$allocator@UtagAniSoundEventInfo@@@std@@@std@@@2@@Z
_TEXT	SEGMENT
___$ReturnUdt$ = 8					; size = 4
__Cat$509929 = 12					; size = 1
__Where$ = 12						; size = 4
?erase@?$vector@UtagAniSoundEventInfo@@V?$allocator@UtagAniSoundEventInfo@@@std@@@std@@QAE?AV?$_Vector_iterator@V?$_Vector_val@UtagAniSoundEventInfo@@V?$allocator@UtagAniSoundEventInfo@@@std@@@std@@@2@V?$_Vector_const_iterator@V?$_Vector_val@UtagAniSoundEventInfo@@V?$allocator@UtagAniSoundEventInfo@@@std@@@std@@@2@@Z PROC ; std::vector<tagAniSoundEventInfo,std::allocator<tagAniSoundEventInfo> >::erase, COMDAT
; _this$ = ecx

; 1179 : 		{	// erase element at where

  00000	55		 push	 ebp
  00001	8b ec		 mov	 ebp, esp

; 1180 : 		_Move(_VIPTR(_Where) + 1, this->_Mylast,
; 1181 : 			_VIPTR(_Where));

  00003	8b 45 0c	 mov	 eax, DWORD PTR __Where$[ebp]
  00006	53		 push	 ebx
  00007	56		 push	 esi
  00008	57		 push	 edi
  00009	ff 75 0c	 push	 DWORD PTR __Cat$509929[ebp]
  0000c	8b f1		 mov	 esi, ecx
  0000e	50		 push	 eax
  0000f	ff 76 04	 push	 DWORD PTR [esi+4]
  00012	83 c0 24	 add	 eax, 36			; 00000024H
  00015	50		 push	 eax
  00016	e8 00 00 00 00	 call	 ??$_Move@PAUtagAniSoundEventInfo@@PAU1@@std@@YAPAUtagAniSoundEventInfo@@PAU1@00U_Nonscalar_ptr_iterator_tag@0@@Z ; std::_Move<tagAniSoundEventInfo *,tagAniSoundEventInfo *>

; 1182 : 		_Destroy(this->_Mylast - 1, this->_Mylast);

  0001b	8b 7e 04	 mov	 edi, DWORD PTR [esi+4]
  0001e	83 c4 10	 add	 esp, 16			; 00000010H
  00021	8d 5f dc	 lea	 ebx, DWORD PTR [edi-36]
  00024	eb 0a		 jmp	 SHORT $LN37@erase@2
$LL15@erase@2:
  00026	8b cb		 mov	 ecx, ebx
  00028	e8 00 00 00 00	 call	 ??1tagAniSoundEventInfo@@QAE@XZ
  0002d	83 c3 24	 add	 ebx, 36			; 00000024H
$LN37@erase@2:
  00030	3b df		 cmp	 ebx, edi
  00032	75 f2		 jne	 SHORT $LL15@erase@2

; 1183 : 		--this->_Mylast;

  00034	83 46 04 dc	 add	 DWORD PTR [esi+4], -36	; ffffffdcH

; 1184 : 		return (_Make_iter(_Where));

  00038	8b 45 08	 mov	 eax, DWORD PTR ___$ReturnUdt$[ebp]
  0003b	8b 4d 0c	 mov	 ecx, DWORD PTR __Where$[ebp]
  0003e	5f		 pop	 edi
  0003f	5e		 pop	 esi
  00040	89 08		 mov	 DWORD PTR [eax], ecx
  00042	5b		 pop	 ebx

; 1185 : 		}

  00043	5d		 pop	 ebp
  00044	c2 08 00	 ret	 8
?erase@?$vector@UtagAniSoundEventInfo@@V?$allocator@UtagAniSoundEventInfo@@@std@@@std@@QAE?AV?$_Vector_iterator@V?$_Vector_val@UtagAniSoundEventInfo@@V?$allocator@UtagAniSoundEventInfo@@@std@@@std@@@2@V?$_Vector_const_iterator@V?$_Vector_val@UtagAniSoundEventInfo@@V?$allocator@UtagAniSoundEventInfo@@@std@@@std@@@2@@Z ENDP ; std::vector<tagAniSoundEventInfo,std::allocator<tagAniSoundEventInfo> >::erase
_TEXT	ENDS
PUBLIC	?erase@?$vector@UAniEventInfo@@V?$allocator@UAniEventInfo@@@std@@@std@@QAE?AV?$_Vector_iterator@V?$_Vector_val@UAniEventInfo@@V?$allocator@UAniEventInfo@@@std@@@std@@@2@V?$_Vector_const_iterator@V?$_Vector_val@UAniEventInfo@@V?$allocator@UAniEventInfo@@@std@@@std@@@2@0@Z ; std::vector<AniEventInfo,std::allocator<AniEventInfo> >::erase
; Function compile flags: /Ogsp
;	COMDAT ?erase@?$vector@UAniEventInfo@@V?$allocator@UAniEventInfo@@@std@@@std@@QAE?AV?$_Vector_iterator@V?$_Vector_val@UAniEventInfo@@V?$allocator@UAniEventInfo@@@std@@@std@@@2@V?$_Vector_const_iterator@V?$_Vector_val@UAniEventInfo@@V?$allocator@UAniEventInfo@@@std@@@std@@@2@0@Z
_TEXT	SEGMENT
$T510184 = -4						; size = 4
___$ReturnUdt$ = 8					; size = 4
__First_arg$ = 12					; size = 4
__Cat$510129 = 16					; size = 1
__Last_arg$ = 16					; size = 4
?erase@?$vector@UAniEventInfo@@V?$allocator@UAniEventInfo@@@std@@@std@@QAE?AV?$_Vector_iterator@V?$_Vector_val@UAniEventInfo@@V?$allocator@UAniEventInfo@@@std@@@std@@@2@V?$_Vector_const_iterator@V?$_Vector_val@UAniEventInfo@@V?$allocator@UAniEventInfo@@@std@@@std@@@2@0@Z PROC ; std::vector<AniEventInfo,std::allocator<AniEventInfo> >::erase, COMDAT
; _this$ = ecx

; 1190 : 		{	// erase [_First, _Last)

  00000	55		 push	 ebp
  00001	8b ec		 mov	 ebp, esp
  00003	51		 push	 ecx

; 1191 : 		iterator _First = _Make_iter(_First_arg);

  00004	8b 45 08	 mov	 eax, DWORD PTR ___$ReturnUdt$[ebp]
  00007	56		 push	 esi
  00008	8b f1		 mov	 esi, ecx
  0000a	8b 4d 0c	 mov	 ecx, DWORD PTR __First_arg$[ebp]
  0000d	89 08		 mov	 DWORD PTR [eax], ecx

; 1192 : 		iterator _Last = _Make_iter(_Last_arg);
; 1193 : 
; 1194 : 		if (_First != _Last)

  0000f	3b 4d 10	 cmp	 ecx, DWORD PTR __Last_arg$[ebp]
  00012	74 37		 je	 SHORT $LN1@erase@3

; 1195 : 			{	// worth doing, copy down over hole
; 1196 :  #if _ITERATOR_DEBUG_LEVEL == 2
; 1197 : 			if (_Last < _First || _VICONT(_First) != this
; 1198 : 				|| _VIPTR(_First) < this->_Myfirst
; 1199 : 				|| this->_Mylast < _VIPTR(_Last))
; 1200 : 				_DEBUG_ERROR("vector erase iterator outside range");
; 1201 : 			pointer _Ptr = _Move(_VIPTR(_Last), this->_Mylast,
; 1202 : 				_VIPTR(_First));
; 1203 : 			_Orphan_range(_VIPTR(_First), this->_Mylast);
; 1204 : 
; 1205 :  #else /* _ITERATOR_DEBUG_LEVEL == 2 */
; 1206 : 			pointer _Ptr = _Move(_VIPTR(_Last), this->_Mylast,
; 1207 : 				_VIPTR(_First));

  00014	8b 46 04	 mov	 eax, DWORD PTR [esi+4]
  00017	53		 push	 ebx
  00018	57		 push	 edi
  00019	ff 75 10	 push	 DWORD PTR __Cat$510129[ebp]
  0001c	51		 push	 ecx
  0001d	50		 push	 eax
  0001e	ff 75 10	 push	 DWORD PTR __Last_arg$[ebp]
  00021	e8 00 00 00 00	 call	 ??$_Move@PAUAniEventInfo@@PAU1@@std@@YAPAUAniEventInfo@@PAU1@00U_Nonscalar_ptr_iterator_tag@0@@Z ; std::_Move<AniEventInfo *,AniEventInfo *>

; 1208 :  #endif /* _ITERATOR_DEBUG_LEVEL == 2 */
; 1209 : 
; 1210 : 			_Destroy(_Ptr, this->_Mylast);

  00026	8b 7e 04	 mov	 edi, DWORD PTR [esi+4]
  00029	8b d8		 mov	 ebx, eax
  0002b	83 c4 10	 add	 esp, 16			; 00000010H
  0002e	89 5d fc	 mov	 DWORD PTR $T510184[ebp], ebx
  00031	3b df		 cmp	 ebx, edi
  00033	74 11		 je	 SHORT $LN36@erase@3
$LL52@erase@3:
  00035	8b 4d fc	 mov	 ecx, DWORD PTR $T510184[ebp]
  00038	e8 00 00 00 00	 call	 ??1AniEventInfo@@QAE@XZ
  0003d	83 45 fc 20	 add	 DWORD PTR $T510184[ebp], 32 ; 00000020H
  00041	39 7d fc	 cmp	 DWORD PTR $T510184[ebp], edi
  00044	75 ef		 jne	 SHORT $LL52@erase@3
$LN36@erase@3:

; 1211 : 			this->_Mylast = _Ptr;

  00046	5f		 pop	 edi
  00047	89 5e 04	 mov	 DWORD PTR [esi+4], ebx
  0004a	5b		 pop	 ebx
$LN1@erase@3:

; 1212 : 			}
; 1213 : 		return (_First);

  0004b	8b 45 08	 mov	 eax, DWORD PTR ___$ReturnUdt$[ebp]
  0004e	5e		 pop	 esi

; 1214 : 		}

  0004f	c9		 leave
  00050	c2 0c 00	 ret	 12			; 0000000cH
?erase@?$vector@UAniEventInfo@@V?$allocator@UAniEventInfo@@@std@@@std@@QAE?AV?$_Vector_iterator@V?$_Vector_val@UAniEventInfo@@V?$allocator@UAniEventInfo@@@std@@@std@@@2@V?$_Vector_const_iterator@V?$_Vector_val@UAniEventInfo@@V?$allocator@UAniEventInfo@@@std@@@std@@@2@0@Z ENDP ; std::vector<AniEventInfo,std::allocator<AniEventInfo> >::erase
_TEXT	ENDS
PUBLIC	?_Reserve@?$vector@UAniEventInfo@@V?$allocator@UAniEventInfo@@@std@@@std@@IAEXI@Z ; std::vector<AniEventInfo,std::allocator<AniEventInfo> >::_Reserve
; Function compile flags: /Ogsp
;	COMDAT ?_Reserve@?$vector@UAniEventInfo@@V?$allocator@UAniEventInfo@@@std@@@std@@IAEXI@Z
_TEXT	SEGMENT
__Count$ = 8						; size = 4
?_Reserve@?$vector@UAniEventInfo@@V?$allocator@UAniEventInfo@@@std@@@std@@IAEXI@Z PROC ; std::vector<AniEventInfo,std::allocator<AniEventInfo> >::_Reserve, COMDAT
; _this$ = ecx

; 1290 : 		{	// ensure room for _Count new elements, grow exponentially

  00000	55		 push	 ebp
  00001	8b ec		 mov	 ebp, esp
  00003	56		 push	 esi
  00004	8b f1		 mov	 esi, ecx

; 1291 : 		size_type _Size = size();

  00006	8b 0e		 mov	 ecx, DWORD PTR [esi]
  00008	8b 46 04	 mov	 eax, DWORD PTR [esi+4]
  0000b	2b c1		 sub	 eax, ecx

; 1292 : 		if (max_size() - _Count < _Size)

  0000d	ba ff ff ff 07	 mov	 edx, 134217727		; 07ffffffH
  00012	2b 55 08	 sub	 edx, DWORD PTR __Count$[ebp]
  00015	c1 f8 05	 sar	 eax, 5
  00018	3b d0		 cmp	 edx, eax
  0001a	73 0b		 jae	 SHORT $LN4@Reserve

; 1293 : 			_Xlen();

  0001c	68 00 00 00 00	 push	 OFFSET ??_C@_0BD@OLBABOEK@vector?$DMT?$DO?5too?5long?$AA@
  00021	ff 15 00 00 00
	00		 call	 DWORD PTR __imp_?_Xlength_error@std@@YAXPBD@Z
$LN21@Reserve:
$LN4@Reserve:

; 1294 : 		else if ((_Size += _Count) <= capacity())

  00027	8b 56 08	 mov	 edx, DWORD PTR [esi+8]
  0002a	03 45 08	 add	 eax, DWORD PTR __Count$[ebp]
  0002d	2b d1		 sub	 edx, ecx
  0002f	c1 fa 05	 sar	 edx, 5
  00032	3b c2		 cmp	 eax, edx
  00034	76 10		 jbe	 SHORT $LN1@Reserve

; 1295 : 			;
; 1296 : 		else
; 1297 : 			reserve(_Grow_to(_Size));

  00036	50		 push	 eax
  00037	8b ce		 mov	 ecx, esi
  00039	e8 00 00 00 00	 call	 ?_Grow_to@?$vector@UAniEventInfo@@V?$allocator@UAniEventInfo@@@std@@@std@@IBEII@Z ; std::vector<AniEventInfo,std::allocator<AniEventInfo> >::_Grow_to
  0003e	50		 push	 eax
  0003f	8b ce		 mov	 ecx, esi
  00041	e8 00 00 00 00	 call	 ?reserve@?$vector@UAniEventInfo@@V?$allocator@UAniEventInfo@@@std@@@std@@QAEXI@Z ; std::vector<AniEventInfo,std::allocator<AniEventInfo> >::reserve
$LN1@Reserve:
  00046	5e		 pop	 esi

; 1298 : 		}

  00047	5d		 pop	 ebp
  00048	c2 04 00	 ret	 4
$LN20@Reserve:
?_Reserve@?$vector@UAniEventInfo@@V?$allocator@UAniEventInfo@@@std@@@std@@IAEXI@Z ENDP ; std::vector<AniEventInfo,std::allocator<AniEventInfo> >::_Reserve
_TEXT	ENDS
PUBLIC	?erase@?$vector@UtagAniSoundEventInfo@@V?$allocator@UtagAniSoundEventInfo@@@std@@@std@@QAE?AV?$_Vector_iterator@V?$_Vector_val@UtagAniSoundEventInfo@@V?$allocator@UtagAniSoundEventInfo@@@std@@@std@@@2@V?$_Vector_const_iterator@V?$_Vector_val@UtagAniSoundEventInfo@@V?$allocator@UtagAniSoundEventInfo@@@std@@@std@@@2@0@Z ; std::vector<tagAniSoundEventInfo,std::allocator<tagAniSoundEventInfo> >::erase
; Function compile flags: /Ogsp
;	COMDAT ?erase@?$vector@UtagAniSoundEventInfo@@V?$allocator@UtagAniSoundEventInfo@@@std@@@std@@QAE?AV?$_Vector_iterator@V?$_Vector_val@UtagAniSoundEventInfo@@V?$allocator@UtagAniSoundEventInfo@@@std@@@std@@@2@V?$_Vector_const_iterator@V?$_Vector_val@UtagAniSoundEventInfo@@V?$allocator@UtagAniSoundEventInfo@@@std@@@std@@@2@0@Z
_TEXT	SEGMENT
$T510391 = -4						; size = 4
___$ReturnUdt$ = 8					; size = 4
__First_arg$ = 12					; size = 4
__Cat$510336 = 16					; size = 1
__Last_arg$ = 16					; size = 4
?erase@?$vector@UtagAniSoundEventInfo@@V?$allocator@UtagAniSoundEventInfo@@@std@@@std@@QAE?AV?$_Vector_iterator@V?$_Vector_val@UtagAniSoundEventInfo@@V?$allocator@UtagAniSoundEventInfo@@@std@@@std@@@2@V?$_Vector_const_iterator@V?$_Vector_val@UtagAniSoundEventInfo@@V?$allocator@UtagAniSoundEventInfo@@@std@@@std@@@2@0@Z PROC ; std::vector<tagAniSoundEventInfo,std::allocator<tagAniSoundEventInfo> >::erase, COMDAT
; _this$ = ecx

; 1190 : 		{	// erase [_First, _Last)

  00000	55		 push	 ebp
  00001	8b ec		 mov	 ebp, esp
  00003	51		 push	 ecx

; 1191 : 		iterator _First = _Make_iter(_First_arg);

  00004	8b 45 08	 mov	 eax, DWORD PTR ___$ReturnUdt$[ebp]
  00007	56		 push	 esi
  00008	8b f1		 mov	 esi, ecx
  0000a	8b 4d 0c	 mov	 ecx, DWORD PTR __First_arg$[ebp]
  0000d	89 08		 mov	 DWORD PTR [eax], ecx

; 1192 : 		iterator _Last = _Make_iter(_Last_arg);
; 1193 : 
; 1194 : 		if (_First != _Last)

  0000f	3b 4d 10	 cmp	 ecx, DWORD PTR __Last_arg$[ebp]
  00012	74 37		 je	 SHORT $LN1@erase@4

; 1195 : 			{	// worth doing, copy down over hole
; 1196 :  #if _ITERATOR_DEBUG_LEVEL == 2
; 1197 : 			if (_Last < _First || _VICONT(_First) != this
; 1198 : 				|| _VIPTR(_First) < this->_Myfirst
; 1199 : 				|| this->_Mylast < _VIPTR(_Last))
; 1200 : 				_DEBUG_ERROR("vector erase iterator outside range");
; 1201 : 			pointer _Ptr = _Move(_VIPTR(_Last), this->_Mylast,
; 1202 : 				_VIPTR(_First));
; 1203 : 			_Orphan_range(_VIPTR(_First), this->_Mylast);
; 1204 : 
; 1205 :  #else /* _ITERATOR_DEBUG_LEVEL == 2 */
; 1206 : 			pointer _Ptr = _Move(_VIPTR(_Last), this->_Mylast,
; 1207 : 				_VIPTR(_First));

  00014	8b 46 04	 mov	 eax, DWORD PTR [esi+4]
  00017	53		 push	 ebx
  00018	57		 push	 edi
  00019	ff 75 10	 push	 DWORD PTR __Cat$510336[ebp]
  0001c	51		 push	 ecx
  0001d	50		 push	 eax
  0001e	ff 75 10	 push	 DWORD PTR __Last_arg$[ebp]
  00021	e8 00 00 00 00	 call	 ??$_Move@PAUtagAniSoundEventInfo@@PAU1@@std@@YAPAUtagAniSoundEventInfo@@PAU1@00U_Nonscalar_ptr_iterator_tag@0@@Z ; std::_Move<tagAniSoundEventInfo *,tagAniSoundEventInfo *>

; 1208 :  #endif /* _ITERATOR_DEBUG_LEVEL == 2 */
; 1209 : 
; 1210 : 			_Destroy(_Ptr, this->_Mylast);

  00026	8b 7e 04	 mov	 edi, DWORD PTR [esi+4]
  00029	8b d8		 mov	 ebx, eax
  0002b	83 c4 10	 add	 esp, 16			; 00000010H
  0002e	89 5d fc	 mov	 DWORD PTR $T510391[ebp], ebx
  00031	3b df		 cmp	 ebx, edi
  00033	74 11		 je	 SHORT $LN36@erase@4
$LL52@erase@4:
  00035	8b 4d fc	 mov	 ecx, DWORD PTR $T510391[ebp]
  00038	e8 00 00 00 00	 call	 ??1tagAniSoundEventInfo@@QAE@XZ
  0003d	83 45 fc 24	 add	 DWORD PTR $T510391[ebp], 36 ; 00000024H
  00041	39 7d fc	 cmp	 DWORD PTR $T510391[ebp], edi
  00044	75 ef		 jne	 SHORT $LL52@erase@4
$LN36@erase@4:

; 1211 : 			this->_Mylast = _Ptr;

  00046	5f		 pop	 edi
  00047	89 5e 04	 mov	 DWORD PTR [esi+4], ebx
  0004a	5b		 pop	 ebx
$LN1@erase@4:

; 1212 : 			}
; 1213 : 		return (_First);

  0004b	8b 45 08	 mov	 eax, DWORD PTR ___$ReturnUdt$[ebp]
  0004e	5e		 pop	 esi

; 1214 : 		}

  0004f	c9		 leave
  00050	c2 0c 00	 ret	 12			; 0000000cH
?erase@?$vector@UtagAniSoundEventInfo@@V?$allocator@UtagAniSoundEventInfo@@@std@@@std@@QAE?AV?$_Vector_iterator@V?$_Vector_val@UtagAniSoundEventInfo@@V?$allocator@UtagAniSoundEventInfo@@@std@@@std@@@2@V?$_Vector_const_iterator@V?$_Vector_val@UtagAniSoundEventInfo@@V?$allocator@UtagAniSoundEventInfo@@@std@@@std@@@2@0@Z ENDP ; std::vector<tagAniSoundEventInfo,std::allocator<tagAniSoundEventInfo> >::erase
_TEXT	ENDS
PUBLIC	?_Reserve@?$vector@UtagAniSoundEventInfo@@V?$allocator@UtagAniSoundEventInfo@@@std@@@std@@IAEXI@Z ; std::vector<tagAniSoundEventInfo,std::allocator<tagAniSoundEventInfo> >::_Reserve
; Function compile flags: /Ogsp
;	COMDAT ?_Reserve@?$vector@UtagAniSoundEventInfo@@V?$allocator@UtagAniSoundEventInfo@@@std@@@std@@IAEXI@Z
_TEXT	SEGMENT
__Count$ = 8						; size = 4
?_Reserve@?$vector@UtagAniSoundEventInfo@@V?$allocator@UtagAniSoundEventInfo@@@std@@@std@@IAEXI@Z PROC ; std::vector<tagAniSoundEventInfo,std::allocator<tagAniSoundEventInfo> >::_Reserve, COMDAT
; _this$ = ecx

; 1290 : 		{	// ensure room for _Count new elements, grow exponentially

  00000	55		 push	 ebp
  00001	8b ec		 mov	 ebp, esp
  00003	56		 push	 esi
  00004	8b f1		 mov	 esi, ecx

; 1291 : 		size_type _Size = size();

  00006	8b 0e		 mov	 ecx, DWORD PTR [esi]
  00008	8b 46 04	 mov	 eax, DWORD PTR [esi+4]
  0000b	2b c1		 sub	 eax, ecx
  0000d	57		 push	 edi
  0000e	99		 cdq
  0000f	6a 24		 push	 36			; 00000024H
  00011	5f		 pop	 edi
  00012	f7 ff		 idiv	 edi
  00014	8b f8		 mov	 edi, eax

; 1292 : 		if (max_size() - _Count < _Size)

  00016	b8 c7 71 1c 07	 mov	 eax, 119304647		; 071c71c7H
  0001b	2b 45 08	 sub	 eax, DWORD PTR __Count$[ebp]
  0001e	3b c7		 cmp	 eax, edi
  00020	73 0b		 jae	 SHORT $LN4@Reserve@2

; 1293 : 			_Xlen();

  00022	68 00 00 00 00	 push	 OFFSET ??_C@_0BD@OLBABOEK@vector?$DMT?$DO?5too?5long?$AA@
  00027	ff 15 00 00 00
	00		 call	 DWORD PTR __imp_?_Xlength_error@std@@YAXPBD@Z
$LN21@Reserve@2:
$LN4@Reserve@2:

; 1294 : 		else if ((_Size += _Count) <= capacity())

  0002d	8b 46 08	 mov	 eax, DWORD PTR [esi+8]
  00030	2b c1		 sub	 eax, ecx
  00032	6a 24		 push	 36			; 00000024H
  00034	99		 cdq
  00035	59		 pop	 ecx
  00036	f7 f9		 idiv	 ecx
  00038	03 7d 08	 add	 edi, DWORD PTR __Count$[ebp]
  0003b	3b f8		 cmp	 edi, eax
  0003d	76 10		 jbe	 SHORT $LN1@Reserve@2

; 1295 : 			;
; 1296 : 		else
; 1297 : 			reserve(_Grow_to(_Size));

  0003f	57		 push	 edi
  00040	8b ce		 mov	 ecx, esi
  00042	e8 00 00 00 00	 call	 ?_Grow_to@?$vector@UtagAniSoundEventInfo@@V?$allocator@UtagAniSoundEventInfo@@@std@@@std@@IBEII@Z ; std::vector<tagAniSoundEventInfo,std::allocator<tagAniSoundEventInfo> >::_Grow_to
  00047	50		 push	 eax
  00048	8b ce		 mov	 ecx, esi
  0004a	e8 00 00 00 00	 call	 ?reserve@?$vector@UtagAniSoundEventInfo@@V?$allocator@UtagAniSoundEventInfo@@@std@@@std@@QAEXI@Z ; std::vector<tagAniSoundEventInfo,std::allocator<tagAniSoundEventInfo> >::reserve
$LN1@Reserve@2:
  0004f	5f		 pop	 edi
  00050	5e		 pop	 esi

; 1298 : 		}

  00051	5d		 pop	 ebp
  00052	c2 04 00	 ret	 4
$LN20@Reserve@2:
?_Reserve@?$vector@UtagAniSoundEventInfo@@V?$allocator@UtagAniSoundEventInfo@@@std@@@std@@IAEXI@Z ENDP ; std::vector<tagAniSoundEventInfo,std::allocator<tagAniSoundEventInfo> >::_Reserve
_TEXT	ENDS
PUBLIC	??_7ioUIPetAniEventHandler@@6B@			; ioUIPetAniEventHandler::`vftable'
PUBLIC	??0ioUIPetAniEventHandler@@QAE@XZ		; ioUIPetAniEventHandler::ioUIPetAniEventHandler
PUBLIC	??_R4ioUIPetAniEventHandler@@6B@		; ioUIPetAniEventHandler::`RTTI Complete Object Locator'
PUBLIC	??_R0?AVioUIPetAniEventHandler@@@8		; ioUIPetAniEventHandler `RTTI Type Descriptor'
PUBLIC	??_R3ioUIPetAniEventHandler@@8			; ioUIPetAniEventHandler::`RTTI Class Hierarchy Descriptor'
PUBLIC	??_R2ioUIPetAniEventHandler@@8			; ioUIPetAniEventHandler::`RTTI Base Class Array'
PUBLIC	??_R1A@?0A@EA@ioUIPetAniEventHandler@@8		; ioUIPetAniEventHandler::`RTTI Base Class Descriptor at (0,-1,0,64)'
PUBLIC	??_R1A@?0A@EA@ioAniEventHandler@@8		; ioAniEventHandler::`RTTI Base Class Descriptor at (0,-1,0,64)'
PUBLIC	??_R0?AVioAniEventHandler@@@8			; ioAniEventHandler `RTTI Type Descriptor'
PUBLIC	??_R3ioAniEventHandler@@8			; ioAniEventHandler::`RTTI Class Hierarchy Descriptor'
PUBLIC	??_R2ioAniEventHandler@@8			; ioAniEventHandler::`RTTI Base Class Array'
PUBLIC	?EventHandling@ioUIPetAniEventHandler@@UAE_NPBUAniEventTime@@PBVioAnimation@@@Z ; ioUIPetAniEventHandler::EventHandling
PUBLIC	?OnAnimationClear@ioUIPetAniEventHandler@@MAEXPBUAniEventTime@@PBVioAnimation@@@Z ; ioUIPetAniEventHandler::OnAnimationClear
EXTRN	__imp_??0ioAniEventHandler@@QAE@XZ:PROC
EXTRN	?ChangeAniEventHandling@ioAniEventHandler@@UAE_NPBUAniEventTime@@PAVioAnimation@@@Z:PROC ; ioAniEventHandler::ChangeAniEventHandling
EXTRN	?HideMeshExceptionCheck@ioAniEventHandler@@UAEXABVioHashString@@@Z:PROC ; ioAniEventHandler::HideMeshExceptionCheck
EXTRN	?ClearAniEvent@ioAniEventHandler@@UAEXXZ:PROC	; ioAniEventHandler::ClearAniEvent
EXTRN	?ClearAniEffect@ioAniEventHandler@@UAEXXZ:PROC	; ioAniEventHandler::ClearAniEffect
EXTRN	?OnAutoSound@ioAniEventHandler@@MAEXPBUAniEventTime@@PBVioAnimation@@@Z:PROC ; ioAniEventHandler::OnAutoSound
EXTRN	?OnTrailStart@ioAniEventHandler@@MAEXPBUAniEventTime@@PBVioAnimation@@@Z:PROC ; ioAniEventHandler::OnTrailStart
EXTRN	?OnTrailEnd@ioAniEventHandler@@MAEXPBUAniEventTime@@PBVioAnimation@@@Z:PROC ; ioAniEventHandler::OnTrailEnd
EXTRN	?OnAnimationEnd@ioAniEventHandler@@MAEXPBUAniEventTime@@PBVioAnimation@@@Z:PROC ; ioAniEventHandler::OnAnimationEnd
EXTRN	?OnShowMesh@ioAniEventHandler@@MAEXPBUAniEventTime@@PBVioAnimation@@@Z:PROC ; ioAniEventHandler::OnShowMesh
EXTRN	?OnHideMesh@ioAniEventHandler@@MAEXPBUAniEventTime@@PBVioAnimation@@@Z:PROC ; ioAniEventHandler::OnHideMesh
EXTRN	??_EioUIPetAniEventHandler@@UAEPAXI@Z:PROC	; ioUIPetAniEventHandler::`vector deleting destructor'
;	COMDAT ??_R2ioAniEventHandler@@8
; File c:\program files (x86)\microsoft visual studio 10.0\vc\include\xmemory
rdata$r	SEGMENT
??_R2ioAniEventHandler@@8 DD FLAT:??_R1A@?0A@EA@ioAniEventHandler@@8 ; ioAniEventHandler::`RTTI Base Class Array'
rdata$r	ENDS
;	COMDAT ??_R3ioAniEventHandler@@8
rdata$r	SEGMENT
??_R3ioAniEventHandler@@8 DD 00H			; ioAniEventHandler::`RTTI Class Hierarchy Descriptor'
	DD	00H
	DD	01H
	DD	FLAT:??_R2ioAniEventHandler@@8
rdata$r	ENDS
;	COMDAT ??_R0?AVioAniEventHandler@@@8
_DATA	SEGMENT
??_R0?AVioAniEventHandler@@@8 DD FLAT:??_7type_info@@6B@ ; ioAniEventHandler `RTTI Type Descriptor'
	DD	00H
	DB	'.?AVioAniEventHandler@@', 00H
_DATA	ENDS
;	COMDAT ??_R1A@?0A@EA@ioAniEventHandler@@8
rdata$r	SEGMENT
??_R1A@?0A@EA@ioAniEventHandler@@8 DD FLAT:??_R0?AVioAniEventHandler@@@8 ; ioAniEventHandler::`RTTI Base Class Descriptor at (0,-1,0,64)'
	DD	00H
	DD	00H
	DD	0ffffffffH
	DD	00H
	DD	040H
	DD	FLAT:??_R3ioAniEventHandler@@8
rdata$r	ENDS
;	COMDAT ??_R1A@?0A@EA@ioUIPetAniEventHandler@@8
rdata$r	SEGMENT
??_R1A@?0A@EA@ioUIPetAniEventHandler@@8 DD FLAT:??_R0?AVioUIPetAniEventHandler@@@8 ; ioUIPetAniEventHandler::`RTTI Base Class Descriptor at (0,-1,0,64)'
	DD	01H
	DD	00H
	DD	0ffffffffH
	DD	00H
	DD	040H
	DD	FLAT:??_R3ioUIPetAniEventHandler@@8
rdata$r	ENDS
;	COMDAT ??_R2ioUIPetAniEventHandler@@8
rdata$r	SEGMENT
??_R2ioUIPetAniEventHandler@@8 DD FLAT:??_R1A@?0A@EA@ioUIPetAniEventHandler@@8 ; ioUIPetAniEventHandler::`RTTI Base Class Array'
	DD	FLAT:??_R1A@?0A@EA@ioAniEventHandler@@8
rdata$r	ENDS
;	COMDAT ??_R3ioUIPetAniEventHandler@@8
rdata$r	SEGMENT
??_R3ioUIPetAniEventHandler@@8 DD 00H			; ioUIPetAniEventHandler::`RTTI Class Hierarchy Descriptor'
	DD	00H
	DD	02H
	DD	FLAT:??_R2ioUIPetAniEventHandler@@8
rdata$r	ENDS
;	COMDAT ??_R0?AVioUIPetAniEventHandler@@@8
_DATA	SEGMENT
??_R0?AVioUIPetAniEventHandler@@@8 DD FLAT:??_7type_info@@6B@ ; ioUIPetAniEventHandler `RTTI Type Descriptor'
	DD	00H
	DB	'.?AVioUIPetAniEventHandler@@', 00H
_DATA	ENDS
;	COMDAT ??_R4ioUIPetAniEventHandler@@6B@
rdata$r	SEGMENT
??_R4ioUIPetAniEventHandler@@6B@ DD 00H			; ioUIPetAniEventHandler::`RTTI Complete Object Locator'
	DD	00H
	DD	00H
	DD	FLAT:??_R0?AVioUIPetAniEventHandler@@@8
	DD	FLAT:??_R3ioUIPetAniEventHandler@@8
rdata$r	ENDS
;	COMDAT ??_7ioUIPetAniEventHandler@@6B@
CONST	SEGMENT
??_7ioUIPetAniEventHandler@@6B@ DD FLAT:??_R4ioUIPetAniEventHandler@@6B@ ; ioUIPetAniEventHandler::`vftable'
	DD	FLAT:?EventHandling@ioUIPetAniEventHandler@@UAE_NPBUAniEventTime@@PBVioAnimation@@@Z
	DD	FLAT:?ChangeAniEventHandling@ioAniEventHandler@@UAE_NPBUAniEventTime@@PAVioAnimation@@@Z
	DD	FLAT:?HideMeshExceptionCheck@ioAniEventHandler@@UAEXABVioHashString@@@Z
	DD	FLAT:?ClearAniEvent@ioAniEventHandler@@UAEXXZ
	DD	FLAT:?ClearAniEffect@ioAniEventHandler@@UAEXXZ
	DD	FLAT:?OnAutoSound@ioAniEventHandler@@MAEXPBUAniEventTime@@PBVioAnimation@@@Z
	DD	FLAT:?OnTrailStart@ioAniEventHandler@@MAEXPBUAniEventTime@@PBVioAnimation@@@Z
	DD	FLAT:?OnTrailEnd@ioAniEventHandler@@MAEXPBUAniEventTime@@PBVioAnimation@@@Z
	DD	FLAT:?OnAnimationEnd@ioAniEventHandler@@MAEXPBUAniEventTime@@PBVioAnimation@@@Z
	DD	FLAT:?OnAnimationClear@ioUIPetAniEventHandler@@MAEXPBUAniEventTime@@PBVioAnimation@@@Z
	DD	FLAT:?OnShowMesh@ioAniEventHandler@@MAEXPBUAniEventTime@@PBVioAnimation@@@Z
	DD	FLAT:?OnHideMesh@ioAniEventHandler@@MAEXPBUAniEventTime@@PBVioAnimation@@@Z
	DD	FLAT:??_EioUIPetAniEventHandler@@UAEPAXI@Z
; Function compile flags: /Ogsp
; File d:\lost saga for developer\youtube\tutorial\source\src\lsclient\iouipetanieventhandler.cpp
CONST	ENDS
;	COMDAT ??0ioUIPetAniEventHandler@@QAE@XZ
_TEXT	SEGMENT
??0ioUIPetAniEventHandler@@QAE@XZ PROC			; ioUIPetAniEventHandler::ioUIPetAniEventHandler, COMDAT
; _this$ = ecx

; 11   : {

  00000	56		 push	 esi
  00001	8b f1		 mov	 esi, ecx
  00003	ff 15 00 00 00
	00		 call	 DWORD PTR __imp_??0ioAniEventHandler@@QAE@XZ
  00009	33 c0		 xor	 eax, eax
  0000b	c7 06 00 00 00
	00		 mov	 DWORD PTR [esi], OFFSET ??_7ioUIPetAniEventHandler@@6B@
  00011	89 46 1c	 mov	 DWORD PTR [esi+28], eax
  00014	89 46 20	 mov	 DWORD PTR [esi+32], eax
  00017	89 46 24	 mov	 DWORD PTR [esi+36], eax
  0001a	89 46 2c	 mov	 DWORD PTR [esi+44], eax
  0001d	89 46 30	 mov	 DWORD PTR [esi+48], eax
  00020	89 46 34	 mov	 DWORD PTR [esi+52], eax
  00023	89 46 3c	 mov	 DWORD PTR [esi+60], eax
  00026	89 46 40	 mov	 DWORD PTR [esi+64], eax
  00029	89 46 44	 mov	 DWORD PTR [esi+68], eax

; 12   : 	m_pChar = NULL;

  0002c	89 46 18	 mov	 DWORD PTR [esi+24], eax

; 13   : }

  0002f	8b c6		 mov	 eax, esi
  00031	5e		 pop	 esi
  00032	c3		 ret	 0
??0ioUIPetAniEventHandler@@QAE@XZ ENDP			; ioUIPetAniEventHandler::ioUIPetAniEventHandler
_TEXT	ENDS
EXTRN	__imp_?StopSound@ioSoundManager@@QAEXABVioHashString@@K@Z:PROC
EXTRN	__imp_?GetSingleton@ioSoundManager@@SAAAV1@XZ:PROC
EXTRN	__imp_?EndEffect@ioEntityGroup@@QAEXABVioHashString@@_N1@Z:PROC
EXTRN	__imp_?SetEntityVisible@ioEntityGroup@@QAEXABVioHashString@@_N@Z:PROC
EXTRN	__imp_??8ioHashString@@QBE_NABV0@@Z:PROC
EXTRN	__imp_?GetName@ioAnimation@@QBEABVioHashString@@XZ:PROC
;	COMDAT xdata$x
; File c:\program files (x86)\microsoft visual studio 10.0\vc\include\vector
xdata$x	SEGMENT
__unwindtable$?OnAnimationClear@ioUIPetAniEventHandler@@MAEXPBUAniEventTime@@PBVioAnimation@@@Z DD 0ffffffffH
	DD	FLAT:__unwindfunclet$?OnAnimationClear@ioUIPetAniEventHandler@@MAEXPBUAniEventTime@@PBVioAnimation@@@Z$0
	DD	0ffffffffH
	DD	FLAT:__unwindfunclet$?OnAnimationClear@ioUIPetAniEventHandler@@MAEXPBUAniEventTime@@PBVioAnimation@@@Z$1
	DD	0ffffffffH
	DD	FLAT:__unwindfunclet$?OnAnimationClear@ioUIPetAniEventHandler@@MAEXPBUAniEventTime@@PBVioAnimation@@@Z$2
	DD	0ffffffffH
	DD	FLAT:__unwindfunclet$?OnAnimationClear@ioUIPetAniEventHandler@@MAEXPBUAniEventTime@@PBVioAnimation@@@Z$3
__ehfuncinfo$?OnAnimationClear@ioUIPetAniEventHandler@@MAEXPBUAniEventTime@@PBVioAnimation@@@Z DD 019930522H
	DD	04H
	DD	FLAT:__unwindtable$?OnAnimationClear@ioUIPetAniEventHandler@@MAEXPBUAniEventTime@@PBVioAnimation@@@Z
	DD	2 DUP(00H)
	DD	2 DUP(00H)
	DD	00H
	DD	01H
; Function compile flags: /Ogsp
; File d:\lost saga for developer\youtube\tutorial\source\src\lsclient\iouipetanieventhandler.cpp
xdata$x	ENDS
;	COMDAT ?OnAnimationClear@ioUIPetAniEventHandler@@MAEXPBUAniEventTime@@PBVioAnimation@@@Z
_TEXT	SEGMENT
_kInfo$505900 = -88					; size = 36
_kInfo$505888 = -52					; size = 32
_kInfo$505876 = -52					; size = 32
_kInfo$505864 = -52					; size = 32
$T510563 = -20						; size = 4
$T510560 = -16						; size = 4
$T510557 = -16						; size = 4
$T510554 = -16						; size = 4
__$EHRec$ = -12						; size = 12
_pEvent$ = 8						; size = 4
_pNotifier$ = 12					; size = 4
?OnAnimationClear@ioUIPetAniEventHandler@@MAEXPBUAniEventTime@@PBVioAnimation@@@Z PROC ; ioUIPetAniEventHandler::OnAnimationClear, COMDAT
; _this$ = ecx

; 110  : {

  00000	6a 4c		 push	 76			; 0000004cH
  00002	b8 00 00 00 00	 mov	 eax, __ehhandler$?OnAnimationClear@ioUIPetAniEventHandler@@MAEXPBUAniEventTime@@PBVioAnimation@@@Z
  00007	e8 00 00 00 00	 call	 __EH_prolog3
  0000c	8b f1		 mov	 esi, ecx

; 111  : 	// Hide  
; 112  : 	if( !m_HideMeshList.empty() )

  0000e	8b 46 08	 mov	 eax, DWORD PTR [esi+8]
  00011	3b 46 0c	 cmp	 eax, DWORD PTR [esi+12]
  00014	74 5c		 je	 SHORT $LN18@OnAnimatio

; 113  : 	{
; 114  : 		AniEventInfoList::iterator iter = m_HideMeshList.begin();

  00016	8b d8		 mov	 ebx, eax
  00018	eb 53		 jmp	 SHORT $LN165@OnAnimatio
$LL19@OnAnimatio:

; 116  : 		{
; 117  : 			AniEventInfo kInfo = *iter;

  0001a	53		 push	 ebx
  0001b	8d 4d cc	 lea	 ecx, DWORD PTR _kInfo$505864[ebp]
  0001e	e8 00 00 00 00	 call	 ??0AniEventInfo@@QAE@ABU0@@Z

; 118  : 
; 119  : 			if( kInfo.m_AniName == pNotifier->GetName() )

  00023	8b 4d 0c	 mov	 ecx, DWORD PTR _pNotifier$[ebp]
  00026	83 65 fc 00	 and	 DWORD PTR __$EHRec$[ebp+8], 0
  0002a	ff 15 00 00 00
	00		 call	 DWORD PTR __imp_?GetName@ioAnimation@@QBEABVioHashString@@XZ
  00030	50		 push	 eax
  00031	8d 4d cc	 lea	 ecx, DWORD PTR _kInfo$505864[ebp]
  00034	ff 15 00 00 00
	00		 call	 DWORD PTR __imp_??8ioHashString@@QBE_NABV0@@Z
  0003a	84 c0		 test	 al, al
  0003c	74 20		 je	 SHORT $LN17@OnAnimatio

; 120  : 			{
; 121  : 				m_pOwner->SetEntityVisible( kInfo.m_EventName, true );

  0003e	8b 4e 04	 mov	 ecx, DWORD PTR [esi+4]
  00041	6a 01		 push	 1
  00043	8d 45 dc	 lea	 eax, DWORD PTR _kInfo$505864[ebp+16]
  00046	50		 push	 eax
  00047	ff 15 00 00 00
	00		 call	 DWORD PTR __imp_?SetEntityVisible@ioEntityGroup@@QAEXABVioHashString@@_N@Z

; 122  : 				iter = m_HideMeshList.erase( iter );

  0004d	53		 push	 ebx
  0004e	8d 45 f0	 lea	 eax, DWORD PTR $T510554[ebp]
  00051	50		 push	 eax
  00052	8d 4e 08	 lea	 ecx, DWORD PTR [esi+8]
  00055	e8 00 00 00 00	 call	 ?erase@?$vector@UAniEventInfo@@V?$allocator@UAniEventInfo@@@std@@@std@@QAE?AV?$_Vector_iterator@V?$_Vector_val@UAniEventInfo@@V?$allocator@UAniEventInfo@@@std@@@std@@@2@V?$_Vector_const_iterator@V?$_Vector_val@UAniEventInfo@@V?$allocator@UAniEventInfo@@@std@@@std@@@2@@Z ; std::vector<AniEventInfo,std::allocator<AniEventInfo> >::erase
  0005a	8b 18		 mov	 ebx, DWORD PTR [eax]

; 123  : 			}
; 124  : 			else

  0005c	eb 03		 jmp	 SHORT $LN57@OnAnimatio
$LN17@OnAnimatio:

; 125  : 			{
; 126  : 				++iter;

  0005e	83 c3 20	 add	 ebx, 32			; 00000020H
$LN57@OnAnimatio:

; 127  : 			}
; 128  : 		}

  00061	83 4d fc ff	 or	 DWORD PTR __$EHRec$[ebp+8], -1
  00065	8d 4d cc	 lea	 ecx, DWORD PTR _kInfo$505864[ebp]
  00068	e8 00 00 00 00	 call	 ??1AniEventInfo@@QAE@XZ
$LN165@OnAnimatio:

; 115  : 		while( iter != m_HideMeshList.end() )

  0006d	3b 5e 0c	 cmp	 ebx, DWORD PTR [esi+12]
  00070	75 a8		 jne	 SHORT $LL19@OnAnimatio
$LN18@OnAnimatio:

; 129  : 	}
; 130  : 
; 131  : 	// Hide    
; 132  : 	if( !m_HideMeshLinkEffectList.empty() )

  00072	8b 46 3c	 mov	 eax, DWORD PTR [esi+60]
  00075	3b 46 40	 cmp	 eax, DWORD PTR [esi+64]
  00078	74 5e		 je	 SHORT $LN13@OnAnimatio

; 133  : 	{
; 134  : 		AniEventInfoList::iterator iter = m_HideMeshLinkEffectList.begin();

  0007a	8b f8		 mov	 edi, eax
  0007c	eb 55		 jmp	 SHORT $LN166@OnAnimatio
$LL14@OnAnimatio:

; 136  : 		{
; 137  : 			AniEventInfo kInfo = *iter;

  0007e	57		 push	 edi
  0007f	8d 4d cc	 lea	 ecx, DWORD PTR _kInfo$505876[ebp]
  00082	e8 00 00 00 00	 call	 ??0AniEventInfo@@QAE@ABU0@@Z

; 138  : 
; 139  : 			if( kInfo.m_AniName == pNotifier->GetName() )

  00087	8b 4d 0c	 mov	 ecx, DWORD PTR _pNotifier$[ebp]
  0008a	c7 45 fc 01 00
	00 00		 mov	 DWORD PTR __$EHRec$[ebp+8], 1
  00091	ff 15 00 00 00
	00		 call	 DWORD PTR __imp_?GetName@ioAnimation@@QBEABVioHashString@@XZ
  00097	50		 push	 eax
  00098	8d 4d cc	 lea	 ecx, DWORD PTR _kInfo$505876[ebp]
  0009b	ff 15 00 00 00
	00		 call	 DWORD PTR __imp_??8ioHashString@@QBE_NABV0@@Z
  000a1	84 c0		 test	 al, al
  000a3	74 1f		 je	 SHORT $LN12@OnAnimatio

; 140  : 			{
; 141  : 				m_pChar->AttachEffect( kInfo.m_EventName, NULL );

  000a5	8b 4e 18	 mov	 ecx, DWORD PTR [esi+24]
  000a8	6a 00		 push	 0
  000aa	8d 45 dc	 lea	 eax, DWORD PTR _kInfo$505876[ebp+16]
  000ad	50		 push	 eax
  000ae	e8 00 00 00 00	 call	 ?AttachEffect@ioPetView@@QAEPAVioEffect@@ABVioHashString@@PAVioEntityEvent@@@Z ; ioPetView::AttachEffect

; 142  : 				iter = m_HideMeshLinkEffectList.erase( iter );

  000b3	57		 push	 edi
  000b4	8d 45 f0	 lea	 eax, DWORD PTR $T510557[ebp]
  000b7	50		 push	 eax
  000b8	8d 4e 3c	 lea	 ecx, DWORD PTR [esi+60]
  000bb	e8 00 00 00 00	 call	 ?erase@?$vector@UAniEventInfo@@V?$allocator@UAniEventInfo@@@std@@@std@@QAE?AV?$_Vector_iterator@V?$_Vector_val@UAniEventInfo@@V?$allocator@UAniEventInfo@@@std@@@std@@@2@V?$_Vector_const_iterator@V?$_Vector_val@UAniEventInfo@@V?$allocator@UAniEventInfo@@@std@@@std@@@2@@Z ; std::vector<AniEventInfo,std::allocator<AniEventInfo> >::erase
  000c0	8b 38		 mov	 edi, DWORD PTR [eax]

; 143  : 			}
; 144  : 			else

  000c2	eb 03		 jmp	 SHORT $LN89@OnAnimatio
$LN12@OnAnimatio:

; 145  : 			{
; 146  : 				++iter;

  000c4	83 c7 20	 add	 edi, 32			; 00000020H
$LN89@OnAnimatio:

; 147  : 			}
; 148  : 		}

  000c7	83 4d fc ff	 or	 DWORD PTR __$EHRec$[ebp+8], -1
  000cb	8d 4d cc	 lea	 ecx, DWORD PTR _kInfo$505876[ebp]
  000ce	e8 00 00 00 00	 call	 ??1AniEventInfo@@QAE@XZ
$LN166@OnAnimatio:

; 135  : 		while( iter != m_HideMeshLinkEffectList.end() )

  000d3	3b 7e 40	 cmp	 edi, DWORD PTR [esi+64]
  000d6	75 a6		 jne	 SHORT $LL14@OnAnimatio
$LN13@OnAnimatio:

; 149  : 	}
; 150  : 
; 151  : 	// ShopEffect 
; 152  : 	if( !m_ShopEffectList.empty() )

  000d8	8b 46 1c	 mov	 eax, DWORD PTR [esi+28]
  000db	3b 46 20	 cmp	 eax, DWORD PTR [esi+32]
  000de	74 61		 je	 SHORT $LN8@OnAnimatio

; 153  : 	{
; 154  : 		AniEventInfoList::iterator iter = m_ShopEffectList.begin();

  000e0	8b f8		 mov	 edi, eax
  000e2	eb 58		 jmp	 SHORT $LN167@OnAnimatio
$LL9@OnAnimatio:

; 156  : 		{
; 157  : 			AniEventInfo kInfo = *iter;

  000e4	57		 push	 edi
  000e5	8d 4d cc	 lea	 ecx, DWORD PTR _kInfo$505888[ebp]
  000e8	e8 00 00 00 00	 call	 ??0AniEventInfo@@QAE@ABU0@@Z

; 158  : 
; 159  : 			if( kInfo.m_AniName == pNotifier->GetName() )

  000ed	8b 4d 0c	 mov	 ecx, DWORD PTR _pNotifier$[ebp]
  000f0	c7 45 fc 02 00
	00 00		 mov	 DWORD PTR __$EHRec$[ebp+8], 2
  000f7	ff 15 00 00 00
	00		 call	 DWORD PTR __imp_?GetName@ioAnimation@@QBEABVioHashString@@XZ
  000fd	50		 push	 eax
  000fe	8d 4d cc	 lea	 ecx, DWORD PTR _kInfo$505888[ebp]
  00101	ff 15 00 00 00
	00		 call	 DWORD PTR __imp_??8ioHashString@@QBE_NABV0@@Z
  00107	84 c0		 test	 al, al
  00109	74 22		 je	 SHORT $LN7@OnAnimatio

; 160  : 			{
; 161  : 				m_pOwner->EndEffect( kInfo.m_EventName, false );

  0010b	8b 4e 04	 mov	 ecx, DWORD PTR [esi+4]
  0010e	6a 01		 push	 1
  00110	6a 00		 push	 0
  00112	8d 45 dc	 lea	 eax, DWORD PTR _kInfo$505888[ebp+16]
  00115	50		 push	 eax
  00116	ff 15 00 00 00
	00		 call	 DWORD PTR __imp_?EndEffect@ioEntityGroup@@QAEXABVioHashString@@_N1@Z

; 162  : 				iter = m_ShopEffectList.erase( iter );

  0011c	57		 push	 edi
  0011d	8d 45 f0	 lea	 eax, DWORD PTR $T510560[ebp]
  00120	50		 push	 eax
  00121	8d 4e 1c	 lea	 ecx, DWORD PTR [esi+28]
  00124	e8 00 00 00 00	 call	 ?erase@?$vector@UAniEventInfo@@V?$allocator@UAniEventInfo@@@std@@@std@@QAE?AV?$_Vector_iterator@V?$_Vector_val@UAniEventInfo@@V?$allocator@UAniEventInfo@@@std@@@std@@@2@V?$_Vector_const_iterator@V?$_Vector_val@UAniEventInfo@@V?$allocator@UAniEventInfo@@@std@@@std@@@2@@Z ; std::vector<AniEventInfo,std::allocator<AniEventInfo> >::erase
  00129	8b 38		 mov	 edi, DWORD PTR [eax]

; 163  : 			}
; 164  : 			else

  0012b	eb 03		 jmp	 SHORT $LN121@OnAnimatio
$LN7@OnAnimatio:

; 165  : 			{
; 166  : 				++iter;

  0012d	83 c7 20	 add	 edi, 32			; 00000020H
$LN121@OnAnimatio:

; 167  : 			}
; 168  : 		}

  00130	83 4d fc ff	 or	 DWORD PTR __$EHRec$[ebp+8], -1
  00134	8d 4d cc	 lea	 ecx, DWORD PTR _kInfo$505888[ebp]
  00137	e8 00 00 00 00	 call	 ??1AniEventInfo@@QAE@XZ
$LN167@OnAnimatio:

; 155  : 		while( iter != m_ShopEffectList.end() )

  0013c	3b 7e 20	 cmp	 edi, DWORD PTR [esi+32]
  0013f	75 a3		 jne	 SHORT $LL9@OnAnimatio
$LN8@OnAnimatio:

; 169  : 	}
; 170  : 
; 171  : 	// ShopSound 
; 172  : 	if( !m_ShopSoundList.empty() )

  00141	8b 46 2c	 mov	 eax, DWORD PTR [esi+44]
  00144	3b 46 30	 cmp	 eax, DWORD PTR [esi+48]
  00147	74 64		 je	 SHORT $LN3@OnAnimatio

; 173  : 	{
; 174  : 		AniSoundEventInfoList::iterator iter = m_ShopSoundList.begin();

  00149	8b f8		 mov	 edi, eax
  0014b	eb 5b		 jmp	 SHORT $LN168@OnAnimatio
$LL4@OnAnimatio:

; 176  : 		{
; 177  : 			AniSoundEventInfo kInfo = *iter;

  0014d	57		 push	 edi
  0014e	8d 4d a8	 lea	 ecx, DWORD PTR _kInfo$505900[ebp]
  00151	e8 00 00 00 00	 call	 ??0tagAniSoundEventInfo@@QAE@ABU0@@Z

; 178  : 
; 179  : 			if( kInfo.m_AniName == pNotifier->GetName() )

  00156	8b 4d 0c	 mov	 ecx, DWORD PTR _pNotifier$[ebp]
  00159	c7 45 fc 03 00
	00 00		 mov	 DWORD PTR __$EHRec$[ebp+8], 3
  00160	ff 15 00 00 00
	00		 call	 DWORD PTR __imp_?GetName@ioAnimation@@QBEABVioHashString@@XZ
  00166	50		 push	 eax
  00167	8d 4d a8	 lea	 ecx, DWORD PTR _kInfo$505900[ebp]
  0016a	ff 15 00 00 00
	00		 call	 DWORD PTR __imp_??8ioHashString@@QBE_NABV0@@Z
  00170	84 c0		 test	 al, al
  00172	74 25		 je	 SHORT $LN2@OnAnimatio

; 180  : 			{
; 181  : 				g_SoundMgr.StopSound( kInfo.m_EventName, 0 );

  00174	8d 45 b8	 lea	 eax, DWORD PTR _kInfo$505900[ebp+16]
  00177	6a 00		 push	 0
  00179	50		 push	 eax
  0017a	ff 15 00 00 00
	00		 call	 DWORD PTR __imp_?GetSingleton@ioSoundManager@@SAAAV1@XZ
  00180	8b c8		 mov	 ecx, eax
  00182	ff 15 00 00 00
	00		 call	 DWORD PTR __imp_?StopSound@ioSoundManager@@QAEXABVioHashString@@K@Z

; 182  : 				iter = m_ShopSoundList.erase( iter );

  00188	57		 push	 edi
  00189	8d 45 ec	 lea	 eax, DWORD PTR $T510563[ebp]
  0018c	50		 push	 eax
  0018d	8d 4e 2c	 lea	 ecx, DWORD PTR [esi+44]
  00190	e8 00 00 00 00	 call	 ?erase@?$vector@UtagAniSoundEventInfo@@V?$allocator@UtagAniSoundEventInfo@@@std@@@std@@QAE?AV?$_Vector_iterator@V?$_Vector_val@UtagAniSoundEventInfo@@V?$allocator@UtagAniSoundEventInfo@@@std@@@std@@@2@V?$_Vector_const_iterator@V?$_Vector_val@UtagAniSoundEventInfo@@V?$allocator@UtagAniSoundEventInfo@@@std@@@std@@@2@@Z ; std::vector<tagAniSoundEventInfo,std::allocator<tagAniSoundEventInfo> >::erase
  00195	8b 38		 mov	 edi, DWORD PTR [eax]

; 183  : 			}
; 184  : 			else

  00197	eb 03		 jmp	 SHORT $LN153@OnAnimatio
$LN2@OnAnimatio:

; 185  : 			{
; 186  : 				++iter;

  00199	83 c7 24	 add	 edi, 36			; 00000024H
$LN153@OnAnimatio:

; 187  : 			}
; 188  : 		}

  0019c	83 4d fc ff	 or	 DWORD PTR __$EHRec$[ebp+8], -1
  001a0	8d 4d a8	 lea	 ecx, DWORD PTR _kInfo$505900[ebp]
  001a3	e8 00 00 00 00	 call	 ??1tagAniSoundEventInfo@@QAE@XZ
$LN168@OnAnimatio:

; 175  : 		while( iter != m_ShopSoundList.end() )

  001a8	3b 7e 30	 cmp	 edi, DWORD PTR [esi+48]
  001ab	75 a0		 jne	 SHORT $LL4@OnAnimatio
$LN3@OnAnimatio:

; 189  : 	}
; 190  : }

  001ad	e8 00 00 00 00	 call	 __EH_epilog3
  001b2	c2 08 00	 ret	 8
_TEXT	ENDS
;	COMDAT text$x
text$x	SEGMENT
__unwindfunclet$?OnAnimationClear@ioUIPetAniEventHandler@@MAEXPBUAniEventTime@@PBVioAnimation@@@Z$0:
  00000	8d 4d cc	 lea	 ecx, DWORD PTR _kInfo$505864[ebp]
  00003	e9 00 00 00 00	 jmp	 ??1AniEventInfo@@QAE@XZ
__unwindfunclet$?OnAnimationClear@ioUIPetAniEventHandler@@MAEXPBUAniEventTime@@PBVioAnimation@@@Z$1:
  00008	8d 4d cc	 lea	 ecx, DWORD PTR _kInfo$505876[ebp]
  0000b	e9 00 00 00 00	 jmp	 ??1AniEventInfo@@QAE@XZ
__unwindfunclet$?OnAnimationClear@ioUIPetAniEventHandler@@MAEXPBUAniEventTime@@PBVioAnimation@@@Z$2:
  00010	8d 4d cc	 lea	 ecx, DWORD PTR _kInfo$505888[ebp]
  00013	e9 00 00 00 00	 jmp	 ??1AniEventInfo@@QAE@XZ
__unwindfunclet$?OnAnimationClear@ioUIPetAniEventHandler@@MAEXPBUAniEventTime@@PBVioAnimation@@@Z$3:
  00018	8d 4d a8	 lea	 ecx, DWORD PTR _kInfo$505900[ebp]
  0001b	e9 00 00 00 00	 jmp	 ??1tagAniSoundEventInfo@@QAE@XZ
__ehhandler$?OnAnimationClear@ioUIPetAniEventHandler@@MAEXPBUAniEventTime@@PBVioAnimation@@@Z:
  00020	8b 54 24 08	 mov	 edx, DWORD PTR [esp+8]
  00024	8d 42 0c	 lea	 eax, DWORD PTR [edx+12]
  00027	8b 4a a4	 mov	 ecx, DWORD PTR [edx-92]
  0002a	33 c8		 xor	 ecx, eax
  0002c	e8 00 00 00 00	 call	 @__security_check_cookie@4
  00031	b8 00 00 00 00	 mov	 eax, OFFSET __ehfuncinfo$?OnAnimationClear@ioUIPetAniEventHandler@@MAEXPBUAniEventTime@@PBVioAnimation@@@Z
  00036	e9 00 00 00 00	 jmp	 ___CxxFrameHandler3
text$x	ENDS
?OnAnimationClear@ioUIPetAniEventHandler@@MAEXPBUAniEventTime@@PBVioAnimation@@@Z ENDP ; ioUIPetAniEventHandler::OnAnimationClear
PUBLIC	?push_back@?$vector@UAniEventInfo@@V?$allocator@UAniEventInfo@@@std@@@std@@QAEXABUAniEventInfo@@@Z ; std::vector<AniEventInfo,std::allocator<AniEventInfo> >::push_back
; Function compile flags: /Ogsp
; File c:\program files (x86)\microsoft visual studio 10.0\vc\include\vector
;	COMDAT ?push_back@?$vector@UAniEventInfo@@V?$allocator@UAniEventInfo@@@std@@@std@@QAEXABUAniEventInfo@@@Z
_TEXT	SEGMENT
__Val$ = 8						; size = 4
?push_back@?$vector@UAniEventInfo@@V?$allocator@UAniEventInfo@@@std@@@std@@QAEXABUAniEventInfo@@@Z PROC ; std::vector<AniEventInfo,std::allocator<AniEventInfo> >::push_back, COMDAT
; _this$ = ecx

; 976  : 		{	// insert element at end

  00000	55		 push	 ebp
  00001	8b ec		 mov	 ebp, esp
  00003	56		 push	 esi
  00004	8b f1		 mov	 esi, ecx

; 977  : 		if (_Inside(_STD addressof(_Val)))

  00006	8b 46 04	 mov	 eax, DWORD PTR [esi+4]
  00009	57		 push	 edi
  0000a	8b 7d 08	 mov	 edi, DWORD PTR __Val$[ebp]
  0000d	3b f8		 cmp	 edi, eax
  0000f	73 2d		 jae	 SHORT $LN4@push_back
  00011	8b 0e		 mov	 ecx, DWORD PTR [esi]
  00013	3b cf		 cmp	 ecx, edi
  00015	77 27		 ja	 SHORT $LN4@push_back

; 978  : 			{	// push back an element
; 979  : 			size_type _Idx = _STD addressof(_Val) - this->_Myfirst;

  00017	2b f9		 sub	 edi, ecx

; 980  : 			if (this->_Mylast == this->_Myend)

  00019	3b 46 08	 cmp	 eax, DWORD PTR [esi+8]
  0001c	75 09		 jne	 SHORT $LN3@push_back

; 981  : 				_Reserve(1);

  0001e	6a 01		 push	 1
  00020	8b ce		 mov	 ecx, esi
  00022	e8 00 00 00 00	 call	 ?_Reserve@?$vector@UAniEventInfo@@V?$allocator@UAniEventInfo@@@std@@@std@@IAEXI@Z ; std::vector<AniEventInfo,std::allocator<AniEventInfo> >::_Reserve
$LN3@push_back:

; 982  : 			_Orphan_range(this->_Mylast, this->_Mylast);
; 983  : 			_Cons_val(this->_Alval,
; 984  : 				this->_Mylast,
; 985  : 				this->_Myfirst[_Idx]);

  00027	83 e7 e0	 and	 edi, -32		; ffffffe0H
  0002a	03 3e		 add	 edi, DWORD PTR [esi]
  0002c	8d 46 0c	 lea	 eax, DWORD PTR [esi+12]
  0002f	57		 push	 edi
  00030	ff 76 04	 push	 DWORD PTR [esi+4]
  00033	50		 push	 eax
  00034	e8 00 00 00 00	 call	 ??$_Cons_val@V?$allocator@UAniEventInfo@@@std@@UAniEventInfo@@AAU3@@std@@YAXAAV?$allocator@UAniEventInfo@@@0@PAUAniEventInfo@@AAU2@@Z ; std::_Cons_val<std::allocator<AniEventInfo>,AniEventInfo,AniEventInfo &>
  00039	83 c4 0c	 add	 esp, 12			; 0000000cH

; 986  : 			++this->_Mylast;
; 987  : 			}
; 988  : 		else

  0003c	eb 19		 jmp	 SHORT $LN26@push_back
$LN4@push_back:

; 989  : 			{	// push back a non-element
; 990  : 			if (this->_Mylast == this->_Myend)

  0003e	3b 46 08	 cmp	 eax, DWORD PTR [esi+8]
  00041	75 09		 jne	 SHORT $LN1@push_back

; 991  : 				_Reserve(1);

  00043	6a 01		 push	 1
  00045	8b ce		 mov	 ecx, esi
  00047	e8 00 00 00 00	 call	 ?_Reserve@?$vector@UAniEventInfo@@V?$allocator@UAniEventInfo@@@std@@@std@@IAEXI@Z ; std::vector<AniEventInfo,std::allocator<AniEventInfo> >::_Reserve
$LN1@push_back:

; 992  : 			_Orphan_range(this->_Mylast, this->_Mylast);
; 993  : 			_Cons_val(this->_Alval,
; 994  : 				this->_Mylast,
; 995  : 				_Val);

  0004c	57		 push	 edi
  0004d	ff 76 04	 push	 DWORD PTR [esi+4]
  00050	e8 00 00 00 00	 call	 ??$_Construct@UAniEventInfo@@ABU1@@std@@YAXPAUAniEventInfo@@ABU1@@Z ; std::_Construct<AniEventInfo,AniEventInfo const &>
  00055	59		 pop	 ecx
  00056	59		 pop	 ecx
$LN26@push_back:

; 996  : 			++this->_Mylast;

  00057	83 46 04 20	 add	 DWORD PTR [esi+4], 32	; 00000020H
  0005b	5f		 pop	 edi
  0005c	5e		 pop	 esi

; 997  : 			}
; 998  : 		}

  0005d	5d		 pop	 ebp
  0005e	c2 04 00	 ret	 4
?push_back@?$vector@UAniEventInfo@@V?$allocator@UAniEventInfo@@@std@@@std@@QAEXABUAniEventInfo@@@Z ENDP ; std::vector<AniEventInfo,std::allocator<AniEventInfo> >::push_back
_TEXT	ENDS
PUBLIC	?clear@?$vector@UAniEventInfo@@V?$allocator@UAniEventInfo@@@std@@@std@@QAEXXZ ; std::vector<AniEventInfo,std::allocator<AniEventInfo> >::clear
; Function compile flags: /Ogsp
;	COMDAT ?clear@?$vector@UAniEventInfo@@V?$allocator@UAniEventInfo@@@std@@@std@@QAEXXZ
_TEXT	SEGMENT
$T510974 = -4						; size = 4
?clear@?$vector@UAniEventInfo@@V?$allocator@UAniEventInfo@@@std@@@std@@QAEXXZ PROC ; std::vector<AniEventInfo,std::allocator<AniEventInfo> >::clear, COMDAT
; _this$ = ecx

; 1217 : 		{	// erase all

  00000	55		 push	 ebp
  00001	8b ec		 mov	 ebp, esp
  00003	51		 push	 ecx

; 1218 : 		erase(begin(), end());

  00004	8b 41 04	 mov	 eax, DWORD PTR [ecx+4]
  00007	8b 11		 mov	 edx, DWORD PTR [ecx]
  00009	50		 push	 eax
  0000a	52		 push	 edx
  0000b	8d 45 fc	 lea	 eax, DWORD PTR $T510974[ebp]
  0000e	50		 push	 eax
  0000f	e8 00 00 00 00	 call	 ?erase@?$vector@UAniEventInfo@@V?$allocator@UAniEventInfo@@@std@@@std@@QAE?AV?$_Vector_iterator@V?$_Vector_val@UAniEventInfo@@V?$allocator@UAniEventInfo@@@std@@@std@@@2@V?$_Vector_const_iterator@V?$_Vector_val@UAniEventInfo@@V?$allocator@UAniEventInfo@@@std@@@std@@@2@0@Z ; std::vector<AniEventInfo,std::allocator<AniEventInfo> >::erase

; 1219 : 		}

  00014	c9		 leave
  00015	c3		 ret	 0
?clear@?$vector@UAniEventInfo@@V?$allocator@UAniEventInfo@@@std@@@std@@QAEXXZ ENDP ; std::vector<AniEventInfo,std::allocator<AniEventInfo> >::clear
_TEXT	ENDS
PUBLIC	?push_back@?$vector@UtagAniSoundEventInfo@@V?$allocator@UtagAniSoundEventInfo@@@std@@@std@@QAEXABUtagAniSoundEventInfo@@@Z ; std::vector<tagAniSoundEventInfo,std::allocator<tagAniSoundEventInfo> >::push_back
; Function compile flags: /Ogsp
;	COMDAT ?push_back@?$vector@UtagAniSoundEventInfo@@V?$allocator@UtagAniSoundEventInfo@@@std@@@std@@QAEXABUtagAniSoundEventInfo@@@Z
_TEXT	SEGMENT
__Val$ = 8						; size = 4
?push_back@?$vector@UtagAniSoundEventInfo@@V?$allocator@UtagAniSoundEventInfo@@@std@@@std@@QAEXABUtagAniSoundEventInfo@@@Z PROC ; std::vector<tagAniSoundEventInfo,std::allocator<tagAniSoundEventInfo> >::push_back, COMDAT
; _this$ = ecx

; 976  : 		{	// insert element at end

  00000	55		 push	 ebp
  00001	8b ec		 mov	 ebp, esp
  00003	56		 push	 esi
  00004	8b f1		 mov	 esi, ecx

; 977  : 		if (_Inside(_STD addressof(_Val)))

  00006	8b 4e 04	 mov	 ecx, DWORD PTR [esi+4]
  00009	57		 push	 edi
  0000a	8b 7d 08	 mov	 edi, DWORD PTR __Val$[ebp]
  0000d	3b f9		 cmp	 edi, ecx
  0000f	73 37		 jae	 SHORT $LN4@push_back@2
  00011	8b 16		 mov	 edx, DWORD PTR [esi]
  00013	3b d7		 cmp	 edx, edi
  00015	77 31		 ja	 SHORT $LN4@push_back@2

; 978  : 			{	// push back an element
; 979  : 			size_type _Idx = _STD addressof(_Val) - this->_Myfirst;

  00017	8b c7		 mov	 eax, edi
  00019	2b c2		 sub	 eax, edx
  0001b	6a 24		 push	 36			; 00000024H
  0001d	99		 cdq
  0001e	5f		 pop	 edi
  0001f	f7 ff		 idiv	 edi
  00021	8b f8		 mov	 edi, eax

; 980  : 			if (this->_Mylast == this->_Myend)

  00023	3b 4e 08	 cmp	 ecx, DWORD PTR [esi+8]
  00026	75 09		 jne	 SHORT $LN3@push_back@2

; 981  : 				_Reserve(1);

  00028	6a 01		 push	 1
  0002a	8b ce		 mov	 ecx, esi
  0002c	e8 00 00 00 00	 call	 ?_Reserve@?$vector@UtagAniSoundEventInfo@@V?$allocator@UtagAniSoundEventInfo@@@std@@@std@@IAEXI@Z ; std::vector<tagAniSoundEventInfo,std::allocator<tagAniSoundEventInfo> >::_Reserve
$LN3@push_back@2:

; 982  : 			_Orphan_range(this->_Mylast, this->_Mylast);
; 983  : 			_Cons_val(this->_Alval,
; 984  : 				this->_Mylast,
; 985  : 				this->_Myfirst[_Idx]);

  00031	6b ff 24	 imul	 edi, 36			; 00000024H
  00034	03 3e		 add	 edi, DWORD PTR [esi]
  00036	8d 46 0c	 lea	 eax, DWORD PTR [esi+12]
  00039	57		 push	 edi
  0003a	ff 76 04	 push	 DWORD PTR [esi+4]
  0003d	50		 push	 eax
  0003e	e8 00 00 00 00	 call	 ??$_Cons_val@V?$allocator@UtagAniSoundEventInfo@@@std@@UtagAniSoundEventInfo@@AAU3@@std@@YAXAAV?$allocator@UtagAniSoundEventInfo@@@0@PAUtagAniSoundEventInfo@@AAU2@@Z ; std::_Cons_val<std::allocator<tagAniSoundEventInfo>,tagAniSoundEventInfo,tagAniSoundEventInfo &>
  00043	83 c4 0c	 add	 esp, 12			; 0000000cH

; 986  : 			++this->_Mylast;
; 987  : 			}
; 988  : 		else

  00046	eb 19		 jmp	 SHORT $LN26@push_back@2
$LN4@push_back@2:

; 989  : 			{	// push back a non-element
; 990  : 			if (this->_Mylast == this->_Myend)

  00048	3b 4e 08	 cmp	 ecx, DWORD PTR [esi+8]
  0004b	75 09		 jne	 SHORT $LN1@push_back@2

; 991  : 				_Reserve(1);

  0004d	6a 01		 push	 1
  0004f	8b ce		 mov	 ecx, esi
  00051	e8 00 00 00 00	 call	 ?_Reserve@?$vector@UtagAniSoundEventInfo@@V?$allocator@UtagAniSoundEventInfo@@@std@@@std@@IAEXI@Z ; std::vector<tagAniSoundEventInfo,std::allocator<tagAniSoundEventInfo> >::_Reserve
$LN1@push_back@2:

; 992  : 			_Orphan_range(this->_Mylast, this->_Mylast);
; 993  : 			_Cons_val(this->_Alval,
; 994  : 				this->_Mylast,
; 995  : 				_Val);

  00056	57		 push	 edi
  00057	ff 76 04	 push	 DWORD PTR [esi+4]
  0005a	e8 00 00 00 00	 call	 ??$_Construct@UtagAniSoundEventInfo@@ABU1@@std@@YAXPAUtagAniSoundEventInfo@@ABU1@@Z ; std::_Construct<tagAniSoundEventInfo,tagAniSoundEventInfo const &>
  0005f	59		 pop	 ecx
  00060	59		 pop	 ecx
$LN26@push_back@2:

; 996  : 			++this->_Mylast;

  00061	83 46 04 24	 add	 DWORD PTR [esi+4], 36	; 00000024H
  00065	5f		 pop	 edi
  00066	5e		 pop	 esi

; 997  : 			}
; 998  : 		}

  00067	5d		 pop	 ebp
  00068	c2 04 00	 ret	 4
?push_back@?$vector@UtagAniSoundEventInfo@@V?$allocator@UtagAniSoundEventInfo@@@std@@@std@@QAEXABUtagAniSoundEventInfo@@@Z ENDP ; std::vector<tagAniSoundEventInfo,std::allocator<tagAniSoundEventInfo> >::push_back
_TEXT	ENDS
PUBLIC	?clear@?$vector@UtagAniSoundEventInfo@@V?$allocator@UtagAniSoundEventInfo@@@std@@@std@@QAEXXZ ; std::vector<tagAniSoundEventInfo,std::allocator<tagAniSoundEventInfo> >::clear
; Function compile flags: /Ogsp
;	COMDAT ?clear@?$vector@UtagAniSoundEventInfo@@V?$allocator@UtagAniSoundEventInfo@@@std@@@std@@QAEXXZ
_TEXT	SEGMENT
$T511068 = -4						; size = 4
?clear@?$vector@UtagAniSoundEventInfo@@V?$allocator@UtagAniSoundEventInfo@@@std@@@std@@QAEXXZ PROC ; std::vector<tagAniSoundEventInfo,std::allocator<tagAniSoundEventInfo> >::clear, COMDAT
; _this$ = ecx

; 1217 : 		{	// erase all

  00000	55		 push	 ebp
  00001	8b ec		 mov	 ebp, esp
  00003	51		 push	 ecx

; 1218 : 		erase(begin(), end());

  00004	8b 41 04	 mov	 eax, DWORD PTR [ecx+4]
  00007	8b 11		 mov	 edx, DWORD PTR [ecx]
  00009	50		 push	 eax
  0000a	52		 push	 edx
  0000b	8d 45 fc	 lea	 eax, DWORD PTR $T511068[ebp]
  0000e	50		 push	 eax
  0000f	e8 00 00 00 00	 call	 ?erase@?$vector@UtagAniSoundEventInfo@@V?$allocator@UtagAniSoundEventInfo@@@std@@@std@@QAE?AV?$_Vector_iterator@V?$_Vector_val@UtagAniSoundEventInfo@@V?$allocator@UtagAniSoundEventInfo@@@std@@@std@@@2@V?$_Vector_const_iterator@V?$_Vector_val@UtagAniSoundEventInfo@@V?$allocator@UtagAniSoundEventInfo@@@std@@@std@@@2@0@Z ; std::vector<tagAniSoundEventInfo,std::allocator<tagAniSoundEventInfo> >::erase

; 1219 : 		}

  00014	c9		 leave
  00015	c3		 ret	 0
?clear@?$vector@UtagAniSoundEventInfo@@V?$allocator@UtagAniSoundEventInfo@@@std@@@std@@QAEXXZ ENDP ; std::vector<tagAniSoundEventInfo,std::allocator<tagAniSoundEventInfo> >::clear
_TEXT	ENDS
PUBLIC	??1ioUIPetAniEventHandler@@UAE@XZ		; ioUIPetAniEventHandler::~ioUIPetAniEventHandler
EXTRN	__imp_??1ioAniEventHandler@@UAE@XZ:PROC
;	COMDAT xdata$x
xdata$x	SEGMENT
__unwindtable$??1ioUIPetAniEventHandler@@UAE@XZ DD 0ffffffffH
	DD	FLAT:__unwindfunclet$??1ioUIPetAniEventHandler@@UAE@XZ$0
	DD	00H
	DD	FLAT:__unwindfunclet$??1ioUIPetAniEventHandler@@UAE@XZ$1
	DD	01H
	DD	FLAT:__unwindfunclet$??1ioUIPetAniEventHandler@@UAE@XZ$2
	DD	02H
	DD	FLAT:__unwindfunclet$??1ioUIPetAniEventHandler@@UAE@XZ$3
__ehfuncinfo$??1ioUIPetAniEventHandler@@UAE@XZ DD 019930522H
	DD	04H
	DD	FLAT:__unwindtable$??1ioUIPetAniEventHandler@@UAE@XZ
	DD	2 DUP(00H)
	DD	2 DUP(00H)
	DD	00H
	DD	01H
; Function compile flags: /Ogsp
; File d:\lost saga for developer\youtube\tutorial\source\src\lsclient\iouipetanieventhandler.cpp
xdata$x	ENDS
;	COMDAT ??1ioUIPetAniEventHandler@@UAE@XZ
_TEXT	SEGMENT
$T511267 = -20						; size = 4
$T511187 = -20						; size = 4
_this$ = -16						; size = 4
__$EHRec$ = -12						; size = 12
??1ioUIPetAniEventHandler@@UAE@XZ PROC			; ioUIPetAniEventHandler::~ioUIPetAniEventHandler, COMDAT
; _this$ = ecx

; 16   : {

  00000	6a 08		 push	 8
  00002	b8 00 00 00 00	 mov	 eax, __ehhandler$??1ioUIPetAniEventHandler@@UAE@XZ
  00007	e8 00 00 00 00	 call	 __EH_prolog3
  0000c	8b f1		 mov	 esi, ecx
  0000e	89 75 f0	 mov	 DWORD PTR _this$[ebp], esi
  00011	c7 06 00 00 00
	00		 mov	 DWORD PTR [esi], OFFSET ??_7ioUIPetAniEventHandler@@6B@

; 17   : 	m_ShopEffectList.clear();

  00017	8b 46 20	 mov	 eax, DWORD PTR [esi+32]
  0001a	8b 4e 1c	 mov	 ecx, DWORD PTR [esi+28]
  0001d	50		 push	 eax
  0001e	51		 push	 ecx
  0001f	8d 45 ec	 lea	 eax, DWORD PTR $T511187[ebp]
  00022	50		 push	 eax
  00023	8d 4e 1c	 lea	 ecx, DWORD PTR [esi+28]
  00026	c7 45 fc 03 00
	00 00		 mov	 DWORD PTR __$EHRec$[ebp+8], 3
  0002d	e8 00 00 00 00	 call	 ?erase@?$vector@UAniEventInfo@@V?$allocator@UAniEventInfo@@@std@@@std@@QAE?AV?$_Vector_iterator@V?$_Vector_val@UAniEventInfo@@V?$allocator@UAniEventInfo@@@std@@@std@@@2@V?$_Vector_const_iterator@V?$_Vector_val@UAniEventInfo@@V?$allocator@UAniEventInfo@@@std@@@std@@@2@0@Z ; std::vector<AniEventInfo,std::allocator<AniEventInfo> >::erase

; 18   : 	m_ShopSoundList.clear();

  00032	8b 46 30	 mov	 eax, DWORD PTR [esi+48]
  00035	8b 4e 2c	 mov	 ecx, DWORD PTR [esi+44]
  00038	50		 push	 eax
  00039	51		 push	 ecx
  0003a	8d 45 ec	 lea	 eax, DWORD PTR $T511267[ebp]
  0003d	50		 push	 eax
  0003e	8d 4e 2c	 lea	 ecx, DWORD PTR [esi+44]
  00041	e8 00 00 00 00	 call	 ?erase@?$vector@UtagAniSoundEventInfo@@V?$allocator@UtagAniSoundEventInfo@@@std@@@std@@QAE?AV?$_Vector_iterator@V?$_Vector_val@UtagAniSoundEventInfo@@V?$allocator@UtagAniSoundEventInfo@@@std@@@std@@@2@V?$_Vector_const_iterator@V?$_Vector_val@UtagAniSoundEventInfo@@V?$allocator@UtagAniSoundEventInfo@@@std@@@std@@@2@0@Z ; std::vector<tagAniSoundEventInfo,std::allocator<tagAniSoundEventInfo> >::erase

; 19   : }

  00046	8d 4e 3c	 lea	 ecx, DWORD PTR [esi+60]
  00049	c6 45 fc 02	 mov	 BYTE PTR __$EHRec$[ebp+8], 2
  0004d	e8 00 00 00 00	 call	 ?_Tidy@?$vector@UAniEventInfo@@V?$allocator@UAniEventInfo@@@std@@@std@@IAEXXZ ; std::vector<AniEventInfo,std::allocator<AniEventInfo> >::_Tidy
  00052	8d 4e 2c	 lea	 ecx, DWORD PTR [esi+44]
  00055	c6 45 fc 01	 mov	 BYTE PTR __$EHRec$[ebp+8], 1
  00059	e8 00 00 00 00	 call	 ?_Tidy@?$vector@UtagAniSoundEventInfo@@V?$allocator@UtagAniSoundEventInfo@@@std@@@std@@IAEXXZ ; std::vector<tagAniSoundEventInfo,std::allocator<tagAniSoundEventInfo> >::_Tidy
  0005e	8d 4e 1c	 lea	 ecx, DWORD PTR [esi+28]
  00061	c6 45 fc 00	 mov	 BYTE PTR __$EHRec$[ebp+8], 0
  00065	e8 00 00 00 00	 call	 ?_Tidy@?$vector@UAniEventInfo@@V?$allocator@UAniEventInfo@@@std@@@std@@IAEXXZ ; std::vector<AniEventInfo,std::allocator<AniEventInfo> >::_Tidy
  0006a	83 4d fc ff	 or	 DWORD PTR __$EHRec$[ebp+8], -1
  0006e	8b ce		 mov	 ecx, esi
  00070	ff 15 00 00 00
	00		 call	 DWORD PTR __imp_??1ioAniEventHandler@@UAE@XZ
  00076	e8 00 00 00 00	 call	 __EH_epilog3
  0007b	c3		 ret	 0
_TEXT	ENDS
;	COMDAT text$x
text$x	SEGMENT
__unwindfunclet$??1ioUIPetAniEventHandler@@UAE@XZ$0:
  00000	8b 4d f0	 mov	 ecx, DWORD PTR _this$[ebp]
  00003	ff 25 00 00 00
	00		 jmp	 DWORD PTR __imp_??1ioAniEventHandler@@UAE@XZ
__unwindfunclet$??1ioUIPetAniEventHandler@@UAE@XZ$1:
  00009	8b 4d f0	 mov	 ecx, DWORD PTR _this$[ebp]
  0000c	83 c1 1c	 add	 ecx, 28			; 0000001cH
  0000f	e9 00 00 00 00	 jmp	 ??1?$vector@UAniEventInfo@@V?$allocator@UAniEventInfo@@@std@@@std@@QAE@XZ ; std::vector<AniEventInfo,std::allocator<AniEventInfo> >::~vector<AniEventInfo,std::allocator<AniEventInfo> >
__unwindfunclet$??1ioUIPetAniEventHandler@@UAE@XZ$2:
  00014	8b 4d f0	 mov	 ecx, DWORD PTR _this$[ebp]
  00017	83 c1 2c	 add	 ecx, 44			; 0000002cH
  0001a	e9 00 00 00 00	 jmp	 ??1?$vector@UtagAniSoundEventInfo@@V?$allocator@UtagAniSoundEventInfo@@@std@@@std@@QAE@XZ ; std::vector<tagAniSoundEventInfo,std::allocator<tagAniSoundEventInfo> >::~vector<tagAniSoundEventInfo,std::allocator<tagAniSoundEventInfo> >
__unwindfunclet$??1ioUIPetAniEventHandler@@UAE@XZ$3:
  0001f	8b 4d f0	 mov	 ecx, DWORD PTR _this$[ebp]
  00022	83 c1 3c	 add	 ecx, 60			; 0000003cH
  00025	e9 00 00 00 00	 jmp	 ??1?$vector@UAniEventInfo@@V?$allocator@UAniEventInfo@@@std@@@std@@QAE@XZ ; std::vector<AniEventInfo,std::allocator<AniEventInfo> >::~vector<AniEventInfo,std::allocator<AniEventInfo> >
__ehhandler$??1ioUIPetAniEventHandler@@UAE@XZ:
  0002a	8b 54 24 08	 mov	 edx, DWORD PTR [esp+8]
  0002e	8d 42 0c	 lea	 eax, DWORD PTR [edx+12]
  00031	8b 4a e8	 mov	 ecx, DWORD PTR [edx-24]
  00034	33 c8		 xor	 ecx, eax
  00036	e8 00 00 00 00	 call	 @__security_check_cookie@4
  0003b	b8 00 00 00 00	 mov	 eax, OFFSET __ehfuncinfo$??1ioUIPetAniEventHandler@@UAE@XZ
  00040	e9 00 00 00 00	 jmp	 ___CxxFrameHandler3
text$x	ENDS
??1ioUIPetAniEventHandler@@UAE@XZ ENDP			; ioUIPetAniEventHandler::~ioUIPetAniEventHandler
PUBLIC	?OnShopEffect@ioUIPetAniEventHandler@@IAEXPBUAniEventTime@@PBVioAnimation@@@Z ; ioUIPetAniEventHandler::OnShopEffect
EXTRN	?EndEffect@ioPetView@@QAEXABVioHashString@@_N@Z:PROC ; ioPetView::EndEffect
;	COMDAT xdata$x
xdata$x	SEGMENT
__unwindtable$?OnShopEffect@ioUIPetAniEventHandler@@IAEXPBUAniEventTime@@PBVioAnimation@@@Z DD 0ffffffffH
	DD	FLAT:__unwindfunclet$?OnShopEffect@ioUIPetAniEventHandler@@IAEXPBUAniEventTime@@PBVioAnimation@@@Z$1
	DD	0ffffffffH
	DD	FLAT:__unwindfunclet$?OnShopEffect@ioUIPetAniEventHandler@@IAEXPBUAniEventTime@@PBVioAnimation@@@Z$0
__ehfuncinfo$?OnShopEffect@ioUIPetAniEventHandler@@IAEXPBUAniEventTime@@PBVioAnimation@@@Z DD 019930522H
	DD	02H
	DD	FLAT:__unwindtable$?OnShopEffect@ioUIPetAniEventHandler@@IAEXPBUAniEventTime@@PBVioAnimation@@@Z
	DD	2 DUP(00H)
	DD	2 DUP(00H)
	DD	00H
	DD	01H
; Function compile flags: /Ogsp
xdata$x	ENDS
;	COMDAT ?OnShopEffect@ioUIPetAniEventHandler@@IAEXPBUAniEventTime@@PBVioAnimation@@@Z
_TEXT	SEGMENT
_kInfo$ = -48						; size = 32
$T511319 = -16						; size = 4
__$EHRec$ = -12						; size = 12
_pEvent$ = 8						; size = 4
_pNotifier$ = 12					; size = 4
?OnShopEffect@ioUIPetAniEventHandler@@IAEXPBUAniEventTime@@PBVioAnimation@@@Z PROC ; ioUIPetAniEventHandler::OnShopEffect, COMDAT
; _this$ = ecx

; 55   : {

  00000	6a 24		 push	 36			; 00000024H
  00002	b8 00 00 00 00	 mov	 eax, __ehhandler$?OnShopEffect@ioUIPetAniEventHandler@@IAEXPBUAniEventTime@@PBVioAnimation@@@Z
  00007	e8 00 00 00 00	 call	 __EH_prolog3
  0000c	8b f1		 mov	 esi, ecx

; 56   : 	if( !m_pChar ) return;

  0000e	83 7e 18 00	 cmp	 DWORD PTR [esi+24], 0
  00012	0f 84 a0 00 00
	00		 je	 $LN6@OnShopEffe

; 57   : 
; 58   : 	AniEventInfoList::iterator iter = m_ShopEffectList.begin();

  00018	8d 5e 1c	 lea	 ebx, DWORD PTR [esi+28]
  0001b	8b 3b		 mov	 edi, DWORD PTR [ebx]
  0001d	eb 17		 jmp	 SHORT $LN47@OnShopEffe
$LN4@OnShopEffe:

; 60   : 	{
; 61   : 		if( (*iter).m_EventName == pEvent->szSubInfo )

  0001f	8b 45 08	 mov	 eax, DWORD PTR _pEvent$[ebp]
  00022	83 c0 14	 add	 eax, 20			; 00000014H
  00025	50		 push	 eax
  00026	8d 4f 10	 lea	 ecx, DWORD PTR [edi+16]
  00029	ff 15 00 00 00
	00		 call	 DWORD PTR __imp_??8ioHashString@@QBE_NABV0@@Z
  0002f	84 c0		 test	 al, al
  00031	75 0a		 jne	 SHORT $LN44@OnShopEffe

; 65   : 			break;
; 66   : 		}
; 67   : 		else
; 68   : 		{
; 69   : 			++iter;

  00033	83 c7 20	 add	 edi, 32			; 00000020H
$LN47@OnShopEffe:

; 59   : 	while( iter != m_ShopEffectList.end() )

  00036	3b 7e 20	 cmp	 edi, DWORD PTR [esi+32]
  00039	75 e4		 jne	 SHORT $LN4@OnShopEffe

; 60   : 	{
; 61   : 		if( (*iter).m_EventName == pEvent->szSubInfo )

  0003b	eb 1d		 jmp	 SHORT $LN3@OnShopEffe
$LN44@OnShopEffe:

; 62   : 		{
; 63   : 			m_pChar->EndEffect( pEvent->szSubInfo, false );

  0003d	8b 45 08	 mov	 eax, DWORD PTR _pEvent$[ebp]
  00040	8b 4e 18	 mov	 ecx, DWORD PTR [esi+24]
  00043	6a 00		 push	 0
  00045	83 c0 14	 add	 eax, 20			; 00000014H
  00048	50		 push	 eax
  00049	e8 00 00 00 00	 call	 ?EndEffect@ioPetView@@QAEXABVioHashString@@_N@Z ; ioPetView::EndEffect

; 64   : 			m_ShopEffectList.erase( iter );

  0004e	57		 push	 edi
  0004f	8d 45 f0	 lea	 eax, DWORD PTR $T511319[ebp]
  00052	50		 push	 eax
  00053	8b cb		 mov	 ecx, ebx
  00055	e8 00 00 00 00	 call	 ?erase@?$vector@UAniEventInfo@@V?$allocator@UAniEventInfo@@@std@@@std@@QAE?AV?$_Vector_iterator@V?$_Vector_val@UAniEventInfo@@V?$allocator@UAniEventInfo@@@std@@@std@@@2@V?$_Vector_const_iterator@V?$_Vector_val@UAniEventInfo@@V?$allocator@UAniEventInfo@@@std@@@std@@@2@@Z ; std::vector<AniEventInfo,std::allocator<AniEventInfo> >::erase
$LN3@OnShopEffe:

; 70   : 		}
; 71   : 	}
; 72   : 
; 73   : 	m_pChar->AttachEffect( pEvent->szSubInfo, NULL );

  0005a	8b 7d 08	 mov	 edi, DWORD PTR _pEvent$[ebp]
  0005d	8b 4e 18	 mov	 ecx, DWORD PTR [esi+24]
  00060	6a 00		 push	 0
  00062	83 c7 14	 add	 edi, 20			; 00000014H
  00065	57		 push	 edi
  00066	e8 00 00 00 00	 call	 ?AttachEffect@ioPetView@@QAEPAVioEffect@@ABVioHashString@@PAVioEntityEvent@@@Z ; ioPetView::AttachEffect

; 74   : 
; 75   : 	AniEventInfo kInfo;

  0006b	8b 35 00 00 00
	00		 mov	 esi, DWORD PTR __imp_??0ioHashString@@QAE@XZ
  00071	8d 4d d0	 lea	 ecx, DWORD PTR _kInfo$[ebp]
  00074	ff d6		 call	 esi
  00076	83 65 fc 00	 and	 DWORD PTR __$EHRec$[ebp+8], 0
  0007a	8d 4d e0	 lea	 ecx, DWORD PTR _kInfo$[ebp+16]
  0007d	ff d6		 call	 esi

; 76   : 	kInfo.m_AniName = pNotifier->GetName();

  0007f	8b 4d 0c	 mov	 ecx, DWORD PTR _pNotifier$[ebp]
  00082	c7 45 fc 01 00
	00 00		 mov	 DWORD PTR __$EHRec$[ebp+8], 1
  00089	ff 15 00 00 00
	00		 call	 DWORD PTR __imp_?GetName@ioAnimation@@QBEABVioHashString@@XZ
  0008f	8b 35 00 00 00
	00		 mov	 esi, DWORD PTR __imp_??4ioHashString@@QAEAAV0@ABV0@@Z
  00095	50		 push	 eax
  00096	8d 4d d0	 lea	 ecx, DWORD PTR _kInfo$[ebp]
  00099	ff d6		 call	 esi

; 77   : 	kInfo.m_EventName = pEvent->szSubInfo;

  0009b	57		 push	 edi
  0009c	8d 4d e0	 lea	 ecx, DWORD PTR _kInfo$[ebp+16]
  0009f	ff d6		 call	 esi

; 78   : 
; 79   : 	m_ShopEffectList.push_back( kInfo );

  000a1	8d 45 d0	 lea	 eax, DWORD PTR _kInfo$[ebp]
  000a4	50		 push	 eax
  000a5	8b cb		 mov	 ecx, ebx
  000a7	e8 00 00 00 00	 call	 ?push_back@?$vector@UAniEventInfo@@V?$allocator@UAniEventInfo@@@std@@@std@@QAEXABUAniEventInfo@@@Z ; std::vector<AniEventInfo,std::allocator<AniEventInfo> >::push_back

; 80   : }

  000ac	83 4d fc ff	 or	 DWORD PTR __$EHRec$[ebp+8], -1
  000b0	8d 4d d0	 lea	 ecx, DWORD PTR _kInfo$[ebp]
  000b3	e8 00 00 00 00	 call	 ??1AniEventInfo@@QAE@XZ
$LN6@OnShopEffe:
  000b8	e8 00 00 00 00	 call	 __EH_epilog3
  000bd	c2 08 00	 ret	 8
_TEXT	ENDS
;	COMDAT text$x
text$x	SEGMENT
__unwindfunclet$?OnShopEffect@ioUIPetAniEventHandler@@IAEXPBUAniEventTime@@PBVioAnimation@@@Z$1:
  00000	8d 4d d0	 lea	 ecx, DWORD PTR _kInfo$[ebp]
  00003	ff 25 00 00 00
	00		 jmp	 DWORD PTR __imp_??1ioHashString@@QAE@XZ
__unwindfunclet$?OnShopEffect@ioUIPetAniEventHandler@@IAEXPBUAniEventTime@@PBVioAnimation@@@Z$0:
  00009	8d 4d d0	 lea	 ecx, DWORD PTR _kInfo$[ebp]
  0000c	e9 00 00 00 00	 jmp	 ??1AniEventInfo@@QAE@XZ
__ehhandler$?OnShopEffect@ioUIPetAniEventHandler@@IAEXPBUAniEventTime@@PBVioAnimation@@@Z:
  00011	8b 54 24 08	 mov	 edx, DWORD PTR [esp+8]
  00015	8d 42 0c	 lea	 eax, DWORD PTR [edx+12]
  00018	8b 4a cc	 mov	 ecx, DWORD PTR [edx-52]
  0001b	33 c8		 xor	 ecx, eax
  0001d	e8 00 00 00 00	 call	 @__security_check_cookie@4
  00022	b8 00 00 00 00	 mov	 eax, OFFSET __ehfuncinfo$?OnShopEffect@ioUIPetAniEventHandler@@IAEXPBUAniEventTime@@PBVioAnimation@@@Z
  00027	e9 00 00 00 00	 jmp	 ___CxxFrameHandler3
text$x	ENDS
?OnShopEffect@ioUIPetAniEventHandler@@IAEXPBUAniEventTime@@PBVioAnimation@@@Z ENDP ; ioUIPetAniEventHandler::OnShopEffect
PUBLIC	?OnShopSound@ioUIPetAniEventHandler@@IAEXPBUAniEventTime@@PBVioAnimation@@@Z ; ioUIPetAniEventHandler::OnShopSound
EXTRN	__imp_?PlaySoundA@ioSoundManager@@QAEKABVioHashString@@PAVioSceneNode@@K@Z:PROC
;	COMDAT xdata$x
; File c:\program files (x86)\microsoft visual studio 10.0\vc\include\vector
xdata$x	SEGMENT
__unwindtable$?OnShopSound@ioUIPetAniEventHandler@@IAEXPBUAniEventTime@@PBVioAnimation@@@Z DD 0ffffffffH
	DD	FLAT:__unwindfunclet$?OnShopSound@ioUIPetAniEventHandler@@IAEXPBUAniEventTime@@PBVioAnimation@@@Z$0
__ehfuncinfo$?OnShopSound@ioUIPetAniEventHandler@@IAEXPBUAniEventTime@@PBVioAnimation@@@Z DD 019930522H
	DD	01H
	DD	FLAT:__unwindtable$?OnShopSound@ioUIPetAniEventHandler@@IAEXPBUAniEventTime@@PBVioAnimation@@@Z
	DD	2 DUP(00H)
	DD	2 DUP(00H)
	DD	00H
	DD	01H
; Function compile flags: /Ogsp
; File d:\lost saga for developer\youtube\tutorial\source\src\lsclient\iouipetanieventhandler.cpp
xdata$x	ENDS
;	COMDAT ?OnShopSound@ioUIPetAniEventHandler@@IAEXPBUAniEventTime@@PBVioAnimation@@@Z
_TEXT	SEGMENT
_kInfo$ = -56						; size = 36
$T511422 = -20						; size = 4
tv288 = -16						; size = 4
__$EHRec$ = -12						; size = 12
_pEvent$ = 8						; size = 4
_pNotifier$ = 12					; size = 4
?OnShopSound@ioUIPetAniEventHandler@@IAEXPBUAniEventTime@@PBVioAnimation@@@Z PROC ; ioUIPetAniEventHandler::OnShopSound, COMDAT
; _this$ = ecx

; 83   : {

  00000	6a 2c		 push	 44			; 0000002cH
  00002	b8 00 00 00 00	 mov	 eax, __ehhandler$?OnShopSound@ioUIPetAniEventHandler@@IAEXPBUAniEventTime@@PBVioAnimation@@@Z
  00007	e8 00 00 00 00	 call	 __EH_prolog3
  0000c	8b f9		 mov	 edi, ecx

; 84   : 	AniSoundEventInfoList::iterator iter = m_ShopSoundList.begin();
; 85   : 	while( iter != m_ShopSoundList.end() )

  0000e	8b 1d 00 00 00
	00		 mov	 ebx, DWORD PTR __imp_?GetSingleton@ioSoundManager@@SAAAV1@XZ
  00014	8d 47 2c	 lea	 eax, DWORD PTR [edi+44]
  00017	8b 30		 mov	 esi, DWORD PTR [eax]
  00019	89 45 f0	 mov	 DWORD PTR tv288[ebp], eax
  0001c	eb 39		 jmp	 SHORT $LN49@OnShopSoun
$LN4@OnShopSoun:

; 86   : 	{
; 87   : 		if( (*iter).m_EventName == pEvent->szSubInfo )

  0001e	8b 45 08	 mov	 eax, DWORD PTR _pEvent$[ebp]
  00021	83 c0 14	 add	 eax, 20			; 00000014H
  00024	8d 4e 10	 lea	 ecx, DWORD PTR [esi+16]
  00027	50		 push	 eax
  00028	ff 15 00 00 00
	00		 call	 DWORD PTR __imp_??8ioHashString@@QBE_NABV0@@Z
  0002e	84 c0		 test	 al, al
  00030	74 22		 je	 SHORT $LN2@OnShopSoun

; 88   : 		{
; 89   : 			g_SoundMgr.StopSound( (*iter).m_EventName, (*iter).m_SoundID );

  00032	ff 76 20	 push	 DWORD PTR [esi+32]
  00035	8d 46 10	 lea	 eax, DWORD PTR [esi+16]
  00038	50		 push	 eax
  00039	ff d3		 call	 ebx
  0003b	8b c8		 mov	 ecx, eax
  0003d	ff 15 00 00 00
	00		 call	 DWORD PTR __imp_?StopSound@ioSoundManager@@QAEXABVioHashString@@K@Z

; 90   : 			//g_SoundMgr.StopSound( (*iter).m_EventName, 0 );
; 91   : 			iter = m_ShopSoundList.erase( iter );

  00043	8b 4d f0	 mov	 ecx, DWORD PTR tv288[ebp]
  00046	56		 push	 esi
  00047	8d 45 ec	 lea	 eax, DWORD PTR $T511422[ebp]
  0004a	50		 push	 eax
  0004b	e8 00 00 00 00	 call	 ?erase@?$vector@UtagAniSoundEventInfo@@V?$allocator@UtagAniSoundEventInfo@@@std@@@std@@QAE?AV?$_Vector_iterator@V?$_Vector_val@UtagAniSoundEventInfo@@V?$allocator@UtagAniSoundEventInfo@@@std@@@std@@@2@V?$_Vector_const_iterator@V?$_Vector_val@UtagAniSoundEventInfo@@V?$allocator@UtagAniSoundEventInfo@@@std@@@std@@@2@@Z ; std::vector<tagAniSoundEventInfo,std::allocator<tagAniSoundEventInfo> >::erase
  00050	8b 30		 mov	 esi, DWORD PTR [eax]

; 92   : 		}
; 93   : 		else

  00052	eb 03		 jmp	 SHORT $LN49@OnShopSoun
$LN2@OnShopSoun:

; 94   : 		{
; 95   : 			++iter;

  00054	83 c6 24	 add	 esi, 36			; 00000024H
$LN49@OnShopSoun:

; 84   : 	AniSoundEventInfoList::iterator iter = m_ShopSoundList.begin();
; 85   : 	while( iter != m_ShopSoundList.end() )

  00057	3b 77 30	 cmp	 esi, DWORD PTR [edi+48]
  0005a	75 c2		 jne	 SHORT $LN4@OnShopSoun

; 96   : 		}
; 97   : 	}
; 98   : 
; 99   : 	UniqueObjID eSoundID = g_SoundMgr.PlaySound( pEvent->szSubInfo, m_pOwner->GetParentSceneNode() );

  0005c	8b 4f 04	 mov	 ecx, DWORD PTR [edi+4]
  0005f	8b 7d 08	 mov	 edi, DWORD PTR _pEvent$[ebp]
  00062	8b 01		 mov	 eax, DWORD PTR [ecx]
  00064	6a 04		 push	 4
  00066	83 c7 14	 add	 edi, 20			; 00000014H
  00069	ff 50 34	 call	 DWORD PTR [eax+52]
  0006c	50		 push	 eax
  0006d	57		 push	 edi
  0006e	ff d3		 call	 ebx
  00070	8b c8		 mov	 ecx, eax
  00072	ff 15 00 00 00
	00		 call	 DWORD PTR __imp_?PlaySoundA@ioSoundManager@@QAEKABVioHashString@@PAVioSceneNode@@K@Z

; 100  : 
; 101  : 	AniSoundEventInfo kInfo;

  00078	8d 4d c8	 lea	 ecx, DWORD PTR _kInfo$[ebp]
  0007b	8b d8		 mov	 ebx, eax
  0007d	e8 00 00 00 00	 call	 ??0tagAniSoundEventInfo@@QAE@XZ ; tagAniSoundEventInfo::tagAniSoundEventInfo

; 102  : 	kInfo.m_AniName = pNotifier->GetName();

  00082	8b 4d 0c	 mov	 ecx, DWORD PTR _pNotifier$[ebp]
  00085	83 65 fc 00	 and	 DWORD PTR __$EHRec$[ebp+8], 0
  00089	ff 15 00 00 00
	00		 call	 DWORD PTR __imp_?GetName@ioAnimation@@QBEABVioHashString@@XZ
  0008f	8b 35 00 00 00
	00		 mov	 esi, DWORD PTR __imp_??4ioHashString@@QAEAAV0@ABV0@@Z
  00095	50		 push	 eax
  00096	8d 4d c8	 lea	 ecx, DWORD PTR _kInfo$[ebp]
  00099	ff d6		 call	 esi

; 103  : 	kInfo.m_EventName = pEvent->szSubInfo;

  0009b	57		 push	 edi
  0009c	8d 4d d8	 lea	 ecx, DWORD PTR _kInfo$[ebp+16]
  0009f	ff d6		 call	 esi

; 104  : 	kInfo.m_SoundID = eSoundID;
; 105  : 
; 106  : 	m_ShopSoundList.push_back( kInfo );

  000a1	8b 4d f0	 mov	 ecx, DWORD PTR tv288[ebp]
  000a4	8d 45 c8	 lea	 eax, DWORD PTR _kInfo$[ebp]
  000a7	50		 push	 eax
  000a8	89 5d e8	 mov	 DWORD PTR _kInfo$[ebp+32], ebx
  000ab	e8 00 00 00 00	 call	 ?push_back@?$vector@UtagAniSoundEventInfo@@V?$allocator@UtagAniSoundEventInfo@@@std@@@std@@QAEXABUtagAniSoundEventInfo@@@Z ; std::vector<tagAniSoundEventInfo,std::allocator<tagAniSoundEventInfo> >::push_back

; 107  : }

  000b0	83 4d fc ff	 or	 DWORD PTR __$EHRec$[ebp+8], -1
  000b4	8d 4d c8	 lea	 ecx, DWORD PTR _kInfo$[ebp]
  000b7	e8 00 00 00 00	 call	 ??1tagAniSoundEventInfo@@QAE@XZ
  000bc	e8 00 00 00 00	 call	 __EH_epilog3
  000c1	c2 08 00	 ret	 8
_TEXT	ENDS
;	COMDAT text$x
text$x	SEGMENT
__unwindfunclet$?OnShopSound@ioUIPetAniEventHandler@@IAEXPBUAniEventTime@@PBVioAnimation@@@Z$0:
  00000	8d 4d c8	 lea	 ecx, DWORD PTR _kInfo$[ebp]
  00003	e9 00 00 00 00	 jmp	 ??1tagAniSoundEventInfo@@QAE@XZ
__ehhandler$?OnShopSound@ioUIPetAniEventHandler@@IAEXPBUAniEventTime@@PBVioAnimation@@@Z:
  00008	8b 54 24 08	 mov	 edx, DWORD PTR [esp+8]
  0000c	8d 42 0c	 lea	 eax, DWORD PTR [edx+12]
  0000f	8b 4a c4	 mov	 ecx, DWORD PTR [edx-60]
  00012	33 c8		 xor	 ecx, eax
  00014	e8 00 00 00 00	 call	 @__security_check_cookie@4
  00019	b8 00 00 00 00	 mov	 eax, OFFSET __ehfuncinfo$?OnShopSound@ioUIPetAniEventHandler@@IAEXPBUAniEventTime@@PBVioAnimation@@@Z
  0001e	e9 00 00 00 00	 jmp	 ___CxxFrameHandler3
text$x	ENDS
?OnShopSound@ioUIPetAniEventHandler@@IAEXPBUAniEventTime@@PBVioAnimation@@@Z ENDP ; ioUIPetAniEventHandler::OnShopSound
; Function compile flags: /Ogsp
;	COMDAT ??_GioUIPetAniEventHandler@@UAEPAXI@Z
_TEXT	SEGMENT
___flags$ = 8						; size = 4
??_GioUIPetAniEventHandler@@UAEPAXI@Z PROC		; ioUIPetAniEventHandler::`scalar deleting destructor', COMDAT
; _this$ = ecx
  00000	55		 push	 ebp
  00001	8b ec		 mov	 ebp, esp
  00003	56		 push	 esi
  00004	8b f1		 mov	 esi, ecx
  00006	e8 00 00 00 00	 call	 ??1ioUIPetAniEventHandler@@UAE@XZ ; ioUIPetAniEventHandler::~ioUIPetAniEventHandler
  0000b	f6 45 08 01	 test	 BYTE PTR ___flags$[ebp], 1
  0000f	74 07		 je	 SHORT $LN1@scalar@4
  00011	56		 push	 esi
  00012	e8 00 00 00 00	 call	 ??3@YAXPAX@Z		; operator delete
  00017	59		 pop	 ecx
$LN1@scalar@4:
  00018	8b c6		 mov	 eax, esi
  0001a	5e		 pop	 esi
  0001b	5d		 pop	 ebp
  0001c	c2 04 00	 ret	 4
??_GioUIPetAniEventHandler@@UAEPAXI@Z ENDP		; ioUIPetAniEventHandler::`scalar deleting destructor'
_TEXT	ENDS
PUBLIC	_pEvent$GSCopy$
PUBLIC	_pNotifier$GSCopy$
PUBLIC	_this$GSCopy$
PUBLIC	__$ArrayPad$
EXTRN	__imp_?EventHandling@ioAniEventHandler@@UAE_NPBUAniEventTime@@PBVioAnimation@@@Z:PROC
; Function compile flags: /Ogsp
;	COMDAT ?EventHandling@ioUIPetAniEventHandler@@UAE_NPBUAniEventTime@@PBVioAnimation@@@Z
_TEXT	SEGMENT
_pNotifier$GSCopy$ = -32				; size = 4
_this$GSCopy$ = -28					; size = 4
_pEvent$GSCopy$ = -24					; size = 4
__t$511802 = -20					; size = 11
__t$511677 = -20					; size = 12
__t$511552 = -20					; size = 12
__$ArrayPad$ = -4					; size = 4
_pEvent$ = 8						; size = 4
_pNotifier$ = 12					; size = 4
?EventHandling@ioUIPetAniEventHandler@@UAE_NPBUAniEventTime@@PBVioAnimation@@@Z PROC ; ioUIPetAniEventHandler::EventHandling, COMDAT
; _this$ = ecx

; 27   : {

  00000	55		 push	 ebp
  00001	8b ec		 mov	 ebp, esp
  00003	83 ec 20	 sub	 esp, 32			; 00000020H
  00006	a1 00 00 00 00	 mov	 eax, DWORD PTR ___security_cookie
  0000b	33 c5		 xor	 eax, ebp
  0000d	89 45 fc	 mov	 DWORD PTR __$ArrayPad$[ebp], eax
  00010	8b 45 08	 mov	 eax, DWORD PTR _pEvent$[ebp]
  00013	89 4d e4	 mov	 DWORD PTR _this$GSCopy$[ebp], ecx
  00016	8b 4d 0c	 mov	 ecx, DWORD PTR _pNotifier$[ebp]

; 28   : 	if( ioAniEventHandler::EventHandling( pEvent, pNotifier ) )

  00019	51		 push	 ecx

; 40   : 	}
; 41   : 	else if( pEvent->szEventType == "shop_sound" )

  0001a	89 4d e0	 mov	 DWORD PTR _pNotifier$GSCopy$[ebp], ecx
  0001d	8b 4d e4	 mov	 ecx, DWORD PTR _this$GSCopy$[ebp]
  00020	50		 push	 eax
  00021	89 45 e8	 mov	 DWORD PTR _pEvent$GSCopy$[ebp], eax
  00024	ff 15 00 00 00
	00		 call	 DWORD PTR __imp_?EventHandling@ioAniEventHandler@@UAE_NPBUAniEventTime@@PBVioAnimation@@@Z
  0002a	84 c0		 test	 al, al
  0002c	74 07		 je	 SHORT $LN339@EventHandl

; 29   : 		return true;

  0002e	b0 01		 mov	 al, 1
  00030	e9 b8 01 00 00	 jmp	 $LN7@EventHandl
$LN339@EventHandl:
  00035	57		 push	 edi

; 30   : 
; 31   : 	if( pEvent->szEventType == "auto_effect" )

  00036	6a 02		 push	 2
  00038	5f		 pop	 edi
  00039	c7 45 ec 8c 99
	9f 85		 mov	 DWORD PTR __t$511552[ebp], -2053138036 ; 859f998cH
  00040	c7 45 f0 b2 89
	8d 8c		 mov	 DWORD PTR __t$511552[ebp+4], -1936881230 ; 8c8d89b2H
  00047	8d 45 ec	 lea	 eax, DWORD PTR __t$511552[ebp]
  0004a	c7 45 f4 88 8f
	9f 00		 mov	 DWORD PTR __t$511552[ebp+8], 10456968 ; 009f8f88H
  00051	8b cf		 mov	 ecx, edi
$LL112@EventHandl:
  00053	81 30 ed ec eb
	ea		 xor	 DWORD PTR [eax], -353637139 ; eaebecedH
  00059	83 c0 04	 add	 eax, 4
  0005c	49		 dec	 ecx
  0005d	75 f4		 jne	 SHORT $LL112@EventHandl
  0005f	6a 08		 push	 8
  00061	58		 pop	 eax
$LL109@EventHandl:
  00062	8b c8		 mov	 ecx, eax
  00064	81 e1 03 00 00
	80		 and	 ecx, -2147483645	; 80000003H
  0006a	79 05		 jns	 SHORT $LN356@EventHandl
  0006c	49		 dec	 ecx
  0006d	83 c9 fc	 or	 ecx, -4			; fffffffcH
  00070	41		 inc	 ecx
$LN356@EventHandl:
  00071	b2 ed		 mov	 dl, -19			; ffffffedH
  00073	2a d1		 sub	 dl, cl
  00075	30 54 05 ec	 xor	 BYTE PTR __t$511552[ebp+eax], dl
  00079	40		 inc	 eax
  0007a	83 f8 0b	 cmp	 eax, 11			; 0000000bH
  0007d	7c e3		 jl	 SHORT $LL109@EventHandl
  0007f	8b 4d e8	 mov	 ecx, DWORD PTR _pEvent$GSCopy$[ebp]
  00082	56		 push	 esi
  00083	83 c1 04	 add	 ecx, 4
  00086	8d 75 ec	 lea	 esi, DWORD PTR __t$511552[ebp]
  00089	ff 15 00 00 00
	00		 call	 DWORD PTR __imp_?c_str@ioHashString@@QBEPBDXZ
$LL342@EventHandl:
  0008f	8a 08		 mov	 cl, BYTE PTR [eax]
  00091	3a 0e		 cmp	 cl, BYTE PTR [esi]
  00093	75 18		 jne	 SHORT $LN343@EventHandl
  00095	84 c9		 test	 cl, cl
  00097	74 10		 je	 SHORT $LN344@EventHandl
  00099	8a 48 01	 mov	 cl, BYTE PTR [eax+1]
  0009c	3a 4e 01	 cmp	 cl, BYTE PTR [esi+1]
  0009f	75 0c		 jne	 SHORT $LN343@EventHandl
  000a1	03 c7		 add	 eax, edi
  000a3	03 f7		 add	 esi, edi
  000a5	84 c9		 test	 cl, cl
  000a7	75 e6		 jne	 SHORT $LL342@EventHandl
$LN344@EventHandl:
  000a9	33 c0		 xor	 eax, eax
  000ab	eb 05		 jmp	 SHORT $LN345@EventHandl
$LN343@EventHandl:
  000ad	1b c0		 sbb	 eax, eax
  000af	83 d8 ff	 sbb	 eax, -1
$LN345@EventHandl:
  000b2	85 c0		 test	 eax, eax
  000b4	75 13		 jne	 SHORT $LN340@EventHandl

; 32   : 	{
; 33   : 		OnAutoEffect( pEvent, pNotifier );

  000b6	ff 75 e0	 push	 DWORD PTR _pNotifier$GSCopy$[ebp]
  000b9	8b 4d e4	 mov	 ecx, DWORD PTR _this$GSCopy$[ebp]
  000bc	ff 75 e8	 push	 DWORD PTR _pEvent$GSCopy$[ebp]
  000bf	e8 00 00 00 00	 call	 ?OnAutoEffect@ioUIPetAniEventHandler@@IAEXPBUAniEventTime@@PBVioAnimation@@@Z ; ioUIPetAniEventHandler::OnAutoEffect

; 34   : 		return true;

  000c4	e9 1c 01 00 00	 jmp	 $LN359@EventHandl
$LN340@EventHandl:

; 35   : 	}
; 36   : 	else if( pEvent->szEventType == "shop_effect" )

  000c9	c7 45 ec 9e 84
	84 9a		 mov	 DWORD PTR __t$511677[ebp], -1702591330 ; 9a84849eH
  000d0	c7 45 f0 b2 89
	8d 8c		 mov	 DWORD PTR __t$511677[ebp+4], -1936881230 ; 8c8d89b2H
  000d7	8d 45 ec	 lea	 eax, DWORD PTR __t$511677[ebp]
  000da	c7 45 f4 88 8f
	9f 00		 mov	 DWORD PTR __t$511677[ebp+8], 10456968 ; 009f8f88H
  000e1	8b cf		 mov	 ecx, edi
$LL218@EventHandl:
  000e3	81 30 ed ec eb
	ea		 xor	 DWORD PTR [eax], -353637139 ; eaebecedH
  000e9	83 c0 04	 add	 eax, 4
  000ec	49		 dec	 ecx
  000ed	75 f4		 jne	 SHORT $LL218@EventHandl
  000ef	6a 08		 push	 8
  000f1	58		 pop	 eax
$LL215@EventHandl:
  000f2	8b c8		 mov	 ecx, eax
  000f4	81 e1 03 00 00
	80		 and	 ecx, -2147483645	; 80000003H
  000fa	79 05		 jns	 SHORT $LN357@EventHandl
  000fc	49		 dec	 ecx
  000fd	83 c9 fc	 or	 ecx, -4			; fffffffcH
  00100	41		 inc	 ecx
$LN357@EventHandl:
  00101	b2 ed		 mov	 dl, -19			; ffffffedH
  00103	2a d1		 sub	 dl, cl
  00105	30 54 05 ec	 xor	 BYTE PTR __t$511677[ebp+eax], dl
  00109	40		 inc	 eax
  0010a	83 f8 0b	 cmp	 eax, 11			; 0000000bH
  0010d	7c e3		 jl	 SHORT $LL215@EventHandl
  0010f	8b 4d e8	 mov	 ecx, DWORD PTR _pEvent$GSCopy$[ebp]
  00112	83 c1 04	 add	 ecx, 4
  00115	8d 75 ec	 lea	 esi, DWORD PTR __t$511677[ebp]
  00118	ff 15 00 00 00
	00		 call	 DWORD PTR __imp_?c_str@ioHashString@@QBEPBDXZ
$LL346@EventHandl:
  0011e	8a 08		 mov	 cl, BYTE PTR [eax]
  00120	3a 0e		 cmp	 cl, BYTE PTR [esi]
  00122	75 18		 jne	 SHORT $LN347@EventHandl
  00124	84 c9		 test	 cl, cl
  00126	74 10		 je	 SHORT $LN348@EventHandl
  00128	8a 48 01	 mov	 cl, BYTE PTR [eax+1]
  0012b	3a 4e 01	 cmp	 cl, BYTE PTR [esi+1]
  0012e	75 0c		 jne	 SHORT $LN347@EventHandl
  00130	03 c7		 add	 eax, edi
  00132	03 f7		 add	 esi, edi
  00134	84 c9		 test	 cl, cl
  00136	75 e6		 jne	 SHORT $LL346@EventHandl
$LN348@EventHandl:
  00138	33 c0		 xor	 eax, eax
  0013a	eb 05		 jmp	 SHORT $LN349@EventHandl
$LN347@EventHandl:
  0013c	1b c0		 sbb	 eax, eax
  0013e	83 d8 ff	 sbb	 eax, -1
$LN349@EventHandl:
  00141	85 c0		 test	 eax, eax
  00143	75 13		 jne	 SHORT $LN341@EventHandl

; 37   : 	{
; 38   : 		OnShopEffect( pEvent, pNotifier );

  00145	ff 75 e0	 push	 DWORD PTR _pNotifier$GSCopy$[ebp]
  00148	8b 4d e4	 mov	 ecx, DWORD PTR _this$GSCopy$[ebp]
  0014b	ff 75 e8	 push	 DWORD PTR _pEvent$GSCopy$[ebp]
  0014e	e8 00 00 00 00	 call	 ?OnShopEffect@ioUIPetAniEventHandler@@IAEXPBUAniEventTime@@PBVioAnimation@@@Z ; ioUIPetAniEventHandler::OnShopEffect

; 39   : 		return true;

  00153	e9 8d 00 00 00	 jmp	 $LN359@EventHandl
$LN341@EventHandl:

; 40   : 	}
; 41   : 	else if( pEvent->szEventType == "shop_sound" )

  00158	c7 45 ec 9e 84
	84 9a		 mov	 DWORD PTR __t$511802[ebp], -1702591330 ; 9a84849eH
  0015f	c7 45 f0 b2 9f
	84 9f		 mov	 DWORD PTR __t$511802[ebp+4], -1618698318 ; 9f849fb2H
  00166	66 c7 45 f4 83
	88		 mov	 WORD PTR __t$511802[ebp+8], 34947 ; 00008883H
  0016c	8d 45 ec	 lea	 eax, DWORD PTR __t$511802[ebp]
  0016f	c6 45 f6 00	 mov	 BYTE PTR __t$511802[ebp+10], 0
  00173	8b cf		 mov	 ecx, edi
$LL324@EventHandl:
  00175	81 30 ed ec eb
	ea		 xor	 DWORD PTR [eax], -353637139 ; eaebecedH
  0017b	83 c0 04	 add	 eax, 4
  0017e	49		 dec	 ecx
  0017f	75 f4		 jne	 SHORT $LL324@EventHandl
  00181	6a 08		 push	 8
  00183	58		 pop	 eax
$LL321@EventHandl:
  00184	8b c8		 mov	 ecx, eax
  00186	81 e1 03 00 00
	80		 and	 ecx, -2147483645	; 80000003H
  0018c	79 05		 jns	 SHORT $LN358@EventHandl
  0018e	49		 dec	 ecx
  0018f	83 c9 fc	 or	 ecx, -4			; fffffffcH
  00192	41		 inc	 ecx
$LN358@EventHandl:
  00193	b2 ed		 mov	 dl, -19			; ffffffedH
  00195	2a d1		 sub	 dl, cl
  00197	30 54 05 ec	 xor	 BYTE PTR __t$511802[ebp+eax], dl
  0019b	40		 inc	 eax
  0019c	83 f8 0a	 cmp	 eax, 10			; 0000000aH
  0019f	7c e3		 jl	 SHORT $LL321@EventHandl
  001a1	8b 4d e8	 mov	 ecx, DWORD PTR _pEvent$GSCopy$[ebp]
  001a4	83 c1 04	 add	 ecx, 4
  001a7	8d 75 ec	 lea	 esi, DWORD PTR __t$511802[ebp]
  001aa	ff 15 00 00 00
	00		 call	 DWORD PTR __imp_?c_str@ioHashString@@QBEPBDXZ
$LL350@EventHandl:
  001b0	8a 08		 mov	 cl, BYTE PTR [eax]
  001b2	3a 0e		 cmp	 cl, BYTE PTR [esi]
  001b4	75 18		 jne	 SHORT $LN351@EventHandl
  001b6	84 c9		 test	 cl, cl
  001b8	74 10		 je	 SHORT $LN352@EventHandl
  001ba	8a 48 01	 mov	 cl, BYTE PTR [eax+1]
  001bd	3a 4e 01	 cmp	 cl, BYTE PTR [esi+1]
  001c0	75 0c		 jne	 SHORT $LN351@EventHandl
  001c2	03 c7		 add	 eax, edi
  001c4	03 f7		 add	 esi, edi
  001c6	84 c9		 test	 cl, cl
  001c8	75 e6		 jne	 SHORT $LL350@EventHandl
$LN352@EventHandl:
  001ca	33 c0		 xor	 eax, eax
  001cc	eb 05		 jmp	 SHORT $LN353@EventHandl
$LN351@EventHandl:
  001ce	1b c0		 sbb	 eax, eax
  001d0	83 d8 ff	 sbb	 eax, -1
$LN353@EventHandl:
  001d3	85 c0		 test	 eax, eax
  001d5	75 12		 jne	 SHORT $LN1@EventHandl

; 42   : 	{
; 43   : 		OnShopSound( pEvent, pNotifier );

  001d7	ff 75 e0	 push	 DWORD PTR _pNotifier$GSCopy$[ebp]
  001da	8b 4d e4	 mov	 ecx, DWORD PTR _this$GSCopy$[ebp]
  001dd	ff 75 e8	 push	 DWORD PTR _pEvent$GSCopy$[ebp]
  001e0	e8 00 00 00 00	 call	 ?OnShopSound@ioUIPetAniEventHandler@@IAEXPBUAniEventTime@@PBVioAnimation@@@Z ; ioUIPetAniEventHandler::OnShopSound
$LN359@EventHandl:

; 44   : 		return true;

  001e5	b0 01		 mov	 al, 1
  001e7	eb 02		 jmp	 SHORT $LN355@EventHandl
$LN1@EventHandl:

; 45   : 	}
; 46   : 	return false;

  001e9	32 c0		 xor	 al, al
$LN355@EventHandl:
  001eb	5e		 pop	 esi
  001ec	5f		 pop	 edi
$LN7@EventHandl:

; 47   : }

  001ed	8b 4d fc	 mov	 ecx, DWORD PTR __$ArrayPad$[ebp]
  001f0	33 cd		 xor	 ecx, ebp
  001f2	e8 00 00 00 00	 call	 @__security_check_cookie@4
  001f7	c9		 leave
  001f8	c2 08 00	 ret	 8
?EventHandling@ioUIPetAniEventHandler@@UAE_NPBUAniEventTime@@PBVioAnimation@@@Z ENDP ; ioUIPetAniEventHandler::EventHandling
_TEXT	ENDS
END
