; Listing generated by Microsoft (R) Optimizing Compiler Version 16.00.30319.01 

	TITLE	D:\Lost Saga For Developer\Youtube\Tutorial\Source\src\LSClient\GUI\ioUI3DRender.cpp
	.686P
	.XMM
	include listing.inc
	.model	flat

INCLUDELIB MSVCRT
INCLUDELIB OLDNAMES

PUBLIC	??_7io3DUIQuad@@6B@				; io3DUIQuad::`vftable'
PUBLIC	??1io3DUIQuad@@UAE@XZ				; io3DUIQuad::~io3DUIQuad
PUBLIC	??_R4io3DUIQuad@@6B@				; io3DUIQuad::`RTTI Complete Object Locator'
PUBLIC	??_R0?AVio3DUIQuad@@@8				; io3DUIQuad `RTTI Type Descriptor'
PUBLIC	??_R3io3DUIQuad@@8				; io3DUIQuad::`RTTI Class Hierarchy Descriptor'
PUBLIC	??_R2io3DUIQuad@@8				; io3DUIQuad::`RTTI Base Class Array'
PUBLIC	??_R1A@?0A@EA@io3DUIQuad@@8			; io3DUIQuad::`RTTI Base Class Descriptor at (0,-1,0,64)'
PUBLIC	??_R1A@?0A@EA@IUIQuad@@8			; IUIQuad::`RTTI Base Class Descriptor at (0,-1,0,64)'
PUBLIC	??_R0?AVIUIQuad@@@8				; IUIQuad `RTTI Type Descriptor'
PUBLIC	??_R3IUIQuad@@8					; IUIQuad::`RTTI Class Hierarchy Descriptor'
PUBLIC	??_R2IUIQuad@@8					; IUIQuad::`RTTI Base Class Array'
PUBLIC	?AddInfo@io3DUIQuad@@UAEXPAVioQuadRenderArray@@@Z ; io3DUIQuad::AddInfo
PUBLIC	?GetQuadCount@io3DUIQuad@@UBEHXZ		; io3DUIQuad::GetQuadCount
PUBLIC	?IsDirectQuad@io3DUIQuad@@UBE_NXZ		; io3DUIQuad::IsDirectQuad
PUBLIC	?RenderDirect@io3DUIQuad@@UAEXPAVioRenderSystem@@@Z ; io3DUIQuad::RenderDirect
EXTRN	__imp_??1IUIQuad@@UAE@XZ:PROC
EXTRN	??_7type_info@@6B@:QWORD			; type_info::`vftable'
EXTRN	??_Eio3DUIQuad@@UAEPAXI@Z:PROC			; io3DUIQuad::`vector deleting destructor'
;	COMDAT ??_R2IUIQuad@@8
; File d:\lost saga for developer\youtube\tutorial\source\src\lsclient\gui\ioui3drender.cpp
rdata$r	SEGMENT
??_R2IUIQuad@@8 DD FLAT:??_R1A@?0A@EA@IUIQuad@@8	; IUIQuad::`RTTI Base Class Array'
rdata$r	ENDS
;	COMDAT ??_R3IUIQuad@@8
rdata$r	SEGMENT
??_R3IUIQuad@@8 DD 00H					; IUIQuad::`RTTI Class Hierarchy Descriptor'
	DD	00H
	DD	01H
	DD	FLAT:??_R2IUIQuad@@8
rdata$r	ENDS
;	COMDAT ??_R0?AVIUIQuad@@@8
_DATA	SEGMENT
??_R0?AVIUIQuad@@@8 DD FLAT:??_7type_info@@6B@		; IUIQuad `RTTI Type Descriptor'
	DD	00H
	DB	'.?AVIUIQuad@@', 00H
_DATA	ENDS
;	COMDAT ??_R1A@?0A@EA@IUIQuad@@8
rdata$r	SEGMENT
??_R1A@?0A@EA@IUIQuad@@8 DD FLAT:??_R0?AVIUIQuad@@@8	; IUIQuad::`RTTI Base Class Descriptor at (0,-1,0,64)'
	DD	00H
	DD	00H
	DD	0ffffffffH
	DD	00H
	DD	040H
	DD	FLAT:??_R3IUIQuad@@8
rdata$r	ENDS
;	COMDAT ??_R1A@?0A@EA@io3DUIQuad@@8
rdata$r	SEGMENT
??_R1A@?0A@EA@io3DUIQuad@@8 DD FLAT:??_R0?AVio3DUIQuad@@@8 ; io3DUIQuad::`RTTI Base Class Descriptor at (0,-1,0,64)'
	DD	01H
	DD	00H
	DD	0ffffffffH
	DD	00H
	DD	040H
	DD	FLAT:??_R3io3DUIQuad@@8
rdata$r	ENDS
;	COMDAT ??_R2io3DUIQuad@@8
rdata$r	SEGMENT
??_R2io3DUIQuad@@8 DD FLAT:??_R1A@?0A@EA@io3DUIQuad@@8	; io3DUIQuad::`RTTI Base Class Array'
	DD	FLAT:??_R1A@?0A@EA@IUIQuad@@8
rdata$r	ENDS
;	COMDAT ??_R3io3DUIQuad@@8
rdata$r	SEGMENT
??_R3io3DUIQuad@@8 DD 00H				; io3DUIQuad::`RTTI Class Hierarchy Descriptor'
	DD	00H
	DD	02H
	DD	FLAT:??_R2io3DUIQuad@@8
rdata$r	ENDS
;	COMDAT ??_R0?AVio3DUIQuad@@@8
_DATA	SEGMENT
??_R0?AVio3DUIQuad@@@8 DD FLAT:??_7type_info@@6B@	; io3DUIQuad `RTTI Type Descriptor'
	DD	00H
	DB	'.?AVio3DUIQuad@@', 00H
_DATA	ENDS
;	COMDAT ??_R4io3DUIQuad@@6B@
rdata$r	SEGMENT
??_R4io3DUIQuad@@6B@ DD 00H				; io3DUIQuad::`RTTI Complete Object Locator'
	DD	00H
	DD	00H
	DD	FLAT:??_R0?AVio3DUIQuad@@@8
	DD	FLAT:??_R3io3DUIQuad@@8
rdata$r	ENDS
;	COMDAT ??_7io3DUIQuad@@6B@
CONST	SEGMENT
??_7io3DUIQuad@@6B@ DD FLAT:??_R4io3DUIQuad@@6B@	; io3DUIQuad::`vftable'
	DD	FLAT:?AddInfo@io3DUIQuad@@UAEXPAVioQuadRenderArray@@@Z
	DD	FLAT:?GetQuadCount@io3DUIQuad@@UBEHXZ
	DD	FLAT:?IsDirectQuad@io3DUIQuad@@UBE_NXZ
	DD	FLAT:?RenderDirect@io3DUIQuad@@UAEXPAVioRenderSystem@@@Z
	DD	FLAT:??_Eio3DUIQuad@@UAEPAXI@Z
; Function compile flags: /Ogsp
CONST	ENDS
;	COMDAT ??1io3DUIQuad@@UAE@XZ
_TEXT	SEGMENT
??1io3DUIQuad@@UAE@XZ PROC				; io3DUIQuad::~io3DUIQuad, COMDAT
; _this$ = ecx

; 86   : 	virtual ~io3DUIQuad(){}

  00000	c7 01 00 00 00
	00		 mov	 DWORD PTR [ecx], OFFSET ??_7io3DUIQuad@@6B@
  00006	ff 25 00 00 00
	00		 jmp	 DWORD PTR __imp_??1IUIQuad@@UAE@XZ
??1io3DUIQuad@@UAE@XZ ENDP				; io3DUIQuad::~io3DUIQuad
_TEXT	ENDS
EXTRN	__imp_?AddDirectQuadInfo@ioQuadRenderArray@@QAEXPAVIUIQuad@@@Z:PROC
; Function compile flags: /Ogsp
;	COMDAT ?AddInfo@io3DUIQuad@@UAEXPAVioQuadRenderArray@@@Z
_TEXT	SEGMENT
_pQuadArray$ = 8					; size = 4
?AddInfo@io3DUIQuad@@UAEXPAVioQuadRenderArray@@@Z PROC	; io3DUIQuad::AddInfo, COMDAT
; _this$ = ecx

; 46   : 	{

  00000	55		 push	 ebp
  00001	8b ec		 mov	 ebp, esp

; 47   : 		pQuadArray->AddDirectQuadInfo( this );

  00003	51		 push	 ecx
  00004	8b 4d 08	 mov	 ecx, DWORD PTR _pQuadArray$[ebp]
  00007	ff 15 00 00 00
	00		 call	 DWORD PTR __imp_?AddDirectQuadInfo@ioQuadRenderArray@@QAEXPAVIUIQuad@@@Z

; 48   : 	}

  0000d	5d		 pop	 ebp
  0000e	c2 04 00	 ret	 4
?AddInfo@io3DUIQuad@@UAEXPAVioQuadRenderArray@@@Z ENDP	; io3DUIQuad::AddInfo
; Function compile flags: /Ogsp
_TEXT	ENDS
;	COMDAT ?GetQuadCount@io3DUIQuad@@UBEHXZ
_TEXT	SEGMENT
?GetQuadCount@io3DUIQuad@@UBEHXZ PROC			; io3DUIQuad::GetQuadCount, COMDAT
; _this$ = ecx

; 52   : 		return 0;

  00000	33 c0		 xor	 eax, eax

; 53   : 	}

  00002	c3		 ret	 0
?GetQuadCount@io3DUIQuad@@UBEHXZ ENDP			; io3DUIQuad::GetQuadCount
; Function compile flags: /Ogsp
_TEXT	ENDS
;	COMDAT ?IsDirectQuad@io3DUIQuad@@UBE_NXZ
_TEXT	SEGMENT
?IsDirectQuad@io3DUIQuad@@UBE_NXZ PROC			; io3DUIQuad::IsDirectQuad, COMDAT
; _this$ = ecx

; 58   : 		return true;

  00000	b0 01		 mov	 al, 1

; 59   : 	}

  00002	c3		 ret	 0
?IsDirectQuad@io3DUIQuad@@UBE_NXZ ENDP			; io3DUIQuad::IsDirectQuad
_TEXT	ENDS
EXTRN	??3@YAXPAX@Z:PROC				; operator delete
; Function compile flags: /Ogsp
;	COMDAT ??_Gio3DUIQuad@@UAEPAXI@Z
_TEXT	SEGMENT
___flags$ = 8						; size = 4
??_Gio3DUIQuad@@UAEPAXI@Z PROC				; io3DUIQuad::`scalar deleting destructor', COMDAT
; _this$ = ecx
  00000	55		 push	 ebp
  00001	8b ec		 mov	 ebp, esp
  00003	56		 push	 esi
  00004	8b f1		 mov	 esi, ecx
  00006	c7 06 00 00 00
	00		 mov	 DWORD PTR [esi], OFFSET ??_7io3DUIQuad@@6B@
  0000c	ff 15 00 00 00
	00		 call	 DWORD PTR __imp_??1IUIQuad@@UAE@XZ
  00012	f6 45 08 01	 test	 BYTE PTR ___flags$[ebp], 1
  00016	74 07		 je	 SHORT $LN1@scalar
  00018	56		 push	 esi
  00019	e8 00 00 00 00	 call	 ??3@YAXPAX@Z		; operator delete
  0001e	59		 pop	 ecx
$LN1@scalar:
  0001f	8b c6		 mov	 eax, esi
  00021	5e		 pop	 esi
  00022	5d		 pop	 ebp
  00023	c2 04 00	 ret	 4
??_Gio3DUIQuad@@UAEPAXI@Z ENDP				; io3DUIQuad::`scalar deleting destructor'
_TEXT	ENDS
PUBLIC	?return1@@YAIXZ					; return1
; Function compile flags: /Ogsp
; File d:\lost saga for developer\youtube\tutorial\source\src\lsclient\stdafx.h
;	COMDAT ?return1@@YAIXZ
_TEXT	SEGMENT
?return1@@YAIXZ PROC					; return1, COMDAT

; 17   : 	__forceinline unsigned int return1() { __asm mov eax, 1 };

  00000	b8 01 00 00 00	 mov	 eax, 1
  00005	c3		 ret	 0
?return1@@YAIXZ ENDP					; return1
_TEXT	ENDS
PUBLIC	??_GioCamera@@QAEPAXI@Z				; ioCamera::`scalar deleting destructor'
EXTRN	__imp_??1ioCamera@@QAE@XZ:PROC
; Function compile flags: /Ogsp
;	COMDAT ??_GioCamera@@QAEPAXI@Z
_TEXT	SEGMENT
___flags$ = 8						; size = 4
??_GioCamera@@QAEPAXI@Z PROC				; ioCamera::`scalar deleting destructor', COMDAT
; _this$ = ecx
  00000	55		 push	 ebp
  00001	8b ec		 mov	 ebp, esp
  00003	56		 push	 esi
  00004	8b f1		 mov	 esi, ecx
  00006	ff 15 00 00 00
	00		 call	 DWORD PTR __imp_??1ioCamera@@QAE@XZ
  0000c	f6 45 08 01	 test	 BYTE PTR ___flags$[ebp], 1
  00010	74 07		 je	 SHORT $LN1@scalar@2
  00012	56		 push	 esi
  00013	e8 00 00 00 00	 call	 ??3@YAXPAX@Z		; operator delete
  00018	59		 pop	 ecx
$LN1@scalar@2:
  00019	8b c6		 mov	 eax, esi
  0001b	5e		 pop	 esi
  0001c	5d		 pop	 ebp
  0001d	c2 04 00	 ret	 4
??_GioCamera@@QAEPAXI@Z ENDP				; ioCamera::`scalar deleting destructor'
_TEXT	ENDS
PUBLIC	??_7bad_alloc@std@@6B@				; std::bad_alloc::`vftable'
PUBLIC	??0bad_alloc@std@@QAE@PBD@Z			; std::bad_alloc::bad_alloc
PUBLIC	??_R4bad_alloc@std@@6B@				; std::bad_alloc::`RTTI Complete Object Locator'
PUBLIC	??_R0?AVbad_alloc@std@@@8			; std::bad_alloc `RTTI Type Descriptor'
PUBLIC	??_R3bad_alloc@std@@8				; std::bad_alloc::`RTTI Class Hierarchy Descriptor'
PUBLIC	??_R2bad_alloc@std@@8				; std::bad_alloc::`RTTI Base Class Array'
PUBLIC	??_R1A@?0A@EA@bad_alloc@std@@8			; std::bad_alloc::`RTTI Base Class Descriptor at (0,-1,0,64)'
PUBLIC	??_R1A@?0A@EA@exception@std@@8			; std::exception::`RTTI Base Class Descriptor at (0,-1,0,64)'
PUBLIC	??_R0?AVexception@std@@@8			; std::exception `RTTI Type Descriptor'
PUBLIC	??_R3exception@std@@8				; std::exception::`RTTI Class Hierarchy Descriptor'
PUBLIC	??_R2exception@std@@8				; std::exception::`RTTI Base Class Array'
EXTRN	__imp_??0exception@std@@QAE@ABQBD@Z:PROC
EXTRN	??_Ebad_alloc@std@@UAEPAXI@Z:PROC		; std::bad_alloc::`vector deleting destructor'
EXTRN	?what@exception@std@@UBEPBDXZ:PROC		; std::exception::what
;	COMDAT ??_R2exception@std@@8
; File c:\program files (x86)\microsoft visual studio 10.0\vc\include\exception
rdata$r	SEGMENT
??_R2exception@std@@8 DD FLAT:??_R1A@?0A@EA@exception@std@@8 ; std::exception::`RTTI Base Class Array'
rdata$r	ENDS
;	COMDAT ??_R3exception@std@@8
rdata$r	SEGMENT
??_R3exception@std@@8 DD 00H				; std::exception::`RTTI Class Hierarchy Descriptor'
	DD	00H
	DD	01H
	DD	FLAT:??_R2exception@std@@8
rdata$r	ENDS
;	COMDAT ??_R0?AVexception@std@@@8
_DATA	SEGMENT
??_R0?AVexception@std@@@8 DD FLAT:??_7type_info@@6B@	; std::exception `RTTI Type Descriptor'
	DD	00H
	DB	'.?AVexception@std@@', 00H
_DATA	ENDS
;	COMDAT ??_R1A@?0A@EA@exception@std@@8
rdata$r	SEGMENT
??_R1A@?0A@EA@exception@std@@8 DD FLAT:??_R0?AVexception@std@@@8 ; std::exception::`RTTI Base Class Descriptor at (0,-1,0,64)'
	DD	00H
	DD	00H
	DD	0ffffffffH
	DD	00H
	DD	040H
	DD	FLAT:??_R3exception@std@@8
rdata$r	ENDS
;	COMDAT ??_R1A@?0A@EA@bad_alloc@std@@8
rdata$r	SEGMENT
??_R1A@?0A@EA@bad_alloc@std@@8 DD FLAT:??_R0?AVbad_alloc@std@@@8 ; std::bad_alloc::`RTTI Base Class Descriptor at (0,-1,0,64)'
	DD	01H
	DD	00H
	DD	0ffffffffH
	DD	00H
	DD	040H
	DD	FLAT:??_R3bad_alloc@std@@8
rdata$r	ENDS
;	COMDAT ??_R2bad_alloc@std@@8
rdata$r	SEGMENT
??_R2bad_alloc@std@@8 DD FLAT:??_R1A@?0A@EA@bad_alloc@std@@8 ; std::bad_alloc::`RTTI Base Class Array'
	DD	FLAT:??_R1A@?0A@EA@exception@std@@8
rdata$r	ENDS
;	COMDAT ??_R3bad_alloc@std@@8
rdata$r	SEGMENT
??_R3bad_alloc@std@@8 DD 00H				; std::bad_alloc::`RTTI Class Hierarchy Descriptor'
	DD	00H
	DD	02H
	DD	FLAT:??_R2bad_alloc@std@@8
rdata$r	ENDS
;	COMDAT ??_R0?AVbad_alloc@std@@@8
_DATA	SEGMENT
??_R0?AVbad_alloc@std@@@8 DD FLAT:??_7type_info@@6B@	; std::bad_alloc `RTTI Type Descriptor'
	DD	00H
	DB	'.?AVbad_alloc@std@@', 00H
_DATA	ENDS
;	COMDAT ??_R4bad_alloc@std@@6B@
rdata$r	SEGMENT
??_R4bad_alloc@std@@6B@ DD 00H				; std::bad_alloc::`RTTI Complete Object Locator'
	DD	00H
	DD	00H
	DD	FLAT:??_R0?AVbad_alloc@std@@@8
	DD	FLAT:??_R3bad_alloc@std@@8
rdata$r	ENDS
;	COMDAT ??_7bad_alloc@std@@6B@
CONST	SEGMENT
??_7bad_alloc@std@@6B@ DD FLAT:??_R4bad_alloc@std@@6B@	; std::bad_alloc::`vftable'
	DD	FLAT:??_Ebad_alloc@std@@UAEPAXI@Z
	DD	FLAT:?what@exception@std@@UBEPBDXZ
; Function compile flags: /Ogsp
CONST	ENDS
;	COMDAT ??0bad_alloc@std@@QAE@PBD@Z
_TEXT	SEGMENT
__Message$ = 8						; size = 4
??0bad_alloc@std@@QAE@PBD@Z PROC			; std::bad_alloc::bad_alloc, COMDAT
; _this$ = ecx

; 345  : 		{	// construct from message string

  00000	55		 push	 ebp
  00001	8b ec		 mov	 ebp, esp
  00003	56		 push	 esi
  00004	8d 45 08	 lea	 eax, DWORD PTR __Message$[ebp]
  00007	50		 push	 eax
  00008	8b f1		 mov	 esi, ecx
  0000a	ff 15 00 00 00
	00		 call	 DWORD PTR __imp_??0exception@std@@QAE@ABQBD@Z
  00010	c7 06 00 00 00
	00		 mov	 DWORD PTR [esi], OFFSET ??_7bad_alloc@std@@6B@

; 346  : 		}

  00016	8b c6		 mov	 eax, esi
  00018	5e		 pop	 esi
  00019	5d		 pop	 ebp
  0001a	c2 04 00	 ret	 4
??0bad_alloc@std@@QAE@PBD@Z ENDP			; std::bad_alloc::bad_alloc
_TEXT	ENDS
PUBLIC	??1bad_alloc@std@@UAE@XZ			; std::bad_alloc::~bad_alloc
EXTRN	__imp_??1exception@std@@UAE@XZ:PROC
; Function compile flags: /Ogsp
;	COMDAT ??1bad_alloc@std@@UAE@XZ
_TEXT	SEGMENT
??1bad_alloc@std@@UAE@XZ PROC				; std::bad_alloc::~bad_alloc, COMDAT
; _this$ = ecx

; 354  : 		{	// destroy the object

  00000	c7 01 00 00 00
	00		 mov	 DWORD PTR [ecx], OFFSET ??_7bad_alloc@std@@6B@

; 355  : 		}

  00006	ff 25 00 00 00
	00		 jmp	 DWORD PTR __imp_??1exception@std@@UAE@XZ
??1bad_alloc@std@@UAE@XZ ENDP				; std::bad_alloc::~bad_alloc
; Function compile flags: /Ogsp
_TEXT	ENDS
;	COMDAT ??_Gbad_alloc@std@@UAEPAXI@Z
_TEXT	SEGMENT
___flags$ = 8						; size = 4
??_Gbad_alloc@std@@UAEPAXI@Z PROC			; std::bad_alloc::`scalar deleting destructor', COMDAT
; _this$ = ecx
  00000	55		 push	 ebp
  00001	8b ec		 mov	 ebp, esp
  00003	56		 push	 esi
  00004	8b f1		 mov	 esi, ecx
  00006	c7 06 00 00 00
	00		 mov	 DWORD PTR [esi], OFFSET ??_7bad_alloc@std@@6B@
  0000c	ff 15 00 00 00
	00		 call	 DWORD PTR __imp_??1exception@std@@UAE@XZ
  00012	f6 45 08 01	 test	 BYTE PTR ___flags$[ebp], 1
  00016	74 07		 je	 SHORT $LN1@scalar@3
  00018	56		 push	 esi
  00019	e8 00 00 00 00	 call	 ??3@YAXPAX@Z		; operator delete
  0001e	59		 pop	 ecx
$LN1@scalar@3:
  0001f	8b c6		 mov	 eax, esi
  00021	5e		 pop	 esi
  00022	5d		 pop	 ebp
  00023	c2 04 00	 ret	 4
??_Gbad_alloc@std@@UAEPAXI@Z ENDP			; std::bad_alloc::`scalar deleting destructor'
_TEXT	ENDS
PUBLIC	?SetProjection@ioUI3DRender@@QAEXMMMM@Z		; ioUI3DRender::SetProjection
EXTRN	__imp_?SetProjection@ioCamera@@QAEXMMMM@Z:PROC
EXTRN	__fltused:DWORD
; Function compile flags: /Ogsp
; File d:\lost saga for developer\youtube\tutorial\source\src\lsclient\gui\ioui3drender.cpp
;	COMDAT ?SetProjection@ioUI3DRender@@QAEXMMMM@Z
_TEXT	SEGMENT
_fNear$ = 8						; size = 4
_fFar$ = 12						; size = 4
_fFov$ = 16						; size = 4
_fAspect$ = 20						; size = 4
?SetProjection@ioUI3DRender@@QAEXMMMM@Z PROC		; ioUI3DRender::SetProjection, COMDAT
; _this$ = ecx

; 391  : {

  00000	55		 push	 ebp
  00001	8b ec		 mov	 ebp, esp

; 392  : 	if( m_pCamera )

  00003	8b 49 08	 mov	 ecx, DWORD PTR [ecx+8]
  00006	85 c9		 test	 ecx, ecx
  00008	74 34		 je	 SHORT $LN1@SetProject

; 393  : 	{
; 394  : 		m_pCamera->SetProjection( fNear, fFar, fFov, fAspect );

  0000a	f3 0f 10 45 14	 movss	 xmm0, DWORD PTR _fAspect$[ebp]
  0000f	83 ec 10	 sub	 esp, 16			; 00000010H
  00012	f3 0f 11 44 24
	0c		 movss	 DWORD PTR [esp+12], xmm0
  00018	f3 0f 10 45 10	 movss	 xmm0, DWORD PTR _fFov$[ebp]
  0001d	f3 0f 11 44 24
	08		 movss	 DWORD PTR [esp+8], xmm0
  00023	f3 0f 10 45 0c	 movss	 xmm0, DWORD PTR _fFar$[ebp]
  00028	f3 0f 11 44 24
	04		 movss	 DWORD PTR [esp+4], xmm0
  0002e	f3 0f 10 45 08	 movss	 xmm0, DWORD PTR _fNear$[ebp]
  00033	f3 0f 11 04 24	 movss	 DWORD PTR [esp], xmm0
  00038	ff 15 00 00 00
	00		 call	 DWORD PTR __imp_?SetProjection@ioCamera@@QAEXMMMM@Z
$LN1@SetProject:

; 395  : 	}
; 396  : }

  0003e	5d		 pop	 ebp
  0003f	c2 10 00	 ret	 16			; 00000010H
?SetProjection@ioUI3DRender@@QAEXMMMM@Z ENDP		; ioUI3DRender::SetProjection
_TEXT	ENDS
PUBLIC	__$ArrayPad$
PUBLIC	?ApplyUIAmbient@ioUI3DRender@@QAEXXZ		; ioUI3DRender::ApplyUIAmbient
EXTRN	__imp_?SetSceneAmbient@ioSceneManager@@QAEXMMM@Z:PROC
EXTRN	__imp_?GetSceneAmbient@ioSceneManager@@QBE?AU_D3DCOLORVALUE@@XZ:PROC
EXTRN	___security_cookie:DWORD
EXTRN	@__security_check_cookie@4:PROC
; Function compile flags: /Ogsp
;	COMDAT ?ApplyUIAmbient@ioUI3DRender@@QAEXXZ
_TEXT	SEGMENT
$T506423 = -20						; size = 16
__$ArrayPad$ = -4					; size = 4
?ApplyUIAmbient@ioUI3DRender@@QAEXXZ PROC		; ioUI3DRender::ApplyUIAmbient, COMDAT
; _this$ = ecx

; 411  : {

  00000	55		 push	 ebp
  00001	8b ec		 mov	 ebp, esp
  00003	83 ec 14	 sub	 esp, 20			; 00000014H
  00006	a1 00 00 00 00	 mov	 eax, DWORD PTR ___security_cookie
  0000b	33 c5		 xor	 eax, ebp
  0000d	89 45 fc	 mov	 DWORD PTR __$ArrayPad$[ebp], eax
  00010	53		 push	 ebx
  00011	8b d9		 mov	 ebx, ecx

; 412  : 	if( m_pSceneMgr )

  00013	8b 4b 04	 mov	 ecx, DWORD PTR [ebx+4]
  00016	85 c9		 test	 ecx, ecx
  00018	74 43		 je	 SHORT $LN1@ApplyUIAmb

; 413  : 	{
; 414  : 		m_BackUpAmbient = m_pSceneMgr->GetSceneAmbient();

  0001a	56		 push	 esi
  0001b	57		 push	 edi
  0001c	8d 45 ec	 lea	 eax, DWORD PTR $T506423[ebp]
  0001f	50		 push	 eax
  00020	ff 15 00 00 00
	00		 call	 DWORD PTR __imp_?GetSceneAmbient@ioSceneManager@@QBE?AU_D3DCOLORVALUE@@XZ

; 415  : 		m_pSceneMgr->SetSceneAmbient( m_UISceneAmbient.r, m_UISceneAmbient.g, m_UISceneAmbient.b );

  00026	f3 0f 10 43 14	 movss	 xmm0, DWORD PTR [ebx+20]
  0002b	8b 4b 04	 mov	 ecx, DWORD PTR [ebx+4]
  0002e	8b f0		 mov	 esi, eax
  00030	8d 7b 1c	 lea	 edi, DWORD PTR [ebx+28]
  00033	a5		 movsd
  00034	a5		 movsd
  00035	83 ec 0c	 sub	 esp, 12			; 0000000cH
  00038	f3 0f 11 44 24
	08		 movss	 DWORD PTR [esp+8], xmm0
  0003e	f3 0f 10 43 10	 movss	 xmm0, DWORD PTR [ebx+16]
  00043	a5		 movsd
  00044	f3 0f 11 44 24
	04		 movss	 DWORD PTR [esp+4], xmm0
  0004a	f3 0f 10 43 0c	 movss	 xmm0, DWORD PTR [ebx+12]
  0004f	a5		 movsd
  00050	f3 0f 11 04 24	 movss	 DWORD PTR [esp], xmm0
  00055	ff 15 00 00 00
	00		 call	 DWORD PTR __imp_?SetSceneAmbient@ioSceneManager@@QAEXMMM@Z
  0005b	5f		 pop	 edi
  0005c	5e		 pop	 esi
$LN1@ApplyUIAmb:

; 416  : 	}
; 417  : }

  0005d	8b 4d fc	 mov	 ecx, DWORD PTR __$ArrayPad$[ebp]
  00060	33 cd		 xor	 ecx, ebp
  00062	5b		 pop	 ebx
  00063	e8 00 00 00 00	 call	 @__security_check_cookie@4
  00068	c9		 leave
  00069	c3		 ret	 0
?ApplyUIAmbient@ioUI3DRender@@QAEXXZ ENDP		; ioUI3DRender::ApplyUIAmbient
_TEXT	ENDS
PUBLIC	?RestoreAmbient@ioUI3DRender@@QAEXXZ		; ioUI3DRender::RestoreAmbient
; Function compile flags: /Ogsp
;	COMDAT ?RestoreAmbient@ioUI3DRender@@QAEXXZ
_TEXT	SEGMENT
?RestoreAmbient@ioUI3DRender@@QAEXXZ PROC		; ioUI3DRender::RestoreAmbient, COMDAT
; _this$ = ecx

; 420  : {

  00000	8b c1		 mov	 eax, ecx

; 421  : 	if( m_pSceneMgr )

  00002	8b 48 04	 mov	 ecx, DWORD PTR [eax+4]
  00005	85 c9		 test	 ecx, ecx
  00007	74 29		 je	 SHORT $LN1@RestoreAmb

; 422  : 	{
; 423  : 		m_pSceneMgr->SetSceneAmbient( m_BackUpAmbient.r, m_BackUpAmbient.g, m_BackUpAmbient.b );

  00009	f3 0f 10 40 24	 movss	 xmm0, DWORD PTR [eax+36]
  0000e	83 ec 0c	 sub	 esp, 12			; 0000000cH
  00011	f3 0f 11 44 24
	08		 movss	 DWORD PTR [esp+8], xmm0
  00017	f3 0f 10 40 20	 movss	 xmm0, DWORD PTR [eax+32]
  0001c	f3 0f 11 44 24
	04		 movss	 DWORD PTR [esp+4], xmm0
  00022	f3 0f 10 40 1c	 movss	 xmm0, DWORD PTR [eax+28]
  00027	f3 0f 11 04 24	 movss	 DWORD PTR [esp], xmm0
  0002c	ff 15 00 00 00
	00		 call	 DWORD PTR __imp_?SetSceneAmbient@ioSceneManager@@QAEXMMM@Z
$LN1@RestoreAmb:

; 424  : 	}
; 425  : }

  00032	c3		 ret	 0
?RestoreAmbient@ioUI3DRender@@QAEXXZ ENDP		; ioUI3DRender::RestoreAmbient
_TEXT	ENDS
PUBLIC	??2@YAPAXIPAX@Z					; operator new
; Function compile flags: /Ogsp
; File c:\program files (x86)\microsoft visual studio 10.0\vc\include\new
;	COMDAT ??2@YAPAXIPAX@Z
_TEXT	SEGMENT
___formal$ = 8						; size = 4
__Where$ = 12						; size = 4
??2@YAPAXIPAX@Z PROC					; operator new, COMDAT

; 56   : 	{	// construct array with placement at _Where

  00000	55		 push	 ebp
  00001	8b ec		 mov	 ebp, esp

; 57   : 	return (_Where);

  00003	8b 45 0c	 mov	 eax, DWORD PTR __Where$[ebp]

; 58   : 	}

  00006	5d		 pop	 ebp
  00007	c3		 ret	 0
??2@YAPAXIPAX@Z ENDP					; operator new
_TEXT	ENDS
PUBLIC	??3@YAXPAX0@Z					; operator delete
; Function compile flags: /Ogsp
;	COMDAT ??3@YAXPAX0@Z
_TEXT	SEGMENT
___formal$ = 8						; size = 4
___formal$ = 12						; size = 4
??3@YAXPAX0@Z PROC					; operator delete, COMDAT

; 62   : 	}

  00000	c3		 ret	 0
??3@YAXPAX0@Z ENDP					; operator delete
_TEXT	ENDS
PUBLIC	?_Adopt@_Iterator_base0@std@@QAEXPBX@Z		; std::_Iterator_base0::_Adopt
; Function compile flags: /Ogsp
; File c:\program files (x86)\microsoft visual studio 10.0\vc\include\xutility
;	COMDAT ?_Adopt@_Iterator_base0@std@@QAEXPBX@Z
_TEXT	SEGMENT
___formal$ = 8						; size = 4
?_Adopt@_Iterator_base0@std@@QAEXPBX@Z PROC		; std::_Iterator_base0::_Adopt, COMDAT
; _this$ = ecx

; 49   : 		}

  00000	c2 04 00	 ret	 4
?_Adopt@_Iterator_base0@std@@QAEXPBX@Z ENDP		; std::_Iterator_base0::_Adopt
_TEXT	ENDS
PUBLIC	?DestroyEffect@ioUI3DRender@@IAEXPAVioEffect@@@Z ; ioUI3DRender::DestroyEffect
EXTRN	__imp_?DestroyEffect@ioEffectFactory@@QAEXPAVioEffect@@@Z:PROC
EXTRN	__imp_?GetSingleton@ioEffectFactory@@SAAAV1@XZ:PROC
EXTRN	__imp_?GetUniqueID@ioNode@@QBEKXZ:PROC
; Function compile flags: /Ogsp
; File d:\lost saga for developer\youtube\tutorial\source\src\lsclient\gui\ioui3drender.cpp
;	COMDAT ?DestroyEffect@ioUI3DRender@@IAEXPAVioEffect@@@Z
_TEXT	SEGMENT
_pEffect$ = 8						; size = 4
?DestroyEffect@ioUI3DRender@@IAEXPAVioEffect@@@Z PROC	; ioUI3DRender::DestroyEffect, COMDAT
; _this$ = ecx

; 592  : {

  00000	55		 push	 ebp
  00001	8b ec		 mov	 ebp, esp
  00003	53		 push	 ebx
  00004	8b d9		 mov	 ebx, ecx

; 593  : 	if( !pEffect )	return;

  00006	8b 4d 08	 mov	 ecx, DWORD PTR _pEffect$[ebp]
  00009	85 c9		 test	 ecx, ecx
  0000b	74 41		 je	 SHORT $LN3@DestroyEff

; 594  : 
; 595  : 	ioSceneNode *pScene = pEffect->GetParentSceneNode();

  0000d	83 c1 14	 add	 ecx, 20			; 00000014H
  00010	8b 01		 mov	 eax, DWORD PTR [ecx]
  00012	56		 push	 esi
  00013	ff 50 34	 call	 DWORD PTR [eax+52]
  00016	8b f0		 mov	 esi, eax

; 596  : 	if( pScene )

  00018	85 f6		 test	 esi, esi
  0001a	74 20		 je	 SHORT $LN1@DestroyEff

; 597  : 	{
; 598  : 		pScene->RemoveAndDestroyAllChildren();

  0001c	8b 06		 mov	 eax, DWORD PTR [esi]
  0001e	57		 push	 edi
  0001f	8b ce		 mov	 ecx, esi
  00021	ff 90 d0 00 00
	00		 call	 DWORD PTR [eax+208]

; 599  : 		m_pSceneMgr->DestroySceneNode( pScene->GetUniqueID() );

  00027	8b 43 04	 mov	 eax, DWORD PTR [ebx+4]
  0002a	8b 38		 mov	 edi, DWORD PTR [eax]
  0002c	8b ce		 mov	 ecx, esi
  0002e	ff 15 00 00 00
	00		 call	 DWORD PTR __imp_?GetUniqueID@ioNode@@QBEKXZ
  00034	8b 4b 04	 mov	 ecx, DWORD PTR [ebx+4]
  00037	50		 push	 eax
  00038	ff 57 24	 call	 DWORD PTR [edi+36]
  0003b	5f		 pop	 edi
$LN1@DestroyEff:

; 600  : 	}
; 601  : 
; 602  : 	g_EffectFactory.DestroyEffect( pEffect );

  0003c	ff 75 08	 push	 DWORD PTR _pEffect$[ebp]
  0003f	ff 15 00 00 00
	00		 call	 DWORD PTR __imp_?GetSingleton@ioEffectFactory@@SAAAV1@XZ
  00045	8b c8		 mov	 ecx, eax
  00047	ff 15 00 00 00
	00		 call	 DWORD PTR __imp_?DestroyEffect@ioEffectFactory@@QAEXPAVioEffect@@@Z
  0004d	5e		 pop	 esi
$LN3@DestroyEff:
  0004e	5b		 pop	 ebx

; 603  : }

  0004f	5d		 pop	 ebp
  00050	c2 04 00	 ret	 4
?DestroyEffect@ioUI3DRender@@IAEXPAVioEffect@@@Z ENDP	; ioUI3DRender::DestroyEffect
_TEXT	ENDS
PUBLIC	?GetCurPickRay@ioUI3DRender@@QBEABVioRay@@XZ	; ioUI3DRender::GetCurPickRay
EXTRN	__imp_?GetCurCameraPickRay@ioSceneManager@@QBEABVioRay@@XZ:PROC
; Function compile flags: /Ogsp
;	COMDAT ?GetCurPickRay@ioUI3DRender@@QBEABVioRay@@XZ
_TEXT	SEGMENT
?GetCurPickRay@ioUI3DRender@@QBEABVioRay@@XZ PROC	; ioUI3DRender::GetCurPickRay, COMDAT
; _this$ = ecx

; 621  : 	return m_pSceneMgr->GetCurCameraPickRay();

  00000	8b 49 04	 mov	 ecx, DWORD PTR [ecx+4]
  00003	ff 25 00 00 00
	00		 jmp	 DWORD PTR __imp_?GetCurCameraPickRay@ioSceneManager@@QBEABVioRay@@XZ
?GetCurPickRay@ioUI3DRender@@QBEABVioRay@@XZ ENDP	; ioUI3DRender::GetCurPickRay
_TEXT	ENDS
PUBLIC	??_C@_0CH@ICGGOCPM@ioUI3DRender?3?3LoadPet?5?9?5CreatePe@ ; `string'
PUBLIC	??_C@_0DC@DOHLPPMM@ioUI3DRender?3?3LoadPet?5?9?5CreateCh@ ; `string'
PUBLIC	??_C@_0CN@OFLKKOGG@ioUI3DRender?3?3LoadPet?5?9?5CreateEn@ ; `string'
PUBLIC	?CreatePet@ioUI3DRender@@QAEPAVioPetView@@ABVioHashString@@_N@Z ; ioUI3DRender::CreatePet
EXTRN	__imp_?SetAniEventHandler@ioEntityGroup@@QAE_NPAVioAniEventHandler@@@Z:PROC
EXTRN	?SetCreatePet@ioUIPetAniEventHandler@@QAEXPAVioPetView@@@Z:PROC ; ioUIPetAniEventHandler::SetCreatePet
EXTRN	??0ioUIPetAniEventHandler@@QAE@XZ:PROC		; ioUIPetAniEventHandler::ioUIPetAniEventHandler
EXTRN	??0ioPetView@@QAE@PAVioEntityGroup@@@Z:PROC	; ioPetView::ioPetView
EXTRN	??2@YAPAXI@Z:PROC				; operator new
EXTRN	__imp_?LoadGroup@ioEntityGroup@@QAE_NPBD_N@Z:PROC
EXTRN	__imp_?c_str@ioHashString@@QBEPBDXZ:PROC
EXTRN	__imp_?PrintTimeAndLog@CLog@@QAAXHPADZZ:PROC
EXTRN	__imp_?LOG@@3VCLog@@A:BYTE
EXTRN	___CxxFrameHandler3:PROC
EXTRN	__EH_epilog3:PROC
EXTRN	__EH_prolog3:PROC
;	COMDAT ??_C@_0CH@ICGGOCPM@ioUI3DRender?3?3LoadPet?5?9?5CreatePe@
CONST	SEGMENT
??_C@_0CH@ICGGOCPM@ioUI3DRender?3?3LoadPet?5?9?5CreatePe@ DB 'ioUI3DRende'
	DB	'r::LoadPet - CreatePet NULL', 00H		; `string'
CONST	ENDS
;	COMDAT ??_C@_0DC@DOHLPPMM@ioUI3DRender?3?3LoadPet?5?9?5CreateCh@
CONST	SEGMENT
??_C@_0DC@DOHLPPMM@ioUI3DRender?3?3LoadPet?5?9?5CreateCh@ DB 'ioUI3DRende'
	DB	'r::LoadPet - CreateChildSceneNode Fail', 00H ; `string'
CONST	ENDS
;	COMDAT ??_C@_0CN@OFLKKOGG@ioUI3DRender?3?3LoadPet?5?9?5CreateEn@
CONST	SEGMENT
??_C@_0CN@OFLKKOGG@ioUI3DRender?3?3LoadPet?5?9?5CreateEn@ DB 'ioUI3DRende'
	DB	'r::LoadPet - CreateEntityGrp Fail', 00H	; `string'
CONST	ENDS
;	COMDAT xdata$x
xdata$x	SEGMENT
__unwindtable$?CreatePet@ioUI3DRender@@QAEPAVioPetView@@ABVioHashString@@_N@Z DD 0ffffffffH
	DD	FLAT:__unwindfunclet$?CreatePet@ioUI3DRender@@QAEPAVioPetView@@ABVioHashString@@_N@Z$0
	DD	0ffffffffH
	DD	FLAT:__unwindfunclet$?CreatePet@ioUI3DRender@@QAEPAVioPetView@@ABVioHashString@@_N@Z$1
__ehfuncinfo$?CreatePet@ioUI3DRender@@QAEPAVioPetView@@ABVioHashString@@_N@Z DD 019930522H
	DD	02H
	DD	FLAT:__unwindtable$?CreatePet@ioUI3DRender@@QAEPAVioPetView@@ABVioHashString@@_N@Z
	DD	2 DUP(00H)
	DD	2 DUP(00H)
	DD	00H
	DD	01H
; Function compile flags: /Ogsp
xdata$x	ENDS
;	COMDAT ?CreatePet@ioUI3DRender@@QAEPAVioPetView@@ABVioHashString@@_N@Z
_TEXT	SEGMENT
__$EHRec$ = -12						; size = 12
$T510996 = 8						; size = 4
$T510992 = 8						; size = 4
_rkName$ = 8						; size = 4
_bThread$ = 12						; size = 1
?CreatePet@ioUI3DRender@@QAEPAVioPetView@@ABVioHashString@@_N@Z PROC ; ioUI3DRender::CreatePet, COMDAT
; _this$ = ecx

; 826  : {

  00000	6a 00		 push	 0
  00002	b8 00 00 00 00	 mov	 eax, __ehhandler$?CreatePet@ioUI3DRender@@QAEPAVioPetView@@ABVioHashString@@_N@Z
  00007	e8 00 00 00 00	 call	 __EH_prolog3
  0000c	8b f1		 mov	 esi, ecx

; 827  : 	ioEntityGroup *pGrp = m_pSceneMgr->CreateEntityGrp();

  0000e	8b 4e 04	 mov	 ecx, DWORD PTR [esi+4]
  00011	8b 01		 mov	 eax, DWORD PTR [ecx]
  00013	ff 50 30	 call	 DWORD PTR [eax+48]
  00016	8b d8		 mov	 ebx, eax

; 828  : 	if( !pGrp )

  00018	33 ff		 xor	 edi, edi
  0001a	3b df		 cmp	 ebx, edi
  0001c	75 1c		 jne	 SHORT $LN3@CreatePet

; 829  : 	{
; 830  : 		LOG.PrintTimeAndLog( 0, "ioUI3DRender::LoadPet - CreateEntityGrp Fail" );

  0001e	68 00 00 00 00	 push	 OFFSET ??_C@_0CN@OFLKKOGG@ioUI3DRender?3?3LoadPet?5?9?5CreateEn@
$LN13@CreatePet:
  00023	57		 push	 edi
$LN14@CreatePet:
  00024	ff 35 00 00 00
	00		 push	 DWORD PTR __imp_?LOG@@3VCLog@@A
  0002a	ff 15 00 00 00
	00		 call	 DWORD PTR __imp_?PrintTimeAndLog@CLog@@QAAXHPADZZ
  00030	83 c4 0c	 add	 esp, 12			; 0000000cH

; 831  : 		return NULL;

  00033	33 c0		 xor	 eax, eax
  00035	e9 a0 00 00 00	 jmp	 $LN4@CreatePet
$LN3@CreatePet:

; 832  : 	}
; 833  : 
; 834  : 	ioSceneNode *pSNode = m_pSceneMgr->GetRootSceneNode()->CreateChildSceneNode();

  0003a	8b 4e 04	 mov	 ecx, DWORD PTR [esi+4]
  0003d	8b 01		 mov	 eax, DWORD PTR [ecx]
  0003f	ff 50 28	 call	 DWORD PTR [eax+40]
  00042	8b 10		 mov	 edx, DWORD PTR [eax]
  00044	8b c8		 mov	 ecx, eax
  00046	ff 92 c4 00 00
	00		 call	 DWORD PTR [edx+196]

; 835  : 	if( !pSNode )

  0004c	3b c7		 cmp	 eax, edi
  0004e	75 07		 jne	 SHORT $LN2@CreatePet

; 836  : 	{
; 837  : 		LOG.PrintTimeAndLog( 0, "ioUI3DRender::LoadPet - CreateChildSceneNode Fail" );

  00050	68 00 00 00 00	 push	 OFFSET ??_C@_0DC@DOHLPPMM@ioUI3DRender?3?3LoadPet?5?9?5CreateCh@

; 838  : 		return NULL;

  00055	eb cc		 jmp	 SHORT $LN13@CreatePet
$LN2@CreatePet:

; 839  : 	}
; 840  : 
; 841  : 	pSNode->AttachObject( pGrp );

  00057	8b 10		 mov	 edx, DWORD PTR [eax]
  00059	53		 push	 ebx
  0005a	8b c8		 mov	 ecx, eax
  0005c	ff 92 ac 00 00
	00		 call	 DWORD PTR [edx+172]

; 842  : 	
; 843  : 	pGrp->LoadGroup( rkName.c_str(), true );

  00062	8b 4d 08	 mov	 ecx, DWORD PTR _rkName$[ebp]
  00065	33 f6		 xor	 esi, esi
  00067	46		 inc	 esi
  00068	56		 push	 esi
  00069	ff 15 00 00 00
	00		 call	 DWORD PTR __imp_?c_str@ioHashString@@QBEPBDXZ
  0006f	50		 push	 eax
  00070	8b cb		 mov	 ecx, ebx
  00072	ff 15 00 00 00
	00		 call	 DWORD PTR __imp_?LoadGroup@ioEntityGroup@@QAE_NPBD_N@Z

; 844  : 	ioPetView *pNewPet = new ioPetView( pGrp );

  00078	6a 08		 push	 8
  0007a	e8 00 00 00 00	 call	 ??2@YAPAXI@Z		; operator new
  0007f	59		 pop	 ecx
  00080	8b c8		 mov	 ecx, eax
  00082	89 4d 08	 mov	 DWORD PTR $T510992[ebp], ecx
  00085	89 7d fc	 mov	 DWORD PTR __$EHRec$[ebp+8], edi
  00088	3b cf		 cmp	 ecx, edi
  0008a	74 08		 je	 SHORT $LN6@CreatePet
  0008c	53		 push	 ebx
  0008d	e8 00 00 00 00	 call	 ??0ioPetView@@QAE@PAVioEntityGroup@@@Z ; ioPetView::ioPetView
  00092	8b f8		 mov	 edi, eax
$LN6@CreatePet:
  00094	83 4d fc ff	 or	 DWORD PTR __$EHRec$[ebp+8], -1

; 845  : 	if( !pNewPet )

  00098	85 ff		 test	 edi, edi
  0009a	75 08		 jne	 SHORT $LN1@CreatePet

; 846  : 	{
; 847  : 		LOG.PrintTimeAndLog( 0, "ioUI3DRender::LoadPet - CreatePet NULL" );

  0009c	68 00 00 00 00	 push	 OFFSET ??_C@_0CH@ICGGOCPM@ioUI3DRender?3?3LoadPet?5?9?5CreatePe@
  000a1	57		 push	 edi

; 848  : 		return NULL;

  000a2	eb 80		 jmp	 SHORT $LN14@CreatePet
$LN1@CreatePet:

; 849  : 	}
; 850  : 
; 851  : 	ioUIPetAniEventHandler *pHandler = new ioUIPetAniEventHandler;

  000a4	6a 4c		 push	 76			; 0000004cH
  000a6	e8 00 00 00 00	 call	 ??2@YAPAXI@Z		; operator new
  000ab	59		 pop	 ecx
  000ac	8b c8		 mov	 ecx, eax
  000ae	89 4d 08	 mov	 DWORD PTR $T510996[ebp], ecx
  000b1	89 75 fc	 mov	 DWORD PTR __$EHRec$[ebp+8], esi
  000b4	85 c9		 test	 ecx, ecx
  000b6	74 09		 je	 SHORT $LN8@CreatePet
  000b8	e8 00 00 00 00	 call	 ??0ioUIPetAniEventHandler@@QAE@XZ ; ioUIPetAniEventHandler::ioUIPetAniEventHandler
  000bd	8b f0		 mov	 esi, eax
  000bf	eb 02		 jmp	 SHORT $LN9@CreatePet
$LN8@CreatePet:
  000c1	33 f6		 xor	 esi, esi
$LN9@CreatePet:
  000c3	83 4d fc ff	 or	 DWORD PTR __$EHRec$[ebp+8], -1

; 852  : 	pHandler->SetCreatePet( pNewPet );

  000c7	57		 push	 edi
  000c8	8b ce		 mov	 ecx, esi
  000ca	e8 00 00 00 00	 call	 ?SetCreatePet@ioUIPetAniEventHandler@@QAEXPAVioPetView@@@Z ; ioUIPetAniEventHandler::SetCreatePet

; 853  : 	pGrp->SetAniEventHandler( pHandler );

  000cf	56		 push	 esi
  000d0	8b cb		 mov	 ecx, ebx
  000d2	ff 15 00 00 00
	00		 call	 DWORD PTR __imp_?SetAniEventHandler@ioEntityGroup@@QAE_NPAVioAniEventHandler@@@Z

; 854  : 
; 855  : 	return pNewPet;

  000d8	8b c7		 mov	 eax, edi
$LN4@CreatePet:

; 856  : }

  000da	e8 00 00 00 00	 call	 __EH_epilog3
  000df	c2 08 00	 ret	 8
_TEXT	ENDS
;	COMDAT text$x
text$x	SEGMENT
__unwindfunclet$?CreatePet@ioUI3DRender@@QAEPAVioPetView@@ABVioHashString@@_N@Z$0:
  00000	ff 75 08	 push	 DWORD PTR $T510992[ebp]
  00003	e8 00 00 00 00	 call	 ??3@YAXPAX@Z		; operator delete
  00008	59		 pop	 ecx
  00009	c3		 ret	 0
__unwindfunclet$?CreatePet@ioUI3DRender@@QAEPAVioPetView@@ABVioHashString@@_N@Z$1:
  0000a	ff 75 08	 push	 DWORD PTR $T510996[ebp]
  0000d	e8 00 00 00 00	 call	 ??3@YAXPAX@Z		; operator delete
  00012	59		 pop	 ecx
  00013	c3		 ret	 0
__ehhandler$?CreatePet@ioUI3DRender@@QAEPAVioPetView@@ABVioHashString@@_N@Z:
  00014	8b 54 24 08	 mov	 edx, DWORD PTR [esp+8]
  00018	8d 42 0c	 lea	 eax, DWORD PTR [edx+12]
  0001b	8b 4a f0	 mov	 ecx, DWORD PTR [edx-16]
  0001e	33 c8		 xor	 ecx, eax
  00020	e8 00 00 00 00	 call	 @__security_check_cookie@4
  00025	b8 00 00 00 00	 mov	 eax, OFFSET __ehfuncinfo$?CreatePet@ioUI3DRender@@QAEPAVioPetView@@ABVioHashString@@_N@Z
  0002a	e9 00 00 00 00	 jmp	 ___CxxFrameHandler3
text$x	ENDS
?CreatePet@ioUI3DRender@@QAEPAVioPetView@@ABVioHashString@@_N@Z ENDP ; ioUI3DRender::CreatePet
PUBLIC	?empty@?$vector@VioHashString@@V?$allocator@VioHashString@@@std@@@std@@QBE_NXZ ; std::vector<ioHashString,std::allocator<ioHashString> >::empty
; Function compile flags: /Ogsp
; File c:\program files (x86)\microsoft visual studio 10.0\vc\include\vector
;	COMDAT ?empty@?$vector@VioHashString@@V?$allocator@VioHashString@@@std@@@std@@QBE_NXZ
_TEXT	SEGMENT
?empty@?$vector@VioHashString@@V?$allocator@VioHashString@@@std@@@std@@QBE_NXZ PROC ; std::vector<ioHashString,std::allocator<ioHashString> >::empty, COMDAT
; _this$ = ecx

; 889  : 		return (this->_Myfirst == this->_Mylast);

  00000	8b 01		 mov	 eax, DWORD PTR [ecx]
  00002	2b 41 04	 sub	 eax, DWORD PTR [ecx+4]
  00005	f7 d8		 neg	 eax
  00007	1b c0		 sbb	 eax, eax
  00009	40		 inc	 eax

; 890  : 		}

  0000a	c3		 ret	 0
?empty@?$vector@VioHashString@@V?$allocator@VioHashString@@@std@@@std@@QBE_NXZ ENDP ; std::vector<ioHashString,std::allocator<ioHashString> >::empty
_TEXT	ENDS
PUBLIC	??A?$vector@VioHashString@@V?$allocator@VioHashString@@@std@@@std@@QBEABVioHashString@@I@Z ; std::vector<ioHashString,std::allocator<ioHashString> >::operator[]
; Function compile flags: /Ogsp
;	COMDAT ??A?$vector@VioHashString@@V?$allocator@VioHashString@@@std@@@std@@QBEABVioHashString@@I@Z
_TEXT	SEGMENT
__Pos$ = 8						; size = 4
??A?$vector@VioHashString@@V?$allocator@VioHashString@@@std@@@std@@QBEABVioHashString@@I@Z PROC ; std::vector<ioHashString,std::allocator<ioHashString> >::operator[], COMDAT
; _this$ = ecx

; 912  : 		{	// subscript nonmutable sequence

  00000	55		 push	 ebp
  00001	8b ec		 mov	 ebp, esp

; 913  :  #if _ITERATOR_DEBUG_LEVEL == 2
; 914  : 		if (size() <= _Pos)
; 915  : 			{	// report error
; 916  : 			_DEBUG_ERROR("vector subscript out of range");
; 917  : 			_SCL_SECURE_OUT_OF_RANGE;
; 918  : 			}
; 919  : 
; 920  :  #elif _ITERATOR_DEBUG_LEVEL == 1
; 921  : 		_SCL_SECURE_VALIDATE_RANGE(_Pos < size());
; 922  :  #endif /* _ITERATOR_DEBUG_LEVEL */
; 923  : 
; 924  : 		return (*(this->_Myfirst + _Pos));

  00003	8b 45 08	 mov	 eax, DWORD PTR __Pos$[ebp]
  00006	c1 e0 04	 shl	 eax, 4
  00009	03 01		 add	 eax, DWORD PTR [ecx]

; 925  : 		}

  0000b	5d		 pop	 ebp
  0000c	c2 04 00	 ret	 4
??A?$vector@VioHashString@@V?$allocator@VioHashString@@@std@@@std@@QBEABVioHashString@@I@Z ENDP ; std::vector<ioHashString,std::allocator<ioHashString> >::operator[]
_TEXT	ENDS
PUBLIC	?empty@?$list@PAVioEffect@@V?$allocator@PAVioEffect@@@std@@@std@@QBE_NXZ ; std::list<ioEffect *,std::allocator<ioEffect *> >::empty
; Function compile flags: /Ogsp
; File c:\program files (x86)\microsoft visual studio 10.0\vc\include\list
;	COMDAT ?empty@?$list@PAVioEffect@@V?$allocator@PAVioEffect@@@std@@@std@@QBE_NXZ
_TEXT	SEGMENT
?empty@?$list@PAVioEffect@@V?$allocator@PAVioEffect@@@std@@@std@@QBE_NXZ PROC ; std::list<ioEffect *,std::allocator<ioEffect *> >::empty, COMDAT
; _this$ = ecx

; 887  : 		return (this->_Mysize == 0);

  00000	33 c0		 xor	 eax, eax
  00002	39 41 04	 cmp	 DWORD PTR [ecx+4], eax
  00005	0f 94 c0	 sete	 al

; 888  : 		}

  00008	c3		 ret	 0
?empty@?$list@PAVioEffect@@V?$allocator@PAVioEffect@@@std@@@std@@QBE_NXZ ENDP ; std::list<ioEffect *,std::allocator<ioEffect *> >::empty
_TEXT	ENDS
PUBLIC	?capacity@?$vector@VioHashString@@V?$allocator@VioHashString@@@std@@@std@@QBEIXZ ; std::vector<ioHashString,std::allocator<ioHashString> >::capacity
; Function compile flags: /Ogsp
; File c:\program files (x86)\microsoft visual studio 10.0\vc\include\vector
;	COMDAT ?capacity@?$vector@VioHashString@@V?$allocator@VioHashString@@@std@@@std@@QBEIXZ
_TEXT	SEGMENT
?capacity@?$vector@VioHashString@@V?$allocator@VioHashString@@@std@@@std@@QBEIXZ PROC ; std::vector<ioHashString,std::allocator<ioHashString> >::capacity, COMDAT
; _this$ = ecx

; 777  : 		return (this->_Myend - this->_Myfirst);

  00000	8b 41 08	 mov	 eax, DWORD PTR [ecx+8]
  00003	2b 01		 sub	 eax, DWORD PTR [ecx]
  00005	c1 f8 04	 sar	 eax, 4

; 778  : 		}

  00008	c3		 ret	 0
?capacity@?$vector@VioHashString@@V?$allocator@VioHashString@@@std@@@std@@QBEIXZ ENDP ; std::vector<ioHashString,std::allocator<ioHashString> >::capacity
_TEXT	ENDS
PUBLIC	?_Inside@?$vector@VioHashString@@V?$allocator@VioHashString@@@std@@@std@@IBE_NPBVioHashString@@@Z ; std::vector<ioHashString,std::allocator<ioHashString> >::_Inside
; Function compile flags: /Ogsp
;	COMDAT ?_Inside@?$vector@VioHashString@@V?$allocator@VioHashString@@@std@@@std@@IBE_NPBVioHashString@@@Z
_TEXT	SEGMENT
__Ptr$ = 8						; size = 4
?_Inside@?$vector@VioHashString@@V?$allocator@VioHashString@@@std@@@std@@IBE_NPBVioHashString@@@Z PROC ; std::vector<ioHashString,std::allocator<ioHashString> >::_Inside, COMDAT
; _this$ = ecx

; 1285 : 		{	// test if _Ptr points inside vector

  00000	55		 push	 ebp
  00001	8b ec		 mov	 ebp, esp

; 1286 : 		return (_Ptr < this->_Mylast && this->_Myfirst <= _Ptr);

  00003	8b 45 08	 mov	 eax, DWORD PTR __Ptr$[ebp]
  00006	3b 41 04	 cmp	 eax, DWORD PTR [ecx+4]
  00009	73 09		 jae	 SHORT $LN3@Inside
  0000b	39 01		 cmp	 DWORD PTR [ecx], eax
  0000d	77 05		 ja	 SHORT $LN3@Inside
  0000f	33 c0		 xor	 eax, eax
  00011	40		 inc	 eax
  00012	eb 02		 jmp	 SHORT $LN4@Inside
$LN3@Inside:
  00014	33 c0		 xor	 eax, eax
$LN4@Inside:

; 1287 : 		}

  00016	5d		 pop	 ebp
  00017	c2 04 00	 ret	 4
?_Inside@?$vector@VioHashString@@V?$allocator@VioHashString@@@std@@@std@@IBE_NPBVioHashString@@@Z ENDP ; std::vector<ioHashString,std::allocator<ioHashString> >::_Inside
_TEXT	ENDS
PUBLIC	?_Orphan_range@?$vector@VioHashString@@V?$allocator@VioHashString@@@std@@@std@@IBEXPAVioHashString@@0@Z ; std::vector<ioHashString,std::allocator<ioHashString> >::_Orphan_range
; Function compile flags: /Ogsp
;	COMDAT ?_Orphan_range@?$vector@VioHashString@@V?$allocator@VioHashString@@@std@@@std@@IBEXPAVioHashString@@0@Z
_TEXT	SEGMENT
___formal$ = 8						; size = 4
___formal$ = 12						; size = 4
?_Orphan_range@?$vector@VioHashString@@V?$allocator@VioHashString@@@std@@@std@@IBEXPAVioHashString@@0@Z PROC ; std::vector<ioHashString,std::allocator<ioHashString> >::_Orphan_range, COMDAT
; _this$ = ecx

; 1454 : 		}

  00000	c2 08 00	 ret	 8
?_Orphan_range@?$vector@VioHashString@@V?$allocator@VioHashString@@@std@@@std@@IBEXPAVioHashString@@0@Z ENDP ; std::vector<ioHashString,std::allocator<ioHashString> >::_Orphan_range
_TEXT	ENDS
PUBLIC	?_Nextnode@?$_List_val@PAVioEffect@@V?$allocator@PAVioEffect@@@std@@@std@@SAAAPAU_Node@?$_List_nod@PAVioEffect@@V?$allocator@PAVioEffect@@@std@@@2@PAU342@@Z ; std::_List_val<ioEffect *,std::allocator<ioEffect *> >::_Nextnode
; Function compile flags: /Ogsp
; File c:\program files (x86)\microsoft visual studio 10.0\vc\include\list
;	COMDAT ?_Nextnode@?$_List_val@PAVioEffect@@V?$allocator@PAVioEffect@@@std@@@std@@SAAAPAU_Node@?$_List_nod@PAVioEffect@@V?$allocator@PAVioEffect@@@std@@@2@PAU342@@Z
_TEXT	SEGMENT
__Pnode$ = 8						; size = 4
?_Nextnode@?$_List_val@PAVioEffect@@V?$allocator@PAVioEffect@@@std@@@std@@SAAAPAU_Node@?$_List_nod@PAVioEffect@@V?$allocator@PAVioEffect@@@std@@@2@PAU342@@Z PROC ; std::_List_val<ioEffect *,std::allocator<ioEffect *> >::_Nextnode, COMDAT

; 560  : 		{	// return reference to successor pointer in node

  00000	55		 push	 ebp
  00001	8b ec		 mov	 ebp, esp

; 561  : 		return ((_Nodepref)(*_Pnode)._Next);

  00003	8b 45 08	 mov	 eax, DWORD PTR __Pnode$[ebp]

; 562  : 		}

  00006	5d		 pop	 ebp
  00007	c3		 ret	 0
?_Nextnode@?$_List_val@PAVioEffect@@V?$allocator@PAVioEffect@@@std@@@std@@SAAAPAU_Node@?$_List_nod@PAVioEffect@@V?$allocator@PAVioEffect@@@std@@@2@PAU342@@Z ENDP ; std::_List_val<ioEffect *,std::allocator<ioEffect *> >::_Nextnode
_TEXT	ENDS
PUBLIC	?_Prevnode@?$_List_val@PAVioEffect@@V?$allocator@PAVioEffect@@@std@@@std@@SAAAPAU_Node@?$_List_nod@PAVioEffect@@V?$allocator@PAVioEffect@@@std@@@2@PAU342@@Z ; std::_List_val<ioEffect *,std::allocator<ioEffect *> >::_Prevnode
; Function compile flags: /Ogsp
;	COMDAT ?_Prevnode@?$_List_val@PAVioEffect@@V?$allocator@PAVioEffect@@@std@@@std@@SAAAPAU_Node@?$_List_nod@PAVioEffect@@V?$allocator@PAVioEffect@@@std@@@2@PAU342@@Z
_TEXT	SEGMENT
__Pnode$ = 8						; size = 4
?_Prevnode@?$_List_val@PAVioEffect@@V?$allocator@PAVioEffect@@@std@@@std@@SAAAPAU_Node@?$_List_nod@PAVioEffect@@V?$allocator@PAVioEffect@@@std@@@2@PAU342@@Z PROC ; std::_List_val<ioEffect *,std::allocator<ioEffect *> >::_Prevnode, COMDAT

; 565  : 		{	// return reference to predecessor pointer in node

  00000	55		 push	 ebp
  00001	8b ec		 mov	 ebp, esp

; 566  : 		return ((_Nodepref)(*_Pnode)._Prev);

  00003	8b 45 08	 mov	 eax, DWORD PTR __Pnode$[ebp]
  00006	83 c0 04	 add	 eax, 4

; 567  : 		}

  00009	5d		 pop	 ebp
  0000a	c3		 ret	 0
?_Prevnode@?$_List_val@PAVioEffect@@V?$allocator@PAVioEffect@@@std@@@std@@SAAAPAU_Node@?$_List_nod@PAVioEffect@@V?$allocator@PAVioEffect@@@std@@@2@PAU342@@Z ENDP ; std::_List_val<ioEffect *,std::allocator<ioEffect *> >::_Prevnode
_TEXT	ENDS
PUBLIC	??0?$allocator@PAVioEffect@@@std@@QAE@XZ	; std::allocator<ioEffect *>::allocator<ioEffect *>
; Function compile flags: /Ogsp
; File c:\program files (x86)\microsoft visual studio 10.0\vc\include\xmemory
;	COMDAT ??0?$allocator@PAVioEffect@@@std@@QAE@XZ
_TEXT	SEGMENT
??0?$allocator@PAVioEffect@@@std@@QAE@XZ PROC		; std::allocator<ioEffect *>::allocator<ioEffect *>, COMDAT
; _this$ = ecx

; 161  : 	_ALLOCATOR() _THROW0()

  00000	8b c1		 mov	 eax, ecx

; 162  : 		{	// construct default allocator (do nothing)
; 163  : 		}

  00002	c3		 ret	 0
??0?$allocator@PAVioEffect@@@std@@QAE@XZ ENDP		; std::allocator<ioEffect *>::allocator<ioEffect *>
_TEXT	ENDS
PUBLIC	?deallocate@?$allocator@U_Node@?$_List_nod@PAVioEffect@@V?$allocator@PAVioEffect@@@std@@@std@@@std@@QAEXPAU_Node@?$_List_nod@PAVioEffect@@V?$allocator@PAVioEffect@@@std@@@2@I@Z ; std::allocator<std::_List_nod<ioEffect *,std::allocator<ioEffect *> >::_Node>::deallocate
; Function compile flags: /Ogsp
;	COMDAT ?deallocate@?$allocator@U_Node@?$_List_nod@PAVioEffect@@V?$allocator@PAVioEffect@@@std@@@std@@@std@@QAEXPAU_Node@?$_List_nod@PAVioEffect@@V?$allocator@PAVioEffect@@@std@@@2@I@Z
_TEXT	SEGMENT
__Ptr$ = 8						; size = 4
___formal$ = 12						; size = 4
?deallocate@?$allocator@U_Node@?$_List_nod@PAVioEffect@@V?$allocator@PAVioEffect@@@std@@@std@@@std@@QAEXPAU_Node@?$_List_nod@PAVioEffect@@V?$allocator@PAVioEffect@@@std@@@2@I@Z PROC ; std::allocator<std::_List_nod<ioEffect *,std::allocator<ioEffect *> >::_Node>::deallocate, COMDAT
; _this$ = ecx

; 181  : 		{	// deallocate object at _Ptr, ignore size

  00000	55		 push	 ebp
  00001	8b ec		 mov	 ebp, esp

; 182  : 		::operator delete(_Ptr);

  00003	ff 75 08	 push	 DWORD PTR __Ptr$[ebp]
  00006	e8 00 00 00 00	 call	 ??3@YAXPAX@Z		; operator delete
  0000b	59		 pop	 ecx

; 183  : 		}

  0000c	5d		 pop	 ebp
  0000d	c2 08 00	 ret	 8
?deallocate@?$allocator@U_Node@?$_List_nod@PAVioEffect@@V?$allocator@PAVioEffect@@@std@@@std@@@std@@QAEXPAU_Node@?$_List_nod@PAVioEffect@@V?$allocator@PAVioEffect@@@std@@@2@I@Z ENDP ; std::allocator<std::_List_nod<ioEffect *,std::allocator<ioEffect *> >::_Node>::deallocate
_TEXT	ENDS
PUBLIC	?_Myval@?$_Tree_val@V?$_Tset_traits@PAVioSceneManager@@U?$less@PAVioSceneManager@@@std@@V?$allocator@PAVioSceneManager@@@3@$0A@@std@@@std@@SAAAPAVioSceneManager@@PAU_Node@?$_Tree_nod@V?$_Tset_traits@PAVioSceneManager@@U?$less@PAVioSceneManager@@@std@@V?$allocator@PAVioSceneManager@@@3@$0A@@std@@@2@@Z ; std::_Tree_val<std::_Tset_traits<ioSceneManager *,std::less<ioSceneManager *>,std::allocator<ioSceneManager *>,0> >::_Myval
; Function compile flags: /Ogsp
; File c:\program files (x86)\microsoft visual studio 10.0\vc\include\xtree
;	COMDAT ?_Myval@?$_Tree_val@V?$_Tset_traits@PAVioSceneManager@@U?$less@PAVioSceneManager@@@std@@V?$allocator@PAVioSceneManager@@@3@$0A@@std@@@std@@SAAAPAVioSceneManager@@PAU_Node@?$_Tree_nod@V?$_Tset_traits@PAVioSceneManager@@U?$less@PAVioSceneManager@@@std@@V?$allocator@PAVioSceneManager@@@3@$0A@@std@@@2@@Z
_TEXT	SEGMENT
__Pnode$ = 8						; size = 4
?_Myval@?$_Tree_val@V?$_Tset_traits@PAVioSceneManager@@U?$less@PAVioSceneManager@@@std@@V?$allocator@PAVioSceneManager@@@3@$0A@@std@@@std@@SAAAPAVioSceneManager@@PAU_Node@?$_Tree_nod@V?$_Tset_traits@PAVioSceneManager@@U?$less@PAVioSceneManager@@@std@@V?$allocator@PAVioSceneManager@@@3@$0A@@std@@@2@@Z PROC ; std::_Tree_val<std::_Tset_traits<ioSceneManager *,std::less<ioSceneManager *>,std::allocator<ioSceneManager *>,0> >::_Myval, COMDAT

; 636  : 		{	// return reference to value in node

  00000	55		 push	 ebp
  00001	8b ec		 mov	 ebp, esp

; 637  : 		return ((reference)(*_Pnode)._Myval);

  00003	8b 45 08	 mov	 eax, DWORD PTR __Pnode$[ebp]
  00006	83 c0 0c	 add	 eax, 12			; 0000000cH

; 638  : 		}

  00009	5d		 pop	 ebp
  0000a	c3		 ret	 0
?_Myval@?$_Tree_val@V?$_Tset_traits@PAVioSceneManager@@U?$less@PAVioSceneManager@@@std@@V?$allocator@PAVioSceneManager@@@3@$0A@@std@@@std@@SAAAPAVioSceneManager@@PAU_Node@?$_Tree_nod@V?$_Tset_traits@PAVioSceneManager@@U?$less@PAVioSceneManager@@@std@@V?$allocator@PAVioSceneManager@@@3@$0A@@std@@@2@@Z ENDP ; std::_Tree_val<std::_Tset_traits<ioSceneManager *,std::less<ioSceneManager *>,std::allocator<ioSceneManager *>,0> >::_Myval
_TEXT	ENDS
PUBLIC	??0?$allocator@PAVioSceneManager@@@std@@QAE@XZ	; std::allocator<ioSceneManager *>::allocator<ioSceneManager *>
; Function compile flags: /Ogsp
; File c:\program files (x86)\microsoft visual studio 10.0\vc\include\xmemory
;	COMDAT ??0?$allocator@PAVioSceneManager@@@std@@QAE@XZ
_TEXT	SEGMENT
??0?$allocator@PAVioSceneManager@@@std@@QAE@XZ PROC	; std::allocator<ioSceneManager *>::allocator<ioSceneManager *>, COMDAT
; _this$ = ecx

; 161  : 	_ALLOCATOR() _THROW0()

  00000	8b c1		 mov	 eax, ecx

; 162  : 		{	// construct default allocator (do nothing)
; 163  : 		}

  00002	c3		 ret	 0
??0?$allocator@PAVioSceneManager@@@std@@QAE@XZ ENDP	; std::allocator<ioSceneManager *>::allocator<ioSceneManager *>
_TEXT	ENDS
PUBLIC	??8?$_Tree_const_iterator@V?$_Tree_val@V?$_Tset_traits@PAVioSceneManager@@U?$less@PAVioSceneManager@@@std@@V?$allocator@PAVioSceneManager@@@3@$0A@@std@@@std@@@std@@QBE_NABV01@@Z ; std::_Tree_const_iterator<std::_Tree_val<std::_Tset_traits<ioSceneManager *,std::less<ioSceneManager *>,std::allocator<ioSceneManager *>,0> > >::operator==
; Function compile flags: /Ogsp
; File c:\program files (x86)\microsoft visual studio 10.0\vc\include\xtree
;	COMDAT ??8?$_Tree_const_iterator@V?$_Tree_val@V?$_Tset_traits@PAVioSceneManager@@U?$less@PAVioSceneManager@@@std@@V?$allocator@PAVioSceneManager@@@3@$0A@@std@@@std@@@std@@QBE_NABV01@@Z
_TEXT	SEGMENT
__Right$ = 8						; size = 4
??8?$_Tree_const_iterator@V?$_Tree_val@V?$_Tset_traits@PAVioSceneManager@@U?$less@PAVioSceneManager@@@std@@V?$allocator@PAVioSceneManager@@@3@$0A@@std@@@std@@@std@@QBE_NABV01@@Z PROC ; std::_Tree_const_iterator<std::_Tree_val<std::_Tset_traits<ioSceneManager *,std::less<ioSceneManager *>,std::allocator<ioSceneManager *>,0> > >::operator==, COMDAT
; _this$ = ecx

; 316  : 		{	// test for iterator equality

  00000	55		 push	 ebp
  00001	8b ec		 mov	 ebp, esp

; 317  :  #if _ITERATOR_DEBUG_LEVEL == 2
; 318  : 		if (this->_Getcont() == 0
; 319  : 			|| this->_Getcont() != _Right._Getcont())
; 320  : 			{	// report error
; 321  : 			_DEBUG_ERROR("map/set iterators incompatible");
; 322  : 			_SCL_SECURE_INVALID_ARGUMENT;
; 323  : 			}
; 324  : 
; 325  :  #elif _ITERATOR_DEBUG_LEVEL == 1
; 326  : 		_SCL_SECURE_VALIDATE(this->_Getcont() != 0
; 327  : 			&& this->_Getcont() == _Right._Getcont());
; 328  :  #endif /* _ITERATOR_DEBUG_LEVEL */
; 329  : 
; 330  : 		return (this->_Ptr == _Right._Ptr);

  00003	8b 01		 mov	 eax, DWORD PTR [ecx]
  00005	8b 4d 08	 mov	 ecx, DWORD PTR __Right$[ebp]
  00008	2b 01		 sub	 eax, DWORD PTR [ecx]
  0000a	f7 d8		 neg	 eax
  0000c	1b c0		 sbb	 eax, eax
  0000e	40		 inc	 eax

; 331  : 		}

  0000f	5d		 pop	 ebp
  00010	c2 04 00	 ret	 4
??8?$_Tree_const_iterator@V?$_Tree_val@V?$_Tset_traits@PAVioSceneManager@@U?$less@PAVioSceneManager@@@std@@V?$allocator@PAVioSceneManager@@@3@$0A@@std@@@std@@@std@@QBE_NABV01@@Z ENDP ; std::_Tree_const_iterator<std::_Tree_val<std::_Tset_traits<ioSceneManager *,std::less<ioSceneManager *>,std::allocator<ioSceneManager *>,0> > >::operator==
_TEXT	ENDS
PUBLIC	??E?$_List_const_iterator@V?$_List_val@PAVioEffect@@V?$allocator@PAVioEffect@@@std@@@std@@@std@@QAEAAV01@XZ ; std::_List_const_iterator<std::_List_val<ioEffect *,std::allocator<ioEffect *> > >::operator++
; Function compile flags: /Ogsp
; File c:\program files (x86)\microsoft visual studio 10.0\vc\include\list
;	COMDAT ??E?$_List_const_iterator@V?$_List_val@PAVioEffect@@V?$allocator@PAVioEffect@@@std@@@std@@@std@@QAEAAV01@XZ
_TEXT	SEGMENT
??E?$_List_const_iterator@V?$_List_val@PAVioEffect@@V?$allocator@PAVioEffect@@@std@@@std@@@std@@QAEAAV01@XZ PROC ; std::_List_const_iterator<std::_List_val<ioEffect *,std::allocator<ioEffect *> > >::operator++, COMDAT
; _this$ = ecx

; 221  : 		{	// preincrement

  00000	8b c1		 mov	 eax, ecx

; 222  :  #if _ITERATOR_DEBUG_LEVEL == 2
; 223  : 		if (this->_Getcont() == 0
; 224  : 			|| this->_Ptr == 0
; 225  : 			|| this->_Ptr == ((_Mylist *)this->_Getcont())->_Myhead)
; 226  : 			{	// report error
; 227  : 			_DEBUG_ERROR("list iterator not incrementable");
; 228  : 			_SCL_SECURE_OUT_OF_RANGE;
; 229  : 			}
; 230  : 
; 231  :  #elif _ITERATOR_DEBUG_LEVEL == 1
; 232  : 		_SCL_SECURE_VALIDATE(this->_Getcont() != 0 && this->_Ptr != 0);
; 233  : 		_SCL_SECURE_VALIDATE_RANGE(this->_Ptr !=
; 234  : 			((_Mylist *)this->_Getcont())->_Myhead);
; 235  :  #endif /* _ITERATOR_DEBUG_LEVEL */
; 236  : 
; 237  : 		this->_Ptr = _Mylist::_Nextnode(this->_Ptr);

  00002	8b 08		 mov	 ecx, DWORD PTR [eax]
  00004	8b 09		 mov	 ecx, DWORD PTR [ecx]
  00006	89 08		 mov	 DWORD PTR [eax], ecx

; 238  : 		return (*this);
; 239  : 		}

  00008	c3		 ret	 0
??E?$_List_const_iterator@V?$_List_val@PAVioEffect@@V?$allocator@PAVioEffect@@@std@@@std@@@std@@QAEAAV01@XZ ENDP ; std::_List_const_iterator<std::_List_val<ioEffect *,std::allocator<ioEffect *> > >::operator++
_TEXT	ENDS
PUBLIC	??E?$_List_const_iterator@V?$_List_val@PAVioEffect@@V?$allocator@PAVioEffect@@@std@@@std@@@std@@QAE?AV01@H@Z ; std::_List_const_iterator<std::_List_val<ioEffect *,std::allocator<ioEffect *> > >::operator++
; Function compile flags: /Ogsp
;	COMDAT ??E?$_List_const_iterator@V?$_List_val@PAVioEffect@@V?$allocator@PAVioEffect@@@std@@@std@@@std@@QAE?AV01@H@Z
_TEXT	SEGMENT
___$ReturnUdt$ = 8					; size = 4
___formal$ = 12						; size = 4
??E?$_List_const_iterator@V?$_List_val@PAVioEffect@@V?$allocator@PAVioEffect@@@std@@@std@@@std@@QAE?AV01@H@Z PROC ; std::_List_const_iterator<std::_List_val<ioEffect *,std::allocator<ioEffect *> > >::operator++, COMDAT
; _this$ = ecx

; 242  : 		{	// postincrement

  00000	55		 push	 ebp
  00001	8b ec		 mov	 ebp, esp

; 243  : 		_Myiter _Tmp = *this;

  00003	8b 11		 mov	 edx, DWORD PTR [ecx]
  00005	8b 45 08	 mov	 eax, DWORD PTR ___$ReturnUdt$[ebp]
  00008	89 10		 mov	 DWORD PTR [eax], edx

; 244  : 		++*this;

  0000a	8b 12		 mov	 edx, DWORD PTR [edx]
  0000c	89 11		 mov	 DWORD PTR [ecx], edx

; 245  : 		return (_Tmp);
; 246  : 		}

  0000e	5d		 pop	 ebp
  0000f	c2 08 00	 ret	 8
??E?$_List_const_iterator@V?$_List_val@PAVioEffect@@V?$allocator@PAVioEffect@@@std@@@std@@@std@@QAE?AV01@H@Z ENDP ; std::_List_const_iterator<std::_List_val<ioEffect *,std::allocator<ioEffect *> > >::operator++
_TEXT	ENDS
PUBLIC	??8?$_List_const_iterator@V?$_List_val@PAVioEffect@@V?$allocator@PAVioEffect@@@std@@@std@@@std@@QBE_NABV01@@Z ; std::_List_const_iterator<std::_List_val<ioEffect *,std::allocator<ioEffect *> > >::operator==
; Function compile flags: /Ogsp
;	COMDAT ??8?$_List_const_iterator@V?$_List_val@PAVioEffect@@V?$allocator@PAVioEffect@@@std@@@std@@@std@@QBE_NABV01@@Z
_TEXT	SEGMENT
__Right$ = 8						; size = 4
??8?$_List_const_iterator@V?$_List_val@PAVioEffect@@V?$allocator@PAVioEffect@@@std@@@std@@@std@@QBE_NABV01@@Z PROC ; std::_List_const_iterator<std::_List_val<ioEffect *,std::allocator<ioEffect *> > >::operator==, COMDAT
; _this$ = ecx

; 281  : 		{	// test for iterator equality

  00000	55		 push	 ebp
  00001	8b ec		 mov	 ebp, esp

; 282  :  #if _ITERATOR_DEBUG_LEVEL == 2
; 283  : 		if (this->_Getcont() == 0
; 284  : 			|| this->_Getcont() != _Right._Getcont())
; 285  : 			{	// report error
; 286  : 			_DEBUG_ERROR("list iterators incompatible");
; 287  : 			_SCL_SECURE_INVALID_ARGUMENT;
; 288  : 			}
; 289  : 
; 290  :  #elif _ITERATOR_DEBUG_LEVEL == 1
; 291  : 		_SCL_SECURE_VALIDATE(this->_Getcont() != 0
; 292  : 			&& this->_Getcont() == _Right._Getcont());
; 293  :  #endif /* _ITERATOR_DEBUG_LEVEL */
; 294  : 
; 295  : 		return (this->_Ptr == _Right._Ptr);

  00003	8b 01		 mov	 eax, DWORD PTR [ecx]
  00005	8b 4d 08	 mov	 ecx, DWORD PTR __Right$[ebp]
  00008	2b 01		 sub	 eax, DWORD PTR [ecx]
  0000a	f7 d8		 neg	 eax
  0000c	1b c0		 sbb	 eax, eax
  0000e	40		 inc	 eax

; 296  : 		}

  0000f	5d		 pop	 ebp
  00010	c2 04 00	 ret	 4
??8?$_List_const_iterator@V?$_List_val@PAVioEffect@@V?$allocator@PAVioEffect@@@std@@@std@@@std@@QBE_NABV01@@Z ENDP ; std::_List_const_iterator<std::_List_val<ioEffect *,std::allocator<ioEffect *> > >::operator==
_TEXT	ENDS
PUBLIC	?_Mynode@?$_List_unchecked_const_iterator@V?$_List_val@PAVioEffect@@V?$allocator@PAVioEffect@@@std@@@std@@U_Iterator_base0@2@@std@@QBEPAU_Node@?$_List_nod@PAVioEffect@@V?$allocator@PAVioEffect@@@std@@@2@XZ ; std::_List_unchecked_const_iterator<std::_List_val<ioEffect *,std::allocator<ioEffect *> >,std::_Iterator_base0>::_Mynode
; Function compile flags: /Ogsp
;	COMDAT ?_Mynode@?$_List_unchecked_const_iterator@V?$_List_val@PAVioEffect@@V?$allocator@PAVioEffect@@@std@@@std@@U_Iterator_base0@2@@std@@QBEPAU_Node@?$_List_nod@PAVioEffect@@V?$allocator@PAVioEffect@@@std@@@2@XZ
_TEXT	SEGMENT
?_Mynode@?$_List_unchecked_const_iterator@V?$_List_val@PAVioEffect@@V?$allocator@PAVioEffect@@@std@@@std@@U_Iterator_base0@2@@std@@QBEPAU_Node@?$_List_nod@PAVioEffect@@V?$allocator@PAVioEffect@@@std@@@2@XZ PROC ; std::_List_unchecked_const_iterator<std::_List_val<ioEffect *,std::allocator<ioEffect *> >,std::_Iterator_base0>::_Mynode, COMDAT
; _this$ = ecx

; 93   : 		return (_Ptr);

  00000	8b 01		 mov	 eax, DWORD PTR [ecx]

; 94   : 		}

  00002	c3		 ret	 0
?_Mynode@?$_List_unchecked_const_iterator@V?$_List_val@PAVioEffect@@V?$allocator@PAVioEffect@@@std@@@std@@U_Iterator_base0@2@@std@@QBEPAU_Node@?$_List_nod@PAVioEffect@@V?$allocator@PAVioEffect@@@std@@@2@XZ ENDP ; std::_List_unchecked_const_iterator<std::_List_val<ioEffect *,std::allocator<ioEffect *> >,std::_Iterator_base0>::_Mynode
_TEXT	ENDS
PUBLIC	?_Myval@?$_List_val@PAVioEffect@@V?$allocator@PAVioEffect@@@std@@@std@@SAAAPAVioEffect@@PAU_Node@?$_List_nod@PAVioEffect@@V?$allocator@PAVioEffect@@@std@@@2@@Z ; std::_List_val<ioEffect *,std::allocator<ioEffect *> >::_Myval
; Function compile flags: /Ogsp
;	COMDAT ?_Myval@?$_List_val@PAVioEffect@@V?$allocator@PAVioEffect@@@std@@@std@@SAAAPAVioEffect@@PAU_Node@?$_List_nod@PAVioEffect@@V?$allocator@PAVioEffect@@@std@@@2@@Z
_TEXT	SEGMENT
__Pnode$ = 8						; size = 4
?_Myval@?$_List_val@PAVioEffect@@V?$allocator@PAVioEffect@@@std@@@std@@SAAAPAVioEffect@@PAU_Node@?$_List_nod@PAVioEffect@@V?$allocator@PAVioEffect@@@std@@@2@@Z PROC ; std::_List_val<ioEffect *,std::allocator<ioEffect *> >::_Myval, COMDAT

; 570  : 		{	// return reference to value in node

  00000	55		 push	 ebp
  00001	8b ec		 mov	 ebp, esp

; 571  : 		return ((reference)(*_Pnode)._Myval);

  00003	8b 45 08	 mov	 eax, DWORD PTR __Pnode$[ebp]
  00006	83 c0 08	 add	 eax, 8

; 572  : 		}

  00009	5d		 pop	 ebp
  0000a	c3		 ret	 0
?_Myval@?$_List_val@PAVioEffect@@V?$allocator@PAVioEffect@@@std@@@std@@SAAAPAVioEffect@@PAU_Node@?$_List_nod@PAVioEffect@@V?$allocator@PAVioEffect@@@std@@@2@@Z ENDP ; std::_List_val<ioEffect *,std::allocator<ioEffect *> >::_Myval
_TEXT	ENDS
PUBLIC	??0?$allocator@PAVioEffect@@@std@@QAE@ABV01@@Z	; std::allocator<ioEffect *>::allocator<ioEffect *>
; Function compile flags: /Ogsp
; File c:\program files (x86)\microsoft visual studio 10.0\vc\include\xmemory
;	COMDAT ??0?$allocator@PAVioEffect@@@std@@QAE@ABV01@@Z
_TEXT	SEGMENT
___formal$ = 8						; size = 4
??0?$allocator@PAVioEffect@@@std@@QAE@ABV01@@Z PROC	; std::allocator<ioEffect *>::allocator<ioEffect *>, COMDAT
; _this$ = ecx

; 165  : 	_ALLOCATOR(const _ALLOCATOR<_Ty>&) _THROW0()

  00000	8b c1		 mov	 eax, ecx

; 166  : 		{	// construct by copying (do nothing)
; 167  : 		}

  00002	c2 04 00	 ret	 4
??0?$allocator@PAVioEffect@@@std@@QAE@ABV01@@Z ENDP	; std::allocator<ioEffect *>::allocator<ioEffect *>
_TEXT	ENDS
PUBLIC	?_Isnil@?$_Tree_val@V?$_Tset_traits@PAVioSceneManager@@U?$less@PAVioSceneManager@@@std@@V?$allocator@PAVioSceneManager@@@3@$0A@@std@@@std@@SAAADPAU_Node@?$_Tree_nod@V?$_Tset_traits@PAVioSceneManager@@U?$less@PAVioSceneManager@@@std@@V?$allocator@PAVioSceneManager@@@3@$0A@@std@@@2@@Z ; std::_Tree_val<std::_Tset_traits<ioSceneManager *,std::less<ioSceneManager *>,std::allocator<ioSceneManager *>,0> >::_Isnil
; Function compile flags: /Ogsp
; File c:\program files (x86)\microsoft visual studio 10.0\vc\include\xtree
;	COMDAT ?_Isnil@?$_Tree_val@V?$_Tset_traits@PAVioSceneManager@@U?$less@PAVioSceneManager@@@std@@V?$allocator@PAVioSceneManager@@@3@$0A@@std@@@std@@SAAADPAU_Node@?$_Tree_nod@V?$_Tset_traits@PAVioSceneManager@@U?$less@PAVioSceneManager@@@std@@V?$allocator@PAVioSceneManager@@@3@$0A@@std@@@2@@Z
_TEXT	SEGMENT
__Pnode$ = 8						; size = 4
?_Isnil@?$_Tree_val@V?$_Tset_traits@PAVioSceneManager@@U?$less@PAVioSceneManager@@@std@@V?$allocator@PAVioSceneManager@@@3@$0A@@std@@@std@@SAAADPAU_Node@?$_Tree_nod@V?$_Tset_traits@PAVioSceneManager@@U?$less@PAVioSceneManager@@@std@@V?$allocator@PAVioSceneManager@@@3@$0A@@std@@@2@@Z PROC ; std::_Tree_val<std::_Tset_traits<ioSceneManager *,std::less<ioSceneManager *>,std::allocator<ioSceneManager *>,0> >::_Isnil, COMDAT

; 611  : 		{	// return reference to nil flag in node

  00000	55		 push	 ebp
  00001	8b ec		 mov	 ebp, esp

; 612  : 		return ((char&)(*_Pnode)._Isnil);

  00003	8b 45 08	 mov	 eax, DWORD PTR __Pnode$[ebp]
  00006	83 c0 11	 add	 eax, 17			; 00000011H

; 613  : 		}

  00009	5d		 pop	 ebp
  0000a	c3		 ret	 0
?_Isnil@?$_Tree_val@V?$_Tset_traits@PAVioSceneManager@@U?$less@PAVioSceneManager@@@std@@V?$allocator@PAVioSceneManager@@@3@$0A@@std@@@std@@SAAADPAU_Node@?$_Tree_nod@V?$_Tset_traits@PAVioSceneManager@@U?$less@PAVioSceneManager@@@std@@V?$allocator@PAVioSceneManager@@@3@$0A@@std@@@2@@Z ENDP ; std::_Tree_val<std::_Tset_traits<ioSceneManager *,std::less<ioSceneManager *>,std::allocator<ioSceneManager *>,0> >::_Isnil
_TEXT	ENDS
PUBLIC	?_Left@?$_Tree_val@V?$_Tset_traits@PAVioSceneManager@@U?$less@PAVioSceneManager@@@std@@V?$allocator@PAVioSceneManager@@@3@$0A@@std@@@std@@SAAAPAU_Node@?$_Tree_nod@V?$_Tset_traits@PAVioSceneManager@@U?$less@PAVioSceneManager@@@std@@V?$allocator@PAVioSceneManager@@@3@$0A@@std@@@2@PAU342@@Z ; std::_Tree_val<std::_Tset_traits<ioSceneManager *,std::less<ioSceneManager *>,std::allocator<ioSceneManager *>,0> >::_Left
; Function compile flags: /Ogsp
;	COMDAT ?_Left@?$_Tree_val@V?$_Tset_traits@PAVioSceneManager@@U?$less@PAVioSceneManager@@@std@@V?$allocator@PAVioSceneManager@@@3@$0A@@std@@@std@@SAAAPAU_Node@?$_Tree_nod@V?$_Tset_traits@PAVioSceneManager@@U?$less@PAVioSceneManager@@@std@@V?$allocator@PAVioSceneManager@@@3@$0A@@std@@@2@PAU342@@Z
_TEXT	SEGMENT
__Pnode$ = 8						; size = 4
?_Left@?$_Tree_val@V?$_Tset_traits@PAVioSceneManager@@U?$less@PAVioSceneManager@@@std@@V?$allocator@PAVioSceneManager@@@3@$0A@@std@@@std@@SAAAPAU_Node@?$_Tree_nod@V?$_Tset_traits@PAVioSceneManager@@U?$less@PAVioSceneManager@@@std@@V?$allocator@PAVioSceneManager@@@3@$0A@@std@@@2@PAU342@@Z PROC ; std::_Tree_val<std::_Tset_traits<ioSceneManager *,std::less<ioSceneManager *>,std::allocator<ioSceneManager *>,0> >::_Left, COMDAT

; 621  : 		{	// return reference to left pointer in node

  00000	55		 push	 ebp
  00001	8b ec		 mov	 ebp, esp

; 622  : 		return ((_Nodepref)(*_Pnode)._Left);

  00003	8b 45 08	 mov	 eax, DWORD PTR __Pnode$[ebp]

; 623  : 		}

  00006	5d		 pop	 ebp
  00007	c3		 ret	 0
?_Left@?$_Tree_val@V?$_Tset_traits@PAVioSceneManager@@U?$less@PAVioSceneManager@@@std@@V?$allocator@PAVioSceneManager@@@3@$0A@@std@@@std@@SAAAPAU_Node@?$_Tree_nod@V?$_Tset_traits@PAVioSceneManager@@U?$less@PAVioSceneManager@@@std@@V?$allocator@PAVioSceneManager@@@3@$0A@@std@@@2@PAU342@@Z ENDP ; std::_Tree_val<std::_Tset_traits<ioSceneManager *,std::less<ioSceneManager *>,std::allocator<ioSceneManager *>,0> >::_Left
_TEXT	ENDS
PUBLIC	?_Parent@?$_Tree_val@V?$_Tset_traits@PAVioSceneManager@@U?$less@PAVioSceneManager@@@std@@V?$allocator@PAVioSceneManager@@@3@$0A@@std@@@std@@SAAAPAU_Node@?$_Tree_nod@V?$_Tset_traits@PAVioSceneManager@@U?$less@PAVioSceneManager@@@std@@V?$allocator@PAVioSceneManager@@@3@$0A@@std@@@2@PAU342@@Z ; std::_Tree_val<std::_Tset_traits<ioSceneManager *,std::less<ioSceneManager *>,std::allocator<ioSceneManager *>,0> >::_Parent
; Function compile flags: /Ogsp
;	COMDAT ?_Parent@?$_Tree_val@V?$_Tset_traits@PAVioSceneManager@@U?$less@PAVioSceneManager@@@std@@V?$allocator@PAVioSceneManager@@@3@$0A@@std@@@std@@SAAAPAU_Node@?$_Tree_nod@V?$_Tset_traits@PAVioSceneManager@@U?$less@PAVioSceneManager@@@std@@V?$allocator@PAVioSceneManager@@@3@$0A@@std@@@2@PAU342@@Z
_TEXT	SEGMENT
__Pnode$ = 8						; size = 4
?_Parent@?$_Tree_val@V?$_Tset_traits@PAVioSceneManager@@U?$less@PAVioSceneManager@@@std@@V?$allocator@PAVioSceneManager@@@3@$0A@@std@@@std@@SAAAPAU_Node@?$_Tree_nod@V?$_Tset_traits@PAVioSceneManager@@U?$less@PAVioSceneManager@@@std@@V?$allocator@PAVioSceneManager@@@3@$0A@@std@@@2@PAU342@@Z PROC ; std::_Tree_val<std::_Tset_traits<ioSceneManager *,std::less<ioSceneManager *>,std::allocator<ioSceneManager *>,0> >::_Parent, COMDAT

; 626  : 		{	// return reference to parent pointer in node

  00000	55		 push	 ebp
  00001	8b ec		 mov	 ebp, esp

; 627  : 		return ((_Nodepref)(*_Pnode)._Parent);

  00003	8b 45 08	 mov	 eax, DWORD PTR __Pnode$[ebp]
  00006	83 c0 04	 add	 eax, 4

; 628  : 		}

  00009	5d		 pop	 ebp
  0000a	c3		 ret	 0
?_Parent@?$_Tree_val@V?$_Tset_traits@PAVioSceneManager@@U?$less@PAVioSceneManager@@@std@@V?$allocator@PAVioSceneManager@@@3@$0A@@std@@@std@@SAAAPAU_Node@?$_Tree_nod@V?$_Tset_traits@PAVioSceneManager@@U?$less@PAVioSceneManager@@@std@@V?$allocator@PAVioSceneManager@@@3@$0A@@std@@@2@PAU342@@Z ENDP ; std::_Tree_val<std::_Tset_traits<ioSceneManager *,std::less<ioSceneManager *>,std::allocator<ioSceneManager *>,0> >::_Parent
_TEXT	ENDS
PUBLIC	?_Right@?$_Tree_val@V?$_Tset_traits@PAVioSceneManager@@U?$less@PAVioSceneManager@@@std@@V?$allocator@PAVioSceneManager@@@3@$0A@@std@@@std@@SAAAPAU_Node@?$_Tree_nod@V?$_Tset_traits@PAVioSceneManager@@U?$less@PAVioSceneManager@@@std@@V?$allocator@PAVioSceneManager@@@3@$0A@@std@@@2@PAU342@@Z ; std::_Tree_val<std::_Tset_traits<ioSceneManager *,std::less<ioSceneManager *>,std::allocator<ioSceneManager *>,0> >::_Right
; Function compile flags: /Ogsp
;	COMDAT ?_Right@?$_Tree_val@V?$_Tset_traits@PAVioSceneManager@@U?$less@PAVioSceneManager@@@std@@V?$allocator@PAVioSceneManager@@@3@$0A@@std@@@std@@SAAAPAU_Node@?$_Tree_nod@V?$_Tset_traits@PAVioSceneManager@@U?$less@PAVioSceneManager@@@std@@V?$allocator@PAVioSceneManager@@@3@$0A@@std@@@2@PAU342@@Z
_TEXT	SEGMENT
__Pnode$ = 8						; size = 4
?_Right@?$_Tree_val@V?$_Tset_traits@PAVioSceneManager@@U?$less@PAVioSceneManager@@@std@@V?$allocator@PAVioSceneManager@@@3@$0A@@std@@@std@@SAAAPAU_Node@?$_Tree_nod@V?$_Tset_traits@PAVioSceneManager@@U?$less@PAVioSceneManager@@@std@@V?$allocator@PAVioSceneManager@@@3@$0A@@std@@@2@PAU342@@Z PROC ; std::_Tree_val<std::_Tset_traits<ioSceneManager *,std::less<ioSceneManager *>,std::allocator<ioSceneManager *>,0> >::_Right, COMDAT

; 631  : 		{	// return reference to right pointer in node

  00000	55		 push	 ebp
  00001	8b ec		 mov	 ebp, esp

; 632  : 		return ((_Nodepref)(*_Pnode)._Right);

  00003	8b 45 08	 mov	 eax, DWORD PTR __Pnode$[ebp]
  00006	83 c0 08	 add	 eax, 8

; 633  : 		}

  00009	5d		 pop	 ebp
  0000a	c3		 ret	 0
?_Right@?$_Tree_val@V?$_Tset_traits@PAVioSceneManager@@U?$less@PAVioSceneManager@@@std@@V?$allocator@PAVioSceneManager@@@3@$0A@@std@@@std@@SAAAPAU_Node@?$_Tree_nod@V?$_Tset_traits@PAVioSceneManager@@U?$less@PAVioSceneManager@@@std@@V?$allocator@PAVioSceneManager@@@3@$0A@@std@@@2@PAU342@@Z ENDP ; std::_Tree_val<std::_Tset_traits<ioSceneManager *,std::less<ioSceneManager *>,std::allocator<ioSceneManager *>,0> >::_Right
_TEXT	ENDS
PUBLIC	?_Min@?$_Tree_val@V?$_Tset_traits@PAVioSceneManager@@U?$less@PAVioSceneManager@@@std@@V?$allocator@PAVioSceneManager@@@3@$0A@@std@@@std@@SAPAU_Node@?$_Tree_nod@V?$_Tset_traits@PAVioSceneManager@@U?$less@PAVioSceneManager@@@std@@V?$allocator@PAVioSceneManager@@@3@$0A@@std@@@2@PAU342@@Z ; std::_Tree_val<std::_Tset_traits<ioSceneManager *,std::less<ioSceneManager *>,std::allocator<ioSceneManager *>,0> >::_Min
; Function compile flags: /Ogsp
;	COMDAT ?_Min@?$_Tree_val@V?$_Tset_traits@PAVioSceneManager@@U?$less@PAVioSceneManager@@@std@@V?$allocator@PAVioSceneManager@@@3@$0A@@std@@@std@@SAPAU_Node@?$_Tree_nod@V?$_Tset_traits@PAVioSceneManager@@U?$less@PAVioSceneManager@@@std@@V?$allocator@PAVioSceneManager@@@3@$0A@@std@@@2@PAU342@@Z
_TEXT	SEGMENT
__Pnode$ = 8						; size = 4
?_Min@?$_Tree_val@V?$_Tset_traits@PAVioSceneManager@@U?$less@PAVioSceneManager@@@std@@V?$allocator@PAVioSceneManager@@@3@$0A@@std@@@std@@SAPAU_Node@?$_Tree_nod@V?$_Tset_traits@PAVioSceneManager@@U?$less@PAVioSceneManager@@@std@@V?$allocator@PAVioSceneManager@@@3@$0A@@std@@@2@PAU342@@Z PROC ; std::_Tree_val<std::_Tset_traits<ioSceneManager *,std::less<ioSceneManager *>,std::allocator<ioSceneManager *>,0> >::_Min, COMDAT

; 648  : 		{	// return leftmost node in subtree at _Pnode

  00000	55		 push	 ebp
  00001	8b ec		 mov	 ebp, esp

; 649  : 		while (!_Isnil(_Left(_Pnode)))

  00003	8b 45 08	 mov	 eax, DWORD PTR __Pnode$[ebp]
  00006	eb 02		 jmp	 SHORT $LN14@Min
$LL2@Min:

; 650  : 			_Pnode = _Left(_Pnode);

  00008	8b c1		 mov	 eax, ecx
$LN14@Min:

; 649  : 		while (!_Isnil(_Left(_Pnode)))

  0000a	8b 08		 mov	 ecx, DWORD PTR [eax]
  0000c	80 79 11 00	 cmp	 BYTE PTR [ecx+17], 0
  00010	74 f6		 je	 SHORT $LL2@Min

; 651  : 		return (_Pnode);
; 652  : 		}

  00012	5d		 pop	 ebp
  00013	c3		 ret	 0
?_Min@?$_Tree_val@V?$_Tset_traits@PAVioSceneManager@@U?$less@PAVioSceneManager@@@std@@V?$allocator@PAVioSceneManager@@@3@$0A@@std@@@std@@SAPAU_Node@?$_Tree_nod@V?$_Tset_traits@PAVioSceneManager@@U?$less@PAVioSceneManager@@@std@@V?$allocator@PAVioSceneManager@@@3@$0A@@std@@@2@PAU342@@Z ENDP ; std::_Tree_val<std::_Tset_traits<ioSceneManager *,std::less<ioSceneManager *>,std::allocator<ioSceneManager *>,0> >::_Min
_TEXT	ENDS
PUBLIC	??0?$allocator@PAVioSceneManager@@@std@@QAE@ABV01@@Z ; std::allocator<ioSceneManager *>::allocator<ioSceneManager *>
; Function compile flags: /Ogsp
; File c:\program files (x86)\microsoft visual studio 10.0\vc\include\xmemory
;	COMDAT ??0?$allocator@PAVioSceneManager@@@std@@QAE@ABV01@@Z
_TEXT	SEGMENT
___formal$ = 8						; size = 4
??0?$allocator@PAVioSceneManager@@@std@@QAE@ABV01@@Z PROC ; std::allocator<ioSceneManager *>::allocator<ioSceneManager *>, COMDAT
; _this$ = ecx

; 165  : 	_ALLOCATOR(const _ALLOCATOR<_Ty>&) _THROW0()

  00000	8b c1		 mov	 eax, ecx

; 166  : 		{	// construct by copying (do nothing)
; 167  : 		}

  00002	c2 04 00	 ret	 4
??0?$allocator@PAVioSceneManager@@@std@@QAE@ABV01@@Z ENDP ; std::allocator<ioSceneManager *>::allocator<ioSceneManager *>
_TEXT	ENDS
PUBLIC	?deallocate@?$allocator@U_Node@?$_Tree_nod@V?$_Tset_traits@PAVioSceneManager@@U?$less@PAVioSceneManager@@@std@@V?$allocator@PAVioSceneManager@@@3@$0A@@std@@@std@@@std@@QAEXPAU_Node@?$_Tree_nod@V?$_Tset_traits@PAVioSceneManager@@U?$less@PAVioSceneManager@@@std@@V?$allocator@PAVioSceneManager@@@3@$0A@@std@@@2@I@Z ; std::allocator<std::_Tree_nod<std::_Tset_traits<ioSceneManager *,std::less<ioSceneManager *>,std::allocator<ioSceneManager *>,0> >::_Node>::deallocate
; Function compile flags: /Ogsp
;	COMDAT ?deallocate@?$allocator@U_Node@?$_Tree_nod@V?$_Tset_traits@PAVioSceneManager@@U?$less@PAVioSceneManager@@@std@@V?$allocator@PAVioSceneManager@@@3@$0A@@std@@@std@@@std@@QAEXPAU_Node@?$_Tree_nod@V?$_Tset_traits@PAVioSceneManager@@U?$less@PAVioSceneManager@@@std@@V?$allocator@PAVioSceneManager@@@3@$0A@@std@@@2@I@Z
_TEXT	SEGMENT
__Ptr$ = 8						; size = 4
___formal$ = 12						; size = 4
?deallocate@?$allocator@U_Node@?$_Tree_nod@V?$_Tset_traits@PAVioSceneManager@@U?$less@PAVioSceneManager@@@std@@V?$allocator@PAVioSceneManager@@@3@$0A@@std@@@std@@@std@@QAEXPAU_Node@?$_Tree_nod@V?$_Tset_traits@PAVioSceneManager@@U?$less@PAVioSceneManager@@@std@@V?$allocator@PAVioSceneManager@@@3@$0A@@std@@@2@I@Z PROC ; std::allocator<std::_Tree_nod<std::_Tset_traits<ioSceneManager *,std::less<ioSceneManager *>,std::allocator<ioSceneManager *>,0> >::_Node>::deallocate, COMDAT
; _this$ = ecx

; 181  : 		{	// deallocate object at _Ptr, ignore size

  00000	55		 push	 ebp
  00001	8b ec		 mov	 ebp, esp

; 182  : 		::operator delete(_Ptr);

  00003	ff 75 08	 push	 DWORD PTR __Ptr$[ebp]
  00006	e8 00 00 00 00	 call	 ??3@YAXPAX@Z		; operator delete
  0000b	59		 pop	 ecx

; 183  : 		}

  0000c	5d		 pop	 ebp
  0000d	c2 08 00	 ret	 8
?deallocate@?$allocator@U_Node@?$_Tree_nod@V?$_Tset_traits@PAVioSceneManager@@U?$less@PAVioSceneManager@@@std@@V?$allocator@PAVioSceneManager@@@3@$0A@@std@@@std@@@std@@QAEXPAU_Node@?$_Tree_nod@V?$_Tset_traits@PAVioSceneManager@@U?$less@PAVioSceneManager@@@std@@V?$allocator@PAVioSceneManager@@@3@$0A@@std@@@2@I@Z ENDP ; std::allocator<std::_Tree_nod<std::_Tset_traits<ioSceneManager *,std::less<ioSceneManager *>,std::allocator<ioSceneManager *>,0> >::_Node>::deallocate
_TEXT	ENDS
PUBLIC	??0?$_Tree_unchecked_const_iterator@V?$_Tree_val@V?$_Tset_traits@PAVioSceneManager@@U?$less@PAVioSceneManager@@@std@@V?$allocator@PAVioSceneManager@@@3@$0A@@std@@@std@@U_Iterator_base0@2@@std@@QAE@PAU_Node@?$_Tree_nod@V?$_Tset_traits@PAVioSceneManager@@U?$less@PAVioSceneManager@@@std@@V?$allocator@PAVioSceneManager@@@3@$0A@@std@@@1@PBV?$_Tree_val@V?$_Tset_traits@PAVioSceneManager@@U?$less@PAVioSceneManager@@@std@@V?$allocator@PAVioSceneManager@@@3@$0A@@std@@@1@@Z ; std::_Tree_unchecked_const_iterator<std::_Tree_val<std::_Tset_traits<ioSceneManager *,std::less<ioSceneManager *>,std::allocator<ioSceneManager *>,0> >,std::_Iterator_base0>::_Tree_unchecked_const_iterator<std::_Tree_val<std::_Tset_traits<ioSceneManager *,std::less<ioSceneManager *>,std::allocator<ioSceneManager *>,0> >,std::_Iterator_base0>
; Function compile flags: /Ogsp
; File c:\program files (x86)\microsoft visual studio 10.0\vc\include\xtree
;	COMDAT ??0?$_Tree_unchecked_const_iterator@V?$_Tree_val@V?$_Tset_traits@PAVioSceneManager@@U?$less@PAVioSceneManager@@@std@@V?$allocator@PAVioSceneManager@@@3@$0A@@std@@@std@@U_Iterator_base0@2@@std@@QAE@PAU_Node@?$_Tree_nod@V?$_Tset_traits@PAVioSceneManager@@U?$less@PAVioSceneManager@@@std@@V?$allocator@PAVioSceneManager@@@3@$0A@@std@@@1@PBV?$_Tree_val@V?$_Tset_traits@PAVioSceneManager@@U?$less@PAVioSceneManager@@@std@@V?$allocator@PAVioSceneManager@@@3@$0A@@std@@@1@@Z
_TEXT	SEGMENT
__Pnode$ = 8						; size = 4
__Plist$ = 12						; size = 4
??0?$_Tree_unchecked_const_iterator@V?$_Tree_val@V?$_Tset_traits@PAVioSceneManager@@U?$less@PAVioSceneManager@@@std@@V?$allocator@PAVioSceneManager@@@3@$0A@@std@@@std@@U_Iterator_base0@2@@std@@QAE@PAU_Node@?$_Tree_nod@V?$_Tset_traits@PAVioSceneManager@@U?$less@PAVioSceneManager@@@std@@V?$allocator@PAVioSceneManager@@@3@$0A@@std@@@1@PBV?$_Tree_val@V?$_Tset_traits@PAVioSceneManager@@U?$less@PAVioSceneManager@@@std@@V?$allocator@PAVioSceneManager@@@3@$0A@@std@@@1@@Z PROC ; std::_Tree_unchecked_const_iterator<std::_Tree_val<std::_Tset_traits<ioSceneManager *,std::less<ioSceneManager *>,std::allocator<ioSceneManager *>,0> >,std::_Iterator_base0>::_Tree_unchecked_const_iterator<std::_Tree_val<std::_Tset_traits<ioSceneManager *,std::less<ioSceneManager *>,std::allocator<ioSceneManager *>,0> >,std::_Iterator_base0>, COMDAT
; _this$ = ecx

; 43   : 		{	// construct with node pointer _Pnode

  00000	55		 push	 ebp
  00001	8b ec		 mov	 ebp, esp
  00003	8b c1		 mov	 eax, ecx
  00005	8b 4d 08	 mov	 ecx, DWORD PTR __Pnode$[ebp]
  00008	89 08		 mov	 DWORD PTR [eax], ecx

; 44   : 		this->_Adopt(_Plist);
; 45   : 		}

  0000a	5d		 pop	 ebp
  0000b	c2 08 00	 ret	 8
??0?$_Tree_unchecked_const_iterator@V?$_Tree_val@V?$_Tset_traits@PAVioSceneManager@@U?$less@PAVioSceneManager@@@std@@V?$allocator@PAVioSceneManager@@@3@$0A@@std@@@std@@U_Iterator_base0@2@@std@@QAE@PAU_Node@?$_Tree_nod@V?$_Tset_traits@PAVioSceneManager@@U?$less@PAVioSceneManager@@@std@@V?$allocator@PAVioSceneManager@@@3@$0A@@std@@@1@PBV?$_Tree_val@V?$_Tset_traits@PAVioSceneManager@@U?$less@PAVioSceneManager@@@std@@V?$allocator@PAVioSceneManager@@@3@$0A@@std@@@1@@Z ENDP ; std::_Tree_unchecked_const_iterator<std::_Tree_val<std::_Tset_traits<ioSceneManager *,std::less<ioSceneManager *>,std::allocator<ioSceneManager *>,0> >,std::_Iterator_base0>::_Tree_unchecked_const_iterator<std::_Tree_val<std::_Tset_traits<ioSceneManager *,std::less<ioSceneManager *>,std::allocator<ioSceneManager *>,0> >,std::_Iterator_base0>
_TEXT	ENDS
PUBLIC	?_Rmost@?$_Tree@V?$_Tset_traits@PAVioSceneManager@@U?$less@PAVioSceneManager@@@std@@V?$allocator@PAVioSceneManager@@@3@$0A@@std@@@std@@IBEAAPAU_Node@?$_Tree_nod@V?$_Tset_traits@PAVioSceneManager@@U?$less@PAVioSceneManager@@@std@@V?$allocator@PAVioSceneManager@@@3@$0A@@std@@@2@XZ ; std::_Tree<std::_Tset_traits<ioSceneManager *,std::less<ioSceneManager *>,std::allocator<ioSceneManager *>,0> >::_Rmost
; Function compile flags: /Ogsp
;	COMDAT ?_Rmost@?$_Tree@V?$_Tset_traits@PAVioSceneManager@@U?$less@PAVioSceneManager@@@std@@V?$allocator@PAVioSceneManager@@@3@$0A@@std@@@std@@IBEAAPAU_Node@?$_Tree_nod@V?$_Tset_traits@PAVioSceneManager@@U?$less@PAVioSceneManager@@@std@@V?$allocator@PAVioSceneManager@@@3@$0A@@std@@@2@XZ
_TEXT	SEGMENT
?_Rmost@?$_Tree@V?$_Tset_traits@PAVioSceneManager@@U?$less@PAVioSceneManager@@@std@@V?$allocator@PAVioSceneManager@@@3@$0A@@std@@@std@@IBEAAPAU_Node@?$_Tree_nod@V?$_Tset_traits@PAVioSceneManager@@U?$less@PAVioSceneManager@@@std@@V?$allocator@PAVioSceneManager@@@3@$0A@@std@@@2@XZ PROC ; std::_Tree<std::_Tset_traits<ioSceneManager *,std::less<ioSceneManager *>,std::allocator<ioSceneManager *>,0> >::_Rmost, COMDAT
; _this$ = ecx

; 1784 : 		return (this->_Right(this->_Myhead));

  00000	8b 41 04	 mov	 eax, DWORD PTR [ecx+4]
  00003	83 c0 08	 add	 eax, 8

; 1785 : 		}

  00006	c3		 ret	 0
?_Rmost@?$_Tree@V?$_Tset_traits@PAVioSceneManager@@U?$less@PAVioSceneManager@@@std@@V?$allocator@PAVioSceneManager@@@3@$0A@@std@@@std@@IBEAAPAU_Node@?$_Tree_nod@V?$_Tset_traits@PAVioSceneManager@@U?$less@PAVioSceneManager@@@std@@V?$allocator@PAVioSceneManager@@@3@$0A@@std@@@2@XZ ENDP ; std::_Tree<std::_Tset_traits<ioSceneManager *,std::less<ioSceneManager *>,std::allocator<ioSceneManager *>,0> >::_Rmost
_TEXT	ENDS
PUBLIC	?_Root@?$_Tree@V?$_Tset_traits@PAVioSceneManager@@U?$less@PAVioSceneManager@@@std@@V?$allocator@PAVioSceneManager@@@3@$0A@@std@@@std@@IBEAAPAU_Node@?$_Tree_nod@V?$_Tset_traits@PAVioSceneManager@@U?$less@PAVioSceneManager@@@std@@V?$allocator@PAVioSceneManager@@@3@$0A@@std@@@2@XZ ; std::_Tree<std::_Tset_traits<ioSceneManager *,std::less<ioSceneManager *>,std::allocator<ioSceneManager *>,0> >::_Root
; Function compile flags: /Ogsp
;	COMDAT ?_Root@?$_Tree@V?$_Tset_traits@PAVioSceneManager@@U?$less@PAVioSceneManager@@@std@@V?$allocator@PAVioSceneManager@@@3@$0A@@std@@@std@@IBEAAPAU_Node@?$_Tree_nod@V?$_Tset_traits@PAVioSceneManager@@U?$less@PAVioSceneManager@@@std@@V?$allocator@PAVioSceneManager@@@3@$0A@@std@@@2@XZ
_TEXT	SEGMENT
?_Root@?$_Tree@V?$_Tset_traits@PAVioSceneManager@@U?$less@PAVioSceneManager@@@std@@V?$allocator@PAVioSceneManager@@@3@$0A@@std@@@std@@IBEAAPAU_Node@?$_Tree_nod@V?$_Tset_traits@PAVioSceneManager@@U?$less@PAVioSceneManager@@@std@@V?$allocator@PAVioSceneManager@@@3@$0A@@std@@@2@XZ PROC ; std::_Tree<std::_Tset_traits<ioSceneManager *,std::less<ioSceneManager *>,std::allocator<ioSceneManager *>,0> >::_Root, COMDAT
; _this$ = ecx

; 1789 : 		return (this->_Parent(this->_Myhead));

  00000	8b 41 04	 mov	 eax, DWORD PTR [ecx+4]
  00003	83 c0 04	 add	 eax, 4

; 1790 : 		}

  00006	c3		 ret	 0
?_Root@?$_Tree@V?$_Tset_traits@PAVioSceneManager@@U?$less@PAVioSceneManager@@@std@@V?$allocator@PAVioSceneManager@@@3@$0A@@std@@@std@@IBEAAPAU_Node@?$_Tree_nod@V?$_Tset_traits@PAVioSceneManager@@U?$less@PAVioSceneManager@@@std@@V?$allocator@PAVioSceneManager@@@3@$0A@@std@@@2@XZ ENDP ; std::_Tree<std::_Tset_traits<ioSceneManager *,std::less<ioSceneManager *>,std::allocator<ioSceneManager *>,0> >::_Root
_TEXT	ENDS
PUBLIC	?_Rrotate@?$_Tree@V?$_Tset_traits@PAVioSceneManager@@U?$less@PAVioSceneManager@@@std@@V?$allocator@PAVioSceneManager@@@3@$0A@@std@@@std@@IAEXPAU_Node@?$_Tree_nod@V?$_Tset_traits@PAVioSceneManager@@U?$less@PAVioSceneManager@@@std@@V?$allocator@PAVioSceneManager@@@3@$0A@@std@@@2@@Z ; std::_Tree<std::_Tset_traits<ioSceneManager *,std::less<ioSceneManager *>,std::allocator<ioSceneManager *>,0> >::_Rrotate
; Function compile flags: /Ogsp
;	COMDAT ?_Rrotate@?$_Tree@V?$_Tset_traits@PAVioSceneManager@@U?$less@PAVioSceneManager@@@std@@V?$allocator@PAVioSceneManager@@@3@$0A@@std@@@std@@IAEXPAU_Node@?$_Tree_nod@V?$_Tset_traits@PAVioSceneManager@@U?$less@PAVioSceneManager@@@std@@V?$allocator@PAVioSceneManager@@@3@$0A@@std@@@2@@Z
_TEXT	SEGMENT
__Wherenode$ = 8					; size = 4
?_Rrotate@?$_Tree@V?$_Tset_traits@PAVioSceneManager@@U?$less@PAVioSceneManager@@@std@@V?$allocator@PAVioSceneManager@@@3@$0A@@std@@@std@@IAEXPAU_Node@?$_Tree_nod@V?$_Tset_traits@PAVioSceneManager@@U?$less@PAVioSceneManager@@@std@@V?$allocator@PAVioSceneManager@@@3@$0A@@std@@@2@@Z PROC ; std::_Tree<std::_Tset_traits<ioSceneManager *,std::less<ioSceneManager *>,std::allocator<ioSceneManager *>,0> >::_Rrotate, COMDAT
; _this$ = ecx

; 1793 : 		{	// promote left node to root of subtree

  00000	55		 push	 ebp
  00001	8b ec		 mov	 ebp, esp

; 1794 : 		_Nodeptr _Pnode = this->_Left(_Wherenode);

  00003	8b 55 08	 mov	 edx, DWORD PTR __Wherenode$[ebp]
  00006	8b 02		 mov	 eax, DWORD PTR [edx]
  00008	56		 push	 esi

; 1795 : 		this->_Left(_Wherenode) = this->_Right(_Pnode);

  00009	8b 70 08	 mov	 esi, DWORD PTR [eax+8]
  0000c	89 32		 mov	 DWORD PTR [edx], esi

; 1796 : 
; 1797 : 		if (!this->_Isnil(this->_Right(_Pnode)))

  0000e	8b 70 08	 mov	 esi, DWORD PTR [eax+8]
  00011	80 7e 11 00	 cmp	 BYTE PTR [esi+17], 0
  00015	75 03		 jne	 SHORT $LN5@Rrotate

; 1798 : 			this->_Parent(this->_Right(_Pnode)) = _Wherenode;

  00017	89 56 04	 mov	 DWORD PTR [esi+4], edx
$LN5@Rrotate:

; 1799 : 		this->_Parent(_Pnode) = this->_Parent(_Wherenode);

  0001a	8b 72 04	 mov	 esi, DWORD PTR [edx+4]
  0001d	89 70 04	 mov	 DWORD PTR [eax+4], esi

; 1800 : 
; 1801 : 		if (_Wherenode == _Root())

  00020	8b 49 04	 mov	 ecx, DWORD PTR [ecx+4]
  00023	5e		 pop	 esi
  00024	3b 51 04	 cmp	 edx, DWORD PTR [ecx+4]
  00027	75 05		 jne	 SHORT $LN4@Rrotate

; 1802 : 			_Root() = _Pnode;

  00029	89 41 04	 mov	 DWORD PTR [ecx+4], eax

; 1803 : 		else if (_Wherenode == this->_Right(this->_Parent(_Wherenode)))

  0002c	eb 0f		 jmp	 SHORT $LN1@Rrotate
$LN4@Rrotate:
  0002e	8b 4a 04	 mov	 ecx, DWORD PTR [edx+4]
  00031	3b 51 08	 cmp	 edx, DWORD PTR [ecx+8]
  00034	75 05		 jne	 SHORT $LN2@Rrotate

; 1804 : 			this->_Right(this->_Parent(_Wherenode)) = _Pnode;

  00036	89 41 08	 mov	 DWORD PTR [ecx+8], eax

; 1805 : 		else

  00039	eb 02		 jmp	 SHORT $LN1@Rrotate
$LN2@Rrotate:

; 1806 : 			this->_Left(this->_Parent(_Wherenode)) = _Pnode;

  0003b	89 01		 mov	 DWORD PTR [ecx], eax
$LN1@Rrotate:

; 1807 : 
; 1808 : 		this->_Right(_Pnode) = _Wherenode;

  0003d	89 50 08	 mov	 DWORD PTR [eax+8], edx

; 1809 : 		this->_Parent(_Wherenode) = _Pnode;

  00040	89 42 04	 mov	 DWORD PTR [edx+4], eax

; 1810 : 		}

  00043	5d		 pop	 ebp
  00044	c2 04 00	 ret	 4
?_Rrotate@?$_Tree@V?$_Tset_traits@PAVioSceneManager@@U?$less@PAVioSceneManager@@@std@@V?$allocator@PAVioSceneManager@@@3@$0A@@std@@@std@@IAEXPAU_Node@?$_Tree_nod@V?$_Tset_traits@PAVioSceneManager@@U?$less@PAVioSceneManager@@@std@@V?$allocator@PAVioSceneManager@@@3@$0A@@std@@@2@@Z ENDP ; std::_Tree<std::_Tset_traits<ioSceneManager *,std::less<ioSceneManager *>,std::allocator<ioSceneManager *>,0> >::_Rrotate
_TEXT	ENDS
PUBLIC	?_Color@?$_Tree_val@V?$_Tset_traits@PAVioSceneManager@@U?$less@PAVioSceneManager@@@std@@V?$allocator@PAVioSceneManager@@@3@$0A@@std@@@std@@SAAADPAU_Node@?$_Tree_nod@V?$_Tset_traits@PAVioSceneManager@@U?$less@PAVioSceneManager@@@std@@V?$allocator@PAVioSceneManager@@@3@$0A@@std@@@2@@Z ; std::_Tree_val<std::_Tset_traits<ioSceneManager *,std::less<ioSceneManager *>,std::allocator<ioSceneManager *>,0> >::_Color
; Function compile flags: /Ogsp
;	COMDAT ?_Color@?$_Tree_val@V?$_Tset_traits@PAVioSceneManager@@U?$less@PAVioSceneManager@@@std@@V?$allocator@PAVioSceneManager@@@3@$0A@@std@@@std@@SAAADPAU_Node@?$_Tree_nod@V?$_Tset_traits@PAVioSceneManager@@U?$less@PAVioSceneManager@@@std@@V?$allocator@PAVioSceneManager@@@3@$0A@@std@@@2@@Z
_TEXT	SEGMENT
__Pnode$ = 8						; size = 4
?_Color@?$_Tree_val@V?$_Tset_traits@PAVioSceneManager@@U?$less@PAVioSceneManager@@@std@@V?$allocator@PAVioSceneManager@@@3@$0A@@std@@@std@@SAAADPAU_Node@?$_Tree_nod@V?$_Tset_traits@PAVioSceneManager@@U?$less@PAVioSceneManager@@@std@@V?$allocator@PAVioSceneManager@@@3@$0A@@std@@@2@@Z PROC ; std::_Tree_val<std::_Tset_traits<ioSceneManager *,std::less<ioSceneManager *>,std::allocator<ioSceneManager *>,0> >::_Color, COMDAT

; 606  : 		{	// return reference to color in node

  00000	55		 push	 ebp
  00001	8b ec		 mov	 ebp, esp

; 607  : 		return ((char&)(*_Pnode)._Color);

  00003	8b 45 08	 mov	 eax, DWORD PTR __Pnode$[ebp]
  00006	83 c0 10	 add	 eax, 16			; 00000010H

; 608  : 		}

  00009	5d		 pop	 ebp
  0000a	c3		 ret	 0
?_Color@?$_Tree_val@V?$_Tset_traits@PAVioSceneManager@@U?$less@PAVioSceneManager@@@std@@V?$allocator@PAVioSceneManager@@@3@$0A@@std@@@std@@SAAADPAU_Node@?$_Tree_nod@V?$_Tset_traits@PAVioSceneManager@@U?$less@PAVioSceneManager@@@std@@V?$allocator@PAVioSceneManager@@@3@$0A@@std@@@2@@Z ENDP ; std::_Tree_val<std::_Tset_traits<ioSceneManager *,std::less<ioSceneManager *>,std::allocator<ioSceneManager *>,0> >::_Color
_TEXT	ENDS
PUBLIC	?_Max@?$_Tree_val@V?$_Tset_traits@PAVioSceneManager@@U?$less@PAVioSceneManager@@@std@@V?$allocator@PAVioSceneManager@@@3@$0A@@std@@@std@@SAPAU_Node@?$_Tree_nod@V?$_Tset_traits@PAVioSceneManager@@U?$less@PAVioSceneManager@@@std@@V?$allocator@PAVioSceneManager@@@3@$0A@@std@@@2@PAU342@@Z ; std::_Tree_val<std::_Tset_traits<ioSceneManager *,std::less<ioSceneManager *>,std::allocator<ioSceneManager *>,0> >::_Max
; Function compile flags: /Ogsp
;	COMDAT ?_Max@?$_Tree_val@V?$_Tset_traits@PAVioSceneManager@@U?$less@PAVioSceneManager@@@std@@V?$allocator@PAVioSceneManager@@@3@$0A@@std@@@std@@SAPAU_Node@?$_Tree_nod@V?$_Tset_traits@PAVioSceneManager@@U?$less@PAVioSceneManager@@@std@@V?$allocator@PAVioSceneManager@@@3@$0A@@std@@@2@PAU342@@Z
_TEXT	SEGMENT
__Pnode$ = 8						; size = 4
?_Max@?$_Tree_val@V?$_Tset_traits@PAVioSceneManager@@U?$less@PAVioSceneManager@@@std@@V?$allocator@PAVioSceneManager@@@3@$0A@@std@@@std@@SAPAU_Node@?$_Tree_nod@V?$_Tset_traits@PAVioSceneManager@@U?$less@PAVioSceneManager@@@std@@V?$allocator@PAVioSceneManager@@@3@$0A@@std@@@2@PAU342@@Z PROC ; std::_Tree_val<std::_Tset_traits<ioSceneManager *,std::less<ioSceneManager *>,std::allocator<ioSceneManager *>,0> >::_Max, COMDAT

; 641  : 		{	// return rightmost node in subtree at _Pnode

  00000	55		 push	 ebp
  00001	8b ec		 mov	 ebp, esp

; 642  : 		while (!_Isnil(_Right(_Pnode)))

  00003	8b 45 08	 mov	 eax, DWORD PTR __Pnode$[ebp]
  00006	eb 02		 jmp	 SHORT $LN14@Max
$LL2@Max:

; 643  : 			_Pnode = _Right(_Pnode);

  00008	8b c1		 mov	 eax, ecx
$LN14@Max:

; 642  : 		while (!_Isnil(_Right(_Pnode)))

  0000a	8b 48 08	 mov	 ecx, DWORD PTR [eax+8]
  0000d	80 79 11 00	 cmp	 BYTE PTR [ecx+17], 0
  00011	74 f5		 je	 SHORT $LL2@Max

; 644  : 		return (_Pnode);
; 645  : 		}

  00013	5d		 pop	 ebp
  00014	c3		 ret	 0
?_Max@?$_Tree_val@V?$_Tset_traits@PAVioSceneManager@@U?$less@PAVioSceneManager@@@std@@V?$allocator@PAVioSceneManager@@@3@$0A@@std@@@std@@SAPAU_Node@?$_Tree_nod@V?$_Tset_traits@PAVioSceneManager@@U?$less@PAVioSceneManager@@@std@@V?$allocator@PAVioSceneManager@@@3@$0A@@std@@@2@PAU342@@Z ENDP ; std::_Tree_val<std::_Tset_traits<ioSceneManager *,std::less<ioSceneManager *>,std::allocator<ioSceneManager *>,0> >::_Max
_TEXT	ENDS
PUBLIC	??R?$less@PAVioSceneManager@@@std@@QBE_NABQAVioSceneManager@@0@Z ; std::less<ioSceneManager *>::operator()
; Function compile flags: /Ogsp
; File c:\program files (x86)\microsoft visual studio 10.0\vc\include\xfunctional
;	COMDAT ??R?$less@PAVioSceneManager@@@std@@QBE_NABQAVioSceneManager@@0@Z
_TEXT	SEGMENT
__Left$ = 8						; size = 4
__Right$ = 12						; size = 4
??R?$less@PAVioSceneManager@@@std@@QBE_NABQAVioSceneManager@@0@Z PROC ; std::less<ioSceneManager *>::operator(), COMDAT
; _this$ = ecx

; 124  : 		{	// apply operator< to operands

  00000	55		 push	 ebp
  00001	8b ec		 mov	 ebp, esp

; 125  : 		return (_Left < _Right);

  00003	8b 45 08	 mov	 eax, DWORD PTR __Left$[ebp]
  00006	8b 00		 mov	 eax, DWORD PTR [eax]
  00008	8b 4d 0c	 mov	 ecx, DWORD PTR __Right$[ebp]
  0000b	3b 01		 cmp	 eax, DWORD PTR [ecx]
  0000d	1b c0		 sbb	 eax, eax
  0000f	f7 d8		 neg	 eax

; 126  : 		}

  00011	5d		 pop	 ebp
  00012	c2 08 00	 ret	 8
??R?$less@PAVioSceneManager@@@std@@QBE_NABQAVioSceneManager@@0@Z ENDP ; std::less<ioSceneManager *>::operator()
_TEXT	ENDS
PUBLIC	?_Mynode@?$_Tree_unchecked_const_iterator@V?$_Tree_val@V?$_Tset_traits@PAVioSceneManager@@U?$less@PAVioSceneManager@@@std@@V?$allocator@PAVioSceneManager@@@3@$0A@@std@@@std@@U_Iterator_base0@2@@std@@QBEPAU_Node@?$_Tree_nod@V?$_Tset_traits@PAVioSceneManager@@U?$less@PAVioSceneManager@@@std@@V?$allocator@PAVioSceneManager@@@3@$0A@@std@@@2@XZ ; std::_Tree_unchecked_const_iterator<std::_Tree_val<std::_Tset_traits<ioSceneManager *,std::less<ioSceneManager *>,std::allocator<ioSceneManager *>,0> >,std::_Iterator_base0>::_Mynode
; Function compile flags: /Ogsp
; File c:\program files (x86)\microsoft visual studio 10.0\vc\include\xtree
;	COMDAT ?_Mynode@?$_Tree_unchecked_const_iterator@V?$_Tree_val@V?$_Tset_traits@PAVioSceneManager@@U?$less@PAVioSceneManager@@@std@@V?$allocator@PAVioSceneManager@@@3@$0A@@std@@@std@@U_Iterator_base0@2@@std@@QBEPAU_Node@?$_Tree_nod@V?$_Tset_traits@PAVioSceneManager@@U?$less@PAVioSceneManager@@@std@@V?$allocator@PAVioSceneManager@@@3@$0A@@std@@@2@XZ
_TEXT	SEGMENT
?_Mynode@?$_Tree_unchecked_const_iterator@V?$_Tree_val@V?$_Tset_traits@PAVioSceneManager@@U?$less@PAVioSceneManager@@@std@@V?$allocator@PAVioSceneManager@@@3@$0A@@std@@@std@@U_Iterator_base0@2@@std@@QBEPAU_Node@?$_Tree_nod@V?$_Tset_traits@PAVioSceneManager@@U?$less@PAVioSceneManager@@@std@@V?$allocator@PAVioSceneManager@@@3@$0A@@std@@@2@XZ PROC ; std::_Tree_unchecked_const_iterator<std::_Tree_val<std::_Tset_traits<ioSceneManager *,std::less<ioSceneManager *>,std::allocator<ioSceneManager *>,0> >,std::_Iterator_base0>::_Mynode, COMDAT
; _this$ = ecx

; 122  : 		return (_Ptr);

  00000	8b 01		 mov	 eax, DWORD PTR [ecx]

; 123  : 		}

  00002	c3		 ret	 0
?_Mynode@?$_Tree_unchecked_const_iterator@V?$_Tree_val@V?$_Tset_traits@PAVioSceneManager@@U?$less@PAVioSceneManager@@@std@@V?$allocator@PAVioSceneManager@@@3@$0A@@std@@@std@@U_Iterator_base0@2@@std@@QBEPAU_Node@?$_Tree_nod@V?$_Tset_traits@PAVioSceneManager@@U?$less@PAVioSceneManager@@@std@@V?$allocator@PAVioSceneManager@@@3@$0A@@std@@@2@XZ ENDP ; std::_Tree_unchecked_const_iterator<std::_Tree_val<std::_Tset_traits<ioSceneManager *,std::less<ioSceneManager *>,std::allocator<ioSceneManager *>,0> >,std::_Iterator_base0>::_Mynode
_TEXT	ENDS
PUBLIC	??0?$_List_unchecked_const_iterator@V?$_List_val@PAVioEffect@@V?$allocator@PAVioEffect@@@std@@@std@@U_Iterator_base0@2@@std@@QAE@PAU_Node@?$_List_nod@PAVioEffect@@V?$allocator@PAVioEffect@@@std@@@1@PBV?$_List_val@PAVioEffect@@V?$allocator@PAVioEffect@@@std@@@1@@Z ; std::_List_unchecked_const_iterator<std::_List_val<ioEffect *,std::allocator<ioEffect *> >,std::_Iterator_base0>::_List_unchecked_const_iterator<std::_List_val<ioEffect *,std::allocator<ioEffect *> >,std::_Iterator_base0>
; Function compile flags: /Ogsp
; File c:\program files (x86)\microsoft visual studio 10.0\vc\include\list
;	COMDAT ??0?$_List_unchecked_const_iterator@V?$_List_val@PAVioEffect@@V?$allocator@PAVioEffect@@@std@@@std@@U_Iterator_base0@2@@std@@QAE@PAU_Node@?$_List_nod@PAVioEffect@@V?$allocator@PAVioEffect@@@std@@@1@PBV?$_List_val@PAVioEffect@@V?$allocator@PAVioEffect@@@std@@@1@@Z
_TEXT	SEGMENT
__Pnode$ = 8						; size = 4
__Plist$ = 12						; size = 4
??0?$_List_unchecked_const_iterator@V?$_List_val@PAVioEffect@@V?$allocator@PAVioEffect@@@std@@@std@@U_Iterator_base0@2@@std@@QAE@PAU_Node@?$_List_nod@PAVioEffect@@V?$allocator@PAVioEffect@@@std@@@1@PBV?$_List_val@PAVioEffect@@V?$allocator@PAVioEffect@@@std@@@1@@Z PROC ; std::_List_unchecked_const_iterator<std::_List_val<ioEffect *,std::allocator<ioEffect *> >,std::_Iterator_base0>::_List_unchecked_const_iterator<std::_List_val<ioEffect *,std::allocator<ioEffect *> >,std::_Iterator_base0>, COMDAT
; _this$ = ecx

; 41   : 		{	// construct with node pointer _Pnode

  00000	55		 push	 ebp
  00001	8b ec		 mov	 ebp, esp
  00003	8b c1		 mov	 eax, ecx
  00005	8b 4d 08	 mov	 ecx, DWORD PTR __Pnode$[ebp]
  00008	89 08		 mov	 DWORD PTR [eax], ecx

; 42   : 		this->_Adopt(_Plist);
; 43   : 		}

  0000a	5d		 pop	 ebp
  0000b	c2 08 00	 ret	 8
??0?$_List_unchecked_const_iterator@V?$_List_val@PAVioEffect@@V?$allocator@PAVioEffect@@@std@@@std@@U_Iterator_base0@2@@std@@QAE@PAU_Node@?$_List_nod@PAVioEffect@@V?$allocator@PAVioEffect@@@std@@@1@PBV?$_List_val@PAVioEffect@@V?$allocator@PAVioEffect@@@std@@@1@@Z ENDP ; std::_List_unchecked_const_iterator<std::_List_val<ioEffect *,std::allocator<ioEffect *> >,std::_Iterator_base0>::_List_unchecked_const_iterator<std::_List_val<ioEffect *,std::allocator<ioEffect *> >,std::_Iterator_base0>
_TEXT	ENDS
PUBLIC	?max_size@?$allocator@PAVioEffect@@@std@@QBEIXZ	; std::allocator<ioEffect *>::max_size
; Function compile flags: /Ogsp
; File c:\program files (x86)\microsoft visual studio 10.0\vc\include\xmemory
;	COMDAT ?max_size@?$allocator@PAVioEffect@@@std@@QBEIXZ
_TEXT	SEGMENT
?max_size@?$allocator@PAVioEffect@@@std@@QBEIXZ PROC	; std::allocator<ioEffect *>::max_size, COMDAT
; _this$ = ecx

; 218  : 		_SIZT _Count = (_SIZT)(-1) / sizeof (_Ty);
; 219  : 		return (0 < _Count ? _Count : 1);

  00000	b8 ff ff ff 3f	 mov	 eax, 1073741823		; 3fffffffH

; 220  : 		}

  00005	c3		 ret	 0
?max_size@?$allocator@PAVioEffect@@@std@@QBEIXZ ENDP	; std::allocator<ioEffect *>::max_size
_TEXT	ENDS
PUBLIC	??0?$_Tset_traits@PAVioSceneManager@@U?$less@PAVioSceneManager@@@std@@V?$allocator@PAVioSceneManager@@@3@$0A@@std@@QAE@U?$less@PAVioSceneManager@@@1@@Z ; std::_Tset_traits<ioSceneManager *,std::less<ioSceneManager *>,std::allocator<ioSceneManager *>,0>::_Tset_traits<ioSceneManager *,std::less<ioSceneManager *>,std::allocator<ioSceneManager *>,0>
; Function compile flags: /Ogsp
; File c:\program files (x86)\microsoft visual studio 10.0\vc\include\set
;	COMDAT ??0?$_Tset_traits@PAVioSceneManager@@U?$less@PAVioSceneManager@@@std@@V?$allocator@PAVioSceneManager@@@3@$0A@@std@@QAE@U?$less@PAVioSceneManager@@@1@@Z
_TEXT	SEGMENT
__Parg$ = 8						; size = 1
??0?$_Tset_traits@PAVioSceneManager@@U?$less@PAVioSceneManager@@@std@@V?$allocator@PAVioSceneManager@@@3@$0A@@std@@QAE@U?$less@PAVioSceneManager@@@1@@Z PROC ; std::_Tset_traits<ioSceneManager *,std::less<ioSceneManager *>,std::allocator<ioSceneManager *>,0>::_Tset_traits<ioSceneManager *,std::less<ioSceneManager *>,std::allocator<ioSceneManager *>,0>, COMDAT
; _this$ = ecx

; 39   : 		{	// construct with specified comparator

  00000	8b c1		 mov	 eax, ecx

; 40   : 		}

  00002	c2 04 00	 ret	 4
??0?$_Tset_traits@PAVioSceneManager@@U?$less@PAVioSceneManager@@@std@@V?$allocator@PAVioSceneManager@@@3@$0A@@std@@QAE@U?$less@PAVioSceneManager@@@1@@Z ENDP ; std::_Tset_traits<ioSceneManager *,std::less<ioSceneManager *>,std::allocator<ioSceneManager *>,0>::_Tset_traits<ioSceneManager *,std::less<ioSceneManager *>,std::allocator<ioSceneManager *>,0>
_TEXT	ENDS
PUBLIC	?_Kfn@?$_Tset_traits@PAVioSceneManager@@U?$less@PAVioSceneManager@@@std@@V?$allocator@PAVioSceneManager@@@3@$0A@@std@@SAABQAVioSceneManager@@ABQAV3@@Z ; std::_Tset_traits<ioSceneManager *,std::less<ioSceneManager *>,std::allocator<ioSceneManager *>,0>::_Kfn
; Function compile flags: /Ogsp
;	COMDAT ?_Kfn@?$_Tset_traits@PAVioSceneManager@@U?$less@PAVioSceneManager@@@std@@V?$allocator@PAVioSceneManager@@@3@$0A@@std@@SAABQAVioSceneManager@@ABQAV3@@Z
_TEXT	SEGMENT
__Val$ = 8						; size = 4
?_Kfn@?$_Tset_traits@PAVioSceneManager@@U?$less@PAVioSceneManager@@@std@@V?$allocator@PAVioSceneManager@@@3@$0A@@std@@SAABQAVioSceneManager@@ABQAV3@@Z PROC ; std::_Tset_traits<ioSceneManager *,std::less<ioSceneManager *>,std::allocator<ioSceneManager *>,0>::_Kfn, COMDAT

; 45   : 		{	// extract key from element value

  00000	55		 push	 ebp
  00001	8b ec		 mov	 ebp, esp

; 46   : 		return (_Val);

  00003	8b 45 08	 mov	 eax, DWORD PTR __Val$[ebp]

; 47   : 		}

  00006	5d		 pop	 ebp
  00007	c3		 ret	 0
?_Kfn@?$_Tset_traits@PAVioSceneManager@@U?$less@PAVioSceneManager@@@std@@V?$allocator@PAVioSceneManager@@@3@$0A@@std@@SAABQAVioSceneManager@@ABQAV3@@Z ENDP ; std::_Tset_traits<ioSceneManager *,std::less<ioSceneManager *>,std::allocator<ioSceneManager *>,0>::_Kfn
_TEXT	ENDS
PUBLIC	??$addressof@VioHashString@@@std@@YAPAVioHashString@@AAV1@@Z ; std::addressof<ioHashString>
; Function compile flags: /Ogsp
; File c:\program files (x86)\microsoft visual studio 10.0\vc\include\xmemory
;	COMDAT ??$addressof@VioHashString@@@std@@YAPAVioHashString@@AAV1@@Z
_TEXT	SEGMENT
__Val$ = 8						; size = 4
??$addressof@VioHashString@@@std@@YAPAVioHashString@@AAV1@@Z PROC ; std::addressof<ioHashString>, COMDAT

; 110  : 	{	// return address of _Val

  00000	55		 push	 ebp
  00001	8b ec		 mov	 ebp, esp

; 111  : 	return ((_Ty *) &(char&)_Val);

  00003	8b 45 08	 mov	 eax, DWORD PTR __Val$[ebp]

; 112  : 	}

  00006	5d		 pop	 ebp
  00007	c3		 ret	 0
??$addressof@VioHashString@@@std@@YAPAVioHashString@@AAV1@@Z ENDP ; std::addressof<ioHashString>
_TEXT	ENDS
PUBLIC	??$forward@VioHashString@@@std@@YA$$QAVioHashString@@AAV1@@Z ; std::forward<ioHashString>
; Function compile flags: /Ogsp
; File c:\program files (x86)\microsoft visual studio 10.0\vc\include\utility
;	COMDAT ??$forward@VioHashString@@@std@@YA$$QAVioHashString@@AAV1@@Z
_TEXT	SEGMENT
__Arg$ = 8						; size = 4
??$forward@VioHashString@@@std@@YA$$QAVioHashString@@AAV1@@Z PROC ; std::forward<ioHashString>, COMDAT

; 78   : 	{	// forward _Arg, given explicitly specified type parameter

  00000	55		 push	 ebp
  00001	8b ec		 mov	 ebp, esp

; 79   : 	return ((_Ty&&)_Arg);

  00003	8b 45 08	 mov	 eax, DWORD PTR __Arg$[ebp]

; 80   : 	}

  00006	5d		 pop	 ebp
  00007	c3		 ret	 0
??$forward@VioHashString@@@std@@YA$$QAVioHashString@@AAV1@@Z ENDP ; std::forward<ioHashString>
_TEXT	ENDS
PUBLIC	??$addressof@$$CBVioHashString@@@std@@YAPBVioHashString@@ABV1@@Z ; std::addressof<ioHashString const >
; Function compile flags: /Ogsp
; File c:\program files (x86)\microsoft visual studio 10.0\vc\include\xmemory
;	COMDAT ??$addressof@$$CBVioHashString@@@std@@YAPBVioHashString@@ABV1@@Z
_TEXT	SEGMENT
__Val$ = 8						; size = 4
??$addressof@$$CBVioHashString@@@std@@YAPBVioHashString@@ABV1@@Z PROC ; std::addressof<ioHashString const >, COMDAT

; 110  : 	{	// return address of _Val

  00000	55		 push	 ebp
  00001	8b ec		 mov	 ebp, esp

; 111  : 	return ((_Ty *) &(char&)_Val);

  00003	8b 45 08	 mov	 eax, DWORD PTR __Val$[ebp]

; 112  : 	}

  00006	5d		 pop	 ebp
  00007	c3		 ret	 0
??$addressof@$$CBVioHashString@@@std@@YAPBVioHashString@@ABV1@@Z ENDP ; std::addressof<ioHashString const >
_TEXT	ENDS
PUBLIC	??$addressof@PAVioEffect@@@std@@YAPAPAVioEffect@@AAPAV1@@Z ; std::addressof<ioEffect *>
; Function compile flags: /Ogsp
;	COMDAT ??$addressof@PAVioEffect@@@std@@YAPAPAVioEffect@@AAPAV1@@Z
_TEXT	SEGMENT
__Val$ = 8						; size = 4
??$addressof@PAVioEffect@@@std@@YAPAPAVioEffect@@AAPAV1@@Z PROC ; std::addressof<ioEffect *>, COMDAT

; 110  : 	{	// return address of _Val

  00000	55		 push	 ebp
  00001	8b ec		 mov	 ebp, esp

; 111  : 	return ((_Ty *) &(char&)_Val);

  00003	8b 45 08	 mov	 eax, DWORD PTR __Val$[ebp]

; 112  : 	}

  00006	5d		 pop	 ebp
  00007	c3		 ret	 0
??$addressof@PAVioEffect@@@std@@YAPAPAVioEffect@@AAPAV1@@Z ENDP ; std::addressof<ioEffect *>
_TEXT	ENDS
PUBLIC	??$?0PAVioEffect@@@?$allocator@U_Node@?$_List_nod@PAVioEffect@@V?$allocator@PAVioEffect@@@std@@@std@@@std@@QAE@ABV?$allocator@PAVioEffect@@@1@@Z ; std::allocator<std::_List_nod<ioEffect *,std::allocator<ioEffect *> >::_Node>::allocator<std::_List_nod<ioEffect *,std::allocator<ioEffect *> >::_Node><ioEffect *>
; Function compile flags: /Ogsp
;	COMDAT ??$?0PAVioEffect@@@?$allocator@U_Node@?$_List_nod@PAVioEffect@@V?$allocator@PAVioEffect@@@std@@@std@@@std@@QAE@ABV?$allocator@PAVioEffect@@@1@@Z
_TEXT	SEGMENT
___formal$ = 8						; size = 4
??$?0PAVioEffect@@@?$allocator@U_Node@?$_List_nod@PAVioEffect@@V?$allocator@PAVioEffect@@@std@@@std@@@std@@QAE@ABV?$allocator@PAVioEffect@@@1@@Z PROC ; std::allocator<std::_List_nod<ioEffect *,std::allocator<ioEffect *> >::_Node>::allocator<std::_List_nod<ioEffect *,std::allocator<ioEffect *> >::_Node><ioEffect *>, COMDAT
; _this$ = ecx

; 170  : 		_ALLOCATOR(const _ALLOCATOR<_Other>&) _THROW0()

  00000	8b c1		 mov	 eax, ecx

; 171  : 		{	// construct from a related allocator (do nothing)
; 172  : 		}

  00002	c2 04 00	 ret	 4
??$?0PAVioEffect@@@?$allocator@U_Node@?$_List_nod@PAVioEffect@@V?$allocator@PAVioEffect@@@std@@@std@@@std@@QAE@ABV?$allocator@PAVioEffect@@@1@@Z ENDP ; std::allocator<std::_List_nod<ioEffect *,std::allocator<ioEffect *> >::_Node>::allocator<std::_List_nod<ioEffect *,std::allocator<ioEffect *> >::_Node><ioEffect *>
_TEXT	ENDS
PUBLIC	__TI2?AVbad_alloc@std@@
PUBLIC	??$_Allocate@U_Node@?$_List_nod@PAVioEffect@@V?$allocator@PAVioEffect@@@std@@@std@@@std@@YAPAU_Node@?$_List_nod@PAVioEffect@@V?$allocator@PAVioEffect@@@std@@@0@IPAU120@@Z ; std::_Allocate<std::_List_nod<ioEffect *,std::allocator<ioEffect *> >::_Node>
PUBLIC	__CTA2?AVbad_alloc@std@@
PUBLIC	__CT??_R0?AVbad_alloc@std@@@8??0bad_alloc@std@@QAE@ABV01@@Z12
PUBLIC	??0bad_alloc@std@@QAE@ABV01@@Z			; std::bad_alloc::bad_alloc
PUBLIC	__CT??_R0?AVexception@std@@@8??0exception@std@@QAE@ABV01@@Z12
EXTRN	__CxxThrowException@8:PROC
EXTRN	??0exception@std@@QAE@ABV01@@Z:PROC		; std::exception::exception
;	COMDAT __CT??_R0?AVexception@std@@@8??0exception@std@@QAE@ABV01@@Z12
; File c:\program files (x86)\microsoft visual studio 10.0\vc\include\exception
xdata$x	SEGMENT
__CT??_R0?AVexception@std@@@8??0exception@std@@QAE@ABV01@@Z12 DD 00H
	DD	FLAT:??_R0?AVexception@std@@@8
	DD	00H
	DD	0ffffffffH
	ORG $+4
	DD	0cH
	DD	FLAT:??0exception@std@@QAE@ABV01@@Z
xdata$x	ENDS
;	COMDAT __CT??_R0?AVbad_alloc@std@@@8??0bad_alloc@std@@QAE@ABV01@@Z12
xdata$x	SEGMENT
__CT??_R0?AVbad_alloc@std@@@8??0bad_alloc@std@@QAE@ABV01@@Z12 DD 00H
	DD	FLAT:??_R0?AVbad_alloc@std@@@8
	DD	00H
	DD	0ffffffffH
	ORG $+4
	DD	0cH
	DD	FLAT:??0bad_alloc@std@@QAE@ABV01@@Z
xdata$x	ENDS
;	COMDAT __CTA2?AVbad_alloc@std@@
xdata$x	SEGMENT
__CTA2?AVbad_alloc@std@@ DD 02H
	DD	FLAT:__CT??_R0?AVbad_alloc@std@@@8??0bad_alloc@std@@QAE@ABV01@@Z12
	DD	FLAT:__CT??_R0?AVexception@std@@@8??0exception@std@@QAE@ABV01@@Z12
xdata$x	ENDS
;	COMDAT __TI2?AVbad_alloc@std@@
xdata$x	SEGMENT
__TI2?AVbad_alloc@std@@ DD 00H
	DD	FLAT:??1bad_alloc@std@@UAE@XZ
	DD	00H
	DD	FLAT:__CTA2?AVbad_alloc@std@@
; Function compile flags: /Ogsp
; File c:\program files (x86)\microsoft visual studio 10.0\vc\include\xmemory
xdata$x	ENDS
;	COMDAT ??$_Allocate@U_Node@?$_List_nod@PAVioEffect@@V?$allocator@PAVioEffect@@@std@@@std@@@std@@YAPAU_Node@?$_List_nod@PAVioEffect@@V?$allocator@PAVioEffect@@@std@@@0@IPAU120@@Z
_TEXT	SEGMENT
$T511241 = -12						; size = 12
$T511246 = 8						; size = 4
__Count$ = 8						; size = 4
___formal$ = 12						; size = 4
??$_Allocate@U_Node@?$_List_nod@PAVioEffect@@V?$allocator@PAVioEffect@@@std@@@std@@@std@@YAPAU_Node@?$_List_nod@PAVioEffect@@V?$allocator@PAVioEffect@@@std@@@0@IPAU120@@Z PROC ; std::_Allocate<std::_List_nod<ioEffect *,std::allocator<ioEffect *> >::_Node>, COMDAT

; 30   : 	{	// allocate storage for _Count elements of type _Ty

  00000	55		 push	 ebp
  00001	8b ec		 mov	 ebp, esp

; 31   : 	void *_Ptr = 0;
; 32   : 
; 33   : 	if (_Count <= 0)

  00003	8b 4d 08	 mov	 ecx, DWORD PTR __Count$[ebp]
  00006	83 ec 0c	 sub	 esp, 12			; 0000000cH
  00009	33 c0		 xor	 eax, eax
  0000b	85 c9		 test	 ecx, ecx

; 34   : 		_Count = 0;
; 35   : 	else if (((_SIZT)(-1) / sizeof (_Ty) < _Count)

  0000d	74 3c		 je	 SHORT $LN5@Allocate

; 36   : 		|| (_Ptr = ::operator new(_Count * sizeof (_Ty))) == 0)

  0000f	81 f9 55 55 55
	15		 cmp	 ecx, 357913941		; 15555555H
  00015	77 0e		 ja	 SHORT $LN1@Allocate
  00017	6b c9 0c	 imul	 ecx, 12			; 0000000cH
  0001a	51		 push	 ecx
  0001b	e8 00 00 00 00	 call	 ??2@YAPAXI@Z		; operator new
  00020	59		 pop	 ecx
  00021	85 c0		 test	 eax, eax

; 38   : 
; 39   : 	return ((_Ty _FARQ *)_Ptr);

  00023	75 26		 jne	 SHORT $LN5@Allocate
$LN1@Allocate:

; 37   : 		_THROW_NCEE(bad_alloc, 0);

  00025	83 65 08 00	 and	 DWORD PTR $T511246[ebp], 0
  00029	8d 45 08	 lea	 eax, DWORD PTR $T511246[ebp]
  0002c	50		 push	 eax
  0002d	8d 4d f4	 lea	 ecx, DWORD PTR $T511241[ebp]
  00030	ff 15 00 00 00
	00		 call	 DWORD PTR __imp_??0exception@std@@QAE@ABQBD@Z
  00036	68 00 00 00 00	 push	 OFFSET __TI2?AVbad_alloc@std@@
  0003b	8d 45 f4	 lea	 eax, DWORD PTR $T511241[ebp]
  0003e	50		 push	 eax
  0003f	c7 45 f4 00 00
	00 00		 mov	 DWORD PTR $T511241[ebp], OFFSET ??_7bad_alloc@std@@6B@
  00046	e8 00 00 00 00	 call	 __CxxThrowException@8
$LN10@Allocate:
$LN5@Allocate:

; 40   : 	}

  0004b	c9		 leave
  0004c	c3		 ret	 0
$LN9@Allocate:
??$_Allocate@U_Node@?$_List_nod@PAVioEffect@@V?$allocator@PAVioEffect@@@std@@@std@@@std@@YAPAU_Node@?$_List_nod@PAVioEffect@@V?$allocator@PAVioEffect@@@std@@@0@IPAU120@@Z ENDP ; std::_Allocate<std::_List_nod<ioEffect *,std::allocator<ioEffect *> >::_Node>
_TEXT	ENDS
PUBLIC	??$addressof@PAVioSceneManager@@@std@@YAPAPAVioSceneManager@@AAPAV1@@Z ; std::addressof<ioSceneManager *>
; Function compile flags: /Ogsp
;	COMDAT ??$addressof@PAVioSceneManager@@@std@@YAPAPAVioSceneManager@@AAPAV1@@Z
_TEXT	SEGMENT
__Val$ = 8						; size = 4
??$addressof@PAVioSceneManager@@@std@@YAPAPAVioSceneManager@@AAPAV1@@Z PROC ; std::addressof<ioSceneManager *>, COMDAT

; 110  : 	{	// return address of _Val

  00000	55		 push	 ebp
  00001	8b ec		 mov	 ebp, esp

; 111  : 	return ((_Ty *) &(char&)_Val);

  00003	8b 45 08	 mov	 eax, DWORD PTR __Val$[ebp]

; 112  : 	}

  00006	5d		 pop	 ebp
  00007	c3		 ret	 0
??$addressof@PAVioSceneManager@@@std@@YAPAPAVioSceneManager@@AAPAV1@@Z ENDP ; std::addressof<ioSceneManager *>
_TEXT	ENDS
PUBLIC	??$?0PAVioSceneManager@@@?$allocator@U_Node@?$_Tree_nod@V?$_Tset_traits@PAVioSceneManager@@U?$less@PAVioSceneManager@@@std@@V?$allocator@PAVioSceneManager@@@3@$0A@@std@@@std@@@std@@QAE@ABV?$allocator@PAVioSceneManager@@@1@@Z ; std::allocator<std::_Tree_nod<std::_Tset_traits<ioSceneManager *,std::less<ioSceneManager *>,std::allocator<ioSceneManager *>,0> >::_Node>::allocator<std::_Tree_nod<std::_Tset_traits<ioSceneManager *,std::less<ioSceneManager *>,std::allocator<ioSceneManager *>,0> >::_Node><ioSceneManager *>
; Function compile flags: /Ogsp
;	COMDAT ??$?0PAVioSceneManager@@@?$allocator@U_Node@?$_Tree_nod@V?$_Tset_traits@PAVioSceneManager@@U?$less@PAVioSceneManager@@@std@@V?$allocator@PAVioSceneManager@@@3@$0A@@std@@@std@@@std@@QAE@ABV?$allocator@PAVioSceneManager@@@1@@Z
_TEXT	SEGMENT
___formal$ = 8						; size = 4
??$?0PAVioSceneManager@@@?$allocator@U_Node@?$_Tree_nod@V?$_Tset_traits@PAVioSceneManager@@U?$less@PAVioSceneManager@@@std@@V?$allocator@PAVioSceneManager@@@3@$0A@@std@@@std@@@std@@QAE@ABV?$allocator@PAVioSceneManager@@@1@@Z PROC ; std::allocator<std::_Tree_nod<std::_Tset_traits<ioSceneManager *,std::less<ioSceneManager *>,std::allocator<ioSceneManager *>,0> >::_Node>::allocator<std::_Tree_nod<std::_Tset_traits<ioSceneManager *,std::less<ioSceneManager *>,std::allocator<ioSceneManager *>,0> >::_Node><ioSceneManager *>, COMDAT
; _this$ = ecx

; 170  : 		_ALLOCATOR(const _ALLOCATOR<_Other>&) _THROW0()

  00000	8b c1		 mov	 eax, ecx

; 171  : 		{	// construct from a related allocator (do nothing)
; 172  : 		}

  00002	c2 04 00	 ret	 4
??$?0PAVioSceneManager@@@?$allocator@U_Node@?$_Tree_nod@V?$_Tset_traits@PAVioSceneManager@@U?$less@PAVioSceneManager@@@std@@V?$allocator@PAVioSceneManager@@@3@$0A@@std@@@std@@@std@@QAE@ABV?$allocator@PAVioSceneManager@@@1@@Z ENDP ; std::allocator<std::_Tree_nod<std::_Tset_traits<ioSceneManager *,std::less<ioSceneManager *>,std::allocator<ioSceneManager *>,0> >::_Node>::allocator<std::_Tree_nod<std::_Tset_traits<ioSceneManager *,std::less<ioSceneManager *>,std::allocator<ioSceneManager *>,0> >::_Node><ioSceneManager *>
_TEXT	ENDS
PUBLIC	??$_Allocate@U_Node@?$_Tree_nod@V?$_Tset_traits@PAVioSceneManager@@U?$less@PAVioSceneManager@@@std@@V?$allocator@PAVioSceneManager@@@3@$0A@@std@@@std@@@std@@YAPAU_Node@?$_Tree_nod@V?$_Tset_traits@PAVioSceneManager@@U?$less@PAVioSceneManager@@@std@@V?$allocator@PAVioSceneManager@@@3@$0A@@std@@@0@IPAU120@@Z ; std::_Allocate<std::_Tree_nod<std::_Tset_traits<ioSceneManager *,std::less<ioSceneManager *>,std::allocator<ioSceneManager *>,0> >::_Node>
; Function compile flags: /Ogsp
;	COMDAT ??$_Allocate@U_Node@?$_Tree_nod@V?$_Tset_traits@PAVioSceneManager@@U?$less@PAVioSceneManager@@@std@@V?$allocator@PAVioSceneManager@@@3@$0A@@std@@@std@@@std@@YAPAU_Node@?$_Tree_nod@V?$_Tset_traits@PAVioSceneManager@@U?$less@PAVioSceneManager@@@std@@V?$allocator@PAVioSceneManager@@@3@$0A@@std@@@0@IPAU120@@Z
_TEXT	SEGMENT
$T511256 = -12						; size = 12
$T511260 = 8						; size = 4
__Count$ = 8						; size = 4
___formal$ = 12						; size = 4
??$_Allocate@U_Node@?$_Tree_nod@V?$_Tset_traits@PAVioSceneManager@@U?$less@PAVioSceneManager@@@std@@V?$allocator@PAVioSceneManager@@@3@$0A@@std@@@std@@@std@@YAPAU_Node@?$_Tree_nod@V?$_Tset_traits@PAVioSceneManager@@U?$less@PAVioSceneManager@@@std@@V?$allocator@PAVioSceneManager@@@3@$0A@@std@@@0@IPAU120@@Z PROC ; std::_Allocate<std::_Tree_nod<std::_Tset_traits<ioSceneManager *,std::less<ioSceneManager *>,std::allocator<ioSceneManager *>,0> >::_Node>, COMDAT

; 30   : 	{	// allocate storage for _Count elements of type _Ty

  00000	55		 push	 ebp
  00001	8b ec		 mov	 ebp, esp

; 31   : 	void *_Ptr = 0;
; 32   : 
; 33   : 	if (_Count <= 0)

  00003	8b 4d 08	 mov	 ecx, DWORD PTR __Count$[ebp]
  00006	83 ec 0c	 sub	 esp, 12			; 0000000cH
  00009	33 c0		 xor	 eax, eax
  0000b	85 c9		 test	 ecx, ecx

; 34   : 		_Count = 0;
; 35   : 	else if (((_SIZT)(-1) / sizeof (_Ty) < _Count)

  0000d	74 3c		 je	 SHORT $LN5@Allocate@2

; 36   : 		|| (_Ptr = ::operator new(_Count * sizeof (_Ty))) == 0)

  0000f	81 f9 cc cc cc
	0c		 cmp	 ecx, 214748364		; 0cccccccH
  00015	77 0e		 ja	 SHORT $LN1@Allocate@2
  00017	6b c9 14	 imul	 ecx, 20			; 00000014H
  0001a	51		 push	 ecx
  0001b	e8 00 00 00 00	 call	 ??2@YAPAXI@Z		; operator new
  00020	59		 pop	 ecx
  00021	85 c0		 test	 eax, eax

; 38   : 
; 39   : 	return ((_Ty _FARQ *)_Ptr);

  00023	75 26		 jne	 SHORT $LN5@Allocate@2
$LN1@Allocate@2:

; 37   : 		_THROW_NCEE(bad_alloc, 0);

  00025	83 65 08 00	 and	 DWORD PTR $T511260[ebp], 0
  00029	8d 45 08	 lea	 eax, DWORD PTR $T511260[ebp]
  0002c	50		 push	 eax
  0002d	8d 4d f4	 lea	 ecx, DWORD PTR $T511256[ebp]
  00030	ff 15 00 00 00
	00		 call	 DWORD PTR __imp_??0exception@std@@QAE@ABQBD@Z
  00036	68 00 00 00 00	 push	 OFFSET __TI2?AVbad_alloc@std@@
  0003b	8d 45 f4	 lea	 eax, DWORD PTR $T511256[ebp]
  0003e	50		 push	 eax
  0003f	c7 45 f4 00 00
	00 00		 mov	 DWORD PTR $T511256[ebp], OFFSET ??_7bad_alloc@std@@6B@
  00046	e8 00 00 00 00	 call	 __CxxThrowException@8
$LN10@Allocate@2:
$LN5@Allocate@2:

; 40   : 	}

  0004b	c9		 leave
  0004c	c3		 ret	 0
$LN9@Allocate@2:
??$_Allocate@U_Node@?$_Tree_nod@V?$_Tset_traits@PAVioSceneManager@@U?$less@PAVioSceneManager@@@std@@V?$allocator@PAVioSceneManager@@@3@$0A@@std@@@std@@@std@@YAPAU_Node@?$_Tree_nod@V?$_Tset_traits@PAVioSceneManager@@U?$less@PAVioSceneManager@@@std@@V?$allocator@PAVioSceneManager@@@3@$0A@@std@@@0@IPAU120@@Z ENDP ; std::_Allocate<std::_Tree_nod<std::_Tset_traits<ioSceneManager *,std::less<ioSceneManager *>,std::allocator<ioSceneManager *>,0> >::_Node>
_TEXT	ENDS
PUBLIC	?construct@?$allocator@VioHashString@@@std@@QAEXPAVioHashString@@$$QAV3@@Z ; std::allocator<ioHashString>::construct
EXTRN	__imp_??0ioHashString@@QAE@ABV0@@Z:PROC
;	COMDAT xdata$x
; File c:\program files (x86)\microsoft visual studio 10.0\vc\include\utility
xdata$x	SEGMENT
__unwindtable$?construct@?$allocator@VioHashString@@@std@@QAEXPAVioHashString@@$$QAV3@@Z DD 0ffffffffH
	DD	FLAT:__unwindfunclet$?construct@?$allocator@VioHashString@@@std@@QAEXPAVioHashString@@$$QAV3@@Z$0
__ehfuncinfo$?construct@?$allocator@VioHashString@@@std@@QAEXPAVioHashString@@$$QAV3@@Z DD 019930522H
	DD	01H
	DD	FLAT:__unwindtable$?construct@?$allocator@VioHashString@@@std@@QAEXPAVioHashString@@$$QAV3@@Z
	DD	2 DUP(00H)
	DD	2 DUP(00H)
	DD	00H
	DD	01H
; Function compile flags: /Ogsp
; File c:\program files (x86)\microsoft visual studio 10.0\vc\include\xmemory
xdata$x	ENDS
;	COMDAT ?construct@?$allocator@VioHashString@@@std@@QAEXPAVioHashString@@$$QAV3@@Z
_TEXT	SEGMENT
$T511266 = -16						; size = 4
__$EHRec$ = -12						; size = 12
__Ptr$ = 8						; size = 4
__Val$ = 12						; size = 4
?construct@?$allocator@VioHashString@@@std@@QAEXPAVioHashString@@$$QAV3@@Z PROC ; std::allocator<ioHashString>::construct, COMDAT
; _this$ = ecx

; 201  : 		{	// construct object at _Ptr with value _Val

  00000	6a 04		 push	 4
  00002	b8 00 00 00 00	 mov	 eax, __ehhandler$?construct@?$allocator@VioHashString@@@std@@QAEXPAVioHashString@@$$QAV3@@Z
  00007	e8 00 00 00 00	 call	 __EH_prolog3

; 202  : 		::new ((void _FARQ *)_Ptr) _Ty(_STD forward<_Ty>(_Val));

  0000c	8b 4d 08	 mov	 ecx, DWORD PTR __Ptr$[ebp]
  0000f	89 4d f0	 mov	 DWORD PTR $T511266[ebp], ecx
  00012	83 65 fc 00	 and	 DWORD PTR __$EHRec$[ebp+8], 0
  00016	85 c9		 test	 ecx, ecx
  00018	74 09		 je	 SHORT $LN3@construct
  0001a	ff 75 0c	 push	 DWORD PTR __Val$[ebp]
  0001d	ff 15 00 00 00
	00		 call	 DWORD PTR __imp_??0ioHashString@@QAE@ABV0@@Z
$LN3@construct:

; 203  : 		}

  00023	e8 00 00 00 00	 call	 __EH_epilog3
  00028	c2 08 00	 ret	 8
_TEXT	ENDS
;	COMDAT text$x
text$x	SEGMENT
__unwindfunclet$?construct@?$allocator@VioHashString@@@std@@QAEXPAVioHashString@@$$QAV3@@Z$0:
  00000	ff 75 08	 push	 DWORD PTR __Ptr$[ebp]
  00003	ff 75 f0	 push	 DWORD PTR $T511266[ebp]
  00006	e8 00 00 00 00	 call	 ??3@YAXPAX0@Z		; operator delete
  0000b	59		 pop	 ecx
  0000c	59		 pop	 ecx
  0000d	c3		 ret	 0
__ehhandler$?construct@?$allocator@VioHashString@@@std@@QAEXPAVioHashString@@$$QAV3@@Z:
  0000e	8b 54 24 08	 mov	 edx, DWORD PTR [esp+8]
  00012	8d 42 0c	 lea	 eax, DWORD PTR [edx+12]
  00015	8b 4a ec	 mov	 ecx, DWORD PTR [edx-20]
  00018	33 c8		 xor	 ecx, eax
  0001a	e8 00 00 00 00	 call	 @__security_check_cookie@4
  0001f	b8 00 00 00 00	 mov	 eax, OFFSET __ehfuncinfo$?construct@?$allocator@VioHashString@@@std@@QAEXPAVioHashString@@$$QAV3@@Z
  00024	e9 00 00 00 00	 jmp	 ___CxxFrameHandler3
text$x	ENDS
?construct@?$allocator@VioHashString@@@std@@QAEXPAVioHashString@@$$QAV3@@Z ENDP ; std::allocator<ioHashString>::construct
PUBLIC	??0D3DXVECTOR3@@QAE@XZ				; D3DXVECTOR3::D3DXVECTOR3
; Function compile flags: /Ogsp
; File c:\program files (x86)\microsoft directx sdk (june 2010)\include\d3dx9math.h
;	COMDAT ??0D3DXVECTOR3@@QAE@XZ
_TEXT	SEGMENT
??0D3DXVECTOR3@@QAE@XZ PROC				; D3DXVECTOR3::D3DXVECTOR3, COMDAT
; _this$ = ecx

; 165  :     D3DXVECTOR3() {};

  00000	8b c1		 mov	 eax, ecx
  00002	c3		 ret	 0
??0D3DXVECTOR3@@QAE@XZ ENDP				; D3DXVECTOR3::D3DXVECTOR3
_TEXT	ENDS
PUBLIC	??0D3DXMATRIX@@QAE@XZ				; D3DXMATRIX::D3DXMATRIX
; Function compile flags: /Ogsp
;	COMDAT ??0D3DXMATRIX@@QAE@XZ
_TEXT	SEGMENT
??0D3DXMATRIX@@QAE@XZ PROC				; D3DXMATRIX::D3DXMATRIX, COMDAT
; _this$ = ecx

; 315  :     D3DXMATRIX() {};

  00000	8b c1		 mov	 eax, ecx
  00002	c3		 ret	 0
??0D3DXMATRIX@@QAE@XZ ENDP				; D3DXMATRIX::D3DXMATRIX
_TEXT	ENDS
PUBLIC	??F?$_Tree_unchecked_const_iterator@V?$_Tree_val@V?$_Tset_traits@PAVioSceneManager@@U?$less@PAVioSceneManager@@@std@@V?$allocator@PAVioSceneManager@@@3@$0A@@std@@@std@@U_Iterator_base0@2@@std@@QAEAAV01@XZ ; std::_Tree_unchecked_const_iterator<std::_Tree_val<std::_Tset_traits<ioSceneManager *,std::less<ioSceneManager *>,std::allocator<ioSceneManager *>,0> >,std::_Iterator_base0>::operator--
; Function compile flags: /Ogsp
; File c:\program files (x86)\microsoft visual studio 10.0\vc\include\xtree
;	COMDAT ??F?$_Tree_unchecked_const_iterator@V?$_Tree_val@V?$_Tset_traits@PAVioSceneManager@@U?$less@PAVioSceneManager@@@std@@V?$allocator@PAVioSceneManager@@@3@$0A@@std@@@std@@U_Iterator_base0@2@@std@@QAEAAV01@XZ
_TEXT	SEGMENT
??F?$_Tree_unchecked_const_iterator@V?$_Tree_val@V?$_Tset_traits@PAVioSceneManager@@U?$less@PAVioSceneManager@@@std@@V?$allocator@PAVioSceneManager@@@3@$0A@@std@@@std@@U_Iterator_base0@2@@std@@QAEAAV01@XZ PROC ; std::_Tree_unchecked_const_iterator<std::_Tree_val<std::_Tset_traits<ioSceneManager *,std::less<ioSceneManager *>,std::allocator<ioSceneManager *>,0> >,std::_Iterator_base0>::operator--, COMDAT
; _this$ = ecx

; 83   : 		{	// predecrement

  00000	8b c1		 mov	 eax, ecx

; 84   : 		if (_Mytree::_Isnil(_Ptr))

  00002	8b 08		 mov	 ecx, DWORD PTR [eax]
  00004	53		 push	 ebx
  00005	32 db		 xor	 bl, bl
  00007	38 59 11	 cmp	 BYTE PTR [ecx+17], bl
  0000a	74 07		 je	 SHORT $LN8@operator

; 85   : 			_Ptr = _Mytree::_Right(_Ptr);	// end() ==> rightmost

  0000c	8b 49 08	 mov	 ecx, DWORD PTR [ecx+8]
  0000f	89 08		 mov	 DWORD PTR [eax], ecx
  00011	5b		 pop	 ebx

; 99   : 			}
; 100  : 		return (*this);
; 101  : 		}

  00012	c3		 ret	 0
$LN8@operator:

; 86   : 		else if (!_Mytree::_Isnil(_Mytree::_Left(_Ptr)))

  00013	8b 11		 mov	 edx, DWORD PTR [ecx]
  00015	38 5a 11	 cmp	 BYTE PTR [edx+17], bl
  00018	74 07		 je	 SHORT $LN44@operator

; 90   : 			{	// climb looking for left subtree
; 91   : 			_Nodeptr _Pnode;
; 92   : 			while (!_Mytree::_Isnil(_Pnode = _Mytree::_Parent(_Ptr))
; 93   : 				&& _Ptr == _Mytree::_Left(_Pnode))

  0001a	8b 51 04	 mov	 edx, DWORD PTR [ecx+4]
  0001d	eb 17		 jmp	 SHORT $LN46@operator

; 87   : 			_Ptr = _Mytree::_Max(
; 88   : 				_Mytree::_Left(_Ptr));	// ==> largest of left subtree

$LL22@operator:
  0001f	8b d1		 mov	 edx, ecx
$LN44@operator:
  00021	8b 4a 08	 mov	 ecx, DWORD PTR [edx+8]
  00024	38 59 11	 cmp	 BYTE PTR [ecx+17], bl
  00027	74 f6		 je	 SHORT $LL22@operator

; 89   : 		else

  00029	eb 17		 jmp	 SHORT $LN45@operator
$LL4@operator:

; 90   : 			{	// climb looking for left subtree
; 91   : 			_Nodeptr _Pnode;
; 92   : 			while (!_Mytree::_Isnil(_Pnode = _Mytree::_Parent(_Ptr))
; 93   : 				&& _Ptr == _Mytree::_Left(_Pnode))

  0002b	8b 08		 mov	 ecx, DWORD PTR [eax]
  0002d	3b 0a		 cmp	 ecx, DWORD PTR [edx]
  0002f	75 0a		 jne	 SHORT $LN3@operator

; 94   : 				_Ptr = _Pnode;	// ==> parent while left subtree

  00031	89 10		 mov	 DWORD PTR [eax], edx
  00033	8b 52 04	 mov	 edx, DWORD PTR [edx+4]
$LN46@operator:

; 90   : 			{	// climb looking for left subtree
; 91   : 			_Nodeptr _Pnode;
; 92   : 			while (!_Mytree::_Isnil(_Pnode = _Mytree::_Parent(_Ptr))
; 93   : 				&& _Ptr == _Mytree::_Left(_Pnode))

  00036	38 5a 11	 cmp	 BYTE PTR [edx+17], bl
  00039	74 f0		 je	 SHORT $LL4@operator
$LN3@operator:

; 95   : 			if (_Mytree::_Isnil(_Ptr))

  0003b	8b 08		 mov	 ecx, DWORD PTR [eax]
  0003d	38 59 11	 cmp	 BYTE PTR [ecx+17], bl
  00040	75 02		 jne	 SHORT $LN1@operator
$LN45@operator:

; 96   : 				;	// begin() shouldn't be decremented, don't move
; 97   : 			else
; 98   : 				_Ptr = _Pnode;	// ==> parent if not head

  00042	89 10		 mov	 DWORD PTR [eax], edx
$LN1@operator:
  00044	5b		 pop	 ebx

; 99   : 			}
; 100  : 		return (*this);
; 101  : 		}

  00045	c3		 ret	 0
??F?$_Tree_unchecked_const_iterator@V?$_Tree_val@V?$_Tset_traits@PAVioSceneManager@@U?$less@PAVioSceneManager@@@std@@V?$allocator@PAVioSceneManager@@@3@$0A@@std@@@std@@U_Iterator_base0@2@@std@@QAEAAV01@XZ ENDP ; std::_Tree_unchecked_const_iterator<std::_Tree_val<std::_Tset_traits<ioSceneManager *,std::less<ioSceneManager *>,std::allocator<ioSceneManager *>,0> >,std::_Iterator_base0>::operator--
_TEXT	ENDS
PUBLIC	?max_size@?$allocator@PAVioSceneManager@@@std@@QBEIXZ ; std::allocator<ioSceneManager *>::max_size
; Function compile flags: /Ogsp
; File c:\program files (x86)\microsoft visual studio 10.0\vc\include\xmemory
;	COMDAT ?max_size@?$allocator@PAVioSceneManager@@@std@@QBEIXZ
_TEXT	SEGMENT
?max_size@?$allocator@PAVioSceneManager@@@std@@QBEIXZ PROC ; std::allocator<ioSceneManager *>::max_size, COMDAT
; _this$ = ecx

; 218  : 		_SIZT _Count = (_SIZT)(-1) / sizeof (_Ty);
; 219  : 		return (0 < _Count ? _Count : 1);

  00000	b8 ff ff ff 3f	 mov	 eax, 1073741823		; 3fffffffH

; 220  : 		}

  00005	c3		 ret	 0
?max_size@?$allocator@PAVioSceneManager@@@std@@QBEIXZ ENDP ; std::allocator<ioSceneManager *>::max_size
_TEXT	ENDS
PUBLIC	??$forward@AAPAVioSceneManager@@@std@@YAAAPAVioSceneManager@@AAPAV1@@Z ; std::forward<ioSceneManager * &>
; Function compile flags: /Ogsp
; File c:\program files (x86)\microsoft visual studio 10.0\vc\include\utility
;	COMDAT ??$forward@AAPAVioSceneManager@@@std@@YAAAPAVioSceneManager@@AAPAV1@@Z
_TEXT	SEGMENT
__Arg$ = 8						; size = 4
??$forward@AAPAVioSceneManager@@@std@@YAAAPAVioSceneManager@@AAPAV1@@Z PROC ; std::forward<ioSceneManager * &>, COMDAT

; 78   : 	{	// forward _Arg, given explicitly specified type parameter

  00000	55		 push	 ebp
  00001	8b ec		 mov	 ebp, esp

; 79   : 	return ((_Ty&&)_Arg);

  00003	8b 45 08	 mov	 eax, DWORD PTR __Arg$[ebp]

; 80   : 	}

  00006	5d		 pop	 ebp
  00007	c3		 ret	 0
??$forward@AAPAVioSceneManager@@@std@@YAAAPAVioSceneManager@@AAPAV1@@Z ENDP ; std::forward<ioSceneManager * &>
_TEXT	ENDS
PUBLIC	??$_Iter_cat@V?$_Tree_const_iterator@V?$_Tree_val@V?$_Tset_traits@PAVioSceneManager@@U?$less@PAVioSceneManager@@@std@@V?$allocator@PAVioSceneManager@@@3@$0A@@std@@@std@@@std@@@std@@YA?AUbidirectional_iterator_tag@0@ABV?$_Tree_const_iterator@V?$_Tree_val@V?$_Tset_traits@PAVioSceneManager@@U?$less@PAVioSceneManager@@@std@@V?$allocator@PAVioSceneManager@@@3@$0A@@std@@@std@@@0@@Z ; std::_Iter_cat<std::_Tree_const_iterator<std::_Tree_val<std::_Tset_traits<ioSceneManager *,std::less<ioSceneManager *>,std::allocator<ioSceneManager *>,0> > > >
; Function compile flags: /Ogsp
; File c:\program files (x86)\microsoft visual studio 10.0\vc\include\xutility
;	COMDAT ??$_Iter_cat@V?$_Tree_const_iterator@V?$_Tree_val@V?$_Tset_traits@PAVioSceneManager@@U?$less@PAVioSceneManager@@@std@@V?$allocator@PAVioSceneManager@@@3@$0A@@std@@@std@@@std@@@std@@YA?AUbidirectional_iterator_tag@0@ABV?$_Tree_const_iterator@V?$_Tree_val@V?$_Tset_traits@PAVioSceneManager@@U?$less@PAVioSceneManager@@@std@@V?$allocator@PAVioSceneManager@@@3@$0A@@std@@@std@@@0@@Z
_TEXT	SEGMENT
___$ReturnUdt$ = 8					; size = 4
___formal$ = 12						; size = 4
??$_Iter_cat@V?$_Tree_const_iterator@V?$_Tree_val@V?$_Tset_traits@PAVioSceneManager@@U?$less@PAVioSceneManager@@@std@@V?$allocator@PAVioSceneManager@@@3@$0A@@std@@@std@@@std@@@std@@YA?AUbidirectional_iterator_tag@0@ABV?$_Tree_const_iterator@V?$_Tree_val@V?$_Tset_traits@PAVioSceneManager@@U?$less@PAVioSceneManager@@@std@@V?$allocator@PAVioSceneManager@@@3@$0A@@std@@@std@@@0@@Z PROC ; std::_Iter_cat<std::_Tree_const_iterator<std::_Tree_val<std::_Tset_traits<ioSceneManager *,std::less<ioSceneManager *>,std::allocator<ioSceneManager *>,0> > > >, COMDAT

; 476  : 	{	// return category from iterator argument

  00000	55		 push	 ebp
  00001	8b ec		 mov	 ebp, esp

; 477  : 	typename iterator_traits<_Iter>::iterator_category _Cat;
; 478  : 	return (_Cat);

  00003	8b 45 08	 mov	 eax, DWORD PTR ___$ReturnUdt$[ebp]

; 479  : 	}

  00006	5d		 pop	 ebp
  00007	c3		 ret	 0
??$_Iter_cat@V?$_Tree_const_iterator@V?$_Tree_val@V?$_Tset_traits@PAVioSceneManager@@U?$less@PAVioSceneManager@@@std@@V?$allocator@PAVioSceneManager@@@3@$0A@@std@@@std@@@std@@@std@@YA?AUbidirectional_iterator_tag@0@ABV?$_Tree_const_iterator@V?$_Tree_val@V?$_Tset_traits@PAVioSceneManager@@U?$less@PAVioSceneManager@@@std@@V?$allocator@PAVioSceneManager@@@3@$0A@@std@@@std@@@0@@Z ENDP ; std::_Iter_cat<std::_Tree_const_iterator<std::_Tree_val<std::_Tset_traits<ioSceneManager *,std::less<ioSceneManager *>,std::allocator<ioSceneManager *>,0> > > >
_TEXT	ENDS
PUBLIC	??$forward@ABQAVioEffect@@@std@@YAABQAVioEffect@@ABQAV1@@Z ; std::forward<ioEffect * const &>
; Function compile flags: /Ogsp
; File c:\program files (x86)\microsoft visual studio 10.0\vc\include\utility
;	COMDAT ??$forward@ABQAVioEffect@@@std@@YAABQAVioEffect@@ABQAV1@@Z
_TEXT	SEGMENT
__Arg$ = 8						; size = 4
??$forward@ABQAVioEffect@@@std@@YAABQAVioEffect@@ABQAV1@@Z PROC ; std::forward<ioEffect * const &>, COMDAT

; 78   : 	{	// forward _Arg, given explicitly specified type parameter

  00000	55		 push	 ebp
  00001	8b ec		 mov	 ebp, esp

; 79   : 	return ((_Ty&&)_Arg);

  00003	8b 45 08	 mov	 eax, DWORD PTR __Arg$[ebp]

; 80   : 	}

  00006	5d		 pop	 ebp
  00007	c3		 ret	 0
??$forward@ABQAVioEffect@@@std@@YAABQAVioEffect@@ABQAV1@@Z ENDP ; std::forward<ioEffect * const &>
_TEXT	ENDS
PUBLIC	??$forward@AAV?$_Tree_const_iterator@V?$_Tree_val@V?$_Tset_traits@PAVioSceneManager@@U?$less@PAVioSceneManager@@@std@@V?$allocator@PAVioSceneManager@@@3@$0A@@std@@@std@@@std@@@std@@YAAAV?$_Tree_const_iterator@V?$_Tree_val@V?$_Tset_traits@PAVioSceneManager@@U?$less@PAVioSceneManager@@@std@@V?$allocator@PAVioSceneManager@@@3@$0A@@std@@@std@@@0@AAV10@@Z ; std::forward<std::_Tree_const_iterator<std::_Tree_val<std::_Tset_traits<ioSceneManager *,std::less<ioSceneManager *>,std::allocator<ioSceneManager *>,0> > > &>
; Function compile flags: /Ogsp
;	COMDAT ??$forward@AAV?$_Tree_const_iterator@V?$_Tree_val@V?$_Tset_traits@PAVioSceneManager@@U?$less@PAVioSceneManager@@@std@@V?$allocator@PAVioSceneManager@@@3@$0A@@std@@@std@@@std@@@std@@YAAAV?$_Tree_const_iterator@V?$_Tree_val@V?$_Tset_traits@PAVioSceneManager@@U?$less@PAVioSceneManager@@@std@@V?$allocator@PAVioSceneManager@@@3@$0A@@std@@@std@@@0@AAV10@@Z
_TEXT	SEGMENT
__Arg$ = 8						; size = 4
??$forward@AAV?$_Tree_const_iterator@V?$_Tree_val@V?$_Tset_traits@PAVioSceneManager@@U?$less@PAVioSceneManager@@@std@@V?$allocator@PAVioSceneManager@@@3@$0A@@std@@@std@@@std@@@std@@YAAAV?$_Tree_const_iterator@V?$_Tree_val@V?$_Tset_traits@PAVioSceneManager@@U?$less@PAVioSceneManager@@@std@@V?$allocator@PAVioSceneManager@@@3@$0A@@std@@@std@@@0@AAV10@@Z PROC ; std::forward<std::_Tree_const_iterator<std::_Tree_val<std::_Tset_traits<ioSceneManager *,std::less<ioSceneManager *>,std::allocator<ioSceneManager *>,0> > > &>, COMDAT

; 78   : 	{	// forward _Arg, given explicitly specified type parameter

  00000	55		 push	 ebp
  00001	8b ec		 mov	 ebp, esp

; 79   : 	return ((_Ty&&)_Arg);

  00003	8b 45 08	 mov	 eax, DWORD PTR __Arg$[ebp]

; 80   : 	}

  00006	5d		 pop	 ebp
  00007	c3		 ret	 0
??$forward@AAV?$_Tree_const_iterator@V?$_Tree_val@V?$_Tset_traits@PAVioSceneManager@@U?$less@PAVioSceneManager@@@std@@V?$allocator@PAVioSceneManager@@@3@$0A@@std@@@std@@@std@@@std@@YAAAV?$_Tree_const_iterator@V?$_Tree_val@V?$_Tset_traits@PAVioSceneManager@@U?$less@PAVioSceneManager@@@std@@V?$allocator@PAVioSceneManager@@@3@$0A@@std@@@std@@@0@AAV10@@Z ENDP ; std::forward<std::_Tree_const_iterator<std::_Tree_val<std::_Tset_traits<ioSceneManager *,std::less<ioSceneManager *>,std::allocator<ioSceneManager *>,0> > > &>
_TEXT	ENDS
PUBLIC	??$?0AAV?$_Tree_const_iterator@V?$_Tree_val@V?$_Tset_traits@PAVioSceneManager@@U?$less@PAVioSceneManager@@@std@@V?$allocator@PAVioSceneManager@@@3@$0A@@std@@@std@@@std@@AAV01@@?$_Pair_base@V?$_Tree_const_iterator@V?$_Tree_val@V?$_Tset_traits@PAVioSceneManager@@U?$less@PAVioSceneManager@@@std@@V?$allocator@PAVioSceneManager@@@3@$0A@@std@@@std@@@std@@V12@@std@@QAE@AAV?$_Tree_const_iterator@V?$_Tree_val@V?$_Tset_traits@PAVioSceneManager@@U?$less@PAVioSceneManager@@@std@@V?$allocator@PAVioSceneManager@@@3@$0A@@std@@@std@@@1@0@Z ; std::_Pair_base<std::_Tree_const_iterator<std::_Tree_val<std::_Tset_traits<ioSceneManager *,std::less<ioSceneManager *>,std::allocator<ioSceneManager *>,0> > >,std::_Tree_const_iterator<std::_Tree_val<std::_Tset_traits<ioSceneManager *,std::less<ioSceneManager *>,std::allocator<ioSceneManager *>,0> > > >::_Pair_base<std::_Tree_const_iterator<std::_Tree_val<std::_Tset_traits<ioSceneManager *,std::less<ioSceneManager *>,std::allocator<ioSceneManager *>,0> > >,std::_Tree_const_iterator<std::_Tree_val<std::_Tset_traits<ioSceneManager *,std::less<ioSceneManager *>,std::allocator<ioSceneManager *>,0> > > ><std::_Tree_const_iterator<std::_Tree_val<std::_Tset_traits<ioSceneManager *,std::less<ioSceneManager *>,std::allocator<ioSceneManager *>,0> > > &,std::_Tree_const_iterator<std::_Tree_val<std::_Tset_traits<ioSceneManager *,std::less<ioSceneManager *>,std::allocator<ioSceneManager *>,0> > > &>
; Function compile flags: /Ogsp
;	COMDAT ??$?0AAV?$_Tree_const_iterator@V?$_Tree_val@V?$_Tset_traits@PAVioSceneManager@@U?$less@PAVioSceneManager@@@std@@V?$allocator@PAVioSceneManager@@@3@$0A@@std@@@std@@@std@@AAV01@@?$_Pair_base@V?$_Tree_const_iterator@V?$_Tree_val@V?$_Tset_traits@PAVioSceneManager@@U?$less@PAVioSceneManager@@@std@@V?$allocator@PAVioSceneManager@@@3@$0A@@std@@@std@@@std@@V12@@std@@QAE@AAV?$_Tree_const_iterator@V?$_Tree_val@V?$_Tset_traits@PAVioSceneManager@@U?$less@PAVioSceneManager@@@std@@V?$allocator@PAVioSceneManager@@@3@$0A@@std@@@std@@@1@0@Z
_TEXT	SEGMENT
__Val1$ = 8						; size = 4
__Val2$ = 12						; size = 4
??$?0AAV?$_Tree_const_iterator@V?$_Tree_val@V?$_Tset_traits@PAVioSceneManager@@U?$less@PAVioSceneManager@@@std@@V?$allocator@PAVioSceneManager@@@3@$0A@@std@@@std@@@std@@AAV01@@?$_Pair_base@V?$_Tree_const_iterator@V?$_Tree_val@V?$_Tset_traits@PAVioSceneManager@@U?$less@PAVioSceneManager@@@std@@V?$allocator@PAVioSceneManager@@@3@$0A@@std@@@std@@@std@@V12@@std@@QAE@AAV?$_Tree_const_iterator@V?$_Tree_val@V?$_Tset_traits@PAVioSceneManager@@U?$less@PAVioSceneManager@@@std@@V?$allocator@PAVioSceneManager@@@3@$0A@@std@@@std@@@1@0@Z PROC ; std::_Pair_base<std::_Tree_const_iterator<std::_Tree_val<std::_Tset_traits<ioSceneManager *,std::less<ioSceneManager *>,std::allocator<ioSceneManager *>,0> > >,std::_Tree_const_iterator<std::_Tree_val<std::_Tset_traits<ioSceneManager *,std::less<ioSceneManager *>,std::allocator<ioSceneManager *>,0> > > >::_Pair_base<std::_Tree_const_iterator<std::_Tree_val<std::_Tset_traits<ioSceneManager *,std::less<ioSceneManager *>,std::allocator<ioSceneManager *>,0> > >,std::_Tree_const_iterator<std::_Tree_val<std::_Tset_traits<ioSceneManager *,std::less<ioSceneManager *>,std::allocator<ioSceneManager *>,0> > > ><std::_Tree_const_iterator<std::_Tree_val<std::_Tset_traits<ioSceneManager *,std::less<ioSceneManager *>,std::allocator<ioSceneManager *>,0> > > &,std::_Tree_const_iterator<std::_Tree_val<std::_Tset_traits<ioSceneManager *,std::less<ioSceneManager *>,std::allocator<ioSceneManager *>,0> > > &>, COMDAT
; _this$ = ecx

; 163  : 		{	// construct from moved values

  00000	55		 push	 ebp
  00001	8b ec		 mov	 ebp, esp
  00003	8b c1		 mov	 eax, ecx
  00005	8b 4d 08	 mov	 ecx, DWORD PTR __Val1$[ebp]
  00008	8b 09		 mov	 ecx, DWORD PTR [ecx]
  0000a	89 08		 mov	 DWORD PTR [eax], ecx
  0000c	8b 4d 0c	 mov	 ecx, DWORD PTR __Val2$[ebp]
  0000f	8b 09		 mov	 ecx, DWORD PTR [ecx]
  00011	89 48 04	 mov	 DWORD PTR [eax+4], ecx

; 164  : 		}

  00014	5d		 pop	 ebp
  00015	c2 08 00	 ret	 8
??$?0AAV?$_Tree_const_iterator@V?$_Tree_val@V?$_Tset_traits@PAVioSceneManager@@U?$less@PAVioSceneManager@@@std@@V?$allocator@PAVioSceneManager@@@3@$0A@@std@@@std@@@std@@AAV01@@?$_Pair_base@V?$_Tree_const_iterator@V?$_Tree_val@V?$_Tset_traits@PAVioSceneManager@@U?$less@PAVioSceneManager@@@std@@V?$allocator@PAVioSceneManager@@@3@$0A@@std@@@std@@@std@@V12@@std@@QAE@AAV?$_Tree_const_iterator@V?$_Tree_val@V?$_Tset_traits@PAVioSceneManager@@U?$less@PAVioSceneManager@@@std@@V?$allocator@PAVioSceneManager@@@3@$0A@@std@@@std@@@1@0@Z ENDP ; std::_Pair_base<std::_Tree_const_iterator<std::_Tree_val<std::_Tset_traits<ioSceneManager *,std::less<ioSceneManager *>,std::allocator<ioSceneManager *>,0> > >,std::_Tree_const_iterator<std::_Tree_val<std::_Tset_traits<ioSceneManager *,std::less<ioSceneManager *>,std::allocator<ioSceneManager *>,0> > > >::_Pair_base<std::_Tree_const_iterator<std::_Tree_val<std::_Tset_traits<ioSceneManager *,std::less<ioSceneManager *>,std::allocator<ioSceneManager *>,0> > >,std::_Tree_const_iterator<std::_Tree_val<std::_Tset_traits<ioSceneManager *,std::less<ioSceneManager *>,std::allocator<ioSceneManager *>,0> > > ><std::_Tree_const_iterator<std::_Tree_val<std::_Tset_traits<ioSceneManager *,std::less<ioSceneManager *>,std::allocator<ioSceneManager *>,0> > > &,std::_Tree_const_iterator<std::_Tree_val<std::_Tset_traits<ioSceneManager *,std::less<ioSceneManager *>,std::allocator<ioSceneManager *>,0> > > &>
_TEXT	ENDS
PUBLIC	??$_Construct@PAVioEffect@@ABQAV1@@std@@YAXPAPAVioEffect@@ABQAV1@@Z ; std::_Construct<ioEffect *,ioEffect * const &>
; Function compile flags: /Ogsp
; File c:\program files (x86)\microsoft visual studio 10.0\vc\include\xmemory
;	COMDAT ??$_Construct@PAVioEffect@@ABQAV1@@std@@YAXPAPAVioEffect@@ABQAV1@@Z
_TEXT	SEGMENT
__Ptr$ = 8						; size = 4
__Val$ = 12						; size = 4
??$_Construct@PAVioEffect@@ABQAV1@@std@@YAXPAPAVioEffect@@ABQAV1@@Z PROC ; std::_Construct<ioEffect *,ioEffect * const &>, COMDAT

; 46   : 	{	// construct object at _Ptr with value _Val

  00000	55		 push	 ebp
  00001	8b ec		 mov	 ebp, esp

; 47   : 	void _FARQ *_Vptr = _Ptr;
; 48   : 	::new (_Vptr) _Ty1(_STD forward<_Ty2>(_Val));

  00003	8b 45 08	 mov	 eax, DWORD PTR __Ptr$[ebp]
  00006	85 c0		 test	 eax, eax
  00008	74 07		 je	 SHORT $LN3@Construct
  0000a	8b 4d 0c	 mov	 ecx, DWORD PTR __Val$[ebp]
  0000d	8b 09		 mov	 ecx, DWORD PTR [ecx]
  0000f	89 08		 mov	 DWORD PTR [eax], ecx
$LN3@Construct:

; 49   : 	}

  00011	5d		 pop	 ebp
  00012	c3		 ret	 0
??$_Construct@PAVioEffect@@ABQAV1@@std@@YAXPAPAVioEffect@@ABQAV1@@Z ENDP ; std::_Construct<ioEffect *,ioEffect * const &>
_TEXT	ENDS
PUBLIC	??$_Destroy@U_Node@?$_List_nod@PAVioEffect@@V?$allocator@PAVioEffect@@@std@@@std@@@std@@YAXPAU_Node@?$_List_nod@PAVioEffect@@V?$allocator@PAVioEffect@@@std@@@0@@Z ; std::_Destroy<std::_List_nod<ioEffect *,std::allocator<ioEffect *> >::_Node>
; Function compile flags: /Ogsp
;	COMDAT ??$_Destroy@U_Node@?$_List_nod@PAVioEffect@@V?$allocator@PAVioEffect@@@std@@@std@@@std@@YAXPAU_Node@?$_List_nod@PAVioEffect@@V?$allocator@PAVioEffect@@@std@@@0@@Z
_TEXT	SEGMENT
__Ptr$ = 8						; size = 4
??$_Destroy@U_Node@?$_List_nod@PAVioEffect@@V?$allocator@PAVioEffect@@@std@@@std@@@std@@YAXPAU_Node@?$_List_nod@PAVioEffect@@V?$allocator@PAVioEffect@@@std@@@0@@Z PROC ; std::_Destroy<std::_List_nod<ioEffect *,std::allocator<ioEffect *> >::_Node>, COMDAT

; 63   : 	_Ptr->~_Ty();
; 64   : 	}

  00000	c3		 ret	 0
??$_Destroy@U_Node@?$_List_nod@PAVioEffect@@V?$allocator@PAVioEffect@@@std@@@std@@@std@@YAXPAU_Node@?$_List_nod@PAVioEffect@@V?$allocator@PAVioEffect@@@std@@@0@@Z ENDP ; std::_Destroy<std::_List_nod<ioEffect *,std::allocator<ioEffect *> >::_Node>
_TEXT	ENDS
PUBLIC	??$_Destroy@PAVioSceneManager@@@std@@YAXPAPAVioSceneManager@@@Z ; std::_Destroy<ioSceneManager *>
; Function compile flags: /Ogsp
;	COMDAT ??$_Destroy@PAVioSceneManager@@@std@@YAXPAPAVioSceneManager@@@Z
_TEXT	SEGMENT
__Ptr$ = 8						; size = 4
??$_Destroy@PAVioSceneManager@@@std@@YAXPAPAVioSceneManager@@@Z PROC ; std::_Destroy<ioSceneManager *>, COMDAT

; 63   : 	_Ptr->~_Ty();
; 64   : 	}

  00000	c3		 ret	 0
??$_Destroy@PAVioSceneManager@@@std@@YAXPAPAVioSceneManager@@@Z ENDP ; std::_Destroy<ioSceneManager *>
_TEXT	ENDS
PUBLIC	??$move@AAV?$_Tree_const_iterator@V?$_Tree_val@V?$_Tset_traits@PAVioSceneManager@@U?$less@PAVioSceneManager@@@std@@V?$allocator@PAVioSceneManager@@@3@$0A@@std@@@std@@@std@@@std@@YA$$QAV?$_Tree_const_iterator@V?$_Tree_val@V?$_Tset_traits@PAVioSceneManager@@U?$less@PAVioSceneManager@@@std@@V?$allocator@PAVioSceneManager@@@3@$0A@@std@@@std@@@0@AAV10@@Z ; std::move<std::_Tree_const_iterator<std::_Tree_val<std::_Tset_traits<ioSceneManager *,std::less<ioSceneManager *>,std::allocator<ioSceneManager *>,0> > > &>
; Function compile flags: /Ogsp
; File c:\program files (x86)\microsoft visual studio 10.0\vc\include\utility
;	COMDAT ??$move@AAV?$_Tree_const_iterator@V?$_Tree_val@V?$_Tset_traits@PAVioSceneManager@@U?$less@PAVioSceneManager@@@std@@V?$allocator@PAVioSceneManager@@@3@$0A@@std@@@std@@@std@@@std@@YA$$QAV?$_Tree_const_iterator@V?$_Tree_val@V?$_Tset_traits@PAVioSceneManager@@U?$less@PAVioSceneManager@@@std@@V?$allocator@PAVioSceneManager@@@3@$0A@@std@@@std@@@0@AAV10@@Z
_TEXT	SEGMENT
__Arg$ = 8						; size = 4
??$move@AAV?$_Tree_const_iterator@V?$_Tree_val@V?$_Tset_traits@PAVioSceneManager@@U?$less@PAVioSceneManager@@@std@@V?$allocator@PAVioSceneManager@@@3@$0A@@std@@@std@@@std@@@std@@YA$$QAV?$_Tree_const_iterator@V?$_Tree_val@V?$_Tset_traits@PAVioSceneManager@@U?$less@PAVioSceneManager@@@std@@V?$allocator@PAVioSceneManager@@@3@$0A@@std@@@std@@@0@AAV10@@Z PROC ; std::move<std::_Tree_const_iterator<std::_Tree_val<std::_Tset_traits<ioSceneManager *,std::less<ioSceneManager *>,std::allocator<ioSceneManager *>,0> > > &>, COMDAT

; 86   : 	{	// forward _Arg as movable

  00000	55		 push	 ebp
  00001	8b ec		 mov	 ebp, esp

; 87   : 	return ((typename tr1::_Remove_reference<_Ty>::_Type&&)_Arg);

  00003	8b 45 08	 mov	 eax, DWORD PTR __Arg$[ebp]

; 88   : 	}

  00006	5d		 pop	 ebp
  00007	c3		 ret	 0
??$move@AAV?$_Tree_const_iterator@V?$_Tree_val@V?$_Tset_traits@PAVioSceneManager@@U?$less@PAVioSceneManager@@@std@@V?$allocator@PAVioSceneManager@@@3@$0A@@std@@@std@@@std@@@std@@YA$$QAV?$_Tree_const_iterator@V?$_Tree_val@V?$_Tset_traits@PAVioSceneManager@@U?$less@PAVioSceneManager@@@std@@V?$allocator@PAVioSceneManager@@@3@$0A@@std@@@std@@@0@AAV10@@Z ENDP ; std::move<std::_Tree_const_iterator<std::_Tree_val<std::_Tset_traits<ioSceneManager *,std::less<ioSceneManager *>,std::allocator<ioSceneManager *>,0> > > &>
_TEXT	ENDS
PUBLIC	??0D3DXVECTOR3@@QAE@MMM@Z			; D3DXVECTOR3::D3DXVECTOR3
; Function compile flags: /Ogsp
; File c:\program files (x86)\microsoft directx sdk (june 2010)\include\d3dx9math.inl
;	COMDAT ??0D3DXVECTOR3@@QAE@MMM@Z
_TEXT	SEGMENT
_fx$ = 8						; size = 4
_fy$ = 12						; size = 4
_fz$ = 16						; size = 4
??0D3DXVECTOR3@@QAE@MMM@Z PROC				; D3DXVECTOR3::D3DXVECTOR3, COMDAT
; _this$ = ecx

; 303  : {

  00000	55		 push	 ebp
  00001	8b ec		 mov	 ebp, esp

; 304  :     x = fx;

  00003	f3 0f 10 45 08	 movss	 xmm0, DWORD PTR _fx$[ebp]
  00008	8b c1		 mov	 eax, ecx
  0000a	f3 0f 11 00	 movss	 DWORD PTR [eax], xmm0

; 305  :     y = fy;

  0000e	f3 0f 10 45 0c	 movss	 xmm0, DWORD PTR _fy$[ebp]
  00013	f3 0f 11 40 04	 movss	 DWORD PTR [eax+4], xmm0

; 306  :     z = fz;

  00018	f3 0f 10 45 10	 movss	 xmm0, DWORD PTR _fz$[ebp]
  0001d	f3 0f 11 40 08	 movss	 DWORD PTR [eax+8], xmm0

; 307  : }

  00022	5d		 pop	 ebp
  00023	c2 0c 00	 ret	 12			; 0000000cH
??0D3DXVECTOR3@@QAE@MMM@Z ENDP				; D3DXVECTOR3::D3DXVECTOR3
_TEXT	ENDS
PUBLIC	??$_Val_type@PAVioHashString@@@std@@YAPAVioHashString@@PAV1@@Z ; std::_Val_type<ioHashString *>
; Function compile flags: /Ogsp
; File c:\program files (x86)\microsoft visual studio 10.0\vc\include\xutility
;	COMDAT ??$_Val_type@PAVioHashString@@@std@@YAPAVioHashString@@PAV1@@Z
_TEXT	SEGMENT
___formal$ = 8						; size = 4
??$_Val_type@PAVioHashString@@@std@@YAPAVioHashString@@PAV1@@Z PROC ; std::_Val_type<ioHashString *>, COMDAT

; 790  : 	return (0);

  00000	33 c0		 xor	 eax, eax

; 791  : 	}

  00002	c3		 ret	 0
??$_Val_type@PAVioHashString@@@std@@YAPAVioHashString@@PAV1@@Z ENDP ; std::_Val_type<ioHashString *>
_TEXT	ENDS
PUBLIC	??$construct@AAPAVioSceneManager@@@?$allocator@PAVioSceneManager@@@std@@QAEXPAPAVioSceneManager@@AAPAV2@@Z ; std::allocator<ioSceneManager *>::construct<ioSceneManager * &>
; Function compile flags: /Ogsp
; File c:\program files (x86)\microsoft visual studio 10.0\vc\include\xmemory
;	COMDAT ??$construct@AAPAVioSceneManager@@@?$allocator@PAVioSceneManager@@@std@@QAEXPAPAVioSceneManager@@AAPAV2@@Z
_TEXT	SEGMENT
__Ptr$ = 8						; size = 4
__Val$ = 12						; size = 4
??$construct@AAPAVioSceneManager@@@?$allocator@PAVioSceneManager@@@std@@QAEXPAPAVioSceneManager@@AAPAV2@@Z PROC ; std::allocator<ioSceneManager *>::construct<ioSceneManager * &>, COMDAT
; _this$ = ecx

; 206  : 		void construct(pointer _Ptr, _Other&& _Val)

  00000	55		 push	 ebp
  00001	8b ec		 mov	 ebp, esp

; 207  : 		{	// construct object at _Ptr with value _Val
; 208  : 		::new ((void _FARQ *)_Ptr) _Ty(_STD forward<_Other>(_Val));

  00003	8b 45 08	 mov	 eax, DWORD PTR __Ptr$[ebp]
  00006	85 c0		 test	 eax, eax
  00008	74 07		 je	 SHORT $LN3@construct@2
  0000a	8b 4d 0c	 mov	 ecx, DWORD PTR __Val$[ebp]
  0000d	8b 09		 mov	 ecx, DWORD PTR [ecx]
  0000f	89 08		 mov	 DWORD PTR [eax], ecx
$LN3@construct@2:

; 209  : 		}

  00011	5d		 pop	 ebp
  00012	c2 08 00	 ret	 8
??$construct@AAPAVioSceneManager@@@?$allocator@PAVioSceneManager@@@std@@QAEXPAPAVioSceneManager@@AAPAV2@@Z ENDP ; std::allocator<ioSceneManager *>::construct<ioSceneManager * &>
_TEXT	ENDS
PUBLIC	??GD3DXVECTOR3@@QBE?AU0@ABU0@@Z			; D3DXVECTOR3::operator-
; Function compile flags: /Ogsp
; File c:\program files (x86)\microsoft directx sdk (june 2010)\include\d3dx9math.inl
;	COMDAT ??GD3DXVECTOR3@@QBE?AU0@ABU0@@Z
_TEXT	SEGMENT
___$ReturnUdt$ = 8					; size = 4
_v$ = 12						; size = 4
??GD3DXVECTOR3@@QBE?AU0@ABU0@@Z PROC			; D3DXVECTOR3::operator-, COMDAT
; _this$ = ecx

; 386  : {

  00000	55		 push	 ebp
  00001	8b ec		 mov	 ebp, esp

; 387  :     return D3DXVECTOR3(x - v.x, y - v.y, z - v.z);

  00003	8b 55 0c	 mov	 edx, DWORD PTR _v$[ebp]
  00006	f3 0f 10 01	 movss	 xmm0, DWORD PTR [ecx]
  0000a	f3 0f 10 0a	 movss	 xmm1, DWORD PTR [edx]
  0000e	8b 45 08	 mov	 eax, DWORD PTR ___$ReturnUdt$[ebp]
  00011	0f 5a c0	 cvtps2pd xmm0, xmm0
  00014	0f 5a c9	 cvtps2pd xmm1, xmm1
  00017	f2 0f 5c c1	 subsd	 xmm0, xmm1
  0001b	f3 0f 10 4a 04	 movss	 xmm1, DWORD PTR [edx+4]
  00020	66 0f 5a c0	 cvtpd2ps xmm0, xmm0
  00024	f3 0f 11 00	 movss	 DWORD PTR [eax], xmm0
  00028	f3 0f 10 41 04	 movss	 xmm0, DWORD PTR [ecx+4]
  0002d	0f 5a c0	 cvtps2pd xmm0, xmm0
  00030	0f 5a c9	 cvtps2pd xmm1, xmm1
  00033	f2 0f 5c c1	 subsd	 xmm0, xmm1
  00037	f3 0f 10 4a 08	 movss	 xmm1, DWORD PTR [edx+8]
  0003c	66 0f 5a c0	 cvtpd2ps xmm0, xmm0
  00040	f3 0f 11 40 04	 movss	 DWORD PTR [eax+4], xmm0
  00045	f3 0f 10 41 08	 movss	 xmm0, DWORD PTR [ecx+8]
  0004a	0f 5a c0	 cvtps2pd xmm0, xmm0
  0004d	0f 5a c9	 cvtps2pd xmm1, xmm1
  00050	f2 0f 5c c1	 subsd	 xmm0, xmm1
  00054	66 0f 5a c0	 cvtpd2ps xmm0, xmm0
  00058	f3 0f 11 40 08	 movss	 DWORD PTR [eax+8], xmm0

; 388  : }

  0005d	5d		 pop	 ebp
  0005e	c2 08 00	 ret	 8
??GD3DXVECTOR3@@QBE?AU0@ABU0@@Z ENDP			; D3DXVECTOR3::operator-
_TEXT	ENDS
PUBLIC	__real@3f800000
PUBLIC	?D3DXMatrixIdentity@@YAPAUD3DXMATRIX@@PAU1@@Z	; D3DXMatrixIdentity
;	COMDAT __real@3f800000
CONST	SEGMENT
__real@3f800000 DD 03f800000r			; 1
; Function compile flags: /Ogsp
CONST	ENDS
;	COMDAT ?D3DXMatrixIdentity@@YAPAUD3DXMATRIX@@PAU1@@Z
_TEXT	SEGMENT
_pOut$ = 8						; size = 4
?D3DXMatrixIdentity@@YAPAUD3DXMATRIX@@PAU1@@Z PROC	; D3DXMatrixIdentity, COMDAT

; 1988 : {

  00000	55		 push	 ebp
  00001	8b ec		 mov	 ebp, esp

; 1989 : #ifdef D3DX_DEBUG
; 1990 :     if(!pOut)
; 1991 :         return NULL;
; 1992 : #endif
; 1993 : 
; 1994 :     pOut->m[0][1] = pOut->m[0][2] = pOut->m[0][3] =
; 1995 :     pOut->m[1][0] = pOut->m[1][2] = pOut->m[1][3] =
; 1996 :     pOut->m[2][0] = pOut->m[2][1] = pOut->m[2][3] =
; 1997 :     pOut->m[3][0] = pOut->m[3][1] = pOut->m[3][2] = 0.0f;

  00003	8b 45 08	 mov	 eax, DWORD PTR _pOut$[ebp]
  00006	0f 57 c0	 xorps	 xmm0, xmm0
  00009	f3 0f 11 40 38	 movss	 DWORD PTR [eax+56], xmm0
  0000e	f3 0f 11 40 34	 movss	 DWORD PTR [eax+52], xmm0
  00013	f3 0f 11 40 30	 movss	 DWORD PTR [eax+48], xmm0
  00018	f3 0f 11 40 2c	 movss	 DWORD PTR [eax+44], xmm0
  0001d	f3 0f 11 40 24	 movss	 DWORD PTR [eax+36], xmm0
  00022	f3 0f 11 40 20	 movss	 DWORD PTR [eax+32], xmm0
  00027	f3 0f 11 40 1c	 movss	 DWORD PTR [eax+28], xmm0
  0002c	f3 0f 11 40 18	 movss	 DWORD PTR [eax+24], xmm0
  00031	f3 0f 11 40 10	 movss	 DWORD PTR [eax+16], xmm0
  00036	f3 0f 11 40 0c	 movss	 DWORD PTR [eax+12], xmm0
  0003b	f3 0f 11 40 08	 movss	 DWORD PTR [eax+8], xmm0
  00040	f3 0f 11 40 04	 movss	 DWORD PTR [eax+4], xmm0

; 1998 : 
; 1999 :     pOut->m[0][0] = pOut->m[1][1] = pOut->m[2][2] = pOut->m[3][3] = 1.0f;

  00045	f3 0f 10 05 00
	00 00 00	 movss	 xmm0, DWORD PTR __real@3f800000
  0004d	f3 0f 11 40 3c	 movss	 DWORD PTR [eax+60], xmm0
  00052	f3 0f 11 40 28	 movss	 DWORD PTR [eax+40], xmm0
  00057	f3 0f 11 40 14	 movss	 DWORD PTR [eax+20], xmm0
  0005c	f3 0f 11 00	 movss	 DWORD PTR [eax], xmm0

; 2000 :     return pOut;
; 2001 : }

  00060	5d		 pop	 ebp
  00061	c3		 ret	 0
?D3DXMatrixIdentity@@YAPAUD3DXMATRIX@@PAU1@@Z ENDP	; D3DXMatrixIdentity
; Function compile flags: /Ogsp
; File c:\program files (x86)\microsoft sdks\windows\v7.0a\include\strsafe.h
_TEXT	ENDS
;	COMDAT ?StringValidateDestA@@YGJPBDII@Z
_TEXT	SEGMENT
_cchMax$ = 8						; size = 4
?StringValidateDestA@@YGJPBDII@Z PROC			; StringValidateDestA, COMDAT
; _cchDest$ = ecx

; 8721 : {

  00000	55		 push	 ebp
  00001	8b ec		 mov	 ebp, esp

; 8722 :     HRESULT hr = S_OK;

  00003	33 c0		 xor	 eax, eax

; 8723 : 
; 8724 :     if ((cchDest == 0) || (cchDest > cchMax))

  00005	85 c9		 test	 ecx, ecx
  00007	74 05		 je	 SHORT $LN1@StringVali
  00009	3b 4d 08	 cmp	 ecx, DWORD PTR _cchMax$[ebp]
  0000c	76 05		 jbe	 SHORT $LN2@StringVali
$LN1@StringVali:

; 8725 :     {
; 8726 :         hr = STRSAFE_E_INVALID_PARAMETER;

  0000e	b8 57 00 07 80	 mov	 eax, -2147024809	; 80070057H
$LN2@StringVali:

; 8727 :     }
; 8728 : 
; 8729 :     return hr;
; 8730 : }

  00013	5d		 pop	 ebp
  00014	c2 04 00	 ret	 4
?StringValidateDestA@@YGJPBDII@Z ENDP			; StringValidateDestA
_TEXT	ENDS
EXTRN	__imp___vsnprintf:PROC
; Function compile flags: /Ogsp
;	COMDAT ?StringVPrintfWorkerA@@YGJPADIPAIPBD0@Z
_TEXT	SEGMENT
_pcchNewDestLength$ = 8					; size = 4
_pszFormat$ = 12					; size = 4
_argList$ = 16						; size = 4
?StringVPrintfWorkerA@@YGJPADIPAIPBD0@Z PROC		; StringVPrintfWorkerA, COMDAT
; _pszDest$ = edi
; _cchDest$ = eax

; 9029 : {

  00000	55		 push	 ebp
  00001	8b ec		 mov	 ebp, esp
  00003	53		 push	 ebx
  00004	56		 push	 esi

; 9030 :     HRESULT hr = S_OK;
; 9031 :     int iRet;
; 9032 :     size_t cchMax;
; 9033 :     size_t cchNewDestLength = 0;
; 9034 : 
; 9035 :     // leave the last space for the null terminator
; 9036 :     cchMax = cchDest - 1;
; 9037 : 
; 9038 : #if (STRSAFE_USE_SECURE_CRT == 1) && !defined(STRSAFE_LIB_IMPL)
; 9039 :     iRet = _vsnprintf_s(pszDest, cchDest, cchMax, pszFormat, argList);
; 9040 : #else
; 9041 :     #pragma warning(push)
; 9042 :     #pragma warning(disable: __WARNING_BANNED_API_USAGE)// "STRSAFE not included"
; 9043 :     iRet = _vsnprintf(pszDest, cchMax, pszFormat, argList);

  00005	ff 75 10	 push	 DWORD PTR _argList$[ebp]
  00008	8d 70 ff	 lea	 esi, DWORD PTR [eax-1]
  0000b	ff 75 0c	 push	 DWORD PTR _pszFormat$[ebp]
  0000e	33 db		 xor	 ebx, ebx
  00010	56		 push	 esi
  00011	57		 push	 edi
  00012	ff 15 00 00 00
	00		 call	 DWORD PTR __imp___vsnprintf
  00018	83 c4 10	 add	 esp, 16			; 00000010H

; 9044 :     #pragma warning(pop)
; 9045 : #endif
; 9046 :     // ASSERT((iRet < 0) || (((size_t)iRet) <= cchMax));
; 9047 : 
; 9048 :     if ((iRet < 0) || (((size_t)iRet) > cchMax))

  0001b	85 c0		 test	 eax, eax
  0001d	78 0b		 js	 SHORT $LN5@StringVPri
  0001f	3b c6		 cmp	 eax, esi
  00021	77 07		 ja	 SHORT $LN5@StringVPri

; 9058 :     }
; 9059 :     else if (((size_t)iRet) == cchMax)

  00023	75 0f		 jne	 SHORT $LN2@StringVPri

; 9060 :     {
; 9061 :         // need to null terminate the string
; 9062 :         pszDest += cchMax;
; 9063 :         *pszDest = '\0';

  00025	88 1c 3e	 mov	 BYTE PTR [esi+edi], bl

; 9064 : 
; 9065 :         cchNewDestLength = cchMax;
; 9066 :     }
; 9067 :     else

  00028	eb 08		 jmp	 SHORT $LN9@StringVPri
$LN5@StringVPri:

; 9049 :     {
; 9050 :         // need to null terminate the string
; 9051 :         pszDest += cchMax;
; 9052 :         *pszDest = '\0';

  0002a	88 1c 3e	 mov	 BYTE PTR [esi+edi], bl

; 9055 : 
; 9056 :         // we have truncated pszDest
; 9057 :         hr = STRSAFE_E_INSUFFICIENT_BUFFER;

  0002d	bb 7a 00 07 80	 mov	 ebx, -2147024774	; 8007007aH
$LN9@StringVPri:

; 9053 : 
; 9054 :         cchNewDestLength = cchMax;

  00032	8b c6		 mov	 eax, esi
$LN2@StringVPri:

; 9068 :     {
; 9069 :         cchNewDestLength = (size_t)iRet;
; 9070 :     }
; 9071 : 
; 9072 :     if (pcchNewDestLength)

  00034	8b 4d 08	 mov	 ecx, DWORD PTR _pcchNewDestLength$[ebp]
  00037	85 c9		 test	 ecx, ecx
  00039	74 02		 je	 SHORT $LN1@StringVPri

; 9073 :     {
; 9074 :         *pcchNewDestLength = cchNewDestLength;

  0003b	89 01		 mov	 DWORD PTR [ecx], eax
$LN1@StringVPri:
  0003d	5e		 pop	 esi

; 9075 :     }
; 9076 : 
; 9077 :     return hr;

  0003e	8b c3		 mov	 eax, ebx
  00040	5b		 pop	 ebx

; 9078 : }

  00041	5d		 pop	 ebp
  00042	c2 0c 00	 ret	 12			; 0000000cH
?StringVPrintfWorkerA@@YGJPADIPAIPBD0@Z ENDP		; StringVPrintfWorkerA
_TEXT	ENDS
PUBLIC	?_DECSTR@@YAXPADH@Z				; _DECSTR
; Function compile flags: /Ogsp
; File d:\lost saga for developer\youtube\tutorial\source\src\lsclient\stringprotect.h
;	COMDAT ?_DECSTR@@YAXPADH@Z
_TEXT	SEGMENT
_s$ = 8							; size = 4
_l$ = 12						; size = 4
?_DECSTR@@YAXPADH@Z PROC				; _DECSTR, COMDAT

; 40   : __forceinline void _DECSTR(char* s, int l){int i=0,l4=(l-1)/4,*p=(int*)s;s[l-1]=0;for(;i<l4;++i)*(p++)^=0xEAEBECED;for(i=l4*4;i<l-1;++i)s[i]^=0xED-i%4;}

  00000	55		 push	 ebp
  00001	8b ec		 mov	 ebp, esp
  00003	8b 4d 0c	 mov	 ecx, DWORD PTR _l$[ebp]
  00006	56		 push	 esi
  00007	8b 75 08	 mov	 esi, DWORD PTR _s$[ebp]
  0000a	57		 push	 edi
  0000b	8d 79 ff	 lea	 edi, DWORD PTR [ecx-1]
  0000e	8b c7		 mov	 eax, edi
  00010	99		 cdq
  00011	83 e2 03	 and	 edx, 3
  00014	03 c2		 add	 eax, edx
  00016	c1 f8 02	 sar	 eax, 2
  00019	8b d6		 mov	 edx, esi
  0001b	c6 44 0e ff 00	 mov	 BYTE PTR [esi+ecx-1], 0
  00020	85 c0		 test	 eax, eax
  00022	7e 0e		 jle	 SHORT $LN4@DECSTR
  00024	8b c8		 mov	 ecx, eax
$LL6@DECSTR:
  00026	81 32 ed ec eb
	ea		 xor	 DWORD PTR [edx], -353637139 ; eaebecedH
  0002c	83 c2 04	 add	 edx, 4
  0002f	49		 dec	 ecx
  00030	75 f4		 jne	 SHORT $LL6@DECSTR
$LN4@DECSTR:
  00032	c1 e0 02	 shl	 eax, 2
  00035	eb 17		 jmp	 SHORT $LN14@DECSTR
$LL3@DECSTR:
  00037	8b c8		 mov	 ecx, eax
  00039	81 e1 03 00 00
	80		 and	 ecx, -2147483645	; 80000003H
  0003f	79 05		 jns	 SHORT $LN13@DECSTR
  00041	49		 dec	 ecx
  00042	83 c9 fc	 or	 ecx, -4			; fffffffcH
  00045	41		 inc	 ecx
$LN13@DECSTR:
  00046	b2 ed		 mov	 dl, -19			; ffffffedH
  00048	2a d1		 sub	 dl, cl
  0004a	30 14 30	 xor	 BYTE PTR [eax+esi], dl
  0004d	40		 inc	 eax
$LN14@DECSTR:
  0004e	3b c7		 cmp	 eax, edi
  00050	7c e5		 jl	 SHORT $LL3@DECSTR
  00052	5f		 pop	 edi
  00053	5e		 pop	 esi
  00054	5d		 pop	 ebp
  00055	c3		 ret	 0
?_DECSTR@@YAXPADH@Z ENDP				; _DECSTR
_TEXT	ENDS
PUBLIC	??_R0?AVioCameraController@@@8			; ioCameraController `RTTI Type Descriptor'
PUBLIC	??_R0?AVioLookAtCameraController@@@8		; ioLookAtCameraController `RTTI Type Descriptor'
PUBLIC	?ToLookAtCtrl@@YAPAVioLookAtCameraController@@PAVioCameraController@@@Z ; ToLookAtCtrl
EXTRN	___RTDynamicCast:PROC
;	COMDAT ??_R0?AVioCameraController@@@8
; File d:\lost saga for developer\youtube\tutorial\source\src\io3dengine\iolookatcameracontroller.h
_DATA	SEGMENT
??_R0?AVioCameraController@@@8 DD FLAT:??_7type_info@@6B@ ; ioCameraController `RTTI Type Descriptor'
	DD	00H
	DB	'.?AVioCameraController@@', 00H
_DATA	ENDS
;	COMDAT ??_R0?AVioLookAtCameraController@@@8
_DATA	SEGMENT
??_R0?AVioLookAtCameraController@@@8 DD FLAT:??_7type_info@@6B@ ; ioLookAtCameraController `RTTI Type Descriptor'
	DD	00H
	DB	'.?AVioLookAtCameraController@@', 00H
; Function compile flags: /Ogsp
_DATA	ENDS
;	COMDAT ?ToLookAtCtrl@@YAPAVioLookAtCameraController@@PAVioCameraController@@@Z
_TEXT	SEGMENT
_pControl$ = 8						; size = 4
?ToLookAtCtrl@@YAPAVioLookAtCameraController@@PAVioCameraController@@@Z PROC ; ToLookAtCtrl, COMDAT

; 72   : {

  00000	55		 push	 ebp
  00001	8b ec		 mov	 ebp, esp
  00003	56		 push	 esi

; 73   : 	if( pControl == NULL ||
; 74   : 		pControl->GetCamCtrlType() != ioCameraController::CAM_CTRL_LOOKAT )

  00004	8b 75 08	 mov	 esi, DWORD PTR _pControl$[ebp]
  00007	85 f6		 test	 esi, esi
  00009	74 25		 je	 SHORT $LN1@ToLookAtCt
  0000b	8b 06		 mov	 eax, DWORD PTR [esi]
  0000d	8b ce		 mov	 ecx, esi
  0000f	ff 50 08	 call	 DWORD PTR [eax+8]
  00012	83 f8 01	 cmp	 eax, 1
  00015	75 19		 jne	 SHORT $LN1@ToLookAtCt

; 77   : 	}
; 78   : 
; 79   : 	return dynamic_cast< ioLookAtCameraController* >( pControl );

  00017	6a 00		 push	 0
  00019	68 00 00 00 00	 push	 OFFSET ??_R0?AVioLookAtCameraController@@@8
  0001e	68 00 00 00 00	 push	 OFFSET ??_R0?AVioCameraController@@@8
  00023	6a 00		 push	 0
  00025	56		 push	 esi
  00026	e8 00 00 00 00	 call	 ___RTDynamicCast
  0002b	83 c4 14	 add	 esp, 20			; 00000014H
  0002e	eb 02		 jmp	 SHORT $LN3@ToLookAtCt
$LN1@ToLookAtCt:

; 75   : 	{
; 76   : 		return NULL;

  00030	33 c0		 xor	 eax, eax
$LN3@ToLookAtCt:
  00032	5e		 pop	 esi

; 80   : }

  00033	5d		 pop	 ebp
  00034	c3		 ret	 0
?ToLookAtCtrl@@YAPAVioLookAtCameraController@@PAVioCameraController@@@Z ENDP ; ToLookAtCtrl
_TEXT	ENDS
PUBLIC	?GetMouseAmount@ioApplication@@QBEABUtagPOINT@@XZ ; ioApplication::GetMouseAmount
; Function compile flags: /Ogsp
; File d:\lost saga for developer\youtube\tutorial\source\src\lsclient\ioapplication.h
;	COMDAT ?GetMouseAmount@ioApplication@@QBEABUtagPOINT@@XZ
_TEXT	SEGMENT
?GetMouseAmount@ioApplication@@QBEABUtagPOINT@@XZ PROC	; ioApplication::GetMouseAmount, COMDAT
; _this$ = ecx

; 795  : 	inline const POINT& GetMouseAmount() const { return m_ptMouseMoveAmt; }

  00000	8d 81 88 00 00
	00		 lea	 eax, DWORD PTR [ecx+136]
  00006	c3		 ret	 0
?GetMouseAmount@ioApplication@@QBEABUtagPOINT@@XZ ENDP	; ioApplication::GetMouseAmount
_TEXT	ENDS
PUBLIC	?GetMouse@ioApplication@@QAEPAVioLSMouse@@XZ	; ioApplication::GetMouse
; Function compile flags: /Ogsp
;	COMDAT ?GetMouse@ioApplication@@QAEPAVioLSMouse@@XZ
_TEXT	SEGMENT
?GetMouse@ioApplication@@QAEPAVioLSMouse@@XZ PROC	; ioApplication::GetMouse, COMDAT
; _this$ = ecx

; 796  : 	inline ioLSMouse* GetMouse(){ return &m_Mouse;	}

  00000	8d 81 90 00 00
	00		 lea	 eax, DWORD PTR [ecx+144]
  00006	c3		 ret	 0
?GetMouse@ioApplication@@QAEPAVioLSMouse@@XZ ENDP	; ioApplication::GetMouse
_TEXT	ENDS
PUBLIC	?SetName@ioCreateChar@@QAEXABVioHashString@@@Z	; ioCreateChar::SetName
EXTRN	__imp_??4ioHashString@@QAEAAV0@ABV0@@Z:PROC
; Function compile flags: /Ogsp
; File d:\lost saga for developer\youtube\tutorial\source\src\lsclient\iocreatechar.h
;	COMDAT ?SetName@ioCreateChar@@QAEXABVioHashString@@@Z
_TEXT	SEGMENT
_rkName$ = 8						; size = 4
?SetName@ioCreateChar@@QAEXABVioHashString@@@Z PROC	; ioCreateChar::SetName, COMDAT
; _this$ = ecx

; 85   : 	void SetName( const ioHashString &rkName ) { m_Name = rkName; }

  00000	55		 push	 ebp
  00001	8b ec		 mov	 ebp, esp
  00003	83 c1 0c	 add	 ecx, 12			; 0000000cH
  00006	5d		 pop	 ebp
  00007	ff 25 00 00 00
	00		 jmp	 DWORD PTR __imp_??4ioHashString@@QAEAAV0@ABV0@@Z
?SetName@ioCreateChar@@QAEXABVioHashString@@@Z ENDP	; ioCreateChar::SetName
_TEXT	ENDS
PUBLIC	?GetName@ioCreateChar@@QBEABVioHashString@@XZ	; ioCreateChar::GetName
; Function compile flags: /Ogsp
;	COMDAT ?GetName@ioCreateChar@@QBEABVioHashString@@XZ
_TEXT	SEGMENT
?GetName@ioCreateChar@@QBEABVioHashString@@XZ PROC	; ioCreateChar::GetName, COMDAT
; _this$ = ecx

; 203  : 	inline const ioHashString& GetName() const { return m_Name; }

  00000	8d 41 0c	 lea	 eax, DWORD PTR [ecx+12]
  00003	c3		 ret	 0
?GetName@ioCreateChar@@QBEABVioHashString@@XZ ENDP	; ioCreateChar::GetName
_TEXT	ENDS
PUBLIC	?GetDefaultBeardMesh@ioCreateChar@@QBEABVioHashString@@XZ ; ioCreateChar::GetDefaultBeardMesh
; Function compile flags: /Ogsp
;	COMDAT ?GetDefaultBeardMesh@ioCreateChar@@QBEABVioHashString@@XZ
_TEXT	SEGMENT
?GetDefaultBeardMesh@ioCreateChar@@QBEABVioHashString@@XZ PROC ; ioCreateChar::GetDefaultBeardMesh, COMDAT
; _this$ = ecx

; 214  : 	const ioHashString& GetDefaultBeardMesh() const { return m_DefaultBeardMesh; }

  00000	8d 81 80 01 00
	00		 lea	 eax, DWORD PTR [ecx+384]
  00006	c3		 ret	 0
?GetDefaultBeardMesh@ioCreateChar@@QBEABVioHashString@@XZ ENDP ; ioCreateChar::GetDefaultBeardMesh
_TEXT	ENDS
PUBLIC	?size@?$vector@VioHashString@@V?$allocator@VioHashString@@@std@@@std@@QBEIXZ ; std::vector<ioHashString,std::allocator<ioHashString> >::size
; Function compile flags: /Ogsp
; File c:\program files (x86)\microsoft visual studio 10.0\vc\include\vector
;	COMDAT ?size@?$vector@VioHashString@@V?$allocator@VioHashString@@@std@@@std@@QBEIXZ
_TEXT	SEGMENT
?size@?$vector@VioHashString@@V?$allocator@VioHashString@@@std@@@std@@QBEIXZ PROC ; std::vector<ioHashString,std::allocator<ioHashString> >::size, COMDAT
; _this$ = ecx

; 879  : 		return (this->_Mylast - this->_Myfirst);

  00000	8b 41 04	 mov	 eax, DWORD PTR [ecx+4]
  00003	2b 01		 sub	 eax, DWORD PTR [ecx]
  00005	c1 f8 04	 sar	 eax, 4

; 880  : 		}

  00008	c3		 ret	 0
?size@?$vector@VioHashString@@V?$allocator@VioHashString@@@std@@@std@@QBEIXZ ENDP ; std::vector<ioHashString,std::allocator<ioHashString> >::size
_TEXT	ENDS
PUBLIC	??1?$_Vector_val@VioHashString@@V?$allocator@VioHashString@@@std@@@std@@QAE@XZ ; std::_Vector_val<ioHashString,std::allocator<ioHashString> >::~_Vector_val<ioHashString,std::allocator<ioHashString> >
; Function compile flags: /Ogsp
;	COMDAT ??1?$_Vector_val@VioHashString@@V?$allocator@VioHashString@@@std@@@std@@QAE@XZ
_TEXT	SEGMENT
??1?$_Vector_val@VioHashString@@V?$allocator@VioHashString@@@std@@@std@@QAE@XZ PROC ; std::_Vector_val<ioHashString,std::allocator<ioHashString> >::~_Vector_val<ioHashString,std::allocator<ioHashString> >, COMDAT
; _this$ = ecx

; 434  : 		}

  00000	c3		 ret	 0
??1?$_Vector_val@VioHashString@@V?$allocator@VioHashString@@@std@@@std@@QAE@XZ ENDP ; std::_Vector_val<ioHashString,std::allocator<ioHashString> >::~_Vector_val<ioHashString,std::allocator<ioHashString> >
_TEXT	ENDS
PUBLIC	??0?$allocator@VioHashString@@@std@@QAE@XZ	; std::allocator<ioHashString>::allocator<ioHashString>
; Function compile flags: /Ogsp
; File c:\program files (x86)\microsoft visual studio 10.0\vc\include\xmemory
;	COMDAT ??0?$allocator@VioHashString@@@std@@QAE@XZ
_TEXT	SEGMENT
??0?$allocator@VioHashString@@@std@@QAE@XZ PROC		; std::allocator<ioHashString>::allocator<ioHashString>, COMDAT
; _this$ = ecx

; 161  : 	_ALLOCATOR() _THROW0()

  00000	8b c1		 mov	 eax, ecx

; 162  : 		{	// construct default allocator (do nothing)
; 163  : 		}

  00002	c3		 ret	 0
??0?$allocator@VioHashString@@@std@@QAE@XZ ENDP		; std::allocator<ioHashString>::allocator<ioHashString>
_TEXT	ENDS
PUBLIC	??0?$allocator@VioHashString@@@std@@QAE@ABV01@@Z ; std::allocator<ioHashString>::allocator<ioHashString>
; Function compile flags: /Ogsp
;	COMDAT ??0?$allocator@VioHashString@@@std@@QAE@ABV01@@Z
_TEXT	SEGMENT
___formal$ = 8						; size = 4
??0?$allocator@VioHashString@@@std@@QAE@ABV01@@Z PROC	; std::allocator<ioHashString>::allocator<ioHashString>, COMDAT
; _this$ = ecx

; 165  : 	_ALLOCATOR(const _ALLOCATOR<_Ty>&) _THROW0()

  00000	8b c1		 mov	 eax, ecx

; 166  : 		{	// construct by copying (do nothing)
; 167  : 		}

  00002	c2 04 00	 ret	 4
??0?$allocator@VioHashString@@@std@@QAE@ABV01@@Z ENDP	; std::allocator<ioHashString>::allocator<ioHashString>
_TEXT	ENDS
PUBLIC	?DecryptValueToPool@?$CEncrypt@H@@QAEXPAH@Z	; CEncrypt<int>::DecryptValueToPool
EXTRN	?DecryptByte@ccddaabb@@QBEXPBDPADH@Z:PROC	; ccddaabb::DecryptByte
; Function compile flags: /Ogsp
; File d:\lost saga for developer\youtube\tutorial\source\src\lsclient\encryptvalue.h
;	COMDAT ?DecryptValueToPool@?$CEncrypt@H@@QAEXPAH@Z
_TEXT	SEGMENT
_value$ = 8						; size = 4
?DecryptValueToPool@?$CEncrypt@H@@QAEXPAH@Z PROC	; CEncrypt<int>::DecryptValueToPool, COMDAT
; _this$ = ecx

; 837  : 	{

  00000	55		 push	 ebp
  00001	8b ec		 mov	 ebp, esp
  00003	56		 push	 esi

; 838  : 		m_RC5.DecryptByte( m_MemPool, m_TempMem, 4 );

  00004	8d 71 28	 lea	 esi, DWORD PTR [ecx+40]
  00007	6a 04		 push	 4
  00009	8d 41 1c	 lea	 eax, DWORD PTR [ecx+28]
  0000c	56		 push	 esi
  0000d	50		 push	 eax
  0000e	83 c1 0c	 add	 ecx, 12			; 0000000cH
  00011	e8 00 00 00 00	 call	 ?DecryptByte@ccddaabb@@QBEXPBDPADH@Z ; ccddaabb::DecryptByte

; 839  : 		*value = *((int*)m_TempMem);

  00016	8b 06		 mov	 eax, DWORD PTR [esi]
  00018	8b 4d 08	 mov	 ecx, DWORD PTR _value$[ebp]
  0001b	89 01		 mov	 DWORD PTR [ecx], eax
  0001d	5e		 pop	 esi

; 840  : 	}

  0001e	5d		 pop	 ebp
  0001f	c2 04 00	 ret	 4
?DecryptValueToPool@?$CEncrypt@H@@QAEXPAH@Z ENDP	; CEncrypt<int>::DecryptValueToPool
_TEXT	ENDS
PUBLIC	??_C@_0BD@OLBABOEK@vector?$DMT?$DO?5too?5long?$AA@ ; `string'
PUBLIC	?_Xlen@?$vector@VioHashString@@V?$allocator@VioHashString@@@std@@@std@@IBEXXZ ; std::vector<ioHashString,std::allocator<ioHashString> >::_Xlen
EXTRN	__imp_?_Xlength_error@std@@YAXPBD@Z:PROC
;	COMDAT ??_C@_0BD@OLBABOEK@vector?$DMT?$DO?5too?5long?$AA@
; File c:\program files (x86)\microsoft visual studio 10.0\vc\include\vector
CONST	SEGMENT
??_C@_0BD@OLBABOEK@vector?$DMT?$DO?5too?5long?$AA@ DB 'vector<T> too long'
	DB	00H						; `string'
; Function compile flags: /Ogsp
CONST	ENDS
;	COMDAT ?_Xlen@?$vector@VioHashString@@V?$allocator@VioHashString@@@std@@@std@@IBEXXZ
_TEXT	SEGMENT
?_Xlen@?$vector@VioHashString@@V?$allocator@VioHashString@@@std@@@std@@IBEXXZ PROC ; std::vector<ioHashString,std::allocator<ioHashString> >::_Xlen, COMDAT
; _this$ = ecx

; 1427 : 		_Xlength_error("vector<T> too long");

  00000	68 00 00 00 00	 push	 OFFSET ??_C@_0BD@OLBABOEK@vector?$DMT?$DO?5too?5long?$AA@
  00005	ff 15 00 00 00
	00		 call	 DWORD PTR __imp_?_Xlength_error@std@@YAXPBD@Z
$LN4@Xlen:
$LN3@Xlen:
  0000b	cc		 int	 3
?_Xlen@?$vector@VioHashString@@V?$allocator@VioHashString@@@std@@@std@@IBEXXZ ENDP ; std::vector<ioHashString,std::allocator<ioHashString> >::_Xlen
_TEXT	ENDS
PUBLIC	?deallocate@?$allocator@VioHashString@@@std@@QAEXPAVioHashString@@I@Z ; std::allocator<ioHashString>::deallocate
; Function compile flags: /Ogsp
; File c:\program files (x86)\microsoft visual studio 10.0\vc\include\xmemory
;	COMDAT ?deallocate@?$allocator@VioHashString@@@std@@QAEXPAVioHashString@@I@Z
_TEXT	SEGMENT
__Ptr$ = 8						; size = 4
___formal$ = 12						; size = 4
?deallocate@?$allocator@VioHashString@@@std@@QAEXPAVioHashString@@I@Z PROC ; std::allocator<ioHashString>::deallocate, COMDAT
; _this$ = ecx

; 181  : 		{	// deallocate object at _Ptr, ignore size

  00000	55		 push	 ebp
  00001	8b ec		 mov	 ebp, esp

; 182  : 		::operator delete(_Ptr);

  00003	ff 75 08	 push	 DWORD PTR __Ptr$[ebp]
  00006	e8 00 00 00 00	 call	 ??3@YAXPAX@Z		; operator delete
  0000b	59		 pop	 ecx

; 183  : 		}

  0000c	5d		 pop	 ebp
  0000d	c2 08 00	 ret	 8
?deallocate@?$allocator@VioHashString@@@std@@QAEXPAVioHashString@@I@Z ENDP ; std::allocator<ioHashString>::deallocate
_TEXT	ENDS
PUBLIC	??0?$_Vector_const_iterator@V?$_Vector_val@VioHashString@@V?$allocator@VioHashString@@@std@@@std@@@std@@QAE@PAVioHashString@@PBU_Container_base0@1@@Z ; std::_Vector_const_iterator<std::_Vector_val<ioHashString,std::allocator<ioHashString> > >::_Vector_const_iterator<std::_Vector_val<ioHashString,std::allocator<ioHashString> > >
; Function compile flags: /Ogsp
; File c:\program files (x86)\microsoft visual studio 10.0\vc\include\vector
;	COMDAT ??0?$_Vector_const_iterator@V?$_Vector_val@VioHashString@@V?$allocator@VioHashString@@@std@@@std@@@std@@QAE@PAVioHashString@@PBU_Container_base0@1@@Z
_TEXT	SEGMENT
__Parg$ = 8						; size = 4
__Pvector$ = 12						; size = 4
??0?$_Vector_const_iterator@V?$_Vector_val@VioHashString@@V?$allocator@VioHashString@@@std@@@std@@@std@@QAE@PAVioHashString@@PBU_Container_base0@1@@Z PROC ; std::_Vector_const_iterator<std::_Vector_val<ioHashString,std::allocator<ioHashString> > >::_Vector_const_iterator<std::_Vector_val<ioHashString,std::allocator<ioHashString> > >, COMDAT
; _this$ = ecx

; 45   : 		{	// construct with pointer _Parg

  00000	55		 push	 ebp
  00001	8b ec		 mov	 ebp, esp
  00003	8b c1		 mov	 eax, ecx
  00005	8b 4d 08	 mov	 ecx, DWORD PTR __Parg$[ebp]
  00008	89 08		 mov	 DWORD PTR [eax], ecx

; 46   : 		this->_Adopt(_Pvector);
; 47   : 		}

  0000a	5d		 pop	 ebp
  0000b	c2 08 00	 ret	 8
??0?$_Vector_const_iterator@V?$_Vector_val@VioHashString@@V?$allocator@VioHashString@@@std@@@std@@@std@@QAE@PAVioHashString@@PBU_Container_base0@1@@Z ENDP ; std::_Vector_const_iterator<std::_Vector_val<ioHashString,std::allocator<ioHashString> > >::_Vector_const_iterator<std::_Vector_val<ioHashString,std::allocator<ioHashString> > >
_TEXT	ENDS
PUBLIC	??0?$_Vector_iterator@V?$_Vector_val@VioHashString@@V?$allocator@VioHashString@@@std@@@std@@@std@@QAE@PAVioHashString@@PBU_Container_base0@1@@Z ; std::_Vector_iterator<std::_Vector_val<ioHashString,std::allocator<ioHashString> > >::_Vector_iterator<std::_Vector_val<ioHashString,std::allocator<ioHashString> > >
; Function compile flags: /Ogsp
;	COMDAT ??0?$_Vector_iterator@V?$_Vector_val@VioHashString@@V?$allocator@VioHashString@@@std@@@std@@@std@@QAE@PAVioHashString@@PBU_Container_base0@1@@Z
_TEXT	SEGMENT
__Parg$ = 8						; size = 4
__Pvector$ = 12						; size = 4
??0?$_Vector_iterator@V?$_Vector_val@VioHashString@@V?$allocator@VioHashString@@@std@@@std@@@std@@QAE@PAVioHashString@@PBU_Container_base0@1@@Z PROC ; std::_Vector_iterator<std::_Vector_val<ioHashString,std::allocator<ioHashString> > >::_Vector_iterator<std::_Vector_val<ioHashString,std::allocator<ioHashString> > >, COMDAT
; _this$ = ecx

; 304  : 		{	// construct with pointer _Parg

  00000	55		 push	 ebp
  00001	8b ec		 mov	 ebp, esp
  00003	8b c1		 mov	 eax, ecx
  00005	8b 4d 08	 mov	 ecx, DWORD PTR __Parg$[ebp]
  00008	89 08		 mov	 DWORD PTR [eax], ecx

; 305  : 		}

  0000a	5d		 pop	 ebp
  0000b	c2 08 00	 ret	 8
??0?$_Vector_iterator@V?$_Vector_val@VioHashString@@V?$allocator@VioHashString@@@std@@@std@@@std@@QAE@PAVioHashString@@PBU_Container_base0@1@@Z ENDP ; std::_Vector_iterator<std::_Vector_val<ioHashString,std::allocator<ioHashString> > >::_Vector_iterator<std::_Vector_val<ioHashString,std::allocator<ioHashString> > >
_TEXT	ENDS
PUBLIC	?max_size@?$allocator@VioHashString@@@std@@QBEIXZ ; std::allocator<ioHashString>::max_size
; Function compile flags: /Ogsp
; File c:\program files (x86)\microsoft visual studio 10.0\vc\include\xmemory
;	COMDAT ?max_size@?$allocator@VioHashString@@@std@@QBEIXZ
_TEXT	SEGMENT
?max_size@?$allocator@VioHashString@@@std@@QBEIXZ PROC	; std::allocator<ioHashString>::max_size, COMDAT
; _this$ = ecx

; 218  : 		_SIZT _Count = (_SIZT)(-1) / sizeof (_Ty);
; 219  : 		return (0 < _Count ? _Count : 1);

  00000	b8 ff ff ff 0f	 mov	 eax, 268435455		; 0fffffffH

; 220  : 		}

  00005	c3		 ret	 0
?max_size@?$allocator@VioHashString@@@std@@QBEIXZ ENDP	; std::allocator<ioHashString>::max_size
_TEXT	ENDS
PUBLIC	?_Compat@?$_Vector_const_iterator@V?$_Vector_val@VioHashString@@V?$allocator@VioHashString@@@std@@@std@@@std@@QBEXABV12@@Z ; std::_Vector_const_iterator<std::_Vector_val<ioHashString,std::allocator<ioHashString> > >::_Compat
; Function compile flags: /Ogsp
; File c:\program files (x86)\microsoft visual studio 10.0\vc\include\vector
;	COMDAT ?_Compat@?$_Vector_const_iterator@V?$_Vector_val@VioHashString@@V?$allocator@VioHashString@@@std@@@std@@@std@@QBEXABV12@@Z
_TEXT	SEGMENT
___formal$ = 8						; size = 4
?_Compat@?$_Vector_const_iterator@V?$_Vector_val@VioHashString@@V?$allocator@VioHashString@@@std@@@std@@@std@@QBEXABV12@@Z PROC ; std::_Vector_const_iterator<std::_Vector_val<ioHashString,std::allocator<ioHashString> > >::_Compat, COMDAT
; _this$ = ecx

; 253  : 		}

  00000	c2 04 00	 ret	 4
?_Compat@?$_Vector_const_iterator@V?$_Vector_val@VioHashString@@V?$allocator@VioHashString@@@std@@@std@@@std@@QBEXABV12@@Z ENDP ; std::_Vector_const_iterator<std::_Vector_val<ioHashString,std::allocator<ioHashString> > >::_Compat
_TEXT	ENDS
PUBLIC	??$_Allocate@VioHashString@@@std@@YAPAVioHashString@@IPAV1@@Z ; std::_Allocate<ioHashString>
; Function compile flags: /Ogsp
; File c:\program files (x86)\microsoft visual studio 10.0\vc\include\xmemory
;	COMDAT ??$_Allocate@VioHashString@@@std@@YAPAVioHashString@@IPAV1@@Z
_TEXT	SEGMENT
$T511500 = -12						; size = 12
$T511504 = 8						; size = 4
__Count$ = 8						; size = 4
___formal$ = 12						; size = 4
??$_Allocate@VioHashString@@@std@@YAPAVioHashString@@IPAV1@@Z PROC ; std::_Allocate<ioHashString>, COMDAT

; 30   : 	{	// allocate storage for _Count elements of type _Ty

  00000	55		 push	 ebp
  00001	8b ec		 mov	 ebp, esp

; 31   : 	void *_Ptr = 0;
; 32   : 
; 33   : 	if (_Count <= 0)

  00003	8b 4d 08	 mov	 ecx, DWORD PTR __Count$[ebp]
  00006	83 ec 0c	 sub	 esp, 12			; 0000000cH
  00009	33 c0		 xor	 eax, eax
  0000b	85 c9		 test	 ecx, ecx

; 34   : 		_Count = 0;
; 35   : 	else if (((_SIZT)(-1) / sizeof (_Ty) < _Count)

  0000d	74 3c		 je	 SHORT $LN5@Allocate@3

; 36   : 		|| (_Ptr = ::operator new(_Count * sizeof (_Ty))) == 0)

  0000f	81 f9 ff ff ff
	0f		 cmp	 ecx, 268435455		; 0fffffffH
  00015	77 0e		 ja	 SHORT $LN1@Allocate@3
  00017	c1 e1 04	 shl	 ecx, 4
  0001a	51		 push	 ecx
  0001b	e8 00 00 00 00	 call	 ??2@YAPAXI@Z		; operator new
  00020	59		 pop	 ecx
  00021	85 c0		 test	 eax, eax

; 38   : 
; 39   : 	return ((_Ty _FARQ *)_Ptr);

  00023	75 26		 jne	 SHORT $LN5@Allocate@3
$LN1@Allocate@3:

; 37   : 		_THROW_NCEE(bad_alloc, 0);

  00025	83 65 08 00	 and	 DWORD PTR $T511504[ebp], 0
  00029	8d 45 08	 lea	 eax, DWORD PTR $T511504[ebp]
  0002c	50		 push	 eax
  0002d	8d 4d f4	 lea	 ecx, DWORD PTR $T511500[ebp]
  00030	ff 15 00 00 00
	00		 call	 DWORD PTR __imp_??0exception@std@@QAE@ABQBD@Z
  00036	68 00 00 00 00	 push	 OFFSET __TI2?AVbad_alloc@std@@
  0003b	8d 45 f4	 lea	 eax, DWORD PTR $T511500[ebp]
  0003e	50		 push	 eax
  0003f	c7 45 f4 00 00
	00 00		 mov	 DWORD PTR $T511500[ebp], OFFSET ??_7bad_alloc@std@@6B@
  00046	e8 00 00 00 00	 call	 __CxxThrowException@8
$LN10@Allocate@3:
$LN5@Allocate@3:

; 40   : 	}

  0004b	c9		 leave
  0004c	c3		 ret	 0
$LN9@Allocate@3:
??$_Allocate@VioHashString@@@std@@YAPAVioHashString@@IPAV1@@Z ENDP ; std::_Allocate<ioHashString>
_TEXT	ENDS
EXTRN	__imp_??0exception@std@@QAE@ABV01@@Z:PROC
; Function compile flags: /Ogsp
;	COMDAT ??0bad_alloc@std@@QAE@ABV01@@Z
_TEXT	SEGMENT
___that$ = 8						; size = 4
??0bad_alloc@std@@QAE@ABV01@@Z PROC			; std::bad_alloc::bad_alloc, COMDAT
; _this$ = ecx
  00000	55		 push	 ebp
  00001	8b ec		 mov	 ebp, esp
  00003	56		 push	 esi
  00004	ff 75 08	 push	 DWORD PTR ___that$[ebp]
  00007	8b f1		 mov	 esi, ecx
  00009	ff 15 00 00 00
	00		 call	 DWORD PTR __imp_??0exception@std@@QAE@ABV01@@Z
  0000f	c7 06 00 00 00
	00		 mov	 DWORD PTR [esi], OFFSET ??_7bad_alloc@std@@6B@
  00015	8b c6		 mov	 eax, esi
  00017	5e		 pop	 esi
  00018	5d		 pop	 ebp
  00019	c2 04 00	 ret	 4
??0bad_alloc@std@@QAE@ABV01@@Z ENDP			; std::bad_alloc::bad_alloc
_TEXT	ENDS
PUBLIC	??$forward@ABVioHashString@@@std@@YAABVioHashString@@ABV1@@Z ; std::forward<ioHashString const &>
; Function compile flags: /Ogsp
; File c:\program files (x86)\microsoft visual studio 10.0\vc\include\utility
;	COMDAT ??$forward@ABVioHashString@@@std@@YAABVioHashString@@ABV1@@Z
_TEXT	SEGMENT
__Arg$ = 8						; size = 4
??$forward@ABVioHashString@@@std@@YAABVioHashString@@ABV1@@Z PROC ; std::forward<ioHashString const &>, COMDAT

; 78   : 	{	// forward _Arg, given explicitly specified type parameter

  00000	55		 push	 ebp
  00001	8b ec		 mov	 ebp, esp

; 79   : 	return ((_Ty&&)_Arg);

  00003	8b 45 08	 mov	 eax, DWORD PTR __Arg$[ebp]

; 80   : 	}

  00006	5d		 pop	 ebp
  00007	c3		 ret	 0
??$forward@ABVioHashString@@@std@@YAABVioHashString@@ABV1@@Z ENDP ; std::forward<ioHashString const &>
_TEXT	ENDS
PUBLIC	??$forward@AAVioHashString@@@std@@YAAAVioHashString@@AAV1@@Z ; std::forward<ioHashString &>
; Function compile flags: /Ogsp
;	COMDAT ??$forward@AAVioHashString@@@std@@YAAAVioHashString@@AAV1@@Z
_TEXT	SEGMENT
__Arg$ = 8						; size = 4
??$forward@AAVioHashString@@@std@@YAAAVioHashString@@AAV1@@Z PROC ; std::forward<ioHashString &>, COMDAT

; 78   : 	{	// forward _Arg, given explicitly specified type parameter

  00000	55		 push	 ebp
  00001	8b ec		 mov	 ebp, esp

; 79   : 	return ((_Ty&&)_Arg);

  00003	8b 45 08	 mov	 eax, DWORD PTR __Arg$[ebp]

; 80   : 	}

  00006	5d		 pop	 ebp
  00007	c3		 ret	 0
??$forward@AAVioHashString@@@std@@YAAAVioHashString@@AAV1@@Z ENDP ; std::forward<ioHashString &>
_TEXT	ENDS
PUBLIC	??$_Ptr_cat@VioHashString@@V1@@std@@YA?AU_Nonscalar_ptr_iterator_tag@0@PAVioHashString@@0@Z ; std::_Ptr_cat<ioHashString,ioHashString>
; Function compile flags: /Ogsp
; File c:\program files (x86)\microsoft visual studio 10.0\vc\include\xutility
;	COMDAT ??$_Ptr_cat@VioHashString@@V1@@std@@YA?AU_Nonscalar_ptr_iterator_tag@0@PAVioHashString@@0@Z
_TEXT	SEGMENT
__Cat$ = -1						; size = 1
___formal$ = 8						; size = 4
___formal$ = 12						; size = 4
??$_Ptr_cat@VioHashString@@V1@@std@@YA?AU_Nonscalar_ptr_iterator_tag@0@PAVioHashString@@0@Z PROC ; std::_Ptr_cat<ioHashString,ioHashString>, COMDAT

; 516  : 	{	// return pointer category from pointers

  00000	55		 push	 ebp
  00001	8b ec		 mov	 ebp, esp
  00003	51		 push	 ecx

; 517  : 	typename _Ptr_cat_helper<_Elem1, _Elem2>::_Type _Cat;
; 518  : 	return (_Cat);

  00004	8a 45 ff	 mov	 al, BYTE PTR __Cat$[ebp]

; 519  : 	}

  00007	c9		 leave
  00008	c3		 ret	 0
??$_Ptr_cat@VioHashString@@V1@@std@@YA?AU_Nonscalar_ptr_iterator_tag@0@PAVioHashString@@0@Z ENDP ; std::_Ptr_cat<ioHashString,ioHashString>
_TEXT	ENDS
PUBLIC	??$_Move@AAD@std@@YA$$QADAAD@Z			; std::_Move<char &>
; Function compile flags: /Ogsp
; File c:\program files (x86)\microsoft visual studio 10.0\vc\include\utility
;	COMDAT ??$_Move@AAD@std@@YA$$QADAAD@Z
_TEXT	SEGMENT
__Arg$ = 8						; size = 4
??$_Move@AAD@std@@YA$$QADAAD@Z PROC			; std::_Move<char &>, COMDAT

; 94   : 	{	// forward _Arg as movable

  00000	55		 push	 ebp
  00001	8b ec		 mov	 ebp, esp

; 95   : 	return ((typename tr1::_Remove_reference<_Ty>::_Type&&)_Arg);

  00003	8b 45 08	 mov	 eax, DWORD PTR __Arg$[ebp]

; 96   : 	}

  00006	5d		 pop	 ebp
  00007	c3		 ret	 0
??$_Move@AAD@std@@YA$$QADAAD@Z ENDP			; std::_Move<char &>
_TEXT	ENDS
PUBLIC	??$move@AA_N@std@@YA$$QA_NAA_N@Z		; std::move<bool &>
; Function compile flags: /Ogsp
;	COMDAT ??$move@AA_N@std@@YA$$QA_NAA_N@Z
_TEXT	SEGMENT
__Arg$ = 8						; size = 4
??$move@AA_N@std@@YA$$QA_NAA_N@Z PROC			; std::move<bool &>, COMDAT

; 86   : 	{	// forward _Arg as movable

  00000	55		 push	 ebp
  00001	8b ec		 mov	 ebp, esp

; 87   : 	return ((typename tr1::_Remove_reference<_Ty>::_Type&&)_Arg);

  00003	8b 45 08	 mov	 eax, DWORD PTR __Arg$[ebp]

; 88   : 	}

  00006	5d		 pop	 ebp
  00007	c3		 ret	 0
??$move@AA_N@std@@YA$$QA_NAA_N@Z ENDP			; std::move<bool &>
_TEXT	ENDS
PUBLIC	??$move@AAVioHashString@@@std@@YA$$QAVioHashString@@AAV1@@Z ; std::move<ioHashString &>
; Function compile flags: /Ogsp
;	COMDAT ??$move@AAVioHashString@@@std@@YA$$QAVioHashString@@AAV1@@Z
_TEXT	SEGMENT
__Arg$ = 8						; size = 4
??$move@AAVioHashString@@@std@@YA$$QAVioHashString@@AAV1@@Z PROC ; std::move<ioHashString &>, COMDAT

; 86   : 	{	// forward _Arg as movable

  00000	55		 push	 ebp
  00001	8b ec		 mov	 ebp, esp

; 87   : 	return ((typename tr1::_Remove_reference<_Ty>::_Type&&)_Arg);

  00003	8b 45 08	 mov	 eax, DWORD PTR __Arg$[ebp]

; 88   : 	}

  00006	5d		 pop	 ebp
  00007	c3		 ret	 0
??$move@AAVioHashString@@@std@@YA$$QAVioHashString@@AAV1@@Z ENDP ; std::move<ioHashString &>
_TEXT	ENDS
PUBLIC	??$forward@_N@std@@YA$$QA_NAA_N@Z		; std::forward<bool>
; Function compile flags: /Ogsp
;	COMDAT ??$forward@_N@std@@YA$$QA_NAA_N@Z
_TEXT	SEGMENT
__Arg$ = 8						; size = 4
??$forward@_N@std@@YA$$QA_NAA_N@Z PROC			; std::forward<bool>, COMDAT

; 78   : 	{	// forward _Arg, given explicitly specified type parameter

  00000	55		 push	 ebp
  00001	8b ec		 mov	 ebp, esp

; 79   : 	return ((_Ty&&)_Arg);

  00003	8b 45 08	 mov	 eax, DWORD PTR __Arg$[ebp]

; 80   : 	}

  00006	5d		 pop	 ebp
  00007	c3		 ret	 0
??$forward@_N@std@@YA$$QA_NAA_N@Z ENDP			; std::forward<bool>
_TEXT	ENDS
PUBLIC	??_GioHashString@@QAEPAXI@Z			; ioHashString::`scalar deleting destructor'
EXTRN	__imp_??1ioHashString@@QAE@XZ:PROC
; Function compile flags: /Ogsp
;	COMDAT ??_GioHashString@@QAEPAXI@Z
_TEXT	SEGMENT
___flags$ = 8						; size = 4
??_GioHashString@@QAEPAXI@Z PROC			; ioHashString::`scalar deleting destructor', COMDAT
; _this$ = ecx
  00000	55		 push	 ebp
  00001	8b ec		 mov	 ebp, esp
  00003	56		 push	 esi
  00004	8b f1		 mov	 esi, ecx
  00006	ff 15 00 00 00
	00		 call	 DWORD PTR __imp_??1ioHashString@@QAE@XZ
  0000c	f6 45 08 01	 test	 BYTE PTR ___flags$[ebp], 1
  00010	74 07		 je	 SHORT $LN1@scalar@4
  00012	56		 push	 esi
  00013	e8 00 00 00 00	 call	 ??3@YAXPAX@Z		; operator delete
  00018	59		 pop	 ecx
$LN1@scalar@4:
  00019	8b c6		 mov	 eax, esi
  0001b	5e		 pop	 esi
  0001c	5d		 pop	 ebp
  0001d	c2 04 00	 ret	 4
??_GioHashString@@QAEPAXI@Z ENDP			; ioHashString::`scalar deleting destructor'
_TEXT	ENDS
PUBLIC	??$_Construct@VioHashString@@ABV1@@std@@YAXPAVioHashString@@ABV1@@Z ; std::_Construct<ioHashString,ioHashString const &>
;	COMDAT xdata$x
xdata$x	SEGMENT
__unwindtable$??$_Construct@VioHashString@@ABV1@@std@@YAXPAVioHashString@@ABV1@@Z DD 0ffffffffH
	DD	FLAT:__unwindfunclet$??$_Construct@VioHashString@@ABV1@@std@@YAXPAVioHashString@@ABV1@@Z$0
__ehfuncinfo$??$_Construct@VioHashString@@ABV1@@std@@YAXPAVioHashString@@ABV1@@Z DD 019930522H
	DD	01H
	DD	FLAT:__unwindtable$??$_Construct@VioHashString@@ABV1@@std@@YAXPAVioHashString@@ABV1@@Z
	DD	2 DUP(00H)
	DD	2 DUP(00H)
	DD	00H
	DD	01H
; Function compile flags: /Ogsp
; File c:\program files (x86)\microsoft visual studio 10.0\vc\include\xmemory
xdata$x	ENDS
;	COMDAT ??$_Construct@VioHashString@@ABV1@@std@@YAXPAVioHashString@@ABV1@@Z
_TEXT	SEGMENT
$T511529 = -16						; size = 4
__$EHRec$ = -12						; size = 12
__Vptr$ = 8						; size = 4
__Ptr$ = 8						; size = 4
__Val$ = 12						; size = 4
??$_Construct@VioHashString@@ABV1@@std@@YAXPAVioHashString@@ABV1@@Z PROC ; std::_Construct<ioHashString,ioHashString const &>, COMDAT

; 46   : 	{	// construct object at _Ptr with value _Val

  00000	6a 04		 push	 4
  00002	b8 00 00 00 00	 mov	 eax, __ehhandler$??$_Construct@VioHashString@@ABV1@@std@@YAXPAVioHashString@@ABV1@@Z
  00007	e8 00 00 00 00	 call	 __EH_prolog3

; 47   : 	void _FARQ *_Vptr = _Ptr;

  0000c	8b 4d 08	 mov	 ecx, DWORD PTR __Ptr$[ebp]
  0000f	89 4d 08	 mov	 DWORD PTR __Vptr$[ebp], ecx

; 48   : 	::new (_Vptr) _Ty1(_STD forward<_Ty2>(_Val));

  00012	89 4d f0	 mov	 DWORD PTR $T511529[ebp], ecx
  00015	83 65 fc 00	 and	 DWORD PTR __$EHRec$[ebp+8], 0
  00019	85 c9		 test	 ecx, ecx
  0001b	74 09		 je	 SHORT $LN3@Construct@2
  0001d	ff 75 0c	 push	 DWORD PTR __Val$[ebp]
  00020	ff 15 00 00 00
	00		 call	 DWORD PTR __imp_??0ioHashString@@QAE@ABV0@@Z
$LN3@Construct@2:

; 49   : 	}

  00026	e8 00 00 00 00	 call	 __EH_epilog3
  0002b	c3		 ret	 0
_TEXT	ENDS
;	COMDAT text$x
text$x	SEGMENT
__unwindfunclet$??$_Construct@VioHashString@@ABV1@@std@@YAXPAVioHashString@@ABV1@@Z$0:
  00000	ff 75 08	 push	 DWORD PTR __Vptr$[ebp]
  00003	ff 75 f0	 push	 DWORD PTR $T511529[ebp]
  00006	e8 00 00 00 00	 call	 ??3@YAXPAX0@Z		; operator delete
  0000b	59		 pop	 ecx
  0000c	59		 pop	 ecx
  0000d	c3		 ret	 0
__ehhandler$??$_Construct@VioHashString@@ABV1@@std@@YAXPAVioHashString@@ABV1@@Z:
  0000e	8b 54 24 08	 mov	 edx, DWORD PTR [esp+8]
  00012	8d 42 0c	 lea	 eax, DWORD PTR [edx+12]
  00015	8b 4a ec	 mov	 ecx, DWORD PTR [edx-20]
  00018	33 c8		 xor	 ecx, eax
  0001a	e8 00 00 00 00	 call	 @__security_check_cookie@4
  0001f	b8 00 00 00 00	 mov	 eax, OFFSET __ehfuncinfo$??$_Construct@VioHashString@@ABV1@@std@@YAXPAVioHashString@@ABV1@@Z
  00024	e9 00 00 00 00	 jmp	 ___CxxFrameHandler3
text$x	ENDS
??$_Construct@VioHashString@@ABV1@@std@@YAXPAVioHashString@@ABV1@@Z ENDP ; std::_Construct<ioHashString,ioHashString const &>
PUBLIC	??0io3DUIQuad@@QAE@PAVioUI3DRender@@PBUD3DXMATRIX@@_N@Z ; io3DUIQuad::io3DUIQuad
EXTRN	__imp_??0IUIQuad@@QAE@XZ:PROC
; Function compile flags: /Ogsp
; File d:\lost saga for developer\youtube\tutorial\source\src\lsclient\gui\ioui3drender.cpp
;	COMDAT ??0io3DUIQuad@@QAE@PAVioUI3DRender@@PBUD3DXMATRIX@@_N@Z
_TEXT	SEGMENT
_pRender$ = 8						; size = 4
_pExtraProj$ = 12					; size = 4
_bZClear$ = 16						; size = 1
??0io3DUIQuad@@QAE@PAVioUI3DRender@@PBUD3DXMATRIX@@_N@Z PROC ; io3DUIQuad::io3DUIQuad, COMDAT
; _this$ = ecx

; 70   : 	io3DUIQuad( ioUI3DRender *pRender, const D3DXMATRIX *pExtraProj, bool bZClear )

  00000	55		 push	 ebp
  00001	8b ec		 mov	 ebp, esp
  00003	53		 push	 ebx
  00004	56		 push	 esi
  00005	8b d9		 mov	 ebx, ecx
  00007	ff 15 00 00 00
	00		 call	 DWORD PTR __imp_??0IUIQuad@@QAE@XZ

; 71   : 	{
; 72   : 		m_p3DRender = pRender;
; 73   : 
; 74   : 		if( pExtraProj )

  0000d	8b 75 0c	 mov	 esi, DWORD PTR _pExtraProj$[ebp]
  00010	8b 45 08	 mov	 eax, DWORD PTR _pRender$[ebp]
  00013	c7 03 00 00 00
	00		 mov	 DWORD PTR [ebx], OFFSET ??_7io3DUIQuad@@6B@
  00019	89 43 04	 mov	 DWORD PTR [ebx+4], eax
  0001c	85 f6		 test	 esi, esi
  0001e	74 0c		 je	 SHORT $LN2@io3DUIQuad

; 75   : 		{
; 76   : 			m_ExtraProj = *pExtraProj;

  00020	57		 push	 edi
  00021	6a 10		 push	 16			; 00000010H
  00023	59		 pop	 ecx
  00024	8d 7b 08	 lea	 edi, DWORD PTR [ebx+8]
  00027	f3 a5		 rep movsd
  00029	5f		 pop	 edi

; 77   : 		}
; 78   : 		else

  0002a	eb 5b		 jmp	 SHORT $LN8@io3DUIQuad
$LN2@io3DUIQuad:

; 79   : 		{
; 80   : 			D3DXMatrixIdentity( &m_ExtraProj );

  0002c	0f 57 c0	 xorps	 xmm0, xmm0
  0002f	f3 0f 11 43 40	 movss	 DWORD PTR [ebx+64], xmm0
  00034	f3 0f 11 43 3c	 movss	 DWORD PTR [ebx+60], xmm0
  00039	f3 0f 11 43 38	 movss	 DWORD PTR [ebx+56], xmm0
  0003e	f3 0f 11 43 34	 movss	 DWORD PTR [ebx+52], xmm0
  00043	f3 0f 11 43 2c	 movss	 DWORD PTR [ebx+44], xmm0
  00048	f3 0f 11 43 28	 movss	 DWORD PTR [ebx+40], xmm0
  0004d	f3 0f 11 43 24	 movss	 DWORD PTR [ebx+36], xmm0
  00052	f3 0f 11 43 20	 movss	 DWORD PTR [ebx+32], xmm0
  00057	f3 0f 11 43 18	 movss	 DWORD PTR [ebx+24], xmm0
  0005c	f3 0f 11 43 14	 movss	 DWORD PTR [ebx+20], xmm0
  00061	f3 0f 11 43 10	 movss	 DWORD PTR [ebx+16], xmm0
  00066	f3 0f 11 43 0c	 movss	 DWORD PTR [ebx+12], xmm0
  0006b	f3 0f 10 05 00
	00 00 00	 movss	 xmm0, DWORD PTR __real@3f800000
  00073	f3 0f 11 43 44	 movss	 DWORD PTR [ebx+68], xmm0
  00078	f3 0f 11 43 30	 movss	 DWORD PTR [ebx+48], xmm0
  0007d	f3 0f 11 43 1c	 movss	 DWORD PTR [ebx+28], xmm0
  00082	f3 0f 11 43 08	 movss	 DWORD PTR [ebx+8], xmm0
$LN8@io3DUIQuad:

; 81   : 		}
; 82   : 
; 83   : 		m_bZClear = bZClear;		

  00087	8a 45 10	 mov	 al, BYTE PTR _bZClear$[ebp]
  0008a	88 43 48	 mov	 BYTE PTR [ebx+72], al
  0008d	5e		 pop	 esi

; 84   : 	}

  0008e	8b c3		 mov	 eax, ebx
  00090	5b		 pop	 ebx
  00091	5d		 pop	 ebp
  00092	c2 0c 00	 ret	 12			; 0000000cH
??0io3DUIQuad@@QAE@PAVioUI3DRender@@PBUD3DXMATRIX@@_N@Z ENDP ; io3DUIQuad::io3DUIQuad
_TEXT	ENDS
PUBLIC	??_C@_0CJ@BFFKJPBF@io3DUIViewPortQuad?5?3?5Not?5View?5Po@ ; `string'
PUBLIC	??_7io3DUIViewPortQuad@@6B@			; io3DUIViewPortQuad::`vftable'
PUBLIC	??0io3DUIViewPortQuad@@QAE@PAVioUI3DRender@@PBU_D3DRECT@@_N@Z ; io3DUIViewPortQuad::io3DUIViewPortQuad
PUBLIC	??_R4io3DUIViewPortQuad@@6B@			; io3DUIViewPortQuad::`RTTI Complete Object Locator'
PUBLIC	??_R0?AVio3DUIViewPortQuad@@@8			; io3DUIViewPortQuad `RTTI Type Descriptor'
PUBLIC	??_R3io3DUIViewPortQuad@@8			; io3DUIViewPortQuad::`RTTI Class Hierarchy Descriptor'
PUBLIC	??_R2io3DUIViewPortQuad@@8			; io3DUIViewPortQuad::`RTTI Base Class Array'
PUBLIC	??_R1A@?0A@EA@io3DUIViewPortQuad@@8		; io3DUIViewPortQuad::`RTTI Base Class Descriptor at (0,-1,0,64)'
PUBLIC	?RenderDirect@io3DUIViewPortQuad@@UAEXPAVioRenderSystem@@@Z ; io3DUIViewPortQuad::RenderDirect
EXTRN	??_Eio3DUIViewPortQuad@@UAEPAXI@Z:PROC		; io3DUIViewPortQuad::`vector deleting destructor'
;	COMDAT ??_R1A@?0A@EA@io3DUIViewPortQuad@@8
rdata$r	SEGMENT
??_R1A@?0A@EA@io3DUIViewPortQuad@@8 DD FLAT:??_R0?AVio3DUIViewPortQuad@@@8 ; io3DUIViewPortQuad::`RTTI Base Class Descriptor at (0,-1,0,64)'
	DD	02H
	DD	00H
	DD	0ffffffffH
	DD	00H
	DD	040H
	DD	FLAT:??_R3io3DUIViewPortQuad@@8
rdata$r	ENDS
;	COMDAT ??_R2io3DUIViewPortQuad@@8
rdata$r	SEGMENT
??_R2io3DUIViewPortQuad@@8 DD FLAT:??_R1A@?0A@EA@io3DUIViewPortQuad@@8 ; io3DUIViewPortQuad::`RTTI Base Class Array'
	DD	FLAT:??_R1A@?0A@EA@io3DUIQuad@@8
	DD	FLAT:??_R1A@?0A@EA@IUIQuad@@8
rdata$r	ENDS
;	COMDAT ??_R3io3DUIViewPortQuad@@8
rdata$r	SEGMENT
??_R3io3DUIViewPortQuad@@8 DD 00H			; io3DUIViewPortQuad::`RTTI Class Hierarchy Descriptor'
	DD	00H
	DD	03H
	DD	FLAT:??_R2io3DUIViewPortQuad@@8
rdata$r	ENDS
;	COMDAT ??_R0?AVio3DUIViewPortQuad@@@8
_DATA	SEGMENT
??_R0?AVio3DUIViewPortQuad@@@8 DD FLAT:??_7type_info@@6B@ ; io3DUIViewPortQuad `RTTI Type Descriptor'
	DD	00H
	DB	'.?AVio3DUIViewPortQuad@@', 00H
_DATA	ENDS
;	COMDAT ??_R4io3DUIViewPortQuad@@6B@
rdata$r	SEGMENT
??_R4io3DUIViewPortQuad@@6B@ DD 00H			; io3DUIViewPortQuad::`RTTI Complete Object Locator'
	DD	00H
	DD	00H
	DD	FLAT:??_R0?AVio3DUIViewPortQuad@@@8
	DD	FLAT:??_R3io3DUIViewPortQuad@@8
rdata$r	ENDS
;	COMDAT ??_C@_0CJ@BFFKJPBF@io3DUIViewPortQuad?5?3?5Not?5View?5Po@
CONST	SEGMENT
??_C@_0CJ@BFFKJPBF@io3DUIViewPortQuad?5?3?5Not?5View?5Po@ DB 'io3DUIViewP'
	DB	'ortQuad : Not View Pointer!!!', 00H		; `string'
CONST	ENDS
;	COMDAT ??_7io3DUIViewPortQuad@@6B@
CONST	SEGMENT
??_7io3DUIViewPortQuad@@6B@ DD FLAT:??_R4io3DUIViewPortQuad@@6B@ ; io3DUIViewPortQuad::`vftable'
	DD	FLAT:?AddInfo@io3DUIQuad@@UAEXPAVioQuadRenderArray@@@Z
	DD	FLAT:?GetQuadCount@io3DUIQuad@@UBEHXZ
	DD	FLAT:?IsDirectQuad@io3DUIQuad@@UBE_NXZ
	DD	FLAT:?RenderDirect@io3DUIViewPortQuad@@UAEXPAVioRenderSystem@@@Z
	DD	FLAT:??_Eio3DUIViewPortQuad@@UAEPAXI@Z
CONST	ENDS
;	COMDAT xdata$x
xdata$x	SEGMENT
__unwindtable$??0io3DUIViewPortQuad@@QAE@PAVioUI3DRender@@PBU_D3DRECT@@_N@Z DD 0ffffffffH
	DD	FLAT:__unwindfunclet$??0io3DUIViewPortQuad@@QAE@PAVioUI3DRender@@PBU_D3DRECT@@_N@Z$0
__ehfuncinfo$??0io3DUIViewPortQuad@@QAE@PAVioUI3DRender@@PBU_D3DRECT@@_N@Z DD 019930522H
	DD	01H
	DD	FLAT:__unwindtable$??0io3DUIViewPortQuad@@QAE@PAVioUI3DRender@@PBU_D3DRECT@@_N@Z
	DD	2 DUP(00H)
	DD	2 DUP(00H)
	DD	00H
	DD	01H
; Function compile flags: /Ogsp
xdata$x	ENDS
;	COMDAT ??0io3DUIViewPortQuad@@QAE@PAVioUI3DRender@@PBU_D3DRECT@@_N@Z
_TEXT	SEGMENT
_this$ = -16						; size = 4
__$EHRec$ = -12						; size = 12
_pRender$ = 8						; size = 4
_pRcView$ = 12						; size = 4
_bZClear$ = 16						; size = 1
??0io3DUIViewPortQuad@@QAE@PAVioUI3DRender@@PBU_D3DRECT@@_N@Z PROC ; io3DUIViewPortQuad::io3DUIViewPortQuad, COMDAT
; _this$ = ecx

; 116  : 	{

  00000	6a 04		 push	 4
  00002	b8 00 00 00 00	 mov	 eax, __ehhandler$??0io3DUIViewPortQuad@@QAE@PAVioUI3DRender@@PBU_D3DRECT@@_N@Z
  00007	e8 00 00 00 00	 call	 __EH_prolog3
  0000c	8b d9		 mov	 ebx, ecx
  0000e	89 5d f0	 mov	 DWORD PTR _this$[ebp], ebx
  00011	ff 75 10	 push	 DWORD PTR _bZClear$[ebp]
  00014	33 f6		 xor	 esi, esi
  00016	56		 push	 esi
  00017	ff 75 08	 push	 DWORD PTR _pRender$[ebp]
  0001a	e8 00 00 00 00	 call	 ??0io3DUIQuad@@QAE@PAVioUI3DRender@@PBUD3DXMATRIX@@_N@Z ; io3DUIQuad::io3DUIQuad
  0001f	89 75 fc	 mov	 DWORD PTR __$EHRec$[ebp+8], esi
  00022	c7 03 00 00 00
	00		 mov	 DWORD PTR [ebx], OFFSET ??_7io3DUIViewPortQuad@@6B@

; 117  : 		if( pRcView )

  00028	39 75 0c	 cmp	 DWORD PTR _pRcView$[ebp], esi
  0002b	74 0c		 je	 SHORT $LN2@io3DUIView

; 118  : 			m_rcView = *pRcView;

  0002d	8b 75 0c	 mov	 esi, DWORD PTR _pRcView$[ebp]
  00030	8d 7b 4c	 lea	 edi, DWORD PTR [ebx+76]
  00033	a5		 movsd
  00034	a5		 movsd
  00035	a5		 movsd
  00036	a5		 movsd

; 119  : 		else

  00037	eb 15		 jmp	 SHORT $LN1@io3DUIView
$LN2@io3DUIView:

; 120  : 			LOG.PrintTimeAndLog( 0, "io3DUIViewPortQuad : Not View Pointer!!!" );

  00039	68 00 00 00 00	 push	 OFFSET ??_C@_0CJ@BFFKJPBF@io3DUIViewPortQuad?5?3?5Not?5View?5Po@
  0003e	56		 push	 esi
  0003f	ff 35 00 00 00
	00		 push	 DWORD PTR __imp_?LOG@@3VCLog@@A
  00045	ff 15 00 00 00
	00		 call	 DWORD PTR __imp_?PrintTimeAndLog@CLog@@QAAXHPADZZ
  0004b	83 c4 0c	 add	 esp, 12			; 0000000cH
$LN1@io3DUIView:

; 121  : 	}

  0004e	8b c3		 mov	 eax, ebx
  00050	e8 00 00 00 00	 call	 __EH_epilog3
  00055	c2 0c 00	 ret	 12			; 0000000cH
_TEXT	ENDS
;	COMDAT text$x
text$x	SEGMENT
__unwindfunclet$??0io3DUIViewPortQuad@@QAE@PAVioUI3DRender@@PBU_D3DRECT@@_N@Z$0:
  00000	8b 4d f0	 mov	 ecx, DWORD PTR _this$[ebp]
  00003	e9 00 00 00 00	 jmp	 ??1io3DUIQuad@@UAE@XZ	; io3DUIQuad::~io3DUIQuad
__ehhandler$??0io3DUIViewPortQuad@@QAE@PAVioUI3DRender@@PBU_D3DRECT@@_N@Z:
  00008	8b 54 24 08	 mov	 edx, DWORD PTR [esp+8]
  0000c	8d 42 0c	 lea	 eax, DWORD PTR [edx+12]
  0000f	8b 4a ec	 mov	 ecx, DWORD PTR [edx-20]
  00012	33 c8		 xor	 ecx, eax
  00014	e8 00 00 00 00	 call	 @__security_check_cookie@4
  00019	b8 00 00 00 00	 mov	 eax, OFFSET __ehfuncinfo$??0io3DUIViewPortQuad@@QAE@PAVioUI3DRender@@PBU_D3DRECT@@_N@Z
  0001e	e9 00 00 00 00	 jmp	 ___CxxFrameHandler3
text$x	ENDS
??0io3DUIViewPortQuad@@QAE@PAVioUI3DRender@@PBU_D3DRECT@@_N@Z ENDP ; io3DUIViewPortQuad::io3DUIViewPortQuad
PUBLIC	??1io3DUIViewPortQuad@@UAE@XZ			; io3DUIViewPortQuad::~io3DUIViewPortQuad
; Function compile flags: /Ogsp
;	COMDAT ??1io3DUIViewPortQuad@@UAE@XZ
_TEXT	SEGMENT
??1io3DUIViewPortQuad@@UAE@XZ PROC			; io3DUIViewPortQuad::~io3DUIViewPortQuad, COMDAT
; _this$ = ecx

; 122  : 	virtual ~io3DUIViewPortQuad(){}

  00000	c7 01 00 00 00
	00		 mov	 DWORD PTR [ecx], OFFSET ??_7io3DUIQuad@@6B@
  00006	ff 25 00 00 00
	00		 jmp	 DWORD PTR __imp_??1IUIQuad@@UAE@XZ
??1io3DUIViewPortQuad@@UAE@XZ ENDP			; io3DUIViewPortQuad::~io3DUIViewPortQuad
; Function compile flags: /Ogsp
_TEXT	ENDS
;	COMDAT ??_Gio3DUIViewPortQuad@@UAEPAXI@Z
_TEXT	SEGMENT
___flags$ = 8						; size = 4
??_Gio3DUIViewPortQuad@@UAEPAXI@Z PROC			; io3DUIViewPortQuad::`scalar deleting destructor', COMDAT
; _this$ = ecx
  00000	55		 push	 ebp
  00001	8b ec		 mov	 ebp, esp
  00003	56		 push	 esi
  00004	8b f1		 mov	 esi, ecx
  00006	c7 06 00 00 00
	00		 mov	 DWORD PTR [esi], OFFSET ??_7io3DUIQuad@@6B@
  0000c	ff 15 00 00 00
	00		 call	 DWORD PTR __imp_??1IUIQuad@@UAE@XZ
  00012	f6 45 08 01	 test	 BYTE PTR ___flags$[ebp], 1
  00016	74 07		 je	 SHORT $LN1@scalar@5
  00018	56		 push	 esi
  00019	e8 00 00 00 00	 call	 ??3@YAXPAX@Z		; operator delete
  0001e	59		 pop	 ecx
$LN1@scalar@5:
  0001f	8b c6		 mov	 eax, esi
  00021	5e		 pop	 esi
  00022	5d		 pop	 ebp
  00023	c2 04 00	 ret	 4
??_Gio3DUIViewPortQuad@@UAEPAXI@Z ENDP			; io3DUIViewPortQuad::`scalar deleting destructor'
_TEXT	ENDS
PUBLIC	?Render@ioUI3DRender@@QAEXPBUD3DXMATRIX@@_N@Z	; ioUI3DRender::Render
EXTRN	__imp_?AddUIQuad@ioUIRenderer@@QAEXPAVIUIQuad@@@Z:PROC
EXTRN	__imp_?GetSingleton@ioUIRenderer@@SAAAV1@XZ:PROC
EXTRN	__imp_?GetEntityGrpCnt@ioSceneManager@@QBEHXZ:PROC
;	COMDAT xdata$x
; File c:\program files (x86)\microsoft visual studio 10.0\vc\include\list
xdata$x	SEGMENT
__unwindtable$?Render@ioUI3DRender@@QAEXPBUD3DXMATRIX@@_N@Z DD 0ffffffffH
	DD	FLAT:__unwindfunclet$?Render@ioUI3DRender@@QAEXPBUD3DXMATRIX@@_N@Z$0
__ehfuncinfo$?Render@ioUI3DRender@@QAEXPBUD3DXMATRIX@@_N@Z DD 019930522H
	DD	01H
	DD	FLAT:__unwindtable$?Render@ioUI3DRender@@QAEXPBUD3DXMATRIX@@_N@Z
	DD	2 DUP(00H)
	DD	2 DUP(00H)
	DD	00H
	DD	01H
; Function compile flags: /Ogsp
; File d:\lost saga for developer\youtube\tutorial\source\src\lsclient\gui\ioui3drender.cpp
xdata$x	ENDS
;	COMDAT ?Render@ioUI3DRender@@QAEXPBUD3DXMATRIX@@_N@Z
_TEXT	SEGMENT
$T511587 = -16						; size = 4
__$EHRec$ = -12						; size = 12
_pExtraProj$ = 8					; size = 4
_bZClear$ = 12						; size = 1
?Render@ioUI3DRender@@QAEXPBUD3DXMATRIX@@_N@Z PROC	; ioUI3DRender::Render, COMDAT
; _this$ = ecx

; 239  : {

  00000	6a 04		 push	 4
  00002	b8 00 00 00 00	 mov	 eax, __ehhandler$?Render@ioUI3DRender@@QAEXPBUD3DXMATRIX@@_N@Z
  00007	e8 00 00 00 00	 call	 __EH_prolog3
  0000c	8b f1		 mov	 esi, ecx

; 240  : 	if( !m_pSceneMgr || !m_pCamera )

  0000e	8b 4e 04	 mov	 ecx, DWORD PTR [esi+4]
  00011	85 c9		 test	 ecx, ecx
  00013	74 52		 je	 SHORT $LN4@Render
  00015	83 7e 08 00	 cmp	 DWORD PTR [esi+8], 0
  00019	74 4c		 je	 SHORT $LN4@Render

; 241  : 		return;
; 242  : 
; 243  : 	if( m_pSceneMgr->GetEntityGrpCnt() > 0 || !m_EffectList.empty() )

  0001b	ff 15 00 00 00
	00		 call	 DWORD PTR __imp_?GetEntityGrpCnt@ioSceneManager@@QBEHXZ
  00021	85 c0		 test	 eax, eax
  00023	7f 06		 jg	 SHORT $LN2@Render
  00025	83 7e 40 00	 cmp	 DWORD PTR [esi+64], 0
  00029	74 3c		 je	 SHORT $LN4@Render
$LN2@Render:

; 244  : 	{
; 245  : 		//  g_UIRenderer .
; 246  : 		io3DUIQuad *pQuad = new io3DUIQuad( this, pExtraProj, bZClear );

  0002b	6a 4c		 push	 76			; 0000004cH
  0002d	e8 00 00 00 00	 call	 ??2@YAPAXI@Z		; operator new
  00032	59		 pop	 ecx
  00033	8b c8		 mov	 ecx, eax
  00035	89 4d f0	 mov	 DWORD PTR $T511587[ebp], ecx
  00038	83 65 fc 00	 and	 DWORD PTR __$EHRec$[ebp+8], 0
  0003c	85 c9		 test	 ecx, ecx
  0003e	74 0e		 je	 SHORT $LN8@Render
  00040	ff 75 0c	 push	 DWORD PTR _bZClear$[ebp]
  00043	ff 75 08	 push	 DWORD PTR _pExtraProj$[ebp]
  00046	56		 push	 esi
  00047	e8 00 00 00 00	 call	 ??0io3DUIQuad@@QAE@PAVioUI3DRender@@PBUD3DXMATRIX@@_N@Z ; io3DUIQuad::io3DUIQuad
  0004c	eb 02		 jmp	 SHORT $LN9@Render
$LN8@Render:
  0004e	33 c0		 xor	 eax, eax
$LN9@Render:
  00050	83 4d fc ff	 or	 DWORD PTR __$EHRec$[ebp+8], -1

; 247  : 		if( pQuad )

  00054	85 c0		 test	 eax, eax
  00056	74 0f		 je	 SHORT $LN4@Render

; 248  : 		{
; 249  : 			g_UIRenderer.AddUIQuad( pQuad );

  00058	50		 push	 eax
  00059	ff 15 00 00 00
	00		 call	 DWORD PTR __imp_?GetSingleton@ioUIRenderer@@SAAAV1@XZ
  0005f	8b c8		 mov	 ecx, eax
  00061	ff 15 00 00 00
	00		 call	 DWORD PTR __imp_?AddUIQuad@ioUIRenderer@@QAEXPAVIUIQuad@@@Z
$LN4@Render:

; 250  : 		}
; 251  : 	}
; 252  : }

  00067	e8 00 00 00 00	 call	 __EH_epilog3
  0006c	c2 08 00	 ret	 8
_TEXT	ENDS
;	COMDAT text$x
text$x	SEGMENT
__unwindfunclet$?Render@ioUI3DRender@@QAEXPBUD3DXMATRIX@@_N@Z$0:
  00000	ff 75 f0	 push	 DWORD PTR $T511587[ebp]
  00003	e8 00 00 00 00	 call	 ??3@YAXPAX@Z		; operator delete
  00008	59		 pop	 ecx
  00009	c3		 ret	 0
__ehhandler$?Render@ioUI3DRender@@QAEXPBUD3DXMATRIX@@_N@Z:
  0000a	8b 54 24 08	 mov	 edx, DWORD PTR [esp+8]
  0000e	8d 42 0c	 lea	 eax, DWORD PTR [edx+12]
  00011	8b 4a ec	 mov	 ecx, DWORD PTR [edx-20]
  00014	33 c8		 xor	 ecx, eax
  00016	e8 00 00 00 00	 call	 @__security_check_cookie@4
  0001b	b8 00 00 00 00	 mov	 eax, OFFSET __ehfuncinfo$?Render@ioUI3DRender@@QAEXPBUD3DXMATRIX@@_N@Z
  00020	e9 00 00 00 00	 jmp	 ___CxxFrameHandler3
text$x	ENDS
?Render@ioUI3DRender@@QAEXPBUD3DXMATRIX@@_N@Z ENDP	; ioUI3DRender::Render
PUBLIC	?RenderNow@ioUI3DRender@@QAEXPBUD3DXMATRIX@@_N@Z ; ioUI3DRender::RenderNow
EXTRN	__imp_??1ioLookAtCameraInput@@UAE@XZ:PROC
EXTRN	__imp_?Update@ioCamera@@QAEXPAVioCameraInput@@@Z:PROC
EXTRN	__imp_??0ioLookAtCameraInput@@QAE@XZ:PROC
;	COMDAT xdata$x
xdata$x	SEGMENT
__unwindtable$?RenderNow@ioUI3DRender@@QAEXPBUD3DXMATRIX@@_N@Z DD 0ffffffffH
	DD	FLAT:__unwindfunclet$?RenderNow@ioUI3DRender@@QAEXPBUD3DXMATRIX@@_N@Z$0
__ehfuncinfo$?RenderNow@ioUI3DRender@@QAEXPBUD3DXMATRIX@@_N@Z DD 019930522H
	DD	01H
	DD	FLAT:__unwindtable$?RenderNow@ioUI3DRender@@QAEXPBUD3DXMATRIX@@_N@Z
	DD	2 DUP(00H)
	DD	2 DUP(00H)
	DD	00H
	DD	01H
; Function compile flags: /Ogsp
xdata$x	ENDS
;	COMDAT ?RenderNow@ioUI3DRender@@QAEXPBUD3DXMATRIX@@_N@Z
_TEXT	SEGMENT
_kInput$ = -36						; size = 24
__$EHRec$ = -12						; size = 12
_pExtraProj$ = 8					; size = 4
_bZClear$ = 12						; size = 1
?RenderNow@ioUI3DRender@@QAEXPBUD3DXMATRIX@@_N@Z PROC	; ioUI3DRender::RenderNow, COMDAT
; _this$ = ecx

; 255  : {

  00000	6a 18		 push	 24			; 00000018H
  00002	b8 00 00 00 00	 mov	 eax, __ehhandler$?RenderNow@ioUI3DRender@@QAEXPBUD3DXMATRIX@@_N@Z
  00007	e8 00 00 00 00	 call	 __EH_prolog3
  0000c	8b f1		 mov	 esi, ecx

; 256  : 	if( !m_pSceneMgr || !m_pCamera )

  0000e	33 db		 xor	 ebx, ebx
  00010	39 5e 04	 cmp	 DWORD PTR [esi+4], ebx
  00013	74 5e		 je	 SHORT $LN2@RenderNow
  00015	39 5e 08	 cmp	 DWORD PTR [esi+8], ebx
  00018	74 59		 je	 SHORT $LN2@RenderNow

; 257  : 		return;
; 258  : 
; 259  : 	ioLookAtCameraInput kInput;

  0001a	8d 4d dc	 lea	 ecx, DWORD PTR _kInput$[ebp]
  0001d	ff 15 00 00 00
	00		 call	 DWORD PTR __imp_??0ioLookAtCameraInput@@QAE@XZ

; 260  : 	m_pCamera->Update( &kInput );

  00023	8b 4e 08	 mov	 ecx, DWORD PTR [esi+8]
  00026	8d 45 dc	 lea	 eax, DWORD PTR _kInput$[ebp]
  00029	50		 push	 eax
  0002a	89 5d fc	 mov	 DWORD PTR __$EHRec$[ebp+8], ebx
  0002d	ff 15 00 00 00
	00		 call	 DWORD PTR __imp_?Update@ioCamera@@QAEXPAVioCameraInput@@@Z

; 261  : 
; 262  : 	ApplyUIAmbient();

  00033	8b ce		 mov	 ecx, esi
  00035	e8 00 00 00 00	 call	 ?ApplyUIAmbient@ioUI3DRender@@QAEXXZ ; ioUI3DRender::ApplyUIAmbient

; 263  : 
; 264  : 	m_pSceneMgr->UpdateSceneGraph( m_pCamera, pExtraProj );

  0003a	8b 4e 04	 mov	 ecx, DWORD PTR [esi+4]
  0003d	8b 01		 mov	 eax, DWORD PTR [ecx]
  0003f	53		 push	 ebx
  00040	ff 75 08	 push	 DWORD PTR _pExtraProj$[ebp]
  00043	ff 76 08	 push	 DWORD PTR [esi+8]
  00046	ff 10		 call	 DWORD PTR [eax]

; 265  : 
; 266  : 	if( bZClear )

  00048	38 5d 0c	 cmp	 BYTE PTR _bZClear$[ebp], bl
  0004b	74 0a		 je	 SHORT $LN1@RenderNow

; 267  : 	{
; 268  : 		m_pSceneMgr->ClearBack( D3DCLEAR_ZBUFFER );

  0004d	8b 4e 04	 mov	 ecx, DWORD PTR [esi+4]
  00050	8b 01		 mov	 eax, DWORD PTR [ecx]
  00052	6a 02		 push	 2
  00054	ff 50 10	 call	 DWORD PTR [eax+16]
$LN1@RenderNow:

; 269  : 	}
; 270  : 
; 271  : 	m_pSceneMgr->RenderVisibleObject();

  00057	8b 4e 04	 mov	 ecx, DWORD PTR [esi+4]
  0005a	8b 01		 mov	 eax, DWORD PTR [ecx]
  0005c	ff 50 04	 call	 DWORD PTR [eax+4]

; 272  : 
; 273  : 	RestoreAmbient();

  0005f	8b ce		 mov	 ecx, esi
  00061	e8 00 00 00 00	 call	 ?RestoreAmbient@ioUI3DRender@@QAEXXZ ; ioUI3DRender::RestoreAmbient

; 274  : }

  00066	83 4d fc ff	 or	 DWORD PTR __$EHRec$[ebp+8], -1
  0006a	8d 4d dc	 lea	 ecx, DWORD PTR _kInput$[ebp]
  0006d	ff 15 00 00 00
	00		 call	 DWORD PTR __imp_??1ioLookAtCameraInput@@UAE@XZ
$LN2@RenderNow:
  00073	e8 00 00 00 00	 call	 __EH_epilog3
  00078	c2 08 00	 ret	 8
_TEXT	ENDS
;	COMDAT text$x
text$x	SEGMENT
__unwindfunclet$?RenderNow@ioUI3DRender@@QAEXPBUD3DXMATRIX@@_N@Z$0:
  00000	8d 4d dc	 lea	 ecx, DWORD PTR _kInput$[ebp]
  00003	ff 25 00 00 00
	00		 jmp	 DWORD PTR __imp_??1ioLookAtCameraInput@@UAE@XZ
__ehhandler$?RenderNow@ioUI3DRender@@QAEXPBUD3DXMATRIX@@_N@Z:
  00009	8b 54 24 08	 mov	 edx, DWORD PTR [esp+8]
  0000d	8d 42 0c	 lea	 eax, DWORD PTR [edx+12]
  00010	8b 4a d8	 mov	 ecx, DWORD PTR [edx-40]
  00013	33 c8		 xor	 ecx, eax
  00015	e8 00 00 00 00	 call	 @__security_check_cookie@4
  0001a	b8 00 00 00 00	 mov	 eax, OFFSET __ehfuncinfo$?RenderNow@ioUI3DRender@@QAEXPBUD3DXMATRIX@@_N@Z
  0001f	e9 00 00 00 00	 jmp	 ___CxxFrameHandler3
text$x	ENDS
?RenderNow@ioUI3DRender@@QAEXPBUD3DXMATRIX@@_N@Z ENDP	; ioUI3DRender::RenderNow
PUBLIC	?RenderViewPort@ioUI3DRender@@QAEXPBU_D3DRECT@@_N@Z ; ioUI3DRender::RenderViewPort
;	COMDAT xdata$x
xdata$x	SEGMENT
__unwindtable$?RenderViewPort@ioUI3DRender@@QAEXPBU_D3DRECT@@_N@Z DD 0ffffffffH
	DD	FLAT:__unwindfunclet$?RenderViewPort@ioUI3DRender@@QAEXPBU_D3DRECT@@_N@Z$0
__ehfuncinfo$?RenderViewPort@ioUI3DRender@@QAEXPBU_D3DRECT@@_N@Z DD 019930522H
	DD	01H
	DD	FLAT:__unwindtable$?RenderViewPort@ioUI3DRender@@QAEXPBU_D3DRECT@@_N@Z
	DD	2 DUP(00H)
	DD	2 DUP(00H)
	DD	00H
	DD	01H
; Function compile flags: /Ogsp
xdata$x	ENDS
;	COMDAT ?RenderViewPort@ioUI3DRender@@QAEXPBU_D3DRECT@@_N@Z
_TEXT	SEGMENT
$T511612 = -16						; size = 4
__$EHRec$ = -12						; size = 12
_pRcView$ = 8						; size = 4
_bZClear$ = 12						; size = 1
?RenderViewPort@ioUI3DRender@@QAEXPBU_D3DRECT@@_N@Z PROC ; ioUI3DRender::RenderViewPort, COMDAT
; _this$ = ecx

; 277  : {

  00000	6a 04		 push	 4
  00002	b8 00 00 00 00	 mov	 eax, __ehhandler$?RenderViewPort@ioUI3DRender@@QAEXPBU_D3DRECT@@_N@Z
  00007	e8 00 00 00 00	 call	 __EH_prolog3
  0000c	8b f1		 mov	 esi, ecx

; 278  : 	io3DUIViewPortQuad *pQuad = new io3DUIViewPortQuad( this, pRcView, bZClear );

  0000e	6a 5c		 push	 92			; 0000005cH
  00010	e8 00 00 00 00	 call	 ??2@YAPAXI@Z		; operator new
  00015	59		 pop	 ecx
  00016	8b c8		 mov	 ecx, eax
  00018	89 4d f0	 mov	 DWORD PTR $T511612[ebp], ecx
  0001b	83 65 fc 00	 and	 DWORD PTR __$EHRec$[ebp+8], 0
  0001f	85 c9		 test	 ecx, ecx
  00021	74 0e		 je	 SHORT $LN4@RenderView
  00023	ff 75 0c	 push	 DWORD PTR _bZClear$[ebp]
  00026	ff 75 08	 push	 DWORD PTR _pRcView$[ebp]
  00029	56		 push	 esi
  0002a	e8 00 00 00 00	 call	 ??0io3DUIViewPortQuad@@QAE@PAVioUI3DRender@@PBU_D3DRECT@@_N@Z ; io3DUIViewPortQuad::io3DUIViewPortQuad
  0002f	eb 02		 jmp	 SHORT $LN5@RenderView
$LN4@RenderView:
  00031	33 c0		 xor	 eax, eax
$LN5@RenderView:
  00033	83 4d fc ff	 or	 DWORD PTR __$EHRec$[ebp+8], -1

; 279  : 	if( pQuad )

  00037	85 c0		 test	 eax, eax
  00039	74 0f		 je	 SHORT $LN1@RenderView

; 280  : 	{
; 281  : 		g_UIRenderer.AddUIQuad( pQuad );

  0003b	50		 push	 eax
  0003c	ff 15 00 00 00
	00		 call	 DWORD PTR __imp_?GetSingleton@ioUIRenderer@@SAAAV1@XZ
  00042	8b c8		 mov	 ecx, eax
  00044	ff 15 00 00 00
	00		 call	 DWORD PTR __imp_?AddUIQuad@ioUIRenderer@@QAEXPAVIUIQuad@@@Z
$LN1@RenderView:

; 282  : 	}
; 283  : }

  0004a	e8 00 00 00 00	 call	 __EH_epilog3
  0004f	c2 08 00	 ret	 8
_TEXT	ENDS
;	COMDAT text$x
text$x	SEGMENT
__unwindfunclet$?RenderViewPort@ioUI3DRender@@QAEXPBU_D3DRECT@@_N@Z$0:
  00000	ff 75 f0	 push	 DWORD PTR $T511612[ebp]
  00003	e8 00 00 00 00	 call	 ??3@YAXPAX@Z		; operator delete
  00008	59		 pop	 ecx
  00009	c3		 ret	 0
__ehhandler$?RenderViewPort@ioUI3DRender@@QAEXPBU_D3DRECT@@_N@Z:
  0000a	8b 54 24 08	 mov	 edx, DWORD PTR [esp+8]
  0000e	8d 42 0c	 lea	 eax, DWORD PTR [edx+12]
  00011	8b 4a ec	 mov	 ecx, DWORD PTR [edx-20]
  00014	33 c8		 xor	 ecx, eax
  00016	e8 00 00 00 00	 call	 @__security_check_cookie@4
  0001b	b8 00 00 00 00	 mov	 eax, OFFSET __ehfuncinfo$?RenderViewPort@ioUI3DRender@@QAEXPBU_D3DRECT@@_N@Z
  00020	e9 00 00 00 00	 jmp	 ___CxxFrameHandler3
text$x	ENDS
?RenderViewPort@ioUI3DRender@@QAEXPBU_D3DRECT@@_N@Z ENDP ; ioUI3DRender::RenderViewPort
PUBLIC	?SetCameraPos@ioUI3DRender@@QAEXABUD3DXVECTOR3@@@Z ; ioUI3DRender::SetCameraPos
EXTRN	__imp_?GetController@ioCamera@@QBEPAVioCameraController@@XZ:PROC
; Function compile flags: /Ogsp
;	COMDAT ?SetCameraPos@ioUI3DRender@@QAEXABUD3DXVECTOR3@@@Z
_TEXT	SEGMENT
_vPos$ = 8						; size = 4
?SetCameraPos@ioUI3DRender@@QAEXABUD3DXVECTOR3@@@Z PROC	; ioUI3DRender::SetCameraPos, COMDAT
; _this$ = ecx

; 301  : {

  00000	55		 push	 ebp
  00001	8b ec		 mov	 ebp, esp

; 302  : 	if( !m_pCamera )	return;

  00003	8b 49 08	 mov	 ecx, DWORD PTR [ecx+8]
  00006	85 c9		 test	 ecx, ecx
  00008	74 19		 je	 SHORT $LN1@SetCameraP

; 303  : 
; 304  : 	ioLookAtCameraController *pCtrl = ToLookAtCtrl( m_pCamera->GetController() );

  0000a	ff 15 00 00 00
	00		 call	 DWORD PTR __imp_?GetController@ioCamera@@QBEPAVioCameraController@@XZ
  00010	50		 push	 eax
  00011	e8 00 00 00 00	 call	 ?ToLookAtCtrl@@YAPAVioLookAtCameraController@@PAVioCameraController@@@Z ; ToLookAtCtrl
  00016	59		 pop	 ecx

; 305  : 	if( pCtrl )

  00017	85 c0		 test	 eax, eax
  00019	74 08		 je	 SHORT $LN1@SetCameraP

; 306  : 	{
; 307  : 		pCtrl->SetPosition( vPos );

  0001b	8b 10		 mov	 edx, DWORD PTR [eax]
  0001d	8b c8		 mov	 ecx, eax

; 308  : 	}
; 309  : }

  0001f	5d		 pop	 ebp

; 306  : 	{
; 307  : 		pCtrl->SetPosition( vPos );

  00020	ff 62 18	 jmp	 DWORD PTR [edx+24]
$LN1@SetCameraP:

; 308  : 	}
; 309  : }

  00023	5d		 pop	 ebp
  00024	c2 04 00	 ret	 4
?SetCameraPos@ioUI3DRender@@QAEXABUD3DXVECTOR3@@@Z ENDP	; ioUI3DRender::SetCameraPos
_TEXT	ENDS
PUBLIC	__$ArrayPad$
PUBLIC	?SetCameraPos@ioUI3DRender@@QAEXMMM@Z		; ioUI3DRender::SetCameraPos
; Function compile flags: /Ogsp
;	COMDAT ?SetCameraPos@ioUI3DRender@@QAEXMMM@Z
_TEXT	SEGMENT
$T506333 = -16						; size = 12
__$ArrayPad$ = -4					; size = 4
_fXPos$ = 8						; size = 4
_fYPos$ = 12						; size = 4
_fZPos$ = 16						; size = 4
?SetCameraPos@ioUI3DRender@@QAEXMMM@Z PROC		; ioUI3DRender::SetCameraPos, COMDAT
; _this$ = ecx

; 312  : {

  00000	55		 push	 ebp
  00001	8b ec		 mov	 ebp, esp
  00003	83 ec 10	 sub	 esp, 16			; 00000010H
  00006	a1 00 00 00 00	 mov	 eax, DWORD PTR ___security_cookie
  0000b	33 c5		 xor	 eax, ebp
  0000d	89 45 fc	 mov	 DWORD PTR __$ArrayPad$[ebp], eax
  00010	f3 0f 10 45 08	 movss	 xmm0, DWORD PTR _fXPos$[ebp]

; 313  : 	SetCameraPos( D3DXVECTOR3( fXPos, fYPos, fZPos ) );

  00015	f3 0f 11 45 f0	 movss	 DWORD PTR $T506333[ebp], xmm0
  0001a	f3 0f 10 45 0c	 movss	 xmm0, DWORD PTR _fYPos$[ebp]
  0001f	8d 45 f0	 lea	 eax, DWORD PTR $T506333[ebp]
  00022	f3 0f 11 45 f4	 movss	 DWORD PTR $T506333[ebp+4], xmm0
  00027	f3 0f 10 45 10	 movss	 xmm0, DWORD PTR _fZPos$[ebp]
  0002c	50		 push	 eax
  0002d	f3 0f 11 45 f8	 movss	 DWORD PTR $T506333[ebp+8], xmm0
  00032	e8 00 00 00 00	 call	 ?SetCameraPos@ioUI3DRender@@QAEXABUD3DXVECTOR3@@@Z ; ioUI3DRender::SetCameraPos

; 314  : }

  00037	8b 4d fc	 mov	 ecx, DWORD PTR __$ArrayPad$[ebp]
  0003a	33 cd		 xor	 ecx, ebp
  0003c	e8 00 00 00 00	 call	 @__security_check_cookie@4
  00041	c9		 leave
  00042	c2 0c 00	 ret	 12			; 0000000cH
?SetCameraPos@ioUI3DRender@@QAEXMMM@Z ENDP		; ioUI3DRender::SetCameraPos
_TEXT	ENDS
PUBLIC	?SetLookAt@ioUI3DRender@@QAEXABUD3DXVECTOR3@@@Z	; ioUI3DRender::SetLookAt
EXTRN	__imp_?SetLookAt@ioLookAtCameraController@@QAEXABUD3DXVECTOR3@@@Z:PROC
; Function compile flags: /Ogsp
;	COMDAT ?SetLookAt@ioUI3DRender@@QAEXABUD3DXVECTOR3@@@Z
_TEXT	SEGMENT
_vLookAt$ = 8						; size = 4
?SetLookAt@ioUI3DRender@@QAEXABUD3DXVECTOR3@@@Z PROC	; ioUI3DRender::SetLookAt, COMDAT
; _this$ = ecx

; 317  : {

  00000	55		 push	 ebp
  00001	8b ec		 mov	 ebp, esp

; 318  : 	if( !m_pCamera )	return;

  00003	8b 49 08	 mov	 ecx, DWORD PTR [ecx+8]
  00006	85 c9		 test	 ecx, ecx
  00008	74 1a		 je	 SHORT $LN1@SetLookAt

; 319  : 
; 320  : 	ioLookAtCameraController *pCtrl = ToLookAtCtrl( m_pCamera->GetController() );

  0000a	ff 15 00 00 00
	00		 call	 DWORD PTR __imp_?GetController@ioCamera@@QBEPAVioCameraController@@XZ
  00010	50		 push	 eax
  00011	e8 00 00 00 00	 call	 ?ToLookAtCtrl@@YAPAVioLookAtCameraController@@PAVioCameraController@@@Z ; ToLookAtCtrl
  00016	59		 pop	 ecx

; 321  : 	if( pCtrl )

  00017	85 c0		 test	 eax, eax
  00019	74 09		 je	 SHORT $LN1@SetLookAt

; 322  : 	{
; 323  : 		pCtrl->SetLookAt( vLookAt );

  0001b	8b c8		 mov	 ecx, eax

; 324  : 	}
; 325  : }

  0001d	5d		 pop	 ebp

; 322  : 	{
; 323  : 		pCtrl->SetLookAt( vLookAt );

  0001e	ff 25 00 00 00
	00		 jmp	 DWORD PTR __imp_?SetLookAt@ioLookAtCameraController@@QAEXABUD3DXVECTOR3@@@Z
$LN1@SetLookAt:

; 324  : 	}
; 325  : }

  00024	5d		 pop	 ebp
  00025	c2 04 00	 ret	 4
?SetLookAt@ioUI3DRender@@QAEXABUD3DXVECTOR3@@@Z ENDP	; ioUI3DRender::SetLookAt
_TEXT	ENDS
PUBLIC	__real@4f800000
PUBLIC	__real@4000000000000000
PUBLIC	__real@4082c00000000000
PUBLIC	__real@4089000000000000
PUBLIC	?MakeUIProjection@ioUI3DRender@@QAE?AUD3DXMATRIX@@HH@Z ; ioUI3DRender::MakeUIProjection
EXTRN	?Height@Setting@@SAHXZ:PROC			; Setting::Height
EXTRN	?Width@Setting@@SAHXZ:PROC			; Setting::Width
;	COMDAT __real@4f800000
; File d:\lost saga for developer\youtube\tutorial\source\src\lsclient\stdafx.h
CONST	SEGMENT
__real@4f800000 DD 04f800000r			; 4.29497e+009
CONST	ENDS
;	COMDAT __real@4000000000000000
CONST	SEGMENT
__real@4000000000000000 DQ 04000000000000000r	; 2
CONST	ENDS
;	COMDAT __real@4082c00000000000
CONST	SEGMENT
__real@4082c00000000000 DQ 04082c00000000000r	; 600
CONST	ENDS
;	COMDAT __real@4089000000000000
CONST	SEGMENT
__real@4089000000000000 DQ 04089000000000000r	; 800
; Function compile flags: /Ogsp
; File d:\lost saga for developer\youtube\tutorial\source\src\lsclient\gui\ioui3drender.cpp
CONST	ENDS
;	COMDAT ?MakeUIProjection@ioUI3DRender@@QAE?AUD3DXMATRIX@@HH@Z
_TEXT	SEGMENT
_fCurHeight$ = -12					; size = 4
_fHeightRate$ = -8					; size = 4
_fWidthRate$ = -4					; size = 4
tv336 = 8						; size = 4
tv332 = 8						; size = 4
tv325 = 8						; size = 4
tv319 = 8						; size = 4
_fCurWidth$ = 8						; size = 4
___$ReturnUdt$ = 8					; size = 4
_iXPos$ = 12						; size = 4
_iYPos$ = 16						; size = 4
?MakeUIProjection@ioUI3DRender@@QAE?AUD3DXMATRIX@@HH@Z PROC ; ioUI3DRender::MakeUIProjection, COMDAT
; _this$ = ecx

; 328  : {

  00000	55		 push	 ebp
  00001	8b ec		 mov	 ebp, esp
  00003	83 ec 0c	 sub	 esp, 12			; 0000000cH

; 329  : 	D3DXMATRIX matUIProj;
; 330  : 	D3DXMatrixIdentity( &matUIProj );

  00006	0f 57 c0	 xorps	 xmm0, xmm0
  00009	56		 push	 esi
  0000a	8b 75 08	 mov	 esi, DWORD PTR ___$ReturnUdt$[ebp]
  0000d	f3 0f 11 46 38	 movss	 DWORD PTR [esi+56], xmm0
  00012	f3 0f 11 46 34	 movss	 DWORD PTR [esi+52], xmm0
  00017	f3 0f 11 46 30	 movss	 DWORD PTR [esi+48], xmm0
  0001c	f3 0f 11 46 2c	 movss	 DWORD PTR [esi+44], xmm0
  00021	f3 0f 11 46 24	 movss	 DWORD PTR [esi+36], xmm0
  00026	f3 0f 11 46 20	 movss	 DWORD PTR [esi+32], xmm0
  0002b	f3 0f 11 46 1c	 movss	 DWORD PTR [esi+28], xmm0
  00030	f3 0f 11 46 18	 movss	 DWORD PTR [esi+24], xmm0
  00035	f3 0f 11 46 10	 movss	 DWORD PTR [esi+16], xmm0
  0003a	f3 0f 11 46 0c	 movss	 DWORD PTR [esi+12], xmm0
  0003f	f3 0f 11 46 08	 movss	 DWORD PTR [esi+8], xmm0
  00044	f3 0f 11 46 04	 movss	 DWORD PTR [esi+4], xmm0
  00049	f3 0f 10 05 00
	00 00 00	 movss	 xmm0, DWORD PTR __real@3f800000
  00051	f3 0f 11 46 3c	 movss	 DWORD PTR [esi+60], xmm0
  00056	f3 0f 11 46 28	 movss	 DWORD PTR [esi+40], xmm0
  0005b	f3 0f 11 46 14	 movss	 DWORD PTR [esi+20], xmm0
  00060	f3 0f 11 06	 movss	 DWORD PTR [esi], xmm0

; 331  : 
; 332  : 	float fCurWidth  = (float)Setting::Width();

  00064	e8 00 00 00 00	 call	 ?Width@Setting@@SAHXZ	; Setting::Width
  00069	0f 57 c0	 xorps	 xmm0, xmm0
  0006c	f3 0f 2a c0	 cvtsi2ss xmm0, eax
  00070	f3 0f 11 45 08	 movss	 DWORD PTR _fCurWidth$[ebp], xmm0

; 333  : 	float fCurHeight = (float)Setting::Height();

  00075	e8 00 00 00 00	 call	 ?Height@Setting@@SAHXZ	; Setting::Height

; 334  : 
; 335  : 	float fWidthRate  = 800.0f / (float)fCurWidth;

  0007a	f3 0f 10 45 08	 movss	 xmm0, DWORD PTR _fCurWidth$[ebp]
  0007f	f2 0f 10 15 00
	00 00 00	 movsd	 xmm2, QWORD PTR __real@4089000000000000
  00087	0f 57 c9	 xorps	 xmm1, xmm1
  0008a	f3 0f 2a c8	 cvtsi2ss xmm1, eax
  0008e	0f 5a c0	 cvtps2pd xmm0, xmm0
  00091	f3 0f 11 4d f4	 movss	 DWORD PTR _fCurHeight$[ebp], xmm1

; 336  : 	float fHeightRate = 600.0f / (float)fCurHeight;

  00096	0f 5a c9	 cvtps2pd xmm1, xmm1
  00099	f2 0f 5e d0	 divsd	 xmm2, xmm0
  0009d	66 0f 5a c2	 cvtpd2ps xmm0, xmm2
  000a1	f2 0f 10 15 00
	00 00 00	 movsd	 xmm2, QWORD PTR __real@4082c00000000000
  000a9	f2 0f 5e d1	 divsd	 xmm2, xmm1
  000ad	66 0f 5a ca	 cvtpd2ps xmm1, xmm2
  000b1	f3 0f 11 45 fc	 movss	 DWORD PTR _fWidthRate$[ebp], xmm0
  000b6	f3 0f 11 4d f8	 movss	 DWORD PTR _fHeightRate$[ebp], xmm1

; 337  : 
; 338  : 	float fMoveX = ( (float)iXPos / (float)fCurWidth ) * 2.0f;
; 339  : 	float fMoveY = ( (float)iYPos / (float)fCurHeight ) * 2.0f;
; 340  : 
; 341  : 	matUIProj._11 = fWidthRate;

  000bb	f3 0f 11 06	 movss	 DWORD PTR [esi], xmm0

; 342  : 	matUIProj._22 = fHeightRate;

  000bf	f3 0f 11 4e 14	 movss	 DWORD PTR [esi+20], xmm1

; 343  : 	matUIProj._41 = -( FLOAT1 - fWidthRate ) + fMoveX;

  000c4	b8 01 00 00 00	 mov	 eax, 1
  000c9	db 45 0c	 fild	 DWORD PTR _iXPos$[ebp]
  000cc	d8 75 08	 fdiv	 DWORD PTR _fCurWidth$[ebp]
  000cf	dd 05 00 00 00
	00		 fld	 QWORD PTR __real@4000000000000000
  000d5	dc c9		 fmul	 ST(1), ST(0)
  000d7	d9 c9		 fxch	 ST(1)
  000d9	d9 5d 08	 fstp	 DWORD PTR tv336[ebp]
  000dc	d9 45 08	 fld	 DWORD PTR tv336[ebp]
  000df	89 45 08	 mov	 DWORD PTR tv332[ebp], eax
  000e2	db 45 08	 fild	 DWORD PTR tv332[ebp]
  000e5	85 c0		 test	 eax, eax
  000e7	79 06		 jns	 SHORT $LN11@MakeUIProj
  000e9	d8 05 00 00 00
	00		 fadd	 DWORD PTR __real@4f800000
$LN11@MakeUIProj:
  000ef	d8 65 fc	 fsub	 DWORD PTR _fWidthRate$[ebp]
  000f2	de e9		 fsubp	 ST(1), ST(0)
  000f4	d9 5e 30	 fstp	 DWORD PTR [esi+48]

; 344  : 	matUIProj._42 = ( FLOAT1 - fHeightRate ) - fMoveY;

  000f7	b8 01 00 00 00	 mov	 eax, 1
  000fc	89 45 08	 mov	 DWORD PTR tv325[ebp], eax
  000ff	db 45 08	 fild	 DWORD PTR tv325[ebp]
  00102	85 c0		 test	 eax, eax
  00104	79 06		 jns	 SHORT $LN12@MakeUIProj
  00106	d8 05 00 00 00
	00		 fadd	 DWORD PTR __real@4f800000
$LN12@MakeUIProj:
  0010c	d8 65 f8	 fsub	 DWORD PTR _fHeightRate$[ebp]

; 345  : 
; 346  : 	return matUIProj;

  0010f	8b c6		 mov	 eax, esi
  00111	db 45 10	 fild	 DWORD PTR _iYPos$[ebp]
  00114	d8 75 f4	 fdiv	 DWORD PTR _fCurHeight$[ebp]
  00117	de ca		 fmulp	 ST(2), ST(0)
  00119	d9 c9		 fxch	 ST(1)
  0011b	d9 5d 08	 fstp	 DWORD PTR tv319[ebp]
  0011e	d8 65 08	 fsub	 DWORD PTR tv319[ebp]
  00121	d9 5e 34	 fstp	 DWORD PTR [esi+52]
  00124	5e		 pop	 esi

; 347  : }

  00125	c9		 leave
  00126	c2 0c 00	 ret	 12			; 0000000cH
?MakeUIProjection@ioUI3DRender@@QAE?AUD3DXMATRIX@@HH@Z ENDP ; ioUI3DRender::MakeUIProjection
_TEXT	ENDS
PUBLIC	__mask@@NegFloat@
PUBLIC	?MakeUIProjection@ioUI3DRender@@QAE?AUD3DXMATRIX@@MMMM@Z ; ioUI3DRender::MakeUIProjection
;	COMDAT __mask@@NegFloat@
; File d:\lost saga for developer\youtube\tutorial\source\src\lsclient\stdafx.h
CONST	SEGMENT
__mask@@NegFloat@ DB 00H, 00H, 00H, 080H, 00H, 00H, 00H, 080H, 00H, 00H, 00H
	DB	080H, 00H, 00H, 00H, 080H
; Function compile flags: /Ogsp
; File d:\lost saga for developer\youtube\tutorial\source\src\lsclient\gui\ioui3drender.cpp
CONST	ENDS
;	COMDAT ?MakeUIProjection@ioUI3DRender@@QAE?AUD3DXMATRIX@@MMMM@Z
_TEXT	SEGMENT
tv553 = 8						; size = 4
___$ReturnUdt$ = 8					; size = 4
_vwidth$ = 12						; size = 4
_vheight$ = 16						; size = 4
_fnear$ = 20						; size = 4
_ffar$ = 24						; size = 4
?MakeUIProjection@ioUI3DRender@@QAE?AUD3DXMATRIX@@MMMM@Z PROC ; ioUI3DRender::MakeUIProjection, COMDAT
; _this$ = ecx

; 350  : {

  00000	55		 push	 ebp
  00001	8b ec		 mov	 ebp, esp

; 351  : 	D3DXMATRIX matUIProj;
; 352  : 	D3DXMatrixIdentity( &matUIProj );
; 353  : 
; 354  : 	float fCurWidth  = (float)Setting::Width();

  00003	e8 00 00 00 00	 call	 ?Width@Setting@@SAHXZ	; Setting::Width

; 355  : 	float fCurHeight = (float)Setting::Height();

  00008	e8 00 00 00 00	 call	 ?Height@Setting@@SAHXZ	; Setting::Height

; 356  : 
; 357  : 	float fWidthRate  = 800.0f / (float)fCurWidth;
; 358  : 	float fHeightRate = 600.0f / (float)fCurHeight;
; 359  : 
; 360  : 	float fMoveX = ( (float)0 / (float)fCurWidth ) * 2.0f;
; 361  : 	float fMoveY = ( (float)0 / (float)fCurHeight ) * 2.0f;
; 362  : 
; 363  : 	matUIProj._11 = fWidthRate;
; 364  : 	matUIProj._22 = fHeightRate;
; 365  : 	matUIProj._41 = -( FLOAT1 - fWidthRate ) + fMoveX;

  0000d	b8 01 00 00 00	 mov	 eax, 1

; 366  : 	matUIProj._42 = ( FLOAT1 - fHeightRate ) - fMoveY;

  00012	b8 01 00 00 00	 mov	 eax, 1

; 367  : 
; 368  : 	D3DXMATRIX matUIProj2;
; 369  : 	D3DXMatrixIdentity( &matUIProj2 );

  00017	8b 4d 08	 mov	 ecx, DWORD PTR ___$ReturnUdt$[ebp]
  0001a	0f 57 c0	 xorps	 xmm0, xmm0

; 370  : 
; 371  : 	float n = fnear;
; 372  : 	float f = ffar;
; 373  : 	float w = vwidth;
; 374  : 	float h = vheight;
; 375  : 
; 376  : 	matUIProj2._11 = 2 * n / w;

  0001d	f3 0f 10 4d 0c	 movss	 xmm1, DWORD PTR _vwidth$[ebp]

; 377  : 	matUIProj2._22 = 2 * n / h;
; 378  : 	matUIProj2._33 = f / ( f - n );

  00022	f3 0f 10 5d 14	 movss	 xmm3, DWORD PTR _fnear$[ebp]
  00027	f3 0f 11 41 34	 movss	 DWORD PTR [ecx+52], xmm0
  0002c	f3 0f 11 41 30	 movss	 DWORD PTR [ecx+48], xmm0
  00031	f3 0f 11 41 24	 movss	 DWORD PTR [ecx+36], xmm0
  00036	f3 0f 11 41 20	 movss	 DWORD PTR [ecx+32], xmm0
  0003b	f3 0f 11 41 1c	 movss	 DWORD PTR [ecx+28], xmm0
  00040	f3 0f 11 41 18	 movss	 DWORD PTR [ecx+24], xmm0
  00045	f3 0f 11 41 10	 movss	 DWORD PTR [ecx+16], xmm0
  0004a	f3 0f 11 41 0c	 movss	 DWORD PTR [ecx+12], xmm0
  0004f	f3 0f 11 41 08	 movss	 DWORD PTR [ecx+8], xmm0
  00054	f3 0f 11 41 04	 movss	 DWORD PTR [ecx+4], xmm0
  00059	f3 0f 10 05 00
	00 00 00	 movss	 xmm0, DWORD PTR __real@3f800000
  00061	f3 0f 11 41 3c	 movss	 DWORD PTR [ecx+60], xmm0
  00066	f3 0f 10 45 14	 movss	 xmm0, DWORD PTR _fnear$[ebp]
  0006b	0f 5a c0	 cvtps2pd xmm0, xmm0
  0006e	f2 0f 59 05 00
	00 00 00	 mulsd	 xmm0, QWORD PTR __real@4000000000000000
  00076	0f 5a c9	 cvtps2pd xmm1, xmm1
  00079	66 0f 28 d0	 movapd	 xmm2, xmm0
  0007d	f2 0f 5e d1	 divsd	 xmm2, xmm1
  00081	0f 57 c9	 xorps	 xmm1, xmm1
  00084	f2 0f 5a ca	 cvtsd2ss xmm1, xmm2
  00088	f3 0f 10 55 18	 movss	 xmm2, DWORD PTR _ffar$[ebp]
  0008d	f3 0f 11 09	 movss	 DWORD PTR [ecx], xmm1
  00091	f3 0f 10 4d 10	 movss	 xmm1, DWORD PTR _vheight$[ebp]
  00096	0f 5a c9	 cvtps2pd xmm1, xmm1
  00099	f2 0f 5e c1	 divsd	 xmm0, xmm1
  0009d	f2 0f 5a c0	 cvtsd2ss xmm0, xmm0
  000a1	f3 0f 11 41 14	 movss	 DWORD PTR [ecx+20], xmm0
  000a6	0f 5a db	 cvtps2pd xmm3, xmm3
  000a9	0f 5a c2	 cvtps2pd xmm0, xmm2
  000ac	66 0f 28 c8	 movapd	 xmm1, xmm0
  000b0	f2 0f 5c cb	 subsd	 xmm1, xmm3
  000b4	f2 0f 5e c1	 divsd	 xmm0, xmm1
  000b8	66 0f 5a c0	 cvtpd2ps xmm0, xmm0
  000bc	f3 0f 11 41 28	 movss	 DWORD PTR [ecx+40], xmm0

; 379  : 	matUIProj2._34 = FLOAT1;

  000c1	b8 01 00 00 00	 mov	 eax, 1
  000c6	89 45 08	 mov	 DWORD PTR tv553[ebp], eax
  000c9	db 45 08	 fild	 DWORD PTR tv553[ebp]
  000cc	85 c0		 test	 eax, eax
  000ce	79 06		 jns	 SHORT $LN17@MakeUIProj@2
  000d0	d8 05 00 00 00
	00		 fadd	 DWORD PTR __real@4f800000
$LN17@MakeUIProj@2:

; 380  : 	matUIProj2._43 = ( -f * n ) / ( f - n );

  000d6	0f 57 15 00 00
	00 00		 xorps	 xmm2, DWORD PTR __mask@@NegFloat@
  000dd	d9 59 2c	 fstp	 DWORD PTR [ecx+44]
  000e0	0f 5a c2	 cvtps2pd xmm0, xmm2
  000e3	f3 0f 10 55 14	 movss	 xmm2, DWORD PTR _fnear$[ebp]
  000e8	0f 5a d2	 cvtps2pd xmm2, xmm2
  000eb	f2 0f 59 c2	 mulsd	 xmm0, xmm2
  000ef	f2 0f 5e c1	 divsd	 xmm0, xmm1
  000f3	66 0f 5a c0	 cvtpd2ps xmm0, xmm0
  000f7	f3 0f 11 41 38	 movss	 DWORD PTR [ecx+56], xmm0

; 381  : 
; 382  : 	return matUIProj2;;

  000fc	8b c1		 mov	 eax, ecx

; 383  : }

  000fe	5d		 pop	 ebp
  000ff	c2 14 00	 ret	 20			; 00000014H
?MakeUIProjection@ioUI3DRender@@QAE?AUD3DXMATRIX@@MMMM@Z ENDP ; ioUI3DRender::MakeUIProjection
_TEXT	ENDS
PUBLIC	__$ArrayPad$
PUBLIC	?SetLookAt@ioUI3DRender@@QAEXMMM@Z		; ioUI3DRender::SetLookAt
; Function compile flags: /Ogsp
;	COMDAT ?SetLookAt@ioUI3DRender@@QAEXMMM@Z
_TEXT	SEGMENT
$T506401 = -16						; size = 12
__$ArrayPad$ = -4					; size = 4
_fXPos$ = 8						; size = 4
_fYPos$ = 12						; size = 4
_fZPos$ = 16						; size = 4
?SetLookAt@ioUI3DRender@@QAEXMMM@Z PROC			; ioUI3DRender::SetLookAt, COMDAT
; _this$ = ecx

; 386  : {

  00000	55		 push	 ebp
  00001	8b ec		 mov	 ebp, esp
  00003	83 ec 10	 sub	 esp, 16			; 00000010H
  00006	a1 00 00 00 00	 mov	 eax, DWORD PTR ___security_cookie
  0000b	33 c5		 xor	 eax, ebp
  0000d	89 45 fc	 mov	 DWORD PTR __$ArrayPad$[ebp], eax
  00010	f3 0f 10 45 08	 movss	 xmm0, DWORD PTR _fXPos$[ebp]

; 387  : 	SetLookAt( D3DXVECTOR3( fXPos, fYPos, fZPos ) );

  00015	f3 0f 11 45 f0	 movss	 DWORD PTR $T506401[ebp], xmm0
  0001a	f3 0f 10 45 0c	 movss	 xmm0, DWORD PTR _fYPos$[ebp]
  0001f	8d 45 f0	 lea	 eax, DWORD PTR $T506401[ebp]
  00022	f3 0f 11 45 f4	 movss	 DWORD PTR $T506401[ebp+4], xmm0
  00027	f3 0f 10 45 10	 movss	 xmm0, DWORD PTR _fZPos$[ebp]
  0002c	50		 push	 eax
  0002d	f3 0f 11 45 f8	 movss	 DWORD PTR $T506401[ebp+8], xmm0
  00032	e8 00 00 00 00	 call	 ?SetLookAt@ioUI3DRender@@QAEXABUD3DXVECTOR3@@@Z ; ioUI3DRender::SetLookAt

; 388  : }

  00037	8b 4d fc	 mov	 ecx, DWORD PTR __$ArrayPad$[ebp]
  0003a	33 cd		 xor	 ecx, ebp
  0003c	e8 00 00 00 00	 call	 @__security_check_cookie@4
  00041	c9		 leave
  00042	c2 0c 00	 ret	 12			; 0000000cH
?SetLookAt@ioUI3DRender@@QAEXMMM@Z ENDP			; ioUI3DRender::SetLookAt
_TEXT	ENDS
PUBLIC	?GetCameraPosition@ioUI3DRender@@QBE?AUD3DXVECTOR3@@XZ ; ioUI3DRender::GetCameraPosition
EXTRN	__imp_?GetPosition@ioCameraController@@QBEABUD3DXVECTOR3@@XZ:PROC
; Function compile flags: /Ogsp
;	COMDAT ?GetCameraPosition@ioUI3DRender@@QBE?AUD3DXVECTOR3@@XZ
_TEXT	SEGMENT
___$ReturnUdt$ = 8					; size = 4
?GetCameraPosition@ioUI3DRender@@QBE?AUD3DXVECTOR3@@XZ PROC ; ioUI3DRender::GetCameraPosition, COMDAT
; _this$ = ecx

; 399  : {

  00000	55		 push	 ebp
  00001	8b ec		 mov	 ebp, esp

; 400  : 	if( !m_pCamera )	return D3DXVECTOR3( 0.0f, 0.0f, 0.0f );

  00003	8b 49 08	 mov	 ecx, DWORD PTR [ecx+8]
  00006	85 c9		 test	 ecx, ecx
  00008	74 29		 je	 SHORT $LN1@GetCameraP

; 401  : 
; 402  : 	ioLookAtCameraController *pCtrl = ToLookAtCtrl( m_pCamera->GetController() );

  0000a	ff 15 00 00 00
	00		 call	 DWORD PTR __imp_?GetController@ioCamera@@QBEPAVioCameraController@@XZ
  00010	50		 push	 eax
  00011	e8 00 00 00 00	 call	 ?ToLookAtCtrl@@YAPAVioLookAtCameraController@@PAVioCameraController@@@Z ; ToLookAtCtrl
  00016	59		 pop	 ecx

; 403  : 	if( pCtrl )

  00017	85 c0		 test	 eax, eax
  00019	74 18		 je	 SHORT $LN1@GetCameraP

; 404  : 	{
; 405  : 		return pCtrl->GetPosition();

  0001b	56		 push	 esi
  0001c	57		 push	 edi
  0001d	8b c8		 mov	 ecx, eax
  0001f	ff 15 00 00 00
	00		 call	 DWORD PTR __imp_?GetPosition@ioCameraController@@QBEABUD3DXVECTOR3@@XZ
  00025	8b f0		 mov	 esi, eax
  00027	8b 45 08	 mov	 eax, DWORD PTR ___$ReturnUdt$[ebp]
  0002a	8b f8		 mov	 edi, eax
  0002c	a5		 movsd
  0002d	a5		 movsd
  0002e	a5		 movsd
  0002f	5f		 pop	 edi
  00030	5e		 pop	 esi
  00031	eb 14		 jmp	 SHORT $LN3@GetCameraP
$LN1@GetCameraP:

; 406  : 	}
; 407  : 	return D3DXVECTOR3( 0.0f, 0.0f, 0.0f );

  00033	8b 45 08	 mov	 eax, DWORD PTR ___$ReturnUdt$[ebp]
  00036	0f 57 c0	 xorps	 xmm0, xmm0
  00039	f3 0f 11 40 08	 movss	 DWORD PTR [eax+8], xmm0
  0003e	f3 0f 11 40 04	 movss	 DWORD PTR [eax+4], xmm0
  00043	f3 0f 11 00	 movss	 DWORD PTR [eax], xmm0
$LN3@GetCameraP:

; 408  : }

  00047	5d		 pop	 ebp
  00048	c2 04 00	 ret	 4
?GetCameraPosition@ioUI3DRender@@QBE?AUD3DXVECTOR3@@XZ ENDP ; ioUI3DRender::GetCameraPosition
_TEXT	ENDS
PUBLIC	_rkLightTexture$GSCopy$
PUBLIC	_this$GSCopy$
PUBLIC	??_C@_09GPNKDEKN@MainLight?$AA@			; `string'
PUBLIC	_rkSpecular$GSCopy$
PUBLIC	_rkDiffuse$GSCopy$
PUBLIC	_vDir$GSCopy$
PUBLIC	?SetMainLight@ioUI3DRender@@IAEXABUD3DXVECTOR3@@ABU_D3DCOLORVALUE@@1ABVioHashString@@@Z ; ioUI3DRender::SetMainLight
EXTRN	__imp_?SetDirection@ioLight@@QAEXABUD3DXVECTOR3@@@Z:PROC
EXTRN	_D3DXVec3Normalize@8:PROC
EXTRN	__imp_?SetLightTexture@ioLight@@QAEXABVioHashString@@@Z:PROC
EXTRN	__imp_?SetSpecularColor@ioLight@@QAEXMMM@Z:PROC
EXTRN	__imp_?SetDiffuseColor@ioLight@@QAEXMMM@Z:PROC
EXTRN	__imp_?SetType@ioLight@@QAEXW4LightType@@@Z:PROC
EXTRN	__imp_?SetAttribute@ioLight@@QAEXK@Z:PROC
EXTRN	__imp_?GetLight@ioSceneManager@@QAEPAVioLight@@ABVioHashString@@@Z:PROC
EXTRN	__imp_??0ioHashString@@QAE@PBD@Z:PROC
EXTRN	__EH_epilog3_GS:PROC
EXTRN	__EH_prolog3_GS:PROC
;	COMDAT ??_C@_09GPNKDEKN@MainLight?$AA@
; File c:\program files (x86)\microsoft directx sdk (june 2010)\include\d3dx9math.h
CONST	SEGMENT
??_C@_09GPNKDEKN@MainLight?$AA@ DB 'MainLight', 00H	; `string'
CONST	ENDS
;	COMDAT xdata$x
xdata$x	SEGMENT
__unwindtable$?SetMainLight@ioUI3DRender@@IAEXABUD3DXVECTOR3@@ABU_D3DCOLORVALUE@@1ABVioHashString@@@Z DD 0ffffffffH
	DD	FLAT:__unwindfunclet$?SetMainLight@ioUI3DRender@@IAEXABUD3DXVECTOR3@@ABU_D3DCOLORVALUE@@1ABVioHashString@@@Z$0
	DD	0ffffffffH
	DD	FLAT:__unwindfunclet$?SetMainLight@ioUI3DRender@@IAEXABUD3DXVECTOR3@@ABU_D3DCOLORVALUE@@1ABVioHashString@@@Z$1
__ehfuncinfo$?SetMainLight@ioUI3DRender@@IAEXABUD3DXVECTOR3@@ABU_D3DCOLORVALUE@@1ABVioHashString@@@Z DD 019930522H
	DD	02H
	DD	FLAT:__unwindtable$?SetMainLight@ioUI3DRender@@IAEXABUD3DXVECTOR3@@ABU_D3DCOLORVALUE@@1ABVioHashString@@@Z
	DD	2 DUP(00H)
	DD	2 DUP(00H)
	DD	00H
	DD	01H
; Function compile flags: /Ogsp
; File d:\lost saga for developer\youtube\tutorial\source\src\lsclient\gui\ioui3drender.cpp
xdata$x	ENDS
;	COMDAT ?SetMainLight@ioUI3DRender@@IAEXABUD3DXVECTOR3@@ABU_D3DCOLORVALUE@@1ABVioHashString@@@Z
_TEXT	SEGMENT
$T511714 = -84						; size = 16
$T511713 = -68						; size = 16
_rkSpecular$GSCopy$ = -52				; size = 4
_this$GSCopy$ = -48					; size = 4
_rkDiffuse$GSCopy$ = -44				; size = 4
_vDir$GSCopy$ = -40					; size = 4
_rkLightTexture$GSCopy$ = -36				; size = 4
_pMainLight$ = -32					; size = 4
_vNormalizeDir$ = -28					; size = 12
__$EHRec$ = -12						; size = 12
_vDir$ = 8						; size = 4
_rkDiffuse$ = 12					; size = 4
_rkSpecular$ = 16					; size = 4
_rkLightTexture$ = 20					; size = 4
?SetMainLight@ioUI3DRender@@IAEXABUD3DXVECTOR3@@ABU_D3DCOLORVALUE@@1ABVioHashString@@@Z PROC ; ioUI3DRender::SetMainLight, COMDAT
; _this$ = ecx

; 431  : {

  00000	6a 48		 push	 72			; 00000048H
  00002	b8 00 00 00 00	 mov	 eax, __ehhandler$?SetMainLight@ioUI3DRender@@IAEXABUD3DXVECTOR3@@ABU_D3DCOLORVALUE@@1ABVioHashString@@@Z
  00007	e8 00 00 00 00	 call	 __EH_prolog3_GS
  0000c	8b 45 08	 mov	 eax, DWORD PTR _vDir$[ebp]

; 432  : 	ioLight *pMainLight = m_pSceneMgr->GetLight( "MainLight" );

  0000f	8b 35 00 00 00
	00		 mov	 esi, DWORD PTR __imp_??0ioHashString@@QAE@PBD@Z
  00015	89 45 d8	 mov	 DWORD PTR _vDir$GSCopy$[ebp], eax
  00018	8b 45 0c	 mov	 eax, DWORD PTR _rkDiffuse$[ebp]
  0001b	89 45 d4	 mov	 DWORD PTR _rkDiffuse$GSCopy$[ebp], eax
  0001e	8b 45 10	 mov	 eax, DWORD PTR _rkSpecular$[ebp]
  00021	8b f9		 mov	 edi, ecx
  00023	89 45 cc	 mov	 DWORD PTR _rkSpecular$GSCopy$[ebp], eax
  00026	8b 45 14	 mov	 eax, DWORD PTR _rkLightTexture$[ebp]
  00029	bb 00 00 00 00	 mov	 ebx, OFFSET ??_C@_09GPNKDEKN@MainLight?$AA@
  0002e	53		 push	 ebx
  0002f	8d 4d bc	 lea	 ecx, DWORD PTR $T511713[ebp]
  00032	89 7d d0	 mov	 DWORD PTR _this$GSCopy$[ebp], edi
  00035	89 45 dc	 mov	 DWORD PTR _rkLightTexture$GSCopy$[ebp], eax
  00038	ff d6		 call	 esi
  0003a	8b 4f 04	 mov	 ecx, DWORD PTR [edi+4]
  0003d	83 65 fc 00	 and	 DWORD PTR __$EHRec$[ebp+8], 0
  00041	8d 45 bc	 lea	 eax, DWORD PTR $T511713[ebp]
  00044	50		 push	 eax
  00045	ff 15 00 00 00
	00		 call	 DWORD PTR __imp_?GetLight@ioSceneManager@@QAEPAVioLight@@ABVioHashString@@@Z
  0004b	8b 3d 00 00 00
	00		 mov	 edi, DWORD PTR __imp_??1ioHashString@@QAE@XZ
  00051	83 4d fc ff	 or	 DWORD PTR __$EHRec$[ebp+8], -1
  00055	8d 4d bc	 lea	 ecx, DWORD PTR $T511713[ebp]
  00058	89 45 e0	 mov	 DWORD PTR _pMainLight$[ebp], eax
  0005b	ff d7		 call	 edi

; 433  : 	if( !pMainLight )

  0005d	83 7d e0 00	 cmp	 DWORD PTR _pMainLight$[ebp], 0
  00061	75 3e		 jne	 SHORT $LN1@SetMainLig

; 434  : 	{
; 435  : 		pMainLight = m_pSceneMgr->CreateLight( "MainLight" );

  00063	53		 push	 ebx
  00064	8d 4d ac	 lea	 ecx, DWORD PTR $T511714[ebp]
  00067	ff d6		 call	 esi
  00069	8b 45 d0	 mov	 eax, DWORD PTR _this$GSCopy$[ebp]
  0006c	8b 48 04	 mov	 ecx, DWORD PTR [eax+4]
  0006f	8b 01		 mov	 eax, DWORD PTR [ecx]
  00071	8d 55 ac	 lea	 edx, DWORD PTR $T511714[ebp]
  00074	52		 push	 edx
  00075	c7 45 fc 01 00
	00 00		 mov	 DWORD PTR __$EHRec$[ebp+8], 1
  0007c	ff 50 44	 call	 DWORD PTR [eax+68]
  0007f	83 4d fc ff	 or	 DWORD PTR __$EHRec$[ebp+8], -1
  00083	8d 4d ac	 lea	 ecx, DWORD PTR $T511714[ebp]
  00086	89 45 e0	 mov	 DWORD PTR _pMainLight$[ebp], eax
  00089	ff d7		 call	 edi

; 436  : 		pMainLight->SetAttribute( ioLight::LAM_REAL_TIME );

  0008b	8b 4d e0	 mov	 ecx, DWORD PTR _pMainLight$[ebp]
  0008e	6a 02		 push	 2
  00090	ff 15 00 00 00
	00		 call	 DWORD PTR __imp_?SetAttribute@ioLight@@QAEXK@Z

; 437  : 		pMainLight->SetType( LT_DIRECTIONAL );

  00096	8b 4d e0	 mov	 ecx, DWORD PTR _pMainLight$[ebp]
  00099	6a 03		 push	 3
  0009b	ff 15 00 00 00
	00		 call	 DWORD PTR __imp_?SetType@ioLight@@QAEXW4LightType@@@Z
$LN1@SetMainLig:

; 438  : 	}
; 439  : 
; 440  : 	pMainLight->SetDiffuseColor( rkDiffuse.r, rkDiffuse.g, rkDiffuse.b );

  000a1	8b 45 d4	 mov	 eax, DWORD PTR _rkDiffuse$GSCopy$[ebp]
  000a4	f3 0f 10 40 08	 movss	 xmm0, DWORD PTR [eax+8]
  000a9	8b 4d e0	 mov	 ecx, DWORD PTR _pMainLight$[ebp]
  000ac	83 ec 0c	 sub	 esp, 12			; 0000000cH
  000af	f3 0f 11 44 24
	08		 movss	 DWORD PTR [esp+8], xmm0
  000b5	f3 0f 10 40 04	 movss	 xmm0, DWORD PTR [eax+4]
  000ba	f3 0f 11 44 24
	04		 movss	 DWORD PTR [esp+4], xmm0
  000c0	f3 0f 10 00	 movss	 xmm0, DWORD PTR [eax]
  000c4	f3 0f 11 04 24	 movss	 DWORD PTR [esp], xmm0
  000c9	ff 15 00 00 00
	00		 call	 DWORD PTR __imp_?SetDiffuseColor@ioLight@@QAEXMMM@Z

; 441  : 	pMainLight->SetSpecularColor( rkSpecular.r, rkSpecular.g, rkSpecular.b );

  000cf	8b 45 cc	 mov	 eax, DWORD PTR _rkSpecular$GSCopy$[ebp]
  000d2	f3 0f 10 40 08	 movss	 xmm0, DWORD PTR [eax+8]
  000d7	8b 4d e0	 mov	 ecx, DWORD PTR _pMainLight$[ebp]
  000da	83 ec 0c	 sub	 esp, 12			; 0000000cH
  000dd	f3 0f 11 44 24
	08		 movss	 DWORD PTR [esp+8], xmm0
  000e3	f3 0f 10 40 04	 movss	 xmm0, DWORD PTR [eax+4]
  000e8	f3 0f 11 44 24
	04		 movss	 DWORD PTR [esp+4], xmm0
  000ee	f3 0f 10 00	 movss	 xmm0, DWORD PTR [eax]
  000f2	f3 0f 11 04 24	 movss	 DWORD PTR [esp], xmm0
  000f7	ff 15 00 00 00
	00		 call	 DWORD PTR __imp_?SetSpecularColor@ioLight@@QAEXMMM@Z

; 442  : 	pMainLight->SetLightTexture( rkLightTexture );

  000fd	ff 75 dc	 push	 DWORD PTR _rkLightTexture$GSCopy$[ebp]
  00100	8b 4d e0	 mov	 ecx, DWORD PTR _pMainLight$[ebp]
  00103	ff 15 00 00 00
	00		 call	 DWORD PTR __imp_?SetLightTexture@ioLight@@QAEXABVioHashString@@@Z

; 443  : 
; 444  : 	D3DXVECTOR3 vNormalizeDir;
; 445  : 	D3DXVec3Normalize( &vNormalizeDir, &vDir );

  00109	ff 75 d8	 push	 DWORD PTR _vDir$GSCopy$[ebp]
  0010c	8d 45 e4	 lea	 eax, DWORD PTR _vNormalizeDir$[ebp]
  0010f	50		 push	 eax
  00110	e8 00 00 00 00	 call	 _D3DXVec3Normalize@8

; 446  : 	pMainLight->SetDirection( vNormalizeDir );

  00115	8b 4d e0	 mov	 ecx, DWORD PTR _pMainLight$[ebp]
  00118	8d 45 e4	 lea	 eax, DWORD PTR _vNormalizeDir$[ebp]
  0011b	50		 push	 eax
  0011c	ff 15 00 00 00
	00		 call	 DWORD PTR __imp_?SetDirection@ioLight@@QAEXABUD3DXVECTOR3@@@Z

; 447  : }

  00122	e8 00 00 00 00	 call	 __EH_epilog3_GS
  00127	c2 10 00	 ret	 16			; 00000010H
_TEXT	ENDS
;	COMDAT text$x
text$x	SEGMENT
__unwindfunclet$?SetMainLight@ioUI3DRender@@IAEXABUD3DXVECTOR3@@ABU_D3DCOLORVALUE@@1ABVioHashString@@@Z$0:
  00000	8d 4d bc	 lea	 ecx, DWORD PTR $T511713[ebp]
  00003	ff 25 00 00 00
	00		 jmp	 DWORD PTR __imp_??1ioHashString@@QAE@XZ
__unwindfunclet$?SetMainLight@ioUI3DRender@@IAEXABUD3DXVECTOR3@@ABU_D3DCOLORVALUE@@1ABVioHashString@@@Z$1:
  00009	8d 4d ac	 lea	 ecx, DWORD PTR $T511714[ebp]
  0000c	ff 25 00 00 00
	00		 jmp	 DWORD PTR __imp_??1ioHashString@@QAE@XZ
__ehhandler$?SetMainLight@ioUI3DRender@@IAEXABUD3DXVECTOR3@@ABU_D3DCOLORVALUE@@1ABVioHashString@@@Z:
  00012	8b 54 24 08	 mov	 edx, DWORD PTR [esp+8]
  00016	8d 42 0c	 lea	 eax, DWORD PTR [edx+12]
  00019	8b 4a a8	 mov	 ecx, DWORD PTR [edx-88]
  0001c	33 c8		 xor	 ecx, eax
  0001e	e8 00 00 00 00	 call	 @__security_check_cookie@4
  00023	8b 4a fc	 mov	 ecx, DWORD PTR [edx-4]
  00026	33 c8		 xor	 ecx, eax
  00028	e8 00 00 00 00	 call	 @__security_check_cookie@4
  0002d	b8 00 00 00 00	 mov	 eax, OFFSET __ehfuncinfo$?SetMainLight@ioUI3DRender@@IAEXABUD3DXVECTOR3@@ABU_D3DCOLORVALUE@@1ABVioHashString@@@Z
  00032	e9 00 00 00 00	 jmp	 ___CxxFrameHandler3
text$x	ENDS
?SetMainLight@ioUI3DRender@@IAEXABUD3DXVECTOR3@@ABU_D3DCOLORVALUE@@1ABVioHashString@@@Z ENDP ; ioUI3DRender::SetMainLight
PUBLIC	??_C@_0CJ@BLLOIOCP@ioUI3DRender?3?3LoadChar?5?9?5CreateC@ ; `string'
PUBLIC	??_C@_0DD@FEFIHOCC@ioUI3DRender?3?3LoadChar?5?9?5CreateC@ ; `string'
PUBLIC	??_C@_0CO@MEEKJNOG@ioUI3DRender?3?3LoadChar?5?9?5CreateE@ ; `string'
PUBLIC	_rkName$GSCopy$
PUBLIC	?LoadChar@ioUI3DRender@@IAEPAVioCreateChar@@ABUCHARACTER@@ABVioHashString@@_N@Z ; ioUI3DRender::LoadChar
EXTRN	?SetCreateChar@ioUICharAniEventHandler@@QAEXPAVioCreateChar@@@Z:PROC ; ioUICharAniEventHandler::SetCreateChar
EXTRN	??0ioUICharAniEventHandler@@QAE@XZ:PROC		; ioUICharAniEventHandler::ioUICharAniEventHandler
EXTRN	?Initialize@ioCreateChar@@QAEXW4RaceType@@_N1@Z:PROC ; ioCreateChar::Initialize
EXTRN	??0ioCreateChar@@QAE@PAVioEntityGroup@@@Z:PROC	; ioCreateChar::ioCreateChar
EXTRN	?GetRaceDetailType@@YA?AW4RaceDetailType@@ABUCHARACTER@@@Z:PROC ; GetRaceDetailType
;	COMDAT ??_C@_0CJ@BLLOIOCP@ioUI3DRender?3?3LoadChar?5?9?5CreateC@
; File d:\lost saga for developer\youtube\tutorial\source\src\lsclient\iocreatechar.h
CONST	SEGMENT
??_C@_0CJ@BLLOIOCP@ioUI3DRender?3?3LoadChar?5?9?5CreateC@ DB 'ioUI3DRende'
	DB	'r::LoadChar - CreateChar NULL', 00H		; `string'
CONST	ENDS
;	COMDAT ??_C@_0DD@FEFIHOCC@ioUI3DRender?3?3LoadChar?5?9?5CreateC@
CONST	SEGMENT
??_C@_0DD@FEFIHOCC@ioUI3DRender?3?3LoadChar?5?9?5CreateC@ DB 'ioUI3DRende'
	DB	'r::LoadChar - CreateChildSceneNode Fail', 00H ; `string'
CONST	ENDS
;	COMDAT ??_C@_0CO@MEEKJNOG@ioUI3DRender?3?3LoadChar?5?9?5CreateE@
CONST	SEGMENT
??_C@_0CO@MEEKJNOG@ioUI3DRender?3?3LoadChar?5?9?5CreateE@ DB 'ioUI3DRende'
	DB	'r::LoadChar - CreateEntityGrp Fail', 00H	; `string'
CONST	ENDS
;	COMDAT xdata$x
xdata$x	SEGMENT
__unwindtable$?LoadChar@ioUI3DRender@@IAEPAVioCreateChar@@ABUCHARACTER@@ABVioHashString@@_N@Z DD 0ffffffffH
	DD	FLAT:__unwindfunclet$?LoadChar@ioUI3DRender@@IAEPAVioCreateChar@@ABUCHARACTER@@ABVioHashString@@_N@Z$0
	DD	0ffffffffH
	DD	FLAT:__unwindfunclet$?LoadChar@ioUI3DRender@@IAEPAVioCreateChar@@ABUCHARACTER@@ABVioHashString@@_N@Z$1
__ehfuncinfo$?LoadChar@ioUI3DRender@@IAEPAVioCreateChar@@ABUCHARACTER@@ABVioHashString@@_N@Z DD 019930522H
	DD	02H
	DD	FLAT:__unwindtable$?LoadChar@ioUI3DRender@@IAEPAVioCreateChar@@ABUCHARACTER@@ABVioHashString@@_N@Z
	DD	2 DUP(00H)
	DD	2 DUP(00H)
	DD	00H
	DD	01H
; Function compile flags: /Ogsp
; File d:\lost saga for developer\youtube\tutorial\source\src\lsclient\gui\ioui3drender.cpp
xdata$x	ENDS
;	COMDAT ?LoadChar@ioUI3DRender@@IAEPAVioCreateChar@@ABUCHARACTER@@ABVioHashString@@_N@Z
_TEXT	SEGMENT
_rkName$GSCopy$ = -104					; size = 4
$T511741 = -104						; size = 4
_bMale$ = -100						; size = 1
_pGrp$ = -96						; size = 4
$T511737 = -92						; size = 4
_eType$ = -92						; size = 4
_szEncSP2DwarfWoman$507209 = -88			; size = 29
_szEncSP2DwarfMan$507059 = -52				; size = 27
_szEncSP2ElfWoman$506909 = -52				; size = 27
_szEncSP2HumanWoman$506609 = -52			; size = 29
_szEncSP2HumanMan$506459 = -52				; size = 27
_szEncSP2ElfMan$506759 = -48				; size = 25
__$EHRec$ = -12						; size = 12
_rkInfo$ = 8						; size = 4
_rkName$ = 12						; size = 4
_bThread$ = 16						; size = 1
?LoadChar@ioUI3DRender@@IAEPAVioCreateChar@@ABUCHARACTER@@ABVioHashString@@_N@Z PROC ; ioUI3DRender::LoadChar, COMDAT
; _this$ = ecx

; 452  : {

  00000	6a 5c		 push	 92			; 0000005cH
  00002	b8 00 00 00 00	 mov	 eax, __ehhandler$?LoadChar@ioUI3DRender@@IAEPAVioCreateChar@@ABUCHARACTER@@ABVioHashString@@_N@Z
  00007	e8 00 00 00 00	 call	 __EH_prolog3_GS
  0000c	8b 45 0c	 mov	 eax, DWORD PTR _rkName$[ebp]
  0000f	8b 7d 08	 mov	 edi, DWORD PTR _rkInfo$[ebp]
  00012	8b f1		 mov	 esi, ecx

; 453  : 	ioEntityGroup *pGrp = m_pSceneMgr->CreateEntityGrp();

  00014	8b 4e 04	 mov	 ecx, DWORD PTR [esi+4]
  00017	89 45 98	 mov	 DWORD PTR _rkName$GSCopy$[ebp], eax
  0001a	8b 01		 mov	 eax, DWORD PTR [ecx]
  0001c	ff 50 30	 call	 DWORD PTR [eax+48]
  0001f	89 45 a0	 mov	 DWORD PTR _pGrp$[ebp], eax

; 454  : 	if( !pGrp )

  00022	85 c0		 test	 eax, eax
  00024	75 1d		 jne	 SHORT $LN588@LoadChar

; 455  : 	{
; 456  : 		LOG.PrintTimeAndLog( 0, "ioUI3DRender::LoadChar - CreateEntityGrp Fail" );

  00026	68 00 00 00 00	 push	 OFFSET ??_C@_0CO@MEEKJNOG@ioUI3DRender?3?3LoadChar?5?9?5CreateE@
$LN677@LoadChar:
  0002b	6a 00		 push	 0
  0002d	ff 35 00 00 00
	00		 push	 DWORD PTR __imp_?LOG@@3VCLog@@A
  00033	ff 15 00 00 00
	00		 call	 DWORD PTR __imp_?PrintTimeAndLog@CLog@@QAAXHPADZZ
  00039	83 c4 0c	 add	 esp, 12			; 0000000cH

; 457  : 		return NULL;

  0003c	33 c0		 xor	 eax, eax
  0003e	e9 2d 03 00 00	 jmp	 $LN589@LoadChar
$LN588@LoadChar:

; 458  : 	}
; 459  : 
; 460  : 	ioSceneNode *pSNode = m_pSceneMgr->GetRootSceneNode()->CreateChildSceneNode();

  00043	8b 4e 04	 mov	 ecx, DWORD PTR [esi+4]
  00046	8b 01		 mov	 eax, DWORD PTR [ecx]
  00048	ff 50 28	 call	 DWORD PTR [eax+40]
  0004b	8b 10		 mov	 edx, DWORD PTR [eax]
  0004d	8b c8		 mov	 ecx, eax
  0004f	ff 92 c4 00 00
	00		 call	 DWORD PTR [edx+196]

; 461  : 	if( !pSNode )

  00055	85 c0		 test	 eax, eax
  00057	75 07		 jne	 SHORT $LN587@LoadChar

; 462  : 	{
; 463  : 		LOG.PrintTimeAndLog( 0, "ioUI3DRender::LoadChar - CreateChildSceneNode Fail" );

  00059	68 00 00 00 00	 push	 OFFSET ??_C@_0DD@FEFIHOCC@ioUI3DRender?3?3LoadChar?5?9?5CreateC@

; 464  : 		return NULL;

  0005e	eb cb		 jmp	 SHORT $LN677@LoadChar
$LN587@LoadChar:

; 465  : 	}
; 466  : 
; 467  : 	pSNode->AttachObject( pGrp );

  00060	8b 75 a0	 mov	 esi, DWORD PTR _pGrp$[ebp]
  00063	8b 10		 mov	 edx, DWORD PTR [eax]
  00065	56		 push	 esi
  00066	8b c8		 mov	 ecx, eax
  00068	ff 92 ac 00 00
	00		 call	 DWORD PTR [edx+172]

; 468  : 	
; 469  : 	//UJ 140318, : txt    
; 470  : 	RaceDetailType eType = GetRaceDetailType( rkInfo );

  0006e	57		 push	 edi
  0006f	e8 00 00 00 00	 call	 ?GetRaceDetailType@@YA?AW4RaceDetailType@@ABUCHARACTER@@@Z ; GetRaceDetailType
  00074	89 45 a4	 mov	 DWORD PTR _eType$[ebp], eax

; 471  : 	switch( eType )

  00077	83 e8 00	 sub	 eax, 0
  0007a	59		 pop	 ecx
  0007b	0f 84 d8 01 00
	00		 je	 $LN584@LoadChar
  00081	48		 dec	 eax
  00082	0f 84 85 01 00
	00		 je	 $LN487@LoadChar
  00088	48		 dec	 eax
  00089	0f 84 36 01 00
	00		 je	 $LN390@LoadChar
  0008f	48		 dec	 eax
  00090	0f 84 c4 00 00
	00		 je	 $LN293@LoadChar
  00096	48		 dec	 eax
  00097	74 56		 je	 SHORT $LN196@LoadChar
  00099	48		 dec	 eax
  0009a	0f 85 2e 02 00
	00		 jne	 $LN585@LoadChar

; 508  : 	case RDT_DWARF_WOMAN:
; 509  : 		{
; 510  : 			_ENCSTR( "animodel/sp2_dwarf_woman.txt", szEncSP2DwarfWoman );

  000a0	6a 07		 push	 7
  000a2	c7 45 a8 8c 82
	82 87		 mov	 DWORD PTR _szEncSP2DwarfWoman$507209[ebp], -2021490036 ; 8782828cH
  000a9	c7 45 ac 82 88
	8e 86		 mov	 DWORD PTR _szEncSP2DwarfWoman$507209[ebp+4], -2037479294 ; 868e8882H
  000b0	c7 45 b0 c2 9f
	9b d8		 mov	 DWORD PTR _szEncSP2DwarfWoman$507209[ebp+8], -660889662 ; d89b9fc2H
  000b7	c7 45 b4 b2 88
	9c 8b		 mov	 DWORD PTR _szEncSP2DwarfWoman$507209[ebp+12], -1952675662 ; 8b9c88b2H
  000be	c7 45 b8 9f 8a
	b4 9d		 mov	 DWORD PTR _szEncSP2DwarfWoman$507209[ebp+16], -1649112417 ; 9db48a9fH
  000c5	c7 45 bc 82 81
	8a 84		 mov	 DWORD PTR _szEncSP2DwarfWoman$507209[ebp+20], -2071297662 ; 848a8182H
  000cc	c7 45 c0 c3 98
	93 9e		 mov	 DWORD PTR _szEncSP2DwarfWoman$507209[ebp+24], -1634494269 ; 9e9398c3H
  000d3	8d 45 a8	 lea	 eax, DWORD PTR _szEncSP2DwarfWoman$507209[ebp]
  000d6	c6 45 c4 00	 mov	 BYTE PTR _szEncSP2DwarfWoman$507209[ebp+28], 0
  000da	59		 pop	 ecx
$LL642@LoadChar:
  000db	81 30 ed ec eb
	ea		 xor	 DWORD PTR [eax], -353637139 ; eaebecedH
  000e1	83 c0 04	 add	 eax, 4
  000e4	49		 dec	 ecx
  000e5	75 f4		 jne	 SHORT $LL642@LoadChar

; 511  : 			pGrp->LoadGroup( szEncSP2DwarfWoman, bThread );

  000e7	8d 45 a8	 lea	 eax, DWORD PTR _szEncSP2DwarfWoman$507209[ebp]

; 512  : 		}
; 513  : 		
; 514  : 		break;

  000ea	e9 d3 01 00 00	 jmp	 $LN675@LoadChar
$LN196@LoadChar:

; 501  : 	case RDT_DWARF_MAN:
; 502  : 		{
; 503  : 			_ENCSTR( "animodel/sp2_dwarf_man.txt", szEncSP2DwarfMan );

  000ef	6a 06		 push	 6
  000f1	c7 45 cc 8c 82
	82 87		 mov	 DWORD PTR _szEncSP2DwarfMan$507059[ebp], -2021490036 ; 8782828cH
  000f8	c7 45 d0 82 88
	8e 86		 mov	 DWORD PTR _szEncSP2DwarfMan$507059[ebp+4], -2037479294 ; 868e8882H
  000ff	c7 45 d4 c2 9f
	9b d8		 mov	 DWORD PTR _szEncSP2DwarfMan$507059[ebp+8], -660889662 ; d89b9fc2H
  00106	c7 45 d8 b2 88
	9c 8b		 mov	 DWORD PTR _szEncSP2DwarfMan$507059[ebp+12], -1952675662 ; 8b9c88b2H
  0010d	c7 45 dc 9f 8a
	b4 87		 mov	 DWORD PTR _szEncSP2DwarfMan$507059[ebp+16], -2018211169 ; 87b48a9fH
  00114	c7 45 e0 8c 82
	c5 9e		 mov	 DWORD PTR _szEncSP2DwarfMan$507059[ebp+20], -1631223156 ; 9ec5828cH
  0011b	66 c7 45 e4 95
	98		 mov	 WORD PTR _szEncSP2DwarfMan$507059[ebp+24], 39061 ; 00009895H
  00121	8d 45 cc	 lea	 eax, DWORD PTR _szEncSP2DwarfMan$507059[ebp]
  00124	c6 45 e6 00	 mov	 BYTE PTR _szEncSP2DwarfMan$507059[ebp+26], 0
  00128	59		 pop	 ecx
$LL634@LoadChar:
  00129	81 30 ed ec eb
	ea		 xor	 DWORD PTR [eax], -353637139 ; eaebecedH
  0012f	83 c0 04	 add	 eax, 4
  00132	49		 dec	 ecx
  00133	75 f4		 jne	 SHORT $LL634@LoadChar
  00135	6a 18		 push	 24			; 00000018H
  00137	58		 pop	 eax
$LL631@LoadChar:
  00138	8b c8		 mov	 ecx, eax
  0013a	81 e1 03 00 00
	80		 and	 ecx, -2147483645	; 80000003H
  00140	79 05		 jns	 SHORT $LN672@LoadChar
  00142	49		 dec	 ecx
  00143	83 c9 fc	 or	 ecx, -4			; fffffffcH
  00146	41		 inc	 ecx
$LN672@LoadChar:
  00147	b2 ed		 mov	 dl, -19			; ffffffedH
  00149	2a d1		 sub	 dl, cl
  0014b	30 54 05 cc	 xor	 BYTE PTR _szEncSP2DwarfMan$507059[ebp+eax], dl
  0014f	40		 inc	 eax
  00150	83 f8 1a	 cmp	 eax, 26			; 0000001aH
  00153	7c e3		 jl	 SHORT $LL631@LoadChar

; 504  : 			pGrp->LoadGroup( szEncSP2DwarfMan, bThread );
; 505  : 		}
; 506  : 		
; 507  : 		break;

  00155	e9 65 01 00 00	 jmp	 $LN676@LoadChar
$LN293@LoadChar:

; 494  : 	case RDT_ELF_WOMAN:
; 495  : 		{
; 496  : 			_ENCSTR( "animodel/sp2_elf_woman.txt", szEncSP2ElfWoman );

  0015a	6a 06		 push	 6
  0015c	c7 45 cc 8c 82
	82 87		 mov	 DWORD PTR _szEncSP2ElfWoman$506909[ebp], -2021490036 ; 8782828cH
  00163	c7 45 d0 82 88
	8e 86		 mov	 DWORD PTR _szEncSP2ElfWoman$506909[ebp+4], -2037479294 ; 868e8882H
  0016a	c7 45 d4 c2 9f
	9b d8		 mov	 DWORD PTR _szEncSP2ElfWoman$506909[ebp+8], -660889662 ; d89b9fc2H
  00171	c7 45 d8 b2 89
	87 8c		 mov	 DWORD PTR _szEncSP2ElfWoman$506909[ebp+12], -1937274446 ; 8c8789b2H
  00178	c7 45 dc b2 9b
	84 87		 mov	 DWORD PTR _szEncSP2ElfWoman$506909[ebp+16], -2021352526 ; 87849bb2H
  0017f	c7 45 e0 8c 82
	c5 9e		 mov	 DWORD PTR _szEncSP2ElfWoman$506909[ebp+20], -1631223156 ; 9ec5828cH
  00186	66 c7 45 e4 95
	98		 mov	 WORD PTR _szEncSP2ElfWoman$506909[ebp+24], 39061 ; 00009895H
  0018c	8d 45 cc	 lea	 eax, DWORD PTR _szEncSP2ElfWoman$506909[ebp]
  0018f	c6 45 e6 00	 mov	 BYTE PTR _szEncSP2ElfWoman$506909[ebp+26], 0
  00193	59		 pop	 ecx
$LL626@LoadChar:
  00194	81 30 ed ec eb
	ea		 xor	 DWORD PTR [eax], -353637139 ; eaebecedH
  0019a	83 c0 04	 add	 eax, 4
  0019d	49		 dec	 ecx
  0019e	75 f4		 jne	 SHORT $LL626@LoadChar
  001a0	6a 18		 push	 24			; 00000018H
  001a2	58		 pop	 eax
$LL623@LoadChar:
  001a3	8b c8		 mov	 ecx, eax
  001a5	81 e1 03 00 00
	80		 and	 ecx, -2147483645	; 80000003H
  001ab	79 05		 jns	 SHORT $LN673@LoadChar
  001ad	49		 dec	 ecx
  001ae	83 c9 fc	 or	 ecx, -4			; fffffffcH
  001b1	41		 inc	 ecx
$LN673@LoadChar:
  001b2	b2 ed		 mov	 dl, -19			; ffffffedH
  001b4	2a d1		 sub	 dl, cl
  001b6	30 54 05 cc	 xor	 BYTE PTR _szEncSP2ElfWoman$506909[ebp+eax], dl
  001ba	40		 inc	 eax
  001bb	83 f8 1a	 cmp	 eax, 26			; 0000001aH
  001be	7c e3		 jl	 SHORT $LL623@LoadChar

; 497  : 			pGrp->LoadGroup( szEncSP2ElfWoman, bThread );
; 498  : 		}
; 499  : 		
; 500  : 		break;

  001c0	e9 fa 00 00 00	 jmp	 $LN676@LoadChar
$LN390@LoadChar:

; 487  : 	case RDT_ELF_MAN:
; 488  : 		{
; 489  : 			_ENCSTR( "animodel/sp2_elf_man.txt", szEncSP2ElfMan );

  001c5	6a 06		 push	 6
  001c7	c7 45 d0 8c 82
	82 87		 mov	 DWORD PTR _szEncSP2ElfMan$506759[ebp], -2021490036 ; 8782828cH
  001ce	c7 45 d4 82 88
	8e 86		 mov	 DWORD PTR _szEncSP2ElfMan$506759[ebp+4], -2037479294 ; 868e8882H
  001d5	c7 45 d8 c2 9f
	9b d8		 mov	 DWORD PTR _szEncSP2ElfMan$506759[ebp+8], -660889662 ; d89b9fc2H
  001dc	c7 45 dc b2 89
	87 8c		 mov	 DWORD PTR _szEncSP2ElfMan$506759[ebp+12], -1937274446 ; 8c8789b2H
  001e3	c7 45 e0 b2 81
	8a 84		 mov	 DWORD PTR _szEncSP2ElfMan$506759[ebp+16], -2071297614 ; 848a81b2H
  001ea	c7 45 e4 c3 98
	93 9e		 mov	 DWORD PTR _szEncSP2ElfMan$506759[ebp+20], -1634494269 ; 9e9398c3H
  001f1	8d 45 d0	 lea	 eax, DWORD PTR _szEncSP2ElfMan$506759[ebp]
  001f4	c6 45 e8 00	 mov	 BYTE PTR _szEncSP2ElfMan$506759[ebp+24], 0
  001f8	59		 pop	 ecx
$LL618@LoadChar:
  001f9	81 30 ed ec eb
	ea		 xor	 DWORD PTR [eax], -353637139 ; eaebecedH
  001ff	83 c0 04	 add	 eax, 4
  00202	49		 dec	 ecx
  00203	75 f4		 jne	 SHORT $LL618@LoadChar

; 490  : 			pGrp->LoadGroup( szEncSP2ElfMan, bThread );

  00205	8d 45 d0	 lea	 eax, DWORD PTR _szEncSP2ElfMan$506759[ebp]

; 491  : 		}
; 492  : 		
; 493  : 		break;

  00208	e9 b5 00 00 00	 jmp	 $LN675@LoadChar
$LN487@LoadChar:

; 477  : 		}
; 478  : 		
; 479  : 		break;
; 480  : 	case RDT_HUMAN_WOMAN:
; 481  : 		{
; 482  : 			_ENCSTR( "animodel/sp2_human_woman.txt", szEncSP2HumanWoman );

  0020d	6a 07		 push	 7
  0020f	c7 45 cc 8c 82
	82 87		 mov	 DWORD PTR _szEncSP2HumanWoman$506609[ebp], -2021490036 ; 8782828cH
  00216	c7 45 d0 82 88
	8e 86		 mov	 DWORD PTR _szEncSP2HumanWoman$506609[ebp+4], -2037479294 ; 868e8882H
  0021d	c7 45 d4 c2 9f
	9b d8		 mov	 DWORD PTR _szEncSP2HumanWoman$506609[ebp+8], -660889662 ; d89b9fc2H
  00224	c7 45 d8 b2 84
	9e 87		 mov	 DWORD PTR _szEncSP2HumanWoman$506609[ebp+12], -2019654478 ; 879e84b2H
  0022b	c7 45 dc 8c 82
	b4 9d		 mov	 DWORD PTR _szEncSP2HumanWoman$506609[ebp+16], -1649114484 ; 9db4828cH
  00232	c7 45 e0 82 81
	8a 84		 mov	 DWORD PTR _szEncSP2HumanWoman$506609[ebp+20], -2071297662 ; 848a8182H
  00239	c7 45 e4 c3 98
	93 9e		 mov	 DWORD PTR _szEncSP2HumanWoman$506609[ebp+24], -1634494269 ; 9e9398c3H
  00240	8d 45 cc	 lea	 eax, DWORD PTR _szEncSP2HumanWoman$506609[ebp]
  00243	c6 45 e8 00	 mov	 BYTE PTR _szEncSP2HumanWoman$506609[ebp+28], 0
  00247	59		 pop	 ecx
$LL610@LoadChar:
  00248	81 30 ed ec eb
	ea		 xor	 DWORD PTR [eax], -353637139 ; eaebecedH
  0024e	83 c0 04	 add	 eax, 4
  00251	49		 dec	 ecx
  00252	75 f4		 jne	 SHORT $LL610@LoadChar

; 483  : 			pGrp->LoadGroup( szEncSP2HumanWoman, bThread );

  00254	8d 45 cc	 lea	 eax, DWORD PTR _szEncSP2HumanWoman$506609[ebp]

; 484  : 		}
; 485  : 		
; 486  : 		break;

  00257	eb 69		 jmp	 SHORT $LN675@LoadChar
$LN584@LoadChar:

; 472  : 	{
; 473  : 	case RDT_HUMAN_MAN:
; 474  : 		{
; 475  : 			_ENCSTR( "animodel/sp2_human_man.txt", szEncSP2HumanMan );

  00259	6a 06		 push	 6
  0025b	c7 45 cc 8c 82
	82 87		 mov	 DWORD PTR _szEncSP2HumanMan$506459[ebp], -2021490036 ; 8782828cH
  00262	c7 45 d0 82 88
	8e 86		 mov	 DWORD PTR _szEncSP2HumanMan$506459[ebp+4], -2037479294 ; 868e8882H
  00269	c7 45 d4 c2 9f
	9b d8		 mov	 DWORD PTR _szEncSP2HumanMan$506459[ebp+8], -660889662 ; d89b9fc2H
  00270	c7 45 d8 b2 84
	9e 87		 mov	 DWORD PTR _szEncSP2HumanMan$506459[ebp+12], -2019654478 ; 879e84b2H
  00277	c7 45 dc 8c 82
	b4 87		 mov	 DWORD PTR _szEncSP2HumanMan$506459[ebp+16], -2018213236 ; 87b4828cH
  0027e	c7 45 e0 8c 82
	c5 9e		 mov	 DWORD PTR _szEncSP2HumanMan$506459[ebp+20], -1631223156 ; 9ec5828cH
  00285	66 c7 45 e4 95
	98		 mov	 WORD PTR _szEncSP2HumanMan$506459[ebp+24], 39061 ; 00009895H
  0028b	8d 45 cc	 lea	 eax, DWORD PTR _szEncSP2HumanMan$506459[ebp]
  0028e	c6 45 e6 00	 mov	 BYTE PTR _szEncSP2HumanMan$506459[ebp+26], 0
  00292	59		 pop	 ecx
$LL602@LoadChar:
  00293	81 30 ed ec eb
	ea		 xor	 DWORD PTR [eax], -353637139 ; eaebecedH
  00299	83 c0 04	 add	 eax, 4
  0029c	49		 dec	 ecx
  0029d	75 f4		 jne	 SHORT $LL602@LoadChar
  0029f	6a 18		 push	 24			; 00000018H
  002a1	58		 pop	 eax
$LL599@LoadChar:
  002a2	8b c8		 mov	 ecx, eax
  002a4	81 e1 03 00 00
	80		 and	 ecx, -2147483645	; 80000003H
  002aa	79 05		 jns	 SHORT $LN674@LoadChar
  002ac	49		 dec	 ecx
  002ad	83 c9 fc	 or	 ecx, -4			; fffffffcH
  002b0	41		 inc	 ecx
$LN674@LoadChar:
  002b1	b2 ed		 mov	 dl, -19			; ffffffedH
  002b3	2a d1		 sub	 dl, cl
  002b5	30 54 05 cc	 xor	 BYTE PTR _szEncSP2HumanMan$506459[ebp+eax], dl
  002b9	40		 inc	 eax
  002ba	83 f8 1a	 cmp	 eax, 26			; 0000001aH
  002bd	7c e3		 jl	 SHORT $LL599@LoadChar
$LN676@LoadChar:

; 476  : 			pGrp->LoadGroup( szEncSP2HumanMan, bThread );

  002bf	8d 45 cc	 lea	 eax, DWORD PTR _szEncSP2HumanMan$506459[ebp]
$LN675@LoadChar:
  002c2	ff 75 10	 push	 DWORD PTR _bThread$[ebp]
  002c5	8b ce		 mov	 ecx, esi
  002c7	50		 push	 eax
  002c8	ff 15 00 00 00
	00		 call	 DWORD PTR __imp_?LoadGroup@ioEntityGroup@@QAE_NPBD_N@Z
$LN585@LoadChar:

; 515  : 	}
; 516  : 
; 517  : 	RaceType eRace = (RaceType)( (int)eType / 2 );

  002ce	8b 45 a4	 mov	 eax, DWORD PTR _eType$[ebp]
  002d1	99		 cdq
  002d2	2b c2		 sub	 eax, edx
  002d4	8b f8		 mov	 edi, eax
  002d6	d1 ff		 sar	 edi, 1

; 518  : 
; 519  : 	bool bMale = true;
; 520  : 	if( (int)eType & 1 )

  002d8	f6 45 a4 01	 test	 BYTE PTR _eType$[ebp], 1
  002dc	c6 45 9c 01	 mov	 BYTE PTR _bMale$[ebp], 1
  002e0	74 04		 je	 SHORT $LN2@LoadChar

; 521  : 		bMale = false;

  002e2	c6 45 9c 00	 mov	 BYTE PTR _bMale$[ebp], 0
$LN2@LoadChar:

; 522  : 
; 523  : 	ioCreateChar *pNewChar = new ioCreateChar( pGrp );

  002e6	68 a8 05 00 00	 push	 1448			; 000005a8H
  002eb	e8 00 00 00 00	 call	 ??2@YAPAXI@Z		; operator new
  002f0	59		 pop	 ecx
  002f1	89 45 a4	 mov	 DWORD PTR $T511737[ebp], eax
  002f4	33 f6		 xor	 esi, esi
  002f6	89 75 fc	 mov	 DWORD PTR __$EHRec$[ebp+8], esi
  002f9	3b c6		 cmp	 eax, esi
  002fb	74 0c		 je	 SHORT $LN591@LoadChar
  002fd	ff 75 a0	 push	 DWORD PTR _pGrp$[ebp]
  00300	8b c8		 mov	 ecx, eax
  00302	e8 00 00 00 00	 call	 ??0ioCreateChar@@QAE@PAVioEntityGroup@@@Z ; ioCreateChar::ioCreateChar
  00307	8b f0		 mov	 esi, eax
$LN591@LoadChar:
  00309	83 4d fc ff	 or	 DWORD PTR __$EHRec$[ebp+8], -1

; 524  : 	if( !pNewChar )

  0030d	85 f6		 test	 esi, esi
  0030f	75 0a		 jne	 SHORT $LN1@LoadChar

; 525  : 	{
; 526  : 		LOG.PrintTimeAndLog( 0, "ioUI3DRender::LoadChar - CreateChar NULL" );

  00311	68 00 00 00 00	 push	 OFFSET ??_C@_0CJ@BLLOIOCP@ioUI3DRender?3?3LoadChar?5?9?5CreateC@

; 527  : 		return NULL;

  00316	e9 10 fd ff ff	 jmp	 $LN677@LoadChar
$LN1@LoadChar:

; 528  : 	}
; 529  : 
; 530  : 	pNewChar->Initialize( eRace, bMale, bThread );

  0031b	ff 75 10	 push	 DWORD PTR _bThread$[ebp]
  0031e	8b ce		 mov	 ecx, esi
  00320	ff 75 9c	 push	 DWORD PTR _bMale$[ebp]
  00323	57		 push	 edi
  00324	e8 00 00 00 00	 call	 ?Initialize@ioCreateChar@@QAEXW4RaceType@@_N1@Z ; ioCreateChar::Initialize

; 531  : 	pNewChar->SetName( rkName );

  00329	ff 75 98	 push	 DWORD PTR _rkName$GSCopy$[ebp]
  0032c	8d 4e 0c	 lea	 ecx, DWORD PTR [esi+12]
  0032f	ff 15 00 00 00
	00		 call	 DWORD PTR __imp_??4ioHashString@@QAEAAV0@ABV0@@Z

; 532  : 
; 533  : 	ioUICharAniEventHandler *pHandler = new ioUICharAniEventHandler;

  00335	6a 4c		 push	 76			; 0000004cH
  00337	e8 00 00 00 00	 call	 ??2@YAPAXI@Z		; operator new
  0033c	59		 pop	 ecx
  0033d	8b c8		 mov	 ecx, eax
  0033f	89 4d 98	 mov	 DWORD PTR $T511741[ebp], ecx
  00342	c7 45 fc 01 00
	00 00		 mov	 DWORD PTR __$EHRec$[ebp+8], 1
  00349	85 c9		 test	 ecx, ecx
  0034b	74 09		 je	 SHORT $LN593@LoadChar
  0034d	e8 00 00 00 00	 call	 ??0ioUICharAniEventHandler@@QAE@XZ ; ioUICharAniEventHandler::ioUICharAniEventHandler
  00352	8b f8		 mov	 edi, eax
  00354	eb 02		 jmp	 SHORT $LN594@LoadChar
$LN593@LoadChar:
  00356	33 ff		 xor	 edi, edi
$LN594@LoadChar:
  00358	83 4d fc ff	 or	 DWORD PTR __$EHRec$[ebp+8], -1

; 534  : 	pHandler->SetCreateChar( pNewChar );

  0035c	56		 push	 esi
  0035d	8b cf		 mov	 ecx, edi
  0035f	e8 00 00 00 00	 call	 ?SetCreateChar@ioUICharAniEventHandler@@QAEXPAVioCreateChar@@@Z ; ioUICharAniEventHandler::SetCreateChar

; 535  : 	pGrp->SetAniEventHandler( pHandler );

  00364	8b 4d a0	 mov	 ecx, DWORD PTR _pGrp$[ebp]
  00367	57		 push	 edi
  00368	ff 15 00 00 00
	00		 call	 DWORD PTR __imp_?SetAniEventHandler@ioEntityGroup@@QAE_NPAVioAniEventHandler@@@Z

; 536  : 
; 537  : 	return pNewChar;

  0036e	8b c6		 mov	 eax, esi
$LN589@LoadChar:

; 538  : }

  00370	e8 00 00 00 00	 call	 __EH_epilog3_GS
  00375	c2 0c 00	 ret	 12			; 0000000cH
_TEXT	ENDS
;	COMDAT text$x
text$x	SEGMENT
__unwindfunclet$?LoadChar@ioUI3DRender@@IAEPAVioCreateChar@@ABUCHARACTER@@ABVioHashString@@_N@Z$0:
  00000	ff 75 a4	 push	 DWORD PTR $T511737[ebp]
  00003	e8 00 00 00 00	 call	 ??3@YAXPAX@Z		; operator delete
  00008	59		 pop	 ecx
  00009	c3		 ret	 0
__unwindfunclet$?LoadChar@ioUI3DRender@@IAEPAVioCreateChar@@ABUCHARACTER@@ABVioHashString@@_N@Z$1:
  0000a	ff 75 98	 push	 DWORD PTR $T511741[ebp]
  0000d	e8 00 00 00 00	 call	 ??3@YAXPAX@Z		; operator delete
  00012	59		 pop	 ecx
  00013	c3		 ret	 0
__ehhandler$?LoadChar@ioUI3DRender@@IAEPAVioCreateChar@@ABUCHARACTER@@ABVioHashString@@_N@Z:
  00014	8b 54 24 08	 mov	 edx, DWORD PTR [esp+8]
  00018	8d 42 0c	 lea	 eax, DWORD PTR [edx+12]
  0001b	8b 4a 94	 mov	 ecx, DWORD PTR [edx-108]
  0001e	33 c8		 xor	 ecx, eax
  00020	e8 00 00 00 00	 call	 @__security_check_cookie@4
  00025	8b 4a fc	 mov	 ecx, DWORD PTR [edx-4]
  00028	33 c8		 xor	 ecx, eax
  0002a	e8 00 00 00 00	 call	 @__security_check_cookie@4
  0002f	b8 00 00 00 00	 mov	 eax, OFFSET __ehfuncinfo$?LoadChar@ioUI3DRender@@IAEPAVioCreateChar@@ABUCHARACTER@@ABVioHashString@@_N@Z
  00034	e9 00 00 00 00	 jmp	 ___CxxFrameHandler3
text$x	ENDS
?LoadChar@ioUI3DRender@@IAEPAVioCreateChar@@ABUCHARACTER@@ABVioHashString@@_N@Z ENDP ; ioUI3DRender::LoadChar
PUBLIC	__mask@@NegDouble@
PUBLIC	__real@402e000000000000
PUBLIC	?UpdateCameraByMouse@ioUI3DRender@@QAEXMMM@Z	; ioUI3DRender::UpdateCameraByMouse
EXTRN	__imp_?IsLBtnDown@ioMouse@@QBE_NXZ:PROC
EXTRN	__imp_?IsRBtnDown@ioMouse@@QBE_NXZ:PROC
EXTRN	__imp_?GetWheelDelta@ioMouse@@QBEHXZ:PROC
EXTRN	__imp_?SetSpeed@ioLookAtCameraController@@QAEXMMM@Z:PROC
EXTRN	?GetSingleton@ioApplication@@SAAAV1@XZ:PROC	; ioApplication::GetSingleton
;	COMDAT __mask@@NegDouble@
; File d:\lost saga for developer\youtube\tutorial\source\src\lsclient\ioapplication.h
CONST	SEGMENT
__mask@@NegDouble@ DB 00H, 00H, 00H, 00H, 00H, 00H, 00H, 080H, 00H, 00H, 00H
	DB	00H, 00H, 00H, 00H, 080H
CONST	ENDS
;	COMDAT __real@402e000000000000
CONST	SEGMENT
__real@402e000000000000 DQ 0402e000000000000r	; 15
CONST	ENDS
;	COMDAT xdata$x
xdata$x	SEGMENT
__unwindtable$?UpdateCameraByMouse@ioUI3DRender@@QAEXMMM@Z DD 0ffffffffH
	DD	FLAT:__unwindfunclet$?UpdateCameraByMouse@ioUI3DRender@@QAEXMMM@Z$0
__ehfuncinfo$?UpdateCameraByMouse@ioUI3DRender@@QAEXMMM@Z DD 019930522H
	DD	01H
	DD	FLAT:__unwindtable$?UpdateCameraByMouse@ioUI3DRender@@QAEXMMM@Z
	DD	2 DUP(00H)
	DD	2 DUP(00H)
	DD	00H
	DD	01H
; Function compile flags: /Ogsp
; File d:\lost saga for developer\youtube\tutorial\source\src\lsclient\gui\ioui3drender.cpp
xdata$x	ENDS
;	COMDAT ?UpdateCameraByMouse@ioUI3DRender@@QAEXMMM@Z
_TEXT	SEGMENT
_kInput$ = -36						; size = 24
__$EHRec$ = -12						; size = 12
_fForward$ = 8						; size = 4
_fStrafe$ = 12						; size = 4
_fRot$ = 16						; size = 4
?UpdateCameraByMouse@ioUI3DRender@@QAEXMMM@Z PROC	; ioUI3DRender::UpdateCameraByMouse, COMDAT
; _this$ = ecx

; 782  : {

  00000	6a 18		 push	 24			; 00000018H
  00002	b8 00 00 00 00	 mov	 eax, __ehhandler$?UpdateCameraByMouse@ioUI3DRender@@QAEXMMM@Z
  00007	e8 00 00 00 00	 call	 __EH_prolog3
  0000c	8b d9		 mov	 ebx, ecx

; 783  : 	if( !m_pCamera ) return;

  0000e	8b 4b 08	 mov	 ecx, DWORD PTR [ebx+8]
  00011	85 c9		 test	 ecx, ecx
  00013	0f 84 40 01 00
	00		 je	 $LN13@UpdateCame

; 784  : 
; 785  : 	ioLookAtCameraController *pCtrl = ToLookAtCtrl( m_pCamera->GetController() );

  00019	ff 15 00 00 00
	00		 call	 DWORD PTR __imp_?GetController@ioCamera@@QBEPAVioCameraController@@XZ
  0001f	50		 push	 eax
  00020	e8 00 00 00 00	 call	 ?ToLookAtCtrl@@YAPAVioLookAtCameraController@@PAVioCameraController@@@Z ; ToLookAtCtrl
  00025	8b f8		 mov	 edi, eax
  00027	59		 pop	 ecx

; 786  : 	if( !pCtrl ) return;

  00028	85 ff		 test	 edi, edi
  0002a	0f 84 29 01 00
	00		 je	 $LN13@UpdateCame

; 787  : 
; 788  : 	ioLSMouse *pMouse = g_App.GetMouse();

  00030	e8 00 00 00 00	 call	 ?GetSingleton@ioApplication@@SAAAV1@XZ ; ioApplication::GetSingleton
  00035	8d b0 90 00 00
	00		 lea	 esi, DWORD PTR [eax+144]

; 789  : 	if( !pMouse ) return;

  0003b	85 f6		 test	 esi, esi
  0003d	0f 84 16 01 00
	00		 je	 $LN13@UpdateCame

; 790  : 
; 791  : 	pCtrl->SetSpeed( fForward, fStrafe, fRot );

  00043	f3 0f 10 45 10	 movss	 xmm0, DWORD PTR _fRot$[ebp]
  00048	83 ec 0c	 sub	 esp, 12			; 0000000cH
  0004b	f3 0f 11 44 24
	08		 movss	 DWORD PTR [esp+8], xmm0
  00051	f3 0f 10 45 0c	 movss	 xmm0, DWORD PTR _fStrafe$[ebp]
  00056	f3 0f 11 44 24
	04		 movss	 DWORD PTR [esp+4], xmm0
  0005c	f3 0f 10 45 08	 movss	 xmm0, DWORD PTR _fForward$[ebp]
  00061	8b cf		 mov	 ecx, edi
  00063	f3 0f 11 04 24	 movss	 DWORD PTR [esp], xmm0
  00068	ff 15 00 00 00
	00		 call	 DWORD PTR __imp_?SetSpeed@ioLookAtCameraController@@QAEXMMM@Z

; 792  : 
; 793  : 	ioLookAtCameraInput kInput;

  0006e	8d 4d dc	 lea	 ecx, DWORD PTR _kInput$[ebp]
  00071	ff 15 00 00 00
	00		 call	 DWORD PTR __imp_??0ioLookAtCameraInput@@QAE@XZ
  00077	83 65 fc 00	 and	 DWORD PTR __$EHRec$[ebp+8], 0

; 794  : 	kInput.m_fXMoveAmt = (float)g_App.GetMouseAmount().x;

  0007b	e8 00 00 00 00	 call	 ?GetSingleton@ioApplication@@SAAAV1@XZ ; ioApplication::GetSingleton
  00080	66 0f 6e 80 88
	00 00 00	 movd	 xmm0, DWORD PTR [eax+136]
  00088	0f 5b c0	 cvtdq2ps xmm0, xmm0
  0008b	f3 0f 11 45 e0	 movss	 DWORD PTR _kInput$[ebp+4], xmm0

; 795  : 	kInput.m_fYMoveAmt = (float)g_App.GetMouseAmount().y;

  00090	e8 00 00 00 00	 call	 ?GetSingleton@ioApplication@@SAAAV1@XZ ; ioApplication::GetSingleton
  00095	66 0f 6e 80 8c
	00 00 00	 movd	 xmm0, DWORD PTR [eax+140]
  0009d	0f 5b c0	 cvtdq2ps xmm0, xmm0
  000a0	f3 0f 11 45 e4	 movss	 DWORD PTR _kInput$[ebp+8], xmm0

; 796  : 	kInput.m_fWheelAmt = 0.0f;

  000a5	0f 57 c0	 xorps	 xmm0, xmm0

; 797  : 	
; 798  : 	if( pMouse->GetWheelDelta() == 0 )

  000a8	8b ce		 mov	 ecx, esi
  000aa	f3 0f 11 45 e8	 movss	 DWORD PTR _kInput$[ebp+12], xmm0
  000af	ff 15 00 00 00
	00		 call	 DWORD PTR __imp_?GetWheelDelta@ioMouse@@QBEHXZ

; 799  : 	{
; 800  : 		if( pMouse->IsRBtnDown() )

  000b5	8b ce		 mov	 ecx, esi
  000b7	85 c0		 test	 eax, eax
  000b9	75 4f		 jne	 SHORT $LN9@UpdateCame
  000bb	ff 15 00 00 00
	00		 call	 DWORD PTR __imp_?IsRBtnDown@ioMouse@@QBE_NXZ
  000c1	84 c0		 test	 al, al
  000c3	74 06		 je	 SHORT $LN8@UpdateCame

; 801  : 		{
; 802  : 			kInput.m_bMiddle = true;

  000c5	c6 45 f1 01	 mov	 BYTE PTR _kInput$[ebp+21], 1
  000c9	eb 74		 jmp	 SHORT $LN1@UpdateCame
$LN8@UpdateCame:

; 803  : 		}
; 804  : 		else if( pMouse->IsLBtnDown() )

  000cb	8b ce		 mov	 ecx, esi
  000cd	ff 15 00 00 00
	00		 call	 DWORD PTR __imp_?IsLBtnDown@ioMouse@@QBE_NXZ
  000d3	84 c0		 test	 al, al
  000d5	74 68		 je	 SHORT $LN1@UpdateCame

; 805  : 		{
; 806  : 			if( kInput.m_fYMoveAmt > 0 )

  000d7	f3 0f 10 4d e4	 movss	 xmm1, DWORD PTR _kInput$[ebp+8]
  000dc	0f 57 c0	 xorps	 xmm0, xmm0
  000df	0f 2f c8	 comiss	 xmm1, xmm0
  000e2	76 04		 jbe	 SHORT $LN5@UpdateCame

; 807  : 				kInput.m_bForward = true;

  000e4	c6 45 ec 01	 mov	 BYTE PTR _kInput$[ebp+16], 1
$LN5@UpdateCame:

; 808  : 			if( kInput.m_fYMoveAmt < 0 )

  000e8	0f 2f c1	 comiss	 xmm0, xmm1
  000eb	76 04		 jbe	 SHORT $LN4@UpdateCame

; 809  : 				kInput.m_bBack = true;

  000ed	c6 45 ed 01	 mov	 BYTE PTR _kInput$[ebp+17], 1
$LN4@UpdateCame:

; 810  : 			if( kInput.m_fXMoveAmt > 0 )

  000f1	f3 0f 10 4d e0	 movss	 xmm1, DWORD PTR _kInput$[ebp+4]
  000f6	0f 2f c8	 comiss	 xmm1, xmm0
  000f9	76 04		 jbe	 SHORT $LN3@UpdateCame

; 811  : 				kInput.m_bLeft = true;

  000fb	c6 45 ee 01	 mov	 BYTE PTR _kInput$[ebp+18], 1
$LN3@UpdateCame:

; 812  : 			if( kInput.m_fXMoveAmt < 0 )

  000ff	0f 2f c1	 comiss	 xmm0, xmm1
  00102	76 3b		 jbe	 SHORT $LN1@UpdateCame

; 813  : 				kInput.m_bRight = true;

  00104	c6 45 ef 01	 mov	 BYTE PTR _kInput$[ebp+19], 1

; 814  : 		}
; 815  : 	}
; 816  : 	else

  00108	eb 35		 jmp	 SHORT $LN1@UpdateCame
$LN9@UpdateCame:

; 817  : 	{
; 818  : 		kInput.m_fXMoveAmt = 0.0f;

  0010a	0f 57 c0	 xorps	 xmm0, xmm0
  0010d	f3 0f 11 45 e0	 movss	 DWORD PTR _kInput$[ebp+4], xmm0

; 819  : 		kInput.m_fYMoveAmt = -( (float)pMouse->GetWheelDelta() / 15.0f );

  00112	ff 15 00 00 00
	00		 call	 DWORD PTR __imp_?GetWheelDelta@ioMouse@@QBEHXZ
  00118	0f 57 c0	 xorps	 xmm0, xmm0
  0011b	f3 0f 2a c0	 cvtsi2ss xmm0, eax
  0011f	0f 5a c0	 cvtps2pd xmm0, xmm0
  00122	f2 0f 5e 05 00
	00 00 00	 divsd	 xmm0, QWORD PTR __real@402e000000000000
  0012a	66 0f 57 05 00
	00 00 00	 xorpd	 xmm0, QWORD PTR __mask@@NegDouble@
  00132	66 0f 5a c0	 cvtpd2ps xmm0, xmm0
  00136	f3 0f 11 45 e4	 movss	 DWORD PTR _kInput$[ebp+8], xmm0

; 820  : 		kInput.m_bZoom = true;

  0013b	c6 45 f0 01	 mov	 BYTE PTR _kInput$[ebp+20], 1
$LN1@UpdateCame:

; 821  : 	}
; 822  : 	m_pCamera->Update( &kInput );

  0013f	8b 4b 08	 mov	 ecx, DWORD PTR [ebx+8]
  00142	8d 45 dc	 lea	 eax, DWORD PTR _kInput$[ebp]
  00145	50		 push	 eax
  00146	ff 15 00 00 00
	00		 call	 DWORD PTR __imp_?Update@ioCamera@@QAEXPAVioCameraInput@@@Z

; 823  : }

  0014c	83 4d fc ff	 or	 DWORD PTR __$EHRec$[ebp+8], -1
  00150	8d 4d dc	 lea	 ecx, DWORD PTR _kInput$[ebp]
  00153	ff 15 00 00 00
	00		 call	 DWORD PTR __imp_??1ioLookAtCameraInput@@UAE@XZ
$LN13@UpdateCame:
  00159	e8 00 00 00 00	 call	 __EH_epilog3
  0015e	c2 0c 00	 ret	 12			; 0000000cH
_TEXT	ENDS
;	COMDAT text$x
text$x	SEGMENT
__unwindfunclet$?UpdateCameraByMouse@ioUI3DRender@@QAEXMMM@Z$0:
  00000	8d 4d dc	 lea	 ecx, DWORD PTR _kInput$[ebp]
  00003	ff 25 00 00 00
	00		 jmp	 DWORD PTR __imp_??1ioLookAtCameraInput@@UAE@XZ
__ehhandler$?UpdateCameraByMouse@ioUI3DRender@@QAEXMMM@Z:
  00009	8b 54 24 08	 mov	 edx, DWORD PTR [esp+8]
  0000d	8d 42 0c	 lea	 eax, DWORD PTR [edx+12]
  00010	8b 4a d8	 mov	 ecx, DWORD PTR [edx-40]
  00013	33 c8		 xor	 ecx, eax
  00015	e8 00 00 00 00	 call	 @__security_check_cookie@4
  0001a	b8 00 00 00 00	 mov	 eax, OFFSET __ehfuncinfo$?UpdateCameraByMouse@ioUI3DRender@@QAEXMMM@Z
  0001f	e9 00 00 00 00	 jmp	 ___CxxFrameHandler3
text$x	ENDS
?UpdateCameraByMouse@ioUI3DRender@@QAEXMMM@Z ENDP	; ioUI3DRender::UpdateCameraByMouse
PUBLIC	??D?$_Tree_const_iterator@V?$_Tree_val@V?$_Tset_traits@PAVioSceneManager@@U?$less@PAVioSceneManager@@@std@@V?$allocator@PAVioSceneManager@@@3@$0A@@std@@@std@@@std@@QBEABQAVioSceneManager@@XZ ; std::_Tree_const_iterator<std::_Tree_val<std::_Tset_traits<ioSceneManager *,std::less<ioSceneManager *>,std::allocator<ioSceneManager *>,0> > >::operator*
; Function compile flags: /Ogsp
; File c:\program files (x86)\microsoft visual studio 10.0\vc\include\xtree
;	COMDAT ??D?$_Tree_const_iterator@V?$_Tree_val@V?$_Tset_traits@PAVioSceneManager@@U?$less@PAVioSceneManager@@@std@@V?$allocator@PAVioSceneManager@@@3@$0A@@std@@@std@@@std@@QBEABQAVioSceneManager@@XZ
_TEXT	SEGMENT
??D?$_Tree_const_iterator@V?$_Tree_val@V?$_Tset_traits@PAVioSceneManager@@U?$less@PAVioSceneManager@@@std@@V?$allocator@PAVioSceneManager@@@3@$0A@@std@@@std@@@std@@QBEABQAVioSceneManager@@XZ PROC ; std::_Tree_const_iterator<std::_Tree_val<std::_Tset_traits<ioSceneManager *,std::less<ioSceneManager *>,std::allocator<ioSceneManager *>,0> > >::operator*, COMDAT
; _this$ = ecx

; 231  :  #if _ITERATOR_DEBUG_LEVEL == 2
; 232  : 		if (this->_Getcont() == 0
; 233  : 			|| this->_Ptr == 0
; 234  : 			|| this->_Ptr == ((_Mytree *)this->_Getcont())->_Myhead)
; 235  : 			{	// report error
; 236  : 			_DEBUG_ERROR("map/set iterator not dereferencable");
; 237  : 			_SCL_SECURE_OUT_OF_RANGE;
; 238  : 			}
; 239  : 
; 240  :  #elif _ITERATOR_DEBUG_LEVEL == 1
; 241  : 		_SCL_SECURE_VALIDATE(this->_Getcont() != 0 && this->_Ptr != 0);
; 242  : 		_SCL_SECURE_VALIDATE_RANGE(this->_Ptr !=
; 243  : 			((_Mytree *)this->_Getcont())->_Myhead);
; 244  :  #endif /* _ITERATOR_DEBUG_LEVEL */
; 245  : 
; 246  : 		return (_Mytree::_Myval(this->_Ptr));

  00000	8b 01		 mov	 eax, DWORD PTR [ecx]
  00002	83 c0 0c	 add	 eax, 12			; 0000000cH

; 247  : 		}

  00005	c3		 ret	 0
??D?$_Tree_const_iterator@V?$_Tree_val@V?$_Tset_traits@PAVioSceneManager@@U?$less@PAVioSceneManager@@@std@@V?$allocator@PAVioSceneManager@@@3@$0A@@std@@@std@@@std@@QBEABQAVioSceneManager@@XZ ENDP ; std::_Tree_const_iterator<std::_Tree_val<std::_Tset_traits<ioSceneManager *,std::less<ioSceneManager *>,std::allocator<ioSceneManager *>,0> > >::operator*
_TEXT	ENDS
PUBLIC	??9?$_Tree_const_iterator@V?$_Tree_val@V?$_Tset_traits@PAVioSceneManager@@U?$less@PAVioSceneManager@@@std@@V?$allocator@PAVioSceneManager@@@3@$0A@@std@@@std@@@std@@QBE_NABV01@@Z ; std::_Tree_const_iterator<std::_Tree_val<std::_Tset_traits<ioSceneManager *,std::less<ioSceneManager *>,std::allocator<ioSceneManager *>,0> > >::operator!=
; Function compile flags: /Ogsp
;	COMDAT ??9?$_Tree_const_iterator@V?$_Tree_val@V?$_Tset_traits@PAVioSceneManager@@U?$less@PAVioSceneManager@@@std@@V?$allocator@PAVioSceneManager@@@3@$0A@@std@@@std@@@std@@QBE_NABV01@@Z
_TEXT	SEGMENT
__Right$ = 8						; size = 4
??9?$_Tree_const_iterator@V?$_Tree_val@V?$_Tset_traits@PAVioSceneManager@@U?$less@PAVioSceneManager@@@std@@V?$allocator@PAVioSceneManager@@@3@$0A@@std@@@std@@@std@@QBE_NABV01@@Z PROC ; std::_Tree_const_iterator<std::_Tree_val<std::_Tset_traits<ioSceneManager *,std::less<ioSceneManager *>,std::allocator<ioSceneManager *>,0> > >::operator!=, COMDAT
; _this$ = ecx

; 334  : 		{	// test for iterator inequality

  00000	55		 push	 ebp
  00001	8b ec		 mov	 ebp, esp

; 335  : 		return (!(*this == _Right));

  00003	8b 01		 mov	 eax, DWORD PTR [ecx]
  00005	8b 55 08	 mov	 edx, DWORD PTR __Right$[ebp]
  00008	33 c9		 xor	 ecx, ecx
  0000a	3b 02		 cmp	 eax, DWORD PTR [edx]
  0000c	0f 95 c0	 setne	 al

; 336  : 		}

  0000f	5d		 pop	 ebp
  00010	c2 04 00	 ret	 4
??9?$_Tree_const_iterator@V?$_Tree_val@V?$_Tset_traits@PAVioSceneManager@@U?$less@PAVioSceneManager@@@std@@V?$allocator@PAVioSceneManager@@@3@$0A@@std@@@std@@@std@@QBE_NABV01@@Z ENDP ; std::_Tree_const_iterator<std::_Tree_val<std::_Tset_traits<ioSceneManager *,std::less<ioSceneManager *>,std::allocator<ioSceneManager *>,0> > >::operator!=
_TEXT	ENDS
PUBLIC	??E?$_List_iterator@V?$_List_val@PAVioEffect@@V?$allocator@PAVioEffect@@@std@@@std@@@std@@QAEAAV01@XZ ; std::_List_iterator<std::_List_val<ioEffect *,std::allocator<ioEffect *> > >::operator++
; Function compile flags: /Ogsp
; File c:\program files (x86)\microsoft visual studio 10.0\vc\include\list
;	COMDAT ??E?$_List_iterator@V?$_List_val@PAVioEffect@@V?$allocator@PAVioEffect@@@std@@@std@@@std@@QAEAAV01@XZ
_TEXT	SEGMENT
??E?$_List_iterator@V?$_List_val@PAVioEffect@@V?$allocator@PAVioEffect@@@std@@@std@@@std@@QAEAAV01@XZ PROC ; std::_List_iterator<std::_List_val<ioEffect *,std::allocator<ioEffect *> > >::operator++, COMDAT
; _this$ = ecx

; 369  : 		{	// preincrement

  00000	8b c1		 mov	 eax, ecx

; 370  : 		++(*(_Mybase *)this);

  00002	8b 08		 mov	 ecx, DWORD PTR [eax]
  00004	8b 09		 mov	 ecx, DWORD PTR [ecx]
  00006	89 08		 mov	 DWORD PTR [eax], ecx

; 371  : 		return (*this);
; 372  : 		}

  00008	c3		 ret	 0
??E?$_List_iterator@V?$_List_val@PAVioEffect@@V?$allocator@PAVioEffect@@@std@@@std@@@std@@QAEAAV01@XZ ENDP ; std::_List_iterator<std::_List_val<ioEffect *,std::allocator<ioEffect *> > >::operator++
_TEXT	ENDS
PUBLIC	??9?$_List_const_iterator@V?$_List_val@PAVioEffect@@V?$allocator@PAVioEffect@@@std@@@std@@@std@@QBE_NABV01@@Z ; std::_List_const_iterator<std::_List_val<ioEffect *,std::allocator<ioEffect *> > >::operator!=
; Function compile flags: /Ogsp
;	COMDAT ??9?$_List_const_iterator@V?$_List_val@PAVioEffect@@V?$allocator@PAVioEffect@@@std@@@std@@@std@@QBE_NABV01@@Z
_TEXT	SEGMENT
__Right$ = 8						; size = 4
??9?$_List_const_iterator@V?$_List_val@PAVioEffect@@V?$allocator@PAVioEffect@@@std@@@std@@@std@@QBE_NABV01@@Z PROC ; std::_List_const_iterator<std::_List_val<ioEffect *,std::allocator<ioEffect *> > >::operator!=, COMDAT
; _this$ = ecx

; 299  : 		{	// test for iterator inequality

  00000	55		 push	 ebp
  00001	8b ec		 mov	 ebp, esp

; 300  : 		return (!(*this == _Right));

  00003	8b 01		 mov	 eax, DWORD PTR [ecx]
  00005	8b 55 08	 mov	 edx, DWORD PTR __Right$[ebp]
  00008	33 c9		 xor	 ecx, ecx
  0000a	3b 02		 cmp	 eax, DWORD PTR [edx]
  0000c	0f 95 c0	 setne	 al

; 301  : 		}

  0000f	5d		 pop	 ebp
  00010	c2 04 00	 ret	 4
??9?$_List_const_iterator@V?$_List_val@PAVioEffect@@V?$allocator@PAVioEffect@@@std@@@std@@@std@@QBE_NABV01@@Z ENDP ; std::_List_const_iterator<std::_List_val<ioEffect *,std::allocator<ioEffect *> > >::operator!=
_TEXT	ENDS
PUBLIC	??1?$_List_val@PAVioEffect@@V?$allocator@PAVioEffect@@@std@@@std@@QAE@XZ ; std::_List_val<ioEffect *,std::allocator<ioEffect *> >::~_List_val<ioEffect *,std::allocator<ioEffect *> >
; Function compile flags: /Ogsp
;	COMDAT ??1?$_List_val@PAVioEffect@@V?$allocator@PAVioEffect@@@std@@@std@@QAE@XZ
_TEXT	SEGMENT
??1?$_List_val@PAVioEffect@@V?$allocator@PAVioEffect@@@std@@@std@@QAE@XZ PROC ; std::_List_val<ioEffect *,std::allocator<ioEffect *> >::~_List_val<ioEffect *,std::allocator<ioEffect *> >, COMDAT
; _this$ = ecx

; 502  : 		this->_Alnod.deallocate(this->_Myhead, 1);

  00000	ff 31		 push	 DWORD PTR [ecx]
  00002	e8 00 00 00 00	 call	 ??3@YAXPAX@Z		; operator delete
  00007	59		 pop	 ecx

; 503  : 		}

  00008	c3		 ret	 0
??1?$_List_val@PAVioEffect@@V?$allocator@PAVioEffect@@@std@@@std@@QAE@XZ ENDP ; std::_List_val<ioEffect *,std::allocator<ioEffect *> >::~_List_val<ioEffect *,std::allocator<ioEffect *> >
_TEXT	ENDS
PUBLIC	?_Lmost@?$_Tree@V?$_Tset_traits@PAVioSceneManager@@U?$less@PAVioSceneManager@@@std@@V?$allocator@PAVioSceneManager@@@3@$0A@@std@@@std@@IBEAAPAU_Node@?$_Tree_nod@V?$_Tset_traits@PAVioSceneManager@@U?$less@PAVioSceneManager@@@std@@V?$allocator@PAVioSceneManager@@@3@$0A@@std@@@2@XZ ; std::_Tree<std::_Tset_traits<ioSceneManager *,std::less<ioSceneManager *>,std::allocator<ioSceneManager *>,0> >::_Lmost
; Function compile flags: /Ogsp
; File c:\program files (x86)\microsoft visual studio 10.0\vc\include\xtree
;	COMDAT ?_Lmost@?$_Tree@V?$_Tset_traits@PAVioSceneManager@@U?$less@PAVioSceneManager@@@std@@V?$allocator@PAVioSceneManager@@@3@$0A@@std@@@std@@IBEAAPAU_Node@?$_Tree_nod@V?$_Tset_traits@PAVioSceneManager@@U?$less@PAVioSceneManager@@@std@@V?$allocator@PAVioSceneManager@@@3@$0A@@std@@@2@XZ
_TEXT	SEGMENT
?_Lmost@?$_Tree@V?$_Tset_traits@PAVioSceneManager@@U?$less@PAVioSceneManager@@@std@@V?$allocator@PAVioSceneManager@@@3@$0A@@std@@@std@@IBEAAPAU_Node@?$_Tree_nod@V?$_Tset_traits@PAVioSceneManager@@U?$less@PAVioSceneManager@@@std@@V?$allocator@PAVioSceneManager@@@3@$0A@@std@@@2@XZ PROC ; std::_Tree<std::_Tset_traits<ioSceneManager *,std::less<ioSceneManager *>,std::allocator<ioSceneManager *>,0> >::_Lmost, COMDAT
; _this$ = ecx

; 1759 : 		return (this->_Left(this->_Myhead));

  00000	8b 41 04	 mov	 eax, DWORD PTR [ecx+4]

; 1760 : 		}

  00003	c3		 ret	 0
?_Lmost@?$_Tree@V?$_Tset_traits@PAVioSceneManager@@U?$less@PAVioSceneManager@@@std@@V?$allocator@PAVioSceneManager@@@3@$0A@@std@@@std@@IBEAAPAU_Node@?$_Tree_nod@V?$_Tset_traits@PAVioSceneManager@@U?$less@PAVioSceneManager@@@std@@V?$allocator@PAVioSceneManager@@@3@$0A@@std@@@2@XZ ENDP ; std::_Tree<std::_Tset_traits<ioSceneManager *,std::less<ioSceneManager *>,std::allocator<ioSceneManager *>,0> >::_Lmost
_TEXT	ENDS
PUBLIC	??1?$_Tree_val@V?$_Tset_traits@PAVioSceneManager@@U?$less@PAVioSceneManager@@@std@@V?$allocator@PAVioSceneManager@@@3@$0A@@std@@@std@@QAE@XZ ; std::_Tree_val<std::_Tset_traits<ioSceneManager *,std::less<ioSceneManager *>,std::allocator<ioSceneManager *>,0> >::~_Tree_val<std::_Tset_traits<ioSceneManager *,std::less<ioSceneManager *>,std::allocator<ioSceneManager *>,0> >
; Function compile flags: /Ogsp
;	COMDAT ??1?$_Tree_val@V?$_Tset_traits@PAVioSceneManager@@U?$less@PAVioSceneManager@@@std@@V?$allocator@PAVioSceneManager@@@3@$0A@@std@@@std@@QAE@XZ
_TEXT	SEGMENT
??1?$_Tree_val@V?$_Tset_traits@PAVioSceneManager@@U?$less@PAVioSceneManager@@@std@@V?$allocator@PAVioSceneManager@@@3@$0A@@std@@@std@@QAE@XZ PROC ; std::_Tree_val<std::_Tset_traits<ioSceneManager *,std::less<ioSceneManager *>,std::allocator<ioSceneManager *>,0> >::~_Tree_val<std::_Tset_traits<ioSceneManager *,std::less<ioSceneManager *>,std::allocator<ioSceneManager *>,0> >, COMDAT
; _this$ = ecx

; 555  : 		this->_Alnod.deallocate(this->_Myhead, 1);

  00000	ff 71 04	 push	 DWORD PTR [ecx+4]
  00003	e8 00 00 00 00	 call	 ??3@YAXPAX@Z		; operator delete
  00008	59		 pop	 ecx

; 556  : 		}

  00009	c3		 ret	 0
??1?$_Tree_val@V?$_Tset_traits@PAVioSceneManager@@U?$less@PAVioSceneManager@@@std@@V?$allocator@PAVioSceneManager@@@3@$0A@@std@@@std@@QAE@XZ ENDP ; std::_Tree_val<std::_Tset_traits<ioSceneManager *,std::less<ioSceneManager *>,std::allocator<ioSceneManager *>,0> >::~_Tree_val<std::_Tset_traits<ioSceneManager *,std::less<ioSceneManager *>,std::allocator<ioSceneManager *>,0> >
_TEXT	ENDS
PUBLIC	??0?$_Tree_const_iterator@V?$_Tree_val@V?$_Tset_traits@PAVioSceneManager@@U?$less@PAVioSceneManager@@@std@@V?$allocator@PAVioSceneManager@@@3@$0A@@std@@@std@@@std@@QAE@PAU_Node@?$_Tree_nod@V?$_Tset_traits@PAVioSceneManager@@U?$less@PAVioSceneManager@@@std@@V?$allocator@PAVioSceneManager@@@3@$0A@@std@@@1@PBV?$_Tree_val@V?$_Tset_traits@PAVioSceneManager@@U?$less@PAVioSceneManager@@@std@@V?$allocator@PAVioSceneManager@@@3@$0A@@std@@@1@@Z ; std::_Tree_const_iterator<std::_Tree_val<std::_Tset_traits<ioSceneManager *,std::less<ioSceneManager *>,std::allocator<ioSceneManager *>,0> > >::_Tree_const_iterator<std::_Tree_val<std::_Tset_traits<ioSceneManager *,std::less<ioSceneManager *>,std::allocator<ioSceneManager *>,0> > >
; Function compile flags: /Ogsp
;	COMDAT ??0?$_Tree_const_iterator@V?$_Tree_val@V?$_Tset_traits@PAVioSceneManager@@U?$less@PAVioSceneManager@@@std@@V?$allocator@PAVioSceneManager@@@3@$0A@@std@@@std@@@std@@QAE@PAU_Node@?$_Tree_nod@V?$_Tset_traits@PAVioSceneManager@@U?$less@PAVioSceneManager@@@std@@V?$allocator@PAVioSceneManager@@@3@$0A@@std@@@1@PBV?$_Tree_val@V?$_Tset_traits@PAVioSceneManager@@U?$less@PAVioSceneManager@@@std@@V?$allocator@PAVioSceneManager@@@3@$0A@@std@@@1@@Z
_TEXT	SEGMENT
__Pnode$ = 8						; size = 4
__Plist$ = 12						; size = 4
??0?$_Tree_const_iterator@V?$_Tree_val@V?$_Tset_traits@PAVioSceneManager@@U?$less@PAVioSceneManager@@@std@@V?$allocator@PAVioSceneManager@@@3@$0A@@std@@@std@@@std@@QAE@PAU_Node@?$_Tree_nod@V?$_Tset_traits@PAVioSceneManager@@U?$less@PAVioSceneManager@@@std@@V?$allocator@PAVioSceneManager@@@3@$0A@@std@@@1@PBV?$_Tree_val@V?$_Tset_traits@PAVioSceneManager@@U?$less@PAVioSceneManager@@@std@@V?$allocator@PAVioSceneManager@@@3@$0A@@std@@@1@@Z PROC ; std::_Tree_const_iterator<std::_Tree_val<std::_Tset_traits<ioSceneManager *,std::less<ioSceneManager *>,std::allocator<ioSceneManager *>,0> > >::_Tree_const_iterator<std::_Tree_val<std::_Tset_traits<ioSceneManager *,std::less<ioSceneManager *>,std::allocator<ioSceneManager *>,0> > >, COMDAT
; _this$ = ecx

; 213  : 		{	// construct with node pointer _Pnode

  00000	55		 push	 ebp
  00001	8b ec		 mov	 ebp, esp
  00003	8b c1		 mov	 eax, ecx
  00005	8b 4d 08	 mov	 ecx, DWORD PTR __Pnode$[ebp]
  00008	89 08		 mov	 DWORD PTR [eax], ecx

; 214  : 		}

  0000a	5d		 pop	 ebp
  0000b	c2 08 00	 ret	 8
??0?$_Tree_const_iterator@V?$_Tree_val@V?$_Tset_traits@PAVioSceneManager@@U?$less@PAVioSceneManager@@@std@@V?$allocator@PAVioSceneManager@@@3@$0A@@std@@@std@@@std@@QAE@PAU_Node@?$_Tree_nod@V?$_Tset_traits@PAVioSceneManager@@U?$less@PAVioSceneManager@@@std@@V?$allocator@PAVioSceneManager@@@3@$0A@@std@@@1@PBV?$_Tree_val@V?$_Tset_traits@PAVioSceneManager@@U?$less@PAVioSceneManager@@@std@@V?$allocator@PAVioSceneManager@@@3@$0A@@std@@@1@@Z ENDP ; std::_Tree_const_iterator<std::_Tree_val<std::_Tset_traits<ioSceneManager *,std::less<ioSceneManager *>,std::allocator<ioSceneManager *>,0> > >::_Tree_const_iterator<std::_Tree_val<std::_Tset_traits<ioSceneManager *,std::less<ioSceneManager *>,std::allocator<ioSceneManager *>,0> > >
_TEXT	ENDS
PUBLIC	??E?$_Tree_unchecked_const_iterator@V?$_Tree_val@V?$_Tset_traits@PAVioSceneManager@@U?$less@PAVioSceneManager@@@std@@V?$allocator@PAVioSceneManager@@@3@$0A@@std@@@std@@U_Iterator_base0@2@@std@@QAEAAV01@XZ ; std::_Tree_unchecked_const_iterator<std::_Tree_val<std::_Tset_traits<ioSceneManager *,std::less<ioSceneManager *>,std::allocator<ioSceneManager *>,0> >,std::_Iterator_base0>::operator++
; Function compile flags: /Ogsp
;	COMDAT ??E?$_Tree_unchecked_const_iterator@V?$_Tree_val@V?$_Tset_traits@PAVioSceneManager@@U?$less@PAVioSceneManager@@@std@@V?$allocator@PAVioSceneManager@@@3@$0A@@std@@@std@@U_Iterator_base0@2@@std@@QAEAAV01@XZ
_TEXT	SEGMENT
??E?$_Tree_unchecked_const_iterator@V?$_Tree_val@V?$_Tset_traits@PAVioSceneManager@@U?$less@PAVioSceneManager@@@std@@V?$allocator@PAVioSceneManager@@@3@$0A@@std@@@std@@U_Iterator_base0@2@@std@@QAEAAV01@XZ PROC ; std::_Tree_unchecked_const_iterator<std::_Tree_val<std::_Tset_traits<ioSceneManager *,std::less<ioSceneManager *>,std::allocator<ioSceneManager *>,0> >,std::_Iterator_base0>::operator++, COMDAT
; _this$ = ecx

; 58   : 		{	// preincrement

  00000	8b c1		 mov	 eax, ecx

; 59   : 		if (_Mytree::_Isnil(_Ptr))

  00002	8b 08		 mov	 ecx, DWORD PTR [eax]
  00004	53		 push	 ebx
  00005	32 db		 xor	 bl, bl
  00007	38 59 11	 cmp	 BYTE PTR [ecx+17], bl
  0000a	75 2d		 jne	 SHORT $LN3@operator@2

; 60   : 			;	// end() shouldn't be incremented, don't move
; 61   : 		else if (!_Mytree::_Isnil(_Mytree::_Right(_Ptr)))

  0000c	8b 51 08	 mov	 edx, DWORD PTR [ecx+8]
  0000f	38 5a 11	 cmp	 BYTE PTR [edx+17], bl
  00012	75 0d		 jne	 SHORT $LN34@operator@2

; 62   : 			_Ptr = _Mytree::_Min(
; 63   : 				_Mytree::_Right(_Ptr));	// ==> smallest of right subtree

$LL18@operator@2:
  00014	8b ca		 mov	 ecx, edx
  00016	8b 11		 mov	 edx, DWORD PTR [ecx]
  00018	38 5a 11	 cmp	 BYTE PTR [edx+17], bl
  0001b	74 f7		 je	 SHORT $LL18@operator@2
  0001d	89 08		 mov	 DWORD PTR [eax], ecx
  0001f	5b		 pop	 ebx

; 71   : 			}
; 72   : 		return (*this);
; 73   : 		}

  00020	c3		 ret	 0
$LN34@operator@2:

; 64   : 		else
; 65   : 			{	// climb looking for right subtree
; 66   : 			_Nodeptr _Pnode;
; 67   : 			while (!_Mytree::_Isnil(_Pnode = _Mytree::_Parent(_Ptr))
; 68   : 				&& _Ptr == _Mytree::_Right(_Pnode))

  00021	8b 51 04	 mov	 edx, DWORD PTR [ecx+4]
  00024	eb 0c		 jmp	 SHORT $LN38@operator@2
$LL2@operator@2:
  00026	8b 08		 mov	 ecx, DWORD PTR [eax]
  00028	3b 4a 08	 cmp	 ecx, DWORD PTR [edx+8]
  0002b	75 0a		 jne	 SHORT $LN1@operator@2

; 69   : 				_Ptr = _Pnode;	// ==> parent while right subtree

  0002d	89 10		 mov	 DWORD PTR [eax], edx
  0002f	8b 52 04	 mov	 edx, DWORD PTR [edx+4]
$LN38@operator@2:

; 64   : 		else
; 65   : 			{	// climb looking for right subtree
; 66   : 			_Nodeptr _Pnode;
; 67   : 			while (!_Mytree::_Isnil(_Pnode = _Mytree::_Parent(_Ptr))
; 68   : 				&& _Ptr == _Mytree::_Right(_Pnode))

  00032	38 5a 11	 cmp	 BYTE PTR [edx+17], bl
  00035	74 ef		 je	 SHORT $LL2@operator@2
$LN1@operator@2:

; 70   : 			_Ptr = _Pnode;	// ==> parent (head if end())

  00037	89 10		 mov	 DWORD PTR [eax], edx
$LN3@operator@2:
  00039	5b		 pop	 ebx

; 71   : 			}
; 72   : 		return (*this);
; 73   : 		}

  0003a	c3		 ret	 0
??E?$_Tree_unchecked_const_iterator@V?$_Tree_val@V?$_Tset_traits@PAVioSceneManager@@U?$less@PAVioSceneManager@@@std@@V?$allocator@PAVioSceneManager@@@3@$0A@@std@@@std@@U_Iterator_base0@2@@std@@QAEAAV01@XZ ENDP ; std::_Tree_unchecked_const_iterator<std::_Tree_val<std::_Tset_traits<ioSceneManager *,std::less<ioSceneManager *>,std::allocator<ioSceneManager *>,0> >,std::_Iterator_base0>::operator++
_TEXT	ENDS
PUBLIC	??D?$_List_const_iterator@V?$_List_val@PAVioEffect@@V?$allocator@PAVioEffect@@@std@@@std@@@std@@QBEABQAVioEffect@@XZ ; std::_List_const_iterator<std::_List_val<ioEffect *,std::allocator<ioEffect *> > >::operator*
; Function compile flags: /Ogsp
; File c:\program files (x86)\microsoft visual studio 10.0\vc\include\list
;	COMDAT ??D?$_List_const_iterator@V?$_List_val@PAVioEffect@@V?$allocator@PAVioEffect@@@std@@@std@@@std@@QBEABQAVioEffect@@XZ
_TEXT	SEGMENT
??D?$_List_const_iterator@V?$_List_val@PAVioEffect@@V?$allocator@PAVioEffect@@@std@@@std@@@std@@QBEABQAVioEffect@@XZ PROC ; std::_List_const_iterator<std::_List_val<ioEffect *,std::allocator<ioEffect *> > >::operator*, COMDAT
; _this$ = ecx

; 202  :  #if _ITERATOR_DEBUG_LEVEL == 2
; 203  : 		if (this->_Getcont() == 0
; 204  : 			|| this->_Ptr == 0
; 205  : 			|| this->_Ptr == ((_Mylist *)this->_Getcont())->_Myhead)
; 206  : 			{	// report error
; 207  : 			_DEBUG_ERROR("list iterator not dereferencable");
; 208  : 			_SCL_SECURE_OUT_OF_RANGE;
; 209  : 			}
; 210  : 
; 211  :  #elif _ITERATOR_DEBUG_LEVEL == 1
; 212  : 		_SCL_SECURE_VALIDATE(this->_Getcont() != 0 && this->_Ptr != 0);
; 213  : 		_SCL_SECURE_VALIDATE_RANGE(this->_Ptr !=
; 214  : 			((_Mylist *)this->_Getcont())->_Myhead);
; 215  :  #endif /* _ITERATOR_DEBUG_LEVEL */
; 216  : 
; 217  : 		return (_Mylist::_Myval(this->_Ptr));

  00000	8b 01		 mov	 eax, DWORD PTR [ecx]
  00002	83 c0 08	 add	 eax, 8

; 218  : 		}

  00005	c3		 ret	 0
??D?$_List_const_iterator@V?$_List_val@PAVioEffect@@V?$allocator@PAVioEffect@@@std@@@std@@@std@@QBEABQAVioEffect@@XZ ENDP ; std::_List_const_iterator<std::_List_val<ioEffect *,std::allocator<ioEffect *> > >::operator*
_TEXT	ENDS
PUBLIC	??0?$_List_nod@PAVioEffect@@V?$allocator@PAVioEffect@@@std@@@std@@QAE@V?$allocator@PAVioEffect@@@1@@Z ; std::_List_nod<ioEffect *,std::allocator<ioEffect *> >::_List_nod<ioEffect *,std::allocator<ioEffect *> >
; Function compile flags: /Ogsp
;	COMDAT ??0?$_List_nod@PAVioEffect@@V?$allocator@PAVioEffect@@@std@@@std@@QAE@V?$allocator@PAVioEffect@@@1@@Z
_TEXT	SEGMENT
__Al$ = 8						; size = 1
??0?$_List_nod@PAVioEffect@@V?$allocator@PAVioEffect@@@std@@@std@@QAE@V?$allocator@PAVioEffect@@@1@@Z PROC ; std::_List_nod<ioEffect *,std::allocator<ioEffect *> >::_List_nod<ioEffect *,std::allocator<ioEffect *> >, COMDAT
; _this$ = ecx

; 438  : 		{	// construct allocators from _Al

  00000	8b c1		 mov	 eax, ecx

; 439  : 		}

  00002	c2 04 00	 ret	 4
??0?$_List_nod@PAVioEffect@@V?$allocator@PAVioEffect@@@std@@@std@@QAE@V?$allocator@PAVioEffect@@@1@@Z ENDP ; std::_List_nod<ioEffect *,std::allocator<ioEffect *> >::_List_nod<ioEffect *,std::allocator<ioEffect *> >
_TEXT	ENDS
PUBLIC	?allocate@?$allocator@U_Node@?$_List_nod@PAVioEffect@@V?$allocator@PAVioEffect@@@std@@@std@@@std@@QAEPAU_Node@?$_List_nod@PAVioEffect@@V?$allocator@PAVioEffect@@@std@@@2@I@Z ; std::allocator<std::_List_nod<ioEffect *,std::allocator<ioEffect *> >::_Node>::allocate
; Function compile flags: /Ogsp
; File c:\program files (x86)\microsoft visual studio 10.0\vc\include\xmemory
;	COMDAT ?allocate@?$allocator@U_Node@?$_List_nod@PAVioEffect@@V?$allocator@PAVioEffect@@@std@@@std@@@std@@QAEPAU_Node@?$_List_nod@PAVioEffect@@V?$allocator@PAVioEffect@@@std@@@2@I@Z
_TEXT	SEGMENT
__Count$ = 8						; size = 4
?allocate@?$allocator@U_Node@?$_List_nod@PAVioEffect@@V?$allocator@PAVioEffect@@@std@@@std@@@std@@QAEPAU_Node@?$_List_nod@PAVioEffect@@V?$allocator@PAVioEffect@@@std@@@2@I@Z PROC ; std::allocator<std::_List_nod<ioEffect *,std::allocator<ioEffect *> >::_Node>::allocate, COMDAT
; _this$ = ecx

; 186  : 		{	// allocate array of _Count elements

  00000	55		 push	 ebp
  00001	8b ec		 mov	 ebp, esp

; 187  : 		return (_Allocate(_Count, (pointer)0));

  00003	6a 00		 push	 0
  00005	ff 75 08	 push	 DWORD PTR __Count$[ebp]
  00008	e8 00 00 00 00	 call	 ??$_Allocate@U_Node@?$_List_nod@PAVioEffect@@V?$allocator@PAVioEffect@@@std@@@std@@@std@@YAPAU_Node@?$_List_nod@PAVioEffect@@V?$allocator@PAVioEffect@@@std@@@0@IPAU120@@Z ; std::_Allocate<std::_List_nod<ioEffect *,std::allocator<ioEffect *> >::_Node>
  0000d	59		 pop	 ecx
  0000e	59		 pop	 ecx

; 188  : 		}

  0000f	5d		 pop	 ebp
  00010	c2 04 00	 ret	 4
?allocate@?$allocator@U_Node@?$_List_nod@PAVioEffect@@V?$allocator@PAVioEffect@@@std@@@std@@@std@@QAEPAU_Node@?$_List_nod@PAVioEffect@@V?$allocator@PAVioEffect@@@std@@@2@I@Z ENDP ; std::allocator<std::_List_nod<ioEffect *,std::allocator<ioEffect *> >::_Node>::allocate
_TEXT	ENDS
PUBLIC	??0?$_List_const_iterator@V?$_List_val@PAVioEffect@@V?$allocator@PAVioEffect@@@std@@@std@@@std@@QAE@PAU_Node@?$_List_nod@PAVioEffect@@V?$allocator@PAVioEffect@@@std@@@1@PBV?$_List_val@PAVioEffect@@V?$allocator@PAVioEffect@@@std@@@1@@Z ; std::_List_const_iterator<std::_List_val<ioEffect *,std::allocator<ioEffect *> > >::_List_const_iterator<std::_List_val<ioEffect *,std::allocator<ioEffect *> > >
; Function compile flags: /Ogsp
; File c:\program files (x86)\microsoft visual studio 10.0\vc\include\list
;	COMDAT ??0?$_List_const_iterator@V?$_List_val@PAVioEffect@@V?$allocator@PAVioEffect@@@std@@@std@@@std@@QAE@PAU_Node@?$_List_nod@PAVioEffect@@V?$allocator@PAVioEffect@@@std@@@1@PBV?$_List_val@PAVioEffect@@V?$allocator@PAVioEffect@@@std@@@1@@Z
_TEXT	SEGMENT
__Pnode$ = 8						; size = 4
__Plist$ = 12						; size = 4
??0?$_List_const_iterator@V?$_List_val@PAVioEffect@@V?$allocator@PAVioEffect@@@std@@@std@@@std@@QAE@PAU_Node@?$_List_nod@PAVioEffect@@V?$allocator@PAVioEffect@@@std@@@1@PBV?$_List_val@PAVioEffect@@V?$allocator@PAVioEffect@@@std@@@1@@Z PROC ; std::_List_const_iterator<std::_List_val<ioEffect *,std::allocator<ioEffect *> > >::_List_const_iterator<std::_List_val<ioEffect *,std::allocator<ioEffect *> > >, COMDAT
; _this$ = ecx

; 184  : 		{	// construct with node pointer _Pnode

  00000	55		 push	 ebp
  00001	8b ec		 mov	 ebp, esp
  00003	8b c1		 mov	 eax, ecx
  00005	8b 4d 08	 mov	 ecx, DWORD PTR __Pnode$[ebp]
  00008	89 08		 mov	 DWORD PTR [eax], ecx

; 185  : 		}

  0000a	5d		 pop	 ebp
  0000b	c2 08 00	 ret	 8
??0?$_List_const_iterator@V?$_List_val@PAVioEffect@@V?$allocator@PAVioEffect@@@std@@@std@@@std@@QAE@PAU_Node@?$_List_nod@PAVioEffect@@V?$allocator@PAVioEffect@@@std@@@1@PBV?$_List_val@PAVioEffect@@V?$allocator@PAVioEffect@@@std@@@1@@Z ENDP ; std::_List_const_iterator<std::_List_val<ioEffect *,std::allocator<ioEffect *> > >::_List_const_iterator<std::_List_val<ioEffect *,std::allocator<ioEffect *> > >
_TEXT	ENDS
PUBLIC	?max_size@?$list@PAVioEffect@@V?$allocator@PAVioEffect@@@std@@@std@@QBEIXZ ; std::list<ioEffect *,std::allocator<ioEffect *> >::max_size
; Function compile flags: /Ogsp
;	COMDAT ?max_size@?$list@PAVioEffect@@V?$allocator@PAVioEffect@@@std@@@std@@QBEIXZ
_TEXT	SEGMENT
?max_size@?$list@PAVioEffect@@V?$allocator@PAVioEffect@@@std@@@std@@QBEIXZ PROC ; std::list<ioEffect *,std::allocator<ioEffect *> >::max_size, COMDAT
; _this$ = ecx

; 882  : 		return (this->_Alval.max_size());

  00000	b8 ff ff ff 3f	 mov	 eax, 1073741823		; 3fffffffH

; 883  : 		}

  00005	c3		 ret	 0
?max_size@?$list@PAVioEffect@@V?$allocator@PAVioEffect@@@std@@@std@@QBEIXZ ENDP ; std::list<ioEffect *,std::allocator<ioEffect *> >::max_size
_TEXT	ENDS
PUBLIC	?_Lrotate@?$_Tree@V?$_Tset_traits@PAVioSceneManager@@U?$less@PAVioSceneManager@@@std@@V?$allocator@PAVioSceneManager@@@3@$0A@@std@@@std@@IAEXPAU_Node@?$_Tree_nod@V?$_Tset_traits@PAVioSceneManager@@U?$less@PAVioSceneManager@@@std@@V?$allocator@PAVioSceneManager@@@3@$0A@@std@@@2@@Z ; std::_Tree<std::_Tset_traits<ioSceneManager *,std::less<ioSceneManager *>,std::allocator<ioSceneManager *>,0> >::_Lrotate
; Function compile flags: /Ogsp
; File c:\program files (x86)\microsoft visual studio 10.0\vc\include\xtree
;	COMDAT ?_Lrotate@?$_Tree@V?$_Tset_traits@PAVioSceneManager@@U?$less@PAVioSceneManager@@@std@@V?$allocator@PAVioSceneManager@@@3@$0A@@std@@@std@@IAEXPAU_Node@?$_Tree_nod@V?$_Tset_traits@PAVioSceneManager@@U?$less@PAVioSceneManager@@@std@@V?$allocator@PAVioSceneManager@@@3@$0A@@std@@@2@@Z
_TEXT	SEGMENT
__Wherenode$ = 8					; size = 4
?_Lrotate@?$_Tree@V?$_Tset_traits@PAVioSceneManager@@U?$less@PAVioSceneManager@@@std@@V?$allocator@PAVioSceneManager@@@3@$0A@@std@@@std@@IAEXPAU_Node@?$_Tree_nod@V?$_Tset_traits@PAVioSceneManager@@U?$less@PAVioSceneManager@@@std@@V?$allocator@PAVioSceneManager@@@3@$0A@@std@@@2@@Z PROC ; std::_Tree<std::_Tset_traits<ioSceneManager *,std::less<ioSceneManager *>,std::allocator<ioSceneManager *>,0> >::_Lrotate, COMDAT
; _this$ = ecx

; 1763 : 		{	// promote right node to root of subtree

  00000	55		 push	 ebp
  00001	8b ec		 mov	 ebp, esp

; 1764 : 		_Nodeptr _Pnode = this->_Right(_Wherenode);

  00003	8b 55 08	 mov	 edx, DWORD PTR __Wherenode$[ebp]
  00006	8b 42 08	 mov	 eax, DWORD PTR [edx+8]
  00009	56		 push	 esi

; 1765 : 		this->_Right(_Wherenode) = this->_Left(_Pnode);

  0000a	8b 30		 mov	 esi, DWORD PTR [eax]
  0000c	89 72 08	 mov	 DWORD PTR [edx+8], esi

; 1766 : 
; 1767 : 		if (!this->_Isnil(this->_Left(_Pnode)))

  0000f	8b 30		 mov	 esi, DWORD PTR [eax]
  00011	80 7e 11 00	 cmp	 BYTE PTR [esi+17], 0
  00015	75 03		 jne	 SHORT $LN5@Lrotate

; 1768 : 			this->_Parent(this->_Left(_Pnode)) = _Wherenode;

  00017	89 56 04	 mov	 DWORD PTR [esi+4], edx
$LN5@Lrotate:

; 1769 : 		this->_Parent(_Pnode) = this->_Parent(_Wherenode);

  0001a	8b 72 04	 mov	 esi, DWORD PTR [edx+4]
  0001d	89 70 04	 mov	 DWORD PTR [eax+4], esi

; 1770 : 
; 1771 : 		if (_Wherenode == _Root())

  00020	8b 49 04	 mov	 ecx, DWORD PTR [ecx+4]
  00023	5e		 pop	 esi
  00024	3b 51 04	 cmp	 edx, DWORD PTR [ecx+4]
  00027	75 05		 jne	 SHORT $LN4@Lrotate

; 1772 : 			_Root() = _Pnode;

  00029	89 41 04	 mov	 DWORD PTR [ecx+4], eax

; 1773 : 		else if (_Wherenode == this->_Left(this->_Parent(_Wherenode)))

  0002c	eb 0e		 jmp	 SHORT $LN1@Lrotate
$LN4@Lrotate:
  0002e	8b 4a 04	 mov	 ecx, DWORD PTR [edx+4]
  00031	3b 11		 cmp	 edx, DWORD PTR [ecx]
  00033	75 04		 jne	 SHORT $LN2@Lrotate

; 1774 : 			this->_Left(this->_Parent(_Wherenode)) = _Pnode;

  00035	89 01		 mov	 DWORD PTR [ecx], eax

; 1775 : 		else

  00037	eb 03		 jmp	 SHORT $LN1@Lrotate
$LN2@Lrotate:

; 1776 : 			this->_Right(this->_Parent(_Wherenode)) = _Pnode;

  00039	89 41 08	 mov	 DWORD PTR [ecx+8], eax
$LN1@Lrotate:

; 1777 : 
; 1778 : 		this->_Left(_Pnode) = _Wherenode;

  0003c	89 10		 mov	 DWORD PTR [eax], edx

; 1779 : 		this->_Parent(_Wherenode) = _Pnode;

  0003e	89 42 04	 mov	 DWORD PTR [edx+4], eax

; 1780 : 		}

  00041	5d		 pop	 ebp
  00042	c2 04 00	 ret	 4
?_Lrotate@?$_Tree@V?$_Tset_traits@PAVioSceneManager@@U?$less@PAVioSceneManager@@@std@@V?$allocator@PAVioSceneManager@@@3@$0A@@std@@@std@@IAEXPAU_Node@?$_Tree_nod@V?$_Tset_traits@PAVioSceneManager@@U?$less@PAVioSceneManager@@@std@@V?$allocator@PAVioSceneManager@@@3@$0A@@std@@@2@@Z ENDP ; std::_Tree<std::_Tset_traits<ioSceneManager *,std::less<ioSceneManager *>,std::allocator<ioSceneManager *>,0> >::_Lrotate
_TEXT	ENDS
PUBLIC	?_Key@?$_Tree_val@V?$_Tset_traits@PAVioSceneManager@@U?$less@PAVioSceneManager@@@std@@V?$allocator@PAVioSceneManager@@@3@$0A@@std@@@std@@SAAAPAVioSceneManager@@PAU_Node@?$_Tree_nod@V?$_Tset_traits@PAVioSceneManager@@U?$less@PAVioSceneManager@@@std@@V?$allocator@PAVioSceneManager@@@3@$0A@@std@@@2@@Z ; std::_Tree_val<std::_Tset_traits<ioSceneManager *,std::less<ioSceneManager *>,std::allocator<ioSceneManager *>,0> >::_Key
; Function compile flags: /Ogsp
;	COMDAT ?_Key@?$_Tree_val@V?$_Tset_traits@PAVioSceneManager@@U?$less@PAVioSceneManager@@@std@@V?$allocator@PAVioSceneManager@@@3@$0A@@std@@@std@@SAAAPAVioSceneManager@@PAU_Node@?$_Tree_nod@V?$_Tset_traits@PAVioSceneManager@@U?$less@PAVioSceneManager@@@std@@V?$allocator@PAVioSceneManager@@@3@$0A@@std@@@2@@Z
_TEXT	SEGMENT
__Pnode$ = 8						; size = 4
?_Key@?$_Tree_val@V?$_Tset_traits@PAVioSceneManager@@U?$less@PAVioSceneManager@@@std@@V?$allocator@PAVioSceneManager@@@3@$0A@@std@@@std@@SAAAPAVioSceneManager@@PAU_Node@?$_Tree_nod@V?$_Tset_traits@PAVioSceneManager@@U?$less@PAVioSceneManager@@@std@@V?$allocator@PAVioSceneManager@@@3@$0A@@std@@@2@@Z PROC ; std::_Tree_val<std::_Tset_traits<ioSceneManager *,std::less<ioSceneManager *>,std::allocator<ioSceneManager *>,0> >::_Key, COMDAT

; 616  : 		{	// return reference to key in node

  00000	55		 push	 ebp
  00001	8b ec		 mov	 ebp, esp

; 617  : 		return ((key_type&)_Traits::_Kfn(_Myval(_Pnode)));

  00003	8b 45 08	 mov	 eax, DWORD PTR __Pnode$[ebp]
  00006	83 c0 0c	 add	 eax, 12			; 0000000cH

; 618  : 		}

  00009	5d		 pop	 ebp
  0000a	c3		 ret	 0
?_Key@?$_Tree_val@V?$_Tset_traits@PAVioSceneManager@@U?$less@PAVioSceneManager@@@std@@V?$allocator@PAVioSceneManager@@@3@$0A@@std@@@std@@SAAAPAVioSceneManager@@PAU_Node@?$_Tree_nod@V?$_Tset_traits@PAVioSceneManager@@U?$less@PAVioSceneManager@@@std@@V?$allocator@PAVioSceneManager@@@3@$0A@@std@@@2@@Z ENDP ; std::_Tree_val<std::_Tset_traits<ioSceneManager *,std::less<ioSceneManager *>,std::allocator<ioSceneManager *>,0> >::_Key
_TEXT	ENDS
PUBLIC	??0?$_Tree_nod@V?$_Tset_traits@PAVioSceneManager@@U?$less@PAVioSceneManager@@@std@@V?$allocator@PAVioSceneManager@@@3@$0A@@std@@@std@@QAE@ABU?$less@PAVioSceneManager@@@1@V?$allocator@PAVioSceneManager@@@1@@Z ; std::_Tree_nod<std::_Tset_traits<ioSceneManager *,std::less<ioSceneManager *>,std::allocator<ioSceneManager *>,0> >::_Tree_nod<std::_Tset_traits<ioSceneManager *,std::less<ioSceneManager *>,std::allocator<ioSceneManager *>,0> >
; Function compile flags: /Ogsp
;	COMDAT ??0?$_Tree_nod@V?$_Tset_traits@PAVioSceneManager@@U?$less@PAVioSceneManager@@@std@@V?$allocator@PAVioSceneManager@@@3@$0A@@std@@@std@@QAE@ABU?$less@PAVioSceneManager@@@1@V?$allocator@PAVioSceneManager@@@1@@Z
_TEXT	SEGMENT
__Parg$ = 8						; size = 4
__Al$ = 12						; size = 1
??0?$_Tree_nod@V?$_Tset_traits@PAVioSceneManager@@U?$less@PAVioSceneManager@@@std@@V?$allocator@PAVioSceneManager@@@3@$0A@@std@@@std@@QAE@ABU?$less@PAVioSceneManager@@@1@V?$allocator@PAVioSceneManager@@@1@@Z PROC ; std::_Tree_nod<std::_Tset_traits<ioSceneManager *,std::less<ioSceneManager *>,std::allocator<ioSceneManager *>,0> >::_Tree_nod<std::_Tset_traits<ioSceneManager *,std::less<ioSceneManager *>,std::allocator<ioSceneManager *>,0> >, COMDAT
; _this$ = ecx

; 482  : 		{	// construct traits from _Parg and allocators from _Al

  00000	8b c1		 mov	 eax, ecx

; 483  : 		}

  00002	c2 08 00	 ret	 8
??0?$_Tree_nod@V?$_Tset_traits@PAVioSceneManager@@U?$less@PAVioSceneManager@@@std@@V?$allocator@PAVioSceneManager@@@3@$0A@@std@@@std@@QAE@ABU?$less@PAVioSceneManager@@@1@V?$allocator@PAVioSceneManager@@@1@@Z ENDP ; std::_Tree_nod<std::_Tset_traits<ioSceneManager *,std::less<ioSceneManager *>,std::allocator<ioSceneManager *>,0> >::_Tree_nod<std::_Tset_traits<ioSceneManager *,std::less<ioSceneManager *>,std::allocator<ioSceneManager *>,0> >
_TEXT	ENDS
PUBLIC	?allocate@?$allocator@U_Node@?$_Tree_nod@V?$_Tset_traits@PAVioSceneManager@@U?$less@PAVioSceneManager@@@std@@V?$allocator@PAVioSceneManager@@@3@$0A@@std@@@std@@@std@@QAEPAU_Node@?$_Tree_nod@V?$_Tset_traits@PAVioSceneManager@@U?$less@PAVioSceneManager@@@std@@V?$allocator@PAVioSceneManager@@@3@$0A@@std@@@2@I@Z ; std::allocator<std::_Tree_nod<std::_Tset_traits<ioSceneManager *,std::less<ioSceneManager *>,std::allocator<ioSceneManager *>,0> >::_Node>::allocate
; Function compile flags: /Ogsp
; File c:\program files (x86)\microsoft visual studio 10.0\vc\include\xmemory
;	COMDAT ?allocate@?$allocator@U_Node@?$_Tree_nod@V?$_Tset_traits@PAVioSceneManager@@U?$less@PAVioSceneManager@@@std@@V?$allocator@PAVioSceneManager@@@3@$0A@@std@@@std@@@std@@QAEPAU_Node@?$_Tree_nod@V?$_Tset_traits@PAVioSceneManager@@U?$less@PAVioSceneManager@@@std@@V?$allocator@PAVioSceneManager@@@3@$0A@@std@@@2@I@Z
_TEXT	SEGMENT
__Count$ = 8						; size = 4
?allocate@?$allocator@U_Node@?$_Tree_nod@V?$_Tset_traits@PAVioSceneManager@@U?$less@PAVioSceneManager@@@std@@V?$allocator@PAVioSceneManager@@@3@$0A@@std@@@std@@@std@@QAEPAU_Node@?$_Tree_nod@V?$_Tset_traits@PAVioSceneManager@@U?$less@PAVioSceneManager@@@std@@V?$allocator@PAVioSceneManager@@@3@$0A@@std@@@2@I@Z PROC ; std::allocator<std::_Tree_nod<std::_Tset_traits<ioSceneManager *,std::less<ioSceneManager *>,std::allocator<ioSceneManager *>,0> >::_Node>::allocate, COMDAT
; _this$ = ecx

; 186  : 		{	// allocate array of _Count elements

  00000	55		 push	 ebp
  00001	8b ec		 mov	 ebp, esp

; 187  : 		return (_Allocate(_Count, (pointer)0));

  00003	6a 00		 push	 0
  00005	ff 75 08	 push	 DWORD PTR __Count$[ebp]
  00008	e8 00 00 00 00	 call	 ??$_Allocate@U_Node@?$_Tree_nod@V?$_Tset_traits@PAVioSceneManager@@U?$less@PAVioSceneManager@@@std@@V?$allocator@PAVioSceneManager@@@3@$0A@@std@@@std@@@std@@YAPAU_Node@?$_Tree_nod@V?$_Tset_traits@PAVioSceneManager@@U?$less@PAVioSceneManager@@@std@@V?$allocator@PAVioSceneManager@@@3@$0A@@std@@@0@IPAU120@@Z ; std::_Allocate<std::_Tree_nod<std::_Tset_traits<ioSceneManager *,std::less<ioSceneManager *>,std::allocator<ioSceneManager *>,0> >::_Node>
  0000d	59		 pop	 ecx
  0000e	59		 pop	 ecx

; 188  : 		}

  0000f	5d		 pop	 ebp
  00010	c2 04 00	 ret	 4
?allocate@?$allocator@U_Node@?$_Tree_nod@V?$_Tset_traits@PAVioSceneManager@@U?$less@PAVioSceneManager@@@std@@V?$allocator@PAVioSceneManager@@@3@$0A@@std@@@std@@@std@@QAEPAU_Node@?$_Tree_nod@V?$_Tset_traits@PAVioSceneManager@@U?$less@PAVioSceneManager@@@std@@V?$allocator@PAVioSceneManager@@@3@$0A@@std@@@2@I@Z ENDP ; std::allocator<std::_Tree_nod<std::_Tset_traits<ioSceneManager *,std::less<ioSceneManager *>,std::allocator<ioSceneManager *>,0> >::_Node>::allocate
_TEXT	ENDS
PUBLIC	__$ArrayPad$
PUBLIC	??$LoadFloat_e@$0N@@ioINILoader@@QAEMAAY0N@$$CBDM@Z ; ioINILoader::LoadFloat_e<13>
EXTRN	__imp_?LoadFloat@ioINILoader@@QAEMPBDM@Z:PROC
; Function compile flags: /Ogsp
; File d:\lost saga for developer\youtube\tutorial\source\src\io3dengine\ioiniloader.h
;	COMDAT ??$LoadFloat_e@$0N@@ioINILoader@@QAEMAAY0N@$$CBDM@Z
_TEXT	SEGMENT
__k$ = -24						; size = 13
__$ArrayPad$ = -4					; size = 4
_k$ = 8							; size = 4
_f$ = 12						; size = 4
??$LoadFloat_e@$0N@@ioINILoader@@QAEMAAY0N@$$CBDM@Z PROC ; ioINILoader::LoadFloat_e<13>, COMDAT
; _this$ = ecx

; 135  : 	{

  00000	55		 push	 ebp
  00001	8b ec		 mov	 ebp, esp
  00003	83 ec 18	 sub	 esp, 24			; 00000018H
  00006	a1 00 00 00 00	 mov	 eax, DWORD PTR ___security_cookie
  0000b	33 c5		 xor	 eax, ebp
  0000d	89 45 fc	 mov	 DWORD PTR __$ArrayPad$[ebp], eax
  00010	8b 45 08	 mov	 eax, DWORD PTR _k$[ebp]

; 136  : 		_ENCSTR(k, _k);

  00013	8a 10		 mov	 dl, BYTE PTR [eax]
  00015	56		 push	 esi
  00016	8b f1		 mov	 esi, ecx
  00018	84 d2		 test	 dl, dl
  0001a	0f 84 4d 01 00
	00		 je	 $LN96@LoadFloat_
  00020	80 f2 ed	 xor	 dl, -19			; ffffffedH
  00023	88 55 e8	 mov	 BYTE PTR __k$[ebp], dl
  00026	8a 50 01	 mov	 dl, BYTE PTR [eax+1]
  00029	84 d2		 test	 dl, dl
  0002b	0f 84 36 01 00
	00		 je	 $LN95@LoadFloat_
  00031	b1 ec		 mov	 cl, -20			; ffffffecH
  00033	32 d1		 xor	 dl, cl
  00035	88 55 e9	 mov	 BYTE PTR __k$[ebp+1], dl
  00038	8a 50 02	 mov	 dl, BYTE PTR [eax+2]
  0003b	84 d2		 test	 dl, dl
  0003d	0f 84 1e 01 00
	00		 je	 $LN94@LoadFloat_
  00043	80 f2 eb	 xor	 dl, -21			; ffffffebH
  00046	88 55 ea	 mov	 BYTE PTR __k$[ebp+2], dl
  00049	8a 50 03	 mov	 dl, BYTE PTR [eax+3]
  0004c	84 d2		 test	 dl, dl
  0004e	0f 84 07 01 00
	00		 je	 $LN93@LoadFloat_
  00054	80 f2 ea	 xor	 dl, -22			; ffffffeaH
  00057	88 55 eb	 mov	 BYTE PTR __k$[ebp+3], dl
  0005a	8a 50 04	 mov	 dl, BYTE PTR [eax+4]
  0005d	84 d2		 test	 dl, dl
  0005f	0f 84 f0 00 00
	00		 je	 $LN92@LoadFloat_
  00065	80 f2 ed	 xor	 dl, -19			; ffffffedH
  00068	88 55 ec	 mov	 BYTE PTR __k$[ebp+4], dl
  0006b	8a 50 05	 mov	 dl, BYTE PTR [eax+5]
  0006e	84 d2		 test	 dl, dl
  00070	0f 84 da 00 00
	00		 je	 $LN91@LoadFloat_
  00076	32 d1		 xor	 dl, cl
  00078	88 55 ed	 mov	 BYTE PTR __k$[ebp+5], dl
  0007b	8a 50 06	 mov	 dl, BYTE PTR [eax+6]
  0007e	84 d2		 test	 dl, dl
  00080	0f 84 c4 00 00
	00		 je	 $LN90@LoadFloat_
  00086	80 f2 eb	 xor	 dl, -21			; ffffffebH
  00089	88 55 ee	 mov	 BYTE PTR __k$[ebp+6], dl
  0008c	8a 50 07	 mov	 dl, BYTE PTR [eax+7]
  0008f	84 d2		 test	 dl, dl
  00091	0f 84 ad 00 00
	00		 je	 $LN89@LoadFloat_
  00097	80 f2 ea	 xor	 dl, -22			; ffffffeaH
  0009a	88 55 ef	 mov	 BYTE PTR __k$[ebp+7], dl
  0009d	8a 50 08	 mov	 dl, BYTE PTR [eax+8]
  000a0	84 d2		 test	 dl, dl
  000a2	0f 84 96 00 00
	00		 je	 $LN88@LoadFloat_
  000a8	80 f2 ed	 xor	 dl, -19			; ffffffedH
  000ab	88 55 f0	 mov	 BYTE PTR __k$[ebp+8], dl
  000ae	8a 50 09	 mov	 dl, BYTE PTR [eax+9]
  000b1	84 d2		 test	 dl, dl
  000b3	0f 84 80 00 00
	00		 je	 $LN87@LoadFloat_
  000b9	32 d1		 xor	 dl, cl
  000bb	88 55 f1	 mov	 BYTE PTR __k$[ebp+9], dl
  000be	8a 50 0a	 mov	 dl, BYTE PTR [eax+10]
  000c1	84 d2		 test	 dl, dl
  000c3	74 6e		 je	 SHORT $LN86@LoadFloat_
  000c5	80 f2 eb	 xor	 dl, -21			; ffffffebH
  000c8	88 55 f2	 mov	 BYTE PTR __k$[ebp+10], dl
  000cb	8a 50 0b	 mov	 dl, BYTE PTR [eax+11]
  000ce	84 d2		 test	 dl, dl
  000d0	74 5b		 je	 SHORT $LN85@LoadFloat_
  000d2	80 f2 ea	 xor	 dl, -22			; ffffffeaH
  000d5	80 78 0c 00	 cmp	 BYTE PTR [eax+12], 0
  000d9	88 55 f3	 mov	 BYTE PTR __k$[ebp+11], dl
  000dc	0f 84 8f 00 00
	00		 je	 $LN1@LoadFloat_
  000e2	8a 50 0d	 mov	 dl, BYTE PTR [eax+13]
  000e5	84 d2		 test	 dl, dl
  000e7	74 3f		 je	 SHORT $LN83@LoadFloat_
  000e9	32 d1		 xor	 dl, cl
  000eb	88 55 f5	 mov	 BYTE PTR __k$[ebp+13], dl
  000ee	8a 50 0e	 mov	 dl, BYTE PTR [eax+14]
  000f1	84 d2		 test	 dl, dl
  000f3	74 2d		 je	 SHORT $LN82@LoadFloat_
  000f5	80 f2 eb	 xor	 dl, -21			; ffffffebH
  000f8	88 55 f6	 mov	 BYTE PTR __k$[ebp+14], dl
  000fb	8a 50 0f	 mov	 dl, BYTE PTR [eax+15]
  000fe	84 d2		 test	 dl, dl
  00100	74 1a		 je	 SHORT $LN81@LoadFloat_
  00102	8a 40 10	 mov	 al, BYTE PTR [eax+16]
  00105	80 f2 ea	 xor	 dl, -22			; ffffffeaH
  00108	88 55 f7	 mov	 BYTE PTR __k$[ebp+15], dl
  0010b	84 c0		 test	 al, al
  0010d	74 07		 je	 SHORT $LN80@LoadFloat_
  0010f	34 ed		 xor	 al, -19			; ffffffedH
  00111	88 45 f8	 mov	 BYTE PTR __k$[ebp+16], al
  00114	eb 5b		 jmp	 SHORT $LN1@LoadFloat_
$LN80@LoadFloat_:
  00116	c6 45 f8 ed	 mov	 BYTE PTR __k$[ebp+16], -19 ; ffffffedH
  0011a	eb 55		 jmp	 SHORT $LN1@LoadFloat_
$LN81@LoadFloat_:
  0011c	c6 45 f7 ea	 mov	 BYTE PTR __k$[ebp+15], -22 ; ffffffeaH
  00120	eb 4f		 jmp	 SHORT $LN1@LoadFloat_
$LN82@LoadFloat_:
  00122	c6 45 f6 eb	 mov	 BYTE PTR __k$[ebp+14], -21 ; ffffffebH
  00126	eb 49		 jmp	 SHORT $LN1@LoadFloat_
$LN83@LoadFloat_:
  00128	88 4d f5	 mov	 BYTE PTR __k$[ebp+13], cl
  0012b	eb 44		 jmp	 SHORT $LN1@LoadFloat_
$LN85@LoadFloat_:
  0012d	c6 45 f3 ea	 mov	 BYTE PTR __k$[ebp+11], -22 ; ffffffeaH
  00131	eb 3e		 jmp	 SHORT $LN1@LoadFloat_
$LN86@LoadFloat_:
  00133	c6 45 f2 eb	 mov	 BYTE PTR __k$[ebp+10], -21 ; ffffffebH
  00137	eb 38		 jmp	 SHORT $LN1@LoadFloat_
$LN87@LoadFloat_:
  00139	88 4d f1	 mov	 BYTE PTR __k$[ebp+9], cl
  0013c	eb 33		 jmp	 SHORT $LN1@LoadFloat_
$LN88@LoadFloat_:
  0013e	c6 45 f0 ed	 mov	 BYTE PTR __k$[ebp+8], -19 ; ffffffedH
  00142	eb 2d		 jmp	 SHORT $LN1@LoadFloat_
$LN89@LoadFloat_:
  00144	c6 45 ef ea	 mov	 BYTE PTR __k$[ebp+7], -22 ; ffffffeaH
  00148	eb 27		 jmp	 SHORT $LN1@LoadFloat_
$LN90@LoadFloat_:
  0014a	c6 45 ee eb	 mov	 BYTE PTR __k$[ebp+6], -21 ; ffffffebH
  0014e	eb 21		 jmp	 SHORT $LN1@LoadFloat_
$LN91@LoadFloat_:
  00150	88 4d ed	 mov	 BYTE PTR __k$[ebp+5], cl
  00153	eb 1c		 jmp	 SHORT $LN1@LoadFloat_
$LN92@LoadFloat_:
  00155	c6 45 ec ed	 mov	 BYTE PTR __k$[ebp+4], -19 ; ffffffedH
  00159	eb 16		 jmp	 SHORT $LN1@LoadFloat_
$LN93@LoadFloat_:
  0015b	c6 45 eb ea	 mov	 BYTE PTR __k$[ebp+3], -22 ; ffffffeaH
  0015f	eb 10		 jmp	 SHORT $LN1@LoadFloat_
$LN94@LoadFloat_:
  00161	c6 45 ea eb	 mov	 BYTE PTR __k$[ebp+2], -21 ; ffffffebH
  00165	eb 0a		 jmp	 SHORT $LN1@LoadFloat_
$LN95@LoadFloat_:
  00167	c6 45 e9 ec	 mov	 BYTE PTR __k$[ebp+1], -20 ; ffffffecH
  0016b	eb 04		 jmp	 SHORT $LN1@LoadFloat_
$LN96@LoadFloat_:
  0016d	c6 45 e8 ed	 mov	 BYTE PTR __k$[ebp], -19	; ffffffedH
$LN1@LoadFloat_:
  00171	6a 03		 push	 3
  00173	8d 45 e8	 lea	 eax, DWORD PTR __k$[ebp]
  00176	c6 45 f4 00	 mov	 BYTE PTR __k$[ebp+12], 0
  0017a	5a		 pop	 edx
$LL104@LoadFloat_:
  0017b	81 30 ed ec eb
	ea		 xor	 DWORD PTR [eax], -353637139 ; eaebecedH
  00181	83 c0 04	 add	 eax, 4
  00184	4a		 dec	 edx
  00185	75 f4		 jne	 SHORT $LL104@LoadFloat_

; 137  : 		return LoadFloat(_k, f);

  00187	f3 0f 10 45 0c	 movss	 xmm0, DWORD PTR _f$[ebp]
  0018c	51		 push	 ecx
  0018d	8d 45 e8	 lea	 eax, DWORD PTR __k$[ebp]
  00190	f3 0f 11 04 24	 movss	 DWORD PTR [esp], xmm0
  00195	50		 push	 eax
  00196	8b ce		 mov	 ecx, esi
  00198	ff 15 00 00 00
	00		 call	 DWORD PTR __imp_?LoadFloat@ioINILoader@@QAEMPBDM@Z

; 138  : 	}

  0019e	8b 4d fc	 mov	 ecx, DWORD PTR __$ArrayPad$[ebp]
  001a1	33 cd		 xor	 ecx, ebp
  001a3	5e		 pop	 esi
  001a4	e8 00 00 00 00	 call	 @__security_check_cookie@4
  001a9	c9		 leave
  001aa	c2 08 00	 ret	 8
??$LoadFloat_e@$0N@@ioINILoader@@QAEMAAY0N@$$CBDM@Z ENDP ; ioINILoader::LoadFloat_e<13>
_TEXT	ENDS
PUBLIC	__$ArrayPad$
PUBLIC	??$SetTitle_e@$07@ioINILoader@@QAEXAAY07$$CBD@Z	; ioINILoader::SetTitle_e<8>
EXTRN	__imp_?SetTitle@ioINILoader@@QAEXPBD@Z:PROC
; Function compile flags: /Ogsp
;	COMDAT ??$SetTitle_e@$07@ioINILoader@@QAEXAAY07$$CBD@Z
_TEXT	SEGMENT
__t$ = -16						; size = 8
__$ArrayPad$ = -4					; size = 4
_t$ = 8							; size = 4
??$SetTitle_e@$07@ioINILoader@@QAEXAAY07$$CBD@Z PROC	; ioINILoader::SetTitle_e<8>, COMDAT
; _this$ = ecx

; 188  : 	{

  00000	55		 push	 ebp
  00001	8b ec		 mov	 ebp, esp
  00003	83 ec 10	 sub	 esp, 16			; 00000010H
  00006	a1 00 00 00 00	 mov	 eax, DWORD PTR ___security_cookie
  0000b	33 c5		 xor	 eax, ebp
  0000d	89 45 fc	 mov	 DWORD PTR __$ArrayPad$[ebp], eax
  00010	8b 45 08	 mov	 eax, DWORD PTR _t$[ebp]

; 189  : 		_ENCSTR(t, _t);

  00013	8a 10		 mov	 dl, BYTE PTR [eax]
  00015	56		 push	 esi
  00016	8b f1		 mov	 esi, ecx
  00018	84 d2		 test	 dl, dl
  0001a	0f 84 d7 00 00
	00		 je	 $LN96@SetTitle_e
  00020	80 f2 ed	 xor	 dl, -19			; ffffffedH
  00023	88 55 f0	 mov	 BYTE PTR __t$[ebp], dl
  00026	8a 50 01	 mov	 dl, BYTE PTR [eax+1]
  00029	84 d2		 test	 dl, dl
  0002b	0f 84 c0 00 00
	00		 je	 $LN95@SetTitle_e
  00031	80 f2 ec	 xor	 dl, -20			; ffffffecH
  00034	88 55 f1	 mov	 BYTE PTR __t$[ebp+1], dl
  00037	8a 50 02	 mov	 dl, BYTE PTR [eax+2]
  0003a	84 d2		 test	 dl, dl
  0003c	0f 84 a9 00 00
	00		 je	 $LN94@SetTitle_e
  00042	80 f2 eb	 xor	 dl, -21			; ffffffebH
  00045	88 55 f2	 mov	 BYTE PTR __t$[ebp+2], dl
  00048	8a 50 03	 mov	 dl, BYTE PTR [eax+3]
  0004b	84 d2		 test	 dl, dl
  0004d	0f 84 92 00 00
	00		 je	 $LN93@SetTitle_e
  00053	80 f2 ea	 xor	 dl, -22			; ffffffeaH
  00056	88 55 f3	 mov	 BYTE PTR __t$[ebp+3], dl
  00059	8a 50 04	 mov	 dl, BYTE PTR [eax+4]
  0005c	84 d2		 test	 dl, dl
  0005e	74 7f		 je	 SHORT $LN92@SetTitle_e
  00060	80 f2 ed	 xor	 dl, -19			; ffffffedH
  00063	88 55 f4	 mov	 BYTE PTR __t$[ebp+4], dl
  00066	8a 50 05	 mov	 dl, BYTE PTR [eax+5]
  00069	84 d2		 test	 dl, dl
  0006b	74 6c		 je	 SHORT $LN91@SetTitle_e
  0006d	80 f2 ec	 xor	 dl, -20			; ffffffecH
  00070	88 55 f5	 mov	 BYTE PTR __t$[ebp+5], dl
  00073	8a 50 06	 mov	 dl, BYTE PTR [eax+6]
  00076	84 d2		 test	 dl, dl
  00078	74 59		 je	 SHORT $LN90@SetTitle_e
  0007a	80 f2 eb	 xor	 dl, -21			; ffffffebH
  0007d	80 78 07 00	 cmp	 BYTE PTR [eax+7], 0
  00081	88 55 f6	 mov	 BYTE PTR __t$[ebp+6], dl
  00084	74 75		 je	 SHORT $LN1@SetTitle_e
  00086	8a 50 08	 mov	 dl, BYTE PTR [eax+8]
  00089	84 d2		 test	 dl, dl
  0008b	74 40		 je	 SHORT $LN88@SetTitle_e
  0008d	80 f2 ed	 xor	 dl, -19			; ffffffedH
  00090	88 55 f8	 mov	 BYTE PTR __t$[ebp+8], dl
  00093	8a 50 09	 mov	 dl, BYTE PTR [eax+9]
  00096	84 d2		 test	 dl, dl
  00098	74 2d		 je	 SHORT $LN87@SetTitle_e
  0009a	80 f2 ec	 xor	 dl, -20			; ffffffecH
  0009d	88 55 f9	 mov	 BYTE PTR __t$[ebp+9], dl
  000a0	8a 50 0a	 mov	 dl, BYTE PTR [eax+10]
  000a3	84 d2		 test	 dl, dl
  000a5	74 1a		 je	 SHORT $LN86@SetTitle_e
  000a7	8a 40 0b	 mov	 al, BYTE PTR [eax+11]
  000aa	80 f2 eb	 xor	 dl, -21			; ffffffebH
  000ad	88 55 fa	 mov	 BYTE PTR __t$[ebp+10], dl
  000b0	84 c0		 test	 al, al
  000b2	74 07		 je	 SHORT $LN85@SetTitle_e
  000b4	34 ea		 xor	 al, -22			; ffffffeaH
  000b6	88 45 fb	 mov	 BYTE PTR __t$[ebp+11], al
  000b9	eb 40		 jmp	 SHORT $LN1@SetTitle_e
$LN85@SetTitle_e:
  000bb	c6 45 fb ea	 mov	 BYTE PTR __t$[ebp+11], -22 ; ffffffeaH
  000bf	eb 3a		 jmp	 SHORT $LN1@SetTitle_e
$LN86@SetTitle_e:
  000c1	c6 45 fa eb	 mov	 BYTE PTR __t$[ebp+10], -21 ; ffffffebH
  000c5	eb 34		 jmp	 SHORT $LN1@SetTitle_e
$LN87@SetTitle_e:
  000c7	c6 45 f9 ec	 mov	 BYTE PTR __t$[ebp+9], -20 ; ffffffecH
  000cb	eb 2e		 jmp	 SHORT $LN1@SetTitle_e
$LN88@SetTitle_e:
  000cd	c6 45 f8 ed	 mov	 BYTE PTR __t$[ebp+8], -19 ; ffffffedH
  000d1	eb 28		 jmp	 SHORT $LN1@SetTitle_e
$LN90@SetTitle_e:
  000d3	c6 45 f6 eb	 mov	 BYTE PTR __t$[ebp+6], -21 ; ffffffebH
  000d7	eb 22		 jmp	 SHORT $LN1@SetTitle_e
$LN91@SetTitle_e:
  000d9	c6 45 f5 ec	 mov	 BYTE PTR __t$[ebp+5], -20 ; ffffffecH
  000dd	eb 1c		 jmp	 SHORT $LN1@SetTitle_e
$LN92@SetTitle_e:
  000df	c6 45 f4 ed	 mov	 BYTE PTR __t$[ebp+4], -19 ; ffffffedH
  000e3	eb 16		 jmp	 SHORT $LN1@SetTitle_e
$LN93@SetTitle_e:
  000e5	c6 45 f3 ea	 mov	 BYTE PTR __t$[ebp+3], -22 ; ffffffeaH
  000e9	eb 10		 jmp	 SHORT $LN1@SetTitle_e
$LN94@SetTitle_e:
  000eb	c6 45 f2 eb	 mov	 BYTE PTR __t$[ebp+2], -21 ; ffffffebH
  000ef	eb 0a		 jmp	 SHORT $LN1@SetTitle_e
$LN95@SetTitle_e:
  000f1	c6 45 f1 ec	 mov	 BYTE PTR __t$[ebp+1], -20 ; ffffffecH
  000f5	eb 04		 jmp	 SHORT $LN1@SetTitle_e
$LN96@SetTitle_e:
  000f7	c6 45 f0 ed	 mov	 BYTE PTR __t$[ebp], -19	; ffffffedH
$LN1@SetTitle_e:
  000fb	81 75 f0 ed ec
	eb ea		 xor	 DWORD PTR __t$[ebp], -353637139 ; eaebecedH
  00102	6a 04		 push	 4
  00104	c6 45 f7 00	 mov	 BYTE PTR __t$[ebp+7], 0
  00108	58		 pop	 eax
$LL101@SetTitle_e:
  00109	8b c8		 mov	 ecx, eax
  0010b	81 e1 03 00 00
	80		 and	 ecx, -2147483645	; 80000003H
  00111	79 05		 jns	 SHORT $LN111@SetTitle_e
  00113	49		 dec	 ecx
  00114	83 c9 fc	 or	 ecx, -4			; fffffffcH
  00117	41		 inc	 ecx
$LN111@SetTitle_e:
  00118	b2 ed		 mov	 dl, -19			; ffffffedH
  0011a	2a d1		 sub	 dl, cl
  0011c	30 54 05 f0	 xor	 BYTE PTR __t$[ebp+eax], dl
  00120	40		 inc	 eax
  00121	83 f8 07	 cmp	 eax, 7
  00124	7c e3		 jl	 SHORT $LL101@SetTitle_e

; 190  : 		SetTitle(_t);

  00126	8d 45 f0	 lea	 eax, DWORD PTR __t$[ebp]
  00129	50		 push	 eax
  0012a	8b ce		 mov	 ecx, esi
  0012c	ff 15 00 00 00
	00		 call	 DWORD PTR __imp_?SetTitle@ioINILoader@@QAEXPBD@Z

; 191  : 	}

  00132	8b 4d fc	 mov	 ecx, DWORD PTR __$ArrayPad$[ebp]
  00135	33 cd		 xor	 ecx, ebp
  00137	5e		 pop	 esi
  00138	e8 00 00 00 00	 call	 @__security_check_cookie@4
  0013d	c9		 leave
  0013e	c2 04 00	 ret	 4
??$SetTitle_e@$07@ioINILoader@@QAEXAAY07$$CBD@Z ENDP	; ioINILoader::SetTitle_e<8>
_TEXT	ENDS
PUBLIC	__$ArrayPad$
PUBLIC	??$LoadFloat_e@$05@ioINILoader@@QAEMAAY05$$CBDM@Z ; ioINILoader::LoadFloat_e<6>
; Function compile flags: /Ogsp
;	COMDAT ??$LoadFloat_e@$05@ioINILoader@@QAEMAAY05$$CBDM@Z
_TEXT	SEGMENT
__k$ = -16						; size = 6
__$ArrayPad$ = -4					; size = 4
_k$ = 8							; size = 4
_f$ = 12						; size = 4
??$LoadFloat_e@$05@ioINILoader@@QAEMAAY05$$CBDM@Z PROC	; ioINILoader::LoadFloat_e<6>, COMDAT
; _this$ = ecx

; 135  : 	{

  00000	55		 push	 ebp
  00001	8b ec		 mov	 ebp, esp
  00003	83 ec 10	 sub	 esp, 16			; 00000010H
  00006	a1 00 00 00 00	 mov	 eax, DWORD PTR ___security_cookie
  0000b	33 c5		 xor	 eax, ebp
  0000d	89 45 fc	 mov	 DWORD PTR __$ArrayPad$[ebp], eax
  00010	8b 45 08	 mov	 eax, DWORD PTR _k$[ebp]

; 136  : 		_ENCSTR(k, _k);

  00013	8a 10		 mov	 dl, BYTE PTR [eax]
  00015	84 d2		 test	 dl, dl
  00017	0f 84 a9 00 00
	00		 je	 $LN96@LoadFloat_@2
  0001d	80 f2 ed	 xor	 dl, -19			; ffffffedH
  00020	88 55 f0	 mov	 BYTE PTR __k$[ebp], dl
  00023	8a 50 01	 mov	 dl, BYTE PTR [eax+1]
  00026	84 d2		 test	 dl, dl
  00028	0f 84 92 00 00
	00		 je	 $LN95@LoadFloat_@2
  0002e	80 f2 ec	 xor	 dl, -20			; ffffffecH
  00031	88 55 f1	 mov	 BYTE PTR __k$[ebp+1], dl
  00034	8a 50 02	 mov	 dl, BYTE PTR [eax+2]
  00037	84 d2		 test	 dl, dl
  00039	74 7f		 je	 SHORT $LN94@LoadFloat_@2
  0003b	80 f2 eb	 xor	 dl, -21			; ffffffebH
  0003e	88 55 f2	 mov	 BYTE PTR __k$[ebp+2], dl
  00041	8a 50 03	 mov	 dl, BYTE PTR [eax+3]
  00044	84 d2		 test	 dl, dl
  00046	74 6c		 je	 SHORT $LN93@LoadFloat_@2
  00048	80 f2 ea	 xor	 dl, -22			; ffffffeaH
  0004b	88 55 f3	 mov	 BYTE PTR __k$[ebp+3], dl
  0004e	8a 50 04	 mov	 dl, BYTE PTR [eax+4]
  00051	84 d2		 test	 dl, dl
  00053	74 59		 je	 SHORT $LN92@LoadFloat_@2
  00055	80 f2 ed	 xor	 dl, -19			; ffffffedH
  00058	80 78 05 00	 cmp	 BYTE PTR [eax+5], 0
  0005c	88 55 f4	 mov	 BYTE PTR __k$[ebp+4], dl
  0005f	74 69		 je	 SHORT $LN1@LoadFloat_@2
  00061	8a 50 06	 mov	 dl, BYTE PTR [eax+6]
  00064	84 d2		 test	 dl, dl
  00066	74 40		 je	 SHORT $LN90@LoadFloat_@2
  00068	80 f2 eb	 xor	 dl, -21			; ffffffebH
  0006b	88 55 f6	 mov	 BYTE PTR __k$[ebp+6], dl
  0006e	8a 50 07	 mov	 dl, BYTE PTR [eax+7]
  00071	84 d2		 test	 dl, dl
  00073	74 2d		 je	 SHORT $LN89@LoadFloat_@2
  00075	80 f2 ea	 xor	 dl, -22			; ffffffeaH
  00078	88 55 f7	 mov	 BYTE PTR __k$[ebp+7], dl
  0007b	8a 50 08	 mov	 dl, BYTE PTR [eax+8]
  0007e	84 d2		 test	 dl, dl
  00080	74 1a		 je	 SHORT $LN88@LoadFloat_@2
  00082	8a 40 09	 mov	 al, BYTE PTR [eax+9]
  00085	80 f2 ed	 xor	 dl, -19			; ffffffedH
  00088	88 55 f8	 mov	 BYTE PTR __k$[ebp+8], dl
  0008b	84 c0		 test	 al, al
  0008d	74 07		 je	 SHORT $LN87@LoadFloat_@2
  0008f	34 ec		 xor	 al, -20			; ffffffecH
  00091	88 45 f9	 mov	 BYTE PTR __k$[ebp+9], al
  00094	eb 34		 jmp	 SHORT $LN1@LoadFloat_@2
$LN87@LoadFloat_@2:
  00096	c6 45 f9 ec	 mov	 BYTE PTR __k$[ebp+9], -20 ; ffffffecH
  0009a	eb 2e		 jmp	 SHORT $LN1@LoadFloat_@2
$LN88@LoadFloat_@2:
  0009c	c6 45 f8 ed	 mov	 BYTE PTR __k$[ebp+8], -19 ; ffffffedH
  000a0	eb 28		 jmp	 SHORT $LN1@LoadFloat_@2
$LN89@LoadFloat_@2:
  000a2	c6 45 f7 ea	 mov	 BYTE PTR __k$[ebp+7], -22 ; ffffffeaH
  000a6	eb 22		 jmp	 SHORT $LN1@LoadFloat_@2
$LN90@LoadFloat_@2:
  000a8	c6 45 f6 eb	 mov	 BYTE PTR __k$[ebp+6], -21 ; ffffffebH
  000ac	eb 1c		 jmp	 SHORT $LN1@LoadFloat_@2
$LN92@LoadFloat_@2:
  000ae	c6 45 f4 ed	 mov	 BYTE PTR __k$[ebp+4], -19 ; ffffffedH
  000b2	eb 16		 jmp	 SHORT $LN1@LoadFloat_@2
$LN93@LoadFloat_@2:
  000b4	c6 45 f3 ea	 mov	 BYTE PTR __k$[ebp+3], -22 ; ffffffeaH
  000b8	eb 10		 jmp	 SHORT $LN1@LoadFloat_@2
$LN94@LoadFloat_@2:
  000ba	c6 45 f2 eb	 mov	 BYTE PTR __k$[ebp+2], -21 ; ffffffebH
  000be	eb 0a		 jmp	 SHORT $LN1@LoadFloat_@2
$LN95@LoadFloat_@2:
  000c0	c6 45 f1 ec	 mov	 BYTE PTR __k$[ebp+1], -20 ; ffffffecH
  000c4	eb 04		 jmp	 SHORT $LN1@LoadFloat_@2
$LN96@LoadFloat_@2:
  000c6	c6 45 f0 ed	 mov	 BYTE PTR __k$[ebp], -19	; ffffffedH
$LN1@LoadFloat_@2:

; 137  : 		return LoadFloat(_k, f);

  000ca	f3 0f 10 45 0c	 movss	 xmm0, DWORD PTR _f$[ebp]
  000cf	81 75 f0 ed ec
	eb ea		 xor	 DWORD PTR __k$[ebp], -353637139 ; eaebecedH
  000d6	80 75 f4 ed	 xor	 BYTE PTR __k$[ebp+4], -19 ; ffffffedH
  000da	51		 push	 ecx
  000db	8d 45 f0	 lea	 eax, DWORD PTR __k$[ebp]
  000de	f3 0f 11 04 24	 movss	 DWORD PTR [esp], xmm0
  000e3	50		 push	 eax
  000e4	c6 45 f5 00	 mov	 BYTE PTR __k$[ebp+5], 0
  000e8	ff 15 00 00 00
	00		 call	 DWORD PTR __imp_?LoadFloat@ioINILoader@@QAEMPBDM@Z

; 138  : 	}

  000ee	8b 4d fc	 mov	 ecx, DWORD PTR __$ArrayPad$[ebp]
  000f1	33 cd		 xor	 ecx, ebp
  000f3	e8 00 00 00 00	 call	 @__security_check_cookie@4
  000f8	c9		 leave
  000f9	c2 08 00	 ret	 8
??$LoadFloat_e@$05@ioINILoader@@QAEMAAY05$$CBDM@Z ENDP	; ioINILoader::LoadFloat_e<6>
_TEXT	ENDS
PUBLIC	__$ArrayPad$
PUBLIC	??$LoadFloat_e@$04@ioINILoader@@QAEMAAY04$$CBDM@Z ; ioINILoader::LoadFloat_e<5>
; Function compile flags: /Ogsp
;	COMDAT ??$LoadFloat_e@$04@ioINILoader@@QAEMAAY04$$CBDM@Z
_TEXT	SEGMENT
__k$ = -16						; size = 5
__$ArrayPad$ = -4					; size = 4
_k$ = 8							; size = 4
_f$ = 12						; size = 4
??$LoadFloat_e@$04@ioINILoader@@QAEMAAY04$$CBDM@Z PROC	; ioINILoader::LoadFloat_e<5>, COMDAT
; _this$ = ecx

; 135  : 	{

  00000	55		 push	 ebp
  00001	8b ec		 mov	 ebp, esp
  00003	83 ec 10	 sub	 esp, 16			; 00000010H
  00006	a1 00 00 00 00	 mov	 eax, DWORD PTR ___security_cookie
  0000b	33 c5		 xor	 eax, ebp
  0000d	89 45 fc	 mov	 DWORD PTR __$ArrayPad$[ebp], eax
  00010	8b 45 08	 mov	 eax, DWORD PTR _k$[ebp]

; 136  : 		_ENCSTR(k, _k);

  00013	8a 10		 mov	 dl, BYTE PTR [eax]
  00015	84 d2		 test	 dl, dl
  00017	0f 84 92 00 00
	00		 je	 $LN96@LoadFloat_@3
  0001d	80 f2 ed	 xor	 dl, -19			; ffffffedH
  00020	88 55 f0	 mov	 BYTE PTR __k$[ebp], dl
  00023	8a 50 01	 mov	 dl, BYTE PTR [eax+1]
  00026	84 d2		 test	 dl, dl
  00028	74 7f		 je	 SHORT $LN95@LoadFloat_@3
  0002a	80 f2 ec	 xor	 dl, -20			; ffffffecH
  0002d	88 55 f1	 mov	 BYTE PTR __k$[ebp+1], dl
  00030	8a 50 02	 mov	 dl, BYTE PTR [eax+2]
  00033	84 d2		 test	 dl, dl
  00035	74 6c		 je	 SHORT $LN94@LoadFloat_@3
  00037	80 f2 eb	 xor	 dl, -21			; ffffffebH
  0003a	88 55 f2	 mov	 BYTE PTR __k$[ebp+2], dl
  0003d	8a 50 03	 mov	 dl, BYTE PTR [eax+3]
  00040	84 d2		 test	 dl, dl
  00042	74 59		 je	 SHORT $LN93@LoadFloat_@3
  00044	80 f2 ea	 xor	 dl, -22			; ffffffeaH
  00047	80 78 04 00	 cmp	 BYTE PTR [eax+4], 0
  0004b	88 55 f3	 mov	 BYTE PTR __k$[ebp+3], dl
  0004e	74 63		 je	 SHORT $LN1@LoadFloat_@3
  00050	8a 50 05	 mov	 dl, BYTE PTR [eax+5]
  00053	84 d2		 test	 dl, dl
  00055	74 40		 je	 SHORT $LN91@LoadFloat_@3
  00057	80 f2 ec	 xor	 dl, -20			; ffffffecH
  0005a	88 55 f5	 mov	 BYTE PTR __k$[ebp+5], dl
  0005d	8a 50 06	 mov	 dl, BYTE PTR [eax+6]
  00060	84 d2		 test	 dl, dl
  00062	74 2d		 je	 SHORT $LN90@LoadFloat_@3
  00064	80 f2 eb	 xor	 dl, -21			; ffffffebH
  00067	88 55 f6	 mov	 BYTE PTR __k$[ebp+6], dl
  0006a	8a 50 07	 mov	 dl, BYTE PTR [eax+7]
  0006d	84 d2		 test	 dl, dl
  0006f	74 1a		 je	 SHORT $LN89@LoadFloat_@3
  00071	8a 40 08	 mov	 al, BYTE PTR [eax+8]
  00074	80 f2 ea	 xor	 dl, -22			; ffffffeaH
  00077	88 55 f7	 mov	 BYTE PTR __k$[ebp+7], dl
  0007a	84 c0		 test	 al, al
  0007c	74 07		 je	 SHORT $LN88@LoadFloat_@3
  0007e	34 ed		 xor	 al, -19			; ffffffedH
  00080	88 45 f8	 mov	 BYTE PTR __k$[ebp+8], al
  00083	eb 2e		 jmp	 SHORT $LN1@LoadFloat_@3
$LN88@LoadFloat_@3:
  00085	c6 45 f8 ed	 mov	 BYTE PTR __k$[ebp+8], -19 ; ffffffedH
  00089	eb 28		 jmp	 SHORT $LN1@LoadFloat_@3
$LN89@LoadFloat_@3:
  0008b	c6 45 f7 ea	 mov	 BYTE PTR __k$[ebp+7], -22 ; ffffffeaH
  0008f	eb 22		 jmp	 SHORT $LN1@LoadFloat_@3
$LN90@LoadFloat_@3:
  00091	c6 45 f6 eb	 mov	 BYTE PTR __k$[ebp+6], -21 ; ffffffebH
  00095	eb 1c		 jmp	 SHORT $LN1@LoadFloat_@3
$LN91@LoadFloat_@3:
  00097	c6 45 f5 ec	 mov	 BYTE PTR __k$[ebp+5], -20 ; ffffffecH
  0009b	eb 16		 jmp	 SHORT $LN1@LoadFloat_@3
$LN93@LoadFloat_@3:
  0009d	c6 45 f3 ea	 mov	 BYTE PTR __k$[ebp+3], -22 ; ffffffeaH
  000a1	eb 10		 jmp	 SHORT $LN1@LoadFloat_@3
$LN94@LoadFloat_@3:
  000a3	c6 45 f2 eb	 mov	 BYTE PTR __k$[ebp+2], -21 ; ffffffebH
  000a7	eb 0a		 jmp	 SHORT $LN1@LoadFloat_@3
$LN95@LoadFloat_@3:
  000a9	c6 45 f1 ec	 mov	 BYTE PTR __k$[ebp+1], -20 ; ffffffecH
  000ad	eb 04		 jmp	 SHORT $LN1@LoadFloat_@3
$LN96@LoadFloat_@3:
  000af	c6 45 f0 ed	 mov	 BYTE PTR __k$[ebp], -19	; ffffffedH
$LN1@LoadFloat_@3:

; 137  : 		return LoadFloat(_k, f);

  000b3	f3 0f 10 45 0c	 movss	 xmm0, DWORD PTR _f$[ebp]
  000b8	81 75 f0 ed ec
	eb ea		 xor	 DWORD PTR __k$[ebp], -353637139 ; eaebecedH
  000bf	51		 push	 ecx
  000c0	8d 45 f0	 lea	 eax, DWORD PTR __k$[ebp]
  000c3	f3 0f 11 04 24	 movss	 DWORD PTR [esp], xmm0
  000c8	50		 push	 eax
  000c9	c6 45 f4 00	 mov	 BYTE PTR __k$[ebp+4], 0
  000cd	ff 15 00 00 00
	00		 call	 DWORD PTR __imp_?LoadFloat@ioINILoader@@QAEMPBDM@Z

; 138  : 	}

  000d3	8b 4d fc	 mov	 ecx, DWORD PTR __$ArrayPad$[ebp]
  000d6	33 cd		 xor	 ecx, ebp
  000d8	e8 00 00 00 00	 call	 @__security_check_cookie@4
  000dd	c9		 leave
  000de	c2 08 00	 ret	 8
??$LoadFloat_e@$04@ioINILoader@@QAEMAAY04$$CBDM@Z ENDP	; ioINILoader::LoadFloat_e<5>
_TEXT	ENDS
PUBLIC	__$ArrayPad$
PUBLIC	??$SetTitle_e@$0L@@ioINILoader@@QAEXAAY0L@$$CBD@Z ; ioINILoader::SetTitle_e<11>
; Function compile flags: /Ogsp
;	COMDAT ??$SetTitle_e@$0L@@ioINILoader@@QAEXAAY0L@$$CBD@Z
_TEXT	SEGMENT
__t$ = -20						; size = 11
__$ArrayPad$ = -4					; size = 4
_t$ = 8							; size = 4
??$SetTitle_e@$0L@@ioINILoader@@QAEXAAY0L@$$CBD@Z PROC	; ioINILoader::SetTitle_e<11>, COMDAT
; _this$ = ecx

; 188  : 	{

  00000	55		 push	 ebp
  00001	8b ec		 mov	 ebp, esp
  00003	83 ec 14	 sub	 esp, 20			; 00000014H
  00006	a1 00 00 00 00	 mov	 eax, DWORD PTR ___security_cookie
  0000b	33 c5		 xor	 eax, ebp
  0000d	89 45 fc	 mov	 DWORD PTR __$ArrayPad$[ebp], eax
  00010	8b 45 08	 mov	 eax, DWORD PTR _t$[ebp]

; 189  : 		_ENCSTR(t, _t);

  00013	8a 10		 mov	 dl, BYTE PTR [eax]
  00015	56		 push	 esi
  00016	8b f1		 mov	 esi, ecx
  00018	84 d2		 test	 dl, dl
  0001a	0f 84 24 01 00
	00		 je	 $LN96@SetTitle_e@2
  00020	80 f2 ed	 xor	 dl, -19			; ffffffedH
  00023	88 55 ec	 mov	 BYTE PTR __t$[ebp], dl
  00026	8a 50 01	 mov	 dl, BYTE PTR [eax+1]
  00029	84 d2		 test	 dl, dl
  0002b	0f 84 0d 01 00
	00		 je	 $LN95@SetTitle_e@2
  00031	80 f2 ec	 xor	 dl, -20			; ffffffecH
  00034	88 55 ed	 mov	 BYTE PTR __t$[ebp+1], dl
  00037	8a 50 02	 mov	 dl, BYTE PTR [eax+2]
  0003a	84 d2		 test	 dl, dl
  0003c	0f 84 f6 00 00
	00		 je	 $LN94@SetTitle_e@2
  00042	80 f2 eb	 xor	 dl, -21			; ffffffebH
  00045	88 55 ee	 mov	 BYTE PTR __t$[ebp+2], dl
  00048	8a 50 03	 mov	 dl, BYTE PTR [eax+3]
  0004b	84 d2		 test	 dl, dl
  0004d	0f 84 df 00 00
	00		 je	 $LN93@SetTitle_e@2
  00053	80 f2 ea	 xor	 dl, -22			; ffffffeaH
  00056	88 55 ef	 mov	 BYTE PTR __t$[ebp+3], dl
  00059	8a 50 04	 mov	 dl, BYTE PTR [eax+4]
  0005c	84 d2		 test	 dl, dl
  0005e	0f 84 c8 00 00
	00		 je	 $LN92@SetTitle_e@2
  00064	80 f2 ed	 xor	 dl, -19			; ffffffedH
  00067	88 55 f0	 mov	 BYTE PTR __t$[ebp+4], dl
  0006a	8a 50 05	 mov	 dl, BYTE PTR [eax+5]
  0006d	84 d2		 test	 dl, dl
  0006f	0f 84 b1 00 00
	00		 je	 $LN91@SetTitle_e@2
  00075	80 f2 ec	 xor	 dl, -20			; ffffffecH
  00078	88 55 f1	 mov	 BYTE PTR __t$[ebp+5], dl
  0007b	8a 50 06	 mov	 dl, BYTE PTR [eax+6]
  0007e	84 d2		 test	 dl, dl
  00080	0f 84 9a 00 00
	00		 je	 $LN90@SetTitle_e@2
  00086	80 f2 eb	 xor	 dl, -21			; ffffffebH
  00089	88 55 f2	 mov	 BYTE PTR __t$[ebp+6], dl
  0008c	8a 50 07	 mov	 dl, BYTE PTR [eax+7]
  0008f	84 d2		 test	 dl, dl
  00091	0f 84 83 00 00
	00		 je	 $LN89@SetTitle_e@2
  00097	80 f2 ea	 xor	 dl, -22			; ffffffeaH
  0009a	88 55 f3	 mov	 BYTE PTR __t$[ebp+7], dl
  0009d	8a 50 08	 mov	 dl, BYTE PTR [eax+8]
  000a0	84 d2		 test	 dl, dl
  000a2	74 70		 je	 SHORT $LN88@SetTitle_e@2
  000a4	80 f2 ed	 xor	 dl, -19			; ffffffedH
  000a7	88 55 f4	 mov	 BYTE PTR __t$[ebp+8], dl
  000aa	8a 50 09	 mov	 dl, BYTE PTR [eax+9]
  000ad	84 d2		 test	 dl, dl
  000af	74 5d		 je	 SHORT $LN87@SetTitle_e@2
  000b1	80 f2 ec	 xor	 dl, -20			; ffffffecH
  000b4	80 78 0a 00	 cmp	 BYTE PTR [eax+10], 0
  000b8	88 55 f5	 mov	 BYTE PTR __t$[ebp+9], dl
  000bb	0f 84 87 00 00
	00		 je	 $LN1@SetTitle_e@2
  000c1	8a 50 0b	 mov	 dl, BYTE PTR [eax+11]
  000c4	84 d2		 test	 dl, dl
  000c6	74 40		 je	 SHORT $LN85@SetTitle_e@2
  000c8	80 f2 ea	 xor	 dl, -22			; ffffffeaH
  000cb	88 55 f7	 mov	 BYTE PTR __t$[ebp+11], dl
  000ce	8a 50 0c	 mov	 dl, BYTE PTR [eax+12]
  000d1	84 d2		 test	 dl, dl
  000d3	74 2d		 je	 SHORT $LN84@SetTitle_e@2
  000d5	80 f2 ed	 xor	 dl, -19			; ffffffedH
  000d8	88 55 f8	 mov	 BYTE PTR __t$[ebp+12], dl
  000db	8a 50 0d	 mov	 dl, BYTE PTR [eax+13]
  000de	84 d2		 test	 dl, dl
  000e0	74 1a		 je	 SHORT $LN83@SetTitle_e@2
  000e2	8a 40 0e	 mov	 al, BYTE PTR [eax+14]
  000e5	80 f2 ec	 xor	 dl, -20			; ffffffecH
  000e8	88 55 f9	 mov	 BYTE PTR __t$[ebp+13], dl
  000eb	84 c0		 test	 al, al
  000ed	74 07		 je	 SHORT $LN82@SetTitle_e@2
  000ef	34 eb		 xor	 al, -21			; ffffffebH
  000f1	88 45 fa	 mov	 BYTE PTR __t$[ebp+14], al
  000f4	eb 52		 jmp	 SHORT $LN1@SetTitle_e@2
$LN82@SetTitle_e@2:
  000f6	c6 45 fa eb	 mov	 BYTE PTR __t$[ebp+14], -21 ; ffffffebH
  000fa	eb 4c		 jmp	 SHORT $LN1@SetTitle_e@2
$LN83@SetTitle_e@2:
  000fc	c6 45 f9 ec	 mov	 BYTE PTR __t$[ebp+13], -20 ; ffffffecH
  00100	eb 46		 jmp	 SHORT $LN1@SetTitle_e@2
$LN84@SetTitle_e@2:
  00102	c6 45 f8 ed	 mov	 BYTE PTR __t$[ebp+12], -19 ; ffffffedH
  00106	eb 40		 jmp	 SHORT $LN1@SetTitle_e@2
$LN85@SetTitle_e@2:
  00108	c6 45 f7 ea	 mov	 BYTE PTR __t$[ebp+11], -22 ; ffffffeaH
  0010c	eb 3a		 jmp	 SHORT $LN1@SetTitle_e@2
$LN87@SetTitle_e@2:
  0010e	c6 45 f5 ec	 mov	 BYTE PTR __t$[ebp+9], -20 ; ffffffecH
  00112	eb 34		 jmp	 SHORT $LN1@SetTitle_e@2
$LN88@SetTitle_e@2:
  00114	c6 45 f4 ed	 mov	 BYTE PTR __t$[ebp+8], -19 ; ffffffedH
  00118	eb 2e		 jmp	 SHORT $LN1@SetTitle_e@2
$LN89@SetTitle_e@2:
  0011a	c6 45 f3 ea	 mov	 BYTE PTR __t$[ebp+7], -22 ; ffffffeaH
  0011e	eb 28		 jmp	 SHORT $LN1@SetTitle_e@2
$LN90@SetTitle_e@2:
  00120	c6 45 f2 eb	 mov	 BYTE PTR __t$[ebp+6], -21 ; ffffffebH
  00124	eb 22		 jmp	 SHORT $LN1@SetTitle_e@2
$LN91@SetTitle_e@2:
  00126	c6 45 f1 ec	 mov	 BYTE PTR __t$[ebp+5], -20 ; ffffffecH
  0012a	eb 1c		 jmp	 SHORT $LN1@SetTitle_e@2
$LN92@SetTitle_e@2:
  0012c	c6 45 f0 ed	 mov	 BYTE PTR __t$[ebp+4], -19 ; ffffffedH
  00130	eb 16		 jmp	 SHORT $LN1@SetTitle_e@2
$LN93@SetTitle_e@2:
  00132	c6 45 ef ea	 mov	 BYTE PTR __t$[ebp+3], -22 ; ffffffeaH
  00136	eb 10		 jmp	 SHORT $LN1@SetTitle_e@2
$LN94@SetTitle_e@2:
  00138	c6 45 ee eb	 mov	 BYTE PTR __t$[ebp+2], -21 ; ffffffebH
  0013c	eb 0a		 jmp	 SHORT $LN1@SetTitle_e@2
$LN95@SetTitle_e@2:
  0013e	c6 45 ed ec	 mov	 BYTE PTR __t$[ebp+1], -20 ; ffffffecH
  00142	eb 04		 jmp	 SHORT $LN1@SetTitle_e@2
$LN96@SetTitle_e@2:
  00144	c6 45 ec ed	 mov	 BYTE PTR __t$[ebp], -19	; ffffffedH
$LN1@SetTitle_e@2:
  00148	6a 02		 push	 2
  0014a	8d 45 ec	 lea	 eax, DWORD PTR __t$[ebp]
  0014d	c6 45 f6 00	 mov	 BYTE PTR __t$[ebp+10], 0
  00151	5a		 pop	 edx
$LL104@SetTitle_e@2:
  00152	81 30 ed ec eb
	ea		 xor	 DWORD PTR [eax], -353637139 ; eaebecedH
  00158	83 c0 04	 add	 eax, 4
  0015b	4a		 dec	 edx
  0015c	75 f4		 jne	 SHORT $LL104@SetTitle_e@2
  0015e	6a 08		 push	 8
  00160	58		 pop	 eax
$LL101@SetTitle_e@2:
  00161	8b c8		 mov	 ecx, eax
  00163	81 e1 03 00 00
	80		 and	 ecx, -2147483645	; 80000003H
  00169	79 05		 jns	 SHORT $LN111@SetTitle_e@2
  0016b	49		 dec	 ecx
  0016c	83 c9 fc	 or	 ecx, -4			; fffffffcH
  0016f	41		 inc	 ecx
$LN111@SetTitle_e@2:
  00170	b2 ed		 mov	 dl, -19			; ffffffedH
  00172	2a d1		 sub	 dl, cl
  00174	30 54 05 ec	 xor	 BYTE PTR __t$[ebp+eax], dl
  00178	40		 inc	 eax
  00179	83 f8 0a	 cmp	 eax, 10			; 0000000aH
  0017c	7c e3		 jl	 SHORT $LL101@SetTitle_e@2

; 190  : 		SetTitle(_t);

  0017e	8d 45 ec	 lea	 eax, DWORD PTR __t$[ebp]
  00181	50		 push	 eax
  00182	8b ce		 mov	 ecx, esi
  00184	ff 15 00 00 00
	00		 call	 DWORD PTR __imp_?SetTitle@ioINILoader@@QAEXPBD@Z

; 191  : 	}

  0018a	8b 4d fc	 mov	 ecx, DWORD PTR __$ArrayPad$[ebp]
  0018d	33 cd		 xor	 ecx, ebp
  0018f	5e		 pop	 esi
  00190	e8 00 00 00 00	 call	 @__security_check_cookie@4
  00195	c9		 leave
  00196	c2 04 00	 ret	 4
??$SetTitle_e@$0L@@ioINILoader@@QAEXAAY0L@$$CBD@Z ENDP	; ioINILoader::SetTitle_e<11>
_TEXT	ENDS
PUBLIC	__$ArrayPad$
PUBLIC	??$LoadInt_e@$0BE@@ioINILoader@@QAEHAAY0BE@$$CBDH@Z ; ioINILoader::LoadInt_e<20>
EXTRN	__imp_?LoadInt@ioINILoader@@QAEHPBDH@Z:PROC
; Function compile flags: /Ogsp
;	COMDAT ??$LoadInt_e@$0BE@@ioINILoader@@QAEHAAY0BE@$$CBDH@Z
_TEXT	SEGMENT
__k$ = -28						; size = 20
__$ArrayPad$ = -4					; size = 4
_k$ = 8							; size = 4
_i$ = 12						; size = 4
??$LoadInt_e@$0BE@@ioINILoader@@QAEHAAY0BE@$$CBDH@Z PROC ; ioINILoader::LoadInt_e<20>, COMDAT
; _this$ = ecx

; 118  : 	{

  00000	55		 push	 ebp
  00001	8b ec		 mov	 ebp, esp
  00003	83 ec 1c	 sub	 esp, 28			; 0000001cH
  00006	a1 00 00 00 00	 mov	 eax, DWORD PTR ___security_cookie
  0000b	33 c5		 xor	 eax, ebp
  0000d	89 45 fc	 mov	 DWORD PTR __$ArrayPad$[ebp], eax
  00010	8b 45 08	 mov	 eax, DWORD PTR _k$[ebp]

; 119  : 		_ENCSTR(k, _k);

  00013	8a 10		 mov	 dl, BYTE PTR [eax]
  00015	53		 push	 ebx
  00016	56		 push	 esi
  00017	8b f1		 mov	 esi, ecx
  00019	84 d2		 test	 dl, dl
  0001b	0f 84 dd 01 00
	00		 je	 $LN96@LoadInt_e
  00021	80 f2 ed	 xor	 dl, -19			; ffffffedH
  00024	88 55 e4	 mov	 BYTE PTR __k$[ebp], dl
  00027	8a 50 01	 mov	 dl, BYTE PTR [eax+1]
  0002a	84 d2		 test	 dl, dl
  0002c	0f 84 c6 01 00
	00		 je	 $LN95@LoadInt_e
  00032	b3 ec		 mov	 bl, -20			; ffffffecH
  00034	32 d3		 xor	 dl, bl
  00036	88 55 e5	 mov	 BYTE PTR __k$[ebp+1], dl
  00039	8a 50 02	 mov	 dl, BYTE PTR [eax+2]
  0003c	84 d2		 test	 dl, dl
  0003e	0f 84 ae 01 00
	00		 je	 $LN94@LoadInt_e
  00044	b1 eb		 mov	 cl, -21			; ffffffebH
  00046	32 d1		 xor	 dl, cl
  00048	88 55 e6	 mov	 BYTE PTR __k$[ebp+2], dl
  0004b	8a 50 03	 mov	 dl, BYTE PTR [eax+3]
  0004e	84 d2		 test	 dl, dl
  00050	0f 84 96 01 00
	00		 je	 $LN93@LoadInt_e
  00056	80 f2 ea	 xor	 dl, -22			; ffffffeaH
  00059	88 55 e7	 mov	 BYTE PTR __k$[ebp+3], dl
  0005c	8a 50 04	 mov	 dl, BYTE PTR [eax+4]
  0005f	84 d2		 test	 dl, dl
  00061	0f 84 7f 01 00
	00		 je	 $LN92@LoadInt_e
  00067	80 f2 ed	 xor	 dl, -19			; ffffffedH
  0006a	88 55 e8	 mov	 BYTE PTR __k$[ebp+4], dl
  0006d	8a 50 05	 mov	 dl, BYTE PTR [eax+5]
  00070	84 d2		 test	 dl, dl
  00072	0f 84 69 01 00
	00		 je	 $LN91@LoadInt_e
  00078	32 d3		 xor	 dl, bl
  0007a	88 55 e9	 mov	 BYTE PTR __k$[ebp+5], dl
  0007d	8a 50 06	 mov	 dl, BYTE PTR [eax+6]
  00080	84 d2		 test	 dl, dl
  00082	0f 84 54 01 00
	00		 je	 $LN90@LoadInt_e
  00088	32 d1		 xor	 dl, cl
  0008a	88 55 ea	 mov	 BYTE PTR __k$[ebp+6], dl
  0008d	8a 50 07	 mov	 dl, BYTE PTR [eax+7]
  00090	84 d2		 test	 dl, dl
  00092	0f 84 3e 01 00
	00		 je	 $LN89@LoadInt_e
  00098	80 f2 ea	 xor	 dl, -22			; ffffffeaH
  0009b	88 55 eb	 mov	 BYTE PTR __k$[ebp+7], dl
  0009e	8a 50 08	 mov	 dl, BYTE PTR [eax+8]
  000a1	84 d2		 test	 dl, dl
  000a3	0f 84 27 01 00
	00		 je	 $LN88@LoadInt_e
  000a9	80 f2 ed	 xor	 dl, -19			; ffffffedH
  000ac	88 55 ec	 mov	 BYTE PTR __k$[ebp+8], dl
  000af	8a 50 09	 mov	 dl, BYTE PTR [eax+9]
  000b2	84 d2		 test	 dl, dl
  000b4	0f 84 11 01 00
	00		 je	 $LN87@LoadInt_e
  000ba	32 d3		 xor	 dl, bl
  000bc	88 55 ed	 mov	 BYTE PTR __k$[ebp+9], dl
  000bf	8a 50 0a	 mov	 dl, BYTE PTR [eax+10]
  000c2	84 d2		 test	 dl, dl
  000c4	0f 84 fc 00 00
	00		 je	 $LN86@LoadInt_e
  000ca	32 d1		 xor	 dl, cl
  000cc	88 55 ee	 mov	 BYTE PTR __k$[ebp+10], dl
  000cf	8a 50 0b	 mov	 dl, BYTE PTR [eax+11]
  000d2	84 d2		 test	 dl, dl
  000d4	0f 84 e6 00 00
	00		 je	 $LN85@LoadInt_e
  000da	80 f2 ea	 xor	 dl, -22			; ffffffeaH
  000dd	88 55 ef	 mov	 BYTE PTR __k$[ebp+11], dl
  000e0	8a 50 0c	 mov	 dl, BYTE PTR [eax+12]
  000e3	84 d2		 test	 dl, dl
  000e5	0f 84 cf 00 00
	00		 je	 $LN84@LoadInt_e
  000eb	80 f2 ed	 xor	 dl, -19			; ffffffedH
  000ee	88 55 f0	 mov	 BYTE PTR __k$[ebp+12], dl
  000f1	8a 50 0d	 mov	 dl, BYTE PTR [eax+13]
  000f4	84 d2		 test	 dl, dl
  000f6	0f 84 b9 00 00
	00		 je	 $LN83@LoadInt_e
  000fc	32 d3		 xor	 dl, bl
  000fe	88 55 f1	 mov	 BYTE PTR __k$[ebp+13], dl
  00101	8a 50 0e	 mov	 dl, BYTE PTR [eax+14]
  00104	84 d2		 test	 dl, dl
  00106	0f 84 a4 00 00
	00		 je	 $LN82@LoadInt_e
  0010c	32 d1		 xor	 dl, cl
  0010e	88 55 f2	 mov	 BYTE PTR __k$[ebp+14], dl
  00111	8a 50 0f	 mov	 dl, BYTE PTR [eax+15]
  00114	84 d2		 test	 dl, dl
  00116	0f 84 8e 00 00
	00		 je	 $LN81@LoadInt_e
  0011c	80 f2 ea	 xor	 dl, -22			; ffffffeaH
  0011f	88 55 f3	 mov	 BYTE PTR __k$[ebp+15], dl
  00122	8a 50 10	 mov	 dl, BYTE PTR [eax+16]
  00125	84 d2		 test	 dl, dl
  00127	74 7b		 je	 SHORT $LN80@LoadInt_e
  00129	80 f2 ed	 xor	 dl, -19			; ffffffedH
  0012c	88 55 f4	 mov	 BYTE PTR __k$[ebp+16], dl
  0012f	8a 50 11	 mov	 dl, BYTE PTR [eax+17]
  00132	84 d2		 test	 dl, dl
  00134	74 69		 je	 SHORT $LN79@LoadInt_e
  00136	32 d3		 xor	 dl, bl
  00138	88 55 f5	 mov	 BYTE PTR __k$[ebp+17], dl
  0013b	8a 50 12	 mov	 dl, BYTE PTR [eax+18]
  0013e	84 d2		 test	 dl, dl
  00140	74 58		 je	 SHORT $LN78@LoadInt_e
  00142	32 d1		 xor	 dl, cl
  00144	80 78 13 00	 cmp	 BYTE PTR [eax+19], 0
  00148	88 55 f6	 mov	 BYTE PTR __k$[ebp+18], dl
  0014b	0f 84 b1 00 00
	00		 je	 $LN1@LoadInt_e
  00151	8a 50 14	 mov	 dl, BYTE PTR [eax+20]
  00154	84 d2		 test	 dl, dl
  00156	74 3c		 je	 SHORT $LN76@LoadInt_e
  00158	80 f2 ed	 xor	 dl, -19			; ffffffedH
  0015b	88 55 f8	 mov	 BYTE PTR __k$[ebp+20], dl
  0015e	8a 50 15	 mov	 dl, BYTE PTR [eax+21]
  00161	84 d2		 test	 dl, dl
  00163	74 2a		 je	 SHORT $LN75@LoadInt_e
  00165	32 d3		 xor	 dl, bl
  00167	88 55 f9	 mov	 BYTE PTR __k$[ebp+21], dl
  0016a	8a 50 16	 mov	 dl, BYTE PTR [eax+22]
  0016d	84 d2		 test	 dl, dl
  0016f	74 19		 je	 SHORT $LN74@LoadInt_e
  00171	8a 40 17	 mov	 al, BYTE PTR [eax+23]
  00174	32 d1		 xor	 dl, cl
  00176	88 55 fa	 mov	 BYTE PTR __k$[ebp+22], dl
  00179	84 c0		 test	 al, al
  0017b	74 07		 je	 SHORT $LN73@LoadInt_e
  0017d	34 ea		 xor	 al, -22			; ffffffeaH
  0017f	88 45 fb	 mov	 BYTE PTR __k$[ebp+23], al
  00182	eb 7e		 jmp	 SHORT $LN1@LoadInt_e
$LN73@LoadInt_e:
  00184	c6 45 fb ea	 mov	 BYTE PTR __k$[ebp+23], -22 ; ffffffeaH
  00188	eb 78		 jmp	 SHORT $LN1@LoadInt_e
$LN74@LoadInt_e:
  0018a	88 4d fa	 mov	 BYTE PTR __k$[ebp+22], cl
  0018d	eb 73		 jmp	 SHORT $LN1@LoadInt_e
$LN75@LoadInt_e:
  0018f	88 5d f9	 mov	 BYTE PTR __k$[ebp+21], bl
  00192	eb 6e		 jmp	 SHORT $LN1@LoadInt_e
$LN76@LoadInt_e:
  00194	c6 45 f8 ed	 mov	 BYTE PTR __k$[ebp+20], -19 ; ffffffedH
  00198	eb 68		 jmp	 SHORT $LN1@LoadInt_e
$LN78@LoadInt_e:
  0019a	88 4d f6	 mov	 BYTE PTR __k$[ebp+18], cl
  0019d	eb 63		 jmp	 SHORT $LN1@LoadInt_e
$LN79@LoadInt_e:
  0019f	88 5d f5	 mov	 BYTE PTR __k$[ebp+17], bl
  001a2	eb 5e		 jmp	 SHORT $LN1@LoadInt_e
$LN80@LoadInt_e:
  001a4	c6 45 f4 ed	 mov	 BYTE PTR __k$[ebp+16], -19 ; ffffffedH
  001a8	eb 58		 jmp	 SHORT $LN1@LoadInt_e
$LN81@LoadInt_e:
  001aa	c6 45 f3 ea	 mov	 BYTE PTR __k$[ebp+15], -22 ; ffffffeaH
  001ae	eb 52		 jmp	 SHORT $LN1@LoadInt_e
$LN82@LoadInt_e:
  001b0	88 4d f2	 mov	 BYTE PTR __k$[ebp+14], cl
  001b3	eb 4d		 jmp	 SHORT $LN1@LoadInt_e
$LN83@LoadInt_e:
  001b5	88 5d f1	 mov	 BYTE PTR __k$[ebp+13], bl
  001b8	eb 48		 jmp	 SHORT $LN1@LoadInt_e
$LN84@LoadInt_e:
  001ba	c6 45 f0 ed	 mov	 BYTE PTR __k$[ebp+12], -19 ; ffffffedH
  001be	eb 42		 jmp	 SHORT $LN1@LoadInt_e
$LN85@LoadInt_e:
  001c0	c6 45 ef ea	 mov	 BYTE PTR __k$[ebp+11], -22 ; ffffffeaH
  001c4	eb 3c		 jmp	 SHORT $LN1@LoadInt_e
$LN86@LoadInt_e:
  001c6	88 4d ee	 mov	 BYTE PTR __k$[ebp+10], cl
  001c9	eb 37		 jmp	 SHORT $LN1@LoadInt_e
$LN87@LoadInt_e:
  001cb	88 5d ed	 mov	 BYTE PTR __k$[ebp+9], bl
  001ce	eb 32		 jmp	 SHORT $LN1@LoadInt_e
$LN88@LoadInt_e:
  001d0	c6 45 ec ed	 mov	 BYTE PTR __k$[ebp+8], -19 ; ffffffedH
  001d4	eb 2c		 jmp	 SHORT $LN1@LoadInt_e
$LN89@LoadInt_e:
  001d6	c6 45 eb ea	 mov	 BYTE PTR __k$[ebp+7], -22 ; ffffffeaH
  001da	eb 26		 jmp	 SHORT $LN1@LoadInt_e
$LN90@LoadInt_e:
  001dc	88 4d ea	 mov	 BYTE PTR __k$[ebp+6], cl
  001df	eb 21		 jmp	 SHORT $LN1@LoadInt_e
$LN91@LoadInt_e:
  001e1	88 5d e9	 mov	 BYTE PTR __k$[ebp+5], bl
  001e4	eb 1c		 jmp	 SHORT $LN1@LoadInt_e
$LN92@LoadInt_e:
  001e6	c6 45 e8 ed	 mov	 BYTE PTR __k$[ebp+4], -19 ; ffffffedH
  001ea	eb 16		 jmp	 SHORT $LN1@LoadInt_e
$LN93@LoadInt_e:
  001ec	c6 45 e7 ea	 mov	 BYTE PTR __k$[ebp+3], -22 ; ffffffeaH
  001f0	eb 10		 jmp	 SHORT $LN1@LoadInt_e
$LN94@LoadInt_e:
  001f2	c6 45 e6 eb	 mov	 BYTE PTR __k$[ebp+2], -21 ; ffffffebH
  001f6	eb 0a		 jmp	 SHORT $LN1@LoadInt_e
$LN95@LoadInt_e:
  001f8	c6 45 e5 ec	 mov	 BYTE PTR __k$[ebp+1], -20 ; ffffffecH
  001fc	eb 04		 jmp	 SHORT $LN1@LoadInt_e
$LN96@LoadInt_e:
  001fe	c6 45 e4 ed	 mov	 BYTE PTR __k$[ebp], -19	; ffffffedH
$LN1@LoadInt_e:
  00202	6a 04		 push	 4
  00204	8d 45 e4	 lea	 eax, DWORD PTR __k$[ebp]
  00207	c6 45 f7 00	 mov	 BYTE PTR __k$[ebp+19], 0
  0020b	5a		 pop	 edx
$LL104@LoadInt_e:
  0020c	81 30 ed ec eb
	ea		 xor	 DWORD PTR [eax], -353637139 ; eaebecedH
  00212	83 c0 04	 add	 eax, 4
  00215	4a		 dec	 edx
  00216	75 f4		 jne	 SHORT $LL104@LoadInt_e
  00218	6a 10		 push	 16			; 00000010H
  0021a	58		 pop	 eax
$LL101@LoadInt_e:
  0021b	8b c8		 mov	 ecx, eax
  0021d	81 e1 03 00 00
	80		 and	 ecx, -2147483645	; 80000003H
  00223	79 05		 jns	 SHORT $LN111@LoadInt_e
  00225	49		 dec	 ecx
  00226	83 c9 fc	 or	 ecx, -4			; fffffffcH
  00229	41		 inc	 ecx
$LN111@LoadInt_e:
  0022a	b2 ed		 mov	 dl, -19			; ffffffedH
  0022c	2a d1		 sub	 dl, cl
  0022e	30 54 05 e4	 xor	 BYTE PTR __k$[ebp+eax], dl
  00232	40		 inc	 eax
  00233	83 f8 13	 cmp	 eax, 19			; 00000013H
  00236	7c e3		 jl	 SHORT $LL101@LoadInt_e

; 120  : 		return LoadInt(_k, i);

  00238	ff 75 0c	 push	 DWORD PTR _i$[ebp]
  0023b	8d 45 e4	 lea	 eax, DWORD PTR __k$[ebp]
  0023e	50		 push	 eax
  0023f	8b ce		 mov	 ecx, esi
  00241	ff 15 00 00 00
	00		 call	 DWORD PTR __imp_?LoadInt@ioINILoader@@QAEHPBDH@Z

; 121  : 	}

  00247	8b 4d fc	 mov	 ecx, DWORD PTR __$ArrayPad$[ebp]
  0024a	5e		 pop	 esi
  0024b	33 cd		 xor	 ecx, ebp
  0024d	5b		 pop	 ebx
  0024e	e8 00 00 00 00	 call	 @__security_check_cookie@4
  00253	c9		 leave
  00254	c2 08 00	 ret	 8
??$LoadInt_e@$0BE@@ioINILoader@@QAEHAAY0BE@$$CBDH@Z ENDP ; ioINILoader::LoadInt_e<20>
_TEXT	ENDS
PUBLIC	_this$GSCopy$
PUBLIC	__$ArrayPad$
PUBLIC	??$LoadString_e@$0N@$0N@@ioINILoader@@QAEXAAY0N@$$CBD0PADH@Z ; ioINILoader::LoadString_e<13,13>
EXTRN	__imp_?LoadStringA@ioINILoader@@QAEXPBD0PADH@Z:PROC
; Function compile flags: /Ogsp
;	COMDAT ??$LoadString_e@$0N@$0N@@ioINILoader@@QAEXAAY0N@$$CBD0PADH@Z
_TEXT	SEGMENT
_this$GSCopy$ = -48					; size = 4
__k$ = -44						; size = 13
__d$ = -24						; size = 13
__$ArrayPad$ = -4					; size = 4
_k$ = 8							; size = 4
_d$ = 12						; size = 4
_b$ = 16						; size = 4
_i$ = 20						; size = 4
??$LoadString_e@$0N@$0N@@ioINILoader@@QAEXAAY0N@$$CBD0PADH@Z PROC ; ioINILoader::LoadString_e<13,13>, COMDAT
; _this$ = ecx

; 152  : 	{

  00000	55		 push	 ebp
  00001	8b ec		 mov	 ebp, esp
  00003	83 ec 30	 sub	 esp, 48			; 00000030H
  00006	a1 00 00 00 00	 mov	 eax, DWORD PTR ___security_cookie
  0000b	33 c5		 xor	 eax, ebp
  0000d	89 45 fc	 mov	 DWORD PTR __$ArrayPad$[ebp], eax
  00010	8b 45 08	 mov	 eax, DWORD PTR _k$[ebp]
  00013	8b 55 0c	 mov	 edx, DWORD PTR _d$[ebp]
  00016	53		 push	 ebx

; 153  : 		_ENCSTR(k, _k);

  00017	8a 18		 mov	 bl, BYTE PTR [eax]
  00019	89 4d d0	 mov	 DWORD PTR _this$GSCopy$[ebp], ecx
  0001c	32 c9		 xor	 cl, cl
  0001e	57		 push	 edi
  0001f	8b 7d 10	 mov	 edi, DWORD PTR _b$[ebp]
  00022	3a d9		 cmp	 bl, cl
  00024	0f 84 51 01 00
	00		 je	 $LN192@LoadString
  0002a	80 f3 ed	 xor	 bl, -19			; ffffffedH
  0002d	88 5d d4	 mov	 BYTE PTR __k$[ebp], bl
  00030	8a 58 01	 mov	 bl, BYTE PTR [eax+1]
  00033	3a d9		 cmp	 bl, cl
  00035	0f 84 3a 01 00
	00		 je	 $LN191@LoadString
  0003b	80 f3 ec	 xor	 bl, -20			; ffffffecH
  0003e	88 5d d5	 mov	 BYTE PTR __k$[ebp+1], bl
  00041	8a 58 02	 mov	 bl, BYTE PTR [eax+2]
  00044	3a d9		 cmp	 bl, cl
  00046	0f 84 23 01 00
	00		 je	 $LN190@LoadString
  0004c	80 f3 eb	 xor	 bl, -21			; ffffffebH
  0004f	88 5d d6	 mov	 BYTE PTR __k$[ebp+2], bl
  00052	8a 58 03	 mov	 bl, BYTE PTR [eax+3]
  00055	3a d9		 cmp	 bl, cl
  00057	0f 84 0c 01 00
	00		 je	 $LN189@LoadString
  0005d	80 f3 ea	 xor	 bl, -22			; ffffffeaH
  00060	88 5d d7	 mov	 BYTE PTR __k$[ebp+3], bl
  00063	8a 58 04	 mov	 bl, BYTE PTR [eax+4]
  00066	3a d9		 cmp	 bl, cl
  00068	0f 84 f5 00 00
	00		 je	 $LN188@LoadString
  0006e	80 f3 ed	 xor	 bl, -19			; ffffffedH
  00071	88 5d d8	 mov	 BYTE PTR __k$[ebp+4], bl
  00074	8a 58 05	 mov	 bl, BYTE PTR [eax+5]
  00077	3a d9		 cmp	 bl, cl
  00079	0f 84 de 00 00
	00		 je	 $LN187@LoadString
  0007f	80 f3 ec	 xor	 bl, -20			; ffffffecH
  00082	88 5d d9	 mov	 BYTE PTR __k$[ebp+5], bl
  00085	8a 58 06	 mov	 bl, BYTE PTR [eax+6]
  00088	3a d9		 cmp	 bl, cl
  0008a	0f 84 c7 00 00
	00		 je	 $LN186@LoadString
  00090	80 f3 eb	 xor	 bl, -21			; ffffffebH
  00093	88 5d da	 mov	 BYTE PTR __k$[ebp+6], bl
  00096	8a 58 07	 mov	 bl, BYTE PTR [eax+7]
  00099	3a d9		 cmp	 bl, cl
  0009b	0f 84 b0 00 00
	00		 je	 $LN185@LoadString
  000a1	80 f3 ea	 xor	 bl, -22			; ffffffeaH
  000a4	88 5d db	 mov	 BYTE PTR __k$[ebp+7], bl
  000a7	8a 58 08	 mov	 bl, BYTE PTR [eax+8]
  000aa	3a d9		 cmp	 bl, cl
  000ac	0f 84 99 00 00
	00		 je	 $LN184@LoadString
  000b2	80 f3 ed	 xor	 bl, -19			; ffffffedH
  000b5	88 5d dc	 mov	 BYTE PTR __k$[ebp+8], bl
  000b8	8a 58 09	 mov	 bl, BYTE PTR [eax+9]
  000bb	3a d9		 cmp	 bl, cl
  000bd	0f 84 82 00 00
	00		 je	 $LN183@LoadString
  000c3	80 f3 ec	 xor	 bl, -20			; ffffffecH
  000c6	88 5d dd	 mov	 BYTE PTR __k$[ebp+9], bl
  000c9	8a 58 0a	 mov	 bl, BYTE PTR [eax+10]
  000cc	3a d9		 cmp	 bl, cl
  000ce	74 6f		 je	 SHORT $LN182@LoadString
  000d0	80 f3 eb	 xor	 bl, -21			; ffffffebH
  000d3	88 5d de	 mov	 BYTE PTR __k$[ebp+10], bl
  000d6	8a 58 0b	 mov	 bl, BYTE PTR [eax+11]
  000d9	3a d9		 cmp	 bl, cl
  000db	74 5c		 je	 SHORT $LN181@LoadString
  000dd	80 f3 ea	 xor	 bl, -22			; ffffffeaH
  000e0	88 5d df	 mov	 BYTE PTR __k$[ebp+11], bl
  000e3	38 48 0c	 cmp	 BYTE PTR [eax+12], cl
  000e6	0f 84 93 00 00
	00		 je	 $LN97@LoadString
  000ec	8a 58 0d	 mov	 bl, BYTE PTR [eax+13]
  000ef	3a d9		 cmp	 bl, cl
  000f1	74 40		 je	 SHORT $LN179@LoadString
  000f3	80 f3 ec	 xor	 bl, -20			; ffffffecH
  000f6	88 5d e1	 mov	 BYTE PTR __k$[ebp+13], bl
  000f9	8a 58 0e	 mov	 bl, BYTE PTR [eax+14]
  000fc	3a d9		 cmp	 bl, cl
  000fe	74 2d		 je	 SHORT $LN178@LoadString
  00100	80 f3 eb	 xor	 bl, -21			; ffffffebH
  00103	88 5d e2	 mov	 BYTE PTR __k$[ebp+14], bl
  00106	8a 58 0f	 mov	 bl, BYTE PTR [eax+15]
  00109	3a d9		 cmp	 bl, cl
  0010b	74 1a		 je	 SHORT $LN177@LoadString
  0010d	8a 40 10	 mov	 al, BYTE PTR [eax+16]
  00110	80 f3 ea	 xor	 bl, -22			; ffffffeaH
  00113	88 5d e3	 mov	 BYTE PTR __k$[ebp+15], bl
  00116	3a c1		 cmp	 al, cl
  00118	74 07		 je	 SHORT $LN176@LoadString
  0011a	34 ed		 xor	 al, -19			; ffffffedH
  0011c	88 45 e4	 mov	 BYTE PTR __k$[ebp+16], al
  0011f	eb 5e		 jmp	 SHORT $LN97@LoadString
$LN176@LoadString:
  00121	c6 45 e4 ed	 mov	 BYTE PTR __k$[ebp+16], -19 ; ffffffedH
  00125	eb 58		 jmp	 SHORT $LN97@LoadString
$LN177@LoadString:
  00127	c6 45 e3 ea	 mov	 BYTE PTR __k$[ebp+15], -22 ; ffffffeaH
  0012b	eb 52		 jmp	 SHORT $LN97@LoadString
$LN178@LoadString:
  0012d	c6 45 e2 eb	 mov	 BYTE PTR __k$[ebp+14], -21 ; ffffffebH
  00131	eb 4c		 jmp	 SHORT $LN97@LoadString
$LN179@LoadString:
  00133	c6 45 e1 ec	 mov	 BYTE PTR __k$[ebp+13], -20 ; ffffffecH
  00137	eb 46		 jmp	 SHORT $LN97@LoadString
$LN181@LoadString:
  00139	c6 45 df ea	 mov	 BYTE PTR __k$[ebp+11], -22 ; ffffffeaH
  0013d	eb 40		 jmp	 SHORT $LN97@LoadString
$LN182@LoadString:
  0013f	c6 45 de eb	 mov	 BYTE PTR __k$[ebp+10], -21 ; ffffffebH
  00143	eb 3a		 jmp	 SHORT $LN97@LoadString
$LN183@LoadString:
  00145	c6 45 dd ec	 mov	 BYTE PTR __k$[ebp+9], -20 ; ffffffecH
  00149	eb 34		 jmp	 SHORT $LN97@LoadString
$LN184@LoadString:
  0014b	c6 45 dc ed	 mov	 BYTE PTR __k$[ebp+8], -19 ; ffffffedH
  0014f	eb 2e		 jmp	 SHORT $LN97@LoadString
$LN185@LoadString:
  00151	c6 45 db ea	 mov	 BYTE PTR __k$[ebp+7], -22 ; ffffffeaH
  00155	eb 28		 jmp	 SHORT $LN97@LoadString
$LN186@LoadString:
  00157	c6 45 da eb	 mov	 BYTE PTR __k$[ebp+6], -21 ; ffffffebH
  0015b	eb 22		 jmp	 SHORT $LN97@LoadString
$LN187@LoadString:
  0015d	c6 45 d9 ec	 mov	 BYTE PTR __k$[ebp+5], -20 ; ffffffecH
  00161	eb 1c		 jmp	 SHORT $LN97@LoadString
$LN188@LoadString:
  00163	c6 45 d8 ed	 mov	 BYTE PTR __k$[ebp+4], -19 ; ffffffedH
  00167	eb 16		 jmp	 SHORT $LN97@LoadString
$LN189@LoadString:
  00169	c6 45 d7 ea	 mov	 BYTE PTR __k$[ebp+3], -22 ; ffffffeaH
  0016d	eb 10		 jmp	 SHORT $LN97@LoadString
$LN190@LoadString:
  0016f	c6 45 d6 eb	 mov	 BYTE PTR __k$[ebp+2], -21 ; ffffffebH
  00173	eb 0a		 jmp	 SHORT $LN97@LoadString
$LN191@LoadString:
  00175	c6 45 d5 ec	 mov	 BYTE PTR __k$[ebp+1], -20 ; ffffffecH
  00179	eb 04		 jmp	 SHORT $LN97@LoadString
$LN192@LoadString:
  0017b	c6 45 d4 ed	 mov	 BYTE PTR __k$[ebp], -19	; ffffffedH
$LN97@LoadString:
  0017f	56		 push	 esi
  00180	6a 03		 push	 3
  00182	8d 45 d4	 lea	 eax, DWORD PTR __k$[ebp]
  00185	88 4d e0	 mov	 BYTE PTR __k$[ebp+12], cl
  00188	5e		 pop	 esi
  00189	bb ed ec eb ea	 mov	 ebx, -353637139		; eaebecedH
$LL200@LoadString:
  0018e	31 18		 xor	 DWORD PTR [eax], ebx
  00190	83 c0 04	 add	 eax, 4
  00193	4e		 dec	 esi
  00194	75 f8		 jne	 SHORT $LL200@LoadString

; 154  : 		_ENCSTR(d, _d);

  00196	8a 02		 mov	 al, BYTE PTR [edx]
  00198	5e		 pop	 esi
  00199	3a c1		 cmp	 al, cl
  0019b	0f 84 3f 01 00
	00		 je	 $LN96@LoadString
  001a1	34 ed		 xor	 al, -19			; ffffffedH
  001a3	88 45 e8	 mov	 BYTE PTR __d$[ebp], al
  001a6	8a 42 01	 mov	 al, BYTE PTR [edx+1]
  001a9	3a c1		 cmp	 al, cl
  001ab	0f 84 29 01 00
	00		 je	 $LN95@LoadString
  001b1	34 ec		 xor	 al, -20			; ffffffecH
  001b3	88 45 e9	 mov	 BYTE PTR __d$[ebp+1], al
  001b6	8a 42 02	 mov	 al, BYTE PTR [edx+2]
  001b9	3a c1		 cmp	 al, cl
  001bb	0f 84 13 01 00
	00		 je	 $LN94@LoadString
  001c1	34 eb		 xor	 al, -21			; ffffffebH
  001c3	88 45 ea	 mov	 BYTE PTR __d$[ebp+2], al
  001c6	8a 42 03	 mov	 al, BYTE PTR [edx+3]
  001c9	3a c1		 cmp	 al, cl
  001cb	0f 84 fd 00 00
	00		 je	 $LN93@LoadString
  001d1	34 ea		 xor	 al, -22			; ffffffeaH
  001d3	88 45 eb	 mov	 BYTE PTR __d$[ebp+3], al
  001d6	8a 42 04	 mov	 al, BYTE PTR [edx+4]
  001d9	3a c1		 cmp	 al, cl
  001db	0f 84 e7 00 00
	00		 je	 $LN92@LoadString
  001e1	34 ed		 xor	 al, -19			; ffffffedH
  001e3	88 45 ec	 mov	 BYTE PTR __d$[ebp+4], al
  001e6	8a 42 05	 mov	 al, BYTE PTR [edx+5]
  001e9	3a c1		 cmp	 al, cl
  001eb	0f 84 d1 00 00
	00		 je	 $LN91@LoadString
  001f1	34 ec		 xor	 al, -20			; ffffffecH
  001f3	88 45 ed	 mov	 BYTE PTR __d$[ebp+5], al
  001f6	8a 42 06	 mov	 al, BYTE PTR [edx+6]
  001f9	3a c1		 cmp	 al, cl
  001fb	0f 84 bb 00 00
	00		 je	 $LN90@LoadString
  00201	34 eb		 xor	 al, -21			; ffffffebH
  00203	88 45 ee	 mov	 BYTE PTR __d$[ebp+6], al
  00206	8a 42 07	 mov	 al, BYTE PTR [edx+7]
  00209	3a c1		 cmp	 al, cl
  0020b	0f 84 a5 00 00
	00		 je	 $LN89@LoadString
  00211	34 ea		 xor	 al, -22			; ffffffeaH
  00213	88 45 ef	 mov	 BYTE PTR __d$[ebp+7], al
  00216	8a 42 08	 mov	 al, BYTE PTR [edx+8]
  00219	3a c1		 cmp	 al, cl
  0021b	0f 84 8f 00 00
	00		 je	 $LN88@LoadString
  00221	34 ed		 xor	 al, -19			; ffffffedH
  00223	88 45 f0	 mov	 BYTE PTR __d$[ebp+8], al
  00226	8a 42 09	 mov	 al, BYTE PTR [edx+9]
  00229	3a c1		 cmp	 al, cl
  0022b	74 7d		 je	 SHORT $LN87@LoadString
  0022d	34 ec		 xor	 al, -20			; ffffffecH
  0022f	88 45 f1	 mov	 BYTE PTR __d$[ebp+9], al
  00232	8a 42 0a	 mov	 al, BYTE PTR [edx+10]
  00235	3a c1		 cmp	 al, cl
  00237	74 6b		 je	 SHORT $LN86@LoadString
  00239	34 eb		 xor	 al, -21			; ffffffebH
  0023b	88 45 f2	 mov	 BYTE PTR __d$[ebp+10], al
  0023e	8a 42 0b	 mov	 al, BYTE PTR [edx+11]
  00241	3a c1		 cmp	 al, cl
  00243	74 59		 je	 SHORT $LN85@LoadString
  00245	34 ea		 xor	 al, -22			; ffffffeaH
  00247	88 45 f3	 mov	 BYTE PTR __d$[ebp+11], al
  0024a	38 4a 0c	 cmp	 BYTE PTR [edx+12], cl
  0024d	0f 84 91 00 00
	00		 je	 $LN1@LoadString
  00253	8a 42 0d	 mov	 al, BYTE PTR [edx+13]
  00256	3a c1		 cmp	 al, cl
  00258	74 3e		 je	 SHORT $LN83@LoadString
  0025a	34 ec		 xor	 al, -20			; ffffffecH
  0025c	88 45 f5	 mov	 BYTE PTR __d$[ebp+13], al
  0025f	8a 42 0e	 mov	 al, BYTE PTR [edx+14]
  00262	3a c1		 cmp	 al, cl
  00264	74 2c		 je	 SHORT $LN82@LoadString
  00266	34 eb		 xor	 al, -21			; ffffffebH
  00268	88 45 f6	 mov	 BYTE PTR __d$[ebp+14], al
  0026b	8a 42 0f	 mov	 al, BYTE PTR [edx+15]
  0026e	3a c1		 cmp	 al, cl
  00270	74 1a		 je	 SHORT $LN81@LoadString
  00272	8a 52 10	 mov	 dl, BYTE PTR [edx+16]
  00275	34 ea		 xor	 al, -22			; ffffffeaH
  00277	88 45 f7	 mov	 BYTE PTR __d$[ebp+15], al
  0027a	3a d1		 cmp	 dl, cl
  0027c	74 08		 je	 SHORT $LN80@LoadString
  0027e	80 f2 ed	 xor	 dl, -19			; ffffffedH
  00281	88 55 f8	 mov	 BYTE PTR __d$[ebp+16], dl
  00284	eb 5e		 jmp	 SHORT $LN1@LoadString
$LN80@LoadString:
  00286	c6 45 f8 ed	 mov	 BYTE PTR __d$[ebp+16], -19 ; ffffffedH
  0028a	eb 58		 jmp	 SHORT $LN1@LoadString
$LN81@LoadString:
  0028c	c6 45 f7 ea	 mov	 BYTE PTR __d$[ebp+15], -22 ; ffffffeaH
  00290	eb 52		 jmp	 SHORT $LN1@LoadString
$LN82@LoadString:
  00292	c6 45 f6 eb	 mov	 BYTE PTR __d$[ebp+14], -21 ; ffffffebH
  00296	eb 4c		 jmp	 SHORT $LN1@LoadString
$LN83@LoadString:
  00298	c6 45 f5 ec	 mov	 BYTE PTR __d$[ebp+13], -20 ; ffffffecH
  0029c	eb 46		 jmp	 SHORT $LN1@LoadString
$LN85@LoadString:
  0029e	c6 45 f3 ea	 mov	 BYTE PTR __d$[ebp+11], -22 ; ffffffeaH
  002a2	eb 40		 jmp	 SHORT $LN1@LoadString
$LN86@LoadString:
  002a4	c6 45 f2 eb	 mov	 BYTE PTR __d$[ebp+10], -21 ; ffffffebH
  002a8	eb 3a		 jmp	 SHORT $LN1@LoadString
$LN87@LoadString:
  002aa	c6 45 f1 ec	 mov	 BYTE PTR __d$[ebp+9], -20 ; ffffffecH
  002ae	eb 34		 jmp	 SHORT $LN1@LoadString
$LN88@LoadString:
  002b0	c6 45 f0 ed	 mov	 BYTE PTR __d$[ebp+8], -19 ; ffffffedH
  002b4	eb 2e		 jmp	 SHORT $LN1@LoadString
$LN89@LoadString:
  002b6	c6 45 ef ea	 mov	 BYTE PTR __d$[ebp+7], -22 ; ffffffeaH
  002ba	eb 28		 jmp	 SHORT $LN1@LoadString
$LN90@LoadString:
  002bc	c6 45 ee eb	 mov	 BYTE PTR __d$[ebp+6], -21 ; ffffffebH
  002c0	eb 22		 jmp	 SHORT $LN1@LoadString
$LN91@LoadString:
  002c2	c6 45 ed ec	 mov	 BYTE PTR __d$[ebp+5], -20 ; ffffffecH
  002c6	eb 1c		 jmp	 SHORT $LN1@LoadString
$LN92@LoadString:
  002c8	c6 45 ec ed	 mov	 BYTE PTR __d$[ebp+4], -19 ; ffffffedH
  002cc	eb 16		 jmp	 SHORT $LN1@LoadString
$LN93@LoadString:
  002ce	c6 45 eb ea	 mov	 BYTE PTR __d$[ebp+3], -22 ; ffffffeaH
  002d2	eb 10		 jmp	 SHORT $LN1@LoadString
$LN94@LoadString:
  002d4	c6 45 ea eb	 mov	 BYTE PTR __d$[ebp+2], -21 ; ffffffebH
  002d8	eb 0a		 jmp	 SHORT $LN1@LoadString
$LN95@LoadString:
  002da	c6 45 e9 ec	 mov	 BYTE PTR __d$[ebp+1], -20 ; ffffffecH
  002de	eb 04		 jmp	 SHORT $LN1@LoadString
$LN96@LoadString:
  002e0	c6 45 e8 ed	 mov	 BYTE PTR __d$[ebp], -19	; ffffffedH
$LN1@LoadString:
  002e4	6a 03		 push	 3
  002e6	8d 45 e8	 lea	 eax, DWORD PTR __d$[ebp]
  002e9	88 4d f4	 mov	 BYTE PTR __d$[ebp+12], cl
  002ec	5a		 pop	 edx
$LL208@LoadString:
  002ed	31 18		 xor	 DWORD PTR [eax], ebx
  002ef	83 c0 04	 add	 eax, 4
  002f2	4a		 dec	 edx
  002f3	75 f8		 jne	 SHORT $LL208@LoadString

; 155  : 		LoadString(_k, _d, b, i);

  002f5	ff 75 14	 push	 DWORD PTR _i$[ebp]
  002f8	8b 4d d0	 mov	 ecx, DWORD PTR _this$GSCopy$[ebp]
  002fb	57		 push	 edi
  002fc	8d 45 e8	 lea	 eax, DWORD PTR __d$[ebp]
  002ff	50		 push	 eax
  00300	8d 45 d4	 lea	 eax, DWORD PTR __k$[ebp]
  00303	50		 push	 eax
  00304	ff 15 00 00 00
	00		 call	 DWORD PTR __imp_?LoadStringA@ioINILoader@@QAEXPBD0PADH@Z

; 156  : 	}

  0030a	8b 4d fc	 mov	 ecx, DWORD PTR __$ArrayPad$[ebp]
  0030d	5f		 pop	 edi
  0030e	33 cd		 xor	 ecx, ebp
  00310	5b		 pop	 ebx
  00311	e8 00 00 00 00	 call	 @__security_check_cookie@4
  00316	c9		 leave
  00317	c2 10 00	 ret	 16			; 00000010H
??$LoadString_e@$0N@$0N@@ioINILoader@@QAEXAAY0N@$$CBD0PADH@Z ENDP ; ioINILoader::LoadString_e<13,13>
_TEXT	ENDS
PUBLIC	__$ArrayPad$
PUBLIC	??$LoadFloat_e@$08@ioINILoader@@QAEMAAY08$$CBDM@Z ; ioINILoader::LoadFloat_e<9>
; Function compile flags: /Ogsp
;	COMDAT ??$LoadFloat_e@$08@ioINILoader@@QAEMAAY08$$CBDM@Z
_TEXT	SEGMENT
__k$ = -20						; size = 9
__$ArrayPad$ = -4					; size = 4
_k$ = 8							; size = 4
_f$ = 12						; size = 4
??$LoadFloat_e@$08@ioINILoader@@QAEMAAY08$$CBDM@Z PROC	; ioINILoader::LoadFloat_e<9>, COMDAT
; _this$ = ecx

; 135  : 	{

  00000	55		 push	 ebp
  00001	8b ec		 mov	 ebp, esp
  00003	83 ec 14	 sub	 esp, 20			; 00000014H
  00006	a1 00 00 00 00	 mov	 eax, DWORD PTR ___security_cookie
  0000b	33 c5		 xor	 eax, ebp
  0000d	89 45 fc	 mov	 DWORD PTR __$ArrayPad$[ebp], eax
  00010	8b 45 08	 mov	 eax, DWORD PTR _k$[ebp]

; 136  : 		_ENCSTR(k, _k);

  00013	8a 10		 mov	 dl, BYTE PTR [eax]
  00015	84 d2		 test	 dl, dl
  00017	0f 84 ee 00 00
	00		 je	 $LN96@LoadFloat_@4
  0001d	80 f2 ed	 xor	 dl, -19			; ffffffedH
  00020	88 55 ec	 mov	 BYTE PTR __k$[ebp], dl
  00023	8a 50 01	 mov	 dl, BYTE PTR [eax+1]
  00026	84 d2		 test	 dl, dl
  00028	0f 84 d7 00 00
	00		 je	 $LN95@LoadFloat_@4
  0002e	80 f2 ec	 xor	 dl, -20			; ffffffecH
  00031	88 55 ed	 mov	 BYTE PTR __k$[ebp+1], dl
  00034	8a 50 02	 mov	 dl, BYTE PTR [eax+2]
  00037	84 d2		 test	 dl, dl
  00039	0f 84 c0 00 00
	00		 je	 $LN94@LoadFloat_@4
  0003f	80 f2 eb	 xor	 dl, -21			; ffffffebH
  00042	88 55 ee	 mov	 BYTE PTR __k$[ebp+2], dl
  00045	8a 50 03	 mov	 dl, BYTE PTR [eax+3]
  00048	84 d2		 test	 dl, dl
  0004a	0f 84 a9 00 00
	00		 je	 $LN93@LoadFloat_@4
  00050	80 f2 ea	 xor	 dl, -22			; ffffffeaH
  00053	88 55 ef	 mov	 BYTE PTR __k$[ebp+3], dl
  00056	8a 50 04	 mov	 dl, BYTE PTR [eax+4]
  00059	84 d2		 test	 dl, dl
  0005b	0f 84 92 00 00
	00		 je	 $LN92@LoadFloat_@4
  00061	80 f2 ed	 xor	 dl, -19			; ffffffedH
  00064	88 55 f0	 mov	 BYTE PTR __k$[ebp+4], dl
  00067	8a 50 05	 mov	 dl, BYTE PTR [eax+5]
  0006a	84 d2		 test	 dl, dl
  0006c	74 7f		 je	 SHORT $LN91@LoadFloat_@4
  0006e	80 f2 ec	 xor	 dl, -20			; ffffffecH
  00071	88 55 f1	 mov	 BYTE PTR __k$[ebp+5], dl
  00074	8a 50 06	 mov	 dl, BYTE PTR [eax+6]
  00077	84 d2		 test	 dl, dl
  00079	74 6c		 je	 SHORT $LN90@LoadFloat_@4
  0007b	80 f2 eb	 xor	 dl, -21			; ffffffebH
  0007e	88 55 f2	 mov	 BYTE PTR __k$[ebp+6], dl
  00081	8a 50 07	 mov	 dl, BYTE PTR [eax+7]
  00084	84 d2		 test	 dl, dl
  00086	74 59		 je	 SHORT $LN89@LoadFloat_@4
  00088	80 f2 ea	 xor	 dl, -22			; ffffffeaH
  0008b	80 78 08 00	 cmp	 BYTE PTR [eax+8], 0
  0008f	88 55 f3	 mov	 BYTE PTR __k$[ebp+7], dl
  00092	74 7b		 je	 SHORT $LN1@LoadFloat_@4
  00094	8a 50 09	 mov	 dl, BYTE PTR [eax+9]
  00097	84 d2		 test	 dl, dl
  00099	74 40		 je	 SHORT $LN87@LoadFloat_@4
  0009b	80 f2 ec	 xor	 dl, -20			; ffffffecH
  0009e	88 55 f5	 mov	 BYTE PTR __k$[ebp+9], dl
  000a1	8a 50 0a	 mov	 dl, BYTE PTR [eax+10]
  000a4	84 d2		 test	 dl, dl
  000a6	74 2d		 je	 SHORT $LN86@LoadFloat_@4
  000a8	80 f2 eb	 xor	 dl, -21			; ffffffebH
  000ab	88 55 f6	 mov	 BYTE PTR __k$[ebp+10], dl
  000ae	8a 50 0b	 mov	 dl, BYTE PTR [eax+11]
  000b1	84 d2		 test	 dl, dl
  000b3	74 1a		 je	 SHORT $LN85@LoadFloat_@4
  000b5	8a 40 0c	 mov	 al, BYTE PTR [eax+12]
  000b8	80 f2 ea	 xor	 dl, -22			; ffffffeaH
  000bb	88 55 f7	 mov	 BYTE PTR __k$[ebp+11], dl
  000be	84 c0		 test	 al, al
  000c0	74 07		 je	 SHORT $LN84@LoadFloat_@4
  000c2	34 ed		 xor	 al, -19			; ffffffedH
  000c4	88 45 f8	 mov	 BYTE PTR __k$[ebp+12], al
  000c7	eb 46		 jmp	 SHORT $LN1@LoadFloat_@4
$LN84@LoadFloat_@4:
  000c9	c6 45 f8 ed	 mov	 BYTE PTR __k$[ebp+12], -19 ; ffffffedH
  000cd	eb 40		 jmp	 SHORT $LN1@LoadFloat_@4
$LN85@LoadFloat_@4:
  000cf	c6 45 f7 ea	 mov	 BYTE PTR __k$[ebp+11], -22 ; ffffffeaH
  000d3	eb 3a		 jmp	 SHORT $LN1@LoadFloat_@4
$LN86@LoadFloat_@4:
  000d5	c6 45 f6 eb	 mov	 BYTE PTR __k$[ebp+10], -21 ; ffffffebH
  000d9	eb 34		 jmp	 SHORT $LN1@LoadFloat_@4
$LN87@LoadFloat_@4:
  000db	c6 45 f5 ec	 mov	 BYTE PTR __k$[ebp+9], -20 ; ffffffecH
  000df	eb 2e		 jmp	 SHORT $LN1@LoadFloat_@4
$LN89@LoadFloat_@4:
  000e1	c6 45 f3 ea	 mov	 BYTE PTR __k$[ebp+7], -22 ; ffffffeaH
  000e5	eb 28		 jmp	 SHORT $LN1@LoadFloat_@4
$LN90@LoadFloat_@4:
  000e7	c6 45 f2 eb	 mov	 BYTE PTR __k$[ebp+6], -21 ; ffffffebH
  000eb	eb 22		 jmp	 SHORT $LN1@LoadFloat_@4
$LN91@LoadFloat_@4:
  000ed	c6 45 f1 ec	 mov	 BYTE PTR __k$[ebp+5], -20 ; ffffffecH
  000f1	eb 1c		 jmp	 SHORT $LN1@LoadFloat_@4
$LN92@LoadFloat_@4:
  000f3	c6 45 f0 ed	 mov	 BYTE PTR __k$[ebp+4], -19 ; ffffffedH
  000f7	eb 16		 jmp	 SHORT $LN1@LoadFloat_@4
$LN93@LoadFloat_@4:
  000f9	c6 45 ef ea	 mov	 BYTE PTR __k$[ebp+3], -22 ; ffffffeaH
  000fd	eb 10		 jmp	 SHORT $LN1@LoadFloat_@4
$LN94@LoadFloat_@4:
  000ff	c6 45 ee eb	 mov	 BYTE PTR __k$[ebp+2], -21 ; ffffffebH
  00103	eb 0a		 jmp	 SHORT $LN1@LoadFloat_@4
$LN95@LoadFloat_@4:
  00105	c6 45 ed ec	 mov	 BYTE PTR __k$[ebp+1], -20 ; ffffffecH
  00109	eb 04		 jmp	 SHORT $LN1@LoadFloat_@4
$LN96@LoadFloat_@4:
  0010b	c6 45 ec ed	 mov	 BYTE PTR __k$[ebp], -19	; ffffffedH
$LN1@LoadFloat_@4:
  0010f	6a 02		 push	 2
  00111	8d 45 ec	 lea	 eax, DWORD PTR __k$[ebp]
  00114	c6 45 f4 00	 mov	 BYTE PTR __k$[ebp+8], 0
  00118	5a		 pop	 edx
$LL104@LoadFloat_@4:
  00119	81 30 ed ec eb
	ea		 xor	 DWORD PTR [eax], -353637139 ; eaebecedH
  0011f	83 c0 04	 add	 eax, 4
  00122	4a		 dec	 edx
  00123	75 f4		 jne	 SHORT $LL104@LoadFloat_@4

; 137  : 		return LoadFloat(_k, f);

  00125	f3 0f 10 45 0c	 movss	 xmm0, DWORD PTR _f$[ebp]
  0012a	51		 push	 ecx
  0012b	8d 45 ec	 lea	 eax, DWORD PTR __k$[ebp]
  0012e	f3 0f 11 04 24	 movss	 DWORD PTR [esp], xmm0
  00133	50		 push	 eax
  00134	ff 15 00 00 00
	00		 call	 DWORD PTR __imp_?LoadFloat@ioINILoader@@QAEMPBDM@Z

; 138  : 	}

  0013a	8b 4d fc	 mov	 ecx, DWORD PTR __$ArrayPad$[ebp]
  0013d	33 cd		 xor	 ecx, ebp
  0013f	e8 00 00 00 00	 call	 @__security_check_cookie@4
  00144	c9		 leave
  00145	c2 08 00	 ret	 8
??$LoadFloat_e@$08@ioINILoader@@QAEMAAY08$$CBDM@Z ENDP	; ioINILoader::LoadFloat_e<9>
_TEXT	ENDS
PUBLIC	??$_Cons_val@V?$allocator@VioHashString@@@std@@VioHashString@@V3@@std@@YAXAAV?$allocator@VioHashString@@@0@PAVioHashString@@$$QAV2@@Z ; std::_Cons_val<std::allocator<ioHashString>,ioHashString,ioHashString>
; Function compile flags: /Ogsp
; File c:\program files (x86)\microsoft visual studio 10.0\vc\include\xmemory
;	COMDAT ??$_Cons_val@V?$allocator@VioHashString@@@std@@VioHashString@@V3@@std@@YAXAAV?$allocator@VioHashString@@@0@PAVioHashString@@$$QAV2@@Z
_TEXT	SEGMENT
__Alval$ = 8						; size = 4
__Pdest$ = 12						; size = 4
__Src$ = 16						; size = 4
??$_Cons_val@V?$allocator@VioHashString@@@std@@VioHashString@@V3@@std@@YAXAAV?$allocator@VioHashString@@@0@PAVioHashString@@$$QAV2@@Z PROC ; std::_Cons_val<std::allocator<ioHashString>,ioHashString,ioHashString>, COMDAT

; 279  : 	{	// construct using allocator

  00000	55		 push	 ebp
  00001	8b ec		 mov	 ebp, esp

; 280  : 	_Alval.construct(_Pdest, _STD forward<_Ty2>(_Src));

  00003	ff 75 10	 push	 DWORD PTR __Src$[ebp]
  00006	8b 4d 08	 mov	 ecx, DWORD PTR __Alval$[ebp]
  00009	ff 75 0c	 push	 DWORD PTR __Pdest$[ebp]
  0000c	e8 00 00 00 00	 call	 ?construct@?$allocator@VioHashString@@@std@@QAEXPAVioHashString@@$$QAV3@@Z ; std::allocator<ioHashString>::construct

; 281  : 	}

  00011	5d		 pop	 ebp
  00012	c3		 ret	 0
??$_Cons_val@V?$allocator@VioHashString@@@std@@VioHashString@@V3@@std@@YAXAAV?$allocator@VioHashString@@@0@PAVioHashString@@$$QAV2@@Z ENDP ; std::_Cons_val<std::allocator<ioHashString>,ioHashString,ioHashString>
_TEXT	ENDS
PUBLIC	??$?0AAV?$_Tree_const_iterator@V?$_Tree_val@V?$_Tset_traits@PAVioSceneManager@@U?$less@PAVioSceneManager@@@std@@V?$allocator@PAVioSceneManager@@@3@$0A@@std@@@std@@@std@@AAV01@@?$pair@V?$_Tree_const_iterator@V?$_Tree_val@V?$_Tset_traits@PAVioSceneManager@@U?$less@PAVioSceneManager@@@std@@V?$allocator@PAVioSceneManager@@@3@$0A@@std@@@std@@@std@@V12@@std@@QAE@AAV?$_Tree_const_iterator@V?$_Tree_val@V?$_Tset_traits@PAVioSceneManager@@U?$less@PAVioSceneManager@@@std@@V?$allocator@PAVioSceneManager@@@3@$0A@@std@@@std@@@1@0@Z ; std::pair<std::_Tree_const_iterator<std::_Tree_val<std::_Tset_traits<ioSceneManager *,std::less<ioSceneManager *>,std::allocator<ioSceneManager *>,0> > >,std::_Tree_const_iterator<std::_Tree_val<std::_Tset_traits<ioSceneManager *,std::less<ioSceneManager *>,std::allocator<ioSceneManager *>,0> > > >::pair<std::_Tree_const_iterator<std::_Tree_val<std::_Tset_traits<ioSceneManager *,std::less<ioSceneManager *>,std::allocator<ioSceneManager *>,0> > >,std::_Tree_const_iterator<std::_Tree_val<std::_Tset_traits<ioSceneManager *,std::less<ioSceneManager *>,std::allocator<ioSceneManager *>,0> > > ><std::_Tree_const_iterator<std::_Tree_val<std::_Tset_traits<ioSceneManager *,std::less<ioSceneManager *>,std::allocator<ioSceneManager *>,0> > > &,std::_Tree_const_iterator<std::_Tree_val<std::_Tset_traits<ioSceneManager *,std::less<ioSceneManager *>,std::allocator<ioSceneManager *>,0> > > &>
; Function compile flags: /Ogsp
; File c:\program files (x86)\microsoft visual studio 10.0\vc\include\utility
;	COMDAT ??$?0AAV?$_Tree_const_iterator@V?$_Tree_val@V?$_Tset_traits@PAVioSceneManager@@U?$less@PAVioSceneManager@@@std@@V?$allocator@PAVioSceneManager@@@3@$0A@@std@@@std@@@std@@AAV01@@?$pair@V?$_Tree_const_iterator@V?$_Tree_val@V?$_Tset_traits@PAVioSceneManager@@U?$less@PAVioSceneManager@@@std@@V?$allocator@PAVioSceneManager@@@3@$0A@@std@@@std@@@std@@V12@@std@@QAE@AAV?$_Tree_const_iterator@V?$_Tree_val@V?$_Tset_traits@PAVioSceneManager@@U?$less@PAVioSceneManager@@@std@@V?$allocator@PAVioSceneManager@@@3@$0A@@std@@@std@@@1@0@Z
_TEXT	SEGMENT
__Val1$ = 8						; size = 4
__Val2$ = 12						; size = 4
??$?0AAV?$_Tree_const_iterator@V?$_Tree_val@V?$_Tset_traits@PAVioSceneManager@@U?$less@PAVioSceneManager@@@std@@V?$allocator@PAVioSceneManager@@@3@$0A@@std@@@std@@@std@@AAV01@@?$pair@V?$_Tree_const_iterator@V?$_Tree_val@V?$_Tset_traits@PAVioSceneManager@@U?$less@PAVioSceneManager@@@std@@V?$allocator@PAVioSceneManager@@@3@$0A@@std@@@std@@@std@@V12@@std@@QAE@AAV?$_Tree_const_iterator@V?$_Tree_val@V?$_Tset_traits@PAVioSceneManager@@U?$less@PAVioSceneManager@@@std@@V?$allocator@PAVioSceneManager@@@3@$0A@@std@@@std@@@1@0@Z PROC ; std::pair<std::_Tree_const_iterator<std::_Tree_val<std::_Tset_traits<ioSceneManager *,std::less<ioSceneManager *>,std::allocator<ioSceneManager *>,0> > >,std::_Tree_const_iterator<std::_Tree_val<std::_Tset_traits<ioSceneManager *,std::less<ioSceneManager *>,std::allocator<ioSceneManager *>,0> > > >::pair<std::_Tree_const_iterator<std::_Tree_val<std::_Tset_traits<ioSceneManager *,std::less<ioSceneManager *>,std::allocator<ioSceneManager *>,0> > >,std::_Tree_const_iterator<std::_Tree_val<std::_Tset_traits<ioSceneManager *,std::less<ioSceneManager *>,std::allocator<ioSceneManager *>,0> > > ><std::_Tree_const_iterator<std::_Tree_val<std::_Tset_traits<ioSceneManager *,std::less<ioSceneManager *>,std::allocator<ioSceneManager *>,0> > > &,std::_Tree_const_iterator<std::_Tree_val<std::_Tset_traits<ioSceneManager *,std::less<ioSceneManager *>,std::allocator<ioSceneManager *>,0> > > &>, COMDAT
; _this$ = ecx

; 247  : 		{	// construct from moved values

  00000	55		 push	 ebp
  00001	8b ec		 mov	 ebp, esp
  00003	8b c1		 mov	 eax, ecx
  00005	8b 4d 08	 mov	 ecx, DWORD PTR __Val1$[ebp]
  00008	8b 09		 mov	 ecx, DWORD PTR [ecx]
  0000a	89 08		 mov	 DWORD PTR [eax], ecx
  0000c	8b 4d 0c	 mov	 ecx, DWORD PTR __Val2$[ebp]
  0000f	8b 09		 mov	 ecx, DWORD PTR [ecx]
  00011	89 48 04	 mov	 DWORD PTR [eax+4], ecx

; 248  : 		}

  00014	5d		 pop	 ebp
  00015	c2 08 00	 ret	 8
??$?0AAV?$_Tree_const_iterator@V?$_Tree_val@V?$_Tset_traits@PAVioSceneManager@@U?$less@PAVioSceneManager@@@std@@V?$allocator@PAVioSceneManager@@@3@$0A@@std@@@std@@@std@@AAV01@@?$pair@V?$_Tree_const_iterator@V?$_Tree_val@V?$_Tset_traits@PAVioSceneManager@@U?$less@PAVioSceneManager@@@std@@V?$allocator@PAVioSceneManager@@@3@$0A@@std@@@std@@@std@@V12@@std@@QAE@AAV?$_Tree_const_iterator@V?$_Tree_val@V?$_Tset_traits@PAVioSceneManager@@U?$less@PAVioSceneManager@@@std@@V?$allocator@PAVioSceneManager@@@3@$0A@@std@@@std@@@1@0@Z ENDP ; std::pair<std::_Tree_const_iterator<std::_Tree_val<std::_Tset_traits<ioSceneManager *,std::less<ioSceneManager *>,std::allocator<ioSceneManager *>,0> > >,std::_Tree_const_iterator<std::_Tree_val<std::_Tset_traits<ioSceneManager *,std::less<ioSceneManager *>,std::allocator<ioSceneManager *>,0> > > >::pair<std::_Tree_const_iterator<std::_Tree_val<std::_Tset_traits<ioSceneManager *,std::less<ioSceneManager *>,std::allocator<ioSceneManager *>,0> > >,std::_Tree_const_iterator<std::_Tree_val<std::_Tset_traits<ioSceneManager *,std::less<ioSceneManager *>,std::allocator<ioSceneManager *>,0> > > ><std::_Tree_const_iterator<std::_Tree_val<std::_Tset_traits<ioSceneManager *,std::less<ioSceneManager *>,std::allocator<ioSceneManager *>,0> > > &,std::_Tree_const_iterator<std::_Tree_val<std::_Tset_traits<ioSceneManager *,std::less<ioSceneManager *>,std::allocator<ioSceneManager *>,0> > > &>
_TEXT	ENDS
PUBLIC	?construct@?$allocator@PAVioEffect@@@std@@QAEXPAPAVioEffect@@ABQAV3@@Z ; std::allocator<ioEffect *>::construct
; Function compile flags: /Ogsp
; File c:\program files (x86)\microsoft visual studio 10.0\vc\include\xmemory
;	COMDAT ?construct@?$allocator@PAVioEffect@@@std@@QAEXPAPAVioEffect@@ABQAV3@@Z
_TEXT	SEGMENT
__Ptr$ = 8						; size = 4
__Val$ = 12						; size = 4
?construct@?$allocator@PAVioEffect@@@std@@QAEXPAPAVioEffect@@ABQAV3@@Z PROC ; std::allocator<ioEffect *>::construct, COMDAT
; _this$ = ecx

; 196  : 		{	// construct object at _Ptr with value _Val

  00000	55		 push	 ebp
  00001	8b ec		 mov	 ebp, esp

; 197  : 		_Construct(_Ptr, _Val);

  00003	8b 45 08	 mov	 eax, DWORD PTR __Ptr$[ebp]
  00006	85 c0		 test	 eax, eax
  00008	74 07		 je	 SHORT $LN5@construct@3
  0000a	8b 4d 0c	 mov	 ecx, DWORD PTR __Val$[ebp]
  0000d	8b 09		 mov	 ecx, DWORD PTR [ecx]
  0000f	89 08		 mov	 DWORD PTR [eax], ecx
$LN5@construct@3:

; 198  : 		}

  00011	5d		 pop	 ebp
  00012	c2 08 00	 ret	 8
?construct@?$allocator@PAVioEffect@@@std@@QAEXPAPAVioEffect@@ABQAV3@@Z ENDP ; std::allocator<ioEffect *>::construct
_TEXT	ENDS
PUBLIC	?destroy@?$allocator@U_Node@?$_List_nod@PAVioEffect@@V?$allocator@PAVioEffect@@@std@@@std@@@std@@QAEXPAU_Node@?$_List_nod@PAVioEffect@@V?$allocator@PAVioEffect@@@std@@@2@@Z ; std::allocator<std::_List_nod<ioEffect *,std::allocator<ioEffect *> >::_Node>::destroy
; Function compile flags: /Ogsp
;	COMDAT ?destroy@?$allocator@U_Node@?$_List_nod@PAVioEffect@@V?$allocator@PAVioEffect@@@std@@@std@@@std@@QAEXPAU_Node@?$_List_nod@PAVioEffect@@V?$allocator@PAVioEffect@@@std@@@2@@Z
_TEXT	SEGMENT
__Ptr$ = 8						; size = 4
?destroy@?$allocator@U_Node@?$_List_nod@PAVioEffect@@V?$allocator@PAVioEffect@@@std@@@std@@@std@@QAEXPAU_Node@?$_List_nod@PAVioEffect@@V?$allocator@PAVioEffect@@@std@@@2@@Z PROC ; std::allocator<std::_List_nod<ioEffect *,std::allocator<ioEffect *> >::_Node>::destroy, COMDAT
; _this$ = ecx

; 213  : 		_Destroy(_Ptr);
; 214  : 		}

  00000	c2 04 00	 ret	 4
?destroy@?$allocator@U_Node@?$_List_nod@PAVioEffect@@V?$allocator@PAVioEffect@@@std@@@std@@@std@@QAEXPAU_Node@?$_List_nod@PAVioEffect@@V?$allocator@PAVioEffect@@@std@@@2@@Z ENDP ; std::allocator<std::_List_nod<ioEffect *,std::allocator<ioEffect *> >::_Node>::destroy
_TEXT	ENDS
PUBLIC	?destroy@?$allocator@PAVioSceneManager@@@std@@QAEXPAPAVioSceneManager@@@Z ; std::allocator<ioSceneManager *>::destroy
; Function compile flags: /Ogsp
;	COMDAT ?destroy@?$allocator@PAVioSceneManager@@@std@@QAEXPAPAVioSceneManager@@@Z
_TEXT	SEGMENT
__Ptr$ = 8						; size = 4
?destroy@?$allocator@PAVioSceneManager@@@std@@QAEXPAPAVioSceneManager@@@Z PROC ; std::allocator<ioSceneManager *>::destroy, COMDAT
; _this$ = ecx

; 213  : 		_Destroy(_Ptr);
; 214  : 		}

  00000	c2 04 00	 ret	 4
?destroy@?$allocator@PAVioSceneManager@@@std@@QAEXPAPAVioSceneManager@@@Z ENDP ; std::allocator<ioSceneManager *>::destroy
_TEXT	ENDS
PUBLIC	??F?$_Tree_const_iterator@V?$_Tree_val@V?$_Tset_traits@PAVioSceneManager@@U?$less@PAVioSceneManager@@@std@@V?$allocator@PAVioSceneManager@@@3@$0A@@std@@@std@@@std@@QAEAAV01@XZ ; std::_Tree_const_iterator<std::_Tree_val<std::_Tset_traits<ioSceneManager *,std::less<ioSceneManager *>,std::allocator<ioSceneManager *>,0> > >::operator--
; Function compile flags: /Ogsp
; File c:\program files (x86)\microsoft visual studio 10.0\vc\include\xtree
;	COMDAT ??F?$_Tree_const_iterator@V?$_Tree_val@V?$_Tset_traits@PAVioSceneManager@@U?$less@PAVioSceneManager@@@std@@V?$allocator@PAVioSceneManager@@@3@$0A@@std@@@std@@@std@@QAEAAV01@XZ
_TEXT	SEGMENT
??F?$_Tree_const_iterator@V?$_Tree_val@V?$_Tset_traits@PAVioSceneManager@@U?$less@PAVioSceneManager@@@std@@V?$allocator@PAVioSceneManager@@@3@$0A@@std@@@std@@@std@@QAEAAV01@XZ PROC ; std::_Tree_const_iterator<std::_Tree_val<std::_Tset_traits<ioSceneManager *,std::less<ioSceneManager *>,std::allocator<ioSceneManager *>,0> > >::operator--, COMDAT
; _this$ = ecx

; 277  : 		{	// predecrement

  00000	56		 push	 esi
  00001	8b f1		 mov	 esi, ecx

; 278  :  #if _ITERATOR_DEBUG_LEVEL == 2
; 279  : 		if (this->_Getcont() == 0
; 280  : 			|| this->_Ptr == 0)
; 281  : 			{	// report error
; 282  : 			_DEBUG_ERROR("map/set iterator not decrementable");
; 283  : 			_SCL_SECURE_OUT_OF_RANGE;
; 284  : 			}
; 285  : 
; 286  : 		_Nodeptr _Ptrsav = this->_Ptr;
; 287  : 		--(*(_Mybase *)this);
; 288  : 		if (_Ptrsav == this->_Ptr)
; 289  : 			{	// report error
; 290  : 			_DEBUG_ERROR("map/set iterator not decrementable");
; 291  : 			_SCL_SECURE_OUT_OF_RANGE;
; 292  : 			}
; 293  : 
; 294  :  #elif _ITERATOR_DEBUG_LEVEL == 1
; 295  : 		_SCL_SECURE_VALIDATE(this->_Getcont() != 0 && this->_Ptr != 0);
; 296  : 
; 297  : 		_Nodeptr _Ptrsav = this->_Ptr;
; 298  : 		--(*(_Mybase *)this);
; 299  : 		_SCL_SECURE_VALIDATE(_Ptrsav != this->_Ptr);
; 300  : 
; 301  :  #else /* _ITERATOR_DEBUG_LEVEL == 0 */
; 302  : 		--(*(_Mybase *)this);

  00003	e8 00 00 00 00	 call	 ??F?$_Tree_unchecked_const_iterator@V?$_Tree_val@V?$_Tset_traits@PAVioSceneManager@@U?$less@PAVioSceneManager@@@std@@V?$allocator@PAVioSceneManager@@@3@$0A@@std@@@std@@U_Iterator_base0@2@@std@@QAEAAV01@XZ ; std::_Tree_unchecked_const_iterator<std::_Tree_val<std::_Tset_traits<ioSceneManager *,std::less<ioSceneManager *>,std::allocator<ioSceneManager *>,0> >,std::_Iterator_base0>::operator--

; 303  :  #endif /* _ITERATOR_DEBUG_LEVEL */
; 304  : 
; 305  : 		return (*this);

  00008	8b c6		 mov	 eax, esi
  0000a	5e		 pop	 esi

; 306  : 		}

  0000b	c3		 ret	 0
??F?$_Tree_const_iterator@V?$_Tree_val@V?$_Tset_traits@PAVioSceneManager@@U?$less@PAVioSceneManager@@@std@@V?$allocator@PAVioSceneManager@@@3@$0A@@std@@@std@@@std@@QAEAAV01@XZ ENDP ; std::_Tree_const_iterator<std::_Tree_val<std::_Tset_traits<ioSceneManager *,std::less<ioSceneManager *>,std::allocator<ioSceneManager *>,0> > >::operator--
_TEXT	ENDS
PUBLIC	?max_size@?$_Tree@V?$_Tset_traits@PAVioSceneManager@@U?$less@PAVioSceneManager@@@std@@V?$allocator@PAVioSceneManager@@@3@$0A@@std@@@std@@QBEIXZ ; std::_Tree<std::_Tset_traits<ioSceneManager *,std::less<ioSceneManager *>,std::allocator<ioSceneManager *>,0> >::max_size
; Function compile flags: /Ogsp
;	COMDAT ?max_size@?$_Tree@V?$_Tset_traits@PAVioSceneManager@@U?$less@PAVioSceneManager@@@std@@V?$allocator@PAVioSceneManager@@@3@$0A@@std@@@std@@QBEIXZ
_TEXT	SEGMENT
?max_size@?$_Tree@V?$_Tset_traits@PAVioSceneManager@@U?$less@PAVioSceneManager@@@std@@V?$allocator@PAVioSceneManager@@@3@$0A@@std@@@std@@QBEIXZ PROC ; std::_Tree<std::_Tset_traits<ioSceneManager *,std::less<ioSceneManager *>,std::allocator<ioSceneManager *>,0> >::max_size, COMDAT
; _this$ = ecx

; 874  : 		return (this->_Alval.max_size());

  00000	b8 ff ff ff 3f	 mov	 eax, 1073741823		; 3fffffffH

; 875  : 		}

  00005	c3		 ret	 0
?max_size@?$_Tree@V?$_Tset_traits@PAVioSceneManager@@U?$less@PAVioSceneManager@@@std@@V?$allocator@PAVioSceneManager@@@3@$0A@@std@@@std@@QBEIXZ ENDP ; std::_Tree<std::_Tset_traits<ioSceneManager *,std::less<ioSceneManager *>,std::allocator<ioSceneManager *>,0> >::max_size
_TEXT	ENDS
PUBLIC	??0?$_Pair_base@V?$_Tree_const_iterator@V?$_Tree_val@V?$_Tset_traits@PAVioSceneManager@@U?$less@PAVioSceneManager@@@std@@V?$allocator@PAVioSceneManager@@@3@$0A@@std@@@std@@@std@@_N@std@@QAE@$$QAV?$_Tree_const_iterator@V?$_Tree_val@V?$_Tset_traits@PAVioSceneManager@@U?$less@PAVioSceneManager@@@std@@V?$allocator@PAVioSceneManager@@@3@$0A@@std@@@std@@@1@$$QA_N@Z ; std::_Pair_base<std::_Tree_const_iterator<std::_Tree_val<std::_Tset_traits<ioSceneManager *,std::less<ioSceneManager *>,std::allocator<ioSceneManager *>,0> > >,bool>::_Pair_base<std::_Tree_const_iterator<std::_Tree_val<std::_Tset_traits<ioSceneManager *,std::less<ioSceneManager *>,std::allocator<ioSceneManager *>,0> > >,bool>
; Function compile flags: /Ogsp
; File c:\program files (x86)\microsoft visual studio 10.0\vc\include\utility
;	COMDAT ??0?$_Pair_base@V?$_Tree_const_iterator@V?$_Tree_val@V?$_Tset_traits@PAVioSceneManager@@U?$less@PAVioSceneManager@@@std@@V?$allocator@PAVioSceneManager@@@3@$0A@@std@@@std@@@std@@_N@std@@QAE@$$QAV?$_Tree_const_iterator@V?$_Tree_val@V?$_Tset_traits@PAVioSceneManager@@U?$less@PAVioSceneManager@@@std@@V?$allocator@PAVioSceneManager@@@3@$0A@@std@@@std@@@1@$$QA_N@Z
_TEXT	SEGMENT
__Val1$ = 8						; size = 4
__Val2$ = 12						; size = 4
??0?$_Pair_base@V?$_Tree_const_iterator@V?$_Tree_val@V?$_Tset_traits@PAVioSceneManager@@U?$less@PAVioSceneManager@@@std@@V?$allocator@PAVioSceneManager@@@3@$0A@@std@@@std@@@std@@_N@std@@QAE@$$QAV?$_Tree_const_iterator@V?$_Tree_val@V?$_Tset_traits@PAVioSceneManager@@U?$less@PAVioSceneManager@@@std@@V?$allocator@PAVioSceneManager@@@3@$0A@@std@@@std@@@1@$$QA_N@Z PROC ; std::_Pair_base<std::_Tree_const_iterator<std::_Tree_val<std::_Tset_traits<ioSceneManager *,std::less<ioSceneManager *>,std::allocator<ioSceneManager *>,0> > >,bool>::_Pair_base<std::_Tree_const_iterator<std::_Tree_val<std::_Tset_traits<ioSceneManager *,std::less<ioSceneManager *>,std::allocator<ioSceneManager *>,0> > >,bool>, COMDAT
; _this$ = ecx

; 145  : 		{	// construct from specified values

  00000	55		 push	 ebp
  00001	8b ec		 mov	 ebp, esp
  00003	8b c1		 mov	 eax, ecx
  00005	8b 4d 08	 mov	 ecx, DWORD PTR __Val1$[ebp]
  00008	8b 09		 mov	 ecx, DWORD PTR [ecx]
  0000a	89 08		 mov	 DWORD PTR [eax], ecx
  0000c	8b 4d 0c	 mov	 ecx, DWORD PTR __Val2$[ebp]
  0000f	8a 09		 mov	 cl, BYTE PTR [ecx]
  00011	88 48 04	 mov	 BYTE PTR [eax+4], cl

; 146  : 		}

  00014	5d		 pop	 ebp
  00015	c2 08 00	 ret	 8
??0?$_Pair_base@V?$_Tree_const_iterator@V?$_Tree_val@V?$_Tset_traits@PAVioSceneManager@@U?$less@PAVioSceneManager@@@std@@V?$allocator@PAVioSceneManager@@@3@$0A@@std@@@std@@@std@@_N@std@@QAE@$$QAV?$_Tree_const_iterator@V?$_Tree_val@V?$_Tset_traits@PAVioSceneManager@@U?$less@PAVioSceneManager@@@std@@V?$allocator@PAVioSceneManager@@@3@$0A@@std@@@std@@@1@$$QA_N@Z ENDP ; std::_Pair_base<std::_Tree_const_iterator<std::_Tree_val<std::_Tset_traits<ioSceneManager *,std::less<ioSceneManager *>,std::allocator<ioSceneManager *>,0> > >,bool>::_Pair_base<std::_Tree_const_iterator<std::_Tree_val<std::_Tset_traits<ioSceneManager *,std::less<ioSceneManager *>,std::allocator<ioSceneManager *>,0> > >,bool>
_TEXT	ENDS
PUBLIC	??$construct@AAVioHashString@@@?$allocator@VioHashString@@@std@@QAEXPAVioHashString@@AAV2@@Z ; std::allocator<ioHashString>::construct<ioHashString &>
;	COMDAT xdata$x
xdata$x	SEGMENT
__unwindtable$??$construct@AAVioHashString@@@?$allocator@VioHashString@@@std@@QAEXPAVioHashString@@AAV2@@Z DD 0ffffffffH
	DD	FLAT:__unwindfunclet$??$construct@AAVioHashString@@@?$allocator@VioHashString@@@std@@QAEXPAVioHashString@@AAV2@@Z$0
__ehfuncinfo$??$construct@AAVioHashString@@@?$allocator@VioHashString@@@std@@QAEXPAVioHashString@@AAV2@@Z DD 019930522H
	DD	01H
	DD	FLAT:__unwindtable$??$construct@AAVioHashString@@@?$allocator@VioHashString@@@std@@QAEXPAVioHashString@@AAV2@@Z
	DD	2 DUP(00H)
	DD	2 DUP(00H)
	DD	00H
	DD	01H
; Function compile flags: /Ogsp
; File c:\program files (x86)\microsoft visual studio 10.0\vc\include\xmemory
xdata$x	ENDS
;	COMDAT ??$construct@AAVioHashString@@@?$allocator@VioHashString@@@std@@QAEXPAVioHashString@@AAV2@@Z
_TEXT	SEGMENT
$T512403 = -16						; size = 4
__$EHRec$ = -12						; size = 12
__Ptr$ = 8						; size = 4
__Val$ = 12						; size = 4
??$construct@AAVioHashString@@@?$allocator@VioHashString@@@std@@QAEXPAVioHashString@@AAV2@@Z PROC ; std::allocator<ioHashString>::construct<ioHashString &>, COMDAT
; _this$ = ecx

; 206  : 		void construct(pointer _Ptr, _Other&& _Val)

  00000	6a 04		 push	 4
  00002	b8 00 00 00 00	 mov	 eax, __ehhandler$??$construct@AAVioHashString@@@?$allocator@VioHashString@@@std@@QAEXPAVioHashString@@AAV2@@Z
  00007	e8 00 00 00 00	 call	 __EH_prolog3

; 207  : 		{	// construct object at _Ptr with value _Val
; 208  : 		::new ((void _FARQ *)_Ptr) _Ty(_STD forward<_Other>(_Val));

  0000c	8b 4d 08	 mov	 ecx, DWORD PTR __Ptr$[ebp]
  0000f	89 4d f0	 mov	 DWORD PTR $T512403[ebp], ecx
  00012	83 65 fc 00	 and	 DWORD PTR __$EHRec$[ebp+8], 0
  00016	85 c9		 test	 ecx, ecx
  00018	74 09		 je	 SHORT $LN3@construct@4
  0001a	ff 75 0c	 push	 DWORD PTR __Val$[ebp]
  0001d	ff 15 00 00 00
	00		 call	 DWORD PTR __imp_??0ioHashString@@QAE@ABV0@@Z
$LN3@construct@4:

; 209  : 		}

  00023	e8 00 00 00 00	 call	 __EH_epilog3
  00028	c2 08 00	 ret	 8
_TEXT	ENDS
;	COMDAT text$x
text$x	SEGMENT
__unwindfunclet$??$construct@AAVioHashString@@@?$allocator@VioHashString@@@std@@QAEXPAVioHashString@@AAV2@@Z$0:
  00000	ff 75 08	 push	 DWORD PTR __Ptr$[ebp]
  00003	ff 75 f0	 push	 DWORD PTR $T512403[ebp]
  00006	e8 00 00 00 00	 call	 ??3@YAXPAX0@Z		; operator delete
  0000b	59		 pop	 ecx
  0000c	59		 pop	 ecx
  0000d	c3		 ret	 0
__ehhandler$??$construct@AAVioHashString@@@?$allocator@VioHashString@@@std@@QAEXPAVioHashString@@AAV2@@Z:
  0000e	8b 54 24 08	 mov	 edx, DWORD PTR [esp+8]
  00012	8d 42 0c	 lea	 eax, DWORD PTR [edx+12]
  00015	8b 4a ec	 mov	 ecx, DWORD PTR [edx-20]
  00018	33 c8		 xor	 ecx, eax
  0001a	e8 00 00 00 00	 call	 @__security_check_cookie@4
  0001f	b8 00 00 00 00	 mov	 eax, OFFSET __ehfuncinfo$??$construct@AAVioHashString@@@?$allocator@VioHashString@@@std@@QAEXPAVioHashString@@AAV2@@Z
  00024	e9 00 00 00 00	 jmp	 ___CxxFrameHandler3
text$x	ENDS
??$construct@AAVioHashString@@@?$allocator@VioHashString@@@std@@QAEXPAVioHashString@@AAV2@@Z ENDP ; std::allocator<ioHashString>::construct<ioHashString &>
PUBLIC	?_Buynode@?$_Tree_val@V?$_Tset_traits@PAVioSceneManager@@U?$less@PAVioSceneManager@@@std@@V?$allocator@PAVioSceneManager@@@3@$0A@@std@@@std@@QAEPAU_Node@?$_Tree_nod@V?$_Tset_traits@PAVioSceneManager@@U?$less@PAVioSceneManager@@@std@@V?$allocator@PAVioSceneManager@@@3@$0A@@std@@@2@XZ ; std::_Tree_val<std::_Tset_traits<ioSceneManager *,std::less<ioSceneManager *>,std::allocator<ioSceneManager *>,0> >::_Buynode
; Function compile flags: /Ogsp
; File c:\program files (x86)\microsoft visual studio 10.0\vc\include\xtree
;	COMDAT ?_Buynode@?$_Tree_val@V?$_Tset_traits@PAVioSceneManager@@U?$less@PAVioSceneManager@@@std@@V?$allocator@PAVioSceneManager@@@3@$0A@@std@@@std@@QAEPAU_Node@?$_Tree_nod@V?$_Tset_traits@PAVioSceneManager@@U?$less@PAVioSceneManager@@@std@@V?$allocator@PAVioSceneManager@@@3@$0A@@std@@@2@XZ
_TEXT	SEGMENT
$T512449 = -16						; size = 12
$T512427 = -4						; size = 4
?_Buynode@?$_Tree_val@V?$_Tset_traits@PAVioSceneManager@@U?$less@PAVioSceneManager@@@std@@V?$allocator@PAVioSceneManager@@@3@$0A@@std@@@std@@QAEPAU_Node@?$_Tree_nod@V?$_Tset_traits@PAVioSceneManager@@U?$less@PAVioSceneManager@@@std@@V?$allocator@PAVioSceneManager@@@3@$0A@@std@@@2@XZ PROC ; std::_Tree_val<std::_Tset_traits<ioSceneManager *,std::less<ioSceneManager *>,std::allocator<ioSceneManager *>,0> >::_Buynode, COMDAT
; _this$ = ecx

; 559  : 		{	// allocate a node

  00000	55		 push	 ebp
  00001	8b ec		 mov	 ebp, esp
  00003	83 ec 10	 sub	 esp, 16			; 00000010H
  00006	56		 push	 esi

; 560  : 		_Nodeptr _Wherenode = this->_Alnod.allocate(1);

  00007	6a 14		 push	 20			; 00000014H
  00009	8b f1		 mov	 esi, ecx
  0000b	e8 00 00 00 00	 call	 ??2@YAPAXI@Z		; operator new
  00010	59		 pop	 ecx
  00011	33 c9		 xor	 ecx, ecx
  00013	3b c1		 cmp	 eax, ecx
  00015	74 18		 je	 SHORT $LN5@Buynode

; 561  : 
; 562  : 		this->_Left(_Wherenode) = this->_Myhead;

  00017	8b 56 04	 mov	 edx, DWORD PTR [esi+4]
  0001a	89 10		 mov	 DWORD PTR [eax], edx

; 563  : 		this->_Parent(_Wherenode) = this->_Myhead;

  0001c	8b 56 04	 mov	 edx, DWORD PTR [esi+4]
  0001f	89 50 04	 mov	 DWORD PTR [eax+4], edx

; 564  : 		this->_Right(_Wherenode) = this->_Myhead;

  00022	8b 56 04	 mov	 edx, DWORD PTR [esi+4]
  00025	89 50 08	 mov	 DWORD PTR [eax+8], edx

; 565  : 		this->_Color(_Wherenode) = this->_Red;

  00028	66 89 48 10	 mov	 WORD PTR [eax+16], cx
  0002c	5e		 pop	 esi

; 566  : 		this->_Isnil(_Wherenode) = false;
; 567  : 		return (_Wherenode);
; 568  : 		}

  0002d	c9		 leave
  0002e	c3		 ret	 0

; 560  : 		_Nodeptr _Wherenode = this->_Alnod.allocate(1);

$LN5@Buynode:
  0002f	8d 45 fc	 lea	 eax, DWORD PTR $T512427[ebp]
  00032	89 4d fc	 mov	 DWORD PTR $T512427[ebp], ecx
  00035	50		 push	 eax
  00036	8d 4d f0	 lea	 ecx, DWORD PTR $T512449[ebp]
  00039	ff 15 00 00 00
	00		 call	 DWORD PTR __imp_??0exception@std@@QAE@ABQBD@Z
  0003f	68 00 00 00 00	 push	 OFFSET __TI2?AVbad_alloc@std@@
  00044	8d 45 f0	 lea	 eax, DWORD PTR $T512449[ebp]
  00047	50		 push	 eax
  00048	c7 45 f0 00 00
	00 00		 mov	 DWORD PTR $T512449[ebp], OFFSET ??_7bad_alloc@std@@6B@
  0004f	e8 00 00 00 00	 call	 __CxxThrowException@8
$LN27@Buynode:
$LN26@Buynode:
  00054	cc		 int	 3
?_Buynode@?$_Tree_val@V?$_Tset_traits@PAVioSceneManager@@U?$less@PAVioSceneManager@@@std@@V?$allocator@PAVioSceneManager@@@3@$0A@@std@@@std@@QAEPAU_Node@?$_Tree_nod@V?$_Tset_traits@PAVioSceneManager@@U?$less@PAVioSceneManager@@@std@@V?$allocator@PAVioSceneManager@@@3@$0A@@std@@@2@XZ ENDP ; std::_Tree_val<std::_Tset_traits<ioSceneManager *,std::less<ioSceneManager *>,std::allocator<ioSceneManager *>,0> >::_Buynode
_TEXT	ENDS
PUBLIC	??$_Cons_val@V?$allocator@PAVioSceneManager@@@std@@PAVioSceneManager@@AAPAV3@@std@@YAXAAV?$allocator@PAVioSceneManager@@@0@PAPAVioSceneManager@@AAPAV2@@Z ; std::_Cons_val<std::allocator<ioSceneManager *>,ioSceneManager *,ioSceneManager * &>
; Function compile flags: /Ogsp
; File c:\program files (x86)\microsoft visual studio 10.0\vc\include\xmemory
;	COMDAT ??$_Cons_val@V?$allocator@PAVioSceneManager@@@std@@PAVioSceneManager@@AAPAV3@@std@@YAXAAV?$allocator@PAVioSceneManager@@@0@PAPAVioSceneManager@@AAPAV2@@Z
_TEXT	SEGMENT
__Alval$ = 8						; size = 4
__Pdest$ = 12						; size = 4
__Src$ = 16						; size = 4
??$_Cons_val@V?$allocator@PAVioSceneManager@@@std@@PAVioSceneManager@@AAPAV3@@std@@YAXAAV?$allocator@PAVioSceneManager@@@0@PAPAVioSceneManager@@AAPAV2@@Z PROC ; std::_Cons_val<std::allocator<ioSceneManager *>,ioSceneManager *,ioSceneManager * &>, COMDAT

; 279  : 	{	// construct using allocator

  00000	55		 push	 ebp
  00001	8b ec		 mov	 ebp, esp

; 280  : 	_Alval.construct(_Pdest, _STD forward<_Ty2>(_Src));

  00003	8b 45 0c	 mov	 eax, DWORD PTR __Pdest$[ebp]
  00006	85 c0		 test	 eax, eax
  00008	74 07		 je	 SHORT $LN7@Cons_val
  0000a	8b 4d 10	 mov	 ecx, DWORD PTR __Src$[ebp]
  0000d	8b 09		 mov	 ecx, DWORD PTR [ecx]
  0000f	89 08		 mov	 DWORD PTR [eax], ecx
$LN7@Cons_val:

; 281  : 	}

  00011	5d		 pop	 ebp
  00012	c3		 ret	 0
??$_Cons_val@V?$allocator@PAVioSceneManager@@@std@@PAVioSceneManager@@AAPAV3@@std@@YAXAAV?$allocator@PAVioSceneManager@@@0@PAPAVioSceneManager@@AAPAV2@@Z ENDP ; std::_Cons_val<std::allocator<ioSceneManager *>,ioSceneManager *,ioSceneManager * &>
_TEXT	ENDS
PUBLIC	??$?0AAV?$_Tree_const_iterator@V?$_Tree_val@V?$_Tset_traits@PAVioSceneManager@@U?$less@PAVioSceneManager@@@std@@V?$allocator@PAVioSceneManager@@@3@$0A@@std@@@std@@@std@@_N@?$_Pair_base@V?$_Tree_const_iterator@V?$_Tree_val@V?$_Tset_traits@PAVioSceneManager@@U?$less@PAVioSceneManager@@@std@@V?$allocator@PAVioSceneManager@@@3@$0A@@std@@@std@@@std@@_N@std@@QAE@AAV?$_Tree_const_iterator@V?$_Tree_val@V?$_Tset_traits@PAVioSceneManager@@U?$less@PAVioSceneManager@@@std@@V?$allocator@PAVioSceneManager@@@3@$0A@@std@@@std@@@1@$$QA_N@Z ; std::_Pair_base<std::_Tree_const_iterator<std::_Tree_val<std::_Tset_traits<ioSceneManager *,std::less<ioSceneManager *>,std::allocator<ioSceneManager *>,0> > >,bool>::_Pair_base<std::_Tree_const_iterator<std::_Tree_val<std::_Tset_traits<ioSceneManager *,std::less<ioSceneManager *>,std::allocator<ioSceneManager *>,0> > >,bool><std::_Tree_const_iterator<std::_Tree_val<std::_Tset_traits<ioSceneManager *,std::less<ioSceneManager *>,std::allocator<ioSceneManager *>,0> > > &,bool>
; Function compile flags: /Ogsp
; File c:\program files (x86)\microsoft visual studio 10.0\vc\include\utility
;	COMDAT ??$?0AAV?$_Tree_const_iterator@V?$_Tree_val@V?$_Tset_traits@PAVioSceneManager@@U?$less@PAVioSceneManager@@@std@@V?$allocator@PAVioSceneManager@@@3@$0A@@std@@@std@@@std@@_N@?$_Pair_base@V?$_Tree_const_iterator@V?$_Tree_val@V?$_Tset_traits@PAVioSceneManager@@U?$less@PAVioSceneManager@@@std@@V?$allocator@PAVioSceneManager@@@3@$0A@@std@@@std@@@std@@_N@std@@QAE@AAV?$_Tree_const_iterator@V?$_Tree_val@V?$_Tset_traits@PAVioSceneManager@@U?$less@PAVioSceneManager@@@std@@V?$allocator@PAVioSceneManager@@@3@$0A@@std@@@std@@@1@$$QA_N@Z
_TEXT	SEGMENT
__Val1$ = 8						; size = 4
__Val2$ = 12						; size = 4
??$?0AAV?$_Tree_const_iterator@V?$_Tree_val@V?$_Tset_traits@PAVioSceneManager@@U?$less@PAVioSceneManager@@@std@@V?$allocator@PAVioSceneManager@@@3@$0A@@std@@@std@@@std@@_N@?$_Pair_base@V?$_Tree_const_iterator@V?$_Tree_val@V?$_Tset_traits@PAVioSceneManager@@U?$less@PAVioSceneManager@@@std@@V?$allocator@PAVioSceneManager@@@3@$0A@@std@@@std@@@std@@_N@std@@QAE@AAV?$_Tree_const_iterator@V?$_Tree_val@V?$_Tset_traits@PAVioSceneManager@@U?$less@PAVioSceneManager@@@std@@V?$allocator@PAVioSceneManager@@@3@$0A@@std@@@std@@@1@$$QA_N@Z PROC ; std::_Pair_base<std::_Tree_const_iterator<std::_Tree_val<std::_Tset_traits<ioSceneManager *,std::less<ioSceneManager *>,std::allocator<ioSceneManager *>,0> > >,bool>::_Pair_base<std::_Tree_const_iterator<std::_Tree_val<std::_Tset_traits<ioSceneManager *,std::less<ioSceneManager *>,std::allocator<ioSceneManager *>,0> > >,bool><std::_Tree_const_iterator<std::_Tree_val<std::_Tset_traits<ioSceneManager *,std::less<ioSceneManager *>,std::allocator<ioSceneManager *>,0> > > &,bool>, COMDAT
; _this$ = ecx

; 163  : 		{	// construct from moved values

  00000	55		 push	 ebp
  00001	8b ec		 mov	 ebp, esp
  00003	8b c1		 mov	 eax, ecx
  00005	8b 4d 08	 mov	 ecx, DWORD PTR __Val1$[ebp]
  00008	8b 09		 mov	 ecx, DWORD PTR [ecx]
  0000a	89 08		 mov	 DWORD PTR [eax], ecx
  0000c	8b 4d 0c	 mov	 ecx, DWORD PTR __Val2$[ebp]
  0000f	8a 09		 mov	 cl, BYTE PTR [ecx]
  00011	88 48 04	 mov	 BYTE PTR [eax+4], cl

; 164  : 		}

  00014	5d		 pop	 ebp
  00015	c2 08 00	 ret	 8
??$?0AAV?$_Tree_const_iterator@V?$_Tree_val@V?$_Tset_traits@PAVioSceneManager@@U?$less@PAVioSceneManager@@@std@@V?$allocator@PAVioSceneManager@@@3@$0A@@std@@@std@@@std@@_N@?$_Pair_base@V?$_Tree_const_iterator@V?$_Tree_val@V?$_Tset_traits@PAVioSceneManager@@U?$less@PAVioSceneManager@@@std@@V?$allocator@PAVioSceneManager@@@3@$0A@@std@@@std@@@std@@_N@std@@QAE@AAV?$_Tree_const_iterator@V?$_Tree_val@V?$_Tset_traits@PAVioSceneManager@@U?$less@PAVioSceneManager@@@std@@V?$allocator@PAVioSceneManager@@@3@$0A@@std@@@std@@@1@$$QA_N@Z ENDP ; std::_Pair_base<std::_Tree_const_iterator<std::_Tree_val<std::_Tset_traits<ioSceneManager *,std::less<ioSceneManager *>,std::allocator<ioSceneManager *>,0> > >,bool>::_Pair_base<std::_Tree_const_iterator<std::_Tree_val<std::_Tset_traits<ioSceneManager *,std::less<ioSceneManager *>,std::allocator<ioSceneManager *>,0> > >,bool><std::_Tree_const_iterator<std::_Tree_val<std::_Tset_traits<ioSceneManager *,std::less<ioSceneManager *>,std::allocator<ioSceneManager *>,0> > > &,bool>
_TEXT	ENDS
PUBLIC	?StringCbPrintfA@@YAJPADIPBDZZ			; StringCbPrintfA
; Function compile flags: /Ogsp
; File c:\program files (x86)\microsoft sdks\windows\v7.0a\include\strsafe.h
;	COMDAT ?StringCbPrintfA@@YAJPADIPBDZZ
_TEXT	SEGMENT
_pszDest$ = 8						; size = 4
_cbDest$ = 12						; size = 4
_pszFormat$ = 16					; size = 4
?StringCbPrintfA@@YAJPADIPBDZZ PROC			; StringCbPrintfA, COMDAT

; 4767 : {

  00000	55		 push	 ebp
  00001	8b ec		 mov	 ebp, esp

; 4768 :     HRESULT hr;
; 4769 :     size_t cchDest = cbDest / sizeof(char);
; 4770 : 
; 4771 :     hr = StringValidateDestA(pszDest, cchDest, STRSAFE_MAX_CCH);

  00003	8b 4d 0c	 mov	 ecx, DWORD PTR _cbDest$[ebp]
  00006	33 c0		 xor	 eax, eax
  00008	85 c9		 test	 ecx, ecx
  0000a	74 08		 je	 SHORT $LN4@StringCbPr
  0000c	81 f9 ff ff ff
	7f		 cmp	 ecx, 2147483647		; 7fffffffH
  00012	76 05		 jbe	 SHORT $LN5@StringCbPr
$LN4@StringCbPr:
  00014	b8 57 00 07 80	 mov	 eax, -2147024809	; 80070057H
$LN5@StringCbPr:

; 4772 :     
; 4773 :     if (SUCCEEDED(hr))

  00019	85 c0		 test	 eax, eax
  0001b	78 39		 js	 SHORT $LN1@StringCbPr

; 4774 :     {
; 4775 :         va_list argList;
; 4776 : 
; 4777 :         va_start(argList, pszFormat);
; 4778 : 
; 4779 :         hr = StringVPrintfWorkerA(pszDest,
; 4780 :                                   cchDest,
; 4781 :                                   NULL,
; 4782 :                                   pszFormat,
; 4783 :                                   argList);

  0001d	53		 push	 ebx
  0001e	56		 push	 esi
  0001f	57		 push	 edi
  00020	8b 7d 08	 mov	 edi, DWORD PTR _pszDest$[ebp]
  00023	8d 45 14	 lea	 eax, DWORD PTR _pszFormat$[ebp+4]
  00026	50		 push	 eax
  00027	ff 75 10	 push	 DWORD PTR _pszFormat$[ebp]
  0002a	8d 71 ff	 lea	 esi, DWORD PTR [ecx-1]
  0002d	56		 push	 esi
  0002e	57		 push	 edi
  0002f	33 db		 xor	 ebx, ebx
  00031	ff 15 00 00 00
	00		 call	 DWORD PTR __imp___vsnprintf
  00037	83 c4 10	 add	 esp, 16			; 00000010H
  0003a	85 c0		 test	 eax, eax
  0003c	78 0b		 js	 SHORT $LN12@StringCbPr
  0003e	3b c6		 cmp	 eax, esi
  00040	77 07		 ja	 SHORT $LN12@StringCbPr
  00042	75 0d		 jne	 SHORT $LN9@StringCbPr
  00044	88 1c 3e	 mov	 BYTE PTR [esi+edi], bl
  00047	eb 08		 jmp	 SHORT $LN9@StringCbPr
$LN12@StringCbPr:
  00049	88 1c 3e	 mov	 BYTE PTR [esi+edi], bl
  0004c	bb 7a 00 07 80	 mov	 ebx, -2147024774	; 8007007aH
$LN9@StringCbPr:
  00051	5f		 pop	 edi
  00052	5e		 pop	 esi
  00053	8b c3		 mov	 eax, ebx
  00055	5b		 pop	 ebx
$LN1@StringCbPr:

; 4784 : 
; 4785 :         va_end(argList);
; 4786 :     }
; 4787 : 
; 4788 :     return hr;
; 4789 : }

  00056	5d		 pop	 ebp
  00057	c3		 ret	 0
?StringCbPrintfA@@YAJPADIPBDZZ ENDP			; StringCbPrintfA
_TEXT	ENDS
PUBLIC	??B?$CEncrypt@H@@QBEHXZ				; CEncrypt<int>::operator int
; Function compile flags: /Ogsp
; File d:\lost saga for developer\youtube\tutorial\source\src\lsclient\encryptvalue.h
;	COMDAT ??B?$CEncrypt@H@@QBEHXZ
_TEXT	SEGMENT
_value$ = -4						; size = 4
??B?$CEncrypt@H@@QBEHXZ PROC				; CEncrypt<int>::operator int, COMDAT
; _this$ = ecx

; 145  : 	{

  00000	55		 push	 ebp
  00001	8b ec		 mov	 ebp, esp
  00003	51		 push	 ecx

; 146  : 		//UJ 130829, const    --start
; 147  : 		type value;
; 148  : 		CEncrypt<type>* pThis = const_cast<CEncrypt<type>*>(this);
; 149  : 		pThis->DecryptValueToPool(&value);

  00004	8d 45 fc	 lea	 eax, DWORD PTR _value$[ebp]
  00007	50		 push	 eax
  00008	e8 00 00 00 00	 call	 ?DecryptValueToPool@?$CEncrypt@H@@QAEXPAH@Z ; CEncrypt<int>::DecryptValueToPool

; 150  : 		//// const DecryptValueToPool     .
; 151  :  		//type value;
; 152  : 		//char szTempMem[MAX_ENCRYPT];
; 153  : 		//m_RC5.DecryptByte( m_MemPool, szTempMem, max(m_ValueSize, DEFAULT_ENCRYPT) );
; 154  : 		//memcpy( &value, szTempMem, m_ValueSize );
; 155  : 		//UJ --end
; 156  : 
; 157  : #ifdef _NOTUSE
; 158  : 		Debug();
; 159  : #endif
; 160  : 		return value;

  0000d	8b 45 fc	 mov	 eax, DWORD PTR _value$[ebp]

; 161  : 	}

  00010	c9		 leave
  00011	c3		 ret	 0
??B?$CEncrypt@H@@QBEHXZ ENDP				; CEncrypt<int>::operator int
_TEXT	ENDS
PUBLIC	?begin@?$vector@VioHashString@@V?$allocator@VioHashString@@@std@@@std@@QAE?AV?$_Vector_iterator@V?$_Vector_val@VioHashString@@V?$allocator@VioHashString@@@std@@@std@@@2@XZ ; std::vector<ioHashString,std::allocator<ioHashString> >::begin
; Function compile flags: /Ogsp
; File c:\program files (x86)\microsoft visual studio 10.0\vc\include\vector
;	COMDAT ?begin@?$vector@VioHashString@@V?$allocator@VioHashString@@@std@@@std@@QAE?AV?$_Vector_iterator@V?$_Vector_val@VioHashString@@V?$allocator@VioHashString@@@std@@@std@@@2@XZ
_TEXT	SEGMENT
___$ReturnUdt$ = 8					; size = 4
?begin@?$vector@VioHashString@@V?$allocator@VioHashString@@@std@@@std@@QAE?AV?$_Vector_iterator@V?$_Vector_val@VioHashString@@V?$allocator@VioHashString@@@std@@@std@@@2@XZ PROC ; std::vector<ioHashString,std::allocator<ioHashString> >::begin, COMDAT
; _this$ = ecx

; 781  : 		{	// return iterator for beginning of mutable sequence

  00000	55		 push	 ebp
  00001	8b ec		 mov	 ebp, esp

; 782  : 		return (iterator(this->_Myfirst, this));

  00003	8b 09		 mov	 ecx, DWORD PTR [ecx]
  00005	8b 45 08	 mov	 eax, DWORD PTR ___$ReturnUdt$[ebp]
  00008	89 08		 mov	 DWORD PTR [eax], ecx

; 783  : 		}

  0000a	5d		 pop	 ebp
  0000b	c2 04 00	 ret	 4
?begin@?$vector@VioHashString@@V?$allocator@VioHashString@@@std@@@std@@QAE?AV?$_Vector_iterator@V?$_Vector_val@VioHashString@@V?$allocator@VioHashString@@@std@@@std@@@2@XZ ENDP ; std::vector<ioHashString,std::allocator<ioHashString> >::begin
_TEXT	ENDS
PUBLIC	?end@?$vector@VioHashString@@V?$allocator@VioHashString@@@std@@@std@@QAE?AV?$_Vector_iterator@V?$_Vector_val@VioHashString@@V?$allocator@VioHashString@@@std@@@std@@@2@XZ ; std::vector<ioHashString,std::allocator<ioHashString> >::end
; Function compile flags: /Ogsp
;	COMDAT ?end@?$vector@VioHashString@@V?$allocator@VioHashString@@@std@@@std@@QAE?AV?$_Vector_iterator@V?$_Vector_val@VioHashString@@V?$allocator@VioHashString@@@std@@@std@@@2@XZ
_TEXT	SEGMENT
___$ReturnUdt$ = 8					; size = 4
?end@?$vector@VioHashString@@V?$allocator@VioHashString@@@std@@@std@@QAE?AV?$_Vector_iterator@V?$_Vector_val@VioHashString@@V?$allocator@VioHashString@@@std@@@std@@@2@XZ PROC ; std::vector<ioHashString,std::allocator<ioHashString> >::end, COMDAT
; _this$ = ecx

; 791  : 		{	// return iterator for end of mutable sequence

  00000	55		 push	 ebp
  00001	8b ec		 mov	 ebp, esp

; 792  : 		return (iterator(this->_Mylast, this));

  00003	8b 49 04	 mov	 ecx, DWORD PTR [ecx+4]
  00006	8b 45 08	 mov	 eax, DWORD PTR ___$ReturnUdt$[ebp]
  00009	89 08		 mov	 DWORD PTR [eax], ecx

; 793  : 		}

  0000b	5d		 pop	 ebp
  0000c	c2 04 00	 ret	 4
?end@?$vector@VioHashString@@V?$allocator@VioHashString@@@std@@@std@@QAE?AV?$_Vector_iterator@V?$_Vector_val@VioHashString@@V?$allocator@VioHashString@@@std@@@std@@@2@XZ ENDP ; std::vector<ioHashString,std::allocator<ioHashString> >::end
_TEXT	ENDS
PUBLIC	??0?$_Vector_val@VioHashString@@V?$allocator@VioHashString@@@std@@@std@@QAE@V?$allocator@VioHashString@@@1@@Z ; std::_Vector_val<ioHashString,std::allocator<ioHashString> >::_Vector_val<ioHashString,std::allocator<ioHashString> >
; Function compile flags: /Ogsp
;	COMDAT ??0?$_Vector_val@VioHashString@@V?$allocator@VioHashString@@@std@@@std@@QAE@V?$allocator@VioHashString@@@1@@Z
_TEXT	SEGMENT
__Al$ = 8						; size = 1
??0?$_Vector_val@VioHashString@@V?$allocator@VioHashString@@@std@@@std@@QAE@V?$allocator@VioHashString@@@1@@Z PROC ; std::_Vector_val<ioHashString,std::allocator<ioHashString> >::_Vector_val<ioHashString,std::allocator<ioHashString> >, COMDAT
; _this$ = ecx

; 426  : 		{	// construct allocator from _Al

  00000	8b c1		 mov	 eax, ecx

; 427  : 		_Myfirst = 0;

  00002	33 c9		 xor	 ecx, ecx
  00004	89 08		 mov	 DWORD PTR [eax], ecx

; 428  : 		_Mylast = 0;

  00006	89 48 04	 mov	 DWORD PTR [eax+4], ecx

; 429  : 		_Myend = 0;

  00009	89 48 08	 mov	 DWORD PTR [eax+8], ecx

; 430  : 		}

  0000c	c2 04 00	 ret	 4
??0?$_Vector_val@VioHashString@@V?$allocator@VioHashString@@@std@@@std@@QAE@V?$allocator@VioHashString@@@1@@Z ENDP ; std::_Vector_val<ioHashString,std::allocator<ioHashString> >::_Vector_val<ioHashString,std::allocator<ioHashString> >
_TEXT	ENDS
PUBLIC	?_Make_iter@?$vector@VioHashString@@V?$allocator@VioHashString@@@std@@@std@@QBE?AV?$_Vector_iterator@V?$_Vector_val@VioHashString@@V?$allocator@VioHashString@@@std@@@std@@@2@V?$_Vector_const_iterator@V?$_Vector_val@VioHashString@@V?$allocator@VioHashString@@@std@@@std@@@2@@Z ; std::vector<ioHashString,std::allocator<ioHashString> >::_Make_iter
; Function compile flags: /Ogsp
;	COMDAT ?_Make_iter@?$vector@VioHashString@@V?$allocator@VioHashString@@@std@@@std@@QBE?AV?$_Vector_iterator@V?$_Vector_val@VioHashString@@V?$allocator@VioHashString@@@std@@@std@@@2@V?$_Vector_const_iterator@V?$_Vector_val@VioHashString@@V?$allocator@VioHashString@@@std@@@std@@@2@@Z
_TEXT	SEGMENT
___$ReturnUdt$ = 8					; size = 4
__Where$ = 12						; size = 4
?_Make_iter@?$vector@VioHashString@@V?$allocator@VioHashString@@@std@@@std@@QBE?AV?$_Vector_iterator@V?$_Vector_val@VioHashString@@V?$allocator@VioHashString@@@std@@@std@@@2@V?$_Vector_const_iterator@V?$_Vector_val@VioHashString@@V?$allocator@VioHashString@@@std@@@std@@@2@@Z PROC ; std::vector<ioHashString,std::allocator<ioHashString> >::_Make_iter, COMDAT
; _this$ = ecx

; 801  : 		{	// make iterator from const_iterator

  00000	55		 push	 ebp
  00001	8b ec		 mov	 ebp, esp

; 802  : 		return (iterator(_Where._Ptr, this));

  00003	8b 45 08	 mov	 eax, DWORD PTR ___$ReturnUdt$[ebp]
  00006	8b 4d 0c	 mov	 ecx, DWORD PTR __Where$[ebp]
  00009	89 08		 mov	 DWORD PTR [eax], ecx

; 803  : 		}

  0000b	5d		 pop	 ebp
  0000c	c2 08 00	 ret	 8
?_Make_iter@?$vector@VioHashString@@V?$allocator@VioHashString@@@std@@@std@@QBE?AV?$_Vector_iterator@V?$_Vector_val@VioHashString@@V?$allocator@VioHashString@@@std@@@std@@@2@V?$_Vector_const_iterator@V?$_Vector_val@VioHashString@@V?$allocator@VioHashString@@@std@@@std@@@2@@Z ENDP ; std::vector<ioHashString,std::allocator<ioHashString> >::_Make_iter
_TEXT	ENDS
PUBLIC	?max_size@?$vector@VioHashString@@V?$allocator@VioHashString@@@std@@@std@@QBEIXZ ; std::vector<ioHashString,std::allocator<ioHashString> >::max_size
; Function compile flags: /Ogsp
;	COMDAT ?max_size@?$vector@VioHashString@@V?$allocator@VioHashString@@@std@@@std@@QBEIXZ
_TEXT	SEGMENT
?max_size@?$vector@VioHashString@@V?$allocator@VioHashString@@@std@@@std@@QBEIXZ PROC ; std::vector<ioHashString,std::allocator<ioHashString> >::max_size, COMDAT
; _this$ = ecx

; 884  : 		return (this->_Alval.max_size());

  00000	b8 ff ff ff 0f	 mov	 eax, 268435455		; 0fffffffH

; 885  : 		}

  00005	c3		 ret	 0
?max_size@?$vector@VioHashString@@V?$allocator@VioHashString@@@std@@@std@@QBEIXZ ENDP ; std::vector<ioHashString,std::allocator<ioHashString> >::max_size
_TEXT	ENDS
PUBLIC	?allocate@?$allocator@VioHashString@@@std@@QAEPAVioHashString@@I@Z ; std::allocator<ioHashString>::allocate
; Function compile flags: /Ogsp
; File c:\program files (x86)\microsoft visual studio 10.0\vc\include\xmemory
;	COMDAT ?allocate@?$allocator@VioHashString@@@std@@QAEPAVioHashString@@I@Z
_TEXT	SEGMENT
__Count$ = 8						; size = 4
?allocate@?$allocator@VioHashString@@@std@@QAEPAVioHashString@@I@Z PROC ; std::allocator<ioHashString>::allocate, COMDAT
; _this$ = ecx

; 186  : 		{	// allocate array of _Count elements

  00000	55		 push	 ebp
  00001	8b ec		 mov	 ebp, esp

; 187  : 		return (_Allocate(_Count, (pointer)0));

  00003	6a 00		 push	 0
  00005	ff 75 08	 push	 DWORD PTR __Count$[ebp]
  00008	e8 00 00 00 00	 call	 ??$_Allocate@VioHashString@@@std@@YAPAVioHashString@@IPAV1@@Z ; std::_Allocate<ioHashString>
  0000d	59		 pop	 ecx
  0000e	59		 pop	 ecx

; 188  : 		}

  0000f	5d		 pop	 ebp
  00010	c2 04 00	 ret	 4
?allocate@?$allocator@VioHashString@@@std@@QAEPAVioHashString@@I@Z ENDP ; std::allocator<ioHashString>::allocate
_TEXT	ENDS
PUBLIC	??8?$_Vector_const_iterator@V?$_Vector_val@VioHashString@@V?$allocator@VioHashString@@@std@@@std@@@std@@QBE_NABV01@@Z ; std::_Vector_const_iterator<std::_Vector_val<ioHashString,std::allocator<ioHashString> > >::operator==
; Function compile flags: /Ogsp
; File c:\program files (x86)\microsoft visual studio 10.0\vc\include\vector
;	COMDAT ??8?$_Vector_const_iterator@V?$_Vector_val@VioHashString@@V?$allocator@VioHashString@@@std@@@std@@@std@@QBE_NABV01@@Z
_TEXT	SEGMENT
__Right$ = 8						; size = 4
??8?$_Vector_const_iterator@V?$_Vector_val@VioHashString@@V?$allocator@VioHashString@@@std@@@std@@@std@@QBE_NABV01@@Z PROC ; std::_Vector_const_iterator<std::_Vector_val<ioHashString,std::allocator<ioHashString> > >::operator==, COMDAT
; _this$ = ecx

; 201  : 		{	// test for iterator equality

  00000	55		 push	 ebp
  00001	8b ec		 mov	 ebp, esp

; 202  : 		_Compat(_Right);
; 203  : 		return (this->_Ptr == _Right._Ptr);

  00003	8b 01		 mov	 eax, DWORD PTR [ecx]
  00005	8b 4d 08	 mov	 ecx, DWORD PTR __Right$[ebp]
  00008	2b 01		 sub	 eax, DWORD PTR [ecx]
  0000a	f7 d8		 neg	 eax
  0000c	1b c0		 sbb	 eax, eax
  0000e	40		 inc	 eax

; 204  : 		}

  0000f	5d		 pop	 ebp
  00010	c2 04 00	 ret	 4
??8?$_Vector_const_iterator@V?$_Vector_val@VioHashString@@V?$allocator@VioHashString@@@std@@@std@@@std@@QBE_NABV01@@Z ENDP ; std::_Vector_const_iterator<std::_Vector_val<ioHashString,std::allocator<ioHashString> > >::operator==
_TEXT	ENDS
PUBLIC	??$swap@D@std@@YAXAAD0@Z			; std::swap<char>
; Function compile flags: /Ogsp
; File c:\program files (x86)\microsoft visual studio 10.0\vc\include\utility
;	COMDAT ??$swap@D@std@@YAXAAD0@Z
_TEXT	SEGMENT
__Left$ = 8						; size = 4
__Right$ = 12						; size = 4
??$swap@D@std@@YAXAAD0@Z PROC				; std::swap<char>, COMDAT

; 101  : 	{	// exchange values stored at _Left and _Right

  00000	55		 push	 ebp
  00001	8b ec		 mov	 ebp, esp

; 102  : 	_Ty _Tmp = _Move(_Left);

  00003	8b 45 08	 mov	 eax, DWORD PTR __Left$[ebp]
  00006	8a 08		 mov	 cl, BYTE PTR [eax]
  00008	56		 push	 esi

; 103  : 	_Left = _Move(_Right);

  00009	8b 75 0c	 mov	 esi, DWORD PTR __Right$[ebp]
  0000c	8a 16		 mov	 dl, BYTE PTR [esi]
  0000e	88 10		 mov	 BYTE PTR [eax], dl

; 104  : 	_Right = _Move(_Tmp);

  00010	88 0e		 mov	 BYTE PTR [esi], cl
  00012	5e		 pop	 esi

; 105  : 	}

  00013	5d		 pop	 ebp
  00014	c3		 ret	 0
??$swap@D@std@@YAXAAD0@Z ENDP				; std::swap<char>
_TEXT	ENDS
PUBLIC	??$_Move@PAVioHashString@@PAV1@@std@@YAPAVioHashString@@PAV1@00U_Nonscalar_ptr_iterator_tag@0@@Z ; std::_Move<ioHashString *,ioHashString *>
; Function compile flags: /Ogsp
; File c:\program files (x86)\microsoft visual studio 10.0\vc\include\xutility
;	COMDAT ??$_Move@PAVioHashString@@PAV1@@std@@YAPAVioHashString@@PAV1@00U_Nonscalar_ptr_iterator_tag@0@@Z
_TEXT	SEGMENT
__First$ = 8						; size = 4
__Last$ = 12						; size = 4
__Dest$ = 16						; size = 4
___formal$ = 20						; size = 1
??$_Move@PAVioHashString@@PAV1@@std@@YAPAVioHashString@@PAV1@00U_Nonscalar_ptr_iterator_tag@0@@Z PROC ; std::_Move<ioHashString *,ioHashString *>, COMDAT

; 2512 : 	{	// move [_First, _Last) to [_Dest, ...), arbitrary iterators

  00000	55		 push	 ebp
  00001	8b ec		 mov	 ebp, esp
  00003	56		 push	 esi

; 2513 : 	for (; _First != _Last; ++_Dest, ++_First)

  00004	8b 75 08	 mov	 esi, DWORD PTR __First$[ebp]
  00007	eb 11		 jmp	 SHORT $LN11@Move
$LL3@Move:

; 2514 : 		*_Dest = _STD move(*_First);

  00009	8b 4d 10	 mov	 ecx, DWORD PTR __Dest$[ebp]
  0000c	56		 push	 esi
  0000d	ff 15 00 00 00
	00		 call	 DWORD PTR __imp_??4ioHashString@@QAEAAV0@ABV0@@Z
  00013	83 45 10 10	 add	 DWORD PTR __Dest$[ebp], 16 ; 00000010H
  00017	83 c6 10	 add	 esi, 16			; 00000010H
$LN11@Move:

; 2513 : 	for (; _First != _Last; ++_Dest, ++_First)

  0001a	3b 75 0c	 cmp	 esi, DWORD PTR __Last$[ebp]
  0001d	75 ea		 jne	 SHORT $LL3@Move

; 2515 : 	return (_Dest);

  0001f	8b 45 10	 mov	 eax, DWORD PTR __Dest$[ebp]
  00022	5e		 pop	 esi

; 2516 : 	}

  00023	5d		 pop	 ebp
  00024	c3		 ret	 0
??$_Move@PAVioHashString@@PAV1@@std@@YAPAVioHashString@@PAV1@00U_Nonscalar_ptr_iterator_tag@0@@Z ENDP ; std::_Move<ioHashString *,ioHashString *>
_TEXT	ENDS
PUBLIC	??$_Destroy@VioHashString@@@std@@YAXPAVioHashString@@@Z ; std::_Destroy<ioHashString>
; Function compile flags: /Ogsp
; File c:\program files (x86)\microsoft visual studio 10.0\vc\include\xmemory
;	COMDAT ??$_Destroy@VioHashString@@@std@@YAXPAVioHashString@@@Z
_TEXT	SEGMENT
__Ptr$ = 8						; size = 4
??$_Destroy@VioHashString@@@std@@YAXPAVioHashString@@@Z PROC ; std::_Destroy<ioHashString>, COMDAT

; 62   : 	{	// destroy object at _Ptr

  00000	55		 push	 ebp
  00001	8b ec		 mov	 ebp, esp

; 63   : 	_Ptr->~_Ty();

  00003	8b 4d 08	 mov	 ecx, DWORD PTR __Ptr$[ebp]

; 64   : 	}

  00006	5d		 pop	 ebp

; 63   : 	_Ptr->~_Ty();

  00007	ff 25 00 00 00
	00		 jmp	 DWORD PTR __imp_??1ioHashString@@QAE@XZ
??$_Destroy@VioHashString@@@std@@YAXPAVioHashString@@@Z ENDP ; std::_Destroy<ioHashString>
_TEXT	ENDS
PUBLIC	?construct@?$allocator@VioHashString@@@std@@QAEXPAVioHashString@@ABV3@@Z ; std::allocator<ioHashString>::construct
; Function compile flags: /Ogsp
;	COMDAT ?construct@?$allocator@VioHashString@@@std@@QAEXPAVioHashString@@ABV3@@Z
_TEXT	SEGMENT
__Ptr$ = 8						; size = 4
__Val$ = 12						; size = 4
?construct@?$allocator@VioHashString@@@std@@QAEXPAVioHashString@@ABV3@@Z PROC ; std::allocator<ioHashString>::construct, COMDAT
; _this$ = ecx

; 196  : 		{	// construct object at _Ptr with value _Val

  00000	55		 push	 ebp
  00001	8b ec		 mov	 ebp, esp

; 197  : 		_Construct(_Ptr, _Val);

  00003	ff 75 0c	 push	 DWORD PTR __Val$[ebp]
  00006	ff 75 08	 push	 DWORD PTR __Ptr$[ebp]
  00009	e8 00 00 00 00	 call	 ??$_Construct@VioHashString@@ABV1@@std@@YAXPAVioHashString@@ABV1@@Z ; std::_Construct<ioHashString,ioHashString const &>
  0000e	59		 pop	 ecx
  0000f	59		 pop	 ecx

; 198  : 		}

  00010	5d		 pop	 ebp
  00011	c2 08 00	 ret	 8
?construct@?$allocator@VioHashString@@@std@@QAEXPAVioHashString@@ABV3@@Z ENDP ; std::allocator<ioHashString>::construct
; Function compile flags: /Ogsp
; File d:\lost saga for developer\youtube\tutorial\source\src\lsclient\gui\ioui3drender.cpp
_TEXT	ENDS
;	COMDAT ?RenderDirect@io3DUIQuad@@UAEXPAVioRenderSystem@@@Z
_TEXT	SEGMENT
_pRenderSystem$ = 8					; size = 4
?RenderDirect@io3DUIQuad@@UAEXPAVioRenderSystem@@@Z PROC ; io3DUIQuad::RenderDirect, COMDAT
; _this$ = ecx

; 62   : 	{

  00000	8b c1		 mov	 eax, ecx

; 63   : 		if( m_p3DRender )

  00002	8b 48 04	 mov	 ecx, DWORD PTR [eax+4]
  00005	85 c9		 test	 ecx, ecx
  00007	74 0e		 je	 SHORT $LN1@RenderDire

; 64   : 		{
; 65   : 			m_p3DRender->RenderNow( &m_ExtraProj, m_bZClear );

  00009	0f b6 50 48	 movzx	 edx, BYTE PTR [eax+72]
  0000d	52		 push	 edx
  0000e	83 c0 08	 add	 eax, 8
  00011	50		 push	 eax
  00012	e8 00 00 00 00	 call	 ?RenderNow@ioUI3DRender@@QAEXPBUD3DXMATRIX@@_N@Z ; ioUI3DRender::RenderNow
$LN1@RenderDire:

; 66   : 		}
; 67   : 	}

  00017	c2 04 00	 ret	 4
?RenderDirect@io3DUIQuad@@UAEXPAVioRenderSystem@@@Z ENDP ; io3DUIQuad::RenderDirect
_TEXT	ENDS
PUBLIC	_pRenderSystem$GSCopy$
PUBLIC	__$ArrayPad$
EXTRN	__imp_?SetViewPort@ioRenderSystem@@QAEXABU_D3DVIEWPORT9@@@Z:PROC
EXTRN	__imp_?GetViewPort@ioRenderSystem@@QBEABU_D3DVIEWPORT9@@XZ:PROC
; Function compile flags: /Ogsp
;	COMDAT ?RenderDirect@io3DUIViewPortQuad@@UAEXPAVioRenderSystem@@@Z
_TEXT	SEGMENT
tv185 = -60						; size = 4
_pRenderSystem$GSCopy$ = -56				; size = 4
_kOldView$ = -52					; size = 24
_kNewView$ = -28					; size = 24
__$ArrayPad$ = -4					; size = 4
_pRenderSystem$ = 8					; size = 4
?RenderDirect@io3DUIViewPortQuad@@UAEXPAVioRenderSystem@@@Z PROC ; io3DUIViewPortQuad::RenderDirect, COMDAT
; _this$ = ecx

; 96   : 	{

  00000	55		 push	 ebp
  00001	8b ec		 mov	 ebp, esp
  00003	83 ec 3c	 sub	 esp, 60			; 0000003cH
  00006	a1 00 00 00 00	 mov	 eax, DWORD PTR ___security_cookie
  0000b	33 c5		 xor	 eax, ebp
  0000d	89 45 fc	 mov	 DWORD PTR __$ArrayPad$[ebp], eax
  00010	53		 push	 ebx
  00011	56		 push	 esi
  00012	8b d9		 mov	 ebx, ecx
  00014	8b 4d 08	 mov	 ecx, DWORD PTR _pRenderSystem$[ebp]
  00017	57		 push	 edi

; 109  : 			m_p3DRender->RenderNow( NULL, m_bZClear );

  00018	89 4d c8	 mov	 DWORD PTR _pRenderSystem$GSCopy$[ebp], ecx
  0001b	ff 15 00 00 00
	00		 call	 DWORD PTR __imp_?GetViewPort@ioRenderSystem@@QBEABU_D3DVIEWPORT9@@XZ
  00021	8b 53 54	 mov	 edx, DWORD PTR [ebx+84]
  00024	0f 57 c0	 xorps	 xmm0, xmm0
  00027	8b f0		 mov	 esi, eax
  00029	8b 43 4c	 mov	 eax, DWORD PTR [ebx+76]
  0002c	6a 06		 push	 6
  0002e	59		 pop	 ecx
  0002f	8d 7d cc	 lea	 edi, DWORD PTR _kOldView$[ebp]
  00032	f3 a5		 rep movsd
  00034	8b 4b 50	 mov	 ecx, DWORD PTR [ebx+80]
  00037	2b d0		 sub	 edx, eax
  00039	89 45 e4	 mov	 DWORD PTR _kNewView$[ebp], eax
  0003c	8b 43 58	 mov	 eax, DWORD PTR [ebx+88]
  0003f	2b c1		 sub	 eax, ecx
  00041	89 4d e8	 mov	 DWORD PTR _kNewView$[ebp+4], ecx
  00044	89 55 ec	 mov	 DWORD PTR _kNewView$[ebp+8], edx
  00047	89 45 f0	 mov	 DWORD PTR _kNewView$[ebp+12], eax
  0004a	f3 0f 11 45 f4	 movss	 DWORD PTR _kNewView$[ebp+16], xmm0

; 97   : 		D3DVIEWPORT9 kOldView, kNewView;
; 98   : 		kOldView = pRenderSystem->GetViewPort();
; 99   : 
; 100  : 		kNewView.X = m_rcView.x1;
; 101  : 		kNewView.Y = m_rcView.y1;
; 102  : 		kNewView.Width  = m_rcView.x2 - m_rcView.x1;
; 103  : 		kNewView.Height = m_rcView.y2 - m_rcView.y1;
; 104  : 		kNewView.MinZ = 0.0f;
; 105  : 		kNewView.MaxZ = FLOAT1;

  0004f	b8 01 00 00 00	 mov	 eax, 1

; 109  : 			m_p3DRender->RenderNow( NULL, m_bZClear );

  00054	89 45 c4	 mov	 DWORD PTR tv185[ebp], eax
  00057	db 45 c4	 fild	 DWORD PTR tv185[ebp]
  0005a	85 c0		 test	 eax, eax
  0005c	79 06		 jns	 SHORT $LN6@RenderDire@2

; 97   : 		D3DVIEWPORT9 kOldView, kNewView;
; 98   : 		kOldView = pRenderSystem->GetViewPort();
; 99   : 
; 100  : 		kNewView.X = m_rcView.x1;
; 101  : 		kNewView.Y = m_rcView.y1;
; 102  : 		kNewView.Width  = m_rcView.x2 - m_rcView.x1;
; 103  : 		kNewView.Height = m_rcView.y2 - m_rcView.y1;
; 104  : 		kNewView.MinZ = 0.0f;
; 105  : 		kNewView.MaxZ = FLOAT1;

  0005e	d8 05 00 00 00
	00		 fadd	 DWORD PTR __real@4f800000
$LN6@RenderDire@2:

; 106  : 		pRenderSystem->SetViewPort( kNewView );

  00064	8b 4d c8	 mov	 ecx, DWORD PTR _pRenderSystem$GSCopy$[ebp]
  00067	d9 5d f8	 fstp	 DWORD PTR _kNewView$[ebp+20]
  0006a	8b 35 00 00 00
	00		 mov	 esi, DWORD PTR __imp_?SetViewPort@ioRenderSystem@@QAEXABU_D3DVIEWPORT9@@@Z
  00070	8d 45 e4	 lea	 eax, DWORD PTR _kNewView$[ebp]
  00073	50		 push	 eax
  00074	ff d6		 call	 esi

; 107  : 
; 108  : 		if( m_p3DRender )

  00076	8b 4b 04	 mov	 ecx, DWORD PTR [ebx+4]
  00079	85 c9		 test	 ecx, ecx
  0007b	74 0c		 je	 SHORT $LN1@RenderDire@2

; 109  : 			m_p3DRender->RenderNow( NULL, m_bZClear );

  0007d	0f b6 43 48	 movzx	 eax, BYTE PTR [ebx+72]
  00081	50		 push	 eax
  00082	6a 00		 push	 0
  00084	e8 00 00 00 00	 call	 ?RenderNow@ioUI3DRender@@QAEXPBUD3DXMATRIX@@_N@Z ; ioUI3DRender::RenderNow
$LN1@RenderDire@2:

; 110  : 
; 111  : 		pRenderSystem->SetViewPort( kOldView );

  00089	8b 4d c8	 mov	 ecx, DWORD PTR _pRenderSystem$GSCopy$[ebp]
  0008c	8d 45 cc	 lea	 eax, DWORD PTR _kOldView$[ebp]
  0008f	50		 push	 eax
  00090	ff d6		 call	 esi

; 112  : 	}

  00092	8b 4d fc	 mov	 ecx, DWORD PTR __$ArrayPad$[ebp]
  00095	5f		 pop	 edi
  00096	5e		 pop	 esi
  00097	33 cd		 xor	 ecx, ebp
  00099	5b		 pop	 ebx
  0009a	e8 00 00 00 00	 call	 @__security_check_cookie@4
  0009f	c9		 leave
  000a0	c2 04 00	 ret	 4
?RenderDirect@io3DUIViewPortQuad@@UAEXPAVioRenderSystem@@@Z ENDP ; io3DUIViewPortQuad::RenderDirect
_TEXT	ENDS
PUBLIC	___$ReturnUdt$GSCopy$
PUBLIC	_bMale$GSCopy$
PUBLIC	?GetModelAnimation@ioUI3DRender@@QBE?AVioHashString@@H_N@Z ; ioUI3DRender::GetModelAnimation
EXTRN	__imp_??0ioHashString@@QAE@XZ:PROC
EXTRN	__imp_?IsFileExist@ioResourceLoader@@QAE_NPBD_N@Z:PROC
EXTRN	__imp_?GetInstance@ioResourceLoader@@SAAAV1@XZ:PROC
EXTRN	?ConvertTailName@Help@@YA?AVioHashString@@ABV2@_N@Z:PROC ; Help::ConvertTailName
EXTRN	_memset:PROC
;	COMDAT xdata$x
; File c:\program files (x86)\microsoft visual studio 10.0\vc\include\vector
xdata$x	SEGMENT
__unwindtable$?GetModelAnimation@ioUI3DRender@@QBE?AVioHashString@@H_N@Z DD 0ffffffffH
	DD	FLAT:__unwindfunclet$?GetModelAnimation@ioUI3DRender@@QBE?AVioHashString@@H_N@Z$0
	DD	00H
	DD	FLAT:__unwindfunclet$?GetModelAnimation@ioUI3DRender@@QBE?AVioHashString@@H_N@Z$1
	DD	01H
	DD	FLAT:__unwindfunclet$?GetModelAnimation@ioUI3DRender@@QBE?AVioHashString@@H_N@Z$2
__ehfuncinfo$?GetModelAnimation@ioUI3DRender@@QBE?AVioHashString@@H_N@Z DD 019930522H
	DD	03H
	DD	FLAT:__unwindtable$?GetModelAnimation@ioUI3DRender@@QBE?AVioHashString@@H_N@Z
	DD	2 DUP(00H)
	DD	2 DUP(00H)
	DD	00H
	DD	01H
; Function compile flags: /Ogsp
; File d:\lost saga for developer\youtube\tutorial\source\src\lsclient\gui\ioui3drender.cpp
xdata$x	ENDS
;	COMDAT ?GetModelAnimation@ioUI3DRender@@QBE?AVioHashString@@H_N@Z
_TEXT	SEGMENT
_szNewAniName$ = -336					; size = 16
tv810 = -320						; size = 4
$T512655 = -316						; size = 4
_bMale$GSCopy$ = -312					; size = 1
___$ReturnUdt$GSCopy$ = -308				; size = 4
_szFullName$507589 = -304				; size = 260
___encStr$507593 = -44					; size = 22
$T512653 = -36						; size = 16
__$EHRec$ = -12						; size = 12
___$ReturnUdt$ = 8					; size = 4
_iIndex$ = 12						; size = 4
_bMale$ = 16						; size = 1
?GetModelAnimation@ioUI3DRender@@QBE?AVioHashString@@H_N@Z PROC ; ioUI3DRender::GetModelAnimation, COMDAT
; _this$ = ecx

; 625  : {

  00000	68 44 01 00 00	 push	 324			; 00000144H
  00005	b8 00 00 00 00	 mov	 eax, __ehhandler$?GetModelAnimation@ioUI3DRender@@QBE?AVioHashString@@H_N@Z
  0000a	e8 00 00 00 00	 call	 __EH_prolog3_GS

; 639  : 		}
; 640  : 	}
; 641  : 	
; 642  : 	return szNewAniName;

  0000f	8a 45 10	 mov	 al, BYTE PTR _bMale$[ebp]
  00012	8b 7d 08	 mov	 edi, DWORD PTR ___$ReturnUdt$[ebp]
  00015	8b f1		 mov	 esi, ecx
  00017	8b 4d 0c	 mov	 ecx, DWORD PTR _iIndex$[ebp]
  0001a	33 db		 xor	 ebx, ebx
  0001c	88 85 c8 fe ff
	ff		 mov	 BYTE PTR _bMale$GSCopy$[ebp], al
  00022	89 9d c4 fe ff
	ff		 mov	 DWORD PTR $T512655[ebp], ebx
  00028	8b 46 30	 mov	 eax, DWORD PTR [esi+48]
  0002b	2b 46 2c	 sub	 eax, DWORD PTR [esi+44]
  0002e	89 bd cc fe ff
	ff		 mov	 DWORD PTR ___$ReturnUdt$GSCopy$[ebp], edi
  00034	c1 f8 04	 sar	 eax, 4
  00037	3b cb		 cmp	 ecx, ebx
  00039	0f 8c 40 01 00
	00		 jl	 $LN102@GetModelAn

; 626  : 	int iModelAnimationCount = m_ModelAnimation.size();
; 627  : 	if( !COMPARE( iIndex, 0, iModelAnimationCount ) )

  0003f	3b c8		 cmp	 ecx, eax
  00041	0f 8d 38 01 00
	00		 jge	 $LN102@GetModelAn

; 629  : 
; 630  : 	ioHashString szNewAniName = Help::ConvertTailName( m_ModelAnimation[iIndex], bMale );

  00047	8b 46 2c	 mov	 eax, DWORD PTR [esi+44]
  0004a	ff b5 c8 fe ff
	ff		 push	 DWORD PTR _bMale$GSCopy$[ebp]
  00050	c1 e1 04	 shl	 ecx, 4
  00053	03 c1		 add	 eax, ecx
  00055	50		 push	 eax
  00056	8d 85 b0 fe ff
	ff		 lea	 eax, DWORD PTR _szNewAniName$[ebp]
  0005c	50		 push	 eax
  0005d	89 8d c0 fe ff
	ff		 mov	 DWORD PTR tv810[ebp], ecx
  00063	e8 00 00 00 00	 call	 ?ConvertTailName@Help@@YA?AVioHashString@@ABV2@_N@Z ; Help::ConvertTailName
  00068	83 c4 0c	 add	 esp, 12			; 0000000cH

; 631  : 
; 632  : 	if( !bMale )

  0006b	8b 3d 00 00 00
	00		 mov	 edi, DWORD PTR __imp_??1ioHashString@@QAE@XZ
  00071	c7 45 fc 01 00
	00 00		 mov	 DWORD PTR __$EHRec$[ebp+8], 1
  00078	38 9d c8 fe ff
	ff		 cmp	 BYTE PTR _bMale$GSCopy$[ebp], bl
  0007e	0f 85 cb 00 00
	00		 jne	 $LN1@GetModelAn

; 633  : 	{
; 634  : 		char szFullName[MAX_PATH]="";

  00084	68 03 01 00 00	 push	 259			; 00000103H
  00089	8d 85 d1 fe ff
	ff		 lea	 eax, DWORD PTR _szFullName$507589[ebp+1]
  0008f	53		 push	 ebx
  00090	50		 push	 eax
  00091	88 9d d0 fe ff
	ff		 mov	 BYTE PTR _szFullName$507589[ebp], bl
  00097	e8 00 00 00 00	 call	 _memset
  0009c	83 c4 0c	 add	 esp, 12			; 0000000cH
  0009f	6a 05		 push	 5

; 635  : 		StringCbPrintf_e( szFullName, sizeof( szFullName ), "resource\\animation\\%s" , szNewAniName.c_str() );

  000a1	c7 45 d4 9f 89
	98 85		 mov	 DWORD PTR ___encStr$507593[ebp], -2053600865 ; 8598899fH
  000a8	c7 45 d8 98 9e
	88 8f		 mov	 DWORD PTR ___encStr$507593[ebp+4], -1886871912 ; 8f889e98H
  000af	c7 45 dc b1 8d
	85 83		 mov	 DWORD PTR ___encStr$507593[ebp+8], -2088399439 ; 83858db1H
  000b6	c7 45 e0 80 8d
	9f 83		 mov	 DWORD PTR ___encStr$507593[ebp+12], -2086695552 ; 839f8d80H
  000bd	c7 45 e4 82 82
	b7 cf		 mov	 DWORD PTR ___encStr$507593[ebp+16], -810057086 ; cfb78282H
  000c4	8d 45 d4	 lea	 eax, DWORD PTR ___encStr$507593[ebp]
  000c7	66 c7 45 e8 9e
	00		 mov	 WORD PTR ___encStr$507593[ebp+20], 158 ; 0000009eH
  000cd	59		 pop	 ecx
$LL119@GetModelAn:
  000ce	81 30 ed ec eb
	ea		 xor	 DWORD PTR [eax], -353637139 ; eaebecedH
  000d4	83 c0 04	 add	 eax, 4
  000d7	49		 dec	 ecx
  000d8	75 f4		 jne	 SHORT $LL119@GetModelAn
  000da	80 75 e8 ed	 xor	 BYTE PTR ___encStr$507593[ebp+20], -19 ; ffffffedH
  000de	8d 8d b0 fe ff
	ff		 lea	 ecx, DWORD PTR _szNewAniName$[ebp]
  000e4	ff 15 00 00 00
	00		 call	 DWORD PTR __imp_?c_str@ioHashString@@QBEPBDXZ
  000ea	50		 push	 eax
  000eb	8d 45 d4	 lea	 eax, DWORD PTR ___encStr$507593[ebp]
  000ee	50		 push	 eax
  000ef	8d 85 d0 fe ff
	ff		 lea	 eax, DWORD PTR _szFullName$507589[ebp]
  000f5	68 04 01 00 00	 push	 260			; 00000104H
  000fa	50		 push	 eax
  000fb	e8 00 00 00 00	 call	 ?StringCbPrintfA@@YAJPADIPBDZZ ; StringCbPrintfA
  00100	83 c4 10	 add	 esp, 16			; 00000010H

; 636  : 		if( !g_ResourceLoader.IsFileExist( szFullName ) )

  00103	8d 85 d0 fe ff
	ff		 lea	 eax, DWORD PTR _szFullName$507589[ebp]
  00109	53		 push	 ebx
  0010a	50		 push	 eax
  0010b	ff 15 00 00 00
	00		 call	 DWORD PTR __imp_?GetInstance@ioResourceLoader@@SAAAV1@XZ
  00111	8b c8		 mov	 ecx, eax
  00113	ff 15 00 00 00
	00		 call	 DWORD PTR __imp_?IsFileExist@ioResourceLoader@@QAE_NPBD_N@Z
  00119	84 c0		 test	 al, al
  0011b	75 32		 jne	 SHORT $LN1@GetModelAn

; 637  : 		{
; 638  : 			szNewAniName = Help::ConvertTailName( m_ModelAnimation[iIndex], true ); // 

  0011d	8b 76 2c	 mov	 esi, DWORD PTR [esi+44]
  00120	03 b5 c0 fe ff
	ff		 add	 esi, DWORD PTR tv810[ebp]
  00126	6a 01		 push	 1
  00128	8d 45 dc	 lea	 eax, DWORD PTR $T512653[ebp]
  0012b	56		 push	 esi
  0012c	50		 push	 eax
  0012d	e8 00 00 00 00	 call	 ?ConvertTailName@Help@@YA?AVioHashString@@ABV2@_N@Z ; Help::ConvertTailName
  00132	83 c4 0c	 add	 esp, 12			; 0000000cH
  00135	50		 push	 eax
  00136	8d 8d b0 fe ff
	ff		 lea	 ecx, DWORD PTR _szNewAniName$[ebp]
  0013c	c6 45 fc 02	 mov	 BYTE PTR __$EHRec$[ebp+8], 2
  00140	ff 15 00 00 00
	00		 call	 DWORD PTR __imp_??4ioHashString@@QAEAAV0@ABV0@@Z
  00146	8d 4d dc	 lea	 ecx, DWORD PTR $T512653[ebp]
  00149	c6 45 fc 01	 mov	 BYTE PTR __$EHRec$[ebp+8], 1
  0014d	ff d7		 call	 edi
$LN1@GetModelAn:

; 639  : 		}
; 640  : 	}
; 641  : 	
; 642  : 	return szNewAniName;

  0014f	8b 8d cc fe ff
	ff		 mov	 ecx, DWORD PTR ___$ReturnUdt$GSCopy$[ebp]
  00155	8d 85 b0 fe ff
	ff		 lea	 eax, DWORD PTR _szNewAniName$[ebp]
  0015b	50		 push	 eax
  0015c	ff 15 00 00 00
	00		 call	 DWORD PTR __imp_??0ioHashString@@QAE@ABV0@@Z
  00162	8d 8d b0 fe ff
	ff		 lea	 ecx, DWORD PTR _szNewAniName$[ebp]
  00168	c7 85 c4 fe ff
	ff 01 00 00 00	 mov	 DWORD PTR $T512655[ebp], 1
  00172	88 5d fc	 mov	 BYTE PTR __$EHRec$[ebp+8], bl
  00175	ff d7		 call	 edi
  00177	8b 85 cc fe ff
	ff		 mov	 eax, DWORD PTR ___$ReturnUdt$GSCopy$[ebp]
  0017d	eb 0a		 jmp	 SHORT $LN104@GetModelAn
$LN102@GetModelAn:

; 628  : 		return ioHashString();

  0017f	8b cf		 mov	 ecx, edi
  00181	ff 15 00 00 00
	00		 call	 DWORD PTR __imp_??0ioHashString@@QAE@XZ
  00187	8b c7		 mov	 eax, edi
$LN104@GetModelAn:

; 643  : }

  00189	e8 00 00 00 00	 call	 __EH_epilog3_GS
  0018e	c2 0c 00	 ret	 12			; 0000000cH
_TEXT	ENDS
;	COMDAT text$x
text$x	SEGMENT
__unwindfunclet$?GetModelAnimation@ioUI3DRender@@QBE?AVioHashString@@H_N@Z$1:
  00000	8d 8d b0 fe ff
	ff		 lea	 ecx, DWORD PTR _szNewAniName$[ebp]
  00006	ff 25 00 00 00
	00		 jmp	 DWORD PTR __imp_??1ioHashString@@QAE@XZ
__unwindfunclet$?GetModelAnimation@ioUI3DRender@@QBE?AVioHashString@@H_N@Z$2:
  0000c	8d 4d dc	 lea	 ecx, DWORD PTR $T512653[ebp]
  0000f	ff 25 00 00 00
	00		 jmp	 DWORD PTR __imp_??1ioHashString@@QAE@XZ
__unwindfunclet$?GetModelAnimation@ioUI3DRender@@QBE?AVioHashString@@H_N@Z$0:
  00015	8b 85 c4 fe ff
	ff		 mov	 eax, DWORD PTR $T512655[ebp]
  0001b	83 e0 01	 and	 eax, 1
  0001e	0f 84 13 00 00
	00		 je	 $LN107@GetModelAn
  00024	83 a5 c4 fe ff
	ff fe		 and	 DWORD PTR $T512655[ebp], -2 ; fffffffeH
  0002b	8b 8d cc fe ff
	ff		 mov	 ecx, DWORD PTR ___$ReturnUdt$GSCopy$[ebp]
  00031	ff 25 00 00 00
	00		 jmp	 DWORD PTR __imp_??1ioHashString@@QAE@XZ
$LN107@GetModelAn:
  00037	c3		 ret	 0
__ehhandler$?GetModelAnimation@ioUI3DRender@@QBE?AVioHashString@@H_N@Z:
  00038	8b 54 24 08	 mov	 edx, DWORD PTR [esp+8]
  0003c	8d 42 0c	 lea	 eax, DWORD PTR [edx+12]
  0003f	8b 8a ac fe ff
	ff		 mov	 ecx, DWORD PTR [edx-340]
  00045	33 c8		 xor	 ecx, eax
  00047	e8 00 00 00 00	 call	 @__security_check_cookie@4
  0004c	8b 4a fc	 mov	 ecx, DWORD PTR [edx-4]
  0004f	33 c8		 xor	 ecx, eax
  00051	e8 00 00 00 00	 call	 @__security_check_cookie@4
  00056	b8 00 00 00 00	 mov	 eax, OFFSET __ehfuncinfo$?GetModelAnimation@ioUI3DRender@@QBE?AVioHashString@@H_N@Z
  0005b	e9 00 00 00 00	 jmp	 ___CxxFrameHandler3
text$x	ENDS
?GetModelAnimation@ioUI3DRender@@QBE?AVioHashString@@H_N@Z ENDP ; ioUI3DRender::GetModelAnimation
PUBLIC	?ChangeBeard@ioUI3DRender@@QAEXPAVioCreateChar@@ABUCHARACTER@@@Z ; ioUI3DRender::ChangeBeard
EXTRN	?SetDefaultBeard@ioCreateChar@@QAEXABVioHashString@@@Z:PROC ; ioCreateChar::SetDefaultBeard
EXTRN	?GetBeardParts@RaceSetting@@YA?AVioHashString@@H@Z:PROC ; RaceSetting::GetBeardParts
EXTRN	?SetCurRaceDetail@RaceSetting@@YAXABUCHARACTER@@@Z:PROC ; RaceSetting::SetCurRaceDetail
;	COMDAT xdata$x
; File d:\lost saga for developer\youtube\tutorial\source\src\lsclient\encryptvalue.h
xdata$x	SEGMENT
__unwindtable$?ChangeBeard@ioUI3DRender@@QAEXPAVioCreateChar@@ABUCHARACTER@@@Z DD 0ffffffffH
	DD	FLAT:__unwindfunclet$?ChangeBeard@ioUI3DRender@@QAEXPAVioCreateChar@@ABUCHARACTER@@@Z$0
__ehfuncinfo$?ChangeBeard@ioUI3DRender@@QAEXPAVioCreateChar@@ABUCHARACTER@@@Z DD 019930522H
	DD	01H
	DD	FLAT:__unwindtable$?ChangeBeard@ioUI3DRender@@QAEXPAVioCreateChar@@ABUCHARACTER@@@Z
	DD	2 DUP(00H)
	DD	2 DUP(00H)
	DD	00H
	DD	01H
; Function compile flags: /Ogsp
; File d:\lost saga for developer\youtube\tutorial\source\src\lsclient\gui\ioui3drender.cpp
xdata$x	ENDS
;	COMDAT ?ChangeBeard@ioUI3DRender@@QAEXPAVioCreateChar@@ABUCHARACTER@@@Z
_TEXT	SEGMENT
_szBeard$ = -28						; size = 16
__$EHRec$ = -12						; size = 12
_pChar$ = 8						; size = 4
_value$512704 = 12					; size = 4
_rkInfo$ = 12						; size = 4
?ChangeBeard@ioUI3DRender@@QAEXPAVioCreateChar@@ABUCHARACTER@@@Z PROC ; ioUI3DRender::ChangeBeard, COMDAT
; _this$ = ecx

; 702  : {

  00000	6a 10		 push	 16			; 00000010H
  00002	b8 00 00 00 00	 mov	 eax, __ehhandler$?ChangeBeard@ioUI3DRender@@QAEXPAVioCreateChar@@ABUCHARACTER@@@Z
  00007	e8 00 00 00 00	 call	 __EH_prolog3

; 703  : 	if( !pChar )	return;

  0000c	83 7d 08 00	 cmp	 DWORD PTR _pChar$[ebp], 0
  00010	74 44		 je	 SHORT $LN2@ChangeBear

; 704  : 
; 705  : 	RaceSetting::SetCurRaceDetail( rkInfo );

  00012	8b 75 0c	 mov	 esi, DWORD PTR _rkInfo$[ebp]
  00015	56		 push	 esi
  00016	e8 00 00 00 00	 call	 ?SetCurRaceDetail@RaceSetting@@YAXABUCHARACTER@@@Z ; RaceSetting::SetCurRaceDetail
  0001b	59		 pop	 ecx

; 706  : 
; 707  : 	ioHashString szBeard = RaceSetting::GetBeardParts( rkInfo.m_beard );

  0001c	8d 45 0c	 lea	 eax, DWORD PTR _value$512704[ebp]
  0001f	8d 8e 90 00 00
	00		 lea	 ecx, DWORD PTR [esi+144]
  00025	50		 push	 eax
  00026	e8 00 00 00 00	 call	 ?DecryptValueToPool@?$CEncrypt@H@@QAEXPAH@Z ; CEncrypt<int>::DecryptValueToPool
  0002b	ff 75 0c	 push	 DWORD PTR _value$512704[ebp]
  0002e	8d 45 e4	 lea	 eax, DWORD PTR _szBeard$[ebp]
  00031	50		 push	 eax
  00032	e8 00 00 00 00	 call	 ?GetBeardParts@RaceSetting@@YA?AVioHashString@@H@Z ; RaceSetting::GetBeardParts
  00037	59		 pop	 ecx
  00038	59		 pop	 ecx

; 708  : 	pChar->SetDefaultBeard( szBeard );

  00039	8b 4d 08	 mov	 ecx, DWORD PTR _pChar$[ebp]
  0003c	83 65 fc 00	 and	 DWORD PTR __$EHRec$[ebp+8], 0
  00040	8d 45 e4	 lea	 eax, DWORD PTR _szBeard$[ebp]
  00043	50		 push	 eax
  00044	e8 00 00 00 00	 call	 ?SetDefaultBeard@ioCreateChar@@QAEXABVioHashString@@@Z ; ioCreateChar::SetDefaultBeard

; 709  : }

  00049	83 4d fc ff	 or	 DWORD PTR __$EHRec$[ebp+8], -1
  0004d	8d 4d e4	 lea	 ecx, DWORD PTR _szBeard$[ebp]
  00050	ff 15 00 00 00
	00		 call	 DWORD PTR __imp_??1ioHashString@@QAE@XZ
$LN2@ChangeBear:
  00056	e8 00 00 00 00	 call	 __EH_epilog3
  0005b	c2 08 00	 ret	 8
_TEXT	ENDS
;	COMDAT text$x
text$x	SEGMENT
__unwindfunclet$?ChangeBeard@ioUI3DRender@@QAEXPAVioCreateChar@@ABUCHARACTER@@@Z$0:
  00000	8d 4d e4	 lea	 ecx, DWORD PTR _szBeard$[ebp]
  00003	ff 25 00 00 00
	00		 jmp	 DWORD PTR __imp_??1ioHashString@@QAE@XZ
__ehhandler$?ChangeBeard@ioUI3DRender@@QAEXPAVioCreateChar@@ABUCHARACTER@@@Z:
  00009	8b 54 24 08	 mov	 edx, DWORD PTR [esp+8]
  0000d	8d 42 0c	 lea	 eax, DWORD PTR [edx+12]
  00010	8b 4a e0	 mov	 ecx, DWORD PTR [edx-32]
  00013	33 c8		 xor	 ecx, eax
  00015	e8 00 00 00 00	 call	 @__security_check_cookie@4
  0001a	b8 00 00 00 00	 mov	 eax, OFFSET __ehfuncinfo$?ChangeBeard@ioUI3DRender@@QAEXPAVioCreateChar@@ABUCHARACTER@@@Z
  0001f	e9 00 00 00 00	 jmp	 ___CxxFrameHandler3
text$x	ENDS
?ChangeBeard@ioUI3DRender@@QAEXPAVioCreateChar@@ABUCHARACTER@@@Z ENDP ; ioUI3DRender::ChangeBeard
PUBLIC	?ChangeFace@ioUI3DRender@@QAEXPAVioCreateChar@@ABUCHARACTER@@@Z ; ioUI3DRender::ChangeFace
EXTRN	?SetDefaultFace@ioCreateChar@@QAEXABVioHashString@@0H@Z:PROC ; ioCreateChar::SetDefaultFace
EXTRN	?GetFaceEffect@RaceSetting@@YA?AVioHashString@@H@Z:PROC ; RaceSetting::GetFaceEffect
EXTRN	?GetFaceParts@RaceSetting@@YA?AVioHashString@@H@Z:PROC ; RaceSetting::GetFaceParts
;	COMDAT xdata$x
; File d:\lost saga for developer\youtube\tutorial\source\src\lsclient\encryptvalue.h
xdata$x	SEGMENT
__unwindtable$?ChangeFace@ioUI3DRender@@QAEXPAVioCreateChar@@ABUCHARACTER@@@Z DD 0ffffffffH
	DD	FLAT:__unwindfunclet$?ChangeFace@ioUI3DRender@@QAEXPAVioCreateChar@@ABUCHARACTER@@@Z$0
	DD	00H
	DD	FLAT:__unwindfunclet$?ChangeFace@ioUI3DRender@@QAEXPAVioCreateChar@@ABUCHARACTER@@@Z$1
__ehfuncinfo$?ChangeFace@ioUI3DRender@@QAEXPAVioCreateChar@@ABUCHARACTER@@@Z DD 019930522H
	DD	02H
	DD	FLAT:__unwindtable$?ChangeFace@ioUI3DRender@@QAEXPAVioCreateChar@@ABUCHARACTER@@@Z
	DD	2 DUP(00H)
	DD	2 DUP(00H)
	DD	00H
	DD	01H
; Function compile flags: /Ogsp
; File d:\lost saga for developer\youtube\tutorial\source\src\lsclient\gui\ioui3drender.cpp
xdata$x	ENDS
;	COMDAT ?ChangeFace@ioUI3DRender@@QAEXPAVioCreateChar@@ABUCHARACTER@@@Z
_TEXT	SEGMENT
_szFace$ = -44						; size = 16
_szEffect$ = -28					; size = 16
__$EHRec$ = -12						; size = 12
_pChar$ = 8						; size = 4
_value$512732 = 12					; size = 4
_value$512726 = 12					; size = 4
_value$512720 = 12					; size = 4
_rkInfo$ = 12						; size = 4
?ChangeFace@ioUI3DRender@@QAEXPAVioCreateChar@@ABUCHARACTER@@@Z PROC ; ioUI3DRender::ChangeFace, COMDAT
; _this$ = ecx

; 712  : {

  00000	6a 20		 push	 32			; 00000020H
  00002	b8 00 00 00 00	 mov	 eax, __ehhandler$?ChangeFace@ioUI3DRender@@QAEXPAVioCreateChar@@ABUCHARACTER@@@Z
  00007	e8 00 00 00 00	 call	 __EH_prolog3

; 713  : 	if( !pChar )	return;

  0000c	83 7d 08 00	 cmp	 DWORD PTR _pChar$[ebp], 0
  00010	0f 84 80 00 00
	00		 je	 $LN2@ChangeFace

; 714  : 
; 715  : 	RaceSetting::SetCurRaceDetail( rkInfo );

  00016	8b 75 0c	 mov	 esi, DWORD PTR _rkInfo$[ebp]
  00019	56		 push	 esi
  0001a	e8 00 00 00 00	 call	 ?SetCurRaceDetail@RaceSetting@@YAXABUCHARACTER@@@Z ; RaceSetting::SetCurRaceDetail
  0001f	59		 pop	 ecx

; 716  : 
; 717  : 	ioHashString szFace = RaceSetting::GetFaceParts( rkInfo.m_face );

  00020	8d 45 0c	 lea	 eax, DWORD PTR _value$512720[ebp]
  00023	81 c6 c0 00 00
	00		 add	 esi, 192		; 000000c0H
  00029	50		 push	 eax
  0002a	8b ce		 mov	 ecx, esi
  0002c	e8 00 00 00 00	 call	 ?DecryptValueToPool@?$CEncrypt@H@@QAEXPAH@Z ; CEncrypt<int>::DecryptValueToPool
  00031	ff 75 0c	 push	 DWORD PTR _value$512720[ebp]
  00034	8d 45 d4	 lea	 eax, DWORD PTR _szFace$[ebp]
  00037	50		 push	 eax
  00038	e8 00 00 00 00	 call	 ?GetFaceParts@RaceSetting@@YA?AVioHashString@@H@Z ; RaceSetting::GetFaceParts
  0003d	59		 pop	 ecx
  0003e	59		 pop	 ecx
  0003f	83 65 fc 00	 and	 DWORD PTR __$EHRec$[ebp+8], 0

; 718  : 	ioHashString szEffect = RaceSetting::GetFaceEffect( rkInfo.m_face );

  00043	8d 45 0c	 lea	 eax, DWORD PTR _value$512726[ebp]
  00046	50		 push	 eax
  00047	8b ce		 mov	 ecx, esi
  00049	e8 00 00 00 00	 call	 ?DecryptValueToPool@?$CEncrypt@H@@QAEXPAH@Z ; CEncrypt<int>::DecryptValueToPool
  0004e	ff 75 0c	 push	 DWORD PTR _value$512726[ebp]
  00051	8d 45 e4	 lea	 eax, DWORD PTR _szEffect$[ebp]
  00054	50		 push	 eax
  00055	e8 00 00 00 00	 call	 ?GetFaceEffect@RaceSetting@@YA?AVioHashString@@H@Z ; RaceSetting::GetFaceEffect
  0005a	59		 pop	 ecx
  0005b	59		 pop	 ecx

; 719  : 	pChar->SetDefaultFace( szFace, szEffect, rkInfo.m_face );

  0005c	8d 45 0c	 lea	 eax, DWORD PTR _value$512732[ebp]
  0005f	50		 push	 eax
  00060	8b ce		 mov	 ecx, esi
  00062	c6 45 fc 01	 mov	 BYTE PTR __$EHRec$[ebp+8], 1
  00066	e8 00 00 00 00	 call	 ?DecryptValueToPool@?$CEncrypt@H@@QAEXPAH@Z ; CEncrypt<int>::DecryptValueToPool
  0006b	ff 75 0c	 push	 DWORD PTR _value$512732[ebp]
  0006e	8b 4d 08	 mov	 ecx, DWORD PTR _pChar$[ebp]
  00071	8d 45 e4	 lea	 eax, DWORD PTR _szEffect$[ebp]
  00074	50		 push	 eax
  00075	8d 45 d4	 lea	 eax, DWORD PTR _szFace$[ebp]
  00078	50		 push	 eax
  00079	e8 00 00 00 00	 call	 ?SetDefaultFace@ioCreateChar@@QAEXABVioHashString@@0H@Z ; ioCreateChar::SetDefaultFace

; 720  : }

  0007e	8b 35 00 00 00
	00		 mov	 esi, DWORD PTR __imp_??1ioHashString@@QAE@XZ
  00084	8d 4d e4	 lea	 ecx, DWORD PTR _szEffect$[ebp]
  00087	c6 45 fc 00	 mov	 BYTE PTR __$EHRec$[ebp+8], 0
  0008b	ff d6		 call	 esi
  0008d	83 4d fc ff	 or	 DWORD PTR __$EHRec$[ebp+8], -1
  00091	8d 4d d4	 lea	 ecx, DWORD PTR _szFace$[ebp]
  00094	ff d6		 call	 esi
$LN2@ChangeFace:
  00096	e8 00 00 00 00	 call	 __EH_epilog3
  0009b	c2 08 00	 ret	 8
_TEXT	ENDS
;	COMDAT text$x
text$x	SEGMENT
__unwindfunclet$?ChangeFace@ioUI3DRender@@QAEXPAVioCreateChar@@ABUCHARACTER@@@Z$0:
  00000	8d 4d d4	 lea	 ecx, DWORD PTR _szFace$[ebp]
  00003	ff 25 00 00 00
	00		 jmp	 DWORD PTR __imp_??1ioHashString@@QAE@XZ
__unwindfunclet$?ChangeFace@ioUI3DRender@@QAEXPAVioCreateChar@@ABUCHARACTER@@@Z$1:
  00009	8d 4d e4	 lea	 ecx, DWORD PTR _szEffect$[ebp]
  0000c	ff 25 00 00 00
	00		 jmp	 DWORD PTR __imp_??1ioHashString@@QAE@XZ
__ehhandler$?ChangeFace@ioUI3DRender@@QAEXPAVioCreateChar@@ABUCHARACTER@@@Z:
  00012	8b 54 24 08	 mov	 edx, DWORD PTR [esp+8]
  00016	8d 42 0c	 lea	 eax, DWORD PTR [edx+12]
  00019	8b 4a d0	 mov	 ecx, DWORD PTR [edx-48]
  0001c	33 c8		 xor	 ecx, eax
  0001e	e8 00 00 00 00	 call	 @__security_check_cookie@4
  00023	b8 00 00 00 00	 mov	 eax, OFFSET __ehfuncinfo$?ChangeFace@ioUI3DRender@@QAEXPAVioCreateChar@@ABUCHARACTER@@@Z
  00028	e9 00 00 00 00	 jmp	 ___CxxFrameHandler3
text$x	ENDS
?ChangeFace@ioUI3DRender@@QAEXPAVioCreateChar@@ABUCHARACTER@@@Z ENDP ; ioUI3DRender::ChangeFace
PUBLIC	?ChangeHair@ioUI3DRender@@QAEXPAVioCreateChar@@ABUCHARACTER@@@Z ; ioUI3DRender::ChangeHair
EXTRN	?SetDefaultHair@ioCreateChar@@QAEXABVioHashString@@@Z:PROC ; ioCreateChar::SetDefaultHair
EXTRN	?GetHairParts@RaceSetting@@YA?AVioHashString@@H@Z:PROC ; RaceSetting::GetHairParts
;	COMDAT xdata$x
; File d:\lost saga for developer\youtube\tutorial\source\src\lsclient\encryptvalue.h
xdata$x	SEGMENT
__unwindtable$?ChangeHair@ioUI3DRender@@QAEXPAVioCreateChar@@ABUCHARACTER@@@Z DD 0ffffffffH
	DD	FLAT:__unwindfunclet$?ChangeHair@ioUI3DRender@@QAEXPAVioCreateChar@@ABUCHARACTER@@@Z$0
__ehfuncinfo$?ChangeHair@ioUI3DRender@@QAEXPAVioCreateChar@@ABUCHARACTER@@@Z DD 019930522H
	DD	01H
	DD	FLAT:__unwindtable$?ChangeHair@ioUI3DRender@@QAEXPAVioCreateChar@@ABUCHARACTER@@@Z
	DD	2 DUP(00H)
	DD	2 DUP(00H)
	DD	00H
	DD	01H
; Function compile flags: /Ogsp
; File d:\lost saga for developer\youtube\tutorial\source\src\lsclient\gui\ioui3drender.cpp
xdata$x	ENDS
;	COMDAT ?ChangeHair@ioUI3DRender@@QAEXPAVioCreateChar@@ABUCHARACTER@@@Z
_TEXT	SEGMENT
_szHair$ = -28						; size = 16
__$EHRec$ = -12						; size = 12
_pChar$ = 8						; size = 4
_value$512746 = 12					; size = 4
_rkInfo$ = 12						; size = 4
?ChangeHair@ioUI3DRender@@QAEXPAVioCreateChar@@ABUCHARACTER@@@Z PROC ; ioUI3DRender::ChangeHair, COMDAT
; _this$ = ecx

; 723  : {

  00000	6a 10		 push	 16			; 00000010H
  00002	b8 00 00 00 00	 mov	 eax, __ehhandler$?ChangeHair@ioUI3DRender@@QAEXPAVioCreateChar@@ABUCHARACTER@@@Z
  00007	e8 00 00 00 00	 call	 __EH_prolog3

; 724  : 	if( !pChar )	return;

  0000c	83 7d 08 00	 cmp	 DWORD PTR _pChar$[ebp], 0
  00010	74 44		 je	 SHORT $LN2@ChangeHair

; 725  : 
; 726  : 	RaceSetting::SetCurRaceDetail( rkInfo );

  00012	8b 75 0c	 mov	 esi, DWORD PTR _rkInfo$[ebp]
  00015	56		 push	 esi
  00016	e8 00 00 00 00	 call	 ?SetCurRaceDetail@RaceSetting@@YAXABUCHARACTER@@@Z ; RaceSetting::SetCurRaceDetail
  0001b	59		 pop	 ecx

; 727  : 
; 728  : 	ioHashString szHair = RaceSetting::GetHairParts( rkInfo.m_hair );

  0001c	8d 45 0c	 lea	 eax, DWORD PTR _value$512746[ebp]
  0001f	8d 8e f0 00 00
	00		 lea	 ecx, DWORD PTR [esi+240]
  00025	50		 push	 eax
  00026	e8 00 00 00 00	 call	 ?DecryptValueToPool@?$CEncrypt@H@@QAEXPAH@Z ; CEncrypt<int>::DecryptValueToPool
  0002b	ff 75 0c	 push	 DWORD PTR _value$512746[ebp]
  0002e	8d 45 e4	 lea	 eax, DWORD PTR _szHair$[ebp]
  00031	50		 push	 eax
  00032	e8 00 00 00 00	 call	 ?GetHairParts@RaceSetting@@YA?AVioHashString@@H@Z ; RaceSetting::GetHairParts
  00037	59		 pop	 ecx
  00038	59		 pop	 ecx

; 729  : 	pChar->SetDefaultHair( szHair );

  00039	8b 4d 08	 mov	 ecx, DWORD PTR _pChar$[ebp]
  0003c	83 65 fc 00	 and	 DWORD PTR __$EHRec$[ebp+8], 0
  00040	8d 45 e4	 lea	 eax, DWORD PTR _szHair$[ebp]
  00043	50		 push	 eax
  00044	e8 00 00 00 00	 call	 ?SetDefaultHair@ioCreateChar@@QAEXABVioHashString@@@Z ; ioCreateChar::SetDefaultHair

; 730  : }

  00049	83 4d fc ff	 or	 DWORD PTR __$EHRec$[ebp+8], -1
  0004d	8d 4d e4	 lea	 ecx, DWORD PTR _szHair$[ebp]
  00050	ff 15 00 00 00
	00		 call	 DWORD PTR __imp_??1ioHashString@@QAE@XZ
$LN2@ChangeHair:
  00056	e8 00 00 00 00	 call	 __EH_epilog3
  0005b	c2 08 00	 ret	 8
_TEXT	ENDS
;	COMDAT text$x
text$x	SEGMENT
__unwindfunclet$?ChangeHair@ioUI3DRender@@QAEXPAVioCreateChar@@ABUCHARACTER@@@Z$0:
  00000	8d 4d e4	 lea	 ecx, DWORD PTR _szHair$[ebp]
  00003	ff 25 00 00 00
	00		 jmp	 DWORD PTR __imp_??1ioHashString@@QAE@XZ
__ehhandler$?ChangeHair@ioUI3DRender@@QAEXPAVioCreateChar@@ABUCHARACTER@@@Z:
  00009	8b 54 24 08	 mov	 edx, DWORD PTR [esp+8]
  0000d	8d 42 0c	 lea	 eax, DWORD PTR [edx+12]
  00010	8b 4a e0	 mov	 ecx, DWORD PTR [edx-32]
  00013	33 c8		 xor	 ecx, eax
  00015	e8 00 00 00 00	 call	 @__security_check_cookie@4
  0001a	b8 00 00 00 00	 mov	 eax, OFFSET __ehfuncinfo$?ChangeHair@ioUI3DRender@@QAEXPAVioCreateChar@@ABUCHARACTER@@@Z
  0001f	e9 00 00 00 00	 jmp	 ___CxxFrameHandler3
text$x	ENDS
?ChangeHair@ioUI3DRender@@QAEXPAVioCreateChar@@ABUCHARACTER@@@Z ENDP ; ioUI3DRender::ChangeHair
PUBLIC	?ChangeAccessory@ioUI3DRender@@QAEXPAVioCreateChar@@ABUCHARACTER@@@Z ; ioUI3DRender::ChangeAccessory
EXTRN	?SetDefaultAccessory@ioCreateChar@@QAEXABVioHashString@@@Z:PROC ; ioCreateChar::SetDefaultAccessory
EXTRN	?GetAccessoryParts@RaceSetting@@YA?AVioHashString@@H@Z:PROC ; RaceSetting::GetAccessoryParts
;	COMDAT xdata$x
; File d:\lost saga for developer\youtube\tutorial\source\src\lsclient\encryptvalue.h
xdata$x	SEGMENT
__unwindtable$?ChangeAccessory@ioUI3DRender@@QAEXPAVioCreateChar@@ABUCHARACTER@@@Z DD 0ffffffffH
	DD	FLAT:__unwindfunclet$?ChangeAccessory@ioUI3DRender@@QAEXPAVioCreateChar@@ABUCHARACTER@@@Z$0
__ehfuncinfo$?ChangeAccessory@ioUI3DRender@@QAEXPAVioCreateChar@@ABUCHARACTER@@@Z DD 019930522H
	DD	01H
	DD	FLAT:__unwindtable$?ChangeAccessory@ioUI3DRender@@QAEXPAVioCreateChar@@ABUCHARACTER@@@Z
	DD	2 DUP(00H)
	DD	2 DUP(00H)
	DD	00H
	DD	01H
; Function compile flags: /Ogsp
; File d:\lost saga for developer\youtube\tutorial\source\src\lsclient\gui\ioui3drender.cpp
xdata$x	ENDS
;	COMDAT ?ChangeAccessory@ioUI3DRender@@QAEXPAVioCreateChar@@ABUCHARACTER@@@Z
_TEXT	SEGMENT
_szAccessories$ = -28					; size = 16
__$EHRec$ = -12						; size = 12
_pChar$ = 8						; size = 4
_value$512761 = 12					; size = 4
_rkInfo$ = 12						; size = 4
?ChangeAccessory@ioUI3DRender@@QAEXPAVioCreateChar@@ABUCHARACTER@@@Z PROC ; ioUI3DRender::ChangeAccessory, COMDAT
; _this$ = ecx

; 733  : {

  00000	6a 10		 push	 16			; 00000010H
  00002	b8 00 00 00 00	 mov	 eax, __ehhandler$?ChangeAccessory@ioUI3DRender@@QAEXPAVioCreateChar@@ABUCHARACTER@@@Z
  00007	e8 00 00 00 00	 call	 __EH_prolog3

; 734  : 	if( !pChar )	return;

  0000c	83 7d 08 00	 cmp	 DWORD PTR _pChar$[ebp], 0
  00010	74 44		 je	 SHORT $LN2@ChangeAcce

; 735  : 
; 736  : 	RaceSetting::SetCurRaceDetail( rkInfo );

  00012	8b 75 0c	 mov	 esi, DWORD PTR _rkInfo$[ebp]
  00015	56		 push	 esi
  00016	e8 00 00 00 00	 call	 ?SetCurRaceDetail@RaceSetting@@YAXABUCHARACTER@@@Z ; RaceSetting::SetCurRaceDetail
  0001b	59		 pop	 ecx

; 737  : 
; 738  : 	ioHashString szAccessories = RaceSetting::GetAccessoryParts( rkInfo.m_accessories );

  0001c	8d 45 0c	 lea	 eax, DWORD PTR _value$512761[ebp]
  0001f	8d 8e 80 01 00
	00		 lea	 ecx, DWORD PTR [esi+384]
  00025	50		 push	 eax
  00026	e8 00 00 00 00	 call	 ?DecryptValueToPool@?$CEncrypt@H@@QAEXPAH@Z ; CEncrypt<int>::DecryptValueToPool
  0002b	ff 75 0c	 push	 DWORD PTR _value$512761[ebp]
  0002e	8d 45 e4	 lea	 eax, DWORD PTR _szAccessories$[ebp]
  00031	50		 push	 eax
  00032	e8 00 00 00 00	 call	 ?GetAccessoryParts@RaceSetting@@YA?AVioHashString@@H@Z ; RaceSetting::GetAccessoryParts
  00037	59		 pop	 ecx
  00038	59		 pop	 ecx

; 739  : 	pChar->SetDefaultAccessory( szAccessories );

  00039	8b 4d 08	 mov	 ecx, DWORD PTR _pChar$[ebp]
  0003c	83 65 fc 00	 and	 DWORD PTR __$EHRec$[ebp+8], 0
  00040	8d 45 e4	 lea	 eax, DWORD PTR _szAccessories$[ebp]
  00043	50		 push	 eax
  00044	e8 00 00 00 00	 call	 ?SetDefaultAccessory@ioCreateChar@@QAEXABVioHashString@@@Z ; ioCreateChar::SetDefaultAccessory

; 740  : }

  00049	83 4d fc ff	 or	 DWORD PTR __$EHRec$[ebp+8], -1
  0004d	8d 4d e4	 lea	 ecx, DWORD PTR _szAccessories$[ebp]
  00050	ff 15 00 00 00
	00		 call	 DWORD PTR __imp_??1ioHashString@@QAE@XZ
$LN2@ChangeAcce:
  00056	e8 00 00 00 00	 call	 __EH_epilog3
  0005b	c2 08 00	 ret	 8
_TEXT	ENDS
;	COMDAT text$x
text$x	SEGMENT
__unwindfunclet$?ChangeAccessory@ioUI3DRender@@QAEXPAVioCreateChar@@ABUCHARACTER@@@Z$0:
  00000	8d 4d e4	 lea	 ecx, DWORD PTR _szAccessories$[ebp]
  00003	ff 25 00 00 00
	00		 jmp	 DWORD PTR __imp_??1ioHashString@@QAE@XZ
__ehhandler$?ChangeAccessory@ioUI3DRender@@QAEXPAVioCreateChar@@ABUCHARACTER@@@Z:
  00009	8b 54 24 08	 mov	 edx, DWORD PTR [esp+8]
  0000d	8d 42 0c	 lea	 eax, DWORD PTR [edx+12]
  00010	8b 4a e0	 mov	 ecx, DWORD PTR [edx-32]
  00013	33 c8		 xor	 ecx, eax
  00015	e8 00 00 00 00	 call	 @__security_check_cookie@4
  0001a	b8 00 00 00 00	 mov	 eax, OFFSET __ehfuncinfo$?ChangeAccessory@ioUI3DRender@@QAEXPAVioCreateChar@@ABUCHARACTER@@@Z
  0001f	e9 00 00 00 00	 jmp	 ___CxxFrameHandler3
text$x	ENDS
?ChangeAccessory@ioUI3DRender@@QAEXPAVioCreateChar@@ABUCHARACTER@@@Z ENDP ; ioUI3DRender::ChangeAccessory
PUBLIC	_pChar$GSCopy$
PUBLIC	__$ArrayPad$
PUBLIC	?ChangeSkinColor@ioUI3DRender@@QAEXPAVioCreateChar@@ABUCHARACTER@@@Z ; ioUI3DRender::ChangeSkinColor
EXTRN	?SetSkinColor@ioCreateChar@@QAEXABU_D3DCOLORVALUE@@0@Z:PROC ; ioCreateChar::SetSkinColor
EXTRN	?GetSkinOutLineColor@RaceSetting@@YA?AU_D3DCOLORVALUE@@H@Z:PROC ; RaceSetting::GetSkinOutLineColor
EXTRN	?GetSkinColor@RaceSetting@@YA?AU_D3DCOLORVALUE@@H@Z:PROC ; RaceSetting::GetSkinColor
; Function compile flags: /Ogsp
;	COMDAT ?ChangeSkinColor@ioUI3DRender@@QAEXPAVioCreateChar@@ABUCHARACTER@@@Z
_TEXT	SEGMENT
$T512774 = -60						; size = 16
$T512773 = -60						; size = 16
_pChar$GSCopy$ = -44					; size = 4
_value$512784 = -40					; size = 4
_value$512778 = -40					; size = 4
_kSkinColor$ = -36					; size = 16
_kSkinOutLineColor$ = -20				; size = 16
__$ArrayPad$ = -4					; size = 4
_pChar$ = 8						; size = 4
_rkInfo$ = 12						; size = 4
?ChangeSkinColor@ioUI3DRender@@QAEXPAVioCreateChar@@ABUCHARACTER@@@Z PROC ; ioUI3DRender::ChangeSkinColor, COMDAT
; _this$ = ecx

; 743  : {

  00000	55		 push	 ebp
  00001	8b ec		 mov	 ebp, esp
  00003	83 ec 3c	 sub	 esp, 60			; 0000003cH
  00006	a1 00 00 00 00	 mov	 eax, DWORD PTR ___security_cookie
  0000b	33 c5		 xor	 eax, ebp
  0000d	89 45 fc	 mov	 DWORD PTR __$ArrayPad$[ebp], eax
  00010	8b 45 08	 mov	 eax, DWORD PTR _pChar$[ebp]
  00013	56		 push	 esi
  00014	8b 75 0c	 mov	 esi, DWORD PTR _rkInfo$[ebp]

; 744  : 	if( !pChar )	return;
; 745  : 
; 746  : 	RaceSetting::SetCurRaceDetail( rkInfo );

  00017	89 45 d4	 mov	 DWORD PTR _pChar$GSCopy$[ebp], eax
  0001a	85 c0		 test	 eax, eax
  0001c	74 65		 je	 SHORT $LN2@ChangeSkin
  0001e	53		 push	 ebx
  0001f	57		 push	 edi
  00020	56		 push	 esi
  00021	e8 00 00 00 00	 call	 ?SetCurRaceDetail@RaceSetting@@YAXABUCHARACTER@@@Z ; RaceSetting::SetCurRaceDetail
  00026	59		 pop	 ecx

; 747  : 
; 748  : 	D3DCOLORVALUE kSkinColor = RaceSetting::GetSkinColor( rkInfo.m_skin_color );

  00027	8d 45 d8	 lea	 eax, DWORD PTR _value$512778[ebp]
  0002a	8d 9e 20 01 00
	00		 lea	 ebx, DWORD PTR [esi+288]
  00030	50		 push	 eax
  00031	8b cb		 mov	 ecx, ebx
  00033	e8 00 00 00 00	 call	 ?DecryptValueToPool@?$CEncrypt@H@@QAEXPAH@Z ; CEncrypt<int>::DecryptValueToPool
  00038	ff 75 d8	 push	 DWORD PTR _value$512778[ebp]
  0003b	8d 45 c4	 lea	 eax, DWORD PTR $T512773[ebp]
  0003e	50		 push	 eax
  0003f	e8 00 00 00 00	 call	 ?GetSkinColor@RaceSetting@@YA?AU_D3DCOLORVALUE@@H@Z ; RaceSetting::GetSkinColor
  00044	8b f0		 mov	 esi, eax
  00046	8d 7d dc	 lea	 edi, DWORD PTR _kSkinColor$[ebp]
  00049	a5		 movsd
  0004a	a5		 movsd
  0004b	59		 pop	 ecx
  0004c	a5		 movsd
  0004d	59		 pop	 ecx

; 749  : 	D3DCOLORVALUE kSkinOutLineColor = RaceSetting::GetSkinOutLineColor( rkInfo.m_skin_color );

  0004e	8d 45 d8	 lea	 eax, DWORD PTR _value$512784[ebp]
  00051	50		 push	 eax
  00052	8b cb		 mov	 ecx, ebx
  00054	a5		 movsd
  00055	e8 00 00 00 00	 call	 ?DecryptValueToPool@?$CEncrypt@H@@QAEXPAH@Z ; CEncrypt<int>::DecryptValueToPool
  0005a	ff 75 d8	 push	 DWORD PTR _value$512784[ebp]
  0005d	8d 45 c4	 lea	 eax, DWORD PTR $T512774[ebp]
  00060	50		 push	 eax
  00061	e8 00 00 00 00	 call	 ?GetSkinOutLineColor@RaceSetting@@YA?AU_D3DCOLORVALUE@@H@Z ; RaceSetting::GetSkinOutLineColor
  00066	8b f0		 mov	 esi, eax
  00068	8d 7d ec	 lea	 edi, DWORD PTR _kSkinOutLineColor$[ebp]
  0006b	a5		 movsd
  0006c	a5		 movsd
  0006d	59		 pop	 ecx
  0006e	59		 pop	 ecx

; 750  : 	pChar->SetSkinColor( kSkinColor, kSkinOutLineColor );

  0006f	8b 4d d4	 mov	 ecx, DWORD PTR _pChar$GSCopy$[ebp]
  00072	8d 45 ec	 lea	 eax, DWORD PTR _kSkinOutLineColor$[ebp]
  00075	a5		 movsd
  00076	50		 push	 eax
  00077	8d 45 dc	 lea	 eax, DWORD PTR _kSkinColor$[ebp]
  0007a	50		 push	 eax
  0007b	a5		 movsd
  0007c	e8 00 00 00 00	 call	 ?SetSkinColor@ioCreateChar@@QAEXABU_D3DCOLORVALUE@@0@Z ; ioCreateChar::SetSkinColor
  00081	5f		 pop	 edi
  00082	5b		 pop	 ebx
$LN2@ChangeSkin:

; 751  : }

  00083	8b 4d fc	 mov	 ecx, DWORD PTR __$ArrayPad$[ebp]
  00086	33 cd		 xor	 ecx, ebp
  00088	5e		 pop	 esi
  00089	e8 00 00 00 00	 call	 @__security_check_cookie@4
  0008e	c9		 leave
  0008f	c2 08 00	 ret	 8
?ChangeSkinColor@ioUI3DRender@@QAEXPAVioCreateChar@@ABUCHARACTER@@@Z ENDP ; ioUI3DRender::ChangeSkinColor
_TEXT	ENDS
PUBLIC	_pChar$GSCopy$
PUBLIC	?ChangeHairColor@ioUI3DRender@@QAEXPAVioCreateChar@@ABUCHARACTER@@@Z ; ioUI3DRender::ChangeHairColor
EXTRN	?SetBeardColor@ioCreateChar@@QAEXABVioHashString@@ABU_D3DCOLORVALUE@@@Z:PROC ; ioCreateChar::SetBeardColor
EXTRN	?GetBeardOutLineColor@RaceSetting@@YA?AU_D3DCOLORVALUE@@HH@Z:PROC ; RaceSetting::GetBeardOutLineColor
EXTRN	?GetBeardColorTex@RaceSetting@@YA?AVioHashString@@HH@Z:PROC ; RaceSetting::GetBeardColorTex
EXTRN	__imp_?IsEmpty@ioHashString@@QBE_NXZ:PROC
EXTRN	?SetHairColor@ioCreateChar@@QAEXABVioHashString@@ABU_D3DCOLORVALUE@@@Z:PROC ; ioCreateChar::SetHairColor
EXTRN	?GetHairOutLineColor@RaceSetting@@YA?AU_D3DCOLORVALUE@@HH@Z:PROC ; RaceSetting::GetHairOutLineColor
EXTRN	?GetHairColorTex@RaceSetting@@YA?AVioHashString@@HH@Z:PROC ; RaceSetting::GetHairColorTex
;	COMDAT xdata$x
; File d:\lost saga for developer\youtube\tutorial\source\src\lsclient\encryptvalue.h
xdata$x	SEGMENT
__unwindtable$?ChangeHairColor@ioUI3DRender@@QAEXPAVioCreateChar@@ABUCHARACTER@@@Z DD 0ffffffffH
	DD	FLAT:__unwindfunclet$?ChangeHairColor@ioUI3DRender@@QAEXPAVioCreateChar@@ABUCHARACTER@@@Z$0
	DD	00H
	DD	FLAT:__unwindfunclet$?ChangeHairColor@ioUI3DRender@@QAEXPAVioCreateChar@@ABUCHARACTER@@@Z$1
__ehfuncinfo$?ChangeHairColor@ioUI3DRender@@QAEXPAVioCreateChar@@ABUCHARACTER@@@Z DD 019930522H
	DD	02H
	DD	FLAT:__unwindtable$?ChangeHairColor@ioUI3DRender@@QAEXPAVioCreateChar@@ABUCHARACTER@@@Z
	DD	2 DUP(00H)
	DD	2 DUP(00H)
	DD	00H
	DD	01H
; Function compile flags: /Ogsp
; File d:\lost saga for developer\youtube\tutorial\source\src\lsclient\gui\ioui3drender.cpp
xdata$x	ENDS
;	COMDAT ?ChangeHairColor@ioUI3DRender@@QAEXPAVioCreateChar@@ABUCHARACTER@@@Z
_TEXT	SEGMENT
$T512794 = -80						; size = 16
$T512793 = -80						; size = 16
$T512792 = -80						; size = 16
_szColorTex$ = -64					; size = 16
_pChar$GSCopy$ = -48					; size = 4
tv225 = -44						; size = 4
_value$512849 = -40					; size = 4
_value$512837 = -40					; size = 4
_value$512817 = -40					; size = 4
_value$512800 = -40					; size = 4
_value$512843 = -36					; size = 4
_value$512831 = -36					; size = 4
_value$512823 = -36					; size = 4
_value$512812 = -36					; size = 4
_value$512806 = -36					; size = 4
_kOutLineColor$ = -32					; size = 16
__$EHRec$ = -12						; size = 12
_pChar$ = 8						; size = 4
_rkInfo$ = 12						; size = 4
?ChangeHairColor@ioUI3DRender@@QAEXPAVioCreateChar@@ABUCHARACTER@@@Z PROC ; ioUI3DRender::ChangeHairColor, COMDAT
; _this$ = ecx

; 754  : {

  00000	6a 44		 push	 68			; 00000044H
  00002	b8 00 00 00 00	 mov	 eax, __ehhandler$?ChangeHairColor@ioUI3DRender@@QAEXPAVioCreateChar@@ABUCHARACTER@@@Z
  00007	e8 00 00 00 00	 call	 __EH_prolog3_GS
  0000c	8b 45 08	 mov	 eax, DWORD PTR _pChar$[ebp]
  0000f	8b 5d 0c	 mov	 ebx, DWORD PTR _rkInfo$[ebp]

; 755  : 	if( !pChar )	return;
; 756  : 
; 757  : 	RaceSetting::SetCurRaceDetail( rkInfo );

  00012	89 45 d0	 mov	 DWORD PTR _pChar$GSCopy$[ebp], eax
  00015	85 c0		 test	 eax, eax
  00017	0f 84 47 01 00
	00		 je	 $LN3@ChangeHair@2
  0001d	53		 push	 ebx
  0001e	e8 00 00 00 00	 call	 ?SetCurRaceDetail@RaceSetting@@YAXABUCHARACTER@@@Z ; RaceSetting::SetCurRaceDetail
  00023	59		 pop	 ecx

; 758  : 	
; 759  : 	ioHashString szColorTex = RaceSetting::GetHairColorTex( rkInfo.m_hair, rkInfo.m_hair_color );

  00024	8d b3 50 01 00
	00		 lea	 esi, DWORD PTR [ebx+336]
  0002a	8d 45 d8	 lea	 eax, DWORD PTR _value$512800[ebp]
  0002d	50		 push	 eax
  0002e	8b ce		 mov	 ecx, esi
  00030	89 75 d4	 mov	 DWORD PTR tv225[ebp], esi
  00033	e8 00 00 00 00	 call	 ?DecryptValueToPool@?$CEncrypt@H@@QAEXPAH@Z ; CEncrypt<int>::DecryptValueToPool
  00038	8d 45 dc	 lea	 eax, DWORD PTR _value$512806[ebp]
  0003b	50		 push	 eax
  0003c	8d 8b f0 00 00
	00		 lea	 ecx, DWORD PTR [ebx+240]
  00042	e8 00 00 00 00	 call	 ?DecryptValueToPool@?$CEncrypt@H@@QAEXPAH@Z ; CEncrypt<int>::DecryptValueToPool
  00047	ff 75 d8	 push	 DWORD PTR _value$512800[ebp]
  0004a	8d 45 c0	 lea	 eax, DWORD PTR _szColorTex$[ebp]
  0004d	ff 75 dc	 push	 DWORD PTR _value$512806[ebp]
  00050	50		 push	 eax
  00051	e8 00 00 00 00	 call	 ?GetHairColorTex@RaceSetting@@YA?AVioHashString@@HH@Z ; RaceSetting::GetHairColorTex
  00056	83 c4 0c	 add	 esp, 12			; 0000000cH
  00059	83 65 fc 00	 and	 DWORD PTR __$EHRec$[ebp+8], 0

; 760  : 	D3DCOLORVALUE kOutLineColor = RaceSetting::GetHairOutLineColor( rkInfo.m_hair, rkInfo.m_hair_color );

  0005d	8d 45 dc	 lea	 eax, DWORD PTR _value$512812[ebp]
  00060	50		 push	 eax
  00061	8b ce		 mov	 ecx, esi
  00063	e8 00 00 00 00	 call	 ?DecryptValueToPool@?$CEncrypt@H@@QAEXPAH@Z ; CEncrypt<int>::DecryptValueToPool
  00068	8d 45 d8	 lea	 eax, DWORD PTR _value$512817[ebp]
  0006b	50		 push	 eax
  0006c	8d 8b f0 00 00
	00		 lea	 ecx, DWORD PTR [ebx+240]
  00072	e8 00 00 00 00	 call	 ?DecryptValueToPool@?$CEncrypt@H@@QAEXPAH@Z ; CEncrypt<int>::DecryptValueToPool
  00077	ff 75 dc	 push	 DWORD PTR _value$512812[ebp]
  0007a	8d 45 b0	 lea	 eax, DWORD PTR $T512792[ebp]
  0007d	ff 75 d8	 push	 DWORD PTR _value$512817[ebp]
  00080	50		 push	 eax
  00081	e8 00 00 00 00	 call	 ?GetHairOutLineColor@RaceSetting@@YA?AU_D3DCOLORVALUE@@HH@Z ; RaceSetting::GetHairOutLineColor
  00086	8b f0		 mov	 esi, eax
  00088	8d 7d e0	 lea	 edi, DWORD PTR _kOutLineColor$[ebp]
  0008b	a5		 movsd
  0008c	a5		 movsd
  0008d	a5		 movsd
  0008e	83 c4 0c	 add	 esp, 12			; 0000000cH

; 761  : 	pChar->SetHairColor( szColorTex, kOutLineColor );

  00091	8d 45 e0	 lea	 eax, DWORD PTR _kOutLineColor$[ebp]
  00094	50		 push	 eax
  00095	a5		 movsd
  00096	8b 7d d0	 mov	 edi, DWORD PTR _pChar$GSCopy$[ebp]
  00099	8d 45 c0	 lea	 eax, DWORD PTR _szColorTex$[ebp]
  0009c	50		 push	 eax
  0009d	8b cf		 mov	 ecx, edi
  0009f	e8 00 00 00 00	 call	 ?SetHairColor@ioCreateChar@@QAEXABVioHashString@@ABU_D3DCOLORVALUE@@@Z ; ioCreateChar::SetHairColor

; 762  : 
; 763  : 	if( rkInfo.m_beard > 0 && !pChar->GetDefaultBeardMesh().IsEmpty() )

  000a4	8d 45 dc	 lea	 eax, DWORD PTR _value$512823[ebp]
  000a7	8d b3 90 00 00
	00		 lea	 esi, DWORD PTR [ebx+144]
  000ad	50		 push	 eax
  000ae	8b ce		 mov	 ecx, esi
  000b0	e8 00 00 00 00	 call	 ?DecryptValueToPool@?$CEncrypt@H@@QAEXPAH@Z ; CEncrypt<int>::DecryptValueToPool
  000b5	83 7d dc 00	 cmp	 DWORD PTR _value$512823[ebp], 0
  000b9	8b 1d 00 00 00
	00		 mov	 ebx, DWORD PTR __imp_??1ioHashString@@QAE@XZ
  000bf	0f 8e 96 00 00
	00		 jle	 $LN1@ChangeHair@2
  000c5	8d 8f 80 01 00
	00		 lea	 ecx, DWORD PTR [edi+384]
  000cb	ff 15 00 00 00
	00		 call	 DWORD PTR __imp_?IsEmpty@ioHashString@@QBE_NXZ
  000d1	84 c0		 test	 al, al
  000d3	0f 85 82 00 00
	00		 jne	 $LN1@ChangeHair@2

; 764  : 	{
; 765  : 		szColorTex    = RaceSetting::GetBeardColorTex( rkInfo.m_beard, rkInfo.m_hair_color );

  000d9	8b 4d d4	 mov	 ecx, DWORD PTR tv225[ebp]
  000dc	8d 45 dc	 lea	 eax, DWORD PTR _value$512831[ebp]
  000df	50		 push	 eax
  000e0	e8 00 00 00 00	 call	 ?DecryptValueToPool@?$CEncrypt@H@@QAEXPAH@Z ; CEncrypt<int>::DecryptValueToPool
  000e5	8d 45 d8	 lea	 eax, DWORD PTR _value$512837[ebp]
  000e8	50		 push	 eax
  000e9	8b ce		 mov	 ecx, esi
  000eb	e8 00 00 00 00	 call	 ?DecryptValueToPool@?$CEncrypt@H@@QAEXPAH@Z ; CEncrypt<int>::DecryptValueToPool
  000f0	ff 75 dc	 push	 DWORD PTR _value$512831[ebp]
  000f3	8d 45 b0	 lea	 eax, DWORD PTR $T512793[ebp]
  000f6	ff 75 d8	 push	 DWORD PTR _value$512837[ebp]
  000f9	50		 push	 eax
  000fa	e8 00 00 00 00	 call	 ?GetBeardColorTex@RaceSetting@@YA?AVioHashString@@HH@Z ; RaceSetting::GetBeardColorTex
  000ff	83 c4 0c	 add	 esp, 12			; 0000000cH
  00102	50		 push	 eax
  00103	8d 4d c0	 lea	 ecx, DWORD PTR _szColorTex$[ebp]
  00106	c6 45 fc 01	 mov	 BYTE PTR __$EHRec$[ebp+8], 1
  0010a	ff 15 00 00 00
	00		 call	 DWORD PTR __imp_??4ioHashString@@QAEAAV0@ABV0@@Z
  00110	8d 4d b0	 lea	 ecx, DWORD PTR $T512793[ebp]
  00113	c6 45 fc 00	 mov	 BYTE PTR __$EHRec$[ebp+8], 0
  00117	ff d3		 call	 ebx

; 766  : 		kOutLineColor = RaceSetting::GetBeardOutLineColor( rkInfo.m_beard, rkInfo.m_hair_color );

  00119	8b 4d d4	 mov	 ecx, DWORD PTR tv225[ebp]
  0011c	8d 45 dc	 lea	 eax, DWORD PTR _value$512843[ebp]
  0011f	50		 push	 eax
  00120	e8 00 00 00 00	 call	 ?DecryptValueToPool@?$CEncrypt@H@@QAEXPAH@Z ; CEncrypt<int>::DecryptValueToPool
  00125	8d 45 d8	 lea	 eax, DWORD PTR _value$512849[ebp]
  00128	50		 push	 eax
  00129	8b ce		 mov	 ecx, esi
  0012b	e8 00 00 00 00	 call	 ?DecryptValueToPool@?$CEncrypt@H@@QAEXPAH@Z ; CEncrypt<int>::DecryptValueToPool
  00130	ff 75 dc	 push	 DWORD PTR _value$512843[ebp]
  00133	8d 45 b0	 lea	 eax, DWORD PTR $T512794[ebp]
  00136	ff 75 d8	 push	 DWORD PTR _value$512849[ebp]
  00139	50		 push	 eax
  0013a	e8 00 00 00 00	 call	 ?GetBeardOutLineColor@RaceSetting@@YA?AU_D3DCOLORVALUE@@HH@Z ; RaceSetting::GetBeardOutLineColor

; 767  : 		pChar->SetBeardColor( szColorTex, kOutLineColor );

  0013f	8b 4d d0	 mov	 ecx, DWORD PTR _pChar$GSCopy$[ebp]
  00142	8b f0		 mov	 esi, eax
  00144	8d 7d e0	 lea	 edi, DWORD PTR _kOutLineColor$[ebp]
  00147	a5		 movsd
  00148	a5		 movsd
  00149	83 c4 0c	 add	 esp, 12			; 0000000cH
  0014c	8d 45 e0	 lea	 eax, DWORD PTR _kOutLineColor$[ebp]
  0014f	a5		 movsd
  00150	50		 push	 eax
  00151	8d 45 c0	 lea	 eax, DWORD PTR _szColorTex$[ebp]
  00154	50		 push	 eax
  00155	a5		 movsd
  00156	e8 00 00 00 00	 call	 ?SetBeardColor@ioCreateChar@@QAEXABVioHashString@@ABU_D3DCOLORVALUE@@@Z ; ioCreateChar::SetBeardColor
$LN1@ChangeHair@2:

; 768  : 	}
; 769  : }

  0015b	83 4d fc ff	 or	 DWORD PTR __$EHRec$[ebp+8], -1
  0015f	8d 4d c0	 lea	 ecx, DWORD PTR _szColorTex$[ebp]
  00162	ff d3		 call	 ebx
$LN3@ChangeHair@2:
  00164	e8 00 00 00 00	 call	 __EH_epilog3_GS
  00169	c2 08 00	 ret	 8
_TEXT	ENDS
;	COMDAT text$x
text$x	SEGMENT
__unwindfunclet$?ChangeHairColor@ioUI3DRender@@QAEXPAVioCreateChar@@ABUCHARACTER@@@Z$0:
  00000	8d 4d c0	 lea	 ecx, DWORD PTR _szColorTex$[ebp]
  00003	ff 25 00 00 00
	00		 jmp	 DWORD PTR __imp_??1ioHashString@@QAE@XZ
__unwindfunclet$?ChangeHairColor@ioUI3DRender@@QAEXPAVioCreateChar@@ABUCHARACTER@@@Z$1:
  00009	8d 4d b0	 lea	 ecx, DWORD PTR $T512793[ebp]
  0000c	ff 25 00 00 00
	00		 jmp	 DWORD PTR __imp_??1ioHashString@@QAE@XZ
__ehhandler$?ChangeHairColor@ioUI3DRender@@QAEXPAVioCreateChar@@ABUCHARACTER@@@Z:
  00012	8b 54 24 08	 mov	 edx, DWORD PTR [esp+8]
  00016	8d 42 0c	 lea	 eax, DWORD PTR [edx+12]
  00019	8b 4a ac	 mov	 ecx, DWORD PTR [edx-84]
  0001c	33 c8		 xor	 ecx, eax
  0001e	e8 00 00 00 00	 call	 @__security_check_cookie@4
  00023	8b 4a fc	 mov	 ecx, DWORD PTR [edx-4]
  00026	33 c8		 xor	 ecx, eax
  00028	e8 00 00 00 00	 call	 @__security_check_cookie@4
  0002d	b8 00 00 00 00	 mov	 eax, OFFSET __ehfuncinfo$?ChangeHairColor@ioUI3DRender@@QAEXPAVioCreateChar@@ABUCHARACTER@@@Z
  00032	e9 00 00 00 00	 jmp	 ___CxxFrameHandler3
text$x	ENDS
?ChangeHairColor@ioUI3DRender@@QAEXPAVioCreateChar@@ABUCHARACTER@@@Z ENDP ; ioUI3DRender::ChangeHairColor
PUBLIC	?ChangeUnderwear@ioUI3DRender@@QAEXPAVioCreateChar@@ABUCHARACTER@@@Z ; ioUI3DRender::ChangeUnderwear
EXTRN	?SetDefaultUnderwear@ioCreateChar@@QAEXABVioHashString@@@Z:PROC ; ioCreateChar::SetDefaultUnderwear
EXTRN	?GetUnderwearParts@RaceSetting@@YA?AVioHashString@@H@Z:PROC ; RaceSetting::GetUnderwearParts
;	COMDAT xdata$x
; File d:\lost saga for developer\youtube\tutorial\source\src\lsclient\encryptvalue.h
xdata$x	SEGMENT
__unwindtable$?ChangeUnderwear@ioUI3DRender@@QAEXPAVioCreateChar@@ABUCHARACTER@@@Z DD 0ffffffffH
	DD	FLAT:__unwindfunclet$?ChangeUnderwear@ioUI3DRender@@QAEXPAVioCreateChar@@ABUCHARACTER@@@Z$0
__ehfuncinfo$?ChangeUnderwear@ioUI3DRender@@QAEXPAVioCreateChar@@ABUCHARACTER@@@Z DD 019930522H
	DD	01H
	DD	FLAT:__unwindtable$?ChangeUnderwear@ioUI3DRender@@QAEXPAVioCreateChar@@ABUCHARACTER@@@Z
	DD	2 DUP(00H)
	DD	2 DUP(00H)
	DD	00H
	DD	01H
; Function compile flags: /Ogsp
; File d:\lost saga for developer\youtube\tutorial\source\src\lsclient\gui\ioui3drender.cpp
xdata$x	ENDS
;	COMDAT ?ChangeUnderwear@ioUI3DRender@@QAEXPAVioCreateChar@@ABUCHARACTER@@@Z
_TEXT	SEGMENT
_szUnderwear$ = -28					; size = 16
__$EHRec$ = -12						; size = 12
_pChar$ = 8						; size = 4
_value$512866 = 12					; size = 4
_rkInfo$ = 12						; size = 4
?ChangeUnderwear@ioUI3DRender@@QAEXPAVioCreateChar@@ABUCHARACTER@@@Z PROC ; ioUI3DRender::ChangeUnderwear, COMDAT
; _this$ = ecx

; 772  : {

  00000	6a 10		 push	 16			; 00000010H
  00002	b8 00 00 00 00	 mov	 eax, __ehhandler$?ChangeUnderwear@ioUI3DRender@@QAEXPAVioCreateChar@@ABUCHARACTER@@@Z
  00007	e8 00 00 00 00	 call	 __EH_prolog3

; 773  : 	if( !pChar )	return;

  0000c	83 7d 08 00	 cmp	 DWORD PTR _pChar$[ebp], 0
  00010	74 44		 je	 SHORT $LN2@ChangeUnde

; 774  : 
; 775  : 	RaceSetting::SetCurRaceDetail( rkInfo );

  00012	8b 75 0c	 mov	 esi, DWORD PTR _rkInfo$[ebp]
  00015	56		 push	 esi
  00016	e8 00 00 00 00	 call	 ?SetCurRaceDetail@RaceSetting@@YAXABUCHARACTER@@@Z ; RaceSetting::SetCurRaceDetail
  0001b	59		 pop	 ecx

; 776  : 
; 777  : 	ioHashString szUnderwear = RaceSetting::GetUnderwearParts( rkInfo.m_underwear );

  0001c	8d 45 0c	 lea	 eax, DWORD PTR _value$512866[ebp]
  0001f	8d 8e b0 01 00
	00		 lea	 ecx, DWORD PTR [esi+432]
  00025	50		 push	 eax
  00026	e8 00 00 00 00	 call	 ?DecryptValueToPool@?$CEncrypt@H@@QAEXPAH@Z ; CEncrypt<int>::DecryptValueToPool
  0002b	ff 75 0c	 push	 DWORD PTR _value$512866[ebp]
  0002e	8d 45 e4	 lea	 eax, DWORD PTR _szUnderwear$[ebp]
  00031	50		 push	 eax
  00032	e8 00 00 00 00	 call	 ?GetUnderwearParts@RaceSetting@@YA?AVioHashString@@H@Z ; RaceSetting::GetUnderwearParts
  00037	59		 pop	 ecx
  00038	59		 pop	 ecx

; 778  : 	pChar->SetDefaultUnderwear( szUnderwear );

  00039	8b 4d 08	 mov	 ecx, DWORD PTR _pChar$[ebp]
  0003c	83 65 fc 00	 and	 DWORD PTR __$EHRec$[ebp+8], 0
  00040	8d 45 e4	 lea	 eax, DWORD PTR _szUnderwear$[ebp]
  00043	50		 push	 eax
  00044	e8 00 00 00 00	 call	 ?SetDefaultUnderwear@ioCreateChar@@QAEXABVioHashString@@@Z ; ioCreateChar::SetDefaultUnderwear

; 779  : }

  00049	83 4d fc ff	 or	 DWORD PTR __$EHRec$[ebp+8], -1
  0004d	8d 4d e4	 lea	 ecx, DWORD PTR _szUnderwear$[ebp]
  00050	ff 15 00 00 00
	00		 call	 DWORD PTR __imp_??1ioHashString@@QAE@XZ
$LN2@ChangeUnde:
  00056	e8 00 00 00 00	 call	 __EH_epilog3
  0005b	c2 08 00	 ret	 8
_TEXT	ENDS
;	COMDAT text$x
text$x	SEGMENT
__unwindfunclet$?ChangeUnderwear@ioUI3DRender@@QAEXPAVioCreateChar@@ABUCHARACTER@@@Z$0:
  00000	8d 4d e4	 lea	 ecx, DWORD PTR _szUnderwear$[ebp]
  00003	ff 25 00 00 00
	00		 jmp	 DWORD PTR __imp_??1ioHashString@@QAE@XZ
__ehhandler$?ChangeUnderwear@ioUI3DRender@@QAEXPAVioCreateChar@@ABUCHARACTER@@@Z:
  00009	8b 54 24 08	 mov	 edx, DWORD PTR [esp+8]
  0000d	8d 42 0c	 lea	 eax, DWORD PTR [edx+12]
  00010	8b 4a e0	 mov	 ecx, DWORD PTR [edx-32]
  00013	33 c8		 xor	 ecx, eax
  00015	e8 00 00 00 00	 call	 @__security_check_cookie@4
  0001a	b8 00 00 00 00	 mov	 eax, OFFSET __ehfuncinfo$?ChangeUnderwear@ioUI3DRender@@QAEXPAVioCreateChar@@ABUCHARACTER@@@Z
  0001f	e9 00 00 00 00	 jmp	 ___CxxFrameHandler3
text$x	ENDS
?ChangeUnderwear@ioUI3DRender@@QAEXPAVioCreateChar@@ABUCHARACTER@@@Z ENDP ; ioUI3DRender::ChangeUnderwear
PUBLIC	?begin@?$_Tree@V?$_Tset_traits@PAVioSceneManager@@U?$less@PAVioSceneManager@@@std@@V?$allocator@PAVioSceneManager@@@3@$0A@@std@@@std@@QAE?AV?$_Tree_const_iterator@V?$_Tree_val@V?$_Tset_traits@PAVioSceneManager@@U?$less@PAVioSceneManager@@@std@@V?$allocator@PAVioSceneManager@@@3@$0A@@std@@@std@@@2@XZ ; std::_Tree<std::_Tset_traits<ioSceneManager *,std::less<ioSceneManager *>,std::allocator<ioSceneManager *>,0> >::begin
; Function compile flags: /Ogsp
; File c:\program files (x86)\microsoft visual studio 10.0\vc\include\xtree
;	COMDAT ?begin@?$_Tree@V?$_Tset_traits@PAVioSceneManager@@U?$less@PAVioSceneManager@@@std@@V?$allocator@PAVioSceneManager@@@3@$0A@@std@@@std@@QAE?AV?$_Tree_const_iterator@V?$_Tree_val@V?$_Tset_traits@PAVioSceneManager@@U?$less@PAVioSceneManager@@@std@@V?$allocator@PAVioSceneManager@@@3@$0A@@std@@@std@@@2@XZ
_TEXT	SEGMENT
___$ReturnUdt$ = 8					; size = 4
?begin@?$_Tree@V?$_Tset_traits@PAVioSceneManager@@U?$less@PAVioSceneManager@@@std@@V?$allocator@PAVioSceneManager@@@3@$0A@@std@@@std@@QAE?AV?$_Tree_const_iterator@V?$_Tree_val@V?$_Tset_traits@PAVioSceneManager@@U?$less@PAVioSceneManager@@@std@@V?$allocator@PAVioSceneManager@@@3@$0A@@std@@@std@@@2@XZ PROC ; std::_Tree<std::_Tset_traits<ioSceneManager *,std::less<ioSceneManager *>,std::allocator<ioSceneManager *>,0> >::begin, COMDAT
; _this$ = ecx

; 806  : 		{	// return iterator for beginning of mutable sequence

  00000	55		 push	 ebp
  00001	8b ec		 mov	 ebp, esp

; 807  : 		return (iterator(_Lmost(), this));

  00003	8b 41 04	 mov	 eax, DWORD PTR [ecx+4]
  00006	8b 08		 mov	 ecx, DWORD PTR [eax]
  00008	8b 45 08	 mov	 eax, DWORD PTR ___$ReturnUdt$[ebp]
  0000b	89 08		 mov	 DWORD PTR [eax], ecx

; 808  : 		}

  0000d	5d		 pop	 ebp
  0000e	c2 04 00	 ret	 4
?begin@?$_Tree@V?$_Tset_traits@PAVioSceneManager@@U?$less@PAVioSceneManager@@@std@@V?$allocator@PAVioSceneManager@@@3@$0A@@std@@@std@@QAE?AV?$_Tree_const_iterator@V?$_Tree_val@V?$_Tset_traits@PAVioSceneManager@@U?$less@PAVioSceneManager@@@std@@V?$allocator@PAVioSceneManager@@@3@$0A@@std@@@std@@@2@XZ ENDP ; std::_Tree<std::_Tset_traits<ioSceneManager *,std::less<ioSceneManager *>,std::allocator<ioSceneManager *>,0> >::begin
_TEXT	ENDS
PUBLIC	?end@?$_Tree@V?$_Tset_traits@PAVioSceneManager@@U?$less@PAVioSceneManager@@@std@@V?$allocator@PAVioSceneManager@@@3@$0A@@std@@@std@@QAE?AV?$_Tree_const_iterator@V?$_Tree_val@V?$_Tset_traits@PAVioSceneManager@@U?$less@PAVioSceneManager@@@std@@V?$allocator@PAVioSceneManager@@@3@$0A@@std@@@std@@@2@XZ ; std::_Tree<std::_Tset_traits<ioSceneManager *,std::less<ioSceneManager *>,std::allocator<ioSceneManager *>,0> >::end
; Function compile flags: /Ogsp
;	COMDAT ?end@?$_Tree@V?$_Tset_traits@PAVioSceneManager@@U?$less@PAVioSceneManager@@@std@@V?$allocator@PAVioSceneManager@@@3@$0A@@std@@@std@@QAE?AV?$_Tree_const_iterator@V?$_Tree_val@V?$_Tset_traits@PAVioSceneManager@@U?$less@PAVioSceneManager@@@std@@V?$allocator@PAVioSceneManager@@@3@$0A@@std@@@std@@@2@XZ
_TEXT	SEGMENT
___$ReturnUdt$ = 8					; size = 4
?end@?$_Tree@V?$_Tset_traits@PAVioSceneManager@@U?$less@PAVioSceneManager@@@std@@V?$allocator@PAVioSceneManager@@@3@$0A@@std@@@std@@QAE?AV?$_Tree_const_iterator@V?$_Tree_val@V?$_Tset_traits@PAVioSceneManager@@U?$less@PAVioSceneManager@@@std@@V?$allocator@PAVioSceneManager@@@3@$0A@@std@@@std@@@2@XZ PROC ; std::_Tree<std::_Tset_traits<ioSceneManager *,std::less<ioSceneManager *>,std::allocator<ioSceneManager *>,0> >::end, COMDAT
; _this$ = ecx

; 816  : 		{	// return iterator for end of mutable sequence

  00000	55		 push	 ebp
  00001	8b ec		 mov	 ebp, esp

; 817  : 		return (iterator(this->_Myhead, this));

  00003	8b 49 04	 mov	 ecx, DWORD PTR [ecx+4]
  00006	8b 45 08	 mov	 eax, DWORD PTR ___$ReturnUdt$[ebp]
  00009	89 08		 mov	 DWORD PTR [eax], ecx

; 818  : 		}

  0000b	5d		 pop	 ebp
  0000c	c2 04 00	 ret	 4
?end@?$_Tree@V?$_Tset_traits@PAVioSceneManager@@U?$less@PAVioSceneManager@@@std@@V?$allocator@PAVioSceneManager@@@3@$0A@@std@@@std@@QAE?AV?$_Tree_const_iterator@V?$_Tree_val@V?$_Tset_traits@PAVioSceneManager@@U?$less@PAVioSceneManager@@@std@@V?$allocator@PAVioSceneManager@@@3@$0A@@std@@@std@@@2@XZ ENDP ; std::_Tree<std::_Tset_traits<ioSceneManager *,std::less<ioSceneManager *>,std::allocator<ioSceneManager *>,0> >::end
_TEXT	ENDS
PUBLIC	??E?$_Tree_const_iterator@V?$_Tree_val@V?$_Tset_traits@PAVioSceneManager@@U?$less@PAVioSceneManager@@@std@@V?$allocator@PAVioSceneManager@@@3@$0A@@std@@@std@@@std@@QAEAAV01@XZ ; std::_Tree_const_iterator<std::_Tree_val<std::_Tset_traits<ioSceneManager *,std::less<ioSceneManager *>,std::allocator<ioSceneManager *>,0> > >::operator++
; Function compile flags: /Ogsp
;	COMDAT ??E?$_Tree_const_iterator@V?$_Tree_val@V?$_Tset_traits@PAVioSceneManager@@U?$less@PAVioSceneManager@@@std@@V?$allocator@PAVioSceneManager@@@3@$0A@@std@@@std@@@std@@QAEAAV01@XZ
_TEXT	SEGMENT
??E?$_Tree_const_iterator@V?$_Tree_val@V?$_Tset_traits@PAVioSceneManager@@U?$less@PAVioSceneManager@@@std@@V?$allocator@PAVioSceneManager@@@3@$0A@@std@@@std@@@std@@QAEAAV01@XZ PROC ; std::_Tree_const_iterator<std::_Tree_val<std::_Tset_traits<ioSceneManager *,std::less<ioSceneManager *>,std::allocator<ioSceneManager *>,0> > >::operator++, COMDAT
; _this$ = ecx

; 250  : 		{	// preincrement

  00000	56		 push	 esi
  00001	8b f1		 mov	 esi, ecx

; 251  :  #if _ITERATOR_DEBUG_LEVEL == 2
; 252  : 		if (this->_Getcont() == 0
; 253  : 			|| this->_Ptr == 0
; 254  : 			|| _Mytree::_Isnil(this->_Ptr))
; 255  : 			{	// report error
; 256  : 			_DEBUG_ERROR("map/set iterator not incrementable");
; 257  : 			_SCL_SECURE_OUT_OF_RANGE;
; 258  : 			}
; 259  : 
; 260  :  #elif _ITERATOR_DEBUG_LEVEL == 1
; 261  : 		_SCL_SECURE_VALIDATE(this->_Getcont() != 0 && this->_Ptr != 0);
; 262  : 		_SCL_SECURE_VALIDATE_RANGE(!_Mytree::_Isnil(this->_Ptr));
; 263  :  #endif /* _ITERATOR_DEBUG_LEVEL */
; 264  : 
; 265  : 		++(*(_Mybase *)this);

  00003	e8 00 00 00 00	 call	 ??E?$_Tree_unchecked_const_iterator@V?$_Tree_val@V?$_Tset_traits@PAVioSceneManager@@U?$less@PAVioSceneManager@@@std@@V?$allocator@PAVioSceneManager@@@3@$0A@@std@@@std@@U_Iterator_base0@2@@std@@QAEAAV01@XZ ; std::_Tree_unchecked_const_iterator<std::_Tree_val<std::_Tset_traits<ioSceneManager *,std::less<ioSceneManager *>,std::allocator<ioSceneManager *>,0> >,std::_Iterator_base0>::operator++

; 266  : 		return (*this);

  00008	8b c6		 mov	 eax, esi
  0000a	5e		 pop	 esi

; 267  : 		}

  0000b	c3		 ret	 0
??E?$_Tree_const_iterator@V?$_Tree_val@V?$_Tset_traits@PAVioSceneManager@@U?$less@PAVioSceneManager@@@std@@V?$allocator@PAVioSceneManager@@@3@$0A@@std@@@std@@@std@@QAEAAV01@XZ ENDP ; std::_Tree_const_iterator<std::_Tree_val<std::_Tset_traits<ioSceneManager *,std::less<ioSceneManager *>,std::allocator<ioSceneManager *>,0> > >::operator++
_TEXT	ENDS
PUBLIC	??D?$_List_iterator@V?$_List_val@PAVioEffect@@V?$allocator@PAVioEffect@@@std@@@std@@@std@@QBEAAPAVioEffect@@XZ ; std::_List_iterator<std::_List_val<ioEffect *,std::allocator<ioEffect *> > >::operator*
; Function compile flags: /Ogsp
; File c:\program files (x86)\microsoft visual studio 10.0\vc\include\list
;	COMDAT ??D?$_List_iterator@V?$_List_val@PAVioEffect@@V?$allocator@PAVioEffect@@@std@@@std@@@std@@QBEAAPAVioEffect@@XZ
_TEXT	SEGMENT
??D?$_List_iterator@V?$_List_val@PAVioEffect@@V?$allocator@PAVioEffect@@@std@@@std@@@std@@QBEAAPAVioEffect@@XZ PROC ; std::_List_iterator<std::_List_val<ioEffect *,std::allocator<ioEffect *> > >::operator*, COMDAT
; _this$ = ecx

; 360  : 		return ((reference)**(_Mybase *)this);

  00000	8b 01		 mov	 eax, DWORD PTR [ecx]
  00002	83 c0 08	 add	 eax, 8

; 361  : 		}

  00005	c3		 ret	 0
??D?$_List_iterator@V?$_List_val@PAVioEffect@@V?$allocator@PAVioEffect@@@std@@@std@@@std@@QBEAAPAVioEffect@@XZ ENDP ; std::_List_iterator<std::_List_val<ioEffect *,std::allocator<ioEffect *> > >::operator*
_TEXT	ENDS
PUBLIC	??0?$_List_val@PAVioEffect@@V?$allocator@PAVioEffect@@@std@@@std@@QAE@V?$allocator@PAVioEffect@@@1@@Z ; std::_List_val<ioEffect *,std::allocator<ioEffect *> >::_List_val<ioEffect *,std::allocator<ioEffect *> >
; Function compile flags: /Ogsp
;	COMDAT ??0?$_List_val@PAVioEffect@@V?$allocator@PAVioEffect@@@std@@@std@@QAE@V?$allocator@PAVioEffect@@@1@@Z
_TEXT	SEGMENT
$T512985 = -16						; size = 12
$T512962 = -4						; size = 4
__Al$ = 8						; size = 1
??0?$_List_val@PAVioEffect@@V?$allocator@PAVioEffect@@@std@@@std@@QAE@V?$allocator@PAVioEffect@@@1@@Z PROC ; std::_List_val<ioEffect *,std::allocator<ioEffect *> >::_List_val<ioEffect *,std::allocator<ioEffect *> >, COMDAT
; _this$ = ecx

; 493  : 		{	// construct base, and allocator from _Al

  00000	55		 push	 ebp
  00001	8b ec		 mov	 ebp, esp
  00003	83 ec 10	 sub	 esp, 16			; 00000010H
  00006	56		 push	 esi
  00007	8b f1		 mov	 esi, ecx

; 494  : 		this->_Mysize = 0;

  00009	83 66 04 00	 and	 DWORD PTR [esi+4], 0

; 495  : 		this->_Myhead = this->_Alnod.allocate(1);

  0000d	6a 0c		 push	 12			; 0000000cH
  0000f	e8 00 00 00 00	 call	 ??2@YAPAXI@Z		; operator new
  00014	59		 pop	 ecx
  00015	85 c0		 test	 eax, eax
  00017	74 10		 je	 SHORT $LN13@List_val
  00019	89 06		 mov	 DWORD PTR [esi], eax

; 496  : 		this->_Nextnode(this->_Myhead) = this->_Myhead;

  0001b	89 00		 mov	 DWORD PTR [eax], eax

; 497  : 		this->_Prevnode(this->_Myhead) = this->_Myhead;

  0001d	8b 06		 mov	 eax, DWORD PTR [esi]
  0001f	89 40 04	 mov	 DWORD PTR [eax+4], eax

; 498  : 		}

  00022	8b c6		 mov	 eax, esi
  00024	5e		 pop	 esi
  00025	c9		 leave
  00026	c2 04 00	 ret	 4

; 495  : 		this->_Myhead = this->_Alnod.allocate(1);

$LN13@List_val:
  00029	83 65 fc 00	 and	 DWORD PTR $T512962[ebp], 0
  0002d	8d 45 fc	 lea	 eax, DWORD PTR $T512962[ebp]
  00030	50		 push	 eax
  00031	8d 4d f0	 lea	 ecx, DWORD PTR $T512985[ebp]
  00034	ff 15 00 00 00
	00		 call	 DWORD PTR __imp_??0exception@std@@QAE@ABQBD@Z
  0003a	68 00 00 00 00	 push	 OFFSET __TI2?AVbad_alloc@std@@
  0003f	8d 45 f0	 lea	 eax, DWORD PTR $T512985[ebp]
  00042	50		 push	 eax
  00043	c7 45 f0 00 00
	00 00		 mov	 DWORD PTR $T512985[ebp], OFFSET ??_7bad_alloc@std@@6B@
  0004a	e8 00 00 00 00	 call	 __CxxThrowException@8
$LN29@List_val:
$LN28@List_val:
  0004f	cc		 int	 3
??0?$_List_val@PAVioEffect@@V?$allocator@PAVioEffect@@@std@@@std@@QAE@V?$allocator@PAVioEffect@@@1@@Z ENDP ; std::_List_val<ioEffect *,std::allocator<ioEffect *> >::_List_val<ioEffect *,std::allocator<ioEffect *> >
_TEXT	ENDS
PUBLIC	??0?$_List_iterator@V?$_List_val@PAVioEffect@@V?$allocator@PAVioEffect@@@std@@@std@@@std@@QAE@PAU_Node@?$_List_nod@PAVioEffect@@V?$allocator@PAVioEffect@@@std@@@1@PBV?$_List_val@PAVioEffect@@V?$allocator@PAVioEffect@@@std@@@1@@Z ; std::_List_iterator<std::_List_val<ioEffect *,std::allocator<ioEffect *> > >::_List_iterator<std::_List_val<ioEffect *,std::allocator<ioEffect *> > >
; Function compile flags: /Ogsp
;	COMDAT ??0?$_List_iterator@V?$_List_val@PAVioEffect@@V?$allocator@PAVioEffect@@@std@@@std@@@std@@QAE@PAU_Node@?$_List_nod@PAVioEffect@@V?$allocator@PAVioEffect@@@std@@@1@PBV?$_List_val@PAVioEffect@@V?$allocator@PAVioEffect@@@std@@@1@@Z
_TEXT	SEGMENT
__Pnode$ = 8						; size = 4
__Plist$ = 12						; size = 4
??0?$_List_iterator@V?$_List_val@PAVioEffect@@V?$allocator@PAVioEffect@@@std@@@std@@@std@@QAE@PAU_Node@?$_List_nod@PAVioEffect@@V?$allocator@PAVioEffect@@@std@@@1@PBV?$_List_val@PAVioEffect@@V?$allocator@PAVioEffect@@@std@@@1@@Z PROC ; std::_List_iterator<std::_List_val<ioEffect *,std::allocator<ioEffect *> > >::_List_iterator<std::_List_val<ioEffect *,std::allocator<ioEffect *> > >, COMDAT
; _this$ = ecx

; 342  : 		{	// construct with node pointer _Pnode

  00000	55		 push	 ebp
  00001	8b ec		 mov	 ebp, esp
  00003	8b c1		 mov	 eax, ecx
  00005	8b 4d 08	 mov	 ecx, DWORD PTR __Pnode$[ebp]
  00008	89 08		 mov	 DWORD PTR [eax], ecx

; 343  : 		}

  0000a	5d		 pop	 ebp
  0000b	c2 08 00	 ret	 8
??0?$_List_iterator@V?$_List_val@PAVioEffect@@V?$allocator@PAVioEffect@@@std@@@std@@@std@@QAE@PAU_Node@?$_List_nod@PAVioEffect@@V?$allocator@PAVioEffect@@@std@@@1@PBV?$_List_val@PAVioEffect@@V?$allocator@PAVioEffect@@@std@@@1@@Z ENDP ; std::_List_iterator<std::_List_val<ioEffect *,std::allocator<ioEffect *> > >::_List_iterator<std::_List_val<ioEffect *,std::allocator<ioEffect *> > >
_TEXT	ENDS
PUBLIC	?_Grow_to@?$vector@VioHashString@@V?$allocator@VioHashString@@@std@@@std@@IBEII@Z ; std::vector<ioHashString,std::allocator<ioHashString> >::_Grow_to
; Function compile flags: /Ogsp
; File c:\program files (x86)\microsoft visual studio 10.0\vc\include\vector
;	COMDAT ?_Grow_to@?$vector@VioHashString@@V?$allocator@VioHashString@@@std@@@std@@IBEII@Z
_TEXT	SEGMENT
__Count$ = 8						; size = 4
?_Grow_to@?$vector@VioHashString@@V?$allocator@VioHashString@@@std@@@std@@IBEII@Z PROC ; std::vector<ioHashString,std::allocator<ioHashString> >::_Grow_to, COMDAT
; _this$ = ecx

; 1274 : 		{	// grow by 50% or at least to _Count

  00000	55		 push	 ebp
  00001	8b ec		 mov	 ebp, esp

; 1275 : 		size_type _Capacity = capacity();

  00003	8b 41 08	 mov	 eax, DWORD PTR [ecx+8]
  00006	2b 01		 sub	 eax, DWORD PTR [ecx]

; 1276 : 
; 1277 : 		_Capacity = max_size() - _Capacity / 2 < _Capacity
; 1278 : 			? 0 : _Capacity + _Capacity / 2;	// try to grow by 50%

  00008	ba ff ff ff 0f	 mov	 edx, 268435455		; 0fffffffH
  0000d	c1 f8 04	 sar	 eax, 4
  00010	8b c8		 mov	 ecx, eax
  00012	d1 e9		 shr	 ecx, 1
  00014	2b d1		 sub	 edx, ecx
  00016	3b d0		 cmp	 edx, eax
  00018	73 04		 jae	 SHORT $LN4@Grow_to
  0001a	33 c0		 xor	 eax, eax
  0001c	eb 02		 jmp	 SHORT $LN5@Grow_to
$LN4@Grow_to:
  0001e	03 c1		 add	 eax, ecx
$LN5@Grow_to:

; 1279 : 		if (_Capacity < _Count)

  00020	3b 45 08	 cmp	 eax, DWORD PTR __Count$[ebp]

; 1280 : 			_Capacity = _Count;

  00023	0f 42 45 08	 cmovb	 eax, DWORD PTR __Count$[ebp]

; 1281 : 		return (_Capacity);
; 1282 : 		}

  00027	5d		 pop	 ebp
  00028	c2 04 00	 ret	 4
?_Grow_to@?$vector@VioHashString@@V?$allocator@VioHashString@@@std@@@std@@IBEII@Z ENDP ; std::vector<ioHashString,std::allocator<ioHashString> >::_Grow_to
_TEXT	ENDS
PUBLIC	??_C@_0BB@MOGOBHAF@list?$DMT?$DO?5too?5long?$AA@ ; `string'
PUBLIC	?_Incsize@?$list@PAVioEffect@@V?$allocator@PAVioEffect@@@std@@@std@@QAEXI@Z ; std::list<ioEffect *,std::allocator<ioEffect *> >::_Incsize
;	COMDAT ??_C@_0BB@MOGOBHAF@list?$DMT?$DO?5too?5long?$AA@
; File c:\program files (x86)\microsoft visual studio 10.0\vc\include\xmemory
CONST	SEGMENT
??_C@_0BB@MOGOBHAF@list?$DMT?$DO?5too?5long?$AA@ DB 'list<T> too long', 00H ; `string'
; Function compile flags: /Ogsp
; File c:\program files (x86)\microsoft visual studio 10.0\vc\include\list
CONST	ENDS
;	COMDAT ?_Incsize@?$list@PAVioEffect@@V?$allocator@PAVioEffect@@@std@@@std@@QAEXI@Z
_TEXT	SEGMENT
__Count$ = 8						; size = 4
?_Incsize@?$list@PAVioEffect@@V?$allocator@PAVioEffect@@@std@@@std@@QAEXI@Z PROC ; std::list<ioEffect *,std::allocator<ioEffect *> >::_Incsize, COMDAT
; _this$ = ecx

; 1519 : 		{	// alter element count, with checking

  00000	55		 push	 ebp
  00001	8b ec		 mov	 ebp, esp

; 1520 : 		if (max_size() - this->_Mysize - 1 < _Count)

  00003	8b 41 04	 mov	 eax, DWORD PTR [ecx+4]
  00006	8b 55 08	 mov	 edx, DWORD PTR __Count$[ebp]
  00009	56		 push	 esi
  0000a	be fe ff ff 3f	 mov	 esi, 1073741822		; 3ffffffeH
  0000f	2b f0		 sub	 esi, eax
  00011	3b f2		 cmp	 esi, edx
  00013	5e		 pop	 esi
  00014	73 0b		 jae	 SHORT $LN1@Incsize

; 1521 : 			_Xlength_error("list<T> too long");

  00016	68 00 00 00 00	 push	 OFFSET ??_C@_0BB@MOGOBHAF@list?$DMT?$DO?5too?5long?$AA@
  0001b	ff 15 00 00 00
	00		 call	 DWORD PTR __imp_?_Xlength_error@std@@YAXPBD@Z
$LN11@Incsize:
$LN1@Incsize:

; 1522 : 		this->_Mysize += _Count;

  00021	03 c2		 add	 eax, edx
  00023	89 41 04	 mov	 DWORD PTR [ecx+4], eax

; 1523 : 		}

  00026	5d		 pop	 ebp
  00027	c2 04 00	 ret	 4
$LN10@Incsize:
?_Incsize@?$list@PAVioEffect@@V?$allocator@PAVioEffect@@@std@@@std@@QAEXI@Z ENDP ; std::list<ioEffect *,std::allocator<ioEffect *> >::_Incsize
_TEXT	ENDS
PUBLIC	?_Eqrange@?$_Tree@V?$_Tset_traits@PAVioSceneManager@@U?$less@PAVioSceneManager@@@std@@V?$allocator@PAVioSceneManager@@@3@$0A@@std@@@std@@IAE?AU?$pair@V?$_Tree_const_iterator@V?$_Tree_val@V?$_Tset_traits@PAVioSceneManager@@U?$less@PAVioSceneManager@@@std@@V?$allocator@PAVioSceneManager@@@3@$0A@@std@@@std@@@std@@V12@@2@ABQAVioSceneManager@@@Z ; std::_Tree<std::_Tset_traits<ioSceneManager *,std::less<ioSceneManager *>,std::allocator<ioSceneManager *>,0> >::_Eqrange
; Function compile flags: /Ogsp
; File c:\program files (x86)\microsoft visual studio 10.0\vc\include\xtree
;	COMDAT ?_Eqrange@?$_Tree@V?$_Tset_traits@PAVioSceneManager@@U?$less@PAVioSceneManager@@@std@@V?$allocator@PAVioSceneManager@@@3@$0A@@std@@@std@@IAE?AU?$pair@V?$_Tree_const_iterator@V?$_Tree_val@V?$_Tset_traits@PAVioSceneManager@@U?$less@PAVioSceneManager@@@std@@V?$allocator@PAVioSceneManager@@@3@$0A@@std@@@std@@@std@@V12@@2@ABQAVioSceneManager@@@Z
_TEXT	SEGMENT
__Lonode$ = -4						; size = 4
___$ReturnUdt$ = 8					; size = 4
__Keyval$ = 12						; size = 4
?_Eqrange@?$_Tree@V?$_Tset_traits@PAVioSceneManager@@U?$less@PAVioSceneManager@@@std@@V?$allocator@PAVioSceneManager@@@3@$0A@@std@@@std@@IAE?AU?$pair@V?$_Tree_const_iterator@V?$_Tree_val@V?$_Tset_traits@PAVioSceneManager@@U?$less@PAVioSceneManager@@@std@@V?$allocator@PAVioSceneManager@@@3@$0A@@std@@@std@@@std@@V12@@2@ABQAVioSceneManager@@@Z PROC ; std::_Tree<std::_Tset_traits<ioSceneManager *,std::less<ioSceneManager *>,std::allocator<ioSceneManager *>,0> >::_Eqrange, COMDAT
; _this$ = ecx

; 1575 : 		{	// find leftmost node not less than _Keyval

  00000	55		 push	 ebp
  00001	8b ec		 mov	 ebp, esp
  00003	51		 push	 ecx

; 1576 : 		_Nodeptr _Pnode = _Root();

  00004	8b 51 04	 mov	 edx, DWORD PTR [ecx+4]
  00007	8b 42 04	 mov	 eax, DWORD PTR [edx+4]
  0000a	53		 push	 ebx

; 1577 : 		_Nodeptr _Lonode = this->_Myhead;	// end() if search fails
; 1578 : 		_Nodeptr _Hinode = this->_Myhead;	// end() if search fails
; 1579 : 
; 1580 : 		while (!this->_Isnil(_Pnode))

  0000b	32 db		 xor	 bl, bl
  0000d	89 55 fc	 mov	 DWORD PTR __Lonode$[ebp], edx
  00010	38 58 11	 cmp	 BYTE PTR [eax+17], bl
  00013	75 2a		 jne	 SHORT $LN8@Eqrange
  00015	56		 push	 esi
  00016	8b 75 0c	 mov	 esi, DWORD PTR __Keyval$[ebp]
  00019	57		 push	 edi
  0001a	8b 3e		 mov	 edi, DWORD PTR [esi]
$LL9@Eqrange:

; 1581 : 			if (_DEBUG_LT_PRED(this->comp, this->_Key(_Pnode), _Keyval))

  0001c	8b 70 0c	 mov	 esi, DWORD PTR [eax+12]
  0001f	3b f7		 cmp	 esi, edi
  00021	73 05		 jae	 SHORT $LN7@Eqrange

; 1582 : 				_Pnode = this->_Right(_Pnode);	// descend right subtree

  00023	8b 40 08	 mov	 eax, DWORD PTR [eax+8]

; 1583 : 			else

  00026	eb 10		 jmp	 SHORT $LN6@Eqrange
$LN7@Eqrange:

; 1584 : 				{	// _Pnode not less than _Keyval, remember it
; 1585 : 				if (this->_Isnil(_Hinode)
; 1586 : 						&& _DEBUG_LT_PRED(this->comp, _Keyval,

  00028	38 5a 11	 cmp	 BYTE PTR [edx+17], bl
  0002b	74 06		 je	 SHORT $LN5@Eqrange
  0002d	3b fe		 cmp	 edi, esi
  0002f	73 02		 jae	 SHORT $LN5@Eqrange

; 1587 : 						 this->_Key(_Pnode)))
; 1588 : 					_Hinode = _Pnode;	// _Pnode greater, remember it

  00031	8b d0		 mov	 edx, eax
$LN5@Eqrange:

; 1589 : 				_Lonode = _Pnode;

  00033	89 45 fc	 mov	 DWORD PTR __Lonode$[ebp], eax

; 1590 : 				_Pnode = this->_Left(_Pnode);	// descend left subtree

  00036	8b 00		 mov	 eax, DWORD PTR [eax]
$LN6@Eqrange:

; 1577 : 		_Nodeptr _Lonode = this->_Myhead;	// end() if search fails
; 1578 : 		_Nodeptr _Hinode = this->_Myhead;	// end() if search fails
; 1579 : 
; 1580 : 		while (!this->_Isnil(_Pnode))

  00038	38 58 11	 cmp	 BYTE PTR [eax+17], bl
  0003b	74 df		 je	 SHORT $LL9@Eqrange
  0003d	5f		 pop	 edi
  0003e	5e		 pop	 esi
$LN8@Eqrange:

; 1591 : 				}
; 1592 : 
; 1593 : 		_Pnode = this->_Isnil(_Hinode) ? _Root()
; 1594 : 			: this->_Left(_Hinode);	// continue scan for upper bound

  0003f	38 5a 11	 cmp	 BYTE PTR [edx+17], bl
  00042	74 08		 je	 SHORT $LN12@Eqrange
  00044	8b 41 04	 mov	 eax, DWORD PTR [ecx+4]
  00047	8b 40 04	 mov	 eax, DWORD PTR [eax+4]
  0004a	eb 02		 jmp	 SHORT $LN13@Eqrange
$LN12@Eqrange:
  0004c	8b 02		 mov	 eax, DWORD PTR [edx]
$LN13@Eqrange:

; 1595 : 		while (!this->_Isnil(_Pnode))

  0004e	38 58 11	 cmp	 BYTE PTR [eax+17], bl
  00051	75 18		 jne	 SHORT $LN3@Eqrange
  00053	8b 4d 0c	 mov	 ecx, DWORD PTR __Keyval$[ebp]
  00056	8b 09		 mov	 ecx, DWORD PTR [ecx]
$LL4@Eqrange:

; 1596 : 			if (_DEBUG_LT_PRED(this->comp, _Keyval, this->_Key(_Pnode)))

  00058	3b 48 0c	 cmp	 ecx, DWORD PTR [eax+12]
  0005b	73 06		 jae	 SHORT $LN2@Eqrange

; 1597 : 				{	// _Pnode greater than _Keyval, remember it
; 1598 : 				_Hinode = _Pnode;

  0005d	8b d0		 mov	 edx, eax

; 1599 : 				_Pnode = this->_Left(_Pnode);	// descend left subtree

  0005f	8b 00		 mov	 eax, DWORD PTR [eax]

; 1600 : 				}
; 1601 : 			else

  00061	eb 03		 jmp	 SHORT $LN1@Eqrange
$LN2@Eqrange:

; 1602 : 				_Pnode = this->_Right(_Pnode);	// descend right subtree

  00063	8b 40 08	 mov	 eax, DWORD PTR [eax+8]
$LN1@Eqrange:

; 1595 : 		while (!this->_Isnil(_Pnode))

  00066	38 58 11	 cmp	 BYTE PTR [eax+17], bl
  00069	74 ed		 je	 SHORT $LL4@Eqrange
$LN3@Eqrange:

; 1603 : 
; 1604 : 		iterator _First = iterator(_Lonode, this);
; 1605 : 		iterator _Last = iterator(_Hinode, this);
; 1606 : 		return (_Pairii(_First, _Last));

  0006b	8b 45 08	 mov	 eax, DWORD PTR ___$ReturnUdt$[ebp]
  0006e	8b 4d fc	 mov	 ecx, DWORD PTR __Lonode$[ebp]
  00071	89 08		 mov	 DWORD PTR [eax], ecx
  00073	89 50 04	 mov	 DWORD PTR [eax+4], edx
  00076	5b		 pop	 ebx

; 1607 : 		}

  00077	c9		 leave
  00078	c2 08 00	 ret	 8
?_Eqrange@?$_Tree@V?$_Tset_traits@PAVioSceneManager@@U?$less@PAVioSceneManager@@@std@@V?$allocator@PAVioSceneManager@@@3@$0A@@std@@@std@@IAE?AU?$pair@V?$_Tree_const_iterator@V?$_Tree_val@V?$_Tset_traits@PAVioSceneManager@@U?$less@PAVioSceneManager@@@std@@V?$allocator@PAVioSceneManager@@@3@$0A@@std@@@std@@@std@@V12@@2@ABQAVioSceneManager@@@Z ENDP ; std::_Tree<std::_Tset_traits<ioSceneManager *,std::less<ioSceneManager *>,std::allocator<ioSceneManager *>,0> >::_Eqrange
_TEXT	ENDS
PUBLIC	??0?$_Tree_val@V?$_Tset_traits@PAVioSceneManager@@U?$less@PAVioSceneManager@@@std@@V?$allocator@PAVioSceneManager@@@3@$0A@@std@@@std@@QAE@ABU?$less@PAVioSceneManager@@@1@V?$allocator@PAVioSceneManager@@@1@@Z ; std::_Tree_val<std::_Tset_traits<ioSceneManager *,std::less<ioSceneManager *>,std::allocator<ioSceneManager *>,0> >::_Tree_val<std::_Tset_traits<ioSceneManager *,std::less<ioSceneManager *>,std::allocator<ioSceneManager *>,0> >
; Function compile flags: /Ogsp
;	COMDAT ??0?$_Tree_val@V?$_Tset_traits@PAVioSceneManager@@U?$less@PAVioSceneManager@@@std@@V?$allocator@PAVioSceneManager@@@3@$0A@@std@@@std@@QAE@ABU?$less@PAVioSceneManager@@@1@V?$allocator@PAVioSceneManager@@@1@@Z
_TEXT	SEGMENT
$T513273 = -16						; size = 12
$T513251 = -4						; size = 4
__Parg$ = 8						; size = 4
__Al$ = 12						; size = 1
??0?$_Tree_val@V?$_Tset_traits@PAVioSceneManager@@U?$less@PAVioSceneManager@@@std@@V?$allocator@PAVioSceneManager@@@3@$0A@@std@@@std@@QAE@ABU?$less@PAVioSceneManager@@@1@V?$allocator@PAVioSceneManager@@@1@@Z PROC ; std::_Tree_val<std::_Tset_traits<ioSceneManager *,std::less<ioSceneManager *>,std::allocator<ioSceneManager *>,0> >::_Tree_val<std::_Tset_traits<ioSceneManager *,std::less<ioSceneManager *>,std::allocator<ioSceneManager *>,0> >, COMDAT
; _this$ = ecx

; 542  : 		{	// construct base, and allocator from _Al

  00000	55		 push	 ebp
  00001	8b ec		 mov	 ebp, esp
  00003	83 ec 10	 sub	 esp, 16			; 00000010H
  00006	56		 push	 esi
  00007	8b f1		 mov	 esi, ecx

; 543  : 		this->_Mysize = 0;

  00009	83 66 08 00	 and	 DWORD PTR [esi+8], 0

; 544  : 		this->_Myhead = this->_Alnod.allocate(1);

  0000d	6a 14		 push	 20			; 00000014H
  0000f	e8 00 00 00 00	 call	 ??2@YAPAXI@Z		; operator new
  00014	59		 pop	 ecx
  00015	85 c0		 test	 eax, eax
  00017	74 26		 je	 SHORT $LN15@Tree_val
  00019	89 46 04	 mov	 DWORD PTR [esi+4], eax

; 545  : 
; 546  : 		this->_Left(this->_Myhead) = this->_Myhead;

  0001c	89 00		 mov	 DWORD PTR [eax], eax

; 547  : 		this->_Parent(this->_Myhead) = this->_Myhead;

  0001e	8b 46 04	 mov	 eax, DWORD PTR [esi+4]
  00021	89 40 04	 mov	 DWORD PTR [eax+4], eax

; 548  : 		this->_Right(this->_Myhead) = this->_Myhead;

  00024	8b 46 04	 mov	 eax, DWORD PTR [esi+4]
  00027	89 40 08	 mov	 DWORD PTR [eax+8], eax

; 549  : 		this->_Color(this->_Myhead) = this->_Black;

  0002a	8b 46 04	 mov	 eax, DWORD PTR [esi+4]
  0002d	c6 40 10 01	 mov	 BYTE PTR [eax+16], 1

; 550  : 		this->_Isnil(this->_Myhead) = true;

  00031	8b 46 04	 mov	 eax, DWORD PTR [esi+4]
  00034	c6 40 11 01	 mov	 BYTE PTR [eax+17], 1

; 551  : 		}

  00038	8b c6		 mov	 eax, esi
  0003a	5e		 pop	 esi
  0003b	c9		 leave
  0003c	c2 08 00	 ret	 8

; 544  : 		this->_Myhead = this->_Alnod.allocate(1);

$LN15@Tree_val:
  0003f	83 65 fc 00	 and	 DWORD PTR $T513251[ebp], 0
  00043	8d 45 fc	 lea	 eax, DWORD PTR $T513251[ebp]
  00046	50		 push	 eax
  00047	8d 4d f0	 lea	 ecx, DWORD PTR $T513273[ebp]
  0004a	ff 15 00 00 00
	00		 call	 DWORD PTR __imp_??0exception@std@@QAE@ABQBD@Z
  00050	68 00 00 00 00	 push	 OFFSET __TI2?AVbad_alloc@std@@
  00055	8d 45 f0	 lea	 eax, DWORD PTR $T513273[ebp]
  00058	50		 push	 eax
  00059	c7 45 f0 00 00
	00 00		 mov	 DWORD PTR $T513273[ebp], OFFSET ??_7bad_alloc@std@@6B@
  00060	e8 00 00 00 00	 call	 __CxxThrowException@8
$LN37@Tree_val:
$LN36@Tree_val:
  00065	cc		 int	 3
??0?$_Tree_val@V?$_Tset_traits@PAVioSceneManager@@U?$less@PAVioSceneManager@@@std@@V?$allocator@PAVioSceneManager@@@3@$0A@@std@@@std@@QAE@ABU?$less@PAVioSceneManager@@@1@V?$allocator@PAVioSceneManager@@@1@@Z ENDP ; std::_Tree_val<std::_Tset_traits<ioSceneManager *,std::less<ioSceneManager *>,std::allocator<ioSceneManager *>,0> >::_Tree_val<std::_Tset_traits<ioSceneManager *,std::less<ioSceneManager *>,std::allocator<ioSceneManager *>,0> >
_TEXT	ENDS
PUBLIC	??E?$_Tree_const_iterator@V?$_Tree_val@V?$_Tset_traits@PAVioSceneManager@@U?$less@PAVioSceneManager@@@std@@V?$allocator@PAVioSceneManager@@@3@$0A@@std@@@std@@@std@@QAE?AV01@H@Z ; std::_Tree_const_iterator<std::_Tree_val<std::_Tset_traits<ioSceneManager *,std::less<ioSceneManager *>,std::allocator<ioSceneManager *>,0> > >::operator++
; Function compile flags: /Ogsp
;	COMDAT ??E?$_Tree_const_iterator@V?$_Tree_val@V?$_Tset_traits@PAVioSceneManager@@U?$less@PAVioSceneManager@@@std@@V?$allocator@PAVioSceneManager@@@3@$0A@@std@@@std@@@std@@QAE?AV01@H@Z
_TEXT	SEGMENT
___$ReturnUdt$ = 8					; size = 4
___formal$ = 12						; size = 4
??E?$_Tree_const_iterator@V?$_Tree_val@V?$_Tset_traits@PAVioSceneManager@@U?$less@PAVioSceneManager@@@std@@V?$allocator@PAVioSceneManager@@@3@$0A@@std@@@std@@@std@@QAE?AV01@H@Z PROC ; std::_Tree_const_iterator<std::_Tree_val<std::_Tset_traits<ioSceneManager *,std::less<ioSceneManager *>,std::allocator<ioSceneManager *>,0> > >::operator++, COMDAT
; _this$ = ecx

; 270  : 		{	// postincrement

  00000	55		 push	 ebp
  00001	8b ec		 mov	 ebp, esp

; 271  : 		_Myiter _Tmp = *this;

  00003	8b 01		 mov	 eax, DWORD PTR [ecx]
  00005	56		 push	 esi
  00006	8b 75 08	 mov	 esi, DWORD PTR ___$ReturnUdt$[ebp]
  00009	89 06		 mov	 DWORD PTR [esi], eax

; 272  : 		++*this;

  0000b	e8 00 00 00 00	 call	 ??E?$_Tree_unchecked_const_iterator@V?$_Tree_val@V?$_Tset_traits@PAVioSceneManager@@U?$less@PAVioSceneManager@@@std@@V?$allocator@PAVioSceneManager@@@3@$0A@@std@@@std@@U_Iterator_base0@2@@std@@QAEAAV01@XZ ; std::_Tree_unchecked_const_iterator<std::_Tree_val<std::_Tset_traits<ioSceneManager *,std::less<ioSceneManager *>,std::allocator<ioSceneManager *>,0> >,std::_Iterator_base0>::operator++

; 273  : 		return (_Tmp);

  00010	8b c6		 mov	 eax, esi
  00012	5e		 pop	 esi

; 274  : 		}

  00013	5d		 pop	 ebp
  00014	c2 08 00	 ret	 8
??E?$_Tree_const_iterator@V?$_Tree_val@V?$_Tset_traits@PAVioSceneManager@@U?$less@PAVioSceneManager@@@std@@V?$allocator@PAVioSceneManager@@@3@$0A@@std@@@std@@@std@@QAE?AV01@H@Z ENDP ; std::_Tree_const_iterator<std::_Tree_val<std::_Tset_traits<ioSceneManager *,std::less<ioSceneManager *>,std::allocator<ioSceneManager *>,0> > >::operator++
_TEXT	ENDS
PUBLIC	??$_Cons_val@V?$allocator@VioHashString@@@std@@VioHashString@@AAV3@@std@@YAXAAV?$allocator@VioHashString@@@0@PAVioHashString@@AAV2@@Z ; std::_Cons_val<std::allocator<ioHashString>,ioHashString,ioHashString &>
; Function compile flags: /Ogsp
; File c:\program files (x86)\microsoft visual studio 10.0\vc\include\xmemory
;	COMDAT ??$_Cons_val@V?$allocator@VioHashString@@@std@@VioHashString@@AAV3@@std@@YAXAAV?$allocator@VioHashString@@@0@PAVioHashString@@AAV2@@Z
_TEXT	SEGMENT
__Alval$ = 8						; size = 4
__Pdest$ = 12						; size = 4
__Src$ = 16						; size = 4
??$_Cons_val@V?$allocator@VioHashString@@@std@@VioHashString@@AAV3@@std@@YAXAAV?$allocator@VioHashString@@@0@PAVioHashString@@AAV2@@Z PROC ; std::_Cons_val<std::allocator<ioHashString>,ioHashString,ioHashString &>, COMDAT

; 279  : 	{	// construct using allocator

  00000	55		 push	 ebp
  00001	8b ec		 mov	 ebp, esp

; 280  : 	_Alval.construct(_Pdest, _STD forward<_Ty2>(_Src));

  00003	ff 75 10	 push	 DWORD PTR __Src$[ebp]
  00006	8b 4d 08	 mov	 ecx, DWORD PTR __Alval$[ebp]
  00009	ff 75 0c	 push	 DWORD PTR __Pdest$[ebp]
  0000c	e8 00 00 00 00	 call	 ??$construct@AAVioHashString@@@?$allocator@VioHashString@@@std@@QAEXPAVioHashString@@AAV2@@Z ; std::allocator<ioHashString>::construct<ioHashString &>

; 281  : 	}

  00011	5d		 pop	 ebp
  00012	c3		 ret	 0
??$_Cons_val@V?$allocator@VioHashString@@@std@@VioHashString@@AAV3@@std@@YAXAAV?$allocator@VioHashString@@@0@PAVioHashString@@AAV2@@Z ENDP ; std::_Cons_val<std::allocator<ioHashString>,ioHashString,ioHashString &>
_TEXT	ENDS
PUBLIC	??$_Dest_val@V?$allocator@U_Node@?$_List_nod@PAVioEffect@@V?$allocator@PAVioEffect@@@std@@@std@@@std@@U_Node@?$_List_nod@PAVioEffect@@V?$allocator@PAVioEffect@@@std@@@2@@std@@YAXAAV?$allocator@U_Node@?$_List_nod@PAVioEffect@@V?$allocator@PAVioEffect@@@std@@@std@@@0@PAU_Node@?$_List_nod@PAVioEffect@@V?$allocator@PAVioEffect@@@std@@@0@@Z ; std::_Dest_val<std::allocator<std::_List_nod<ioEffect *,std::allocator<ioEffect *> >::_Node>,std::_List_nod<ioEffect *,std::allocator<ioEffect *> >::_Node>
; Function compile flags: /Ogsp
;	COMDAT ??$_Dest_val@V?$allocator@U_Node@?$_List_nod@PAVioEffect@@V?$allocator@PAVioEffect@@@std@@@std@@@std@@U_Node@?$_List_nod@PAVioEffect@@V?$allocator@PAVioEffect@@@std@@@2@@std@@YAXAAV?$allocator@U_Node@?$_List_nod@PAVioEffect@@V?$allocator@PAVioEffect@@@std@@@std@@@0@PAU_Node@?$_List_nod@PAVioEffect@@V?$allocator@PAVioEffect@@@std@@@0@@Z
_TEXT	SEGMENT
__Alval$ = 8						; size = 4
__Pdest$ = 12						; size = 4
??$_Dest_val@V?$allocator@U_Node@?$_List_nod@PAVioEffect@@V?$allocator@PAVioEffect@@@std@@@std@@@std@@U_Node@?$_List_nod@PAVioEffect@@V?$allocator@PAVioEffect@@@std@@@2@@std@@YAXAAV?$allocator@U_Node@?$_List_nod@PAVioEffect@@V?$allocator@PAVioEffect@@@std@@@std@@@0@PAU_Node@?$_List_nod@PAVioEffect@@V?$allocator@PAVioEffect@@@std@@@0@@Z PROC ; std::_Dest_val<std::allocator<std::_List_nod<ioEffect *,std::allocator<ioEffect *> >::_Node>,std::_List_nod<ioEffect *,std::allocator<ioEffect *> >::_Node>, COMDAT

; 287  : 	_Alval.destroy(_Pdest);
; 288  : 	}

  00000	c3		 ret	 0
??$_Dest_val@V?$allocator@U_Node@?$_List_nod@PAVioEffect@@V?$allocator@PAVioEffect@@@std@@@std@@@std@@U_Node@?$_List_nod@PAVioEffect@@V?$allocator@PAVioEffect@@@std@@@2@@std@@YAXAAV?$allocator@U_Node@?$_List_nod@PAVioEffect@@V?$allocator@PAVioEffect@@@std@@@std@@@0@PAU_Node@?$_List_nod@PAVioEffect@@V?$allocator@PAVioEffect@@@std@@@0@@Z ENDP ; std::_Dest_val<std::allocator<std::_List_nod<ioEffect *,std::allocator<ioEffect *> >::_Node>,std::_List_nod<ioEffect *,std::allocator<ioEffect *> >::_Node>
_TEXT	ENDS
PUBLIC	??$_Cons_val@V?$allocator@PAVioEffect@@@std@@PAVioEffect@@ABQAV3@@std@@YAXAAV?$allocator@PAVioEffect@@@0@PAPAVioEffect@@ABQAV2@@Z ; std::_Cons_val<std::allocator<ioEffect *>,ioEffect *,ioEffect * const &>
; Function compile flags: /Ogsp
;	COMDAT ??$_Cons_val@V?$allocator@PAVioEffect@@@std@@PAVioEffect@@ABQAV3@@std@@YAXAAV?$allocator@PAVioEffect@@@0@PAPAVioEffect@@ABQAV2@@Z
_TEXT	SEGMENT
__Alval$ = 8						; size = 4
__Pdest$ = 12						; size = 4
__Src$ = 16						; size = 4
??$_Cons_val@V?$allocator@PAVioEffect@@@std@@PAVioEffect@@ABQAV3@@std@@YAXAAV?$allocator@PAVioEffect@@@0@PAPAVioEffect@@ABQAV2@@Z PROC ; std::_Cons_val<std::allocator<ioEffect *>,ioEffect *,ioEffect * const &>, COMDAT

; 279  : 	{	// construct using allocator

  00000	55		 push	 ebp
  00001	8b ec		 mov	 ebp, esp

; 280  : 	_Alval.construct(_Pdest, _STD forward<_Ty2>(_Src));

  00003	8b 45 0c	 mov	 eax, DWORD PTR __Pdest$[ebp]
  00006	85 c0		 test	 eax, eax
  00008	74 07		 je	 SHORT $LN9@Cons_val@2
  0000a	8b 4d 10	 mov	 ecx, DWORD PTR __Src$[ebp]
  0000d	8b 09		 mov	 ecx, DWORD PTR [ecx]
  0000f	89 08		 mov	 DWORD PTR [eax], ecx
$LN9@Cons_val@2:

; 281  : 	}

  00011	5d		 pop	 ebp
  00012	c3		 ret	 0
??$_Cons_val@V?$allocator@PAVioEffect@@@std@@PAVioEffect@@ABQAV3@@std@@YAXAAV?$allocator@PAVioEffect@@@0@PAPAVioEffect@@ABQAV2@@Z ENDP ; std::_Cons_val<std::allocator<ioEffect *>,ioEffect *,ioEffect * const &>
_TEXT	ENDS
PUBLIC	??$_Dest_val@V?$allocator@PAVioSceneManager@@@std@@PAVioSceneManager@@@std@@YAXAAV?$allocator@PAVioSceneManager@@@0@PAPAVioSceneManager@@@Z ; std::_Dest_val<std::allocator<ioSceneManager *>,ioSceneManager *>
; Function compile flags: /Ogsp
;	COMDAT ??$_Dest_val@V?$allocator@PAVioSceneManager@@@std@@PAVioSceneManager@@@std@@YAXAAV?$allocator@PAVioSceneManager@@@0@PAPAVioSceneManager@@@Z
_TEXT	SEGMENT
__Alval$ = 8						; size = 4
__Pdest$ = 12						; size = 4
??$_Dest_val@V?$allocator@PAVioSceneManager@@@std@@PAVioSceneManager@@@std@@YAXAAV?$allocator@PAVioSceneManager@@@0@PAPAVioSceneManager@@@Z PROC ; std::_Dest_val<std::allocator<ioSceneManager *>,ioSceneManager *>, COMDAT

; 287  : 	_Alval.destroy(_Pdest);
; 288  : 	}

  00000	c3		 ret	 0
??$_Dest_val@V?$allocator@PAVioSceneManager@@@std@@PAVioSceneManager@@@std@@YAXAAV?$allocator@PAVioSceneManager@@@0@PAPAVioSceneManager@@@Z ENDP ; std::_Dest_val<std::allocator<ioSceneManager *>,ioSceneManager *>
_TEXT	ENDS
PUBLIC	??_C@_0BE@JONHPENG@map?1set?$DMT?$DO?5too?5long?$AA@ ; `string'
PUBLIC	?_Insert@?$_Tree@V?$_Tset_traits@PAVioSceneManager@@U?$less@PAVioSceneManager@@@std@@V?$allocator@PAVioSceneManager@@@3@$0A@@std@@@std@@IAE?AV?$_Tree_const_iterator@V?$_Tree_val@V?$_Tset_traits@PAVioSceneManager@@U?$less@PAVioSceneManager@@@std@@V?$allocator@PAVioSceneManager@@@3@$0A@@std@@@std@@@2@_NPAU_Node@?$_Tree_nod@V?$_Tset_traits@PAVioSceneManager@@U?$less@PAVioSceneManager@@@std@@V?$allocator@PAVioSceneManager@@@3@$0A@@std@@@2@1@Z ; std::_Tree<std::_Tset_traits<ioSceneManager *,std::less<ioSceneManager *>,std::allocator<ioSceneManager *>,0> >::_Insert
;	COMDAT ??_C@_0BE@JONHPENG@map?1set?$DMT?$DO?5too?5long?$AA@
; File c:\program files (x86)\microsoft visual studio 10.0\vc\include\xutility
CONST	SEGMENT
??_C@_0BE@JONHPENG@map?1set?$DMT?$DO?5too?5long?$AA@ DB 'map/set<T> too l'
	DB	'ong', 00H					; `string'
; Function compile flags: /Ogsp
; File c:\program files (x86)\microsoft visual studio 10.0\vc\include\xtree
CONST	ENDS
;	COMDAT ?_Insert@?$_Tree@V?$_Tset_traits@PAVioSceneManager@@U?$less@PAVioSceneManager@@@std@@V?$allocator@PAVioSceneManager@@@3@$0A@@std@@@std@@IAE?AV?$_Tree_const_iterator@V?$_Tree_val@V?$_Tset_traits@PAVioSceneManager@@U?$less@PAVioSceneManager@@@std@@V?$allocator@PAVioSceneManager@@@3@$0A@@std@@@std@@@2@_NPAU_Node@?$_Tree_nod@V?$_Tset_traits@PAVioSceneManager@@U?$less@PAVioSceneManager@@@std@@V?$allocator@PAVioSceneManager@@@3@$0A@@std@@@2@1@Z
_TEXT	SEGMENT
___$ReturnUdt$ = 8					; size = 4
__Addleft$ = 12						; size = 1
__Wherenode$ = 16					; size = 4
__Newnode$ = 20						; size = 4
?_Insert@?$_Tree@V?$_Tset_traits@PAVioSceneManager@@U?$less@PAVioSceneManager@@@std@@V?$allocator@PAVioSceneManager@@@3@$0A@@std@@@std@@IAE?AV?$_Tree_const_iterator@V?$_Tree_val@V?$_Tset_traits@PAVioSceneManager@@U?$less@PAVioSceneManager@@@std@@V?$allocator@PAVioSceneManager@@@3@$0A@@std@@@std@@@2@_NPAU_Node@?$_Tree_nod@V?$_Tset_traits@PAVioSceneManager@@U?$less@PAVioSceneManager@@@std@@V?$allocator@PAVioSceneManager@@@3@$0A@@std@@@2@1@Z PROC ; std::_Tree<std::_Tset_traits<ioSceneManager *,std::less<ioSceneManager *>,std::allocator<ioSceneManager *>,0> >::_Insert, COMDAT
; _this$ = ecx

; 1631 : 		{	// add node with value next to _Wherenode, to left if _Addleft

  00000	55		 push	 ebp
  00001	8b ec		 mov	 ebp, esp
  00003	53		 push	 ebx
  00004	56		 push	 esi
  00005	57		 push	 edi
  00006	8b f9		 mov	 edi, ecx

; 1632 : 		if (max_size() - 1 <= this->_Mysize)

  00008	8b 47 08	 mov	 eax, DWORD PTR [edi+8]
  0000b	3d fe ff ff 3f	 cmp	 eax, 1073741822		; 3ffffffeH
  00010	72 15		 jb	 SHORT $LN17@Insert

; 1633 : 			{	// tree would get too big, fail
; 1634 : 			_Dest_val(this->_Alval,
; 1635 : 				_STD addressof(this->_Myval(_Newnode)));
; 1636 : 
; 1637 : 			this->_Alnod.deallocate(_Newnode, 1);

  00012	ff 75 14	 push	 DWORD PTR __Newnode$[ebp]
  00015	e8 00 00 00 00	 call	 ??3@YAXPAX@Z		; operator delete

; 1638 : 
; 1639 : 			_Xlength_error("map/set<T> too long");

  0001a	c7 04 24 00 00
	00 00		 mov	 DWORD PTR [esp], OFFSET ??_C@_0BE@JONHPENG@map?1set?$DMT?$DO?5too?5long?$AA@
  00021	ff 15 00 00 00
	00		 call	 DWORD PTR __imp_?_Xlength_error@std@@YAXPBD@Z
$LN186@Insert:
$LN17@Insert:

; 1640 : 			}
; 1641 : 		++this->_Mysize;
; 1642 : 		_Newnode->_Parent = _Wherenode;

  00027	8b 5d 14	 mov	 ebx, DWORD PTR __Newnode$[ebp]
  0002a	40		 inc	 eax
  0002b	89 47 08	 mov	 DWORD PTR [edi+8], eax
  0002e	8b 45 10	 mov	 eax, DWORD PTR __Wherenode$[ebp]
  00031	89 43 04	 mov	 DWORD PTR [ebx+4], eax

; 1643 : 
; 1644 : 		if (_Wherenode == this->_Myhead)

  00034	8b 4f 04	 mov	 ecx, DWORD PTR [edi+4]
  00037	3b c1		 cmp	 eax, ecx
  00039	75 10		 jne	 SHORT $LN16@Insert

; 1645 : 			{	// first node in tree, just set head values
; 1646 : 			_Root() = _Newnode;

  0003b	89 59 04	 mov	 DWORD PTR [ecx+4], ebx

; 1647 : 			_Lmost() = _Newnode;

  0003e	8b 47 04	 mov	 eax, DWORD PTR [edi+4]
  00041	89 18		 mov	 DWORD PTR [eax], ebx

; 1648 : 			_Rmost() = _Newnode;

  00043	8b 47 04	 mov	 eax, DWORD PTR [edi+4]
  00046	89 58 08	 mov	 DWORD PTR [eax+8], ebx
  00049	eb 21		 jmp	 SHORT $LN11@Insert
$LN16@Insert:

; 1649 : 			}
; 1650 : 		else if (_Addleft)

  0004b	80 7d 0c 00	 cmp	 BYTE PTR __Addleft$[ebp], 0
  0004f	74 0d		 je	 SHORT $LN14@Insert

; 1651 : 			{	// add to left of _Wherenode
; 1652 : 			this->_Left(_Wherenode) = _Newnode;

  00051	89 18		 mov	 DWORD PTR [eax], ebx

; 1653 : 			if (_Wherenode == _Lmost())

  00053	8b 4f 04	 mov	 ecx, DWORD PTR [edi+4]
  00056	3b 01		 cmp	 eax, DWORD PTR [ecx]
  00058	75 12		 jne	 SHORT $LN11@Insert

; 1654 : 				_Lmost() = _Newnode;

  0005a	89 19		 mov	 DWORD PTR [ecx], ebx

; 1655 : 			}
; 1656 : 		else

  0005c	eb 0e		 jmp	 SHORT $LN11@Insert
$LN14@Insert:

; 1657 : 			{	// add to right of _Wherenode
; 1658 : 			this->_Right(_Wherenode) = _Newnode;

  0005e	89 58 08	 mov	 DWORD PTR [eax+8], ebx

; 1659 : 			if (_Wherenode == _Rmost())

  00061	8b 4f 04	 mov	 ecx, DWORD PTR [edi+4]
  00064	3b 41 08	 cmp	 eax, DWORD PTR [ecx+8]
  00067	75 03		 jne	 SHORT $LN11@Insert

; 1660 : 				_Rmost() = _Newnode;

  00069	89 59 08	 mov	 DWORD PTR [ecx+8], ebx
$LN11@Insert:

; 1661 : 			}
; 1662 : 
; 1663 : 		for (_Nodeptr _Pnode = _Newnode;
; 1664 : 			this->_Color(this->_Parent(_Pnode)) == this->_Red; )

  0006c	8b 43 04	 mov	 eax, DWORD PTR [ebx+4]
  0006f	8b f3		 mov	 esi, ebx
  00071	e9 93 00 00 00	 jmp	 $LN184@Insert
$LL10@Insert:

; 1665 : 			if (this->_Parent(_Pnode)
; 1666 : 				== this->_Left(this->_Parent(this->_Parent(_Pnode))))

  00076	8b 46 04	 mov	 eax, DWORD PTR [esi+4]
  00079	8b 48 04	 mov	 ecx, DWORD PTR [eax+4]
  0007c	3b 01		 cmp	 eax, DWORD PTR [ecx]
  0007e	75 38		 jne	 SHORT $LN8@Insert

; 1667 : 				{	// fixup red-red in left subtree
; 1668 : 				_Wherenode =
; 1669 : 					this->_Right(this->_Parent(this->_Parent(_Pnode)));

  00080	8b 49 08	 mov	 ecx, DWORD PTR [ecx+8]

; 1670 : 				if (this->_Color(_Wherenode) == this->_Red)

  00083	80 79 10 00	 cmp	 BYTE PTR [ecx+16], 0

; 1671 : 					{	// parent has two red children, blacken both
; 1672 : 					this->_Color(this->_Parent(_Pnode)) = this->_Black;
; 1673 : 					this->_Color(_Wherenode) = this->_Black;
; 1674 : 					this->_Color(this->_Parent(this->_Parent(_Pnode)))
; 1675 : 						= this->_Red;
; 1676 : 					_Pnode = this->_Parent(this->_Parent(_Pnode));
; 1677 : 					}
; 1678 : 				else

  00087	74 37		 je	 SHORT $LN185@Insert

; 1679 : 					{	// parent has red and black children
; 1680 : 					if (_Pnode == this->_Right(this->_Parent(_Pnode)))

  00089	3b 70 08	 cmp	 esi, DWORD PTR [eax+8]
  0008c	75 0a		 jne	 SHORT $LN5@Insert

; 1681 : 						{	// rotate right child to left
; 1682 : 						_Pnode = this->_Parent(_Pnode);

  0008e	8b f0		 mov	 esi, eax

; 1683 : 						_Lrotate(_Pnode);

  00090	56		 push	 esi
  00091	8b cf		 mov	 ecx, edi
  00093	e8 00 00 00 00	 call	 ?_Lrotate@?$_Tree@V?$_Tset_traits@PAVioSceneManager@@U?$less@PAVioSceneManager@@@std@@V?$allocator@PAVioSceneManager@@@3@$0A@@std@@@std@@IAEXPAU_Node@?$_Tree_nod@V?$_Tset_traits@PAVioSceneManager@@U?$less@PAVioSceneManager@@@std@@V?$allocator@PAVioSceneManager@@@3@$0A@@std@@@2@@Z ; std::_Tree<std::_Tset_traits<ioSceneManager *,std::less<ioSceneManager *>,std::allocator<ioSceneManager *>,0> >::_Lrotate
$LN5@Insert:

; 1684 : 						}
; 1685 : 					this->_Color(this->_Parent(_Pnode)) =
; 1686 : 						this->_Black;	// propagate red up

  00098	8b 46 04	 mov	 eax, DWORD PTR [esi+4]
  0009b	c6 40 10 01	 mov	 BYTE PTR [eax+16], 1

; 1687 : 					this->_Color(this->_Parent(this->_Parent(_Pnode))) =
; 1688 : 						this->_Red;

  0009f	8b 46 04	 mov	 eax, DWORD PTR [esi+4]
  000a2	8b 40 04	 mov	 eax, DWORD PTR [eax+4]
  000a5	c6 40 10 00	 mov	 BYTE PTR [eax+16], 0

; 1689 : 					_Rrotate(this->_Parent(this->_Parent(_Pnode)));

  000a9	8b 46 04	 mov	 eax, DWORD PTR [esi+4]
  000ac	ff 70 04	 push	 DWORD PTR [eax+4]
  000af	8b cf		 mov	 ecx, edi
  000b1	e8 00 00 00 00	 call	 ?_Rrotate@?$_Tree@V?$_Tset_traits@PAVioSceneManager@@U?$less@PAVioSceneManager@@@std@@V?$allocator@PAVioSceneManager@@@3@$0A@@std@@@std@@IAEXPAU_Node@?$_Tree_nod@V?$_Tset_traits@PAVioSceneManager@@U?$less@PAVioSceneManager@@@std@@V?$allocator@PAVioSceneManager@@@3@$0A@@std@@@2@@Z ; std::_Tree<std::_Tset_traits<ioSceneManager *,std::less<ioSceneManager *>,std::allocator<ioSceneManager *>,0> >::_Rrotate

; 1690 : 					}
; 1691 : 				}
; 1692 : 			else

  000b6	eb 4e		 jmp	 SHORT $LN2@Insert
$LN8@Insert:

; 1693 : 				{	// fixup red-red in right subtree
; 1694 : 				_Wherenode =
; 1695 : 					this->_Left(this->_Parent(this->_Parent(_Pnode)));

  000b8	8b 09		 mov	 ecx, DWORD PTR [ecx]

; 1696 : 				if (this->_Color(_Wherenode) == this->_Red)

  000ba	80 79 10 00	 cmp	 BYTE PTR [ecx+16], 0
  000be	75 1a		 jne	 SHORT $LN3@Insert
$LN185@Insert:

; 1697 : 					{	// parent has two red children, blacken both
; 1698 : 					this->_Color(this->_Parent(_Pnode)) = this->_Black;

  000c0	c6 40 10 01	 mov	 BYTE PTR [eax+16], 1

; 1699 : 					this->_Color(_Wherenode) = this->_Black;

  000c4	c6 41 10 01	 mov	 BYTE PTR [ecx+16], 1

; 1700 : 					this->_Color(this->_Parent(this->_Parent(_Pnode))) =
; 1701 : 						this->_Red;

  000c8	8b 46 04	 mov	 eax, DWORD PTR [esi+4]
  000cb	8b 40 04	 mov	 eax, DWORD PTR [eax+4]
  000ce	c6 40 10 00	 mov	 BYTE PTR [eax+16], 0

; 1702 : 					_Pnode = this->_Parent(this->_Parent(_Pnode));

  000d2	8b 46 04	 mov	 eax, DWORD PTR [esi+4]
  000d5	8b 70 04	 mov	 esi, DWORD PTR [eax+4]

; 1703 : 					}
; 1704 : 				else

  000d8	eb 2c		 jmp	 SHORT $LN2@Insert
$LN3@Insert:

; 1705 : 					{	// parent has red and black children
; 1706 : 					if (_Pnode == this->_Left(this->_Parent(_Pnode)))

  000da	3b 30		 cmp	 esi, DWORD PTR [eax]
  000dc	75 0a		 jne	 SHORT $LN1@Insert

; 1707 : 						{	// rotate left child to right
; 1708 : 						_Pnode = this->_Parent(_Pnode);

  000de	8b f0		 mov	 esi, eax

; 1709 : 						_Rrotate(_Pnode);

  000e0	56		 push	 esi
  000e1	8b cf		 mov	 ecx, edi
  000e3	e8 00 00 00 00	 call	 ?_Rrotate@?$_Tree@V?$_Tset_traits@PAVioSceneManager@@U?$less@PAVioSceneManager@@@std@@V?$allocator@PAVioSceneManager@@@3@$0A@@std@@@std@@IAEXPAU_Node@?$_Tree_nod@V?$_Tset_traits@PAVioSceneManager@@U?$less@PAVioSceneManager@@@std@@V?$allocator@PAVioSceneManager@@@3@$0A@@std@@@2@@Z ; std::_Tree<std::_Tset_traits<ioSceneManager *,std::less<ioSceneManager *>,std::allocator<ioSceneManager *>,0> >::_Rrotate
$LN1@Insert:

; 1710 : 						}
; 1711 : 					this->_Color(this->_Parent(_Pnode)) =
; 1712 : 						this->_Black;	// propagate red up

  000e8	8b 46 04	 mov	 eax, DWORD PTR [esi+4]
  000eb	c6 40 10 01	 mov	 BYTE PTR [eax+16], 1

; 1713 : 					this->_Color(this->_Parent(this->_Parent(_Pnode))) =
; 1714 : 						this->_Red;

  000ef	8b 46 04	 mov	 eax, DWORD PTR [esi+4]
  000f2	8b 40 04	 mov	 eax, DWORD PTR [eax+4]
  000f5	c6 40 10 00	 mov	 BYTE PTR [eax+16], 0

; 1715 : 					_Lrotate(this->_Parent(this->_Parent(_Pnode)));

  000f9	8b 46 04	 mov	 eax, DWORD PTR [esi+4]
  000fc	ff 70 04	 push	 DWORD PTR [eax+4]
  000ff	8b cf		 mov	 ecx, edi
  00101	e8 00 00 00 00	 call	 ?_Lrotate@?$_Tree@V?$_Tset_traits@PAVioSceneManager@@U?$less@PAVioSceneManager@@@std@@V?$allocator@PAVioSceneManager@@@3@$0A@@std@@@std@@IAEXPAU_Node@?$_Tree_nod@V?$_Tset_traits@PAVioSceneManager@@U?$less@PAVioSceneManager@@@std@@V?$allocator@PAVioSceneManager@@@3@$0A@@std@@@2@@Z ; std::_Tree<std::_Tset_traits<ioSceneManager *,std::less<ioSceneManager *>,std::allocator<ioSceneManager *>,0> >::_Lrotate
$LN2@Insert:

; 1661 : 			}
; 1662 : 
; 1663 : 		for (_Nodeptr _Pnode = _Newnode;
; 1664 : 			this->_Color(this->_Parent(_Pnode)) == this->_Red; )

  00106	8b 46 04	 mov	 eax, DWORD PTR [esi+4]
$LN184@Insert:
  00109	80 78 10 00	 cmp	 BYTE PTR [eax+16], 0
  0010d	0f 84 63 ff ff
	ff		 je	 $LL10@Insert

; 1716 : 					}
; 1717 : 				}
; 1718 : 
; 1719 : 		this->_Color(_Root()) = this->_Black;	// root is always black

  00113	8b 47 04	 mov	 eax, DWORD PTR [edi+4]
  00116	8b 40 04	 mov	 eax, DWORD PTR [eax+4]
  00119	5f		 pop	 edi
  0011a	c6 40 10 01	 mov	 BYTE PTR [eax+16], 1

; 1720 : 		return (iterator(_Newnode, this));

  0011e	8b 45 08	 mov	 eax, DWORD PTR ___$ReturnUdt$[ebp]
  00121	5e		 pop	 esi
  00122	89 18		 mov	 DWORD PTR [eax], ebx
  00124	5b		 pop	 ebx

; 1721 : 		}

  00125	5d		 pop	 ebp
  00126	c2 10 00	 ret	 16			; 00000010H
$LN183@Insert:
?_Insert@?$_Tree@V?$_Tset_traits@PAVioSceneManager@@U?$less@PAVioSceneManager@@@std@@V?$allocator@PAVioSceneManager@@@3@$0A@@std@@@std@@IAE?AV?$_Tree_const_iterator@V?$_Tree_val@V?$_Tset_traits@PAVioSceneManager@@U?$less@PAVioSceneManager@@@std@@V?$allocator@PAVioSceneManager@@@3@$0A@@std@@@std@@@2@_NPAU_Node@?$_Tree_nod@V?$_Tset_traits@PAVioSceneManager@@U?$less@PAVioSceneManager@@@std@@V?$allocator@PAVioSceneManager@@@3@$0A@@std@@@2@1@Z ENDP ; std::_Tree<std::_Tset_traits<ioSceneManager *,std::less<ioSceneManager *>,std::allocator<ioSceneManager *>,0> >::_Insert
_TEXT	ENDS
PUBLIC	??0?$pair@V?$_Tree_const_iterator@V?$_Tree_val@V?$_Tset_traits@PAVioSceneManager@@U?$less@PAVioSceneManager@@@std@@V?$allocator@PAVioSceneManager@@@3@$0A@@std@@@std@@@std@@_N@std@@QAE@$$QAV?$_Tree_const_iterator@V?$_Tree_val@V?$_Tset_traits@PAVioSceneManager@@U?$less@PAVioSceneManager@@@std@@V?$allocator@PAVioSceneManager@@@3@$0A@@std@@@std@@@1@$$QA_N@Z ; std::pair<std::_Tree_const_iterator<std::_Tree_val<std::_Tset_traits<ioSceneManager *,std::less<ioSceneManager *>,std::allocator<ioSceneManager *>,0> > >,bool>::pair<std::_Tree_const_iterator<std::_Tree_val<std::_Tset_traits<ioSceneManager *,std::less<ioSceneManager *>,std::allocator<ioSceneManager *>,0> > >,bool>
; Function compile flags: /Ogsp
; File c:\program files (x86)\microsoft visual studio 10.0\vc\include\utility
;	COMDAT ??0?$pair@V?$_Tree_const_iterator@V?$_Tree_val@V?$_Tset_traits@PAVioSceneManager@@U?$less@PAVioSceneManager@@@std@@V?$allocator@PAVioSceneManager@@@3@$0A@@std@@@std@@@std@@_N@std@@QAE@$$QAV?$_Tree_const_iterator@V?$_Tree_val@V?$_Tset_traits@PAVioSceneManager@@U?$less@PAVioSceneManager@@@std@@V?$allocator@PAVioSceneManager@@@3@$0A@@std@@@std@@@1@$$QA_N@Z
_TEXT	SEGMENT
__Val1$ = 8						; size = 4
__Val2$ = 12						; size = 4
??0?$pair@V?$_Tree_const_iterator@V?$_Tree_val@V?$_Tset_traits@PAVioSceneManager@@U?$less@PAVioSceneManager@@@std@@V?$allocator@PAVioSceneManager@@@3@$0A@@std@@@std@@@std@@_N@std@@QAE@$$QAV?$_Tree_const_iterator@V?$_Tree_val@V?$_Tset_traits@PAVioSceneManager@@U?$less@PAVioSceneManager@@@std@@V?$allocator@PAVioSceneManager@@@3@$0A@@std@@@std@@@1@$$QA_N@Z PROC ; std::pair<std::_Tree_const_iterator<std::_Tree_val<std::_Tset_traits<ioSceneManager *,std::less<ioSceneManager *>,std::allocator<ioSceneManager *>,0> > >,bool>::pair<std::_Tree_const_iterator<std::_Tree_val<std::_Tset_traits<ioSceneManager *,std::less<ioSceneManager *>,std::allocator<ioSceneManager *>,0> > >,bool>, COMDAT
; _this$ = ecx

; 227  : 		{	// construct from specified values

  00000	55		 push	 ebp
  00001	8b ec		 mov	 ebp, esp
  00003	8b c1		 mov	 eax, ecx
  00005	8b 4d 08	 mov	 ecx, DWORD PTR __Val1$[ebp]
  00008	8b 09		 mov	 ecx, DWORD PTR [ecx]
  0000a	89 08		 mov	 DWORD PTR [eax], ecx
  0000c	8b 4d 0c	 mov	 ecx, DWORD PTR __Val2$[ebp]
  0000f	8a 09		 mov	 cl, BYTE PTR [ecx]
  00011	88 48 04	 mov	 BYTE PTR [eax+4], cl

; 228  : 		}

  00014	5d		 pop	 ebp
  00015	c2 08 00	 ret	 8
??0?$pair@V?$_Tree_const_iterator@V?$_Tree_val@V?$_Tset_traits@PAVioSceneManager@@U?$less@PAVioSceneManager@@@std@@V?$allocator@PAVioSceneManager@@@3@$0A@@std@@@std@@@std@@_N@std@@QAE@$$QAV?$_Tree_const_iterator@V?$_Tree_val@V?$_Tset_traits@PAVioSceneManager@@U?$less@PAVioSceneManager@@@std@@V?$allocator@PAVioSceneManager@@@3@$0A@@std@@@std@@@1@$$QA_N@Z ENDP ; std::pair<std::_Tree_const_iterator<std::_Tree_val<std::_Tset_traits<ioSceneManager *,std::less<ioSceneManager *>,std::allocator<ioSceneManager *>,0> > >,bool>::pair<std::_Tree_const_iterator<std::_Tree_val<std::_Tset_traits<ioSceneManager *,std::less<ioSceneManager *>,std::allocator<ioSceneManager *>,0> > >,bool>
_TEXT	ENDS
PUBLIC	??$_Buynode@AAPAVioSceneManager@@@?$_Tree_val@V?$_Tset_traits@PAVioSceneManager@@U?$less@PAVioSceneManager@@@std@@V?$allocator@PAVioSceneManager@@@3@$0A@@std@@@std@@QAEPAU_Node@?$_Tree_nod@V?$_Tset_traits@PAVioSceneManager@@U?$less@PAVioSceneManager@@@std@@V?$allocator@PAVioSceneManager@@@3@$0A@@std@@@1@AAPAVioSceneManager@@@Z ; std::_Tree_val<std::_Tset_traits<ioSceneManager *,std::less<ioSceneManager *>,std::allocator<ioSceneManager *>,0> >::_Buynode<ioSceneManager * &>
; Function compile flags: /Ogsp
; File c:\program files (x86)\microsoft visual studio 10.0\vc\include\xtree
;	COMDAT ??$_Buynode@AAPAVioSceneManager@@@?$_Tree_val@V?$_Tset_traits@PAVioSceneManager@@U?$less@PAVioSceneManager@@@std@@V?$allocator@PAVioSceneManager@@@3@$0A@@std@@@std@@QAEPAU_Node@?$_Tree_nod@V?$_Tset_traits@PAVioSceneManager@@U?$less@PAVioSceneManager@@@std@@V?$allocator@PAVioSceneManager@@@3@$0A@@std@@@1@AAPAVioSceneManager@@@Z
_TEXT	SEGMENT
__Val$ = 8						; size = 4
??$_Buynode@AAPAVioSceneManager@@@?$_Tree_val@V?$_Tset_traits@PAVioSceneManager@@U?$less@PAVioSceneManager@@@std@@V?$allocator@PAVioSceneManager@@@3@$0A@@std@@@std@@QAEPAU_Node@?$_Tree_nod@V?$_Tset_traits@PAVioSceneManager@@U?$less@PAVioSceneManager@@@std@@V?$allocator@PAVioSceneManager@@@3@$0A@@std@@@1@AAPAVioSceneManager@@@Z PROC ; std::_Tree_val<std::_Tset_traits<ioSceneManager *,std::less<ioSceneManager *>,std::allocator<ioSceneManager *>,0> >::_Buynode<ioSceneManager * &>, COMDAT
; _this$ = ecx

; 586  : 		_Nodeptr _Buynode(_Valty&& _Val)

  00000	55		 push	 ebp
  00001	8b ec		 mov	 ebp, esp

; 587  : 		{	// allocate a node with defaults
; 588  : 		_Nodeptr _Wherenode = _Buynode();

  00003	e8 00 00 00 00	 call	 ?_Buynode@?$_Tree_val@V?$_Tset_traits@PAVioSceneManager@@U?$less@PAVioSceneManager@@@std@@V?$allocator@PAVioSceneManager@@@3@$0A@@std@@@std@@QAEPAU_Node@?$_Tree_nod@V?$_Tset_traits@PAVioSceneManager@@U?$less@PAVioSceneManager@@@std@@V?$allocator@PAVioSceneManager@@@3@$0A@@std@@@2@XZ ; std::_Tree_val<std::_Tset_traits<ioSceneManager *,std::less<ioSceneManager *>,std::allocator<ioSceneManager *>,0> >::_Buynode

; 589  : 
; 590  : 		_TRY_BEGIN
; 591  : 		_Cons_val(this->_Alval, _STD addressof(this->_Myval(_Wherenode)),
; 592  : 			_STD forward<_Valty>(_Val));

  00008	8d 48 0c	 lea	 ecx, DWORD PTR [eax+12]
  0000b	85 c9		 test	 ecx, ecx
  0000d	74 07		 je	 SHORT $LN20@Buynode@2
  0000f	8b 55 08	 mov	 edx, DWORD PTR __Val$[ebp]
  00012	8b 12		 mov	 edx, DWORD PTR [edx]
  00014	89 11		 mov	 DWORD PTR [ecx], edx
$LN20@Buynode@2:

; 593  : 		_CATCH_ALL
; 594  : 		this->_Alnod.deallocate(_Wherenode, 1);
; 595  : 		_RERAISE;
; 596  : 		_CATCH_END
; 597  : 
; 598  : 		return (_Wherenode);
; 599  : 		}

  00016	5d		 pop	 ebp
  00017	c2 04 00	 ret	 4
??$_Buynode@AAPAVioSceneManager@@@?$_Tree_val@V?$_Tset_traits@PAVioSceneManager@@U?$less@PAVioSceneManager@@@std@@V?$allocator@PAVioSceneManager@@@3@$0A@@std@@@std@@QAEPAU_Node@?$_Tree_nod@V?$_Tset_traits@PAVioSceneManager@@U?$less@PAVioSceneManager@@@std@@V?$allocator@PAVioSceneManager@@@3@$0A@@std@@@1@AAPAVioSceneManager@@@Z ENDP ; std::_Tree_val<std::_Tset_traits<ioSceneManager *,std::less<ioSceneManager *>,std::allocator<ioSceneManager *>,0> >::_Buynode<ioSceneManager * &>
_TEXT	ENDS
PUBLIC	??$_Distance2@V?$_Tree_const_iterator@V?$_Tree_val@V?$_Tset_traits@PAVioSceneManager@@U?$less@PAVioSceneManager@@@std@@V?$allocator@PAVioSceneManager@@@3@$0A@@std@@@std@@@std@@I@std@@YAXV?$_Tree_const_iterator@V?$_Tree_val@V?$_Tset_traits@PAVioSceneManager@@U?$less@PAVioSceneManager@@@std@@V?$allocator@PAVioSceneManager@@@3@$0A@@std@@@std@@@0@0AAIUbidirectional_iterator_tag@0@@Z ; std::_Distance2<std::_Tree_const_iterator<std::_Tree_val<std::_Tset_traits<ioSceneManager *,std::less<ioSceneManager *>,std::allocator<ioSceneManager *>,0> > >,unsigned int>
; Function compile flags: /Ogsp
; File c:\program files (x86)\microsoft visual studio 10.0\vc\include\xutility
;	COMDAT ??$_Distance2@V?$_Tree_const_iterator@V?$_Tree_val@V?$_Tset_traits@PAVioSceneManager@@U?$less@PAVioSceneManager@@@std@@V?$allocator@PAVioSceneManager@@@3@$0A@@std@@@std@@@std@@I@std@@YAXV?$_Tree_const_iterator@V?$_Tree_val@V?$_Tset_traits@PAVioSceneManager@@U?$less@PAVioSceneManager@@@std@@V?$allocator@PAVioSceneManager@@@3@$0A@@std@@@std@@@0@0AAIUbidirectional_iterator_tag@0@@Z
_TEXT	SEGMENT
__First$ = 8						; size = 4
__Last$ = 12						; size = 4
__Off$ = 16						; size = 4
___formal$ = 20						; size = 1
??$_Distance2@V?$_Tree_const_iterator@V?$_Tree_val@V?$_Tset_traits@PAVioSceneManager@@U?$less@PAVioSceneManager@@@std@@V?$allocator@PAVioSceneManager@@@3@$0A@@std@@@std@@@std@@I@std@@YAXV?$_Tree_const_iterator@V?$_Tree_val@V?$_Tset_traits@PAVioSceneManager@@U?$less@PAVioSceneManager@@@std@@V?$allocator@PAVioSceneManager@@@3@$0A@@std@@@std@@@0@0AAIUbidirectional_iterator_tag@0@@Z PROC ; std::_Distance2<std::_Tree_const_iterator<std::_Tree_val<std::_Tset_traits<ioSceneManager *,std::less<ioSceneManager *>,std::allocator<ioSceneManager *>,0> > >,unsigned int>, COMDAT

; 876  : 	{	// add to _Off distance between bidirectional iterators (redundant)

  00000	55		 push	 ebp
  00001	8b ec		 mov	 ebp, esp
  00003	57		 push	 edi

; 877  : 	for (; _First != _Last; ++_First)

  00004	8b 7d 0c	 mov	 edi, DWORD PTR __Last$[ebp]
  00007	39 7d 08	 cmp	 DWORD PTR __First$[ebp], edi
  0000a	74 14		 je	 SHORT $LN1@Distance2
  0000c	56		 push	 esi
  0000d	8b 75 10	 mov	 esi, DWORD PTR __Off$[ebp]
$LL6@Distance2:

; 878  : 		++_Off;

  00010	ff 06		 inc	 DWORD PTR [esi]
  00012	8d 4d 08	 lea	 ecx, DWORD PTR __First$[ebp]
  00015	e8 00 00 00 00	 call	 ??E?$_Tree_unchecked_const_iterator@V?$_Tree_val@V?$_Tset_traits@PAVioSceneManager@@U?$less@PAVioSceneManager@@@std@@V?$allocator@PAVioSceneManager@@@3@$0A@@std@@@std@@U_Iterator_base0@2@@std@@QAEAAV01@XZ ; std::_Tree_unchecked_const_iterator<std::_Tree_val<std::_Tset_traits<ioSceneManager *,std::less<ioSceneManager *>,std::allocator<ioSceneManager *>,0> >,std::_Iterator_base0>::operator++
  0001a	39 7d 08	 cmp	 DWORD PTR __First$[ebp], edi
  0001d	75 f1		 jne	 SHORT $LL6@Distance2
  0001f	5e		 pop	 esi
$LN1@Distance2:
  00020	5f		 pop	 edi

; 879  : 	}

  00021	5d		 pop	 ebp
  00022	c3		 ret	 0
??$_Distance2@V?$_Tree_const_iterator@V?$_Tree_val@V?$_Tset_traits@PAVioSceneManager@@U?$less@PAVioSceneManager@@@std@@V?$allocator@PAVioSceneManager@@@3@$0A@@std@@@std@@@std@@I@std@@YAXV?$_Tree_const_iterator@V?$_Tree_val@V?$_Tset_traits@PAVioSceneManager@@U?$less@PAVioSceneManager@@@std@@V?$allocator@PAVioSceneManager@@@3@$0A@@std@@@std@@@0@0AAIUbidirectional_iterator_tag@0@@Z ENDP ; std::_Distance2<std::_Tree_const_iterator<std::_Tree_val<std::_Tset_traits<ioSceneManager *,std::less<ioSceneManager *>,std::allocator<ioSceneManager *>,0> > >,unsigned int>
_TEXT	ENDS
PUBLIC	??$?0AAV?$_Tree_const_iterator@V?$_Tree_val@V?$_Tset_traits@PAVioSceneManager@@U?$less@PAVioSceneManager@@@std@@V?$allocator@PAVioSceneManager@@@3@$0A@@std@@@std@@@std@@_N@?$pair@V?$_Tree_const_iterator@V?$_Tree_val@V?$_Tset_traits@PAVioSceneManager@@U?$less@PAVioSceneManager@@@std@@V?$allocator@PAVioSceneManager@@@3@$0A@@std@@@std@@@std@@_N@std@@QAE@AAV?$_Tree_const_iterator@V?$_Tree_val@V?$_Tset_traits@PAVioSceneManager@@U?$less@PAVioSceneManager@@@std@@V?$allocator@PAVioSceneManager@@@3@$0A@@std@@@std@@@1@$$QA_N@Z ; std::pair<std::_Tree_const_iterator<std::_Tree_val<std::_Tset_traits<ioSceneManager *,std::less<ioSceneManager *>,std::allocator<ioSceneManager *>,0> > >,bool>::pair<std::_Tree_const_iterator<std::_Tree_val<std::_Tset_traits<ioSceneManager *,std::less<ioSceneManager *>,std::allocator<ioSceneManager *>,0> > >,bool><std::_Tree_const_iterator<std::_Tree_val<std::_Tset_traits<ioSceneManager *,std::less<ioSceneManager *>,std::allocator<ioSceneManager *>,0> > > &,bool>
; Function compile flags: /Ogsp
; File c:\program files (x86)\microsoft visual studio 10.0\vc\include\utility
;	COMDAT ??$?0AAV?$_Tree_const_iterator@V?$_Tree_val@V?$_Tset_traits@PAVioSceneManager@@U?$less@PAVioSceneManager@@@std@@V?$allocator@PAVioSceneManager@@@3@$0A@@std@@@std@@@std@@_N@?$pair@V?$_Tree_const_iterator@V?$_Tree_val@V?$_Tset_traits@PAVioSceneManager@@U?$less@PAVioSceneManager@@@std@@V?$allocator@PAVioSceneManager@@@3@$0A@@std@@@std@@@std@@_N@std@@QAE@AAV?$_Tree_const_iterator@V?$_Tree_val@V?$_Tset_traits@PAVioSceneManager@@U?$less@PAVioSceneManager@@@std@@V?$allocator@PAVioSceneManager@@@3@$0A@@std@@@std@@@1@$$QA_N@Z
_TEXT	SEGMENT
__Val1$ = 8						; size = 4
__Val2$ = 12						; size = 4
??$?0AAV?$_Tree_const_iterator@V?$_Tree_val@V?$_Tset_traits@PAVioSceneManager@@U?$less@PAVioSceneManager@@@std@@V?$allocator@PAVioSceneManager@@@3@$0A@@std@@@std@@@std@@_N@?$pair@V?$_Tree_const_iterator@V?$_Tree_val@V?$_Tset_traits@PAVioSceneManager@@U?$less@PAVioSceneManager@@@std@@V?$allocator@PAVioSceneManager@@@3@$0A@@std@@@std@@@std@@_N@std@@QAE@AAV?$_Tree_const_iterator@V?$_Tree_val@V?$_Tset_traits@PAVioSceneManager@@U?$less@PAVioSceneManager@@@std@@V?$allocator@PAVioSceneManager@@@3@$0A@@std@@@std@@@1@$$QA_N@Z PROC ; std::pair<std::_Tree_const_iterator<std::_Tree_val<std::_Tset_traits<ioSceneManager *,std::less<ioSceneManager *>,std::allocator<ioSceneManager *>,0> > >,bool>::pair<std::_Tree_const_iterator<std::_Tree_val<std::_Tset_traits<ioSceneManager *,std::less<ioSceneManager *>,std::allocator<ioSceneManager *>,0> > >,bool><std::_Tree_const_iterator<std::_Tree_val<std::_Tset_traits<ioSceneManager *,std::less<ioSceneManager *>,std::allocator<ioSceneManager *>,0> > > &,bool>, COMDAT
; _this$ = ecx

; 247  : 		{	// construct from moved values

  00000	55		 push	 ebp
  00001	8b ec		 mov	 ebp, esp
  00003	8b c1		 mov	 eax, ecx
  00005	8b 4d 08	 mov	 ecx, DWORD PTR __Val1$[ebp]
  00008	8b 09		 mov	 ecx, DWORD PTR [ecx]
  0000a	89 08		 mov	 DWORD PTR [eax], ecx
  0000c	8b 4d 0c	 mov	 ecx, DWORD PTR __Val2$[ebp]
  0000f	8a 09		 mov	 cl, BYTE PTR [ecx]
  00011	88 48 04	 mov	 BYTE PTR [eax+4], cl

; 248  : 		}

  00014	5d		 pop	 ebp
  00015	c2 08 00	 ret	 8
??$?0AAV?$_Tree_const_iterator@V?$_Tree_val@V?$_Tset_traits@PAVioSceneManager@@U?$less@PAVioSceneManager@@@std@@V?$allocator@PAVioSceneManager@@@3@$0A@@std@@@std@@@std@@_N@?$pair@V?$_Tree_const_iterator@V?$_Tree_val@V?$_Tset_traits@PAVioSceneManager@@U?$less@PAVioSceneManager@@@std@@V?$allocator@PAVioSceneManager@@@3@$0A@@std@@@std@@@std@@_N@std@@QAE@AAV?$_Tree_const_iterator@V?$_Tree_val@V?$_Tset_traits@PAVioSceneManager@@U?$less@PAVioSceneManager@@@std@@V?$allocator@PAVioSceneManager@@@3@$0A@@std@@@std@@@1@$$QA_N@Z ENDP ; std::pair<std::_Tree_const_iterator<std::_Tree_val<std::_Tset_traits<ioSceneManager *,std::less<ioSceneManager *>,std::allocator<ioSceneManager *>,0> > >,bool>::pair<std::_Tree_const_iterator<std::_Tree_val<std::_Tset_traits<ioSceneManager *,std::less<ioSceneManager *>,std::allocator<ioSceneManager *>,0> > >,bool><std::_Tree_const_iterator<std::_Tree_val<std::_Tset_traits<ioSceneManager *,std::less<ioSceneManager *>,std::allocator<ioSceneManager *>,0> > > &,bool>
_TEXT	ENDS
PUBLIC	??0?$vector@VioHashString@@V?$allocator@VioHashString@@@std@@@std@@QAE@XZ ; std::vector<ioHashString,std::allocator<ioHashString> >::vector<ioHashString,std::allocator<ioHashString> >
; Function compile flags: /Ogsp
; File c:\program files (x86)\microsoft visual studio 10.0\vc\include\vector
;	COMDAT ??0?$vector@VioHashString@@V?$allocator@VioHashString@@@std@@@std@@QAE@XZ
_TEXT	SEGMENT
??0?$vector@VioHashString@@V?$allocator@VioHashString@@@std@@@std@@QAE@XZ PROC ; std::vector<ioHashString,std::allocator<ioHashString> >::vector<ioHashString,std::allocator<ioHashString> >, COMDAT
; _this$ = ecx

; 507  : 		{	// construct empty vector

  00000	8b c1		 mov	 eax, ecx
  00002	33 c9		 xor	 ecx, ecx
  00004	89 08		 mov	 DWORD PTR [eax], ecx
  00006	89 48 04	 mov	 DWORD PTR [eax+4], ecx
  00009	89 48 08	 mov	 DWORD PTR [eax+8], ecx

; 508  : 		}

  0000c	c3		 ret	 0
??0?$vector@VioHashString@@V?$allocator@VioHashString@@@std@@@std@@QAE@XZ ENDP ; std::vector<ioHashString,std::allocator<ioHashString> >::vector<ioHashString,std::allocator<ioHashString> >
_TEXT	ENDS
PUBLIC	??9?$_Vector_const_iterator@V?$_Vector_val@VioHashString@@V?$allocator@VioHashString@@@std@@@std@@@std@@QBE_NABV01@@Z ; std::_Vector_const_iterator<std::_Vector_val<ioHashString,std::allocator<ioHashString> > >::operator!=
; Function compile flags: /Ogsp
;	COMDAT ??9?$_Vector_const_iterator@V?$_Vector_val@VioHashString@@V?$allocator@VioHashString@@@std@@@std@@@std@@QBE_NABV01@@Z
_TEXT	SEGMENT
__Right$ = 8						; size = 4
??9?$_Vector_const_iterator@V?$_Vector_val@VioHashString@@V?$allocator@VioHashString@@@std@@@std@@@std@@QBE_NABV01@@Z PROC ; std::_Vector_const_iterator<std::_Vector_val<ioHashString,std::allocator<ioHashString> > >::operator!=, COMDAT
; _this$ = ecx

; 207  : 		{	// test for iterator inequality

  00000	55		 push	 ebp
  00001	8b ec		 mov	 ebp, esp

; 208  : 		return (!(*this == _Right));

  00003	8b 01		 mov	 eax, DWORD PTR [ecx]
  00005	8b 55 08	 mov	 edx, DWORD PTR __Right$[ebp]
  00008	33 c9		 xor	 ecx, ecx
  0000a	3b 02		 cmp	 eax, DWORD PTR [edx]
  0000c	0f 95 c0	 setne	 al

; 209  : 		}

  0000f	5d		 pop	 ebp
  00010	c2 04 00	 ret	 4
??9?$_Vector_const_iterator@V?$_Vector_val@VioHashString@@V?$allocator@VioHashString@@@std@@@std@@@std@@QBE_NABV01@@Z ENDP ; std::_Vector_const_iterator<std::_Vector_val<ioHashString,std::allocator<ioHashString> > >::operator!=
_TEXT	ENDS
PUBLIC	??$_Move@PAVioHashString@@PAV1@@std@@YAPAVioHashString@@PAV1@00@Z ; std::_Move<ioHashString *,ioHashString *>
; Function compile flags: /Ogsp
; File c:\program files (x86)\microsoft visual studio 10.0\vc\include\xutility
;	COMDAT ??$_Move@PAVioHashString@@PAV1@@std@@YAPAVioHashString@@PAV1@00@Z
_TEXT	SEGMENT
__Cat$513811 = -4					; size = 1
__First$ = 8						; size = 4
__Last$ = 12						; size = 4
__Dest$ = 16						; size = 4
??$_Move@PAVioHashString@@PAV1@@std@@YAPAVioHashString@@PAV1@00@Z PROC ; std::_Move<ioHashString *,ioHashString *>, COMDAT

; 2533 : 	{	// move [_First, _Last) to [_Dest, ...), unchecked

  00000	55		 push	 ebp
  00001	8b ec		 mov	 ebp, esp
  00003	51		 push	 ecx

; 2534 : 	return (_Move(_First, _Last,
; 2535 : 		_Dest, _Ptr_cat(_First, _Dest)));

  00004	ff 75 fc	 push	 DWORD PTR __Cat$513811[ebp]
  00007	ff 75 10	 push	 DWORD PTR __Dest$[ebp]
  0000a	ff 75 0c	 push	 DWORD PTR __Last$[ebp]
  0000d	ff 75 08	 push	 DWORD PTR __First$[ebp]
  00010	e8 00 00 00 00	 call	 ??$_Move@PAVioHashString@@PAV1@@std@@YAPAVioHashString@@PAV1@00U_Nonscalar_ptr_iterator_tag@0@@Z ; std::_Move<ioHashString *,ioHashString *>
  00015	83 c4 10	 add	 esp, 16			; 00000010H

; 2536 : 	}

  00018	c9		 leave
  00019	c3		 ret	 0
??$_Move@PAVioHashString@@PAV1@@std@@YAPAVioHashString@@PAV1@00@Z ENDP ; std::_Move<ioHashString *,ioHashString *>
_TEXT	ENDS
PUBLIC	?destroy@?$allocator@VioHashString@@@std@@QAEXPAVioHashString@@@Z ; std::allocator<ioHashString>::destroy
; Function compile flags: /Ogsp
; File c:\program files (x86)\microsoft visual studio 10.0\vc\include\xmemory
;	COMDAT ?destroy@?$allocator@VioHashString@@@std@@QAEXPAVioHashString@@@Z
_TEXT	SEGMENT
__Ptr$ = 8						; size = 4
?destroy@?$allocator@VioHashString@@@std@@QAEXPAVioHashString@@@Z PROC ; std::allocator<ioHashString>::destroy, COMDAT
; _this$ = ecx

; 212  : 		{	// destroy object at _Ptr

  00000	55		 push	 ebp
  00001	8b ec		 mov	 ebp, esp

; 213  : 		_Destroy(_Ptr);

  00003	8b 4d 08	 mov	 ecx, DWORD PTR __Ptr$[ebp]
  00006	ff 15 00 00 00
	00		 call	 DWORD PTR __imp_??1ioHashString@@QAE@XZ

; 214  : 		}

  0000c	5d		 pop	 ebp
  0000d	c2 04 00	 ret	 4
?destroy@?$allocator@VioHashString@@@std@@QAEXPAVioHashString@@@Z ENDP ; std::allocator<ioHashString>::destroy
_TEXT	ENDS
PUBLIC	??$_Cons_val@V?$allocator@VioHashString@@@std@@VioHashString@@ABV3@@std@@YAXAAV?$allocator@VioHashString@@@0@PAVioHashString@@ABV2@@Z ; std::_Cons_val<std::allocator<ioHashString>,ioHashString,ioHashString const &>
; Function compile flags: /Ogsp
;	COMDAT ??$_Cons_val@V?$allocator@VioHashString@@@std@@VioHashString@@ABV3@@std@@YAXAAV?$allocator@VioHashString@@@0@PAVioHashString@@ABV2@@Z
_TEXT	SEGMENT
__Alval$ = 8						; size = 4
__Pdest$ = 12						; size = 4
__Src$ = 16						; size = 4
??$_Cons_val@V?$allocator@VioHashString@@@std@@VioHashString@@ABV3@@std@@YAXAAV?$allocator@VioHashString@@@0@PAVioHashString@@ABV2@@Z PROC ; std::_Cons_val<std::allocator<ioHashString>,ioHashString,ioHashString const &>, COMDAT

; 279  : 	{	// construct using allocator

  00000	55		 push	 ebp
  00001	8b ec		 mov	 ebp, esp

; 280  : 	_Alval.construct(_Pdest, _STD forward<_Ty2>(_Src));

  00003	ff 75 10	 push	 DWORD PTR __Src$[ebp]
  00006	ff 75 0c	 push	 DWORD PTR __Pdest$[ebp]
  00009	e8 00 00 00 00	 call	 ??$_Construct@VioHashString@@ABV1@@std@@YAXPAVioHashString@@ABV1@@Z ; std::_Construct<ioHashString,ioHashString const &>
  0000e	59		 pop	 ecx
  0000f	59		 pop	 ecx

; 281  : 	}

  00010	5d		 pop	 ebp
  00011	c3		 ret	 0
??$_Cons_val@V?$allocator@VioHashString@@@std@@VioHashString@@ABV3@@std@@YAXAAV?$allocator@VioHashString@@@0@PAVioHashString@@ABV2@@Z ENDP ; std::_Cons_val<std::allocator<ioHashString>,ioHashString,ioHashString const &>
_TEXT	ENDS
PUBLIC	?SetSoftSkinning@ioUI3DRender@@SAX_N@Z		; ioUI3DRender::SetSoftSkinning
; Function compile flags: /Ogsp
; File d:\lost saga for developer\youtube\tutorial\source\src\lsclient\gui\ioui3drender.cpp
;	COMDAT ?SetSoftSkinning@ioUI3DRender@@SAX_N@Z
_TEXT	SEGMENT
_iter$ = -4						; size = 4
_bSoft$ = 8						; size = 1
?SetSoftSkinning@ioUI3DRender@@SAX_N@Z PROC		; ioUI3DRender::SetSoftSkinning, COMDAT

; 209  : {

  00000	55		 push	 ebp
  00001	8b ec		 mov	 ebp, esp
  00003	51		 push	 ecx

; 210  : 	SceneMgrList::iterator iter = m_CreatedSceneMgrList.begin();

  00004	8b 0d 04 00 00
	00		 mov	 ecx, DWORD PTR ?m_CreatedSceneMgrList@ioUI3DRender@@1V?$set@PAVioSceneManager@@U?$less@PAVioSceneManager@@@std@@V?$allocator@PAVioSceneManager@@@3@@std@@A+4
  0000a	8b 01		 mov	 eax, DWORD PTR [ecx]
  0000c	89 45 fc	 mov	 DWORD PTR _iter$[ebp], eax

; 211  : 	while( iter!=m_CreatedSceneMgrList.end() )

  0000f	3b c1		 cmp	 eax, ecx
  00011	74 20		 je	 SHORT $LN1@SetSoftSki
$LL2@SetSoftSki:

; 212  : 	{
; 213  : 		(*iter)->SetSoftwareVertexBlending( bSoft );

  00013	8b 40 0c	 mov	 eax, DWORD PTR [eax+12]
  00016	ff 75 08	 push	 DWORD PTR _bSoft$[ebp]
  00019	8b 10		 mov	 edx, DWORD PTR [eax]
  0001b	8b c8		 mov	 ecx, eax
  0001d	ff 52 54	 call	 DWORD PTR [edx+84]

; 214  : 		++iter;

  00020	8d 4d fc	 lea	 ecx, DWORD PTR _iter$[ebp]
  00023	e8 00 00 00 00	 call	 ??E?$_Tree_unchecked_const_iterator@V?$_Tree_val@V?$_Tset_traits@PAVioSceneManager@@U?$less@PAVioSceneManager@@@std@@V?$allocator@PAVioSceneManager@@@3@$0A@@std@@@std@@U_Iterator_base0@2@@std@@QAEAAV01@XZ ; std::_Tree_unchecked_const_iterator<std::_Tree_val<std::_Tset_traits<ioSceneManager *,std::less<ioSceneManager *>,std::allocator<ioSceneManager *>,0> >,std::_Iterator_base0>::operator++
  00028	8b 45 fc	 mov	 eax, DWORD PTR _iter$[ebp]
  0002b	3b 05 04 00 00
	00		 cmp	 eax, DWORD PTR ?m_CreatedSceneMgrList@ioUI3DRender@@1V?$set@PAVioSceneManager@@U?$less@PAVioSceneManager@@@std@@V?$allocator@PAVioSceneManager@@@3@@std@@A+4
  00031	75 e0		 jne	 SHORT $LL2@SetSoftSki
$LN1@SetSoftSki:

; 215  : 	}
; 216  : }

  00033	c9		 leave
  00034	c3		 ret	 0
?SetSoftSkinning@ioUI3DRender@@SAX_N@Z ENDP		; ioUI3DRender::SetSoftSkinning
_TEXT	ENDS
PUBLIC	?ModifyEntityGroupMaterial@ioUI3DRender@@SAXPAVioEntityGrpMaterialModifier@@@Z ; ioUI3DRender::ModifyEntityGroupMaterial
; Function compile flags: /Ogsp
;	COMDAT ?ModifyEntityGroupMaterial@ioUI3DRender@@SAXPAVioEntityGrpMaterialModifier@@@Z
_TEXT	SEGMENT
_iter$ = -4						; size = 4
_pMod$ = 8						; size = 4
?ModifyEntityGroupMaterial@ioUI3DRender@@SAXPAVioEntityGrpMaterialModifier@@@Z PROC ; ioUI3DRender::ModifyEntityGroupMaterial, COMDAT

; 219  : {

  00000	55		 push	 ebp
  00001	8b ec		 mov	 ebp, esp
  00003	51		 push	 ecx

; 220  : 	SceneMgrList::iterator iter = m_CreatedSceneMgrList.begin();

  00004	8b 0d 04 00 00
	00		 mov	 ecx, DWORD PTR ?m_CreatedSceneMgrList@ioUI3DRender@@1V?$set@PAVioSceneManager@@U?$less@PAVioSceneManager@@@std@@V?$allocator@PAVioSceneManager@@@3@@std@@A+4
  0000a	8b 01		 mov	 eax, DWORD PTR [ecx]
  0000c	89 45 fc	 mov	 DWORD PTR _iter$[ebp], eax

; 221  : 	while( iter!=m_CreatedSceneMgrList.end() )

  0000f	3b c1		 cmp	 eax, ecx
  00011	74 20		 je	 SHORT $LN1@ModifyEnti
$LL2@ModifyEnti:

; 222  : 	{
; 223  : 		(*iter)->ModifyEntityGroupMaterial( pMod );

  00013	8b 40 0c	 mov	 eax, DWORD PTR [eax+12]
  00016	ff 75 08	 push	 DWORD PTR _pMod$[ebp]
  00019	8b 10		 mov	 edx, DWORD PTR [eax]
  0001b	8b c8		 mov	 ecx, eax
  0001d	ff 52 58	 call	 DWORD PTR [edx+88]

; 224  : 		++iter;

  00020	8d 4d fc	 lea	 ecx, DWORD PTR _iter$[ebp]
  00023	e8 00 00 00 00	 call	 ??E?$_Tree_unchecked_const_iterator@V?$_Tree_val@V?$_Tset_traits@PAVioSceneManager@@U?$less@PAVioSceneManager@@@std@@V?$allocator@PAVioSceneManager@@@3@$0A@@std@@@std@@U_Iterator_base0@2@@std@@QAEAAV01@XZ ; std::_Tree_unchecked_const_iterator<std::_Tree_val<std::_Tset_traits<ioSceneManager *,std::less<ioSceneManager *>,std::allocator<ioSceneManager *>,0> >,std::_Iterator_base0>::operator++
  00028	8b 45 fc	 mov	 eax, DWORD PTR _iter$[ebp]
  0002b	3b 05 04 00 00
	00		 cmp	 eax, DWORD PTR ?m_CreatedSceneMgrList@ioUI3DRender@@1V?$set@PAVioSceneManager@@U?$less@PAVioSceneManager@@@std@@V?$allocator@PAVioSceneManager@@@3@@std@@A+4
  00031	75 e0		 jne	 SHORT $LL2@ModifyEnti
$LN1@ModifyEnti:

; 225  : 	}
; 226  : }

  00033	c9		 leave
  00034	c3		 ret	 0
?ModifyEntityGroupMaterial@ioUI3DRender@@SAXPAVioEntityGrpMaterialModifier@@@Z ENDP ; ioUI3DRender::ModifyEntityGroupMaterial
_TEXT	ENDS
PUBLIC	?CreateChar@ioUI3DRender@@QAEPAVioCreateChar@@ABUCHARACTER@@ABVioHashString@@_N@Z ; ioUI3DRender::CreateChar
; Function compile flags: /Ogsp
;	COMDAT ?CreateChar@ioUI3DRender@@QAEPAVioCreateChar@@ABUCHARACTER@@ABVioHashString@@_N@Z
_TEXT	SEGMENT
_rkInfo$ = 8						; size = 4
_rkName$ = 12						; size = 4
_bThread$ = 16						; size = 1
?CreateChar@ioUI3DRender@@QAEPAVioCreateChar@@ABUCHARACTER@@ABVioHashString@@_N@Z PROC ; ioUI3DRender::CreateChar, COMDAT
; _this$ = ecx

; 648  : {

  00000	55		 push	 ebp
  00001	8b ec		 mov	 ebp, esp
  00003	53		 push	 ebx

; 649  : 	ioCreateChar *pNewChar = LoadChar( rkInfo, rkName, bThread );

  00004	8b 5d 08	 mov	 ebx, DWORD PTR _rkInfo$[ebp]
  00007	56		 push	 esi
  00008	57		 push	 edi
  00009	ff 75 10	 push	 DWORD PTR _bThread$[ebp]
  0000c	8b f9		 mov	 edi, ecx
  0000e	ff 75 0c	 push	 DWORD PTR _rkName$[ebp]
  00011	53		 push	 ebx
  00012	e8 00 00 00 00	 call	 ?LoadChar@ioUI3DRender@@IAEPAVioCreateChar@@ABUCHARACTER@@ABVioHashString@@_N@Z ; ioUI3DRender::LoadChar
  00017	8b f0		 mov	 esi, eax

; 650  : 	if( pNewChar )

  00019	85 f6		 test	 esi, esi
  0001b	74 3f		 je	 SHORT $LN1@CreateChar

; 651  : 	{
; 652  : 		ChangeBeard( pNewChar, rkInfo );

  0001d	53		 push	 ebx
  0001e	56		 push	 esi
  0001f	8b cf		 mov	 ecx, edi
  00021	e8 00 00 00 00	 call	 ?ChangeBeard@ioUI3DRender@@QAEXPAVioCreateChar@@ABUCHARACTER@@@Z ; ioUI3DRender::ChangeBeard

; 653  : 		ChangeFace( pNewChar, rkInfo );

  00026	53		 push	 ebx
  00027	56		 push	 esi
  00028	8b cf		 mov	 ecx, edi
  0002a	e8 00 00 00 00	 call	 ?ChangeFace@ioUI3DRender@@QAEXPAVioCreateChar@@ABUCHARACTER@@@Z ; ioUI3DRender::ChangeFace

; 654  : 		ChangeHair( pNewChar, rkInfo );

  0002f	53		 push	 ebx
  00030	56		 push	 esi
  00031	8b cf		 mov	 ecx, edi
  00033	e8 00 00 00 00	 call	 ?ChangeHair@ioUI3DRender@@QAEXPAVioCreateChar@@ABUCHARACTER@@@Z ; ioUI3DRender::ChangeHair

; 655  : 		ChangeAccessory( pNewChar, rkInfo );

  00038	53		 push	 ebx
  00039	56		 push	 esi
  0003a	8b cf		 mov	 ecx, edi
  0003c	e8 00 00 00 00	 call	 ?ChangeAccessory@ioUI3DRender@@QAEXPAVioCreateChar@@ABUCHARACTER@@@Z ; ioUI3DRender::ChangeAccessory

; 656  : 		ChangeUnderwear( pNewChar, rkInfo );

  00041	53		 push	 ebx
  00042	56		 push	 esi
  00043	8b cf		 mov	 ecx, edi
  00045	e8 00 00 00 00	 call	 ?ChangeUnderwear@ioUI3DRender@@QAEXPAVioCreateChar@@ABUCHARACTER@@@Z ; ioUI3DRender::ChangeUnderwear

; 657  : 
; 658  : 		ChangeHairColor( pNewChar, rkInfo );

  0004a	53		 push	 ebx
  0004b	56		 push	 esi
  0004c	8b cf		 mov	 ecx, edi
  0004e	e8 00 00 00 00	 call	 ?ChangeHairColor@ioUI3DRender@@QAEXPAVioCreateChar@@ABUCHARACTER@@@Z ; ioUI3DRender::ChangeHairColor

; 659  : 		ChangeSkinColor( pNewChar, rkInfo );

  00053	53		 push	 ebx
  00054	56		 push	 esi
  00055	8b cf		 mov	 ecx, edi
  00057	e8 00 00 00 00	 call	 ?ChangeSkinColor@ioUI3DRender@@QAEXPAVioCreateChar@@ABUCHARACTER@@@Z ; ioUI3DRender::ChangeSkinColor
$LN1@CreateChar:

; 660  : 	}
; 661  : 
; 662  : 	return pNewChar;

  0005c	5f		 pop	 edi
  0005d	8b c6		 mov	 eax, esi
  0005f	5e		 pop	 esi
  00060	5b		 pop	 ebx

; 663  : }

  00061	5d		 pop	 ebp
  00062	c2 0c 00	 ret	 12			; 0000000cH
?CreateChar@ioUI3DRender@@QAEPAVioCreateChar@@ABUCHARACTER@@ABVioHashString@@_N@Z ENDP ; ioUI3DRender::CreateChar
_TEXT	ENDS
PUBLIC	?ChangeModel@ioUI3DRender@@QAEXAAPAVioCreateChar@@ABUCHARACTER@@@Z ; ioUI3DRender::ChangeModel
EXTRN	?InheritToNewChar@ioCreateChar@@QAEXPAV1@@Z:PROC ; ioCreateChar::InheritToNewChar
; Function compile flags: /Ogsp
;	COMDAT ?ChangeModel@ioUI3DRender@@QAEXAAPAVioCreateChar@@ABUCHARACTER@@@Z
_TEXT	SEGMENT
_pOldChar$ = 8						; size = 4
_rkInfo$ = 12						; size = 4
?ChangeModel@ioUI3DRender@@QAEXAAPAVioCreateChar@@ABUCHARACTER@@@Z PROC ; ioUI3DRender::ChangeModel, COMDAT
; _this$ = ecx

; 666  : {

  00000	55		 push	 ebp
  00001	8b ec		 mov	 ebp, esp
  00003	53		 push	 ebx
  00004	57		 push	 edi

; 667  : 	if( !pOldChar )	return;

  00005	8b 7d 08	 mov	 edi, DWORD PTR _pOldChar$[ebp]
  00008	8b 07		 mov	 eax, DWORD PTR [edi]
  0000a	8b d9		 mov	 ebx, ecx
  0000c	85 c0		 test	 eax, eax
  0000e	74 7d		 je	 SHORT $LN4@ChangeMode

; 668  : 
; 669  : 	ioCreateChar *pNewChar = LoadChar( rkInfo, pOldChar->GetName(), true );

  00010	56		 push	 esi
  00011	6a 01		 push	 1
  00013	83 c0 0c	 add	 eax, 12			; 0000000cH
  00016	50		 push	 eax
  00017	ff 75 0c	 push	 DWORD PTR _rkInfo$[ebp]
  0001a	e8 00 00 00 00	 call	 ?LoadChar@ioUI3DRender@@IAEPAVioCreateChar@@ABUCHARACTER@@ABVioHashString@@_N@Z ; ioUI3DRender::LoadChar
  0001f	8b f0		 mov	 esi, eax

; 670  : 	if( pNewChar )

  00021	85 f6		 test	 esi, esi
  00023	74 55		 je	 SHORT $LN2@ChangeMode

; 671  : 	{
; 672  : 		ChangeBeard( pNewChar, rkInfo );

  00025	ff 75 0c	 push	 DWORD PTR _rkInfo$[ebp]
  00028	8b cb		 mov	 ecx, ebx
  0002a	56		 push	 esi
  0002b	e8 00 00 00 00	 call	 ?ChangeBeard@ioUI3DRender@@QAEXPAVioCreateChar@@ABUCHARACTER@@@Z ; ioUI3DRender::ChangeBeard

; 673  : 		ChangeFace( pNewChar, rkInfo );

  00030	ff 75 0c	 push	 DWORD PTR _rkInfo$[ebp]
  00033	8b cb		 mov	 ecx, ebx
  00035	56		 push	 esi
  00036	e8 00 00 00 00	 call	 ?ChangeFace@ioUI3DRender@@QAEXPAVioCreateChar@@ABUCHARACTER@@@Z ; ioUI3DRender::ChangeFace

; 674  : 		ChangeHair( pNewChar, rkInfo );

  0003b	ff 75 0c	 push	 DWORD PTR _rkInfo$[ebp]
  0003e	8b cb		 mov	 ecx, ebx
  00040	56		 push	 esi
  00041	e8 00 00 00 00	 call	 ?ChangeHair@ioUI3DRender@@QAEXPAVioCreateChar@@ABUCHARACTER@@@Z ; ioUI3DRender::ChangeHair

; 675  : 		ChangeAccessory( pNewChar, rkInfo );

  00046	ff 75 0c	 push	 DWORD PTR _rkInfo$[ebp]
  00049	8b cb		 mov	 ecx, ebx
  0004b	56		 push	 esi
  0004c	e8 00 00 00 00	 call	 ?ChangeAccessory@ioUI3DRender@@QAEXPAVioCreateChar@@ABUCHARACTER@@@Z ; ioUI3DRender::ChangeAccessory

; 676  : 		ChangeUnderwear( pNewChar, rkInfo );

  00051	ff 75 0c	 push	 DWORD PTR _rkInfo$[ebp]
  00054	8b cb		 mov	 ecx, ebx
  00056	56		 push	 esi
  00057	e8 00 00 00 00	 call	 ?ChangeUnderwear@ioUI3DRender@@QAEXPAVioCreateChar@@ABUCHARACTER@@@Z ; ioUI3DRender::ChangeUnderwear

; 677  : 
; 678  : 		ChangeHairColor( pNewChar, rkInfo );

  0005c	ff 75 0c	 push	 DWORD PTR _rkInfo$[ebp]
  0005f	8b cb		 mov	 ecx, ebx
  00061	56		 push	 esi
  00062	e8 00 00 00 00	 call	 ?ChangeHairColor@ioUI3DRender@@QAEXPAVioCreateChar@@ABUCHARACTER@@@Z ; ioUI3DRender::ChangeHairColor

; 679  : 		ChangeSkinColor( pNewChar, rkInfo );

  00067	ff 75 0c	 push	 DWORD PTR _rkInfo$[ebp]
  0006a	8b cb		 mov	 ecx, ebx
  0006c	56		 push	 esi
  0006d	e8 00 00 00 00	 call	 ?ChangeSkinColor@ioUI3DRender@@QAEXPAVioCreateChar@@ABUCHARACTER@@@Z ; ioUI3DRender::ChangeSkinColor

; 680  : 
; 681  : 		pOldChar->InheritToNewChar( pNewChar );

  00072	8b 0f		 mov	 ecx, DWORD PTR [edi]
  00074	56		 push	 esi
  00075	e8 00 00 00 00	 call	 ?InheritToNewChar@ioCreateChar@@QAEXPAV1@@Z ; ioCreateChar::InheritToNewChar
$LN2@ChangeMode:

; 682  : 	}
; 683  : 
; 684  : 	SAFEDELETE( pOldChar );

  0007a	8b 0f		 mov	 ecx, DWORD PTR [edi]
  0007c	85 c9		 test	 ecx, ecx
  0007e	74 0a		 je	 SHORT $LN1@ChangeMode
  00080	8b 01		 mov	 eax, DWORD PTR [ecx]
  00082	6a 01		 push	 1
  00084	ff 50 04	 call	 DWORD PTR [eax+4]
  00087	83 27 00	 and	 DWORD PTR [edi], 0
$LN1@ChangeMode:

; 685  : 	pOldChar = pNewChar;

  0008a	89 37		 mov	 DWORD PTR [edi], esi
  0008c	5e		 pop	 esi
$LN4@ChangeMode:
  0008d	5f		 pop	 edi
  0008e	5b		 pop	 ebx

; 686  : }

  0008f	5d		 pop	 ebp
  00090	c2 08 00	 ret	 8
?ChangeModel@ioUI3DRender@@QAEXAAPAVioCreateChar@@ABUCHARACTER@@@Z ENDP ; ioUI3DRender::ChangeModel
_TEXT	ENDS
PUBLIC	?ChangeDeco@ioUI3DRender@@QAEXPAVioCreateChar@@ABUCHARACTER@@@Z ; ioUI3DRender::ChangeDeco
; Function compile flags: /Ogsp
;	COMDAT ?ChangeDeco@ioUI3DRender@@QAEXPAVioCreateChar@@ABUCHARACTER@@@Z
_TEXT	SEGMENT
_pChar$ = 8						; size = 4
_rkInfo$ = 12						; size = 4
?ChangeDeco@ioUI3DRender@@QAEXPAVioCreateChar@@ABUCHARACTER@@@Z PROC ; ioUI3DRender::ChangeDeco, COMDAT
; _this$ = ecx

; 689  : {

  00000	55		 push	 ebp
  00001	8b ec		 mov	 ebp, esp
  00003	56		 push	 esi
  00004	57		 push	 edi

; 690  : 	if( !pChar ) return;

  00005	8b 7d 08	 mov	 edi, DWORD PTR _pChar$[ebp]
  00008	8b f1		 mov	 esi, ecx
  0000a	85 ff		 test	 edi, edi
  0000c	74 42		 je	 SHORT $LN2@ChangeDeco

; 691  : 
; 692  : 	ChangeBeard( pChar, rkInfo );

  0000e	53		 push	 ebx
  0000f	8b 5d 0c	 mov	 ebx, DWORD PTR _rkInfo$[ebp]
  00012	53		 push	 ebx
  00013	57		 push	 edi
  00014	e8 00 00 00 00	 call	 ?ChangeBeard@ioUI3DRender@@QAEXPAVioCreateChar@@ABUCHARACTER@@@Z ; ioUI3DRender::ChangeBeard

; 693  : 	ChangeFace( pChar, rkInfo );

  00019	53		 push	 ebx
  0001a	57		 push	 edi
  0001b	8b ce		 mov	 ecx, esi
  0001d	e8 00 00 00 00	 call	 ?ChangeFace@ioUI3DRender@@QAEXPAVioCreateChar@@ABUCHARACTER@@@Z ; ioUI3DRender::ChangeFace

; 694  : 	ChangeHair( pChar, rkInfo );

  00022	53		 push	 ebx
  00023	57		 push	 edi
  00024	8b ce		 mov	 ecx, esi
  00026	e8 00 00 00 00	 call	 ?ChangeHair@ioUI3DRender@@QAEXPAVioCreateChar@@ABUCHARACTER@@@Z ; ioUI3DRender::ChangeHair

; 695  : 	ChangeAccessory( pChar, rkInfo );

  0002b	53		 push	 ebx
  0002c	57		 push	 edi
  0002d	8b ce		 mov	 ecx, esi
  0002f	e8 00 00 00 00	 call	 ?ChangeAccessory@ioUI3DRender@@QAEXPAVioCreateChar@@ABUCHARACTER@@@Z ; ioUI3DRender::ChangeAccessory

; 696  : 	ChangeUnderwear( pChar, rkInfo );

  00034	53		 push	 ebx
  00035	57		 push	 edi
  00036	8b ce		 mov	 ecx, esi
  00038	e8 00 00 00 00	 call	 ?ChangeUnderwear@ioUI3DRender@@QAEXPAVioCreateChar@@ABUCHARACTER@@@Z ; ioUI3DRender::ChangeUnderwear

; 697  : 	ChangeHairColor( pChar, rkInfo );

  0003d	53		 push	 ebx
  0003e	57		 push	 edi
  0003f	8b ce		 mov	 ecx, esi
  00041	e8 00 00 00 00	 call	 ?ChangeHairColor@ioUI3DRender@@QAEXPAVioCreateChar@@ABUCHARACTER@@@Z ; ioUI3DRender::ChangeHairColor

; 698  : 	ChangeSkinColor( pChar, rkInfo );

  00046	53		 push	 ebx
  00047	57		 push	 edi
  00048	8b ce		 mov	 ecx, esi
  0004a	e8 00 00 00 00	 call	 ?ChangeSkinColor@ioUI3DRender@@QAEXPAVioCreateChar@@ABUCHARACTER@@@Z ; ioUI3DRender::ChangeSkinColor
  0004f	5b		 pop	 ebx
$LN2@ChangeDeco:
  00050	5f		 pop	 edi
  00051	5e		 pop	 esi

; 699  : }

  00052	5d		 pop	 ebp
  00053	c2 08 00	 ret	 8
?ChangeDeco@ioUI3DRender@@QAEXPAVioCreateChar@@ABUCHARACTER@@@Z ENDP ; ioUI3DRender::ChangeDeco
_TEXT	ENDS
PUBLIC	??0?$list@PAVioEffect@@V?$allocator@PAVioEffect@@@std@@@std@@QAE@XZ ; std::list<ioEffect *,std::allocator<ioEffect *> >::list<ioEffect *,std::allocator<ioEffect *> >
; Function compile flags: /Ogsp
; File c:\program files (x86)\microsoft visual studio 10.0\vc\include\list
;	COMDAT ??0?$list@PAVioEffect@@V?$allocator@PAVioEffect@@@std@@@std@@QAE@XZ
_TEXT	SEGMENT
$T514028 = -4						; size = 4
$T514023 = -4						; size = 4
??0?$list@PAVioEffect@@V?$allocator@PAVioEffect@@@std@@@std@@QAE@XZ PROC ; std::list<ioEffect *,std::allocator<ioEffect *> >::list<ioEffect *,std::allocator<ioEffect *> >, COMDAT
; _this$ = ecx

; 607  : 		{	// construct empty list

  00000	55		 push	 ebp
  00001	8b ec		 mov	 ebp, esp
  00003	51		 push	 ecx
  00004	56		 push	 esi
  00005	51		 push	 ecx
  00006	89 65 fc	 mov	 DWORD PTR $T514023[ebp], esp
  00009	8b f1		 mov	 esi, ecx
  0000b	89 65 fc	 mov	 DWORD PTR $T514028[ebp], esp
  0000e	e8 00 00 00 00	 call	 ??0?$_List_val@PAVioEffect@@V?$allocator@PAVioEffect@@@std@@@std@@QAE@V?$allocator@PAVioEffect@@@1@@Z ; std::_List_val<ioEffect *,std::allocator<ioEffect *> >::_List_val<ioEffect *,std::allocator<ioEffect *> >

; 608  : 		}

  00013	8b c6		 mov	 eax, esi
  00015	5e		 pop	 esi
  00016	c9		 leave
  00017	c3		 ret	 0
??0?$list@PAVioEffect@@V?$allocator@PAVioEffect@@@std@@@std@@QAE@XZ ENDP ; std::list<ioEffect *,std::allocator<ioEffect *> >::list<ioEffect *,std::allocator<ioEffect *> >
_TEXT	ENDS
PUBLIC	?begin@?$list@PAVioEffect@@V?$allocator@PAVioEffect@@@std@@@std@@QAE?AV?$_List_iterator@V?$_List_val@PAVioEffect@@V?$allocator@PAVioEffect@@@std@@@std@@@2@XZ ; std::list<ioEffect *,std::allocator<ioEffect *> >::begin
; Function compile flags: /Ogsp
;	COMDAT ?begin@?$list@PAVioEffect@@V?$allocator@PAVioEffect@@@std@@@std@@QAE?AV?$_List_iterator@V?$_List_val@PAVioEffect@@V?$allocator@PAVioEffect@@@std@@@std@@@2@XZ
_TEXT	SEGMENT
___$ReturnUdt$ = 8					; size = 4
?begin@?$list@PAVioEffect@@V?$allocator@PAVioEffect@@@std@@@std@@QAE?AV?$_List_iterator@V?$_List_val@PAVioEffect@@V?$allocator@PAVioEffect@@@std@@@std@@@2@XZ PROC ; std::list<ioEffect *,std::allocator<ioEffect *> >::begin, COMDAT
; _this$ = ecx

; 781  : 		{	// return iterator for beginning of mutable sequence

  00000	55		 push	 ebp
  00001	8b ec		 mov	 ebp, esp

; 782  : 		return (iterator(this->_Nextnode(this->_Myhead), this));

  00003	8b 01		 mov	 eax, DWORD PTR [ecx]
  00005	8b 08		 mov	 ecx, DWORD PTR [eax]
  00007	8b 45 08	 mov	 eax, DWORD PTR ___$ReturnUdt$[ebp]
  0000a	89 08		 mov	 DWORD PTR [eax], ecx

; 783  : 		}

  0000c	5d		 pop	 ebp
  0000d	c2 04 00	 ret	 4
?begin@?$list@PAVioEffect@@V?$allocator@PAVioEffect@@@std@@@std@@QAE?AV?$_List_iterator@V?$_List_val@PAVioEffect@@V?$allocator@PAVioEffect@@@std@@@std@@@2@XZ ENDP ; std::list<ioEffect *,std::allocator<ioEffect *> >::begin
_TEXT	ENDS
PUBLIC	?end@?$list@PAVioEffect@@V?$allocator@PAVioEffect@@@std@@@std@@QAE?AV?$_List_iterator@V?$_List_val@PAVioEffect@@V?$allocator@PAVioEffect@@@std@@@std@@@2@XZ ; std::list<ioEffect *,std::allocator<ioEffect *> >::end
; Function compile flags: /Ogsp
;	COMDAT ?end@?$list@PAVioEffect@@V?$allocator@PAVioEffect@@@std@@@std@@QAE?AV?$_List_iterator@V?$_List_val@PAVioEffect@@V?$allocator@PAVioEffect@@@std@@@std@@@2@XZ
_TEXT	SEGMENT
___$ReturnUdt$ = 8					; size = 4
?end@?$list@PAVioEffect@@V?$allocator@PAVioEffect@@@std@@@std@@QAE?AV?$_List_iterator@V?$_List_val@PAVioEffect@@V?$allocator@PAVioEffect@@@std@@@std@@@2@XZ PROC ; std::list<ioEffect *,std::allocator<ioEffect *> >::end, COMDAT
; _this$ = ecx

; 791  : 		{	// return iterator for end of mutable sequence

  00000	55		 push	 ebp
  00001	8b ec		 mov	 ebp, esp

; 792  : 		return (iterator(this->_Myhead, this));

  00003	8b 09		 mov	 ecx, DWORD PTR [ecx]
  00005	8b 45 08	 mov	 eax, DWORD PTR ___$ReturnUdt$[ebp]
  00008	89 08		 mov	 DWORD PTR [eax], ecx

; 793  : 		}

  0000a	5d		 pop	 ebp
  0000b	c2 04 00	 ret	 4
?end@?$list@PAVioEffect@@V?$allocator@PAVioEffect@@@std@@@std@@QAE?AV?$_List_iterator@V?$_List_val@PAVioEffect@@V?$allocator@PAVioEffect@@@std@@@std@@@2@XZ ENDP ; std::list<ioEffect *,std::allocator<ioEffect *> >::end
_TEXT	ENDS
PUBLIC	?clear@?$list@PAVioEffect@@V?$allocator@PAVioEffect@@@std@@@std@@QAEXXZ ; std::list<ioEffect *,std::allocator<ioEffect *> >::clear
; Function compile flags: /Ogsp
;	COMDAT ?clear@?$list@PAVioEffect@@V?$allocator@PAVioEffect@@@std@@@std@@QAEXXZ
_TEXT	SEGMENT
?clear@?$list@PAVioEffect@@V?$allocator@PAVioEffect@@@std@@@std@@QAEXXZ PROC ; std::list<ioEffect *,std::allocator<ioEffect *> >::clear, COMDAT
; _this$ = ecx

; 1096 : 		{	// erase all

  00000	56		 push	 esi
  00001	8b f1		 mov	 esi, ecx

; 1097 :  #if _ITERATOR_DEBUG_LEVEL == 2
; 1098 : 		this->_Orphan_ptr(*this, 0);
; 1099 :  #endif /* _ITERATOR_DEBUG_LEVEL == 2 */
; 1100 : 
; 1101 : 		_Nodeptr _Pnext;
; 1102 : 		_Nodeptr _Pnode = this->_Nextnode(this->_Myhead);

  00003	8b 06		 mov	 eax, DWORD PTR [esi]
  00005	8b 08		 mov	 ecx, DWORD PTR [eax]

; 1103 : 		this->_Nextnode(this->_Myhead) = this->_Myhead;

  00007	89 00		 mov	 DWORD PTR [eax], eax

; 1104 : 		this->_Prevnode(this->_Myhead) = this->_Myhead;

  00009	8b 06		 mov	 eax, DWORD PTR [esi]
  0000b	89 40 04	 mov	 DWORD PTR [eax+4], eax

; 1105 : 		this->_Mysize = 0;

  0000e	83 66 04 00	 and	 DWORD PTR [esi+4], 0

; 1106 : 
; 1107 : 		for (; _Pnode != this->_Myhead; _Pnode = _Pnext)

  00012	3b 0e		 cmp	 ecx, DWORD PTR [esi]
  00014	74 11		 je	 SHORT $LN1@clear
  00016	57		 push	 edi
$LL3@clear:

; 1108 : 			{	// delete an element
; 1109 : 			_Pnext = this->_Nextnode(_Pnode);

  00017	8b 39		 mov	 edi, DWORD PTR [ecx]

; 1110 : 
; 1111 : 			_Dest_val(this->_Alnod, _Pnode);
; 1112 : 			this->_Alnod.deallocate(_Pnode, 1);

  00019	51		 push	 ecx
  0001a	e8 00 00 00 00	 call	 ??3@YAXPAX@Z		; operator delete
  0001f	59		 pop	 ecx
  00020	8b cf		 mov	 ecx, edi
  00022	3b 3e		 cmp	 edi, DWORD PTR [esi]
  00024	75 f1		 jne	 SHORT $LL3@clear
  00026	5f		 pop	 edi
$LN1@clear:
  00027	5e		 pop	 esi

; 1113 : 			}
; 1114 : 		}

  00028	c3		 ret	 0
?clear@?$list@PAVioEffect@@V?$allocator@PAVioEffect@@@std@@@std@@QAEXXZ ENDP ; std::list<ioEffect *,std::allocator<ioEffect *> >::clear
_TEXT	ENDS
PUBLIC	?_Make_iter@?$list@PAVioEffect@@V?$allocator@PAVioEffect@@@std@@@std@@QBE?AV?$_List_iterator@V?$_List_val@PAVioEffect@@V?$allocator@PAVioEffect@@@std@@@std@@@2@V?$_List_const_iterator@V?$_List_val@PAVioEffect@@V?$allocator@PAVioEffect@@@std@@@std@@@2@@Z ; std::list<ioEffect *,std::allocator<ioEffect *> >::_Make_iter
; Function compile flags: /Ogsp
;	COMDAT ?_Make_iter@?$list@PAVioEffect@@V?$allocator@PAVioEffect@@@std@@@std@@QBE?AV?$_List_iterator@V?$_List_val@PAVioEffect@@V?$allocator@PAVioEffect@@@std@@@std@@@2@V?$_List_const_iterator@V?$_List_val@PAVioEffect@@V?$allocator@PAVioEffect@@@std@@@std@@@2@@Z
_TEXT	SEGMENT
___$ReturnUdt$ = 8					; size = 4
__Where$ = 12						; size = 4
?_Make_iter@?$list@PAVioEffect@@V?$allocator@PAVioEffect@@@std@@@std@@QBE?AV?$_List_iterator@V?$_List_val@PAVioEffect@@V?$allocator@PAVioEffect@@@std@@@std@@@2@V?$_List_const_iterator@V?$_List_val@PAVioEffect@@V?$allocator@PAVioEffect@@@std@@@std@@@2@@Z PROC ; std::list<ioEffect *,std::allocator<ioEffect *> >::_Make_iter, COMDAT
; _this$ = ecx

; 801  : 		{	// make iterator from const_iterator

  00000	55		 push	 ebp
  00001	8b ec		 mov	 ebp, esp

; 802  : 		return (iterator(_Where._Ptr, this));

  00003	8b 45 08	 mov	 eax, DWORD PTR ___$ReturnUdt$[ebp]
  00006	8b 4d 0c	 mov	 ecx, DWORD PTR __Where$[ebp]
  00009	89 08		 mov	 DWORD PTR [eax], ecx

; 803  : 		}

  0000b	5d		 pop	 ebp
  0000c	c2 08 00	 ret	 8
?_Make_iter@?$list@PAVioEffect@@V?$allocator@PAVioEffect@@@std@@@std@@QBE?AV?$_List_iterator@V?$_List_val@PAVioEffect@@V?$allocator@PAVioEffect@@@std@@@std@@@2@V?$_List_const_iterator@V?$_List_val@PAVioEffect@@V?$allocator@PAVioEffect@@@std@@@std@@@2@@Z ENDP ; std::list<ioEffect *,std::allocator<ioEffect *> >::_Make_iter
_TEXT	ENDS
PUBLIC	?_Tidy@?$list@PAVioEffect@@V?$allocator@PAVioEffect@@@std@@@std@@QAEXXZ ; std::list<ioEffect *,std::allocator<ioEffect *> >::_Tidy
; Function compile flags: /Ogsp
;	COMDAT ?_Tidy@?$list@PAVioEffect@@V?$allocator@PAVioEffect@@@std@@@std@@QAEXXZ
_TEXT	SEGMENT
?_Tidy@?$list@PAVioEffect@@V?$allocator@PAVioEffect@@@std@@@std@@QAEXXZ PROC ; std::list<ioEffect *,std::allocator<ioEffect *> >::_Tidy, COMDAT
; _this$ = ecx

; 1497 : 		clear();

  00000	e9 00 00 00 00	 jmp	 ?clear@?$list@PAVioEffect@@V?$allocator@PAVioEffect@@@std@@@std@@QAEXXZ ; std::list<ioEffect *,std::allocator<ioEffect *> >::clear
?_Tidy@?$list@PAVioEffect@@V?$allocator@PAVioEffect@@@std@@@std@@QAEXXZ ENDP ; std::list<ioEffect *,std::allocator<ioEffect *> >::_Tidy
_TEXT	ENDS
PUBLIC	??0?$_Tree@V?$_Tset_traits@PAVioSceneManager@@U?$less@PAVioSceneManager@@@std@@V?$allocator@PAVioSceneManager@@@3@$0A@@std@@@std@@QAE@ABU?$less@PAVioSceneManager@@@1@ABV?$allocator@PAVioSceneManager@@@1@@Z ; std::_Tree<std::_Tset_traits<ioSceneManager *,std::less<ioSceneManager *>,std::allocator<ioSceneManager *>,0> >::_Tree<std::_Tset_traits<ioSceneManager *,std::less<ioSceneManager *>,std::allocator<ioSceneManager *>,0> >
; Function compile flags: /Ogsp
; File c:\program files (x86)\microsoft visual studio 10.0\vc\include\xtree
;	COMDAT ??0?$_Tree@V?$_Tset_traits@PAVioSceneManager@@U?$less@PAVioSceneManager@@@std@@V?$allocator@PAVioSceneManager@@@3@$0A@@std@@@std@@QAE@ABU?$less@PAVioSceneManager@@@1@ABV?$allocator@PAVioSceneManager@@@1@@Z
_TEXT	SEGMENT
$T514161 = -4						; size = 4
$T514156 = -4						; size = 4
__Parg$ = 8						; size = 4
__Al$ = 12						; size = 4
??0?$_Tree@V?$_Tset_traits@PAVioSceneManager@@U?$less@PAVioSceneManager@@@std@@V?$allocator@PAVioSceneManager@@@3@$0A@@std@@@std@@QAE@ABU?$less@PAVioSceneManager@@@1@ABV?$allocator@PAVioSceneManager@@@1@@Z PROC ; std::_Tree<std::_Tset_traits<ioSceneManager *,std::less<ioSceneManager *>,std::allocator<ioSceneManager *>,0> >::_Tree<std::_Tset_traits<ioSceneManager *,std::less<ioSceneManager *>,std::allocator<ioSceneManager *>,0> >, COMDAT
; _this$ = ecx

; 698  : 		{	// construct empty tree

  00000	55		 push	 ebp
  00001	8b ec		 mov	 ebp, esp
  00003	51		 push	 ecx
  00004	56		 push	 esi
  00005	51		 push	 ecx
  00006	89 65 fc	 mov	 DWORD PTR $T514156[ebp], esp
  00009	89 65 fc	 mov	 DWORD PTR $T514161[ebp], esp
  0000c	ff 75 08	 push	 DWORD PTR __Parg$[ebp]
  0000f	8b f1		 mov	 esi, ecx
  00011	e8 00 00 00 00	 call	 ??0?$_Tree_val@V?$_Tset_traits@PAVioSceneManager@@U?$less@PAVioSceneManager@@@std@@V?$allocator@PAVioSceneManager@@@3@$0A@@std@@@std@@QAE@ABU?$less@PAVioSceneManager@@@1@V?$allocator@PAVioSceneManager@@@1@@Z ; std::_Tree_val<std::_Tset_traits<ioSceneManager *,std::less<ioSceneManager *>,std::allocator<ioSceneManager *>,0> >::_Tree_val<std::_Tset_traits<ioSceneManager *,std::less<ioSceneManager *>,std::allocator<ioSceneManager *>,0> >

; 699  : 		}

  00016	8b c6		 mov	 eax, esi
  00018	5e		 pop	 esi
  00019	c9		 leave
  0001a	c2 08 00	 ret	 8
??0?$_Tree@V?$_Tset_traits@PAVioSceneManager@@U?$less@PAVioSceneManager@@@std@@V?$allocator@PAVioSceneManager@@@3@$0A@@std@@@std@@QAE@ABU?$less@PAVioSceneManager@@@1@ABV?$allocator@PAVioSceneManager@@@1@@Z ENDP ; std::_Tree<std::_Tset_traits<ioSceneManager *,std::less<ioSceneManager *>,std::allocator<ioSceneManager *>,0> >::_Tree<std::_Tset_traits<ioSceneManager *,std::less<ioSceneManager *>,std::allocator<ioSceneManager *>,0> >
_TEXT	ENDS
PUBLIC	?equal_range@?$_Tree@V?$_Tset_traits@PAVioSceneManager@@U?$less@PAVioSceneManager@@@std@@V?$allocator@PAVioSceneManager@@@3@$0A@@std@@@std@@QAE?AU?$pair@V?$_Tree_const_iterator@V?$_Tree_val@V?$_Tset_traits@PAVioSceneManager@@U?$less@PAVioSceneManager@@@std@@V?$allocator@PAVioSceneManager@@@3@$0A@@std@@@std@@@std@@V12@@2@ABQAVioSceneManager@@@Z ; std::_Tree<std::_Tset_traits<ioSceneManager *,std::less<ioSceneManager *>,std::allocator<ioSceneManager *>,0> >::equal_range
; Function compile flags: /Ogsp
;	COMDAT ?equal_range@?$_Tree@V?$_Tset_traits@PAVioSceneManager@@U?$less@PAVioSceneManager@@@std@@V?$allocator@PAVioSceneManager@@@3@$0A@@std@@@std@@QAE?AU?$pair@V?$_Tree_const_iterator@V?$_Tree_val@V?$_Tset_traits@PAVioSceneManager@@U?$less@PAVioSceneManager@@@std@@V?$allocator@PAVioSceneManager@@@3@$0A@@std@@@std@@@std@@V12@@2@ABQAVioSceneManager@@@Z
_TEXT	SEGMENT
___$ReturnUdt$ = 8					; size = 4
__Keyval$ = 12						; size = 4
?equal_range@?$_Tree@V?$_Tset_traits@PAVioSceneManager@@U?$less@PAVioSceneManager@@@std@@V?$allocator@PAVioSceneManager@@@3@$0A@@std@@@std@@QAE?AU?$pair@V?$_Tree_const_iterator@V?$_Tree_val@V?$_Tset_traits@PAVioSceneManager@@U?$less@PAVioSceneManager@@@std@@V?$allocator@PAVioSceneManager@@@3@$0A@@std@@@std@@@std@@V12@@2@ABQAVioSceneManager@@@Z PROC ; std::_Tree<std::_Tset_traits<ioSceneManager *,std::less<ioSceneManager *>,std::allocator<ioSceneManager *>,0> >::equal_range, COMDAT
; _this$ = ecx

; 1469 : 		{	// find range equivalent to _Keyval in mutable tree

  00000	55		 push	 ebp
  00001	8b ec		 mov	 ebp, esp

; 1470 : 		return (_Eqrange(_Keyval));

  00003	ff 75 0c	 push	 DWORD PTR __Keyval$[ebp]
  00006	ff 75 08	 push	 DWORD PTR ___$ReturnUdt$[ebp]
  00009	e8 00 00 00 00	 call	 ?_Eqrange@?$_Tree@V?$_Tset_traits@PAVioSceneManager@@U?$less@PAVioSceneManager@@@std@@V?$allocator@PAVioSceneManager@@@3@$0A@@std@@@std@@IAE?AU?$pair@V?$_Tree_const_iterator@V?$_Tree_val@V?$_Tset_traits@PAVioSceneManager@@U?$less@PAVioSceneManager@@@std@@V?$allocator@PAVioSceneManager@@@3@$0A@@std@@@std@@@std@@V12@@2@ABQAVioSceneManager@@@Z ; std::_Tree<std::_Tset_traits<ioSceneManager *,std::less<ioSceneManager *>,std::allocator<ioSceneManager *>,0> >::_Eqrange
  0000e	8b 45 08	 mov	 eax, DWORD PTR ___$ReturnUdt$[ebp]

; 1471 : 		}

  00011	5d		 pop	 ebp
  00012	c2 08 00	 ret	 8
?equal_range@?$_Tree@V?$_Tset_traits@PAVioSceneManager@@U?$less@PAVioSceneManager@@@std@@V?$allocator@PAVioSceneManager@@@3@$0A@@std@@@std@@QAE?AU?$pair@V?$_Tree_const_iterator@V?$_Tree_val@V?$_Tset_traits@PAVioSceneManager@@U?$less@PAVioSceneManager@@@std@@V?$allocator@PAVioSceneManager@@@3@$0A@@std@@@std@@@std@@V12@@2@ABQAVioSceneManager@@@Z ENDP ; std::_Tree<std::_Tset_traits<ioSceneManager *,std::less<ioSceneManager *>,std::allocator<ioSceneManager *>,0> >::equal_range
_TEXT	ENDS
PUBLIC	?_Buynode@?$_List_val@PAVioEffect@@V?$allocator@PAVioEffect@@@std@@@std@@QAEPAU_Node@?$_List_nod@PAVioEffect@@V?$allocator@PAVioEffect@@@std@@@2@PAU342@0ABQAVioEffect@@@Z ; std::_List_val<ioEffect *,std::allocator<ioEffect *> >::_Buynode
; Function compile flags: /Ogsp
; File c:\program files (x86)\microsoft visual studio 10.0\vc\include\list
;	COMDAT ?_Buynode@?$_List_val@PAVioEffect@@V?$allocator@PAVioEffect@@@std@@@std@@QAEPAU_Node@?$_List_nod@PAVioEffect@@V?$allocator@PAVioEffect@@@std@@@2@PAU342@0ABQAVioEffect@@@Z
_TEXT	SEGMENT
$T514198 = -12						; size = 12
$T514176 = 8						; size = 4
__Next$ = 8						; size = 4
__Prev$ = 12						; size = 4
__Val$ = 16						; size = 4
?_Buynode@?$_List_val@PAVioEffect@@V?$allocator@PAVioEffect@@@std@@@std@@QAEPAU_Node@?$_List_nod@PAVioEffect@@V?$allocator@PAVioEffect@@@std@@@2@PAU342@0ABQAVioEffect@@@Z PROC ; std::_List_val<ioEffect *,std::allocator<ioEffect *> >::_Buynode, COMDAT
; _this$ = ecx

; 507  : 		{	// allocate a node and set links and value

  00000	55		 push	 ebp
  00001	8b ec		 mov	 ebp, esp
  00003	83 ec 0c	 sub	 esp, 12			; 0000000cH

; 508  : 		_Nodeptr _Pnode = this->_Alnod.allocate(1);

  00006	6a 0c		 push	 12			; 0000000cH
  00008	e8 00 00 00 00	 call	 ??2@YAPAXI@Z		; operator new
  0000d	59		 pop	 ecx
  0000e	85 c0		 test	 eax, eax
  00010	74 1d		 je	 SHORT $LN10@Buynode@3

; 509  : 
; 510  : 		_TRY_BEGIN
; 511  : 		this->_Nextnode(_Pnode) = _Next;

  00012	8b 4d 08	 mov	 ecx, DWORD PTR __Next$[ebp]
  00015	89 08		 mov	 DWORD PTR [eax], ecx

; 512  : 		this->_Prevnode(_Pnode) = _Prev;

  00017	8b 4d 0c	 mov	 ecx, DWORD PTR __Prev$[ebp]
  0001a	89 48 04	 mov	 DWORD PTR [eax+4], ecx

; 513  : 		_Cons_val(this->_Alval, _STD addressof(this->_Myval(_Pnode)), _Val);

  0001d	8d 48 08	 lea	 ecx, DWORD PTR [eax+8]
  00020	85 c9		 test	 ecx, ecx
  00022	74 07		 je	 SHORT $LN2@Buynode@3
  00024	8b 55 10	 mov	 edx, DWORD PTR __Val$[ebp]
  00027	8b 12		 mov	 edx, DWORD PTR [edx]
  00029	89 11		 mov	 DWORD PTR [ecx], edx
$LN2@Buynode@3:

; 514  : 		_CATCH_ALL
; 515  : 		this->_Alnod.deallocate(_Pnode, 1);
; 516  : 		_RERAISE;
; 517  : 		_CATCH_END
; 518  : 
; 519  : 		return (_Pnode);
; 520  : 		}

  0002b	c9		 leave
  0002c	c2 0c 00	 ret	 12			; 0000000cH

; 508  : 		_Nodeptr _Pnode = this->_Alnod.allocate(1);

$LN10@Buynode@3:
  0002f	83 65 08 00	 and	 DWORD PTR $T514176[ebp], 0
  00033	8d 45 08	 lea	 eax, DWORD PTR $T514176[ebp]
  00036	50		 push	 eax
  00037	8d 4d f4	 lea	 ecx, DWORD PTR $T514198[ebp]
  0003a	ff 15 00 00 00
	00		 call	 DWORD PTR __imp_??0exception@std@@QAE@ABQBD@Z
  00040	68 00 00 00 00	 push	 OFFSET __TI2?AVbad_alloc@std@@
  00045	8d 45 f4	 lea	 eax, DWORD PTR $T514198[ebp]
  00048	50		 push	 eax
  00049	c7 45 f4 00 00
	00 00		 mov	 DWORD PTR $T514198[ebp], OFFSET ??_7bad_alloc@std@@6B@
  00050	e8 00 00 00 00	 call	 __CxxThrowException@8
$LN46@Buynode@3:
$LN45@Buynode@3:
  00055	cc		 int	 3
?_Buynode@?$_List_val@PAVioEffect@@V?$allocator@PAVioEffect@@@std@@@std@@QAEPAU_Node@?$_List_nod@PAVioEffect@@V?$allocator@PAVioEffect@@@std@@@2@PAU342@0ABQAVioEffect@@@Z ENDP ; std::_List_val<ioEffect *,std::allocator<ioEffect *> >::_Buynode
_TEXT	ENDS
PUBLIC	??_C@_0BM@PAPJHAGI@invalid?5map?1set?$DMT?$DO?5iterator?$AA@ ; `string'
PUBLIC	?erase@?$_Tree@V?$_Tset_traits@PAVioSceneManager@@U?$less@PAVioSceneManager@@@std@@V?$allocator@PAVioSceneManager@@@3@$0A@@std@@@std@@QAE?AV?$_Tree_const_iterator@V?$_Tree_val@V?$_Tset_traits@PAVioSceneManager@@U?$less@PAVioSceneManager@@@std@@V?$allocator@PAVioSceneManager@@@3@$0A@@std@@@std@@@2@V32@@Z ; std::_Tree<std::_Tset_traits<ioSceneManager *,std::less<ioSceneManager *>,std::allocator<ioSceneManager *>,0> >::erase
EXTRN	__imp_?_Xout_of_range@std@@YAXPBD@Z:PROC
;	COMDAT ??_C@_0BM@PAPJHAGI@invalid?5map?1set?$DMT?$DO?5iterator?$AA@
; File c:\program files (x86)\microsoft visual studio 10.0\vc\include\xutility
CONST	SEGMENT
??_C@_0BM@PAPJHAGI@invalid?5map?1set?$DMT?$DO?5iterator?$AA@ DB 'invalid '
	DB	'map/set<T> iterator', 00H			; `string'
; Function compile flags: /Ogsp
; File c:\program files (x86)\microsoft visual studio 10.0\vc\include\xtree
CONST	ENDS
;	COMDAT ?erase@?$_Tree@V?$_Tset_traits@PAVioSceneManager@@U?$less@PAVioSceneManager@@@std@@V?$allocator@PAVioSceneManager@@@3@$0A@@std@@@std@@QAE?AV?$_Tree_const_iterator@V?$_Tree_val@V?$_Tset_traits@PAVioSceneManager@@U?$less@PAVioSceneManager@@@std@@V?$allocator@PAVioSceneManager@@@3@$0A@@std@@@std@@@2@V32@@Z
_TEXT	SEGMENT
_this$ = -4						; size = 4
___$ReturnUdt$ = 8					; size = 4
__Where$ = 12						; size = 4
?erase@?$_Tree@V?$_Tset_traits@PAVioSceneManager@@U?$less@PAVioSceneManager@@@std@@V?$allocator@PAVioSceneManager@@@3@$0A@@std@@@std@@QAE?AV?$_Tree_const_iterator@V?$_Tree_val@V?$_Tset_traits@PAVioSceneManager@@U?$less@PAVioSceneManager@@@std@@V?$allocator@PAVioSceneManager@@@3@$0A@@std@@@std@@@2@V32@@Z PROC ; std::_Tree<std::_Tset_traits<ioSceneManager *,std::less<ioSceneManager *>,std::allocator<ioSceneManager *>,0> >::erase, COMDAT
; _this$ = ecx

; 1195 : 		{	// erase element at _Where

  00000	55		 push	 ebp
  00001	8b ec		 mov	 ebp, esp
  00003	51		 push	 ecx
  00004	53		 push	 ebx

; 1196 :  #if _ITERATOR_DEBUG_LEVEL == 2
; 1197 : 		if (_Where._Getcont() != this || this->_Isnil(_Where._Mynode()))
; 1198 : 			_DEBUG_ERROR("map/set erase iterator outside range");
; 1199 : 		_Nodeptr _Erasednode = _Where._Mynode();	// node to erase
; 1200 : 		++_Where;	// save successor iterator for return
; 1201 : 		_Orphan_ptr(*this, _Erasednode);
; 1202 : 
; 1203 :  #else /* _ITERATOR_DEBUG_LEVEL == 2 */
; 1204 : 		if (this->_Isnil(_Where._Mynode()))

  00005	8b 5d 0c	 mov	 ebx, DWORD PTR __Where$[ebp]
  00008	80 7b 11 00	 cmp	 BYTE PTR [ebx+17], 0
  0000c	56		 push	 esi
  0000d	57		 push	 edi
  0000e	89 4d fc	 mov	 DWORD PTR _this$[ebp], ecx
  00011	74 0b		 je	 SHORT $LN40@erase

; 1205 : 			_Xout_of_range("invalid map/set<T> iterator");

  00013	68 00 00 00 00	 push	 OFFSET ??_C@_0BM@PAPJHAGI@invalid?5map?1set?$DMT?$DO?5iterator?$AA@
  00018	ff 15 00 00 00
	00		 call	 DWORD PTR __imp_?_Xout_of_range@std@@YAXPBD@Z
$LN327@erase:
$LN40@erase:

; 1206 : 		_Nodeptr _Erasednode = _Where._Mynode();	// node to erase
; 1207 : 		++_Where;	// save successor iterator for return

  0001e	8d 4d 0c	 lea	 ecx, DWORD PTR __Where$[ebp]
  00021	e8 00 00 00 00	 call	 ??E?$_Tree_unchecked_const_iterator@V?$_Tree_val@V?$_Tset_traits@PAVioSceneManager@@U?$less@PAVioSceneManager@@@std@@V?$allocator@PAVioSceneManager@@@3@$0A@@std@@@std@@U_Iterator_base0@2@@std@@QAEAAV01@XZ ; std::_Tree_unchecked_const_iterator<std::_Tree_val<std::_Tset_traits<ioSceneManager *,std::less<ioSceneManager *>,std::allocator<ioSceneManager *>,0> >,std::_Iterator_base0>::operator++

; 1208 :  #endif /* _ITERATOR_DEBUG_LEVEL == 2 */
; 1209 : 
; 1210 : 		_Nodeptr _Fixnode;	// the node to recolor as needed
; 1211 : 		_Nodeptr _Fixnodeparent;	// parent of _Fixnode (which may be nil)
; 1212 : 		_Nodeptr _Pnode = _Erasednode;
; 1213 : 
; 1214 : 		if (this->_Isnil(this->_Left(_Pnode)))

  00026	8b 13		 mov	 edx, DWORD PTR [ebx]
  00028	80 7a 11 00	 cmp	 BYTE PTR [edx+17], 0
  0002c	74 05		 je	 SHORT $LN39@erase

; 1215 : 			_Fixnode = this->_Right(_Pnode);	// stitch up right subtree

  0002e	8b 7b 08	 mov	 edi, DWORD PTR [ebx+8]

; 1216 : 		else if (this->_Isnil(this->_Right(_Pnode)))

  00031	eb 17		 jmp	 SHORT $LN319@erase
$LN39@erase:
  00033	8b 43 08	 mov	 eax, DWORD PTR [ebx+8]
  00036	80 78 11 00	 cmp	 BYTE PTR [eax+17], 0
  0003a	74 04		 je	 SHORT $LN37@erase

; 1217 : 			_Fixnode = this->_Left(_Pnode);	// stitch up left subtree

  0003c	8b fa		 mov	 edi, edx

; 1218 : 		else

  0003e	eb 0a		 jmp	 SHORT $LN319@erase
$LN37@erase:

; 1219 : 			{	// two subtrees, must lift successor node to replace erased
; 1220 : 			_Pnode = _Where._Mynode();	// _Pnode is successor node

  00040	8b 45 0c	 mov	 eax, DWORD PTR __Where$[ebp]

; 1221 : 			_Fixnode = this->_Right(_Pnode);	// _Fixnode is only subtree

  00043	8b 78 08	 mov	 edi, DWORD PTR [eax+8]

; 1222 : 			}
; 1223 : 
; 1224 : 		if (_Pnode == _Erasednode)

  00046	3b c3		 cmp	 eax, ebx
  00048	75 76		 jne	 SHORT $LN35@erase
$LN319@erase:

; 1225 : 			{	// at most one subtree, relink it
; 1226 : 			_Fixnodeparent = this->_Parent(_Erasednode);
; 1227 : 			if (!this->_Isnil(_Fixnode))

  0004a	80 7f 11 00	 cmp	 BYTE PTR [edi+17], 0
  0004e	8b 73 04	 mov	 esi, DWORD PTR [ebx+4]
  00051	75 03		 jne	 SHORT $LN34@erase

; 1228 : 				this->_Parent(_Fixnode) = _Fixnodeparent;	// link up

  00053	89 77 04	 mov	 DWORD PTR [edi+4], esi
$LN34@erase:

; 1229 : 
; 1230 : 			if (_Root() == _Erasednode)

  00056	8b 4d fc	 mov	 ecx, DWORD PTR _this$[ebp]
  00059	8b 41 04	 mov	 eax, DWORD PTR [ecx+4]
  0005c	39 58 04	 cmp	 DWORD PTR [eax+4], ebx
  0005f	75 05		 jne	 SHORT $LN33@erase

; 1231 : 				_Root() = _Fixnode;	// link down from root

  00061	89 78 04	 mov	 DWORD PTR [eax+4], edi

; 1232 : 			else if (this->_Left(_Fixnodeparent) == _Erasednode)

  00064	eb 0b		 jmp	 SHORT $LN30@erase
$LN33@erase:
  00066	39 1e		 cmp	 DWORD PTR [esi], ebx
  00068	75 04		 jne	 SHORT $LN31@erase

; 1233 : 				this->_Left(_Fixnodeparent) = _Fixnode;	// link down to left

  0006a	89 3e		 mov	 DWORD PTR [esi], edi

; 1234 : 			else

  0006c	eb 03		 jmp	 SHORT $LN30@erase
$LN31@erase:

; 1235 : 				this->_Right(_Fixnodeparent) =
; 1236 : 					_Fixnode;	// link down to right

  0006e	89 7e 08	 mov	 DWORD PTR [esi+8], edi
$LN30@erase:

; 1237 : 
; 1238 : 			if (_Lmost() == _Erasednode)

  00071	8b 49 04	 mov	 ecx, DWORD PTR [ecx+4]
  00074	39 19		 cmp	 DWORD PTR [ecx], ebx
  00076	75 1c		 jne	 SHORT $LN29@erase

; 1239 : 				_Lmost() = this->_Isnil(_Fixnode)
; 1240 : 					? _Fixnodeparent	// smallest is parent of erased node
; 1241 : 					: this->_Min(_Fixnode);	// smallest in relinked subtree

  00078	80 7f 11 00	 cmp	 BYTE PTR [edi+17], 0
  0007c	74 04		 je	 SHORT $LN43@erase
  0007e	8b d6		 mov	 edx, esi
  00080	eb 10		 jmp	 SHORT $LN97@erase
$LN43@erase:
  00082	8b 07		 mov	 eax, DWORD PTR [edi]
  00084	8b d7		 mov	 edx, edi
  00086	eb 04		 jmp	 SHORT $LN321@erase
$LL98@erase:
  00088	8b d0		 mov	 edx, eax
  0008a	8b 02		 mov	 eax, DWORD PTR [edx]
$LN321@erase:
  0008c	80 78 11 00	 cmp	 BYTE PTR [eax+17], 0
  00090	74 f6		 je	 SHORT $LL98@erase
$LN97@erase:
  00092	89 11		 mov	 DWORD PTR [ecx], edx
$LN29@erase:

; 1242 : 
; 1243 : 			if (_Rmost() == _Erasednode)

  00094	8b 45 fc	 mov	 eax, DWORD PTR _this$[ebp]
  00097	8b 48 04	 mov	 ecx, DWORD PTR [eax+4]
  0009a	39 59 08	 cmp	 DWORD PTR [ecx+8], ebx
  0009d	75 7b		 jne	 SHORT $LN185@erase

; 1244 : 				_Rmost() = this->_Isnil(_Fixnode)
; 1245 : 					? _Fixnodeparent	// largest is parent of erased node
; 1246 : 					: this->_Max(_Fixnode);	// largest in relinked subtree

  0009f	80 7f 11 00	 cmp	 BYTE PTR [edi+17], 0
  000a3	74 04		 je	 SHORT $LN45@erase
  000a5	8b d6		 mov	 edx, esi
  000a7	eb 12		 jmp	 SHORT $LN117@erase
$LN45@erase:
  000a9	8b 47 08	 mov	 eax, DWORD PTR [edi+8]
  000ac	8b d7		 mov	 edx, edi
  000ae	eb 05		 jmp	 SHORT $LN322@erase
$LL118@erase:
  000b0	8b d0		 mov	 edx, eax
  000b2	8b 42 08	 mov	 eax, DWORD PTR [edx+8]
$LN322@erase:
  000b5	80 78 11 00	 cmp	 BYTE PTR [eax+17], 0
  000b9	74 f5		 je	 SHORT $LL118@erase
$LN117@erase:
  000bb	89 51 08	 mov	 DWORD PTR [ecx+8], edx

; 1247 : 			}
; 1248 : 		else

  000be	eb 5a		 jmp	 SHORT $LN185@erase
$LN35@erase:

; 1249 : 			{	// erased has two subtrees, _Pnode is successor to erased
; 1250 : 			this->_Parent(this->_Left(_Erasednode)) =
; 1251 : 				_Pnode;	// link left up

  000c0	89 42 04	 mov	 DWORD PTR [edx+4], eax

; 1252 : 			this->_Left(_Pnode) =
; 1253 : 				this->_Left(_Erasednode);	// link successor down

  000c3	8b 13		 mov	 edx, DWORD PTR [ebx]
  000c5	89 10		 mov	 DWORD PTR [eax], edx

; 1254 : 
; 1255 : 			if (_Pnode == this->_Right(_Erasednode))

  000c7	3b 43 08	 cmp	 eax, DWORD PTR [ebx+8]
  000ca	75 04		 jne	 SHORT $LN26@erase

; 1256 : 				_Fixnodeparent = _Pnode;	// successor is next to erased

  000cc	8b f0		 mov	 esi, eax

; 1257 : 			else

  000ce	eb 1a		 jmp	 SHORT $LN25@erase
$LN26@erase:

; 1258 : 				{	// successor further down, link in place of erased
; 1259 : 				_Fixnodeparent =
; 1260 : 					this->_Parent(_Pnode);	// parent is successor's
; 1261 : 				if (!this->_Isnil(_Fixnode))

  000d0	80 7f 11 00	 cmp	 BYTE PTR [edi+17], 0
  000d4	8b 70 04	 mov	 esi, DWORD PTR [eax+4]
  000d7	75 03		 jne	 SHORT $LN24@erase

; 1262 : 					this->_Parent(_Fixnode) = _Fixnodeparent;	// link fix up

  000d9	89 77 04	 mov	 DWORD PTR [edi+4], esi
$LN24@erase:

; 1263 : 				this->_Left(_Fixnodeparent) = _Fixnode;	// link fix down

  000dc	89 3e		 mov	 DWORD PTR [esi], edi

; 1264 : 				this->_Right(_Pnode) =
; 1265 : 					this->_Right(_Erasednode);	// link next down

  000de	8b 53 08	 mov	 edx, DWORD PTR [ebx+8]
  000e1	89 50 08	 mov	 DWORD PTR [eax+8], edx

; 1266 : 				this->_Parent(this->_Right(_Erasednode)) =
; 1267 : 					_Pnode;	// right up

  000e4	8b 4b 08	 mov	 ecx, DWORD PTR [ebx+8]
  000e7	89 41 04	 mov	 DWORD PTR [ecx+4], eax
$LN25@erase:

; 1268 : 				}
; 1269 : 
; 1270 : 			if (_Root() == _Erasednode)

  000ea	8b 4d fc	 mov	 ecx, DWORD PTR _this$[ebp]
  000ed	8b 49 04	 mov	 ecx, DWORD PTR [ecx+4]
  000f0	39 59 04	 cmp	 DWORD PTR [ecx+4], ebx
  000f3	75 05		 jne	 SHORT $LN23@erase

; 1271 : 				_Root() = _Pnode;	// link down from root

  000f5	89 41 04	 mov	 DWORD PTR [ecx+4], eax

; 1272 : 			else if (this->_Left(this->_Parent(_Erasednode)) == _Erasednode)

  000f8	eb 0e		 jmp	 SHORT $LN20@erase
$LN23@erase:
  000fa	8b 4b 04	 mov	 ecx, DWORD PTR [ebx+4]
  000fd	39 19		 cmp	 DWORD PTR [ecx], ebx
  000ff	75 04		 jne	 SHORT $LN21@erase

; 1273 : 				this->_Left(this->_Parent(_Erasednode)) =
; 1274 : 					_Pnode;	// link down to left

  00101	89 01		 mov	 DWORD PTR [ecx], eax

; 1275 : 			else

  00103	eb 03		 jmp	 SHORT $LN20@erase
$LN21@erase:

; 1276 : 				this->_Right(this->_Parent(_Erasednode)) =
; 1277 : 					_Pnode;	// link down to right

  00105	89 41 08	 mov	 DWORD PTR [ecx+8], eax
$LN20@erase:

; 1278 : 
; 1279 : 			this->_Parent(_Pnode) =
; 1280 : 				this->_Parent(_Erasednode);	// link successor up

  00108	8b 4b 04	 mov	 ecx, DWORD PTR [ebx+4]
  0010b	89 48 04	 mov	 DWORD PTR [eax+4], ecx

; 1281 : 			_STD swap(this->_Color(_Pnode),
; 1282 : 				this->_Color(_Erasednode));	// recolor it

  0010e	8a 53 10	 mov	 dl, BYTE PTR [ebx+16]
  00111	8a 48 10	 mov	 cl, BYTE PTR [eax+16]
  00114	88 50 10	 mov	 BYTE PTR [eax+16], dl
  00117	88 4b 10	 mov	 BYTE PTR [ebx+16], cl
$LN185@erase:

; 1283 : 			}
; 1284 : 
; 1285 : 		if (this->_Color(_Erasednode) == this->_Black)

  0011a	80 7b 10 01	 cmp	 BYTE PTR [ebx+16], 1
  0011e	0f 85 03 01 00
	00		 jne	 $LN19@erase

; 1286 : 			{	// erasing black link, must recolor/rebalance tree
; 1287 : 			for (; _Fixnode != _Root()
; 1288 : 				&& this->_Color(_Fixnode) == this->_Black;
; 1289 : 				_Fixnodeparent = this->_Parent(_Fixnode))

  00124	e9 b2 00 00 00	 jmp	 $LN324@erase
$LL18@erase:
  00129	80 7f 10 01	 cmp	 BYTE PTR [edi+16], 1
  0012d	0f 85 f0 00 00
	00		 jne	 $LN16@erase

; 1290 : 				if (_Fixnode == this->_Left(_Fixnodeparent))

  00133	8b 06		 mov	 eax, DWORD PTR [esi]
  00135	3b f8		 cmp	 edi, eax
  00137	75 6c		 jne	 SHORT $LN15@erase

; 1291 : 					{	// fixup left subtree
; 1292 : 					_Pnode = this->_Right(_Fixnodeparent);

  00139	8b 46 08	 mov	 eax, DWORD PTR [esi+8]

; 1293 : 					if (this->_Color(_Pnode) == this->_Red)

  0013c	80 78 10 00	 cmp	 BYTE PTR [eax+16], 0
  00140	75 11		 jne	 SHORT $LN14@erase

; 1294 : 						{	// rotate red up from right subtree
; 1295 : 						this->_Color(_Pnode) = this->_Black;

  00142	c6 40 10 01	 mov	 BYTE PTR [eax+16], 1

; 1296 : 						this->_Color(_Fixnodeparent) = this->_Red;
; 1297 : 						_Lrotate(_Fixnodeparent);

  00146	56		 push	 esi
  00147	c6 46 10 00	 mov	 BYTE PTR [esi+16], 0
  0014b	e8 00 00 00 00	 call	 ?_Lrotate@?$_Tree@V?$_Tset_traits@PAVioSceneManager@@U?$less@PAVioSceneManager@@@std@@V?$allocator@PAVioSceneManager@@@3@$0A@@std@@@std@@IAEXPAU_Node@?$_Tree_nod@V?$_Tset_traits@PAVioSceneManager@@U?$less@PAVioSceneManager@@@std@@V?$allocator@PAVioSceneManager@@@3@$0A@@std@@@2@@Z ; std::_Tree<std::_Tset_traits<ioSceneManager *,std::less<ioSceneManager *>,std::allocator<ioSceneManager *>,0> >::_Lrotate

; 1298 : 						_Pnode = this->_Right(_Fixnodeparent);

  00150	8b 46 08	 mov	 eax, DWORD PTR [esi+8]
$LN14@erase:

; 1299 : 						}
; 1300 : 
; 1301 : 					if (this->_Isnil(_Pnode))

  00153	80 78 11 00	 cmp	 BYTE PTR [eax+17], 0

; 1302 : 						_Fixnode = _Fixnodeparent;	// shouldn't happen
; 1303 : 					else if (this->_Color(this->_Left(_Pnode)) == this->_Black

  00157	75 7d		 jne	 SHORT $LN325@erase

; 1304 : 						&& this->_Color(this->_Right(_Pnode)) == this->_Black)

  00159	8b 08		 mov	 ecx, DWORD PTR [eax]
  0015b	80 79 10 01	 cmp	 BYTE PTR [ecx+16], 1
  0015f	75 09		 jne	 SHORT $LN11@erase
  00161	8b 48 08	 mov	 ecx, DWORD PTR [eax+8]
  00164	80 79 10 01	 cmp	 BYTE PTR [ecx+16], 1
  00168	74 68		 je	 SHORT $LN326@erase
$LN11@erase:

; 1305 : 						{	// redden right subtree with black children
; 1306 : 						this->_Color(_Pnode) = this->_Red;
; 1307 : 						_Fixnode = _Fixnodeparent;
; 1308 : 						}
; 1309 : 					else
; 1310 : 						{	// must rearrange right subtree
; 1311 : 						if (this->_Color(this->_Right(_Pnode))
; 1312 : 							== this->_Black)

  0016a	8b 48 08	 mov	 ecx, DWORD PTR [eax+8]
  0016d	80 79 10 01	 cmp	 BYTE PTR [ecx+16], 1
  00171	75 16		 jne	 SHORT $LN9@erase

; 1313 : 							{	// rotate red up from left sub-subtree
; 1314 : 							this->_Color(this->_Left(_Pnode)) = this->_Black;

  00173	8b 08		 mov	 ecx, DWORD PTR [eax]
  00175	c6 41 10 01	 mov	 BYTE PTR [ecx+16], 1

; 1315 : 							this->_Color(_Pnode) = this->_Red;
; 1316 : 							_Rrotate(_Pnode);

  00179	8b 4d fc	 mov	 ecx, DWORD PTR _this$[ebp]
  0017c	50		 push	 eax
  0017d	c6 40 10 00	 mov	 BYTE PTR [eax+16], 0
  00181	e8 00 00 00 00	 call	 ?_Rrotate@?$_Tree@V?$_Tset_traits@PAVioSceneManager@@U?$less@PAVioSceneManager@@@std@@V?$allocator@PAVioSceneManager@@@3@$0A@@std@@@std@@IAEXPAU_Node@?$_Tree_nod@V?$_Tset_traits@PAVioSceneManager@@U?$less@PAVioSceneManager@@@std@@V?$allocator@PAVioSceneManager@@@3@$0A@@std@@@2@@Z ; std::_Tree<std::_Tset_traits<ioSceneManager *,std::less<ioSceneManager *>,std::allocator<ioSceneManager *>,0> >::_Rrotate

; 1317 : 							_Pnode = this->_Right(_Fixnodeparent);

  00186	8b 46 08	 mov	 eax, DWORD PTR [esi+8]
$LN9@erase:

; 1318 : 							}
; 1319 : 
; 1320 : 						this->_Color(_Pnode) = this->_Color(_Fixnodeparent);

  00189	8a 4e 10	 mov	 cl, BYTE PTR [esi+16]
  0018c	88 48 10	 mov	 BYTE PTR [eax+16], cl

; 1321 : 						this->_Color(_Fixnodeparent) = this->_Black;
; 1322 : 						this->_Color(this->_Right(_Pnode)) = this->_Black;
; 1323 : 						_Lrotate(_Fixnodeparent);

  0018f	8b 4d fc	 mov	 ecx, DWORD PTR _this$[ebp]
  00192	c6 46 10 01	 mov	 BYTE PTR [esi+16], 1
  00196	8b 40 08	 mov	 eax, DWORD PTR [eax+8]
  00199	56		 push	 esi
  0019a	c6 40 10 01	 mov	 BYTE PTR [eax+16], 1
  0019e	e8 00 00 00 00	 call	 ?_Lrotate@?$_Tree@V?$_Tset_traits@PAVioSceneManager@@U?$less@PAVioSceneManager@@@std@@V?$allocator@PAVioSceneManager@@@3@$0A@@std@@@std@@IAEXPAU_Node@?$_Tree_nod@V?$_Tset_traits@PAVioSceneManager@@U?$less@PAVioSceneManager@@@std@@V?$allocator@PAVioSceneManager@@@3@$0A@@std@@@2@@Z ; std::_Tree<std::_Tset_traits<ioSceneManager *,std::less<ioSceneManager *>,std::allocator<ioSceneManager *>,0> >::_Lrotate

; 1324 : 						break;	// tree now recolored/rebalanced

  001a3	eb 7e		 jmp	 SHORT $LN16@erase
$LN15@erase:

; 1325 : 						}
; 1326 : 					}
; 1327 : 				else
; 1328 : 					{	// fixup right subtree
; 1329 : 					_Pnode = this->_Left(_Fixnodeparent);
; 1330 : 					if (this->_Color(_Pnode) == this->_Red)

  001a5	80 78 10 00	 cmp	 BYTE PTR [eax+16], 0
  001a9	75 10		 jne	 SHORT $LN7@erase

; 1331 : 						{	// rotate red up from left subtree
; 1332 : 						this->_Color(_Pnode) = this->_Black;

  001ab	c6 40 10 01	 mov	 BYTE PTR [eax+16], 1

; 1333 : 						this->_Color(_Fixnodeparent) = this->_Red;
; 1334 : 						_Rrotate(_Fixnodeparent);

  001af	56		 push	 esi
  001b0	c6 46 10 00	 mov	 BYTE PTR [esi+16], 0
  001b4	e8 00 00 00 00	 call	 ?_Rrotate@?$_Tree@V?$_Tset_traits@PAVioSceneManager@@U?$less@PAVioSceneManager@@@std@@V?$allocator@PAVioSceneManager@@@3@$0A@@std@@@std@@IAEXPAU_Node@?$_Tree_nod@V?$_Tset_traits@PAVioSceneManager@@U?$less@PAVioSceneManager@@@std@@V?$allocator@PAVioSceneManager@@@3@$0A@@std@@@2@@Z ; std::_Tree<std::_Tset_traits<ioSceneManager *,std::less<ioSceneManager *>,std::allocator<ioSceneManager *>,0> >::_Rrotate

; 1335 : 						_Pnode = this->_Left(_Fixnodeparent);

  001b9	8b 06		 mov	 eax, DWORD PTR [esi]
$LN7@erase:

; 1336 : 						}
; 1337 : 					if (this->_Isnil(_Pnode))

  001bb	80 78 11 00	 cmp	 BYTE PTR [eax+17], 0

; 1338 : 						_Fixnode = _Fixnodeparent;	// shouldn't happen
; 1339 : 					else if (this->_Color(this->_Right(_Pnode)) ==

  001bf	75 15		 jne	 SHORT $LN325@erase

; 1340 : 						this->_Black
; 1341 : 						&& this->_Color(this->_Left(_Pnode)) == this->_Black)

  001c1	8b 48 08	 mov	 ecx, DWORD PTR [eax+8]
  001c4	80 79 10 01	 cmp	 BYTE PTR [ecx+16], 1
  001c8	75 22		 jne	 SHORT $LN4@erase
  001ca	8b 08		 mov	 ecx, DWORD PTR [eax]
  001cc	80 79 10 01	 cmp	 BYTE PTR [ecx+16], 1
  001d0	75 1a		 jne	 SHORT $LN4@erase
$LN326@erase:

; 1342 : 						{	// redden left subtree with black children
; 1343 : 						this->_Color(_Pnode) = this->_Red;

  001d2	c6 40 10 00	 mov	 BYTE PTR [eax+16], 0
$LN325@erase:

; 1344 : 						_Fixnode = _Fixnodeparent;

  001d6	8b fe		 mov	 edi, esi
  001d8	8b 76 04	 mov	 esi, DWORD PTR [esi+4]
$LN324@erase:

; 1286 : 			{	// erasing black link, must recolor/rebalance tree
; 1287 : 			for (; _Fixnode != _Root()
; 1288 : 				&& this->_Color(_Fixnode) == this->_Black;
; 1289 : 				_Fixnodeparent = this->_Parent(_Fixnode))

  001db	8b 4d fc	 mov	 ecx, DWORD PTR _this$[ebp]
  001de	8b 41 04	 mov	 eax, DWORD PTR [ecx+4]
  001e1	3b 78 04	 cmp	 edi, DWORD PTR [eax+4]
  001e4	0f 85 3f ff ff
	ff		 jne	 $LL18@erase
  001ea	eb 37		 jmp	 SHORT $LN16@erase
$LN4@erase:

; 1345 : 						}
; 1346 : 					else
; 1347 : 						{	// must rearrange left subtree
; 1348 : 						if (this->_Color(this->_Left(_Pnode)) == this->_Black)

  001ec	8b 08		 mov	 ecx, DWORD PTR [eax]
  001ee	80 79 10 01	 cmp	 BYTE PTR [ecx+16], 1
  001f2	75 16		 jne	 SHORT $LN2@erase

; 1349 : 							{	// rotate red up from right sub-subtree
; 1350 : 							this->_Color(this->_Right(_Pnode)) = this->_Black;

  001f4	8b 48 08	 mov	 ecx, DWORD PTR [eax+8]
  001f7	c6 41 10 01	 mov	 BYTE PTR [ecx+16], 1

; 1351 : 							this->_Color(_Pnode) = this->_Red;
; 1352 : 							_Lrotate(_Pnode);

  001fb	8b 4d fc	 mov	 ecx, DWORD PTR _this$[ebp]
  001fe	50		 push	 eax
  001ff	c6 40 10 00	 mov	 BYTE PTR [eax+16], 0
  00203	e8 00 00 00 00	 call	 ?_Lrotate@?$_Tree@V?$_Tset_traits@PAVioSceneManager@@U?$less@PAVioSceneManager@@@std@@V?$allocator@PAVioSceneManager@@@3@$0A@@std@@@std@@IAEXPAU_Node@?$_Tree_nod@V?$_Tset_traits@PAVioSceneManager@@U?$less@PAVioSceneManager@@@std@@V?$allocator@PAVioSceneManager@@@3@$0A@@std@@@2@@Z ; std::_Tree<std::_Tset_traits<ioSceneManager *,std::less<ioSceneManager *>,std::allocator<ioSceneManager *>,0> >::_Lrotate

; 1353 : 							_Pnode = this->_Left(_Fixnodeparent);

  00208	8b 06		 mov	 eax, DWORD PTR [esi]
$LN2@erase:

; 1354 : 							}
; 1355 : 
; 1356 : 						this->_Color(_Pnode) = this->_Color(_Fixnodeparent);

  0020a	8a 4e 10	 mov	 cl, BYTE PTR [esi+16]
  0020d	88 48 10	 mov	 BYTE PTR [eax+16], cl

; 1357 : 						this->_Color(_Fixnodeparent) = this->_Black;
; 1358 : 						this->_Color(this->_Left(_Pnode)) = this->_Black;
; 1359 : 						_Rrotate(_Fixnodeparent);

  00210	8b 4d fc	 mov	 ecx, DWORD PTR _this$[ebp]
  00213	c6 46 10 01	 mov	 BYTE PTR [esi+16], 1
  00217	8b 00		 mov	 eax, DWORD PTR [eax]
  00219	56		 push	 esi
  0021a	c6 40 10 01	 mov	 BYTE PTR [eax+16], 1
  0021e	e8 00 00 00 00	 call	 ?_Rrotate@?$_Tree@V?$_Tset_traits@PAVioSceneManager@@U?$less@PAVioSceneManager@@@std@@V?$allocator@PAVioSceneManager@@@3@$0A@@std@@@std@@IAEXPAU_Node@?$_Tree_nod@V?$_Tset_traits@PAVioSceneManager@@U?$less@PAVioSceneManager@@@std@@V?$allocator@PAVioSceneManager@@@3@$0A@@std@@@2@@Z ; std::_Tree<std::_Tset_traits<ioSceneManager *,std::less<ioSceneManager *>,std::allocator<ioSceneManager *>,0> >::_Rrotate
$LN16@erase:

; 1360 : 						break;	// tree now recolored/rebalanced
; 1361 : 						}
; 1362 : 					}
; 1363 : 
; 1364 : 			this->_Color(_Fixnode) = this->_Black;	// stopping node is black

  00223	c6 47 10 01	 mov	 BYTE PTR [edi+16], 1
$LN19@erase:

; 1365 : 			}
; 1366 : 
; 1367 : 		_Dest_val(this->_Alval,
; 1368 : 			_STD addressof(this->_Myval(_Erasednode)));	// delete erased node
; 1369 : 
; 1370 : 		this->_Alnod.deallocate(_Erasednode, 1);

  00227	53		 push	 ebx
  00228	e8 00 00 00 00	 call	 ??3@YAXPAX@Z		; operator delete
  0022d	59		 pop	 ecx

; 1371 : 
; 1372 : 		if (0 < this->_Mysize)

  0022e	8b 4d fc	 mov	 ecx, DWORD PTR _this$[ebp]
  00231	8b 41 08	 mov	 eax, DWORD PTR [ecx+8]
  00234	5f		 pop	 edi
  00235	5e		 pop	 esi
  00236	5b		 pop	 ebx
  00237	85 c0		 test	 eax, eax
  00239	74 04		 je	 SHORT $LN1@erase

; 1373 : 			--this->_Mysize;

  0023b	48		 dec	 eax
  0023c	89 41 08	 mov	 DWORD PTR [ecx+8], eax
$LN1@erase:

; 1374 : 
; 1375 : 		return (iterator(_Where._Ptr, this));	// return successor iterator

  0023f	8b 45 08	 mov	 eax, DWORD PTR ___$ReturnUdt$[ebp]
  00242	8b 4d 0c	 mov	 ecx, DWORD PTR __Where$[ebp]
  00245	89 08		 mov	 DWORD PTR [eax], ecx

; 1376 : 		}

  00247	c9		 leave
  00248	c2 08 00	 ret	 8
$LN320@erase:
?erase@?$_Tree@V?$_Tset_traits@PAVioSceneManager@@U?$less@PAVioSceneManager@@@std@@V?$allocator@PAVioSceneManager@@@3@$0A@@std@@@std@@QAE?AV?$_Tree_const_iterator@V?$_Tree_val@V?$_Tset_traits@PAVioSceneManager@@U?$less@PAVioSceneManager@@@std@@V?$allocator@PAVioSceneManager@@@3@$0A@@std@@@std@@@2@V32@@Z ENDP ; std::_Tree<std::_Tset_traits<ioSceneManager *,std::less<ioSceneManager *>,std::allocator<ioSceneManager *>,0> >::erase
_TEXT	ENDS
PUBLIC	?_Erase@?$_Tree@V?$_Tset_traits@PAVioSceneManager@@U?$less@PAVioSceneManager@@@std@@V?$allocator@PAVioSceneManager@@@3@$0A@@std@@@std@@IAEXPAU_Node@?$_Tree_nod@V?$_Tset_traits@PAVioSceneManager@@U?$less@PAVioSceneManager@@@std@@V?$allocator@PAVioSceneManager@@@3@$0A@@std@@@2@@Z ; std::_Tree<std::_Tset_traits<ioSceneManager *,std::less<ioSceneManager *>,std::allocator<ioSceneManager *>,0> >::_Erase
; Function compile flags: /Ogsp
;	COMDAT ?_Erase@?$_Tree@V?$_Tset_traits@PAVioSceneManager@@U?$less@PAVioSceneManager@@@std@@V?$allocator@PAVioSceneManager@@@3@$0A@@std@@@std@@IAEXPAU_Node@?$_Tree_nod@V?$_Tset_traits@PAVioSceneManager@@U?$less@PAVioSceneManager@@@std@@V?$allocator@PAVioSceneManager@@@3@$0A@@std@@@2@@Z
_TEXT	SEGMENT
__Rootnode$ = 8						; size = 4
?_Erase@?$_Tree@V?$_Tset_traits@PAVioSceneManager@@U?$less@PAVioSceneManager@@@std@@V?$allocator@PAVioSceneManager@@@3@$0A@@std@@@std@@IAEXPAU_Node@?$_Tree_nod@V?$_Tset_traits@PAVioSceneManager@@U?$less@PAVioSceneManager@@@std@@V?$allocator@PAVioSceneManager@@@3@$0A@@std@@@2@@Z PROC ; std::_Tree<std::_Tset_traits<ioSceneManager *,std::less<ioSceneManager *>,std::allocator<ioSceneManager *>,0> >::_Erase, COMDAT
; _this$ = ecx

; 1610 : 		{	// free entire subtree, recursively

  00000	55		 push	 ebp
  00001	8b ec		 mov	 ebp, esp
  00003	53		 push	 ebx
  00004	56		 push	 esi
  00005	57		 push	 edi

; 1611 : 		for (_Nodeptr _Pnode = _Rootnode;

  00006	8b 7d 08	 mov	 edi, DWORD PTR __Rootnode$[ebp]

; 1612 : 			!this->_Isnil(_Pnode); _Rootnode = _Pnode)

  00009	80 7f 11 00	 cmp	 BYTE PTR [edi+17], 0
  0000d	8b d9		 mov	 ebx, ecx
  0000f	8b f7		 mov	 esi, edi
  00011	75 1b		 jne	 SHORT $LN1@Erase
$LL3@Erase:

; 1613 : 			{	// free subtrees, then node
; 1614 : 			_Erase(this->_Right(_Pnode));

  00013	ff 76 08	 push	 DWORD PTR [esi+8]
  00016	8b cb		 mov	 ecx, ebx
  00018	e8 00 00 00 00	 call	 ?_Erase@?$_Tree@V?$_Tset_traits@PAVioSceneManager@@U?$less@PAVioSceneManager@@@std@@V?$allocator@PAVioSceneManager@@@3@$0A@@std@@@std@@IAEXPAU_Node@?$_Tree_nod@V?$_Tset_traits@PAVioSceneManager@@U?$less@PAVioSceneManager@@@std@@V?$allocator@PAVioSceneManager@@@3@$0A@@std@@@2@@Z ; std::_Tree<std::_Tset_traits<ioSceneManager *,std::less<ioSceneManager *>,std::allocator<ioSceneManager *>,0> >::_Erase

; 1615 : 			_Pnode = this->_Left(_Pnode);

  0001d	8b 36		 mov	 esi, DWORD PTR [esi]

; 1616 : 			_Dest_val(this->_Alval,
; 1617 : 				_STD addressof(this->_Myval(_Rootnode)));
; 1618 : 
; 1619 : 			this->_Alnod.deallocate(_Rootnode, 1);

  0001f	57		 push	 edi
  00020	e8 00 00 00 00	 call	 ??3@YAXPAX@Z		; operator delete
  00025	80 7e 11 00	 cmp	 BYTE PTR [esi+17], 0
  00029	59		 pop	 ecx
  0002a	8b fe		 mov	 edi, esi
  0002c	74 e5		 je	 SHORT $LL3@Erase
$LN1@Erase:
  0002e	5f		 pop	 edi
  0002f	5e		 pop	 esi
  00030	5b		 pop	 ebx

; 1620 : 			}
; 1621 : 		}

  00031	5d		 pop	 ebp
  00032	c2 04 00	 ret	 4
?_Erase@?$_Tree@V?$_Tset_traits@PAVioSceneManager@@U?$less@PAVioSceneManager@@@std@@V?$allocator@PAVioSceneManager@@@3@$0A@@std@@@std@@IAEXPAU_Node@?$_Tree_nod@V?$_Tset_traits@PAVioSceneManager@@U?$less@PAVioSceneManager@@@std@@V?$allocator@PAVioSceneManager@@@3@$0A@@std@@@2@@Z ENDP ; std::_Tree<std::_Tset_traits<ioSceneManager *,std::less<ioSceneManager *>,std::allocator<ioSceneManager *>,0> >::_Erase
_TEXT	ENDS
PUBLIC	??$_Distance@V?$_Tree_const_iterator@V?$_Tree_val@V?$_Tset_traits@PAVioSceneManager@@U?$less@PAVioSceneManager@@@std@@V?$allocator@PAVioSceneManager@@@3@$0A@@std@@@std@@@std@@I@std@@YAXV?$_Tree_const_iterator@V?$_Tree_val@V?$_Tset_traits@PAVioSceneManager@@U?$less@PAVioSceneManager@@@std@@V?$allocator@PAVioSceneManager@@@3@$0A@@std@@@std@@@0@0AAI@Z ; std::_Distance<std::_Tree_const_iterator<std::_Tree_val<std::_Tset_traits<ioSceneManager *,std::less<ioSceneManager *>,std::allocator<ioSceneManager *>,0> > >,unsigned int>
; Function compile flags: /Ogsp
; File c:\program files (x86)\microsoft visual studio 10.0\vc\include\xutility
;	COMDAT ??$_Distance@V?$_Tree_const_iterator@V?$_Tree_val@V?$_Tset_traits@PAVioSceneManager@@U?$less@PAVioSceneManager@@@std@@V?$allocator@PAVioSceneManager@@@3@$0A@@std@@@std@@@std@@I@std@@YAXV?$_Tree_const_iterator@V?$_Tree_val@V?$_Tset_traits@PAVioSceneManager@@U?$less@PAVioSceneManager@@@std@@V?$allocator@PAVioSceneManager@@@3@$0A@@std@@@std@@@0@0AAI@Z
_TEXT	SEGMENT
$T514795 = -4						; size = 1
__First$ = 8						; size = 4
__Last$ = 12						; size = 4
__Off$ = 16						; size = 4
??$_Distance@V?$_Tree_const_iterator@V?$_Tree_val@V?$_Tset_traits@PAVioSceneManager@@U?$less@PAVioSceneManager@@@std@@V?$allocator@PAVioSceneManager@@@3@$0A@@std@@@std@@@std@@I@std@@YAXV?$_Tree_const_iterator@V?$_Tree_val@V?$_Tset_traits@PAVioSceneManager@@U?$less@PAVioSceneManager@@@std@@V?$allocator@PAVioSceneManager@@@3@$0A@@std@@@std@@@0@0AAI@Z PROC ; std::_Distance<std::_Tree_const_iterator<std::_Tree_val<std::_Tset_traits<ioSceneManager *,std::less<ioSceneManager *>,std::allocator<ioSceneManager *>,0> > >,unsigned int>, COMDAT

; 909  : 	{	// add to _Off distance between iterators

  00000	55		 push	 ebp
  00001	8b ec		 mov	 ebp, esp
  00003	51		 push	 ecx

; 910  : 	_Distance2(_First, _Last, _Off, _Iter_cat(_First));

  00004	ff 75 fc	 push	 DWORD PTR $T514795[ebp]
  00007	ff 75 10	 push	 DWORD PTR __Off$[ebp]
  0000a	ff 75 0c	 push	 DWORD PTR __Last$[ebp]
  0000d	ff 75 08	 push	 DWORD PTR __First$[ebp]
  00010	e8 00 00 00 00	 call	 ??$_Distance2@V?$_Tree_const_iterator@V?$_Tree_val@V?$_Tset_traits@PAVioSceneManager@@U?$less@PAVioSceneManager@@@std@@V?$allocator@PAVioSceneManager@@@3@$0A@@std@@@std@@@std@@I@std@@YAXV?$_Tree_const_iterator@V?$_Tree_val@V?$_Tset_traits@PAVioSceneManager@@U?$less@PAVioSceneManager@@@std@@V?$allocator@PAVioSceneManager@@@3@$0A@@std@@@std@@@0@0AAIUbidirectional_iterator_tag@0@@Z ; std::_Distance2<std::_Tree_const_iterator<std::_Tree_val<std::_Tset_traits<ioSceneManager *,std::less<ioSceneManager *>,std::allocator<ioSceneManager *>,0> > >,unsigned int>
  00015	83 c4 10	 add	 esp, 16			; 00000010H

; 911  : 	}

  00018	c9		 leave
  00019	c3		 ret	 0
??$_Distance@V?$_Tree_const_iterator@V?$_Tree_val@V?$_Tset_traits@PAVioSceneManager@@U?$less@PAVioSceneManager@@@std@@V?$allocator@PAVioSceneManager@@@3@$0A@@std@@@std@@@std@@I@std@@YAXV?$_Tree_const_iterator@V?$_Tree_val@V?$_Tset_traits@PAVioSceneManager@@U?$less@PAVioSceneManager@@@std@@V?$allocator@PAVioSceneManager@@@3@$0A@@std@@@std@@@0@0AAI@Z ENDP ; std::_Distance<std::_Tree_const_iterator<std::_Tree_val<std::_Tset_traits<ioSceneManager *,std::less<ioSceneManager *>,std::allocator<ioSceneManager *>,0> > >,unsigned int>
_TEXT	ENDS
PUBLIC	?_Linsert@?$_Tree@V?$_Tset_traits@PAVioSceneManager@@U?$less@PAVioSceneManager@@@std@@V?$allocator@PAVioSceneManager@@@3@$0A@@std@@@std@@QAE?AU?$pair@V?$_Tree_const_iterator@V?$_Tree_val@V?$_Tset_traits@PAVioSceneManager@@U?$less@PAVioSceneManager@@@std@@V?$allocator@PAVioSceneManager@@@3@$0A@@std@@@std@@@std@@_N@2@PAU_Node@?$_Tree_nod@V?$_Tset_traits@PAVioSceneManager@@U?$less@PAVioSceneManager@@@std@@V?$allocator@PAVioSceneManager@@@3@$0A@@std@@@2@_N@Z ; std::_Tree<std::_Tset_traits<ioSceneManager *,std::less<ioSceneManager *>,std::allocator<ioSceneManager *>,0> >::_Linsert
; Function compile flags: /Ogsp
; File c:\program files (x86)\microsoft visual studio 10.0\vc\include\xtree
;	COMDAT ?_Linsert@?$_Tree@V?$_Tset_traits@PAVioSceneManager@@U?$less@PAVioSceneManager@@@std@@V?$allocator@PAVioSceneManager@@@3@$0A@@std@@@std@@QAE?AU?$pair@V?$_Tree_const_iterator@V?$_Tree_val@V?$_Tset_traits@PAVioSceneManager@@U?$less@PAVioSceneManager@@@std@@V?$allocator@PAVioSceneManager@@@3@$0A@@std@@@std@@@std@@_N@2@PAU_Node@?$_Tree_nod@V?$_Tset_traits@PAVioSceneManager@@U?$less@PAVioSceneManager@@@std@@V?$allocator@PAVioSceneManager@@@3@$0A@@std@@@2@_N@Z
_TEXT	SEGMENT
__Addleft$ = -4						; size = 1
___$ReturnUdt$ = 8					; size = 4
__Node$ = 12						; size = 4
$T514808 = 16						; size = 4
__Where$510144 = 16					; size = 4
__Leftish$ = 16						; size = 1
?_Linsert@?$_Tree@V?$_Tset_traits@PAVioSceneManager@@U?$less@PAVioSceneManager@@@std@@V?$allocator@PAVioSceneManager@@@3@$0A@@std@@@std@@QAE?AU?$pair@V?$_Tree_const_iterator@V?$_Tree_val@V?$_Tset_traits@PAVioSceneManager@@U?$less@PAVioSceneManager@@@std@@V?$allocator@PAVioSceneManager@@@3@$0A@@std@@@std@@@std@@_N@2@PAU_Node@?$_Tree_nod@V?$_Tset_traits@PAVioSceneManager@@U?$less@PAVioSceneManager@@@std@@V?$allocator@PAVioSceneManager@@@3@$0A@@std@@@2@_N@Z PROC ; std::_Tree<std::_Tset_traits<ioSceneManager *,std::less<ioSceneManager *>,std::allocator<ioSceneManager *>,0> >::_Linsert, COMDAT
; _this$ = ecx

; 944  : 		{	// try to insert node at _Node, on left if _Leftish

  00000	55		 push	 ebp
  00001	8b ec		 mov	 ebp, esp
  00003	51		 push	 ecx
  00004	53		 push	 ebx
  00005	56		 push	 esi
  00006	8b f1		 mov	 esi, ecx

; 945  : 		const value_type& _Val = this->_Myval(_Node);
; 946  : 
; 947  : 		_Nodeptr _Trynode = _Root();

  00008	8b 4e 04	 mov	 ecx, DWORD PTR [esi+4]
  0000b	8b 41 04	 mov	 eax, DWORD PTR [ecx+4]

; 948  : 		_Nodeptr _Wherenode = this->_Myhead;
; 949  : 		bool _Addleft = true;	// add to left of head if tree empty
; 950  : 		while (!this->_Isnil(_Trynode))

  0000e	80 78 11 00	 cmp	 BYTE PTR [eax+17], 0
  00012	8b d9		 mov	 ebx, ecx
  00014	b1 01		 mov	 cl, 1
  00016	57		 push	 edi
  00017	88 4d fc	 mov	 BYTE PTR __Addleft$[ebp], cl
  0001a	75 31		 jne	 SHORT $LN145@Linsert
  0001c	8b 4d 0c	 mov	 ecx, DWORD PTR __Node$[ebp]
  0001f	8b 51 0c	 mov	 edx, DWORD PTR [ecx+12]
$LL12@Linsert:

; 951  : 			{	// look for leaf to insert before (_Addleft) or after
; 952  : 			_Wherenode = _Trynode;
; 953  : 			if (_Leftish)

  00022	80 7d 10 00	 cmp	 BYTE PTR __Leftish$[ebp], 0
  00026	8b d8		 mov	 ebx, eax
  00028	74 09		 je	 SHORT $LN10@Linsert

; 954  : 				_Addleft = !_DEBUG_LT_PRED(this->comp,

  0002a	39 50 0c	 cmp	 DWORD PTR [eax+12], edx
  0002d	1a c9		 sbb	 cl, cl
  0002f	fe c1		 inc	 cl

; 955  : 					this->_Key(_Trynode),
; 956  : 					this->_Kfn(_Val));	// favor left end
; 957  : 			else

  00031	eb 06		 jmp	 SHORT $LN146@Linsert
$LN10@Linsert:

; 958  : 				_Addleft = _DEBUG_LT_PRED(this->comp,

  00033	3b 50 0c	 cmp	 edx, DWORD PTR [eax+12]
  00036	0f 92 c1	 setb	 cl
$LN146@Linsert:
  00039	88 4d fc	 mov	 BYTE PTR __Addleft$[ebp], cl

; 959  : 					this->_Kfn(_Val),
; 960  : 					this->_Key(_Trynode));	// favor right end
; 961  : 			_Trynode = _Addleft ? this->_Left(_Trynode)
; 962  : 				: this->_Right(_Trynode);

  0003c	84 c9		 test	 cl, cl
  0003e	74 04		 je	 SHORT $LN15@Linsert
  00040	8b 00		 mov	 eax, DWORD PTR [eax]
  00042	eb 03		 jmp	 SHORT $LN16@Linsert
$LN15@Linsert:
  00044	8b 40 08	 mov	 eax, DWORD PTR [eax+8]
$LN16@Linsert:

; 948  : 		_Nodeptr _Wherenode = this->_Myhead;
; 949  : 		bool _Addleft = true;	// add to left of head if tree empty
; 950  : 		while (!this->_Isnil(_Trynode))

  00047	80 78 11 00	 cmp	 BYTE PTR [eax+17], 0
  0004b	74 d5		 je	 SHORT $LL12@Linsert
$LN145@Linsert:

; 963  : 			}
; 964  : 
; 965  : 		if (this->_Multi)
; 966  : 			return (_Pairib(_Insert(_Addleft, _Wherenode, _Node), true));
; 967  : 		else
; 968  : 			{	// insert only if unique
; 969  : 			iterator _Where = iterator(_Wherenode, this);

  0004d	8b fb		 mov	 edi, ebx
  0004f	89 7d 10	 mov	 DWORD PTR __Where$510144[ebp], edi

; 970  : 			if (!_Addleft)

  00052	84 c9		 test	 cl, cl
  00054	74 30		 je	 SHORT $LN93@Linsert

; 971  : 				;	// need to test if insert after is okay
; 972  : 			else if (_Where == begin())

  00056	8b 46 04	 mov	 eax, DWORD PTR [esi+4]
  00059	3b 18		 cmp	 ebx, DWORD PTR [eax]
  0005b	75 1e		 jne	 SHORT $LN4@Linsert

; 973  : 				return (_Pairib(_Insert(true, _Wherenode, _Node), true));

  0005d	ff 75 0c	 push	 DWORD PTR __Node$[ebp]
  00060	53		 push	 ebx
  00061	6a 01		 push	 1
$LN147@Linsert:
  00063	8d 45 10	 lea	 eax, DWORD PTR $T514808[ebp]
  00066	50		 push	 eax
  00067	8b ce		 mov	 ecx, esi
  00069	e8 00 00 00 00	 call	 ?_Insert@?$_Tree@V?$_Tset_traits@PAVioSceneManager@@U?$less@PAVioSceneManager@@@std@@V?$allocator@PAVioSceneManager@@@3@$0A@@std@@@std@@IAE?AV?$_Tree_const_iterator@V?$_Tree_val@V?$_Tset_traits@PAVioSceneManager@@U?$less@PAVioSceneManager@@@std@@V?$allocator@PAVioSceneManager@@@3@$0A@@std@@@std@@@2@_NPAU_Node@?$_Tree_nod@V?$_Tset_traits@PAVioSceneManager@@U?$less@PAVioSceneManager@@@std@@V?$allocator@PAVioSceneManager@@@3@$0A@@std@@@2@1@Z ; std::_Tree<std::_Tset_traits<ioSceneManager *,std::less<ioSceneManager *>,std::allocator<ioSceneManager *>,0> >::_Insert
  0006e	8b 08		 mov	 ecx, DWORD PTR [eax]
  00070	8b 45 08	 mov	 eax, DWORD PTR ___$ReturnUdt$[ebp]
  00073	89 08		 mov	 DWORD PTR [eax], ecx
  00075	c6 40 04 01	 mov	 BYTE PTR [eax+4], 1
  00079	eb 2c		 jmp	 SHORT $LN1@Linsert
$LN4@Linsert:

; 974  : 			else
; 975  : 				--_Where;	// need to test if insert before is okay

  0007b	8d 4d 10	 lea	 ecx, DWORD PTR __Where$510144[ebp]
  0007e	e8 00 00 00 00	 call	 ??F?$_Tree_unchecked_const_iterator@V?$_Tree_val@V?$_Tset_traits@PAVioSceneManager@@U?$less@PAVioSceneManager@@@std@@V?$allocator@PAVioSceneManager@@@3@$0A@@std@@@std@@U_Iterator_base0@2@@std@@QAEAAV01@XZ ; std::_Tree_unchecked_const_iterator<std::_Tree_val<std::_Tset_traits<ioSceneManager *,std::less<ioSceneManager *>,std::allocator<ioSceneManager *>,0> >,std::_Iterator_base0>::operator--
  00083	8b 7d 10	 mov	 edi, DWORD PTR __Where$510144[ebp]
$LN93@Linsert:

; 976  : 
; 977  : 			if (_DEBUG_LT_PRED(this->comp,

  00086	8b 45 0c	 mov	 eax, DWORD PTR __Node$[ebp]
  00089	8b 4f 0c	 mov	 ecx, DWORD PTR [edi+12]

; 978  : 				this->_Key(_Where._Mynode()),
; 979  : 				this->_Kfn(_Val)))
; 980  : 				return (_Pairib(_Insert(_Addleft, _Wherenode, _Node), true));

  0008c	50		 push	 eax
  0008d	3b 48 0c	 cmp	 ecx, DWORD PTR [eax+12]
  00090	73 06		 jae	 SHORT $LN2@Linsert
  00092	53		 push	 ebx
  00093	ff 75 fc	 push	 DWORD PTR __Addleft$[ebp]
  00096	eb cb		 jmp	 SHORT $LN147@Linsert
$LN2@Linsert:

; 981  : 			else
; 982  : 				{	// duplicate, don't insert
; 983  : 				_Dest_val(this->_Alval,
; 984  : 					_STD addressof(this->_Myval(_Node)));
; 985  : 
; 986  : 				this->_Alnod.deallocate(_Node, 1);

  00098	e8 00 00 00 00	 call	 ??3@YAXPAX@Z		; operator delete

; 987  : 
; 988  : 				return (_Pairib(_Where, false));

  0009d	8b 45 08	 mov	 eax, DWORD PTR ___$ReturnUdt$[ebp]
  000a0	59		 pop	 ecx
  000a1	89 38		 mov	 DWORD PTR [eax], edi
  000a3	c6 40 04 00	 mov	 BYTE PTR [eax+4], 0
$LN1@Linsert:
  000a7	5f		 pop	 edi
  000a8	5e		 pop	 esi
  000a9	5b		 pop	 ebx

; 989  : 				}
; 990  : 			}
; 991  : 		}

  000aa	c9		 leave
  000ab	c2 0c 00	 ret	 12			; 0000000cH
?_Linsert@?$_Tree@V?$_Tset_traits@PAVioSceneManager@@U?$less@PAVioSceneManager@@@std@@V?$allocator@PAVioSceneManager@@@3@$0A@@std@@@std@@QAE?AU?$pair@V?$_Tree_const_iterator@V?$_Tree_val@V?$_Tset_traits@PAVioSceneManager@@U?$less@PAVioSceneManager@@@std@@V?$allocator@PAVioSceneManager@@@3@$0A@@std@@@std@@@std@@_N@2@PAU_Node@?$_Tree_nod@V?$_Tset_traits@PAVioSceneManager@@U?$less@PAVioSceneManager@@@std@@V?$allocator@PAVioSceneManager@@@3@$0A@@std@@@2@_N@Z ENDP ; std::_Tree<std::_Tset_traits<ioSceneManager *,std::less<ioSceneManager *>,std::allocator<ioSceneManager *>,0> >::_Linsert
_TEXT	ENDS
PUBLIC	??$_Dest_val@V?$allocator@VioHashString@@@std@@VioHashString@@@std@@YAXAAV?$allocator@VioHashString@@@0@PAVioHashString@@@Z ; std::_Dest_val<std::allocator<ioHashString>,ioHashString>
; Function compile flags: /Ogsp
; File c:\program files (x86)\microsoft visual studio 10.0\vc\include\xmemory
;	COMDAT ??$_Dest_val@V?$allocator@VioHashString@@@std@@VioHashString@@@std@@YAXAAV?$allocator@VioHashString@@@0@PAVioHashString@@@Z
_TEXT	SEGMENT
__Alval$ = 8						; size = 4
__Pdest$ = 12						; size = 4
??$_Dest_val@V?$allocator@VioHashString@@@std@@VioHashString@@@std@@YAXAAV?$allocator@VioHashString@@@0@PAVioHashString@@@Z PROC ; std::_Dest_val<std::allocator<ioHashString>,ioHashString>, COMDAT

; 286  : 	{	// destroy using allocator

  00000	55		 push	 ebp
  00001	8b ec		 mov	 ebp, esp

; 287  : 	_Alval.destroy(_Pdest);

  00003	8b 4d 0c	 mov	 ecx, DWORD PTR __Pdest$[ebp]

; 288  : 	}

  00006	5d		 pop	 ebp

; 287  : 	_Alval.destroy(_Pdest);

  00007	ff 25 00 00 00
	00		 jmp	 DWORD PTR __imp_??1ioHashString@@QAE@XZ
??$_Dest_val@V?$allocator@VioHashString@@@std@@VioHashString@@@std@@YAXAAV?$allocator@VioHashString@@@0@PAVioHashString@@@Z ENDP ; std::_Dest_val<std::allocator<ioHashString>,ioHashString>
_TEXT	ENDS
PUBLIC	?DestroyAllEffects@ioUI3DRender@@IAEXXZ		; ioUI3DRender::DestroyAllEffects
; Function compile flags: /Ogsp
; File d:\lost saga for developer\youtube\tutorial\source\src\lsclient\gui\ioui3drender.cpp
;	COMDAT ?DestroyAllEffects@ioUI3DRender@@IAEXXZ
_TEXT	SEGMENT
?DestroyAllEffects@ioUI3DRender@@IAEXXZ PROC		; ioUI3DRender::DestroyAllEffects, COMDAT
; _this$ = ecx

; 606  : {

  00000	53		 push	 ebx
  00001	8b d9		 mov	 ebx, ecx

; 607  : 	if( m_EffectList.empty() )

  00003	83 7b 40 00	 cmp	 DWORD PTR [ebx+64], 0
  00007	74 27		 je	 SHORT $LN5@DestroyAll

; 608  : 		return;
; 609  : 
; 610  : 	EffectList::iterator iter = m_EffectList.begin();

  00009	8b 43 3c	 mov	 eax, DWORD PTR [ebx+60]
  0000c	56		 push	 esi
  0000d	8b 30		 mov	 esi, DWORD PTR [eax]
  0000f	57		 push	 edi

; 611  : 	for( ; iter!=m_EffectList.end() ; ++iter )

  00010	3b f0		 cmp	 esi, eax
  00012	74 11		 je	 SHORT $LN1@DestroyAll
$LL23@DestroyAll:

; 612  : 	{
; 613  : 		DestroyEffect( *iter );

  00014	ff 76 08	 push	 DWORD PTR [esi+8]
  00017	8b cb		 mov	 ecx, ebx
  00019	e8 00 00 00 00	 call	 ?DestroyEffect@ioUI3DRender@@IAEXPAVioEffect@@@Z ; ioUI3DRender::DestroyEffect
  0001e	8b 36		 mov	 esi, DWORD PTR [esi]
  00020	3b 73 3c	 cmp	 esi, DWORD PTR [ebx+60]
  00023	75 ef		 jne	 SHORT $LL23@DestroyAll
$LN1@DestroyAll:
  00025	5f		 pop	 edi
  00026	5e		 pop	 esi

; 614  : 	}
; 615  : 
; 616  : 	m_EffectList.clear();

  00027	8d 4b 3c	 lea	 ecx, DWORD PTR [ebx+60]
  0002a	5b		 pop	 ebx
  0002b	e9 00 00 00 00	 jmp	 ?clear@?$list@PAVioEffect@@V?$allocator@PAVioEffect@@@std@@@std@@QAEXXZ ; std::list<ioEffect *,std::allocator<ioEffect *> >::clear
$LN5@DestroyAll:
  00030	5b		 pop	 ebx

; 617  : }

  00031	c3		 ret	 0
?DestroyAllEffects@ioUI3DRender@@IAEXXZ ENDP		; ioUI3DRender::DestroyAllEffects
_TEXT	ENDS
PUBLIC	??1?$list@PAVioEffect@@V?$allocator@PAVioEffect@@@std@@@std@@QAE@XZ ; std::list<ioEffect *,std::allocator<ioEffect *> >::~list<ioEffect *,std::allocator<ioEffect *> >
; Function compile flags: /Ogsp
; File c:\program files (x86)\microsoft visual studio 10.0\vc\include\list
;	COMDAT ??1?$list@PAVioEffect@@V?$allocator@PAVioEffect@@@std@@@std@@QAE@XZ
_TEXT	SEGMENT
??1?$list@PAVioEffect@@V?$allocator@PAVioEffect@@@std@@@std@@QAE@XZ PROC ; std::list<ioEffect *,std::allocator<ioEffect *> >::~list<ioEffect *,std::allocator<ioEffect *> >, COMDAT
; _this$ = ecx

; 769  : 		{	// destroy the object

  00000	56		 push	 esi
  00001	8b f1		 mov	 esi, ecx

; 770  : 		_Tidy();

  00003	e8 00 00 00 00	 call	 ?clear@?$list@PAVioEffect@@V?$allocator@PAVioEffect@@@std@@@std@@QAEXXZ ; std::list<ioEffect *,std::allocator<ioEffect *> >::clear

; 771  : 		}

  00008	ff 36		 push	 DWORD PTR [esi]
  0000a	e8 00 00 00 00	 call	 ??3@YAXPAX@Z		; operator delete
  0000f	59		 pop	 ecx
  00010	5e		 pop	 esi
  00011	c3		 ret	 0
??1?$list@PAVioEffect@@V?$allocator@PAVioEffect@@@std@@@std@@QAE@XZ ENDP ; std::list<ioEffect *,std::allocator<ioEffect *> >::~list<ioEffect *,std::allocator<ioEffect *> >
_TEXT	ENDS
PUBLIC	?erase@?$list@PAVioEffect@@V?$allocator@PAVioEffect@@@std@@@std@@QAE?AV?$_List_iterator@V?$_List_val@PAVioEffect@@V?$allocator@PAVioEffect@@@std@@@std@@@2@V?$_List_const_iterator@V?$_List_val@PAVioEffect@@V?$allocator@PAVioEffect@@@std@@@std@@@2@@Z ; std::list<ioEffect *,std::allocator<ioEffect *> >::erase
; Function compile flags: /Ogsp
;	COMDAT ?erase@?$list@PAVioEffect@@V?$allocator@PAVioEffect@@@std@@@std@@QAE?AV?$_List_iterator@V?$_List_val@PAVioEffect@@V?$allocator@PAVioEffect@@@std@@@std@@@2@V?$_List_const_iterator@V?$_List_val@PAVioEffect@@V?$allocator@PAVioEffect@@@std@@@std@@@2@@Z
_TEXT	SEGMENT
___$ReturnUdt$ = 8					; size = 4
__Where$ = 12						; size = 4
?erase@?$list@PAVioEffect@@V?$allocator@PAVioEffect@@@std@@@std@@QAE?AV?$_List_iterator@V?$_List_val@PAVioEffect@@V?$allocator@PAVioEffect@@@std@@@std@@@2@V?$_List_const_iterator@V?$_List_val@PAVioEffect@@V?$allocator@PAVioEffect@@@std@@@std@@@2@@Z PROC ; std::list<ioEffect *,std::allocator<ioEffect *> >::erase, COMDAT
; _this$ = ecx

; 1054 : 		{	// erase element at _Where

  00000	55		 push	 ebp
  00001	8b ec		 mov	 ebp, esp

; 1055 :  #if _ITERATOR_DEBUG_LEVEL == 2
; 1056 : 		if (_Where._Getcont() != this || _Where._Ptr == this->_Myhead)
; 1057 : 			_DEBUG_ERROR("list erase iterator outside range");
; 1058 : 		_Nodeptr _Pnode = (_Where++)._Mynode();
; 1059 : 		_Orphan_ptr(*this, _Pnode);
; 1060 : 
; 1061 :  #else /* _ITERATOR_DEBUG_LEVEL == 2 */
; 1062 : 		_Nodeptr _Pnode = (_Where++)._Mynode();

  00003	8b 45 0c	 mov	 eax, DWORD PTR __Where$[ebp]
  00006	56		 push	 esi
  00007	8b f1		 mov	 esi, ecx
  00009	8b 08		 mov	 ecx, DWORD PTR [eax]
  0000b	89 4d 0c	 mov	 DWORD PTR __Where$[ebp], ecx

; 1063 :  #endif /* _ITERATOR_DEBUG_LEVEL == 2 */
; 1064 : 
; 1065 : 		if (_Pnode != this->_Myhead)

  0000e	3b 06		 cmp	 eax, DWORD PTR [esi]
  00010	74 19		 je	 SHORT $LN1@erase@2

; 1066 : 			{	// not list head, safe to erase
; 1067 : 			this->_Nextnode(this->_Prevnode(_Pnode)) =
; 1068 : 				this->_Nextnode(_Pnode);

  00012	8b 48 04	 mov	 ecx, DWORD PTR [eax+4]
  00015	8b 10		 mov	 edx, DWORD PTR [eax]
  00017	89 11		 mov	 DWORD PTR [ecx], edx

; 1069 : 			this->_Prevnode(this->_Nextnode(_Pnode)) =
; 1070 : 				this->_Prevnode(_Pnode);

  00019	8b 08		 mov	 ecx, DWORD PTR [eax]
  0001b	8b 50 04	 mov	 edx, DWORD PTR [eax+4]

; 1071 : 
; 1072 : 			_Dest_val(this->_Alnod, _Pnode);
; 1073 : 			this->_Alnod.deallocate(_Pnode, 1);

  0001e	50		 push	 eax
  0001f	89 51 04	 mov	 DWORD PTR [ecx+4], edx
  00022	e8 00 00 00 00	 call	 ??3@YAXPAX@Z		; operator delete

; 1074 : 
; 1075 : 			--this->_Mysize;

  00027	ff 4e 04	 dec	 DWORD PTR [esi+4]
  0002a	59		 pop	 ecx
$LN1@erase@2:

; 1076 : 			}
; 1077 : 		return (_Make_iter(_Where));

  0002b	8b 45 08	 mov	 eax, DWORD PTR ___$ReturnUdt$[ebp]
  0002e	8b 4d 0c	 mov	 ecx, DWORD PTR __Where$[ebp]
  00031	89 08		 mov	 DWORD PTR [eax], ecx
  00033	5e		 pop	 esi

; 1078 : 		}

  00034	5d		 pop	 ebp
  00035	c2 08 00	 ret	 8
?erase@?$list@PAVioEffect@@V?$allocator@PAVioEffect@@@std@@@std@@QAE?AV?$_List_iterator@V?$_List_val@PAVioEffect@@V?$allocator@PAVioEffect@@@std@@@std@@@2@V?$_List_const_iterator@V?$_List_val@PAVioEffect@@V?$allocator@PAVioEffect@@@std@@@std@@@2@@Z ENDP ; std::list<ioEffect *,std::allocator<ioEffect *> >::erase
_TEXT	ENDS
PUBLIC	?_Insert@?$list@PAVioEffect@@V?$allocator@PAVioEffect@@@std@@@std@@QAEXV?$_List_const_iterator@V?$_List_val@PAVioEffect@@V?$allocator@PAVioEffect@@@std@@@std@@@2@ABQAVioEffect@@@Z ; std::list<ioEffect *,std::allocator<ioEffect *> >::_Insert
; Function compile flags: /Ogsp
;	COMDAT ?_Insert@?$list@PAVioEffect@@V?$allocator@PAVioEffect@@@std@@@std@@QAEXV?$_List_const_iterator@V?$_List_val@PAVioEffect@@V?$allocator@PAVioEffect@@@std@@@std@@@2@ABQAVioEffect@@@Z
_TEXT	SEGMENT
__Where$ = 8						; size = 4
__Val$ = 12						; size = 4
?_Insert@?$list@PAVioEffect@@V?$allocator@PAVioEffect@@@std@@@std@@QAEXV?$_List_const_iterator@V?$_List_val@PAVioEffect@@V?$allocator@PAVioEffect@@@std@@@std@@@2@ABQAVioEffect@@@Z PROC ; std::list<ioEffect *,std::allocator<ioEffect *> >::_Insert, COMDAT
; _this$ = ecx

; 967  : 		{	// insert _Val at _Where

  00000	55		 push	 ebp
  00001	8b ec		 mov	 ebp, esp

; 968  :  #if _ITERATOR_DEBUG_LEVEL == 2
; 969  : 		if (_Where._Getcont() != this)
; 970  : 			_DEBUG_ERROR("list insert iterator outside range");
; 971  :  #endif /* _ITERATOR_DEBUG_LEVEL == 2 */
; 972  : 
; 973  : 		_Nodeptr _Pnode = _Where._Mynode();
; 974  : 		_Nodeptr _Newnode =
; 975  : 			this->_Buynode(_Pnode, this->_Prevnode(_Pnode), _Val);

  00003	8b 45 08	 mov	 eax, DWORD PTR __Where$[ebp]
  00006	53		 push	 ebx
  00007	56		 push	 esi
  00008	57		 push	 edi
  00009	ff 75 0c	 push	 DWORD PTR __Val$[ebp]
  0000c	8d 78 04	 lea	 edi, DWORD PTR [eax+4]
  0000f	ff 37		 push	 DWORD PTR [edi]
  00011	8b d9		 mov	 ebx, ecx
  00013	50		 push	 eax
  00014	e8 00 00 00 00	 call	 ?_Buynode@?$_List_val@PAVioEffect@@V?$allocator@PAVioEffect@@@std@@@std@@QAEPAU_Node@?$_List_nod@PAVioEffect@@V?$allocator@PAVioEffect@@@std@@@2@PAU342@0ABQAVioEffect@@@Z ; std::_List_val<ioEffect *,std::allocator<ioEffect *> >::_Buynode

; 976  : 		_Incsize(1);

  00019	6a 01		 push	 1
  0001b	8b cb		 mov	 ecx, ebx
  0001d	8b f0		 mov	 esi, eax
  0001f	e8 00 00 00 00	 call	 ?_Incsize@?$list@PAVioEffect@@V?$allocator@PAVioEffect@@@std@@@std@@QAEXI@Z ; std::list<ioEffect *,std::allocator<ioEffect *> >::_Incsize

; 977  : 		this->_Prevnode(_Pnode) = _Newnode;

  00024	89 37		 mov	 DWORD PTR [edi], esi

; 978  : 		this->_Nextnode(this->_Prevnode(_Newnode)) = _Newnode;

  00026	8b 46 04	 mov	 eax, DWORD PTR [esi+4]
  00029	5f		 pop	 edi
  0002a	89 30		 mov	 DWORD PTR [eax], esi
  0002c	5e		 pop	 esi
  0002d	5b		 pop	 ebx

; 979  : 		}

  0002e	5d		 pop	 ebp
  0002f	c2 08 00	 ret	 8
?_Insert@?$list@PAVioEffect@@V?$allocator@PAVioEffect@@@std@@@std@@QAEXV?$_List_const_iterator@V?$_List_val@PAVioEffect@@V?$allocator@PAVioEffect@@@std@@@std@@@2@ABQAVioEffect@@@Z ENDP ; std::list<ioEffect *,std::allocator<ioEffect *> >::_Insert
_TEXT	ENDS
PUBLIC	?clear@?$_Tree@V?$_Tset_traits@PAVioSceneManager@@U?$less@PAVioSceneManager@@@std@@V?$allocator@PAVioSceneManager@@@3@$0A@@std@@@std@@QAEXXZ ; std::_Tree<std::_Tset_traits<ioSceneManager *,std::less<ioSceneManager *>,std::allocator<ioSceneManager *>,0> >::clear
; Function compile flags: /Ogsp
; File c:\program files (x86)\microsoft visual studio 10.0\vc\include\xtree
;	COMDAT ?clear@?$_Tree@V?$_Tset_traits@PAVioSceneManager@@U?$less@PAVioSceneManager@@@std@@V?$allocator@PAVioSceneManager@@@3@$0A@@std@@@std@@QAEXXZ
_TEXT	SEGMENT
?clear@?$_Tree@V?$_Tset_traits@PAVioSceneManager@@U?$less@PAVioSceneManager@@@std@@V?$allocator@PAVioSceneManager@@@3@$0A@@std@@@std@@QAEXXZ PROC ; std::_Tree<std::_Tset_traits<ioSceneManager *,std::less<ioSceneManager *>,std::allocator<ioSceneManager *>,0> >::clear, COMDAT
; _this$ = ecx

; 1410 : 		{	// erase all

  00000	56		 push	 esi
  00001	57		 push	 edi
  00002	8b f9		 mov	 edi, ecx

; 1411 :  #if _ITERATOR_DEBUG_LEVEL == 2
; 1412 : 		this->_Orphan_ptr(*this, 0);
; 1413 :  #endif /* _ITERATOR_DEBUG_LEVEL == 2 */
; 1414 : 
; 1415 : 		_Erase(_Root());

  00004	8b 47 04	 mov	 eax, DWORD PTR [edi+4]
  00007	ff 70 04	 push	 DWORD PTR [eax+4]
  0000a	e8 00 00 00 00	 call	 ?_Erase@?$_Tree@V?$_Tset_traits@PAVioSceneManager@@U?$less@PAVioSceneManager@@@std@@V?$allocator@PAVioSceneManager@@@3@$0A@@std@@@std@@IAEXPAU_Node@?$_Tree_nod@V?$_Tset_traits@PAVioSceneManager@@U?$less@PAVioSceneManager@@@std@@V?$allocator@PAVioSceneManager@@@3@$0A@@std@@@2@@Z ; std::_Tree<std::_Tset_traits<ioSceneManager *,std::less<ioSceneManager *>,std::allocator<ioSceneManager *>,0> >::_Erase

; 1416 : 		_Root() = this->_Myhead;

  0000f	8b 47 04	 mov	 eax, DWORD PTR [edi+4]
  00012	89 40 04	 mov	 DWORD PTR [eax+4], eax

; 1417 : 		_Lmost() = this->_Myhead;

  00015	8b 47 04	 mov	 eax, DWORD PTR [edi+4]
  00018	89 00		 mov	 DWORD PTR [eax], eax

; 1418 : 		_Rmost() = this->_Myhead;

  0001a	8b 77 04	 mov	 esi, DWORD PTR [edi+4]
  0001d	89 76 08	 mov	 DWORD PTR [esi+8], esi

; 1419 : 		this->_Mysize = 0;

  00020	83 67 08 00	 and	 DWORD PTR [edi+8], 0
  00024	5f		 pop	 edi
  00025	5e		 pop	 esi

; 1420 : 		}

  00026	c3		 ret	 0
?clear@?$_Tree@V?$_Tset_traits@PAVioSceneManager@@U?$less@PAVioSceneManager@@@std@@V?$allocator@PAVioSceneManager@@@3@$0A@@std@@@std@@QAEXXZ ENDP ; std::_Tree<std::_Tset_traits<ioSceneManager *,std::less<ioSceneManager *>,std::allocator<ioSceneManager *>,0> >::clear
_TEXT	ENDS
PUBLIC	??$insert@AAPAVioSceneManager@@@?$_Tree@V?$_Tset_traits@PAVioSceneManager@@U?$less@PAVioSceneManager@@@std@@V?$allocator@PAVioSceneManager@@@3@$0A@@std@@@std@@QAE?AU?$pair@V?$_Tree_const_iterator@V?$_Tree_val@V?$_Tset_traits@PAVioSceneManager@@U?$less@PAVioSceneManager@@@std@@V?$allocator@PAVioSceneManager@@@3@$0A@@std@@@std@@@std@@_N@1@AAPAVioSceneManager@@@Z ; std::_Tree<std::_Tset_traits<ioSceneManager *,std::less<ioSceneManager *>,std::allocator<ioSceneManager *>,0> >::insert<ioSceneManager * &>
; Function compile flags: /Ogsp
;	COMDAT ??$insert@AAPAVioSceneManager@@@?$_Tree@V?$_Tset_traits@PAVioSceneManager@@U?$less@PAVioSceneManager@@@std@@V?$allocator@PAVioSceneManager@@@3@$0A@@std@@@std@@QAE?AU?$pair@V?$_Tree_const_iterator@V?$_Tree_val@V?$_Tset_traits@PAVioSceneManager@@U?$less@PAVioSceneManager@@@std@@V?$allocator@PAVioSceneManager@@@3@$0A@@std@@@std@@@std@@_N@1@AAPAVioSceneManager@@@Z
_TEXT	SEGMENT
___$ReturnUdt$ = 8					; size = 4
__Val$ = 12						; size = 4
??$insert@AAPAVioSceneManager@@@?$_Tree@V?$_Tset_traits@PAVioSceneManager@@U?$less@PAVioSceneManager@@@std@@V?$allocator@PAVioSceneManager@@@3@$0A@@std@@@std@@QAE?AU?$pair@V?$_Tree_const_iterator@V?$_Tree_val@V?$_Tset_traits@PAVioSceneManager@@U?$less@PAVioSceneManager@@@std@@V?$allocator@PAVioSceneManager@@@3@$0A@@std@@@std@@@std@@_N@1@AAPAVioSceneManager@@@Z PROC ; std::_Tree<std::_Tset_traits<ioSceneManager *,std::less<ioSceneManager *>,std::allocator<ioSceneManager *>,0> >::insert<ioSceneManager * &>, COMDAT
; _this$ = ecx

; 753  : 		_Pairib insert(_Valty&& _Val)

  00000	55		 push	 ebp
  00001	8b ec		 mov	 ebp, esp
  00003	56		 push	 esi

; 754  : 		{	// try to insert node with value _Val, favoring right side
; 755  : 		return (_Linsert(this->_Buynode(_STD forward<_Valty>(_Val)),
; 756  : 			false));

  00004	6a 00		 push	 0
  00006	ff 75 0c	 push	 DWORD PTR __Val$[ebp]
  00009	8b f1		 mov	 esi, ecx
  0000b	e8 00 00 00 00	 call	 ??$_Buynode@AAPAVioSceneManager@@@?$_Tree_val@V?$_Tset_traits@PAVioSceneManager@@U?$less@PAVioSceneManager@@@std@@V?$allocator@PAVioSceneManager@@@3@$0A@@std@@@std@@QAEPAU_Node@?$_Tree_nod@V?$_Tset_traits@PAVioSceneManager@@U?$less@PAVioSceneManager@@@std@@V?$allocator@PAVioSceneManager@@@3@$0A@@std@@@1@AAPAVioSceneManager@@@Z ; std::_Tree_val<std::_Tset_traits<ioSceneManager *,std::less<ioSceneManager *>,std::allocator<ioSceneManager *>,0> >::_Buynode<ioSceneManager * &>
  00010	50		 push	 eax
  00011	ff 75 08	 push	 DWORD PTR ___$ReturnUdt$[ebp]
  00014	8b ce		 mov	 ecx, esi
  00016	e8 00 00 00 00	 call	 ?_Linsert@?$_Tree@V?$_Tset_traits@PAVioSceneManager@@U?$less@PAVioSceneManager@@@std@@V?$allocator@PAVioSceneManager@@@3@$0A@@std@@@std@@QAE?AU?$pair@V?$_Tree_const_iterator@V?$_Tree_val@V?$_Tset_traits@PAVioSceneManager@@U?$less@PAVioSceneManager@@@std@@V?$allocator@PAVioSceneManager@@@3@$0A@@std@@@std@@@std@@_N@2@PAU_Node@?$_Tree_nod@V?$_Tset_traits@PAVioSceneManager@@U?$less@PAVioSceneManager@@@std@@V?$allocator@PAVioSceneManager@@@3@$0A@@std@@@2@_N@Z ; std::_Tree<std::_Tset_traits<ioSceneManager *,std::less<ioSceneManager *>,std::allocator<ioSceneManager *>,0> >::_Linsert
  0001b	8b 45 08	 mov	 eax, DWORD PTR ___$ReturnUdt$[ebp]
  0001e	5e		 pop	 esi

; 757  : 		}

  0001f	5d		 pop	 ebp
  00020	c2 08 00	 ret	 8
??$insert@AAPAVioSceneManager@@@?$_Tree@V?$_Tset_traits@PAVioSceneManager@@U?$less@PAVioSceneManager@@@std@@V?$allocator@PAVioSceneManager@@@3@$0A@@std@@@std@@QAE?AU?$pair@V?$_Tree_const_iterator@V?$_Tree_val@V?$_Tset_traits@PAVioSceneManager@@U?$less@PAVioSceneManager@@@std@@V?$allocator@PAVioSceneManager@@@3@$0A@@std@@@std@@@std@@_N@1@AAPAVioSceneManager@@@Z ENDP ; std::_Tree<std::_Tset_traits<ioSceneManager *,std::less<ioSceneManager *>,std::allocator<ioSceneManager *>,0> >::insert<ioSceneManager * &>
_TEXT	ENDS
PUBLIC	??$_Uninit_move@PAVioHashString@@PAV1@V?$allocator@VioHashString@@@std@@V1@@std@@YAPAVioHashString@@PAV1@00AAV?$allocator@VioHashString@@@0@0U_Nonscalar_ptr_iterator_tag@0@@Z ; std::_Uninit_move<ioHashString *,ioHashString *,std::allocator<ioHashString>,ioHashString>
EXTRN	__EH_prolog3_catch:PROC
;	COMDAT xdata$x
; File c:\program files (x86)\microsoft visual studio 10.0\vc\include\vector
xdata$x	SEGMENT
__catchsym$??$_Uninit_move@PAVioHashString@@PAV1@V?$allocator@VioHashString@@@std@@V1@@std@@YAPAVioHashString@@PAV1@00AAV?$allocator@VioHashString@@@0@0U_Nonscalar_ptr_iterator_tag@0@@Z$2 DD 040H
	DD	00H
	DD	00H
	DD	FLAT:__catch$??$_Uninit_move@PAVioHashString@@PAV1@V?$allocator@VioHashString@@@std@@V1@@std@@YAPAVioHashString@@PAV1@00AAV?$allocator@VioHashString@@@0@0U_Nonscalar_ptr_iterator_tag@0@@Z$0
__unwindtable$??$_Uninit_move@PAVioHashString@@PAV1@V?$allocator@VioHashString@@@std@@V1@@std@@YAPAVioHashString@@PAV1@00AAV?$allocator@VioHashString@@@0@0U_Nonscalar_ptr_iterator_tag@0@@Z DD 0ffffffffH
	DD	00H
	DD	0ffffffffH
	DD	00H
__tryblocktable$??$_Uninit_move@PAVioHashString@@PAV1@V?$allocator@VioHashString@@@std@@V1@@std@@YAPAVioHashString@@PAV1@00AAV?$allocator@VioHashString@@@0@0U_Nonscalar_ptr_iterator_tag@0@@Z DD 00H
	DD	00H
	DD	01H
	DD	01H
	DD	FLAT:__catchsym$??$_Uninit_move@PAVioHashString@@PAV1@V?$allocator@VioHashString@@@std@@V1@@std@@YAPAVioHashString@@PAV1@00AAV?$allocator@VioHashString@@@0@0U_Nonscalar_ptr_iterator_tag@0@@Z$2
__ehfuncinfo$??$_Uninit_move@PAVioHashString@@PAV1@V?$allocator@VioHashString@@@std@@V1@@std@@YAPAVioHashString@@PAV1@00AAV?$allocator@VioHashString@@@0@0U_Nonscalar_ptr_iterator_tag@0@@Z DD 019930522H
	DD	02H
	DD	FLAT:__unwindtable$??$_Uninit_move@PAVioHashString@@PAV1@V?$allocator@VioHashString@@@std@@V1@@std@@YAPAVioHashString@@PAV1@00AAV?$allocator@VioHashString@@@0@0U_Nonscalar_ptr_iterator_tag@0@@Z
	DD	01H
	DD	FLAT:__tryblocktable$??$_Uninit_move@PAVioHashString@@PAV1@V?$allocator@VioHashString@@@std@@V1@@std@@YAPAVioHashString@@PAV1@00AAV?$allocator@VioHashString@@@0@0U_Nonscalar_ptr_iterator_tag@0@@Z
	DD	2 DUP(00H)
	DD	00H
	DD	01H
; Function compile flags: /Ogsp
; File c:\program files (x86)\microsoft visual studio 10.0\vc\include\memory
xdata$x	ENDS
;	COMDAT ??$_Uninit_move@PAVioHashString@@PAV1@V?$allocator@VioHashString@@@std@@V1@@std@@YAPAVioHashString@@PAV1@00AAV?$allocator@VioHashString@@@0@0U_Nonscalar_ptr_iterator_tag@0@@Z
_TEXT	SEGMENT
__Next$ = -20						; size = 4
__$EHRec$ = -16						; size = 16
__First$ = 8						; size = 4
__Last$ = 12						; size = 4
__Dest$ = 16						; size = 4
__Al$ = 20						; size = 4
___formal$ = 24						; size = 4
___formal$ = 28						; size = 1
??$_Uninit_move@PAVioHashString@@PAV1@V?$allocator@VioHashString@@@std@@V1@@std@@YAPAVioHashString@@PAV1@00AAV?$allocator@VioHashString@@@0@0U_Nonscalar_ptr_iterator_tag@0@@Z PROC ; std::_Uninit_move<ioHashString *,ioHashString *,std::allocator<ioHashString>,ioHashString>, COMDAT

; 424  : 	{	// move [_First, _Last) to raw _Dest, using _Al, arbitrary type

  00000	6a 08		 push	 8
  00002	b8 00 00 00 00	 mov	 eax, __ehhandler$??$_Uninit_move@PAVioHashString@@PAV1@V?$allocator@VioHashString@@@std@@V1@@std@@YAPAVioHashString@@PAV1@00AAV?$allocator@VioHashString@@@0@0U_Nonscalar_ptr_iterator_tag@0@@Z
  00007	e8 00 00 00 00	 call	 __EH_prolog3_catch

; 425  : 	_DEBUG_RANGE(_First, _Last);
; 426  : 	_DEBUG_POINTER(_Dest);
; 427  : 	_FwdIt _Next = _Dest;

  0000c	8b 45 10	 mov	 eax, DWORD PTR __Dest$[ebp]

; 428  : 
; 429  : 	_TRY_BEGIN

  0000f	83 65 fc 00	 and	 DWORD PTR __$EHRec$[ebp+12], 0
  00013	8b 75 08	 mov	 esi, DWORD PTR __First$[ebp]
  00016	89 45 ec	 mov	 DWORD PTR __Next$[ebp], eax
$LL6@Uninit_mov:

; 430  : 	for (; _First != _Last; ++_Dest, ++_First)

  00019	3b 75 0c	 cmp	 esi, DWORD PTR __Last$[ebp]
  0001c	74 33		 je	 SHORT $LN4@Uninit_mov

; 431  : 		_Cons_val(_Al, _Dest, (_Valty &&)*_First);

  0001e	8b 4d 14	 mov	 ecx, DWORD PTR __Al$[ebp]
  00021	56		 push	 esi
  00022	ff 75 10	 push	 DWORD PTR __Dest$[ebp]
  00025	e8 00 00 00 00	 call	 ?construct@?$allocator@VioHashString@@@std@@QAEXPAVioHashString@@$$QAV3@@Z ; std::allocator<ioHashString>::construct
  0002a	83 45 10 10	 add	 DWORD PTR __Dest$[ebp], 16 ; 00000010H
  0002e	83 c6 10	 add	 esi, 16			; 00000010H
  00031	eb e6		 jmp	 SHORT $LL6@Uninit_mov
__catch$??$_Uninit_move@PAVioHashString@@PAV1@V?$allocator@VioHashString@@@std@@V1@@std@@YAPAVioHashString@@PAV1@00AAV?$allocator@VioHashString@@@0@0U_Nonscalar_ptr_iterator_tag@0@@Z$0:

; 432  : 	_CATCH_ALL
; 433  : 	for (; _Next != _Dest; ++_Next)

  00033	8b 75 ec	 mov	 esi, DWORD PTR __Next$[ebp]
  00036	eb 0b		 jmp	 SHORT $LN33@Uninit_mov
$LL3@Uninit_mov:

; 434  : 		_Dest_val(_Al, _Next);

  00038	8b ce		 mov	 ecx, esi
  0003a	ff 15 00 00 00
	00		 call	 DWORD PTR __imp_??1ioHashString@@QAE@XZ
  00040	83 c6 10	 add	 esi, 16			; 00000010H
$LN33@Uninit_mov:

; 432  : 	_CATCH_ALL
; 433  : 	for (; _Next != _Dest; ++_Next)

  00043	3b 75 10	 cmp	 esi, DWORD PTR __Dest$[ebp]
  00046	75 f0		 jne	 SHORT $LL3@Uninit_mov

; 435  : 	_RERAISE;

  00048	6a 00		 push	 0
  0004a	6a 00		 push	 0
  0004c	e8 00 00 00 00	 call	 __CxxThrowException@8
$LN34@Uninit_mov:
$LN4@Uninit_mov:

; 436  : 	_CATCH_END
; 437  : 	return (_Dest);

  00051	8b 45 10	 mov	 eax, DWORD PTR __Dest$[ebp]

; 438  : 	}

  00054	e8 00 00 00 00	 call	 __EH_epilog3
  00059	c3		 ret	 0
$LN32@Uninit_mov:
_TEXT	ENDS
;	COMDAT text$x
text$x	SEGMENT
__ehhandler$??$_Uninit_move@PAVioHashString@@PAV1@V?$allocator@VioHashString@@@std@@V1@@std@@YAPAVioHashString@@PAV1@00AAV?$allocator@VioHashString@@@0@0U_Nonscalar_ptr_iterator_tag@0@@Z:
  00000	8b 54 24 08	 mov	 edx, DWORD PTR [esp+8]
  00004	8d 42 0c	 lea	 eax, DWORD PTR [edx+12]
  00007	8b 4a e8	 mov	 ecx, DWORD PTR [edx-24]
  0000a	33 c8		 xor	 ecx, eax
  0000c	e8 00 00 00 00	 call	 @__security_check_cookie@4
  00011	b8 00 00 00 00	 mov	 eax, OFFSET __ehfuncinfo$??$_Uninit_move@PAVioHashString@@PAV1@V?$allocator@VioHashString@@@std@@V1@@std@@YAPAVioHashString@@PAV1@00AAV?$allocator@VioHashString@@@0@0U_Nonscalar_ptr_iterator_tag@0@@Z
  00016	e9 00 00 00 00	 jmp	 ___CxxFrameHandler3
text$x	ENDS
??$_Uninit_move@PAVioHashString@@PAV1@V?$allocator@VioHashString@@@std@@V1@@std@@YAPAVioHashString@@PAV1@00AAV?$allocator@VioHashString@@@0@0U_Nonscalar_ptr_iterator_tag@0@@Z ENDP ; std::_Uninit_move<ioHashString *,ioHashString *,std::allocator<ioHashString>,ioHashString>
PUBLIC	??$_Destroy_range@V?$allocator@VioHashString@@@std@@@std@@YAXPAVioHashString@@0AAV?$allocator@VioHashString@@@0@U_Nonscalar_ptr_iterator_tag@0@@Z ; std::_Destroy_range<std::allocator<ioHashString> >
; Function compile flags: /Ogsp
; File c:\program files (x86)\microsoft visual studio 10.0\vc\include\xmemory
;	COMDAT ??$_Destroy_range@V?$allocator@VioHashString@@@std@@@std@@YAXPAVioHashString@@0AAV?$allocator@VioHashString@@@0@U_Nonscalar_ptr_iterator_tag@0@@Z
_TEXT	SEGMENT
__First$ = 8						; size = 4
__Last$ = 12						; size = 4
__Al$ = 16						; size = 4
___formal$ = 20						; size = 1
??$_Destroy_range@V?$allocator@VioHashString@@@std@@@std@@YAXPAVioHashString@@0AAV?$allocator@VioHashString@@@0@U_Nonscalar_ptr_iterator_tag@0@@Z PROC ; std::_Destroy_range<std::allocator<ioHashString> >, COMDAT

; 95   : 	{	// destroy [_First, _Last), arbitrary type

  00000	55		 push	 ebp
  00001	8b ec		 mov	 ebp, esp
  00003	56		 push	 esi

; 96   : 	for (; _First != _Last; ++_First)

  00004	8b 75 08	 mov	 esi, DWORD PTR __First$[ebp]
  00007	eb 0b		 jmp	 SHORT $LN17@Destroy_ra
$LL3@Destroy_ra:

; 97   : 		_Dest_val(_Al, _First);

  00009	8b ce		 mov	 ecx, esi
  0000b	ff 15 00 00 00
	00		 call	 DWORD PTR __imp_??1ioHashString@@QAE@XZ
  00011	83 c6 10	 add	 esi, 16			; 00000010H
$LN17@Destroy_ra:

; 96   : 	for (; _First != _Last; ++_First)

  00014	3b 75 0c	 cmp	 esi, DWORD PTR __Last$[ebp]
  00017	75 f0		 jne	 SHORT $LL3@Destroy_ra
  00019	5e		 pop	 esi

; 98   : 	}

  0001a	5d		 pop	 ebp
  0001b	c3		 ret	 0
??$_Destroy_range@V?$allocator@VioHashString@@@std@@@std@@YAXPAVioHashString@@0AAV?$allocator@VioHashString@@@0@U_Nonscalar_ptr_iterator_tag@0@@Z ENDP ; std::_Destroy_range<std::allocator<ioHashString> >
_TEXT	ENDS
PUBLIC	?AddSceneMgr@ioUI3DRender@@KAXPAVioSceneManager@@@Z ; ioUI3DRender::AddSceneMgr
; Function compile flags: /Ogsp
; File d:\lost saga for developer\youtube\tutorial\source\src\lsclient\gui\ioui3drender.cpp
;	COMDAT ?AddSceneMgr@ioUI3DRender@@KAXPAVioSceneManager@@@Z
_TEXT	SEGMENT
$T515522 = -8						; size = 8
_pSceneMgr$ = 8						; size = 4
?AddSceneMgr@ioUI3DRender@@KAXPAVioSceneManager@@@Z PROC ; ioUI3DRender::AddSceneMgr, COMDAT

; 229  : {

  00000	55		 push	 ebp
  00001	8b ec		 mov	 ebp, esp
  00003	51		 push	 ecx
  00004	51		 push	 ecx
  00005	56		 push	 esi

; 230  : 	m_CreatedSceneMgrList.insert( pSceneMgr );

  00006	6a 00		 push	 0
  00008	8d 45 08	 lea	 eax, DWORD PTR _pSceneMgr$[ebp]
  0000b	be 00 00 00 00	 mov	 esi, OFFSET ?m_CreatedSceneMgrList@ioUI3DRender@@1V?$set@PAVioSceneManager@@U?$less@PAVioSceneManager@@@std@@V?$allocator@PAVioSceneManager@@@3@@std@@A ; ioUI3DRender::m_CreatedSceneMgrList
  00010	50		 push	 eax
  00011	8b ce		 mov	 ecx, esi
  00013	e8 00 00 00 00	 call	 ??$_Buynode@AAPAVioSceneManager@@@?$_Tree_val@V?$_Tset_traits@PAVioSceneManager@@U?$less@PAVioSceneManager@@@std@@V?$allocator@PAVioSceneManager@@@3@$0A@@std@@@std@@QAEPAU_Node@?$_Tree_nod@V?$_Tset_traits@PAVioSceneManager@@U?$less@PAVioSceneManager@@@std@@V?$allocator@PAVioSceneManager@@@3@$0A@@std@@@1@AAPAVioSceneManager@@@Z ; std::_Tree_val<std::_Tset_traits<ioSceneManager *,std::less<ioSceneManager *>,std::allocator<ioSceneManager *>,0> >::_Buynode<ioSceneManager * &>
  00018	50		 push	 eax
  00019	8d 45 f8	 lea	 eax, DWORD PTR $T515522[ebp]
  0001c	50		 push	 eax
  0001d	8b ce		 mov	 ecx, esi
  0001f	e8 00 00 00 00	 call	 ?_Linsert@?$_Tree@V?$_Tset_traits@PAVioSceneManager@@U?$less@PAVioSceneManager@@@std@@V?$allocator@PAVioSceneManager@@@3@$0A@@std@@@std@@QAE?AU?$pair@V?$_Tree_const_iterator@V?$_Tree_val@V?$_Tset_traits@PAVioSceneManager@@U?$less@PAVioSceneManager@@@std@@V?$allocator@PAVioSceneManager@@@3@$0A@@std@@@std@@@std@@_N@2@PAU_Node@?$_Tree_nod@V?$_Tset_traits@PAVioSceneManager@@U?$less@PAVioSceneManager@@@std@@V?$allocator@PAVioSceneManager@@@3@$0A@@std@@@2@_N@Z ; std::_Tree<std::_Tset_traits<ioSceneManager *,std::less<ioSceneManager *>,std::allocator<ioSceneManager *>,0> >::_Linsert
  00024	5e		 pop	 esi

; 231  : }

  00025	c9		 leave
  00026	c3		 ret	 0
?AddSceneMgr@ioUI3DRender@@KAXPAVioSceneManager@@@Z ENDP ; ioUI3DRender::AddSceneMgr
_TEXT	ENDS
PUBLIC	?UpdateEffectList@ioUI3DRender@@QAEXXZ		; ioUI3DRender::UpdateEffectList
EXTRN	__imp_?IsLive@ioEffect@@QBE_NXZ:PROC
EXTRN	__imp_?GetCurFrameGap@ioFrameTimer@@QBEMXZ:PROC
EXTRN	__imp_?GetSingleton@ioFrameTimer@@SAAAV1@XZ:PROC
; Function compile flags: /Ogsp
;	COMDAT ?UpdateEffectList@ioUI3DRender@@QAEXXZ
_TEXT	SEGMENT
$T515535 = -12						; size = 4
_fTimeGap$ = -4						; size = 4
?UpdateEffectList@ioUI3DRender@@QAEXXZ PROC		; ioUI3DRender::UpdateEffectList, COMDAT
; _this$ = ecx

; 567  : {

  00000	55		 push	 ebp
  00001	8b ec		 mov	 ebp, esp
  00003	83 ec 0c	 sub	 esp, 12			; 0000000cH
  00006	57		 push	 edi
  00007	8b f9		 mov	 edi, ecx

; 568  : 	if( m_EffectList.empty() )

  00009	83 7f 40 00	 cmp	 DWORD PTR [edi+64], 0
  0000d	74 60		 je	 SHORT $LN3@UpdateEffe

; 569  : 		return;
; 570  : 
; 571  : 	float fTimeGap = g_FrameTimer.GetCurFrameGap();

  0000f	56		 push	 esi
  00010	ff 15 00 00 00
	00		 call	 DWORD PTR __imp_?GetSingleton@ioFrameTimer@@SAAAV1@XZ
  00016	8b c8		 mov	 ecx, eax
  00018	ff 15 00 00 00
	00		 call	 DWORD PTR __imp_?GetCurFrameGap@ioFrameTimer@@QBEMXZ
  0001e	d9 5d fc	 fstp	 DWORD PTR _fTimeGap$[ebp]

; 572  : 
; 573  : 	EffectList::iterator iter = m_EffectList.begin();

  00021	8b 47 3c	 mov	 eax, DWORD PTR [edi+60]
  00024	8b 30		 mov	 esi, DWORD PTR [eax]

; 574  : 	while( iter != m_EffectList.end() )

  00026	3b f0		 cmp	 esi, eax
  00028	74 44		 je	 SHORT $LN49@UpdateEffe
  0002a	53		 push	 ebx
$LL4@UpdateEffe:

; 575  : 	{
; 576  : 		ioEffect *pEffect = *iter;

  0002b	8b 5e 08	 mov	 ebx, DWORD PTR [esi+8]

; 577  : 
; 578  : 		if( pEffect->IsLive() )

  0002e	8b cb		 mov	 ecx, ebx
  00030	ff 15 00 00 00
	00		 call	 DWORD PTR __imp_?IsLive@ioEffect@@QBE_NXZ
  00036	84 c0		 test	 al, al
  00038	74 17		 je	 SHORT $LN2@UpdateEffe

; 579  : 		{
; 580  : 			pEffect->Update( fTimeGap );

  0003a	f3 0f 10 45 fc	 movss	 xmm0, DWORD PTR _fTimeGap$[ebp]
  0003f	8d 4b 14	 lea	 ecx, DWORD PTR [ebx+20]
  00042	8b 01		 mov	 eax, DWORD PTR [ecx]
  00044	51		 push	 ecx
  00045	f3 0f 11 04 24	 movss	 DWORD PTR [esp], xmm0
  0004a	ff 50 40	 call	 DWORD PTR [eax+64]

; 581  : 			++iter;

  0004d	8b 36		 mov	 esi, DWORD PTR [esi]

; 582  : 		}
; 583  : 		else

  0004f	eb 17		 jmp	 SHORT $LN1@UpdateEffe
$LN2@UpdateEffe:

; 584  : 		{
; 585  : 			iter = m_EffectList.erase( iter );

  00051	56		 push	 esi
  00052	8d 45 f4	 lea	 eax, DWORD PTR $T515535[ebp]
  00055	50		 push	 eax
  00056	8d 4f 3c	 lea	 ecx, DWORD PTR [edi+60]
  00059	e8 00 00 00 00	 call	 ?erase@?$list@PAVioEffect@@V?$allocator@PAVioEffect@@@std@@@std@@QAE?AV?$_List_iterator@V?$_List_val@PAVioEffect@@V?$allocator@PAVioEffect@@@std@@@std@@@2@V?$_List_const_iterator@V?$_List_val@PAVioEffect@@V?$allocator@PAVioEffect@@@std@@@std@@@2@@Z ; std::list<ioEffect *,std::allocator<ioEffect *> >::erase
  0005e	8b 30		 mov	 esi, DWORD PTR [eax]

; 586  : 			DestroyEffect( pEffect );

  00060	53		 push	 ebx
  00061	8b cf		 mov	 ecx, edi
  00063	e8 00 00 00 00	 call	 ?DestroyEffect@ioUI3DRender@@IAEXPAVioEffect@@@Z ; ioUI3DRender::DestroyEffect
$LN1@UpdateEffe:

; 574  : 	while( iter != m_EffectList.end() )

  00068	3b 77 3c	 cmp	 esi, DWORD PTR [edi+60]
  0006b	75 be		 jne	 SHORT $LL4@UpdateEffe
  0006d	5b		 pop	 ebx
$LN49@UpdateEffe:
  0006e	5e		 pop	 esi
$LN3@UpdateEffe:
  0006f	5f		 pop	 edi

; 587  : 		}
; 588  : 	}
; 589  : }

  00070	c9		 leave
  00071	c3		 ret	 0
?UpdateEffectList@ioUI3DRender@@QAEXXZ ENDP		; ioUI3DRender::UpdateEffectList
_TEXT	ENDS
PUBLIC	?push_back@?$list@PAVioEffect@@V?$allocator@PAVioEffect@@@std@@@std@@QAEXABQAVioEffect@@@Z ; std::list<ioEffect *,std::allocator<ioEffect *> >::push_back
; Function compile flags: /Ogsp
; File c:\program files (x86)\microsoft visual studio 10.0\vc\include\list
;	COMDAT ?push_back@?$list@PAVioEffect@@V?$allocator@PAVioEffect@@@std@@@std@@QAEXABQAVioEffect@@@Z
_TEXT	SEGMENT
__Val$ = 8						; size = 4
?push_back@?$list@PAVioEffect@@V?$allocator@PAVioEffect@@@std@@@std@@QAEXABQAVioEffect@@@Z PROC ; std::list<ioEffect *,std::allocator<ioEffect *> >::push_back, COMDAT
; _this$ = ecx

; 926  : 		{	// insert element at end

  00000	55		 push	 ebp
  00001	8b ec		 mov	 ebp, esp

; 927  : 		_Insert(end(), _Val);

  00003	ff 75 08	 push	 DWORD PTR __Val$[ebp]
  00006	8b 01		 mov	 eax, DWORD PTR [ecx]
  00008	50		 push	 eax
  00009	e8 00 00 00 00	 call	 ?_Insert@?$list@PAVioEffect@@V?$allocator@PAVioEffect@@@std@@@std@@QAEXV?$_List_const_iterator@V?$_List_val@PAVioEffect@@V?$allocator@PAVioEffect@@@std@@@std@@@2@ABQAVioEffect@@@Z ; std::list<ioEffect *,std::allocator<ioEffect *> >::_Insert

; 928  : 		}

  0000e	5d		 pop	 ebp
  0000f	c2 04 00	 ret	 4
?push_back@?$list@PAVioEffect@@V?$allocator@PAVioEffect@@@std@@@std@@QAEXABQAVioEffect@@@Z ENDP ; std::list<ioEffect *,std::allocator<ioEffect *> >::push_back
_TEXT	ENDS
PUBLIC	?erase@?$_Tree@V?$_Tset_traits@PAVioSceneManager@@U?$less@PAVioSceneManager@@@std@@V?$allocator@PAVioSceneManager@@@3@$0A@@std@@@std@@QAE?AV?$_Tree_const_iterator@V?$_Tree_val@V?$_Tset_traits@PAVioSceneManager@@U?$less@PAVioSceneManager@@@std@@V?$allocator@PAVioSceneManager@@@3@$0A@@std@@@std@@@2@V32@0@Z ; std::_Tree<std::_Tset_traits<ioSceneManager *,std::less<ioSceneManager *>,std::allocator<ioSceneManager *>,0> >::erase
; Function compile flags: /Ogsp
; File c:\program files (x86)\microsoft visual studio 10.0\vc\include\xtree
;	COMDAT ?erase@?$_Tree@V?$_Tset_traits@PAVioSceneManager@@U?$less@PAVioSceneManager@@@std@@V?$allocator@PAVioSceneManager@@@3@$0A@@std@@@std@@QAE?AV?$_Tree_const_iterator@V?$_Tree_val@V?$_Tset_traits@PAVioSceneManager@@U?$less@PAVioSceneManager@@@std@@V?$allocator@PAVioSceneManager@@@3@$0A@@std@@@std@@@2@V32@0@Z
_TEXT	SEGMENT
$T515703 = -4						; size = 4
___$ReturnUdt$ = 8					; size = 4
__First$ = 12						; size = 4
__Last$ = 16						; size = 4
?erase@?$_Tree@V?$_Tset_traits@PAVioSceneManager@@U?$less@PAVioSceneManager@@@std@@V?$allocator@PAVioSceneManager@@@3@$0A@@std@@@std@@QAE?AV?$_Tree_const_iterator@V?$_Tree_val@V?$_Tset_traits@PAVioSceneManager@@U?$less@PAVioSceneManager@@@std@@V?$allocator@PAVioSceneManager@@@3@$0A@@std@@@std@@@2@V32@0@Z PROC ; std::_Tree<std::_Tset_traits<ioSceneManager *,std::less<ioSceneManager *>,std::allocator<ioSceneManager *>,0> >::erase, COMDAT
; _this$ = ecx

; 1379 : 		{	// erase [_First, _Last)

  00000	55		 push	 ebp
  00001	8b ec		 mov	 ebp, esp
  00003	51		 push	 ecx
  00004	56		 push	 esi
  00005	8b f1		 mov	 esi, ecx

; 1380 : 		if (_First == begin() && _Last == end())

  00007	8b 46 04	 mov	 eax, DWORD PTR [esi+4]
  0000a	8b 4d 0c	 mov	 ecx, DWORD PTR __First$[ebp]
  0000d	3b 08		 cmp	 ecx, DWORD PTR [eax]
  0000f	75 13		 jne	 SHORT $LN57@erase@3
  00011	39 45 10	 cmp	 DWORD PTR __Last$[ebp], eax
  00014	75 0e		 jne	 SHORT $LN57@erase@3

; 1381 : 			{	// erase all
; 1382 : 			clear();

  00016	8b ce		 mov	 ecx, esi
  00018	e8 00 00 00 00	 call	 ?clear@?$_Tree@V?$_Tset_traits@PAVioSceneManager@@U?$less@PAVioSceneManager@@@std@@V?$allocator@PAVioSceneManager@@@3@$0A@@std@@@std@@QAEXXZ ; std::_Tree<std::_Tset_traits<ioSceneManager *,std::less<ioSceneManager *>,std::allocator<ioSceneManager *>,0> >::clear

; 1383 : 			return (begin());

  0001d	8b 46 04	 mov	 eax, DWORD PTR [esi+4]
  00020	8b 08		 mov	 ecx, DWORD PTR [eax]
  00022	eb 25		 jmp	 SHORT $LN1@erase@3
$LN57@erase@3:

; 1384 : 			}
; 1385 : 		else
; 1386 : 			{	// partial erase, one at a time
; 1387 : 			while (_First != _Last)

  00024	3b 4d 10	 cmp	 ecx, DWORD PTR __Last$[ebp]
  00027	74 20		 je	 SHORT $LN1@erase@3
  00029	57		 push	 edi
$LL2@erase@3:

; 1388 : 				erase(_First++);

  0002a	8b f9		 mov	 edi, ecx
  0002c	8d 4d 0c	 lea	 ecx, DWORD PTR __First$[ebp]
  0002f	e8 00 00 00 00	 call	 ??E?$_Tree_unchecked_const_iterator@V?$_Tree_val@V?$_Tset_traits@PAVioSceneManager@@U?$less@PAVioSceneManager@@@std@@V?$allocator@PAVioSceneManager@@@3@$0A@@std@@@std@@U_Iterator_base0@2@@std@@QAEAAV01@XZ ; std::_Tree_unchecked_const_iterator<std::_Tree_val<std::_Tset_traits<ioSceneManager *,std::less<ioSceneManager *>,std::allocator<ioSceneManager *>,0> >,std::_Iterator_base0>::operator++
  00034	57		 push	 edi
  00035	8d 45 fc	 lea	 eax, DWORD PTR $T515703[ebp]
  00038	50		 push	 eax
  00039	8b ce		 mov	 ecx, esi
  0003b	e8 00 00 00 00	 call	 ?erase@?$_Tree@V?$_Tset_traits@PAVioSceneManager@@U?$less@PAVioSceneManager@@@std@@V?$allocator@PAVioSceneManager@@@3@$0A@@std@@@std@@QAE?AV?$_Tree_const_iterator@V?$_Tree_val@V?$_Tset_traits@PAVioSceneManager@@U?$less@PAVioSceneManager@@@std@@V?$allocator@PAVioSceneManager@@@3@$0A@@std@@@std@@@2@V32@@Z ; std::_Tree<std::_Tset_traits<ioSceneManager *,std::less<ioSceneManager *>,std::allocator<ioSceneManager *>,0> >::erase
  00040	8b 4d 0c	 mov	 ecx, DWORD PTR __First$[ebp]
  00043	3b 4d 10	 cmp	 ecx, DWORD PTR __Last$[ebp]
  00046	75 e2		 jne	 SHORT $LL2@erase@3
  00048	5f		 pop	 edi
$LN1@erase@3:

; 1389 : 			return (iterator(_First._Ptr, this));

  00049	8b 45 08	 mov	 eax, DWORD PTR ___$ReturnUdt$[ebp]
  0004c	89 08		 mov	 DWORD PTR [eax], ecx
  0004e	5e		 pop	 esi

; 1390 : 			}
; 1391 : 		}

  0004f	c9		 leave
  00050	c2 0c 00	 ret	 12			; 0000000cH
?erase@?$_Tree@V?$_Tset_traits@PAVioSceneManager@@U?$less@PAVioSceneManager@@@std@@V?$allocator@PAVioSceneManager@@@3@$0A@@std@@@std@@QAE?AV?$_Tree_const_iterator@V?$_Tree_val@V?$_Tset_traits@PAVioSceneManager@@U?$less@PAVioSceneManager@@@std@@V?$allocator@PAVioSceneManager@@@3@$0A@@std@@@std@@@2@V32@0@Z ENDP ; std::_Tree<std::_Tset_traits<ioSceneManager *,std::less<ioSceneManager *>,std::allocator<ioSceneManager *>,0> >::erase
_TEXT	ENDS
PUBLIC	?_Tidy@?$_Tree@V?$_Tset_traits@PAVioSceneManager@@U?$less@PAVioSceneManager@@@std@@V?$allocator@PAVioSceneManager@@@3@$0A@@std@@@std@@IAEXXZ ; std::_Tree<std::_Tset_traits<ioSceneManager *,std::less<ioSceneManager *>,std::allocator<ioSceneManager *>,0> >::_Tidy
; Function compile flags: /Ogsp
;	COMDAT ?_Tidy@?$_Tree@V?$_Tset_traits@PAVioSceneManager@@U?$less@PAVioSceneManager@@@std@@V?$allocator@PAVioSceneManager@@@3@$0A@@std@@@std@@IAEXXZ
_TEXT	SEGMENT
$T515850 = -4						; size = 4
?_Tidy@?$_Tree@V?$_Tset_traits@PAVioSceneManager@@U?$less@PAVioSceneManager@@@std@@V?$allocator@PAVioSceneManager@@@3@$0A@@std@@@std@@IAEXXZ PROC ; std::_Tree<std::_Tset_traits<ioSceneManager *,std::less<ioSceneManager *>,std::allocator<ioSceneManager *>,0> >::_Tidy, COMDAT
; _this$ = ecx

; 1865 : 		{	// free all storage

  00000	55		 push	 ebp
  00001	8b ec		 mov	 ebp, esp
  00003	51		 push	 ecx

; 1866 : 		erase(begin(), end());

  00004	8b 41 04	 mov	 eax, DWORD PTR [ecx+4]
  00007	8b 10		 mov	 edx, DWORD PTR [eax]
  00009	50		 push	 eax
  0000a	52		 push	 edx
  0000b	8d 45 fc	 lea	 eax, DWORD PTR $T515850[ebp]
  0000e	50		 push	 eax
  0000f	e8 00 00 00 00	 call	 ?erase@?$_Tree@V?$_Tset_traits@PAVioSceneManager@@U?$less@PAVioSceneManager@@@std@@V?$allocator@PAVioSceneManager@@@3@$0A@@std@@@std@@QAE?AV?$_Tree_const_iterator@V?$_Tree_val@V?$_Tset_traits@PAVioSceneManager@@U?$less@PAVioSceneManager@@@std@@V?$allocator@PAVioSceneManager@@@3@$0A@@std@@@std@@@2@V32@0@Z ; std::_Tree<std::_Tset_traits<ioSceneManager *,std::less<ioSceneManager *>,std::allocator<ioSceneManager *>,0> >::erase

; 1867 : 		}

  00014	c9		 leave
  00015	c3		 ret	 0
?_Tidy@?$_Tree@V?$_Tset_traits@PAVioSceneManager@@U?$less@PAVioSceneManager@@@std@@V?$allocator@PAVioSceneManager@@@3@$0A@@std@@@std@@IAEXXZ ENDP ; std::_Tree<std::_Tset_traits<ioSceneManager *,std::less<ioSceneManager *>,std::allocator<ioSceneManager *>,0> >::_Tidy
_TEXT	ENDS
PUBLIC	??$_Uninitialized_move@PAVioHashString@@PAV1@V?$allocator@VioHashString@@@std@@@std@@YAPAVioHashString@@PAV1@00AAV?$allocator@VioHashString@@@0@@Z ; std::_Uninitialized_move<ioHashString *,ioHashString *,std::allocator<ioHashString> >
; Function compile flags: /Ogsp
; File c:\program files (x86)\microsoft visual studio 10.0\vc\include\memory
;	COMDAT ??$_Uninitialized_move@PAVioHashString@@PAV1@V?$allocator@VioHashString@@@std@@@std@@YAPAVioHashString@@PAV1@00AAV?$allocator@VioHashString@@@0@@Z
_TEXT	SEGMENT
__Cat$515919 = -4					; size = 1
__First$ = 8						; size = 4
__Last$ = 12						; size = 4
__Dest$ = 16						; size = 4
__Al$ = 20						; size = 4
??$_Uninitialized_move@PAVioHashString@@PAV1@V?$allocator@VioHashString@@@std@@@std@@YAPAVioHashString@@PAV1@00AAV?$allocator@VioHashString@@@0@@Z PROC ; std::_Uninitialized_move<ioHashString *,ioHashString *,std::allocator<ioHashString> >, COMDAT

; 469  : 	{	// move [_First, _Last) to raw _Dest, using _Al

  00000	55		 push	 ebp
  00001	8b ec		 mov	 ebp, esp
  00003	51		 push	 ecx

; 470  : 	return (_Uninit_move(_First, _Last, _Dest, _Al,
; 471  : 		_Val_type(_First), _Ptr_cat(_First, _Dest)));

  00004	ff 75 fc	 push	 DWORD PTR __Cat$515919[ebp]
  00007	6a 00		 push	 0
  00009	ff 75 14	 push	 DWORD PTR __Al$[ebp]
  0000c	ff 75 10	 push	 DWORD PTR __Dest$[ebp]
  0000f	ff 75 0c	 push	 DWORD PTR __Last$[ebp]
  00012	ff 75 08	 push	 DWORD PTR __First$[ebp]
  00015	e8 00 00 00 00	 call	 ??$_Uninit_move@PAVioHashString@@PAV1@V?$allocator@VioHashString@@@std@@V1@@std@@YAPAVioHashString@@PAV1@00AAV?$allocator@VioHashString@@@0@0U_Nonscalar_ptr_iterator_tag@0@@Z ; std::_Uninit_move<ioHashString *,ioHashString *,std::allocator<ioHashString>,ioHashString>
  0001a	83 c4 18	 add	 esp, 24			; 00000018H

; 472  : 	}

  0001d	c9		 leave
  0001e	c3		 ret	 0
??$_Uninitialized_move@PAVioHashString@@PAV1@V?$allocator@VioHashString@@@std@@@std@@YAPAVioHashString@@PAV1@00AAV?$allocator@VioHashString@@@0@@Z ENDP ; std::_Uninitialized_move<ioHashString *,ioHashString *,std::allocator<ioHashString> >
_TEXT	ENDS
PUBLIC	??$_Destroy_range@V?$allocator@VioHashString@@@std@@@std@@YAXPAVioHashString@@0AAV?$allocator@VioHashString@@@0@@Z ; std::_Destroy_range<std::allocator<ioHashString> >
; Function compile flags: /Ogsp
; File c:\program files (x86)\microsoft visual studio 10.0\vc\include\xmemory
;	COMDAT ??$_Destroy_range@V?$allocator@VioHashString@@@std@@@std@@YAXPAVioHashString@@0AAV?$allocator@VioHashString@@@0@@Z
_TEXT	SEGMENT
__First$ = 8						; size = 4
__Last$ = 12						; size = 4
__Al$ = 16						; size = 4
??$_Destroy_range@V?$allocator@VioHashString@@@std@@@std@@YAXPAVioHashString@@0AAV?$allocator@VioHashString@@@0@@Z PROC ; std::_Destroy_range<std::allocator<ioHashString> >, COMDAT

; 87   : 	{	// destroy [_First, _Last)

  00000	55		 push	 ebp
  00001	8b ec		 mov	 ebp, esp
  00003	56		 push	 esi

; 88   : 	_Destroy_range(_First, _Last, _Al, _Ptr_cat(_First, _Last));

  00004	8b 75 08	 mov	 esi, DWORD PTR __First$[ebp]
  00007	eb 0b		 jmp	 SHORT $LN21@Destroy_ra@2
$LL7@Destroy_ra@2:
  00009	8b ce		 mov	 ecx, esi
  0000b	ff 15 00 00 00
	00		 call	 DWORD PTR __imp_??1ioHashString@@QAE@XZ
  00011	83 c6 10	 add	 esi, 16			; 00000010H
$LN21@Destroy_ra@2:
  00014	3b 75 0c	 cmp	 esi, DWORD PTR __Last$[ebp]
  00017	75 f0		 jne	 SHORT $LL7@Destroy_ra@2
  00019	5e		 pop	 esi

; 89   : 	}

  0001a	5d		 pop	 ebp
  0001b	c3		 ret	 0
??$_Destroy_range@V?$allocator@VioHashString@@@std@@@std@@YAXPAVioHashString@@0AAV?$allocator@VioHashString@@@0@@Z ENDP ; std::_Destroy_range<std::allocator<ioHashString> >
_TEXT	ENDS
PUBLIC	__real@38d1b717
PUBLIC	?AddEffect@ioUI3DRender@@QAE_NABVioHashString@@ABUD3DXVECTOR3@@11@Z ; ioUI3DRender::AddEffect
EXTRN	__imp_?ChangeEffectDirection@ioEffect@@QAEXABUD3DXVECTOR3@@_N@Z:PROC
EXTRN	__imp_?IsEqual@ioMath@@SA_NABUD3DXVECTOR3@@0M@Z:PROC
EXTRN	__imp_?UNIT_Y@ioMath@@2UD3DXVECTOR3@@A:BYTE
EXTRN	__imp_?CreateEffect@ioEffectFactory@@QAEPAVioEffect@@ABVioHashString@@@Z:PROC
;	COMDAT __real@38d1b717
; File c:\program files (x86)\microsoft visual studio 10.0\vc\include\xutility
CONST	SEGMENT
__real@38d1b717 DD 038d1b717r			; 0.0001
; Function compile flags: /Ogsp
; File d:\lost saga for developer\youtube\tutorial\source\src\lsclient\gui\ioui3drender.cpp
CONST	ENDS
;	COMDAT ?AddEffect@ioUI3DRender@@QAE_NABVioHashString@@ABUD3DXVECTOR3@@11@Z
_TEXT	SEGMENT
_pEffect$ = 8						; size = 4
_rkName$ = 8						; size = 4
_vPos$ = 12						; size = 4
_vScale$ = 16						; size = 4
_vDir$ = 20						; size = 4
?AddEffect@ioUI3DRender@@QAE_NABVioHashString@@ABUD3DXVECTOR3@@11@Z PROC ; ioUI3DRender::AddEffect, COMDAT
; _this$ = ecx

; 544  : {

  00000	55		 push	 ebp
  00001	8b ec		 mov	 ebp, esp
  00003	57		 push	 edi
  00004	8b f9		 mov	 edi, ecx

; 545  : 	if( rkName.IsEmpty() )

  00006	8b 4d 08	 mov	 ecx, DWORD PTR _rkName$[ebp]
  00009	ff 15 00 00 00
	00		 call	 DWORD PTR __imp_?IsEmpty@ioHashString@@QBE_NXZ
  0000f	84 c0		 test	 al, al
  00011	74 07		 je	 SHORT $LN3@AddEffect

; 546  : 		return false;

  00013	32 c0		 xor	 al, al
  00015	e9 9a 00 00 00	 jmp	 $LN4@AddEffect
$LN3@AddEffect:
  0001a	53		 push	 ebx

; 547  : 
; 548  : 	ioEffect *pEffect = g_EffectFactory.CreateEffect( rkName );

  0001b	ff 75 08	 push	 DWORD PTR _rkName$[ebp]
  0001e	ff 15 00 00 00
	00		 call	 DWORD PTR __imp_?GetSingleton@ioEffectFactory@@SAAAV1@XZ
  00024	8b c8		 mov	 ecx, eax
  00026	ff 15 00 00 00
	00		 call	 DWORD PTR __imp_?CreateEffect@ioEffectFactory@@QAEPAVioEffect@@ABVioHashString@@@Z
  0002c	8b d8		 mov	 ebx, eax
  0002e	89 5d 08	 mov	 DWORD PTR _pEffect$[ebp], ebx

; 549  : 	if( !pEffect )	return false;

  00031	85 db		 test	 ebx, ebx
  00033	75 04		 jne	 SHORT $LN2@AddEffect
  00035	32 c0		 xor	 al, al
  00037	eb 7a		 jmp	 SHORT $LN20@AddEffect
$LN2@AddEffect:

; 550  : 
; 551  : 	ioSceneNode *pSNode = m_pSceneMgr->GetRootSceneNode()->CreateChildSceneNode();

  00039	8b 4f 04	 mov	 ecx, DWORD PTR [edi+4]
  0003c	8b 01		 mov	 eax, DWORD PTR [ecx]
  0003e	56		 push	 esi
  0003f	ff 50 28	 call	 DWORD PTR [eax+40]
  00042	8b 10		 mov	 edx, DWORD PTR [eax]
  00044	8b c8		 mov	 ecx, eax
  00046	ff 92 c4 00 00
	00		 call	 DWORD PTR [edx+196]
  0004c	8b f0		 mov	 esi, eax

; 552  : 	pSNode->AttachObject( pEffect );

  0004e	8b 16		 mov	 edx, DWORD PTR [esi]
  00050	8d 43 14	 lea	 eax, DWORD PTR [ebx+20]
  00053	50		 push	 eax
  00054	8b ce		 mov	 ecx, esi
  00056	ff 92 ac 00 00
	00		 call	 DWORD PTR [edx+172]

; 553  : 	pSNode->SetPosition( vPos );

  0005c	ff 75 0c	 push	 DWORD PTR _vPos$[ebp]
  0005f	8b 06		 mov	 eax, DWORD PTR [esi]
  00061	8b ce		 mov	 ecx, esi
  00063	ff 50 14	 call	 DWORD PTR [eax+20]

; 554  : 	pSNode->SetScale( vScale );

  00066	ff 75 10	 push	 DWORD PTR _vScale$[ebp]
  00069	8b 06		 mov	 eax, DWORD PTR [esi]
  0006b	8b ce		 mov	 ecx, esi
  0006d	ff 50 20	 call	 DWORD PTR [eax+32]

; 555  : 
; 556  : 	if( !ioMath::IsEqual( ioMath::UNIT_Y, vDir ) )

  00070	f3 0f 10 05 00
	00 00 00	 movss	 xmm0, DWORD PTR __real@38d1b717
  00078	51		 push	 ecx
  00079	f3 0f 11 04 24	 movss	 DWORD PTR [esp], xmm0
  0007e	ff 75 14	 push	 DWORD PTR _vDir$[ebp]
  00081	ff 35 00 00 00
	00		 push	 DWORD PTR __imp_?UNIT_Y@ioMath@@2UD3DXVECTOR3@@A
  00087	ff 15 00 00 00
	00		 call	 DWORD PTR __imp_?IsEqual@ioMath@@SA_NABUD3DXVECTOR3@@0M@Z
  0008d	83 c4 0c	 add	 esp, 12			; 0000000cH
  00090	5e		 pop	 esi
  00091	84 c0		 test	 al, al
  00093	75 0d		 jne	 SHORT $LN1@AddEffect

; 557  : 	{
; 558  : 		pEffect->ChangeEffectDirection( vDir, true );

  00095	6a 01		 push	 1
  00097	ff 75 14	 push	 DWORD PTR _vDir$[ebp]
  0009a	8b cb		 mov	 ecx, ebx
  0009c	ff 15 00 00 00
	00		 call	 DWORD PTR __imp_?ChangeEffectDirection@ioEffect@@QAEXABUD3DXVECTOR3@@_N@Z
$LN1@AddEffect:

; 559  : 	}
; 560  : 
; 561  : 	m_EffectList.push_back( pEffect );

  000a2	8d 4f 3c	 lea	 ecx, DWORD PTR [edi+60]
  000a5	8b 01		 mov	 eax, DWORD PTR [ecx]
  000a7	8d 55 08	 lea	 edx, DWORD PTR _pEffect$[ebp]
  000aa	52		 push	 edx
  000ab	50		 push	 eax
  000ac	e8 00 00 00 00	 call	 ?_Insert@?$list@PAVioEffect@@V?$allocator@PAVioEffect@@@std@@@std@@QAEXV?$_List_const_iterator@V?$_List_val@PAVioEffect@@V?$allocator@PAVioEffect@@@std@@@std@@@2@ABQAVioEffect@@@Z ; std::list<ioEffect *,std::allocator<ioEffect *> >::_Insert

; 562  : 
; 563  : 	return true;

  000b1	b0 01		 mov	 al, 1
$LN20@AddEffect:
  000b3	5b		 pop	 ebx
$LN4@AddEffect:
  000b4	5f		 pop	 edi

; 564  : }

  000b5	5d		 pop	 ebp
  000b6	c2 10 00	 ret	 16			; 00000010H
?AddEffect@ioUI3DRender@@QAE_NABVioHashString@@ABUD3DXVECTOR3@@11@Z ENDP ; ioUI3DRender::AddEffect
_TEXT	ENDS
PUBLIC	??1?$_Tree@V?$_Tset_traits@PAVioSceneManager@@U?$less@PAVioSceneManager@@@std@@V?$allocator@PAVioSceneManager@@@3@$0A@@std@@@std@@QAE@XZ ; std::_Tree<std::_Tset_traits<ioSceneManager *,std::less<ioSceneManager *>,std::allocator<ioSceneManager *>,0> >::~_Tree<std::_Tset_traits<ioSceneManager *,std::less<ioSceneManager *>,std::allocator<ioSceneManager *>,0> >
;	COMDAT xdata$x
; File c:\program files (x86)\microsoft visual studio 10.0\vc\include\xmemory
xdata$x	SEGMENT
__unwindtable$??1?$_Tree@V?$_Tset_traits@PAVioSceneManager@@U?$less@PAVioSceneManager@@@std@@V?$allocator@PAVioSceneManager@@@3@$0A@@std@@@std@@QAE@XZ DD 0ffffffffH
	DD	FLAT:__unwindfunclet$??1?$_Tree@V?$_Tset_traits@PAVioSceneManager@@U?$less@PAVioSceneManager@@@std@@V?$allocator@PAVioSceneManager@@@3@$0A@@std@@@std@@QAE@XZ$0
__ehfuncinfo$??1?$_Tree@V?$_Tset_traits@PAVioSceneManager@@U?$less@PAVioSceneManager@@@std@@V?$allocator@PAVioSceneManager@@@3@$0A@@std@@@std@@QAE@XZ DD 019930522H
	DD	01H
	DD	FLAT:__unwindtable$??1?$_Tree@V?$_Tset_traits@PAVioSceneManager@@U?$less@PAVioSceneManager@@@std@@V?$allocator@PAVioSceneManager@@@3@$0A@@std@@@std@@QAE@XZ
	DD	2 DUP(00H)
	DD	2 DUP(00H)
	DD	00H
	DD	01H
; Function compile flags: /Ogsp
; File c:\program files (x86)\microsoft visual studio 10.0\vc\include\xtree
xdata$x	ENDS
;	COMDAT ??1?$_Tree@V?$_Tset_traits@PAVioSceneManager@@U?$less@PAVioSceneManager@@@std@@V?$allocator@PAVioSceneManager@@@3@$0A@@std@@@std@@QAE@XZ
_TEXT	SEGMENT
$T516125 = -20						; size = 4
_this$ = -16						; size = 4
__$EHRec$ = -12						; size = 12
??1?$_Tree@V?$_Tset_traits@PAVioSceneManager@@U?$less@PAVioSceneManager@@@std@@V?$allocator@PAVioSceneManager@@@3@$0A@@std@@@std@@QAE@XZ PROC ; std::_Tree<std::_Tset_traits<ioSceneManager *,std::less<ioSceneManager *>,std::allocator<ioSceneManager *>,0> >::~_Tree<std::_Tset_traits<ioSceneManager *,std::less<ioSceneManager *>,std::allocator<ioSceneManager *>,0> >, COMDAT
; _this$ = ecx

; 790  : 		{	// destroy tree

  00000	6a 08		 push	 8
  00002	b8 00 00 00 00	 mov	 eax, __ehhandler$??1?$_Tree@V?$_Tset_traits@PAVioSceneManager@@U?$less@PAVioSceneManager@@@std@@V?$allocator@PAVioSceneManager@@@3@$0A@@std@@@std@@QAE@XZ
  00007	e8 00 00 00 00	 call	 __EH_prolog3
  0000c	8b f1		 mov	 esi, ecx
  0000e	89 75 f0	 mov	 DWORD PTR _this$[ebp], esi

; 791  : 		_Tidy();

  00011	8b 46 04	 mov	 eax, DWORD PTR [esi+4]
  00014	8b 08		 mov	 ecx, DWORD PTR [eax]
  00016	83 65 fc 00	 and	 DWORD PTR __$EHRec$[ebp+8], 0
  0001a	50		 push	 eax
  0001b	51		 push	 ecx
  0001c	8d 45 ec	 lea	 eax, DWORD PTR $T516125[ebp]
  0001f	50		 push	 eax
  00020	8b ce		 mov	 ecx, esi
  00022	e8 00 00 00 00	 call	 ?erase@?$_Tree@V?$_Tset_traits@PAVioSceneManager@@U?$less@PAVioSceneManager@@@std@@V?$allocator@PAVioSceneManager@@@3@$0A@@std@@@std@@QAE?AV?$_Tree_const_iterator@V?$_Tree_val@V?$_Tset_traits@PAVioSceneManager@@U?$less@PAVioSceneManager@@@std@@V?$allocator@PAVioSceneManager@@@3@$0A@@std@@@std@@@2@V32@0@Z ; std::_Tree<std::_Tset_traits<ioSceneManager *,std::less<ioSceneManager *>,std::allocator<ioSceneManager *>,0> >::erase

; 792  : 		}

  00027	ff 76 04	 push	 DWORD PTR [esi+4]
  0002a	e8 00 00 00 00	 call	 ??3@YAXPAX@Z		; operator delete
  0002f	59		 pop	 ecx
  00030	e8 00 00 00 00	 call	 __EH_epilog3
  00035	c3		 ret	 0
_TEXT	ENDS
;	COMDAT text$x
text$x	SEGMENT
__unwindfunclet$??1?$_Tree@V?$_Tset_traits@PAVioSceneManager@@U?$less@PAVioSceneManager@@@std@@V?$allocator@PAVioSceneManager@@@3@$0A@@std@@@std@@QAE@XZ$0:
  00000	8b 4d f0	 mov	 ecx, DWORD PTR _this$[ebp]
  00003	e9 00 00 00 00	 jmp	 ??1?$_Tree_val@V?$_Tset_traits@PAVioSceneManager@@U?$less@PAVioSceneManager@@@std@@V?$allocator@PAVioSceneManager@@@3@$0A@@std@@@std@@QAE@XZ ; std::_Tree_val<std::_Tset_traits<ioSceneManager *,std::less<ioSceneManager *>,std::allocator<ioSceneManager *>,0> >::~_Tree_val<std::_Tset_traits<ioSceneManager *,std::less<ioSceneManager *>,std::allocator<ioSceneManager *>,0> >
__ehhandler$??1?$_Tree@V?$_Tset_traits@PAVioSceneManager@@U?$less@PAVioSceneManager@@@std@@V?$allocator@PAVioSceneManager@@@3@$0A@@std@@@std@@QAE@XZ:
  00008	8b 54 24 08	 mov	 edx, DWORD PTR [esp+8]
  0000c	8d 42 0c	 lea	 eax, DWORD PTR [edx+12]
  0000f	8b 4a e8	 mov	 ecx, DWORD PTR [edx-24]
  00012	33 c8		 xor	 ecx, eax
  00014	e8 00 00 00 00	 call	 @__security_check_cookie@4
  00019	b8 00 00 00 00	 mov	 eax, OFFSET __ehfuncinfo$??1?$_Tree@V?$_Tset_traits@PAVioSceneManager@@U?$less@PAVioSceneManager@@@std@@V?$allocator@PAVioSceneManager@@@3@$0A@@std@@@std@@QAE@XZ
  0001e	e9 00 00 00 00	 jmp	 ___CxxFrameHandler3
text$x	ENDS
??1?$_Tree@V?$_Tset_traits@PAVioSceneManager@@U?$less@PAVioSceneManager@@@std@@V?$allocator@PAVioSceneManager@@@3@$0A@@std@@@std@@QAE@XZ ENDP ; std::_Tree<std::_Tset_traits<ioSceneManager *,std::less<ioSceneManager *>,std::allocator<ioSceneManager *>,0> >::~_Tree<std::_Tset_traits<ioSceneManager *,std::less<ioSceneManager *>,std::allocator<ioSceneManager *>,0> >
PUBLIC	?erase@?$_Tree@V?$_Tset_traits@PAVioSceneManager@@U?$less@PAVioSceneManager@@@std@@V?$allocator@PAVioSceneManager@@@3@$0A@@std@@@std@@QAEIABQAVioSceneManager@@@Z ; std::_Tree<std::_Tset_traits<ioSceneManager *,std::less<ioSceneManager *>,std::allocator<ioSceneManager *>,0> >::erase
; Function compile flags: /Ogsp
;	COMDAT ?erase@?$_Tree@V?$_Tset_traits@PAVioSceneManager@@U?$less@PAVioSceneManager@@@std@@V?$allocator@PAVioSceneManager@@@3@$0A@@std@@@std@@QAEIABQAVioSceneManager@@@Z
_TEXT	SEGMENT
__Where$ = -8						; size = 8
$T516151 = -4						; size = 4
$T516163 = 8						; size = 1
__Num$ = 8						; size = 4
__Keyval$ = 8						; size = 4
?erase@?$_Tree@V?$_Tset_traits@PAVioSceneManager@@U?$less@PAVioSceneManager@@@std@@V?$allocator@PAVioSceneManager@@@3@$0A@@std@@@std@@QAEIABQAVioSceneManager@@@Z PROC ; std::_Tree<std::_Tset_traits<ioSceneManager *,std::less<ioSceneManager *>,std::allocator<ioSceneManager *>,0> >::erase, COMDAT
; _this$ = ecx

; 1394 : 		{	// erase and count all that match _Keyval

  00000	55		 push	 ebp
  00001	8b ec		 mov	 ebp, esp
  00003	51		 push	 ecx
  00004	51		 push	 ecx
  00005	56		 push	 esi

; 1395 : 		_Pairii _Where = equal_range(_Keyval);

  00006	ff 75 08	 push	 DWORD PTR __Keyval$[ebp]
  00009	8d 45 f8	 lea	 eax, DWORD PTR __Where$[ebp]
  0000c	50		 push	 eax
  0000d	8b f1		 mov	 esi, ecx
  0000f	e8 00 00 00 00	 call	 ?_Eqrange@?$_Tree@V?$_Tset_traits@PAVioSceneManager@@U?$less@PAVioSceneManager@@@std@@V?$allocator@PAVioSceneManager@@@3@$0A@@std@@@std@@IAE?AU?$pair@V?$_Tree_const_iterator@V?$_Tree_val@V?$_Tset_traits@PAVioSceneManager@@U?$less@PAVioSceneManager@@@std@@V?$allocator@PAVioSceneManager@@@3@$0A@@std@@@std@@@std@@V12@@2@ABQAVioSceneManager@@@Z ; std::_Tree<std::_Tset_traits<ioSceneManager *,std::less<ioSceneManager *>,std::allocator<ioSceneManager *>,0> >::_Eqrange

; 1396 : 		size_type _Num = 0;

  00014	83 65 08 00	 and	 DWORD PTR __Num$[ebp], 0

; 1397 : 		_Distance(_Where.first, _Where.second, _Num);

  00018	ff 75 08	 push	 DWORD PTR $T516163[ebp]
  0001b	8d 45 08	 lea	 eax, DWORD PTR __Num$[ebp]
  0001e	50		 push	 eax
  0001f	ff 75 fc	 push	 DWORD PTR __Where$[ebp+4]
  00022	ff 75 f8	 push	 DWORD PTR __Where$[ebp]
  00025	e8 00 00 00 00	 call	 ??$_Distance2@V?$_Tree_const_iterator@V?$_Tree_val@V?$_Tset_traits@PAVioSceneManager@@U?$less@PAVioSceneManager@@@std@@V?$allocator@PAVioSceneManager@@@3@$0A@@std@@@std@@@std@@I@std@@YAXV?$_Tree_const_iterator@V?$_Tree_val@V?$_Tset_traits@PAVioSceneManager@@U?$less@PAVioSceneManager@@@std@@V?$allocator@PAVioSceneManager@@@3@$0A@@std@@@std@@@0@0AAIUbidirectional_iterator_tag@0@@Z ; std::_Distance2<std::_Tree_const_iterator<std::_Tree_val<std::_Tset_traits<ioSceneManager *,std::less<ioSceneManager *>,std::allocator<ioSceneManager *>,0> > >,unsigned int>
  0002a	83 c4 10	 add	 esp, 16			; 00000010H

; 1398 : 		erase(_Where.first, _Where.second);

  0002d	ff 75 fc	 push	 DWORD PTR __Where$[ebp+4]
  00030	8d 45 fc	 lea	 eax, DWORD PTR $T516151[ebp]
  00033	ff 75 f8	 push	 DWORD PTR __Where$[ebp]
  00036	8b ce		 mov	 ecx, esi
  00038	50		 push	 eax
  00039	e8 00 00 00 00	 call	 ?erase@?$_Tree@V?$_Tset_traits@PAVioSceneManager@@U?$less@PAVioSceneManager@@@std@@V?$allocator@PAVioSceneManager@@@3@$0A@@std@@@std@@QAE?AV?$_Tree_const_iterator@V?$_Tree_val@V?$_Tset_traits@PAVioSceneManager@@U?$less@PAVioSceneManager@@@std@@V?$allocator@PAVioSceneManager@@@3@$0A@@std@@@std@@@2@V32@0@Z ; std::_Tree<std::_Tset_traits<ioSceneManager *,std::less<ioSceneManager *>,std::allocator<ioSceneManager *>,0> >::erase

; 1399 : 		return (_Num);

  0003e	8b 45 08	 mov	 eax, DWORD PTR __Num$[ebp]
  00041	5e		 pop	 esi

; 1400 : 		}

  00042	c9		 leave
  00043	c2 04 00	 ret	 4
?erase@?$_Tree@V?$_Tset_traits@PAVioSceneManager@@U?$less@PAVioSceneManager@@@std@@V?$allocator@PAVioSceneManager@@@3@$0A@@std@@@std@@QAEIABQAVioSceneManager@@@Z ENDP ; std::_Tree<std::_Tset_traits<ioSceneManager *,std::less<ioSceneManager *>,std::allocator<ioSceneManager *>,0> >::erase
_TEXT	ENDS
PUBLIC	??$_Umove@PAVioHashString@@@?$vector@VioHashString@@V?$allocator@VioHashString@@@std@@@std@@IAEPAVioHashString@@PAV2@00@Z ; std::vector<ioHashString,std::allocator<ioHashString> >::_Umove<ioHashString *>
; Function compile flags: /Ogsp
; File c:\program files (x86)\microsoft visual studio 10.0\vc\include\vector
;	COMDAT ??$_Umove@PAVioHashString@@@?$vector@VioHashString@@V?$allocator@VioHashString@@@std@@@std@@IAEPAVioHashString@@PAV2@00@Z
_TEXT	SEGMENT
__First$ = 8						; size = 4
__Last$ = 12						; size = 4
__Ptr$ = 16						; size = 4
??$_Umove@PAVioHashString@@@?$vector@VioHashString@@V?$allocator@VioHashString@@@std@@@std@@IAEPAVioHashString@@PAV2@00@Z PROC ; std::vector<ioHashString,std::allocator<ioHashString> >::_Umove<ioHashString *>, COMDAT
; _this$ = ecx

; 1322 : 		pointer _Umove(_Iter _First, _Iter _Last, pointer _Ptr)

  00000	55		 push	 ebp
  00001	8b ec		 mov	 ebp, esp

; 1323 : 		{	// move initializing [_First, _Last), using allocator
; 1324 : 		return (_Uninitialized_move(_First, _Last,
; 1325 : 			_Ptr, this->_Alval));

  00003	83 c1 0c	 add	 ecx, 12			; 0000000cH
  00006	51		 push	 ecx
  00007	ff 75 10	 push	 DWORD PTR __Ptr$[ebp]
  0000a	ff 75 0c	 push	 DWORD PTR __Last$[ebp]
  0000d	ff 75 08	 push	 DWORD PTR __First$[ebp]
  00010	e8 00 00 00 00	 call	 ??$_Uninitialized_move@PAVioHashString@@PAV1@V?$allocator@VioHashString@@@std@@@std@@YAPAVioHashString@@PAV1@00AAV?$allocator@VioHashString@@@0@@Z ; std::_Uninitialized_move<ioHashString *,ioHashString *,std::allocator<ioHashString> >
  00015	83 c4 10	 add	 esp, 16			; 00000010H

; 1326 : 		}

  00018	5d		 pop	 ebp
  00019	c2 0c 00	 ret	 12			; 0000000cH
??$_Umove@PAVioHashString@@@?$vector@VioHashString@@V?$allocator@VioHashString@@@std@@@std@@IAEPAVioHashString@@PAV2@00@Z ENDP ; std::vector<ioHashString,std::allocator<ioHashString> >::_Umove<ioHashString *>
_TEXT	ENDS
PUBLIC	?_Destroy@?$vector@VioHashString@@V?$allocator@VioHashString@@@std@@@std@@IAEXPAVioHashString@@0@Z ; std::vector<ioHashString,std::allocator<ioHashString> >::_Destroy
; Function compile flags: /Ogsp
;	COMDAT ?_Destroy@?$vector@VioHashString@@V?$allocator@VioHashString@@@std@@@std@@IAEXPAVioHashString@@0@Z
_TEXT	SEGMENT
__First$ = 8						; size = 4
__Last$ = 12						; size = 4
?_Destroy@?$vector@VioHashString@@V?$allocator@VioHashString@@@std@@@std@@IAEXPAVioHashString@@0@Z PROC ; std::vector<ioHashString,std::allocator<ioHashString> >::_Destroy, COMDAT
; _this$ = ecx

; 1269 : 		{	// destroy [_First, _Last) using allocator

  00000	55		 push	 ebp
  00001	8b ec		 mov	 ebp, esp
  00003	56		 push	 esi

; 1270 : 		_Destroy_range(_First, _Last, this->_Alval);

  00004	8b 75 08	 mov	 esi, DWORD PTR __First$[ebp]
  00007	eb 0b		 jmp	 SHORT $LN23@Destroy
$LL9@Destroy:
  00009	8b ce		 mov	 ecx, esi
  0000b	ff 15 00 00 00
	00		 call	 DWORD PTR __imp_??1ioHashString@@QAE@XZ
  00011	83 c6 10	 add	 esi, 16			; 00000010H
$LN23@Destroy:
  00014	3b 75 0c	 cmp	 esi, DWORD PTR __Last$[ebp]
  00017	75 f0		 jne	 SHORT $LL9@Destroy
  00019	5e		 pop	 esi

; 1271 : 		}

  0001a	5d		 pop	 ebp
  0001b	c2 08 00	 ret	 8
?_Destroy@?$vector@VioHashString@@V?$allocator@VioHashString@@@std@@@std@@IAEXPAVioHashString@@0@Z ENDP ; std::vector<ioHashString,std::allocator<ioHashString> >::_Destroy
_TEXT	ENDS
PUBLIC	??1?$set@PAVioSceneManager@@U?$less@PAVioSceneManager@@@std@@V?$allocator@PAVioSceneManager@@@3@@std@@QAE@XZ ; std::set<ioSceneManager *,std::less<ioSceneManager *>,std::allocator<ioSceneManager *> >::~set<ioSceneManager *,std::less<ioSceneManager *>,std::allocator<ioSceneManager *> >
; Function compile flags: /Ogsp
;	COMDAT ??1?$set@PAVioSceneManager@@U?$less@PAVioSceneManager@@@std@@V?$allocator@PAVioSceneManager@@@3@@std@@QAE@XZ
_TEXT	SEGMENT
??1?$set@PAVioSceneManager@@U?$less@PAVioSceneManager@@@std@@V?$allocator@PAVioSceneManager@@@3@@std@@QAE@XZ PROC ; std::set<ioSceneManager *,std::less<ioSceneManager *>,std::allocator<ioSceneManager *> >::~set<ioSceneManager *,std::less<ioSceneManager *>,std::allocator<ioSceneManager *> >, COMDAT
; _this$ = ecx
  00000	e9 00 00 00 00	 jmp	 ??1?$_Tree@V?$_Tset_traits@PAVioSceneManager@@U?$less@PAVioSceneManager@@@std@@V?$allocator@PAVioSceneManager@@@3@$0A@@std@@@std@@QAE@XZ ; std::_Tree<std::_Tset_traits<ioSceneManager *,std::less<ioSceneManager *>,std::allocator<ioSceneManager *>,0> >::~_Tree<std::_Tset_traits<ioSceneManager *,std::less<ioSceneManager *>,std::allocator<ioSceneManager *>,0> >
??1?$set@PAVioSceneManager@@U?$less@PAVioSceneManager@@@std@@V?$allocator@PAVioSceneManager@@@3@@std@@QAE@XZ ENDP ; std::set<ioSceneManager *,std::less<ioSceneManager *>,std::allocator<ioSceneManager *> >::~set<ioSceneManager *,std::less<ioSceneManager *>,std::allocator<ioSceneManager *> >
_TEXT	ENDS
PUBLIC	?RemoveSceneMgr@ioUI3DRender@@KAXPAVioSceneManager@@@Z ; ioUI3DRender::RemoveSceneMgr
; Function compile flags: /Ogsp
; File d:\lost saga for developer\youtube\tutorial\source\src\lsclient\gui\ioui3drender.cpp
;	COMDAT ?RemoveSceneMgr@ioUI3DRender@@KAXPAVioSceneManager@@@Z
_TEXT	SEGMENT
_pSceneMgr$ = 8						; size = 4
?RemoveSceneMgr@ioUI3DRender@@KAXPAVioSceneManager@@@Z PROC ; ioUI3DRender::RemoveSceneMgr, COMDAT

; 234  : {

  00000	55		 push	 ebp
  00001	8b ec		 mov	 ebp, esp

; 235  : 	m_CreatedSceneMgrList.erase( pSceneMgr );

  00003	8d 45 08	 lea	 eax, DWORD PTR _pSceneMgr$[ebp]
  00006	50		 push	 eax
  00007	b9 00 00 00 00	 mov	 ecx, OFFSET ?m_CreatedSceneMgrList@ioUI3DRender@@1V?$set@PAVioSceneManager@@U?$less@PAVioSceneManager@@@std@@V?$allocator@PAVioSceneManager@@@3@@std@@A ; ioUI3DRender::m_CreatedSceneMgrList
  0000c	e8 00 00 00 00	 call	 ?erase@?$_Tree@V?$_Tset_traits@PAVioSceneManager@@U?$less@PAVioSceneManager@@@std@@V?$allocator@PAVioSceneManager@@@3@$0A@@std@@@std@@QAEIABQAVioSceneManager@@@Z ; std::_Tree<std::_Tset_traits<ioSceneManager *,std::less<ioSceneManager *>,std::allocator<ioSceneManager *>,0> >::erase

; 236  : }

  00011	5d		 pop	 ebp
  00012	c3		 ret	 0
?RemoveSceneMgr@ioUI3DRender@@KAXPAVioSceneManager@@@Z ENDP ; ioUI3DRender::RemoveSceneMgr
_TEXT	ENDS
PUBLIC	?Destroy@ioUI3DRender@@QAEXXZ			; ioUI3DRender::Destroy
; Function compile flags: /Ogsp
;	COMDAT ?Destroy@ioUI3DRender@@QAEXXZ
_TEXT	SEGMENT
?Destroy@ioUI3DRender@@QAEXXZ PROC			; ioUI3DRender::Destroy, COMDAT
; _this$ = ecx

; 286  : {

  00000	56		 push	 esi
  00001	8b f1		 mov	 esi, ecx
  00003	57		 push	 edi

; 287  : 	SAFEDELETE(m_pCamera);

  00004	8b 7e 08	 mov	 edi, DWORD PTR [esi+8]
  00007	85 ff		 test	 edi, edi
  00009	74 13		 je	 SHORT $LN2@Destroy@2
  0000b	8b cf		 mov	 ecx, edi
  0000d	ff 15 00 00 00
	00		 call	 DWORD PTR __imp_??1ioCamera@@QAE@XZ
  00013	57		 push	 edi
  00014	e8 00 00 00 00	 call	 ??3@YAXPAX@Z		; operator delete
  00019	83 66 08 00	 and	 DWORD PTR [esi+8], 0
  0001d	59		 pop	 ecx
$LN2@Destroy@2:

; 288  : 
; 289  : 	if( m_pSceneMgr )

  0001e	8b 46 04	 mov	 eax, DWORD PTR [esi+4]
  00021	85 c0		 test	 eax, eax
  00023	74 28		 je	 SHORT $LN1@Destroy@2

; 290  : 	{
; 291  :         RemoveSceneMgr( m_pSceneMgr );

  00025	50		 push	 eax
  00026	e8 00 00 00 00	 call	 ?RemoveSceneMgr@ioUI3DRender@@KAXPAVioSceneManager@@@Z ; ioUI3DRender::RemoveSceneMgr
  0002b	59		 pop	 ecx

; 292  : 		DestroyAllEffects();

  0002c	8b ce		 mov	 ecx, esi
  0002e	e8 00 00 00 00	 call	 ?DestroyAllEffects@ioUI3DRender@@IAEXXZ ; ioUI3DRender::DestroyAllEffects

; 293  : 
; 294  : 		m_pSceneMgr->ClearScene();

  00033	8b 4e 04	 mov	 ecx, DWORD PTR [esi+4]
  00036	8b 01		 mov	 eax, DWORD PTR [ecx]
  00038	ff 50 0c	 call	 DWORD PTR [eax+12]

; 295  : 		delete m_pSceneMgr;

  0003b	8b 4e 04	 mov	 ecx, DWORD PTR [esi+4]
  0003e	85 c9		 test	 ecx, ecx
  00040	74 07		 je	 SHORT $LN7@Destroy@2
  00042	8b 01		 mov	 eax, DWORD PTR [ecx]
  00044	6a 01		 push	 1
  00046	ff 50 5c	 call	 DWORD PTR [eax+92]
$LN7@Destroy@2:

; 296  : 		m_pSceneMgr = NULL;

  00049	83 66 04 00	 and	 DWORD PTR [esi+4], 0
$LN1@Destroy@2:
  0004d	5f		 pop	 edi
  0004e	5e		 pop	 esi

; 297  : 	}
; 298  : }

  0004f	c3		 ret	 0
?Destroy@ioUI3DRender@@QAEXXZ ENDP			; ioUI3DRender::Destroy
_TEXT	ENDS
PUBLIC	?reserve@?$vector@VioHashString@@V?$allocator@VioHashString@@@std@@@std@@QAEXI@Z ; std::vector<ioHashString,std::allocator<ioHashString> >::reserve
EXTRN	__imp_?_Orphan_all@_Container_base0@std@@QAEXXZ:PROC
;	COMDAT xdata$x
; File c:\program files (x86)\microsoft visual studio 10.0\vc\include\xmemory
xdata$x	SEGMENT
__catchsym$?reserve@?$vector@VioHashString@@V?$allocator@VioHashString@@@std@@@std@@QAEXI@Z$2 DD 040H
	DD	00H
	DD	00H
	DD	FLAT:__catch$?reserve@?$vector@VioHashString@@V?$allocator@VioHashString@@@std@@@std@@QAEXI@Z$0
__unwindtable$?reserve@?$vector@VioHashString@@V?$allocator@VioHashString@@@std@@@std@@QAEXI@Z DD 0ffffffffH
	DD	00H
	DD	0ffffffffH
	DD	00H
__tryblocktable$?reserve@?$vector@VioHashString@@V?$allocator@VioHashString@@@std@@@std@@QAEXI@Z DD 00H
	DD	00H
	DD	01H
	DD	01H
	DD	FLAT:__catchsym$?reserve@?$vector@VioHashString@@V?$allocator@VioHashString@@@std@@@std@@QAEXI@Z$2
__ehfuncinfo$?reserve@?$vector@VioHashString@@V?$allocator@VioHashString@@@std@@@std@@QAEXI@Z DD 019930522H
	DD	02H
	DD	FLAT:__unwindtable$?reserve@?$vector@VioHashString@@V?$allocator@VioHashString@@@std@@@std@@QAEXI@Z
	DD	01H
	DD	FLAT:__tryblocktable$?reserve@?$vector@VioHashString@@V?$allocator@VioHashString@@@std@@@std@@QAEXI@Z
	DD	2 DUP(00H)
	DD	00H
	DD	01H
; Function compile flags: /Ogsp
; File c:\program files (x86)\microsoft visual studio 10.0\vc\include\vector
xdata$x	ENDS
;	COMDAT ?reserve@?$vector@VioHashString@@V?$allocator@VioHashString@@@std@@@std@@QAEXI@Z
_TEXT	SEGMENT
tv300 = -24						; size = 4
__Ptr$507923 = -20					; size = 4
__$EHRec$ = -16						; size = 16
$T516361 = 8						; size = 4
__Count$ = 8						; size = 4
?reserve@?$vector@VioHashString@@V?$allocator@VioHashString@@@std@@@std@@QAEXI@Z PROC ; std::vector<ioHashString,std::allocator<ioHashString> >::reserve, COMDAT
; _this$ = ecx

; 746  : 		{	// determine new minimum length of allocated storage

  00000	6a 0c		 push	 12			; 0000000cH
  00002	b8 00 00 00 00	 mov	 eax, __ehhandler$?reserve@?$vector@VioHashString@@V?$allocator@VioHashString@@@std@@@std@@QAEXI@Z
  00007	e8 00 00 00 00	 call	 __EH_prolog3_catch
  0000c	8b f1		 mov	 esi, ecx

; 747  : 		if (max_size() < _Count)

  0000e	8b 5d 08	 mov	 ebx, DWORD PTR __Count$[ebp]
  00011	81 fb ff ff ff
	0f		 cmp	 ebx, 268435455		; 0fffffffH
  00017	76 0b		 jbe	 SHORT $LN5@reserve

; 748  : 			_Xlen();	// result too long

  00019	68 00 00 00 00	 push	 OFFSET ??_C@_0BD@OLBABOEK@vector?$DMT?$DO?5too?5long?$AA@
  0001e	ff 15 00 00 00
	00		 call	 DWORD PTR __imp_?_Xlength_error@std@@YAXPBD@Z
$LN59@reserve:
$LN5@reserve:

; 749  : 		else if (capacity() < _Count)

  00024	8b 46 08	 mov	 eax, DWORD PTR [esi+8]
  00027	2b 06		 sub	 eax, DWORD PTR [esi]
  00029	c1 f8 04	 sar	 eax, 4
  0002c	3b c3		 cmp	 eax, ebx
  0002e	73 7a		 jae	 SHORT $LN3@reserve

; 750  : 			{	// not enough room, reallocate
; 751  : 			pointer _Ptr = this->_Alval.allocate(_Count);

  00030	6a 00		 push	 0
  00032	53		 push	 ebx
  00033	e8 00 00 00 00	 call	 ??$_Allocate@VioHashString@@@std@@YAPAVioHashString@@IPAV1@@Z ; std::_Allocate<ioHashString>

; 752  : 
; 753  : 			_TRY_BEGIN
; 754  : 			_Umove(this->_Myfirst, this->_Mylast, _Ptr);

  00038	8b 0e		 mov	 ecx, DWORD PTR [esi]
  0003a	83 65 fc 00	 and	 DWORD PTR __$EHRec$[ebp+12], 0
  0003e	8d 56 0c	 lea	 edx, DWORD PTR [esi+12]
  00041	52		 push	 edx
  00042	89 45 ec	 mov	 DWORD PTR __Ptr$507923[ebp], eax
  00045	ff 75 ec	 push	 DWORD PTR __Ptr$507923[ebp]
  00048	8b 46 04	 mov	 eax, DWORD PTR [esi+4]
  0004b	50		 push	 eax
  0004c	51		 push	 ecx
  0004d	e8 00 00 00 00	 call	 ??$_Uninitialized_move@PAVioHashString@@PAV1@V?$allocator@VioHashString@@@std@@@std@@YAPAVioHashString@@PAV1@00AAV?$allocator@VioHashString@@@0@@Z ; std::_Uninitialized_move<ioHashString *,ioHashString *,std::allocator<ioHashString> >

; 758  : 			_CATCH_END
; 759  : 
; 760  : 			size_type _Size = size();

  00052	8b 4e 04	 mov	 ecx, DWORD PTR [esi+4]
  00055	8b 06		 mov	 eax, DWORD PTR [esi]
  00057	83 4d fc ff	 or	 DWORD PTR __$EHRec$[ebp+12], -1
  0005b	8b f9		 mov	 edi, ecx
  0005d	83 c4 18	 add	 esp, 24			; 00000018H
  00060	2b f8		 sub	 edi, eax
  00062	89 4d e8	 mov	 DWORD PTR tv300[ebp], ecx
  00065	85 c0		 test	 eax, eax
  00067	74 24		 je	 SHORT $LN51@reserve

; 761  : 			if (this->_Myfirst != 0)
; 762  : 				{	// destroy and deallocate old array
; 763  : 				_Destroy(this->_Myfirst, this->_Mylast);

  00069	89 45 08	 mov	 DWORD PTR $T516361[ebp], eax
  0006c	3b c1		 cmp	 eax, ecx
  0006e	74 15		 je	 SHORT $LN37@reserve
$LN39@reserve:
  00070	8b 4d 08	 mov	 ecx, DWORD PTR $T516361[ebp]
  00073	ff 15 00 00 00
	00		 call	 DWORD PTR __imp_??1ioHashString@@QAE@XZ
  00079	83 45 08 10	 add	 DWORD PTR $T516361[ebp], 16 ; 00000010H
  0007d	8b 45 08	 mov	 eax, DWORD PTR $T516361[ebp]
  00080	3b 45 e8	 cmp	 eax, DWORD PTR tv300[ebp]
  00083	75 eb		 jne	 SHORT $LN39@reserve
$LN37@reserve:

; 764  : 				this->_Alval.deallocate(this->_Myfirst,
; 765  : 					this->_Myend - this->_Myfirst);

  00085	ff 36		 push	 DWORD PTR [esi]
  00087	e8 00 00 00 00	 call	 ??3@YAXPAX@Z		; operator delete
  0008c	59		 pop	 ecx
$LN51@reserve:

; 766  : 				}
; 767  : 
; 768  : 			this->_Orphan_all();

  0008d	8b ce		 mov	 ecx, esi
  0008f	ff 15 00 00 00
	00		 call	 DWORD PTR __imp_?_Orphan_all@_Container_base0@std@@QAEXXZ

; 769  : 			this->_Myend = _Ptr + _Count;

  00095	8b 45 ec	 mov	 eax, DWORD PTR __Ptr$507923[ebp]
  00098	c1 e3 04	 shl	 ebx, 4
  0009b	03 d8		 add	 ebx, eax

; 770  : 			this->_Mylast = _Ptr + _Size;

  0009d	83 e7 f0	 and	 edi, -16		; fffffff0H
  000a0	03 f8		 add	 edi, eax
  000a2	89 5e 08	 mov	 DWORD PTR [esi+8], ebx
  000a5	89 7e 04	 mov	 DWORD PTR [esi+4], edi

; 771  : 			this->_Myfirst = _Ptr;

  000a8	89 06		 mov	 DWORD PTR [esi], eax
$LN3@reserve:

; 772  : 			}
; 773  : 		}

  000aa	e8 00 00 00 00	 call	 __EH_epilog3
  000af	c2 04 00	 ret	 4
__catch$?reserve@?$vector@VioHashString@@V?$allocator@VioHashString@@@std@@@std@@QAEXI@Z$0:

; 755  : 			_CATCH_ALL
; 756  : 			this->_Alval.deallocate(_Ptr, _Count);

  000b2	ff 75 ec	 push	 DWORD PTR __Ptr$507923[ebp]
  000b5	e8 00 00 00 00	 call	 ??3@YAXPAX@Z		; operator delete
  000ba	59		 pop	 ecx

; 757  : 			_RERAISE;

  000bb	6a 00		 push	 0
  000bd	6a 00		 push	 0
  000bf	e8 00 00 00 00	 call	 __CxxThrowException@8
$LN60@reserve:
$LN58@reserve:
  000c4	cc		 int	 3
_TEXT	ENDS
;	COMDAT text$x
text$x	SEGMENT
__ehhandler$?reserve@?$vector@VioHashString@@V?$allocator@VioHashString@@@std@@@std@@QAEXI@Z:
  00000	8b 54 24 08	 mov	 edx, DWORD PTR [esp+8]
  00004	8d 42 0c	 lea	 eax, DWORD PTR [edx+12]
  00007	8b 4a e4	 mov	 ecx, DWORD PTR [edx-28]
  0000a	33 c8		 xor	 ecx, eax
  0000c	e8 00 00 00 00	 call	 @__security_check_cookie@4
  00011	b8 00 00 00 00	 mov	 eax, OFFSET __ehfuncinfo$?reserve@?$vector@VioHashString@@V?$allocator@VioHashString@@@std@@@std@@QAEXI@Z
  00016	e9 00 00 00 00	 jmp	 ___CxxFrameHandler3
text$x	ENDS
?reserve@?$vector@VioHashString@@V?$allocator@VioHashString@@@std@@@std@@QAEXI@Z ENDP ; std::vector<ioHashString,std::allocator<ioHashString> >::reserve
PUBLIC	??0?$set@PAVioSceneManager@@U?$less@PAVioSceneManager@@@std@@V?$allocator@PAVioSceneManager@@@3@@std@@QAE@XZ ; std::set<ioSceneManager *,std::less<ioSceneManager *>,std::allocator<ioSceneManager *> >::set<ioSceneManager *,std::less<ioSceneManager *>,std::allocator<ioSceneManager *> >
; Function compile flags: /Ogsp
; File c:\program files (x86)\microsoft visual studio 10.0\vc\include\set
;	COMDAT ??0?$set@PAVioSceneManager@@U?$less@PAVioSceneManager@@@std@@V?$allocator@PAVioSceneManager@@@3@@std@@QAE@XZ
_TEXT	SEGMENT
$T516440 = -8						; size = 4
$T516443 = -8						; size = 4
$T516429 = -1						; size = 1
??0?$set@PAVioSceneManager@@U?$less@PAVioSceneManager@@@std@@V?$allocator@PAVioSceneManager@@@3@@std@@QAE@XZ PROC ; std::set<ioSceneManager *,std::less<ioSceneManager *>,std::allocator<ioSceneManager *> >::set<ioSceneManager *,std::less<ioSceneManager *>,std::allocator<ioSceneManager *> >, COMDAT
; _this$ = ecx

; 81   : 		{	// construct empty set from defaults

  00000	55		 push	 ebp
  00001	8b ec		 mov	 ebp, esp
  00003	51		 push	 ecx
  00004	51		 push	 ecx
  00005	56		 push	 esi
  00006	51		 push	 ecx
  00007	89 65 f8	 mov	 DWORD PTR $T516443[ebp], esp
  0000a	8d 45 ff	 lea	 eax, DWORD PTR $T516429[ebp]
  0000d	89 65 f8	 mov	 DWORD PTR $T516440[ebp], esp
  00010	50		 push	 eax
  00011	8b f1		 mov	 esi, ecx
  00013	e8 00 00 00 00	 call	 ??0?$_Tree_val@V?$_Tset_traits@PAVioSceneManager@@U?$less@PAVioSceneManager@@@std@@V?$allocator@PAVioSceneManager@@@3@$0A@@std@@@std@@QAE@ABU?$less@PAVioSceneManager@@@1@V?$allocator@PAVioSceneManager@@@1@@Z ; std::_Tree_val<std::_Tset_traits<ioSceneManager *,std::less<ioSceneManager *>,std::allocator<ioSceneManager *>,0> >::_Tree_val<std::_Tset_traits<ioSceneManager *,std::less<ioSceneManager *>,std::allocator<ioSceneManager *>,0> >

; 82   : 		}

  00018	8b c6		 mov	 eax, esi
  0001a	5e		 pop	 esi
  0001b	c9		 leave
  0001c	c3		 ret	 0
??0?$set@PAVioSceneManager@@U?$less@PAVioSceneManager@@@std@@V?$allocator@PAVioSceneManager@@@3@@std@@QAE@XZ ENDP ; std::set<ioSceneManager *,std::less<ioSceneManager *>,std::allocator<ioSceneManager *> >::set<ioSceneManager *,std::less<ioSceneManager *>,std::allocator<ioSceneManager *> >
_TEXT	ENDS
PUBLIC	?_Reserve@?$vector@VioHashString@@V?$allocator@VioHashString@@@std@@@std@@IAEXI@Z ; std::vector<ioHashString,std::allocator<ioHashString> >::_Reserve
; Function compile flags: /Ogsp
; File c:\program files (x86)\microsoft visual studio 10.0\vc\include\vector
;	COMDAT ?_Reserve@?$vector@VioHashString@@V?$allocator@VioHashString@@@std@@@std@@IAEXI@Z
_TEXT	SEGMENT
__Count$ = 8						; size = 4
?_Reserve@?$vector@VioHashString@@V?$allocator@VioHashString@@@std@@@std@@IAEXI@Z PROC ; std::vector<ioHashString,std::allocator<ioHashString> >::_Reserve, COMDAT
; _this$ = ecx

; 1290 : 		{	// ensure room for _Count new elements, grow exponentially

  00000	55		 push	 ebp
  00001	8b ec		 mov	 ebp, esp
  00003	56		 push	 esi
  00004	8b f1		 mov	 esi, ecx

; 1291 : 		size_type _Size = size();

  00006	8b 0e		 mov	 ecx, DWORD PTR [esi]
  00008	8b 46 04	 mov	 eax, DWORD PTR [esi+4]
  0000b	2b c1		 sub	 eax, ecx

; 1292 : 		if (max_size() - _Count < _Size)

  0000d	ba ff ff ff 0f	 mov	 edx, 268435455		; 0fffffffH
  00012	2b 55 08	 sub	 edx, DWORD PTR __Count$[ebp]
  00015	c1 f8 04	 sar	 eax, 4
  00018	3b d0		 cmp	 edx, eax
  0001a	73 0b		 jae	 SHORT $LN4@Reserve

; 1293 : 			_Xlen();

  0001c	68 00 00 00 00	 push	 OFFSET ??_C@_0BD@OLBABOEK@vector?$DMT?$DO?5too?5long?$AA@
  00021	ff 15 00 00 00
	00		 call	 DWORD PTR __imp_?_Xlength_error@std@@YAXPBD@Z
$LN21@Reserve:
$LN4@Reserve:

; 1294 : 		else if ((_Size += _Count) <= capacity())

  00027	8b 56 08	 mov	 edx, DWORD PTR [esi+8]
  0002a	03 45 08	 add	 eax, DWORD PTR __Count$[ebp]
  0002d	2b d1		 sub	 edx, ecx
  0002f	c1 fa 04	 sar	 edx, 4
  00032	3b c2		 cmp	 eax, edx
  00034	76 10		 jbe	 SHORT $LN1@Reserve

; 1295 : 			;
; 1296 : 		else
; 1297 : 			reserve(_Grow_to(_Size));

  00036	50		 push	 eax
  00037	8b ce		 mov	 ecx, esi
  00039	e8 00 00 00 00	 call	 ?_Grow_to@?$vector@VioHashString@@V?$allocator@VioHashString@@@std@@@std@@IBEII@Z ; std::vector<ioHashString,std::allocator<ioHashString> >::_Grow_to
  0003e	50		 push	 eax
  0003f	8b ce		 mov	 ecx, esi
  00041	e8 00 00 00 00	 call	 ?reserve@?$vector@VioHashString@@V?$allocator@VioHashString@@@std@@@std@@QAEXI@Z ; std::vector<ioHashString,std::allocator<ioHashString> >::reserve
$LN1@Reserve:
  00046	5e		 pop	 esi

; 1298 : 		}

  00047	5d		 pop	 ebp
  00048	c2 04 00	 ret	 4
$LN20@Reserve:
?_Reserve@?$vector@VioHashString@@V?$allocator@VioHashString@@@std@@@std@@IAEXI@Z ENDP ; std::vector<ioHashString,std::allocator<ioHashString> >::_Reserve
_TEXT	ENDS
PUBLIC	?erase@?$vector@VioHashString@@V?$allocator@VioHashString@@@std@@@std@@QAE?AV?$_Vector_iterator@V?$_Vector_val@VioHashString@@V?$allocator@VioHashString@@@std@@@std@@@2@V?$_Vector_const_iterator@V?$_Vector_val@VioHashString@@V?$allocator@VioHashString@@@std@@@std@@@2@0@Z ; std::vector<ioHashString,std::allocator<ioHashString> >::erase
; Function compile flags: /Ogsp
;	COMDAT ?erase@?$vector@VioHashString@@V?$allocator@VioHashString@@@std@@@std@@QAE?AV?$_Vector_iterator@V?$_Vector_val@VioHashString@@V?$allocator@VioHashString@@@std@@@std@@@2@V?$_Vector_const_iterator@V?$_Vector_val@VioHashString@@V?$allocator@VioHashString@@@std@@@std@@@2@0@Z
_TEXT	SEGMENT
$T516606 = -4						; size = 4
___$ReturnUdt$ = 8					; size = 4
__First_arg$ = 12					; size = 4
__Cat$516550 = 16					; size = 1
__Last_arg$ = 16					; size = 4
?erase@?$vector@VioHashString@@V?$allocator@VioHashString@@@std@@@std@@QAE?AV?$_Vector_iterator@V?$_Vector_val@VioHashString@@V?$allocator@VioHashString@@@std@@@std@@@2@V?$_Vector_const_iterator@V?$_Vector_val@VioHashString@@V?$allocator@VioHashString@@@std@@@std@@@2@0@Z PROC ; std::vector<ioHashString,std::allocator<ioHashString> >::erase, COMDAT
; _this$ = ecx

; 1190 : 		{	// erase [_First, _Last)

  00000	55		 push	 ebp
  00001	8b ec		 mov	 ebp, esp
  00003	51		 push	 ecx

; 1191 : 		iterator _First = _Make_iter(_First_arg);

  00004	8b 45 08	 mov	 eax, DWORD PTR ___$ReturnUdt$[ebp]
  00007	56		 push	 esi
  00008	8b f1		 mov	 esi, ecx
  0000a	8b 4d 0c	 mov	 ecx, DWORD PTR __First_arg$[ebp]
  0000d	89 08		 mov	 DWORD PTR [eax], ecx

; 1192 : 		iterator _Last = _Make_iter(_Last_arg);
; 1193 : 
; 1194 : 		if (_First != _Last)

  0000f	3b 4d 10	 cmp	 ecx, DWORD PTR __Last_arg$[ebp]
  00012	74 38		 je	 SHORT $LN1@erase@4

; 1195 : 			{	// worth doing, copy down over hole
; 1196 :  #if _ITERATOR_DEBUG_LEVEL == 2
; 1197 : 			if (_Last < _First || _VICONT(_First) != this
; 1198 : 				|| _VIPTR(_First) < this->_Myfirst
; 1199 : 				|| this->_Mylast < _VIPTR(_Last))
; 1200 : 				_DEBUG_ERROR("vector erase iterator outside range");
; 1201 : 			pointer _Ptr = _Move(_VIPTR(_Last), this->_Mylast,
; 1202 : 				_VIPTR(_First));
; 1203 : 			_Orphan_range(_VIPTR(_First), this->_Mylast);
; 1204 : 
; 1205 :  #else /* _ITERATOR_DEBUG_LEVEL == 2 */
; 1206 : 			pointer _Ptr = _Move(_VIPTR(_Last), this->_Mylast,
; 1207 : 				_VIPTR(_First));

  00014	8b 46 04	 mov	 eax, DWORD PTR [esi+4]
  00017	53		 push	 ebx
  00018	57		 push	 edi
  00019	ff 75 10	 push	 DWORD PTR __Cat$516550[ebp]
  0001c	51		 push	 ecx
  0001d	50		 push	 eax
  0001e	ff 75 10	 push	 DWORD PTR __Last_arg$[ebp]
  00021	e8 00 00 00 00	 call	 ??$_Move@PAVioHashString@@PAV1@@std@@YAPAVioHashString@@PAV1@00U_Nonscalar_ptr_iterator_tag@0@@Z ; std::_Move<ioHashString *,ioHashString *>

; 1208 :  #endif /* _ITERATOR_DEBUG_LEVEL == 2 */
; 1209 : 
; 1210 : 			_Destroy(_Ptr, this->_Mylast);

  00026	8b 7e 04	 mov	 edi, DWORD PTR [esi+4]
  00029	8b d8		 mov	 ebx, eax
  0002b	83 c4 10	 add	 esp, 16			; 00000010H
  0002e	89 5d fc	 mov	 DWORD PTR $T516606[ebp], ebx
  00031	3b df		 cmp	 ebx, edi
  00033	74 12		 je	 SHORT $LN36@erase@4
$LL52@erase@4:
  00035	8b 4d fc	 mov	 ecx, DWORD PTR $T516606[ebp]
  00038	ff 15 00 00 00
	00		 call	 DWORD PTR __imp_??1ioHashString@@QAE@XZ
  0003e	83 45 fc 10	 add	 DWORD PTR $T516606[ebp], 16 ; 00000010H
  00042	39 7d fc	 cmp	 DWORD PTR $T516606[ebp], edi
  00045	75 ee		 jne	 SHORT $LL52@erase@4
$LN36@erase@4:

; 1211 : 			this->_Mylast = _Ptr;

  00047	5f		 pop	 edi
  00048	89 5e 04	 mov	 DWORD PTR [esi+4], ebx
  0004b	5b		 pop	 ebx
$LN1@erase@4:

; 1212 : 			}
; 1213 : 		return (_First);

  0004c	8b 45 08	 mov	 eax, DWORD PTR ___$ReturnUdt$[ebp]
  0004f	5e		 pop	 esi

; 1214 : 		}

  00050	c9		 leave
  00051	c2 0c 00	 ret	 12			; 0000000cH
?erase@?$vector@VioHashString@@V?$allocator@VioHashString@@@std@@@std@@QAE?AV?$_Vector_iterator@V?$_Vector_val@VioHashString@@V?$allocator@VioHashString@@@std@@@std@@@2@V?$_Vector_const_iterator@V?$_Vector_val@VioHashString@@V?$allocator@VioHashString@@@std@@@std@@@2@0@Z ENDP ; std::vector<ioHashString,std::allocator<ioHashString> >::erase
_TEXT	ENDS
PUBLIC	?_Tidy@?$vector@VioHashString@@V?$allocator@VioHashString@@@std@@@std@@IAEXXZ ; std::vector<ioHashString,std::allocator<ioHashString> >::_Tidy
; Function compile flags: /Ogsp
;	COMDAT ?_Tidy@?$vector@VioHashString@@V?$allocator@VioHashString@@@std@@@std@@IAEXXZ
_TEXT	SEGMENT
?_Tidy@?$vector@VioHashString@@V?$allocator@VioHashString@@@std@@@std@@IAEXXZ PROC ; std::vector<ioHashString,std::allocator<ioHashString> >::_Tidy, COMDAT
; _this$ = ecx

; 1301 : 		{	// free all storage

  00000	56		 push	 esi
  00001	8b f1		 mov	 esi, ecx

; 1302 : 		if (this->_Myfirst != 0)

  00003	83 3e 00	 cmp	 DWORD PTR [esi], 0
  00006	74 28		 je	 SHORT $LN24@Tidy

; 1303 : 			{	// something to free, destroy and deallocate it
; 1304 : 			this->_Orphan_all();

  00008	53		 push	 ebx
  00009	57		 push	 edi
  0000a	ff 15 00 00 00
	00		 call	 DWORD PTR __imp_?_Orphan_all@_Container_base0@std@@QAEXXZ

; 1305 : 			_Destroy(this->_Myfirst, this->_Mylast);

  00010	8b 5e 04	 mov	 ebx, DWORD PTR [esi+4]
  00013	8b 3e		 mov	 edi, DWORD PTR [esi]
  00015	eb 0b		 jmp	 SHORT $LN28@Tidy
$LL12@Tidy:
  00017	8b cf		 mov	 ecx, edi
  00019	ff 15 00 00 00
	00		 call	 DWORD PTR __imp_??1ioHashString@@QAE@XZ
  0001f	83 c7 10	 add	 edi, 16			; 00000010H
$LN28@Tidy:
  00022	3b fb		 cmp	 edi, ebx
  00024	75 f1		 jne	 SHORT $LL12@Tidy

; 1306 : 			this->_Alval.deallocate(this->_Myfirst,
; 1307 : 				this->_Myend - this->_Myfirst);

  00026	ff 36		 push	 DWORD PTR [esi]
  00028	e8 00 00 00 00	 call	 ??3@YAXPAX@Z		; operator delete
  0002d	59		 pop	 ecx
  0002e	5f		 pop	 edi
  0002f	5b		 pop	 ebx
$LN24@Tidy:

; 1308 : 			}
; 1309 : 		this->_Myfirst = 0;

  00030	33 c0		 xor	 eax, eax
  00032	89 06		 mov	 DWORD PTR [esi], eax

; 1310 : 		this->_Mylast = 0;

  00034	89 46 04	 mov	 DWORD PTR [esi+4], eax

; 1311 : 		this->_Myend = 0;

  00037	89 46 08	 mov	 DWORD PTR [esi+8], eax
  0003a	5e		 pop	 esi

; 1312 : 		}

  0003b	c3		 ret	 0
?_Tidy@?$vector@VioHashString@@V?$allocator@VioHashString@@@std@@@std@@IAEXXZ ENDP ; std::vector<ioHashString,std::allocator<ioHashString> >::_Tidy
_TEXT	ENDS
PUBLIC	?push_back@?$vector@VioHashString@@V?$allocator@VioHashString@@@std@@@std@@QAEX$$QAVioHashString@@@Z ; std::vector<ioHashString,std::allocator<ioHashString> >::push_back
; Function compile flags: /Ogsp
;	COMDAT ?push_back@?$vector@VioHashString@@V?$allocator@VioHashString@@@std@@@std@@QAEX$$QAVioHashString@@@Z
_TEXT	SEGMENT
__Val$ = 8						; size = 4
?push_back@?$vector@VioHashString@@V?$allocator@VioHashString@@@std@@@std@@QAEX$$QAVioHashString@@@Z PROC ; std::vector<ioHashString,std::allocator<ioHashString> >::push_back, COMDAT
; _this$ = ecx

; 631  : 		{	// insert element at end

  00000	55		 push	 ebp
  00001	8b ec		 mov	 ebp, esp
  00003	56		 push	 esi
  00004	8b f1		 mov	 esi, ecx

; 632  : 		if (_Inside(_STD addressof(_Val)))

  00006	8b 46 04	 mov	 eax, DWORD PTR [esi+4]
  00009	57		 push	 edi
  0000a	8b 7d 08	 mov	 edi, DWORD PTR __Val$[ebp]
  0000d	3b f8		 cmp	 edi, eax
  0000f	73 1d		 jae	 SHORT $LN4@push_back
  00011	8b 0e		 mov	 ecx, DWORD PTR [esi]
  00013	3b cf		 cmp	 ecx, edi
  00015	77 17		 ja	 SHORT $LN4@push_back

; 633  : 			{	// push back an element
; 634  : 			size_type _Idx = _STD addressof(_Val) - this->_Myfirst;

  00017	2b f9		 sub	 edi, ecx

; 635  : 			if (this->_Mylast == this->_Myend)

  00019	3b 46 08	 cmp	 eax, DWORD PTR [esi+8]
  0001c	75 09		 jne	 SHORT $LN3@push_back

; 636  : 				_Reserve(1);

  0001e	6a 01		 push	 1
  00020	8b ce		 mov	 ecx, esi
  00022	e8 00 00 00 00	 call	 ?_Reserve@?$vector@VioHashString@@V?$allocator@VioHashString@@@std@@@std@@IAEXI@Z ; std::vector<ioHashString,std::allocator<ioHashString> >::_Reserve
$LN3@push_back:

; 637  : 			_Orphan_range(this->_Mylast, this->_Mylast);
; 638  : 			_Cons_val(this->_Alval,
; 639  : 				this->_Mylast,
; 640  : 				_STD forward<_Ty>(this->_Myfirst[_Idx]));

  00027	83 e7 f0	 and	 edi, -16		; fffffff0H
  0002a	03 3e		 add	 edi, DWORD PTR [esi]

; 641  : 			++this->_Mylast;
; 642  : 			}
; 643  : 		else

  0002c	eb 0e		 jmp	 SHORT $LN1@push_back
$LN4@push_back:

; 644  : 			{	// push back a non-element
; 645  : 			if (this->_Mylast == this->_Myend)

  0002e	3b 46 08	 cmp	 eax, DWORD PTR [esi+8]
  00031	75 09		 jne	 SHORT $LN1@push_back

; 646  : 				_Reserve(1);

  00033	6a 01		 push	 1
  00035	8b ce		 mov	 ecx, esi
  00037	e8 00 00 00 00	 call	 ?_Reserve@?$vector@VioHashString@@V?$allocator@VioHashString@@@std@@@std@@IAEXI@Z ; std::vector<ioHashString,std::allocator<ioHashString> >::_Reserve
$LN1@push_back:

; 647  : 			_Orphan_range(this->_Mylast, this->_Mylast);
; 648  : 			_Cons_val(this->_Alval,
; 649  : 				this->_Mylast,
; 650  : 				_STD forward<_Ty>(_Val));

  0003c	57		 push	 edi
  0003d	ff 76 04	 push	 DWORD PTR [esi+4]
  00040	8d 4e 0c	 lea	 ecx, DWORD PTR [esi+12]
  00043	e8 00 00 00 00	 call	 ?construct@?$allocator@VioHashString@@@std@@QAEXPAVioHashString@@$$QAV3@@Z ; std::allocator<ioHashString>::construct

; 651  : 			++this->_Mylast;

  00048	83 46 04 10	 add	 DWORD PTR [esi+4], 16	; 00000010H
  0004c	5f		 pop	 edi
  0004d	5e		 pop	 esi

; 652  : 			}
; 653  : 		}

  0004e	5d		 pop	 ebp
  0004f	c2 04 00	 ret	 4
?push_back@?$vector@VioHashString@@V?$allocator@VioHashString@@@std@@@std@@QAEX$$QAVioHashString@@@Z ENDP ; std::vector<ioHashString,std::allocator<ioHashString> >::push_back
_TEXT	ENDS
PUBLIC	?push_back@?$vector@VioHashString@@V?$allocator@VioHashString@@@std@@@std@@QAEXABVioHashString@@@Z ; std::vector<ioHashString,std::allocator<ioHashString> >::push_back
; Function compile flags: /Ogsp
;	COMDAT ?push_back@?$vector@VioHashString@@V?$allocator@VioHashString@@@std@@@std@@QAEXABVioHashString@@@Z
_TEXT	SEGMENT
__Val$ = 8						; size = 4
?push_back@?$vector@VioHashString@@V?$allocator@VioHashString@@@std@@@std@@QAEXABVioHashString@@@Z PROC ; std::vector<ioHashString,std::allocator<ioHashString> >::push_back, COMDAT
; _this$ = ecx

; 976  : 		{	// insert element at end

  00000	55		 push	 ebp
  00001	8b ec		 mov	 ebp, esp
  00003	56		 push	 esi
  00004	8b f1		 mov	 esi, ecx

; 977  : 		if (_Inside(_STD addressof(_Val)))

  00006	8b 46 04	 mov	 eax, DWORD PTR [esi+4]
  00009	57		 push	 edi
  0000a	8b 7d 08	 mov	 edi, DWORD PTR __Val$[ebp]
  0000d	3b f8		 cmp	 edi, eax
  0000f	73 29		 jae	 SHORT $LN4@push_back@2
  00011	8b 0e		 mov	 ecx, DWORD PTR [esi]
  00013	3b cf		 cmp	 ecx, edi
  00015	77 23		 ja	 SHORT $LN4@push_back@2

; 978  : 			{	// push back an element
; 979  : 			size_type _Idx = _STD addressof(_Val) - this->_Myfirst;

  00017	2b f9		 sub	 edi, ecx

; 980  : 			if (this->_Mylast == this->_Myend)

  00019	3b 46 08	 cmp	 eax, DWORD PTR [esi+8]
  0001c	75 09		 jne	 SHORT $LN3@push_back@2

; 981  : 				_Reserve(1);

  0001e	6a 01		 push	 1
  00020	8b ce		 mov	 ecx, esi
  00022	e8 00 00 00 00	 call	 ?_Reserve@?$vector@VioHashString@@V?$allocator@VioHashString@@@std@@@std@@IAEXI@Z ; std::vector<ioHashString,std::allocator<ioHashString> >::_Reserve
$LN3@push_back@2:

; 982  : 			_Orphan_range(this->_Mylast, this->_Mylast);
; 983  : 			_Cons_val(this->_Alval,
; 984  : 				this->_Mylast,
; 985  : 				this->_Myfirst[_Idx]);

  00027	83 e7 f0	 and	 edi, -16		; fffffff0H
  0002a	03 3e		 add	 edi, DWORD PTR [esi]
  0002c	8d 4e 0c	 lea	 ecx, DWORD PTR [esi+12]
  0002f	57		 push	 edi
  00030	ff 76 04	 push	 DWORD PTR [esi+4]
  00033	e8 00 00 00 00	 call	 ??$construct@AAVioHashString@@@?$allocator@VioHashString@@@std@@QAEXPAVioHashString@@AAV2@@Z ; std::allocator<ioHashString>::construct<ioHashString &>

; 986  : 			++this->_Mylast;
; 987  : 			}
; 988  : 		else

  00038	eb 19		 jmp	 SHORT $LN30@push_back@2
$LN4@push_back@2:

; 989  : 			{	// push back a non-element
; 990  : 			if (this->_Mylast == this->_Myend)

  0003a	3b 46 08	 cmp	 eax, DWORD PTR [esi+8]
  0003d	75 09		 jne	 SHORT $LN1@push_back@2

; 991  : 				_Reserve(1);

  0003f	6a 01		 push	 1
  00041	8b ce		 mov	 ecx, esi
  00043	e8 00 00 00 00	 call	 ?_Reserve@?$vector@VioHashString@@V?$allocator@VioHashString@@@std@@@std@@IAEXI@Z ; std::vector<ioHashString,std::allocator<ioHashString> >::_Reserve
$LN1@push_back@2:

; 992  : 			_Orphan_range(this->_Mylast, this->_Mylast);
; 993  : 			_Cons_val(this->_Alval,
; 994  : 				this->_Mylast,
; 995  : 				_Val);

  00048	57		 push	 edi
  00049	ff 76 04	 push	 DWORD PTR [esi+4]
  0004c	e8 00 00 00 00	 call	 ??$_Construct@VioHashString@@ABV1@@std@@YAXPAVioHashString@@ABV1@@Z ; std::_Construct<ioHashString,ioHashString const &>
  00051	59		 pop	 ecx
  00052	59		 pop	 ecx
$LN30@push_back@2:

; 996  : 			++this->_Mylast;

  00053	83 46 04 10	 add	 DWORD PTR [esi+4], 16	; 00000010H
  00057	5f		 pop	 edi
  00058	5e		 pop	 esi

; 997  : 			}
; 998  : 		}

  00059	5d		 pop	 ebp
  0005a	c2 04 00	 ret	 4
?push_back@?$vector@VioHashString@@V?$allocator@VioHashString@@@std@@@std@@QAEXABVioHashString@@@Z ENDP ; std::vector<ioHashString,std::allocator<ioHashString> >::push_back
_TEXT	ENDS
PUBLIC	??1?$vector@VioHashString@@V?$allocator@VioHashString@@@std@@@std@@QAE@XZ ; std::vector<ioHashString,std::allocator<ioHashString> >::~vector<ioHashString,std::allocator<ioHashString> >
; Function compile flags: /Ogsp
;	COMDAT ??1?$vector@VioHashString@@V?$allocator@VioHashString@@@std@@@std@@QAE@XZ
_TEXT	SEGMENT
??1?$vector@VioHashString@@V?$allocator@VioHashString@@@std@@@std@@QAE@XZ PROC ; std::vector<ioHashString,std::allocator<ioHashString> >::~vector<ioHashString,std::allocator<ioHashString> >, COMDAT
; _this$ = ecx

; 705  : 		_Tidy();

  00000	e9 00 00 00 00	 jmp	 ?_Tidy@?$vector@VioHashString@@V?$allocator@VioHashString@@@std@@@std@@IAEXXZ ; std::vector<ioHashString,std::allocator<ioHashString> >::_Tidy
??1?$vector@VioHashString@@V?$allocator@VioHashString@@@std@@@std@@QAE@XZ ENDP ; std::vector<ioHashString,std::allocator<ioHashString> >::~vector<ioHashString,std::allocator<ioHashString> >
_TEXT	ENDS
PUBLIC	?clear@?$vector@VioHashString@@V?$allocator@VioHashString@@@std@@@std@@QAEXXZ ; std::vector<ioHashString,std::allocator<ioHashString> >::clear
; Function compile flags: /Ogsp
;	COMDAT ?clear@?$vector@VioHashString@@V?$allocator@VioHashString@@@std@@@std@@QAEXXZ
_TEXT	SEGMENT
$T516866 = -4						; size = 4
?clear@?$vector@VioHashString@@V?$allocator@VioHashString@@@std@@@std@@QAEXXZ PROC ; std::vector<ioHashString,std::allocator<ioHashString> >::clear, COMDAT
; _this$ = ecx

; 1217 : 		{	// erase all

  00000	55		 push	 ebp
  00001	8b ec		 mov	 ebp, esp
  00003	51		 push	 ecx

; 1218 : 		erase(begin(), end());

  00004	8b 41 04	 mov	 eax, DWORD PTR [ecx+4]
  00007	8b 11		 mov	 edx, DWORD PTR [ecx]
  00009	50		 push	 eax
  0000a	52		 push	 edx
  0000b	8d 45 fc	 lea	 eax, DWORD PTR $T516866[ebp]
  0000e	50		 push	 eax
  0000f	e8 00 00 00 00	 call	 ?erase@?$vector@VioHashString@@V?$allocator@VioHashString@@@std@@@std@@QAE?AV?$_Vector_iterator@V?$_Vector_val@VioHashString@@V?$allocator@VioHashString@@@std@@@std@@@2@V?$_Vector_const_iterator@V?$_Vector_val@VioHashString@@V?$allocator@VioHashString@@@std@@@std@@@2@0@Z ; std::vector<ioHashString,std::allocator<ioHashString> >::erase

; 1219 : 		}

  00014	c9		 leave
  00015	c3		 ret	 0
?clear@?$vector@VioHashString@@V?$allocator@VioHashString@@@std@@@std@@QAEXXZ ENDP ; std::vector<ioHashString,std::allocator<ioHashString> >::clear
_TEXT	ENDS
PUBLIC	??_7ioUI3DRender@@6B@				; ioUI3DRender::`vftable'
PUBLIC	??0ioUI3DRender@@QAE@XZ				; ioUI3DRender::ioUI3DRender
PUBLIC	??_R4ioUI3DRender@@6B@				; ioUI3DRender::`RTTI Complete Object Locator'
PUBLIC	??_R0?AVioUI3DRender@@@8			; ioUI3DRender `RTTI Type Descriptor'
PUBLIC	??_R3ioUI3DRender@@8				; ioUI3DRender::`RTTI Class Hierarchy Descriptor'
PUBLIC	??_R2ioUI3DRender@@8				; ioUI3DRender::`RTTI Base Class Array'
PUBLIC	??_R1A@?0A@EA@ioUI3DRender@@8			; ioUI3DRender::`RTTI Base Class Descriptor at (0,-1,0,64)'
EXTRN	??_EioUI3DRender@@UAEPAXI@Z:PROC		; ioUI3DRender::`vector deleting destructor'
;	COMDAT ??_R1A@?0A@EA@ioUI3DRender@@8
; File c:\program files (x86)\microsoft visual studio 10.0\vc\include\xmemory
rdata$r	SEGMENT
??_R1A@?0A@EA@ioUI3DRender@@8 DD FLAT:??_R0?AVioUI3DRender@@@8 ; ioUI3DRender::`RTTI Base Class Descriptor at (0,-1,0,64)'
	DD	00H
	DD	00H
	DD	0ffffffffH
	DD	00H
	DD	040H
	DD	FLAT:??_R3ioUI3DRender@@8
rdata$r	ENDS
;	COMDAT ??_R2ioUI3DRender@@8
rdata$r	SEGMENT
??_R2ioUI3DRender@@8 DD FLAT:??_R1A@?0A@EA@ioUI3DRender@@8 ; ioUI3DRender::`RTTI Base Class Array'
rdata$r	ENDS
;	COMDAT ??_R3ioUI3DRender@@8
rdata$r	SEGMENT
??_R3ioUI3DRender@@8 DD 00H				; ioUI3DRender::`RTTI Class Hierarchy Descriptor'
	DD	00H
	DD	01H
	DD	FLAT:??_R2ioUI3DRender@@8
rdata$r	ENDS
;	COMDAT ??_R0?AVioUI3DRender@@@8
_DATA	SEGMENT
??_R0?AVioUI3DRender@@@8 DD FLAT:??_7type_info@@6B@	; ioUI3DRender `RTTI Type Descriptor'
	DD	00H
	DB	'.?AVioUI3DRender@@', 00H
_DATA	ENDS
;	COMDAT ??_R4ioUI3DRender@@6B@
rdata$r	SEGMENT
??_R4ioUI3DRender@@6B@ DD 00H				; ioUI3DRender::`RTTI Complete Object Locator'
	DD	00H
	DD	00H
	DD	FLAT:??_R0?AVioUI3DRender@@@8
	DD	FLAT:??_R3ioUI3DRender@@8
rdata$r	ENDS
;	COMDAT ??_7ioUI3DRender@@6B@
CONST	SEGMENT
??_7ioUI3DRender@@6B@ DD FLAT:??_R4ioUI3DRender@@6B@	; ioUI3DRender::`vftable'
	DD	FLAT:??_EioUI3DRender@@UAEPAXI@Z
CONST	ENDS
;	COMDAT xdata$x
xdata$x	SEGMENT
__unwindtable$??0ioUI3DRender@@QAE@XZ DD 0ffffffffH
	DD	FLAT:__unwindfunclet$??0ioUI3DRender@@QAE@XZ$0
__ehfuncinfo$??0ioUI3DRender@@QAE@XZ DD 019930522H
	DD	01H
	DD	FLAT:__unwindtable$??0ioUI3DRender@@QAE@XZ
	DD	2 DUP(00H)
	DD	2 DUP(00H)
	DD	00H
	DD	01H
; Function compile flags: /Ogsp
; File d:\lost saga for developer\youtube\tutorial\source\src\lsclient\gui\ioui3drender.cpp
xdata$x	ENDS
;	COMDAT ??0ioUI3DRender@@QAE@XZ
_TEXT	SEGMENT
$T516952 = -20						; size = 4
$T516955 = -20						; size = 4
_this$ = -16						; size = 4
__$EHRec$ = -12						; size = 12
??0ioUI3DRender@@QAE@XZ PROC				; ioUI3DRender::ioUI3DRender, COMDAT
; _this$ = ecx

; 129  : {

  00000	6a 08		 push	 8
  00002	b8 00 00 00 00	 mov	 eax, __ehhandler$??0ioUI3DRender@@QAE@XZ
  00007	e8 00 00 00 00	 call	 __EH_prolog3
  0000c	8b f1		 mov	 esi, ecx
  0000e	89 75 f0	 mov	 DWORD PTR _this$[ebp], esi
  00011	33 ff		 xor	 edi, edi
  00013	c7 06 00 00 00
	00		 mov	 DWORD PTR [esi], OFFSET ??_7ioUI3DRender@@6B@
  00019	89 7e 2c	 mov	 DWORD PTR [esi+44], edi
  0001c	89 7e 30	 mov	 DWORD PTR [esi+48], edi
  0001f	89 7e 34	 mov	 DWORD PTR [esi+52], edi
  00022	8d 4e 3c	 lea	 ecx, DWORD PTR [esi+60]
  00025	51		 push	 ecx
  00026	89 65 ec	 mov	 DWORD PTR $T516955[ebp], esp
  00029	89 7d fc	 mov	 DWORD PTR __$EHRec$[ebp+8], edi
  0002c	89 65 ec	 mov	 DWORD PTR $T516952[ebp], esp
  0002f	e8 00 00 00 00	 call	 ??0?$_List_val@PAVioEffect@@V?$allocator@PAVioEffect@@@std@@@std@@QAE@V?$allocator@PAVioEffect@@@1@@Z ; std::_List_val<ioEffect *,std::allocator<ioEffect *> >::_List_val<ioEffect *,std::allocator<ioEffect *> >

; 130  : 	m_pSceneMgr = NULL;

  00034	89 7e 04	 mov	 DWORD PTR [esi+4], edi

; 131  : 	m_pCamera = NULL;

  00037	89 7e 08	 mov	 DWORD PTR [esi+8], edi

; 132  : }

  0003a	8b c6		 mov	 eax, esi
  0003c	e8 00 00 00 00	 call	 __EH_epilog3
  00041	c3		 ret	 0
_TEXT	ENDS
;	COMDAT text$x
text$x	SEGMENT
__unwindfunclet$??0ioUI3DRender@@QAE@XZ$0:
  00000	8b 4d f0	 mov	 ecx, DWORD PTR _this$[ebp]
  00003	83 c1 2c	 add	 ecx, 44			; 0000002cH
  00006	e9 00 00 00 00	 jmp	 ??1?$vector@VioHashString@@V?$allocator@VioHashString@@@std@@@std@@QAE@XZ ; std::vector<ioHashString,std::allocator<ioHashString> >::~vector<ioHashString,std::allocator<ioHashString> >
__ehhandler$??0ioUI3DRender@@QAE@XZ:
  0000b	8b 54 24 08	 mov	 edx, DWORD PTR [esp+8]
  0000f	8d 42 0c	 lea	 eax, DWORD PTR [edx+12]
  00012	8b 4a e8	 mov	 ecx, DWORD PTR [edx-24]
  00015	33 c8		 xor	 ecx, eax
  00017	e8 00 00 00 00	 call	 @__security_check_cookie@4
  0001c	b8 00 00 00 00	 mov	 eax, OFFSET __ehfuncinfo$??0ioUI3DRender@@QAE@XZ
  00021	e9 00 00 00 00	 jmp	 ___CxxFrameHandler3
text$x	ENDS
??0ioUI3DRender@@QAE@XZ ENDP				; ioUI3DRender::ioUI3DRender
PUBLIC	??1ioUI3DRender@@UAE@XZ				; ioUI3DRender::~ioUI3DRender
;	COMDAT xdata$x
; File c:\program files (x86)\microsoft visual studio 10.0\vc\include\vector
xdata$x	SEGMENT
__unwindtable$??1ioUI3DRender@@UAE@XZ DD 0ffffffffH
	DD	FLAT:__unwindfunclet$??1ioUI3DRender@@UAE@XZ$0
	DD	00H
	DD	FLAT:__unwindfunclet$??1ioUI3DRender@@UAE@XZ$1
__ehfuncinfo$??1ioUI3DRender@@UAE@XZ DD 019930522H
	DD	02H
	DD	FLAT:__unwindtable$??1ioUI3DRender@@UAE@XZ
	DD	2 DUP(00H)
	DD	2 DUP(00H)
	DD	00H
	DD	01H
; Function compile flags: /Ogsp
; File d:\lost saga for developer\youtube\tutorial\source\src\lsclient\gui\ioui3drender.cpp
xdata$x	ENDS
;	COMDAT ??1ioUI3DRender@@UAE@XZ
_TEXT	SEGMENT
_this$ = -16						; size = 4
__$EHRec$ = -12						; size = 12
??1ioUI3DRender@@UAE@XZ PROC				; ioUI3DRender::~ioUI3DRender, COMDAT
; _this$ = ecx

; 135  : {

  00000	6a 04		 push	 4
  00002	b8 00 00 00 00	 mov	 eax, __ehhandler$??1ioUI3DRender@@UAE@XZ
  00007	e8 00 00 00 00	 call	 __EH_prolog3
  0000c	8b f1		 mov	 esi, ecx
  0000e	89 75 f0	 mov	 DWORD PTR _this$[ebp], esi
  00011	c7 06 00 00 00
	00		 mov	 DWORD PTR [esi], OFFSET ??_7ioUI3DRender@@6B@
  00017	c7 45 fc 01 00
	00 00		 mov	 DWORD PTR __$EHRec$[ebp+8], 1

; 136  : 	Destroy();

  0001e	e8 00 00 00 00	 call	 ?Destroy@ioUI3DRender@@QAEXXZ ; ioUI3DRender::Destroy

; 137  : }

  00023	8d 4e 3c	 lea	 ecx, DWORD PTR [esi+60]
  00026	e8 00 00 00 00	 call	 ?clear@?$list@PAVioEffect@@V?$allocator@PAVioEffect@@@std@@@std@@QAEXXZ ; std::list<ioEffect *,std::allocator<ioEffect *> >::clear
  0002b	ff 76 3c	 push	 DWORD PTR [esi+60]
  0002e	e8 00 00 00 00	 call	 ??3@YAXPAX@Z		; operator delete
  00033	83 4d fc ff	 or	 DWORD PTR __$EHRec$[ebp+8], -1
  00037	59		 pop	 ecx
  00038	8d 4e 2c	 lea	 ecx, DWORD PTR [esi+44]
  0003b	e8 00 00 00 00	 call	 ?_Tidy@?$vector@VioHashString@@V?$allocator@VioHashString@@@std@@@std@@IAEXXZ ; std::vector<ioHashString,std::allocator<ioHashString> >::_Tidy
  00040	e8 00 00 00 00	 call	 __EH_epilog3
  00045	c3		 ret	 0
_TEXT	ENDS
;	COMDAT text$x
text$x	SEGMENT
__unwindfunclet$??1ioUI3DRender@@UAE@XZ$0:
  00000	8b 4d f0	 mov	 ecx, DWORD PTR _this$[ebp]
  00003	83 c1 2c	 add	 ecx, 44			; 0000002cH
  00006	e9 00 00 00 00	 jmp	 ??1?$vector@VioHashString@@V?$allocator@VioHashString@@@std@@@std@@QAE@XZ ; std::vector<ioHashString,std::allocator<ioHashString> >::~vector<ioHashString,std::allocator<ioHashString> >
__unwindfunclet$??1ioUI3DRender@@UAE@XZ$1:
  0000b	8b 4d f0	 mov	 ecx, DWORD PTR _this$[ebp]
  0000e	83 c1 3c	 add	 ecx, 60			; 0000003cH
  00011	e9 00 00 00 00	 jmp	 ??1?$list@PAVioEffect@@V?$allocator@PAVioEffect@@@std@@@std@@QAE@XZ ; std::list<ioEffect *,std::allocator<ioEffect *> >::~list<ioEffect *,std::allocator<ioEffect *> >
__ehhandler$??1ioUI3DRender@@UAE@XZ:
  00016	8b 54 24 08	 mov	 edx, DWORD PTR [esp+8]
  0001a	8d 42 0c	 lea	 eax, DWORD PTR [edx+12]
  0001d	8b 4a ec	 mov	 ecx, DWORD PTR [edx-20]
  00020	33 c8		 xor	 ecx, eax
  00022	e8 00 00 00 00	 call	 @__security_check_cookie@4
  00027	b8 00 00 00 00	 mov	 eax, OFFSET __ehfuncinfo$??1ioUI3DRender@@UAE@XZ
  0002c	e9 00 00 00 00	 jmp	 ___CxxFrameHandler3
text$x	ENDS
??1ioUI3DRender@@UAE@XZ ENDP				; ioUI3DRender::~ioUI3DRender
PUBLIC	??_C@_0BB@MFKKPKGO@public_delay?4ani?$AA@	; `string'
PUBLIC	__real@406fe00000000000
PUBLIC	??_C@_03FAAAOPJM@red?$AA@			; `string'
PUBLIC	__real@42fe0000
PUBLIC	??_SioSceneManager@@6B@				; ioSceneManager::`local vftable'
PUBLIC	__real@43480000
PUBLIC	??_SioLookAtCameraController@@6B@		; ioLookAtCameraController::`local vftable'
PUBLIC	_this$GSCopy$
PUBLIC	?Initialize@ioUI3DRender@@QAEXPBD0@Z		; ioUI3DRender::Initialize
PUBLIC	??_R4ioLookAtCameraController@@6B@		; ioLookAtCameraController::`RTTI Complete Object Locator'
PUBLIC	??_R3ioLookAtCameraController@@8		; ioLookAtCameraController::`RTTI Class Hierarchy Descriptor'
PUBLIC	??_R2ioLookAtCameraController@@8		; ioLookAtCameraController::`RTTI Base Class Array'
PUBLIC	??_R1A@?0A@EA@ioLookAtCameraController@@8	; ioLookAtCameraController::`RTTI Base Class Descriptor at (0,-1,0,64)'
PUBLIC	??_R1A@?0A@EA@ioCameraController@@8		; ioCameraController::`RTTI Base Class Descriptor at (0,-1,0,64)'
PUBLIC	??_R3ioCameraController@@8			; ioCameraController::`RTTI Class Hierarchy Descriptor'
PUBLIC	??_R2ioCameraController@@8			; ioCameraController::`RTTI Base Class Array'
PUBLIC	??_R4ioSceneManager@@6B@			; ioSceneManager::`RTTI Complete Object Locator'
PUBLIC	??_R0?AVioSceneManager@@@8			; ioSceneManager `RTTI Type Descriptor'
PUBLIC	??_R3ioSceneManager@@8				; ioSceneManager::`RTTI Class Hierarchy Descriptor'
PUBLIC	??_R2ioSceneManager@@8				; ioSceneManager::`RTTI Base Class Array'
PUBLIC	??_R1A@?0A@EA@ioSceneManager@@8			; ioSceneManager::`RTTI Base Class Descriptor at (0,-1,0,64)'
EXTRN	__imp_??1ioINILoader@@QAE@XZ:PROC
EXTRN	__imp__wsprintfA:PROC
EXTRN	__imp_??0ioSceneManager@@QAE@PAVioRenderSystem@@@Z:PROC
EXTRN	__imp_?RenderSystem@@YAAAVioRenderSystem@@XZ:PROC
EXTRN	__imp_?SetController@ioCamera@@QAEXPAVioCameraController@@@Z:PROC
EXTRN	__imp_??0ioLookAtCameraController@@QAE@XZ:PROC
EXTRN	__imp_??0ioCamera@@QAE@XZ:PROC
EXTRN	__imp_??0ioINILoader@@QAE@PBD_N@Z:PROC
EXTRN	?Update@ioLookAtCameraController@@UAEXPAVioCameraInput@@@Z:PROC ; ioLookAtCameraController::Update
EXTRN	?CreateViewMatrix@ioLookAtCameraController@@UBEXPAUD3DXMATRIX@@@Z:PROC ; ioLookAtCameraController::CreateViewMatrix
EXTRN	?GetCamCtrlType@ioLookAtCameraController@@UBE?AW4CamCtrlType@ioCameraController@@XZ:PROC ; ioLookAtCameraController::GetCamCtrlType
EXTRN	?GetDirection@ioLookAtCameraController@@UBE?AUD3DXVECTOR3@@XZ:PROC ; ioLookAtCameraController::GetDirection
EXTRN	?GetName@ioLookAtCameraController@@UAEPBDXZ:PROC ; ioLookAtCameraController::GetName
EXTRN	?SetRollValue@ioCameraController@@UAEXM@Z:PROC	; ioCameraController::SetRollValue
EXTRN	?SetPosition@ioLookAtCameraController@@UAEXABUD3DXVECTOR3@@@Z:PROC ; ioLookAtCameraController::SetPosition
EXTRN	?SetDirection@ioCameraController@@UAEXMMM@Z:PROC ; ioCameraController::SetDirection
EXTRN	?GetExtraInfoText@ioLookAtCameraController@@UBEXPADH@Z:PROC ; ioLookAtCameraController::GetExtraInfoText
EXTRN	??_EioLookAtCameraController@@UAEPAXI@Z:PROC	; ioLookAtCameraController::`vector deleting destructor'
EXTRN	?UpdateSceneGraph@ioSceneManager@@UAEXPAVioCamera@@PBUD3DXMATRIX@@_N@Z:PROC ; ioSceneManager::UpdateSceneGraph
EXTRN	?RenderVisibleObject@ioSceneManager@@UAEXXZ:PROC ; ioSceneManager::RenderVisibleObject
EXTRN	?RenderVisibleGlowObject@ioSceneManager@@UAEXXZ:PROC ; ioSceneManager::RenderVisibleGlowObject
EXTRN	?ClearScene@ioSceneManager@@UAEXXZ:PROC		; ioSceneManager::ClearScene
EXTRN	?ClearBack@ioSceneManager@@UAEXK@Z:PROC		; ioSceneManager::ClearBack
EXTRN	?FindVisibleObjects@ioSceneManager@@MAEXPAVioCamera@@@Z:PROC ; ioSceneManager::FindVisibleObjects
EXTRN	?FindShadowCasterObjects@ioSceneManager@@MAEXPAVioCamera@@@Z:PROC ; ioSceneManager::FindShadowCasterObjects
EXTRN	?SetShadowMapEnable@ioSceneManager@@UAEX_N@Z:PROC ; ioSceneManager::SetShadowMapEnable
EXTRN	?CreateSceneNode@ioSceneManager@@UAEPAVioSceneNode@@XZ:PROC ; ioSceneManager::CreateSceneNode
EXTRN	?DestroySceneNode@ioSceneManager@@UAEXK@Z:PROC	; ioSceneManager::DestroySceneNode
EXTRN	?GetRootSceneNode@ioSceneManager@@UBEPAVioSceneNode@@XZ:PROC ; ioSceneManager::GetRootSceneNode
EXTRN	?GetSceneNode@ioSceneManager@@UBEPAVioSceneNode@@K@Z:PROC ; ioSceneManager::GetSceneNode
EXTRN	?CreateEntityGrp@ioSceneManager@@UAEPAVioEntityGroup@@XZ:PROC ; ioSceneManager::CreateEntityGrp
EXTRN	?DestroyEntityGrp@ioSceneManager@@UAEXK@Z:PROC	; ioSceneManager::DestroyEntityGrp
EXTRN	?DestroyEntityGrp@ioSceneManager@@UAEXPAVioEntityGroup@@@Z:PROC ; ioSceneManager::DestroyEntityGrp
EXTRN	?DestroyAllEntityGrp@ioSceneManager@@UAEXXZ:PROC ; ioSceneManager::DestroyAllEntityGrp
EXTRN	?GetEntityGrp@ioSceneManager@@UAEPAVioEntityGroup@@K@Z:PROC ; ioSceneManager::GetEntityGrp
EXTRN	?CreateLight@ioSceneManager@@UAEPAVioLight@@ABVioHashString@@@Z:PROC ; ioSceneManager::CreateLight
EXTRN	?DestroyLight@ioSceneManager@@UAEXPAVioLight@@@Z:PROC ; ioSceneManager::DestroyLight
EXTRN	?DestroyLight@ioSceneManager@@UAEXABVioHashString@@@Z:PROC ; ioSceneManager::DestroyLight
EXTRN	?DestroyAllLights@ioSceneManager@@UAEXXZ:PROC	; ioSceneManager::DestroyAllLights
EXTRN	?SetSoftwareVertexBlending@ioSceneManager@@UAEX_N@Z:PROC ; ioSceneManager::SetSoftwareVertexBlending
EXTRN	?ModifyEntityGroupMaterial@ioSceneManager@@UAEXPAVioEntityGrpMaterialModifier@@@Z:PROC ; ioSceneManager::ModifyEntityGroupMaterial
EXTRN	??_EioSceneManager@@UAEPAXI@Z:PROC		; ioSceneManager::`vector deleting destructor'
;	COMDAT ??_R1A@?0A@EA@ioSceneManager@@8
; File c:\program files (x86)\microsoft directx sdk (june 2010)\include\d3dx9math.inl
rdata$r	SEGMENT
??_R1A@?0A@EA@ioSceneManager@@8 DD FLAT:??_R0?AVioSceneManager@@@8 ; ioSceneManager::`RTTI Base Class Descriptor at (0,-1,0,64)'
	DD	00H
	DD	00H
	DD	0ffffffffH
	DD	00H
	DD	040H
	DD	FLAT:??_R3ioSceneManager@@8
rdata$r	ENDS
;	COMDAT ??_R2ioSceneManager@@8
rdata$r	SEGMENT
??_R2ioSceneManager@@8 DD FLAT:??_R1A@?0A@EA@ioSceneManager@@8 ; ioSceneManager::`RTTI Base Class Array'
rdata$r	ENDS
;	COMDAT ??_R3ioSceneManager@@8
rdata$r	SEGMENT
??_R3ioSceneManager@@8 DD 00H				; ioSceneManager::`RTTI Class Hierarchy Descriptor'
	DD	00H
	DD	01H
	DD	FLAT:??_R2ioSceneManager@@8
rdata$r	ENDS
;	COMDAT ??_R0?AVioSceneManager@@@8
_DATA	SEGMENT
??_R0?AVioSceneManager@@@8 DD FLAT:??_7type_info@@6B@	; ioSceneManager `RTTI Type Descriptor'
	DD	00H
	DB	'.?AVioSceneManager@@', 00H
_DATA	ENDS
;	COMDAT ??_R4ioSceneManager@@6B@
rdata$r	SEGMENT
??_R4ioSceneManager@@6B@ DD 00H				; ioSceneManager::`RTTI Complete Object Locator'
	DD	00H
	DD	00H
	DD	FLAT:??_R0?AVioSceneManager@@@8
	DD	FLAT:??_R3ioSceneManager@@8
rdata$r	ENDS
;	COMDAT ??_R2ioCameraController@@8
rdata$r	SEGMENT
??_R2ioCameraController@@8 DD FLAT:??_R1A@?0A@EA@ioCameraController@@8 ; ioCameraController::`RTTI Base Class Array'
rdata$r	ENDS
;	COMDAT ??_R3ioCameraController@@8
rdata$r	SEGMENT
??_R3ioCameraController@@8 DD 00H			; ioCameraController::`RTTI Class Hierarchy Descriptor'
	DD	00H
	DD	01H
	DD	FLAT:??_R2ioCameraController@@8
rdata$r	ENDS
;	COMDAT ??_R1A@?0A@EA@ioCameraController@@8
rdata$r	SEGMENT
??_R1A@?0A@EA@ioCameraController@@8 DD FLAT:??_R0?AVioCameraController@@@8 ; ioCameraController::`RTTI Base Class Descriptor at (0,-1,0,64)'
	DD	00H
	DD	00H
	DD	0ffffffffH
	DD	00H
	DD	040H
	DD	FLAT:??_R3ioCameraController@@8
rdata$r	ENDS
;	COMDAT ??_R1A@?0A@EA@ioLookAtCameraController@@8
rdata$r	SEGMENT
??_R1A@?0A@EA@ioLookAtCameraController@@8 DD FLAT:??_R0?AVioLookAtCameraController@@@8 ; ioLookAtCameraController::`RTTI Base Class Descriptor at (0,-1,0,64)'
	DD	01H
	DD	00H
	DD	0ffffffffH
	DD	00H
	DD	040H
	DD	FLAT:??_R3ioLookAtCameraController@@8
rdata$r	ENDS
;	COMDAT ??_R2ioLookAtCameraController@@8
rdata$r	SEGMENT
??_R2ioLookAtCameraController@@8 DD FLAT:??_R1A@?0A@EA@ioLookAtCameraController@@8 ; ioLookAtCameraController::`RTTI Base Class Array'
	DD	FLAT:??_R1A@?0A@EA@ioCameraController@@8
rdata$r	ENDS
;	COMDAT ??_R3ioLookAtCameraController@@8
rdata$r	SEGMENT
??_R3ioLookAtCameraController@@8 DD 00H			; ioLookAtCameraController::`RTTI Class Hierarchy Descriptor'
	DD	00H
	DD	02H
	DD	FLAT:??_R2ioLookAtCameraController@@8
rdata$r	ENDS
;	COMDAT ??_R4ioLookAtCameraController@@6B@
rdata$r	SEGMENT
??_R4ioLookAtCameraController@@6B@ DD 00H		; ioLookAtCameraController::`RTTI Complete Object Locator'
	DD	00H
	DD	00H
	DD	FLAT:??_R0?AVioLookAtCameraController@@@8
	DD	FLAT:??_R3ioLookAtCameraController@@8
rdata$r	ENDS
;	COMDAT ??_C@_0BB@MFKKPKGO@public_delay?4ani?$AA@
CONST	SEGMENT
??_C@_0BB@MFKKPKGO@public_delay?4ani?$AA@ DB 'public_delay.ani', 00H ; `string'
CONST	ENDS
;	COMDAT __real@406fe00000000000
CONST	SEGMENT
__real@406fe00000000000 DQ 0406fe00000000000r	; 255
CONST	ENDS
;	COMDAT ??_C@_03FAAAOPJM@red?$AA@
CONST	SEGMENT
??_C@_03FAAAOPJM@red?$AA@ DB 'red', 00H			; `string'
CONST	ENDS
;	COMDAT __real@42fe0000
CONST	SEGMENT
__real@42fe0000 DD 042fe0000r			; 127
CONST	ENDS
;	COMDAT ??_SioSceneManager@@6B@
CONST	SEGMENT
??_SioSceneManager@@6B@ DD FLAT:??_R4ioSceneManager@@6B@ ; ioSceneManager::`local vftable'
	DD	FLAT:?UpdateSceneGraph@ioSceneManager@@UAEXPAVioCamera@@PBUD3DXMATRIX@@_N@Z
	DD	FLAT:?RenderVisibleObject@ioSceneManager@@UAEXXZ
	DD	FLAT:?RenderVisibleGlowObject@ioSceneManager@@UAEXXZ
	DD	FLAT:?ClearScene@ioSceneManager@@UAEXXZ
	DD	FLAT:?ClearBack@ioSceneManager@@UAEXK@Z
	DD	FLAT:?FindVisibleObjects@ioSceneManager@@MAEXPAVioCamera@@@Z
	DD	FLAT:?FindShadowCasterObjects@ioSceneManager@@MAEXPAVioCamera@@@Z
	DD	FLAT:?SetShadowMapEnable@ioSceneManager@@UAEX_N@Z
	DD	FLAT:?CreateSceneNode@ioSceneManager@@UAEPAVioSceneNode@@XZ
	DD	FLAT:?DestroySceneNode@ioSceneManager@@UAEXK@Z
	DD	FLAT:?GetRootSceneNode@ioSceneManager@@UBEPAVioSceneNode@@XZ
	DD	FLAT:?GetSceneNode@ioSceneManager@@UBEPAVioSceneNode@@K@Z
	DD	FLAT:?CreateEntityGrp@ioSceneManager@@UAEPAVioEntityGroup@@XZ
	DD	FLAT:?DestroyEntityGrp@ioSceneManager@@UAEXK@Z
	DD	FLAT:?DestroyEntityGrp@ioSceneManager@@UAEXPAVioEntityGroup@@@Z
	DD	FLAT:?DestroyAllEntityGrp@ioSceneManager@@UAEXXZ
	DD	FLAT:?GetEntityGrp@ioSceneManager@@UAEPAVioEntityGroup@@K@Z
	DD	FLAT:?CreateLight@ioSceneManager@@UAEPAVioLight@@ABVioHashString@@@Z
	DD	FLAT:?DestroyLight@ioSceneManager@@UAEXPAVioLight@@@Z
	DD	FLAT:?DestroyLight@ioSceneManager@@UAEXABVioHashString@@@Z
	DD	FLAT:?DestroyAllLights@ioSceneManager@@UAEXXZ
	DD	FLAT:?SetSoftwareVertexBlending@ioSceneManager@@UAEX_N@Z
	DD	FLAT:?ModifyEntityGroupMaterial@ioSceneManager@@UAEXPAVioEntityGrpMaterialModifier@@@Z
	DD	FLAT:??_EioSceneManager@@UAEPAXI@Z
CONST	ENDS
;	COMDAT __real@43480000
CONST	SEGMENT
__real@43480000 DD 043480000r			; 200
CONST	ENDS
;	COMDAT ??_SioLookAtCameraController@@6B@
CONST	SEGMENT
??_SioLookAtCameraController@@6B@ DD FLAT:??_R4ioLookAtCameraController@@6B@ ; ioLookAtCameraController::`local vftable'
	DD	FLAT:?Update@ioLookAtCameraController@@UAEXPAVioCameraInput@@@Z
	DD	FLAT:?CreateViewMatrix@ioLookAtCameraController@@UBEXPAUD3DXMATRIX@@@Z
	DD	FLAT:?GetCamCtrlType@ioLookAtCameraController@@UBE?AW4CamCtrlType@ioCameraController@@XZ
	DD	FLAT:?GetDirection@ioLookAtCameraController@@UBE?AUD3DXVECTOR3@@XZ
	DD	FLAT:?GetName@ioLookAtCameraController@@UAEPBDXZ
	DD	FLAT:?SetRollValue@ioCameraController@@UAEXM@Z
	DD	FLAT:?SetPosition@ioLookAtCameraController@@UAEXABUD3DXVECTOR3@@@Z
	DD	FLAT:?SetDirection@ioCameraController@@UAEXMMM@Z
	DD	FLAT:?GetExtraInfoText@ioLookAtCameraController@@UBEXPADH@Z
	DD	FLAT:??_EioLookAtCameraController@@UAEPAXI@Z
CONST	ENDS
;	COMDAT xdata$x
xdata$x	SEGMENT
__ehfuncinfo$?Initialize@ioUI3DRender@@QAEXPBD0@Z DD 019930522H
	DD	07H
	DD	FLAT:__unwindtable$?Initialize@ioUI3DRender@@QAEXPBD0@Z
	DD	2 DUP(00H)
	DD	2 DUP(00H)
	DD	00H
	DD	01H
__unwindtable$?Initialize@ioUI3DRender@@QAEXPBD0@Z DD 0ffffffffH
	DD	FLAT:__unwindfunclet$?Initialize@ioUI3DRender@@QAEXPBD0@Z$0
	DD	00H
	DD	FLAT:__unwindfunclet$?Initialize@ioUI3DRender@@QAEXPBD0@Z$1
	DD	00H
	DD	FLAT:__unwindfunclet$?Initialize@ioUI3DRender@@QAEXPBD0@Z$2
	DD	00H
	DD	FLAT:__unwindfunclet$?Initialize@ioUI3DRender@@QAEXPBD0@Z$3
	DD	00H
	DD	FLAT:__unwindfunclet$?Initialize@ioUI3DRender@@QAEXPBD0@Z$4
	DD	00H
	DD	FLAT:__unwindfunclet$?Initialize@ioUI3DRender@@QAEXPBD0@Z$5
	DD	00H
	DD	FLAT:__unwindfunclet$?Initialize@ioUI3DRender@@QAEXPBD0@Z$6
; Function compile flags: /Ogsp
; File d:\lost saga for developer\youtube\tutorial\source\src\lsclient\gui\ioui3drender.cpp
xdata$x	ENDS
;	COMDAT ?Initialize@ioUI3DRender@@QAEXPBD0@Z
_TEXT	SEGMENT
_rDiffuse$ = -1764					; size = 16
_vPos$ = -1748						; size = 12
$T517021 = -1736					; size = 16
_vTarget$ = -1720					; size = 12
$T517020 = -1708					; size = 16
$T517022 = -1692					; size = 16
tv16448 = -1676						; size = 4
tv16424 = -1676						; size = 4
tv16415 = -1676						; size = 4
tv14294 = -1676						; size = 4
$T518098 = -1676					; size = 4
$T517009 = -1676					; size = 4
_this$GSCopy$ = -1672					; size = 4
_iMax$ = -1668						; size = 4
$T517017 = -1668					; size = 4
$T517013 = -1668					; size = 4
$T517012 = -1668					; size = 4
_kLoader$ = -1664					; size = 784
$T505770 = -880						; size = 12
_vCamPos$ = -868					; size = 12
_vLightDir$ = -856					; size = 12
_szKey$ = -844						; size = 260
_szBuf$ = -584						; size = 260
__k$517311 = -324					; size = 13
__k$517048 = -304					; size = 13
__k$518172 = -284					; size = 13
__k$517186 = -264					; size = 13
__d$518269 = -244					; size = 13
__k$517926 = -224					; size = 20
___encStr$505809 = -200					; size = 18
__k$519298 = -176					; size = 9
__k$519027 = -160					; size = 9
__k$519156 = -144					; size = 9
__t$517801 = -128					; size = 11
__k$517593 = -112					; size = 6
__k$518944 = -100					; size = 6
__k$518694 = -88					; size = 6
__k$518434 = -76					; size = 6
__k$518819 = -64					; size = 6
__k$517676 = -52					; size = 5
__k$518517 = -40					; size = 5
__t$517439 = -28					; size = 8
__$EHRec$ = -12						; size = 12
_szININame$ = 8						; size = 4
_szCamInfo$ = 12					; size = 4
?Initialize@ioUI3DRender@@QAEXPBD0@Z PROC		; ioUI3DRender::Initialize, COMDAT
; _this$ = ecx

; 140  : {

  00000	68 d8 06 00 00	 push	 1752			; 000006d8H
  00005	b8 00 00 00 00	 mov	 eax, __ehhandler$?Initialize@ioUI3DRender@@QAEXPBD0@Z
  0000a	e8 00 00 00 00	 call	 __EH_prolog3_GS
  0000f	8b 45 08	 mov	 eax, DWORD PTR _szININame$[ebp]
  00012	8b 75 0c	 mov	 esi, DWORD PTR _szCamInfo$[ebp]
  00015	8b f9		 mov	 edi, ecx

; 141  : 	ioINILoader kLoader( szININame );

  00017	6a 01		 push	 1
  00019	50		 push	 eax
  0001a	8d 8d 80 f9 ff
	ff		 lea	 ecx, DWORD PTR _kLoader$[ebp]

; 166  : 
; 167  : 	char szBuf[MAX_PATH], szKey[MAX_PATH];
; 168  : 	kLoader.SetTitle_e( "main_light" );

  00020	89 bd 78 f9 ff
	ff		 mov	 DWORD PTR _this$GSCopy$[ebp], edi
  00026	ff 15 00 00 00
	00		 call	 DWORD PTR __imp_??0ioINILoader@@QAE@PBD_N@Z
  0002c	33 db		 xor	 ebx, ebx
  0002e	68 68 01 00 00	 push	 360			; 00000168H
  00033	89 5d fc	 mov	 DWORD PTR __$EHRec$[ebp+8], ebx
  00036	e8 00 00 00 00	 call	 ??2@YAPAXI@Z		; operator new
  0003b	59		 pop	 ecx
  0003c	89 85 74 f9 ff
	ff		 mov	 DWORD PTR $T517009[ebp], eax
  00042	c6 45 fc 01	 mov	 BYTE PTR __$EHRec$[ebp+8], 1
  00046	3b c3		 cmp	 eax, ebx
  00048	74 0a		 je	 SHORT $LN106@Initialize

; 142  : 
; 143  : 	m_pCamera = new ioCamera;

  0004a	8b c8		 mov	 ecx, eax
  0004c	ff 15 00 00 00
	00		 call	 DWORD PTR __imp_??0ioCamera@@QAE@XZ
  00052	eb 02		 jmp	 SHORT $LN107@Initialize
$LN106@Initialize:
  00054	33 c0		 xor	 eax, eax
$LN107@Initialize:
  00056	89 47 08	 mov	 DWORD PTR [edi+8], eax

; 144  : 
; 145  : 	D3DXVECTOR3 vCamPos;
; 146  : 	kLoader.SetTitle( szCamInfo );

  00059	8b 3d 00 00 00
	00		 mov	 edi, DWORD PTR __imp_?SetTitle@ioINILoader@@QAEXPBD@Z
  0005f	56		 push	 esi
  00060	8d 8d 80 f9 ff
	ff		 lea	 ecx, DWORD PTR _kLoader$[ebp]
  00066	88 5d fc	 mov	 BYTE PTR __$EHRec$[ebp+8], bl
  00069	ff d7		 call	 edi
  0006b	6a 03		 push	 3

; 147  : 	vCamPos.x = kLoader.LoadFloat_e( "cam_offset_x", 0.0f );

  0006d	c7 85 d0 fe ff
	ff 8e 8d 86 b5	 mov	 DWORD PTR __k$517048[ebp], -1249473138 ; b5868d8eH
  00077	c7 85 d4 fe ff
	ff 82 8a 8d 99	 mov	 DWORD PTR __k$517048[ebp+4], -1718777214 ; 998d8a82H
  00081	c7 85 d8 fe ff
	ff 88 98 b4 92	 mov	 DWORD PTR __k$517048[ebp+8], -1833658232 ; 92b49888H
  0008b	8d 85 d0 fe ff
	ff		 lea	 eax, DWORD PTR __k$517048[ebp]
  00091	88 9d dc fe ff
	ff		 mov	 BYTE PTR __k$517048[ebp+12], bl
  00097	59		 pop	 ecx
  00098	be ed ec eb ea	 mov	 esi, -353637139		; eaebecedH
$LL224@Initialize:
  0009d	31 30		 xor	 DWORD PTR [eax], esi
  0009f	83 c0 04	 add	 eax, 4
  000a2	49		 dec	 ecx
  000a3	75 f8		 jne	 SHORT $LL224@Initialize
  000a5	0f 57 c0	 xorps	 xmm0, xmm0
  000a8	51		 push	 ecx
  000a9	8d 85 d0 fe ff
	ff		 lea	 eax, DWORD PTR __k$517048[ebp]
  000af	f3 0f 11 04 24	 movss	 DWORD PTR [esp], xmm0
  000b4	50		 push	 eax
  000b5	8d 8d 80 f9 ff
	ff		 lea	 ecx, DWORD PTR _kLoader$[ebp]
  000bb	ff 15 00 00 00
	00		 call	 DWORD PTR __imp_?LoadFloat@ioINILoader@@QAEMPBDM@Z
  000c1	d9 9d 9c fc ff
	ff		 fstp	 DWORD PTR _vCamPos$[ebp]
  000c7	6a 03		 push	 3

; 148  : 	vCamPos.y = kLoader.LoadFloat_e( "cam_offset_y", 0.0f );

  000c9	c7 85 f8 fe ff
	ff 8e 8d 86 b5	 mov	 DWORD PTR __k$517186[ebp], -1249473138 ; b5868d8eH
  000d3	c7 85 fc fe ff
	ff 82 8a 8d 99	 mov	 DWORD PTR __k$517186[ebp+4], -1718777214 ; 998d8a82H
  000dd	c7 85 00 ff ff
	ff 88 98 b4 93	 mov	 DWORD PTR __k$517186[ebp+8], -1816881016 ; 93b49888H
  000e7	8d 85 f8 fe ff
	ff		 lea	 eax, DWORD PTR __k$517186[ebp]
  000ed	88 9d 04 ff ff
	ff		 mov	 BYTE PTR __k$517186[ebp+12], bl
  000f3	59		 pop	 ecx
$LL330@Initialize:
  000f4	31 30		 xor	 DWORD PTR [eax], esi
  000f6	83 c0 04	 add	 eax, 4
  000f9	49		 dec	 ecx
  000fa	75 f8		 jne	 SHORT $LL330@Initialize
  000fc	0f 57 c0	 xorps	 xmm0, xmm0
  000ff	51		 push	 ecx
  00100	8d 85 f8 fe ff
	ff		 lea	 eax, DWORD PTR __k$517186[ebp]
  00106	f3 0f 11 04 24	 movss	 DWORD PTR [esp], xmm0
  0010b	50		 push	 eax
  0010c	8d 8d 80 f9 ff
	ff		 lea	 ecx, DWORD PTR _kLoader$[ebp]
  00112	ff 15 00 00 00
	00		 call	 DWORD PTR __imp_?LoadFloat@ioINILoader@@QAEMPBDM@Z
  00118	d9 9d a0 fc ff
	ff		 fstp	 DWORD PTR _vCamPos$[ebp+4]
  0011e	6a 03		 push	 3

; 149  : 	vCamPos.z = kLoader.LoadFloat_e( "cam_offset_z", 0.0f );

  00120	c7 85 bc fe ff
	ff 8e 8d 86 b5	 mov	 DWORD PTR __k$517311[ebp], -1249473138 ; b5868d8eH
  0012a	c7 85 c0 fe ff
	ff 82 8a 8d 99	 mov	 DWORD PTR __k$517311[ebp+4], -1718777214 ; 998d8a82H
  00134	c7 85 c4 fe ff
	ff 88 98 b4 90	 mov	 DWORD PTR __k$517311[ebp+8], -1867212664 ; 90b49888H
  0013e	8d 85 bc fe ff
	ff		 lea	 eax, DWORD PTR __k$517311[ebp]
  00144	88 9d c8 fe ff
	ff		 mov	 BYTE PTR __k$517311[ebp+12], bl
  0014a	59		 pop	 ecx
$LL436@Initialize:
  0014b	31 30		 xor	 DWORD PTR [eax], esi
  0014d	83 c0 04	 add	 eax, 4
  00150	49		 dec	 ecx
  00151	75 f8		 jne	 SHORT $LL436@Initialize
  00153	0f 57 c0	 xorps	 xmm0, xmm0
  00156	51		 push	 ecx
  00157	8d 85 bc fe ff
	ff		 lea	 eax, DWORD PTR __k$517311[ebp]
  0015d	f3 0f 11 04 24	 movss	 DWORD PTR [esp], xmm0
  00162	50		 push	 eax
  00163	8d 8d 80 f9 ff
	ff		 lea	 ecx, DWORD PTR _kLoader$[ebp]
  00169	ff 15 00 00 00
	00		 call	 DWORD PTR __imp_?LoadFloat@ioINILoader@@QAEMPBDM@Z
  0016f	d9 9d a4 fc ff
	ff		 fstp	 DWORD PTR _vCamPos$[ebp+8]

; 150  : 
; 151  : 	ioLookAtCameraController *pCtrl = new ioLookAtCameraController;

  00175	6a 38		 push	 56			; 00000038H
  00177	e8 00 00 00 00	 call	 ??2@YAPAXI@Z		; operator new
  0017c	59		 pop	 ecx
  0017d	8b c8		 mov	 ecx, eax
  0017f	89 8d 7c f9 ff
	ff		 mov	 DWORD PTR $T517013[ebp], ecx
  00185	c6 45 fc 02	 mov	 BYTE PTR __$EHRec$[ebp+8], 2
  00189	3b cb		 cmp	 ecx, ebx
  0018b	74 1a		 je	 SHORT $LN108@Initialize
  0018d	ff 15 00 00 00
	00		 call	 DWORD PTR __imp_??0ioLookAtCameraController@@QAE@XZ
  00193	8b 85 7c f9 ff
	ff		 mov	 eax, DWORD PTR $T517013[ebp]
  00199	c7 00 00 00 00
	00		 mov	 DWORD PTR [eax], OFFSET ??_SioLookAtCameraController@@6B@
  0019f	89 85 7c f9 ff
	ff		 mov	 DWORD PTR $T517012[ebp], eax
  001a5	eb 06		 jmp	 SHORT $LN109@Initialize
$LN108@Initialize:
  001a7	89 9d 7c f9 ff
	ff		 mov	 DWORD PTR $T517012[ebp], ebx
$LN109@Initialize:

; 152  : 	pCtrl->SetPosition( vCamPos );

  001ad	8b 8d 7c f9 ff
	ff		 mov	 ecx, DWORD PTR $T517012[ebp]
  001b3	8b 01		 mov	 eax, DWORD PTR [ecx]
  001b5	8d 95 9c fc ff
	ff		 lea	 edx, DWORD PTR _vCamPos$[ebp]
  001bb	52		 push	 edx
  001bc	88 5d fc	 mov	 BYTE PTR __$EHRec$[ebp+8], bl
  001bf	ff 50 18	 call	 DWORD PTR [eax+24]

; 153  : 	pCtrl->SetLookAt( D3DXVECTOR3( 0.0f, 0.0f, 200.0f ) );

  001c2	0f 57 c0	 xorps	 xmm0, xmm0
  001c5	8b 8d 7c f9 ff
	ff		 mov	 ecx, DWORD PTR $T517012[ebp]
  001cb	8d 85 90 fc ff
	ff		 lea	 eax, DWORD PTR $T505770[ebp]
  001d1	f3 0f 11 85 90
	fc ff ff	 movss	 DWORD PTR $T505770[ebp], xmm0
  001d9	f3 0f 11 85 94
	fc ff ff	 movss	 DWORD PTR $T505770[ebp+4], xmm0
  001e1	f3 0f 10 05 00
	00 00 00	 movss	 xmm0, DWORD PTR __real@43480000
  001e9	50		 push	 eax
  001ea	f3 0f 11 85 98
	fc ff ff	 movss	 DWORD PTR $T505770[ebp+8], xmm0
  001f2	ff 15 00 00 00
	00		 call	 DWORD PTR __imp_?SetLookAt@ioLookAtCameraController@@QAEXABUD3DXVECTOR3@@@Z

; 154  : 	pCtrl->SetSpeed( 0.0f, 0.0f, 0.0f );

  001f8	0f 57 c0	 xorps	 xmm0, xmm0
  001fb	8b 8d 7c f9 ff
	ff		 mov	 ecx, DWORD PTR $T517012[ebp]
  00201	83 ec 0c	 sub	 esp, 12			; 0000000cH
  00204	f3 0f 11 44 24
	08		 movss	 DWORD PTR [esp+8], xmm0
  0020a	f3 0f 11 44 24
	04		 movss	 DWORD PTR [esp+4], xmm0
  00210	f3 0f 11 04 24	 movss	 DWORD PTR [esp], xmm0
  00215	ff 15 00 00 00
	00		 call	 DWORD PTR __imp_?SetSpeed@ioLookAtCameraController@@QAEXMMM@Z

; 155  : 	m_pCamera->SetController( pCtrl );

  0021b	8b 85 78 f9 ff
	ff		 mov	 eax, DWORD PTR _this$GSCopy$[ebp]
  00221	ff b5 7c f9 ff
	ff		 push	 DWORD PTR $T517012[ebp]
  00227	8b 48 08	 mov	 ecx, DWORD PTR [eax+8]
  0022a	ff 15 00 00 00
	00		 call	 DWORD PTR __imp_?SetController@ioCamera@@QAEXPAVioCameraController@@@Z

; 156  : 
; 157  : 	m_pSceneMgr = new ioSceneManager( &RenderSystem() );

  00230	68 78 05 00 00	 push	 1400			; 00000578H
  00235	e8 00 00 00 00	 call	 ??2@YAPAXI@Z		; operator new
  0023a	59		 pop	 ecx
  0023b	89 85 7c f9 ff
	ff		 mov	 DWORD PTR $T517017[ebp], eax
  00241	c6 45 fc 03	 mov	 BYTE PTR __$EHRec$[ebp+8], 3
  00245	3b c3		 cmp	 eax, ebx
  00247	74 21		 je	 SHORT $LN110@Initialize
  00249	ff 15 00 00 00
	00		 call	 DWORD PTR __imp_?RenderSystem@@YAAAVioRenderSystem@@XZ
  0024f	8b 8d 7c f9 ff
	ff		 mov	 ecx, DWORD PTR $T517017[ebp]
  00255	50		 push	 eax
  00256	ff 15 00 00 00
	00		 call	 DWORD PTR __imp_??0ioSceneManager@@QAE@PAVioRenderSystem@@@Z
  0025c	8b 85 7c f9 ff
	ff		 mov	 eax, DWORD PTR $T517017[ebp]
  00262	c7 00 00 00 00
	00		 mov	 DWORD PTR [eax], OFFSET ??_SioSceneManager@@6B@
  00268	eb 02		 jmp	 SHORT $LN111@Initialize
$LN110@Initialize:
  0026a	33 c0		 xor	 eax, eax
$LN111@Initialize:
  0026c	8b 8d 78 f9 ff
	ff		 mov	 ecx, DWORD PTR _this$GSCopy$[ebp]

; 158  : 	AddSceneMgr( m_pSceneMgr );

  00272	50		 push	 eax
  00273	88 5d fc	 mov	 BYTE PTR __$EHRec$[ebp+8], bl
  00276	89 41 04	 mov	 DWORD PTR [ecx+4], eax
  00279	e8 00 00 00 00	 call	 ?AddSceneMgr@ioUI3DRender@@KAXPAVioSceneManager@@@Z ; ioUI3DRender::AddSceneMgr
  0027e	59		 pop	 ecx

; 159  : 
; 160  : 	//------------------------- Init Lights ---------------------
; 161  : 
; 162  : 	kLoader.SetTitle_e( "ambient" );

  0027f	6a 04		 push	 4
  00281	c7 45 e4 8c 81
	89 83		 mov	 DWORD PTR __t$517439[ebp], -2088140404 ; 8389818cH
  00288	31 75 e4	 xor	 DWORD PTR __t$517439[ebp], esi
  0028b	c7 45 e8 88 82
	9f 00		 mov	 DWORD PTR __t$517439[ebp+4], 10453640 ; 009f8288H
  00292	58		 pop	 eax
$LL541@Initialize:
  00293	8b c8		 mov	 ecx, eax
  00295	81 e1 03 00 00
	80		 and	 ecx, -2147483645	; 80000003H
  0029b	79 05		 jns	 SHORT $LN2153@Initialize
  0029d	49		 dec	 ecx
  0029e	83 c9 fc	 or	 ecx, -4			; fffffffcH
  002a1	41		 inc	 ecx
$LN2153@Initialize:
  002a2	b2 ed		 mov	 dl, -19			; ffffffedH
  002a4	2a d1		 sub	 dl, cl
  002a6	30 54 05 e4	 xor	 BYTE PTR __t$517439[ebp+eax], dl
  002aa	40		 inc	 eax
  002ab	83 f8 07	 cmp	 eax, 7
  002ae	7c e3		 jl	 SHORT $LL541@Initialize
  002b0	8d 45 e4	 lea	 eax, DWORD PTR __t$517439[ebp]
  002b3	50		 push	 eax
  002b4	8d 8d 80 f9 ff
	ff		 lea	 ecx, DWORD PTR _kLoader$[ebp]
  002ba	ff d7		 call	 edi

; 163  : 	m_UISceneAmbient.r = kLoader.LoadFloat( "red", 127.0f ) / 255.0f;

  002bc	f3 0f 10 05 00
	00 00 00	 movss	 xmm0, DWORD PTR __real@42fe0000
  002c4	51		 push	 ecx
  002c5	f3 0f 11 04 24	 movss	 DWORD PTR [esp], xmm0
  002ca	68 00 00 00 00	 push	 OFFSET ??_C@_03FAAAOPJM@red?$AA@
  002cf	8d 8d 80 f9 ff
	ff		 lea	 ecx, DWORD PTR _kLoader$[ebp]
  002d5	ff 15 00 00 00
	00		 call	 DWORD PTR __imp_?LoadFloat@ioINILoader@@QAEMPBDM@Z
  002db	dc 35 00 00 00
	00		 fdiv	 QWORD PTR __real@406fe00000000000
  002e1	8b 85 78 f9 ff
	ff		 mov	 eax, DWORD PTR _this$GSCopy$[ebp]

; 164  : 	m_UISceneAmbient.g = kLoader.LoadFloat_e( "green", 127.0f ) / 255.0f;

  002e7	f3 0f 10 05 00
	00 00 00	 movss	 xmm0, DWORD PTR __real@42fe0000
  002ef	51		 push	 ecx
  002f0	f3 0f 11 04 24	 movss	 DWORD PTR [esp], xmm0
  002f5	8d 8d 80 f9 ff
	ff		 lea	 ecx, DWORD PTR _kLoader$[ebp]
  002fb	d9 58 0c	 fstp	 DWORD PTR [eax+12]
  002fe	8d 45 90	 lea	 eax, DWORD PTR __k$517593[ebp]
  00301	c7 45 90 8a 9e
	8e 8f		 mov	 DWORD PTR __k$517593[ebp], -1886478710 ; 8f8e9e8aH
  00308	31 75 90	 xor	 DWORD PTR __k$517593[ebp], esi
  0030b	50		 push	 eax
  0030c	66 c7 45 94 6e
	00		 mov	 WORD PTR __k$517593[ebp+4], 110 ; 0000006eH
  00312	ff 15 00 00 00
	00		 call	 DWORD PTR __imp_?LoadFloat@ioINILoader@@QAEMPBDM@Z
  00318	dc 35 00 00 00
	00		 fdiv	 QWORD PTR __real@406fe00000000000
  0031e	8b 85 78 f9 ff
	ff		 mov	 eax, DWORD PTR _this$GSCopy$[ebp]

; 165  : 	m_UISceneAmbient.b = kLoader.LoadFloat_e( "blue", 127.0f ) / 255.0f;

  00324	f3 0f 10 05 00
	00 00 00	 movss	 xmm0, DWORD PTR __real@42fe0000
  0032c	51		 push	 ecx
  0032d	f3 0f 11 04 24	 movss	 DWORD PTR [esp], xmm0
  00332	8d 8d 80 f9 ff
	ff		 lea	 ecx, DWORD PTR _kLoader$[ebp]
  00338	d9 58 10	 fstp	 DWORD PTR [eax+16]
  0033b	8d 45 cc	 lea	 eax, DWORD PTR __k$517676[ebp]
  0033e	c7 45 cc 8f 80
	9e 8f		 mov	 DWORD PTR __k$517676[ebp], -1885437809 ; 8f9e808fH
  00345	31 75 cc	 xor	 DWORD PTR __k$517676[ebp], esi
  00348	50		 push	 eax
  00349	88 5d d0	 mov	 BYTE PTR __k$517676[ebp+4], bl
  0034c	ff 15 00 00 00
	00		 call	 DWORD PTR __imp_?LoadFloat@ioINILoader@@QAEMPBDM@Z
  00352	dc 35 00 00 00
	00		 fdiv	 QWORD PTR __real@406fe00000000000
  00358	8b 85 78 f9 ff
	ff		 mov	 eax, DWORD PTR _this$GSCopy$[ebp]
  0035e	6a 02		 push	 2
  00360	59		 pop	 ecx
  00361	d9 58 14	 fstp	 DWORD PTR [eax+20]

; 166  : 
; 167  : 	char szBuf[MAX_PATH], szKey[MAX_PATH];
; 168  : 	kLoader.SetTitle_e( "main_light" );

  00364	c7 45 80 80 8d
	82 84		 mov	 DWORD PTR __t$517801[ebp], -2071818880 ; 84828d80H
  0036b	c7 45 84 b2 80
	82 8d		 mov	 DWORD PTR __t$517801[ebp+4], -1920827214 ; 8d8280b2H
  00372	66 c7 45 88 85
	98		 mov	 WORD PTR __t$517801[ebp+8], 39045 ; 00009885H
  00378	8d 45 80	 lea	 eax, DWORD PTR __t$517801[ebp]
  0037b	88 5d 8a	 mov	 BYTE PTR __t$517801[ebp+10], bl
$LL862@Initialize:
  0037e	31 30		 xor	 DWORD PTR [eax], esi
  00380	83 c0 04	 add	 eax, 4
  00383	49		 dec	 ecx
  00384	75 f8		 jne	 SHORT $LL862@Initialize
  00386	6a 08		 push	 8
  00388	58		 pop	 eax
$LL859@Initialize:
  00389	8b c8		 mov	 ecx, eax
  0038b	81 e1 03 00 00
	80		 and	 ecx, -2147483645	; 80000003H
  00391	79 05		 jns	 SHORT $LN2154@Initialize
  00393	49		 dec	 ecx
  00394	83 c9 fc	 or	 ecx, -4			; fffffffcH
  00397	41		 inc	 ecx
$LN2154@Initialize:
  00398	b2 ed		 mov	 dl, -19			; ffffffedH
  0039a	2a d1		 sub	 dl, cl
  0039c	30 54 05 80	 xor	 BYTE PTR __t$517801[ebp+eax], dl
  003a0	40		 inc	 eax
  003a1	83 f8 0a	 cmp	 eax, 10			; 0000000aH
  003a4	7c e3		 jl	 SHORT $LL859@Initialize
  003a6	8d 45 80	 lea	 eax, DWORD PTR __t$517801[ebp]
  003a9	50		 push	 eax
  003aa	8d 8d 80 f9 ff
	ff		 lea	 ecx, DWORD PTR _kLoader$[ebp]
  003b0	ff d7		 call	 edi
  003b2	6a 04		 push	 4

; 169  : 
; 170  : 	int iMax = kLoader.LoadInt_e( "model_animation_cnt", 0 );

  003b4	c7 85 20 ff ff
	ff 80 83 8f 8f	 mov	 DWORD PTR __k$517926[ebp], -1886420096 ; 8f8f8380H
  003be	c7 85 24 ff ff
	ff 81 b3 8a 84	 mov	 DWORD PTR __k$517926[ebp+4], -2071284863 ; 848ab381H
  003c8	c7 85 28 ff ff
	ff 84 81 8a 9e	 mov	 DWORD PTR __k$517926[ebp+8], -1635090044 ; 9e8a8184H
  003d2	c7 85 2c ff ff
	ff 84 83 85 b5	 mov	 DWORD PTR __k$517926[ebp+12], -1249541244 ; b5858384H
  003dc	8d 85 20 ff ff
	ff		 lea	 eax, DWORD PTR __k$517926[ebp]
  003e2	c7 85 30 ff ff
	ff 8e 82 9f 00	 mov	 DWORD PTR __k$517926[ebp+16], 10453646 ; 009f828eH
  003ec	59		 pop	 ecx
$LL968@Initialize:
  003ed	31 30		 xor	 DWORD PTR [eax], esi
  003ef	83 c0 04	 add	 eax, 4
  003f2	49		 dec	 ecx
  003f3	75 f8		 jne	 SHORT $LL968@Initialize
  003f5	6a 10		 push	 16			; 00000010H
  003f7	5f		 pop	 edi
$LL965@Initialize:
  003f8	8b c7		 mov	 eax, edi
  003fa	25 03 00 00 80	 and	 eax, -2147483645	; 80000003H
  003ff	79 05		 jns	 SHORT $LN2155@Initialize
  00401	48		 dec	 eax
  00402	83 c8 fc	 or	 eax, -4			; fffffffcH
  00405	40		 inc	 eax
$LN2155@Initialize:
  00406	b1 ed		 mov	 cl, -19			; ffffffedH
  00408	2a c8		 sub	 cl, al
  0040a	30 8c 3d 20 ff
	ff ff		 xor	 BYTE PTR __k$517926[ebp+edi], cl
  00411	47		 inc	 edi
  00412	83 ff 13	 cmp	 edi, 19			; 00000013H
  00415	7c e1		 jl	 SHORT $LL965@Initialize
  00417	53		 push	 ebx
  00418	8d 85 20 ff ff
	ff		 lea	 eax, DWORD PTR __k$517926[ebp]
  0041e	50		 push	 eax
  0041f	8d 8d 80 f9 ff
	ff		 lea	 ecx, DWORD PTR _kLoader$[ebp]
  00425	ff 15 00 00 00
	00		 call	 DWORD PTR __imp_?LoadInt@ioINILoader@@QAEHPBDH@Z

; 171  : 
; 172  : 	m_ModelAnimation.clear();

  0042b	8b bd 78 f9 ff
	ff		 mov	 edi, DWORD PTR _this$GSCopy$[ebp]
  00431	83 c7 2c	 add	 edi, 44			; 0000002cH
  00434	8b 0f		 mov	 ecx, DWORD PTR [edi]
  00436	89 85 7c f9 ff
	ff		 mov	 DWORD PTR _iMax$[ebp], eax
  0043c	8b 47 04	 mov	 eax, DWORD PTR [edi+4]
  0043f	50		 push	 eax
  00440	51		 push	 ecx
  00441	8d 85 74 f9 ff
	ff		 lea	 eax, DWORD PTR $T518098[ebp]
  00447	50		 push	 eax
  00448	8b cf		 mov	 ecx, edi
  0044a	e8 00 00 00 00	 call	 ?erase@?$vector@VioHashString@@V?$allocator@VioHashString@@@std@@@std@@QAE?AV?$_Vector_iterator@V?$_Vector_val@VioHashString@@V?$allocator@VioHashString@@@std@@@std@@@2@V?$_Vector_const_iterator@V?$_Vector_val@VioHashString@@V?$allocator@VioHashString@@@std@@@std@@@2@0@Z ; std::vector<ioHashString,std::allocator<ioHashString> >::erase

; 173  : 	m_ModelAnimation.reserve( iMax );

  0044f	ff b5 7c f9 ff
	ff		 push	 DWORD PTR _iMax$[ebp]
  00455	8b cf		 mov	 ecx, edi
  00457	e8 00 00 00 00	 call	 ?reserve@?$vector@VioHashString@@V?$allocator@VioHashString@@@std@@@std@@QAEXI@Z ; std::vector<ioHashString,std::allocator<ioHashString> >::reserve

; 174  : 	for( int i=0; i<iMax; i++ )

  0045c	33 c9		 xor	 ecx, ecx
  0045e	39 9d 7c f9 ff
	ff		 cmp	 DWORD PTR _iMax$[ebp], ebx
  00464	0f 8e d4 00 00
	00		 jle	 $LN101@Initialize
$LL103@Initialize:

; 175  : 	{
; 176  : 		wsprintf_e( szKey, "model_animation%d", i+1 );

  0046a	6a 04		 push	 4
  0046c	c7 85 38 ff ff
	ff 80 83 8f 8f	 mov	 DWORD PTR ___encStr$505809[ebp], -1886420096 ; 8f8f8380H
  00476	c7 85 3c ff ff
	ff 81 b3 8a 84	 mov	 DWORD PTR ___encStr$505809[ebp+4], -2071284863 ; 848ab381H
  00480	c7 85 40 ff ff
	ff 84 81 8a 9e	 mov	 DWORD PTR ___encStr$505809[ebp+8], -1635090044 ; 9e8a8184H
  0048a	c7 85 44 ff ff
	ff 84 83 85 cf	 mov	 DWORD PTR ___encStr$505809[ebp+12], -813333628 ; cf858384H
  00494	8d 85 38 ff ff
	ff		 lea	 eax, DWORD PTR ___encStr$505809[ebp]
  0049a	66 c7 85 48 ff
	ff ff 89 00	 mov	 WORD PTR ___encStr$505809[ebp+16], 137 ; 00000089H
  004a3	5a		 pop	 edx
$LL994@Initialize:
  004a4	31 30		 xor	 DWORD PTR [eax], esi
  004a6	83 c0 04	 add	 eax, 4
  004a9	4a		 dec	 edx
  004aa	75 f8		 jne	 SHORT $LL994@Initialize
  004ac	80 b5 48 ff ff
	ff ed		 xor	 BYTE PTR ___encStr$505809[ebp+16], -19 ; ffffffedH
  004b3	8d 41 01	 lea	 eax, DWORD PTR [ecx+1]
  004b6	50		 push	 eax
  004b7	89 85 74 f9 ff
	ff		 mov	 DWORD PTR tv14294[ebp], eax
  004bd	8d 85 38 ff ff
	ff		 lea	 eax, DWORD PTR ___encStr$505809[ebp]
  004c3	50		 push	 eax
  004c4	8d 85 b4 fc ff
	ff		 lea	 eax, DWORD PTR _szKey$[ebp]
  004ca	50		 push	 eax
  004cb	ff 15 00 00 00
	00		 call	 DWORD PTR __imp__wsprintfA
  004d1	83 c4 0c	 add	 esp, 12			; 0000000cH

; 177  : 		kLoader.LoadString( szKey, "public_delay.ani", szBuf, MAX_PATH );

  004d4	68 04 01 00 00	 push	 260			; 00000104H
  004d9	8d 85 b8 fd ff
	ff		 lea	 eax, DWORD PTR _szBuf$[ebp]
  004df	50		 push	 eax
  004e0	68 00 00 00 00	 push	 OFFSET ??_C@_0BB@MFKKPKGO@public_delay?4ani?$AA@
  004e5	8d 85 b4 fc ff
	ff		 lea	 eax, DWORD PTR _szKey$[ebp]
  004eb	50		 push	 eax
  004ec	8d 8d 80 f9 ff
	ff		 lea	 ecx, DWORD PTR _kLoader$[ebp]
  004f2	ff 15 00 00 00
	00		 call	 DWORD PTR __imp_?LoadStringA@ioINILoader@@QAEXPBD0PADH@Z

; 178  : 		m_ModelAnimation.push_back( szBuf );

  004f8	8d 85 b8 fd ff
	ff		 lea	 eax, DWORD PTR _szBuf$[ebp]
  004fe	50		 push	 eax
  004ff	8d 8d 54 f9 ff
	ff		 lea	 ecx, DWORD PTR $T517020[ebp]
  00505	ff 15 00 00 00
	00		 call	 DWORD PTR __imp_??0ioHashString@@QAE@PBD@Z
  0050b	8d 85 54 f9 ff
	ff		 lea	 eax, DWORD PTR $T517020[ebp]
  00511	50		 push	 eax
  00512	8b cf		 mov	 ecx, edi
  00514	c6 45 fc 04	 mov	 BYTE PTR __$EHRec$[ebp+8], 4
  00518	e8 00 00 00 00	 call	 ?push_back@?$vector@VioHashString@@V?$allocator@VioHashString@@@std@@@std@@QAEXABVioHashString@@@Z ; std::vector<ioHashString,std::allocator<ioHashString> >::push_back
  0051d	8d 8d 54 f9 ff
	ff		 lea	 ecx, DWORD PTR $T517020[ebp]
  00523	88 5d fc	 mov	 BYTE PTR __$EHRec$[ebp+8], bl
  00526	ff 15 00 00 00
	00		 call	 DWORD PTR __imp_??1ioHashString@@QAE@XZ
  0052c	8b 8d 74 f9 ff
	ff		 mov	 ecx, DWORD PTR tv14294[ebp]
  00532	3b 8d 7c f9 ff
	ff		 cmp	 ecx, DWORD PTR _iMax$[ebp]
  00538	0f 8c 2c ff ff
	ff		 jl	 $LL103@Initialize
$LN101@Initialize:

; 179  : 	}
; 180  : 
; 181  : 	if( m_ModelAnimation.empty() )

  0053e	8b 07		 mov	 eax, DWORD PTR [edi]
  00540	3b 47 04	 cmp	 eax, DWORD PTR [edi+4]
  00543	75 2c		 jne	 SHORT $LN1@Initialize

; 182  : 	{
; 183  : 		m_ModelAnimation.push_back( ioHashString( "public_delay.ani" ) );

  00545	68 00 00 00 00	 push	 OFFSET ??_C@_0BB@MFKKPKGO@public_delay?4ani?$AA@
  0054a	8d 8d 38 f9 ff
	ff		 lea	 ecx, DWORD PTR $T517021[ebp]
  00550	ff 15 00 00 00
	00		 call	 DWORD PTR __imp_??0ioHashString@@QAE@PBD@Z
  00556	50		 push	 eax
  00557	8b cf		 mov	 ecx, edi
  00559	c6 45 fc 05	 mov	 BYTE PTR __$EHRec$[ebp+8], 5
  0055d	e8 00 00 00 00	 call	 ?push_back@?$vector@VioHashString@@V?$allocator@VioHashString@@@std@@@std@@QAEX$$QAVioHashString@@@Z ; std::vector<ioHashString,std::allocator<ioHashString> >::push_back
  00562	8d 8d 38 f9 ff
	ff		 lea	 ecx, DWORD PTR $T517021[ebp]
  00568	88 5d fc	 mov	 BYTE PTR __$EHRec$[ebp+8], bl
  0056b	ff 15 00 00 00
	00		 call	 DWORD PTR __imp_??1ioHashString@@QAE@XZ
$LN1@Initialize:

; 184  : 	}
; 185  : 
; 186  : 	kLoader.LoadString_e( "toon_texture", "toongray.dds", szBuf, MAX_PATH );

  00571	6a 03		 push	 3
  00573	c7 85 e4 fe ff
	ff 99 83 84 84	 mov	 DWORD PTR __k$518172[ebp], -2071690343 ; 84848399H
  0057d	c7 85 e8 fe ff
	ff b2 98 8e 92	 mov	 DWORD PTR __k$518172[ebp+4], -1836148558 ; 928e98b2H
  00587	c7 85 ec fe ff
	ff 99 99 99 8f	 mov	 DWORD PTR __k$518172[ebp+8], -1885759079 ; 8f999999H
  00591	8d 85 e4 fe ff
	ff		 lea	 eax, DWORD PTR __k$518172[ebp]
  00597	88 9d f0 fe ff
	ff		 mov	 BYTE PTR __k$518172[ebp+12], bl
  0059d	59		 pop	 ecx
$LL1198@Initialize:
  0059e	31 30		 xor	 DWORD PTR [eax], esi
  005a0	83 c0 04	 add	 eax, 4
  005a3	49		 dec	 ecx
  005a4	75 f8		 jne	 SHORT $LL1198@Initialize
  005a6	6a 03		 push	 3
  005a8	c7 85 0c ff ff
	ff 99 83 84 84	 mov	 DWORD PTR __d$518269[ebp], -2071690343 ; 84848399H
  005b2	c7 85 10 ff ff
	ff 8a 9e 8a 93	 mov	 DWORD PTR __d$518269[ebp+4], -1819631990 ; 938a9e8aH
  005bc	c7 85 14 ff ff
	ff c3 88 8f 99	 mov	 DWORD PTR __d$518269[ebp+8], -1718646589 ; 998f88c3H
  005c6	8d 85 0c ff ff
	ff		 lea	 eax, DWORD PTR __d$518269[ebp]
  005cc	88 9d 18 ff ff
	ff		 mov	 BYTE PTR __d$518269[ebp+12], bl
  005d2	59		 pop	 ecx
$LL1206@Initialize:
  005d3	31 30		 xor	 DWORD PTR [eax], esi
  005d5	83 c0 04	 add	 eax, 4
  005d8	49		 dec	 ecx
  005d9	75 f8		 jne	 SHORT $LL1206@Initialize
  005db	68 04 01 00 00	 push	 260			; 00000104H
  005e0	8d 85 b8 fd ff
	ff		 lea	 eax, DWORD PTR _szBuf$[ebp]
  005e6	50		 push	 eax
  005e7	8d 85 0c ff ff
	ff		 lea	 eax, DWORD PTR __d$518269[ebp]
  005ed	50		 push	 eax
  005ee	8d 85 e4 fe ff
	ff		 lea	 eax, DWORD PTR __k$518172[ebp]
  005f4	50		 push	 eax
  005f5	8d 8d 80 f9 ff
	ff		 lea	 ecx, DWORD PTR _kLoader$[ebp]
  005fb	ff 15 00 00 00
	00		 call	 DWORD PTR __imp_?LoadStringA@ioINILoader@@QAEXPBD0PADH@Z

; 187  : 
; 188  : 	D3DCOLORVALUE rDiffuse;
; 189  : 	rDiffuse.r = kLoader.LoadFloat( "red", 127.0f ) / 255.0f;

  00601	f3 0f 10 05 00
	00 00 00	 movss	 xmm0, DWORD PTR __real@42fe0000
  00609	51		 push	 ecx
  0060a	f3 0f 11 04 24	 movss	 DWORD PTR [esp], xmm0
  0060f	68 00 00 00 00	 push	 OFFSET ??_C@_03FAAAOPJM@red?$AA@
  00614	8d 8d 80 f9 ff
	ff		 lea	 ecx, DWORD PTR _kLoader$[ebp]
  0061a	ff 15 00 00 00
	00		 call	 DWORD PTR __imp_?LoadFloat@ioINILoader@@QAEMPBDM@Z
  00620	dc 35 00 00 00
	00		 fdiv	 QWORD PTR __real@406fe00000000000

; 190  : 	rDiffuse.g = kLoader.LoadFloat_e( "green", 127.0f ) / 255.0f;

  00626	f3 0f 10 05 00
	00 00 00	 movss	 xmm0, DWORD PTR __real@42fe0000
  0062e	51		 push	 ecx
  0062f	8d 45 b4	 lea	 eax, DWORD PTR __k$518434[ebp]
  00632	f3 0f 11 04 24	 movss	 DWORD PTR [esp], xmm0
  00637	c7 45 b4 8a 9e
	8e 8f		 mov	 DWORD PTR __k$518434[ebp], -1886478710 ; 8f8e9e8aH
  0063e	31 75 b4	 xor	 DWORD PTR __k$518434[ebp], esi
  00641	50		 push	 eax
  00642	8d 8d 80 f9 ff
	ff		 lea	 ecx, DWORD PTR _kLoader$[ebp]
  00648	66 c7 45 b8 6e
	00		 mov	 WORD PTR __k$518434[ebp+4], 110 ; 0000006eH
  0064e	d9 9d 1c f9 ff
	ff		 fstp	 DWORD PTR _rDiffuse$[ebp]
  00654	ff 15 00 00 00
	00		 call	 DWORD PTR __imp_?LoadFloat@ioINILoader@@QAEMPBDM@Z
  0065a	dc 35 00 00 00
	00		 fdiv	 QWORD PTR __real@406fe00000000000

; 191  : 	rDiffuse.b = kLoader.LoadFloat_e( "blue", 127.0f ) / 255.0f;

  00660	f3 0f 10 05 00
	00 00 00	 movss	 xmm0, DWORD PTR __real@42fe0000
  00668	51		 push	 ecx
  00669	8d 45 d8	 lea	 eax, DWORD PTR __k$518517[ebp]
  0066c	f3 0f 11 04 24	 movss	 DWORD PTR [esp], xmm0
  00671	c7 45 d8 8f 80
	9e 8f		 mov	 DWORD PTR __k$518517[ebp], -1885437809 ; 8f9e808fH
  00678	31 75 d8	 xor	 DWORD PTR __k$518517[ebp], esi
  0067b	50		 push	 eax
  0067c	8d 8d 80 f9 ff
	ff		 lea	 ecx, DWORD PTR _kLoader$[ebp]
  00682	88 5d dc	 mov	 BYTE PTR __k$518517[ebp+4], bl
  00685	d9 9d 20 f9 ff
	ff		 fstp	 DWORD PTR _rDiffuse$[ebp+4]
  0068b	ff 15 00 00 00
	00		 call	 DWORD PTR __imp_?LoadFloat@ioINILoader@@QAEMPBDM@Z
  00691	dc 35 00 00 00
	00		 fdiv	 QWORD PTR __real@406fe00000000000
  00697	d9 9d 24 f9 ff
	ff		 fstp	 DWORD PTR _rDiffuse$[ebp+8]

; 192  : 	rDiffuse.a = FLOAT1;

  0069d	b8 01 00 00 00	 mov	 eax, 1
  006a2	89 85 74 f9 ff
	ff		 mov	 DWORD PTR tv16448[ebp], eax
  006a8	db 85 74 f9 ff
	ff		 fild	 DWORD PTR tv16448[ebp]
  006ae	85 c0		 test	 eax, eax
  006b0	79 06		 jns	 SHORT $LN2156@Initialize
  006b2	d8 05 00 00 00
	00		 fadd	 DWORD PTR __real@4f800000
$LN2156@Initialize:

; 193  : 
; 194  : 	D3DXVECTOR3 vPos,vTarget;
; 195  : 	vPos.x = kLoader.LoadFloat_e( "pos_x", 0.0f );

  006b8	0f 57 c0	 xorps	 xmm0, xmm0
  006bb	d9 9d 28 f9 ff
	ff		 fstp	 DWORD PTR _rDiffuse$[ebp+12]
  006c1	51		 push	 ecx
  006c2	8d 45 a8	 lea	 eax, DWORD PTR __k$518694[ebp]
  006c5	f3 0f 11 04 24	 movss	 DWORD PTR [esp], xmm0
  006ca	c7 45 a8 9d 83
	98 b5		 mov	 DWORD PTR __k$518694[ebp], -1248296035 ; b598839dH
  006d1	31 75 a8	 xor	 DWORD PTR __k$518694[ebp], esi
  006d4	50		 push	 eax
  006d5	8d 8d 80 f9 ff
	ff		 lea	 ecx, DWORD PTR _kLoader$[ebp]
  006db	66 c7 45 ac 78
	00		 mov	 WORD PTR __k$518694[ebp+4], 120 ; 00000078H
  006e1	ff 15 00 00 00
	00		 call	 DWORD PTR __imp_?LoadFloat@ioINILoader@@QAEMPBDM@Z
  006e7	d9 9d 2c f9 ff
	ff		 fstp	 DWORD PTR _vPos$[ebp]

; 196  : 	vPos.y = kLoader.LoadFloat_e( "pos_y", 0.0f );

  006ed	0f 57 c0	 xorps	 xmm0, xmm0
  006f0	51		 push	 ecx
  006f1	8d 45 c0	 lea	 eax, DWORD PTR __k$518819[ebp]
  006f4	f3 0f 11 04 24	 movss	 DWORD PTR [esp], xmm0
  006f9	c7 45 c0 9d 83
	98 b5		 mov	 DWORD PTR __k$518819[ebp], -1248296035 ; b598839dH
  00700	31 75 c0	 xor	 DWORD PTR __k$518819[ebp], esi
  00703	50		 push	 eax
  00704	8d 8d 80 f9 ff
	ff		 lea	 ecx, DWORD PTR _kLoader$[ebp]
  0070a	66 c7 45 c4 79
	00		 mov	 WORD PTR __k$518819[ebp+4], 121 ; 00000079H
  00710	ff 15 00 00 00
	00		 call	 DWORD PTR __imp_?LoadFloat@ioINILoader@@QAEMPBDM@Z
  00716	d9 9d 30 f9 ff
	ff		 fstp	 DWORD PTR _vPos$[ebp+4]

; 197  : 	vPos.z = kLoader.LoadFloat_e( "pos_z", 0.0f );

  0071c	0f 57 c0	 xorps	 xmm0, xmm0
  0071f	51		 push	 ecx
  00720	8d 45 9c	 lea	 eax, DWORD PTR __k$518944[ebp]
  00723	f3 0f 11 04 24	 movss	 DWORD PTR [esp], xmm0
  00728	c7 45 9c 9d 83
	98 b5		 mov	 DWORD PTR __k$518944[ebp], -1248296035 ; b598839dH
  0072f	31 75 9c	 xor	 DWORD PTR __k$518944[ebp], esi
  00732	50		 push	 eax
  00733	8d 8d 80 f9 ff
	ff		 lea	 ecx, DWORD PTR _kLoader$[ebp]
  00739	66 c7 45 a0 7a
	00		 mov	 WORD PTR __k$518944[ebp+4], 122 ; 0000007aH
  0073f	ff 15 00 00 00
	00		 call	 DWORD PTR __imp_?LoadFloat@ioINILoader@@QAEMPBDM@Z
  00745	d9 9d 34 f9 ff
	ff		 fstp	 DWORD PTR _vPos$[ebp+8]
  0074b	6a 02		 push	 2

; 198  : 
; 199  : 	vTarget.x = kLoader.LoadFloat_e( "target_x", 0.0f );

  0074d	c7 85 60 ff ff
	ff 99 8d 99 8d	 mov	 DWORD PTR __k$519027[ebp], -1919316583 ; 8d998d99H
  00757	c7 85 64 ff ff
	ff 88 98 b4 92	 mov	 DWORD PTR __k$519027[ebp+4], -1833658232 ; 92b49888H
  00761	8d 85 60 ff ff
	ff		 lea	 eax, DWORD PTR __k$519027[ebp]
  00767	88 9d 68 ff ff
	ff		 mov	 BYTE PTR __k$519027[ebp+8], bl
  0076d	59		 pop	 ecx
$LL1848@Initialize:
  0076e	31 30		 xor	 DWORD PTR [eax], esi
  00770	83 c0 04	 add	 eax, 4
  00773	49		 dec	 ecx
  00774	75 f8		 jne	 SHORT $LL1848@Initialize
  00776	0f 57 c0	 xorps	 xmm0, xmm0
  00779	51		 push	 ecx
  0077a	8d 85 60 ff ff
	ff		 lea	 eax, DWORD PTR __k$519027[ebp]
  00780	f3 0f 11 04 24	 movss	 DWORD PTR [esp], xmm0
  00785	50		 push	 eax
  00786	8d 8d 80 f9 ff
	ff		 lea	 ecx, DWORD PTR _kLoader$[ebp]
  0078c	ff 15 00 00 00
	00		 call	 DWORD PTR __imp_?LoadFloat@ioINILoader@@QAEMPBDM@Z
  00792	d9 9d 48 f9 ff
	ff		 fstp	 DWORD PTR _vTarget$[ebp]

; 200  : 	vTarget.y = kLoader.LoadFloat_e( "target_y", -FLOAT1 );

  00798	b8 01 00 00 00	 mov	 eax, 1
  0079d	6a 02		 push	 2
  0079f	c7 85 70 ff ff
	ff 99 8d 99 8d	 mov	 DWORD PTR __k$519156[ebp], -1919316583 ; 8d998d99H
  007a9	c7 85 74 ff ff
	ff 88 98 b4 93	 mov	 DWORD PTR __k$519156[ebp+4], -1816881016 ; 93b49888H
  007b3	8d 8d 70 ff ff
	ff		 lea	 ecx, DWORD PTR __k$519156[ebp]
  007b9	88 9d 78 ff ff
	ff		 mov	 BYTE PTR __k$519156[ebp+8], bl
  007bf	5a		 pop	 edx
$LL1956@Initialize:
  007c0	31 31		 xor	 DWORD PTR [ecx], esi
  007c2	83 c1 04	 add	 ecx, 4
  007c5	4a		 dec	 edx
  007c6	75 f8		 jne	 SHORT $LL1956@Initialize
  007c8	89 85 74 f9 ff
	ff		 mov	 DWORD PTR tv16424[ebp], eax
  007ce	db 85 74 f9 ff
	ff		 fild	 DWORD PTR tv16424[ebp]
  007d4	85 c0		 test	 eax, eax
  007d6	79 06		 jns	 SHORT $LN2157@Initialize
  007d8	d8 05 00 00 00
	00		 fadd	 DWORD PTR __real@4f800000
$LN2157@Initialize:
  007de	51		 push	 ecx
  007df	d9 e0		 fchs
  007e1	8d 85 70 ff ff
	ff		 lea	 eax, DWORD PTR __k$519156[ebp]
  007e7	d9 1c 24	 fstp	 DWORD PTR [esp]
  007ea	50		 push	 eax
  007eb	8d 8d 80 f9 ff
	ff		 lea	 ecx, DWORD PTR _kLoader$[ebp]
  007f1	ff 15 00 00 00
	00		 call	 DWORD PTR __imp_?LoadFloat@ioINILoader@@QAEMPBDM@Z
  007f7	d9 9d 4c f9 ff
	ff		 fstp	 DWORD PTR _vTarget$[ebp+4]

; 201  : 	vTarget.z = kLoader.LoadFloat_e( "target_z", -FLOAT1 );

  007fd	b8 01 00 00 00	 mov	 eax, 1
  00802	6a 02		 push	 2
  00804	c7 85 50 ff ff
	ff 99 8d 99 8d	 mov	 DWORD PTR __k$519298[ebp], -1919316583 ; 8d998d99H
  0080e	c7 85 54 ff ff
	ff 88 98 b4 90	 mov	 DWORD PTR __k$519298[ebp+4], -1867212664 ; 90b49888H
  00818	8d 8d 50 ff ff
	ff		 lea	 ecx, DWORD PTR __k$519298[ebp]
  0081e	88 9d 58 ff ff
	ff		 mov	 BYTE PTR __k$519298[ebp+8], bl
  00824	5a		 pop	 edx
$LL2064@Initialize:
  00825	31 31		 xor	 DWORD PTR [ecx], esi
  00827	83 c1 04	 add	 ecx, 4
  0082a	4a		 dec	 edx
  0082b	75 f8		 jne	 SHORT $LL2064@Initialize
  0082d	89 85 74 f9 ff
	ff		 mov	 DWORD PTR tv16415[ebp], eax
  00833	db 85 74 f9 ff
	ff		 fild	 DWORD PTR tv16415[ebp]
  00839	85 c0		 test	 eax, eax
  0083b	79 06		 jns	 SHORT $LN2158@Initialize
  0083d	d8 05 00 00 00
	00		 fadd	 DWORD PTR __real@4f800000
$LN2158@Initialize:
  00843	51		 push	 ecx
  00844	d9 e0		 fchs
  00846	8d 85 50 ff ff
	ff		 lea	 eax, DWORD PTR __k$519298[ebp]
  0084c	d9 1c 24	 fstp	 DWORD PTR [esp]
  0084f	50		 push	 eax
  00850	8d 8d 80 f9 ff
	ff		 lea	 ecx, DWORD PTR _kLoader$[ebp]
  00856	ff 15 00 00 00
	00		 call	 DWORD PTR __imp_?LoadFloat@ioINILoader@@QAEMPBDM@Z
  0085c	d9 9d 50 f9 ff
	ff		 fstp	 DWORD PTR _vTarget$[ebp+8]

; 202  : 
; 203  : 	D3DXVECTOR3 vLightDir = vTarget - vPos;				// Light Direction Calc

  00862	f3 0f 10 85 48
	f9 ff ff	 movss	 xmm0, DWORD PTR _vTarget$[ebp]
  0086a	f3 0f 10 8d 2c
	f9 ff ff	 movss	 xmm1, DWORD PTR _vPos$[ebp]
  00872	f3 0f 10 95 30
	f9 ff ff	 movss	 xmm2, DWORD PTR _vPos$[ebp+4]
  0087a	f3 0f 10 9d 34
	f9 ff ff	 movss	 xmm3, DWORD PTR _vPos$[ebp+8]
  00882	0f 5a c9	 cvtps2pd xmm1, xmm1
  00885	0f 5a c0	 cvtps2pd xmm0, xmm0
  00888	f2 0f 5c c1	 subsd	 xmm0, xmm1
  0088c	f3 0f 10 8d 4c
	f9 ff ff	 movss	 xmm1, DWORD PTR _vTarget$[ebp+4]
  00894	0f 5a d2	 cvtps2pd xmm2, xmm2
  00897	0f 5a c9	 cvtps2pd xmm1, xmm1
  0089a	f2 0f 5c ca	 subsd	 xmm1, xmm2
  0089e	f3 0f 10 95 50
	f9 ff ff	 movss	 xmm2, DWORD PTR _vTarget$[ebp+8]

; 204  : 	D3DXVec3Normalize( &vLightDir, &vLightDir );

  008a6	8d 85 a8 fc ff
	ff		 lea	 eax, DWORD PTR _vLightDir$[ebp]
  008ac	0f 5a d2	 cvtps2pd xmm2, xmm2
  008af	0f 5a db	 cvtps2pd xmm3, xmm3
  008b2	50		 push	 eax
  008b3	f2 0f 5c d3	 subsd	 xmm2, xmm3
  008b7	66 0f 5a c0	 cvtpd2ps xmm0, xmm0
  008bb	66 0f 5a c9	 cvtpd2ps xmm1, xmm1
  008bf	66 0f 5a d2	 cvtpd2ps xmm2, xmm2
  008c3	50		 push	 eax
  008c4	f3 0f 11 85 a8
	fc ff ff	 movss	 DWORD PTR _vLightDir$[ebp], xmm0
  008cc	f3 0f 11 8d ac
	fc ff ff	 movss	 DWORD PTR _vLightDir$[ebp+4], xmm1
  008d4	f3 0f 11 95 b0
	fc ff ff	 movss	 DWORD PTR _vLightDir$[ebp+8], xmm2
  008dc	e8 00 00 00 00	 call	 _D3DXVec3Normalize@8

; 205  : 	SetMainLight( vLightDir, rDiffuse, rDiffuse, szBuf );

  008e1	8d 85 b8 fd ff
	ff		 lea	 eax, DWORD PTR _szBuf$[ebp]
  008e7	50		 push	 eax
  008e8	8d 8d 64 f9 ff
	ff		 lea	 ecx, DWORD PTR $T517022[ebp]
  008ee	ff 15 00 00 00
	00		 call	 DWORD PTR __imp_??0ioHashString@@QAE@PBD@Z
  008f4	8b 8d 78 f9 ff
	ff		 mov	 ecx, DWORD PTR _this$GSCopy$[ebp]
  008fa	8d 85 64 f9 ff
	ff		 lea	 eax, DWORD PTR $T517022[ebp]
  00900	50		 push	 eax
  00901	8d 85 1c f9 ff
	ff		 lea	 eax, DWORD PTR _rDiffuse$[ebp]
  00907	50		 push	 eax
  00908	50		 push	 eax
  00909	8d 85 a8 fc ff
	ff		 lea	 eax, DWORD PTR _vLightDir$[ebp]
  0090f	50		 push	 eax
  00910	c6 45 fc 06	 mov	 BYTE PTR __$EHRec$[ebp+8], 6
  00914	e8 00 00 00 00	 call	 ?SetMainLight@ioUI3DRender@@IAEXABUD3DXVECTOR3@@ABU_D3DCOLORVALUE@@1ABVioHashString@@@Z ; ioUI3DRender::SetMainLight
  00919	8d 8d 64 f9 ff
	ff		 lea	 ecx, DWORD PTR $T517022[ebp]
  0091f	88 5d fc	 mov	 BYTE PTR __$EHRec$[ebp+8], bl
  00922	ff 15 00 00 00
	00		 call	 DWORD PTR __imp_??1ioHashString@@QAE@XZ

; 206  : }

  00928	83 4d fc ff	 or	 DWORD PTR __$EHRec$[ebp+8], -1
  0092c	8d 8d 80 f9 ff
	ff		 lea	 ecx, DWORD PTR _kLoader$[ebp]
  00932	ff 15 00 00 00
	00		 call	 DWORD PTR __imp_??1ioINILoader@@QAE@XZ
  00938	e8 00 00 00 00	 call	 __EH_epilog3_GS
  0093d	c2 08 00	 ret	 8
_TEXT	ENDS
;	COMDAT text$x
text$x	SEGMENT
__unwindfunclet$?Initialize@ioUI3DRender@@QAEXPBD0@Z$0:
  00000	8d 8d 80 f9 ff
	ff		 lea	 ecx, DWORD PTR _kLoader$[ebp]
  00006	ff 25 00 00 00
	00		 jmp	 DWORD PTR __imp_??1ioINILoader@@QAE@XZ
__unwindfunclet$?Initialize@ioUI3DRender@@QAEXPBD0@Z$1:
  0000c	ff b5 74 f9 ff
	ff		 push	 DWORD PTR $T517009[ebp]
  00012	e8 00 00 00 00	 call	 ??3@YAXPAX@Z		; operator delete
  00017	59		 pop	 ecx
  00018	c3		 ret	 0
__unwindfunclet$?Initialize@ioUI3DRender@@QAEXPBD0@Z$2:
  00019	ff b5 7c f9 ff
	ff		 push	 DWORD PTR $T517013[ebp]
  0001f	e8 00 00 00 00	 call	 ??3@YAXPAX@Z		; operator delete
  00024	59		 pop	 ecx
  00025	c3		 ret	 0
__unwindfunclet$?Initialize@ioUI3DRender@@QAEXPBD0@Z$3:
  00026	ff b5 7c f9 ff
	ff		 push	 DWORD PTR $T517017[ebp]
  0002c	e8 00 00 00 00	 call	 ??3@YAXPAX@Z		; operator delete
  00031	59		 pop	 ecx
  00032	c3		 ret	 0
__unwindfunclet$?Initialize@ioUI3DRender@@QAEXPBD0@Z$4:
  00033	8d 8d 54 f9 ff
	ff		 lea	 ecx, DWORD PTR $T517020[ebp]
  00039	ff 25 00 00 00
	00		 jmp	 DWORD PTR __imp_??1ioHashString@@QAE@XZ
__unwindfunclet$?Initialize@ioUI3DRender@@QAEXPBD0@Z$5:
  0003f	8d 8d 38 f9 ff
	ff		 lea	 ecx, DWORD PTR $T517021[ebp]
  00045	ff 25 00 00 00
	00		 jmp	 DWORD PTR __imp_??1ioHashString@@QAE@XZ
__unwindfunclet$?Initialize@ioUI3DRender@@QAEXPBD0@Z$6:
  0004b	8d 8d 64 f9 ff
	ff		 lea	 ecx, DWORD PTR $T517022[ebp]
  00051	ff 25 00 00 00
	00		 jmp	 DWORD PTR __imp_??1ioHashString@@QAE@XZ
__ehhandler$?Initialize@ioUI3DRender@@QAEXPBD0@Z:
  00057	8b 54 24 08	 mov	 edx, DWORD PTR [esp+8]
  0005b	8d 42 0c	 lea	 eax, DWORD PTR [edx+12]
  0005e	8b 8a 18 f9 ff
	ff		 mov	 ecx, DWORD PTR [edx-1768]
  00064	33 c8		 xor	 ecx, eax
  00066	e8 00 00 00 00	 call	 @__security_check_cookie@4
  0006b	8b 4a fc	 mov	 ecx, DWORD PTR [edx-4]
  0006e	33 c8		 xor	 ecx, eax
  00070	e8 00 00 00 00	 call	 @__security_check_cookie@4
  00075	b8 00 00 00 00	 mov	 eax, OFFSET __ehfuncinfo$?Initialize@ioUI3DRender@@QAEXPBD0@Z
  0007a	e9 00 00 00 00	 jmp	 ___CxxFrameHandler3
text$x	ENDS
?Initialize@ioUI3DRender@@QAEXPBD0@Z ENDP		; ioUI3DRender::Initialize
EXTRN	__imp_??1ioLookAtCameraController@@UAE@XZ:PROC
; Function compile flags: /Ogsp
;	COMDAT ??_GioLookAtCameraController@@UAEPAXI@Z
_TEXT	SEGMENT
___flags$ = 8						; size = 4
??_GioLookAtCameraController@@UAEPAXI@Z PROC		; ioLookAtCameraController::`scalar deleting destructor', COMDAT
; _this$ = ecx
  00000	55		 push	 ebp
  00001	8b ec		 mov	 ebp, esp
  00003	56		 push	 esi
  00004	8b f1		 mov	 esi, ecx
  00006	ff 15 00 00 00
	00		 call	 DWORD PTR __imp_??1ioLookAtCameraController@@UAE@XZ
  0000c	f6 45 08 01	 test	 BYTE PTR ___flags$[ebp], 1
  00010	74 07		 je	 SHORT $LN1@scalar@6
  00012	56		 push	 esi
  00013	e8 00 00 00 00	 call	 ??3@YAXPAX@Z		; operator delete
  00018	59		 pop	 ecx
$LN1@scalar@6:
  00019	8b c6		 mov	 eax, esi
  0001b	5e		 pop	 esi
  0001c	5d		 pop	 ebp
  0001d	c2 04 00	 ret	 4
??_GioLookAtCameraController@@UAEPAXI@Z ENDP		; ioLookAtCameraController::`scalar deleting destructor'
_TEXT	ENDS
EXTRN	__imp_??1ioSceneManager@@UAE@XZ:PROC
; Function compile flags: /Ogsp
;	COMDAT ??_GioSceneManager@@UAEPAXI@Z
_TEXT	SEGMENT
___flags$ = 8						; size = 4
??_GioSceneManager@@UAEPAXI@Z PROC			; ioSceneManager::`scalar deleting destructor', COMDAT
; _this$ = ecx
  00000	55		 push	 ebp
  00001	8b ec		 mov	 ebp, esp
  00003	56		 push	 esi
  00004	8b f1		 mov	 esi, ecx
  00006	ff 15 00 00 00
	00		 call	 DWORD PTR __imp_??1ioSceneManager@@UAE@XZ
  0000c	f6 45 08 01	 test	 BYTE PTR ___flags$[ebp], 1
  00010	74 07		 je	 SHORT $LN1@scalar@7
  00012	56		 push	 esi
  00013	e8 00 00 00 00	 call	 ??3@YAXPAX@Z		; operator delete
  00018	59		 pop	 ecx
$LN1@scalar@7:
  00019	8b c6		 mov	 eax, esi
  0001b	5e		 pop	 esi
  0001c	5d		 pop	 ebp
  0001d	c2 04 00	 ret	 4
??_GioSceneManager@@UAEPAXI@Z ENDP			; ioSceneManager::`scalar deleting destructor'
; Function compile flags: /Ogsp
_TEXT	ENDS
;	COMDAT ??_GioUI3DRender@@UAEPAXI@Z
_TEXT	SEGMENT
___flags$ = 8						; size = 4
??_GioUI3DRender@@UAEPAXI@Z PROC			; ioUI3DRender::`scalar deleting destructor', COMDAT
; _this$ = ecx
  00000	55		 push	 ebp
  00001	8b ec		 mov	 ebp, esp
  00003	56		 push	 esi
  00004	8b f1		 mov	 esi, ecx
  00006	e8 00 00 00 00	 call	 ??1ioUI3DRender@@UAE@XZ	; ioUI3DRender::~ioUI3DRender
  0000b	f6 45 08 01	 test	 BYTE PTR ___flags$[ebp], 1
  0000f	74 07		 je	 SHORT $LN1@scalar@8
  00011	56		 push	 esi
  00012	e8 00 00 00 00	 call	 ??3@YAXPAX@Z		; operator delete
  00017	59		 pop	 ecx
$LN1@scalar@8:
  00018	8b c6		 mov	 eax, esi
  0001a	5e		 pop	 esi
  0001b	5d		 pop	 ebp
  0001c	c2 04 00	 ret	 4
??_GioUI3DRender@@UAEPAXI@Z ENDP			; ioUI3DRender::`scalar deleting destructor'
_TEXT	ENDS
EXTRN	_atexit:PROC
; Function compile flags: /Ogsp
;	COMDAT ??__E?m_CreatedSceneMgrList@ioUI3DRender@@1V?$set@PAVioSceneManager@@U?$less@PAVioSceneManager@@@std@@V?$allocator@PAVioSceneManager@@@3@@std@@A@@YAXXZ
text$yc	SEGMENT
$T519530 = -8						; size = 4
$T519544 = -8						; size = 4
$T519539 = -1						; size = 1
??__E?m_CreatedSceneMgrList@ioUI3DRender@@1V?$set@PAVioSceneManager@@U?$less@PAVioSceneManager@@@std@@V?$allocator@PAVioSceneManager@@@3@@std@@A@@YAXXZ PROC ; `dynamic initializer for 'ioUI3DRender::m_CreatedSceneMgrList'', COMDAT

; 126  : ioUI3DRender::SceneMgrList ioUI3DRender::m_CreatedSceneMgrList;

  00000	55		 push	 ebp
  00001	8b ec		 mov	 ebp, esp
  00003	51		 push	 ecx
  00004	51		 push	 ecx
  00005	51		 push	 ecx
  00006	89 65 f8	 mov	 DWORD PTR $T519544[ebp], esp
  00009	8d 45 ff	 lea	 eax, DWORD PTR $T519539[ebp]
  0000c	89 65 f8	 mov	 DWORD PTR $T519530[ebp], esp
  0000f	50		 push	 eax
  00010	b9 00 00 00 00	 mov	 ecx, OFFSET ?m_CreatedSceneMgrList@ioUI3DRender@@1V?$set@PAVioSceneManager@@U?$less@PAVioSceneManager@@@std@@V?$allocator@PAVioSceneManager@@@3@@std@@A ; ioUI3DRender::m_CreatedSceneMgrList
  00015	e8 00 00 00 00	 call	 ??0?$_Tree_val@V?$_Tset_traits@PAVioSceneManager@@U?$less@PAVioSceneManager@@@std@@V?$allocator@PAVioSceneManager@@@3@$0A@@std@@@std@@QAE@ABU?$less@PAVioSceneManager@@@1@V?$allocator@PAVioSceneManager@@@1@@Z ; std::_Tree_val<std::_Tset_traits<ioSceneManager *,std::less<ioSceneManager *>,std::allocator<ioSceneManager *>,0> >::_Tree_val<std::_Tset_traits<ioSceneManager *,std::less<ioSceneManager *>,std::allocator<ioSceneManager *>,0> >
  0001a	68 00 00 00 00	 push	 OFFSET ??__F?m_CreatedSceneMgrList@ioUI3DRender@@1V?$set@PAVioSceneManager@@U?$less@PAVioSceneManager@@@std@@V?$allocator@PAVioSceneManager@@@3@@std@@A@@YAXXZ ; `dynamic atexit destructor for 'ioUI3DRender::m_CreatedSceneMgrList''
  0001f	e8 00 00 00 00	 call	 _atexit
  00024	59		 pop	 ecx
  00025	c9		 leave
  00026	c3		 ret	 0
??__E?m_CreatedSceneMgrList@ioUI3DRender@@1V?$set@PAVioSceneManager@@U?$less@PAVioSceneManager@@@std@@V?$allocator@PAVioSceneManager@@@3@@std@@A@@YAXXZ ENDP ; `dynamic initializer for 'ioUI3DRender::m_CreatedSceneMgrList''
; Function compile flags: /Ogsp
text$yc	ENDS
;	COMDAT ??__F?m_CreatedSceneMgrList@ioUI3DRender@@1V?$set@PAVioSceneManager@@U?$less@PAVioSceneManager@@@std@@V?$allocator@PAVioSceneManager@@@3@@std@@A@@YAXXZ
text$yd	SEGMENT
??__F?m_CreatedSceneMgrList@ioUI3DRender@@1V?$set@PAVioSceneManager@@U?$less@PAVioSceneManager@@@std@@V?$allocator@PAVioSceneManager@@@3@@std@@A@@YAXXZ PROC ; `dynamic atexit destructor for 'ioUI3DRender::m_CreatedSceneMgrList'', COMDAT
  00000	b9 00 00 00 00	 mov	 ecx, OFFSET ?m_CreatedSceneMgrList@ioUI3DRender@@1V?$set@PAVioSceneManager@@U?$less@PAVioSceneManager@@@std@@V?$allocator@PAVioSceneManager@@@3@@std@@A ; ioUI3DRender::m_CreatedSceneMgrList
  00005	e9 00 00 00 00	 jmp	 ??1?$_Tree@V?$_Tset_traits@PAVioSceneManager@@U?$less@PAVioSceneManager@@@std@@V?$allocator@PAVioSceneManager@@@3@$0A@@std@@@std@@QAE@XZ ; std::_Tree<std::_Tset_traits<ioSceneManager *,std::less<ioSceneManager *>,std::allocator<ioSceneManager *>,0> >::~_Tree<std::_Tset_traits<ioSceneManager *,std::less<ioSceneManager *>,std::allocator<ioSceneManager *>,0> >
??__F?m_CreatedSceneMgrList@ioUI3DRender@@1V?$set@PAVioSceneManager@@U?$less@PAVioSceneManager@@@std@@V?$allocator@PAVioSceneManager@@@3@@std@@A@@YAXXZ ENDP ; `dynamic atexit destructor for 'ioUI3DRender::m_CreatedSceneMgrList''
text$yd	ENDS
PUBLIC	?m_CreatedSceneMgrList@ioUI3DRender@@1V?$set@PAVioSceneManager@@U?$less@PAVioSceneManager@@@std@@V?$allocator@PAVioSceneManager@@@3@@std@@A ; ioUI3DRender::m_CreatedSceneMgrList
_BSS	SEGMENT
?m_CreatedSceneMgrList@ioUI3DRender@@1V?$set@PAVioSceneManager@@U?$less@PAVioSceneManager@@@std@@V?$allocator@PAVioSceneManager@@@3@@std@@A DB 010H DUP (?) ; ioUI3DRender::m_CreatedSceneMgrList
_BSS	ENDS
CRT$XCU	SEGMENT
?m_CreatedSceneMgrList$initializer$@ioUI3DRender@@1P6AXXZA DD FLAT:??__E?m_CreatedSceneMgrList@ioUI3DRender@@1V?$set@PAVioSceneManager@@U?$less@PAVioSceneManager@@@std@@V?$allocator@PAVioSceneManager@@@3@@std@@A@@YAXXZ ; ioUI3DRender::m_CreatedSceneMgrList$initializer$
CRT$XCU	ENDS
END
