; Listing generated by Microsoft (R) Optimizing Compiler Version 16.00.30319.01 

	TITLE	D:\Lost Saga For Developer\Youtube\Tutorial\Source\src\LSClient\ioUroborusWeapon6.cpp
	.686P
	.XMM
	include listing.inc
	.model	flat

INCLUDELIB MSVCRT
INCLUDELIB OLDNAMES

PUBLIC	?_EEM_DS@?$deque@UD3DXVECTOR3@@V?$allocator@UD3DXVECTOR3@@@std@@@std@@2HB ; std::deque<D3DXVECTOR3,std::allocator<D3DXVECTOR3> >::_EEM_DS
PUBLIC	?m_ActionStopType@ioUroborusWeapon6@@2W4ActionStopType@@A ; ioUroborusWeapon6::m_ActionStopType
PUBLIC	?m_DieActionStopType@ioUroborusWeapon6@@2W4ActionStopType@@A ; ioUroborusWeapon6::m_DieActionStopType
_BSS	SEGMENT
?m_ActionStopType@ioUroborusWeapon6@@2W4ActionStopType@@A DD 01H DUP (?) ; ioUroborusWeapon6::m_ActionStopType
?m_DieActionStopType@ioUroborusWeapon6@@2W4ActionStopType@@A DD 01H DUP (?) ; ioUroborusWeapon6::m_DieActionStopType
_BSS	ENDS
;	COMDAT ?_EEM_DS@?$deque@UD3DXVECTOR3@@V?$allocator@UD3DXVECTOR3@@@std@@@std@@2HB
CONST	SEGMENT
?_EEM_DS@?$deque@UD3DXVECTOR3@@V?$allocator@UD3DXVECTOR3@@@std@@@std@@2HB DD 01H ; std::deque<D3DXVECTOR3,std::allocator<D3DXVECTOR3> >::_EEM_DS
CONST	ENDS
PUBLIC	?return1@@YAIXZ					; return1
; Function compile flags: /Ogsp
; File d:\lost saga for developer\youtube\tutorial\source\src\lsclient\stdafx.h
;	COMDAT ?return1@@YAIXZ
_TEXT	SEGMENT
?return1@@YAIXZ PROC					; return1, COMDAT

; 17   : 	__forceinline unsigned int return1() { __asm mov eax, 1 };

  00000	b8 01 00 00 00	 mov	 eax, 1
  00005	c3		 ret	 0
?return1@@YAIXZ ENDP					; return1
_TEXT	ENDS
PUBLIC	?return5@@YAIXZ					; return5
; Function compile flags: /Ogsp
;	COMDAT ?return5@@YAIXZ
_TEXT	SEGMENT
?return5@@YAIXZ PROC					; return5, COMDAT

; 18   : 	__forceinline unsigned int return5() { __asm mov eax, 5 };

  00000	b8 05 00 00 00	 mov	 eax, 5
  00005	c3		 ret	 0
?return5@@YAIXZ ENDP					; return5
_TEXT	ENDS
PUBLIC	?return10@@YAIXZ				; return10
; Function compile flags: /Ogsp
;	COMDAT ?return10@@YAIXZ
_TEXT	SEGMENT
?return10@@YAIXZ PROC					; return10, COMDAT

; 21   : 	__forceinline unsigned int return10() { __asm mov eax, 10 };

  00000	b8 0a 00 00 00	 mov	 eax, 10			; 0000000aH
  00005	c3		 ret	 0
?return10@@YAIXZ ENDP					; return10
_TEXT	ENDS
PUBLIC	?return1000@@YAIXZ				; return1000
; Function compile flags: /Ogsp
;	COMDAT ?return1000@@YAIXZ
_TEXT	SEGMENT
?return1000@@YAIXZ PROC					; return1000, COMDAT

; 29   : 	__forceinline unsigned int return1000() { __asm mov eax, 1000 };

  00000	b8 e8 03 00 00	 mov	 eax, 1000		; 000003e8H
  00005	c3		 ret	 0
?return1000@@YAIXZ ENDP					; return1000
_TEXT	ENDS
PUBLIC	_sqrtf
EXTRN	__fltused:DWORD
EXTRN	__CIsqrt:PROC
; Function compile flags: /Ogsp
; File c:\program files (x86)\microsoft visual studio 10.0\vc\include\math.h
;	COMDAT _sqrtf
_TEXT	SEGMENT
tv69 = 8						; size = 4
__X$ = 8						; size = 4
_sqrtf	PROC						; COMDAT

; 434  :         {return ((float)sqrt((double)_X)); }

  00000	55		 push	 ebp
  00001	8b ec		 mov	 ebp, esp
  00003	d9 45 08	 fld	 DWORD PTR __X$[ebp]
  00006	e8 00 00 00 00	 call	 __CIsqrt
  0000b	d9 5d 08	 fstp	 DWORD PTR tv69[ebp]
  0000e	d9 45 08	 fld	 DWORD PTR tv69[ebp]
  00011	5d		 pop	 ebp
  00012	c3		 ret	 0
_sqrtf	ENDP
_TEXT	ENDS
PUBLIC	?GetCreator@ioBaseChar@@QAEPAVioPlayStage@@XZ	; ioBaseChar::GetCreator
; Function compile flags: /Ogsp
; File d:\lost saga for developer\youtube\tutorial\source\src\lsclient\iobasechar.h
;	COMDAT ?GetCreator@ioBaseChar@@QAEPAVioPlayStage@@XZ
_TEXT	SEGMENT
?GetCreator@ioBaseChar@@QAEPAVioPlayStage@@XZ PROC	; ioBaseChar::GetCreator, COMDAT
; _this$ = ecx

; 4013 : 	inline ioPlayStage* GetCreator() { return m_pCreator; }

  00000	8b 81 44 03 00
	00		 mov	 eax, DWORD PTR [ecx+836]
  00006	c3		 ret	 0
?GetCreator@ioBaseChar@@QAEPAVioPlayStage@@XZ ENDP	; ioBaseChar::GetCreator
_TEXT	ENDS
PUBLIC	?InitResource@ioUroborusWeapon6@@UAE_NXZ	; ioUroborusWeapon6::InitResource
; Function compile flags: /Ogsp
; File d:\lost saga for developer\youtube\tutorial\source\src\lsclient\iouroborusweapon6.cpp
;	COMDAT ?InitResource@ioUroborusWeapon6@@UAE_NXZ
_TEXT	SEGMENT
?InitResource@ioUroborusWeapon6@@UAE_NXZ PROC		; ioUroborusWeapon6::InitResource, COMDAT
; _this$ = ecx

; 49   : 	return true;

  00000	b0 01		 mov	 al, 1

; 50   : }

  00002	c3		 ret	 0
?InitResource@ioUroborusWeapon6@@UAE_NXZ ENDP		; ioUroborusWeapon6::InitResource
_TEXT	ENDS
PUBLIC	?SetWeaponIndex@ioUroborusWeapon6@@UAEXK@Z	; ioUroborusWeapon6::SetWeaponIndex
; Function compile flags: /Ogsp
;	COMDAT ?SetWeaponIndex@ioUroborusWeapon6@@UAEXK@Z
_TEXT	SEGMENT
_dwIndex$ = 8						; size = 4
?SetWeaponIndex@ioUroborusWeapon6@@UAEXK@Z PROC		; ioUroborusWeapon6::SetWeaponIndex, COMDAT
; _this$ = ecx

; 93   : {

  00000	55		 push	 ebp
  00001	8b ec		 mov	 ebp, esp

; 94   : 	m_dwWeaponIdx = dwIndex;

  00003	8b 45 08	 mov	 eax, DWORD PTR _dwIndex$[ebp]
  00006	89 81 b8 04 00
	00		 mov	 DWORD PTR [ecx+1208], eax

; 95   : }

  0000c	5d		 pop	 ebp
  0000d	c2 04 00	 ret	 4
?SetWeaponIndex@ioUroborusWeapon6@@UAEXK@Z ENDP		; ioUroborusWeapon6::SetWeaponIndex
_TEXT	ENDS
PUBLIC	?GetMoveDir@ioUroborusWeapon6@@UAE?AUD3DXVECTOR3@@XZ ; ioUroborusWeapon6::GetMoveDir
; Function compile flags: /Ogsp
;	COMDAT ?GetMoveDir@ioUroborusWeapon6@@UAE?AUD3DXVECTOR3@@XZ
_TEXT	SEGMENT
___$ReturnUdt$ = 8					; size = 4
?GetMoveDir@ioUroborusWeapon6@@UAE?AUD3DXVECTOR3@@XZ PROC ; ioUroborusWeapon6::GetMoveDir, COMDAT
; _this$ = ecx

; 190  : {

  00000	55		 push	 ebp
  00001	8b ec		 mov	 ebp, esp

; 191  : 	return m_vMoveDir;

  00003	8b 45 08	 mov	 eax, DWORD PTR ___$ReturnUdt$[ebp]
  00006	56		 push	 esi
  00007	57		 push	 edi
  00008	8d b1 e0 08 00
	00		 lea	 esi, DWORD PTR [ecx+2272]
  0000e	8b f8		 mov	 edi, eax
  00010	a5		 movsd
  00011	a5		 movsd
  00012	a5		 movsd
  00013	5f		 pop	 edi
  00014	5e		 pop	 esi

; 192  : }

  00015	5d		 pop	 ebp
  00016	c2 04 00	 ret	 4
?GetMoveDir@ioUroborusWeapon6@@UAE?AUD3DXVECTOR3@@XZ ENDP ; ioUroborusWeapon6::GetMoveDir
_TEXT	ENDS
PUBLIC	?GetAttackDir@ioUroborusWeapon6@@UBE?AUD3DXVECTOR3@@PBVioPlayEntity@@@Z ; ioUroborusWeapon6::GetAttackDir
; Function compile flags: /Ogsp
;	COMDAT ?GetAttackDir@ioUroborusWeapon6@@UBE?AUD3DXVECTOR3@@PBVioPlayEntity@@@Z
_TEXT	SEGMENT
___$ReturnUdt$ = 8					; size = 4
_pEntity$ = 12						; size = 4
?GetAttackDir@ioUroborusWeapon6@@UBE?AUD3DXVECTOR3@@PBVioPlayEntity@@@Z PROC ; ioUroborusWeapon6::GetAttackDir, COMDAT
; _this$ = ecx

; 196  : {

  00000	55		 push	 ebp
  00001	8b ec		 mov	 ebp, esp

; 197  : 	return m_vMoveDir;

  00003	8b 45 08	 mov	 eax, DWORD PTR ___$ReturnUdt$[ebp]
  00006	56		 push	 esi
  00007	57		 push	 edi
  00008	8d b1 e0 08 00
	00		 lea	 esi, DWORD PTR [ecx+2272]
  0000e	8b f8		 mov	 edi, eax
  00010	a5		 movsd
  00011	a5		 movsd
  00012	a5		 movsd
  00013	5f		 pop	 edi
  00014	5e		 pop	 esi

; 198  : }

  00015	5d		 pop	 ebp
  00016	c2 08 00	 ret	 8
?GetAttackDir@ioUroborusWeapon6@@UBE?AUD3DXVECTOR3@@PBVioPlayEntity@@@Z ENDP ; ioUroborusWeapon6::GetAttackDir
_TEXT	ENDS
PUBLIC	?SetStartPosition@ioUroborusWeapon6@@UAEXABUD3DXVECTOR3@@PAVioPlayStage@@@Z ; ioUroborusWeapon6::SetStartPosition
EXTRN	?SetPosition@ioWeapon@@QAEXABUD3DXVECTOR3@@@Z:PROC ; ioWeapon::SetPosition
EXTRN	__imp_??1ioHashString@@QAE@XZ:PROC
EXTRN	__imp_?HasLinkedSystem@ioEffect@@QBE_NXZ:PROC
EXTRN	__imp_?IsEmpty@ioHashString@@QBE_NXZ:PROC
EXTRN	__imp_?GetSkeletonName@ioEffect@@QBE?AVioHashString@@XZ:PROC
EXTRN	___CxxFrameHandler3:PROC
EXTRN	@__security_check_cookie@4:PROC
EXTRN	__EH_epilog3:PROC
EXTRN	__EH_prolog3:PROC
;	COMDAT xdata$x
xdata$x	SEGMENT
__unwindtable$?SetStartPosition@ioUroborusWeapon6@@UAEXABUD3DXVECTOR3@@PAVioPlayStage@@@Z DD 0ffffffffH
	DD	FLAT:__unwindfunclet$?SetStartPosition@ioUroborusWeapon6@@UAEXABUD3DXVECTOR3@@PAVioPlayStage@@@Z$0
__ehfuncinfo$?SetStartPosition@ioUroborusWeapon6@@UAEXABUD3DXVECTOR3@@PAVioPlayStage@@@Z DD 019930522H
	DD	01H
	DD	FLAT:__unwindtable$?SetStartPosition@ioUroborusWeapon6@@UAEXABUD3DXVECTOR3@@PAVioPlayStage@@@Z
	DD	2 DUP(00H)
	DD	2 DUP(00H)
	DD	00H
	DD	01H
; Function compile flags: /Ogsp
xdata$x	ENDS
;	COMDAT ?SetStartPosition@ioUroborusWeapon6@@UAEXABUD3DXVECTOR3@@PAVioPlayStage@@@Z
_TEXT	SEGMENT
$T533910 = -32						; size = 16
$T533913 = -16						; size = 4
__$EHRec$ = -12						; size = 12
_vPos$ = 8						; size = 4
_pStage$ = 12						; size = 4
?SetStartPosition@ioUroborusWeapon6@@UAEXABUD3DXVECTOR3@@PAVioPlayStage@@@Z PROC ; ioUroborusWeapon6::SetStartPosition, COMDAT
; _this$ = ecx

; 201  : {

  00000	6a 14		 push	 20			; 00000014H
  00002	b8 00 00 00 00	 mov	 eax, __ehhandler$?SetStartPosition@ioUroborusWeapon6@@UAEXABUD3DXVECTOR3@@PAVioPlayStage@@@Z
  00007	e8 00 00 00 00	 call	 __EH_prolog3
  0000c	8b f1		 mov	 esi, ecx
  0000e	83 65 f0 00	 and	 DWORD PTR $T533913[ebp], 0

; 202  : 	if( m_pFireMesh && m_pFireMesh->GetSkeletonName().IsEmpty() && m_pFireMesh->HasLinkedSystem() && !m_bUseEffectStartPosMode )

  00012	8b 8e 98 08 00
	00		 mov	 ecx, DWORD PTR [esi+2200]
  00018	85 c9		 test	 ecx, ecx
  0001a	74 3e		 je	 SHORT $LN4@SetStartPo
  0001c	8d 45 e0	 lea	 eax, DWORD PTR $T533910[ebp]
  0001f	50		 push	 eax
  00020	ff 15 00 00 00
	00		 call	 DWORD PTR __imp_?GetSkeletonName@ioEffect@@QBE?AVioHashString@@XZ
  00026	83 65 fc 00	 and	 DWORD PTR __$EHRec$[ebp+8], 0
  0002a	8b c8		 mov	 ecx, eax
  0002c	c7 45 f0 01 00
	00 00		 mov	 DWORD PTR $T533913[ebp], 1
  00033	ff 15 00 00 00
	00		 call	 DWORD PTR __imp_?IsEmpty@ioHashString@@QBE_NXZ
  00039	84 c0		 test	 al, al
  0003b	74 1d		 je	 SHORT $LN4@SetStartPo
  0003d	8b 8e 98 08 00
	00		 mov	 ecx, DWORD PTR [esi+2200]
  00043	ff 15 00 00 00
	00		 call	 DWORD PTR __imp_?HasLinkedSystem@ioEffect@@QBE_NXZ
  00049	84 c0		 test	 al, al
  0004b	74 0d		 je	 SHORT $LN4@SetStartPo
  0004d	80 be fc 09 00
	00 00		 cmp	 BYTE PTR [esi+2556], 0
  00054	75 04		 jne	 SHORT $LN4@SetStartPo
  00056	b3 01		 mov	 bl, 1
  00058	eb 02		 jmp	 SHORT $LN5@SetStartPo
$LN4@SetStartPo:
  0005a	32 db		 xor	 bl, bl
$LN5@SetStartPo:
  0005c	83 4d fc ff	 or	 DWORD PTR __$EHRec$[ebp+8], -1
  00060	f6 45 f0 01	 test	 BYTE PTR $T533913[ebp], 1
  00064	74 09		 je	 SHORT $LN8@SetStartPo
  00066	8d 4d e0	 lea	 ecx, DWORD PTR $T533910[ebp]
  00069	ff 15 00 00 00
	00		 call	 DWORD PTR __imp_??1ioHashString@@QAE@XZ
$LN8@SetStartPo:
  0006f	84 db		 test	 bl, bl
  00071	75 16		 jne	 SHORT $LN2@SetStartPo

; 203  : 		return;
; 204  : 
; 205  : 	SetPosition( vPos );

  00073	ff 75 08	 push	 DWORD PTR _vPos$[ebp]
  00076	8b ce		 mov	 ecx, esi
  00078	e8 00 00 00 00	 call	 ?SetPosition@ioWeapon@@QAEXABUD3DXVECTOR3@@@Z ; ioWeapon::SetPosition

; 206  : 
; 207  : 	m_StartPos = vPos;

  0007d	8d be f0 09 00
	00		 lea	 edi, DWORD PTR [esi+2544]
  00083	8b 75 08	 mov	 esi, DWORD PTR _vPos$[ebp]
  00086	a5		 movsd
  00087	a5		 movsd
  00088	a5		 movsd
$LN2@SetStartPo:

; 208  : }

  00089	e8 00 00 00 00	 call	 __EH_epilog3
  0008e	c2 08 00	 ret	 8
_TEXT	ENDS
;	COMDAT text$x
text$x	SEGMENT
__unwindfunclet$?SetStartPosition@ioUroborusWeapon6@@UAEXABUD3DXVECTOR3@@PAVioPlayStage@@@Z$0:
  00000	8b 45 f0	 mov	 eax, DWORD PTR $T533913[ebp]
  00003	83 e0 01	 and	 eax, 1
  00006	0f 84 0d 00 00
	00		 je	 $LN7@SetStartPo
  0000c	83 65 f0 fe	 and	 DWORD PTR $T533913[ebp], -2 ; fffffffeH
  00010	8d 4d e0	 lea	 ecx, DWORD PTR $T533910[ebp]
  00013	ff 25 00 00 00
	00		 jmp	 DWORD PTR __imp_??1ioHashString@@QAE@XZ
$LN7@SetStartPo:
  00019	c3		 ret	 0
__ehhandler$?SetStartPosition@ioUroborusWeapon6@@UAEXABUD3DXVECTOR3@@PAVioPlayStage@@@Z:
  0001a	8b 54 24 08	 mov	 edx, DWORD PTR [esp+8]
  0001e	8d 42 0c	 lea	 eax, DWORD PTR [edx+12]
  00021	8b 4a dc	 mov	 ecx, DWORD PTR [edx-36]
  00024	33 c8		 xor	 ecx, eax
  00026	e8 00 00 00 00	 call	 @__security_check_cookie@4
  0002b	b8 00 00 00 00	 mov	 eax, OFFSET __ehfuncinfo$?SetStartPosition@ioUroborusWeapon6@@UAEXABUD3DXVECTOR3@@PAVioPlayStage@@@Z
  00030	e9 00 00 00 00	 jmp	 ___CxxFrameHandler3
text$x	ENDS
?SetStartPosition@ioUroborusWeapon6@@UAEXABUD3DXVECTOR3@@PAVioPlayStage@@@Z ENDP ; ioUroborusWeapon6::SetStartPosition
PUBLIC	?SetReturnMove@ioUroborusWeapon6@@IAEXXZ	; ioUroborusWeapon6::SetReturnMove
; Function compile flags: /Ogsp
;	COMDAT ?SetReturnMove@ioUroborusWeapon6@@IAEXXZ
_TEXT	SEGMENT
?SetReturnMove@ioUroborusWeapon6@@IAEXXZ PROC		; ioUroborusWeapon6::SetReturnMove, COMDAT
; _this$ = ecx

; 306  : 	m_fCurMoveRange = 0.f;

  00000	0f 57 c0	 xorps	 xmm0, xmm0
  00003	f3 0f 11 81 20
	09 00 00	 movss	 DWORD PTR [ecx+2336], xmm0

; 307  : 
; 308  : 	m_UroborusState = US_RETURN_MOVE;

  0000b	c7 81 94 08 00
	00 01 00 00 00	 mov	 DWORD PTR [ecx+2196], 1

; 309  : }

  00015	c3		 ret	 0
?SetReturnMove@ioUroborusWeapon6@@IAEXXZ ENDP		; ioUroborusWeapon6::SetReturnMove
_TEXT	ENDS
PUBLIC	?DestroyResource@ioUroborusWeapon6@@UAEXPAVioPlayStage@@@Z ; ioUroborusWeapon6::DestroyResource
EXTRN	__imp_?DestroyEffect@ioEffectFactory@@QAEXPAVioEffect@@@Z:PROC
EXTRN	__imp_?GetSingleton@ioEffectFactory@@SAAAV1@XZ:PROC
; Function compile flags: /Ogsp
;	COMDAT ?DestroyResource@ioUroborusWeapon6@@UAEXPAVioPlayStage@@@Z
_TEXT	SEGMENT
_pStage$ = 8						; size = 4
?DestroyResource@ioUroborusWeapon6@@UAEXPAVioPlayStage@@@Z PROC ; ioUroborusWeapon6::DestroyResource, COMDAT
; _this$ = ecx

; 363  : {

  00000	56		 push	 esi

; 364  : 	if( m_pFireMesh )

  00001	8d b1 98 08 00
	00		 lea	 esi, DWORD PTR [ecx+2200]
  00007	8b 06		 mov	 eax, DWORD PTR [esi]
  00009	85 c0		 test	 eax, eax
  0000b	74 12		 je	 SHORT $LN1@DestroyRes

; 365  : 	{
; 366  : 		g_EffectFactory.DestroyEffect( m_pFireMesh );

  0000d	50		 push	 eax
  0000e	ff 15 00 00 00
	00		 call	 DWORD PTR __imp_?GetSingleton@ioEffectFactory@@SAAAV1@XZ
  00014	8b c8		 mov	 ecx, eax
  00016	ff 15 00 00 00
	00		 call	 DWORD PTR __imp_?DestroyEffect@ioEffectFactory@@QAEXPAVioEffect@@@Z

; 367  : 		m_pFireMesh = NULL;

  0001c	83 26 00	 and	 DWORD PTR [esi], 0
$LN1@DestroyRes:
  0001f	5e		 pop	 esi

; 368  : 	}
; 369  : }

  00020	c2 04 00	 ret	 4
?DestroyResource@ioUroborusWeapon6@@UAEXPAVioPlayStage@@@Z ENDP ; ioUroborusWeapon6::DestroyResource
_TEXT	ENDS
PUBLIC	?GetLocalAttackBox@ioUroborusWeapon6@@UBEABVioOrientBox@@XZ ; ioUroborusWeapon6::GetLocalAttackBox
; Function compile flags: /Ogsp
;	COMDAT ?GetLocalAttackBox@ioUroborusWeapon6@@UBEABVioOrientBox@@XZ
_TEXT	SEGMENT
?GetLocalAttackBox@ioUroborusWeapon6@@UBEABVioOrientBox@@XZ PROC ; ioUroborusWeapon6::GetLocalAttackBox, COMDAT
; _this$ = ecx

; 373  : 	return m_LocalAttackBox;

  00000	8d 81 9c 08 00
	00		 lea	 eax, DWORD PTR [ecx+2204]

; 374  : }

  00006	c3		 ret	 0
?GetLocalAttackBox@ioUroborusWeapon6@@UBEABVioOrientBox@@XZ ENDP ; ioUroborusWeapon6::GetLocalAttackBox
_TEXT	ENDS
PUBLIC	?GetType@ioUroborusWeapon6@@UBE?AW4WeaponType@ioWeapon@@XZ ; ioUroborusWeapon6::GetType
; Function compile flags: /Ogsp
;	COMDAT ?GetType@ioUroborusWeapon6@@UBE?AW4WeaponType@ioWeapon@@XZ
_TEXT	SEGMENT
?GetType@ioUroborusWeapon6@@UBE?AW4WeaponType@ioWeapon@@XZ PROC ; ioUroborusWeapon6::GetType, COMDAT
; _this$ = ecx

; 378  : 	return WT_UROBORUS6;

  00000	6a 65		 push	 101			; 00000065H
  00002	58		 pop	 eax

; 379  : }

  00003	c3		 ret	 0
?GetType@ioUroborusWeapon6@@UBE?AW4WeaponType@ioWeapon@@XZ ENDP ; ioUroborusWeapon6::GetType
_TEXT	ENDS
PUBLIC	?GetActionStopType@ioUroborusWeapon6@@UBE?AW4ActionStopType@@XZ ; ioUroborusWeapon6::GetActionStopType
; Function compile flags: /Ogsp
;	COMDAT ?GetActionStopType@ioUroborusWeapon6@@UBE?AW4ActionStopType@@XZ
_TEXT	SEGMENT
?GetActionStopType@ioUroborusWeapon6@@UBE?AW4ActionStopType@@XZ PROC ; ioUroborusWeapon6::GetActionStopType, COMDAT
; _this$ = ecx

; 383  : 	return m_ActionStopType;

  00000	a1 00 00 00 00	 mov	 eax, DWORD PTR ?m_ActionStopType@ioUroborusWeapon6@@2W4ActionStopType@@A ; ioUroborusWeapon6::m_ActionStopType

; 384  : }

  00005	c3		 ret	 0
?GetActionStopType@ioUroborusWeapon6@@UBE?AW4ActionStopType@@XZ ENDP ; ioUroborusWeapon6::GetActionStopType
_TEXT	ENDS
PUBLIC	?GetDieActionStopType@ioUroborusWeapon6@@UBE?AW4ActionStopType@@XZ ; ioUroborusWeapon6::GetDieActionStopType
; Function compile flags: /Ogsp
;	COMDAT ?GetDieActionStopType@ioUroborusWeapon6@@UBE?AW4ActionStopType@@XZ
_TEXT	SEGMENT
?GetDieActionStopType@ioUroborusWeapon6@@UBE?AW4ActionStopType@@XZ PROC ; ioUroborusWeapon6::GetDieActionStopType, COMDAT
; _this$ = ecx

; 388  : 	return m_DieActionStopType;

  00000	a1 00 00 00 00	 mov	 eax, DWORD PTR ?m_DieActionStopType@ioUroborusWeapon6@@2W4ActionStopType@@A ; ioUroborusWeapon6::m_DieActionStopType

; 389  : }

  00005	c3		 ret	 0
?GetDieActionStopType@ioUroborusWeapon6@@UBE?AW4ActionStopType@@XZ ENDP ; ioUroborusWeapon6::GetDieActionStopType
_TEXT	ENDS
PUBLIC	?GetMaxRange@ioUroborusWeapon6@@QAEMXZ		; ioUroborusWeapon6::GetMaxRange
; Function compile flags: /Ogsp
;	COMDAT ?GetMaxRange@ioUroborusWeapon6@@QAEMXZ
_TEXT	SEGMENT
?GetMaxRange@ioUroborusWeapon6@@QAEMXZ PROC		; ioUroborusWeapon6::GetMaxRange, COMDAT
; _this$ = ecx

; 405  : 	return GetAttribute()->m_fMoveRange;// * m_fOwnerChargeRangeRate;

  00000	8b 01		 mov	 eax, DWORD PTR [ecx]
  00002	ff 90 3c 01 00
	00		 call	 DWORD PTR [eax+316]
  00008	d9 80 9c 01 00
	00		 fld	 DWORD PTR [eax+412]

; 406  : }

  0000e	c3		 ret	 0
?GetMaxRange@ioUroborusWeapon6@@QAEMXZ ENDP		; ioUroborusWeapon6::GetMaxRange
_TEXT	ENDS
PUBLIC	?CheckOwnerState@ioUroborusWeapon6@@IAE_NXZ	; ioUroborusWeapon6::CheckOwnerState
EXTRN	?GetOwner@ioWeapon@@QBEPAVioBaseChar@@XZ:PROC	; ioWeapon::GetOwner
; Function compile flags: /Ogsp
;	COMDAT ?CheckOwnerState@ioUroborusWeapon6@@IAE_NXZ
_TEXT	SEGMENT
?CheckOwnerState@ioUroborusWeapon6@@IAE_NXZ PROC	; ioUroborusWeapon6::CheckOwnerState, COMDAT
; _this$ = ecx

; 522  : 	ioBaseChar *pOwner = GetOwner();

  00000	e8 00 00 00 00	 call	 ?GetOwner@ioWeapon@@QBEPAVioBaseChar@@XZ ; ioWeapon::GetOwner

; 523  : 	if( !pOwner )

  00005	85 c0		 test	 eax, eax
  00007	0f 95 c0	 setne	 al

; 524  : 		return false;
; 525  : 
; 526  : 	return true;
; 527  : }

  0000a	c3		 ret	 0
?CheckOwnerState@ioUroborusWeapon6@@IAE_NXZ ENDP	; ioUroborusWeapon6::CheckOwnerState
_TEXT	ENDS
PUBLIC	?SetTraceTargetName@ioUroborusWeapon6@@QAEXABVioHashString@@@Z ; ioUroborusWeapon6::SetTraceTargetName
EXTRN	__imp_??4ioHashString@@QAEAAV0@ABV0@@Z:PROC
; Function compile flags: /Ogsp
;	COMDAT ?SetTraceTargetName@ioUroborusWeapon6@@QAEXABVioHashString@@@Z
_TEXT	SEGMENT
_szName$ = 8						; size = 4
?SetTraceTargetName@ioUroborusWeapon6@@QAEXABVioHashString@@@Z PROC ; ioUroborusWeapon6::SetTraceTargetName, COMDAT
; _this$ = ecx

; 531  : {

  00000	55		 push	 ebp
  00001	8b ec		 mov	 ebp, esp

; 532  : 	m_bTraceTarget = true;

  00003	c6 81 d8 09 00
	00 01		 mov	 BYTE PTR [ecx+2520], 1

; 533  : 	m_TraceTargetName = szName;

  0000a	81 c1 dc 09 00
	00		 add	 ecx, 2524		; 000009dcH

; 534  : }

  00010	5d		 pop	 ebp

; 533  : 	m_TraceTargetName = szName;

  00011	ff 25 00 00 00
	00		 jmp	 DWORD PTR __imp_??4ioHashString@@QAEAAV0@ABV0@@Z
?SetTraceTargetName@ioUroborusWeapon6@@QAEXABVioHashString@@@Z ENDP ; ioUroborusWeapon6::SetTraceTargetName
_TEXT	ENDS
PUBLIC	__real@3f91df46a2526c7a
PUBLIC	??$DEGtoRAD@M@@YAMM@Z				; DEGtoRAD<float>
;	COMDAT __real@3f91df46a2526c7a
; File d:\lost saga for developer\youtube\tutorial\source\src\lsclient\veryoftenusedefine.h
CONST	SEGMENT
__real@3f91df46a2526c7a DQ 03f91df46a2526c7ar	; 0.0174533
; Function compile flags: /Ogsp
CONST	ENDS
;	COMDAT ??$DEGtoRAD@M@@YAMM@Z
_TEXT	SEGMENT
tv129 = 8						; size = 4
_val$ = 8						; size = 4
??$DEGtoRAD@M@@YAMM@Z PROC				; DEGtoRAD<float>, COMDAT

; 20   : type  DEGtoRAD (type val) {return (type) (val * 0.0174532925199);}

  00000	55		 push	 ebp
  00001	8b ec		 mov	 ebp, esp
  00003	d9 45 08	 fld	 DWORD PTR _val$[ebp]
  00006	dc 0d 00 00 00
	00		 fmul	 QWORD PTR __real@3f91df46a2526c7a
  0000c	d9 5d 08	 fstp	 DWORD PTR tv129[ebp]
  0000f	d9 45 08	 fld	 DWORD PTR tv129[ebp]
  00012	5d		 pop	 ebp
  00013	c3		 ret	 0
??$DEGtoRAD@M@@YAMM@Z ENDP				; DEGtoRAD<float>
_TEXT	ENDS
PUBLIC	??0D3DXVECTOR3@@QAE@XZ				; D3DXVECTOR3::D3DXVECTOR3
; Function compile flags: /Ogsp
; File c:\program files (x86)\microsoft directx sdk (june 2010)\include\d3dx9math.h
;	COMDAT ??0D3DXVECTOR3@@QAE@XZ
_TEXT	SEGMENT
??0D3DXVECTOR3@@QAE@XZ PROC				; D3DXVECTOR3::D3DXVECTOR3, COMDAT
; _this$ = ecx

; 165  :     D3DXVECTOR3() {};

  00000	8b c1		 mov	 eax, ecx
  00002	c3		 ret	 0
??0D3DXVECTOR3@@QAE@XZ ENDP				; D3DXVECTOR3::D3DXVECTOR3
_TEXT	ENDS
PUBLIC	??0D3DXQUATERNION@@QAE@XZ			; D3DXQUATERNION::D3DXQUATERNION
; Function compile flags: /Ogsp
;	COMDAT ??0D3DXQUATERNION@@QAE@XZ
_TEXT	SEGMENT
??0D3DXQUATERNION@@QAE@XZ PROC				; D3DXQUATERNION::D3DXQUATERNION, COMDAT
; _this$ = ecx

; 429  :     D3DXQUATERNION() {}

  00000	8b c1		 mov	 eax, ecx
  00002	c3		 ret	 0
??0D3DXQUATERNION@@QAE@XZ ENDP				; D3DXQUATERNION::D3DXQUATERNION
_TEXT	ENDS
PUBLIC	??0D3DXVECTOR3@@QAE@MMM@Z			; D3DXVECTOR3::D3DXVECTOR3
; Function compile flags: /Ogsp
; File c:\program files (x86)\microsoft directx sdk (june 2010)\include\d3dx9math.inl
;	COMDAT ??0D3DXVECTOR3@@QAE@MMM@Z
_TEXT	SEGMENT
_fx$ = 8						; size = 4
_fy$ = 12						; size = 4
_fz$ = 16						; size = 4
??0D3DXVECTOR3@@QAE@MMM@Z PROC				; D3DXVECTOR3::D3DXVECTOR3, COMDAT
; _this$ = ecx

; 303  : {

  00000	55		 push	 ebp
  00001	8b ec		 mov	 ebp, esp

; 304  :     x = fx;

  00003	f3 0f 10 45 08	 movss	 xmm0, DWORD PTR _fx$[ebp]
  00008	8b c1		 mov	 eax, ecx
  0000a	f3 0f 11 00	 movss	 DWORD PTR [eax], xmm0

; 305  :     y = fy;

  0000e	f3 0f 10 45 0c	 movss	 xmm0, DWORD PTR _fy$[ebp]
  00013	f3 0f 11 40 04	 movss	 DWORD PTR [eax+4], xmm0

; 306  :     z = fz;

  00018	f3 0f 10 45 10	 movss	 xmm0, DWORD PTR _fz$[ebp]
  0001d	f3 0f 11 40 08	 movss	 DWORD PTR [eax+8], xmm0

; 307  : }

  00022	5d		 pop	 ebp
  00023	c2 0c 00	 ret	 12			; 0000000cH
??0D3DXVECTOR3@@QAE@MMM@Z ENDP				; D3DXVECTOR3::D3DXVECTOR3
_TEXT	ENDS
PUBLIC	__mask@@NegFloat@
PUBLIC	??GD3DXVECTOR3@@QBE?AU0@XZ			; D3DXVECTOR3::operator-
;	COMDAT __mask@@NegFloat@
CONST	SEGMENT
__mask@@NegFloat@ DB 00H, 00H, 00H, 080H, 00H, 00H, 00H, 080H, 00H, 00H, 00H
	DB	080H, 00H, 00H, 00H, 080H
; Function compile flags: /Ogsp
CONST	ENDS
;	COMDAT ??GD3DXVECTOR3@@QBE?AU0@XZ
_TEXT	SEGMENT
___$ReturnUdt$ = 8					; size = 4
??GD3DXVECTOR3@@QBE?AU0@XZ PROC				; D3DXVECTOR3::operator-, COMDAT
; _this$ = ecx

; 372  : {

  00000	55		 push	 ebp
  00001	8b ec		 mov	 ebp, esp

; 373  :     return D3DXVECTOR3(-x, -y, -z);

  00003	f3 0f 10 05 00
	00 00 00	 movss	 xmm0, DWORD PTR __mask@@NegFloat@
  0000b	8b 45 08	 mov	 eax, DWORD PTR ___$ReturnUdt$[ebp]
  0000e	f3 0f 10 09	 movss	 xmm1, DWORD PTR [ecx]
  00012	0f 57 c8	 xorps	 xmm1, xmm0
  00015	f3 0f 11 08	 movss	 DWORD PTR [eax], xmm1
  00019	f3 0f 10 49 04	 movss	 xmm1, DWORD PTR [ecx+4]
  0001e	0f 57 c8	 xorps	 xmm1, xmm0
  00021	f3 0f 11 48 04	 movss	 DWORD PTR [eax+4], xmm1
  00026	f3 0f 10 49 08	 movss	 xmm1, DWORD PTR [ecx+8]
  0002b	0f 57 c8	 xorps	 xmm1, xmm0
  0002e	f3 0f 11 48 08	 movss	 DWORD PTR [eax+8], xmm1

; 374  : }

  00033	5d		 pop	 ebp
  00034	c2 04 00	 ret	 4
??GD3DXVECTOR3@@QBE?AU0@XZ ENDP				; D3DXVECTOR3::operator-
_TEXT	ENDS
PUBLIC	??HD3DXVECTOR3@@QBE?AU0@ABU0@@Z			; D3DXVECTOR3::operator+
; Function compile flags: /Ogsp
;	COMDAT ??HD3DXVECTOR3@@QBE?AU0@ABU0@@Z
_TEXT	SEGMENT
___$ReturnUdt$ = 8					; size = 4
_v$ = 12						; size = 4
??HD3DXVECTOR3@@QBE?AU0@ABU0@@Z PROC			; D3DXVECTOR3::operator+, COMDAT
; _this$ = ecx

; 380  : {

  00000	55		 push	 ebp
  00001	8b ec		 mov	 ebp, esp

; 381  :     return D3DXVECTOR3(x + v.x, y + v.y, z + v.z);

  00003	8b 55 0c	 mov	 edx, DWORD PTR _v$[ebp]
  00006	f3 0f 10 02	 movss	 xmm0, DWORD PTR [edx]
  0000a	f3 0f 10 09	 movss	 xmm1, DWORD PTR [ecx]
  0000e	8b 45 08	 mov	 eax, DWORD PTR ___$ReturnUdt$[ebp]
  00011	0f 5a c0	 cvtps2pd xmm0, xmm0
  00014	0f 5a c9	 cvtps2pd xmm1, xmm1
  00017	f2 0f 58 c1	 addsd	 xmm0, xmm1
  0001b	f3 0f 10 49 04	 movss	 xmm1, DWORD PTR [ecx+4]
  00020	66 0f 5a c0	 cvtpd2ps xmm0, xmm0
  00024	f3 0f 11 00	 movss	 DWORD PTR [eax], xmm0
  00028	f3 0f 10 42 04	 movss	 xmm0, DWORD PTR [edx+4]
  0002d	0f 5a c0	 cvtps2pd xmm0, xmm0
  00030	0f 5a c9	 cvtps2pd xmm1, xmm1
  00033	f2 0f 58 c1	 addsd	 xmm0, xmm1
  00037	f3 0f 10 49 08	 movss	 xmm1, DWORD PTR [ecx+8]
  0003c	66 0f 5a c0	 cvtpd2ps xmm0, xmm0
  00040	f3 0f 11 40 04	 movss	 DWORD PTR [eax+4], xmm0
  00045	f3 0f 10 42 08	 movss	 xmm0, DWORD PTR [edx+8]
  0004a	0f 5a c0	 cvtps2pd xmm0, xmm0
  0004d	0f 5a c9	 cvtps2pd xmm1, xmm1
  00050	f2 0f 58 c1	 addsd	 xmm0, xmm1
  00054	66 0f 5a c0	 cvtpd2ps xmm0, xmm0
  00058	f3 0f 11 40 08	 movss	 DWORD PTR [eax+8], xmm0

; 382  : }

  0005d	5d		 pop	 ebp
  0005e	c2 08 00	 ret	 8
??HD3DXVECTOR3@@QBE?AU0@ABU0@@Z ENDP			; D3DXVECTOR3::operator+
_TEXT	ENDS
PUBLIC	??GD3DXVECTOR3@@QBE?AU0@ABU0@@Z			; D3DXVECTOR3::operator-
; Function compile flags: /Ogsp
;	COMDAT ??GD3DXVECTOR3@@QBE?AU0@ABU0@@Z
_TEXT	SEGMENT
___$ReturnUdt$ = 8					; size = 4
_v$ = 12						; size = 4
??GD3DXVECTOR3@@QBE?AU0@ABU0@@Z PROC			; D3DXVECTOR3::operator-, COMDAT
; _this$ = ecx

; 386  : {

  00000	55		 push	 ebp
  00001	8b ec		 mov	 ebp, esp

; 387  :     return D3DXVECTOR3(x - v.x, y - v.y, z - v.z);

  00003	8b 55 0c	 mov	 edx, DWORD PTR _v$[ebp]
  00006	f3 0f 10 01	 movss	 xmm0, DWORD PTR [ecx]
  0000a	f3 0f 10 0a	 movss	 xmm1, DWORD PTR [edx]
  0000e	8b 45 08	 mov	 eax, DWORD PTR ___$ReturnUdt$[ebp]
  00011	0f 5a c0	 cvtps2pd xmm0, xmm0
  00014	0f 5a c9	 cvtps2pd xmm1, xmm1
  00017	f2 0f 5c c1	 subsd	 xmm0, xmm1
  0001b	f3 0f 10 4a 04	 movss	 xmm1, DWORD PTR [edx+4]
  00020	66 0f 5a c0	 cvtpd2ps xmm0, xmm0
  00024	f3 0f 11 00	 movss	 DWORD PTR [eax], xmm0
  00028	f3 0f 10 41 04	 movss	 xmm0, DWORD PTR [ecx+4]
  0002d	0f 5a c0	 cvtps2pd xmm0, xmm0
  00030	0f 5a c9	 cvtps2pd xmm1, xmm1
  00033	f2 0f 5c c1	 subsd	 xmm0, xmm1
  00037	f3 0f 10 4a 08	 movss	 xmm1, DWORD PTR [edx+8]
  0003c	66 0f 5a c0	 cvtpd2ps xmm0, xmm0
  00040	f3 0f 11 40 04	 movss	 DWORD PTR [eax+4], xmm0
  00045	f3 0f 10 41 08	 movss	 xmm0, DWORD PTR [ecx+8]
  0004a	0f 5a c0	 cvtps2pd xmm0, xmm0
  0004d	0f 5a c9	 cvtps2pd xmm1, xmm1
  00050	f2 0f 5c c1	 subsd	 xmm0, xmm1
  00054	66 0f 5a c0	 cvtpd2ps xmm0, xmm0
  00058	f3 0f 11 40 08	 movss	 DWORD PTR [eax+8], xmm0

; 388  : }

  0005d	5d		 pop	 ebp
  0005e	c2 08 00	 ret	 8
??GD3DXVECTOR3@@QBE?AU0@ABU0@@Z ENDP			; D3DXVECTOR3::operator-
_TEXT	ENDS
PUBLIC	??DD3DXVECTOR3@@QBE?AU0@M@Z			; D3DXVECTOR3::operator*
; Function compile flags: /Ogsp
;	COMDAT ??DD3DXVECTOR3@@QBE?AU0@M@Z
_TEXT	SEGMENT
___$ReturnUdt$ = 8					; size = 4
_f$ = 12						; size = 4
??DD3DXVECTOR3@@QBE?AU0@M@Z PROC			; D3DXVECTOR3::operator*, COMDAT
; _this$ = ecx

; 392  : {

  00000	55		 push	 ebp
  00001	8b ec		 mov	 ebp, esp

; 393  :     return D3DXVECTOR3(x * f, y * f, z * f);

  00003	f3 0f 10 4d 0c	 movss	 xmm1, DWORD PTR _f$[ebp]
  00008	f3 0f 10 01	 movss	 xmm0, DWORD PTR [ecx]
  0000c	8b 45 08	 mov	 eax, DWORD PTR ___$ReturnUdt$[ebp]
  0000f	0f 5a c0	 cvtps2pd xmm0, xmm0
  00012	0f 5a c9	 cvtps2pd xmm1, xmm1
  00015	f2 0f 59 c1	 mulsd	 xmm0, xmm1
  00019	f3 0f 10 4d 0c	 movss	 xmm1, DWORD PTR _f$[ebp]
  0001e	66 0f 5a c0	 cvtpd2ps xmm0, xmm0
  00022	f3 0f 11 00	 movss	 DWORD PTR [eax], xmm0
  00026	f3 0f 10 41 04	 movss	 xmm0, DWORD PTR [ecx+4]
  0002b	0f 5a c0	 cvtps2pd xmm0, xmm0
  0002e	0f 5a c9	 cvtps2pd xmm1, xmm1
  00031	f2 0f 59 c1	 mulsd	 xmm0, xmm1
  00035	f3 0f 10 4d 0c	 movss	 xmm1, DWORD PTR _f$[ebp]
  0003a	66 0f 5a c0	 cvtpd2ps xmm0, xmm0
  0003e	f3 0f 11 40 04	 movss	 DWORD PTR [eax+4], xmm0
  00043	f3 0f 10 41 08	 movss	 xmm0, DWORD PTR [ecx+8]
  00048	0f 5a c0	 cvtps2pd xmm0, xmm0
  0004b	0f 5a c9	 cvtps2pd xmm1, xmm1
  0004e	f2 0f 59 c1	 mulsd	 xmm0, xmm1
  00052	66 0f 5a c0	 cvtpd2ps xmm0, xmm0
  00056	f3 0f 11 40 08	 movss	 DWORD PTR [eax+8], xmm0

; 394  : }

  0005b	5d		 pop	 ebp
  0005c	c2 08 00	 ret	 8
??DD3DXVECTOR3@@QBE?AU0@M@Z ENDP			; D3DXVECTOR3::operator*
_TEXT	ENDS
PUBLIC	?D3DXVec3Length@@YAMPBUD3DXVECTOR3@@@Z		; D3DXVec3Length
; Function compile flags: /Ogsp
;	COMDAT ?D3DXVec3Length@@YAMPBUD3DXVECTOR3@@@Z
_TEXT	SEGMENT
tv169 = 8						; size = 4
tv160 = 8						; size = 4
_pV$ = 8						; size = 4
?D3DXVec3Length@@YAMPBUD3DXVECTOR3@@@Z PROC		; D3DXVec3Length, COMDAT

; 1710 : {

  00000	55		 push	 ebp
  00001	8b ec		 mov	 ebp, esp

; 1711 : #ifdef D3DX_DEBUG
; 1712 :     if(!pV)
; 1713 :         return 0.0f;
; 1714 : #endif
; 1715 : 
; 1716 : #ifdef __cplusplus
; 1717 :     return sqrtf(pV->x * pV->x + pV->y * pV->y + pV->z * pV->z);

  00003	8b 45 08	 mov	 eax, DWORD PTR _pV$[ebp]
  00006	d9 40 04	 fld	 DWORD PTR [eax+4]
  00009	d9 00		 fld	 DWORD PTR [eax]
  0000b	d9 40 08	 fld	 DWORD PTR [eax+8]
  0000e	d9 c1		 fld	 ST(1)
  00010	de ca		 fmulp	 ST(2), ST(0)
  00012	d9 c2		 fld	 ST(2)
  00014	de cb		 fmulp	 ST(3), ST(0)
  00016	d9 c9		 fxch	 ST(1)
  00018	de c2		 faddp	 ST(2), ST(0)
  0001a	d9 c0		 fld	 ST(0)
  0001c	de c9		 fmulp	 ST(1), ST(0)
  0001e	de c1		 faddp	 ST(1), ST(0)
  00020	d9 5d 08	 fstp	 DWORD PTR tv169[ebp]
  00023	d9 45 08	 fld	 DWORD PTR tv169[ebp]
  00026	e8 00 00 00 00	 call	 __CIsqrt
  0002b	d9 5d 08	 fstp	 DWORD PTR tv160[ebp]
  0002e	d9 45 08	 fld	 DWORD PTR tv160[ebp]

; 1718 : #else
; 1719 :     return (FLOAT) sqrt(pV->x * pV->x + pV->y * pV->y + pV->z * pV->z);
; 1720 : #endif
; 1721 : }

  00031	5d		 pop	 ebp
  00032	c3		 ret	 0
?D3DXVec3Length@@YAMPBUD3DXVECTOR3@@@Z ENDP		; D3DXVec3Length
_TEXT	ENDS
PUBLIC	?_DECSTR@@YAXPADH@Z				; _DECSTR
; Function compile flags: /Ogsp
; File d:\lost saga for developer\youtube\tutorial\source\src\lsclient\stringprotect.h
;	COMDAT ?_DECSTR@@YAXPADH@Z
_TEXT	SEGMENT
_s$ = 8							; size = 4
_l$ = 12						; size = 4
?_DECSTR@@YAXPADH@Z PROC				; _DECSTR, COMDAT

; 40   : __forceinline void _DECSTR(char* s, int l){int i=0,l4=(l-1)/4,*p=(int*)s;s[l-1]=0;for(;i<l4;++i)*(p++)^=0xEAEBECED;for(i=l4*4;i<l-1;++i)s[i]^=0xED-i%4;}

  00000	55		 push	 ebp
  00001	8b ec		 mov	 ebp, esp
  00003	8b 4d 0c	 mov	 ecx, DWORD PTR _l$[ebp]
  00006	56		 push	 esi
  00007	8b 75 08	 mov	 esi, DWORD PTR _s$[ebp]
  0000a	57		 push	 edi
  0000b	8d 79 ff	 lea	 edi, DWORD PTR [ecx-1]
  0000e	8b c7		 mov	 eax, edi
  00010	99		 cdq
  00011	83 e2 03	 and	 edx, 3
  00014	03 c2		 add	 eax, edx
  00016	c1 f8 02	 sar	 eax, 2
  00019	8b d6		 mov	 edx, esi
  0001b	c6 44 0e ff 00	 mov	 BYTE PTR [esi+ecx-1], 0
  00020	85 c0		 test	 eax, eax
  00022	7e 0e		 jle	 SHORT $LN4@DECSTR
  00024	8b c8		 mov	 ecx, eax
$LL6@DECSTR:
  00026	81 32 ed ec eb
	ea		 xor	 DWORD PTR [edx], -353637139 ; eaebecedH
  0002c	83 c2 04	 add	 edx, 4
  0002f	49		 dec	 ecx
  00030	75 f4		 jne	 SHORT $LL6@DECSTR
$LN4@DECSTR:
  00032	c1 e0 02	 shl	 eax, 2
  00035	eb 17		 jmp	 SHORT $LN14@DECSTR
$LL3@DECSTR:
  00037	8b c8		 mov	 ecx, eax
  00039	81 e1 03 00 00
	80		 and	 ecx, -2147483645	; 80000003H
  0003f	79 05		 jns	 SHORT $LN13@DECSTR
  00041	49		 dec	 ecx
  00042	83 c9 fc	 or	 ecx, -4			; fffffffcH
  00045	41		 inc	 ecx
$LN13@DECSTR:
  00046	b2 ed		 mov	 dl, -19			; ffffffedH
  00048	2a d1		 sub	 dl, cl
  0004a	30 14 30	 xor	 BYTE PTR [eax+esi], dl
  0004d	40		 inc	 eax
$LN14@DECSTR:
  0004e	3b c7		 cmp	 eax, edi
  00050	7c e5		 jl	 SHORT $LL3@DECSTR
  00052	5f		 pop	 edi
  00053	5e		 pop	 esi
  00054	5d		 pop	 ebp
  00055	c3		 ret	 0
?_DECSTR@@YAXPADH@Z ENDP				; _DECSTR
_TEXT	ENDS
PUBLIC	?GetGroup@ioGameEntity@@QBEPAVioEntityGroup@@XZ	; ioGameEntity::GetGroup
; Function compile flags: /Ogsp
; File d:\lost saga for developer\youtube\tutorial\source\src\lsclient\iogameentity.h
;	COMDAT ?GetGroup@ioGameEntity@@QBEPAVioEntityGroup@@XZ
_TEXT	SEGMENT
?GetGroup@ioGameEntity@@QBEPAVioEntityGroup@@XZ PROC	; ioGameEntity::GetGroup, COMDAT
; _this$ = ecx

; 166  : 	inline ioEntityGroup* GetGroup() const { return m_pGroup; }

  00000	8b 41 04	 mov	 eax, DWORD PTR [ecx+4]
  00003	c3		 ret	 0
?GetGroup@ioGameEntity@@QBEPAVioEntityGroup@@XZ ENDP	; ioGameEntity::GetGroup
_TEXT	ENDS
PUBLIC	?Init@WeaponInfo@@QAEXXZ			; WeaponInfo::Init
; Function compile flags: /Ogsp
; File d:\lost saga for developer\youtube\tutorial\source\src\lsclient\ioattackattribute.h
;	COMDAT ?Init@WeaponInfo@@QAEXXZ
_TEXT	SEGMENT
?Init@WeaponInfo@@QAEXXZ PROC				; WeaponInfo::Init, COMDAT
; _this$ = ecx

; 71   : 		m_iWeaponIdx = 0;

  00000	33 c0		 xor	 eax, eax
  00002	89 01		 mov	 DWORD PTR [ecx], eax

; 72   : 		m_iResistanceIdx = 0;

  00004	89 41 04	 mov	 DWORD PTR [ecx+4], eax

; 73   : 
; 74   : 		m_dwWoundedDuration = 0;

  00007	89 41 18	 mov	 DWORD PTR [ecx+24], eax

; 75   : 		m_dwCallTime = 0;

  0000a	89 41 1c	 mov	 DWORD PTR [ecx+28], eax

; 76   : 
; 77   : 		m_bWoundedLoopAni = false;

  0000d	88 41 20	 mov	 BYTE PTR [ecx+32], al

; 78   : 
; 79   : 		m_dwDuration = 0;

  00010	89 41 24	 mov	 DWORD PTR [ecx+36], eax

; 80   : 	}

  00013	c3		 ret	 0
?Init@WeaponInfo@@QAEXXZ ENDP				; WeaponInfo::Init
_TEXT	ENDS
PUBLIC	??1WeaponInfo@@QAE@XZ				; WeaponInfo::~WeaponInfo
; Function compile flags: /Ogsp
;	COMDAT ??1WeaponInfo@@QAE@XZ
_TEXT	SEGMENT
??1WeaponInfo@@QAE@XZ PROC				; WeaponInfo::~WeaponInfo, COMDAT
; _this$ = ecx
  00000	83 c1 08	 add	 ecx, 8
  00003	ff 25 00 00 00
	00		 jmp	 DWORD PTR __imp_??1ioHashString@@QAE@XZ
??1WeaponInfo@@QAE@XZ ENDP				; WeaponInfo::~WeaponInfo
_TEXT	ENDS
PUBLIC	?IsLive@ioWeapon@@QBE_NXZ			; ioWeapon::IsLive
; Function compile flags: /Ogsp
; File d:\lost saga for developer\youtube\tutorial\source\src\lsclient\ioweapon.h
;	COMDAT ?IsLive@ioWeapon@@QBE_NXZ
_TEXT	SEGMENT
?IsLive@ioWeapon@@QBE_NXZ PROC				; ioWeapon::IsLive, COMDAT
; _this$ = ecx

; 533  : 	inline bool IsLive() const { return m_bLive; }

  00000	8a 81 82 05 00
	00		 mov	 al, BYTE PTR [ecx+1410]
  00006	c3		 ret	 0
?IsLive@ioWeapon@@QBE_NXZ ENDP				; ioWeapon::IsLive
_TEXT	ENDS
PUBLIC	?GetOwnerName@ioWeapon@@QBEABVioHashString@@XZ	; ioWeapon::GetOwnerName
; Function compile flags: /Ogsp
;	COMDAT ?GetOwnerName@ioWeapon@@QBEABVioHashString@@XZ
_TEXT	SEGMENT
?GetOwnerName@ioWeapon@@QBEABVioHashString@@XZ PROC	; ioWeapon::GetOwnerName, COMDAT
; _this$ = ecx

; 636  : 	inline const ioHashString& GetOwnerName() const { return m_OwnerName; }

  00000	8d 41 10	 lea	 eax, DWORD PTR [ecx+16]
  00003	c3		 ret	 0
?GetOwnerName@ioWeapon@@QBEABVioHashString@@XZ ENDP	; ioWeapon::GetOwnerName
_TEXT	ENDS
PUBLIC	?GetParentSceneNode@ioWeapon@@QBEPAVioSceneNode@@XZ ; ioWeapon::GetParentSceneNode
; Function compile flags: /Ogsp
;	COMDAT ?GetParentSceneNode@ioWeapon@@QBEPAVioSceneNode@@XZ
_TEXT	SEGMENT
?GetParentSceneNode@ioWeapon@@QBEPAVioSceneNode@@XZ PROC ; ioWeapon::GetParentSceneNode, COMDAT
; _this$ = ecx

; 797  : 	ioSceneNode* GetParentSceneNode() const { return m_pSceneNode; }

  00000	8b 41 04	 mov	 eax, DWORD PTR [ecx+4]
  00003	c3		 ret	 0
?GetParentSceneNode@ioWeapon@@QBEPAVioSceneNode@@XZ ENDP ; ioWeapon::GetParentSceneNode
_TEXT	ENDS
PUBLIC	??_7?$CEncrypt@M@@6B@				; CEncrypt<float>::`vftable'
PUBLIC	??1?$CEncrypt@M@@UAE@XZ				; CEncrypt<float>::~CEncrypt<float>
PUBLIC	??_R4?$CEncrypt@M@@6B@				; CEncrypt<float>::`RTTI Complete Object Locator'
PUBLIC	??_R0?AV?$CEncrypt@M@@@8			; CEncrypt<float> `RTTI Type Descriptor'
PUBLIC	??_R3?$CEncrypt@M@@8				; CEncrypt<float>::`RTTI Class Hierarchy Descriptor'
PUBLIC	??_R2?$CEncrypt@M@@8				; CEncrypt<float>::`RTTI Base Class Array'
PUBLIC	??_R1A@?0A@EA@?$CEncrypt@M@@8			; CEncrypt<float>::`RTTI Base Class Descriptor at (0,-1,0,64)'
EXTRN	??1ccddaabb@@UAE@XZ:PROC			; ccddaabb::~ccddaabb
EXTRN	??_7type_info@@6B@:QWORD			; type_info::`vftable'
EXTRN	??_E?$CEncrypt@M@@UAEPAXI@Z:PROC		; CEncrypt<float>::`vector deleting destructor'
;	COMDAT ??_R1A@?0A@EA@?$CEncrypt@M@@8
; File d:\lost saga for developer\youtube\tutorial\source\src\lsclient\encryptvalue.h
rdata$r	SEGMENT
??_R1A@?0A@EA@?$CEncrypt@M@@8 DD FLAT:??_R0?AV?$CEncrypt@M@@@8 ; CEncrypt<float>::`RTTI Base Class Descriptor at (0,-1,0,64)'
	DD	00H
	DD	00H
	DD	0ffffffffH
	DD	00H
	DD	040H
	DD	FLAT:??_R3?$CEncrypt@M@@8
rdata$r	ENDS
;	COMDAT ??_R2?$CEncrypt@M@@8
rdata$r	SEGMENT
??_R2?$CEncrypt@M@@8 DD FLAT:??_R1A@?0A@EA@?$CEncrypt@M@@8 ; CEncrypt<float>::`RTTI Base Class Array'
rdata$r	ENDS
;	COMDAT ??_R3?$CEncrypt@M@@8
rdata$r	SEGMENT
??_R3?$CEncrypt@M@@8 DD 00H				; CEncrypt<float>::`RTTI Class Hierarchy Descriptor'
	DD	00H
	DD	01H
	DD	FLAT:??_R2?$CEncrypt@M@@8
rdata$r	ENDS
;	COMDAT ??_R0?AV?$CEncrypt@M@@@8
_DATA	SEGMENT
??_R0?AV?$CEncrypt@M@@@8 DD FLAT:??_7type_info@@6B@	; CEncrypt<float> `RTTI Type Descriptor'
	DD	00H
	DB	'.?AV?$CEncrypt@M@@', 00H
_DATA	ENDS
;	COMDAT ??_R4?$CEncrypt@M@@6B@
rdata$r	SEGMENT
??_R4?$CEncrypt@M@@6B@ DD 00H				; CEncrypt<float>::`RTTI Complete Object Locator'
	DD	00H
	DD	00H
	DD	FLAT:??_R0?AV?$CEncrypt@M@@@8
	DD	FLAT:??_R3?$CEncrypt@M@@8
rdata$r	ENDS
;	COMDAT ??_7?$CEncrypt@M@@6B@
CONST	SEGMENT
??_7?$CEncrypt@M@@6B@ DD FLAT:??_R4?$CEncrypt@M@@6B@	; CEncrypt<float>::`vftable'
	DD	FLAT:??_E?$CEncrypt@M@@UAEPAXI@Z
; Function compile flags: /Ogsp
CONST	ENDS
;	COMDAT ??1?$CEncrypt@M@@UAE@XZ
_TEXT	SEGMENT
??1?$CEncrypt@M@@UAE@XZ PROC				; CEncrypt<float>::~CEncrypt<float>, COMDAT
; _this$ = ecx

; 127  : 	{

  00000	c7 01 00 00 00
	00		 mov	 DWORD PTR [ecx], OFFSET ??_7?$CEncrypt@M@@6B@

; 128  : 	}

  00006	83 c1 0c	 add	 ecx, 12			; 0000000cH
  00009	e9 00 00 00 00	 jmp	 ??1ccddaabb@@UAE@XZ	; ccddaabb::~ccddaabb
??1?$CEncrypt@M@@UAE@XZ ENDP				; CEncrypt<float>::~CEncrypt<float>
_TEXT	ENDS
EXTRN	??3@YAXPAX@Z:PROC				; operator delete
; Function compile flags: /Ogsp
;	COMDAT ??_G?$CEncrypt@M@@UAEPAXI@Z
_TEXT	SEGMENT
___flags$ = 8						; size = 4
??_G?$CEncrypt@M@@UAEPAXI@Z PROC			; CEncrypt<float>::`scalar deleting destructor', COMDAT
; _this$ = ecx
  00000	55		 push	 ebp
  00001	8b ec		 mov	 ebp, esp
  00003	56		 push	 esi
  00004	8b f1		 mov	 esi, ecx
  00006	8d 4e 0c	 lea	 ecx, DWORD PTR [esi+12]
  00009	c7 06 00 00 00
	00		 mov	 DWORD PTR [esi], OFFSET ??_7?$CEncrypt@M@@6B@
  0000f	e8 00 00 00 00	 call	 ??1ccddaabb@@UAE@XZ	; ccddaabb::~ccddaabb
  00014	f6 45 08 01	 test	 BYTE PTR ___flags$[ebp], 1
  00018	74 07		 je	 SHORT $LN1@scalar
  0001a	56		 push	 esi
  0001b	e8 00 00 00 00	 call	 ??3@YAXPAX@Z		; operator delete
  00020	59		 pop	 ecx
$LN1@scalar:
  00021	8b c6		 mov	 eax, esi
  00023	5e		 pop	 esi
  00024	5d		 pop	 ebp
  00025	c2 04 00	 ret	 4
??_G?$CEncrypt@M@@UAEPAXI@Z ENDP			; CEncrypt<float>::`scalar deleting destructor'
_TEXT	ENDS
PUBLIC	?EncryptValueToPool@?$CEncrypt@M@@AAEXPBD@Z	; CEncrypt<float>::EncryptValueToPool
EXTRN	?EncryptByte@ccddaabb@@QAEXPBDPADH@Z:PROC	; ccddaabb::EncryptByte
; Function compile flags: /Ogsp
;	COMDAT ?EncryptValueToPool@?$CEncrypt@M@@AAEXPBD@Z
_TEXT	SEGMENT
_value$ = 8						; size = 4
?EncryptValueToPool@?$CEncrypt@M@@AAEXPBD@Z PROC	; CEncrypt<float>::EncryptValueToPool, COMDAT
; _this$ = ecx

; 67   : 	{

  00000	55		 push	 ebp
  00001	8b ec		 mov	 ebp, esp

; 68   : 		m_RC5.EncryptByte( value, m_MemPool, max(m_ValueSize, DEFAULT_ENCRYPT) );

  00003	0f b7 41 06	 movzx	 eax, WORD PTR [ecx+6]
  00007	83 f8 04	 cmp	 eax, 4
  0000a	77 03		 ja	 SHORT $LN4@EncryptVal
  0000c	6a 04		 push	 4
  0000e	58		 pop	 eax
$LN4@EncryptVal:
  0000f	50		 push	 eax
  00010	8d 41 1c	 lea	 eax, DWORD PTR [ecx+28]
  00013	50		 push	 eax
  00014	ff 75 08	 push	 DWORD PTR _value$[ebp]
  00017	83 c1 0c	 add	 ecx, 12			; 0000000cH
  0001a	e8 00 00 00 00	 call	 ?EncryptByte@ccddaabb@@QAEXPBDPADH@Z ; ccddaabb::EncryptByte

; 69   : 		
; 70   : 	}

  0001f	5d		 pop	 ebp
  00020	c2 04 00	 ret	 4
?EncryptValueToPool@?$CEncrypt@M@@AAEXPBD@Z ENDP	; CEncrypt<float>::EncryptValueToPool
_TEXT	ENDS
PUBLIC	?Init@?$CEncrypt@M@@AAEXXZ			; CEncrypt<float>::Init
EXTRN	?Setup@ccddaabb@@QAEXPBDHH@Z:PROC		; ccddaabb::Setup
EXTRN	__imp__rand:PROC
EXTRN	__imp__timeGetTime@0:PROC
EXTRN	__imp__GetCurrentProcessId@0:PROC
; Function compile flags: /Ogsp
;	COMDAT ?Init@?$CEncrypt@M@@AAEXXZ
_TEXT	SEGMENT
_pid$ = -8						; size = 4
_tick$ = -4						; size = 4
?Init@?$CEncrypt@M@@AAEXXZ PROC				; CEncrypt<float>::Init, COMDAT
; _this$ = ecx

; 73   : 	{

  00000	55		 push	 ebp
  00001	8b ec		 mov	 ebp, esp
  00003	51		 push	 ecx
  00004	51		 push	 ecx
  00005	53		 push	 ebx
  00006	56		 push	 esi
  00007	57		 push	 edi
  00008	8b f1		 mov	 esi, ecx

; 74   : 		DWORD pid = GetCurrentProcessId();

  0000a	ff 15 00 00 00
	00		 call	 DWORD PTR __imp__GetCurrentProcessId@0
  00010	89 45 f8	 mov	 DWORD PTR _pid$[ebp], eax

; 75   : 		DWORD tick = timeGetTime();

  00013	ff 15 00 00 00
	00		 call	 DWORD PTR __imp__timeGetTime@0

; 76   : 		m_ValueSize    = sizeof(type);
; 77   : 		m_MemPoolPos   = (unsigned short)( rand()+pid+tick )%(MAX_MEM_POOL-m_ValueSize);

  00019	8b 3d 00 00 00
	00		 mov	 edi, DWORD PTR __imp__rand
  0001f	89 45 fc	 mov	 DWORD PTR _tick$[ebp], eax
  00022	6a 04		 push	 4
  00024	58		 pop	 eax
  00025	66 89 46 06	 mov	 WORD PTR [esi+6], ax
  00029	ff d7		 call	 edi
  0002b	03 45 f8	 add	 eax, DWORD PTR _pid$[ebp]
  0002e	0f b7 4e 06	 movzx	 ecx, WORD PTR [esi+6]
  00032	03 45 fc	 add	 eax, DWORD PTR _tick$[ebp]
  00035	6a 0c		 push	 12			; 0000000cH
  00037	0f b7 c0	 movzx	 eax, ax
  0003a	5b		 pop	 ebx
  0003b	99		 cdq
  0003c	2b d9		 sub	 ebx, ecx
  0003e	f7 fb		 idiv	 ebx
  00040	66 89 56 04	 mov	 WORD PTR [esi+4], dx

; 78   : 		m_EncryptSeed  = (char)( rand()+pid+tick )%256;

  00044	ff d7		 call	 edi
  00046	02 45 f8	 add	 al, BYTE PTR _pid$[ebp]
  00049	02 45 fc	 add	 al, BYTE PTR _tick$[ebp]
  0004c	0f be c0	 movsx	 eax, al
  0004f	25 ff 00 00 80	 and	 eax, -2147483393	; 800000ffH
  00054	79 07		 jns	 SHORT $LN8@Init
  00056	48		 dec	 eax
  00057	0d 00 ff ff ff	 or	 eax, -256		; ffffff00H
  0005c	40		 inc	 eax
$LN8@Init:
  0005d	88 46 08	 mov	 BYTE PTR [esi+8], al

; 79   : 
; 80   : 		for (int i = 0; i < MAX_MEM_POOL ; i++)

  00060	33 db		 xor	 ebx, ebx
$LL3@Init:

; 81   : 			m_MemPool[i] = (char)( rand()+pid+tick )%256; // 더미

  00062	ff d7		 call	 edi
  00064	02 45 f8	 add	 al, BYTE PTR _pid$[ebp]
  00067	02 45 fc	 add	 al, BYTE PTR _tick$[ebp]
  0006a	0f be c0	 movsx	 eax, al
  0006d	25 ff 00 00 80	 and	 eax, -2147483393	; 800000ffH
  00072	79 07		 jns	 SHORT $LN9@Init
  00074	48		 dec	 eax
  00075	0d 00 ff ff ff	 or	 eax, -256		; ffffff00H
  0007a	40		 inc	 eax
$LN9@Init:
  0007b	88 44 1e 1c	 mov	 BYTE PTR [esi+ebx+28], al
  0007f	43		 inc	 ebx
  00080	83 fb 0c	 cmp	 ebx, 12			; 0000000cH
  00083	7c dd		 jl	 SHORT $LL3@Init

; 82   : 
; 83   : 		//UJ 130913, 최적화: szKey 사용안하도록 간략화
; 84   : 		//char szKey[ccddaabb::KEY_SIZE];//="";
; 85   : 		//for (int i = 0; i < ccddaabb::KEY_SIZE  ; i++)
; 86   : 		//	szKey[i] = (char)( rand()+pid+tick )%256; // 더미
; 87   : 		m_RC5.Setup( NULL, pid, tick );

  00085	ff 75 fc	 push	 DWORD PTR _tick$[ebp]
  00088	8d 4e 0c	 lea	 ecx, DWORD PTR [esi+12]
  0008b	ff 75 f8	 push	 DWORD PTR _pid$[ebp]
  0008e	6a 00		 push	 0
  00090	e8 00 00 00 00	 call	 ?Setup@ccddaabb@@QAEXPBDHH@Z ; ccddaabb::Setup
  00095	5f		 pop	 edi
  00096	5e		 pop	 esi
  00097	5b		 pop	 ebx

; 88   : 
; 89   : #ifdef _NOTUSE
; 90   : 		m_value        = 0;
; 91   : 		EncryptValueToPool((char*)&m_value);
; 92   : 		Debug();
; 93   : #endif
; 94   : 	}

  00098	c9		 leave
  00099	c3		 ret	 0
?Init@?$CEncrypt@M@@AAEXXZ ENDP				; CEncrypt<float>::Init
_TEXT	ENDS
PUBLIC	?DecryptValueToPool@?$CEncrypt@M@@QAEXPAM@Z	; CEncrypt<float>::DecryptValueToPool
EXTRN	?DecryptByte@ccddaabb@@QBEXPBDPADH@Z:PROC	; ccddaabb::DecryptByte
; Function compile flags: /Ogsp
;	COMDAT ?DecryptValueToPool@?$CEncrypt@M@@QAEXPAM@Z
_TEXT	SEGMENT
_value$ = 8						; size = 4
?DecryptValueToPool@?$CEncrypt@M@@QAEXPAM@Z PROC	; CEncrypt<float>::DecryptValueToPool, COMDAT
; _this$ = ecx

; 1648 : 	{

  00000	55		 push	 ebp
  00001	8b ec		 mov	 ebp, esp
  00003	56		 push	 esi

; 1649 : 		m_RC5.DecryptByte( m_MemPool, m_TempMem, 4 );

  00004	8d 71 28	 lea	 esi, DWORD PTR [ecx+40]
  00007	6a 04		 push	 4
  00009	8d 41 1c	 lea	 eax, DWORD PTR [ecx+28]
  0000c	56		 push	 esi
  0000d	50		 push	 eax
  0000e	83 c1 0c	 add	 ecx, 12			; 0000000cH
  00011	e8 00 00 00 00	 call	 ?DecryptByte@ccddaabb@@QBEXPBDPADH@Z ; ccddaabb::DecryptByte

; 1650 : 		*value = *((float*)m_TempMem);

  00016	d9 06		 fld	 DWORD PTR [esi]
  00018	8b 45 08	 mov	 eax, DWORD PTR _value$[ebp]
  0001b	d9 18		 fstp	 DWORD PTR [eax]
  0001d	5e		 pop	 esi

; 1651 : 	}

  0001e	5d		 pop	 ebp
  0001f	c2 04 00	 ret	 4
?DecryptValueToPool@?$CEncrypt@M@@QAEXPAM@Z ENDP	; CEncrypt<float>::DecryptValueToPool
_TEXT	ENDS
PUBLIC	?DecryptValueToPool@?$CEncrypt@K@@QAEXPAK@Z	; CEncrypt<unsigned long>::DecryptValueToPool
; Function compile flags: /Ogsp
;	COMDAT ?DecryptValueToPool@?$CEncrypt@K@@QAEXPAK@Z
_TEXT	SEGMENT
_value$ = 8						; size = 4
?DecryptValueToPool@?$CEncrypt@K@@QAEXPAK@Z PROC	; CEncrypt<unsigned long>::DecryptValueToPool, COMDAT
; _this$ = ecx

; 1256 : 	{

  00000	55		 push	 ebp
  00001	8b ec		 mov	 ebp, esp
  00003	56		 push	 esi

; 1257 : 		m_RC5.DecryptByte( m_MemPool, m_TempMem, 4 );

  00004	8d 71 28	 lea	 esi, DWORD PTR [ecx+40]
  00007	6a 04		 push	 4
  00009	8d 41 1c	 lea	 eax, DWORD PTR [ecx+28]
  0000c	56		 push	 esi
  0000d	50		 push	 eax
  0000e	83 c1 0c	 add	 ecx, 12			; 0000000cH
  00011	e8 00 00 00 00	 call	 ?DecryptByte@ccddaabb@@QBEXPBDPADH@Z ; ccddaabb::DecryptByte

; 1258 : 		*value = *((DWORD*)m_TempMem);

  00016	8b 06		 mov	 eax, DWORD PTR [esi]
  00018	8b 4d 08	 mov	 ecx, DWORD PTR _value$[ebp]
  0001b	89 01		 mov	 DWORD PTR [ecx], eax
  0001d	5e		 pop	 esi

; 1259 : 	}

  0001e	5d		 pop	 ebp
  0001f	c2 04 00	 ret	 4
?DecryptValueToPool@?$CEncrypt@K@@QAEXPAK@Z ENDP	; CEncrypt<unsigned long>::DecryptValueToPool
_TEXT	ENDS
PUBLIC	??_C@_0DL@BFGHEEPN@ioUroborusWeapon6?3?3?$HOioUroborusWe@ ; `string'
PUBLIC	??_7ioUroborusWeapon6@@6B@			; ioUroborusWeapon6::`vftable'
PUBLIC	??1ioUroborusWeapon6@@UAE@XZ			; ioUroborusWeapon6::~ioUroborusWeapon6
PUBLIC	??_R4ioUroborusWeapon6@@6B@			; ioUroborusWeapon6::`RTTI Complete Object Locator'
PUBLIC	??_R0?AVioUroborusWeapon6@@@8			; ioUroborusWeapon6 `RTTI Type Descriptor'
PUBLIC	??_R3ioUroborusWeapon6@@8			; ioUroborusWeapon6::`RTTI Class Hierarchy Descriptor'
PUBLIC	??_R2ioUroborusWeapon6@@8			; ioUroborusWeapon6::`RTTI Base Class Array'
PUBLIC	??_R1A@?0A@EA@ioUroborusWeapon6@@8		; ioUroborusWeapon6::`RTTI Base Class Descriptor at (0,-1,0,64)'
PUBLIC	??_R1A@?0A@EA@ioWeapon@@8			; ioWeapon::`RTTI Base Class Descriptor at (0,-1,0,64)'
PUBLIC	??_R0?AVioWeapon@@@8				; ioWeapon `RTTI Type Descriptor'
PUBLIC	??_R3ioWeapon@@8				; ioWeapon::`RTTI Class Hierarchy Descriptor'
PUBLIC	??_R2ioWeapon@@8				; ioWeapon::`RTTI Base Class Array'
PUBLIC	?SetOwnerChargeScaleRate@ioUroborusWeapon6@@UAEXM@Z ; ioUroborusWeapon6::SetOwnerChargeScaleRate
PUBLIC	?SetTeam@ioUroborusWeapon6@@UAEXPAVioPlayStage@@W4TeamType@@@Z ; ioUroborusWeapon6::SetTeam
PUBLIC	?SetWeaponDead@ioUroborusWeapon6@@UAEXXZ	; ioUroborusWeapon6::SetWeaponDead
PUBLIC	?LoadProperty@ioUroborusWeapon6@@UAEXAAVioINILoader@@@Z ; ioUroborusWeapon6::LoadProperty
PUBLIC	?SetMoveDir@ioUroborusWeapon6@@UAEXABUD3DXVECTOR3@@@Z ; ioUroborusWeapon6::SetMoveDir
PUBLIC	?Process@ioUroborusWeapon6@@UAEXMPAVioPlayStage@@@Z ; ioUroborusWeapon6::Process
PUBLIC	?ApplyWeaponSync@ioUroborusWeapon6@@UAEXAAVSP2Packet@@PAVioPlayStage@@@Z ; ioUroborusWeapon6::ApplyWeaponSync
PUBLIC	?UpdateWorldAttackBox@ioUroborusWeapon6@@MAEXM_N@Z ; ioUroborusWeapon6::UpdateWorldAttackBox
EXTRN	??1ioWeapon@@UAE@XZ:PROC			; ioWeapon::~ioWeapon
EXTRN	__imp_??1ioOrientBox@@QAE@XZ:PROC
EXTRN	__imp_?PrintTimeAndLog@CLog@@QAAXHPADZZ:PROC
EXTRN	__imp_?LOG@@3VCLog@@A:BYTE
EXTRN	?IsAlreadyCollisioned@ioWeapon@@UAE_NPAVioPlayEntity@@@Z:PROC ; ioWeapon::IsAlreadyCollisioned
EXTRN	?AddCollisionEntity@ioWeapon@@UAEXPAVioPlayEntity@@@Z:PROC ; ioWeapon::AddCollisionEntity
EXTRN	?SetOwnerDamageRate@ioWeapon@@UAEXM@Z:PROC	; ioWeapon::SetOwnerDamageRate
EXTRN	?SetOwnerChargeDamageRate@ioWeapon@@UAEXM@Z:PROC ; ioWeapon::SetOwnerChargeDamageRate
EXTRN	?SetOwnerChargeForceRate@ioWeapon@@UAEXM@Z:PROC	; ioWeapon::SetOwnerChargeForceRate
EXTRN	?SetOwnerChargeRangeRate@ioWeapon@@UAEXM@Z:PROC	; ioWeapon::SetOwnerChargeRangeRate
EXTRN	?SetOwnerChargeSpeedRate@ioWeapon@@UAEXM@Z:PROC	; ioWeapon::SetOwnerChargeSpeedRate
EXTRN	?SetOwnerChargeBlowRate@ioWeapon@@UAEXM@Z:PROC	; ioWeapon::SetOwnerChargeBlowRate
EXTRN	?SetOwnerChargeFloatRate@ioWeapon@@UAEXM@Z:PROC	; ioWeapon::SetOwnerChargeFloatRate
EXTRN	?SetOwnerChargeExplosionRate@ioWeapon@@UAEXM@Z:PROC ; ioWeapon::SetOwnerChargeExplosionRate
EXTRN	?SetOwnerChargeWoundedTimeRate@ioWeapon@@UAEXM@Z:PROC ; ioWeapon::SetOwnerChargeWoundedTimeRate
EXTRN	?SetOwnerChargeLiveTimeRate@ioWeapon@@UAEXM@Z:PROC ; ioWeapon::SetOwnerChargeLiveTimeRate
EXTRN	?SetOwnerChargeBuffLiveTimeRate@ioWeapon@@UAEXM@Z:PROC ; ioWeapon::SetOwnerChargeBuffLiveTimeRate
EXTRN	?SetGrapplingTargetName@ioWeapon@@UAEXABVioHashString@@@Z:PROC ; ioWeapon::SetGrapplingTargetName
EXTRN	?SetCreateItem@ioWeapon@@UAEXABVioHashString@@@Z:PROC ; ioWeapon::SetCreateItem
EXTRN	?CallReserveAreaWeapon@ioWeapon@@UAEXXZ:PROC	; ioWeapon::CallReserveAreaWeapon
EXTRN	?PlayExplosionSound@ioWeapon@@UAEXXZ:PROC	; ioWeapon::PlayExplosionSound
EXTRN	?PlayWoundedSound@ioWeapon@@UAEXPAVioPlayEntity@@@Z:PROC ; ioWeapon::PlayWoundedSound
EXTRN	?PlayDefensedSound@ioWeapon@@UAEXPAVioPlayEntity@@@Z:PROC ; ioWeapon::PlayDefensedSound
EXTRN	?PlayLoopSound@ioWeapon@@UAEXXZ:PROC		; ioWeapon::PlayLoopSound
EXTRN	?StopLoopSound@ioWeapon@@UAEXXZ:PROC		; ioWeapon::StopLoopSound
EXTRN	?GetTargetAirBuffList@ioWeapon@@UBEABV?$vector@UBuffInfoStruct@@V?$allocator@UBuffInfoStruct@@@std@@@std@@XZ:PROC ; ioWeapon::GetTargetAirBuffList
EXTRN	?GetTargetBuffList@ioWeapon@@UBEABV?$vector@UBuffInfoStruct@@V?$allocator@UBuffInfoStruct@@@std@@@std@@XZ:PROC ; ioWeapon::GetTargetBuffList
EXTRN	?GetTargetDownBuffList@ioWeapon@@UBEABV?$vector@UBuffInfoStruct@@V?$allocator@UBuffInfoStruct@@@std@@@std@@XZ:PROC ; ioWeapon::GetTargetDownBuffList
EXTRN	?GetPosition@ioWeapon@@UBEABUD3DXVECTOR3@@XZ:PROC ; ioWeapon::GetPosition
EXTRN	?GetBlowType@ioWeapon@@UBE?AW4BlowTargetType@@XZ:PROC ; ioWeapon::GetBlowType
EXTRN	?GetPushPower@ioWeapon@@UBEMM@Z:PROC		; ioWeapon::GetPushPower
EXTRN	?GetBlowPower@ioWeapon@@UBEMM@Z:PROC		; ioWeapon::GetBlowPower
EXTRN	?GetAirPushPower@ioWeapon@@UBEMM@Z:PROC		; ioWeapon::GetAirPushPower
EXTRN	?GetAirBlowPower@ioWeapon@@UBEMM@Z:PROC		; ioWeapon::GetAirBlowPower
EXTRN	?GetDefensePushPower@ioWeapon@@UBEMM@Z:PROC	; ioWeapon::GetDefensePushPower
EXTRN	?GetCollisionEnableTime@ioWeapon@@UBEKXZ:PROC	; ioWeapon::GetCollisionEnableTime
EXTRN	?SetSylphid@ioWeapon@@UAEHXZ:PROC		; ioWeapon::SetSylphid
EXTRN	?ApplyExtraReserveWeaponByWeaponInfo@ioWeapon@@UAEXPAV1@@Z:PROC ; ioWeapon::ApplyExtraReserveWeaponByWeaponInfo
EXTRN	?SetResistanceAttr@ioWeapon@@UAEXH@Z:PROC	; ioWeapon::SetResistanceAttr
EXTRN	?SetStartCollisionBox@ioWeapon@@UAEXXZ:PROC	; ioWeapon::SetStartCollisionBox
EXTRN	?SetLiveTime@ioWeapon@@UAEXK@Z:PROC		; ioWeapon::SetLiveTime
EXTRN	?SetMoveSpeed@ioWeapon@@UAEXM@Z:PROC		; ioWeapon::SetMoveSpeed
EXTRN	?SetFloatPower@ioWeapon@@UAEXM@Z:PROC		; ioWeapon::SetFloatPower
EXTRN	?IsCollision@ioWeapon@@UAE_NPAVioPlayEntity@@_N@Z:PROC ; ioWeapon::IsCollision
EXTRN	?TestMapCollision@ioWeapon@@UAE_NPAVioOpcodeShape@@PAVioPlayStage@@PBUD3DXMATRIX@@@Z:PROC ; ioWeapon::TestMapCollision
EXTRN	?CheckPreCollision@ioWeapon@@UAEXPAVioPlayEntity@@PAVioPlayStage@@@Z:PROC ; ioWeapon::CheckPreCollision
EXTRN	?CheckStructAndDummy@ioWeapon@@UAEXPAVioPlayEntity@@PAVioPlayStage@@@Z:PROC ; ioWeapon::CheckStructAndDummy
EXTRN	?GetDamage@ioWeapon@@UAEMPAVioPlayEntity@@@Z:PROC ; ioWeapon::GetDamage
EXTRN	?GetBaseDamage@ioWeapon@@UAEMPAVioPlayEntity@@@Z:PROC ; ioWeapon::GetBaseDamage
EXTRN	?GetPushAngle@ioWeapon@@UBEMXZ:PROC		; ioWeapon::GetPushAngle
EXTRN	?IsResistanceMagic@ioWeapon@@UAEHPAVioBaseChar@@@Z:PROC ; ioWeapon::IsResistanceMagic
EXTRN	?IsResistanceBomb@ioWeapon@@UAEHPAVioBaseChar@@@Z:PROC ; ioWeapon::IsResistanceBomb
EXTRN	?IsCanMineExplosion@ioWeapon@@UAE_NXZ:PROC	; ioWeapon::IsCanMineExplosion
EXTRN	?CheckGrapplingState@ioWeapon@@UAE?AW4GrapplingType@@XZ:PROC ; ioWeapon::CheckGrapplingState
EXTRN	?CheckCurAttribute@ioWeapon@@UAEXPBVioPlayEntity@@@Z:PROC ; ioWeapon::CheckCurAttribute
EXTRN	?CheckItemNotDrop@ioWeapon@@UAE_NPAVioBaseChar@@@Z:PROC ; ioWeapon::CheckItemNotDrop
EXTRN	?GetWorldAttackBoxList@ioWeapon@@UAEXAAV?$vector@VioOrientBox@@V?$allocator@VioOrientBox@@@std@@@std@@@Z:PROC ; ioWeapon::GetWorldAttackBoxList
EXTRN	?GetLiveTime@ioWeapon@@UAEKXZ:PROC		; ioWeapon::GetLiveTime
EXTRN	?CheckWeaponCollision@ioWeapon@@UAEXXZ:PROC	; ioWeapon::CheckWeaponCollision
EXTRN	?GetRefreshDuration@ioWeapon@@UAEKXZ:PROC	; ioWeapon::GetRefreshDuration
EXTRN	?GetIgnoreDuration@ioWeapon@@UAEKXZ:PROC	; ioWeapon::GetIgnoreDuration
EXTRN	?GetIgnoreTimeTypeDuration@ioWeapon@@UAEKXZ:PROC ; ioWeapon::GetIgnoreTimeTypeDuration
EXTRN	?GetIgnoreTimeType@ioWeapon@@UAEKXZ:PROC	; ioWeapon::GetIgnoreTimeType
EXTRN	?IsSkillDependency@ioWeapon@@UAE_NABVioHashString@@@Z:PROC ; ioWeapon::IsSkillDependency
EXTRN	?SetSkillDependencyAction@ioWeapon@@UAEXXZ:PROC	; ioWeapon::SetSkillDependencyAction
EXTRN	?GetAttribute@ioWeapon@@MBEPBUWeaponAttribute@@XZ:PROC ; ioWeapon::GetAttribute
EXTRN	?CalcFinalDamage@ioWeapon@@MAEMXZ:PROC		; ioWeapon::CalcFinalDamage
EXTRN	?CalcFinalBoundDamage@ioWeapon@@MAEMXZ:PROC	; ioWeapon::CalcFinalBoundDamage
EXTRN	?CheckPiercing@ioWeapon@@MAE_N_N@Z:PROC		; ioWeapon::CheckPiercing
EXTRN	?ClearCollisionList@ioWeapon@@MAEXXZ:PROC	; ioWeapon::ClearCollisionList
EXTRN	?CheckCreateWeaponList@ioWeapon@@MAEXXZ:PROC	; ioWeapon::CheckCreateWeaponList
EXTRN	?CreateCollisionAreaWeapon@ioWeapon@@MAEXXZ:PROC ; ioWeapon::CreateCollisionAreaWeapon
EXTRN	?SetMapCollision@ioWeapon@@UAEXXZ:PROC		; ioWeapon::SetMapCollision
EXTRN	?IsIgnoreMapCollision@ioWeapon@@UBE_NXZ:PROC	; ioWeapon::IsIgnoreMapCollision
EXTRN	?IsIgnoreTestMapCollision@ioWeapon@@UBE_NXZ:PROC ; ioWeapon::IsIgnoreTestMapCollision
EXTRN	?IsIgnoreMapCollisionEffect@ioWeapon@@UBE_NXZ:PROC ; ioWeapon::IsIgnoreMapCollisionEffect
EXTRN	?AddEffectEvent@ioWeapon@@MAEXPAVioEffect@@@Z:PROC ; ioWeapon::AddEffectEvent
EXTRN	??_EioUroborusWeapon6@@UAEPAXI@Z:PROC		; ioUroborusWeapon6::`vector deleting destructor'
;	COMDAT ??_R2ioWeapon@@8
rdata$r	SEGMENT
??_R2ioWeapon@@8 DD FLAT:??_R1A@?0A@EA@ioWeapon@@8	; ioWeapon::`RTTI Base Class Array'
rdata$r	ENDS
;	COMDAT ??_R3ioWeapon@@8
rdata$r	SEGMENT
??_R3ioWeapon@@8 DD 00H					; ioWeapon::`RTTI Class Hierarchy Descriptor'
	DD	00H
	DD	01H
	DD	FLAT:??_R2ioWeapon@@8
rdata$r	ENDS
;	COMDAT ??_R0?AVioWeapon@@@8
_DATA	SEGMENT
??_R0?AVioWeapon@@@8 DD FLAT:??_7type_info@@6B@		; ioWeapon `RTTI Type Descriptor'
	DD	00H
	DB	'.?AVioWeapon@@', 00H
_DATA	ENDS
;	COMDAT ??_R1A@?0A@EA@ioWeapon@@8
rdata$r	SEGMENT
??_R1A@?0A@EA@ioWeapon@@8 DD FLAT:??_R0?AVioWeapon@@@8	; ioWeapon::`RTTI Base Class Descriptor at (0,-1,0,64)'
	DD	00H
	DD	00H
	DD	0ffffffffH
	DD	00H
	DD	040H
	DD	FLAT:??_R3ioWeapon@@8
rdata$r	ENDS
;	COMDAT ??_R1A@?0A@EA@ioUroborusWeapon6@@8
rdata$r	SEGMENT
??_R1A@?0A@EA@ioUroborusWeapon6@@8 DD FLAT:??_R0?AVioUroborusWeapon6@@@8 ; ioUroborusWeapon6::`RTTI Base Class Descriptor at (0,-1,0,64)'
	DD	01H
	DD	00H
	DD	0ffffffffH
	DD	00H
	DD	040H
	DD	FLAT:??_R3ioUroborusWeapon6@@8
rdata$r	ENDS
;	COMDAT ??_R2ioUroborusWeapon6@@8
rdata$r	SEGMENT
??_R2ioUroborusWeapon6@@8 DD FLAT:??_R1A@?0A@EA@ioUroborusWeapon6@@8 ; ioUroborusWeapon6::`RTTI Base Class Array'
	DD	FLAT:??_R1A@?0A@EA@ioWeapon@@8
rdata$r	ENDS
;	COMDAT ??_R3ioUroborusWeapon6@@8
rdata$r	SEGMENT
??_R3ioUroborusWeapon6@@8 DD 00H			; ioUroborusWeapon6::`RTTI Class Hierarchy Descriptor'
	DD	00H
	DD	02H
	DD	FLAT:??_R2ioUroborusWeapon6@@8
rdata$r	ENDS
;	COMDAT ??_R0?AVioUroborusWeapon6@@@8
_DATA	SEGMENT
??_R0?AVioUroborusWeapon6@@@8 DD FLAT:??_7type_info@@6B@ ; ioUroborusWeapon6 `RTTI Type Descriptor'
	DD	00H
	DB	'.?AVioUroborusWeapon6@@', 00H
_DATA	ENDS
;	COMDAT ??_R4ioUroborusWeapon6@@6B@
rdata$r	SEGMENT
??_R4ioUroborusWeapon6@@6B@ DD 00H			; ioUroborusWeapon6::`RTTI Complete Object Locator'
	DD	00H
	DD	00H
	DD	FLAT:??_R0?AVioUroborusWeapon6@@@8
	DD	FLAT:??_R3ioUroborusWeapon6@@8
rdata$r	ENDS
;	COMDAT ??_C@_0DL@BFGHEEPN@ioUroborusWeapon6?3?3?$HOioUroborusWe@
CONST	SEGMENT
??_C@_0DL@BFGHEEPN@ioUroborusWeapon6?3?3?$HOioUroborusWe@ DB 'ioUroborusW'
	DB	'eapon6::~ioUroborusWeapon6 - UnReleased Resouce', 00H ; `string'
CONST	ENDS
;	COMDAT ??_7ioUroborusWeapon6@@6B@
CONST	SEGMENT
??_7ioUroborusWeapon6@@6B@ DD FLAT:??_R4ioUroborusWeapon6@@6B@ ; ioUroborusWeapon6::`vftable'
	DD	FLAT:?IsAlreadyCollisioned@ioWeapon@@UAE_NPAVioPlayEntity@@@Z
	DD	FLAT:?AddCollisionEntity@ioWeapon@@UAEXPAVioPlayEntity@@@Z
	DD	FLAT:?SetOwnerDamageRate@ioWeapon@@UAEXM@Z
	DD	FLAT:?SetOwnerChargeDamageRate@ioWeapon@@UAEXM@Z
	DD	FLAT:?SetOwnerChargeForceRate@ioWeapon@@UAEXM@Z
	DD	FLAT:?SetOwnerChargeRangeRate@ioWeapon@@UAEXM@Z
	DD	FLAT:?SetOwnerChargeSpeedRate@ioWeapon@@UAEXM@Z
	DD	FLAT:?SetOwnerChargeBlowRate@ioWeapon@@UAEXM@Z
	DD	FLAT:?SetOwnerChargeFloatRate@ioWeapon@@UAEXM@Z
	DD	FLAT:?SetOwnerChargeScaleRate@ioUroborusWeapon6@@UAEXM@Z
	DD	FLAT:?SetOwnerChargeExplosionRate@ioWeapon@@UAEXM@Z
	DD	FLAT:?SetOwnerChargeWoundedTimeRate@ioWeapon@@UAEXM@Z
	DD	FLAT:?SetOwnerChargeLiveTimeRate@ioWeapon@@UAEXM@Z
	DD	FLAT:?SetOwnerChargeBuffLiveTimeRate@ioWeapon@@UAEXM@Z
	DD	FLAT:?SetWeaponIndex@ioUroborusWeapon6@@UAEXK@Z
	DD	FLAT:?SetGrapplingTargetName@ioWeapon@@UAEXABVioHashString@@@Z
	DD	FLAT:?SetCreateItem@ioWeapon@@UAEXABVioHashString@@@Z
	DD	FLAT:?SetTeam@ioUroborusWeapon6@@UAEXPAVioPlayStage@@W4TeamType@@@Z
	DD	FLAT:?CallReserveAreaWeapon@ioWeapon@@UAEXXZ
	DD	FLAT:?SetWeaponDead@ioUroborusWeapon6@@UAEXXZ
	DD	FLAT:?PlayExplosionSound@ioWeapon@@UAEXXZ
	DD	FLAT:?PlayWoundedSound@ioWeapon@@UAEXPAVioPlayEntity@@@Z
	DD	FLAT:?PlayDefensedSound@ioWeapon@@UAEXPAVioPlayEntity@@@Z
	DD	FLAT:?PlayLoopSound@ioWeapon@@UAEXXZ
	DD	FLAT:?StopLoopSound@ioWeapon@@UAEXXZ
	DD	FLAT:?GetTargetAirBuffList@ioWeapon@@UBEABV?$vector@UBuffInfoStruct@@V?$allocator@UBuffInfoStruct@@@std@@@std@@XZ
	DD	FLAT:?GetTargetBuffList@ioWeapon@@UBEABV?$vector@UBuffInfoStruct@@V?$allocator@UBuffInfoStruct@@@std@@@std@@XZ
	DD	FLAT:?GetTargetDownBuffList@ioWeapon@@UBEABV?$vector@UBuffInfoStruct@@V?$allocator@UBuffInfoStruct@@@std@@@std@@XZ
	DD	FLAT:?GetPosition@ioWeapon@@UBEABUD3DXVECTOR3@@XZ
	DD	FLAT:?GetBlowType@ioWeapon@@UBE?AW4BlowTargetType@@XZ
	DD	FLAT:?GetPushPower@ioWeapon@@UBEMM@Z
	DD	FLAT:?GetBlowPower@ioWeapon@@UBEMM@Z
	DD	FLAT:?GetAirPushPower@ioWeapon@@UBEMM@Z
	DD	FLAT:?GetAirBlowPower@ioWeapon@@UBEMM@Z
	DD	FLAT:?GetDefensePushPower@ioWeapon@@UBEMM@Z
	DD	FLAT:?GetCollisionEnableTime@ioWeapon@@UBEKXZ
	DD	FLAT:?SetSylphid@ioWeapon@@UAEHXZ
	DD	FLAT:?ApplyExtraReserveWeaponByWeaponInfo@ioWeapon@@UAEXPAV1@@Z
	DD	FLAT:?InitResource@ioUroborusWeapon6@@UAE_NXZ
	DD	FLAT:?DestroyResource@ioUroborusWeapon6@@UAEXPAVioPlayStage@@@Z
	DD	FLAT:?LoadProperty@ioUroborusWeapon6@@UAEXAAVioINILoader@@@Z
	DD	FLAT:?SetResistanceAttr@ioWeapon@@UAEXH@Z
	DD	FLAT:?SetStartCollisionBox@ioWeapon@@UAEXXZ
	DD	FLAT:?SetLiveTime@ioWeapon@@UAEXK@Z
	DD	FLAT:?SetMoveDir@ioUroborusWeapon6@@UAEXABUD3DXVECTOR3@@@Z
	DD	FLAT:?SetMoveSpeed@ioWeapon@@UAEXM@Z
	DD	FLAT:?SetFloatPower@ioWeapon@@UAEXM@Z
	DD	FLAT:?SetStartPosition@ioUroborusWeapon6@@UAEXABUD3DXVECTOR3@@PAVioPlayStage@@@Z
	DD	FLAT:?Process@ioUroborusWeapon6@@UAEXMPAVioPlayStage@@@Z
	DD	FLAT:?IsCollision@ioWeapon@@UAE_NPAVioPlayEntity@@_N@Z
	DD	FLAT:?TestMapCollision@ioWeapon@@UAE_NPAVioOpcodeShape@@PAVioPlayStage@@PBUD3DXMATRIX@@@Z
	DD	FLAT:?CheckPreCollision@ioWeapon@@UAEXPAVioPlayEntity@@PAVioPlayStage@@@Z
	DD	FLAT:?CheckStructAndDummy@ioWeapon@@UAEXPAVioPlayEntity@@PAVioPlayStage@@@Z
	DD	FLAT:?GetDamage@ioWeapon@@UAEMPAVioPlayEntity@@@Z
	DD	FLAT:?GetBaseDamage@ioWeapon@@UAEMPAVioPlayEntity@@@Z
	DD	FLAT:?GetPushAngle@ioWeapon@@UBEMXZ
	DD	FLAT:?IsResistanceMagic@ioWeapon@@UAEHPAVioBaseChar@@@Z
	DD	FLAT:?IsResistanceBomb@ioWeapon@@UAEHPAVioBaseChar@@@Z
	DD	FLAT:?IsCanMineExplosion@ioWeapon@@UAE_NXZ
	DD	FLAT:?CheckGrapplingState@ioWeapon@@UAE?AW4GrapplingType@@XZ
	DD	FLAT:?CheckCurAttribute@ioWeapon@@UAEXPBVioPlayEntity@@@Z
	DD	FLAT:?CheckItemNotDrop@ioWeapon@@UAE_NPAVioBaseChar@@@Z
	DD	FLAT:?GetWorldAttackBoxList@ioWeapon@@UAEXAAV?$vector@VioOrientBox@@V?$allocator@VioOrientBox@@@std@@@std@@@Z
	DD	FLAT:?GetAttackDir@ioUroborusWeapon6@@UBE?AUD3DXVECTOR3@@PBVioPlayEntity@@@Z
	DD	FLAT:?GetLocalAttackBox@ioUroborusWeapon6@@UBEABVioOrientBox@@XZ
	DD	FLAT:?GetLiveTime@ioWeapon@@UAEKXZ
	DD	FLAT:?GetMoveDir@ioUroborusWeapon6@@UAE?AUD3DXVECTOR3@@XZ
	DD	FLAT:?CheckWeaponCollision@ioWeapon@@UAEXXZ
	DD	FLAT:?GetType@ioUroborusWeapon6@@UBE?AW4WeaponType@ioWeapon@@XZ
	DD	FLAT:?GetActionStopType@ioUroborusWeapon6@@UBE?AW4ActionStopType@@XZ
	DD	FLAT:?GetDieActionStopType@ioUroborusWeapon6@@UBE?AW4ActionStopType@@XZ
	DD	FLAT:?GetRefreshDuration@ioWeapon@@UAEKXZ
	DD	FLAT:?GetIgnoreDuration@ioWeapon@@UAEKXZ
	DD	FLAT:?GetIgnoreTimeTypeDuration@ioWeapon@@UAEKXZ
	DD	FLAT:?GetIgnoreTimeType@ioWeapon@@UAEKXZ
	DD	FLAT:?ApplyWeaponSync@ioUroborusWeapon6@@UAEXAAVSP2Packet@@PAVioPlayStage@@@Z
	DD	FLAT:?IsSkillDependency@ioWeapon@@UAE_NABVioHashString@@@Z
	DD	FLAT:?SetSkillDependencyAction@ioWeapon@@UAEXXZ
	DD	FLAT:?UpdateWorldAttackBox@ioUroborusWeapon6@@MAEXM_N@Z
	DD	FLAT:?GetAttribute@ioWeapon@@MBEPBUWeaponAttribute@@XZ
	DD	FLAT:?CalcFinalDamage@ioWeapon@@MAEMXZ
	DD	FLAT:?CalcFinalBoundDamage@ioWeapon@@MAEMXZ
	DD	FLAT:?CheckPiercing@ioWeapon@@MAE_N_N@Z
	DD	FLAT:?ClearCollisionList@ioWeapon@@MAEXXZ
	DD	FLAT:?CheckCreateWeaponList@ioWeapon@@MAEXXZ
	DD	FLAT:?CreateCollisionAreaWeapon@ioWeapon@@MAEXXZ
	DD	FLAT:?SetMapCollision@ioWeapon@@UAEXXZ
	DD	FLAT:?IsIgnoreMapCollision@ioWeapon@@UBE_NXZ
	DD	FLAT:?IsIgnoreTestMapCollision@ioWeapon@@UBE_NXZ
	DD	FLAT:?IsIgnoreMapCollisionEffect@ioWeapon@@UBE_NXZ
	DD	FLAT:?AddEffectEvent@ioWeapon@@MAEXPAVioEffect@@@Z
	DD	FLAT:??_EioUroborusWeapon6@@UAEPAXI@Z
CONST	ENDS
;	COMDAT xdata$x
xdata$x	SEGMENT
__ehfuncinfo$??1ioUroborusWeapon6@@UAE@XZ DD 019930522H
	DD	0bH
	DD	FLAT:__unwindtable$??1ioUroborusWeapon6@@UAE@XZ
	DD	2 DUP(00H)
	DD	2 DUP(00H)
	DD	00H
	DD	01H
__unwindtable$??1ioUroborusWeapon6@@UAE@XZ DD 0ffffffffH
	DD	FLAT:__unwindfunclet$??1ioUroborusWeapon6@@UAE@XZ$0
	DD	00H
	DD	FLAT:__unwindfunclet$??1ioUroborusWeapon6@@UAE@XZ$1
	DD	01H
	DD	FLAT:__unwindfunclet$??1ioUroborusWeapon6@@UAE@XZ$2
	DD	02H
	DD	FLAT:__unwindfunclet$??1ioUroborusWeapon6@@UAE@XZ$3
	DD	03H
	DD	FLAT:__unwindfunclet$??1ioUroborusWeapon6@@UAE@XZ$4
	DD	04H
	DD	FLAT:__unwindfunclet$??1ioUroborusWeapon6@@UAE@XZ$5
	DD	05H
	DD	FLAT:__unwindfunclet$??1ioUroborusWeapon6@@UAE@XZ$6
	DD	06H
	DD	FLAT:__unwindfunclet$??1ioUroborusWeapon6@@UAE@XZ$7
	DD	07H
	DD	FLAT:__unwindfunclet$??1ioUroborusWeapon6@@UAE@XZ$8
	DD	08H
	DD	FLAT:__unwindfunclet$??1ioUroborusWeapon6@@UAE@XZ$9
	DD	09H
	DD	FLAT:__unwindfunclet$??1ioUroborusWeapon6@@UAE@XZ$10
; Function compile flags: /Ogsp
; File d:\lost saga for developer\youtube\tutorial\source\src\lsclient\iouroborusweapon6.cpp
xdata$x	ENDS
;	COMDAT ??1ioUroborusWeapon6@@UAE@XZ
_TEXT	SEGMENT
_this$ = -16						; size = 4
__$EHRec$ = -12						; size = 12
??1ioUroborusWeapon6@@UAE@XZ PROC			; ioUroborusWeapon6::~ioUroborusWeapon6, COMDAT
; _this$ = ecx

; 40   : {

  00000	6a 04		 push	 4
  00002	b8 00 00 00 00	 mov	 eax, __ehhandler$??1ioUroborusWeapon6@@UAE@XZ
  00007	e8 00 00 00 00	 call	 __EH_prolog3
  0000c	8b f1		 mov	 esi, ecx
  0000e	89 75 f0	 mov	 DWORD PTR _this$[ebp], esi
  00011	c7 06 00 00 00
	00		 mov	 DWORD PTR [esi], OFFSET ??_7ioUroborusWeapon6@@6B@

; 41   : 	if( m_pFireMesh )

  00017	83 be 98 08 00
	00 00		 cmp	 DWORD PTR [esi+2200], 0
  0001e	c7 45 fc 0a 00
	00 00		 mov	 DWORD PTR __$EHRec$[ebp+8], 10 ; 0000000aH
  00025	74 16		 je	 SHORT $LN1@ioUroborus

; 42   : 	{
; 43   : 		LOG.PrintTimeAndLog( 0, "ioUroborusWeapon6::~ioUroborusWeapon6 - UnReleased Resouce" );

  00027	68 00 00 00 00	 push	 OFFSET ??_C@_0DL@BFGHEEPN@ioUroborusWeapon6?3?3?$HOioUroborusWe@
  0002c	6a 00		 push	 0
  0002e	ff 35 00 00 00
	00		 push	 DWORD PTR __imp_?LOG@@3VCLog@@A
  00034	ff 15 00 00 00
	00		 call	 DWORD PTR __imp_?PrintTimeAndLog@CLog@@QAAXHPADZZ
  0003a	83 c4 0c	 add	 esp, 12			; 0000000cH
$LN1@ioUroborus:

; 44   : 	}
; 45   : }

  0003d	8b 3d 00 00 00
	00		 mov	 edi, DWORD PTR __imp_??1ioHashString@@QAE@XZ
  00043	8d 8e 2c 0a 00
	00		 lea	 ecx, DWORD PTR [esi+2604]
  00049	c6 45 fc 09	 mov	 BYTE PTR __$EHRec$[ebp+8], 9
  0004d	ff d7		 call	 edi
  0004f	8d 8e 14 0a 00
	00		 lea	 ecx, DWORD PTR [esi+2580]
  00055	c6 45 fc 08	 mov	 BYTE PTR __$EHRec$[ebp+8], 8
  00059	ff d7		 call	 edi
  0005b	8d 8e dc 09 00
	00		 lea	 ecx, DWORD PTR [esi+2524]
  00061	c6 45 fc 07	 mov	 BYTE PTR __$EHRec$[ebp+8], 7
  00065	ff d7		 call	 edi
  00067	8d 8e c0 09 00
	00		 lea	 ecx, DWORD PTR [esi+2496]
  0006d	c6 45 fc 06	 mov	 BYTE PTR __$EHRec$[ebp+8], 6
  00071	ff d7		 call	 edi
  00073	bb 00 00 00 00	 mov	 ebx, OFFSET ??_7?$CEncrypt@M@@6B@
  00078	8d 8e 9c 09 00
	00		 lea	 ecx, DWORD PTR [esi+2460]
  0007e	c6 45 fc 05	 mov	 BYTE PTR __$EHRec$[ebp+8], 5
  00082	89 9e 90 09 00
	00		 mov	 DWORD PTR [esi+2448], ebx
  00088	e8 00 00 00 00	 call	 ??1ccddaabb@@UAE@XZ	; ccddaabb::~ccddaabb
  0008d	8d 8e 6c 09 00
	00		 lea	 ecx, DWORD PTR [esi+2412]
  00093	c6 45 fc 04	 mov	 BYTE PTR __$EHRec$[ebp+8], 4
  00097	89 9e 60 09 00
	00		 mov	 DWORD PTR [esi+2400], ebx
  0009d	e8 00 00 00 00	 call	 ??1ccddaabb@@UAE@XZ	; ccddaabb::~ccddaabb
  000a2	8d 8e 3c 09 00
	00		 lea	 ecx, DWORD PTR [esi+2364]
  000a8	c6 45 fc 03	 mov	 BYTE PTR __$EHRec$[ebp+8], 3
  000ac	89 9e 30 09 00
	00		 mov	 DWORD PTR [esi+2352], ebx
  000b2	e8 00 00 00 00	 call	 ??1ccddaabb@@UAE@XZ	; ccddaabb::~ccddaabb
  000b7	8d 8e 08 09 00
	00		 lea	 ecx, DWORD PTR [esi+2312]
  000bd	c6 45 fc 02	 mov	 BYTE PTR __$EHRec$[ebp+8], 2
  000c1	ff d7		 call	 edi
  000c3	8d 8e f8 08 00
	00		 lea	 ecx, DWORD PTR [esi+2296]
  000c9	c6 45 fc 01	 mov	 BYTE PTR __$EHRec$[ebp+8], 1
  000cd	ff d7		 call	 edi
  000cf	8d 8e 9c 08 00
	00		 lea	 ecx, DWORD PTR [esi+2204]
  000d5	c6 45 fc 00	 mov	 BYTE PTR __$EHRec$[ebp+8], 0
  000d9	ff 15 00 00 00
	00		 call	 DWORD PTR __imp_??1ioOrientBox@@QAE@XZ
  000df	83 4d fc ff	 or	 DWORD PTR __$EHRec$[ebp+8], -1
  000e3	8b ce		 mov	 ecx, esi
  000e5	e8 00 00 00 00	 call	 ??1ioWeapon@@UAE@XZ	; ioWeapon::~ioWeapon
  000ea	e8 00 00 00 00	 call	 __EH_epilog3
  000ef	c3		 ret	 0
_TEXT	ENDS
;	COMDAT text$x
text$x	SEGMENT
__unwindfunclet$??1ioUroborusWeapon6@@UAE@XZ$0:
  00000	8b 4d f0	 mov	 ecx, DWORD PTR _this$[ebp]
  00003	e9 00 00 00 00	 jmp	 ??1ioWeapon@@UAE@XZ	; ioWeapon::~ioWeapon
__unwindfunclet$??1ioUroborusWeapon6@@UAE@XZ$1:
  00008	8b 4d f0	 mov	 ecx, DWORD PTR _this$[ebp]
  0000b	81 c1 9c 08 00
	00		 add	 ecx, 2204		; 0000089cH
  00011	ff 25 00 00 00
	00		 jmp	 DWORD PTR __imp_??1ioOrientBox@@QAE@XZ
__unwindfunclet$??1ioUroborusWeapon6@@UAE@XZ$2:
  00017	8b 4d f0	 mov	 ecx, DWORD PTR _this$[ebp]
  0001a	81 c1 f8 08 00
	00		 add	 ecx, 2296		; 000008f8H
  00020	ff 25 00 00 00
	00		 jmp	 DWORD PTR __imp_??1ioHashString@@QAE@XZ
__unwindfunclet$??1ioUroborusWeapon6@@UAE@XZ$3:
  00026	8b 4d f0	 mov	 ecx, DWORD PTR _this$[ebp]
  00029	81 c1 08 09 00
	00		 add	 ecx, 2312		; 00000908H
  0002f	ff 25 00 00 00
	00		 jmp	 DWORD PTR __imp_??1ioHashString@@QAE@XZ
__unwindfunclet$??1ioUroborusWeapon6@@UAE@XZ$4:
  00035	8b 4d f0	 mov	 ecx, DWORD PTR _this$[ebp]
  00038	81 c1 30 09 00
	00		 add	 ecx, 2352		; 00000930H
  0003e	e9 00 00 00 00	 jmp	 ??1?$CEncrypt@M@@UAE@XZ	; CEncrypt<float>::~CEncrypt<float>
__unwindfunclet$??1ioUroborusWeapon6@@UAE@XZ$5:
  00043	8b 4d f0	 mov	 ecx, DWORD PTR _this$[ebp]
  00046	81 c1 60 09 00
	00		 add	 ecx, 2400		; 00000960H
  0004c	e9 00 00 00 00	 jmp	 ??1?$CEncrypt@M@@UAE@XZ	; CEncrypt<float>::~CEncrypt<float>
__unwindfunclet$??1ioUroborusWeapon6@@UAE@XZ$6:
  00051	8b 4d f0	 mov	 ecx, DWORD PTR _this$[ebp]
  00054	81 c1 90 09 00
	00		 add	 ecx, 2448		; 00000990H
  0005a	e9 00 00 00 00	 jmp	 ??1?$CEncrypt@M@@UAE@XZ	; CEncrypt<float>::~CEncrypt<float>
__unwindfunclet$??1ioUroborusWeapon6@@UAE@XZ$7:
  0005f	8b 4d f0	 mov	 ecx, DWORD PTR _this$[ebp]
  00062	81 c1 c0 09 00
	00		 add	 ecx, 2496		; 000009c0H
  00068	ff 25 00 00 00
	00		 jmp	 DWORD PTR __imp_??1ioHashString@@QAE@XZ
__unwindfunclet$??1ioUroborusWeapon6@@UAE@XZ$8:
  0006e	8b 4d f0	 mov	 ecx, DWORD PTR _this$[ebp]
  00071	81 c1 dc 09 00
	00		 add	 ecx, 2524		; 000009dcH
  00077	ff 25 00 00 00
	00		 jmp	 DWORD PTR __imp_??1ioHashString@@QAE@XZ
__unwindfunclet$??1ioUroborusWeapon6@@UAE@XZ$9:
  0007d	8b 4d f0	 mov	 ecx, DWORD PTR _this$[ebp]
  00080	81 c1 14 0a 00
	00		 add	 ecx, 2580		; 00000a14H
  00086	ff 25 00 00 00
	00		 jmp	 DWORD PTR __imp_??1ioHashString@@QAE@XZ
__unwindfunclet$??1ioUroborusWeapon6@@UAE@XZ$10:
  0008c	8b 4d f0	 mov	 ecx, DWORD PTR _this$[ebp]
  0008f	81 c1 24 0a 00
	00		 add	 ecx, 2596		; 00000a24H
  00095	e9 00 00 00 00	 jmp	 ??1WeaponInfo@@QAE@XZ
__ehhandler$??1ioUroborusWeapon6@@UAE@XZ:
  0009a	8b 54 24 08	 mov	 edx, DWORD PTR [esp+8]
  0009e	8d 42 0c	 lea	 eax, DWORD PTR [edx+12]
  000a1	8b 4a ec	 mov	 ecx, DWORD PTR [edx-20]
  000a4	33 c8		 xor	 ecx, eax
  000a6	e8 00 00 00 00	 call	 @__security_check_cookie@4
  000ab	b8 00 00 00 00	 mov	 eax, OFFSET __ehfuncinfo$??1ioUroborusWeapon6@@UAE@XZ
  000b0	e9 00 00 00 00	 jmp	 ___CxxFrameHandler3
text$x	ENDS
??1ioUroborusWeapon6@@UAE@XZ ENDP			; ioUroborusWeapon6::~ioUroborusWeapon6
PUBLIC	?SetFireMesh@ioUroborusWeapon6@@IAE_NABVioHashString@@@Z ; ioUroborusWeapon6::SetFireMesh
EXTRN	__imp_?GetCollisionBox@ioEffect@@QBEABVioOrientBox@@XZ:PROC
EXTRN	__imp_??D@YA?AUD3DXVECTOR3@@ABU0@0@Z:PROC
EXTRN	__imp_??D@YA?AUD3DXVECTOR3@@ABUD3DXQUATERNION@@ABU0@@Z:PROC
EXTRN	__imp_?GetBiped@ioEntityGroup@@QAEPAVioBiped@@ABVioHashString@@@Z:PROC
EXTRN	__imp_?GetFirstLinkOffset@ioEffect@@QAE_NAAVioHashString@@AAUD3DXVECTOR3@@AAUD3DXQUATERNION@@@Z:PROC
EXTRN	__imp_??0ioHashString@@QAE@XZ:PROC
EXTRN	__imp_?UNIT_ALL@ioMath@@2UD3DXVECTOR3@@A:BYTE
EXTRN	__imp_?CreateEffect@ioEffectFactory@@QAEPAVioEffect@@ABVioHashString@@@Z:PROC
EXTRN	__EH_epilog3_GS:PROC
EXTRN	__EH_prolog3_GS:PROC
;	COMDAT xdata$x
; File c:\program files (x86)\microsoft directx sdk (june 2010)\include\d3dx9math.inl
xdata$x	SEGMENT
__unwindtable$?SetFireMesh@ioUroborusWeapon6@@IAE_NABVioHashString@@@Z DD 0ffffffffH
	DD	FLAT:__unwindfunclet$?SetFireMesh@ioUroborusWeapon6@@IAE_NABVioHashString@@@Z$0
	DD	00H
	DD	FLAT:__unwindfunclet$?SetFireMesh@ioUroborusWeapon6@@IAE_NABVioHashString@@@Z$1
__ehfuncinfo$?SetFireMesh@ioUroborusWeapon6@@IAE_NABVioHashString@@@Z DD 019930522H
	DD	02H
	DD	FLAT:__unwindtable$?SetFireMesh@ioUroborusWeapon6@@IAE_NABVioHashString@@@Z
	DD	2 DUP(00H)
	DD	2 DUP(00H)
	DD	00H
	DD	01H
; Function compile flags: /Ogsp
; File d:\lost saga for developer\youtube\tutorial\source\src\lsclient\iouroborusweapon6.cpp
xdata$x	ENDS
;	COMDAT ?SetFireMesh@ioUroborusWeapon6@@IAE_NABVioHashString@@@Z
_TEXT	SEGMENT
_qtLinkRotOffset$ = -100				; size = 16
_szLinkBiped$ = -84					; size = 16
$T534114 = -68						; size = 4
_pOwner$ = -64						; size = 4
$T534108 = -57						; size = 1
$T534109 = -56						; size = 16
$T530814 = -52						; size = 12
_vLinkPosOffset$ = -40					; size = 12
$T530815 = -28						; size = 12
$T530813 = -28						; size = 12
$T530812 = -28						; size = 12
$T530811 = -28						; size = 12
__$EHRec$ = -12						; size = 12
_szFileName$ = 8					; size = 4
?SetFireMesh@ioUroborusWeapon6@@IAE_NABVioHashString@@@Z PROC ; ioUroborusWeapon6::SetFireMesh, COMDAT
; _this$ = ecx

; 133  : {

  00000	6a 58		 push	 88			; 00000058H
  00002	b8 00 00 00 00	 mov	 eax, __ehhandler$?SetFireMesh@ioUroborusWeapon6@@IAE_NABVioHashString@@@Z
  00007	e8 00 00 00 00	 call	 __EH_prolog3_GS
  0000c	8b 7d 08	 mov	 edi, DWORD PTR _szFileName$[ebp]
  0000f	33 f6		 xor	 esi, esi
  00011	8b d9		 mov	 ebx, ecx
  00013	89 75 bc	 mov	 DWORD PTR $T534114[ebp], esi

; 134  : 	ioBaseChar *pOwner = GetOwner();

  00016	e8 00 00 00 00	 call	 ?GetOwner@ioWeapon@@QBEPAVioBaseChar@@XZ ; ioWeapon::GetOwner
  0001b	89 45 c0	 mov	 DWORD PTR _pOwner$[ebp], eax

; 135  : 	if( !pOwner )	return false;

  0001e	3b c6		 cmp	 eax, esi
  00020	75 07		 jne	 SHORT $LN4@SetFireMes
$LN35@SetFireMes:
  00022	32 c0		 xor	 al, al
  00024	e9 35 02 00 00	 jmp	 $LN5@SetFireMes
$LN4@SetFireMes:

; 136  : 
; 137  : 	m_pFireMesh = g_EffectFactory.CreateEffect( szFileName );

  00029	57		 push	 edi
  0002a	ff 15 00 00 00
	00		 call	 DWORD PTR __imp_?GetSingleton@ioEffectFactory@@SAAAV1@XZ
  00030	8b c8		 mov	 ecx, eax
  00032	ff 15 00 00 00
	00		 call	 DWORD PTR __imp_?CreateEffect@ioEffectFactory@@QAEPAVioEffect@@ABVioHashString@@@Z
  00038	89 83 98 08 00
	00		 mov	 DWORD PTR [ebx+2200], eax

; 138  : 	if( !m_pFireMesh )	return false;

  0003e	3b c6		 cmp	 eax, esi
  00040	74 e0		 je	 SHORT $LN35@SetFireMes

; 139  : 
; 140  : 	GetParentSceneNode()->AttachObject( m_pFireMesh );

  00042	8b 4b 04	 mov	 ecx, DWORD PTR [ebx+4]
  00045	8b 11		 mov	 edx, DWORD PTR [ecx]
  00047	83 c0 14	 add	 eax, 20			; 00000014H
  0004a	50		 push	 eax
  0004b	ff 92 ac 00 00
	00		 call	 DWORD PTR [edx+172]

; 141  : 	GetParentSceneNode()->SetScale( ioMath::UNIT_ALL );

  00051	8b 4b 04	 mov	 ecx, DWORD PTR [ebx+4]
  00054	ff 35 00 00 00
	00		 push	 DWORD PTR __imp_?UNIT_ALL@ioMath@@2UD3DXVECTOR3@@A
  0005a	8b 01		 mov	 eax, DWORD PTR [ecx]
  0005c	ff 50 20	 call	 DWORD PTR [eax+32]

; 142  : 
; 143  : 	ioHashString szLinkBiped;

  0005f	8d 4d ac	 lea	 ecx, DWORD PTR _szLinkBiped$[ebp]
  00062	ff 15 00 00 00
	00		 call	 DWORD PTR __imp_??0ioHashString@@QAE@XZ

; 144  : 	D3DXVECTOR3 vLinkPosOffset;
; 145  : 	D3DXQUATERNION qtLinkRotOffset;
; 146  : 
; 147  : 	if( m_pFireMesh->GetSkeletonName().IsEmpty() && m_pFireMesh->GetFirstLinkOffset(szLinkBiped, vLinkPosOffset, qtLinkRotOffset ) )

  00068	8b 8b 98 08 00
	00		 mov	 ecx, DWORD PTR [ebx+2200]
  0006e	8d 45 c8	 lea	 eax, DWORD PTR $T534109[ebp]
  00071	50		 push	 eax
  00072	89 75 fc	 mov	 DWORD PTR __$EHRec$[ebp+8], esi
  00075	ff 15 00 00 00
	00		 call	 DWORD PTR __imp_?GetSkeletonName@ioEffect@@QBE?AVioHashString@@XZ
  0007b	8b c8		 mov	 ecx, eax
  0007d	c6 45 fc 01	 mov	 BYTE PTR __$EHRec$[ebp+8], 1
  00081	c7 45 bc 01 00
	00 00		 mov	 DWORD PTR $T534114[ebp], 1
  00088	ff 15 00 00 00
	00		 call	 DWORD PTR __imp_?IsEmpty@ioHashString@@QBE_NXZ
  0008e	84 c0		 test	 al, al
  00090	74 20		 je	 SHORT $LN9@SetFireMes
  00092	8b 8b 98 08 00
	00		 mov	 ecx, DWORD PTR [ebx+2200]
  00098	8d 45 9c	 lea	 eax, DWORD PTR _qtLinkRotOffset$[ebp]
  0009b	50		 push	 eax
  0009c	8d 45 d8	 lea	 eax, DWORD PTR _vLinkPosOffset$[ebp]
  0009f	50		 push	 eax
  000a0	8d 45 ac	 lea	 eax, DWORD PTR _szLinkBiped$[ebp]
  000a3	50		 push	 eax
  000a4	ff 15 00 00 00
	00		 call	 DWORD PTR __imp_?GetFirstLinkOffset@ioEffect@@QAE_NAAVioHashString@@AAUD3DXVECTOR3@@AAUD3DXQUATERNION@@@Z
  000aa	c6 45 c7 01	 mov	 BYTE PTR $T534108[ebp], 1
  000ae	84 c0		 test	 al, al
  000b0	75 04		 jne	 SHORT $LN10@SetFireMes
$LN9@SetFireMes:
  000b2	c6 45 c7 00	 mov	 BYTE PTR $T534108[ebp], 0
$LN10@SetFireMes:
  000b6	8d 4d c8	 lea	 ecx, DWORD PTR $T534109[ebp]
  000b9	89 75 fc	 mov	 DWORD PTR __$EHRec$[ebp+8], esi
  000bc	ff 15 00 00 00
	00		 call	 DWORD PTR __imp_??1ioHashString@@QAE@XZ
  000c2	80 7d c7 00	 cmp	 BYTE PTR $T534108[ebp], 0
  000c6	0f 84 4a 01 00
	00		 je	 $LN1@SetFireMes

; 148  : 	{
; 149  : 		ioBiped *pLinked = pOwner->GetGroup()->GetBiped( szLinkBiped );

  000cc	8b 45 c0	 mov	 eax, DWORD PTR _pOwner$[ebp]
  000cf	8b 48 04	 mov	 ecx, DWORD PTR [eax+4]
  000d2	8d 45 ac	 lea	 eax, DWORD PTR _szLinkBiped$[ebp]
  000d5	50		 push	 eax
  000d6	ff 15 00 00 00
	00		 call	 DWORD PTR __imp_?GetBiped@ioEntityGroup@@QAEPAVioBiped@@ABVioHashString@@@Z
  000dc	8b f8		 mov	 edi, eax

; 150  : 		if( pLinked )

  000de	3b fe		 cmp	 edi, esi
  000e0	0f 84 30 01 00
	00		 je	 $LN1@SetFireMes

; 151  : 		{
; 152  : 			vLinkPosOffset = pLinked->GetDerivedOrientation() * vLinkPosOffset + pLinked->GetDerivedPosition();

  000e6	8b 07		 mov	 eax, DWORD PTR [edi]
  000e8	8b cf		 mov	 ecx, edi
  000ea	ff 50 7c	 call	 DWORD PTR [eax+124]
  000ed	8b f0		 mov	 esi, eax
  000ef	8d 45 d8	 lea	 eax, DWORD PTR _vLinkPosOffset$[ebp]
  000f2	50		 push	 eax
  000f3	8b 07		 mov	 eax, DWORD PTR [edi]
  000f5	8b cf		 mov	 ecx, edi
  000f7	ff 50 78	 call	 DWORD PTR [eax+120]
  000fa	50		 push	 eax
  000fb	8d 45 e4	 lea	 eax, DWORD PTR $T530811[ebp]
  000fe	50		 push	 eax
  000ff	ff 15 00 00 00
	00		 call	 DWORD PTR __imp_??D@YA?AUD3DXVECTOR3@@ABUD3DXQUATERNION@@ABU0@@Z
  00105	f3 0f 10 06	 movss	 xmm0, DWORD PTR [esi]
  00109	f3 0f 10 08	 movss	 xmm1, DWORD PTR [eax]
  0010d	f3 0f 10 50 04	 movss	 xmm2, DWORD PTR [eax+4]
  00112	f3 0f 10 58 08	 movss	 xmm3, DWORD PTR [eax+8]

; 153  : 			vLinkPosOffset = vLinkPosOffset * pOwner->GetWorldScale();

  00117	8b 4d c0	 mov	 ecx, DWORD PTR _pOwner$[ebp]
  0011a	0f 5a c9	 cvtps2pd xmm1, xmm1
  0011d	0f 5a c0	 cvtps2pd xmm0, xmm0
  00120	f2 0f 58 c1	 addsd	 xmm0, xmm1
  00124	f3 0f 10 4e 04	 movss	 xmm1, DWORD PTR [esi+4]
  00129	0f 5a d2	 cvtps2pd xmm2, xmm2
  0012c	0f 5a c9	 cvtps2pd xmm1, xmm1
  0012f	f2 0f 58 ca	 addsd	 xmm1, xmm2
  00133	f3 0f 10 56 08	 movss	 xmm2, DWORD PTR [esi+8]
  00138	0f 5a d2	 cvtps2pd xmm2, xmm2
  0013b	0f 5a db	 cvtps2pd xmm3, xmm3
  0013e	f2 0f 58 d3	 addsd	 xmm2, xmm3
  00142	66 0f 5a c0	 cvtpd2ps xmm0, xmm0
  00146	f3 0f 11 45 e4	 movss	 DWORD PTR $T530812[ebp], xmm0
  0014b	66 0f 5a c9	 cvtpd2ps xmm1, xmm1
  0014f	f3 0f 11 4d e8	 movss	 DWORD PTR $T530812[ebp+4], xmm1
  00154	66 0f 5a d2	 cvtpd2ps xmm2, xmm2
  00158	f3 0f 11 55 ec	 movss	 DWORD PTR $T530812[ebp+8], xmm2
  0015d	8d 75 e4	 lea	 esi, DWORD PTR $T530812[ebp]
  00160	8d 7d d8	 lea	 edi, DWORD PTR _vLinkPosOffset$[ebp]
  00163	a5		 movsd
  00164	a5		 movsd
  00165	a5		 movsd
  00166	8b 01		 mov	 eax, DWORD PTR [ecx]
  00168	83 c4 0c	 add	 esp, 12			; 0000000cH
  0016b	ff 50 78	 call	 DWORD PTR [eax+120]
  0016e	50		 push	 eax
  0016f	8d 45 d8	 lea	 eax, DWORD PTR _vLinkPosOffset$[ebp]
  00172	50		 push	 eax
  00173	8d 45 e4	 lea	 eax, DWORD PTR $T530813[ebp]
  00176	50		 push	 eax
  00177	ff 15 00 00 00
	00		 call	 DWORD PTR __imp_??D@YA?AUD3DXVECTOR3@@ABU0@0@Z
  0017d	8b f0		 mov	 esi, eax
  0017f	8d 7d d8	 lea	 edi, DWORD PTR _vLinkPosOffset$[ebp]
  00182	a5		 movsd
  00183	a5		 movsd
  00184	a5		 movsd

; 154  : 			vLinkPosOffset = pOwner->GetWorldOrientation() * vLinkPosOffset + pOwner->GetWorldPosition();

  00185	8b 7d c0	 mov	 edi, DWORD PTR _pOwner$[ebp]
  00188	8b 07		 mov	 eax, DWORD PTR [edi]
  0018a	83 c4 0c	 add	 esp, 12			; 0000000cH
  0018d	8b cf		 mov	 ecx, edi
  0018f	ff 50 70	 call	 DWORD PTR [eax+112]
  00192	8b f0		 mov	 esi, eax
  00194	8d 45 d8	 lea	 eax, DWORD PTR _vLinkPosOffset$[ebp]
  00197	50		 push	 eax
  00198	8b 07		 mov	 eax, DWORD PTR [edi]
  0019a	8b cf		 mov	 ecx, edi
  0019c	ff 50 74	 call	 DWORD PTR [eax+116]
  0019f	50		 push	 eax
  001a0	8d 45 cc	 lea	 eax, DWORD PTR $T530814[ebp]
  001a3	50		 push	 eax
  001a4	ff 15 00 00 00
	00		 call	 DWORD PTR __imp_??D@YA?AUD3DXVECTOR3@@ABUD3DXQUATERNION@@ABU0@@Z
  001aa	f3 0f 10 00	 movss	 xmm0, DWORD PTR [eax]
  001ae	f3 0f 10 0e	 movss	 xmm1, DWORD PTR [esi]
  001b2	f3 0f 10 50 04	 movss	 xmm2, DWORD PTR [eax+4]
  001b7	0f 5a c9	 cvtps2pd xmm1, xmm1
  001ba	0f 5a c0	 cvtps2pd xmm0, xmm0
  001bd	f2 0f 58 c1	 addsd	 xmm0, xmm1
  001c1	f3 0f 10 4e 04	 movss	 xmm1, DWORD PTR [esi+4]
  001c6	0f 5a c9	 cvtps2pd xmm1, xmm1
  001c9	0f 5a d2	 cvtps2pd xmm2, xmm2
  001cc	83 c4 0c	 add	 esp, 12			; 0000000cH
  001cf	66 0f 5a c0	 cvtpd2ps xmm0, xmm0
  001d3	f2 0f 58 ca	 addsd	 xmm1, xmm2
  001d7	f3 0f 10 56 08	 movss	 xmm2, DWORD PTR [esi+8]
  001dc	f3 0f 10 58 08	 movss	 xmm3, DWORD PTR [eax+8]
  001e1	0f 5a d2	 cvtps2pd xmm2, xmm2
  001e4	0f 5a db	 cvtps2pd xmm3, xmm3
  001e7	f2 0f 58 d3	 addsd	 xmm2, xmm3
  001eb	f3 0f 11 45 e4	 movss	 DWORD PTR $T530815[ebp], xmm0
  001f0	66 0f 5a c9	 cvtpd2ps xmm1, xmm1
  001f4	f3 0f 11 4d e8	 movss	 DWORD PTR $T530815[ebp+4], xmm1
  001f9	66 0f 5a d2	 cvtpd2ps xmm2, xmm2
  001fd	f3 0f 11 55 ec	 movss	 DWORD PTR $T530815[ebp+8], xmm2
  00202	8d 75 e4	 lea	 esi, DWORD PTR $T530815[ebp]
  00205	8d 7d d8	 lea	 edi, DWORD PTR _vLinkPosOffset$[ebp]
  00208	a5		 movsd
  00209	a5		 movsd

; 155  : 			SetPosition( vLinkPosOffset );

  0020a	8d 45 d8	 lea	 eax, DWORD PTR _vLinkPosOffset$[ebp]
  0020d	50		 push	 eax
  0020e	8b cb		 mov	 ecx, ebx
  00210	a5		 movsd
  00211	e8 00 00 00 00	 call	 ?SetPosition@ioWeapon@@QAEXABUD3DXVECTOR3@@@Z ; ioWeapon::SetPosition
$LN1@SetFireMes:

; 156  : 		}
; 157  : 	}
; 158  : 
; 159  : 	m_pFireMesh->UpdateBounds( true );

  00216	8b 8b 98 08 00
	00		 mov	 ecx, DWORD PTR [ebx+2200]
  0021c	83 c1 14	 add	 ecx, 20			; 00000014H
  0021f	8b 01		 mov	 eax, DWORD PTR [ecx]
  00221	6a 01		 push	 1
  00223	ff 50 44	 call	 DWORD PTR [eax+68]

; 160  : 	m_LocalAttackBox = m_pFireMesh->GetCollisionBox();

  00226	8b 8b 98 08 00
	00		 mov	 ecx, DWORD PTR [ebx+2200]
  0022c	ff 15 00 00 00
	00		 call	 DWORD PTR __imp_?GetCollisionBox@ioEffect@@QBEABVioOrientBox@@XZ
  00232	6a 11		 push	 17			; 00000011H
  00234	59		 pop	 ecx

; 161  : 
; 162  : 	AddEffectEvent( m_pFireMesh );

  00235	ff b3 98 08 00
	00		 push	 DWORD PTR [ebx+2200]
  0023b	8b f0		 mov	 esi, eax
  0023d	8b 03		 mov	 eax, DWORD PTR [ebx]
  0023f	8d bb 9c 08 00
	00		 lea	 edi, DWORD PTR [ebx+2204]
  00245	f3 a5		 rep movsd
  00247	8b cb		 mov	 ecx, ebx
  00249	ff 90 68 01 00
	00		 call	 DWORD PTR [eax+360]

; 163  : 	return true;

  0024f	83 4d fc ff	 or	 DWORD PTR __$EHRec$[ebp+8], -1
  00253	8d 4d ac	 lea	 ecx, DWORD PTR _szLinkBiped$[ebp]
  00256	ff 15 00 00 00
	00		 call	 DWORD PTR __imp_??1ioHashString@@QAE@XZ
  0025c	b0 01		 mov	 al, 1
$LN5@SetFireMes:

; 164  : }

  0025e	e8 00 00 00 00	 call	 __EH_epilog3_GS
  00263	c2 04 00	 ret	 4
_TEXT	ENDS
;	COMDAT text$x
text$x	SEGMENT
__unwindfunclet$?SetFireMesh@ioUroborusWeapon6@@IAE_NABVioHashString@@@Z$0:
  00000	8d 4d ac	 lea	 ecx, DWORD PTR _szLinkBiped$[ebp]
  00003	ff 25 00 00 00
	00		 jmp	 DWORD PTR __imp_??1ioHashString@@QAE@XZ
__unwindfunclet$?SetFireMesh@ioUroborusWeapon6@@IAE_NABVioHashString@@@Z$1:
  00009	8b 45 bc	 mov	 eax, DWORD PTR $T534114[ebp]
  0000c	83 e0 01	 and	 eax, 1
  0000f	0f 84 0d 00 00
	00		 je	 $LN13@SetFireMes
  00015	83 65 bc fe	 and	 DWORD PTR $T534114[ebp], -2 ; fffffffeH
  00019	8d 4d c8	 lea	 ecx, DWORD PTR $T534109[ebp]
  0001c	ff 25 00 00 00
	00		 jmp	 DWORD PTR __imp_??1ioHashString@@QAE@XZ
$LN13@SetFireMes:
  00022	c3		 ret	 0
__ehhandler$?SetFireMesh@ioUroborusWeapon6@@IAE_NABVioHashString@@@Z:
  00023	8b 54 24 08	 mov	 edx, DWORD PTR [esp+8]
  00027	8d 42 0c	 lea	 eax, DWORD PTR [edx+12]
  0002a	8b 4a 98	 mov	 ecx, DWORD PTR [edx-104]
  0002d	33 c8		 xor	 ecx, eax
  0002f	e8 00 00 00 00	 call	 @__security_check_cookie@4
  00034	8b 4a fc	 mov	 ecx, DWORD PTR [edx-4]
  00037	33 c8		 xor	 ecx, eax
  00039	e8 00 00 00 00	 call	 @__security_check_cookie@4
  0003e	b8 00 00 00 00	 mov	 eax, OFFSET __ehfuncinfo$?SetFireMesh@ioUroborusWeapon6@@IAE_NABVioHashString@@@Z
  00043	e9 00 00 00 00	 jmp	 ___CxxFrameHandler3
text$x	ENDS
?SetFireMesh@ioUroborusWeapon6@@IAE_NABVioHashString@@@Z ENDP ; ioUroborusWeapon6::SetFireMesh
PUBLIC	__$ArrayPad$
EXTRN	?SetOrientation@ioWeapon@@QAEXABUD3DXQUATERNION@@@Z:PROC ; ioWeapon::SetOrientation
EXTRN	?ConvertDirToQuaternion@Help@@YA?AUD3DXQUATERNION@@ABUD3DXVECTOR3@@@Z:PROC ; Help::ConvertDirToQuaternion
EXTRN	_D3DXVec3Normalize@8:PROC
EXTRN	_D3DXQuaternionRotationYawPitchRoll@16:PROC
EXTRN	__imp_?ArrangeHead@ioMath@@SAMM@Z:PROC
EXTRN	___security_cookie:DWORD
; Function compile flags: /Ogsp
;	COMDAT ?SetMoveDir@ioUroborusWeapon6@@UAEXABUD3DXVECTOR3@@@Z
_TEXT	SEGMENT
_qtRot$ = -64						; size = 16
_qtAngle$530825 = -48					; size = 16
tv168 = -32						; size = 4
_fCurAngle$530823 = -32					; size = 4
$T530830 = -28						; size = 12
_vDirTemp$ = -16					; size = 12
__$ArrayPad$ = -4					; size = 4
_vDir$ = 8						; size = 4
?SetMoveDir@ioUroborusWeapon6@@UAEXABUD3DXVECTOR3@@@Z PROC ; ioUroborusWeapon6::SetMoveDir, COMDAT
; _this$ = ecx

; 168  : {

  00000	55		 push	 ebp
  00001	8b ec		 mov	 ebp, esp
  00003	83 ec 40	 sub	 esp, 64			; 00000040H
  00006	a1 00 00 00 00	 mov	 eax, DWORD PTR ___security_cookie
  0000b	33 c5		 xor	 eax, ebp
  0000d	89 45 fc	 mov	 DWORD PTR __$ArrayPad$[ebp], eax
  00010	53		 push	 ebx
  00011	56		 push	 esi
  00012	8b 75 08	 mov	 esi, DWORD PTR _vDir$[ebp]
  00015	57		 push	 edi

; 169  : 	D3DXVECTOR3 vDirTemp = vDir;

  00016	8d 7d f0	 lea	 edi, DWORD PTR _vDirTemp$[ebp]
  00019	a5		 movsd
  0001a	a5		 movsd
  0001b	8b d9		 mov	 ebx, ecx

; 170  : 	if( m_bUseRotateWeapon )

  0001d	80 bb fe 09 00
	00 00		 cmp	 BYTE PTR [ebx+2558], 0
  00024	a5		 movsd
  00025	74 5f		 je	 SHORT $LN1@SetMoveDir

; 171  : 	{
; 172  : 		float fCurAngle = 0.0f;
; 173  : 		fCurAngle = ioMath::ArrangeHead( m_fRotateAngle );

  00027	f3 0f 10 83 00
	0a 00 00	 movss	 xmm0, DWORD PTR [ebx+2560]
  0002f	51		 push	 ecx
  00030	f3 0f 11 04 24	 movss	 DWORD PTR [esp], xmm0
  00035	ff 15 00 00 00
	00		 call	 DWORD PTR __imp_?ArrangeHead@ioMath@@SAMM@Z
  0003b	d9 5d e0	 fstp	 DWORD PTR _fCurAngle$530823[ebp]

; 174  : 
; 175  : 		D3DXVECTOR3 vMoveDir;
; 176  : 		D3DXQUATERNION qtAngle;
; 177  : 		D3DXQuaternionRotationYawPitchRoll( &qtAngle, DEGtoRAD(fCurAngle), 0.0f, 0.0f );

  0003e	d9 45 e0	 fld	 DWORD PTR _fCurAngle$530823[ebp]
  00041	0f 57 c0	 xorps	 xmm0, xmm0
  00044	dc 0d 00 00 00
	00		 fmul	 QWORD PTR __real@3f91df46a2526c7a
  0004a	f3 0f 11 04 24	 movss	 DWORD PTR [esp], xmm0
  0004f	51		 push	 ecx
  00050	51		 push	 ecx
  00051	d9 5d e0	 fstp	 DWORD PTR tv168[ebp]
  00054	f3 0f 11 44 24
	04		 movss	 DWORD PTR [esp+4], xmm0
  0005a	d9 45 e0	 fld	 DWORD PTR tv168[ebp]
  0005d	8d 45 d0	 lea	 eax, DWORD PTR _qtAngle$530825[ebp]
  00060	d9 1c 24	 fstp	 DWORD PTR [esp]
  00063	50		 push	 eax
  00064	e8 00 00 00 00	 call	 _D3DXQuaternionRotationYawPitchRoll@16

; 178  : 
; 179  : 		vDirTemp = qtAngle * vDirTemp;

  00069	8d 45 f0	 lea	 eax, DWORD PTR _vDirTemp$[ebp]
  0006c	50		 push	 eax
  0006d	8d 45 d0	 lea	 eax, DWORD PTR _qtAngle$530825[ebp]
  00070	50		 push	 eax
  00071	8d 45 e4	 lea	 eax, DWORD PTR $T530830[ebp]
  00074	50		 push	 eax
  00075	ff 15 00 00 00
	00		 call	 DWORD PTR __imp_??D@YA?AUD3DXVECTOR3@@ABUD3DXQUATERNION@@ABU0@@Z
  0007b	8b f0		 mov	 esi, eax
  0007d	8d 7d f0	 lea	 edi, DWORD PTR _vDirTemp$[ebp]
  00080	a5		 movsd
  00081	a5		 movsd
  00082	83 c4 0c	 add	 esp, 12			; 0000000cH
  00085	a5		 movsd
$LN1@SetMoveDir:

; 180  : 	}
; 181  : 
; 182  : 	m_vMoveDir = vDirTemp;

  00086	8d 83 e0 08 00
	00		 lea	 eax, DWORD PTR [ebx+2272]
  0008c	8b f8		 mov	 edi, eax
  0008e	8d 75 f0	 lea	 esi, DWORD PTR _vDirTemp$[ebp]
  00091	a5		 movsd
  00092	a5		 movsd

; 183  : 	D3DXVec3Normalize( &m_vMoveDir, &m_vMoveDir );

  00093	50		 push	 eax
  00094	50		 push	 eax
  00095	a5		 movsd
  00096	e8 00 00 00 00	 call	 _D3DXVec3Normalize@8

; 184  : 
; 185  : 	D3DXQUATERNION qtRot = Help::ConvertDirToQuaternion( m_vMoveDir );

  0009b	8d 83 e0 08 00
	00		 lea	 eax, DWORD PTR [ebx+2272]
  000a1	50		 push	 eax
  000a2	8d 45 c0	 lea	 eax, DWORD PTR _qtRot$[ebp]
  000a5	50		 push	 eax
  000a6	e8 00 00 00 00	 call	 ?ConvertDirToQuaternion@Help@@YA?AUD3DXQUATERNION@@ABUD3DXVECTOR3@@@Z ; Help::ConvertDirToQuaternion
  000ab	59		 pop	 ecx
  000ac	59		 pop	 ecx

; 186  : 	SetOrientation( qtRot );

  000ad	8d 45 c0	 lea	 eax, DWORD PTR _qtRot$[ebp]
  000b0	50		 push	 eax
  000b1	8b cb		 mov	 ecx, ebx
  000b3	e8 00 00 00 00	 call	 ?SetOrientation@ioWeapon@@QAEXABUD3DXQUATERNION@@@Z ; ioWeapon::SetOrientation

; 187  : }

  000b8	8b 4d fc	 mov	 ecx, DWORD PTR __$ArrayPad$[ebp]
  000bb	5f		 pop	 edi
  000bc	5e		 pop	 esi
  000bd	33 cd		 xor	 ecx, ebp
  000bf	5b		 pop	 ebx
  000c0	e8 00 00 00 00	 call	 @__security_check_cookie@4
  000c5	c9		 leave
  000c6	c2 04 00	 ret	 4
?SetMoveDir@ioUroborusWeapon6@@UAEXABUD3DXVECTOR3@@@Z ENDP ; ioUroborusWeapon6::SetMoveDir
_TEXT	ENDS
PUBLIC	__$ArrayPad$
PUBLIC	?SetEndState@ioUroborusWeapon6@@QAEX_N00@Z	; ioUroborusWeapon6::SetEndState
EXTRN	??1SP2Packet@@UAE@XZ:PROC			; SP2Packet::~SP2Packet
EXTRN	?SendToAllPlayingUser@P2PNetwork@@YAXAAVSP2Packet@@PAVioBaseChar@@@Z:PROC ; P2PNetwork::SendToAllPlayingUser
EXTRN	??6SP2Packet@@QAEAAV0@_N@Z:PROC			; SP2Packet::operator<<
EXTRN	??6SP2Packet@@QAEAAV0@H@Z:PROC			; SP2Packet::operator<<
EXTRN	??6SP2Packet@@QAEAAV0@K@Z:PROC			; SP2Packet::operator<<
EXTRN	??6SP2Packet@@QAEAAV0@ABVioHashString@@@Z:PROC	; SP2Packet::operator<<
EXTRN	??0SP2Packet@@QAE@K@Z:PROC			; SP2Packet::SP2Packet
EXTRN	?SetReserveCallWeaponInfo@ioWeaponManager@@QAEXABVioHashString@@ABUWeaponInfo@@ABUD3DXVECTOR3@@2KK_N@Z:PROC ; ioWeaponManager::SetReserveCallWeaponInfo
EXTRN	?GetSingleton@ioWeaponManager@@SAAAV1@XZ:PROC	; ioWeaponManager::GetSingleton
EXTRN	__imp_?GetLoopSec@ioFrameTimer@@QBEKXZ:PROC
EXTRN	__imp_?GetSingleton@ioFrameTimer@@SAAAV1@XZ:PROC
EXTRN	__imp_?EndEffectForce@ioEffect@@QAEXXZ:PROC
EXTRN	?SetWorldOrientation@ioMapEffect@@QAEXABUD3DXQUATERNION@@@Z:PROC ; ioMapEffect::SetWorldOrientation
EXTRN	?GetOrientation@ioWeapon@@QBEABUD3DXQUATERNION@@XZ:PROC ; ioWeapon::GetOrientation
EXTRN	?CreateMapEffect@ioPlayStage@@QAEPAVioMapEffect@@ABVioHashString@@ABUD3DXVECTOR3@@1@Z:PROC ; ioPlayStage::CreateMapEffect
EXTRN	?GetScale@ioWeapon@@QBEABUD3DXVECTOR3@@XZ:PROC	; ioWeapon::GetScale
EXTRN	?GetWeaponEndEffect@ioWeapon@@QBEABVioHashString@@XZ:PROC ; ioWeapon::GetWeaponEndEffect
EXTRN	__chkstk:PROC
;	COMDAT xdata$x
; File d:\lost saga for developer\youtube\tutorial\source\src\lsclient\ioweapon.h
xdata$x	SEGMENT
__unwindtable$?SetEndState@ioUroborusWeapon6@@QAEX_N00@Z DD 0ffffffffH
	DD	FLAT:__unwindfunclet$?SetEndState@ioUroborusWeapon6@@QAEX_N00@Z$0
__ehfuncinfo$?SetEndState@ioUroborusWeapon6@@QAEX_N00@Z DD 019930522H
	DD	01H
	DD	FLAT:__unwindtable$?SetEndState@ioUroborusWeapon6@@QAEX_N00@Z
	DD	2 DUP(00H)
	DD	2 DUP(00H)
	DD	00H
	DD	01H
; Function compile flags: /Ogsp
; File d:\lost saga for developer\youtube\tutorial\source\src\lsclient\iouroborusweapon6.cpp
xdata$x	ENDS
;	COMDAT ?SetEndState@ioUroborusWeapon6@@QAEX_N00@Z
_TEXT	SEGMENT
_pEndEffect$530985 = -32832				; size = 4
_pOwner$ = -32828					; size = 4
_kPacket$530992 = -32824				; size = 32792
_qtRot$530987 = -32					; size = 16
$T530990 = -28						; size = 12
__$ArrayPad$ = -16					; size = 4
__$EHRec$ = -12						; size = 12
_bSkillEnd$ = 8						; size = 1
_bCheckCombo$ = 12					; size = 1
_bSendNet$ = 16						; size = 1
?SetEndState@ioUroborusWeapon6@@QAEX_N00@Z PROC		; ioUroborusWeapon6::SetEndState, COMDAT
; _this$ = ecx

; 461  : {

  00000	55		 push	 ebp
  00001	8b ec		 mov	 ebp, esp
  00003	6a ff		 push	 -1
  00005	68 00 00 00 00	 push	 __ehhandler$?SetEndState@ioUroborusWeapon6@@QAEX_N00@Z
  0000a	64 a1 00 00 00
	00		 mov	 eax, DWORD PTR fs:0
  00010	50		 push	 eax
  00011	b8 34 80 00 00	 mov	 eax, 32820		; 00008034H
  00016	e8 00 00 00 00	 call	 __chkstk
  0001b	a1 00 00 00 00	 mov	 eax, DWORD PTR ___security_cookie
  00020	33 c5		 xor	 eax, ebp
  00022	89 45 f0	 mov	 DWORD PTR __$ArrayPad$[ebp], eax
  00025	53		 push	 ebx
  00026	56		 push	 esi
  00027	57		 push	 edi
  00028	50		 push	 eax
  00029	8d 45 f4	 lea	 eax, DWORD PTR __$EHRec$[ebp]
  0002c	64 a3 00 00 00
	00		 mov	 DWORD PTR fs:0, eax

; 462  : 	if( m_UroborusState == US_END )

  00032	6a 02		 push	 2
  00034	8b d9		 mov	 ebx, ecx
  00036	58		 pop	 eax
  00037	39 83 94 08 00
	00		 cmp	 DWORD PTR [ebx+2196], eax
  0003d	0f 84 99 01 00
	00		 je	 $LN1@SetEndStat

; 463  : 		return;
; 464  : 
; 465  : 	m_UroborusState = US_END;

  00043	89 83 94 08 00
	00		 mov	 DWORD PTR [ebx+2196], eax

; 466  : 
; 467  : 	ioBaseChar *pOwner = GetOwner();

  00049	e8 00 00 00 00	 call	 ?GetOwner@ioWeapon@@QBEPAVioBaseChar@@XZ ; ioWeapon::GetOwner
  0004e	8b f8		 mov	 edi, eax
  00050	89 bd c4 7f ff
	ff		 mov	 DWORD PTR _pOwner$[ebp], edi

; 468  : 	if( !pOwner ) 

  00056	85 ff		 test	 edi, edi
  00058	0f 84 7e 01 00
	00		 je	 $LN1@SetEndStat

; 469  : 		return;
; 470  : 
; 471  : 	ioPlayStage *pStage = pOwner->GetCreator();

  0005e	8b b7 44 03 00
	00		 mov	 esi, DWORD PTR [edi+836]

; 472  : 	if( !GetWeaponEndEffect().IsEmpty() )

  00064	8b cb		 mov	 ecx, ebx
  00066	e8 00 00 00 00	 call	 ?GetWeaponEndEffect@ioWeapon@@QBEABVioHashString@@XZ ; ioWeapon::GetWeaponEndEffect
  0006b	8b c8		 mov	 ecx, eax
  0006d	ff 15 00 00 00
	00		 call	 DWORD PTR __imp_?IsEmpty@ioHashString@@QBE_NXZ
  00073	84 c0		 test	 al, al
  00075	75 4e		 jne	 SHORT $LN3@SetEndStat

; 473  : 	{
; 474  : 		ioMapEffect *pEndEffect = pStage->CreateMapEffect( GetWeaponEndEffect(), GetPosition(), GetScale() );

  00077	8b cb		 mov	 ecx, ebx
  00079	e8 00 00 00 00	 call	 ?GetScale@ioWeapon@@QBEABUD3DXVECTOR3@@XZ ; ioWeapon::GetScale
  0007e	50		 push	 eax
  0007f	8b 03		 mov	 eax, DWORD PTR [ebx]
  00081	8b cb		 mov	 ecx, ebx
  00083	ff 50 70	 call	 DWORD PTR [eax+112]
  00086	50		 push	 eax
  00087	8b cb		 mov	 ecx, ebx
  00089	e8 00 00 00 00	 call	 ?GetWeaponEndEffect@ioWeapon@@QBEABVioHashString@@XZ ; ioWeapon::GetWeaponEndEffect
  0008e	50		 push	 eax
  0008f	8b ce		 mov	 ecx, esi
  00091	e8 00 00 00 00	 call	 ?CreateMapEffect@ioPlayStage@@QAEPAVioMapEffect@@ABVioHashString@@ABUD3DXVECTOR3@@1@Z ; ioPlayStage::CreateMapEffect
  00096	89 85 c0 7f ff
	ff		 mov	 DWORD PTR _pEndEffect$530985[ebp], eax

; 475  : 		if( pEndEffect )

  0009c	85 c0		 test	 eax, eax
  0009e	74 25		 je	 SHORT $LN3@SetEndStat

; 476  : 		{
; 477  : 			D3DXQUATERNION qtRot = GetOrientation();

  000a0	8b cb		 mov	 ecx, ebx
  000a2	e8 00 00 00 00	 call	 ?GetOrientation@ioWeapon@@QBEABUD3DXQUATERNION@@XZ ; ioWeapon::GetOrientation

; 478  : 			pEndEffect->SetWorldOrientation( qtRot );

  000a7	8b 8d c0 7f ff
	ff		 mov	 ecx, DWORD PTR _pEndEffect$530985[ebp]
  000ad	8b f0		 mov	 esi, eax
  000af	8d 7d e0	 lea	 edi, DWORD PTR _qtRot$530987[ebp]
  000b2	a5		 movsd
  000b3	a5		 movsd
  000b4	a5		 movsd
  000b5	8d 45 e0	 lea	 eax, DWORD PTR _qtRot$530987[ebp]
  000b8	50		 push	 eax
  000b9	a5		 movsd
  000ba	e8 00 00 00 00	 call	 ?SetWorldOrientation@ioMapEffect@@QAEXABUD3DXQUATERNION@@@Z ; ioMapEffect::SetWorldOrientation
  000bf	8b bd c4 7f ff
	ff		 mov	 edi, DWORD PTR _pOwner$[ebp]
$LN3@SetEndStat:

; 479  : 		}
; 480  : 	}
; 481  : 
; 482  : 	//if( m_pFireMesh )
; 483  : 		//m_pFireMesh->EndEffectGrace();
; 484  : 	if( m_pFireMesh )

  000c5	8b 8b 98 08 00
	00		 mov	 ecx, DWORD PTR [ebx+2200]
  000cb	85 c9		 test	 ecx, ecx
  000cd	74 06		 je	 SHORT $LN2@SetEndStat

; 485  : 		m_pFireMesh->EndEffectForce();

  000cf	ff 15 00 00 00
	00		 call	 DWORD PTR __imp_?EndEffectForce@ioEffect@@QAEXXZ
$LN2@SetEndStat:

; 486  : 
; 487  : 
; 488  : 	DWORD dwCurTime = FRAMEGETTIME();

  000d5	ff 15 00 00 00
	00		 call	 DWORD PTR __imp_?GetSingleton@ioFrameTimer@@SAAAV1@XZ
  000db	8b c8		 mov	 ecx, eax
  000dd	ff 15 00 00 00
	00		 call	 DWORD PTR __imp_?GetLoopSec@ioFrameTimer@@QBEKXZ

; 489  : 	g_WeaponMgr.SetReserveCallWeaponInfo( GetOwnerName(), 
; 490  : 		m_CallWeaponInfo,
; 491  : 		GetPosition(),
; 492  : 		-m_vMoveDir,											
; 493  : 		dwCurTime,
; 494  : 		m_dwWeaponIdx );

  000e3	f3 0f 10 05 00
	00 00 00	 movss	 xmm0, DWORD PTR __mask@@NegFloat@
  000eb	f3 0f 10 8b e0
	08 00 00	 movss	 xmm1, DWORD PTR [ebx+2272]
  000f3	f3 0f 10 93 e4
	08 00 00	 movss	 xmm2, DWORD PTR [ebx+2276]
  000fb	f3 0f 10 9b e8
	08 00 00	 movss	 xmm3, DWORD PTR [ebx+2280]
  00103	6a 00		 push	 0
  00105	ff b3 b8 04 00
	00		 push	 DWORD PTR [ebx+1208]
  0010b	0f 57 c8	 xorps	 xmm1, xmm0
  0010e	50		 push	 eax
  0010f	8d 45 e4	 lea	 eax, DWORD PTR $T530990[ebp]
  00112	50		 push	 eax
  00113	8b 03		 mov	 eax, DWORD PTR [ebx]
  00115	0f 57 d0	 xorps	 xmm2, xmm0
  00118	0f 57 d8	 xorps	 xmm3, xmm0
  0011b	8b cb		 mov	 ecx, ebx
  0011d	f3 0f 11 4d e4	 movss	 DWORD PTR $T530990[ebp], xmm1
  00122	f3 0f 11 55 e8	 movss	 DWORD PTR $T530990[ebp+4], xmm2
  00127	f3 0f 11 5d ec	 movss	 DWORD PTR $T530990[ebp+8], xmm3
  0012c	8d 73 10	 lea	 esi, DWORD PTR [ebx+16]
  0012f	ff 50 70	 call	 DWORD PTR [eax+112]
  00132	50		 push	 eax
  00133	8d 83 24 0a 00
	00		 lea	 eax, DWORD PTR [ebx+2596]
  00139	50		 push	 eax
  0013a	56		 push	 esi
  0013b	e8 00 00 00 00	 call	 ?GetSingleton@ioWeaponManager@@SAAAV1@XZ ; ioWeaponManager::GetSingleton
  00140	8b c8		 mov	 ecx, eax
  00142	e8 00 00 00 00	 call	 ?SetReserveCallWeaponInfo@ioWeaponManager@@QAEXABVioHashString@@ABUWeaponInfo@@ABUD3DXVECTOR3@@2KK_N@Z ; ioWeaponManager::SetReserveCallWeaponInfo

; 495  : 
; 496  : 	if( bSendNet && pOwner->IsNeedSendNetwork() )

  00147	80 7d 10 00	 cmp	 BYTE PTR _bSendNet$[ebp], 0
  0014b	0f 84 8b 00 00
	00		 je	 $LN1@SetEndStat
  00151	8b 07		 mov	 eax, DWORD PTR [edi]
  00153	8b cf		 mov	 ecx, edi
  00155	ff 90 04 01 00
	00		 call	 DWORD PTR [eax+260]
  0015b	84 c0		 test	 al, al
  0015d	74 7d		 je	 SHORT $LN1@SetEndStat

; 497  : 	{
; 498  : 		SP2Packet kPacket( CUPK_WEAPON_SYNC );

  0015f	68 16 42 00 00	 push	 16918			; 00004216H
  00164	8d 8d c8 7f ff
	ff		 lea	 ecx, DWORD PTR _kPacket$530992[ebp]
  0016a	e8 00 00 00 00	 call	 ??0SP2Packet@@QAE@K@Z	; SP2Packet::SP2Packet
  0016f	83 65 fc 00	 and	 DWORD PTR __$EHRec$[ebp+8], 0

; 499  : 		kPacket << GetOwnerName();

  00173	56		 push	 esi
  00174	8d 8d c8 7f ff
	ff		 lea	 ecx, DWORD PTR _kPacket$530992[ebp]
  0017a	e8 00 00 00 00	 call	 ??6SP2Packet@@QAEAAV0@ABVioHashString@@@Z ; SP2Packet::operator<<

; 500  : 		kPacket << m_dwWeaponIdx;

  0017f	ff b3 b8 04 00
	00		 push	 DWORD PTR [ebx+1208]
  00185	8d 8d c8 7f ff
	ff		 lea	 ecx, DWORD PTR _kPacket$530992[ebp]
  0018b	e8 00 00 00 00	 call	 ??6SP2Packet@@QAEAAV0@K@Z ; SP2Packet::operator<<

; 501  : 		kPacket << m_UroborusState;

  00190	ff b3 94 08 00
	00		 push	 DWORD PTR [ebx+2196]
  00196	8d 8d c8 7f ff
	ff		 lea	 ecx, DWORD PTR _kPacket$530992[ebp]
  0019c	e8 00 00 00 00	 call	 ??6SP2Packet@@QAEAAV0@H@Z ; SP2Packet::operator<<

; 502  : 		kPacket << bSkillEnd;

  001a1	ff 75 08	 push	 DWORD PTR _bSkillEnd$[ebp]
  001a4	8d 8d c8 7f ff
	ff		 lea	 ecx, DWORD PTR _kPacket$530992[ebp]
  001aa	e8 00 00 00 00	 call	 ??6SP2Packet@@QAEAAV0@_N@Z ; SP2Packet::operator<<

; 503  : 		kPacket << bCheckCombo;

  001af	ff 75 0c	 push	 DWORD PTR _bCheckCombo$[ebp]
  001b2	8d 8d c8 7f ff
	ff		 lea	 ecx, DWORD PTR _kPacket$530992[ebp]
  001b8	e8 00 00 00 00	 call	 ??6SP2Packet@@QAEAAV0@_N@Z ; SP2Packet::operator<<

; 504  : 		P2PNetwork::SendToAllPlayingUser( kPacket );

  001bd	8d 85 c8 7f ff
	ff		 lea	 eax, DWORD PTR _kPacket$530992[ebp]
  001c3	6a 00		 push	 0
  001c5	50		 push	 eax
  001c6	e8 00 00 00 00	 call	 ?SendToAllPlayingUser@P2PNetwork@@YAXAAVSP2Packet@@PAVioBaseChar@@@Z ; P2PNetwork::SendToAllPlayingUser

; 505  : 	}

  001cb	83 4d fc ff	 or	 DWORD PTR __$EHRec$[ebp+8], -1
  001cf	59		 pop	 ecx
  001d0	59		 pop	 ecx
  001d1	8d 8d c8 7f ff
	ff		 lea	 ecx, DWORD PTR _kPacket$530992[ebp]
  001d7	e8 00 00 00 00	 call	 ??1SP2Packet@@UAE@XZ	; SP2Packet::~SP2Packet
$LN1@SetEndStat:

; 506  : }

  001dc	8b 4d f4	 mov	 ecx, DWORD PTR __$EHRec$[ebp]
  001df	64 89 0d 00 00
	00 00		 mov	 DWORD PTR fs:0, ecx
  001e6	59		 pop	 ecx
  001e7	5f		 pop	 edi
  001e8	5e		 pop	 esi
  001e9	5b		 pop	 ebx
  001ea	8b 4d f0	 mov	 ecx, DWORD PTR __$ArrayPad$[ebp]
  001ed	33 cd		 xor	 ecx, ebp
  001ef	e8 00 00 00 00	 call	 @__security_check_cookie@4
  001f4	c9		 leave
  001f5	c2 0c 00	 ret	 12			; 0000000cH
_TEXT	ENDS
;	COMDAT text$x
text$x	SEGMENT
__unwindfunclet$?SetEndState@ioUroborusWeapon6@@QAEX_N00@Z$0:
  00000	8d 8d c8 7f ff
	ff		 lea	 ecx, DWORD PTR _kPacket$530992[ebp]
  00006	e9 00 00 00 00	 jmp	 ??1SP2Packet@@UAE@XZ	; SP2Packet::~SP2Packet
__ehhandler$?SetEndState@ioUroborusWeapon6@@QAEX_N00@Z:
  0000b	8b 54 24 08	 mov	 edx, DWORD PTR [esp+8]
  0000f	8d 42 0c	 lea	 eax, DWORD PTR [edx+12]
  00012	8b 8a bc 7f ff
	ff		 mov	 ecx, DWORD PTR [edx-32836]
  00018	33 c8		 xor	 ecx, eax
  0001a	e8 00 00 00 00	 call	 @__security_check_cookie@4
  0001f	8b 4a fc	 mov	 ecx, DWORD PTR [edx-4]
  00022	33 c8		 xor	 ecx, eax
  00024	e8 00 00 00 00	 call	 @__security_check_cookie@4
  00029	b8 00 00 00 00	 mov	 eax, OFFSET __ehfuncinfo$?SetEndState@ioUroborusWeapon6@@QAEX_N00@Z
  0002e	e9 00 00 00 00	 jmp	 ___CxxFrameHandler3
text$x	ENDS
?SetEndState@ioUroborusWeapon6@@QAEX_N00@Z ENDP		; ioUroborusWeapon6::SetEndState
EXTRN	?SetWeaponDead@ioWeapon@@UAEXXZ:PROC		; ioWeapon::SetWeaponDead
; Function compile flags: /Ogsp
;	COMDAT ?SetWeaponDead@ioUroborusWeapon6@@UAEXXZ
_TEXT	SEGMENT
?SetWeaponDead@ioUroborusWeapon6@@UAEXXZ PROC		; ioUroborusWeapon6::SetWeaponDead, COMDAT
; _this$ = ecx

; 537  : {

  00000	56		 push	 esi
  00001	8b f1		 mov	 esi, ecx

; 538  : 	if( m_UroborusState != US_END )

  00003	83 be 94 08 00
	00 02		 cmp	 DWORD PTR [esi+2196], 2
  0000a	74 0a		 je	 SHORT $LN1@SetWeaponD

; 539  : 	{
; 540  : 		SetEndState( false, false, false );

  0000c	33 c0		 xor	 eax, eax
  0000e	50		 push	 eax
  0000f	50		 push	 eax
  00010	50		 push	 eax
  00011	e8 00 00 00 00	 call	 ?SetEndState@ioUroborusWeapon6@@QAEX_N00@Z ; ioUroborusWeapon6::SetEndState
$LN1@SetWeaponD:

; 541  : 	}
; 542  : 
; 543  : 	ioWeapon::SetWeaponDead();

  00016	8b ce		 mov	 ecx, esi
  00018	5e		 pop	 esi
  00019	e9 00 00 00 00	 jmp	 ?SetWeaponDead@ioWeapon@@UAEXXZ ; ioWeapon::SetWeaponDead
?SetWeaponDead@ioUroborusWeapon6@@UAEXXZ ENDP		; ioUroborusWeapon6::SetWeaponDead
_TEXT	ENDS
PUBLIC	??4?$CEncrypt@M@@QAEMH@Z			; CEncrypt<float>::operator=
; Function compile flags: /Ogsp
; File d:\lost saga for developer\youtube\tutorial\source\src\lsclient\encryptvalue.h
;	COMDAT ??4?$CEncrypt@M@@QAEMH@Z
_TEXT	SEGMENT
_value$ = 8						; size = 4
_inValue$ = 8						; size = 4
??4?$CEncrypt@M@@QAEMH@Z PROC				; CEncrypt<float>::operator=, COMDAT
; _this$ = ecx

; 843  : 	{

  00000	55		 push	 ebp
  00001	8b ec		 mov	 ebp, esp

; 844  : 		type value = inValue;

  00003	db 45 08	 fild	 DWORD PTR _inValue$[ebp]

; 845  : 		EncryptValueToPool((char*)&value);

  00006	8d 45 08	 lea	 eax, DWORD PTR _value$[ebp]
  00009	50		 push	 eax
  0000a	d9 5d 08	 fstp	 DWORD PTR _value$[ebp]
  0000d	e8 00 00 00 00	 call	 ?EncryptValueToPool@?$CEncrypt@M@@AAEXPBD@Z ; CEncrypt<float>::EncryptValueToPool

; 846  : #ifdef _NOTUSE
; 847  : 		m_value = inValue;
; 848  : 		Debug();
; 849  : #endif
; 850  : 		return value;

  00012	d9 45 08	 fld	 DWORD PTR _value$[ebp]

; 851  : 	}

  00015	5d		 pop	 ebp
  00016	c2 04 00	 ret	 4
??4?$CEncrypt@M@@QAEMH@Z ENDP				; CEncrypt<float>::operator=
_TEXT	ENDS
PUBLIC	??O?$CEncrypt@K@@QAE_NABH@Z			; CEncrypt<unsigned long>::operator>
; Function compile flags: /Ogsp
;	COMDAT ??O?$CEncrypt@K@@QAE_NABH@Z
_TEXT	SEGMENT
_value$ = -4						; size = 4
_inValue$ = 8						; size = 4
??O?$CEncrypt@K@@QAE_NABH@Z PROC			; CEncrypt<unsigned long>::operator>, COMDAT
; _this$ = ecx

; 1009 : 	{

  00000	55		 push	 ebp
  00001	8b ec		 mov	 ebp, esp
  00003	51		 push	 ecx

; 1010 : 		
; 1011 : 		type value;
; 1012 : 		DecryptValueToPool(&value);

  00004	8d 45 fc	 lea	 eax, DWORD PTR _value$[ebp]
  00007	50		 push	 eax
  00008	e8 00 00 00 00	 call	 ?DecryptValueToPool@?$CEncrypt@K@@QAEXPAK@Z ; CEncrypt<unsigned long>::DecryptValueToPool

; 1013 : #ifdef _NOTUSE
; 1014 : 		Debug();
; 1015 : #endif
; 1016 : 		return (value > inValue);

  0000d	8b 45 08	 mov	 eax, DWORD PTR _inValue$[ebp]
  00010	8b 00		 mov	 eax, DWORD PTR [eax]
  00012	3b 45 fc	 cmp	 eax, DWORD PTR _value$[ebp]
  00015	1b c0		 sbb	 eax, eax
  00017	f7 d8		 neg	 eax

; 1017 : 	}		

  00019	c9		 leave
  0001a	c2 04 00	 ret	 4
??O?$CEncrypt@K@@QAE_NABH@Z ENDP			; CEncrypt<unsigned long>::operator>
_TEXT	ENDS
PUBLIC	_this$GSCopy$
PUBLIC	__$ArrayPad$
PUBLIC	??$LoadString_e@$0BA@@ioINILoader@@QAEXAAY0BA@$$CBDAAY00$$CBDPADH@Z ; ioINILoader::LoadString_e<16>
EXTRN	__imp_?LoadStringA@ioINILoader@@QAEXPBD0PADH@Z:PROC
; Function compile flags: /Ogsp
; File d:\lost saga for developer\youtube\tutorial\source\src\io3dengine\ioiniloader.h
;	COMDAT ??$LoadString_e@$0BA@@ioINILoader@@QAEXAAY0BA@$$CBDAAY00$$CBDPADH@Z
_TEXT	SEGMENT
_this$GSCopy$ = -28					; size = 4
__k$ = -24						; size = 16
__$ArrayPad$ = -4					; size = 4
_k$ = 8							; size = 4
_d$ = 12						; size = 4
_b$ = 16						; size = 4
_i$ = 20						; size = 4
??$LoadString_e@$0BA@@ioINILoader@@QAEXAAY0BA@$$CBDAAY00$$CBDPADH@Z PROC ; ioINILoader::LoadString_e<16>, COMDAT
; _this$ = ecx

; 161  : 	{

  00000	55		 push	 ebp
  00001	8b ec		 mov	 ebp, esp
  00003	83 ec 1c	 sub	 esp, 28			; 0000001cH
  00006	a1 00 00 00 00	 mov	 eax, DWORD PTR ___security_cookie
  0000b	33 c5		 xor	 eax, ebp
  0000d	89 45 fc	 mov	 DWORD PTR __$ArrayPad$[ebp], eax
  00010	8b 45 08	 mov	 eax, DWORD PTR _k$[ebp]

; 162  : 		_ENCSTR(k, _k);

  00013	8a 10		 mov	 dl, BYTE PTR [eax]
  00015	56		 push	 esi
  00016	8b 75 0c	 mov	 esi, DWORD PTR _d$[ebp]
  00019	57		 push	 edi
  0001a	8b 7d 10	 mov	 edi, DWORD PTR _b$[ebp]
  0001d	89 4d e4	 mov	 DWORD PTR _this$GSCopy$[ebp], ecx
  00020	84 d2		 test	 dl, dl
  00022	0f 84 8c 01 00
	00		 je	 $LN96@LoadString
  00028	80 f2 ed	 xor	 dl, -19			; ffffffedH
  0002b	88 55 e8	 mov	 BYTE PTR __k$[ebp], dl
  0002e	8a 50 01	 mov	 dl, BYTE PTR [eax+1]
  00031	84 d2		 test	 dl, dl
  00033	0f 84 75 01 00
	00		 je	 $LN95@LoadString
  00039	80 f2 ec	 xor	 dl, -20			; ffffffecH
  0003c	88 55 e9	 mov	 BYTE PTR __k$[ebp+1], dl
  0003f	8a 50 02	 mov	 dl, BYTE PTR [eax+2]
  00042	84 d2		 test	 dl, dl
  00044	0f 84 5e 01 00
	00		 je	 $LN94@LoadString
  0004a	b1 eb		 mov	 cl, -21			; ffffffebH
  0004c	32 d1		 xor	 dl, cl
  0004e	88 55 ea	 mov	 BYTE PTR __k$[ebp+2], dl
  00051	8a 50 03	 mov	 dl, BYTE PTR [eax+3]
  00054	84 d2		 test	 dl, dl
  00056	0f 84 46 01 00
	00		 je	 $LN93@LoadString
  0005c	80 f2 ea	 xor	 dl, -22			; ffffffeaH
  0005f	88 55 eb	 mov	 BYTE PTR __k$[ebp+3], dl
  00062	8a 50 04	 mov	 dl, BYTE PTR [eax+4]
  00065	84 d2		 test	 dl, dl
  00067	0f 84 2f 01 00
	00		 je	 $LN92@LoadString
  0006d	80 f2 ed	 xor	 dl, -19			; ffffffedH
  00070	88 55 ec	 mov	 BYTE PTR __k$[ebp+4], dl
  00073	8a 50 05	 mov	 dl, BYTE PTR [eax+5]
  00076	84 d2		 test	 dl, dl
  00078	0f 84 18 01 00
	00		 je	 $LN91@LoadString
  0007e	80 f2 ec	 xor	 dl, -20			; ffffffecH
  00081	88 55 ed	 mov	 BYTE PTR __k$[ebp+5], dl
  00084	8a 50 06	 mov	 dl, BYTE PTR [eax+6]
  00087	84 d2		 test	 dl, dl
  00089	0f 84 02 01 00
	00		 je	 $LN90@LoadString
  0008f	32 d1		 xor	 dl, cl
  00091	88 55 ee	 mov	 BYTE PTR __k$[ebp+6], dl
  00094	8a 50 07	 mov	 dl, BYTE PTR [eax+7]
  00097	84 d2		 test	 dl, dl
  00099	0f 84 ec 00 00
	00		 je	 $LN89@LoadString
  0009f	80 f2 ea	 xor	 dl, -22			; ffffffeaH
  000a2	88 55 ef	 mov	 BYTE PTR __k$[ebp+7], dl
  000a5	8a 50 08	 mov	 dl, BYTE PTR [eax+8]
  000a8	84 d2		 test	 dl, dl
  000aa	0f 84 d5 00 00
	00		 je	 $LN88@LoadString
  000b0	80 f2 ed	 xor	 dl, -19			; ffffffedH
  000b3	88 55 f0	 mov	 BYTE PTR __k$[ebp+8], dl
  000b6	8a 50 09	 mov	 dl, BYTE PTR [eax+9]
  000b9	84 d2		 test	 dl, dl
  000bb	0f 84 be 00 00
	00		 je	 $LN87@LoadString
  000c1	80 f2 ec	 xor	 dl, -20			; ffffffecH
  000c4	88 55 f1	 mov	 BYTE PTR __k$[ebp+9], dl
  000c7	8a 50 0a	 mov	 dl, BYTE PTR [eax+10]
  000ca	84 d2		 test	 dl, dl
  000cc	0f 84 a8 00 00
	00		 je	 $LN86@LoadString
  000d2	32 d1		 xor	 dl, cl
  000d4	88 55 f2	 mov	 BYTE PTR __k$[ebp+10], dl
  000d7	8a 50 0b	 mov	 dl, BYTE PTR [eax+11]
  000da	84 d2		 test	 dl, dl
  000dc	0f 84 92 00 00
	00		 je	 $LN85@LoadString
  000e2	80 f2 ea	 xor	 dl, -22			; ffffffeaH
  000e5	88 55 f3	 mov	 BYTE PTR __k$[ebp+11], dl
  000e8	8a 50 0c	 mov	 dl, BYTE PTR [eax+12]
  000eb	84 d2		 test	 dl, dl
  000ed	74 7f		 je	 SHORT $LN84@LoadString
  000ef	80 f2 ed	 xor	 dl, -19			; ffffffedH
  000f2	88 55 f4	 mov	 BYTE PTR __k$[ebp+12], dl
  000f5	8a 50 0d	 mov	 dl, BYTE PTR [eax+13]
  000f8	84 d2		 test	 dl, dl
  000fa	74 6c		 je	 SHORT $LN83@LoadString
  000fc	80 f2 ec	 xor	 dl, -20			; ffffffecH
  000ff	88 55 f5	 mov	 BYTE PTR __k$[ebp+13], dl
  00102	8a 50 0e	 mov	 dl, BYTE PTR [eax+14]
  00105	84 d2		 test	 dl, dl
  00107	74 5a		 je	 SHORT $LN82@LoadString
  00109	32 d1		 xor	 dl, cl
  0010b	80 78 0f 00	 cmp	 BYTE PTR [eax+15], 0
  0010f	88 55 f6	 mov	 BYTE PTR __k$[ebp+14], dl
  00112	0f 84 a0 00 00
	00		 je	 $LN111@LoadString
  00118	8a 50 10	 mov	 dl, BYTE PTR [eax+16]
  0011b	84 d2		 test	 dl, dl
  0011d	74 3e		 je	 SHORT $LN80@LoadString
  0011f	80 f2 ed	 xor	 dl, -19			; ffffffedH
  00122	88 55 f8	 mov	 BYTE PTR __k$[ebp+16], dl
  00125	8a 50 11	 mov	 dl, BYTE PTR [eax+17]
  00128	84 d2		 test	 dl, dl
  0012a	74 2b		 je	 SHORT $LN79@LoadString
  0012c	80 f2 ec	 xor	 dl, -20			; ffffffecH
  0012f	88 55 f9	 mov	 BYTE PTR __k$[ebp+17], dl
  00132	8a 50 12	 mov	 dl, BYTE PTR [eax+18]
  00135	84 d2		 test	 dl, dl
  00137	74 19		 je	 SHORT $LN78@LoadString
  00139	8a 40 13	 mov	 al, BYTE PTR [eax+19]
  0013c	32 d1		 xor	 dl, cl
  0013e	88 55 fa	 mov	 BYTE PTR __k$[ebp+18], dl
  00141	84 c0		 test	 al, al
  00143	74 07		 je	 SHORT $LN77@LoadString
  00145	34 ea		 xor	 al, -22			; ffffffeaH
  00147	88 45 fb	 mov	 BYTE PTR __k$[ebp+19], al
  0014a	eb 6c		 jmp	 SHORT $LN111@LoadString
$LN77@LoadString:
  0014c	c6 45 fb ea	 mov	 BYTE PTR __k$[ebp+19], -22 ; ffffffeaH
  00150	eb 66		 jmp	 SHORT $LN111@LoadString
$LN78@LoadString:
  00152	88 4d fa	 mov	 BYTE PTR __k$[ebp+18], cl
  00155	eb 61		 jmp	 SHORT $LN111@LoadString
$LN79@LoadString:
  00157	c6 45 f9 ec	 mov	 BYTE PTR __k$[ebp+17], -20 ; ffffffecH
  0015b	eb 5b		 jmp	 SHORT $LN111@LoadString
$LN80@LoadString:
  0015d	c6 45 f8 ed	 mov	 BYTE PTR __k$[ebp+16], -19 ; ffffffedH
  00161	eb 55		 jmp	 SHORT $LN111@LoadString
$LN82@LoadString:
  00163	88 4d f6	 mov	 BYTE PTR __k$[ebp+14], cl
  00166	eb 50		 jmp	 SHORT $LN111@LoadString
$LN83@LoadString:
  00168	c6 45 f5 ec	 mov	 BYTE PTR __k$[ebp+13], -20 ; ffffffecH
  0016c	eb 4a		 jmp	 SHORT $LN111@LoadString
$LN84@LoadString:
  0016e	c6 45 f4 ed	 mov	 BYTE PTR __k$[ebp+12], -19 ; ffffffedH
  00172	eb 44		 jmp	 SHORT $LN111@LoadString
$LN85@LoadString:
  00174	c6 45 f3 ea	 mov	 BYTE PTR __k$[ebp+11], -22 ; ffffffeaH
  00178	eb 3e		 jmp	 SHORT $LN111@LoadString
$LN86@LoadString:
  0017a	88 4d f2	 mov	 BYTE PTR __k$[ebp+10], cl
  0017d	eb 39		 jmp	 SHORT $LN111@LoadString
$LN87@LoadString:
  0017f	c6 45 f1 ec	 mov	 BYTE PTR __k$[ebp+9], -20 ; ffffffecH
  00183	eb 33		 jmp	 SHORT $LN111@LoadString
$LN88@LoadString:
  00185	c6 45 f0 ed	 mov	 BYTE PTR __k$[ebp+8], -19 ; ffffffedH
  00189	eb 2d		 jmp	 SHORT $LN111@LoadString
$LN89@LoadString:
  0018b	c6 45 ef ea	 mov	 BYTE PTR __k$[ebp+7], -22 ; ffffffeaH
  0018f	eb 27		 jmp	 SHORT $LN111@LoadString
$LN90@LoadString:
  00191	88 4d ee	 mov	 BYTE PTR __k$[ebp+6], cl
  00194	eb 22		 jmp	 SHORT $LN111@LoadString
$LN91@LoadString:
  00196	c6 45 ed ec	 mov	 BYTE PTR __k$[ebp+5], -20 ; ffffffecH
  0019a	eb 1c		 jmp	 SHORT $LN111@LoadString
$LN92@LoadString:
  0019c	c6 45 ec ed	 mov	 BYTE PTR __k$[ebp+4], -19 ; ffffffedH
  001a0	eb 16		 jmp	 SHORT $LN111@LoadString
$LN93@LoadString:
  001a2	c6 45 eb ea	 mov	 BYTE PTR __k$[ebp+3], -22 ; ffffffeaH
  001a6	eb 10		 jmp	 SHORT $LN111@LoadString
$LN94@LoadString:
  001a8	c6 45 ea eb	 mov	 BYTE PTR __k$[ebp+2], -21 ; ffffffebH
  001ac	eb 0a		 jmp	 SHORT $LN111@LoadString
$LN95@LoadString:
  001ae	c6 45 e9 ec	 mov	 BYTE PTR __k$[ebp+1], -20 ; ffffffecH
  001b2	eb 04		 jmp	 SHORT $LN111@LoadString
$LN96@LoadString:
  001b4	c6 45 e8 ed	 mov	 BYTE PTR __k$[ebp], -19	; ffffffedH
$LN111@LoadString:
  001b8	6a 03		 push	 3
  001ba	8d 45 e8	 lea	 eax, DWORD PTR __k$[ebp]
  001bd	c6 45 f7 00	 mov	 BYTE PTR __k$[ebp+15], 0
  001c1	5a		 pop	 edx
$LL104@LoadString:
  001c2	81 30 ed ec eb
	ea		 xor	 DWORD PTR [eax], -353637139 ; eaebecedH
  001c8	83 c0 04	 add	 eax, 4
  001cb	4a		 dec	 edx
  001cc	75 f4		 jne	 SHORT $LL104@LoadString
  001ce	6a 0c		 push	 12			; 0000000cH
  001d0	58		 pop	 eax
$LL101@LoadString:
  001d1	8b c8		 mov	 ecx, eax
  001d3	81 e1 03 00 00
	80		 and	 ecx, -2147483645	; 80000003H
  001d9	79 05		 jns	 SHORT $LN112@LoadString
  001db	49		 dec	 ecx
  001dc	83 c9 fc	 or	 ecx, -4			; fffffffcH
  001df	41		 inc	 ecx
$LN112@LoadString:
  001e0	b2 ed		 mov	 dl, -19			; ffffffedH
  001e2	2a d1		 sub	 dl, cl
  001e4	30 54 05 e8	 xor	 BYTE PTR __k$[ebp+eax], dl
  001e8	40		 inc	 eax
  001e9	83 f8 0f	 cmp	 eax, 15			; 0000000fH
  001ec	7c e3		 jl	 SHORT $LL101@LoadString

; 163  : 		LoadString(_k, d, b, i);

  001ee	ff 75 14	 push	 DWORD PTR _i$[ebp]
  001f1	8b 4d e4	 mov	 ecx, DWORD PTR _this$GSCopy$[ebp]
  001f4	57		 push	 edi
  001f5	56		 push	 esi
  001f6	8d 45 e8	 lea	 eax, DWORD PTR __k$[ebp]
  001f9	50		 push	 eax
  001fa	ff 15 00 00 00
	00		 call	 DWORD PTR __imp_?LoadStringA@ioINILoader@@QAEXPBD0PADH@Z

; 164  : 	}

  00200	8b 4d fc	 mov	 ecx, DWORD PTR __$ArrayPad$[ebp]
  00203	5f		 pop	 edi
  00204	33 cd		 xor	 ecx, ebp
  00206	5e		 pop	 esi
  00207	e8 00 00 00 00	 call	 @__security_check_cookie@4
  0020c	c9		 leave
  0020d	c2 10 00	 ret	 16			; 00000010H
??$LoadString_e@$0BA@@ioINILoader@@QAEXAAY0BA@$$CBDAAY00$$CBDPADH@Z ENDP ; ioINILoader::LoadString_e<16>
_TEXT	ENDS
PUBLIC	_this$GSCopy$
PUBLIC	__$ArrayPad$
PUBLIC	??$LoadString_e@$0BB@@ioINILoader@@QAEXAAY0BB@$$CBDAAY00$$CBDPADH@Z ; ioINILoader::LoadString_e<17>
; Function compile flags: /Ogsp
;	COMDAT ??$LoadString_e@$0BB@@ioINILoader@@QAEXAAY0BB@$$CBDAAY00$$CBDPADH@Z
_TEXT	SEGMENT
_this$GSCopy$ = -32					; size = 4
__k$ = -28						; size = 17
__$ArrayPad$ = -4					; size = 4
_k$ = 8							; size = 4
_d$ = 12						; size = 4
_b$ = 16						; size = 4
_i$ = 20						; size = 4
??$LoadString_e@$0BB@@ioINILoader@@QAEXAAY0BB@$$CBDAAY00$$CBDPADH@Z PROC ; ioINILoader::LoadString_e<17>, COMDAT
; _this$ = ecx

; 161  : 	{

  00000	55		 push	 ebp
  00001	8b ec		 mov	 ebp, esp
  00003	83 ec 20	 sub	 esp, 32			; 00000020H
  00006	a1 00 00 00 00	 mov	 eax, DWORD PTR ___security_cookie
  0000b	33 c5		 xor	 eax, ebp
  0000d	89 45 fc	 mov	 DWORD PTR __$ArrayPad$[ebp], eax
  00010	8b 45 08	 mov	 eax, DWORD PTR _k$[ebp]

; 162  : 		_ENCSTR(k, _k);

  00013	8a 10		 mov	 dl, BYTE PTR [eax]
  00015	56		 push	 esi
  00016	8b 75 0c	 mov	 esi, DWORD PTR _d$[ebp]
  00019	57		 push	 edi
  0001a	8b 7d 10	 mov	 edi, DWORD PTR _b$[ebp]
  0001d	89 4d e0	 mov	 DWORD PTR _this$GSCopy$[ebp], ecx
  00020	84 d2		 test	 dl, dl
  00022	0f 84 a7 01 00
	00		 je	 $LN96@LoadString@2
  00028	80 f2 ed	 xor	 dl, -19			; ffffffedH
  0002b	88 55 e4	 mov	 BYTE PTR __k$[ebp], dl
  0002e	8a 50 01	 mov	 dl, BYTE PTR [eax+1]
  00031	84 d2		 test	 dl, dl
  00033	0f 84 90 01 00
	00		 je	 $LN95@LoadString@2
  00039	b1 ec		 mov	 cl, -20			; ffffffecH
  0003b	32 d1		 xor	 dl, cl
  0003d	88 55 e5	 mov	 BYTE PTR __k$[ebp+1], dl
  00040	8a 50 02	 mov	 dl, BYTE PTR [eax+2]
  00043	84 d2		 test	 dl, dl
  00045	0f 84 78 01 00
	00		 je	 $LN94@LoadString@2
  0004b	80 f2 eb	 xor	 dl, -21			; ffffffebH
  0004e	88 55 e6	 mov	 BYTE PTR __k$[ebp+2], dl
  00051	8a 50 03	 mov	 dl, BYTE PTR [eax+3]
  00054	84 d2		 test	 dl, dl
  00056	0f 84 61 01 00
	00		 je	 $LN93@LoadString@2
  0005c	80 f2 ea	 xor	 dl, -22			; ffffffeaH
  0005f	88 55 e7	 mov	 BYTE PTR __k$[ebp+3], dl
  00062	8a 50 04	 mov	 dl, BYTE PTR [eax+4]
  00065	84 d2		 test	 dl, dl
  00067	0f 84 4a 01 00
	00		 je	 $LN92@LoadString@2
  0006d	80 f2 ed	 xor	 dl, -19			; ffffffedH
  00070	88 55 e8	 mov	 BYTE PTR __k$[ebp+4], dl
  00073	8a 50 05	 mov	 dl, BYTE PTR [eax+5]
  00076	84 d2		 test	 dl, dl
  00078	0f 84 34 01 00
	00		 je	 $LN91@LoadString@2
  0007e	32 d1		 xor	 dl, cl
  00080	88 55 e9	 mov	 BYTE PTR __k$[ebp+5], dl
  00083	8a 50 06	 mov	 dl, BYTE PTR [eax+6]
  00086	84 d2		 test	 dl, dl
  00088	0f 84 1e 01 00
	00		 je	 $LN90@LoadString@2
  0008e	80 f2 eb	 xor	 dl, -21			; ffffffebH
  00091	88 55 ea	 mov	 BYTE PTR __k$[ebp+6], dl
  00094	8a 50 07	 mov	 dl, BYTE PTR [eax+7]
  00097	84 d2		 test	 dl, dl
  00099	0f 84 07 01 00
	00		 je	 $LN89@LoadString@2
  0009f	80 f2 ea	 xor	 dl, -22			; ffffffeaH
  000a2	88 55 eb	 mov	 BYTE PTR __k$[ebp+7], dl
  000a5	8a 50 08	 mov	 dl, BYTE PTR [eax+8]
  000a8	84 d2		 test	 dl, dl
  000aa	0f 84 f0 00 00
	00		 je	 $LN88@LoadString@2
  000b0	80 f2 ed	 xor	 dl, -19			; ffffffedH
  000b3	88 55 ec	 mov	 BYTE PTR __k$[ebp+8], dl
  000b6	8a 50 09	 mov	 dl, BYTE PTR [eax+9]
  000b9	84 d2		 test	 dl, dl
  000bb	0f 84 da 00 00
	00		 je	 $LN87@LoadString@2
  000c1	32 d1		 xor	 dl, cl
  000c3	88 55 ed	 mov	 BYTE PTR __k$[ebp+9], dl
  000c6	8a 50 0a	 mov	 dl, BYTE PTR [eax+10]
  000c9	84 d2		 test	 dl, dl
  000cb	0f 84 c4 00 00
	00		 je	 $LN86@LoadString@2
  000d1	80 f2 eb	 xor	 dl, -21			; ffffffebH
  000d4	88 55 ee	 mov	 BYTE PTR __k$[ebp+10], dl
  000d7	8a 50 0b	 mov	 dl, BYTE PTR [eax+11]
  000da	84 d2		 test	 dl, dl
  000dc	0f 84 ad 00 00
	00		 je	 $LN85@LoadString@2
  000e2	80 f2 ea	 xor	 dl, -22			; ffffffeaH
  000e5	88 55 ef	 mov	 BYTE PTR __k$[ebp+11], dl
  000e8	8a 50 0c	 mov	 dl, BYTE PTR [eax+12]
  000eb	84 d2		 test	 dl, dl
  000ed	0f 84 96 00 00
	00		 je	 $LN84@LoadString@2
  000f3	80 f2 ed	 xor	 dl, -19			; ffffffedH
  000f6	88 55 f0	 mov	 BYTE PTR __k$[ebp+12], dl
  000f9	8a 50 0d	 mov	 dl, BYTE PTR [eax+13]
  000fc	84 d2		 test	 dl, dl
  000fe	0f 84 80 00 00
	00		 je	 $LN83@LoadString@2
  00104	32 d1		 xor	 dl, cl
  00106	88 55 f1	 mov	 BYTE PTR __k$[ebp+13], dl
  00109	8a 50 0e	 mov	 dl, BYTE PTR [eax+14]
  0010c	84 d2		 test	 dl, dl
  0010e	74 6e		 je	 SHORT $LN82@LoadString@2
  00110	80 f2 eb	 xor	 dl, -21			; ffffffebH
  00113	88 55 f2	 mov	 BYTE PTR __k$[ebp+14], dl
  00116	8a 50 0f	 mov	 dl, BYTE PTR [eax+15]
  00119	84 d2		 test	 dl, dl
  0011b	74 5b		 je	 SHORT $LN81@LoadString@2
  0011d	80 f2 ea	 xor	 dl, -22			; ffffffeaH
  00120	80 78 10 00	 cmp	 BYTE PTR [eax+16], 0
  00124	88 55 f3	 mov	 BYTE PTR __k$[ebp+15], dl
  00127	0f 84 a6 00 00
	00		 je	 $LN111@LoadString@2
  0012d	8a 50 11	 mov	 dl, BYTE PTR [eax+17]
  00130	84 d2		 test	 dl, dl
  00132	74 3f		 je	 SHORT $LN79@LoadString@2
  00134	32 d1		 xor	 dl, cl
  00136	88 55 f5	 mov	 BYTE PTR __k$[ebp+17], dl
  00139	8a 50 12	 mov	 dl, BYTE PTR [eax+18]
  0013c	84 d2		 test	 dl, dl
  0013e	74 2d		 je	 SHORT $LN78@LoadString@2
  00140	80 f2 eb	 xor	 dl, -21			; ffffffebH
  00143	88 55 f6	 mov	 BYTE PTR __k$[ebp+18], dl
  00146	8a 50 13	 mov	 dl, BYTE PTR [eax+19]
  00149	84 d2		 test	 dl, dl
  0014b	74 1a		 je	 SHORT $LN77@LoadString@2
  0014d	8a 40 14	 mov	 al, BYTE PTR [eax+20]
  00150	80 f2 ea	 xor	 dl, -22			; ffffffeaH
  00153	88 55 f7	 mov	 BYTE PTR __k$[ebp+19], dl
  00156	84 c0		 test	 al, al
  00158	74 07		 je	 SHORT $LN76@LoadString@2
  0015a	34 ed		 xor	 al, -19			; ffffffedH
  0015c	88 45 f8	 mov	 BYTE PTR __k$[ebp+20], al
  0015f	eb 72		 jmp	 SHORT $LN111@LoadString@2
$LN76@LoadString@2:
  00161	c6 45 f8 ed	 mov	 BYTE PTR __k$[ebp+20], -19 ; ffffffedH
  00165	eb 6c		 jmp	 SHORT $LN111@LoadString@2
$LN77@LoadString@2:
  00167	c6 45 f7 ea	 mov	 BYTE PTR __k$[ebp+19], -22 ; ffffffeaH
  0016b	eb 66		 jmp	 SHORT $LN111@LoadString@2
$LN78@LoadString@2:
  0016d	c6 45 f6 eb	 mov	 BYTE PTR __k$[ebp+18], -21 ; ffffffebH
  00171	eb 60		 jmp	 SHORT $LN111@LoadString@2
$LN79@LoadString@2:
  00173	88 4d f5	 mov	 BYTE PTR __k$[ebp+17], cl
  00176	eb 5b		 jmp	 SHORT $LN111@LoadString@2
$LN81@LoadString@2:
  00178	c6 45 f3 ea	 mov	 BYTE PTR __k$[ebp+15], -22 ; ffffffeaH
  0017c	eb 55		 jmp	 SHORT $LN111@LoadString@2
$LN82@LoadString@2:
  0017e	c6 45 f2 eb	 mov	 BYTE PTR __k$[ebp+14], -21 ; ffffffebH
  00182	eb 4f		 jmp	 SHORT $LN111@LoadString@2
$LN83@LoadString@2:
  00184	88 4d f1	 mov	 BYTE PTR __k$[ebp+13], cl
  00187	eb 4a		 jmp	 SHORT $LN111@LoadString@2
$LN84@LoadString@2:
  00189	c6 45 f0 ed	 mov	 BYTE PTR __k$[ebp+12], -19 ; ffffffedH
  0018d	eb 44		 jmp	 SHORT $LN111@LoadString@2
$LN85@LoadString@2:
  0018f	c6 45 ef ea	 mov	 BYTE PTR __k$[ebp+11], -22 ; ffffffeaH
  00193	eb 3e		 jmp	 SHORT $LN111@LoadString@2
$LN86@LoadString@2:
  00195	c6 45 ee eb	 mov	 BYTE PTR __k$[ebp+10], -21 ; ffffffebH
  00199	eb 38		 jmp	 SHORT $LN111@LoadString@2
$LN87@LoadString@2:
  0019b	88 4d ed	 mov	 BYTE PTR __k$[ebp+9], cl
  0019e	eb 33		 jmp	 SHORT $LN111@LoadString@2
$LN88@LoadString@2:
  001a0	c6 45 ec ed	 mov	 BYTE PTR __k$[ebp+8], -19 ; ffffffedH
  001a4	eb 2d		 jmp	 SHORT $LN111@LoadString@2
$LN89@LoadString@2:
  001a6	c6 45 eb ea	 mov	 BYTE PTR __k$[ebp+7], -22 ; ffffffeaH
  001aa	eb 27		 jmp	 SHORT $LN111@LoadString@2
$LN90@LoadString@2:
  001ac	c6 45 ea eb	 mov	 BYTE PTR __k$[ebp+6], -21 ; ffffffebH
  001b0	eb 21		 jmp	 SHORT $LN111@LoadString@2
$LN91@LoadString@2:
  001b2	88 4d e9	 mov	 BYTE PTR __k$[ebp+5], cl
  001b5	eb 1c		 jmp	 SHORT $LN111@LoadString@2
$LN92@LoadString@2:
  001b7	c6 45 e8 ed	 mov	 BYTE PTR __k$[ebp+4], -19 ; ffffffedH
  001bb	eb 16		 jmp	 SHORT $LN111@LoadString@2
$LN93@LoadString@2:
  001bd	c6 45 e7 ea	 mov	 BYTE PTR __k$[ebp+3], -22 ; ffffffeaH
  001c1	eb 10		 jmp	 SHORT $LN111@LoadString@2
$LN94@LoadString@2:
  001c3	c6 45 e6 eb	 mov	 BYTE PTR __k$[ebp+2], -21 ; ffffffebH
  001c7	eb 0a		 jmp	 SHORT $LN111@LoadString@2
$LN95@LoadString@2:
  001c9	c6 45 e5 ec	 mov	 BYTE PTR __k$[ebp+1], -20 ; ffffffecH
  001cd	eb 04		 jmp	 SHORT $LN111@LoadString@2
$LN96@LoadString@2:
  001cf	c6 45 e4 ed	 mov	 BYTE PTR __k$[ebp], -19	; ffffffedH
$LN111@LoadString@2:
  001d3	6a 04		 push	 4
  001d5	8d 45 e4	 lea	 eax, DWORD PTR __k$[ebp]
  001d8	c6 45 f4 00	 mov	 BYTE PTR __k$[ebp+16], 0
  001dc	5a		 pop	 edx
$LL104@LoadString@2:
  001dd	81 30 ed ec eb
	ea		 xor	 DWORD PTR [eax], -353637139 ; eaebecedH
  001e3	83 c0 04	 add	 eax, 4
  001e6	4a		 dec	 edx
  001e7	75 f4		 jne	 SHORT $LL104@LoadString@2

; 163  : 		LoadString(_k, d, b, i);

  001e9	ff 75 14	 push	 DWORD PTR _i$[ebp]
  001ec	8b 4d e0	 mov	 ecx, DWORD PTR _this$GSCopy$[ebp]
  001ef	57		 push	 edi
  001f0	56		 push	 esi
  001f1	8d 45 e4	 lea	 eax, DWORD PTR __k$[ebp]
  001f4	50		 push	 eax
  001f5	ff 15 00 00 00
	00		 call	 DWORD PTR __imp_?LoadStringA@ioINILoader@@QAEXPBD0PADH@Z

; 164  : 	}

  001fb	8b 4d fc	 mov	 ecx, DWORD PTR __$ArrayPad$[ebp]
  001fe	5f		 pop	 edi
  001ff	33 cd		 xor	 ecx, ebp
  00201	5e		 pop	 esi
  00202	e8 00 00 00 00	 call	 @__security_check_cookie@4
  00207	c9		 leave
  00208	c2 10 00	 ret	 16			; 00000010H
??$LoadString_e@$0BB@@ioINILoader@@QAEXAAY0BB@$$CBDAAY00$$CBDPADH@Z ENDP ; ioINILoader::LoadString_e<17>
_TEXT	ENDS
PUBLIC	_this$GSCopy$
PUBLIC	__$ArrayPad$
PUBLIC	??$LoadString_e@$0BD@@ioINILoader@@QAEXAAY0BD@$$CBDAAY00$$CBDPADH@Z ; ioINILoader::LoadString_e<19>
; Function compile flags: /Ogsp
;	COMDAT ??$LoadString_e@$0BD@@ioINILoader@@QAEXAAY0BD@$$CBDAAY00$$CBDPADH@Z
_TEXT	SEGMENT
_this$GSCopy$ = -32					; size = 4
__k$ = -28						; size = 19
__$ArrayPad$ = -4					; size = 4
_k$ = 8							; size = 4
_d$ = 12						; size = 4
_b$ = 16						; size = 4
_i$ = 20						; size = 4
??$LoadString_e@$0BD@@ioINILoader@@QAEXAAY0BD@$$CBDAAY00$$CBDPADH@Z PROC ; ioINILoader::LoadString_e<19>, COMDAT
; _this$ = ecx

; 161  : 	{

  00000	55		 push	 ebp
  00001	8b ec		 mov	 ebp, esp
  00003	83 ec 20	 sub	 esp, 32			; 00000020H
  00006	a1 00 00 00 00	 mov	 eax, DWORD PTR ___security_cookie
  0000b	33 c5		 xor	 eax, ebp
  0000d	89 45 fc	 mov	 DWORD PTR __$ArrayPad$[ebp], eax
  00010	8b 45 08	 mov	 eax, DWORD PTR _k$[ebp]

; 162  : 		_ENCSTR(k, _k);

  00013	8a 10		 mov	 dl, BYTE PTR [eax]
  00015	56		 push	 esi
  00016	8b 75 0c	 mov	 esi, DWORD PTR _d$[ebp]
  00019	57		 push	 edi
  0001a	8b 7d 10	 mov	 edi, DWORD PTR _b$[ebp]
  0001d	89 4d e0	 mov	 DWORD PTR _this$GSCopy$[ebp], ecx
  00020	84 d2		 test	 dl, dl
  00022	0f 84 cf 01 00
	00		 je	 $LN96@LoadString@3
  00028	80 f2 ed	 xor	 dl, -19			; ffffffedH
  0002b	88 55 e4	 mov	 BYTE PTR __k$[ebp], dl
  0002e	8a 50 01	 mov	 dl, BYTE PTR [eax+1]
  00031	84 d2		 test	 dl, dl
  00033	0f 84 b8 01 00
	00		 je	 $LN95@LoadString@3
  00039	b1 ec		 mov	 cl, -20			; ffffffecH
  0003b	32 d1		 xor	 dl, cl
  0003d	88 55 e5	 mov	 BYTE PTR __k$[ebp+1], dl
  00040	8a 50 02	 mov	 dl, BYTE PTR [eax+2]
  00043	84 d2		 test	 dl, dl
  00045	0f 84 a0 01 00
	00		 je	 $LN94@LoadString@3
  0004b	80 f2 eb	 xor	 dl, -21			; ffffffebH
  0004e	88 55 e6	 mov	 BYTE PTR __k$[ebp+2], dl
  00051	8a 50 03	 mov	 dl, BYTE PTR [eax+3]
  00054	84 d2		 test	 dl, dl
  00056	0f 84 89 01 00
	00		 je	 $LN93@LoadString@3
  0005c	80 f2 ea	 xor	 dl, -22			; ffffffeaH
  0005f	88 55 e7	 mov	 BYTE PTR __k$[ebp+3], dl
  00062	8a 50 04	 mov	 dl, BYTE PTR [eax+4]
  00065	84 d2		 test	 dl, dl
  00067	0f 84 72 01 00
	00		 je	 $LN92@LoadString@3
  0006d	80 f2 ed	 xor	 dl, -19			; ffffffedH
  00070	88 55 e8	 mov	 BYTE PTR __k$[ebp+4], dl
  00073	8a 50 05	 mov	 dl, BYTE PTR [eax+5]
  00076	84 d2		 test	 dl, dl
  00078	0f 84 5c 01 00
	00		 je	 $LN91@LoadString@3
  0007e	32 d1		 xor	 dl, cl
  00080	88 55 e9	 mov	 BYTE PTR __k$[ebp+5], dl
  00083	8a 50 06	 mov	 dl, BYTE PTR [eax+6]
  00086	84 d2		 test	 dl, dl
  00088	0f 84 46 01 00
	00		 je	 $LN90@LoadString@3
  0008e	80 f2 eb	 xor	 dl, -21			; ffffffebH
  00091	88 55 ea	 mov	 BYTE PTR __k$[ebp+6], dl
  00094	8a 50 07	 mov	 dl, BYTE PTR [eax+7]
  00097	84 d2		 test	 dl, dl
  00099	0f 84 2f 01 00
	00		 je	 $LN89@LoadString@3
  0009f	80 f2 ea	 xor	 dl, -22			; ffffffeaH
  000a2	88 55 eb	 mov	 BYTE PTR __k$[ebp+7], dl
  000a5	8a 50 08	 mov	 dl, BYTE PTR [eax+8]
  000a8	84 d2		 test	 dl, dl
  000aa	0f 84 18 01 00
	00		 je	 $LN88@LoadString@3
  000b0	80 f2 ed	 xor	 dl, -19			; ffffffedH
  000b3	88 55 ec	 mov	 BYTE PTR __k$[ebp+8], dl
  000b6	8a 50 09	 mov	 dl, BYTE PTR [eax+9]
  000b9	84 d2		 test	 dl, dl
  000bb	0f 84 02 01 00
	00		 je	 $LN87@LoadString@3
  000c1	32 d1		 xor	 dl, cl
  000c3	88 55 ed	 mov	 BYTE PTR __k$[ebp+9], dl
  000c6	8a 50 0a	 mov	 dl, BYTE PTR [eax+10]
  000c9	84 d2		 test	 dl, dl
  000cb	0f 84 ec 00 00
	00		 je	 $LN86@LoadString@3
  000d1	80 f2 eb	 xor	 dl, -21			; ffffffebH
  000d4	88 55 ee	 mov	 BYTE PTR __k$[ebp+10], dl
  000d7	8a 50 0b	 mov	 dl, BYTE PTR [eax+11]
  000da	84 d2		 test	 dl, dl
  000dc	0f 84 d5 00 00
	00		 je	 $LN85@LoadString@3
  000e2	80 f2 ea	 xor	 dl, -22			; ffffffeaH
  000e5	88 55 ef	 mov	 BYTE PTR __k$[ebp+11], dl
  000e8	8a 50 0c	 mov	 dl, BYTE PTR [eax+12]
  000eb	84 d2		 test	 dl, dl
  000ed	0f 84 be 00 00
	00		 je	 $LN84@LoadString@3
  000f3	80 f2 ed	 xor	 dl, -19			; ffffffedH
  000f6	88 55 f0	 mov	 BYTE PTR __k$[ebp+12], dl
  000f9	8a 50 0d	 mov	 dl, BYTE PTR [eax+13]
  000fc	84 d2		 test	 dl, dl
  000fe	0f 84 a8 00 00
	00		 je	 $LN83@LoadString@3
  00104	32 d1		 xor	 dl, cl
  00106	88 55 f1	 mov	 BYTE PTR __k$[ebp+13], dl
  00109	8a 50 0e	 mov	 dl, BYTE PTR [eax+14]
  0010c	84 d2		 test	 dl, dl
  0010e	0f 84 92 00 00
	00		 je	 $LN82@LoadString@3
  00114	80 f2 eb	 xor	 dl, -21			; ffffffebH
  00117	88 55 f2	 mov	 BYTE PTR __k$[ebp+14], dl
  0011a	8a 50 0f	 mov	 dl, BYTE PTR [eax+15]
  0011d	84 d2		 test	 dl, dl
  0011f	74 7f		 je	 SHORT $LN81@LoadString@3
  00121	80 f2 ea	 xor	 dl, -22			; ffffffeaH
  00124	88 55 f3	 mov	 BYTE PTR __k$[ebp+15], dl
  00127	8a 50 10	 mov	 dl, BYTE PTR [eax+16]
  0012a	84 d2		 test	 dl, dl
  0012c	74 6c		 je	 SHORT $LN80@LoadString@3
  0012e	80 f2 ed	 xor	 dl, -19			; ffffffedH
  00131	88 55 f4	 mov	 BYTE PTR __k$[ebp+16], dl
  00134	8a 50 11	 mov	 dl, BYTE PTR [eax+17]
  00137	84 d2		 test	 dl, dl
  00139	74 5a		 je	 SHORT $LN79@LoadString@3
  0013b	32 d1		 xor	 dl, cl
  0013d	80 78 12 00	 cmp	 BYTE PTR [eax+18], 0
  00141	88 55 f5	 mov	 BYTE PTR __k$[ebp+17], dl
  00144	0f 84 b1 00 00
	00		 je	 $LN111@LoadString@3
  0014a	8a 50 13	 mov	 dl, BYTE PTR [eax+19]
  0014d	84 d2		 test	 dl, dl
  0014f	74 3e		 je	 SHORT $LN77@LoadString@3
  00151	80 f2 ea	 xor	 dl, -22			; ffffffeaH
  00154	88 55 f7	 mov	 BYTE PTR __k$[ebp+19], dl
  00157	8a 50 14	 mov	 dl, BYTE PTR [eax+20]
  0015a	84 d2		 test	 dl, dl
  0015c	74 2b		 je	 SHORT $LN76@LoadString@3
  0015e	80 f2 ed	 xor	 dl, -19			; ffffffedH
  00161	88 55 f8	 mov	 BYTE PTR __k$[ebp+20], dl
  00164	8a 50 15	 mov	 dl, BYTE PTR [eax+21]
  00167	84 d2		 test	 dl, dl
  00169	74 19		 je	 SHORT $LN75@LoadString@3
  0016b	8a 40 16	 mov	 al, BYTE PTR [eax+22]
  0016e	32 d1		 xor	 dl, cl
  00170	88 55 f9	 mov	 BYTE PTR __k$[ebp+21], dl
  00173	84 c0		 test	 al, al
  00175	74 07		 je	 SHORT $LN74@LoadString@3
  00177	34 eb		 xor	 al, -21			; ffffffebH
  00179	88 45 fa	 mov	 BYTE PTR __k$[ebp+22], al
  0017c	eb 7d		 jmp	 SHORT $LN111@LoadString@3
$LN74@LoadString@3:
  0017e	c6 45 fa eb	 mov	 BYTE PTR __k$[ebp+22], -21 ; ffffffebH
  00182	eb 77		 jmp	 SHORT $LN111@LoadString@3
$LN75@LoadString@3:
  00184	88 4d f9	 mov	 BYTE PTR __k$[ebp+21], cl
  00187	eb 72		 jmp	 SHORT $LN111@LoadString@3
$LN76@LoadString@3:
  00189	c6 45 f8 ed	 mov	 BYTE PTR __k$[ebp+20], -19 ; ffffffedH
  0018d	eb 6c		 jmp	 SHORT $LN111@LoadString@3
$LN77@LoadString@3:
  0018f	c6 45 f7 ea	 mov	 BYTE PTR __k$[ebp+19], -22 ; ffffffeaH
  00193	eb 66		 jmp	 SHORT $LN111@LoadString@3
$LN79@LoadString@3:
  00195	88 4d f5	 mov	 BYTE PTR __k$[ebp+17], cl
  00198	eb 61		 jmp	 SHORT $LN111@LoadString@3
$LN80@LoadString@3:
  0019a	c6 45 f4 ed	 mov	 BYTE PTR __k$[ebp+16], -19 ; ffffffedH
  0019e	eb 5b		 jmp	 SHORT $LN111@LoadString@3
$LN81@LoadString@3:
  001a0	c6 45 f3 ea	 mov	 BYTE PTR __k$[ebp+15], -22 ; ffffffeaH
  001a4	eb 55		 jmp	 SHORT $LN111@LoadString@3
$LN82@LoadString@3:
  001a6	c6 45 f2 eb	 mov	 BYTE PTR __k$[ebp+14], -21 ; ffffffebH
  001aa	eb 4f		 jmp	 SHORT $LN111@LoadString@3
$LN83@LoadString@3:
  001ac	88 4d f1	 mov	 BYTE PTR __k$[ebp+13], cl
  001af	eb 4a		 jmp	 SHORT $LN111@LoadString@3
$LN84@LoadString@3:
  001b1	c6 45 f0 ed	 mov	 BYTE PTR __k$[ebp+12], -19 ; ffffffedH
  001b5	eb 44		 jmp	 SHORT $LN111@LoadString@3
$LN85@LoadString@3:
  001b7	c6 45 ef ea	 mov	 BYTE PTR __k$[ebp+11], -22 ; ffffffeaH
  001bb	eb 3e		 jmp	 SHORT $LN111@LoadString@3
$LN86@LoadString@3:
  001bd	c6 45 ee eb	 mov	 BYTE PTR __k$[ebp+10], -21 ; ffffffebH
  001c1	eb 38		 jmp	 SHORT $LN111@LoadString@3
$LN87@LoadString@3:
  001c3	88 4d ed	 mov	 BYTE PTR __k$[ebp+9], cl
  001c6	eb 33		 jmp	 SHORT $LN111@LoadString@3
$LN88@LoadString@3:
  001c8	c6 45 ec ed	 mov	 BYTE PTR __k$[ebp+8], -19 ; ffffffedH
  001cc	eb 2d		 jmp	 SHORT $LN111@LoadString@3
$LN89@LoadString@3:
  001ce	c6 45 eb ea	 mov	 BYTE PTR __k$[ebp+7], -22 ; ffffffeaH
  001d2	eb 27		 jmp	 SHORT $LN111@LoadString@3
$LN90@LoadString@3:
  001d4	c6 45 ea eb	 mov	 BYTE PTR __k$[ebp+6], -21 ; ffffffebH
  001d8	eb 21		 jmp	 SHORT $LN111@LoadString@3
$LN91@LoadString@3:
  001da	88 4d e9	 mov	 BYTE PTR __k$[ebp+5], cl
  001dd	eb 1c		 jmp	 SHORT $LN111@LoadString@3
$LN92@LoadString@3:
  001df	c6 45 e8 ed	 mov	 BYTE PTR __k$[ebp+4], -19 ; ffffffedH
  001e3	eb 16		 jmp	 SHORT $LN111@LoadString@3
$LN93@LoadString@3:
  001e5	c6 45 e7 ea	 mov	 BYTE PTR __k$[ebp+3], -22 ; ffffffeaH
  001e9	eb 10		 jmp	 SHORT $LN111@LoadString@3
$LN94@LoadString@3:
  001eb	c6 45 e6 eb	 mov	 BYTE PTR __k$[ebp+2], -21 ; ffffffebH
  001ef	eb 0a		 jmp	 SHORT $LN111@LoadString@3
$LN95@LoadString@3:
  001f1	c6 45 e5 ec	 mov	 BYTE PTR __k$[ebp+1], -20 ; ffffffecH
  001f5	eb 04		 jmp	 SHORT $LN111@LoadString@3
$LN96@LoadString@3:
  001f7	c6 45 e4 ed	 mov	 BYTE PTR __k$[ebp], -19	; ffffffedH
$LN111@LoadString@3:
  001fb	6a 04		 push	 4
  001fd	8d 45 e4	 lea	 eax, DWORD PTR __k$[ebp]
  00200	c6 45 f6 00	 mov	 BYTE PTR __k$[ebp+18], 0
  00204	5a		 pop	 edx
$LL104@LoadString@3:
  00205	81 30 ed ec eb
	ea		 xor	 DWORD PTR [eax], -353637139 ; eaebecedH
  0020b	83 c0 04	 add	 eax, 4
  0020e	4a		 dec	 edx
  0020f	75 f4		 jne	 SHORT $LL104@LoadString@3
  00211	6a 10		 push	 16			; 00000010H
  00213	58		 pop	 eax
$LL101@LoadString@3:
  00214	8b c8		 mov	 ecx, eax
  00216	81 e1 03 00 00
	80		 and	 ecx, -2147483645	; 80000003H
  0021c	79 05		 jns	 SHORT $LN112@LoadString@3
  0021e	49		 dec	 ecx
  0021f	83 c9 fc	 or	 ecx, -4			; fffffffcH
  00222	41		 inc	 ecx
$LN112@LoadString@3:
  00223	b2 ed		 mov	 dl, -19			; ffffffedH
  00225	2a d1		 sub	 dl, cl
  00227	30 54 05 e4	 xor	 BYTE PTR __k$[ebp+eax], dl
  0022b	40		 inc	 eax
  0022c	83 f8 12	 cmp	 eax, 18			; 00000012H
  0022f	7c e3		 jl	 SHORT $LL101@LoadString@3

; 163  : 		LoadString(_k, d, b, i);

  00231	ff 75 14	 push	 DWORD PTR _i$[ebp]
  00234	8b 4d e0	 mov	 ecx, DWORD PTR _this$GSCopy$[ebp]
  00237	57		 push	 edi
  00238	56		 push	 esi
  00239	8d 45 e4	 lea	 eax, DWORD PTR __k$[ebp]
  0023c	50		 push	 eax
  0023d	ff 15 00 00 00
	00		 call	 DWORD PTR __imp_?LoadStringA@ioINILoader@@QAEXPBD0PADH@Z

; 164  : 	}

  00243	8b 4d fc	 mov	 ecx, DWORD PTR __$ArrayPad$[ebp]
  00246	5f		 pop	 edi
  00247	33 cd		 xor	 ecx, ebp
  00249	5e		 pop	 esi
  0024a	e8 00 00 00 00	 call	 @__security_check_cookie@4
  0024f	c9		 leave
  00250	c2 10 00	 ret	 16			; 00000010H
??$LoadString_e@$0BD@@ioINILoader@@QAEXAAY0BD@$$CBDAAY00$$CBDPADH@Z ENDP ; ioINILoader::LoadString_e<19>
_TEXT	ENDS
PUBLIC	__$ArrayPad$
PUBLIC	??$LoadFloat_e@$0BC@@ioINILoader@@QAEMAAY0BC@$$CBDM@Z ; ioINILoader::LoadFloat_e<18>
EXTRN	__imp_?LoadFloat@ioINILoader@@QAEMPBDM@Z:PROC
; Function compile flags: /Ogsp
;	COMDAT ??$LoadFloat_e@$0BC@@ioINILoader@@QAEMAAY0BC@$$CBDM@Z
_TEXT	SEGMENT
__k$ = -28						; size = 18
__$ArrayPad$ = -4					; size = 4
_k$ = 8							; size = 4
_f$ = 12						; size = 4
??$LoadFloat_e@$0BC@@ioINILoader@@QAEMAAY0BC@$$CBDM@Z PROC ; ioINILoader::LoadFloat_e<18>, COMDAT
; _this$ = ecx

; 135  : 	{

  00000	55		 push	 ebp
  00001	8b ec		 mov	 ebp, esp
  00003	83 ec 1c	 sub	 esp, 28			; 0000001cH
  00006	a1 00 00 00 00	 mov	 eax, DWORD PTR ___security_cookie
  0000b	33 c5		 xor	 eax, ebp
  0000d	89 45 fc	 mov	 DWORD PTR __$ArrayPad$[ebp], eax
  00010	8b 45 08	 mov	 eax, DWORD PTR _k$[ebp]

; 136  : 		_ENCSTR(k, _k);

  00013	8a 10		 mov	 dl, BYTE PTR [eax]
  00015	56		 push	 esi
  00016	8b f1		 mov	 esi, ecx
  00018	84 d2		 test	 dl, dl
  0001a	0f 84 be 01 00
	00		 je	 $LN96@LoadFloat_
  00020	80 f2 ed	 xor	 dl, -19			; ffffffedH
  00023	88 55 e4	 mov	 BYTE PTR __k$[ebp], dl
  00026	8a 50 01	 mov	 dl, BYTE PTR [eax+1]
  00029	84 d2		 test	 dl, dl
  0002b	0f 84 a7 01 00
	00		 je	 $LN95@LoadFloat_
  00031	80 f2 ec	 xor	 dl, -20			; ffffffecH
  00034	88 55 e5	 mov	 BYTE PTR __k$[ebp+1], dl
  00037	8a 50 02	 mov	 dl, BYTE PTR [eax+2]
  0003a	84 d2		 test	 dl, dl
  0003c	0f 84 90 01 00
	00		 je	 $LN94@LoadFloat_
  00042	b1 eb		 mov	 cl, -21			; ffffffebH
  00044	32 d1		 xor	 dl, cl
  00046	88 55 e6	 mov	 BYTE PTR __k$[ebp+2], dl
  00049	8a 50 03	 mov	 dl, BYTE PTR [eax+3]
  0004c	84 d2		 test	 dl, dl
  0004e	0f 84 78 01 00
	00		 je	 $LN93@LoadFloat_
  00054	80 f2 ea	 xor	 dl, -22			; ffffffeaH
  00057	88 55 e7	 mov	 BYTE PTR __k$[ebp+3], dl
  0005a	8a 50 04	 mov	 dl, BYTE PTR [eax+4]
  0005d	84 d2		 test	 dl, dl
  0005f	0f 84 61 01 00
	00		 je	 $LN92@LoadFloat_
  00065	80 f2 ed	 xor	 dl, -19			; ffffffedH
  00068	88 55 e8	 mov	 BYTE PTR __k$[ebp+4], dl
  0006b	8a 50 05	 mov	 dl, BYTE PTR [eax+5]
  0006e	84 d2		 test	 dl, dl
  00070	0f 84 4a 01 00
	00		 je	 $LN91@LoadFloat_
  00076	80 f2 ec	 xor	 dl, -20			; ffffffecH
  00079	88 55 e9	 mov	 BYTE PTR __k$[ebp+5], dl
  0007c	8a 50 06	 mov	 dl, BYTE PTR [eax+6]
  0007f	84 d2		 test	 dl, dl
  00081	0f 84 34 01 00
	00		 je	 $LN90@LoadFloat_
  00087	32 d1		 xor	 dl, cl
  00089	88 55 ea	 mov	 BYTE PTR __k$[ebp+6], dl
  0008c	8a 50 07	 mov	 dl, BYTE PTR [eax+7]
  0008f	84 d2		 test	 dl, dl
  00091	0f 84 1e 01 00
	00		 je	 $LN89@LoadFloat_
  00097	80 f2 ea	 xor	 dl, -22			; ffffffeaH
  0009a	88 55 eb	 mov	 BYTE PTR __k$[ebp+7], dl
  0009d	8a 50 08	 mov	 dl, BYTE PTR [eax+8]
  000a0	84 d2		 test	 dl, dl
  000a2	0f 84 07 01 00
	00		 je	 $LN88@LoadFloat_
  000a8	80 f2 ed	 xor	 dl, -19			; ffffffedH
  000ab	88 55 ec	 mov	 BYTE PTR __k$[ebp+8], dl
  000ae	8a 50 09	 mov	 dl, BYTE PTR [eax+9]
  000b1	84 d2		 test	 dl, dl
  000b3	0f 84 f0 00 00
	00		 je	 $LN87@LoadFloat_
  000b9	80 f2 ec	 xor	 dl, -20			; ffffffecH
  000bc	88 55 ed	 mov	 BYTE PTR __k$[ebp+9], dl
  000bf	8a 50 0a	 mov	 dl, BYTE PTR [eax+10]
  000c2	84 d2		 test	 dl, dl
  000c4	0f 84 da 00 00
	00		 je	 $LN86@LoadFloat_
  000ca	32 d1		 xor	 dl, cl
  000cc	88 55 ee	 mov	 BYTE PTR __k$[ebp+10], dl
  000cf	8a 50 0b	 mov	 dl, BYTE PTR [eax+11]
  000d2	84 d2		 test	 dl, dl
  000d4	0f 84 c4 00 00
	00		 je	 $LN85@LoadFloat_
  000da	80 f2 ea	 xor	 dl, -22			; ffffffeaH
  000dd	88 55 ef	 mov	 BYTE PTR __k$[ebp+11], dl
  000e0	8a 50 0c	 mov	 dl, BYTE PTR [eax+12]
  000e3	84 d2		 test	 dl, dl
  000e5	0f 84 ad 00 00
	00		 je	 $LN84@LoadFloat_
  000eb	80 f2 ed	 xor	 dl, -19			; ffffffedH
  000ee	88 55 f0	 mov	 BYTE PTR __k$[ebp+12], dl
  000f1	8a 50 0d	 mov	 dl, BYTE PTR [eax+13]
  000f4	84 d2		 test	 dl, dl
  000f6	0f 84 96 00 00
	00		 je	 $LN83@LoadFloat_
  000fc	80 f2 ec	 xor	 dl, -20			; ffffffecH
  000ff	88 55 f1	 mov	 BYTE PTR __k$[ebp+13], dl
  00102	8a 50 0e	 mov	 dl, BYTE PTR [eax+14]
  00105	84 d2		 test	 dl, dl
  00107	0f 84 80 00 00
	00		 je	 $LN82@LoadFloat_
  0010d	32 d1		 xor	 dl, cl
  0010f	88 55 f2	 mov	 BYTE PTR __k$[ebp+14], dl
  00112	8a 50 0f	 mov	 dl, BYTE PTR [eax+15]
  00115	84 d2		 test	 dl, dl
  00117	74 6e		 je	 SHORT $LN81@LoadFloat_
  00119	80 f2 ea	 xor	 dl, -22			; ffffffeaH
  0011c	88 55 f3	 mov	 BYTE PTR __k$[ebp+15], dl
  0011f	8a 50 10	 mov	 dl, BYTE PTR [eax+16]
  00122	84 d2		 test	 dl, dl
  00124	74 5b		 je	 SHORT $LN80@LoadFloat_
  00126	80 f2 ed	 xor	 dl, -19			; ffffffedH
  00129	80 78 11 00	 cmp	 BYTE PTR [eax+17], 0
  0012d	88 55 f4	 mov	 BYTE PTR __k$[ebp+16], dl
  00130	0f 84 ac 00 00
	00		 je	 $LN1@LoadFloat_
  00136	8a 50 12	 mov	 dl, BYTE PTR [eax+18]
  00139	84 d2		 test	 dl, dl
  0013b	74 3f		 je	 SHORT $LN78@LoadFloat_
  0013d	32 d1		 xor	 dl, cl
  0013f	88 55 f6	 mov	 BYTE PTR __k$[ebp+18], dl
  00142	8a 50 13	 mov	 dl, BYTE PTR [eax+19]
  00145	84 d2		 test	 dl, dl
  00147	74 2d		 je	 SHORT $LN77@LoadFloat_
  00149	80 f2 ea	 xor	 dl, -22			; ffffffeaH
  0014c	88 55 f7	 mov	 BYTE PTR __k$[ebp+19], dl
  0014f	8a 50 14	 mov	 dl, BYTE PTR [eax+20]
  00152	84 d2		 test	 dl, dl
  00154	74 1a		 je	 SHORT $LN76@LoadFloat_
  00156	8a 40 15	 mov	 al, BYTE PTR [eax+21]
  00159	80 f2 ed	 xor	 dl, -19			; ffffffedH
  0015c	88 55 f8	 mov	 BYTE PTR __k$[ebp+20], dl
  0015f	84 c0		 test	 al, al
  00161	74 07		 je	 SHORT $LN75@LoadFloat_
  00163	34 ec		 xor	 al, -20			; ffffffecH
  00165	88 45 f9	 mov	 BYTE PTR __k$[ebp+21], al
  00168	eb 78		 jmp	 SHORT $LN1@LoadFloat_
$LN75@LoadFloat_:
  0016a	c6 45 f9 ec	 mov	 BYTE PTR __k$[ebp+21], -20 ; ffffffecH
  0016e	eb 72		 jmp	 SHORT $LN1@LoadFloat_
$LN76@LoadFloat_:
  00170	c6 45 f8 ed	 mov	 BYTE PTR __k$[ebp+20], -19 ; ffffffedH
  00174	eb 6c		 jmp	 SHORT $LN1@LoadFloat_
$LN77@LoadFloat_:
  00176	c6 45 f7 ea	 mov	 BYTE PTR __k$[ebp+19], -22 ; ffffffeaH
  0017a	eb 66		 jmp	 SHORT $LN1@LoadFloat_
$LN78@LoadFloat_:
  0017c	88 4d f6	 mov	 BYTE PTR __k$[ebp+18], cl
  0017f	eb 61		 jmp	 SHORT $LN1@LoadFloat_
$LN80@LoadFloat_:
  00181	c6 45 f4 ed	 mov	 BYTE PTR __k$[ebp+16], -19 ; ffffffedH
  00185	eb 5b		 jmp	 SHORT $LN1@LoadFloat_
$LN81@LoadFloat_:
  00187	c6 45 f3 ea	 mov	 BYTE PTR __k$[ebp+15], -22 ; ffffffeaH
  0018b	eb 55		 jmp	 SHORT $LN1@LoadFloat_
$LN82@LoadFloat_:
  0018d	88 4d f2	 mov	 BYTE PTR __k$[ebp+14], cl
  00190	eb 50		 jmp	 SHORT $LN1@LoadFloat_
$LN83@LoadFloat_:
  00192	c6 45 f1 ec	 mov	 BYTE PTR __k$[ebp+13], -20 ; ffffffecH
  00196	eb 4a		 jmp	 SHORT $LN1@LoadFloat_
$LN84@LoadFloat_:
  00198	c6 45 f0 ed	 mov	 BYTE PTR __k$[ebp+12], -19 ; ffffffedH
  0019c	eb 44		 jmp	 SHORT $LN1@LoadFloat_
$LN85@LoadFloat_:
  0019e	c6 45 ef ea	 mov	 BYTE PTR __k$[ebp+11], -22 ; ffffffeaH
  001a2	eb 3e		 jmp	 SHORT $LN1@LoadFloat_
$LN86@LoadFloat_:
  001a4	88 4d ee	 mov	 BYTE PTR __k$[ebp+10], cl
  001a7	eb 39		 jmp	 SHORT $LN1@LoadFloat_
$LN87@LoadFloat_:
  001a9	c6 45 ed ec	 mov	 BYTE PTR __k$[ebp+9], -20 ; ffffffecH
  001ad	eb 33		 jmp	 SHORT $LN1@LoadFloat_
$LN88@LoadFloat_:
  001af	c6 45 ec ed	 mov	 BYTE PTR __k$[ebp+8], -19 ; ffffffedH
  001b3	eb 2d		 jmp	 SHORT $LN1@LoadFloat_
$LN89@LoadFloat_:
  001b5	c6 45 eb ea	 mov	 BYTE PTR __k$[ebp+7], -22 ; ffffffeaH
  001b9	eb 27		 jmp	 SHORT $LN1@LoadFloat_
$LN90@LoadFloat_:
  001bb	88 4d ea	 mov	 BYTE PTR __k$[ebp+6], cl
  001be	eb 22		 jmp	 SHORT $LN1@LoadFloat_
$LN91@LoadFloat_:
  001c0	c6 45 e9 ec	 mov	 BYTE PTR __k$[ebp+5], -20 ; ffffffecH
  001c4	eb 1c		 jmp	 SHORT $LN1@LoadFloat_
$LN92@LoadFloat_:
  001c6	c6 45 e8 ed	 mov	 BYTE PTR __k$[ebp+4], -19 ; ffffffedH
  001ca	eb 16		 jmp	 SHORT $LN1@LoadFloat_
$LN93@LoadFloat_:
  001cc	c6 45 e7 ea	 mov	 BYTE PTR __k$[ebp+3], -22 ; ffffffeaH
  001d0	eb 10		 jmp	 SHORT $LN1@LoadFloat_
$LN94@LoadFloat_:
  001d2	c6 45 e6 eb	 mov	 BYTE PTR __k$[ebp+2], -21 ; ffffffebH
  001d6	eb 0a		 jmp	 SHORT $LN1@LoadFloat_
$LN95@LoadFloat_:
  001d8	c6 45 e5 ec	 mov	 BYTE PTR __k$[ebp+1], -20 ; ffffffecH
  001dc	eb 04		 jmp	 SHORT $LN1@LoadFloat_
$LN96@LoadFloat_:
  001de	c6 45 e4 ed	 mov	 BYTE PTR __k$[ebp], -19	; ffffffedH
$LN1@LoadFloat_:
  001e2	6a 04		 push	 4
  001e4	8d 45 e4	 lea	 eax, DWORD PTR __k$[ebp]
  001e7	c6 45 f5 00	 mov	 BYTE PTR __k$[ebp+17], 0
  001eb	5a		 pop	 edx
$LL104@LoadFloat_:
  001ec	81 30 ed ec eb
	ea		 xor	 DWORD PTR [eax], -353637139 ; eaebecedH
  001f2	83 c0 04	 add	 eax, 4
  001f5	4a		 dec	 edx
  001f6	75 f4		 jne	 SHORT $LL104@LoadFloat_

; 137  : 		return LoadFloat(_k, f);

  001f8	f3 0f 10 45 0c	 movss	 xmm0, DWORD PTR _f$[ebp]
  001fd	80 75 f4 ed	 xor	 BYTE PTR __k$[ebp+16], -19 ; ffffffedH
  00201	51		 push	 ecx
  00202	8d 45 e4	 lea	 eax, DWORD PTR __k$[ebp]
  00205	f3 0f 11 04 24	 movss	 DWORD PTR [esp], xmm0
  0020a	50		 push	 eax
  0020b	8b ce		 mov	 ecx, esi
  0020d	ff 15 00 00 00
	00		 call	 DWORD PTR __imp_?LoadFloat@ioINILoader@@QAEMPBDM@Z

; 138  : 	}

  00213	8b 4d fc	 mov	 ecx, DWORD PTR __$ArrayPad$[ebp]
  00216	33 cd		 xor	 ecx, ebp
  00218	5e		 pop	 esi
  00219	e8 00 00 00 00	 call	 @__security_check_cookie@4
  0021e	c9		 leave
  0021f	c2 08 00	 ret	 8
??$LoadFloat_e@$0BC@@ioINILoader@@QAEMAAY0BC@$$CBDM@Z ENDP ; ioINILoader::LoadFloat_e<18>
_TEXT	ENDS
PUBLIC	__$ArrayPad$
PUBLIC	??$LoadBool_e@$0BG@@ioINILoader@@QAE_NAAY0BG@$$CBD_N@Z ; ioINILoader::LoadBool_e<22>
EXTRN	__imp_?LoadBool@ioINILoader@@QAE_NPBD_N@Z:PROC
; Function compile flags: /Ogsp
;	COMDAT ??$LoadBool_e@$0BG@@ioINILoader@@QAE_NAAY0BG@$$CBD_N@Z
_TEXT	SEGMENT
__k$ = -32						; size = 22
__$ArrayPad$ = -4					; size = 4
_k$ = 8							; size = 4
_b$ = 12						; size = 1
??$LoadBool_e@$0BG@@ioINILoader@@QAE_NAAY0BG@$$CBD_N@Z PROC ; ioINILoader::LoadBool_e<22>, COMDAT
; _this$ = ecx

; 101  : 	{

  00000	55		 push	 ebp
  00001	8b ec		 mov	 ebp, esp
  00003	83 ec 20	 sub	 esp, 32			; 00000020H
  00006	a1 00 00 00 00	 mov	 eax, DWORD PTR ___security_cookie
  0000b	33 c5		 xor	 eax, ebp
  0000d	89 45 fc	 mov	 DWORD PTR __$ArrayPad$[ebp], eax
  00010	8b 45 08	 mov	 eax, DWORD PTR _k$[ebp]

; 102  : 		_ENCSTR(k, _k);

  00013	8a 10		 mov	 dl, BYTE PTR [eax]
  00015	53		 push	 ebx
  00016	56		 push	 esi
  00017	8b f1		 mov	 esi, ecx
  00019	84 d2		 test	 dl, dl
  0001b	0f 84 15 02 00
	00		 je	 $LN96@LoadBool_e
  00021	80 f2 ed	 xor	 dl, -19			; ffffffedH
  00024	88 55 e0	 mov	 BYTE PTR __k$[ebp], dl
  00027	8a 50 01	 mov	 dl, BYTE PTR [eax+1]
  0002a	84 d2		 test	 dl, dl
  0002c	0f 84 fe 01 00
	00		 je	 $LN95@LoadBool_e
  00032	80 f2 ec	 xor	 dl, -20			; ffffffecH
  00035	88 55 e1	 mov	 BYTE PTR __k$[ebp+1], dl
  00038	8a 50 02	 mov	 dl, BYTE PTR [eax+2]
  0003b	84 d2		 test	 dl, dl
  0003d	0f 84 e7 01 00
	00		 je	 $LN94@LoadBool_e
  00043	b1 eb		 mov	 cl, -21			; ffffffebH
  00045	32 d1		 xor	 dl, cl
  00047	88 55 e2	 mov	 BYTE PTR __k$[ebp+2], dl
  0004a	8a 50 03	 mov	 dl, BYTE PTR [eax+3]
  0004d	84 d2		 test	 dl, dl
  0004f	0f 84 cf 01 00
	00		 je	 $LN93@LoadBool_e
  00055	b3 ea		 mov	 bl, -22			; ffffffeaH
  00057	32 d3		 xor	 dl, bl
  00059	88 55 e3	 mov	 BYTE PTR __k$[ebp+3], dl
  0005c	8a 50 04	 mov	 dl, BYTE PTR [eax+4]
  0005f	84 d2		 test	 dl, dl
  00061	0f 84 b7 01 00
	00		 je	 $LN92@LoadBool_e
  00067	80 f2 ed	 xor	 dl, -19			; ffffffedH
  0006a	88 55 e4	 mov	 BYTE PTR __k$[ebp+4], dl
  0006d	8a 50 05	 mov	 dl, BYTE PTR [eax+5]
  00070	84 d2		 test	 dl, dl
  00072	0f 84 a0 01 00
	00		 je	 $LN91@LoadBool_e
  00078	80 f2 ec	 xor	 dl, -20			; ffffffecH
  0007b	88 55 e5	 mov	 BYTE PTR __k$[ebp+5], dl
  0007e	8a 50 06	 mov	 dl, BYTE PTR [eax+6]
  00081	84 d2		 test	 dl, dl
  00083	0f 84 8a 01 00
	00		 je	 $LN90@LoadBool_e
  00089	32 d1		 xor	 dl, cl
  0008b	88 55 e6	 mov	 BYTE PTR __k$[ebp+6], dl
  0008e	8a 50 07	 mov	 dl, BYTE PTR [eax+7]
  00091	84 d2		 test	 dl, dl
  00093	0f 84 75 01 00
	00		 je	 $LN89@LoadBool_e
  00099	32 d3		 xor	 dl, bl
  0009b	88 55 e7	 mov	 BYTE PTR __k$[ebp+7], dl
  0009e	8a 50 08	 mov	 dl, BYTE PTR [eax+8]
  000a1	84 d2		 test	 dl, dl
  000a3	0f 84 5f 01 00
	00		 je	 $LN88@LoadBool_e
  000a9	80 f2 ed	 xor	 dl, -19			; ffffffedH
  000ac	88 55 e8	 mov	 BYTE PTR __k$[ebp+8], dl
  000af	8a 50 09	 mov	 dl, BYTE PTR [eax+9]
  000b2	84 d2		 test	 dl, dl
  000b4	0f 84 48 01 00
	00		 je	 $LN87@LoadBool_e
  000ba	80 f2 ec	 xor	 dl, -20			; ffffffecH
  000bd	88 55 e9	 mov	 BYTE PTR __k$[ebp+9], dl
  000c0	8a 50 0a	 mov	 dl, BYTE PTR [eax+10]
  000c3	84 d2		 test	 dl, dl
  000c5	0f 84 32 01 00
	00		 je	 $LN86@LoadBool_e
  000cb	32 d1		 xor	 dl, cl
  000cd	88 55 ea	 mov	 BYTE PTR __k$[ebp+10], dl
  000d0	8a 50 0b	 mov	 dl, BYTE PTR [eax+11]
  000d3	84 d2		 test	 dl, dl
  000d5	0f 84 1d 01 00
	00		 je	 $LN85@LoadBool_e
  000db	32 d3		 xor	 dl, bl
  000dd	88 55 eb	 mov	 BYTE PTR __k$[ebp+11], dl
  000e0	8a 50 0c	 mov	 dl, BYTE PTR [eax+12]
  000e3	84 d2		 test	 dl, dl
  000e5	0f 84 07 01 00
	00		 je	 $LN84@LoadBool_e
  000eb	80 f2 ed	 xor	 dl, -19			; ffffffedH
  000ee	88 55 ec	 mov	 BYTE PTR __k$[ebp+12], dl
  000f1	8a 50 0d	 mov	 dl, BYTE PTR [eax+13]
  000f4	84 d2		 test	 dl, dl
  000f6	0f 84 f0 00 00
	00		 je	 $LN83@LoadBool_e
  000fc	80 f2 ec	 xor	 dl, -20			; ffffffecH
  000ff	88 55 ed	 mov	 BYTE PTR __k$[ebp+13], dl
  00102	8a 50 0e	 mov	 dl, BYTE PTR [eax+14]
  00105	84 d2		 test	 dl, dl
  00107	0f 84 da 00 00
	00		 je	 $LN82@LoadBool_e
  0010d	32 d1		 xor	 dl, cl
  0010f	88 55 ee	 mov	 BYTE PTR __k$[ebp+14], dl
  00112	8a 50 0f	 mov	 dl, BYTE PTR [eax+15]
  00115	84 d2		 test	 dl, dl
  00117	0f 84 c5 00 00
	00		 je	 $LN81@LoadBool_e
  0011d	32 d3		 xor	 dl, bl
  0011f	88 55 ef	 mov	 BYTE PTR __k$[ebp+15], dl
  00122	8a 50 10	 mov	 dl, BYTE PTR [eax+16]
  00125	84 d2		 test	 dl, dl
  00127	0f 84 af 00 00
	00		 je	 $LN80@LoadBool_e
  0012d	80 f2 ed	 xor	 dl, -19			; ffffffedH
  00130	88 55 f0	 mov	 BYTE PTR __k$[ebp+16], dl
  00133	8a 50 11	 mov	 dl, BYTE PTR [eax+17]
  00136	84 d2		 test	 dl, dl
  00138	0f 84 98 00 00
	00		 je	 $LN79@LoadBool_e
  0013e	80 f2 ec	 xor	 dl, -20			; ffffffecH
  00141	88 55 f1	 mov	 BYTE PTR __k$[ebp+17], dl
  00144	8a 50 12	 mov	 dl, BYTE PTR [eax+18]
  00147	84 d2		 test	 dl, dl
  00149	0f 84 82 00 00
	00		 je	 $LN78@LoadBool_e
  0014f	32 d1		 xor	 dl, cl
  00151	88 55 f2	 mov	 BYTE PTR __k$[ebp+18], dl
  00154	8a 50 13	 mov	 dl, BYTE PTR [eax+19]
  00157	84 d2		 test	 dl, dl
  00159	74 71		 je	 SHORT $LN77@LoadBool_e
  0015b	32 d3		 xor	 dl, bl
  0015d	88 55 f3	 mov	 BYTE PTR __k$[ebp+19], dl
  00160	8a 50 14	 mov	 dl, BYTE PTR [eax+20]
  00163	84 d2		 test	 dl, dl
  00165	74 5f		 je	 SHORT $LN76@LoadBool_e
  00167	80 f2 ed	 xor	 dl, -19			; ffffffedH
  0016a	80 78 15 00	 cmp	 BYTE PTR [eax+21], 0
  0016e	88 55 f4	 mov	 BYTE PTR __k$[ebp+20], dl
  00171	0f 84 c3 00 00
	00		 je	 $LN1@LoadBool_e
  00177	8a 50 16	 mov	 dl, BYTE PTR [eax+22]
  0017a	84 d2		 test	 dl, dl
  0017c	74 43		 je	 SHORT $LN74@LoadBool_e
  0017e	32 d1		 xor	 dl, cl
  00180	88 55 f6	 mov	 BYTE PTR __k$[ebp+22], dl
  00183	8a 50 17	 mov	 dl, BYTE PTR [eax+23]
  00186	84 d2		 test	 dl, dl
  00188	74 32		 je	 SHORT $LN73@LoadBool_e
  0018a	32 d3		 xor	 dl, bl
  0018c	88 55 f7	 mov	 BYTE PTR __k$[ebp+23], dl
  0018f	8a 50 18	 mov	 dl, BYTE PTR [eax+24]
  00192	84 d2		 test	 dl, dl
  00194	74 20		 je	 SHORT $LN72@LoadBool_e
  00196	8a 40 19	 mov	 al, BYTE PTR [eax+25]
  00199	80 f2 ed	 xor	 dl, -19			; ffffffedH
  0019c	88 55 f8	 mov	 BYTE PTR __k$[ebp+24], dl
  0019f	84 c0		 test	 al, al
  001a1	74 0a		 je	 SHORT $LN71@LoadBool_e
  001a3	34 ec		 xor	 al, -20			; ffffffecH
  001a5	88 45 f9	 mov	 BYTE PTR __k$[ebp+25], al
  001a8	e9 8d 00 00 00	 jmp	 $LN1@LoadBool_e
$LN71@LoadBool_e:
  001ad	c6 45 f9 ec	 mov	 BYTE PTR __k$[ebp+25], -20 ; ffffffecH
  001b1	e9 84 00 00 00	 jmp	 $LN1@LoadBool_e
$LN72@LoadBool_e:
  001b6	c6 45 f8 ed	 mov	 BYTE PTR __k$[ebp+24], -19 ; ffffffedH
  001ba	eb 7e		 jmp	 SHORT $LN1@LoadBool_e
$LN73@LoadBool_e:
  001bc	88 5d f7	 mov	 BYTE PTR __k$[ebp+23], bl
  001bf	eb 79		 jmp	 SHORT $LN1@LoadBool_e
$LN74@LoadBool_e:
  001c1	88 4d f6	 mov	 BYTE PTR __k$[ebp+22], cl
  001c4	eb 74		 jmp	 SHORT $LN1@LoadBool_e
$LN76@LoadBool_e:
  001c6	c6 45 f4 ed	 mov	 BYTE PTR __k$[ebp+20], -19 ; ffffffedH
  001ca	eb 6e		 jmp	 SHORT $LN1@LoadBool_e
$LN77@LoadBool_e:
  001cc	88 5d f3	 mov	 BYTE PTR __k$[ebp+19], bl
  001cf	eb 69		 jmp	 SHORT $LN1@LoadBool_e
$LN78@LoadBool_e:
  001d1	88 4d f2	 mov	 BYTE PTR __k$[ebp+18], cl
  001d4	eb 64		 jmp	 SHORT $LN1@LoadBool_e
$LN79@LoadBool_e:
  001d6	c6 45 f1 ec	 mov	 BYTE PTR __k$[ebp+17], -20 ; ffffffecH
  001da	eb 5e		 jmp	 SHORT $LN1@LoadBool_e
$LN80@LoadBool_e:
  001dc	c6 45 f0 ed	 mov	 BYTE PTR __k$[ebp+16], -19 ; ffffffedH
  001e0	eb 58		 jmp	 SHORT $LN1@LoadBool_e
$LN81@LoadBool_e:
  001e2	88 5d ef	 mov	 BYTE PTR __k$[ebp+15], bl
  001e5	eb 53		 jmp	 SHORT $LN1@LoadBool_e
$LN82@LoadBool_e:
  001e7	88 4d ee	 mov	 BYTE PTR __k$[ebp+14], cl
  001ea	eb 4e		 jmp	 SHORT $LN1@LoadBool_e
$LN83@LoadBool_e:
  001ec	c6 45 ed ec	 mov	 BYTE PTR __k$[ebp+13], -20 ; ffffffecH
  001f0	eb 48		 jmp	 SHORT $LN1@LoadBool_e
$LN84@LoadBool_e:
  001f2	c6 45 ec ed	 mov	 BYTE PTR __k$[ebp+12], -19 ; ffffffedH
  001f6	eb 42		 jmp	 SHORT $LN1@LoadBool_e
$LN85@LoadBool_e:
  001f8	88 5d eb	 mov	 BYTE PTR __k$[ebp+11], bl
  001fb	eb 3d		 jmp	 SHORT $LN1@LoadBool_e
$LN86@LoadBool_e:
  001fd	88 4d ea	 mov	 BYTE PTR __k$[ebp+10], cl
  00200	eb 38		 jmp	 SHORT $LN1@LoadBool_e
$LN87@LoadBool_e:
  00202	c6 45 e9 ec	 mov	 BYTE PTR __k$[ebp+9], -20 ; ffffffecH
  00206	eb 32		 jmp	 SHORT $LN1@LoadBool_e
$LN88@LoadBool_e:
  00208	c6 45 e8 ed	 mov	 BYTE PTR __k$[ebp+8], -19 ; ffffffedH
  0020c	eb 2c		 jmp	 SHORT $LN1@LoadBool_e
$LN89@LoadBool_e:
  0020e	88 5d e7	 mov	 BYTE PTR __k$[ebp+7], bl
  00211	eb 27		 jmp	 SHORT $LN1@LoadBool_e
$LN90@LoadBool_e:
  00213	88 4d e6	 mov	 BYTE PTR __k$[ebp+6], cl
  00216	eb 22		 jmp	 SHORT $LN1@LoadBool_e
$LN91@LoadBool_e:
  00218	c6 45 e5 ec	 mov	 BYTE PTR __k$[ebp+5], -20 ; ffffffecH
  0021c	eb 1c		 jmp	 SHORT $LN1@LoadBool_e
$LN92@LoadBool_e:
  0021e	c6 45 e4 ed	 mov	 BYTE PTR __k$[ebp+4], -19 ; ffffffedH
  00222	eb 16		 jmp	 SHORT $LN1@LoadBool_e
$LN93@LoadBool_e:
  00224	c6 45 e3 ea	 mov	 BYTE PTR __k$[ebp+3], -22 ; ffffffeaH
  00228	eb 10		 jmp	 SHORT $LN1@LoadBool_e
$LN94@LoadBool_e:
  0022a	c6 45 e2 eb	 mov	 BYTE PTR __k$[ebp+2], -21 ; ffffffebH
  0022e	eb 0a		 jmp	 SHORT $LN1@LoadBool_e
$LN95@LoadBool_e:
  00230	c6 45 e1 ec	 mov	 BYTE PTR __k$[ebp+1], -20 ; ffffffecH
  00234	eb 04		 jmp	 SHORT $LN1@LoadBool_e
$LN96@LoadBool_e:
  00236	c6 45 e0 ed	 mov	 BYTE PTR __k$[ebp], -19	; ffffffedH
$LN1@LoadBool_e:
  0023a	6a 05		 push	 5
  0023c	8d 45 e0	 lea	 eax, DWORD PTR __k$[ebp]
  0023f	c6 45 f5 00	 mov	 BYTE PTR __k$[ebp+21], 0
  00243	5a		 pop	 edx
$LL104@LoadBool_e:
  00244	81 30 ed ec eb
	ea		 xor	 DWORD PTR [eax], -353637139 ; eaebecedH
  0024a	83 c0 04	 add	 eax, 4
  0024d	4a		 dec	 edx
  0024e	75 f4		 jne	 SHORT $LL104@LoadBool_e

; 103  : 		return LoadBool(_k, b);

  00250	ff 75 0c	 push	 DWORD PTR _b$[ebp]
  00253	80 75 f4 ed	 xor	 BYTE PTR __k$[ebp+20], -19 ; ffffffedH
  00257	8d 45 e0	 lea	 eax, DWORD PTR __k$[ebp]
  0025a	50		 push	 eax
  0025b	8b ce		 mov	 ecx, esi
  0025d	ff 15 00 00 00
	00		 call	 DWORD PTR __imp_?LoadBool@ioINILoader@@QAE_NPBD_N@Z

; 104  : 	}

  00263	8b 4d fc	 mov	 ecx, DWORD PTR __$ArrayPad$[ebp]
  00266	5e		 pop	 esi
  00267	33 cd		 xor	 ecx, ebp
  00269	5b		 pop	 ebx
  0026a	e8 00 00 00 00	 call	 @__security_check_cookie@4
  0026f	c9		 leave
  00270	c2 08 00	 ret	 8
??$LoadBool_e@$0BG@@ioINILoader@@QAE_NAAY0BG@$$CBD_N@Z ENDP ; ioINILoader::LoadBool_e<22>
_TEXT	ENDS
PUBLIC	__$ArrayPad$
PUBLIC	??$LoadBool_e@$0BF@@ioINILoader@@QAE_NAAY0BF@$$CBD_N@Z ; ioINILoader::LoadBool_e<21>
; Function compile flags: /Ogsp
;	COMDAT ??$LoadBool_e@$0BF@@ioINILoader@@QAE_NAAY0BF@$$CBD_N@Z
_TEXT	SEGMENT
__k$ = -32						; size = 21
__$ArrayPad$ = -4					; size = 4
_k$ = 8							; size = 4
_b$ = 12						; size = 1
??$LoadBool_e@$0BF@@ioINILoader@@QAE_NAAY0BF@$$CBD_N@Z PROC ; ioINILoader::LoadBool_e<21>, COMDAT
; _this$ = ecx

; 101  : 	{

  00000	55		 push	 ebp
  00001	8b ec		 mov	 ebp, esp
  00003	83 ec 20	 sub	 esp, 32			; 00000020H
  00006	a1 00 00 00 00	 mov	 eax, DWORD PTR ___security_cookie
  0000b	33 c5		 xor	 eax, ebp
  0000d	89 45 fc	 mov	 DWORD PTR __$ArrayPad$[ebp], eax
  00010	8b 45 08	 mov	 eax, DWORD PTR _k$[ebp]

; 102  : 		_ENCSTR(k, _k);

  00013	8a 10		 mov	 dl, BYTE PTR [eax]
  00015	53		 push	 ebx
  00016	56		 push	 esi
  00017	8b f1		 mov	 esi, ecx
  00019	84 d2		 test	 dl, dl
  0001b	0f 84 f7 01 00
	00		 je	 $LN96@LoadBool_e@2
  00021	80 f2 ed	 xor	 dl, -19			; ffffffedH
  00024	88 55 e0	 mov	 BYTE PTR __k$[ebp], dl
  00027	8a 50 01	 mov	 dl, BYTE PTR [eax+1]
  0002a	84 d2		 test	 dl, dl
  0002c	0f 84 e0 01 00
	00		 je	 $LN95@LoadBool_e@2
  00032	b1 ec		 mov	 cl, -20			; ffffffecH
  00034	32 d1		 xor	 dl, cl
  00036	88 55 e1	 mov	 BYTE PTR __k$[ebp+1], dl
  00039	8a 50 02	 mov	 dl, BYTE PTR [eax+2]
  0003c	84 d2		 test	 dl, dl
  0003e	0f 84 c8 01 00
	00		 je	 $LN94@LoadBool_e@2
  00044	b3 eb		 mov	 bl, -21			; ffffffebH
  00046	32 d3		 xor	 dl, bl
  00048	88 55 e2	 mov	 BYTE PTR __k$[ebp+2], dl
  0004b	8a 50 03	 mov	 dl, BYTE PTR [eax+3]
  0004e	84 d2		 test	 dl, dl
  00050	0f 84 b0 01 00
	00		 je	 $LN93@LoadBool_e@2
  00056	80 f2 ea	 xor	 dl, -22			; ffffffeaH
  00059	88 55 e3	 mov	 BYTE PTR __k$[ebp+3], dl
  0005c	8a 50 04	 mov	 dl, BYTE PTR [eax+4]
  0005f	84 d2		 test	 dl, dl
  00061	0f 84 99 01 00
	00		 je	 $LN92@LoadBool_e@2
  00067	80 f2 ed	 xor	 dl, -19			; ffffffedH
  0006a	88 55 e4	 mov	 BYTE PTR __k$[ebp+4], dl
  0006d	8a 50 05	 mov	 dl, BYTE PTR [eax+5]
  00070	84 d2		 test	 dl, dl
  00072	0f 84 83 01 00
	00		 je	 $LN91@LoadBool_e@2
  00078	32 d1		 xor	 dl, cl
  0007a	88 55 e5	 mov	 BYTE PTR __k$[ebp+5], dl
  0007d	8a 50 06	 mov	 dl, BYTE PTR [eax+6]
  00080	84 d2		 test	 dl, dl
  00082	0f 84 6e 01 00
	00		 je	 $LN90@LoadBool_e@2
  00088	32 d3		 xor	 dl, bl
  0008a	88 55 e6	 mov	 BYTE PTR __k$[ebp+6], dl
  0008d	8a 50 07	 mov	 dl, BYTE PTR [eax+7]
  00090	84 d2		 test	 dl, dl
  00092	0f 84 58 01 00
	00		 je	 $LN89@LoadBool_e@2
  00098	80 f2 ea	 xor	 dl, -22			; ffffffeaH
  0009b	88 55 e7	 mov	 BYTE PTR __k$[ebp+7], dl
  0009e	8a 50 08	 mov	 dl, BYTE PTR [eax+8]
  000a1	84 d2		 test	 dl, dl
  000a3	0f 84 41 01 00
	00		 je	 $LN88@LoadBool_e@2
  000a9	80 f2 ed	 xor	 dl, -19			; ffffffedH
  000ac	88 55 e8	 mov	 BYTE PTR __k$[ebp+8], dl
  000af	8a 50 09	 mov	 dl, BYTE PTR [eax+9]
  000b2	84 d2		 test	 dl, dl
  000b4	0f 84 2b 01 00
	00		 je	 $LN87@LoadBool_e@2
  000ba	32 d1		 xor	 dl, cl
  000bc	88 55 e9	 mov	 BYTE PTR __k$[ebp+9], dl
  000bf	8a 50 0a	 mov	 dl, BYTE PTR [eax+10]
  000c2	84 d2		 test	 dl, dl
  000c4	0f 84 16 01 00
	00		 je	 $LN86@LoadBool_e@2
  000ca	32 d3		 xor	 dl, bl
  000cc	88 55 ea	 mov	 BYTE PTR __k$[ebp+10], dl
  000cf	8a 50 0b	 mov	 dl, BYTE PTR [eax+11]
  000d2	84 d2		 test	 dl, dl
  000d4	0f 84 00 01 00
	00		 je	 $LN85@LoadBool_e@2
  000da	80 f2 ea	 xor	 dl, -22			; ffffffeaH
  000dd	88 55 eb	 mov	 BYTE PTR __k$[ebp+11], dl
  000e0	8a 50 0c	 mov	 dl, BYTE PTR [eax+12]
  000e3	84 d2		 test	 dl, dl
  000e5	0f 84 e9 00 00
	00		 je	 $LN84@LoadBool_e@2
  000eb	80 f2 ed	 xor	 dl, -19			; ffffffedH
  000ee	88 55 ec	 mov	 BYTE PTR __k$[ebp+12], dl
  000f1	8a 50 0d	 mov	 dl, BYTE PTR [eax+13]
  000f4	84 d2		 test	 dl, dl
  000f6	0f 84 d3 00 00
	00		 je	 $LN83@LoadBool_e@2
  000fc	32 d1		 xor	 dl, cl
  000fe	88 55 ed	 mov	 BYTE PTR __k$[ebp+13], dl
  00101	8a 50 0e	 mov	 dl, BYTE PTR [eax+14]
  00104	84 d2		 test	 dl, dl
  00106	0f 84 be 00 00
	00		 je	 $LN82@LoadBool_e@2
  0010c	32 d3		 xor	 dl, bl
  0010e	88 55 ee	 mov	 BYTE PTR __k$[ebp+14], dl
  00111	8a 50 0f	 mov	 dl, BYTE PTR [eax+15]
  00114	84 d2		 test	 dl, dl
  00116	0f 84 a8 00 00
	00		 je	 $LN81@LoadBool_e@2
  0011c	80 f2 ea	 xor	 dl, -22			; ffffffeaH
  0011f	88 55 ef	 mov	 BYTE PTR __k$[ebp+15], dl
  00122	8a 50 10	 mov	 dl, BYTE PTR [eax+16]
  00125	84 d2		 test	 dl, dl
  00127	0f 84 91 00 00
	00		 je	 $LN80@LoadBool_e@2
  0012d	80 f2 ed	 xor	 dl, -19			; ffffffedH
  00130	88 55 f0	 mov	 BYTE PTR __k$[ebp+16], dl
  00133	8a 50 11	 mov	 dl, BYTE PTR [eax+17]
  00136	84 d2		 test	 dl, dl
  00138	74 7f		 je	 SHORT $LN79@LoadBool_e@2
  0013a	32 d1		 xor	 dl, cl
  0013c	88 55 f1	 mov	 BYTE PTR __k$[ebp+17], dl
  0013f	8a 50 12	 mov	 dl, BYTE PTR [eax+18]
  00142	84 d2		 test	 dl, dl
  00144	74 6e		 je	 SHORT $LN78@LoadBool_e@2
  00146	32 d3		 xor	 dl, bl
  00148	88 55 f2	 mov	 BYTE PTR __k$[ebp+18], dl
  0014b	8a 50 13	 mov	 dl, BYTE PTR [eax+19]
  0014e	84 d2		 test	 dl, dl
  00150	74 5c		 je	 SHORT $LN77@LoadBool_e@2
  00152	80 f2 ea	 xor	 dl, -22			; ffffffeaH
  00155	80 78 14 00	 cmp	 BYTE PTR [eax+20], 0
  00159	88 55 f3	 mov	 BYTE PTR __k$[ebp+19], dl
  0015c	0f 84 ba 00 00
	00		 je	 $LN1@LoadBool_e@2
  00162	8a 50 15	 mov	 dl, BYTE PTR [eax+21]
  00165	84 d2		 test	 dl, dl
  00167	74 40		 je	 SHORT $LN75@LoadBool_e@2
  00169	32 d1		 xor	 dl, cl
  0016b	88 55 f5	 mov	 BYTE PTR __k$[ebp+21], dl
  0016e	8a 50 16	 mov	 dl, BYTE PTR [eax+22]
  00171	84 d2		 test	 dl, dl
  00173	74 2f		 je	 SHORT $LN74@LoadBool_e@2
  00175	32 d3		 xor	 dl, bl
  00177	88 55 f6	 mov	 BYTE PTR __k$[ebp+22], dl
  0017a	8a 50 17	 mov	 dl, BYTE PTR [eax+23]
  0017d	84 d2		 test	 dl, dl
  0017f	74 1d		 je	 SHORT $LN73@LoadBool_e@2
  00181	8a 40 18	 mov	 al, BYTE PTR [eax+24]
  00184	80 f2 ea	 xor	 dl, -22			; ffffffeaH
  00187	88 55 f7	 mov	 BYTE PTR __k$[ebp+23], dl
  0018a	84 c0		 test	 al, al
  0018c	74 0a		 je	 SHORT $LN72@LoadBool_e@2
  0018e	34 ed		 xor	 al, -19			; ffffffedH
  00190	88 45 f8	 mov	 BYTE PTR __k$[ebp+24], al
  00193	e9 84 00 00 00	 jmp	 $LN1@LoadBool_e@2
$LN72@LoadBool_e@2:
  00198	c6 45 f8 ed	 mov	 BYTE PTR __k$[ebp+24], -19 ; ffffffedH
  0019c	eb 7e		 jmp	 SHORT $LN1@LoadBool_e@2
$LN73@LoadBool_e@2:
  0019e	c6 45 f7 ea	 mov	 BYTE PTR __k$[ebp+23], -22 ; ffffffeaH
  001a2	eb 78		 jmp	 SHORT $LN1@LoadBool_e@2
$LN74@LoadBool_e@2:
  001a4	88 5d f6	 mov	 BYTE PTR __k$[ebp+22], bl
  001a7	eb 73		 jmp	 SHORT $LN1@LoadBool_e@2
$LN75@LoadBool_e@2:
  001a9	88 4d f5	 mov	 BYTE PTR __k$[ebp+21], cl
  001ac	eb 6e		 jmp	 SHORT $LN1@LoadBool_e@2
$LN77@LoadBool_e@2:
  001ae	c6 45 f3 ea	 mov	 BYTE PTR __k$[ebp+19], -22 ; ffffffeaH
  001b2	eb 68		 jmp	 SHORT $LN1@LoadBool_e@2
$LN78@LoadBool_e@2:
  001b4	88 5d f2	 mov	 BYTE PTR __k$[ebp+18], bl
  001b7	eb 63		 jmp	 SHORT $LN1@LoadBool_e@2
$LN79@LoadBool_e@2:
  001b9	88 4d f1	 mov	 BYTE PTR __k$[ebp+17], cl
  001bc	eb 5e		 jmp	 SHORT $LN1@LoadBool_e@2
$LN80@LoadBool_e@2:
  001be	c6 45 f0 ed	 mov	 BYTE PTR __k$[ebp+16], -19 ; ffffffedH
  001c2	eb 58		 jmp	 SHORT $LN1@LoadBool_e@2
$LN81@LoadBool_e@2:
  001c4	c6 45 ef ea	 mov	 BYTE PTR __k$[ebp+15], -22 ; ffffffeaH
  001c8	eb 52		 jmp	 SHORT $LN1@LoadBool_e@2
$LN82@LoadBool_e@2:
  001ca	88 5d ee	 mov	 BYTE PTR __k$[ebp+14], bl
  001cd	eb 4d		 jmp	 SHORT $LN1@LoadBool_e@2
$LN83@LoadBool_e@2:
  001cf	88 4d ed	 mov	 BYTE PTR __k$[ebp+13], cl
  001d2	eb 48		 jmp	 SHORT $LN1@LoadBool_e@2
$LN84@LoadBool_e@2:
  001d4	c6 45 ec ed	 mov	 BYTE PTR __k$[ebp+12], -19 ; ffffffedH
  001d8	eb 42		 jmp	 SHORT $LN1@LoadBool_e@2
$LN85@LoadBool_e@2:
  001da	c6 45 eb ea	 mov	 BYTE PTR __k$[ebp+11], -22 ; ffffffeaH
  001de	eb 3c		 jmp	 SHORT $LN1@LoadBool_e@2
$LN86@LoadBool_e@2:
  001e0	88 5d ea	 mov	 BYTE PTR __k$[ebp+10], bl
  001e3	eb 37		 jmp	 SHORT $LN1@LoadBool_e@2
$LN87@LoadBool_e@2:
  001e5	88 4d e9	 mov	 BYTE PTR __k$[ebp+9], cl
  001e8	eb 32		 jmp	 SHORT $LN1@LoadBool_e@2
$LN88@LoadBool_e@2:
  001ea	c6 45 e8 ed	 mov	 BYTE PTR __k$[ebp+8], -19 ; ffffffedH
  001ee	eb 2c		 jmp	 SHORT $LN1@LoadBool_e@2
$LN89@LoadBool_e@2:
  001f0	c6 45 e7 ea	 mov	 BYTE PTR __k$[ebp+7], -22 ; ffffffeaH
  001f4	eb 26		 jmp	 SHORT $LN1@LoadBool_e@2
$LN90@LoadBool_e@2:
  001f6	88 5d e6	 mov	 BYTE PTR __k$[ebp+6], bl
  001f9	eb 21		 jmp	 SHORT $LN1@LoadBool_e@2
$LN91@LoadBool_e@2:
  001fb	88 4d e5	 mov	 BYTE PTR __k$[ebp+5], cl
  001fe	eb 1c		 jmp	 SHORT $LN1@LoadBool_e@2
$LN92@LoadBool_e@2:
  00200	c6 45 e4 ed	 mov	 BYTE PTR __k$[ebp+4], -19 ; ffffffedH
  00204	eb 16		 jmp	 SHORT $LN1@LoadBool_e@2
$LN93@LoadBool_e@2:
  00206	c6 45 e3 ea	 mov	 BYTE PTR __k$[ebp+3], -22 ; ffffffeaH
  0020a	eb 10		 jmp	 SHORT $LN1@LoadBool_e@2
$LN94@LoadBool_e@2:
  0020c	c6 45 e2 eb	 mov	 BYTE PTR __k$[ebp+2], -21 ; ffffffebH
  00210	eb 0a		 jmp	 SHORT $LN1@LoadBool_e@2
$LN95@LoadBool_e@2:
  00212	c6 45 e1 ec	 mov	 BYTE PTR __k$[ebp+1], -20 ; ffffffecH
  00216	eb 04		 jmp	 SHORT $LN1@LoadBool_e@2
$LN96@LoadBool_e@2:
  00218	c6 45 e0 ed	 mov	 BYTE PTR __k$[ebp], -19	; ffffffedH
$LN1@LoadBool_e@2:
  0021c	6a 05		 push	 5
  0021e	8d 45 e0	 lea	 eax, DWORD PTR __k$[ebp]
  00221	c6 45 f4 00	 mov	 BYTE PTR __k$[ebp+20], 0
  00225	5a		 pop	 edx
$LL104@LoadBool_e@2:
  00226	81 30 ed ec eb
	ea		 xor	 DWORD PTR [eax], -353637139 ; eaebecedH
  0022c	83 c0 04	 add	 eax, 4
  0022f	4a		 dec	 edx
  00230	75 f4		 jne	 SHORT $LL104@LoadBool_e@2

; 103  : 		return LoadBool(_k, b);

  00232	ff 75 0c	 push	 DWORD PTR _b$[ebp]
  00235	8d 45 e0	 lea	 eax, DWORD PTR __k$[ebp]
  00238	50		 push	 eax
  00239	8b ce		 mov	 ecx, esi
  0023b	ff 15 00 00 00
	00		 call	 DWORD PTR __imp_?LoadBool@ioINILoader@@QAE_NPBD_N@Z

; 104  : 	}

  00241	8b 4d fc	 mov	 ecx, DWORD PTR __$ArrayPad$[ebp]
  00244	5e		 pop	 esi
  00245	33 cd		 xor	 ecx, ebp
  00247	5b		 pop	 ebx
  00248	e8 00 00 00 00	 call	 @__security_check_cookie@4
  0024d	c9		 leave
  0024e	c2 08 00	 ret	 8
??$LoadBool_e@$0BF@@ioINILoader@@QAE_NAAY0BF@$$CBD_N@Z ENDP ; ioINILoader::LoadBool_e<21>
_TEXT	ENDS
PUBLIC	__$ArrayPad$
PUBLIC	??$LoadBool_e@$0BC@@ioINILoader@@QAE_NAAY0BC@$$CBD_N@Z ; ioINILoader::LoadBool_e<18>
; Function compile flags: /Ogsp
;	COMDAT ??$LoadBool_e@$0BC@@ioINILoader@@QAE_NAAY0BC@$$CBD_N@Z
_TEXT	SEGMENT
__k$ = -28						; size = 18
__$ArrayPad$ = -4					; size = 4
_k$ = 8							; size = 4
_b$ = 12						; size = 1
??$LoadBool_e@$0BC@@ioINILoader@@QAE_NAAY0BC@$$CBD_N@Z PROC ; ioINILoader::LoadBool_e<18>, COMDAT
; _this$ = ecx

; 101  : 	{

  00000	55		 push	 ebp
  00001	8b ec		 mov	 ebp, esp
  00003	83 ec 1c	 sub	 esp, 28			; 0000001cH
  00006	a1 00 00 00 00	 mov	 eax, DWORD PTR ___security_cookie
  0000b	33 c5		 xor	 eax, ebp
  0000d	89 45 fc	 mov	 DWORD PTR __$ArrayPad$[ebp], eax
  00010	8b 45 08	 mov	 eax, DWORD PTR _k$[ebp]

; 102  : 		_ENCSTR(k, _k);

  00013	8a 10		 mov	 dl, BYTE PTR [eax]
  00015	56		 push	 esi
  00016	8b f1		 mov	 esi, ecx
  00018	84 d2		 test	 dl, dl
  0001a	0f 84 be 01 00
	00		 je	 $LN96@LoadBool_e@3
  00020	80 f2 ed	 xor	 dl, -19			; ffffffedH
  00023	88 55 e4	 mov	 BYTE PTR __k$[ebp], dl
  00026	8a 50 01	 mov	 dl, BYTE PTR [eax+1]
  00029	84 d2		 test	 dl, dl
  0002b	0f 84 a7 01 00
	00		 je	 $LN95@LoadBool_e@3
  00031	80 f2 ec	 xor	 dl, -20			; ffffffecH
  00034	88 55 e5	 mov	 BYTE PTR __k$[ebp+1], dl
  00037	8a 50 02	 mov	 dl, BYTE PTR [eax+2]
  0003a	84 d2		 test	 dl, dl
  0003c	0f 84 90 01 00
	00		 je	 $LN94@LoadBool_e@3
  00042	b1 eb		 mov	 cl, -21			; ffffffebH
  00044	32 d1		 xor	 dl, cl
  00046	88 55 e6	 mov	 BYTE PTR __k$[ebp+2], dl
  00049	8a 50 03	 mov	 dl, BYTE PTR [eax+3]
  0004c	84 d2		 test	 dl, dl
  0004e	0f 84 78 01 00
	00		 je	 $LN93@LoadBool_e@3
  00054	80 f2 ea	 xor	 dl, -22			; ffffffeaH
  00057	88 55 e7	 mov	 BYTE PTR __k$[ebp+3], dl
  0005a	8a 50 04	 mov	 dl, BYTE PTR [eax+4]
  0005d	84 d2		 test	 dl, dl
  0005f	0f 84 61 01 00
	00		 je	 $LN92@LoadBool_e@3
  00065	80 f2 ed	 xor	 dl, -19			; ffffffedH
  00068	88 55 e8	 mov	 BYTE PTR __k$[ebp+4], dl
  0006b	8a 50 05	 mov	 dl, BYTE PTR [eax+5]
  0006e	84 d2		 test	 dl, dl
  00070	0f 84 4a 01 00
	00		 je	 $LN91@LoadBool_e@3
  00076	80 f2 ec	 xor	 dl, -20			; ffffffecH
  00079	88 55 e9	 mov	 BYTE PTR __k$[ebp+5], dl
  0007c	8a 50 06	 mov	 dl, BYTE PTR [eax+6]
  0007f	84 d2		 test	 dl, dl
  00081	0f 84 34 01 00
	00		 je	 $LN90@LoadBool_e@3
  00087	32 d1		 xor	 dl, cl
  00089	88 55 ea	 mov	 BYTE PTR __k$[ebp+6], dl
  0008c	8a 50 07	 mov	 dl, BYTE PTR [eax+7]
  0008f	84 d2		 test	 dl, dl
  00091	0f 84 1e 01 00
	00		 je	 $LN89@LoadBool_e@3
  00097	80 f2 ea	 xor	 dl, -22			; ffffffeaH
  0009a	88 55 eb	 mov	 BYTE PTR __k$[ebp+7], dl
  0009d	8a 50 08	 mov	 dl, BYTE PTR [eax+8]
  000a0	84 d2		 test	 dl, dl
  000a2	0f 84 07 01 00
	00		 je	 $LN88@LoadBool_e@3
  000a8	80 f2 ed	 xor	 dl, -19			; ffffffedH
  000ab	88 55 ec	 mov	 BYTE PTR __k$[ebp+8], dl
  000ae	8a 50 09	 mov	 dl, BYTE PTR [eax+9]
  000b1	84 d2		 test	 dl, dl
  000b3	0f 84 f0 00 00
	00		 je	 $LN87@LoadBool_e@3
  000b9	80 f2 ec	 xor	 dl, -20			; ffffffecH
  000bc	88 55 ed	 mov	 BYTE PTR __k$[ebp+9], dl
  000bf	8a 50 0a	 mov	 dl, BYTE PTR [eax+10]
  000c2	84 d2		 test	 dl, dl
  000c4	0f 84 da 00 00
	00		 je	 $LN86@LoadBool_e@3
  000ca	32 d1		 xor	 dl, cl
  000cc	88 55 ee	 mov	 BYTE PTR __k$[ebp+10], dl
  000cf	8a 50 0b	 mov	 dl, BYTE PTR [eax+11]
  000d2	84 d2		 test	 dl, dl
  000d4	0f 84 c4 00 00
	00		 je	 $LN85@LoadBool_e@3
  000da	80 f2 ea	 xor	 dl, -22			; ffffffeaH
  000dd	88 55 ef	 mov	 BYTE PTR __k$[ebp+11], dl
  000e0	8a 50 0c	 mov	 dl, BYTE PTR [eax+12]
  000e3	84 d2		 test	 dl, dl
  000e5	0f 84 ad 00 00
	00		 je	 $LN84@LoadBool_e@3
  000eb	80 f2 ed	 xor	 dl, -19			; ffffffedH
  000ee	88 55 f0	 mov	 BYTE PTR __k$[ebp+12], dl
  000f1	8a 50 0d	 mov	 dl, BYTE PTR [eax+13]
  000f4	84 d2		 test	 dl, dl
  000f6	0f 84 96 00 00
	00		 je	 $LN83@LoadBool_e@3
  000fc	80 f2 ec	 xor	 dl, -20			; ffffffecH
  000ff	88 55 f1	 mov	 BYTE PTR __k$[ebp+13], dl
  00102	8a 50 0e	 mov	 dl, BYTE PTR [eax+14]
  00105	84 d2		 test	 dl, dl
  00107	0f 84 80 00 00
	00		 je	 $LN82@LoadBool_e@3
  0010d	32 d1		 xor	 dl, cl
  0010f	88 55 f2	 mov	 BYTE PTR __k$[ebp+14], dl
  00112	8a 50 0f	 mov	 dl, BYTE PTR [eax+15]
  00115	84 d2		 test	 dl, dl
  00117	74 6e		 je	 SHORT $LN81@LoadBool_e@3
  00119	80 f2 ea	 xor	 dl, -22			; ffffffeaH
  0011c	88 55 f3	 mov	 BYTE PTR __k$[ebp+15], dl
  0011f	8a 50 10	 mov	 dl, BYTE PTR [eax+16]
  00122	84 d2		 test	 dl, dl
  00124	74 5b		 je	 SHORT $LN80@LoadBool_e@3
  00126	80 f2 ed	 xor	 dl, -19			; ffffffedH
  00129	80 78 11 00	 cmp	 BYTE PTR [eax+17], 0
  0012d	88 55 f4	 mov	 BYTE PTR __k$[ebp+16], dl
  00130	0f 84 ac 00 00
	00		 je	 $LN1@LoadBool_e@3
  00136	8a 50 12	 mov	 dl, BYTE PTR [eax+18]
  00139	84 d2		 test	 dl, dl
  0013b	74 3f		 je	 SHORT $LN78@LoadBool_e@3
  0013d	32 d1		 xor	 dl, cl
  0013f	88 55 f6	 mov	 BYTE PTR __k$[ebp+18], dl
  00142	8a 50 13	 mov	 dl, BYTE PTR [eax+19]
  00145	84 d2		 test	 dl, dl
  00147	74 2d		 je	 SHORT $LN77@LoadBool_e@3
  00149	80 f2 ea	 xor	 dl, -22			; ffffffeaH
  0014c	88 55 f7	 mov	 BYTE PTR __k$[ebp+19], dl
  0014f	8a 50 14	 mov	 dl, BYTE PTR [eax+20]
  00152	84 d2		 test	 dl, dl
  00154	74 1a		 je	 SHORT $LN76@LoadBool_e@3
  00156	8a 40 15	 mov	 al, BYTE PTR [eax+21]
  00159	80 f2 ed	 xor	 dl, -19			; ffffffedH
  0015c	88 55 f8	 mov	 BYTE PTR __k$[ebp+20], dl
  0015f	84 c0		 test	 al, al
  00161	74 07		 je	 SHORT $LN75@LoadBool_e@3
  00163	34 ec		 xor	 al, -20			; ffffffecH
  00165	88 45 f9	 mov	 BYTE PTR __k$[ebp+21], al
  00168	eb 78		 jmp	 SHORT $LN1@LoadBool_e@3
$LN75@LoadBool_e@3:
  0016a	c6 45 f9 ec	 mov	 BYTE PTR __k$[ebp+21], -20 ; ffffffecH
  0016e	eb 72		 jmp	 SHORT $LN1@LoadBool_e@3
$LN76@LoadBool_e@3:
  00170	c6 45 f8 ed	 mov	 BYTE PTR __k$[ebp+20], -19 ; ffffffedH
  00174	eb 6c		 jmp	 SHORT $LN1@LoadBool_e@3
$LN77@LoadBool_e@3:
  00176	c6 45 f7 ea	 mov	 BYTE PTR __k$[ebp+19], -22 ; ffffffeaH
  0017a	eb 66		 jmp	 SHORT $LN1@LoadBool_e@3
$LN78@LoadBool_e@3:
  0017c	88 4d f6	 mov	 BYTE PTR __k$[ebp+18], cl
  0017f	eb 61		 jmp	 SHORT $LN1@LoadBool_e@3
$LN80@LoadBool_e@3:
  00181	c6 45 f4 ed	 mov	 BYTE PTR __k$[ebp+16], -19 ; ffffffedH
  00185	eb 5b		 jmp	 SHORT $LN1@LoadBool_e@3
$LN81@LoadBool_e@3:
  00187	c6 45 f3 ea	 mov	 BYTE PTR __k$[ebp+15], -22 ; ffffffeaH
  0018b	eb 55		 jmp	 SHORT $LN1@LoadBool_e@3
$LN82@LoadBool_e@3:
  0018d	88 4d f2	 mov	 BYTE PTR __k$[ebp+14], cl
  00190	eb 50		 jmp	 SHORT $LN1@LoadBool_e@3
$LN83@LoadBool_e@3:
  00192	c6 45 f1 ec	 mov	 BYTE PTR __k$[ebp+13], -20 ; ffffffecH
  00196	eb 4a		 jmp	 SHORT $LN1@LoadBool_e@3
$LN84@LoadBool_e@3:
  00198	c6 45 f0 ed	 mov	 BYTE PTR __k$[ebp+12], -19 ; ffffffedH
  0019c	eb 44		 jmp	 SHORT $LN1@LoadBool_e@3
$LN85@LoadBool_e@3:
  0019e	c6 45 ef ea	 mov	 BYTE PTR __k$[ebp+11], -22 ; ffffffeaH
  001a2	eb 3e		 jmp	 SHORT $LN1@LoadBool_e@3
$LN86@LoadBool_e@3:
  001a4	88 4d ee	 mov	 BYTE PTR __k$[ebp+10], cl
  001a7	eb 39		 jmp	 SHORT $LN1@LoadBool_e@3
$LN87@LoadBool_e@3:
  001a9	c6 45 ed ec	 mov	 BYTE PTR __k$[ebp+9], -20 ; ffffffecH
  001ad	eb 33		 jmp	 SHORT $LN1@LoadBool_e@3
$LN88@LoadBool_e@3:
  001af	c6 45 ec ed	 mov	 BYTE PTR __k$[ebp+8], -19 ; ffffffedH
  001b3	eb 2d		 jmp	 SHORT $LN1@LoadBool_e@3
$LN89@LoadBool_e@3:
  001b5	c6 45 eb ea	 mov	 BYTE PTR __k$[ebp+7], -22 ; ffffffeaH
  001b9	eb 27		 jmp	 SHORT $LN1@LoadBool_e@3
$LN90@LoadBool_e@3:
  001bb	88 4d ea	 mov	 BYTE PTR __k$[ebp+6], cl
  001be	eb 22		 jmp	 SHORT $LN1@LoadBool_e@3
$LN91@LoadBool_e@3:
  001c0	c6 45 e9 ec	 mov	 BYTE PTR __k$[ebp+5], -20 ; ffffffecH
  001c4	eb 1c		 jmp	 SHORT $LN1@LoadBool_e@3
$LN92@LoadBool_e@3:
  001c6	c6 45 e8 ed	 mov	 BYTE PTR __k$[ebp+4], -19 ; ffffffedH
  001ca	eb 16		 jmp	 SHORT $LN1@LoadBool_e@3
$LN93@LoadBool_e@3:
  001cc	c6 45 e7 ea	 mov	 BYTE PTR __k$[ebp+3], -22 ; ffffffeaH
  001d0	eb 10		 jmp	 SHORT $LN1@LoadBool_e@3
$LN94@LoadBool_e@3:
  001d2	c6 45 e6 eb	 mov	 BYTE PTR __k$[ebp+2], -21 ; ffffffebH
  001d6	eb 0a		 jmp	 SHORT $LN1@LoadBool_e@3
$LN95@LoadBool_e@3:
  001d8	c6 45 e5 ec	 mov	 BYTE PTR __k$[ebp+1], -20 ; ffffffecH
  001dc	eb 04		 jmp	 SHORT $LN1@LoadBool_e@3
$LN96@LoadBool_e@3:
  001de	c6 45 e4 ed	 mov	 BYTE PTR __k$[ebp], -19	; ffffffedH
$LN1@LoadBool_e@3:
  001e2	6a 04		 push	 4
  001e4	8d 45 e4	 lea	 eax, DWORD PTR __k$[ebp]
  001e7	c6 45 f5 00	 mov	 BYTE PTR __k$[ebp+17], 0
  001eb	5a		 pop	 edx
$LL104@LoadBool_e@3:
  001ec	81 30 ed ec eb
	ea		 xor	 DWORD PTR [eax], -353637139 ; eaebecedH
  001f2	83 c0 04	 add	 eax, 4
  001f5	4a		 dec	 edx
  001f6	75 f4		 jne	 SHORT $LL104@LoadBool_e@3

; 103  : 		return LoadBool(_k, b);

  001f8	ff 75 0c	 push	 DWORD PTR _b$[ebp]
  001fb	80 75 f4 ed	 xor	 BYTE PTR __k$[ebp+16], -19 ; ffffffedH
  001ff	8d 45 e4	 lea	 eax, DWORD PTR __k$[ebp]
  00202	50		 push	 eax
  00203	8b ce		 mov	 ecx, esi
  00205	ff 15 00 00 00
	00		 call	 DWORD PTR __imp_?LoadBool@ioINILoader@@QAE_NPBD_N@Z

; 104  : 	}

  0020b	8b 4d fc	 mov	 ecx, DWORD PTR __$ArrayPad$[ebp]
  0020e	33 cd		 xor	 ecx, ebp
  00210	5e		 pop	 esi
  00211	e8 00 00 00 00	 call	 @__security_check_cookie@4
  00216	c9		 leave
  00217	c2 08 00	 ret	 8
??$LoadBool_e@$0BC@@ioINILoader@@QAE_NAAY0BC@$$CBD_N@Z ENDP ; ioINILoader::LoadBool_e<18>
_TEXT	ENDS
PUBLIC	__$ArrayPad$
PUBLIC	??$LoadFloat_e@$0N@@ioINILoader@@QAEMAAY0N@$$CBDM@Z ; ioINILoader::LoadFloat_e<13>
; Function compile flags: /Ogsp
;	COMDAT ??$LoadFloat_e@$0N@@ioINILoader@@QAEMAAY0N@$$CBDM@Z
_TEXT	SEGMENT
__k$ = -24						; size = 13
__$ArrayPad$ = -4					; size = 4
_k$ = 8							; size = 4
_f$ = 12						; size = 4
??$LoadFloat_e@$0N@@ioINILoader@@QAEMAAY0N@$$CBDM@Z PROC ; ioINILoader::LoadFloat_e<13>, COMDAT
; _this$ = ecx

; 135  : 	{

  00000	55		 push	 ebp
  00001	8b ec		 mov	 ebp, esp
  00003	83 ec 18	 sub	 esp, 24			; 00000018H
  00006	a1 00 00 00 00	 mov	 eax, DWORD PTR ___security_cookie
  0000b	33 c5		 xor	 eax, ebp
  0000d	89 45 fc	 mov	 DWORD PTR __$ArrayPad$[ebp], eax
  00010	8b 45 08	 mov	 eax, DWORD PTR _k$[ebp]

; 136  : 		_ENCSTR(k, _k);

  00013	8a 10		 mov	 dl, BYTE PTR [eax]
  00015	56		 push	 esi
  00016	8b f1		 mov	 esi, ecx
  00018	84 d2		 test	 dl, dl
  0001a	0f 84 4d 01 00
	00		 je	 $LN96@LoadFloat_@2
  00020	80 f2 ed	 xor	 dl, -19			; ffffffedH
  00023	88 55 e8	 mov	 BYTE PTR __k$[ebp], dl
  00026	8a 50 01	 mov	 dl, BYTE PTR [eax+1]
  00029	84 d2		 test	 dl, dl
  0002b	0f 84 36 01 00
	00		 je	 $LN95@LoadFloat_@2
  00031	b1 ec		 mov	 cl, -20			; ffffffecH
  00033	32 d1		 xor	 dl, cl
  00035	88 55 e9	 mov	 BYTE PTR __k$[ebp+1], dl
  00038	8a 50 02	 mov	 dl, BYTE PTR [eax+2]
  0003b	84 d2		 test	 dl, dl
  0003d	0f 84 1e 01 00
	00		 je	 $LN94@LoadFloat_@2
  00043	80 f2 eb	 xor	 dl, -21			; ffffffebH
  00046	88 55 ea	 mov	 BYTE PTR __k$[ebp+2], dl
  00049	8a 50 03	 mov	 dl, BYTE PTR [eax+3]
  0004c	84 d2		 test	 dl, dl
  0004e	0f 84 07 01 00
	00		 je	 $LN93@LoadFloat_@2
  00054	80 f2 ea	 xor	 dl, -22			; ffffffeaH
  00057	88 55 eb	 mov	 BYTE PTR __k$[ebp+3], dl
  0005a	8a 50 04	 mov	 dl, BYTE PTR [eax+4]
  0005d	84 d2		 test	 dl, dl
  0005f	0f 84 f0 00 00
	00		 je	 $LN92@LoadFloat_@2
  00065	80 f2 ed	 xor	 dl, -19			; ffffffedH
  00068	88 55 ec	 mov	 BYTE PTR __k$[ebp+4], dl
  0006b	8a 50 05	 mov	 dl, BYTE PTR [eax+5]
  0006e	84 d2		 test	 dl, dl
  00070	0f 84 da 00 00
	00		 je	 $LN91@LoadFloat_@2
  00076	32 d1		 xor	 dl, cl
  00078	88 55 ed	 mov	 BYTE PTR __k$[ebp+5], dl
  0007b	8a 50 06	 mov	 dl, BYTE PTR [eax+6]
  0007e	84 d2		 test	 dl, dl
  00080	0f 84 c4 00 00
	00		 je	 $LN90@LoadFloat_@2
  00086	80 f2 eb	 xor	 dl, -21			; ffffffebH
  00089	88 55 ee	 mov	 BYTE PTR __k$[ebp+6], dl
  0008c	8a 50 07	 mov	 dl, BYTE PTR [eax+7]
  0008f	84 d2		 test	 dl, dl
  00091	0f 84 ad 00 00
	00		 je	 $LN89@LoadFloat_@2
  00097	80 f2 ea	 xor	 dl, -22			; ffffffeaH
  0009a	88 55 ef	 mov	 BYTE PTR __k$[ebp+7], dl
  0009d	8a 50 08	 mov	 dl, BYTE PTR [eax+8]
  000a0	84 d2		 test	 dl, dl
  000a2	0f 84 96 00 00
	00		 je	 $LN88@LoadFloat_@2
  000a8	80 f2 ed	 xor	 dl, -19			; ffffffedH
  000ab	88 55 f0	 mov	 BYTE PTR __k$[ebp+8], dl
  000ae	8a 50 09	 mov	 dl, BYTE PTR [eax+9]
  000b1	84 d2		 test	 dl, dl
  000b3	0f 84 80 00 00
	00		 je	 $LN87@LoadFloat_@2
  000b9	32 d1		 xor	 dl, cl
  000bb	88 55 f1	 mov	 BYTE PTR __k$[ebp+9], dl
  000be	8a 50 0a	 mov	 dl, BYTE PTR [eax+10]
  000c1	84 d2		 test	 dl, dl
  000c3	74 6e		 je	 SHORT $LN86@LoadFloat_@2
  000c5	80 f2 eb	 xor	 dl, -21			; ffffffebH
  000c8	88 55 f2	 mov	 BYTE PTR __k$[ebp+10], dl
  000cb	8a 50 0b	 mov	 dl, BYTE PTR [eax+11]
  000ce	84 d2		 test	 dl, dl
  000d0	74 5b		 je	 SHORT $LN85@LoadFloat_@2
  000d2	80 f2 ea	 xor	 dl, -22			; ffffffeaH
  000d5	80 78 0c 00	 cmp	 BYTE PTR [eax+12], 0
  000d9	88 55 f3	 mov	 BYTE PTR __k$[ebp+11], dl
  000dc	0f 84 8f 00 00
	00		 je	 $LN1@LoadFloat_@2
  000e2	8a 50 0d	 mov	 dl, BYTE PTR [eax+13]
  000e5	84 d2		 test	 dl, dl
  000e7	74 3f		 je	 SHORT $LN83@LoadFloat_@2
  000e9	32 d1		 xor	 dl, cl
  000eb	88 55 f5	 mov	 BYTE PTR __k$[ebp+13], dl
  000ee	8a 50 0e	 mov	 dl, BYTE PTR [eax+14]
  000f1	84 d2		 test	 dl, dl
  000f3	74 2d		 je	 SHORT $LN82@LoadFloat_@2
  000f5	80 f2 eb	 xor	 dl, -21			; ffffffebH
  000f8	88 55 f6	 mov	 BYTE PTR __k$[ebp+14], dl
  000fb	8a 50 0f	 mov	 dl, BYTE PTR [eax+15]
  000fe	84 d2		 test	 dl, dl
  00100	74 1a		 je	 SHORT $LN81@LoadFloat_@2
  00102	8a 40 10	 mov	 al, BYTE PTR [eax+16]
  00105	80 f2 ea	 xor	 dl, -22			; ffffffeaH
  00108	88 55 f7	 mov	 BYTE PTR __k$[ebp+15], dl
  0010b	84 c0		 test	 al, al
  0010d	74 07		 je	 SHORT $LN80@LoadFloat_@2
  0010f	34 ed		 xor	 al, -19			; ffffffedH
  00111	88 45 f8	 mov	 BYTE PTR __k$[ebp+16], al
  00114	eb 5b		 jmp	 SHORT $LN1@LoadFloat_@2
$LN80@LoadFloat_@2:
  00116	c6 45 f8 ed	 mov	 BYTE PTR __k$[ebp+16], -19 ; ffffffedH
  0011a	eb 55		 jmp	 SHORT $LN1@LoadFloat_@2
$LN81@LoadFloat_@2:
  0011c	c6 45 f7 ea	 mov	 BYTE PTR __k$[ebp+15], -22 ; ffffffeaH
  00120	eb 4f		 jmp	 SHORT $LN1@LoadFloat_@2
$LN82@LoadFloat_@2:
  00122	c6 45 f6 eb	 mov	 BYTE PTR __k$[ebp+14], -21 ; ffffffebH
  00126	eb 49		 jmp	 SHORT $LN1@LoadFloat_@2
$LN83@LoadFloat_@2:
  00128	88 4d f5	 mov	 BYTE PTR __k$[ebp+13], cl
  0012b	eb 44		 jmp	 SHORT $LN1@LoadFloat_@2
$LN85@LoadFloat_@2:
  0012d	c6 45 f3 ea	 mov	 BYTE PTR __k$[ebp+11], -22 ; ffffffeaH
  00131	eb 3e		 jmp	 SHORT $LN1@LoadFloat_@2
$LN86@LoadFloat_@2:
  00133	c6 45 f2 eb	 mov	 BYTE PTR __k$[ebp+10], -21 ; ffffffebH
  00137	eb 38		 jmp	 SHORT $LN1@LoadFloat_@2
$LN87@LoadFloat_@2:
  00139	88 4d f1	 mov	 BYTE PTR __k$[ebp+9], cl
  0013c	eb 33		 jmp	 SHORT $LN1@LoadFloat_@2
$LN88@LoadFloat_@2:
  0013e	c6 45 f0 ed	 mov	 BYTE PTR __k$[ebp+8], -19 ; ffffffedH
  00142	eb 2d		 jmp	 SHORT $LN1@LoadFloat_@2
$LN89@LoadFloat_@2:
  00144	c6 45 ef ea	 mov	 BYTE PTR __k$[ebp+7], -22 ; ffffffeaH
  00148	eb 27		 jmp	 SHORT $LN1@LoadFloat_@2
$LN90@LoadFloat_@2:
  0014a	c6 45 ee eb	 mov	 BYTE PTR __k$[ebp+6], -21 ; ffffffebH
  0014e	eb 21		 jmp	 SHORT $LN1@LoadFloat_@2
$LN91@LoadFloat_@2:
  00150	88 4d ed	 mov	 BYTE PTR __k$[ebp+5], cl
  00153	eb 1c		 jmp	 SHORT $LN1@LoadFloat_@2
$LN92@LoadFloat_@2:
  00155	c6 45 ec ed	 mov	 BYTE PTR __k$[ebp+4], -19 ; ffffffedH
  00159	eb 16		 jmp	 SHORT $LN1@LoadFloat_@2
$LN93@LoadFloat_@2:
  0015b	c6 45 eb ea	 mov	 BYTE PTR __k$[ebp+3], -22 ; ffffffeaH
  0015f	eb 10		 jmp	 SHORT $LN1@LoadFloat_@2
$LN94@LoadFloat_@2:
  00161	c6 45 ea eb	 mov	 BYTE PTR __k$[ebp+2], -21 ; ffffffebH
  00165	eb 0a		 jmp	 SHORT $LN1@LoadFloat_@2
$LN95@LoadFloat_@2:
  00167	c6 45 e9 ec	 mov	 BYTE PTR __k$[ebp+1], -20 ; ffffffecH
  0016b	eb 04		 jmp	 SHORT $LN1@LoadFloat_@2
$LN96@LoadFloat_@2:
  0016d	c6 45 e8 ed	 mov	 BYTE PTR __k$[ebp], -19	; ffffffedH
$LN1@LoadFloat_@2:
  00171	6a 03		 push	 3
  00173	8d 45 e8	 lea	 eax, DWORD PTR __k$[ebp]
  00176	c6 45 f4 00	 mov	 BYTE PTR __k$[ebp+12], 0
  0017a	5a		 pop	 edx
$LL104@LoadFloat_@2:
  0017b	81 30 ed ec eb
	ea		 xor	 DWORD PTR [eax], -353637139 ; eaebecedH
  00181	83 c0 04	 add	 eax, 4
  00184	4a		 dec	 edx
  00185	75 f4		 jne	 SHORT $LL104@LoadFloat_@2

; 137  : 		return LoadFloat(_k, f);

  00187	f3 0f 10 45 0c	 movss	 xmm0, DWORD PTR _f$[ebp]
  0018c	51		 push	 ecx
  0018d	8d 45 e8	 lea	 eax, DWORD PTR __k$[ebp]
  00190	f3 0f 11 04 24	 movss	 DWORD PTR [esp], xmm0
  00195	50		 push	 eax
  00196	8b ce		 mov	 ecx, esi
  00198	ff 15 00 00 00
	00		 call	 DWORD PTR __imp_?LoadFloat@ioINILoader@@QAEMPBDM@Z

; 138  : 	}

  0019e	8b 4d fc	 mov	 ecx, DWORD PTR __$ArrayPad$[ebp]
  001a1	33 cd		 xor	 ecx, ebp
  001a3	5e		 pop	 esi
  001a4	e8 00 00 00 00	 call	 @__security_check_cookie@4
  001a9	c9		 leave
  001aa	c2 08 00	 ret	 8
??$LoadFloat_e@$0N@@ioINILoader@@QAEMAAY0N@$$CBDM@Z ENDP ; ioINILoader::LoadFloat_e<13>
_TEXT	ENDS
PUBLIC	__$ArrayPad$
PUBLIC	??$LoadFloat_e@$0BD@@ioINILoader@@QAEMAAY0BD@$$CBDM@Z ; ioINILoader::LoadFloat_e<19>
; Function compile flags: /Ogsp
;	COMDAT ??$LoadFloat_e@$0BD@@ioINILoader@@QAEMAAY0BD@$$CBDM@Z
_TEXT	SEGMENT
__k$ = -28						; size = 19
__$ArrayPad$ = -4					; size = 4
_k$ = 8							; size = 4
_f$ = 12						; size = 4
??$LoadFloat_e@$0BD@@ioINILoader@@QAEMAAY0BD@$$CBDM@Z PROC ; ioINILoader::LoadFloat_e<19>, COMDAT
; _this$ = ecx

; 135  : 	{

  00000	55		 push	 ebp
  00001	8b ec		 mov	 ebp, esp
  00003	83 ec 1c	 sub	 esp, 28			; 0000001cH
  00006	a1 00 00 00 00	 mov	 eax, DWORD PTR ___security_cookie
  0000b	33 c5		 xor	 eax, ebp
  0000d	89 45 fc	 mov	 DWORD PTR __$ArrayPad$[ebp], eax
  00010	8b 45 08	 mov	 eax, DWORD PTR _k$[ebp]

; 136  : 		_ENCSTR(k, _k);

  00013	8a 10		 mov	 dl, BYTE PTR [eax]
  00015	56		 push	 esi
  00016	8b f1		 mov	 esi, ecx
  00018	84 d2		 test	 dl, dl
  0001a	0f 84 cf 01 00
	00		 je	 $LN96@LoadFloat_@3
  00020	80 f2 ed	 xor	 dl, -19			; ffffffedH
  00023	88 55 e4	 mov	 BYTE PTR __k$[ebp], dl
  00026	8a 50 01	 mov	 dl, BYTE PTR [eax+1]
  00029	84 d2		 test	 dl, dl
  0002b	0f 84 b8 01 00
	00		 je	 $LN95@LoadFloat_@3
  00031	b1 ec		 mov	 cl, -20			; ffffffecH
  00033	32 d1		 xor	 dl, cl
  00035	88 55 e5	 mov	 BYTE PTR __k$[ebp+1], dl
  00038	8a 50 02	 mov	 dl, BYTE PTR [eax+2]
  0003b	84 d2		 test	 dl, dl
  0003d	0f 84 a0 01 00
	00		 je	 $LN94@LoadFloat_@3
  00043	80 f2 eb	 xor	 dl, -21			; ffffffebH
  00046	88 55 e6	 mov	 BYTE PTR __k$[ebp+2], dl
  00049	8a 50 03	 mov	 dl, BYTE PTR [eax+3]
  0004c	84 d2		 test	 dl, dl
  0004e	0f 84 89 01 00
	00		 je	 $LN93@LoadFloat_@3
  00054	80 f2 ea	 xor	 dl, -22			; ffffffeaH
  00057	88 55 e7	 mov	 BYTE PTR __k$[ebp+3], dl
  0005a	8a 50 04	 mov	 dl, BYTE PTR [eax+4]
  0005d	84 d2		 test	 dl, dl
  0005f	0f 84 72 01 00
	00		 je	 $LN92@LoadFloat_@3
  00065	80 f2 ed	 xor	 dl, -19			; ffffffedH
  00068	88 55 e8	 mov	 BYTE PTR __k$[ebp+4], dl
  0006b	8a 50 05	 mov	 dl, BYTE PTR [eax+5]
  0006e	84 d2		 test	 dl, dl
  00070	0f 84 5c 01 00
	00		 je	 $LN91@LoadFloat_@3
  00076	32 d1		 xor	 dl, cl
  00078	88 55 e9	 mov	 BYTE PTR __k$[ebp+5], dl
  0007b	8a 50 06	 mov	 dl, BYTE PTR [eax+6]
  0007e	84 d2		 test	 dl, dl
  00080	0f 84 46 01 00
	00		 je	 $LN90@LoadFloat_@3
  00086	80 f2 eb	 xor	 dl, -21			; ffffffebH
  00089	88 55 ea	 mov	 BYTE PTR __k$[ebp+6], dl
  0008c	8a 50 07	 mov	 dl, BYTE PTR [eax+7]
  0008f	84 d2		 test	 dl, dl
  00091	0f 84 2f 01 00
	00		 je	 $LN89@LoadFloat_@3
  00097	80 f2 ea	 xor	 dl, -22			; ffffffeaH
  0009a	88 55 eb	 mov	 BYTE PTR __k$[ebp+7], dl
  0009d	8a 50 08	 mov	 dl, BYTE PTR [eax+8]
  000a0	84 d2		 test	 dl, dl
  000a2	0f 84 18 01 00
	00		 je	 $LN88@LoadFloat_@3
  000a8	80 f2 ed	 xor	 dl, -19			; ffffffedH
  000ab	88 55 ec	 mov	 BYTE PTR __k$[ebp+8], dl
  000ae	8a 50 09	 mov	 dl, BYTE PTR [eax+9]
  000b1	84 d2		 test	 dl, dl
  000b3	0f 84 02 01 00
	00		 je	 $LN87@LoadFloat_@3
  000b9	32 d1		 xor	 dl, cl
  000bb	88 55 ed	 mov	 BYTE PTR __k$[ebp+9], dl
  000be	8a 50 0a	 mov	 dl, BYTE PTR [eax+10]
  000c1	84 d2		 test	 dl, dl
  000c3	0f 84 ec 00 00
	00		 je	 $LN86@LoadFloat_@3
  000c9	80 f2 eb	 xor	 dl, -21			; ffffffebH
  000cc	88 55 ee	 mov	 BYTE PTR __k$[ebp+10], dl
  000cf	8a 50 0b	 mov	 dl, BYTE PTR [eax+11]
  000d2	84 d2		 test	 dl, dl
  000d4	0f 84 d5 00 00
	00		 je	 $LN85@LoadFloat_@3
  000da	80 f2 ea	 xor	 dl, -22			; ffffffeaH
  000dd	88 55 ef	 mov	 BYTE PTR __k$[ebp+11], dl
  000e0	8a 50 0c	 mov	 dl, BYTE PTR [eax+12]
  000e3	84 d2		 test	 dl, dl
  000e5	0f 84 be 00 00
	00		 je	 $LN84@LoadFloat_@3
  000eb	80 f2 ed	 xor	 dl, -19			; ffffffedH
  000ee	88 55 f0	 mov	 BYTE PTR __k$[ebp+12], dl
  000f1	8a 50 0d	 mov	 dl, BYTE PTR [eax+13]
  000f4	84 d2		 test	 dl, dl
  000f6	0f 84 a8 00 00
	00		 je	 $LN83@LoadFloat_@3
  000fc	32 d1		 xor	 dl, cl
  000fe	88 55 f1	 mov	 BYTE PTR __k$[ebp+13], dl
  00101	8a 50 0e	 mov	 dl, BYTE PTR [eax+14]
  00104	84 d2		 test	 dl, dl
  00106	0f 84 92 00 00
	00		 je	 $LN82@LoadFloat_@3
  0010c	80 f2 eb	 xor	 dl, -21			; ffffffebH
  0010f	88 55 f2	 mov	 BYTE PTR __k$[ebp+14], dl
  00112	8a 50 0f	 mov	 dl, BYTE PTR [eax+15]
  00115	84 d2		 test	 dl, dl
  00117	74 7f		 je	 SHORT $LN81@LoadFloat_@3
  00119	80 f2 ea	 xor	 dl, -22			; ffffffeaH
  0011c	88 55 f3	 mov	 BYTE PTR __k$[ebp+15], dl
  0011f	8a 50 10	 mov	 dl, BYTE PTR [eax+16]
  00122	84 d2		 test	 dl, dl
  00124	74 6c		 je	 SHORT $LN80@LoadFloat_@3
  00126	80 f2 ed	 xor	 dl, -19			; ffffffedH
  00129	88 55 f4	 mov	 BYTE PTR __k$[ebp+16], dl
  0012c	8a 50 11	 mov	 dl, BYTE PTR [eax+17]
  0012f	84 d2		 test	 dl, dl
  00131	74 5a		 je	 SHORT $LN79@LoadFloat_@3
  00133	32 d1		 xor	 dl, cl
  00135	80 78 12 00	 cmp	 BYTE PTR [eax+18], 0
  00139	88 55 f5	 mov	 BYTE PTR __k$[ebp+17], dl
  0013c	0f 84 b1 00 00
	00		 je	 $LN1@LoadFloat_@3
  00142	8a 50 13	 mov	 dl, BYTE PTR [eax+19]
  00145	84 d2		 test	 dl, dl
  00147	74 3e		 je	 SHORT $LN77@LoadFloat_@3
  00149	80 f2 ea	 xor	 dl, -22			; ffffffeaH
  0014c	88 55 f7	 mov	 BYTE PTR __k$[ebp+19], dl
  0014f	8a 50 14	 mov	 dl, BYTE PTR [eax+20]
  00152	84 d2		 test	 dl, dl
  00154	74 2b		 je	 SHORT $LN76@LoadFloat_@3
  00156	80 f2 ed	 xor	 dl, -19			; ffffffedH
  00159	88 55 f8	 mov	 BYTE PTR __k$[ebp+20], dl
  0015c	8a 50 15	 mov	 dl, BYTE PTR [eax+21]
  0015f	84 d2		 test	 dl, dl
  00161	74 19		 je	 SHORT $LN75@LoadFloat_@3
  00163	8a 40 16	 mov	 al, BYTE PTR [eax+22]
  00166	32 d1		 xor	 dl, cl
  00168	88 55 f9	 mov	 BYTE PTR __k$[ebp+21], dl
  0016b	84 c0		 test	 al, al
  0016d	74 07		 je	 SHORT $LN74@LoadFloat_@3
  0016f	34 eb		 xor	 al, -21			; ffffffebH
  00171	88 45 fa	 mov	 BYTE PTR __k$[ebp+22], al
  00174	eb 7d		 jmp	 SHORT $LN1@LoadFloat_@3
$LN74@LoadFloat_@3:
  00176	c6 45 fa eb	 mov	 BYTE PTR __k$[ebp+22], -21 ; ffffffebH
  0017a	eb 77		 jmp	 SHORT $LN1@LoadFloat_@3
$LN75@LoadFloat_@3:
  0017c	88 4d f9	 mov	 BYTE PTR __k$[ebp+21], cl
  0017f	eb 72		 jmp	 SHORT $LN1@LoadFloat_@3
$LN76@LoadFloat_@3:
  00181	c6 45 f8 ed	 mov	 BYTE PTR __k$[ebp+20], -19 ; ffffffedH
  00185	eb 6c		 jmp	 SHORT $LN1@LoadFloat_@3
$LN77@LoadFloat_@3:
  00187	c6 45 f7 ea	 mov	 BYTE PTR __k$[ebp+19], -22 ; ffffffeaH
  0018b	eb 66		 jmp	 SHORT $LN1@LoadFloat_@3
$LN79@LoadFloat_@3:
  0018d	88 4d f5	 mov	 BYTE PTR __k$[ebp+17], cl
  00190	eb 61		 jmp	 SHORT $LN1@LoadFloat_@3
$LN80@LoadFloat_@3:
  00192	c6 45 f4 ed	 mov	 BYTE PTR __k$[ebp+16], -19 ; ffffffedH
  00196	eb 5b		 jmp	 SHORT $LN1@LoadFloat_@3
$LN81@LoadFloat_@3:
  00198	c6 45 f3 ea	 mov	 BYTE PTR __k$[ebp+15], -22 ; ffffffeaH
  0019c	eb 55		 jmp	 SHORT $LN1@LoadFloat_@3
$LN82@LoadFloat_@3:
  0019e	c6 45 f2 eb	 mov	 BYTE PTR __k$[ebp+14], -21 ; ffffffebH
  001a2	eb 4f		 jmp	 SHORT $LN1@LoadFloat_@3
$LN83@LoadFloat_@3:
  001a4	88 4d f1	 mov	 BYTE PTR __k$[ebp+13], cl
  001a7	eb 4a		 jmp	 SHORT $LN1@LoadFloat_@3
$LN84@LoadFloat_@3:
  001a9	c6 45 f0 ed	 mov	 BYTE PTR __k$[ebp+12], -19 ; ffffffedH
  001ad	eb 44		 jmp	 SHORT $LN1@LoadFloat_@3
$LN85@LoadFloat_@3:
  001af	c6 45 ef ea	 mov	 BYTE PTR __k$[ebp+11], -22 ; ffffffeaH
  001b3	eb 3e		 jmp	 SHORT $LN1@LoadFloat_@3
$LN86@LoadFloat_@3:
  001b5	c6 45 ee eb	 mov	 BYTE PTR __k$[ebp+10], -21 ; ffffffebH
  001b9	eb 38		 jmp	 SHORT $LN1@LoadFloat_@3
$LN87@LoadFloat_@3:
  001bb	88 4d ed	 mov	 BYTE PTR __k$[ebp+9], cl
  001be	eb 33		 jmp	 SHORT $LN1@LoadFloat_@3
$LN88@LoadFloat_@3:
  001c0	c6 45 ec ed	 mov	 BYTE PTR __k$[ebp+8], -19 ; ffffffedH
  001c4	eb 2d		 jmp	 SHORT $LN1@LoadFloat_@3
$LN89@LoadFloat_@3:
  001c6	c6 45 eb ea	 mov	 BYTE PTR __k$[ebp+7], -22 ; ffffffeaH
  001ca	eb 27		 jmp	 SHORT $LN1@LoadFloat_@3
$LN90@LoadFloat_@3:
  001cc	c6 45 ea eb	 mov	 BYTE PTR __k$[ebp+6], -21 ; ffffffebH
  001d0	eb 21		 jmp	 SHORT $LN1@LoadFloat_@3
$LN91@LoadFloat_@3:
  001d2	88 4d e9	 mov	 BYTE PTR __k$[ebp+5], cl
  001d5	eb 1c		 jmp	 SHORT $LN1@LoadFloat_@3
$LN92@LoadFloat_@3:
  001d7	c6 45 e8 ed	 mov	 BYTE PTR __k$[ebp+4], -19 ; ffffffedH
  001db	eb 16		 jmp	 SHORT $LN1@LoadFloat_@3
$LN93@LoadFloat_@3:
  001dd	c6 45 e7 ea	 mov	 BYTE PTR __k$[ebp+3], -22 ; ffffffeaH
  001e1	eb 10		 jmp	 SHORT $LN1@LoadFloat_@3
$LN94@LoadFloat_@3:
  001e3	c6 45 e6 eb	 mov	 BYTE PTR __k$[ebp+2], -21 ; ffffffebH
  001e7	eb 0a		 jmp	 SHORT $LN1@LoadFloat_@3
$LN95@LoadFloat_@3:
  001e9	c6 45 e5 ec	 mov	 BYTE PTR __k$[ebp+1], -20 ; ffffffecH
  001ed	eb 04		 jmp	 SHORT $LN1@LoadFloat_@3
$LN96@LoadFloat_@3:
  001ef	c6 45 e4 ed	 mov	 BYTE PTR __k$[ebp], -19	; ffffffedH
$LN1@LoadFloat_@3:
  001f3	6a 04		 push	 4
  001f5	8d 45 e4	 lea	 eax, DWORD PTR __k$[ebp]
  001f8	c6 45 f6 00	 mov	 BYTE PTR __k$[ebp+18], 0
  001fc	5a		 pop	 edx
$LL104@LoadFloat_@3:
  001fd	81 30 ed ec eb
	ea		 xor	 DWORD PTR [eax], -353637139 ; eaebecedH
  00203	83 c0 04	 add	 eax, 4
  00206	4a		 dec	 edx
  00207	75 f4		 jne	 SHORT $LL104@LoadFloat_@3
  00209	6a 10		 push	 16			; 00000010H
  0020b	58		 pop	 eax
$LL101@LoadFloat_@3:
  0020c	8b c8		 mov	 ecx, eax
  0020e	81 e1 03 00 00
	80		 and	 ecx, -2147483645	; 80000003H
  00214	79 05		 jns	 SHORT $LN111@LoadFloat_@3
  00216	49		 dec	 ecx
  00217	83 c9 fc	 or	 ecx, -4			; fffffffcH
  0021a	41		 inc	 ecx
$LN111@LoadFloat_@3:
  0021b	b2 ed		 mov	 dl, -19			; ffffffedH
  0021d	2a d1		 sub	 dl, cl
  0021f	30 54 05 e4	 xor	 BYTE PTR __k$[ebp+eax], dl
  00223	40		 inc	 eax
  00224	83 f8 12	 cmp	 eax, 18			; 00000012H
  00227	7c e3		 jl	 SHORT $LL101@LoadFloat_@3

; 137  : 		return LoadFloat(_k, f);

  00229	f3 0f 10 45 0c	 movss	 xmm0, DWORD PTR _f$[ebp]
  0022e	51		 push	 ecx
  0022f	8d 45 e4	 lea	 eax, DWORD PTR __k$[ebp]
  00232	f3 0f 11 04 24	 movss	 DWORD PTR [esp], xmm0
  00237	50		 push	 eax
  00238	8b ce		 mov	 ecx, esi
  0023a	ff 15 00 00 00
	00		 call	 DWORD PTR __imp_?LoadFloat@ioINILoader@@QAEMPBDM@Z

; 138  : 	}

  00240	8b 4d fc	 mov	 ecx, DWORD PTR __$ArrayPad$[ebp]
  00243	33 cd		 xor	 ecx, ebp
  00245	5e		 pop	 esi
  00246	e8 00 00 00 00	 call	 @__security_check_cookie@4
  0024b	c9		 leave
  0024c	c2 08 00	 ret	 8
??$LoadFloat_e@$0BD@@ioINILoader@@QAEMAAY0BD@$$CBDM@Z ENDP ; ioINILoader::LoadFloat_e<19>
_TEXT	ENDS
PUBLIC	__$ArrayPad$
PUBLIC	??$LoadInt_e@$0BB@@ioINILoader@@QAEHAAY0BB@$$CBDH@Z ; ioINILoader::LoadInt_e<17>
EXTRN	__imp_?LoadInt@ioINILoader@@QAEHPBDH@Z:PROC
; Function compile flags: /Ogsp
;	COMDAT ??$LoadInt_e@$0BB@@ioINILoader@@QAEHAAY0BB@$$CBDH@Z
_TEXT	SEGMENT
__k$ = -28						; size = 17
__$ArrayPad$ = -4					; size = 4
_k$ = 8							; size = 4
_i$ = 12						; size = 4
??$LoadInt_e@$0BB@@ioINILoader@@QAEHAAY0BB@$$CBDH@Z PROC ; ioINILoader::LoadInt_e<17>, COMDAT
; _this$ = ecx

; 118  : 	{

  00000	55		 push	 ebp
  00001	8b ec		 mov	 ebp, esp
  00003	83 ec 1c	 sub	 esp, 28			; 0000001cH
  00006	a1 00 00 00 00	 mov	 eax, DWORD PTR ___security_cookie
  0000b	33 c5		 xor	 eax, ebp
  0000d	89 45 fc	 mov	 DWORD PTR __$ArrayPad$[ebp], eax
  00010	8b 45 08	 mov	 eax, DWORD PTR _k$[ebp]

; 119  : 		_ENCSTR(k, _k);

  00013	8a 10		 mov	 dl, BYTE PTR [eax]
  00015	56		 push	 esi
  00016	8b f1		 mov	 esi, ecx
  00018	84 d2		 test	 dl, dl
  0001a	0f 84 a7 01 00
	00		 je	 $LN96@LoadInt_e
  00020	80 f2 ed	 xor	 dl, -19			; ffffffedH
  00023	88 55 e4	 mov	 BYTE PTR __k$[ebp], dl
  00026	8a 50 01	 mov	 dl, BYTE PTR [eax+1]
  00029	84 d2		 test	 dl, dl
  0002b	0f 84 90 01 00
	00		 je	 $LN95@LoadInt_e
  00031	b1 ec		 mov	 cl, -20			; ffffffecH
  00033	32 d1		 xor	 dl, cl
  00035	88 55 e5	 mov	 BYTE PTR __k$[ebp+1], dl
  00038	8a 50 02	 mov	 dl, BYTE PTR [eax+2]
  0003b	84 d2		 test	 dl, dl
  0003d	0f 84 78 01 00
	00		 je	 $LN94@LoadInt_e
  00043	80 f2 eb	 xor	 dl, -21			; ffffffebH
  00046	88 55 e6	 mov	 BYTE PTR __k$[ebp+2], dl
  00049	8a 50 03	 mov	 dl, BYTE PTR [eax+3]
  0004c	84 d2		 test	 dl, dl
  0004e	0f 84 61 01 00
	00		 je	 $LN93@LoadInt_e
  00054	80 f2 ea	 xor	 dl, -22			; ffffffeaH
  00057	88 55 e7	 mov	 BYTE PTR __k$[ebp+3], dl
  0005a	8a 50 04	 mov	 dl, BYTE PTR [eax+4]
  0005d	84 d2		 test	 dl, dl
  0005f	0f 84 4a 01 00
	00		 je	 $LN92@LoadInt_e
  00065	80 f2 ed	 xor	 dl, -19			; ffffffedH
  00068	88 55 e8	 mov	 BYTE PTR __k$[ebp+4], dl
  0006b	8a 50 05	 mov	 dl, BYTE PTR [eax+5]
  0006e	84 d2		 test	 dl, dl
  00070	0f 84 34 01 00
	00		 je	 $LN91@LoadInt_e
  00076	32 d1		 xor	 dl, cl
  00078	88 55 e9	 mov	 BYTE PTR __k$[ebp+5], dl
  0007b	8a 50 06	 mov	 dl, BYTE PTR [eax+6]
  0007e	84 d2		 test	 dl, dl
  00080	0f 84 1e 01 00
	00		 je	 $LN90@LoadInt_e
  00086	80 f2 eb	 xor	 dl, -21			; ffffffebH
  00089	88 55 ea	 mov	 BYTE PTR __k$[ebp+6], dl
  0008c	8a 50 07	 mov	 dl, BYTE PTR [eax+7]
  0008f	84 d2		 test	 dl, dl
  00091	0f 84 07 01 00
	00		 je	 $LN89@LoadInt_e
  00097	80 f2 ea	 xor	 dl, -22			; ffffffeaH
  0009a	88 55 eb	 mov	 BYTE PTR __k$[ebp+7], dl
  0009d	8a 50 08	 mov	 dl, BYTE PTR [eax+8]
  000a0	84 d2		 test	 dl, dl
  000a2	0f 84 f0 00 00
	00		 je	 $LN88@LoadInt_e
  000a8	80 f2 ed	 xor	 dl, -19			; ffffffedH
  000ab	88 55 ec	 mov	 BYTE PTR __k$[ebp+8], dl
  000ae	8a 50 09	 mov	 dl, BYTE PTR [eax+9]
  000b1	84 d2		 test	 dl, dl
  000b3	0f 84 da 00 00
	00		 je	 $LN87@LoadInt_e
  000b9	32 d1		 xor	 dl, cl
  000bb	88 55 ed	 mov	 BYTE PTR __k$[ebp+9], dl
  000be	8a 50 0a	 mov	 dl, BYTE PTR [eax+10]
  000c1	84 d2		 test	 dl, dl
  000c3	0f 84 c4 00 00
	00		 je	 $LN86@LoadInt_e
  000c9	80 f2 eb	 xor	 dl, -21			; ffffffebH
  000cc	88 55 ee	 mov	 BYTE PTR __k$[ebp+10], dl
  000cf	8a 50 0b	 mov	 dl, BYTE PTR [eax+11]
  000d2	84 d2		 test	 dl, dl
  000d4	0f 84 ad 00 00
	00		 je	 $LN85@LoadInt_e
  000da	80 f2 ea	 xor	 dl, -22			; ffffffeaH
  000dd	88 55 ef	 mov	 BYTE PTR __k$[ebp+11], dl
  000e0	8a 50 0c	 mov	 dl, BYTE PTR [eax+12]
  000e3	84 d2		 test	 dl, dl
  000e5	0f 84 96 00 00
	00		 je	 $LN84@LoadInt_e
  000eb	80 f2 ed	 xor	 dl, -19			; ffffffedH
  000ee	88 55 f0	 mov	 BYTE PTR __k$[ebp+12], dl
  000f1	8a 50 0d	 mov	 dl, BYTE PTR [eax+13]
  000f4	84 d2		 test	 dl, dl
  000f6	0f 84 80 00 00
	00		 je	 $LN83@LoadInt_e
  000fc	32 d1		 xor	 dl, cl
  000fe	88 55 f1	 mov	 BYTE PTR __k$[ebp+13], dl
  00101	8a 50 0e	 mov	 dl, BYTE PTR [eax+14]
  00104	84 d2		 test	 dl, dl
  00106	74 6e		 je	 SHORT $LN82@LoadInt_e
  00108	80 f2 eb	 xor	 dl, -21			; ffffffebH
  0010b	88 55 f2	 mov	 BYTE PTR __k$[ebp+14], dl
  0010e	8a 50 0f	 mov	 dl, BYTE PTR [eax+15]
  00111	84 d2		 test	 dl, dl
  00113	74 5b		 je	 SHORT $LN81@LoadInt_e
  00115	80 f2 ea	 xor	 dl, -22			; ffffffeaH
  00118	80 78 10 00	 cmp	 BYTE PTR [eax+16], 0
  0011c	88 55 f3	 mov	 BYTE PTR __k$[ebp+15], dl
  0011f	0f 84 a6 00 00
	00		 je	 $LN1@LoadInt_e
  00125	8a 50 11	 mov	 dl, BYTE PTR [eax+17]
  00128	84 d2		 test	 dl, dl
  0012a	74 3f		 je	 SHORT $LN79@LoadInt_e
  0012c	32 d1		 xor	 dl, cl
  0012e	88 55 f5	 mov	 BYTE PTR __k$[ebp+17], dl
  00131	8a 50 12	 mov	 dl, BYTE PTR [eax+18]
  00134	84 d2		 test	 dl, dl
  00136	74 2d		 je	 SHORT $LN78@LoadInt_e
  00138	80 f2 eb	 xor	 dl, -21			; ffffffebH
  0013b	88 55 f6	 mov	 BYTE PTR __k$[ebp+18], dl
  0013e	8a 50 13	 mov	 dl, BYTE PTR [eax+19]
  00141	84 d2		 test	 dl, dl
  00143	74 1a		 je	 SHORT $LN77@LoadInt_e
  00145	8a 40 14	 mov	 al, BYTE PTR [eax+20]
  00148	80 f2 ea	 xor	 dl, -22			; ffffffeaH
  0014b	88 55 f7	 mov	 BYTE PTR __k$[ebp+19], dl
  0014e	84 c0		 test	 al, al
  00150	74 07		 je	 SHORT $LN76@LoadInt_e
  00152	34 ed		 xor	 al, -19			; ffffffedH
  00154	88 45 f8	 mov	 BYTE PTR __k$[ebp+20], al
  00157	eb 72		 jmp	 SHORT $LN1@LoadInt_e
$LN76@LoadInt_e:
  00159	c6 45 f8 ed	 mov	 BYTE PTR __k$[ebp+20], -19 ; ffffffedH
  0015d	eb 6c		 jmp	 SHORT $LN1@LoadInt_e
$LN77@LoadInt_e:
  0015f	c6 45 f7 ea	 mov	 BYTE PTR __k$[ebp+19], -22 ; ffffffeaH
  00163	eb 66		 jmp	 SHORT $LN1@LoadInt_e
$LN78@LoadInt_e:
  00165	c6 45 f6 eb	 mov	 BYTE PTR __k$[ebp+18], -21 ; ffffffebH
  00169	eb 60		 jmp	 SHORT $LN1@LoadInt_e
$LN79@LoadInt_e:
  0016b	88 4d f5	 mov	 BYTE PTR __k$[ebp+17], cl
  0016e	eb 5b		 jmp	 SHORT $LN1@LoadInt_e
$LN81@LoadInt_e:
  00170	c6 45 f3 ea	 mov	 BYTE PTR __k$[ebp+15], -22 ; ffffffeaH
  00174	eb 55		 jmp	 SHORT $LN1@LoadInt_e
$LN82@LoadInt_e:
  00176	c6 45 f2 eb	 mov	 BYTE PTR __k$[ebp+14], -21 ; ffffffebH
  0017a	eb 4f		 jmp	 SHORT $LN1@LoadInt_e
$LN83@LoadInt_e:
  0017c	88 4d f1	 mov	 BYTE PTR __k$[ebp+13], cl
  0017f	eb 4a		 jmp	 SHORT $LN1@LoadInt_e
$LN84@LoadInt_e:
  00181	c6 45 f0 ed	 mov	 BYTE PTR __k$[ebp+12], -19 ; ffffffedH
  00185	eb 44		 jmp	 SHORT $LN1@LoadInt_e
$LN85@LoadInt_e:
  00187	c6 45 ef ea	 mov	 BYTE PTR __k$[ebp+11], -22 ; ffffffeaH
  0018b	eb 3e		 jmp	 SHORT $LN1@LoadInt_e
$LN86@LoadInt_e:
  0018d	c6 45 ee eb	 mov	 BYTE PTR __k$[ebp+10], -21 ; ffffffebH
  00191	eb 38		 jmp	 SHORT $LN1@LoadInt_e
$LN87@LoadInt_e:
  00193	88 4d ed	 mov	 BYTE PTR __k$[ebp+9], cl
  00196	eb 33		 jmp	 SHORT $LN1@LoadInt_e
$LN88@LoadInt_e:
  00198	c6 45 ec ed	 mov	 BYTE PTR __k$[ebp+8], -19 ; ffffffedH
  0019c	eb 2d		 jmp	 SHORT $LN1@LoadInt_e
$LN89@LoadInt_e:
  0019e	c6 45 eb ea	 mov	 BYTE PTR __k$[ebp+7], -22 ; ffffffeaH
  001a2	eb 27		 jmp	 SHORT $LN1@LoadInt_e
$LN90@LoadInt_e:
  001a4	c6 45 ea eb	 mov	 BYTE PTR __k$[ebp+6], -21 ; ffffffebH
  001a8	eb 21		 jmp	 SHORT $LN1@LoadInt_e
$LN91@LoadInt_e:
  001aa	88 4d e9	 mov	 BYTE PTR __k$[ebp+5], cl
  001ad	eb 1c		 jmp	 SHORT $LN1@LoadInt_e
$LN92@LoadInt_e:
  001af	c6 45 e8 ed	 mov	 BYTE PTR __k$[ebp+4], -19 ; ffffffedH
  001b3	eb 16		 jmp	 SHORT $LN1@LoadInt_e
$LN93@LoadInt_e:
  001b5	c6 45 e7 ea	 mov	 BYTE PTR __k$[ebp+3], -22 ; ffffffeaH
  001b9	eb 10		 jmp	 SHORT $LN1@LoadInt_e
$LN94@LoadInt_e:
  001bb	c6 45 e6 eb	 mov	 BYTE PTR __k$[ebp+2], -21 ; ffffffebH
  001bf	eb 0a		 jmp	 SHORT $LN1@LoadInt_e
$LN95@LoadInt_e:
  001c1	c6 45 e5 ec	 mov	 BYTE PTR __k$[ebp+1], -20 ; ffffffecH
  001c5	eb 04		 jmp	 SHORT $LN1@LoadInt_e
$LN96@LoadInt_e:
  001c7	c6 45 e4 ed	 mov	 BYTE PTR __k$[ebp], -19	; ffffffedH
$LN1@LoadInt_e:
  001cb	6a 04		 push	 4
  001cd	8d 45 e4	 lea	 eax, DWORD PTR __k$[ebp]
  001d0	c6 45 f4 00	 mov	 BYTE PTR __k$[ebp+16], 0
  001d4	5a		 pop	 edx
$LL104@LoadInt_e:
  001d5	81 30 ed ec eb
	ea		 xor	 DWORD PTR [eax], -353637139 ; eaebecedH
  001db	83 c0 04	 add	 eax, 4
  001de	4a		 dec	 edx
  001df	75 f4		 jne	 SHORT $LL104@LoadInt_e

; 120  : 		return LoadInt(_k, i);

  001e1	ff 75 0c	 push	 DWORD PTR _i$[ebp]
  001e4	8d 45 e4	 lea	 eax, DWORD PTR __k$[ebp]
  001e7	50		 push	 eax
  001e8	8b ce		 mov	 ecx, esi
  001ea	ff 15 00 00 00
	00		 call	 DWORD PTR __imp_?LoadInt@ioINILoader@@QAEHPBDH@Z

; 121  : 	}

  001f0	8b 4d fc	 mov	 ecx, DWORD PTR __$ArrayPad$[ebp]
  001f3	33 cd		 xor	 ecx, ebp
  001f5	5e		 pop	 esi
  001f6	e8 00 00 00 00	 call	 @__security_check_cookie@4
  001fb	c9		 leave
  001fc	c2 08 00	 ret	 8
??$LoadInt_e@$0BB@@ioINILoader@@QAEHAAY0BB@$$CBDH@Z ENDP ; ioINILoader::LoadInt_e<17>
_TEXT	ENDS
PUBLIC	__$ArrayPad$
PUBLIC	??$LoadFloat_e@$0BB@@ioINILoader@@QAEMAAY0BB@$$CBDM@Z ; ioINILoader::LoadFloat_e<17>
; Function compile flags: /Ogsp
;	COMDAT ??$LoadFloat_e@$0BB@@ioINILoader@@QAEMAAY0BB@$$CBDM@Z
_TEXT	SEGMENT
__k$ = -28						; size = 17
__$ArrayPad$ = -4					; size = 4
_k$ = 8							; size = 4
_f$ = 12						; size = 4
??$LoadFloat_e@$0BB@@ioINILoader@@QAEMAAY0BB@$$CBDM@Z PROC ; ioINILoader::LoadFloat_e<17>, COMDAT
; _this$ = ecx

; 135  : 	{

  00000	55		 push	 ebp
  00001	8b ec		 mov	 ebp, esp
  00003	83 ec 1c	 sub	 esp, 28			; 0000001cH
  00006	a1 00 00 00 00	 mov	 eax, DWORD PTR ___security_cookie
  0000b	33 c5		 xor	 eax, ebp
  0000d	89 45 fc	 mov	 DWORD PTR __$ArrayPad$[ebp], eax
  00010	8b 45 08	 mov	 eax, DWORD PTR _k$[ebp]

; 136  : 		_ENCSTR(k, _k);

  00013	8a 10		 mov	 dl, BYTE PTR [eax]
  00015	56		 push	 esi
  00016	8b f1		 mov	 esi, ecx
  00018	84 d2		 test	 dl, dl
  0001a	0f 84 a7 01 00
	00		 je	 $LN96@LoadFloat_@4
  00020	80 f2 ed	 xor	 dl, -19			; ffffffedH
  00023	88 55 e4	 mov	 BYTE PTR __k$[ebp], dl
  00026	8a 50 01	 mov	 dl, BYTE PTR [eax+1]
  00029	84 d2		 test	 dl, dl
  0002b	0f 84 90 01 00
	00		 je	 $LN95@LoadFloat_@4
  00031	b1 ec		 mov	 cl, -20			; ffffffecH
  00033	32 d1		 xor	 dl, cl
  00035	88 55 e5	 mov	 BYTE PTR __k$[ebp+1], dl
  00038	8a 50 02	 mov	 dl, BYTE PTR [eax+2]
  0003b	84 d2		 test	 dl, dl
  0003d	0f 84 78 01 00
	00		 je	 $LN94@LoadFloat_@4
  00043	80 f2 eb	 xor	 dl, -21			; ffffffebH
  00046	88 55 e6	 mov	 BYTE PTR __k$[ebp+2], dl
  00049	8a 50 03	 mov	 dl, BYTE PTR [eax+3]
  0004c	84 d2		 test	 dl, dl
  0004e	0f 84 61 01 00
	00		 je	 $LN93@LoadFloat_@4
  00054	80 f2 ea	 xor	 dl, -22			; ffffffeaH
  00057	88 55 e7	 mov	 BYTE PTR __k$[ebp+3], dl
  0005a	8a 50 04	 mov	 dl, BYTE PTR [eax+4]
  0005d	84 d2		 test	 dl, dl
  0005f	0f 84 4a 01 00
	00		 je	 $LN92@LoadFloat_@4
  00065	80 f2 ed	 xor	 dl, -19			; ffffffedH
  00068	88 55 e8	 mov	 BYTE PTR __k$[ebp+4], dl
  0006b	8a 50 05	 mov	 dl, BYTE PTR [eax+5]
  0006e	84 d2		 test	 dl, dl
  00070	0f 84 34 01 00
	00		 je	 $LN91@LoadFloat_@4
  00076	32 d1		 xor	 dl, cl
  00078	88 55 e9	 mov	 BYTE PTR __k$[ebp+5], dl
  0007b	8a 50 06	 mov	 dl, BYTE PTR [eax+6]
  0007e	84 d2		 test	 dl, dl
  00080	0f 84 1e 01 00
	00		 je	 $LN90@LoadFloat_@4
  00086	80 f2 eb	 xor	 dl, -21			; ffffffebH
  00089	88 55 ea	 mov	 BYTE PTR __k$[ebp+6], dl
  0008c	8a 50 07	 mov	 dl, BYTE PTR [eax+7]
  0008f	84 d2		 test	 dl, dl
  00091	0f 84 07 01 00
	00		 je	 $LN89@LoadFloat_@4
  00097	80 f2 ea	 xor	 dl, -22			; ffffffeaH
  0009a	88 55 eb	 mov	 BYTE PTR __k$[ebp+7], dl
  0009d	8a 50 08	 mov	 dl, BYTE PTR [eax+8]
  000a0	84 d2		 test	 dl, dl
  000a2	0f 84 f0 00 00
	00		 je	 $LN88@LoadFloat_@4
  000a8	80 f2 ed	 xor	 dl, -19			; ffffffedH
  000ab	88 55 ec	 mov	 BYTE PTR __k$[ebp+8], dl
  000ae	8a 50 09	 mov	 dl, BYTE PTR [eax+9]
  000b1	84 d2		 test	 dl, dl
  000b3	0f 84 da 00 00
	00		 je	 $LN87@LoadFloat_@4
  000b9	32 d1		 xor	 dl, cl
  000bb	88 55 ed	 mov	 BYTE PTR __k$[ebp+9], dl
  000be	8a 50 0a	 mov	 dl, BYTE PTR [eax+10]
  000c1	84 d2		 test	 dl, dl
  000c3	0f 84 c4 00 00
	00		 je	 $LN86@LoadFloat_@4
  000c9	80 f2 eb	 xor	 dl, -21			; ffffffebH
  000cc	88 55 ee	 mov	 BYTE PTR __k$[ebp+10], dl
  000cf	8a 50 0b	 mov	 dl, BYTE PTR [eax+11]
  000d2	84 d2		 test	 dl, dl
  000d4	0f 84 ad 00 00
	00		 je	 $LN85@LoadFloat_@4
  000da	80 f2 ea	 xor	 dl, -22			; ffffffeaH
  000dd	88 55 ef	 mov	 BYTE PTR __k$[ebp+11], dl
  000e0	8a 50 0c	 mov	 dl, BYTE PTR [eax+12]
  000e3	84 d2		 test	 dl, dl
  000e5	0f 84 96 00 00
	00		 je	 $LN84@LoadFloat_@4
  000eb	80 f2 ed	 xor	 dl, -19			; ffffffedH
  000ee	88 55 f0	 mov	 BYTE PTR __k$[ebp+12], dl
  000f1	8a 50 0d	 mov	 dl, BYTE PTR [eax+13]
  000f4	84 d2		 test	 dl, dl
  000f6	0f 84 80 00 00
	00		 je	 $LN83@LoadFloat_@4
  000fc	32 d1		 xor	 dl, cl
  000fe	88 55 f1	 mov	 BYTE PTR __k$[ebp+13], dl
  00101	8a 50 0e	 mov	 dl, BYTE PTR [eax+14]
  00104	84 d2		 test	 dl, dl
  00106	74 6e		 je	 SHORT $LN82@LoadFloat_@4
  00108	80 f2 eb	 xor	 dl, -21			; ffffffebH
  0010b	88 55 f2	 mov	 BYTE PTR __k$[ebp+14], dl
  0010e	8a 50 0f	 mov	 dl, BYTE PTR [eax+15]
  00111	84 d2		 test	 dl, dl
  00113	74 5b		 je	 SHORT $LN81@LoadFloat_@4
  00115	80 f2 ea	 xor	 dl, -22			; ffffffeaH
  00118	80 78 10 00	 cmp	 BYTE PTR [eax+16], 0
  0011c	88 55 f3	 mov	 BYTE PTR __k$[ebp+15], dl
  0011f	0f 84 a6 00 00
	00		 je	 $LN1@LoadFloat_@4
  00125	8a 50 11	 mov	 dl, BYTE PTR [eax+17]
  00128	84 d2		 test	 dl, dl
  0012a	74 3f		 je	 SHORT $LN79@LoadFloat_@4
  0012c	32 d1		 xor	 dl, cl
  0012e	88 55 f5	 mov	 BYTE PTR __k$[ebp+17], dl
  00131	8a 50 12	 mov	 dl, BYTE PTR [eax+18]
  00134	84 d2		 test	 dl, dl
  00136	74 2d		 je	 SHORT $LN78@LoadFloat_@4
  00138	80 f2 eb	 xor	 dl, -21			; ffffffebH
  0013b	88 55 f6	 mov	 BYTE PTR __k$[ebp+18], dl
  0013e	8a 50 13	 mov	 dl, BYTE PTR [eax+19]
  00141	84 d2		 test	 dl, dl
  00143	74 1a		 je	 SHORT $LN77@LoadFloat_@4
  00145	8a 40 14	 mov	 al, BYTE PTR [eax+20]
  00148	80 f2 ea	 xor	 dl, -22			; ffffffeaH
  0014b	88 55 f7	 mov	 BYTE PTR __k$[ebp+19], dl
  0014e	84 c0		 test	 al, al
  00150	74 07		 je	 SHORT $LN76@LoadFloat_@4
  00152	34 ed		 xor	 al, -19			; ffffffedH
  00154	88 45 f8	 mov	 BYTE PTR __k$[ebp+20], al
  00157	eb 72		 jmp	 SHORT $LN1@LoadFloat_@4
$LN76@LoadFloat_@4:
  00159	c6 45 f8 ed	 mov	 BYTE PTR __k$[ebp+20], -19 ; ffffffedH
  0015d	eb 6c		 jmp	 SHORT $LN1@LoadFloat_@4
$LN77@LoadFloat_@4:
  0015f	c6 45 f7 ea	 mov	 BYTE PTR __k$[ebp+19], -22 ; ffffffeaH
  00163	eb 66		 jmp	 SHORT $LN1@LoadFloat_@4
$LN78@LoadFloat_@4:
  00165	c6 45 f6 eb	 mov	 BYTE PTR __k$[ebp+18], -21 ; ffffffebH
  00169	eb 60		 jmp	 SHORT $LN1@LoadFloat_@4
$LN79@LoadFloat_@4:
  0016b	88 4d f5	 mov	 BYTE PTR __k$[ebp+17], cl
  0016e	eb 5b		 jmp	 SHORT $LN1@LoadFloat_@4
$LN81@LoadFloat_@4:
  00170	c6 45 f3 ea	 mov	 BYTE PTR __k$[ebp+15], -22 ; ffffffeaH
  00174	eb 55		 jmp	 SHORT $LN1@LoadFloat_@4
$LN82@LoadFloat_@4:
  00176	c6 45 f2 eb	 mov	 BYTE PTR __k$[ebp+14], -21 ; ffffffebH
  0017a	eb 4f		 jmp	 SHORT $LN1@LoadFloat_@4
$LN83@LoadFloat_@4:
  0017c	88 4d f1	 mov	 BYTE PTR __k$[ebp+13], cl
  0017f	eb 4a		 jmp	 SHORT $LN1@LoadFloat_@4
$LN84@LoadFloat_@4:
  00181	c6 45 f0 ed	 mov	 BYTE PTR __k$[ebp+12], -19 ; ffffffedH
  00185	eb 44		 jmp	 SHORT $LN1@LoadFloat_@4
$LN85@LoadFloat_@4:
  00187	c6 45 ef ea	 mov	 BYTE PTR __k$[ebp+11], -22 ; ffffffeaH
  0018b	eb 3e		 jmp	 SHORT $LN1@LoadFloat_@4
$LN86@LoadFloat_@4:
  0018d	c6 45 ee eb	 mov	 BYTE PTR __k$[ebp+10], -21 ; ffffffebH
  00191	eb 38		 jmp	 SHORT $LN1@LoadFloat_@4
$LN87@LoadFloat_@4:
  00193	88 4d ed	 mov	 BYTE PTR __k$[ebp+9], cl
  00196	eb 33		 jmp	 SHORT $LN1@LoadFloat_@4
$LN88@LoadFloat_@4:
  00198	c6 45 ec ed	 mov	 BYTE PTR __k$[ebp+8], -19 ; ffffffedH
  0019c	eb 2d		 jmp	 SHORT $LN1@LoadFloat_@4
$LN89@LoadFloat_@4:
  0019e	c6 45 eb ea	 mov	 BYTE PTR __k$[ebp+7], -22 ; ffffffeaH
  001a2	eb 27		 jmp	 SHORT $LN1@LoadFloat_@4
$LN90@LoadFloat_@4:
  001a4	c6 45 ea eb	 mov	 BYTE PTR __k$[ebp+6], -21 ; ffffffebH
  001a8	eb 21		 jmp	 SHORT $LN1@LoadFloat_@4
$LN91@LoadFloat_@4:
  001aa	88 4d e9	 mov	 BYTE PTR __k$[ebp+5], cl
  001ad	eb 1c		 jmp	 SHORT $LN1@LoadFloat_@4
$LN92@LoadFloat_@4:
  001af	c6 45 e8 ed	 mov	 BYTE PTR __k$[ebp+4], -19 ; ffffffedH
  001b3	eb 16		 jmp	 SHORT $LN1@LoadFloat_@4
$LN93@LoadFloat_@4:
  001b5	c6 45 e7 ea	 mov	 BYTE PTR __k$[ebp+3], -22 ; ffffffeaH
  001b9	eb 10		 jmp	 SHORT $LN1@LoadFloat_@4
$LN94@LoadFloat_@4:
  001bb	c6 45 e6 eb	 mov	 BYTE PTR __k$[ebp+2], -21 ; ffffffebH
  001bf	eb 0a		 jmp	 SHORT $LN1@LoadFloat_@4
$LN95@LoadFloat_@4:
  001c1	c6 45 e5 ec	 mov	 BYTE PTR __k$[ebp+1], -20 ; ffffffecH
  001c5	eb 04		 jmp	 SHORT $LN1@LoadFloat_@4
$LN96@LoadFloat_@4:
  001c7	c6 45 e4 ed	 mov	 BYTE PTR __k$[ebp], -19	; ffffffedH
$LN1@LoadFloat_@4:
  001cb	6a 04		 push	 4
  001cd	8d 45 e4	 lea	 eax, DWORD PTR __k$[ebp]
  001d0	c6 45 f4 00	 mov	 BYTE PTR __k$[ebp+16], 0
  001d4	5a		 pop	 edx
$LL104@LoadFloat_@4:
  001d5	81 30 ed ec eb
	ea		 xor	 DWORD PTR [eax], -353637139 ; eaebecedH
  001db	83 c0 04	 add	 eax, 4
  001de	4a		 dec	 edx
  001df	75 f4		 jne	 SHORT $LL104@LoadFloat_@4

; 137  : 		return LoadFloat(_k, f);

  001e1	f3 0f 10 45 0c	 movss	 xmm0, DWORD PTR _f$[ebp]
  001e6	51		 push	 ecx
  001e7	8d 45 e4	 lea	 eax, DWORD PTR __k$[ebp]
  001ea	f3 0f 11 04 24	 movss	 DWORD PTR [esp], xmm0
  001ef	50		 push	 eax
  001f0	8b ce		 mov	 ecx, esi
  001f2	ff 15 00 00 00
	00		 call	 DWORD PTR __imp_?LoadFloat@ioINILoader@@QAEMPBDM@Z

; 138  : 	}

  001f8	8b 4d fc	 mov	 ecx, DWORD PTR __$ArrayPad$[ebp]
  001fb	33 cd		 xor	 ecx, ebp
  001fd	5e		 pop	 esi
  001fe	e8 00 00 00 00	 call	 @__security_check_cookie@4
  00203	c9		 leave
  00204	c2 08 00	 ret	 8
??$LoadFloat_e@$0BB@@ioINILoader@@QAEMAAY0BB@$$CBDM@Z ENDP ; ioINILoader::LoadFloat_e<17>
_TEXT	ENDS
PUBLIC	__$ArrayPad$
PUBLIC	??$LoadInt_e@$0BJ@@ioINILoader@@QAEHAAY0BJ@$$CBDH@Z ; ioINILoader::LoadInt_e<25>
; Function compile flags: /Ogsp
;	COMDAT ??$LoadInt_e@$0BJ@@ioINILoader@@QAEHAAY0BJ@$$CBDH@Z
_TEXT	SEGMENT
__k$ = -36						; size = 25
__$ArrayPad$ = -4					; size = 4
_k$ = 8							; size = 4
_i$ = 12						; size = 4
??$LoadInt_e@$0BJ@@ioINILoader@@QAEHAAY0BJ@$$CBDH@Z PROC ; ioINILoader::LoadInt_e<25>, COMDAT
; _this$ = ecx

; 118  : 	{

  00000	55		 push	 ebp
  00001	8b ec		 mov	 ebp, esp
  00003	83 ec 24	 sub	 esp, 36			; 00000024H
  00006	a1 00 00 00 00	 mov	 eax, DWORD PTR ___security_cookie
  0000b	33 c5		 xor	 eax, ebp
  0000d	89 45 fc	 mov	 DWORD PTR __$ArrayPad$[ebp], eax
  00010	8b 45 08	 mov	 eax, DWORD PTR _k$[ebp]

; 119  : 		_ENCSTR(k, _k);

  00013	8a 10		 mov	 dl, BYTE PTR [eax]
  00015	53		 push	 ebx
  00016	56		 push	 esi
  00017	8b f1		 mov	 esi, ecx
  00019	84 d2		 test	 dl, dl
  0001b	0f 84 5f 02 00
	00		 je	 $LN96@LoadInt_e@2
  00021	80 f2 ed	 xor	 dl, -19			; ffffffedH
  00024	88 55 dc	 mov	 BYTE PTR __k$[ebp], dl
  00027	8a 50 01	 mov	 dl, BYTE PTR [eax+1]
  0002a	84 d2		 test	 dl, dl
  0002c	0f 84 48 02 00
	00		 je	 $LN95@LoadInt_e@2
  00032	b1 ec		 mov	 cl, -20			; ffffffecH
  00034	32 d1		 xor	 dl, cl
  00036	88 55 dd	 mov	 BYTE PTR __k$[ebp+1], dl
  00039	8a 50 02	 mov	 dl, BYTE PTR [eax+2]
  0003c	84 d2		 test	 dl, dl
  0003e	0f 84 30 02 00
	00		 je	 $LN94@LoadInt_e@2
  00044	b3 eb		 mov	 bl, -21			; ffffffebH
  00046	32 d3		 xor	 dl, bl
  00048	88 55 de	 mov	 BYTE PTR __k$[ebp+2], dl
  0004b	8a 50 03	 mov	 dl, BYTE PTR [eax+3]
  0004e	84 d2		 test	 dl, dl
  00050	0f 84 18 02 00
	00		 je	 $LN93@LoadInt_e@2
  00056	80 f2 ea	 xor	 dl, -22			; ffffffeaH
  00059	88 55 df	 mov	 BYTE PTR __k$[ebp+3], dl
  0005c	8a 50 04	 mov	 dl, BYTE PTR [eax+4]
  0005f	84 d2		 test	 dl, dl
  00061	0f 84 01 02 00
	00		 je	 $LN92@LoadInt_e@2
  00067	80 f2 ed	 xor	 dl, -19			; ffffffedH
  0006a	88 55 e0	 mov	 BYTE PTR __k$[ebp+4], dl
  0006d	8a 50 05	 mov	 dl, BYTE PTR [eax+5]
  00070	84 d2		 test	 dl, dl
  00072	0f 84 eb 01 00
	00		 je	 $LN91@LoadInt_e@2
  00078	32 d1		 xor	 dl, cl
  0007a	88 55 e1	 mov	 BYTE PTR __k$[ebp+5], dl
  0007d	8a 50 06	 mov	 dl, BYTE PTR [eax+6]
  00080	84 d2		 test	 dl, dl
  00082	0f 84 d6 01 00
	00		 je	 $LN90@LoadInt_e@2
  00088	32 d3		 xor	 dl, bl
  0008a	88 55 e2	 mov	 BYTE PTR __k$[ebp+6], dl
  0008d	8a 50 07	 mov	 dl, BYTE PTR [eax+7]
  00090	84 d2		 test	 dl, dl
  00092	0f 84 c0 01 00
	00		 je	 $LN89@LoadInt_e@2
  00098	80 f2 ea	 xor	 dl, -22			; ffffffeaH
  0009b	88 55 e3	 mov	 BYTE PTR __k$[ebp+7], dl
  0009e	8a 50 08	 mov	 dl, BYTE PTR [eax+8]
  000a1	84 d2		 test	 dl, dl
  000a3	0f 84 a9 01 00
	00		 je	 $LN88@LoadInt_e@2
  000a9	80 f2 ed	 xor	 dl, -19			; ffffffedH
  000ac	88 55 e4	 mov	 BYTE PTR __k$[ebp+8], dl
  000af	8a 50 09	 mov	 dl, BYTE PTR [eax+9]
  000b2	84 d2		 test	 dl, dl
  000b4	0f 84 93 01 00
	00		 je	 $LN87@LoadInt_e@2
  000ba	32 d1		 xor	 dl, cl
  000bc	88 55 e5	 mov	 BYTE PTR __k$[ebp+9], dl
  000bf	8a 50 0a	 mov	 dl, BYTE PTR [eax+10]
  000c2	84 d2		 test	 dl, dl
  000c4	0f 84 7e 01 00
	00		 je	 $LN86@LoadInt_e@2
  000ca	32 d3		 xor	 dl, bl
  000cc	88 55 e6	 mov	 BYTE PTR __k$[ebp+10], dl
  000cf	8a 50 0b	 mov	 dl, BYTE PTR [eax+11]
  000d2	84 d2		 test	 dl, dl
  000d4	0f 84 68 01 00
	00		 je	 $LN85@LoadInt_e@2
  000da	80 f2 ea	 xor	 dl, -22			; ffffffeaH
  000dd	88 55 e7	 mov	 BYTE PTR __k$[ebp+11], dl
  000e0	8a 50 0c	 mov	 dl, BYTE PTR [eax+12]
  000e3	84 d2		 test	 dl, dl
  000e5	0f 84 51 01 00
	00		 je	 $LN84@LoadInt_e@2
  000eb	80 f2 ed	 xor	 dl, -19			; ffffffedH
  000ee	88 55 e8	 mov	 BYTE PTR __k$[ebp+12], dl
  000f1	8a 50 0d	 mov	 dl, BYTE PTR [eax+13]
  000f4	84 d2		 test	 dl, dl
  000f6	0f 84 3b 01 00
	00		 je	 $LN83@LoadInt_e@2
  000fc	32 d1		 xor	 dl, cl
  000fe	88 55 e9	 mov	 BYTE PTR __k$[ebp+13], dl
  00101	8a 50 0e	 mov	 dl, BYTE PTR [eax+14]
  00104	84 d2		 test	 dl, dl
  00106	0f 84 26 01 00
	00		 je	 $LN82@LoadInt_e@2
  0010c	32 d3		 xor	 dl, bl
  0010e	88 55 ea	 mov	 BYTE PTR __k$[ebp+14], dl
  00111	8a 50 0f	 mov	 dl, BYTE PTR [eax+15]
  00114	84 d2		 test	 dl, dl
  00116	0f 84 10 01 00
	00		 je	 $LN81@LoadInt_e@2
  0011c	80 f2 ea	 xor	 dl, -22			; ffffffeaH
  0011f	88 55 eb	 mov	 BYTE PTR __k$[ebp+15], dl
  00122	8a 50 10	 mov	 dl, BYTE PTR [eax+16]
  00125	84 d2		 test	 dl, dl
  00127	0f 84 f9 00 00
	00		 je	 $LN80@LoadInt_e@2
  0012d	80 f2 ed	 xor	 dl, -19			; ffffffedH
  00130	88 55 ec	 mov	 BYTE PTR __k$[ebp+16], dl
  00133	8a 50 11	 mov	 dl, BYTE PTR [eax+17]
  00136	84 d2		 test	 dl, dl
  00138	0f 84 e3 00 00
	00		 je	 $LN79@LoadInt_e@2
  0013e	32 d1		 xor	 dl, cl
  00140	88 55 ed	 mov	 BYTE PTR __k$[ebp+17], dl
  00143	8a 50 12	 mov	 dl, BYTE PTR [eax+18]
  00146	84 d2		 test	 dl, dl
  00148	0f 84 ce 00 00
	00		 je	 $LN78@LoadInt_e@2
  0014e	32 d3		 xor	 dl, bl
  00150	88 55 ee	 mov	 BYTE PTR __k$[ebp+18], dl
  00153	8a 50 13	 mov	 dl, BYTE PTR [eax+19]
  00156	84 d2		 test	 dl, dl
  00158	0f 84 b8 00 00
	00		 je	 $LN77@LoadInt_e@2
  0015e	80 f2 ea	 xor	 dl, -22			; ffffffeaH
  00161	88 55 ef	 mov	 BYTE PTR __k$[ebp+19], dl
  00164	8a 50 14	 mov	 dl, BYTE PTR [eax+20]
  00167	84 d2		 test	 dl, dl
  00169	0f 84 a1 00 00
	00		 je	 $LN76@LoadInt_e@2
  0016f	80 f2 ed	 xor	 dl, -19			; ffffffedH
  00172	88 55 f0	 mov	 BYTE PTR __k$[ebp+20], dl
  00175	8a 50 15	 mov	 dl, BYTE PTR [eax+21]
  00178	84 d2		 test	 dl, dl
  0017a	0f 84 8b 00 00
	00		 je	 $LN75@LoadInt_e@2
  00180	32 d1		 xor	 dl, cl
  00182	88 55 f1	 mov	 BYTE PTR __k$[ebp+21], dl
  00185	8a 50 16	 mov	 dl, BYTE PTR [eax+22]
  00188	84 d2		 test	 dl, dl
  0018a	74 7a		 je	 SHORT $LN74@LoadInt_e@2
  0018c	32 d3		 xor	 dl, bl
  0018e	88 55 f2	 mov	 BYTE PTR __k$[ebp+22], dl
  00191	8a 50 17	 mov	 dl, BYTE PTR [eax+23]
  00194	84 d2		 test	 dl, dl
  00196	74 68		 je	 SHORT $LN73@LoadInt_e@2
  00198	80 f2 ea	 xor	 dl, -22			; ffffffeaH
  0019b	80 78 18 00	 cmp	 BYTE PTR [eax+24], 0
  0019f	88 55 f3	 mov	 BYTE PTR __k$[ebp+23], dl
  001a2	0f 84 dc 00 00
	00		 je	 $LN1@LoadInt_e@2
  001a8	8a 50 19	 mov	 dl, BYTE PTR [eax+25]
  001ab	84 d2		 test	 dl, dl
  001ad	74 49		 je	 SHORT $LN71@LoadInt_e@2
  001af	32 d1		 xor	 dl, cl
  001b1	88 55 f5	 mov	 BYTE PTR __k$[ebp+25], dl
  001b4	8a 50 1a	 mov	 dl, BYTE PTR [eax+26]
  001b7	84 d2		 test	 dl, dl
  001b9	74 35		 je	 SHORT $LN70@LoadInt_e@2
  001bb	32 d3		 xor	 dl, bl
  001bd	88 55 f6	 mov	 BYTE PTR __k$[ebp+26], dl
  001c0	8a 50 1b	 mov	 dl, BYTE PTR [eax+27]
  001c3	84 d2		 test	 dl, dl
  001c5	74 20		 je	 SHORT $LN69@LoadInt_e@2
  001c7	8a 40 1c	 mov	 al, BYTE PTR [eax+28]
  001ca	80 f2 ea	 xor	 dl, -22			; ffffffeaH
  001cd	88 55 f7	 mov	 BYTE PTR __k$[ebp+27], dl
  001d0	84 c0		 test	 al, al
  001d2	74 0a		 je	 SHORT $LN68@LoadInt_e@2
  001d4	34 ed		 xor	 al, -19			; ffffffedH
  001d6	88 45 f8	 mov	 BYTE PTR __k$[ebp+28], al
  001d9	e9 a6 00 00 00	 jmp	 $LN1@LoadInt_e@2
$LN68@LoadInt_e@2:
  001de	c6 45 f8 ed	 mov	 BYTE PTR __k$[ebp+28], -19 ; ffffffedH
  001e2	e9 9d 00 00 00	 jmp	 $LN1@LoadInt_e@2
$LN69@LoadInt_e@2:
  001e7	c6 45 f7 ea	 mov	 BYTE PTR __k$[ebp+27], -22 ; ffffffeaH
  001eb	e9 94 00 00 00	 jmp	 $LN1@LoadInt_e@2
$LN70@LoadInt_e@2:
  001f0	88 5d f6	 mov	 BYTE PTR __k$[ebp+26], bl
  001f3	e9 8c 00 00 00	 jmp	 $LN1@LoadInt_e@2
$LN71@LoadInt_e@2:
  001f8	88 4d f5	 mov	 BYTE PTR __k$[ebp+25], cl
  001fb	e9 84 00 00 00	 jmp	 $LN1@LoadInt_e@2
$LN73@LoadInt_e@2:
  00200	c6 45 f3 ea	 mov	 BYTE PTR __k$[ebp+23], -22 ; ffffffeaH
  00204	eb 7e		 jmp	 SHORT $LN1@LoadInt_e@2
$LN74@LoadInt_e@2:
  00206	88 5d f2	 mov	 BYTE PTR __k$[ebp+22], bl
  00209	eb 79		 jmp	 SHORT $LN1@LoadInt_e@2
$LN75@LoadInt_e@2:
  0020b	88 4d f1	 mov	 BYTE PTR __k$[ebp+21], cl
  0020e	eb 74		 jmp	 SHORT $LN1@LoadInt_e@2
$LN76@LoadInt_e@2:
  00210	c6 45 f0 ed	 mov	 BYTE PTR __k$[ebp+20], -19 ; ffffffedH
  00214	eb 6e		 jmp	 SHORT $LN1@LoadInt_e@2
$LN77@LoadInt_e@2:
  00216	c6 45 ef ea	 mov	 BYTE PTR __k$[ebp+19], -22 ; ffffffeaH
  0021a	eb 68		 jmp	 SHORT $LN1@LoadInt_e@2
$LN78@LoadInt_e@2:
  0021c	88 5d ee	 mov	 BYTE PTR __k$[ebp+18], bl
  0021f	eb 63		 jmp	 SHORT $LN1@LoadInt_e@2
$LN79@LoadInt_e@2:
  00221	88 4d ed	 mov	 BYTE PTR __k$[ebp+17], cl
  00224	eb 5e		 jmp	 SHORT $LN1@LoadInt_e@2
$LN80@LoadInt_e@2:
  00226	c6 45 ec ed	 mov	 BYTE PTR __k$[ebp+16], -19 ; ffffffedH
  0022a	eb 58		 jmp	 SHORT $LN1@LoadInt_e@2
$LN81@LoadInt_e@2:
  0022c	c6 45 eb ea	 mov	 BYTE PTR __k$[ebp+15], -22 ; ffffffeaH
  00230	eb 52		 jmp	 SHORT $LN1@LoadInt_e@2
$LN82@LoadInt_e@2:
  00232	88 5d ea	 mov	 BYTE PTR __k$[ebp+14], bl
  00235	eb 4d		 jmp	 SHORT $LN1@LoadInt_e@2
$LN83@LoadInt_e@2:
  00237	88 4d e9	 mov	 BYTE PTR __k$[ebp+13], cl
  0023a	eb 48		 jmp	 SHORT $LN1@LoadInt_e@2
$LN84@LoadInt_e@2:
  0023c	c6 45 e8 ed	 mov	 BYTE PTR __k$[ebp+12], -19 ; ffffffedH
  00240	eb 42		 jmp	 SHORT $LN1@LoadInt_e@2
$LN85@LoadInt_e@2:
  00242	c6 45 e7 ea	 mov	 BYTE PTR __k$[ebp+11], -22 ; ffffffeaH
  00246	eb 3c		 jmp	 SHORT $LN1@LoadInt_e@2
$LN86@LoadInt_e@2:
  00248	88 5d e6	 mov	 BYTE PTR __k$[ebp+10], bl
  0024b	eb 37		 jmp	 SHORT $LN1@LoadInt_e@2
$LN87@LoadInt_e@2:
  0024d	88 4d e5	 mov	 BYTE PTR __k$[ebp+9], cl
  00250	eb 32		 jmp	 SHORT $LN1@LoadInt_e@2
$LN88@LoadInt_e@2:
  00252	c6 45 e4 ed	 mov	 BYTE PTR __k$[ebp+8], -19 ; ffffffedH
  00256	eb 2c		 jmp	 SHORT $LN1@LoadInt_e@2
$LN89@LoadInt_e@2:
  00258	c6 45 e3 ea	 mov	 BYTE PTR __k$[ebp+7], -22 ; ffffffeaH
  0025c	eb 26		 jmp	 SHORT $LN1@LoadInt_e@2
$LN90@LoadInt_e@2:
  0025e	88 5d e2	 mov	 BYTE PTR __k$[ebp+6], bl
  00261	eb 21		 jmp	 SHORT $LN1@LoadInt_e@2
$LN91@LoadInt_e@2:
  00263	88 4d e1	 mov	 BYTE PTR __k$[ebp+5], cl
  00266	eb 1c		 jmp	 SHORT $LN1@LoadInt_e@2
$LN92@LoadInt_e@2:
  00268	c6 45 e0 ed	 mov	 BYTE PTR __k$[ebp+4], -19 ; ffffffedH
  0026c	eb 16		 jmp	 SHORT $LN1@LoadInt_e@2
$LN93@LoadInt_e@2:
  0026e	c6 45 df ea	 mov	 BYTE PTR __k$[ebp+3], -22 ; ffffffeaH
  00272	eb 10		 jmp	 SHORT $LN1@LoadInt_e@2
$LN94@LoadInt_e@2:
  00274	c6 45 de eb	 mov	 BYTE PTR __k$[ebp+2], -21 ; ffffffebH
  00278	eb 0a		 jmp	 SHORT $LN1@LoadInt_e@2
$LN95@LoadInt_e@2:
  0027a	c6 45 dd ec	 mov	 BYTE PTR __k$[ebp+1], -20 ; ffffffecH
  0027e	eb 04		 jmp	 SHORT $LN1@LoadInt_e@2
$LN96@LoadInt_e@2:
  00280	c6 45 dc ed	 mov	 BYTE PTR __k$[ebp], -19	; ffffffedH
$LN1@LoadInt_e@2:
  00284	6a 06		 push	 6
  00286	8d 45 dc	 lea	 eax, DWORD PTR __k$[ebp]
  00289	c6 45 f4 00	 mov	 BYTE PTR __k$[ebp+24], 0
  0028d	5a		 pop	 edx
$LL104@LoadInt_e@2:
  0028e	81 30 ed ec eb
	ea		 xor	 DWORD PTR [eax], -353637139 ; eaebecedH
  00294	83 c0 04	 add	 eax, 4
  00297	4a		 dec	 edx
  00298	75 f4		 jne	 SHORT $LL104@LoadInt_e@2

; 120  : 		return LoadInt(_k, i);

  0029a	ff 75 0c	 push	 DWORD PTR _i$[ebp]
  0029d	8d 45 dc	 lea	 eax, DWORD PTR __k$[ebp]
  002a0	50		 push	 eax
  002a1	8b ce		 mov	 ecx, esi
  002a3	ff 15 00 00 00
	00		 call	 DWORD PTR __imp_?LoadInt@ioINILoader@@QAEHPBDH@Z

; 121  : 	}

  002a9	8b 4d fc	 mov	 ecx, DWORD PTR __$ArrayPad$[ebp]
  002ac	5e		 pop	 esi
  002ad	33 cd		 xor	 ecx, ebp
  002af	5b		 pop	 ebx
  002b0	e8 00 00 00 00	 call	 @__security_check_cookie@4
  002b5	c9		 leave
  002b6	c2 08 00	 ret	 8
??$LoadInt_e@$0BJ@@ioINILoader@@QAEHAAY0BJ@$$CBDH@Z ENDP ; ioINILoader::LoadInt_e<25>
_TEXT	ENDS
PUBLIC	__$ArrayPad$
PUBLIC	??$LoadInt_e@$0BO@@ioINILoader@@QAEHAAY0BO@$$CBDH@Z ; ioINILoader::LoadInt_e<30>
; Function compile flags: /Ogsp
;	COMDAT ??$LoadInt_e@$0BO@@ioINILoader@@QAEHAAY0BO@$$CBDH@Z
_TEXT	SEGMENT
__k$ = -40						; size = 30
__$ArrayPad$ = -4					; size = 4
_k$ = 8							; size = 4
_i$ = 12						; size = 4
??$LoadInt_e@$0BO@@ioINILoader@@QAEHAAY0BO@$$CBDH@Z PROC ; ioINILoader::LoadInt_e<30>, COMDAT
; _this$ = ecx

; 118  : 	{

  00000	55		 push	 ebp
  00001	8b ec		 mov	 ebp, esp
  00003	83 ec 28	 sub	 esp, 40			; 00000028H
  00006	a1 00 00 00 00	 mov	 eax, DWORD PTR ___security_cookie
  0000b	33 c5		 xor	 eax, ebp
  0000d	89 45 fc	 mov	 DWORD PTR __$ArrayPad$[ebp], eax
  00010	8b 45 08	 mov	 eax, DWORD PTR _k$[ebp]

; 119  : 		_ENCSTR(k, _k);

  00013	8a 10		 mov	 dl, BYTE PTR [eax]
  00015	53		 push	 ebx
  00016	56		 push	 esi
  00017	8b f1		 mov	 esi, ecx
  00019	84 d2		 test	 dl, dl
  0001b	0f 84 dd 02 00
	00		 je	 $LN96@LoadInt_e@3
  00021	80 f2 ed	 xor	 dl, -19			; ffffffedH
  00024	88 55 d8	 mov	 BYTE PTR __k$[ebp], dl
  00027	8a 50 01	 mov	 dl, BYTE PTR [eax+1]
  0002a	84 d2		 test	 dl, dl
  0002c	0f 84 c6 02 00
	00		 je	 $LN95@LoadInt_e@3
  00032	80 f2 ec	 xor	 dl, -20			; ffffffecH
  00035	88 55 d9	 mov	 BYTE PTR __k$[ebp+1], dl
  00038	8a 50 02	 mov	 dl, BYTE PTR [eax+2]
  0003b	84 d2		 test	 dl, dl
  0003d	0f 84 af 02 00
	00		 je	 $LN94@LoadInt_e@3
  00043	b1 eb		 mov	 cl, -21			; ffffffebH
  00045	32 d1		 xor	 dl, cl
  00047	88 55 da	 mov	 BYTE PTR __k$[ebp+2], dl
  0004a	8a 50 03	 mov	 dl, BYTE PTR [eax+3]
  0004d	84 d2		 test	 dl, dl
  0004f	0f 84 97 02 00
	00		 je	 $LN93@LoadInt_e@3
  00055	b3 ea		 mov	 bl, -22			; ffffffeaH
  00057	32 d3		 xor	 dl, bl
  00059	88 55 db	 mov	 BYTE PTR __k$[ebp+3], dl
  0005c	8a 50 04	 mov	 dl, BYTE PTR [eax+4]
  0005f	84 d2		 test	 dl, dl
  00061	0f 84 7f 02 00
	00		 je	 $LN92@LoadInt_e@3
  00067	80 f2 ed	 xor	 dl, -19			; ffffffedH
  0006a	88 55 dc	 mov	 BYTE PTR __k$[ebp+4], dl
  0006d	8a 50 05	 mov	 dl, BYTE PTR [eax+5]
  00070	84 d2		 test	 dl, dl
  00072	0f 84 68 02 00
	00		 je	 $LN91@LoadInt_e@3
  00078	80 f2 ec	 xor	 dl, -20			; ffffffecH
  0007b	88 55 dd	 mov	 BYTE PTR __k$[ebp+5], dl
  0007e	8a 50 06	 mov	 dl, BYTE PTR [eax+6]
  00081	84 d2		 test	 dl, dl
  00083	0f 84 52 02 00
	00		 je	 $LN90@LoadInt_e@3
  00089	32 d1		 xor	 dl, cl
  0008b	88 55 de	 mov	 BYTE PTR __k$[ebp+6], dl
  0008e	8a 50 07	 mov	 dl, BYTE PTR [eax+7]
  00091	84 d2		 test	 dl, dl
  00093	0f 84 3d 02 00
	00		 je	 $LN89@LoadInt_e@3
  00099	32 d3		 xor	 dl, bl
  0009b	88 55 df	 mov	 BYTE PTR __k$[ebp+7], dl
  0009e	8a 50 08	 mov	 dl, BYTE PTR [eax+8]
  000a1	84 d2		 test	 dl, dl
  000a3	0f 84 27 02 00
	00		 je	 $LN88@LoadInt_e@3
  000a9	80 f2 ed	 xor	 dl, -19			; ffffffedH
  000ac	88 55 e0	 mov	 BYTE PTR __k$[ebp+8], dl
  000af	8a 50 09	 mov	 dl, BYTE PTR [eax+9]
  000b2	84 d2		 test	 dl, dl
  000b4	0f 84 10 02 00
	00		 je	 $LN87@LoadInt_e@3
  000ba	80 f2 ec	 xor	 dl, -20			; ffffffecH
  000bd	88 55 e1	 mov	 BYTE PTR __k$[ebp+9], dl
  000c0	8a 50 0a	 mov	 dl, BYTE PTR [eax+10]
  000c3	84 d2		 test	 dl, dl
  000c5	0f 84 fa 01 00
	00		 je	 $LN86@LoadInt_e@3
  000cb	32 d1		 xor	 dl, cl
  000cd	88 55 e2	 mov	 BYTE PTR __k$[ebp+10], dl
  000d0	8a 50 0b	 mov	 dl, BYTE PTR [eax+11]
  000d3	84 d2		 test	 dl, dl
  000d5	0f 84 e5 01 00
	00		 je	 $LN85@LoadInt_e@3
  000db	32 d3		 xor	 dl, bl
  000dd	88 55 e3	 mov	 BYTE PTR __k$[ebp+11], dl
  000e0	8a 50 0c	 mov	 dl, BYTE PTR [eax+12]
  000e3	84 d2		 test	 dl, dl
  000e5	0f 84 cf 01 00
	00		 je	 $LN84@LoadInt_e@3
  000eb	80 f2 ed	 xor	 dl, -19			; ffffffedH
  000ee	88 55 e4	 mov	 BYTE PTR __k$[ebp+12], dl
  000f1	8a 50 0d	 mov	 dl, BYTE PTR [eax+13]
  000f4	84 d2		 test	 dl, dl
  000f6	0f 84 b8 01 00
	00		 je	 $LN83@LoadInt_e@3
  000fc	80 f2 ec	 xor	 dl, -20			; ffffffecH
  000ff	88 55 e5	 mov	 BYTE PTR __k$[ebp+13], dl
  00102	8a 50 0e	 mov	 dl, BYTE PTR [eax+14]
  00105	84 d2		 test	 dl, dl
  00107	0f 84 a2 01 00
	00		 je	 $LN82@LoadInt_e@3
  0010d	32 d1		 xor	 dl, cl
  0010f	88 55 e6	 mov	 BYTE PTR __k$[ebp+14], dl
  00112	8a 50 0f	 mov	 dl, BYTE PTR [eax+15]
  00115	84 d2		 test	 dl, dl
  00117	0f 84 8d 01 00
	00		 je	 $LN81@LoadInt_e@3
  0011d	32 d3		 xor	 dl, bl
  0011f	88 55 e7	 mov	 BYTE PTR __k$[ebp+15], dl
  00122	8a 50 10	 mov	 dl, BYTE PTR [eax+16]
  00125	84 d2		 test	 dl, dl
  00127	0f 84 77 01 00
	00		 je	 $LN80@LoadInt_e@3
  0012d	80 f2 ed	 xor	 dl, -19			; ffffffedH
  00130	88 55 e8	 mov	 BYTE PTR __k$[ebp+16], dl
  00133	8a 50 11	 mov	 dl, BYTE PTR [eax+17]
  00136	84 d2		 test	 dl, dl
  00138	0f 84 60 01 00
	00		 je	 $LN79@LoadInt_e@3
  0013e	80 f2 ec	 xor	 dl, -20			; ffffffecH
  00141	88 55 e9	 mov	 BYTE PTR __k$[ebp+17], dl
  00144	8a 50 12	 mov	 dl, BYTE PTR [eax+18]
  00147	84 d2		 test	 dl, dl
  00149	0f 84 4a 01 00
	00		 je	 $LN78@LoadInt_e@3
  0014f	32 d1		 xor	 dl, cl
  00151	88 55 ea	 mov	 BYTE PTR __k$[ebp+18], dl
  00154	8a 50 13	 mov	 dl, BYTE PTR [eax+19]
  00157	84 d2		 test	 dl, dl
  00159	0f 84 35 01 00
	00		 je	 $LN77@LoadInt_e@3
  0015f	32 d3		 xor	 dl, bl
  00161	88 55 eb	 mov	 BYTE PTR __k$[ebp+19], dl
  00164	8a 50 14	 mov	 dl, BYTE PTR [eax+20]
  00167	84 d2		 test	 dl, dl
  00169	0f 84 1f 01 00
	00		 je	 $LN76@LoadInt_e@3
  0016f	80 f2 ed	 xor	 dl, -19			; ffffffedH
  00172	88 55 ec	 mov	 BYTE PTR __k$[ebp+20], dl
  00175	8a 50 15	 mov	 dl, BYTE PTR [eax+21]
  00178	84 d2		 test	 dl, dl
  0017a	0f 84 08 01 00
	00		 je	 $LN75@LoadInt_e@3
  00180	80 f2 ec	 xor	 dl, -20			; ffffffecH
  00183	88 55 ed	 mov	 BYTE PTR __k$[ebp+21], dl
  00186	8a 50 16	 mov	 dl, BYTE PTR [eax+22]
  00189	84 d2		 test	 dl, dl
  0018b	0f 84 f2 00 00
	00		 je	 $LN74@LoadInt_e@3
  00191	32 d1		 xor	 dl, cl
  00193	88 55 ee	 mov	 BYTE PTR __k$[ebp+22], dl
  00196	8a 50 17	 mov	 dl, BYTE PTR [eax+23]
  00199	84 d2		 test	 dl, dl
  0019b	0f 84 dd 00 00
	00		 je	 $LN73@LoadInt_e@3
  001a1	32 d3		 xor	 dl, bl
  001a3	88 55 ef	 mov	 BYTE PTR __k$[ebp+23], dl
  001a6	8a 50 18	 mov	 dl, BYTE PTR [eax+24]
  001a9	84 d2		 test	 dl, dl
  001ab	0f 84 c4 00 00
	00		 je	 $LN72@LoadInt_e@3
  001b1	80 f2 ed	 xor	 dl, -19			; ffffffedH
  001b4	88 55 f0	 mov	 BYTE PTR __k$[ebp+24], dl
  001b7	8a 50 19	 mov	 dl, BYTE PTR [eax+25]
  001ba	84 d2		 test	 dl, dl
  001bc	0f 84 aa 00 00
	00		 je	 $LN71@LoadInt_e@3
  001c2	80 f2 ec	 xor	 dl, -20			; ffffffecH
  001c5	88 55 f1	 mov	 BYTE PTR __k$[ebp+25], dl
  001c8	8a 50 1a	 mov	 dl, BYTE PTR [eax+26]
  001cb	84 d2		 test	 dl, dl
  001cd	0f 84 91 00 00
	00		 je	 $LN70@LoadInt_e@3
  001d3	32 d1		 xor	 dl, cl
  001d5	88 55 f2	 mov	 BYTE PTR __k$[ebp+26], dl
  001d8	8a 50 1b	 mov	 dl, BYTE PTR [eax+27]
  001db	84 d2		 test	 dl, dl
  001dd	74 7d		 je	 SHORT $LN69@LoadInt_e@3
  001df	32 d3		 xor	 dl, bl
  001e1	88 55 f3	 mov	 BYTE PTR __k$[ebp+27], dl
  001e4	8a 50 1c	 mov	 dl, BYTE PTR [eax+28]
  001e7	84 d2		 test	 dl, dl
  001e9	74 68		 je	 SHORT $LN68@LoadInt_e@3
  001eb	80 f2 ed	 xor	 dl, -19			; ffffffedH
  001ee	80 78 1d 00	 cmp	 BYTE PTR [eax+29], 0
  001f2	88 55 f4	 mov	 BYTE PTR __k$[ebp+28], dl
  001f5	0f 84 07 01 00
	00		 je	 $LN1@LoadInt_e@3
  001fb	8a 50 1e	 mov	 dl, BYTE PTR [eax+30]
  001fe	84 d2		 test	 dl, dl
  00200	74 49		 je	 SHORT $LN66@LoadInt_e@3
  00202	32 d1		 xor	 dl, cl
  00204	88 55 f6	 mov	 BYTE PTR __k$[ebp+30], dl
  00207	8a 50 1f	 mov	 dl, BYTE PTR [eax+31]
  0020a	84 d2		 test	 dl, dl
  0020c	74 35		 je	 SHORT $LN65@LoadInt_e@3
  0020e	32 d3		 xor	 dl, bl
  00210	88 55 f7	 mov	 BYTE PTR __k$[ebp+31], dl
  00213	8a 50 20	 mov	 dl, BYTE PTR [eax+32]
  00216	84 d2		 test	 dl, dl
  00218	74 20		 je	 SHORT $LN64@LoadInt_e@3
  0021a	8a 40 21	 mov	 al, BYTE PTR [eax+33]
  0021d	80 f2 ed	 xor	 dl, -19			; ffffffedH
  00220	88 55 f8	 mov	 BYTE PTR __k$[ebp+32], dl
  00223	84 c0		 test	 al, al
  00225	74 0a		 je	 SHORT $LN63@LoadInt_e@3
  00227	34 ec		 xor	 al, -20			; ffffffecH
  00229	88 45 f9	 mov	 BYTE PTR __k$[ebp+33], al
  0022c	e9 d1 00 00 00	 jmp	 $LN1@LoadInt_e@3
$LN63@LoadInt_e@3:
  00231	c6 45 f9 ec	 mov	 BYTE PTR __k$[ebp+33], -20 ; ffffffecH
  00235	e9 c8 00 00 00	 jmp	 $LN1@LoadInt_e@3
$LN64@LoadInt_e@3:
  0023a	c6 45 f8 ed	 mov	 BYTE PTR __k$[ebp+32], -19 ; ffffffedH
  0023e	e9 bf 00 00 00	 jmp	 $LN1@LoadInt_e@3
$LN65@LoadInt_e@3:
  00243	88 5d f7	 mov	 BYTE PTR __k$[ebp+31], bl
  00246	e9 b7 00 00 00	 jmp	 $LN1@LoadInt_e@3
$LN66@LoadInt_e@3:
  0024b	88 4d f6	 mov	 BYTE PTR __k$[ebp+30], cl
  0024e	e9 af 00 00 00	 jmp	 $LN1@LoadInt_e@3
$LN68@LoadInt_e@3:
  00253	c6 45 f4 ed	 mov	 BYTE PTR __k$[ebp+28], -19 ; ffffffedH
  00257	e9 a6 00 00 00	 jmp	 $LN1@LoadInt_e@3
$LN69@LoadInt_e@3:
  0025c	88 5d f3	 mov	 BYTE PTR __k$[ebp+27], bl
  0025f	e9 9e 00 00 00	 jmp	 $LN1@LoadInt_e@3
$LN70@LoadInt_e@3:
  00264	88 4d f2	 mov	 BYTE PTR __k$[ebp+26], cl
  00267	e9 96 00 00 00	 jmp	 $LN1@LoadInt_e@3
$LN71@LoadInt_e@3:
  0026c	c6 45 f1 ec	 mov	 BYTE PTR __k$[ebp+25], -20 ; ffffffecH
  00270	e9 8d 00 00 00	 jmp	 $LN1@LoadInt_e@3
$LN72@LoadInt_e@3:
  00275	c6 45 f0 ed	 mov	 BYTE PTR __k$[ebp+24], -19 ; ffffffedH
  00279	e9 84 00 00 00	 jmp	 $LN1@LoadInt_e@3
$LN73@LoadInt_e@3:
  0027e	88 5d ef	 mov	 BYTE PTR __k$[ebp+23], bl
  00281	eb 7f		 jmp	 SHORT $LN1@LoadInt_e@3
$LN74@LoadInt_e@3:
  00283	88 4d ee	 mov	 BYTE PTR __k$[ebp+22], cl
  00286	eb 7a		 jmp	 SHORT $LN1@LoadInt_e@3
$LN75@LoadInt_e@3:
  00288	c6 45 ed ec	 mov	 BYTE PTR __k$[ebp+21], -20 ; ffffffecH
  0028c	eb 74		 jmp	 SHORT $LN1@LoadInt_e@3
$LN76@LoadInt_e@3:
  0028e	c6 45 ec ed	 mov	 BYTE PTR __k$[ebp+20], -19 ; ffffffedH
  00292	eb 6e		 jmp	 SHORT $LN1@LoadInt_e@3
$LN77@LoadInt_e@3:
  00294	88 5d eb	 mov	 BYTE PTR __k$[ebp+19], bl
  00297	eb 69		 jmp	 SHORT $LN1@LoadInt_e@3
$LN78@LoadInt_e@3:
  00299	88 4d ea	 mov	 BYTE PTR __k$[ebp+18], cl
  0029c	eb 64		 jmp	 SHORT $LN1@LoadInt_e@3
$LN79@LoadInt_e@3:
  0029e	c6 45 e9 ec	 mov	 BYTE PTR __k$[ebp+17], -20 ; ffffffecH
  002a2	eb 5e		 jmp	 SHORT $LN1@LoadInt_e@3
$LN80@LoadInt_e@3:
  002a4	c6 45 e8 ed	 mov	 BYTE PTR __k$[ebp+16], -19 ; ffffffedH
  002a8	eb 58		 jmp	 SHORT $LN1@LoadInt_e@3
$LN81@LoadInt_e@3:
  002aa	88 5d e7	 mov	 BYTE PTR __k$[ebp+15], bl
  002ad	eb 53		 jmp	 SHORT $LN1@LoadInt_e@3
$LN82@LoadInt_e@3:
  002af	88 4d e6	 mov	 BYTE PTR __k$[ebp+14], cl
  002b2	eb 4e		 jmp	 SHORT $LN1@LoadInt_e@3
$LN83@LoadInt_e@3:
  002b4	c6 45 e5 ec	 mov	 BYTE PTR __k$[ebp+13], -20 ; ffffffecH
  002b8	eb 48		 jmp	 SHORT $LN1@LoadInt_e@3
$LN84@LoadInt_e@3:
  002ba	c6 45 e4 ed	 mov	 BYTE PTR __k$[ebp+12], -19 ; ffffffedH
  002be	eb 42		 jmp	 SHORT $LN1@LoadInt_e@3
$LN85@LoadInt_e@3:
  002c0	88 5d e3	 mov	 BYTE PTR __k$[ebp+11], bl
  002c3	eb 3d		 jmp	 SHORT $LN1@LoadInt_e@3
$LN86@LoadInt_e@3:
  002c5	88 4d e2	 mov	 BYTE PTR __k$[ebp+10], cl
  002c8	eb 38		 jmp	 SHORT $LN1@LoadInt_e@3
$LN87@LoadInt_e@3:
  002ca	c6 45 e1 ec	 mov	 BYTE PTR __k$[ebp+9], -20 ; ffffffecH
  002ce	eb 32		 jmp	 SHORT $LN1@LoadInt_e@3
$LN88@LoadInt_e@3:
  002d0	c6 45 e0 ed	 mov	 BYTE PTR __k$[ebp+8], -19 ; ffffffedH
  002d4	eb 2c		 jmp	 SHORT $LN1@LoadInt_e@3
$LN89@LoadInt_e@3:
  002d6	88 5d df	 mov	 BYTE PTR __k$[ebp+7], bl
  002d9	eb 27		 jmp	 SHORT $LN1@LoadInt_e@3
$LN90@LoadInt_e@3:
  002db	88 4d de	 mov	 BYTE PTR __k$[ebp+6], cl
  002de	eb 22		 jmp	 SHORT $LN1@LoadInt_e@3
$LN91@LoadInt_e@3:
  002e0	c6 45 dd ec	 mov	 BYTE PTR __k$[ebp+5], -20 ; ffffffecH
  002e4	eb 1c		 jmp	 SHORT $LN1@LoadInt_e@3
$LN92@LoadInt_e@3:
  002e6	c6 45 dc ed	 mov	 BYTE PTR __k$[ebp+4], -19 ; ffffffedH
  002ea	eb 16		 jmp	 SHORT $LN1@LoadInt_e@3
$LN93@LoadInt_e@3:
  002ec	c6 45 db ea	 mov	 BYTE PTR __k$[ebp+3], -22 ; ffffffeaH
  002f0	eb 10		 jmp	 SHORT $LN1@LoadInt_e@3
$LN94@LoadInt_e@3:
  002f2	c6 45 da eb	 mov	 BYTE PTR __k$[ebp+2], -21 ; ffffffebH
  002f6	eb 0a		 jmp	 SHORT $LN1@LoadInt_e@3
$LN95@LoadInt_e@3:
  002f8	c6 45 d9 ec	 mov	 BYTE PTR __k$[ebp+1], -20 ; ffffffecH
  002fc	eb 04		 jmp	 SHORT $LN1@LoadInt_e@3
$LN96@LoadInt_e@3:
  002fe	c6 45 d8 ed	 mov	 BYTE PTR __k$[ebp], -19	; ffffffedH
$LN1@LoadInt_e@3:
  00302	6a 07		 push	 7
  00304	8d 45 d8	 lea	 eax, DWORD PTR __k$[ebp]
  00307	c6 45 f5 00	 mov	 BYTE PTR __k$[ebp+29], 0
  0030b	5a		 pop	 edx
$LL104@LoadInt_e@3:
  0030c	81 30 ed ec eb
	ea		 xor	 DWORD PTR [eax], -353637139 ; eaebecedH
  00312	83 c0 04	 add	 eax, 4
  00315	4a		 dec	 edx
  00316	75 f4		 jne	 SHORT $LL104@LoadInt_e@3

; 120  : 		return LoadInt(_k, i);

  00318	ff 75 0c	 push	 DWORD PTR _i$[ebp]
  0031b	80 75 f4 ed	 xor	 BYTE PTR __k$[ebp+28], -19 ; ffffffedH
  0031f	8d 45 d8	 lea	 eax, DWORD PTR __k$[ebp]
  00322	50		 push	 eax
  00323	8b ce		 mov	 ecx, esi
  00325	ff 15 00 00 00
	00		 call	 DWORD PTR __imp_?LoadInt@ioINILoader@@QAEHPBDH@Z

; 121  : 	}

  0032b	8b 4d fc	 mov	 ecx, DWORD PTR __$ArrayPad$[ebp]
  0032e	5e		 pop	 esi
  0032f	33 cd		 xor	 ecx, ebp
  00331	5b		 pop	 ebx
  00332	e8 00 00 00 00	 call	 @__security_check_cookie@4
  00337	c9		 leave
  00338	c2 08 00	 ret	 8
??$LoadInt_e@$0BO@@ioINILoader@@QAEHAAY0BO@$$CBDH@Z ENDP ; ioINILoader::LoadInt_e<30>
_TEXT	ENDS
PUBLIC	_this$GSCopy$
PUBLIC	__$ArrayPad$
PUBLIC	??$LoadString_e@$0BN@@ioINILoader@@QAEXAAY0BN@$$CBDAAY00$$CBDPADH@Z ; ioINILoader::LoadString_e<29>
; Function compile flags: /Ogsp
;	COMDAT ??$LoadString_e@$0BN@@ioINILoader@@QAEXAAY0BN@$$CBDAAY00$$CBDPADH@Z
_TEXT	SEGMENT
_this$GSCopy$ = -44					; size = 4
__k$ = -40						; size = 29
__$ArrayPad$ = -4					; size = 4
_k$ = 8							; size = 4
_d$ = 12						; size = 4
_b$ = 16						; size = 4
_i$ = 20						; size = 4
??$LoadString_e@$0BN@@ioINILoader@@QAEXAAY0BN@$$CBDAAY00$$CBDPADH@Z PROC ; ioINILoader::LoadString_e<29>, COMDAT
; _this$ = ecx

; 161  : 	{

  00000	55		 push	 ebp
  00001	8b ec		 mov	 ebp, esp
  00003	83 ec 2c	 sub	 esp, 44			; 0000002cH
  00006	a1 00 00 00 00	 mov	 eax, DWORD PTR ___security_cookie
  0000b	33 c5		 xor	 eax, ebp
  0000d	89 45 fc	 mov	 DWORD PTR __$ArrayPad$[ebp], eax
  00010	8b 45 08	 mov	 eax, DWORD PTR _k$[ebp]

; 162  : 		_ENCSTR(k, _k);

  00013	8a 10		 mov	 dl, BYTE PTR [eax]
  00015	53		 push	 ebx
  00016	56		 push	 esi
  00017	8b 75 0c	 mov	 esi, DWORD PTR _d$[ebp]
  0001a	57		 push	 edi
  0001b	8b 7d 10	 mov	 edi, DWORD PTR _b$[ebp]
  0001e	89 4d d4	 mov	 DWORD PTR _this$GSCopy$[ebp], ecx
  00021	84 d2		 test	 dl, dl
  00023	0f 84 c3 02 00
	00		 je	 $LN96@LoadString@4
  00029	80 f2 ed	 xor	 dl, -19			; ffffffedH
  0002c	88 55 d8	 mov	 BYTE PTR __k$[ebp], dl
  0002f	8a 50 01	 mov	 dl, BYTE PTR [eax+1]
  00032	84 d2		 test	 dl, dl
  00034	0f 84 ac 02 00
	00		 je	 $LN95@LoadString@4
  0003a	b1 ec		 mov	 cl, -20			; ffffffecH
  0003c	32 d1		 xor	 dl, cl
  0003e	88 55 d9	 mov	 BYTE PTR __k$[ebp+1], dl
  00041	8a 50 02	 mov	 dl, BYTE PTR [eax+2]
  00044	84 d2		 test	 dl, dl
  00046	0f 84 94 02 00
	00		 je	 $LN94@LoadString@4
  0004c	b3 eb		 mov	 bl, -21			; ffffffebH
  0004e	32 d3		 xor	 dl, bl
  00050	88 55 da	 mov	 BYTE PTR __k$[ebp+2], dl
  00053	8a 50 03	 mov	 dl, BYTE PTR [eax+3]
  00056	84 d2		 test	 dl, dl
  00058	0f 84 7c 02 00
	00		 je	 $LN93@LoadString@4
  0005e	80 f2 ea	 xor	 dl, -22			; ffffffeaH
  00061	88 55 db	 mov	 BYTE PTR __k$[ebp+3], dl
  00064	8a 50 04	 mov	 dl, BYTE PTR [eax+4]
  00067	84 d2		 test	 dl, dl
  00069	0f 84 65 02 00
	00		 je	 $LN92@LoadString@4
  0006f	80 f2 ed	 xor	 dl, -19			; ffffffedH
  00072	88 55 dc	 mov	 BYTE PTR __k$[ebp+4], dl
  00075	8a 50 05	 mov	 dl, BYTE PTR [eax+5]
  00078	84 d2		 test	 dl, dl
  0007a	0f 84 4f 02 00
	00		 je	 $LN91@LoadString@4
  00080	32 d1		 xor	 dl, cl
  00082	88 55 dd	 mov	 BYTE PTR __k$[ebp+5], dl
  00085	8a 50 06	 mov	 dl, BYTE PTR [eax+6]
  00088	84 d2		 test	 dl, dl
  0008a	0f 84 3a 02 00
	00		 je	 $LN90@LoadString@4
  00090	32 d3		 xor	 dl, bl
  00092	88 55 de	 mov	 BYTE PTR __k$[ebp+6], dl
  00095	8a 50 07	 mov	 dl, BYTE PTR [eax+7]
  00098	84 d2		 test	 dl, dl
  0009a	0f 84 24 02 00
	00		 je	 $LN89@LoadString@4
  000a0	80 f2 ea	 xor	 dl, -22			; ffffffeaH
  000a3	88 55 df	 mov	 BYTE PTR __k$[ebp+7], dl
  000a6	8a 50 08	 mov	 dl, BYTE PTR [eax+8]
  000a9	84 d2		 test	 dl, dl
  000ab	0f 84 0d 02 00
	00		 je	 $LN88@LoadString@4
  000b1	80 f2 ed	 xor	 dl, -19			; ffffffedH
  000b4	88 55 e0	 mov	 BYTE PTR __k$[ebp+8], dl
  000b7	8a 50 09	 mov	 dl, BYTE PTR [eax+9]
  000ba	84 d2		 test	 dl, dl
  000bc	0f 84 f7 01 00
	00		 je	 $LN87@LoadString@4
  000c2	32 d1		 xor	 dl, cl
  000c4	88 55 e1	 mov	 BYTE PTR __k$[ebp+9], dl
  000c7	8a 50 0a	 mov	 dl, BYTE PTR [eax+10]
  000ca	84 d2		 test	 dl, dl
  000cc	0f 84 e2 01 00
	00		 je	 $LN86@LoadString@4
  000d2	32 d3		 xor	 dl, bl
  000d4	88 55 e2	 mov	 BYTE PTR __k$[ebp+10], dl
  000d7	8a 50 0b	 mov	 dl, BYTE PTR [eax+11]
  000da	84 d2		 test	 dl, dl
  000dc	0f 84 cc 01 00
	00		 je	 $LN85@LoadString@4
  000e2	80 f2 ea	 xor	 dl, -22			; ffffffeaH
  000e5	88 55 e3	 mov	 BYTE PTR __k$[ebp+11], dl
  000e8	8a 50 0c	 mov	 dl, BYTE PTR [eax+12]
  000eb	84 d2		 test	 dl, dl
  000ed	0f 84 b5 01 00
	00		 je	 $LN84@LoadString@4
  000f3	80 f2 ed	 xor	 dl, -19			; ffffffedH
  000f6	88 55 e4	 mov	 BYTE PTR __k$[ebp+12], dl
  000f9	8a 50 0d	 mov	 dl, BYTE PTR [eax+13]
  000fc	84 d2		 test	 dl, dl
  000fe	0f 84 9f 01 00
	00		 je	 $LN83@LoadString@4
  00104	32 d1		 xor	 dl, cl
  00106	88 55 e5	 mov	 BYTE PTR __k$[ebp+13], dl
  00109	8a 50 0e	 mov	 dl, BYTE PTR [eax+14]
  0010c	84 d2		 test	 dl, dl
  0010e	0f 84 8a 01 00
	00		 je	 $LN82@LoadString@4
  00114	32 d3		 xor	 dl, bl
  00116	88 55 e6	 mov	 BYTE PTR __k$[ebp+14], dl
  00119	8a 50 0f	 mov	 dl, BYTE PTR [eax+15]
  0011c	84 d2		 test	 dl, dl
  0011e	0f 84 74 01 00
	00		 je	 $LN81@LoadString@4
  00124	80 f2 ea	 xor	 dl, -22			; ffffffeaH
  00127	88 55 e7	 mov	 BYTE PTR __k$[ebp+15], dl
  0012a	8a 50 10	 mov	 dl, BYTE PTR [eax+16]
  0012d	84 d2		 test	 dl, dl
  0012f	0f 84 5d 01 00
	00		 je	 $LN80@LoadString@4
  00135	80 f2 ed	 xor	 dl, -19			; ffffffedH
  00138	88 55 e8	 mov	 BYTE PTR __k$[ebp+16], dl
  0013b	8a 50 11	 mov	 dl, BYTE PTR [eax+17]
  0013e	84 d2		 test	 dl, dl
  00140	0f 84 47 01 00
	00		 je	 $LN79@LoadString@4
  00146	32 d1		 xor	 dl, cl
  00148	88 55 e9	 mov	 BYTE PTR __k$[ebp+17], dl
  0014b	8a 50 12	 mov	 dl, BYTE PTR [eax+18]
  0014e	84 d2		 test	 dl, dl
  00150	0f 84 32 01 00
	00		 je	 $LN78@LoadString@4
  00156	32 d3		 xor	 dl, bl
  00158	88 55 ea	 mov	 BYTE PTR __k$[ebp+18], dl
  0015b	8a 50 13	 mov	 dl, BYTE PTR [eax+19]
  0015e	84 d2		 test	 dl, dl
  00160	0f 84 1c 01 00
	00		 je	 $LN77@LoadString@4
  00166	80 f2 ea	 xor	 dl, -22			; ffffffeaH
  00169	88 55 eb	 mov	 BYTE PTR __k$[ebp+19], dl
  0016c	8a 50 14	 mov	 dl, BYTE PTR [eax+20]
  0016f	84 d2		 test	 dl, dl
  00171	0f 84 05 01 00
	00		 je	 $LN76@LoadString@4
  00177	80 f2 ed	 xor	 dl, -19			; ffffffedH
  0017a	88 55 ec	 mov	 BYTE PTR __k$[ebp+20], dl
  0017d	8a 50 15	 mov	 dl, BYTE PTR [eax+21]
  00180	84 d2		 test	 dl, dl
  00182	0f 84 ef 00 00
	00		 je	 $LN75@LoadString@4
  00188	32 d1		 xor	 dl, cl
  0018a	88 55 ed	 mov	 BYTE PTR __k$[ebp+21], dl
  0018d	8a 50 16	 mov	 dl, BYTE PTR [eax+22]
  00190	84 d2		 test	 dl, dl
  00192	0f 84 da 00 00
	00		 je	 $LN74@LoadString@4
  00198	32 d3		 xor	 dl, bl
  0019a	88 55 ee	 mov	 BYTE PTR __k$[ebp+22], dl
  0019d	8a 50 17	 mov	 dl, BYTE PTR [eax+23]
  001a0	84 d2		 test	 dl, dl
  001a2	0f 84 c4 00 00
	00		 je	 $LN73@LoadString@4
  001a8	80 f2 ea	 xor	 dl, -22			; ffffffeaH
  001ab	88 55 ef	 mov	 BYTE PTR __k$[ebp+23], dl
  001ae	8a 50 18	 mov	 dl, BYTE PTR [eax+24]
  001b1	84 d2		 test	 dl, dl
  001b3	0f 84 aa 00 00
	00		 je	 $LN72@LoadString@4
  001b9	80 f2 ed	 xor	 dl, -19			; ffffffedH
  001bc	88 55 f0	 mov	 BYTE PTR __k$[ebp+24], dl
  001bf	8a 50 19	 mov	 dl, BYTE PTR [eax+25]
  001c2	84 d2		 test	 dl, dl
  001c4	0f 84 91 00 00
	00		 je	 $LN71@LoadString@4
  001ca	32 d1		 xor	 dl, cl
  001cc	88 55 f1	 mov	 BYTE PTR __k$[ebp+25], dl
  001cf	8a 50 1a	 mov	 dl, BYTE PTR [eax+26]
  001d2	84 d2		 test	 dl, dl
  001d4	74 7d		 je	 SHORT $LN70@LoadString@4
  001d6	32 d3		 xor	 dl, bl
  001d8	88 55 f2	 mov	 BYTE PTR __k$[ebp+26], dl
  001db	8a 50 1b	 mov	 dl, BYTE PTR [eax+27]
  001de	84 d2		 test	 dl, dl
  001e0	74 68		 je	 SHORT $LN69@LoadString@4
  001e2	80 f2 ea	 xor	 dl, -22			; ffffffeaH
  001e5	80 78 1c 00	 cmp	 BYTE PTR [eax+28], 0
  001e9	88 55 f3	 mov	 BYTE PTR __k$[ebp+27], dl
  001ec	0f 84 fe 00 00
	00		 je	 $LN111@LoadString@4
  001f2	8a 50 1d	 mov	 dl, BYTE PTR [eax+29]
  001f5	84 d2		 test	 dl, dl
  001f7	74 49		 je	 SHORT $LN67@LoadString@4
  001f9	32 d1		 xor	 dl, cl
  001fb	88 55 f5	 mov	 BYTE PTR __k$[ebp+29], dl
  001fe	8a 50 1e	 mov	 dl, BYTE PTR [eax+30]
  00201	84 d2		 test	 dl, dl
  00203	74 35		 je	 SHORT $LN66@LoadString@4
  00205	32 d3		 xor	 dl, bl
  00207	88 55 f6	 mov	 BYTE PTR __k$[ebp+30], dl
  0020a	8a 50 1f	 mov	 dl, BYTE PTR [eax+31]
  0020d	84 d2		 test	 dl, dl
  0020f	74 20		 je	 SHORT $LN65@LoadString@4
  00211	8a 40 20	 mov	 al, BYTE PTR [eax+32]
  00214	80 f2 ea	 xor	 dl, -22			; ffffffeaH
  00217	88 55 f7	 mov	 BYTE PTR __k$[ebp+31], dl
  0021a	84 c0		 test	 al, al
  0021c	74 0a		 je	 SHORT $LN64@LoadString@4
  0021e	34 ed		 xor	 al, -19			; ffffffedH
  00220	88 45 f8	 mov	 BYTE PTR __k$[ebp+32], al
  00223	e9 c8 00 00 00	 jmp	 $LN111@LoadString@4
$LN64@LoadString@4:
  00228	c6 45 f8 ed	 mov	 BYTE PTR __k$[ebp+32], -19 ; ffffffedH
  0022c	e9 bf 00 00 00	 jmp	 $LN111@LoadString@4
$LN65@LoadString@4:
  00231	c6 45 f7 ea	 mov	 BYTE PTR __k$[ebp+31], -22 ; ffffffeaH
  00235	e9 b6 00 00 00	 jmp	 $LN111@LoadString@4
$LN66@LoadString@4:
  0023a	88 5d f6	 mov	 BYTE PTR __k$[ebp+30], bl
  0023d	e9 ae 00 00 00	 jmp	 $LN111@LoadString@4
$LN67@LoadString@4:
  00242	88 4d f5	 mov	 BYTE PTR __k$[ebp+29], cl
  00245	e9 a6 00 00 00	 jmp	 $LN111@LoadString@4
$LN69@LoadString@4:
  0024a	c6 45 f3 ea	 mov	 BYTE PTR __k$[ebp+27], -22 ; ffffffeaH
  0024e	e9 9d 00 00 00	 jmp	 $LN111@LoadString@4
$LN70@LoadString@4:
  00253	88 5d f2	 mov	 BYTE PTR __k$[ebp+26], bl
  00256	e9 95 00 00 00	 jmp	 $LN111@LoadString@4
$LN71@LoadString@4:
  0025b	88 4d f1	 mov	 BYTE PTR __k$[ebp+25], cl
  0025e	e9 8d 00 00 00	 jmp	 $LN111@LoadString@4
$LN72@LoadString@4:
  00263	c6 45 f0 ed	 mov	 BYTE PTR __k$[ebp+24], -19 ; ffffffedH
  00267	e9 84 00 00 00	 jmp	 $LN111@LoadString@4
$LN73@LoadString@4:
  0026c	c6 45 ef ea	 mov	 BYTE PTR __k$[ebp+23], -22 ; ffffffeaH
  00270	eb 7e		 jmp	 SHORT $LN111@LoadString@4
$LN74@LoadString@4:
  00272	88 5d ee	 mov	 BYTE PTR __k$[ebp+22], bl
  00275	eb 79		 jmp	 SHORT $LN111@LoadString@4
$LN75@LoadString@4:
  00277	88 4d ed	 mov	 BYTE PTR __k$[ebp+21], cl
  0027a	eb 74		 jmp	 SHORT $LN111@LoadString@4
$LN76@LoadString@4:
  0027c	c6 45 ec ed	 mov	 BYTE PTR __k$[ebp+20], -19 ; ffffffedH
  00280	eb 6e		 jmp	 SHORT $LN111@LoadString@4
$LN77@LoadString@4:
  00282	c6 45 eb ea	 mov	 BYTE PTR __k$[ebp+19], -22 ; ffffffeaH
  00286	eb 68		 jmp	 SHORT $LN111@LoadString@4
$LN78@LoadString@4:
  00288	88 5d ea	 mov	 BYTE PTR __k$[ebp+18], bl
  0028b	eb 63		 jmp	 SHORT $LN111@LoadString@4
$LN79@LoadString@4:
  0028d	88 4d e9	 mov	 BYTE PTR __k$[ebp+17], cl
  00290	eb 5e		 jmp	 SHORT $LN111@LoadString@4
$LN80@LoadString@4:
  00292	c6 45 e8 ed	 mov	 BYTE PTR __k$[ebp+16], -19 ; ffffffedH
  00296	eb 58		 jmp	 SHORT $LN111@LoadString@4
$LN81@LoadString@4:
  00298	c6 45 e7 ea	 mov	 BYTE PTR __k$[ebp+15], -22 ; ffffffeaH
  0029c	eb 52		 jmp	 SHORT $LN111@LoadString@4
$LN82@LoadString@4:
  0029e	88 5d e6	 mov	 BYTE PTR __k$[ebp+14], bl
  002a1	eb 4d		 jmp	 SHORT $LN111@LoadString@4
$LN83@LoadString@4:
  002a3	88 4d e5	 mov	 BYTE PTR __k$[ebp+13], cl
  002a6	eb 48		 jmp	 SHORT $LN111@LoadString@4
$LN84@LoadString@4:
  002a8	c6 45 e4 ed	 mov	 BYTE PTR __k$[ebp+12], -19 ; ffffffedH
  002ac	eb 42		 jmp	 SHORT $LN111@LoadString@4
$LN85@LoadString@4:
  002ae	c6 45 e3 ea	 mov	 BYTE PTR __k$[ebp+11], -22 ; ffffffeaH
  002b2	eb 3c		 jmp	 SHORT $LN111@LoadString@4
$LN86@LoadString@4:
  002b4	88 5d e2	 mov	 BYTE PTR __k$[ebp+10], bl
  002b7	eb 37		 jmp	 SHORT $LN111@LoadString@4
$LN87@LoadString@4:
  002b9	88 4d e1	 mov	 BYTE PTR __k$[ebp+9], cl
  002bc	eb 32		 jmp	 SHORT $LN111@LoadString@4
$LN88@LoadString@4:
  002be	c6 45 e0 ed	 mov	 BYTE PTR __k$[ebp+8], -19 ; ffffffedH
  002c2	eb 2c		 jmp	 SHORT $LN111@LoadString@4
$LN89@LoadString@4:
  002c4	c6 45 df ea	 mov	 BYTE PTR __k$[ebp+7], -22 ; ffffffeaH
  002c8	eb 26		 jmp	 SHORT $LN111@LoadString@4
$LN90@LoadString@4:
  002ca	88 5d de	 mov	 BYTE PTR __k$[ebp+6], bl
  002cd	eb 21		 jmp	 SHORT $LN111@LoadString@4
$LN91@LoadString@4:
  002cf	88 4d dd	 mov	 BYTE PTR __k$[ebp+5], cl
  002d2	eb 1c		 jmp	 SHORT $LN111@LoadString@4
$LN92@LoadString@4:
  002d4	c6 45 dc ed	 mov	 BYTE PTR __k$[ebp+4], -19 ; ffffffedH
  002d8	eb 16		 jmp	 SHORT $LN111@LoadString@4
$LN93@LoadString@4:
  002da	c6 45 db ea	 mov	 BYTE PTR __k$[ebp+3], -22 ; ffffffeaH
  002de	eb 10		 jmp	 SHORT $LN111@LoadString@4
$LN94@LoadString@4:
  002e0	c6 45 da eb	 mov	 BYTE PTR __k$[ebp+2], -21 ; ffffffebH
  002e4	eb 0a		 jmp	 SHORT $LN111@LoadString@4
$LN95@LoadString@4:
  002e6	c6 45 d9 ec	 mov	 BYTE PTR __k$[ebp+1], -20 ; ffffffecH
  002ea	eb 04		 jmp	 SHORT $LN111@LoadString@4
$LN96@LoadString@4:
  002ec	c6 45 d8 ed	 mov	 BYTE PTR __k$[ebp], -19	; ffffffedH
$LN111@LoadString@4:
  002f0	6a 07		 push	 7
  002f2	8d 45 d8	 lea	 eax, DWORD PTR __k$[ebp]
  002f5	c6 45 f4 00	 mov	 BYTE PTR __k$[ebp+28], 0
  002f9	5a		 pop	 edx
$LL104@LoadString@4:
  002fa	81 30 ed ec eb
	ea		 xor	 DWORD PTR [eax], -353637139 ; eaebecedH
  00300	83 c0 04	 add	 eax, 4
  00303	4a		 dec	 edx
  00304	75 f4		 jne	 SHORT $LL104@LoadString@4

; 163  : 		LoadString(_k, d, b, i);

  00306	ff 75 14	 push	 DWORD PTR _i$[ebp]
  00309	8b 4d d4	 mov	 ecx, DWORD PTR _this$GSCopy$[ebp]
  0030c	57		 push	 edi
  0030d	56		 push	 esi
  0030e	8d 45 d8	 lea	 eax, DWORD PTR __k$[ebp]
  00311	50		 push	 eax
  00312	ff 15 00 00 00
	00		 call	 DWORD PTR __imp_?LoadStringA@ioINILoader@@QAEXPBD0PADH@Z

; 164  : 	}

  00318	8b 4d fc	 mov	 ecx, DWORD PTR __$ArrayPad$[ebp]
  0031b	5f		 pop	 edi
  0031c	5e		 pop	 esi
  0031d	33 cd		 xor	 ecx, ebp
  0031f	5b		 pop	 ebx
  00320	e8 00 00 00 00	 call	 @__security_check_cookie@4
  00325	c9		 leave
  00326	c2 10 00	 ret	 16			; 00000010H
??$LoadString_e@$0BN@@ioINILoader@@QAEXAAY0BN@$$CBDAAY00$$CBDPADH@Z ENDP ; ioINILoader::LoadString_e<29>
_TEXT	ENDS
PUBLIC	__$ArrayPad$
PUBLIC	??$LoadInt_e@$0CC@@ioINILoader@@QAEHAAY0CC@$$CBDH@Z ; ioINILoader::LoadInt_e<34>
; Function compile flags: /Ogsp
;	COMDAT ??$LoadInt_e@$0CC@@ioINILoader@@QAEHAAY0CC@$$CBDH@Z
_TEXT	SEGMENT
__k$ = -44						; size = 34
__$ArrayPad$ = -4					; size = 4
_k$ = 8							; size = 4
_i$ = 12						; size = 4
??$LoadInt_e@$0CC@@ioINILoader@@QAEHAAY0CC@$$CBDH@Z PROC ; ioINILoader::LoadInt_e<34>, COMDAT
; _this$ = ecx

; 118  : 	{

  00000	55		 push	 ebp
  00001	8b ec		 mov	 ebp, esp
  00003	83 ec 2c	 sub	 esp, 44			; 0000002cH
  00006	a1 00 00 00 00	 mov	 eax, DWORD PTR ___security_cookie
  0000b	33 c5		 xor	 eax, ebp
  0000d	89 45 fc	 mov	 DWORD PTR __$ArrayPad$[ebp], eax
  00010	8b 45 08	 mov	 eax, DWORD PTR _k$[ebp]

; 119  : 		_ENCSTR(k, _k);

  00013	8a 10		 mov	 dl, BYTE PTR [eax]
  00015	53		 push	 ebx
  00016	56		 push	 esi
  00017	8b f1		 mov	 esi, ecx
  00019	84 d2		 test	 dl, dl
  0001b	0f 84 41 03 00
	00		 je	 $LN96@LoadInt_e@4
  00021	80 f2 ed	 xor	 dl, -19			; ffffffedH
  00024	88 55 d4	 mov	 BYTE PTR __k$[ebp], dl
  00027	8a 50 01	 mov	 dl, BYTE PTR [eax+1]
  0002a	84 d2		 test	 dl, dl
  0002c	0f 84 2a 03 00
	00		 je	 $LN95@LoadInt_e@4
  00032	80 f2 ec	 xor	 dl, -20			; ffffffecH
  00035	88 55 d5	 mov	 BYTE PTR __k$[ebp+1], dl
  00038	8a 50 02	 mov	 dl, BYTE PTR [eax+2]
  0003b	84 d2		 test	 dl, dl
  0003d	0f 84 13 03 00
	00		 je	 $LN94@LoadInt_e@4
  00043	b1 eb		 mov	 cl, -21			; ffffffebH
  00045	32 d1		 xor	 dl, cl
  00047	88 55 d6	 mov	 BYTE PTR __k$[ebp+2], dl
  0004a	8a 50 03	 mov	 dl, BYTE PTR [eax+3]
  0004d	84 d2		 test	 dl, dl
  0004f	0f 84 fb 02 00
	00		 je	 $LN93@LoadInt_e@4
  00055	b3 ea		 mov	 bl, -22			; ffffffeaH
  00057	32 d3		 xor	 dl, bl
  00059	88 55 d7	 mov	 BYTE PTR __k$[ebp+3], dl
  0005c	8a 50 04	 mov	 dl, BYTE PTR [eax+4]
  0005f	84 d2		 test	 dl, dl
  00061	0f 84 e3 02 00
	00		 je	 $LN92@LoadInt_e@4
  00067	80 f2 ed	 xor	 dl, -19			; ffffffedH
  0006a	88 55 d8	 mov	 BYTE PTR __k$[ebp+4], dl
  0006d	8a 50 05	 mov	 dl, BYTE PTR [eax+5]
  00070	84 d2		 test	 dl, dl
  00072	0f 84 cc 02 00
	00		 je	 $LN91@LoadInt_e@4
  00078	80 f2 ec	 xor	 dl, -20			; ffffffecH
  0007b	88 55 d9	 mov	 BYTE PTR __k$[ebp+5], dl
  0007e	8a 50 06	 mov	 dl, BYTE PTR [eax+6]
  00081	84 d2		 test	 dl, dl
  00083	0f 84 b6 02 00
	00		 je	 $LN90@LoadInt_e@4
  00089	32 d1		 xor	 dl, cl
  0008b	88 55 da	 mov	 BYTE PTR __k$[ebp+6], dl
  0008e	8a 50 07	 mov	 dl, BYTE PTR [eax+7]
  00091	84 d2		 test	 dl, dl
  00093	0f 84 a1 02 00
	00		 je	 $LN89@LoadInt_e@4
  00099	32 d3		 xor	 dl, bl
  0009b	88 55 db	 mov	 BYTE PTR __k$[ebp+7], dl
  0009e	8a 50 08	 mov	 dl, BYTE PTR [eax+8]
  000a1	84 d2		 test	 dl, dl
  000a3	0f 84 8b 02 00
	00		 je	 $LN88@LoadInt_e@4
  000a9	80 f2 ed	 xor	 dl, -19			; ffffffedH
  000ac	88 55 dc	 mov	 BYTE PTR __k$[ebp+8], dl
  000af	8a 50 09	 mov	 dl, BYTE PTR [eax+9]
  000b2	84 d2		 test	 dl, dl
  000b4	0f 84 74 02 00
	00		 je	 $LN87@LoadInt_e@4
  000ba	80 f2 ec	 xor	 dl, -20			; ffffffecH
  000bd	88 55 dd	 mov	 BYTE PTR __k$[ebp+9], dl
  000c0	8a 50 0a	 mov	 dl, BYTE PTR [eax+10]
  000c3	84 d2		 test	 dl, dl
  000c5	0f 84 5e 02 00
	00		 je	 $LN86@LoadInt_e@4
  000cb	32 d1		 xor	 dl, cl
  000cd	88 55 de	 mov	 BYTE PTR __k$[ebp+10], dl
  000d0	8a 50 0b	 mov	 dl, BYTE PTR [eax+11]
  000d3	84 d2		 test	 dl, dl
  000d5	0f 84 49 02 00
	00		 je	 $LN85@LoadInt_e@4
  000db	32 d3		 xor	 dl, bl
  000dd	88 55 df	 mov	 BYTE PTR __k$[ebp+11], dl
  000e0	8a 50 0c	 mov	 dl, BYTE PTR [eax+12]
  000e3	84 d2		 test	 dl, dl
  000e5	0f 84 33 02 00
	00		 je	 $LN84@LoadInt_e@4
  000eb	80 f2 ed	 xor	 dl, -19			; ffffffedH
  000ee	88 55 e0	 mov	 BYTE PTR __k$[ebp+12], dl
  000f1	8a 50 0d	 mov	 dl, BYTE PTR [eax+13]
  000f4	84 d2		 test	 dl, dl
  000f6	0f 84 1c 02 00
	00		 je	 $LN83@LoadInt_e@4
  000fc	80 f2 ec	 xor	 dl, -20			; ffffffecH
  000ff	88 55 e1	 mov	 BYTE PTR __k$[ebp+13], dl
  00102	8a 50 0e	 mov	 dl, BYTE PTR [eax+14]
  00105	84 d2		 test	 dl, dl
  00107	0f 84 06 02 00
	00		 je	 $LN82@LoadInt_e@4
  0010d	32 d1		 xor	 dl, cl
  0010f	88 55 e2	 mov	 BYTE PTR __k$[ebp+14], dl
  00112	8a 50 0f	 mov	 dl, BYTE PTR [eax+15]
  00115	84 d2		 test	 dl, dl
  00117	0f 84 f1 01 00
	00		 je	 $LN81@LoadInt_e@4
  0011d	32 d3		 xor	 dl, bl
  0011f	88 55 e3	 mov	 BYTE PTR __k$[ebp+15], dl
  00122	8a 50 10	 mov	 dl, BYTE PTR [eax+16]
  00125	84 d2		 test	 dl, dl
  00127	0f 84 db 01 00
	00		 je	 $LN80@LoadInt_e@4
  0012d	80 f2 ed	 xor	 dl, -19			; ffffffedH
  00130	88 55 e4	 mov	 BYTE PTR __k$[ebp+16], dl
  00133	8a 50 11	 mov	 dl, BYTE PTR [eax+17]
  00136	84 d2		 test	 dl, dl
  00138	0f 84 c4 01 00
	00		 je	 $LN79@LoadInt_e@4
  0013e	80 f2 ec	 xor	 dl, -20			; ffffffecH
  00141	88 55 e5	 mov	 BYTE PTR __k$[ebp+17], dl
  00144	8a 50 12	 mov	 dl, BYTE PTR [eax+18]
  00147	84 d2		 test	 dl, dl
  00149	0f 84 ae 01 00
	00		 je	 $LN78@LoadInt_e@4
  0014f	32 d1		 xor	 dl, cl
  00151	88 55 e6	 mov	 BYTE PTR __k$[ebp+18], dl
  00154	8a 50 13	 mov	 dl, BYTE PTR [eax+19]
  00157	84 d2		 test	 dl, dl
  00159	0f 84 99 01 00
	00		 je	 $LN77@LoadInt_e@4
  0015f	32 d3		 xor	 dl, bl
  00161	88 55 e7	 mov	 BYTE PTR __k$[ebp+19], dl
  00164	8a 50 14	 mov	 dl, BYTE PTR [eax+20]
  00167	84 d2		 test	 dl, dl
  00169	0f 84 83 01 00
	00		 je	 $LN76@LoadInt_e@4
  0016f	80 f2 ed	 xor	 dl, -19			; ffffffedH
  00172	88 55 e8	 mov	 BYTE PTR __k$[ebp+20], dl
  00175	8a 50 15	 mov	 dl, BYTE PTR [eax+21]
  00178	84 d2		 test	 dl, dl
  0017a	0f 84 6c 01 00
	00		 je	 $LN75@LoadInt_e@4
  00180	80 f2 ec	 xor	 dl, -20			; ffffffecH
  00183	88 55 e9	 mov	 BYTE PTR __k$[ebp+21], dl
  00186	8a 50 16	 mov	 dl, BYTE PTR [eax+22]
  00189	84 d2		 test	 dl, dl
  0018b	0f 84 56 01 00
	00		 je	 $LN74@LoadInt_e@4
  00191	32 d1		 xor	 dl, cl
  00193	88 55 ea	 mov	 BYTE PTR __k$[ebp+22], dl
  00196	8a 50 17	 mov	 dl, BYTE PTR [eax+23]
  00199	84 d2		 test	 dl, dl
  0019b	0f 84 41 01 00
	00		 je	 $LN73@LoadInt_e@4
  001a1	32 d3		 xor	 dl, bl
  001a3	88 55 eb	 mov	 BYTE PTR __k$[ebp+23], dl
  001a6	8a 50 18	 mov	 dl, BYTE PTR [eax+24]
  001a9	84 d2		 test	 dl, dl
  001ab	0f 84 28 01 00
	00		 je	 $LN72@LoadInt_e@4
  001b1	80 f2 ed	 xor	 dl, -19			; ffffffedH
  001b4	88 55 ec	 mov	 BYTE PTR __k$[ebp+24], dl
  001b7	8a 50 19	 mov	 dl, BYTE PTR [eax+25]
  001ba	84 d2		 test	 dl, dl
  001bc	0f 84 0e 01 00
	00		 je	 $LN71@LoadInt_e@4
  001c2	80 f2 ec	 xor	 dl, -20			; ffffffecH
  001c5	88 55 ed	 mov	 BYTE PTR __k$[ebp+25], dl
  001c8	8a 50 1a	 mov	 dl, BYTE PTR [eax+26]
  001cb	84 d2		 test	 dl, dl
  001cd	0f 84 f5 00 00
	00		 je	 $LN70@LoadInt_e@4
  001d3	32 d1		 xor	 dl, cl
  001d5	88 55 ee	 mov	 BYTE PTR __k$[ebp+26], dl
  001d8	8a 50 1b	 mov	 dl, BYTE PTR [eax+27]
  001db	84 d2		 test	 dl, dl
  001dd	0f 84 dd 00 00
	00		 je	 $LN69@LoadInt_e@4
  001e3	32 d3		 xor	 dl, bl
  001e5	88 55 ef	 mov	 BYTE PTR __k$[ebp+27], dl
  001e8	8a 50 1c	 mov	 dl, BYTE PTR [eax+28]
  001eb	84 d2		 test	 dl, dl
  001ed	0f 84 c4 00 00
	00		 je	 $LN68@LoadInt_e@4
  001f3	80 f2 ed	 xor	 dl, -19			; ffffffedH
  001f6	88 55 f0	 mov	 BYTE PTR __k$[ebp+28], dl
  001f9	8a 50 1d	 mov	 dl, BYTE PTR [eax+29]
  001fc	84 d2		 test	 dl, dl
  001fe	0f 84 aa 00 00
	00		 je	 $LN67@LoadInt_e@4
  00204	80 f2 ec	 xor	 dl, -20			; ffffffecH
  00207	88 55 f1	 mov	 BYTE PTR __k$[ebp+29], dl
  0020a	8a 50 1e	 mov	 dl, BYTE PTR [eax+30]
  0020d	84 d2		 test	 dl, dl
  0020f	0f 84 91 00 00
	00		 je	 $LN66@LoadInt_e@4
  00215	32 d1		 xor	 dl, cl
  00217	88 55 f2	 mov	 BYTE PTR __k$[ebp+30], dl
  0021a	8a 50 1f	 mov	 dl, BYTE PTR [eax+31]
  0021d	84 d2		 test	 dl, dl
  0021f	74 7d		 je	 SHORT $LN65@LoadInt_e@4
  00221	32 d3		 xor	 dl, bl
  00223	88 55 f3	 mov	 BYTE PTR __k$[ebp+31], dl
  00226	8a 50 20	 mov	 dl, BYTE PTR [eax+32]
  00229	84 d2		 test	 dl, dl
  0022b	74 68		 je	 SHORT $LN64@LoadInt_e@4
  0022d	80 f2 ed	 xor	 dl, -19			; ffffffedH
  00230	80 78 21 00	 cmp	 BYTE PTR [eax+33], 0
  00234	88 55 f4	 mov	 BYTE PTR __k$[ebp+32], dl
  00237	0f 84 29 01 00
	00		 je	 $LN1@LoadInt_e@4
  0023d	8a 50 22	 mov	 dl, BYTE PTR [eax+34]
  00240	84 d2		 test	 dl, dl
  00242	74 49		 je	 SHORT $LN62@LoadInt_e@4
  00244	32 d1		 xor	 dl, cl
  00246	88 55 f6	 mov	 BYTE PTR __k$[ebp+34], dl
  00249	8a 50 23	 mov	 dl, BYTE PTR [eax+35]
  0024c	84 d2		 test	 dl, dl
  0024e	74 35		 je	 SHORT $LN61@LoadInt_e@4
  00250	32 d3		 xor	 dl, bl
  00252	88 55 f7	 mov	 BYTE PTR __k$[ebp+35], dl
  00255	8a 50 24	 mov	 dl, BYTE PTR [eax+36]
  00258	84 d2		 test	 dl, dl
  0025a	74 20		 je	 SHORT $LN60@LoadInt_e@4
  0025c	8a 40 25	 mov	 al, BYTE PTR [eax+37]
  0025f	80 f2 ed	 xor	 dl, -19			; ffffffedH
  00262	88 55 f8	 mov	 BYTE PTR __k$[ebp+36], dl
  00265	84 c0		 test	 al, al
  00267	74 0a		 je	 SHORT $LN59@LoadInt_e@4
  00269	34 ec		 xor	 al, -20			; ffffffecH
  0026b	88 45 f9	 mov	 BYTE PTR __k$[ebp+37], al
  0026e	e9 f3 00 00 00	 jmp	 $LN1@LoadInt_e@4
$LN59@LoadInt_e@4:
  00273	c6 45 f9 ec	 mov	 BYTE PTR __k$[ebp+37], -20 ; ffffffecH
  00277	e9 ea 00 00 00	 jmp	 $LN1@LoadInt_e@4
$LN60@LoadInt_e@4:
  0027c	c6 45 f8 ed	 mov	 BYTE PTR __k$[ebp+36], -19 ; ffffffedH
  00280	e9 e1 00 00 00	 jmp	 $LN1@LoadInt_e@4
$LN61@LoadInt_e@4:
  00285	88 5d f7	 mov	 BYTE PTR __k$[ebp+35], bl
  00288	e9 d9 00 00 00	 jmp	 $LN1@LoadInt_e@4
$LN62@LoadInt_e@4:
  0028d	88 4d f6	 mov	 BYTE PTR __k$[ebp+34], cl
  00290	e9 d1 00 00 00	 jmp	 $LN1@LoadInt_e@4
$LN64@LoadInt_e@4:
  00295	c6 45 f4 ed	 mov	 BYTE PTR __k$[ebp+32], -19 ; ffffffedH
  00299	e9 c8 00 00 00	 jmp	 $LN1@LoadInt_e@4
$LN65@LoadInt_e@4:
  0029e	88 5d f3	 mov	 BYTE PTR __k$[ebp+31], bl
  002a1	e9 c0 00 00 00	 jmp	 $LN1@LoadInt_e@4
$LN66@LoadInt_e@4:
  002a6	88 4d f2	 mov	 BYTE PTR __k$[ebp+30], cl
  002a9	e9 b8 00 00 00	 jmp	 $LN1@LoadInt_e@4
$LN67@LoadInt_e@4:
  002ae	c6 45 f1 ec	 mov	 BYTE PTR __k$[ebp+29], -20 ; ffffffecH
  002b2	e9 af 00 00 00	 jmp	 $LN1@LoadInt_e@4
$LN68@LoadInt_e@4:
  002b7	c6 45 f0 ed	 mov	 BYTE PTR __k$[ebp+28], -19 ; ffffffedH
  002bb	e9 a6 00 00 00	 jmp	 $LN1@LoadInt_e@4
$LN69@LoadInt_e@4:
  002c0	88 5d ef	 mov	 BYTE PTR __k$[ebp+27], bl
  002c3	e9 9e 00 00 00	 jmp	 $LN1@LoadInt_e@4
$LN70@LoadInt_e@4:
  002c8	88 4d ee	 mov	 BYTE PTR __k$[ebp+26], cl
  002cb	e9 96 00 00 00	 jmp	 $LN1@LoadInt_e@4
$LN71@LoadInt_e@4:
  002d0	c6 45 ed ec	 mov	 BYTE PTR __k$[ebp+25], -20 ; ffffffecH
  002d4	e9 8d 00 00 00	 jmp	 $LN1@LoadInt_e@4
$LN72@LoadInt_e@4:
  002d9	c6 45 ec ed	 mov	 BYTE PTR __k$[ebp+24], -19 ; ffffffedH
  002dd	e9 84 00 00 00	 jmp	 $LN1@LoadInt_e@4
$LN73@LoadInt_e@4:
  002e2	88 5d eb	 mov	 BYTE PTR __k$[ebp+23], bl
  002e5	eb 7f		 jmp	 SHORT $LN1@LoadInt_e@4
$LN74@LoadInt_e@4:
  002e7	88 4d ea	 mov	 BYTE PTR __k$[ebp+22], cl
  002ea	eb 7a		 jmp	 SHORT $LN1@LoadInt_e@4
$LN75@LoadInt_e@4:
  002ec	c6 45 e9 ec	 mov	 BYTE PTR __k$[ebp+21], -20 ; ffffffecH
  002f0	eb 74		 jmp	 SHORT $LN1@LoadInt_e@4
$LN76@LoadInt_e@4:
  002f2	c6 45 e8 ed	 mov	 BYTE PTR __k$[ebp+20], -19 ; ffffffedH
  002f6	eb 6e		 jmp	 SHORT $LN1@LoadInt_e@4
$LN77@LoadInt_e@4:
  002f8	88 5d e7	 mov	 BYTE PTR __k$[ebp+19], bl
  002fb	eb 69		 jmp	 SHORT $LN1@LoadInt_e@4
$LN78@LoadInt_e@4:
  002fd	88 4d e6	 mov	 BYTE PTR __k$[ebp+18], cl
  00300	eb 64		 jmp	 SHORT $LN1@LoadInt_e@4
$LN79@LoadInt_e@4:
  00302	c6 45 e5 ec	 mov	 BYTE PTR __k$[ebp+17], -20 ; ffffffecH
  00306	eb 5e		 jmp	 SHORT $LN1@LoadInt_e@4
$LN80@LoadInt_e@4:
  00308	c6 45 e4 ed	 mov	 BYTE PTR __k$[ebp+16], -19 ; ffffffedH
  0030c	eb 58		 jmp	 SHORT $LN1@LoadInt_e@4
$LN81@LoadInt_e@4:
  0030e	88 5d e3	 mov	 BYTE PTR __k$[ebp+15], bl
  00311	eb 53		 jmp	 SHORT $LN1@LoadInt_e@4
$LN82@LoadInt_e@4:
  00313	88 4d e2	 mov	 BYTE PTR __k$[ebp+14], cl
  00316	eb 4e		 jmp	 SHORT $LN1@LoadInt_e@4
$LN83@LoadInt_e@4:
  00318	c6 45 e1 ec	 mov	 BYTE PTR __k$[ebp+13], -20 ; ffffffecH
  0031c	eb 48		 jmp	 SHORT $LN1@LoadInt_e@4
$LN84@LoadInt_e@4:
  0031e	c6 45 e0 ed	 mov	 BYTE PTR __k$[ebp+12], -19 ; ffffffedH
  00322	eb 42		 jmp	 SHORT $LN1@LoadInt_e@4
$LN85@LoadInt_e@4:
  00324	88 5d df	 mov	 BYTE PTR __k$[ebp+11], bl
  00327	eb 3d		 jmp	 SHORT $LN1@LoadInt_e@4
$LN86@LoadInt_e@4:
  00329	88 4d de	 mov	 BYTE PTR __k$[ebp+10], cl
  0032c	eb 38		 jmp	 SHORT $LN1@LoadInt_e@4
$LN87@LoadInt_e@4:
  0032e	c6 45 dd ec	 mov	 BYTE PTR __k$[ebp+9], -20 ; ffffffecH
  00332	eb 32		 jmp	 SHORT $LN1@LoadInt_e@4
$LN88@LoadInt_e@4:
  00334	c6 45 dc ed	 mov	 BYTE PTR __k$[ebp+8], -19 ; ffffffedH
  00338	eb 2c		 jmp	 SHORT $LN1@LoadInt_e@4
$LN89@LoadInt_e@4:
  0033a	88 5d db	 mov	 BYTE PTR __k$[ebp+7], bl
  0033d	eb 27		 jmp	 SHORT $LN1@LoadInt_e@4
$LN90@LoadInt_e@4:
  0033f	88 4d da	 mov	 BYTE PTR __k$[ebp+6], cl
  00342	eb 22		 jmp	 SHORT $LN1@LoadInt_e@4
$LN91@LoadInt_e@4:
  00344	c6 45 d9 ec	 mov	 BYTE PTR __k$[ebp+5], -20 ; ffffffecH
  00348	eb 1c		 jmp	 SHORT $LN1@LoadInt_e@4
$LN92@LoadInt_e@4:
  0034a	c6 45 d8 ed	 mov	 BYTE PTR __k$[ebp+4], -19 ; ffffffedH
  0034e	eb 16		 jmp	 SHORT $LN1@LoadInt_e@4
$LN93@LoadInt_e@4:
  00350	c6 45 d7 ea	 mov	 BYTE PTR __k$[ebp+3], -22 ; ffffffeaH
  00354	eb 10		 jmp	 SHORT $LN1@LoadInt_e@4
$LN94@LoadInt_e@4:
  00356	c6 45 d6 eb	 mov	 BYTE PTR __k$[ebp+2], -21 ; ffffffebH
  0035a	eb 0a		 jmp	 SHORT $LN1@LoadInt_e@4
$LN95@LoadInt_e@4:
  0035c	c6 45 d5 ec	 mov	 BYTE PTR __k$[ebp+1], -20 ; ffffffecH
  00360	eb 04		 jmp	 SHORT $LN1@LoadInt_e@4
$LN96@LoadInt_e@4:
  00362	c6 45 d4 ed	 mov	 BYTE PTR __k$[ebp], -19	; ffffffedH
$LN1@LoadInt_e@4:
  00366	6a 08		 push	 8
  00368	8d 45 d4	 lea	 eax, DWORD PTR __k$[ebp]
  0036b	c6 45 f5 00	 mov	 BYTE PTR __k$[ebp+33], 0
  0036f	5a		 pop	 edx
$LL104@LoadInt_e@4:
  00370	81 30 ed ec eb
	ea		 xor	 DWORD PTR [eax], -353637139 ; eaebecedH
  00376	83 c0 04	 add	 eax, 4
  00379	4a		 dec	 edx
  0037a	75 f4		 jne	 SHORT $LL104@LoadInt_e@4

; 120  : 		return LoadInt(_k, i);

  0037c	ff 75 0c	 push	 DWORD PTR _i$[ebp]
  0037f	80 75 f4 ed	 xor	 BYTE PTR __k$[ebp+32], -19 ; ffffffedH
  00383	8d 45 d4	 lea	 eax, DWORD PTR __k$[ebp]
  00386	50		 push	 eax
  00387	8b ce		 mov	 ecx, esi
  00389	ff 15 00 00 00
	00		 call	 DWORD PTR __imp_?LoadInt@ioINILoader@@QAEHPBDH@Z

; 121  : 	}

  0038f	8b 4d fc	 mov	 ecx, DWORD PTR __$ArrayPad$[ebp]
  00392	5e		 pop	 esi
  00393	33 cd		 xor	 ecx, ebp
  00395	5b		 pop	 ebx
  00396	e8 00 00 00 00	 call	 @__security_check_cookie@4
  0039b	c9		 leave
  0039c	c2 08 00	 ret	 8
??$LoadInt_e@$0CC@@ioINILoader@@QAEHAAY0CC@$$CBDH@Z ENDP ; ioINILoader::LoadInt_e<34>
_TEXT	ENDS
PUBLIC	__$ArrayPad$
PUBLIC	??$LoadBool_e@$0CC@@ioINILoader@@QAE_NAAY0CC@$$CBD_N@Z ; ioINILoader::LoadBool_e<34>
; Function compile flags: /Ogsp
;	COMDAT ??$LoadBool_e@$0CC@@ioINILoader@@QAE_NAAY0CC@$$CBD_N@Z
_TEXT	SEGMENT
__k$ = -44						; size = 34
__$ArrayPad$ = -4					; size = 4
_k$ = 8							; size = 4
_b$ = 12						; size = 1
??$LoadBool_e@$0CC@@ioINILoader@@QAE_NAAY0CC@$$CBD_N@Z PROC ; ioINILoader::LoadBool_e<34>, COMDAT
; _this$ = ecx

; 101  : 	{

  00000	55		 push	 ebp
  00001	8b ec		 mov	 ebp, esp
  00003	83 ec 2c	 sub	 esp, 44			; 0000002cH
  00006	a1 00 00 00 00	 mov	 eax, DWORD PTR ___security_cookie
  0000b	33 c5		 xor	 eax, ebp
  0000d	89 45 fc	 mov	 DWORD PTR __$ArrayPad$[ebp], eax
  00010	8b 45 08	 mov	 eax, DWORD PTR _k$[ebp]

; 102  : 		_ENCSTR(k, _k);

  00013	8a 10		 mov	 dl, BYTE PTR [eax]
  00015	53		 push	 ebx
  00016	56		 push	 esi
  00017	8b f1		 mov	 esi, ecx
  00019	84 d2		 test	 dl, dl
  0001b	0f 84 41 03 00
	00		 je	 $LN96@LoadBool_e@4
  00021	80 f2 ed	 xor	 dl, -19			; ffffffedH
  00024	88 55 d4	 mov	 BYTE PTR __k$[ebp], dl
  00027	8a 50 01	 mov	 dl, BYTE PTR [eax+1]
  0002a	84 d2		 test	 dl, dl
  0002c	0f 84 2a 03 00
	00		 je	 $LN95@LoadBool_e@4
  00032	80 f2 ec	 xor	 dl, -20			; ffffffecH
  00035	88 55 d5	 mov	 BYTE PTR __k$[ebp+1], dl
  00038	8a 50 02	 mov	 dl, BYTE PTR [eax+2]
  0003b	84 d2		 test	 dl, dl
  0003d	0f 84 13 03 00
	00		 je	 $LN94@LoadBool_e@4
  00043	b1 eb		 mov	 cl, -21			; ffffffebH
  00045	32 d1		 xor	 dl, cl
  00047	88 55 d6	 mov	 BYTE PTR __k$[ebp+2], dl
  0004a	8a 50 03	 mov	 dl, BYTE PTR [eax+3]
  0004d	84 d2		 test	 dl, dl
  0004f	0f 84 fb 02 00
	00		 je	 $LN93@LoadBool_e@4
  00055	b3 ea		 mov	 bl, -22			; ffffffeaH
  00057	32 d3		 xor	 dl, bl
  00059	88 55 d7	 mov	 BYTE PTR __k$[ebp+3], dl
  0005c	8a 50 04	 mov	 dl, BYTE PTR [eax+4]
  0005f	84 d2		 test	 dl, dl
  00061	0f 84 e3 02 00
	00		 je	 $LN92@LoadBool_e@4
  00067	80 f2 ed	 xor	 dl, -19			; ffffffedH
  0006a	88 55 d8	 mov	 BYTE PTR __k$[ebp+4], dl
  0006d	8a 50 05	 mov	 dl, BYTE PTR [eax+5]
  00070	84 d2		 test	 dl, dl
  00072	0f 84 cc 02 00
	00		 je	 $LN91@LoadBool_e@4
  00078	80 f2 ec	 xor	 dl, -20			; ffffffecH
  0007b	88 55 d9	 mov	 BYTE PTR __k$[ebp+5], dl
  0007e	8a 50 06	 mov	 dl, BYTE PTR [eax+6]
  00081	84 d2		 test	 dl, dl
  00083	0f 84 b6 02 00
	00		 je	 $LN90@LoadBool_e@4
  00089	32 d1		 xor	 dl, cl
  0008b	88 55 da	 mov	 BYTE PTR __k$[ebp+6], dl
  0008e	8a 50 07	 mov	 dl, BYTE PTR [eax+7]
  00091	84 d2		 test	 dl, dl
  00093	0f 84 a1 02 00
	00		 je	 $LN89@LoadBool_e@4
  00099	32 d3		 xor	 dl, bl
  0009b	88 55 db	 mov	 BYTE PTR __k$[ebp+7], dl
  0009e	8a 50 08	 mov	 dl, BYTE PTR [eax+8]
  000a1	84 d2		 test	 dl, dl
  000a3	0f 84 8b 02 00
	00		 je	 $LN88@LoadBool_e@4
  000a9	80 f2 ed	 xor	 dl, -19			; ffffffedH
  000ac	88 55 dc	 mov	 BYTE PTR __k$[ebp+8], dl
  000af	8a 50 09	 mov	 dl, BYTE PTR [eax+9]
  000b2	84 d2		 test	 dl, dl
  000b4	0f 84 74 02 00
	00		 je	 $LN87@LoadBool_e@4
  000ba	80 f2 ec	 xor	 dl, -20			; ffffffecH
  000bd	88 55 dd	 mov	 BYTE PTR __k$[ebp+9], dl
  000c0	8a 50 0a	 mov	 dl, BYTE PTR [eax+10]
  000c3	84 d2		 test	 dl, dl
  000c5	0f 84 5e 02 00
	00		 je	 $LN86@LoadBool_e@4
  000cb	32 d1		 xor	 dl, cl
  000cd	88 55 de	 mov	 BYTE PTR __k$[ebp+10], dl
  000d0	8a 50 0b	 mov	 dl, BYTE PTR [eax+11]
  000d3	84 d2		 test	 dl, dl
  000d5	0f 84 49 02 00
	00		 je	 $LN85@LoadBool_e@4
  000db	32 d3		 xor	 dl, bl
  000dd	88 55 df	 mov	 BYTE PTR __k$[ebp+11], dl
  000e0	8a 50 0c	 mov	 dl, BYTE PTR [eax+12]
  000e3	84 d2		 test	 dl, dl
  000e5	0f 84 33 02 00
	00		 je	 $LN84@LoadBool_e@4
  000eb	80 f2 ed	 xor	 dl, -19			; ffffffedH
  000ee	88 55 e0	 mov	 BYTE PTR __k$[ebp+12], dl
  000f1	8a 50 0d	 mov	 dl, BYTE PTR [eax+13]
  000f4	84 d2		 test	 dl, dl
  000f6	0f 84 1c 02 00
	00		 je	 $LN83@LoadBool_e@4
  000fc	80 f2 ec	 xor	 dl, -20			; ffffffecH
  000ff	88 55 e1	 mov	 BYTE PTR __k$[ebp+13], dl
  00102	8a 50 0e	 mov	 dl, BYTE PTR [eax+14]
  00105	84 d2		 test	 dl, dl
  00107	0f 84 06 02 00
	00		 je	 $LN82@LoadBool_e@4
  0010d	32 d1		 xor	 dl, cl
  0010f	88 55 e2	 mov	 BYTE PTR __k$[ebp+14], dl
  00112	8a 50 0f	 mov	 dl, BYTE PTR [eax+15]
  00115	84 d2		 test	 dl, dl
  00117	0f 84 f1 01 00
	00		 je	 $LN81@LoadBool_e@4
  0011d	32 d3		 xor	 dl, bl
  0011f	88 55 e3	 mov	 BYTE PTR __k$[ebp+15], dl
  00122	8a 50 10	 mov	 dl, BYTE PTR [eax+16]
  00125	84 d2		 test	 dl, dl
  00127	0f 84 db 01 00
	00		 je	 $LN80@LoadBool_e@4
  0012d	80 f2 ed	 xor	 dl, -19			; ffffffedH
  00130	88 55 e4	 mov	 BYTE PTR __k$[ebp+16], dl
  00133	8a 50 11	 mov	 dl, BYTE PTR [eax+17]
  00136	84 d2		 test	 dl, dl
  00138	0f 84 c4 01 00
	00		 je	 $LN79@LoadBool_e@4
  0013e	80 f2 ec	 xor	 dl, -20			; ffffffecH
  00141	88 55 e5	 mov	 BYTE PTR __k$[ebp+17], dl
  00144	8a 50 12	 mov	 dl, BYTE PTR [eax+18]
  00147	84 d2		 test	 dl, dl
  00149	0f 84 ae 01 00
	00		 je	 $LN78@LoadBool_e@4
  0014f	32 d1		 xor	 dl, cl
  00151	88 55 e6	 mov	 BYTE PTR __k$[ebp+18], dl
  00154	8a 50 13	 mov	 dl, BYTE PTR [eax+19]
  00157	84 d2		 test	 dl, dl
  00159	0f 84 99 01 00
	00		 je	 $LN77@LoadBool_e@4
  0015f	32 d3		 xor	 dl, bl
  00161	88 55 e7	 mov	 BYTE PTR __k$[ebp+19], dl
  00164	8a 50 14	 mov	 dl, BYTE PTR [eax+20]
  00167	84 d2		 test	 dl, dl
  00169	0f 84 83 01 00
	00		 je	 $LN76@LoadBool_e@4
  0016f	80 f2 ed	 xor	 dl, -19			; ffffffedH
  00172	88 55 e8	 mov	 BYTE PTR __k$[ebp+20], dl
  00175	8a 50 15	 mov	 dl, BYTE PTR [eax+21]
  00178	84 d2		 test	 dl, dl
  0017a	0f 84 6c 01 00
	00		 je	 $LN75@LoadBool_e@4
  00180	80 f2 ec	 xor	 dl, -20			; ffffffecH
  00183	88 55 e9	 mov	 BYTE PTR __k$[ebp+21], dl
  00186	8a 50 16	 mov	 dl, BYTE PTR [eax+22]
  00189	84 d2		 test	 dl, dl
  0018b	0f 84 56 01 00
	00		 je	 $LN74@LoadBool_e@4
  00191	32 d1		 xor	 dl, cl
  00193	88 55 ea	 mov	 BYTE PTR __k$[ebp+22], dl
  00196	8a 50 17	 mov	 dl, BYTE PTR [eax+23]
  00199	84 d2		 test	 dl, dl
  0019b	0f 84 41 01 00
	00		 je	 $LN73@LoadBool_e@4
  001a1	32 d3		 xor	 dl, bl
  001a3	88 55 eb	 mov	 BYTE PTR __k$[ebp+23], dl
  001a6	8a 50 18	 mov	 dl, BYTE PTR [eax+24]
  001a9	84 d2		 test	 dl, dl
  001ab	0f 84 28 01 00
	00		 je	 $LN72@LoadBool_e@4
  001b1	80 f2 ed	 xor	 dl, -19			; ffffffedH
  001b4	88 55 ec	 mov	 BYTE PTR __k$[ebp+24], dl
  001b7	8a 50 19	 mov	 dl, BYTE PTR [eax+25]
  001ba	84 d2		 test	 dl, dl
  001bc	0f 84 0e 01 00
	00		 je	 $LN71@LoadBool_e@4
  001c2	80 f2 ec	 xor	 dl, -20			; ffffffecH
  001c5	88 55 ed	 mov	 BYTE PTR __k$[ebp+25], dl
  001c8	8a 50 1a	 mov	 dl, BYTE PTR [eax+26]
  001cb	84 d2		 test	 dl, dl
  001cd	0f 84 f5 00 00
	00		 je	 $LN70@LoadBool_e@4
  001d3	32 d1		 xor	 dl, cl
  001d5	88 55 ee	 mov	 BYTE PTR __k$[ebp+26], dl
  001d8	8a 50 1b	 mov	 dl, BYTE PTR [eax+27]
  001db	84 d2		 test	 dl, dl
  001dd	0f 84 dd 00 00
	00		 je	 $LN69@LoadBool_e@4
  001e3	32 d3		 xor	 dl, bl
  001e5	88 55 ef	 mov	 BYTE PTR __k$[ebp+27], dl
  001e8	8a 50 1c	 mov	 dl, BYTE PTR [eax+28]
  001eb	84 d2		 test	 dl, dl
  001ed	0f 84 c4 00 00
	00		 je	 $LN68@LoadBool_e@4
  001f3	80 f2 ed	 xor	 dl, -19			; ffffffedH
  001f6	88 55 f0	 mov	 BYTE PTR __k$[ebp+28], dl
  001f9	8a 50 1d	 mov	 dl, BYTE PTR [eax+29]
  001fc	84 d2		 test	 dl, dl
  001fe	0f 84 aa 00 00
	00		 je	 $LN67@LoadBool_e@4
  00204	80 f2 ec	 xor	 dl, -20			; ffffffecH
  00207	88 55 f1	 mov	 BYTE PTR __k$[ebp+29], dl
  0020a	8a 50 1e	 mov	 dl, BYTE PTR [eax+30]
  0020d	84 d2		 test	 dl, dl
  0020f	0f 84 91 00 00
	00		 je	 $LN66@LoadBool_e@4
  00215	32 d1		 xor	 dl, cl
  00217	88 55 f2	 mov	 BYTE PTR __k$[ebp+30], dl
  0021a	8a 50 1f	 mov	 dl, BYTE PTR [eax+31]
  0021d	84 d2		 test	 dl, dl
  0021f	74 7d		 je	 SHORT $LN65@LoadBool_e@4
  00221	32 d3		 xor	 dl, bl
  00223	88 55 f3	 mov	 BYTE PTR __k$[ebp+31], dl
  00226	8a 50 20	 mov	 dl, BYTE PTR [eax+32]
  00229	84 d2		 test	 dl, dl
  0022b	74 68		 je	 SHORT $LN64@LoadBool_e@4
  0022d	80 f2 ed	 xor	 dl, -19			; ffffffedH
  00230	80 78 21 00	 cmp	 BYTE PTR [eax+33], 0
  00234	88 55 f4	 mov	 BYTE PTR __k$[ebp+32], dl
  00237	0f 84 29 01 00
	00		 je	 $LN1@LoadBool_e@4
  0023d	8a 50 22	 mov	 dl, BYTE PTR [eax+34]
  00240	84 d2		 test	 dl, dl
  00242	74 49		 je	 SHORT $LN62@LoadBool_e@4
  00244	32 d1		 xor	 dl, cl
  00246	88 55 f6	 mov	 BYTE PTR __k$[ebp+34], dl
  00249	8a 50 23	 mov	 dl, BYTE PTR [eax+35]
  0024c	84 d2		 test	 dl, dl
  0024e	74 35		 je	 SHORT $LN61@LoadBool_e@4
  00250	32 d3		 xor	 dl, bl
  00252	88 55 f7	 mov	 BYTE PTR __k$[ebp+35], dl
  00255	8a 50 24	 mov	 dl, BYTE PTR [eax+36]
  00258	84 d2		 test	 dl, dl
  0025a	74 20		 je	 SHORT $LN60@LoadBool_e@4
  0025c	8a 40 25	 mov	 al, BYTE PTR [eax+37]
  0025f	80 f2 ed	 xor	 dl, -19			; ffffffedH
  00262	88 55 f8	 mov	 BYTE PTR __k$[ebp+36], dl
  00265	84 c0		 test	 al, al
  00267	74 0a		 je	 SHORT $LN59@LoadBool_e@4
  00269	34 ec		 xor	 al, -20			; ffffffecH
  0026b	88 45 f9	 mov	 BYTE PTR __k$[ebp+37], al
  0026e	e9 f3 00 00 00	 jmp	 $LN1@LoadBool_e@4
$LN59@LoadBool_e@4:
  00273	c6 45 f9 ec	 mov	 BYTE PTR __k$[ebp+37], -20 ; ffffffecH
  00277	e9 ea 00 00 00	 jmp	 $LN1@LoadBool_e@4
$LN60@LoadBool_e@4:
  0027c	c6 45 f8 ed	 mov	 BYTE PTR __k$[ebp+36], -19 ; ffffffedH
  00280	e9 e1 00 00 00	 jmp	 $LN1@LoadBool_e@4
$LN61@LoadBool_e@4:
  00285	88 5d f7	 mov	 BYTE PTR __k$[ebp+35], bl
  00288	e9 d9 00 00 00	 jmp	 $LN1@LoadBool_e@4
$LN62@LoadBool_e@4:
  0028d	88 4d f6	 mov	 BYTE PTR __k$[ebp+34], cl
  00290	e9 d1 00 00 00	 jmp	 $LN1@LoadBool_e@4
$LN64@LoadBool_e@4:
  00295	c6 45 f4 ed	 mov	 BYTE PTR __k$[ebp+32], -19 ; ffffffedH
  00299	e9 c8 00 00 00	 jmp	 $LN1@LoadBool_e@4
$LN65@LoadBool_e@4:
  0029e	88 5d f3	 mov	 BYTE PTR __k$[ebp+31], bl
  002a1	e9 c0 00 00 00	 jmp	 $LN1@LoadBool_e@4
$LN66@LoadBool_e@4:
  002a6	88 4d f2	 mov	 BYTE PTR __k$[ebp+30], cl
  002a9	e9 b8 00 00 00	 jmp	 $LN1@LoadBool_e@4
$LN67@LoadBool_e@4:
  002ae	c6 45 f1 ec	 mov	 BYTE PTR __k$[ebp+29], -20 ; ffffffecH
  002b2	e9 af 00 00 00	 jmp	 $LN1@LoadBool_e@4
$LN68@LoadBool_e@4:
  002b7	c6 45 f0 ed	 mov	 BYTE PTR __k$[ebp+28], -19 ; ffffffedH
  002bb	e9 a6 00 00 00	 jmp	 $LN1@LoadBool_e@4
$LN69@LoadBool_e@4:
  002c0	88 5d ef	 mov	 BYTE PTR __k$[ebp+27], bl
  002c3	e9 9e 00 00 00	 jmp	 $LN1@LoadBool_e@4
$LN70@LoadBool_e@4:
  002c8	88 4d ee	 mov	 BYTE PTR __k$[ebp+26], cl
  002cb	e9 96 00 00 00	 jmp	 $LN1@LoadBool_e@4
$LN71@LoadBool_e@4:
  002d0	c6 45 ed ec	 mov	 BYTE PTR __k$[ebp+25], -20 ; ffffffecH
  002d4	e9 8d 00 00 00	 jmp	 $LN1@LoadBool_e@4
$LN72@LoadBool_e@4:
  002d9	c6 45 ec ed	 mov	 BYTE PTR __k$[ebp+24], -19 ; ffffffedH
  002dd	e9 84 00 00 00	 jmp	 $LN1@LoadBool_e@4
$LN73@LoadBool_e@4:
  002e2	88 5d eb	 mov	 BYTE PTR __k$[ebp+23], bl
  002e5	eb 7f		 jmp	 SHORT $LN1@LoadBool_e@4
$LN74@LoadBool_e@4:
  002e7	88 4d ea	 mov	 BYTE PTR __k$[ebp+22], cl
  002ea	eb 7a		 jmp	 SHORT $LN1@LoadBool_e@4
$LN75@LoadBool_e@4:
  002ec	c6 45 e9 ec	 mov	 BYTE PTR __k$[ebp+21], -20 ; ffffffecH
  002f0	eb 74		 jmp	 SHORT $LN1@LoadBool_e@4
$LN76@LoadBool_e@4:
  002f2	c6 45 e8 ed	 mov	 BYTE PTR __k$[ebp+20], -19 ; ffffffedH
  002f6	eb 6e		 jmp	 SHORT $LN1@LoadBool_e@4
$LN77@LoadBool_e@4:
  002f8	88 5d e7	 mov	 BYTE PTR __k$[ebp+19], bl
  002fb	eb 69		 jmp	 SHORT $LN1@LoadBool_e@4
$LN78@LoadBool_e@4:
  002fd	88 4d e6	 mov	 BYTE PTR __k$[ebp+18], cl
  00300	eb 64		 jmp	 SHORT $LN1@LoadBool_e@4
$LN79@LoadBool_e@4:
  00302	c6 45 e5 ec	 mov	 BYTE PTR __k$[ebp+17], -20 ; ffffffecH
  00306	eb 5e		 jmp	 SHORT $LN1@LoadBool_e@4
$LN80@LoadBool_e@4:
  00308	c6 45 e4 ed	 mov	 BYTE PTR __k$[ebp+16], -19 ; ffffffedH
  0030c	eb 58		 jmp	 SHORT $LN1@LoadBool_e@4
$LN81@LoadBool_e@4:
  0030e	88 5d e3	 mov	 BYTE PTR __k$[ebp+15], bl
  00311	eb 53		 jmp	 SHORT $LN1@LoadBool_e@4
$LN82@LoadBool_e@4:
  00313	88 4d e2	 mov	 BYTE PTR __k$[ebp+14], cl
  00316	eb 4e		 jmp	 SHORT $LN1@LoadBool_e@4
$LN83@LoadBool_e@4:
  00318	c6 45 e1 ec	 mov	 BYTE PTR __k$[ebp+13], -20 ; ffffffecH
  0031c	eb 48		 jmp	 SHORT $LN1@LoadBool_e@4
$LN84@LoadBool_e@4:
  0031e	c6 45 e0 ed	 mov	 BYTE PTR __k$[ebp+12], -19 ; ffffffedH
  00322	eb 42		 jmp	 SHORT $LN1@LoadBool_e@4
$LN85@LoadBool_e@4:
  00324	88 5d df	 mov	 BYTE PTR __k$[ebp+11], bl
  00327	eb 3d		 jmp	 SHORT $LN1@LoadBool_e@4
$LN86@LoadBool_e@4:
  00329	88 4d de	 mov	 BYTE PTR __k$[ebp+10], cl
  0032c	eb 38		 jmp	 SHORT $LN1@LoadBool_e@4
$LN87@LoadBool_e@4:
  0032e	c6 45 dd ec	 mov	 BYTE PTR __k$[ebp+9], -20 ; ffffffecH
  00332	eb 32		 jmp	 SHORT $LN1@LoadBool_e@4
$LN88@LoadBool_e@4:
  00334	c6 45 dc ed	 mov	 BYTE PTR __k$[ebp+8], -19 ; ffffffedH
  00338	eb 2c		 jmp	 SHORT $LN1@LoadBool_e@4
$LN89@LoadBool_e@4:
  0033a	88 5d db	 mov	 BYTE PTR __k$[ebp+7], bl
  0033d	eb 27		 jmp	 SHORT $LN1@LoadBool_e@4
$LN90@LoadBool_e@4:
  0033f	88 4d da	 mov	 BYTE PTR __k$[ebp+6], cl
  00342	eb 22		 jmp	 SHORT $LN1@LoadBool_e@4
$LN91@LoadBool_e@4:
  00344	c6 45 d9 ec	 mov	 BYTE PTR __k$[ebp+5], -20 ; ffffffecH
  00348	eb 1c		 jmp	 SHORT $LN1@LoadBool_e@4
$LN92@LoadBool_e@4:
  0034a	c6 45 d8 ed	 mov	 BYTE PTR __k$[ebp+4], -19 ; ffffffedH
  0034e	eb 16		 jmp	 SHORT $LN1@LoadBool_e@4
$LN93@LoadBool_e@4:
  00350	c6 45 d7 ea	 mov	 BYTE PTR __k$[ebp+3], -22 ; ffffffeaH
  00354	eb 10		 jmp	 SHORT $LN1@LoadBool_e@4
$LN94@LoadBool_e@4:
  00356	c6 45 d6 eb	 mov	 BYTE PTR __k$[ebp+2], -21 ; ffffffebH
  0035a	eb 0a		 jmp	 SHORT $LN1@LoadBool_e@4
$LN95@LoadBool_e@4:
  0035c	c6 45 d5 ec	 mov	 BYTE PTR __k$[ebp+1], -20 ; ffffffecH
  00360	eb 04		 jmp	 SHORT $LN1@LoadBool_e@4
$LN96@LoadBool_e@4:
  00362	c6 45 d4 ed	 mov	 BYTE PTR __k$[ebp], -19	; ffffffedH
$LN1@LoadBool_e@4:
  00366	6a 08		 push	 8
  00368	8d 45 d4	 lea	 eax, DWORD PTR __k$[ebp]
  0036b	c6 45 f5 00	 mov	 BYTE PTR __k$[ebp+33], 0
  0036f	5a		 pop	 edx
$LL104@LoadBool_e@4:
  00370	81 30 ed ec eb
	ea		 xor	 DWORD PTR [eax], -353637139 ; eaebecedH
  00376	83 c0 04	 add	 eax, 4
  00379	4a		 dec	 edx
  0037a	75 f4		 jne	 SHORT $LL104@LoadBool_e@4

; 103  : 		return LoadBool(_k, b);

  0037c	ff 75 0c	 push	 DWORD PTR _b$[ebp]
  0037f	80 75 f4 ed	 xor	 BYTE PTR __k$[ebp+32], -19 ; ffffffedH
  00383	8d 45 d4	 lea	 eax, DWORD PTR __k$[ebp]
  00386	50		 push	 eax
  00387	8b ce		 mov	 ecx, esi
  00389	ff 15 00 00 00
	00		 call	 DWORD PTR __imp_?LoadBool@ioINILoader@@QAE_NPBD_N@Z

; 104  : 	}

  0038f	8b 4d fc	 mov	 ecx, DWORD PTR __$ArrayPad$[ebp]
  00392	5e		 pop	 esi
  00393	33 cd		 xor	 ecx, ebp
  00395	5b		 pop	 ebx
  00396	e8 00 00 00 00	 call	 @__security_check_cookie@4
  0039b	c9		 leave
  0039c	c2 08 00	 ret	 8
??$LoadBool_e@$0CC@@ioINILoader@@QAE_NAAY0CC@$$CBD_N@Z ENDP ; ioINILoader::LoadBool_e<34>
_TEXT	ENDS
PUBLIC	??0WeaponInfo@@QAE@XZ				; WeaponInfo::WeaponInfo
; Function compile flags: /Ogsp
; File d:\lost saga for developer\youtube\tutorial\source\src\lsclient\ioattackattribute.h
;	COMDAT ??0WeaponInfo@@QAE@XZ
_TEXT	SEGMENT
??0WeaponInfo@@QAE@XZ PROC				; WeaponInfo::WeaponInfo, COMDAT
; _this$ = ecx

; 64   : 	WeaponInfo()

  00000	56		 push	 esi
  00001	8b f1		 mov	 esi, ecx
  00003	8d 4e 08	 lea	 ecx, DWORD PTR [esi+8]
  00006	ff 15 00 00 00
	00		 call	 DWORD PTR __imp_??0ioHashString@@QAE@XZ

; 65   : 	{
; 66   : 		Init();

  0000c	33 c0		 xor	 eax, eax
  0000e	89 06		 mov	 DWORD PTR [esi], eax
  00010	89 46 04	 mov	 DWORD PTR [esi+4], eax
  00013	89 46 18	 mov	 DWORD PTR [esi+24], eax
  00016	89 46 1c	 mov	 DWORD PTR [esi+28], eax
  00019	88 46 20	 mov	 BYTE PTR [esi+32], al
  0001c	89 46 24	 mov	 DWORD PTR [esi+36], eax

; 67   : 	}

  0001f	8b c6		 mov	 eax, esi
  00021	5e		 pop	 esi
  00022	c3		 ret	 0
??0WeaponInfo@@QAE@XZ ENDP				; WeaponInfo::WeaponInfo
_TEXT	ENDS
PUBLIC	??0?$CEncrypt@M@@QAE@XZ				; CEncrypt<float>::CEncrypt<float>
EXTRN	??0ccddaabb@@QAE@XZ:PROC			; ccddaabb::ccddaabb
;	COMDAT xdata$x
; File d:\lost saga for developer\youtube\tutorial\source\src\lsclient\encryptvalue.h
xdata$x	SEGMENT
__unwindtable$??0?$CEncrypt@M@@QAE@XZ DD 0ffffffffH
	DD	FLAT:__unwindfunclet$??0?$CEncrypt@M@@QAE@XZ$0
__ehfuncinfo$??0?$CEncrypt@M@@QAE@XZ DD 019930522H
	DD	01H
	DD	FLAT:__unwindtable$??0?$CEncrypt@M@@QAE@XZ
	DD	2 DUP(00H)
	DD	2 DUP(00H)
	DD	00H
	DD	01H
; Function compile flags: /Ogsp
xdata$x	ENDS
;	COMDAT ??0?$CEncrypt@M@@QAE@XZ
_TEXT	SEGMENT
_this$ = -16						; size = 4
__$EHRec$ = -12						; size = 12
??0?$CEncrypt@M@@QAE@XZ PROC				; CEncrypt<float>::CEncrypt<float>, COMDAT
; _this$ = ecx

; 109  : 	CEncrypt()

  00000	6a 04		 push	 4
  00002	b8 00 00 00 00	 mov	 eax, __ehhandler$??0?$CEncrypt@M@@QAE@XZ
  00007	e8 00 00 00 00	 call	 __EH_prolog3
  0000c	8b f1		 mov	 esi, ecx
  0000e	89 75 f0	 mov	 DWORD PTR _this$[ebp], esi
  00011	8d 4e 0c	 lea	 ecx, DWORD PTR [esi+12]
  00014	c7 06 00 00 00
	00		 mov	 DWORD PTR [esi], OFFSET ??_7?$CEncrypt@M@@6B@
  0001a	e8 00 00 00 00	 call	 ??0ccddaabb@@QAE@XZ	; ccddaabb::ccddaabb
  0001f	83 65 fc 00	 and	 DWORD PTR __$EHRec$[ebp+8], 0

; 110  : 	{
; 111  : 		Init();

  00023	8b ce		 mov	 ecx, esi
  00025	e8 00 00 00 00	 call	 ?Init@?$CEncrypt@M@@AAEXXZ ; CEncrypt<float>::Init

; 112  : 	}

  0002a	8b c6		 mov	 eax, esi
  0002c	e8 00 00 00 00	 call	 __EH_epilog3
  00031	c3		 ret	 0
_TEXT	ENDS
;	COMDAT text$x
text$x	SEGMENT
__unwindfunclet$??0?$CEncrypt@M@@QAE@XZ$0:
  00000	8b 4d f0	 mov	 ecx, DWORD PTR _this$[ebp]
  00003	83 c1 0c	 add	 ecx, 12			; 0000000cH
  00006	e9 00 00 00 00	 jmp	 ??1ccddaabb@@UAE@XZ	; ccddaabb::~ccddaabb
__ehhandler$??0?$CEncrypt@M@@QAE@XZ:
  0000b	8b 54 24 08	 mov	 edx, DWORD PTR [esp+8]
  0000f	8d 42 0c	 lea	 eax, DWORD PTR [edx+12]
  00012	8b 4a ec	 mov	 ecx, DWORD PTR [edx-20]
  00015	33 c8		 xor	 ecx, eax
  00017	e8 00 00 00 00	 call	 @__security_check_cookie@4
  0001c	b8 00 00 00 00	 mov	 eax, OFFSET __ehfuncinfo$??0?$CEncrypt@M@@QAE@XZ
  00021	e9 00 00 00 00	 jmp	 ___CxxFrameHandler3
text$x	ENDS
??0?$CEncrypt@M@@QAE@XZ ENDP				; CEncrypt<float>::CEncrypt<float>
PUBLIC	??B?$CEncrypt@M@@QAEMXZ				; CEncrypt<float>::operator float
; Function compile flags: /Ogsp
;	COMDAT ??B?$CEncrypt@M@@QAEMXZ
_TEXT	SEGMENT
_value$ = -4						; size = 4
??B?$CEncrypt@M@@QAEMXZ PROC				; CEncrypt<float>::operator float, COMDAT
; _this$ = ecx

; 134  : 	{

  00000	55		 push	 ebp
  00001	8b ec		 mov	 ebp, esp
  00003	51		 push	 ecx

; 135  : 		type value;
; 136  : 		DecryptValueToPool(&value);

  00004	8d 45 fc	 lea	 eax, DWORD PTR _value$[ebp]
  00007	50		 push	 eax
  00008	e8 00 00 00 00	 call	 ?DecryptValueToPool@?$CEncrypt@M@@QAEXPAM@Z ; CEncrypt<float>::DecryptValueToPool

; 137  : 
; 138  : #ifdef _NOTUSE
; 139  : 		Debug();
; 140  : #endif
; 141  : 		return value;

  0000d	d9 45 fc	 fld	 DWORD PTR _value$[ebp]

; 142  : 	}

  00010	c9		 leave
  00011	c3		 ret	 0
??B?$CEncrypt@M@@QAEMXZ ENDP				; CEncrypt<float>::operator float
_TEXT	ENDS
PUBLIC	??4?$CEncrypt@M@@QAEMM@Z			; CEncrypt<float>::operator=
; Function compile flags: /Ogsp
;	COMDAT ??4?$CEncrypt@M@@QAEMM@Z
_TEXT	SEGMENT
_value$ = 8						; size = 4
_inValue$ = 8						; size = 4
??4?$CEncrypt@M@@QAEMM@Z PROC				; CEncrypt<float>::operator=, COMDAT
; _this$ = ecx

; 1654 : 	{	

  00000	55		 push	 ebp
  00001	8b ec		 mov	 ebp, esp

; 1655 : 		type value = inValue;

  00003	d9 45 08	 fld	 DWORD PTR _inValue$[ebp]

; 1656 : 		EncryptValueToPool((char*)&value);

  00006	8d 45 08	 lea	 eax, DWORD PTR _value$[ebp]
  00009	50		 push	 eax
  0000a	d9 5d 08	 fstp	 DWORD PTR _value$[ebp]
  0000d	e8 00 00 00 00	 call	 ?EncryptValueToPool@?$CEncrypt@M@@AAEXPBD@Z ; CEncrypt<float>::EncryptValueToPool

; 1657 : #ifdef _NOTUSE
; 1658 : 		m_value = inValue;
; 1659 : 		Debug();
; 1660 : #endif
; 1661 : 		return value;

  00012	d9 45 08	 fld	 DWORD PTR _value$[ebp]

; 1662 : 	}

  00015	5d		 pop	 ebp
  00016	c2 04 00	 ret	 4
??4?$CEncrypt@M@@QAEMM@Z ENDP				; CEncrypt<float>::operator=
_TEXT	ENDS
PUBLIC	??O?$CEncrypt@M@@QAE_NABM@Z			; CEncrypt<float>::operator>
; Function compile flags: /Ogsp
;	COMDAT ??O?$CEncrypt@M@@QAE_NABM@Z
_TEXT	SEGMENT
_value$ = -4						; size = 4
_inValue$ = 8						; size = 4
??O?$CEncrypt@M@@QAE_NABM@Z PROC			; CEncrypt<float>::operator>, COMDAT
; _this$ = ecx

; 1811 : 	{

  00000	55		 push	 ebp
  00001	8b ec		 mov	 ebp, esp
  00003	51		 push	 ecx

; 1812 : 		type value;
; 1813 : 		DecryptValueToPool(&value);

  00004	8d 45 fc	 lea	 eax, DWORD PTR _value$[ebp]
  00007	50		 push	 eax
  00008	e8 00 00 00 00	 call	 ?DecryptValueToPool@?$CEncrypt@M@@QAEXPAM@Z ; CEncrypt<float>::DecryptValueToPool

; 1814 : #ifdef _NOTUSE
; 1815 : 		Debug();
; 1816 : #endif
; 1817 : 		return (value > inValue);

  0000d	8b 45 08	 mov	 eax, DWORD PTR _inValue$[ebp]
  00010	f3 0f 10 08	 movss	 xmm1, DWORD PTR [eax]
  00014	f3 0f 10 45 fc	 movss	 xmm0, DWORD PTR _value$[ebp]
  00019	0f 5a c0	 cvtps2pd xmm0, xmm0
  0001c	0f 5a c9	 cvtps2pd xmm1, xmm1
  0001f	33 c0		 xor	 eax, eax
  00021	66 0f 2f c1	 comisd	 xmm0, xmm1
  00025	76 01		 jbe	 SHORT $LN4@operator
  00027	40		 inc	 eax
$LN4@operator:

; 1818 : 	}		

  00028	c9		 leave
  00029	c2 04 00	 ret	 4
??O?$CEncrypt@M@@QAE_NABM@Z ENDP			; CEncrypt<float>::operator>
_TEXT	ENDS
PUBLIC	??B?$CEncrypt@K@@QAEKXZ				; CEncrypt<unsigned long>::operator unsigned long
; Function compile flags: /Ogsp
;	COMDAT ??B?$CEncrypt@K@@QAEKXZ
_TEXT	SEGMENT
_value$ = -4						; size = 4
??B?$CEncrypt@K@@QAEKXZ PROC				; CEncrypt<unsigned long>::operator unsigned long, COMDAT
; _this$ = ecx

; 134  : 	{

  00000	55		 push	 ebp
  00001	8b ec		 mov	 ebp, esp
  00003	51		 push	 ecx

; 135  : 		type value;
; 136  : 		DecryptValueToPool(&value);

  00004	8d 45 fc	 lea	 eax, DWORD PTR _value$[ebp]
  00007	50		 push	 eax
  00008	e8 00 00 00 00	 call	 ?DecryptValueToPool@?$CEncrypt@K@@QAEXPAK@Z ; CEncrypt<unsigned long>::DecryptValueToPool

; 137  : 
; 138  : #ifdef _NOTUSE
; 139  : 		Debug();
; 140  : #endif
; 141  : 		return value;

  0000d	8b 45 fc	 mov	 eax, DWORD PTR _value$[ebp]

; 142  : 	}

  00010	c9		 leave
  00011	c3		 ret	 0
??B?$CEncrypt@K@@QAEKXZ ENDP				; CEncrypt<unsigned long>::operator unsigned long
_TEXT	ENDS
PUBLIC	??0ioUroborusWeapon6@@QAE@PAVioBaseChar@@PBUWeaponAttribute@@@Z ; ioUroborusWeapon6::ioUroborusWeapon6
EXTRN	__imp_?VEC3_ZERO@ioMath@@2UD3DXVECTOR3@@A:BYTE
EXTRN	__imp_??0ioOrientBox@@QAE@XZ:PROC
EXTRN	??0ioWeapon@@QAE@PAVioBaseChar@@PBUWeaponAttribute@@@Z:PROC ; ioWeapon::ioWeapon
;	COMDAT xdata$x
xdata$x	SEGMENT
__ehfuncinfo$??0ioUroborusWeapon6@@QAE@PAVioBaseChar@@PBUWeaponAttribute@@@Z DD 019930522H
	DD	0bH
	DD	FLAT:__unwindtable$??0ioUroborusWeapon6@@QAE@PAVioBaseChar@@PBUWeaponAttribute@@@Z
	DD	2 DUP(00H)
	DD	2 DUP(00H)
	DD	00H
	DD	01H
__unwindtable$??0ioUroborusWeapon6@@QAE@PAVioBaseChar@@PBUWeaponAttribute@@@Z DD 0ffffffffH
	DD	FLAT:__unwindfunclet$??0ioUroborusWeapon6@@QAE@PAVioBaseChar@@PBUWeaponAttribute@@@Z$0
	DD	00H
	DD	FLAT:__unwindfunclet$??0ioUroborusWeapon6@@QAE@PAVioBaseChar@@PBUWeaponAttribute@@@Z$1
	DD	01H
	DD	FLAT:__unwindfunclet$??0ioUroborusWeapon6@@QAE@PAVioBaseChar@@PBUWeaponAttribute@@@Z$2
	DD	02H
	DD	FLAT:__unwindfunclet$??0ioUroborusWeapon6@@QAE@PAVioBaseChar@@PBUWeaponAttribute@@@Z$3
	DD	03H
	DD	FLAT:__unwindfunclet$??0ioUroborusWeapon6@@QAE@PAVioBaseChar@@PBUWeaponAttribute@@@Z$4
	DD	04H
	DD	FLAT:__unwindfunclet$??0ioUroborusWeapon6@@QAE@PAVioBaseChar@@PBUWeaponAttribute@@@Z$5
	DD	05H
	DD	FLAT:__unwindfunclet$??0ioUroborusWeapon6@@QAE@PAVioBaseChar@@PBUWeaponAttribute@@@Z$6
	DD	06H
	DD	FLAT:__unwindfunclet$??0ioUroborusWeapon6@@QAE@PAVioBaseChar@@PBUWeaponAttribute@@@Z$7
	DD	07H
	DD	FLAT:__unwindfunclet$??0ioUroborusWeapon6@@QAE@PAVioBaseChar@@PBUWeaponAttribute@@@Z$8
	DD	08H
	DD	FLAT:__unwindfunclet$??0ioUroborusWeapon6@@QAE@PAVioBaseChar@@PBUWeaponAttribute@@@Z$9
	DD	09H
	DD	FLAT:__unwindfunclet$??0ioUroborusWeapon6@@QAE@PAVioBaseChar@@PBUWeaponAttribute@@@Z$10
; Function compile flags: /Ogsp
; File d:\lost saga for developer\youtube\tutorial\source\src\lsclient\iouroborusweapon6.cpp
xdata$x	ENDS
;	COMDAT ??0ioUroborusWeapon6@@QAE@PAVioBaseChar@@PBUWeaponAttribute@@@Z
_TEXT	SEGMENT
_this$ = -16						; size = 4
__$EHRec$ = -12						; size = 12
_pOwner$ = 8						; size = 4
_value$534641 = 12					; size = 4
_value$534637 = 12					; size = 4
_pAttr$ = 12						; size = 4
??0ioUroborusWeapon6@@QAE@PAVioBaseChar@@PBUWeaponAttribute@@@Z PROC ; ioUroborusWeapon6::ioUroborusWeapon6, COMDAT
; _this$ = ecx

; 17   : {

  00000	6a 04		 push	 4
  00002	b8 00 00 00 00	 mov	 eax, __ehhandler$??0ioUroborusWeapon6@@QAE@PAVioBaseChar@@PBUWeaponAttribute@@@Z
  00007	e8 00 00 00 00	 call	 __EH_prolog3
  0000c	8b d9		 mov	 ebx, ecx
  0000e	89 5d f0	 mov	 DWORD PTR _this$[ebp], ebx
  00011	ff 75 0c	 push	 DWORD PTR _pAttr$[ebp]
  00014	ff 75 08	 push	 DWORD PTR _pOwner$[ebp]
  00017	e8 00 00 00 00	 call	 ??0ioWeapon@@QAE@PAVioBaseChar@@PBUWeaponAttribute@@@Z ; ioWeapon::ioWeapon
  0001c	83 65 fc 00	 and	 DWORD PTR __$EHRec$[ebp+8], 0
  00020	8d 8b 9c 08 00
	00		 lea	 ecx, DWORD PTR [ebx+2204]
  00026	c7 03 00 00 00
	00		 mov	 DWORD PTR [ebx], OFFSET ??_7ioUroborusWeapon6@@6B@
  0002c	ff 15 00 00 00
	00		 call	 DWORD PTR __imp_??0ioOrientBox@@QAE@XZ
  00032	8b 35 00 00 00
	00		 mov	 esi, DWORD PTR __imp_??0ioHashString@@QAE@XZ
  00038	8d 8b f8 08 00
	00		 lea	 ecx, DWORD PTR [ebx+2296]
  0003e	c6 45 fc 01	 mov	 BYTE PTR __$EHRec$[ebp+8], 1
  00042	ff d6		 call	 esi
  00044	8d 8b 08 09 00
	00		 lea	 ecx, DWORD PTR [ebx+2312]
  0004a	c6 45 fc 02	 mov	 BYTE PTR __$EHRec$[ebp+8], 2
  0004e	ff d6		 call	 esi
  00050	8d 8b 30 09 00
	00		 lea	 ecx, DWORD PTR [ebx+2352]
  00056	c6 45 fc 03	 mov	 BYTE PTR __$EHRec$[ebp+8], 3
  0005a	e8 00 00 00 00	 call	 ??0?$CEncrypt@M@@QAE@XZ	; CEncrypt<float>::CEncrypt<float>
  0005f	8d 8b 60 09 00
	00		 lea	 ecx, DWORD PTR [ebx+2400]
  00065	c6 45 fc 04	 mov	 BYTE PTR __$EHRec$[ebp+8], 4
  00069	e8 00 00 00 00	 call	 ??0?$CEncrypt@M@@QAE@XZ	; CEncrypt<float>::CEncrypt<float>
  0006e	8d 8b 90 09 00
	00		 lea	 ecx, DWORD PTR [ebx+2448]
  00074	c6 45 fc 05	 mov	 BYTE PTR __$EHRec$[ebp+8], 5
  00078	e8 00 00 00 00	 call	 ??0?$CEncrypt@M@@QAE@XZ	; CEncrypt<float>::CEncrypt<float>
  0007d	8d 8b c0 09 00
	00		 lea	 ecx, DWORD PTR [ebx+2496]
  00083	c6 45 fc 06	 mov	 BYTE PTR __$EHRec$[ebp+8], 6
  00087	ff d6		 call	 esi
  00089	8d 8b dc 09 00
	00		 lea	 ecx, DWORD PTR [ebx+2524]
  0008f	c6 45 fc 07	 mov	 BYTE PTR __$EHRec$[ebp+8], 7
  00093	ff d6		 call	 esi
  00095	8d 8b 14 0a 00
	00		 lea	 ecx, DWORD PTR [ebx+2580]
  0009b	c6 45 fc 08	 mov	 BYTE PTR __$EHRec$[ebp+8], 8
  0009f	ff d6		 call	 esi
  000a1	8d 8b 24 0a 00
	00		 lea	 ecx, DWORD PTR [ebx+2596]
  000a7	c6 45 fc 09	 mov	 BYTE PTR __$EHRec$[ebp+8], 9
  000ab	e8 00 00 00 00	 call	 ??0WeaponInfo@@QAE@XZ	; WeaponInfo::WeaponInfo

; 18   : 	m_pFireMesh = NULL;
; 19   : 	m_UroborusState = US_MOVE;
; 20   : 
; 21   : 	m_bResistance = false;
; 22   : 	m_fCurMoveSpeed = 0.0f;

  000b0	0f 57 c0	 xorps	 xmm0, xmm0
  000b3	83 a3 98 08 00
	00 00		 and	 DWORD PTR [ebx+2200], 0
  000ba	83 a3 94 08 00
	00 00		 and	 DWORD PTR [ebx+2196], 0

; 23   : 	m_fCurMoveRange = 0.0f;
; 24   : 
; 25   : 	m_fTargetCurRange = 0.0f;

  000c1	8d 45 0c	 lea	 eax, DWORD PTR _value$534637[ebp]
  000c4	50		 push	 eax
  000c5	8d 8b 90 09 00
	00		 lea	 ecx, DWORD PTR [ebx+2448]
  000cb	c6 45 fc 0a	 mov	 BYTE PTR __$EHRec$[ebp+8], 10 ; 0000000aH
  000cf	c6 83 3c 06 00
	00 00		 mov	 BYTE PTR [ebx+1596], 0
  000d6	f3 0f 11 83 1c
	09 00 00	 movss	 DWORD PTR [ebx+2332], xmm0
  000de	f3 0f 11 83 20
	09 00 00	 movss	 DWORD PTR [ebx+2336], xmm0
  000e6	f3 0f 11 45 0c	 movss	 DWORD PTR _value$534637[ebp], xmm0
  000eb	e8 00 00 00 00	 call	 ?EncryptValueToPool@?$CEncrypt@M@@AAEXPBD@Z ; CEncrypt<float>::EncryptValueToPool

; 26   : 
; 27   : 	m_vTargetMovePos = ioMath::VEC3_ZERO;

  000f0	8b 35 00 00 00
	00		 mov	 esi, DWORD PTR __imp_?VEC3_ZERO@ioMath@@2UD3DXVECTOR3@@A

; 28   : 
; 29   : 	m_bTraceTarget = false;
; 30   : 	m_bSkillWeapon = false;
; 31   : 	m_bOneTimeColCheck = false;
; 32   : 	m_bColOccur = false;
; 33   : 
; 34   : 	m_fTargetMaxRange = 0;

  000f6	0f 57 c0	 xorps	 xmm0, xmm0
  000f9	8d bb 24 09 00
	00		 lea	 edi, DWORD PTR [ebx+2340]
  000ff	a5		 movsd
  00100	a5		 movsd
  00101	a5		 movsd
  00102	8d 45 0c	 lea	 eax, DWORD PTR _value$534641[ebp]
  00105	50		 push	 eax
  00106	8d 8b 60 09 00
	00		 lea	 ecx, DWORD PTR [ebx+2400]
  0010c	c6 83 d8 09 00
	00 00		 mov	 BYTE PTR [ebx+2520], 0
  00113	66 c7 83 ec 09
	00 00 00 00	 mov	 WORD PTR [ebx+2540], 0
  0011c	c6 83 ee 09 00
	00 00		 mov	 BYTE PTR [ebx+2542], 0
  00123	f3 0f 11 45 0c	 movss	 DWORD PTR _value$534641[ebp], xmm0
  00128	e8 00 00 00 00	 call	 ?EncryptValueToPool@?$CEncrypt@M@@AAEXPBD@Z ; CEncrypt<float>::EncryptValueToPool

; 35   : 
; 36   : 	m_StartPos = ioMath::VEC3_ZERO;

  0012d	8b 35 00 00 00
	00		 mov	 esi, DWORD PTR __imp_?VEC3_ZERO@ioMath@@2UD3DXVECTOR3@@A
  00133	8d bb f0 09 00
	00		 lea	 edi, DWORD PTR [ebx+2544]
  00139	a5		 movsd
  0013a	a5		 movsd
  0013b	a5		 movsd

; 37   : }

  0013c	8b c3		 mov	 eax, ebx
  0013e	e8 00 00 00 00	 call	 __EH_epilog3
  00143	c2 08 00	 ret	 8
_TEXT	ENDS
;	COMDAT text$x
text$x	SEGMENT
__unwindfunclet$??0ioUroborusWeapon6@@QAE@PAVioBaseChar@@PBUWeaponAttribute@@@Z$0:
  00000	8b 4d f0	 mov	 ecx, DWORD PTR _this$[ebp]
  00003	e9 00 00 00 00	 jmp	 ??1ioWeapon@@UAE@XZ	; ioWeapon::~ioWeapon
__unwindfunclet$??0ioUroborusWeapon6@@QAE@PAVioBaseChar@@PBUWeaponAttribute@@@Z$1:
  00008	8b 4d f0	 mov	 ecx, DWORD PTR _this$[ebp]
  0000b	81 c1 9c 08 00
	00		 add	 ecx, 2204		; 0000089cH
  00011	ff 25 00 00 00
	00		 jmp	 DWORD PTR __imp_??1ioOrientBox@@QAE@XZ
__unwindfunclet$??0ioUroborusWeapon6@@QAE@PAVioBaseChar@@PBUWeaponAttribute@@@Z$2:
  00017	8b 4d f0	 mov	 ecx, DWORD PTR _this$[ebp]
  0001a	81 c1 f8 08 00
	00		 add	 ecx, 2296		; 000008f8H
  00020	ff 25 00 00 00
	00		 jmp	 DWORD PTR __imp_??1ioHashString@@QAE@XZ
__unwindfunclet$??0ioUroborusWeapon6@@QAE@PAVioBaseChar@@PBUWeaponAttribute@@@Z$3:
  00026	8b 4d f0	 mov	 ecx, DWORD PTR _this$[ebp]
  00029	81 c1 08 09 00
	00		 add	 ecx, 2312		; 00000908H
  0002f	ff 25 00 00 00
	00		 jmp	 DWORD PTR __imp_??1ioHashString@@QAE@XZ
__unwindfunclet$??0ioUroborusWeapon6@@QAE@PAVioBaseChar@@PBUWeaponAttribute@@@Z$4:
  00035	8b 4d f0	 mov	 ecx, DWORD PTR _this$[ebp]
  00038	81 c1 30 09 00
	00		 add	 ecx, 2352		; 00000930H
  0003e	e9 00 00 00 00	 jmp	 ??1?$CEncrypt@M@@UAE@XZ	; CEncrypt<float>::~CEncrypt<float>
__unwindfunclet$??0ioUroborusWeapon6@@QAE@PAVioBaseChar@@PBUWeaponAttribute@@@Z$5:
  00043	8b 4d f0	 mov	 ecx, DWORD PTR _this$[ebp]
  00046	81 c1 60 09 00
	00		 add	 ecx, 2400		; 00000960H
  0004c	e9 00 00 00 00	 jmp	 ??1?$CEncrypt@M@@UAE@XZ	; CEncrypt<float>::~CEncrypt<float>
__unwindfunclet$??0ioUroborusWeapon6@@QAE@PAVioBaseChar@@PBUWeaponAttribute@@@Z$6:
  00051	8b 4d f0	 mov	 ecx, DWORD PTR _this$[ebp]
  00054	81 c1 90 09 00
	00		 add	 ecx, 2448		; 00000990H
  0005a	e9 00 00 00 00	 jmp	 ??1?$CEncrypt@M@@UAE@XZ	; CEncrypt<float>::~CEncrypt<float>
__unwindfunclet$??0ioUroborusWeapon6@@QAE@PAVioBaseChar@@PBUWeaponAttribute@@@Z$7:
  0005f	8b 4d f0	 mov	 ecx, DWORD PTR _this$[ebp]
  00062	81 c1 c0 09 00
	00		 add	 ecx, 2496		; 000009c0H
  00068	ff 25 00 00 00
	00		 jmp	 DWORD PTR __imp_??1ioHashString@@QAE@XZ
__unwindfunclet$??0ioUroborusWeapon6@@QAE@PAVioBaseChar@@PBUWeaponAttribute@@@Z$8:
  0006e	8b 4d f0	 mov	 ecx, DWORD PTR _this$[ebp]
  00071	81 c1 dc 09 00
	00		 add	 ecx, 2524		; 000009dcH
  00077	ff 25 00 00 00
	00		 jmp	 DWORD PTR __imp_??1ioHashString@@QAE@XZ
__unwindfunclet$??0ioUroborusWeapon6@@QAE@PAVioBaseChar@@PBUWeaponAttribute@@@Z$9:
  0007d	8b 4d f0	 mov	 ecx, DWORD PTR _this$[ebp]
  00080	81 c1 14 0a 00
	00		 add	 ecx, 2580		; 00000a14H
  00086	ff 25 00 00 00
	00		 jmp	 DWORD PTR __imp_??1ioHashString@@QAE@XZ
__unwindfunclet$??0ioUroborusWeapon6@@QAE@PAVioBaseChar@@PBUWeaponAttribute@@@Z$10:
  0008c	8b 4d f0	 mov	 ecx, DWORD PTR _this$[ebp]
  0008f	81 c1 24 0a 00
	00		 add	 ecx, 2596		; 00000a24H
  00095	e9 00 00 00 00	 jmp	 ??1WeaponInfo@@QAE@XZ
__ehhandler$??0ioUroborusWeapon6@@QAE@PAVioBaseChar@@PBUWeaponAttribute@@@Z:
  0009a	8b 54 24 08	 mov	 edx, DWORD PTR [esp+8]
  0009e	8d 42 0c	 lea	 eax, DWORD PTR [edx+12]
  000a1	8b 4a ec	 mov	 ecx, DWORD PTR [edx-20]
  000a4	33 c8		 xor	 ecx, eax
  000a6	e8 00 00 00 00	 call	 @__security_check_cookie@4
  000ab	b8 00 00 00 00	 mov	 eax, OFFSET __ehfuncinfo$??0ioUroborusWeapon6@@QAE@PAVioBaseChar@@PBUWeaponAttribute@@@Z
  000b0	e9 00 00 00 00	 jmp	 ___CxxFrameHandler3
text$x	ENDS
??0ioUroborusWeapon6@@QAE@PAVioBaseChar@@PBUWeaponAttribute@@@Z ENDP ; ioUroborusWeapon6::ioUroborusWeapon6
; Function compile flags: /Ogsp
;	COMDAT ??_GioUroborusWeapon6@@UAEPAXI@Z
_TEXT	SEGMENT
___flags$ = 8						; size = 4
??_GioUroborusWeapon6@@UAEPAXI@Z PROC			; ioUroborusWeapon6::`scalar deleting destructor', COMDAT
; _this$ = ecx
  00000	55		 push	 ebp
  00001	8b ec		 mov	 ebp, esp
  00003	56		 push	 esi
  00004	8b f1		 mov	 esi, ecx
  00006	e8 00 00 00 00	 call	 ??1ioUroborusWeapon6@@UAE@XZ ; ioUroborusWeapon6::~ioUroborusWeapon6
  0000b	f6 45 08 01	 test	 BYTE PTR ___flags$[ebp], 1
  0000f	74 07		 je	 SHORT $LN1@scalar@2
  00011	56		 push	 esi
  00012	e8 00 00 00 00	 call	 ??3@YAXPAX@Z		; operator delete
  00017	59		 pop	 ecx
$LN1@scalar@2:
  00018	8b c6		 mov	 eax, esi
  0001a	5e		 pop	 esi
  0001b	5d		 pop	 ebp
  0001c	c2 04 00	 ret	 4
??_GioUroborusWeapon6@@UAEPAXI@Z ENDP			; ioUroborusWeapon6::`scalar deleting destructor'
_TEXT	ENDS
PUBLIC	__real@447a0000
PUBLIC	??_C@_00CNPNBAHC@?$AA@				; `string'
PUBLIC	__$ArrayPad$
EXTRN	__imp_??4ioHashString@@QAEAAV0@PBD@Z:PROC
EXTRN	?LoadProperty@ioWeapon@@UAEXAAVioINILoader@@@Z:PROC ; ioWeapon::LoadProperty
EXTRN	_memset:PROC
;	COMDAT __real@447a0000
; File d:\lost saga for developer\youtube\tutorial\source\src\lsclient\stringprotect.h
CONST	SEGMENT
__real@447a0000 DD 0447a0000r			; 1000
CONST	ENDS
;	COMDAT ??_C@_00CNPNBAHC@?$AA@
CONST	SEGMENT
??_C@_00CNPNBAHC@?$AA@ DB 00H				; `string'
; Function compile flags: /Ogsp
; File d:\lost saga for developer\youtube\tutorial\source\src\lsclient\iouroborusweapon6.cpp
CONST	ENDS
;	COMDAT ?LoadProperty@ioUroborusWeapon6@@UAEXAAVioINILoader@@@Z
_TEXT	SEGMENT
_value$535156 = -308					; size = 4
_szBuf$ = -304						; size = 260
__k$536952 = -44					; size = 34
__k$536811 = -44					; size = 34
__k$536686 = -40					; size = 29
__k$536548 = -40					; size = 30
__k$536423 = -36					; size = 25
__k$535936 = -32					; size = 21
__k$535814 = -32					; size = 19
__k$535298 = -32					; size = 21
__k$535173 = -32					; size = 22
__k$535013 = -32					; size = 19
__k$536298 = -28					; size = 17
__k$536173 = -28					; size = 17
__k$536048 = -28					; size = 17
__k$535686 = -28					; size = 18
__k$535423 = -28					; size = 18
__k$535043 = -28					; size = 18
__k$534806 = -28					; size = 17
__k$534681 = -28					; size = 16
__k$535548 = -24					; size = 13
__$ArrayPad$ = -4					; size = 4
_rkLoader$ = 8						; size = 4
?LoadProperty@ioUroborusWeapon6@@UAEXAAVioINILoader@@@Z PROC ; ioUroborusWeapon6::LoadProperty, COMDAT
; _this$ = ecx

; 53   : {

  00000	55		 push	 ebp
  00001	8b ec		 mov	 ebp, esp
  00003	81 ec 34 01 00
	00		 sub	 esp, 308		; 00000134H
  00009	a1 00 00 00 00	 mov	 eax, DWORD PTR ___security_cookie
  0000e	33 c5		 xor	 eax, ebp
  00010	89 45 fc	 mov	 DWORD PTR __$ArrayPad$[ebp], eax
  00013	53		 push	 ebx
  00014	56		 push	 esi
  00015	57		 push	 edi
  00016	8b 7d 08	 mov	 edi, DWORD PTR _rkLoader$[ebp]

; 54   : 	ioWeapon::LoadProperty( rkLoader );

  00019	57		 push	 edi
  0001a	8b f1		 mov	 esi, ecx
  0001c	e8 00 00 00 00	 call	 ?LoadProperty@ioWeapon@@UAEXAAVioINILoader@@@Z ; ioWeapon::LoadProperty

; 55   : 
; 56   : 	char szBuf[MAX_PATH] = "";

  00021	33 db		 xor	 ebx, ebx
  00023	68 03 01 00 00	 push	 259			; 00000103H
  00028	8d 85 d1 fe ff
	ff		 lea	 eax, DWORD PTR _szBuf$[ebp+1]
  0002e	53		 push	 ebx
  0002f	50		 push	 eax
  00030	88 9d d0 fe ff
	ff		 mov	 BYTE PTR _szBuf$[ebp], bl
  00036	e8 00 00 00 00	 call	 _memset
  0003b	83 c4 0c	 add	 esp, 12			; 0000000cH

; 57   : 
; 58   : 	rkLoader.LoadString_e( "red_team_effect", "", szBuf, MAX_PATH );

  0003e	6a 03		 push	 3
  00040	c7 45 e4 9f 89
	8f b5		 mov	 DWORD PTR __k$534681[ebp], -1248884321 ; b58f899fH
  00047	c7 45 e8 99 89
	8a 87		 mov	 DWORD PTR __k$534681[ebp+4], -2020963943 ; 878a8999H
  0004e	c7 45 ec b2 89
	8d 8c		 mov	 DWORD PTR __k$534681[ebp+8], -1936881230 ; 8c8d89b2H
  00055	8d 45 e4	 lea	 eax, DWORD PTR __k$534681[ebp]
  00058	c7 45 f0 88 8f
	9f 00		 mov	 DWORD PTR __k$534681[ebp+12], 10456968 ; 009f8f88H
  0005f	59		 pop	 ecx
$LL106@LoadProper:
  00060	81 30 ed ec eb
	ea		 xor	 DWORD PTR [eax], -353637139 ; eaebecedH
  00066	83 c0 04	 add	 eax, 4
  00069	49		 dec	 ecx
  0006a	75 f4		 jne	 SHORT $LL106@LoadProper
  0006c	6a 0c		 push	 12			; 0000000cH
  0006e	58		 pop	 eax
$LL103@LoadProper:
  0006f	8b c8		 mov	 ecx, eax
  00071	81 e1 03 00 00
	80		 and	 ecx, -2147483645	; 80000003H
  00077	79 05		 jns	 SHORT $LN2095@LoadProper
  00079	49		 dec	 ecx
  0007a	83 c9 fc	 or	 ecx, -4			; fffffffcH
  0007d	41		 inc	 ecx
$LN2095@LoadProper:
  0007e	b2 ed		 mov	 dl, -19			; ffffffedH
  00080	2a d1		 sub	 dl, cl
  00082	30 54 05 e4	 xor	 BYTE PTR __k$534681[ebp+eax], dl
  00086	40		 inc	 eax
  00087	83 f8 0f	 cmp	 eax, 15			; 0000000fH
  0008a	7c e3		 jl	 SHORT $LL103@LoadProper
  0008c	68 04 01 00 00	 push	 260			; 00000104H
  00091	8d 85 d0 fe ff
	ff		 lea	 eax, DWORD PTR _szBuf$[ebp]
  00097	50		 push	 eax
  00098	68 00 00 00 00	 push	 OFFSET ??_C@_00CNPNBAHC@?$AA@
  0009d	8d 45 e4	 lea	 eax, DWORD PTR __k$534681[ebp]
  000a0	50		 push	 eax
  000a1	8b cf		 mov	 ecx, edi
  000a3	ff 15 00 00 00
	00		 call	 DWORD PTR __imp_?LoadStringA@ioINILoader@@QAEXPBD0PADH@Z

; 59   : 	m_RedTeamEffect = szBuf;

  000a9	8d 85 d0 fe ff
	ff		 lea	 eax, DWORD PTR _szBuf$[ebp]
  000af	50		 push	 eax
  000b0	8d 8e f8 08 00
	00		 lea	 ecx, DWORD PTR [esi+2296]
  000b6	ff 15 00 00 00
	00		 call	 DWORD PTR __imp_??4ioHashString@@QAEAAV0@PBD@Z
  000bc	6a 04		 push	 4

; 60   : 	rkLoader.LoadString_e( "blue_team_effect", "", szBuf, MAX_PATH );

  000be	c7 45 e4 8f 80
	9e 8f		 mov	 DWORD PTR __k$534806[ebp], -1885437809 ; 8f9e808fH
  000c5	c7 45 e8 b2 98
	8e 8b		 mov	 DWORD PTR __k$534806[ebp+4], -1953589070 ; 8b8e98b2H
  000cc	c7 45 ec 80 b3
	8e 8c		 mov	 DWORD PTR __k$534806[ebp+8], -1936804992 ; 8c8eb380H
  000d3	c7 45 f0 8b 89
	88 9e		 mov	 DWORD PTR __k$534806[ebp+12], -1635219061 ; 9e88898bH
  000da	8d 45 e4	 lea	 eax, DWORD PTR __k$534806[ebp]
  000dd	88 5d f4	 mov	 BYTE PTR __k$534806[ebp+16], bl
  000e0	59		 pop	 ecx
$LL212@LoadProper:
  000e1	81 30 ed ec eb
	ea		 xor	 DWORD PTR [eax], -353637139 ; eaebecedH
  000e7	83 c0 04	 add	 eax, 4
  000ea	49		 dec	 ecx
  000eb	75 f4		 jne	 SHORT $LL212@LoadProper
  000ed	68 04 01 00 00	 push	 260			; 00000104H
  000f2	8d 85 d0 fe ff
	ff		 lea	 eax, DWORD PTR _szBuf$[ebp]
  000f8	50		 push	 eax
  000f9	68 00 00 00 00	 push	 OFFSET ??_C@_00CNPNBAHC@?$AA@
  000fe	8d 45 e4	 lea	 eax, DWORD PTR __k$534806[ebp]
  00101	50		 push	 eax
  00102	8b cf		 mov	 ecx, edi
  00104	ff 15 00 00 00
	00		 call	 DWORD PTR __imp_?LoadStringA@ioINILoader@@QAEXPBD0PADH@Z

; 61   : 	m_BlueTeamEffect = szBuf;

  0010a	8d 85 d0 fe ff
	ff		 lea	 eax, DWORD PTR _szBuf$[ebp]
  00110	50		 push	 eax
  00111	8d 8e 08 09 00
	00		 lea	 ecx, DWORD PTR [esi+2312]
  00117	ff 15 00 00 00
	00		 call	 DWORD PTR __imp_??4ioHashString@@QAEAAV0@PBD@Z
  0011d	6a 04		 push	 4

; 62   : 
; 63   : 	rkLoader.LoadString_e( "target_move_effect", "", szBuf, MAX_PATH );

  0011f	c7 45 e0 99 8d
	99 8d		 mov	 DWORD PTR __k$535013[ebp], -1919316583 ; 8d998d99H
  00126	c7 45 e4 88 98
	b4 87		 mov	 DWORD PTR __k$535013[ebp+4], -2018207608 ; 87b49888H
  0012d	c7 45 e8 82 9a
	8e b5		 mov	 DWORD PTR __k$535013[ebp+8], -1248945534 ; b58e9a82H
  00134	c7 45 ec 88 8a
	8d 8f		 mov	 DWORD PTR __k$535013[ebp+12], -1886549368 ; 8f8d8a88H
  0013b	66 c7 45 f0 8e
	98		 mov	 WORD PTR __k$535013[ebp+16], 39054 ; 0000988eH
  00141	8d 45 e0	 lea	 eax, DWORD PTR __k$535013[ebp]
  00144	88 5d f2	 mov	 BYTE PTR __k$535013[ebp+18], bl
  00147	59		 pop	 ecx
$LL318@LoadProper:
  00148	81 30 ed ec eb
	ea		 xor	 DWORD PTR [eax], -353637139 ; eaebecedH
  0014e	83 c0 04	 add	 eax, 4
  00151	49		 dec	 ecx
  00152	75 f4		 jne	 SHORT $LL318@LoadProper
  00154	6a 10		 push	 16			; 00000010H
  00156	58		 pop	 eax
$LL315@LoadProper:
  00157	8b c8		 mov	 ecx, eax
  00159	81 e1 03 00 00
	80		 and	 ecx, -2147483645	; 80000003H
  0015f	79 05		 jns	 SHORT $LN2096@LoadProper
  00161	49		 dec	 ecx
  00162	83 c9 fc	 or	 ecx, -4			; fffffffcH
  00165	41		 inc	 ecx
$LN2096@LoadProper:
  00166	b2 ed		 mov	 dl, -19			; ffffffedH
  00168	2a d1		 sub	 dl, cl
  0016a	30 54 05 e0	 xor	 BYTE PTR __k$535013[ebp+eax], dl
  0016e	40		 inc	 eax
  0016f	83 f8 12	 cmp	 eax, 18			; 00000012H
  00172	7c e3		 jl	 SHORT $LL315@LoadProper
  00174	68 04 01 00 00	 push	 260			; 00000104H
  00179	8d 85 d0 fe ff
	ff		 lea	 eax, DWORD PTR _szBuf$[ebp]
  0017f	50		 push	 eax
  00180	68 00 00 00 00	 push	 OFFSET ??_C@_00CNPNBAHC@?$AA@
  00185	8d 45 e0	 lea	 eax, DWORD PTR __k$535013[ebp]
  00188	50		 push	 eax
  00189	8b cf		 mov	 ecx, edi
  0018b	ff 15 00 00 00
	00		 call	 DWORD PTR __imp_?LoadStringA@ioINILoader@@QAEXPBD0PADH@Z

; 64   : 	m_TargetMoveEffect = szBuf;

  00191	8d 85 d0 fe ff
	ff		 lea	 eax, DWORD PTR _szBuf$[ebp]
  00197	50		 push	 eax
  00198	8d 8e c0 09 00
	00		 lea	 ecx, DWORD PTR [esi+2496]
  0019e	ff 15 00 00 00
	00		 call	 DWORD PTR __imp_??4ioHashString@@QAEAAV0@PBD@Z
  001a4	6a 04		 push	 4

; 65   : 
; 66   : 	m_fTargetMoveSpeed = rkLoader.LoadFloat_e( "target_move_speed", 0.0f );

  001a6	c7 45 e4 99 8d
	99 8d		 mov	 DWORD PTR __k$535043[ebp], -1919316583 ; 8d998d99H
  001ad	c7 45 e8 88 98
	b4 87		 mov	 DWORD PTR __k$535043[ebp+4], -2018207608 ; 87b49888H
  001b4	c7 45 ec 82 9a
	8e b5		 mov	 DWORD PTR __k$535043[ebp+8], -1248945534 ; b58e9a82H
  001bb	c7 45 f0 9e 9c
	8e 8f		 mov	 DWORD PTR __k$535043[ebp+12], -1886479202 ; 8f8e9c9eH
  001c2	8d 45 e4	 lea	 eax, DWORD PTR __k$535043[ebp]
  001c5	66 c7 45 f4 89
	00		 mov	 WORD PTR __k$535043[ebp+16], 137 ; 00000089H
  001cb	59		 pop	 ecx
$LL424@LoadProper:
  001cc	81 30 ed ec eb
	ea		 xor	 DWORD PTR [eax], -353637139 ; eaebecedH
  001d2	83 c0 04	 add	 eax, 4
  001d5	49		 dec	 ecx
  001d6	75 f4		 jne	 SHORT $LL424@LoadProper
  001d8	0f 57 c0	 xorps	 xmm0, xmm0
  001db	80 75 f4 ed	 xor	 BYTE PTR __k$535043[ebp+16], -19 ; ffffffedH
  001df	51		 push	 ecx
  001e0	8d 45 e4	 lea	 eax, DWORD PTR __k$535043[ebp]
  001e3	f3 0f 11 04 24	 movss	 DWORD PTR [esp], xmm0
  001e8	50		 push	 eax
  001e9	8b cf		 mov	 ecx, edi
  001eb	ff 15 00 00 00
	00		 call	 DWORD PTR __imp_?LoadFloat@ioINILoader@@QAEMPBDM@Z
  001f1	d9 9d cc fe ff
	ff		 fstp	 DWORD PTR _value$535156[ebp]
  001f7	8d 85 cc fe ff
	ff		 lea	 eax, DWORD PTR _value$535156[ebp]
  001fd	50		 push	 eax
  001fe	8d 8e 30 09 00
	00		 lea	 ecx, DWORD PTR [esi+2352]
  00204	e8 00 00 00 00	 call	 ?EncryptValueToPool@?$CEncrypt@M@@AAEXPBD@Z ; CEncrypt<float>::EncryptValueToPool
  00209	6a 05		 push	 5

; 67   : 
; 68   : 	//////////////////////////////////////////////////////////////////////////
; 69   : 	m_bUseEffectStartPosMode	= rkLoader.LoadBool_e( "use_effect_start_mode", true );

  0020b	c7 45 e0 98 9f
	8e b5		 mov	 DWORD PTR __k$535173[ebp], -1248944232 ; b58e9f98H
  00212	c7 45 e4 88 8a
	8d 8f		 mov	 DWORD PTR __k$535173[ebp+4], -1886549368 ; 8f8d8a88H
  00219	c7 45 e8 8e 98
	b4 99		 mov	 DWORD PTR __k$535173[ebp+8], -1716217714 ; 99b4988eH
  00220	c7 45 ec 99 8d
	99 9e		 mov	 DWORD PTR __k$535173[ebp+12], -1634103911 ; 9e998d99H
  00227	c7 45 f0 b2 81
	84 8e		 mov	 DWORD PTR __k$535173[ebp+16], -1903918670 ; 8e8481b2H
  0022e	8d 45 e0	 lea	 eax, DWORD PTR __k$535173[ebp]
  00231	66 c7 45 f4 88
	00		 mov	 WORD PTR __k$535173[ebp+20], 136 ; 00000088H
  00237	59		 pop	 ecx
$LL532@LoadProper:
  00238	81 30 ed ec eb
	ea		 xor	 DWORD PTR [eax], -353637139 ; eaebecedH
  0023e	83 c0 04	 add	 eax, 4
  00241	49		 dec	 ecx
  00242	75 f4		 jne	 SHORT $LL532@LoadProper
  00244	80 75 f4 ed	 xor	 BYTE PTR __k$535173[ebp+20], -19 ; ffffffedH
  00248	6a 01		 push	 1
  0024a	8d 45 e0	 lea	 eax, DWORD PTR __k$535173[ebp]
  0024d	50		 push	 eax
  0024e	8b cf		 mov	 ecx, edi
  00250	ff 15 00 00 00
	00		 call	 DWORD PTR __imp_?LoadBool@ioINILoader@@QAE_NPBD_N@Z
  00256	6a 05		 push	 5
  00258	88 86 fc 09 00
	00		 mov	 BYTE PTR [esi+2556], al

; 70   : 	m_bUseStartReturnPos		= rkLoader.LoadBool_e( "use_start_return_pos", false );

  0025e	c7 45 e0 98 9f
	8e b5		 mov	 DWORD PTR __k$535298[ebp], -1248944232 ; b58e9f98H
  00265	c7 45 e4 9e 98
	8a 98		 mov	 DWORD PTR __k$535298[ebp+4], -1735747426 ; 988a989eH
  0026c	c7 45 e8 99 b3
	99 8f		 mov	 DWORD PTR __k$535298[ebp+8], -1885752423 ; 8f99b399H
  00273	c7 45 ec 99 99
	99 84		 mov	 DWORD PTR __k$535298[ebp+12], -2070308455 ; 84999999H
  0027a	c7 45 f0 b2 9c
	84 99		 mov	 DWORD PTR __k$535298[ebp+16], -1719362382 ; 99849cb2H
  00281	8d 45 e0	 lea	 eax, DWORD PTR __k$535298[ebp]
  00284	88 5d f4	 mov	 BYTE PTR __k$535298[ebp+20], bl
  00287	59		 pop	 ecx
$LL638@LoadProper:
  00288	81 30 ed ec eb
	ea		 xor	 DWORD PTR [eax], -353637139 ; eaebecedH
  0028e	83 c0 04	 add	 eax, 4
  00291	49		 dec	 ecx
  00292	75 f4		 jne	 SHORT $LL638@LoadProper
  00294	53		 push	 ebx
  00295	8d 45 e0	 lea	 eax, DWORD PTR __k$535298[ebp]
  00298	50		 push	 eax
  00299	8b cf		 mov	 ecx, edi
  0029b	ff 15 00 00 00
	00		 call	 DWORD PTR __imp_?LoadBool@ioINILoader@@QAE_NPBD_N@Z
  002a1	6a 04		 push	 4
  002a3	88 86 fd 09 00
	00		 mov	 BYTE PTR [esi+2557], al

; 71   : 	m_bUseRotateWeapon			= rkLoader.LoadBool_e( "use_rotate_weapon", false );

  002a9	c7 45 e4 98 9f
	8e b5		 mov	 DWORD PTR __k$535423[ebp], -1248944232 ; b58e9f98H
  002b0	c7 45 e8 9f 83
	9f 8b		 mov	 DWORD PTR __k$535423[ebp+4], -1952480353 ; 8b9f839fH
  002b7	c7 45 ec 99 89
	b4 9d		 mov	 DWORD PTR __k$535423[ebp+8], -1649112679 ; 9db48999H
  002be	c7 45 f0 88 8d
	9b 85		 mov	 DWORD PTR __k$535423[ebp+12], -2053403256 ; 859b8d88H
  002c5	8d 45 e4	 lea	 eax, DWORD PTR __k$535423[ebp]
  002c8	66 c7 45 f4 83
	00		 mov	 WORD PTR __k$535423[ebp+16], 131 ; 00000083H
  002ce	59		 pop	 ecx
$LL744@LoadProper:
  002cf	81 30 ed ec eb
	ea		 xor	 DWORD PTR [eax], -353637139 ; eaebecedH
  002d5	83 c0 04	 add	 eax, 4
  002d8	49		 dec	 ecx
  002d9	75 f4		 jne	 SHORT $LL744@LoadProper
  002db	80 75 f4 ed	 xor	 BYTE PTR __k$535423[ebp+16], -19 ; ffffffedH
  002df	53		 push	 ebx
  002e0	8d 45 e4	 lea	 eax, DWORD PTR __k$535423[ebp]
  002e3	50		 push	 eax
  002e4	8b cf		 mov	 ecx, edi
  002e6	ff 15 00 00 00
	00		 call	 DWORD PTR __imp_?LoadBool@ioINILoader@@QAE_NPBD_N@Z
  002ec	6a 03		 push	 3
  002ee	88 86 fe 09 00
	00		 mov	 BYTE PTR [esi+2558], al

; 72   : 	m_fRotateAngle				= rkLoader.LoadFloat_e( "rotate_angle", 0.f );

  002f4	c7 45 e8 9f 83
	9f 8b		 mov	 DWORD PTR __k$535548[ebp], -1952480353 ; 8b9f839fH
  002fb	c7 45 ec 99 89
	b4 8b		 mov	 DWORD PTR __k$535548[ebp+4], -1951102567 ; 8bb48999H
  00302	c7 45 f0 83 8b
	87 8f		 mov	 DWORD PTR __k$535548[ebp+8], -1886942333 ; 8f878b83H
  00309	8d 45 e8	 lea	 eax, DWORD PTR __k$535548[ebp]
  0030c	88 5d f4	 mov	 BYTE PTR __k$535548[ebp+12], bl
  0030f	59		 pop	 ecx
$LL850@LoadProper:
  00310	81 30 ed ec eb
	ea		 xor	 DWORD PTR [eax], -353637139 ; eaebecedH
  00316	83 c0 04	 add	 eax, 4
  00319	49		 dec	 ecx
  0031a	75 f4		 jne	 SHORT $LL850@LoadProper
  0031c	0f 57 c0	 xorps	 xmm0, xmm0
  0031f	51		 push	 ecx
  00320	8d 45 e8	 lea	 eax, DWORD PTR __k$535548[ebp]
  00323	f3 0f 11 04 24	 movss	 DWORD PTR [esp], xmm0
  00328	50		 push	 eax
  00329	8b cf		 mov	 ecx, edi
  0032b	ff 15 00 00 00
	00		 call	 DWORD PTR __imp_?LoadFloat@ioINILoader@@QAEMPBDM@Z
  00331	d9 9e 00 0a 00
	00		 fstp	 DWORD PTR [esi+2560]
  00337	6a 04		 push	 4

; 73   : 	m_bUseReturnWeapon			= rkLoader.LoadBool_e( "use_return_weapon", false );

  00339	c7 45 e4 98 9f
	8e b5		 mov	 DWORD PTR __k$535686[ebp], -1248944232 ; b58e9f98H
  00340	c7 45 e8 9f 89
	9f 9f		 mov	 DWORD PTR __k$535686[ebp+4], -1616934497 ; 9f9f899fH
  00347	c7 45 ec 9f 82
	b4 9d		 mov	 DWORD PTR __k$535686[ebp+8], -1649114465 ; 9db4829fH
  0034e	c7 45 f0 88 8d
	9b 85		 mov	 DWORD PTR __k$535686[ebp+12], -2053403256 ; 859b8d88H
  00355	8d 45 e4	 lea	 eax, DWORD PTR __k$535686[ebp]
  00358	66 c7 45 f4 83
	00		 mov	 WORD PTR __k$535686[ebp+16], 131 ; 00000083H
  0035e	59		 pop	 ecx
$LL956@LoadProper:
  0035f	81 30 ed ec eb
	ea		 xor	 DWORD PTR [eax], -353637139 ; eaebecedH
  00365	83 c0 04	 add	 eax, 4
  00368	49		 dec	 ecx
  00369	75 f4		 jne	 SHORT $LL956@LoadProper
  0036b	80 75 f4 ed	 xor	 BYTE PTR __k$535686[ebp+16], -19 ; ffffffedH
  0036f	53		 push	 ebx
  00370	8d 45 e4	 lea	 eax, DWORD PTR __k$535686[ebp]
  00373	50		 push	 eax
  00374	8b cf		 mov	 ecx, edi
  00376	ff 15 00 00 00
	00		 call	 DWORD PTR __imp_?LoadBool@ioINILoader@@QAE_NPBD_N@Z
  0037c	6a 04		 push	 4
  0037e	88 86 04 0a 00
	00		 mov	 BYTE PTR [esi+2564], al

; 74   : 	m_fReturnMaxLength			= rkLoader.LoadFloat_e( "return_move_length", 0.f );

  00384	c7 45 e0 9f 89
	9f 9f		 mov	 DWORD PTR __k$535814[ebp], -1616934497 ; 9f9f899fH
  0038b	c7 45 e4 9f 82
	b4 87		 mov	 DWORD PTR __k$535814[ebp+4], -2018213217 ; 87b4829fH
  00392	c7 45 e8 82 9a
	8e b5		 mov	 DWORD PTR __k$535814[ebp+8], -1248945534 ; b58e9a82H
  00399	c7 45 ec 81 89
	85 8d		 mov	 DWORD PTR __k$535814[ebp+12], -1920628351 ; 8d858981H
  003a0	66 c7 45 f0 99
	84		 mov	 WORD PTR __k$535814[ebp+16], 33945 ; 00008499H
  003a6	8d 45 e0	 lea	 eax, DWORD PTR __k$535814[ebp]
  003a9	88 5d f2	 mov	 BYTE PTR __k$535814[ebp+18], bl
  003ac	59		 pop	 ecx
$LL1062@LoadProper:
  003ad	81 30 ed ec eb
	ea		 xor	 DWORD PTR [eax], -353637139 ; eaebecedH
  003b3	83 c0 04	 add	 eax, 4
  003b6	49		 dec	 ecx
  003b7	75 f4		 jne	 SHORT $LL1062@LoadProper
  003b9	6a 10		 push	 16			; 00000010H
  003bb	58		 pop	 eax
$LL1059@LoadProper:
  003bc	8b c8		 mov	 ecx, eax
  003be	81 e1 03 00 00
	80		 and	 ecx, -2147483645	; 80000003H
  003c4	79 05		 jns	 SHORT $LN2097@LoadProper
  003c6	49		 dec	 ecx
  003c7	83 c9 fc	 or	 ecx, -4			; fffffffcH
  003ca	41		 inc	 ecx
$LN2097@LoadProper:
  003cb	b2 ed		 mov	 dl, -19			; ffffffedH
  003cd	2a d1		 sub	 dl, cl
  003cf	30 54 05 e0	 xor	 BYTE PTR __k$535814[ebp+eax], dl
  003d3	40		 inc	 eax
  003d4	83 f8 12	 cmp	 eax, 18			; 00000012H
  003d7	7c e3		 jl	 SHORT $LL1059@LoadProper
  003d9	0f 57 c0	 xorps	 xmm0, xmm0
  003dc	51		 push	 ecx
  003dd	8d 45 e0	 lea	 eax, DWORD PTR __k$535814[ebp]
  003e0	f3 0f 11 04 24	 movss	 DWORD PTR [esp], xmm0
  003e5	50		 push	 eax
  003e6	8b cf		 mov	 ecx, edi
  003e8	ff 15 00 00 00
	00		 call	 DWORD PTR __imp_?LoadFloat@ioINILoader@@QAEMPBDM@Z
  003ee	d9 9e 08 0a 00
	00		 fstp	 DWORD PTR [esi+2568]
  003f4	6a 05		 push	 5

; 75   : 
; 76   : 	m_bUseDelayStartTime		= rkLoader.LoadBool_e( "use_delay_start_time", false );

  003f6	c7 45 e0 98 9f
	8e b5		 mov	 DWORD PTR __k$535936[ebp], -1248944232 ; b58e9f98H
  003fd	c7 45 e4 89 89
	87 8b		 mov	 DWORD PTR __k$535936[ebp+4], -1954051703 ; 8b878989H
  00404	c7 45 e8 94 b3
	98 9e		 mov	 DWORD PTR __k$535936[ebp+8], -1634159724 ; 9e98b394H
  0040b	c7 45 ec 8c 9e
	9f b5		 mov	 DWORD PTR __k$535936[ebp+12], -1247830388 ; b59f9e8cH
  00412	c7 45 f0 99 85
	86 8f		 mov	 DWORD PTR __k$535936[ebp+16], -1887009383 ; 8f868599H
  00419	8d 45 e0	 lea	 eax, DWORD PTR __k$535936[ebp]
  0041c	88 5d f4	 mov	 BYTE PTR __k$535936[ebp+20], bl
  0041f	59		 pop	 ecx
$LL1168@LoadProper:
  00420	81 30 ed ec eb
	ea		 xor	 DWORD PTR [eax], -353637139 ; eaebecedH
  00426	83 c0 04	 add	 eax, 4
  00429	49		 dec	 ecx
  0042a	75 f4		 jne	 SHORT $LL1168@LoadProper
  0042c	53		 push	 ebx
  0042d	8d 45 e0	 lea	 eax, DWORD PTR __k$535936[ebp]
  00430	50		 push	 eax
  00431	8b cf		 mov	 ecx, edi
  00433	ff 15 00 00 00
	00		 call	 DWORD PTR __imp_?LoadBool@ioINILoader@@QAE_NPBD_N@Z
  00439	6a 04		 push	 4
  0043b	88 86 0c 0a 00
	00		 mov	 BYTE PTR [esi+2572], al

; 77   : 	m_dwDelayStartTime			= (DWORD)rkLoader.LoadInt_e( "delay_start_time", 0 );

  00441	c7 45 e4 89 89
	87 8b		 mov	 DWORD PTR __k$536048[ebp], -1954051703 ; 8b878989H
  00448	c7 45 e8 94 b3
	98 9e		 mov	 DWORD PTR __k$536048[ebp+4], -1634159724 ; 9e98b394H
  0044f	c7 45 ec 8c 9e
	9f b5		 mov	 DWORD PTR __k$536048[ebp+8], -1247830388 ; b59f9e8cH
  00456	c7 45 f0 99 85
	86 8f		 mov	 DWORD PTR __k$536048[ebp+12], -1887009383 ; 8f868599H
  0045d	8d 45 e4	 lea	 eax, DWORD PTR __k$536048[ebp]
  00460	88 5d f4	 mov	 BYTE PTR __k$536048[ebp+16], bl
  00463	59		 pop	 ecx
$LL1274@LoadProper:
  00464	81 30 ed ec eb
	ea		 xor	 DWORD PTR [eax], -353637139 ; eaebecedH
  0046a	83 c0 04	 add	 eax, 4
  0046d	49		 dec	 ecx
  0046e	75 f4		 jne	 SHORT $LL1274@LoadProper
  00470	53		 push	 ebx
  00471	8d 45 e4	 lea	 eax, DWORD PTR __k$536048[ebp]
  00474	50		 push	 eax
  00475	8b cf		 mov	 ecx, edi
  00477	ff 15 00 00 00
	00		 call	 DWORD PTR __imp_?LoadInt@ioINILoader@@QAEHPBDH@Z
  0047d	6a 04		 push	 4
  0047f	89 86 10 0a 00
	00		 mov	 DWORD PTR [esi+2576], eax

; 78   : 
; 79   : 	m_fMaxCheckLength			= rkLoader.LoadFloat_e( "check_max_length", 0.f );

  00485	c7 45 e4 8e 84
	8e 89		 mov	 DWORD PTR __k$536173[ebp], -1987148658 ; 898e848eH
  0048c	c7 45 e8 86 b3
	86 8b		 mov	 DWORD PTR __k$536173[ebp+4], -1954106490 ; 8b86b386H
  00493	c7 45 ec 95 b3
	87 8f		 mov	 DWORD PTR __k$536173[ebp+8], -1886932075 ; 8f87b395H
  0049a	c7 45 f0 83 8b
	9f 82		 mov	 DWORD PTR __k$536173[ebp+12], -2103473277 ; 829f8b83H
  004a1	8d 45 e4	 lea	 eax, DWORD PTR __k$536173[ebp]
  004a4	88 5d f4	 mov	 BYTE PTR __k$536173[ebp+16], bl
  004a7	59		 pop	 ecx
$LL1380@LoadProper:
  004a8	81 30 ed ec eb
	ea		 xor	 DWORD PTR [eax], -353637139 ; eaebecedH
  004ae	83 c0 04	 add	 eax, 4
  004b1	49		 dec	 ecx
  004b2	75 f4		 jne	 SHORT $LL1380@LoadProper
  004b4	0f 57 c0	 xorps	 xmm0, xmm0
  004b7	51		 push	 ecx
  004b8	8d 45 e4	 lea	 eax, DWORD PTR __k$536173[ebp]
  004bb	f3 0f 11 04 24	 movss	 DWORD PTR [esp], xmm0
  004c0	50		 push	 eax
  004c1	8b cf		 mov	 ecx, edi
  004c3	ff 15 00 00 00
	00		 call	 DWORD PTR __imp_?LoadFloat@ioINILoader@@QAEMPBDM@Z
  004c9	d9 9e d0 09 00
	00		 fstp	 DWORD PTR [esi+2512]
  004cf	6a 04		 push	 4

; 80   : 	m_fMinCheckLength			= rkLoader.LoadFloat_e( "check_min_length", 1000.f );

  004d1	c7 45 e4 8e 84
	8e 89		 mov	 DWORD PTR __k$536298[ebp], -1987148658 ; 898e848eH
  004d8	c7 45 e8 86 b3
	86 83		 mov	 DWORD PTR __k$536298[ebp+4], -2088324218 ; 8386b386H
  004df	c7 45 ec 83 b3
	87 8f		 mov	 DWORD PTR __k$536298[ebp+8], -1886932093 ; 8f87b383H
  004e6	c7 45 f0 83 8b
	9f 82		 mov	 DWORD PTR __k$536298[ebp+12], -2103473277 ; 829f8b83H
  004ed	8d 45 e4	 lea	 eax, DWORD PTR __k$536298[ebp]
  004f0	88 5d f4	 mov	 BYTE PTR __k$536298[ebp+16], bl
  004f3	59		 pop	 ecx
$LL1486@LoadProper:
  004f4	81 30 ed ec eb
	ea		 xor	 DWORD PTR [eax], -353637139 ; eaebecedH
  004fa	83 c0 04	 add	 eax, 4
  004fd	49		 dec	 ecx
  004fe	75 f4		 jne	 SHORT $LL1486@LoadProper
  00500	f3 0f 10 05 00
	00 00 00	 movss	 xmm0, DWORD PTR __real@447a0000
  00508	51		 push	 ecx
  00509	8d 45 e4	 lea	 eax, DWORD PTR __k$536298[ebp]
  0050c	f3 0f 11 04 24	 movss	 DWORD PTR [esp], xmm0
  00511	50		 push	 eax
  00512	8b cf		 mov	 ecx, edi
  00514	ff 15 00 00 00
	00		 call	 DWORD PTR __imp_?LoadFloat@ioINILoader@@QAEMPBDM@Z
  0051a	d9 9e d4 09 00
	00		 fstp	 DWORD PTR [esi+2516]
  00520	6a 06		 push	 6

; 81   : 
; 82   : 	m_CallWeaponInfo.m_iWeaponIdx = rkLoader.LoadInt_e( "end_call_attribute_index", 0 );		

  00522	c7 45 dc 88 82
	8f b5		 mov	 DWORD PTR __k$536423[ebp], -1248886136 ; b58f8288H
  00529	c7 45 e0 8e 8d
	87 86		 mov	 DWORD PTR __k$536423[ebp+4], -2037936754 ; 86878d8eH
  00530	c7 45 e4 b2 8d
	9f 9e		 mov	 DWORD PTR __k$536423[ebp+8], -1633710670 ; 9e9f8db2H
  00537	c7 45 e8 9f 85
	89 9f		 mov	 DWORD PTR __k$536423[ebp+12], -1618377313 ; 9f89859fH
  0053e	c7 45 ec 99 89
	b4 83		 mov	 DWORD PTR __k$536423[ebp+16], -2085320295 ; 83b48999H
  00545	c7 45 f0 83 88
	8e 92		 mov	 DWORD PTR __k$536423[ebp+20], -1836152701 ; 928e8883H
  0054c	8d 45 dc	 lea	 eax, DWORD PTR __k$536423[ebp]
  0054f	88 5d f4	 mov	 BYTE PTR __k$536423[ebp+24], bl
  00552	59		 pop	 ecx
$LL1592@LoadProper:
  00553	81 30 ed ec eb
	ea		 xor	 DWORD PTR [eax], -353637139 ; eaebecedH
  00559	83 c0 04	 add	 eax, 4
  0055c	49		 dec	 ecx
  0055d	75 f4		 jne	 SHORT $LL1592@LoadProper
  0055f	53		 push	 ebx
  00560	8d 45 dc	 lea	 eax, DWORD PTR __k$536423[ebp]
  00563	50		 push	 eax
  00564	8b cf		 mov	 ecx, edi
  00566	ff 15 00 00 00
	00		 call	 DWORD PTR __imp_?LoadInt@ioINILoader@@QAEHPBDH@Z
  0056c	6a 07		 push	 7
  0056e	89 86 24 0a 00
	00		 mov	 DWORD PTR [esi+2596], eax

; 83   : 	m_CallWeaponInfo.m_iResistanceIdx = rkLoader.LoadInt_e( "end_call_attribute_resistance", 0 );		

  00574	c7 45 d8 88 82
	8f b5		 mov	 DWORD PTR __k$536548[ebp], -1248886136 ; b58f8288H
  0057b	c7 45 dc 8e 8d
	87 86		 mov	 DWORD PTR __k$536548[ebp+4], -2037936754 ; 86878d8eH
  00582	c7 45 e0 b2 8d
	9f 9e		 mov	 DWORD PTR __k$536548[ebp+8], -1633710670 ; 9e9f8db2H
  00589	c7 45 e4 9f 85
	89 9f		 mov	 DWORD PTR __k$536548[ebp+12], -1618377313 ; 9f89859fH
  00590	c7 45 e8 99 89
	b4 98		 mov	 DWORD PTR __k$536548[ebp+16], -1732998759 ; 98b48999H
  00597	c7 45 ec 88 9f
	82 99		 mov	 DWORD PTR __k$536548[ebp+20], -1719492728 ; 99829f88H
  0059e	c7 45 f0 99 8d
	85 89		 mov	 DWORD PTR __k$536548[ebp+24], -1987736167 ; 89858d99H
  005a5	8d 45 d8	 lea	 eax, DWORD PTR __k$536548[ebp]
  005a8	66 c7 45 f4 88
	00		 mov	 WORD PTR __k$536548[ebp+28], 136 ; 00000088H
  005ae	59		 pop	 ecx
$LL1698@LoadProper:
  005af	81 30 ed ec eb
	ea		 xor	 DWORD PTR [eax], -353637139 ; eaebecedH
  005b5	83 c0 04	 add	 eax, 4
  005b8	49		 dec	 ecx
  005b9	75 f4		 jne	 SHORT $LL1698@LoadProper
  005bb	80 75 f4 ed	 xor	 BYTE PTR __k$536548[ebp+28], -19 ; ffffffedH
  005bf	53		 push	 ebx
  005c0	8d 45 d8	 lea	 eax, DWORD PTR __k$536548[ebp]
  005c3	50		 push	 eax
  005c4	8b cf		 mov	 ecx, edi
  005c6	ff 15 00 00 00
	00		 call	 DWORD PTR __imp_?LoadInt@ioINILoader@@QAEHPBDH@Z
  005cc	6a 07		 push	 7
  005ce	89 86 28 0a 00
	00		 mov	 DWORD PTR [esi+2600], eax

; 84   : 
; 85   : 	rkLoader.LoadString_e( "end_call_attribute_wound_ani", "", szBuf, MAX_PATH );

  005d4	c7 45 d8 88 82
	8f b5		 mov	 DWORD PTR __k$536686[ebp], -1248886136 ; b58f8288H
  005db	c7 45 dc 8e 8d
	87 86		 mov	 DWORD PTR __k$536686[ebp+4], -2037936754 ; 86878d8eH
  005e2	c7 45 e0 b2 8d
	9f 9e		 mov	 DWORD PTR __k$536686[ebp+8], -1633710670 ; 9e9f8db2H
  005e9	c7 45 e4 9f 85
	89 9f		 mov	 DWORD PTR __k$536686[ebp+12], -1618377313 ; 9f89859fH
  005f0	c7 45 e8 99 89
	b4 9d		 mov	 DWORD PTR __k$536686[ebp+16], -1649112679 ; 9db48999H
  005f7	c7 45 ec 82 99
	85 8e		 mov	 DWORD PTR __k$536686[ebp+20], -1903847038 ; 8e859982H
  005fe	c7 45 f0 b2 8d
	85 83		 mov	 DWORD PTR __k$536686[ebp+24], -2088399438 ; 83858db2H
  00605	8d 45 d8	 lea	 eax, DWORD PTR __k$536686[ebp]
  00608	88 5d f4	 mov	 BYTE PTR __k$536686[ebp+28], bl
  0060b	59		 pop	 ecx
$LL1804@LoadProper:
  0060c	81 30 ed ec eb
	ea		 xor	 DWORD PTR [eax], -353637139 ; eaebecedH
  00612	83 c0 04	 add	 eax, 4
  00615	49		 dec	 ecx
  00616	75 f4		 jne	 SHORT $LL1804@LoadProper
  00618	68 04 01 00 00	 push	 260			; 00000104H
  0061d	8d 85 d0 fe ff
	ff		 lea	 eax, DWORD PTR _szBuf$[ebp]
  00623	50		 push	 eax
  00624	68 00 00 00 00	 push	 OFFSET ??_C@_00CNPNBAHC@?$AA@
  00629	8d 45 d8	 lea	 eax, DWORD PTR __k$536686[ebp]
  0062c	50		 push	 eax
  0062d	8b cf		 mov	 ecx, edi
  0062f	ff 15 00 00 00
	00		 call	 DWORD PTR __imp_?LoadStringA@ioINILoader@@QAEXPBD0PADH@Z

; 86   : 	m_CallWeaponInfo.m_WoundedAnimation = szBuf;		

  00635	8d 85 d0 fe ff
	ff		 lea	 eax, DWORD PTR _szBuf$[ebp]
  0063b	50		 push	 eax
  0063c	8d 8e 2c 0a 00
	00		 lea	 ecx, DWORD PTR [esi+2604]
  00642	ff 15 00 00 00
	00		 call	 DWORD PTR __imp_??4ioHashString@@QAEAAV0@PBD@Z
  00648	6a 08		 push	 8

; 87   : 
; 88   : 	m_CallWeaponInfo.m_dwWoundedDuration = rkLoader.LoadInt_e( "end_call_attribute_wound_duration", 0 );

  0064a	c7 45 d4 88 82
	8f b5		 mov	 DWORD PTR __k$536811[ebp], -1248886136 ; b58f8288H
  00651	c7 45 d8 8e 8d
	87 86		 mov	 DWORD PTR __k$536811[ebp+4], -2037936754 ; 86878d8eH
  00658	c7 45 dc b2 8d
	9f 9e		 mov	 DWORD PTR __k$536811[ebp+8], -1633710670 ; 9e9f8db2H
  0065f	c7 45 e0 9f 85
	89 9f		 mov	 DWORD PTR __k$536811[ebp+12], -1618377313 ; 9f89859fH
  00666	c7 45 e4 99 89
	b4 9d		 mov	 DWORD PTR __k$536811[ebp+16], -1649112679 ; 9db48999H
  0066d	c7 45 e8 82 99
	85 8e		 mov	 DWORD PTR __k$536811[ebp+20], -1903847038 ; 8e859982H
  00674	c7 45 ec b2 88
	9e 98		 mov	 DWORD PTR __k$536811[ebp+24], -1734440782 ; 989e88b2H
  0067b	c7 45 f0 8c 98
	82 85		 mov	 DWORD PTR __k$536811[ebp+28], -2055038836 ; 8582988cH
  00682	8d 45 d4	 lea	 eax, DWORD PTR __k$536811[ebp]
  00685	66 c7 45 f4 83
	00		 mov	 WORD PTR __k$536811[ebp+32], 131 ; 00000083H
  0068b	59		 pop	 ecx
$LL1910@LoadProper:
  0068c	81 30 ed ec eb
	ea		 xor	 DWORD PTR [eax], -353637139 ; eaebecedH
  00692	83 c0 04	 add	 eax, 4
  00695	49		 dec	 ecx
  00696	75 f4		 jne	 SHORT $LL1910@LoadProper
  00698	80 75 f4 ed	 xor	 BYTE PTR __k$536811[ebp+32], -19 ; ffffffedH
  0069c	53		 push	 ebx
  0069d	8d 45 d4	 lea	 eax, DWORD PTR __k$536811[ebp]
  006a0	50		 push	 eax
  006a1	8b cf		 mov	 ecx, edi
  006a3	ff 15 00 00 00
	00		 call	 DWORD PTR __imp_?LoadInt@ioINILoader@@QAEHPBDH@Z
  006a9	6a 08		 push	 8
  006ab	89 86 3c 0a 00
	00		 mov	 DWORD PTR [esi+2620], eax

; 89   : 	m_CallWeaponInfo.m_bWoundedLoopAni = rkLoader.LoadBool_e( "end_call_attribute_wound_loop_ani", false );

  006b1	c7 45 d4 88 82
	8f b5		 mov	 DWORD PTR __k$536952[ebp], -1248886136 ; b58f8288H
  006b8	c7 45 d8 8e 8d
	87 86		 mov	 DWORD PTR __k$536952[ebp+4], -2037936754 ; 86878d8eH
  006bf	c7 45 dc b2 8d
	9f 9e		 mov	 DWORD PTR __k$536952[ebp+8], -1633710670 ; 9e9f8db2H
  006c6	c7 45 e0 9f 85
	89 9f		 mov	 DWORD PTR __k$536952[ebp+12], -1618377313 ; 9f89859fH
  006cd	c7 45 e4 99 89
	b4 9d		 mov	 DWORD PTR __k$536952[ebp+16], -1649112679 ; 9db48999H
  006d4	c7 45 e8 82 99
	85 8e		 mov	 DWORD PTR __k$536952[ebp+20], -1903847038 ; 8e859982H
  006db	c7 45 ec b2 80
	84 85		 mov	 DWORD PTR __k$536952[ebp+24], -2054913870 ; 858480b2H
  006e2	c7 45 f0 9d b3
	8a 84		 mov	 DWORD PTR __k$536952[ebp+28], -2071284835 ; 848ab39dH
  006e9	8d 45 d4	 lea	 eax, DWORD PTR __k$536952[ebp]
  006ec	66 c7 45 f4 84
	00		 mov	 WORD PTR __k$536952[ebp+32], 132 ; 00000084H
  006f2	59		 pop	 ecx
$LL2016@LoadProper:
  006f3	81 30 ed ec eb
	ea		 xor	 DWORD PTR [eax], -353637139 ; eaebecedH
  006f9	83 c0 04	 add	 eax, 4
  006fc	49		 dec	 ecx
  006fd	75 f4		 jne	 SHORT $LL2016@LoadProper
  006ff	80 75 f4 ed	 xor	 BYTE PTR __k$536952[ebp+32], -19 ; ffffffedH
  00703	53		 push	 ebx
  00704	8d 45 d4	 lea	 eax, DWORD PTR __k$536952[ebp]
  00707	50		 push	 eax
  00708	8b cf		 mov	 ecx, edi
  0070a	ff 15 00 00 00
	00		 call	 DWORD PTR __imp_?LoadBool@ioINILoader@@QAE_NPBD_N@Z

; 90   : }

  00710	8b 4d fc	 mov	 ecx, DWORD PTR __$ArrayPad$[ebp]
  00713	5f		 pop	 edi
  00714	88 86 44 0a 00
	00		 mov	 BYTE PTR [esi+2628], al
  0071a	5e		 pop	 esi
  0071b	33 cd		 xor	 ecx, ebp
  0071d	5b		 pop	 ebx
  0071e	e8 00 00 00 00	 call	 @__security_check_cookie@4
  00723	c9		 leave
  00724	c2 04 00	 ret	 4
?LoadProperty@ioUroborusWeapon6@@UAEXAAVioINILoader@@@Z ENDP ; ioUroborusWeapon6::LoadProperty
_TEXT	ENDS
EXTRN	?GetSingleConvertTeam@ioBaseChar@@QAE?AW4TeamType@@XZ:PROC ; ioBaseChar::GetSingleConvertTeam
EXTRN	?SetTeam@ioWeapon@@UAEXPAVioPlayStage@@W4TeamType@@@Z:PROC ; ioWeapon::SetTeam
;	COMDAT xdata$x
xdata$x	SEGMENT
__unwindtable$?SetTeam@ioUroborusWeapon6@@UAEXPAVioPlayStage@@W4TeamType@@@Z DD 0ffffffffH
	DD	FLAT:__unwindfunclet$?SetTeam@ioUroborusWeapon6@@UAEXPAVioPlayStage@@W4TeamType@@@Z$0
__ehfuncinfo$?SetTeam@ioUroborusWeapon6@@UAEXPAVioPlayStage@@W4TeamType@@@Z DD 019930522H
	DD	01H
	DD	FLAT:__unwindtable$?SetTeam@ioUroborusWeapon6@@UAEXPAVioPlayStage@@W4TeamType@@@Z
	DD	2 DUP(00H)
	DD	2 DUP(00H)
	DD	00H
	DD	01H
; Function compile flags: /Ogsp
xdata$x	ENDS
;	COMDAT ?SetTeam@ioUroborusWeapon6@@UAEXPAVioPlayStage@@W4TeamType@@@Z
_TEXT	SEGMENT
_szCurWeaponEffect$ = -28				; size = 16
__$EHRec$ = -12						; size = 12
_pStage$ = 8						; size = 4
_eType$ = 12						; size = 4
?SetTeam@ioUroborusWeapon6@@UAEXPAVioPlayStage@@W4TeamType@@@Z PROC ; ioUroborusWeapon6::SetTeam, COMDAT
; _this$ = ecx

; 98   : {

  00000	6a 10		 push	 16			; 00000010H
  00002	b8 00 00 00 00	 mov	 eax, __ehhandler$?SetTeam@ioUroborusWeapon6@@UAEXPAVioPlayStage@@W4TeamType@@@Z
  00007	e8 00 00 00 00	 call	 __EH_prolog3
  0000c	8b f1		 mov	 esi, ecx

; 99   : 	if( !pStage ) return;

  0000e	83 7d 08 00	 cmp	 DWORD PTR _pStage$[ebp], 0
  00012	0f 84 8d 00 00
	00		 je	 $LN9@SetTeam

; 100  : 
; 101  : 	ioWeapon::SetTeam( pStage, eType );

  00018	ff 75 0c	 push	 DWORD PTR _eType$[ebp]
  0001b	ff 75 08	 push	 DWORD PTR _pStage$[ebp]
  0001e	e8 00 00 00 00	 call	 ?SetTeam@ioWeapon@@UAEXPAVioPlayStage@@W4TeamType@@@Z ; ioWeapon::SetTeam

; 102  : 
; 103  : 	DestroyResource();

  00023	8b 06		 mov	 eax, DWORD PTR [esi]
  00025	6a 00		 push	 0
  00027	8b ce		 mov	 ecx, esi
  00029	ff 90 9c 00 00
	00		 call	 DWORD PTR [eax+156]

; 104  : 
; 105  : 	ioHashString szCurWeaponEffect;

  0002f	8d 4d e4	 lea	 ecx, DWORD PTR _szCurWeaponEffect$[ebp]
  00032	ff 15 00 00 00
	00		 call	 DWORD PTR __imp_??0ioHashString@@QAE@XZ
  00038	83 65 fc 00	 and	 DWORD PTR __$EHRec$[ebp+8], 0

; 106  : 
; 107  : 	if( eType == TEAM_BLUE )

  0003c	83 7d 0c 02	 cmp	 DWORD PTR _eType$[ebp], 2
  00040	75 08		 jne	 SHORT $LN7@SetTeam

; 108  : 	{
; 109  : 		szCurWeaponEffect = m_BlueTeamEffect;

  00042	8d 86 08 09 00
	00		 lea	 eax, DWORD PTR [esi+2312]
  00048	eb 29		 jmp	 SHORT $LN13@SetTeam
$LN7@SetTeam:

; 110  : 	}
; 111  : 	else if( eType == TEAM_RED )

  0004a	83 7d 0c 01	 cmp	 DWORD PTR _eType$[ebp], 1

; 112  : 	{
; 113  : 		szCurWeaponEffect = m_RedTeamEffect;
; 114  : 	}
; 115  : 	else //개인전

  0004e	74 1d		 je	 SHORT $LN3@SetTeam

; 116  : 	{
; 117  : 		ioBaseChar *pOwner = GetOwner();

  00050	8b ce		 mov	 ecx, esi
  00052	e8 00 00 00 00	 call	 ?GetOwner@ioWeapon@@QBEPAVioBaseChar@@XZ ; ioWeapon::GetOwner

; 118  : 		if( pOwner && pOwner->GetSingleConvertTeam() == TEAM_BLUE )

  00057	85 c0		 test	 eax, eax
  00059	74 12		 je	 SHORT $LN3@SetTeam
  0005b	8b c8		 mov	 ecx, eax
  0005d	e8 00 00 00 00	 call	 ?GetSingleConvertTeam@ioBaseChar@@QAE?AW4TeamType@@XZ ; ioBaseChar::GetSingleConvertTeam
  00062	83 f8 02	 cmp	 eax, 2

; 119  : 		{
; 120  : 			szCurWeaponEffect = m_BlueTeamEffect;

  00065	8d 86 08 09 00
	00		 lea	 eax, DWORD PTR [esi+2312]
  0006b	74 06		 je	 SHORT $LN13@SetTeam
$LN3@SetTeam:

; 121  : 		}
; 122  : 		else
; 123  : 		{
; 124  : 			szCurWeaponEffect = m_RedTeamEffect;

  0006d	8d 86 f8 08 00
	00		 lea	 eax, DWORD PTR [esi+2296]
$LN13@SetTeam:
  00073	50		 push	 eax
  00074	8d 4d e4	 lea	 ecx, DWORD PTR _szCurWeaponEffect$[ebp]
  00077	ff 15 00 00 00
	00		 call	 DWORD PTR __imp_??4ioHashString@@QAEAAV0@ABV0@@Z

; 125  : 		}
; 126  : 	}
; 127  : 
; 128  : 	if( !SetFireMesh( szCurWeaponEffect ) )

  0007d	8d 45 e4	 lea	 eax, DWORD PTR _szCurWeaponEffect$[ebp]
  00080	50		 push	 eax
  00081	8b ce		 mov	 ecx, esi
  00083	e8 00 00 00 00	 call	 ?SetFireMesh@ioUroborusWeapon6@@IAE_NABVioHashString@@@Z ; ioUroborusWeapon6::SetFireMesh
  00088	84 c0		 test	 al, al
  0008a	75 0c		 jne	 SHORT $LN1@SetTeam

; 129  : 		DestroyResource();

  0008c	8b 06		 mov	 eax, DWORD PTR [esi]
  0008e	6a 00		 push	 0
  00090	8b ce		 mov	 ecx, esi
  00092	ff 90 9c 00 00
	00		 call	 DWORD PTR [eax+156]
$LN1@SetTeam:

; 130  : }

  00098	83 4d fc ff	 or	 DWORD PTR __$EHRec$[ebp+8], -1
  0009c	8d 4d e4	 lea	 ecx, DWORD PTR _szCurWeaponEffect$[ebp]
  0009f	ff 15 00 00 00
	00		 call	 DWORD PTR __imp_??1ioHashString@@QAE@XZ
$LN9@SetTeam:
  000a5	e8 00 00 00 00	 call	 __EH_epilog3
  000aa	c2 08 00	 ret	 8
_TEXT	ENDS
;	COMDAT text$x
text$x	SEGMENT
__unwindfunclet$?SetTeam@ioUroborusWeapon6@@UAEXPAVioPlayStage@@W4TeamType@@@Z$0:
  00000	8d 4d e4	 lea	 ecx, DWORD PTR _szCurWeaponEffect$[ebp]
  00003	ff 25 00 00 00
	00		 jmp	 DWORD PTR __imp_??1ioHashString@@QAE@XZ
__ehhandler$?SetTeam@ioUroborusWeapon6@@UAEXPAVioPlayStage@@W4TeamType@@@Z:
  00009	8b 54 24 08	 mov	 edx, DWORD PTR [esp+8]
  0000d	8d 42 0c	 lea	 eax, DWORD PTR [edx+12]
  00010	8b 4a e0	 mov	 ecx, DWORD PTR [edx-32]
  00013	33 c8		 xor	 ecx, eax
  00015	e8 00 00 00 00	 call	 @__security_check_cookie@4
  0001a	b8 00 00 00 00	 mov	 eax, OFFSET __ehfuncinfo$?SetTeam@ioUroborusWeapon6@@UAEXPAVioPlayStage@@W4TeamType@@@Z
  0001f	e9 00 00 00 00	 jmp	 ___CxxFrameHandler3
text$x	ENDS
?SetTeam@ioUroborusWeapon6@@UAEXPAVioPlayStage@@W4TeamType@@@Z ENDP ; ioUroborusWeapon6::SetTeam
PUBLIC	__real@00000000
PUBLIC	?GetMoveSpeed@ioUroborusWeapon6@@IAEMXZ		; ioUroborusWeapon6::GetMoveSpeed
;	COMDAT __real@00000000
; File d:\lost saga for developer\youtube\tutorial\source\src\lsclient\encryptvalue.h
CONST	SEGMENT
__real@00000000 DD 000000000r			; 0
; Function compile flags: /Ogsp
; File d:\lost saga for developer\youtube\tutorial\source\src\lsclient\iouroborusweapon6.cpp
CONST	ENDS
;	COMDAT ?GetMoveSpeed@ioUroborusWeapon6@@IAEMXZ
_TEXT	SEGMENT
_value$537133 = -4					; size = 4
_value$537137 = -4					; size = 4
?GetMoveSpeed@ioUroborusWeapon6@@IAEMXZ PROC		; ioUroborusWeapon6::GetMoveSpeed, COMDAT
; _this$ = ecx

; 392  : {

  00000	55		 push	 ebp
  00001	8b ec		 mov	 ebp, esp
  00003	51		 push	 ecx
  00004	53		 push	 ebx
  00005	56		 push	 esi
  00006	57		 push	 edi
  00007	8b f1		 mov	 esi, ecx

; 393  : 	DWORD dwCurTime = FRAMEGETTIME();

  00009	ff 15 00 00 00
	00		 call	 DWORD PTR __imp_?GetSingleton@ioFrameTimer@@SAAAV1@XZ
  0000f	8b c8		 mov	 ecx, eax
  00011	ff 15 00 00 00
	00		 call	 DWORD PTR __imp_?GetLoopSec@ioFrameTimer@@QBEKXZ
  00017	8b d8		 mov	 ebx, eax

; 394  : 	if( m_dwMoveDelayTime > 0 && m_dwCreatedTime+m_dwMoveDelayTime >= dwCurTime )

  00019	8d 45 fc	 lea	 eax, DWORD PTR _value$537133[ebp]
  0001c	50		 push	 eax
  0001d	8d 8e 28 07 00
	00		 lea	 ecx, DWORD PTR [esi+1832]
  00023	e8 00 00 00 00	 call	 ?DecryptValueToPool@?$CEncrypt@K@@QAEXPAK@Z ; CEncrypt<unsigned long>::DecryptValueToPool
  00028	83 7d fc 00	 cmp	 DWORD PTR _value$537133[ebp], 0
  0002c	76 20		 jbe	 SHORT $LN2@GetMoveSpe
  0002e	8d 45 fc	 lea	 eax, DWORD PTR _value$537137[ebp]
  00031	50		 push	 eax
  00032	8d 8e 28 07 00
	00		 lea	 ecx, DWORD PTR [esi+1832]
  00038	e8 00 00 00 00	 call	 ?DecryptValueToPool@?$CEncrypt@K@@QAEXPAK@Z ; CEncrypt<unsigned long>::DecryptValueToPool
  0003d	8b 86 d4 04 00
	00		 mov	 eax, DWORD PTR [esi+1236]
  00043	03 45 fc	 add	 eax, DWORD PTR _value$537137[ebp]
  00046	3b c3		 cmp	 eax, ebx
  00048	72 04		 jb	 SHORT $LN2@GetMoveSpe

; 395  : 		return 0.0f;

  0004a	d9 ee		 fldz
  0004c	eb 31		 jmp	 SHORT $LN3@GetMoveSpe
$LN2@GetMoveSpe:

; 396  : 
; 397  : 	if( m_fCurMoveSpeed == 0.0f )

  0004e	f3 0f 10 86 1c
	09 00 00	 movss	 xmm0, DWORD PTR [esi+2332]
  00056	0f 2e 05 00 00
	00 00		 ucomiss xmm0, DWORD PTR __real@00000000
  0005d	9f		 lahf
  0005e	f6 c4 44	 test	 ah, 68			; 00000044H
  00061	7a 16		 jp	 SHORT $LN1@GetMoveSpe

; 398  : 		m_fCurMoveSpeed = GetAttribute()->m_fMoveSpeed;

  00063	8b 06		 mov	 eax, DWORD PTR [esi]
  00065	8b ce		 mov	 ecx, esi
  00067	ff 90 3c 01 00
	00		 call	 DWORD PTR [eax+316]
  0006d	d9 80 98 01 00
	00		 fld	 DWORD PTR [eax+408]
  00073	d9 9e 1c 09 00
	00		 fstp	 DWORD PTR [esi+2332]
$LN1@GetMoveSpe:

; 399  : 
; 400  : 	return m_fCurMoveSpeed;// * m_fOwnerChargeSpeedRate;

  00079	d9 86 1c 09 00
	00		 fld	 DWORD PTR [esi+2332]
$LN3@GetMoveSpe:
  0007f	5f		 pop	 edi
  00080	5e		 pop	 esi
  00081	5b		 pop	 ebx

; 401  : }

  00082	c9		 leave
  00083	c3		 ret	 0
?GetMoveSpeed@ioUroborusWeapon6@@IAEMXZ ENDP		; ioUroborusWeapon6::GetMoveSpeed
_TEXT	ENDS
PUBLIC	__real@4f800000
PUBLIC	__$ArrayPad$
EXTRN	__imp_?SetNull@ioOrientBox@@QAEXXZ:PROC
EXTRN	__imp_?Transform@ioOrientBox@@QAEXABUD3DXVECTOR3@@0ABUD3DXQUATERNION@@@Z:PROC
EXTRN	__imp_?IsNull@ioOrientBox@@QBE_NXZ:PROC
EXTRN	__imp_?SetExtents@ioOrientBox@@QAEXHM@Z:PROC
EXTRN	__imp_?GetExtents@ioOrientBox@@QBEMH@Z:PROC
;	COMDAT __real@4f800000
; File c:\program files (x86)\microsoft directx sdk (june 2010)\include\d3dx9math.inl
CONST	SEGMENT
__real@4f800000 DD 04f800000r			; 4.29497e+009
; Function compile flags: /Ogsp
; File d:\lost saga for developer\youtube\tutorial\source\src\lsclient\iouroborusweapon6.cpp
CONST	ENDS
;	COMDAT ?UpdateWorldAttackBox@ioUroborusWeapon6@@MAEXM_N@Z
_TEXT	SEGMENT
tv397 = -32						; size = 4
_value$537161 = -32					; size = 4
tv417 = -28						; size = 4
tv399 = -28						; size = 4
_value$537166 = -24					; size = 4
$T537149 = -24						; size = 4
_fMapCollisionRate$ = -24				; size = 4
tv411 = -20						; size = 4
tv405 = -20						; size = 4
_value$537171 = -20					; size = 4
_value$537157 = -20					; size = 4
_vScale$530959 = -16					; size = 12
__$ArrayPad$ = -4					; size = 4
_fTimePerSec$ = 8					; size = 4
_bSetNull$ = 12						; size = 1
?UpdateWorldAttackBox@ioUroborusWeapon6@@MAEXM_N@Z PROC	; ioUroborusWeapon6::UpdateWorldAttackBox, COMDAT
; _this$ = ecx

; 409  : {

  00000	55		 push	 ebp
  00001	8b ec		 mov	 ebp, esp
  00003	83 ec 20	 sub	 esp, 32			; 00000020H
  00006	a1 00 00 00 00	 mov	 eax, DWORD PTR ___security_cookie
  0000b	33 c5		 xor	 eax, ebp
  0000d	89 45 fc	 mov	 DWORD PTR __$ArrayPad$[ebp], eax
  00010	53		 push	 ebx
  00011	8b d9		 mov	 ebx, ecx

; 410  : 	if( !IsLive() || bSetNull )

  00013	80 bb 82 05 00
	00 00		 cmp	 BYTE PTR [ebx+1410], 0
  0001a	56		 push	 esi
  0001b	57		 push	 edi
  0001c	0f 84 b7 01 00
	00		 je	 $LN4@UpdateWorl
  00022	80 7d 0c 00	 cmp	 BYTE PTR _bSetNull$[ebp], 0
  00026	0f 85 ad 01 00
	00		 jne	 $LN4@UpdateWorl

; 414  : 		return;
; 415  : 	}
; 416  : 
; 417  : 	m_WorldAttackBox = GetLocalAttackBox();

  0002c	8b 03		 mov	 eax, DWORD PTR [ebx]
  0002e	ff 90 00 01 00
	00		 call	 DWORD PTR [eax+256]
  00034	6a 11		 push	 17			; 00000011H
  00036	59		 pop	 ecx
  00037	8b f0		 mov	 esi, eax
  00039	8d bb e8 04 00
	00		 lea	 edi, DWORD PTR [ebx+1256]
  0003f	f3 a5		 rep movsd

; 418  : 	m_WorldAttackBoxForMap = m_WorldAttackBox;

  00041	6a 11		 push	 17			; 00000011H
  00043	8b f0		 mov	 esi, eax

; 419  : 
; 420  : 	float fMapCollisionRate = GetAttribute()->m_fMapCollisionBoxRate;

  00045	8b 03		 mov	 eax, DWORD PTR [ebx]
  00047	59		 pop	 ecx
  00048	8d bb 2c 05 00
	00		 lea	 edi, DWORD PTR [ebx+1324]
  0004e	f3 a5		 rep movsd
  00050	8b cb		 mov	 ecx, ebx
  00052	ff 90 3c 01 00
	00		 call	 DWORD PTR [eax+316]

; 421  : 	m_WorldAttackBoxForMap.SetExtents( 0, m_WorldAttackBox.GetExtents(0)*fMapCollisionRate );

  00058	6a 00		 push	 0
  0005a	d9 80 a8 01 00
	00		 fld	 DWORD PTR [eax+424]
  00060	8d 8b e8 04 00
	00		 lea	 ecx, DWORD PTR [ebx+1256]
  00066	d9 5d e8	 fstp	 DWORD PTR _fMapCollisionRate$[ebp]
  00069	ff 15 00 00 00
	00		 call	 DWORD PTR __imp_?GetExtents@ioOrientBox@@QBEMH@Z
  0006f	d8 4d e8	 fmul	 DWORD PTR _fMapCollisionRate$[ebp]
  00072	8b 35 00 00 00
	00		 mov	 esi, DWORD PTR __imp_?SetExtents@ioOrientBox@@QAEXHM@Z
  00078	51		 push	 ecx
  00079	8d 8b 2c 05 00
	00		 lea	 ecx, DWORD PTR [ebx+1324]
  0007f	d9 5d e4	 fstp	 DWORD PTR tv417[ebp]
  00082	d9 45 e4	 fld	 DWORD PTR tv417[ebp]
  00085	89 4d e4	 mov	 DWORD PTR tv399[ebp], ecx
  00088	d9 1c 24	 fstp	 DWORD PTR [esp]
  0008b	6a 00		 push	 0
  0008d	ff d6		 call	 esi

; 422  : 	m_WorldAttackBoxForMap.SetExtents( 1, m_WorldAttackBox.GetExtents(1)*fMapCollisionRate );

  0008f	6a 01		 push	 1
  00091	8d 8b e8 04 00
	00		 lea	 ecx, DWORD PTR [ebx+1256]
  00097	ff 15 00 00 00
	00		 call	 DWORD PTR __imp_?GetExtents@ioOrientBox@@QBEMH@Z
  0009d	d8 4d e8	 fmul	 DWORD PTR _fMapCollisionRate$[ebp]
  000a0	51		 push	 ecx
  000a1	8b 4d e4	 mov	 ecx, DWORD PTR tv399[ebp]
  000a4	d9 5d ec	 fstp	 DWORD PTR tv411[ebp]
  000a7	d9 45 ec	 fld	 DWORD PTR tv411[ebp]
  000aa	d9 1c 24	 fstp	 DWORD PTR [esp]
  000ad	6a 01		 push	 1
  000af	ff d6		 call	 esi

; 423  : 	m_WorldAttackBoxForMap.SetExtents( 2, m_WorldAttackBox.GetExtents(2)*fMapCollisionRate );

  000b1	6a 02		 push	 2
  000b3	8d 8b e8 04 00
	00		 lea	 ecx, DWORD PTR [ebx+1256]
  000b9	ff 15 00 00 00
	00		 call	 DWORD PTR __imp_?GetExtents@ioOrientBox@@QBEMH@Z
  000bf	d8 4d e8	 fmul	 DWORD PTR _fMapCollisionRate$[ebp]
  000c2	51		 push	 ecx
  000c3	8b 4d e4	 mov	 ecx, DWORD PTR tv399[ebp]
  000c6	d9 5d ec	 fstp	 DWORD PTR tv405[ebp]
  000c9	d9 45 ec	 fld	 DWORD PTR tv405[ebp]
  000cc	d9 1c 24	 fstp	 DWORD PTR [esp]
  000cf	6a 02		 push	 2
  000d1	ff d6		 call	 esi

; 424  : 
; 425  : 	if( !m_WorldAttackBox.IsNull() )

  000d3	8d 8b e8 04 00
	00		 lea	 ecx, DWORD PTR [ebx+1256]
  000d9	ff 15 00 00 00
	00		 call	 DWORD PTR __imp_?IsNull@ioOrientBox@@QBE_NXZ
  000df	84 c0		 test	 al, al
  000e1	0f 85 08 01 00
	00		 jne	 $LN1@UpdateWorl

; 426  : 	{
; 427  : 		if( m_fOwnerChargeScaleRate > FLOAT1 )

  000e7	b8 01 00 00 00	 mov	 eax, 1
  000ec	89 45 e8	 mov	 DWORD PTR $T537149[ebp], eax
  000ef	8d 45 ec	 lea	 eax, DWORD PTR _value$537157[ebp]
  000f2	50		 push	 eax
  000f3	8d 8b b0 01 00
	00		 lea	 ecx, DWORD PTR [ebx+432]
  000f9	e8 00 00 00 00	 call	 ?DecryptValueToPool@?$CEncrypt@M@@QAEXPAM@Z ; CEncrypt<float>::DecryptValueToPool
  000fe	d9 45 ec	 fld	 DWORD PTR _value$537157[ebp]
  00101	8b 45 e8	 mov	 eax, DWORD PTR $T537149[ebp]
  00104	db 45 e8	 fild	 DWORD PTR $T537149[ebp]
  00107	85 c0		 test	 eax, eax
  00109	79 06		 jns	 SHORT $LN25@UpdateWorl
  0010b	d8 05 00 00 00
	00		 fadd	 DWORD PTR __real@4f800000
$LN25@UpdateWorl:
  00111	d9 c9		 fxch	 ST(1)
  00113	df f1		 fcomip	 ST(1)
  00115	dd d8		 fstp	 ST(0)
  00117	0f 86 88 00 00
	00		 jbe	 $LN2@UpdateWorl

; 428  : 		{
; 429  : 			D3DXVECTOR3 vScale( m_fOwnerChargeScaleRate, m_fOwnerChargeScaleRate, m_fOwnerChargeScaleRate );

  0011d	8d 45 e0	 lea	 eax, DWORD PTR _value$537161[ebp]
  00120	50		 push	 eax
  00121	8d 8b b0 01 00
	00		 lea	 ecx, DWORD PTR [ebx+432]
  00127	e8 00 00 00 00	 call	 ?DecryptValueToPool@?$CEncrypt@M@@QAEXPAM@Z ; CEncrypt<float>::DecryptValueToPool
  0012c	8d 45 e8	 lea	 eax, DWORD PTR _value$537166[ebp]
  0012f	50		 push	 eax
  00130	8d 8b b0 01 00
	00		 lea	 ecx, DWORD PTR [ebx+432]
  00136	e8 00 00 00 00	 call	 ?DecryptValueToPool@?$CEncrypt@M@@QAEXPAM@Z ; CEncrypt<float>::DecryptValueToPool
  0013b	8d 45 ec	 lea	 eax, DWORD PTR _value$537171[ebp]
  0013e	50		 push	 eax
  0013f	8d 8b b0 01 00
	00		 lea	 ecx, DWORD PTR [ebx+432]
  00145	e8 00 00 00 00	 call	 ?DecryptValueToPool@?$CEncrypt@M@@QAEXPAM@Z ; CEncrypt<float>::DecryptValueToPool
  0014a	f3 0f 10 45 ec	 movss	 xmm0, DWORD PTR _value$537171[ebp]
  0014f	f3 0f 11 45 f0	 movss	 DWORD PTR _vScale$530959[ebp], xmm0
  00154	f3 0f 10 45 e8	 movss	 xmm0, DWORD PTR _value$537166[ebp]
  00159	f3 0f 11 45 f4	 movss	 DWORD PTR _vScale$530959[ebp+4], xmm0
  0015e	f3 0f 10 45 e0	 movss	 xmm0, DWORD PTR _value$537161[ebp]

; 430  : 			m_WorldAttackBox.Transform( GetPosition(), vScale, GetOrientation() );

  00163	8b cb		 mov	 ecx, ebx
  00165	f3 0f 11 45 f8	 movss	 DWORD PTR _vScale$530959[ebp+8], xmm0
  0016a	e8 00 00 00 00	 call	 ?GetOrientation@ioWeapon@@QBEABUD3DXQUATERNION@@XZ ; ioWeapon::GetOrientation
  0016f	50		 push	 eax
  00170	8d 45 f0	 lea	 eax, DWORD PTR _vScale$530959[ebp]
  00173	50		 push	 eax
  00174	8b 03		 mov	 eax, DWORD PTR [ebx]
  00176	8b cb		 mov	 ecx, ebx
  00178	ff 50 70	 call	 DWORD PTR [eax+112]
  0017b	8b 35 00 00 00
	00		 mov	 esi, DWORD PTR __imp_?Transform@ioOrientBox@@QAEXABUD3DXVECTOR3@@0ABUD3DXQUATERNION@@@Z
  00181	50		 push	 eax
  00182	8d 8b e8 04 00
	00		 lea	 ecx, DWORD PTR [ebx+1256]
  00188	ff d6		 call	 esi

; 431  : 			m_WorldAttackBoxForMap.Transform( GetPosition(), vScale, GetOrientation() );

  0018a	8b cb		 mov	 ecx, ebx
  0018c	e8 00 00 00 00	 call	 ?GetOrientation@ioWeapon@@QBEABUD3DXQUATERNION@@XZ ; ioWeapon::GetOrientation
  00191	50		 push	 eax
  00192	8d 45 f0	 lea	 eax, DWORD PTR _vScale$530959[ebp]
  00195	50		 push	 eax
$LN26@UpdateWorl:
  00196	8b 03		 mov	 eax, DWORD PTR [ebx]
  00198	8b cb		 mov	 ecx, ebx
  0019a	ff 50 70	 call	 DWORD PTR [eax+112]
  0019d	8b 4d e4	 mov	 ecx, DWORD PTR tv399[ebp]
  001a0	50		 push	 eax
  001a1	ff d6		 call	 esi

; 432  : 		}
; 433  : 		else

  001a3	eb 4a		 jmp	 SHORT $LN1@UpdateWorl
$LN2@UpdateWorl:

; 434  : 		{
; 435  : 			m_WorldAttackBox.Transform( GetPosition(), ioMath::UNIT_ALL, GetOrientation() );

  001a5	8b cb		 mov	 ecx, ebx
  001a7	e8 00 00 00 00	 call	 ?GetOrientation@ioWeapon@@QBEABUD3DXQUATERNION@@XZ ; ioWeapon::GetOrientation
  001ac	50		 push	 eax
  001ad	ff 35 00 00 00
	00		 push	 DWORD PTR __imp_?UNIT_ALL@ioMath@@2UD3DXVECTOR3@@A
  001b3	8b 03		 mov	 eax, DWORD PTR [ebx]
  001b5	8b cb		 mov	 ecx, ebx
  001b7	ff 50 70	 call	 DWORD PTR [eax+112]
  001ba	8b 35 00 00 00
	00		 mov	 esi, DWORD PTR __imp_?Transform@ioOrientBox@@QAEXABUD3DXVECTOR3@@0ABUD3DXQUATERNION@@@Z
  001c0	50		 push	 eax
  001c1	8d 8b e8 04 00
	00		 lea	 ecx, DWORD PTR [ebx+1256]
  001c7	ff d6		 call	 esi

; 436  : 			m_WorldAttackBoxForMap.Transform( GetPosition(), ioMath::UNIT_ALL, GetOrientation() );

  001c9	8b cb		 mov	 ecx, ebx
  001cb	e8 00 00 00 00	 call	 ?GetOrientation@ioWeapon@@QBEABUD3DXQUATERNION@@XZ ; ioWeapon::GetOrientation
  001d0	50		 push	 eax
  001d1	ff 35 00 00 00
	00		 push	 DWORD PTR __imp_?UNIT_ALL@ioMath@@2UD3DXVECTOR3@@A
  001d7	eb bd		 jmp	 SHORT $LN26@UpdateWorl
$LN4@UpdateWorl:

; 411  : 	{
; 412  : 		m_WorldAttackBox.SetNull();

  001d9	8b 35 00 00 00
	00		 mov	 esi, DWORD PTR __imp_?SetNull@ioOrientBox@@QAEXXZ
  001df	8d 8b e8 04 00
	00		 lea	 ecx, DWORD PTR [ebx+1256]
  001e5	ff d6		 call	 esi

; 413  : 		m_WorldAttackBoxForMap.SetNull();

  001e7	8d 8b 2c 05 00
	00		 lea	 ecx, DWORD PTR [ebx+1324]
  001ed	ff d6		 call	 esi
$LN1@UpdateWorl:

; 437  : 		}
; 438  : 	}
; 439  : }

  001ef	8b 4d fc	 mov	 ecx, DWORD PTR __$ArrayPad$[ebp]
  001f2	5f		 pop	 edi
  001f3	5e		 pop	 esi
  001f4	33 cd		 xor	 ecx, ebp
  001f6	5b		 pop	 ebx
  001f7	e8 00 00 00 00	 call	 @__security_check_cookie@4
  001fc	c9		 leave
  001fd	c2 08 00	 ret	 8
?UpdateWorldAttackBox@ioUroborusWeapon6@@MAEXM_N@Z ENDP	; ioUroborusWeapon6::UpdateWorldAttackBox
_TEXT	ENDS
EXTRN	??5SP2Packet@@QAEAAV0@AA_N@Z:PROC		; SP2Packet::operator>>
EXTRN	??5SP2Packet@@QAEAAV0@AAH@Z:PROC		; SP2Packet::operator>>
; Function compile flags: /Ogsp
;	COMDAT ?ApplyWeaponSync@ioUroborusWeapon6@@UAEXAAVSP2Packet@@PAVioPlayStage@@@Z
_TEXT	SEGMENT
_bSkillEnd$530972 = -8					; size = 1
_iState$ = -4						; size = 4
_bCheckCombo$530973 = 8					; size = 1
_rkPacket$ = 8						; size = 4
_pStage$ = 12						; size = 4
?ApplyWeaponSync@ioUroborusWeapon6@@UAEXAAVSP2Packet@@PAVioPlayStage@@@Z PROC ; ioUroborusWeapon6::ApplyWeaponSync, COMDAT
; _this$ = ecx

; 442  : {

  00000	55		 push	 ebp
  00001	8b ec		 mov	 ebp, esp
  00003	51		 push	 ecx
  00004	51		 push	 ecx
  00005	56		 push	 esi

; 443  : 	int iState;
; 444  : 	rkPacket >> iState;

  00006	8d 45 fc	 lea	 eax, DWORD PTR _iState$[ebp]
  00009	8b f1		 mov	 esi, ecx
  0000b	8b 4d 08	 mov	 ecx, DWORD PTR _rkPacket$[ebp]
  0000e	50		 push	 eax
  0000f	e8 00 00 00 00	 call	 ??5SP2Packet@@QAEAAV0@AAH@Z ; SP2Packet::operator>>

; 445  : 
; 446  : 	switch( iState )

  00014	8b 45 fc	 mov	 eax, DWORD PTR _iState$[ebp]
  00017	48		 dec	 eax
  00018	48		 dec	 eax
  00019	75 26		 jne	 SHORT $LN2@ApplyWeapo

; 447  : 	{
; 448  : 	case US_END:
; 449  : 		{
; 450  : 			bool bSkillEnd, bCheckCombo;
; 451  : 			rkPacket >> bSkillEnd >> bCheckCombo;

  0001b	8b 4d 08	 mov	 ecx, DWORD PTR _rkPacket$[ebp]
  0001e	8d 45 08	 lea	 eax, DWORD PTR _bCheckCombo$530973[ebp]
  00021	50		 push	 eax
  00022	8d 45 f8	 lea	 eax, DWORD PTR _bSkillEnd$530972[ebp]
  00025	50		 push	 eax
  00026	e8 00 00 00 00	 call	 ??5SP2Packet@@QAEAAV0@AA_N@Z ; SP2Packet::operator>>
  0002b	8b c8		 mov	 ecx, eax
  0002d	e8 00 00 00 00	 call	 ??5SP2Packet@@QAEAAV0@AA_N@Z ; SP2Packet::operator>>

; 452  : 
; 453  : 			SetEndState( bSkillEnd, bCheckCombo, false );

  00032	6a 00		 push	 0
  00034	ff 75 08	 push	 DWORD PTR _bCheckCombo$530973[ebp]
  00037	8b ce		 mov	 ecx, esi
  00039	ff 75 f8	 push	 DWORD PTR _bSkillEnd$530972[ebp]
  0003c	e8 00 00 00 00	 call	 ?SetEndState@ioUroborusWeapon6@@QAEX_N00@Z ; ioUroborusWeapon6::SetEndState
$LN2@ApplyWeapo:
  00041	5e		 pop	 esi

; 454  : 		}
; 455  : 		break;
; 456  : 	}
; 457  : }

  00042	c9		 leave
  00043	c2 08 00	 ret	 8
?ApplyWeaponSync@ioUroborusWeapon6@@UAEXAAVSP2Packet@@PAVioPlayStage@@@Z ENDP ; ioUroborusWeapon6::ApplyWeaponSync
_TEXT	ENDS
PUBLIC	__$ArrayPad$
; Function compile flags: /Ogsp
;	COMDAT ?SetOwnerChargeScaleRate@ioUroborusWeapon6@@UAEXM@Z
_TEXT	SEGMENT
_value$537212 = -28					; size = 4
tv217 = -24						; size = 4
_value$537207 = -24					; size = 4
_value$537217 = -20					; size = 4
_value$537203 = -20					; size = 4
_value$537191 = -20					; size = 4
_vScale$531000 = -16					; size = 12
__$ArrayPad$ = -4					; size = 4
_fRate$ = 8						; size = 4
?SetOwnerChargeScaleRate@ioUroborusWeapon6@@UAEXM@Z PROC ; ioUroborusWeapon6::SetOwnerChargeScaleRate, COMDAT
; _this$ = ecx

; 510  : {

  00000	55		 push	 ebp
  00001	8b ec		 mov	 ebp, esp
  00003	83 ec 1c	 sub	 esp, 28			; 0000001cH
  00006	a1 00 00 00 00	 mov	 eax, DWORD PTR ___security_cookie
  0000b	33 c5		 xor	 eax, ebp
  0000d	89 45 fc	 mov	 DWORD PTR __$ArrayPad$[ebp], eax

; 511  : 	m_fOwnerChargeScaleRate = fRate;

  00010	f3 0f 10 45 08	 movss	 xmm0, DWORD PTR _fRate$[ebp]
  00015	53		 push	 ebx
  00016	56		 push	 esi
  00017	57		 push	 edi
  00018	8b f9		 mov	 edi, ecx
  0001a	8d 45 ec	 lea	 eax, DWORD PTR _value$537191[ebp]
  0001d	50		 push	 eax
  0001e	8d 8f b0 01 00
	00		 lea	 ecx, DWORD PTR [edi+432]
  00024	f3 0f 11 45 ec	 movss	 DWORD PTR _value$537191[ebp], xmm0
  00029	e8 00 00 00 00	 call	 ?EncryptValueToPool@?$CEncrypt@M@@AAEXPBD@Z ; CEncrypt<float>::EncryptValueToPool

; 512  : 
; 513  : 	if( m_fOwnerChargeScaleRate > FLOAT1 )

  0002e	b8 01 00 00 00	 mov	 eax, 1
  00033	8b d8		 mov	 ebx, eax
  00035	8d 45 ec	 lea	 eax, DWORD PTR _value$537203[ebp]
  00038	50		 push	 eax
  00039	8d 8f b0 01 00
	00		 lea	 ecx, DWORD PTR [edi+432]
  0003f	e8 00 00 00 00	 call	 ?DecryptValueToPool@?$CEncrypt@M@@QAEXPAM@Z ; CEncrypt<float>::DecryptValueToPool
  00044	d9 45 ec	 fld	 DWORD PTR _value$537203[ebp]
  00047	89 5d e8	 mov	 DWORD PTR tv217[ebp], ebx
  0004a	db 45 e8	 fild	 DWORD PTR tv217[ebp]
  0004d	85 db		 test	 ebx, ebx
  0004f	79 06		 jns	 SHORT $LN23@SetOwnerCh
  00051	d8 05 00 00 00
	00		 fadd	 DWORD PTR __real@4f800000
$LN23@SetOwnerCh:
  00057	d9 c9		 fxch	 ST(1)
  00059	df f1		 fcomip	 ST(1)
  0005b	dd d8		 fstp	 ST(0)
  0005d	76 57		 jbe	 SHORT $LN1@SetOwnerCh

; 514  : 	{
; 515  : 		D3DXVECTOR3 vScale( m_fOwnerChargeScaleRate, m_fOwnerChargeScaleRate, m_fOwnerChargeScaleRate );

  0005f	8d 45 e8	 lea	 eax, DWORD PTR _value$537207[ebp]
  00062	50		 push	 eax
  00063	8d 8f b0 01 00
	00		 lea	 ecx, DWORD PTR [edi+432]
  00069	e8 00 00 00 00	 call	 ?DecryptValueToPool@?$CEncrypt@M@@QAEXPAM@Z ; CEncrypt<float>::DecryptValueToPool
  0006e	8d 45 e4	 lea	 eax, DWORD PTR _value$537212[ebp]
  00071	50		 push	 eax
  00072	8d 8f b0 01 00
	00		 lea	 ecx, DWORD PTR [edi+432]
  00078	e8 00 00 00 00	 call	 ?DecryptValueToPool@?$CEncrypt@M@@QAEXPAM@Z ; CEncrypt<float>::DecryptValueToPool
  0007d	8d 45 ec	 lea	 eax, DWORD PTR _value$537217[ebp]
  00080	50		 push	 eax
  00081	8d 8f b0 01 00
	00		 lea	 ecx, DWORD PTR [edi+432]
  00087	e8 00 00 00 00	 call	 ?DecryptValueToPool@?$CEncrypt@M@@QAEXPAM@Z ; CEncrypt<float>::DecryptValueToPool
  0008c	f3 0f 10 45 ec	 movss	 xmm0, DWORD PTR _value$537217[ebp]

; 516  : 		GetParentSceneNode()->SetScale( vScale );

  00091	8b 4f 04	 mov	 ecx, DWORD PTR [edi+4]
  00094	f3 0f 11 45 f0	 movss	 DWORD PTR _vScale$531000[ebp], xmm0
  00099	f3 0f 10 45 e4	 movss	 xmm0, DWORD PTR _value$537212[ebp]
  0009e	f3 0f 11 45 f4	 movss	 DWORD PTR _vScale$531000[ebp+4], xmm0
  000a3	f3 0f 10 45 e8	 movss	 xmm0, DWORD PTR _value$537207[ebp]
  000a8	8d 55 f0	 lea	 edx, DWORD PTR _vScale$531000[ebp]
  000ab	f3 0f 11 45 f8	 movss	 DWORD PTR _vScale$531000[ebp+8], xmm0
  000b0	8b 01		 mov	 eax, DWORD PTR [ecx]
  000b2	52		 push	 edx
  000b3	ff 50 20	 call	 DWORD PTR [eax+32]
$LN1@SetOwnerCh:

; 517  : 	}
; 518  : }

  000b6	8b 4d fc	 mov	 ecx, DWORD PTR __$ArrayPad$[ebp]
  000b9	5f		 pop	 edi
  000ba	5e		 pop	 esi
  000bb	33 cd		 xor	 ecx, ebp
  000bd	5b		 pop	 ebx
  000be	e8 00 00 00 00	 call	 @__security_check_cookie@4
  000c3	c9		 leave
  000c4	c2 04 00	 ret	 4
?SetOwnerChargeScaleRate@ioUroborusWeapon6@@UAEXM@Z ENDP ; ioUroborusWeapon6::SetOwnerChargeScaleRate
_TEXT	ENDS
PUBLIC	__$ArrayPad$
PUBLIC	?OnFloating@ioUroborusWeapon6@@IAEXMPAVioPlayStage@@@Z ; ioUroborusWeapon6::OnFloating
; Function compile flags: /Ogsp
;	COMDAT ?OnFloating@ioUroborusWeapon6@@IAEXMPAVioPlayStage@@@Z
_TEXT	SEGMENT
_fMaxRange$ = -20					; size = 4
_fMoveDist$ = -20					; size = 4
_vNewPos$ = -16						; size = 12
__$ArrayPad$ = -4					; size = 4
_fTimePerSec$ = 8					; size = 4
_pStage$ = 12						; size = 4
?OnFloating@ioUroborusWeapon6@@IAEXMPAVioPlayStage@@@Z PROC ; ioUroborusWeapon6::OnFloating, COMDAT
; _this$ = ecx

; 269  : {

  00000	55		 push	 ebp
  00001	8b ec		 mov	 ebp, esp
  00003	83 ec 14	 sub	 esp, 20			; 00000014H
  00006	a1 00 00 00 00	 mov	 eax, DWORD PTR ___security_cookie
  0000b	33 c5		 xor	 eax, ebp
  0000d	89 45 fc	 mov	 DWORD PTR __$ArrayPad$[ebp], eax
  00010	53		 push	 ebx
  00011	8b d9		 mov	 ebx, ecx

; 270  : 	if( !CheckOwnerState() )

  00013	e8 00 00 00 00	 call	 ?GetOwner@ioWeapon@@QBEPAVioBaseChar@@XZ ; ioWeapon::GetOwner

; 271  : 	{
; 272  : 		SetEndState( false, false, false );

  00018	8b cb		 mov	 ecx, ebx
  0001a	85 c0		 test	 eax, eax
  0001c	75 0d		 jne	 SHORT $LN3@OnFloating
  0001e	50		 push	 eax
  0001f	50		 push	 eax
  00020	50		 push	 eax
  00021	e8 00 00 00 00	 call	 ?SetEndState@ioUroborusWeapon6@@QAEX_N00@Z ; ioUroborusWeapon6::SetEndState

; 273  : 		return;

  00026	e9 1d 01 00 00	 jmp	 $LN17@OnFloating
$LN3@OnFloating:
  0002b	56		 push	 esi
  0002c	57		 push	 edi

; 274  : 	}
; 275  : 
; 276  : 	ioBaseChar *pOwner = GetOwner();

  0002d	e8 00 00 00 00	 call	 ?GetOwner@ioWeapon@@QBEPAVioBaseChar@@XZ ; ioWeapon::GetOwner

; 277  : 	float fCurSpeed = GetMoveSpeed();

  00032	8b cb		 mov	 ecx, ebx
  00034	e8 00 00 00 00	 call	 ?GetMoveSpeed@ioUroborusWeapon6@@IAEMXZ ; ioUroborusWeapon6::GetMoveSpeed

; 278  : 	float fMoveDist = fCurSpeed * fTimePerSec;

  00039	d8 4d 08	 fmul	 DWORD PTR _fTimePerSec$[ebp]

; 279  : 
; 280  : 	m_vPrePos = GetPosition();

  0003c	8b 03		 mov	 eax, DWORD PTR [ebx]
  0003e	8b cb		 mov	 ecx, ebx
  00040	d9 5d ec	 fstp	 DWORD PTR _fMoveDist$[ebp]
  00043	ff 50 70	 call	 DWORD PTR [eax+112]

; 281  : 
; 282  : 	//////////////////////////////////////////////////////////////////////////
; 283  : 	D3DXVECTOR3 vNewPos = m_vPrePos + (m_vMoveDir * fMoveDist);

  00046	f3 0f 10 4d ec	 movss	 xmm1, DWORD PTR _fMoveDist$[ebp]

; 284  : 	m_fCurMoveRange += fMoveDist;

  0004b	d9 83 20 09 00
	00		 fld	 DWORD PTR [ebx+2336]
  00051	f3 0f 10 55 ec	 movss	 xmm2, DWORD PTR _fMoveDist$[ebp]
  00056	d8 45 ec	 fadd	 DWORD PTR _fMoveDist$[ebp]
  00059	f3 0f 10 5d ec	 movss	 xmm3, DWORD PTR _fMoveDist$[ebp]
  0005e	8b f0		 mov	 esi, eax
  00060	8d bb ec 08 00
	00		 lea	 edi, DWORD PTR [ebx+2284]
  00066	a5		 movsd
  00067	a5		 movsd
  00068	a5		 movsd
  00069	f3 0f 10 83 e0
	08 00 00	 movss	 xmm0, DWORD PTR [ebx+2272]
  00071	0f 5a c0	 cvtps2pd xmm0, xmm0
  00074	0f 5a c9	 cvtps2pd xmm1, xmm1
  00077	f2 0f 59 c1	 mulsd	 xmm0, xmm1
  0007b	f3 0f 10 8b e4
	08 00 00	 movss	 xmm1, DWORD PTR [ebx+2276]
  00083	66 0f 5a c0	 cvtpd2ps xmm0, xmm0
  00087	0f 5a c9	 cvtps2pd xmm1, xmm1
  0008a	0f 5a d2	 cvtps2pd xmm2, xmm2
  0008d	f2 0f 59 ca	 mulsd	 xmm1, xmm2
  00091	f3 0f 10 93 e8
	08 00 00	 movss	 xmm2, DWORD PTR [ebx+2280]
  00099	f3 0f 5a c0	 cvtss2sd xmm0, xmm0
  0009d	0f 5a db	 cvtps2pd xmm3, xmm3
  000a0	0f 5a d2	 cvtps2pd xmm2, xmm2
  000a3	f2 0f 59 d3	 mulsd	 xmm2, xmm3
  000a7	f3 0f 10 9b ec
	08 00 00	 movss	 xmm3, DWORD PTR [ebx+2284]
  000af	0f 5a db	 cvtps2pd xmm3, xmm3
  000b2	f2 0f 58 d8	 addsd	 xmm3, xmm0
  000b6	0f 57 c0	 xorps	 xmm0, xmm0
  000b9	66 0f 5a c3	 cvtpd2ps xmm0, xmm3
  000bd	f3 0f 11 45 f0	 movss	 DWORD PTR _vNewPos$[ebp], xmm0
  000c2	f3 0f 10 83 f0
	08 00 00	 movss	 xmm0, DWORD PTR [ebx+2288]
  000ca	0f 5a c0	 cvtps2pd xmm0, xmm0
  000cd	66 0f 5a c9	 cvtpd2ps xmm1, xmm1
  000d1	f3 0f 5a c9	 cvtss2sd xmm1, xmm1
  000d5	f2 0f 58 c1	 addsd	 xmm0, xmm1
  000d9	66 0f 5a c0	 cvtpd2ps xmm0, xmm0
  000dd	f3 0f 11 45 f4	 movss	 DWORD PTR _vNewPos$[ebp+4], xmm0
  000e2	f3 0f 10 83 f4
	08 00 00	 movss	 xmm0, DWORD PTR [ebx+2292]
  000ea	d9 9b 20 09 00
	00		 fstp	 DWORD PTR [ebx+2336]
  000f0	66 0f 5a d2	 cvtpd2ps xmm2, xmm2
  000f4	0f 5a c0	 cvtps2pd xmm0, xmm0
  000f7	0f 57 c9	 xorps	 xmm1, xmm1
  000fa	f3 0f 5a ca	 cvtss2sd xmm1, xmm2
  000fe	f2 0f 58 c1	 addsd	 xmm0, xmm1
  00102	66 0f 5a c0	 cvtpd2ps xmm0, xmm0

; 285  : 
; 286  : 	float fMaxRange = GetMaxRange();// + m_fGrowthMoveRange;

  00106	8b cb		 mov	 ecx, ebx
  00108	f3 0f 11 45 f8	 movss	 DWORD PTR _vNewPos$[ebp+8], xmm0
  0010d	e8 00 00 00 00	 call	 ?GetMaxRange@ioUroborusWeapon6@@QAEMXZ ; ioUroborusWeapon6::GetMaxRange
  00112	d9 5d ec	 fstp	 DWORD PTR _fMaxRange$[ebp]

; 287  : 	if( m_fCurMoveRange < fMaxRange )

  00115	d9 83 20 09 00
	00		 fld	 DWORD PTR [ebx+2336]
  0011b	5f		 pop	 edi
  0011c	d9 45 ec	 fld	 DWORD PTR _fMaxRange$[ebp]
  0011f	5e		 pop	 esi
  00120	df f1		 fcomip	 ST(1)
  00122	dd d8		 fstp	 ST(0)
  00124	76 0d		 jbe	 SHORT $LN2@OnFloating

; 288  : 	{
; 289  : 		SetPosition( vNewPos );

  00126	8d 45 f0	 lea	 eax, DWORD PTR _vNewPos$[ebp]
  00129	50		 push	 eax
  0012a	8b cb		 mov	 ecx, ebx
  0012c	e8 00 00 00 00	 call	 ?SetPosition@ioWeapon@@QAEXABUD3DXVECTOR3@@@Z ; ioWeapon::SetPosition

; 290  : 	}
; 291  : 	else

  00131	eb 15		 jmp	 SHORT $LN17@OnFloating
$LN2@OnFloating:

; 292  : 	{
; 293  : 		SetReturnMove();

  00133	0f 57 c0	 xorps	 xmm0, xmm0
  00136	f3 0f 11 83 20
	09 00 00	 movss	 DWORD PTR [ebx+2336], xmm0
  0013e	c7 83 94 08 00
	00 01 00 00 00	 mov	 DWORD PTR [ebx+2196], 1
$LN17@OnFloating:

; 294  : 		/*if( pOwner && pOwner->IsNeedProcess() )
; 295  : 		{
; 296  : 			SetEndState( false, false, true );
; 297  : 		}*/
; 298  : 	}
; 299  : 
; 300  : 	//ProcessGuidArrow();
; 301  : }

  00148	8b 4d fc	 mov	 ecx, DWORD PTR __$ArrayPad$[ebp]
  0014b	33 cd		 xor	 ecx, ebp
  0014d	5b		 pop	 ebx
  0014e	e8 00 00 00 00	 call	 @__security_check_cookie@4
  00153	c9		 leave
  00154	c2 08 00	 ret	 8
?OnFloating@ioUroborusWeapon6@@IAEXMPAVioPlayStage@@@Z ENDP ; ioUroborusWeapon6::OnFloating
_TEXT	ENDS
PUBLIC	__$ArrayPad$
PUBLIC	?OnReturnMove@ioUroborusWeapon6@@IAEXMPAVioPlayStage@@@Z ; ioUroborusWeapon6::OnReturnMove
EXTRN	?GetMidPositionByRate@ioGameEntity@@QBE?AUD3DXVECTOR3@@M@Z:PROC ; ioGameEntity::GetMidPositionByRate
; Function compile flags: /Ogsp
;	COMDAT ?OnReturnMove@ioUroborusWeapon6@@IAEXMPAVioPlayStage@@@Z
_TEXT	SEGMENT
_vPos$ = -56						; size = 12
tv735 = -44						; size = 4
tv731 = -44						; size = 4
tv727 = -44						; size = 4
_fMoveDist$ = -44					; size = 4
_vNewPos$ = -40						; size = 12
_vOwnerPos$ = -28					; size = 12
_vCurDir$ = -16						; size = 12
__$ArrayPad$ = -4					; size = 4
_fTimePerSec$ = 8					; size = 4
_pStage$ = 12						; size = 4
?OnReturnMove@ioUroborusWeapon6@@IAEXMPAVioPlayStage@@@Z PROC ; ioUroborusWeapon6::OnReturnMove, COMDAT
; _this$ = ecx

; 313  : {

  00000	55		 push	 ebp
  00001	8b ec		 mov	 ebp, esp
  00003	83 ec 38	 sub	 esp, 56			; 00000038H
  00006	a1 00 00 00 00	 mov	 eax, DWORD PTR ___security_cookie
  0000b	33 c5		 xor	 eax, ebp
  0000d	89 45 fc	 mov	 DWORD PTR __$ArrayPad$[ebp], eax
  00010	53		 push	 ebx
  00011	8b d9		 mov	 ebx, ecx

; 314  : 	if( !CheckOwnerState() )

  00013	e8 00 00 00 00	 call	 ?GetOwner@ioWeapon@@QBEPAVioBaseChar@@XZ ; ioWeapon::GetOwner
  00018	85 c0		 test	 eax, eax
  0001a	75 0f		 jne	 SHORT $LN5@OnReturnMo

; 315  : 	{
; 316  : 		SetEndState( false, false, false );

  0001c	50		 push	 eax
  0001d	50		 push	 eax
  0001e	50		 push	 eax
$LN40@OnReturnMo:
  0001f	8b cb		 mov	 ecx, ebx
  00021	e8 00 00 00 00	 call	 ?SetEndState@ioUroborusWeapon6@@QAEX_N00@Z ; ioUroborusWeapon6::SetEndState

; 317  : 		return;

  00026	e9 81 02 00 00	 jmp	 $LN1@OnReturnMo
$LN5@OnReturnMo:

; 318  : 	}
; 319  : 
; 320  : 	DWORD dwCurTime = FRAMEGETTIME();

  0002b	ff 15 00 00 00
	00		 call	 DWORD PTR __imp_?GetSingleton@ioFrameTimer@@SAAAV1@XZ
  00031	8b c8		 mov	 ecx, eax
  00033	ff 15 00 00 00
	00		 call	 DWORD PTR __imp_?GetLoopSec@ioFrameTimer@@QBEKXZ

; 321  : 
; 322  : 	ioBaseChar* pOwner = GetOwner();

  00039	8b cb		 mov	 ecx, ebx
  0003b	e8 00 00 00 00	 call	 ?GetOwner@ioWeapon@@QBEPAVioBaseChar@@XZ ; ioWeapon::GetOwner
  00040	8b c8		 mov	 ecx, eax

; 323  : 	if( !pOwner )

  00042	85 c9		 test	 ecx, ecx
  00044	75 06		 jne	 SHORT $LN4@OnReturnMo

; 324  : 	{
; 325  : 		SetEndState( false, true, false );

  00046	50		 push	 eax
  00047	6a 01		 push	 1
  00049	50		 push	 eax

; 326  : 		return;

  0004a	eb d3		 jmp	 SHORT $LN40@OnReturnMo
$LN4@OnReturnMo:
  0004c	56		 push	 esi
  0004d	57		 push	 edi

; 327  : 	}
; 328  : 
; 329  : 	D3DXVECTOR3 vOwnerPos= pOwner->GetMidPositionByRate();

  0004e	b8 05 00 00 00	 mov	 eax, 5
  00053	8b d0		 mov	 edx, eax
  00055	b8 0a 00 00 00	 mov	 eax, 10			; 0000000aH
  0005a	89 55 d4	 mov	 DWORD PTR tv735[ebp], edx
  0005d	db 45 d4	 fild	 DWORD PTR tv735[ebp]
  00060	85 d2		 test	 edx, edx
  00062	79 06		 jns	 SHORT $LN38@OnReturnMo
  00064	d8 05 00 00 00
	00		 fadd	 DWORD PTR __real@4f800000
$LN38@OnReturnMo:
  0006a	89 45 d4	 mov	 DWORD PTR tv731[ebp], eax
  0006d	db 45 d4	 fild	 DWORD PTR tv731[ebp]
  00070	85 c0		 test	 eax, eax
  00072	79 06		 jns	 SHORT $LN39@OnReturnMo
  00074	d8 05 00 00 00
	00		 fadd	 DWORD PTR __real@4f800000
$LN39@OnReturnMo:
  0007a	de f9		 fdivp	 ST(1), ST(0)
  0007c	51		 push	 ecx
  0007d	8d 45 e4	 lea	 eax, DWORD PTR _vOwnerPos$[ebp]
  00080	d9 5d d4	 fstp	 DWORD PTR tv727[ebp]
  00083	d9 45 d4	 fld	 DWORD PTR tv727[ebp]
  00086	d9 1c 24	 fstp	 DWORD PTR [esp]
  00089	50		 push	 eax
  0008a	e8 00 00 00 00	 call	 ?GetMidPositionByRate@ioGameEntity@@QBE?AUD3DXVECTOR3@@M@Z ; ioGameEntity::GetMidPositionByRate

; 330  : 	D3DXVECTOR3 vCurDir = vOwnerPos - GetPosition();

  0008f	8b 03		 mov	 eax, DWORD PTR [ebx]
  00091	8b cb		 mov	 ecx, ebx
  00093	ff 50 70	 call	 DWORD PTR [eax+112]
  00096	f3 0f 10 48 04	 movss	 xmm1, DWORD PTR [eax+4]
  0009b	f3 0f 10 50 08	 movss	 xmm2, DWORD PTR [eax+8]
  000a0	f3 0f 10 45 e8	 movss	 xmm0, DWORD PTR _vOwnerPos$[ebp+4]
  000a5	f3 0f 10 18	 movss	 xmm3, DWORD PTR [eax]
  000a9	0f 5a c9	 cvtps2pd xmm1, xmm1
  000ac	0f 5a c0	 cvtps2pd xmm0, xmm0
  000af	f2 0f 5c c1	 subsd	 xmm0, xmm1
  000b3	f3 0f 10 4d ec	 movss	 xmm1, DWORD PTR _vOwnerPos$[ebp+8]
  000b8	0f 5a d2	 cvtps2pd xmm2, xmm2
  000bb	0f 5a c9	 cvtps2pd xmm1, xmm1
  000be	f2 0f 5c ca	 subsd	 xmm1, xmm2
  000c2	f3 0f 10 55 e4	 movss	 xmm2, DWORD PTR _vOwnerPos$[ebp]

; 331  : 	D3DXVec3Normalize( &vCurDir, &vCurDir );

  000c7	8d 45 f0	 lea	 eax, DWORD PTR _vCurDir$[ebp]
  000ca	0f 5a d2	 cvtps2pd xmm2, xmm2
  000cd	0f 5a db	 cvtps2pd xmm3, xmm3
  000d0	50		 push	 eax
  000d1	f2 0f 5c d3	 subsd	 xmm2, xmm3
  000d5	66 0f 5a c0	 cvtpd2ps xmm0, xmm0
  000d9	66 0f 5a c9	 cvtpd2ps xmm1, xmm1
  000dd	66 0f 5a d2	 cvtpd2ps xmm2, xmm2
  000e1	50		 push	 eax
  000e2	f3 0f 11 55 f0	 movss	 DWORD PTR _vCurDir$[ebp], xmm2
  000e7	f3 0f 11 45 f4	 movss	 DWORD PTR _vCurDir$[ebp+4], xmm0
  000ec	f3 0f 11 4d f8	 movss	 DWORD PTR _vCurDir$[ebp+8], xmm1
  000f1	e8 00 00 00 00	 call	 _D3DXVec3Normalize@8

; 332  : 
; 333  : 	m_vMoveDir = vCurDir;

  000f6	8d bb e0 08 00
	00		 lea	 edi, DWORD PTR [ebx+2272]
  000fc	8d 75 f0	 lea	 esi, DWORD PTR _vCurDir$[ebp]
  000ff	a5		 movsd
  00100	a5		 movsd

; 334  : 
; 335  : 	float fCurSpeed = GetMoveSpeed();

  00101	8b cb		 mov	 ecx, ebx
  00103	a5		 movsd
  00104	e8 00 00 00 00	 call	 ?GetMoveSpeed@ioUroborusWeapon6@@IAEMXZ ; ioUroborusWeapon6::GetMoveSpeed

; 336  : 	float fMoveDist = fCurSpeed * fTimePerSec;
; 337  : 
; 338  : 	//float fMoveDist = m_fTargetMoveSpeed * fTimePerSec;
; 339  : 
; 340  : 	m_vPrePos = GetPosition();

  00109	8b 03		 mov	 eax, DWORD PTR [ebx]
  0010b	d8 4d 08	 fmul	 DWORD PTR _fTimePerSec$[ebp]
  0010e	8b cb		 mov	 ecx, ebx
  00110	d9 5d d4	 fstp	 DWORD PTR _fMoveDist$[ebp]
  00113	ff 50 70	 call	 DWORD PTR [eax+112]

; 341  : 	D3DXVECTOR3 vNewPos = m_vPrePos + (vCurDir * fMoveDist);

  00116	f3 0f 10 45 f0	 movss	 xmm0, DWORD PTR _vCurDir$[ebp]
  0011b	0f 5a c8	 cvtps2pd xmm1, xmm0
  0011e	f3 0f 10 45 d4	 movss	 xmm0, DWORD PTR _fMoveDist$[ebp]
  00123	8b f0		 mov	 esi, eax
  00125	8d bb ec 08 00
	00		 lea	 edi, DWORD PTR [ebx+2284]
  0012b	a5		 movsd
  0012c	0f 5a d0	 cvtps2pd xmm2, xmm0
  0012f	f2 0f 59 ca	 mulsd	 xmm1, xmm2
  00133	f3 0f 10 55 f4	 movss	 xmm2, DWORD PTR _vCurDir$[ebp+4]
  00138	a5		 movsd
  00139	0f 5a d8	 cvtps2pd xmm3, xmm0
  0013c	0f 5a d2	 cvtps2pd xmm2, xmm2
  0013f	f2 0f 59 d3	 mulsd	 xmm2, xmm3
  00143	f3 0f 10 5d f8	 movss	 xmm3, DWORD PTR _vCurDir$[ebp+8]
  00148	66 0f 5a c9	 cvtpd2ps xmm1, xmm1
  0014c	0f 5a e0	 cvtps2pd xmm4, xmm0
  0014f	f3 0f 5a c9	 cvtss2sd xmm1, xmm1
  00153	a5		 movsd
  00154	0f 5a db	 cvtps2pd xmm3, xmm3
  00157	f2 0f 59 dc	 mulsd	 xmm3, xmm4
  0015b	f3 0f 10 a3 ec
	08 00 00	 movss	 xmm4, DWORD PTR [ebx+2284]
  00163	0f 5a e4	 cvtps2pd xmm4, xmm4
  00166	f2 0f 58 e1	 addsd	 xmm4, xmm1
  0016a	0f 57 c9	 xorps	 xmm1, xmm1
  0016d	66 0f 5a cc	 cvtpd2ps xmm1, xmm4
  00171	f3 0f 11 4d d8	 movss	 DWORD PTR _vNewPos$[ebp], xmm1
  00176	f3 0f 10 8b f0
	08 00 00	 movss	 xmm1, DWORD PTR [ebx+2288]
  0017e	66 0f 5a d2	 cvtpd2ps xmm2, xmm2
  00182	0f 5a c9	 cvtps2pd xmm1, xmm1
  00185	f3 0f 5a d2	 cvtss2sd xmm2, xmm2
  00189	f2 0f 58 ca	 addsd	 xmm1, xmm2
  0018d	66 0f 5a db	 cvtpd2ps xmm3, xmm3
  00191	66 0f 5a c9	 cvtpd2ps xmm1, xmm1
  00195	f3 0f 11 4d dc	 movss	 DWORD PTR _vNewPos$[ebp+4], xmm1
  0019a	f3 0f 10 8b f4
	08 00 00	 movss	 xmm1, DWORD PTR [ebx+2292]
  001a2	0f 5a c9	 cvtps2pd xmm1, xmm1
  001a5	0f 57 d2	 xorps	 xmm2, xmm2
  001a8	f3 0f 5a d3	 cvtss2sd xmm2, xmm3
  001ac	f2 0f 58 ca	 addsd	 xmm1, xmm2
  001b0	66 0f 5a c9	 cvtpd2ps xmm1, xmm1
  001b4	f3 0f 11 4d e0	 movss	 DWORD PTR _vNewPos$[ebp+8], xmm1

; 342  : 	m_fCurMoveRange += fMoveDist;

  001b9	f3 0f 10 8b 20
	09 00 00	 movss	 xmm1, DWORD PTR [ebx+2336]
  001c1	0f 5a c0	 cvtps2pd xmm0, xmm0
  001c4	0f 5a c9	 cvtps2pd xmm1, xmm1
  001c7	f2 0f 58 c8	 addsd	 xmm1, xmm0
  001cb	0f 57 c0	 xorps	 xmm0, xmm0
  001ce	66 0f 5a c1	 cvtpd2ps xmm0, xmm1

; 343  : 
; 344  : 	float fMaxRange =	m_fReturnMaxLength;//GetMaxRange() + m_fGrowthMoveRange;
; 345  : 	if( m_fCurMoveRange < fMaxRange )

  001d2	f3 0f 10 8b 08
	0a 00 00	 movss	 xmm1, DWORD PTR [ebx+2568]
  001da	f3 0f 11 83 20
	09 00 00	 movss	 DWORD PTR [ebx+2336], xmm0
  001e2	0f 5a c0	 cvtps2pd xmm0, xmm0
  001e5	0f 5a c9	 cvtps2pd xmm1, xmm1
  001e8	66 0f 2f c8	 comisd	 xmm1, xmm0

; 346  : 	{
; 347  : 		SetPosition( vNewPos );

  001ec	8b cb		 mov	 ecx, ebx
  001ee	0f 86 ab 00 00
	00		 jbe	 $LN3@OnReturnMo
  001f4	8d 45 d8	 lea	 eax, DWORD PTR _vNewPos$[ebp]
  001f7	50		 push	 eax
  001f8	e8 00 00 00 00	 call	 ?SetPosition@ioWeapon@@QAEXABUD3DXVECTOR3@@@Z ; ioWeapon::SetPosition

; 352  : 		return;
; 353  : 	}
; 354  : 
; 355  : 	D3DXVECTOR3 vPos      = GetPosition();

  001fd	8b 03		 mov	 eax, DWORD PTR [ebx]
  001ff	8b cb		 mov	 ecx, ebx
  00201	ff 50 70	 call	 DWORD PTR [eax+112]

; 356  : 	vPos = vOwnerPos - vPos;

  00204	f3 0f 10 45 e4	 movss	 xmm0, DWORD PTR _vOwnerPos$[ebp]
  00209	8b f0		 mov	 esi, eax
  0020b	8d 7d c8	 lea	 edi, DWORD PTR _vPos$[ebp]
  0020e	a5		 movsd
  0020f	0f 5a c0	 cvtps2pd xmm0, xmm0
  00212	a5		 movsd
  00213	a5		 movsd
  00214	f3 0f 10 4d c8	 movss	 xmm1, DWORD PTR _vPos$[ebp]
  00219	f3 0f 10 55 cc	 movss	 xmm2, DWORD PTR _vPos$[ebp+4]
  0021e	f3 0f 10 5d d0	 movss	 xmm3, DWORD PTR _vPos$[ebp+8]
  00223	0f 5a c9	 cvtps2pd xmm1, xmm1
  00226	f2 0f 5c c1	 subsd	 xmm0, xmm1
  0022a	0f 57 c9	 xorps	 xmm1, xmm1
  0022d	66 0f 5a c8	 cvtpd2ps xmm1, xmm0
  00231	f3 0f 10 45 e8	 movss	 xmm0, DWORD PTR _vOwnerPos$[ebp+4]
  00236	0f 5a c0	 cvtps2pd xmm0, xmm0
  00239	0f 5a d2	 cvtps2pd xmm2, xmm2
  0023c	f2 0f 5c c2	 subsd	 xmm0, xmm2
  00240	f3 0f 10 55 ec	 movss	 xmm2, DWORD PTR _vOwnerPos$[ebp+8]
  00245	66 0f 5a c0	 cvtpd2ps xmm0, xmm0
  00249	f3 0f 5a c0	 cvtss2sd xmm0, xmm0
  0024d	0f 5a d2	 cvtps2pd xmm2, xmm2

; 357  : 	float fLength = D3DXVec3Length(&vPos);

  00250	f2 0f 59 c0	 mulsd	 xmm0, xmm0
  00254	0f 5a c9	 cvtps2pd xmm1, xmm1
  00257	0f 5a db	 cvtps2pd xmm3, xmm3
  0025a	f2 0f 5c d3	 subsd	 xmm2, xmm3
  0025e	f2 0f 59 c9	 mulsd	 xmm1, xmm1
  00262	f2 0f 58 c8	 addsd	 xmm1, xmm0
  00266	66 0f 5a d2	 cvtpd2ps xmm2, xmm2

; 358  : 	if( fLength <= m_fMinCheckLength )

  0026a	0f 57 c0	 xorps	 xmm0, xmm0
  0026d	f3 0f 5a d2	 cvtss2sd xmm2, xmm2
  00271	f2 0f 59 d2	 mulsd	 xmm2, xmm2
  00275	f2 0f 58 ca	 addsd	 xmm1, xmm2
  00279	66 0f 5a c1	 cvtpd2ps xmm0, xmm1
  0027d	f3 0f 10 8b d4
	09 00 00	 movss	 xmm1, DWORD PTR [ebx+2516]
  00285	0f 5a c0	 cvtps2pd xmm0, xmm0
  00288	f2 0f 51 c0	 sqrtsd	 xmm0, xmm0
  0028c	66 0f 5a c0	 cvtpd2ps xmm0, xmm0
  00290	f3 0f 5a c0	 cvtss2sd xmm0, xmm0
  00294	0f 5a c9	 cvtps2pd xmm1, xmm1
  00297	66 0f 2f c8	 comisd	 xmm1, xmm0
  0029b	72 0d		 jb	 SHORT $LN36@OnReturnMo

; 359  : 		SetEndState( false, true, false );

  0029d	8b cb		 mov	 ecx, ebx
$LN3@OnReturnMo:

; 348  : 	}
; 349  : 	else
; 350  : 	{	
; 351  : 		SetEndState( false, true, false );

  0029f	6a 00		 push	 0
  002a1	6a 01		 push	 1
  002a3	6a 00		 push	 0
  002a5	e8 00 00 00 00	 call	 ?SetEndState@ioUroborusWeapon6@@QAEX_N00@Z ; ioUroborusWeapon6::SetEndState
$LN36@OnReturnMo:
  002aa	5f		 pop	 edi
  002ab	5e		 pop	 esi
$LN1@OnReturnMo:

; 360  : }

  002ac	8b 4d fc	 mov	 ecx, DWORD PTR __$ArrayPad$[ebp]
  002af	33 cd		 xor	 ecx, ebp
  002b1	5b		 pop	 ebx
  002b2	e8 00 00 00 00	 call	 @__security_check_cookie@4
  002b7	c9		 leave
  002b8	c2 08 00	 ret	 8
?OnReturnMove@ioUroborusWeapon6@@IAEXMPAVioPlayStage@@@Z ENDP ; ioUroborusWeapon6::OnReturnMove
_TEXT	ENDS
EXTRN	?IsSystemState@ioBaseChar@@QAE_NXZ:PROC		; ioBaseChar::IsSystemState
EXTRN	__imp_?IsLive@ioEffect@@QBE_NXZ:PROC
; Function compile flags: /Ogsp
;	COMDAT ?Process@ioUroborusWeapon6@@UAEXMPAVioPlayStage@@@Z
_TEXT	SEGMENT
_vPos$530873 = -24					; size = 12
_vOwnerPos$530872 = -12					; size = 12
_fTimePerSec$ = 8					; size = 4
tv477 = 12						; size = 4
tv474 = 12						; size = 4
_pStage$ = 12						; size = 4
?Process@ioUroborusWeapon6@@UAEXMPAVioPlayStage@@@Z PROC ; ioUroborusWeapon6::Process, COMDAT
; _this$ = ecx

; 213  : {

  00000	55		 push	 ebp
  00001	8b ec		 mov	 ebp, esp
  00003	83 ec 18	 sub	 esp, 24			; 00000018H
  00006	53		 push	 ebx
  00007	57		 push	 edi
  00008	8b d9		 mov	 ebx, ecx

; 214  : 	if( !CheckPiercing() )

  0000a	8b 03		 mov	 eax, DWORD PTR [ebx]
  0000c	33 ff		 xor	 edi, edi
  0000e	57		 push	 edi
  0000f	ff 90 48 01 00
	00		 call	 DWORD PTR [eax+328]
  00015	84 c0		 test	 al, al
  00017	0f 84 c6 01 00
	00		 je	 $LN1@Process

; 215  : 		return;
; 216  : 
; 217  : 	DWORD dwCurTime = FRAMEGETTIME();

  0001d	ff 15 00 00 00
	00		 call	 DWORD PTR __imp_?GetSingleton@ioFrameTimer@@SAAAV1@XZ
  00023	8b c8		 mov	 ecx, eax
  00025	ff 15 00 00 00
	00		 call	 DWORD PTR __imp_?GetLoopSec@ioFrameTimer@@QBEKXZ

; 218  : 
; 219  : 	switch( m_UroborusState )

  0002b	8b 8b 94 08 00
	00		 mov	 ecx, DWORD PTR [ebx+2196]
  00031	2b cf		 sub	 ecx, edi
  00033	f3 0f 10 45 08	 movss	 xmm0, DWORD PTR _fTimePerSec$[ebp]
  00038	74 4f		 je	 SHORT $LN10@Process
  0003a	49		 dec	 ecx
  0003b	74 3a		 je	 SHORT $LN8@Process
  0003d	49		 dec	 ecx
  0003e	75 76		 jne	 SHORT $LN26@Process

; 231  : 	case US_END:
; 232  : 		if( !m_pFireMesh || !m_pFireMesh->IsLive() )

  00040	8b 8b 98 08 00
	00		 mov	 ecx, DWORD PTR [ebx+2200]
  00046	3b cf		 cmp	 ecx, edi
  00048	74 0a		 je	 SHORT $LN5@Process
  0004a	ff 15 00 00 00
	00		 call	 DWORD PTR __imp_?IsLive@ioEffect@@QBE_NXZ
  00050	84 c0		 test	 al, al
  00052	75 62		 jne	 SHORT $LN26@Process
$LN5@Process:

; 233  : 		{
; 234  : 			CheckCreateWeaponList();

  00054	8b 03		 mov	 eax, DWORD PTR [ebx]
  00056	8b cb		 mov	 ecx, ebx
  00058	ff 90 50 01 00
	00		 call	 DWORD PTR [eax+336]

; 235  : 			DestroyResource( pStage );

  0005e	ff 75 0c	 push	 DWORD PTR _pStage$[ebp]
  00061	8b 03		 mov	 eax, DWORD PTR [ebx]
  00063	8b cb		 mov	 ecx, ebx
  00065	ff 90 9c 00 00
	00		 call	 DWORD PTR [eax+156]

; 236  : 			SetWeaponDead();

  0006b	8b 03		 mov	 eax, DWORD PTR [ebx]
  0006d	8b cb		 mov	 ecx, ebx
  0006f	ff 50 4c	 call	 DWORD PTR [eax+76]

; 237  : 			return;

  00072	e9 6c 01 00 00	 jmp	 $LN1@Process
$LN8@Process:

; 226  : 
; 227  : 		break;
; 228  : 	case US_RETURN_MOVE:
; 229  : 		OnReturnMove( fTimePerSec, pStage );

  00077	ff 75 0c	 push	 DWORD PTR _pStage$[ebp]
  0007a	51		 push	 ecx
  0007b	8b cb		 mov	 ecx, ebx
  0007d	f3 0f 11 04 24	 movss	 DWORD PTR [esp], xmm0
  00082	e8 00 00 00 00	 call	 ?OnReturnMove@ioUroborusWeapon6@@IAEXMPAVioPlayStage@@@Z ; ioUroborusWeapon6::OnReturnMove

; 230  : 		break;

  00087	eb 2d		 jmp	 SHORT $LN26@Process
$LN10@Process:

; 220  : 	{
; 221  : 	case US_MOVE:
; 222  : 		if( m_bUseDelayStartTime && dwCurTime < (m_dwCreatedTime+m_dwDelayStartTime) )

  00089	80 bb 0c 0a 00
	00 00		 cmp	 BYTE PTR [ebx+2572], 0
  00090	74 14		 je	 SHORT $LN9@Process
  00092	8b 8b 10 0a 00
	00		 mov	 ecx, DWORD PTR [ebx+2576]
  00098	03 8b d4 04 00
	00		 add	 ecx, DWORD PTR [ebx+1236]
  0009e	3b c1		 cmp	 eax, ecx
  000a0	0f 82 3d 01 00
	00		 jb	 $LN1@Process
$LN9@Process:

; 223  : 			return;
; 224  : 
; 225  : 		OnFloating( fTimePerSec, pStage );

  000a6	ff 75 0c	 push	 DWORD PTR _pStage$[ebp]
  000a9	51		 push	 ecx
  000aa	8b cb		 mov	 ecx, ebx
  000ac	f3 0f 11 04 24	 movss	 DWORD PTR [esp], xmm0
  000b1	e8 00 00 00 00	 call	 ?OnFloating@ioUroborusWeapon6@@IAEXMPAVioPlayStage@@@Z ; ioUroborusWeapon6::OnFloating
$LN26@Process:

; 238  : 		}
; 239  : 		break;
; 240  : 	}
; 241  : 
; 242  : 	if( m_pFireMesh )

  000b6	8d 8b 98 08 00
	00		 lea	 ecx, DWORD PTR [ebx+2200]
  000bc	39 39		 cmp	 DWORD PTR [ecx], edi
  000be	74 2c		 je	 SHORT $LN4@Process

; 243  : 	{
; 244  : 		m_pFireMesh->Update( fTimePerSec * FLOAT1000 );

  000c0	b8 e8 03 00 00	 mov	 eax, 1000		; 000003e8H
  000c5	8b 09		 mov	 ecx, DWORD PTR [ecx]
  000c7	83 c1 14	 add	 ecx, 20			; 00000014H
  000ca	8b 11		 mov	 edx, DWORD PTR [ecx]
  000cc	89 45 0c	 mov	 DWORD PTR tv477[ebp], eax
  000cf	db 45 0c	 fild	 DWORD PTR tv477[ebp]
  000d2	85 c0		 test	 eax, eax
  000d4	79 06		 jns	 SHORT $LN28@Process
  000d6	d8 05 00 00 00
	00		 fadd	 DWORD PTR __real@4f800000
$LN28@Process:
  000dc	d8 4d 08	 fmul	 DWORD PTR _fTimePerSec$[ebp]
  000df	51		 push	 ecx
  000e0	d9 5d 0c	 fstp	 DWORD PTR tv474[ebp]
  000e3	d9 45 0c	 fld	 DWORD PTR tv474[ebp]
  000e6	d9 1c 24	 fstp	 DWORD PTR [esp]
  000e9	ff 52 40	 call	 DWORD PTR [edx+64]
$LN4@Process:

; 245  : 	}
; 246  : 
; 247  : 	UpdateWorldAttackBox( fTimePerSec, false );

  000ec	f3 0f 10 45 08	 movss	 xmm0, DWORD PTR _fTimePerSec$[ebp]
  000f1	8b 03		 mov	 eax, DWORD PTR [ebx]
  000f3	56		 push	 esi
  000f4	57		 push	 edi
  000f5	51		 push	 ecx
  000f6	8b cb		 mov	 ecx, ebx
  000f8	f3 0f 11 04 24	 movss	 DWORD PTR [esp], xmm0
  000fd	ff 90 38 01 00
	00		 call	 DWORD PTR [eax+312]

; 248  : 
; 249  : 	ioBaseChar* pOwner = GetOwner();

  00103	8b cb		 mov	 ecx, ebx
  00105	e8 00 00 00 00	 call	 ?GetOwner@ioWeapon@@QBEPAVioBaseChar@@XZ ; ioWeapon::GetOwner
  0010a	8b f0		 mov	 esi, eax

; 250  : 	if( pOwner )

  0010c	3b f7		 cmp	 esi, edi
  0010e	0f 84 ce 00 00
	00		 je	 $LN27@Process

; 251  : 	{
; 252  : 		if( pOwner->IsSystemState() )

  00114	8b ce		 mov	 ecx, esi
  00116	e8 00 00 00 00	 call	 ?IsSystemState@ioBaseChar@@QAE_NXZ ; ioBaseChar::IsSystemState
  0011b	84 c0		 test	 al, al
  0011d	74 09		 je	 SHORT $LN2@Process

; 253  : 		{
; 254  : 			SetEndState( false, true, false );

  0011f	57		 push	 edi
  00120	6a 01		 push	 1
  00122	57		 push	 edi

; 255  : 			return;

  00123	e9 b3 00 00 00	 jmp	 $LN29@Process
$LN2@Process:

; 256  : 		}
; 257  : 
; 258  : 		D3DXVECTOR3 vOwnerPos = pOwner->GetWorldPosition();

  00128	8b 06		 mov	 eax, DWORD PTR [esi]
  0012a	8b ce		 mov	 ecx, esi
  0012c	ff 50 70	 call	 DWORD PTR [eax+112]
  0012f	8b f0		 mov	 esi, eax

; 259  : 		D3DXVECTOR3 vPos      = GetPosition();

  00131	8b 03		 mov	 eax, DWORD PTR [ebx]
  00133	8d 7d f4	 lea	 edi, DWORD PTR _vOwnerPos$530872[ebp]
  00136	a5		 movsd
  00137	a5		 movsd
  00138	8b cb		 mov	 ecx, ebx
  0013a	a5		 movsd
  0013b	ff 50 70	 call	 DWORD PTR [eax+112]

; 260  : 		vPos = vOwnerPos - vPos;

  0013e	f3 0f 10 45 f4	 movss	 xmm0, DWORD PTR _vOwnerPos$530872[ebp]
  00143	8b f0		 mov	 esi, eax
  00145	8d 7d e8	 lea	 edi, DWORD PTR _vPos$530873[ebp]
  00148	a5		 movsd
  00149	a5		 movsd
  0014a	0f 5a c0	 cvtps2pd xmm0, xmm0
  0014d	a5		 movsd
  0014e	f3 0f 10 4d e8	 movss	 xmm1, DWORD PTR _vPos$530873[ebp]
  00153	f3 0f 10 55 ec	 movss	 xmm2, DWORD PTR _vPos$530873[ebp+4]
  00158	f3 0f 10 5d f0	 movss	 xmm3, DWORD PTR _vPos$530873[ebp+8]
  0015d	0f 5a c9	 cvtps2pd xmm1, xmm1
  00160	f2 0f 5c c1	 subsd	 xmm0, xmm1
  00164	f3 0f 10 4d f8	 movss	 xmm1, DWORD PTR _vOwnerPos$530872[ebp+4]
  00169	0f 5a c9	 cvtps2pd xmm1, xmm1
  0016c	0f 5a d2	 cvtps2pd xmm2, xmm2
  0016f	f2 0f 5c ca	 subsd	 xmm1, xmm2
  00173	f3 0f 10 55 fc	 movss	 xmm2, DWORD PTR _vOwnerPos$530872[ebp+8]
  00178	66 0f 5a c0	 cvtpd2ps xmm0, xmm0
  0017c	66 0f 5a c9	 cvtpd2ps xmm1, xmm1
  00180	f3 0f 5a c0	 cvtss2sd xmm0, xmm0
  00184	0f 5a d2	 cvtps2pd xmm2, xmm2

; 261  : 		float fLength = D3DXVec3Length(&vPos);

  00187	f2 0f 59 c0	 mulsd	 xmm0, xmm0
  0018b	f3 0f 5a c9	 cvtss2sd xmm1, xmm1
  0018f	0f 5a db	 cvtps2pd xmm3, xmm3
  00192	f2 0f 5c d3	 subsd	 xmm2, xmm3
  00196	f2 0f 59 c9	 mulsd	 xmm1, xmm1
  0019a	f2 0f 58 c8	 addsd	 xmm1, xmm0
  0019e	66 0f 5a d2	 cvtpd2ps xmm2, xmm2

; 262  : 		if( fLength > m_fMaxCheckLength )

  001a2	0f 57 c0	 xorps	 xmm0, xmm0
  001a5	f3 0f 5a d2	 cvtss2sd xmm2, xmm2
  001a9	f2 0f 59 d2	 mulsd	 xmm2, xmm2
  001ad	f2 0f 58 ca	 addsd	 xmm1, xmm2
  001b1	66 0f 5a c1	 cvtpd2ps xmm0, xmm1
  001b5	f3 0f 10 8b d0
	09 00 00	 movss	 xmm1, DWORD PTR [ebx+2512]
  001bd	0f 5a c0	 cvtps2pd xmm0, xmm0
  001c0	f2 0f 51 c0	 sqrtsd	 xmm0, xmm0
  001c4	66 0f 5a c0	 cvtpd2ps xmm0, xmm0
  001c8	f3 0f 5a c0	 cvtss2sd xmm0, xmm0
  001cc	0f 5a c9	 cvtps2pd xmm1, xmm1
  001cf	66 0f 2f c1	 comisd	 xmm0, xmm1
  001d3	76 0d		 jbe	 SHORT $LN27@Process

; 263  : 			SetEndState( false, true, false );

  001d5	6a 00		 push	 0
  001d7	6a 01		 push	 1
  001d9	6a 00		 push	 0
$LN29@Process:
  001db	8b cb		 mov	 ecx, ebx
  001dd	e8 00 00 00 00	 call	 ?SetEndState@ioUroborusWeapon6@@QAEX_N00@Z ; ioUroborusWeapon6::SetEndState
$LN27@Process:
  001e2	5e		 pop	 esi
$LN1@Process:
  001e3	5f		 pop	 edi
  001e4	5b		 pop	 ebx

; 264  : 	}
; 265  : }

  001e5	c9		 leave
  001e6	c2 08 00	 ret	 8
?Process@ioUroborusWeapon6@@UAEXMPAVioPlayStage@@@Z ENDP ; ioUroborusWeapon6::Process
_TEXT	ENDS
END
